; Listing generated by Microsoft (R) Optimizing Compiler Version 16.00.30319.01 

	TITLE	D:\Lost Saga For Developer\Youtube\Tutorial\Source\src\LSClient\ioQuestManager.cpp
	.686P
	.XMM
	include listing.inc
	.model	flat

INCLUDELIB MSVCRT
INCLUDELIB OLDNAMES

PUBLIC	?_EEM_DS@?$deque@UD3DXVECTOR3@@V?$allocator@UD3DXVECTOR3@@@std@@@std@@2HB ; std::deque<D3DXVECTOR3,std::allocator<D3DXVECTOR3> >::_EEM_DS
PUBLIC	?ms_Singleton@?$Singleton@VioQuestManager@@@@1PAVioQuestManager@@A ; Singleton<ioQuestManager>::ms_Singleton
;	COMDAT ?ms_Singleton@?$Singleton@VioQuestManager@@@@1PAVioQuestManager@@A
_BSS	SEGMENT
?ms_Singleton@?$Singleton@VioQuestManager@@@@1PAVioQuestManager@@A DD 01H DUP (?) ; Singleton<ioQuestManager>::ms_Singleton
_BSS	ENDS
;	COMDAT ?_EEM_DS@?$deque@UD3DXVECTOR3@@V?$allocator@UD3DXVECTOR3@@@std@@@std@@2HB
CONST	SEGMENT
?_EEM_DS@?$deque@UD3DXVECTOR3@@V?$allocator@UD3DXVECTOR3@@@std@@@std@@2HB DD 01H ; std::deque<D3DXVECTOR3,std::allocator<D3DXVECTOR3> >::_EEM_DS
CONST	ENDS
PUBLIC	?IsLevelGaugeAniEnd@TotalResultMainWnd@@SA_NXZ	; TotalResultMainWnd::IsLevelGaugeAniEnd
EXTRN	?sg_bLevelGaugeAniEnd@TotalResultMainWnd@@1_NA:BYTE ; TotalResultMainWnd::sg_bLevelGaugeAniEnd
; Function compile flags: /Ogsp
; File d:\lost saga for developer\youtube\tutorial\source\src\lsclient\gui\totalresultmainwnd.h
;	COMDAT ?IsLevelGaugeAniEnd@TotalResultMainWnd@@SA_NXZ
_TEXT	SEGMENT
?IsLevelGaugeAniEnd@TotalResultMainWnd@@SA_NXZ PROC	; TotalResultMainWnd::IsLevelGaugeAniEnd, COMDAT

; 1097 : 	static bool IsLevelGaugeAniEnd(){ return sg_bLevelGaugeAniEnd; }

  00000	a0 00 00 00 00	 mov	 al, BYTE PTR ?sg_bLevelGaugeAniEnd@TotalResultMainWnd@@1_NA ; TotalResultMainWnd::sg_bLevelGaugeAniEnd
  00005	c3		 ret	 0
?IsLevelGaugeAniEnd@TotalResultMainWnd@@SA_NXZ ENDP	; TotalResultMainWnd::IsLevelGaugeAniEnd
_TEXT	ENDS
PUBLIC	?return10@@YAIXZ				; return10
; Function compile flags: /Ogsp
; File d:\lost saga for developer\youtube\tutorial\source\src\lsclient\stdafx.h
;	COMDAT ?return10@@YAIXZ
_TEXT	SEGMENT
?return10@@YAIXZ PROC					; return10, COMDAT

; 21   : 	__forceinline unsigned int return10() { __asm mov eax, 10 };

  00000	b8 0a 00 00 00	 mov	 eax, 10			; 0000000aH
  00005	c3		 ret	 0
?return10@@YAIXZ ENDP					; return10
_TEXT	ENDS
PUBLIC	?return1000@@YAIXZ				; return1000
; Function compile flags: /Ogsp
;	COMDAT ?return1000@@YAIXZ
_TEXT	SEGMENT
?return1000@@YAIXZ PROC					; return1000, COMDAT

; 29   : 	__forceinline unsigned int return1000() { __asm mov eax, 1000 };

  00000	b8 e8 03 00 00	 mov	 eax, 1000		; 000003e8H
  00005	c3		 ret	 0
?return1000@@YAIXZ ENDP					; return1000
_TEXT	ENDS
PUBLIC	??_7bad_alloc@std@@6B@				; std::bad_alloc::`vftable'
PUBLIC	??0bad_alloc@std@@QAE@PBD@Z			; std::bad_alloc::bad_alloc
PUBLIC	??_R4bad_alloc@std@@6B@				; std::bad_alloc::`RTTI Complete Object Locator'
PUBLIC	??_R0?AVbad_alloc@std@@@8			; std::bad_alloc `RTTI Type Descriptor'
PUBLIC	??_R3bad_alloc@std@@8				; std::bad_alloc::`RTTI Class Hierarchy Descriptor'
PUBLIC	??_R2bad_alloc@std@@8				; std::bad_alloc::`RTTI Base Class Array'
PUBLIC	??_R1A@?0A@EA@bad_alloc@std@@8			; std::bad_alloc::`RTTI Base Class Descriptor at (0,-1,0,64)'
PUBLIC	??_R1A@?0A@EA@exception@std@@8			; std::exception::`RTTI Base Class Descriptor at (0,-1,0,64)'
PUBLIC	??_R0?AVexception@std@@@8			; std::exception `RTTI Type Descriptor'
PUBLIC	??_R3exception@std@@8				; std::exception::`RTTI Class Hierarchy Descriptor'
PUBLIC	??_R2exception@std@@8				; std::exception::`RTTI Base Class Array'
EXTRN	__imp_??0exception@std@@QAE@ABQBD@Z:PROC
EXTRN	??_7type_info@@6B@:QWORD			; type_info::`vftable'
EXTRN	??_Ebad_alloc@std@@UAEPAXI@Z:PROC		; std::bad_alloc::`vector deleting destructor'
EXTRN	?what@exception@std@@UBEPBDXZ:PROC		; std::exception::what
;	COMDAT ??_R2exception@std@@8
; File c:\program files (x86)\microsoft visual studio 10.0\vc\include\exception
rdata$r	SEGMENT
??_R2exception@std@@8 DD FLAT:??_R1A@?0A@EA@exception@std@@8 ; std::exception::`RTTI Base Class Array'
rdata$r	ENDS
;	COMDAT ??_R3exception@std@@8
rdata$r	SEGMENT
??_R3exception@std@@8 DD 00H				; std::exception::`RTTI Class Hierarchy Descriptor'
	DD	00H
	DD	01H
	DD	FLAT:??_R2exception@std@@8
rdata$r	ENDS
;	COMDAT ??_R0?AVexception@std@@@8
_DATA	SEGMENT
??_R0?AVexception@std@@@8 DD FLAT:??_7type_info@@6B@	; std::exception `RTTI Type Descriptor'
	DD	00H
	DB	'.?AVexception@std@@', 00H
_DATA	ENDS
;	COMDAT ??_R1A@?0A@EA@exception@std@@8
rdata$r	SEGMENT
??_R1A@?0A@EA@exception@std@@8 DD FLAT:??_R0?AVexception@std@@@8 ; std::exception::`RTTI Base Class Descriptor at (0,-1,0,64)'
	DD	00H
	DD	00H
	DD	0ffffffffH
	DD	00H
	DD	040H
	DD	FLAT:??_R3exception@std@@8
rdata$r	ENDS
;	COMDAT ??_R1A@?0A@EA@bad_alloc@std@@8
rdata$r	SEGMENT
??_R1A@?0A@EA@bad_alloc@std@@8 DD FLAT:??_R0?AVbad_alloc@std@@@8 ; std::bad_alloc::`RTTI Base Class Descriptor at (0,-1,0,64)'
	DD	01H
	DD	00H
	DD	0ffffffffH
	DD	00H
	DD	040H
	DD	FLAT:??_R3bad_alloc@std@@8
rdata$r	ENDS
;	COMDAT ??_R2bad_alloc@std@@8
rdata$r	SEGMENT
??_R2bad_alloc@std@@8 DD FLAT:??_R1A@?0A@EA@bad_alloc@std@@8 ; std::bad_alloc::`RTTI Base Class Array'
	DD	FLAT:??_R1A@?0A@EA@exception@std@@8
rdata$r	ENDS
;	COMDAT ??_R3bad_alloc@std@@8
rdata$r	SEGMENT
??_R3bad_alloc@std@@8 DD 00H				; std::bad_alloc::`RTTI Class Hierarchy Descriptor'
	DD	00H
	DD	02H
	DD	FLAT:??_R2bad_alloc@std@@8
rdata$r	ENDS
;	COMDAT ??_R0?AVbad_alloc@std@@@8
_DATA	SEGMENT
??_R0?AVbad_alloc@std@@@8 DD FLAT:??_7type_info@@6B@	; std::bad_alloc `RTTI Type Descriptor'
	DD	00H
	DB	'.?AVbad_alloc@std@@', 00H
_DATA	ENDS
;	COMDAT ??_R4bad_alloc@std@@6B@
rdata$r	SEGMENT
??_R4bad_alloc@std@@6B@ DD 00H				; std::bad_alloc::`RTTI Complete Object Locator'
	DD	00H
	DD	00H
	DD	FLAT:??_R0?AVbad_alloc@std@@@8
	DD	FLAT:??_R3bad_alloc@std@@8
rdata$r	ENDS
;	COMDAT ??_7bad_alloc@std@@6B@
CONST	SEGMENT
??_7bad_alloc@std@@6B@ DD FLAT:??_R4bad_alloc@std@@6B@	; std::bad_alloc::`vftable'
	DD	FLAT:??_Ebad_alloc@std@@UAEPAXI@Z
	DD	FLAT:?what@exception@std@@UBEPBDXZ
; Function compile flags: /Ogsp
CONST	ENDS
;	COMDAT ??0bad_alloc@std@@QAE@PBD@Z
_TEXT	SEGMENT
__Message$ = 8						; size = 4
??0bad_alloc@std@@QAE@PBD@Z PROC			; std::bad_alloc::bad_alloc, COMDAT
; _this$ = ecx

; 345  : 		{	// construct from message string

  00000	55		 push	 ebp
  00001	8b ec		 mov	 ebp, esp
  00003	56		 push	 esi
  00004	8d 45 08	 lea	 eax, DWORD PTR __Message$[ebp]
  00007	50		 push	 eax
  00008	8b f1		 mov	 esi, ecx
  0000a	ff 15 00 00 00
	00		 call	 DWORD PTR __imp_??0exception@std@@QAE@ABQBD@Z
  00010	c7 06 00 00 00
	00		 mov	 DWORD PTR [esi], OFFSET ??_7bad_alloc@std@@6B@

; 346  : 		}

  00016	8b c6		 mov	 eax, esi
  00018	5e		 pop	 esi
  00019	5d		 pop	 ebp
  0001a	c2 04 00	 ret	 4
??0bad_alloc@std@@QAE@PBD@Z ENDP			; std::bad_alloc::bad_alloc
_TEXT	ENDS
PUBLIC	??1bad_alloc@std@@UAE@XZ			; std::bad_alloc::~bad_alloc
EXTRN	__imp_??1exception@std@@UAE@XZ:PROC
; Function compile flags: /Ogsp
;	COMDAT ??1bad_alloc@std@@UAE@XZ
_TEXT	SEGMENT
??1bad_alloc@std@@UAE@XZ PROC				; std::bad_alloc::~bad_alloc, COMDAT
; _this$ = ecx

; 354  : 		{	// destroy the object

  00000	c7 01 00 00 00
	00		 mov	 DWORD PTR [ecx], OFFSET ??_7bad_alloc@std@@6B@

; 355  : 		}

  00006	ff 25 00 00 00
	00		 jmp	 DWORD PTR __imp_??1exception@std@@UAE@XZ
??1bad_alloc@std@@UAE@XZ ENDP				; std::bad_alloc::~bad_alloc
_TEXT	ENDS
EXTRN	??3@YAXPAX@Z:PROC				; operator delete
; Function compile flags: /Ogsp
;	COMDAT ??_Gbad_alloc@std@@UAEPAXI@Z
_TEXT	SEGMENT
___flags$ = 8						; size = 4
??_Gbad_alloc@std@@UAEPAXI@Z PROC			; std::bad_alloc::`scalar deleting destructor', COMDAT
; _this$ = ecx
  00000	55		 push	 ebp
  00001	8b ec		 mov	 ebp, esp
  00003	56		 push	 esi
  00004	8b f1		 mov	 esi, ecx
  00006	c7 06 00 00 00
	00		 mov	 DWORD PTR [esi], OFFSET ??_7bad_alloc@std@@6B@
  0000c	ff 15 00 00 00
	00		 call	 DWORD PTR __imp_??1exception@std@@UAE@XZ
  00012	f6 45 08 01	 test	 BYTE PTR ___flags$[ebp], 1
  00016	74 07		 je	 SHORT $LN1@scalar
  00018	56		 push	 esi
  00019	e8 00 00 00 00	 call	 ??3@YAXPAX@Z		; operator delete
  0001e	59		 pop	 ecx
$LN1@scalar:
  0001f	8b c6		 mov	 eax, esi
  00021	5e		 pop	 esi
  00022	5d		 pop	 ebp
  00023	c2 04 00	 ret	 4
??_Gbad_alloc@std@@UAEPAXI@Z ENDP			; std::bad_alloc::`scalar deleting destructor'
_TEXT	ENDS
PUBLIC	??2@YAPAXIPAX@Z					; operator new
; Function compile flags: /Ogsp
; File c:\program files (x86)\microsoft visual studio 10.0\vc\include\new
;	COMDAT ??2@YAPAXIPAX@Z
_TEXT	SEGMENT
___formal$ = 8						; size = 4
__Where$ = 12						; size = 4
??2@YAPAXIPAX@Z PROC					; operator new, COMDAT

; 56   : 	{	// construct array with placement at _Where

  00000	55		 push	 ebp
  00001	8b ec		 mov	 ebp, esp

; 57   : 	return (_Where);

  00003	8b 45 0c	 mov	 eax, DWORD PTR __Where$[ebp]

; 58   : 	}

  00006	5d		 pop	 ebp
  00007	c3		 ret	 0
??2@YAPAXIPAX@Z ENDP					; operator new
_TEXT	ENDS
PUBLIC	??3@YAXPAX0@Z					; operator delete
; Function compile flags: /Ogsp
;	COMDAT ??3@YAXPAX0@Z
_TEXT	SEGMENT
___formal$ = 8						; size = 4
___formal$ = 12						; size = 4
??3@YAXPAX0@Z PROC					; operator delete, COMDAT

; 62   : 	}

  00000	c3		 ret	 0
??3@YAXPAX0@Z ENDP					; operator delete
_TEXT	ENDS
PUBLIC	??1QuestHelp@ioQuestManager@@QAE@XZ		; ioQuestManager::QuestHelp::~QuestHelp
EXTRN	??1ioComplexStringPrinter@@QAE@XZ:PROC		; ioComplexStringPrinter::~ioComplexStringPrinter
; Function compile flags: /Ogsp
;	COMDAT ??1QuestHelp@ioQuestManager@@QAE@XZ
_TEXT	SEGMENT
??1QuestHelp@ioQuestManager@@QAE@XZ PROC		; ioQuestManager::QuestHelp::~QuestHelp, COMDAT
; _this$ = ecx
  00000	83 c1 0c	 add	 ecx, 12			; 0000000cH
  00003	e9 00 00 00 00	 jmp	 ??1ioComplexStringPrinter@@QAE@XZ ; ioComplexStringPrinter::~ioComplexStringPrinter
??1QuestHelp@ioQuestManager@@QAE@XZ ENDP		; ioQuestManager::QuestHelp::~QuestHelp
_TEXT	ENDS
PUBLIC	?_Adopt@_Iterator_base0@std@@QAEXPBX@Z		; std::_Iterator_base0::_Adopt
; Function compile flags: /Ogsp
; File c:\program files (x86)\microsoft visual studio 10.0\vc\include\xutility
;	COMDAT ?_Adopt@_Iterator_base0@std@@QAEXPBX@Z
_TEXT	SEGMENT
___formal$ = 8						; size = 4
?_Adopt@_Iterator_base0@std@@QAEXPBX@Z PROC		; std::_Iterator_base0::_Adopt, COMDAT
; _this$ = ecx

; 49   : 		}

  00000	c2 04 00	 ret	 4
?_Adopt@_Iterator_base0@std@@QAEXPBX@Z ENDP		; std::_Iterator_base0::_Adopt
_TEXT	ENDS
PUBLIC	??1ioINILoader_e@@QAE@XZ			; ioINILoader_e::~ioINILoader_e
EXTRN	__imp_??1ioINILoader@@QAE@XZ:PROC
; Function compile flags: /Ogsp
;	COMDAT ??1ioINILoader_e@@QAE@XZ
_TEXT	SEGMENT
??1ioINILoader_e@@QAE@XZ PROC				; ioINILoader_e::~ioINILoader_e, COMDAT
; _this$ = ecx
  00000	ff 25 00 00 00
	00		 jmp	 DWORD PTR __imp_??1ioINILoader@@QAE@XZ
??1ioINILoader_e@@QAE@XZ ENDP				; ioINILoader_e::~ioINILoader_e
_TEXT	ENDS
PUBLIC	?SetPlayStage@ioQuestManager@@QAEXPAVioPlayStage@@@Z ; ioQuestManager::SetPlayStage
; Function compile flags: /Ogsp
; File d:\lost saga for developer\youtube\tutorial\source\src\lsclient\ioquestmanager.cpp
;	COMDAT ?SetPlayStage@ioQuestManager@@QAEXPAVioPlayStage@@@Z
_TEXT	SEGMENT
_pPlayStage$ = 8					; size = 4
?SetPlayStage@ioQuestManager@@QAEXPAVioPlayStage@@@Z PROC ; ioQuestManager::SetPlayStage, COMDAT
; _this$ = ecx

; 483  : {

  00000	55		 push	 ebp
  00001	8b ec		 mov	 ebp, esp

; 484  : 	m_pPlayStage = pPlayStage;

  00003	8b 45 08	 mov	 eax, DWORD PTR _pPlayStage$[ebp]
  00006	89 41 7c	 mov	 DWORD PTR [ecx+124], eax

; 485  : }

  00009	5d		 pop	 ebp
  0000a	c2 04 00	 ret	 4
?SetPlayStage@ioQuestManager@@QAEXPAVioPlayStage@@@Z ENDP ; ioQuestManager::SetPlayStage
_TEXT	ENDS
PUBLIC	?IsQuestInfoChange@ioQuestManager@@QAE_NXZ	; ioQuestManager::IsQuestInfoChange
; Function compile flags: /Ogsp
;	COMDAT ?IsQuestInfoChange@ioQuestManager@@QAE_NXZ
_TEXT	SEGMENT
?IsQuestInfoChange@ioQuestManager@@QAE_NXZ PROC		; ioQuestManager::IsQuestInfoChange, COMDAT
; _this$ = ecx

; 792  : 	bool bReturn = m_bQuestInfoChange;

  00000	8a 41 78	 mov	 al, BYTE PTR [ecx+120]

; 793  : 	m_bQuestInfoChange = false;

  00003	c6 41 78 00	 mov	 BYTE PTR [ecx+120], 0

; 794  : 	return bReturn;
; 795  : }

  00007	c3		 ret	 0
?IsQuestInfoChange@ioQuestManager@@QAE_NXZ ENDP		; ioQuestManager::IsQuestInfoChange
_TEXT	ENDS
PUBLIC	?QuestAlarmChange@ioQuestManager@@QAEXXZ	; ioQuestManager::QuestAlarmChange
; Function compile flags: /Ogsp
;	COMDAT ?QuestAlarmChange@ioQuestManager@@QAEXXZ
_TEXT	SEGMENT
?QuestAlarmChange@ioQuestManager@@QAEXXZ PROC		; ioQuestManager::QuestAlarmChange, COMDAT
; _this$ = ecx

; 799  : 	m_bQuestAlarmChange = true;

  00000	c6 41 79 01	 mov	 BYTE PTR [ecx+121], 1

; 800  : }

  00004	c3		 ret	 0
?QuestAlarmChange@ioQuestManager@@QAEXXZ ENDP		; ioQuestManager::QuestAlarmChange
_TEXT	ENDS
PUBLIC	?IsQuestAlarmChange@ioQuestManager@@QAE_NXZ	; ioQuestManager::IsQuestAlarmChange
; Function compile flags: /Ogsp
;	COMDAT ?IsQuestAlarmChange@ioQuestManager@@QAE_NXZ
_TEXT	SEGMENT
?IsQuestAlarmChange@ioQuestManager@@QAE_NXZ PROC	; ioQuestManager::IsQuestAlarmChange, COMDAT
; _this$ = ecx

; 804  : 	bool bReturn = m_bQuestAlarmChange;

  00000	8a 41 79	 mov	 al, BYTE PTR [ecx+121]

; 805  : 	m_bQuestAlarmChange = false;

  00003	c6 41 79 00	 mov	 BYTE PTR [ecx+121], 0

; 806  : 	return bReturn;
; 807  : }

  00007	c3		 ret	 0
?IsQuestAlarmChange@ioQuestManager@@QAE_NXZ ENDP	; ioQuestManager::IsQuestAlarmChange
_TEXT	ENDS
PUBLIC	??0?$Singleton@VioQuestManager@@@@QAE@XZ	; Singleton<ioQuestManager>::Singleton<ioQuestManager>
; Function compile flags: /Ogsp
; File d:\lost saga for developer\youtube\tutorial\source\src\io3dengine\iosingleton.h
;	COMDAT ??0?$Singleton@VioQuestManager@@@@QAE@XZ
_TEXT	SEGMENT
??0?$Singleton@VioQuestManager@@@@QAE@XZ PROC		; Singleton<ioQuestManager>::Singleton<ioQuestManager>, COMDAT
; _this$ = ecx

; 27   : 	Singleton()

  00000	8b c1		 mov	 eax, ecx

; 28   : 	{
; 29   : 		assert( !ms_Singleton );
; 30   : 		int offset = (int)(T*)1 - (int)(Singleton <T>*)(T*)1;
; 31   : 		ms_Singleton = (T*)((int)this + offset);

  00002	8d 48 fc	 lea	 ecx, DWORD PTR [eax-4]
  00005	89 0d 00 00 00
	00		 mov	 DWORD PTR ?ms_Singleton@?$Singleton@VioQuestManager@@@@1PAVioQuestManager@@A, ecx ; Singleton<ioQuestManager>::ms_Singleton

; 32   : 	}

  0000b	c3		 ret	 0
??0?$Singleton@VioQuestManager@@@@QAE@XZ ENDP		; Singleton<ioQuestManager>::Singleton<ioQuestManager>
_TEXT	ENDS
PUBLIC	??1?$Singleton@VioQuestManager@@@@QAE@XZ	; Singleton<ioQuestManager>::~Singleton<ioQuestManager>
; Function compile flags: /Ogsp
;	COMDAT ??1?$Singleton@VioQuestManager@@@@QAE@XZ
_TEXT	SEGMENT
??1?$Singleton@VioQuestManager@@@@QAE@XZ PROC		; Singleton<ioQuestManager>::~Singleton<ioQuestManager>, COMDAT
; _this$ = ecx

; 36   : 		assert( ms_Singleton );
; 37   : 		ms_Singleton = 0;

  00000	83 25 00 00 00
	00 00		 and	 DWORD PTR ?ms_Singleton@?$Singleton@VioQuestManager@@@@1PAVioQuestManager@@A, 0 ; Singleton<ioQuestManager>::ms_Singleton

; 38   : 	}

  00007	c3		 ret	 0
??1?$Singleton@VioQuestManager@@@@QAE@XZ ENDP		; Singleton<ioQuestManager>::~Singleton<ioQuestManager>
_TEXT	ENDS
PUBLIC	?GetSingleton@?$Singleton@VioQuestManager@@@@SAAAVioQuestManager@@XZ ; Singleton<ioQuestManager>::GetSingleton
; Function compile flags: /Ogsp
;	COMDAT ?GetSingleton@?$Singleton@VioQuestManager@@@@SAAAVioQuestManager@@XZ
_TEXT	SEGMENT
?GetSingleton@?$Singleton@VioQuestManager@@@@SAAAVioQuestManager@@XZ PROC ; Singleton<ioQuestManager>::GetSingleton, COMDAT

; 42   : 		assert( ms_Singleton );
; 43   : 		return (*ms_Singleton);

  00000	a1 00 00 00 00	 mov	 eax, DWORD PTR ?ms_Singleton@?$Singleton@VioQuestManager@@@@1PAVioQuestManager@@A ; Singleton<ioQuestManager>::ms_Singleton

; 44   : 	}

  00005	c3		 ret	 0
?GetSingleton@?$Singleton@VioQuestManager@@@@SAAAVioQuestManager@@XZ ENDP ; Singleton<ioQuestManager>::GetSingleton
_TEXT	ENDS
PUBLIC	?empty@?$vector@PAVQuestParent@@V?$allocator@PAVQuestParent@@@std@@@std@@QBE_NXZ ; std::vector<QuestParent *,std::allocator<QuestParent *> >::empty
; Function compile flags: /Ogsp
; File c:\program files (x86)\microsoft visual studio 10.0\vc\include\vector
;	COMDAT ?empty@?$vector@PAVQuestParent@@V?$allocator@PAVQuestParent@@@std@@@std@@QBE_NXZ
_TEXT	SEGMENT
?empty@?$vector@PAVQuestParent@@V?$allocator@PAVQuestParent@@@std@@@std@@QBE_NXZ PROC ; std::vector<QuestParent *,std::allocator<QuestParent *> >::empty, COMDAT
; _this$ = ecx

; 889  : 		return (this->_Myfirst == this->_Mylast);

  00000	8b 01		 mov	 eax, DWORD PTR [ecx]
  00002	2b 41 04	 sub	 eax, DWORD PTR [ecx+4]
  00005	f7 d8		 neg	 eax
  00007	1b c0		 sbb	 eax, eax
  00009	40		 inc	 eax

; 890  : 		}

  0000a	c3		 ret	 0
?empty@?$vector@PAVQuestParent@@V?$allocator@PAVQuestParent@@@std@@@std@@QBE_NXZ ENDP ; std::vector<QuestParent *,std::allocator<QuestParent *> >::empty
_TEXT	ENDS
PUBLIC	?empty@?$vector@UQuestDelAndFail@ioQuestManager@@V?$allocator@UQuestDelAndFail@ioQuestManager@@@std@@@std@@QBE_NXZ ; std::vector<ioQuestManager::QuestDelAndFail,std::allocator<ioQuestManager::QuestDelAndFail> >::empty
; Function compile flags: /Ogsp
;	COMDAT ?empty@?$vector@UQuestDelAndFail@ioQuestManager@@V?$allocator@UQuestDelAndFail@ioQuestManager@@@std@@@std@@QBE_NXZ
_TEXT	SEGMENT
?empty@?$vector@UQuestDelAndFail@ioQuestManager@@V?$allocator@UQuestDelAndFail@ioQuestManager@@@std@@@std@@QBE_NXZ PROC ; std::vector<ioQuestManager::QuestDelAndFail,std::allocator<ioQuestManager::QuestDelAndFail> >::empty, COMDAT
; _this$ = ecx

; 889  : 		return (this->_Myfirst == this->_Mylast);

  00000	8b 01		 mov	 eax, DWORD PTR [ecx]
  00002	2b 41 04	 sub	 eax, DWORD PTR [ecx+4]
  00005	f7 d8		 neg	 eax
  00007	1b c0		 sbb	 eax, eax
  00009	40		 inc	 eax

; 890  : 		}

  0000a	c3		 ret	 0
?empty@?$vector@UQuestDelAndFail@ioQuestManager@@V?$allocator@UQuestDelAndFail@ioQuestManager@@@std@@@std@@QBE_NXZ ENDP ; std::vector<ioQuestManager::QuestDelAndFail,std::allocator<ioQuestManager::QuestDelAndFail> >::empty
_TEXT	ENDS
PUBLIC	??A?$vector@UQuestDelAndFail@ioQuestManager@@V?$allocator@UQuestDelAndFail@ioQuestManager@@@std@@@std@@QAEAAUQuestDelAndFail@ioQuestManager@@I@Z ; std::vector<ioQuestManager::QuestDelAndFail,std::allocator<ioQuestManager::QuestDelAndFail> >::operator[]
; Function compile flags: /Ogsp
;	COMDAT ??A?$vector@UQuestDelAndFail@ioQuestManager@@V?$allocator@UQuestDelAndFail@ioQuestManager@@@std@@@std@@QAEAAUQuestDelAndFail@ioQuestManager@@I@Z
_TEXT	SEGMENT
__Pos$ = 8						; size = 4
??A?$vector@UQuestDelAndFail@ioQuestManager@@V?$allocator@UQuestDelAndFail@ioQuestManager@@@std@@@std@@QAEAAUQuestDelAndFail@ioQuestManager@@I@Z PROC ; std::vector<ioQuestManager::QuestDelAndFail,std::allocator<ioQuestManager::QuestDelAndFail> >::operator[], COMDAT
; _this$ = ecx

; 928  : 		{	// subscript mutable sequence

  00000	55		 push	 ebp
  00001	8b ec		 mov	 ebp, esp

; 929  :  #if _ITERATOR_DEBUG_LEVEL == 2
; 930  : 		if (size() <= _Pos)
; 931  : 			{	// report error
; 932  : 			_DEBUG_ERROR("vector subscript out of range");
; 933  : 			_SCL_SECURE_OUT_OF_RANGE;
; 934  : 			}
; 935  : 
; 936  :  #elif _ITERATOR_DEBUG_LEVEL == 1
; 937  : 		_SCL_SECURE_VALIDATE_RANGE(_Pos < size());
; 938  :  #endif /* _ITERATOR_DEBUG_LEVEL */
; 939  : 
; 940  : 		return (*(this->_Myfirst + _Pos));

  00003	8b 01		 mov	 eax, DWORD PTR [ecx]
  00005	8b 4d 08	 mov	 ecx, DWORD PTR __Pos$[ebp]
  00008	8d 04 c8	 lea	 eax, DWORD PTR [eax+ecx*8]

; 941  : 		}

  0000b	5d		 pop	 ebp
  0000c	c2 04 00	 ret	 4
??A?$vector@UQuestDelAndFail@ioQuestManager@@V?$allocator@UQuestDelAndFail@ioQuestManager@@@std@@@std@@QAEAAUQuestDelAndFail@ioQuestManager@@I@Z ENDP ; std::vector<ioQuestManager::QuestDelAndFail,std::allocator<ioQuestManager::QuestDelAndFail> >::operator[]
_TEXT	ENDS
PUBLIC	?size@?$vector@PAUQuestHelp@ioQuestManager@@V?$allocator@PAUQuestHelp@ioQuestManager@@@std@@@std@@QBEIXZ ; std::vector<ioQuestManager::QuestHelp *,std::allocator<ioQuestManager::QuestHelp *> >::size
; Function compile flags: /Ogsp
;	COMDAT ?size@?$vector@PAUQuestHelp@ioQuestManager@@V?$allocator@PAUQuestHelp@ioQuestManager@@@std@@@std@@QBEIXZ
_TEXT	SEGMENT
?size@?$vector@PAUQuestHelp@ioQuestManager@@V?$allocator@PAUQuestHelp@ioQuestManager@@@std@@@std@@QBEIXZ PROC ; std::vector<ioQuestManager::QuestHelp *,std::allocator<ioQuestManager::QuestHelp *> >::size, COMDAT
; _this$ = ecx

; 879  : 		return (this->_Mylast - this->_Myfirst);

  00000	8b 41 04	 mov	 eax, DWORD PTR [ecx+4]
  00003	2b 01		 sub	 eax, DWORD PTR [ecx]
  00005	c1 f8 02	 sar	 eax, 2

; 880  : 		}

  00008	c3		 ret	 0
?size@?$vector@PAUQuestHelp@ioQuestManager@@V?$allocator@PAUQuestHelp@ioQuestManager@@@std@@@std@@QBEIXZ ENDP ; std::vector<ioQuestManager::QuestHelp *,std::allocator<ioQuestManager::QuestHelp *> >::size
_TEXT	ENDS
PUBLIC	??A?$vector@PAUQuestHelp@ioQuestManager@@V?$allocator@PAUQuestHelp@ioQuestManager@@@std@@@std@@QAEAAPAUQuestHelp@ioQuestManager@@I@Z ; std::vector<ioQuestManager::QuestHelp *,std::allocator<ioQuestManager::QuestHelp *> >::operator[]
; Function compile flags: /Ogsp
;	COMDAT ??A?$vector@PAUQuestHelp@ioQuestManager@@V?$allocator@PAUQuestHelp@ioQuestManager@@@std@@@std@@QAEAAPAUQuestHelp@ioQuestManager@@I@Z
_TEXT	SEGMENT
__Pos$ = 8						; size = 4
??A?$vector@PAUQuestHelp@ioQuestManager@@V?$allocator@PAUQuestHelp@ioQuestManager@@@std@@@std@@QAEAAPAUQuestHelp@ioQuestManager@@I@Z PROC ; std::vector<ioQuestManager::QuestHelp *,std::allocator<ioQuestManager::QuestHelp *> >::operator[], COMDAT
; _this$ = ecx

; 928  : 		{	// subscript mutable sequence

  00000	55		 push	 ebp
  00001	8b ec		 mov	 ebp, esp

; 929  :  #if _ITERATOR_DEBUG_LEVEL == 2
; 930  : 		if (size() <= _Pos)
; 931  : 			{	// report error
; 932  : 			_DEBUG_ERROR("vector subscript out of range");
; 933  : 			_SCL_SECURE_OUT_OF_RANGE;
; 934  : 			}
; 935  : 
; 936  :  #elif _ITERATOR_DEBUG_LEVEL == 1
; 937  : 		_SCL_SECURE_VALIDATE_RANGE(_Pos < size());
; 938  :  #endif /* _ITERATOR_DEBUG_LEVEL */
; 939  : 
; 940  : 		return (*(this->_Myfirst + _Pos));

  00003	8b 01		 mov	 eax, DWORD PTR [ecx]
  00005	8b 4d 08	 mov	 ecx, DWORD PTR __Pos$[ebp]
  00008	8d 04 88	 lea	 eax, DWORD PTR [eax+ecx*4]

; 941  : 		}

  0000b	5d		 pop	 ebp
  0000c	c2 04 00	 ret	 4
??A?$vector@PAUQuestHelp@ioQuestManager@@V?$allocator@PAUQuestHelp@ioQuestManager@@@std@@@std@@QAEAAPAUQuestHelp@ioQuestManager@@I@Z ENDP ; std::vector<ioQuestManager::QuestHelp *,std::allocator<ioQuestManager::QuestHelp *> >::operator[]
_TEXT	ENDS
PUBLIC	?size@?$vector@UCompleteReserve@ioQuestManager@@V?$allocator@UCompleteReserve@ioQuestManager@@@std@@@std@@QBEIXZ ; std::vector<ioQuestManager::CompleteReserve,std::allocator<ioQuestManager::CompleteReserve> >::size
; Function compile flags: /Ogsp
;	COMDAT ?size@?$vector@UCompleteReserve@ioQuestManager@@V?$allocator@UCompleteReserve@ioQuestManager@@@std@@@std@@QBEIXZ
_TEXT	SEGMENT
?size@?$vector@UCompleteReserve@ioQuestManager@@V?$allocator@UCompleteReserve@ioQuestManager@@@std@@@std@@QBEIXZ PROC ; std::vector<ioQuestManager::CompleteReserve,std::allocator<ioQuestManager::CompleteReserve> >::size, COMDAT
; _this$ = ecx

; 879  : 		return (this->_Mylast - this->_Myfirst);

  00000	8b 41 04	 mov	 eax, DWORD PTR [ecx+4]
  00003	2b 01		 sub	 eax, DWORD PTR [ecx]
  00005	c1 f8 04	 sar	 eax, 4

; 880  : 		}

  00008	c3		 ret	 0
?size@?$vector@UCompleteReserve@ioQuestManager@@V?$allocator@UCompleteReserve@ioQuestManager@@@std@@@std@@QBEIXZ ENDP ; std::vector<ioQuestManager::CompleteReserve,std::allocator<ioQuestManager::CompleteReserve> >::size
_TEXT	ENDS
PUBLIC	?empty@?$vector@UCompleteReserve@ioQuestManager@@V?$allocator@UCompleteReserve@ioQuestManager@@@std@@@std@@QBE_NXZ ; std::vector<ioQuestManager::CompleteReserve,std::allocator<ioQuestManager::CompleteReserve> >::empty
; Function compile flags: /Ogsp
;	COMDAT ?empty@?$vector@UCompleteReserve@ioQuestManager@@V?$allocator@UCompleteReserve@ioQuestManager@@@std@@@std@@QBE_NXZ
_TEXT	SEGMENT
?empty@?$vector@UCompleteReserve@ioQuestManager@@V?$allocator@UCompleteReserve@ioQuestManager@@@std@@@std@@QBE_NXZ PROC ; std::vector<ioQuestManager::CompleteReserve,std::allocator<ioQuestManager::CompleteReserve> >::empty, COMDAT
; _this$ = ecx

; 889  : 		return (this->_Myfirst == this->_Mylast);

  00000	8b 01		 mov	 eax, DWORD PTR [ecx]
  00002	2b 41 04	 sub	 eax, DWORD PTR [ecx+4]
  00005	f7 d8		 neg	 eax
  00007	1b c0		 sbb	 eax, eax
  00009	40		 inc	 eax

; 890  : 		}

  0000a	c3		 ret	 0
?empty@?$vector@UCompleteReserve@ioQuestManager@@V?$allocator@UCompleteReserve@ioQuestManager@@@std@@@std@@QBE_NXZ ENDP ; std::vector<ioQuestManager::CompleteReserve,std::allocator<ioQuestManager::CompleteReserve> >::empty
_TEXT	ENDS
PUBLIC	??R?$less@K@std@@QBE_NABK0@Z			; std::less<unsigned long>::operator()
; Function compile flags: /Ogsp
; File c:\program files (x86)\microsoft visual studio 10.0\vc\include\xfunctional
;	COMDAT ??R?$less@K@std@@QBE_NABK0@Z
_TEXT	SEGMENT
__Left$ = 8						; size = 4
__Right$ = 12						; size = 4
??R?$less@K@std@@QBE_NABK0@Z PROC			; std::less<unsigned long>::operator(), COMDAT
; _this$ = ecx

; 124  : 		{	// apply operator< to operands

  00000	55		 push	 ebp
  00001	8b ec		 mov	 ebp, esp

; 125  : 		return (_Left < _Right);

  00003	8b 45 08	 mov	 eax, DWORD PTR __Left$[ebp]
  00006	8b 00		 mov	 eax, DWORD PTR [eax]
  00008	8b 4d 0c	 mov	 ecx, DWORD PTR __Right$[ebp]
  0000b	3b 01		 cmp	 eax, DWORD PTR [ecx]
  0000d	1b c0		 sbb	 eax, eax
  0000f	f7 d8		 neg	 eax

; 126  : 		}

  00011	5d		 pop	 ebp
  00012	c2 08 00	 ret	 8
??R?$less@K@std@@QBE_NABK0@Z ENDP			; std::less<unsigned long>::operator()
_TEXT	ENDS
PUBLIC	?_Inside@?$vector@PAVQuestParent@@V?$allocator@PAVQuestParent@@@std@@@std@@IBE_NPBQAVQuestParent@@@Z ; std::vector<QuestParent *,std::allocator<QuestParent *> >::_Inside
; Function compile flags: /Ogsp
; File c:\program files (x86)\microsoft visual studio 10.0\vc\include\vector
;	COMDAT ?_Inside@?$vector@PAVQuestParent@@V?$allocator@PAVQuestParent@@@std@@@std@@IBE_NPBQAVQuestParent@@@Z
_TEXT	SEGMENT
__Ptr$ = 8						; size = 4
?_Inside@?$vector@PAVQuestParent@@V?$allocator@PAVQuestParent@@@std@@@std@@IBE_NPBQAVQuestParent@@@Z PROC ; std::vector<QuestParent *,std::allocator<QuestParent *> >::_Inside, COMDAT
; _this$ = ecx

; 1285 : 		{	// test if _Ptr points inside vector

  00000	55		 push	 ebp
  00001	8b ec		 mov	 ebp, esp

; 1286 : 		return (_Ptr < this->_Mylast && this->_Myfirst <= _Ptr);

  00003	8b 45 08	 mov	 eax, DWORD PTR __Ptr$[ebp]
  00006	3b 41 04	 cmp	 eax, DWORD PTR [ecx+4]
  00009	73 09		 jae	 SHORT $LN3@Inside
  0000b	39 01		 cmp	 DWORD PTR [ecx], eax
  0000d	77 05		 ja	 SHORT $LN3@Inside
  0000f	33 c0		 xor	 eax, eax
  00011	40		 inc	 eax
  00012	eb 02		 jmp	 SHORT $LN4@Inside
$LN3@Inside:
  00014	33 c0		 xor	 eax, eax
$LN4@Inside:

; 1287 : 		}

  00016	5d		 pop	 ebp
  00017	c2 04 00	 ret	 4
?_Inside@?$vector@PAVQuestParent@@V?$allocator@PAVQuestParent@@@std@@@std@@IBE_NPBQAVQuestParent@@@Z ENDP ; std::vector<QuestParent *,std::allocator<QuestParent *> >::_Inside
_TEXT	ENDS
PUBLIC	?_Orphan_range@?$vector@PAVQuestParent@@V?$allocator@PAVQuestParent@@@std@@@std@@IBEXPAPAVQuestParent@@0@Z ; std::vector<QuestParent *,std::allocator<QuestParent *> >::_Orphan_range
; Function compile flags: /Ogsp
;	COMDAT ?_Orphan_range@?$vector@PAVQuestParent@@V?$allocator@PAVQuestParent@@@std@@@std@@IBEXPAPAVQuestParent@@0@Z
_TEXT	SEGMENT
___formal$ = 8						; size = 4
___formal$ = 12						; size = 4
?_Orphan_range@?$vector@PAVQuestParent@@V?$allocator@PAVQuestParent@@@std@@@std@@IBEXPAPAVQuestParent@@0@Z PROC ; std::vector<QuestParent *,std::allocator<QuestParent *> >::_Orphan_range, COMDAT
; _this$ = ecx

; 1454 : 		}

  00000	c2 08 00	 ret	 8
?_Orphan_range@?$vector@PAVQuestParent@@V?$allocator@PAVQuestParent@@@std@@@std@@IBEXPAPAVQuestParent@@0@Z ENDP ; std::vector<QuestParent *,std::allocator<QuestParent *> >::_Orphan_range
_TEXT	ENDS
PUBLIC	??1?$_Vector_val@PAVQuestParent@@V?$allocator@PAVQuestParent@@@std@@@std@@QAE@XZ ; std::_Vector_val<QuestParent *,std::allocator<QuestParent *> >::~_Vector_val<QuestParent *,std::allocator<QuestParent *> >
; Function compile flags: /Ogsp
;	COMDAT ??1?$_Vector_val@PAVQuestParent@@V?$allocator@PAVQuestParent@@@std@@@std@@QAE@XZ
_TEXT	SEGMENT
??1?$_Vector_val@PAVQuestParent@@V?$allocator@PAVQuestParent@@@std@@@std@@QAE@XZ PROC ; std::_Vector_val<QuestParent *,std::allocator<QuestParent *> >::~_Vector_val<QuestParent *,std::allocator<QuestParent *> >, COMDAT
; _this$ = ecx

; 434  : 		}

  00000	c3		 ret	 0
??1?$_Vector_val@PAVQuestParent@@V?$allocator@PAVQuestParent@@@std@@@std@@QAE@XZ ENDP ; std::_Vector_val<QuestParent *,std::allocator<QuestParent *> >::~_Vector_val<QuestParent *,std::allocator<QuestParent *> >
_TEXT	ENDS
PUBLIC	??0?$allocator@PAVQuestParent@@@std@@QAE@XZ	; std::allocator<QuestParent *>::allocator<QuestParent *>
; Function compile flags: /Ogsp
; File c:\program files (x86)\microsoft visual studio 10.0\vc\include\xmemory
;	COMDAT ??0?$allocator@PAVQuestParent@@@std@@QAE@XZ
_TEXT	SEGMENT
??0?$allocator@PAVQuestParent@@@std@@QAE@XZ PROC	; std::allocator<QuestParent *>::allocator<QuestParent *>, COMDAT
; _this$ = ecx

; 161  : 	_ALLOCATOR() _THROW0()

  00000	8b c1		 mov	 eax, ecx

; 162  : 		{	// construct default allocator (do nothing)
; 163  : 		}

  00002	c3		 ret	 0
??0?$allocator@PAVQuestParent@@@std@@QAE@XZ ENDP	; std::allocator<QuestParent *>::allocator<QuestParent *>
_TEXT	ENDS
PUBLIC	?_Inside@?$vector@UQuestDelAndFail@ioQuestManager@@V?$allocator@UQuestDelAndFail@ioQuestManager@@@std@@@std@@IBE_NPBUQuestDelAndFail@ioQuestManager@@@Z ; std::vector<ioQuestManager::QuestDelAndFail,std::allocator<ioQuestManager::QuestDelAndFail> >::_Inside
; Function compile flags: /Ogsp
; File c:\program files (x86)\microsoft visual studio 10.0\vc\include\vector
;	COMDAT ?_Inside@?$vector@UQuestDelAndFail@ioQuestManager@@V?$allocator@UQuestDelAndFail@ioQuestManager@@@std@@@std@@IBE_NPBUQuestDelAndFail@ioQuestManager@@@Z
_TEXT	SEGMENT
__Ptr$ = 8						; size = 4
?_Inside@?$vector@UQuestDelAndFail@ioQuestManager@@V?$allocator@UQuestDelAndFail@ioQuestManager@@@std@@@std@@IBE_NPBUQuestDelAndFail@ioQuestManager@@@Z PROC ; std::vector<ioQuestManager::QuestDelAndFail,std::allocator<ioQuestManager::QuestDelAndFail> >::_Inside, COMDAT
; _this$ = ecx

; 1285 : 		{	// test if _Ptr points inside vector

  00000	55		 push	 ebp
  00001	8b ec		 mov	 ebp, esp

; 1286 : 		return (_Ptr < this->_Mylast && this->_Myfirst <= _Ptr);

  00003	8b 45 08	 mov	 eax, DWORD PTR __Ptr$[ebp]
  00006	3b 41 04	 cmp	 eax, DWORD PTR [ecx+4]
  00009	73 09		 jae	 SHORT $LN3@Inside@2
  0000b	39 01		 cmp	 DWORD PTR [ecx], eax
  0000d	77 05		 ja	 SHORT $LN3@Inside@2
  0000f	33 c0		 xor	 eax, eax
  00011	40		 inc	 eax
  00012	eb 02		 jmp	 SHORT $LN4@Inside@2
$LN3@Inside@2:
  00014	33 c0		 xor	 eax, eax
$LN4@Inside@2:

; 1287 : 		}

  00016	5d		 pop	 ebp
  00017	c2 04 00	 ret	 4
?_Inside@?$vector@UQuestDelAndFail@ioQuestManager@@V?$allocator@UQuestDelAndFail@ioQuestManager@@@std@@@std@@IBE_NPBUQuestDelAndFail@ioQuestManager@@@Z ENDP ; std::vector<ioQuestManager::QuestDelAndFail,std::allocator<ioQuestManager::QuestDelAndFail> >::_Inside
_TEXT	ENDS
PUBLIC	?_Orphan_range@?$vector@UQuestDelAndFail@ioQuestManager@@V?$allocator@UQuestDelAndFail@ioQuestManager@@@std@@@std@@IBEXPAUQuestDelAndFail@ioQuestManager@@0@Z ; std::vector<ioQuestManager::QuestDelAndFail,std::allocator<ioQuestManager::QuestDelAndFail> >::_Orphan_range
; Function compile flags: /Ogsp
;	COMDAT ?_Orphan_range@?$vector@UQuestDelAndFail@ioQuestManager@@V?$allocator@UQuestDelAndFail@ioQuestManager@@@std@@@std@@IBEXPAUQuestDelAndFail@ioQuestManager@@0@Z
_TEXT	SEGMENT
___formal$ = 8						; size = 4
___formal$ = 12						; size = 4
?_Orphan_range@?$vector@UQuestDelAndFail@ioQuestManager@@V?$allocator@UQuestDelAndFail@ioQuestManager@@@std@@@std@@IBEXPAUQuestDelAndFail@ioQuestManager@@0@Z PROC ; std::vector<ioQuestManager::QuestDelAndFail,std::allocator<ioQuestManager::QuestDelAndFail> >::_Orphan_range, COMDAT
; _this$ = ecx

; 1454 : 		}

  00000	c2 08 00	 ret	 8
?_Orphan_range@?$vector@UQuestDelAndFail@ioQuestManager@@V?$allocator@UQuestDelAndFail@ioQuestManager@@@std@@@std@@IBEXPAUQuestDelAndFail@ioQuestManager@@0@Z ENDP ; std::vector<ioQuestManager::QuestDelAndFail,std::allocator<ioQuestManager::QuestDelAndFail> >::_Orphan_range
_TEXT	ENDS
PUBLIC	??1?$_Vector_val@UQuestDelAndFail@ioQuestManager@@V?$allocator@UQuestDelAndFail@ioQuestManager@@@std@@@std@@QAE@XZ ; std::_Vector_val<ioQuestManager::QuestDelAndFail,std::allocator<ioQuestManager::QuestDelAndFail> >::~_Vector_val<ioQuestManager::QuestDelAndFail,std::allocator<ioQuestManager::QuestDelAndFail> >
; Function compile flags: /Ogsp
;	COMDAT ??1?$_Vector_val@UQuestDelAndFail@ioQuestManager@@V?$allocator@UQuestDelAndFail@ioQuestManager@@@std@@@std@@QAE@XZ
_TEXT	SEGMENT
??1?$_Vector_val@UQuestDelAndFail@ioQuestManager@@V?$allocator@UQuestDelAndFail@ioQuestManager@@@std@@@std@@QAE@XZ PROC ; std::_Vector_val<ioQuestManager::QuestDelAndFail,std::allocator<ioQuestManager::QuestDelAndFail> >::~_Vector_val<ioQuestManager::QuestDelAndFail,std::allocator<ioQuestManager::QuestDelAndFail> >, COMDAT
; _this$ = ecx

; 434  : 		}

  00000	c3		 ret	 0
??1?$_Vector_val@UQuestDelAndFail@ioQuestManager@@V?$allocator@UQuestDelAndFail@ioQuestManager@@@std@@@std@@QAE@XZ ENDP ; std::_Vector_val<ioQuestManager::QuestDelAndFail,std::allocator<ioQuestManager::QuestDelAndFail> >::~_Vector_val<ioQuestManager::QuestDelAndFail,std::allocator<ioQuestManager::QuestDelAndFail> >
_TEXT	ENDS
PUBLIC	??0?$allocator@UQuestDelAndFail@ioQuestManager@@@std@@QAE@XZ ; std::allocator<ioQuestManager::QuestDelAndFail>::allocator<ioQuestManager::QuestDelAndFail>
; Function compile flags: /Ogsp
; File c:\program files (x86)\microsoft visual studio 10.0\vc\include\xmemory
;	COMDAT ??0?$allocator@UQuestDelAndFail@ioQuestManager@@@std@@QAE@XZ
_TEXT	SEGMENT
??0?$allocator@UQuestDelAndFail@ioQuestManager@@@std@@QAE@XZ PROC ; std::allocator<ioQuestManager::QuestDelAndFail>::allocator<ioQuestManager::QuestDelAndFail>, COMDAT
; _this$ = ecx

; 161  : 	_ALLOCATOR() _THROW0()

  00000	8b c1		 mov	 eax, ecx

; 162  : 		{	// construct default allocator (do nothing)
; 163  : 		}

  00002	c3		 ret	 0
??0?$allocator@UQuestDelAndFail@ioQuestManager@@@std@@QAE@XZ ENDP ; std::allocator<ioQuestManager::QuestDelAndFail>::allocator<ioQuestManager::QuestDelAndFail>
_TEXT	ENDS
PUBLIC	??0?$allocator@U?$pair@$$CBKUQuestReward@ioQuestManager@@@std@@@std@@QAE@XZ ; std::allocator<std::pair<unsigned long const ,ioQuestManager::QuestReward> >::allocator<std::pair<unsigned long const ,ioQuestManager::QuestReward> >
; Function compile flags: /Ogsp
;	COMDAT ??0?$allocator@U?$pair@$$CBKUQuestReward@ioQuestManager@@@std@@@std@@QAE@XZ
_TEXT	SEGMENT
??0?$allocator@U?$pair@$$CBKUQuestReward@ioQuestManager@@@std@@@std@@QAE@XZ PROC ; std::allocator<std::pair<unsigned long const ,ioQuestManager::QuestReward> >::allocator<std::pair<unsigned long const ,ioQuestManager::QuestReward> >, COMDAT
; _this$ = ecx

; 161  : 	_ALLOCATOR() _THROW0()

  00000	8b c1		 mov	 eax, ecx

; 162  : 		{	// construct default allocator (do nothing)
; 163  : 		}

  00002	c3		 ret	 0
??0?$allocator@U?$pair@$$CBKUQuestReward@ioQuestManager@@@std@@@std@@QAE@XZ ENDP ; std::allocator<std::pair<unsigned long const ,ioQuestManager::QuestReward> >::allocator<std::pair<unsigned long const ,ioQuestManager::QuestReward> >
_TEXT	ENDS
PUBLIC	?_Inside@?$vector@PAUQuestHelp@ioQuestManager@@V?$allocator@PAUQuestHelp@ioQuestManager@@@std@@@std@@IBE_NPBQAUQuestHelp@ioQuestManager@@@Z ; std::vector<ioQuestManager::QuestHelp *,std::allocator<ioQuestManager::QuestHelp *> >::_Inside
; Function compile flags: /Ogsp
; File c:\program files (x86)\microsoft visual studio 10.0\vc\include\vector
;	COMDAT ?_Inside@?$vector@PAUQuestHelp@ioQuestManager@@V?$allocator@PAUQuestHelp@ioQuestManager@@@std@@@std@@IBE_NPBQAUQuestHelp@ioQuestManager@@@Z
_TEXT	SEGMENT
__Ptr$ = 8						; size = 4
?_Inside@?$vector@PAUQuestHelp@ioQuestManager@@V?$allocator@PAUQuestHelp@ioQuestManager@@@std@@@std@@IBE_NPBQAUQuestHelp@ioQuestManager@@@Z PROC ; std::vector<ioQuestManager::QuestHelp *,std::allocator<ioQuestManager::QuestHelp *> >::_Inside, COMDAT
; _this$ = ecx

; 1285 : 		{	// test if _Ptr points inside vector

  00000	55		 push	 ebp
  00001	8b ec		 mov	 ebp, esp

; 1286 : 		return (_Ptr < this->_Mylast && this->_Myfirst <= _Ptr);

  00003	8b 45 08	 mov	 eax, DWORD PTR __Ptr$[ebp]
  00006	3b 41 04	 cmp	 eax, DWORD PTR [ecx+4]
  00009	73 09		 jae	 SHORT $LN3@Inside@3
  0000b	39 01		 cmp	 DWORD PTR [ecx], eax
  0000d	77 05		 ja	 SHORT $LN3@Inside@3
  0000f	33 c0		 xor	 eax, eax
  00011	40		 inc	 eax
  00012	eb 02		 jmp	 SHORT $LN4@Inside@3
$LN3@Inside@3:
  00014	33 c0		 xor	 eax, eax
$LN4@Inside@3:

; 1287 : 		}

  00016	5d		 pop	 ebp
  00017	c2 04 00	 ret	 4
?_Inside@?$vector@PAUQuestHelp@ioQuestManager@@V?$allocator@PAUQuestHelp@ioQuestManager@@@std@@@std@@IBE_NPBQAUQuestHelp@ioQuestManager@@@Z ENDP ; std::vector<ioQuestManager::QuestHelp *,std::allocator<ioQuestManager::QuestHelp *> >::_Inside
_TEXT	ENDS
PUBLIC	?_Orphan_range@?$vector@PAUQuestHelp@ioQuestManager@@V?$allocator@PAUQuestHelp@ioQuestManager@@@std@@@std@@IBEXPAPAUQuestHelp@ioQuestManager@@0@Z ; std::vector<ioQuestManager::QuestHelp *,std::allocator<ioQuestManager::QuestHelp *> >::_Orphan_range
; Function compile flags: /Ogsp
;	COMDAT ?_Orphan_range@?$vector@PAUQuestHelp@ioQuestManager@@V?$allocator@PAUQuestHelp@ioQuestManager@@@std@@@std@@IBEXPAPAUQuestHelp@ioQuestManager@@0@Z
_TEXT	SEGMENT
___formal$ = 8						; size = 4
___formal$ = 12						; size = 4
?_Orphan_range@?$vector@PAUQuestHelp@ioQuestManager@@V?$allocator@PAUQuestHelp@ioQuestManager@@@std@@@std@@IBEXPAPAUQuestHelp@ioQuestManager@@0@Z PROC ; std::vector<ioQuestManager::QuestHelp *,std::allocator<ioQuestManager::QuestHelp *> >::_Orphan_range, COMDAT
; _this$ = ecx

; 1454 : 		}

  00000	c2 08 00	 ret	 8
?_Orphan_range@?$vector@PAUQuestHelp@ioQuestManager@@V?$allocator@PAUQuestHelp@ioQuestManager@@@std@@@std@@IBEXPAPAUQuestHelp@ioQuestManager@@0@Z ENDP ; std::vector<ioQuestManager::QuestHelp *,std::allocator<ioQuestManager::QuestHelp *> >::_Orphan_range
_TEXT	ENDS
PUBLIC	??1?$_Vector_val@PAUQuestHelp@ioQuestManager@@V?$allocator@PAUQuestHelp@ioQuestManager@@@std@@@std@@QAE@XZ ; std::_Vector_val<ioQuestManager::QuestHelp *,std::allocator<ioQuestManager::QuestHelp *> >::~_Vector_val<ioQuestManager::QuestHelp *,std::allocator<ioQuestManager::QuestHelp *> >
; Function compile flags: /Ogsp
;	COMDAT ??1?$_Vector_val@PAUQuestHelp@ioQuestManager@@V?$allocator@PAUQuestHelp@ioQuestManager@@@std@@@std@@QAE@XZ
_TEXT	SEGMENT
??1?$_Vector_val@PAUQuestHelp@ioQuestManager@@V?$allocator@PAUQuestHelp@ioQuestManager@@@std@@@std@@QAE@XZ PROC ; std::_Vector_val<ioQuestManager::QuestHelp *,std::allocator<ioQuestManager::QuestHelp *> >::~_Vector_val<ioQuestManager::QuestHelp *,std::allocator<ioQuestManager::QuestHelp *> >, COMDAT
; _this$ = ecx

; 434  : 		}

  00000	c3		 ret	 0
??1?$_Vector_val@PAUQuestHelp@ioQuestManager@@V?$allocator@PAUQuestHelp@ioQuestManager@@@std@@@std@@QAE@XZ ENDP ; std::_Vector_val<ioQuestManager::QuestHelp *,std::allocator<ioQuestManager::QuestHelp *> >::~_Vector_val<ioQuestManager::QuestHelp *,std::allocator<ioQuestManager::QuestHelp *> >
_TEXT	ENDS
PUBLIC	??0?$allocator@PAUQuestHelp@ioQuestManager@@@std@@QAE@XZ ; std::allocator<ioQuestManager::QuestHelp *>::allocator<ioQuestManager::QuestHelp *>
; Function compile flags: /Ogsp
; File c:\program files (x86)\microsoft visual studio 10.0\vc\include\xmemory
;	COMDAT ??0?$allocator@PAUQuestHelp@ioQuestManager@@@std@@QAE@XZ
_TEXT	SEGMENT
??0?$allocator@PAUQuestHelp@ioQuestManager@@@std@@QAE@XZ PROC ; std::allocator<ioQuestManager::QuestHelp *>::allocator<ioQuestManager::QuestHelp *>, COMDAT
; _this$ = ecx

; 161  : 	_ALLOCATOR() _THROW0()

  00000	8b c1		 mov	 eax, ecx

; 162  : 		{	// construct default allocator (do nothing)
; 163  : 		}

  00002	c3		 ret	 0
??0?$allocator@PAUQuestHelp@ioQuestManager@@@std@@QAE@XZ ENDP ; std::allocator<ioQuestManager::QuestHelp *>::allocator<ioQuestManager::QuestHelp *>
_TEXT	ENDS
PUBLIC	??0?$allocator@U?$pair@$$CBKUQuestHelpList@ioQuestManager@@@std@@@std@@QAE@XZ ; std::allocator<std::pair<unsigned long const ,ioQuestManager::QuestHelpList> >::allocator<std::pair<unsigned long const ,ioQuestManager::QuestHelpList> >
; Function compile flags: /Ogsp
;	COMDAT ??0?$allocator@U?$pair@$$CBKUQuestHelpList@ioQuestManager@@@std@@@std@@QAE@XZ
_TEXT	SEGMENT
??0?$allocator@U?$pair@$$CBKUQuestHelpList@ioQuestManager@@@std@@@std@@QAE@XZ PROC ; std::allocator<std::pair<unsigned long const ,ioQuestManager::QuestHelpList> >::allocator<std::pair<unsigned long const ,ioQuestManager::QuestHelpList> >, COMDAT
; _this$ = ecx

; 161  : 	_ALLOCATOR() _THROW0()

  00000	8b c1		 mov	 eax, ecx

; 162  : 		{	// construct default allocator (do nothing)
; 163  : 		}

  00002	c3		 ret	 0
??0?$allocator@U?$pair@$$CBKUQuestHelpList@ioQuestManager@@@std@@@std@@QAE@XZ ENDP ; std::allocator<std::pair<unsigned long const ,ioQuestManager::QuestHelpList> >::allocator<std::pair<unsigned long const ,ioQuestManager::QuestHelpList> >
_TEXT	ENDS
PUBLIC	?_Inside@?$vector@UCompleteReserve@ioQuestManager@@V?$allocator@UCompleteReserve@ioQuestManager@@@std@@@std@@IBE_NPBUCompleteReserve@ioQuestManager@@@Z ; std::vector<ioQuestManager::CompleteReserve,std::allocator<ioQuestManager::CompleteReserve> >::_Inside
; Function compile flags: /Ogsp
; File c:\program files (x86)\microsoft visual studio 10.0\vc\include\vector
;	COMDAT ?_Inside@?$vector@UCompleteReserve@ioQuestManager@@V?$allocator@UCompleteReserve@ioQuestManager@@@std@@@std@@IBE_NPBUCompleteReserve@ioQuestManager@@@Z
_TEXT	SEGMENT
__Ptr$ = 8						; size = 4
?_Inside@?$vector@UCompleteReserve@ioQuestManager@@V?$allocator@UCompleteReserve@ioQuestManager@@@std@@@std@@IBE_NPBUCompleteReserve@ioQuestManager@@@Z PROC ; std::vector<ioQuestManager::CompleteReserve,std::allocator<ioQuestManager::CompleteReserve> >::_Inside, COMDAT
; _this$ = ecx

; 1285 : 		{	// test if _Ptr points inside vector

  00000	55		 push	 ebp
  00001	8b ec		 mov	 ebp, esp

; 1286 : 		return (_Ptr < this->_Mylast && this->_Myfirst <= _Ptr);

  00003	8b 45 08	 mov	 eax, DWORD PTR __Ptr$[ebp]
  00006	3b 41 04	 cmp	 eax, DWORD PTR [ecx+4]
  00009	73 09		 jae	 SHORT $LN3@Inside@4
  0000b	39 01		 cmp	 DWORD PTR [ecx], eax
  0000d	77 05		 ja	 SHORT $LN3@Inside@4
  0000f	33 c0		 xor	 eax, eax
  00011	40		 inc	 eax
  00012	eb 02		 jmp	 SHORT $LN4@Inside@4
$LN3@Inside@4:
  00014	33 c0		 xor	 eax, eax
$LN4@Inside@4:

; 1287 : 		}

  00016	5d		 pop	 ebp
  00017	c2 04 00	 ret	 4
?_Inside@?$vector@UCompleteReserve@ioQuestManager@@V?$allocator@UCompleteReserve@ioQuestManager@@@std@@@std@@IBE_NPBUCompleteReserve@ioQuestManager@@@Z ENDP ; std::vector<ioQuestManager::CompleteReserve,std::allocator<ioQuestManager::CompleteReserve> >::_Inside
_TEXT	ENDS
PUBLIC	?_Orphan_range@?$vector@UCompleteReserve@ioQuestManager@@V?$allocator@UCompleteReserve@ioQuestManager@@@std@@@std@@IBEXPAUCompleteReserve@ioQuestManager@@0@Z ; std::vector<ioQuestManager::CompleteReserve,std::allocator<ioQuestManager::CompleteReserve> >::_Orphan_range
; Function compile flags: /Ogsp
;	COMDAT ?_Orphan_range@?$vector@UCompleteReserve@ioQuestManager@@V?$allocator@UCompleteReserve@ioQuestManager@@@std@@@std@@IBEXPAUCompleteReserve@ioQuestManager@@0@Z
_TEXT	SEGMENT
___formal$ = 8						; size = 4
___formal$ = 12						; size = 4
?_Orphan_range@?$vector@UCompleteReserve@ioQuestManager@@V?$allocator@UCompleteReserve@ioQuestManager@@@std@@@std@@IBEXPAUCompleteReserve@ioQuestManager@@0@Z PROC ; std::vector<ioQuestManager::CompleteReserve,std::allocator<ioQuestManager::CompleteReserve> >::_Orphan_range, COMDAT
; _this$ = ecx

; 1454 : 		}

  00000	c2 08 00	 ret	 8
?_Orphan_range@?$vector@UCompleteReserve@ioQuestManager@@V?$allocator@UCompleteReserve@ioQuestManager@@@std@@@std@@IBEXPAUCompleteReserve@ioQuestManager@@0@Z ENDP ; std::vector<ioQuestManager::CompleteReserve,std::allocator<ioQuestManager::CompleteReserve> >::_Orphan_range
_TEXT	ENDS
PUBLIC	??1?$_Vector_val@UCompleteReserve@ioQuestManager@@V?$allocator@UCompleteReserve@ioQuestManager@@@std@@@std@@QAE@XZ ; std::_Vector_val<ioQuestManager::CompleteReserve,std::allocator<ioQuestManager::CompleteReserve> >::~_Vector_val<ioQuestManager::CompleteReserve,std::allocator<ioQuestManager::CompleteReserve> >
; Function compile flags: /Ogsp
;	COMDAT ??1?$_Vector_val@UCompleteReserve@ioQuestManager@@V?$allocator@UCompleteReserve@ioQuestManager@@@std@@@std@@QAE@XZ
_TEXT	SEGMENT
??1?$_Vector_val@UCompleteReserve@ioQuestManager@@V?$allocator@UCompleteReserve@ioQuestManager@@@std@@@std@@QAE@XZ PROC ; std::_Vector_val<ioQuestManager::CompleteReserve,std::allocator<ioQuestManager::CompleteReserve> >::~_Vector_val<ioQuestManager::CompleteReserve,std::allocator<ioQuestManager::CompleteReserve> >, COMDAT
; _this$ = ecx

; 434  : 		}

  00000	c3		 ret	 0
??1?$_Vector_val@UCompleteReserve@ioQuestManager@@V?$allocator@UCompleteReserve@ioQuestManager@@@std@@@std@@QAE@XZ ENDP ; std::_Vector_val<ioQuestManager::CompleteReserve,std::allocator<ioQuestManager::CompleteReserve> >::~_Vector_val<ioQuestManager::CompleteReserve,std::allocator<ioQuestManager::CompleteReserve> >
_TEXT	ENDS
PUBLIC	??0?$allocator@UCompleteReserve@ioQuestManager@@@std@@QAE@XZ ; std::allocator<ioQuestManager::CompleteReserve>::allocator<ioQuestManager::CompleteReserve>
; Function compile flags: /Ogsp
; File c:\program files (x86)\microsoft visual studio 10.0\vc\include\xmemory
;	COMDAT ??0?$allocator@UCompleteReserve@ioQuestManager@@@std@@QAE@XZ
_TEXT	SEGMENT
??0?$allocator@UCompleteReserve@ioQuestManager@@@std@@QAE@XZ PROC ; std::allocator<ioQuestManager::CompleteReserve>::allocator<ioQuestManager::CompleteReserve>, COMDAT
; _this$ = ecx

; 161  : 	_ALLOCATOR() _THROW0()

  00000	8b c1		 mov	 eax, ecx

; 162  : 		{	// construct default allocator (do nothing)
; 163  : 		}

  00002	c3		 ret	 0
??0?$allocator@UCompleteReserve@ioQuestManager@@@std@@QAE@XZ ENDP ; std::allocator<ioQuestManager::CompleteReserve>::allocator<ioQuestManager::CompleteReserve>
_TEXT	ENDS
PUBLIC	??D?$_Vector_const_iterator@V?$_Vector_val@PAVQuestParent@@V?$allocator@PAVQuestParent@@@std@@@std@@@std@@QBEABQAVQuestParent@@XZ ; std::_Vector_const_iterator<std::_Vector_val<QuestParent *,std::allocator<QuestParent *> > >::operator*
; Function compile flags: /Ogsp
; File c:\program files (x86)\microsoft visual studio 10.0\vc\include\vector
;	COMDAT ??D?$_Vector_const_iterator@V?$_Vector_val@PAVQuestParent@@V?$allocator@PAVQuestParent@@@std@@@std@@@std@@QBEABQAVQuestParent@@XZ
_TEXT	SEGMENT
??D?$_Vector_const_iterator@V?$_Vector_val@PAVQuestParent@@V?$allocator@PAVQuestParent@@@std@@@std@@@std@@QBEABQAVQuestParent@@XZ PROC ; std::_Vector_const_iterator<std::_Vector_val<QuestParent *,std::allocator<QuestParent *> > >::operator*, COMDAT
; _this$ = ecx

; 64   :  #if _ITERATOR_DEBUG_LEVEL == 2
; 65   : 		if (this->_Getcont() == 0
; 66   : 			|| this->_Ptr == 0
; 67   : 			|| this->_Ptr < ((_Myvec *)this->_Getcont())->_Myfirst
; 68   : 			|| ((_Myvec *)this->_Getcont())->_Mylast <= this->_Ptr)
; 69   : 			{	// report error
; 70   : 			_DEBUG_ERROR("vector iterator not dereferencable");
; 71   : 			_SCL_SECURE_OUT_OF_RANGE;
; 72   : 			}
; 73   : 
; 74   :  #elif _ITERATOR_DEBUG_LEVEL == 1
; 75   : 		_SCL_SECURE_VALIDATE(this->_Getcont() != 0);
; 76   : 		_SCL_SECURE_VALIDATE_RANGE(
; 77   : 			this->_Ptr != 0
; 78   : 			&& ((_Myvec *)this->_Getcont())->_Myfirst <= this->_Ptr
; 79   : 			&& this->_Ptr < ((_Myvec *)this->_Getcont())->_Mylast);
; 80   :  #endif /* _ITERATOR_DEBUG_LEVEL */
; 81   : 
; 82   : 		__analysis_assume(this->_Ptr != 0);
; 83   : 
; 84   : 		return (*this->_Ptr);

  00000	8b 01		 mov	 eax, DWORD PTR [ecx]

; 85   : 		}

  00002	c3		 ret	 0
??D?$_Vector_const_iterator@V?$_Vector_val@PAVQuestParent@@V?$allocator@PAVQuestParent@@@std@@@std@@@std@@QBEABQAVQuestParent@@XZ ENDP ; std::_Vector_const_iterator<std::_Vector_val<QuestParent *,std::allocator<QuestParent *> > >::operator*
_TEXT	ENDS
PUBLIC	??E?$_Vector_const_iterator@V?$_Vector_val@PAVQuestParent@@V?$allocator@PAVQuestParent@@@std@@@std@@@std@@QAEAAV01@XZ ; std::_Vector_const_iterator<std::_Vector_val<QuestParent *,std::allocator<QuestParent *> > >::operator++
; Function compile flags: /Ogsp
;	COMDAT ??E?$_Vector_const_iterator@V?$_Vector_val@PAVQuestParent@@V?$allocator@PAVQuestParent@@@std@@@std@@@std@@QAEAAV01@XZ
_TEXT	SEGMENT
??E?$_Vector_const_iterator@V?$_Vector_val@PAVQuestParent@@V?$allocator@PAVQuestParent@@@std@@@std@@@std@@QAEAAV01@XZ PROC ; std::_Vector_const_iterator<std::_Vector_val<QuestParent *,std::allocator<QuestParent *> > >::operator++, COMDAT
; _this$ = ecx

; 93   : 		{	// preincrement

  00000	8b c1		 mov	 eax, ecx

; 94   :  #if _ITERATOR_DEBUG_LEVEL == 2
; 95   : 		if (this->_Getcont() == 0
; 96   : 			|| this->_Ptr == 0
; 97   : 			|| ((_Myvec *)this->_Getcont())->_Mylast <= this->_Ptr)
; 98   : 			{	// report error
; 99   : 			_DEBUG_ERROR("vector iterator not incrementable");
; 100  : 			_SCL_SECURE_OUT_OF_RANGE;
; 101  : 			}
; 102  : 
; 103  :  #elif _ITERATOR_DEBUG_LEVEL == 1
; 104  : 		_SCL_SECURE_VALIDATE(this->_Getcont() != 0);
; 105  : 		_SCL_SECURE_VALIDATE_RANGE(
; 106  : 			this->_Ptr != 0
; 107  : 			&& this->_Ptr < ((_Myvec *)this->_Getcont())->_Mylast);
; 108  :  #endif /* _ITERATOR_DEBUG_LEVEL */
; 109  : 
; 110  : 		++this->_Ptr;

  00002	83 00 04	 add	 DWORD PTR [eax], 4

; 111  : 		return (*this);
; 112  : 		}

  00005	c3		 ret	 0
??E?$_Vector_const_iterator@V?$_Vector_val@PAVQuestParent@@V?$allocator@PAVQuestParent@@@std@@@std@@@std@@QAEAAV01@XZ ENDP ; std::_Vector_const_iterator<std::_Vector_val<QuestParent *,std::allocator<QuestParent *> > >::operator++
_TEXT	ENDS
PUBLIC	??8?$_Tree_const_iterator@V?$_Tree_val@V?$_Tmap_traits@KUQuestHelpList@ioQuestManager@@U?$less@K@std@@V?$allocator@U?$pair@$$CBKUQuestHelpList@ioQuestManager@@@std@@@4@$0A@@std@@@std@@@std@@QBE_NABV01@@Z ; std::_Tree_const_iterator<std::_Tree_val<std::_Tmap_traits<unsigned long,ioQuestManager::QuestHelpList,std::less<unsigned long>,std::allocator<std::pair<unsigned long const ,ioQuestManager::QuestHelpList> >,0> > >::operator==
; Function compile flags: /Ogsp
; File c:\program files (x86)\microsoft visual studio 10.0\vc\include\xtree
;	COMDAT ??8?$_Tree_const_iterator@V?$_Tree_val@V?$_Tmap_traits@KUQuestHelpList@ioQuestManager@@U?$less@K@std@@V?$allocator@U?$pair@$$CBKUQuestHelpList@ioQuestManager@@@std@@@4@$0A@@std@@@std@@@std@@QBE_NABV01@@Z
_TEXT	SEGMENT
__Right$ = 8						; size = 4
??8?$_Tree_const_iterator@V?$_Tree_val@V?$_Tmap_traits@KUQuestHelpList@ioQuestManager@@U?$less@K@std@@V?$allocator@U?$pair@$$CBKUQuestHelpList@ioQuestManager@@@std@@@4@$0A@@std@@@std@@@std@@QBE_NABV01@@Z PROC ; std::_Tree_const_iterator<std::_Tree_val<std::_Tmap_traits<unsigned long,ioQuestManager::QuestHelpList,std::less<unsigned long>,std::allocator<std::pair<unsigned long const ,ioQuestManager::QuestHelpList> >,0> > >::operator==, COMDAT
; _this$ = ecx

; 316  : 		{	// test for iterator equality

  00000	55		 push	 ebp
  00001	8b ec		 mov	 ebp, esp

; 317  :  #if _ITERATOR_DEBUG_LEVEL == 2
; 318  : 		if (this->_Getcont() == 0
; 319  : 			|| this->_Getcont() != _Right._Getcont())
; 320  : 			{	// report error
; 321  : 			_DEBUG_ERROR("map/set iterators incompatible");
; 322  : 			_SCL_SECURE_INVALID_ARGUMENT;
; 323  : 			}
; 324  : 
; 325  :  #elif _ITERATOR_DEBUG_LEVEL == 1
; 326  : 		_SCL_SECURE_VALIDATE(this->_Getcont() != 0
; 327  : 			&& this->_Getcont() == _Right._Getcont());
; 328  :  #endif /* _ITERATOR_DEBUG_LEVEL */
; 329  : 
; 330  : 		return (this->_Ptr == _Right._Ptr);

  00003	8b 01		 mov	 eax, DWORD PTR [ecx]
  00005	8b 4d 08	 mov	 ecx, DWORD PTR __Right$[ebp]
  00008	2b 01		 sub	 eax, DWORD PTR [ecx]
  0000a	f7 d8		 neg	 eax
  0000c	1b c0		 sbb	 eax, eax
  0000e	40		 inc	 eax

; 331  : 		}

  0000f	5d		 pop	 ebp
  00010	c2 04 00	 ret	 4
??8?$_Tree_const_iterator@V?$_Tree_val@V?$_Tmap_traits@KUQuestHelpList@ioQuestManager@@U?$less@K@std@@V?$allocator@U?$pair@$$CBKUQuestHelpList@ioQuestManager@@@std@@@4@$0A@@std@@@std@@@std@@QBE_NABV01@@Z ENDP ; std::_Tree_const_iterator<std::_Tree_val<std::_Tmap_traits<unsigned long,ioQuestManager::QuestHelpList,std::less<unsigned long>,std::allocator<std::pair<unsigned long const ,ioQuestManager::QuestHelpList> >,0> > >::operator==
_TEXT	ENDS
PUBLIC	?_Mynode@?$_Tree_unchecked_const_iterator@V?$_Tree_val@V?$_Tmap_traits@KUQuestHelpList@ioQuestManager@@U?$less@K@std@@V?$allocator@U?$pair@$$CBKUQuestHelpList@ioQuestManager@@@std@@@4@$0A@@std@@@std@@U_Iterator_base0@2@@std@@QBEPAU_Node@?$_Tree_nod@V?$_Tmap_traits@KUQuestHelpList@ioQuestManager@@U?$less@K@std@@V?$allocator@U?$pair@$$CBKUQuestHelpList@ioQuestManager@@@std@@@4@$0A@@std@@@2@XZ ; std::_Tree_unchecked_const_iterator<std::_Tree_val<std::_Tmap_traits<unsigned long,ioQuestManager::QuestHelpList,std::less<unsigned long>,std::allocator<std::pair<unsigned long const ,ioQuestManager::QuestHelpList> >,0> >,std::_Iterator_base0>::_Mynode
; Function compile flags: /Ogsp
;	COMDAT ?_Mynode@?$_Tree_unchecked_const_iterator@V?$_Tree_val@V?$_Tmap_traits@KUQuestHelpList@ioQuestManager@@U?$less@K@std@@V?$allocator@U?$pair@$$CBKUQuestHelpList@ioQuestManager@@@std@@@4@$0A@@std@@@std@@U_Iterator_base0@2@@std@@QBEPAU_Node@?$_Tree_nod@V?$_Tmap_traits@KUQuestHelpList@ioQuestManager@@U?$less@K@std@@V?$allocator@U?$pair@$$CBKUQuestHelpList@ioQuestManager@@@std@@@4@$0A@@std@@@2@XZ
_TEXT	SEGMENT
?_Mynode@?$_Tree_unchecked_const_iterator@V?$_Tree_val@V?$_Tmap_traits@KUQuestHelpList@ioQuestManager@@U?$less@K@std@@V?$allocator@U?$pair@$$CBKUQuestHelpList@ioQuestManager@@@std@@@4@$0A@@std@@@std@@U_Iterator_base0@2@@std@@QBEPAU_Node@?$_Tree_nod@V?$_Tmap_traits@KUQuestHelpList@ioQuestManager@@U?$less@K@std@@V?$allocator@U?$pair@$$CBKUQuestHelpList@ioQuestManager@@@std@@@4@$0A@@std@@@2@XZ PROC ; std::_Tree_unchecked_const_iterator<std::_Tree_val<std::_Tmap_traits<unsigned long,ioQuestManager::QuestHelpList,std::less<unsigned long>,std::allocator<std::pair<unsigned long const ,ioQuestManager::QuestHelpList> >,0> >,std::_Iterator_base0>::_Mynode, COMDAT
; _this$ = ecx

; 122  : 		return (_Ptr);

  00000	8b 01		 mov	 eax, DWORD PTR [ecx]

; 123  : 		}

  00002	c3		 ret	 0
?_Mynode@?$_Tree_unchecked_const_iterator@V?$_Tree_val@V?$_Tmap_traits@KUQuestHelpList@ioQuestManager@@U?$less@K@std@@V?$allocator@U?$pair@$$CBKUQuestHelpList@ioQuestManager@@@std@@@4@$0A@@std@@@std@@U_Iterator_base0@2@@std@@QBEPAU_Node@?$_Tree_nod@V?$_Tmap_traits@KUQuestHelpList@ioQuestManager@@U?$less@K@std@@V?$allocator@U?$pair@$$CBKUQuestHelpList@ioQuestManager@@@std@@@4@$0A@@std@@@2@XZ ENDP ; std::_Tree_unchecked_const_iterator<std::_Tree_val<std::_Tmap_traits<unsigned long,ioQuestManager::QuestHelpList,std::less<unsigned long>,std::allocator<std::pair<unsigned long const ,ioQuestManager::QuestHelpList> >,0> >,std::_Iterator_base0>::_Mynode
_TEXT	ENDS
PUBLIC	??D?$_Vector_const_iterator@V?$_Vector_val@UCompleteReserve@ioQuestManager@@V?$allocator@UCompleteReserve@ioQuestManager@@@std@@@std@@@std@@QBEABUCompleteReserve@ioQuestManager@@XZ ; std::_Vector_const_iterator<std::_Vector_val<ioQuestManager::CompleteReserve,std::allocator<ioQuestManager::CompleteReserve> > >::operator*
; Function compile flags: /Ogsp
; File c:\program files (x86)\microsoft visual studio 10.0\vc\include\vector
;	COMDAT ??D?$_Vector_const_iterator@V?$_Vector_val@UCompleteReserve@ioQuestManager@@V?$allocator@UCompleteReserve@ioQuestManager@@@std@@@std@@@std@@QBEABUCompleteReserve@ioQuestManager@@XZ
_TEXT	SEGMENT
??D?$_Vector_const_iterator@V?$_Vector_val@UCompleteReserve@ioQuestManager@@V?$allocator@UCompleteReserve@ioQuestManager@@@std@@@std@@@std@@QBEABUCompleteReserve@ioQuestManager@@XZ PROC ; std::_Vector_const_iterator<std::_Vector_val<ioQuestManager::CompleteReserve,std::allocator<ioQuestManager::CompleteReserve> > >::operator*, COMDAT
; _this$ = ecx

; 64   :  #if _ITERATOR_DEBUG_LEVEL == 2
; 65   : 		if (this->_Getcont() == 0
; 66   : 			|| this->_Ptr == 0
; 67   : 			|| this->_Ptr < ((_Myvec *)this->_Getcont())->_Myfirst
; 68   : 			|| ((_Myvec *)this->_Getcont())->_Mylast <= this->_Ptr)
; 69   : 			{	// report error
; 70   : 			_DEBUG_ERROR("vector iterator not dereferencable");
; 71   : 			_SCL_SECURE_OUT_OF_RANGE;
; 72   : 			}
; 73   : 
; 74   :  #elif _ITERATOR_DEBUG_LEVEL == 1
; 75   : 		_SCL_SECURE_VALIDATE(this->_Getcont() != 0);
; 76   : 		_SCL_SECURE_VALIDATE_RANGE(
; 77   : 			this->_Ptr != 0
; 78   : 			&& ((_Myvec *)this->_Getcont())->_Myfirst <= this->_Ptr
; 79   : 			&& this->_Ptr < ((_Myvec *)this->_Getcont())->_Mylast);
; 80   :  #endif /* _ITERATOR_DEBUG_LEVEL */
; 81   : 
; 82   : 		__analysis_assume(this->_Ptr != 0);
; 83   : 
; 84   : 		return (*this->_Ptr);

  00000	8b 01		 mov	 eax, DWORD PTR [ecx]

; 85   : 		}

  00002	c3		 ret	 0
??D?$_Vector_const_iterator@V?$_Vector_val@UCompleteReserve@ioQuestManager@@V?$allocator@UCompleteReserve@ioQuestManager@@@std@@@std@@@std@@QBEABUCompleteReserve@ioQuestManager@@XZ ENDP ; std::_Vector_const_iterator<std::_Vector_val<ioQuestManager::CompleteReserve,std::allocator<ioQuestManager::CompleteReserve> > >::operator*
_TEXT	ENDS
PUBLIC	??E?$_Vector_const_iterator@V?$_Vector_val@UCompleteReserve@ioQuestManager@@V?$allocator@UCompleteReserve@ioQuestManager@@@std@@@std@@@std@@QAEAAV01@XZ ; std::_Vector_const_iterator<std::_Vector_val<ioQuestManager::CompleteReserve,std::allocator<ioQuestManager::CompleteReserve> > >::operator++
; Function compile flags: /Ogsp
;	COMDAT ??E?$_Vector_const_iterator@V?$_Vector_val@UCompleteReserve@ioQuestManager@@V?$allocator@UCompleteReserve@ioQuestManager@@@std@@@std@@@std@@QAEAAV01@XZ
_TEXT	SEGMENT
??E?$_Vector_const_iterator@V?$_Vector_val@UCompleteReserve@ioQuestManager@@V?$allocator@UCompleteReserve@ioQuestManager@@@std@@@std@@@std@@QAEAAV01@XZ PROC ; std::_Vector_const_iterator<std::_Vector_val<ioQuestManager::CompleteReserve,std::allocator<ioQuestManager::CompleteReserve> > >::operator++, COMDAT
; _this$ = ecx

; 93   : 		{	// preincrement

  00000	8b c1		 mov	 eax, ecx

; 94   :  #if _ITERATOR_DEBUG_LEVEL == 2
; 95   : 		if (this->_Getcont() == 0
; 96   : 			|| this->_Ptr == 0
; 97   : 			|| ((_Myvec *)this->_Getcont())->_Mylast <= this->_Ptr)
; 98   : 			{	// report error
; 99   : 			_DEBUG_ERROR("vector iterator not incrementable");
; 100  : 			_SCL_SECURE_OUT_OF_RANGE;
; 101  : 			}
; 102  : 
; 103  :  #elif _ITERATOR_DEBUG_LEVEL == 1
; 104  : 		_SCL_SECURE_VALIDATE(this->_Getcont() != 0);
; 105  : 		_SCL_SECURE_VALIDATE_RANGE(
; 106  : 			this->_Ptr != 0
; 107  : 			&& this->_Ptr < ((_Myvec *)this->_Getcont())->_Mylast);
; 108  :  #endif /* _ITERATOR_DEBUG_LEVEL */
; 109  : 
; 110  : 		++this->_Ptr;

  00002	83 00 10	 add	 DWORD PTR [eax], 16	; 00000010H

; 111  : 		return (*this);
; 112  : 		}

  00005	c3		 ret	 0
??E?$_Vector_const_iterator@V?$_Vector_val@UCompleteReserve@ioQuestManager@@V?$allocator@UCompleteReserve@ioQuestManager@@@std@@@std@@@std@@QAEAAV01@XZ ENDP ; std::_Vector_const_iterator<std::_Vector_val<ioQuestManager::CompleteReserve,std::allocator<ioQuestManager::CompleteReserve> > >::operator++
_TEXT	ENDS
PUBLIC	??8?$_Tree_const_iterator@V?$_Tree_val@V?$_Tmap_traits@KUQuestReward@ioQuestManager@@U?$less@K@std@@V?$allocator@U?$pair@$$CBKUQuestReward@ioQuestManager@@@std@@@4@$0A@@std@@@std@@@std@@QBE_NABV01@@Z ; std::_Tree_const_iterator<std::_Tree_val<std::_Tmap_traits<unsigned long,ioQuestManager::QuestReward,std::less<unsigned long>,std::allocator<std::pair<unsigned long const ,ioQuestManager::QuestReward> >,0> > >::operator==
; Function compile flags: /Ogsp
; File c:\program files (x86)\microsoft visual studio 10.0\vc\include\xtree
;	COMDAT ??8?$_Tree_const_iterator@V?$_Tree_val@V?$_Tmap_traits@KUQuestReward@ioQuestManager@@U?$less@K@std@@V?$allocator@U?$pair@$$CBKUQuestReward@ioQuestManager@@@std@@@4@$0A@@std@@@std@@@std@@QBE_NABV01@@Z
_TEXT	SEGMENT
__Right$ = 8						; size = 4
??8?$_Tree_const_iterator@V?$_Tree_val@V?$_Tmap_traits@KUQuestReward@ioQuestManager@@U?$less@K@std@@V?$allocator@U?$pair@$$CBKUQuestReward@ioQuestManager@@@std@@@4@$0A@@std@@@std@@@std@@QBE_NABV01@@Z PROC ; std::_Tree_const_iterator<std::_Tree_val<std::_Tmap_traits<unsigned long,ioQuestManager::QuestReward,std::less<unsigned long>,std::allocator<std::pair<unsigned long const ,ioQuestManager::QuestReward> >,0> > >::operator==, COMDAT
; _this$ = ecx

; 316  : 		{	// test for iterator equality

  00000	55		 push	 ebp
  00001	8b ec		 mov	 ebp, esp

; 317  :  #if _ITERATOR_DEBUG_LEVEL == 2
; 318  : 		if (this->_Getcont() == 0
; 319  : 			|| this->_Getcont() != _Right._Getcont())
; 320  : 			{	// report error
; 321  : 			_DEBUG_ERROR("map/set iterators incompatible");
; 322  : 			_SCL_SECURE_INVALID_ARGUMENT;
; 323  : 			}
; 324  : 
; 325  :  #elif _ITERATOR_DEBUG_LEVEL == 1
; 326  : 		_SCL_SECURE_VALIDATE(this->_Getcont() != 0
; 327  : 			&& this->_Getcont() == _Right._Getcont());
; 328  :  #endif /* _ITERATOR_DEBUG_LEVEL */
; 329  : 
; 330  : 		return (this->_Ptr == _Right._Ptr);

  00003	8b 01		 mov	 eax, DWORD PTR [ecx]
  00005	8b 4d 08	 mov	 ecx, DWORD PTR __Right$[ebp]
  00008	2b 01		 sub	 eax, DWORD PTR [ecx]
  0000a	f7 d8		 neg	 eax
  0000c	1b c0		 sbb	 eax, eax
  0000e	40		 inc	 eax

; 331  : 		}

  0000f	5d		 pop	 ebp
  00010	c2 04 00	 ret	 4
??8?$_Tree_const_iterator@V?$_Tree_val@V?$_Tmap_traits@KUQuestReward@ioQuestManager@@U?$less@K@std@@V?$allocator@U?$pair@$$CBKUQuestReward@ioQuestManager@@@std@@@4@$0A@@std@@@std@@@std@@QBE_NABV01@@Z ENDP ; std::_Tree_const_iterator<std::_Tree_val<std::_Tmap_traits<unsigned long,ioQuestManager::QuestReward,std::less<unsigned long>,std::allocator<std::pair<unsigned long const ,ioQuestManager::QuestReward> >,0> > >::operator==
_TEXT	ENDS
PUBLIC	?_Mynode@?$_Tree_unchecked_const_iterator@V?$_Tree_val@V?$_Tmap_traits@KUQuestReward@ioQuestManager@@U?$less@K@std@@V?$allocator@U?$pair@$$CBKUQuestReward@ioQuestManager@@@std@@@4@$0A@@std@@@std@@U_Iterator_base0@2@@std@@QBEPAU_Node@?$_Tree_nod@V?$_Tmap_traits@KUQuestReward@ioQuestManager@@U?$less@K@std@@V?$allocator@U?$pair@$$CBKUQuestReward@ioQuestManager@@@std@@@4@$0A@@std@@@2@XZ ; std::_Tree_unchecked_const_iterator<std::_Tree_val<std::_Tmap_traits<unsigned long,ioQuestManager::QuestReward,std::less<unsigned long>,std::allocator<std::pair<unsigned long const ,ioQuestManager::QuestReward> >,0> >,std::_Iterator_base0>::_Mynode
; Function compile flags: /Ogsp
;	COMDAT ?_Mynode@?$_Tree_unchecked_const_iterator@V?$_Tree_val@V?$_Tmap_traits@KUQuestReward@ioQuestManager@@U?$less@K@std@@V?$allocator@U?$pair@$$CBKUQuestReward@ioQuestManager@@@std@@@4@$0A@@std@@@std@@U_Iterator_base0@2@@std@@QBEPAU_Node@?$_Tree_nod@V?$_Tmap_traits@KUQuestReward@ioQuestManager@@U?$less@K@std@@V?$allocator@U?$pair@$$CBKUQuestReward@ioQuestManager@@@std@@@4@$0A@@std@@@2@XZ
_TEXT	SEGMENT
?_Mynode@?$_Tree_unchecked_const_iterator@V?$_Tree_val@V?$_Tmap_traits@KUQuestReward@ioQuestManager@@U?$less@K@std@@V?$allocator@U?$pair@$$CBKUQuestReward@ioQuestManager@@@std@@@4@$0A@@std@@@std@@U_Iterator_base0@2@@std@@QBEPAU_Node@?$_Tree_nod@V?$_Tmap_traits@KUQuestReward@ioQuestManager@@U?$less@K@std@@V?$allocator@U?$pair@$$CBKUQuestReward@ioQuestManager@@@std@@@4@$0A@@std@@@2@XZ PROC ; std::_Tree_unchecked_const_iterator<std::_Tree_val<std::_Tmap_traits<unsigned long,ioQuestManager::QuestReward,std::less<unsigned long>,std::allocator<std::pair<unsigned long const ,ioQuestManager::QuestReward> >,0> >,std::_Iterator_base0>::_Mynode, COMDAT
; _this$ = ecx

; 122  : 		return (_Ptr);

  00000	8b 01		 mov	 eax, DWORD PTR [ecx]

; 123  : 		}

  00002	c3		 ret	 0
?_Mynode@?$_Tree_unchecked_const_iterator@V?$_Tree_val@V?$_Tmap_traits@KUQuestReward@ioQuestManager@@U?$less@K@std@@V?$allocator@U?$pair@$$CBKUQuestReward@ioQuestManager@@@std@@@4@$0A@@std@@@std@@U_Iterator_base0@2@@std@@QBEPAU_Node@?$_Tree_nod@V?$_Tmap_traits@KUQuestReward@ioQuestManager@@U?$less@K@std@@V?$allocator@U?$pair@$$CBKUQuestReward@ioQuestManager@@@std@@@4@$0A@@std@@@2@XZ ENDP ; std::_Tree_unchecked_const_iterator<std::_Tree_val<std::_Tmap_traits<unsigned long,ioQuestManager::QuestReward,std::less<unsigned long>,std::allocator<std::pair<unsigned long const ,ioQuestManager::QuestReward> >,0> >,std::_Iterator_base0>::_Mynode
_TEXT	ENDS
PUBLIC	??D?$_Vector_const_iterator@V?$_Vector_val@UQuestDelAndFail@ioQuestManager@@V?$allocator@UQuestDelAndFail@ioQuestManager@@@std@@@std@@@std@@QBEABUQuestDelAndFail@ioQuestManager@@XZ ; std::_Vector_const_iterator<std::_Vector_val<ioQuestManager::QuestDelAndFail,std::allocator<ioQuestManager::QuestDelAndFail> > >::operator*
; Function compile flags: /Ogsp
; File c:\program files (x86)\microsoft visual studio 10.0\vc\include\vector
;	COMDAT ??D?$_Vector_const_iterator@V?$_Vector_val@UQuestDelAndFail@ioQuestManager@@V?$allocator@UQuestDelAndFail@ioQuestManager@@@std@@@std@@@std@@QBEABUQuestDelAndFail@ioQuestManager@@XZ
_TEXT	SEGMENT
??D?$_Vector_const_iterator@V?$_Vector_val@UQuestDelAndFail@ioQuestManager@@V?$allocator@UQuestDelAndFail@ioQuestManager@@@std@@@std@@@std@@QBEABUQuestDelAndFail@ioQuestManager@@XZ PROC ; std::_Vector_const_iterator<std::_Vector_val<ioQuestManager::QuestDelAndFail,std::allocator<ioQuestManager::QuestDelAndFail> > >::operator*, COMDAT
; _this$ = ecx

; 64   :  #if _ITERATOR_DEBUG_LEVEL == 2
; 65   : 		if (this->_Getcont() == 0
; 66   : 			|| this->_Ptr == 0
; 67   : 			|| this->_Ptr < ((_Myvec *)this->_Getcont())->_Myfirst
; 68   : 			|| ((_Myvec *)this->_Getcont())->_Mylast <= this->_Ptr)
; 69   : 			{	// report error
; 70   : 			_DEBUG_ERROR("vector iterator not dereferencable");
; 71   : 			_SCL_SECURE_OUT_OF_RANGE;
; 72   : 			}
; 73   : 
; 74   :  #elif _ITERATOR_DEBUG_LEVEL == 1
; 75   : 		_SCL_SECURE_VALIDATE(this->_Getcont() != 0);
; 76   : 		_SCL_SECURE_VALIDATE_RANGE(
; 77   : 			this->_Ptr != 0
; 78   : 			&& ((_Myvec *)this->_Getcont())->_Myfirst <= this->_Ptr
; 79   : 			&& this->_Ptr < ((_Myvec *)this->_Getcont())->_Mylast);
; 80   :  #endif /* _ITERATOR_DEBUG_LEVEL */
; 81   : 
; 82   : 		__analysis_assume(this->_Ptr != 0);
; 83   : 
; 84   : 		return (*this->_Ptr);

  00000	8b 01		 mov	 eax, DWORD PTR [ecx]

; 85   : 		}

  00002	c3		 ret	 0
??D?$_Vector_const_iterator@V?$_Vector_val@UQuestDelAndFail@ioQuestManager@@V?$allocator@UQuestDelAndFail@ioQuestManager@@@std@@@std@@@std@@QBEABUQuestDelAndFail@ioQuestManager@@XZ ENDP ; std::_Vector_const_iterator<std::_Vector_val<ioQuestManager::QuestDelAndFail,std::allocator<ioQuestManager::QuestDelAndFail> > >::operator*
_TEXT	ENDS
PUBLIC	??E?$_Vector_const_iterator@V?$_Vector_val@UQuestDelAndFail@ioQuestManager@@V?$allocator@UQuestDelAndFail@ioQuestManager@@@std@@@std@@@std@@QAEAAV01@XZ ; std::_Vector_const_iterator<std::_Vector_val<ioQuestManager::QuestDelAndFail,std::allocator<ioQuestManager::QuestDelAndFail> > >::operator++
; Function compile flags: /Ogsp
;	COMDAT ??E?$_Vector_const_iterator@V?$_Vector_val@UQuestDelAndFail@ioQuestManager@@V?$allocator@UQuestDelAndFail@ioQuestManager@@@std@@@std@@@std@@QAEAAV01@XZ
_TEXT	SEGMENT
??E?$_Vector_const_iterator@V?$_Vector_val@UQuestDelAndFail@ioQuestManager@@V?$allocator@UQuestDelAndFail@ioQuestManager@@@std@@@std@@@std@@QAEAAV01@XZ PROC ; std::_Vector_const_iterator<std::_Vector_val<ioQuestManager::QuestDelAndFail,std::allocator<ioQuestManager::QuestDelAndFail> > >::operator++, COMDAT
; _this$ = ecx

; 93   : 		{	// preincrement

  00000	8b c1		 mov	 eax, ecx

; 94   :  #if _ITERATOR_DEBUG_LEVEL == 2
; 95   : 		if (this->_Getcont() == 0
; 96   : 			|| this->_Ptr == 0
; 97   : 			|| ((_Myvec *)this->_Getcont())->_Mylast <= this->_Ptr)
; 98   : 			{	// report error
; 99   : 			_DEBUG_ERROR("vector iterator not incrementable");
; 100  : 			_SCL_SECURE_OUT_OF_RANGE;
; 101  : 			}
; 102  : 
; 103  :  #elif _ITERATOR_DEBUG_LEVEL == 1
; 104  : 		_SCL_SECURE_VALIDATE(this->_Getcont() != 0);
; 105  : 		_SCL_SECURE_VALIDATE_RANGE(
; 106  : 			this->_Ptr != 0
; 107  : 			&& this->_Ptr < ((_Myvec *)this->_Getcont())->_Mylast);
; 108  :  #endif /* _ITERATOR_DEBUG_LEVEL */
; 109  : 
; 110  : 		++this->_Ptr;

  00002	83 00 08	 add	 DWORD PTR [eax], 8

; 111  : 		return (*this);
; 112  : 		}

  00005	c3		 ret	 0
??E?$_Vector_const_iterator@V?$_Vector_val@UQuestDelAndFail@ioQuestManager@@V?$allocator@UQuestDelAndFail@ioQuestManager@@@std@@@std@@@std@@QAEAAV01@XZ ENDP ; std::_Vector_const_iterator<std::_Vector_val<ioQuestManager::QuestDelAndFail,std::allocator<ioQuestManager::QuestDelAndFail> > >::operator++
_TEXT	ENDS
PUBLIC	?capacity@?$vector@PAVQuestParent@@V?$allocator@PAVQuestParent@@@std@@@std@@QBEIXZ ; std::vector<QuestParent *,std::allocator<QuestParent *> >::capacity
; Function compile flags: /Ogsp
;	COMDAT ?capacity@?$vector@PAVQuestParent@@V?$allocator@PAVQuestParent@@@std@@@std@@QBEIXZ
_TEXT	SEGMENT
?capacity@?$vector@PAVQuestParent@@V?$allocator@PAVQuestParent@@@std@@@std@@QBEIXZ PROC ; std::vector<QuestParent *,std::allocator<QuestParent *> >::capacity, COMDAT
; _this$ = ecx

; 777  : 		return (this->_Myend - this->_Myfirst);

  00000	8b 41 08	 mov	 eax, DWORD PTR [ecx+8]
  00003	2b 01		 sub	 eax, DWORD PTR [ecx]
  00005	c1 f8 02	 sar	 eax, 2

; 778  : 		}

  00008	c3		 ret	 0
?capacity@?$vector@PAVQuestParent@@V?$allocator@PAVQuestParent@@@std@@@std@@QBEIXZ ENDP ; std::vector<QuestParent *,std::allocator<QuestParent *> >::capacity
_TEXT	ENDS
PUBLIC	?size@?$vector@PAVQuestParent@@V?$allocator@PAVQuestParent@@@std@@@std@@QBEIXZ ; std::vector<QuestParent *,std::allocator<QuestParent *> >::size
; Function compile flags: /Ogsp
;	COMDAT ?size@?$vector@PAVQuestParent@@V?$allocator@PAVQuestParent@@@std@@@std@@QBEIXZ
_TEXT	SEGMENT
?size@?$vector@PAVQuestParent@@V?$allocator@PAVQuestParent@@@std@@@std@@QBEIXZ PROC ; std::vector<QuestParent *,std::allocator<QuestParent *> >::size, COMDAT
; _this$ = ecx

; 879  : 		return (this->_Mylast - this->_Myfirst);

  00000	8b 41 04	 mov	 eax, DWORD PTR [ecx+4]
  00003	2b 01		 sub	 eax, DWORD PTR [ecx]
  00005	c1 f8 02	 sar	 eax, 2

; 880  : 		}

  00008	c3		 ret	 0
?size@?$vector@PAVQuestParent@@V?$allocator@PAVQuestParent@@@std@@@std@@QBEIXZ ENDP ; std::vector<QuestParent *,std::allocator<QuestParent *> >::size
_TEXT	ENDS
PUBLIC	??_C@_0BD@OLBABOEK@vector?$DMT?$DO?5too?5long?$AA@ ; `string'
PUBLIC	?_Xlen@?$vector@PAVQuestParent@@V?$allocator@PAVQuestParent@@@std@@@std@@IBEXXZ ; std::vector<QuestParent *,std::allocator<QuestParent *> >::_Xlen
EXTRN	__imp_?_Xlength_error@std@@YAXPBD@Z:PROC
;	COMDAT ??_C@_0BD@OLBABOEK@vector?$DMT?$DO?5too?5long?$AA@
CONST	SEGMENT
??_C@_0BD@OLBABOEK@vector?$DMT?$DO?5too?5long?$AA@ DB 'vector<T> too long'
	DB	00H						; `string'
; Function compile flags: /Ogsp
CONST	ENDS
;	COMDAT ?_Xlen@?$vector@PAVQuestParent@@V?$allocator@PAVQuestParent@@@std@@@std@@IBEXXZ
_TEXT	SEGMENT
?_Xlen@?$vector@PAVQuestParent@@V?$allocator@PAVQuestParent@@@std@@@std@@IBEXXZ PROC ; std::vector<QuestParent *,std::allocator<QuestParent *> >::_Xlen, COMDAT
; _this$ = ecx

; 1427 : 		_Xlength_error("vector<T> too long");

  00000	68 00 00 00 00	 push	 OFFSET ??_C@_0BD@OLBABOEK@vector?$DMT?$DO?5too?5long?$AA@
  00005	ff 15 00 00 00
	00		 call	 DWORD PTR __imp_?_Xlength_error@std@@YAXPBD@Z
$LN4@Xlen:
$LN3@Xlen:
  0000b	cc		 int	 3
?_Xlen@?$vector@PAVQuestParent@@V?$allocator@PAVQuestParent@@@std@@@std@@IBEXXZ ENDP ; std::vector<QuestParent *,std::allocator<QuestParent *> >::_Xlen
_TEXT	ENDS
PUBLIC	??0?$allocator@PAVQuestParent@@@std@@QAE@ABV01@@Z ; std::allocator<QuestParent *>::allocator<QuestParent *>
; Function compile flags: /Ogsp
; File c:\program files (x86)\microsoft visual studio 10.0\vc\include\xmemory
;	COMDAT ??0?$allocator@PAVQuestParent@@@std@@QAE@ABV01@@Z
_TEXT	SEGMENT
___formal$ = 8						; size = 4
??0?$allocator@PAVQuestParent@@@std@@QAE@ABV01@@Z PROC	; std::allocator<QuestParent *>::allocator<QuestParent *>, COMDAT
; _this$ = ecx

; 165  : 	_ALLOCATOR(const _ALLOCATOR<_Ty>&) _THROW0()

  00000	8b c1		 mov	 eax, ecx

; 166  : 		{	// construct by copying (do nothing)
; 167  : 		}

  00002	c2 04 00	 ret	 4
??0?$allocator@PAVQuestParent@@@std@@QAE@ABV01@@Z ENDP	; std::allocator<QuestParent *>::allocator<QuestParent *>
_TEXT	ENDS
PUBLIC	?deallocate@?$allocator@PAVQuestParent@@@std@@QAEXPAPAVQuestParent@@I@Z ; std::allocator<QuestParent *>::deallocate
; Function compile flags: /Ogsp
;	COMDAT ?deallocate@?$allocator@PAVQuestParent@@@std@@QAEXPAPAVQuestParent@@I@Z
_TEXT	SEGMENT
__Ptr$ = 8						; size = 4
___formal$ = 12						; size = 4
?deallocate@?$allocator@PAVQuestParent@@@std@@QAEXPAPAVQuestParent@@I@Z PROC ; std::allocator<QuestParent *>::deallocate, COMDAT
; _this$ = ecx

; 181  : 		{	// deallocate object at _Ptr, ignore size

  00000	55		 push	 ebp
  00001	8b ec		 mov	 ebp, esp

; 182  : 		::operator delete(_Ptr);

  00003	ff 75 08	 push	 DWORD PTR __Ptr$[ebp]
  00006	e8 00 00 00 00	 call	 ??3@YAXPAX@Z		; operator delete
  0000b	59		 pop	 ecx

; 183  : 		}

  0000c	5d		 pop	 ebp
  0000d	c2 08 00	 ret	 8
?deallocate@?$allocator@PAVQuestParent@@@std@@QAEXPAPAVQuestParent@@I@Z ENDP ; std::allocator<QuestParent *>::deallocate
_TEXT	ENDS
PUBLIC	?capacity@?$vector@UQuestDelAndFail@ioQuestManager@@V?$allocator@UQuestDelAndFail@ioQuestManager@@@std@@@std@@QBEIXZ ; std::vector<ioQuestManager::QuestDelAndFail,std::allocator<ioQuestManager::QuestDelAndFail> >::capacity
; Function compile flags: /Ogsp
; File c:\program files (x86)\microsoft visual studio 10.0\vc\include\vector
;	COMDAT ?capacity@?$vector@UQuestDelAndFail@ioQuestManager@@V?$allocator@UQuestDelAndFail@ioQuestManager@@@std@@@std@@QBEIXZ
_TEXT	SEGMENT
?capacity@?$vector@UQuestDelAndFail@ioQuestManager@@V?$allocator@UQuestDelAndFail@ioQuestManager@@@std@@@std@@QBEIXZ PROC ; std::vector<ioQuestManager::QuestDelAndFail,std::allocator<ioQuestManager::QuestDelAndFail> >::capacity, COMDAT
; _this$ = ecx

; 777  : 		return (this->_Myend - this->_Myfirst);

  00000	8b 41 08	 mov	 eax, DWORD PTR [ecx+8]
  00003	2b 01		 sub	 eax, DWORD PTR [ecx]
  00005	c1 f8 03	 sar	 eax, 3

; 778  : 		}

  00008	c3		 ret	 0
?capacity@?$vector@UQuestDelAndFail@ioQuestManager@@V?$allocator@UQuestDelAndFail@ioQuestManager@@@std@@@std@@QBEIXZ ENDP ; std::vector<ioQuestManager::QuestDelAndFail,std::allocator<ioQuestManager::QuestDelAndFail> >::capacity
_TEXT	ENDS
PUBLIC	?size@?$vector@UQuestDelAndFail@ioQuestManager@@V?$allocator@UQuestDelAndFail@ioQuestManager@@@std@@@std@@QBEIXZ ; std::vector<ioQuestManager::QuestDelAndFail,std::allocator<ioQuestManager::QuestDelAndFail> >::size
; Function compile flags: /Ogsp
;	COMDAT ?size@?$vector@UQuestDelAndFail@ioQuestManager@@V?$allocator@UQuestDelAndFail@ioQuestManager@@@std@@@std@@QBEIXZ
_TEXT	SEGMENT
?size@?$vector@UQuestDelAndFail@ioQuestManager@@V?$allocator@UQuestDelAndFail@ioQuestManager@@@std@@@std@@QBEIXZ PROC ; std::vector<ioQuestManager::QuestDelAndFail,std::allocator<ioQuestManager::QuestDelAndFail> >::size, COMDAT
; _this$ = ecx

; 879  : 		return (this->_Mylast - this->_Myfirst);

  00000	8b 41 04	 mov	 eax, DWORD PTR [ecx+4]
  00003	2b 01		 sub	 eax, DWORD PTR [ecx]
  00005	c1 f8 03	 sar	 eax, 3

; 880  : 		}

  00008	c3		 ret	 0
?size@?$vector@UQuestDelAndFail@ioQuestManager@@V?$allocator@UQuestDelAndFail@ioQuestManager@@@std@@@std@@QBEIXZ ENDP ; std::vector<ioQuestManager::QuestDelAndFail,std::allocator<ioQuestManager::QuestDelAndFail> >::size
_TEXT	ENDS
PUBLIC	?_Xlen@?$vector@UQuestDelAndFail@ioQuestManager@@V?$allocator@UQuestDelAndFail@ioQuestManager@@@std@@@std@@IBEXXZ ; std::vector<ioQuestManager::QuestDelAndFail,std::allocator<ioQuestManager::QuestDelAndFail> >::_Xlen
; Function compile flags: /Ogsp
;	COMDAT ?_Xlen@?$vector@UQuestDelAndFail@ioQuestManager@@V?$allocator@UQuestDelAndFail@ioQuestManager@@@std@@@std@@IBEXXZ
_TEXT	SEGMENT
?_Xlen@?$vector@UQuestDelAndFail@ioQuestManager@@V?$allocator@UQuestDelAndFail@ioQuestManager@@@std@@@std@@IBEXXZ PROC ; std::vector<ioQuestManager::QuestDelAndFail,std::allocator<ioQuestManager::QuestDelAndFail> >::_Xlen, COMDAT
; _this$ = ecx

; 1427 : 		_Xlength_error("vector<T> too long");

  00000	68 00 00 00 00	 push	 OFFSET ??_C@_0BD@OLBABOEK@vector?$DMT?$DO?5too?5long?$AA@
  00005	ff 15 00 00 00
	00		 call	 DWORD PTR __imp_?_Xlength_error@std@@YAXPBD@Z
$LN4@Xlen@2:
$LN3@Xlen@2:
  0000b	cc		 int	 3
?_Xlen@?$vector@UQuestDelAndFail@ioQuestManager@@V?$allocator@UQuestDelAndFail@ioQuestManager@@@std@@@std@@IBEXXZ ENDP ; std::vector<ioQuestManager::QuestDelAndFail,std::allocator<ioQuestManager::QuestDelAndFail> >::_Xlen
_TEXT	ENDS
PUBLIC	??0?$allocator@UQuestDelAndFail@ioQuestManager@@@std@@QAE@ABV01@@Z ; std::allocator<ioQuestManager::QuestDelAndFail>::allocator<ioQuestManager::QuestDelAndFail>
; Function compile flags: /Ogsp
; File c:\program files (x86)\microsoft visual studio 10.0\vc\include\xmemory
;	COMDAT ??0?$allocator@UQuestDelAndFail@ioQuestManager@@@std@@QAE@ABV01@@Z
_TEXT	SEGMENT
___formal$ = 8						; size = 4
??0?$allocator@UQuestDelAndFail@ioQuestManager@@@std@@QAE@ABV01@@Z PROC ; std::allocator<ioQuestManager::QuestDelAndFail>::allocator<ioQuestManager::QuestDelAndFail>, COMDAT
; _this$ = ecx

; 165  : 	_ALLOCATOR(const _ALLOCATOR<_Ty>&) _THROW0()

  00000	8b c1		 mov	 eax, ecx

; 166  : 		{	// construct by copying (do nothing)
; 167  : 		}

  00002	c2 04 00	 ret	 4
??0?$allocator@UQuestDelAndFail@ioQuestManager@@@std@@QAE@ABV01@@Z ENDP ; std::allocator<ioQuestManager::QuestDelAndFail>::allocator<ioQuestManager::QuestDelAndFail>
_TEXT	ENDS
PUBLIC	?deallocate@?$allocator@UQuestDelAndFail@ioQuestManager@@@std@@QAEXPAUQuestDelAndFail@ioQuestManager@@I@Z ; std::allocator<ioQuestManager::QuestDelAndFail>::deallocate
; Function compile flags: /Ogsp
;	COMDAT ?deallocate@?$allocator@UQuestDelAndFail@ioQuestManager@@@std@@QAEXPAUQuestDelAndFail@ioQuestManager@@I@Z
_TEXT	SEGMENT
__Ptr$ = 8						; size = 4
___formal$ = 12						; size = 4
?deallocate@?$allocator@UQuestDelAndFail@ioQuestManager@@@std@@QAEXPAUQuestDelAndFail@ioQuestManager@@I@Z PROC ; std::allocator<ioQuestManager::QuestDelAndFail>::deallocate, COMDAT
; _this$ = ecx

; 181  : 		{	// deallocate object at _Ptr, ignore size

  00000	55		 push	 ebp
  00001	8b ec		 mov	 ebp, esp

; 182  : 		::operator delete(_Ptr);

  00003	ff 75 08	 push	 DWORD PTR __Ptr$[ebp]
  00006	e8 00 00 00 00	 call	 ??3@YAXPAX@Z		; operator delete
  0000b	59		 pop	 ecx

; 183  : 		}

  0000c	5d		 pop	 ebp
  0000d	c2 08 00	 ret	 8
?deallocate@?$allocator@UQuestDelAndFail@ioQuestManager@@@std@@QAEXPAUQuestDelAndFail@ioQuestManager@@I@Z ENDP ; std::allocator<ioQuestManager::QuestDelAndFail>::deallocate
_TEXT	ENDS
PUBLIC	?_Isnil@?$_Tree_val@V?$_Tmap_traits@KUQuestReward@ioQuestManager@@U?$less@K@std@@V?$allocator@U?$pair@$$CBKUQuestReward@ioQuestManager@@@std@@@4@$0A@@std@@@std@@SAAADPAU_Node@?$_Tree_nod@V?$_Tmap_traits@KUQuestReward@ioQuestManager@@U?$less@K@std@@V?$allocator@U?$pair@$$CBKUQuestReward@ioQuestManager@@@std@@@4@$0A@@std@@@2@@Z ; std::_Tree_val<std::_Tmap_traits<unsigned long,ioQuestManager::QuestReward,std::less<unsigned long>,std::allocator<std::pair<unsigned long const ,ioQuestManager::QuestReward> >,0> >::_Isnil
; Function compile flags: /Ogsp
; File c:\program files (x86)\microsoft visual studio 10.0\vc\include\xtree
;	COMDAT ?_Isnil@?$_Tree_val@V?$_Tmap_traits@KUQuestReward@ioQuestManager@@U?$less@K@std@@V?$allocator@U?$pair@$$CBKUQuestReward@ioQuestManager@@@std@@@4@$0A@@std@@@std@@SAAADPAU_Node@?$_Tree_nod@V?$_Tmap_traits@KUQuestReward@ioQuestManager@@U?$less@K@std@@V?$allocator@U?$pair@$$CBKUQuestReward@ioQuestManager@@@std@@@4@$0A@@std@@@2@@Z
_TEXT	SEGMENT
__Pnode$ = 8						; size = 4
?_Isnil@?$_Tree_val@V?$_Tmap_traits@KUQuestReward@ioQuestManager@@U?$less@K@std@@V?$allocator@U?$pair@$$CBKUQuestReward@ioQuestManager@@@std@@@4@$0A@@std@@@std@@SAAADPAU_Node@?$_Tree_nod@V?$_Tmap_traits@KUQuestReward@ioQuestManager@@U?$less@K@std@@V?$allocator@U?$pair@$$CBKUQuestReward@ioQuestManager@@@std@@@4@$0A@@std@@@2@@Z PROC ; std::_Tree_val<std::_Tmap_traits<unsigned long,ioQuestManager::QuestReward,std::less<unsigned long>,std::allocator<std::pair<unsigned long const ,ioQuestManager::QuestReward> >,0> >::_Isnil, COMDAT

; 611  : 		{	// return reference to nil flag in node

  00000	55		 push	 ebp
  00001	8b ec		 mov	 ebp, esp

; 612  : 		return ((char&)(*_Pnode)._Isnil);

  00003	8b 45 08	 mov	 eax, DWORD PTR __Pnode$[ebp]
  00006	83 c0 21	 add	 eax, 33			; 00000021H

; 613  : 		}

  00009	5d		 pop	 ebp
  0000a	c3		 ret	 0
?_Isnil@?$_Tree_val@V?$_Tmap_traits@KUQuestReward@ioQuestManager@@U?$less@K@std@@V?$allocator@U?$pair@$$CBKUQuestReward@ioQuestManager@@@std@@@4@$0A@@std@@@std@@SAAADPAU_Node@?$_Tree_nod@V?$_Tmap_traits@KUQuestReward@ioQuestManager@@U?$less@K@std@@V?$allocator@U?$pair@$$CBKUQuestReward@ioQuestManager@@@std@@@4@$0A@@std@@@2@@Z ENDP ; std::_Tree_val<std::_Tmap_traits<unsigned long,ioQuestManager::QuestReward,std::less<unsigned long>,std::allocator<std::pair<unsigned long const ,ioQuestManager::QuestReward> >,0> >::_Isnil
_TEXT	ENDS
PUBLIC	?_Left@?$_Tree_val@V?$_Tmap_traits@KUQuestReward@ioQuestManager@@U?$less@K@std@@V?$allocator@U?$pair@$$CBKUQuestReward@ioQuestManager@@@std@@@4@$0A@@std@@@std@@SAAAPAU_Node@?$_Tree_nod@V?$_Tmap_traits@KUQuestReward@ioQuestManager@@U?$less@K@std@@V?$allocator@U?$pair@$$CBKUQuestReward@ioQuestManager@@@std@@@4@$0A@@std@@@2@PAU342@@Z ; std::_Tree_val<std::_Tmap_traits<unsigned long,ioQuestManager::QuestReward,std::less<unsigned long>,std::allocator<std::pair<unsigned long const ,ioQuestManager::QuestReward> >,0> >::_Left
; Function compile flags: /Ogsp
;	COMDAT ?_Left@?$_Tree_val@V?$_Tmap_traits@KUQuestReward@ioQuestManager@@U?$less@K@std@@V?$allocator@U?$pair@$$CBKUQuestReward@ioQuestManager@@@std@@@4@$0A@@std@@@std@@SAAAPAU_Node@?$_Tree_nod@V?$_Tmap_traits@KUQuestReward@ioQuestManager@@U?$less@K@std@@V?$allocator@U?$pair@$$CBKUQuestReward@ioQuestManager@@@std@@@4@$0A@@std@@@2@PAU342@@Z
_TEXT	SEGMENT
__Pnode$ = 8						; size = 4
?_Left@?$_Tree_val@V?$_Tmap_traits@KUQuestReward@ioQuestManager@@U?$less@K@std@@V?$allocator@U?$pair@$$CBKUQuestReward@ioQuestManager@@@std@@@4@$0A@@std@@@std@@SAAAPAU_Node@?$_Tree_nod@V?$_Tmap_traits@KUQuestReward@ioQuestManager@@U?$less@K@std@@V?$allocator@U?$pair@$$CBKUQuestReward@ioQuestManager@@@std@@@4@$0A@@std@@@2@PAU342@@Z PROC ; std::_Tree_val<std::_Tmap_traits<unsigned long,ioQuestManager::QuestReward,std::less<unsigned long>,std::allocator<std::pair<unsigned long const ,ioQuestManager::QuestReward> >,0> >::_Left, COMDAT

; 621  : 		{	// return reference to left pointer in node

  00000	55		 push	 ebp
  00001	8b ec		 mov	 ebp, esp

; 622  : 		return ((_Nodepref)(*_Pnode)._Left);

  00003	8b 45 08	 mov	 eax, DWORD PTR __Pnode$[ebp]

; 623  : 		}

  00006	5d		 pop	 ebp
  00007	c3		 ret	 0
?_Left@?$_Tree_val@V?$_Tmap_traits@KUQuestReward@ioQuestManager@@U?$less@K@std@@V?$allocator@U?$pair@$$CBKUQuestReward@ioQuestManager@@@std@@@4@$0A@@std@@@std@@SAAAPAU_Node@?$_Tree_nod@V?$_Tmap_traits@KUQuestReward@ioQuestManager@@U?$less@K@std@@V?$allocator@U?$pair@$$CBKUQuestReward@ioQuestManager@@@std@@@4@$0A@@std@@@2@PAU342@@Z ENDP ; std::_Tree_val<std::_Tmap_traits<unsigned long,ioQuestManager::QuestReward,std::less<unsigned long>,std::allocator<std::pair<unsigned long const ,ioQuestManager::QuestReward> >,0> >::_Left
_TEXT	ENDS
PUBLIC	?_Parent@?$_Tree_val@V?$_Tmap_traits@KUQuestReward@ioQuestManager@@U?$less@K@std@@V?$allocator@U?$pair@$$CBKUQuestReward@ioQuestManager@@@std@@@4@$0A@@std@@@std@@SAAAPAU_Node@?$_Tree_nod@V?$_Tmap_traits@KUQuestReward@ioQuestManager@@U?$less@K@std@@V?$allocator@U?$pair@$$CBKUQuestReward@ioQuestManager@@@std@@@4@$0A@@std@@@2@PAU342@@Z ; std::_Tree_val<std::_Tmap_traits<unsigned long,ioQuestManager::QuestReward,std::less<unsigned long>,std::allocator<std::pair<unsigned long const ,ioQuestManager::QuestReward> >,0> >::_Parent
; Function compile flags: /Ogsp
;	COMDAT ?_Parent@?$_Tree_val@V?$_Tmap_traits@KUQuestReward@ioQuestManager@@U?$less@K@std@@V?$allocator@U?$pair@$$CBKUQuestReward@ioQuestManager@@@std@@@4@$0A@@std@@@std@@SAAAPAU_Node@?$_Tree_nod@V?$_Tmap_traits@KUQuestReward@ioQuestManager@@U?$less@K@std@@V?$allocator@U?$pair@$$CBKUQuestReward@ioQuestManager@@@std@@@4@$0A@@std@@@2@PAU342@@Z
_TEXT	SEGMENT
__Pnode$ = 8						; size = 4
?_Parent@?$_Tree_val@V?$_Tmap_traits@KUQuestReward@ioQuestManager@@U?$less@K@std@@V?$allocator@U?$pair@$$CBKUQuestReward@ioQuestManager@@@std@@@4@$0A@@std@@@std@@SAAAPAU_Node@?$_Tree_nod@V?$_Tmap_traits@KUQuestReward@ioQuestManager@@U?$less@K@std@@V?$allocator@U?$pair@$$CBKUQuestReward@ioQuestManager@@@std@@@4@$0A@@std@@@2@PAU342@@Z PROC ; std::_Tree_val<std::_Tmap_traits<unsigned long,ioQuestManager::QuestReward,std::less<unsigned long>,std::allocator<std::pair<unsigned long const ,ioQuestManager::QuestReward> >,0> >::_Parent, COMDAT

; 626  : 		{	// return reference to parent pointer in node

  00000	55		 push	 ebp
  00001	8b ec		 mov	 ebp, esp

; 627  : 		return ((_Nodepref)(*_Pnode)._Parent);

  00003	8b 45 08	 mov	 eax, DWORD PTR __Pnode$[ebp]
  00006	83 c0 04	 add	 eax, 4

; 628  : 		}

  00009	5d		 pop	 ebp
  0000a	c3		 ret	 0
?_Parent@?$_Tree_val@V?$_Tmap_traits@KUQuestReward@ioQuestManager@@U?$less@K@std@@V?$allocator@U?$pair@$$CBKUQuestReward@ioQuestManager@@@std@@@4@$0A@@std@@@std@@SAAAPAU_Node@?$_Tree_nod@V?$_Tmap_traits@KUQuestReward@ioQuestManager@@U?$less@K@std@@V?$allocator@U?$pair@$$CBKUQuestReward@ioQuestManager@@@std@@@4@$0A@@std@@@2@PAU342@@Z ENDP ; std::_Tree_val<std::_Tmap_traits<unsigned long,ioQuestManager::QuestReward,std::less<unsigned long>,std::allocator<std::pair<unsigned long const ,ioQuestManager::QuestReward> >,0> >::_Parent
_TEXT	ENDS
PUBLIC	?_Right@?$_Tree_val@V?$_Tmap_traits@KUQuestReward@ioQuestManager@@U?$less@K@std@@V?$allocator@U?$pair@$$CBKUQuestReward@ioQuestManager@@@std@@@4@$0A@@std@@@std@@SAAAPAU_Node@?$_Tree_nod@V?$_Tmap_traits@KUQuestReward@ioQuestManager@@U?$less@K@std@@V?$allocator@U?$pair@$$CBKUQuestReward@ioQuestManager@@@std@@@4@$0A@@std@@@2@PAU342@@Z ; std::_Tree_val<std::_Tmap_traits<unsigned long,ioQuestManager::QuestReward,std::less<unsigned long>,std::allocator<std::pair<unsigned long const ,ioQuestManager::QuestReward> >,0> >::_Right
; Function compile flags: /Ogsp
;	COMDAT ?_Right@?$_Tree_val@V?$_Tmap_traits@KUQuestReward@ioQuestManager@@U?$less@K@std@@V?$allocator@U?$pair@$$CBKUQuestReward@ioQuestManager@@@std@@@4@$0A@@std@@@std@@SAAAPAU_Node@?$_Tree_nod@V?$_Tmap_traits@KUQuestReward@ioQuestManager@@U?$less@K@std@@V?$allocator@U?$pair@$$CBKUQuestReward@ioQuestManager@@@std@@@4@$0A@@std@@@2@PAU342@@Z
_TEXT	SEGMENT
__Pnode$ = 8						; size = 4
?_Right@?$_Tree_val@V?$_Tmap_traits@KUQuestReward@ioQuestManager@@U?$less@K@std@@V?$allocator@U?$pair@$$CBKUQuestReward@ioQuestManager@@@std@@@4@$0A@@std@@@std@@SAAAPAU_Node@?$_Tree_nod@V?$_Tmap_traits@KUQuestReward@ioQuestManager@@U?$less@K@std@@V?$allocator@U?$pair@$$CBKUQuestReward@ioQuestManager@@@std@@@4@$0A@@std@@@2@PAU342@@Z PROC ; std::_Tree_val<std::_Tmap_traits<unsigned long,ioQuestManager::QuestReward,std::less<unsigned long>,std::allocator<std::pair<unsigned long const ,ioQuestManager::QuestReward> >,0> >::_Right, COMDAT

; 631  : 		{	// return reference to right pointer in node

  00000	55		 push	 ebp
  00001	8b ec		 mov	 ebp, esp

; 632  : 		return ((_Nodepref)(*_Pnode)._Right);

  00003	8b 45 08	 mov	 eax, DWORD PTR __Pnode$[ebp]
  00006	83 c0 08	 add	 eax, 8

; 633  : 		}

  00009	5d		 pop	 ebp
  0000a	c3		 ret	 0
?_Right@?$_Tree_val@V?$_Tmap_traits@KUQuestReward@ioQuestManager@@U?$less@K@std@@V?$allocator@U?$pair@$$CBKUQuestReward@ioQuestManager@@@std@@@4@$0A@@std@@@std@@SAAAPAU_Node@?$_Tree_nod@V?$_Tmap_traits@KUQuestReward@ioQuestManager@@U?$less@K@std@@V?$allocator@U?$pair@$$CBKUQuestReward@ioQuestManager@@@std@@@4@$0A@@std@@@2@PAU342@@Z ENDP ; std::_Tree_val<std::_Tmap_traits<unsigned long,ioQuestManager::QuestReward,std::less<unsigned long>,std::allocator<std::pair<unsigned long const ,ioQuestManager::QuestReward> >,0> >::_Right
_TEXT	ENDS
PUBLIC	?_Myval@?$_Tree_val@V?$_Tmap_traits@KUQuestReward@ioQuestManager@@U?$less@K@std@@V?$allocator@U?$pair@$$CBKUQuestReward@ioQuestManager@@@std@@@4@$0A@@std@@@std@@SAAAU?$pair@$$CBKUQuestReward@ioQuestManager@@@2@PAU_Node@?$_Tree_nod@V?$_Tmap_traits@KUQuestReward@ioQuestManager@@U?$less@K@std@@V?$allocator@U?$pair@$$CBKUQuestReward@ioQuestManager@@@std@@@4@$0A@@std@@@2@@Z ; std::_Tree_val<std::_Tmap_traits<unsigned long,ioQuestManager::QuestReward,std::less<unsigned long>,std::allocator<std::pair<unsigned long const ,ioQuestManager::QuestReward> >,0> >::_Myval
; Function compile flags: /Ogsp
;	COMDAT ?_Myval@?$_Tree_val@V?$_Tmap_traits@KUQuestReward@ioQuestManager@@U?$less@K@std@@V?$allocator@U?$pair@$$CBKUQuestReward@ioQuestManager@@@std@@@4@$0A@@std@@@std@@SAAAU?$pair@$$CBKUQuestReward@ioQuestManager@@@2@PAU_Node@?$_Tree_nod@V?$_Tmap_traits@KUQuestReward@ioQuestManager@@U?$less@K@std@@V?$allocator@U?$pair@$$CBKUQuestReward@ioQuestManager@@@std@@@4@$0A@@std@@@2@@Z
_TEXT	SEGMENT
__Pnode$ = 8						; size = 4
?_Myval@?$_Tree_val@V?$_Tmap_traits@KUQuestReward@ioQuestManager@@U?$less@K@std@@V?$allocator@U?$pair@$$CBKUQuestReward@ioQuestManager@@@std@@@4@$0A@@std@@@std@@SAAAU?$pair@$$CBKUQuestReward@ioQuestManager@@@2@PAU_Node@?$_Tree_nod@V?$_Tmap_traits@KUQuestReward@ioQuestManager@@U?$less@K@std@@V?$allocator@U?$pair@$$CBKUQuestReward@ioQuestManager@@@std@@@4@$0A@@std@@@2@@Z PROC ; std::_Tree_val<std::_Tmap_traits<unsigned long,ioQuestManager::QuestReward,std::less<unsigned long>,std::allocator<std::pair<unsigned long const ,ioQuestManager::QuestReward> >,0> >::_Myval, COMDAT

; 636  : 		{	// return reference to value in node

  00000	55		 push	 ebp
  00001	8b ec		 mov	 ebp, esp

; 637  : 		return ((reference)(*_Pnode)._Myval);

  00003	8b 45 08	 mov	 eax, DWORD PTR __Pnode$[ebp]
  00006	83 c0 0c	 add	 eax, 12			; 0000000cH

; 638  : 		}

  00009	5d		 pop	 ebp
  0000a	c3		 ret	 0
?_Myval@?$_Tree_val@V?$_Tmap_traits@KUQuestReward@ioQuestManager@@U?$less@K@std@@V?$allocator@U?$pair@$$CBKUQuestReward@ioQuestManager@@@std@@@4@$0A@@std@@@std@@SAAAU?$pair@$$CBKUQuestReward@ioQuestManager@@@2@PAU_Node@?$_Tree_nod@V?$_Tmap_traits@KUQuestReward@ioQuestManager@@U?$less@K@std@@V?$allocator@U?$pair@$$CBKUQuestReward@ioQuestManager@@@std@@@4@$0A@@std@@@2@@Z ENDP ; std::_Tree_val<std::_Tmap_traits<unsigned long,ioQuestManager::QuestReward,std::less<unsigned long>,std::allocator<std::pair<unsigned long const ,ioQuestManager::QuestReward> >,0> >::_Myval
_TEXT	ENDS
PUBLIC	??0?$allocator@U?$pair@$$CBKUQuestReward@ioQuestManager@@@std@@@std@@QAE@ABV01@@Z ; std::allocator<std::pair<unsigned long const ,ioQuestManager::QuestReward> >::allocator<std::pair<unsigned long const ,ioQuestManager::QuestReward> >
; Function compile flags: /Ogsp
; File c:\program files (x86)\microsoft visual studio 10.0\vc\include\xmemory
;	COMDAT ??0?$allocator@U?$pair@$$CBKUQuestReward@ioQuestManager@@@std@@@std@@QAE@ABV01@@Z
_TEXT	SEGMENT
___formal$ = 8						; size = 4
??0?$allocator@U?$pair@$$CBKUQuestReward@ioQuestManager@@@std@@@std@@QAE@ABV01@@Z PROC ; std::allocator<std::pair<unsigned long const ,ioQuestManager::QuestReward> >::allocator<std::pair<unsigned long const ,ioQuestManager::QuestReward> >, COMDAT
; _this$ = ecx

; 165  : 	_ALLOCATOR(const _ALLOCATOR<_Ty>&) _THROW0()

  00000	8b c1		 mov	 eax, ecx

; 166  : 		{	// construct by copying (do nothing)
; 167  : 		}

  00002	c2 04 00	 ret	 4
??0?$allocator@U?$pair@$$CBKUQuestReward@ioQuestManager@@@std@@@std@@QAE@ABV01@@Z ENDP ; std::allocator<std::pair<unsigned long const ,ioQuestManager::QuestReward> >::allocator<std::pair<unsigned long const ,ioQuestManager::QuestReward> >
_TEXT	ENDS
PUBLIC	?deallocate@?$allocator@U_Node@?$_Tree_nod@V?$_Tmap_traits@KUQuestReward@ioQuestManager@@U?$less@K@std@@V?$allocator@U?$pair@$$CBKUQuestReward@ioQuestManager@@@std@@@4@$0A@@std@@@std@@@std@@QAEXPAU_Node@?$_Tree_nod@V?$_Tmap_traits@KUQuestReward@ioQuestManager@@U?$less@K@std@@V?$allocator@U?$pair@$$CBKUQuestReward@ioQuestManager@@@std@@@4@$0A@@std@@@2@I@Z ; std::allocator<std::_Tree_nod<std::_Tmap_traits<unsigned long,ioQuestManager::QuestReward,std::less<unsigned long>,std::allocator<std::pair<unsigned long const ,ioQuestManager::QuestReward> >,0> >::_Node>::deallocate
; Function compile flags: /Ogsp
;	COMDAT ?deallocate@?$allocator@U_Node@?$_Tree_nod@V?$_Tmap_traits@KUQuestReward@ioQuestManager@@U?$less@K@std@@V?$allocator@U?$pair@$$CBKUQuestReward@ioQuestManager@@@std@@@4@$0A@@std@@@std@@@std@@QAEXPAU_Node@?$_Tree_nod@V?$_Tmap_traits@KUQuestReward@ioQuestManager@@U?$less@K@std@@V?$allocator@U?$pair@$$CBKUQuestReward@ioQuestManager@@@std@@@4@$0A@@std@@@2@I@Z
_TEXT	SEGMENT
__Ptr$ = 8						; size = 4
___formal$ = 12						; size = 4
?deallocate@?$allocator@U_Node@?$_Tree_nod@V?$_Tmap_traits@KUQuestReward@ioQuestManager@@U?$less@K@std@@V?$allocator@U?$pair@$$CBKUQuestReward@ioQuestManager@@@std@@@4@$0A@@std@@@std@@@std@@QAEXPAU_Node@?$_Tree_nod@V?$_Tmap_traits@KUQuestReward@ioQuestManager@@U?$less@K@std@@V?$allocator@U?$pair@$$CBKUQuestReward@ioQuestManager@@@std@@@4@$0A@@std@@@2@I@Z PROC ; std::allocator<std::_Tree_nod<std::_Tmap_traits<unsigned long,ioQuestManager::QuestReward,std::less<unsigned long>,std::allocator<std::pair<unsigned long const ,ioQuestManager::QuestReward> >,0> >::_Node>::deallocate, COMDAT
; _this$ = ecx

; 181  : 		{	// deallocate object at _Ptr, ignore size

  00000	55		 push	 ebp
  00001	8b ec		 mov	 ebp, esp

; 182  : 		::operator delete(_Ptr);

  00003	ff 75 08	 push	 DWORD PTR __Ptr$[ebp]
  00006	e8 00 00 00 00	 call	 ??3@YAXPAX@Z		; operator delete
  0000b	59		 pop	 ecx

; 183  : 		}

  0000c	5d		 pop	 ebp
  0000d	c2 08 00	 ret	 8
?deallocate@?$allocator@U_Node@?$_Tree_nod@V?$_Tmap_traits@KUQuestReward@ioQuestManager@@U?$less@K@std@@V?$allocator@U?$pair@$$CBKUQuestReward@ioQuestManager@@@std@@@4@$0A@@std@@@std@@@std@@QAEXPAU_Node@?$_Tree_nod@V?$_Tmap_traits@KUQuestReward@ioQuestManager@@U?$less@K@std@@V?$allocator@U?$pair@$$CBKUQuestReward@ioQuestManager@@@std@@@4@$0A@@std@@@2@I@Z ENDP ; std::allocator<std::_Tree_nod<std::_Tmap_traits<unsigned long,ioQuestManager::QuestReward,std::less<unsigned long>,std::allocator<std::pair<unsigned long const ,ioQuestManager::QuestReward> >,0> >::_Node>::deallocate
_TEXT	ENDS
PUBLIC	?capacity@?$vector@PAUQuestHelp@ioQuestManager@@V?$allocator@PAUQuestHelp@ioQuestManager@@@std@@@std@@QBEIXZ ; std::vector<ioQuestManager::QuestHelp *,std::allocator<ioQuestManager::QuestHelp *> >::capacity
; Function compile flags: /Ogsp
; File c:\program files (x86)\microsoft visual studio 10.0\vc\include\vector
;	COMDAT ?capacity@?$vector@PAUQuestHelp@ioQuestManager@@V?$allocator@PAUQuestHelp@ioQuestManager@@@std@@@std@@QBEIXZ
_TEXT	SEGMENT
?capacity@?$vector@PAUQuestHelp@ioQuestManager@@V?$allocator@PAUQuestHelp@ioQuestManager@@@std@@@std@@QBEIXZ PROC ; std::vector<ioQuestManager::QuestHelp *,std::allocator<ioQuestManager::QuestHelp *> >::capacity, COMDAT
; _this$ = ecx

; 777  : 		return (this->_Myend - this->_Myfirst);

  00000	8b 41 08	 mov	 eax, DWORD PTR [ecx+8]
  00003	2b 01		 sub	 eax, DWORD PTR [ecx]
  00005	c1 f8 02	 sar	 eax, 2

; 778  : 		}

  00008	c3		 ret	 0
?capacity@?$vector@PAUQuestHelp@ioQuestManager@@V?$allocator@PAUQuestHelp@ioQuestManager@@@std@@@std@@QBEIXZ ENDP ; std::vector<ioQuestManager::QuestHelp *,std::allocator<ioQuestManager::QuestHelp *> >::capacity
_TEXT	ENDS
PUBLIC	?_Xlen@?$vector@PAUQuestHelp@ioQuestManager@@V?$allocator@PAUQuestHelp@ioQuestManager@@@std@@@std@@IBEXXZ ; std::vector<ioQuestManager::QuestHelp *,std::allocator<ioQuestManager::QuestHelp *> >::_Xlen
; Function compile flags: /Ogsp
;	COMDAT ?_Xlen@?$vector@PAUQuestHelp@ioQuestManager@@V?$allocator@PAUQuestHelp@ioQuestManager@@@std@@@std@@IBEXXZ
_TEXT	SEGMENT
?_Xlen@?$vector@PAUQuestHelp@ioQuestManager@@V?$allocator@PAUQuestHelp@ioQuestManager@@@std@@@std@@IBEXXZ PROC ; std::vector<ioQuestManager::QuestHelp *,std::allocator<ioQuestManager::QuestHelp *> >::_Xlen, COMDAT
; _this$ = ecx

; 1427 : 		_Xlength_error("vector<T> too long");

  00000	68 00 00 00 00	 push	 OFFSET ??_C@_0BD@OLBABOEK@vector?$DMT?$DO?5too?5long?$AA@
  00005	ff 15 00 00 00
	00		 call	 DWORD PTR __imp_?_Xlength_error@std@@YAXPBD@Z
$LN4@Xlen@3:
$LN3@Xlen@3:
  0000b	cc		 int	 3
?_Xlen@?$vector@PAUQuestHelp@ioQuestManager@@V?$allocator@PAUQuestHelp@ioQuestManager@@@std@@@std@@IBEXXZ ENDP ; std::vector<ioQuestManager::QuestHelp *,std::allocator<ioQuestManager::QuestHelp *> >::_Xlen
_TEXT	ENDS
PUBLIC	??0?$allocator@PAUQuestHelp@ioQuestManager@@@std@@QAE@ABV01@@Z ; std::allocator<ioQuestManager::QuestHelp *>::allocator<ioQuestManager::QuestHelp *>
; Function compile flags: /Ogsp
; File c:\program files (x86)\microsoft visual studio 10.0\vc\include\xmemory
;	COMDAT ??0?$allocator@PAUQuestHelp@ioQuestManager@@@std@@QAE@ABV01@@Z
_TEXT	SEGMENT
___formal$ = 8						; size = 4
??0?$allocator@PAUQuestHelp@ioQuestManager@@@std@@QAE@ABV01@@Z PROC ; std::allocator<ioQuestManager::QuestHelp *>::allocator<ioQuestManager::QuestHelp *>, COMDAT
; _this$ = ecx

; 165  : 	_ALLOCATOR(const _ALLOCATOR<_Ty>&) _THROW0()

  00000	8b c1		 mov	 eax, ecx

; 166  : 		{	// construct by copying (do nothing)
; 167  : 		}

  00002	c2 04 00	 ret	 4
??0?$allocator@PAUQuestHelp@ioQuestManager@@@std@@QAE@ABV01@@Z ENDP ; std::allocator<ioQuestManager::QuestHelp *>::allocator<ioQuestManager::QuestHelp *>
_TEXT	ENDS
PUBLIC	?deallocate@?$allocator@PAUQuestHelp@ioQuestManager@@@std@@QAEXPAPAUQuestHelp@ioQuestManager@@I@Z ; std::allocator<ioQuestManager::QuestHelp *>::deallocate
; Function compile flags: /Ogsp
;	COMDAT ?deallocate@?$allocator@PAUQuestHelp@ioQuestManager@@@std@@QAEXPAPAUQuestHelp@ioQuestManager@@I@Z
_TEXT	SEGMENT
__Ptr$ = 8						; size = 4
___formal$ = 12						; size = 4
?deallocate@?$allocator@PAUQuestHelp@ioQuestManager@@@std@@QAEXPAPAUQuestHelp@ioQuestManager@@I@Z PROC ; std::allocator<ioQuestManager::QuestHelp *>::deallocate, COMDAT
; _this$ = ecx

; 181  : 		{	// deallocate object at _Ptr, ignore size

  00000	55		 push	 ebp
  00001	8b ec		 mov	 ebp, esp

; 182  : 		::operator delete(_Ptr);

  00003	ff 75 08	 push	 DWORD PTR __Ptr$[ebp]
  00006	e8 00 00 00 00	 call	 ??3@YAXPAX@Z		; operator delete
  0000b	59		 pop	 ecx

; 183  : 		}

  0000c	5d		 pop	 ebp
  0000d	c2 08 00	 ret	 8
?deallocate@?$allocator@PAUQuestHelp@ioQuestManager@@@std@@QAEXPAPAUQuestHelp@ioQuestManager@@I@Z ENDP ; std::allocator<ioQuestManager::QuestHelp *>::deallocate
_TEXT	ENDS
PUBLIC	?_Isnil@?$_Tree_val@V?$_Tmap_traits@KUQuestHelpList@ioQuestManager@@U?$less@K@std@@V?$allocator@U?$pair@$$CBKUQuestHelpList@ioQuestManager@@@std@@@4@$0A@@std@@@std@@SAAADPAU_Node@?$_Tree_nod@V?$_Tmap_traits@KUQuestHelpList@ioQuestManager@@U?$less@K@std@@V?$allocator@U?$pair@$$CBKUQuestHelpList@ioQuestManager@@@std@@@4@$0A@@std@@@2@@Z ; std::_Tree_val<std::_Tmap_traits<unsigned long,ioQuestManager::QuestHelpList,std::less<unsigned long>,std::allocator<std::pair<unsigned long const ,ioQuestManager::QuestHelpList> >,0> >::_Isnil
; Function compile flags: /Ogsp
; File c:\program files (x86)\microsoft visual studio 10.0\vc\include\xtree
;	COMDAT ?_Isnil@?$_Tree_val@V?$_Tmap_traits@KUQuestHelpList@ioQuestManager@@U?$less@K@std@@V?$allocator@U?$pair@$$CBKUQuestHelpList@ioQuestManager@@@std@@@4@$0A@@std@@@std@@SAAADPAU_Node@?$_Tree_nod@V?$_Tmap_traits@KUQuestHelpList@ioQuestManager@@U?$less@K@std@@V?$allocator@U?$pair@$$CBKUQuestHelpList@ioQuestManager@@@std@@@4@$0A@@std@@@2@@Z
_TEXT	SEGMENT
__Pnode$ = 8						; size = 4
?_Isnil@?$_Tree_val@V?$_Tmap_traits@KUQuestHelpList@ioQuestManager@@U?$less@K@std@@V?$allocator@U?$pair@$$CBKUQuestHelpList@ioQuestManager@@@std@@@4@$0A@@std@@@std@@SAAADPAU_Node@?$_Tree_nod@V?$_Tmap_traits@KUQuestHelpList@ioQuestManager@@U?$less@K@std@@V?$allocator@U?$pair@$$CBKUQuestHelpList@ioQuestManager@@@std@@@4@$0A@@std@@@2@@Z PROC ; std::_Tree_val<std::_Tmap_traits<unsigned long,ioQuestManager::QuestHelpList,std::less<unsigned long>,std::allocator<std::pair<unsigned long const ,ioQuestManager::QuestHelpList> >,0> >::_Isnil, COMDAT

; 611  : 		{	// return reference to nil flag in node

  00000	55		 push	 ebp
  00001	8b ec		 mov	 ebp, esp

; 612  : 		return ((char&)(*_Pnode)._Isnil);

  00003	8b 45 08	 mov	 eax, DWORD PTR __Pnode$[ebp]
  00006	83 c0 21	 add	 eax, 33			; 00000021H

; 613  : 		}

  00009	5d		 pop	 ebp
  0000a	c3		 ret	 0
?_Isnil@?$_Tree_val@V?$_Tmap_traits@KUQuestHelpList@ioQuestManager@@U?$less@K@std@@V?$allocator@U?$pair@$$CBKUQuestHelpList@ioQuestManager@@@std@@@4@$0A@@std@@@std@@SAAADPAU_Node@?$_Tree_nod@V?$_Tmap_traits@KUQuestHelpList@ioQuestManager@@U?$less@K@std@@V?$allocator@U?$pair@$$CBKUQuestHelpList@ioQuestManager@@@std@@@4@$0A@@std@@@2@@Z ENDP ; std::_Tree_val<std::_Tmap_traits<unsigned long,ioQuestManager::QuestHelpList,std::less<unsigned long>,std::allocator<std::pair<unsigned long const ,ioQuestManager::QuestHelpList> >,0> >::_Isnil
_TEXT	ENDS
PUBLIC	?_Left@?$_Tree_val@V?$_Tmap_traits@KUQuestHelpList@ioQuestManager@@U?$less@K@std@@V?$allocator@U?$pair@$$CBKUQuestHelpList@ioQuestManager@@@std@@@4@$0A@@std@@@std@@SAAAPAU_Node@?$_Tree_nod@V?$_Tmap_traits@KUQuestHelpList@ioQuestManager@@U?$less@K@std@@V?$allocator@U?$pair@$$CBKUQuestHelpList@ioQuestManager@@@std@@@4@$0A@@std@@@2@PAU342@@Z ; std::_Tree_val<std::_Tmap_traits<unsigned long,ioQuestManager::QuestHelpList,std::less<unsigned long>,std::allocator<std::pair<unsigned long const ,ioQuestManager::QuestHelpList> >,0> >::_Left
; Function compile flags: /Ogsp
;	COMDAT ?_Left@?$_Tree_val@V?$_Tmap_traits@KUQuestHelpList@ioQuestManager@@U?$less@K@std@@V?$allocator@U?$pair@$$CBKUQuestHelpList@ioQuestManager@@@std@@@4@$0A@@std@@@std@@SAAAPAU_Node@?$_Tree_nod@V?$_Tmap_traits@KUQuestHelpList@ioQuestManager@@U?$less@K@std@@V?$allocator@U?$pair@$$CBKUQuestHelpList@ioQuestManager@@@std@@@4@$0A@@std@@@2@PAU342@@Z
_TEXT	SEGMENT
__Pnode$ = 8						; size = 4
?_Left@?$_Tree_val@V?$_Tmap_traits@KUQuestHelpList@ioQuestManager@@U?$less@K@std@@V?$allocator@U?$pair@$$CBKUQuestHelpList@ioQuestManager@@@std@@@4@$0A@@std@@@std@@SAAAPAU_Node@?$_Tree_nod@V?$_Tmap_traits@KUQuestHelpList@ioQuestManager@@U?$less@K@std@@V?$allocator@U?$pair@$$CBKUQuestHelpList@ioQuestManager@@@std@@@4@$0A@@std@@@2@PAU342@@Z PROC ; std::_Tree_val<std::_Tmap_traits<unsigned long,ioQuestManager::QuestHelpList,std::less<unsigned long>,std::allocator<std::pair<unsigned long const ,ioQuestManager::QuestHelpList> >,0> >::_Left, COMDAT

; 621  : 		{	// return reference to left pointer in node

  00000	55		 push	 ebp
  00001	8b ec		 mov	 ebp, esp

; 622  : 		return ((_Nodepref)(*_Pnode)._Left);

  00003	8b 45 08	 mov	 eax, DWORD PTR __Pnode$[ebp]

; 623  : 		}

  00006	5d		 pop	 ebp
  00007	c3		 ret	 0
?_Left@?$_Tree_val@V?$_Tmap_traits@KUQuestHelpList@ioQuestManager@@U?$less@K@std@@V?$allocator@U?$pair@$$CBKUQuestHelpList@ioQuestManager@@@std@@@4@$0A@@std@@@std@@SAAAPAU_Node@?$_Tree_nod@V?$_Tmap_traits@KUQuestHelpList@ioQuestManager@@U?$less@K@std@@V?$allocator@U?$pair@$$CBKUQuestHelpList@ioQuestManager@@@std@@@4@$0A@@std@@@2@PAU342@@Z ENDP ; std::_Tree_val<std::_Tmap_traits<unsigned long,ioQuestManager::QuestHelpList,std::less<unsigned long>,std::allocator<std::pair<unsigned long const ,ioQuestManager::QuestHelpList> >,0> >::_Left
_TEXT	ENDS
PUBLIC	?_Parent@?$_Tree_val@V?$_Tmap_traits@KUQuestHelpList@ioQuestManager@@U?$less@K@std@@V?$allocator@U?$pair@$$CBKUQuestHelpList@ioQuestManager@@@std@@@4@$0A@@std@@@std@@SAAAPAU_Node@?$_Tree_nod@V?$_Tmap_traits@KUQuestHelpList@ioQuestManager@@U?$less@K@std@@V?$allocator@U?$pair@$$CBKUQuestHelpList@ioQuestManager@@@std@@@4@$0A@@std@@@2@PAU342@@Z ; std::_Tree_val<std::_Tmap_traits<unsigned long,ioQuestManager::QuestHelpList,std::less<unsigned long>,std::allocator<std::pair<unsigned long const ,ioQuestManager::QuestHelpList> >,0> >::_Parent
; Function compile flags: /Ogsp
;	COMDAT ?_Parent@?$_Tree_val@V?$_Tmap_traits@KUQuestHelpList@ioQuestManager@@U?$less@K@std@@V?$allocator@U?$pair@$$CBKUQuestHelpList@ioQuestManager@@@std@@@4@$0A@@std@@@std@@SAAAPAU_Node@?$_Tree_nod@V?$_Tmap_traits@KUQuestHelpList@ioQuestManager@@U?$less@K@std@@V?$allocator@U?$pair@$$CBKUQuestHelpList@ioQuestManager@@@std@@@4@$0A@@std@@@2@PAU342@@Z
_TEXT	SEGMENT
__Pnode$ = 8						; size = 4
?_Parent@?$_Tree_val@V?$_Tmap_traits@KUQuestHelpList@ioQuestManager@@U?$less@K@std@@V?$allocator@U?$pair@$$CBKUQuestHelpList@ioQuestManager@@@std@@@4@$0A@@std@@@std@@SAAAPAU_Node@?$_Tree_nod@V?$_Tmap_traits@KUQuestHelpList@ioQuestManager@@U?$less@K@std@@V?$allocator@U?$pair@$$CBKUQuestHelpList@ioQuestManager@@@std@@@4@$0A@@std@@@2@PAU342@@Z PROC ; std::_Tree_val<std::_Tmap_traits<unsigned long,ioQuestManager::QuestHelpList,std::less<unsigned long>,std::allocator<std::pair<unsigned long const ,ioQuestManager::QuestHelpList> >,0> >::_Parent, COMDAT

; 626  : 		{	// return reference to parent pointer in node

  00000	55		 push	 ebp
  00001	8b ec		 mov	 ebp, esp

; 627  : 		return ((_Nodepref)(*_Pnode)._Parent);

  00003	8b 45 08	 mov	 eax, DWORD PTR __Pnode$[ebp]
  00006	83 c0 04	 add	 eax, 4

; 628  : 		}

  00009	5d		 pop	 ebp
  0000a	c3		 ret	 0
?_Parent@?$_Tree_val@V?$_Tmap_traits@KUQuestHelpList@ioQuestManager@@U?$less@K@std@@V?$allocator@U?$pair@$$CBKUQuestHelpList@ioQuestManager@@@std@@@4@$0A@@std@@@std@@SAAAPAU_Node@?$_Tree_nod@V?$_Tmap_traits@KUQuestHelpList@ioQuestManager@@U?$less@K@std@@V?$allocator@U?$pair@$$CBKUQuestHelpList@ioQuestManager@@@std@@@4@$0A@@std@@@2@PAU342@@Z ENDP ; std::_Tree_val<std::_Tmap_traits<unsigned long,ioQuestManager::QuestHelpList,std::less<unsigned long>,std::allocator<std::pair<unsigned long const ,ioQuestManager::QuestHelpList> >,0> >::_Parent
_TEXT	ENDS
PUBLIC	?_Right@?$_Tree_val@V?$_Tmap_traits@KUQuestHelpList@ioQuestManager@@U?$less@K@std@@V?$allocator@U?$pair@$$CBKUQuestHelpList@ioQuestManager@@@std@@@4@$0A@@std@@@std@@SAAAPAU_Node@?$_Tree_nod@V?$_Tmap_traits@KUQuestHelpList@ioQuestManager@@U?$less@K@std@@V?$allocator@U?$pair@$$CBKUQuestHelpList@ioQuestManager@@@std@@@4@$0A@@std@@@2@PAU342@@Z ; std::_Tree_val<std::_Tmap_traits<unsigned long,ioQuestManager::QuestHelpList,std::less<unsigned long>,std::allocator<std::pair<unsigned long const ,ioQuestManager::QuestHelpList> >,0> >::_Right
; Function compile flags: /Ogsp
;	COMDAT ?_Right@?$_Tree_val@V?$_Tmap_traits@KUQuestHelpList@ioQuestManager@@U?$less@K@std@@V?$allocator@U?$pair@$$CBKUQuestHelpList@ioQuestManager@@@std@@@4@$0A@@std@@@std@@SAAAPAU_Node@?$_Tree_nod@V?$_Tmap_traits@KUQuestHelpList@ioQuestManager@@U?$less@K@std@@V?$allocator@U?$pair@$$CBKUQuestHelpList@ioQuestManager@@@std@@@4@$0A@@std@@@2@PAU342@@Z
_TEXT	SEGMENT
__Pnode$ = 8						; size = 4
?_Right@?$_Tree_val@V?$_Tmap_traits@KUQuestHelpList@ioQuestManager@@U?$less@K@std@@V?$allocator@U?$pair@$$CBKUQuestHelpList@ioQuestManager@@@std@@@4@$0A@@std@@@std@@SAAAPAU_Node@?$_Tree_nod@V?$_Tmap_traits@KUQuestHelpList@ioQuestManager@@U?$less@K@std@@V?$allocator@U?$pair@$$CBKUQuestHelpList@ioQuestManager@@@std@@@4@$0A@@std@@@2@PAU342@@Z PROC ; std::_Tree_val<std::_Tmap_traits<unsigned long,ioQuestManager::QuestHelpList,std::less<unsigned long>,std::allocator<std::pair<unsigned long const ,ioQuestManager::QuestHelpList> >,0> >::_Right, COMDAT

; 631  : 		{	// return reference to right pointer in node

  00000	55		 push	 ebp
  00001	8b ec		 mov	 ebp, esp

; 632  : 		return ((_Nodepref)(*_Pnode)._Right);

  00003	8b 45 08	 mov	 eax, DWORD PTR __Pnode$[ebp]
  00006	83 c0 08	 add	 eax, 8

; 633  : 		}

  00009	5d		 pop	 ebp
  0000a	c3		 ret	 0
?_Right@?$_Tree_val@V?$_Tmap_traits@KUQuestHelpList@ioQuestManager@@U?$less@K@std@@V?$allocator@U?$pair@$$CBKUQuestHelpList@ioQuestManager@@@std@@@4@$0A@@std@@@std@@SAAAPAU_Node@?$_Tree_nod@V?$_Tmap_traits@KUQuestHelpList@ioQuestManager@@U?$less@K@std@@V?$allocator@U?$pair@$$CBKUQuestHelpList@ioQuestManager@@@std@@@4@$0A@@std@@@2@PAU342@@Z ENDP ; std::_Tree_val<std::_Tmap_traits<unsigned long,ioQuestManager::QuestHelpList,std::less<unsigned long>,std::allocator<std::pair<unsigned long const ,ioQuestManager::QuestHelpList> >,0> >::_Right
_TEXT	ENDS
PUBLIC	?_Myval@?$_Tree_val@V?$_Tmap_traits@KUQuestHelpList@ioQuestManager@@U?$less@K@std@@V?$allocator@U?$pair@$$CBKUQuestHelpList@ioQuestManager@@@std@@@4@$0A@@std@@@std@@SAAAU?$pair@$$CBKUQuestHelpList@ioQuestManager@@@2@PAU_Node@?$_Tree_nod@V?$_Tmap_traits@KUQuestHelpList@ioQuestManager@@U?$less@K@std@@V?$allocator@U?$pair@$$CBKUQuestHelpList@ioQuestManager@@@std@@@4@$0A@@std@@@2@@Z ; std::_Tree_val<std::_Tmap_traits<unsigned long,ioQuestManager::QuestHelpList,std::less<unsigned long>,std::allocator<std::pair<unsigned long const ,ioQuestManager::QuestHelpList> >,0> >::_Myval
; Function compile flags: /Ogsp
;	COMDAT ?_Myval@?$_Tree_val@V?$_Tmap_traits@KUQuestHelpList@ioQuestManager@@U?$less@K@std@@V?$allocator@U?$pair@$$CBKUQuestHelpList@ioQuestManager@@@std@@@4@$0A@@std@@@std@@SAAAU?$pair@$$CBKUQuestHelpList@ioQuestManager@@@2@PAU_Node@?$_Tree_nod@V?$_Tmap_traits@KUQuestHelpList@ioQuestManager@@U?$less@K@std@@V?$allocator@U?$pair@$$CBKUQuestHelpList@ioQuestManager@@@std@@@4@$0A@@std@@@2@@Z
_TEXT	SEGMENT
__Pnode$ = 8						; size = 4
?_Myval@?$_Tree_val@V?$_Tmap_traits@KUQuestHelpList@ioQuestManager@@U?$less@K@std@@V?$allocator@U?$pair@$$CBKUQuestHelpList@ioQuestManager@@@std@@@4@$0A@@std@@@std@@SAAAU?$pair@$$CBKUQuestHelpList@ioQuestManager@@@2@PAU_Node@?$_Tree_nod@V?$_Tmap_traits@KUQuestHelpList@ioQuestManager@@U?$less@K@std@@V?$allocator@U?$pair@$$CBKUQuestHelpList@ioQuestManager@@@std@@@4@$0A@@std@@@2@@Z PROC ; std::_Tree_val<std::_Tmap_traits<unsigned long,ioQuestManager::QuestHelpList,std::less<unsigned long>,std::allocator<std::pair<unsigned long const ,ioQuestManager::QuestHelpList> >,0> >::_Myval, COMDAT

; 636  : 		{	// return reference to value in node

  00000	55		 push	 ebp
  00001	8b ec		 mov	 ebp, esp

; 637  : 		return ((reference)(*_Pnode)._Myval);

  00003	8b 45 08	 mov	 eax, DWORD PTR __Pnode$[ebp]
  00006	83 c0 0c	 add	 eax, 12			; 0000000cH

; 638  : 		}

  00009	5d		 pop	 ebp
  0000a	c3		 ret	 0
?_Myval@?$_Tree_val@V?$_Tmap_traits@KUQuestHelpList@ioQuestManager@@U?$less@K@std@@V?$allocator@U?$pair@$$CBKUQuestHelpList@ioQuestManager@@@std@@@4@$0A@@std@@@std@@SAAAU?$pair@$$CBKUQuestHelpList@ioQuestManager@@@2@PAU_Node@?$_Tree_nod@V?$_Tmap_traits@KUQuestHelpList@ioQuestManager@@U?$less@K@std@@V?$allocator@U?$pair@$$CBKUQuestHelpList@ioQuestManager@@@std@@@4@$0A@@std@@@2@@Z ENDP ; std::_Tree_val<std::_Tmap_traits<unsigned long,ioQuestManager::QuestHelpList,std::less<unsigned long>,std::allocator<std::pair<unsigned long const ,ioQuestManager::QuestHelpList> >,0> >::_Myval
_TEXT	ENDS
PUBLIC	??0?$allocator@U?$pair@$$CBKUQuestHelpList@ioQuestManager@@@std@@@std@@QAE@ABV01@@Z ; std::allocator<std::pair<unsigned long const ,ioQuestManager::QuestHelpList> >::allocator<std::pair<unsigned long const ,ioQuestManager::QuestHelpList> >
; Function compile flags: /Ogsp
; File c:\program files (x86)\microsoft visual studio 10.0\vc\include\xmemory
;	COMDAT ??0?$allocator@U?$pair@$$CBKUQuestHelpList@ioQuestManager@@@std@@@std@@QAE@ABV01@@Z
_TEXT	SEGMENT
___formal$ = 8						; size = 4
??0?$allocator@U?$pair@$$CBKUQuestHelpList@ioQuestManager@@@std@@@std@@QAE@ABV01@@Z PROC ; std::allocator<std::pair<unsigned long const ,ioQuestManager::QuestHelpList> >::allocator<std::pair<unsigned long const ,ioQuestManager::QuestHelpList> >, COMDAT
; _this$ = ecx

; 165  : 	_ALLOCATOR(const _ALLOCATOR<_Ty>&) _THROW0()

  00000	8b c1		 mov	 eax, ecx

; 166  : 		{	// construct by copying (do nothing)
; 167  : 		}

  00002	c2 04 00	 ret	 4
??0?$allocator@U?$pair@$$CBKUQuestHelpList@ioQuestManager@@@std@@@std@@QAE@ABV01@@Z ENDP ; std::allocator<std::pair<unsigned long const ,ioQuestManager::QuestHelpList> >::allocator<std::pair<unsigned long const ,ioQuestManager::QuestHelpList> >
_TEXT	ENDS
PUBLIC	?deallocate@?$allocator@U_Node@?$_Tree_nod@V?$_Tmap_traits@KUQuestHelpList@ioQuestManager@@U?$less@K@std@@V?$allocator@U?$pair@$$CBKUQuestHelpList@ioQuestManager@@@std@@@4@$0A@@std@@@std@@@std@@QAEXPAU_Node@?$_Tree_nod@V?$_Tmap_traits@KUQuestHelpList@ioQuestManager@@U?$less@K@std@@V?$allocator@U?$pair@$$CBKUQuestHelpList@ioQuestManager@@@std@@@4@$0A@@std@@@2@I@Z ; std::allocator<std::_Tree_nod<std::_Tmap_traits<unsigned long,ioQuestManager::QuestHelpList,std::less<unsigned long>,std::allocator<std::pair<unsigned long const ,ioQuestManager::QuestHelpList> >,0> >::_Node>::deallocate
; Function compile flags: /Ogsp
;	COMDAT ?deallocate@?$allocator@U_Node@?$_Tree_nod@V?$_Tmap_traits@KUQuestHelpList@ioQuestManager@@U?$less@K@std@@V?$allocator@U?$pair@$$CBKUQuestHelpList@ioQuestManager@@@std@@@4@$0A@@std@@@std@@@std@@QAEXPAU_Node@?$_Tree_nod@V?$_Tmap_traits@KUQuestHelpList@ioQuestManager@@U?$less@K@std@@V?$allocator@U?$pair@$$CBKUQuestHelpList@ioQuestManager@@@std@@@4@$0A@@std@@@2@I@Z
_TEXT	SEGMENT
__Ptr$ = 8						; size = 4
___formal$ = 12						; size = 4
?deallocate@?$allocator@U_Node@?$_Tree_nod@V?$_Tmap_traits@KUQuestHelpList@ioQuestManager@@U?$less@K@std@@V?$allocator@U?$pair@$$CBKUQuestHelpList@ioQuestManager@@@std@@@4@$0A@@std@@@std@@@std@@QAEXPAU_Node@?$_Tree_nod@V?$_Tmap_traits@KUQuestHelpList@ioQuestManager@@U?$less@K@std@@V?$allocator@U?$pair@$$CBKUQuestHelpList@ioQuestManager@@@std@@@4@$0A@@std@@@2@I@Z PROC ; std::allocator<std::_Tree_nod<std::_Tmap_traits<unsigned long,ioQuestManager::QuestHelpList,std::less<unsigned long>,std::allocator<std::pair<unsigned long const ,ioQuestManager::QuestHelpList> >,0> >::_Node>::deallocate, COMDAT
; _this$ = ecx

; 181  : 		{	// deallocate object at _Ptr, ignore size

  00000	55		 push	 ebp
  00001	8b ec		 mov	 ebp, esp

; 182  : 		::operator delete(_Ptr);

  00003	ff 75 08	 push	 DWORD PTR __Ptr$[ebp]
  00006	e8 00 00 00 00	 call	 ??3@YAXPAX@Z		; operator delete
  0000b	59		 pop	 ecx

; 183  : 		}

  0000c	5d		 pop	 ebp
  0000d	c2 08 00	 ret	 8
?deallocate@?$allocator@U_Node@?$_Tree_nod@V?$_Tmap_traits@KUQuestHelpList@ioQuestManager@@U?$less@K@std@@V?$allocator@U?$pair@$$CBKUQuestHelpList@ioQuestManager@@@std@@@4@$0A@@std@@@std@@@std@@QAEXPAU_Node@?$_Tree_nod@V?$_Tmap_traits@KUQuestHelpList@ioQuestManager@@U?$less@K@std@@V?$allocator@U?$pair@$$CBKUQuestHelpList@ioQuestManager@@@std@@@4@$0A@@std@@@2@I@Z ENDP ; std::allocator<std::_Tree_nod<std::_Tmap_traits<unsigned long,ioQuestManager::QuestHelpList,std::less<unsigned long>,std::allocator<std::pair<unsigned long const ,ioQuestManager::QuestHelpList> >,0> >::_Node>::deallocate
_TEXT	ENDS
PUBLIC	?capacity@?$vector@UCompleteReserve@ioQuestManager@@V?$allocator@UCompleteReserve@ioQuestManager@@@std@@@std@@QBEIXZ ; std::vector<ioQuestManager::CompleteReserve,std::allocator<ioQuestManager::CompleteReserve> >::capacity
; Function compile flags: /Ogsp
; File c:\program files (x86)\microsoft visual studio 10.0\vc\include\vector
;	COMDAT ?capacity@?$vector@UCompleteReserve@ioQuestManager@@V?$allocator@UCompleteReserve@ioQuestManager@@@std@@@std@@QBEIXZ
_TEXT	SEGMENT
?capacity@?$vector@UCompleteReserve@ioQuestManager@@V?$allocator@UCompleteReserve@ioQuestManager@@@std@@@std@@QBEIXZ PROC ; std::vector<ioQuestManager::CompleteReserve,std::allocator<ioQuestManager::CompleteReserve> >::capacity, COMDAT
; _this$ = ecx

; 777  : 		return (this->_Myend - this->_Myfirst);

  00000	8b 41 08	 mov	 eax, DWORD PTR [ecx+8]
  00003	2b 01		 sub	 eax, DWORD PTR [ecx]
  00005	c1 f8 04	 sar	 eax, 4

; 778  : 		}

  00008	c3		 ret	 0
?capacity@?$vector@UCompleteReserve@ioQuestManager@@V?$allocator@UCompleteReserve@ioQuestManager@@@std@@@std@@QBEIXZ ENDP ; std::vector<ioQuestManager::CompleteReserve,std::allocator<ioQuestManager::CompleteReserve> >::capacity
_TEXT	ENDS
PUBLIC	?_Xlen@?$vector@UCompleteReserve@ioQuestManager@@V?$allocator@UCompleteReserve@ioQuestManager@@@std@@@std@@IBEXXZ ; std::vector<ioQuestManager::CompleteReserve,std::allocator<ioQuestManager::CompleteReserve> >::_Xlen
; Function compile flags: /Ogsp
;	COMDAT ?_Xlen@?$vector@UCompleteReserve@ioQuestManager@@V?$allocator@UCompleteReserve@ioQuestManager@@@std@@@std@@IBEXXZ
_TEXT	SEGMENT
?_Xlen@?$vector@UCompleteReserve@ioQuestManager@@V?$allocator@UCompleteReserve@ioQuestManager@@@std@@@std@@IBEXXZ PROC ; std::vector<ioQuestManager::CompleteReserve,std::allocator<ioQuestManager::CompleteReserve> >::_Xlen, COMDAT
; _this$ = ecx

; 1427 : 		_Xlength_error("vector<T> too long");

  00000	68 00 00 00 00	 push	 OFFSET ??_C@_0BD@OLBABOEK@vector?$DMT?$DO?5too?5long?$AA@
  00005	ff 15 00 00 00
	00		 call	 DWORD PTR __imp_?_Xlength_error@std@@YAXPBD@Z
$LN4@Xlen@4:
$LN3@Xlen@4:
  0000b	cc		 int	 3
?_Xlen@?$vector@UCompleteReserve@ioQuestManager@@V?$allocator@UCompleteReserve@ioQuestManager@@@std@@@std@@IBEXXZ ENDP ; std::vector<ioQuestManager::CompleteReserve,std::allocator<ioQuestManager::CompleteReserve> >::_Xlen
_TEXT	ENDS
PUBLIC	??0?$allocator@UCompleteReserve@ioQuestManager@@@std@@QAE@ABV01@@Z ; std::allocator<ioQuestManager::CompleteReserve>::allocator<ioQuestManager::CompleteReserve>
; Function compile flags: /Ogsp
; File c:\program files (x86)\microsoft visual studio 10.0\vc\include\xmemory
;	COMDAT ??0?$allocator@UCompleteReserve@ioQuestManager@@@std@@QAE@ABV01@@Z
_TEXT	SEGMENT
___formal$ = 8						; size = 4
??0?$allocator@UCompleteReserve@ioQuestManager@@@std@@QAE@ABV01@@Z PROC ; std::allocator<ioQuestManager::CompleteReserve>::allocator<ioQuestManager::CompleteReserve>, COMDAT
; _this$ = ecx

; 165  : 	_ALLOCATOR(const _ALLOCATOR<_Ty>&) _THROW0()

  00000	8b c1		 mov	 eax, ecx

; 166  : 		{	// construct by copying (do nothing)
; 167  : 		}

  00002	c2 04 00	 ret	 4
??0?$allocator@UCompleteReserve@ioQuestManager@@@std@@QAE@ABV01@@Z ENDP ; std::allocator<ioQuestManager::CompleteReserve>::allocator<ioQuestManager::CompleteReserve>
_TEXT	ENDS
PUBLIC	?deallocate@?$allocator@UCompleteReserve@ioQuestManager@@@std@@QAEXPAUCompleteReserve@ioQuestManager@@I@Z ; std::allocator<ioQuestManager::CompleteReserve>::deallocate
; Function compile flags: /Ogsp
;	COMDAT ?deallocate@?$allocator@UCompleteReserve@ioQuestManager@@@std@@QAEXPAUCompleteReserve@ioQuestManager@@I@Z
_TEXT	SEGMENT
__Ptr$ = 8						; size = 4
___formal$ = 12						; size = 4
?deallocate@?$allocator@UCompleteReserve@ioQuestManager@@@std@@QAEXPAUCompleteReserve@ioQuestManager@@I@Z PROC ; std::allocator<ioQuestManager::CompleteReserve>::deallocate, COMDAT
; _this$ = ecx

; 181  : 		{	// deallocate object at _Ptr, ignore size

  00000	55		 push	 ebp
  00001	8b ec		 mov	 ebp, esp

; 182  : 		::operator delete(_Ptr);

  00003	ff 75 08	 push	 DWORD PTR __Ptr$[ebp]
  00006	e8 00 00 00 00	 call	 ??3@YAXPAX@Z		; operator delete
  0000b	59		 pop	 ecx

; 183  : 		}

  0000c	5d		 pop	 ebp
  0000d	c2 08 00	 ret	 8
?deallocate@?$allocator@UCompleteReserve@ioQuestManager@@@std@@QAEXPAUCompleteReserve@ioQuestManager@@I@Z ENDP ; std::allocator<ioQuestManager::CompleteReserve>::deallocate
_TEXT	ENDS
PUBLIC	??0?$_Vector_const_iterator@V?$_Vector_val@PAVQuestParent@@V?$allocator@PAVQuestParent@@@std@@@std@@@std@@QAE@PAPAVQuestParent@@PBU_Container_base0@1@@Z ; std::_Vector_const_iterator<std::_Vector_val<QuestParent *,std::allocator<QuestParent *> > >::_Vector_const_iterator<std::_Vector_val<QuestParent *,std::allocator<QuestParent *> > >
; Function compile flags: /Ogsp
; File c:\program files (x86)\microsoft visual studio 10.0\vc\include\vector
;	COMDAT ??0?$_Vector_const_iterator@V?$_Vector_val@PAVQuestParent@@V?$allocator@PAVQuestParent@@@std@@@std@@@std@@QAE@PAPAVQuestParent@@PBU_Container_base0@1@@Z
_TEXT	SEGMENT
__Parg$ = 8						; size = 4
__Pvector$ = 12						; size = 4
??0?$_Vector_const_iterator@V?$_Vector_val@PAVQuestParent@@V?$allocator@PAVQuestParent@@@std@@@std@@@std@@QAE@PAPAVQuestParent@@PBU_Container_base0@1@@Z PROC ; std::_Vector_const_iterator<std::_Vector_val<QuestParent *,std::allocator<QuestParent *> > >::_Vector_const_iterator<std::_Vector_val<QuestParent *,std::allocator<QuestParent *> > >, COMDAT
; _this$ = ecx

; 45   : 		{	// construct with pointer _Parg

  00000	55		 push	 ebp
  00001	8b ec		 mov	 ebp, esp
  00003	8b c1		 mov	 eax, ecx
  00005	8b 4d 08	 mov	 ecx, DWORD PTR __Parg$[ebp]
  00008	89 08		 mov	 DWORD PTR [eax], ecx

; 46   : 		this->_Adopt(_Pvector);
; 47   : 		}

  0000a	5d		 pop	 ebp
  0000b	c2 08 00	 ret	 8
??0?$_Vector_const_iterator@V?$_Vector_val@PAVQuestParent@@V?$allocator@PAVQuestParent@@@std@@@std@@@std@@QAE@PAPAVQuestParent@@PBU_Container_base0@1@@Z ENDP ; std::_Vector_const_iterator<std::_Vector_val<QuestParent *,std::allocator<QuestParent *> > >::_Vector_const_iterator<std::_Vector_val<QuestParent *,std::allocator<QuestParent *> > >
_TEXT	ENDS
PUBLIC	?_Compat@?$_Vector_const_iterator@V?$_Vector_val@PAVQuestParent@@V?$allocator@PAVQuestParent@@@std@@@std@@@std@@QBEXABV12@@Z ; std::_Vector_const_iterator<std::_Vector_val<QuestParent *,std::allocator<QuestParent *> > >::_Compat
; Function compile flags: /Ogsp
;	COMDAT ?_Compat@?$_Vector_const_iterator@V?$_Vector_val@PAVQuestParent@@V?$allocator@PAVQuestParent@@@std@@@std@@@std@@QBEXABV12@@Z
_TEXT	SEGMENT
___formal$ = 8						; size = 4
?_Compat@?$_Vector_const_iterator@V?$_Vector_val@PAVQuestParent@@V?$allocator@PAVQuestParent@@@std@@@std@@@std@@QBEXABV12@@Z PROC ; std::_Vector_const_iterator<std::_Vector_val<QuestParent *,std::allocator<QuestParent *> > >::_Compat, COMDAT
; _this$ = ecx

; 253  : 		}

  00000	c2 04 00	 ret	 4
?_Compat@?$_Vector_const_iterator@V?$_Vector_val@PAVQuestParent@@V?$allocator@PAVQuestParent@@@std@@@std@@@std@@QBEXABV12@@Z ENDP ; std::_Vector_const_iterator<std::_Vector_val<QuestParent *,std::allocator<QuestParent *> > >::_Compat
_TEXT	ENDS
PUBLIC	??D?$_Tree_const_iterator@V?$_Tree_val@V?$_Tmap_traits@KUQuestHelpList@ioQuestManager@@U?$less@K@std@@V?$allocator@U?$pair@$$CBKUQuestHelpList@ioQuestManager@@@std@@@4@$0A@@std@@@std@@@std@@QBEABU?$pair@$$CBKUQuestHelpList@ioQuestManager@@@1@XZ ; std::_Tree_const_iterator<std::_Tree_val<std::_Tmap_traits<unsigned long,ioQuestManager::QuestHelpList,std::less<unsigned long>,std::allocator<std::pair<unsigned long const ,ioQuestManager::QuestHelpList> >,0> > >::operator*
; Function compile flags: /Ogsp
; File c:\program files (x86)\microsoft visual studio 10.0\vc\include\xtree
;	COMDAT ??D?$_Tree_const_iterator@V?$_Tree_val@V?$_Tmap_traits@KUQuestHelpList@ioQuestManager@@U?$less@K@std@@V?$allocator@U?$pair@$$CBKUQuestHelpList@ioQuestManager@@@std@@@4@$0A@@std@@@std@@@std@@QBEABU?$pair@$$CBKUQuestHelpList@ioQuestManager@@@1@XZ
_TEXT	SEGMENT
??D?$_Tree_const_iterator@V?$_Tree_val@V?$_Tmap_traits@KUQuestHelpList@ioQuestManager@@U?$less@K@std@@V?$allocator@U?$pair@$$CBKUQuestHelpList@ioQuestManager@@@std@@@4@$0A@@std@@@std@@@std@@QBEABU?$pair@$$CBKUQuestHelpList@ioQuestManager@@@1@XZ PROC ; std::_Tree_const_iterator<std::_Tree_val<std::_Tmap_traits<unsigned long,ioQuestManager::QuestHelpList,std::less<unsigned long>,std::allocator<std::pair<unsigned long const ,ioQuestManager::QuestHelpList> >,0> > >::operator*, COMDAT
; _this$ = ecx

; 231  :  #if _ITERATOR_DEBUG_LEVEL == 2
; 232  : 		if (this->_Getcont() == 0
; 233  : 			|| this->_Ptr == 0
; 234  : 			|| this->_Ptr == ((_Mytree *)this->_Getcont())->_Myhead)
; 235  : 			{	// report error
; 236  : 			_DEBUG_ERROR("map/set iterator not dereferencable");
; 237  : 			_SCL_SECURE_OUT_OF_RANGE;
; 238  : 			}
; 239  : 
; 240  :  #elif _ITERATOR_DEBUG_LEVEL == 1
; 241  : 		_SCL_SECURE_VALIDATE(this->_Getcont() != 0 && this->_Ptr != 0);
; 242  : 		_SCL_SECURE_VALIDATE_RANGE(this->_Ptr !=
; 243  : 			((_Mytree *)this->_Getcont())->_Myhead);
; 244  :  #endif /* _ITERATOR_DEBUG_LEVEL */
; 245  : 
; 246  : 		return (_Mytree::_Myval(this->_Ptr));

  00000	8b 01		 mov	 eax, DWORD PTR [ecx]
  00002	83 c0 0c	 add	 eax, 12			; 0000000cH

; 247  : 		}

  00005	c3		 ret	 0
??D?$_Tree_const_iterator@V?$_Tree_val@V?$_Tmap_traits@KUQuestHelpList@ioQuestManager@@U?$less@K@std@@V?$allocator@U?$pair@$$CBKUQuestHelpList@ioQuestManager@@@std@@@4@$0A@@std@@@std@@@std@@QBEABU?$pair@$$CBKUQuestHelpList@ioQuestManager@@@1@XZ ENDP ; std::_Tree_const_iterator<std::_Tree_val<std::_Tmap_traits<unsigned long,ioQuestManager::QuestHelpList,std::less<unsigned long>,std::allocator<std::pair<unsigned long const ,ioQuestManager::QuestHelpList> >,0> > >::operator*
_TEXT	ENDS
PUBLIC	??0?$_Vector_const_iterator@V?$_Vector_val@UCompleteReserve@ioQuestManager@@V?$allocator@UCompleteReserve@ioQuestManager@@@std@@@std@@@std@@QAE@PAUCompleteReserve@ioQuestManager@@PBU_Container_base0@1@@Z ; std::_Vector_const_iterator<std::_Vector_val<ioQuestManager::CompleteReserve,std::allocator<ioQuestManager::CompleteReserve> > >::_Vector_const_iterator<std::_Vector_val<ioQuestManager::CompleteReserve,std::allocator<ioQuestManager::CompleteReserve> > >
; Function compile flags: /Ogsp
; File c:\program files (x86)\microsoft visual studio 10.0\vc\include\vector
;	COMDAT ??0?$_Vector_const_iterator@V?$_Vector_val@UCompleteReserve@ioQuestManager@@V?$allocator@UCompleteReserve@ioQuestManager@@@std@@@std@@@std@@QAE@PAUCompleteReserve@ioQuestManager@@PBU_Container_base0@1@@Z
_TEXT	SEGMENT
__Parg$ = 8						; size = 4
__Pvector$ = 12						; size = 4
??0?$_Vector_const_iterator@V?$_Vector_val@UCompleteReserve@ioQuestManager@@V?$allocator@UCompleteReserve@ioQuestManager@@@std@@@std@@@std@@QAE@PAUCompleteReserve@ioQuestManager@@PBU_Container_base0@1@@Z PROC ; std::_Vector_const_iterator<std::_Vector_val<ioQuestManager::CompleteReserve,std::allocator<ioQuestManager::CompleteReserve> > >::_Vector_const_iterator<std::_Vector_val<ioQuestManager::CompleteReserve,std::allocator<ioQuestManager::CompleteReserve> > >, COMDAT
; _this$ = ecx

; 45   : 		{	// construct with pointer _Parg

  00000	55		 push	 ebp
  00001	8b ec		 mov	 ebp, esp
  00003	8b c1		 mov	 eax, ecx
  00005	8b 4d 08	 mov	 ecx, DWORD PTR __Parg$[ebp]
  00008	89 08		 mov	 DWORD PTR [eax], ecx

; 46   : 		this->_Adopt(_Pvector);
; 47   : 		}

  0000a	5d		 pop	 ebp
  0000b	c2 08 00	 ret	 8
??0?$_Vector_const_iterator@V?$_Vector_val@UCompleteReserve@ioQuestManager@@V?$allocator@UCompleteReserve@ioQuestManager@@@std@@@std@@@std@@QAE@PAUCompleteReserve@ioQuestManager@@PBU_Container_base0@1@@Z ENDP ; std::_Vector_const_iterator<std::_Vector_val<ioQuestManager::CompleteReserve,std::allocator<ioQuestManager::CompleteReserve> > >::_Vector_const_iterator<std::_Vector_val<ioQuestManager::CompleteReserve,std::allocator<ioQuestManager::CompleteReserve> > >
_TEXT	ENDS
PUBLIC	?_Compat@?$_Vector_const_iterator@V?$_Vector_val@UCompleteReserve@ioQuestManager@@V?$allocator@UCompleteReserve@ioQuestManager@@@std@@@std@@@std@@QBEXABV12@@Z ; std::_Vector_const_iterator<std::_Vector_val<ioQuestManager::CompleteReserve,std::allocator<ioQuestManager::CompleteReserve> > >::_Compat
; Function compile flags: /Ogsp
;	COMDAT ?_Compat@?$_Vector_const_iterator@V?$_Vector_val@UCompleteReserve@ioQuestManager@@V?$allocator@UCompleteReserve@ioQuestManager@@@std@@@std@@@std@@QBEXABV12@@Z
_TEXT	SEGMENT
___formal$ = 8						; size = 4
?_Compat@?$_Vector_const_iterator@V?$_Vector_val@UCompleteReserve@ioQuestManager@@V?$allocator@UCompleteReserve@ioQuestManager@@@std@@@std@@@std@@QBEXABV12@@Z PROC ; std::_Vector_const_iterator<std::_Vector_val<ioQuestManager::CompleteReserve,std::allocator<ioQuestManager::CompleteReserve> > >::_Compat, COMDAT
; _this$ = ecx

; 253  : 		}

  00000	c2 04 00	 ret	 4
?_Compat@?$_Vector_const_iterator@V?$_Vector_val@UCompleteReserve@ioQuestManager@@V?$allocator@UCompleteReserve@ioQuestManager@@@std@@@std@@@std@@QBEXABV12@@Z ENDP ; std::_Vector_const_iterator<std::_Vector_val<ioQuestManager::CompleteReserve,std::allocator<ioQuestManager::CompleteReserve> > >::_Compat
_TEXT	ENDS
PUBLIC	??D?$_Tree_const_iterator@V?$_Tree_val@V?$_Tmap_traits@KUQuestReward@ioQuestManager@@U?$less@K@std@@V?$allocator@U?$pair@$$CBKUQuestReward@ioQuestManager@@@std@@@4@$0A@@std@@@std@@@std@@QBEABU?$pair@$$CBKUQuestReward@ioQuestManager@@@1@XZ ; std::_Tree_const_iterator<std::_Tree_val<std::_Tmap_traits<unsigned long,ioQuestManager::QuestReward,std::less<unsigned long>,std::allocator<std::pair<unsigned long const ,ioQuestManager::QuestReward> >,0> > >::operator*
; Function compile flags: /Ogsp
; File c:\program files (x86)\microsoft visual studio 10.0\vc\include\xtree
;	COMDAT ??D?$_Tree_const_iterator@V?$_Tree_val@V?$_Tmap_traits@KUQuestReward@ioQuestManager@@U?$less@K@std@@V?$allocator@U?$pair@$$CBKUQuestReward@ioQuestManager@@@std@@@4@$0A@@std@@@std@@@std@@QBEABU?$pair@$$CBKUQuestReward@ioQuestManager@@@1@XZ
_TEXT	SEGMENT
??D?$_Tree_const_iterator@V?$_Tree_val@V?$_Tmap_traits@KUQuestReward@ioQuestManager@@U?$less@K@std@@V?$allocator@U?$pair@$$CBKUQuestReward@ioQuestManager@@@std@@@4@$0A@@std@@@std@@@std@@QBEABU?$pair@$$CBKUQuestReward@ioQuestManager@@@1@XZ PROC ; std::_Tree_const_iterator<std::_Tree_val<std::_Tmap_traits<unsigned long,ioQuestManager::QuestReward,std::less<unsigned long>,std::allocator<std::pair<unsigned long const ,ioQuestManager::QuestReward> >,0> > >::operator*, COMDAT
; _this$ = ecx

; 231  :  #if _ITERATOR_DEBUG_LEVEL == 2
; 232  : 		if (this->_Getcont() == 0
; 233  : 			|| this->_Ptr == 0
; 234  : 			|| this->_Ptr == ((_Mytree *)this->_Getcont())->_Myhead)
; 235  : 			{	// report error
; 236  : 			_DEBUG_ERROR("map/set iterator not dereferencable");
; 237  : 			_SCL_SECURE_OUT_OF_RANGE;
; 238  : 			}
; 239  : 
; 240  :  #elif _ITERATOR_DEBUG_LEVEL == 1
; 241  : 		_SCL_SECURE_VALIDATE(this->_Getcont() != 0 && this->_Ptr != 0);
; 242  : 		_SCL_SECURE_VALIDATE_RANGE(this->_Ptr !=
; 243  : 			((_Mytree *)this->_Getcont())->_Myhead);
; 244  :  #endif /* _ITERATOR_DEBUG_LEVEL */
; 245  : 
; 246  : 		return (_Mytree::_Myval(this->_Ptr));

  00000	8b 01		 mov	 eax, DWORD PTR [ecx]
  00002	83 c0 0c	 add	 eax, 12			; 0000000cH

; 247  : 		}

  00005	c3		 ret	 0
??D?$_Tree_const_iterator@V?$_Tree_val@V?$_Tmap_traits@KUQuestReward@ioQuestManager@@U?$less@K@std@@V?$allocator@U?$pair@$$CBKUQuestReward@ioQuestManager@@@std@@@4@$0A@@std@@@std@@@std@@QBEABU?$pair@$$CBKUQuestReward@ioQuestManager@@@1@XZ ENDP ; std::_Tree_const_iterator<std::_Tree_val<std::_Tmap_traits<unsigned long,ioQuestManager::QuestReward,std::less<unsigned long>,std::allocator<std::pair<unsigned long const ,ioQuestManager::QuestReward> >,0> > >::operator*
_TEXT	ENDS
PUBLIC	??0?$_Vector_const_iterator@V?$_Vector_val@UQuestDelAndFail@ioQuestManager@@V?$allocator@UQuestDelAndFail@ioQuestManager@@@std@@@std@@@std@@QAE@PAUQuestDelAndFail@ioQuestManager@@PBU_Container_base0@1@@Z ; std::_Vector_const_iterator<std::_Vector_val<ioQuestManager::QuestDelAndFail,std::allocator<ioQuestManager::QuestDelAndFail> > >::_Vector_const_iterator<std::_Vector_val<ioQuestManager::QuestDelAndFail,std::allocator<ioQuestManager::QuestDelAndFail> > >
; Function compile flags: /Ogsp
; File c:\program files (x86)\microsoft visual studio 10.0\vc\include\vector
;	COMDAT ??0?$_Vector_const_iterator@V?$_Vector_val@UQuestDelAndFail@ioQuestManager@@V?$allocator@UQuestDelAndFail@ioQuestManager@@@std@@@std@@@std@@QAE@PAUQuestDelAndFail@ioQuestManager@@PBU_Container_base0@1@@Z
_TEXT	SEGMENT
__Parg$ = 8						; size = 4
__Pvector$ = 12						; size = 4
??0?$_Vector_const_iterator@V?$_Vector_val@UQuestDelAndFail@ioQuestManager@@V?$allocator@UQuestDelAndFail@ioQuestManager@@@std@@@std@@@std@@QAE@PAUQuestDelAndFail@ioQuestManager@@PBU_Container_base0@1@@Z PROC ; std::_Vector_const_iterator<std::_Vector_val<ioQuestManager::QuestDelAndFail,std::allocator<ioQuestManager::QuestDelAndFail> > >::_Vector_const_iterator<std::_Vector_val<ioQuestManager::QuestDelAndFail,std::allocator<ioQuestManager::QuestDelAndFail> > >, COMDAT
; _this$ = ecx

; 45   : 		{	// construct with pointer _Parg

  00000	55		 push	 ebp
  00001	8b ec		 mov	 ebp, esp
  00003	8b c1		 mov	 eax, ecx
  00005	8b 4d 08	 mov	 ecx, DWORD PTR __Parg$[ebp]
  00008	89 08		 mov	 DWORD PTR [eax], ecx

; 46   : 		this->_Adopt(_Pvector);
; 47   : 		}

  0000a	5d		 pop	 ebp
  0000b	c2 08 00	 ret	 8
??0?$_Vector_const_iterator@V?$_Vector_val@UQuestDelAndFail@ioQuestManager@@V?$allocator@UQuestDelAndFail@ioQuestManager@@@std@@@std@@@std@@QAE@PAUQuestDelAndFail@ioQuestManager@@PBU_Container_base0@1@@Z ENDP ; std::_Vector_const_iterator<std::_Vector_val<ioQuestManager::QuestDelAndFail,std::allocator<ioQuestManager::QuestDelAndFail> > >::_Vector_const_iterator<std::_Vector_val<ioQuestManager::QuestDelAndFail,std::allocator<ioQuestManager::QuestDelAndFail> > >
_TEXT	ENDS
PUBLIC	?_Compat@?$_Vector_const_iterator@V?$_Vector_val@UQuestDelAndFail@ioQuestManager@@V?$allocator@UQuestDelAndFail@ioQuestManager@@@std@@@std@@@std@@QBEXABV12@@Z ; std::_Vector_const_iterator<std::_Vector_val<ioQuestManager::QuestDelAndFail,std::allocator<ioQuestManager::QuestDelAndFail> > >::_Compat
; Function compile flags: /Ogsp
;	COMDAT ?_Compat@?$_Vector_const_iterator@V?$_Vector_val@UQuestDelAndFail@ioQuestManager@@V?$allocator@UQuestDelAndFail@ioQuestManager@@@std@@@std@@@std@@QBEXABV12@@Z
_TEXT	SEGMENT
___formal$ = 8						; size = 4
?_Compat@?$_Vector_const_iterator@V?$_Vector_val@UQuestDelAndFail@ioQuestManager@@V?$allocator@UQuestDelAndFail@ioQuestManager@@@std@@@std@@@std@@QBEXABV12@@Z PROC ; std::_Vector_const_iterator<std::_Vector_val<ioQuestManager::QuestDelAndFail,std::allocator<ioQuestManager::QuestDelAndFail> > >::_Compat, COMDAT
; _this$ = ecx

; 253  : 		}

  00000	c2 04 00	 ret	 4
?_Compat@?$_Vector_const_iterator@V?$_Vector_val@UQuestDelAndFail@ioQuestManager@@V?$allocator@UQuestDelAndFail@ioQuestManager@@@std@@@std@@@std@@QBEXABV12@@Z ENDP ; std::_Vector_const_iterator<std::_Vector_val<ioQuestManager::QuestDelAndFail,std::allocator<ioQuestManager::QuestDelAndFail> > >::_Compat
_TEXT	ENDS
PUBLIC	?max_size@?$allocator@PAVQuestParent@@@std@@QBEIXZ ; std::allocator<QuestParent *>::max_size
; Function compile flags: /Ogsp
; File c:\program files (x86)\microsoft visual studio 10.0\vc\include\xmemory
;	COMDAT ?max_size@?$allocator@PAVQuestParent@@@std@@QBEIXZ
_TEXT	SEGMENT
?max_size@?$allocator@PAVQuestParent@@@std@@QBEIXZ PROC	; std::allocator<QuestParent *>::max_size, COMDAT
; _this$ = ecx

; 218  : 		_SIZT _Count = (_SIZT)(-1) / sizeof (_Ty);
; 219  : 		return (0 < _Count ? _Count : 1);

  00000	b8 ff ff ff 3f	 mov	 eax, 1073741823		; 3fffffffH

; 220  : 		}

  00005	c3		 ret	 0
?max_size@?$allocator@PAVQuestParent@@@std@@QBEIXZ ENDP	; std::allocator<QuestParent *>::max_size
_TEXT	ENDS
PUBLIC	?max_size@?$allocator@UQuestDelAndFail@ioQuestManager@@@std@@QBEIXZ ; std::allocator<ioQuestManager::QuestDelAndFail>::max_size
; Function compile flags: /Ogsp
;	COMDAT ?max_size@?$allocator@UQuestDelAndFail@ioQuestManager@@@std@@QBEIXZ
_TEXT	SEGMENT
?max_size@?$allocator@UQuestDelAndFail@ioQuestManager@@@std@@QBEIXZ PROC ; std::allocator<ioQuestManager::QuestDelAndFail>::max_size, COMDAT
; _this$ = ecx

; 218  : 		_SIZT _Count = (_SIZT)(-1) / sizeof (_Ty);
; 219  : 		return (0 < _Count ? _Count : 1);

  00000	b8 ff ff ff 1f	 mov	 eax, 536870911		; 1fffffffH

; 220  : 		}

  00005	c3		 ret	 0
?max_size@?$allocator@UQuestDelAndFail@ioQuestManager@@@std@@QBEIXZ ENDP ; std::allocator<ioQuestManager::QuestDelAndFail>::max_size
_TEXT	ENDS
PUBLIC	?_Color@?$_Tree_val@V?$_Tmap_traits@KUQuestReward@ioQuestManager@@U?$less@K@std@@V?$allocator@U?$pair@$$CBKUQuestReward@ioQuestManager@@@std@@@4@$0A@@std@@@std@@SAAADPAU_Node@?$_Tree_nod@V?$_Tmap_traits@KUQuestReward@ioQuestManager@@U?$less@K@std@@V?$allocator@U?$pair@$$CBKUQuestReward@ioQuestManager@@@std@@@4@$0A@@std@@@2@@Z ; std::_Tree_val<std::_Tmap_traits<unsigned long,ioQuestManager::QuestReward,std::less<unsigned long>,std::allocator<std::pair<unsigned long const ,ioQuestManager::QuestReward> >,0> >::_Color
; Function compile flags: /Ogsp
; File c:\program files (x86)\microsoft visual studio 10.0\vc\include\xtree
;	COMDAT ?_Color@?$_Tree_val@V?$_Tmap_traits@KUQuestReward@ioQuestManager@@U?$less@K@std@@V?$allocator@U?$pair@$$CBKUQuestReward@ioQuestManager@@@std@@@4@$0A@@std@@@std@@SAAADPAU_Node@?$_Tree_nod@V?$_Tmap_traits@KUQuestReward@ioQuestManager@@U?$less@K@std@@V?$allocator@U?$pair@$$CBKUQuestReward@ioQuestManager@@@std@@@4@$0A@@std@@@2@@Z
_TEXT	SEGMENT
__Pnode$ = 8						; size = 4
?_Color@?$_Tree_val@V?$_Tmap_traits@KUQuestReward@ioQuestManager@@U?$less@K@std@@V?$allocator@U?$pair@$$CBKUQuestReward@ioQuestManager@@@std@@@4@$0A@@std@@@std@@SAAADPAU_Node@?$_Tree_nod@V?$_Tmap_traits@KUQuestReward@ioQuestManager@@U?$less@K@std@@V?$allocator@U?$pair@$$CBKUQuestReward@ioQuestManager@@@std@@@4@$0A@@std@@@2@@Z PROC ; std::_Tree_val<std::_Tmap_traits<unsigned long,ioQuestManager::QuestReward,std::less<unsigned long>,std::allocator<std::pair<unsigned long const ,ioQuestManager::QuestReward> >,0> >::_Color, COMDAT

; 606  : 		{	// return reference to color in node

  00000	55		 push	 ebp
  00001	8b ec		 mov	 ebp, esp

; 607  : 		return ((char&)(*_Pnode)._Color);

  00003	8b 45 08	 mov	 eax, DWORD PTR __Pnode$[ebp]
  00006	83 c0 20	 add	 eax, 32			; 00000020H

; 608  : 		}

  00009	5d		 pop	 ebp
  0000a	c3		 ret	 0
?_Color@?$_Tree_val@V?$_Tmap_traits@KUQuestReward@ioQuestManager@@U?$less@K@std@@V?$allocator@U?$pair@$$CBKUQuestReward@ioQuestManager@@@std@@@4@$0A@@std@@@std@@SAAADPAU_Node@?$_Tree_nod@V?$_Tmap_traits@KUQuestReward@ioQuestManager@@U?$less@K@std@@V?$allocator@U?$pair@$$CBKUQuestReward@ioQuestManager@@@std@@@4@$0A@@std@@@2@@Z ENDP ; std::_Tree_val<std::_Tmap_traits<unsigned long,ioQuestManager::QuestReward,std::less<unsigned long>,std::allocator<std::pair<unsigned long const ,ioQuestManager::QuestReward> >,0> >::_Color
_TEXT	ENDS
PUBLIC	?max_size@?$allocator@PAUQuestHelp@ioQuestManager@@@std@@QBEIXZ ; std::allocator<ioQuestManager::QuestHelp *>::max_size
; Function compile flags: /Ogsp
; File c:\program files (x86)\microsoft visual studio 10.0\vc\include\xmemory
;	COMDAT ?max_size@?$allocator@PAUQuestHelp@ioQuestManager@@@std@@QBEIXZ
_TEXT	SEGMENT
?max_size@?$allocator@PAUQuestHelp@ioQuestManager@@@std@@QBEIXZ PROC ; std::allocator<ioQuestManager::QuestHelp *>::max_size, COMDAT
; _this$ = ecx

; 218  : 		_SIZT _Count = (_SIZT)(-1) / sizeof (_Ty);
; 219  : 		return (0 < _Count ? _Count : 1);

  00000	b8 ff ff ff 3f	 mov	 eax, 1073741823		; 3fffffffH

; 220  : 		}

  00005	c3		 ret	 0
?max_size@?$allocator@PAUQuestHelp@ioQuestManager@@@std@@QBEIXZ ENDP ; std::allocator<ioQuestManager::QuestHelp *>::max_size
_TEXT	ENDS
PUBLIC	?_Color@?$_Tree_val@V?$_Tmap_traits@KUQuestHelpList@ioQuestManager@@U?$less@K@std@@V?$allocator@U?$pair@$$CBKUQuestHelpList@ioQuestManager@@@std@@@4@$0A@@std@@@std@@SAAADPAU_Node@?$_Tree_nod@V?$_Tmap_traits@KUQuestHelpList@ioQuestManager@@U?$less@K@std@@V?$allocator@U?$pair@$$CBKUQuestHelpList@ioQuestManager@@@std@@@4@$0A@@std@@@2@@Z ; std::_Tree_val<std::_Tmap_traits<unsigned long,ioQuestManager::QuestHelpList,std::less<unsigned long>,std::allocator<std::pair<unsigned long const ,ioQuestManager::QuestHelpList> >,0> >::_Color
; Function compile flags: /Ogsp
; File c:\program files (x86)\microsoft visual studio 10.0\vc\include\xtree
;	COMDAT ?_Color@?$_Tree_val@V?$_Tmap_traits@KUQuestHelpList@ioQuestManager@@U?$less@K@std@@V?$allocator@U?$pair@$$CBKUQuestHelpList@ioQuestManager@@@std@@@4@$0A@@std@@@std@@SAAADPAU_Node@?$_Tree_nod@V?$_Tmap_traits@KUQuestHelpList@ioQuestManager@@U?$less@K@std@@V?$allocator@U?$pair@$$CBKUQuestHelpList@ioQuestManager@@@std@@@4@$0A@@std@@@2@@Z
_TEXT	SEGMENT
__Pnode$ = 8						; size = 4
?_Color@?$_Tree_val@V?$_Tmap_traits@KUQuestHelpList@ioQuestManager@@U?$less@K@std@@V?$allocator@U?$pair@$$CBKUQuestHelpList@ioQuestManager@@@std@@@4@$0A@@std@@@std@@SAAADPAU_Node@?$_Tree_nod@V?$_Tmap_traits@KUQuestHelpList@ioQuestManager@@U?$less@K@std@@V?$allocator@U?$pair@$$CBKUQuestHelpList@ioQuestManager@@@std@@@4@$0A@@std@@@2@@Z PROC ; std::_Tree_val<std::_Tmap_traits<unsigned long,ioQuestManager::QuestHelpList,std::less<unsigned long>,std::allocator<std::pair<unsigned long const ,ioQuestManager::QuestHelpList> >,0> >::_Color, COMDAT

; 606  : 		{	// return reference to color in node

  00000	55		 push	 ebp
  00001	8b ec		 mov	 ebp, esp

; 607  : 		return ((char&)(*_Pnode)._Color);

  00003	8b 45 08	 mov	 eax, DWORD PTR __Pnode$[ebp]
  00006	83 c0 20	 add	 eax, 32			; 00000020H

; 608  : 		}

  00009	5d		 pop	 ebp
  0000a	c3		 ret	 0
?_Color@?$_Tree_val@V?$_Tmap_traits@KUQuestHelpList@ioQuestManager@@U?$less@K@std@@V?$allocator@U?$pair@$$CBKUQuestHelpList@ioQuestManager@@@std@@@4@$0A@@std@@@std@@SAAADPAU_Node@?$_Tree_nod@V?$_Tmap_traits@KUQuestHelpList@ioQuestManager@@U?$less@K@std@@V?$allocator@U?$pair@$$CBKUQuestHelpList@ioQuestManager@@@std@@@4@$0A@@std@@@2@@Z ENDP ; std::_Tree_val<std::_Tmap_traits<unsigned long,ioQuestManager::QuestHelpList,std::less<unsigned long>,std::allocator<std::pair<unsigned long const ,ioQuestManager::QuestHelpList> >,0> >::_Color
_TEXT	ENDS
PUBLIC	?_Min@?$_Tree_val@V?$_Tmap_traits@KUQuestHelpList@ioQuestManager@@U?$less@K@std@@V?$allocator@U?$pair@$$CBKUQuestHelpList@ioQuestManager@@@std@@@4@$0A@@std@@@std@@SAPAU_Node@?$_Tree_nod@V?$_Tmap_traits@KUQuestHelpList@ioQuestManager@@U?$less@K@std@@V?$allocator@U?$pair@$$CBKUQuestHelpList@ioQuestManager@@@std@@@4@$0A@@std@@@2@PAU342@@Z ; std::_Tree_val<std::_Tmap_traits<unsigned long,ioQuestManager::QuestHelpList,std::less<unsigned long>,std::allocator<std::pair<unsigned long const ,ioQuestManager::QuestHelpList> >,0> >::_Min
; Function compile flags: /Ogsp
;	COMDAT ?_Min@?$_Tree_val@V?$_Tmap_traits@KUQuestHelpList@ioQuestManager@@U?$less@K@std@@V?$allocator@U?$pair@$$CBKUQuestHelpList@ioQuestManager@@@std@@@4@$0A@@std@@@std@@SAPAU_Node@?$_Tree_nod@V?$_Tmap_traits@KUQuestHelpList@ioQuestManager@@U?$less@K@std@@V?$allocator@U?$pair@$$CBKUQuestHelpList@ioQuestManager@@@std@@@4@$0A@@std@@@2@PAU342@@Z
_TEXT	SEGMENT
__Pnode$ = 8						; size = 4
?_Min@?$_Tree_val@V?$_Tmap_traits@KUQuestHelpList@ioQuestManager@@U?$less@K@std@@V?$allocator@U?$pair@$$CBKUQuestHelpList@ioQuestManager@@@std@@@4@$0A@@std@@@std@@SAPAU_Node@?$_Tree_nod@V?$_Tmap_traits@KUQuestHelpList@ioQuestManager@@U?$less@K@std@@V?$allocator@U?$pair@$$CBKUQuestHelpList@ioQuestManager@@@std@@@4@$0A@@std@@@2@PAU342@@Z PROC ; std::_Tree_val<std::_Tmap_traits<unsigned long,ioQuestManager::QuestHelpList,std::less<unsigned long>,std::allocator<std::pair<unsigned long const ,ioQuestManager::QuestHelpList> >,0> >::_Min, COMDAT

; 648  : 		{	// return leftmost node in subtree at _Pnode

  00000	55		 push	 ebp
  00001	8b ec		 mov	 ebp, esp

; 649  : 		while (!_Isnil(_Left(_Pnode)))

  00003	8b 45 08	 mov	 eax, DWORD PTR __Pnode$[ebp]
  00006	eb 02		 jmp	 SHORT $LN14@Min
$LL2@Min:

; 650  : 			_Pnode = _Left(_Pnode);

  00008	8b c1		 mov	 eax, ecx
$LN14@Min:

; 649  : 		while (!_Isnil(_Left(_Pnode)))

  0000a	8b 08		 mov	 ecx, DWORD PTR [eax]
  0000c	80 79 21 00	 cmp	 BYTE PTR [ecx+33], 0
  00010	74 f6		 je	 SHORT $LL2@Min

; 651  : 		return (_Pnode);
; 652  : 		}

  00012	5d		 pop	 ebp
  00013	c3		 ret	 0
?_Min@?$_Tree_val@V?$_Tmap_traits@KUQuestHelpList@ioQuestManager@@U?$less@K@std@@V?$allocator@U?$pair@$$CBKUQuestHelpList@ioQuestManager@@@std@@@4@$0A@@std@@@std@@SAPAU_Node@?$_Tree_nod@V?$_Tmap_traits@KUQuestHelpList@ioQuestManager@@U?$less@K@std@@V?$allocator@U?$pair@$$CBKUQuestHelpList@ioQuestManager@@@std@@@4@$0A@@std@@@2@PAU342@@Z ENDP ; std::_Tree_val<std::_Tmap_traits<unsigned long,ioQuestManager::QuestHelpList,std::less<unsigned long>,std::allocator<std::pair<unsigned long const ,ioQuestManager::QuestHelpList> >,0> >::_Min
_TEXT	ENDS
PUBLIC	?max_size@?$allocator@UCompleteReserve@ioQuestManager@@@std@@QBEIXZ ; std::allocator<ioQuestManager::CompleteReserve>::max_size
; Function compile flags: /Ogsp
; File c:\program files (x86)\microsoft visual studio 10.0\vc\include\xmemory
;	COMDAT ?max_size@?$allocator@UCompleteReserve@ioQuestManager@@@std@@QBEIXZ
_TEXT	SEGMENT
?max_size@?$allocator@UCompleteReserve@ioQuestManager@@@std@@QBEIXZ PROC ; std::allocator<ioQuestManager::CompleteReserve>::max_size, COMDAT
; _this$ = ecx

; 218  : 		_SIZT _Count = (_SIZT)(-1) / sizeof (_Ty);
; 219  : 		return (0 < _Count ? _Count : 1);

  00000	b8 ff ff ff 0f	 mov	 eax, 268435455		; 0fffffffH

; 220  : 		}

  00005	c3		 ret	 0
?max_size@?$allocator@UCompleteReserve@ioQuestManager@@@std@@QBEIXZ ENDP ; std::allocator<ioQuestManager::CompleteReserve>::max_size
_TEXT	ENDS
PUBLIC	??0?$_Tree_unchecked_const_iterator@V?$_Tree_val@V?$_Tmap_traits@KUQuestHelpList@ioQuestManager@@U?$less@K@std@@V?$allocator@U?$pair@$$CBKUQuestHelpList@ioQuestManager@@@std@@@4@$0A@@std@@@std@@U_Iterator_base0@2@@std@@QAE@PAU_Node@?$_Tree_nod@V?$_Tmap_traits@KUQuestHelpList@ioQuestManager@@U?$less@K@std@@V?$allocator@U?$pair@$$CBKUQuestHelpList@ioQuestManager@@@std@@@4@$0A@@std@@@1@PBV?$_Tree_val@V?$_Tmap_traits@KUQuestHelpList@ioQuestManager@@U?$less@K@std@@V?$allocator@U?$pair@$$CBKUQuestHelpList@ioQuestManager@@@std@@@4@$0A@@std@@@1@@Z ; std::_Tree_unchecked_const_iterator<std::_Tree_val<std::_Tmap_traits<unsigned long,ioQuestManager::QuestHelpList,std::less<unsigned long>,std::allocator<std::pair<unsigned long const ,ioQuestManager::QuestHelpList> >,0> >,std::_Iterator_base0>::_Tree_unchecked_const_iterator<std::_Tree_val<std::_Tmap_traits<unsigned long,ioQuestManager::QuestHelpList,std::less<unsigned long>,std::allocator<std::pair<unsigned long const ,ioQuestManager::QuestHelpList> >,0> >,std::_Iterator_base0>
; Function compile flags: /Ogsp
; File c:\program files (x86)\microsoft visual studio 10.0\vc\include\xtree
;	COMDAT ??0?$_Tree_unchecked_const_iterator@V?$_Tree_val@V?$_Tmap_traits@KUQuestHelpList@ioQuestManager@@U?$less@K@std@@V?$allocator@U?$pair@$$CBKUQuestHelpList@ioQuestManager@@@std@@@4@$0A@@std@@@std@@U_Iterator_base0@2@@std@@QAE@PAU_Node@?$_Tree_nod@V?$_Tmap_traits@KUQuestHelpList@ioQuestManager@@U?$less@K@std@@V?$allocator@U?$pair@$$CBKUQuestHelpList@ioQuestManager@@@std@@@4@$0A@@std@@@1@PBV?$_Tree_val@V?$_Tmap_traits@KUQuestHelpList@ioQuestManager@@U?$less@K@std@@V?$allocator@U?$pair@$$CBKUQuestHelpList@ioQuestManager@@@std@@@4@$0A@@std@@@1@@Z
_TEXT	SEGMENT
__Pnode$ = 8						; size = 4
__Plist$ = 12						; size = 4
??0?$_Tree_unchecked_const_iterator@V?$_Tree_val@V?$_Tmap_traits@KUQuestHelpList@ioQuestManager@@U?$less@K@std@@V?$allocator@U?$pair@$$CBKUQuestHelpList@ioQuestManager@@@std@@@4@$0A@@std@@@std@@U_Iterator_base0@2@@std@@QAE@PAU_Node@?$_Tree_nod@V?$_Tmap_traits@KUQuestHelpList@ioQuestManager@@U?$less@K@std@@V?$allocator@U?$pair@$$CBKUQuestHelpList@ioQuestManager@@@std@@@4@$0A@@std@@@1@PBV?$_Tree_val@V?$_Tmap_traits@KUQuestHelpList@ioQuestManager@@U?$less@K@std@@V?$allocator@U?$pair@$$CBKUQuestHelpList@ioQuestManager@@@std@@@4@$0A@@std@@@1@@Z PROC ; std::_Tree_unchecked_const_iterator<std::_Tree_val<std::_Tmap_traits<unsigned long,ioQuestManager::QuestHelpList,std::less<unsigned long>,std::allocator<std::pair<unsigned long const ,ioQuestManager::QuestHelpList> >,0> >,std::_Iterator_base0>::_Tree_unchecked_const_iterator<std::_Tree_val<std::_Tmap_traits<unsigned long,ioQuestManager::QuestHelpList,std::less<unsigned long>,std::allocator<std::pair<unsigned long const ,ioQuestManager::QuestHelpList> >,0> >,std::_Iterator_base0>, COMDAT
; _this$ = ecx

; 43   : 		{	// construct with node pointer _Pnode

  00000	55		 push	 ebp
  00001	8b ec		 mov	 ebp, esp
  00003	8b c1		 mov	 eax, ecx
  00005	8b 4d 08	 mov	 ecx, DWORD PTR __Pnode$[ebp]
  00008	89 08		 mov	 DWORD PTR [eax], ecx

; 44   : 		this->_Adopt(_Plist);
; 45   : 		}

  0000a	5d		 pop	 ebp
  0000b	c2 08 00	 ret	 8
??0?$_Tree_unchecked_const_iterator@V?$_Tree_val@V?$_Tmap_traits@KUQuestHelpList@ioQuestManager@@U?$less@K@std@@V?$allocator@U?$pair@$$CBKUQuestHelpList@ioQuestManager@@@std@@@4@$0A@@std@@@std@@U_Iterator_base0@2@@std@@QAE@PAU_Node@?$_Tree_nod@V?$_Tmap_traits@KUQuestHelpList@ioQuestManager@@U?$less@K@std@@V?$allocator@U?$pair@$$CBKUQuestHelpList@ioQuestManager@@@std@@@4@$0A@@std@@@1@PBV?$_Tree_val@V?$_Tmap_traits@KUQuestHelpList@ioQuestManager@@U?$less@K@std@@V?$allocator@U?$pair@$$CBKUQuestHelpList@ioQuestManager@@@std@@@4@$0A@@std@@@1@@Z ENDP ; std::_Tree_unchecked_const_iterator<std::_Tree_val<std::_Tmap_traits<unsigned long,ioQuestManager::QuestHelpList,std::less<unsigned long>,std::allocator<std::pair<unsigned long const ,ioQuestManager::QuestHelpList> >,0> >,std::_Iterator_base0>::_Tree_unchecked_const_iterator<std::_Tree_val<std::_Tmap_traits<unsigned long,ioQuestManager::QuestHelpList,std::less<unsigned long>,std::allocator<std::pair<unsigned long const ,ioQuestManager::QuestHelpList> >,0> >,std::_Iterator_base0>
_TEXT	ENDS
PUBLIC	??Y?$_Vector_const_iterator@V?$_Vector_val@UCompleteReserve@ioQuestManager@@V?$allocator@UCompleteReserve@ioQuestManager@@@std@@@std@@@std@@QAEAAV01@H@Z ; std::_Vector_const_iterator<std::_Vector_val<ioQuestManager::CompleteReserve,std::allocator<ioQuestManager::CompleteReserve> > >::operator+=
; Function compile flags: /Ogsp
; File c:\program files (x86)\microsoft visual studio 10.0\vc\include\vector
;	COMDAT ??Y?$_Vector_const_iterator@V?$_Vector_val@UCompleteReserve@ioQuestManager@@V?$allocator@UCompleteReserve@ioQuestManager@@@std@@@std@@@std@@QAEAAV01@H@Z
_TEXT	SEGMENT
__Off$ = 8						; size = 4
??Y?$_Vector_const_iterator@V?$_Vector_val@UCompleteReserve@ioQuestManager@@V?$allocator@UCompleteReserve@ioQuestManager@@@std@@@std@@@std@@QAEAAV01@H@Z PROC ; std::_Vector_const_iterator<std::_Vector_val<ioQuestManager::CompleteReserve,std::allocator<ioQuestManager::CompleteReserve> > >::operator+=, COMDAT
; _this$ = ecx

; 151  : 		{	// increment by integer

  00000	55		 push	 ebp
  00001	8b ec		 mov	 ebp, esp
  00003	8b c1		 mov	 eax, ecx

; 152  :  #if _ITERATOR_DEBUG_LEVEL == 2
; 153  : 		if (this->_Getcont() == 0
; 154  : 			|| this->_Ptr + _Off < ((_Myvec *)this->_Getcont())->_Myfirst
; 155  : 			|| ((_Myvec *)this->_Getcont())->_Mylast < this->_Ptr + _Off)
; 156  : 			{	// report error
; 157  : 			_DEBUG_ERROR("vector iterator + offset out of range");
; 158  : 			_SCL_SECURE_OUT_OF_RANGE;
; 159  : 			}
; 160  : 
; 161  :  #elif _ITERATOR_DEBUG_LEVEL == 1
; 162  : 		_SCL_SECURE_VALIDATE(this->_Getcont() != 0);
; 163  : 		_SCL_SECURE_VALIDATE_RANGE(
; 164  : 			((_Myvec *)this->_Getcont())->_Myfirst <= this->_Ptr + _Off
; 165  : 			&& this->_Ptr + _Off <= ((_Myvec *)this->_Getcont())->_Mylast);
; 166  :  #endif /* _ITERATOR_DEBUG_LEVEL */
; 167  : 
; 168  : 		_Ptr += _Off;

  00005	8b 4d 08	 mov	 ecx, DWORD PTR __Off$[ebp]
  00008	c1 e1 04	 shl	 ecx, 4
  0000b	01 08		 add	 DWORD PTR [eax], ecx

; 169  : 		return (*this);
; 170  : 		}

  0000d	5d		 pop	 ebp
  0000e	c2 04 00	 ret	 4
??Y?$_Vector_const_iterator@V?$_Vector_val@UCompleteReserve@ioQuestManager@@V?$allocator@UCompleteReserve@ioQuestManager@@@std@@@std@@@std@@QAEAAV01@H@Z ENDP ; std::_Vector_const_iterator<std::_Vector_val<ioQuestManager::CompleteReserve,std::allocator<ioQuestManager::CompleteReserve> > >::operator+=
_TEXT	ENDS
PUBLIC	??0?$_Tree_unchecked_const_iterator@V?$_Tree_val@V?$_Tmap_traits@KUQuestReward@ioQuestManager@@U?$less@K@std@@V?$allocator@U?$pair@$$CBKUQuestReward@ioQuestManager@@@std@@@4@$0A@@std@@@std@@U_Iterator_base0@2@@std@@QAE@PAU_Node@?$_Tree_nod@V?$_Tmap_traits@KUQuestReward@ioQuestManager@@U?$less@K@std@@V?$allocator@U?$pair@$$CBKUQuestReward@ioQuestManager@@@std@@@4@$0A@@std@@@1@PBV?$_Tree_val@V?$_Tmap_traits@KUQuestReward@ioQuestManager@@U?$less@K@std@@V?$allocator@U?$pair@$$CBKUQuestReward@ioQuestManager@@@std@@@4@$0A@@std@@@1@@Z ; std::_Tree_unchecked_const_iterator<std::_Tree_val<std::_Tmap_traits<unsigned long,ioQuestManager::QuestReward,std::less<unsigned long>,std::allocator<std::pair<unsigned long const ,ioQuestManager::QuestReward> >,0> >,std::_Iterator_base0>::_Tree_unchecked_const_iterator<std::_Tree_val<std::_Tmap_traits<unsigned long,ioQuestManager::QuestReward,std::less<unsigned long>,std::allocator<std::pair<unsigned long const ,ioQuestManager::QuestReward> >,0> >,std::_Iterator_base0>
; Function compile flags: /Ogsp
; File c:\program files (x86)\microsoft visual studio 10.0\vc\include\xtree
;	COMDAT ??0?$_Tree_unchecked_const_iterator@V?$_Tree_val@V?$_Tmap_traits@KUQuestReward@ioQuestManager@@U?$less@K@std@@V?$allocator@U?$pair@$$CBKUQuestReward@ioQuestManager@@@std@@@4@$0A@@std@@@std@@U_Iterator_base0@2@@std@@QAE@PAU_Node@?$_Tree_nod@V?$_Tmap_traits@KUQuestReward@ioQuestManager@@U?$less@K@std@@V?$allocator@U?$pair@$$CBKUQuestReward@ioQuestManager@@@std@@@4@$0A@@std@@@1@PBV?$_Tree_val@V?$_Tmap_traits@KUQuestReward@ioQuestManager@@U?$less@K@std@@V?$allocator@U?$pair@$$CBKUQuestReward@ioQuestManager@@@std@@@4@$0A@@std@@@1@@Z
_TEXT	SEGMENT
__Pnode$ = 8						; size = 4
__Plist$ = 12						; size = 4
??0?$_Tree_unchecked_const_iterator@V?$_Tree_val@V?$_Tmap_traits@KUQuestReward@ioQuestManager@@U?$less@K@std@@V?$allocator@U?$pair@$$CBKUQuestReward@ioQuestManager@@@std@@@4@$0A@@std@@@std@@U_Iterator_base0@2@@std@@QAE@PAU_Node@?$_Tree_nod@V?$_Tmap_traits@KUQuestReward@ioQuestManager@@U?$less@K@std@@V?$allocator@U?$pair@$$CBKUQuestReward@ioQuestManager@@@std@@@4@$0A@@std@@@1@PBV?$_Tree_val@V?$_Tmap_traits@KUQuestReward@ioQuestManager@@U?$less@K@std@@V?$allocator@U?$pair@$$CBKUQuestReward@ioQuestManager@@@std@@@4@$0A@@std@@@1@@Z PROC ; std::_Tree_unchecked_const_iterator<std::_Tree_val<std::_Tmap_traits<unsigned long,ioQuestManager::QuestReward,std::less<unsigned long>,std::allocator<std::pair<unsigned long const ,ioQuestManager::QuestReward> >,0> >,std::_Iterator_base0>::_Tree_unchecked_const_iterator<std::_Tree_val<std::_Tmap_traits<unsigned long,ioQuestManager::QuestReward,std::less<unsigned long>,std::allocator<std::pair<unsigned long const ,ioQuestManager::QuestReward> >,0> >,std::_Iterator_base0>, COMDAT
; _this$ = ecx

; 43   : 		{	// construct with node pointer _Pnode

  00000	55		 push	 ebp
  00001	8b ec		 mov	 ebp, esp
  00003	8b c1		 mov	 eax, ecx
  00005	8b 4d 08	 mov	 ecx, DWORD PTR __Pnode$[ebp]
  00008	89 08		 mov	 DWORD PTR [eax], ecx

; 44   : 		this->_Adopt(_Plist);
; 45   : 		}

  0000a	5d		 pop	 ebp
  0000b	c2 08 00	 ret	 8
??0?$_Tree_unchecked_const_iterator@V?$_Tree_val@V?$_Tmap_traits@KUQuestReward@ioQuestManager@@U?$less@K@std@@V?$allocator@U?$pair@$$CBKUQuestReward@ioQuestManager@@@std@@@4@$0A@@std@@@std@@U_Iterator_base0@2@@std@@QAE@PAU_Node@?$_Tree_nod@V?$_Tmap_traits@KUQuestReward@ioQuestManager@@U?$less@K@std@@V?$allocator@U?$pair@$$CBKUQuestReward@ioQuestManager@@@std@@@4@$0A@@std@@@1@PBV?$_Tree_val@V?$_Tmap_traits@KUQuestReward@ioQuestManager@@U?$less@K@std@@V?$allocator@U?$pair@$$CBKUQuestReward@ioQuestManager@@@std@@@4@$0A@@std@@@1@@Z ENDP ; std::_Tree_unchecked_const_iterator<std::_Tree_val<std::_Tmap_traits<unsigned long,ioQuestManager::QuestReward,std::less<unsigned long>,std::allocator<std::pair<unsigned long const ,ioQuestManager::QuestReward> >,0> >,std::_Iterator_base0>::_Tree_unchecked_const_iterator<std::_Tree_val<std::_Tmap_traits<unsigned long,ioQuestManager::QuestReward,std::less<unsigned long>,std::allocator<std::pair<unsigned long const ,ioQuestManager::QuestReward> >,0> >,std::_Iterator_base0>
_TEXT	ENDS
PUBLIC	?_Max@?$_Tree_val@V?$_Tmap_traits@KUQuestReward@ioQuestManager@@U?$less@K@std@@V?$allocator@U?$pair@$$CBKUQuestReward@ioQuestManager@@@std@@@4@$0A@@std@@@std@@SAPAU_Node@?$_Tree_nod@V?$_Tmap_traits@KUQuestReward@ioQuestManager@@U?$less@K@std@@V?$allocator@U?$pair@$$CBKUQuestReward@ioQuestManager@@@std@@@4@$0A@@std@@@2@PAU342@@Z ; std::_Tree_val<std::_Tmap_traits<unsigned long,ioQuestManager::QuestReward,std::less<unsigned long>,std::allocator<std::pair<unsigned long const ,ioQuestManager::QuestReward> >,0> >::_Max
; Function compile flags: /Ogsp
;	COMDAT ?_Max@?$_Tree_val@V?$_Tmap_traits@KUQuestReward@ioQuestManager@@U?$less@K@std@@V?$allocator@U?$pair@$$CBKUQuestReward@ioQuestManager@@@std@@@4@$0A@@std@@@std@@SAPAU_Node@?$_Tree_nod@V?$_Tmap_traits@KUQuestReward@ioQuestManager@@U?$less@K@std@@V?$allocator@U?$pair@$$CBKUQuestReward@ioQuestManager@@@std@@@4@$0A@@std@@@2@PAU342@@Z
_TEXT	SEGMENT
__Pnode$ = 8						; size = 4
?_Max@?$_Tree_val@V?$_Tmap_traits@KUQuestReward@ioQuestManager@@U?$less@K@std@@V?$allocator@U?$pair@$$CBKUQuestReward@ioQuestManager@@@std@@@4@$0A@@std@@@std@@SAPAU_Node@?$_Tree_nod@V?$_Tmap_traits@KUQuestReward@ioQuestManager@@U?$less@K@std@@V?$allocator@U?$pair@$$CBKUQuestReward@ioQuestManager@@@std@@@4@$0A@@std@@@2@PAU342@@Z PROC ; std::_Tree_val<std::_Tmap_traits<unsigned long,ioQuestManager::QuestReward,std::less<unsigned long>,std::allocator<std::pair<unsigned long const ,ioQuestManager::QuestReward> >,0> >::_Max, COMDAT

; 641  : 		{	// return rightmost node in subtree at _Pnode

  00000	55		 push	 ebp
  00001	8b ec		 mov	 ebp, esp

; 642  : 		while (!_Isnil(_Right(_Pnode)))

  00003	8b 45 08	 mov	 eax, DWORD PTR __Pnode$[ebp]
  00006	eb 02		 jmp	 SHORT $LN14@Max
$LL2@Max:

; 643  : 			_Pnode = _Right(_Pnode);

  00008	8b c1		 mov	 eax, ecx
$LN14@Max:

; 642  : 		while (!_Isnil(_Right(_Pnode)))

  0000a	8b 48 08	 mov	 ecx, DWORD PTR [eax+8]
  0000d	80 79 21 00	 cmp	 BYTE PTR [ecx+33], 0
  00011	74 f5		 je	 SHORT $LL2@Max

; 644  : 		return (_Pnode);
; 645  : 		}

  00013	5d		 pop	 ebp
  00014	c3		 ret	 0
?_Max@?$_Tree_val@V?$_Tmap_traits@KUQuestReward@ioQuestManager@@U?$less@K@std@@V?$allocator@U?$pair@$$CBKUQuestReward@ioQuestManager@@@std@@@4@$0A@@std@@@std@@SAPAU_Node@?$_Tree_nod@V?$_Tmap_traits@KUQuestReward@ioQuestManager@@U?$less@K@std@@V?$allocator@U?$pair@$$CBKUQuestReward@ioQuestManager@@@std@@@4@$0A@@std@@@2@PAU342@@Z ENDP ; std::_Tree_val<std::_Tmap_traits<unsigned long,ioQuestManager::QuestReward,std::less<unsigned long>,std::allocator<std::pair<unsigned long const ,ioQuestManager::QuestReward> >,0> >::_Max
_TEXT	ENDS
PUBLIC	?_Min@?$_Tree_val@V?$_Tmap_traits@KUQuestReward@ioQuestManager@@U?$less@K@std@@V?$allocator@U?$pair@$$CBKUQuestReward@ioQuestManager@@@std@@@4@$0A@@std@@@std@@SAPAU_Node@?$_Tree_nod@V?$_Tmap_traits@KUQuestReward@ioQuestManager@@U?$less@K@std@@V?$allocator@U?$pair@$$CBKUQuestReward@ioQuestManager@@@std@@@4@$0A@@std@@@2@PAU342@@Z ; std::_Tree_val<std::_Tmap_traits<unsigned long,ioQuestManager::QuestReward,std::less<unsigned long>,std::allocator<std::pair<unsigned long const ,ioQuestManager::QuestReward> >,0> >::_Min
; Function compile flags: /Ogsp
;	COMDAT ?_Min@?$_Tree_val@V?$_Tmap_traits@KUQuestReward@ioQuestManager@@U?$less@K@std@@V?$allocator@U?$pair@$$CBKUQuestReward@ioQuestManager@@@std@@@4@$0A@@std@@@std@@SAPAU_Node@?$_Tree_nod@V?$_Tmap_traits@KUQuestReward@ioQuestManager@@U?$less@K@std@@V?$allocator@U?$pair@$$CBKUQuestReward@ioQuestManager@@@std@@@4@$0A@@std@@@2@PAU342@@Z
_TEXT	SEGMENT
__Pnode$ = 8						; size = 4
?_Min@?$_Tree_val@V?$_Tmap_traits@KUQuestReward@ioQuestManager@@U?$less@K@std@@V?$allocator@U?$pair@$$CBKUQuestReward@ioQuestManager@@@std@@@4@$0A@@std@@@std@@SAPAU_Node@?$_Tree_nod@V?$_Tmap_traits@KUQuestReward@ioQuestManager@@U?$less@K@std@@V?$allocator@U?$pair@$$CBKUQuestReward@ioQuestManager@@@std@@@4@$0A@@std@@@2@PAU342@@Z PROC ; std::_Tree_val<std::_Tmap_traits<unsigned long,ioQuestManager::QuestReward,std::less<unsigned long>,std::allocator<std::pair<unsigned long const ,ioQuestManager::QuestReward> >,0> >::_Min, COMDAT

; 648  : 		{	// return leftmost node in subtree at _Pnode

  00000	55		 push	 ebp
  00001	8b ec		 mov	 ebp, esp

; 649  : 		while (!_Isnil(_Left(_Pnode)))

  00003	8b 45 08	 mov	 eax, DWORD PTR __Pnode$[ebp]
  00006	eb 02		 jmp	 SHORT $LN14@Min@2
$LL2@Min@2:

; 650  : 			_Pnode = _Left(_Pnode);

  00008	8b c1		 mov	 eax, ecx
$LN14@Min@2:

; 649  : 		while (!_Isnil(_Left(_Pnode)))

  0000a	8b 08		 mov	 ecx, DWORD PTR [eax]
  0000c	80 79 21 00	 cmp	 BYTE PTR [ecx+33], 0
  00010	74 f6		 je	 SHORT $LL2@Min@2

; 651  : 		return (_Pnode);
; 652  : 		}

  00012	5d		 pop	 ebp
  00013	c3		 ret	 0
?_Min@?$_Tree_val@V?$_Tmap_traits@KUQuestReward@ioQuestManager@@U?$less@K@std@@V?$allocator@U?$pair@$$CBKUQuestReward@ioQuestManager@@@std@@@4@$0A@@std@@@std@@SAPAU_Node@?$_Tree_nod@V?$_Tmap_traits@KUQuestReward@ioQuestManager@@U?$less@K@std@@V?$allocator@U?$pair@$$CBKUQuestReward@ioQuestManager@@@std@@@4@$0A@@std@@@2@PAU342@@Z ENDP ; std::_Tree_val<std::_Tmap_traits<unsigned long,ioQuestManager::QuestReward,std::less<unsigned long>,std::allocator<std::pair<unsigned long const ,ioQuestManager::QuestReward> >,0> >::_Min
_TEXT	ENDS
PUBLIC	??0?$_Tmap_traits@KUQuestReward@ioQuestManager@@U?$less@K@std@@V?$allocator@U?$pair@$$CBKUQuestReward@ioQuestManager@@@std@@@4@$0A@@std@@QAE@U?$less@K@1@@Z ; std::_Tmap_traits<unsigned long,ioQuestManager::QuestReward,std::less<unsigned long>,std::allocator<std::pair<unsigned long const ,ioQuestManager::QuestReward> >,0>::_Tmap_traits<unsigned long,ioQuestManager::QuestReward,std::less<unsigned long>,std::allocator<std::pair<unsigned long const ,ioQuestManager::QuestReward> >,0>
; Function compile flags: /Ogsp
; File c:\program files (x86)\microsoft visual studio 10.0\vc\include\map
;	COMDAT ??0?$_Tmap_traits@KUQuestReward@ioQuestManager@@U?$less@K@std@@V?$allocator@U?$pair@$$CBKUQuestReward@ioQuestManager@@@std@@@4@$0A@@std@@QAE@U?$less@K@1@@Z
_TEXT	SEGMENT
__Parg$ = 8						; size = 1
??0?$_Tmap_traits@KUQuestReward@ioQuestManager@@U?$less@K@std@@V?$allocator@U?$pair@$$CBKUQuestReward@ioQuestManager@@@std@@@4@$0A@@std@@QAE@U?$less@K@1@@Z PROC ; std::_Tmap_traits<unsigned long,ioQuestManager::QuestReward,std::less<unsigned long>,std::allocator<std::pair<unsigned long const ,ioQuestManager::QuestReward> >,0>::_Tmap_traits<unsigned long,ioQuestManager::QuestReward,std::less<unsigned long>,std::allocator<std::pair<unsigned long const ,ioQuestManager::QuestReward> >,0>, COMDAT
; _this$ = ecx

; 40   : 		{	// construct with specified comparator

  00000	8b c1		 mov	 eax, ecx

; 41   : 		}

  00002	c2 04 00	 ret	 4
??0?$_Tmap_traits@KUQuestReward@ioQuestManager@@U?$less@K@std@@V?$allocator@U?$pair@$$CBKUQuestReward@ioQuestManager@@@std@@@4@$0A@@std@@QAE@U?$less@K@1@@Z ENDP ; std::_Tmap_traits<unsigned long,ioQuestManager::QuestReward,std::less<unsigned long>,std::allocator<std::pair<unsigned long const ,ioQuestManager::QuestReward> >,0>::_Tmap_traits<unsigned long,ioQuestManager::QuestReward,std::less<unsigned long>,std::allocator<std::pair<unsigned long const ,ioQuestManager::QuestReward> >,0>
_TEXT	ENDS
PUBLIC	?_Max@?$_Tree_val@V?$_Tmap_traits@KUQuestHelpList@ioQuestManager@@U?$less@K@std@@V?$allocator@U?$pair@$$CBKUQuestHelpList@ioQuestManager@@@std@@@4@$0A@@std@@@std@@SAPAU_Node@?$_Tree_nod@V?$_Tmap_traits@KUQuestHelpList@ioQuestManager@@U?$less@K@std@@V?$allocator@U?$pair@$$CBKUQuestHelpList@ioQuestManager@@@std@@@4@$0A@@std@@@2@PAU342@@Z ; std::_Tree_val<std::_Tmap_traits<unsigned long,ioQuestManager::QuestHelpList,std::less<unsigned long>,std::allocator<std::pair<unsigned long const ,ioQuestManager::QuestHelpList> >,0> >::_Max
; Function compile flags: /Ogsp
; File c:\program files (x86)\microsoft visual studio 10.0\vc\include\xtree
;	COMDAT ?_Max@?$_Tree_val@V?$_Tmap_traits@KUQuestHelpList@ioQuestManager@@U?$less@K@std@@V?$allocator@U?$pair@$$CBKUQuestHelpList@ioQuestManager@@@std@@@4@$0A@@std@@@std@@SAPAU_Node@?$_Tree_nod@V?$_Tmap_traits@KUQuestHelpList@ioQuestManager@@U?$less@K@std@@V?$allocator@U?$pair@$$CBKUQuestHelpList@ioQuestManager@@@std@@@4@$0A@@std@@@2@PAU342@@Z
_TEXT	SEGMENT
__Pnode$ = 8						; size = 4
?_Max@?$_Tree_val@V?$_Tmap_traits@KUQuestHelpList@ioQuestManager@@U?$less@K@std@@V?$allocator@U?$pair@$$CBKUQuestHelpList@ioQuestManager@@@std@@@4@$0A@@std@@@std@@SAPAU_Node@?$_Tree_nod@V?$_Tmap_traits@KUQuestHelpList@ioQuestManager@@U?$less@K@std@@V?$allocator@U?$pair@$$CBKUQuestHelpList@ioQuestManager@@@std@@@4@$0A@@std@@@2@PAU342@@Z PROC ; std::_Tree_val<std::_Tmap_traits<unsigned long,ioQuestManager::QuestHelpList,std::less<unsigned long>,std::allocator<std::pair<unsigned long const ,ioQuestManager::QuestHelpList> >,0> >::_Max, COMDAT

; 641  : 		{	// return rightmost node in subtree at _Pnode

  00000	55		 push	 ebp
  00001	8b ec		 mov	 ebp, esp

; 642  : 		while (!_Isnil(_Right(_Pnode)))

  00003	8b 45 08	 mov	 eax, DWORD PTR __Pnode$[ebp]
  00006	eb 02		 jmp	 SHORT $LN14@Max@2
$LL2@Max@2:

; 643  : 			_Pnode = _Right(_Pnode);

  00008	8b c1		 mov	 eax, ecx
$LN14@Max@2:

; 642  : 		while (!_Isnil(_Right(_Pnode)))

  0000a	8b 48 08	 mov	 ecx, DWORD PTR [eax+8]
  0000d	80 79 21 00	 cmp	 BYTE PTR [ecx+33], 0
  00011	74 f5		 je	 SHORT $LL2@Max@2

; 644  : 		return (_Pnode);
; 645  : 		}

  00013	5d		 pop	 ebp
  00014	c3		 ret	 0
?_Max@?$_Tree_val@V?$_Tmap_traits@KUQuestHelpList@ioQuestManager@@U?$less@K@std@@V?$allocator@U?$pair@$$CBKUQuestHelpList@ioQuestManager@@@std@@@4@$0A@@std@@@std@@SAPAU_Node@?$_Tree_nod@V?$_Tmap_traits@KUQuestHelpList@ioQuestManager@@U?$less@K@std@@V?$allocator@U?$pair@$$CBKUQuestHelpList@ioQuestManager@@@std@@@4@$0A@@std@@@2@PAU342@@Z ENDP ; std::_Tree_val<std::_Tmap_traits<unsigned long,ioQuestManager::QuestHelpList,std::less<unsigned long>,std::allocator<std::pair<unsigned long const ,ioQuestManager::QuestHelpList> >,0> >::_Max
_TEXT	ENDS
PUBLIC	??0?$_Tmap_traits@KUQuestHelpList@ioQuestManager@@U?$less@K@std@@V?$allocator@U?$pair@$$CBKUQuestHelpList@ioQuestManager@@@std@@@4@$0A@@std@@QAE@U?$less@K@1@@Z ; std::_Tmap_traits<unsigned long,ioQuestManager::QuestHelpList,std::less<unsigned long>,std::allocator<std::pair<unsigned long const ,ioQuestManager::QuestHelpList> >,0>::_Tmap_traits<unsigned long,ioQuestManager::QuestHelpList,std::less<unsigned long>,std::allocator<std::pair<unsigned long const ,ioQuestManager::QuestHelpList> >,0>
; Function compile flags: /Ogsp
; File c:\program files (x86)\microsoft visual studio 10.0\vc\include\map
;	COMDAT ??0?$_Tmap_traits@KUQuestHelpList@ioQuestManager@@U?$less@K@std@@V?$allocator@U?$pair@$$CBKUQuestHelpList@ioQuestManager@@@std@@@4@$0A@@std@@QAE@U?$less@K@1@@Z
_TEXT	SEGMENT
__Parg$ = 8						; size = 1
??0?$_Tmap_traits@KUQuestHelpList@ioQuestManager@@U?$less@K@std@@V?$allocator@U?$pair@$$CBKUQuestHelpList@ioQuestManager@@@std@@@4@$0A@@std@@QAE@U?$less@K@1@@Z PROC ; std::_Tmap_traits<unsigned long,ioQuestManager::QuestHelpList,std::less<unsigned long>,std::allocator<std::pair<unsigned long const ,ioQuestManager::QuestHelpList> >,0>::_Tmap_traits<unsigned long,ioQuestManager::QuestHelpList,std::less<unsigned long>,std::allocator<std::pair<unsigned long const ,ioQuestManager::QuestHelpList> >,0>, COMDAT
; _this$ = ecx

; 40   : 		{	// construct with specified comparator

  00000	8b c1		 mov	 eax, ecx

; 41   : 		}

  00002	c2 04 00	 ret	 4
??0?$_Tmap_traits@KUQuestHelpList@ioQuestManager@@U?$less@K@std@@V?$allocator@U?$pair@$$CBKUQuestHelpList@ioQuestManager@@@std@@@4@$0A@@std@@QAE@U?$less@K@1@@Z ENDP ; std::_Tmap_traits<unsigned long,ioQuestManager::QuestHelpList,std::less<unsigned long>,std::allocator<std::pair<unsigned long const ,ioQuestManager::QuestHelpList> >,0>::_Tmap_traits<unsigned long,ioQuestManager::QuestHelpList,std::less<unsigned long>,std::allocator<std::pair<unsigned long const ,ioQuestManager::QuestHelpList> >,0>
_TEXT	ENDS
PUBLIC	??E?$_Tree_unchecked_const_iterator@V?$_Tree_val@V?$_Tmap_traits@KUQuestReward@ioQuestManager@@U?$less@K@std@@V?$allocator@U?$pair@$$CBKUQuestReward@ioQuestManager@@@std@@@4@$0A@@std@@@std@@U_Iterator_base0@2@@std@@QAEAAV01@XZ ; std::_Tree_unchecked_const_iterator<std::_Tree_val<std::_Tmap_traits<unsigned long,ioQuestManager::QuestReward,std::less<unsigned long>,std::allocator<std::pair<unsigned long const ,ioQuestManager::QuestReward> >,0> >,std::_Iterator_base0>::operator++
; Function compile flags: /Ogsp
; File c:\program files (x86)\microsoft visual studio 10.0\vc\include\xtree
;	COMDAT ??E?$_Tree_unchecked_const_iterator@V?$_Tree_val@V?$_Tmap_traits@KUQuestReward@ioQuestManager@@U?$less@K@std@@V?$allocator@U?$pair@$$CBKUQuestReward@ioQuestManager@@@std@@@4@$0A@@std@@@std@@U_Iterator_base0@2@@std@@QAEAAV01@XZ
_TEXT	SEGMENT
??E?$_Tree_unchecked_const_iterator@V?$_Tree_val@V?$_Tmap_traits@KUQuestReward@ioQuestManager@@U?$less@K@std@@V?$allocator@U?$pair@$$CBKUQuestReward@ioQuestManager@@@std@@@4@$0A@@std@@@std@@U_Iterator_base0@2@@std@@QAEAAV01@XZ PROC ; std::_Tree_unchecked_const_iterator<std::_Tree_val<std::_Tmap_traits<unsigned long,ioQuestManager::QuestReward,std::less<unsigned long>,std::allocator<std::pair<unsigned long const ,ioQuestManager::QuestReward> >,0> >,std::_Iterator_base0>::operator++, COMDAT
; _this$ = ecx

; 58   : 		{	// preincrement

  00000	8b c1		 mov	 eax, ecx

; 59   : 		if (_Mytree::_Isnil(_Ptr))

  00002	8b 08		 mov	 ecx, DWORD PTR [eax]
  00004	53		 push	 ebx
  00005	32 db		 xor	 bl, bl
  00007	38 59 21	 cmp	 BYTE PTR [ecx+33], bl
  0000a	75 2d		 jne	 SHORT $LN3@operator

; 60   : 			;	// end() shouldn't be incremented, don't move
; 61   : 		else if (!_Mytree::_Isnil(_Mytree::_Right(_Ptr)))

  0000c	8b 51 08	 mov	 edx, DWORD PTR [ecx+8]
  0000f	38 5a 21	 cmp	 BYTE PTR [edx+33], bl
  00012	75 0d		 jne	 SHORT $LN34@operator

; 62   : 			_Ptr = _Mytree::_Min(
; 63   : 				_Mytree::_Right(_Ptr));	// ==> smallest of right subtree

$LL18@operator:
  00014	8b ca		 mov	 ecx, edx
  00016	8b 11		 mov	 edx, DWORD PTR [ecx]
  00018	38 5a 21	 cmp	 BYTE PTR [edx+33], bl
  0001b	74 f7		 je	 SHORT $LL18@operator
  0001d	89 08		 mov	 DWORD PTR [eax], ecx
  0001f	5b		 pop	 ebx

; 71   : 			}
; 72   : 		return (*this);
; 73   : 		}

  00020	c3		 ret	 0
$LN34@operator:

; 64   : 		else
; 65   : 			{	// climb looking for right subtree
; 66   : 			_Nodeptr _Pnode;
; 67   : 			while (!_Mytree::_Isnil(_Pnode = _Mytree::_Parent(_Ptr))
; 68   : 				&& _Ptr == _Mytree::_Right(_Pnode))

  00021	8b 51 04	 mov	 edx, DWORD PTR [ecx+4]
  00024	eb 0c		 jmp	 SHORT $LN38@operator
$LL2@operator:
  00026	8b 08		 mov	 ecx, DWORD PTR [eax]
  00028	3b 4a 08	 cmp	 ecx, DWORD PTR [edx+8]
  0002b	75 0a		 jne	 SHORT $LN1@operator

; 69   : 				_Ptr = _Pnode;	// ==> parent while right subtree

  0002d	89 10		 mov	 DWORD PTR [eax], edx
  0002f	8b 52 04	 mov	 edx, DWORD PTR [edx+4]
$LN38@operator:

; 64   : 		else
; 65   : 			{	// climb looking for right subtree
; 66   : 			_Nodeptr _Pnode;
; 67   : 			while (!_Mytree::_Isnil(_Pnode = _Mytree::_Parent(_Ptr))
; 68   : 				&& _Ptr == _Mytree::_Right(_Pnode))

  00032	38 5a 21	 cmp	 BYTE PTR [edx+33], bl
  00035	74 ef		 je	 SHORT $LL2@operator
$LN1@operator:

; 70   : 			_Ptr = _Pnode;	// ==> parent (head if end())

  00037	89 10		 mov	 DWORD PTR [eax], edx
$LN3@operator:
  00039	5b		 pop	 ebx

; 71   : 			}
; 72   : 		return (*this);
; 73   : 		}

  0003a	c3		 ret	 0
??E?$_Tree_unchecked_const_iterator@V?$_Tree_val@V?$_Tmap_traits@KUQuestReward@ioQuestManager@@U?$less@K@std@@V?$allocator@U?$pair@$$CBKUQuestReward@ioQuestManager@@@std@@@4@$0A@@std@@@std@@U_Iterator_base0@2@@std@@QAEAAV01@XZ ENDP ; std::_Tree_unchecked_const_iterator<std::_Tree_val<std::_Tmap_traits<unsigned long,ioQuestManager::QuestReward,std::less<unsigned long>,std::allocator<std::pair<unsigned long const ,ioQuestManager::QuestReward> >,0> >,std::_Iterator_base0>::operator++
_TEXT	ENDS
PUBLIC	??$addressof@QAVQuestParent@@@std@@YAPBQAVQuestParent@@ABQAV1@@Z ; std::addressof<QuestParent * const>
; Function compile flags: /Ogsp
; File c:\program files (x86)\microsoft visual studio 10.0\vc\include\xmemory
;	COMDAT ??$addressof@QAVQuestParent@@@std@@YAPBQAVQuestParent@@ABQAV1@@Z
_TEXT	SEGMENT
__Val$ = 8						; size = 4
??$addressof@QAVQuestParent@@@std@@YAPBQAVQuestParent@@ABQAV1@@Z PROC ; std::addressof<QuestParent * const>, COMDAT

; 110  : 	{	// return address of _Val

  00000	55		 push	 ebp
  00001	8b ec		 mov	 ebp, esp

; 111  : 	return ((_Ty *) &(char&)_Val);

  00003	8b 45 08	 mov	 eax, DWORD PTR __Val$[ebp]

; 112  : 	}

  00006	5d		 pop	 ebp
  00007	c3		 ret	 0
??$addressof@QAVQuestParent@@@std@@YAPBQAVQuestParent@@ABQAV1@@Z ENDP ; std::addressof<QuestParent * const>
_TEXT	ENDS
PUBLIC	??$addressof@$$CBUQuestDelAndFail@ioQuestManager@@@std@@YAPBUQuestDelAndFail@ioQuestManager@@ABU12@@Z ; std::addressof<ioQuestManager::QuestDelAndFail const >
; Function compile flags: /Ogsp
;	COMDAT ??$addressof@$$CBUQuestDelAndFail@ioQuestManager@@@std@@YAPBUQuestDelAndFail@ioQuestManager@@ABU12@@Z
_TEXT	SEGMENT
__Val$ = 8						; size = 4
??$addressof@$$CBUQuestDelAndFail@ioQuestManager@@@std@@YAPBUQuestDelAndFail@ioQuestManager@@ABU12@@Z PROC ; std::addressof<ioQuestManager::QuestDelAndFail const >, COMDAT

; 110  : 	{	// return address of _Val

  00000	55		 push	 ebp
  00001	8b ec		 mov	 ebp, esp

; 111  : 	return ((_Ty *) &(char&)_Val);

  00003	8b 45 08	 mov	 eax, DWORD PTR __Val$[ebp]

; 112  : 	}

  00006	5d		 pop	 ebp
  00007	c3		 ret	 0
??$addressof@$$CBUQuestDelAndFail@ioQuestManager@@@std@@YAPBUQuestDelAndFail@ioQuestManager@@ABU12@@Z ENDP ; std::addressof<ioQuestManager::QuestDelAndFail const >
_TEXT	ENDS
PUBLIC	??$addressof@QAUQuestHelp@ioQuestManager@@@std@@YAPBQAUQuestHelp@ioQuestManager@@ABQAU12@@Z ; std::addressof<ioQuestManager::QuestHelp * const>
; Function compile flags: /Ogsp
;	COMDAT ??$addressof@QAUQuestHelp@ioQuestManager@@@std@@YAPBQAUQuestHelp@ioQuestManager@@ABQAU12@@Z
_TEXT	SEGMENT
__Val$ = 8						; size = 4
??$addressof@QAUQuestHelp@ioQuestManager@@@std@@YAPBQAUQuestHelp@ioQuestManager@@ABQAU12@@Z PROC ; std::addressof<ioQuestManager::QuestHelp * const>, COMDAT

; 110  : 	{	// return address of _Val

  00000	55		 push	 ebp
  00001	8b ec		 mov	 ebp, esp

; 111  : 	return ((_Ty *) &(char&)_Val);

  00003	8b 45 08	 mov	 eax, DWORD PTR __Val$[ebp]

; 112  : 	}

  00006	5d		 pop	 ebp
  00007	c3		 ret	 0
??$addressof@QAUQuestHelp@ioQuestManager@@@std@@YAPBQAUQuestHelp@ioQuestManager@@ABQAU12@@Z ENDP ; std::addressof<ioQuestManager::QuestHelp * const>
_TEXT	ENDS
PUBLIC	??$addressof@$$CBUCompleteReserve@ioQuestManager@@@std@@YAPBUCompleteReserve@ioQuestManager@@ABU12@@Z ; std::addressof<ioQuestManager::CompleteReserve const >
; Function compile flags: /Ogsp
;	COMDAT ??$addressof@$$CBUCompleteReserve@ioQuestManager@@@std@@YAPBUCompleteReserve@ioQuestManager@@ABU12@@Z
_TEXT	SEGMENT
__Val$ = 8						; size = 4
??$addressof@$$CBUCompleteReserve@ioQuestManager@@@std@@YAPBUCompleteReserve@ioQuestManager@@ABU12@@Z PROC ; std::addressof<ioQuestManager::CompleteReserve const >, COMDAT

; 110  : 	{	// return address of _Val

  00000	55		 push	 ebp
  00001	8b ec		 mov	 ebp, esp

; 111  : 	return ((_Ty *) &(char&)_Val);

  00003	8b 45 08	 mov	 eax, DWORD PTR __Val$[ebp]

; 112  : 	}

  00006	5d		 pop	 ebp
  00007	c3		 ret	 0
??$addressof@$$CBUCompleteReserve@ioQuestManager@@@std@@YAPBUCompleteReserve@ioQuestManager@@ABU12@@Z ENDP ; std::addressof<ioQuestManager::CompleteReserve const >
_TEXT	ENDS
PUBLIC	??$addressof@U?$pair@$$CBKUQuestReward@ioQuestManager@@@std@@@std@@YAPAU?$pair@$$CBKUQuestReward@ioQuestManager@@@0@AAU10@@Z ; std::addressof<std::pair<unsigned long const ,ioQuestManager::QuestReward> >
; Function compile flags: /Ogsp
;	COMDAT ??$addressof@U?$pair@$$CBKUQuestReward@ioQuestManager@@@std@@@std@@YAPAU?$pair@$$CBKUQuestReward@ioQuestManager@@@0@AAU10@@Z
_TEXT	SEGMENT
__Val$ = 8						; size = 4
??$addressof@U?$pair@$$CBKUQuestReward@ioQuestManager@@@std@@@std@@YAPAU?$pair@$$CBKUQuestReward@ioQuestManager@@@0@AAU10@@Z PROC ; std::addressof<std::pair<unsigned long const ,ioQuestManager::QuestReward> >, COMDAT

; 110  : 	{	// return address of _Val

  00000	55		 push	 ebp
  00001	8b ec		 mov	 ebp, esp

; 111  : 	return ((_Ty *) &(char&)_Val);

  00003	8b 45 08	 mov	 eax, DWORD PTR __Val$[ebp]

; 112  : 	}

  00006	5d		 pop	 ebp
  00007	c3		 ret	 0
??$addressof@U?$pair@$$CBKUQuestReward@ioQuestManager@@@std@@@std@@YAPAU?$pair@$$CBKUQuestReward@ioQuestManager@@@0@AAU10@@Z ENDP ; std::addressof<std::pair<unsigned long const ,ioQuestManager::QuestReward> >
_TEXT	ENDS
PUBLIC	??$_Kfn@$$CBKUQuestReward@ioQuestManager@@@?$_Tmap_traits@KUQuestReward@ioQuestManager@@U?$less@K@std@@V?$allocator@U?$pair@$$CBKUQuestReward@ioQuestManager@@@std@@@4@$0A@@std@@SAABKABU?$pair@$$CBKUQuestReward@ioQuestManager@@@1@@Z ; std::_Tmap_traits<unsigned long,ioQuestManager::QuestReward,std::less<unsigned long>,std::allocator<std::pair<unsigned long const ,ioQuestManager::QuestReward> >,0>::_Kfn<unsigned long const ,ioQuestManager::QuestReward>
; Function compile flags: /Ogsp
; File c:\program files (x86)\microsoft visual studio 10.0\vc\include\map
;	COMDAT ??$_Kfn@$$CBKUQuestReward@ioQuestManager@@@?$_Tmap_traits@KUQuestReward@ioQuestManager@@U?$less@K@std@@V?$allocator@U?$pair@$$CBKUQuestReward@ioQuestManager@@@std@@@4@$0A@@std@@SAABKABU?$pair@$$CBKUQuestReward@ioQuestManager@@@1@@Z
_TEXT	SEGMENT
__Val$ = 8						; size = 4
??$_Kfn@$$CBKUQuestReward@ioQuestManager@@@?$_Tmap_traits@KUQuestReward@ioQuestManager@@U?$less@K@std@@V?$allocator@U?$pair@$$CBKUQuestReward@ioQuestManager@@@std@@@4@$0A@@std@@SAABKABU?$pair@$$CBKUQuestReward@ioQuestManager@@@1@@Z PROC ; std::_Tmap_traits<unsigned long,ioQuestManager::QuestReward,std::less<unsigned long>,std::allocator<std::pair<unsigned long const ,ioQuestManager::QuestReward> >,0>::_Kfn<unsigned long const ,ioQuestManager::QuestReward>, COMDAT

; 66   : 		static const _Kty& _Kfn(const _STD pair<_Ty1, _Ty2>& _Val)

  00000	55		 push	 ebp
  00001	8b ec		 mov	 ebp, esp

; 67   : 		{	// extract key from element value
; 68   : 		return (_Val.first);

  00003	8b 45 08	 mov	 eax, DWORD PTR __Val$[ebp]

; 69   : 		}

  00006	5d		 pop	 ebp
  00007	c3		 ret	 0
??$_Kfn@$$CBKUQuestReward@ioQuestManager@@@?$_Tmap_traits@KUQuestReward@ioQuestManager@@U?$less@K@std@@V?$allocator@U?$pair@$$CBKUQuestReward@ioQuestManager@@@std@@@4@$0A@@std@@SAABKABU?$pair@$$CBKUQuestReward@ioQuestManager@@@1@@Z ENDP ; std::_Tmap_traits<unsigned long,ioQuestManager::QuestReward,std::less<unsigned long>,std::allocator<std::pair<unsigned long const ,ioQuestManager::QuestReward> >,0>::_Kfn<unsigned long const ,ioQuestManager::QuestReward>
_TEXT	ENDS
PUBLIC	??$addressof@U?$pair@$$CBKUQuestHelpList@ioQuestManager@@@std@@@std@@YAPAU?$pair@$$CBKUQuestHelpList@ioQuestManager@@@0@AAU10@@Z ; std::addressof<std::pair<unsigned long const ,ioQuestManager::QuestHelpList> >
; Function compile flags: /Ogsp
; File c:\program files (x86)\microsoft visual studio 10.0\vc\include\xmemory
;	COMDAT ??$addressof@U?$pair@$$CBKUQuestHelpList@ioQuestManager@@@std@@@std@@YAPAU?$pair@$$CBKUQuestHelpList@ioQuestManager@@@0@AAU10@@Z
_TEXT	SEGMENT
__Val$ = 8						; size = 4
??$addressof@U?$pair@$$CBKUQuestHelpList@ioQuestManager@@@std@@@std@@YAPAU?$pair@$$CBKUQuestHelpList@ioQuestManager@@@0@AAU10@@Z PROC ; std::addressof<std::pair<unsigned long const ,ioQuestManager::QuestHelpList> >, COMDAT

; 110  : 	{	// return address of _Val

  00000	55		 push	 ebp
  00001	8b ec		 mov	 ebp, esp

; 111  : 	return ((_Ty *) &(char&)_Val);

  00003	8b 45 08	 mov	 eax, DWORD PTR __Val$[ebp]

; 112  : 	}

  00006	5d		 pop	 ebp
  00007	c3		 ret	 0
??$addressof@U?$pair@$$CBKUQuestHelpList@ioQuestManager@@@std@@@std@@YAPAU?$pair@$$CBKUQuestHelpList@ioQuestManager@@@0@AAU10@@Z ENDP ; std::addressof<std::pair<unsigned long const ,ioQuestManager::QuestHelpList> >
_TEXT	ENDS
PUBLIC	??$_Kfn@$$CBKUQuestHelpList@ioQuestManager@@@?$_Tmap_traits@KUQuestHelpList@ioQuestManager@@U?$less@K@std@@V?$allocator@U?$pair@$$CBKUQuestHelpList@ioQuestManager@@@std@@@4@$0A@@std@@SAABKABU?$pair@$$CBKUQuestHelpList@ioQuestManager@@@1@@Z ; std::_Tmap_traits<unsigned long,ioQuestManager::QuestHelpList,std::less<unsigned long>,std::allocator<std::pair<unsigned long const ,ioQuestManager::QuestHelpList> >,0>::_Kfn<unsigned long const ,ioQuestManager::QuestHelpList>
; Function compile flags: /Ogsp
; File c:\program files (x86)\microsoft visual studio 10.0\vc\include\map
;	COMDAT ??$_Kfn@$$CBKUQuestHelpList@ioQuestManager@@@?$_Tmap_traits@KUQuestHelpList@ioQuestManager@@U?$less@K@std@@V?$allocator@U?$pair@$$CBKUQuestHelpList@ioQuestManager@@@std@@@4@$0A@@std@@SAABKABU?$pair@$$CBKUQuestHelpList@ioQuestManager@@@1@@Z
_TEXT	SEGMENT
__Val$ = 8						; size = 4
??$_Kfn@$$CBKUQuestHelpList@ioQuestManager@@@?$_Tmap_traits@KUQuestHelpList@ioQuestManager@@U?$less@K@std@@V?$allocator@U?$pair@$$CBKUQuestHelpList@ioQuestManager@@@std@@@4@$0A@@std@@SAABKABU?$pair@$$CBKUQuestHelpList@ioQuestManager@@@1@@Z PROC ; std::_Tmap_traits<unsigned long,ioQuestManager::QuestHelpList,std::less<unsigned long>,std::allocator<std::pair<unsigned long const ,ioQuestManager::QuestHelpList> >,0>::_Kfn<unsigned long const ,ioQuestManager::QuestHelpList>, COMDAT

; 66   : 		static const _Kty& _Kfn(const _STD pair<_Ty1, _Ty2>& _Val)

  00000	55		 push	 ebp
  00001	8b ec		 mov	 ebp, esp

; 67   : 		{	// extract key from element value
; 68   : 		return (_Val.first);

  00003	8b 45 08	 mov	 eax, DWORD PTR __Val$[ebp]

; 69   : 		}

  00006	5d		 pop	 ebp
  00007	c3		 ret	 0
??$_Kfn@$$CBKUQuestHelpList@ioQuestManager@@@?$_Tmap_traits@KUQuestHelpList@ioQuestManager@@U?$less@K@std@@V?$allocator@U?$pair@$$CBKUQuestHelpList@ioQuestManager@@@std@@@4@$0A@@std@@SAABKABU?$pair@$$CBKUQuestHelpList@ioQuestManager@@@1@@Z ENDP ; std::_Tmap_traits<unsigned long,ioQuestManager::QuestHelpList,std::less<unsigned long>,std::allocator<std::pair<unsigned long const ,ioQuestManager::QuestHelpList> >,0>::_Kfn<unsigned long const ,ioQuestManager::QuestHelpList>
_TEXT	ENDS
PUBLIC	__TI2?AVbad_alloc@std@@
PUBLIC	??$_Allocate@PAVQuestParent@@@std@@YAPAPAVQuestParent@@IPAPAV1@@Z ; std::_Allocate<QuestParent *>
PUBLIC	__CTA2?AVbad_alloc@std@@
PUBLIC	__CT??_R0?AVbad_alloc@std@@@8??0bad_alloc@std@@QAE@ABV01@@Z12
PUBLIC	??0bad_alloc@std@@QAE@ABV01@@Z			; std::bad_alloc::bad_alloc
PUBLIC	__CT??_R0?AVexception@std@@@8??0exception@std@@QAE@ABV01@@Z12
EXTRN	??2@YAPAXI@Z:PROC				; operator new
EXTRN	__CxxThrowException@8:PROC
EXTRN	??0exception@std@@QAE@ABV01@@Z:PROC		; std::exception::exception
;	COMDAT __CT??_R0?AVexception@std@@@8??0exception@std@@QAE@ABV01@@Z12
; File c:\program files (x86)\microsoft visual studio 10.0\vc\include\exception
xdata$x	SEGMENT
__CT??_R0?AVexception@std@@@8??0exception@std@@QAE@ABV01@@Z12 DD 00H
	DD	FLAT:??_R0?AVexception@std@@@8
	DD	00H
	DD	0ffffffffH
	ORG $+4
	DD	0cH
	DD	FLAT:??0exception@std@@QAE@ABV01@@Z
xdata$x	ENDS
;	COMDAT __CT??_R0?AVbad_alloc@std@@@8??0bad_alloc@std@@QAE@ABV01@@Z12
xdata$x	SEGMENT
__CT??_R0?AVbad_alloc@std@@@8??0bad_alloc@std@@QAE@ABV01@@Z12 DD 00H
	DD	FLAT:??_R0?AVbad_alloc@std@@@8
	DD	00H
	DD	0ffffffffH
	ORG $+4
	DD	0cH
	DD	FLAT:??0bad_alloc@std@@QAE@ABV01@@Z
xdata$x	ENDS
;	COMDAT __CTA2?AVbad_alloc@std@@
xdata$x	SEGMENT
__CTA2?AVbad_alloc@std@@ DD 02H
	DD	FLAT:__CT??_R0?AVbad_alloc@std@@@8??0bad_alloc@std@@QAE@ABV01@@Z12
	DD	FLAT:__CT??_R0?AVexception@std@@@8??0exception@std@@QAE@ABV01@@Z12
xdata$x	ENDS
;	COMDAT __TI2?AVbad_alloc@std@@
xdata$x	SEGMENT
__TI2?AVbad_alloc@std@@ DD 00H
	DD	FLAT:??1bad_alloc@std@@UAE@XZ
	DD	00H
	DD	FLAT:__CTA2?AVbad_alloc@std@@
; Function compile flags: /Ogsp
; File c:\program files (x86)\microsoft visual studio 10.0\vc\include\xmemory
xdata$x	ENDS
;	COMDAT ??$_Allocate@PAVQuestParent@@@std@@YAPAPAVQuestParent@@IPAPAV1@@Z
_TEXT	SEGMENT
$T547389 = -12						; size = 12
$T547394 = 8						; size = 4
__Count$ = 8						; size = 4
___formal$ = 12						; size = 4
??$_Allocate@PAVQuestParent@@@std@@YAPAPAVQuestParent@@IPAPAV1@@Z PROC ; std::_Allocate<QuestParent *>, COMDAT

; 30   : 	{	// allocate storage for _Count elements of type _Ty

  00000	55		 push	 ebp
  00001	8b ec		 mov	 ebp, esp

; 31   : 	void *_Ptr = 0;
; 32   : 
; 33   : 	if (_Count <= 0)

  00003	8b 4d 08	 mov	 ecx, DWORD PTR __Count$[ebp]
  00006	83 ec 0c	 sub	 esp, 12			; 0000000cH
  00009	33 c0		 xor	 eax, eax
  0000b	85 c9		 test	 ecx, ecx

; 34   : 		_Count = 0;
; 35   : 	else if (((_SIZT)(-1) / sizeof (_Ty) < _Count)

  0000d	74 3e		 je	 SHORT $LN5@Allocate

; 36   : 		|| (_Ptr = ::operator new(_Count * sizeof (_Ty))) == 0)

  0000f	81 f9 ff ff ff
	3f		 cmp	 ecx, 1073741823		; 3fffffffH
  00015	77 10		 ja	 SHORT $LN1@Allocate
  00017	8b c1		 mov	 eax, ecx
  00019	c1 e0 02	 shl	 eax, 2
  0001c	50		 push	 eax
  0001d	e8 00 00 00 00	 call	 ??2@YAPAXI@Z		; operator new
  00022	59		 pop	 ecx
  00023	85 c0		 test	 eax, eax

; 38   : 
; 39   : 	return ((_Ty _FARQ *)_Ptr);

  00025	75 26		 jne	 SHORT $LN5@Allocate
$LN1@Allocate:

; 37   : 		_THROW_NCEE(bad_alloc, 0);

  00027	83 65 08 00	 and	 DWORD PTR $T547394[ebp], 0
  0002b	8d 45 08	 lea	 eax, DWORD PTR $T547394[ebp]
  0002e	50		 push	 eax
  0002f	8d 4d f4	 lea	 ecx, DWORD PTR $T547389[ebp]
  00032	ff 15 00 00 00
	00		 call	 DWORD PTR __imp_??0exception@std@@QAE@ABQBD@Z
  00038	68 00 00 00 00	 push	 OFFSET __TI2?AVbad_alloc@std@@
  0003d	8d 45 f4	 lea	 eax, DWORD PTR $T547389[ebp]
  00040	50		 push	 eax
  00041	c7 45 f4 00 00
	00 00		 mov	 DWORD PTR $T547389[ebp], OFFSET ??_7bad_alloc@std@@6B@
  00048	e8 00 00 00 00	 call	 __CxxThrowException@8
$LN10@Allocate:
$LN5@Allocate:

; 40   : 	}

  0004d	c9		 leave
  0004e	c3		 ret	 0
$LN9@Allocate:
??$_Allocate@PAVQuestParent@@@std@@YAPAPAVQuestParent@@IPAPAV1@@Z ENDP ; std::_Allocate<QuestParent *>
_TEXT	ENDS
PUBLIC	??$_Allocate@UQuestDelAndFail@ioQuestManager@@@std@@YAPAUQuestDelAndFail@ioQuestManager@@IPAU12@@Z ; std::_Allocate<ioQuestManager::QuestDelAndFail>
; Function compile flags: /Ogsp
;	COMDAT ??$_Allocate@UQuestDelAndFail@ioQuestManager@@@std@@YAPAUQuestDelAndFail@ioQuestManager@@IPAU12@@Z
_TEXT	SEGMENT
$T547399 = -12						; size = 12
$T547403 = 8						; size = 4
__Count$ = 8						; size = 4
___formal$ = 12						; size = 4
??$_Allocate@UQuestDelAndFail@ioQuestManager@@@std@@YAPAUQuestDelAndFail@ioQuestManager@@IPAU12@@Z PROC ; std::_Allocate<ioQuestManager::QuestDelAndFail>, COMDAT

; 30   : 	{	// allocate storage for _Count elements of type _Ty

  00000	55		 push	 ebp
  00001	8b ec		 mov	 ebp, esp

; 31   : 	void *_Ptr = 0;
; 32   : 
; 33   : 	if (_Count <= 0)

  00003	8b 4d 08	 mov	 ecx, DWORD PTR __Count$[ebp]
  00006	83 ec 0c	 sub	 esp, 12			; 0000000cH
  00009	33 c0		 xor	 eax, eax
  0000b	85 c9		 test	 ecx, ecx

; 34   : 		_Count = 0;
; 35   : 	else if (((_SIZT)(-1) / sizeof (_Ty) < _Count)

  0000d	74 3e		 je	 SHORT $LN5@Allocate@2

; 36   : 		|| (_Ptr = ::operator new(_Count * sizeof (_Ty))) == 0)

  0000f	81 f9 ff ff ff
	1f		 cmp	 ecx, 536870911		; 1fffffffH
  00015	77 10		 ja	 SHORT $LN1@Allocate@2
  00017	8b c1		 mov	 eax, ecx
  00019	c1 e0 03	 shl	 eax, 3
  0001c	50		 push	 eax
  0001d	e8 00 00 00 00	 call	 ??2@YAPAXI@Z		; operator new
  00022	59		 pop	 ecx
  00023	85 c0		 test	 eax, eax

; 38   : 
; 39   : 	return ((_Ty _FARQ *)_Ptr);

  00025	75 26		 jne	 SHORT $LN5@Allocate@2
$LN1@Allocate@2:

; 37   : 		_THROW_NCEE(bad_alloc, 0);

  00027	83 65 08 00	 and	 DWORD PTR $T547403[ebp], 0
  0002b	8d 45 08	 lea	 eax, DWORD PTR $T547403[ebp]
  0002e	50		 push	 eax
  0002f	8d 4d f4	 lea	 ecx, DWORD PTR $T547399[ebp]
  00032	ff 15 00 00 00
	00		 call	 DWORD PTR __imp_??0exception@std@@QAE@ABQBD@Z
  00038	68 00 00 00 00	 push	 OFFSET __TI2?AVbad_alloc@std@@
  0003d	8d 45 f4	 lea	 eax, DWORD PTR $T547399[ebp]
  00040	50		 push	 eax
  00041	c7 45 f4 00 00
	00 00		 mov	 DWORD PTR $T547399[ebp], OFFSET ??_7bad_alloc@std@@6B@
  00048	e8 00 00 00 00	 call	 __CxxThrowException@8
$LN10@Allocate@2:
$LN5@Allocate@2:

; 40   : 	}

  0004d	c9		 leave
  0004e	c3		 ret	 0
$LN9@Allocate@2:
??$_Allocate@UQuestDelAndFail@ioQuestManager@@@std@@YAPAUQuestDelAndFail@ioQuestManager@@IPAU12@@Z ENDP ; std::_Allocate<ioQuestManager::QuestDelAndFail>
_TEXT	ENDS
PUBLIC	??$?0U?$pair@$$CBKUQuestReward@ioQuestManager@@@std@@@?$allocator@U_Node@?$_Tree_nod@V?$_Tmap_traits@KUQuestReward@ioQuestManager@@U?$less@K@std@@V?$allocator@U?$pair@$$CBKUQuestReward@ioQuestManager@@@std@@@4@$0A@@std@@@std@@@std@@QAE@ABV?$allocator@U?$pair@$$CBKUQuestReward@ioQuestManager@@@std@@@1@@Z ; std::allocator<std::_Tree_nod<std::_Tmap_traits<unsigned long,ioQuestManager::QuestReward,std::less<unsigned long>,std::allocator<std::pair<unsigned long const ,ioQuestManager::QuestReward> >,0> >::_Node>::allocator<std::_Tree_nod<std::_Tmap_traits<unsigned long,ioQuestManager::QuestReward,std::less<unsigned long>,std::allocator<std::pair<unsigned long const ,ioQuestManager::QuestReward> >,0> >::_Node><std::pair<unsigned long const ,ioQuestManager::QuestReward> >
; Function compile flags: /Ogsp
;	COMDAT ??$?0U?$pair@$$CBKUQuestReward@ioQuestManager@@@std@@@?$allocator@U_Node@?$_Tree_nod@V?$_Tmap_traits@KUQuestReward@ioQuestManager@@U?$less@K@std@@V?$allocator@U?$pair@$$CBKUQuestReward@ioQuestManager@@@std@@@4@$0A@@std@@@std@@@std@@QAE@ABV?$allocator@U?$pair@$$CBKUQuestReward@ioQuestManager@@@std@@@1@@Z
_TEXT	SEGMENT
___formal$ = 8						; size = 4
??$?0U?$pair@$$CBKUQuestReward@ioQuestManager@@@std@@@?$allocator@U_Node@?$_Tree_nod@V?$_Tmap_traits@KUQuestReward@ioQuestManager@@U?$less@K@std@@V?$allocator@U?$pair@$$CBKUQuestReward@ioQuestManager@@@std@@@4@$0A@@std@@@std@@@std@@QAE@ABV?$allocator@U?$pair@$$CBKUQuestReward@ioQuestManager@@@std@@@1@@Z PROC ; std::allocator<std::_Tree_nod<std::_Tmap_traits<unsigned long,ioQuestManager::QuestReward,std::less<unsigned long>,std::allocator<std::pair<unsigned long const ,ioQuestManager::QuestReward> >,0> >::_Node>::allocator<std::_Tree_nod<std::_Tmap_traits<unsigned long,ioQuestManager::QuestReward,std::less<unsigned long>,std::allocator<std::pair<unsigned long const ,ioQuestManager::QuestReward> >,0> >::_Node><std::pair<unsigned long const ,ioQuestManager::QuestReward> >, COMDAT
; _this$ = ecx

; 170  : 		_ALLOCATOR(const _ALLOCATOR<_Other>&) _THROW0()

  00000	8b c1		 mov	 eax, ecx

; 171  : 		{	// construct from a related allocator (do nothing)
; 172  : 		}

  00002	c2 04 00	 ret	 4
??$?0U?$pair@$$CBKUQuestReward@ioQuestManager@@@std@@@?$allocator@U_Node@?$_Tree_nod@V?$_Tmap_traits@KUQuestReward@ioQuestManager@@U?$less@K@std@@V?$allocator@U?$pair@$$CBKUQuestReward@ioQuestManager@@@std@@@4@$0A@@std@@@std@@@std@@QAE@ABV?$allocator@U?$pair@$$CBKUQuestReward@ioQuestManager@@@std@@@1@@Z ENDP ; std::allocator<std::_Tree_nod<std::_Tmap_traits<unsigned long,ioQuestManager::QuestReward,std::less<unsigned long>,std::allocator<std::pair<unsigned long const ,ioQuestManager::QuestReward> >,0> >::_Node>::allocator<std::_Tree_nod<std::_Tmap_traits<unsigned long,ioQuestManager::QuestReward,std::less<unsigned long>,std::allocator<std::pair<unsigned long const ,ioQuestManager::QuestReward> >,0> >::_Node><std::pair<unsigned long const ,ioQuestManager::QuestReward> >
_TEXT	ENDS
PUBLIC	??$_Allocate@U_Node@?$_Tree_nod@V?$_Tmap_traits@KUQuestReward@ioQuestManager@@U?$less@K@std@@V?$allocator@U?$pair@$$CBKUQuestReward@ioQuestManager@@@std@@@4@$0A@@std@@@std@@@std@@YAPAU_Node@?$_Tree_nod@V?$_Tmap_traits@KUQuestReward@ioQuestManager@@U?$less@K@std@@V?$allocator@U?$pair@$$CBKUQuestReward@ioQuestManager@@@std@@@4@$0A@@std@@@0@IPAU120@@Z ; std::_Allocate<std::_Tree_nod<std::_Tmap_traits<unsigned long,ioQuestManager::QuestReward,std::less<unsigned long>,std::allocator<std::pair<unsigned long const ,ioQuestManager::QuestReward> >,0> >::_Node>
; Function compile flags: /Ogsp
;	COMDAT ??$_Allocate@U_Node@?$_Tree_nod@V?$_Tmap_traits@KUQuestReward@ioQuestManager@@U?$less@K@std@@V?$allocator@U?$pair@$$CBKUQuestReward@ioQuestManager@@@std@@@4@$0A@@std@@@std@@@std@@YAPAU_Node@?$_Tree_nod@V?$_Tmap_traits@KUQuestReward@ioQuestManager@@U?$less@K@std@@V?$allocator@U?$pair@$$CBKUQuestReward@ioQuestManager@@@std@@@4@$0A@@std@@@0@IPAU120@@Z
_TEXT	SEGMENT
$T547411 = -12						; size = 12
$T547415 = 8						; size = 4
__Count$ = 8						; size = 4
___formal$ = 12						; size = 4
??$_Allocate@U_Node@?$_Tree_nod@V?$_Tmap_traits@KUQuestReward@ioQuestManager@@U?$less@K@std@@V?$allocator@U?$pair@$$CBKUQuestReward@ioQuestManager@@@std@@@4@$0A@@std@@@std@@@std@@YAPAU_Node@?$_Tree_nod@V?$_Tmap_traits@KUQuestReward@ioQuestManager@@U?$less@K@std@@V?$allocator@U?$pair@$$CBKUQuestReward@ioQuestManager@@@std@@@4@$0A@@std@@@0@IPAU120@@Z PROC ; std::_Allocate<std::_Tree_nod<std::_Tmap_traits<unsigned long,ioQuestManager::QuestReward,std::less<unsigned long>,std::allocator<std::pair<unsigned long const ,ioQuestManager::QuestReward> >,0> >::_Node>, COMDAT

; 30   : 	{	// allocate storage for _Count elements of type _Ty

  00000	55		 push	 ebp
  00001	8b ec		 mov	 ebp, esp

; 31   : 	void *_Ptr = 0;
; 32   : 
; 33   : 	if (_Count <= 0)

  00003	8b 4d 08	 mov	 ecx, DWORD PTR __Count$[ebp]
  00006	83 ec 0c	 sub	 esp, 12			; 0000000cH
  00009	33 c0		 xor	 eax, eax
  0000b	85 c9		 test	 ecx, ecx

; 34   : 		_Count = 0;
; 35   : 	else if (((_SIZT)(-1) / sizeof (_Ty) < _Count)

  0000d	74 3c		 je	 SHORT $LN5@Allocate@3

; 36   : 		|| (_Ptr = ::operator new(_Count * sizeof (_Ty))) == 0)

  0000f	81 f9 c7 71 1c
	07		 cmp	 ecx, 119304647		; 071c71c7H
  00015	77 0e		 ja	 SHORT $LN1@Allocate@3
  00017	6b c9 24	 imul	 ecx, 36			; 00000024H
  0001a	51		 push	 ecx
  0001b	e8 00 00 00 00	 call	 ??2@YAPAXI@Z		; operator new
  00020	59		 pop	 ecx
  00021	85 c0		 test	 eax, eax

; 38   : 
; 39   : 	return ((_Ty _FARQ *)_Ptr);

  00023	75 26		 jne	 SHORT $LN5@Allocate@3
$LN1@Allocate@3:

; 37   : 		_THROW_NCEE(bad_alloc, 0);

  00025	83 65 08 00	 and	 DWORD PTR $T547415[ebp], 0
  00029	8d 45 08	 lea	 eax, DWORD PTR $T547415[ebp]
  0002c	50		 push	 eax
  0002d	8d 4d f4	 lea	 ecx, DWORD PTR $T547411[ebp]
  00030	ff 15 00 00 00
	00		 call	 DWORD PTR __imp_??0exception@std@@QAE@ABQBD@Z
  00036	68 00 00 00 00	 push	 OFFSET __TI2?AVbad_alloc@std@@
  0003b	8d 45 f4	 lea	 eax, DWORD PTR $T547411[ebp]
  0003e	50		 push	 eax
  0003f	c7 45 f4 00 00
	00 00		 mov	 DWORD PTR $T547411[ebp], OFFSET ??_7bad_alloc@std@@6B@
  00046	e8 00 00 00 00	 call	 __CxxThrowException@8
$LN10@Allocate@3:
$LN5@Allocate@3:

; 40   : 	}

  0004b	c9		 leave
  0004c	c3		 ret	 0
$LN9@Allocate@3:
??$_Allocate@U_Node@?$_Tree_nod@V?$_Tmap_traits@KUQuestReward@ioQuestManager@@U?$less@K@std@@V?$allocator@U?$pair@$$CBKUQuestReward@ioQuestManager@@@std@@@4@$0A@@std@@@std@@@std@@YAPAU_Node@?$_Tree_nod@V?$_Tmap_traits@KUQuestReward@ioQuestManager@@U?$less@K@std@@V?$allocator@U?$pair@$$CBKUQuestReward@ioQuestManager@@@std@@@4@$0A@@std@@@0@IPAU120@@Z ENDP ; std::_Allocate<std::_Tree_nod<std::_Tmap_traits<unsigned long,ioQuestManager::QuestReward,std::less<unsigned long>,std::allocator<std::pair<unsigned long const ,ioQuestManager::QuestReward> >,0> >::_Node>
_TEXT	ENDS
PUBLIC	??$_Allocate@PAUQuestHelp@ioQuestManager@@@std@@YAPAPAUQuestHelp@ioQuestManager@@IPAPAU12@@Z ; std::_Allocate<ioQuestManager::QuestHelp *>
; Function compile flags: /Ogsp
;	COMDAT ??$_Allocate@PAUQuestHelp@ioQuestManager@@@std@@YAPAPAUQuestHelp@ioQuestManager@@IPAPAU12@@Z
_TEXT	SEGMENT
$T547420 = -12						; size = 12
$T547424 = 8						; size = 4
__Count$ = 8						; size = 4
___formal$ = 12						; size = 4
??$_Allocate@PAUQuestHelp@ioQuestManager@@@std@@YAPAPAUQuestHelp@ioQuestManager@@IPAPAU12@@Z PROC ; std::_Allocate<ioQuestManager::QuestHelp *>, COMDAT

; 30   : 	{	// allocate storage for _Count elements of type _Ty

  00000	55		 push	 ebp
  00001	8b ec		 mov	 ebp, esp

; 31   : 	void *_Ptr = 0;
; 32   : 
; 33   : 	if (_Count <= 0)

  00003	8b 4d 08	 mov	 ecx, DWORD PTR __Count$[ebp]
  00006	83 ec 0c	 sub	 esp, 12			; 0000000cH
  00009	33 c0		 xor	 eax, eax
  0000b	85 c9		 test	 ecx, ecx

; 34   : 		_Count = 0;
; 35   : 	else if (((_SIZT)(-1) / sizeof (_Ty) < _Count)

  0000d	74 3e		 je	 SHORT $LN5@Allocate@4

; 36   : 		|| (_Ptr = ::operator new(_Count * sizeof (_Ty))) == 0)

  0000f	81 f9 ff ff ff
	3f		 cmp	 ecx, 1073741823		; 3fffffffH
  00015	77 10		 ja	 SHORT $LN1@Allocate@4
  00017	8b c1		 mov	 eax, ecx
  00019	c1 e0 02	 shl	 eax, 2
  0001c	50		 push	 eax
  0001d	e8 00 00 00 00	 call	 ??2@YAPAXI@Z		; operator new
  00022	59		 pop	 ecx
  00023	85 c0		 test	 eax, eax

; 38   : 
; 39   : 	return ((_Ty _FARQ *)_Ptr);

  00025	75 26		 jne	 SHORT $LN5@Allocate@4
$LN1@Allocate@4:

; 37   : 		_THROW_NCEE(bad_alloc, 0);

  00027	83 65 08 00	 and	 DWORD PTR $T547424[ebp], 0
  0002b	8d 45 08	 lea	 eax, DWORD PTR $T547424[ebp]
  0002e	50		 push	 eax
  0002f	8d 4d f4	 lea	 ecx, DWORD PTR $T547420[ebp]
  00032	ff 15 00 00 00
	00		 call	 DWORD PTR __imp_??0exception@std@@QAE@ABQBD@Z
  00038	68 00 00 00 00	 push	 OFFSET __TI2?AVbad_alloc@std@@
  0003d	8d 45 f4	 lea	 eax, DWORD PTR $T547420[ebp]
  00040	50		 push	 eax
  00041	c7 45 f4 00 00
	00 00		 mov	 DWORD PTR $T547420[ebp], OFFSET ??_7bad_alloc@std@@6B@
  00048	e8 00 00 00 00	 call	 __CxxThrowException@8
$LN10@Allocate@4:
$LN5@Allocate@4:

; 40   : 	}

  0004d	c9		 leave
  0004e	c3		 ret	 0
$LN9@Allocate@4:
??$_Allocate@PAUQuestHelp@ioQuestManager@@@std@@YAPAPAUQuestHelp@ioQuestManager@@IPAPAU12@@Z ENDP ; std::_Allocate<ioQuestManager::QuestHelp *>
_TEXT	ENDS
PUBLIC	??$?0U?$pair@$$CBKUQuestHelpList@ioQuestManager@@@std@@@?$allocator@U_Node@?$_Tree_nod@V?$_Tmap_traits@KUQuestHelpList@ioQuestManager@@U?$less@K@std@@V?$allocator@U?$pair@$$CBKUQuestHelpList@ioQuestManager@@@std@@@4@$0A@@std@@@std@@@std@@QAE@ABV?$allocator@U?$pair@$$CBKUQuestHelpList@ioQuestManager@@@std@@@1@@Z ; std::allocator<std::_Tree_nod<std::_Tmap_traits<unsigned long,ioQuestManager::QuestHelpList,std::less<unsigned long>,std::allocator<std::pair<unsigned long const ,ioQuestManager::QuestHelpList> >,0> >::_Node>::allocator<std::_Tree_nod<std::_Tmap_traits<unsigned long,ioQuestManager::QuestHelpList,std::less<unsigned long>,std::allocator<std::pair<unsigned long const ,ioQuestManager::QuestHelpList> >,0> >::_Node><std::pair<unsigned long const ,ioQuestManager::QuestHelpList> >
; Function compile flags: /Ogsp
;	COMDAT ??$?0U?$pair@$$CBKUQuestHelpList@ioQuestManager@@@std@@@?$allocator@U_Node@?$_Tree_nod@V?$_Tmap_traits@KUQuestHelpList@ioQuestManager@@U?$less@K@std@@V?$allocator@U?$pair@$$CBKUQuestHelpList@ioQuestManager@@@std@@@4@$0A@@std@@@std@@@std@@QAE@ABV?$allocator@U?$pair@$$CBKUQuestHelpList@ioQuestManager@@@std@@@1@@Z
_TEXT	SEGMENT
___formal$ = 8						; size = 4
??$?0U?$pair@$$CBKUQuestHelpList@ioQuestManager@@@std@@@?$allocator@U_Node@?$_Tree_nod@V?$_Tmap_traits@KUQuestHelpList@ioQuestManager@@U?$less@K@std@@V?$allocator@U?$pair@$$CBKUQuestHelpList@ioQuestManager@@@std@@@4@$0A@@std@@@std@@@std@@QAE@ABV?$allocator@U?$pair@$$CBKUQuestHelpList@ioQuestManager@@@std@@@1@@Z PROC ; std::allocator<std::_Tree_nod<std::_Tmap_traits<unsigned long,ioQuestManager::QuestHelpList,std::less<unsigned long>,std::allocator<std::pair<unsigned long const ,ioQuestManager::QuestHelpList> >,0> >::_Node>::allocator<std::_Tree_nod<std::_Tmap_traits<unsigned long,ioQuestManager::QuestHelpList,std::less<unsigned long>,std::allocator<std::pair<unsigned long const ,ioQuestManager::QuestHelpList> >,0> >::_Node><std::pair<unsigned long const ,ioQuestManager::QuestHelpList> >, COMDAT
; _this$ = ecx

; 170  : 		_ALLOCATOR(const _ALLOCATOR<_Other>&) _THROW0()

  00000	8b c1		 mov	 eax, ecx

; 171  : 		{	// construct from a related allocator (do nothing)
; 172  : 		}

  00002	c2 04 00	 ret	 4
??$?0U?$pair@$$CBKUQuestHelpList@ioQuestManager@@@std@@@?$allocator@U_Node@?$_Tree_nod@V?$_Tmap_traits@KUQuestHelpList@ioQuestManager@@U?$less@K@std@@V?$allocator@U?$pair@$$CBKUQuestHelpList@ioQuestManager@@@std@@@4@$0A@@std@@@std@@@std@@QAE@ABV?$allocator@U?$pair@$$CBKUQuestHelpList@ioQuestManager@@@std@@@1@@Z ENDP ; std::allocator<std::_Tree_nod<std::_Tmap_traits<unsigned long,ioQuestManager::QuestHelpList,std::less<unsigned long>,std::allocator<std::pair<unsigned long const ,ioQuestManager::QuestHelpList> >,0> >::_Node>::allocator<std::_Tree_nod<std::_Tmap_traits<unsigned long,ioQuestManager::QuestHelpList,std::less<unsigned long>,std::allocator<std::pair<unsigned long const ,ioQuestManager::QuestHelpList> >,0> >::_Node><std::pair<unsigned long const ,ioQuestManager::QuestHelpList> >
_TEXT	ENDS
PUBLIC	??$_Allocate@U_Node@?$_Tree_nod@V?$_Tmap_traits@KUQuestHelpList@ioQuestManager@@U?$less@K@std@@V?$allocator@U?$pair@$$CBKUQuestHelpList@ioQuestManager@@@std@@@4@$0A@@std@@@std@@@std@@YAPAU_Node@?$_Tree_nod@V?$_Tmap_traits@KUQuestHelpList@ioQuestManager@@U?$less@K@std@@V?$allocator@U?$pair@$$CBKUQuestHelpList@ioQuestManager@@@std@@@4@$0A@@std@@@0@IPAU120@@Z ; std::_Allocate<std::_Tree_nod<std::_Tmap_traits<unsigned long,ioQuestManager::QuestHelpList,std::less<unsigned long>,std::allocator<std::pair<unsigned long const ,ioQuestManager::QuestHelpList> >,0> >::_Node>
; Function compile flags: /Ogsp
;	COMDAT ??$_Allocate@U_Node@?$_Tree_nod@V?$_Tmap_traits@KUQuestHelpList@ioQuestManager@@U?$less@K@std@@V?$allocator@U?$pair@$$CBKUQuestHelpList@ioQuestManager@@@std@@@4@$0A@@std@@@std@@@std@@YAPAU_Node@?$_Tree_nod@V?$_Tmap_traits@KUQuestHelpList@ioQuestManager@@U?$less@K@std@@V?$allocator@U?$pair@$$CBKUQuestHelpList@ioQuestManager@@@std@@@4@$0A@@std@@@0@IPAU120@@Z
_TEXT	SEGMENT
$T547432 = -12						; size = 12
$T547436 = 8						; size = 4
__Count$ = 8						; size = 4
___formal$ = 12						; size = 4
??$_Allocate@U_Node@?$_Tree_nod@V?$_Tmap_traits@KUQuestHelpList@ioQuestManager@@U?$less@K@std@@V?$allocator@U?$pair@$$CBKUQuestHelpList@ioQuestManager@@@std@@@4@$0A@@std@@@std@@@std@@YAPAU_Node@?$_Tree_nod@V?$_Tmap_traits@KUQuestHelpList@ioQuestManager@@U?$less@K@std@@V?$allocator@U?$pair@$$CBKUQuestHelpList@ioQuestManager@@@std@@@4@$0A@@std@@@0@IPAU120@@Z PROC ; std::_Allocate<std::_Tree_nod<std::_Tmap_traits<unsigned long,ioQuestManager::QuestHelpList,std::less<unsigned long>,std::allocator<std::pair<unsigned long const ,ioQuestManager::QuestHelpList> >,0> >::_Node>, COMDAT

; 30   : 	{	// allocate storage for _Count elements of type _Ty

  00000	55		 push	 ebp
  00001	8b ec		 mov	 ebp, esp

; 31   : 	void *_Ptr = 0;
; 32   : 
; 33   : 	if (_Count <= 0)

  00003	8b 4d 08	 mov	 ecx, DWORD PTR __Count$[ebp]
  00006	83 ec 0c	 sub	 esp, 12			; 0000000cH
  00009	33 c0		 xor	 eax, eax
  0000b	85 c9		 test	 ecx, ecx

; 34   : 		_Count = 0;
; 35   : 	else if (((_SIZT)(-1) / sizeof (_Ty) < _Count)

  0000d	74 3c		 je	 SHORT $LN5@Allocate@5

; 36   : 		|| (_Ptr = ::operator new(_Count * sizeof (_Ty))) == 0)

  0000f	81 f9 c7 71 1c
	07		 cmp	 ecx, 119304647		; 071c71c7H
  00015	77 0e		 ja	 SHORT $LN1@Allocate@5
  00017	6b c9 24	 imul	 ecx, 36			; 00000024H
  0001a	51		 push	 ecx
  0001b	e8 00 00 00 00	 call	 ??2@YAPAXI@Z		; operator new
  00020	59		 pop	 ecx
  00021	85 c0		 test	 eax, eax

; 38   : 
; 39   : 	return ((_Ty _FARQ *)_Ptr);

  00023	75 26		 jne	 SHORT $LN5@Allocate@5
$LN1@Allocate@5:

; 37   : 		_THROW_NCEE(bad_alloc, 0);

  00025	83 65 08 00	 and	 DWORD PTR $T547436[ebp], 0
  00029	8d 45 08	 lea	 eax, DWORD PTR $T547436[ebp]
  0002c	50		 push	 eax
  0002d	8d 4d f4	 lea	 ecx, DWORD PTR $T547432[ebp]
  00030	ff 15 00 00 00
	00		 call	 DWORD PTR __imp_??0exception@std@@QAE@ABQBD@Z
  00036	68 00 00 00 00	 push	 OFFSET __TI2?AVbad_alloc@std@@
  0003b	8d 45 f4	 lea	 eax, DWORD PTR $T547432[ebp]
  0003e	50		 push	 eax
  0003f	c7 45 f4 00 00
	00 00		 mov	 DWORD PTR $T547432[ebp], OFFSET ??_7bad_alloc@std@@6B@
  00046	e8 00 00 00 00	 call	 __CxxThrowException@8
$LN10@Allocate@5:
$LN5@Allocate@5:

; 40   : 	}

  0004b	c9		 leave
  0004c	c3		 ret	 0
$LN9@Allocate@5:
??$_Allocate@U_Node@?$_Tree_nod@V?$_Tmap_traits@KUQuestHelpList@ioQuestManager@@U?$less@K@std@@V?$allocator@U?$pair@$$CBKUQuestHelpList@ioQuestManager@@@std@@@4@$0A@@std@@@std@@@std@@YAPAU_Node@?$_Tree_nod@V?$_Tmap_traits@KUQuestHelpList@ioQuestManager@@U?$less@K@std@@V?$allocator@U?$pair@$$CBKUQuestHelpList@ioQuestManager@@@std@@@4@$0A@@std@@@0@IPAU120@@Z ENDP ; std::_Allocate<std::_Tree_nod<std::_Tmap_traits<unsigned long,ioQuestManager::QuestHelpList,std::less<unsigned long>,std::allocator<std::pair<unsigned long const ,ioQuestManager::QuestHelpList> >,0> >::_Node>
_TEXT	ENDS
PUBLIC	??$_Allocate@UCompleteReserve@ioQuestManager@@@std@@YAPAUCompleteReserve@ioQuestManager@@IPAU12@@Z ; std::_Allocate<ioQuestManager::CompleteReserve>
; Function compile flags: /Ogsp
;	COMDAT ??$_Allocate@UCompleteReserve@ioQuestManager@@@std@@YAPAUCompleteReserve@ioQuestManager@@IPAU12@@Z
_TEXT	SEGMENT
$T547441 = -12						; size = 12
$T547445 = 8						; size = 4
__Count$ = 8						; size = 4
___formal$ = 12						; size = 4
??$_Allocate@UCompleteReserve@ioQuestManager@@@std@@YAPAUCompleteReserve@ioQuestManager@@IPAU12@@Z PROC ; std::_Allocate<ioQuestManager::CompleteReserve>, COMDAT

; 30   : 	{	// allocate storage for _Count elements of type _Ty

  00000	55		 push	 ebp
  00001	8b ec		 mov	 ebp, esp

; 31   : 	void *_Ptr = 0;
; 32   : 
; 33   : 	if (_Count <= 0)

  00003	8b 4d 08	 mov	 ecx, DWORD PTR __Count$[ebp]
  00006	83 ec 0c	 sub	 esp, 12			; 0000000cH
  00009	33 c0		 xor	 eax, eax
  0000b	85 c9		 test	 ecx, ecx

; 34   : 		_Count = 0;
; 35   : 	else if (((_SIZT)(-1) / sizeof (_Ty) < _Count)

  0000d	74 3c		 je	 SHORT $LN5@Allocate@6

; 36   : 		|| (_Ptr = ::operator new(_Count * sizeof (_Ty))) == 0)

  0000f	81 f9 ff ff ff
	0f		 cmp	 ecx, 268435455		; 0fffffffH
  00015	77 0e		 ja	 SHORT $LN1@Allocate@6
  00017	c1 e1 04	 shl	 ecx, 4
  0001a	51		 push	 ecx
  0001b	e8 00 00 00 00	 call	 ??2@YAPAXI@Z		; operator new
  00020	59		 pop	 ecx
  00021	85 c0		 test	 eax, eax

; 38   : 
; 39   : 	return ((_Ty _FARQ *)_Ptr);

  00023	75 26		 jne	 SHORT $LN5@Allocate@6
$LN1@Allocate@6:

; 37   : 		_THROW_NCEE(bad_alloc, 0);

  00025	83 65 08 00	 and	 DWORD PTR $T547445[ebp], 0
  00029	8d 45 08	 lea	 eax, DWORD PTR $T547445[ebp]
  0002c	50		 push	 eax
  0002d	8d 4d f4	 lea	 ecx, DWORD PTR $T547441[ebp]
  00030	ff 15 00 00 00
	00		 call	 DWORD PTR __imp_??0exception@std@@QAE@ABQBD@Z
  00036	68 00 00 00 00	 push	 OFFSET __TI2?AVbad_alloc@std@@
  0003b	8d 45 f4	 lea	 eax, DWORD PTR $T547441[ebp]
  0003e	50		 push	 eax
  0003f	c7 45 f4 00 00
	00 00		 mov	 DWORD PTR $T547441[ebp], OFFSET ??_7bad_alloc@std@@6B@
  00046	e8 00 00 00 00	 call	 __CxxThrowException@8
$LN10@Allocate@6:
$LN5@Allocate@6:

; 40   : 	}

  0004b	c9		 leave
  0004c	c3		 ret	 0
$LN9@Allocate@6:
??$_Allocate@UCompleteReserve@ioQuestManager@@@std@@YAPAUCompleteReserve@ioQuestManager@@IPAU12@@Z ENDP ; std::_Allocate<ioQuestManager::CompleteReserve>
_TEXT	ENDS
PUBLIC	?max_size@?$allocator@U?$pair@$$CBKUQuestReward@ioQuestManager@@@std@@@std@@QBEIXZ ; std::allocator<std::pair<unsigned long const ,ioQuestManager::QuestReward> >::max_size
; Function compile flags: /Ogsp
;	COMDAT ?max_size@?$allocator@U?$pair@$$CBKUQuestReward@ioQuestManager@@@std@@@std@@QBEIXZ
_TEXT	SEGMENT
?max_size@?$allocator@U?$pair@$$CBKUQuestReward@ioQuestManager@@@std@@@std@@QBEIXZ PROC ; std::allocator<std::pair<unsigned long const ,ioQuestManager::QuestReward> >::max_size, COMDAT
; _this$ = ecx

; 218  : 		_SIZT _Count = (_SIZT)(-1) / sizeof (_Ty);
; 219  : 		return (0 < _Count ? _Count : 1);

  00000	b8 cc cc cc 0c	 mov	 eax, 214748364		; 0cccccccH

; 220  : 		}

  00005	c3		 ret	 0
?max_size@?$allocator@U?$pair@$$CBKUQuestReward@ioQuestManager@@@std@@@std@@QBEIXZ ENDP ; std::allocator<std::pair<unsigned long const ,ioQuestManager::QuestReward> >::max_size
_TEXT	ENDS
PUBLIC	?max_size@?$allocator@U?$pair@$$CBKUQuestHelpList@ioQuestManager@@@std@@@std@@QBEIXZ ; std::allocator<std::pair<unsigned long const ,ioQuestManager::QuestHelpList> >::max_size
; Function compile flags: /Ogsp
;	COMDAT ?max_size@?$allocator@U?$pair@$$CBKUQuestHelpList@ioQuestManager@@@std@@@std@@QBEIXZ
_TEXT	SEGMENT
?max_size@?$allocator@U?$pair@$$CBKUQuestHelpList@ioQuestManager@@@std@@@std@@QBEIXZ PROC ; std::allocator<std::pair<unsigned long const ,ioQuestManager::QuestHelpList> >::max_size, COMDAT
; _this$ = ecx

; 218  : 		_SIZT _Count = (_SIZT)(-1) / sizeof (_Ty);
; 219  : 		return (0 < _Count ? _Count : 1);

  00000	b8 cc cc cc 0c	 mov	 eax, 214748364		; 0cccccccH

; 220  : 		}

  00005	c3		 ret	 0
?max_size@?$allocator@U?$pair@$$CBKUQuestHelpList@ioQuestManager@@@std@@@std@@QBEIXZ ENDP ; std::allocator<std::pair<unsigned long const ,ioQuestManager::QuestHelpList> >::max_size
_TEXT	ENDS
PUBLIC	??F?$_Tree_unchecked_const_iterator@V?$_Tree_val@V?$_Tmap_traits@KUQuestHelpList@ioQuestManager@@U?$less@K@std@@V?$allocator@U?$pair@$$CBKUQuestHelpList@ioQuestManager@@@std@@@4@$0A@@std@@@std@@U_Iterator_base0@2@@std@@QAEAAV01@XZ ; std::_Tree_unchecked_const_iterator<std::_Tree_val<std::_Tmap_traits<unsigned long,ioQuestManager::QuestHelpList,std::less<unsigned long>,std::allocator<std::pair<unsigned long const ,ioQuestManager::QuestHelpList> >,0> >,std::_Iterator_base0>::operator--
; Function compile flags: /Ogsp
; File c:\program files (x86)\microsoft visual studio 10.0\vc\include\xtree
;	COMDAT ??F?$_Tree_unchecked_const_iterator@V?$_Tree_val@V?$_Tmap_traits@KUQuestHelpList@ioQuestManager@@U?$less@K@std@@V?$allocator@U?$pair@$$CBKUQuestHelpList@ioQuestManager@@@std@@@4@$0A@@std@@@std@@U_Iterator_base0@2@@std@@QAEAAV01@XZ
_TEXT	SEGMENT
??F?$_Tree_unchecked_const_iterator@V?$_Tree_val@V?$_Tmap_traits@KUQuestHelpList@ioQuestManager@@U?$less@K@std@@V?$allocator@U?$pair@$$CBKUQuestHelpList@ioQuestManager@@@std@@@4@$0A@@std@@@std@@U_Iterator_base0@2@@std@@QAEAAV01@XZ PROC ; std::_Tree_unchecked_const_iterator<std::_Tree_val<std::_Tmap_traits<unsigned long,ioQuestManager::QuestHelpList,std::less<unsigned long>,std::allocator<std::pair<unsigned long const ,ioQuestManager::QuestHelpList> >,0> >,std::_Iterator_base0>::operator--, COMDAT
; _this$ = ecx

; 83   : 		{	// predecrement

  00000	8b c1		 mov	 eax, ecx

; 84   : 		if (_Mytree::_Isnil(_Ptr))

  00002	8b 08		 mov	 ecx, DWORD PTR [eax]
  00004	53		 push	 ebx
  00005	32 db		 xor	 bl, bl
  00007	38 59 21	 cmp	 BYTE PTR [ecx+33], bl
  0000a	74 07		 je	 SHORT $LN8@operator@2

; 85   : 			_Ptr = _Mytree::_Right(_Ptr);	// end() ==> rightmost

  0000c	8b 49 08	 mov	 ecx, DWORD PTR [ecx+8]
  0000f	89 08		 mov	 DWORD PTR [eax], ecx
  00011	5b		 pop	 ebx

; 99   : 			}
; 100  : 		return (*this);
; 101  : 		}

  00012	c3		 ret	 0
$LN8@operator@2:

; 86   : 		else if (!_Mytree::_Isnil(_Mytree::_Left(_Ptr)))

  00013	8b 11		 mov	 edx, DWORD PTR [ecx]
  00015	38 5a 21	 cmp	 BYTE PTR [edx+33], bl
  00018	74 07		 je	 SHORT $LN44@operator@2

; 90   : 			{	// climb looking for left subtree
; 91   : 			_Nodeptr _Pnode;
; 92   : 			while (!_Mytree::_Isnil(_Pnode = _Mytree::_Parent(_Ptr))
; 93   : 				&& _Ptr == _Mytree::_Left(_Pnode))

  0001a	8b 51 04	 mov	 edx, DWORD PTR [ecx+4]
  0001d	eb 17		 jmp	 SHORT $LN46@operator@2

; 87   : 			_Ptr = _Mytree::_Max(
; 88   : 				_Mytree::_Left(_Ptr));	// ==> largest of left subtree

$LL22@operator@2:
  0001f	8b d1		 mov	 edx, ecx
$LN44@operator@2:
  00021	8b 4a 08	 mov	 ecx, DWORD PTR [edx+8]
  00024	38 59 21	 cmp	 BYTE PTR [ecx+33], bl
  00027	74 f6		 je	 SHORT $LL22@operator@2

; 89   : 		else

  00029	eb 17		 jmp	 SHORT $LN45@operator@2
$LL4@operator@2:

; 90   : 			{	// climb looking for left subtree
; 91   : 			_Nodeptr _Pnode;
; 92   : 			while (!_Mytree::_Isnil(_Pnode = _Mytree::_Parent(_Ptr))
; 93   : 				&& _Ptr == _Mytree::_Left(_Pnode))

  0002b	8b 08		 mov	 ecx, DWORD PTR [eax]
  0002d	3b 0a		 cmp	 ecx, DWORD PTR [edx]
  0002f	75 0a		 jne	 SHORT $LN3@operator@2

; 94   : 				_Ptr = _Pnode;	// ==> parent while left subtree

  00031	89 10		 mov	 DWORD PTR [eax], edx
  00033	8b 52 04	 mov	 edx, DWORD PTR [edx+4]
$LN46@operator@2:

; 90   : 			{	// climb looking for left subtree
; 91   : 			_Nodeptr _Pnode;
; 92   : 			while (!_Mytree::_Isnil(_Pnode = _Mytree::_Parent(_Ptr))
; 93   : 				&& _Ptr == _Mytree::_Left(_Pnode))

  00036	38 5a 21	 cmp	 BYTE PTR [edx+33], bl
  00039	74 f0		 je	 SHORT $LL4@operator@2
$LN3@operator@2:

; 95   : 			if (_Mytree::_Isnil(_Ptr))

  0003b	8b 08		 mov	 ecx, DWORD PTR [eax]
  0003d	38 59 21	 cmp	 BYTE PTR [ecx+33], bl
  00040	75 02		 jne	 SHORT $LN1@operator@2
$LN45@operator@2:

; 96   : 				;	// begin() shouldn't be decremented, don't move
; 97   : 			else
; 98   : 				_Ptr = _Pnode;	// ==> parent if not head

  00042	89 10		 mov	 DWORD PTR [eax], edx
$LN1@operator@2:
  00044	5b		 pop	 ebx

; 99   : 			}
; 100  : 		return (*this);
; 101  : 		}

  00045	c3		 ret	 0
??F?$_Tree_unchecked_const_iterator@V?$_Tree_val@V?$_Tmap_traits@KUQuestHelpList@ioQuestManager@@U?$less@K@std@@V?$allocator@U?$pair@$$CBKUQuestHelpList@ioQuestManager@@@std@@@4@$0A@@std@@@std@@U_Iterator_base0@2@@std@@QAEAAV01@XZ ENDP ; std::_Tree_unchecked_const_iterator<std::_Tree_val<std::_Tmap_traits<unsigned long,ioQuestManager::QuestHelpList,std::less<unsigned long>,std::allocator<std::pair<unsigned long const ,ioQuestManager::QuestHelpList> >,0> >,std::_Iterator_base0>::operator--
_TEXT	ENDS
PUBLIC	??F?$_Tree_unchecked_const_iterator@V?$_Tree_val@V?$_Tmap_traits@KUQuestReward@ioQuestManager@@U?$less@K@std@@V?$allocator@U?$pair@$$CBKUQuestReward@ioQuestManager@@@std@@@4@$0A@@std@@@std@@U_Iterator_base0@2@@std@@QAEAAV01@XZ ; std::_Tree_unchecked_const_iterator<std::_Tree_val<std::_Tmap_traits<unsigned long,ioQuestManager::QuestReward,std::less<unsigned long>,std::allocator<std::pair<unsigned long const ,ioQuestManager::QuestReward> >,0> >,std::_Iterator_base0>::operator--
; Function compile flags: /Ogsp
;	COMDAT ??F?$_Tree_unchecked_const_iterator@V?$_Tree_val@V?$_Tmap_traits@KUQuestReward@ioQuestManager@@U?$less@K@std@@V?$allocator@U?$pair@$$CBKUQuestReward@ioQuestManager@@@std@@@4@$0A@@std@@@std@@U_Iterator_base0@2@@std@@QAEAAV01@XZ
_TEXT	SEGMENT
??F?$_Tree_unchecked_const_iterator@V?$_Tree_val@V?$_Tmap_traits@KUQuestReward@ioQuestManager@@U?$less@K@std@@V?$allocator@U?$pair@$$CBKUQuestReward@ioQuestManager@@@std@@@4@$0A@@std@@@std@@U_Iterator_base0@2@@std@@QAEAAV01@XZ PROC ; std::_Tree_unchecked_const_iterator<std::_Tree_val<std::_Tmap_traits<unsigned long,ioQuestManager::QuestReward,std::less<unsigned long>,std::allocator<std::pair<unsigned long const ,ioQuestManager::QuestReward> >,0> >,std::_Iterator_base0>::operator--, COMDAT
; _this$ = ecx

; 83   : 		{	// predecrement

  00000	8b c1		 mov	 eax, ecx

; 84   : 		if (_Mytree::_Isnil(_Ptr))

  00002	8b 08		 mov	 ecx, DWORD PTR [eax]
  00004	53		 push	 ebx
  00005	32 db		 xor	 bl, bl
  00007	38 59 21	 cmp	 BYTE PTR [ecx+33], bl
  0000a	74 07		 je	 SHORT $LN8@operator@3

; 85   : 			_Ptr = _Mytree::_Right(_Ptr);	// end() ==> rightmost

  0000c	8b 49 08	 mov	 ecx, DWORD PTR [ecx+8]
  0000f	89 08		 mov	 DWORD PTR [eax], ecx
  00011	5b		 pop	 ebx

; 99   : 			}
; 100  : 		return (*this);
; 101  : 		}

  00012	c3		 ret	 0
$LN8@operator@3:

; 86   : 		else if (!_Mytree::_Isnil(_Mytree::_Left(_Ptr)))

  00013	8b 11		 mov	 edx, DWORD PTR [ecx]
  00015	38 5a 21	 cmp	 BYTE PTR [edx+33], bl
  00018	74 07		 je	 SHORT $LN44@operator@3

; 90   : 			{	// climb looking for left subtree
; 91   : 			_Nodeptr _Pnode;
; 92   : 			while (!_Mytree::_Isnil(_Pnode = _Mytree::_Parent(_Ptr))
; 93   : 				&& _Ptr == _Mytree::_Left(_Pnode))

  0001a	8b 51 04	 mov	 edx, DWORD PTR [ecx+4]
  0001d	eb 17		 jmp	 SHORT $LN46@operator@3

; 87   : 			_Ptr = _Mytree::_Max(
; 88   : 				_Mytree::_Left(_Ptr));	// ==> largest of left subtree

$LL22@operator@3:
  0001f	8b d1		 mov	 edx, ecx
$LN44@operator@3:
  00021	8b 4a 08	 mov	 ecx, DWORD PTR [edx+8]
  00024	38 59 21	 cmp	 BYTE PTR [ecx+33], bl
  00027	74 f6		 je	 SHORT $LL22@operator@3

; 89   : 		else

  00029	eb 17		 jmp	 SHORT $LN45@operator@3
$LL4@operator@3:

; 90   : 			{	// climb looking for left subtree
; 91   : 			_Nodeptr _Pnode;
; 92   : 			while (!_Mytree::_Isnil(_Pnode = _Mytree::_Parent(_Ptr))
; 93   : 				&& _Ptr == _Mytree::_Left(_Pnode))

  0002b	8b 08		 mov	 ecx, DWORD PTR [eax]
  0002d	3b 0a		 cmp	 ecx, DWORD PTR [edx]
  0002f	75 0a		 jne	 SHORT $LN3@operator@3

; 94   : 				_Ptr = _Pnode;	// ==> parent while left subtree

  00031	89 10		 mov	 DWORD PTR [eax], edx
  00033	8b 52 04	 mov	 edx, DWORD PTR [edx+4]
$LN46@operator@3:

; 90   : 			{	// climb looking for left subtree
; 91   : 			_Nodeptr _Pnode;
; 92   : 			while (!_Mytree::_Isnil(_Pnode = _Mytree::_Parent(_Ptr))
; 93   : 				&& _Ptr == _Mytree::_Left(_Pnode))

  00036	38 5a 21	 cmp	 BYTE PTR [edx+33], bl
  00039	74 f0		 je	 SHORT $LL4@operator@3
$LN3@operator@3:

; 95   : 			if (_Mytree::_Isnil(_Ptr))

  0003b	8b 08		 mov	 ecx, DWORD PTR [eax]
  0003d	38 59 21	 cmp	 BYTE PTR [ecx+33], bl
  00040	75 02		 jne	 SHORT $LN1@operator@3
$LN45@operator@3:

; 96   : 				;	// begin() shouldn't be decremented, don't move
; 97   : 			else
; 98   : 				_Ptr = _Pnode;	// ==> parent if not head

  00042	89 10		 mov	 DWORD PTR [eax], edx
$LN1@operator@3:
  00044	5b		 pop	 ebx

; 99   : 			}
; 100  : 		return (*this);
; 101  : 		}

  00045	c3		 ret	 0
??F?$_Tree_unchecked_const_iterator@V?$_Tree_val@V?$_Tmap_traits@KUQuestReward@ioQuestManager@@U?$less@K@std@@V?$allocator@U?$pair@$$CBKUQuestReward@ioQuestManager@@@std@@@4@$0A@@std@@@std@@U_Iterator_base0@2@@std@@QAEAAV01@XZ ENDP ; std::_Tree_unchecked_const_iterator<std::_Tree_val<std::_Tmap_traits<unsigned long,ioQuestManager::QuestReward,std::less<unsigned long>,std::allocator<std::pair<unsigned long const ,ioQuestManager::QuestReward> >,0> >,std::_Iterator_base0>::operator--
_TEXT	ENDS
PUBLIC	??$forward@AAUQuestReward@ioQuestManager@@@std@@YAAAUQuestReward@ioQuestManager@@AAU12@@Z ; std::forward<ioQuestManager::QuestReward &>
; Function compile flags: /Ogsp
; File c:\program files (x86)\microsoft visual studio 10.0\vc\include\utility
;	COMDAT ??$forward@AAUQuestReward@ioQuestManager@@@std@@YAAAUQuestReward@ioQuestManager@@AAU12@@Z
_TEXT	SEGMENT
__Arg$ = 8						; size = 4
??$forward@AAUQuestReward@ioQuestManager@@@std@@YAAAUQuestReward@ioQuestManager@@AAU12@@Z PROC ; std::forward<ioQuestManager::QuestReward &>, COMDAT

; 78   : 	{	// forward _Arg, given explicitly specified type parameter

  00000	55		 push	 ebp
  00001	8b ec		 mov	 ebp, esp

; 79   : 	return ((_Ty&&)_Arg);

  00003	8b 45 08	 mov	 eax, DWORD PTR __Arg$[ebp]

; 80   : 	}

  00006	5d		 pop	 ebp
  00007	c3		 ret	 0
??$forward@AAUQuestReward@ioQuestManager@@@std@@YAAAUQuestReward@ioQuestManager@@AAU12@@Z ENDP ; std::forward<ioQuestManager::QuestReward &>
_TEXT	ENDS
PUBLIC	??$forward@U?$pair@$$CBKUQuestReward@ioQuestManager@@@std@@@std@@YA$$QAU?$pair@$$CBKUQuestReward@ioQuestManager@@@0@AAU10@@Z ; std::forward<std::pair<unsigned long const ,ioQuestManager::QuestReward> >
; Function compile flags: /Ogsp
;	COMDAT ??$forward@U?$pair@$$CBKUQuestReward@ioQuestManager@@@std@@@std@@YA$$QAU?$pair@$$CBKUQuestReward@ioQuestManager@@@0@AAU10@@Z
_TEXT	SEGMENT
__Arg$ = 8						; size = 4
??$forward@U?$pair@$$CBKUQuestReward@ioQuestManager@@@std@@@std@@YA$$QAU?$pair@$$CBKUQuestReward@ioQuestManager@@@0@AAU10@@Z PROC ; std::forward<std::pair<unsigned long const ,ioQuestManager::QuestReward> >, COMDAT

; 78   : 	{	// forward _Arg, given explicitly specified type parameter

  00000	55		 push	 ebp
  00001	8b ec		 mov	 ebp, esp

; 79   : 	return ((_Ty&&)_Arg);

  00003	8b 45 08	 mov	 eax, DWORD PTR __Arg$[ebp]

; 80   : 	}

  00006	5d		 pop	 ebp
  00007	c3		 ret	 0
??$forward@U?$pair@$$CBKUQuestReward@ioQuestManager@@@std@@@std@@YA$$QAU?$pair@$$CBKUQuestReward@ioQuestManager@@@0@AAU10@@Z ENDP ; std::forward<std::pair<unsigned long const ,ioQuestManager::QuestReward> >
_TEXT	ENDS
PUBLIC	??$forward@AAUQuestHelpList@ioQuestManager@@@std@@YAAAUQuestHelpList@ioQuestManager@@AAU12@@Z ; std::forward<ioQuestManager::QuestHelpList &>
; Function compile flags: /Ogsp
;	COMDAT ??$forward@AAUQuestHelpList@ioQuestManager@@@std@@YAAAUQuestHelpList@ioQuestManager@@AAU12@@Z
_TEXT	SEGMENT
__Arg$ = 8						; size = 4
??$forward@AAUQuestHelpList@ioQuestManager@@@std@@YAAAUQuestHelpList@ioQuestManager@@AAU12@@Z PROC ; std::forward<ioQuestManager::QuestHelpList &>, COMDAT

; 78   : 	{	// forward _Arg, given explicitly specified type parameter

  00000	55		 push	 ebp
  00001	8b ec		 mov	 ebp, esp

; 79   : 	return ((_Ty&&)_Arg);

  00003	8b 45 08	 mov	 eax, DWORD PTR __Arg$[ebp]

; 80   : 	}

  00006	5d		 pop	 ebp
  00007	c3		 ret	 0
??$forward@AAUQuestHelpList@ioQuestManager@@@std@@YAAAUQuestHelpList@ioQuestManager@@AAU12@@Z ENDP ; std::forward<ioQuestManager::QuestHelpList &>
_TEXT	ENDS
PUBLIC	??$forward@U?$pair@$$CBKUQuestHelpList@ioQuestManager@@@std@@@std@@YA$$QAU?$pair@$$CBKUQuestHelpList@ioQuestManager@@@0@AAU10@@Z ; std::forward<std::pair<unsigned long const ,ioQuestManager::QuestHelpList> >
; Function compile flags: /Ogsp
;	COMDAT ??$forward@U?$pair@$$CBKUQuestHelpList@ioQuestManager@@@std@@@std@@YA$$QAU?$pair@$$CBKUQuestHelpList@ioQuestManager@@@0@AAU10@@Z
_TEXT	SEGMENT
__Arg$ = 8						; size = 4
??$forward@U?$pair@$$CBKUQuestHelpList@ioQuestManager@@@std@@@std@@YA$$QAU?$pair@$$CBKUQuestHelpList@ioQuestManager@@@0@AAU10@@Z PROC ; std::forward<std::pair<unsigned long const ,ioQuestManager::QuestHelpList> >, COMDAT

; 78   : 	{	// forward _Arg, given explicitly specified type parameter

  00000	55		 push	 ebp
  00001	8b ec		 mov	 ebp, esp

; 79   : 	return ((_Ty&&)_Arg);

  00003	8b 45 08	 mov	 eax, DWORD PTR __Arg$[ebp]

; 80   : 	}

  00006	5d		 pop	 ebp
  00007	c3		 ret	 0
??$forward@U?$pair@$$CBKUQuestHelpList@ioQuestManager@@@std@@@std@@YA$$QAU?$pair@$$CBKUQuestHelpList@ioQuestManager@@@0@AAU10@@Z ENDP ; std::forward<std::pair<unsigned long const ,ioQuestManager::QuestHelpList> >
_TEXT	ENDS
PUBLIC	??$forward@AAPAVQuestParent@@@std@@YAAAPAVQuestParent@@AAPAV1@@Z ; std::forward<QuestParent * &>
; Function compile flags: /Ogsp
;	COMDAT ??$forward@AAPAVQuestParent@@@std@@YAAAPAVQuestParent@@AAPAV1@@Z
_TEXT	SEGMENT
__Arg$ = 8						; size = 4
??$forward@AAPAVQuestParent@@@std@@YAAAPAVQuestParent@@AAPAV1@@Z PROC ; std::forward<QuestParent * &>, COMDAT

; 78   : 	{	// forward _Arg, given explicitly specified type parameter

  00000	55		 push	 ebp
  00001	8b ec		 mov	 ebp, esp

; 79   : 	return ((_Ty&&)_Arg);

  00003	8b 45 08	 mov	 eax, DWORD PTR __Arg$[ebp]

; 80   : 	}

  00006	5d		 pop	 ebp
  00007	c3		 ret	 0
??$forward@AAPAVQuestParent@@@std@@YAAAPAVQuestParent@@AAPAV1@@Z ENDP ; std::forward<QuestParent * &>
_TEXT	ENDS
PUBLIC	??$construct@AAPAVQuestParent@@@?$allocator@PAVQuestParent@@@std@@QAEXPAPAVQuestParent@@AAPAV2@@Z ; std::allocator<QuestParent *>::construct<QuestParent * &>
; Function compile flags: /Ogsp
; File c:\program files (x86)\microsoft visual studio 10.0\vc\include\xmemory
;	COMDAT ??$construct@AAPAVQuestParent@@@?$allocator@PAVQuestParent@@@std@@QAEXPAPAVQuestParent@@AAPAV2@@Z
_TEXT	SEGMENT
__Ptr$ = 8						; size = 4
__Val$ = 12						; size = 4
??$construct@AAPAVQuestParent@@@?$allocator@PAVQuestParent@@@std@@QAEXPAPAVQuestParent@@AAPAV2@@Z PROC ; std::allocator<QuestParent *>::construct<QuestParent * &>, COMDAT
; _this$ = ecx

; 206  : 		void construct(pointer _Ptr, _Other&& _Val)

  00000	55		 push	 ebp
  00001	8b ec		 mov	 ebp, esp

; 207  : 		{	// construct object at _Ptr with value _Val
; 208  : 		::new ((void _FARQ *)_Ptr) _Ty(_STD forward<_Other>(_Val));

  00003	8b 45 08	 mov	 eax, DWORD PTR __Ptr$[ebp]
  00006	85 c0		 test	 eax, eax
  00008	74 07		 je	 SHORT $LN3@construct
  0000a	8b 4d 0c	 mov	 ecx, DWORD PTR __Val$[ebp]
  0000d	8b 09		 mov	 ecx, DWORD PTR [ecx]
  0000f	89 08		 mov	 DWORD PTR [eax], ecx
$LN3@construct:

; 209  : 		}

  00011	5d		 pop	 ebp
  00012	c2 08 00	 ret	 8
??$construct@AAPAVQuestParent@@@?$allocator@PAVQuestParent@@@std@@QAEXPAPAVQuestParent@@AAPAV2@@Z ENDP ; std::allocator<QuestParent *>::construct<QuestParent * &>
_TEXT	ENDS
PUBLIC	??$forward@ABQAVQuestParent@@@std@@YAABQAVQuestParent@@ABQAV1@@Z ; std::forward<QuestParent * const &>
; Function compile flags: /Ogsp
; File c:\program files (x86)\microsoft visual studio 10.0\vc\include\utility
;	COMDAT ??$forward@ABQAVQuestParent@@@std@@YAABQAVQuestParent@@ABQAV1@@Z
_TEXT	SEGMENT
__Arg$ = 8						; size = 4
??$forward@ABQAVQuestParent@@@std@@YAABQAVQuestParent@@ABQAV1@@Z PROC ; std::forward<QuestParent * const &>, COMDAT

; 78   : 	{	// forward _Arg, given explicitly specified type parameter

  00000	55		 push	 ebp
  00001	8b ec		 mov	 ebp, esp

; 79   : 	return ((_Ty&&)_Arg);

  00003	8b 45 08	 mov	 eax, DWORD PTR __Arg$[ebp]

; 80   : 	}

  00006	5d		 pop	 ebp
  00007	c3		 ret	 0
??$forward@ABQAVQuestParent@@@std@@YAABQAVQuestParent@@ABQAV1@@Z ENDP ; std::forward<QuestParent * const &>
_TEXT	ENDS
PUBLIC	??$_Ptr_cat@PAVQuestParent@@PAV1@@std@@YA?AU_Scalar_ptr_iterator_tag@0@PAPAVQuestParent@@0@Z ; std::_Ptr_cat<QuestParent *,QuestParent *>
; Function compile flags: /Ogsp
; File c:\program files (x86)\microsoft visual studio 10.0\vc\include\xutility
;	COMDAT ??$_Ptr_cat@PAVQuestParent@@PAV1@@std@@YA?AU_Scalar_ptr_iterator_tag@0@PAPAVQuestParent@@0@Z
_TEXT	SEGMENT
__Cat$ = -1						; size = 1
___formal$ = 8						; size = 4
___formal$ = 12						; size = 4
??$_Ptr_cat@PAVQuestParent@@PAV1@@std@@YA?AU_Scalar_ptr_iterator_tag@0@PAPAVQuestParent@@0@Z PROC ; std::_Ptr_cat<QuestParent *,QuestParent *>, COMDAT

; 516  : 	{	// return pointer category from pointers

  00000	55		 push	 ebp
  00001	8b ec		 mov	 ebp, esp
  00003	51		 push	 ecx

; 517  : 	typename _Ptr_cat_helper<_Elem1, _Elem2>::_Type _Cat;
; 518  : 	return (_Cat);

  00004	8a 45 ff	 mov	 al, BYTE PTR __Cat$[ebp]

; 519  : 	}

  00007	c9		 leave
  00008	c3		 ret	 0
??$_Ptr_cat@PAVQuestParent@@PAV1@@std@@YA?AU_Scalar_ptr_iterator_tag@0@PAPAVQuestParent@@0@Z ENDP ; std::_Ptr_cat<QuestParent *,QuestParent *>
_TEXT	ENDS
PUBLIC	??$_Move@PAPAVQuestParent@@PAPAV1@@std@@YAPAPAVQuestParent@@PAPAV1@00U_Scalar_ptr_iterator_tag@0@@Z ; std::_Move<QuestParent * *,QuestParent * *>
EXTRN	__imp__memmove:PROC
; Function compile flags: /Ogsp
;	COMDAT ??$_Move@PAPAVQuestParent@@PAPAV1@@std@@YAPAPAVQuestParent@@PAPAV1@00U_Scalar_ptr_iterator_tag@0@@Z
_TEXT	SEGMENT
__First$ = 8						; size = 4
__Last$ = 12						; size = 4
__Dest$ = 16						; size = 4
___formal$ = 20						; size = 1
??$_Move@PAPAVQuestParent@@PAPAV1@@std@@YAPAPAVQuestParent@@PAPAV1@00U_Scalar_ptr_iterator_tag@0@@Z PROC ; std::_Move<QuestParent * *,QuestParent * *>, COMDAT

; 2522 : 	{	// move [_First, _Last) to [_Dest, ...), pointers to scalars

  00000	55		 push	 ebp
  00001	8b ec		 mov	 ebp, esp
  00003	56		 push	 esi

; 2523 : 	ptrdiff_t _Count = _Last - _First;

  00004	8b 75 0c	 mov	 esi, DWORD PTR __Last$[ebp]
  00007	2b 75 08	 sub	 esi, DWORD PTR __First$[ebp]
  0000a	57		 push	 edi

; 2524 : 	_CSTD memmove(&*_Dest, &*_First,
; 2525 : 		_Count * sizeof (*_First));

  0000b	8b 7d 10	 mov	 edi, DWORD PTR __Dest$[ebp]
  0000e	c1 fe 02	 sar	 esi, 2
  00011	c1 e6 02	 shl	 esi, 2
  00014	56		 push	 esi
  00015	ff 75 08	 push	 DWORD PTR __First$[ebp]
  00018	57		 push	 edi
  00019	ff 15 00 00 00
	00		 call	 DWORD PTR __imp__memmove
  0001f	83 c4 0c	 add	 esp, 12			; 0000000cH

; 2526 : 	return (_Dest + _Count);

  00022	8d 04 3e	 lea	 eax, DWORD PTR [esi+edi]
  00025	5f		 pop	 edi
  00026	5e		 pop	 esi

; 2527 : 	}

  00027	5d		 pop	 ebp
  00028	c3		 ret	 0
??$_Move@PAPAVQuestParent@@PAPAV1@@std@@YAPAPAVQuestParent@@PAPAV1@00U_Scalar_ptr_iterator_tag@0@@Z ENDP ; std::_Move<QuestParent * *,QuestParent * *>
_TEXT	ENDS
PUBLIC	??$forward@AAUQuestDelAndFail@ioQuestManager@@@std@@YAAAUQuestDelAndFail@ioQuestManager@@AAU12@@Z ; std::forward<ioQuestManager::QuestDelAndFail &>
; Function compile flags: /Ogsp
; File c:\program files (x86)\microsoft visual studio 10.0\vc\include\utility
;	COMDAT ??$forward@AAUQuestDelAndFail@ioQuestManager@@@std@@YAAAUQuestDelAndFail@ioQuestManager@@AAU12@@Z
_TEXT	SEGMENT
__Arg$ = 8						; size = 4
??$forward@AAUQuestDelAndFail@ioQuestManager@@@std@@YAAAUQuestDelAndFail@ioQuestManager@@AAU12@@Z PROC ; std::forward<ioQuestManager::QuestDelAndFail &>, COMDAT

; 78   : 	{	// forward _Arg, given explicitly specified type parameter

  00000	55		 push	 ebp
  00001	8b ec		 mov	 ebp, esp

; 79   : 	return ((_Ty&&)_Arg);

  00003	8b 45 08	 mov	 eax, DWORD PTR __Arg$[ebp]

; 80   : 	}

  00006	5d		 pop	 ebp
  00007	c3		 ret	 0
??$forward@AAUQuestDelAndFail@ioQuestManager@@@std@@YAAAUQuestDelAndFail@ioQuestManager@@AAU12@@Z ENDP ; std::forward<ioQuestManager::QuestDelAndFail &>
_TEXT	ENDS
PUBLIC	??$construct@AAUQuestDelAndFail@ioQuestManager@@@?$allocator@UQuestDelAndFail@ioQuestManager@@@std@@QAEXPAUQuestDelAndFail@ioQuestManager@@AAU23@@Z ; std::allocator<ioQuestManager::QuestDelAndFail>::construct<ioQuestManager::QuestDelAndFail &>
; Function compile flags: /Ogsp
; File c:\program files (x86)\microsoft visual studio 10.0\vc\include\xmemory
;	COMDAT ??$construct@AAUQuestDelAndFail@ioQuestManager@@@?$allocator@UQuestDelAndFail@ioQuestManager@@@std@@QAEXPAUQuestDelAndFail@ioQuestManager@@AAU23@@Z
_TEXT	SEGMENT
__Ptr$ = 8						; size = 4
__Val$ = 12						; size = 4
??$construct@AAUQuestDelAndFail@ioQuestManager@@@?$allocator@UQuestDelAndFail@ioQuestManager@@@std@@QAEXPAUQuestDelAndFail@ioQuestManager@@AAU23@@Z PROC ; std::allocator<ioQuestManager::QuestDelAndFail>::construct<ioQuestManager::QuestDelAndFail &>, COMDAT
; _this$ = ecx

; 206  : 		void construct(pointer _Ptr, _Other&& _Val)

  00000	55		 push	 ebp
  00001	8b ec		 mov	 ebp, esp

; 207  : 		{	// construct object at _Ptr with value _Val
; 208  : 		::new ((void _FARQ *)_Ptr) _Ty(_STD forward<_Other>(_Val));

  00003	8b 45 08	 mov	 eax, DWORD PTR __Ptr$[ebp]
  00006	85 c0		 test	 eax, eax
  00008	74 0d		 je	 SHORT $LN3@construct@2
  0000a	8b 4d 0c	 mov	 ecx, DWORD PTR __Val$[ebp]
  0000d	8b 11		 mov	 edx, DWORD PTR [ecx]
  0000f	89 10		 mov	 DWORD PTR [eax], edx
  00011	8b 49 04	 mov	 ecx, DWORD PTR [ecx+4]
  00014	89 48 04	 mov	 DWORD PTR [eax+4], ecx
$LN3@construct@2:

; 209  : 		}

  00017	5d		 pop	 ebp
  00018	c2 08 00	 ret	 8
??$construct@AAUQuestDelAndFail@ioQuestManager@@@?$allocator@UQuestDelAndFail@ioQuestManager@@@std@@QAEXPAUQuestDelAndFail@ioQuestManager@@AAU23@@Z ENDP ; std::allocator<ioQuestManager::QuestDelAndFail>::construct<ioQuestManager::QuestDelAndFail &>
_TEXT	ENDS
PUBLIC	??$forward@ABUQuestDelAndFail@ioQuestManager@@@std@@YAABUQuestDelAndFail@ioQuestManager@@ABU12@@Z ; std::forward<ioQuestManager::QuestDelAndFail const &>
; Function compile flags: /Ogsp
; File c:\program files (x86)\microsoft visual studio 10.0\vc\include\utility
;	COMDAT ??$forward@ABUQuestDelAndFail@ioQuestManager@@@std@@YAABUQuestDelAndFail@ioQuestManager@@ABU12@@Z
_TEXT	SEGMENT
__Arg$ = 8						; size = 4
??$forward@ABUQuestDelAndFail@ioQuestManager@@@std@@YAABUQuestDelAndFail@ioQuestManager@@ABU12@@Z PROC ; std::forward<ioQuestManager::QuestDelAndFail const &>, COMDAT

; 78   : 	{	// forward _Arg, given explicitly specified type parameter

  00000	55		 push	 ebp
  00001	8b ec		 mov	 ebp, esp

; 79   : 	return ((_Ty&&)_Arg);

  00003	8b 45 08	 mov	 eax, DWORD PTR __Arg$[ebp]

; 80   : 	}

  00006	5d		 pop	 ebp
  00007	c3		 ret	 0
??$forward@ABUQuestDelAndFail@ioQuestManager@@@std@@YAABUQuestDelAndFail@ioQuestManager@@ABU12@@Z ENDP ; std::forward<ioQuestManager::QuestDelAndFail const &>
_TEXT	ENDS
PUBLIC	??$_Ptr_cat@UQuestDelAndFail@ioQuestManager@@U12@@std@@YA?AU_Nonscalar_ptr_iterator_tag@0@PAUQuestDelAndFail@ioQuestManager@@0@Z ; std::_Ptr_cat<ioQuestManager::QuestDelAndFail,ioQuestManager::QuestDelAndFail>
; Function compile flags: /Ogsp
; File c:\program files (x86)\microsoft visual studio 10.0\vc\include\xutility
;	COMDAT ??$_Ptr_cat@UQuestDelAndFail@ioQuestManager@@U12@@std@@YA?AU_Nonscalar_ptr_iterator_tag@0@PAUQuestDelAndFail@ioQuestManager@@0@Z
_TEXT	SEGMENT
__Cat$ = -1						; size = 1
___formal$ = 8						; size = 4
___formal$ = 12						; size = 4
??$_Ptr_cat@UQuestDelAndFail@ioQuestManager@@U12@@std@@YA?AU_Nonscalar_ptr_iterator_tag@0@PAUQuestDelAndFail@ioQuestManager@@0@Z PROC ; std::_Ptr_cat<ioQuestManager::QuestDelAndFail,ioQuestManager::QuestDelAndFail>, COMDAT

; 516  : 	{	// return pointer category from pointers

  00000	55		 push	 ebp
  00001	8b ec		 mov	 ebp, esp
  00003	51		 push	 ecx

; 517  : 	typename _Ptr_cat_helper<_Elem1, _Elem2>::_Type _Cat;
; 518  : 	return (_Cat);

  00004	8a 45 ff	 mov	 al, BYTE PTR __Cat$[ebp]

; 519  : 	}

  00007	c9		 leave
  00008	c3		 ret	 0
??$_Ptr_cat@UQuestDelAndFail@ioQuestManager@@U12@@std@@YA?AU_Nonscalar_ptr_iterator_tag@0@PAUQuestDelAndFail@ioQuestManager@@0@Z ENDP ; std::_Ptr_cat<ioQuestManager::QuestDelAndFail,ioQuestManager::QuestDelAndFail>
_TEXT	ENDS
PUBLIC	??$forward@AAPAUQuestHelp@ioQuestManager@@@std@@YAAAPAUQuestHelp@ioQuestManager@@AAPAU12@@Z ; std::forward<ioQuestManager::QuestHelp * &>
; Function compile flags: /Ogsp
; File c:\program files (x86)\microsoft visual studio 10.0\vc\include\utility
;	COMDAT ??$forward@AAPAUQuestHelp@ioQuestManager@@@std@@YAAAPAUQuestHelp@ioQuestManager@@AAPAU12@@Z
_TEXT	SEGMENT
__Arg$ = 8						; size = 4
??$forward@AAPAUQuestHelp@ioQuestManager@@@std@@YAAAPAUQuestHelp@ioQuestManager@@AAPAU12@@Z PROC ; std::forward<ioQuestManager::QuestHelp * &>, COMDAT

; 78   : 	{	// forward _Arg, given explicitly specified type parameter

  00000	55		 push	 ebp
  00001	8b ec		 mov	 ebp, esp

; 79   : 	return ((_Ty&&)_Arg);

  00003	8b 45 08	 mov	 eax, DWORD PTR __Arg$[ebp]

; 80   : 	}

  00006	5d		 pop	 ebp
  00007	c3		 ret	 0
??$forward@AAPAUQuestHelp@ioQuestManager@@@std@@YAAAPAUQuestHelp@ioQuestManager@@AAPAU12@@Z ENDP ; std::forward<ioQuestManager::QuestHelp * &>
_TEXT	ENDS
PUBLIC	??$construct@AAPAUQuestHelp@ioQuestManager@@@?$allocator@PAUQuestHelp@ioQuestManager@@@std@@QAEXPAPAUQuestHelp@ioQuestManager@@AAPAU23@@Z ; std::allocator<ioQuestManager::QuestHelp *>::construct<ioQuestManager::QuestHelp * &>
; Function compile flags: /Ogsp
; File c:\program files (x86)\microsoft visual studio 10.0\vc\include\xmemory
;	COMDAT ??$construct@AAPAUQuestHelp@ioQuestManager@@@?$allocator@PAUQuestHelp@ioQuestManager@@@std@@QAEXPAPAUQuestHelp@ioQuestManager@@AAPAU23@@Z
_TEXT	SEGMENT
__Ptr$ = 8						; size = 4
__Val$ = 12						; size = 4
??$construct@AAPAUQuestHelp@ioQuestManager@@@?$allocator@PAUQuestHelp@ioQuestManager@@@std@@QAEXPAPAUQuestHelp@ioQuestManager@@AAPAU23@@Z PROC ; std::allocator<ioQuestManager::QuestHelp *>::construct<ioQuestManager::QuestHelp * &>, COMDAT
; _this$ = ecx

; 206  : 		void construct(pointer _Ptr, _Other&& _Val)

  00000	55		 push	 ebp
  00001	8b ec		 mov	 ebp, esp

; 207  : 		{	// construct object at _Ptr with value _Val
; 208  : 		::new ((void _FARQ *)_Ptr) _Ty(_STD forward<_Other>(_Val));

  00003	8b 45 08	 mov	 eax, DWORD PTR __Ptr$[ebp]
  00006	85 c0		 test	 eax, eax
  00008	74 07		 je	 SHORT $LN3@construct@3
  0000a	8b 4d 0c	 mov	 ecx, DWORD PTR __Val$[ebp]
  0000d	8b 09		 mov	 ecx, DWORD PTR [ecx]
  0000f	89 08		 mov	 DWORD PTR [eax], ecx
$LN3@construct@3:

; 209  : 		}

  00011	5d		 pop	 ebp
  00012	c2 08 00	 ret	 8
??$construct@AAPAUQuestHelp@ioQuestManager@@@?$allocator@PAUQuestHelp@ioQuestManager@@@std@@QAEXPAPAUQuestHelp@ioQuestManager@@AAPAU23@@Z ENDP ; std::allocator<ioQuestManager::QuestHelp *>::construct<ioQuestManager::QuestHelp * &>
_TEXT	ENDS
PUBLIC	??$forward@ABQAUQuestHelp@ioQuestManager@@@std@@YAABQAUQuestHelp@ioQuestManager@@ABQAU12@@Z ; std::forward<ioQuestManager::QuestHelp * const &>
; Function compile flags: /Ogsp
; File c:\program files (x86)\microsoft visual studio 10.0\vc\include\utility
;	COMDAT ??$forward@ABQAUQuestHelp@ioQuestManager@@@std@@YAABQAUQuestHelp@ioQuestManager@@ABQAU12@@Z
_TEXT	SEGMENT
__Arg$ = 8						; size = 4
??$forward@ABQAUQuestHelp@ioQuestManager@@@std@@YAABQAUQuestHelp@ioQuestManager@@ABQAU12@@Z PROC ; std::forward<ioQuestManager::QuestHelp * const &>, COMDAT

; 78   : 	{	// forward _Arg, given explicitly specified type parameter

  00000	55		 push	 ebp
  00001	8b ec		 mov	 ebp, esp

; 79   : 	return ((_Ty&&)_Arg);

  00003	8b 45 08	 mov	 eax, DWORD PTR __Arg$[ebp]

; 80   : 	}

  00006	5d		 pop	 ebp
  00007	c3		 ret	 0
??$forward@ABQAUQuestHelp@ioQuestManager@@@std@@YAABQAUQuestHelp@ioQuestManager@@ABQAU12@@Z ENDP ; std::forward<ioQuestManager::QuestHelp * const &>
_TEXT	ENDS
PUBLIC	??$_Val_type@PAUCompleteReserve@ioQuestManager@@@std@@YAPAUCompleteReserve@ioQuestManager@@PAU12@@Z ; std::_Val_type<ioQuestManager::CompleteReserve *>
; Function compile flags: /Ogsp
; File c:\program files (x86)\microsoft visual studio 10.0\vc\include\xutility
;	COMDAT ??$_Val_type@PAUCompleteReserve@ioQuestManager@@@std@@YAPAUCompleteReserve@ioQuestManager@@PAU12@@Z
_TEXT	SEGMENT
___formal$ = 8						; size = 4
??$_Val_type@PAUCompleteReserve@ioQuestManager@@@std@@YAPAUCompleteReserve@ioQuestManager@@PAU12@@Z PROC ; std::_Val_type<ioQuestManager::CompleteReserve *>, COMDAT

; 790  : 	return (0);

  00000	33 c0		 xor	 eax, eax

; 791  : 	}

  00002	c3		 ret	 0
??$_Val_type@PAUCompleteReserve@ioQuestManager@@@std@@YAPAUCompleteReserve@ioQuestManager@@PAU12@@Z ENDP ; std::_Val_type<ioQuestManager::CompleteReserve *>
_TEXT	ENDS
PUBLIC	??$_Ptr_cat@UCompleteReserve@ioQuestManager@@U12@@std@@YA?AU_Nonscalar_ptr_iterator_tag@0@PAUCompleteReserve@ioQuestManager@@0@Z ; std::_Ptr_cat<ioQuestManager::CompleteReserve,ioQuestManager::CompleteReserve>
; Function compile flags: /Ogsp
;	COMDAT ??$_Ptr_cat@UCompleteReserve@ioQuestManager@@U12@@std@@YA?AU_Nonscalar_ptr_iterator_tag@0@PAUCompleteReserve@ioQuestManager@@0@Z
_TEXT	SEGMENT
__Cat$ = -1						; size = 1
___formal$ = 8						; size = 4
___formal$ = 12						; size = 4
??$_Ptr_cat@UCompleteReserve@ioQuestManager@@U12@@std@@YA?AU_Nonscalar_ptr_iterator_tag@0@PAUCompleteReserve@ioQuestManager@@0@Z PROC ; std::_Ptr_cat<ioQuestManager::CompleteReserve,ioQuestManager::CompleteReserve>, COMDAT

; 516  : 	{	// return pointer category from pointers

  00000	55		 push	 ebp
  00001	8b ec		 mov	 ebp, esp
  00003	51		 push	 ecx

; 517  : 	typename _Ptr_cat_helper<_Elem1, _Elem2>::_Type _Cat;
; 518  : 	return (_Cat);

  00004	8a 45 ff	 mov	 al, BYTE PTR __Cat$[ebp]

; 519  : 	}

  00007	c9		 leave
  00008	c3		 ret	 0
??$_Ptr_cat@UCompleteReserve@ioQuestManager@@U12@@std@@YA?AU_Nonscalar_ptr_iterator_tag@0@PAUCompleteReserve@ioQuestManager@@0@Z ENDP ; std::_Ptr_cat<ioQuestManager::CompleteReserve,ioQuestManager::CompleteReserve>
_TEXT	ENDS
PUBLIC	??$forward@AAUCompleteReserve@ioQuestManager@@@std@@YAAAUCompleteReserve@ioQuestManager@@AAU12@@Z ; std::forward<ioQuestManager::CompleteReserve &>
; Function compile flags: /Ogsp
; File c:\program files (x86)\microsoft visual studio 10.0\vc\include\utility
;	COMDAT ??$forward@AAUCompleteReserve@ioQuestManager@@@std@@YAAAUCompleteReserve@ioQuestManager@@AAU12@@Z
_TEXT	SEGMENT
__Arg$ = 8						; size = 4
??$forward@AAUCompleteReserve@ioQuestManager@@@std@@YAAAUCompleteReserve@ioQuestManager@@AAU12@@Z PROC ; std::forward<ioQuestManager::CompleteReserve &>, COMDAT

; 78   : 	{	// forward _Arg, given explicitly specified type parameter

  00000	55		 push	 ebp
  00001	8b ec		 mov	 ebp, esp

; 79   : 	return ((_Ty&&)_Arg);

  00003	8b 45 08	 mov	 eax, DWORD PTR __Arg$[ebp]

; 80   : 	}

  00006	5d		 pop	 ebp
  00007	c3		 ret	 0
??$forward@AAUCompleteReserve@ioQuestManager@@@std@@YAAAUCompleteReserve@ioQuestManager@@AAU12@@Z ENDP ; std::forward<ioQuestManager::CompleteReserve &>
_TEXT	ENDS
PUBLIC	??$construct@AAUCompleteReserve@ioQuestManager@@@?$allocator@UCompleteReserve@ioQuestManager@@@std@@QAEXPAUCompleteReserve@ioQuestManager@@AAU23@@Z ; std::allocator<ioQuestManager::CompleteReserve>::construct<ioQuestManager::CompleteReserve &>
; Function compile flags: /Ogsp
; File c:\program files (x86)\microsoft visual studio 10.0\vc\include\xmemory
;	COMDAT ??$construct@AAUCompleteReserve@ioQuestManager@@@?$allocator@UCompleteReserve@ioQuestManager@@@std@@QAEXPAUCompleteReserve@ioQuestManager@@AAU23@@Z
_TEXT	SEGMENT
__Ptr$ = 8						; size = 4
__Val$ = 12						; size = 4
??$construct@AAUCompleteReserve@ioQuestManager@@@?$allocator@UCompleteReserve@ioQuestManager@@@std@@QAEXPAUCompleteReserve@ioQuestManager@@AAU23@@Z PROC ; std::allocator<ioQuestManager::CompleteReserve>::construct<ioQuestManager::CompleteReserve &>, COMDAT
; _this$ = ecx

; 206  : 		void construct(pointer _Ptr, _Other&& _Val)

  00000	55		 push	 ebp
  00001	8b ec		 mov	 ebp, esp
  00003	57		 push	 edi

; 207  : 		{	// construct object at _Ptr with value _Val
; 208  : 		::new ((void _FARQ *)_Ptr) _Ty(_STD forward<_Other>(_Val));

  00004	8b 7d 08	 mov	 edi, DWORD PTR __Ptr$[ebp]
  00007	85 ff		 test	 edi, edi
  00009	74 09		 je	 SHORT $LN3@construct@4
  0000b	56		 push	 esi
  0000c	8b 75 0c	 mov	 esi, DWORD PTR __Val$[ebp]
  0000f	a5		 movsd
  00010	a5		 movsd
  00011	a5		 movsd
  00012	a5		 movsd
  00013	5e		 pop	 esi
$LN3@construct@4:
  00014	5f		 pop	 edi

; 209  : 		}

  00015	5d		 pop	 ebp
  00016	c2 08 00	 ret	 8
??$construct@AAUCompleteReserve@ioQuestManager@@@?$allocator@UCompleteReserve@ioQuestManager@@@std@@QAEXPAUCompleteReserve@ioQuestManager@@AAU23@@Z ENDP ; std::allocator<ioQuestManager::CompleteReserve>::construct<ioQuestManager::CompleteReserve &>
_TEXT	ENDS
PUBLIC	??$forward@ABUCompleteReserve@ioQuestManager@@@std@@YAABUCompleteReserve@ioQuestManager@@ABU12@@Z ; std::forward<ioQuestManager::CompleteReserve const &>
; Function compile flags: /Ogsp
; File c:\program files (x86)\microsoft visual studio 10.0\vc\include\utility
;	COMDAT ??$forward@ABUCompleteReserve@ioQuestManager@@@std@@YAABUCompleteReserve@ioQuestManager@@ABU12@@Z
_TEXT	SEGMENT
__Arg$ = 8						; size = 4
??$forward@ABUCompleteReserve@ioQuestManager@@@std@@YAABUCompleteReserve@ioQuestManager@@ABU12@@Z PROC ; std::forward<ioQuestManager::CompleteReserve const &>, COMDAT

; 78   : 	{	// forward _Arg, given explicitly specified type parameter

  00000	55		 push	 ebp
  00001	8b ec		 mov	 ebp, esp

; 79   : 	return ((_Ty&&)_Arg);

  00003	8b 45 08	 mov	 eax, DWORD PTR __Arg$[ebp]

; 80   : 	}

  00006	5d		 pop	 ebp
  00007	c3		 ret	 0
??$forward@ABUCompleteReserve@ioQuestManager@@@std@@YAABUCompleteReserve@ioQuestManager@@ABU12@@Z ENDP ; std::forward<ioQuestManager::CompleteReserve const &>
_TEXT	ENDS
PUBLIC	??$_Destroy_range@V?$allocator@PAVQuestParent@@@std@@@std@@YAXPAPAVQuestParent@@0AAV?$allocator@PAVQuestParent@@@0@U_Scalar_ptr_iterator_tag@0@@Z ; std::_Destroy_range<std::allocator<QuestParent *> >
; Function compile flags: /Ogsp
; File c:\program files (x86)\microsoft visual studio 10.0\vc\include\xmemory
;	COMDAT ??$_Destroy_range@V?$allocator@PAVQuestParent@@@std@@@std@@YAXPAPAVQuestParent@@0AAV?$allocator@PAVQuestParent@@@0@U_Scalar_ptr_iterator_tag@0@@Z
_TEXT	SEGMENT
__First$ = 8						; size = 4
__Last$ = 12						; size = 4
__Al$ = 16						; size = 4
___formal$ = 20						; size = 1
??$_Destroy_range@V?$allocator@PAVQuestParent@@@std@@@std@@YAXPAPAVQuestParent@@0AAV?$allocator@PAVQuestParent@@@0@U_Scalar_ptr_iterator_tag@0@@Z PROC ; std::_Destroy_range<std::allocator<QuestParent *> >, COMDAT

; 105  : 	}

  00000	c3		 ret	 0
??$_Destroy_range@V?$allocator@PAVQuestParent@@@std@@@std@@YAXPAPAVQuestParent@@0AAV?$allocator@PAVQuestParent@@@0@U_Scalar_ptr_iterator_tag@0@@Z ENDP ; std::_Destroy_range<std::allocator<QuestParent *> >
_TEXT	ENDS
PUBLIC	??$_Ptr_cat@PAUQuestHelp@ioQuestManager@@PAU12@@std@@YA?AU_Scalar_ptr_iterator_tag@0@PAPAUQuestHelp@ioQuestManager@@0@Z ; std::_Ptr_cat<ioQuestManager::QuestHelp *,ioQuestManager::QuestHelp *>
; Function compile flags: /Ogsp
; File c:\program files (x86)\microsoft visual studio 10.0\vc\include\xutility
;	COMDAT ??$_Ptr_cat@PAUQuestHelp@ioQuestManager@@PAU12@@std@@YA?AU_Scalar_ptr_iterator_tag@0@PAPAUQuestHelp@ioQuestManager@@0@Z
_TEXT	SEGMENT
__Cat$ = -1						; size = 1
___formal$ = 8						; size = 4
___formal$ = 12						; size = 4
??$_Ptr_cat@PAUQuestHelp@ioQuestManager@@PAU12@@std@@YA?AU_Scalar_ptr_iterator_tag@0@PAPAUQuestHelp@ioQuestManager@@0@Z PROC ; std::_Ptr_cat<ioQuestManager::QuestHelp *,ioQuestManager::QuestHelp *>, COMDAT

; 516  : 	{	// return pointer category from pointers

  00000	55		 push	 ebp
  00001	8b ec		 mov	 ebp, esp
  00003	51		 push	 ecx

; 517  : 	typename _Ptr_cat_helper<_Elem1, _Elem2>::_Type _Cat;
; 518  : 	return (_Cat);

  00004	8a 45 ff	 mov	 al, BYTE PTR __Cat$[ebp]

; 519  : 	}

  00007	c9		 leave
  00008	c3		 ret	 0
??$_Ptr_cat@PAUQuestHelp@ioQuestManager@@PAU12@@std@@YA?AU_Scalar_ptr_iterator_tag@0@PAPAUQuestHelp@ioQuestManager@@0@Z ENDP ; std::_Ptr_cat<ioQuestManager::QuestHelp *,ioQuestManager::QuestHelp *>
_TEXT	ENDS
PUBLIC	??$_Destroy_range@V?$allocator@PAUQuestHelp@ioQuestManager@@@std@@@std@@YAXPAPAUQuestHelp@ioQuestManager@@0AAV?$allocator@PAUQuestHelp@ioQuestManager@@@0@U_Scalar_ptr_iterator_tag@0@@Z ; std::_Destroy_range<std::allocator<ioQuestManager::QuestHelp *> >
; Function compile flags: /Ogsp
; File c:\program files (x86)\microsoft visual studio 10.0\vc\include\xmemory
;	COMDAT ??$_Destroy_range@V?$allocator@PAUQuestHelp@ioQuestManager@@@std@@@std@@YAXPAPAUQuestHelp@ioQuestManager@@0AAV?$allocator@PAUQuestHelp@ioQuestManager@@@0@U_Scalar_ptr_iterator_tag@0@@Z
_TEXT	SEGMENT
__First$ = 8						; size = 4
__Last$ = 12						; size = 4
__Al$ = 16						; size = 4
___formal$ = 20						; size = 1
??$_Destroy_range@V?$allocator@PAUQuestHelp@ioQuestManager@@@std@@@std@@YAXPAPAUQuestHelp@ioQuestManager@@0AAV?$allocator@PAUQuestHelp@ioQuestManager@@@0@U_Scalar_ptr_iterator_tag@0@@Z PROC ; std::_Destroy_range<std::allocator<ioQuestManager::QuestHelp *> >, COMDAT

; 105  : 	}

  00000	c3		 ret	 0
??$_Destroy_range@V?$allocator@PAUQuestHelp@ioQuestManager@@@std@@@std@@YAXPAPAUQuestHelp@ioQuestManager@@0AAV?$allocator@PAUQuestHelp@ioQuestManager@@@0@U_Scalar_ptr_iterator_tag@0@@Z ENDP ; std::_Destroy_range<std::allocator<ioQuestManager::QuestHelp *> >
_TEXT	ENDS
PUBLIC	??$_Construct@PAVQuestParent@@ABQAV1@@std@@YAXPAPAVQuestParent@@ABQAV1@@Z ; std::_Construct<QuestParent *,QuestParent * const &>
; Function compile flags: /Ogsp
;	COMDAT ??$_Construct@PAVQuestParent@@ABQAV1@@std@@YAXPAPAVQuestParent@@ABQAV1@@Z
_TEXT	SEGMENT
__Ptr$ = 8						; size = 4
__Val$ = 12						; size = 4
??$_Construct@PAVQuestParent@@ABQAV1@@std@@YAXPAPAVQuestParent@@ABQAV1@@Z PROC ; std::_Construct<QuestParent *,QuestParent * const &>, COMDAT

; 46   : 	{	// construct object at _Ptr with value _Val

  00000	55		 push	 ebp
  00001	8b ec		 mov	 ebp, esp

; 47   : 	void _FARQ *_Vptr = _Ptr;
; 48   : 	::new (_Vptr) _Ty1(_STD forward<_Ty2>(_Val));

  00003	8b 45 08	 mov	 eax, DWORD PTR __Ptr$[ebp]
  00006	85 c0		 test	 eax, eax
  00008	74 07		 je	 SHORT $LN3@Construct
  0000a	8b 4d 0c	 mov	 ecx, DWORD PTR __Val$[ebp]
  0000d	8b 09		 mov	 ecx, DWORD PTR [ecx]
  0000f	89 08		 mov	 DWORD PTR [eax], ecx
$LN3@Construct:

; 49   : 	}

  00011	5d		 pop	 ebp
  00012	c3		 ret	 0
??$_Construct@PAVQuestParent@@ABQAV1@@std@@YAXPAPAVQuestParent@@ABQAV1@@Z ENDP ; std::_Construct<QuestParent *,QuestParent * const &>
_TEXT	ENDS
PUBLIC	??$_Construct@UQuestDelAndFail@ioQuestManager@@ABU12@@std@@YAXPAUQuestDelAndFail@ioQuestManager@@ABU12@@Z ; std::_Construct<ioQuestManager::QuestDelAndFail,ioQuestManager::QuestDelAndFail const &>
; Function compile flags: /Ogsp
;	COMDAT ??$_Construct@UQuestDelAndFail@ioQuestManager@@ABU12@@std@@YAXPAUQuestDelAndFail@ioQuestManager@@ABU12@@Z
_TEXT	SEGMENT
__Ptr$ = 8						; size = 4
__Val$ = 12						; size = 4
??$_Construct@UQuestDelAndFail@ioQuestManager@@ABU12@@std@@YAXPAUQuestDelAndFail@ioQuestManager@@ABU12@@Z PROC ; std::_Construct<ioQuestManager::QuestDelAndFail,ioQuestManager::QuestDelAndFail const &>, COMDAT

; 46   : 	{	// construct object at _Ptr with value _Val

  00000	55		 push	 ebp
  00001	8b ec		 mov	 ebp, esp

; 47   : 	void _FARQ *_Vptr = _Ptr;
; 48   : 	::new (_Vptr) _Ty1(_STD forward<_Ty2>(_Val));

  00003	8b 45 08	 mov	 eax, DWORD PTR __Ptr$[ebp]
  00006	85 c0		 test	 eax, eax
  00008	74 0d		 je	 SHORT $LN3@Construct@2
  0000a	8b 4d 0c	 mov	 ecx, DWORD PTR __Val$[ebp]
  0000d	8b 11		 mov	 edx, DWORD PTR [ecx]
  0000f	89 10		 mov	 DWORD PTR [eax], edx
  00011	8b 49 04	 mov	 ecx, DWORD PTR [ecx+4]
  00014	89 48 04	 mov	 DWORD PTR [eax+4], ecx
$LN3@Construct@2:

; 49   : 	}

  00017	5d		 pop	 ebp
  00018	c3		 ret	 0
??$_Construct@UQuestDelAndFail@ioQuestManager@@ABU12@@std@@YAXPAUQuestDelAndFail@ioQuestManager@@ABU12@@Z ENDP ; std::_Construct<ioQuestManager::QuestDelAndFail,ioQuestManager::QuestDelAndFail const &>
_TEXT	ENDS
PUBLIC	??$_Destroy@U?$pair@$$CBKUQuestReward@ioQuestManager@@@std@@@std@@YAXPAU?$pair@$$CBKUQuestReward@ioQuestManager@@@0@@Z ; std::_Destroy<std::pair<unsigned long const ,ioQuestManager::QuestReward> >
; Function compile flags: /Ogsp
;	COMDAT ??$_Destroy@U?$pair@$$CBKUQuestReward@ioQuestManager@@@std@@@std@@YAXPAU?$pair@$$CBKUQuestReward@ioQuestManager@@@0@@Z
_TEXT	SEGMENT
__Ptr$ = 8						; size = 4
??$_Destroy@U?$pair@$$CBKUQuestReward@ioQuestManager@@@std@@@std@@YAXPAU?$pair@$$CBKUQuestReward@ioQuestManager@@@0@@Z PROC ; std::_Destroy<std::pair<unsigned long const ,ioQuestManager::QuestReward> >, COMDAT

; 63   : 	_Ptr->~_Ty();
; 64   : 	}

  00000	c3		 ret	 0
??$_Destroy@U?$pair@$$CBKUQuestReward@ioQuestManager@@@std@@@std@@YAXPAU?$pair@$$CBKUQuestReward@ioQuestManager@@@0@@Z ENDP ; std::_Destroy<std::pair<unsigned long const ,ioQuestManager::QuestReward> >
_TEXT	ENDS
PUBLIC	??$_Construct@PAUQuestHelp@ioQuestManager@@ABQAU12@@std@@YAXPAPAUQuestHelp@ioQuestManager@@ABQAU12@@Z ; std::_Construct<ioQuestManager::QuestHelp *,ioQuestManager::QuestHelp * const &>
; Function compile flags: /Ogsp
;	COMDAT ??$_Construct@PAUQuestHelp@ioQuestManager@@ABQAU12@@std@@YAXPAPAUQuestHelp@ioQuestManager@@ABQAU12@@Z
_TEXT	SEGMENT
__Ptr$ = 8						; size = 4
__Val$ = 12						; size = 4
??$_Construct@PAUQuestHelp@ioQuestManager@@ABQAU12@@std@@YAXPAPAUQuestHelp@ioQuestManager@@ABQAU12@@Z PROC ; std::_Construct<ioQuestManager::QuestHelp *,ioQuestManager::QuestHelp * const &>, COMDAT

; 46   : 	{	// construct object at _Ptr with value _Val

  00000	55		 push	 ebp
  00001	8b ec		 mov	 ebp, esp

; 47   : 	void _FARQ *_Vptr = _Ptr;
; 48   : 	::new (_Vptr) _Ty1(_STD forward<_Ty2>(_Val));

  00003	8b 45 08	 mov	 eax, DWORD PTR __Ptr$[ebp]
  00006	85 c0		 test	 eax, eax
  00008	74 07		 je	 SHORT $LN3@Construct@3
  0000a	8b 4d 0c	 mov	 ecx, DWORD PTR __Val$[ebp]
  0000d	8b 09		 mov	 ecx, DWORD PTR [ecx]
  0000f	89 08		 mov	 DWORD PTR [eax], ecx
$LN3@Construct@3:

; 49   : 	}

  00011	5d		 pop	 ebp
  00012	c3		 ret	 0
??$_Construct@PAUQuestHelp@ioQuestManager@@ABQAU12@@std@@YAXPAPAUQuestHelp@ioQuestManager@@ABQAU12@@Z ENDP ; std::_Construct<ioQuestManager::QuestHelp *,ioQuestManager::QuestHelp * const &>
_TEXT	ENDS
PUBLIC	??$_Construct@UCompleteReserve@ioQuestManager@@ABU12@@std@@YAXPAUCompleteReserve@ioQuestManager@@ABU12@@Z ; std::_Construct<ioQuestManager::CompleteReserve,ioQuestManager::CompleteReserve const &>
; Function compile flags: /Ogsp
;	COMDAT ??$_Construct@UCompleteReserve@ioQuestManager@@ABU12@@std@@YAXPAUCompleteReserve@ioQuestManager@@ABU12@@Z
_TEXT	SEGMENT
__Ptr$ = 8						; size = 4
__Val$ = 12						; size = 4
??$_Construct@UCompleteReserve@ioQuestManager@@ABU12@@std@@YAXPAUCompleteReserve@ioQuestManager@@ABU12@@Z PROC ; std::_Construct<ioQuestManager::CompleteReserve,ioQuestManager::CompleteReserve const &>, COMDAT

; 46   : 	{	// construct object at _Ptr with value _Val

  00000	55		 push	 ebp
  00001	8b ec		 mov	 ebp, esp
  00003	57		 push	 edi

; 47   : 	void _FARQ *_Vptr = _Ptr;
; 48   : 	::new (_Vptr) _Ty1(_STD forward<_Ty2>(_Val));

  00004	8b 7d 08	 mov	 edi, DWORD PTR __Ptr$[ebp]
  00007	85 ff		 test	 edi, edi
  00009	74 09		 je	 SHORT $LN3@Construct@4
  0000b	56		 push	 esi
  0000c	8b 75 0c	 mov	 esi, DWORD PTR __Val$[ebp]
  0000f	a5		 movsd
  00010	a5		 movsd
  00011	a5		 movsd
  00012	a5		 movsd
  00013	5e		 pop	 esi
$LN3@Construct@4:
  00014	5f		 pop	 edi

; 49   : 	}

  00015	5d		 pop	 ebp
  00016	c3		 ret	 0
