; Listing generated by Microsoft (R) Optimizing Compiler Version 16.00.30319.01 

	TITLE	D:\Lost Saga For Developer\Youtube\Tutorial\Source\src\LSClient\ioQuest.cpp
	.686P
	.XMM
	include listing.inc
	.model	flat

INCLUDELIB MSVCRT
INCLUDELIB OLDNAMES

PUBLIC	??_7QuestDataParent@@6B@			; QuestDataParent::`vftable'
PUBLIC	??0QuestDataParent@@QAE@XZ			; QuestDataParent::QuestDataParent
PUBLIC	??_R4QuestDataParent@@6B@			; QuestDataParent::`RTTI Complete Object Locator'
PUBLIC	??_R0?AVQuestDataParent@@@8			; QuestDataParent `RTTI Type Descriptor'
PUBLIC	??_R3QuestDataParent@@8				; QuestDataParent::`RTTI Class Hierarchy Descriptor'
PUBLIC	??_R2QuestDataParent@@8				; QuestDataParent::`RTTI Base Class Array'
PUBLIC	??_R1A@?0A@EA@QuestDataParent@@8		; QuestDataParent::`RTTI Base Class Descriptor at (0,-1,0,64)'
PUBLIC	?GetIndexData@QuestDataParent@@UBE?BKXZ		; QuestDataParent::GetIndexData
PUBLIC	?GetDateData@QuestDataParent@@UBE?BKXZ		; QuestDataParent::GetDateData
PUBLIC	?GetLinkQuest@QuestDataParent@@UAEPAVQuestParent@@XZ ; QuestDataParent::GetLinkQuest
EXTRN	??_7type_info@@6B@:QWORD			; type_info::`vftable'
EXTRN	??_EQuestDataParent@@UAEPAXI@Z:PROC		; QuestDataParent::`vector deleting destructor'
;	COMDAT ??_R1A@?0A@EA@QuestDataParent@@8
; File d:\lost saga for developer\youtube\tutorial\source\src\lsclient\ioquest.cpp
rdata$r	SEGMENT
??_R1A@?0A@EA@QuestDataParent@@8 DD FLAT:??_R0?AVQuestDataParent@@@8 ; QuestDataParent::`RTTI Base Class Descriptor at (0,-1,0,64)'
	DD	00H
	DD	00H
	DD	0ffffffffH
	DD	00H
	DD	040H
	DD	FLAT:??_R3QuestDataParent@@8
rdata$r	ENDS
;	COMDAT ??_R2QuestDataParent@@8
rdata$r	SEGMENT
??_R2QuestDataParent@@8 DD FLAT:??_R1A@?0A@EA@QuestDataParent@@8 ; QuestDataParent::`RTTI Base Class Array'
rdata$r	ENDS
;	COMDAT ??_R3QuestDataParent@@8
rdata$r	SEGMENT
??_R3QuestDataParent@@8 DD 00H				; QuestDataParent::`RTTI Class Hierarchy Descriptor'
	DD	00H
	DD	01H
	DD	FLAT:??_R2QuestDataParent@@8
rdata$r	ENDS
;	COMDAT ??_R0?AVQuestDataParent@@@8
_DATA	SEGMENT
??_R0?AVQuestDataParent@@@8 DD FLAT:??_7type_info@@6B@	; QuestDataParent `RTTI Type Descriptor'
	DD	00H
	DB	'.?AVQuestDataParent@@', 00H
_DATA	ENDS
;	COMDAT ??_R4QuestDataParent@@6B@
rdata$r	SEGMENT
??_R4QuestDataParent@@6B@ DD 00H			; QuestDataParent::`RTTI Complete Object Locator'
	DD	00H
	DD	00H
	DD	FLAT:??_R0?AVQuestDataParent@@@8
	DD	FLAT:??_R3QuestDataParent@@8
rdata$r	ENDS
;	COMDAT ??_7QuestDataParent@@6B@
CONST	SEGMENT
??_7QuestDataParent@@6B@ DD FLAT:??_R4QuestDataParent@@6B@ ; QuestDataParent::`vftable'
	DD	FLAT:?GetIndexData@QuestDataParent@@UBE?BKXZ
	DD	FLAT:?GetDateData@QuestDataParent@@UBE?BKXZ
	DD	FLAT:?GetLinkQuest@QuestDataParent@@UAEPAVQuestParent@@XZ
	DD	FLAT:??_EQuestDataParent@@UAEPAXI@Z
; Function compile flags: /Ogsp
CONST	ENDS
;	COMDAT ??0QuestDataParent@@QAE@XZ
_TEXT	SEGMENT
??0QuestDataParent@@QAE@XZ PROC				; QuestDataParent::QuestDataParent, COMDAT
; _this$ = ecx

; 9    : {

  00000	8b c1		 mov	 eax, ecx

; 10   : 	m_dwIndexData = m_dwDateData = 0;

  00002	33 c9		 xor	 ecx, ecx
  00004	c7 00 00 00 00
	00		 mov	 DWORD PTR [eax], OFFSET ??_7QuestDataParent@@6B@
  0000a	89 48 08	 mov	 DWORD PTR [eax+8], ecx
  0000d	89 48 04	 mov	 DWORD PTR [eax+4], ecx

; 11   : 	m_pLinkQuest = NULL;

  00010	89 48 0c	 mov	 DWORD PTR [eax+12], ecx

; 12   : }

  00013	c3		 ret	 0
??0QuestDataParent@@QAE@XZ ENDP				; QuestDataParent::QuestDataParent
_TEXT	ENDS
PUBLIC	??1QuestDataParent@@UAE@XZ			; QuestDataParent::~QuestDataParent
; Function compile flags: /Ogsp
;	COMDAT ??1QuestDataParent@@UAE@XZ
_TEXT	SEGMENT
??1QuestDataParent@@UAE@XZ PROC				; QuestDataParent::~QuestDataParent, COMDAT
; _this$ = ecx

; 15   : {

  00000	c7 01 00 00 00
	00		 mov	 DWORD PTR [ecx], OFFSET ??_7QuestDataParent@@6B@

; 16   : 
; 17   : }

  00006	c3		 ret	 0
??1QuestDataParent@@UAE@XZ ENDP				; QuestDataParent::~QuestDataParent
_TEXT	ENDS
PUBLIC	?GetMainIndex@QuestDataParent@@QAEKXZ		; QuestDataParent::GetMainIndex
; Function compile flags: /Ogsp
;	COMDAT ?GetMainIndex@QuestDataParent@@QAEKXZ
_TEXT	SEGMENT
?GetMainIndex@QuestDataParent@@QAEKXZ PROC		; QuestDataParent::GetMainIndex, COMDAT
; _this$ = ecx

; 21   : 	return m_dwIndexData / INDEX_HALF_VALUE;

  00000	8b 41 04	 mov	 eax, DWORD PTR [ecx+4]
  00003	33 d2		 xor	 edx, edx
  00005	b9 10 27 00 00	 mov	 ecx, 10000		; 00002710H
  0000a	f7 f1		 div	 ecx

; 22   : }

  0000c	c3		 ret	 0
?GetMainIndex@QuestDataParent@@QAEKXZ ENDP		; QuestDataParent::GetMainIndex
_TEXT	ENDS
PUBLIC	?GetSubIndex@QuestDataParent@@QAEKXZ		; QuestDataParent::GetSubIndex
; Function compile flags: /Ogsp
;	COMDAT ?GetSubIndex@QuestDataParent@@QAEKXZ
_TEXT	SEGMENT
?GetSubIndex@QuestDataParent@@QAEKXZ PROC		; QuestDataParent::GetSubIndex, COMDAT
; _this$ = ecx

; 26   : 	return m_dwIndexData % INDEX_HALF_VALUE;

  00000	8b 41 04	 mov	 eax, DWORD PTR [ecx+4]
  00003	33 d2		 xor	 edx, edx
  00005	b9 10 27 00 00	 mov	 ecx, 10000		; 00002710H
  0000a	f7 f1		 div	 ecx
  0000c	8b c2		 mov	 eax, edx

; 27   : }

  0000e	c3		 ret	 0
?GetSubIndex@QuestDataParent@@QAEKXZ ENDP		; QuestDataParent::GetSubIndex
_TEXT	ENDS
PUBLIC	?GetYear@QuestDataParent@@QAEKXZ		; QuestDataParent::GetYear
EXTRN	?GetYear@ioTime@@YAKK@Z:PROC			; ioTime::GetYear
; Function compile flags: /Ogsp
;	COMDAT ?GetYear@QuestDataParent@@QAEKXZ
_TEXT	SEGMENT
?GetYear@QuestDataParent@@QAEKXZ PROC			; QuestDataParent::GetYear, COMDAT
; _this$ = ecx

; 31   : 	return ioTime::GetYear( m_dwDateData );

  00000	ff 71 08	 push	 DWORD PTR [ecx+8]
  00003	e8 00 00 00 00	 call	 ?GetYear@ioTime@@YAKK@Z	; ioTime::GetYear
  00008	59		 pop	 ecx

; 32   : }

  00009	c3		 ret	 0
?GetYear@QuestDataParent@@QAEKXZ ENDP			; QuestDataParent::GetYear
_TEXT	ENDS
PUBLIC	?GetMonth@QuestDataParent@@QAEKXZ		; QuestDataParent::GetMonth
EXTRN	?GetMonth@ioTime@@YAKK@Z:PROC			; ioTime::GetMonth
; Function compile flags: /Ogsp
;	COMDAT ?GetMonth@QuestDataParent@@QAEKXZ
_TEXT	SEGMENT
?GetMonth@QuestDataParent@@QAEKXZ PROC			; QuestDataParent::GetMonth, COMDAT
; _this$ = ecx

; 36   : 	return ioTime::GetMonth( m_dwDateData );

  00000	ff 71 08	 push	 DWORD PTR [ecx+8]
  00003	e8 00 00 00 00	 call	 ?GetMonth@ioTime@@YAKK@Z ; ioTime::GetMonth
  00008	59		 pop	 ecx

; 37   : }

  00009	c3		 ret	 0
?GetMonth@QuestDataParent@@QAEKXZ ENDP			; QuestDataParent::GetMonth
_TEXT	ENDS
PUBLIC	?GetDay@QuestDataParent@@QAEKXZ			; QuestDataParent::GetDay
EXTRN	?GetDay@ioTime@@YAKK@Z:PROC			; ioTime::GetDay
; Function compile flags: /Ogsp
;	COMDAT ?GetDay@QuestDataParent@@QAEKXZ
_TEXT	SEGMENT
?GetDay@QuestDataParent@@QAEKXZ PROC			; QuestDataParent::GetDay, COMDAT
; _this$ = ecx

; 41   : 	return ioTime::GetDay( m_dwDateData );

  00000	ff 71 08	 push	 DWORD PTR [ecx+8]
  00003	e8 00 00 00 00	 call	 ?GetDay@ioTime@@YAKK@Z	; ioTime::GetDay
  00008	59		 pop	 ecx

; 42   : }

  00009	c3		 ret	 0
?GetDay@QuestDataParent@@QAEKXZ ENDP			; QuestDataParent::GetDay
_TEXT	ENDS
PUBLIC	?GetHour@QuestDataParent@@QAEKXZ		; QuestDataParent::GetHour
EXTRN	?GetHour@ioTime@@YAKK@Z:PROC			; ioTime::GetHour
; Function compile flags: /Ogsp
;	COMDAT ?GetHour@QuestDataParent@@QAEKXZ
_TEXT	SEGMENT
?GetHour@QuestDataParent@@QAEKXZ PROC			; QuestDataParent::GetHour, COMDAT
; _this$ = ecx

; 46   : 	return ioTime::GetHour( m_dwDateData );

  00000	ff 71 08	 push	 DWORD PTR [ecx+8]
  00003	e8 00 00 00 00	 call	 ?GetHour@ioTime@@YAKK@Z	; ioTime::GetHour
  00008	59		 pop	 ecx

; 47   : }

  00009	c3		 ret	 0
?GetHour@QuestDataParent@@QAEKXZ ENDP			; QuestDataParent::GetHour
_TEXT	ENDS
PUBLIC	?GetMinute@QuestDataParent@@QAEKXZ		; QuestDataParent::GetMinute
EXTRN	?GetMinute@ioTime@@YAKK@Z:PROC			; ioTime::GetMinute
; Function compile flags: /Ogsp
;	COMDAT ?GetMinute@QuestDataParent@@QAEKXZ
_TEXT	SEGMENT
?GetMinute@QuestDataParent@@QAEKXZ PROC			; QuestDataParent::GetMinute, COMDAT
; _this$ = ecx

; 51   : 	return ioTime::GetMinute( m_dwDateData );

  00000	ff 71 08	 push	 DWORD PTR [ecx+8]
  00003	e8 00 00 00 00	 call	 ?GetMinute@ioTime@@YAKK@Z ; ioTime::GetMinute
  00008	59		 pop	 ecx

; 52   : }

  00009	c3		 ret	 0
?GetMinute@QuestDataParent@@QAEKXZ ENDP			; QuestDataParent::GetMinute
_TEXT	ENDS
PUBLIC	?SetIndexData@QuestDataParent@@QAEXK@Z		; QuestDataParent::SetIndexData
; Function compile flags: /Ogsp
;	COMDAT ?SetIndexData@QuestDataParent@@QAEXK@Z
_TEXT	SEGMENT
_dwIndexData$ = 8					; size = 4
?SetIndexData@QuestDataParent@@QAEXK@Z PROC		; QuestDataParent::SetIndexData, COMDAT
; _this$ = ecx

; 64   : {

  00000	55		 push	 ebp
  00001	8b ec		 mov	 ebp, esp

; 65   : 	m_dwIndexData = dwIndexData;

  00003	8b 45 08	 mov	 eax, DWORD PTR _dwIndexData$[ebp]
  00006	89 41 04	 mov	 DWORD PTR [ecx+4], eax

; 66   : }

  00009	5d		 pop	 ebp
  0000a	c2 04 00	 ret	 4
?SetIndexData@QuestDataParent@@QAEXK@Z ENDP		; QuestDataParent::SetIndexData
_TEXT	ENDS
PUBLIC	?SetDateData@QuestDataParent@@QAEXK@Z		; QuestDataParent::SetDateData
; Function compile flags: /Ogsp
;	COMDAT ?SetDateData@QuestDataParent@@QAEXK@Z
_TEXT	SEGMENT
_dwDateData$ = 8					; size = 4
?SetDateData@QuestDataParent@@QAEXK@Z PROC		; QuestDataParent::SetDateData, COMDAT
; _this$ = ecx

; 69   : {

  00000	55		 push	 ebp
  00001	8b ec		 mov	 ebp, esp

; 70   : 	m_dwDateData = dwDateData;

  00003	8b 45 08	 mov	 eax, DWORD PTR _dwDateData$[ebp]
  00006	89 41 08	 mov	 DWORD PTR [ecx+8], eax

; 71   : }

  00009	5d		 pop	 ebp
  0000a	c2 04 00	 ret	 4
?SetDateData@QuestDataParent@@QAEXK@Z ENDP		; QuestDataParent::SetDateData
_TEXT	ENDS
PUBLIC	?SetLinkQuest@QuestDataParent@@QAEXPAVQuestParent@@@Z ; QuestDataParent::SetLinkQuest
; Function compile flags: /Ogsp
;	COMDAT ?SetLinkQuest@QuestDataParent@@QAEXPAVQuestParent@@@Z
_TEXT	SEGMENT
_pQuest$ = 8						; size = 4
?SetLinkQuest@QuestDataParent@@QAEXPAVQuestParent@@@Z PROC ; QuestDataParent::SetLinkQuest, COMDAT
; _this$ = ecx

; 74   : {

  00000	55		 push	 ebp
  00001	8b ec		 mov	 ebp, esp

; 75   : 	m_pLinkQuest = pQuest;

  00003	8b 45 08	 mov	 eax, DWORD PTR _pQuest$[ebp]
  00006	89 41 0c	 mov	 DWORD PTR [ecx+12], eax

; 76   : }

  00009	5d		 pop	 ebp
  0000a	c2 04 00	 ret	 4
?SetLinkQuest@QuestDataParent@@QAEXPAVQuestParent@@@Z ENDP ; QuestDataParent::SetLinkQuest
_TEXT	ENDS
PUBLIC	?GetCurrentMagicData@QuestData@@QAEKXZ		; QuestData::GetCurrentMagicData
; Function compile flags: /Ogsp
;	COMDAT ?GetCurrentMagicData@QuestData@@QAEKXZ
_TEXT	SEGMENT
?GetCurrentMagicData@QuestData@@QAEKXZ PROC		; QuestData::GetCurrentMagicData, COMDAT
; _this$ = ecx

; 105  : 	return m_dwMagicData / MAGIC_VALUE;

  00000	8b 41 40	 mov	 eax, DWORD PTR [ecx+64]
  00003	6a 64		 push	 100			; 00000064H
  00005	33 d2		 xor	 edx, edx
  00007	59		 pop	 ecx
  00008	f7 f1		 div	 ecx

; 106  : }

  0000a	c3		 ret	 0
?GetCurrentMagicData@QuestData@@QAEKXZ ENDP		; QuestData::GetCurrentMagicData
_TEXT	ENDS
PUBLIC	?IsAlarm@QuestData@@QAE_NXZ			; QuestData::IsAlarm
; Function compile flags: /Ogsp
;	COMDAT ?IsAlarm@QuestData@@QAE_NXZ
_TEXT	SEGMENT
?IsAlarm@QuestData@@QAE_NXZ PROC			; QuestData::IsAlarm, COMDAT
; _this$ = ecx

; 110  : 	if( ( ( m_dwMagicData % MAGIC_VALUE ) / ALARM_VALUE ) == 0 )

  00000	8b 41 40	 mov	 eax, DWORD PTR [ecx+64]
  00003	6a 64		 push	 100			; 00000064H
  00005	33 d2		 xor	 edx, edx
  00007	59		 pop	 ecx
  00008	f7 f1		 div	 ecx
  0000a	6a 0a		 push	 10			; 0000000aH
  0000c	59		 pop	 ecx
  0000d	8b c2		 mov	 eax, edx
  0000f	33 d2		 xor	 edx, edx
  00011	f7 f1		 div	 ecx
  00013	85 c0		 test	 eax, eax
  00015	0f 95 c0	 setne	 al

; 111  : 		return false;
; 112  : 	return true;
; 113  : }

  00018	c3		 ret	 0
?IsAlarm@QuestData@@QAE_NXZ ENDP			; QuestData::IsAlarm
_TEXT	ENDS
PUBLIC	?GetState@QuestData@@QAEKXZ			; QuestData::GetState
; Function compile flags: /Ogsp
;	COMDAT ?GetState@QuestData@@QAEKXZ
_TEXT	SEGMENT
?GetState@QuestData@@QAEKXZ PROC			; QuestData::GetState, COMDAT
; _this$ = ecx

; 117  : 	return ( m_dwMagicData % ALARM_VALUE );

  00000	8b 41 40	 mov	 eax, DWORD PTR [ecx+64]
  00003	6a 0a		 push	 10			; 0000000aH
  00005	33 d2		 xor	 edx, edx
  00007	59		 pop	 ecx
  00008	f7 f1		 div	 ecx
  0000a	8b c2		 mov	 eax, edx

; 118  : }

  0000c	c3		 ret	 0
?GetState@QuestData@@QAEKXZ ENDP			; QuestData::GetState
_TEXT	ENDS
PUBLIC	?SetMainIndex@QuestData@@QAEXK@Z		; QuestData::SetMainIndex
EXTRN	?GetQuest@ioQuestManager@@QAEPAVQuestParent@@KK@Z:PROC ; ioQuestManager::GetQuest
EXTRN	?GetSingleton@ioQuestManager@@SAAAV1@XZ:PROC	; ioQuestManager::GetSingleton
; Function compile flags: /Ogsp
;	COMDAT ?SetMainIndex@QuestData@@QAEXK@Z
_TEXT	SEGMENT
_dwMainIndex$ = 8					; size = 4
?SetMainIndex@QuestData@@QAEXK@Z PROC			; QuestData::SetMainIndex, COMDAT
; _this$ = ecx

; 121  : {

  00000	55		 push	 ebp
  00001	8b ec		 mov	 ebp, esp
  00003	53		 push	 ebx
  00004	56		 push	 esi
  00005	8b f1		 mov	 esi, ecx

; 122  : 	m_dwIndexData = (dwMainIndex * INDEX_HALF_VALUE) + GetSubIndex();

  00007	8b 46 04	 mov	 eax, DWORD PTR [esi+4]
  0000a	b9 10 27 00 00	 mov	 ecx, 10000		; 00002710H
  0000f	33 d2		 xor	 edx, edx
  00011	8b d9		 mov	 ebx, ecx
  00013	f7 f3		 div	 ebx
  00015	57		 push	 edi
  00016	8b 7d 08	 mov	 edi, DWORD PTR _dwMainIndex$[ebp]
  00019	69 ff 10 27 00
	00		 imul	 edi, 10000		; 00002710H
  0001f	8d 04 17	 lea	 eax, DWORD PTR [edi+edx]

; 123  : 	SetLinkQuest( g_QuestMgr.GetQuest( GetMainIndex(), GetSubIndex() ) );

  00022	33 d2		 xor	 edx, edx
  00024	89 46 04	 mov	 DWORD PTR [esi+4], eax
  00027	f7 f1		 div	 ecx
  00029	52		 push	 edx
  0002a	50		 push	 eax
  0002b	e8 00 00 00 00	 call	 ?GetSingleton@ioQuestManager@@SAAAV1@XZ ; ioQuestManager::GetSingleton
  00030	8b c8		 mov	 ecx, eax
  00032	e8 00 00 00 00	 call	 ?GetQuest@ioQuestManager@@QAEPAVQuestParent@@KK@Z ; ioQuestManager::GetQuest
  00037	5f		 pop	 edi
  00038	89 46 0c	 mov	 DWORD PTR [esi+12], eax
  0003b	5e		 pop	 esi
  0003c	5b		 pop	 ebx

; 124  : }

  0003d	5d		 pop	 ebp
  0003e	c2 04 00	 ret	 4
?SetMainIndex@QuestData@@QAEXK@Z ENDP			; QuestData::SetMainIndex
_TEXT	ENDS
PUBLIC	?SetSubIndex@QuestData@@QAEXK@Z			; QuestData::SetSubIndex
; Function compile flags: /Ogsp
;	COMDAT ?SetSubIndex@QuestData@@QAEXK@Z
_TEXT	SEGMENT
_dwSubIndex$ = 8					; size = 4
?SetSubIndex@QuestData@@QAEXK@Z PROC			; QuestData::SetSubIndex, COMDAT
; _this$ = ecx

; 127  : {

  00000	55		 push	 ebp
  00001	8b ec		 mov	 ebp, esp
  00003	56		 push	 esi
  00004	8b f1		 mov	 esi, ecx

; 128  : 	m_dwIndexData = (GetMainIndex() * INDEX_HALF_VALUE) + dwSubIndex;

  00006	8b 46 04	 mov	 eax, DWORD PTR [esi+4]
  00009	b9 10 27 00 00	 mov	 ecx, 10000		; 00002710H
  0000e	57		 push	 edi
  0000f	33 d2		 xor	 edx, edx
  00011	8b f9		 mov	 edi, ecx
  00013	f7 f7		 div	 edi

; 129  : 	SetLinkQuest( g_QuestMgr.GetQuest( GetMainIndex(), GetSubIndex() ) );

  00015	33 d2		 xor	 edx, edx
  00017	69 c0 10 27 00
	00		 imul	 eax, 10000		; 00002710H
  0001d	03 45 08	 add	 eax, DWORD PTR _dwSubIndex$[ebp]
  00020	89 46 04	 mov	 DWORD PTR [esi+4], eax
  00023	f7 f1		 div	 ecx
  00025	52		 push	 edx
  00026	50		 push	 eax
  00027	e8 00 00 00 00	 call	 ?GetSingleton@ioQuestManager@@SAAAV1@XZ ; ioQuestManager::GetSingleton
  0002c	8b c8		 mov	 ecx, eax
  0002e	e8 00 00 00 00	 call	 ?GetQuest@ioQuestManager@@QAEPAVQuestParent@@KK@Z ; ioQuestManager::GetQuest
  00033	5f		 pop	 edi
  00034	89 46 0c	 mov	 DWORD PTR [esi+12], eax
  00037	5e		 pop	 esi

; 130  : }

  00038	5d		 pop	 ebp
  00039	c2 04 00	 ret	 4
?SetSubIndex@QuestData@@QAEXK@Z ENDP			; QuestData::SetSubIndex
_TEXT	ENDS
PUBLIC	?SetCurrentMagicData@QuestData@@QAEXK@Z		; QuestData::SetCurrentMagicData
; Function compile flags: /Ogsp
;	COMDAT ?SetCurrentMagicData@QuestData@@QAEXK@Z
_TEXT	SEGMENT
_dwCurrentMagicData$ = 8				; size = 4
?SetCurrentMagicData@QuestData@@QAEXK@Z PROC		; QuestData::SetCurrentMagicData, COMDAT
; _this$ = ecx

; 142  : {

  00000	55		 push	 ebp
  00001	8b ec		 mov	 ebp, esp
  00003	53		 push	 ebx
  00004	56		 push	 esi
  00005	57		 push	 edi
  00006	8b f1		 mov	 esi, ecx

; 143  : 	DWORD dwPrevData = GetCurrentMagicData();

  00008	8b 7e 40	 mov	 edi, DWORD PTR [esi+64]
  0000b	6a 64		 push	 100			; 00000064H
  0000d	59		 pop	 ecx
  0000e	33 d2		 xor	 edx, edx
  00010	8b c7		 mov	 eax, edi
  00012	f7 f1		 div	 ecx

; 144  : 	m_dwMagicData = (dwCurrentMagicData * MAGIC_VALUE) + ((int)IsAlarm() * ALARM_VALUE) + GetState();

  00014	8b ce		 mov	 ecx, esi
  00016	8b d8		 mov	 ebx, eax
  00018	e8 00 00 00 00	 call	 ?IsAlarm@QuestData@@QAE_NXZ ; QuestData::IsAlarm
  0001d	0f b6 c8	 movzx	 ecx, al
  00020	8b 45 08	 mov	 eax, DWORD PTR _dwCurrentMagicData$[ebp]
  00023	6b c0 0a	 imul	 eax, 10			; 0000000aH
  00026	03 c8		 add	 ecx, eax
  00028	8b c7		 mov	 eax, edi
  0002a	6b c9 0a	 imul	 ecx, 10			; 0000000aH
  0002d	6a 0a		 push	 10			; 0000000aH
  0002f	33 d2		 xor	 edx, edx
  00031	5f		 pop	 edi
  00032	f7 f7		 div	 edi
  00034	03 ca		 add	 ecx, edx
  00036	89 4e 40	 mov	 DWORD PTR [esi+64], ecx

; 145  : 
; 146  : 	if( dwCurrentMagicData != dwPrevData )

  00039	39 5d 08	 cmp	 DWORD PTR _dwCurrentMagicData$[ebp], ebx
  0003c	74 04		 je	 SHORT $LN1@SetCurrent

; 147  : 		m_bChangeData = true;

  0003e	c6 46 44 01	 mov	 BYTE PTR [esi+68], 1
$LN1@SetCurrent:
  00042	5f		 pop	 edi
  00043	5e		 pop	 esi
  00044	5b		 pop	 ebx

; 148  : }

  00045	5d		 pop	 ebp
  00046	c2 04 00	 ret	 4
?SetCurrentMagicData@QuestData@@QAEXK@Z ENDP		; QuestData::SetCurrentMagicData
_TEXT	ENDS
PUBLIC	?SetAlarm@QuestData@@QAEX_N@Z			; QuestData::SetAlarm
; Function compile flags: /Ogsp
;	COMDAT ?SetAlarm@QuestData@@QAEX_N@Z
_TEXT	SEGMENT
_bAlarm$ = 8						; size = 1
?SetAlarm@QuestData@@QAEX_N@Z PROC			; QuestData::SetAlarm, COMDAT
; _this$ = ecx

; 151  : {

  00000	55		 push	 ebp
  00001	8b ec		 mov	 ebp, esp
  00003	56		 push	 esi

; 152  : 	m_dwMagicData = (GetCurrentMagicData() * MAGIC_VALUE) + ((int)bAlarm * ALARM_VALUE) + GetState();

  00004	8b 71 40	 mov	 esi, DWORD PTR [ecx+64]
  00007	57		 push	 edi
  00008	6a 64		 push	 100			; 00000064H
  0000a	5f		 pop	 edi
  0000b	33 d2		 xor	 edx, edx
  0000d	8b c6		 mov	 eax, esi
  0000f	f7 f7		 div	 edi
  00011	6a 0a		 push	 10			; 0000000aH
  00013	33 d2		 xor	 edx, edx
  00015	8b f8		 mov	 edi, eax
  00017	0f b6 45 08	 movzx	 eax, BYTE PTR _bAlarm$[ebp]
  0001b	6b ff 0a	 imul	 edi, 10			; 0000000aH
  0001e	03 f8		 add	 edi, eax
  00020	8b c6		 mov	 eax, esi
  00022	6b ff 0a	 imul	 edi, 10			; 0000000aH
  00025	5e		 pop	 esi
  00026	f7 f6		 div	 esi
  00028	03 fa		 add	 edi, edx
  0002a	89 79 40	 mov	 DWORD PTR [ecx+64], edi
  0002d	5f		 pop	 edi
  0002e	5e		 pop	 esi

; 153  : }

  0002f	5d		 pop	 ebp
  00030	c2 04 00	 ret	 4
?SetAlarm@QuestData@@QAEX_N@Z ENDP			; QuestData::SetAlarm
_TEXT	ENDS
PUBLIC	?SetState@QuestData@@QAEXK@Z			; QuestData::SetState
; Function compile flags: /Ogsp
;	COMDAT ?SetState@QuestData@@QAEXK@Z
_TEXT	SEGMENT
_dwState$ = 8						; size = 4
?SetState@QuestData@@QAEXK@Z PROC			; QuestData::SetState, COMDAT
; _this$ = ecx

; 156  : {

  00000	55		 push	 ebp
  00001	8b ec		 mov	 ebp, esp
  00003	56		 push	 esi
  00004	57		 push	 edi
  00005	8b f1		 mov	 esi, ecx

; 157  : 	m_dwMagicData = (GetCurrentMagicData() * MAGIC_VALUE) + ((int)IsAlarm() * ALARM_VALUE) + dwState;

  00007	e8 00 00 00 00	 call	 ?IsAlarm@QuestData@@QAE_NXZ ; QuestData::IsAlarm
  0000c	0f b6 c8	 movzx	 ecx, al
  0000f	8b 46 40	 mov	 eax, DWORD PTR [esi+64]
  00012	6a 64		 push	 100			; 00000064H
  00014	33 d2		 xor	 edx, edx
  00016	5f		 pop	 edi
  00017	f7 f7		 div	 edi
  00019	6b c0 0a	 imul	 eax, 10			; 0000000aH
  0001c	03 c8		 add	 ecx, eax
  0001e	6b c9 0a	 imul	 ecx, 10			; 0000000aH
  00021	03 4d 08	 add	 ecx, DWORD PTR _dwState$[ebp]

; 158  : 
; 159  : 	// 진행중이 아니면 알람 해제
; 160  : 	if( dwState != QS_PROGRESS ) 

  00024	83 7d 08 00	 cmp	 DWORD PTR _dwState$[ebp], 0
  00028	89 4e 40	 mov	 DWORD PTR [esi+64], ecx
  0002b	74 09		 je	 SHORT $LN1@SetState

; 161  : 		SetAlarm( false );

  0002d	6a 00		 push	 0
  0002f	8b ce		 mov	 ecx, esi
  00031	e8 00 00 00 00	 call	 ?SetAlarm@QuestData@@QAEX_N@Z ; QuestData::SetAlarm
$LN1@SetState:
  00036	5f		 pop	 edi
  00037	5e		 pop	 esi

; 162  : }

  00038	5d		 pop	 ebp
  00039	c2 04 00	 ret	 4
?SetState@QuestData@@QAEXK@Z ENDP			; QuestData::SetState
_TEXT	ENDS
PUBLIC	?ApplyData@QuestData@@QAEXAAVSP2Packet@@@Z	; QuestData::ApplyData
EXTRN	??5SP2Packet@@QAEAAV0@AAV?$CEncrypt@K@@@Z:PROC	; SP2Packet::operator>>
EXTRN	??5SP2Packet@@QAEAAV0@AAK@Z:PROC		; SP2Packet::operator>>
; Function compile flags: /Ogsp
;	COMDAT ?ApplyData@QuestData@@QAEXAAVSP2Packet@@@Z
_TEXT	SEGMENT
_rkPacket$ = 8						; size = 4
?ApplyData@QuestData@@QAEXAAVSP2Packet@@@Z PROC		; QuestData::ApplyData, COMDAT
; _this$ = ecx

; 165  : {

  00000	55		 push	 ebp
  00001	8b ec		 mov	 ebp, esp
  00003	56		 push	 esi
  00004	8b f1		 mov	 esi, ecx

; 166  : 	rkPacket >> m_dwIndexData >> m_dwValueData >> m_dwMagicData >> m_dwDateData;

  00006	8b 4d 08	 mov	 ecx, DWORD PTR _rkPacket$[ebp]
  00009	57		 push	 edi
  0000a	8d 46 08	 lea	 eax, DWORD PTR [esi+8]
  0000d	50		 push	 eax
  0000e	8d 46 40	 lea	 eax, DWORD PTR [esi+64]
  00011	50		 push	 eax
  00012	8d 46 10	 lea	 eax, DWORD PTR [esi+16]
  00015	50		 push	 eax
  00016	8d 7e 04	 lea	 edi, DWORD PTR [esi+4]
  00019	57		 push	 edi
  0001a	e8 00 00 00 00	 call	 ??5SP2Packet@@QAEAAV0@AAK@Z ; SP2Packet::operator>>
  0001f	8b c8		 mov	 ecx, eax
  00021	e8 00 00 00 00	 call	 ??5SP2Packet@@QAEAAV0@AAV?$CEncrypt@K@@@Z ; SP2Packet::operator>>
  00026	8b c8		 mov	 ecx, eax
  00028	e8 00 00 00 00	 call	 ??5SP2Packet@@QAEAAV0@AAK@Z ; SP2Packet::operator>>
  0002d	8b c8		 mov	 ecx, eax
  0002f	e8 00 00 00 00	 call	 ??5SP2Packet@@QAEAAV0@AAK@Z ; SP2Packet::operator>>

; 167  : 	SetLinkQuest( g_QuestMgr.GetQuest( GetMainIndex(), GetSubIndex() ) );

  00034	8b 07		 mov	 eax, DWORD PTR [edi]
  00036	33 d2		 xor	 edx, edx
  00038	b9 10 27 00 00	 mov	 ecx, 10000		; 00002710H
  0003d	f7 f1		 div	 ecx
  0003f	52		 push	 edx
  00040	50		 push	 eax
  00041	e8 00 00 00 00	 call	 ?GetSingleton@ioQuestManager@@SAAAV1@XZ ; ioQuestManager::GetSingleton
  00046	8b c8		 mov	 ecx, eax
  00048	e8 00 00 00 00	 call	 ?GetQuest@ioQuestManager@@QAEPAVQuestParent@@KK@Z ; ioQuestManager::GetQuest
  0004d	5f		 pop	 edi
  0004e	89 46 0c	 mov	 DWORD PTR [esi+12], eax
  00051	5e		 pop	 esi

; 168  : }

  00052	5d		 pop	 ebp
  00053	c2 04 00	 ret	 4
?ApplyData@QuestData@@QAEXAAVSP2Packet@@@Z ENDP		; QuestData::ApplyData
_TEXT	ENDS
PUBLIC	??_7QuestCompleteData@@6B@			; QuestCompleteData::`vftable'
PUBLIC	??0QuestCompleteData@@QAE@XZ			; QuestCompleteData::QuestCompleteData
PUBLIC	??_R4QuestCompleteData@@6B@			; QuestCompleteData::`RTTI Complete Object Locator'
PUBLIC	??_R0?AVQuestCompleteData@@@8			; QuestCompleteData `RTTI Type Descriptor'
PUBLIC	??_R3QuestCompleteData@@8			; QuestCompleteData::`RTTI Class Hierarchy Descriptor'
PUBLIC	??_R2QuestCompleteData@@8			; QuestCompleteData::`RTTI Base Class Array'
PUBLIC	??_R1A@?0A@EA@QuestCompleteData@@8		; QuestCompleteData::`RTTI Base Class Descriptor at (0,-1,0,64)'
EXTRN	??_EQuestCompleteData@@UAEPAXI@Z:PROC		; QuestCompleteData::`vector deleting destructor'
;	COMDAT ??_R1A@?0A@EA@QuestCompleteData@@8
rdata$r	SEGMENT
??_R1A@?0A@EA@QuestCompleteData@@8 DD FLAT:??_R0?AVQuestCompleteData@@@8 ; QuestCompleteData::`RTTI Base Class Descriptor at (0,-1,0,64)'
	DD	01H
	DD	00H
	DD	0ffffffffH
	DD	00H
	DD	040H
	DD	FLAT:??_R3QuestCompleteData@@8
rdata$r	ENDS
;	COMDAT ??_R2QuestCompleteData@@8
rdata$r	SEGMENT
??_R2QuestCompleteData@@8 DD FLAT:??_R1A@?0A@EA@QuestCompleteData@@8 ; QuestCompleteData::`RTTI Base Class Array'
	DD	FLAT:??_R1A@?0A@EA@QuestDataParent@@8
rdata$r	ENDS
;	COMDAT ??_R3QuestCompleteData@@8
rdata$r	SEGMENT
??_R3QuestCompleteData@@8 DD 00H			; QuestCompleteData::`RTTI Class Hierarchy Descriptor'
	DD	00H
	DD	02H
	DD	FLAT:??_R2QuestCompleteData@@8
rdata$r	ENDS
;	COMDAT ??_R0?AVQuestCompleteData@@@8
_DATA	SEGMENT
??_R0?AVQuestCompleteData@@@8 DD FLAT:??_7type_info@@6B@ ; QuestCompleteData `RTTI Type Descriptor'
	DD	00H
	DB	'.?AVQuestCompleteData@@', 00H
_DATA	ENDS
;	COMDAT ??_R4QuestCompleteData@@6B@
rdata$r	SEGMENT
??_R4QuestCompleteData@@6B@ DD 00H			; QuestCompleteData::`RTTI Complete Object Locator'
	DD	00H
	DD	00H
	DD	FLAT:??_R0?AVQuestCompleteData@@@8
	DD	FLAT:??_R3QuestCompleteData@@8
rdata$r	ENDS
;	COMDAT ??_7QuestCompleteData@@6B@
CONST	SEGMENT
??_7QuestCompleteData@@6B@ DD FLAT:??_R4QuestCompleteData@@6B@ ; QuestCompleteData::`vftable'
	DD	FLAT:?GetIndexData@QuestDataParent@@UBE?BKXZ
	DD	FLAT:?GetDateData@QuestDataParent@@UBE?BKXZ
	DD	FLAT:?GetLinkQuest@QuestDataParent@@UAEPAVQuestParent@@XZ
	DD	FLAT:??_EQuestCompleteData@@UAEPAXI@Z
; Function compile flags: /Ogsp
CONST	ENDS
;	COMDAT ??0QuestCompleteData@@QAE@XZ
_TEXT	SEGMENT
??0QuestCompleteData@@QAE@XZ PROC			; QuestCompleteData::QuestCompleteData, COMDAT
; _this$ = ecx

; 171  : {

  00000	8b c1		 mov	 eax, ecx

; 172  : 	m_dwIndexData = m_dwDateData = 0;

  00002	33 c9		 xor	 ecx, ecx
  00004	c7 00 00 00 00
	00		 mov	 DWORD PTR [eax], OFFSET ??_7QuestCompleteData@@6B@
  0000a	89 48 08	 mov	 DWORD PTR [eax+8], ecx
  0000d	89 48 04	 mov	 DWORD PTR [eax+4], ecx

; 173  : 	m_pLinkQuest = NULL;

  00010	89 48 0c	 mov	 DWORD PTR [eax+12], ecx

; 174  : }

  00013	c3		 ret	 0
??0QuestCompleteData@@QAE@XZ ENDP			; QuestCompleteData::QuestCompleteData
_TEXT	ENDS
PUBLIC	??1QuestCompleteData@@UAE@XZ			; QuestCompleteData::~QuestCompleteData
; Function compile flags: /Ogsp
;	COMDAT ??1QuestCompleteData@@UAE@XZ
_TEXT	SEGMENT
??1QuestCompleteData@@UAE@XZ PROC			; QuestCompleteData::~QuestCompleteData, COMDAT
; _this$ = ecx

; 178  : 
; 179  : }

  00000	c7 01 00 00 00
	00		 mov	 DWORD PTR [ecx], OFFSET ??_7QuestDataParent@@6B@
  00006	c3		 ret	 0
??1QuestCompleteData@@UAE@XZ ENDP			; QuestCompleteData::~QuestCompleteData
_TEXT	ENDS
PUBLIC	?ApplyData@QuestCompleteData@@QAEXAAVSP2Packet@@@Z ; QuestCompleteData::ApplyData
; Function compile flags: /Ogsp
;	COMDAT ?ApplyData@QuestCompleteData@@QAEXAAVSP2Packet@@@Z
_TEXT	SEGMENT
_rkPacket$ = 8						; size = 4
?ApplyData@QuestCompleteData@@QAEXAAVSP2Packet@@@Z PROC	; QuestCompleteData::ApplyData, COMDAT
; _this$ = ecx

; 182  : {

  00000	55		 push	 ebp
  00001	8b ec		 mov	 ebp, esp
  00003	56		 push	 esi
  00004	8b f1		 mov	 esi, ecx

; 183  : 	rkPacket >> m_dwIndexData >> m_dwDateData;

  00006	8b 4d 08	 mov	 ecx, DWORD PTR _rkPacket$[ebp]
  00009	57		 push	 edi
  0000a	8d 46 08	 lea	 eax, DWORD PTR [esi+8]
  0000d	50		 push	 eax
  0000e	8d 7e 04	 lea	 edi, DWORD PTR [esi+4]
  00011	57		 push	 edi
  00012	e8 00 00 00 00	 call	 ??5SP2Packet@@QAEAAV0@AAK@Z ; SP2Packet::operator>>
  00017	8b c8		 mov	 ecx, eax
  00019	e8 00 00 00 00	 call	 ??5SP2Packet@@QAEAAV0@AAK@Z ; SP2Packet::operator>>

; 184  : 	SetLinkQuest( g_QuestMgr.GetQuest( GetMainIndex(), GetSubIndex() ) );

  0001e	8b 07		 mov	 eax, DWORD PTR [edi]
  00020	33 d2		 xor	 edx, edx
  00022	b9 10 27 00 00	 mov	 ecx, 10000		; 00002710H
  00027	f7 f1		 div	 ecx
  00029	52		 push	 edx
  0002a	50		 push	 eax
  0002b	e8 00 00 00 00	 call	 ?GetSingleton@ioQuestManager@@SAAAV1@XZ ; ioQuestManager::GetSingleton
  00030	8b c8		 mov	 ecx, eax
  00032	e8 00 00 00 00	 call	 ?GetQuest@ioQuestManager@@QAEPAVQuestParent@@KK@Z ; ioQuestManager::GetQuest
  00037	5f		 pop	 edi
  00038	89 46 0c	 mov	 DWORD PTR [esi+12], eax
  0003b	5e		 pop	 esi

; 185  : }

  0003c	5d		 pop	 ebp
  0003d	c2 04 00	 ret	 4
?ApplyData@QuestCompleteData@@QAEXAAVSP2Packet@@@Z ENDP	; QuestCompleteData::ApplyData
_TEXT	ENDS
PUBLIC	??4QuestDataParent@@QAEAAV0@ABV0@@Z		; QuestDataParent::operator=
; Function compile flags: /Ogsp
;	COMDAT ??4QuestDataParent@@QAEAAV0@ABV0@@Z
_TEXT	SEGMENT
___that$ = 8						; size = 4
??4QuestDataParent@@QAEAAV0@ABV0@@Z PROC		; QuestDataParent::operator=, COMDAT
; _this$ = ecx
  00000	55		 push	 ebp
  00001	8b ec		 mov	 ebp, esp
  00003	8b c1		 mov	 eax, ecx
  00005	8b 4d 08	 mov	 ecx, DWORD PTR ___that$[ebp]
  00008	8b 51 04	 mov	 edx, DWORD PTR [ecx+4]
  0000b	89 50 04	 mov	 DWORD PTR [eax+4], edx
  0000e	8b 51 08	 mov	 edx, DWORD PTR [ecx+8]
  00011	89 50 08	 mov	 DWORD PTR [eax+8], edx
  00014	8b 49 0c	 mov	 ecx, DWORD PTR [ecx+12]
  00017	89 48 0c	 mov	 DWORD PTR [eax+12], ecx
  0001a	5d		 pop	 ebp
  0001b	c2 04 00	 ret	 4
??4QuestDataParent@@QAEAAV0@ABV0@@Z ENDP		; QuestDataParent::operator=
_TEXT	ENDS
PUBLIC	??4QuestCompleteData@@QAEAAV0@ABV0@@Z		; QuestCompleteData::operator=
; Function compile flags: /Ogsp
;	COMDAT ??4QuestCompleteData@@QAEAAV0@ABV0@@Z
_TEXT	SEGMENT
___that$ = 8						; size = 4
??4QuestCompleteData@@QAEAAV0@ABV0@@Z PROC		; QuestCompleteData::operator=, COMDAT
; _this$ = ecx
  00000	55		 push	 ebp
  00001	8b ec		 mov	 ebp, esp
  00003	8b c1		 mov	 eax, ecx
  00005	8b 4d 08	 mov	 ecx, DWORD PTR ___that$[ebp]
  00008	8b 51 04	 mov	 edx, DWORD PTR [ecx+4]
  0000b	89 50 04	 mov	 DWORD PTR [eax+4], edx
  0000e	8b 51 08	 mov	 edx, DWORD PTR [ecx+8]
  00011	89 50 08	 mov	 DWORD PTR [eax+8], edx
  00014	8b 49 0c	 mov	 ecx, DWORD PTR [ecx+12]
  00017	89 48 0c	 mov	 DWORD PTR [eax+12], ecx
  0001a	5d		 pop	 ebp
  0001b	c2 04 00	 ret	 4
??4QuestCompleteData@@QAEAAV0@ABV0@@Z ENDP		; QuestCompleteData::operator=
_TEXT	ENDS
PUBLIC	??_7bad_alloc@std@@6B@				; std::bad_alloc::`vftable'
PUBLIC	??0bad_alloc@std@@QAE@PBD@Z			; std::bad_alloc::bad_alloc
PUBLIC	??_R4bad_alloc@std@@6B@				; std::bad_alloc::`RTTI Complete Object Locator'
PUBLIC	??_R0?AVbad_alloc@std@@@8			; std::bad_alloc `RTTI Type Descriptor'
PUBLIC	??_R3bad_alloc@std@@8				; std::bad_alloc::`RTTI Class Hierarchy Descriptor'
PUBLIC	??_R2bad_alloc@std@@8				; std::bad_alloc::`RTTI Base Class Array'
PUBLIC	??_R1A@?0A@EA@bad_alloc@std@@8			; std::bad_alloc::`RTTI Base Class Descriptor at (0,-1,0,64)'
PUBLIC	??_R1A@?0A@EA@exception@std@@8			; std::exception::`RTTI Base Class Descriptor at (0,-1,0,64)'
PUBLIC	??_R0?AVexception@std@@@8			; std::exception `RTTI Type Descriptor'
PUBLIC	??_R3exception@std@@8				; std::exception::`RTTI Class Hierarchy Descriptor'
PUBLIC	??_R2exception@std@@8				; std::exception::`RTTI Base Class Array'
EXTRN	__imp_??0exception@std@@QAE@ABQBD@Z:PROC
EXTRN	??_Ebad_alloc@std@@UAEPAXI@Z:PROC		; std::bad_alloc::`vector deleting destructor'
EXTRN	?what@exception@std@@UBEPBDXZ:PROC		; std::exception::what
;	COMDAT ??_R2exception@std@@8
; File c:\program files (x86)\microsoft visual studio 10.0\vc\include\exception
rdata$r	SEGMENT
??_R2exception@std@@8 DD FLAT:??_R1A@?0A@EA@exception@std@@8 ; std::exception::`RTTI Base Class Array'
rdata$r	ENDS
;	COMDAT ??_R3exception@std@@8
rdata$r	SEGMENT
??_R3exception@std@@8 DD 00H				; std::exception::`RTTI Class Hierarchy Descriptor'
	DD	00H
	DD	01H
	DD	FLAT:??_R2exception@std@@8
rdata$r	ENDS
;	COMDAT ??_R0?AVexception@std@@@8
_DATA	SEGMENT
??_R0?AVexception@std@@@8 DD FLAT:??_7type_info@@6B@	; std::exception `RTTI Type Descriptor'
	DD	00H
	DB	'.?AVexception@std@@', 00H
_DATA	ENDS
;	COMDAT ??_R1A@?0A@EA@exception@std@@8
rdata$r	SEGMENT
??_R1A@?0A@EA@exception@std@@8 DD FLAT:??_R0?AVexception@std@@@8 ; std::exception::`RTTI Base Class Descriptor at (0,-1,0,64)'
	DD	00H
	DD	00H
	DD	0ffffffffH
	DD	00H
	DD	040H
	DD	FLAT:??_R3exception@std@@8
rdata$r	ENDS
;	COMDAT ??_R1A@?0A@EA@bad_alloc@std@@8
rdata$r	SEGMENT
??_R1A@?0A@EA@bad_alloc@std@@8 DD FLAT:??_R0?AVbad_alloc@std@@@8 ; std::bad_alloc::`RTTI Base Class Descriptor at (0,-1,0,64)'
	DD	01H
	DD	00H
	DD	0ffffffffH
	DD	00H
	DD	040H
	DD	FLAT:??_R3bad_alloc@std@@8
rdata$r	ENDS
;	COMDAT ??_R2bad_alloc@std@@8
rdata$r	SEGMENT
??_R2bad_alloc@std@@8 DD FLAT:??_R1A@?0A@EA@bad_alloc@std@@8 ; std::bad_alloc::`RTTI Base Class Array'
	DD	FLAT:??_R1A@?0A@EA@exception@std@@8
rdata$r	ENDS
;	COMDAT ??_R3bad_alloc@std@@8
rdata$r	SEGMENT
??_R3bad_alloc@std@@8 DD 00H				; std::bad_alloc::`RTTI Class Hierarchy Descriptor'
	DD	00H
	DD	02H
	DD	FLAT:??_R2bad_alloc@std@@8
rdata$r	ENDS
;	COMDAT ??_R0?AVbad_alloc@std@@@8
_DATA	SEGMENT
??_R0?AVbad_alloc@std@@@8 DD FLAT:??_7type_info@@6B@	; std::bad_alloc `RTTI Type Descriptor'
	DD	00H
	DB	'.?AVbad_alloc@std@@', 00H
_DATA	ENDS
;	COMDAT ??_R4bad_alloc@std@@6B@
rdata$r	SEGMENT
??_R4bad_alloc@std@@6B@ DD 00H				; std::bad_alloc::`RTTI Complete Object Locator'
	DD	00H
	DD	00H
	DD	FLAT:??_R0?AVbad_alloc@std@@@8
	DD	FLAT:??_R3bad_alloc@std@@8
rdata$r	ENDS
;	COMDAT ??_7bad_alloc@std@@6B@
CONST	SEGMENT
??_7bad_alloc@std@@6B@ DD FLAT:??_R4bad_alloc@std@@6B@	; std::bad_alloc::`vftable'
	DD	FLAT:??_Ebad_alloc@std@@UAEPAXI@Z
	DD	FLAT:?what@exception@std@@UBEPBDXZ
; Function compile flags: /Ogsp
CONST	ENDS
;	COMDAT ??0bad_alloc@std@@QAE@PBD@Z
_TEXT	SEGMENT
__Message$ = 8						; size = 4
??0bad_alloc@std@@QAE@PBD@Z PROC			; std::bad_alloc::bad_alloc, COMDAT
; _this$ = ecx

; 345  : 		{	// construct from message string

  00000	55		 push	 ebp
  00001	8b ec		 mov	 ebp, esp
  00003	56		 push	 esi
  00004	8d 45 08	 lea	 eax, DWORD PTR __Message$[ebp]
  00007	50		 push	 eax
  00008	8b f1		 mov	 esi, ecx
  0000a	ff 15 00 00 00
	00		 call	 DWORD PTR __imp_??0exception@std@@QAE@ABQBD@Z
  00010	c7 06 00 00 00
	00		 mov	 DWORD PTR [esi], OFFSET ??_7bad_alloc@std@@6B@

; 346  : 		}

  00016	8b c6		 mov	 eax, esi
  00018	5e		 pop	 esi
  00019	5d		 pop	 ebp
  0001a	c2 04 00	 ret	 4
??0bad_alloc@std@@QAE@PBD@Z ENDP			; std::bad_alloc::bad_alloc
_TEXT	ENDS
PUBLIC	??1bad_alloc@std@@UAE@XZ			; std::bad_alloc::~bad_alloc
EXTRN	__imp_??1exception@std@@UAE@XZ:PROC
; Function compile flags: /Ogsp
;	COMDAT ??1bad_alloc@std@@UAE@XZ
_TEXT	SEGMENT
??1bad_alloc@std@@UAE@XZ PROC				; std::bad_alloc::~bad_alloc, COMDAT
; _this$ = ecx

; 354  : 		{	// destroy the object

  00000	c7 01 00 00 00
	00		 mov	 DWORD PTR [ecx], OFFSET ??_7bad_alloc@std@@6B@

; 355  : 		}

  00006	ff 25 00 00 00
	00		 jmp	 DWORD PTR __imp_??1exception@std@@UAE@XZ
??1bad_alloc@std@@UAE@XZ ENDP				; std::bad_alloc::~bad_alloc
_TEXT	ENDS
EXTRN	??3@YAXPAX@Z:PROC				; operator delete
; Function compile flags: /Ogsp
;	COMDAT ??_Gbad_alloc@std@@UAEPAXI@Z
_TEXT	SEGMENT
___flags$ = 8						; size = 4
??_Gbad_alloc@std@@UAEPAXI@Z PROC			; std::bad_alloc::`scalar deleting destructor', COMDAT
; _this$ = ecx
  00000	55		 push	 ebp
  00001	8b ec		 mov	 ebp, esp
  00003	56		 push	 esi
  00004	8b f1		 mov	 esi, ecx
  00006	c7 06 00 00 00
	00		 mov	 DWORD PTR [esi], OFFSET ??_7bad_alloc@std@@6B@
  0000c	ff 15 00 00 00
	00		 call	 DWORD PTR __imp_??1exception@std@@UAE@XZ
  00012	f6 45 08 01	 test	 BYTE PTR ___flags$[ebp], 1
  00016	74 07		 je	 SHORT $LN1@scalar
  00018	56		 push	 esi
  00019	e8 00 00 00 00	 call	 ??3@YAXPAX@Z		; operator delete
  0001e	59		 pop	 ecx
$LN1@scalar:
  0001f	8b c6		 mov	 eax, esi
  00021	5e		 pop	 esi
  00022	5d		 pop	 ebp
  00023	c2 04 00	 ret	 4
??_Gbad_alloc@std@@UAEPAXI@Z ENDP			; std::bad_alloc::`scalar deleting destructor'
_TEXT	ENDS
PUBLIC	??2@YAPAXIPAX@Z					; operator new
; Function compile flags: /Ogsp
; File c:\program files (x86)\microsoft visual studio 10.0\vc\include\new
;	COMDAT ??2@YAPAXIPAX@Z
_TEXT	SEGMENT
___formal$ = 8						; size = 4
__Where$ = 12						; size = 4
??2@YAPAXIPAX@Z PROC					; operator new, COMDAT

; 56   : 	{	// construct array with placement at _Where

  00000	55		 push	 ebp
  00001	8b ec		 mov	 ebp, esp

; 57   : 	return (_Where);

  00003	8b 45 0c	 mov	 eax, DWORD PTR __Where$[ebp]

; 58   : 	}

  00006	5d		 pop	 ebp
  00007	c3		 ret	 0
??2@YAPAXIPAX@Z ENDP					; operator new
_TEXT	ENDS
PUBLIC	??3@YAXPAX0@Z					; operator delete
; Function compile flags: /Ogsp
;	COMDAT ??3@YAXPAX0@Z
_TEXT	SEGMENT
___formal$ = 8						; size = 4
___formal$ = 12						; size = 4
??3@YAXPAX0@Z PROC					; operator delete, COMDAT

; 62   : 	}

  00000	c3		 ret	 0
??3@YAXPAX0@Z ENDP					; operator delete
_TEXT	ENDS
PUBLIC	??0QuestDataParent@@QAE@ABV0@@Z			; QuestDataParent::QuestDataParent
; Function compile flags: /Ogsp
;	COMDAT ??0QuestDataParent@@QAE@ABV0@@Z
_TEXT	SEGMENT
___that$ = 8						; size = 4
??0QuestDataParent@@QAE@ABV0@@Z PROC			; QuestDataParent::QuestDataParent, COMDAT
; _this$ = ecx
  00000	55		 push	 ebp
  00001	8b ec		 mov	 ebp, esp
  00003	8b c1		 mov	 eax, ecx
  00005	8b 4d 08	 mov	 ecx, DWORD PTR ___that$[ebp]
  00008	c7 00 00 00 00
	00		 mov	 DWORD PTR [eax], OFFSET ??_7QuestDataParent@@6B@
  0000e	8b 51 04	 mov	 edx, DWORD PTR [ecx+4]
  00011	89 50 04	 mov	 DWORD PTR [eax+4], edx
  00014	8b 51 08	 mov	 edx, DWORD PTR [ecx+8]
  00017	89 50 08	 mov	 DWORD PTR [eax+8], edx
  0001a	8b 49 0c	 mov	 ecx, DWORD PTR [ecx+12]
  0001d	89 48 0c	 mov	 DWORD PTR [eax+12], ecx
  00020	5d		 pop	 ebp
  00021	c2 04 00	 ret	 4
??0QuestDataParent@@QAE@ABV0@@Z ENDP			; QuestDataParent::QuestDataParent
_TEXT	ENDS
PUBLIC	??1?$_Vector_val@PAVQuestData@@V?$allocator@PAVQuestData@@@std@@@std@@QAE@XZ ; std::_Vector_val<QuestData *,std::allocator<QuestData *> >::~_Vector_val<QuestData *,std::allocator<QuestData *> >
; Function compile flags: /Ogsp
; File c:\program files (x86)\microsoft visual studio 10.0\vc\include\vector
;	COMDAT ??1?$_Vector_val@PAVQuestData@@V?$allocator@PAVQuestData@@@std@@@std@@QAE@XZ
_TEXT	SEGMENT
??1?$_Vector_val@PAVQuestData@@V?$allocator@PAVQuestData@@@std@@@std@@QAE@XZ PROC ; std::_Vector_val<QuestData *,std::allocator<QuestData *> >::~_Vector_val<QuestData *,std::allocator<QuestData *> >, COMDAT
; _this$ = ecx

; 434  : 		}

  00000	c3		 ret	 0
??1?$_Vector_val@PAVQuestData@@V?$allocator@PAVQuestData@@@std@@@std@@QAE@XZ ENDP ; std::_Vector_val<QuestData *,std::allocator<QuestData *> >::~_Vector_val<QuestData *,std::allocator<QuestData *> >
_TEXT	ENDS
PUBLIC	??0?$allocator@PAVQuestData@@@std@@QAE@XZ	; std::allocator<QuestData *>::allocator<QuestData *>
; Function compile flags: /Ogsp
; File c:\program files (x86)\microsoft visual studio 10.0\vc\include\xmemory
;	COMDAT ??0?$allocator@PAVQuestData@@@std@@QAE@XZ
_TEXT	SEGMENT
??0?$allocator@PAVQuestData@@@std@@QAE@XZ PROC		; std::allocator<QuestData *>::allocator<QuestData *>, COMDAT
; _this$ = ecx

; 161  : 	_ALLOCATOR() _THROW0()

  00000	8b c1		 mov	 eax, ecx

; 162  : 		{	// construct default allocator (do nothing)
; 163  : 		}

  00002	c3		 ret	 0
??0?$allocator@PAVQuestData@@@std@@QAE@XZ ENDP		; std::allocator<QuestData *>::allocator<QuestData *>
_TEXT	ENDS
PUBLIC	?_Adopt@_Iterator_base0@std@@QAEXPBX@Z		; std::_Iterator_base0::_Adopt
; Function compile flags: /Ogsp
; File c:\program files (x86)\microsoft visual studio 10.0\vc\include\xutility
;	COMDAT ?_Adopt@_Iterator_base0@std@@QAEXPBX@Z
_TEXT	SEGMENT
___formal$ = 8						; size = 4
?_Adopt@_Iterator_base0@std@@QAEXPBX@Z PROC		; std::_Iterator_base0::_Adopt, COMDAT
; _this$ = ecx

; 49   : 		}

  00000	c2 04 00	 ret	 4
?_Adopt@_Iterator_base0@std@@QAEXPBX@Z ENDP		; std::_Iterator_base0::_Adopt
_TEXT	ENDS
PUBLIC	??1?$_Vector_val@PAVQuestCompleteData@@V?$allocator@PAVQuestCompleteData@@@std@@@std@@QAE@XZ ; std::_Vector_val<QuestCompleteData *,std::allocator<QuestCompleteData *> >::~_Vector_val<QuestCompleteData *,std::allocator<QuestCompleteData *> >
; Function compile flags: /Ogsp
; File c:\program files (x86)\microsoft visual studio 10.0\vc\include\vector
;	COMDAT ??1?$_Vector_val@PAVQuestCompleteData@@V?$allocator@PAVQuestCompleteData@@@std@@@std@@QAE@XZ
_TEXT	SEGMENT
??1?$_Vector_val@PAVQuestCompleteData@@V?$allocator@PAVQuestCompleteData@@@std@@@std@@QAE@XZ PROC ; std::_Vector_val<QuestCompleteData *,std::allocator<QuestCompleteData *> >::~_Vector_val<QuestCompleteData *,std::allocator<QuestCompleteData *> >, COMDAT
; _this$ = ecx

; 434  : 		}

  00000	c3		 ret	 0
??1?$_Vector_val@PAVQuestCompleteData@@V?$allocator@PAVQuestCompleteData@@@std@@@std@@QAE@XZ ENDP ; std::_Vector_val<QuestCompleteData *,std::allocator<QuestCompleteData *> >::~_Vector_val<QuestCompleteData *,std::allocator<QuestCompleteData *> >
_TEXT	ENDS
PUBLIC	??0?$allocator@PAVQuestCompleteData@@@std@@QAE@XZ ; std::allocator<QuestCompleteData *>::allocator<QuestCompleteData *>
; Function compile flags: /Ogsp
; File c:\program files (x86)\microsoft visual studio 10.0\vc\include\xmemory
;	COMDAT ??0?$allocator@PAVQuestCompleteData@@@std@@QAE@XZ
_TEXT	SEGMENT
??0?$allocator@PAVQuestCompleteData@@@std@@QAE@XZ PROC	; std::allocator<QuestCompleteData *>::allocator<QuestCompleteData *>, COMDAT
; _this$ = ecx

; 161  : 	_ALLOCATOR() _THROW0()

  00000	8b c1		 mov	 eax, ecx

; 162  : 		{	// construct default allocator (do nothing)
; 163  : 		}

  00002	c3		 ret	 0
??0?$allocator@PAVQuestCompleteData@@@std@@QAE@XZ ENDP	; std::allocator<QuestCompleteData *>::allocator<QuestCompleteData *>
_TEXT	ENDS
PUBLIC	??0?$_Vector_const_iterator@V?$_Vector_val@PAVQuestData@@V?$allocator@PAVQuestData@@@std@@@std@@@std@@QAE@XZ ; std::_Vector_const_iterator<std::_Vector_val<QuestData *,std::allocator<QuestData *> > >::_Vector_const_iterator<std::_Vector_val<QuestData *,std::allocator<QuestData *> > >
; Function compile flags: /Ogsp
; File c:\program files (x86)\microsoft visual studio 10.0\vc\include\vector
;	COMDAT ??0?$_Vector_const_iterator@V?$_Vector_val@PAVQuestData@@V?$allocator@PAVQuestData@@@std@@@std@@@std@@QAE@XZ
_TEXT	SEGMENT
??0?$_Vector_const_iterator@V?$_Vector_val@PAVQuestData@@V?$allocator@PAVQuestData@@@std@@@std@@@std@@QAE@XZ PROC ; std::_Vector_const_iterator<std::_Vector_val<QuestData *,std::allocator<QuestData *> > >::_Vector_const_iterator<std::_Vector_val<QuestData *,std::allocator<QuestData *> > >, COMDAT
; _this$ = ecx

; 40   : 		{	// construct with null pointer

  00000	8b c1		 mov	 eax, ecx
  00002	83 20 00	 and	 DWORD PTR [eax], 0

; 41   : 		}

  00005	c3		 ret	 0
??0?$_Vector_const_iterator@V?$_Vector_val@PAVQuestData@@V?$allocator@PAVQuestData@@@std@@@std@@@std@@QAE@XZ ENDP ; std::_Vector_const_iterator<std::_Vector_val<QuestData *,std::allocator<QuestData *> > >::_Vector_const_iterator<std::_Vector_val<QuestData *,std::allocator<QuestData *> > >
_TEXT	ENDS
PUBLIC	??D?$_Vector_const_iterator@V?$_Vector_val@PAVQuestData@@V?$allocator@PAVQuestData@@@std@@@std@@@std@@QBEABQAVQuestData@@XZ ; std::_Vector_const_iterator<std::_Vector_val<QuestData *,std::allocator<QuestData *> > >::operator*
; Function compile flags: /Ogsp
;	COMDAT ??D?$_Vector_const_iterator@V?$_Vector_val@PAVQuestData@@V?$allocator@PAVQuestData@@@std@@@std@@@std@@QBEABQAVQuestData@@XZ
_TEXT	SEGMENT
??D?$_Vector_const_iterator@V?$_Vector_val@PAVQuestData@@V?$allocator@PAVQuestData@@@std@@@std@@@std@@QBEABQAVQuestData@@XZ PROC ; std::_Vector_const_iterator<std::_Vector_val<QuestData *,std::allocator<QuestData *> > >::operator*, COMDAT
; _this$ = ecx

; 64   :  #if _ITERATOR_DEBUG_LEVEL == 2
; 65   : 		if (this->_Getcont() == 0
; 66   : 			|| this->_Ptr == 0
; 67   : 			|| this->_Ptr < ((_Myvec *)this->_Getcont())->_Myfirst
; 68   : 			|| ((_Myvec *)this->_Getcont())->_Mylast <= this->_Ptr)
; 69   : 			{	// report error
; 70   : 			_DEBUG_ERROR("vector iterator not dereferencable");
; 71   : 			_SCL_SECURE_OUT_OF_RANGE;
; 72   : 			}
; 73   : 
; 74   :  #elif _ITERATOR_DEBUG_LEVEL == 1
; 75   : 		_SCL_SECURE_VALIDATE(this->_Getcont() != 0);
; 76   : 		_SCL_SECURE_VALIDATE_RANGE(
; 77   : 			this->_Ptr != 0
; 78   : 			&& ((_Myvec *)this->_Getcont())->_Myfirst <= this->_Ptr
; 79   : 			&& this->_Ptr < ((_Myvec *)this->_Getcont())->_Mylast);
; 80   :  #endif /* _ITERATOR_DEBUG_LEVEL */
; 81   : 
; 82   : 		__analysis_assume(this->_Ptr != 0);
; 83   : 
; 84   : 		return (*this->_Ptr);

  00000	8b 01		 mov	 eax, DWORD PTR [ecx]

; 85   : 		}

  00002	c3		 ret	 0
??D?$_Vector_const_iterator@V?$_Vector_val@PAVQuestData@@V?$allocator@PAVQuestData@@@std@@@std@@@std@@QBEABQAVQuestData@@XZ ENDP ; std::_Vector_const_iterator<std::_Vector_val<QuestData *,std::allocator<QuestData *> > >::operator*
_TEXT	ENDS
PUBLIC	??E?$_Vector_const_iterator@V?$_Vector_val@PAVQuestData@@V?$allocator@PAVQuestData@@@std@@@std@@@std@@QAEAAV01@XZ ; std::_Vector_const_iterator<std::_Vector_val<QuestData *,std::allocator<QuestData *> > >::operator++
; Function compile flags: /Ogsp
;	COMDAT ??E?$_Vector_const_iterator@V?$_Vector_val@PAVQuestData@@V?$allocator@PAVQuestData@@@std@@@std@@@std@@QAEAAV01@XZ
_TEXT	SEGMENT
??E?$_Vector_const_iterator@V?$_Vector_val@PAVQuestData@@V?$allocator@PAVQuestData@@@std@@@std@@@std@@QAEAAV01@XZ PROC ; std::_Vector_const_iterator<std::_Vector_val<QuestData *,std::allocator<QuestData *> > >::operator++, COMDAT
; _this$ = ecx

; 93   : 		{	// preincrement

  00000	8b c1		 mov	 eax, ecx

; 94   :  #if _ITERATOR_DEBUG_LEVEL == 2
; 95   : 		if (this->_Getcont() == 0
; 96   : 			|| this->_Ptr == 0
; 97   : 			|| ((_Myvec *)this->_Getcont())->_Mylast <= this->_Ptr)
; 98   : 			{	// report error
; 99   : 			_DEBUG_ERROR("vector iterator not incrementable");
; 100  : 			_SCL_SECURE_OUT_OF_RANGE;
; 101  : 			}
; 102  : 
; 103  :  #elif _ITERATOR_DEBUG_LEVEL == 1
; 104  : 		_SCL_SECURE_VALIDATE(this->_Getcont() != 0);
; 105  : 		_SCL_SECURE_VALIDATE_RANGE(
; 106  : 			this->_Ptr != 0
; 107  : 			&& this->_Ptr < ((_Myvec *)this->_Getcont())->_Mylast);
; 108  :  #endif /* _ITERATOR_DEBUG_LEVEL */
; 109  : 
; 110  : 		++this->_Ptr;

  00002	83 00 04	 add	 DWORD PTR [eax], 4

; 111  : 		return (*this);
; 112  : 		}

  00005	c3		 ret	 0
??E?$_Vector_const_iterator@V?$_Vector_val@PAVQuestData@@V?$allocator@PAVQuestData@@@std@@@std@@@std@@QAEAAV01@XZ ENDP ; std::_Vector_const_iterator<std::_Vector_val<QuestData *,std::allocator<QuestData *> > >::operator++
_TEXT	ENDS
PUBLIC	??0?$_Vector_const_iterator@V?$_Vector_val@PAVQuestCompleteData@@V?$allocator@PAVQuestCompleteData@@@std@@@std@@@std@@QAE@XZ ; std::_Vector_const_iterator<std::_Vector_val<QuestCompleteData *,std::allocator<QuestCompleteData *> > >::_Vector_const_iterator<std::_Vector_val<QuestCompleteData *,std::allocator<QuestCompleteData *> > >
; Function compile flags: /Ogsp
;	COMDAT ??0?$_Vector_const_iterator@V?$_Vector_val@PAVQuestCompleteData@@V?$allocator@PAVQuestCompleteData@@@std@@@std@@@std@@QAE@XZ
_TEXT	SEGMENT
??0?$_Vector_const_iterator@V?$_Vector_val@PAVQuestCompleteData@@V?$allocator@PAVQuestCompleteData@@@std@@@std@@@std@@QAE@XZ PROC ; std::_Vector_const_iterator<std::_Vector_val<QuestCompleteData *,std::allocator<QuestCompleteData *> > >::_Vector_const_iterator<std::_Vector_val<QuestCompleteData *,std::allocator<QuestCompleteData *> > >, COMDAT
; _this$ = ecx

; 40   : 		{	// construct with null pointer

  00000	8b c1		 mov	 eax, ecx
  00002	83 20 00	 and	 DWORD PTR [eax], 0

; 41   : 		}

  00005	c3		 ret	 0
??0?$_Vector_const_iterator@V?$_Vector_val@PAVQuestCompleteData@@V?$allocator@PAVQuestCompleteData@@@std@@@std@@@std@@QAE@XZ ENDP ; std::_Vector_const_iterator<std::_Vector_val<QuestCompleteData *,std::allocator<QuestCompleteData *> > >::_Vector_const_iterator<std::_Vector_val<QuestCompleteData *,std::allocator<QuestCompleteData *> > >
_TEXT	ENDS
PUBLIC	??D?$_Vector_const_iterator@V?$_Vector_val@PAVQuestCompleteData@@V?$allocator@PAVQuestCompleteData@@@std@@@std@@@std@@QBEABQAVQuestCompleteData@@XZ ; std::_Vector_const_iterator<std::_Vector_val<QuestCompleteData *,std::allocator<QuestCompleteData *> > >::operator*
; Function compile flags: /Ogsp
;	COMDAT ??D?$_Vector_const_iterator@V?$_Vector_val@PAVQuestCompleteData@@V?$allocator@PAVQuestCompleteData@@@std@@@std@@@std@@QBEABQAVQuestCompleteData@@XZ
_TEXT	SEGMENT
??D?$_Vector_const_iterator@V?$_Vector_val@PAVQuestCompleteData@@V?$allocator@PAVQuestCompleteData@@@std@@@std@@@std@@QBEABQAVQuestCompleteData@@XZ PROC ; std::_Vector_const_iterator<std::_Vector_val<QuestCompleteData *,std::allocator<QuestCompleteData *> > >::operator*, COMDAT
; _this$ = ecx

; 64   :  #if _ITERATOR_DEBUG_LEVEL == 2
; 65   : 		if (this->_Getcont() == 0
; 66   : 			|| this->_Ptr == 0
; 67   : 			|| this->_Ptr < ((_Myvec *)this->_Getcont())->_Myfirst
; 68   : 			|| ((_Myvec *)this->_Getcont())->_Mylast <= this->_Ptr)
; 69   : 			{	// report error
; 70   : 			_DEBUG_ERROR("vector iterator not dereferencable");
; 71   : 			_SCL_SECURE_OUT_OF_RANGE;
; 72   : 			}
; 73   : 
; 74   :  #elif _ITERATOR_DEBUG_LEVEL == 1
; 75   : 		_SCL_SECURE_VALIDATE(this->_Getcont() != 0);
; 76   : 		_SCL_SECURE_VALIDATE_RANGE(
; 77   : 			this->_Ptr != 0
; 78   : 			&& ((_Myvec *)this->_Getcont())->_Myfirst <= this->_Ptr
; 79   : 			&& this->_Ptr < ((_Myvec *)this->_Getcont())->_Mylast);
; 80   :  #endif /* _ITERATOR_DEBUG_LEVEL */
; 81   : 
; 82   : 		__analysis_assume(this->_Ptr != 0);
; 83   : 
; 84   : 		return (*this->_Ptr);

  00000	8b 01		 mov	 eax, DWORD PTR [ecx]

; 85   : 		}

  00002	c3		 ret	 0
??D?$_Vector_const_iterator@V?$_Vector_val@PAVQuestCompleteData@@V?$allocator@PAVQuestCompleteData@@@std@@@std@@@std@@QBEABQAVQuestCompleteData@@XZ ENDP ; std::_Vector_const_iterator<std::_Vector_val<QuestCompleteData *,std::allocator<QuestCompleteData *> > >::operator*
_TEXT	ENDS
PUBLIC	??E?$_Vector_const_iterator@V?$_Vector_val@PAVQuestCompleteData@@V?$allocator@PAVQuestCompleteData@@@std@@@std@@@std@@QAEAAV01@XZ ; std::_Vector_const_iterator<std::_Vector_val<QuestCompleteData *,std::allocator<QuestCompleteData *> > >::operator++
; Function compile flags: /Ogsp
;	COMDAT ??E?$_Vector_const_iterator@V?$_Vector_val@PAVQuestCompleteData@@V?$allocator@PAVQuestCompleteData@@@std@@@std@@@std@@QAEAAV01@XZ
_TEXT	SEGMENT
??E?$_Vector_const_iterator@V?$_Vector_val@PAVQuestCompleteData@@V?$allocator@PAVQuestCompleteData@@@std@@@std@@@std@@QAEAAV01@XZ PROC ; std::_Vector_const_iterator<std::_Vector_val<QuestCompleteData *,std::allocator<QuestCompleteData *> > >::operator++, COMDAT
; _this$ = ecx

; 93   : 		{	// preincrement

  00000	8b c1		 mov	 eax, ecx

; 94   :  #if _ITERATOR_DEBUG_LEVEL == 2
; 95   : 		if (this->_Getcont() == 0
; 96   : 			|| this->_Ptr == 0
; 97   : 			|| ((_Myvec *)this->_Getcont())->_Mylast <= this->_Ptr)
; 98   : 			{	// report error
; 99   : 			_DEBUG_ERROR("vector iterator not incrementable");
; 100  : 			_SCL_SECURE_OUT_OF_RANGE;
; 101  : 			}
; 102  : 
; 103  :  #elif _ITERATOR_DEBUG_LEVEL == 1
; 104  : 		_SCL_SECURE_VALIDATE(this->_Getcont() != 0);
; 105  : 		_SCL_SECURE_VALIDATE_RANGE(
; 106  : 			this->_Ptr != 0
; 107  : 			&& this->_Ptr < ((_Myvec *)this->_Getcont())->_Mylast);
; 108  :  #endif /* _ITERATOR_DEBUG_LEVEL */
; 109  : 
; 110  : 		++this->_Ptr;

  00002	83 00 04	 add	 DWORD PTR [eax], 4

; 111  : 		return (*this);
; 112  : 		}

  00005	c3		 ret	 0
??E?$_Vector_const_iterator@V?$_Vector_val@PAVQuestCompleteData@@V?$allocator@PAVQuestCompleteData@@@std@@@std@@@std@@QAEAAV01@XZ ENDP ; std::_Vector_const_iterator<std::_Vector_val<QuestCompleteData *,std::allocator<QuestCompleteData *> > >::operator++
_TEXT	ENDS
PUBLIC	??0?$allocator@PAVQuestData@@@std@@QAE@ABV01@@Z	; std::allocator<QuestData *>::allocator<QuestData *>
; Function compile flags: /Ogsp
; File c:\program files (x86)\microsoft visual studio 10.0\vc\include\xmemory
;	COMDAT ??0?$allocator@PAVQuestData@@@std@@QAE@ABV01@@Z
_TEXT	SEGMENT
___formal$ = 8						; size = 4
??0?$allocator@PAVQuestData@@@std@@QAE@ABV01@@Z PROC	; std::allocator<QuestData *>::allocator<QuestData *>, COMDAT
; _this$ = ecx

; 165  : 	_ALLOCATOR(const _ALLOCATOR<_Ty>&) _THROW0()

  00000	8b c1		 mov	 eax, ecx

; 166  : 		{	// construct by copying (do nothing)
; 167  : 		}

  00002	c2 04 00	 ret	 4
??0?$allocator@PAVQuestData@@@std@@QAE@ABV01@@Z ENDP	; std::allocator<QuestData *>::allocator<QuestData *>
_TEXT	ENDS
PUBLIC	?deallocate@?$allocator@PAVQuestData@@@std@@QAEXPAPAVQuestData@@I@Z ; std::allocator<QuestData *>::deallocate
; Function compile flags: /Ogsp
;	COMDAT ?deallocate@?$allocator@PAVQuestData@@@std@@QAEXPAPAVQuestData@@I@Z
_TEXT	SEGMENT
__Ptr$ = 8						; size = 4
___formal$ = 12						; size = 4
?deallocate@?$allocator@PAVQuestData@@@std@@QAEXPAPAVQuestData@@I@Z PROC ; std::allocator<QuestData *>::deallocate, COMDAT
; _this$ = ecx

; 181  : 		{	// deallocate object at _Ptr, ignore size

  00000	55		 push	 ebp
  00001	8b ec		 mov	 ebp, esp

; 182  : 		::operator delete(_Ptr);

  00003	ff 75 08	 push	 DWORD PTR __Ptr$[ebp]
  00006	e8 00 00 00 00	 call	 ??3@YAXPAX@Z		; operator delete
  0000b	59		 pop	 ecx

; 183  : 		}

  0000c	5d		 pop	 ebp
  0000d	c2 08 00	 ret	 8
?deallocate@?$allocator@PAVQuestData@@@std@@QAEXPAPAVQuestData@@I@Z ENDP ; std::allocator<QuestData *>::deallocate
_TEXT	ENDS
PUBLIC	??0?$allocator@PAVQuestCompleteData@@@std@@QAE@ABV01@@Z ; std::allocator<QuestCompleteData *>::allocator<QuestCompleteData *>
; Function compile flags: /Ogsp
;	COMDAT ??0?$allocator@PAVQuestCompleteData@@@std@@QAE@ABV01@@Z
_TEXT	SEGMENT
___formal$ = 8						; size = 4
??0?$allocator@PAVQuestCompleteData@@@std@@QAE@ABV01@@Z PROC ; std::allocator<QuestCompleteData *>::allocator<QuestCompleteData *>, COMDAT
; _this$ = ecx

; 165  : 	_ALLOCATOR(const _ALLOCATOR<_Ty>&) _THROW0()

  00000	8b c1		 mov	 eax, ecx

; 166  : 		{	// construct by copying (do nothing)
; 167  : 		}

  00002	c2 04 00	 ret	 4
??0?$allocator@PAVQuestCompleteData@@@std@@QAE@ABV01@@Z ENDP ; std::allocator<QuestCompleteData *>::allocator<QuestCompleteData *>
_TEXT	ENDS
PUBLIC	?deallocate@?$allocator@PAVQuestCompleteData@@@std@@QAEXPAPAVQuestCompleteData@@I@Z ; std::allocator<QuestCompleteData *>::deallocate
; Function compile flags: /Ogsp
;	COMDAT ?deallocate@?$allocator@PAVQuestCompleteData@@@std@@QAEXPAPAVQuestCompleteData@@I@Z
_TEXT	SEGMENT
__Ptr$ = 8						; size = 4
___formal$ = 12						; size = 4
?deallocate@?$allocator@PAVQuestCompleteData@@@std@@QAEXPAPAVQuestCompleteData@@I@Z PROC ; std::allocator<QuestCompleteData *>::deallocate, COMDAT
; _this$ = ecx

; 181  : 		{	// deallocate object at _Ptr, ignore size

  00000	55		 push	 ebp
  00001	8b ec		 mov	 ebp, esp

; 182  : 		::operator delete(_Ptr);

  00003	ff 75 08	 push	 DWORD PTR __Ptr$[ebp]
  00006	e8 00 00 00 00	 call	 ??3@YAXPAX@Z		; operator delete
  0000b	59		 pop	 ecx

; 183  : 		}

  0000c	5d		 pop	 ebp
  0000d	c2 08 00	 ret	 8
?deallocate@?$allocator@PAVQuestCompleteData@@@std@@QAEXPAPAVQuestCompleteData@@I@Z ENDP ; std::allocator<QuestCompleteData *>::deallocate
_TEXT	ENDS
PUBLIC	??0?$_Vector_const_iterator@V?$_Vector_val@PAVQuestData@@V?$allocator@PAVQuestData@@@std@@@std@@@std@@QAE@PAPAVQuestData@@PBU_Container_base0@1@@Z ; std::_Vector_const_iterator<std::_Vector_val<QuestData *,std::allocator<QuestData *> > >::_Vector_const_iterator<std::_Vector_val<QuestData *,std::allocator<QuestData *> > >
; Function compile flags: /Ogsp
; File c:\program files (x86)\microsoft visual studio 10.0\vc\include\vector
;	COMDAT ??0?$_Vector_const_iterator@V?$_Vector_val@PAVQuestData@@V?$allocator@PAVQuestData@@@std@@@std@@@std@@QAE@PAPAVQuestData@@PBU_Container_base0@1@@Z
_TEXT	SEGMENT
__Parg$ = 8						; size = 4
__Pvector$ = 12						; size = 4
??0?$_Vector_const_iterator@V?$_Vector_val@PAVQuestData@@V?$allocator@PAVQuestData@@@std@@@std@@@std@@QAE@PAPAVQuestData@@PBU_Container_base0@1@@Z PROC ; std::_Vector_const_iterator<std::_Vector_val<QuestData *,std::allocator<QuestData *> > >::_Vector_const_iterator<std::_Vector_val<QuestData *,std::allocator<QuestData *> > >, COMDAT
; _this$ = ecx

; 45   : 		{	// construct with pointer _Parg

  00000	55		 push	 ebp
  00001	8b ec		 mov	 ebp, esp
  00003	8b c1		 mov	 eax, ecx
  00005	8b 4d 08	 mov	 ecx, DWORD PTR __Parg$[ebp]
  00008	89 08		 mov	 DWORD PTR [eax], ecx

; 46   : 		this->_Adopt(_Pvector);
; 47   : 		}

  0000a	5d		 pop	 ebp
  0000b	c2 08 00	 ret	 8
??0?$_Vector_const_iterator@V?$_Vector_val@PAVQuestData@@V?$allocator@PAVQuestData@@@std@@@std@@@std@@QAE@PAPAVQuestData@@PBU_Container_base0@1@@Z ENDP ; std::_Vector_const_iterator<std::_Vector_val<QuestData *,std::allocator<QuestData *> > >::_Vector_const_iterator<std::_Vector_val<QuestData *,std::allocator<QuestData *> > >
_TEXT	ENDS
PUBLIC	?_Compat@?$_Vector_const_iterator@V?$_Vector_val@PAVQuestData@@V?$allocator@PAVQuestData@@@std@@@std@@@std@@QBEXABV12@@Z ; std::_Vector_const_iterator<std::_Vector_val<QuestData *,std::allocator<QuestData *> > >::_Compat
; Function compile flags: /Ogsp
;	COMDAT ?_Compat@?$_Vector_const_iterator@V?$_Vector_val@PAVQuestData@@V?$allocator@PAVQuestData@@@std@@@std@@@std@@QBEXABV12@@Z
_TEXT	SEGMENT
___formal$ = 8						; size = 4
?_Compat@?$_Vector_const_iterator@V?$_Vector_val@PAVQuestData@@V?$allocator@PAVQuestData@@@std@@@std@@@std@@QBEXABV12@@Z PROC ; std::_Vector_const_iterator<std::_Vector_val<QuestData *,std::allocator<QuestData *> > >::_Compat, COMDAT
; _this$ = ecx

; 253  : 		}

  00000	c2 04 00	 ret	 4
?_Compat@?$_Vector_const_iterator@V?$_Vector_val@PAVQuestData@@V?$allocator@PAVQuestData@@@std@@@std@@@std@@QBEXABV12@@Z ENDP ; std::_Vector_const_iterator<std::_Vector_val<QuestData *,std::allocator<QuestData *> > >::_Compat
_TEXT	ENDS
PUBLIC	??0?$_Vector_const_iterator@V?$_Vector_val@PAVQuestCompleteData@@V?$allocator@PAVQuestCompleteData@@@std@@@std@@@std@@QAE@PAPAVQuestCompleteData@@PBU_Container_base0@1@@Z ; std::_Vector_const_iterator<std::_Vector_val<QuestCompleteData *,std::allocator<QuestCompleteData *> > >::_Vector_const_iterator<std::_Vector_val<QuestCompleteData *,std::allocator<QuestCompleteData *> > >
; Function compile flags: /Ogsp
;	COMDAT ??0?$_Vector_const_iterator@V?$_Vector_val@PAVQuestCompleteData@@V?$allocator@PAVQuestCompleteData@@@std@@@std@@@std@@QAE@PAPAVQuestCompleteData@@PBU_Container_base0@1@@Z
_TEXT	SEGMENT
__Parg$ = 8						; size = 4
__Pvector$ = 12						; size = 4
??0?$_Vector_const_iterator@V?$_Vector_val@PAVQuestCompleteData@@V?$allocator@PAVQuestCompleteData@@@std@@@std@@@std@@QAE@PAPAVQuestCompleteData@@PBU_Container_base0@1@@Z PROC ; std::_Vector_const_iterator<std::_Vector_val<QuestCompleteData *,std::allocator<QuestCompleteData *> > >::_Vector_const_iterator<std::_Vector_val<QuestCompleteData *,std::allocator<QuestCompleteData *> > >, COMDAT
; _this$ = ecx

; 45   : 		{	// construct with pointer _Parg

  00000	55		 push	 ebp
  00001	8b ec		 mov	 ebp, esp
  00003	8b c1		 mov	 eax, ecx
  00005	8b 4d 08	 mov	 ecx, DWORD PTR __Parg$[ebp]
  00008	89 08		 mov	 DWORD PTR [eax], ecx

; 46   : 		this->_Adopt(_Pvector);
; 47   : 		}

  0000a	5d		 pop	 ebp
  0000b	c2 08 00	 ret	 8
??0?$_Vector_const_iterator@V?$_Vector_val@PAVQuestCompleteData@@V?$allocator@PAVQuestCompleteData@@@std@@@std@@@std@@QAE@PAPAVQuestCompleteData@@PBU_Container_base0@1@@Z ENDP ; std::_Vector_const_iterator<std::_Vector_val<QuestCompleteData *,std::allocator<QuestCompleteData *> > >::_Vector_const_iterator<std::_Vector_val<QuestCompleteData *,std::allocator<QuestCompleteData *> > >
_TEXT	ENDS
PUBLIC	?_Compat@?$_Vector_const_iterator@V?$_Vector_val@PAVQuestCompleteData@@V?$allocator@PAVQuestCompleteData@@@std@@@std@@@std@@QBEXABV12@@Z ; std::_Vector_const_iterator<std::_Vector_val<QuestCompleteData *,std::allocator<QuestCompleteData *> > >::_Compat
; Function compile flags: /Ogsp
;	COMDAT ?_Compat@?$_Vector_const_iterator@V?$_Vector_val@PAVQuestCompleteData@@V?$allocator@PAVQuestCompleteData@@@std@@@std@@@std@@QBEXABV12@@Z
_TEXT	SEGMENT
___formal$ = 8						; size = 4
?_Compat@?$_Vector_const_iterator@V?$_Vector_val@PAVQuestCompleteData@@V?$allocator@PAVQuestCompleteData@@@std@@@std@@@std@@QBEXABV12@@Z PROC ; std::_Vector_const_iterator<std::_Vector_val<QuestCompleteData *,std::allocator<QuestCompleteData *> > >::_Compat, COMDAT
; _this$ = ecx

; 253  : 		}

  00000	c2 04 00	 ret	 4
?_Compat@?$_Vector_const_iterator@V?$_Vector_val@PAVQuestCompleteData@@V?$allocator@PAVQuestCompleteData@@@std@@@std@@@std@@QBEXABV12@@Z ENDP ; std::_Vector_const_iterator<std::_Vector_val<QuestCompleteData *,std::allocator<QuestCompleteData *> > >::_Compat
_TEXT	ENDS
PUBLIC	??G?$_Vector_const_iterator@V?$_Vector_val@PAVQuestData@@V?$allocator@PAVQuestData@@@std@@@std@@@std@@QBEHABV01@@Z ; std::_Vector_const_iterator<std::_Vector_val<QuestData *,std::allocator<QuestData *> > >::operator-
; Function compile flags: /Ogsp
;	COMDAT ??G?$_Vector_const_iterator@V?$_Vector_val@PAVQuestData@@V?$allocator@PAVQuestData@@@std@@@std@@@std@@QBEHABV01@@Z
_TEXT	SEGMENT
__Right$ = 8						; size = 4
??G?$_Vector_const_iterator@V?$_Vector_val@PAVQuestData@@V?$allocator@PAVQuestData@@@std@@@std@@@std@@QBEHABV01@@Z PROC ; std::_Vector_const_iterator<std::_Vector_val<QuestData *,std::allocator<QuestData *> > >::operator-, COMDAT
; _this$ = ecx

; 190  : 		{	// return difference of iterators

  00000	55		 push	 ebp
  00001	8b ec		 mov	 ebp, esp

; 191  : 		_Compat(_Right);
; 192  : 		return (this->_Ptr - _Right._Ptr);

  00003	8b 01		 mov	 eax, DWORD PTR [ecx]
  00005	8b 4d 08	 mov	 ecx, DWORD PTR __Right$[ebp]
  00008	2b 01		 sub	 eax, DWORD PTR [ecx]
  0000a	c1 f8 02	 sar	 eax, 2

; 193  : 		}

  0000d	5d		 pop	 ebp
  0000e	c2 04 00	 ret	 4
??G?$_Vector_const_iterator@V?$_Vector_val@PAVQuestData@@V?$allocator@PAVQuestData@@@std@@@std@@@std@@QBEHABV01@@Z ENDP ; std::_Vector_const_iterator<std::_Vector_val<QuestData *,std::allocator<QuestData *> > >::operator-
_TEXT	ENDS
PUBLIC	??G?$_Vector_const_iterator@V?$_Vector_val@PAVQuestCompleteData@@V?$allocator@PAVQuestCompleteData@@@std@@@std@@@std@@QBEHABV01@@Z ; std::_Vector_const_iterator<std::_Vector_val<QuestCompleteData *,std::allocator<QuestCompleteData *> > >::operator-
; Function compile flags: /Ogsp
;	COMDAT ??G?$_Vector_const_iterator@V?$_Vector_val@PAVQuestCompleteData@@V?$allocator@PAVQuestCompleteData@@@std@@@std@@@std@@QBEHABV01@@Z
_TEXT	SEGMENT
__Right$ = 8						; size = 4
??G?$_Vector_const_iterator@V?$_Vector_val@PAVQuestCompleteData@@V?$allocator@PAVQuestCompleteData@@@std@@@std@@@std@@QBEHABV01@@Z PROC ; std::_Vector_const_iterator<std::_Vector_val<QuestCompleteData *,std::allocator<QuestCompleteData *> > >::operator-, COMDAT
; _this$ = ecx

; 190  : 		{	// return difference of iterators

  00000	55		 push	 ebp
  00001	8b ec		 mov	 ebp, esp

; 191  : 		_Compat(_Right);
; 192  : 		return (this->_Ptr - _Right._Ptr);

  00003	8b 01		 mov	 eax, DWORD PTR [ecx]
  00005	8b 4d 08	 mov	 ecx, DWORD PTR __Right$[ebp]
  00008	2b 01		 sub	 eax, DWORD PTR [ecx]
  0000a	c1 f8 02	 sar	 eax, 2

; 193  : 		}

  0000d	5d		 pop	 ebp
  0000e	c2 04 00	 ret	 4
??G?$_Vector_const_iterator@V?$_Vector_val@PAVQuestCompleteData@@V?$allocator@PAVQuestCompleteData@@@std@@@std@@@std@@QBEHABV01@@Z ENDP ; std::_Vector_const_iterator<std::_Vector_val<QuestCompleteData *,std::allocator<QuestCompleteData *> > >::operator-
_TEXT	ENDS
PUBLIC	??$forward@AAPAVQuestData@@@std@@YAAAPAVQuestData@@AAPAV1@@Z ; std::forward<QuestData * &>
; Function compile flags: /Ogsp
; File c:\program files (x86)\microsoft visual studio 10.0\vc\include\utility
;	COMDAT ??$forward@AAPAVQuestData@@@std@@YAAAPAVQuestData@@AAPAV1@@Z
_TEXT	SEGMENT
__Arg$ = 8						; size = 4
??$forward@AAPAVQuestData@@@std@@YAAAPAVQuestData@@AAPAV1@@Z PROC ; std::forward<QuestData * &>, COMDAT

; 78   : 	{	// forward _Arg, given explicitly specified type parameter

  00000	55		 push	 ebp
  00001	8b ec		 mov	 ebp, esp

; 79   : 	return ((_Ty&&)_Arg);

  00003	8b 45 08	 mov	 eax, DWORD PTR __Arg$[ebp]

; 80   : 	}

  00006	5d		 pop	 ebp
  00007	c3		 ret	 0
??$forward@AAPAVQuestData@@@std@@YAAAPAVQuestData@@AAPAV1@@Z ENDP ; std::forward<QuestData * &>
_TEXT	ENDS
PUBLIC	??$forward@AAPAVQuestCompleteData@@@std@@YAAAPAVQuestCompleteData@@AAPAV1@@Z ; std::forward<QuestCompleteData * &>
; Function compile flags: /Ogsp
;	COMDAT ??$forward@AAPAVQuestCompleteData@@@std@@YAAAPAVQuestCompleteData@@AAPAV1@@Z
_TEXT	SEGMENT
__Arg$ = 8						; size = 4
??$forward@AAPAVQuestCompleteData@@@std@@YAAAPAVQuestCompleteData@@AAPAV1@@Z PROC ; std::forward<QuestCompleteData * &>, COMDAT

; 78   : 	{	// forward _Arg, given explicitly specified type parameter

  00000	55		 push	 ebp
  00001	8b ec		 mov	 ebp, esp

; 79   : 	return ((_Ty&&)_Arg);

  00003	8b 45 08	 mov	 eax, DWORD PTR __Arg$[ebp]

; 80   : 	}

  00006	5d		 pop	 ebp
  00007	c3		 ret	 0
??$forward@AAPAVQuestCompleteData@@@std@@YAAAPAVQuestCompleteData@@AAPAV1@@Z ENDP ; std::forward<QuestCompleteData * &>
_TEXT	ENDS
PUBLIC	??$_Ptr_cat@PAVQuestData@@PAV1@@std@@YA?AU_Scalar_ptr_iterator_tag@0@PAPAVQuestData@@0@Z ; std::_Ptr_cat<QuestData *,QuestData *>
; Function compile flags: /Ogsp
; File c:\program files (x86)\microsoft visual studio 10.0\vc\include\xutility
;	COMDAT ??$_Ptr_cat@PAVQuestData@@PAV1@@std@@YA?AU_Scalar_ptr_iterator_tag@0@PAPAVQuestData@@0@Z
_TEXT	SEGMENT
__Cat$ = -1						; size = 1
___formal$ = 8						; size = 4
___formal$ = 12						; size = 4
??$_Ptr_cat@PAVQuestData@@PAV1@@std@@YA?AU_Scalar_ptr_iterator_tag@0@PAPAVQuestData@@0@Z PROC ; std::_Ptr_cat<QuestData *,QuestData *>, COMDAT

; 516  : 	{	// return pointer category from pointers

  00000	55		 push	 ebp
  00001	8b ec		 mov	 ebp, esp
  00003	51		 push	 ecx

; 517  : 	typename _Ptr_cat_helper<_Elem1, _Elem2>::_Type _Cat;
; 518  : 	return (_Cat);

  00004	8a 45 ff	 mov	 al, BYTE PTR __Cat$[ebp]

; 519  : 	}

  00007	c9		 leave
  00008	c3		 ret	 0
??$_Ptr_cat@PAVQuestData@@PAV1@@std@@YA?AU_Scalar_ptr_iterator_tag@0@PAPAVQuestData@@0@Z ENDP ; std::_Ptr_cat<QuestData *,QuestData *>
_TEXT	ENDS
PUBLIC	??$_Move@PAPAVQuestData@@PAPAV1@@std@@YAPAPAVQuestData@@PAPAV1@00U_Scalar_ptr_iterator_tag@0@@Z ; std::_Move<QuestData * *,QuestData * *>
EXTRN	__imp__memmove:PROC
; Function compile flags: /Ogsp
;	COMDAT ??$_Move@PAPAVQuestData@@PAPAV1@@std@@YAPAPAVQuestData@@PAPAV1@00U_Scalar_ptr_iterator_tag@0@@Z
_TEXT	SEGMENT
__First$ = 8						; size = 4
__Last$ = 12						; size = 4
__Dest$ = 16						; size = 4
___formal$ = 20						; size = 1
??$_Move@PAPAVQuestData@@PAPAV1@@std@@YAPAPAVQuestData@@PAPAV1@00U_Scalar_ptr_iterator_tag@0@@Z PROC ; std::_Move<QuestData * *,QuestData * *>, COMDAT

; 2522 : 	{	// move [_First, _Last) to [_Dest, ...), pointers to scalars

  00000	55		 push	 ebp
  00001	8b ec		 mov	 ebp, esp
  00003	56		 push	 esi

; 2523 : 	ptrdiff_t _Count = _Last - _First;

  00004	8b 75 0c	 mov	 esi, DWORD PTR __Last$[ebp]
  00007	2b 75 08	 sub	 esi, DWORD PTR __First$[ebp]
  0000a	57		 push	 edi

; 2524 : 	_CSTD memmove(&*_Dest, &*_First,
; 2525 : 		_Count * sizeof (*_First));

  0000b	8b 7d 10	 mov	 edi, DWORD PTR __Dest$[ebp]
  0000e	c1 fe 02	 sar	 esi, 2
  00011	c1 e6 02	 shl	 esi, 2
  00014	56		 push	 esi
  00015	ff 75 08	 push	 DWORD PTR __First$[ebp]
  00018	57		 push	 edi
  00019	ff 15 00 00 00
	00		 call	 DWORD PTR __imp__memmove
  0001f	83 c4 0c	 add	 esp, 12			; 0000000cH

; 2526 : 	return (_Dest + _Count);

  00022	8d 04 3e	 lea	 eax, DWORD PTR [esi+edi]
  00025	5f		 pop	 edi
  00026	5e		 pop	 esi

; 2527 : 	}

  00027	5d		 pop	 ebp
  00028	c3		 ret	 0
??$_Move@PAPAVQuestData@@PAPAV1@@std@@YAPAPAVQuestData@@PAPAV1@00U_Scalar_ptr_iterator_tag@0@@Z ENDP ; std::_Move<QuestData * *,QuestData * *>
_TEXT	ENDS
PUBLIC	??$_Ptr_cat@PAVQuestCompleteData@@PAV1@@std@@YA?AU_Scalar_ptr_iterator_tag@0@PAPAVQuestCompleteData@@0@Z ; std::_Ptr_cat<QuestCompleteData *,QuestCompleteData *>
; Function compile flags: /Ogsp
;	COMDAT ??$_Ptr_cat@PAVQuestCompleteData@@PAV1@@std@@YA?AU_Scalar_ptr_iterator_tag@0@PAPAVQuestCompleteData@@0@Z
_TEXT	SEGMENT
__Cat$ = -1						; size = 1
___formal$ = 8						; size = 4
___formal$ = 12						; size = 4
??$_Ptr_cat@PAVQuestCompleteData@@PAV1@@std@@YA?AU_Scalar_ptr_iterator_tag@0@PAPAVQuestCompleteData@@0@Z PROC ; std::_Ptr_cat<QuestCompleteData *,QuestCompleteData *>, COMDAT

; 516  : 	{	// return pointer category from pointers

  00000	55		 push	 ebp
  00001	8b ec		 mov	 ebp, esp
  00003	51		 push	 ecx

; 517  : 	typename _Ptr_cat_helper<_Elem1, _Elem2>::_Type _Cat;
; 518  : 	return (_Cat);

  00004	8a 45 ff	 mov	 al, BYTE PTR __Cat$[ebp]

; 519  : 	}

  00007	c9		 leave
  00008	c3		 ret	 0
??$_Ptr_cat@PAVQuestCompleteData@@PAV1@@std@@YA?AU_Scalar_ptr_iterator_tag@0@PAPAVQuestCompleteData@@0@Z ENDP ; std::_Ptr_cat<QuestCompleteData *,QuestCompleteData *>
_TEXT	ENDS
PUBLIC	??$_Move@PAPAVQuestCompleteData@@PAPAV1@@std@@YAPAPAVQuestCompleteData@@PAPAV1@00U_Scalar_ptr_iterator_tag@0@@Z ; std::_Move<QuestCompleteData * *,QuestCompleteData * *>
; Function compile flags: /Ogsp
;	COMDAT ??$_Move@PAPAVQuestCompleteData@@PAPAV1@@std@@YAPAPAVQuestCompleteData@@PAPAV1@00U_Scalar_ptr_iterator_tag@0@@Z
_TEXT	SEGMENT
__First$ = 8						; size = 4
__Last$ = 12						; size = 4
__Dest$ = 16						; size = 4
___formal$ = 20						; size = 1
??$_Move@PAPAVQuestCompleteData@@PAPAV1@@std@@YAPAPAVQuestCompleteData@@PAPAV1@00U_Scalar_ptr_iterator_tag@0@@Z PROC ; std::_Move<QuestCompleteData * *,QuestCompleteData * *>, COMDAT

; 2522 : 	{	// move [_First, _Last) to [_Dest, ...), pointers to scalars

  00000	55		 push	 ebp
  00001	8b ec		 mov	 ebp, esp
  00003	56		 push	 esi

; 2523 : 	ptrdiff_t _Count = _Last - _First;

  00004	8b 75 0c	 mov	 esi, DWORD PTR __Last$[ebp]
  00007	2b 75 08	 sub	 esi, DWORD PTR __First$[ebp]
  0000a	57		 push	 edi

; 2524 : 	_CSTD memmove(&*_Dest, &*_First,
; 2525 : 		_Count * sizeof (*_First));

  0000b	8b 7d 10	 mov	 edi, DWORD PTR __Dest$[ebp]
  0000e	c1 fe 02	 sar	 esi, 2
  00011	c1 e6 02	 shl	 esi, 2
  00014	56		 push	 esi
  00015	ff 75 08	 push	 DWORD PTR __First$[ebp]
  00018	57		 push	 edi
  00019	ff 15 00 00 00
	00		 call	 DWORD PTR __imp__memmove
  0001f	83 c4 0c	 add	 esp, 12			; 0000000cH

; 2526 : 	return (_Dest + _Count);

  00022	8d 04 3e	 lea	 eax, DWORD PTR [esi+edi]
  00025	5f		 pop	 edi
  00026	5e		 pop	 esi

; 2527 : 	}

  00027	5d		 pop	 ebp
  00028	c3		 ret	 0
??$_Move@PAPAVQuestCompleteData@@PAPAV1@@std@@YAPAPAVQuestCompleteData@@PAPAV1@00U_Scalar_ptr_iterator_tag@0@@Z ENDP ; std::_Move<QuestCompleteData * *,QuestCompleteData * *>
_TEXT	ENDS
PUBLIC	??$_Destroy_range@V?$allocator@PAVQuestData@@@std@@@std@@YAXPAPAVQuestData@@0AAV?$allocator@PAVQuestData@@@0@U_Scalar_ptr_iterator_tag@0@@Z ; std::_Destroy_range<std::allocator<QuestData *> >
; Function compile flags: /Ogsp
; File c:\program files (x86)\microsoft visual studio 10.0\vc\include\xmemory
;	COMDAT ??$_Destroy_range@V?$allocator@PAVQuestData@@@std@@@std@@YAXPAPAVQuestData@@0AAV?$allocator@PAVQuestData@@@0@U_Scalar_ptr_iterator_tag@0@@Z
_TEXT	SEGMENT
__First$ = 8						; size = 4
__Last$ = 12						; size = 4
__Al$ = 16						; size = 4
___formal$ = 20						; size = 1
??$_Destroy_range@V?$allocator@PAVQuestData@@@std@@@std@@YAXPAPAVQuestData@@0AAV?$allocator@PAVQuestData@@@0@U_Scalar_ptr_iterator_tag@0@@Z PROC ; std::_Destroy_range<std::allocator<QuestData *> >, COMDAT

; 105  : 	}

  00000	c3		 ret	 0
??$_Destroy_range@V?$allocator@PAVQuestData@@@std@@@std@@YAXPAPAVQuestData@@0AAV?$allocator@PAVQuestData@@@0@U_Scalar_ptr_iterator_tag@0@@Z ENDP ; std::_Destroy_range<std::allocator<QuestData *> >
_TEXT	ENDS
PUBLIC	??$_Destroy_range@V?$allocator@PAVQuestCompleteData@@@std@@@std@@YAXPAPAVQuestCompleteData@@0AAV?$allocator@PAVQuestCompleteData@@@0@U_Scalar_ptr_iterator_tag@0@@Z ; std::_Destroy_range<std::allocator<QuestCompleteData *> >
; Function compile flags: /Ogsp
;	COMDAT ??$_Destroy_range@V?$allocator@PAVQuestCompleteData@@@std@@@std@@YAXPAPAVQuestCompleteData@@0AAV?$allocator@PAVQuestCompleteData@@@0@U_Scalar_ptr_iterator_tag@0@@Z
_TEXT	SEGMENT
__First$ = 8						; size = 4
__Last$ = 12						; size = 4
__Al$ = 16						; size = 4
___formal$ = 20						; size = 1
??$_Destroy_range@V?$allocator@PAVQuestCompleteData@@@std@@@std@@YAXPAPAVQuestCompleteData@@0AAV?$allocator@PAVQuestCompleteData@@@0@U_Scalar_ptr_iterator_tag@0@@Z PROC ; std::_Destroy_range<std::allocator<QuestCompleteData *> >, COMDAT

; 105  : 	}

  00000	c3		 ret	 0
??$_Destroy_range@V?$allocator@PAVQuestCompleteData@@@std@@@std@@YAXPAPAVQuestCompleteData@@0AAV?$allocator@PAVQuestCompleteData@@@0@U_Scalar_ptr_iterator_tag@0@@Z ENDP ; std::_Destroy_range<std::allocator<QuestCompleteData *> >
_TEXT	ENDS
PUBLIC	?_Unchecked@?$_Vector_iterator@V?$_Vector_val@PAVQuestData@@V?$allocator@PAVQuestData@@@std@@@std@@@std@@QBEPAPAVQuestData@@XZ ; std::_Vector_iterator<std::_Vector_val<QuestData *,std::allocator<QuestData *> > >::_Unchecked
; Function compile flags: /Ogsp
; File c:\program files (x86)\microsoft visual studio 10.0\vc\include\vector
;	COMDAT ?_Unchecked@?$_Vector_iterator@V?$_Vector_val@PAVQuestData@@V?$allocator@PAVQuestData@@@std@@@std@@@std@@QBEPAPAVQuestData@@XZ
_TEXT	SEGMENT
?_Unchecked@?$_Vector_iterator@V?$_Vector_val@PAVQuestData@@V?$allocator@PAVQuestData@@@std@@@std@@@std@@QBEPAPAVQuestData@@XZ PROC ; std::_Vector_iterator<std::_Vector_val<QuestData *,std::allocator<QuestData *> > >::_Unchecked, COMDAT
; _this$ = ecx

; 317  : 		return (_Unchecked_type(this->_Ptr));

  00000	8b 01		 mov	 eax, DWORD PTR [ecx]

; 318  : 		}

  00002	c3		 ret	 0
?_Unchecked@?$_Vector_iterator@V?$_Vector_val@PAVQuestData@@V?$allocator@PAVQuestData@@@std@@@std@@@std@@QBEPAPAVQuestData@@XZ ENDP ; std::_Vector_iterator<std::_Vector_val<QuestData *,std::allocator<QuestData *> > >::_Unchecked
_TEXT	ENDS
PUBLIC	?_Unchecked@?$_Vector_iterator@V?$_Vector_val@PAVQuestCompleteData@@V?$allocator@PAVQuestCompleteData@@@std@@@std@@@std@@QBEPAPAVQuestCompleteData@@XZ ; std::_Vector_iterator<std::_Vector_val<QuestCompleteData *,std::allocator<QuestCompleteData *> > >::_Unchecked
; Function compile flags: /Ogsp
;	COMDAT ?_Unchecked@?$_Vector_iterator@V?$_Vector_val@PAVQuestCompleteData@@V?$allocator@PAVQuestCompleteData@@@std@@@std@@@std@@QBEPAPAVQuestCompleteData@@XZ
_TEXT	SEGMENT
?_Unchecked@?$_Vector_iterator@V?$_Vector_val@PAVQuestCompleteData@@V?$allocator@PAVQuestCompleteData@@@std@@@std@@@std@@QBEPAPAVQuestCompleteData@@XZ PROC ; std::_Vector_iterator<std::_Vector_val<QuestCompleteData *,std::allocator<QuestCompleteData *> > >::_Unchecked, COMDAT
; _this$ = ecx

; 317  : 		return (_Unchecked_type(this->_Ptr));

  00000	8b 01		 mov	 eax, DWORD PTR [ecx]

; 318  : 		}

  00002	c3		 ret	 0
?_Unchecked@?$_Vector_iterator@V?$_Vector_val@PAVQuestCompleteData@@V?$allocator@PAVQuestCompleteData@@@std@@@std@@@std@@QBEPAPAVQuestCompleteData@@XZ ENDP ; std::_Vector_iterator<std::_Vector_val<QuestCompleteData *,std::allocator<QuestCompleteData *> > >::_Unchecked
_TEXT	ENDS
PUBLIC	??Y?$_Vector_const_iterator@V?$_Vector_val@PAVQuestData@@V?$allocator@PAVQuestData@@@std@@@std@@@std@@QAEAAV01@H@Z ; std::_Vector_const_iterator<std::_Vector_val<QuestData *,std::allocator<QuestData *> > >::operator+=
; Function compile flags: /Ogsp
;	COMDAT ??Y?$_Vector_const_iterator@V?$_Vector_val@PAVQuestData@@V?$allocator@PAVQuestData@@@std@@@std@@@std@@QAEAAV01@H@Z
_TEXT	SEGMENT
__Off$ = 8						; size = 4
??Y?$_Vector_const_iterator@V?$_Vector_val@PAVQuestData@@V?$allocator@PAVQuestData@@@std@@@std@@@std@@QAEAAV01@H@Z PROC ; std::_Vector_const_iterator<std::_Vector_val<QuestData *,std::allocator<QuestData *> > >::operator+=, COMDAT
; _this$ = ecx

; 151  : 		{	// increment by integer

  00000	55		 push	 ebp
  00001	8b ec		 mov	 ebp, esp
  00003	8b c1		 mov	 eax, ecx

; 152  :  #if _ITERATOR_DEBUG_LEVEL == 2
; 153  : 		if (this->_Getcont() == 0
; 154  : 			|| this->_Ptr + _Off < ((_Myvec *)this->_Getcont())->_Myfirst
; 155  : 			|| ((_Myvec *)this->_Getcont())->_Mylast < this->_Ptr + _Off)
; 156  : 			{	// report error
; 157  : 			_DEBUG_ERROR("vector iterator + offset out of range");
; 158  : 			_SCL_SECURE_OUT_OF_RANGE;
; 159  : 			}
; 160  : 
; 161  :  #elif _ITERATOR_DEBUG_LEVEL == 1
; 162  : 		_SCL_SECURE_VALIDATE(this->_Getcont() != 0);
; 163  : 		_SCL_SECURE_VALIDATE_RANGE(
; 164  : 			((_Myvec *)this->_Getcont())->_Myfirst <= this->_Ptr + _Off
; 165  : 			&& this->_Ptr + _Off <= ((_Myvec *)this->_Getcont())->_Mylast);
; 166  :  #endif /* _ITERATOR_DEBUG_LEVEL */
; 167  : 
; 168  : 		_Ptr += _Off;

  00005	8b 4d 08	 mov	 ecx, DWORD PTR __Off$[ebp]
  00008	c1 e1 02	 shl	 ecx, 2
  0000b	01 08		 add	 DWORD PTR [eax], ecx

; 169  : 		return (*this);
; 170  : 		}

  0000d	5d		 pop	 ebp
  0000e	c2 04 00	 ret	 4
??Y?$_Vector_const_iterator@V?$_Vector_val@PAVQuestData@@V?$allocator@PAVQuestData@@@std@@@std@@@std@@QAEAAV01@H@Z ENDP ; std::_Vector_const_iterator<std::_Vector_val<QuestData *,std::allocator<QuestData *> > >::operator+=
_TEXT	ENDS
PUBLIC	??Y?$_Vector_const_iterator@V?$_Vector_val@PAVQuestCompleteData@@V?$allocator@PAVQuestCompleteData@@@std@@@std@@@std@@QAEAAV01@H@Z ; std::_Vector_const_iterator<std::_Vector_val<QuestCompleteData *,std::allocator<QuestCompleteData *> > >::operator+=
; Function compile flags: /Ogsp
;	COMDAT ??Y?$_Vector_const_iterator@V?$_Vector_val@PAVQuestCompleteData@@V?$allocator@PAVQuestCompleteData@@@std@@@std@@@std@@QAEAAV01@H@Z
_TEXT	SEGMENT
__Off$ = 8						; size = 4
??Y?$_Vector_const_iterator@V?$_Vector_val@PAVQuestCompleteData@@V?$allocator@PAVQuestCompleteData@@@std@@@std@@@std@@QAEAAV01@H@Z PROC ; std::_Vector_const_iterator<std::_Vector_val<QuestCompleteData *,std::allocator<QuestCompleteData *> > >::operator+=, COMDAT
; _this$ = ecx

; 151  : 		{	// increment by integer

  00000	55		 push	 ebp
  00001	8b ec		 mov	 ebp, esp
  00003	8b c1		 mov	 eax, ecx

; 152  :  #if _ITERATOR_DEBUG_LEVEL == 2
; 153  : 		if (this->_Getcont() == 0
; 154  : 			|| this->_Ptr + _Off < ((_Myvec *)this->_Getcont())->_Myfirst
; 155  : 			|| ((_Myvec *)this->_Getcont())->_Mylast < this->_Ptr + _Off)
; 156  : 			{	// report error
; 157  : 			_DEBUG_ERROR("vector iterator + offset out of range");
; 158  : 			_SCL_SECURE_OUT_OF_RANGE;
; 159  : 			}
; 160  : 
; 161  :  #elif _ITERATOR_DEBUG_LEVEL == 1
; 162  : 		_SCL_SECURE_VALIDATE(this->_Getcont() != 0);
; 163  : 		_SCL_SECURE_VALIDATE_RANGE(
; 164  : 			((_Myvec *)this->_Getcont())->_Myfirst <= this->_Ptr + _Off
; 165  : 			&& this->_Ptr + _Off <= ((_Myvec *)this->_Getcont())->_Mylast);
; 166  :  #endif /* _ITERATOR_DEBUG_LEVEL */
; 167  : 
; 168  : 		_Ptr += _Off;

  00005	8b 4d 08	 mov	 ecx, DWORD PTR __Off$[ebp]
  00008	c1 e1 02	 shl	 ecx, 2
  0000b	01 08		 add	 DWORD PTR [eax], ecx

; 169  : 		return (*this);
; 170  : 		}

  0000d	5d		 pop	 ebp
  0000e	c2 04 00	 ret	 4
??Y?$_Vector_const_iterator@V?$_Vector_val@PAVQuestCompleteData@@V?$allocator@PAVQuestCompleteData@@@std@@@std@@@std@@QAEAAV01@H@Z ENDP ; std::_Vector_const_iterator<std::_Vector_val<QuestCompleteData *,std::allocator<QuestCompleteData *> > >::operator+=
_TEXT	ENDS
PUBLIC	?_Orphan_range@?$vector@PAVQuestData@@V?$allocator@PAVQuestData@@@std@@@std@@IBEXPAPAVQuestData@@0@Z ; std::vector<QuestData *,std::allocator<QuestData *> >::_Orphan_range
; Function compile flags: /Ogsp
;	COMDAT ?_Orphan_range@?$vector@PAVQuestData@@V?$allocator@PAVQuestData@@@std@@@std@@IBEXPAPAVQuestData@@0@Z
_TEXT	SEGMENT
___formal$ = 8						; size = 4
___formal$ = 12						; size = 4
?_Orphan_range@?$vector@PAVQuestData@@V?$allocator@PAVQuestData@@@std@@@std@@IBEXPAPAVQuestData@@0@Z PROC ; std::vector<QuestData *,std::allocator<QuestData *> >::_Orphan_range, COMDAT
; _this$ = ecx

; 1454 : 		}

  00000	c2 08 00	 ret	 8
?_Orphan_range@?$vector@PAVQuestData@@V?$allocator@PAVQuestData@@@std@@@std@@IBEXPAPAVQuestData@@0@Z ENDP ; std::vector<QuestData *,std::allocator<QuestData *> >::_Orphan_range
_TEXT	ENDS
PUBLIC	?_Orphan_range@?$vector@PAVQuestCompleteData@@V?$allocator@PAVQuestCompleteData@@@std@@@std@@IBEXPAPAVQuestCompleteData@@0@Z ; std::vector<QuestCompleteData *,std::allocator<QuestCompleteData *> >::_Orphan_range
; Function compile flags: /Ogsp
;	COMDAT ?_Orphan_range@?$vector@PAVQuestCompleteData@@V?$allocator@PAVQuestCompleteData@@@std@@@std@@IBEXPAPAVQuestCompleteData@@0@Z
_TEXT	SEGMENT
___formal$ = 8						; size = 4
___formal$ = 12						; size = 4
?_Orphan_range@?$vector@PAVQuestCompleteData@@V?$allocator@PAVQuestCompleteData@@@std@@@std@@IBEXPAPAVQuestCompleteData@@0@Z PROC ; std::vector<QuestCompleteData *,std::allocator<QuestCompleteData *> >::_Orphan_range, COMDAT
; _this$ = ecx

; 1454 : 		}

  00000	c2 08 00	 ret	 8
?_Orphan_range@?$vector@PAVQuestCompleteData@@V?$allocator@PAVQuestCompleteData@@@std@@@std@@IBEXPAPAVQuestCompleteData@@0@Z ENDP ; std::vector<QuestCompleteData *,std::allocator<QuestCompleteData *> >::_Orphan_range
_TEXT	ENDS
PUBLIC	?capacity@?$vector@PAVQuestData@@V?$allocator@PAVQuestData@@@std@@@std@@QBEIXZ ; std::vector<QuestData *,std::allocator<QuestData *> >::capacity
; Function compile flags: /Ogsp
;	COMDAT ?capacity@?$vector@PAVQuestData@@V?$allocator@PAVQuestData@@@std@@@std@@QBEIXZ
_TEXT	SEGMENT
?capacity@?$vector@PAVQuestData@@V?$allocator@PAVQuestData@@@std@@@std@@QBEIXZ PROC ; std::vector<QuestData *,std::allocator<QuestData *> >::capacity, COMDAT
; _this$ = ecx

; 777  : 		return (this->_Myend - this->_Myfirst);

  00000	8b 41 08	 mov	 eax, DWORD PTR [ecx+8]
  00003	2b 01		 sub	 eax, DWORD PTR [ecx]
  00005	c1 f8 02	 sar	 eax, 2

; 778  : 		}

  00008	c3		 ret	 0
?capacity@?$vector@PAVQuestData@@V?$allocator@PAVQuestData@@@std@@@std@@QBEIXZ ENDP ; std::vector<QuestData *,std::allocator<QuestData *> >::capacity
_TEXT	ENDS
PUBLIC	?size@?$vector@PAVQuestData@@V?$allocator@PAVQuestData@@@std@@@std@@QBEIXZ ; std::vector<QuestData *,std::allocator<QuestData *> >::size
; Function compile flags: /Ogsp
;	COMDAT ?size@?$vector@PAVQuestData@@V?$allocator@PAVQuestData@@@std@@@std@@QBEIXZ
_TEXT	SEGMENT
?size@?$vector@PAVQuestData@@V?$allocator@PAVQuestData@@@std@@@std@@QBEIXZ PROC ; std::vector<QuestData *,std::allocator<QuestData *> >::size, COMDAT
; _this$ = ecx

; 879  : 		return (this->_Mylast - this->_Myfirst);

  00000	8b 41 04	 mov	 eax, DWORD PTR [ecx+4]
  00003	2b 01		 sub	 eax, DWORD PTR [ecx]
  00005	c1 f8 02	 sar	 eax, 2

; 880  : 		}

  00008	c3		 ret	 0
?size@?$vector@PAVQuestData@@V?$allocator@PAVQuestData@@@std@@@std@@QBEIXZ ENDP ; std::vector<QuestData *,std::allocator<QuestData *> >::size
_TEXT	ENDS
PUBLIC	??_C@_0BD@OLBABOEK@vector?$DMT?$DO?5too?5long?$AA@ ; `string'
PUBLIC	?_Xlen@?$vector@PAVQuestData@@V?$allocator@PAVQuestData@@@std@@@std@@IBEXXZ ; std::vector<QuestData *,std::allocator<QuestData *> >::_Xlen
EXTRN	__imp_?_Xlength_error@std@@YAXPBD@Z:PROC
;	COMDAT ??_C@_0BD@OLBABOEK@vector?$DMT?$DO?5too?5long?$AA@
CONST	SEGMENT
??_C@_0BD@OLBABOEK@vector?$DMT?$DO?5too?5long?$AA@ DB 'vector<T> too long'
	DB	00H						; `string'
; Function compile flags: /Ogsp
CONST	ENDS
;	COMDAT ?_Xlen@?$vector@PAVQuestData@@V?$allocator@PAVQuestData@@@std@@@std@@IBEXXZ
_TEXT	SEGMENT
?_Xlen@?$vector@PAVQuestData@@V?$allocator@PAVQuestData@@@std@@@std@@IBEXXZ PROC ; std::vector<QuestData *,std::allocator<QuestData *> >::_Xlen, COMDAT
; _this$ = ecx

; 1427 : 		_Xlength_error("vector<T> too long");

  00000	68 00 00 00 00	 push	 OFFSET ??_C@_0BD@OLBABOEK@vector?$DMT?$DO?5too?5long?$AA@
  00005	ff 15 00 00 00
	00		 call	 DWORD PTR __imp_?_Xlength_error@std@@YAXPBD@Z
$LN4@Xlen:
$LN3@Xlen:
  0000b	cc		 int	 3
?_Xlen@?$vector@PAVQuestData@@V?$allocator@PAVQuestData@@@std@@@std@@IBEXXZ ENDP ; std::vector<QuestData *,std::allocator<QuestData *> >::_Xlen
_TEXT	ENDS
PUBLIC	?capacity@?$vector@PAVQuestCompleteData@@V?$allocator@PAVQuestCompleteData@@@std@@@std@@QBEIXZ ; std::vector<QuestCompleteData *,std::allocator<QuestCompleteData *> >::capacity
; Function compile flags: /Ogsp
;	COMDAT ?capacity@?$vector@PAVQuestCompleteData@@V?$allocator@PAVQuestCompleteData@@@std@@@std@@QBEIXZ
_TEXT	SEGMENT
?capacity@?$vector@PAVQuestCompleteData@@V?$allocator@PAVQuestCompleteData@@@std@@@std@@QBEIXZ PROC ; std::vector<QuestCompleteData *,std::allocator<QuestCompleteData *> >::capacity, COMDAT
; _this$ = ecx

; 777  : 		return (this->_Myend - this->_Myfirst);

  00000	8b 41 08	 mov	 eax, DWORD PTR [ecx+8]
  00003	2b 01		 sub	 eax, DWORD PTR [ecx]
  00005	c1 f8 02	 sar	 eax, 2

; 778  : 		}

  00008	c3		 ret	 0
?capacity@?$vector@PAVQuestCompleteData@@V?$allocator@PAVQuestCompleteData@@@std@@@std@@QBEIXZ ENDP ; std::vector<QuestCompleteData *,std::allocator<QuestCompleteData *> >::capacity
_TEXT	ENDS
PUBLIC	?size@?$vector@PAVQuestCompleteData@@V?$allocator@PAVQuestCompleteData@@@std@@@std@@QBEIXZ ; std::vector<QuestCompleteData *,std::allocator<QuestCompleteData *> >::size
; Function compile flags: /Ogsp
;	COMDAT ?size@?$vector@PAVQuestCompleteData@@V?$allocator@PAVQuestCompleteData@@@std@@@std@@QBEIXZ
_TEXT	SEGMENT
?size@?$vector@PAVQuestCompleteData@@V?$allocator@PAVQuestCompleteData@@@std@@@std@@QBEIXZ PROC ; std::vector<QuestCompleteData *,std::allocator<QuestCompleteData *> >::size, COMDAT
; _this$ = ecx

; 879  : 		return (this->_Mylast - this->_Myfirst);

  00000	8b 41 04	 mov	 eax, DWORD PTR [ecx+4]
  00003	2b 01		 sub	 eax, DWORD PTR [ecx]
  00005	c1 f8 02	 sar	 eax, 2

; 880  : 		}

  00008	c3		 ret	 0
?size@?$vector@PAVQuestCompleteData@@V?$allocator@PAVQuestCompleteData@@@std@@@std@@QBEIXZ ENDP ; std::vector<QuestCompleteData *,std::allocator<QuestCompleteData *> >::size
_TEXT	ENDS
PUBLIC	?_Xlen@?$vector@PAVQuestCompleteData@@V?$allocator@PAVQuestCompleteData@@@std@@@std@@IBEXXZ ; std::vector<QuestCompleteData *,std::allocator<QuestCompleteData *> >::_Xlen
; Function compile flags: /Ogsp
;	COMDAT ?_Xlen@?$vector@PAVQuestCompleteData@@V?$allocator@PAVQuestCompleteData@@@std@@@std@@IBEXXZ
_TEXT	SEGMENT
?_Xlen@?$vector@PAVQuestCompleteData@@V?$allocator@PAVQuestCompleteData@@@std@@@std@@IBEXXZ PROC ; std::vector<QuestCompleteData *,std::allocator<QuestCompleteData *> >::_Xlen, COMDAT
; _this$ = ecx

; 1427 : 		_Xlength_error("vector<T> too long");

  00000	68 00 00 00 00	 push	 OFFSET ??_C@_0BD@OLBABOEK@vector?$DMT?$DO?5too?5long?$AA@
  00005	ff 15 00 00 00
	00		 call	 DWORD PTR __imp_?_Xlength_error@std@@YAXPBD@Z
$LN4@Xlen@2:
$LN3@Xlen@2:
  0000b	cc		 int	 3
?_Xlen@?$vector@PAVQuestCompleteData@@V?$allocator@PAVQuestCompleteData@@@std@@@std@@IBEXXZ ENDP ; std::vector<QuestCompleteData *,std::allocator<QuestCompleteData *> >::_Xlen
_TEXT	ENDS
PUBLIC	?max_size@?$allocator@PAVQuestData@@@std@@QBEIXZ ; std::allocator<QuestData *>::max_size
; Function compile flags: /Ogsp
; File c:\program files (x86)\microsoft visual studio 10.0\vc\include\xmemory
;	COMDAT ?max_size@?$allocator@PAVQuestData@@@std@@QBEIXZ
_TEXT	SEGMENT
?max_size@?$allocator@PAVQuestData@@@std@@QBEIXZ PROC	; std::allocator<QuestData *>::max_size, COMDAT
; _this$ = ecx

; 218  : 		_SIZT _Count = (_SIZT)(-1) / sizeof (_Ty);
; 219  : 		return (0 < _Count ? _Count : 1);

  00000	b8 ff ff ff 3f	 mov	 eax, 1073741823		; 3fffffffH

; 220  : 		}

  00005	c3		 ret	 0
?max_size@?$allocator@PAVQuestData@@@std@@QBEIXZ ENDP	; std::allocator<QuestData *>::max_size
_TEXT	ENDS
PUBLIC	?max_size@?$allocator@PAVQuestCompleteData@@@std@@QBEIXZ ; std::allocator<QuestCompleteData *>::max_size
; Function compile flags: /Ogsp
;	COMDAT ?max_size@?$allocator@PAVQuestCompleteData@@@std@@QBEIXZ
_TEXT	SEGMENT
?max_size@?$allocator@PAVQuestCompleteData@@@std@@QBEIXZ PROC ; std::allocator<QuestCompleteData *>::max_size, COMDAT
; _this$ = ecx

; 218  : 		_SIZT _Count = (_SIZT)(-1) / sizeof (_Ty);
; 219  : 		return (0 < _Count ? _Count : 1);

  00000	b8 ff ff ff 3f	 mov	 eax, 1073741823		; 3fffffffH

; 220  : 		}

  00005	c3		 ret	 0
?max_size@?$allocator@PAVQuestCompleteData@@@std@@QBEIXZ ENDP ; std::allocator<QuestCompleteData *>::max_size
_TEXT	ENDS
PUBLIC	??$_Unchecked@PAPAVQuestData@@@std@@YAPAPAVQuestData@@PAPAV1@@Z ; std::_Unchecked<QuestData * *>
; Function compile flags: /Ogsp
; File c:\program files (x86)\microsoft visual studio 10.0\vc\include\xutility
;	COMDAT ??$_Unchecked@PAPAVQuestData@@@std@@YAPAPAVQuestData@@PAPAV1@@Z
_TEXT	SEGMENT
__Src$ = 8						; size = 4
??$_Unchecked@PAPAVQuestData@@@std@@YAPAPAVQuestData@@PAPAV1@@Z PROC ; std::_Unchecked<QuestData * *>, COMDAT

; 266  : 	{	// construct unchecked from checked, generic

  00000	55		 push	 ebp
  00001	8b ec		 mov	 ebp, esp

; 267  : 	return (_Src);

  00003	8b 45 08	 mov	 eax, DWORD PTR __Src$[ebp]

; 268  : 	}

  00006	5d		 pop	 ebp
  00007	c3		 ret	 0
??$_Unchecked@PAPAVQuestData@@@std@@YAPAPAVQuestData@@PAPAV1@@Z ENDP ; std::_Unchecked<QuestData * *>
_TEXT	ENDS
PUBLIC	??$_Dist_type@PAPAVQuestData@@@std@@YAPAHPAPAVQuestData@@@Z ; std::_Dist_type<QuestData * *>
; Function compile flags: /Ogsp
;	COMDAT ??$_Dist_type@PAPAVQuestData@@@std@@YAPAHPAPAVQuestData@@@Z
_TEXT	SEGMENT
___formal$ = 8						; size = 4
??$_Dist_type@PAPAVQuestData@@@std@@YAPAHPAPAVQuestData@@@Z PROC ; std::_Dist_type<QuestData * *>, COMDAT

; 850  : 	return (0);

  00000	33 c0		 xor	 eax, eax

; 851  : 	}

  00002	c3		 ret	 0
??$_Dist_type@PAPAVQuestData@@@std@@YAPAHPAPAVQuestData@@@Z ENDP ; std::_Dist_type<QuestData * *>
_TEXT	ENDS
PUBLIC	??$_Val_type@PAPAVQuestData@@@std@@YAPAPAVQuestData@@PAPAV1@@Z ; std::_Val_type<QuestData * *>
; Function compile flags: /Ogsp
;	COMDAT ??$_Val_type@PAPAVQuestData@@@std@@YAPAPAVQuestData@@PAPAV1@@Z
_TEXT	SEGMENT
___formal$ = 8						; size = 4
??$_Val_type@PAPAVQuestData@@@std@@YAPAPAVQuestData@@PAPAV1@@Z PROC ; std::_Val_type<QuestData * *>, COMDAT

; 790  : 	return (0);

  00000	33 c0		 xor	 eax, eax

; 791  : 	}

  00002	c3		 ret	 0
??$_Val_type@PAPAVQuestData@@@std@@YAPAPAVQuestData@@PAPAV1@@Z ENDP ; std::_Val_type<QuestData * *>
_TEXT	ENDS
PUBLIC	??$_Iter_cat@V?$_Vector_iterator@V?$_Vector_val@PAVQuestData@@V?$allocator@PAVQuestData@@@std@@@std@@@std@@@std@@YA?AUrandom_access_iterator_tag@0@ABV?$_Vector_iterator@V?$_Vector_val@PAVQuestData@@V?$allocator@PAVQuestData@@@std@@@std@@@0@@Z ; std::_Iter_cat<std::_Vector_iterator<std::_Vector_val<QuestData *,std::allocator<QuestData *> > > >
; Function compile flags: /Ogsp
;	COMDAT ??$_Iter_cat@V?$_Vector_iterator@V?$_Vector_val@PAVQuestData@@V?$allocator@PAVQuestData@@@std@@@std@@@std@@@std@@YA?AUrandom_access_iterator_tag@0@ABV?$_Vector_iterator@V?$_Vector_val@PAVQuestData@@V?$allocator@PAVQuestData@@@std@@@std@@@0@@Z
_TEXT	SEGMENT
___$ReturnUdt$ = 8					; size = 4
___formal$ = 12						; size = 4
??$_Iter_cat@V?$_Vector_iterator@V?$_Vector_val@PAVQuestData@@V?$allocator@PAVQuestData@@@std@@@std@@@std@@@std@@YA?AUrandom_access_iterator_tag@0@ABV?$_Vector_iterator@V?$_Vector_val@PAVQuestData@@V?$allocator@PAVQuestData@@@std@@@std@@@0@@Z PROC ; std::_Iter_cat<std::_Vector_iterator<std::_Vector_val<QuestData *,std::allocator<QuestData *> > > >, COMDAT

; 476  : 	{	// return category from iterator argument

  00000	55		 push	 ebp
  00001	8b ec		 mov	 ebp, esp

; 477  : 	typename iterator_traits<_Iter>::iterator_category _Cat;
; 478  : 	return (_Cat);

  00003	8b 45 08	 mov	 eax, DWORD PTR ___$ReturnUdt$[ebp]

; 479  : 	}

  00006	5d		 pop	 ebp
  00007	c3		 ret	 0
??$_Iter_cat@V?$_Vector_iterator@V?$_Vector_val@PAVQuestData@@V?$allocator@PAVQuestData@@@std@@@std@@@std@@@std@@YA?AUrandom_access_iterator_tag@0@ABV?$_Vector_iterator@V?$_Vector_val@PAVQuestData@@V?$allocator@PAVQuestData@@@std@@@std@@@0@@Z ENDP ; std::_Iter_cat<std::_Vector_iterator<std::_Vector_val<QuestData *,std::allocator<QuestData *> > > >
_TEXT	ENDS
PUBLIC	??$_Unchecked@PAPAVQuestCompleteData@@@std@@YAPAPAVQuestCompleteData@@PAPAV1@@Z ; std::_Unchecked<QuestCompleteData * *>
; Function compile flags: /Ogsp
;	COMDAT ??$_Unchecked@PAPAVQuestCompleteData@@@std@@YAPAPAVQuestCompleteData@@PAPAV1@@Z
_TEXT	SEGMENT
__Src$ = 8						; size = 4
??$_Unchecked@PAPAVQuestCompleteData@@@std@@YAPAPAVQuestCompleteData@@PAPAV1@@Z PROC ; std::_Unchecked<QuestCompleteData * *>, COMDAT

; 266  : 	{	// construct unchecked from checked, generic

  00000	55		 push	 ebp
  00001	8b ec		 mov	 ebp, esp

; 267  : 	return (_Src);

  00003	8b 45 08	 mov	 eax, DWORD PTR __Src$[ebp]

; 268  : 	}

  00006	5d		 pop	 ebp
  00007	c3		 ret	 0
??$_Unchecked@PAPAVQuestCompleteData@@@std@@YAPAPAVQuestCompleteData@@PAPAV1@@Z ENDP ; std::_Unchecked<QuestCompleteData * *>
_TEXT	ENDS
PUBLIC	??$_Dist_type@PAPAVQuestCompleteData@@@std@@YAPAHPAPAVQuestCompleteData@@@Z ; std::_Dist_type<QuestCompleteData * *>
; Function compile flags: /Ogsp
;	COMDAT ??$_Dist_type@PAPAVQuestCompleteData@@@std@@YAPAHPAPAVQuestCompleteData@@@Z
_TEXT	SEGMENT
___formal$ = 8						; size = 4
??$_Dist_type@PAPAVQuestCompleteData@@@std@@YAPAHPAPAVQuestCompleteData@@@Z PROC ; std::_Dist_type<QuestCompleteData * *>, COMDAT

; 850  : 	return (0);

  00000	33 c0		 xor	 eax, eax

; 851  : 	}

  00002	c3		 ret	 0
??$_Dist_type@PAPAVQuestCompleteData@@@std@@YAPAHPAPAVQuestCompleteData@@@Z ENDP ; std::_Dist_type<QuestCompleteData * *>
_TEXT	ENDS
PUBLIC	??$_Val_type@PAPAVQuestCompleteData@@@std@@YAPAPAVQuestCompleteData@@PAPAV1@@Z ; std::_Val_type<QuestCompleteData * *>
; Function compile flags: /Ogsp
;	COMDAT ??$_Val_type@PAPAVQuestCompleteData@@@std@@YAPAPAVQuestCompleteData@@PAPAV1@@Z
_TEXT	SEGMENT
___formal$ = 8						; size = 4
??$_Val_type@PAPAVQuestCompleteData@@@std@@YAPAPAVQuestCompleteData@@PAPAV1@@Z PROC ; std::_Val_type<QuestCompleteData * *>, COMDAT

; 790  : 	return (0);

  00000	33 c0		 xor	 eax, eax

; 791  : 	}

  00002	c3		 ret	 0
??$_Val_type@PAPAVQuestCompleteData@@@std@@YAPAPAVQuestCompleteData@@PAPAV1@@Z ENDP ; std::_Val_type<QuestCompleteData * *>
_TEXT	ENDS
PUBLIC	??$_Iter_cat@V?$_Vector_iterator@V?$_Vector_val@PAVQuestCompleteData@@V?$allocator@PAVQuestCompleteData@@@std@@@std@@@std@@@std@@YA?AUrandom_access_iterator_tag@0@ABV?$_Vector_iterator@V?$_Vector_val@PAVQuestCompleteData@@V?$allocator@PAVQuestCompleteData@@@std@@@std@@@0@@Z ; std::_Iter_cat<std::_Vector_iterator<std::_Vector_val<QuestCompleteData *,std::allocator<QuestCompleteData *> > > >
; Function compile flags: /Ogsp
;	COMDAT ??$_Iter_cat@V?$_Vector_iterator@V?$_Vector_val@PAVQuestCompleteData@@V?$allocator@PAVQuestCompleteData@@@std@@@std@@@std@@@std@@YA?AUrandom_access_iterator_tag@0@ABV?$_Vector_iterator@V?$_Vector_val@PAVQuestCompleteData@@V?$allocator@PAVQuestCompleteData@@@std@@@std@@@0@@Z
_TEXT	SEGMENT
___$ReturnUdt$ = 8					; size = 4
___formal$ = 12						; size = 4
??$_Iter_cat@V?$_Vector_iterator@V?$_Vector_val@PAVQuestCompleteData@@V?$allocator@PAVQuestCompleteData@@@std@@@std@@@std@@@std@@YA?AUrandom_access_iterator_tag@0@ABV?$_Vector_iterator@V?$_Vector_val@PAVQuestCompleteData@@V?$allocator@PAVQuestCompleteData@@@std@@@std@@@0@@Z PROC ; std::_Iter_cat<std::_Vector_iterator<std::_Vector_val<QuestCompleteData *,std::allocator<QuestCompleteData *> > > >, COMDAT

; 476  : 	{	// return category from iterator argument

  00000	55		 push	 ebp
  00001	8b ec		 mov	 ebp, esp

; 477  : 	typename iterator_traits<_Iter>::iterator_category _Cat;
; 478  : 	return (_Cat);

  00003	8b 45 08	 mov	 eax, DWORD PTR ___$ReturnUdt$[ebp]

; 479  : 	}

  00006	5d		 pop	 ebp
  00007	c3		 ret	 0
??$_Iter_cat@V?$_Vector_iterator@V?$_Vector_val@PAVQuestCompleteData@@V?$allocator@PAVQuestCompleteData@@@std@@@std@@@std@@@std@@YA?AUrandom_access_iterator_tag@0@ABV?$_Vector_iterator@V?$_Vector_val@PAVQuestCompleteData@@V?$allocator@PAVQuestCompleteData@@@std@@@std@@@0@@Z ENDP ; std::_Iter_cat<std::_Vector_iterator<std::_Vector_val<QuestCompleteData *,std::allocator<QuestCompleteData *> > > >
_TEXT	ENDS
PUBLIC	__TI2?AVbad_alloc@std@@
PUBLIC	??$_Allocate@PAVQuestData@@@std@@YAPAPAVQuestData@@IPAPAV1@@Z ; std::_Allocate<QuestData *>
PUBLIC	__CTA2?AVbad_alloc@std@@
PUBLIC	__CT??_R0?AVbad_alloc@std@@@8??0bad_alloc@std@@QAE@ABV01@@Z12
PUBLIC	??0bad_alloc@std@@QAE@ABV01@@Z			; std::bad_alloc::bad_alloc
PUBLIC	__CT??_R0?AVexception@std@@@8??0exception@std@@QAE@ABV01@@Z12
EXTRN	??2@YAPAXI@Z:PROC				; operator new
EXTRN	__CxxThrowException@8:PROC
EXTRN	??0exception@std@@QAE@ABV01@@Z:PROC		; std::exception::exception
;	COMDAT __CT??_R0?AVexception@std@@@8??0exception@std@@QAE@ABV01@@Z12
; File c:\program files (x86)\microsoft visual studio 10.0\vc\include\exception
xdata$x	SEGMENT
__CT??_R0?AVexception@std@@@8??0exception@std@@QAE@ABV01@@Z12 DD 00H
	DD	FLAT:??_R0?AVexception@std@@@8
	DD	00H
	DD	0ffffffffH
	ORG $+4
	DD	0cH
	DD	FLAT:??0exception@std@@QAE@ABV01@@Z
xdata$x	ENDS
;	COMDAT __CT??_R0?AVbad_alloc@std@@@8??0bad_alloc@std@@QAE@ABV01@@Z12
xdata$x	SEGMENT
__CT??_R0?AVbad_alloc@std@@@8??0bad_alloc@std@@QAE@ABV01@@Z12 DD 00H
	DD	FLAT:??_R0?AVbad_alloc@std@@@8
	DD	00H
	DD	0ffffffffH
	ORG $+4
	DD	0cH
	DD	FLAT:??0bad_alloc@std@@QAE@ABV01@@Z
xdata$x	ENDS
;	COMDAT __CTA2?AVbad_alloc@std@@
xdata$x	SEGMENT
__CTA2?AVbad_alloc@std@@ DD 02H
	DD	FLAT:__CT??_R0?AVbad_alloc@std@@@8??0bad_alloc@std@@QAE@ABV01@@Z12
	DD	FLAT:__CT??_R0?AVexception@std@@@8??0exception@std@@QAE@ABV01@@Z12
xdata$x	ENDS
;	COMDAT __TI2?AVbad_alloc@std@@
xdata$x	SEGMENT
__TI2?AVbad_alloc@std@@ DD 00H
	DD	FLAT:??1bad_alloc@std@@UAE@XZ
	DD	00H
	DD	FLAT:__CTA2?AVbad_alloc@std@@
; Function compile flags: /Ogsp
; File c:\program files (x86)\microsoft visual studio 10.0\vc\include\xmemory
xdata$x	ENDS
;	COMDAT ??$_Allocate@PAVQuestData@@@std@@YAPAPAVQuestData@@IPAPAV1@@Z
_TEXT	SEGMENT
$T509217 = -12						; size = 12
$T509222 = 8						; size = 4
__Count$ = 8						; size = 4
___formal$ = 12						; size = 4
??$_Allocate@PAVQuestData@@@std@@YAPAPAVQuestData@@IPAPAV1@@Z PROC ; std::_Allocate<QuestData *>, COMDAT

; 30   : 	{	// allocate storage for _Count elements of type _Ty

  00000	55		 push	 ebp
  00001	8b ec		 mov	 ebp, esp

; 31   : 	void *_Ptr = 0;
; 32   : 
; 33   : 	if (_Count <= 0)

  00003	8b 4d 08	 mov	 ecx, DWORD PTR __Count$[ebp]
  00006	83 ec 0c	 sub	 esp, 12			; 0000000cH
  00009	33 c0		 xor	 eax, eax
  0000b	85 c9		 test	 ecx, ecx

; 34   : 		_Count = 0;
; 35   : 	else if (((_SIZT)(-1) / sizeof (_Ty) < _Count)

  0000d	74 3e		 je	 SHORT $LN5@Allocate

; 36   : 		|| (_Ptr = ::operator new(_Count * sizeof (_Ty))) == 0)

  0000f	81 f9 ff ff ff
	3f		 cmp	 ecx, 1073741823		; 3fffffffH
  00015	77 10		 ja	 SHORT $LN1@Allocate
  00017	8b c1		 mov	 eax, ecx
  00019	c1 e0 02	 shl	 eax, 2
  0001c	50		 push	 eax
  0001d	e8 00 00 00 00	 call	 ??2@YAPAXI@Z		; operator new
  00022	59		 pop	 ecx
  00023	85 c0		 test	 eax, eax

; 38   : 
; 39   : 	return ((_Ty _FARQ *)_Ptr);

  00025	75 26		 jne	 SHORT $LN5@Allocate
$LN1@Allocate:

; 37   : 		_THROW_NCEE(bad_alloc, 0);

  00027	83 65 08 00	 and	 DWORD PTR $T509222[ebp], 0
  0002b	8d 45 08	 lea	 eax, DWORD PTR $T509222[ebp]
  0002e	50		 push	 eax
  0002f	8d 4d f4	 lea	 ecx, DWORD PTR $T509217[ebp]
  00032	ff 15 00 00 00
	00		 call	 DWORD PTR __imp_??0exception@std@@QAE@ABQBD@Z
  00038	68 00 00 00 00	 push	 OFFSET __TI2?AVbad_alloc@std@@
  0003d	8d 45 f4	 lea	 eax, DWORD PTR $T509217[ebp]
  00040	50		 push	 eax
  00041	c7 45 f4 00 00
	00 00		 mov	 DWORD PTR $T509217[ebp], OFFSET ??_7bad_alloc@std@@6B@
  00048	e8 00 00 00 00	 call	 __CxxThrowException@8
$LN10@Allocate:
$LN5@Allocate:

; 40   : 	}

  0004d	c9		 leave
  0004e	c3		 ret	 0
$LN9@Allocate:
??$_Allocate@PAVQuestData@@@std@@YAPAPAVQuestData@@IPAPAV1@@Z ENDP ; std::_Allocate<QuestData *>
_TEXT	ENDS
PUBLIC	??$_Allocate@PAVQuestCompleteData@@@std@@YAPAPAVQuestCompleteData@@IPAPAV1@@Z ; std::_Allocate<QuestCompleteData *>
; Function compile flags: /Ogsp
;	COMDAT ??$_Allocate@PAVQuestCompleteData@@@std@@YAPAPAVQuestCompleteData@@IPAPAV1@@Z
_TEXT	SEGMENT
$T509227 = -12						; size = 12
$T509231 = 8						; size = 4
__Count$ = 8						; size = 4
___formal$ = 12						; size = 4
??$_Allocate@PAVQuestCompleteData@@@std@@YAPAPAVQuestCompleteData@@IPAPAV1@@Z PROC ; std::_Allocate<QuestCompleteData *>, COMDAT

; 30   : 	{	// allocate storage for _Count elements of type _Ty

  00000	55		 push	 ebp
  00001	8b ec		 mov	 ebp, esp

; 31   : 	void *_Ptr = 0;
; 32   : 
; 33   : 	if (_Count <= 0)

  00003	8b 4d 08	 mov	 ecx, DWORD PTR __Count$[ebp]
  00006	83 ec 0c	 sub	 esp, 12			; 0000000cH
  00009	33 c0		 xor	 eax, eax
  0000b	85 c9		 test	 ecx, ecx

; 34   : 		_Count = 0;
; 35   : 	else if (((_SIZT)(-1) / sizeof (_Ty) < _Count)

  0000d	74 3e		 je	 SHORT $LN5@Allocate@2

; 36   : 		|| (_Ptr = ::operator new(_Count * sizeof (_Ty))) == 0)

  0000f	81 f9 ff ff ff
	3f		 cmp	 ecx, 1073741823		; 3fffffffH
  00015	77 10		 ja	 SHORT $LN1@Allocate@2
  00017	8b c1		 mov	 eax, ecx
  00019	c1 e0 02	 shl	 eax, 2
  0001c	50		 push	 eax
  0001d	e8 00 00 00 00	 call	 ??2@YAPAXI@Z		; operator new
  00022	59		 pop	 ecx
  00023	85 c0		 test	 eax, eax

; 38   : 
; 39   : 	return ((_Ty _FARQ *)_Ptr);

  00025	75 26		 jne	 SHORT $LN5@Allocate@2
$LN1@Allocate@2:

; 37   : 		_THROW_NCEE(bad_alloc, 0);

  00027	83 65 08 00	 and	 DWORD PTR $T509231[ebp], 0
  0002b	8d 45 08	 lea	 eax, DWORD PTR $T509231[ebp]
  0002e	50		 push	 eax
  0002f	8d 4d f4	 lea	 ecx, DWORD PTR $T509227[ebp]
  00032	ff 15 00 00 00
	00		 call	 DWORD PTR __imp_??0exception@std@@QAE@ABQBD@Z
  00038	68 00 00 00 00	 push	 OFFSET __TI2?AVbad_alloc@std@@
  0003d	8d 45 f4	 lea	 eax, DWORD PTR $T509227[ebp]
  00040	50		 push	 eax
  00041	c7 45 f4 00 00
	00 00		 mov	 DWORD PTR $T509227[ebp], OFFSET ??_7bad_alloc@std@@6B@
  00048	e8 00 00 00 00	 call	 __CxxThrowException@8
$LN10@Allocate@2:
$LN5@Allocate@2:

; 40   : 	}

  0004d	c9		 leave
  0004e	c3		 ret	 0
$LN9@Allocate@2:
??$_Allocate@PAVQuestCompleteData@@@std@@YAPAPAVQuestCompleteData@@IPAPAV1@@Z ENDP ; std::_Allocate<QuestCompleteData *>
_TEXT	ENDS
PUBLIC	??$forward@AAPAPAVQuestData@@@std@@YAAAPAPAVQuestData@@AAPAPAV1@@Z ; std::forward<QuestData * * &>
; Function compile flags: /Ogsp
; File c:\program files (x86)\microsoft visual studio 10.0\vc\include\utility
;	COMDAT ??$forward@AAPAPAVQuestData@@@std@@YAAAPAPAVQuestData@@AAPAPAV1@@Z
_TEXT	SEGMENT
__Arg$ = 8						; size = 4
??$forward@AAPAPAVQuestData@@@std@@YAAAPAPAVQuestData@@AAPAPAV1@@Z PROC ; std::forward<QuestData * * &>, COMDAT

; 78   : 	{	// forward _Arg, given explicitly specified type parameter

  00000	55		 push	 ebp
  00001	8b ec		 mov	 ebp, esp

; 79   : 	return ((_Ty&&)_Arg);

  00003	8b 45 08	 mov	 eax, DWORD PTR __Arg$[ebp]

; 80   : 	}

  00006	5d		 pop	 ebp
  00007	c3		 ret	 0
??$forward@AAPAPAVQuestData@@@std@@YAAAPAPAVQuestData@@AAPAPAV1@@Z ENDP ; std::forward<QuestData * * &>
_TEXT	ENDS
PUBLIC	??$?0AAPAPAVQuestData@@AAPAPAV0@@?$_Pair_base@PAPAVQuestData@@PAPAV1@@std@@QAE@AAPAPAVQuestData@@0@Z ; std::_Pair_base<QuestData * *,QuestData * *>::_Pair_base<QuestData * *,QuestData * *><QuestData * * &,QuestData * * &>
; Function compile flags: /Ogsp
;	COMDAT ??$?0AAPAPAVQuestData@@AAPAPAV0@@?$_Pair_base@PAPAVQuestData@@PAPAV1@@std@@QAE@AAPAPAVQuestData@@0@Z
_TEXT	SEGMENT
__Val1$ = 8						; size = 4
__Val2$ = 12						; size = 4
??$?0AAPAPAVQuestData@@AAPAPAV0@@?$_Pair_base@PAPAVQuestData@@PAPAV1@@std@@QAE@AAPAPAVQuestData@@0@Z PROC ; std::_Pair_base<QuestData * *,QuestData * *>::_Pair_base<QuestData * *,QuestData * *><QuestData * * &,QuestData * * &>, COMDAT
; _this$ = ecx

; 163  : 		{	// construct from moved values

  00000	55		 push	 ebp
  00001	8b ec		 mov	 ebp, esp
  00003	8b c1		 mov	 eax, ecx
  00005	8b 4d 08	 mov	 ecx, DWORD PTR __Val1$[ebp]
  00008	8b 09		 mov	 ecx, DWORD PTR [ecx]
  0000a	89 08		 mov	 DWORD PTR [eax], ecx
  0000c	8b 4d 0c	 mov	 ecx, DWORD PTR __Val2$[ebp]
  0000f	8b 09		 mov	 ecx, DWORD PTR [ecx]
  00011	89 48 04	 mov	 DWORD PTR [eax+4], ecx

; 164  : 		}

  00014	5d		 pop	 ebp
  00015	c2 08 00	 ret	 8
??$?0AAPAPAVQuestData@@AAPAPAV0@@?$_Pair_base@PAPAVQuestData@@PAPAV1@@std@@QAE@AAPAPAVQuestData@@0@Z ENDP ; std::_Pair_base<QuestData * *,QuestData * *>::_Pair_base<QuestData * *,QuestData * *><QuestData * * &,QuestData * * &>
_TEXT	ENDS
PUBLIC	??$_Move@AAPAVQuestData@@@std@@YA$$QAPAVQuestData@@AAPAV1@@Z ; std::_Move<QuestData * &>
; Function compile flags: /Ogsp
;	COMDAT ??$_Move@AAPAVQuestData@@@std@@YA$$QAPAVQuestData@@AAPAV1@@Z
_TEXT	SEGMENT
__Arg$ = 8						; size = 4
??$_Move@AAPAVQuestData@@@std@@YA$$QAPAVQuestData@@AAPAV1@@Z PROC ; std::_Move<QuestData * &>, COMDAT

; 94   : 	{	// forward _Arg as movable

  00000	55		 push	 ebp
  00001	8b ec		 mov	 ebp, esp

; 95   : 	return ((typename tr1::_Remove_reference<_Ty>::_Type&&)_Arg);

  00003	8b 45 08	 mov	 eax, DWORD PTR __Arg$[ebp]

; 96   : 	}

  00006	5d		 pop	 ebp
  00007	c3		 ret	 0
??$_Move@AAPAVQuestData@@@std@@YA$$QAPAVQuestData@@AAPAV1@@Z ENDP ; std::_Move<QuestData * &>
_TEXT	ENDS
PUBLIC	??$construct@AAPAVQuestData@@@?$allocator@PAVQuestData@@@std@@QAEXPAPAVQuestData@@AAPAV2@@Z ; std::allocator<QuestData *>::construct<QuestData * &>
; Function compile flags: /Ogsp
; File c:\program files (x86)\microsoft visual studio 10.0\vc\include\xmemory
;	COMDAT ??$construct@AAPAVQuestData@@@?$allocator@PAVQuestData@@@std@@QAEXPAPAVQuestData@@AAPAV2@@Z
_TEXT	SEGMENT
__Ptr$ = 8						; size = 4
__Val$ = 12						; size = 4
??$construct@AAPAVQuestData@@@?$allocator@PAVQuestData@@@std@@QAEXPAPAVQuestData@@AAPAV2@@Z PROC ; std::allocator<QuestData *>::construct<QuestData * &>, COMDAT
; _this$ = ecx

; 206  : 		void construct(pointer _Ptr, _Other&& _Val)

  00000	55		 push	 ebp
  00001	8b ec		 mov	 ebp, esp

; 207  : 		{	// construct object at _Ptr with value _Val
; 208  : 		::new ((void _FARQ *)_Ptr) _Ty(_STD forward<_Other>(_Val));

  00003	8b 45 08	 mov	 eax, DWORD PTR __Ptr$[ebp]
  00006	85 c0		 test	 eax, eax
  00008	74 07		 je	 SHORT $LN3@construct
  0000a	8b 4d 0c	 mov	 ecx, DWORD PTR __Val$[ebp]
  0000d	8b 09		 mov	 ecx, DWORD PTR [ecx]
  0000f	89 08		 mov	 DWORD PTR [eax], ecx
$LN3@construct:

; 209  : 		}

  00011	5d		 pop	 ebp
  00012	c2 08 00	 ret	 8
??$construct@AAPAVQuestData@@@?$allocator@PAVQuestData@@@std@@QAEXPAPAVQuestData@@AAPAV2@@Z ENDP ; std::allocator<QuestData *>::construct<QuestData * &>
_TEXT	ENDS
PUBLIC	??$forward@AAPAPAVQuestCompleteData@@@std@@YAAAPAPAVQuestCompleteData@@AAPAPAV1@@Z ; std::forward<QuestCompleteData * * &>
; Function compile flags: /Ogsp
; File c:\program files (x86)\microsoft visual studio 10.0\vc\include\utility
;	COMDAT ??$forward@AAPAPAVQuestCompleteData@@@std@@YAAAPAPAVQuestCompleteData@@AAPAPAV1@@Z
_TEXT	SEGMENT
__Arg$ = 8						; size = 4
??$forward@AAPAPAVQuestCompleteData@@@std@@YAAAPAPAVQuestCompleteData@@AAPAPAV1@@Z PROC ; std::forward<QuestCompleteData * * &>, COMDAT

; 78   : 	{	// forward _Arg, given explicitly specified type parameter

  00000	55		 push	 ebp
  00001	8b ec		 mov	 ebp, esp

; 79   : 	return ((_Ty&&)_Arg);

  00003	8b 45 08	 mov	 eax, DWORD PTR __Arg$[ebp]

; 80   : 	}

  00006	5d		 pop	 ebp
  00007	c3		 ret	 0
??$forward@AAPAPAVQuestCompleteData@@@std@@YAAAPAPAVQuestCompleteData@@AAPAPAV1@@Z ENDP ; std::forward<QuestCompleteData * * &>
_TEXT	ENDS
PUBLIC	??$?0AAPAPAVQuestCompleteData@@AAPAPAV0@@?$_Pair_base@PAPAVQuestCompleteData@@PAPAV1@@std@@QAE@AAPAPAVQuestCompleteData@@0@Z ; std::_Pair_base<QuestCompleteData * *,QuestCompleteData * *>::_Pair_base<QuestCompleteData * *,QuestCompleteData * *><QuestCompleteData * * &,QuestCompleteData * * &>
; Function compile flags: /Ogsp
;	COMDAT ??$?0AAPAPAVQuestCompleteData@@AAPAPAV0@@?$_Pair_base@PAPAVQuestCompleteData@@PAPAV1@@std@@QAE@AAPAPAVQuestCompleteData@@0@Z
_TEXT	SEGMENT
__Val1$ = 8						; size = 4
__Val2$ = 12						; size = 4
??$?0AAPAPAVQuestCompleteData@@AAPAPAV0@@?$_Pair_base@PAPAVQuestCompleteData@@PAPAV1@@std@@QAE@AAPAPAVQuestCompleteData@@0@Z PROC ; std::_Pair_base<QuestCompleteData * *,QuestCompleteData * *>::_Pair_base<QuestCompleteData * *,QuestCompleteData * *><QuestCompleteData * * &,QuestCompleteData * * &>, COMDAT
; _this$ = ecx

; 163  : 		{	// construct from moved values

  00000	55		 push	 ebp
  00001	8b ec		 mov	 ebp, esp
  00003	8b c1		 mov	 eax, ecx
  00005	8b 4d 08	 mov	 ecx, DWORD PTR __Val1$[ebp]
  00008	8b 09		 mov	 ecx, DWORD PTR [ecx]
  0000a	89 08		 mov	 DWORD PTR [eax], ecx
  0000c	8b 4d 0c	 mov	 ecx, DWORD PTR __Val2$[ebp]
  0000f	8b 09		 mov	 ecx, DWORD PTR [ecx]
  00011	89 48 04	 mov	 DWORD PTR [eax+4], ecx

; 164  : 		}

  00014	5d		 pop	 ebp
  00015	c2 08 00	 ret	 8
??$?0AAPAPAVQuestCompleteData@@AAPAPAV0@@?$_Pair_base@PAPAVQuestCompleteData@@PAPAV1@@std@@QAE@AAPAPAVQuestCompleteData@@0@Z ENDP ; std::_Pair_base<QuestCompleteData * *,QuestCompleteData * *>::_Pair_base<QuestCompleteData * *,QuestCompleteData * *><QuestCompleteData * * &,QuestCompleteData * * &>
_TEXT	ENDS
PUBLIC	??$_Move@AAPAVQuestCompleteData@@@std@@YA$$QAPAVQuestCompleteData@@AAPAV1@@Z ; std::_Move<QuestCompleteData * &>
; Function compile flags: /Ogsp
;	COMDAT ??$_Move@AAPAVQuestCompleteData@@@std@@YA$$QAPAVQuestCompleteData@@AAPAV1@@Z
_TEXT	SEGMENT
__Arg$ = 8						; size = 4
??$_Move@AAPAVQuestCompleteData@@@std@@YA$$QAPAVQuestCompleteData@@AAPAV1@@Z PROC ; std::_Move<QuestCompleteData * &>, COMDAT

; 94   : 	{	// forward _Arg as movable

  00000	55		 push	 ebp
  00001	8b ec		 mov	 ebp, esp

; 95   : 	return ((typename tr1::_Remove_reference<_Ty>::_Type&&)_Arg);

  00003	8b 45 08	 mov	 eax, DWORD PTR __Arg$[ebp]

; 96   : 	}

  00006	5d		 pop	 ebp
  00007	c3		 ret	 0
??$_Move@AAPAVQuestCompleteData@@@std@@YA$$QAPAVQuestCompleteData@@AAPAV1@@Z ENDP ; std::_Move<QuestCompleteData * &>
_TEXT	ENDS
PUBLIC	??$construct@AAPAVQuestCompleteData@@@?$allocator@PAVQuestCompleteData@@@std@@QAEXPAPAVQuestCompleteData@@AAPAV2@@Z ; std::allocator<QuestCompleteData *>::construct<QuestCompleteData * &>
; Function compile flags: /Ogsp
; File c:\program files (x86)\microsoft visual studio 10.0\vc\include\xmemory
;	COMDAT ??$construct@AAPAVQuestCompleteData@@@?$allocator@PAVQuestCompleteData@@@std@@QAEXPAPAVQuestCompleteData@@AAPAV2@@Z
_TEXT	SEGMENT
__Ptr$ = 8						; size = 4
__Val$ = 12						; size = 4
??$construct@AAPAVQuestCompleteData@@@?$allocator@PAVQuestCompleteData@@@std@@QAEXPAPAVQuestCompleteData@@AAPAV2@@Z PROC ; std::allocator<QuestCompleteData *>::construct<QuestCompleteData * &>, COMDAT
; _this$ = ecx

; 206  : 		void construct(pointer _Ptr, _Other&& _Val)

  00000	55		 push	 ebp
  00001	8b ec		 mov	 ebp, esp

; 207  : 		{	// construct object at _Ptr with value _Val
; 208  : 		::new ((void _FARQ *)_Ptr) _Ty(_STD forward<_Other>(_Val));

  00003	8b 45 08	 mov	 eax, DWORD PTR __Ptr$[ebp]
  00006	85 c0		 test	 eax, eax
  00008	74 07		 je	 SHORT $LN3@construct@2
  0000a	8b 4d 0c	 mov	 ecx, DWORD PTR __Val$[ebp]
  0000d	8b 09		 mov	 ecx, DWORD PTR [ecx]
  0000f	89 08		 mov	 DWORD PTR [eax], ecx
$LN3@construct@2:

; 209  : 		}

  00011	5d		 pop	 ebp
  00012	c2 08 00	 ret	 8
??$construct@AAPAVQuestCompleteData@@@?$allocator@PAVQuestCompleteData@@@std@@QAEXPAPAVQuestCompleteData@@AAPAV2@@Z ENDP ; std::allocator<QuestCompleteData *>::construct<QuestCompleteData * &>
_TEXT	ENDS
PUBLIC	??$_Move_backward@PAPAVQuestData@@PAPAV1@@std@@YAPAPAVQuestData@@PAPAV1@00U_Scalar_ptr_iterator_tag@0@@Z ; std::_Move_backward<QuestData * *,QuestData * *>
; Function compile flags: /Ogsp
; File c:\program files (x86)\microsoft visual studio 10.0\vc\include\xutility
;	COMDAT ??$_Move_backward@PAPAVQuestData@@PAPAV1@@std@@YAPAPAVQuestData@@PAPAV1@00U_Scalar_ptr_iterator_tag@0@@Z
_TEXT	SEGMENT
__First$ = 8						; size = 4
__Last$ = 12						; size = 4
__Dest$ = 16						; size = 4
___formal$ = 20						; size = 1
??$_Move_backward@PAPAVQuestData@@PAPAV1@@std@@YAPAPAVQuestData@@PAPAV1@00U_Scalar_ptr_iterator_tag@0@@Z PROC ; std::_Move_backward<QuestData * *,QuestData * *>, COMDAT

; 2627 : 	{	// move [_First, _Last) backwards to [..., _Dest), pointers to scalars

  00000	55		 push	 ebp
  00001	8b ec		 mov	 ebp, esp

; 2628 : 	ptrdiff_t _Count = _Last - _First;

  00003	8b 45 0c	 mov	 eax, DWORD PTR __Last$[ebp]
  00006	2b 45 08	 sub	 eax, DWORD PTR __First$[ebp]
  00009	56		 push	 esi

; 2629 : 	_CSTD memmove(&*_Dest - _Count, &*_First,
; 2630 : 		_Count * sizeof (*_First));

  0000a	8b 75 10	 mov	 esi, DWORD PTR __Dest$[ebp]
  0000d	83 e0 fc	 and	 eax, -4			; fffffffcH
  00010	50		 push	 eax
  00011	ff 75 08	 push	 DWORD PTR __First$[ebp]
  00014	2b f0		 sub	 esi, eax
  00016	56		 push	 esi
  00017	ff 15 00 00 00
	00		 call	 DWORD PTR __imp__memmove
  0001d	83 c4 0c	 add	 esp, 12			; 0000000cH

; 2631 : 	return (_Dest - _Count);

  00020	8b c6		 mov	 eax, esi
  00022	5e		 pop	 esi

; 2632 : 	}

  00023	5d		 pop	 ebp
  00024	c3		 ret	 0
??$_Move_backward@PAPAVQuestData@@PAPAV1@@std@@YAPAPAVQuestData@@PAPAV1@00U_Scalar_ptr_iterator_tag@0@@Z ENDP ; std::_Move_backward<QuestData * *,QuestData * *>
_TEXT	ENDS
PUBLIC	??$_Move_backward@PAPAVQuestCompleteData@@PAPAV1@@std@@YAPAPAVQuestCompleteData@@PAPAV1@00U_Scalar_ptr_iterator_tag@0@@Z ; std::_Move_backward<QuestCompleteData * *,QuestCompleteData * *>
; Function compile flags: /Ogsp
;	COMDAT ??$_Move_backward@PAPAVQuestCompleteData@@PAPAV1@@std@@YAPAPAVQuestCompleteData@@PAPAV1@00U_Scalar_ptr_iterator_tag@0@@Z
_TEXT	SEGMENT
__First$ = 8						; size = 4
__Last$ = 12						; size = 4
__Dest$ = 16						; size = 4
___formal$ = 20						; size = 1
??$_Move_backward@PAPAVQuestCompleteData@@PAPAV1@@std@@YAPAPAVQuestCompleteData@@PAPAV1@00U_Scalar_ptr_iterator_tag@0@@Z PROC ; std::_Move_backward<QuestCompleteData * *,QuestCompleteData * *>, COMDAT

; 2627 : 	{	// move [_First, _Last) backwards to [..., _Dest), pointers to scalars

  00000	55		 push	 ebp
  00001	8b ec		 mov	 ebp, esp

; 2628 : 	ptrdiff_t _Count = _Last - _First;

  00003	8b 45 0c	 mov	 eax, DWORD PTR __Last$[ebp]
  00006	2b 45 08	 sub	 eax, DWORD PTR __First$[ebp]
  00009	56		 push	 esi

; 2629 : 	_CSTD memmove(&*_Dest - _Count, &*_First,
; 2630 : 		_Count * sizeof (*_First));

  0000a	8b 75 10	 mov	 esi, DWORD PTR __Dest$[ebp]
  0000d	83 e0 fc	 and	 eax, -4			; fffffffcH
  00010	50		 push	 eax
  00011	ff 75 08	 push	 DWORD PTR __First$[ebp]
  00014	2b f0		 sub	 esi, eax
  00016	56		 push	 esi
  00017	ff 15 00 00 00
	00		 call	 DWORD PTR __imp__memmove
  0001d	83 c4 0c	 add	 esp, 12			; 0000000cH

; 2631 : 	return (_Dest - _Count);

  00020	8b c6		 mov	 eax, esi
  00022	5e		 pop	 esi

; 2632 : 	}

  00023	5d		 pop	 ebp
  00024	c3		 ret	 0
??$_Move_backward@PAPAVQuestCompleteData@@PAPAV1@@std@@YAPAPAVQuestCompleteData@@PAPAV1@00U_Scalar_ptr_iterator_tag@0@@Z ENDP ; std::_Move_backward<QuestCompleteData * *,QuestCompleteData * *>
_TEXT	ENDS
PUBLIC	??$_Uninit_move@PAVQuestData@@PAV1@PAV1@@std@@YAPAPAVQuestData@@PAPAV1@00AAV?$allocator@PAVQuestData@@@0@0U_Scalar_ptr_iterator_tag@0@@Z ; std::_Uninit_move<QuestData *,QuestData *,QuestData *>
; Function compile flags: /Ogsp
; File c:\program files (x86)\microsoft visual studio 10.0\vc\include\memory
;	COMDAT ??$_Uninit_move@PAVQuestData@@PAV1@PAV1@@std@@YAPAPAVQuestData@@PAPAV1@00AAV?$allocator@PAVQuestData@@@0@0U_Scalar_ptr_iterator_tag@0@@Z
_TEXT	SEGMENT
__First$ = 8						; size = 4
__Last$ = 12						; size = 4
__Dest$ = 16						; size = 4
___formal$ = 20						; size = 4
___formal$ = 24						; size = 4
___formal$ = 28						; size = 1
??$_Uninit_move@PAVQuestData@@PAV1@PAV1@@std@@YAPAPAVQuestData@@PAPAV1@00AAV?$allocator@PAVQuestData@@@0@0U_Scalar_ptr_iterator_tag@0@@Z PROC ; std::_Uninit_move<QuestData *,QuestData *,QuestData *>, COMDAT

; 456  : 	{	// move [_First, _Last) to raw _Dest, scalar type

  00000	55		 push	 ebp
  00001	8b ec		 mov	 ebp, esp
  00003	56		 push	 esi

; 457  : 	_DEBUG_RANGE(_First, _Last);
; 458  : 	_DEBUG_POINTER(_Dest);
; 459  : 	size_t _Count = (size_t)(_Last - _First);

  00004	8b 75 0c	 mov	 esi, DWORD PTR __Last$[ebp]
  00007	2b 75 08	 sub	 esi, DWORD PTR __First$[ebp]
  0000a	c1 fe 02	 sar	 esi, 2

; 460  : 	return ((_Ty2 *)_CSTD memmove(&*_Dest, &*_First,
; 461  : 		_Count * sizeof (*_First)) + _Count);	// NB: non-overlapping move

  0000d	c1 e6 02	 shl	 esi, 2
  00010	56		 push	 esi
  00011	ff 75 08	 push	 DWORD PTR __First$[ebp]
  00014	ff 75 10	 push	 DWORD PTR __Dest$[ebp]
  00017	ff 15 00 00 00
	00		 call	 DWORD PTR __imp__memmove
  0001d	83 c4 0c	 add	 esp, 12			; 0000000cH
  00020	03 c6		 add	 eax, esi
  00022	5e		 pop	 esi

; 462  : 	}

  00023	5d		 pop	 ebp
  00024	c3		 ret	 0
??$_Uninit_move@PAVQuestData@@PAV1@PAV1@@std@@YAPAPAVQuestData@@PAPAV1@00AAV?$allocator@PAVQuestData@@@0@0U_Scalar_ptr_iterator_tag@0@@Z ENDP ; std::_Uninit_move<QuestData *,QuestData *,QuestData *>
_TEXT	ENDS
PUBLIC	??$_Uninit_move@PAVQuestCompleteData@@PAV1@PAV1@@std@@YAPAPAVQuestCompleteData@@PAPAV1@00AAV?$allocator@PAVQuestCompleteData@@@0@0U_Scalar_ptr_iterator_tag@0@@Z ; std::_Uninit_move<QuestCompleteData *,QuestCompleteData *,QuestCompleteData *>
; Function compile flags: /Ogsp
;	COMDAT ??$_Uninit_move@PAVQuestCompleteData@@PAV1@PAV1@@std@@YAPAPAVQuestCompleteData@@PAPAV1@00AAV?$allocator@PAVQuestCompleteData@@@0@0U_Scalar_ptr_iterator_tag@0@@Z
_TEXT	SEGMENT
__First$ = 8						; size = 4
__Last$ = 12						; size = 4
__Dest$ = 16						; size = 4
___formal$ = 20						; size = 4
___formal$ = 24						; size = 4
___formal$ = 28						; size = 1
??$_Uninit_move@PAVQuestCompleteData@@PAV1@PAV1@@std@@YAPAPAVQuestCompleteData@@PAPAV1@00AAV?$allocator@PAVQuestCompleteData@@@0@0U_Scalar_ptr_iterator_tag@0@@Z PROC ; std::_Uninit_move<QuestCompleteData *,QuestCompleteData *,QuestCompleteData *>, COMDAT

; 456  : 	{	// move [_First, _Last) to raw _Dest, scalar type

  00000	55		 push	 ebp
  00001	8b ec		 mov	 ebp, esp
  00003	56		 push	 esi

; 457  : 	_DEBUG_RANGE(_First, _Last);
; 458  : 	_DEBUG_POINTER(_Dest);
; 459  : 	size_t _Count = (size_t)(_Last - _First);

  00004	8b 75 0c	 mov	 esi, DWORD PTR __Last$[ebp]
  00007	2b 75 08	 sub	 esi, DWORD PTR __First$[ebp]
  0000a	c1 fe 02	 sar	 esi, 2

; 460  : 	return ((_Ty2 *)_CSTD memmove(&*_Dest, &*_First,
; 461  : 		_Count * sizeof (*_First)) + _Count);	// NB: non-overlapping move

  0000d	c1 e6 02	 shl	 esi, 2
  00010	56		 push	 esi
  00011	ff 75 08	 push	 DWORD PTR __First$[ebp]
  00014	ff 75 10	 push	 DWORD PTR __Dest$[ebp]
  00017	ff 15 00 00 00
	00		 call	 DWORD PTR __imp__memmove
  0001d	83 c4 0c	 add	 esp, 12			; 0000000cH
  00020	03 c6		 add	 eax, esi
  00022	5e		 pop	 esi

; 462  : 	}

  00023	5d		 pop	 ebp
  00024	c3		 ret	 0
??$_Uninit_move@PAVQuestCompleteData@@PAV1@PAV1@@std@@YAPAPAVQuestCompleteData@@PAPAV1@00AAV?$allocator@PAVQuestCompleteData@@@0@0U_Scalar_ptr_iterator_tag@0@@Z ENDP ; std::_Uninit_move<QuestCompleteData *,QuestCompleteData *,QuestCompleteData *>
; Function compile flags: /Ogsp
; File d:\lost saga for developer\youtube\tutorial\source\src\lsclient\ioquest.h
_TEXT	ENDS
;	COMDAT ?GetIndexData@QuestDataParent@@UBE?BKXZ
_TEXT	SEGMENT
?GetIndexData@QuestDataParent@@UBE?BKXZ PROC		; QuestDataParent::GetIndexData, COMDAT
; _this$ = ecx

; 36   : 	virtual const DWORD GetIndexData() const { return m_dwIndexData; }

  00000	8b 41 04	 mov	 eax, DWORD PTR [ecx+4]
  00003	c3		 ret	 0
?GetIndexData@QuestDataParent@@UBE?BKXZ ENDP		; QuestDataParent::GetIndexData
; Function compile flags: /Ogsp
_TEXT	ENDS
;	COMDAT ?GetDateData@QuestDataParent@@UBE?BKXZ
_TEXT	SEGMENT
?GetDateData@QuestDataParent@@UBE?BKXZ PROC		; QuestDataParent::GetDateData, COMDAT
; _this$ = ecx

; 37   : 	virtual const DWORD GetDateData() const { return m_dwDateData; }

  00000	8b 41 08	 mov	 eax, DWORD PTR [ecx+8]
  00003	c3		 ret	 0
?GetDateData@QuestDataParent@@UBE?BKXZ ENDP		; QuestDataParent::GetDateData
_TEXT	ENDS
PUBLIC	?GetPerformType@QuestParent@@QAEKXZ		; QuestParent::GetPerformType
; Function compile flags: /Ogsp
; File d:\lost saga for developer\youtube\tutorial\source\src\lsclient\questvariety.h
;	COMDAT ?GetPerformType@QuestParent@@QAEKXZ
_TEXT	SEGMENT
?GetPerformType@QuestParent@@QAEKXZ PROC		; QuestParent::GetPerformType, COMDAT
; _this$ = ecx

; 108  : 	inline DWORD GetPerformType(){ return m_dwPerformType; }

  00000	8b 41 14	 mov	 eax, DWORD PTR [ecx+20]
  00003	c3		 ret	 0
?GetPerformType@QuestParent@@QAEKXZ ENDP		; QuestParent::GetPerformType
_TEXT	ENDS
PUBLIC	?IsOneDayStyle@QuestParent@@QAE_NXZ		; QuestParent::IsOneDayStyle
; Function compile flags: /Ogsp
;	COMDAT ?IsOneDayStyle@QuestParent@@QAE_NXZ
_TEXT	SEGMENT
?IsOneDayStyle@QuestParent@@QAE_NXZ PROC		; QuestParent::IsOneDayStyle, COMDAT
; _this$ = ecx

; 109  : 	inline bool  IsOneDayStyle(){ return m_bOneDayStyle; }

  00000	8a 41 18	 mov	 al, BYTE PTR [ecx+24]
  00003	c3		 ret	 0
?IsOneDayStyle@QuestParent@@QAE_NXZ ENDP		; QuestParent::IsOneDayStyle
_TEXT	ENDS
PUBLIC	?IsRepeatStyle@QuestParent@@QAE_NXZ		; QuestParent::IsRepeatStyle
; Function compile flags: /Ogsp
;	COMDAT ?IsRepeatStyle@QuestParent@@QAE_NXZ
_TEXT	SEGMENT
?IsRepeatStyle@QuestParent@@QAE_NXZ PROC		; QuestParent::IsRepeatStyle, COMDAT
; _this$ = ecx

; 110  : 	inline bool  IsRepeatStyle(){ return m_bRepeatStyle; }

  00000	8a 41 19	 mov	 al, BYTE PTR [ecx+25]
  00003	c3		 ret	 0
?IsRepeatStyle@QuestParent@@QAE_NXZ ENDP		; QuestParent::IsRepeatStyle
_TEXT	ENDS
PUBLIC	??_7?$CEncrypt@K@@6B@				; CEncrypt<unsigned long>::`vftable'
PUBLIC	??1?$CEncrypt@K@@UAE@XZ				; CEncrypt<unsigned long>::~CEncrypt<unsigned long>
PUBLIC	??_R4?$CEncrypt@K@@6B@				; CEncrypt<unsigned long>::`RTTI Complete Object Locator'
PUBLIC	??_R0?AV?$CEncrypt@K@@@8			; CEncrypt<unsigned long> `RTTI Type Descriptor'
PUBLIC	??_R3?$CEncrypt@K@@8				; CEncrypt<unsigned long>::`RTTI Class Hierarchy Descriptor'
PUBLIC	??_R2?$CEncrypt@K@@8				; CEncrypt<unsigned long>::`RTTI Base Class Array'
PUBLIC	??_R1A@?0A@EA@?$CEncrypt@K@@8			; CEncrypt<unsigned long>::`RTTI Base Class Descriptor at (0,-1,0,64)'
EXTRN	??1ccddaabb@@UAE@XZ:PROC			; ccddaabb::~ccddaabb
EXTRN	??_E?$CEncrypt@K@@UAEPAXI@Z:PROC		; CEncrypt<unsigned long>::`vector deleting destructor'
;	COMDAT ??_R1A@?0A@EA@?$CEncrypt@K@@8
; File d:\lost saga for developer\youtube\tutorial\source\src\lsclient\encryptvalue.h
rdata$r	SEGMENT
??_R1A@?0A@EA@?$CEncrypt@K@@8 DD FLAT:??_R0?AV?$CEncrypt@K@@@8 ; CEncrypt<unsigned long>::`RTTI Base Class Descriptor at (0,-1,0,64)'
	DD	00H
	DD	00H
	DD	0ffffffffH
	DD	00H
	DD	040H
	DD	FLAT:??_R3?$CEncrypt@K@@8
rdata$r	ENDS
;	COMDAT ??_R2?$CEncrypt@K@@8
rdata$r	SEGMENT
??_R2?$CEncrypt@K@@8 DD FLAT:??_R1A@?0A@EA@?$CEncrypt@K@@8 ; CEncrypt<unsigned long>::`RTTI Base Class Array'
rdata$r	ENDS
;	COMDAT ??_R3?$CEncrypt@K@@8
rdata$r	SEGMENT
??_R3?$CEncrypt@K@@8 DD 00H				; CEncrypt<unsigned long>::`RTTI Class Hierarchy Descriptor'
	DD	00H
	DD	01H
	DD	FLAT:??_R2?$CEncrypt@K@@8
rdata$r	ENDS
;	COMDAT ??_R0?AV?$CEncrypt@K@@@8
_DATA	SEGMENT
??_R0?AV?$CEncrypt@K@@@8 DD FLAT:??_7type_info@@6B@	; CEncrypt<unsigned long> `RTTI Type Descriptor'
	DD	00H
	DB	'.?AV?$CEncrypt@K@@', 00H
_DATA	ENDS
;	COMDAT ??_R4?$CEncrypt@K@@6B@
rdata$r	SEGMENT
??_R4?$CEncrypt@K@@6B@ DD 00H				; CEncrypt<unsigned long>::`RTTI Complete Object Locator'
	DD	00H
	DD	00H
	DD	FLAT:??_R0?AV?$CEncrypt@K@@@8
	DD	FLAT:??_R3?$CEncrypt@K@@8
rdata$r	ENDS
;	COMDAT ??_7?$CEncrypt@K@@6B@
CONST	SEGMENT
??_7?$CEncrypt@K@@6B@ DD FLAT:??_R4?$CEncrypt@K@@6B@	; CEncrypt<unsigned long>::`vftable'
	DD	FLAT:??_E?$CEncrypt@K@@UAEPAXI@Z
; Function compile flags: /Ogsp
CONST	ENDS
;	COMDAT ??1?$CEncrypt@K@@UAE@XZ
_TEXT	SEGMENT
??1?$CEncrypt@K@@UAE@XZ PROC				; CEncrypt<unsigned long>::~CEncrypt<unsigned long>, COMDAT
; _this$ = ecx

; 127  : 	{

  00000	c7 01 00 00 00
	00		 mov	 DWORD PTR [ecx], OFFSET ??_7?$CEncrypt@K@@6B@

; 128  : 	}

  00006	83 c1 0c	 add	 ecx, 12			; 0000000cH
  00009	e9 00 00 00 00	 jmp	 ??1ccddaabb@@UAE@XZ	; ccddaabb::~ccddaabb
??1?$CEncrypt@K@@UAE@XZ ENDP				; CEncrypt<unsigned long>::~CEncrypt<unsigned long>
; Function compile flags: /Ogsp
_TEXT	ENDS
;	COMDAT ??_G?$CEncrypt@K@@UAEPAXI@Z
_TEXT	SEGMENT
___flags$ = 8						; size = 4
??_G?$CEncrypt@K@@UAEPAXI@Z PROC			; CEncrypt<unsigned long>::`scalar deleting destructor', COMDAT
; _this$ = ecx
  00000	55		 push	 ebp
  00001	8b ec		 mov	 ebp, esp
  00003	56		 push	 esi
  00004	8b f1		 mov	 esi, ecx
  00006	8d 4e 0c	 lea	 ecx, DWORD PTR [esi+12]
  00009	c7 06 00 00 00
	00		 mov	 DWORD PTR [esi], OFFSET ??_7?$CEncrypt@K@@6B@
  0000f	e8 00 00 00 00	 call	 ??1ccddaabb@@UAE@XZ	; ccddaabb::~ccddaabb
  00014	f6 45 08 01	 test	 BYTE PTR ___flags$[ebp], 1
  00018	74 07		 je	 SHORT $LN1@scalar@2
  0001a	56		 push	 esi
  0001b	e8 00 00 00 00	 call	 ??3@YAXPAX@Z		; operator delete
  00020	59		 pop	 ecx
$LN1@scalar@2:
  00021	8b c6		 mov	 eax, esi
  00023	5e		 pop	 esi
  00024	5d		 pop	 ebp
  00025	c2 04 00	 ret	 4
??_G?$CEncrypt@K@@UAEPAXI@Z ENDP			; CEncrypt<unsigned long>::`scalar deleting destructor'
_TEXT	ENDS
PUBLIC	?EncryptValueToPool@?$CEncrypt@K@@AAEXPBD@Z	; CEncrypt<unsigned long>::EncryptValueToPool
EXTRN	?EncryptByte@ccddaabb@@QAEXPBDPADH@Z:PROC	; ccddaabb::EncryptByte
; Function compile flags: /Ogsp
;	COMDAT ?EncryptValueToPool@?$CEncrypt@K@@AAEXPBD@Z
_TEXT	SEGMENT
_value$ = 8						; size = 4
?EncryptValueToPool@?$CEncrypt@K@@AAEXPBD@Z PROC	; CEncrypt<unsigned long>::EncryptValueToPool, COMDAT
; _this$ = ecx

; 67   : 	{

  00000	55		 push	 ebp
  00001	8b ec		 mov	 ebp, esp

; 68   : 		m_RC5.EncryptByte( value, m_MemPool, max(m_ValueSize, DEFAULT_ENCRYPT) );

  00003	0f b7 41 06	 movzx	 eax, WORD PTR [ecx+6]
  00007	83 f8 04	 cmp	 eax, 4
  0000a	77 03		 ja	 SHORT $LN4@EncryptVal
  0000c	6a 04		 push	 4
  0000e	58		 pop	 eax
$LN4@EncryptVal:
  0000f	50		 push	 eax
  00010	8d 41 1c	 lea	 eax, DWORD PTR [ecx+28]
  00013	50		 push	 eax
  00014	ff 75 08	 push	 DWORD PTR _value$[ebp]
  00017	83 c1 0c	 add	 ecx, 12			; 0000000cH
  0001a	e8 00 00 00 00	 call	 ?EncryptByte@ccddaabb@@QAEXPBDPADH@Z ; ccddaabb::EncryptByte

; 69   : 		
; 70   : 	}

  0001f	5d		 pop	 ebp
  00020	c2 04 00	 ret	 4
?EncryptValueToPool@?$CEncrypt@K@@AAEXPBD@Z ENDP	; CEncrypt<unsigned long>::EncryptValueToPool
_TEXT	ENDS
PUBLIC	?Init@?$CEncrypt@K@@AAEXXZ			; CEncrypt<unsigned long>::Init
EXTRN	?Setup@ccddaabb@@QAEXPBDHH@Z:PROC		; ccddaabb::Setup
EXTRN	__imp__rand:PROC
EXTRN	__imp__timeGetTime@0:PROC
EXTRN	__imp__GetCurrentProcessId@0:PROC
; Function compile flags: /Ogsp
;	COMDAT ?Init@?$CEncrypt@K@@AAEXXZ
_TEXT	SEGMENT
_pid$ = -8						; size = 4
_tick$ = -4						; size = 4
?Init@?$CEncrypt@K@@AAEXXZ PROC				; CEncrypt<unsigned long>::Init, COMDAT
; _this$ = ecx

; 73   : 	{

  00000	55		 push	 ebp
  00001	8b ec		 mov	 ebp, esp
  00003	51		 push	 ecx
  00004	51		 push	 ecx
  00005	53		 push	 ebx
  00006	56		 push	 esi
  00007	57		 push	 edi
  00008	8b f1		 mov	 esi, ecx

; 74   : 		DWORD pid = GetCurrentProcessId();

  0000a	ff 15 00 00 00
	00		 call	 DWORD PTR __imp__GetCurrentProcessId@0
  00010	89 45 f8	 mov	 DWORD PTR _pid$[ebp], eax

; 75   : 		DWORD tick = timeGetTime();

  00013	ff 15 00 00 00
	00		 call	 DWORD PTR __imp__timeGetTime@0

; 76   : 		m_ValueSize    = sizeof(type);
; 77   : 		m_MemPoolPos   = (unsigned short)( rand()+pid+tick )%(MAX_MEM_POOL-m_ValueSize);

  00019	8b 3d 00 00 00
	00		 mov	 edi, DWORD PTR __imp__rand
  0001f	89 45 fc	 mov	 DWORD PTR _tick$[ebp], eax
  00022	6a 04		 push	 4
  00024	58		 pop	 eax
  00025	66 89 46 06	 mov	 WORD PTR [esi+6], ax
  00029	ff d7		 call	 edi
  0002b	03 45 f8	 add	 eax, DWORD PTR _pid$[ebp]
  0002e	0f b7 4e 06	 movzx	 ecx, WORD PTR [esi+6]
  00032	03 45 fc	 add	 eax, DWORD PTR _tick$[ebp]
  00035	6a 0c		 push	 12			; 0000000cH
  00037	0f b7 c0	 movzx	 eax, ax
  0003a	5b		 pop	 ebx
  0003b	99		 cdq
  0003c	2b d9		 sub	 ebx, ecx
  0003e	f7 fb		 idiv	 ebx
  00040	66 89 56 04	 mov	 WORD PTR [esi+4], dx

; 78   : 		m_EncryptSeed  = (char)( rand()+pid+tick )%256;

  00044	ff d7		 call	 edi
  00046	02 45 f8	 add	 al, BYTE PTR _pid$[ebp]
  00049	02 45 fc	 add	 al, BYTE PTR _tick$[ebp]
  0004c	0f be c0	 movsx	 eax, al
  0004f	25 ff 00 00 80	 and	 eax, -2147483393	; 800000ffH
  00054	79 07		 jns	 SHORT $LN8@Init
  00056	48		 dec	 eax
  00057	0d 00 ff ff ff	 or	 eax, -256		; ffffff00H
  0005c	40		 inc	 eax
$LN8@Init:
  0005d	88 46 08	 mov	 BYTE PTR [esi+8], al

; 79   : 
; 80   : 		for (int i = 0; i < MAX_MEM_POOL ; i++)

  00060	33 db		 xor	 ebx, ebx
$LL3@Init:

; 81   : 			m_MemPool[i] = (char)( rand()+pid+tick )%256; // 더미

  00062	ff d7		 call	 edi
  00064	02 45 f8	 add	 al, BYTE PTR _pid$[ebp]
  00067	02 45 fc	 add	 al, BYTE PTR _tick$[ebp]
  0006a	0f be c0	 movsx	 eax, al
  0006d	25 ff 00 00 80	 and	 eax, -2147483393	; 800000ffH
  00072	79 07		 jns	 SHORT $LN9@Init
  00074	48		 dec	 eax
  00075	0d 00 ff ff ff	 or	 eax, -256		; ffffff00H
  0007a	40		 inc	 eax
$LN9@Init:
  0007b	88 44 1e 1c	 mov	 BYTE PTR [esi+ebx+28], al
  0007f	43		 inc	 ebx
  00080	83 fb 0c	 cmp	 ebx, 12			; 0000000cH
  00083	7c dd		 jl	 SHORT $LL3@Init

; 82   : 
; 83   : 		//UJ 130913, 최적화: szKey 사용안하도록 간략화
; 84   : 		//char szKey[ccddaabb::KEY_SIZE];//="";
; 85   : 		//for (int i = 0; i < ccddaabb::KEY_SIZE  ; i++)
; 86   : 		//	szKey[i] = (char)( rand()+pid+tick )%256; // 더미
; 87   : 		m_RC5.Setup( NULL, pid, tick );

  00085	ff 75 fc	 push	 DWORD PTR _tick$[ebp]
  00088	8d 4e 0c	 lea	 ecx, DWORD PTR [esi+12]
  0008b	ff 75 f8	 push	 DWORD PTR _pid$[ebp]
  0008e	6a 00		 push	 0
  00090	e8 00 00 00 00	 call	 ?Setup@ccddaabb@@QAEXPBDHH@Z ; ccddaabb::Setup
  00095	5f		 pop	 edi
  00096	5e		 pop	 esi
  00097	5b		 pop	 ebx

; 88   : 
; 89   : #ifdef _NOTUSE
; 90   : 		m_value        = 0;
; 91   : 		EncryptValueToPool((char*)&m_value);
; 92   : 		Debug();
; 93   : #endif
; 94   : 	}

  00098	c9		 leave
  00099	c3		 ret	 0
?Init@?$CEncrypt@K@@AAEXXZ ENDP				; CEncrypt<unsigned long>::Init
_TEXT	ENDS
PUBLIC	?DecryptValueToPool@?$CEncrypt@K@@QAEXPAK@Z	; CEncrypt<unsigned long>::DecryptValueToPool
EXTRN	?DecryptByte@ccddaabb@@QBEXPBDPADH@Z:PROC	; ccddaabb::DecryptByte
; Function compile flags: /Ogsp
;	COMDAT ?DecryptValueToPool@?$CEncrypt@K@@QAEXPAK@Z
_TEXT	SEGMENT
_value$ = 8						; size = 4
?DecryptValueToPool@?$CEncrypt@K@@QAEXPAK@Z PROC	; CEncrypt<unsigned long>::DecryptValueToPool, COMDAT
; _this$ = ecx

; 1256 : 	{

  00000	55		 push	 ebp
  00001	8b ec		 mov	 ebp, esp
  00003	56		 push	 esi

; 1257 : 		m_RC5.DecryptByte( m_MemPool, m_TempMem, 4 );

  00004	8d 71 28	 lea	 esi, DWORD PTR [ecx+40]
  00007	6a 04		 push	 4
  00009	8d 41 1c	 lea	 eax, DWORD PTR [ecx+28]
  0000c	56		 push	 esi
  0000d	50		 push	 eax
  0000e	83 c1 0c	 add	 ecx, 12			; 0000000cH
  00011	e8 00 00 00 00	 call	 ?DecryptByte@ccddaabb@@QBEXPBDPADH@Z ; ccddaabb::DecryptByte

; 1258 : 		*value = *((DWORD*)m_TempMem);

  00016	8b 06		 mov	 eax, DWORD PTR [esi]
  00018	8b 4d 08	 mov	 ecx, DWORD PTR _value$[ebp]
  0001b	89 01		 mov	 DWORD PTR [ecx], eax
  0001d	5e		 pop	 esi

; 1259 : 	}

  0001e	5d		 pop	 ebp
  0001f	c2 04 00	 ret	 4
?DecryptValueToPool@?$CEncrypt@K@@QAEXPAK@Z ENDP	; CEncrypt<unsigned long>::DecryptValueToPool
_TEXT	ENDS
EXTRN	__imp_??0exception@std@@QAE@ABV01@@Z:PROC
; Function compile flags: /Ogsp
;	COMDAT ??0bad_alloc@std@@QAE@ABV01@@Z
_TEXT	SEGMENT
___that$ = 8						; size = 4
??0bad_alloc@std@@QAE@ABV01@@Z PROC			; std::bad_alloc::bad_alloc, COMDAT
; _this$ = ecx
  00000	55		 push	 ebp
  00001	8b ec		 mov	 ebp, esp
  00003	56		 push	 esi
  00004	ff 75 08	 push	 DWORD PTR ___that$[ebp]
  00007	8b f1		 mov	 esi, ecx
  00009	ff 15 00 00 00
	00		 call	 DWORD PTR __imp_??0exception@std@@QAE@ABV01@@Z
  0000f	c7 06 00 00 00
	00		 mov	 DWORD PTR [esi], OFFSET ??_7bad_alloc@std@@6B@
  00015	8b c6		 mov	 eax, esi
  00017	5e		 pop	 esi
  00018	5d		 pop	 ebp
  00019	c2 04 00	 ret	 4
??0bad_alloc@std@@QAE@ABV01@@Z ENDP			; std::bad_alloc::bad_alloc
; Function compile flags: /Ogsp
_TEXT	ENDS
;	COMDAT ??_GQuestDataParent@@UAEPAXI@Z
_TEXT	SEGMENT
___flags$ = 8						; size = 4
??_GQuestDataParent@@UAEPAXI@Z PROC			; QuestDataParent::`scalar deleting destructor', COMDAT
; _this$ = ecx
  00000	55		 push	 ebp
  00001	8b ec		 mov	 ebp, esp
  00003	f6 45 08 01	 test	 BYTE PTR ___flags$[ebp], 1
  00007	56		 push	 esi
  00008	8b f1		 mov	 esi, ecx
  0000a	c7 06 00 00 00
	00		 mov	 DWORD PTR [esi], OFFSET ??_7QuestDataParent@@6B@
  00010	74 07		 je	 SHORT $LN1@scalar@3
  00012	56		 push	 esi
  00013	e8 00 00 00 00	 call	 ??3@YAXPAX@Z		; operator delete
  00018	59		 pop	 ecx
$LN1@scalar@3:
  00019	8b c6		 mov	 eax, esi
  0001b	5e		 pop	 esi
  0001c	5d		 pop	 ebp
  0001d	c2 04 00	 ret	 4
??_GQuestDataParent@@UAEPAXI@Z ENDP			; QuestDataParent::`scalar deleting destructor'
; Function compile flags: /Ogsp
; File d:\lost saga for developer\youtube\tutorial\source\src\lsclient\ioquest.cpp
_TEXT	ENDS
;	COMDAT ?GetLinkQuest@QuestDataParent@@UAEPAVQuestParent@@XZ
_TEXT	SEGMENT
?GetLinkQuest@QuestDataParent@@UAEPAVQuestParent@@XZ PROC ; QuestDataParent::GetLinkQuest, COMDAT
; _this$ = ecx

; 55   : {

  00000	56		 push	 esi
  00001	8b f1		 mov	 esi, ecx

; 56   : 	if( !m_pLinkQuest )

  00003	83 7e 0c 00	 cmp	 DWORD PTR [esi+12], 0
  00007	75 1d		 jne	 SHORT $LN8@GetLinkQue

; 57   : 	{
; 58   : 		SetLinkQuest( g_QuestMgr.GetQuest( GetMainIndex(), GetSubIndex() ) );

  00009	8b 46 04	 mov	 eax, DWORD PTR [esi+4]
  0000c	33 d2		 xor	 edx, edx
  0000e	b9 10 27 00 00	 mov	 ecx, 10000		; 00002710H
  00013	f7 f1		 div	 ecx
  00015	52		 push	 edx
  00016	50		 push	 eax
  00017	e8 00 00 00 00	 call	 ?GetSingleton@ioQuestManager@@SAAAV1@XZ ; ioQuestManager::GetSingleton
  0001c	8b c8		 mov	 ecx, eax
  0001e	e8 00 00 00 00	 call	 ?GetQuest@ioQuestManager@@QAEPAVQuestParent@@KK@Z ; ioQuestManager::GetQuest
  00023	89 46 0c	 mov	 DWORD PTR [esi+12], eax
$LN8@GetLinkQue:

; 59   : 	}
; 60   : 	return m_pLinkQuest;

  00026	8b 46 0c	 mov	 eax, DWORD PTR [esi+12]
  00029	5e		 pop	 esi

; 61   : }

  0002a	c3		 ret	 0
?GetLinkQuest@QuestDataParent@@UAEPAVQuestParent@@XZ ENDP ; QuestDataParent::GetLinkQuest
_TEXT	ENDS
PUBLIC	?GetPerformType@QuestDataParent@@QBE?BHXZ	; QuestDataParent::GetPerformType
; Function compile flags: /Ogsp
;	COMDAT ?GetPerformType@QuestDataParent@@QBE?BHXZ
_TEXT	SEGMENT
?GetPerformType@QuestDataParent@@QBE?BHXZ PROC		; QuestDataParent::GetPerformType, COMDAT
; _this$ = ecx

; 80   : 	if( m_pLinkQuest == NULL ) return 0;

  00000	8b 41 0c	 mov	 eax, DWORD PTR [ecx+12]
  00003	85 c0		 test	 eax, eax
  00005	75 01		 jne	 SHORT $LN1@GetPerform

; 83   : }

  00007	c3		 ret	 0
$LN1@GetPerform:

; 81   : 
; 82   : 	return m_pLinkQuest->GetPerformType();

  00008	8b 40 14	 mov	 eax, DWORD PTR [eax+20]

; 83   : }

  0000b	c3		 ret	 0
?GetPerformType@QuestDataParent@@QBE?BHXZ ENDP		; QuestDataParent::GetPerformType
_TEXT	ENDS
PUBLIC	??_7QuestData@@6B@				; QuestData::`vftable'
PUBLIC	??1QuestData@@UAE@XZ				; QuestData::~QuestData
PUBLIC	??_R4QuestData@@6B@				; QuestData::`RTTI Complete Object Locator'
PUBLIC	??_R0?AVQuestData@@@8				; QuestData `RTTI Type Descriptor'
PUBLIC	??_R3QuestData@@8				; QuestData::`RTTI Class Hierarchy Descriptor'
PUBLIC	??_R2QuestData@@8				; QuestData::`RTTI Base Class Array'
PUBLIC	??_R1A@?0A@EA@QuestData@@8			; QuestData::`RTTI Base Class Descriptor at (0,-1,0,64)'
EXTRN	___CxxFrameHandler3:PROC
EXTRN	@__security_check_cookie@4:PROC
EXTRN	__EH_epilog3:PROC
EXTRN	__EH_prolog3:PROC
EXTRN	??_EQuestData@@UAEPAXI@Z:PROC			; QuestData::`vector deleting destructor'
;	COMDAT ??_R1A@?0A@EA@QuestData@@8
rdata$r	SEGMENT
??_R1A@?0A@EA@QuestData@@8 DD FLAT:??_R0?AVQuestData@@@8 ; QuestData::`RTTI Base Class Descriptor at (0,-1,0,64)'
	DD	01H
	DD	00H
	DD	0ffffffffH
	DD	00H
	DD	040H
	DD	FLAT:??_R3QuestData@@8
rdata$r	ENDS
;	COMDAT ??_R2QuestData@@8
rdata$r	SEGMENT
??_R2QuestData@@8 DD FLAT:??_R1A@?0A@EA@QuestData@@8	; QuestData::`RTTI Base Class Array'
	DD	FLAT:??_R1A@?0A@EA@QuestDataParent@@8
rdata$r	ENDS
;	COMDAT ??_R3QuestData@@8
rdata$r	SEGMENT
??_R3QuestData@@8 DD 00H				; QuestData::`RTTI Class Hierarchy Descriptor'
	DD	00H
	DD	02H
	DD	FLAT:??_R2QuestData@@8
rdata$r	ENDS
;	COMDAT ??_R0?AVQuestData@@@8
_DATA	SEGMENT
??_R0?AVQuestData@@@8 DD FLAT:??_7type_info@@6B@	; QuestData `RTTI Type Descriptor'
	DD	00H
	DB	'.?AVQuestData@@', 00H
_DATA	ENDS
;	COMDAT ??_R4QuestData@@6B@
rdata$r	SEGMENT
??_R4QuestData@@6B@ DD 00H				; QuestData::`RTTI Complete Object Locator'
	DD	00H
	DD	00H
	DD	FLAT:??_R0?AVQuestData@@@8
	DD	FLAT:??_R3QuestData@@8
rdata$r	ENDS
;	COMDAT ??_7QuestData@@6B@
CONST	SEGMENT
??_7QuestData@@6B@ DD FLAT:??_R4QuestData@@6B@		; QuestData::`vftable'
	DD	FLAT:?GetIndexData@QuestDataParent@@UBE?BKXZ
	DD	FLAT:?GetDateData@QuestDataParent@@UBE?BKXZ
	DD	FLAT:?GetLinkQuest@QuestDataParent@@UAEPAVQuestParent@@XZ
	DD	FLAT:??_EQuestData@@UAEPAXI@Z
CONST	ENDS
;	COMDAT xdata$x
xdata$x	SEGMENT
__unwindtable$??1QuestData@@UAE@XZ DD 0ffffffffH
	DD	FLAT:__unwindfunclet$??1QuestData@@UAE@XZ$0
__ehfuncinfo$??1QuestData@@UAE@XZ DD 019930522H
	DD	01H
	DD	FLAT:__unwindtable$??1QuestData@@UAE@XZ
	DD	2 DUP(00H)
	DD	2 DUP(00H)
	DD	00H
	DD	01H
; Function compile flags: /Ogsp
xdata$x	ENDS
;	COMDAT ??1QuestData@@UAE@XZ
_TEXT	SEGMENT
_this$ = -16						; size = 4
__$EHRec$ = -12						; size = 12
??1QuestData@@UAE@XZ PROC				; QuestData::~QuestData, COMDAT
; _this$ = ecx

; 94   : {

  00000	6a 04		 push	 4
  00002	b8 00 00 00 00	 mov	 eax, __ehhandler$??1QuestData@@UAE@XZ
  00007	e8 00 00 00 00	 call	 __EH_prolog3
  0000c	8b f1		 mov	 esi, ecx
  0000e	89 75 f0	 mov	 DWORD PTR _this$[ebp], esi
  00011	c7 06 00 00 00
	00		 mov	 DWORD PTR [esi], OFFSET ??_7QuestData@@6B@
  00017	83 65 fc 00	 and	 DWORD PTR __$EHRec$[ebp+8], 0

; 95   : 
; 96   : }

  0001b	8d 4e 1c	 lea	 ecx, DWORD PTR [esi+28]
  0001e	c7 46 10 00 00
	00 00		 mov	 DWORD PTR [esi+16], OFFSET ??_7?$CEncrypt@K@@6B@
  00025	e8 00 00 00 00	 call	 ??1ccddaabb@@UAE@XZ	; ccddaabb::~ccddaabb
  0002a	c7 06 00 00 00
	00		 mov	 DWORD PTR [esi], OFFSET ??_7QuestDataParent@@6B@
  00030	e8 00 00 00 00	 call	 __EH_epilog3
  00035	c3		 ret	 0
_TEXT	ENDS
;	COMDAT text$x
text$x	SEGMENT
__unwindfunclet$??1QuestData@@UAE@XZ$0:
  00000	8b 4d f0	 mov	 ecx, DWORD PTR _this$[ebp]
  00003	e9 00 00 00 00	 jmp	 ??1QuestDataParent@@UAE@XZ ; QuestDataParent::~QuestDataParent
__ehhandler$??1QuestData@@UAE@XZ:
  00008	8b 54 24 08	 mov	 edx, DWORD PTR [esp+8]
  0000c	8d 42 0c	 lea	 eax, DWORD PTR [edx+12]
  0000f	8b 4a ec	 mov	 ecx, DWORD PTR [edx-20]
  00012	33 c8		 xor	 ecx, eax
  00014	e8 00 00 00 00	 call	 @__security_check_cookie@4
  00019	b8 00 00 00 00	 mov	 eax, OFFSET __ehfuncinfo$??1QuestData@@UAE@XZ
  0001e	e9 00 00 00 00	 jmp	 ___CxxFrameHandler3
text$x	ENDS
??1QuestData@@UAE@XZ ENDP				; QuestData::~QuestData
; Function compile flags: /Ogsp
;	COMDAT ??_GQuestCompleteData@@UAEPAXI@Z
_TEXT	SEGMENT
___flags$ = 8						; size = 4
??_GQuestCompleteData@@UAEPAXI@Z PROC			; QuestCompleteData::`scalar deleting destructor', COMDAT
; _this$ = ecx
  00000	55		 push	 ebp
  00001	8b ec		 mov	 ebp, esp
  00003	f6 45 08 01	 test	 BYTE PTR ___flags$[ebp], 1
  00007	56		 push	 esi
  00008	8b f1		 mov	 esi, ecx
  0000a	c7 06 00 00 00
	00		 mov	 DWORD PTR [esi], OFFSET ??_7QuestDataParent@@6B@
  00010	74 07		 je	 SHORT $LN1@scalar@4
  00012	56		 push	 esi
  00013	e8 00 00 00 00	 call	 ??3@YAXPAX@Z		; operator delete
  00018	59		 pop	 ecx
$LN1@scalar@4:
  00019	8b c6		 mov	 eax, esi
  0001b	5e		 pop	 esi
  0001c	5d		 pop	 ebp
  0001d	c2 04 00	 ret	 4
??_GQuestCompleteData@@UAEPAXI@Z ENDP			; QuestCompleteData::`scalar deleting destructor'
_TEXT	ENDS
PUBLIC	??0?$_Vector_iterator@V?$_Vector_val@PAVQuestData@@V?$allocator@PAVQuestData@@@std@@@std@@@std@@QAE@XZ ; std::_Vector_iterator<std::_Vector_val<QuestData *,std::allocator<QuestData *> > >::_Vector_iterator<std::_Vector_val<QuestData *,std::allocator<QuestData *> > >
; Function compile flags: /Ogsp
; File c:\program files (x86)\microsoft visual studio 10.0\vc\include\vector
;	COMDAT ??0?$_Vector_iterator@V?$_Vector_val@PAVQuestData@@V?$allocator@PAVQuestData@@@std@@@std@@@std@@QAE@XZ
_TEXT	SEGMENT
??0?$_Vector_iterator@V?$_Vector_val@PAVQuestData@@V?$allocator@PAVQuestData@@@std@@@std@@@std@@QAE@XZ PROC ; std::_Vector_iterator<std::_Vector_val<QuestData *,std::allocator<QuestData *> > >::_Vector_iterator<std::_Vector_val<QuestData *,std::allocator<QuestData *> > >, COMDAT
; _this$ = ecx

; 298  : 	_Vector_iterator()

  00000	8b c1		 mov	 eax, ecx
  00002	83 20 00	 and	 DWORD PTR [eax], 0

; 299  : 		{	// construct with null vector pointer
; 300  : 		}

  00005	c3		 ret	 0
??0?$_Vector_iterator@V?$_Vector_val@PAVQuestData@@V?$allocator@PAVQuestData@@@std@@@std@@@std@@QAE@XZ ENDP ; std::_Vector_iterator<std::_Vector_val<QuestData *,std::allocator<QuestData *> > >::_Vector_iterator<std::_Vector_val<QuestData *,std::allocator<QuestData *> > >
_TEXT	ENDS
PUBLIC	??D?$_Vector_iterator@V?$_Vector_val@PAVQuestData@@V?$allocator@PAVQuestData@@@std@@@std@@@std@@QBEAAPAVQuestData@@XZ ; std::_Vector_iterator<std::_Vector_val<QuestData *,std::allocator<QuestData *> > >::operator*
; Function compile flags: /Ogsp
;	COMDAT ??D?$_Vector_iterator@V?$_Vector_val@PAVQuestData@@V?$allocator@PAVQuestData@@@std@@@std@@@std@@QBEAAPAVQuestData@@XZ
_TEXT	SEGMENT
??D?$_Vector_iterator@V?$_Vector_val@PAVQuestData@@V?$allocator@PAVQuestData@@@std@@@std@@@std@@QBEAAPAVQuestData@@XZ PROC ; std::_Vector_iterator<std::_Vector_val<QuestData *,std::allocator<QuestData *> > >::operator*, COMDAT
; _this$ = ecx

; 322  : 		return ((reference)**(_Mybase *)this);

  00000	8b 01		 mov	 eax, DWORD PTR [ecx]

; 323  : 		}

  00002	c3		 ret	 0
??D?$_Vector_iterator@V?$_Vector_val@PAVQuestData@@V?$allocator@PAVQuestData@@@std@@@std@@@std@@QBEAAPAVQuestData@@XZ ENDP ; std::_Vector_iterator<std::_Vector_val<QuestData *,std::allocator<QuestData *> > >::operator*
_TEXT	ENDS
PUBLIC	??E?$_Vector_iterator@V?$_Vector_val@PAVQuestData@@V?$allocator@PAVQuestData@@@std@@@std@@@std@@QAEAAV01@XZ ; std::_Vector_iterator<std::_Vector_val<QuestData *,std::allocator<QuestData *> > >::operator++
; Function compile flags: /Ogsp
;	COMDAT ??E?$_Vector_iterator@V?$_Vector_val@PAVQuestData@@V?$allocator@PAVQuestData@@@std@@@std@@@std@@QAEAAV01@XZ
_TEXT	SEGMENT
??E?$_Vector_iterator@V?$_Vector_val@PAVQuestData@@V?$allocator@PAVQuestData@@@std@@@std@@@std@@QAEAAV01@XZ PROC ; std::_Vector_iterator<std::_Vector_val<QuestData *,std::allocator<QuestData *> > >::operator++, COMDAT
; _this$ = ecx

; 331  : 		{	// preincrement

  00000	8b c1		 mov	 eax, ecx

; 332  : 		++*(_Mybase *)this;

  00002	83 00 04	 add	 DWORD PTR [eax], 4

; 333  : 		return (*this);
; 334  : 		}

  00005	c3		 ret	 0
??E?$_Vector_iterator@V?$_Vector_val@PAVQuestData@@V?$allocator@PAVQuestData@@@std@@@std@@@std@@QAEAAV01@XZ ENDP ; std::_Vector_iterator<std::_Vector_val<QuestData *,std::allocator<QuestData *> > >::operator++
_TEXT	ENDS
PUBLIC	??E?$_Vector_iterator@V?$_Vector_val@PAVQuestData@@V?$allocator@PAVQuestData@@@std@@@std@@@std@@QAE?AV01@H@Z ; std::_Vector_iterator<std::_Vector_val<QuestData *,std::allocator<QuestData *> > >::operator++
; Function compile flags: /Ogsp
;	COMDAT ??E?$_Vector_iterator@V?$_Vector_val@PAVQuestData@@V?$allocator@PAVQuestData@@@std@@@std@@@std@@QAE?AV01@H@Z
_TEXT	SEGMENT
___$ReturnUdt$ = 8					; size = 4
___formal$ = 12						; size = 4
??E?$_Vector_iterator@V?$_Vector_val@PAVQuestData@@V?$allocator@PAVQuestData@@@std@@@std@@@std@@QAE?AV01@H@Z PROC ; std::_Vector_iterator<std::_Vector_val<QuestData *,std::allocator<QuestData *> > >::operator++, COMDAT
; _this$ = ecx

; 337  : 		{	// postincrement

  00000	55		 push	 ebp
  00001	8b ec		 mov	 ebp, esp

; 338  : 		_Myiter _Tmp = *this;

  00003	8b 11		 mov	 edx, DWORD PTR [ecx]
  00005	8b 45 08	 mov	 eax, DWORD PTR ___$ReturnUdt$[ebp]
  00008	89 10		 mov	 DWORD PTR [eax], edx

; 339  : 		++*this;

  0000a	83 c2 04	 add	 edx, 4
  0000d	89 11		 mov	 DWORD PTR [ecx], edx

; 340  : 		return (_Tmp);
; 341  : 		}

  0000f	5d		 pop	 ebp
  00010	c2 08 00	 ret	 8
??E?$_Vector_iterator@V?$_Vector_val@PAVQuestData@@V?$allocator@PAVQuestData@@@std@@@std@@@std@@QAE?AV01@H@Z ENDP ; std::_Vector_iterator<std::_Vector_val<QuestData *,std::allocator<QuestData *> > >::operator++
_TEXT	ENDS
PUBLIC	??0?$_Vector_iterator@V?$_Vector_val@PAVQuestCompleteData@@V?$allocator@PAVQuestCompleteData@@@std@@@std@@@std@@QAE@XZ ; std::_Vector_iterator<std::_Vector_val<QuestCompleteData *,std::allocator<QuestCompleteData *> > >::_Vector_iterator<std::_Vector_val<QuestCompleteData *,std::allocator<QuestCompleteData *> > >
; Function compile flags: /Ogsp
;	COMDAT ??0?$_Vector_iterator@V?$_Vector_val@PAVQuestCompleteData@@V?$allocator@PAVQuestCompleteData@@@std@@@std@@@std@@QAE@XZ
_TEXT	SEGMENT
??0?$_Vector_iterator@V?$_Vector_val@PAVQuestCompleteData@@V?$allocator@PAVQuestCompleteData@@@std@@@std@@@std@@QAE@XZ PROC ; std::_Vector_iterator<std::_Vector_val<QuestCompleteData *,std::allocator<QuestCompleteData *> > >::_Vector_iterator<std::_Vector_val<QuestCompleteData *,std::allocator<QuestCompleteData *> > >, COMDAT
; _this$ = ecx

; 298  : 	_Vector_iterator()

  00000	8b c1		 mov	 eax, ecx
  00002	83 20 00	 and	 DWORD PTR [eax], 0

; 299  : 		{	// construct with null vector pointer
; 300  : 		}

  00005	c3		 ret	 0
??0?$_Vector_iterator@V?$_Vector_val@PAVQuestCompleteData@@V?$allocator@PAVQuestCompleteData@@@std@@@std@@@std@@QAE@XZ ENDP ; std::_Vector_iterator<std::_Vector_val<QuestCompleteData *,std::allocator<QuestCompleteData *> > >::_Vector_iterator<std::_Vector_val<QuestCompleteData *,std::allocator<QuestCompleteData *> > >
_TEXT	ENDS
PUBLIC	??D?$_Vector_iterator@V?$_Vector_val@PAVQuestCompleteData@@V?$allocator@PAVQuestCompleteData@@@std@@@std@@@std@@QBEAAPAVQuestCompleteData@@XZ ; std::_Vector_iterator<std::_Vector_val<QuestCompleteData *,std::allocator<QuestCompleteData *> > >::operator*
; Function compile flags: /Ogsp
;	COMDAT ??D?$_Vector_iterator@V?$_Vector_val@PAVQuestCompleteData@@V?$allocator@PAVQuestCompleteData@@@std@@@std@@@std@@QBEAAPAVQuestCompleteData@@XZ
_TEXT	SEGMENT
??D?$_Vector_iterator@V?$_Vector_val@PAVQuestCompleteData@@V?$allocator@PAVQuestCompleteData@@@std@@@std@@@std@@QBEAAPAVQuestCompleteData@@XZ PROC ; std::_Vector_iterator<std::_Vector_val<QuestCompleteData *,std::allocator<QuestCompleteData *> > >::operator*, COMDAT
; _this$ = ecx

; 322  : 		return ((reference)**(_Mybase *)this);

  00000	8b 01		 mov	 eax, DWORD PTR [ecx]

; 323  : 		}

  00002	c3		 ret	 0
??D?$_Vector_iterator@V?$_Vector_val@PAVQuestCompleteData@@V?$allocator@PAVQuestCompleteData@@@std@@@std@@@std@@QBEAAPAVQuestCompleteData@@XZ ENDP ; std::_Vector_iterator<std::_Vector_val<QuestCompleteData *,std::allocator<QuestCompleteData *> > >::operator*
_TEXT	ENDS
PUBLIC	??E?$_Vector_iterator@V?$_Vector_val@PAVQuestCompleteData@@V?$allocator@PAVQuestCompleteData@@@std@@@std@@@std@@QAEAAV01@XZ ; std::_Vector_iterator<std::_Vector_val<QuestCompleteData *,std::allocator<QuestCompleteData *> > >::operator++
; Function compile flags: /Ogsp
;	COMDAT ??E?$_Vector_iterator@V?$_Vector_val@PAVQuestCompleteData@@V?$allocator@PAVQuestCompleteData@@@std@@@std@@@std@@QAEAAV01@XZ
_TEXT	SEGMENT
??E?$_Vector_iterator@V?$_Vector_val@PAVQuestCompleteData@@V?$allocator@PAVQuestCompleteData@@@std@@@std@@@std@@QAEAAV01@XZ PROC ; std::_Vector_iterator<std::_Vector_val<QuestCompleteData *,std::allocator<QuestCompleteData *> > >::operator++, COMDAT
; _this$ = ecx

; 331  : 		{	// preincrement

  00000	8b c1		 mov	 eax, ecx

; 332  : 		++*(_Mybase *)this;

  00002	83 00 04	 add	 DWORD PTR [eax], 4

; 333  : 		return (*this);
; 334  : 		}

  00005	c3		 ret	 0
??E?$_Vector_iterator@V?$_Vector_val@PAVQuestCompleteData@@V?$allocator@PAVQuestCompleteData@@@std@@@std@@@std@@QAEAAV01@XZ ENDP ; std::_Vector_iterator<std::_Vector_val<QuestCompleteData *,std::allocator<QuestCompleteData *> > >::operator++
_TEXT	ENDS
PUBLIC	??E?$_Vector_iterator@V?$_Vector_val@PAVQuestCompleteData@@V?$allocator@PAVQuestCompleteData@@@std@@@std@@@std@@QAE?AV01@H@Z ; std::_Vector_iterator<std::_Vector_val<QuestCompleteData *,std::allocator<QuestCompleteData *> > >::operator++
; Function compile flags: /Ogsp
;	COMDAT ??E?$_Vector_iterator@V?$_Vector_val@PAVQuestCompleteData@@V?$allocator@PAVQuestCompleteData@@@std@@@std@@@std@@QAE?AV01@H@Z
_TEXT	SEGMENT
___$ReturnUdt$ = 8					; size = 4
___formal$ = 12						; size = 4
??E?$_Vector_iterator@V?$_Vector_val@PAVQuestCompleteData@@V?$allocator@PAVQuestCompleteData@@@std@@@std@@@std@@QAE?AV01@H@Z PROC ; std::_Vector_iterator<std::_Vector_val<QuestCompleteData *,std::allocator<QuestCompleteData *> > >::operator++, COMDAT
; _this$ = ecx

; 337  : 		{	// postincrement

  00000	55		 push	 ebp
  00001	8b ec		 mov	 ebp, esp

; 338  : 		_Myiter _Tmp = *this;

  00003	8b 11		 mov	 edx, DWORD PTR [ecx]
  00005	8b 45 08	 mov	 eax, DWORD PTR ___$ReturnUdt$[ebp]
  00008	89 10		 mov	 DWORD PTR [eax], edx

; 339  : 		++*this;

  0000a	83 c2 04	 add	 edx, 4
  0000d	89 11		 mov	 DWORD PTR [ecx], edx

; 340  : 		return (_Tmp);
; 341  : 		}

  0000f	5d		 pop	 ebp
  00010	c2 08 00	 ret	 8
??E?$_Vector_iterator@V?$_Vector_val@PAVQuestCompleteData@@V?$allocator@PAVQuestCompleteData@@@std@@@std@@@std@@QAE?AV01@H@Z ENDP ; std::_Vector_iterator<std::_Vector_val<QuestCompleteData *,std::allocator<QuestCompleteData *> > >::operator++
_TEXT	ENDS
PUBLIC	??0?$_Vector_val@PAVQuestData@@V?$allocator@PAVQuestData@@@std@@@std@@QAE@V?$allocator@PAVQuestData@@@1@@Z ; std::_Vector_val<QuestData *,std::allocator<QuestData *> >::_Vector_val<QuestData *,std::allocator<QuestData *> >
; Function compile flags: /Ogsp
;	COMDAT ??0?$_Vector_val@PAVQuestData@@V?$allocator@PAVQuestData@@@std@@@std@@QAE@V?$allocator@PAVQuestData@@@1@@Z
_TEXT	SEGMENT
__Al$ = 8						; size = 1
??0?$_Vector_val@PAVQuestData@@V?$allocator@PAVQuestData@@@std@@@std@@QAE@V?$allocator@PAVQuestData@@@1@@Z PROC ; std::_Vector_val<QuestData *,std::allocator<QuestData *> >::_Vector_val<QuestData *,std::allocator<QuestData *> >, COMDAT
; _this$ = ecx

; 426  : 		{	// construct allocator from _Al

  00000	8b c1		 mov	 eax, ecx

; 427  : 		_Myfirst = 0;

  00002	33 c9		 xor	 ecx, ecx
  00004	89 08		 mov	 DWORD PTR [eax], ecx

; 428  : 		_Mylast = 0;

  00006	89 48 04	 mov	 DWORD PTR [eax+4], ecx

; 429  : 		_Myend = 0;

  00009	89 48 08	 mov	 DWORD PTR [eax+8], ecx

; 430  : 		}

  0000c	c2 04 00	 ret	 4
??0?$_Vector_val@PAVQuestData@@V?$allocator@PAVQuestData@@@std@@@std@@QAE@V?$allocator@PAVQuestData@@@1@@Z ENDP ; std::_Vector_val<QuestData *,std::allocator<QuestData *> >::_Vector_val<QuestData *,std::allocator<QuestData *> >
_TEXT	ENDS
PUBLIC	??0?$_Vector_val@PAVQuestCompleteData@@V?$allocator@PAVQuestCompleteData@@@std@@@std@@QAE@V?$allocator@PAVQuestCompleteData@@@1@@Z ; std::_Vector_val<QuestCompleteData *,std::allocator<QuestCompleteData *> >::_Vector_val<QuestCompleteData *,std::allocator<QuestCompleteData *> >
; Function compile flags: /Ogsp
;	COMDAT ??0?$_Vector_val@PAVQuestCompleteData@@V?$allocator@PAVQuestCompleteData@@@std@@@std@@QAE@V?$allocator@PAVQuestCompleteData@@@1@@Z
_TEXT	SEGMENT
__Al$ = 8						; size = 1
??0?$_Vector_val@PAVQuestCompleteData@@V?$allocator@PAVQuestCompleteData@@@std@@@std@@QAE@V?$allocator@PAVQuestCompleteData@@@1@@Z PROC ; std::_Vector_val<QuestCompleteData *,std::allocator<QuestCompleteData *> >::_Vector_val<QuestCompleteData *,std::allocator<QuestCompleteData *> >, COMDAT
; _this$ = ecx

; 426  : 		{	// construct allocator from _Al

  00000	8b c1		 mov	 eax, ecx

; 427  : 		_Myfirst = 0;

  00002	33 c9		 xor	 ecx, ecx
  00004	89 08		 mov	 DWORD PTR [eax], ecx

; 428  : 		_Mylast = 0;

  00006	89 48 04	 mov	 DWORD PTR [eax+4], ecx

; 429  : 		_Myend = 0;

  00009	89 48 08	 mov	 DWORD PTR [eax+8], ecx

; 430  : 		}

  0000c	c2 04 00	 ret	 4
??0?$_Vector_val@PAVQuestCompleteData@@V?$allocator@PAVQuestCompleteData@@@std@@@std@@QAE@V?$allocator@PAVQuestCompleteData@@@1@@Z ENDP ; std::_Vector_val<QuestCompleteData *,std::allocator<QuestCompleteData *> >::_Vector_val<QuestCompleteData *,std::allocator<QuestCompleteData *> >
_TEXT	ENDS
PUBLIC	??0?$_Vector_iterator@V?$_Vector_val@PAVQuestData@@V?$allocator@PAVQuestData@@@std@@@std@@@std@@QAE@PAPAVQuestData@@PBU_Container_base0@1@@Z ; std::_Vector_iterator<std::_Vector_val<QuestData *,std::allocator<QuestData *> > >::_Vector_iterator<std::_Vector_val<QuestData *,std::allocator<QuestData *> > >
; Function compile flags: /Ogsp
;	COMDAT ??0?$_Vector_iterator@V?$_Vector_val@PAVQuestData@@V?$allocator@PAVQuestData@@@std@@@std@@@std@@QAE@PAPAVQuestData@@PBU_Container_base0@1@@Z
_TEXT	SEGMENT
__Parg$ = 8						; size = 4
__Pvector$ = 12						; size = 4
??0?$_Vector_iterator@V?$_Vector_val@PAVQuestData@@V?$allocator@PAVQuestData@@@std@@@std@@@std@@QAE@PAPAVQuestData@@PBU_Container_base0@1@@Z PROC ; std::_Vector_iterator<std::_Vector_val<QuestData *,std::allocator<QuestData *> > >::_Vector_iterator<std::_Vector_val<QuestData *,std::allocator<QuestData *> > >, COMDAT
; _this$ = ecx

; 304  : 		{	// construct with pointer _Parg

  00000	55		 push	 ebp
  00001	8b ec		 mov	 ebp, esp
  00003	8b c1		 mov	 eax, ecx
  00005	8b 4d 08	 mov	 ecx, DWORD PTR __Parg$[ebp]
  00008	89 08		 mov	 DWORD PTR [eax], ecx

; 305  : 		}

  0000a	5d		 pop	 ebp
  0000b	c2 08 00	 ret	 8
??0?$_Vector_iterator@V?$_Vector_val@PAVQuestData@@V?$allocator@PAVQuestData@@@std@@@std@@@std@@QAE@PAPAVQuestData@@PBU_Container_base0@1@@Z ENDP ; std::_Vector_iterator<std::_Vector_val<QuestData *,std::allocator<QuestData *> > >::_Vector_iterator<std::_Vector_val<QuestData *,std::allocator<QuestData *> > >
_TEXT	ENDS
PUBLIC	??8?$_Vector_const_iterator@V?$_Vector_val@PAVQuestData@@V?$allocator@PAVQuestData@@@std@@@std@@@std@@QBE_NABV01@@Z ; std::_Vector_const_iterator<std::_Vector_val<QuestData *,std::allocator<QuestData *> > >::operator==
; Function compile flags: /Ogsp
;	COMDAT ??8?$_Vector_const_iterator@V?$_Vector_val@PAVQuestData@@V?$allocator@PAVQuestData@@@std@@@std@@@std@@QBE_NABV01@@Z
_TEXT	SEGMENT
__Right$ = 8						; size = 4
??8?$_Vector_const_iterator@V?$_Vector_val@PAVQuestData@@V?$allocator@PAVQuestData@@@std@@@std@@@std@@QBE_NABV01@@Z PROC ; std::_Vector_const_iterator<std::_Vector_val<QuestData *,std::allocator<QuestData *> > >::operator==, COMDAT
; _this$ = ecx

; 201  : 		{	// test for iterator equality

  00000	55		 push	 ebp
  00001	8b ec		 mov	 ebp, esp

; 202  : 		_Compat(_Right);
; 203  : 		return (this->_Ptr == _Right._Ptr);

  00003	8b 01		 mov	 eax, DWORD PTR [ecx]
  00005	8b 4d 08	 mov	 ecx, DWORD PTR __Right$[ebp]
  00008	2b 01		 sub	 eax, DWORD PTR [ecx]
  0000a	f7 d8		 neg	 eax
  0000c	1b c0		 sbb	 eax, eax
  0000e	40		 inc	 eax

; 204  : 		}

  0000f	5d		 pop	 ebp
  00010	c2 04 00	 ret	 4
??8?$_Vector_const_iterator@V?$_Vector_val@PAVQuestData@@V?$allocator@PAVQuestData@@@std@@@std@@@std@@QBE_NABV01@@Z ENDP ; std::_Vector_const_iterator<std::_Vector_val<QuestData *,std::allocator<QuestData *> > >::operator==
_TEXT	ENDS
PUBLIC	??0?$_Vector_iterator@V?$_Vector_val@PAVQuestCompleteData@@V?$allocator@PAVQuestCompleteData@@@std@@@std@@@std@@QAE@PAPAVQuestCompleteData@@PBU_Container_base0@1@@Z ; std::_Vector_iterator<std::_Vector_val<QuestCompleteData *,std::allocator<QuestCompleteData *> > >::_Vector_iterator<std::_Vector_val<QuestCompleteData *,std::allocator<QuestCompleteData *> > >
; Function compile flags: /Ogsp
;	COMDAT ??0?$_Vector_iterator@V?$_Vector_val@PAVQuestCompleteData@@V?$allocator@PAVQuestCompleteData@@@std@@@std@@@std@@QAE@PAPAVQuestCompleteData@@PBU_Container_base0@1@@Z
_TEXT	SEGMENT
__Parg$ = 8						; size = 4
__Pvector$ = 12						; size = 4
??0?$_Vector_iterator@V?$_Vector_val@PAVQuestCompleteData@@V?$allocator@PAVQuestCompleteData@@@std@@@std@@@std@@QAE@PAPAVQuestCompleteData@@PBU_Container_base0@1@@Z PROC ; std::_Vector_iterator<std::_Vector_val<QuestCompleteData *,std::allocator<QuestCompleteData *> > >::_Vector_iterator<std::_Vector_val<QuestCompleteData *,std::allocator<QuestCompleteData *> > >, COMDAT
; _this$ = ecx

; 304  : 		{	// construct with pointer _Parg

  00000	55		 push	 ebp
  00001	8b ec		 mov	 ebp, esp
  00003	8b c1		 mov	 eax, ecx
  00005	8b 4d 08	 mov	 ecx, DWORD PTR __Parg$[ebp]
  00008	89 08		 mov	 DWORD PTR [eax], ecx

; 305  : 		}

  0000a	5d		 pop	 ebp
  0000b	c2 08 00	 ret	 8
??0?$_Vector_iterator@V?$_Vector_val@PAVQuestCompleteData@@V?$allocator@PAVQuestCompleteData@@@std@@@std@@@std@@QAE@PAPAVQuestCompleteData@@PBU_Container_base0@1@@Z ENDP ; std::_Vector_iterator<std::_Vector_val<QuestCompleteData *,std::allocator<QuestCompleteData *> > >::_Vector_iterator<std::_Vector_val<QuestCompleteData *,std::allocator<QuestCompleteData *> > >
_TEXT	ENDS
PUBLIC	??8?$_Vector_const_iterator@V?$_Vector_val@PAVQuestCompleteData@@V?$allocator@PAVQuestCompleteData@@@std@@@std@@@std@@QBE_NABV01@@Z ; std::_Vector_const_iterator<std::_Vector_val<QuestCompleteData *,std::allocator<QuestCompleteData *> > >::operator==
; Function compile flags: /Ogsp
;	COMDAT ??8?$_Vector_const_iterator@V?$_Vector_val@PAVQuestCompleteData@@V?$allocator@PAVQuestCompleteData@@@std@@@std@@@std@@QBE_NABV01@@Z
_TEXT	SEGMENT
__Right$ = 8						; size = 4
??8?$_Vector_const_iterator@V?$_Vector_val@PAVQuestCompleteData@@V?$allocator@PAVQuestCompleteData@@@std@@@std@@@std@@QBE_NABV01@@Z PROC ; std::_Vector_const_iterator<std::_Vector_val<QuestCompleteData *,std::allocator<QuestCompleteData *> > >::operator==, COMDAT
; _this$ = ecx

; 201  : 		{	// test for iterator equality

  00000	55		 push	 ebp
  00001	8b ec		 mov	 ebp, esp

; 202  : 		_Compat(_Right);
; 203  : 		return (this->_Ptr == _Right._Ptr);

  00003	8b 01		 mov	 eax, DWORD PTR [ecx]
  00005	8b 4d 08	 mov	 ecx, DWORD PTR __Right$[ebp]
  00008	2b 01		 sub	 eax, DWORD PTR [ecx]
  0000a	f7 d8		 neg	 eax
  0000c	1b c0		 sbb	 eax, eax
  0000e	40		 inc	 eax

; 204  : 		}

  0000f	5d		 pop	 ebp
  00010	c2 04 00	 ret	 4
??8?$_Vector_const_iterator@V?$_Vector_val@PAVQuestCompleteData@@V?$allocator@PAVQuestCompleteData@@@std@@@std@@@std@@QBE_NABV01@@Z ENDP ; std::_Vector_const_iterator<std::_Vector_val<QuestCompleteData *,std::allocator<QuestCompleteData *> > >::operator==
_TEXT	ENDS
PUBLIC	??$_Move@PAPAVQuestData@@PAPAV1@@std@@YAPAPAVQuestData@@PAPAV1@00@Z ; std::_Move<QuestData * *,QuestData * *>
; Function compile flags: /Ogsp
; File c:\program files (x86)\microsoft visual studio 10.0\vc\include\xutility
;	COMDAT ??$_Move@PAPAVQuestData@@PAPAV1@@std@@YAPAPAVQuestData@@PAPAV1@00@Z
_TEXT	SEGMENT
__Cat$509499 = -4					; size = 1
__First$ = 8						; size = 4
__Last$ = 12						; size = 4
__Dest$ = 16						; size = 4
??$_Move@PAPAVQuestData@@PAPAV1@@std@@YAPAPAVQuestData@@PAPAV1@00@Z PROC ; std::_Move<QuestData * *,QuestData * *>, COMDAT

; 2533 : 	{	// move [_First, _Last) to [_Dest, ...), unchecked

  00000	55		 push	 ebp
  00001	8b ec		 mov	 ebp, esp
  00003	51		 push	 ecx

; 2534 : 	return (_Move(_First, _Last,
; 2535 : 		_Dest, _Ptr_cat(_First, _Dest)));

  00004	ff 75 fc	 push	 DWORD PTR __Cat$509499[ebp]
  00007	ff 75 10	 push	 DWORD PTR __Dest$[ebp]
  0000a	ff 75 0c	 push	 DWORD PTR __Last$[ebp]
  0000d	ff 75 08	 push	 DWORD PTR __First$[ebp]
  00010	e8 00 00 00 00	 call	 ??$_Move@PAPAVQuestData@@PAPAV1@@std@@YAPAPAVQuestData@@PAPAV1@00U_Scalar_ptr_iterator_tag@0@@Z ; std::_Move<QuestData * *,QuestData * *>
  00015	83 c4 10	 add	 esp, 16			; 00000010H

; 2536 : 	}

  00018	c9		 leave
  00019	c3		 ret	 0
??$_Move@PAPAVQuestData@@PAPAV1@@std@@YAPAPAVQuestData@@PAPAV1@00@Z ENDP ; std::_Move<QuestData * *,QuestData * *>
_TEXT	ENDS
PUBLIC	??$_Move@PAPAVQuestCompleteData@@PAPAV1@@std@@YAPAPAVQuestCompleteData@@PAPAV1@00@Z ; std::_Move<QuestCompleteData * *,QuestCompleteData * *>
; Function compile flags: /Ogsp
;	COMDAT ??$_Move@PAPAVQuestCompleteData@@PAPAV1@@std@@YAPAPAVQuestCompleteData@@PAPAV1@00@Z
_TEXT	SEGMENT
__Cat$509506 = -4					; size = 1
__First$ = 8						; size = 4
__Last$ = 12						; size = 4
__Dest$ = 16						; size = 4
??$_Move@PAPAVQuestCompleteData@@PAPAV1@@std@@YAPAPAVQuestCompleteData@@PAPAV1@00@Z PROC ; std::_Move<QuestCompleteData * *,QuestCompleteData * *>, COMDAT

; 2533 : 	{	// move [_First, _Last) to [_Dest, ...), unchecked

  00000	55		 push	 ebp
  00001	8b ec		 mov	 ebp, esp
  00003	51		 push	 ecx

; 2534 : 	return (_Move(_First, _Last,
; 2535 : 		_Dest, _Ptr_cat(_First, _Dest)));

  00004	ff 75 fc	 push	 DWORD PTR __Cat$509506[ebp]
  00007	ff 75 10	 push	 DWORD PTR __Dest$[ebp]
  0000a	ff 75 0c	 push	 DWORD PTR __Last$[ebp]
  0000d	ff 75 08	 push	 DWORD PTR __First$[ebp]
  00010	e8 00 00 00 00	 call	 ??$_Move@PAPAVQuestCompleteData@@PAPAV1@@std@@YAPAPAVQuestCompleteData@@PAPAV1@00U_Scalar_ptr_iterator_tag@0@@Z ; std::_Move<QuestCompleteData * *,QuestCompleteData * *>
  00015	83 c4 10	 add	 esp, 16			; 00000010H

; 2536 : 	}

  00018	c9		 leave
  00019	c3		 ret	 0
??$_Move@PAPAVQuestCompleteData@@PAPAV1@@std@@YAPAPAVQuestCompleteData@@PAPAV1@00@Z ENDP ; std::_Move<QuestCompleteData * *,QuestCompleteData * *>
_TEXT	ENDS
PUBLIC	??$_Destroy_range@V?$allocator@PAVQuestData@@@std@@@std@@YAXPAPAVQuestData@@0AAV?$allocator@PAVQuestData@@@0@@Z ; std::_Destroy_range<std::allocator<QuestData *> >
; Function compile flags: /Ogsp
; File c:\program files (x86)\microsoft visual studio 10.0\vc\include\xmemory
;	COMDAT ??$_Destroy_range@V?$allocator@PAVQuestData@@@std@@@std@@YAXPAPAVQuestData@@0AAV?$allocator@PAVQuestData@@@0@@Z
_TEXT	SEGMENT
__First$ = 8						; size = 4
__Last$ = 12						; size = 4
__Al$ = 16						; size = 4
??$_Destroy_range@V?$allocator@PAVQuestData@@@std@@@std@@YAXPAPAVQuestData@@0AAV?$allocator@PAVQuestData@@@0@@Z PROC ; std::_Destroy_range<std::allocator<QuestData *> >, COMDAT

; 88   : 	_Destroy_range(_First, _Last, _Al, _Ptr_cat(_First, _Last));
; 89   : 	}

  00000	c3		 ret	 0
??$_Destroy_range@V?$allocator@PAVQuestData@@@std@@@std@@YAXPAPAVQuestData@@0AAV?$allocator@PAVQuestData@@@0@@Z ENDP ; std::_Destroy_range<std::allocator<QuestData *> >
_TEXT	ENDS
PUBLIC	??$_Destroy_range@V?$allocator@PAVQuestCompleteData@@@std@@@std@@YAXPAPAVQuestCompleteData@@0AAV?$allocator@PAVQuestCompleteData@@@0@@Z ; std::_Destroy_range<std::allocator<QuestCompleteData *> >
; Function compile flags: /Ogsp
;	COMDAT ??$_Destroy_range@V?$allocator@PAVQuestCompleteData@@@std@@@std@@YAXPAPAVQuestCompleteData@@0AAV?$allocator@PAVQuestCompleteData@@@0@@Z
_TEXT	SEGMENT
__First$ = 8						; size = 4
__Last$ = 12						; size = 4
__Al$ = 16						; size = 4
??$_Destroy_range@V?$allocator@PAVQuestCompleteData@@@std@@@std@@YAXPAPAVQuestCompleteData@@0AAV?$allocator@PAVQuestCompleteData@@@0@@Z PROC ; std::_Destroy_range<std::allocator<QuestCompleteData *> >, COMDAT

; 88   : 	_Destroy_range(_First, _Last, _Al, _Ptr_cat(_First, _Last));
; 89   : 	}

  00000	c3		 ret	 0
??$_Destroy_range@V?$allocator@PAVQuestCompleteData@@@std@@@std@@YAXPAPAVQuestCompleteData@@0AAV?$allocator@PAVQuestCompleteData@@@0@@Z ENDP ; std::_Destroy_range<std::allocator<QuestCompleteData *> >
_TEXT	ENDS
PUBLIC	??G?$_Vector_iterator@V?$_Vector_val@PAVQuestData@@V?$allocator@PAVQuestData@@@std@@@std@@@std@@QBEHABV?$_Vector_const_iterator@V?$_Vector_val@PAVQuestData@@V?$allocator@PAVQuestData@@@std@@@std@@@1@@Z ; std::_Vector_iterator<std::_Vector_val<QuestData *,std::allocator<QuestData *> > >::operator-
; Function compile flags: /Ogsp
; File c:\program files (x86)\microsoft visual studio 10.0\vc\include\vector
;	COMDAT ??G?$_Vector_iterator@V?$_Vector_val@PAVQuestData@@V?$allocator@PAVQuestData@@@std@@@std@@@std@@QBEHABV?$_Vector_const_iterator@V?$_Vector_val@PAVQuestData@@V?$allocator@PAVQuestData@@@std@@@std@@@1@@Z
_TEXT	SEGMENT
__Right$ = 8						; size = 4
??G?$_Vector_iterator@V?$_Vector_val@PAVQuestData@@V?$allocator@PAVQuestData@@@std@@@std@@@std@@QBEHABV?$_Vector_const_iterator@V?$_Vector_val@PAVQuestData@@V?$allocator@PAVQuestData@@@std@@@std@@@1@@Z PROC ; std::_Vector_iterator<std::_Vector_val<QuestData *,std::allocator<QuestData *> > >::operator-, COMDAT
; _this$ = ecx

; 380  : 		{	// return difference of iterators

  00000	55		 push	 ebp
  00001	8b ec		 mov	 ebp, esp

; 381  : 		return (*(_Mybase *)this - _Right);

  00003	8b 01		 mov	 eax, DWORD PTR [ecx]
  00005	8b 4d 08	 mov	 ecx, DWORD PTR __Right$[ebp]
  00008	2b 01		 sub	 eax, DWORD PTR [ecx]
  0000a	c1 f8 02	 sar	 eax, 2

; 382  : 		}

  0000d	5d		 pop	 ebp
  0000e	c2 04 00	 ret	 4
??G?$_Vector_iterator@V?$_Vector_val@PAVQuestData@@V?$allocator@PAVQuestData@@@std@@@std@@@std@@QBEHABV?$_Vector_const_iterator@V?$_Vector_val@PAVQuestData@@V?$allocator@PAVQuestData@@@std@@@std@@@1@@Z ENDP ; std::_Vector_iterator<std::_Vector_val<QuestData *,std::allocator<QuestData *> > >::operator-
_TEXT	ENDS
PUBLIC	??G?$_Vector_iterator@V?$_Vector_val@PAVQuestCompleteData@@V?$allocator@PAVQuestCompleteData@@@std@@@std@@@std@@QBEHABV?$_Vector_const_iterator@V?$_Vector_val@PAVQuestCompleteData@@V?$allocator@PAVQuestCompleteData@@@std@@@std@@@1@@Z ; std::_Vector_iterator<std::_Vector_val<QuestCompleteData *,std::allocator<QuestCompleteData *> > >::operator-
; Function compile flags: /Ogsp
;	COMDAT ??G?$_Vector_iterator@V?$_Vector_val@PAVQuestCompleteData@@V?$allocator@PAVQuestCompleteData@@@std@@@std@@@std@@QBEHABV?$_Vector_const_iterator@V?$_Vector_val@PAVQuestCompleteData@@V?$allocator@PAVQuestCompleteData@@@std@@@std@@@1@@Z
_TEXT	SEGMENT
__Right$ = 8						; size = 4
??G?$_Vector_iterator@V?$_Vector_val@PAVQuestCompleteData@@V?$allocator@PAVQuestCompleteData@@@std@@@std@@@std@@QBEHABV?$_Vector_const_iterator@V?$_Vector_val@PAVQuestCompleteData@@V?$allocator@PAVQuestCompleteData@@@std@@@std@@@1@@Z PROC ; std::_Vector_iterator<std::_Vector_val<QuestCompleteData *,std::allocator<QuestCompleteData *> > >::operator-, COMDAT
; _this$ = ecx

; 380  : 		{	// return difference of iterators

  00000	55		 push	 ebp
  00001	8b ec		 mov	 ebp, esp

; 381  : 		return (*(_Mybase *)this - _Right);

  00003	8b 01		 mov	 eax, DWORD PTR [ecx]
  00005	8b 4d 08	 mov	 ecx, DWORD PTR __Right$[ebp]
  00008	2b 01		 sub	 eax, DWORD PTR [ecx]
  0000a	c1 f8 02	 sar	 eax, 2

; 382  : 		}

  0000d	5d		 pop	 ebp
  0000e	c2 04 00	 ret	 4
??G?$_Vector_iterator@V?$_Vector_val@PAVQuestCompleteData@@V?$allocator@PAVQuestCompleteData@@@std@@@std@@@std@@QBEHABV?$_Vector_const_iterator@V?$_Vector_val@PAVQuestCompleteData@@V?$allocator@PAVQuestCompleteData@@@std@@@std@@@1@@Z ENDP ; std::_Vector_iterator<std::_Vector_val<QuestCompleteData *,std::allocator<QuestCompleteData *> > >::operator-
_TEXT	ENDS
PUBLIC	??$_Unchecked@V?$_Vector_val@PAVQuestData@@V?$allocator@PAVQuestData@@@std@@@std@@@std@@YAPAPAVQuestData@@V?$_Vector_iterator@V?$_Vector_val@PAVQuestData@@V?$allocator@PAVQuestData@@@std@@@std@@@0@@Z ; std::_Unchecked<std::_Vector_val<QuestData *,std::allocator<QuestData *> > >
; Function compile flags: /Ogsp
;	COMDAT ??$_Unchecked@V?$_Vector_val@PAVQuestData@@V?$allocator@PAVQuestData@@@std@@@std@@@std@@YAPAPAVQuestData@@V?$_Vector_iterator@V?$_Vector_val@PAVQuestData@@V?$allocator@PAVQuestData@@@std@@@std@@@0@@Z
_TEXT	SEGMENT
__Iter$ = 8						; size = 4
??$_Unchecked@V?$_Vector_val@PAVQuestData@@V?$allocator@PAVQuestData@@@std@@@std@@@std@@YAPAPAVQuestData@@V?$_Vector_iterator@V?$_Vector_val@PAVQuestData@@V?$allocator@PAVQuestData@@@std@@@std@@@0@@Z PROC ; std::_Unchecked<std::_Vector_val<QuestData *,std::allocator<QuestData *> > >, COMDAT

; 393  : 	{	// convert to unchecked

  00000	55		 push	 ebp
  00001	8b ec		 mov	 ebp, esp

; 394  : 	return (_Iter._Unchecked());

  00003	8b 45 08	 mov	 eax, DWORD PTR __Iter$[ebp]

; 395  : 	}

  00006	5d		 pop	 ebp
  00007	c3		 ret	 0
??$_Unchecked@V?$_Vector_val@PAVQuestData@@V?$allocator@PAVQuestData@@@std@@@std@@@std@@YAPAPAVQuestData@@V?$_Vector_iterator@V?$_Vector_val@PAVQuestData@@V?$allocator@PAVQuestData@@@std@@@std@@@0@@Z ENDP ; std::_Unchecked<std::_Vector_val<QuestData *,std::allocator<QuestData *> > >
_TEXT	ENDS
PUBLIC	??$_Unchecked@V?$_Vector_val@PAVQuestCompleteData@@V?$allocator@PAVQuestCompleteData@@@std@@@std@@@std@@YAPAPAVQuestCompleteData@@V?$_Vector_iterator@V?$_Vector_val@PAVQuestCompleteData@@V?$allocator@PAVQuestCompleteData@@@std@@@std@@@0@@Z ; std::_Unchecked<std::_Vector_val<QuestCompleteData *,std::allocator<QuestCompleteData *> > >
; Function compile flags: /Ogsp
;	COMDAT ??$_Unchecked@V?$_Vector_val@PAVQuestCompleteData@@V?$allocator@PAVQuestCompleteData@@@std@@@std@@@std@@YAPAPAVQuestCompleteData@@V?$_Vector_iterator@V?$_Vector_val@PAVQuestCompleteData@@V?$allocator@PAVQuestCompleteData@@@std@@@std@@@0@@Z
_TEXT	SEGMENT
__Iter$ = 8						; size = 4
??$_Unchecked@V?$_Vector_val@PAVQuestCompleteData@@V?$allocator@PAVQuestCompleteData@@@std@@@std@@@std@@YAPAPAVQuestCompleteData@@V?$_Vector_iterator@V?$_Vector_val@PAVQuestCompleteData@@V?$allocator@PAVQuestCompleteData@@@std@@@std@@@0@@Z PROC ; std::_Unchecked<std::_Vector_val<QuestCompleteData *,std::allocator<QuestCompleteData *> > >, COMDAT

; 393  : 	{	// convert to unchecked

  00000	55		 push	 ebp
  00001	8b ec		 mov	 ebp, esp

; 394  : 	return (_Iter._Unchecked());

  00003	8b 45 08	 mov	 eax, DWORD PTR __Iter$[ebp]

; 395  : 	}

  00006	5d		 pop	 ebp
  00007	c3		 ret	 0
??$_Unchecked@V?$_Vector_val@PAVQuestCompleteData@@V?$allocator@PAVQuestCompleteData@@@std@@@std@@@std@@YAPAPAVQuestCompleteData@@V?$_Vector_iterator@V?$_Vector_val@PAVQuestCompleteData@@V?$allocator@PAVQuestCompleteData@@@std@@@std@@@0@@Z ENDP ; std::_Unchecked<std::_Vector_val<QuestCompleteData *,std::allocator<QuestCompleteData *> > >
_TEXT	ENDS
PUBLIC	??Y?$_Vector_iterator@V?$_Vector_val@PAVQuestData@@V?$allocator@PAVQuestData@@@std@@@std@@@std@@QAEAAV01@H@Z ; std::_Vector_iterator<std::_Vector_val<QuestData *,std::allocator<QuestData *> > >::operator+=
; Function compile flags: /Ogsp
;	COMDAT ??Y?$_Vector_iterator@V?$_Vector_val@PAVQuestData@@V?$allocator@PAVQuestData@@@std@@@std@@@std@@QAEAAV01@H@Z
_TEXT	SEGMENT
__Off$ = 8						; size = 4
??Y?$_Vector_iterator@V?$_Vector_val@PAVQuestData@@V?$allocator@PAVQuestData@@@std@@@std@@@std@@QAEAAV01@H@Z PROC ; std::_Vector_iterator<std::_Vector_val<QuestData *,std::allocator<QuestData *> > >::operator+=, COMDAT
; _this$ = ecx

; 357  : 		{	// increment by integer

  00000	55		 push	 ebp
  00001	8b ec		 mov	 ebp, esp
  00003	8b c1		 mov	 eax, ecx

; 358  : 		*(_Mybase *)this += _Off;

  00005	8b 4d 08	 mov	 ecx, DWORD PTR __Off$[ebp]
  00008	c1 e1 02	 shl	 ecx, 2
  0000b	01 08		 add	 DWORD PTR [eax], ecx

; 359  : 		return (*this);
; 360  : 		}

  0000d	5d		 pop	 ebp
  0000e	c2 04 00	 ret	 4
??Y?$_Vector_iterator@V?$_Vector_val@PAVQuestData@@V?$allocator@PAVQuestData@@@std@@@std@@@std@@QAEAAV01@H@Z ENDP ; std::_Vector_iterator<std::_Vector_val<QuestData *,std::allocator<QuestData *> > >::operator+=
_TEXT	ENDS
PUBLIC	??Z?$_Vector_iterator@V?$_Vector_val@PAVQuestData@@V?$allocator@PAVQuestData@@@std@@@std@@@std@@QAEAAV01@H@Z ; std::_Vector_iterator<std::_Vector_val<QuestData *,std::allocator<QuestData *> > >::operator-=
; Function compile flags: /Ogsp
;	COMDAT ??Z?$_Vector_iterator@V?$_Vector_val@PAVQuestData@@V?$allocator@PAVQuestData@@@std@@@std@@@std@@QAEAAV01@H@Z
_TEXT	SEGMENT
__Off$ = 8						; size = 4
??Z?$_Vector_iterator@V?$_Vector_val@PAVQuestData@@V?$allocator@PAVQuestData@@@std@@@std@@@std@@QAEAAV01@H@Z PROC ; std::_Vector_iterator<std::_Vector_val<QuestData *,std::allocator<QuestData *> > >::operator-=, COMDAT
; _this$ = ecx

; 369  : 		{	// decrement by integer

  00000	55		 push	 ebp
  00001	8b ec		 mov	 ebp, esp
  00003	8b c1		 mov	 eax, ecx

; 370  : 		return (*this += -_Off);

  00005	8b 4d 08	 mov	 ecx, DWORD PTR __Off$[ebp]
  00008	6b c9 fc	 imul	 ecx, -4			; fffffffcH
  0000b	01 08		 add	 DWORD PTR [eax], ecx

; 371  : 		}

  0000d	5d		 pop	 ebp
  0000e	c2 04 00	 ret	 4
??Z?$_Vector_iterator@V?$_Vector_val@PAVQuestData@@V?$allocator@PAVQuestData@@@std@@@std@@@std@@QAEAAV01@H@Z ENDP ; std::_Vector_iterator<std::_Vector_val<QuestData *,std::allocator<QuestData *> > >::operator-=
_TEXT	ENDS
PUBLIC	??Y?$_Vector_iterator@V?$_Vector_val@PAVQuestCompleteData@@V?$allocator@PAVQuestCompleteData@@@std@@@std@@@std@@QAEAAV01@H@Z ; std::_Vector_iterator<std::_Vector_val<QuestCompleteData *,std::allocator<QuestCompleteData *> > >::operator+=
; Function compile flags: /Ogsp
;	COMDAT ??Y?$_Vector_iterator@V?$_Vector_val@PAVQuestCompleteData@@V?$allocator@PAVQuestCompleteData@@@std@@@std@@@std@@QAEAAV01@H@Z
_TEXT	SEGMENT
__Off$ = 8						; size = 4
??Y?$_Vector_iterator@V?$_Vector_val@PAVQuestCompleteData@@V?$allocator@PAVQuestCompleteData@@@std@@@std@@@std@@QAEAAV01@H@Z PROC ; std::_Vector_iterator<std::_Vector_val<QuestCompleteData *,std::allocator<QuestCompleteData *> > >::operator+=, COMDAT
; _this$ = ecx

; 357  : 		{	// increment by integer

  00000	55		 push	 ebp
  00001	8b ec		 mov	 ebp, esp
  00003	8b c1		 mov	 eax, ecx

; 358  : 		*(_Mybase *)this += _Off;

  00005	8b 4d 08	 mov	 ecx, DWORD PTR __Off$[ebp]
  00008	c1 e1 02	 shl	 ecx, 2
  0000b	01 08		 add	 DWORD PTR [eax], ecx

; 359  : 		return (*this);
; 360  : 		}

  0000d	5d		 pop	 ebp
  0000e	c2 04 00	 ret	 4
??Y?$_Vector_iterator@V?$_Vector_val@PAVQuestCompleteData@@V?$allocator@PAVQuestCompleteData@@@std@@@std@@@std@@QAEAAV01@H@Z ENDP ; std::_Vector_iterator<std::_Vector_val<QuestCompleteData *,std::allocator<QuestCompleteData *> > >::operator+=
_TEXT	ENDS
PUBLIC	??Z?$_Vector_iterator@V?$_Vector_val@PAVQuestCompleteData@@V?$allocator@PAVQuestCompleteData@@@std@@@std@@@std@@QAEAAV01@H@Z ; std::_Vector_iterator<std::_Vector_val<QuestCompleteData *,std::allocator<QuestCompleteData *> > >::operator-=
; Function compile flags: /Ogsp
;	COMDAT ??Z?$_Vector_iterator@V?$_Vector_val@PAVQuestCompleteData@@V?$allocator@PAVQuestCompleteData@@@std@@@std@@@std@@QAEAAV01@H@Z
_TEXT	SEGMENT
__Off$ = 8						; size = 4
??Z?$_Vector_iterator@V?$_Vector_val@PAVQuestCompleteData@@V?$allocator@PAVQuestCompleteData@@@std@@@std@@@std@@QAEAAV01@H@Z PROC ; std::_Vector_iterator<std::_Vector_val<QuestCompleteData *,std::allocator<QuestCompleteData *> > >::operator-=, COMDAT
; _this$ = ecx

; 369  : 		{	// decrement by integer

  00000	55		 push	 ebp
  00001	8b ec		 mov	 ebp, esp
  00003	8b c1		 mov	 eax, ecx

; 370  : 		return (*this += -_Off);

  00005	8b 4d 08	 mov	 ecx, DWORD PTR __Off$[ebp]
  00008	6b c9 fc	 imul	 ecx, -4			; fffffffcH
  0000b	01 08		 add	 DWORD PTR [eax], ecx

; 371  : 		}

  0000d	5d		 pop	 ebp
  0000e	c2 04 00	 ret	 4
??Z?$_Vector_iterator@V?$_Vector_val@PAVQuestCompleteData@@V?$allocator@PAVQuestCompleteData@@@std@@@std@@@std@@QAEAAV01@H@Z ENDP ; std::_Vector_iterator<std::_Vector_val<QuestCompleteData *,std::allocator<QuestCompleteData *> > >::operator-=
_TEXT	ENDS
PUBLIC	?max_size@?$vector@PAVQuestData@@V?$allocator@PAVQuestData@@@std@@@std@@QBEIXZ ; std::vector<QuestData *,std::allocator<QuestData *> >::max_size
; Function compile flags: /Ogsp
;	COMDAT ?max_size@?$vector@PAVQuestData@@V?$allocator@PAVQuestData@@@std@@@std@@QBEIXZ
_TEXT	SEGMENT
?max_size@?$vector@PAVQuestData@@V?$allocator@PAVQuestData@@@std@@@std@@QBEIXZ PROC ; std::vector<QuestData *,std::allocator<QuestData *> >::max_size, COMDAT
; _this$ = ecx

; 884  : 		return (this->_Alval.max_size());

  00000	b8 ff ff ff 3f	 mov	 eax, 1073741823		; 3fffffffH

; 885  : 		}

  00005	c3		 ret	 0
?max_size@?$vector@PAVQuestData@@V?$allocator@PAVQuestData@@@std@@@std@@QBEIXZ ENDP ; std::vector<QuestData *,std::allocator<QuestData *> >::max_size
_TEXT	ENDS
PUBLIC	?_Grow_to@?$vector@PAVQuestData@@V?$allocator@PAVQuestData@@@std@@@std@@IBEII@Z ; std::vector<QuestData *,std::allocator<QuestData *> >::_Grow_to
; Function compile flags: /Ogsp
;	COMDAT ?_Grow_to@?$vector@PAVQuestData@@V?$allocator@PAVQuestData@@@std@@@std@@IBEII@Z
_TEXT	SEGMENT
__Count$ = 8						; size = 4
?_Grow_to@?$vector@PAVQuestData@@V?$allocator@PAVQuestData@@@std@@@std@@IBEII@Z PROC ; std::vector<QuestData *,std::allocator<QuestData *> >::_Grow_to, COMDAT
; _this$ = ecx

; 1274 : 		{	// grow by 50% or at least to _Count

  00000	55		 push	 ebp
  00001	8b ec		 mov	 ebp, esp

; 1275 : 		size_type _Capacity = capacity();

  00003	8b 41 08	 mov	 eax, DWORD PTR [ecx+8]
  00006	2b 01		 sub	 eax, DWORD PTR [ecx]

; 1276 : 
; 1277 : 		_Capacity = max_size() - _Capacity / 2 < _Capacity
; 1278 : 			? 0 : _Capacity + _Capacity / 2;	// try to grow by 50%

  00008	ba ff ff ff 3f	 mov	 edx, 1073741823		; 3fffffffH
  0000d	c1 f8 02	 sar	 eax, 2
  00010	8b c8		 mov	 ecx, eax
  00012	d1 e9		 shr	 ecx, 1
  00014	2b d1		 sub	 edx, ecx
  00016	3b d0		 cmp	 edx, eax
  00018	73 04		 jae	 SHORT $LN4@Grow_to
  0001a	33 c0		 xor	 eax, eax
  0001c	eb 02		 jmp	 SHORT $LN5@Grow_to
$LN4@Grow_to:
  0001e	03 c1		 add	 eax, ecx
$LN5@Grow_to:

; 1279 : 		if (_Capacity < _Count)

  00020	3b 45 08	 cmp	 eax, DWORD PTR __Count$[ebp]

; 1280 : 			_Capacity = _Count;

  00023	0f 42 45 08	 cmovb	 eax, DWORD PTR __Count$[ebp]

; 1281 : 		return (_Capacity);
; 1282 : 		}

  00027	5d		 pop	 ebp
  00028	c2 04 00	 ret	 4
?_Grow_to@?$vector@PAVQuestData@@V?$allocator@PAVQuestData@@@std@@@std@@IBEII@Z ENDP ; std::vector<QuestData *,std::allocator<QuestData *> >::_Grow_to
_TEXT	ENDS
PUBLIC	?max_size@?$vector@PAVQuestCompleteData@@V?$allocator@PAVQuestCompleteData@@@std@@@std@@QBEIXZ ; std::vector<QuestCompleteData *,std::allocator<QuestCompleteData *> >::max_size
; Function compile flags: /Ogsp
;	COMDAT ?max_size@?$vector@PAVQuestCompleteData@@V?$allocator@PAVQuestCompleteData@@@std@@@std@@QBEIXZ
_TEXT	SEGMENT
?max_size@?$vector@PAVQuestCompleteData@@V?$allocator@PAVQuestCompleteData@@@std@@@std@@QBEIXZ PROC ; std::vector<QuestCompleteData *,std::allocator<QuestCompleteData *> >::max_size, COMDAT
; _this$ = ecx

; 884  : 		return (this->_Alval.max_size());

  00000	b8 ff ff ff 3f	 mov	 eax, 1073741823		; 3fffffffH

; 885  : 		}

  00005	c3		 ret	 0
?max_size@?$vector@PAVQuestCompleteData@@V?$allocator@PAVQuestCompleteData@@@std@@@std@@QBEIXZ ENDP ; std::vector<QuestCompleteData *,std::allocator<QuestCompleteData *> >::max_size
_TEXT	ENDS
PUBLIC	?_Grow_to@?$vector@PAVQuestCompleteData@@V?$allocator@PAVQuestCompleteData@@@std@@@std@@IBEII@Z ; std::vector<QuestCompleteData *,std::allocator<QuestCompleteData *> >::_Grow_to
; Function compile flags: /Ogsp
;	COMDAT ?_Grow_to@?$vector@PAVQuestCompleteData@@V?$allocator@PAVQuestCompleteData@@@std@@@std@@IBEII@Z
_TEXT	SEGMENT
__Count$ = 8						; size = 4
?_Grow_to@?$vector@PAVQuestCompleteData@@V?$allocator@PAVQuestCompleteData@@@std@@@std@@IBEII@Z PROC ; std::vector<QuestCompleteData *,std::allocator<QuestCompleteData *> >::_Grow_to, COMDAT
; _this$ = ecx

; 1274 : 		{	// grow by 50% or at least to _Count

  00000	55		 push	 ebp
  00001	8b ec		 mov	 ebp, esp

; 1275 : 		size_type _Capacity = capacity();

  00003	8b 41 08	 mov	 eax, DWORD PTR [ecx+8]
  00006	2b 01		 sub	 eax, DWORD PTR [ecx]

; 1276 : 
; 1277 : 		_Capacity = max_size() - _Capacity / 2 < _Capacity
; 1278 : 			? 0 : _Capacity + _Capacity / 2;	// try to grow by 50%

  00008	ba ff ff ff 3f	 mov	 edx, 1073741823		; 3fffffffH
  0000d	c1 f8 02	 sar	 eax, 2
  00010	8b c8		 mov	 ecx, eax
  00012	d1 e9		 shr	 ecx, 1
  00014	2b d1		 sub	 edx, ecx
  00016	3b d0		 cmp	 edx, eax
  00018	73 04		 jae	 SHORT $LN4@Grow_to@2
  0001a	33 c0		 xor	 eax, eax
  0001c	eb 02		 jmp	 SHORT $LN5@Grow_to@2
$LN4@Grow_to@2:
  0001e	03 c1		 add	 eax, ecx
$LN5@Grow_to@2:

; 1279 : 		if (_Capacity < _Count)

  00020	3b 45 08	 cmp	 eax, DWORD PTR __Count$[ebp]

; 1280 : 			_Capacity = _Count;

  00023	0f 42 45 08	 cmovb	 eax, DWORD PTR __Count$[ebp]

; 1281 : 		return (_Capacity);
; 1282 : 		}

  00027	5d		 pop	 ebp
  00028	c2 04 00	 ret	 4
?_Grow_to@?$vector@PAVQuestCompleteData@@V?$allocator@PAVQuestCompleteData@@@std@@@std@@IBEII@Z ENDP ; std::vector<QuestCompleteData *,std::allocator<QuestCompleteData *> >::_Grow_to
_TEXT	ENDS
PUBLIC	?allocate@?$allocator@PAVQuestData@@@std@@QAEPAPAVQuestData@@I@Z ; std::allocator<QuestData *>::allocate
; Function compile flags: /Ogsp
; File c:\program files (x86)\microsoft visual studio 10.0\vc\include\xmemory
;	COMDAT ?allocate@?$allocator@PAVQuestData@@@std@@QAEPAPAVQuestData@@I@Z
_TEXT	SEGMENT
__Count$ = 8						; size = 4
?allocate@?$allocator@PAVQuestData@@@std@@QAEPAPAVQuestData@@I@Z PROC ; std::allocator<QuestData *>::allocate, COMDAT
; _this$ = ecx

; 186  : 		{	// allocate array of _Count elements

  00000	55		 push	 ebp
  00001	8b ec		 mov	 ebp, esp

; 187  : 		return (_Allocate(_Count, (pointer)0));

  00003	6a 00		 push	 0
  00005	ff 75 08	 push	 DWORD PTR __Count$[ebp]
  00008	e8 00 00 00 00	 call	 ??$_Allocate@PAVQuestData@@@std@@YAPAPAVQuestData@@IPAPAV1@@Z ; std::_Allocate<QuestData *>
  0000d	59		 pop	 ecx
  0000e	59		 pop	 ecx

; 188  : 		}

  0000f	5d		 pop	 ebp
  00010	c2 04 00	 ret	 4
?allocate@?$allocator@PAVQuestData@@@std@@QAEPAPAVQuestData@@I@Z ENDP ; std::allocator<QuestData *>::allocate
_TEXT	ENDS
PUBLIC	?allocate@?$allocator@PAVQuestCompleteData@@@std@@QAEPAPAVQuestCompleteData@@I@Z ; std::allocator<QuestCompleteData *>::allocate
; Function compile flags: /Ogsp
;	COMDAT ?allocate@?$allocator@PAVQuestCompleteData@@@std@@QAEPAPAVQuestCompleteData@@I@Z
_TEXT	SEGMENT
__Count$ = 8						; size = 4
?allocate@?$allocator@PAVQuestCompleteData@@@std@@QAEPAPAVQuestCompleteData@@I@Z PROC ; std::allocator<QuestCompleteData *>::allocate, COMDAT
; _this$ = ecx

; 186  : 		{	// allocate array of _Count elements

  00000	55		 push	 ebp
  00001	8b ec		 mov	 ebp, esp

; 187  : 		return (_Allocate(_Count, (pointer)0));

  00003	6a 00		 push	 0
  00005	ff 75 08	 push	 DWORD PTR __Count$[ebp]
  00008	e8 00 00 00 00	 call	 ??$_Allocate@PAVQuestCompleteData@@@std@@YAPAPAVQuestCompleteData@@IPAPAV1@@Z ; std::_Allocate<QuestCompleteData *>
  0000d	59		 pop	 ecx
  0000e	59		 pop	 ecx

; 188  : 		}

  0000f	5d		 pop	 ebp
  00010	c2 04 00	 ret	 4
?allocate@?$allocator@PAVQuestCompleteData@@@std@@QAEPAPAVQuestCompleteData@@I@Z ENDP ; std::allocator<QuestCompleteData *>::allocate
_TEXT	ENDS
PUBLIC	??$?0AAPAPAVQuestData@@AAPAPAV0@@?$pair@PAPAVQuestData@@PAPAV1@@std@@QAE@AAPAPAVQuestData@@0@Z ; std::pair<QuestData * *,QuestData * *>::pair<QuestData * *,QuestData * *><QuestData * * &,QuestData * * &>
; Function compile flags: /Ogsp
; File c:\program files (x86)\microsoft visual studio 10.0\vc\include\utility
;	COMDAT ??$?0AAPAPAVQuestData@@AAPAPAV0@@?$pair@PAPAVQuestData@@PAPAV1@@std@@QAE@AAPAPAVQuestData@@0@Z
_TEXT	SEGMENT
__Val1$ = 8						; size = 4
__Val2$ = 12						; size = 4
??$?0AAPAPAVQuestData@@AAPAPAV0@@?$pair@PAPAVQuestData@@PAPAV1@@std@@QAE@AAPAPAVQuestData@@0@Z PROC ; std::pair<QuestData * *,QuestData * *>::pair<QuestData * *,QuestData * *><QuestData * * &,QuestData * * &>, COMDAT
; _this$ = ecx

; 247  : 		{	// construct from moved values

  00000	55		 push	 ebp
  00001	8b ec		 mov	 ebp, esp
  00003	8b c1		 mov	 eax, ecx
  00005	8b 4d 08	 mov	 ecx, DWORD PTR __Val1$[ebp]
  00008	8b 09		 mov	 ecx, DWORD PTR [ecx]
  0000a	89 08		 mov	 DWORD PTR [eax], ecx
  0000c	8b 4d 0c	 mov	 ecx, DWORD PTR __Val2$[ebp]
  0000f	8b 09		 mov	 ecx, DWORD PTR [ecx]
  00011	89 48 04	 mov	 DWORD PTR [eax+4], ecx

; 248  : 		}

  00014	5d		 pop	 ebp
  00015	c2 08 00	 ret	 8
??$?0AAPAPAVQuestData@@AAPAPAV0@@?$pair@PAPAVQuestData@@PAPAV1@@std@@QAE@AAPAPAVQuestData@@0@Z ENDP ; std::pair<QuestData * *,QuestData * *>::pair<QuestData * *,QuestData * *><QuestData * * &,QuestData * * &>
_TEXT	ENDS
PUBLIC	??$_Cons_val@V?$allocator@PAVQuestData@@@std@@PAVQuestData@@AAPAV3@@std@@YAXAAV?$allocator@PAVQuestData@@@0@PAPAVQuestData@@AAPAV2@@Z ; std::_Cons_val<std::allocator<QuestData *>,QuestData *,QuestData * &>
; Function compile flags: /Ogsp
; File c:\program files (x86)\microsoft visual studio 10.0\vc\include\xmemory
;	COMDAT ??$_Cons_val@V?$allocator@PAVQuestData@@@std@@PAVQuestData@@AAPAV3@@std@@YAXAAV?$allocator@PAVQuestData@@@0@PAPAVQuestData@@AAPAV2@@Z
_TEXT	SEGMENT
__Alval$ = 8						; size = 4
__Pdest$ = 12						; size = 4
__Src$ = 16						; size = 4
??$_Cons_val@V?$allocator@PAVQuestData@@@std@@PAVQuestData@@AAPAV3@@std@@YAXAAV?$allocator@PAVQuestData@@@0@PAPAVQuestData@@AAPAV2@@Z PROC ; std::_Cons_val<std::allocator<QuestData *>,QuestData *,QuestData * &>, COMDAT

; 279  : 	{	// construct using allocator

  00000	55		 push	 ebp
  00001	8b ec		 mov	 ebp, esp

; 280  : 	_Alval.construct(_Pdest, _STD forward<_Ty2>(_Src));

  00003	8b 45 0c	 mov	 eax, DWORD PTR __Pdest$[ebp]
  00006	85 c0		 test	 eax, eax
  00008	74 07		 je	 SHORT $LN7@Cons_val
  0000a	8b 4d 10	 mov	 ecx, DWORD PTR __Src$[ebp]
  0000d	8b 09		 mov	 ecx, DWORD PTR [ecx]
  0000f	89 08		 mov	 DWORD PTR [eax], ecx
$LN7@Cons_val:

; 281  : 	}

  00011	5d		 pop	 ebp
  00012	c3		 ret	 0
??$_Cons_val@V?$allocator@PAVQuestData@@@std@@PAVQuestData@@AAPAV3@@std@@YAXAAV?$allocator@PAVQuestData@@@0@PAPAVQuestData@@AAPAV2@@Z ENDP ; std::_Cons_val<std::allocator<QuestData *>,QuestData *,QuestData * &>
_TEXT	ENDS
PUBLIC	??$?0AAPAPAVQuestCompleteData@@AAPAPAV0@@?$pair@PAPAVQuestCompleteData@@PAPAV1@@std@@QAE@AAPAPAVQuestCompleteData@@0@Z ; std::pair<QuestCompleteData * *,QuestCompleteData * *>::pair<QuestCompleteData * *,QuestCompleteData * *><QuestCompleteData * * &,QuestCompleteData * * &>
; Function compile flags: /Ogsp
; File c:\program files (x86)\microsoft visual studio 10.0\vc\include\utility
;	COMDAT ??$?0AAPAPAVQuestCompleteData@@AAPAPAV0@@?$pair@PAPAVQuestCompleteData@@PAPAV1@@std@@QAE@AAPAPAVQuestCompleteData@@0@Z
_TEXT	SEGMENT
__Val1$ = 8						; size = 4
__Val2$ = 12						; size = 4
??$?0AAPAPAVQuestCompleteData@@AAPAPAV0@@?$pair@PAPAVQuestCompleteData@@PAPAV1@@std@@QAE@AAPAPAVQuestCompleteData@@0@Z PROC ; std::pair<QuestCompleteData * *,QuestCompleteData * *>::pair<QuestCompleteData * *,QuestCompleteData * *><QuestCompleteData * * &,QuestCompleteData * * &>, COMDAT
; _this$ = ecx

; 247  : 		{	// construct from moved values

  00000	55		 push	 ebp
  00001	8b ec		 mov	 ebp, esp
  00003	8b c1		 mov	 eax, ecx
  00005	8b 4d 08	 mov	 ecx, DWORD PTR __Val1$[ebp]
  00008	8b 09		 mov	 ecx, DWORD PTR [ecx]
  0000a	89 08		 mov	 DWORD PTR [eax], ecx
  0000c	8b 4d 0c	 mov	 ecx, DWORD PTR __Val2$[ebp]
  0000f	8b 09		 mov	 ecx, DWORD PTR [ecx]
  00011	89 48 04	 mov	 DWORD PTR [eax+4], ecx

; 248  : 		}

  00014	5d		 pop	 ebp
  00015	c2 08 00	 ret	 8
??$?0AAPAPAVQuestCompleteData@@AAPAPAV0@@?$pair@PAPAVQuestCompleteData@@PAPAV1@@std@@QAE@AAPAPAVQuestCompleteData@@0@Z ENDP ; std::pair<QuestCompleteData * *,QuestCompleteData * *>::pair<QuestCompleteData * *,QuestCompleteData * *><QuestCompleteData * * &,QuestCompleteData * * &>
_TEXT	ENDS
PUBLIC	??$_Cons_val@V?$allocator@PAVQuestCompleteData@@@std@@PAVQuestCompleteData@@AAPAV3@@std@@YAXAAV?$allocator@PAVQuestCompleteData@@@0@PAPAVQuestCompleteData@@AAPAV2@@Z ; std::_Cons_val<std::allocator<QuestCompleteData *>,QuestCompleteData *,QuestCompleteData * &>
; Function compile flags: /Ogsp
; File c:\program files (x86)\microsoft visual studio 10.0\vc\include\xmemory
;	COMDAT ??$_Cons_val@V?$allocator@PAVQuestCompleteData@@@std@@PAVQuestCompleteData@@AAPAV3@@std@@YAXAAV?$allocator@PAVQuestCompleteData@@@0@PAPAVQuestCompleteData@@AAPAV2@@Z
_TEXT	SEGMENT
__Alval$ = 8						; size = 4
__Pdest$ = 12						; size = 4
__Src$ = 16						; size = 4
??$_Cons_val@V?$allocator@PAVQuestCompleteData@@@std@@PAVQuestCompleteData@@AAPAV3@@std@@YAXAAV?$allocator@PAVQuestCompleteData@@@0@PAPAVQuestCompleteData@@AAPAV2@@Z PROC ; std::_Cons_val<std::allocator<QuestCompleteData *>,QuestCompleteData *,QuestCompleteData * &>, COMDAT

; 279  : 	{	// construct using allocator

  00000	55		 push	 ebp
  00001	8b ec		 mov	 ebp, esp

; 280  : 	_Alval.construct(_Pdest, _STD forward<_Ty2>(_Src));

  00003	8b 45 0c	 mov	 eax, DWORD PTR __Pdest$[ebp]
  00006	85 c0		 test	 eax, eax
  00008	74 07		 je	 SHORT $LN7@Cons_val@2
  0000a	8b 4d 10	 mov	 ecx, DWORD PTR __Src$[ebp]
  0000d	8b 09		 mov	 ecx, DWORD PTR [ecx]
  0000f	89 08		 mov	 DWORD PTR [eax], ecx
$LN7@Cons_val@2:

; 281  : 	}

  00011	5d		 pop	 ebp
  00012	c3		 ret	 0
??$_Cons_val@V?$allocator@PAVQuestCompleteData@@@std@@PAVQuestCompleteData@@AAPAV3@@std@@YAXAAV?$allocator@PAVQuestCompleteData@@@0@PAPAVQuestCompleteData@@AAPAV2@@Z ENDP ; std::_Cons_val<std::allocator<QuestCompleteData *>,QuestCompleteData *,QuestCompleteData * &>
_TEXT	ENDS
PUBLIC	??$swap@PAVQuestData@@@std@@YAXAAPAVQuestData@@0@Z ; std::swap<QuestData *>
; Function compile flags: /Ogsp
; File c:\program files (x86)\microsoft visual studio 10.0\vc\include\utility
;	COMDAT ??$swap@PAVQuestData@@@std@@YAXAAPAVQuestData@@0@Z
_TEXT	SEGMENT
__Left$ = 8						; size = 4
__Right$ = 12						; size = 4
??$swap@PAVQuestData@@@std@@YAXAAPAVQuestData@@0@Z PROC	; std::swap<QuestData *>, COMDAT

; 101  : 	{	// exchange values stored at _Left and _Right

  00000	55		 push	 ebp
  00001	8b ec		 mov	 ebp, esp

; 102  : 	_Ty _Tmp = _Move(_Left);
; 103  : 	_Left = _Move(_Right);

  00003	8b 55 0c	 mov	 edx, DWORD PTR __Right$[ebp]
  00006	8b 45 08	 mov	 eax, DWORD PTR __Left$[ebp]
  00009	8b 08		 mov	 ecx, DWORD PTR [eax]
  0000b	56		 push	 esi
  0000c	8b 32		 mov	 esi, DWORD PTR [edx]
  0000e	89 30		 mov	 DWORD PTR [eax], esi

; 104  : 	_Right = _Move(_Tmp);

  00010	89 0a		 mov	 DWORD PTR [edx], ecx
  00012	5e		 pop	 esi

; 105  : 	}

  00013	5d		 pop	 ebp
  00014	c3		 ret	 0
??$swap@PAVQuestData@@@std@@YAXAAPAVQuestData@@0@Z ENDP	; std::swap<QuestData *>
_TEXT	ENDS
PUBLIC	??$_Move_backward@PAPAVQuestData@@PAPAV1@@std@@YAPAPAVQuestData@@PAPAV1@00@Z ; std::_Move_backward<QuestData * *,QuestData * *>
; Function compile flags: /Ogsp
; File c:\program files (x86)\microsoft visual studio 10.0\vc\include\xutility
;	COMDAT ??$_Move_backward@PAPAVQuestData@@PAPAV1@@std@@YAPAPAVQuestData@@PAPAV1@00@Z
_TEXT	SEGMENT
__Cat$509772 = -4					; size = 1
__First$ = 8						; size = 4
__Last$ = 12						; size = 4
__Dest$ = 16						; size = 4
??$_Move_backward@PAPAVQuestData@@PAPAV1@@std@@YAPAPAVQuestData@@PAPAV1@00@Z PROC ; std::_Move_backward<QuestData * *,QuestData * *>, COMDAT

; 2638 : 	{	// move [_First, _Last) backwards to [..., _Dest), unchecked

  00000	55		 push	 ebp
  00001	8b ec		 mov	 ebp, esp
  00003	51		 push	 ecx

; 2639 : 	return (_Move_backward(_First, _Last,
; 2640 : 		_Dest, _Ptr_cat(_First, _Dest)));

  00004	ff 75 fc	 push	 DWORD PTR __Cat$509772[ebp]
  00007	ff 75 10	 push	 DWORD PTR __Dest$[ebp]
  0000a	ff 75 0c	 push	 DWORD PTR __Last$[ebp]
  0000d	ff 75 08	 push	 DWORD PTR __First$[ebp]
  00010	e8 00 00 00 00	 call	 ??$_Move_backward@PAPAVQuestData@@PAPAV1@@std@@YAPAPAVQuestData@@PAPAV1@00U_Scalar_ptr_iterator_tag@0@@Z ; std::_Move_backward<QuestData * *,QuestData * *>
  00015	83 c4 10	 add	 esp, 16			; 00000010H

; 2641 : 	}

  00018	c9		 leave
  00019	c3		 ret	 0
??$_Move_backward@PAPAVQuestData@@PAPAV1@@std@@YAPAPAVQuestData@@PAPAV1@00@Z ENDP ; std::_Move_backward<QuestData * *,QuestData * *>
_TEXT	ENDS
PUBLIC	??$_Distance2@V?$_Vector_iterator@V?$_Vector_val@PAVQuestData@@V?$allocator@PAVQuestData@@@std@@@std@@@std@@H@std@@YAXV?$_Vector_iterator@V?$_Vector_val@PAVQuestData@@V?$allocator@PAVQuestData@@@std@@@std@@@0@0AAHUrandom_access_iterator_tag@0@@Z ; std::_Distance2<std::_Vector_iterator<std::_Vector_val<QuestData *,std::allocator<QuestData *> > >,int>
; Function compile flags: /Ogsp
;	COMDAT ??$_Distance2@V?$_Vector_iterator@V?$_Vector_val@PAVQuestData@@V?$allocator@PAVQuestData@@@std@@@std@@@std@@H@std@@YAXV?$_Vector_iterator@V?$_Vector_val@PAVQuestData@@V?$allocator@PAVQuestData@@@std@@@std@@@0@0AAHUrandom_access_iterator_tag@0@@Z
_TEXT	SEGMENT
__First$ = 8						; size = 4
__Last$ = 12						; size = 4
__Off$ = 16						; size = 4
___formal$ = 20						; size = 1
??$_Distance2@V?$_Vector_iterator@V?$_Vector_val@PAVQuestData@@V?$allocator@PAVQuestData@@@std@@@std@@@std@@H@std@@YAXV?$_Vector_iterator@V?$_Vector_val@PAVQuestData@@V?$allocator@PAVQuestData@@@std@@@std@@@0@0AAHUrandom_access_iterator_tag@0@@Z PROC ; std::_Distance2<std::_Vector_iterator<std::_Vector_val<QuestData *,std::allocator<QuestData *> > >,int>, COMDAT

; 885  : 	{	// add to _Off distance between random-access iterators

  00000	55		 push	 ebp
  00001	8b ec		 mov	 ebp, esp

; 886  :  #if _ITERATOR_DEBUG_LEVEL == 2
; 887  : 	if (_First != _Last)
; 888  : 		{	// check for null pointers
; 889  : 		_DEBUG_POINTER(_First);
; 890  : 		_DEBUG_POINTER(_Last);
; 891  : 		}
; 892  :  #endif /* _ITERATOR_DEBUG_LEVEL == 2 */
; 893  : 
; 894  : 	_Off += _Last - _First;

  00003	8b 4d 0c	 mov	 ecx, DWORD PTR __Last$[ebp]
  00006	2b 4d 08	 sub	 ecx, DWORD PTR __First$[ebp]
  00009	8b 45 10	 mov	 eax, DWORD PTR __Off$[ebp]
  0000c	c1 f9 02	 sar	 ecx, 2
  0000f	01 08		 add	 DWORD PTR [eax], ecx

; 895  : 	}

  00011	5d		 pop	 ebp
  00012	c3		 ret	 0
??$_Distance2@V?$_Vector_iterator@V?$_Vector_val@PAVQuestData@@V?$allocator@PAVQuestData@@@std@@@std@@@std@@H@std@@YAXV?$_Vector_iterator@V?$_Vector_val@PAVQuestData@@V?$allocator@PAVQuestData@@@std@@@std@@@0@0AAHUrandom_access_iterator_tag@0@@Z ENDP ; std::_Distance2<std::_Vector_iterator<std::_Vector_val<QuestData *,std::allocator<QuestData *> > >,int>
_TEXT	ENDS
PUBLIC	??$_Advance@V?$_Vector_iterator@V?$_Vector_val@PAVQuestData@@V?$allocator@PAVQuestData@@@std@@@std@@@std@@H@std@@YAXAAV?$_Vector_iterator@V?$_Vector_val@PAVQuestData@@V?$allocator@PAVQuestData@@@std@@@std@@@0@HUrandom_access_iterator_tag@0@@Z ; std::_Advance<std::_Vector_iterator<std::_Vector_val<QuestData *,std::allocator<QuestData *> > >,int>
; Function compile flags: /Ogsp
;	COMDAT ??$_Advance@V?$_Vector_iterator@V?$_Vector_val@PAVQuestData@@V?$allocator@PAVQuestData@@@std@@@std@@@std@@H@std@@YAXAAV?$_Vector_iterator@V?$_Vector_val@PAVQuestData@@V?$allocator@PAVQuestData@@@std@@@std@@@0@HUrandom_access_iterator_tag@0@@Z
_TEXT	SEGMENT
__Where$ = 8						; size = 4
__Off$ = 12						; size = 4
___formal$ = 16						; size = 1
??$_Advance@V?$_Vector_iterator@V?$_Vector_val@PAVQuestData@@V?$allocator@PAVQuestData@@@std@@@std@@@std@@H@std@@YAXAAV?$_Vector_iterator@V?$_Vector_val@PAVQuestData@@V?$allocator@PAVQuestData@@@std@@@std@@@0@HUrandom_access_iterator_tag@0@@Z PROC ; std::_Advance<std::_Vector_iterator<std::_Vector_val<QuestData *,std::allocator<QuestData *> > >,int>, COMDAT

; 840  : 	{	// increment iterator by offset, random-access iterators

  00000	55		 push	 ebp
  00001	8b ec		 mov	 ebp, esp

; 841  : 	_Where += _Off;

  00003	8b 4d 0c	 mov	 ecx, DWORD PTR __Off$[ebp]
  00006	8b 45 08	 mov	 eax, DWORD PTR __Where$[ebp]
  00009	c1 e1 02	 shl	 ecx, 2
  0000c	01 08		 add	 DWORD PTR [eax], ecx

; 842  : 	}

  0000e	5d		 pop	 ebp
  0000f	c3		 ret	 0
??$_Advance@V?$_Vector_iterator@V?$_Vector_val@PAVQuestData@@V?$allocator@PAVQuestData@@@std@@@std@@@std@@H@std@@YAXAAV?$_Vector_iterator@V?$_Vector_val@PAVQuestData@@V?$allocator@PAVQuestData@@@std@@@std@@@0@HUrandom_access_iterator_tag@0@@Z ENDP ; std::_Advance<std::_Vector_iterator<std::_Vector_val<QuestData *,std::allocator<QuestData *> > >,int>
_TEXT	ENDS
PUBLIC	??$swap@PAVQuestCompleteData@@@std@@YAXAAPAVQuestCompleteData@@0@Z ; std::swap<QuestCompleteData *>
; Function compile flags: /Ogsp
; File c:\program files (x86)\microsoft visual studio 10.0\vc\include\utility
;	COMDAT ??$swap@PAVQuestCompleteData@@@std@@YAXAAPAVQuestCompleteData@@0@Z
_TEXT	SEGMENT
__Left$ = 8						; size = 4
__Right$ = 12						; size = 4
??$swap@PAVQuestCompleteData@@@std@@YAXAAPAVQuestCompleteData@@0@Z PROC ; std::swap<QuestCompleteData *>, COMDAT

; 101  : 	{	// exchange values stored at _Left and _Right

  00000	55		 push	 ebp
  00001	8b ec		 mov	 ebp, esp

; 102  : 	_Ty _Tmp = _Move(_Left);
; 103  : 	_Left = _Move(_Right);

  00003	8b 55 0c	 mov	 edx, DWORD PTR __Right$[ebp]
  00006	8b 45 08	 mov	 eax, DWORD PTR __Left$[ebp]
  00009	8b 08		 mov	 ecx, DWORD PTR [eax]
  0000b	56		 push	 esi
  0000c	8b 32		 mov	 esi, DWORD PTR [edx]
  0000e	89 30		 mov	 DWORD PTR [eax], esi

; 104  : 	_Right = _Move(_Tmp);

  00010	89 0a		 mov	 DWORD PTR [edx], ecx
  00012	5e		 pop	 esi

; 105  : 	}

  00013	5d		 pop	 ebp
  00014	c3		 ret	 0
??$swap@PAVQuestCompleteData@@@std@@YAXAAPAVQuestCompleteData@@0@Z ENDP ; std::swap<QuestCompleteData *>
_TEXT	ENDS
PUBLIC	??$_Move_backward@PAPAVQuestCompleteData@@PAPAV1@@std@@YAPAPAVQuestCompleteData@@PAPAV1@00@Z ; std::_Move_backward<QuestCompleteData * *,QuestCompleteData * *>
; Function compile flags: /Ogsp
; File c:\program files (x86)\microsoft visual studio 10.0\vc\include\xutility
;	COMDAT ??$_Move_backward@PAPAVQuestCompleteData@@PAPAV1@@std@@YAPAPAVQuestCompleteData@@PAPAV1@00@Z
_TEXT	SEGMENT
__Cat$509817 = -4					; size = 1
__First$ = 8						; size = 4
__Last$ = 12						; size = 4
__Dest$ = 16						; size = 4
??$_Move_backward@PAPAVQuestCompleteData@@PAPAV1@@std@@YAPAPAVQuestCompleteData@@PAPAV1@00@Z PROC ; std::_Move_backward<QuestCompleteData * *,QuestCompleteData * *>, COMDAT

; 2638 : 	{	// move [_First, _Last) backwards to [..., _Dest), unchecked

  00000	55		 push	 ebp
  00001	8b ec		 mov	 ebp, esp
  00003	51		 push	 ecx

; 2639 : 	return (_Move_backward(_First, _Last,
; 2640 : 		_Dest, _Ptr_cat(_First, _Dest)));

  00004	ff 75 fc	 push	 DWORD PTR __Cat$509817[ebp]
  00007	ff 75 10	 push	 DWORD PTR __Dest$[ebp]
  0000a	ff 75 0c	 push	 DWORD PTR __Last$[ebp]
  0000d	ff 75 08	 push	 DWORD PTR __First$[ebp]
  00010	e8 00 00 00 00	 call	 ??$_Move_backward@PAPAVQuestCompleteData@@PAPAV1@@std@@YAPAPAVQuestCompleteData@@PAPAV1@00U_Scalar_ptr_iterator_tag@0@@Z ; std::_Move_backward<QuestCompleteData * *,QuestCompleteData * *>
  00015	83 c4 10	 add	 esp, 16			; 00000010H

; 2641 : 	}

  00018	c9		 leave
  00019	c3		 ret	 0
??$_Move_backward@PAPAVQuestCompleteData@@PAPAV1@@std@@YAPAPAVQuestCompleteData@@PAPAV1@00@Z ENDP ; std::_Move_backward<QuestCompleteData * *,QuestCompleteData * *>
_TEXT	ENDS
PUBLIC	??$_Distance2@V?$_Vector_iterator@V?$_Vector_val@PAVQuestCompleteData@@V?$allocator@PAVQuestCompleteData@@@std@@@std@@@std@@H@std@@YAXV?$_Vector_iterator@V?$_Vector_val@PAVQuestCompleteData@@V?$allocator@PAVQuestCompleteData@@@std@@@std@@@0@0AAHUrandom_access_iterator_tag@0@@Z ; std::_Distance2<std::_Vector_iterator<std::_Vector_val<QuestCompleteData *,std::allocator<QuestCompleteData *> > >,int>
; Function compile flags: /Ogsp
;	COMDAT ??$_Distance2@V?$_Vector_iterator@V?$_Vector_val@PAVQuestCompleteData@@V?$allocator@PAVQuestCompleteData@@@std@@@std@@@std@@H@std@@YAXV?$_Vector_iterator@V?$_Vector_val@PAVQuestCompleteData@@V?$allocator@PAVQuestCompleteData@@@std@@@std@@@0@0AAHUrandom_access_iterator_tag@0@@Z
_TEXT	SEGMENT
__First$ = 8						; size = 4
__Last$ = 12						; size = 4
__Off$ = 16						; size = 4
___formal$ = 20						; size = 1
??$_Distance2@V?$_Vector_iterator@V?$_Vector_val@PAVQuestCompleteData@@V?$allocator@PAVQuestCompleteData@@@std@@@std@@@std@@H@std@@YAXV?$_Vector_iterator@V?$_Vector_val@PAVQuestCompleteData@@V?$allocator@PAVQuestCompleteData@@@std@@@std@@@0@0AAHUrandom_access_iterator_tag@0@@Z PROC ; std::_Distance2<std::_Vector_iterator<std::_Vector_val<QuestCompleteData *,std::allocator<QuestCompleteData *> > >,int>, COMDAT

; 885  : 	{	// add to _Off distance between random-access iterators

  00000	55		 push	 ebp
  00001	8b ec		 mov	 ebp, esp

; 886  :  #if _ITERATOR_DEBUG_LEVEL == 2
; 887  : 	if (_First != _Last)
; 888  : 		{	// check for null pointers
; 889  : 		_DEBUG_POINTER(_First);
; 890  : 		_DEBUG_POINTER(_Last);
; 891  : 		}
; 892  :  #endif /* _ITERATOR_DEBUG_LEVEL == 2 */
; 893  : 
; 894  : 	_Off += _Last - _First;

  00003	8b 4d 0c	 mov	 ecx, DWORD PTR __Last$[ebp]
  00006	2b 4d 08	 sub	 ecx, DWORD PTR __First$[ebp]
  00009	8b 45 10	 mov	 eax, DWORD PTR __Off$[ebp]
  0000c	c1 f9 02	 sar	 ecx, 2
  0000f	01 08		 add	 DWORD PTR [eax], ecx

; 895  : 	}

  00011	5d		 pop	 ebp
  00012	c3		 ret	 0
??$_Distance2@V?$_Vector_iterator@V?$_Vector_val@PAVQuestCompleteData@@V?$allocator@PAVQuestCompleteData@@@std@@@std@@@std@@H@std@@YAXV?$_Vector_iterator@V?$_Vector_val@PAVQuestCompleteData@@V?$allocator@PAVQuestCompleteData@@@std@@@std@@@0@0AAHUrandom_access_iterator_tag@0@@Z ENDP ; std::_Distance2<std::_Vector_iterator<std::_Vector_val<QuestCompleteData *,std::allocator<QuestCompleteData *> > >,int>
_TEXT	ENDS
PUBLIC	??$_Advance@V?$_Vector_iterator@V?$_Vector_val@PAVQuestCompleteData@@V?$allocator@PAVQuestCompleteData@@@std@@@std@@@std@@H@std@@YAXAAV?$_Vector_iterator@V?$_Vector_val@PAVQuestCompleteData@@V?$allocator@PAVQuestCompleteData@@@std@@@std@@@0@HUrandom_access_iterator_tag@0@@Z ; std::_Advance<std::_Vector_iterator<std::_Vector_val<QuestCompleteData *,std::allocator<QuestCompleteData *> > >,int>
; Function compile flags: /Ogsp
;	COMDAT ??$_Advance@V?$_Vector_iterator@V?$_Vector_val@PAVQuestCompleteData@@V?$allocator@PAVQuestCompleteData@@@std@@@std@@@std@@H@std@@YAXAAV?$_Vector_iterator@V?$_Vector_val@PAVQuestCompleteData@@V?$allocator@PAVQuestCompleteData@@@std@@@std@@@0@HUrandom_access_iterator_tag@0@@Z
_TEXT	SEGMENT
__Where$ = 8						; size = 4
__Off$ = 12						; size = 4
___formal$ = 16						; size = 1
??$_Advance@V?$_Vector_iterator@V?$_Vector_val@PAVQuestCompleteData@@V?$allocator@PAVQuestCompleteData@@@std@@@std@@@std@@H@std@@YAXAAV?$_Vector_iterator@V?$_Vector_val@PAVQuestCompleteData@@V?$allocator@PAVQuestCompleteData@@@std@@@std@@@0@HUrandom_access_iterator_tag@0@@Z PROC ; std::_Advance<std::_Vector_iterator<std::_Vector_val<QuestCompleteData *,std::allocator<QuestCompleteData *> > >,int>, COMDAT

; 840  : 	{	// increment iterator by offset, random-access iterators

  00000	55		 push	 ebp
  00001	8b ec		 mov	 ebp, esp

; 841  : 	_Where += _Off;

  00003	8b 4d 0c	 mov	 ecx, DWORD PTR __Off$[ebp]
  00006	8b 45 08	 mov	 eax, DWORD PTR __Where$[ebp]
  00009	c1 e1 02	 shl	 ecx, 2
  0000c	01 08		 add	 DWORD PTR [eax], ecx

; 842  : 	}

  0000e	5d		 pop	 ebp
  0000f	c3		 ret	 0
??$_Advance@V?$_Vector_iterator@V?$_Vector_val@PAVQuestCompleteData@@V?$allocator@PAVQuestCompleteData@@@std@@@std@@@std@@H@std@@YAXAAV?$_Vector_iterator@V?$_Vector_val@PAVQuestCompleteData@@V?$allocator@PAVQuestCompleteData@@@std@@@std@@@0@HUrandom_access_iterator_tag@0@@Z ENDP ; std::_Advance<std::_Vector_iterator<std::_Vector_val<QuestCompleteData *,std::allocator<QuestCompleteData *> > >,int>
_TEXT	ENDS
PUBLIC	??$_Uninitialized_move@PAPAVQuestData@@PAPAV1@V?$allocator@PAVQuestData@@@std@@@std@@YAPAPAVQuestData@@PAPAV1@00AAV?$allocator@PAVQuestData@@@0@@Z ; std::_Uninitialized_move<QuestData * *,QuestData * *,std::allocator<QuestData *> >
; Function compile flags: /Ogsp
; File c:\program files (x86)\microsoft visual studio 10.0\vc\include\memory
;	COMDAT ??$_Uninitialized_move@PAPAVQuestData@@PAPAV1@V?$allocator@PAVQuestData@@@std@@@std@@YAPAPAVQuestData@@PAPAV1@00AAV?$allocator@PAVQuestData@@@0@@Z
_TEXT	SEGMENT
__First$ = 8						; size = 4
__Last$ = 12						; size = 4
__Dest$ = 16						; size = 4
__Al$ = 20						; size = 4
??$_Uninitialized_move@PAPAVQuestData@@PAPAV1@V?$allocator@PAVQuestData@@@std@@@std@@YAPAPAVQuestData@@PAPAV1@00AAV?$allocator@PAVQuestData@@@0@@Z PROC ; std::_Uninitialized_move<QuestData * *,QuestData * *,std::allocator<QuestData *> >, COMDAT

; 469  : 	{	// move [_First, _Last) to raw _Dest, using _Al

  00000	55		 push	 ebp
  00001	8b ec		 mov	 ebp, esp
  00003	56		 push	 esi

; 470  : 	return (_Uninit_move(_First, _Last, _Dest, _Al,
; 471  : 		_Val_type(_First), _Ptr_cat(_First, _Dest)));

  00004	8b 75 0c	 mov	 esi, DWORD PTR __Last$[ebp]
  00007	2b 75 08	 sub	 esi, DWORD PTR __First$[ebp]
  0000a	c1 fe 02	 sar	 esi, 2
  0000d	c1 e6 02	 shl	 esi, 2
  00010	56		 push	 esi
  00011	ff 75 08	 push	 DWORD PTR __First$[ebp]
  00014	ff 75 10	 push	 DWORD PTR __Dest$[ebp]
  00017	ff 15 00 00 00
	00		 call	 DWORD PTR __imp__memmove
  0001d	83 c4 0c	 add	 esp, 12			; 0000000cH
  00020	03 c6		 add	 eax, esi
  00022	5e		 pop	 esi

; 472  : 	}

  00023	5d		 pop	 ebp
  00024	c3		 ret	 0
??$_Uninitialized_move@PAPAVQuestData@@PAPAV1@V?$allocator@PAVQuestData@@@std@@@std@@YAPAPAVQuestData@@PAPAV1@00AAV?$allocator@PAVQuestData@@@0@@Z ENDP ; std::_Uninitialized_move<QuestData * *,QuestData * *,std::allocator<QuestData *> >
_TEXT	ENDS
PUBLIC	??$_Uninitialized_move@PAPAVQuestCompleteData@@PAPAV1@V?$allocator@PAVQuestCompleteData@@@std@@@std@@YAPAPAVQuestCompleteData@@PAPAV1@00AAV?$allocator@PAVQuestCompleteData@@@0@@Z ; std::_Uninitialized_move<QuestCompleteData * *,QuestCompleteData * *,std::allocator<QuestCompleteData *> >
; Function compile flags: /Ogsp
;	COMDAT ??$_Uninitialized_move@PAPAVQuestCompleteData@@PAPAV1@V?$allocator@PAVQuestCompleteData@@@std@@@std@@YAPAPAVQuestCompleteData@@PAPAV1@00AAV?$allocator@PAVQuestCompleteData@@@0@@Z
_TEXT	SEGMENT
__First$ = 8						; size = 4
__Last$ = 12						; size = 4
__Dest$ = 16						; size = 4
__Al$ = 20						; size = 4
??$_Uninitialized_move@PAPAVQuestCompleteData@@PAPAV1@V?$allocator@PAVQuestCompleteData@@@std@@@std@@YAPAPAVQuestCompleteData@@PAPAV1@00AAV?$allocator@PAVQuestCompleteData@@@0@@Z PROC ; std::_Uninitialized_move<QuestCompleteData * *,QuestCompleteData * *,std::allocator<QuestCompleteData *> >, COMDAT

; 469  : 	{	// move [_First, _Last) to raw _Dest, using _Al

  00000	55		 push	 ebp
  00001	8b ec		 mov	 ebp, esp
  00003	56		 push	 esi

; 470  : 	return (_Uninit_move(_First, _Last, _Dest, _Al,
; 471  : 		_Val_type(_First), _Ptr_cat(_First, _Dest)));

  00004	8b 75 0c	 mov	 esi, DWORD PTR __Last$[ebp]
  00007	2b 75 08	 sub	 esi, DWORD PTR __First$[ebp]
  0000a	c1 fe 02	 sar	 esi, 2
  0000d	c1 e6 02	 shl	 esi, 2
  00010	56		 push	 esi
  00011	ff 75 08	 push	 DWORD PTR __First$[ebp]
  00014	ff 75 10	 push	 DWORD PTR __Dest$[ebp]
  00017	ff 15 00 00 00
	00		 call	 DWORD PTR __imp__memmove
  0001d	83 c4 0c	 add	 esp, 12			; 0000000cH
  00020	03 c6		 add	 eax, esi
  00022	5e		 pop	 esi

; 472  : 	}

  00023	5d		 pop	 ebp
  00024	c3		 ret	 0
??$_Uninitialized_move@PAPAVQuestCompleteData@@PAPAV1@V?$allocator@PAVQuestCompleteData@@@std@@@std@@YAPAPAVQuestCompleteData@@PAPAV1@00AAV?$allocator@PAVQuestCompleteData@@@0@@Z ENDP ; std::_Uninitialized_move<QuestCompleteData * *,QuestCompleteData * *,std::allocator<QuestCompleteData *> >
_TEXT	ENDS
PUBLIC	??RQuestDataSort@@QBE_NPBVQuestData@@0@Z	; QuestDataSort::operator()
; Function compile flags: /Ogsp
; File d:\lost saga for developer\youtube\tutorial\source\src\lsclient\ioquest.h
;	COMDAT ??RQuestDataSort@@QBE_NPBVQuestData@@0@Z
_TEXT	SEGMENT
_lhs$ = 8						; size = 4
_rhs$ = 12						; size = 4
??RQuestDataSort@@QBE_NPBVQuestData@@0@Z PROC		; QuestDataSort::operator(), COMDAT
; _this$ = ecx

; 100  : 	{

  00000	55		 push	 ebp
  00001	8b ec		 mov	 ebp, esp

; 101  : 		if( !lhs || !rhs )

  00003	8b 4d 08	 mov	 ecx, DWORD PTR _lhs$[ebp]
  00006	53		 push	 ebx
  00007	56		 push	 esi
  00008	85 c9		 test	 ecx, ecx
  0000a	74 51		 je	 SHORT $LN5@operator
  0000c	8b 5d 0c	 mov	 ebx, DWORD PTR _rhs$[ebp]
  0000f	85 db		 test	 ebx, ebx
  00011	74 4a		 je	 SHORT $LN5@operator

; 103  : 
; 104  : 		if( lhs->GetPerformType() > rhs->GetPerformType() )

  00013	8b 51 0c	 mov	 edx, DWORD PTR [ecx+12]
  00016	57		 push	 edi
  00017	85 d2		 test	 edx, edx
  00019	75 04		 jne	 SHORT $LN9@operator
  0001b	33 ff		 xor	 edi, edi
  0001d	eb 03		 jmp	 SHORT $LN10@operator
$LN9@operator:
  0001f	8b 7a 14	 mov	 edi, DWORD PTR [edx+20]
$LN10@operator:
  00022	8b 43 0c	 mov	 eax, DWORD PTR [ebx+12]
  00025	85 c0		 test	 eax, eax
  00027	75 04		 jne	 SHORT $LN14@operator
  00029	33 f6		 xor	 esi, esi
  0002b	eb 03		 jmp	 SHORT $LN15@operator
$LN14@operator:
  0002d	8b 70 14	 mov	 esi, DWORD PTR [eax+20]
$LN15@operator:
  00030	3b fe		 cmp	 edi, esi
  00032	5f		 pop	 edi
  00033	7e 04		 jle	 SHORT $LN4@operator
$LN29@operator:

; 105  : 			return true;

  00035	b0 01		 mov	 al, 1
  00037	eb 26		 jmp	 SHORT $LN7@operator
$LN4@operator:

; 106  : 		else if( lhs->GetPerformType() == rhs->GetPerformType() )

  00039	85 d2		 test	 edx, edx
  0003b	74 03		 je	 SHORT $LN20@operator
$LN19@operator:
  0003d	8b 52 14	 mov	 edx, DWORD PTR [edx+20]
$LN20@operator:
  00040	85 c0		 test	 eax, eax
  00042	74 03		 je	 SHORT $LN25@operator
$LN24@operator:
  00044	8b 40 14	 mov	 eax, DWORD PTR [eax+20]
$LN25@operator:
  00047	3b d0		 cmp	 edx, eax
  00049	75 12		 jne	 SHORT $LN5@operator

; 107  : 		{
; 108  : 			if( lhs->GetDateData() > rhs->GetDateData() )

  0004b	8b 01		 mov	 eax, DWORD PTR [ecx]
  0004d	ff 50 04	 call	 DWORD PTR [eax+4]
  00050	8b f0		 mov	 esi, eax
  00052	8b 03		 mov	 eax, DWORD PTR [ebx]
  00054	8b cb		 mov	 ecx, ebx
  00056	ff 50 04	 call	 DWORD PTR [eax+4]
  00059	3b f0		 cmp	 esi, eax

; 109  : 			{
; 110  : 				return true;

  0005b	77 d8		 ja	 SHORT $LN29@operator
$LN5@operator:

; 102  : 			return false;

  0005d	32 c0		 xor	 al, al
$LN7@operator:
  0005f	5e		 pop	 esi
  00060	5b		 pop	 ebx

; 111  : 			}
; 112  : 		}				
; 113  : 		return false;
; 114  : 	}

  00061	5d		 pop	 ebp
  00062	c2 08 00	 ret	 8
??RQuestDataSort@@QBE_NPBVQuestData@@0@Z ENDP		; QuestDataSort::operator()
_TEXT	ENDS
PUBLIC	??RQuestCompleteDataSort@@QBE_NPBVQuestCompleteData@@0@Z ; QuestCompleteDataSort::operator()
; Function compile flags: /Ogsp
;	COMDAT ??RQuestCompleteDataSort@@QBE_NPBVQuestCompleteData@@0@Z
_TEXT	SEGMENT
_lhs$ = 8						; size = 4
_rhs$ = 12						; size = 4
??RQuestCompleteDataSort@@QBE_NPBVQuestCompleteData@@0@Z PROC ; QuestCompleteDataSort::operator(), COMDAT
; _this$ = ecx

; 132  : 	{

  00000	55		 push	 ebp
  00001	8b ec		 mov	 ebp, esp

; 133  : 		if( !lhs || !rhs )

  00003	8b 4d 08	 mov	 ecx, DWORD PTR _lhs$[ebp]
  00006	53		 push	 ebx
  00007	56		 push	 esi
  00008	85 c9		 test	 ecx, ecx
  0000a	74 51		 je	 SHORT $LN5@operator@2
  0000c	8b 5d 0c	 mov	 ebx, DWORD PTR _rhs$[ebp]
  0000f	85 db		 test	 ebx, ebx
  00011	74 4a		 je	 SHORT $LN5@operator@2

; 135  : 
; 136  : 		if( lhs->GetPerformType() > rhs->GetPerformType() )

  00013	8b 51 0c	 mov	 edx, DWORD PTR [ecx+12]
  00016	57		 push	 edi
  00017	85 d2		 test	 edx, edx
  00019	75 04		 jne	 SHORT $LN9@operator@2
  0001b	33 ff		 xor	 edi, edi
  0001d	eb 03		 jmp	 SHORT $LN10@operator@2
$LN9@operator@2:
  0001f	8b 7a 14	 mov	 edi, DWORD PTR [edx+20]
$LN10@operator@2:
  00022	8b 43 0c	 mov	 eax, DWORD PTR [ebx+12]
  00025	85 c0		 test	 eax, eax
  00027	75 04		 jne	 SHORT $LN14@operator@2
  00029	33 f6		 xor	 esi, esi
  0002b	eb 03		 jmp	 SHORT $LN15@operator@2
$LN14@operator@2:
  0002d	8b 70 14	 mov	 esi, DWORD PTR [eax+20]
$LN15@operator@2:
  00030	3b fe		 cmp	 edi, esi
  00032	5f		 pop	 edi
  00033	7e 04		 jle	 SHORT $LN4@operator@2
$LN29@operator@2:

; 137  : 			return true;

  00035	b0 01		 mov	 al, 1
  00037	eb 26		 jmp	 SHORT $LN7@operator@2
$LN4@operator@2:

; 138  : 		else if( lhs->GetPerformType() == rhs->GetPerformType() )

  00039	85 d2		 test	 edx, edx
  0003b	74 03		 je	 SHORT $LN20@operator@2
$LN19@operator@2:
  0003d	8b 52 14	 mov	 edx, DWORD PTR [edx+20]
$LN20@operator@2:
  00040	85 c0		 test	 eax, eax
  00042	74 03		 je	 SHORT $LN25@operator@2
$LN24@operator@2:
  00044	8b 40 14	 mov	 eax, DWORD PTR [eax+20]
$LN25@operator@2:
  00047	3b d0		 cmp	 edx, eax
  00049	75 12		 jne	 SHORT $LN5@operator@2

; 139  : 		{
; 140  : 			if( lhs->GetDateData() > rhs->GetDateData() )

  0004b	8b 01		 mov	 eax, DWORD PTR [ecx]
  0004d	ff 50 04	 call	 DWORD PTR [eax+4]
  00050	8b f0		 mov	 esi, eax
  00052	8b 03		 mov	 eax, DWORD PTR [ebx]
  00054	8b cb		 mov	 ecx, ebx
  00056	ff 50 04	 call	 DWORD PTR [eax+4]
  00059	3b f0		 cmp	 esi, eax

; 141  : 			{
; 142  : 				return true;

  0005b	77 d8		 ja	 SHORT $LN29@operator@2
$LN5@operator@2:

; 134  : 			return false;

  0005d	32 c0		 xor	 al, al
$LN7@operator@2:
  0005f	5e		 pop	 esi
  00060	5b		 pop	 ebx

; 143  : 			}				
; 144  : 		}
; 145  : 		return false;
; 146  : 	}

  00061	5d		 pop	 ebp
  00062	c2 08 00	 ret	 8
??RQuestCompleteDataSort@@QBE_NPBVQuestCompleteData@@0@Z ENDP ; QuestCompleteDataSort::operator()
_TEXT	ENDS
PUBLIC	??0?$CEncrypt@K@@QAE@XZ				; CEncrypt<unsigned long>::CEncrypt<unsigned long>
EXTRN	??0ccddaabb@@QAE@XZ:PROC			; ccddaabb::ccddaabb
;	COMDAT xdata$x
; File d:\lost saga for developer\youtube\tutorial\source\src\lsclient\encryptvalue.h
xdata$x	SEGMENT
__unwindtable$??0?$CEncrypt@K@@QAE@XZ DD 0ffffffffH
	DD	FLAT:__unwindfunclet$??0?$CEncrypt@K@@QAE@XZ$0
__ehfuncinfo$??0?$CEncrypt@K@@QAE@XZ DD 019930522H
	DD	01H
	DD	FLAT:__unwindtable$??0?$CEncrypt@K@@QAE@XZ
	DD	2 DUP(00H)
	DD	2 DUP(00H)
	DD	00H
	DD	01H
; Function compile flags: /Ogsp
xdata$x	ENDS
;	COMDAT ??0?$CEncrypt@K@@QAE@XZ
_TEXT	SEGMENT
_this$ = -16						; size = 4
__$EHRec$ = -12						; size = 12
??0?$CEncrypt@K@@QAE@XZ PROC				; CEncrypt<unsigned long>::CEncrypt<unsigned long>, COMDAT
; _this$ = ecx

; 109  : 	CEncrypt()

  00000	6a 04		 push	 4
  00002	b8 00 00 00 00	 mov	 eax, __ehhandler$??0?$CEncrypt@K@@QAE@XZ
  00007	e8 00 00 00 00	 call	 __EH_prolog3
  0000c	8b f1		 mov	 esi, ecx
  0000e	89 75 f0	 mov	 DWORD PTR _this$[ebp], esi
  00011	8d 4e 0c	 lea	 ecx, DWORD PTR [esi+12]
  00014	c7 06 00 00 00
	00		 mov	 DWORD PTR [esi], OFFSET ??_7?$CEncrypt@K@@6B@
  0001a	e8 00 00 00 00	 call	 ??0ccddaabb@@QAE@XZ	; ccddaabb::ccddaabb
  0001f	83 65 fc 00	 and	 DWORD PTR __$EHRec$[ebp+8], 0

; 110  : 	{
; 111  : 		Init();

  00023	8b ce		 mov	 ecx, esi
  00025	e8 00 00 00 00	 call	 ?Init@?$CEncrypt@K@@AAEXXZ ; CEncrypt<unsigned long>::Init

; 112  : 	}

  0002a	8b c6		 mov	 eax, esi
  0002c	e8 00 00 00 00	 call	 __EH_epilog3
  00031	c3		 ret	 0
_TEXT	ENDS
;	COMDAT text$x
text$x	SEGMENT
__unwindfunclet$??0?$CEncrypt@K@@QAE@XZ$0:
  00000	8b 4d f0	 mov	 ecx, DWORD PTR _this$[ebp]
  00003	83 c1 0c	 add	 ecx, 12			; 0000000cH
  00006	e9 00 00 00 00	 jmp	 ??1ccddaabb@@UAE@XZ	; ccddaabb::~ccddaabb
__ehhandler$??0?$CEncrypt@K@@QAE@XZ:
  0000b	8b 54 24 08	 mov	 edx, DWORD PTR [esp+8]
  0000f	8d 42 0c	 lea	 eax, DWORD PTR [edx+12]
  00012	8b 4a ec	 mov	 ecx, DWORD PTR [edx-20]
  00015	33 c8		 xor	 ecx, eax
  00017	e8 00 00 00 00	 call	 @__security_check_cookie@4
  0001c	b8 00 00 00 00	 mov	 eax, OFFSET __ehfuncinfo$??0?$CEncrypt@K@@QAE@XZ
  00021	e9 00 00 00 00	 jmp	 ___CxxFrameHandler3
text$x	ENDS
??0?$CEncrypt@K@@QAE@XZ ENDP				; CEncrypt<unsigned long>::CEncrypt<unsigned long>
PUBLIC	??B?$CEncrypt@K@@QAEKXZ				; CEncrypt<unsigned long>::operator unsigned long
; Function compile flags: /Ogsp
;	COMDAT ??B?$CEncrypt@K@@QAEKXZ
_TEXT	SEGMENT
_value$ = -4						; size = 4
??B?$CEncrypt@K@@QAEKXZ PROC				; CEncrypt<unsigned long>::operator unsigned long, COMDAT
; _this$ = ecx

; 134  : 	{

  00000	55		 push	 ebp
  00001	8b ec		 mov	 ebp, esp
  00003	51		 push	 ecx

; 135  : 		type value;
; 136  : 		DecryptValueToPool(&value);

  00004	8d 45 fc	 lea	 eax, DWORD PTR _value$[ebp]
  00007	50		 push	 eax
  00008	e8 00 00 00 00	 call	 ?DecryptValueToPool@?$CEncrypt@K@@QAEXPAK@Z ; CEncrypt<unsigned long>::DecryptValueToPool

; 137  : 
; 138  : #ifdef _NOTUSE
; 139  : 		Debug();
; 140  : #endif
; 141  : 		return value;

  0000d	8b 45 fc	 mov	 eax, DWORD PTR _value$[ebp]

; 142  : 	}

  00010	c9		 leave
  00011	c3		 ret	 0
??B?$CEncrypt@K@@QAEKXZ ENDP				; CEncrypt<unsigned long>::operator unsigned long
_TEXT	ENDS
PUBLIC	??B?$CEncrypt@K@@QBEKXZ				; CEncrypt<unsigned long>::operator unsigned long
; Function compile flags: /Ogsp
;	COMDAT ??B?$CEncrypt@K@@QBEKXZ
_TEXT	SEGMENT
_value$ = -4						; size = 4
??B?$CEncrypt@K@@QBEKXZ PROC				; CEncrypt<unsigned long>::operator unsigned long, COMDAT
; _this$ = ecx

; 145  : 	{

  00000	55		 push	 ebp
  00001	8b ec		 mov	 ebp, esp
  00003	51		 push	 ecx

; 146  : 		//UJ 130829, const도 똑같이 하면 된다 --start
; 147  : 		type value;
; 148  : 		CEncrypt<type>* pThis = const_cast<CEncrypt<type>*>(this);
; 149  : 		pThis->DecryptValueToPool(&value);

  00004	8d 45 fc	 lea	 eax, DWORD PTR _value$[ebp]
  00007	50		 push	 eax
  00008	e8 00 00 00 00	 call	 ?DecryptValueToPool@?$CEncrypt@K@@QAEXPAK@Z ; CEncrypt<unsigned long>::DecryptValueToPool

; 150  : 		//// const에서 DecryptValueToPool 사용할 수 없으므로 아래와 같이함.
; 151  :  		//type value;
; 152  : 		//char szTempMem[MAX_ENCRYPT];
; 153  : 		//m_RC5.DecryptByte( m_MemPool, szTempMem, max(m_ValueSize, DEFAULT_ENCRYPT) );
; 154  : 		//memcpy( &value, szTempMem, m_ValueSize );
; 155  : 		//UJ --end
; 156  : 
; 157  : #ifdef _NOTUSE
; 158  : 		Debug();
; 159  : #endif
; 160  : 		return value;

  0000d	8b 45 fc	 mov	 eax, DWORD PTR _value$[ebp]

; 161  : 	}

  00010	c9		 leave
  00011	c3		 ret	 0
??B?$CEncrypt@K@@QBEKXZ ENDP				; CEncrypt<unsigned long>::operator unsigned long
_TEXT	ENDS
PUBLIC	??4?$CEncrypt@K@@QAEKH@Z			; CEncrypt<unsigned long>::operator=
; Function compile flags: /Ogsp
;	COMDAT ??4?$CEncrypt@K@@QAEKH@Z
_TEXT	SEGMENT
_value$ = 8						; size = 4
_inValue$ = 8						; size = 4
??4?$CEncrypt@K@@QAEKH@Z PROC				; CEncrypt<unsigned long>::operator=, COMDAT
; _this$ = ecx

; 843  : 	{

  00000	55		 push	 ebp
  00001	8b ec		 mov	 ebp, esp

; 844  : 		type value = inValue;

  00003	8b 45 08	 mov	 eax, DWORD PTR _inValue$[ebp]
  00006	89 45 08	 mov	 DWORD PTR _value$[ebp], eax

; 845  : 		EncryptValueToPool((char*)&value);

  00009	8d 45 08	 lea	 eax, DWORD PTR _value$[ebp]
  0000c	50		 push	 eax
  0000d	e8 00 00 00 00	 call	 ?EncryptValueToPool@?$CEncrypt@K@@AAEXPBD@Z ; CEncrypt<unsigned long>::EncryptValueToPool

; 846  : #ifdef _NOTUSE
; 847  : 		m_value = inValue;
; 848  : 		Debug();
; 849  : #endif
; 850  : 		return value;

  00012	8b 45 08	 mov	 eax, DWORD PTR _value$[ebp]

; 851  : 	}

  00015	5d		 pop	 ebp
  00016	c2 04 00	 ret	 4
??4?$CEncrypt@K@@QAEKH@Z ENDP				; CEncrypt<unsigned long>::operator=
_TEXT	ENDS
PUBLIC	??4?$CEncrypt@K@@QAEKK@Z			; CEncrypt<unsigned long>::operator=
; Function compile flags: /Ogsp
;	COMDAT ??4?$CEncrypt@K@@QAEKK@Z
_TEXT	SEGMENT
_value$ = 8						; size = 4
_inValue$ = 8						; size = 4
??4?$CEncrypt@K@@QAEKK@Z PROC				; CEncrypt<unsigned long>::operator=, COMDAT
; _this$ = ecx

; 1262 : 	{

  00000	55		 push	 ebp
  00001	8b ec		 mov	 ebp, esp

; 1263 : 		
; 1264 : 		type value = inValue;

  00003	8b 45 08	 mov	 eax, DWORD PTR _inValue$[ebp]
  00006	89 45 08	 mov	 DWORD PTR _value$[ebp], eax

; 1265 : 		EncryptValueToPool((char*)&value);

  00009	8d 45 08	 lea	 eax, DWORD PTR _value$[ebp]
  0000c	50		 push	 eax
  0000d	e8 00 00 00 00	 call	 ?EncryptValueToPool@?$CEncrypt@K@@AAEXPBD@Z ; CEncrypt<unsigned long>::EncryptValueToPool

; 1266 : #ifdef _NOTUSE
; 1267 : 		m_value = inValue;
; 1268 : 		Debug();
; 1269 : #endif
; 1270 : 		return value;

  00012	8b 45 08	 mov	 eax, DWORD PTR _value$[ebp]

; 1271 : 	}

  00015	5d		 pop	 ebp
  00016	c2 04 00	 ret	 4
??4?$CEncrypt@K@@QAEKK@Z ENDP				; CEncrypt<unsigned long>::operator=
_TEXT	ENDS
PUBLIC	??0QuestData@@QAE@XZ				; QuestData::QuestData
;	COMDAT xdata$x
xdata$x	SEGMENT
__unwindtable$??0QuestData@@QAE@XZ DD 0ffffffffH
	DD	FLAT:__unwindfunclet$??0QuestData@@QAE@XZ$0
	DD	00H
	DD	FLAT:__unwindfunclet$??0QuestData@@QAE@XZ$1
__ehfuncinfo$??0QuestData@@QAE@XZ DD 019930522H
	DD	02H
	DD	FLAT:__unwindtable$??0QuestData@@QAE@XZ
	DD	2 DUP(00H)
	DD	2 DUP(00H)
	DD	00H
	DD	01H
; Function compile flags: /Ogsp
; File d:\lost saga for developer\youtube\tutorial\source\src\lsclient\ioquest.cpp
xdata$x	ENDS
;	COMDAT ??0QuestData@@QAE@XZ
_TEXT	SEGMENT
_this$ = -20						; size = 4
_value$509995 = -16					; size = 4
__$EHRec$ = -12						; size = 12
??0QuestData@@QAE@XZ PROC				; QuestData::QuestData, COMDAT
; _this$ = ecx

; 86   : {

  00000	6a 08		 push	 8
  00002	b8 00 00 00 00	 mov	 eax, __ehhandler$??0QuestData@@QAE@XZ
  00007	e8 00 00 00 00	 call	 __EH_prolog3
  0000c	8b f1		 mov	 esi, ecx
  0000e	89 75 ec	 mov	 DWORD PTR _this$[ebp], esi
  00011	33 db		 xor	 ebx, ebx
  00013	89 5e 08	 mov	 DWORD PTR [esi+8], ebx
  00016	89 5e 04	 mov	 DWORD PTR [esi+4], ebx
  00019	89 5e 0c	 mov	 DWORD PTR [esi+12], ebx
  0001c	8d 4e 10	 lea	 ecx, DWORD PTR [esi+16]
  0001f	89 5d fc	 mov	 DWORD PTR __$EHRec$[ebp+8], ebx
  00022	c7 06 00 00 00
	00		 mov	 DWORD PTR [esi], OFFSET ??_7QuestData@@6B@
  00028	e8 00 00 00 00	 call	 ??0?$CEncrypt@K@@QAE@XZ	; CEncrypt<unsigned long>::CEncrypt<unsigned long>

; 87   : 	m_dwValueData = 0;

  0002d	8d 45 f0	 lea	 eax, DWORD PTR _value$509995[ebp]
  00030	50		 push	 eax
  00031	8d 4e 10	 lea	 ecx, DWORD PTR [esi+16]
  00034	c6 45 fc 01	 mov	 BYTE PTR __$EHRec$[ebp+8], 1
  00038	89 5d f0	 mov	 DWORD PTR _value$509995[ebp], ebx
  0003b	e8 00 00 00 00	 call	 ?EncryptValueToPool@?$CEncrypt@K@@AAEXPBD@Z ; CEncrypt<unsigned long>::EncryptValueToPool

; 88   : 	m_dwIndexData = m_dwMagicData = m_dwDateData = 0;

  00040	89 5e 08	 mov	 DWORD PTR [esi+8], ebx
  00043	89 5e 40	 mov	 DWORD PTR [esi+64], ebx
  00046	89 5e 04	 mov	 DWORD PTR [esi+4], ebx

; 89   : 	m_pLinkQuest = NULL;

  00049	89 5e 0c	 mov	 DWORD PTR [esi+12], ebx

; 90   : 	m_bChangeData = false;

  0004c	88 5e 44	 mov	 BYTE PTR [esi+68], bl

; 91   : }

  0004f	8b c6		 mov	 eax, esi
  00051	e8 00 00 00 00	 call	 __EH_epilog3
  00056	c3		 ret	 0
_TEXT	ENDS
;	COMDAT text$x
text$x	SEGMENT
__unwindfunclet$??0QuestData@@QAE@XZ$0:
  00000	8b 4d ec	 mov	 ecx, DWORD PTR _this$[ebp]
  00003	e9 00 00 00 00	 jmp	 ??1QuestDataParent@@UAE@XZ ; QuestDataParent::~QuestDataParent
__unwindfunclet$??0QuestData@@QAE@XZ$1:
  00008	8b 4d ec	 mov	 ecx, DWORD PTR _this$[ebp]
  0000b	83 c1 10	 add	 ecx, 16			; 00000010H
  0000e	e9 00 00 00 00	 jmp	 ??1?$CEncrypt@K@@UAE@XZ	; CEncrypt<unsigned long>::~CEncrypt<unsigned long>
__ehhandler$??0QuestData@@QAE@XZ:
  00013	8b 54 24 08	 mov	 edx, DWORD PTR [esp+8]
  00017	8d 42 0c	 lea	 eax, DWORD PTR [edx+12]
  0001a	8b 4a e8	 mov	 ecx, DWORD PTR [edx-24]
  0001d	33 c8		 xor	 ecx, eax
  0001f	e8 00 00 00 00	 call	 @__security_check_cookie@4
  00024	b8 00 00 00 00	 mov	 eax, OFFSET __ehfuncinfo$??0QuestData@@QAE@XZ
  00029	e9 00 00 00 00	 jmp	 ___CxxFrameHandler3
text$x	ENDS
??0QuestData@@QAE@XZ ENDP				; QuestData::QuestData
; Function compile flags: /Ogsp
;	COMDAT ??_GQuestData@@UAEPAXI@Z
_TEXT	SEGMENT
___flags$ = 8						; size = 4
??_GQuestData@@UAEPAXI@Z PROC				; QuestData::`scalar deleting destructor', COMDAT
; _this$ = ecx
  00000	55		 push	 ebp
  00001	8b ec		 mov	 ebp, esp
  00003	56		 push	 esi
  00004	8b f1		 mov	 esi, ecx
  00006	e8 00 00 00 00	 call	 ??1QuestData@@UAE@XZ	; QuestData::~QuestData
  0000b	f6 45 08 01	 test	 BYTE PTR ___flags$[ebp], 1
  0000f	74 07		 je	 SHORT $LN1@scalar@5
  00011	56		 push	 esi
  00012	e8 00 00 00 00	 call	 ??3@YAXPAX@Z		; operator delete
  00017	59		 pop	 ecx
$LN1@scalar@5:
  00018	8b c6		 mov	 eax, esi
  0001a	5e		 pop	 esi
  0001b	5d		 pop	 ebp
  0001c	c2 04 00	 ret	 4
??_GQuestData@@UAEPAXI@Z ENDP				; QuestData::`scalar deleting destructor'
_TEXT	ENDS
PUBLIC	?GetCurrentData@QuestData@@QAEKXZ		; QuestData::GetCurrentData
; Function compile flags: /Ogsp
;	COMDAT ?GetCurrentData@QuestData@@QAEKXZ
_TEXT	SEGMENT
_value$510009 = -4					; size = 4
?GetCurrentData@QuestData@@QAEKXZ PROC			; QuestData::GetCurrentData, COMDAT
; _this$ = ecx

; 99   : {

  00000	55		 push	 ebp
  00001	8b ec		 mov	 ebp, esp
  00003	51		 push	 ecx

; 100  : 	return m_dwValueData;

  00004	8d 45 fc	 lea	 eax, DWORD PTR _value$510009[ebp]
  00007	50		 push	 eax
  00008	83 c1 10	 add	 ecx, 16			; 00000010H
  0000b	e8 00 00 00 00	 call	 ?DecryptValueToPool@?$CEncrypt@K@@QAEXPAK@Z ; CEncrypt<unsigned long>::DecryptValueToPool
  00010	8b 45 fc	 mov	 eax, DWORD PTR _value$510009[ebp]

; 101  : }

  00013	c9		 leave
  00014	c3		 ret	 0
?GetCurrentData@QuestData@@QAEKXZ ENDP			; QuestData::GetCurrentData
_TEXT	ENDS
PUBLIC	?SetCurrentData@QuestData@@QAEXK@Z		; QuestData::SetCurrentData
; Function compile flags: /Ogsp
;	COMDAT ?SetCurrentData@QuestData@@QAEXK@Z
_TEXT	SEGMENT
_value$510015 = 8					; size = 4
_dwCurrentData$ = 8					; size = 4
?SetCurrentData@QuestData@@QAEXK@Z PROC			; QuestData::SetCurrentData, COMDAT
; _this$ = ecx

; 133  : {

  00000	55		 push	 ebp
  00001	8b ec		 mov	 ebp, esp
  00003	53		 push	 ebx
  00004	56		 push	 esi
  00005	57		 push	 edi
  00006	8b f1		 mov	 esi, ecx

; 134  : 	DWORD dwPrevData = GetCurrentData();

  00008	e8 00 00 00 00	 call	 ?GetCurrentData@QuestData@@QAEKXZ ; QuestData::GetCurrentData

; 135  : 	m_dwValueData = dwCurrentData;

  0000d	8b 7d 08	 mov	 edi, DWORD PTR _dwCurrentData$[ebp]
  00010	8b d8		 mov	 ebx, eax
  00012	8d 45 08	 lea	 eax, DWORD PTR _value$510015[ebp]
  00015	50		 push	 eax
  00016	8d 4e 10	 lea	 ecx, DWORD PTR [esi+16]
  00019	89 7d 08	 mov	 DWORD PTR _value$510015[ebp], edi
  0001c	e8 00 00 00 00	 call	 ?EncryptValueToPool@?$CEncrypt@K@@AAEXPBD@Z ; CEncrypt<unsigned long>::EncryptValueToPool

; 136  : 
; 137  : 	if( dwCurrentData != dwPrevData )

  00021	3b fb		 cmp	 edi, ebx
  00023	74 04		 je	 SHORT $LN1@SetCurrent@2

; 138  : 		m_bChangeData = true;

  00025	c6 46 44 01	 mov	 BYTE PTR [esi+68], 1
$LN1@SetCurrent@2:
  00029	5f		 pop	 edi
  0002a	5e		 pop	 esi
  0002b	5b		 pop	 ebx

; 139  : }

  0002c	5d		 pop	 ebp
  0002d	c2 04 00	 ret	 4
?SetCurrentData@QuestData@@QAEXK@Z ENDP			; QuestData::SetCurrentData
_TEXT	ENDS
PUBLIC	??0?$CEncrypt@K@@QAE@ABV0@@Z			; CEncrypt<unsigned long>::CEncrypt<unsigned long>
;	COMDAT xdata$x
; File d:\lost saga for developer\youtube\tutorial\source\src\lsclient\encryptvalue.h
xdata$x	SEGMENT
__unwindtable$??0?$CEncrypt@K@@QAE@ABV0@@Z DD 0ffffffffH
	DD	FLAT:__unwindfunclet$??0?$CEncrypt@K@@QAE@ABV0@@Z$0
__ehfuncinfo$??0?$CEncrypt@K@@QAE@ABV0@@Z DD 019930522H
	DD	01H
	DD	FLAT:__unwindtable$??0?$CEncrypt@K@@QAE@ABV0@@Z
	DD	2 DUP(00H)
	DD	2 DUP(00H)
	DD	00H
	DD	01H
; Function compile flags: /Ogsp
xdata$x	ENDS
;	COMDAT ??0?$CEncrypt@K@@QAE@ABV0@@Z
_TEXT	SEGMENT
_this$ = -16						; size = 4
__$EHRec$ = -12						; size = 12
_value$510027 = 8					; size = 4
_value$510022 = 8					; size = 4
_inValue$ = 8						; size = 4
??0?$CEncrypt@K@@QAE@ABV0@@Z PROC			; CEncrypt<unsigned long>::CEncrypt<unsigned long>, COMDAT
; _this$ = ecx

; 120  : 	CEncrypt( const CEncrypt<type> &inValue )   // 선언과 동시에 값을 대입하기 위해서

  00000	6a 04		 push	 4
  00002	b8 00 00 00 00	 mov	 eax, __ehhandler$??0?$CEncrypt@K@@QAE@ABV0@@Z
  00007	e8 00 00 00 00	 call	 __EH_prolog3
  0000c	8b f1		 mov	 esi, ecx
  0000e	89 75 f0	 mov	 DWORD PTR _this$[ebp], esi
  00011	8d 4e 0c	 lea	 ecx, DWORD PTR [esi+12]
  00014	c7 06 00 00 00
	00		 mov	 DWORD PTR [esi], OFFSET ??_7?$CEncrypt@K@@6B@
  0001a	e8 00 00 00 00	 call	 ??0ccddaabb@@QAE@XZ	; ccddaabb::ccddaabb
  0001f	83 65 fc 00	 and	 DWORD PTR __$EHRec$[ebp+8], 0

; 121  : 	{
; 122  : 		Init();

  00023	8b ce		 mov	 ecx, esi
  00025	e8 00 00 00 00	 call	 ?Init@?$CEncrypt@K@@AAEXXZ ; CEncrypt<unsigned long>::Init

; 123  : 		*this = inValue;

  0002a	8b 4d 08	 mov	 ecx, DWORD PTR _inValue$[ebp]
  0002d	8d 45 08	 lea	 eax, DWORD PTR _value$510022[ebp]
  00030	50		 push	 eax
  00031	e8 00 00 00 00	 call	 ?DecryptValueToPool@?$CEncrypt@K@@QAEXPAK@Z ; CEncrypt<unsigned long>::DecryptValueToPool
  00036	8b 45 08	 mov	 eax, DWORD PTR _value$510022[ebp]
  00039	89 45 08	 mov	 DWORD PTR _value$510027[ebp], eax
  0003c	8d 45 08	 lea	 eax, DWORD PTR _value$510027[ebp]
  0003f	50		 push	 eax
  00040	8b ce		 mov	 ecx, esi
  00042	e8 00 00 00 00	 call	 ?EncryptValueToPool@?$CEncrypt@K@@AAEXPBD@Z ; CEncrypt<unsigned long>::EncryptValueToPool

; 124  : 	}

  00047	8b c6		 mov	 eax, esi
  00049	e8 00 00 00 00	 call	 __EH_epilog3
  0004e	c2 04 00	 ret	 4
_TEXT	ENDS
;	COMDAT text$x
text$x	SEGMENT
__unwindfunclet$??0?$CEncrypt@K@@QAE@ABV0@@Z$0:
  00000	8b 4d f0	 mov	 ecx, DWORD PTR _this$[ebp]
  00003	83 c1 0c	 add	 ecx, 12			; 0000000cH
  00006	e9 00 00 00 00	 jmp	 ??1ccddaabb@@UAE@XZ	; ccddaabb::~ccddaabb
__ehhandler$??0?$CEncrypt@K@@QAE@ABV0@@Z:
  0000b	8b 54 24 08	 mov	 edx, DWORD PTR [esp+8]
  0000f	8d 42 0c	 lea	 eax, DWORD PTR [edx+12]
  00012	8b 4a ec	 mov	 ecx, DWORD PTR [edx-20]
  00015	33 c8		 xor	 ecx, eax
  00017	e8 00 00 00 00	 call	 @__security_check_cookie@4
  0001c	b8 00 00 00 00	 mov	 eax, OFFSET __ehfuncinfo$??0?$CEncrypt@K@@QAE@ABV0@@Z
  00021	e9 00 00 00 00	 jmp	 ___CxxFrameHandler3
text$x	ENDS
??0?$CEncrypt@K@@QAE@ABV0@@Z ENDP			; CEncrypt<unsigned long>::CEncrypt<unsigned long>
PUBLIC	??4?$CEncrypt@K@@QAE_NAAV0@@Z			; CEncrypt<unsigned long>::operator=
; Function compile flags: /Ogsp
;	COMDAT ??4?$CEncrypt@K@@QAE_NAAV0@@Z
_TEXT	SEGMENT
_value$510040 = -4					; size = 4
_value$ = 8						; size = 4
_inValue$ = 8						; size = 4
??4?$CEncrypt@K@@QAE_NAAV0@@Z PROC			; CEncrypt<unsigned long>::operator=, COMDAT
; _this$ = ecx

; 3300 : 	 {

  00000	55		 push	 ebp
  00001	8b ec		 mov	 ebp, esp
  00003	51		 push	 ecx
  00004	56		 push	 esi

; 3301 : 		 type value = inValue;

  00005	8d 45 fc	 lea	 eax, DWORD PTR _value$510040[ebp]
  00008	8b f1		 mov	 esi, ecx
  0000a	8b 4d 08	 mov	 ecx, DWORD PTR _inValue$[ebp]
  0000d	50		 push	 eax
  0000e	e8 00 00 00 00	 call	 ?DecryptValueToPool@?$CEncrypt@K@@QAEXPAK@Z ; CEncrypt<unsigned long>::DecryptValueToPool
  00013	8b 45 fc	 mov	 eax, DWORD PTR _value$510040[ebp]
  00016	89 45 08	 mov	 DWORD PTR _value$[ebp], eax

; 3302 : 		 EncryptValueToPool((char*)&value);

  00019	8d 45 08	 lea	 eax, DWORD PTR _value$[ebp]
  0001c	50		 push	 eax
  0001d	8b ce		 mov	 ecx, esi
  0001f	e8 00 00 00 00	 call	 ?EncryptValueToPool@?$CEncrypt@K@@AAEXPBD@Z ; CEncrypt<unsigned long>::EncryptValueToPool

; 3303 : #ifdef _NOTUSE
; 3304 : 		 m_value = inValue;
; 3305 : 		 Debug();
; 3306 : #endif
; 3307 : 		 return value;

  00024	83 7d 08 00	 cmp	 DWORD PTR _value$[ebp], 0
  00028	5e		 pop	 esi
  00029	0f 95 c0	 setne	 al

; 3308 : 	 }

  0002c	c9		 leave
  0002d	c2 04 00	 ret	 4
??4?$CEncrypt@K@@QAE_NAAV0@@Z ENDP			; CEncrypt<unsigned long>::operator=
_TEXT	ENDS
PUBLIC	??0?$vector@PAVQuestData@@V?$allocator@PAVQuestData@@@std@@@std@@QAE@XZ ; std::vector<QuestData *,std::allocator<QuestData *> >::vector<QuestData *,std::allocator<QuestData *> >
; Function compile flags: /Ogsp
; File c:\program files (x86)\microsoft visual studio 10.0\vc\include\vector
;	COMDAT ??0?$vector@PAVQuestData@@V?$allocator@PAVQuestData@@@std@@@std@@QAE@XZ
_TEXT	SEGMENT
??0?$vector@PAVQuestData@@V?$allocator@PAVQuestData@@@std@@@std@@QAE@XZ PROC ; std::vector<QuestData *,std::allocator<QuestData *> >::vector<QuestData *,std::allocator<QuestData *> >, COMDAT
; _this$ = ecx

; 507  : 		{	// construct empty vector

  00000	8b c1		 mov	 eax, ecx
  00002	33 c9		 xor	 ecx, ecx
  00004	89 08		 mov	 DWORD PTR [eax], ecx
  00006	89 48 04	 mov	 DWORD PTR [eax+4], ecx
  00009	89 48 08	 mov	 DWORD PTR [eax+8], ecx

; 508  : 		}

  0000c	c3		 ret	 0
??0?$vector@PAVQuestData@@V?$allocator@PAVQuestData@@@std@@@std@@QAE@XZ ENDP ; std::vector<QuestData *,std::allocator<QuestData *> >::vector<QuestData *,std::allocator<QuestData *> >
_TEXT	ENDS
PUBLIC	?begin@?$vector@PAVQuestData@@V?$allocator@PAVQuestData@@@std@@@std@@QAE?AV?$_Vector_iterator@V?$_Vector_val@PAVQuestData@@V?$allocator@PAVQuestData@@@std@@@std@@@2@XZ ; std::vector<QuestData *,std::allocator<QuestData *> >::begin
; Function compile flags: /Ogsp
;	COMDAT ?begin@?$vector@PAVQuestData@@V?$allocator@PAVQuestData@@@std@@@std@@QAE?AV?$_Vector_iterator@V?$_Vector_val@PAVQuestData@@V?$allocator@PAVQuestData@@@std@@@std@@@2@XZ
_TEXT	SEGMENT
___$ReturnUdt$ = 8					; size = 4
?begin@?$vector@PAVQuestData@@V?$allocator@PAVQuestData@@@std@@@std@@QAE?AV?$_Vector_iterator@V?$_Vector_val@PAVQuestData@@V?$allocator@PAVQuestData@@@std@@@std@@@2@XZ PROC ; std::vector<QuestData *,std::allocator<QuestData *> >::begin, COMDAT
; _this$ = ecx

; 781  : 		{	// return iterator for beginning of mutable sequence

  00000	55		 push	 ebp
  00001	8b ec		 mov	 ebp, esp

; 782  : 		return (iterator(this->_Myfirst, this));

  00003	8b 09		 mov	 ecx, DWORD PTR [ecx]
  00005	8b 45 08	 mov	 eax, DWORD PTR ___$ReturnUdt$[ebp]
  00008	89 08		 mov	 DWORD PTR [eax], ecx

; 783  : 		}

  0000a	5d		 pop	 ebp
  0000b	c2 04 00	 ret	 4
?begin@?$vector@PAVQuestData@@V?$allocator@PAVQuestData@@@std@@@std@@QAE?AV?$_Vector_iterator@V?$_Vector_val@PAVQuestData@@V?$allocator@PAVQuestData@@@std@@@std@@@2@XZ ENDP ; std::vector<QuestData *,std::allocator<QuestData *> >::begin
_TEXT	ENDS
PUBLIC	?end@?$vector@PAVQuestData@@V?$allocator@PAVQuestData@@@std@@@std@@QAE?AV?$_Vector_iterator@V?$_Vector_val@PAVQuestData@@V?$allocator@PAVQuestData@@@std@@@std@@@2@XZ ; std::vector<QuestData *,std::allocator<QuestData *> >::end
; Function compile flags: /Ogsp
;	COMDAT ?end@?$vector@PAVQuestData@@V?$allocator@PAVQuestData@@@std@@@std@@QAE?AV?$_Vector_iterator@V?$_Vector_val@PAVQuestData@@V?$allocator@PAVQuestData@@@std@@@std@@@2@XZ
_TEXT	SEGMENT
___$ReturnUdt$ = 8					; size = 4
?end@?$vector@PAVQuestData@@V?$allocator@PAVQuestData@@@std@@@std@@QAE?AV?$_Vector_iterator@V?$_Vector_val@PAVQuestData@@V?$allocator@PAVQuestData@@@std@@@std@@@2@XZ PROC ; std::vector<QuestData *,std::allocator<QuestData *> >::end, COMDAT
; _this$ = ecx

; 791  : 		{	// return iterator for end of mutable sequence

  00000	55		 push	 ebp
  00001	8b ec		 mov	 ebp, esp

; 792  : 		return (iterator(this->_Mylast, this));

  00003	8b 49 04	 mov	 ecx, DWORD PTR [ecx+4]
  00006	8b 45 08	 mov	 eax, DWORD PTR ___$ReturnUdt$[ebp]
  00009	89 08		 mov	 DWORD PTR [eax], ecx

; 793  : 		}

  0000b	5d		 pop	 ebp
  0000c	c2 04 00	 ret	 4
?end@?$vector@PAVQuestData@@V?$allocator@PAVQuestData@@@std@@@std@@QAE?AV?$_Vector_iterator@V?$_Vector_val@PAVQuestData@@V?$allocator@PAVQuestData@@@std@@@std@@@2@XZ ENDP ; std::vector<QuestData *,std::allocator<QuestData *> >::end
_TEXT	ENDS
PUBLIC	??0?$vector@PAVQuestCompleteData@@V?$allocator@PAVQuestCompleteData@@@std@@@std@@QAE@XZ ; std::vector<QuestCompleteData *,std::allocator<QuestCompleteData *> >::vector<QuestCompleteData *,std::allocator<QuestCompleteData *> >
; Function compile flags: /Ogsp
;	COMDAT ??0?$vector@PAVQuestCompleteData@@V?$allocator@PAVQuestCompleteData@@@std@@@std@@QAE@XZ
_TEXT	SEGMENT
??0?$vector@PAVQuestCompleteData@@V?$allocator@PAVQuestCompleteData@@@std@@@std@@QAE@XZ PROC ; std::vector<QuestCompleteData *,std::allocator<QuestCompleteData *> >::vector<QuestCompleteData *,std::allocator<QuestCompleteData *> >, COMDAT
; _this$ = ecx

; 507  : 		{	// construct empty vector

  00000	8b c1		 mov	 eax, ecx
  00002	33 c9		 xor	 ecx, ecx
  00004	89 08		 mov	 DWORD PTR [eax], ecx
  00006	89 48 04	 mov	 DWORD PTR [eax+4], ecx
  00009	89 48 08	 mov	 DWORD PTR [eax+8], ecx

; 508  : 		}

  0000c	c3		 ret	 0
??0?$vector@PAVQuestCompleteData@@V?$allocator@PAVQuestCompleteData@@@std@@@std@@QAE@XZ ENDP ; std::vector<QuestCompleteData *,std::allocator<QuestCompleteData *> >::vector<QuestCompleteData *,std::allocator<QuestCompleteData *> >
_TEXT	ENDS
PUBLIC	?begin@?$vector@PAVQuestCompleteData@@V?$allocator@PAVQuestCompleteData@@@std@@@std@@QAE?AV?$_Vector_iterator@V?$_Vector_val@PAVQuestCompleteData@@V?$allocator@PAVQuestCompleteData@@@std@@@std@@@2@XZ ; std::vector<QuestCompleteData *,std::allocator<QuestCompleteData *> >::begin
; Function compile flags: /Ogsp
;	COMDAT ?begin@?$vector@PAVQuestCompleteData@@V?$allocator@PAVQuestCompleteData@@@std@@@std@@QAE?AV?$_Vector_iterator@V?$_Vector_val@PAVQuestCompleteData@@V?$allocator@PAVQuestCompleteData@@@std@@@std@@@2@XZ
_TEXT	SEGMENT
___$ReturnUdt$ = 8					; size = 4
?begin@?$vector@PAVQuestCompleteData@@V?$allocator@PAVQuestCompleteData@@@std@@@std@@QAE?AV?$_Vector_iterator@V?$_Vector_val@PAVQuestCompleteData@@V?$allocator@PAVQuestCompleteData@@@std@@@std@@@2@XZ PROC ; std::vector<QuestCompleteData *,std::allocator<QuestCompleteData *> >::begin, COMDAT
; _this$ = ecx

; 781  : 		{	// return iterator for beginning of mutable sequence

  00000	55		 push	 ebp
  00001	8b ec		 mov	 ebp, esp

; 782  : 		return (iterator(this->_Myfirst, this));

  00003	8b 09		 mov	 ecx, DWORD PTR [ecx]
  00005	8b 45 08	 mov	 eax, DWORD PTR ___$ReturnUdt$[ebp]
  00008	89 08		 mov	 DWORD PTR [eax], ecx

; 783  : 		}

  0000a	5d		 pop	 ebp
  0000b	c2 04 00	 ret	 4
?begin@?$vector@PAVQuestCompleteData@@V?$allocator@PAVQuestCompleteData@@@std@@@std@@QAE?AV?$_Vector_iterator@V?$_Vector_val@PAVQuestCompleteData@@V?$allocator@PAVQuestCompleteData@@@std@@@std@@@2@XZ ENDP ; std::vector<QuestCompleteData *,std::allocator<QuestCompleteData *> >::begin
_TEXT	ENDS
PUBLIC	?end@?$vector@PAVQuestCompleteData@@V?$allocator@PAVQuestCompleteData@@@std@@@std@@QAE?AV?$_Vector_iterator@V?$_Vector_val@PAVQuestCompleteData@@V?$allocator@PAVQuestCompleteData@@@std@@@std@@@2@XZ ; std::vector<QuestCompleteData *,std::allocator<QuestCompleteData *> >::end
; Function compile flags: /Ogsp
;	COMDAT ?end@?$vector@PAVQuestCompleteData@@V?$allocator@PAVQuestCompleteData@@@std@@@std@@QAE?AV?$_Vector_iterator@V?$_Vector_val@PAVQuestCompleteData@@V?$allocator@PAVQuestCompleteData@@@std@@@std@@@2@XZ
_TEXT	SEGMENT
___$ReturnUdt$ = 8					; size = 4
?end@?$vector@PAVQuestCompleteData@@V?$allocator@PAVQuestCompleteData@@@std@@@std@@QAE?AV?$_Vector_iterator@V?$_Vector_val@PAVQuestCompleteData@@V?$allocator@PAVQuestCompleteData@@@std@@@std@@@2@XZ PROC ; std::vector<QuestCompleteData *,std::allocator<QuestCompleteData *> >::end, COMDAT
; _this$ = ecx

; 791  : 		{	// return iterator for end of mutable sequence

  00000	55		 push	 ebp
  00001	8b ec		 mov	 ebp, esp

; 792  : 		return (iterator(this->_Mylast, this));

  00003	8b 49 04	 mov	 ecx, DWORD PTR [ecx+4]
  00006	8b 45 08	 mov	 eax, DWORD PTR ___$ReturnUdt$[ebp]
  00009	89 08		 mov	 DWORD PTR [eax], ecx

; 793  : 		}

  0000b	5d		 pop	 ebp
  0000c	c2 04 00	 ret	 4
?end@?$vector@PAVQuestCompleteData@@V?$allocator@PAVQuestCompleteData@@@std@@@std@@QAE?AV?$_Vector_iterator@V?$_Vector_val@PAVQuestCompleteData@@V?$allocator@PAVQuestCompleteData@@@std@@@std@@@2@XZ ENDP ; std::vector<QuestCompleteData *,std::allocator<QuestCompleteData *> >::end
_TEXT	ENDS
PUBLIC	??9?$_Vector_const_iterator@V?$_Vector_val@PAVQuestData@@V?$allocator@PAVQuestData@@@std@@@std@@@std@@QBE_NABV01@@Z ; std::_Vector_const_iterator<std::_Vector_val<QuestData *,std::allocator<QuestData *> > >::operator!=
; Function compile flags: /Ogsp
;	COMDAT ??9?$_Vector_const_iterator@V?$_Vector_val@PAVQuestData@@V?$allocator@PAVQuestData@@@std@@@std@@@std@@QBE_NABV01@@Z
_TEXT	SEGMENT
__Right$ = 8						; size = 4
??9?$_Vector_const_iterator@V?$_Vector_val@PAVQuestData@@V?$allocator@PAVQuestData@@@std@@@std@@@std@@QBE_NABV01@@Z PROC ; std::_Vector_const_iterator<std::_Vector_val<QuestData *,std::allocator<QuestData *> > >::operator!=, COMDAT
; _this$ = ecx

; 207  : 		{	// test for iterator inequality

  00000	55		 push	 ebp
  00001	8b ec		 mov	 ebp, esp

; 208  : 		return (!(*this == _Right));

  00003	8b 01		 mov	 eax, DWORD PTR [ecx]
  00005	8b 55 08	 mov	 edx, DWORD PTR __Right$[ebp]
  00008	33 c9		 xor	 ecx, ecx
  0000a	3b 02		 cmp	 eax, DWORD PTR [edx]
  0000c	0f 95 c0	 setne	 al

; 209  : 		}

  0000f	5d		 pop	 ebp
  00010	c2 04 00	 ret	 4
??9?$_Vector_const_iterator@V?$_Vector_val@PAVQuestData@@V?$allocator@PAVQuestData@@@std@@@std@@@std@@QBE_NABV01@@Z ENDP ; std::_Vector_const_iterator<std::_Vector_val<QuestData *,std::allocator<QuestData *> > >::operator!=
_TEXT	ENDS
PUBLIC	??9?$_Vector_const_iterator@V?$_Vector_val@PAVQuestCompleteData@@V?$allocator@PAVQuestCompleteData@@@std@@@std@@@std@@QBE_NABV01@@Z ; std::_Vector_const_iterator<std::_Vector_val<QuestCompleteData *,std::allocator<QuestCompleteData *> > >::operator!=
; Function compile flags: /Ogsp
;	COMDAT ??9?$_Vector_const_iterator@V?$_Vector_val@PAVQuestCompleteData@@V?$allocator@PAVQuestCompleteData@@@std@@@std@@@std@@QBE_NABV01@@Z
_TEXT	SEGMENT
__Right$ = 8						; size = 4
??9?$_Vector_const_iterator@V?$_Vector_val@PAVQuestCompleteData@@V?$allocator@PAVQuestCompleteData@@@std@@@std@@@std@@QBE_NABV01@@Z PROC ; std::_Vector_const_iterator<std::_Vector_val<QuestCompleteData *,std::allocator<QuestCompleteData *> > >::operator!=, COMDAT
; _this$ = ecx

; 207  : 		{	// test for iterator inequality

  00000	55		 push	 ebp
  00001	8b ec		 mov	 ebp, esp

; 208  : 		return (!(*this == _Right));

  00003	8b 01		 mov	 eax, DWORD PTR [ecx]
  00005	8b 55 08	 mov	 edx, DWORD PTR __Right$[ebp]
  00008	33 c9		 xor	 ecx, ecx
  0000a	3b 02		 cmp	 eax, DWORD PTR [edx]
  0000c	0f 95 c0	 setne	 al

; 209  : 		}

  0000f	5d		 pop	 ebp
  00010	c2 04 00	 ret	 4
??9?$_Vector_const_iterator@V?$_Vector_val@PAVQuestCompleteData@@V?$allocator@PAVQuestCompleteData@@@std@@@std@@@std@@QBE_NABV01@@Z ENDP ; std::_Vector_const_iterator<std::_Vector_val<QuestCompleteData *,std::allocator<QuestCompleteData *> > >::operator!=
_TEXT	ENDS
PUBLIC	?_Make_iter@?$vector@PAVQuestData@@V?$allocator@PAVQuestData@@@std@@@std@@QBE?AV?$_Vector_iterator@V?$_Vector_val@PAVQuestData@@V?$allocator@PAVQuestData@@@std@@@std@@@2@V?$_Vector_const_iterator@V?$_Vector_val@PAVQuestData@@V?$allocator@PAVQuestData@@@std@@@std@@@2@@Z ; std::vector<QuestData *,std::allocator<QuestData *> >::_Make_iter
; Function compile flags: /Ogsp
;	COMDAT ?_Make_iter@?$vector@PAVQuestData@@V?$allocator@PAVQuestData@@@std@@@std@@QBE?AV?$_Vector_iterator@V?$_Vector_val@PAVQuestData@@V?$allocator@PAVQuestData@@@std@@@std@@@2@V?$_Vector_const_iterator@V?$_Vector_val@PAVQuestData@@V?$allocator@PAVQuestData@@@std@@@std@@@2@@Z
_TEXT	SEGMENT
___$ReturnUdt$ = 8					; size = 4
__Where$ = 12						; size = 4
?_Make_iter@?$vector@PAVQuestData@@V?$allocator@PAVQuestData@@@std@@@std@@QBE?AV?$_Vector_iterator@V?$_Vector_val@PAVQuestData@@V?$allocator@PAVQuestData@@@std@@@std@@@2@V?$_Vector_const_iterator@V?$_Vector_val@PAVQuestData@@V?$allocator@PAVQuestData@@@std@@@std@@@2@@Z PROC ; std::vector<QuestData *,std::allocator<QuestData *> >::_Make_iter, COMDAT
; _this$ = ecx

; 801  : 		{	// make iterator from const_iterator

  00000	55		 push	 ebp
  00001	8b ec		 mov	 ebp, esp

; 802  : 		return (iterator(_Where._Ptr, this));

  00003	8b 45 08	 mov	 eax, DWORD PTR ___$ReturnUdt$[ebp]
  00006	8b 4d 0c	 mov	 ecx, DWORD PTR __Where$[ebp]
  00009	89 08		 mov	 DWORD PTR [eax], ecx

; 803  : 		}

  0000b	5d		 pop	 ebp
  0000c	c2 08 00	 ret	 8
?_Make_iter@?$vector@PAVQuestData@@V?$allocator@PAVQuestData@@@std@@@std@@QBE?AV?$_Vector_iterator@V?$_Vector_val@PAVQuestData@@V?$allocator@PAVQuestData@@@std@@@std@@@2@V?$_Vector_const_iterator@V?$_Vector_val@PAVQuestData@@V?$allocator@PAVQuestData@@@std@@@std@@@2@@Z ENDP ; std::vector<QuestData *,std::allocator<QuestData *> >::_Make_iter
_TEXT	ENDS
PUBLIC	?_Destroy@?$vector@PAVQuestData@@V?$allocator@PAVQuestData@@@std@@@std@@IAEXPAPAVQuestData@@0@Z ; std::vector<QuestData *,std::allocator<QuestData *> >::_Destroy
; Function compile flags: /Ogsp
;	COMDAT ?_Destroy@?$vector@PAVQuestData@@V?$allocator@PAVQuestData@@@std@@@std@@IAEXPAPAVQuestData@@0@Z
_TEXT	SEGMENT
__First$ = 8						; size = 4
__Last$ = 12						; size = 4
?_Destroy@?$vector@PAVQuestData@@V?$allocator@PAVQuestData@@@std@@@std@@IAEXPAPAVQuestData@@0@Z PROC ; std::vector<QuestData *,std::allocator<QuestData *> >::_Destroy, COMDAT
; _this$ = ecx

; 1270 : 		_Destroy_range(_First, _Last, this->_Alval);
; 1271 : 		}

  00000	c2 08 00	 ret	 8
?_Destroy@?$vector@PAVQuestData@@V?$allocator@PAVQuestData@@@std@@@std@@IAEXPAPAVQuestData@@0@Z ENDP ; std::vector<QuestData *,std::allocator<QuestData *> >::_Destroy
_TEXT	ENDS
PUBLIC	?_Tidy@?$vector@PAVQuestData@@V?$allocator@PAVQuestData@@@std@@@std@@IAEXXZ ; std::vector<QuestData *,std::allocator<QuestData *> >::_Tidy
EXTRN	__imp_?_Orphan_all@_Container_base0@std@@QAEXXZ:PROC
; Function compile flags: /Ogsp
;	COMDAT ?_Tidy@?$vector@PAVQuestData@@V?$allocator@PAVQuestData@@@std@@@std@@IAEXXZ
_TEXT	SEGMENT
?_Tidy@?$vector@PAVQuestData@@V?$allocator@PAVQuestData@@@std@@@std@@IAEXXZ PROC ; std::vector<QuestData *,std::allocator<QuestData *> >::_Tidy, COMDAT
; _this$ = ecx

; 1301 : 		{	// free all storage

  00000	56		 push	 esi
  00001	8b f1		 mov	 esi, ecx

; 1302 : 		if (this->_Myfirst != 0)

  00003	83 3e 00	 cmp	 DWORD PTR [esi], 0
  00006	74 0e		 je	 SHORT $LN12@Tidy

; 1303 : 			{	// something to free, destroy and deallocate it
; 1304 : 			this->_Orphan_all();

  00008	ff 15 00 00 00
	00		 call	 DWORD PTR __imp_?_Orphan_all@_Container_base0@std@@QAEXXZ

; 1305 : 			_Destroy(this->_Myfirst, this->_Mylast);
; 1306 : 			this->_Alval.deallocate(this->_Myfirst,
; 1307 : 				this->_Myend - this->_Myfirst);

  0000e	ff 36		 push	 DWORD PTR [esi]
  00010	e8 00 00 00 00	 call	 ??3@YAXPAX@Z		; operator delete
  00015	59		 pop	 ecx
$LN12@Tidy:

; 1308 : 			}
; 1309 : 		this->_Myfirst = 0;

  00016	83 26 00	 and	 DWORD PTR [esi], 0

; 1310 : 		this->_Mylast = 0;

  00019	83 66 04 00	 and	 DWORD PTR [esi+4], 0

; 1311 : 		this->_Myend = 0;

  0001d	83 66 08 00	 and	 DWORD PTR [esi+8], 0
  00021	5e		 pop	 esi

; 1312 : 		}

  00022	c3		 ret	 0
?_Tidy@?$vector@PAVQuestData@@V?$allocator@PAVQuestData@@@std@@@std@@IAEXXZ ENDP ; std::vector<QuestData *,std::allocator<QuestData *> >::_Tidy
_TEXT	ENDS
PUBLIC	?_Make_iter@?$vector@PAVQuestCompleteData@@V?$allocator@PAVQuestCompleteData@@@std@@@std@@QBE?AV?$_Vector_iterator@V?$_Vector_val@PAVQuestCompleteData@@V?$allocator@PAVQuestCompleteData@@@std@@@std@@@2@V?$_Vector_const_iterator@V?$_Vector_val@PAVQuestCompleteData@@V?$allocator@PAVQuestCompleteData@@@std@@@std@@@2@@Z ; std::vector<QuestCompleteData *,std::allocator<QuestCompleteData *> >::_Make_iter
; Function compile flags: /Ogsp
;	COMDAT ?_Make_iter@?$vector@PAVQuestCompleteData@@V?$allocator@PAVQuestCompleteData@@@std@@@std@@QBE?AV?$_Vector_iterator@V?$_Vector_val@PAVQuestCompleteData@@V?$allocator@PAVQuestCompleteData@@@std@@@std@@@2@V?$_Vector_const_iterator@V?$_Vector_val@PAVQuestCompleteData@@V?$allocator@PAVQuestCompleteData@@@std@@@std@@@2@@Z
_TEXT	SEGMENT
___$ReturnUdt$ = 8					; size = 4
__Where$ = 12						; size = 4
?_Make_iter@?$vector@PAVQuestCompleteData@@V?$allocator@PAVQuestCompleteData@@@std@@@std@@QBE?AV?$_Vector_iterator@V?$_Vector_val@PAVQuestCompleteData@@V?$allocator@PAVQuestCompleteData@@@std@@@std@@@2@V?$_Vector_const_iterator@V?$_Vector_val@PAVQuestCompleteData@@V?$allocator@PAVQuestCompleteData@@@std@@@std@@@2@@Z PROC ; std::vector<QuestCompleteData *,std::allocator<QuestCompleteData *> >::_Make_iter, COMDAT
; _this$ = ecx

; 801  : 		{	// make iterator from const_iterator

  00000	55		 push	 ebp
  00001	8b ec		 mov	 ebp, esp

; 802  : 		return (iterator(_Where._Ptr, this));

  00003	8b 45 08	 mov	 eax, DWORD PTR ___$ReturnUdt$[ebp]
  00006	8b 4d 0c	 mov	 ecx, DWORD PTR __Where$[ebp]
  00009	89 08		 mov	 DWORD PTR [eax], ecx

; 803  : 		}

  0000b	5d		 pop	 ebp
  0000c	c2 08 00	 ret	 8
?_Make_iter@?$vector@PAVQuestCompleteData@@V?$allocator@PAVQuestCompleteData@@@std@@@std@@QBE?AV?$_Vector_iterator@V?$_Vector_val@PAVQuestCompleteData@@V?$allocator@PAVQuestCompleteData@@@std@@@std@@@2@V?$_Vector_const_iterator@V?$_Vector_val@PAVQuestCompleteData@@V?$allocator@PAVQuestCompleteData@@@std@@@std@@@2@@Z ENDP ; std::vector<QuestCompleteData *,std::allocator<QuestCompleteData *> >::_Make_iter
_TEXT	ENDS
PUBLIC	?_Destroy@?$vector@PAVQuestCompleteData@@V?$allocator@PAVQuestCompleteData@@@std@@@std@@IAEXPAPAVQuestCompleteData@@0@Z ; std::vector<QuestCompleteData *,std::allocator<QuestCompleteData *> >::_Destroy
; Function compile flags: /Ogsp
;	COMDAT ?_Destroy@?$vector@PAVQuestCompleteData@@V?$allocator@PAVQuestCompleteData@@@std@@@std@@IAEXPAPAVQuestCompleteData@@0@Z
_TEXT	SEGMENT
__First$ = 8						; size = 4
__Last$ = 12						; size = 4
?_Destroy@?$vector@PAVQuestCompleteData@@V?$allocator@PAVQuestCompleteData@@@std@@@std@@IAEXPAPAVQuestCompleteData@@0@Z PROC ; std::vector<QuestCompleteData *,std::allocator<QuestCompleteData *> >::_Destroy, COMDAT
; _this$ = ecx

; 1270 : 		_Destroy_range(_First, _Last, this->_Alval);
; 1271 : 		}

  00000	c2 08 00	 ret	 8
?_Destroy@?$vector@PAVQuestCompleteData@@V?$allocator@PAVQuestCompleteData@@@std@@@std@@IAEXPAPAVQuestCompleteData@@0@Z ENDP ; std::vector<QuestCompleteData *,std::allocator<QuestCompleteData *> >::_Destroy
_TEXT	ENDS
PUBLIC	?_Tidy@?$vector@PAVQuestCompleteData@@V?$allocator@PAVQuestCompleteData@@@std@@@std@@IAEXXZ ; std::vector<QuestCompleteData *,std::allocator<QuestCompleteData *> >::_Tidy
; Function compile flags: /Ogsp
;	COMDAT ?_Tidy@?$vector@PAVQuestCompleteData@@V?$allocator@PAVQuestCompleteData@@@std@@@std@@IAEXXZ
_TEXT	SEGMENT
?_Tidy@?$vector@PAVQuestCompleteData@@V?$allocator@PAVQuestCompleteData@@@std@@@std@@IAEXXZ PROC ; std::vector<QuestCompleteData *,std::allocator<QuestCompleteData *> >::_Tidy, COMDAT
; _this$ = ecx

; 1301 : 		{	// free all storage

  00000	56		 push	 esi
  00001	8b f1		 mov	 esi, ecx

; 1302 : 		if (this->_Myfirst != 0)

  00003	83 3e 00	 cmp	 DWORD PTR [esi], 0
  00006	74 0e		 je	 SHORT $LN12@Tidy@2

; 1303 : 			{	// something to free, destroy and deallocate it
; 1304 : 			this->_Orphan_all();

  00008	ff 15 00 00 00
	00		 call	 DWORD PTR __imp_?_Orphan_all@_Container_base0@std@@QAEXXZ

; 1305 : 			_Destroy(this->_Myfirst, this->_Mylast);
; 1306 : 			this->_Alval.deallocate(this->_Myfirst,
; 1307 : 				this->_Myend - this->_Myfirst);

  0000e	ff 36		 push	 DWORD PTR [esi]
  00010	e8 00 00 00 00	 call	 ??3@YAXPAX@Z		; operator delete
  00015	59		 pop	 ecx
$LN12@Tidy@2:

; 1308 : 			}
; 1309 : 		this->_Myfirst = 0;

  00016	83 26 00	 and	 DWORD PTR [esi], 0

; 1310 : 		this->_Mylast = 0;

  00019	83 66 04 00	 and	 DWORD PTR [esi+4], 0

; 1311 : 		this->_Myend = 0;

  0001d	83 66 08 00	 and	 DWORD PTR [esi+8], 0
  00021	5e		 pop	 esi

; 1312 : 		}

  00022	c3		 ret	 0
?_Tidy@?$vector@PAVQuestCompleteData@@V?$allocator@PAVQuestCompleteData@@@std@@@std@@IAEXXZ ENDP ; std::vector<QuestCompleteData *,std::allocator<QuestCompleteData *> >::_Tidy
_TEXT	ENDS
PUBLIC	??H?$_Vector_iterator@V?$_Vector_val@PAVQuestData@@V?$allocator@PAVQuestData@@@std@@@std@@@std@@QBE?AV01@H@Z ; std::_Vector_iterator<std::_Vector_val<QuestData *,std::allocator<QuestData *> > >::operator+
; Function compile flags: /Ogsp
;	COMDAT ??H?$_Vector_iterator@V?$_Vector_val@PAVQuestData@@V?$allocator@PAVQuestData@@@std@@@std@@@std@@QBE?AV01@H@Z
_TEXT	SEGMENT
___$ReturnUdt$ = 8					; size = 4
__Off$ = 12						; size = 4
??H?$_Vector_iterator@V?$_Vector_val@PAVQuestData@@V?$allocator@PAVQuestData@@@std@@@std@@@std@@QBE?AV01@H@Z PROC ; std::_Vector_iterator<std::_Vector_val<QuestData *,std::allocator<QuestData *> > >::operator+, COMDAT
; _this$ = ecx

; 363  : 		{	// return this + integer

  00000	55		 push	 ebp
  00001	8b ec		 mov	 ebp, esp

; 364  : 		_Myiter _Tmp = *this;
; 365  : 		return (_Tmp += _Off);

  00003	8b 01		 mov	 eax, DWORD PTR [ecx]
  00005	8b 4d 0c	 mov	 ecx, DWORD PTR __Off$[ebp]
  00008	8d 0c 88	 lea	 ecx, DWORD PTR [eax+ecx*4]
  0000b	8b 45 08	 mov	 eax, DWORD PTR ___$ReturnUdt$[ebp]
  0000e	89 08		 mov	 DWORD PTR [eax], ecx

; 366  : 		}

  00010	5d		 pop	 ebp
  00011	c2 08 00	 ret	 8
??H?$_Vector_iterator@V?$_Vector_val@PAVQuestData@@V?$allocator@PAVQuestData@@@std@@@std@@@std@@QBE?AV01@H@Z ENDP ; std::_Vector_iterator<std::_Vector_val<QuestData *,std::allocator<QuestData *> > >::operator+
_TEXT	ENDS
PUBLIC	??G?$_Vector_iterator@V?$_Vector_val@PAVQuestData@@V?$allocator@PAVQuestData@@@std@@@std@@@std@@QBE?AV01@H@Z ; std::_Vector_iterator<std::_Vector_val<QuestData *,std::allocator<QuestData *> > >::operator-
; Function compile flags: /Ogsp
;	COMDAT ??G?$_Vector_iterator@V?$_Vector_val@PAVQuestData@@V?$allocator@PAVQuestData@@@std@@@std@@@std@@QBE?AV01@H@Z
_TEXT	SEGMENT
___$ReturnUdt$ = 8					; size = 4
__Off$ = 12						; size = 4
??G?$_Vector_iterator@V?$_Vector_val@PAVQuestData@@V?$allocator@PAVQuestData@@@std@@@std@@@std@@QBE?AV01@H@Z PROC ; std::_Vector_iterator<std::_Vector_val<QuestData *,std::allocator<QuestData *> > >::operator-, COMDAT
; _this$ = ecx

; 374  : 		{	// return this - integer

  00000	55		 push	 ebp
  00001	8b ec		 mov	 ebp, esp

; 375  : 		_Myiter _Tmp = *this;
; 376  : 		return (_Tmp -= _Off);

  00003	8b 45 0c	 mov	 eax, DWORD PTR __Off$[ebp]
  00006	8b 09		 mov	 ecx, DWORD PTR [ecx]
  00008	c1 e0 02	 shl	 eax, 2
  0000b	2b c8		 sub	 ecx, eax
  0000d	8b 45 08	 mov	 eax, DWORD PTR ___$ReturnUdt$[ebp]
  00010	89 08		 mov	 DWORD PTR [eax], ecx

; 377  : 		}

  00012	5d		 pop	 ebp
  00013	c2 08 00	 ret	 8
??G?$_Vector_iterator@V?$_Vector_val@PAVQuestData@@V?$allocator@PAVQuestData@@@std@@@std@@@std@@QBE?AV01@H@Z ENDP ; std::_Vector_iterator<std::_Vector_val<QuestData *,std::allocator<QuestData *> > >::operator-
_TEXT	ENDS
PUBLIC	??H?$_Vector_iterator@V?$_Vector_val@PAVQuestCompleteData@@V?$allocator@PAVQuestCompleteData@@@std@@@std@@@std@@QBE?AV01@H@Z ; std::_Vector_iterator<std::_Vector_val<QuestCompleteData *,std::allocator<QuestCompleteData *> > >::operator+
; Function compile flags: /Ogsp
;	COMDAT ??H?$_Vector_iterator@V?$_Vector_val@PAVQuestCompleteData@@V?$allocator@PAVQuestCompleteData@@@std@@@std@@@std@@QBE?AV01@H@Z
_TEXT	SEGMENT
___$ReturnUdt$ = 8					; size = 4
__Off$ = 12						; size = 4
??H?$_Vector_iterator@V?$_Vector_val@PAVQuestCompleteData@@V?$allocator@PAVQuestCompleteData@@@std@@@std@@@std@@QBE?AV01@H@Z PROC ; std::_Vector_iterator<std::_Vector_val<QuestCompleteData *,std::allocator<QuestCompleteData *> > >::operator+, COMDAT
; _this$ = ecx

; 363  : 		{	// return this + integer

  00000	55		 push	 ebp
  00001	8b ec		 mov	 ebp, esp

; 364  : 		_Myiter _Tmp = *this;
; 365  : 		return (_Tmp += _Off);

  00003	8b 01		 mov	 eax, DWORD PTR [ecx]
  00005	8b 4d 0c	 mov	 ecx, DWORD PTR __Off$[ebp]
