; Listing generated by Microsoft (R) Optimizing Compiler Version 16.00.30319.01 

	TITLE	D:\Lost Saga For Developer\Youtube\Tutorial\Source\src\LSClient\ioQuest.cpp
	.686P
	.XMM
	include listing.inc
	.model	flat

INCLUDELIB MSVCRT
INCLUDELIB OLDNAMES

PUBLIC	??_7QuestDataParent@@6B@			; QuestDataParent::`vftable'
PUBLIC	??0QuestDataParent@@QAE@XZ			; QuestDataParent::QuestDataParent
PUBLIC	??_R4QuestDataParent@@6B@			; QuestDataParent::`RTTI Complete Object Locator'
PUBLIC	??_R0?AVQuestDataParent@@@8			; QuestDataParent `RTTI Type Descriptor'
PUBLIC	??_R3QuestDataParent@@8				; QuestDataParent::`RTTI Class Hierarchy Descriptor'
PUBLIC	??_R2QuestDataParent@@8				; QuestDataParent::`RTTI Base Class Array'
PUBLIC	??_R1A@?0A@EA@QuestDataParent@@8		; QuestDataParent::`RTTI Base Class Descriptor at (0,-1,0,64)'
PUBLIC	?GetIndexData@QuestDataParent@@UBE?BKXZ		; QuestDataParent::GetIndexData
PUBLIC	?GetDateData@QuestDataParent@@UBE?BKXZ		; QuestDataParent::GetDateData
PUBLIC	?GetLinkQuest@QuestDataParent@@UAEPAVQuestParent@@XZ ; QuestDataParent::GetLinkQuest
EXTRN	??_7type_info@@6B@:QWORD			; type_info::`vftable'
EXTRN	??_EQuestDataParent@@UAEPAXI@Z:PROC		; QuestDataParent::`vector deleting destructor'
;	COMDAT ??_R1A@?0A@EA@QuestDataParent@@8
; File d:\lost saga for developer\youtube\tutorial\source\src\lsclient\ioquest.cpp
rdata$r	SEGMENT
??_R1A@?0A@EA@QuestDataParent@@8 DD FLAT:??_R0?AVQuestDataParent@@@8 ; QuestDataParent::`RTTI Base Class Descriptor at (0,-1,0,64)'
	DD	00H
	DD	00H
	DD	0ffffffffH
	DD	00H
	DD	040H
	DD	FLAT:??_R3QuestDataParent@@8
rdata$r	ENDS
;	COMDAT ??_R2QuestDataParent@@8
rdata$r	SEGMENT
??_R2QuestDataParent@@8 DD FLAT:??_R1A@?0A@EA@QuestDataParent@@8 ; QuestDataParent::`RTTI Base Class Array'
rdata$r	ENDS
;	COMDAT ??_R3QuestDataParent@@8
rdata$r	SEGMENT
??_R3QuestDataParent@@8 DD 00H				; QuestDataParent::`RTTI Class Hierarchy Descriptor'
	DD	00H
	DD	01H
	DD	FLAT:??_R2QuestDataParent@@8
rdata$r	ENDS
;	COMDAT ??_R0?AVQuestDataParent@@@8
_DATA	SEGMENT
??_R0?AVQuestDataParent@@@8 DD FLAT:??_7type_info@@6B@	; QuestDataParent `RTTI Type Descriptor'
	DD	00H
	DB	'.?AVQuestDataParent@@', 00H
_DATA	ENDS
;	COMDAT ??_R4QuestDataParent@@6B@
rdata$r	SEGMENT
??_R4QuestDataParent@@6B@ DD 00H			; QuestDataParent::`RTTI Complete Object Locator'
	DD	00H
	DD	00H
	DD	FLAT:??_R0?AVQuestDataParent@@@8
	DD	FLAT:??_R3QuestDataParent@@8
rdata$r	ENDS
;	COMDAT ??_7QuestDataParent@@6B@
CONST	SEGMENT
??_7QuestDataParent@@6B@ DD FLAT:??_R4QuestDataParent@@6B@ ; QuestDataParent::`vftable'
	DD	FLAT:?GetIndexData@QuestDataParent@@UBE?BKXZ
	DD	FLAT:?GetDateData@QuestDataParent@@UBE?BKXZ
	DD	FLAT:?GetLinkQuest@QuestDataParent@@UAEPAVQuestParent@@XZ
	DD	FLAT:??_EQuestDataParent@@UAEPAXI@Z
; Function compile flags: /Ogsp
CONST	ENDS
;	COMDAT ??0QuestDataParent@@QAE@XZ
_TEXT	SEGMENT
??0QuestDataParent@@QAE@XZ PROC				; QuestDataParent::QuestDataParent, COMDAT
; _this$ = ecx

; 9    : {

  00000	8b c1		 mov	 eax, ecx

; 10   : 	m_dwIndexData = m_dwDateData = 0;

  00002	33 c9		 xor	 ecx, ecx
  00004	c7 00 00 00 00
	00		 mov	 DWORD PTR [eax], OFFSET ??_7QuestDataParent@@6B@
  0000a	89 48 08	 mov	 DWORD PTR [eax+8], ecx
  0000d	89 48 04	 mov	 DWORD PTR [eax+4], ecx

; 11   : 	m_pLinkQuest = NULL;

  00010	89 48 0c	 mov	 DWORD PTR [eax+12], ecx

; 12   : }

  00013	c3		 ret	 0
??0QuestDataParent@@QAE@XZ ENDP				; QuestDataParent::QuestDataParent
_TEXT	ENDS
PUBLIC	??1QuestDataParent@@UAE@XZ			; QuestDataParent::~QuestDataParent
; Function compile flags: /Ogsp
;	COMDAT ??1QuestDataParent@@UAE@XZ
_TEXT	SEGMENT
??1QuestDataParent@@UAE@XZ PROC				; QuestDataParent::~QuestDataParent, COMDAT
; _this$ = ecx

; 15   : {

  00000	c7 01 00 00 00
	00		 mov	 DWORD PTR [ecx], OFFSET ??_7QuestDataParent@@6B@

; 16   : 
; 17   : }

  00006	c3		 ret	 0
??1QuestDataParent@@UAE@XZ ENDP				; QuestDataParent::~QuestDataParent
_TEXT	ENDS
PUBLIC	?GetMainIndex@QuestDataParent@@QAEKXZ		; QuestDataParent::GetMainIndex
; Function compile flags: /Ogsp
;	COMDAT ?GetMainIndex@QuestDataParent@@QAEKXZ
_TEXT	SEGMENT
?GetMainIndex@QuestDataParent@@QAEKXZ PROC		; QuestDataParent::GetMainIndex, COMDAT
; _this$ = ecx

; 21   : 	return m_dwIndexData / INDEX_HALF_VALUE;

  00000	8b 41 04	 mov	 eax, DWORD PTR [ecx+4]
  00003	33 d2		 xor	 edx, edx
  00005	b9 10 27 00 00	 mov	 ecx, 10000		; 00002710H
  0000a	f7 f1		 div	 ecx

; 22   : }

  0000c	c3		 ret	 0
?GetMainIndex@QuestDataParent@@QAEKXZ ENDP		; QuestDataParent::GetMainIndex
_TEXT	ENDS
PUBLIC	?GetSubIndex@QuestDataParent@@QAEKXZ		; QuestDataParent::GetSubIndex
; Function compile flags: /Ogsp
;	COMDAT ?GetSubIndex@QuestDataParent@@QAEKXZ
_TEXT	SEGMENT
?GetSubIndex@QuestDataParent@@QAEKXZ PROC		; QuestDataParent::GetSubIndex, COMDAT
; _this$ = ecx

; 26   : 	return m_dwIndexData % INDEX_HALF_VALUE;

  00000	8b 41 04	 mov	 eax, DWORD PTR [ecx+4]
  00003	33 d2		 xor	 edx, edx
  00005	b9 10 27 00 00	 mov	 ecx, 10000		; 00002710H
  0000a	f7 f1		 div	 ecx
  0000c	8b c2		 mov	 eax, edx

; 27   : }

  0000e	c3		 ret	 0
?GetSubIndex@QuestDataParent@@QAEKXZ ENDP		; QuestDataParent::GetSubIndex
_TEXT	ENDS
PUBLIC	?GetYear@QuestDataParent@@QAEKXZ		; QuestDataParent::GetYear
EXTRN	?GetYear@ioTime@@YAKK@Z:PROC			; ioTime::GetYear
; Function compile flags: /Ogsp
;	COMDAT ?GetYear@QuestDataParent@@QAEKXZ
_TEXT	SEGMENT
?GetYear@QuestDataParent@@QAEKXZ PROC			; QuestDataParent::GetYear, COMDAT
; _this$ = ecx

; 31   : 	return ioTime::GetYear( m_dwDateData );

  00000	ff 71 08	 push	 DWORD PTR [ecx+8]
  00003	e8 00 00 00 00	 call	 ?GetYear@ioTime@@YAKK@Z	; ioTime::GetYear
  00008	59		 pop	 ecx

; 32   : }

  00009	c3		 ret	 0
?GetYear@QuestDataParent@@QAEKXZ ENDP			; QuestDataParent::GetYear
_TEXT	ENDS
PUBLIC	?GetMonth@QuestDataParent@@QAEKXZ		; QuestDataParent::GetMonth
EXTRN	?GetMonth@ioTime@@YAKK@Z:PROC			; ioTime::GetMonth
; Function compile flags: /Ogsp
;	COMDAT ?GetMonth@QuestDataParent@@QAEKXZ
_TEXT	SEGMENT
?GetMonth@QuestDataParent@@QAEKXZ PROC			; QuestDataParent::GetMonth, COMDAT
; _this$ = ecx

; 36   : 	return ioTime::GetMonth( m_dwDateData );

  00000	ff 71 08	 push	 DWORD PTR [ecx+8]
  00003	e8 00 00 00 00	 call	 ?GetMonth@ioTime@@YAKK@Z ; ioTime::GetMonth
  00008	59		 pop	 ecx

; 37   : }

  00009	c3		 ret	 0
?GetMonth@QuestDataParent@@QAEKXZ ENDP			; QuestDataParent::GetMonth
_TEXT	ENDS
PUBLIC	?GetDay@QuestDataParent@@QAEKXZ			; QuestDataParent::GetDay
EXTRN	?GetDay@ioTime@@YAKK@Z:PROC			; ioTime::GetDay
; Function compile flags: /Ogsp
;	COMDAT ?GetDay@QuestDataParent@@QAEKXZ
_TEXT	SEGMENT
?GetDay@QuestDataParent@@QAEKXZ PROC			; QuestDataParent::GetDay, COMDAT
; _this$ = ecx

; 41   : 	return ioTime::GetDay( m_dwDateData );

  00000	ff 71 08	 push	 DWORD PTR [ecx+8]
  00003	e8 00 00 00 00	 call	 ?GetDay@ioTime@@YAKK@Z	; ioTime::GetDay
  00008	59		 pop	 ecx

; 42   : }

  00009	c3		 ret	 0
?GetDay@QuestDataParent@@QAEKXZ ENDP			; QuestDataParent::GetDay
_TEXT	ENDS
PUBLIC	?GetHour@QuestDataParent@@QAEKXZ		; QuestDataParent::GetHour
EXTRN	?GetHour@ioTime@@YAKK@Z:PROC			; ioTime::GetHour
; Function compile flags: /Ogsp
;	COMDAT ?GetHour@QuestDataParent@@QAEKXZ
_TEXT	SEGMENT
?GetHour@QuestDataParent@@QAEKXZ PROC			; QuestDataParent::GetHour, COMDAT
; _this$ = ecx

; 46   : 	return ioTime::GetHour( m_dwDateData );

  00000	ff 71 08	 push	 DWORD PTR [ecx+8]
  00003	e8 00 00 00 00	 call	 ?GetHour@ioTime@@YAKK@Z	; ioTime::GetHour
  00008	59		 pop	 ecx

; 47   : }

  00009	c3		 ret	 0
?GetHour@QuestDataParent@@QAEKXZ ENDP			; QuestDataParent::GetHour
_TEXT	ENDS
PUBLIC	?GetMinute@QuestDataParent@@QAEKXZ		; QuestDataParent::GetMinute
EXTRN	?GetMinute@ioTime@@YAKK@Z:PROC			; ioTime::GetMinute
; Function compile flags: /Ogsp
;	COMDAT ?GetMinute@QuestDataParent@@QAEKXZ
_TEXT	SEGMENT
?GetMinute@QuestDataParent@@QAEKXZ PROC			; QuestDataParent::GetMinute, COMDAT
; _this$ = ecx

; 51   : 	return ioTime::GetMinute( m_dwDateData );

  00000	ff 71 08	 push	 DWORD PTR [ecx+8]
  00003	e8 00 00 00 00	 call	 ?GetMinute@ioTime@@YAKK@Z ; ioTime::GetMinute
  00008	59		 pop	 ecx

; 52   : }

  00009	c3		 ret	 0
?GetMinute@QuestDataParent@@QAEKXZ ENDP			; QuestDataParent::GetMinute
_TEXT	ENDS
PUBLIC	?SetIndexData@QuestDataParent@@QAEXK@Z		; QuestDataParent::SetIndexData
; Function compile flags: /Ogsp
;	COMDAT ?SetIndexData@QuestDataParent@@QAEXK@Z
_TEXT	SEGMENT
_dwIndexData$ = 8					; size = 4
?SetIndexData@QuestDataParent@@QAEXK@Z PROC		; QuestDataParent::SetIndexData, COMDAT
; _this$ = ecx

; 64   : {

  00000	55		 push	 ebp
  00001	8b ec		 mov	 ebp, esp

; 65   : 	m_dwIndexData = dwIndexData;

  00003	8b 45 08	 mov	 eax, DWORD PTR _dwIndexData$[ebp]
  00006	89 41 04	 mov	 DWORD PTR [ecx+4], eax

; 66   : }

  00009	5d		 pop	 ebp
  0000a	c2 04 00	 ret	 4
?SetIndexData@QuestDataParent@@QAEXK@Z ENDP		; QuestDataParent::SetIndexData
_TEXT	ENDS
PUBLIC	?SetDateData@QuestDataParent@@QAEXK@Z		; QuestDataParent::SetDateData
; Function compile flags: /Ogsp
;	COMDAT ?SetDateData@QuestDataParent@@QAEXK@Z
_TEXT	SEGMENT
_dwDateData$ = 8					; size = 4
?SetDateData@QuestDataParent@@QAEXK@Z PROC		; QuestDataParent::SetDateData, COMDAT
; _this$ = ecx

; 69   : {

  00000	55		 push	 ebp
  00001	8b ec		 mov	 ebp, esp

; 70   : 	m_dwDateData = dwDateData;

  00003	8b 45 08	 mov	 eax, DWORD PTR _dwDateData$[ebp]
  00006	89 41 08	 mov	 DWORD PTR [ecx+8], eax

; 71   : }

  00009	5d		 pop	 ebp
  0000a	c2 04 00	 ret	 4
?SetDateData@QuestDataParent@@QAEXK@Z ENDP		; QuestDataParent::SetDateData
_TEXT	ENDS
PUBLIC	?SetLinkQuest@QuestDataParent@@QAEXPAVQuestParent@@@Z ; QuestDataParent::SetLinkQuest
; Function compile flags: /Ogsp
;	COMDAT ?SetLinkQuest@QuestDataParent@@QAEXPAVQuestParent@@@Z
_TEXT	SEGMENT
_pQuest$ = 8						; size = 4
?SetLinkQuest@QuestDataParent@@QAEXPAVQuestParent@@@Z PROC ; QuestDataParent::SetLinkQuest, COMDAT
; _this$ = ecx

; 74   : {

  00000	55		 push	 ebp
  00001	8b ec		 mov	 ebp, esp

; 75   : 	m_pLinkQuest = pQuest;

  00003	8b 45 08	 mov	 eax, DWORD PTR _pQuest$[ebp]
  00006	89 41 0c	 mov	 DWORD PTR [ecx+12], eax

; 76   : }

  00009	5d		 pop	 ebp
  0000a	c2 04 00	 ret	 4
?SetLinkQuest@QuestDataParent@@QAEXPAVQuestParent@@@Z ENDP ; QuestDataParent::SetLinkQuest
_TEXT	ENDS
PUBLIC	?GetCurrentMagicData@QuestData@@QAEKXZ		; QuestData::GetCurrentMagicData
; Function compile flags: /Ogsp
;	COMDAT ?GetCurrentMagicData@QuestData@@QAEKXZ
_TEXT	SEGMENT
?GetCurrentMagicData@QuestData@@QAEKXZ PROC		; QuestData::GetCurrentMagicData, COMDAT
; _this$ = ecx

; 105  : 	return m_dwMagicData / MAGIC_VALUE;

  00000	8b 41 40	 mov	 eax, DWORD PTR [ecx+64]
  00003	6a 64		 push	 100			; 00000064H
  00005	33 d2		 xor	 edx, edx
  00007	59		 pop	 ecx
  00008	f7 f1		 div	 ecx

; 106  : }

  0000a	c3		 ret	 0
?GetCurrentMagicData@QuestData@@QAEKXZ ENDP		; QuestData::GetCurrentMagicData
_TEXT	ENDS
PUBLIC	?IsAlarm@QuestData@@QAE_NXZ			; QuestData::IsAlarm
; Function compile flags: /Ogsp
;	COMDAT ?IsAlarm@QuestData@@QAE_NXZ
_TEXT	SEGMENT
?IsAlarm@QuestData@@QAE_NXZ PROC			; QuestData::IsAlarm, COMDAT
; _this$ = ecx

; 110  : 	if( ( ( m_dwMagicData % MAGIC_VALUE ) / ALARM_VALUE ) == 0 )

  00000	8b 41 40	 mov	 eax, DWORD PTR [ecx+64]
  00003	6a 64		 push	 100			; 00000064H
  00005	33 d2		 xor	 edx, edx
  00007	59		 pop	 ecx
  00008	f7 f1		 div	 ecx
  0000a	6a 0a		 push	 10			; 0000000aH
  0000c	59		 pop	 ecx
  0000d	8b c2		 mov	 eax, edx
  0000f	33 d2		 xor	 edx, edx
  00011	f7 f1		 div	 ecx
  00013	85 c0		 test	 eax, eax
  00015	0f 95 c0	 setne	 al

; 111  : 		return false;
; 112  : 	return true;
; 113  : }

  00018	c3		 ret	 0
?IsAlarm@QuestData@@QAE_NXZ ENDP			; QuestData::IsAlarm
_TEXT	ENDS
PUBLIC	?GetState@QuestData@@QAEKXZ			; QuestData::GetState
; Function compile flags: /Ogsp
;	COMDAT ?GetState@QuestData@@QAEKXZ
_TEXT	SEGMENT
?GetState@QuestData@@QAEKXZ PROC			; QuestData::GetState, COMDAT
; _this$ = ecx

; 117  : 	return ( m_dwMagicData % ALARM_VALUE );

  00000	8b 41 40	 mov	 eax, DWORD PTR [ecx+64]
  00003	6a 0a		 push	 10			; 0000000aH
  00005	33 d2		 xor	 edx, edx
  00007	59		 pop	 ecx
  00008	f7 f1		 div	 ecx
  0000a	8b c2		 mov	 eax, edx

; 118  : }

  0000c	c3		 ret	 0
?GetState@QuestData@@QAEKXZ ENDP			; QuestData::GetState
_TEXT	ENDS
PUBLIC	?SetMainIndex@QuestData@@QAEXK@Z		; QuestData::SetMainIndex
EXTRN	?GetQuest@ioQuestManager@@QAEPAVQuestParent@@KK@Z:PROC ; ioQuestManager::GetQuest
EXTRN	?GetSingleton@ioQuestManager@@SAAAV1@XZ:PROC	; ioQuestManager::GetSingleton
; Function compile flags: /Ogsp
;	COMDAT ?SetMainIndex@QuestData@@QAEXK@Z
_TEXT	SEGMENT
_dwMainIndex$ = 8					; size = 4
?SetMainIndex@QuestData@@QAEXK@Z PROC			; QuestData::SetMainIndex, COMDAT
; _this$ = ecx

; 121  : {

  00000	55		 push	 ebp
  00001	8b ec		 mov	 ebp, esp
  00003	53		 push	 ebx
  00004	56		 push	 esi
  00005	8b f1		 mov	 esi, ecx

; 122  : 	m_dwIndexData = (dwMainIndex * INDEX_HALF_VALUE) + GetSubIndex();

  00007	8b 46 04	 mov	 eax, DWORD PTR [esi+4]
  0000a	b9 10 27 00 00	 mov	 ecx, 10000		; 00002710H
  0000f	33 d2		 xor	 edx, edx
  00011	8b d9		 mov	 ebx, ecx
  00013	f7 f3		 div	 ebx
  00015	57		 push	 edi
  00016	8b 7d 08	 mov	 edi, DWORD PTR _dwMainIndex$[ebp]
  00019	69 ff 10 27 00
	00		 imul	 edi, 10000		; 00002710H
  0001f	8d 04 17	 lea	 eax, DWORD PTR [edi+edx]

; 123  : 	SetLinkQuest( g_QuestMgr.GetQuest( GetMainIndex(), GetSubIndex() ) );

  00022	33 d2		 xor	 edx, edx
  00024	89 46 04	 mov	 DWORD PTR [esi+4], eax
  00027	f7 f1		 div	 ecx
  00029	52		 push	 edx
  0002a	50		 push	 eax
  0002b	e8 00 00 00 00	 call	 ?GetSingleton@ioQuestManager@@SAAAV1@XZ ; ioQuestManager::GetSingleton
  00030	8b c8		 mov	 ecx, eax
  00032	e8 00 00 00 00	 call	 ?GetQuest@ioQuestManager@@QAEPAVQuestParent@@KK@Z ; ioQuestManager::GetQuest
  00037	5f		 pop	 edi
  00038	89 46 0c	 mov	 DWORD PTR [esi+12], eax
  0003b	5e		 pop	 esi
  0003c	5b		 pop	 ebx

; 124  : }

  0003d	5d		 pop	 ebp
  0003e	c2 04 00	 ret	 4
?SetMainIndex@QuestData@@QAEXK@Z ENDP			; QuestData::SetMainIndex
_TEXT	ENDS
PUBLIC	?SetSubIndex@QuestData@@QAEXK@Z			; QuestData::SetSubIndex
; Function compile flags: /Ogsp
;	COMDAT ?SetSubIndex@QuestData@@QAEXK@Z
_TEXT	SEGMENT
_dwSubIndex$ = 8					; size = 4
?SetSubIndex@QuestData@@QAEXK@Z PROC			; QuestData::SetSubIndex, COMDAT
; _this$ = ecx

; 127  : {

  00000	55		 push	 ebp
  00001	8b ec		 mov	 ebp, esp
  00003	56		 push	 esi
  00004	8b f1		 mov	 esi, ecx

; 128  : 	m_dwIndexData = (GetMainIndex() * INDEX_HALF_VALUE) + dwSubIndex;

  00006	8b 46 04	 mov	 eax, DWORD PTR [esi+4]
  00009	b9 10 27 00 00	 mov	 ecx, 10000		; 00002710H
  0000e	57		 push	 edi
  0000f	33 d2		 xor	 edx, edx
  00011	8b f9		 mov	 edi, ecx
  00013	f7 f7		 div	 edi

; 129  : 	SetLinkQuest( g_QuestMgr.GetQuest( GetMainIndex(), GetSubIndex() ) );

  00015	33 d2		 xor	 edx, edx
  00017	69 c0 10 27 00
	00		 imul	 eax, 10000		; 00002710H
  0001d	03 45 08	 add	 eax, DWORD PTR _dwSubIndex$[ebp]
  00020	89 46 04	 mov	 DWORD PTR [esi+4], eax
  00023	f7 f1		 div	 ecx
  00025	52		 push	 edx
  00026	50		 push	 eax
  00027	e8 00 00 00 00	 call	 ?GetSingleton@ioQuestManager@@SAAAV1@XZ ; ioQuestManager::GetSingleton
  0002c	8b c8		 mov	 ecx, eax
  0002e	e8 00 00 00 00	 call	 ?GetQuest@ioQuestManager@@QAEPAVQuestParent@@KK@Z ; ioQuestManager::GetQuest
  00033	5f		 pop	 edi
  00034	89 46 0c	 mov	 DWORD PTR [esi+12], eax
  00037	5e		 pop	 esi

; 130  : }

  00038	5d		 pop	 ebp
  00039	c2 04 00	 ret	 4
?SetSubIndex@QuestData@@QAEXK@Z ENDP			; QuestData::SetSubIndex
_TEXT	ENDS
PUBLIC	?SetCurrentMagicData@QuestData@@QAEXK@Z		; QuestData::SetCurrentMagicData
; Function compile flags: /Ogsp
;	COMDAT ?SetCurrentMagicData@QuestData@@QAEXK@Z
_TEXT	SEGMENT
_dwCurrentMagicData$ = 8				; size = 4
?SetCurrentMagicData@QuestData@@QAEXK@Z PROC		; QuestData::SetCurrentMagicData, COMDAT
; _this$ = ecx

; 142  : {

  00000	55		 push	 ebp
  00001	8b ec		 mov	 ebp, esp
  00003	53		 push	 ebx
  00004	56		 push	 esi
  00005	57		 push	 edi
  00006	8b f1		 mov	 esi, ecx

; 143  : 	DWORD dwPrevData = GetCurrentMagicData();

  00008	8b 7e 40	 mov	 edi, DWORD PTR [esi+64]
  0000b	6a 64		 push	 100			; 00000064H
  0000d	59		 pop	 ecx
  0000e	33 d2		 xor	 edx, edx
  00010	8b c7		 mov	 eax, edi
  00012	f7 f1		 div	 ecx

; 144  : 	m_dwMagicData = (dwCurrentMagicData * MAGIC_VALUE) + ((int)IsAlarm() * ALARM_VALUE) + GetState();

  00014	8b ce		 mov	 ecx, esi
  00016	8b d8		 mov	 ebx, eax
  00018	e8 00 00 00 00	 call	 ?IsAlarm@QuestData@@QAE_NXZ ; QuestData::IsAlarm
  0001d	0f b6 c8	 movzx	 ecx, al
  00020	8b 45 08	 mov	 eax, DWORD PTR _dwCurrentMagicData$[ebp]
  00023	6b c0 0a	 imul	 eax, 10			; 0000000aH
  00026	03 c8		 add	 ecx, eax
  00028	8b c7		 mov	 eax, edi
  0002a	6b c9 0a	 imul	 ecx, 10			; 0000000aH
  0002d	6a 0a		 push	 10			; 0000000aH
  0002f	33 d2		 xor	 edx, edx
  00031	5f		 pop	 edi
  00032	f7 f7		 div	 edi
  00034	03 ca		 add	 ecx, edx
  00036	89 4e 40	 mov	 DWORD PTR [esi+64], ecx

; 145  : 
; 146  : 	if( dwCurrentMagicData != dwPrevData )

  00039	39 5d 08	 cmp	 DWORD PTR _dwCurrentMagicData$[ebp], ebx
  0003c	74 04		 je	 SHORT $LN1@SetCurrent

; 147  : 		m_bChangeData = true;

  0003e	c6 46 44 01	 mov	 BYTE PTR [esi+68], 1
$LN1@SetCurrent:
  00042	5f		 pop	 edi
  00043	5e		 pop	 esi
  00044	5b		 pop	 ebx

; 148  : }

  00045	5d		 pop	 ebp
  00046	c2 04 00	 ret	 4
?SetCurrentMagicData@QuestData@@QAEXK@Z ENDP		; QuestData::SetCurrentMagicData
_TEXT	ENDS
PUBLIC	?SetAlarm@QuestData@@QAEX_N@Z			; QuestData::SetAlarm
; Function compile flags: /Ogsp
;	COMDAT ?SetAlarm@QuestData@@QAEX_N@Z
_TEXT	SEGMENT
_bAlarm$ = 8						; size = 1
?SetAlarm@QuestData@@QAEX_N@Z PROC			; QuestData::SetAlarm, COMDAT
; _this$ = ecx

; 151  : {

  00000	55		 push	 ebp
  00001	8b ec		 mov	 ebp, esp
  00003	56		 push	 esi

; 152  : 	m_dwMagicData = (GetCurrentMagicData() * MAGIC_VALUE) + ((int)bAlarm * ALARM_VALUE) + GetState();

  00004	8b 71 40	 mov	 esi, DWORD PTR [ecx+64]
  00007	57		 push	 edi
  00008	6a 64		 push	 100			; 00000064H
  0000a	5f		 pop	 edi
  0000b	33 d2		 xor	 edx, edx
  0000d	8b c6		 mov	 eax, esi
  0000f	f7 f7		 div	 edi
  00011	6a 0a		 push	 10			; 0000000aH
  00013	33 d2		 xor	 edx, edx
  00015	8b f8		 mov	 edi, eax
  00017	0f b6 45 08	 movzx	 eax, BYTE PTR _bAlarm$[ebp]
  0001b	6b ff 0a	 imul	 edi, 10			; 0000000aH
  0001e	03 f8		 add	 edi, eax
  00020	8b c6		 mov	 eax, esi
  00022	6b ff 0a	 imul	 edi, 10			; 0000000aH
  00025	5e		 pop	 esi
  00026	f7 f6		 div	 esi
  00028	03 fa		 add	 edi, edx
  0002a	89 79 40	 mov	 DWORD PTR [ecx+64], edi
  0002d	5f		 pop	 edi
  0002e	5e		 pop	 esi

; 153  : }

  0002f	5d		 pop	 ebp
  00030	c2 04 00	 ret	 4
?SetAlarm@QuestData@@QAEX_N@Z ENDP			; QuestData::SetAlarm
_TEXT	ENDS
PUBLIC	?SetState@QuestData@@QAEXK@Z			; QuestData::SetState
; Function compile flags: /Ogsp
;	COMDAT ?SetState@QuestData@@QAEXK@Z
_TEXT	SEGMENT
_dwState$ = 8						; size = 4
?SetState@QuestData@@QAEXK@Z PROC			; QuestData::SetState, COMDAT
; _this$ = ecx

; 156  : {

  00000	55		 push	 ebp
  00001	8b ec		 mov	 ebp, esp
  00003	56		 push	 esi
  00004	57		 push	 edi
  00005	8b f1		 mov	 esi, ecx

; 157  : 	m_dwMagicData = (GetCurrentMagicData() * MAGIC_VALUE) + ((int)IsAlarm() * ALARM_VALUE) + dwState;

  00007	e8 00 00 00 00	 call	 ?IsAlarm@QuestData@@QAE_NXZ ; QuestData::IsAlarm
  0000c	0f b6 c8	 movzx	 ecx, al
  0000f	8b 46 40	 mov	 eax, DWORD PTR [esi+64]
  00012	6a 64		 push	 100			; 00000064H
  00014	33 d2		 xor	 edx, edx
  00016	5f		 pop	 edi
  00017	f7 f7		 div	 edi
  00019	6b c0 0a	 imul	 eax, 10			; 0000000aH
  0001c	03 c8		 add	 ecx, eax
  0001e	6b c9 0a	 imul	 ecx, 10			; 0000000aH
  00021	03 4d 08	 add	 ecx, DWORD PTR _dwState$[ebp]

; 158  : 
; 159  : 	// 진행중이 아니면 알람 해제
; 160  : 	if( dwState != QS_PROGRESS ) 

  00024	83 7d 08 00	 cmp	 DWORD PTR _dwState$[ebp], 0
  00028	89 4e 40	 mov	 DWORD PTR [esi+64], ecx
  0002b	74 09		 je	 SHORT $LN1@SetState

; 161  : 		SetAlarm( false );

  0002d	6a 00		 push	 0
  0002f	8b ce		 mov	 ecx, esi
  00031	e8 00 00 00 00	 call	 ?SetAlarm@QuestData@@QAEX_N@Z ; QuestData::SetAlarm
$LN1@SetState:
  00036	5f		 pop	 edi
  00037	5e		 pop	 esi

; 162  : }

  00038	5d		 pop	 ebp
  00039	c2 04 00	 ret	 4
?SetState@QuestData@@QAEXK@Z ENDP			; QuestData::SetState
_TEXT	ENDS
PUBLIC	?ApplyData@QuestData@@QAEXAAVSP2Packet@@@Z	; QuestData::ApplyData
EXTRN	??5SP2Packet@@QAEAAV0@AAV?$CEncrypt@K@@@Z:PROC	; SP2Packet::operator>>
EXTRN	??5SP2Packet@@QAEAAV0@AAK@Z:PROC		; SP2Packet::operator>>
; Function compile flags: /Ogsp
;	COMDAT ?ApplyData@QuestData@@QAEXAAVSP2Packet@@@Z
_TEXT	SEGMENT
_rkPacket$ = 8						; size = 4
?ApplyData@QuestData@@QAEXAAVSP2Packet@@@Z PROC		; QuestData::ApplyData, COMDAT
; _this$ = ecx

; 165  : {

  00000	55		 push	 ebp
  00001	8b ec		 mov	 ebp, esp
  00003	56		 push	 esi
  00004	8b f1		 mov	 esi, ecx

; 166  : 	rkPacket >> m_dwIndexData >> m_dwValueData >> m_dwMagicData >> m_dwDateData;

  00006	8b 4d 08	 mov	 ecx, DWORD PTR _rkPacket$[ebp]
  00009	57		 push	 edi
  0000a	8d 46 08	 lea	 eax, DWORD PTR [esi+8]
  0000d	50		 push	 eax
  0000e	8d 46 40	 lea	 eax, DWORD PTR [esi+64]
  00011	50		 push	 eax
  00012	8d 46 10	 lea	 eax, DWORD PTR [esi+16]
  00015	50		 push	 eax
  00016	8d 7e 04	 lea	 edi, DWORD PTR [esi+4]
  00019	57		 push	 edi
  0001a	e8 00 00 00 00	 call	 ??5SP2Packet@@QAEAAV0@AAK@Z ; SP2Packet::operator>>
  0001f	8b c8		 mov	 ecx, eax
  00021	e8 00 00 00 00	 call	 ??5SP2Packet@@QAEAAV0@AAV?$CEncrypt@K@@@Z ; SP2Packet::operator>>
  00026	8b c8		 mov	 ecx, eax
  00028	e8 00 00 00 00	 call	 ??5SP2Packet@@QAEAAV0@AAK@Z ; SP2Packet::operator>>
  0002d	8b c8		 mov	 ecx, eax
  0002f	e8 00 00 00 00	 call	 ??5SP2Packet@@QAEAAV0@AAK@Z ; SP2Packet::operator>>

; 167  : 	SetLinkQuest( g_QuestMgr.GetQuest( GetMainIndex(), GetSubIndex() ) );

  00034	8b 07		 mov	 eax, DWORD PTR [edi]
  00036	33 d2		 xor	 edx, edx
  00038	b9 10 27 00 00	 mov	 ecx, 10000		; 00002710H
  0003d	f7 f1		 div	 ecx
  0003f	52		 push	 edx
  00040	50		 push	 eax
  00041	e8 00 00 00 00	 call	 ?GetSingleton@ioQuestManager@@SAAAV1@XZ ; ioQuestManager::GetSingleton
  00046	8b c8		 mov	 ecx, eax
  00048	e8 00 00 00 00	 call	 ?GetQuest@ioQuestManager@@QAEPAVQuestParent@@KK@Z ; ioQuestManager::GetQuest
  0004d	5f		 pop	 edi
  0004e	89 46 0c	 mov	 DWORD PTR [esi+12], eax
  00051	5e		 pop	 esi

; 168  : }

  00052	5d		 pop	 ebp
  00053	c2 04 00	 ret	 4
?ApplyData@QuestData@@QAEXAAVSP2Packet@@@Z ENDP		; QuestData::ApplyData
_TEXT	ENDS
PUBLIC	??_7QuestCompleteData@@6B@			; QuestCompleteData::`vftable'
PUBLIC	??0QuestCompleteData@@QAE@XZ			; QuestCompleteData::QuestCompleteData
PUBLIC	??_R4QuestCompleteData@@6B@			; QuestCompleteData::`RTTI Complete Object Locator'
PUBLIC	??_R0?AVQuestCompleteData@@@8			; QuestCompleteData `RTTI Type Descriptor'
PUBLIC	??_R3QuestCompleteData@@8			; QuestCompleteData::`RTTI Class Hierarchy Descriptor'
PUBLIC	??_R2QuestCompleteData@@8			; QuestCompleteData::`RTTI Base Class Array'
PUBLIC	??_R1A@?0A@EA@QuestCompleteData@@8		; QuestCompleteData::`RTTI Base Class Descriptor at (0,-1,0,64)'
EXTRN	??_EQuestCompleteData@@UAEPAXI@Z:PROC		; QuestCompleteData::`vector deleting destructor'
;	COMDAT ??_R1A@?0A@EA@QuestCompleteData@@8
rdata$r	SEGMENT
??_R1A@?0A@EA@QuestCompleteData@@8 DD FLAT:??_R0?AVQuestCompleteData@@@8 ; QuestCompleteData::`RTTI Base Class Descriptor at (0,-1,0,64)'
	DD	01H
	DD	00H
	DD	0ffffffffH
	DD	00H
	DD	040H
	DD	FLAT:??_R3QuestCompleteData@@8
rdata$r	ENDS
;	COMDAT ??_R2QuestCompleteData@@8
rdata$r	SEGMENT
??_R2QuestCompleteData@@8 DD FLAT:??_R1A@?0A@EA@QuestCompleteData@@8 ; QuestCompleteData::`RTTI Base Class Array'
	DD	FLAT:??_R1A@?0A@EA@QuestDataParent@@8
rdata$r	ENDS
;	COMDAT ??_R3QuestCompleteData@@8
rdata$r	SEGMENT
??_R3QuestCompleteData@@8 DD 00H			; QuestCompleteData::`RTTI Class Hierarchy Descriptor'
	DD	00H
	DD	02H
	DD	FLAT:??_R2QuestCompleteData@@8
rdata$r	ENDS
;	COMDAT ??_R0?AVQuestCompleteData@@@8
_DATA	SEGMENT
??_R0?AVQuestCompleteData@@@8 DD FLAT:??_7type_info@@6B@ ; QuestCompleteData `RTTI Type Descriptor'
	DD	00H
	DB	'.?AVQuestCompleteData@@', 00H
_DATA	ENDS
;	COMDAT ??_R4QuestCompleteData@@6B@
rdata$r	SEGMENT
??_R4QuestCompleteData@@6B@ DD 00H			; QuestCompleteData::`RTTI Complete Object Locator'
	DD	00H
	DD	00H
	DD	FLAT:??_R0?AVQuestCompleteData@@@8
	DD	FLAT:??_R3QuestCompleteData@@8
rdata$r	ENDS
;	COMDAT ??_7QuestCompleteData@@6B@
CONST	SEGMENT
??_7QuestCompleteData@@6B@ DD FLAT:??_R4QuestCompleteData@@6B@ ; QuestCompleteData::`vftable'
	DD	FLAT:?GetIndexData@QuestDataParent@@UBE?BKXZ
	DD	FLAT:?GetDateData@QuestDataParent@@UBE?BKXZ
	DD	FLAT:?GetLinkQuest@QuestDataParent@@UAEPAVQuestParent@@XZ
	DD	FLAT:??_EQuestCompleteData@@UAEPAXI@Z
; Function compile flags: /Ogsp
CONST	ENDS
;	COMDAT ??0QuestCompleteData@@QAE@XZ
_TEXT	SEGMENT
??0QuestCompleteData@@QAE@XZ PROC			; QuestCompleteData::QuestCompleteData, COMDAT
; _this$ = ecx

; 171  : {

  00000	8b c1		 mov	 eax, ecx

; 172  : 	m_dwIndexData = m_dwDateData = 0;

  00002	33 c9		 xor	 ecx, ecx
  00004	c7 00 00 00 00
	00		 mov	 DWORD PTR [eax], OFFSET ??_7QuestCompleteData@@6B@
  0000a	89 48 08	 mov	 DWORD PTR [eax+8], ecx
  0000d	89 48 04	 mov	 DWORD PTR [eax+4], ecx

; 173  : 	m_pLinkQuest = NULL;

  00010	89 48 0c	 mov	 DWORD PTR [eax+12], ecx

; 174  : }

  00013	c3		 ret	 0
??0QuestCompleteData@@QAE@XZ ENDP			; QuestCompleteData::QuestCompleteData
_TEXT	ENDS
PUBLIC	??1QuestCompleteData@@UAE@XZ			; QuestCompleteData::~QuestCompleteData
; Function compile flags: /Ogsp
;	COMDAT ??1QuestCompleteData@@UAE@XZ
_TEXT	SEGMENT
??1QuestCompleteData@@UAE@XZ PROC			; QuestCompleteData::~QuestCompleteData, COMDAT
; _this$ = ecx

; 178  : 
; 179  : }

  00000	c7 01 00 00 00
	00		 mov	 DWORD PTR [ecx], OFFSET ??_7QuestDataParent@@6B@
  00006	c3		 ret	 0
??1QuestCompleteData@@UAE@XZ ENDP			; QuestCompleteData::~QuestCompleteData
_TEXT	ENDS
PUBLIC	?ApplyData@QuestCompleteData@@QAEXAAVSP2Packet@@@Z ; QuestCompleteData::ApplyData
; Function compile flags: /Ogsp
;	COMDAT ?ApplyData@QuestCompleteData@@QAEXAAVSP2Packet@@@Z
_TEXT	SEGMENT
_rkPacket$ = 8						; size = 4
?ApplyData@QuestCompleteData@@QAEXAAVSP2Packet@@@Z PROC	; QuestCompleteData::ApplyData, COMDAT
; _this$ = ecx

; 182  : {

  00000	55		 push	 ebp
  00001	8b ec		 mov	 ebp, esp
  00003	56		 push	 esi
  00004	8b f1		 mov	 esi, ecx

; 183  : 	rkPacket >> m_dwIndexData >> m_dwDateData;

  00006	8b 4d 08	 mov	 ecx, DWORD PTR _rkPacket$[ebp]
  00009	57		 push	 edi
  0000a	8d 46 08	 lea	 eax, DWORD PTR [esi+8]
  0000d	50		 push	 eax
  0000e	8d 7e 04	 lea	 edi, DWORD PTR [esi+4]
  00011	57		 push	 edi
  00012	e8 00 00 00 00	 call	 ??5SP2Packet@@QAEAAV0@AAK@Z ; SP2Packet::operator>>
  00017	8b c8		 mov	 ecx, eax
  00019	e8 00 00 00 00	 call	 ??5SP2Packet@@QAEAAV0@AAK@Z ; SP2Packet::operator>>

; 184  : 	SetLinkQuest( g_QuestMgr.GetQuest( GetMainIndex(), GetSubIndex() ) );

  0001e	8b 07		 mov	 eax, DWORD PTR [edi]
  00020	33 d2		 xor	 edx, edx
  00022	b9 10 27 00 00	 mov	 ecx, 10000		; 00002710H
  00027	f7 f1		 div	 ecx
  00029	52		 push	 edx
  0002a	50		 push	 eax
  0002b	e8 00 00 00 00	 call	 ?GetSingleton@ioQuestManager@@SAAAV1@XZ ; ioQuestManager::GetSingleton
  00030	8b c8		 mov	 ecx, eax
  00032	e8 00 00 00 00	 call	 ?GetQuest@ioQuestManager@@QAEPAVQuestParent@@KK@Z ; ioQuestManager::GetQuest
  00037	5f		 pop	 edi
  00038	89 46 0c	 mov	 DWORD PTR [esi+12], eax
  0003b	5e		 pop	 esi

; 185  : }

  0003c	5d		 pop	 ebp
  0003d	c2 04 00	 ret	 4
?ApplyData@QuestCompleteData@@QAEXAAVSP2Packet@@@Z ENDP	; QuestCompleteData::ApplyData
_TEXT	ENDS
PUBLIC	??4QuestDataParent@@QAEAAV0@ABV0@@Z		; QuestDataParent::operator=
; Function compile flags: /Ogsp
;	COMDAT ??4QuestDataParent@@QAEAAV0@ABV0@@Z
_TEXT	SEGMENT
___that$ = 8						; size = 4
??4QuestDataParent@@QAEAAV0@ABV0@@Z PROC		; QuestDataParent::operator=, COMDAT
; _this$ = ecx
  00000	55		 push	 ebp
  00001	8b ec		 mov	 ebp, esp
  00003	8b c1		 mov	 eax, ecx
  00005	8b 4d 08	 mov	 ecx, DWORD PTR ___that$[ebp]
  00008	8b 51 04	 mov	 edx, DWORD PTR [ecx+4]
  0000b	89 50 04	 mov	 DWORD PTR [eax+4], edx
  0000e	8b 51 08	 mov	 edx, DWORD PTR [ecx+8]
  00011	89 50 08	 mov	 DWORD PTR [eax+8], edx
  00014	8b 49 0c	 mov	 ecx, DWORD PTR [ecx+12]
  00017	89 48 0c	 mov	 DWORD PTR [eax+12], ecx
  0001a	5d		 pop	 ebp
  0001b	c2 04 00	 ret	 4
??4QuestDataParent@@QAEAAV0@ABV0@@Z ENDP		; QuestDataParent::operator=
_TEXT	ENDS
PUBLIC	??4QuestCompleteData@@QAEAAV0@ABV0@@Z		; QuestCompleteData::operator=
; Function compile flags: /Ogsp
;	COMDAT ??4QuestCompleteData@@QAEAAV0@ABV0@@Z
_TEXT	SEGMENT
___that$ = 8						; size = 4
??4QuestCompleteData@@QAEAAV0@ABV0@@Z PROC		; QuestCompleteData::operator=, COMDAT
; _this$ = ecx
  00000	55		 push	 ebp
  00001	8b ec		 mov	 ebp, esp
  00003	8b c1		 mov	 eax, ecx
  00005	8b 4d 08	 mov	 ecx, DWORD PTR ___that$[ebp]
  00008	8b 51 04	 mov	 edx, DWORD PTR [ecx+4]
  0000b	89 50 04	 mov	 DWORD PTR [eax+4], edx
  0000e	8b 51 08	 mov	 edx, DWORD PTR [ecx+8]
  00011	89 50 08	 mov	 DWORD PTR [eax+8], edx
  00014	8b 49 0c	 mov	 ecx, DWORD PTR [ecx+12]
  00017	89 48 0c	 mov	 DWORD PTR [eax+12], ecx
  0001a	5d		 pop	 ebp
  0001b	c2 04 00	 ret	 4
??4QuestCompleteData@@QAEAAV0@ABV0@@Z ENDP		; QuestCompleteData::operator=
_TEXT	ENDS
PUBLIC	??_7bad_alloc@std@@6B@				; std::bad_alloc::`vftable'
PUBLIC	??0bad_alloc@std@@QAE@PBD@Z			; std::bad_alloc::bad_alloc
PUBLIC	??_R4bad_alloc@std@@6B@				; std::bad_alloc::`RTTI Complete Object Locator'
PUBLIC	??_R0?AVbad_alloc@std@@@8			; std::bad_alloc `RTTI Type Descriptor'
PUBLIC	??_R3bad_alloc@std@@8				; std::bad_alloc::`RTTI Class Hierarchy Descriptor'
PUBLIC	??_R2bad_alloc@std@@8				; std::bad_alloc::`RTTI Base Class Array'
PUBLIC	??_R1A@?0A@EA@bad_alloc@std@@8			; std::bad_alloc::`RTTI Base Class Descriptor at (0,-1,0,64)'
PUBLIC	??_R1A@?0A@EA@exception@std@@8			; std::exception::`RTTI Base Class Descriptor at (0,-1,0,64)'
PUBLIC	??_R0?AVexception@std@@@8			; std::exception `RTTI Type Descriptor'
PUBLIC	??_R3exception@std@@8				; std::exception::`RTTI Class Hierarchy Descriptor'
PUBLIC	??_R2exception@std@@8				; std::exception::`RTTI Base Class Array'
EXTRN	__imp_??0exception@std@@QAE@ABQBD@Z:PROC
EXTRN	??_Ebad_alloc@std@@UAEPAXI@Z:PROC		; std::bad_alloc::`vector deleting destructor'
EXTRN	?what@exception@std@@UBEPBDXZ:PROC		; std::exception::what
;	COMDAT ??_R2exception@std@@8
; File c:\program files (x86)\microsoft visual studio 10.0\vc\include\exception
rdata$r	SEGMENT
??_R2exception@std@@8 DD FLAT:??_R1A@?0A@EA@exception@std@@8 ; std::exception::`RTTI Base Class Array'
rdata$r	ENDS
;	COMDAT ??_R3exception@std@@8
rdata$r	SEGMENT
??_R3exception@std@@8 DD 00H				; std::exception::`RTTI Class Hierarchy Descriptor'
	DD	00H
	DD	01H
	DD	FLAT:??_R2exception@std@@8
rdata$r	ENDS
;	COMDAT ??_R0?AVexception@std@@@8
_DATA	SEGMENT
??_R0?AVexception@std@@@8 DD FLAT:??_7type_info@@6B@	; std::exception `RTTI Type Descriptor'
	DD	00H
	DB	'.?AVexception@std@@', 00H
_DATA	ENDS
;	COMDAT ??_R1A@?0A@EA@exception@std@@8
rdata$r	SEGMENT
??_R1A@?0A@EA@exception@std@@8 DD FLAT:??_R0?AVexception@std@@@8 ; std::exception::`RTTI Base Class Descriptor at (0,-1,0,64)'
	DD	00H
	DD	00H
	DD	0ffffffffH
	DD	00H
	DD	040H
	DD	FLAT:??_R3exception@std@@8
rdata$r	ENDS
;	COMDAT ??_R1A@?0A@EA@bad_alloc@std@@8
rdata$r	SEGMENT
??_R1A@?0A@EA@bad_alloc@std@@8 DD FLAT:??_R0?AVbad_alloc@std@@@8 ; std::bad_alloc::`RTTI Base Class Descriptor at (0,-1,0,64)'
	DD	01H
	DD	00H
	DD	0ffffffffH
	DD	00H
	DD	040H
	DD	FLAT:??_R3bad_alloc@std@@8
rdata$r	ENDS
;	COMDAT ??_R2bad_alloc@std@@8
rdata$r	SEGMENT
??_R2bad_alloc@std@@8 DD FLAT:??_R1A@?0A@EA@bad_alloc@std@@8 ; std::bad_alloc::`RTTI Base Class Array'
	DD	FLAT:??_R1A@?0A@EA@exception@std@@8
rdata$r	ENDS
;	COMDAT ??_R3bad_alloc@std@@8
rdata$r	SEGMENT
??_R3bad_alloc@std@@8 DD 00H				; std::bad_alloc::`RTTI Class Hierarchy Descriptor'
	DD	00H
	DD	02H
	DD	FLAT:??_R2bad_alloc@std@@8
rdata$r	ENDS
;	COMDAT ??_R0?AVbad_alloc@std@@@8
_DATA	SEGMENT
??_R0?AVbad_alloc@std@@@8 DD FLAT:??_7type_info@@6B@	; std::bad_alloc `RTTI Type Descriptor'
	DD	00H
	DB	'.?AVbad_alloc@std@@', 00H
_DATA	ENDS
;	COMDAT ??_R4bad_alloc@std@@6B@
rdata$r	SEGMENT
??_R4bad_alloc@std@@6B@ DD 00H				; std::bad_alloc::`RTTI Complete Object Locator'
	DD	00H
	DD	00H
	DD	FLAT:??_R0?AVbad_alloc@std@@@8
	DD	FLAT:??_R3bad_alloc@std@@8
rdata$r	ENDS
;	COMDAT ??_7bad_alloc@std@@6B@
CONST	SEGMENT
??_7bad_alloc@std@@6B@ DD FLAT:??_R4bad_alloc@std@@6B@	; std::bad_alloc::`vftable'
	DD	FLAT:??_Ebad_alloc@std@@UAEPAXI@Z
	DD	FLAT:?what@exception@std@@UBEPBDXZ
; Function compile flags: /Ogsp
CONST	ENDS
;	COMDAT ??0bad_alloc@std@@QAE@PBD@Z
_TEXT	SEGMENT
__Message$ = 8						; size = 4
??0bad_alloc@std@@QAE@PBD@Z PROC			; std::bad_alloc::bad_alloc, COMDAT
; _this$ = ecx

; 345  : 		{	// construct from message string

  00000	55		 push	 ebp
  00001	8b ec		 mov	 ebp, esp
  00003	56		 push	 esi
  00004	8d 45 08	 lea	 eax, DWORD PTR __Message$[ebp]
  00007	50		 push	 eax
  00008	8b f1		 mov	 esi, ecx
  0000a	ff 15 00 00 00
	00		 call	 DWORD PTR __imp_??0exception@std@@QAE@ABQBD@Z
  00010	c7 06 00 00 00
	00		 mov	 DWORD PTR [esi], OFFSET ??_7bad_alloc@std@@6B@

; 346  : 		}

  00016	8b c6		 mov	 eax, esi
  00018	5e		 pop	 esi
  00019	5d		 pop	 ebp
  0001a	c2 04 00	 ret	 4
??0bad_alloc@std@@QAE@PBD@Z ENDP			; std::bad_alloc::bad_alloc
_TEXT	ENDS
PUBLIC	??1bad_alloc@std@@UAE@XZ			; std::bad_alloc::~bad_alloc
EXTRN	__imp_??1exception@std@@UAE@XZ:PROC
; Function compile flags: /Ogsp
;	COMDAT ??1bad_alloc@std@@UAE@XZ
_TEXT	SEGMENT
??1bad_alloc@std@@UAE@XZ PROC				; std::bad_alloc::~bad_alloc, COMDAT
; _this$ = ecx

; 354  : 		{	// destroy the object

  00000	c7 01 00 00 00
	00		 mov	 DWORD PTR [ecx], OFFSET ??_7bad_alloc@std@@6B@

; 355  : 		}

  00006	ff 25 00 00 00
	00		 jmp	 DWORD PTR __imp_??1exception@std@@UAE@XZ
??1bad_alloc@std@@UAE@XZ ENDP				; std::bad_alloc::~bad_alloc
_TEXT	ENDS
EXTRN	??3@YAXPAX@Z:PROC				; operator delete
; Function compile flags: /Ogsp
;	COMDAT ??_Gbad_alloc@std@@UAEPAXI@Z
_TEXT	SEGMENT
___flags$ = 8						; size = 4
??_Gbad_alloc@std@@UAEPAXI@Z PROC			; std::bad_alloc::`scalar deleting destructor', COMDAT
; _this$ = ecx
  00000	55		 push	 ebp
  00001	8b ec		 mov	 ebp, esp
  00003	56		 push	 esi
  00004	8b f1		 mov	 esi, ecx
  00006	c7 06 00 00 00
	00		 mov	 DWORD PTR [esi], OFFSET ??_7bad_alloc@std@@6B@
  0000c	ff 15 00 00 00
	00		 call	 DWORD PTR __imp_??1exception@std@@UAE@XZ
  00012	f6 45 08 01	 test	 BYTE PTR ___flags$[ebp], 1
  00016	74 07		 je	 SHORT $LN1@scalar
  00018	56		 push	 esi
  00019	e8 00 00 00 00	 call	 ??3@YAXPAX@Z		; operator delete
  0001e	59		 pop	 ecx
$LN1@scalar:
  0001f	8b c6		 mov	 eax, esi
  00021	5e		 pop	 esi
  00022	5d		 pop	 ebp
  00023	c2 04 00	 ret	 4
??_Gbad_alloc@std@@UAEPAXI@Z ENDP			; std::bad_alloc::`scalar deleting destructor'
_TEXT	ENDS
PUBLIC	??2@YAPAXIPAX@Z					; operator new
; Function compile flags: /Ogsp
; File c:\program files (x86)\microsoft visual studio 10.0\vc\include\new
;	COMDAT ??2@YAPAXIPAX@Z
_TEXT	SEGMENT
___formal$ = 8						; size = 4
__Where$ = 12						; size = 4
??2@YAPAXIPAX@Z PROC					; operator new, COMDAT

; 56   : 	{	// construct array with placement at _Where

  00000	55		 push	 ebp
  00001	8b ec		 mov	 ebp, esp

; 57   : 	return (_Where);

  00003	8b 45 0c	 mov	 eax, DWORD PTR __Where$[ebp]

; 58   : 	}

  00006	5d		 pop	 ebp
  00007	c3		 ret	 0
??2@YAPAXIPAX@Z ENDP					; operator new
_TEXT	ENDS
PUBLIC	??3@YAXPAX0@Z					; operator delete
; Function compile flags: /Ogsp
;	COMDAT ??3@YAXPAX0@Z
_TEXT	SEGMENT
___formal$ = 8						; size = 4
___formal$ = 12						; size = 4
??3@YAXPAX0@Z PROC					; operator delete, COMDAT

; 62   : 	}

  00000	c3		 ret	 0
??3@YAXPAX0@Z ENDP					; operator delete
_TEXT	ENDS
PUBLIC	??0QuestDataParent@@QAE@ABV0@@Z			; QuestDataParent::QuestDataParent
; Function compile flags: /Ogsp
;	COMDAT ??0QuestDataParent@@QAE@ABV0@@Z
_TEXT	SEGMENT
___that$ = 8						; size = 4
??0QuestDataParent@@QAE@ABV0@@Z PROC			; QuestDataParent::QuestDataParent, COMDAT
; _this$ = ecx
  00000	55		 push	 ebp
  00001	8b ec		 mov	 ebp, esp
  00003	8b c1		 mov	 eax, ecx
  00005	8b 4d 08	 mov	 ecx, DWORD PTR ___that$[ebp]
  00008	c7 00 00 00 00
	00		 mov	 DWORD PTR [eax], OFFSET ??_7QuestDataParent@@6B@
  0000e	8b 51 04	 mov	 edx, DWORD PTR [ecx+4]
  00011	89 50 04	 mov	 DWORD PTR [eax+4], edx
  00014	8b 51 08	 mov	 edx, DWORD PTR [ecx+8]
  00017	89 50 08	 mov	 DWORD PTR [eax+8], edx
  0001a	8b 49 0c	 mov	 ecx, DWORD PTR [ecx+12]
  0001d	89 48 0c	 mov	 DWORD PTR [eax+12], ecx
  00020	5d		 pop	 ebp
  00021	c2 04 00	 ret	 4
??0QuestDataParent@@QAE@ABV0@@Z ENDP			; QuestDataParent::QuestDataParent
_TEXT	ENDS
PUBLIC	??1?$_Vector_val@PAVQuestData@@V?$allocator@PAVQuestData@@@std@@@std@@QAE@XZ ; std::_Vector_val<QuestData *,std::allocator<QuestData *> >::~_Vector_val<QuestData *,std::allocator<QuestData *> >
; Function compile flags: /Ogsp
; File c:\program files (x86)\microsoft visual studio 10.0\vc\include\vector
;	COMDAT ??1?$_Vector_val@PAVQuestData@@V?$allocator@PAVQuestData@@@std@@@std@@QAE@XZ
_TEXT	SEGMENT
??1?$_Vector_val@PAVQuestData@@V?$allocator@PAVQuestData@@@std@@@std@@QAE@XZ PROC ; std::_Vector_val<QuestData *,std::allocator<QuestData *> >::~_Vector_val<QuestData *,std::allocator<QuestData *> >, COMDAT
; _this$ = ecx

; 434  : 		}

  00000	c3		 ret	 0
??1?$_Vector_val@PAVQuestData@@V?$allocator@PAVQuestData@@@std@@@std@@QAE@XZ ENDP ; std::_Vector_val<QuestData *,std::allocator<QuestData *> >::~_Vector_val<QuestData *,std::allocator<QuestData *> >
_TEXT	ENDS
PUBLIC	??0?$allocator@PAVQuestData@@@std@@QAE@XZ	; std::allocator<QuestData *>::allocator<QuestData *>
; Function compile flags: /Ogsp
; File c:\program files (x86)\microsoft visual studio 10.0\vc\include\xmemory
;	COMDAT ??0?$allocator@PAVQuestData@@@std@@QAE@XZ
_TEXT	SEGMENT
??0?$allocator@PAVQuestData@@@std@@QAE@XZ PROC		; std::allocator<QuestData *>::allocator<QuestData *>, COMDAT
; _this$ = ecx

; 161  : 	_ALLOCATOR() _THROW0()

  00000	8b c1		 mov	 eax, ecx

; 162  : 		{	// construct default allocator (do nothing)
; 163  : 		}

  00002	c3		 ret	 0
??0?$allocator@PAVQuestData@@@std@@QAE@XZ ENDP		; std::allocator<QuestData *>::allocator<QuestData *>
_TEXT	ENDS
PUBLIC	?_Adopt@_Iterator_base0@std@@QAEXPBX@Z		; std::_Iterator_base0::_Adopt
; Function compile flags: /Ogsp
; File c:\program files (x86)\microsoft visual studio 10.0\vc\include\xutility
;	COMDAT ?_Adopt@_Iterator_base0@std@@QAEXPBX@Z
_TEXT	SEGMENT
___formal$ = 8						; size = 4
?_Adopt@_Iterator_base0@std@@QAEXPBX@Z PROC		; std::_Iterator_base0::_Adopt, COMDAT
; _this$ = ecx

; 49   : 		}

  00000	c2 04 00	 ret	 4
?_Adopt@_Iterator_base0@std@@QAEXPBX@Z ENDP		; std::_Iterator_base0::_Adopt
_TEXT	ENDS
PUBLIC	??1?$_Vector_val@PAVQuestCompleteData@@V?$allocator@PAVQuestCompleteData@@@std@@@std@@QAE@XZ ; std::_Vector_val<QuestCompleteData *,std::allocator<QuestCompleteData *> >::~_Vector_val<QuestCompleteData *,std::allocator<QuestCompleteData *> >
; Function compile flags: /Ogsp
; File c:\program files (x86)\microsoft visual studio 10.0\vc\include\vector
;	COMDAT ??1?$_Vector_val@PAVQuestCompleteData@@V?$allocator@PAVQuestCompleteData@@@std@@@std@@QAE@XZ
_TEXT	SEGMENT
??1?$_Vector_val@PAVQuestCompleteData@@V?$allocator@PAVQuestCompleteData@@@std@@@std@@QAE@XZ PROC ; std::_Vector_val<QuestCompleteData *,std::allocator<QuestCompleteData *> >::~_Vector_val<QuestCompleteData *,std::allocator<QuestCompleteData *> >, COMDAT
; _this$ = ecx

; 434  : 		}

  00000	c3		 ret	 0
??1?$_Vector_val@PAVQuestCompleteData@@V?$allocator@PAVQuestCompleteData@@@std@@@std@@QAE@XZ ENDP ; std::_Vector_val<QuestCompleteData *,std::allocator<QuestCompleteData *> >::~_Vector_val<QuestCompleteData *,std::allocator<QuestCompleteData *> >
_TEXT	ENDS
PUBLIC	??0?$allocator@PAVQuestCompleteData@@@std@@QAE@XZ ; std::allocator<QuestCompleteData *>::allocator<QuestCompleteData *>
; Function compile flags: /Ogsp
; File c:\program files (x86)\microsoft visual studio 10.0\vc\include\xmemory
;	COMDAT ??0?$allocator@PAVQuestCompleteData@@@std@@QAE@XZ
_TEXT	SEGMENT
??0?$allocator@PAVQuestCompleteData@@@std@@QAE@XZ PROC	; std::allocator<QuestCompleteData *>::allocator<QuestCompleteData *>, COMDAT
; _this$ = ecx

; 161  : 	_ALLOCATOR() _THROW0()

  00000	8b c1		 mov	 eax, ecx

; 162  : 		{	// construct default allocator (do nothing)
; 163  : 		}

  00002	c3		 ret	 0
??0?$allocator@PAVQuestCompleteData@@@std@@QAE@XZ ENDP	; std::allocator<QuestCompleteData *>::allocator<QuestCompleteData *>
_TEXT	ENDS
PUBLIC	??0?$_Vector_const_iterator@V?$_Vector_val@PAVQuestData@@V?$allocator@PAVQuestData@@@std@@@std@@@std@@QAE@XZ ; std::_Vector_const_iterator<std::_Vector_val<QuestData *,std::allocator<QuestData *> > >::_Vector_const_iterator<std::_Vector_val<QuestData *,std::allocator<QuestData *> > >
; Function compile flags: /Ogsp
; File c:\program files (x86)\microsoft visual studio 10.0\vc\include\vector
;	COMDAT ??0?$_Vector_const_iterator@V?$_Vector_val@PAVQuestData@@V?$allocator@PAVQuestData@@@std@@@std@@@std@@QAE@XZ
_TEXT	SEGMENT
??0?$_Vector_const_iterator@V?$_Vector_val@PAVQuestData@@V?$allocator@PAVQuestData@@@std@@@std@@@std@@QAE@XZ PROC ; std::_Vector_const_iterator<std::_Vector_val<QuestData *,std::allocator<QuestData *> > >::_Vector_const_iterator<std::_Vector_val<QuestData *,std::allocator<QuestData *> > >, COMDAT
; _this$ = ecx

; 40   : 		{	// construct with null pointer

  00000	8b c1		 mov	 eax, ecx
  00002	83 20 00	 and	 DWORD PTR [eax], 0

; 41   : 		}

  00005	c3		 ret	 0
??0?$_Vector_const_iterator@V?$_Vector_val@PAVQuestData@@V?$allocator@PAVQuestData@@@std@@@std@@@std@@QAE@XZ ENDP ; std::_Vector_const_iterator<std::_Vector_val<QuestData *,std::allocator<QuestData *> > >::_Vector_const_iterator<std::_Vector_val<QuestData *,std::allocator<QuestData *> > >
_TEXT	ENDS
PUBLIC	??D?$_Vector_const_iterator@V?$_Vector_val@PAVQuestData@@V?$allocator@PAVQuestData@@@std@@@std@@@std@@QBEABQAVQuestData@@XZ ; std::_Vector_const_iterator<std::_Vector_val<QuestData *,std::allocator<QuestData *> > >::operator*
; Function compile flags: /Ogsp
;	COMDAT ??D?$_Vector_const_iterator@V?$_Vector_val@PAVQuestData@@V?$allocator@PAVQuestData@@@std@@@std@@@std@@QBEABQAVQuestData@@XZ
_TEXT	SEGMENT
??D?$_Vector_const_iterator@V?$_Vector_val@PAVQuestData@@V?$allocator@PAVQuestData@@@std@@@std@@@std@@QBEABQAVQuestData@@XZ PROC ; std::_Vector_const_iterator<std::_Vector_val<QuestData *,std::allocator<QuestData *> > >::operator*, COMDAT
; _this$ = ecx

; 64   :  #if _ITERATOR_DEBUG_LEVEL == 2
; 65   : 		if (this->_Getcont() == 0
; 66   : 			|| this->_Ptr == 0
; 67   : 			|| this->_Ptr < ((_Myvec *)this->_Getcont())->_Myfirst
; 68   : 			|| ((_Myvec *)this->_Getcont())->_Mylast <= this->_Ptr)
; 69   : 			{	// report error
; 70   : 			_DEBUG_ERROR("vector iterator not dereferencable");
; 71   : 			_SCL_SECURE_OUT_OF_RANGE;
; 72   : 			}
; 73   : 
; 74   :  #elif _ITERATOR_DEBUG_LEVEL == 1
; 75   : 		_SCL_SECURE_VALIDATE(this->_Getcont() != 0);
; 76   : 		_SCL_SECURE_VALIDATE_RANGE(
; 77   : 			this->_Ptr != 0
; 78   : 			&& ((_Myvec *)this->_Getcont())->_Myfirst <= this->_Ptr
; 79   : 			&& this->_Ptr < ((_Myvec *)this->_Getcont())->_Mylast);
; 80   :  #endif /* _ITERATOR_DEBUG_LEVEL */
; 81   : 
; 82   : 		__analysis_assume(this->_Ptr != 0);
; 83   : 
; 84   : 		return (*this->_Ptr);

  00000	8b 01		 mov	 eax, DWORD PTR [ecx]

; 85   : 		}

  00002	c3		 ret	 0
??D?$_Vector_const_iterator@V?$_Vector_val@PAVQuestData@@V?$allocator@PAVQuestData@@@std@@@std@@@std@@QBEABQAVQuestData@@XZ ENDP ; std::_Vector_const_iterator<std::_Vector_val<QuestData *,std::allocator<QuestData *> > >::operator*
_TEXT	ENDS
PUBLIC	??E?$_Vector_const_iterator@V?$_Vector_val@PAVQuestData@@V?$allocator@PAVQuestData@@@std@@@std@@@std@@QAEAAV01@XZ ; std::_Vector_const_iterator<std::_Vector_val<QuestData *,std::allocator<QuestData *> > >::operator++
; Function compile flags: /Ogsp
;	COMDAT ??E?$_Vector_const_iterator@V?$_Vector_val@PAVQuestData@@V?$allocator@PAVQuestData@@@std@@@std@@@std@@QAEAAV01@XZ
_TEXT	SEGMENT
??E?$_Vector_const_iterator@V?$_Vector_val@PAVQuestData@@V?$allocator@PAVQuestData@@@std@@@std@@@std@@QAEAAV01@XZ PROC ; std::_Vector_const_iterator<std::_Vector_val<QuestData *,std::allocator<QuestData *> > >::operator++, COMDAT
; _this$ = ecx

; 93   : 		{	// preincrement

  00000	8b c1		 mov	 eax, ecx

; 94   :  #if _ITERATOR_DEBUG_LEVEL == 2
; 95   : 		if (this->_Getcont() == 0
; 96   : 			|| this->_Ptr == 0
; 97   : 			|| ((_Myvec *)this->_Getcont())->_Mylast <= this->_Ptr)
; 98   : 			{	// report error
; 99   : 			_DEBUG_ERROR("vector iterator not incrementable");
; 100  : 			_SCL_SECURE_OUT_OF_RANGE;
; 101  : 			}
; 102  : 
; 103  :  #elif _ITERATOR_DEBUG_LEVEL == 1
; 104  : 		_SCL_SECURE_VALIDATE(this->_Getcont() != 0);
; 105  : 		_SCL_SECURE_VALIDATE_RANGE(
; 106  : 			this->_Ptr != 0
; 107  : 			&& this->_Ptr < ((_Myvec *)this->_Getcont())->_Mylast);
; 108  :  #endif /* _ITERATOR_DEBUG_LEVEL */
; 109  : 
; 110  : 		++this->_Ptr;

  00002	83 00 04	 add	 DWORD PTR [eax], 4

; 111  : 		return (*this);
; 112  : 		}

  00005	c3		 ret	 0
??E?$_Vector_const_iterator@V?$_Vector_val@PAVQuestData@@V?$allocator@PAVQuestData@@@std@@@std@@@std@@QAEAAV01@XZ ENDP ; std::_Vector_const_iterator<std::_Vector_val<QuestData *,std::allocator<QuestData *> > >::operator++
_TEXT	ENDS
PUBLIC	??0?$_Vector_const_iterator@V?$_Vector_val@PAVQuestCompleteData@@V?$allocator@PAVQuestCompleteData@@@std@@@std@@@std@@QAE@XZ ; std::_Vector_const_iterator<std::_Vector_val<QuestCompleteData *,std::allocator<QuestCompleteData *> > >::_Vector_const_iterator<std::_Vector_val<QuestCompleteData *,std::allocator<QuestCompleteData *> > >
; Function compile flags: /Ogsp
;	COMDAT ??0?$_Vector_const_iterator@V?$_Vector_val@PAVQuestCompleteData@@V?$allocator@PAVQuestCompleteData@@@std@@@std@@@std@@QAE@XZ
_TEXT	SEGMENT
??0?$_Vector_const_iterator@V?$_Vector_val@PAVQuestCompleteData@@V?$allocator@PAVQuestCompleteData@@@std@@@std@@@std@@QAE@XZ PROC ; std::_Vector_const_iterator<std::_Vector_val<QuestCompleteData *,std::allocator<QuestCompleteData *> > >::_Vector_const_iterator<std::_Vector_val<QuestCompleteData *,std::allocator<QuestCompleteData *> > >, COMDAT
; _this$ = ecx

; 40   : 		{	// construct with null pointer

  00000	8b c1		 mov	 eax, ecx
  00002	83 20 00	 and	 DWORD PTR [eax], 0

; 41   : 		}

  00005	c3		 ret	 0
??0?$_Vector_const_iterator@V?$_Vector_val@PAVQuestCompleteData@@V?$allocator@PAVQuestCompleteData@@@std@@@std@@@std@@QAE@XZ ENDP ; std::_Vector_const_iterator<std::_Vector_val<QuestCompleteData *,std::allocator<QuestCompleteData *> > >::_Vector_const_iterator<std::_Vector_val<QuestCompleteData *,std::allocator<QuestCompleteData *> > >
_TEXT	ENDS
PUBLIC	??D?$_Vector_const_iterator@V?$_Vector_val@PAVQuestCompleteData@@V?$allocator@PAVQuestCompleteData@@@std@@@std@@@std@@QBEABQAVQuestCompleteData@@XZ ; std::_Vector_const_iterator<std::_Vector_val<QuestCompleteData *,std::allocator<QuestCompleteData *> > >::operator*
; Function compile flags: /Ogsp
;	COMDAT ??D?$_Vector_const_iterator@V?$_Vector_val@PAVQuestCompleteData@@V?$allocator@PAVQuestCompleteData@@@std@@@std@@@std@@QBEABQAVQuestCompleteData@@XZ
_TEXT	SEGMENT
??D?$_Vector_const_iterator@V?$_Vector_val@PAVQuestCompleteData@@V?$allocator@PAVQuestCompleteData@@@std@@@std@@@std@@QBEABQAVQuestCompleteData@@XZ PROC ; std::_Vector_const_iterator<std::_Vector_val<QuestCompleteData *,std::allocator<QuestCompleteData *> > >::operator*, COMDAT
; _this$ = ecx

; 64   :  #if _ITERATOR_DEBUG_LEVEL == 2
; 65   : 		if (this->_Getcont() == 0
; 66   : 			|| this->_Ptr == 0
; 67   : 			|| this->_Ptr < ((_Myvec *)this->_Getcont())->_Myfirst
; 68   : 			|| ((_Myvec *)this->_Getcont())->_Mylast <= this->_Ptr)
; 69   : 			{	// report error
; 70   : 			_DEBUG_ERROR("vector iterator not dereferencable");
; 71   : 			_SCL_SECURE_OUT_OF_RANGE;
; 72   : 			}
; 73   : 
; 74   :  #elif _ITERATOR_DEBUG_LEVEL == 1
; 75   : 		_SCL_SECURE_VALIDATE(this->_Getcont() != 0);
; 76   : 		_SCL_SECURE_VALIDATE_RANGE(
; 77   : 			this->_Ptr != 0
; 78   : 			&& ((_Myvec *)this->_Getcont())->_Myfirst <= this->_Ptr
; 79   : 			&& this->_Ptr < ((_Myvec *)this->_Getcont())->_Mylast);
; 80   :  #endif /* _ITERATOR_DEBUG_LEVEL */
; 81   : 
; 82   : 		__analysis_assume(this->_Ptr != 0);
; 83   : 
; 84   : 		return (*this->_Ptr);

  00000	8b 01		 mov	 eax, DWORD PTR [ecx]

; 85   : 		}

  00002	c3		 ret	 0
??D?$_Vector_const_iterator@V?$_Vector_val@PAVQuestCompleteData@@V?$allocator@PAVQuestCompleteData@@@std@@@std@@@std@@QBEABQAVQuestCompleteData@@XZ ENDP ; std::_Vector_const_iterator<std::_Vector_val<QuestCompleteData *,std::allocator<QuestCompleteData *> > >::operator*
_TEXT	ENDS
PUBLIC	??E?$_Vector_const_iterator@V?$_Vector_val@PAVQuestCompleteData@@V?$allocator@PAVQuestCompleteData@@@std@@@std@@@std@@QAEAAV01@XZ ; std::_Vector_const_iterator<std::_Vector_val<QuestCompleteData *,std::allocator<QuestCompleteData *> > >::operator++
; Function compile flags: /Ogsp
;	COMDAT ??E?$_Vector_const_iterator@V?$_Vector_val@PAVQuestCompleteData@@V?$allocator@PAVQuestCompleteData@@@std@@@std@@@std@@QAEAAV01@XZ
_TEXT	SEGMENT
??E?$_Vector_const_iterator@V?$_Vector_val@PAVQuestCompleteData@@V?$allocator@PAVQuestCompleteData@@@std@@@std@@@std@@QAEAAV01@XZ PROC ; std::_Vector_const_iterator<std::_Vector_val<QuestCompleteData *,std::allocator<QuestCompleteData *> > >::operator++, COMDAT
; _this$ = ecx

; 93   : 		{	// preincrement

  00000	8b c1		 mov	 eax, ecx

; 94   :  #if _ITERATOR_DEBUG_LEVEL == 2
; 95   : 		if (this->_Getcont() == 0
; 96   : 			|| this->_Ptr == 0
; 97   : 			|| ((_Myvec *)this->_Getcont())->_Mylast <= this->_Ptr)
; 98   : 			{	// report error
; 99   : 			_DEBUG_ERROR("vector iterator not incrementable");
; 100  : 			_SCL_SECURE_OUT_OF_RANGE;
; 101  : 			}
; 102  : 
; 103  :  #elif _ITERATOR_DEBUG_LEVEL == 1
; 104  : 		_SCL_SECURE_VALIDATE(this->_Getcont() != 0);
; 105  : 		_SCL_SECURE_VALIDATE_RANGE(
; 106  : 			this->_Ptr != 0
; 107  : 			&& this->_Ptr < ((_Myvec *)this->_Getcont())->_Mylast);
; 108  :  #endif /* _ITERATOR_DEBUG_LEVEL */
; 109  : 
; 110  : 		++this->_Ptr;

  00002	83 00 04	 add	 DWORD PTR [eax], 4

; 111  : 		return (*this);
; 112  : 		}

  00005	c3		 ret	 0
??E?$_Vector_const_iterator@V?$_Vector_val@PAVQuestCompleteData@@V?$allocator@PAVQuestCompleteData@@@std@@@std@@@std@@QAEAAV01@XZ ENDP ; std::_Vector_const_iterator<std::_Vector_val<QuestCompleteData *,std::allocator<QuestCompleteData *> > >::operator++
_TEXT	ENDS
PUBLIC	??0?$allocator@PAVQuestData@@@std@@QAE@ABV01@@Z	; std::allocator<QuestData *>::allocator<QuestData *>
; Function compile flags: /Ogsp
; File c:\program files (x86)\microsoft visual studio 10.0\vc\include\xmemory
;	COMDAT ??0?$allocator@PAVQuestData@@@std@@QAE@ABV01@@Z
_TEXT	SEGMENT
___formal$ = 8						; size = 4
??0?$allocator@PAVQuestData@@@std@@QAE@ABV01@@Z PROC	; std::allocator<QuestData *>::allocator<QuestData *>, COMDAT
; _this$ = ecx

; 165  : 	_ALLOCATOR(const _ALLOCATOR<_Ty>&) _THROW0()

  00000	8b c1		 mov	 eax, ecx

; 166  : 		{	// construct by copying (do nothing)
; 167  : 		}

  00002	c2 04 00	 ret	 4
??0?$allocator@PAVQuestData@@@std@@QAE@ABV01@@Z ENDP	; std::allocator<QuestData *>::allocator<QuestData *>
_TEXT	ENDS
PUBLIC	?deallocate@?$allocator@PAVQuestData@@@std@@QAEXPAPAVQuestData@@I@Z ; std::allocator<QuestData *>::deallocate
; Function compile flags: /Ogsp
;	COMDAT ?deallocate@?$allocator@PAVQuestData@@@std@@QAEXPAPAVQuestData@@I@Z
_TEXT	SEGMENT
__Ptr$ = 8						; size = 4
___formal$ = 12						; size = 4
?deallocate@?$allocator@PAVQuestData@@@std@@QAEXPAPAVQuestData@@I@Z PROC ; std::allocator<QuestData *>::deallocate, COMDAT
; _this$ = ecx

; 181  : 		{	// deallocate object at _Ptr, ignore size

  00000	55		 push	 ebp
  00001	8b ec		 mov	 ebp, esp

; 182  : 		::operator delete(_Ptr);

  00003	ff 75 08	 push	 DWORD PTR __Ptr$[ebp]
  00006	e8 00 00 00 00	 call	 ??3@YAXPAX@Z		; operator delete
  0000b	59		 pop	 ecx

; 183  : 		}

  0000c	5d		 pop	 ebp
  0000d	c2 08 00	 ret	 8
?deallocate@?$allocator@PAVQuestData@@@std@@QAEXPAPAVQuestData@@I@Z ENDP ; std::allocator<QuestData *>::deallocate
_TEXT	ENDS
PUBLIC	??0?$allocator@PAVQuestCompleteData@@@std@@QAE@ABV01@@Z ; std::allocator<QuestCompleteData *>::allocator<QuestCompleteData *>
; Function compile flags: /Ogsp
;	COMDAT ??0?$allocator@PAVQuestCompleteData@@@std@@QAE@ABV01@@Z
_TEXT	SEGMENT
___formal$ = 8						; size = 4
??0?$allocator@PAVQuestCompleteData@@@std@@QAE@ABV01@@Z PROC ; std::allocator<QuestCompleteData *>::allocator<QuestCompleteData *>, COMDAT
; _this$ = ecx

; 165  : 	_ALLOCATOR(const _ALLOCATOR<_Ty>&) _THROW0()

  00000	8b c1		 mov	 eax, ecx

; 166  : 		{	// construct by copying (do nothing)
; 167  : 		}

  00002	c2 04 00	 ret	 4
??0?$allocator@PAVQuestCompleteData@@@std@@QAE@ABV01@@Z ENDP ; std::allocator<QuestCompleteData *>::allocator<QuestCompleteData *>
_TEXT	ENDS
PUBLIC	?deallocate@?$allocator@PAVQuestCompleteData@@@std@@QAEXPAPAVQuestCompleteData@@I@Z ; std::allocator<QuestCompleteData *>::deallocate
; Function compile flags: /Ogsp
;	COMDAT ?deallocate@?$allocator@PAVQuestCompleteData@@@std@@QAEXPAPAVQuestCompleteData@@I@Z
_TEXT	SEGMENT
__Ptr$ = 8						; size = 4
___formal$ = 12						; size = 4
?deallocate@?$allocator@PAVQuestCompleteData@@@std@@QAEXPAPAVQuestCompleteData@@I@Z PROC ; std::allocator<QuestCompleteData *>::deallocate, COMDAT
; _this$ = ecx

; 181  : 		{	// deallocate object at _Ptr, ignore size

  00000	55		 push	 ebp
  00001	8b ec		 mov	 ebp, esp

; 182  : 		::operator delete(_Ptr);

  00003	ff 75 08	 push	 DWORD PTR __Ptr$[ebp]
  00006	e8 00 00 00 00	 call	 ??3@YAXPAX@Z		; operator delete
  0000b	59		 pop	 ecx

; 183  : 		}

  0000c	5d		 pop	 ebp
  0000d	c2 08 00	 ret	 8
?deallocate@?$allocator@PAVQuestCompleteData@@@std@@QAEXPAPAVQuestCompleteData@@I@Z ENDP ; std::allocator<QuestCompleteData *>::deallocate
_TEXT	ENDS
PUBLIC	??0?$_Vector_const_iterator@V?$_Vector_val@PAVQuestData@@V?$allocator@PAVQuestData@@@std@@@std@@@std@@QAE@PAPAVQuestData@@PBU_Container_base0@1@@Z ; std::_Vector_const_iterator<std::_Vector_val<QuestData *,std::allocator<QuestData *> > >::_Vector_const_iterator<std::_Vector_val<QuestData *,std::allocator<QuestData *> > >
; Function compile flags: /Ogsp
; File c:\program files (x86)\microsoft visual studio 10.0\vc\include\vector
;	COMDAT ??0?$_Vector_const_iterator@V?$_Vector_val@PAVQuestData@@V?$allocator@PAVQuestData@@@std@@@std@@@std@@QAE@PAPAVQuestData@@PBU_Container_base0@1@@Z
_TEXT	SEGMENT
__Parg$ = 8						; size = 4
__Pvector$ = 12						; size = 4
??0?$_Vector_const_iterator@V?$_Vector_val@PAVQuestData@@V?$allocator@PAVQuestData@@@std@@@std@@@std@@QAE@PAPAVQuestData@@PBU_Container_base0@1@@Z PROC ; std::_Vector_const_iterator<std::_Vector_val<QuestData *,std::allocator<QuestData *> > >::_Vector_const_iterator<std::_Vector_val<QuestData *,std::allocator<QuestData *> > >, COMDAT
; _this$ = ecx

; 45   : 		{	// construct with pointer _Parg

  00000	55		 push	 ebp
  00001	8b ec		 mov	 ebp, esp
  00003	8b c1		 mov	 eax, ecx
  00005	8b 4d 08	 mov	 ecx, DWORD PTR __Parg$[ebp]
  00008	89 08		 mov	 DWORD PTR [eax], ecx

; 46   : 		this->_Adopt(_Pvector);
; 47   : 		}

  0000a	5d		 pop	 ebp
  0000b	c2 08 00	 ret	 8
??0?$_Vector_const_iterator@V?$_Vector_val@PAVQuestData@@V?$allocator@PAVQuestData@@@std@@@std@@@std@@QAE@PAPAVQuestData@@PBU_Container_base0@1@@Z ENDP ; std::_Vector_const_iterator<std::_Vector_val<QuestData *,std::allocator<QuestData *> > >::_Vector_const_iterator<std::_Vector_val<QuestData *,std::allocator<QuestData *> > >
_TEXT	ENDS
PUBLIC	?_Compat@?$_Vector_const_iterator@V?$_Vector_val@PAVQuestData@@V?$allocator@PAVQuestData@@@std@@@std@@@std@@QBEXABV12@@Z ; std::_Vector_const_iterator<std::_Vector_val<QuestData *,std::allocator<QuestData *> > >::_Compat
; Function compile flags: /Ogsp
;	COMDAT ?_Compat@?$_Vector_const_iterator@V?$_Vector_val@PAVQuestData@@V?$allocator@PAVQuestData@@@std@@@std@@@std@@QBEXABV12@@Z
_TEXT	SEGMENT
___formal$ = 8						; size = 4
?_Compat@?$_Vector_const_iterator@V?$_Vector_val@PAVQuestData@@V?$allocator@PAVQuestData@@@std@@@std@@@std@@QBEXABV12@@Z PROC ; std::_Vector_const_iterator<std::_Vector_val<QuestData *,std::allocator<QuestData *> > >::_Compat, COMDAT
; _this$ = ecx

; 253  : 		}

  00000	c2 04 00	 ret	 4
?_Compat@?$_Vector_const_iterator@V?$_Vector_val@PAVQuestData@@V?$allocator@PAVQuestData@@@std@@@std@@@std@@QBEXABV12@@Z ENDP ; std::_Vector_const_iterator<std::_Vector_val<QuestData *,std::allocator<QuestData *> > >::_Compat
_TEXT	ENDS
PUBLIC	??0?$_Vector_const_iterator@V?$_Vector_val@PAVQuestCompleteData@@V?$allocator@PAVQuestCompleteData@@@std@@@std@@@std@@QAE@PAPAVQuestCompleteData@@PBU_Container_base0@1@@Z ; std::_Vector_const_iterator<std::_Vector_val<QuestCompleteData *,std::allocator<QuestCompleteData *> > >::_Vector_const_iterator<std::_Vector_val<QuestCompleteData *,std::allocator<QuestCompleteData *> > >
; Function compile flags: /Ogsp
;	COMDAT ??0?$_Vector_const_iterator@V?$_Vector_val@PAVQuestCompleteData@@V?$allocator@PAVQuestCompleteData@@@std@@@std@@@std@@QAE@PAPAVQuestCompleteData@@PBU_Container_base0@1@@Z
_TEXT	SEGMENT
__Parg$ = 8						; size = 4
__Pvector$ = 12						; size = 4
??0?$_Vector_const_iterator@V?$_Vector_val@PAVQuestCompleteData@@V?$allocator@PAVQuestCompleteData@@@std@@@std@@@std@@QAE@PAPAVQuestCompleteData@@PBU_Container_base0@1@@Z PROC ; std::_Vector_const_iterator<std::_Vector_val<QuestCompleteData *,std::allocator<QuestCompleteData *> > >::_Vector_const_iterator<std::_Vector_val<QuestCompleteData *,std::allocator<QuestCompleteData *> > >, COMDAT
; _this$ = ecx

; 45   : 		{	// construct with pointer _Parg

  00000	55		 push	 ebp
  00001	8b ec		 mov	 ebp, esp
  00003	8b c1		 mov	 eax, ecx
  00005	8b 4d 08	 mov	 ecx, DWORD PTR __Parg$[ebp]
  00008	89 08		 mov	 DWORD PTR [eax], ecx

; 46   : 		this->_Adopt(_Pvector);
; 47   : 		}

  0000a	5d		 pop	 ebp
  0000b	c2 08 00	 ret	 8
??0?$_Vector_const_iterator@V?$_Vector_val@PAVQuestCompleteData@@V?$allocator@PAVQuestCompleteData@@@std@@@std@@@std@@QAE@PAPAVQuestCompleteData@@PBU_Container_base0@1@@Z ENDP ; std::_Vector_const_iterator<std::_Vector_val<QuestCompleteData *,std::allocator<QuestCompleteData *> > >::_Vector_const_iterator<std::_Vector_val<QuestCompleteData *,std::allocator<QuestCompleteData *> > >
_TEXT	ENDS
PUBLIC	?_Compat@?$_Vector_const_iterator@V?$_Vector_val@PAVQuestCompleteData@@V?$allocator@PAVQuestCompleteData@@@std@@@std@@@std@@QBEXABV12@@Z ; std::_Vector_const_iterator<std::_Vector_val<QuestCompleteData *,std::allocator<QuestCompleteData *> > >::_Compat
; Function compile flags: /Ogsp
;	COMDAT ?_Compat@?$_Vector_const_iterator@V?$_Vector_val@PAVQuestCompleteData@@V?$allocator@PAVQuestCompleteData@@@std@@@std@@@std@@QBEXABV12@@Z
_TEXT	SEGMENT
___formal$ = 8						; size = 4
?_Compat@?$_Vector_const_iterator@V?$_Vector_val@PAVQuestCompleteData@@V?$allocator@PAVQuestCompleteData@@@std@@@std@@@std@@QBEXABV12@@Z PROC ; std::_Vector_const_iterator<std::_Vector_val<QuestCompleteData *,std::allocator<QuestCompleteData *> > >::_Compat, COMDAT
; _this$ = ecx

; 253  : 		}

  00000	c2 04 00	 ret	 4
?_Compat@?$_Vector_const_iterator@V?$_Vector_val@PAVQuestCompleteData@@V?$allocator@PAVQuestCompleteData@@@std@@@std@@@std@@QBEXABV12@@Z ENDP ; std::_Vector_const_iterator<std::_Vector_val<QuestCompleteData *,std::allocator<QuestCompleteData *> > >::_Compat
_TEXT	ENDS
PUBLIC	??G?$_Vector_const_iterator@V?$_Vector_val@PAVQuestData@@V?$allocator@PAVQuestData@@@std@@@std@@@std@@QBEHABV01@@Z ; std::_Vector_const_iterator<std::_Vector_val<QuestData *,std::allocator<QuestData *> > >::operator-
; Function compile flags: /Ogsp
;	COMDAT ??G?$_Vector_const_iterator@V?$_Vector_val@PAVQuestData@@V?$allocator@PAVQuestData@@@std@@@std@@@std@@QBEHABV01@@Z
_TEXT	SEGMENT
__Right$ = 8						; size = 4
??G?$_Vector_const_iterator@V?$_Vector_val@PAVQuestData@@V?$allocator@PAVQuestData@@@std@@@std@@@std@@QBEHABV01@@Z PROC ; std::_Vector_const_iterator<std::_Vector_val<QuestData *,std::allocator<QuestData *> > >::operator-, COMDAT
; _this$ = ecx

; 190  : 		{	// return difference of iterators

  00000	55		 push	 ebp
  00001	8b ec		 mov	 ebp, esp

; 191  : 		_Compat(_Right);
; 192  : 		return (this->_Ptr - _Right._Ptr);

  00003	8b 01		 mov	 eax, DWORD PTR [ecx]
  00005	8b 4d 08	 mov	 ecx, DWORD PTR __Right$[ebp]
  00008	2b 01		 sub	 eax, DWORD PTR [ecx]
  0000a	c1 f8 02	 sar	 eax, 2

; 193  : 		}

  0000d	5d		 pop	 ebp
  0000e	c2 04 00	 ret	 4
??G?$_Vector_const_iterator@V?$_Vector_val@PAVQuestData@@V?$allocator@PAVQuestData@@@std@@@std@@@std@@QBEHABV01@@Z ENDP ; std::_Vector_const_iterator<std::_Vector_val<QuestData *,std::allocator<QuestData *> > >::operator-
_TEXT	ENDS
PUBLIC	??G?$_Vector_const_iterator@V?$_Vector_val@PAVQuestCompleteData@@V?$allocator@PAVQuestCompleteData@@@std@@@std@@@std@@QBEHABV01@@Z ; std::_Vector_const_iterator<std::_Vector_val<QuestCompleteData *,std::allocator<QuestCompleteData *> > >::operator-
; Function compile flags: /Ogsp
;	COMDAT ??G?$_Vector_const_iterator@V?$_Vector_val@PAVQuestCompleteData@@V?$allocator@PAVQuestCompleteData@@@std@@@std@@@std@@QBEHABV01@@Z
_TEXT	SEGMENT
__Right$ = 8						; size = 4
??G?$_Vector_const_iterator@V?$_Vector_val@PAVQuestCompleteData@@V?$allocator@PAVQuestCompleteData@@@std@@@std@@@std@@QBEHABV01@@Z PROC ; std::_Vector_const_iterator<std::_Vector_val<QuestCompleteData *,std::allocator<QuestCompleteData *> > >::operator-, COMDAT
; _this$ = ecx

; 190  : 		{	// return difference of iterators

  00000	55		 push	 ebp
  00001	8b ec		 mov	 ebp, esp

; 191  : 		_Compat(_Right);
; 192  : 		return (this->_Ptr - _Right._Ptr);

  00003	8b 01		 mov	 eax, DWORD PTR [ecx]
  00005	8b 4d 08	 mov	 ecx, DWORD PTR __Right$[ebp]
  00008	2b 01		 sub	 eax, DWORD PTR [ecx]
  0000a	c1 f8 02	 sar	 eax, 2

; 193  : 		}

  0000d	5d		 pop	 ebp
  0000e	c2 04 00	 ret	 4
??G?$_Vector_const_iterator@V?$_Vector_val@PAVQuestCompleteData@@V?$allocator@PAVQuestCompleteData@@@std@@@std@@@std@@QBEHABV01@@Z ENDP ; std::_Vector_const_iterator<std::_Vector_val<QuestCompleteData *,std::allocator<QuestCompleteData *> > >::operator-
_TEXT	ENDS
PUBLIC	??$forward@AAPAVQuestData@@@std@@YAAAPAVQuestData@@AAPAV1@@Z ; std::forward<QuestData * &>
; Function compile flags: /Ogsp
; File c:\program files (x86)\microsoft visual studio 10.0\vc\include\utility
;	COMDAT ??$forward@AAPAVQuestData@@@std@@YAAAPAVQuestData@@AAPAV1@@Z
_TEXT	SEGMENT
__Arg$ = 8						; size = 4
??$forward@AAPAVQuestData@@@std@@YAAAPAVQuestData@@AAPAV1@@Z PROC ; std::forward<QuestData * &>, COMDAT

; 78   : 	{	// forward _Arg, given explicitly specified type parameter

  00000	55		 push	 ebp
  00001	8b ec		 mov	 ebp, esp

; 79   : 	return ((_Ty&&)_Arg);

  00003	8b 45 08	 mov	 eax, DWORD PTR __Arg$[ebp]

; 80   : 	}

  00006	5d		 pop	 ebp
  00007	c3		 ret	 0
??$forward@AAPAVQuestData@@@std@@YAAAPAVQuestData@@AAPAV1@@Z ENDP ; std::forward<QuestData * &>
_TEXT	ENDS
PUBLIC	??$forward@AAPAVQuestCompleteData@@@std@@YAAAPAVQuestCompleteData@@AAPAV1@@Z ; std::forward<QuestCompleteData * &>
; Function compile flags: /Ogsp
;	COMDAT ??$forward@AAPAVQuestCompleteData@@@std@@YAAAPAVQuestCompleteData@@AAPAV1@@Z
_TEXT	SEGMENT
__Arg$ = 8						; size = 4
??$forward@AAPAVQuestCompleteData@@@std@@YAAAPAVQuestCompleteData@@AAPAV1@@Z PROC ; std::forward<QuestCompleteData * &>, COMDAT

; 78   : 	{	// forward _Arg, given explicitly specified type parameter

  00000	55		 push	 ebp
  00001	8b ec		 mov	 ebp, esp

; 79   : 	return ((_Ty&&)_Arg);

  00003	8b 45 08	 mov	 eax, DWORD PTR __Arg$[ebp]

; 80   : 	}

  00006	5d		 pop	 ebp
  00007	c3		 ret	 0
??$forward@AAPAVQuestCompleteData@@@std@@YAAAPAVQuestCompleteData@@AAPAV1@@Z ENDP ; std::forward<QuestCompleteData * &>
_TEXT	ENDS
PUBLIC	??$_Ptr_cat@PAVQuestData@@PAV1@@std@@YA?AU_Scalar_ptr_iterator_tag@0@PAPAVQuestData@@0@Z ; std::_Ptr_cat<QuestData *,QuestData *>
; Function compile flags: /Ogsp
; File c:\program files (x86)\microsoft visual studio 10.0\vc\include\xutility
;	COMDAT ??$_Ptr_cat@PAVQuestData@@PAV1@@std@@YA?AU_Scalar_ptr_iterator_tag@0@PAPAVQuestData@@0@Z
_TEXT	SEGMENT
__Cat$ = -1						; size = 1
___formal$ = 8						; size = 4
___formal$ = 12						; size = 4
??$_Ptr_cat@PAVQuestData@@PAV1@@std@@YA?AU_Scalar_ptr_iterator_tag@0@PAPAVQuestData@@0@Z PROC ; std::_Ptr_cat<QuestData *,QuestData *>, COMDAT

; 516  : 	{	// return pointer category from pointers

  00000	55		 push	 ebp
  00001	8b ec		 mov	 ebp, esp
  00003	51		 push	 ecx

; 517  : 	typename _Ptr_cat_helper<_Elem1, _Elem2>::_Type _Cat;
; 518  : 	return (_Cat);

  00004	8a 45 ff	 mov	 al, BYTE PTR __Cat$[ebp]

; 519  : 	}

  00007	c9		 leave
  00008	c3		 ret	 0
??$_Ptr_cat@PAVQuestData@@PAV1@@std@@YA?AU_Scalar_ptr_iterator_tag@0@PAPAVQuestData@@0@Z ENDP ; std::_Ptr_cat<QuestData *,QuestData *>
_TEXT	ENDS
PUBLIC	??$_Move@PAPAVQuestData@@PAPAV1@@std@@YAPAPAVQuestData@@PAPAV1@00U_Scalar_ptr_iterator_tag@0@@Z ; std::_Move<QuestData * *,QuestData * *>
EXTRN	__imp__memmove:PROC
; Function compile flags: /Ogsp
;	COMDAT ??$_Move@PAPAVQuestData@@PAPAV1@@std@@YAPAPAVQuestData@@PAPAV1@00U_Scalar_ptr_iterator_tag@0@@Z
_TEXT	SEGMENT
__First$ = 8						; size = 4
__Last$ = 12						; size = 4
__Dest$ = 16						; size = 4
___formal$ = 20						; size = 1
??$_Move@PAPAVQuestData@@PAPAV1@@std@@YAPAPAVQuestData@@PAPAV1@00U_Scalar_ptr_iterator_tag@0@@Z PROC ; std::_Move<QuestData * *,QuestData * *>, COMDAT

; 2522 : 	{	// move [_First, _Last) to [_Dest, ...), pointers to scalars

  00000	55		 push	 ebp
  00001	8b ec		 mov	 ebp, esp
  00003	56		 push	 esi

; 2523 : 	ptrdiff_t _Count = _Last - _First;

  00004	8b 75 0c	 mov	 esi, DWORD PTR __Last$[ebp]
  00007	2b 75 08	 sub	 esi, DWORD PTR __First$[ebp]
  0000a	57		 push	 edi

; 2524 : 	_CSTD memmove(&*_Dest, &*_First,
; 2525 : 		_Count * sizeof (*_First));

  0000b	8b 7d 10	 mov	 edi, DWORD PTR __Dest$[ebp]
  0000e	c1 fe 02	 sar	 esi, 2
  00011	c1 e6 02	 shl	 esi, 2
  00014	56		 push	 esi
  00015	ff 75 08	 push	 DWORD PTR __First$[ebp]
  00018	57		 push	 edi
  00019	ff 15 00 00 00
	00		 call	 DWORD PTR __imp__memmove
  0001f	83 c4 0c	 add	 esp, 12			; 0000000cH

; 2526 : 	return (_Dest + _Count);

  00022	8d 04 3e	 lea	 eax, DWORD PTR [esi+edi]
  00025	5f		 pop	 edi
  00026	5e		 pop	 esi

; 2527 : 	}

  00027	5d		 pop	 ebp
  00028	c3		 ret	 0
??$_Move@PAPAVQuestData@@PAPAV1@@std@@YAPAPAVQuestData@@PAPAV1@00U_Scalar_ptr_iterator_tag@0@@Z ENDP ; std::_Move<QuestData * *,QuestData * *>
_TEXT	ENDS
PUBLIC	??$_Ptr_cat@PAVQuestCompleteData@@PAV1@@std@@YA?AU_Scalar_ptr_iterator_tag@0@PAPAVQuestCompleteData@@0@Z ; std::_Ptr_cat<QuestCompleteData *,QuestCompleteData *>
; Function compile flags: /Ogsp
;	COMDAT ??$_Ptr_cat@PAVQuestCompleteData@@PAV1@@std@@YA?AU_Scalar_ptr_iterator_tag@0@PAPAVQuestCompleteData@@0@Z
_TEXT	SEGMENT
__Cat$ = -1						; size = 1
___formal$ = 8						; size = 4
___formal$ = 12						; size = 4
??$_Ptr_cat@PAVQuestCompleteData@@PAV1@@std@@YA?AU_Scalar_ptr_iterator_tag@0@PAPAVQuestCompleteData@@0@Z PROC ; std::_Ptr_cat<QuestCompleteData *,QuestCompleteData *>, COMDAT

; 516  : 	{	// return pointer category from pointers

  00000	55		 push	 ebp
  00001	8b ec		 mov	 ebp, esp
  00003	51		 push	 ecx

; 517  : 	typename _Ptr_cat_helper<_Elem1, _Elem2>::_Type _Cat;
; 518  : 	return (_Cat);

  00004	8a 45 ff	 mov	 al, BYTE PTR __Cat$[ebp]

; 519  : 	}

  00007	c9		 leave
  00008	c3		 ret	 0
??$_Ptr_cat@PAVQuestCompleteData@@PAV1@@std@@YA?AU_Scalar_ptr_iterator_tag@0@PAPAVQuestCompleteData@@0@Z ENDP ; std::_Ptr_cat<QuestCompleteData *,QuestCompleteData *>
_TEXT	ENDS
PUBLIC	??$_Move@PAPAVQuestCompleteData@@PAPAV1@@std@@YAPAPAVQuestCompleteData@@PAPAV1@00U_Scalar_ptr_iterator_tag@0@@Z ; std::_Move<QuestCompleteData * *,QuestCompleteData * *>
; Function compile flags: /Ogsp
;	COMDAT ??$_Move@PAPAVQuestCompleteData@@PAPAV1@@std@@YAPAPAVQuestCompleteData@@PAPAV1@00U_Scalar_ptr_iterator_tag@0@@Z
_TEXT	SEGMENT
__First$ = 8						; size = 4
__Last$ = 12						; size = 4
__Dest$ = 16						; size = 4
___formal$ = 20						; size = 1
??$_Move@PAPAVQuestCompleteData@@PAPAV1@@std@@YAPAPAVQuestCompleteData@@PAPAV1@00U_Scalar_ptr_iterator_tag@0@@Z PROC ; std::_Move<QuestCompleteData * *,QuestCompleteData * *>, COMDAT

; 2522 : 	{	// move [_First, _Last) to [_Dest, ...), pointers to scalars

  00000	55		 push	 ebp
  00001	8b ec		 mov	 ebp, esp
  00003	56		 push	 esi

; 2523 : 	ptrdiff_t _Count = _Last - _First;

  00004	8b 75 0c	 mov	 esi, DWORD PTR __Last$[ebp]
  00007	2b 75 08	 sub	 esi, DWORD PTR __First$[ebp]
  0000a	57		 push	 edi

; 2524 : 	_CSTD memmove(&*_Dest, &*_First,
; 2525 : 		_Count * sizeof (*_First));

  0000b	8b 7d 10	 mov	 edi, DWORD PTR __Dest$[ebp]
  0000e	c1 fe 02	 sar	 esi, 2
  00011	c1 e6 02	 shl	 esi, 2
  00014	56		 push	 esi
  00015	ff 75 08	 push	 DWORD PTR __First$[ebp]
  00018	57		 push	 edi
  00019	ff 15 00 00 00
	00		 call	 DWORD PTR __imp__memmove
  0001f	83 c4 0c	 add	 esp, 12			; 0000000cH

; 2526 : 	return (_Dest + _Count);

  00022	8d 04 3e	 lea	 eax, DWORD PTR [esi+edi]
  00025	5f		 pop	 edi
  00026	5e		 pop	 esi

; 2527 : 	}

  00027	5d		 pop	 ebp
  00028	c3		 ret	 0
??$_Move@PAPAVQuestCompleteData@@PAPAV1@@std@@YAPAPAVQuestCompleteData@@PAPAV1@00U_Scalar_ptr_iterator_tag@0@@Z ENDP ; std::_Move<QuestCompleteData * *,QuestCompleteData * *>
_TEXT	ENDS
PUBLIC	??$_Destroy_range@V?$allocator@PAVQuestData@@@std@@@std@@YAXPAPAVQuestData@@0AAV?$allocator@PAVQuestData@@@0@U_Scalar_ptr_iterator_tag@0@@Z ; std::_Destroy_range<std::allocator<QuestData *> >
; Function compile flags: /Ogsp
; File c:\program files (x86)\microsoft visual studio 10.0\vc\include\xmemory
;	COMDAT ??$_Destroy_range@V?$allocator@PAVQuestData@@@std@@@std@@YAXPAPAVQuestData@@0AAV?$allocator@PAVQuestData@@@0@U_Scalar_ptr_iterator_tag@0@@Z
_TEXT	SEGMENT
__First$ = 8						; size = 4
__Last$ = 12						; size = 4
__Al$ = 16						; size = 4
___formal$ = 20						; size = 1
??$_Destroy_range@V?$allocator@PAVQuestData@@@std@@@std@@YAXPAPAVQuestData@@0AAV?$allocator@PAVQuestData@@@0@U_Scalar_ptr_iterator_tag@0@@Z PROC ; std::_Destroy_range<std::allocator<QuestData *> >, COMDAT

; 105  : 	}

  00000	c3		 ret	 0
??$_Destroy_range@V?$allocator@PAVQuestData@@@std@@@std@@YAXPAPAVQuestData@@0AAV?$allocator@PAVQuestData@@@0@U_Scalar_ptr_iterator_tag@0@@Z ENDP ; std::_Destroy_range<std::allocator<QuestData *> >
_TEXT	ENDS
PUBLIC	??$_Destroy_range@V?$allocator@PAVQuestCompleteData@@@std@@@std@@YAXPAPAVQuestCompleteData@@0AAV?$allocator@PAVQuestCompleteData@@@0@U_Scalar_ptr_iterator_tag@0@@Z ; std::_Destroy_range<std::allocator<QuestCompleteData *> >
; Function compile flags: /Ogsp
;	COMDAT ??$_Destroy_range@V?$allocator@PAVQuestCompleteData@@@std@@@std@@YAXPAPAVQuestCompleteData@@0AAV?$allocator@PAVQuestCompleteData@@@0@U_Scalar_ptr_iterator_tag@0@@Z
_TEXT	SEGMENT
__First$ = 8						; size = 4
__Last$ = 12						; size = 4
__Al$ = 16						; size = 4
___formal$ = 20						; size = 1
??$_Destroy_range@V?$allocator@PAVQuestCompleteData@@@std@@@std@@YAXPAPAVQuestCompleteData@@0AAV?$allocator@PAVQuestCompleteData@@@0@U_Scalar_ptr_iterator_tag@0@@Z PROC ; std::_Destroy_range<std::allocator<QuestCompleteData *> >, COMDAT

; 105  : 	}

  00000	c3		 ret	 0
??$_Destroy_range@V?$allocator@PAVQuestCompleteData@@@std@@@std@@YAXPAPAVQuestCompleteData@@0AAV?$allocator@PAVQuestCompleteData@@@0@U_Scalar_ptr_iterator_tag@0@@Z ENDP ; std::_Destroy_range<std::allocator<QuestCompleteData *> >
_TEXT	ENDS
PUBLIC	?_Unchecked@?$_Vector_iterator@V?$_Vector_val@PAVQuestData@@V?$allocator@PAVQuestData@@@std@@@std@@@std@@QBEPAPAVQuestData@@XZ ; std::_Vector_iterator<std::_Vector_val<QuestData *,std::allocator<QuestData *> > >::_Unchecked
; Function compile flags: /Ogsp
; File c:\program files (x86)\microsoft visual studio 10.0\vc\include\vector
;	COMDAT ?_Unchecked@?$_Vector_iterator@V?$_Vector_val@PAVQuestData@@V?$allocator@PAVQuestData@@@std@@@std@@@std@@QBEPAPAVQuestData@@XZ
_TEXT	SEGMENT
?_Unchecked@?$_Vector_iterator@V?$_Vector_val@PAVQuestData@@V?$allocator@PAVQuestData@@@std@@@std@@@std@@QBEPAPAVQuestData@@XZ PROC ; std::_Vector_iterator<std::_Vector_val<QuestData *,std::allocator<QuestData *> > >::_Unchecked, COMDAT
; _this$ = ecx

; 317  : 		return (_Unchecked_type(this->_Ptr));

  00000	8b 01		 mov	 eax, DWORD PTR [ecx]

; 318  : 		}

  00002	c3		 ret	 0
?_Unchecked@?$_Vector_iterator@V?$_Vector_val@PAVQuestData@@V?$allocator@PAVQuestData@@@std@@@std@@@std@@QBEPAPAVQuestData@@XZ ENDP ; std::_Vector_iterator<std::_Vector_val<QuestData *,std::allocator<QuestData *> > >::_Unchecked
_TEXT	ENDS
PUBLIC	?_Unchecked@?$_Vector_iterator@V?$_Vector_val@PAVQuestCompleteData@@V?$allocator@PAVQuestCompleteData@@@std@@@std@@@std@@QBEPAPAVQuestCompleteData@@XZ ; std::_Vector_iterator<std::_Vector_val<QuestCompleteData *,std::allocator<QuestCompleteData *> > >::_Unchecked
; Function compile flags: /Ogsp
;	COMDAT ?_Unchecked@?$_Vector_iterator@V?$_Vector_val@PAVQuestCompleteData@@V?$allocator@PAVQuestCompleteData@@@std@@@std@@@std@@QBEPAPAVQuestCompleteData@@XZ
_TEXT	SEGMENT
?_Unchecked@?$_Vector_iterator@V?$_Vector_val@PAVQuestCompleteData@@V?$allocator@PAVQuestCompleteData@@@std@@@std@@@std@@QBEPAPAVQuestCompleteData@@XZ PROC ; std::_Vector_iterator<std::_Vector_val<QuestCompleteData *,std::allocator<QuestCompleteData *> > >::_Unchecked, COMDAT
; _this$ = ecx

; 317  : 		return (_Unchecked_type(this->_Ptr));

  00000	8b 01		 mov	 eax, DWORD PTR [ecx]

; 318  : 		}

  00002	c3		 ret	 0
?_Unchecked@?$_Vector_iterator@V?$_Vector_val@PAVQuestCompleteData@@V?$allocator@PAVQuestCompleteData@@@std@@@std@@@std@@QBEPAPAVQuestCompleteData@@XZ ENDP ; std::_Vector_iterator<std::_Vector_val<QuestCompleteData *,std::allocator<QuestCompleteData *> > >::_Unchecked
_TEXT	ENDS
PUBLIC	??Y?$_Vector_const_iterator@V?$_Vector_val@PAVQuestData@@V?$allocator@PAVQuestData@@@std@@@std@@@std@@QAEAAV01@H@Z ; std::_Vector_const_iterator<std::_Vector_val<QuestData *,std::allocator<QuestData *> > >::operator+=
; Function compile flags: /Ogsp
;	COMDAT ??Y?$_Vector_const_iterator@V?$_Vector_val@PAVQuestData@@V?$allocator@PAVQuestData@@@std@@@std@@@std@@QAEAAV01@H@Z
_TEXT	SEGMENT
__Off$ = 8						; size = 4
??Y?$_Vector_const_iterator@V?$_Vector_val@PAVQuestData@@V?$allocator@PAVQuestData@@@std@@@std@@@std@@QAEAAV01@H@Z PROC ; std::_Vector_const_iterator<std::_Vector_val<QuestData *,std::allocator<QuestData *> > >::operator+=, COMDAT
; _this$ = ecx

; 151  : 		{	// increment by integer

  00000	55		 push	 ebp
  00001	8b ec		 mov	 ebp, esp
  00003	8b c1		 mov	 eax, ecx

; 152  :  #if _ITERATOR_DEBUG_LEVEL == 2
; 153  : 		if (this->_Getcont() == 0
; 154  : 			|| this->_Ptr + _Off < ((_Myvec *)this->_Getcont())->_Myfirst
; 155  : 			|| ((_Myvec *)this->_Getcont())->_Mylast < this->_Ptr + _Off)
; 156  : 			{	// report error
; 157  : 			_DEBUG_ERROR("vector iterator + offset out of range");
; 158  : 			_SCL_SECURE_OUT_OF_RANGE;
; 159  : 			}
; 160  : 
; 161  :  #elif _ITERATOR_DEBUG_LEVEL == 1
; 162  : 		_SCL_SECURE_VALIDATE(this->_Getcont() != 0);
; 163  : 		_SCL_SECURE_VALIDATE_RANGE(
; 164  : 			((_Myvec *)this->_Getcont())->_Myfirst <= this->_Ptr + _Off
; 165  : 			&& this->_Ptr + _Off <= ((_Myvec *)this->_Getcont())->_Mylast);
; 166  :  #endif /* _ITERATOR_DEBUG_LEVEL */
; 167  : 
; 168  : 		_Ptr += _Off;

  00005	8b 4d 08	 mov	 ecx, DWORD PTR __Off$[ebp]
  00008	c1 e1 02	 shl	 ecx, 2
  0000b	01 08		 add	 DWORD PTR [eax], ecx

; 169  : 		return (*this);
; 170  : 		}

  0000d	5d		 pop	 ebp
  0000e	c2 04 00	 ret	 4
??Y?$_Vector_const_iterator@V?$_Vector_val@PAVQuestData@@V?$allocator@PAVQuestData@@@std@@@std@@@std@@QAEAAV01@H@Z ENDP ; std::_Vector_const_iterator<std::_Vector_val<QuestData *,std::allocator<QuestData *> > >::operator+=
_TEXT	ENDS
PUBLIC	??Y?$_Vector_const_iterator@V?$_Vector_val@PAVQuestCompleteData@@V?$allocator@PAVQuestCompleteData@@@std@@@std@@@std@@QAEAAV01@H@Z ; std::_Vector_const_iterator<std::_Vector_val<QuestCompleteData *,std::allocator<QuestCompleteData *> > >::operator+=
; Function compile flags: /Ogsp
;	COMDAT ??Y?$_Vector_const_iterator@V?$_Vector_val@PAVQuestCompleteData@@V?$allocator@PAVQuestCompleteData@@@std@@@std@@@std@@QAEAAV01@H@Z
_TEXT	SEGMENT
__Off$ = 8						; size = 4
??Y?$_Vector_const_iterator@V?$_Vector_val@PAVQuestCompleteData@@V?$allocator@PAVQuestCompleteData@@@std@@@std@@@std@@QAEAAV01@H@Z PROC ; std::_Vector_const_iterator<std::_Vector_val<QuestCompleteData *,std::allocator<QuestCompleteData *> > >::operator+=, COMDAT
; _this$ = ecx

; 151  : 		{	// increment by integer

  00000	55		 push	 ebp
  00001	8b ec		 mov	 ebp, esp
  00003	8b c1		 mov	 eax, ecx

; 152  :  #if _ITERATOR_DEBUG_LEVEL == 2
; 153  : 		if (this->_Getcont() == 0
; 154  : 			|| this->_Ptr + _Off < ((_Myvec *)this->_Getcont())->_Myfirst
; 155  : 			|| ((_Myvec *)this->_Getcont())->_Mylast < this->_Ptr + _Off)
; 156  : 			{	// report error
; 157  : 			_DEBUG_ERROR("vector iterator + offset out of range");
; 158  : 			_SCL_SECURE_OUT_OF_RANGE;
; 159  : 			}
; 160  : 
; 161  :  #elif _ITERATOR_DEBUG_LEVEL == 1
; 162  : 		_SCL_SECURE_VALIDATE(this->_Getcont() != 0);
; 163  : 		_SCL_SECURE_VALIDATE_RANGE(
; 164  : 			((_Myvec *)this->_Getcont())->_Myfirst <= this->_Ptr + _Off
; 165  : 			&& this->_Ptr + _Off <= ((_Myvec *)this->_Getcont())->_Mylast);
; 166  :  #endif /* _ITERATOR_DEBUG_LEVEL */
; 167  : 
; 168  : 		_Ptr += _Off;

  00005	8b 4d 08	 mov	 ecx, DWORD PTR __Off$[ebp]
  00008	c1 e1 02	 shl	 ecx, 2
  0000b	01 08		 add	 DWORD PTR [eax], ecx

; 169  : 		return (*this);
; 170  : 		}

  0000d	5d		 pop	 ebp
  0000e	c2 04 00	 ret	 4
??Y?$_Vector_const_iterator@V?$_Vector_val@PAVQuestCompleteData@@V?$allocator@PAVQuestCompleteData@@@std@@@std@@@std@@QAEAAV01@H@Z ENDP ; std::_Vector_const_iterator<std::_Vector_val<QuestCompleteData *,std::allocator<QuestCompleteData *> > >::operator+=
_TEXT	ENDS
PUBLIC	?_Orphan_range@?$vector@PAVQuestData@@V?$allocator@PAVQuestData@@@std@@@std@@IBEXPAPAVQuestData@@0@Z ; std::vector<QuestData *,std::allocator<QuestData *> >::_Orphan_range
; Function compile flags: /Ogsp
;	COMDAT ?_Orphan_range@?$vector@PAVQuestData@@V?$allocator@PAVQuestData@@@std@@@std@@IBEXPAPAVQuestData@@0@Z
_TEXT	SEGMENT
___formal$ = 8						; size = 4
___formal$ = 12						; size = 4
?_Orphan_range@?$vector@PAVQuestData@@V?$allocator@PAVQuestData@@@std@@@std@@IBEXPAPAVQuestData@@0@Z PROC ; std::vector<QuestData *,std::allocator<QuestData *> >::_Orphan_range, COMDAT
; _this$ = ecx

; 1454 : 		}

  00000	c2 08 00	 ret	 8
?_Orphan_range@?$vector@PAVQuestData@@V?$allocator@PAVQuestData@@@std@@@std@@IBEXPAPAVQuestData@@0@Z ENDP ; std::vector<QuestData *,std::allocator<QuestData *> >::_Orphan_range
_TEXT	ENDS
PUBLIC	?_Orphan_range@?$vector@PAVQuestCompleteData@@V?$allocator@PAVQuestCompleteData@@@std@@@std@@IBEXPAPAVQuestCompleteData@@0@Z ; std::vector<QuestCompleteData *,std::allocator<QuestCompleteData *> >::_Orphan_range
; Function compile flags: /Ogsp
;	COMDAT ?_Orphan_range@?$vector@PAVQuestCompleteData@@V?$allocator@PAVQuestCompleteData@@@std@@@std@@IBEXPAPAVQuestCompleteData@@0@Z
_TEXT	SEGMENT
___formal$ = 8						; size = 4
___formal$ = 12						; size = 4
?_Orphan_range@?$vector@PAVQuestCompleteData@@V?$allocator@PAVQuestCompleteData@@@std@@@std@@IBEXPAPAVQuestCompleteData@@0@Z PROC ; std::vector<QuestCompleteData *,std::allocator<QuestCompleteData *> >::_Orphan_range, COMDAT
; _this$ = ecx

; 1454 : 		}

  00000	c2 08 00	 ret	 8
?_Orphan_range@?$vector@PAVQuestCompleteData@@V?$allocator@PAVQuestCompleteData@@@std@@@std@@IBEXPAPAVQuestCompleteData@@0@Z ENDP ; std::vector<QuestCompleteData *,std::allocator<QuestCompleteData *> >::_Orphan_range
_TEXT	ENDS
PUBLIC	?capacity@?$vector@PAVQuestData@@V?$allocator@PAVQuestData@@@std@@@std@@QBEIXZ ; std::vector<QuestData *,std::allocator<QuestData *> >::capacity
; Function compile flags: /Ogsp
;	COMDAT ?capacity@?$vector@PAVQuestData@@V?$allocator@PAVQuestData@@@std@@@std@@QBEIXZ
_TEXT	SEGMENT
?capacity@?$vector@PAVQuestData@@V?$allocator@PAVQuestData@@@std@@@std@@QBEIXZ PROC ; std::vector<QuestData *,std::allocator<QuestData *> >::capacity, COMDAT
; _this$ = ecx

; 777  : 		return (this->_Myend - this->_Myfirst);

  00000	8b 41 08	 mov	 eax, DWORD PTR [ecx+8]
  00003	2b 01		 sub	 eax, DWORD PTR [ecx]
  00005	c1 f8 02	 sar	 eax, 2

; 778  : 		}

  00008	c3		 ret	 0
?capacity@?$vector@PAVQuestData@@V?$allocator@PAVQuestData@@@std@@@std@@QBEIXZ ENDP ; std::vector<QuestData *,std::allocator<QuestData *> >::capacity
_TEXT	ENDS
PUBLIC	?size@?$vector@PAVQuestData@@V?$allocator@PAVQuestData@@@std@@@std@@QBEIXZ ; std::vector<QuestData *,std::allocator<QuestData *> >::size
; Function compile flags: /Ogsp
;	COMDAT ?size@?$vector@PAVQuestData@@V?$allocator@PAVQuestData@@@std@@@std@@QBEIXZ
_TEXT	SEGMENT
?size@?$vector@PAVQuestData@@V?$allocator@PAVQuestData@@@std@@@std@@QBEIXZ PROC ; std::vector<QuestData *,std::allocator<QuestData *> >::size, COMDAT
; _this$ = ecx

; 879  : 		return (this->_Mylast - this->_Myfirst);

  00000	8b 41 04	 mov	 eax, DWORD PTR [ecx+4]
  00003	2b 01		 sub	 eax, DWORD PTR [ecx]
  00005	c1 f8 02	 sar	 eax, 2

; 880  : 		}

  00008	c3		 ret	 0
?size@?$vector@PAVQuestData@@V?$allocator@PAVQuestData@@@std@@@std@@QBEIXZ ENDP ; std::vector<QuestData *,std::allocator<QuestData *> >::size
_TEXT	ENDS
PUBLIC	??_C@_0BD@OLBABOEK@vector?$DMT?$DO?5too?5long?$AA@ ; `string'
PUBLIC	?_Xlen@?$vector@PAVQuestData@@V?$allocator@PAVQuestData@@@std@@@std@@IBEXXZ ; std::vector<QuestData *,std::allocator<QuestData *> >::_Xlen
EXTRN	__imp_?_Xlength_error@std@@YAXPBD@Z:PROC
;	COMDAT ??_C@_0BD@OLBABOEK@vector?$DMT?$DO?5too?5long?$AA@
CONST	SEGMENT
??_C@_0BD@OLBABOEK@vector?$DMT?$DO?5too?5long?$AA@ DB 'vector<T> too long'
	DB	00H						; `string'
; Function compile flags: /Ogsp
CONST	ENDS
;	COMDAT ?_Xlen@?$vector@PAVQuestData@@V?$allocator@PAVQuestData@@@std@@@std@@IBEXXZ
_TEXT	SEGMENT
?_Xlen@?$vector@PAVQuestData@@V?$allocator@PAVQuestData@@@std@@@std@@IBEXXZ PROC ; std::vector<QuestData *,std::allocator<QuestData *> >::_Xlen, COMDAT
; _this$ = ecx

; 1427 : 		_Xlength_error("vector<T> too long");

  00000	68 00 00 00 00	 push	 OFFSET ??_C@_0BD@OLBABOEK@vector?$DMT?$DO?5too?5long?$AA@
  00005	ff 15 00 00 00
	00		 call	 DWORD PTR __imp_?_Xlength_error@std@@YAXPBD@Z
$LN4@Xlen:
$LN3@Xlen:
  0000b	cc		 int	 3
?_Xlen@?$vector@PAVQuestData@@V?$allocator@PAVQuestData@@@std@@@std@@IBEXXZ ENDP ; std::vector<QuestData *,std::allocator<QuestData *> >::_Xlen
_TEXT	ENDS
PUBLIC	?capacity@?$vector@PAVQuestCompleteData@@V?$allocator@PAVQuestCompleteData@@@std@@@std@@QBEIXZ ; std::vector<QuestCompleteData *,std::allocator<QuestCompleteData *> >::capacity
; Function compile flags: /Ogsp
;	COMDAT ?capacity@?$vector@PAVQuestCompleteData@@V?$allocator@PAVQuestCompleteData@@@std@@@std@@QBEIXZ
_TEXT	SEGMENT
?capacity@?$vector@PAVQuestCompleteData@@V?$allocator@PAVQuestCompleteData@@@std@@@std@@QBEIXZ PROC ; std::vector<QuestCompleteData *,std::allocator<QuestCompleteData *> >::capacity, COMDAT
; _this$ = ecx

; 777  : 		return (this->_Myend - this->_Myfirst);

  00000	8b 41 08	 mov	 eax, DWORD PTR [ecx+8]
  00003	2b 01		 sub	 eax, DWORD PTR [ecx]
  00005	c1 f8 02	 sar	 eax, 2

; 778  : 		}

  00008	c3		 ret	 0
?capacity@?$vector@PAVQuestCompleteData@@V?$allocator@PAVQuestCompleteData@@@std@@@std@@QBEIXZ ENDP ; std::vector<QuestCompleteData *,std::allocator<QuestCompleteData *> >::capacity
_TEXT	ENDS
PUBLIC	?size@?$vector@PAVQuestCompleteData@@V?$allocator@PAVQuestCompleteData@@@std@@@std@@QBEIXZ ; std::vector<QuestCompleteData *,std::allocator<QuestCompleteData *> >::size
; Function compile flags: /Ogsp
;	COMDAT ?size@?$vector@PAVQuestCompleteData@@V?$allocator@PAVQuestCompleteData@@@std@@@std@@QBEIXZ
_TEXT	SEGMENT
?size@?$vector@PAVQuestCompleteData@@V?$allocator@PAVQuestCompleteData@@@std@@@std@@QBEIXZ PROC ; std::vector<QuestCompleteData *,std::allocator<QuestCompleteData *> >::size, COMDAT
; _this$ = ecx

; 879  : 		return (this->_Mylast - this->_Myfirst);

  00000	8b 41 04	 mov	 eax, DWORD PTR [ecx+4]
  00003	2b 01		 sub	 eax, DWORD PTR [ecx]
  00005	c1 f8 02	 sar	 eax, 2

; 880  : 		}

  00008	c3		 ret	 0
?size@?$vector@PAVQuestCompleteData@@V?$allocator@PAVQuestCompleteData@@@std@@@std@@QBEIXZ ENDP ; std::vector<QuestCompleteData *,std::allocator<QuestCompleteData *> >::size
_TEXT	ENDS
PUBLIC	?_Xlen@?$vector@PAVQuestCompleteData@@V?$allocator@PAVQuestCompleteData@@@std@@@std@@IBEXXZ ; std::vector<QuestCompleteData *,std::allocator<QuestCompleteData *> >::_Xlen
; Function compile flags: /Ogsp
;	COMDAT ?_Xlen@?$vector@PAVQuestCompleteData@@V?$allocator@PAVQuestCompleteData@@@std@@@std@@IBEXXZ
_TEXT	SEGMENT
?_Xlen@?$vector@PAVQuestCompleteData@@V?$allocator@PAVQuestCompleteData@@@std@@@std@@IBEXXZ PROC ; std::vector<QuestCompleteData *,std::allocator<QuestCompleteData *> >::_Xlen, COMDAT
; _this$ = ecx

; 1427 : 		_Xlength_error("vector<T> too long");

  00000	68 00 00 00 00	 push	 OFFSET ??_C@_0BD@OLBABOEK@vector?$DMT?$DO?5too?5long?$AA@
  00005	ff 15 00 00 00
	00		 call	 DWORD PTR __imp_?_Xlength_error@std@@YAXPBD@Z
$LN4@Xlen@2:
$LN3@Xlen@2:
  0000b	cc		 int	 3
?_Xlen@?$vector@PAVQuestCompleteData@@V?$allocator@PAVQuestCompleteData@@@std@@@std@@IBEXXZ ENDP ; std::vector<QuestCompleteData *,std::allocator<QuestCompleteData *> >::_Xlen
_TEXT	ENDS
PUBLIC	?max_size@?$allocator@PAVQuestData@@@std@@QBEIXZ ; std::allocator<QuestData *>::max_size
; Function compile flags: /Ogsp
; File c:\program files (x86)\microsoft visual studio 10.0\vc\include\xmemory
;	COMDAT ?max_size@?$allocator@PAVQuestData@@@std@@QBEIXZ
_TEXT	SEGMENT
?max_size@?$allocator@PAVQuestData@@@std@@QBEIXZ PROC	; std::allocator<QuestData *>::max_size, COMDAT
; _this$ = ecx

; 218  : 		_SIZT _Count = (_SIZT)(-1) / sizeof (_Ty);
; 219  : 		return (0 < _Count ? _Count : 1);

  00000	b8 ff ff ff 3f	 mov	 eax, 1073741823		; 3fffffffH

; 220  : 		}

  00005	c3		 ret	 0
?max_size@?$allocator@PAVQuestData@@@std@@QBEIXZ ENDP	; std::allocator<QuestData *>::max_size
_TEXT	ENDS
PUBLIC	?max_size@?$allocator@PAVQuestCompleteData@@@std@@QBEIXZ ; std::allocator<QuestCompleteData *>::max_size
; Function compile flags: /Ogsp
;	COMDAT ?max_size@?$allocator@PAVQuestCompleteData@@@std@@QBEIXZ
_TEXT	SEGMENT
?max_size@?$allocator@PAVQuestCompleteData@@@std@@QBEIXZ PROC ; std::allocator<QuestCompleteData *>::max_size, COMDAT
; _this$ = ecx

; 218  : 		_SIZT _Count = (_SIZT)(-1) / sizeof (_Ty);
; 219  : 		return (0 < _Count ? _Count : 1);

  00000	b8 ff ff ff 3f	 mov	 eax, 1073741823		; 3fffffffH

; 220  : 		}

  00005	c3		 ret	 0
?max_size@?$allocator@PAVQuestCompleteData@@@std@@QBEIXZ ENDP ; std::allocator<QuestCompleteData *>::max_size
_TEXT	ENDS
PUBLIC	??$_Unchecked@PAPAVQuestData@@@std@@YAPAPAVQuestData@@PAPAV1@@Z ; std::_Unchecked<QuestData * *>
; Function compile flags: /Ogsp
; File c:\program files (x86)\microsoft visual studio 10.0\vc\include\xutility
;	COMDAT ??$_Unchecked@PAPAVQuestData@@@std@@YAPAPAVQuestData@@PAPAV1@@Z
_TEXT	SEGMENT
__Src$ = 8						; size = 4
??$_Unchecked@PAPAVQuestData@@@std@@YAPAPAVQuestData@@PAPAV1@@Z PROC ; std::_Unchecked<QuestData * *>, COMDAT

; 266  : 	{	// construct unchecked from checked, generic

  00000	55		 push	 ebp
  00001	8b ec		 mov	 ebp, esp

; 267  : 	return (_Src);

  00003	8b 45 08	 mov	 eax, DWORD PTR __Src$[ebp]

; 268  : 	}

  00006	5d		 pop	 ebp
  00007	c3		 ret	 0
??$_Unchecked@PAPAVQuestData@@@std@@YAPAPAVQuestData@@PAPAV1@@Z ENDP ; std::_Unchecked<QuestData * *>
_TEXT	ENDS
PUBLIC	??$_Dist_type@PAPAVQuestData@@@std@@YAPAHPAPAVQuestData@@@Z ; std::_Dist_type<QuestData * *>
; Function compile flags: /Ogsp
;	COMDAT ??$_Dist_type@PAPAVQuestData@@@std@@YAPAHPAPAVQuestData@@@Z
_TEXT	SEGMENT
___formal$ = 8						; size = 4
??$_Dist_type@PAPAVQuestData@@@std@@YAPAHPAPAVQuestData@@@Z PROC ; std::_Dist_type<QuestData * *>, COMDAT

; 850  : 	return (0);

  00000	33 c0		 xor	 eax, eax

; 851  : 	}

  00002	c3		 ret	 0
??$_Dist_type@PAPAVQuestData@@@std@@YAPAHPAPAVQuestData@@@Z ENDP ; std::_Dist_type<QuestData * *>
_TEXT	ENDS
PUBLIC	??$_Val_type@PAPAVQuestData@@@std@@YAPAPAVQuestData@@PAPAV1@@Z ; std::_Val_type<QuestData * *>
; Function compile flags: /Ogsp
;	COMDAT ??$_Val_type@PAPAVQuestData@@@std@@YAPAPAVQuestData@@PAPAV1@@Z
_TEXT	SEGMENT
___formal$ = 8						; size = 4
??$_Val_type@PAPAVQuestData@@@std@@YAPAPAVQuestData@@PAPAV1@@Z PROC ; std::_Val_type<QuestData * *>, COMDAT

; 790  : 	return (0);

  00000	33 c0		 xor	 eax, eax

; 791  : 	}

  00002	c3		 ret	 0
??$_Val_type@PAPAVQuestData@@@std@@YAPAPAVQuestData@@PAPAV1@@Z ENDP ; std::_Val_type<QuestData * *>
_TEXT	ENDS
PUBLIC	??$_Iter_cat@V?$_Vector_iterator@V?$_Vector_val@PAVQuestData@@V?$allocator@PAVQuestData@@@std@@@std@@@std@@@std@@YA?AUrandom_access_iterator_tag@0@ABV?$_Vector_iterator@V?$_Vector_val@PAVQuestData@@V?$allocator@PAVQuestData@@@std@@@std@@@0@@Z ; std::_Iter_cat<std::_Vector_iterator<std::_Vector_val<QuestData *,std::allocator<QuestData *> > > >
; Function compile flags: /Ogsp
;	COMDAT ??$_Iter_cat@V?$_Vector_iterator@V?$_Vector_val@PAVQuestData@@V?$allocator@PAVQuestData@@@std@@@std@@@std@@@std@@YA?AUrandom_access_iterator_tag@0@ABV?$_Vector_iterator@V?$_Vector_val@PAVQuestData@@V?$allocator@PAVQuestData@@@std@@@std@@@0@@Z
_TEXT	SEGMENT
___$ReturnUdt$ = 8					; size = 4
___formal$ = 12						; size = 4
??$_Iter_cat@V?$_Vector_iterator@V?$_Vector_val@PAVQuestData@@V?$allocator@PAVQuestData@@@std@@@std@@@std@@@std@@YA?AUrandom_access_iterator_tag@0@ABV?$_Vector_iterator@V?$_Vector_val@PAVQuestData@@V?$allocator@PAVQuestData@@@std@@@std@@@0@@Z PROC ; std::_Iter_cat<std::_Vector_iterator<std::_Vector_val<QuestData *,std::allocator<QuestData *> > > >, COMDAT

; 476  : 	{	// return category from iterator argument

  00000	55		 push	 ebp
  00001	8b ec		 mov	 ebp, esp

; 477  : 	typename iterator_traits<_Iter>::iterator_category _Cat;
; 478  : 	return (_Cat);

  00003	8b 45 08	 mov	 eax, DWORD PTR ___$ReturnUdt$[ebp]

; 479  : 	}

  00006	5d		 pop	 ebp
  00007	c3		 ret	 0
??$_Iter_cat@V?$_Vector_iterator@V?$_Vector_val@PAVQuestData@@V?$allocator@PAVQuestData@@@std@@@std@@@std@@@std@@YA?AUrandom_access_iterator_tag@0@ABV?$_Vector_iterator@V?$_Vector_val@PAVQuestData@@V?$allocator@PAVQuestData@@@std@@@std@@@0@@Z ENDP ; std::_Iter_cat<std::_Vector_iterator<std::_Vector_val<QuestData *,std::allocator<QuestData *> > > >
_TEXT	ENDS
PUBLIC	??$_Unchecked@PAPAVQuestCompleteData@@@std@@YAPAPAVQuestCompleteData@@PAPAV1@@Z ; std::_Unchecked<QuestCompleteData * *>
; Function compile flags: /Ogsp
;	COMDAT ??$_Unchecked@PAPAVQuestCompleteData@@@std@@YAPAPAVQuestCompleteData@@PAPAV1@@Z
_TEXT	SEGMENT
__Src$ = 8						; size = 4
??$_Unchecked@PAPAVQuestCompleteData@@@std@@YAPAPAVQuestCompleteData@@PAPAV1@@Z PROC ; std::_Unchecked<QuestCompleteData * *>, COMDAT

; 266  : 	{	// construct unchecked from checked, generic

  00000	55		 push	 ebp
  00001	8b ec		 mov	 ebp, esp

; 267  : 	return (_Src);

  00003	8b 45 08	 mov	 eax, DWORD PTR __Src$[ebp]

; 268  : 	}

  00006	5d		 pop	 ebp
  00007	c3		 ret	 0
??$_Unchecked@PAPAVQuestCompleteData@@@std@@YAPAPAVQuestCompleteData@@PAPAV1@@Z ENDP ; std::_Unchecked<QuestCompleteData * *>
_TEXT	ENDS
PUBLIC	??$_Dist_type@PAPAVQuestCompleteData@@@std@@YAPAHPAPAVQuestCompleteData@@@Z ; std::_Dist_type<QuestCompleteData * *>
; Function compile flags: /Ogsp
;	COMDAT ??$_Dist_type@PAPAVQuestCompleteData@@@std@@YAPAHPAPAVQuestCompleteData@@@Z
_TEXT	SEGMENT
___formal$ = 8						; size = 4
??$_Dist_type@PAPAVQuestCompleteData@@@std@@YAPAHPAPAVQuestCompleteData@@@Z PROC ; std::_Dist_type<QuestCompleteData * *>, COMDAT

; 850  : 	return (0);

  00000	33 c0		 xor	 eax, eax

; 851  : 	}

  00002	c3		 ret	 0
??$_Dist_type@PAPAVQuestCompleteData@@@std@@YAPAHPAPAVQuestCompleteData@@@Z ENDP ; std::_Dist_type<QuestCompleteData * *>
_TEXT	ENDS
PUBLIC	??$_Val_type@PAPAVQuestCompleteData@@@std@@YAPAPAVQuestCompleteData@@PAPAV1@@Z ; std::_Val_type<QuestCompleteData * *>
; Function compile flags: /Ogsp
;	COMDAT ??$_Val_type@PAPAVQuestCompleteData@@@std@@YAPAPAVQuestCompleteData@@PAPAV1@@Z
_TEXT	SEGMENT
___formal$ = 8						; size = 4
??$_Val_type@PAPAVQuestCompleteData@@@std@@YAPAPAVQuestCompleteData@@PAPAV1@@Z PROC ; std::_Val_type<QuestCompleteData * *>, COMDAT

; 790  : 	return (0);

  00000	33 c0		 xor	 eax, eax

; 791  : 	}

  00002	c3		 ret	 0
??$_Val_type@PAPAVQuestCompleteData@@@std@@YAPAPAVQuestCompleteData@@PAPAV1@@Z ENDP ; std::_Val_type<QuestCompleteData * *>
_TEXT	ENDS
PUBLIC	??$_Iter_cat@V?$_Vector_iterator@V?$_Vector_val@PAVQuestCompleteData@@V?$allocator@PAVQuestCompleteData@@@std@@@std@@@std@@@std@@YA?AUrandom_access_iterator_tag@0@ABV?$_Vector_iterator@V?$_Vector_val@PAVQuestCompleteData@@V?$allocator@PAVQuestCompleteData@@@std@@@std@@@0@@Z ; std::_Iter_cat<std::_Vector_iterator<std::_Vector_val<QuestCompleteData *,std::allocator<QuestCompleteData *> > > >
; Function compile flags: /Ogsp
;	COMDAT ??$_Iter_cat@V?$_Vector_iterator@V?$_Vector_val@PAVQuestCompleteData@@V?$allocator@PAVQuestCompleteData@@@std@@@std@@@std@@@std@@YA?AUrandom_access_iterator_tag@0@ABV?$_Vector_iterator@V?$_Vector_val@PAVQuestCompleteData@@V?$allocator@PAVQuestCompleteData@@@std@@@std@@@0@@Z
_TEXT	SEGMENT
___$ReturnUdt$ = 8					; size = 4
___formal$ = 12						; size = 4
??$_Iter_cat@V?$_Vector_iterator@V?$_Vector_val@PAVQuestCompleteData@@V?$allocator@PAVQuestCompleteData@@@std@@@std@@@std@@@std@@YA?AUrandom_access_iterator_tag@0@ABV?$_Vector_iterator@V?$_Vector_val@PAVQuestCompleteData@@V?$allocator@PAVQuestCompleteData@@@std@@@std@@@0@@Z PROC ; std::_Iter_cat<std::_Vector_iterator<std::_Vector_val<QuestCompleteData *,std::allocator<QuestCompleteData *> > > >, COMDAT

; 476  : 	{	// return category from iterator argument

  00000	55		 push	 ebp
  00001	8b ec		 mov	 ebp, esp

; 477  : 	typename iterator_traits<_Iter>::iterator_category _Cat;
; 478  : 	return (_Cat);

  00003	8b 45 08	 mov	 eax, DWORD PTR ___$ReturnUdt$[ebp]

; 479  : 	}

  00006	5d		 pop	 ebp
  00007	c3		 ret	 0
??$_Iter_cat@V?$_Vector_iterator@V?$_Vector_val@PAVQuestCompleteData@@V?$allocator@PAVQuestCompleteData@@@std@@@std@@@std@@@std@@YA?AUrandom_access_iterator_tag@0@ABV?$_Vector_iterator@V?$_Vector_val@PAVQuestCompleteData@@V?$allocator@PAVQuestCompleteData@@@std@@@std@@@0@@Z ENDP ; std::_Iter_cat<std::_Vector_iterator<std::_Vector_val<QuestCompleteData *,std::allocator<QuestCompleteData *> > > >
_TEXT	ENDS
PUBLIC	__TI2?AVbad_alloc@std@@
PUBLIC	??$_Allocate@PAVQuestData@@@std@@YAPAPAVQuestData@@IPAPAV1@@Z ; std::_Allocate<QuestData *>
PUBLIC	__CTA2?AVbad_alloc@std@@
PUBLIC	__CT??_R0?AVbad_alloc@std@@@8??0bad_alloc@std@@QAE@ABV01@@Z12
PUBLIC	??0bad_alloc@std@@QAE@ABV01@@Z			; std::bad_alloc::bad_alloc
PUBLIC	__CT??_R0?AVexception@std@@@8??0exception@std@@QAE@ABV01@@Z12
EXTRN	??2@YAPAXI@Z:PROC				; operator new
EXTRN	__CxxThrowException@8:PROC
EXTRN	??0exception@std@@QAE@ABV01@@Z:PROC		; std::exception::exception
;	COMDAT __CT??_R0?AVexception@std@@@8??0exception@std@@QAE@ABV01@@Z12
; File c:\program files (x86)\microsoft visual studio 10.0\vc\include\exception
xdata$x	SEGMENT
__CT??_R0?AVexception@std@@@8??0exception@std@@QAE@ABV01@@Z12 DD 00H
	DD	FLAT:??_R0?AVexception@std@@@8
	DD	00H
	DD	0ffffffffH
	ORG $+4
	DD	0cH
	DD	FLAT:??0exception@std@@QAE@ABV01@@Z
xdata$x	ENDS
;	COMDAT __CT??_R0?AVbad_alloc@std@@@8??0bad_alloc@std@@QAE@ABV01@@Z12
xdata$x	SEGMENT
__CT??_R0?AVbad_alloc@std@@@8??0bad_alloc@std@@QAE@ABV01@@Z12 DD 00H
	DD	FLAT:??_R0?AVbad_alloc@std@@@8
	DD	00H
	DD	0ffffffffH
	ORG $+4
	DD	0cH
	DD	FLAT:??0bad_alloc@std@@QAE@ABV01@@Z
xdata$x	ENDS
;	COMDAT __CTA2?AVbad_alloc@std@@
xdata$x	SEGMENT
__CTA2?AVbad_alloc@std@@ DD 02H
	DD	FLAT:__CT??_R0?AVbad_alloc@std@@@8??0bad_alloc@std@@QAE@ABV01@@Z12
	DD	FLAT:__CT??_R0?AVexception@std@@@8??0exception@std@@QAE@ABV01@@Z12
xdata$x	ENDS
;	COMDAT __TI2?AVbad_alloc@std@@
xdata$x	SEGMENT
__TI2?AVbad_alloc@std@@ DD 00H
	DD	FLAT:??1bad_alloc@std@@UAE@XZ
	DD	00H
	DD	FLAT:__CTA2?AVbad_alloc@std@@
; Function compile flags: /Ogsp
; File c:\program files (x86)\microsoft visual studio 10.0\vc\include\xmemory
xdata$x	ENDS
;	COMDAT ??$_Allocate@PAVQuestData@@@std@@YAPAPAVQuestData@@IPAPAV1@@Z
_TEXT	SEGMENT
$T509217 = -12						; size = 12
$T509222 = 8						; size = 4
__Count$ = 8						; size = 4
___formal$ = 12						; size = 4
??$_Allocate@PAVQuestData@@@std@@YAPAPAVQuestData@@IPAPAV1@@Z PROC ; std::_Allocate<QuestData *>, COMDAT

; 30   : 	{	// allocate storage for _Count elements of type _Ty

  00000	55		 push	 ebp
  00001	8b ec		 mov	 ebp, esp

; 31   : 	void *_Ptr = 0;
; 32   : 
; 33   : 	if (_Count <= 0)

  00003	8b 4d 08	 mov	 ecx, DWORD PTR __Count$[ebp]
  00006	83 ec 0c	 sub	 esp, 12			; 0000000cH
  00009	33 c0		 xor	 eax, eax
  0000b	85 c9		 test	 ecx, ecx

; 34   : 		_Count = 0;
; 35   : 	else if (((_SIZT)(-1) / sizeof (_Ty) < _Count)

  0000d	74 3e		 je	 SHORT $LN5@Allocate

; 36   : 		|| (_Ptr = ::operator new(_Count * sizeof (_Ty))) == 0)

  0000f	81 f9 ff ff ff
	3f		 cmp	 ecx, 1073741823		; 3fffffffH
  00015	77 10		 ja	 SHORT $LN1@Allocate
  00017	8b c1		 mov	 eax, ecx
  00019	c1 e0 02	 shl	 eax, 2
  0001c	50		 push	 eax
  0001d	e8 00 00 00 00	 call	 ??2@YAPAXI@Z		; operator new
  00022	59		 pop	 ecx
  00023	85 c0		 test	 eax, eax

; 38   : 
; 39   : 	return ((_Ty _FARQ *)_Ptr);

  00025	75 26		 jne	 SHORT $LN5@Allocate
$LN1@Allocate:

; 37   : 		_THROW_NCEE(bad_alloc, 0);

  00027	83 65 08 00	 and	 DWORD PTR $T509222[ebp], 0
  0002b	8d 45 08	 lea	 eax, DWORD PTR $T509222[ebp]
  0002e	50		 push	 eax
  0002f	8d 4d f4	 lea	 ecx, DWORD PTR $T509217[ebp]
  00032	ff 15 00 00 00
	00		 call	 DWORD PTR __imp_??0exception@std@@QAE@ABQBD@Z
  00038	68 00 00 00 00	 push	 OFFSET __TI2?AVbad_alloc@std@@
  0003d	8d 45 f4	 lea	 eax, DWORD PTR $T509217[ebp]
  00040	50		 push	 eax
  00041	c7 45 f4 00 00
	00 00		 mov	 DWORD PTR $T509217[ebp], OFFSET ??_7bad_alloc@std@@6B@
  00048	e8 00 00 00 00	 call	 __CxxThrowException@8
$LN10@Allocate:
$LN5@Allocate:

; 40   : 	}

  0004d	c9		 leave
  0004e	c3		 ret	 0
$LN9@Allocate:
??$_Allocate@PAVQuestData@@@std@@YAPAPAVQuestData@@IPAPAV1@@Z ENDP ; std::_Allocate<QuestData *>
_TEXT	ENDS
PUBLIC	??$_Allocate@PAVQuestCompleteData@@@std@@YAPAPAVQuestCompleteData@@IPAPAV1@@Z ; std::_Allocate<QuestCompleteData *>
; Function compile flags: /Ogsp
;	COMDAT ??$_Allocate@PAVQuestCompleteData@@@std@@YAPAPAVQuestCompleteData@@IPAPAV1@@Z
_TEXT	SEGMENT
$T509227 = -12						; size = 12
$T509231 = 8						; size = 4
__Count$ = 8						; size = 4
___formal$ = 12						; size = 4
??$_Allocate@PAVQuestCompleteData@@@std@@YAPAPAVQuestCompleteData@@IPAPAV1@@Z PROC ; std::_Allocate<QuestCompleteData *>, COMDAT

; 30   : 	{	// allocate storage for _Count elements of type _Ty

  00000	55		 push	 ebp
  00001	8b ec		 mov	 ebp, esp

; 31   : 	void *_Ptr = 0;
; 32   : 
; 33   : 	if (_Count <= 0)

  00003	8b 4d 08	 mov	 ecx, DWORD PTR __Count$[ebp]
  00006	83 ec 0c	 sub	 esp, 12			; 0000000cH
  00009	33 c0		 xor	 eax, eax
  0000b	85 c9		 test	 ecx, ecx

; 34   : 		_Count = 0;
; 35   : 	else if (((_SIZT)(-1) / sizeof (_Ty) < _Count)

  0000d	74 3e		 je	 SHORT $LN5@Allocate@2

; 36   : 		|| (_Ptr = ::operator new(_Count * sizeof (_Ty))) == 0)

  0000f	81 f9 ff ff ff
	3f		 cmp	 ecx, 1073741823		; 3fffffffH
  00015	77 10		 ja	 SHORT $LN1@Allocate@2
  00017	8b c1		 mov	 eax, ecx
  00019	c1 e0 02	 shl	 eax, 2
  0001c	50		 push	 eax
  0001d	e8 00 00 00 00	 call	 ??2@YAPAXI@Z		; operator new
  00022	59		 pop	 ecx
  00023	85 c0		 test	 eax, eax

; 38   : 
; 39   : 	return ((_Ty _FARQ *)_Ptr);

  00025	75 26		 jne	 SHORT $LN5@Allocate@2
$LN1@Allocate@2:

; 37   : 		_THROW_NCEE(bad_alloc, 0);

  00027	83 65 08 00	 and	 DWORD PTR $T509231[ebp], 0
  0002b	8d 45 08	 lea	 eax, DWORD PTR $T509231[ebp]
  0002e	50		 push	 eax
  0002f	8d 4d f4	 lea	 ecx, DWORD PTR $T509227[ebp]
  00032	ff 15 00 00 00
	00		 call	 DWORD PTR __imp_??0exception@std@@QAE@ABQBD@Z
  00038	68 00 00 00 00	 push	 OFFSET __TI2?AVbad_alloc@std@@
  0003d	8d 45 f4	 lea	 eax, DWORD PTR $T509227[ebp]
  00040	50		 push	 eax
  00041	c7 45 f4 00 00
	00 00		 mov	 DWORD PTR $T509227[ebp], OFFSET ??_7bad_alloc@std@@6B@
  00048	e8 00 00 00 00	 call	 __CxxThrowException@8
$LN10@Allocate@2:
$LN5@Allocate@2:

; 40   : 	}

  0004d	c9		 leave
  0004e	c3		 ret	 0
$LN9@Allocate@2:
??$_Allocate@PAVQuestCompleteData@@@std@@YAPAPAVQuestCompleteData@@IPAPAV1@@Z ENDP ; std::_Allocate<QuestCompleteData *>
_TEXT	ENDS
PUBLIC	??$forward@AAPAPAVQuestData@@@std@@YAAAPAPAVQuestData@@AAPAPAV1@@Z ; std::forward<QuestData * * &>
; Function compile flags: /Ogsp
; File c:\program files (x86)\microsoft visual studio 10.0\vc\include\utility
;	COMDAT ??$forward@AAPAPAVQuestData@@@std@@YAAAPAPAVQuestData@@AAPAPAV1@@Z
_TEXT	SEGMENT
__Arg$ = 8						; size = 4
??$forward@AAPAPAVQuestData@@@std@@YAAAPAPAVQuestData@@AAPAPAV1@@Z PROC ; std::forward<QuestData * * &>, COMDAT

; 78   : 	{	// forward _Arg, given explicitly specified type parameter

  00000	55		 push	 ebp
  00001	8b ec		 mov	 ebp, esp

; 79   : 	return ((_Ty&&)_Arg);

  00003	8b 45 08	 mov	 eax, DWORD PTR __Arg$[ebp]

; 80   : 	}

  00006	5d		 pop	 ebp
  00007	c3		 ret	 0
??$forward@AAPAPAVQuestData@@@std@@YAAAPAPAVQuestData@@AAPAPAV1@@Z ENDP ; std::forward<QuestData * * &>
_TEXT	ENDS
PUBLIC	??$?0AAPAPAVQuestData@@AAPAPAV0@@?$_Pair_base@PAPAVQuestData@@PAPAV1@@std@@QAE@AAPAPAVQuestData@@0@Z ; std::_Pair_base<QuestData * *,QuestData * *>::_Pair_base<QuestData * *,QuestData * *><QuestData * * &,QuestData * * &>
; Function compile flags: /Ogsp
;	COMDAT ??$?0AAPAPAVQuestData@@AAPAPAV0@@?$_Pair_base@PAPAVQuestData@@PAPAV1@@std@@QAE@AAPAPAVQuestData@@0@Z
_TEXT	SEGMENT
__Val1$ = 8						; size = 4
__Val2$ = 12						; size = 4
??$?0AAPAPAVQuestData@@AAPAPAV0@@?$_Pair_base@PAPAVQuestData@@PAPAV1@@std@@QAE@AAPAPAVQuestData@@0@Z PROC ; std::_Pair_base<QuestData * *,QuestData * *>::_Pair_base<QuestData * *,QuestData * *><QuestData * * &,QuestData * * &>, COMDAT
; _this$ = ecx

; 163  : 		{	// construct from moved values

  00000	55		 push	 ebp
  00001	8b ec		 mov	 ebp, esp
  00003	8b c1		 mov	 eax, ecx
  00005	8b 4d 08	 mov	 ecx, DWORD PTR __Val1$[ebp]
  00008	8b 09		 mov	 ecx, DWORD PTR [ecx]
  0000a	89 08		 mov	 DWORD PTR [eax], ecx
  0000c	8b 4d 0c	 mov	 ecx, DWORD PTR __Val2$[ebp]
  0000f	8b 09		 mov	 ecx, DWORD PTR [ecx]
  00011	89 48 04	 mov	 DWORD PTR [eax+4], ecx

; 164  : 		}

  00014	5d		 pop	 ebp
  00015	c2 08 00	 ret	 8
??$?0AAPAPAVQuestData@@AAPAPAV0@@?$_Pair_base@PAPAVQuestData@@PAPAV1@@std@@QAE@AAPAPAVQuestData@@0@Z ENDP ; std::_Pair_base<QuestData * *,QuestData * *>::_Pair_base<QuestData * *,QuestData * *><QuestData * * &,QuestData * * &>
_TEXT	ENDS
PUBLIC	??$_Move@AAPAVQuestData@@@std@@YA$$QAPAVQuestData@@AAPAV1@@Z ; std::_Move<QuestData * &>
; Function compile flags: /Ogsp
;	COMDAT ??$_Move@AAPAVQuestData@@@std@@YA$$QAPAVQuestData@@AAPAV1@@Z
_TEXT	SEGMENT
__Arg$ = 8						; size = 4
??$_Move@AAPAVQuestData@@@std@@YA$$QAPAVQuestData@@AAPAV1@@Z PROC ; std::_Move<QuestData * &>, COMDAT

; 94   : 	{	// forward _Arg as movable

  00000	55		 push	 ebp
  00001	8b ec		 mov	 ebp, esp

; 95   : 	return ((typename tr1::_Remove_reference<_Ty>::_Type&&)_Arg);

  00003	8b 45 08	 mov	 eax, DWORD PTR __Arg$[ebp]

; 96   : 	}

  00006	5d		 pop	 ebp
  00007	c3		 ret	 0
??$_Move@AAPAVQuestData@@@std@@YA$$QAPAVQuestData@@AAPAV1@@Z ENDP ; std::_Move<QuestData * &>
_TEXT	ENDS
PUBLIC	??$construct@AAPAVQuestData@@@?$allocator@PAVQuestData@@@std@@QAEXPAPAVQuestData@@AAPAV2@@Z ; std::allocator<QuestData *>::construct<QuestData * &>
; Function compile flags: /Ogsp
; File c:\program files (x86)\microsoft visual studio 10.0\vc\include\xmemory
;	COMDAT ??$construct@AAPAVQuestData@@@?$allocator@PAVQuestData@@@std@@QAEXPAPAVQuestData@@AAPAV2@@Z
_TEXT	SEGMENT
__Ptr$ = 8						; size = 4
__Val$ = 12						; size = 4
??$construct@AAPAVQuestData@@@?$allocator@PAVQuestData@@@std@@QAEXPAPAVQuestData@@AAPAV2@@Z PROC ; std::allocator<QuestData *>::construct<QuestData * &>, COMDAT
; _this$ = ecx

; 206  : 		void construct(pointer _Ptr, _Other&& _Val)

  00000	55		 push	 ebp
  00001	8b ec		 mov	 ebp, esp

; 207  : 		{	// construct object at _Ptr with value _Val
; 208  : 		::new ((void _FARQ *)_Ptr) _Ty(_STD forward<_Other>(_Val));

  00003	8b 45 08	 mov	 eax, DWORD PTR __Ptr$[ebp]
  00006	85 c0		 test	 eax, eax
  00008	74 07		 je	 SHORT $LN3@construct
  0000a	8b 4d 0c	 mov	 ecx, DWORD PTR __Val$[ebp]
  0000d	8b 09		 mov	 ecx, DWORD PTR [ecx]
  0000f	89 08		 mov	 DWORD PTR [eax], ecx
$LN3@construct:

; 209  : 		}

  00011	5d		 pop	 ebp
  00012	c2 08 00	 ret	 8
??$construct@AAPAVQuestData@@@?$allocator@PAVQuestData@@@std@@QAEXPAPAVQuestData@@AAPAV2@@Z ENDP ; std::allocator<QuestData *>::construct<QuestData * &>
_TEXT	ENDS
PUBLIC	??$forward@AAPAPAVQuestCompleteData@@@std@@YAAAPAPAVQuestCompleteData@@AAPAPAV1@@Z ; std::forward<QuestCompleteData * * &>
; Function compile flags: /Ogsp
; File c:\program files (x86)\microsoft visual studio 10.0\vc\include\utility
;	COMDAT ??$forward@AAPAPAVQuestCompleteData@@@std@@YAAAPAPAVQuestCompleteData@@AAPAPAV1@@Z
_TEXT	SEGMENT
__Arg$ = 8						; size = 4
??$forward@AAPAPAVQuestCompleteData@@@std@@YAAAPAPAVQuestCompleteData@@AAPAPAV1@@Z PROC ; std::forward<QuestCompleteData * * &>, COMDAT

; 78   : 	{	// forward _Arg, given explicitly specified type parameter

  00000	55		 push	 ebp
  00001	8b ec		 mov	 ebp, esp

; 79   : 	return ((_Ty&&)_Arg);

  00003	8b 45 08	 mov	 eax, DWORD PTR __Arg$[ebp]

; 80   : 	}

  00006	5d		 pop	 ebp
  00007	c3		 ret	 0
??$forward@AAPAPAVQuestCompleteData@@@std@@YAAAPAPAVQuestCompleteData@@AAPAPAV1@@Z ENDP ; std::forward<QuestCompleteData * * &>
_TEXT	ENDS
PUBLIC	??$?0AAPAPAVQuestCompleteData@@AAPAPAV0@@?$_Pair_base@PAPAVQuestCompleteData@@PAPAV1@@std@@QAE@AAPAPAVQuestCompleteData@@0@Z ; std::_Pair_base<QuestCompleteData * *,QuestCompleteData * *>::_Pair_base<QuestCompleteData * *,QuestCompleteData * *><QuestCompleteData * * &,QuestCompleteData * * &>
; Function compile flags: /Ogsp
;	COMDAT ??$?0AAPAPAVQuestCompleteData@@AAPAPAV0@@?$_Pair_base@PAPAVQuestCompleteData@@PAPAV1@@std@@QAE@AAPAPAVQuestCompleteData@@0@Z
_TEXT	SEGMENT
__Val1$ = 8						; size = 4
__Val2$ = 12						; size = 4
??$?0AAPAPAVQuestCompleteData@@AAPAPAV0@@?$_Pair_base@PAPAVQuestCompleteData@@PAPAV1@@std@@QAE@AAPAPAVQuestCompleteData@@0@Z PROC ; std::_Pair_base<QuestCompleteData * *,QuestCompleteData * *>::_Pair_base<QuestCompleteData * *,QuestCompleteData * *><QuestCompleteData * * &,QuestCompleteData * * &>, COMDAT
; _this$ = ecx

; 163  : 		{	// construct from moved values

  00000	55		 push	 ebp
  00001	8b ec		 mov	 ebp, esp
  00003	8b c1		 mov	 eax, ecx
  00005	8b 4d 08	 mov	 ecx, DWORD PTR __Val1$[ebp]
  00008	8b 09		 mov	 ecx, DWORD PTR [ecx]
  0000a	89 08		 mov	 DWORD PTR [eax], ecx
  0000c	8b 4d 0c	 mov	 ecx, DWORD PTR __Val2$[ebp]
  0000f	8b 09		 mov	 ecx, DWORD PTR [ecx]
  00011	89 48 04	 mov	 DWORD PTR [eax+4], ecx

; 164  : 		}

  00014	5d		 pop	 ebp
  00015	c2 08 00	 ret	 8
??$?0AAPAPAVQuestCompleteData@@AAPAPAV0@@?$_Pair_base@PAPAVQuestCompleteData@@PAPAV1@@std@@QAE@AAPAPAVQuestCompleteData@@0@Z ENDP ; std::_Pair_base<QuestCompleteData * *,QuestCompleteData * *>::_Pair_base<QuestCompleteData * *,QuestCompleteData * *><QuestCompleteData * * &,QuestCompleteData * * &>
_TEXT	ENDS
PUBLIC	??$_Move@AAPAVQuestCompleteData@@@std@@YA$$QAPAVQuestCompleteData@@AAPAV1@@Z ; std::_Move<QuestCompleteData * &>
; Function compile flags: /Ogsp
;	COMDAT ??$_Move@AAPAVQuestCompleteData@@@std@@YA$$QAPAVQuestCompleteData@@AAPAV1@@Z
_TEXT	SEGMENT
__Arg$ = 8						; size = 4
??$_Move@AAPAVQuestCompleteData@@@std@@YA$$QAPAVQuestCompleteData@@AAPAV1@@Z PROC ; std::_Move<QuestCompleteData * &>, COMDAT

; 94   : 	{	// forward _Arg as movable

  00000	55		 push	 ebp
  00001	8b ec		 mov	 ebp, esp

; 95   : 	return ((typename tr1::_Remove_reference<_Ty>::_Type&&)_Arg);

  00003	8b 45 08	 mov	 eax, DWORD PTR __Arg$[ebp]

; 96   : 	}

  00006	5d		 pop	 ebp
  00007	c3		 ret	 0
??$_Move@AAPAVQuestCompleteData@@@std@@YA$$QAPAVQuestCompleteData@@AAPAV1@@Z ENDP ; std::_Move<QuestCompleteData * &>
_TEXT	ENDS
PUBLIC	??$construct@AAPAVQuestCompleteData@@@?$allocator@PAVQuestCompleteData@@@std@@QAEXPAPAVQuestCompleteData@@AAPAV2@@Z ; std::allocator<QuestCompleteData *>::construct<QuestCompleteData * &>
; Function compile flags: /Ogsp
; File c:\program files (x86)\microsoft visual studio 10.0\vc\include\xmemory
;	COMDAT ??$construct@AAPAVQuestCompleteData@@@?$allocator@PAVQuestCompleteData@@@std@@QAEXPAPAVQuestCompleteData@@AAPAV2@@Z
_TEXT	SEGMENT
__Ptr$ = 8						; size = 4
__Val$ = 12						; size = 4
??$construct@AAPAVQuestCompleteData@@@?$allocator@PAVQuestCompleteData@@@std@@QAEXPAPAVQuestCompleteData@@AAPAV2@@Z PROC ; std::allocator<QuestCompleteData *>::construct<QuestCompleteData * &>, COMDAT
; _this$ = ecx

; 206  : 		void construct(pointer _Ptr, _Other&& _Val)

  00000	55		 push	 ebp
  00001	8b ec		 mov	 ebp, esp

; 207  : 		{	// construct object at _Ptr with value _Val
; 208  : 		::new ((void _FARQ *)_Ptr) _Ty(_STD forward<_Other>(_Val));

  00003	8b 45 08	 mov	 eax, DWORD PTR __Ptr$[ebp]
  00006	85 c0		 test	 eax, eax
  00008	74 07		 je	 SHORT $LN3@construct@2
  0000a	8b 4d 0c	 mov	 ecx, DWORD PTR __Val$[ebp]
  0000d	8b 09		 mov	 ecx, DWORD PTR [ecx]
  0000f	89 08		 mov	 DWORD PTR [eax], ecx
$LN3@construct@2:

; 209  : 		}

  00011	5d		 pop	 ebp
  00012	c2 08 00	 ret	 8
??$construct@AAPAVQuestCompleteData@@@?$allocator@PAVQuestCompleteData@@@std@@QAEXPAPAVQuestCompleteData@@AAPAV2@@Z ENDP ; std::allocator<QuestCompleteData *>::construct<QuestCompleteData * &>
_TEXT	ENDS
PUBLIC	??$_Move_backward@PAPAVQuestData@@PAPAV1@@std@@YAPAPAVQuestData@@PAPAV1@00U_Scalar_ptr_iterator_tag@0@@Z ; std::_Move_backward<QuestData * *,QuestData * *>
; Function compile flags: /Ogsp
; File c:\program files (x86)\microsoft visual studio 10.0\vc\include\xutility
;	COMDAT ??$_Move_backward@PAPAVQuestData@@PAPAV1@@std@@YAPAPAVQuestData@@PAPAV1@00U_Scalar_ptr_iterator_tag@0@@Z
_TEXT	SEGMENT
__First$ = 8						; size = 4
__Last$ = 12						; size = 4
__Dest$ = 16						; size = 4
___formal$ = 20						; size = 1
??$_Move_backward@PAPAVQuestData@@PAPAV1@@std@@YAPAPAVQuestData@@PAPAV1@00U_Scalar_ptr_iterator_tag@0@@Z PROC ; std::_Move_backward<QuestData * *,QuestData * *>, COMDAT

; 2627 : 	{	// move [_First, _Last) backwards to [..., _Dest), pointers to scalars

  00000	55		 push	 ebp
  00001	8b ec		 mov	 ebp, esp

; 2628 : 	ptrdiff_t _Count = _Last - _First;

  00003	8b 45 0c	 mov	 eax, DWORD PTR __Last$[ebp]
  00006	2b 45 08	 sub	 eax, DWORD PTR __First$[ebp]
  00009	56		 push	 esi

; 2629 : 	_CSTD memmove(&*_Dest - _Count, &*_First,
; 2630 : 		_Count * sizeof (*_First));

  0000a	8b 75 10	 mov	 esi, DWORD PTR __Dest$[ebp]
  0000d	83 e0 fc	 and	 eax, -4			; fffffffcH
  00010	50		 push	 eax
  00011	ff 75 08	 push	 DWORD PTR __First$[ebp]
  00014	2b f0		 sub	 esi, eax
  00016	56		 push	 esi
  00017	ff 15 00 00 00
	00		 call	 DWORD PTR __imp__memmove
  0001d	83 c4 0c	 add	 esp, 12			; 0000000cH

; 2631 : 	return (_Dest - _Count);

  00020	8b c6		 mov	 eax, esi
  00022	5e		 pop	 esi

; 2632 : 	}

  00023	5d		 pop	 ebp
  00024	c3		 ret	 0
??$_Move_backward@PAPAVQuestData@@PAPAV1@@std@@YAPAPAVQuestData@@PAPAV1@00U_Scalar_ptr_iterator_tag@0@@Z ENDP ; std::_Move_backward<QuestData * *,QuestData * *>
_TEXT	ENDS
PUBLIC	??$_Move_backward@PAPAVQuestCompleteData@@PAPAV1@@std@@YAPAPAVQuestCompleteData@@PAPAV1@00U_Scalar_ptr_iterator_tag@0@@Z ; std::_Move_backward<QuestCompleteData * *,QuestCompleteData * *>
; Function compile flags: /Ogsp
;	COMDAT ??$_Move_backward@PAPAVQuestCompleteData@@PAPAV1@@std@@YAPAPAVQuestCompleteData@@PAPAV1@00U_Scalar_ptr_iterator_tag@0@@Z
_TEXT	SEGMENT
__First$ = 8						; size = 4
__Last$ = 12						; size = 4
__Dest$ = 16						; size = 4
___formal$ = 20						; size = 1
??$_Move_backward@PAPAVQuestCompleteData@@PAPAV1@@std@@YAPAPAVQuestCompleteData@@PAPAV1@00U_Scalar_ptr_iterator_tag@0@@Z PROC ; std::_Move_backward<QuestCompleteData * *,QuestCompleteData * *>, COMDAT

; 2627 : 	{	// move [_First, _Last) backwards to [..., _Dest), pointers to scalars

  00000	55		 push	 ebp
  00001	8b ec		 mov	 ebp, esp

; 2628 : 	ptrdiff_t _Count = _Last - _First;

  00003	8b 45 0c	 mov	 eax, DWORD PTR __Last$[ebp]
  00006	2b 45 08	 sub	 eax, DWORD PTR __First$[ebp]
  00009	56		 push	 esi

; 2629 : 	_CSTD memmove(&*_Dest - _Count, &*_First,
; 2630 : 		_Count * sizeof (*_First));

  0000a	8b 75 10	 mov	 esi, DWORD PTR __Dest$[ebp]
  0000d	83 e0 fc	 and	 eax, -4			; fffffffcH
  00010	50		 push	 eax
  00011	ff 75 08	 push	 DWORD PTR __First$[ebp]
  00014	2b f0		 sub	 esi, eax
  00016	56		 push	 esi
  00017	ff 15 00 00 00
	00		 call	 DWORD PTR __imp__memmove
  0001d	83 c4 0c	 add	 esp, 12			; 0000000cH

; 2631 : 	return (_Dest - _Count);

  00020	8b c6		 mov	 eax, esi
  00022	5e		 pop	 esi

; 2632 : 	}

  00023	5d		 pop	 ebp
  00024	c3		 ret	 0
??$_Move_backward@PAPAVQuestCompleteData@@PAPAV1@@std@@YAPAPAVQuestCompleteData@@PAPAV1@00U_Scalar_ptr_iterator_tag@0@@Z ENDP ; std::_Move_backward<QuestCompleteData * *,QuestCompleteData * *>
_TEXT	ENDS
PUBLIC	??$_Uninit_move@PAVQuestData@@PAV1@PAV1@@std@@YAPAPAVQuestData@@PAPAV1@00AAV?$allocator@PAVQuestData@@@0@0U_Scalar_ptr_iterator_tag@0@@Z ; std::_Uninit_move<QuestData *,QuestData *,QuestData *>
; Function compile flags: /Ogsp
; File c:\program files (x86)\microsoft visual studio 10.0\vc\include\memory
;	COMDAT ??$_Uninit_move@PAVQuestData@@PAV1@PAV1@@std@@YAPAPAVQuestData@@PAPAV1@00AAV?$allocator@PAVQuestData@@@0@0U_Scalar_ptr_iterator_tag@0@@Z
_TEXT	SEGMENT
__First$ = 8						; size = 4
__Last$ = 12						; size = 4
__Dest$ = 16						; size = 4
___formal$ = 20						; size = 4
___formal$ = 24						; size = 4
___formal$ = 28						; size = 1
??$_Uninit_move@PAVQuestData@@PAV1@PAV1@@std@@YAPAPAVQuestData@@PAPAV1@00AAV?$allocator@PAVQuestData@@@0@0U_Scalar_ptr_iterator_tag@0@@Z PROC ; std::_Uninit_move<QuestData *,QuestData *,QuestData *>, COMDAT

; 456  : 	{	// move [_First, _Last) to raw _Dest, scalar type

  00000	55		 push	 ebp
  00001	8b ec		 mov	 ebp, esp
  00003	56		 push	 esi

; 457  : 	_DEBUG_RANGE(_First, _Last);
; 458  : 	_DEBUG_POINTER(_Dest);
; 459  : 	size_t _Count = (size_t)(_Last - _First);

  00004	8b 75 0c	 mov	 esi, DWORD PTR __Last$[ebp]
  00007	2b 75 08	 sub	 esi, DWORD PTR __First$[ebp]
  0000a	c1 fe 02	 sar	 esi, 2

; 460  : 	return ((_Ty2 *)_CSTD memmove(&*_Dest, &*_First,
; 461  : 		_Count * sizeof (*_First)) + _Count);	// NB: non-overlapping move

  0000d	c1 e6 02	 shl	 esi, 2
  00010	56		 push	 esi
  00011	ff 75 08	 push	 DWORD PTR __First$[ebp]
  00014	ff 75 10	 push	 DWORD PTR __Dest$[ebp]
  00017	ff 15 00 00 00
	00		 call	 DWORD PTR __imp__memmove
  0001d	83 c4 0c	 add	 esp, 12			; 0000000cH
  00020	03 c6		 add	 eax, esi
  00022	5e		 pop	 esi

; 462  : 	}

  00023	5d		 pop	 ebp
  00024	c3		 ret	 0
??$_Uninit_move@PAVQuestData@@PAV1@PAV1@@std@@YAPAPAVQuestData@@PAPAV1@00AAV?$allocator@PAVQuestData@@@0@0U_Scalar_ptr_iterator_tag@0@@Z ENDP ; std::_Uninit_move<QuestData *,QuestData *,QuestData *>
_TEXT	ENDS
PUBLIC	??$_Uninit_move@PAVQuestCompleteData@@PAV1@PAV1@@std@@YAPAPAVQuestCompleteData@@PAPAV1@00AAV?$allocator@PAVQuestCompleteData@@@0@0U_Scalar_ptr_iterator_tag@0@@Z ; std::_Uninit_move<QuestCompleteData *,QuestCompleteData *,QuestCompleteData *>
; Function compile flags: /Ogsp
;	COMDAT ??$_Uninit_move@PAVQuestCompleteData@@PAV1@PAV1@@std@@YAPAPAVQuestCompleteData@@PAPAV1@00AAV?$allocator@PAVQuestCompleteData@@@0@0U_Scalar_ptr_iterator_tag@0@@Z
_TEXT	SEGMENT
__First$ = 8						; size = 4
__Last$ = 12						; size = 4
__Dest$ = 16						; size = 4
___formal$ = 20						; size = 4
___formal$ = 24						; size = 4
___formal$ = 28						; size = 1
??$_Uninit_move@PAVQuestCompleteData@@PAV1@PAV1@@std@@YAPAPAVQuestCompleteData@@PAPAV1@00AAV?$allocator@PAVQuestCompleteData@@@0@0U_Scalar_ptr_iterator_tag@0@@Z PROC ; std::_Uninit_move<QuestCompleteData *,QuestCompleteData *,QuestCompleteData *>, COMDAT

; 456  : 	{	// move [_First, _Last) to raw _Dest, scalar type

  00000	55		 push	 ebp
  00001	8b ec		 mov	 ebp, esp
  00003	56		 push	 esi

; 457  : 	_DEBUG_RANGE(_First, _Last);
; 458  : 	_DEBUG_POINTER(_Dest);
; 459  : 	size_t _Count = (size_t)(_Last - _First);

  00004	8b 75 0c	 mov	 esi, DWORD PTR __Last$[ebp]
  00007	2b 75 08	 sub	 esi, DWORD PTR __First$[ebp]
  0000a	c1 fe 02	 sar	 esi, 2

; 460  : 	return ((_Ty2 *)_CSTD memmove(&*_Dest, &*_First,
; 461  : 		_Count * sizeof (*_First)) + _Count);	// NB: non-overlapping move

  0000d	c1 e6 02	 shl	 esi, 2
  00010	56		 push	 esi
  00011	ff 75 08	 push	 DWORD PTR __First$[ebp]
  00014	ff 75 10	 push	 DWORD PTR __Dest$[ebp]
  00017	ff 15 00 00 00
	00		 call	 DWORD PTR __imp__memmove
  0001d	83 c4 0c	 add	 esp, 12			; 0000000cH
  00020	03 c6		 add	 eax, esi
  00022	5e		 pop	 esi

; 462  : 	}

  00023	5d		 pop	 ebp
  00024	c3		 ret	 0
??$_Uninit_move@PAVQuestCompleteData@@PAV1@PAV1@@std@@YAPAPAVQuestCompleteData@@PAPAV1@00AAV?$allocator@PAVQuestCompleteData@@@0@0U_Scalar_ptr_iterator_tag@0@@Z ENDP ; std::_Uninit_move<QuestCompleteData *,QuestCompleteData *,QuestCompleteData *>
; Function compile flags: /Ogsp
; File d:\lost saga for developer\youtube\tutorial\source\src\lsclient\ioquest.h
_TEXT	ENDS
;	COMDAT ?GetIndexData@QuestDataParent@@UBE?BKXZ
_TEXT	SEGMENT
?GetIndexData@QuestDataParent@@UBE?BKXZ PROC		; QuestDataParent::GetIndexData, COMDAT
; _this$ = ecx

; 36   : 	virtual const DWORD GetIndexData() const { return m_dwIndexData; }

  00000	8b 41 04	 mov	 eax, DWORD PTR [ecx+4]
  00003	c3		 ret	 0
?GetIndexData@QuestDataParent@@UBE?BKXZ ENDP		; QuestDataParent::GetIndexData
; Function compile flags: /Ogsp
_TEXT	ENDS
;	COMDAT ?GetDateData@QuestDataParent@@UBE?BKXZ
_TEXT	SEGMENT
?GetDateData@QuestDataParent@@UBE?BKXZ PROC		; QuestDataParent::GetDateData, COMDAT
; _this$ = ecx

; 37   : 	virtual const DWORD GetDateData() const { return m_dwDateData; }

  00000	8b 41 08	 mov	 eax, DWORD PTR [ecx+8]
  00003	c3		 ret	 0
?GetDateData@QuestDataParent@@UBE?BKXZ ENDP		; QuestDataParent::GetDateData
_TEXT	ENDS
PUBLIC	?GetPerformType@QuestParent@@QAEKXZ		; QuestParent::GetPerformType
; Function compile flags: /Ogsp
; File d:\lost saga for developer\youtube\tutorial\source\src\lsclient\questvariety.h
;	COMDAT ?GetPerformType@QuestParent@@QAEKXZ
_TEXT	SEGMENT
?GetPerformType@QuestParent@@QAEKXZ PROC		; QuestParent::GetPerformType, COMDAT
; _this$ = ecx

; 108  : 	inline DWORD GetPerformType(){ return m_dwPerformType; }

  00000	8b 41 14	 mov	 eax, DWORD PTR [ecx+20]
  00003	c3		 ret	 0
?GetPerformType@QuestParent@@QAEKXZ ENDP		; QuestParent::GetPerformType
_TEXT	ENDS
PUBLIC	?IsOneDayStyle@QuestParent@@QAE_NXZ		; QuestParent::IsOneDayStyle
; Function compile flags: /Ogsp
;	COMDAT ?IsOneDayStyle@QuestParent@@QAE_NXZ
_TEXT	SEGMENT
?IsOneDayStyle@QuestParent@@QAE_NXZ PROC		; QuestParent::IsOneDayStyle, COMDAT
; _this$ = ecx

; 109  : 	inline bool  IsOneDayStyle(){ return m_bOneDayStyle; }

  00000	8a 41 18	 mov	 al, BYTE PTR [ecx+24]
  00003	c3		 ret	 0
?IsOneDayStyle@QuestParent@@QAE_NXZ ENDP		; QuestParent::IsOneDayStyle
_TEXT	ENDS
PUBLIC	?IsRepeatStyle@QuestParent@@QAE_NXZ		; QuestParent::IsRepeatStyle
; Function compile flags: /Ogsp
;	COMDAT ?IsRepeatStyle@QuestParent@@QAE_NXZ
_TEXT	SEGMENT
?IsRepeatStyle@QuestParent@@QAE_NXZ PROC		; QuestParent::IsRepeatStyle, COMDAT
; _this$ = ecx

; 110  : 	inline bool  IsRepeatStyle(){ return m_bRepeatStyle; }

  00000	8a 41 19	 mov	 al, BYTE PTR [ecx+25]
  00003	c3		 ret	 0
?IsRepeatStyle@QuestParent@@QAE_NXZ ENDP		; QuestParent::IsRepeatStyle
_TEXT	ENDS
PUBLIC	??_7?$CEncrypt@K@@6B@				; CEncrypt<unsigned long>::`vftable'
PUBLIC	??1?$CEncrypt@K@@UAE@XZ				; CEncrypt<unsigned long>::~CEncrypt<unsigned long>
PUBLIC	??_R4?$CEncrypt@K@@6B@				; CEncrypt<unsigned long>::`RTTI Complete Object Locator'
PUBLIC	??_R0?AV?$CEncrypt@K@@@8			; CEncrypt<unsigned long> `RTTI Type Descriptor'
PUBLIC	??_R3?$CEncrypt@K@@8				; CEncrypt<unsigned long>::`RTTI Class Hierarchy Descriptor'
PUBLIC	??_R2?$CEncrypt@K@@8				; CEncrypt<unsigned long>::`RTTI Base Class Array'
PUBLIC	??_R1A@?0A@EA@?$CEncrypt@K@@8			; CEncrypt<unsigned long>::`RTTI Base Class Descriptor at (0,-1,0,64)'
EXTRN	??1ccddaabb@@UAE@XZ:PROC			; ccddaabb::~ccddaabb
EXTRN	??_E?$CEncrypt@K@@UAEPAXI@Z:PROC		; CEncrypt<unsigned long>::`vector deleting destructor'
;	COMDAT ??_R1A@?0A@EA@?$CEncrypt@K@@8
; File d:\lost saga for developer\youtube\tutorial\source\src\lsclient\encryptvalue.h
rdata$r	SEGMENT
??_R1A@?0A@EA@?$CEncrypt@K@@8 DD FLAT:??_R0?AV?$CEncrypt@K@@@8 ; CEncrypt<unsigned long>::`RTTI Base Class Descriptor at (0,-1,0,64)'
	DD	00H
	DD	00H
	DD	0ffffffffH
	DD	00H
	DD	040H
	DD	FLAT:??_R3?$CEncrypt@K@@8
rdata$r	ENDS
;	COMDAT ??_R2?$CEncrypt@K@@8
rdata$r	SEGMENT
??_R2?$CEncrypt@K@@8 DD FLAT:??_R1A@?0A@EA@?$CEncrypt@K@@8 ; CEncrypt<unsigned long>::`RTTI Base Class Array'
rdata$r	ENDS
;	COMDAT ??_R3?$CEncrypt@K@@8
rdata$r	SEGMENT
??_R3?$CEncrypt@K@@8 DD 00H				; CEncrypt<unsigned long>::`RTTI Class Hierarchy Descriptor'
	DD	00H
	DD	01H
	DD	FLAT:??_R2?$CEncrypt@K@@8
rdata$r	ENDS
;	COMDAT ??_R0?AV?$CEncrypt@K@@@8
_DATA	SEGMENT
??_R0?AV?$CEncrypt@K@@@8 DD FLAT:??_7type_info@@6B@	; CEncrypt<unsigned long> `RTTI Type Descriptor'
	DD	00H
	DB	'.?AV?$CEncrypt@K@@', 00H
_DATA	ENDS
;	COMDAT ??_R4?$CEncrypt@K@@6B@
rdata$r	SEGMENT
??_R4?$CEncrypt@K@@6B@ DD 00H				; CEncrypt<unsigned long>::`RTTI Complete Object Locator'
	DD	00H
	DD	00H
	DD	FLAT:??_R0?AV?$CEncrypt@K@@@8
	DD	FLAT:??_R3?$CEncrypt@K@@8
rdata$r	ENDS
;	COMDAT ??_7?$CEncrypt@K@@6B@
CONST	SEGMENT
??_7?$CEncrypt@K@@6B@ DD FLAT:??_R4?$CEncrypt@K@@6B@	; CEncrypt<unsigned long>::`vftable'
	DD	FLAT:??_E?$CEncrypt@K@@UAEPAXI@Z
; Function compile flags: /Ogsp
CONST	ENDS
;	COMDAT ??1?$CEncrypt@K@@UAE@XZ
_TEXT	SEGMENT
??1?$CEncrypt@K@@UAE@XZ PROC				; CEncrypt<unsigned long>::~CEncrypt<unsigned long>, COMDAT
; _this$ = ecx

; 127  : 	{

  00000	c7 01 00 00 00
	00		 mov	 DWORD PTR [ecx], OFFSET ??_7?$CEncrypt@K@@6B@

; 128  : 	}

  00006	83 c1 0c	 add	 ecx, 12			; 0000000cH
  00009	e9 00 00 00 00	 jmp	 ??1ccddaabb@@UAE@XZ	; ccddaabb::~ccddaabb
??1?$CEncrypt@K@@UAE@XZ ENDP				; CEncrypt<unsigned long>::~CEncrypt<unsigned long>
; Function compile flags: /Ogsp
_TEXT	ENDS
;	COMDAT ??_G?$CEncrypt@K@@UAEPAXI@Z
_TEXT	SEGMENT
___flags$ = 8						; size = 4
??_G?$CEncrypt@K@@UAEPAXI@Z PROC			; CEncrypt<unsigned long>::`scalar deleting destructor', COMDAT
; _this$ = ecx
  00000	55		 push	 ebp
  00001	8b ec		 mov	 ebp, esp
  00003	56		 push	 esi
  00004	8b f1		 mov	 esi, ecx
  00006	8d 4e 0c	 lea	 ecx, DWORD PTR [esi+12]
  00009	c7 06 00 00 00
	00		 mov	 DWORD PTR [esi], OFFSET ??_7?$CEncrypt@K@@6B@
  0000f	e8 00 00 00 00	 call	 ??1ccddaabb@@UAE@XZ	; ccddaabb::~ccddaabb
  00014	f6 45 08 01	 test	 BYTE PTR ___flags$[ebp], 1
  00018	74 07		 je	 SHORT $LN1@scalar@2
  0001a	56		 push	 esi
  0001b	e8 00 00 00 00	 call	 ??3@YAXPAX@Z		; operator delete
  00020	59		 pop	 ecx
$LN1@scalar@2:
  00021	8b c6		 mov	 eax, esi
  00023	5e		 pop	 esi
  00024	5d		 pop	 ebp
  00025	c2 04 00	 ret	 4
??_G?$CEncrypt@K@@UAEPAXI@Z ENDP			; CEncrypt<unsigned long>::`scalar deleting destructor'
_TEXT	ENDS
PUBLIC	?EncryptValueToPool@?$CEncrypt@K@@AAEXPBD@Z	; CEncrypt<unsigned long>::EncryptValueToPool
EXTRN	?EncryptByte@ccddaabb@@QAEXPBDPADH@Z:PROC	; ccddaabb::EncryptByte
; Function compile flags: /Ogsp
;	COMDAT ?EncryptValueToPool@?$CEncrypt@K@@AAEXPBD@Z
_TEXT	SEGMENT
_value$ = 8						; size = 4
?EncryptValueToPool@?$CEncrypt@K@@AAEXPBD@Z PROC	; CEncrypt<unsigned long>::EncryptValueToPool, COMDAT
; _this$ = ecx

; 67   : 	{

  00000	55		 push	 ebp
  00001	8b ec		 mov	 ebp, esp

; 68   : 		m_RC5.EncryptByte( value, m_MemPool, max(m_ValueSize, DEFAULT_ENCRYPT) );

  00003	0f b7 41 06	 movzx	 eax, WORD PTR [ecx+6]
  00007	83 f8 04	 cmp	 eax, 4
  0000a	77 03		 ja	 SHORT $LN4@EncryptVal
  0000c	6a 04		 push	 4
  0000e	58		 pop	 eax
$LN4@EncryptVal:
  0000f	50		 push	 eax
  00010	8d 41 1c	 lea	 eax, DWORD PTR [ecx+28]
  00013	50		 push	 eax
  00014	ff 75 08	 push	 DWORD PTR _value$[ebp]
  00017	83 c1 0c	 add	 ecx, 12			; 0000000cH
  0001a	e8 00 00 00 00	 call	 ?EncryptByte@ccddaabb@@QAEXPBDPADH@Z ; ccddaabb::EncryptByte

; 69   : 		
; 70   : 	}

  0001f	5d		 pop	 ebp
  00020	c2 04 00	 ret	 4
?EncryptValueToPool@?$CEncrypt@K@@AAEXPBD@Z ENDP	; CEncrypt<unsigned long>::EncryptValueToPool
_TEXT	ENDS
PUBLIC	?Init@?$CEncrypt@K@@AAEXXZ			; CEncrypt<unsigned long>::Init
EXTRN	?Setup@ccddaabb@@QAEXPBDHH@Z:PROC		; ccddaabb::Setup
EXTRN	__imp__rand:PROC
EXTRN	__imp__timeGetTime@0:PROC
EXTRN	__imp__GetCurrentProcessId@0:PROC
; Function compile flags: /Ogsp
;	COMDAT ?Init@?$CEncrypt@K@@AAEXXZ
_TEXT	SEGMENT
_pid$ = -8						; size = 4
_tick$ = -4						; size = 4
?Init@?$CEncrypt@K@@AAEXXZ PROC				; CEncrypt<unsigned long>::Init, COMDAT
; _this$ = ecx

; 73   : 	{

  00000	55		 push	 ebp
  00001	8b ec		 mov	 ebp, esp
  00003	51		 push	 ecx
  00004	51		 push	 ecx
  00005	53		 push	 ebx
  00006	56		 push	 esi
  00007	57		 push	 edi
  00008	8b f1		 mov	 esi, ecx

; 74   : 		DWORD pid = GetCurrentProcessId();

  0000a	ff 15 00 00 00
	00		 call	 DWORD PTR __imp__GetCurrentProcessId@0
  00010	89 45 f8	 mov	 DWORD PTR _pid$[ebp], eax

; 75   : 		DWORD tick = timeGetTime();

  00013	ff 15 00 00 00
	00		 call	 DWORD PTR __imp__timeGetTime@0

; 76   : 		m_ValueSize    = sizeof(type);
; 77   : 		m_MemPoolPos   = (unsigned short)( rand()+pid+tick )%(MAX_MEM_POOL-m_ValueSize);

  00019	8b 3d 00 00 00
	00		 mov	 edi, DWORD PTR __imp__rand
  0001f	89 45 fc	 mov	 DWORD PTR _tick$[ebp], eax
  00022	6a 04		 push	 4
  00024	58		 pop	 eax
  00025	66 89 46 06	 mov	 WORD PTR [esi+6], ax
  00029	ff d7		 call	 edi
  0002b	03 45 f8	 add	 eax, DWORD PTR _pid$[ebp]
  0002e	0f b7 4e 06	 movzx	 ecx, WORD PTR [esi+6]
  00032	03 45 fc	 add	 eax, DWORD PTR _tick$[ebp]
  00035	6a 0c		 push	 12			; 0000000cH
  00037	0f b7 c0	 movzx	 eax, ax
  0003a	5b		 pop	 ebx
  0003b	99		 cdq
  0003c	2b d9		 sub	 ebx, ecx
  0003e	f7 fb		 idiv	 ebx
  00040	66 89 56 04	 mov	 WORD PTR [esi+4], dx

; 78   : 		m_EncryptSeed  = (char)( rand()+pid+tick )%256;

  00044	ff d7		 call	 edi
  00046	02 45 f8	 add	 al, BYTE PTR _pid$[ebp]
  00049	02 45 fc	 add	 al, BYTE PTR _tick$[ebp]
  0004c	0f be c0	 movsx	 eax, al
  0004f	25 ff 00 00 80	 and	 eax, -2147483393	; 800000ffH
  00054	79 07		 jns	 SHORT $LN8@Init
  00056	48		 dec	 eax
  00057	0d 00 ff ff ff	 or	 eax, -256		; ffffff00H
  0005c	40		 inc	 eax
$LN8@Init:
  0005d	88 46 08	 mov	 BYTE PTR [esi+8], al

; 79   : 
; 80   : 		for (int i = 0; i < MAX_MEM_POOL ; i++)

  00060	33 db		 xor	 ebx, ebx
$LL3@Init:

; 81   : 			m_MemPool[i] = (char)( rand()+pid+tick )%256; // 더미

  00062	ff d7		 call	 edi
  00064	02 45 f8	 add	 al, BYTE PTR _pid$[ebp]
  00067	02 45 fc	 add	 al, BYTE PTR _tick$[ebp]
  0006a	0f be c0	 movsx	 eax, al
  0006d	25 ff 00 00 80	 and	 eax, -2147483393	; 800000ffH
  00072	79 07		 jns	 SHORT $LN9@Init
  00074	48		 dec	 eax
  00075	0d 00 ff ff ff	 or	 eax, -256		; ffffff00H
  0007a	40		 inc	 eax
$LN9@Init:
  0007b	88 44 1e 1c	 mov	 BYTE PTR [esi+ebx+28], al
  0007f	43		 inc	 ebx
  00080	83 fb 0c	 cmp	 ebx, 12			; 0000000cH
  00083	7c dd		 jl	 SHORT $LL3@Init

; 82   : 
; 83   : 		//UJ 130913, 최적화: szKey 사용안하도록 간략화
; 84   : 		//char szKey[ccddaabb::KEY_SIZE];//="";
; 85   : 		//for (int i = 0; i < ccddaabb::KEY_SIZE  ; i++)
; 86   : 		//	szKey[i] = (char)( rand()+pid+tick )%256; // 더미
; 87   : 		m_RC5.Setup( NULL, pid, tick );

  00085	ff 75 fc	 push	 DWORD PTR _tick$[ebp]
  00088	8d 4e 0c	 lea	 ecx, DWORD PTR [esi+12]
  0008b	ff 75 f8	 push	 DWORD PTR _pid$[ebp]
  0008e	6a 00		 push	 0
  00090	e8 00 00 00 00	 call	 ?Setup@ccddaabb@@QAEXPBDHH@Z ; ccddaabb::Setup
  00095	5f		 pop	 edi
  00096	5e		 pop	 esi
  00097	5b		 pop	 ebx

; 88   : 
; 89   : #ifdef _NOTUSE
; 90   : 		m_value        = 0;
; 91   : 		EncryptValueToPool((char*)&m_value);
; 92   : 		Debug();
; 93   : #endif
; 94   : 	}

  00098	c9		 leave
  00099	c3		 ret	 0
?Init@?$CEncrypt@K@@AAEXXZ ENDP				; CEncrypt<unsigned long>::Init
_TEXT	ENDS
PUBLIC	?DecryptValueToPool@?$CEncrypt@K@@QAEXPAK@Z	; CEncrypt<unsigned long>::DecryptValueToPool
EXTRN	?DecryptByte@ccddaabb@@QBEXPBDPADH@Z:PROC	; ccddaabb::DecryptByte
; Function compile flags: /Ogsp
;	COMDAT ?DecryptValueToPool@?$CEncrypt@K@@QAEXPAK@Z
_TEXT	SEGMENT
_value$ = 8						; size = 4
?DecryptValueToPool@?$CEncrypt@K@@QAEXPAK@Z PROC	; CEncrypt<unsigned long>::DecryptValueToPool, COMDAT
; _this$ = ecx

; 1256 : 	{

  00000	55		 push	 ebp
  00001	8b ec		 mov	 ebp, esp
  00003	56		 push	 esi

; 1257 : 		m_RC5.DecryptByte( m_MemPool, m_TempMem, 4 );

  00004	8d 71 28	 lea	 esi, DWORD PTR [ecx+40]
  00007	6a 04		 push	 4
  00009	8d 41 1c	 lea	 eax, DWORD PTR [ecx+28]
  0000c	56		 push	 esi
  0000d	50		 push	 eax
  0000e	83 c1 0c	 add	 ecx, 12			; 0000000cH
  00011	e8 00 00 00 00	 call	 ?DecryptByte@ccddaabb@@QBEXPBDPADH@Z ; ccddaabb::DecryptByte

; 1258 : 		*value = *((DWORD*)m_TempMem);

  00016	8b 06		 mov	 eax, DWORD PTR [esi]
  00018	8b 4d 08	 mov	 ecx, DWORD PTR _value$[ebp]
  0001b	89 01		 mov	 DWORD PTR [ecx], eax
  0001d	5e		 pop	 esi

; 1259 : 	}

  0001e	5d		 pop	 ebp
  0001f	c2 04 00	 ret	 4
?DecryptValueToPool@?$CEncrypt@K@@QAEXPAK@Z ENDP	; CEncrypt<unsigned long>::DecryptValueToPool
_TEXT	ENDS
EXTRN	__imp_??0exception@std@@QAE@ABV01@@Z:PROC
; Function compile flags: /Ogsp
;	COMDAT ??0bad_alloc@std@@QAE@ABV01@@Z
_TEXT	SEGMENT
___that$ = 8						; size = 4
??0bad_alloc@std@@QAE@ABV01@@Z PROC			; std::bad_alloc::bad_alloc, COMDAT
; _this$ = ecx
  00000	55		 push	 ebp
  00001	8b ec		 mov	 ebp, esp
  00003	56		 push	 esi
  00004	ff 75 08	 push	 DWORD PTR ___that$[ebp]
  00007	8b f1		 mov	 esi, ecx
  00009	ff 15 00 00 00
	00		 call	 DWORD PTR __imp_??0exception@std@@QAE@ABV01@@Z
  0000f	c7 06 00 00 00
	00		 mov	 DWORD PTR [esi], OFFSET ??_7bad_alloc@std@@6B@
  00015	8b c6		 mov	 eax, esi
  00017	5e		 pop	 esi
  00018	5d		 pop	 ebp
  00019	c2 04 00	 ret	 4
??0bad_alloc@std@@QAE@ABV01@@Z ENDP			; std::bad_alloc::bad_alloc
; Function compile flags: /Ogsp
_TEXT	ENDS
;	COMDAT ??_GQuestDataParent@@UAEPAXI@Z
_TEXT	SEGMENT
___flags$ = 8						; size = 4
??_GQuestDataParent@@UAEPAXI@Z PROC			; QuestDataParent::`scalar deleting destructor', COMDAT
; _this$ = ecx
  00000	55		 push	 ebp
  00001	8b ec		 mov	 ebp, esp
  00003	f6 45 08 01	 test	 BYTE PTR ___flags$[ebp], 1
  00007	56		 push	 esi
  00008	8b f1		 mov	 esi, ecx
  0000a	c7 06 00 00 00
	00		 mov	 DWORD PTR [esi], OFFSET ??_7QuestDataParent@@6B@
  00010	74 07		 je	 SHORT $LN1@scalar@3
  00012	56		 push	 esi
  00013	e8 00 00 00 00	 call	 ??3@YAXPAX@Z		; operator delete
  00018	59		 pop	 ecx
$LN1@scalar@3:
  00019	8b c6		 mov	 eax, esi
  0001b	5e		 pop	 esi
  0001c	5d		 pop	 ebp
  0001d	c2 04 00	 ret	 4
??_GQuestDataParent@@UAEPAXI@Z ENDP			; QuestDataParent::`scalar deleting destructor'
; Function compile flags: /Ogsp
; File d:\lost saga for developer\youtube\tutorial\source\src\lsclient\ioquest.cpp
_TEXT	ENDS
;	COMDAT ?GetLinkQuest@QuestDataParent@@UAEPAVQuestParent@@XZ
_TEXT	SEGMENT
?GetLinkQuest@QuestDataParent@@UAEPAVQuestParent@@XZ PROC ; QuestDataParent::GetLinkQuest, COMDAT
; _this$ = ecx

; 55   : {

  00000	56		 push	 esi
  00001	8b f1		 mov	 esi, ecx

; 56   : 	if( !m_pLinkQuest )

  00003	83 7e 0c 00	 cmp	 DWORD PTR [esi+12], 0
  00007	75 1d		 jne	 SHORT $LN8@GetLinkQue

; 57   : 	{
; 58   : 		SetLinkQuest( g_QuestMgr.GetQuest( GetMainIndex(), GetSubIndex() ) );

  00009	8b 46 04	 mov	 eax, DWORD PTR [esi+4]
  0000c	33 d2		 xor	 edx, edx
  0000e	b9 10 27 00 00	 mov	 ecx, 10000		; 00002710H
  00013	f7 f1		 div	 ecx
  00015	52		 push	 edx
  00016	50		 push	 eax
  00017	e8 00 00 00 00	 call	 ?GetSingleton@ioQuestManager@@SAAAV1@XZ ; ioQuestManager::GetSingleton
  0001c	8b c8		 mov	 ecx, eax
  0001e	e8 00 00 00 00	 call	 ?GetQuest@ioQuestManager@@QAEPAVQuestParent@@KK@Z ; ioQuestManager::GetQuest
  00023	89 46 0c	 mov	 DWORD PTR [esi+12], eax
$LN8@GetLinkQue:

; 59   : 	}
; 60   : 	return m_pLinkQuest;

  00026	8b 46 0c	 mov	 eax, DWORD PTR [esi+12]
  00029	5e		 pop	 esi

; 61   : }

  0002a	c3		 ret	 0
?GetLinkQuest@QuestDataParent@@UAEPAVQuestParent@@XZ ENDP ; QuestDataParent::GetLinkQuest
_TEXT	ENDS
PUBLIC	?GetPerformType@QuestDataParent@@QBE?BHXZ	; QuestDataParent::GetPerformType
; Function compile flags: /Ogsp
;	COMDAT ?GetPerformType@QuestDataParent@@QBE?BHXZ
_TEXT	SEGMENT
?GetPerformType@QuestDataParent@@QBE?BHXZ PROC		; QuestDataParent::GetPerformType, COMDAT
; _this$ = ecx

; 80   : 	if( m_pLinkQuest == NULL ) return 0;

  00000	8b 41 0c	 mov	 eax, DWORD PTR [ecx+12]
  00003	85 c0		 test	 eax, eax
  00005	75 01		 jne	 SHORT $LN1@GetPerform

; 83   : }

  00007	c3		 ret	 0
$LN1@GetPerform:

; 81   : 
; 82   : 	return m_pLinkQuest->GetPerformType();

  00008	8b 40 14	 mov	 eax, DWORD PTR [eax+20]

; 83   : }

  0000b	c3		 ret	 0
?GetPerformType@QuestDataParent@@QBE?BHXZ ENDP		; QuestDataParent::GetPerformType
_TEXT	ENDS
PUBLIC	??_7QuestData@@6B@				; QuestData::`vftable'
PUBLIC	??1QuestData@@UAE@XZ				; QuestData::~QuestData
PUBLIC	??_R4QuestData@@6B@				; QuestData::`RTTI Complete Object Locator'
PUBLIC	??_R0?AVQuestData@@@8				; QuestData `RTTI Type Descriptor'
PUBLIC	??_R3QuestData@@8				; QuestData::`RTTI Class Hierarchy Descriptor'
PUBLIC	??_R2QuestData@@8				; QuestData::`RTTI Base Class Array'
PUBLIC	??_R1A@?0A@EA@QuestData@@8			; QuestData::`RTTI Base Class Descriptor at (0,-1,0,64)'
EXTRN	___CxxFrameHandler3:PROC
EXTRN	@__security_check_cookie@4:PROC
EXTRN	__EH_epilog3:PROC
EXTRN	__EH_prolog3:PROC
EXTRN	??_EQuestData@@UAEPAXI@Z:PROC			; QuestData::`vector deleting destructor'
;	COMDAT ??_R1A@?0A@EA@QuestData@@8
rdata$r	SEGMENT
??_R1A@?0A@EA@QuestData@@8 DD FLAT:??_R0?AVQuestData@@@8 ; QuestData::`RTTI Base Class Descriptor at (0,-1,0,64)'
	DD	01H
	DD	00H
	DD	0ffffffffH
	DD	00H
	DD	040H
	DD	FLAT:??_R3QuestData@@8
rdata$r	ENDS
;	COMDAT ??_R2QuestData@@8
rdata$r	SEGMENT
??_R2QuestData@@8 DD FLAT:??_R1A@?0A@EA@QuestData@@8	; QuestData::`RTTI Base Class Array'
	DD	FLAT:??_R1A@?0A@EA@QuestDataParent@@8
rdata$r	ENDS
;	COMDAT ??_R3QuestData@@8
rdata$r	SEGMENT
??_R3QuestData@@8 DD 00H				; QuestData::`RTTI Class Hierarchy Descriptor'
	DD	00H
	DD	02H
	DD	FLAT:??_R2QuestData@@8
rdata$r	ENDS
;	COMDAT ??_R0?AVQuestData@@@8
_DATA	SEGMENT
??_R0?AVQuestData@@@8 DD FLAT:??_7type_info@@6B@	; QuestData `RTTI Type Descriptor'
	DD	00H
	DB	'.?AVQuestData@@', 00H
_DATA	ENDS
;	COMDAT ??_R4QuestData@@6B@
rdata$r	SEGMENT
??_R4QuestData@@6B@ DD 00H				; QuestData::`RTTI Complete Object Locator'
	DD	00H
	DD	00H
	DD	FLAT:??_R0?AVQuestData@@@8
	DD	FLAT:??_R3QuestData@@8
rdata$r	ENDS
;	COMDAT ??_7QuestData@@6B@
CONST	SEGMENT
??_7QuestData@@6B@ DD FLAT:??_R4QuestData@@6B@		; QuestData::`vftable'
	DD	FLAT:?GetIndexData@QuestDataParent@@UBE?BKXZ
	DD	FLAT:?GetDateData@QuestDataParent@@UBE?BKXZ
	DD	FLAT:?GetLinkQuest@QuestDataParent@@UAEPAVQuestParent@@XZ
	DD	FLAT:??_EQuestData@@UAEPAXI@Z
CONST	ENDS
;	COMDAT xdata$x
xdata$x	SEGMENT
__unwindtable$??1QuestData@@UAE@XZ DD 0ffffffffH
	DD	FLAT:__unwindfunclet$??1QuestData@@UAE@XZ$0
__ehfuncinfo$??1QuestData@@UAE@XZ DD 019930522H
	DD	01H
	DD	FLAT:__unwindtable$??1QuestData@@UAE@XZ
	DD	2 DUP(00H)
	DD	2 DUP(00H)
	DD	00H
	DD	01H
; Function compile flags: /Ogsp
xdata$x	ENDS
;	COMDAT ??1QuestData@@UAE@XZ
_TEXT	SEGMENT
_this$ = -16						; size = 4
__$EHRec$ = -12						; size = 12
??1QuestData@@UAE@XZ PROC				; QuestData::~QuestData, COMDAT
; _this$ = ecx

; 94   : {

  00000	6a 04		 push	 4
  00002	b8 00 00 00 00	 mov	 eax, __ehhandler$??1QuestData@@UAE@XZ
  00007	e8 00 00 00 00	 call	 __EH_prolog3
  0000c	8b f1		 mov	 esi, ecx
  0000e	89 75 f0	 mov	 DWORD PTR _this$[ebp], esi
  00011	c7 06 00 00 00
	00		 mov	 DWORD PTR [esi], OFFSET ??_7QuestData@@6B@
  00017	83 65 fc 00	 and	 DWORD PTR __$EHRec$[ebp+8], 0

; 95   : 
; 96   : }

  0001b	8d 4e 1c	 lea	 ecx, DWORD PTR [esi+28]
  0001e	c7 46 10 00 00
	00 00		 mov	 DWORD PTR [esi+16], OFFSET ??_7?$CEncrypt@K@@6B@
  00025	e8 00 00 00 00	 call	 ??1ccddaabb@@UAE@XZ	; ccddaabb::~ccddaabb
  0002a	c7 06 00 00 00
	00		 mov	 DWORD PTR [esi], OFFSET ??_7QuestDataParent@@6B@
  00030	e8 00 00 00 00	 call	 __EH_epilog3
  00035	c3		 ret	 0
_TEXT	ENDS
;	COMDAT text$x
text$x	SEGMENT
__unwindfunclet$??1QuestData@@UAE@XZ$0:
  00000	8b 4d f0	 mov	 ecx, DWORD PTR _this$[ebp]
  00003	e9 00 00 00 00	 jmp	 ??1QuestDataParent@@UAE@XZ ; QuestDataParent::~QuestDataParent
__ehhandler$??1QuestData@@UAE@XZ:
  00008	8b 54 24 08	 mov	 edx, DWORD PTR [esp+8]
  0000c	8d 42 0c	 lea	 eax, DWORD PTR [edx+12]
  0000f	8b 4a ec	 mov	 ecx, DWORD PTR [edx-20]
  00012	33 c8		 xor	 ecx, eax
  00014	e8 00 00 00 00	 call	 @__security_check_cookie@4
  00019	b8 00 00 00 00	 mov	 eax, OFFSET __ehfuncinfo$??1QuestData@@UAE@XZ
  0001e	e9 00 00 00 00	 jmp	 ___CxxFrameHandler3
text$x	ENDS
??1QuestData@@UAE@XZ ENDP				; QuestData::~QuestData
; Function compile flags: /Ogsp
;	COMDAT ??_GQuestCompleteData@@UAEPAXI@Z
_TEXT	SEGMENT
___flags$ = 8						; size = 4
??_GQuestCompleteData@@UAEPAXI@Z PROC			; QuestCompleteData::`scalar deleting destructor', COMDAT
; _this$ = ecx
  00000	55		 push	 ebp
  00001	8b ec		 mov	 ebp, esp
  00003	f6 45 08 01	 test	 BYTE PTR ___flags$[ebp], 1
  00007	56		 push	 esi
  00008	8b f1		 mov	 esi, ecx
  0000a	c7 06 00 00 00
	00		 mov	 DWORD PTR [esi], OFFSET ??_7QuestDataParent@@6B@
  00010	74 07		 je	 SHORT $LN1@scalar@4
  00012	56		 push	 esi
  00013	e8 00 00 00 00	 call	 ??3@YAXPAX@Z		; operator delete
  00018	59		 pop	 ecx
$LN1@scalar@4:
  00019	8b c6		 mov	 eax, esi
  0001b	5e		 pop	 esi
  0001c	5d		 pop	 ebp
  0001d	c2 04 00	 ret	 4
??_GQuestCompleteData@@UAEPAXI@Z ENDP			; QuestCompleteData::`scalar deleting destructor'
_TEXT	ENDS
PUBLIC	??0?$_Vector_iterator@V?$_Vector_val@PAVQuestData@@V?$allocator@PAVQuestData@@@std@@@std@@@std@@QAE@XZ ; std::_Vector_iterator<std::_Vector_val<QuestData *,std::allocator<QuestData *> > >::_Vector_iterator<std::_Vector_val<QuestData *,std::allocator<QuestData *> > >
; Function compile flags: /Ogsp
; File c:\program files (x86)\microsoft visual studio 10.0\vc\include\vector
;	COMDAT ??0?$_Vector_iterator@V?$_Vector_val@PAVQuestData@@V?$allocator@PAVQuestData@@@std@@@std@@@std@@QAE@XZ
_TEXT	SEGMENT
??0?$_Vector_iterator@V?$_Vector_val@PAVQuestData@@V?$allocator@PAVQuestData@@@std@@@std@@@std@@QAE@XZ PROC ; std::_Vector_iterator<std::_Vector_val<QuestData *,std::allocator<QuestData *> > >::_Vector_iterator<std::_Vector_val<QuestData *,std::allocator<QuestData *> > >, COMDAT
; _this$ = ecx

; 298  : 	_Vector_iterator()

  00000	8b c1		 mov	 eax, ecx
  00002	83 20 00	 and	 DWORD PTR [eax], 0

; 299  : 		{	// construct with null vector pointer
; 300  : 		}

  00005	c3		 ret	 0
??0?$_Vector_iterator@V?$_Vector_val@PAVQuestData@@V?$allocator@PAVQuestData@@@std@@@std@@@std@@QAE@XZ ENDP ; std::_Vector_iterator<std::_Vector_val<QuestData *,std::allocator<QuestData *> > >::_Vector_iterator<std::_Vector_val<QuestData *,std::allocator<QuestData *> > >
_TEXT	ENDS
PUBLIC	??D?$_Vector_iterator@V?$_Vector_val@PAVQuestData@@V?$allocator@PAVQuestData@@@std@@@std@@@std@@QBEAAPAVQuestData@@XZ ; std::_Vector_iterator<std::_Vector_val<QuestData *,std::allocator<QuestData *> > >::operator*
; Function compile flags: /Ogsp
;	COMDAT ??D?$_Vector_iterator@V?$_Vector_val@PAVQuestData@@V?$allocator@PAVQuestData@@@std@@@std@@@std@@QBEAAPAVQuestData@@XZ
_TEXT	SEGMENT
??D?$_Vector_iterator@V?$_Vector_val@PAVQuestData@@V?$allocator@PAVQuestData@@@std@@@std@@@std@@QBEAAPAVQuestData@@XZ PROC ; std::_Vector_iterator<std::_Vector_val<QuestData *,std::allocator<QuestData *> > >::operator*, COMDAT
; _this$ = ecx

; 322  : 		return ((reference)**(_Mybase *)this);

  00000	8b 01		 mov	 eax, DWORD PTR [ecx]

; 323  : 		}

  00002	c3		 ret	 0
??D?$_Vector_iterator@V?$_Vector_val@PAVQuestData@@V?$allocator@PAVQuestData@@@std@@@std@@@std@@QBEAAPAVQuestData@@XZ ENDP ; std::_Vector_iterator<std::_Vector_val<QuestData *,std::allocator<QuestData *> > >::operator*
_TEXT	ENDS
PUBLIC	??E?$_Vector_iterator@V?$_Vector_val@PAVQuestData@@V?$allocator@PAVQuestData@@@std@@@std@@@std@@QAEAAV01@XZ ; std::_Vector_iterator<std::_Vector_val<QuestData *,std::allocator<QuestData *> > >::operator++
; Function compile flags: /Ogsp
;	COMDAT ??E?$_Vector_iterator@V?$_Vector_val@PAVQuestData@@V?$allocator@PAVQuestData@@@std@@@std@@@std@@QAEAAV01@XZ
_TEXT	SEGMENT
??E?$_Vector_iterator@V?$_Vector_val@PAVQuestData@@V?$allocator@PAVQuestData@@@std@@@std@@@std@@QAEAAV01@XZ PROC ; std::_Vector_iterator<std::_Vector_val<QuestData *,std::allocator<QuestData *> > >::operator++, COMDAT
; _this$ = ecx

; 331  : 		{	// preincrement

  00000	8b c1		 mov	 eax, ecx

; 332  : 		++*(_Mybase *)this;

  00002	83 00 04	 add	 DWORD PTR [eax], 4

; 333  : 		return (*this);
; 334  : 		}

  00005	c3		 ret	 0
??E?$_Vector_iterator@V?$_Vector_val@PAVQuestData@@V?$allocator@PAVQuestData@@@std@@@std@@@std@@QAEAAV01@XZ ENDP ; std::_Vector_iterator<std::_Vector_val<QuestData *,std::allocator<QuestData *> > >::operator++
_TEXT	ENDS
PUBLIC	??E?$_Vector_iterator@V?$_Vector_val@PAVQuestData@@V?$allocator@PAVQuestData@@@std@@@std@@@std@@QAE?AV01@H@Z ; std::_Vector_iterator<std::_Vector_val<QuestData *,std::allocator<QuestData *> > >::operator++
; Function compile flags: /Ogsp
;	COMDAT ??E?$_Vector_iterator@V?$_Vector_val@PAVQuestData@@V?$allocator@PAVQuestData@@@std@@@std@@@std@@QAE?AV01@H@Z
_TEXT	SEGMENT
___$ReturnUdt$ = 8					; size = 4
___formal$ = 12						; size = 4
??E?$_Vector_iterator@V?$_Vector_val@PAVQuestData@@V?$allocator@PAVQuestData@@@std@@@std@@@std@@QAE?AV01@H@Z PROC ; std::_Vector_iterator<std::_Vector_val<QuestData *,std::allocator<QuestData *> > >::operator++, COMDAT
; _this$ = ecx

; 337  : 		{	// postincrement

  00000	55		 push	 ebp
  00001	8b ec		 mov	 ebp, esp

; 338  : 		_Myiter _Tmp = *this;

  00003	8b 11		 mov	 edx, DWORD PTR [ecx]
  00005	8b 45 08	 mov	 eax, DWORD PTR ___$ReturnUdt$[ebp]
  00008	89 10		 mov	 DWORD PTR [eax], edx

; 339  : 		++*this;

  0000a	83 c2 04	 add	 edx, 4
  0000d	89 11		 mov	 DWORD PTR [ecx], edx

; 340  : 		return (_Tmp);
; 341  : 		}

  0000f	5d		 pop	 ebp
  00010	c2 08 00	 ret	 8
??E?$_Vector_iterator@V?$_Vector_val@PAVQuestData@@V?$allocator@PAVQuestData@@@std@@@std@@@std@@QAE?AV01@H@Z ENDP ; std::_Vector_iterator<std::_Vector_val<QuestData *,std::allocator<QuestData *> > >::operator++
_TEXT	ENDS
PUBLIC	??0?$_Vector_iterator@V?$_Vector_val@PAVQuestCompleteData@@V?$allocator@PAVQuestCompleteData@@@std@@@std@@@std@@QAE@XZ ; std::_Vector_iterator<std::_Vector_val<QuestCompleteData *,std::allocator<QuestCompleteData *> > >::_Vector_iterator<std::_Vector_val<QuestCompleteData *,std::allocator<QuestCompleteData *> > >
; Function compile flags: /Ogsp
;	COMDAT ??0?$_Vector_iterator@V?$_Vector_val@PAVQuestCompleteData@@V?$allocator@PAVQuestCompleteData@@@std@@@std@@@std@@QAE@XZ
_TEXT	SEGMENT
??0?$_Vector_iterator@V?$_Vector_val@PAVQuestCompleteData@@V?$allocator@PAVQuestCompleteData@@@std@@@std@@@std@@QAE@XZ PROC ; std::_Vector_iterator<std::_Vector_val<QuestCompleteData *,std::allocator<QuestCompleteData *> > >::_Vector_iterator<std::_Vector_val<QuestCompleteData *,std::allocator<QuestCompleteData *> > >, COMDAT
; _this$ = ecx

; 298  : 	_Vector_iterator()

  00000	8b c1		 mov	 eax, ecx
  00002	83 20 00	 and	 DWORD PTR [eax], 0

; 299  : 		{	// construct with null vector pointer
; 300  : 		}

  00005	c3		 ret	 0
??0?$_Vector_iterator@V?$_Vector_val@PAVQuestCompleteData@@V?$allocator@PAVQuestCompleteData@@@std@@@std@@@std@@QAE@XZ ENDP ; std::_Vector_iterator<std::_Vector_val<QuestCompleteData *,std::allocator<QuestCompleteData *> > >::_Vector_iterator<std::_Vector_val<QuestCompleteData *,std::allocator<QuestCompleteData *> > >
_TEXT	ENDS
PUBLIC	??D?$_Vector_iterator@V?$_Vector_val@PAVQuestCompleteData@@V?$allocator@PAVQuestCompleteData@@@std@@@std@@@std@@QBEAAPAVQuestCompleteData@@XZ ; std::_Vector_iterator<std::_Vector_val<QuestCompleteData *,std::allocator<QuestCompleteData *> > >::operator*
; Function compile flags: /Ogsp
;	COMDAT ??D?$_Vector_iterator@V?$_Vector_val@PAVQuestCompleteData@@V?$allocator@PAVQuestCompleteData@@@std@@@std@@@std@@QBEAAPAVQuestCompleteData@@XZ
_TEXT	SEGMENT
??D?$_Vector_iterator@V?$_Vector_val@PAVQuestCompleteData@@V?$allocator@PAVQuestCompleteData@@@std@@@std@@@std@@QBEAAPAVQuestCompleteData@@XZ PROC ; std::_Vector_iterator<std::_Vector_val<QuestCompleteData *,std::allocator<QuestCompleteData *> > >::operator*, COMDAT
; _this$ = ecx

; 322  : 		return ((reference)**(_Mybase *)this);

  00000	8b 01		 mov	 eax, DWORD PTR [ecx]

; 323  : 		}

  00002	c3		 ret	 0
??D?$_Vector_iterator@V?$_Vector_val@PAVQuestCompleteData@@V?$allocator@PAVQuestCompleteData@@@std@@@std@@@std@@QBEAAPAVQuestCompleteData@@XZ ENDP ; std::_Vector_iterator<std::_Vector_val<QuestCompleteData *,std::allocator<QuestCompleteData *> > >::operator*
_TEXT	ENDS
PUBLIC	??E?$_Vector_iterator@V?$_Vector_val@PAVQuestCompleteData@@V?$allocator@PAVQuestCompleteData@@@std@@@std@@@std@@QAEAAV01@XZ ; std::_Vector_iterator<std::_Vector_val<QuestCompleteData *,std::allocator<QuestCompleteData *> > >::operator++
; Function compile flags: /Ogsp
;	COMDAT ??E?$_Vector_iterator@V?$_Vector_val@PAVQuestCompleteData@@V?$allocator@PAVQuestCompleteData@@@std@@@std@@@std@@QAEAAV01@XZ
_TEXT	SEGMENT
??E?$_Vector_iterator@V?$_Vector_val@PAVQuestCompleteData@@V?$allocator@PAVQuestCompleteData@@@std@@@std@@@std@@QAEAAV01@XZ PROC ; std::_Vector_iterator<std::_Vector_val<QuestCompleteData *,std::allocator<QuestCompleteData *> > >::operator++, COMDAT
; _this$ = ecx

; 331  : 		{	// preincrement

  00000	8b c1		 mov	 eax, ecx

; 332  : 		++*(_Mybase *)this;

  00002	83 00 04	 add	 DWORD PTR [eax], 4

; 333  : 		return (*this);
; 334  : 		}

  00005	c3		 ret	 0
??E?$_Vector_iterator@V?$_Vector_val@PAVQuestCompleteData@@V?$allocator@PAVQuestCompleteData@@@std@@@std@@@std@@QAEAAV01@XZ ENDP ; std::_Vector_iterator<std::_Vector_val<QuestCompleteData *,std::allocator<QuestCompleteData *> > >::operator++
_TEXT	ENDS
PUBLIC	??E?$_Vector_iterator@V?$_Vector_val@PAVQuestCompleteData@@V?$allocator@PAVQuestCompleteData@@@std@@@std@@@std@@QAE?AV01@H@Z ; std::_Vector_iterator<std::_Vector_val<QuestCompleteData *,std::allocator<QuestCompleteData *> > >::operator++
; Function compile flags: /Ogsp
;	COMDAT ??E?$_Vector_iterator@V?$_Vector_val@PAVQuestCompleteData@@V?$allocator@PAVQuestCompleteData@@@std@@@std@@@std@@QAE?AV01@H@Z
_TEXT	SEGMENT
___$ReturnUdt$ = 8					; size = 4
___formal$ = 12						; size = 4
??E?$_Vector_iterator@V?$_Vector_val@PAVQuestCompleteData@@V?$allocator@PAVQuestCompleteData@@@std@@@std@@@std@@QAE?AV01@H@Z PROC ; std::_Vector_iterator<std::_Vector_val<QuestCompleteData *,std::allocator<QuestCompleteData *> > >::operator++, COMDAT
; _this$ = ecx

; 337  : 		{	// postincrement

  00000	55		 push	 ebp
  00001	8b ec		 mov	 ebp, esp

; 338  : 		_Myiter _Tmp = *this;

  00003	8b 11		 mov	 edx, DWORD PTR [ecx]
  00005	8b 45 08	 mov	 eax, DWORD PTR ___$ReturnUdt$[ebp]
  00008	89 10		 mov	 DWORD PTR [eax], edx

; 339  : 		++*this;

  0000a	83 c2 04	 add	 edx, 4
  0000d	89 11		 mov	 DWORD PTR [ecx], edx

; 340  : 		return (_Tmp);
; 341  : 		}

  0000f	5d		 pop	 ebp
  00010	c2 08 00	 ret	 8
??E?$_Vector_iterator@V?$_Vector_val@PAVQuestCompleteData@@V?$allocator@PAVQuestCompleteData@@@std@@@std@@@std@@QAE?AV01@H@Z ENDP ; std::_Vector_iterator<std::_Vector_val<QuestCompleteData *,std::allocator<QuestCompleteData *> > >::operator++
_TEXT	ENDS
PUBLIC	??0?$_Vector_val@PAVQuestData@@V?$allocator@PAVQuestData@@@std@@@std@@QAE@V?$allocator@PAVQuestData@@@1@@Z ; std::_Vector_val<QuestData *,std::allocator<QuestData *> >::_Vector_val<QuestData *,std::allocator<QuestData *> >
; Function compile flags: /Ogsp
;	COMDAT ??0?$_Vector_val@PAVQuestData@@V?$allocator@PAVQuestData@@@std@@@std@@QAE@V?$allocator@PAVQuestData@@@1@@Z
_TEXT	SEGMENT
__Al$ = 8						; size = 1
??0?$_Vector_val@PAVQuestData@@V?$allocator@PAVQuestData@@@std@@@std@@QAE@V?$allocator@PAVQuestData@@@1@@Z PROC ; std::_Vector_val<QuestData *,std::allocator<QuestData *> >::_Vector_val<QuestData *,std::allocator<QuestData *> >, COMDAT
; _this$ = ecx

; 426  : 		{	// construct allocator from _Al

  00000	8b c1		 mov	 eax, ecx

; 427  : 		_Myfirst = 0;

  00002	33 c9		 xor	 ecx, ecx
  00004	89 08		 mov	 DWORD PTR [eax], ecx

; 428  : 		_Mylast = 0;

  00006	89 48 04	 mov	 DWORD PTR [eax+4], ecx

; 429  : 		_Myend = 0;

  00009	89 48 08	 mov	 DWORD PTR [eax+8], ecx

; 430  : 		}

  0000c	c2 04 00	 ret	 4
??0?$_Vector_val@PAVQuestData@@V?$allocator@PAVQuestData@@@std@@@std@@QAE@V?$allocator@PAVQuestData@@@1@@Z ENDP ; std::_Vector_val<QuestData *,std::allocator<QuestData *> >::_Vector_val<QuestData *,std::allocator<QuestData *> >
_TEXT	ENDS
PUBLIC	??0?$_Vector_val@PAVQuestCompleteData@@V?$allocator@PAVQuestCompleteData@@@std@@@std@@QAE@V?$allocator@PAVQuestCompleteData@@@1@@Z ; std::_Vector_val<QuestCompleteData *,std::allocator<QuestCompleteData *> >::_Vector_val<QuestCompleteData *,std::allocator<QuestCompleteData *> >
; Function compile flags: /Ogsp
;	COMDAT ??0?$_Vector_val@PAVQuestCompleteData@@V?$allocator@PAVQuestCompleteData@@@std@@@std@@QAE@V?$allocator@PAVQuestCompleteData@@@1@@Z
_TEXT	SEGMENT
__Al$ = 8						; size = 1
??0?$_Vector_val@PAVQuestCompleteData@@V?$allocator@PAVQuestCompleteData@@@std@@@std@@QAE@V?$allocator@PAVQuestCompleteData@@@1@@Z PROC ; std::_Vector_val<QuestCompleteData *,std::allocator<QuestCompleteData *> >::_Vector_val<QuestCompleteData *,std::allocator<QuestCompleteData *> >, COMDAT
; _this$ = ecx

; 426  : 		{	// construct allocator from _Al

  00000	8b c1		 mov	 eax, ecx

; 427  : 		_Myfirst = 0;

  00002	33 c9		 xor	 ecx, ecx
  00004	89 08		 mov	 DWORD PTR [eax], ecx

; 428  : 		_Mylast = 0;

  00006	89 48 04	 mov	 DWORD PTR [eax+4], ecx

; 429  : 		_Myend = 0;

  00009	89 48 08	 mov	 DWORD PTR [eax+8], ecx

; 430  : 		}

  0000c	c2 04 00	 ret	 4
??0?$_Vector_val@PAVQuestCompleteData@@V?$allocator@PAVQuestCompleteData@@@std@@@std@@QAE@V?$allocator@PAVQuestCompleteData@@@1@@Z ENDP ; std::_Vector_val<QuestCompleteData *,std::allocator<QuestCompleteData *> >::_Vector_val<QuestCompleteData *,std::allocator<QuestCompleteData *> >
_TEXT	ENDS
PUBLIC	??0?$_Vector_iterator@V?$_Vector_val@PAVQuestData@@V?$allocator@PAVQuestData@@@std@@@std@@@std@@QAE@PAPAVQuestData@@PBU_Container_base0@1@@Z ; std::_Vector_iterator<std::_Vector_val<QuestData *,std::allocator<QuestData *> > >::_Vector_iterator<std::_Vector_val<QuestData *,std::allocator<QuestData *> > >
; Function compile flags: /Ogsp
;	COMDAT ??0?$_Vector_iterator@V?$_Vector_val@PAVQuestData@@V?$allocator@PAVQuestData@@@std@@@std@@@std@@QAE@PAPAVQuestData@@PBU_Container_base0@1@@Z
_TEXT	SEGMENT
__Parg$ = 8						; size = 4
__Pvector$ = 12						; size = 4
??0?$_Vector_iterator@V?$_Vector_val@PAVQuestData@@V?$allocator@PAVQuestData@@@std@@@std@@@std@@QAE@PAPAVQuestData@@PBU_Container_base0@1@@Z PROC ; std::_Vector_iterator<std::_Vector_val<QuestData *,std::allocator<QuestData *> > >::_Vector_iterator<std::_Vector_val<QuestData *,std::allocator<QuestData *> > >, COMDAT
; _this$ = ecx

; 304  : 		{	// construct with pointer _Parg

  00000	55		 push	 ebp
  00001	8b ec		 mov	 ebp, esp
  00003	8b c1		 mov	 eax, ecx
  00005	8b 4d 08	 mov	 ecx, DWORD PTR __Parg$[ebp]
  00008	89 08		 mov	 DWORD PTR [eax], ecx

; 305  : 		}

  0000a	5d		 pop	 ebp
  0000b	c2 08 00	 ret	 8
??0?$_Vector_iterator@V?$_Vector_val@PAVQuestData@@V?$allocator@PAVQuestData@@@std@@@std@@@std@@QAE@PAPAVQuestData@@PBU_Container_base0@1@@Z ENDP ; std::_Vector_iterator<std::_Vector_val<QuestData *,std::allocator<QuestData *> > >::_Vector_iterator<std::_Vector_val<QuestData *,std::allocator<QuestData *> > >
_TEXT	ENDS
PUBLIC	??8?$_Vector_const_iterator@V?$_Vector_val@PAVQuestData@@V?$allocator@PAVQuestData@@@std@@@std@@@std@@QBE_NABV01@@Z ; std::_Vector_const_iterator<std::_Vector_val<QuestData *,std::allocator<QuestData *> > >::operator==
; Function compile flags: /Ogsp
;	COMDAT ??8?$_Vector_const_iterator@V?$_Vector_val@PAVQuestData@@V?$allocator@PAVQuestData@@@std@@@std@@@std@@QBE_NABV01@@Z
_TEXT	SEGMENT
__Right$ = 8						; size = 4
??8?$_Vector_const_iterator@V?$_Vector_val@PAVQuestData@@V?$allocator@PAVQuestData@@@std@@@std@@@std@@QBE_NABV01@@Z PROC ; std::_Vector_const_iterator<std::_Vector_val<QuestData *,std::allocator<QuestData *> > >::operator==, COMDAT
; _this$ = ecx

; 201  : 		{	// test for iterator equality

  00000	55		 push	 ebp
  00001	8b ec		 mov	 ebp, esp

; 202  : 		_Compat(_Right);
; 203  : 		return (this->_Ptr == _Right._Ptr);

  00003	8b 01		 mov	 eax, DWORD PTR [ecx]
  00005	8b 4d 08	 mov	 ecx, DWORD PTR __Right$[ebp]
  00008	2b 01		 sub	 eax, DWORD PTR [ecx]
  0000a	f7 d8		 neg	 eax
  0000c	1b c0		 sbb	 eax, eax
  0000e	40		 inc	 eax

; 204  : 		}

  0000f	5d		 pop	 ebp
  00010	c2 04 00	 ret	 4
??8?$_Vector_const_iterator@V?$_Vector_val@PAVQuestData@@V?$allocator@PAVQuestData@@@std@@@std@@@std@@QBE_NABV01@@Z ENDP ; std::_Vector_const_iterator<std::_Vector_val<QuestData *,std::allocator<QuestData *> > >::operator==
_TEXT	ENDS
PUBLIC	??0?$_Vector_iterator@V?$_Vector_val@PAVQuestCompleteData@@V?$allocator@PAVQuestCompleteData@@@std@@@std@@@std@@QAE@PAPAVQuestCompleteData@@PBU_Container_base0@1@@Z ; std::_Vector_iterator<std::_Vector_val<QuestCompleteData *,std::allocator<QuestCompleteData *> > >::_Vector_iterator<std::_Vector_val<QuestCompleteData *,std::allocator<QuestCompleteData *> > >
; Function compile flags: /Ogsp
;	COMDAT ??0?$_Vector_iterator@V?$_Vector_val@PAVQuestCompleteData@@V?$allocator@PAVQuestCompleteData@@@std@@@std@@@std@@QAE@PAPAVQuestCompleteData@@PBU_Container_base0@1@@Z
_TEXT	SEGMENT
__Parg$ = 8						; size = 4
__Pvector$ = 12						; size = 4
??0?$_Vector_iterator@V?$_Vector_val@PAVQuestCompleteData@@V?$allocator@PAVQuestCompleteData@@@std@@@std@@@std@@QAE@PAPAVQuestCompleteData@@PBU_Container_base0@1@@Z PROC ; std::_Vector_iterator<std::_Vector_val<QuestCompleteData *,std::allocator<QuestCompleteData *> > >::_Vector_iterator<std::_Vector_val<QuestCompleteData *,std::allocator<QuestCompleteData *> > >, COMDAT
; _this$ = ecx

; 304  : 		{	// construct with pointer _Parg

  00000	55		 push	 ebp
  00001	8b ec		 mov	 ebp, esp
  00003	8b c1		 mov	 eax, ecx
  00005	8b 4d 08	 mov	 ecx, DWORD PTR __Parg$[ebp]
  00008	89 08		 mov	 DWORD PTR [eax], ecx

; 305  : 		}

  0000a	5d		 pop	 ebp
  0000b	c2 08 00	 ret	 8
??0?$_Vector_iterator@V?$_Vector_val@PAVQuestCompleteData@@V?$allocator@PAVQuestCompleteData@@@std@@@std@@@std@@QAE@PAPAVQuestCompleteData@@PBU_Container_base0@1@@Z ENDP ; std::_Vector_iterator<std::_Vector_val<QuestCompleteData *,std::allocator<QuestCompleteData *> > >::_Vector_iterator<std::_Vector_val<QuestCompleteData *,std::allocator<QuestCompleteData *> > >
_TEXT	ENDS
PUBLIC	??8?$_Vector_const_iterator@V?$_Vector_val@PAVQuestCompleteData@@V?$allocator@PAVQuestCompleteData@@@std@@@std@@@std@@QBE_NABV01@@Z ; std::_Vector_const_iterator<std::_Vector_val<QuestCompleteData *,std::allocator<QuestCompleteData *> > >::operator==
; Function compile flags: /Ogsp
;	COMDAT ??8?$_Vector_const_iterator@V?$_Vector_val@PAVQuestCompleteData@@V?$allocator@PAVQuestCompleteData@@@std@@@std@@@std@@QBE_NABV01@@Z
_TEXT	SEGMENT
__Right$ = 8						; size = 4
??8?$_Vector_const_iterator@V?$_Vector_val@PAVQuestCompleteData@@V?$allocator@PAVQuestCompleteData@@@std@@@std@@@std@@QBE_NABV01@@Z PROC ; std::_Vector_const_iterator<std::_Vector_val<QuestCompleteData *,std::allocator<QuestCompleteData *> > >::operator==, COMDAT
; _this$ = ecx

; 201  : 		{	// test for iterator equality

  00000	55		 push	 ebp
  00001	8b ec		 mov	 ebp, esp

; 202  : 		_Compat(_Right);
; 203  : 		return (this->_Ptr == _Right._Ptr);

  00003	8b 01		 mov	 eax, DWORD PTR [ecx]
  00005	8b 4d 08	 mov	 ecx, DWORD PTR __Right$[ebp]
  00008	2b 01		 sub	 eax, DWORD PTR [ecx]
  0000a	f7 d8		 neg	 eax
  0000c	1b c0		 sbb	 eax, eax
  0000e	40		 inc	 eax

; 204  : 		}

  0000f	5d		 pop	 ebp
  00010	c2 04 00	 ret	 4
??8?$_Vector_const_iterator@V?$_Vector_val@PAVQuestCompleteData@@V?$allocator@PAVQuestCompleteData@@@std@@@std@@@std@@QBE_NABV01@@Z ENDP ; std::_Vector_const_iterator<std::_Vector_val<QuestCompleteData *,std::allocator<QuestCompleteData *> > >::operator==
_TEXT	ENDS
PUBLIC	??$_Move@PAPAVQuestData@@PAPAV1@@std@@YAPAPAVQuestData@@PAPAV1@00@Z ; std::_Move<QuestData * *,QuestData * *>
; Function compile flags: /Ogsp
; File c:\program files (x86)\microsoft visual studio 10.0\vc\include\xutility
;	COMDAT ??$_Move@PAPAVQuestData@@PAPAV1@@std@@YAPAPAVQuestData@@PAPAV1@00@Z
_TEXT	SEGMENT
__Cat$509499 = -4					; size = 1
__First$ = 8						; size = 4
__Last$ = 12						; size = 4
__Dest$ = 16						; size = 4
??$_Move@PAPAVQuestData@@PAPAV1@@std@@YAPAPAVQuestData@@PAPAV1@00@Z PROC ; std::_Move<QuestData * *,QuestData * *>, COMDAT

; 2533 : 	{	// move [_First, _Last) to [_Dest, ...), unchecked

  00000	55		 push	 ebp
  00001	8b ec		 mov	 ebp, esp
  00003	51		 push	 ecx

; 2534 : 	return (_Move(_First, _Last,
; 2535 : 		_Dest, _Ptr_cat(_First, _Dest)));

  00004	ff 75 fc	 push	 DWORD PTR __Cat$509499[ebp]
  00007	ff 75 10	 push	 DWORD PTR __Dest$[ebp]
  0000a	ff 75 0c	 push	 DWORD PTR __Last$[ebp]
  0000d	ff 75 08	 push	 DWORD PTR __First$[ebp]
  00010	e8 00 00 00 00	 call	 ??$_Move@PAPAVQuestData@@PAPAV1@@std@@YAPAPAVQuestData@@PAPAV1@00U_Scalar_ptr_iterator_tag@0@@Z ; std::_Move<QuestData * *,QuestData * *>
  00015	83 c4 10	 add	 esp, 16			; 00000010H

; 2536 : 	}

  00018	c9		 leave
  00019	c3		 ret	 0
??$_Move@PAPAVQuestData@@PAPAV1@@std@@YAPAPAVQuestData@@PAPAV1@00@Z ENDP ; std::_Move<QuestData * *,QuestData * *>
_TEXT	ENDS
PUBLIC	??$_Move@PAPAVQuestCompleteData@@PAPAV1@@std@@YAPAPAVQuestCompleteData@@PAPAV1@00@Z ; std::_Move<QuestCompleteData * *,QuestCompleteData * *>
; Function compile flags: /Ogsp
;	COMDAT ??$_Move@PAPAVQuestCompleteData@@PAPAV1@@std@@YAPAPAVQuestCompleteData@@PAPAV1@00@Z
_TEXT	SEGMENT
__Cat$509506 = -4					; size = 1
__First$ = 8						; size = 4
__Last$ = 12						; size = 4
__Dest$ = 16						; size = 4
??$_Move@PAPAVQuestCompleteData@@PAPAV1@@std@@YAPAPAVQuestCompleteData@@PAPAV1@00@Z PROC ; std::_Move<QuestCompleteData * *,QuestCompleteData * *>, COMDAT

; 2533 : 	{	// move [_First, _Last) to [_Dest, ...), unchecked

  00000	55		 push	 ebp
  00001	8b ec		 mov	 ebp, esp
  00003	51		 push	 ecx

; 2534 : 	return (_Move(_First, _Last,
; 2535 : 		_Dest, _Ptr_cat(_First, _Dest)));

  00004	ff 75 fc	 push	 DWORD PTR __Cat$509506[ebp]
  00007	ff 75 10	 push	 DWORD PTR __Dest$[ebp]
  0000a	ff 75 0c	 push	 DWORD PTR __Last$[ebp]
  0000d	ff 75 08	 push	 DWORD PTR __First$[ebp]
  00010	e8 00 00 00 00	 call	 ??$_Move@PAPAVQuestCompleteData@@PAPAV1@@std@@YAPAPAVQuestCompleteData@@PAPAV1@00U_Scalar_ptr_iterator_tag@0@@Z ; std::_Move<QuestCompleteData * *,QuestCompleteData * *>
  00015	83 c4 10	 add	 esp, 16			; 00000010H

; 2536 : 	}

  00018	c9		 leave
  00019	c3		 ret	 0
??$_Move@PAPAVQuestCompleteData@@PAPAV1@@std@@YAPAPAVQuestCompleteData@@PAPAV1@00@Z ENDP ; std::_Move<QuestCompleteData * *,QuestCompleteData * *>
_TEXT	ENDS
PUBLIC	??$_Destroy_range@V?$allocator@PAVQuestData@@@std@@@std@@YAXPAPAVQuestData@@0AAV?$allocator@PAVQuestData@@@0@@Z ; std::_Destroy_range<std::allocator<QuestData *> >
; Function compile flags: /Ogsp
; File c:\program files (x86)\microsoft visual studio 10.0\vc\include\xmemory
;	COMDAT ??$_Destroy_range@V?$allocator@PAVQuestData@@@std@@@std@@YAXPAPAVQuestData@@0AAV?$allocator@PAVQuestData@@@0@@Z
_TEXT	SEGMENT
__First$ = 8						; size = 4
__Last$ = 12						; size = 4
__Al$ = 16						; size = 4
??$_Destroy_range@V?$allocator@PAVQuestData@@@std@@@std@@YAXPAPAVQuestData@@0AAV?$allocator@PAVQuestData@@@0@@Z PROC ; std::_Destroy_range<std::allocator<QuestData *> >, COMDAT

; 88   : 	_Destroy_range(_First, _Last, _Al, _Ptr_cat(_First, _Last));
; 89   : 	}

  00000	c3		 ret	 0
??$_Destroy_range@V?$allocator@PAVQuestData@@@std@@@std@@YAXPAPAVQuestData@@0AAV?$allocator@PAVQuestData@@@0@@Z ENDP ; std::_Destroy_range<std::allocator<QuestData *> >
_TEXT	ENDS
PUBLIC	??$_Destroy_range@V?$allocator@PAVQuestCompleteData@@@std@@@std@@YAXPAPAVQuestCompleteData@@0AAV?$allocator@PAVQuestCompleteData@@@0@@Z ; std::_Destroy_range<std::allocator<QuestCompleteData *> >
; Function compile flags: /Ogsp
;	COMDAT ??$_Destroy_range@V?$allocator@PAVQuestCompleteData@@@std@@@std@@YAXPAPAVQuestCompleteData@@0AAV?$allocator@PAVQuestCompleteData@@@0@@Z
_TEXT	SEGMENT
__First$ = 8						; size = 4
__Last$ = 12						; size = 4
__Al$ = 16						; size = 4
??$_Destroy_range@V?$allocator@PAVQuestCompleteData@@@std@@@std@@YAXPAPAVQuestCompleteData@@0AAV?$allocator@PAVQuestCompleteData@@@0@@Z PROC ; std::_Destroy_range<std::allocator<QuestCompleteData *> >, COMDAT

; 88   : 	_Destroy_range(_First, _Last, _Al, _Ptr_cat(_First, _Last));
; 89   : 	}

  00000	c3		 ret	 0
??$_Destroy_range@V?$allocator@PAVQuestCompleteData@@@std@@@std@@YAXPAPAVQuestCompleteData@@0AAV?$allocator@PAVQuestCompleteData@@@0@@Z ENDP ; std::_Destroy_range<std::allocator<QuestCompleteData *> >
_TEXT	ENDS
PUBLIC	??G?$_Vector_iterator@V?$_Vector_val@PAVQuestData@@V?$allocator@PAVQuestData@@@std@@@std@@@std@@QBEHABV?$_Vector_const_iterator@V?$_Vector_val@PAVQuestData@@V?$allocator@PAVQuestData@@@std@@@std@@@1@@Z ; std::_Vector_iterator<std::_Vector_val<QuestData *,std::allocator<QuestData *> > >::operator-
; Function compile flags: /Ogsp
; File c:\program files (x86)\microsoft visual studio 10.0\vc\include\vector
;	COMDAT ??G?$_Vector_iterator@V?$_Vector_val@PAVQuestData@@V?$allocator@PAVQuestData@@@std@@@std@@@std@@QBEHABV?$_Vector_const_iterator@V?$_Vector_val@PAVQuestData@@V?$allocator@PAVQuestData@@@std@@@std@@@1@@Z
_TEXT	SEGMENT
__Right$ = 8						; size = 4
??G?$_Vector_iterator@V?$_Vector_val@PAVQuestData@@V?$allocator@PAVQuestData@@@std@@@std@@@std@@QBEHABV?$_Vector_const_iterator@V?$_Vector_val@PAVQuestData@@V?$allocator@PAVQuestData@@@std@@@std@@@1@@Z PROC ; std::_Vector_iterator<std::_Vector_val<QuestData *,std::allocator<QuestData *> > >::operator-, COMDAT
; _this$ = ecx

; 380  : 		{	// return difference of iterators

  00000	55		 push	 ebp
  00001	8b ec		 mov	 ebp, esp

; 381  : 		return (*(_Mybase *)this - _Right);

  00003	8b 01		 mov	 eax, DWORD PTR [ecx]
  00005	8b 4d 08	 mov	 ecx, DWORD PTR __Right$[ebp]
  00008	2b 01		 sub	 eax, DWORD PTR [ecx]
  0000a	c1 f8 02	 sar	 eax, 2

; 382  : 		}

  0000d	5d		 pop	 ebp
  0000e	c2 04 00	 ret	 4
??G?$_Vector_iterator@V?$_Vector_val@PAVQuestData@@V?$allocator@PAVQuestData@@@std@@@std@@@std@@QBEHABV?$_Vector_const_iterator@V?$_Vector_val@PAVQuestData@@V?$allocator@PAVQuestData@@@std@@@std@@@1@@Z ENDP ; std::_Vector_iterator<std::_Vector_val<QuestData *,std::allocator<QuestData *> > >::operator-
_TEXT	ENDS
PUBLIC	??G?$_Vector_iterator@V?$_Vector_val@PAVQuestCompleteData@@V?$allocator@PAVQuestCompleteData@@@std@@@std@@@std@@QBEHABV?$_Vector_const_iterator@V?$_Vector_val@PAVQuestCompleteData@@V?$allocator@PAVQuestCompleteData@@@std@@@std@@@1@@Z ; std::_Vector_iterator<std::_Vector_val<QuestCompleteData *,std::allocator<QuestCompleteData *> > >::operator-
; Function compile flags: /Ogsp
;	COMDAT ??G?$_Vector_iterator@V?$_Vector_val@PAVQuestCompleteData@@V?$allocator@PAVQuestCompleteData@@@std@@@std@@@std@@QBEHABV?$_Vector_const_iterator@V?$_Vector_val@PAVQuestCompleteData@@V?$allocator@PAVQuestCompleteData@@@std@@@std@@@1@@Z
_TEXT	SEGMENT
__Right$ = 8						; size = 4
??G?$_Vector_iterator@V?$_Vector_val@PAVQuestCompleteData@@V?$allocator@PAVQuestCompleteData@@@std@@@std@@@std@@QBEHABV?$_Vector_const_iterator@V?$_Vector_val@PAVQuestCompleteData@@V?$allocator@PAVQuestCompleteData@@@std@@@std@@@1@@Z PROC ; std::_Vector_iterator<std::_Vector_val<QuestCompleteData *,std::allocator<QuestCompleteData *> > >::operator-, COMDAT
; _this$ = ecx

; 380  : 		{	// return difference of iterators

  00000	55		 push	 ebp
  00001	8b ec		 mov	 ebp, esp

; 381  : 		return (*(_Mybase *)this - _Right);

  00003	8b 01		 mov	 eax, DWORD PTR [ecx]
  00005	8b 4d 08	 mov	 ecx, DWORD PTR __Right$[ebp]
  00008	2b 01		 sub	 eax, DWORD PTR [ecx]
  0000a	c1 f8 02	 sar	 eax, 2

; 382  : 		}

  0000d	5d		 pop	 ebp
  0000e	c2 04 00	 ret	 4
??G?$_Vector_iterator@V?$_Vector_val@PAVQuestCompleteData@@V?$allocator@PAVQuestCompleteData@@@std@@@std@@@std@@QBEHABV?$_Vector_const_iterator@V?$_Vector_val@PAVQuestCompleteData@@V?$allocator@PAVQuestCompleteData@@@std@@@std@@@1@@Z ENDP ; std::_Vector_iterator<std::_Vector_val<QuestCompleteData *,std::allocator<QuestCompleteData *> > >::operator-
_TEXT	ENDS
PUBLIC	??$_Unchecked@V?$_Vector_val@PAVQuestData@@V?$allocator@PAVQuestData@@@std@@@std@@@std@@YAPAPAVQuestData@@V?$_Vector_iterator@V?$_Vector_val@PAVQuestData@@V?$allocator@PAVQuestData@@@std@@@std@@@0@@Z ; std::_Unchecked<std::_Vector_val<QuestData *,std::allocator<QuestData *> > >
; Function compile flags: /Ogsp
;	COMDAT ??$_Unchecked@V?$_Vector_val@PAVQuestData@@V?$allocator@PAVQuestData@@@std@@@std@@@std@@YAPAPAVQuestData@@V?$_Vector_iterator@V?$_Vector_val@PAVQuestData@@V?$allocator@PAVQuestData@@@std@@@std@@@0@@Z
_TEXT	SEGMENT
__Iter$ = 8						; size = 4
??$_Unchecked@V?$_Vector_val@PAVQuestData@@V?$allocator@PAVQuestData@@@std@@@std@@@std@@YAPAPAVQuestData@@V?$_Vector_iterator@V?$_Vector_val@PAVQuestData@@V?$allocator@PAVQuestData@@@std@@@std@@@0@@Z PROC ; std::_Unchecked<std::_Vector_val<QuestData *,std::allocator<QuestData *> > >, COMDAT

; 393  : 	{	// convert to unchecked

  00000	55		 push	 ebp
  00001	8b ec		 mov	 ebp, esp

; 394  : 	return (_Iter._Unchecked());

  00003	8b 45 08	 mov	 eax, DWORD PTR __Iter$[ebp]

; 395  : 	}

  00006	5d		 pop	 ebp
  00007	c3		 ret	 0
??$_Unchecked@V?$_Vector_val@PAVQuestData@@V?$allocator@PAVQuestData@@@std@@@std@@@std@@YAPAPAVQuestData@@V?$_Vector_iterator@V?$_Vector_val@PAVQuestData@@V?$allocator@PAVQuestData@@@std@@@std@@@0@@Z ENDP ; std::_Unchecked<std::_Vector_val<QuestData *,std::allocator<QuestData *> > >
_TEXT	ENDS
PUBLIC	??$_Unchecked@V?$_Vector_val@PAVQuestCompleteData@@V?$allocator@PAVQuestCompleteData@@@std@@@std@@@std@@YAPAPAVQuestCompleteData@@V?$_Vector_iterator@V?$_Vector_val@PAVQuestCompleteData@@V?$allocator@PAVQuestCompleteData@@@std@@@std@@@0@@Z ; std::_Unchecked<std::_Vector_val<QuestCompleteData *,std::allocator<QuestCompleteData *> > >
; Function compile flags: /Ogsp
;	COMDAT ??$_Unchecked@V?$_Vector_val@PAVQuestCompleteData@@V?$allocator@PAVQuestCompleteData@@@std@@@std@@@std@@YAPAPAVQuestCompleteData@@V?$_Vector_iterator@V?$_Vector_val@PAVQuestCompleteData@@V?$allocator@PAVQuestCompleteData@@@std@@@std@@@0@@Z
_TEXT	SEGMENT
__Iter$ = 8						; size = 4
??$_Unchecked@V?$_Vector_val@PAVQuestCompleteData@@V?$allocator@PAVQuestCompleteData@@@std@@@std@@@std@@YAPAPAVQuestCompleteData@@V?$_Vector_iterator@V?$_Vector_val@PAVQuestCompleteData@@V?$allocator@PAVQuestCompleteData@@@std@@@std@@@0@@Z PROC ; std::_Unchecked<std::_Vector_val<QuestCompleteData *,std::allocator<QuestCompleteData *> > >, COMDAT

; 393  : 	{	// convert to unchecked

  00000	55		 push	 ebp
  00001	8b ec		 mov	 ebp, esp

; 394  : 	return (_Iter._Unchecked());

  00003	8b 45 08	 mov	 eax, DWORD PTR __Iter$[ebp]

; 395  : 	}

  00006	5d		 pop	 ebp
  00007	c3		 ret	 0
??$_Unchecked@V?$_Vector_val@PAVQuestCompleteData@@V?$allocator@PAVQuestCompleteData@@@std@@@std@@@std@@YAPAPAVQuestCompleteData@@V?$_Vector_iterator@V?$_Vector_val@PAVQuestCompleteData@@V?$allocator@PAVQuestCompleteData@@@std@@@std@@@0@@Z ENDP ; std::_Unchecked<std::_Vector_val<QuestCompleteData *,std::allocator<QuestCompleteData *> > >
_TEXT	ENDS
PUBLIC	??Y?$_Vector_iterator@V?$_Vector_val@PAVQuestData@@V?$allocator@PAVQuestData@@@std@@@std@@@std@@QAEAAV01@H@Z ; std::_Vector_iterator<std::_Vector_val<QuestData *,std::allocator<QuestData *> > >::operator+=
; Function compile flags: /Ogsp
;	COMDAT ??Y?$_Vector_iterator@V?$_Vector_val@PAVQuestData@@V?$allocator@PAVQuestData@@@std@@@std@@@std@@QAEAAV01@H@Z
_TEXT	SEGMENT
__Off$ = 8						; size = 4
??Y?$_Vector_iterator@V?$_Vector_val@PAVQuestData@@V?$allocator@PAVQuestData@@@std@@@std@@@std@@QAEAAV01@H@Z PROC ; std::_Vector_iterator<std::_Vector_val<QuestData *,std::allocator<QuestData *> > >::operator+=, COMDAT
; _this$ = ecx

; 357  : 		{	// increment by integer

  00000	55		 push	 ebp
  00001	8b ec		 mov	 ebp, esp
  00003	8b c1		 mov	 eax, ecx

; 358  : 		*(_Mybase *)this += _Off;

  00005	8b 4d 08	 mov	 ecx, DWORD PTR __Off$[ebp]
  00008	c1 e1 02	 shl	 ecx, 2
  0000b	01 08		 add	 DWORD PTR [eax], ecx

; 359  : 		return (*this);
; 360  : 		}

  0000d	5d		 pop	 ebp
  0000e	c2 04 00	 ret	 4
??Y?$_Vector_iterator@V?$_Vector_val@PAVQuestData@@V?$allocator@PAVQuestData@@@std@@@std@@@std@@QAEAAV01@H@Z ENDP ; std::_Vector_iterator<std::_Vector_val<QuestData *,std::allocator<QuestData *> > >::operator+=
_TEXT	ENDS
PUBLIC	??Z?$_Vector_iterator@V?$_Vector_val@PAVQuestData@@V?$allocator@PAVQuestData@@@std@@@std@@@std@@QAEAAV01@H@Z ; std::_Vector_iterator<std::_Vector_val<QuestData *,std::allocator<QuestData *> > >::operator-=
; Function compile flags: /Ogsp
;	COMDAT ??Z?$_Vector_iterator@V?$_Vector_val@PAVQuestData@@V?$allocator@PAVQuestData@@@std@@@std@@@std@@QAEAAV01@H@Z
_TEXT	SEGMENT
__Off$ = 8						; size = 4
??Z?$_Vector_iterator@V?$_Vector_val@PAVQuestData@@V?$allocator@PAVQuestData@@@std@@@std@@@std@@QAEAAV01@H@Z PROC ; std::_Vector_iterator<std::_Vector_val<QuestData *,std::allocator<QuestData *> > >::operator-=, COMDAT
; _this$ = ecx

; 369  : 		{	// decrement by integer

  00000	55		 push	 ebp
  00001	8b ec		 mov	 ebp, esp
  00003	8b c1		 mov	 eax, ecx

; 370  : 		return (*this += -_Off);

  00005	8b 4d 08	 mov	 ecx, DWORD PTR __Off$[ebp]
  00008	6b c9 fc	 imul	 ecx, -4			; fffffffcH
  0000b	01 08		 add	 DWORD PTR [eax], ecx

; 371  : 		}

  0000d	5d		 pop	 ebp
  0000e	c2 04 00	 ret	 4
??Z?$_Vector_iterator@V?$_Vector_val@PAVQuestData@@V?$allocator@PAVQuestData@@@std@@@std@@@std@@QAEAAV01@H@Z ENDP ; std::_Vector_iterator<std::_Vector_val<QuestData *,std::allocator<QuestData *> > >::operator-=
_TEXT	ENDS
PUBLIC	??Y?$_Vector_iterator@V?$_Vector_val@PAVQuestCompleteData@@V?$allocator@PAVQuestCompleteData@@@std@@@std@@@std@@QAEAAV01@H@Z ; std::_Vector_iterator<std::_Vector_val<QuestCompleteData *,std::allocator<QuestCompleteData *> > >::operator+=
; Function compile flags: /Ogsp
;	COMDAT ??Y?$_Vector_iterator@V?$_Vector_val@PAVQuestCompleteData@@V?$allocator@PAVQuestCompleteData@@@std@@@std@@@std@@QAEAAV01@H@Z
_TEXT	SEGMENT
__Off$ = 8						; size = 4
??Y?$_Vector_iterator@V?$_Vector_val@PAVQuestCompleteData@@V?$allocator@PAVQuestCompleteData@@@std@@@std@@@std@@QAEAAV01@H@Z PROC ; std::_Vector_iterator<std::_Vector_val<QuestCompleteData *,std::allocator<QuestCompleteData *> > >::operator+=, COMDAT
; _this$ = ecx

; 357  : 		{	// increment by integer

  00000	55		 push	 ebp
  00001	8b ec		 mov	 ebp, esp
  00003	8b c1		 mov	 eax, ecx

; 358  : 		*(_Mybase *)this += _Off;

  00005	8b 4d 08	 mov	 ecx, DWORD PTR __Off$[ebp]
  00008	c1 e1 02	 shl	 ecx, 2
  0000b	01 08		 add	 DWORD PTR [eax], ecx

; 359  : 		return (*this);
; 360  : 		}

  0000d	5d		 pop	 ebp
  0000e	c2 04 00	 ret	 4
??Y?$_Vector_iterator@V?$_Vector_val@PAVQuestCompleteData@@V?$allocator@PAVQuestCompleteData@@@std@@@std@@@std@@QAEAAV01@H@Z ENDP ; std::_Vector_iterator<std::_Vector_val<QuestCompleteData *,std::allocator<QuestCompleteData *> > >::operator+=
_TEXT	ENDS
PUBLIC	??Z?$_Vector_iterator@V?$_Vector_val@PAVQuestCompleteData@@V?$allocator@PAVQuestCompleteData@@@std@@@std@@@std@@QAEAAV01@H@Z ; std::_Vector_iterator<std::_Vector_val<QuestCompleteData *,std::allocator<QuestCompleteData *> > >::operator-=
; Function compile flags: /Ogsp
;	COMDAT ??Z?$_Vector_iterator@V?$_Vector_val@PAVQuestCompleteData@@V?$allocator@PAVQuestCompleteData@@@std@@@std@@@std@@QAEAAV01@H@Z
_TEXT	SEGMENT
__Off$ = 8						; size = 4
??Z?$_Vector_iterator@V?$_Vector_val@PAVQuestCompleteData@@V?$allocator@PAVQuestCompleteData@@@std@@@std@@@std@@QAEAAV01@H@Z PROC ; std::_Vector_iterator<std::_Vector_val<QuestCompleteData *,std::allocator<QuestCompleteData *> > >::operator-=, COMDAT
; _this$ = ecx

; 369  : 		{	// decrement by integer

  00000	55		 push	 ebp
  00001	8b ec		 mov	 ebp, esp
  00003	8b c1		 mov	 eax, ecx

; 370  : 		return (*this += -_Off);

  00005	8b 4d 08	 mov	 ecx, DWORD PTR __Off$[ebp]
  00008	6b c9 fc	 imul	 ecx, -4			; fffffffcH
  0000b	01 08		 add	 DWORD PTR [eax], ecx

; 371  : 		}

  0000d	5d		 pop	 ebp
  0000e	c2 04 00	 ret	 4
??Z?$_Vector_iterator@V?$_Vector_val@PAVQuestCompleteData@@V?$allocator@PAVQuestCompleteData@@@std@@@std@@@std@@QAEAAV01@H@Z ENDP ; std::_Vector_iterator<std::_Vector_val<QuestCompleteData *,std::allocator<QuestCompleteData *> > >::operator-=
_TEXT	ENDS
PUBLIC	?max_size@?$vector@PAVQuestData@@V?$allocator@PAVQuestData@@@std@@@std@@QBEIXZ ; std::vector<QuestData *,std::allocator<QuestData *> >::max_size
; Function compile flags: /Ogsp
;	COMDAT ?max_size@?$vector@PAVQuestData@@V?$allocator@PAVQuestData@@@std@@@std@@QBEIXZ
_TEXT	SEGMENT
?max_size@?$vector@PAVQuestData@@V?$allocator@PAVQuestData@@@std@@@std@@QBEIXZ PROC ; std::vector<QuestData *,std::allocator<QuestData *> >::max_size, COMDAT
; _this$ = ecx

; 884  : 		return (this->_Alval.max_size());

  00000	b8 ff ff ff 3f	 mov	 eax, 1073741823		; 3fffffffH

; 885  : 		}

  00005	c3		 ret	 0
?max_size@?$vector@PAVQuestData@@V?$allocator@PAVQuestData@@@std@@@std@@QBEIXZ ENDP ; std::vector<QuestData *,std::allocator<QuestData *> >::max_size
_TEXT	ENDS
PUBLIC	?_Grow_to@?$vector@PAVQuestData@@V?$allocator@PAVQuestData@@@std@@@std@@IBEII@Z ; std::vector<QuestData *,std::allocator<QuestData *> >::_Grow_to
; Function compile flags: /Ogsp
;	COMDAT ?_Grow_to@?$vector@PAVQuestData@@V?$allocator@PAVQuestData@@@std@@@std@@IBEII@Z
_TEXT	SEGMENT
__Count$ = 8						; size = 4
?_Grow_to@?$vector@PAVQuestData@@V?$allocator@PAVQuestData@@@std@@@std@@IBEII@Z PROC ; std::vector<QuestData *,std::allocator<QuestData *> >::_Grow_to, COMDAT
; _this$ = ecx

; 1274 : 		{	// grow by 50% or at least to _Count

  00000	55		 push	 ebp
  00001	8b ec		 mov	 ebp, esp

; 1275 : 		size_type _Capacity = capacity();

  00003	8b 41 08	 mov	 eax, DWORD PTR [ecx+8]
  00006	2b 01		 sub	 eax, DWORD PTR [ecx]

; 1276 : 
; 1277 : 		_Capacity = max_size() - _Capacity / 2 < _Capacity
; 1278 : 			? 0 : _Capacity + _Capacity / 2;	// try to grow by 50%

  00008	ba ff ff ff 3f	 mov	 edx, 1073741823		; 3fffffffH
  0000d	c1 f8 02	 sar	 eax, 2
  00010	8b c8		 mov	 ecx, eax
  00012	d1 e9		 shr	 ecx, 1
  00014	2b d1		 sub	 edx, ecx
  00016	3b d0		 cmp	 edx, eax
  00018	73 04		 jae	 SHORT $LN4@Grow_to
  0001a	33 c0		 xor	 eax, eax
  0001c	eb 02		 jmp	 SHORT $LN5@Grow_to
$LN4@Grow_to:
  0001e	03 c1		 add	 eax, ecx
$LN5@Grow_to:

; 1279 : 		if (_Capacity < _Count)

  00020	3b 45 08	 cmp	 eax, DWORD PTR __Count$[ebp]

; 1280 : 			_Capacity = _Count;

  00023	0f 42 45 08	 cmovb	 eax, DWORD PTR __Count$[ebp]

; 1281 : 		return (_Capacity);
; 1282 : 		}

  00027	5d		 pop	 ebp
  00028	c2 04 00	 ret	 4
?_Grow_to@?$vector@PAVQuestData@@V?$allocator@PAVQuestData@@@std@@@std@@IBEII@Z ENDP ; std::vector<QuestData *,std::allocator<QuestData *> >::_Grow_to
_TEXT	ENDS
PUBLIC	?max_size@?$vector@PAVQuestCompleteData@@V?$allocator@PAVQuestCompleteData@@@std@@@std@@QBEIXZ ; std::vector<QuestCompleteData *,std::allocator<QuestCompleteData *> >::max_size
; Function compile flags: /Ogsp
;	COMDAT ?max_size@?$vector@PAVQuestCompleteData@@V?$allocator@PAVQuestCompleteData@@@std@@@std@@QBEIXZ
_TEXT	SEGMENT
?max_size@?$vector@PAVQuestCompleteData@@V?$allocator@PAVQuestCompleteData@@@std@@@std@@QBEIXZ PROC ; std::vector<QuestCompleteData *,std::allocator<QuestCompleteData *> >::max_size, COMDAT
; _this$ = ecx

; 884  : 		return (this->_Alval.max_size());

  00000	b8 ff ff ff 3f	 mov	 eax, 1073741823		; 3fffffffH

; 885  : 		}

  00005	c3		 ret	 0
?max_size@?$vector@PAVQuestCompleteData@@V?$allocator@PAVQuestCompleteData@@@std@@@std@@QBEIXZ ENDP ; std::vector<QuestCompleteData *,std::allocator<QuestCompleteData *> >::max_size
_TEXT	ENDS
PUBLIC	?_Grow_to@?$vector@PAVQuestCompleteData@@V?$allocator@PAVQuestCompleteData@@@std@@@std@@IBEII@Z ; std::vector<QuestCompleteData *,std::allocator<QuestCompleteData *> >::_Grow_to
; Function compile flags: /Ogsp
;	COMDAT ?_Grow_to@?$vector@PAVQuestCompleteData@@V?$allocator@PAVQuestCompleteData@@@std@@@std@@IBEII@Z
_TEXT	SEGMENT
__Count$ = 8						; size = 4
?_Grow_to@?$vector@PAVQuestCompleteData@@V?$allocator@PAVQuestCompleteData@@@std@@@std@@IBEII@Z PROC ; std::vector<QuestCompleteData *,std::allocator<QuestCompleteData *> >::_Grow_to, COMDAT
; _this$ = ecx

; 1274 : 		{	// grow by 50% or at least to _Count

  00000	55		 push	 ebp
  00001	8b ec		 mov	 ebp, esp

; 1275 : 		size_type _Capacity = capacity();

  00003	8b 41 08	 mov	 eax, DWORD PTR [ecx+8]
  00006	2b 01		 sub	 eax, DWORD PTR [ecx]

; 1276 : 
; 1277 : 		_Capacity = max_size() - _Capacity / 2 < _Capacity
; 1278 : 			? 0 : _Capacity + _Capacity / 2;	// try to grow by 50%

  00008	ba ff ff ff 3f	 mov	 edx, 1073741823		; 3fffffffH
  0000d	c1 f8 02	 sar	 eax, 2
  00010	8b c8		 mov	 ecx, eax
  00012	d1 e9		 shr	 ecx, 1
  00014	2b d1		 sub	 edx, ecx
  00016	3b d0		 cmp	 edx, eax
  00018	73 04		 jae	 SHORT $LN4@Grow_to@2
  0001a	33 c0		 xor	 eax, eax
  0001c	eb 02		 jmp	 SHORT $LN5@Grow_to@2
$LN4@Grow_to@2:
  0001e	03 c1		 add	 eax, ecx
$LN5@Grow_to@2:

; 1279 : 		if (_Capacity < _Count)

  00020	3b 45 08	 cmp	 eax, DWORD PTR __Count$[ebp]

; 1280 : 			_Capacity = _Count;

  00023	0f 42 45 08	 cmovb	 eax, DWORD PTR __Count$[ebp]

; 1281 : 		return (_Capacity);
; 1282 : 		}

  00027	5d		 pop	 ebp
  00028	c2 04 00	 ret	 4
?_Grow_to@?$vector@PAVQuestCompleteData@@V?$allocator@PAVQuestCompleteData@@@std@@@std@@IBEII@Z ENDP ; std::vector<QuestCompleteData *,std::allocator<QuestCompleteData *> >::_Grow_to
_TEXT	ENDS
PUBLIC	?allocate@?$allocator@PAVQuestData@@@std@@QAEPAPAVQuestData@@I@Z ; std::allocator<QuestData *>::allocate
; Function compile flags: /Ogsp
; File c:\program files (x86)\microsoft visual studio 10.0\vc\include\xmemory
;	COMDAT ?allocate@?$allocator@PAVQuestData@@@std@@QAEPAPAVQuestData@@I@Z
_TEXT	SEGMENT
__Count$ = 8						; size = 4
?allocate@?$allocator@PAVQuestData@@@std@@QAEPAPAVQuestData@@I@Z PROC ; std::allocator<QuestData *>::allocate, COMDAT
; _this$ = ecx

; 186  : 		{	// allocate array of _Count elements

  00000	55		 push	 ebp
  00001	8b ec		 mov	 ebp, esp

; 187  : 		return (_Allocate(_Count, (pointer)0));

  00003	6a 00		 push	 0
  00005	ff 75 08	 push	 DWORD PTR __Count$[ebp]
  00008	e8 00 00 00 00	 call	 ??$_Allocate@PAVQuestData@@@std@@YAPAPAVQuestData@@IPAPAV1@@Z ; std::_Allocate<QuestData *>
  0000d	59		 pop	 ecx
  0000e	59		 pop	 ecx

; 188  : 		}

  0000f	5d		 pop	 ebp
  00010	c2 04 00	 ret	 4
?allocate@?$allocator@PAVQuestData@@@std@@QAEPAPAVQuestData@@I@Z ENDP ; std::allocator<QuestData *>::allocate
_TEXT	ENDS
PUBLIC	?allocate@?$allocator@PAVQuestCompleteData@@@std@@QAEPAPAVQuestCompleteData@@I@Z ; std::allocator<QuestCompleteData *>::allocate
; Function compile flags: /Ogsp
;	COMDAT ?allocate@?$allocator@PAVQuestCompleteData@@@std@@QAEPAPAVQuestCompleteData@@I@Z
_TEXT	SEGMENT
__Count$ = 8						; size = 4
?allocate@?$allocator@PAVQuestCompleteData@@@std@@QAEPAPAVQuestCompleteData@@I@Z PROC ; std::allocator<QuestCompleteData *>::allocate, COMDAT
; _this$ = ecx

; 186  : 		{	// allocate array of _Count elements

  00000	55		 push	 ebp
  00001	8b ec		 mov	 ebp, esp

; 187  : 		return (_Allocate(_Count, (pointer)0));

  00003	6a 00		 push	 0
  00005	ff 75 08	 push	 DWORD PTR __Count$[ebp]
  00008	e8 00 00 00 00	 call	 ??$_Allocate@PAVQuestCompleteData@@@std@@YAPAPAVQuestCompleteData@@IPAPAV1@@Z ; std::_Allocate<QuestCompleteData *>
  0000d	59		 pop	 ecx
  0000e	59		 pop	 ecx

; 188  : 		}

  0000f	5d		 pop	 ebp
  00010	c2 04 00	 ret	 4
?allocate@?$allocator@PAVQuestCompleteData@@@std@@QAEPAPAVQuestCompleteData@@I@Z ENDP ; std::allocator<QuestCompleteData *>::allocate
_TEXT	ENDS
PUBLIC	??$?0AAPAPAVQuestData@@AAPAPAV0@@?$pair@PAPAVQuestData@@PAPAV1@@std@@QAE@AAPAPAVQuestData@@0@Z ; std::pair<QuestData * *,QuestData * *>::pair<QuestData * *,QuestData * *><QuestData * * &,QuestData * * &>
; Function compile flags: /Ogsp
; File c:\program files (x86)\microsoft visual studio 10.0\vc\include\utility
;	COMDAT ??$?0AAPAPAVQuestData@@AAPAPAV0@@?$pair@PAPAVQuestData@@PAPAV1@@std@@QAE@AAPAPAVQuestData@@0@Z
_TEXT	SEGMENT
__Val1$ = 8						; size = 4
__Val2$ = 12						; size = 4
??$?0AAPAPAVQuestData@@AAPAPAV0@@?$pair@PAPAVQuestData@@PAPAV1@@std@@QAE@AAPAPAVQuestData@@0@Z PROC ; std::pair<QuestData * *,QuestData * *>::pair<QuestData * *,QuestData * *><QuestData * * &,QuestData * * &>, COMDAT
; _this$ = ecx

; 247  : 		{	// construct from moved values

  00000	55		 push	 ebp
  00001	8b ec		 mov	 ebp, esp
  00003	8b c1		 mov	 eax, ecx
  00005	8b 4d 08	 mov	 ecx, DWORD PTR __Val1$[ebp]
  00008	8b 09		 mov	 ecx, DWORD PTR [ecx]
  0000a	89 08		 mov	 DWORD PTR [eax], ecx
  0000c	8b 4d 0c	 mov	 ecx, DWORD PTR __Val2$[ebp]
  0000f	8b 09		 mov	 ecx, DWORD PTR [ecx]
  00011	89 48 04	 mov	 DWORD PTR [eax+4], ecx

; 248  : 		}

  00014	5d		 pop	 ebp
  00015	c2 08 00	 ret	 8
??$?0AAPAPAVQuestData@@AAPAPAV0@@?$pair@PAPAVQuestData@@PAPAV1@@std@@QAE@AAPAPAVQuestData@@0@Z ENDP ; std::pair<QuestData * *,QuestData * *>::pair<QuestData * *,QuestData * *><QuestData * * &,QuestData * * &>
_TEXT	ENDS
PUBLIC	??$_Cons_val@V?$allocator@PAVQuestData@@@std@@PAVQuestData@@AAPAV3@@std@@YAXAAV?$allocator@PAVQuestData@@@0@PAPAVQuestData@@AAPAV2@@Z ; std::_Cons_val<std::allocator<QuestData *>,QuestData *,QuestData * &>
; Function compile flags: /Ogsp
; File c:\program files (x86)\microsoft visual studio 10.0\vc\include\xmemory
;	COMDAT ??$_Cons_val@V?$allocator@PAVQuestData@@@std@@PAVQuestData@@AAPAV3@@std@@YAXAAV?$allocator@PAVQuestData@@@0@PAPAVQuestData@@AAPAV2@@Z
_TEXT	SEGMENT
__Alval$ = 8						; size = 4
__Pdest$ = 12						; size = 4
__Src$ = 16						; size = 4
??$_Cons_val@V?$allocator@PAVQuestData@@@std@@PAVQuestData@@AAPAV3@@std@@YAXAAV?$allocator@PAVQuestData@@@0@PAPAVQuestData@@AAPAV2@@Z PROC ; std::_Cons_val<std::allocator<QuestData *>,QuestData *,QuestData * &>, COMDAT

; 279  : 	{	// construct using allocator

  00000	55		 push	 ebp
  00001	8b ec		 mov	 ebp, esp

; 280  : 	_Alval.construct(_Pdest, _STD forward<_Ty2>(_Src));

  00003	8b 45 0c	 mov	 eax, DWORD PTR __Pdest$[ebp]
  00006	85 c0		 test	 eax, eax
  00008	74 07		 je	 SHORT $LN7@Cons_val
  0000a	8b 4d 10	 mov	 ecx, DWORD PTR __Src$[ebp]
  0000d	8b 09		 mov	 ecx, DWORD PTR [ecx]
  0000f	89 08		 mov	 DWORD PTR [eax], ecx
$LN7@Cons_val:

; 281  : 	}

  00011	5d		 pop	 ebp
  00012	c3		 ret	 0
??$_Cons_val@V?$allocator@PAVQuestData@@@std@@PAVQuestData@@AAPAV3@@std@@YAXAAV?$allocator@PAVQuestData@@@0@PAPAVQuestData@@AAPAV2@@Z ENDP ; std::_Cons_val<std::allocator<QuestData *>,QuestData *,QuestData * &>
_TEXT	ENDS
PUBLIC	??$?0AAPAPAVQuestCompleteData@@AAPAPAV0@@?$pair@PAPAVQuestCompleteData@@PAPAV1@@std@@QAE@AAPAPAVQuestCompleteData@@0@Z ; std::pair<QuestCompleteData * *,QuestCompleteData * *>::pair<QuestCompleteData * *,QuestCompleteData * *><QuestCompleteData * * &,QuestCompleteData * * &>
; Function compile flags: /Ogsp
; File c:\program files (x86)\microsoft visual studio 10.0\vc\include\utility
;	COMDAT ??$?0AAPAPAVQuestCompleteData@@AAPAPAV0@@?$pair@PAPAVQuestCompleteData@@PAPAV1@@std@@QAE@AAPAPAVQuestCompleteData@@0@Z
_TEXT	SEGMENT
__Val1$ = 8						; size = 4
__Val2$ = 12						; size = 4
??$?0AAPAPAVQuestCompleteData@@AAPAPAV0@@?$pair@PAPAVQuestCompleteData@@PAPAV1@@std@@QAE@AAPAPAVQuestCompleteData@@0@Z PROC ; std::pair<QuestCompleteData * *,QuestCompleteData * *>::pair<QuestCompleteData * *,QuestCompleteData * *><QuestCompleteData * * &,QuestCompleteData * * &>, COMDAT
; _this$ = ecx

; 247  : 		{	// construct from moved values

  00000	55		 push	 ebp
  00001	8b ec		 mov	 ebp, esp
  00003	8b c1		 mov	 eax, ecx
  00005	8b 4d 08	 mov	 ecx, DWORD PTR __Val1$[ebp]
  00008	8b 09		 mov	 ecx, DWORD PTR [ecx]
  0000a	89 08		 mov	 DWORD PTR [eax], ecx
  0000c	8b 4d 0c	 mov	 ecx, DWORD PTR __Val2$[ebp]
  0000f	8b 09		 mov	 ecx, DWORD PTR [ecx]
  00011	89 48 04	 mov	 DWORD PTR [eax+4], ecx

; 248  : 		}

  00014	5d		 pop	 ebp
  00015	c2 08 00	 ret	 8
??$?0AAPAPAVQuestCompleteData@@AAPAPAV0@@?$pair@PAPAVQuestCompleteData@@PAPAV1@@std@@QAE@AAPAPAVQuestCompleteData@@0@Z ENDP ; std::pair<QuestCompleteData * *,QuestCompleteData * *>::pair<QuestCompleteData * *,QuestCompleteData * *><QuestCompleteData * * &,QuestCompleteData * * &>
_TEXT	ENDS
PUBLIC	??$_Cons_val@V?$allocator@PAVQuestCompleteData@@@std@@PAVQuestCompleteData@@AAPAV3@@std@@YAXAAV?$allocator@PAVQuestCompleteData@@@0@PAPAVQuestCompleteData@@AAPAV2@@Z ; std::_Cons_val<std::allocator<QuestCompleteData *>,QuestCompleteData *,QuestCompleteData * &>
; Function compile flags: /Ogsp
; File c:\program files (x86)\microsoft visual studio 10.0\vc\include\xmemory
;	COMDAT ??$_Cons_val@V?$allocator@PAVQuestCompleteData@@@std@@PAVQuestCompleteData@@AAPAV3@@std@@YAXAAV?$allocator@PAVQuestCompleteData@@@0@PAPAVQuestCompleteData@@AAPAV2@@Z
_TEXT	SEGMENT
__Alval$ = 8						; size = 4
__Pdest$ = 12						; size = 4
__Src$ = 16						; size = 4
??$_Cons_val@V?$allocator@PAVQuestCompleteData@@@std@@PAVQuestCompleteData@@AAPAV3@@std@@YAXAAV?$allocator@PAVQuestCompleteData@@@0@PAPAVQuestCompleteData@@AAPAV2@@Z PROC ; std::_Cons_val<std::allocator<QuestCompleteData *>,QuestCompleteData *,QuestCompleteData * &>, COMDAT

; 279  : 	{	// construct using allocator

  00000	55		 push	 ebp
  00001	8b ec		 mov	 ebp, esp

; 280  : 	_Alval.construct(_Pdest, _STD forward<_Ty2>(_Src));

  00003	8b 45 0c	 mov	 eax, DWORD PTR __Pdest$[ebp]
  00006	85 c0		 test	 eax, eax
  00008	74 07		 je	 SHORT $LN7@Cons_val@2
  0000a	8b 4d 10	 mov	 ecx, DWORD PTR __Src$[ebp]
  0000d	8b 09		 mov	 ecx, DWORD PTR [ecx]
  0000f	89 08		 mov	 DWORD PTR [eax], ecx
$LN7@Cons_val@2:

; 281  : 	}

  00011	5d		 pop	 ebp
  00012	c3		 ret	 0
??$_Cons_val@V?$allocator@PAVQuestCompleteData@@@std@@PAVQuestCompleteData@@AAPAV3@@std@@YAXAAV?$allocator@PAVQuestCompleteData@@@0@PAPAVQuestCompleteData@@AAPAV2@@Z ENDP ; std::_Cons_val<std::allocator<QuestCompleteData *>,QuestCompleteData *,QuestCompleteData * &>
_TEXT	ENDS
PUBLIC	??$swap@PAVQuestData@@@std@@YAXAAPAVQuestData@@0@Z ; std::swap<QuestData *>
; Function compile flags: /Ogsp
; File c:\program files (x86)\microsoft visual studio 10.0\vc\include\utility
;	COMDAT ??$swap@PAVQuestData@@@std@@YAXAAPAVQuestData@@0@Z
_TEXT	SEGMENT
__Left$ = 8						; size = 4
__Right$ = 12						; size = 4
??$swap@PAVQuestData@@@std@@YAXAAPAVQuestData@@0@Z PROC	; std::swap<QuestData *>, COMDAT

; 101  : 	{	// exchange values stored at _Left and _Right

  00000	55		 push	 ebp
  00001	8b ec		 mov	 ebp, esp

; 102  : 	_Ty _Tmp = _Move(_Left);
; 103  : 	_Left = _Move(_Right);

  00003	8b 55 0c	 mov	 edx, DWORD PTR __Right$[ebp]
  00006	8b 45 08	 mov	 eax, DWORD PTR __Left$[ebp]
  00009	8b 08		 mov	 ecx, DWORD PTR [eax]
  0000b	56		 push	 esi
  0000c	8b 32		 mov	 esi, DWORD PTR [edx]
  0000e	89 30		 mov	 DWORD PTR [eax], esi

; 104  : 	_Right = _Move(_Tmp);

  00010	89 0a		 mov	 DWORD PTR [edx], ecx
  00012	5e		 pop	 esi

; 105  : 	}

  00013	5d		 pop	 ebp
  00014	c3		 ret	 0
??$swap@PAVQuestData@@@std@@YAXAAPAVQuestData@@0@Z ENDP	; std::swap<QuestData *>
_TEXT	ENDS
PUBLIC	??$_Move_backward@PAPAVQuestData@@PAPAV1@@std@@YAPAPAVQuestData@@PAPAV1@00@Z ; std::_Move_backward<QuestData * *,QuestData * *>
; Function compile flags: /Ogsp
; File c:\program files (x86)\microsoft visual studio 10.0\vc\include\xutility
;	COMDAT ??$_Move_backward@PAPAVQuestData@@PAPAV1@@std@@YAPAPAVQuestData@@PAPAV1@00@Z
_TEXT	SEGMENT
__Cat$509772 = -4					; size = 1
__First$ = 8						; size = 4
__Last$ = 12						; size = 4
__Dest$ = 16						; size = 4
??$_Move_backward@PAPAVQuestData@@PAPAV1@@std@@YAPAPAVQuestData@@PAPAV1@00@Z PROC ; std::_Move_backward<QuestData * *,QuestData * *>, COMDAT

; 2638 : 	{	// move [_First, _Last) backwards to [..., _Dest), unchecked

  00000	55		 push	 ebp
  00001	8b ec		 mov	 ebp, esp
  00003	51		 push	 ecx

; 2639 : 	return (_Move_backward(_First, _Last,
; 2640 : 		_Dest, _Ptr_cat(_First, _Dest)));

  00004	ff 75 fc	 push	 DWORD PTR __Cat$509772[ebp]
  00007	ff 75 10	 push	 DWORD PTR __Dest$[ebp]
  0000a	ff 75 0c	 push	 DWORD PTR __Last$[ebp]
  0000d	ff 75 08	 push	 DWORD PTR __First$[ebp]
  00010	e8 00 00 00 00	 call	 ??$_Move_backward@PAPAVQuestData@@PAPAV1@@std@@YAPAPAVQuestData@@PAPAV1@00U_Scalar_ptr_iterator_tag@0@@Z ; std::_Move_backward<QuestData * *,QuestData * *>
  00015	83 c4 10	 add	 esp, 16			; 00000010H

; 2641 : 	}

  00018	c9		 leave
  00019	c3		 ret	 0
??$_Move_backward@PAPAVQuestData@@PAPAV1@@std@@YAPAPAVQuestData@@PAPAV1@00@Z ENDP ; std::_Move_backward<QuestData * *,QuestData * *>
_TEXT	ENDS
PUBLIC	??$_Distance2@V?$_Vector_iterator@V?$_Vector_val@PAVQuestData@@V?$allocator@PAVQuestData@@@std@@@std@@@std@@H@std@@YAXV?$_Vector_iterator@V?$_Vector_val@PAVQuestData@@V?$allocator@PAVQuestData@@@std@@@std@@@0@0AAHUrandom_access_iterator_tag@0@@Z ; std::_Distance2<std::_Vector_iterator<std::_Vector_val<QuestData *,std::allocator<QuestData *> > >,int>
; Function compile flags: /Ogsp
;	COMDAT ??$_Distance2@V?$_Vector_iterator@V?$_Vector_val@PAVQuestData@@V?$allocator@PAVQuestData@@@std@@@std@@@std@@H@std@@YAXV?$_Vector_iterator@V?$_Vector_val@PAVQuestData@@V?$allocator@PAVQuestData@@@std@@@std@@@0@0AAHUrandom_access_iterator_tag@0@@Z
_TEXT	SEGMENT
__First$ = 8						; size = 4
__Last$ = 12						; size = 4
__Off$ = 16						; size = 4
___formal$ = 20						; size = 1
??$_Distance2@V?$_Vector_iterator@V?$_Vector_val@PAVQuestData@@V?$allocator@PAVQuestData@@@std@@@std@@@std@@H@std@@YAXV?$_Vector_iterator@V?$_Vector_val@PAVQuestData@@V?$allocator@PAVQuestData@@@std@@@std@@@0@0AAHUrandom_access_iterator_tag@0@@Z PROC ; std::_Distance2<std::_Vector_iterator<std::_Vector_val<QuestData *,std::allocator<QuestData *> > >,int>, COMDAT

; 885  : 	{	// add to _Off distance between random-access iterators

  00000	55		 push	 ebp
  00001	8b ec		 mov	 ebp, esp

; 886  :  #if _ITERATOR_DEBUG_LEVEL == 2
; 887  : 	if (_First != _Last)
; 888  : 		{	// check for null pointers
; 889  : 		_DEBUG_POINTER(_First);
; 890  : 		_DEBUG_POINTER(_Last);
; 891  : 		}
; 892  :  #endif /* _ITERATOR_DEBUG_LEVEL == 2 */
; 893  : 
; 894  : 	_Off += _Last - _First;

  00003	8b 4d 0c	 mov	 ecx, DWORD PTR __Last$[ebp]
  00006	2b 4d 08	 sub	 ecx, DWORD PTR __First$[ebp]
  00009	8b 45 10	 mov	 eax, DWORD PTR __Off$[ebp]
  0000c	c1 f9 02	 sar	 ecx, 2
  0000f	01 08		 add	 DWORD PTR [eax], ecx

; 895  : 	}

  00011	5d		 pop	 ebp
  00012	c3		 ret	 0
??$_Distance2@V?$_Vector_iterator@V?$_Vector_val@PAVQuestData@@V?$allocator@PAVQuestData@@@std@@@std@@@std@@H@std@@YAXV?$_Vector_iterator@V?$_Vector_val@PAVQuestData@@V?$allocator@PAVQuestData@@@std@@@std@@@0@0AAHUrandom_access_iterator_tag@0@@Z ENDP ; std::_Distance2<std::_Vector_iterator<std::_Vector_val<QuestData *,std::allocator<QuestData *> > >,int>
_TEXT	ENDS
PUBLIC	??$_Advance@V?$_Vector_iterator@V?$_Vector_val@PAVQuestData@@V?$allocator@PAVQuestData@@@std@@@std@@@std@@H@std@@YAXAAV?$_Vector_iterator@V?$_Vector_val@PAVQuestData@@V?$allocator@PAVQuestData@@@std@@@std@@@0@HUrandom_access_iterator_tag@0@@Z ; std::_Advance<std::_Vector_iterator<std::_Vector_val<QuestData *,std::allocator<QuestData *> > >,int>
; Function compile flags: /Ogsp
;	COMDAT ??$_Advance@V?$_Vector_iterator@V?$_Vector_val@PAVQuestData@@V?$allocator@PAVQuestData@@@std@@@std@@@std@@H@std@@YAXAAV?$_Vector_iterator@V?$_Vector_val@PAVQuestData@@V?$allocator@PAVQuestData@@@std@@@std@@@0@HUrandom_access_iterator_tag@0@@Z
_TEXT	SEGMENT
__Where$ = 8						; size = 4
__Off$ = 12						; size = 4
___formal$ = 16						; size = 1
??$_Advance@V?$_Vector_iterator@V?$_Vector_val@PAVQuestData@@V?$allocator@PAVQuestData@@@std@@@std@@@std@@H@std@@YAXAAV?$_Vector_iterator@V?$_Vector_val@PAVQuestData@@V?$allocator@PAVQuestData@@@std@@@std@@@0@HUrandom_access_iterator_tag@0@@Z PROC ; std::_Advance<std::_Vector_iterator<std::_Vector_val<QuestData *,std::allocator<QuestData *> > >,int>, COMDAT

; 840  : 	{	// increment iterator by offset, random-access iterators

  00000	55		 push	 ebp
  00001	8b ec		 mov	 ebp, esp

; 841  : 	_Where += _Off;

  00003	8b 4d 0c	 mov	 ecx, DWORD PTR __Off$[ebp]
  00006	8b 45 08	 mov	 eax, DWORD PTR __Where$[ebp]
  00009	c1 e1 02	 shl	 ecx, 2
  0000c	01 08		 add	 DWORD PTR [eax], ecx

; 842  : 	}

  0000e	5d		 pop	 ebp
  0000f	c3		 ret	 0
??$_Advance@V?$_Vector_iterator@V?$_Vector_val@PAVQuestData@@V?$allocator@PAVQuestData@@@std@@@std@@@std@@H@std@@YAXAAV?$_Vector_iterator@V?$_Vector_val@PAVQuestData@@V?$allocator@PAVQuestData@@@std@@@std@@@0@HUrandom_access_iterator_tag@0@@Z ENDP ; std::_Advance<std::_Vector_iterator<std::_Vector_val<QuestData *,std::allocator<QuestData *> > >,int>
_TEXT	ENDS
PUBLIC	??$swap@PAVQuestCompleteData@@@std@@YAXAAPAVQuestCompleteData@@0@Z ; std::swap<QuestCompleteData *>
; Function compile flags: /Ogsp
; File c:\program files (x86)\microsoft visual studio 10.0\vc\include\utility
;	COMDAT ??$swap@PAVQuestCompleteData@@@std@@YAXAAPAVQuestCompleteData@@0@Z
_TEXT	SEGMENT
__Left$ = 8						; size = 4
__Right$ = 12						; size = 4
??$swap@PAVQuestCompleteData@@@std@@YAXAAPAVQuestCompleteData@@0@Z PROC ; std::swap<QuestCompleteData *>, COMDAT

; 101  : 	{	// exchange values stored at _Left and _Right

  00000	55		 push	 ebp
  00001	8b ec		 mov	 ebp, esp

; 102  : 	_Ty _Tmp = _Move(_Left);
; 103  : 	_Left = _Move(_Right);

  00003	8b 55 0c	 mov	 edx, DWORD PTR __Right$[ebp]
  00006	8b 45 08	 mov	 eax, DWORD PTR __Left$[ebp]
  00009	8b 08		 mov	 ecx, DWORD PTR [eax]
  0000b	56		 push	 esi
  0000c	8b 32		 mov	 esi, DWORD PTR [edx]
  0000e	89 30		 mov	 DWORD PTR [eax], esi

; 104  : 	_Right = _Move(_Tmp);

  00010	89 0a		 mov	 DWORD PTR [edx], ecx
  00012	5e		 pop	 esi

; 105  : 	}

  00013	5d		 pop	 ebp
  00014	c3		 ret	 0
??$swap@PAVQuestCompleteData@@@std@@YAXAAPAVQuestCompleteData@@0@Z ENDP ; std::swap<QuestCompleteData *>
_TEXT	ENDS
PUBLIC	??$_Move_backward@PAPAVQuestCompleteData@@PAPAV1@@std@@YAPAPAVQuestCompleteData@@PAPAV1@00@Z ; std::_Move_backward<QuestCompleteData * *,QuestCompleteData * *>
; Function compile flags: /Ogsp
; File c:\program files (x86)\microsoft visual studio 10.0\vc\include\xutility
;	COMDAT ??$_Move_backward@PAPAVQuestCompleteData@@PAPAV1@@std@@YAPAPAVQuestCompleteData@@PAPAV1@00@Z
_TEXT	SEGMENT
__Cat$509817 = -4					; size = 1
__First$ = 8						; size = 4
__Last$ = 12						; size = 4
__Dest$ = 16						; size = 4
??$_Move_backward@PAPAVQuestCompleteData@@PAPAV1@@std@@YAPAPAVQuestCompleteData@@PAPAV1@00@Z PROC ; std::_Move_backward<QuestCompleteData * *,QuestCompleteData * *>, COMDAT

; 2638 : 	{	// move [_First, _Last) backwards to [..., _Dest), unchecked

  00000	55		 push	 ebp
  00001	8b ec		 mov	 ebp, esp
  00003	51		 push	 ecx

; 2639 : 	return (_Move_backward(_First, _Last,
; 2640 : 		_Dest, _Ptr_cat(_First, _Dest)));

  00004	ff 75 fc	 push	 DWORD PTR __Cat$509817[ebp]
  00007	ff 75 10	 push	 DWORD PTR __Dest$[ebp]
  0000a	ff 75 0c	 push	 DWORD PTR __Last$[ebp]
  0000d	ff 75 08	 push	 DWORD PTR __First$[ebp]
  00010	e8 00 00 00 00	 call	 ??$_Move_backward@PAPAVQuestCompleteData@@PAPAV1@@std@@YAPAPAVQuestCompleteData@@PAPAV1@00U_Scalar_ptr_iterator_tag@0@@Z ; std::_Move_backward<QuestCompleteData * *,QuestCompleteData * *>
  00015	83 c4 10	 add	 esp, 16			; 00000010H

; 2641 : 	}

  00018	c9		 leave
  00019	c3		 ret	 0
??$_Move_backward@PAPAVQuestCompleteData@@PAPAV1@@std@@YAPAPAVQuestCompleteData@@PAPAV1@00@Z ENDP ; std::_Move_backward<QuestCompleteData * *,QuestCompleteData * *>
_TEXT	ENDS
PUBLIC	??$_Distance2@V?$_Vector_iterator@V?$_Vector_val@PAVQuestCompleteData@@V?$allocator@PAVQuestCompleteData@@@std@@@std@@@std@@H@std@@YAXV?$_Vector_iterator@V?$_Vector_val@PAVQuestCompleteData@@V?$allocator@PAVQuestCompleteData@@@std@@@std@@@0@0AAHUrandom_access_iterator_tag@0@@Z ; std::_Distance2<std::_Vector_iterator<std::_Vector_val<QuestCompleteData *,std::allocator<QuestCompleteData *> > >,int>
; Function compile flags: /Ogsp
;	COMDAT ??$_Distance2@V?$_Vector_iterator@V?$_Vector_val@PAVQuestCompleteData@@V?$allocator@PAVQuestCompleteData@@@std@@@std@@@std@@H@std@@YAXV?$_Vector_iterator@V?$_Vector_val@PAVQuestCompleteData@@V?$allocator@PAVQuestCompleteData@@@std@@@std@@@0@0AAHUrandom_access_iterator_tag@0@@Z
_TEXT	SEGMENT
__First$ = 8						; size = 4
__Last$ = 12						; size = 4
__Off$ = 16						; size = 4
___formal$ = 20						; size = 1
??$_Distance2@V?$_Vector_iterator@V?$_Vector_val@PAVQuestCompleteData@@V?$allocator@PAVQuestCompleteData@@@std@@@std@@@std@@H@std@@YAXV?$_Vector_iterator@V?$_Vector_val@PAVQuestCompleteData@@V?$allocator@PAVQuestCompleteData@@@std@@@std@@@0@0AAHUrandom_access_iterator_tag@0@@Z PROC ; std::_Distance2<std::_Vector_iterator<std::_Vector_val<QuestCompleteData *,std::allocator<QuestCompleteData *> > >,int>, COMDAT

; 885  : 	{	// add to _Off distance between random-access iterators

  00000	55		 push	 ebp
  00001	8b ec		 mov	 ebp, esp

; 886  :  #if _ITERATOR_DEBUG_LEVEL == 2
; 887  : 	if (_First != _Last)
; 888  : 		{	// check for null pointers
; 889  : 		_DEBUG_POINTER(_First);
; 890  : 		_DEBUG_POINTER(_Last);
; 891  : 		}
; 892  :  #endif /* _ITERATOR_DEBUG_LEVEL == 2 */
; 893  : 
; 894  : 	_Off += _Last - _First;

  00003	8b 4d 0c	 mov	 ecx, DWORD PTR __Last$[ebp]
  00006	2b 4d 08	 sub	 ecx, DWORD PTR __First$[ebp]
  00009	8b 45 10	 mov	 eax, DWORD PTR __Off$[ebp]
  0000c	c1 f9 02	 sar	 ecx, 2
  0000f	01 08		 add	 DWORD PTR [eax], ecx

; 895  : 	}

  00011	5d		 pop	 ebp
  00012	c3		 ret	 0
??$_Distance2@V?$_Vector_iterator@V?$_Vector_val@PAVQuestCompleteData@@V?$allocator@PAVQuestCompleteData@@@std@@@std@@@std@@H@std@@YAXV?$_Vector_iterator@V?$_Vector_val@PAVQuestCompleteData@@V?$allocator@PAVQuestCompleteData@@@std@@@std@@@0@0AAHUrandom_access_iterator_tag@0@@Z ENDP ; std::_Distance2<std::_Vector_iterator<std::_Vector_val<QuestCompleteData *,std::allocator<QuestCompleteData *> > >,int>
_TEXT	ENDS
PUBLIC	??$_Advance@V?$_Vector_iterator@V?$_Vector_val@PAVQuestCompleteData@@V?$allocator@PAVQuestCompleteData@@@std@@@std@@@std@@H@std@@YAXAAV?$_Vector_iterator@V?$_Vector_val@PAVQuestCompleteData@@V?$allocator@PAVQuestCompleteData@@@std@@@std@@@0@HUrandom_access_iterator_tag@0@@Z ; std::_Advance<std::_Vector_iterator<std::_Vector_val<QuestCompleteData *,std::allocator<QuestCompleteData *> > >,int>
; Function compile flags: /Ogsp
;	COMDAT ??$_Advance@V?$_Vector_iterator@V?$_Vector_val@PAVQuestCompleteData@@V?$allocator@PAVQuestCompleteData@@@std@@@std@@@std@@H@std@@YAXAAV?$_Vector_iterator@V?$_Vector_val@PAVQuestCompleteData@@V?$allocator@PAVQuestCompleteData@@@std@@@std@@@0@HUrandom_access_iterator_tag@0@@Z
_TEXT	SEGMENT
__Where$ = 8						; size = 4
__Off$ = 12						; size = 4
___formal$ = 16						; size = 1
??$_Advance@V?$_Vector_iterator@V?$_Vector_val@PAVQuestCompleteData@@V?$allocator@PAVQuestCompleteData@@@std@@@std@@@std@@H@std@@YAXAAV?$_Vector_iterator@V?$_Vector_val@PAVQuestCompleteData@@V?$allocator@PAVQuestCompleteData@@@std@@@std@@@0@HUrandom_access_iterator_tag@0@@Z PROC ; std::_Advance<std::_Vector_iterator<std::_Vector_val<QuestCompleteData *,std::allocator<QuestCompleteData *> > >,int>, COMDAT

; 840  : 	{	// increment iterator by offset, random-access iterators

  00000	55		 push	 ebp
  00001	8b ec		 mov	 ebp, esp

; 841  : 	_Where += _Off;

  00003	8b 4d 0c	 mov	 ecx, DWORD PTR __Off$[ebp]
  00006	8b 45 08	 mov	 eax, DWORD PTR __Where$[ebp]
  00009	c1 e1 02	 shl	 ecx, 2
  0000c	01 08		 add	 DWORD PTR [eax], ecx

; 842  : 	}

  0000e	5d		 pop	 ebp
  0000f	c3		 ret	 0
??$_Advance@V?$_Vector_iterator@V?$_Vector_val@PAVQuestCompleteData@@V?$allocator@PAVQuestCompleteData@@@std@@@std@@@std@@H@std@@YAXAAV?$_Vector_iterator@V?$_Vector_val@PAVQuestCompleteData@@V?$allocator@PAVQuestCompleteData@@@std@@@std@@@0@HUrandom_access_iterator_tag@0@@Z ENDP ; std::_Advance<std::_Vector_iterator<std::_Vector_val<QuestCompleteData *,std::allocator<QuestCompleteData *> > >,int>
_TEXT	ENDS
PUBLIC	??$_Uninitialized_move@PAPAVQuestData@@PAPAV1@V?$allocator@PAVQuestData@@@std@@@std@@YAPAPAVQuestData@@PAPAV1@00AAV?$allocator@PAVQuestData@@@0@@Z ; std::_Uninitialized_move<QuestData * *,QuestData * *,std::allocator<QuestData *> >
; Function compile flags: /Ogsp
; File c:\program files (x86)\microsoft visual studio 10.0\vc\include\memory
;	COMDAT ??$_Uninitialized_move@PAPAVQuestData@@PAPAV1@V?$allocator@PAVQuestData@@@std@@@std@@YAPAPAVQuestData@@PAPAV1@00AAV?$allocator@PAVQuestData@@@0@@Z
_TEXT	SEGMENT
__First$ = 8						; size = 4
__Last$ = 12						; size = 4
__Dest$ = 16						; size = 4
__Al$ = 20						; size = 4
??$_Uninitialized_move@PAPAVQuestData@@PAPAV1@V?$allocator@PAVQuestData@@@std@@@std@@YAPAPAVQuestData@@PAPAV1@00AAV?$allocator@PAVQuestData@@@0@@Z PROC ; std::_Uninitialized_move<QuestData * *,QuestData * *,std::allocator<QuestData *> >, COMDAT

; 469  : 	{	// move [_First, _Last) to raw _Dest, using _Al

  00000	55		 push	 ebp
  00001	8b ec		 mov	 ebp, esp
  00003	56		 push	 esi

; 470  : 	return (_Uninit_move(_First, _Last, _Dest, _Al,
; 471  : 		_Val_type(_First), _Ptr_cat(_First, _Dest)));

  00004	8b 75 0c	 mov	 esi, DWORD PTR __Last$[ebp]
  00007	2b 75 08	 sub	 esi, DWORD PTR __First$[ebp]
  0000a	c1 fe 02	 sar	 esi, 2
  0000d	c1 e6 02	 shl	 esi, 2
  00010	56		 push	 esi
  00011	ff 75 08	 push	 DWORD PTR __First$[ebp]
  00014	ff 75 10	 push	 DWORD PTR __Dest$[ebp]
  00017	ff 15 00 00 00
	00		 call	 DWORD PTR __imp__memmove
  0001d	83 c4 0c	 add	 esp, 12			; 0000000cH
  00020	03 c6		 add	 eax, esi
  00022	5e		 pop	 esi

; 472  : 	}

  00023	5d		 pop	 ebp
  00024	c3		 ret	 0
??$_Uninitialized_move@PAPAVQuestData@@PAPAV1@V?$allocator@PAVQuestData@@@std@@@std@@YAPAPAVQuestData@@PAPAV1@00AAV?$allocator@PAVQuestData@@@0@@Z ENDP ; std::_Uninitialized_move<QuestData * *,QuestData * *,std::allocator<QuestData *> >
_TEXT	ENDS
PUBLIC	??$_Uninitialized_move@PAPAVQuestCompleteData@@PAPAV1@V?$allocator@PAVQuestCompleteData@@@std@@@std@@YAPAPAVQuestCompleteData@@PAPAV1@00AAV?$allocator@PAVQuestCompleteData@@@0@@Z ; std::_Uninitialized_move<QuestCompleteData * *,QuestCompleteData * *,std::allocator<QuestCompleteData *> >
; Function compile flags: /Ogsp
;	COMDAT ??$_Uninitialized_move@PAPAVQuestCompleteData@@PAPAV1@V?$allocator@PAVQuestCompleteData@@@std@@@std@@YAPAPAVQuestCompleteData@@PAPAV1@00AAV?$allocator@PAVQuestCompleteData@@@0@@Z
_TEXT	SEGMENT
__First$ = 8						; size = 4
__Last$ = 12						; size = 4
__Dest$ = 16						; size = 4
__Al$ = 20						; size = 4
??$_Uninitialized_move@PAPAVQuestCompleteData@@PAPAV1@V?$allocator@PAVQuestCompleteData@@@std@@@std@@YAPAPAVQuestCompleteData@@PAPAV1@00AAV?$allocator@PAVQuestCompleteData@@@0@@Z PROC ; std::_Uninitialized_move<QuestCompleteData * *,QuestCompleteData * *,std::allocator<QuestCompleteData *> >, COMDAT

; 469  : 	{	// move [_First, _Last) to raw _Dest, using _Al

  00000	55		 push	 ebp
  00001	8b ec		 mov	 ebp, esp
  00003	56		 push	 esi

; 470  : 	return (_Uninit_move(_First, _Last, _Dest, _Al,
; 471  : 		_Val_type(_First), _Ptr_cat(_First, _Dest)));

  00004	8b 75 0c	 mov	 esi, DWORD PTR __Last$[ebp]
  00007	2b 75 08	 sub	 esi, DWORD PTR __First$[ebp]
  0000a	c1 fe 02	 sar	 esi, 2
  0000d	c1 e6 02	 shl	 esi, 2
  00010	56		 push	 esi
  00011	ff 75 08	 push	 DWORD PTR __First$[ebp]
  00014	ff 75 10	 push	 DWORD PTR __Dest$[ebp]
  00017	ff 15 00 00 00
	00		 call	 DWORD PTR __imp__memmove
  0001d	83 c4 0c	 add	 esp, 12			; 0000000cH
  00020	03 c6		 add	 eax, esi
  00022	5e		 pop	 esi

; 472  : 	}

  00023	5d		 pop	 ebp
  00024	c3		 ret	 0
??$_Uninitialized_move@PAPAVQuestCompleteData@@PAPAV1@V?$allocator@PAVQuestCompleteData@@@std@@@std@@YAPAPAVQuestCompleteData@@PAPAV1@00AAV?$allocator@PAVQuestCompleteData@@@0@@Z ENDP ; std::_Uninitialized_move<QuestCompleteData * *,QuestCompleteData * *,std::allocator<QuestCompleteData *> >
_TEXT	ENDS
PUBLIC	??RQuestDataSort@@QBE_NPBVQuestData@@0@Z	; QuestDataSort::operator()
; Function compile flags: /Ogsp
; File d:\lost saga for developer\youtube\tutorial\source\src\lsclient\ioquest.h
;	COMDAT ??RQuestDataSort@@QBE_NPBVQuestData@@0@Z
_TEXT	SEGMENT
_lhs$ = 8						; size = 4
_rhs$ = 12						; size = 4
??RQuestDataSort@@QBE_NPBVQuestData@@0@Z PROC		; QuestDataSort::operator(), COMDAT
; _this$ = ecx

; 100  : 	{

  00000	55		 push	 ebp
  00001	8b ec		 mov	 ebp, esp

; 101  : 		if( !lhs || !rhs )

  00003	8b 4d 08	 mov	 ecx, DWORD PTR _lhs$[ebp]
  00006	53		 push	 ebx
  00007	56		 push	 esi
  00008	85 c9		 test	 ecx, ecx
  0000a	74 51		 je	 SHORT $LN5@operator
  0000c	8b 5d 0c	 mov	 ebx, DWORD PTR _rhs$[ebp]
  0000f	85 db		 test	 ebx, ebx
  00011	74 4a		 je	 SHORT $LN5@operator

; 103  : 
; 104  : 		if( lhs->GetPerformType() > rhs->GetPerformType() )

  00013	8b 51 0c	 mov	 edx, DWORD PTR [ecx+12]
  00016	57		 push	 edi
  00017	85 d2		 test	 edx, edx
  00019	75 04		 jne	 SHORT $LN9@operator
  0001b	33 ff		 xor	 edi, edi
  0001d	eb 03		 jmp	 SHORT $LN10@operator
$LN9@operator:
  0001f	8b 7a 14	 mov	 edi, DWORD PTR [edx+20]
$LN10@operator:
  00022	8b 43 0c	 mov	 eax, DWORD PTR [ebx+12]
  00025	85 c0		 test	 eax, eax
  00027	75 04		 jne	 SHORT $LN14@operator
  00029	33 f6		 xor	 esi, esi
  0002b	eb 03		 jmp	 SHORT $LN15@operator
$LN14@operator:
  0002d	8b 70 14	 mov	 esi, DWORD PTR [eax+20]
$LN15@operator:
  00030	3b fe		 cmp	 edi, esi
  00032	5f		 pop	 edi
  00033	7e 04		 jle	 SHORT $LN4@operator
$LN29@operator:

; 105  : 			return true;

  00035	b0 01		 mov	 al, 1
  00037	eb 26		 jmp	 SHORT $LN7@operator
$LN4@operator:

; 106  : 		else if( lhs->GetPerformType() == rhs->GetPerformType() )

  00039	85 d2		 test	 edx, edx
  0003b	74 03		 je	 SHORT $LN20@operator
$LN19@operator:
  0003d	8b 52 14	 mov	 edx, DWORD PTR [edx+20]
$LN20@operator:
  00040	85 c0		 test	 eax, eax
  00042	74 03		 je	 SHORT $LN25@operator
$LN24@operator:
  00044	8b 40 14	 mov	 eax, DWORD PTR [eax+20]
$LN25@operator:
  00047	3b d0		 cmp	 edx, eax
  00049	75 12		 jne	 SHORT $LN5@operator

; 107  : 		{
; 108  : 			if( lhs->GetDateData() > rhs->GetDateData() )

  0004b	8b 01		 mov	 eax, DWORD PTR [ecx]
  0004d	ff 50 04	 call	 DWORD PTR [eax+4]
  00050	8b f0		 mov	 esi, eax
  00052	8b 03		 mov	 eax, DWORD PTR [ebx]
  00054	8b cb		 mov	 ecx, ebx
  00056	ff 50 04	 call	 DWORD PTR [eax+4]
  00059	3b f0		 cmp	 esi, eax

; 109  : 			{
; 110  : 				return true;

  0005b	77 d8		 ja	 SHORT $LN29@operator
$LN5@operator:

; 102  : 			return false;

  0005d	32 c0		 xor	 al, al
$LN7@operator:
  0005f	5e		 pop	 esi
  00060	5b		 pop	 ebx

; 111  : 			}
; 112  : 		}				
; 113  : 		return false;
; 114  : 	}

  00061	5d		 pop	 ebp
  00062	c2 08 00	 ret	 8
??RQuestDataSort@@QBE_NPBVQuestData@@0@Z ENDP		; QuestDataSort::operator()
_TEXT	ENDS
PUBLIC	??RQuestCompleteDataSort@@QBE_NPBVQuestCompleteData@@0@Z ; QuestCompleteDataSort::operator()
; Function compile flags: /Ogsp
;	COMDAT ??RQuestCompleteDataSort@@QBE_NPBVQuestCompleteData@@0@Z
_TEXT	SEGMENT
_lhs$ = 8						; size = 4
_rhs$ = 12						; size = 4
??RQuestCompleteDataSort@@QBE_NPBVQuestCompleteData@@0@Z PROC ; QuestCompleteDataSort::operator(), COMDAT
; _this$ = ecx

; 132  : 	{

  00000	55		 push	 ebp
  00001	8b ec		 mov	 ebp, esp

; 133  : 		if( !lhs || !rhs )

  00003	8b 4d 08	 mov	 ecx, DWORD PTR _lhs$[ebp]
  00006	53		 push	 ebx
  00007	56		 push	 esi
  00008	85 c9		 test	 ecx, ecx
  0000a	74 51		 je	 SHORT $LN5@operator@2
  0000c	8b 5d 0c	 mov	 ebx, DWORD PTR _rhs$[ebp]
  0000f	85 db		 test	 ebx, ebx
  00011	74 4a		 je	 SHORT $LN5@operator@2

; 135  : 
; 136  : 		if( lhs->GetPerformType() > rhs->GetPerformType() )

  00013	8b 51 0c	 mov	 edx, DWORD PTR [ecx+12]
  00016	57		 push	 edi
  00017	85 d2		 test	 edx, edx
  00019	75 04		 jne	 SHORT $LN9@operator@2
  0001b	33 ff		 xor	 edi, edi
  0001d	eb 03		 jmp	 SHORT $LN10@operator@2
$LN9@operator@2:
  0001f	8b 7a 14	 mov	 edi, DWORD PTR [edx+20]
$LN10@operator@2:
  00022	8b 43 0c	 mov	 eax, DWORD PTR [ebx+12]
  00025	85 c0		 test	 eax, eax
  00027	75 04		 jne	 SHORT $LN14@operator@2
  00029	33 f6		 xor	 esi, esi
  0002b	eb 03		 jmp	 SHORT $LN15@operator@2
$LN14@operator@2:
  0002d	8b 70 14	 mov	 esi, DWORD PTR [eax+20]
$LN15@operator@2:
  00030	3b fe		 cmp	 edi, esi
  00032	5f		 pop	 edi
  00033	7e 04		 jle	 SHORT $LN4@operator@2
$LN29@operator@2:

; 137  : 			return true;

  00035	b0 01		 mov	 al, 1
  00037	eb 26		 jmp	 SHORT $LN7@operator@2
$LN4@operator@2:

; 138  : 		else if( lhs->GetPerformType() == rhs->GetPerformType() )

  00039	85 d2		 test	 edx, edx
  0003b	74 03		 je	 SHORT $LN20@operator@2
$LN19@operator@2:
  0003d	8b 52 14	 mov	 edx, DWORD PTR [edx+20]
$LN20@operator@2:
  00040	85 c0		 test	 eax, eax
  00042	74 03		 je	 SHORT $LN25@operator@2
$LN24@operator@2:
  00044	8b 40 14	 mov	 eax, DWORD PTR [eax+20]
$LN25@operator@2:
  00047	3b d0		 cmp	 edx, eax
  00049	75 12		 jne	 SHORT $LN5@operator@2

; 139  : 		{
; 140  : 			if( lhs->GetDateData() > rhs->GetDateData() )

  0004b	8b 01		 mov	 eax, DWORD PTR [ecx]
  0004d	ff 50 04	 call	 DWORD PTR [eax+4]
  00050	8b f0		 mov	 esi, eax
  00052	8b 03		 mov	 eax, DWORD PTR [ebx]
  00054	8b cb		 mov	 ecx, ebx
  00056	ff 50 04	 call	 DWORD PTR [eax+4]
  00059	3b f0		 cmp	 esi, eax

; 141  : 			{
; 142  : 				return true;

  0005b	77 d8		 ja	 SHORT $LN29@operator@2
$LN5@operator@2:

; 134  : 			return false;

  0005d	32 c0		 xor	 al, al
$LN7@operator@2:
  0005f	5e		 pop	 esi
  00060	5b		 pop	 ebx

; 143  : 			}				
; 144  : 		}
; 145  : 		return false;
; 146  : 	}

  00061	5d		 pop	 ebp
  00062	c2 08 00	 ret	 8
??RQuestCompleteDataSort@@QBE_NPBVQuestCompleteData@@0@Z ENDP ; QuestCompleteDataSort::operator()
_TEXT	ENDS
PUBLIC	??0?$CEncrypt@K@@QAE@XZ				; CEncrypt<unsigned long>::CEncrypt<unsigned long>
EXTRN	??0ccddaabb@@QAE@XZ:PROC			; ccddaabb::ccddaabb
;	COMDAT xdata$x
; File d:\lost saga for developer\youtube\tutorial\source\src\lsclient\encryptvalue.h
xdata$x	SEGMENT
__unwindtable$??0?$CEncrypt@K@@QAE@XZ DD 0ffffffffH
	DD	FLAT:__unwindfunclet$??0?$CEncrypt@K@@QAE@XZ$0
__ehfuncinfo$??0?$CEncrypt@K@@QAE@XZ DD 019930522H
	DD	01H
	DD	FLAT:__unwindtable$??0?$CEncrypt@K@@QAE@XZ
	DD	2 DUP(00H)
	DD	2 DUP(00H)
	DD	00H
	DD	01H
; Function compile flags: /Ogsp
xdata$x	ENDS
;	COMDAT ??0?$CEncrypt@K@@QAE@XZ
_TEXT	SEGMENT
_this$ = -16						; size = 4
__$EHRec$ = -12						; size = 12
??0?$CEncrypt@K@@QAE@XZ PROC				; CEncrypt<unsigned long>::CEncrypt<unsigned long>, COMDAT
; _this$ = ecx

; 109  : 	CEncrypt()

  00000	6a 04		 push	 4
  00002	b8 00 00 00 00	 mov	 eax, __ehhandler$??0?$CEncrypt@K@@QAE@XZ
  00007	e8 00 00 00 00	 call	 __EH_prolog3
  0000c	8b f1		 mov	 esi, ecx
  0000e	89 75 f0	 mov	 DWORD PTR _this$[ebp], esi
  00011	8d 4e 0c	 lea	 ecx, DWORD PTR [esi+12]
  00014	c7 06 00 00 00
	00		 mov	 DWORD PTR [esi], OFFSET ??_7?$CEncrypt@K@@6B@
  0001a	e8 00 00 00 00	 call	 ??0ccddaabb@@QAE@XZ	; ccddaabb::ccddaabb
  0001f	83 65 fc 00	 and	 DWORD PTR __$EHRec$[ebp+8], 0

; 110  : 	{
; 111  : 		Init();

  00023	8b ce		 mov	 ecx, esi
  00025	e8 00 00 00 00	 call	 ?Init@?$CEncrypt@K@@AAEXXZ ; CEncrypt<unsigned long>::Init

; 112  : 	}

  0002a	8b c6		 mov	 eax, esi
  0002c	e8 00 00 00 00	 call	 __EH_epilog3
  00031	c3		 ret	 0
_TEXT	ENDS
;	COMDAT text$x
text$x	SEGMENT
__unwindfunclet$??0?$CEncrypt@K@@QAE@XZ$0:
  00000	8b 4d f0	 mov	 ecx, DWORD PTR _this$[ebp]
  00003	83 c1 0c	 add	 ecx, 12			; 0000000cH
  00006	e9 00 00 00 00	 jmp	 ??1ccddaabb@@UAE@XZ	; ccddaabb::~ccddaabb
__ehhandler$??0?$CEncrypt@K@@QAE@XZ:
  0000b	8b 54 24 08	 mov	 edx, DWORD PTR [esp+8]
  0000f	8d 42 0c	 lea	 eax, DWORD PTR [edx+12]
  00012	8b 4a ec	 mov	 ecx, DWORD PTR [edx-20]
  00015	33 c8		 xor	 ecx, eax
  00017	e8 00 00 00 00	 call	 @__security_check_cookie@4
  0001c	b8 00 00 00 00	 mov	 eax, OFFSET __ehfuncinfo$??0?$CEncrypt@K@@QAE@XZ
  00021	e9 00 00 00 00	 jmp	 ___CxxFrameHandler3
text$x	ENDS
??0?$CEncrypt@K@@QAE@XZ ENDP				; CEncrypt<unsigned long>::CEncrypt<unsigned long>
PUBLIC	??B?$CEncrypt@K@@QAEKXZ				; CEncrypt<unsigned long>::operator unsigned long
; Function compile flags: /Ogsp
;	COMDAT ??B?$CEncrypt@K@@QAEKXZ
_TEXT	SEGMENT
_value$ = -4						; size = 4
??B?$CEncrypt@K@@QAEKXZ PROC				; CEncrypt<unsigned long>::operator unsigned long, COMDAT
; _this$ = ecx

; 134  : 	{

  00000	55		 push	 ebp
  00001	8b ec		 mov	 ebp, esp
  00003	51		 push	 ecx

; 135  : 		type value;
; 136  : 		DecryptValueToPool(&value);

  00004	8d 45 fc	 lea	 eax, DWORD PTR _value$[ebp]
  00007	50		 push	 eax
  00008	e8 00 00 00 00	 call	 ?DecryptValueToPool@?$CEncrypt@K@@QAEXPAK@Z ; CEncrypt<unsigned long>::DecryptValueToPool

; 137  : 
; 138  : #ifdef _NOTUSE
; 139  : 		Debug();
; 140  : #endif
; 141  : 		return value;

  0000d	8b 45 fc	 mov	 eax, DWORD PTR _value$[ebp]

; 142  : 	}

  00010	c9		 leave
  00011	c3		 ret	 0
??B?$CEncrypt@K@@QAEKXZ ENDP				; CEncrypt<unsigned long>::operator unsigned long
_TEXT	ENDS
PUBLIC	??B?$CEncrypt@K@@QBEKXZ				; CEncrypt<unsigned long>::operator unsigned long
; Function compile flags: /Ogsp
;	COMDAT ??B?$CEncrypt@K@@QBEKXZ
_TEXT	SEGMENT
_value$ = -4						; size = 4
??B?$CEncrypt@K@@QBEKXZ PROC				; CEncrypt<unsigned long>::operator unsigned long, COMDAT
; _this$ = ecx

; 145  : 	{

  00000	55		 push	 ebp
  00001	8b ec		 mov	 ebp, esp
  00003	51		 push	 ecx

; 146  : 		//UJ 130829, const도 똑같이 하면 된다 --start
; 147  : 		type value;
; 148  : 		CEncrypt<type>* pThis = const_cast<CEncrypt<type>*>(this);
; 149  : 		pThis->DecryptValueToPool(&value);

  00004	8d 45 fc	 lea	 eax, DWORD PTR _value$[ebp]
  00007	50		 push	 eax
  00008	e8 00 00 00 00	 call	 ?DecryptValueToPool@?$CEncrypt@K@@QAEXPAK@Z ; CEncrypt<unsigned long>::DecryptValueToPool

; 150  : 		//// const에서 DecryptValueToPool 사용할 수 없으므로 아래와 같이함.
; 151  :  		//type value;
; 152  : 		//char szTempMem[MAX_ENCRYPT];
; 153  : 		//m_RC5.DecryptByte( m_MemPool, szTempMem, max(m_ValueSize, DEFAULT_ENCRYPT) );
; 154  : 		//memcpy( &value, szTempMem, m_ValueSize );
; 155  : 		//UJ --end
; 156  : 
; 157  : #ifdef _NOTUSE
; 158  : 		Debug();
; 159  : #endif
; 160  : 		return value;

  0000d	8b 45 fc	 mov	 eax, DWORD PTR _value$[ebp]

; 161  : 	}

  00010	c9		 leave
  00011	c3		 ret	 0
??B?$CEncrypt@K@@QBEKXZ ENDP				; CEncrypt<unsigned long>::operator unsigned long
_TEXT	ENDS
PUBLIC	??4?$CEncrypt@K@@QAEKH@Z			; CEncrypt<unsigned long>::operator=
; Function compile flags: /Ogsp
;	COMDAT ??4?$CEncrypt@K@@QAEKH@Z
_TEXT	SEGMENT
_value$ = 8						; size = 4
_inValue$ = 8						; size = 4
??4?$CEncrypt@K@@QAEKH@Z PROC				; CEncrypt<unsigned long>::operator=, COMDAT
; _this$ = ecx

; 843  : 	{

  00000	55		 push	 ebp
  00001	8b ec		 mov	 ebp, esp

; 844  : 		type value = inValue;

  00003	8b 45 08	 mov	 eax, DWORD PTR _inValue$[ebp]
  00006	89 45 08	 mov	 DWORD PTR _value$[ebp], eax

; 845  : 		EncryptValueToPool((char*)&value);

  00009	8d 45 08	 lea	 eax, DWORD PTR _value$[ebp]
  0000c	50		 push	 eax
  0000d	e8 00 00 00 00	 call	 ?EncryptValueToPool@?$CEncrypt@K@@AAEXPBD@Z ; CEncrypt<unsigned long>::EncryptValueToPool

; 846  : #ifdef _NOTUSE
; 847  : 		m_value = inValue;
; 848  : 		Debug();
; 849  : #endif
; 850  : 		return value;

  00012	8b 45 08	 mov	 eax, DWORD PTR _value$[ebp]

; 851  : 	}

  00015	5d		 pop	 ebp
  00016	c2 04 00	 ret	 4
??4?$CEncrypt@K@@QAEKH@Z ENDP				; CEncrypt<unsigned long>::operator=
_TEXT	ENDS
PUBLIC	??4?$CEncrypt@K@@QAEKK@Z			; CEncrypt<unsigned long>::operator=
; Function compile flags: /Ogsp
;	COMDAT ??4?$CEncrypt@K@@QAEKK@Z
_TEXT	SEGMENT
_value$ = 8						; size = 4
_inValue$ = 8						; size = 4
??4?$CEncrypt@K@@QAEKK@Z PROC				; CEncrypt<unsigned long>::operator=, COMDAT
; _this$ = ecx

; 1262 : 	{

  00000	55		 push	 ebp
  00001	8b ec		 mov	 ebp, esp

; 1263 : 		
; 1264 : 		type value = inValue;

  00003	8b 45 08	 mov	 eax, DWORD PTR _inValue$[ebp]
  00006	89 45 08	 mov	 DWORD PTR _value$[ebp], eax

; 1265 : 		EncryptValueToPool((char*)&value);

  00009	8d 45 08	 lea	 eax, DWORD PTR _value$[ebp]
  0000c	50		 push	 eax
  0000d	e8 00 00 00 00	 call	 ?EncryptValueToPool@?$CEncrypt@K@@AAEXPBD@Z ; CEncrypt<unsigned long>::EncryptValueToPool

; 1266 : #ifdef _NOTUSE
; 1267 : 		m_value = inValue;
; 1268 : 		Debug();
; 1269 : #endif
; 1270 : 		return value;

  00012	8b 45 08	 mov	 eax, DWORD PTR _value$[ebp]

; 1271 : 	}

  00015	5d		 pop	 ebp
  00016	c2 04 00	 ret	 4
??4?$CEncrypt@K@@QAEKK@Z ENDP				; CEncrypt<unsigned long>::operator=
_TEXT	ENDS
PUBLIC	??0QuestData@@QAE@XZ				; QuestData::QuestData
;	COMDAT xdata$x
xdata$x	SEGMENT
__unwindtable$??0QuestData@@QAE@XZ DD 0ffffffffH
	DD	FLAT:__unwindfunclet$??0QuestData@@QAE@XZ$0
	DD	00H
	DD	FLAT:__unwindfunclet$??0QuestData@@QAE@XZ$1
__ehfuncinfo$??0QuestData@@QAE@XZ DD 019930522H
	DD	02H
	DD	FLAT:__unwindtable$??0QuestData@@QAE@XZ
	DD	2 DUP(00H)
	DD	2 DUP(00H)
	DD	00H
	DD	01H
; Function compile flags: /Ogsp
; File d:\lost saga for developer\youtube\tutorial\source\src\lsclient\ioquest.cpp
xdata$x	ENDS
;	COMDAT ??0QuestData@@QAE@XZ
_TEXT	SEGMENT
_this$ = -20						; size = 4
_value$509995 = -16					; size = 4
__$EHRec$ = -12						; size = 12
??0QuestData@@QAE@XZ PROC				; QuestData::QuestData, COMDAT
; _this$ = ecx

; 86   : {

  00000	6a 08		 push	 8
  00002	b8 00 00 00 00	 mov	 eax, __ehhandler$??0QuestData@@QAE@XZ
  00007	e8 00 00 00 00	 call	 __EH_prolog3
  0000c	8b f1		 mov	 esi, ecx
  0000e	89 75 ec	 mov	 DWORD PTR _this$[ebp], esi
  00011	33 db		 xor	 ebx, ebx
  00013	89 5e 08	 mov	 DWORD PTR [esi+8], ebx
  00016	89 5e 04	 mov	 DWORD PTR [esi+4], ebx
  00019	89 5e 0c	 mov	 DWORD PTR [esi+12], ebx
  0001c	8d 4e 10	 lea	 ecx, DWORD PTR [esi+16]
  0001f	89 5d fc	 mov	 DWORD PTR __$EHRec$[ebp+8], ebx
  00022	c7 06 00 00 00
	00		 mov	 DWORD PTR [esi], OFFSET ??_7QuestData@@6B@
  00028	e8 00 00 00 00	 call	 ??0?$CEncrypt@K@@QAE@XZ	; CEncrypt<unsigned long>::CEncrypt<unsigned long>

; 87   : 	m_dwValueData = 0;

  0002d	8d 45 f0	 lea	 eax, DWORD PTR _value$509995[ebp]
  00030	50		 push	 eax
  00031	8d 4e 10	 lea	 ecx, DWORD PTR [esi+16]
  00034	c6 45 fc 01	 mov	 BYTE PTR __$EHRec$[ebp+8], 1
  00038	89 5d f0	 mov	 DWORD PTR _value$509995[ebp], ebx
  0003b	e8 00 00 00 00	 call	 ?EncryptValueToPool@?$CEncrypt@K@@AAEXPBD@Z ; CEncrypt<unsigned long>::EncryptValueToPool

; 88   : 	m_dwIndexData = m_dwMagicData = m_dwDateData = 0;

  00040	89 5e 08	 mov	 DWORD PTR [esi+8], ebx
  00043	89 5e 40	 mov	 DWORD PTR [esi+64], ebx
  00046	89 5e 04	 mov	 DWORD PTR [esi+4], ebx

; 89   : 	m_pLinkQuest = NULL;

  00049	89 5e 0c	 mov	 DWORD PTR [esi+12], ebx

; 90   : 	m_bChangeData = false;

  0004c	88 5e 44	 mov	 BYTE PTR [esi+68], bl

; 91   : }

  0004f	8b c6		 mov	 eax, esi
  00051	e8 00 00 00 00	 call	 __EH_epilog3
  00056	c3		 ret	 0
_TEXT	ENDS
;	COMDAT text$x
text$x	SEGMENT
__unwindfunclet$??0QuestData@@QAE@XZ$0:
  00000	8b 4d ec	 mov	 ecx, DWORD PTR _this$[ebp]
  00003	e9 00 00 00 00	 jmp	 ??1QuestDataParent@@UAE@XZ ; QuestDataParent::~QuestDataParent
__unwindfunclet$??0QuestData@@QAE@XZ$1:
  00008	8b 4d ec	 mov	 ecx, DWORD PTR _this$[ebp]
  0000b	83 c1 10	 add	 ecx, 16			; 00000010H
  0000e	e9 00 00 00 00	 jmp	 ??1?$CEncrypt@K@@UAE@XZ	; CEncrypt<unsigned long>::~CEncrypt<unsigned long>
__ehhandler$??0QuestData@@QAE@XZ:
  00013	8b 54 24 08	 mov	 edx, DWORD PTR [esp+8]
  00017	8d 42 0c	 lea	 eax, DWORD PTR [edx+12]
  0001a	8b 4a e8	 mov	 ecx, DWORD PTR [edx-24]
  0001d	33 c8		 xor	 ecx, eax
  0001f	e8 00 00 00 00	 call	 @__security_check_cookie@4
  00024	b8 00 00 00 00	 mov	 eax, OFFSET __ehfuncinfo$??0QuestData@@QAE@XZ
  00029	e9 00 00 00 00	 jmp	 ___CxxFrameHandler3
text$x	ENDS
??0QuestData@@QAE@XZ ENDP				; QuestData::QuestData
; Function compile flags: /Ogsp
;	COMDAT ??_GQuestData@@UAEPAXI@Z
_TEXT	SEGMENT
___flags$ = 8						; size = 4
??_GQuestData@@UAEPAXI@Z PROC				; QuestData::`scalar deleting destructor', COMDAT
; _this$ = ecx
  00000	55		 push	 ebp
  00001	8b ec		 mov	 ebp, esp
  00003	56		 push	 esi
  00004	8b f1		 mov	 esi, ecx
  00006	e8 00 00 00 00	 call	 ??1QuestData@@UAE@XZ	; QuestData::~QuestData
  0000b	f6 45 08 01	 test	 BYTE PTR ___flags$[ebp], 1
  0000f	74 07		 je	 SHORT $LN1@scalar@5
  00011	56		 push	 esi
  00012	e8 00 00 00 00	 call	 ??3@YAXPAX@Z		; operator delete
  00017	59		 pop	 ecx
$LN1@scalar@5:
  00018	8b c6		 mov	 eax, esi
  0001a	5e		 pop	 esi
  0001b	5d		 pop	 ebp
  0001c	c2 04 00	 ret	 4
??_GQuestData@@UAEPAXI@Z ENDP				; QuestData::`scalar deleting destructor'
_TEXT	ENDS
PUBLIC	?GetCurrentData@QuestData@@QAEKXZ		; QuestData::GetCurrentData
; Function compile flags: /Ogsp
;	COMDAT ?GetCurrentData@QuestData@@QAEKXZ
_TEXT	SEGMENT
_value$510009 = -4					; size = 4
?GetCurrentData@QuestData@@QAEKXZ PROC			; QuestData::GetCurrentData, COMDAT
; _this$ = ecx

; 99   : {

  00000	55		 push	 ebp
  00001	8b ec		 mov	 ebp, esp
  00003	51		 push	 ecx

; 100  : 	return m_dwValueData;

  00004	8d 45 fc	 lea	 eax, DWORD PTR _value$510009[ebp]
  00007	50		 push	 eax
  00008	83 c1 10	 add	 ecx, 16			; 00000010H
  0000b	e8 00 00 00 00	 call	 ?DecryptValueToPool@?$CEncrypt@K@@QAEXPAK@Z ; CEncrypt<unsigned long>::DecryptValueToPool
  00010	8b 45 fc	 mov	 eax, DWORD PTR _value$510009[ebp]

; 101  : }

  00013	c9		 leave
  00014	c3		 ret	 0
?GetCurrentData@QuestData@@QAEKXZ ENDP			; QuestData::GetCurrentData
_TEXT	ENDS
PUBLIC	?SetCurrentData@QuestData@@QAEXK@Z		; QuestData::SetCurrentData
; Function compile flags: /Ogsp
;	COMDAT ?SetCurrentData@QuestData@@QAEXK@Z
_TEXT	SEGMENT
_value$510015 = 8					; size = 4
_dwCurrentData$ = 8					; size = 4
?SetCurrentData@QuestData@@QAEXK@Z PROC			; QuestData::SetCurrentData, COMDAT
; _this$ = ecx

; 133  : {

  00000	55		 push	 ebp
  00001	8b ec		 mov	 ebp, esp
  00003	53		 push	 ebx
  00004	56		 push	 esi
  00005	57		 push	 edi
  00006	8b f1		 mov	 esi, ecx

; 134  : 	DWORD dwPrevData = GetCurrentData();

  00008	e8 00 00 00 00	 call	 ?GetCurrentData@QuestData@@QAEKXZ ; QuestData::GetCurrentData

; 135  : 	m_dwValueData = dwCurrentData;

  0000d	8b 7d 08	 mov	 edi, DWORD PTR _dwCurrentData$[ebp]
  00010	8b d8		 mov	 ebx, eax
  00012	8d 45 08	 lea	 eax, DWORD PTR _value$510015[ebp]
  00015	50		 push	 eax
  00016	8d 4e 10	 lea	 ecx, DWORD PTR [esi+16]
  00019	89 7d 08	 mov	 DWORD PTR _value$510015[ebp], edi
  0001c	e8 00 00 00 00	 call	 ?EncryptValueToPool@?$CEncrypt@K@@AAEXPBD@Z ; CEncrypt<unsigned long>::EncryptValueToPool

; 136  : 
; 137  : 	if( dwCurrentData != dwPrevData )

  00021	3b fb		 cmp	 edi, ebx
  00023	74 04		 je	 SHORT $LN1@SetCurrent@2

; 138  : 		m_bChangeData = true;

  00025	c6 46 44 01	 mov	 BYTE PTR [esi+68], 1
$LN1@SetCurrent@2:
  00029	5f		 pop	 edi
  0002a	5e		 pop	 esi
  0002b	5b		 pop	 ebx

; 139  : }

  0002c	5d		 pop	 ebp
  0002d	c2 04 00	 ret	 4
?SetCurrentData@QuestData@@QAEXK@Z ENDP			; QuestData::SetCurrentData
_TEXT	ENDS
PUBLIC	??0?$CEncrypt@K@@QAE@ABV0@@Z			; CEncrypt<unsigned long>::CEncrypt<unsigned long>
;	COMDAT xdata$x
; File d:\lost saga for developer\youtube\tutorial\source\src\lsclient\encryptvalue.h
xdata$x	SEGMENT
__unwindtable$??0?$CEncrypt@K@@QAE@ABV0@@Z DD 0ffffffffH
	DD	FLAT:__unwindfunclet$??0?$CEncrypt@K@@QAE@ABV0@@Z$0
__ehfuncinfo$??0?$CEncrypt@K@@QAE@ABV0@@Z DD 019930522H
	DD	01H
	DD	FLAT:__unwindtable$??0?$CEncrypt@K@@QAE@ABV0@@Z
	DD	2 DUP(00H)
	DD	2 DUP(00H)
	DD	00H
	DD	01H
; Function compile flags: /Ogsp
xdata$x	ENDS
;	COMDAT ??0?$CEncrypt@K@@QAE@ABV0@@Z
_TEXT	SEGMENT
_this$ = -16						; size = 4
__$EHRec$ = -12						; size = 12
_value$510027 = 8					; size = 4
_value$510022 = 8					; size = 4
_inValue$ = 8						; size = 4
??0?$CEncrypt@K@@QAE@ABV0@@Z PROC			; CEncrypt<unsigned long>::CEncrypt<unsigned long>, COMDAT
; _this$ = ecx

; 120  : 	CEncrypt( const CEncrypt<type> &inValue )   // 선언과 동시에 값을 대입하기 위해서

  00000	6a 04		 push	 4
  00002	b8 00 00 00 00	 mov	 eax, __ehhandler$??0?$CEncrypt@K@@QAE@ABV0@@Z
  00007	e8 00 00 00 00	 call	 __EH_prolog3
  0000c	8b f1		 mov	 esi, ecx
  0000e	89 75 f0	 mov	 DWORD PTR _this$[ebp], esi
  00011	8d 4e 0c	 lea	 ecx, DWORD PTR [esi+12]
  00014	c7 06 00 00 00
	00		 mov	 DWORD PTR [esi], OFFSET ??_7?$CEncrypt@K@@6B@
  0001a	e8 00 00 00 00	 call	 ??0ccddaabb@@QAE@XZ	; ccddaabb::ccddaabb
  0001f	83 65 fc 00	 and	 DWORD PTR __$EHRec$[ebp+8], 0

; 121  : 	{
; 122  : 		Init();

  00023	8b ce		 mov	 ecx, esi
  00025	e8 00 00 00 00	 call	 ?Init@?$CEncrypt@K@@AAEXXZ ; CEncrypt<unsigned long>::Init

; 123  : 		*this = inValue;

  0002a	8b 4d 08	 mov	 ecx, DWORD PTR _inValue$[ebp]
  0002d	8d 45 08	 lea	 eax, DWORD PTR _value$510022[ebp]
  00030	50		 push	 eax
  00031	e8 00 00 00 00	 call	 ?DecryptValueToPool@?$CEncrypt@K@@QAEXPAK@Z ; CEncrypt<unsigned long>::DecryptValueToPool
  00036	8b 45 08	 mov	 eax, DWORD PTR _value$510022[ebp]
  00039	89 45 08	 mov	 DWORD PTR _value$510027[ebp], eax
  0003c	8d 45 08	 lea	 eax, DWORD PTR _value$510027[ebp]
  0003f	50		 push	 eax
  00040	8b ce		 mov	 ecx, esi
  00042	e8 00 00 00 00	 call	 ?EncryptValueToPool@?$CEncrypt@K@@AAEXPBD@Z ; CEncrypt<unsigned long>::EncryptValueToPool

; 124  : 	}

  00047	8b c6		 mov	 eax, esi
  00049	e8 00 00 00 00	 call	 __EH_epilog3
  0004e	c2 04 00	 ret	 4
_TEXT	ENDS
;	COMDAT text$x
text$x	SEGMENT
__unwindfunclet$??0?$CEncrypt@K@@QAE@ABV0@@Z$0:
  00000	8b 4d f0	 mov	 ecx, DWORD PTR _this$[ebp]
  00003	83 c1 0c	 add	 ecx, 12			; 0000000cH
  00006	e9 00 00 00 00	 jmp	 ??1ccddaabb@@UAE@XZ	; ccddaabb::~ccddaabb
__ehhandler$??0?$CEncrypt@K@@QAE@ABV0@@Z:
  0000b	8b 54 24 08	 mov	 edx, DWORD PTR [esp+8]
  0000f	8d 42 0c	 lea	 eax, DWORD PTR [edx+12]
  00012	8b 4a ec	 mov	 ecx, DWORD PTR [edx-20]
  00015	33 c8		 xor	 ecx, eax
  00017	e8 00 00 00 00	 call	 @__security_check_cookie@4
  0001c	b8 00 00 00 00	 mov	 eax, OFFSET __ehfuncinfo$??0?$CEncrypt@K@@QAE@ABV0@@Z
  00021	e9 00 00 00 00	 jmp	 ___CxxFrameHandler3
text$x	ENDS
??0?$CEncrypt@K@@QAE@ABV0@@Z ENDP			; CEncrypt<unsigned long>::CEncrypt<unsigned long>
PUBLIC	??4?$CEncrypt@K@@QAE_NAAV0@@Z			; CEncrypt<unsigned long>::operator=
; Function compile flags: /Ogsp
;	COMDAT ??4?$CEncrypt@K@@QAE_NAAV0@@Z
_TEXT	SEGMENT
_value$510040 = -4					; size = 4
_value$ = 8						; size = 4
_inValue$ = 8						; size = 4
??4?$CEncrypt@K@@QAE_NAAV0@@Z PROC			; CEncrypt<unsigned long>::operator=, COMDAT
; _this$ = ecx

; 3300 : 	 {

  00000	55		 push	 ebp
  00001	8b ec		 mov	 ebp, esp
  00003	51		 push	 ecx
  00004	56		 push	 esi

; 3301 : 		 type value = inValue;

  00005	8d 45 fc	 lea	 eax, DWORD PTR _value$510040[ebp]
  00008	8b f1		 mov	 esi, ecx
  0000a	8b 4d 08	 mov	 ecx, DWORD PTR _inValue$[ebp]
  0000d	50		 push	 eax
  0000e	e8 00 00 00 00	 call	 ?DecryptValueToPool@?$CEncrypt@K@@QAEXPAK@Z ; CEncrypt<unsigned long>::DecryptValueToPool
  00013	8b 45 fc	 mov	 eax, DWORD PTR _value$510040[ebp]
  00016	89 45 08	 mov	 DWORD PTR _value$[ebp], eax

; 3302 : 		 EncryptValueToPool((char*)&value);

  00019	8d 45 08	 lea	 eax, DWORD PTR _value$[ebp]
  0001c	50		 push	 eax
  0001d	8b ce		 mov	 ecx, esi
  0001f	e8 00 00 00 00	 call	 ?EncryptValueToPool@?$CEncrypt@K@@AAEXPBD@Z ; CEncrypt<unsigned long>::EncryptValueToPool

; 3303 : #ifdef _NOTUSE
; 3304 : 		 m_value = inValue;
; 3305 : 		 Debug();
; 3306 : #endif
; 3307 : 		 return value;

  00024	83 7d 08 00	 cmp	 DWORD PTR _value$[ebp], 0
  00028	5e		 pop	 esi
  00029	0f 95 c0	 setne	 al

; 3308 : 	 }

  0002c	c9		 leave
  0002d	c2 04 00	 ret	 4
??4?$CEncrypt@K@@QAE_NAAV0@@Z ENDP			; CEncrypt<unsigned long>::operator=
_TEXT	ENDS
PUBLIC	??0?$vector@PAVQuestData@@V?$allocator@PAVQuestData@@@std@@@std@@QAE@XZ ; std::vector<QuestData *,std::allocator<QuestData *> >::vector<QuestData *,std::allocator<QuestData *> >
; Function compile flags: /Ogsp
; File c:\program files (x86)\microsoft visual studio 10.0\vc\include\vector
;	COMDAT ??0?$vector@PAVQuestData@@V?$allocator@PAVQuestData@@@std@@@std@@QAE@XZ
_TEXT	SEGMENT
??0?$vector@PAVQuestData@@V?$allocator@PAVQuestData@@@std@@@std@@QAE@XZ PROC ; std::vector<QuestData *,std::allocator<QuestData *> >::vector<QuestData *,std::allocator<QuestData *> >, COMDAT
; _this$ = ecx

; 507  : 		{	// construct empty vector

  00000	8b c1		 mov	 eax, ecx
  00002	33 c9		 xor	 ecx, ecx
  00004	89 08		 mov	 DWORD PTR [eax], ecx
  00006	89 48 04	 mov	 DWORD PTR [eax+4], ecx
  00009	89 48 08	 mov	 DWORD PTR [eax+8], ecx

; 508  : 		}

  0000c	c3		 ret	 0
??0?$vector@PAVQuestData@@V?$allocator@PAVQuestData@@@std@@@std@@QAE@XZ ENDP ; std::vector<QuestData *,std::allocator<QuestData *> >::vector<QuestData *,std::allocator<QuestData *> >
_TEXT	ENDS
PUBLIC	?begin@?$vector@PAVQuestData@@V?$allocator@PAVQuestData@@@std@@@std@@QAE?AV?$_Vector_iterator@V?$_Vector_val@PAVQuestData@@V?$allocator@PAVQuestData@@@std@@@std@@@2@XZ ; std::vector<QuestData *,std::allocator<QuestData *> >::begin
; Function compile flags: /Ogsp
;	COMDAT ?begin@?$vector@PAVQuestData@@V?$allocator@PAVQuestData@@@std@@@std@@QAE?AV?$_Vector_iterator@V?$_Vector_val@PAVQuestData@@V?$allocator@PAVQuestData@@@std@@@std@@@2@XZ
_TEXT	SEGMENT
___$ReturnUdt$ = 8					; size = 4
?begin@?$vector@PAVQuestData@@V?$allocator@PAVQuestData@@@std@@@std@@QAE?AV?$_Vector_iterator@V?$_Vector_val@PAVQuestData@@V?$allocator@PAVQuestData@@@std@@@std@@@2@XZ PROC ; std::vector<QuestData *,std::allocator<QuestData *> >::begin, COMDAT
; _this$ = ecx

; 781  : 		{	// return iterator for beginning of mutable sequence

  00000	55		 push	 ebp
  00001	8b ec		 mov	 ebp, esp

; 782  : 		return (iterator(this->_Myfirst, this));

  00003	8b 09		 mov	 ecx, DWORD PTR [ecx]
  00005	8b 45 08	 mov	 eax, DWORD PTR ___$ReturnUdt$[ebp]
  00008	89 08		 mov	 DWORD PTR [eax], ecx

; 783  : 		}

  0000a	5d		 pop	 ebp
  0000b	c2 04 00	 ret	 4
?begin@?$vector@PAVQuestData@@V?$allocator@PAVQuestData@@@std@@@std@@QAE?AV?$_Vector_iterator@V?$_Vector_val@PAVQuestData@@V?$allocator@PAVQuestData@@@std@@@std@@@2@XZ ENDP ; std::vector<QuestData *,std::allocator<QuestData *> >::begin
_TEXT	ENDS
PUBLIC	?end@?$vector@PAVQuestData@@V?$allocator@PAVQuestData@@@std@@@std@@QAE?AV?$_Vector_iterator@V?$_Vector_val@PAVQuestData@@V?$allocator@PAVQuestData@@@std@@@std@@@2@XZ ; std::vector<QuestData *,std::allocator<QuestData *> >::end
; Function compile flags: /Ogsp
;	COMDAT ?end@?$vector@PAVQuestData@@V?$allocator@PAVQuestData@@@std@@@std@@QAE?AV?$_Vector_iterator@V?$_Vector_val@PAVQuestData@@V?$allocator@PAVQuestData@@@std@@@std@@@2@XZ
_TEXT	SEGMENT
___$ReturnUdt$ = 8					; size = 4
?end@?$vector@PAVQuestData@@V?$allocator@PAVQuestData@@@std@@@std@@QAE?AV?$_Vector_iterator@V?$_Vector_val@PAVQuestData@@V?$allocator@PAVQuestData@@@std@@@std@@@2@XZ PROC ; std::vector<QuestData *,std::allocator<QuestData *> >::end, COMDAT
; _this$ = ecx

; 791  : 		{	// return iterator for end of mutable sequence

  00000	55		 push	 ebp
  00001	8b ec		 mov	 ebp, esp

; 792  : 		return (iterator(this->_Mylast, this));

  00003	8b 49 04	 mov	 ecx, DWORD PTR [ecx+4]
  00006	8b 45 08	 mov	 eax, DWORD PTR ___$ReturnUdt$[ebp]
  00009	89 08		 mov	 DWORD PTR [eax], ecx

; 793  : 		}

  0000b	5d		 pop	 ebp
  0000c	c2 04 00	 ret	 4
?end@?$vector@PAVQuestData@@V?$allocator@PAVQuestData@@@std@@@std@@QAE?AV?$_Vector_iterator@V?$_Vector_val@PAVQuestData@@V?$allocator@PAVQuestData@@@std@@@std@@@2@XZ ENDP ; std::vector<QuestData *,std::allocator<QuestData *> >::end
_TEXT	ENDS
PUBLIC	??0?$vector@PAVQuestCompleteData@@V?$allocator@PAVQuestCompleteData@@@std@@@std@@QAE@XZ ; std::vector<QuestCompleteData *,std::allocator<QuestCompleteData *> >::vector<QuestCompleteData *,std::allocator<QuestCompleteData *> >
; Function compile flags: /Ogsp
;	COMDAT ??0?$vector@PAVQuestCompleteData@@V?$allocator@PAVQuestCompleteData@@@std@@@std@@QAE@XZ
_TEXT	SEGMENT
??0?$vector@PAVQuestCompleteData@@V?$allocator@PAVQuestCompleteData@@@std@@@std@@QAE@XZ PROC ; std::vector<QuestCompleteData *,std::allocator<QuestCompleteData *> >::vector<QuestCompleteData *,std::allocator<QuestCompleteData *> >, COMDAT
; _this$ = ecx

; 507  : 		{	// construct empty vector

  00000	8b c1		 mov	 eax, ecx
  00002	33 c9		 xor	 ecx, ecx
  00004	89 08		 mov	 DWORD PTR [eax], ecx
  00006	89 48 04	 mov	 DWORD PTR [eax+4], ecx
  00009	89 48 08	 mov	 DWORD PTR [eax+8], ecx

; 508  : 		}

  0000c	c3		 ret	 0
??0?$vector@PAVQuestCompleteData@@V?$allocator@PAVQuestCompleteData@@@std@@@std@@QAE@XZ ENDP ; std::vector<QuestCompleteData *,std::allocator<QuestCompleteData *> >::vector<QuestCompleteData *,std::allocator<QuestCompleteData *> >
_TEXT	ENDS
PUBLIC	?begin@?$vector@PAVQuestCompleteData@@V?$allocator@PAVQuestCompleteData@@@std@@@std@@QAE?AV?$_Vector_iterator@V?$_Vector_val@PAVQuestCompleteData@@V?$allocator@PAVQuestCompleteData@@@std@@@std@@@2@XZ ; std::vector<QuestCompleteData *,std::allocator<QuestCompleteData *> >::begin
; Function compile flags: /Ogsp
;	COMDAT ?begin@?$vector@PAVQuestCompleteData@@V?$allocator@PAVQuestCompleteData@@@std@@@std@@QAE?AV?$_Vector_iterator@V?$_Vector_val@PAVQuestCompleteData@@V?$allocator@PAVQuestCompleteData@@@std@@@std@@@2@XZ
_TEXT	SEGMENT
___$ReturnUdt$ = 8					; size = 4
?begin@?$vector@PAVQuestCompleteData@@V?$allocator@PAVQuestCompleteData@@@std@@@std@@QAE?AV?$_Vector_iterator@V?$_Vector_val@PAVQuestCompleteData@@V?$allocator@PAVQuestCompleteData@@@std@@@std@@@2@XZ PROC ; std::vector<QuestCompleteData *,std::allocator<QuestCompleteData *> >::begin, COMDAT
; _this$ = ecx

; 781  : 		{	// return iterator for beginning of mutable sequence

  00000	55		 push	 ebp
  00001	8b ec		 mov	 ebp, esp

; 782  : 		return (iterator(this->_Myfirst, this));

  00003	8b 09		 mov	 ecx, DWORD PTR [ecx]
  00005	8b 45 08	 mov	 eax, DWORD PTR ___$ReturnUdt$[ebp]
  00008	89 08		 mov	 DWORD PTR [eax], ecx

; 783  : 		}

  0000a	5d		 pop	 ebp
  0000b	c2 04 00	 ret	 4
?begin@?$vector@PAVQuestCompleteData@@V?$allocator@PAVQuestCompleteData@@@std@@@std@@QAE?AV?$_Vector_iterator@V?$_Vector_val@PAVQuestCompleteData@@V?$allocator@PAVQuestCompleteData@@@std@@@std@@@2@XZ ENDP ; std::vector<QuestCompleteData *,std::allocator<QuestCompleteData *> >::begin
_TEXT	ENDS
PUBLIC	?end@?$vector@PAVQuestCompleteData@@V?$allocator@PAVQuestCompleteData@@@std@@@std@@QAE?AV?$_Vector_iterator@V?$_Vector_val@PAVQuestCompleteData@@V?$allocator@PAVQuestCompleteData@@@std@@@std@@@2@XZ ; std::vector<QuestCompleteData *,std::allocator<QuestCompleteData *> >::end
; Function compile flags: /Ogsp
;	COMDAT ?end@?$vector@PAVQuestCompleteData@@V?$allocator@PAVQuestCompleteData@@@std@@@std@@QAE?AV?$_Vector_iterator@V?$_Vector_val@PAVQuestCompleteData@@V?$allocator@PAVQuestCompleteData@@@std@@@std@@@2@XZ
_TEXT	SEGMENT
___$ReturnUdt$ = 8					; size = 4
?end@?$vector@PAVQuestCompleteData@@V?$allocator@PAVQuestCompleteData@@@std@@@std@@QAE?AV?$_Vector_iterator@V?$_Vector_val@PAVQuestCompleteData@@V?$allocator@PAVQuestCompleteData@@@std@@@std@@@2@XZ PROC ; std::vector<QuestCompleteData *,std::allocator<QuestCompleteData *> >::end, COMDAT
; _this$ = ecx

; 791  : 		{	// return iterator for end of mutable sequence

  00000	55		 push	 ebp
  00001	8b ec		 mov	 ebp, esp

; 792  : 		return (iterator(this->_Mylast, this));

  00003	8b 49 04	 mov	 ecx, DWORD PTR [ecx+4]
  00006	8b 45 08	 mov	 eax, DWORD PTR ___$ReturnUdt$[ebp]
  00009	89 08		 mov	 DWORD PTR [eax], ecx

; 793  : 		}

  0000b	5d		 pop	 ebp
  0000c	c2 04 00	 ret	 4
?end@?$vector@PAVQuestCompleteData@@V?$allocator@PAVQuestCompleteData@@@std@@@std@@QAE?AV?$_Vector_iterator@V?$_Vector_val@PAVQuestCompleteData@@V?$allocator@PAVQuestCompleteData@@@std@@@std@@@2@XZ ENDP ; std::vector<QuestCompleteData *,std::allocator<QuestCompleteData *> >::end
_TEXT	ENDS
PUBLIC	??9?$_Vector_const_iterator@V?$_Vector_val@PAVQuestData@@V?$allocator@PAVQuestData@@@std@@@std@@@std@@QBE_NABV01@@Z ; std::_Vector_const_iterator<std::_Vector_val<QuestData *,std::allocator<QuestData *> > >::operator!=
; Function compile flags: /Ogsp
;	COMDAT ??9?$_Vector_const_iterator@V?$_Vector_val@PAVQuestData@@V?$allocator@PAVQuestData@@@std@@@std@@@std@@QBE_NABV01@@Z
_TEXT	SEGMENT
__Right$ = 8						; size = 4
??9?$_Vector_const_iterator@V?$_Vector_val@PAVQuestData@@V?$allocator@PAVQuestData@@@std@@@std@@@std@@QBE_NABV01@@Z PROC ; std::_Vector_const_iterator<std::_Vector_val<QuestData *,std::allocator<QuestData *> > >::operator!=, COMDAT
; _this$ = ecx

; 207  : 		{	// test for iterator inequality

  00000	55		 push	 ebp
  00001	8b ec		 mov	 ebp, esp

; 208  : 		return (!(*this == _Right));

  00003	8b 01		 mov	 eax, DWORD PTR [ecx]
  00005	8b 55 08	 mov	 edx, DWORD PTR __Right$[ebp]
  00008	33 c9		 xor	 ecx, ecx
  0000a	3b 02		 cmp	 eax, DWORD PTR [edx]
  0000c	0f 95 c0	 setne	 al

; 209  : 		}

  0000f	5d		 pop	 ebp
  00010	c2 04 00	 ret	 4
??9?$_Vector_const_iterator@V?$_Vector_val@PAVQuestData@@V?$allocator@PAVQuestData@@@std@@@std@@@std@@QBE_NABV01@@Z ENDP ; std::_Vector_const_iterator<std::_Vector_val<QuestData *,std::allocator<QuestData *> > >::operator!=
_TEXT	ENDS
PUBLIC	??9?$_Vector_const_iterator@V?$_Vector_val@PAVQuestCompleteData@@V?$allocator@PAVQuestCompleteData@@@std@@@std@@@std@@QBE_NABV01@@Z ; std::_Vector_const_iterator<std::_Vector_val<QuestCompleteData *,std::allocator<QuestCompleteData *> > >::operator!=
; Function compile flags: /Ogsp
;	COMDAT ??9?$_Vector_const_iterator@V?$_Vector_val@PAVQuestCompleteData@@V?$allocator@PAVQuestCompleteData@@@std@@@std@@@std@@QBE_NABV01@@Z
_TEXT	SEGMENT
__Right$ = 8						; size = 4
??9?$_Vector_const_iterator@V?$_Vector_val@PAVQuestCompleteData@@V?$allocator@PAVQuestCompleteData@@@std@@@std@@@std@@QBE_NABV01@@Z PROC ; std::_Vector_const_iterator<std::_Vector_val<QuestCompleteData *,std::allocator<QuestCompleteData *> > >::operator!=, COMDAT
; _this$ = ecx

; 207  : 		{	// test for iterator inequality

  00000	55		 push	 ebp
  00001	8b ec		 mov	 ebp, esp

; 208  : 		return (!(*this == _Right));

  00003	8b 01		 mov	 eax, DWORD PTR [ecx]
  00005	8b 55 08	 mov	 edx, DWORD PTR __Right$[ebp]
  00008	33 c9		 xor	 ecx, ecx
  0000a	3b 02		 cmp	 eax, DWORD PTR [edx]
  0000c	0f 95 c0	 setne	 al

; 209  : 		}

  0000f	5d		 pop	 ebp
  00010	c2 04 00	 ret	 4
??9?$_Vector_const_iterator@V?$_Vector_val@PAVQuestCompleteData@@V?$allocator@PAVQuestCompleteData@@@std@@@std@@@std@@QBE_NABV01@@Z ENDP ; std::_Vector_const_iterator<std::_Vector_val<QuestCompleteData *,std::allocator<QuestCompleteData *> > >::operator!=
_TEXT	ENDS
PUBLIC	?_Make_iter@?$vector@PAVQuestData@@V?$allocator@PAVQuestData@@@std@@@std@@QBE?AV?$_Vector_iterator@V?$_Vector_val@PAVQuestData@@V?$allocator@PAVQuestData@@@std@@@std@@@2@V?$_Vector_const_iterator@V?$_Vector_val@PAVQuestData@@V?$allocator@PAVQuestData@@@std@@@std@@@2@@Z ; std::vector<QuestData *,std::allocator<QuestData *> >::_Make_iter
; Function compile flags: /Ogsp
;	COMDAT ?_Make_iter@?$vector@PAVQuestData@@V?$allocator@PAVQuestData@@@std@@@std@@QBE?AV?$_Vector_iterator@V?$_Vector_val@PAVQuestData@@V?$allocator@PAVQuestData@@@std@@@std@@@2@V?$_Vector_const_iterator@V?$_Vector_val@PAVQuestData@@V?$allocator@PAVQuestData@@@std@@@std@@@2@@Z
_TEXT	SEGMENT
___$ReturnUdt$ = 8					; size = 4
__Where$ = 12						; size = 4
?_Make_iter@?$vector@PAVQuestData@@V?$allocator@PAVQuestData@@@std@@@std@@QBE?AV?$_Vector_iterator@V?$_Vector_val@PAVQuestData@@V?$allocator@PAVQuestData@@@std@@@std@@@2@V?$_Vector_const_iterator@V?$_Vector_val@PAVQuestData@@V?$allocator@PAVQuestData@@@std@@@std@@@2@@Z PROC ; std::vector<QuestData *,std::allocator<QuestData *> >::_Make_iter, COMDAT
; _this$ = ecx

; 801  : 		{	// make iterator from const_iterator

  00000	55		 push	 ebp
  00001	8b ec		 mov	 ebp, esp

; 802  : 		return (iterator(_Where._Ptr, this));

  00003	8b 45 08	 mov	 eax, DWORD PTR ___$ReturnUdt$[ebp]
  00006	8b 4d 0c	 mov	 ecx, DWORD PTR __Where$[ebp]
  00009	89 08		 mov	 DWORD PTR [eax], ecx

; 803  : 		}

  0000b	5d		 pop	 ebp
  0000c	c2 08 00	 ret	 8
?_Make_iter@?$vector@PAVQuestData@@V?$allocator@PAVQuestData@@@std@@@std@@QBE?AV?$_Vector_iterator@V?$_Vector_val@PAVQuestData@@V?$allocator@PAVQuestData@@@std@@@std@@@2@V?$_Vector_const_iterator@V?$_Vector_val@PAVQuestData@@V?$allocator@PAVQuestData@@@std@@@std@@@2@@Z ENDP ; std::vector<QuestData *,std::allocator<QuestData *> >::_Make_iter
_TEXT	ENDS
PUBLIC	?_Destroy@?$vector@PAVQuestData@@V?$allocator@PAVQuestData@@@std@@@std@@IAEXPAPAVQuestData@@0@Z ; std::vector<QuestData *,std::allocator<QuestData *> >::_Destroy
; Function compile flags: /Ogsp
;	COMDAT ?_Destroy@?$vector@PAVQuestData@@V?$allocator@PAVQuestData@@@std@@@std@@IAEXPAPAVQuestData@@0@Z
_TEXT	SEGMENT
__First$ = 8						; size = 4
__Last$ = 12						; size = 4
?_Destroy@?$vector@PAVQuestData@@V?$allocator@PAVQuestData@@@std@@@std@@IAEXPAPAVQuestData@@0@Z PROC ; std::vector<QuestData *,std::allocator<QuestData *> >::_Destroy, COMDAT
; _this$ = ecx

; 1270 : 		_Destroy_range(_First, _Last, this->_Alval);
; 1271 : 		}

  00000	c2 08 00	 ret	 8
?_Destroy@?$vector@PAVQuestData@@V?$allocator@PAVQuestData@@@std@@@std@@IAEXPAPAVQuestData@@0@Z ENDP ; std::vector<QuestData *,std::allocator<QuestData *> >::_Destroy
_TEXT	ENDS
PUBLIC	?_Tidy@?$vector@PAVQuestData@@V?$allocator@PAVQuestData@@@std@@@std@@IAEXXZ ; std::vector<QuestData *,std::allocator<QuestData *> >::_Tidy
EXTRN	__imp_?_Orphan_all@_Container_base0@std@@QAEXXZ:PROC
; Function compile flags: /Ogsp
;	COMDAT ?_Tidy@?$vector@PAVQuestData@@V?$allocator@PAVQuestData@@@std@@@std@@IAEXXZ
_TEXT	SEGMENT
?_Tidy@?$vector@PAVQuestData@@V?$allocator@PAVQuestData@@@std@@@std@@IAEXXZ PROC ; std::vector<QuestData *,std::allocator<QuestData *> >::_Tidy, COMDAT
; _this$ = ecx

; 1301 : 		{	// free all storage

  00000	56		 push	 esi
  00001	8b f1		 mov	 esi, ecx

; 1302 : 		if (this->_Myfirst != 0)

  00003	83 3e 00	 cmp	 DWORD PTR [esi], 0
  00006	74 0e		 je	 SHORT $LN12@Tidy

; 1303 : 			{	// something to free, destroy and deallocate it
; 1304 : 			this->_Orphan_all();

  00008	ff 15 00 00 00
	00		 call	 DWORD PTR __imp_?_Orphan_all@_Container_base0@std@@QAEXXZ

; 1305 : 			_Destroy(this->_Myfirst, this->_Mylast);
; 1306 : 			this->_Alval.deallocate(this->_Myfirst,
; 1307 : 				this->_Myend - this->_Myfirst);

  0000e	ff 36		 push	 DWORD PTR [esi]
  00010	e8 00 00 00 00	 call	 ??3@YAXPAX@Z		; operator delete
  00015	59		 pop	 ecx
$LN12@Tidy:

; 1308 : 			}
; 1309 : 		this->_Myfirst = 0;

  00016	83 26 00	 and	 DWORD PTR [esi], 0

; 1310 : 		this->_Mylast = 0;

  00019	83 66 04 00	 and	 DWORD PTR [esi+4], 0

; 1311 : 		this->_Myend = 0;

  0001d	83 66 08 00	 and	 DWORD PTR [esi+8], 0
  00021	5e		 pop	 esi

; 1312 : 		}

  00022	c3		 ret	 0
?_Tidy@?$vector@PAVQuestData@@V?$allocator@PAVQuestData@@@std@@@std@@IAEXXZ ENDP ; std::vector<QuestData *,std::allocator<QuestData *> >::_Tidy
_TEXT	ENDS
PUBLIC	?_Make_iter@?$vector@PAVQuestCompleteData@@V?$allocator@PAVQuestCompleteData@@@std@@@std@@QBE?AV?$_Vector_iterator@V?$_Vector_val@PAVQuestCompleteData@@V?$allocator@PAVQuestCompleteData@@@std@@@std@@@2@V?$_Vector_const_iterator@V?$_Vector_val@PAVQuestCompleteData@@V?$allocator@PAVQuestCompleteData@@@std@@@std@@@2@@Z ; std::vector<QuestCompleteData *,std::allocator<QuestCompleteData *> >::_Make_iter
; Function compile flags: /Ogsp
;	COMDAT ?_Make_iter@?$vector@PAVQuestCompleteData@@V?$allocator@PAVQuestCompleteData@@@std@@@std@@QBE?AV?$_Vector_iterator@V?$_Vector_val@PAVQuestCompleteData@@V?$allocator@PAVQuestCompleteData@@@std@@@std@@@2@V?$_Vector_const_iterator@V?$_Vector_val@PAVQuestCompleteData@@V?$allocator@PAVQuestCompleteData@@@std@@@std@@@2@@Z
_TEXT	SEGMENT
___$ReturnUdt$ = 8					; size = 4
__Where$ = 12						; size = 4
?_Make_iter@?$vector@PAVQuestCompleteData@@V?$allocator@PAVQuestCompleteData@@@std@@@std@@QBE?AV?$_Vector_iterator@V?$_Vector_val@PAVQuestCompleteData@@V?$allocator@PAVQuestCompleteData@@@std@@@std@@@2@V?$_Vector_const_iterator@V?$_Vector_val@PAVQuestCompleteData@@V?$allocator@PAVQuestCompleteData@@@std@@@std@@@2@@Z PROC ; std::vector<QuestCompleteData *,std::allocator<QuestCompleteData *> >::_Make_iter, COMDAT
; _this$ = ecx

; 801  : 		{	// make iterator from const_iterator

  00000	55		 push	 ebp
  00001	8b ec		 mov	 ebp, esp

; 802  : 		return (iterator(_Where._Ptr, this));

  00003	8b 45 08	 mov	 eax, DWORD PTR ___$ReturnUdt$[ebp]
  00006	8b 4d 0c	 mov	 ecx, DWORD PTR __Where$[ebp]
  00009	89 08		 mov	 DWORD PTR [eax], ecx

; 803  : 		}

  0000b	5d		 pop	 ebp
  0000c	c2 08 00	 ret	 8
?_Make_iter@?$vector@PAVQuestCompleteData@@V?$allocator@PAVQuestCompleteData@@@std@@@std@@QBE?AV?$_Vector_iterator@V?$_Vector_val@PAVQuestCompleteData@@V?$allocator@PAVQuestCompleteData@@@std@@@std@@@2@V?$_Vector_const_iterator@V?$_Vector_val@PAVQuestCompleteData@@V?$allocator@PAVQuestCompleteData@@@std@@@std@@@2@@Z ENDP ; std::vector<QuestCompleteData *,std::allocator<QuestCompleteData *> >::_Make_iter
_TEXT	ENDS
PUBLIC	?_Destroy@?$vector@PAVQuestCompleteData@@V?$allocator@PAVQuestCompleteData@@@std@@@std@@IAEXPAPAVQuestCompleteData@@0@Z ; std::vector<QuestCompleteData *,std::allocator<QuestCompleteData *> >::_Destroy
; Function compile flags: /Ogsp
;	COMDAT ?_Destroy@?$vector@PAVQuestCompleteData@@V?$allocator@PAVQuestCompleteData@@@std@@@std@@IAEXPAPAVQuestCompleteData@@0@Z
_TEXT	SEGMENT
__First$ = 8						; size = 4
__Last$ = 12						; size = 4
?_Destroy@?$vector@PAVQuestCompleteData@@V?$allocator@PAVQuestCompleteData@@@std@@@std@@IAEXPAPAVQuestCompleteData@@0@Z PROC ; std::vector<QuestCompleteData *,std::allocator<QuestCompleteData *> >::_Destroy, COMDAT
; _this$ = ecx

; 1270 : 		_Destroy_range(_First, _Last, this->_Alval);
; 1271 : 		}

  00000	c2 08 00	 ret	 8
?_Destroy@?$vector@PAVQuestCompleteData@@V?$allocator@PAVQuestCompleteData@@@std@@@std@@IAEXPAPAVQuestCompleteData@@0@Z ENDP ; std::vector<QuestCompleteData *,std::allocator<QuestCompleteData *> >::_Destroy
_TEXT	ENDS
PUBLIC	?_Tidy@?$vector@PAVQuestCompleteData@@V?$allocator@PAVQuestCompleteData@@@std@@@std@@IAEXXZ ; std::vector<QuestCompleteData *,std::allocator<QuestCompleteData *> >::_Tidy
; Function compile flags: /Ogsp
;	COMDAT ?_Tidy@?$vector@PAVQuestCompleteData@@V?$allocator@PAVQuestCompleteData@@@std@@@std@@IAEXXZ
_TEXT	SEGMENT
?_Tidy@?$vector@PAVQuestCompleteData@@V?$allocator@PAVQuestCompleteData@@@std@@@std@@IAEXXZ PROC ; std::vector<QuestCompleteData *,std::allocator<QuestCompleteData *> >::_Tidy, COMDAT
; _this$ = ecx

; 1301 : 		{	// free all storage

  00000	56		 push	 esi
  00001	8b f1		 mov	 esi, ecx

; 1302 : 		if (this->_Myfirst != 0)

  00003	83 3e 00	 cmp	 DWORD PTR [esi], 0
  00006	74 0e		 je	 SHORT $LN12@Tidy@2

; 1303 : 			{	// something to free, destroy and deallocate it
; 1304 : 			this->_Orphan_all();

  00008	ff 15 00 00 00
	00		 call	 DWORD PTR __imp_?_Orphan_all@_Container_base0@std@@QAEXXZ

; 1305 : 			_Destroy(this->_Myfirst, this->_Mylast);
; 1306 : 			this->_Alval.deallocate(this->_Myfirst,
; 1307 : 				this->_Myend - this->_Myfirst);

  0000e	ff 36		 push	 DWORD PTR [esi]
  00010	e8 00 00 00 00	 call	 ??3@YAXPAX@Z		; operator delete
  00015	59		 pop	 ecx
$LN12@Tidy@2:

; 1308 : 			}
; 1309 : 		this->_Myfirst = 0;

  00016	83 26 00	 and	 DWORD PTR [esi], 0

; 1310 : 		this->_Mylast = 0;

  00019	83 66 04 00	 and	 DWORD PTR [esi+4], 0

; 1311 : 		this->_Myend = 0;

  0001d	83 66 08 00	 and	 DWORD PTR [esi+8], 0
  00021	5e		 pop	 esi

; 1312 : 		}

  00022	c3		 ret	 0
?_Tidy@?$vector@PAVQuestCompleteData@@V?$allocator@PAVQuestCompleteData@@@std@@@std@@IAEXXZ ENDP ; std::vector<QuestCompleteData *,std::allocator<QuestCompleteData *> >::_Tidy
_TEXT	ENDS
PUBLIC	??H?$_Vector_iterator@V?$_Vector_val@PAVQuestData@@V?$allocator@PAVQuestData@@@std@@@std@@@std@@QBE?AV01@H@Z ; std::_Vector_iterator<std::_Vector_val<QuestData *,std::allocator<QuestData *> > >::operator+
; Function compile flags: /Ogsp
;	COMDAT ??H?$_Vector_iterator@V?$_Vector_val@PAVQuestData@@V?$allocator@PAVQuestData@@@std@@@std@@@std@@QBE?AV01@H@Z
_TEXT	SEGMENT
___$ReturnUdt$ = 8					; size = 4
__Off$ = 12						; size = 4
??H?$_Vector_iterator@V?$_Vector_val@PAVQuestData@@V?$allocator@PAVQuestData@@@std@@@std@@@std@@QBE?AV01@H@Z PROC ; std::_Vector_iterator<std::_Vector_val<QuestData *,std::allocator<QuestData *> > >::operator+, COMDAT
; _this$ = ecx

; 363  : 		{	// return this + integer

  00000	55		 push	 ebp
  00001	8b ec		 mov	 ebp, esp

; 364  : 		_Myiter _Tmp = *this;
; 365  : 		return (_Tmp += _Off);

  00003	8b 01		 mov	 eax, DWORD PTR [ecx]
  00005	8b 4d 0c	 mov	 ecx, DWORD PTR __Off$[ebp]
  00008	8d 0c 88	 lea	 ecx, DWORD PTR [eax+ecx*4]
  0000b	8b 45 08	 mov	 eax, DWORD PTR ___$ReturnUdt$[ebp]
  0000e	89 08		 mov	 DWORD PTR [eax], ecx

; 366  : 		}

  00010	5d		 pop	 ebp
  00011	c2 08 00	 ret	 8
??H?$_Vector_iterator@V?$_Vector_val@PAVQuestData@@V?$allocator@PAVQuestData@@@std@@@std@@@std@@QBE?AV01@H@Z ENDP ; std::_Vector_iterator<std::_Vector_val<QuestData *,std::allocator<QuestData *> > >::operator+
_TEXT	ENDS
PUBLIC	??G?$_Vector_iterator@V?$_Vector_val@PAVQuestData@@V?$allocator@PAVQuestData@@@std@@@std@@@std@@QBE?AV01@H@Z ; std::_Vector_iterator<std::_Vector_val<QuestData *,std::allocator<QuestData *> > >::operator-
; Function compile flags: /Ogsp
;	COMDAT ??G?$_Vector_iterator@V?$_Vector_val@PAVQuestData@@V?$allocator@PAVQuestData@@@std@@@std@@@std@@QBE?AV01@H@Z
_TEXT	SEGMENT
___$ReturnUdt$ = 8					; size = 4
__Off$ = 12						; size = 4
??G?$_Vector_iterator@V?$_Vector_val@PAVQuestData@@V?$allocator@PAVQuestData@@@std@@@std@@@std@@QBE?AV01@H@Z PROC ; std::_Vector_iterator<std::_Vector_val<QuestData *,std::allocator<QuestData *> > >::operator-, COMDAT
; _this$ = ecx

; 374  : 		{	// return this - integer

  00000	55		 push	 ebp
  00001	8b ec		 mov	 ebp, esp

; 375  : 		_Myiter _Tmp = *this;
; 376  : 		return (_Tmp -= _Off);

  00003	8b 45 0c	 mov	 eax, DWORD PTR __Off$[ebp]
  00006	8b 09		 mov	 ecx, DWORD PTR [ecx]
  00008	c1 e0 02	 shl	 eax, 2
  0000b	2b c8		 sub	 ecx, eax
  0000d	8b 45 08	 mov	 eax, DWORD PTR ___$ReturnUdt$[ebp]
  00010	89 08		 mov	 DWORD PTR [eax], ecx

; 377  : 		}

  00012	5d		 pop	 ebp
  00013	c2 08 00	 ret	 8
??G?$_Vector_iterator@V?$_Vector_val@PAVQuestData@@V?$allocator@PAVQuestData@@@std@@@std@@@std@@QBE?AV01@H@Z ENDP ; std::_Vector_iterator<std::_Vector_val<QuestData *,std::allocator<QuestData *> > >::operator-
_TEXT	ENDS
PUBLIC	??H?$_Vector_iterator@V?$_Vector_val@PAVQuestCompleteData@@V?$allocator@PAVQuestCompleteData@@@std@@@std@@@std@@QBE?AV01@H@Z ; std::_Vector_iterator<std::_Vector_val<QuestCompleteData *,std::allocator<QuestCompleteData *> > >::operator+
; Function compile flags: /Ogsp
;	COMDAT ??H?$_Vector_iterator@V?$_Vector_val@PAVQuestCompleteData@@V?$allocator@PAVQuestCompleteData@@@std@@@std@@@std@@QBE?AV01@H@Z
_TEXT	SEGMENT
___$ReturnUdt$ = 8					; size = 4
__Off$ = 12						; size = 4
??H?$_Vector_iterator@V?$_Vector_val@PAVQuestCompleteData@@V?$allocator@PAVQuestCompleteData@@@std@@@std@@@std@@QBE?AV01@H@Z PROC ; std::_Vector_iterator<std::_Vector_val<QuestCompleteData *,std::allocator<QuestCompleteData *> > >::operator+, COMDAT
; _this$ = ecx

; 363  : 		{	// return this + integer

  00000	55		 push	 ebp
  00001	8b ec		 mov	 ebp, esp

; 364  : 		_Myiter _Tmp = *this;
; 365  : 		return (_Tmp += _Off);

  00003	8b 01		 mov	 eax, DWORD PTR [ecx]
  00005	8b 4d 0c	 mov	 ecx, DWORD PTR __Off$[ebp]
  00008	8d 0c 88	 lea	 ecx, DWORD PTR [eax+ecx*4]
  0000b	8b 45 08	 mov	 eax, DWORD PTR ___$ReturnUdt$[ebp]
  0000e	89 08		 mov	 DWORD PTR [eax], ecx

; 366  : 		}

  00010	5d		 pop	 ebp
  00011	c2 08 00	 ret	 8
??H?$_Vector_iterator@V?$_Vector_val@PAVQuestCompleteData@@V?$allocator@PAVQuestCompleteData@@@std@@@std@@@std@@QBE?AV01@H@Z ENDP ; std::_Vector_iterator<std::_Vector_val<QuestCompleteData *,std::allocator<QuestCompleteData *> > >::operator+
_TEXT	ENDS
PUBLIC	??G?$_Vector_iterator@V?$_Vector_val@PAVQuestCompleteData@@V?$allocator@PAVQuestCompleteData@@@std@@@std@@@std@@QBE?AV01@H@Z ; std::_Vector_iterator<std::_Vector_val<QuestCompleteData *,std::allocator<QuestCompleteData *> > >::operator-
; Function compile flags: /Ogsp
;	COMDAT ??G?$_Vector_iterator@V?$_Vector_val@PAVQuestCompleteData@@V?$allocator@PAVQuestCompleteData@@@std@@@std@@@std@@QBE?AV01@H@Z
_TEXT	SEGMENT
___$ReturnUdt$ = 8					; size = 4
__Off$ = 12						; size = 4
??G?$_Vector_iterator@V?$_Vector_val@PAVQuestCompleteData@@V?$allocator@PAVQuestCompleteData@@@std@@@std@@@std@@QBE?AV01@H@Z PROC ; std::_Vector_iterator<std::_Vector_val<QuestCompleteData *,std::allocator<QuestCompleteData *> > >::operator-, COMDAT
; _this$ = ecx

; 374  : 		{	// return this - integer

  00000	55		 push	 ebp
  00001	8b ec		 mov	 ebp, esp

; 375  : 		_Myiter _Tmp = *this;
; 376  : 		return (_Tmp -= _Off);

  00003	8b 45 0c	 mov	 eax, DWORD PTR __Off$[ebp]
  00006	8b 09		 mov	 ecx, DWORD PTR [ecx]
  00008	c1 e0 02	 shl	 eax, 2
  0000b	2b c8		 sub	 ecx, eax
  0000d	8b 45 08	 mov	 eax, DWORD PTR ___$ReturnUdt$[ebp]
  00010	89 08		 mov	 DWORD PTR [eax], ecx

; 377  : 		}

  00012	5d		 pop	 ebp
  00013	c2 08 00	 ret	 8
??G?$_Vector_iterator@V?$_Vector_val@PAVQuestCompleteData@@V?$allocator@PAVQuestCompleteData@@@std@@@std@@@std@@QBE?AV01@H@Z ENDP ; std::_Vector_iterator<std::_Vector_val<QuestCompleteData *,std::allocator<QuestCompleteData *> > >::operator-
_TEXT	ENDS
PUBLIC	??$iter_swap@PAPAVQuestData@@PAPAV1@@std@@YAXPAPAVQuestData@@0@Z ; std::iter_swap<QuestData * *,QuestData * *>
; Function compile flags: /Ogsp
; File c:\program files (x86)\microsoft visual studio 10.0\vc\include\xutility
;	COMDAT ??$iter_swap@PAPAVQuestData@@PAPAV1@@std@@YAXPAPAVQuestData@@0@Z
_TEXT	SEGMENT
__Left$ = 8						; size = 4
__Right$ = 12						; size = 4
??$iter_swap@PAPAVQuestData@@PAPAV1@@std@@YAXPAPAVQuestData@@0@Z PROC ; std::iter_swap<QuestData * *,QuestData * *>, COMDAT

; 2133 : 	{	// swap *_Left and *_Right

  00000	55		 push	 ebp
  00001	8b ec		 mov	 ebp, esp

; 2134 : 	swap(*_Left, *_Right);

  00003	8b 55 0c	 mov	 edx, DWORD PTR __Right$[ebp]
  00006	8b 45 08	 mov	 eax, DWORD PTR __Left$[ebp]
  00009	8b 08		 mov	 ecx, DWORD PTR [eax]
  0000b	56		 push	 esi
  0000c	8b 32		 mov	 esi, DWORD PTR [edx]
  0000e	89 30		 mov	 DWORD PTR [eax], esi
  00010	89 0a		 mov	 DWORD PTR [edx], ecx
  00012	5e		 pop	 esi

; 2135 : 	}

  00013	5d		 pop	 ebp
  00014	c3		 ret	 0
??$iter_swap@PAPAVQuestData@@PAPAV1@@std@@YAXPAPAVQuestData@@0@Z ENDP ; std::iter_swap<QuestData * *,QuestData * *>
_TEXT	ENDS
PUBLIC	??$_Insertion_sort1@PAPAVQuestData@@VQuestDataSort@@PAV1@@std@@YAXPAPAVQuestData@@0VQuestDataSort@@0@Z ; std::_Insertion_sort1<QuestData * *,QuestDataSort,QuestData *>
; Function compile flags: /Ogsp
; File c:\program files (x86)\microsoft visual studio 10.0\vc\include\algorithm
;	COMDAT ??$_Insertion_sort1@PAPAVQuestData@@VQuestDataSort@@PAV1@@std@@YAXPAPAVQuestData@@0VQuestDataSort@@0@Z
_TEXT	SEGMENT
__Next1$507862 = -4					; size = 4
__First$ = 8						; size = 4
__Cat$510403 = 12					; size = 1
__Last$ = 12						; size = 4
__Pred$ = 16						; size = 1
___formal$ = 20						; size = 4
??$_Insertion_sort1@PAPAVQuestData@@VQuestDataSort@@PAV1@@std@@YAXPAPAVQuestData@@0VQuestDataSort@@0@Z PROC ; std::_Insertion_sort1<QuestData * *,QuestDataSort,QuestData *>, COMDAT

; 3650 : 	{	// insertion sort [_First, _Last), using _Pred

  00000	55		 push	 ebp
  00001	8b ec		 mov	 ebp, esp
  00003	51		 push	 ecx
  00004	57		 push	 edi

; 3651 : 	if (_First != _Last)

  00005	8b 7d 08	 mov	 edi, DWORD PTR __First$[ebp]
  00008	3b 7d 0c	 cmp	 edi, DWORD PTR __Last$[ebp]
  0000b	74 66		 je	 SHORT $LN6@Insertion_

; 3652 : 		for (_BidIt _Next = _First; ++_Next != _Last; )

  0000d	56		 push	 esi
  0000e	8d 77 04	 lea	 esi, DWORD PTR [edi+4]
  00011	3b 75 0c	 cmp	 esi, DWORD PTR __Last$[ebp]
  00014	74 5c		 je	 SHORT $LN26@Insertion_
  00016	53		 push	 ebx
$LL7@Insertion_:

; 3653 : 			{	// order next element
; 3654 : 			_BidIt _Next1 = _Next;
; 3655 : 			_Ty _Val = _Move(*_Next);
; 3656 : 
; 3657 : 			if (_DEBUG_LT_PRED(_Pred, _Val, *_First))

  00017	ff 37		 push	 DWORD PTR [edi]
  00019	8b 1e		 mov	 ebx, DWORD PTR [esi]
  0001b	53		 push	 ebx
  0001c	8d 4d 10	 lea	 ecx, DWORD PTR __Pred$[ebp]
  0001f	89 75 fc	 mov	 DWORD PTR __Next1$507862[ebp], esi
  00022	e8 00 00 00 00	 call	 ??RQuestDataSort@@QBE_NPBVQuestData@@0@Z ; QuestDataSort::operator()
  00027	84 c0		 test	 al, al
  00029	74 15		 je	 SHORT $LN5@Insertion_

; 3658 : 				{	// found new earliest element, move to front
; 3659 : 				_Move_backward(_First, _Next, ++_Next1);

  0002b	ff 75 0c	 push	 DWORD PTR __Cat$510403[ebp]
  0002e	8d 46 04	 lea	 eax, DWORD PTR [esi+4]
  00031	50		 push	 eax
  00032	56		 push	 esi
  00033	57		 push	 edi
  00034	e8 00 00 00 00	 call	 ??$_Move_backward@PAPAVQuestData@@PAPAV1@@std@@YAPAPAVQuestData@@PAPAV1@00U_Scalar_ptr_iterator_tag@0@@Z ; std::_Move_backward<QuestData * *,QuestData * *>
  00039	83 c4 10	 add	 esp, 16			; 00000010H

; 3660 : 				*_First = _Move(_Val);

  0003c	89 1f		 mov	 DWORD PTR [edi], ebx

; 3661 : 				}
; 3662 : 			else

  0003e	eb 29		 jmp	 SHORT $LN4@Insertion_
$LN5@Insertion_:

; 3652 : 		for (_BidIt _Next = _First; ++_Next != _Last; )

  00040	8d 7e fc	 lea	 edi, DWORD PTR [esi-4]

; 3663 : 				{	// look for insertion point after first
; 3664 : 				for (_BidIt _First1 = _Next1;
; 3665 : 					_DEBUG_LT_PRED(_Pred, _Val, *--_First1);
; 3666 : 					_Next1 = _First1)

  00043	eb 0d		 jmp	 SHORT $LN29@Insertion_
$LL3@Insertion_:

; 3667 : 					*_Next1 = _Move(*_First1);	// move hole down

  00045	8b 07		 mov	 eax, DWORD PTR [edi]
  00047	8b 4d fc	 mov	 ecx, DWORD PTR __Next1$507862[ebp]
  0004a	89 7d fc	 mov	 DWORD PTR __Next1$507862[ebp], edi
  0004d	89 01		 mov	 DWORD PTR [ecx], eax
  0004f	83 ef 04	 sub	 edi, 4
$LN29@Insertion_:

; 3663 : 				{	// look for insertion point after first
; 3664 : 				for (_BidIt _First1 = _Next1;
; 3665 : 					_DEBUG_LT_PRED(_Pred, _Val, *--_First1);
; 3666 : 					_Next1 = _First1)

  00052	ff 37		 push	 DWORD PTR [edi]
  00054	8d 4d 10	 lea	 ecx, DWORD PTR __Pred$[ebp]
  00057	53		 push	 ebx
  00058	e8 00 00 00 00	 call	 ??RQuestDataSort@@QBE_NPBVQuestData@@0@Z ; QuestDataSort::operator()
  0005d	84 c0		 test	 al, al
  0005f	75 e4		 jne	 SHORT $LL3@Insertion_

; 3668 : 				*_Next1 = _Move(_Val);	// insert element in hole

  00061	8b 45 fc	 mov	 eax, DWORD PTR __Next1$507862[ebp]
  00064	8b 7d 08	 mov	 edi, DWORD PTR __First$[ebp]
  00067	89 18		 mov	 DWORD PTR [eax], ebx
$LN4@Insertion_:

; 3652 : 		for (_BidIt _Next = _First; ++_Next != _Last; )

  00069	83 c6 04	 add	 esi, 4
  0006c	3b 75 0c	 cmp	 esi, DWORD PTR __Last$[ebp]
  0006f	75 a6		 jne	 SHORT $LL7@Insertion_
  00071	5b		 pop	 ebx
$LN26@Insertion_:
  00072	5e		 pop	 esi
$LN6@Insertion_:
  00073	5f		 pop	 edi

; 3669 : 				}
; 3670 : 			}
; 3671 : 	}

  00074	c9		 leave
  00075	c3		 ret	 0
??$_Insertion_sort1@PAPAVQuestData@@VQuestDataSort@@PAV1@@std@@YAXPAPAVQuestData@@0VQuestDataSort@@0@Z ENDP ; std::_Insertion_sort1<QuestData * *,QuestDataSort,QuestData *>
_TEXT	ENDS
PUBLIC	??$distance@V?$_Vector_iterator@V?$_Vector_val@PAVQuestData@@V?$allocator@PAVQuestData@@@std@@@std@@@std@@@std@@YAHV?$_Vector_iterator@V?$_Vector_val@PAVQuestData@@V?$allocator@PAVQuestData@@@std@@@std@@@0@0@Z ; std::distance<std::_Vector_iterator<std::_Vector_val<QuestData *,std::allocator<QuestData *> > > >
; Function compile flags: /Ogsp
; File c:\program files (x86)\microsoft visual studio 10.0\vc\include\xutility
;	COMDAT ??$distance@V?$_Vector_iterator@V?$_Vector_val@PAVQuestData@@V?$allocator@PAVQuestData@@@std@@@std@@@std@@@std@@YAHV?$_Vector_iterator@V?$_Vector_val@PAVQuestData@@V?$allocator@PAVQuestData@@@std@@@std@@@0@0@Z
_TEXT	SEGMENT
__First$ = 8						; size = 4
__Last$ = 12						; size = 4
??$distance@V?$_Vector_iterator@V?$_Vector_val@PAVQuestData@@V?$allocator@PAVQuestData@@@std@@@std@@@std@@@std@@YAHV?$_Vector_iterator@V?$_Vector_val@PAVQuestData@@V?$allocator@PAVQuestData@@@std@@@std@@@0@0@Z PROC ; std::distance<std::_Vector_iterator<std::_Vector_val<QuestData *,std::allocator<QuestData *> > > >, COMDAT

; 900  : 	{	// return distance between iterators

  00000	55		 push	 ebp
  00001	8b ec		 mov	 ebp, esp

; 901  : 	typename iterator_traits<_InIt>::difference_type _Off = 0;
; 902  : 	_Distance2(_First, _Last, _Off, _Iter_cat(_First));

  00003	8b 45 0c	 mov	 eax, DWORD PTR __Last$[ebp]
  00006	2b 45 08	 sub	 eax, DWORD PTR __First$[ebp]
  00009	c1 f8 02	 sar	 eax, 2

; 903  : 	return (_Off);
; 904  : 	}

  0000c	5d		 pop	 ebp
  0000d	c3		 ret	 0
??$distance@V?$_Vector_iterator@V?$_Vector_val@PAVQuestData@@V?$allocator@PAVQuestData@@@std@@@std@@@std@@@std@@YAHV?$_Vector_iterator@V?$_Vector_val@PAVQuestData@@V?$allocator@PAVQuestData@@@std@@@std@@@0@0@Z ENDP ; std::distance<std::_Vector_iterator<std::_Vector_val<QuestData *,std::allocator<QuestData *> > > >
_TEXT	ENDS
PUBLIC	??$advance@V?$_Vector_iterator@V?$_Vector_val@PAVQuestData@@V?$allocator@PAVQuestData@@@std@@@std@@@std@@H@std@@YAXAAV?$_Vector_iterator@V?$_Vector_val@PAVQuestData@@V?$allocator@PAVQuestData@@@std@@@std@@@0@H@Z ; std::advance<std::_Vector_iterator<std::_Vector_val<QuestData *,std::allocator<QuestData *> > >,int>
; Function compile flags: /Ogsp
;	COMDAT ??$advance@V?$_Vector_iterator@V?$_Vector_val@PAVQuestData@@V?$allocator@PAVQuestData@@@std@@@std@@@std@@H@std@@YAXAAV?$_Vector_iterator@V?$_Vector_val@PAVQuestData@@V?$allocator@PAVQuestData@@@std@@@std@@@0@H@Z
_TEXT	SEGMENT
__Where$ = 8						; size = 4
__Off$ = 12						; size = 4
??$advance@V?$_Vector_iterator@V?$_Vector_val@PAVQuestData@@V?$allocator@PAVQuestData@@@std@@@std@@@std@@H@std@@YAXAAV?$_Vector_iterator@V?$_Vector_val@PAVQuestData@@V?$allocator@PAVQuestData@@@std@@@std@@@0@H@Z PROC ; std::advance<std::_Vector_iterator<std::_Vector_val<QuestData *,std::allocator<QuestData *> > >,int>, COMDAT

; 797  : 	{	// increment iterator by offset, arbitrary iterators

  00000	55		 push	 ebp
  00001	8b ec		 mov	 ebp, esp

; 798  : 	_Advance(_Where, _Off, _Iter_cat(_Where));

  00003	8b 4d 0c	 mov	 ecx, DWORD PTR __Off$[ebp]
  00006	8b 45 08	 mov	 eax, DWORD PTR __Where$[ebp]
  00009	c1 e1 02	 shl	 ecx, 2
  0000c	01 08		 add	 DWORD PTR [eax], ecx

; 799  : 	}

  0000e	5d		 pop	 ebp
  0000f	c3		 ret	 0
??$advance@V?$_Vector_iterator@V?$_Vector_val@PAVQuestData@@V?$allocator@PAVQuestData@@@std@@@std@@@std@@H@std@@YAXAAV?$_Vector_iterator@V?$_Vector_val@PAVQuestData@@V?$allocator@PAVQuestData@@@std@@@std@@@0@H@Z ENDP ; std::advance<std::_Vector_iterator<std::_Vector_val<QuestData *,std::allocator<QuestData *> > >,int>
_TEXT	ENDS
PUBLIC	??$iter_swap@PAPAVQuestCompleteData@@PAPAV1@@std@@YAXPAPAVQuestCompleteData@@0@Z ; std::iter_swap<QuestCompleteData * *,QuestCompleteData * *>
; Function compile flags: /Ogsp
;	COMDAT ??$iter_swap@PAPAVQuestCompleteData@@PAPAV1@@std@@YAXPAPAVQuestCompleteData@@0@Z
_TEXT	SEGMENT
__Left$ = 8						; size = 4
__Right$ = 12						; size = 4
??$iter_swap@PAPAVQuestCompleteData@@PAPAV1@@std@@YAXPAPAVQuestCompleteData@@0@Z PROC ; std::iter_swap<QuestCompleteData * *,QuestCompleteData * *>, COMDAT

; 2133 : 	{	// swap *_Left and *_Right

  00000	55		 push	 ebp
  00001	8b ec		 mov	 ebp, esp

; 2134 : 	swap(*_Left, *_Right);

  00003	8b 55 0c	 mov	 edx, DWORD PTR __Right$[ebp]
  00006	8b 45 08	 mov	 eax, DWORD PTR __Left$[ebp]
  00009	8b 08		 mov	 ecx, DWORD PTR [eax]
  0000b	56		 push	 esi
  0000c	8b 32		 mov	 esi, DWORD PTR [edx]
  0000e	89 30		 mov	 DWORD PTR [eax], esi
  00010	89 0a		 mov	 DWORD PTR [edx], ecx
  00012	5e		 pop	 esi

; 2135 : 	}

  00013	5d		 pop	 ebp
  00014	c3		 ret	 0
??$iter_swap@PAPAVQuestCompleteData@@PAPAV1@@std@@YAXPAPAVQuestCompleteData@@0@Z ENDP ; std::iter_swap<QuestCompleteData * *,QuestCompleteData * *>
_TEXT	ENDS
PUBLIC	??$_Insertion_sort1@PAPAVQuestCompleteData@@VQuestCompleteDataSort@@PAV1@@std@@YAXPAPAVQuestCompleteData@@0VQuestCompleteDataSort@@0@Z ; std::_Insertion_sort1<QuestCompleteData * *,QuestCompleteDataSort,QuestCompleteData *>
; Function compile flags: /Ogsp
; File c:\program files (x86)\microsoft visual studio 10.0\vc\include\algorithm
;	COMDAT ??$_Insertion_sort1@PAPAVQuestCompleteData@@VQuestCompleteDataSort@@PAV1@@std@@YAXPAPAVQuestCompleteData@@0VQuestCompleteDataSort@@0@Z
_TEXT	SEGMENT
__Next1$508059 = -4					; size = 4
__First$ = 8						; size = 4
__Cat$510513 = 12					; size = 1
__Last$ = 12						; size = 4
__Pred$ = 16						; size = 1
___formal$ = 20						; size = 4
??$_Insertion_sort1@PAPAVQuestCompleteData@@VQuestCompleteDataSort@@PAV1@@std@@YAXPAPAVQuestCompleteData@@0VQuestCompleteDataSort@@0@Z PROC ; std::_Insertion_sort1<QuestCompleteData * *,QuestCompleteDataSort,QuestCompleteData *>, COMDAT

; 3650 : 	{	// insertion sort [_First, _Last), using _Pred

  00000	55		 push	 ebp
  00001	8b ec		 mov	 ebp, esp
  00003	51		 push	 ecx
  00004	57		 push	 edi

; 3651 : 	if (_First != _Last)

  00005	8b 7d 08	 mov	 edi, DWORD PTR __First$[ebp]
  00008	3b 7d 0c	 cmp	 edi, DWORD PTR __Last$[ebp]
  0000b	74 66		 je	 SHORT $LN6@Insertion_@2

; 3652 : 		for (_BidIt _Next = _First; ++_Next != _Last; )

  0000d	56		 push	 esi
  0000e	8d 77 04	 lea	 esi, DWORD PTR [edi+4]
  00011	3b 75 0c	 cmp	 esi, DWORD PTR __Last$[ebp]
  00014	74 5c		 je	 SHORT $LN26@Insertion_@2
  00016	53		 push	 ebx
$LL7@Insertion_@2:

; 3653 : 			{	// order next element
; 3654 : 			_BidIt _Next1 = _Next;
; 3655 : 			_Ty _Val = _Move(*_Next);
; 3656 : 
; 3657 : 			if (_DEBUG_LT_PRED(_Pred, _Val, *_First))

  00017	ff 37		 push	 DWORD PTR [edi]
  00019	8b 1e		 mov	 ebx, DWORD PTR [esi]
  0001b	53		 push	 ebx
  0001c	8d 4d 10	 lea	 ecx, DWORD PTR __Pred$[ebp]
  0001f	89 75 fc	 mov	 DWORD PTR __Next1$508059[ebp], esi
  00022	e8 00 00 00 00	 call	 ??RQuestCompleteDataSort@@QBE_NPBVQuestCompleteData@@0@Z ; QuestCompleteDataSort::operator()
  00027	84 c0		 test	 al, al
  00029	74 15		 je	 SHORT $LN5@Insertion_@2

; 3658 : 				{	// found new earliest element, move to front
; 3659 : 				_Move_backward(_First, _Next, ++_Next1);

  0002b	ff 75 0c	 push	 DWORD PTR __Cat$510513[ebp]
  0002e	8d 46 04	 lea	 eax, DWORD PTR [esi+4]
  00031	50		 push	 eax
  00032	56		 push	 esi
  00033	57		 push	 edi
  00034	e8 00 00 00 00	 call	 ??$_Move_backward@PAPAVQuestCompleteData@@PAPAV1@@std@@YAPAPAVQuestCompleteData@@PAPAV1@00U_Scalar_ptr_iterator_tag@0@@Z ; std::_Move_backward<QuestCompleteData * *,QuestCompleteData * *>
  00039	83 c4 10	 add	 esp, 16			; 00000010H

; 3660 : 				*_First = _Move(_Val);

  0003c	89 1f		 mov	 DWORD PTR [edi], ebx

; 3661 : 				}
; 3662 : 			else

  0003e	eb 29		 jmp	 SHORT $LN4@Insertion_@2
$LN5@Insertion_@2:

; 3652 : 		for (_BidIt _Next = _First; ++_Next != _Last; )

  00040	8d 7e fc	 lea	 edi, DWORD PTR [esi-4]

; 3663 : 				{	// look for insertion point after first
; 3664 : 				for (_BidIt _First1 = _Next1;
; 3665 : 					_DEBUG_LT_PRED(_Pred, _Val, *--_First1);
; 3666 : 					_Next1 = _First1)

  00043	eb 0d		 jmp	 SHORT $LN29@Insertion_@2
$LL3@Insertion_@2:

; 3667 : 					*_Next1 = _Move(*_First1);	// move hole down

  00045	8b 07		 mov	 eax, DWORD PTR [edi]
  00047	8b 4d fc	 mov	 ecx, DWORD PTR __Next1$508059[ebp]
  0004a	89 7d fc	 mov	 DWORD PTR __Next1$508059[ebp], edi
  0004d	89 01		 mov	 DWORD PTR [ecx], eax
  0004f	83 ef 04	 sub	 edi, 4
$LN29@Insertion_@2:

; 3663 : 				{	// look for insertion point after first
; 3664 : 				for (_BidIt _First1 = _Next1;
; 3665 : 					_DEBUG_LT_PRED(_Pred, _Val, *--_First1);
; 3666 : 					_Next1 = _First1)

  00052	ff 37		 push	 DWORD PTR [edi]
  00054	8d 4d 10	 lea	 ecx, DWORD PTR __Pred$[ebp]
  00057	53		 push	 ebx
  00058	e8 00 00 00 00	 call	 ??RQuestCompleteDataSort@@QBE_NPBVQuestCompleteData@@0@Z ; QuestCompleteDataSort::operator()
  0005d	84 c0		 test	 al, al
  0005f	75 e4		 jne	 SHORT $LL3@Insertion_@2

; 3668 : 				*_Next1 = _Move(_Val);	// insert element in hole

  00061	8b 45 fc	 mov	 eax, DWORD PTR __Next1$508059[ebp]
  00064	8b 7d 08	 mov	 edi, DWORD PTR __First$[ebp]
  00067	89 18		 mov	 DWORD PTR [eax], ebx
$LN4@Insertion_@2:

; 3652 : 		for (_BidIt _Next = _First; ++_Next != _Last; )

  00069	83 c6 04	 add	 esi, 4
  0006c	3b 75 0c	 cmp	 esi, DWORD PTR __Last$[ebp]
  0006f	75 a6		 jne	 SHORT $LL7@Insertion_@2
  00071	5b		 pop	 ebx
$LN26@Insertion_@2:
  00072	5e		 pop	 esi
$LN6@Insertion_@2:
  00073	5f		 pop	 edi

; 3669 : 				}
; 3670 : 			}
; 3671 : 	}

  00074	c9		 leave
  00075	c3		 ret	 0
??$_Insertion_sort1@PAPAVQuestCompleteData@@VQuestCompleteDataSort@@PAV1@@std@@YAXPAPAVQuestCompleteData@@0VQuestCompleteDataSort@@0@Z ENDP ; std::_Insertion_sort1<QuestCompleteData * *,QuestCompleteDataSort,QuestCompleteData *>
_TEXT	ENDS
PUBLIC	??$distance@V?$_Vector_iterator@V?$_Vector_val@PAVQuestCompleteData@@V?$allocator@PAVQuestCompleteData@@@std@@@std@@@std@@@std@@YAHV?$_Vector_iterator@V?$_Vector_val@PAVQuestCompleteData@@V?$allocator@PAVQuestCompleteData@@@std@@@std@@@0@0@Z ; std::distance<std::_Vector_iterator<std::_Vector_val<QuestCompleteData *,std::allocator<QuestCompleteData *> > > >
; Function compile flags: /Ogsp
; File c:\program files (x86)\microsoft visual studio 10.0\vc\include\xutility
;	COMDAT ??$distance@V?$_Vector_iterator@V?$_Vector_val@PAVQuestCompleteData@@V?$allocator@PAVQuestCompleteData@@@std@@@std@@@std@@@std@@YAHV?$_Vector_iterator@V?$_Vector_val@PAVQuestCompleteData@@V?$allocator@PAVQuestCompleteData@@@std@@@std@@@0@0@Z
_TEXT	SEGMENT
__First$ = 8						; size = 4
__Last$ = 12						; size = 4
??$distance@V?$_Vector_iterator@V?$_Vector_val@PAVQuestCompleteData@@V?$allocator@PAVQuestCompleteData@@@std@@@std@@@std@@@std@@YAHV?$_Vector_iterator@V?$_Vector_val@PAVQuestCompleteData@@V?$allocator@PAVQuestCompleteData@@@std@@@std@@@0@0@Z PROC ; std::distance<std::_Vector_iterator<std::_Vector_val<QuestCompleteData *,std::allocator<QuestCompleteData *> > > >, COMDAT

; 900  : 	{	// return distance between iterators

  00000	55		 push	 ebp
  00001	8b ec		 mov	 ebp, esp

; 901  : 	typename iterator_traits<_InIt>::difference_type _Off = 0;
; 902  : 	_Distance2(_First, _Last, _Off, _Iter_cat(_First));

  00003	8b 45 0c	 mov	 eax, DWORD PTR __Last$[ebp]
  00006	2b 45 08	 sub	 eax, DWORD PTR __First$[ebp]
  00009	c1 f8 02	 sar	 eax, 2

; 903  : 	return (_Off);
; 904  : 	}

  0000c	5d		 pop	 ebp
  0000d	c3		 ret	 0
??$distance@V?$_Vector_iterator@V?$_Vector_val@PAVQuestCompleteData@@V?$allocator@PAVQuestCompleteData@@@std@@@std@@@std@@@std@@YAHV?$_Vector_iterator@V?$_Vector_val@PAVQuestCompleteData@@V?$allocator@PAVQuestCompleteData@@@std@@@std@@@0@0@Z ENDP ; std::distance<std::_Vector_iterator<std::_Vector_val<QuestCompleteData *,std::allocator<QuestCompleteData *> > > >
_TEXT	ENDS
PUBLIC	??$advance@V?$_Vector_iterator@V?$_Vector_val@PAVQuestCompleteData@@V?$allocator@PAVQuestCompleteData@@@std@@@std@@@std@@H@std@@YAXAAV?$_Vector_iterator@V?$_Vector_val@PAVQuestCompleteData@@V?$allocator@PAVQuestCompleteData@@@std@@@std@@@0@H@Z ; std::advance<std::_Vector_iterator<std::_Vector_val<QuestCompleteData *,std::allocator<QuestCompleteData *> > >,int>
; Function compile flags: /Ogsp
;	COMDAT ??$advance@V?$_Vector_iterator@V?$_Vector_val@PAVQuestCompleteData@@V?$allocator@PAVQuestCompleteData@@@std@@@std@@@std@@H@std@@YAXAAV?$_Vector_iterator@V?$_Vector_val@PAVQuestCompleteData@@V?$allocator@PAVQuestCompleteData@@@std@@@std@@@0@H@Z
_TEXT	SEGMENT
__Where$ = 8						; size = 4
__Off$ = 12						; size = 4
??$advance@V?$_Vector_iterator@V?$_Vector_val@PAVQuestCompleteData@@V?$allocator@PAVQuestCompleteData@@@std@@@std@@@std@@H@std@@YAXAAV?$_Vector_iterator@V?$_Vector_val@PAVQuestCompleteData@@V?$allocator@PAVQuestCompleteData@@@std@@@std@@@0@H@Z PROC ; std::advance<std::_Vector_iterator<std::_Vector_val<QuestCompleteData *,std::allocator<QuestCompleteData *> > >,int>, COMDAT

; 797  : 	{	// increment iterator by offset, arbitrary iterators

  00000	55		 push	 ebp
  00001	8b ec		 mov	 ebp, esp

; 798  : 	_Advance(_Where, _Off, _Iter_cat(_Where));

  00003	8b 4d 0c	 mov	 ecx, DWORD PTR __Off$[ebp]
  00006	8b 45 08	 mov	 eax, DWORD PTR __Where$[ebp]
  00009	c1 e1 02	 shl	 ecx, 2
  0000c	01 08		 add	 DWORD PTR [eax], ecx

; 799  : 	}

  0000e	5d		 pop	 ebp
  0000f	c3		 ret	 0
??$advance@V?$_Vector_iterator@V?$_Vector_val@PAVQuestCompleteData@@V?$allocator@PAVQuestCompleteData@@@std@@@std@@@std@@H@std@@YAXAAV?$_Vector_iterator@V?$_Vector_val@PAVQuestCompleteData@@V?$allocator@PAVQuestCompleteData@@@std@@@std@@@0@H@Z ENDP ; std::advance<std::_Vector_iterator<std::_Vector_val<QuestCompleteData *,std::allocator<QuestCompleteData *> > >,int>
_TEXT	ENDS
PUBLIC	??$_Umove@PAPAVQuestData@@@?$vector@PAVQuestData@@V?$allocator@PAVQuestData@@@std@@@std@@IAEPAPAVQuestData@@PAPAV2@00@Z ; std::vector<QuestData *,std::allocator<QuestData *> >::_Umove<QuestData * *>
; Function compile flags: /Ogsp
; File c:\program files (x86)\microsoft visual studio 10.0\vc\include\vector
;	COMDAT ??$_Umove@PAPAVQuestData@@@?$vector@PAVQuestData@@V?$allocator@PAVQuestData@@@std@@@std@@IAEPAPAVQuestData@@PAPAV2@00@Z
_TEXT	SEGMENT
__First$ = 8						; size = 4
__Last$ = 12						; size = 4
__Ptr$ = 16						; size = 4
??$_Umove@PAPAVQuestData@@@?$vector@PAVQuestData@@V?$allocator@PAVQuestData@@@std@@@std@@IAEPAPAVQuestData@@PAPAV2@00@Z PROC ; std::vector<QuestData *,std::allocator<QuestData *> >::_Umove<QuestData * *>, COMDAT
; _this$ = ecx

; 1322 : 		pointer _Umove(_Iter _First, _Iter _Last, pointer _Ptr)

  00000	55		 push	 ebp
  00001	8b ec		 mov	 ebp, esp

; 1323 : 		{	// move initializing [_First, _Last), using allocator
; 1324 : 		return (_Uninitialized_move(_First, _Last,
; 1325 : 			_Ptr, this->_Alval));

  00003	83 c1 0c	 add	 ecx, 12			; 0000000cH
  00006	51		 push	 ecx
  00007	ff 75 10	 push	 DWORD PTR __Ptr$[ebp]
  0000a	ff 75 0c	 push	 DWORD PTR __Last$[ebp]
  0000d	ff 75 08	 push	 DWORD PTR __First$[ebp]
  00010	e8 00 00 00 00	 call	 ??$_Uninitialized_move@PAPAVQuestData@@PAPAV1@V?$allocator@PAVQuestData@@@std@@@std@@YAPAPAVQuestData@@PAPAV1@00AAV?$allocator@PAVQuestData@@@0@@Z ; std::_Uninitialized_move<QuestData * *,QuestData * *,std::allocator<QuestData *> >
  00015	83 c4 10	 add	 esp, 16			; 00000010H

; 1326 : 		}

  00018	5d		 pop	 ebp
  00019	c2 0c 00	 ret	 12			; 0000000cH
??$_Umove@PAPAVQuestData@@@?$vector@PAVQuestData@@V?$allocator@PAVQuestData@@@std@@@std@@IAEPAPAVQuestData@@PAPAV2@00@Z ENDP ; std::vector<QuestData *,std::allocator<QuestData *> >::_Umove<QuestData * *>
_TEXT	ENDS
PUBLIC	??$_Umove@PAPAVQuestCompleteData@@@?$vector@PAVQuestCompleteData@@V?$allocator@PAVQuestCompleteData@@@std@@@std@@IAEPAPAVQuestCompleteData@@PAPAV2@00@Z ; std::vector<QuestCompleteData *,std::allocator<QuestCompleteData *> >::_Umove<QuestCompleteData * *>
; Function compile flags: /Ogsp
;	COMDAT ??$_Umove@PAPAVQuestCompleteData@@@?$vector@PAVQuestCompleteData@@V?$allocator@PAVQuestCompleteData@@@std@@@std@@IAEPAPAVQuestCompleteData@@PAPAV2@00@Z
_TEXT	SEGMENT
__First$ = 8						; size = 4
__Last$ = 12						; size = 4
__Ptr$ = 16						; size = 4
??$_Umove@PAPAVQuestCompleteData@@@?$vector@PAVQuestCompleteData@@V?$allocator@PAVQuestCompleteData@@@std@@@std@@IAEPAPAVQuestCompleteData@@PAPAV2@00@Z PROC ; std::vector<QuestCompleteData *,std::allocator<QuestCompleteData *> >::_Umove<QuestCompleteData * *>, COMDAT
; _this$ = ecx

; 1322 : 		pointer _Umove(_Iter _First, _Iter _Last, pointer _Ptr)

  00000	55		 push	 ebp
  00001	8b ec		 mov	 ebp, esp

; 1323 : 		{	// move initializing [_First, _Last), using allocator
; 1324 : 		return (_Uninitialized_move(_First, _Last,
; 1325 : 			_Ptr, this->_Alval));

  00003	83 c1 0c	 add	 ecx, 12			; 0000000cH
  00006	51		 push	 ecx
  00007	ff 75 10	 push	 DWORD PTR __Ptr$[ebp]
  0000a	ff 75 0c	 push	 DWORD PTR __Last$[ebp]
  0000d	ff 75 08	 push	 DWORD PTR __First$[ebp]
  00010	e8 00 00 00 00	 call	 ??$_Uninitialized_move@PAPAVQuestCompleteData@@PAPAV1@V?$allocator@PAVQuestCompleteData@@@std@@@std@@YAPAPAVQuestCompleteData@@PAPAV1@00AAV?$allocator@PAVQuestCompleteData@@@0@@Z ; std::_Uninitialized_move<QuestCompleteData * *,QuestCompleteData * *,std::allocator<QuestCompleteData *> >
  00015	83 c4 10	 add	 esp, 16			; 00000010H

; 1326 : 		}

  00018	5d		 pop	 ebp
  00019	c2 0c 00	 ret	 12			; 0000000cH
??$_Umove@PAPAVQuestCompleteData@@@?$vector@PAVQuestCompleteData@@V?$allocator@PAVQuestCompleteData@@@std@@@std@@IAEPAPAVQuestCompleteData@@PAPAV2@00@Z ENDP ; std::vector<QuestCompleteData *,std::allocator<QuestCompleteData *> >::_Umove<QuestCompleteData * *>
_TEXT	ENDS
PUBLIC	??$_Med3@PAPAVQuestData@@VQuestDataSort@@@std@@YAXPAPAVQuestData@@00VQuestDataSort@@@Z ; std::_Med3<QuestData * *,QuestDataSort>
; Function compile flags: /Ogsp
; File c:\program files (x86)\microsoft visual studio 10.0\vc\include\algorithm
;	COMDAT ??$_Med3@PAPAVQuestData@@VQuestDataSort@@@std@@YAXPAPAVQuestData@@00VQuestDataSort@@@Z
_TEXT	SEGMENT
__First$ = 8						; size = 4
__Mid$ = 12						; size = 4
__Last$ = 16						; size = 4
__Pred$ = 20						; size = 1
??$_Med3@PAPAVQuestData@@VQuestDataSort@@@std@@YAXPAPAVQuestData@@00VQuestDataSort@@@Z PROC ; std::_Med3<QuestData * *,QuestDataSort>, COMDAT

; 3683 : 	{	// sort median of three elements to middle

  00000	55		 push	 ebp
  00001	8b ec		 mov	 ebp, esp
  00003	56		 push	 esi

; 3684 : 	if (_DEBUG_LT_PRED(_Pred, *_Mid, *_First))

  00004	8b 75 0c	 mov	 esi, DWORD PTR __Mid$[ebp]
  00007	57		 push	 edi
  00008	8b 7d 08	 mov	 edi, DWORD PTR __First$[ebp]
  0000b	ff 37		 push	 DWORD PTR [edi]
  0000d	8d 4d 14	 lea	 ecx, DWORD PTR __Pred$[ebp]
  00010	ff 36		 push	 DWORD PTR [esi]
  00012	e8 00 00 00 00	 call	 ??RQuestDataSort@@QBE_NPBVQuestData@@0@Z ; QuestDataSort::operator()
  00017	84 c0		 test	 al, al
  00019	74 08		 je	 SHORT $LN8@Med3

; 3685 : 		_STD iter_swap(_Mid, _First);

  0001b	8b 0f		 mov	 ecx, DWORD PTR [edi]
  0001d	8b 06		 mov	 eax, DWORD PTR [esi]
  0001f	89 0e		 mov	 DWORD PTR [esi], ecx
  00021	89 07		 mov	 DWORD PTR [edi], eax
$LN8@Med3:

; 3686 : 	if (_DEBUG_LT_PRED(_Pred, *_Last, *_Mid))

  00023	53		 push	 ebx
  00024	ff 36		 push	 DWORD PTR [esi]
  00026	8b 5d 10	 mov	 ebx, DWORD PTR __Last$[ebp]
  00029	ff 33		 push	 DWORD PTR [ebx]
  0002b	8d 4d 14	 lea	 ecx, DWORD PTR __Pred$[ebp]
  0002e	e8 00 00 00 00	 call	 ??RQuestDataSort@@QBE_NPBVQuestData@@0@Z ; QuestDataSort::operator()
  00033	84 c0		 test	 al, al
  00035	74 08		 je	 SHORT $LN18@Med3

; 3687 : 		_STD iter_swap(_Last, _Mid);

  00037	8b 0e		 mov	 ecx, DWORD PTR [esi]
  00039	8b 03		 mov	 eax, DWORD PTR [ebx]
  0003b	89 0b		 mov	 DWORD PTR [ebx], ecx
  0003d	89 06		 mov	 DWORD PTR [esi], eax
$LN18@Med3:

; 3688 : 	if (_DEBUG_LT_PRED(_Pred, *_Mid, *_First))

  0003f	ff 37		 push	 DWORD PTR [edi]
  00041	8d 4d 14	 lea	 ecx, DWORD PTR __Pred$[ebp]
  00044	ff 36		 push	 DWORD PTR [esi]
  00046	e8 00 00 00 00	 call	 ??RQuestDataSort@@QBE_NPBVQuestData@@0@Z ; QuestDataSort::operator()
  0004b	5b		 pop	 ebx
  0004c	84 c0		 test	 al, al
  0004e	74 08		 je	 SHORT $LN28@Med3

; 3689 : 		_STD iter_swap(_Mid, _First);

  00050	8b 0f		 mov	 ecx, DWORD PTR [edi]
  00052	8b 06		 mov	 eax, DWORD PTR [esi]
  00054	89 0e		 mov	 DWORD PTR [esi], ecx
  00056	89 07		 mov	 DWORD PTR [edi], eax
$LN28@Med3:
  00058	5f		 pop	 edi
  00059	5e		 pop	 esi

; 3690 : 	}

  0005a	5d		 pop	 ebp
  0005b	c3		 ret	 0
??$_Med3@PAPAVQuestData@@VQuestDataSort@@@std@@YAXPAPAVQuestData@@00VQuestDataSort@@@Z ENDP ; std::_Med3<QuestData * *,QuestDataSort>
_TEXT	ENDS
PUBLIC	??$_Rotate@PAPAVQuestData@@HPAV1@@std@@YAXPAPAVQuestData@@00PAH0@Z ; std::_Rotate<QuestData * *,int,QuestData *>
; Function compile flags: /Ogsp
; File c:\program files (x86)\microsoft visual studio 10.0\vc\include\xutility
;	COMDAT ??$_Rotate@PAPAVQuestData@@HPAV1@@std@@YAXPAPAVQuestData@@00PAH0@Z
_TEXT	SEGMENT
__First$ = 8						; size = 4
__Count$ = 12						; size = 4
__Mid$ = 12						; size = 4
__Last$ = 16						; size = 4
___formal$ = 20						; size = 4
___formal$ = 24						; size = 4
??$_Rotate@PAPAVQuestData@@HPAV1@@std@@YAXPAPAVQuestData@@00PAH0@Z PROC ; std::_Rotate<QuestData * *,int,QuestData *>, COMDAT

; 3256 : 	{	// rotate [_First, _Last), random-access iterators

  00000	55		 push	 ebp
  00001	8b ec		 mov	 ebp, esp

; 3257 : 	_Diff _Shift = _Mid - _First;

  00003	8b 4d 0c	 mov	 ecx, DWORD PTR __Mid$[ebp]
  00006	53		 push	 ebx
  00007	8b 5d 08	 mov	 ebx, DWORD PTR __First$[ebp]
  0000a	56		 push	 esi

; 3258 : 	_Diff _Count = _Last - _First;

  0000b	8b 75 10	 mov	 esi, DWORD PTR __Last$[ebp]
  0000e	2b cb		 sub	 ecx, ebx
  00010	2b f3		 sub	 esi, ebx
  00012	c1 f9 02	 sar	 ecx, 2
  00015	c1 fe 02	 sar	 esi, 2
  00018	57		 push	 edi
  00019	8b c6		 mov	 eax, esi
  0001b	89 75 0c	 mov	 DWORD PTR __Count$[ebp], esi

; 3259 : 
; 3260 : 	for (_Diff _Factor = _Shift; _Factor != 0; )

  0001e	8b f9		 mov	 edi, ecx
  00020	85 c9		 test	 ecx, ecx
  00022	74 0e		 je	 SHORT $LN8@Rotate
$LL9@Rotate:

; 3261 : 		{	// find subcycle count as GCD of shift count and length
; 3262 : 		_Diff _Tmp = _Count % _Factor;

  00024	99		 cdq
  00025	f7 ff		 idiv	 edi

; 3263 : 		_Count = _Factor;

  00027	8b c7		 mov	 eax, edi

; 3264 : 		_Factor = _Tmp;

  00029	8b fa		 mov	 edi, edx
  0002b	85 d2		 test	 edx, edx
  0002d	75 f5		 jne	 SHORT $LL9@Rotate

; 3263 : 		_Count = _Factor;

  0002f	89 45 0c	 mov	 DWORD PTR __Count$[ebp], eax
$LN8@Rotate:

; 3265 : 		}
; 3266 : 
; 3267 : 	if (_Count < _Last - _First)

  00032	3b c6		 cmp	 eax, esi
  00034	7d 4d		 jge	 SHORT $LN4@Rotate

; 3268 : 		for (; 0 < _Count; --_Count)

  00036	85 c0		 test	 eax, eax
  00038	7e 49		 jle	 SHORT $LN4@Rotate
  0003a	8d 04 83	 lea	 eax, DWORD PTR [ebx+eax*4]
$LL34@Rotate:

; 3269 : 			{	// rotate each subcycle
; 3270 : 			_RanIt _Hole = _First + _Count;
; 3271 : 			_RanIt _Next = _Hole;
; 3272 : 			_RanIt _Next1 = _Next + _Shift == _Last ? _First : _Next + _Shift;

  0003d	8d 14 88	 lea	 edx, DWORD PTR [eax+ecx*4]
  00040	8b f8		 mov	 edi, eax
  00042	3b 55 10	 cmp	 edx, DWORD PTR __Last$[ebp]
  00045	75 03		 jne	 SHORT $LL12@Rotate
  00047	8b 55 08	 mov	 edx, DWORD PTR __First$[ebp]
$LL12@Rotate:

; 3273 : 			for (; ; )
; 3274 : 				{	// percolate elements back around subcycle
; 3275 : 				iter_swap(_Next, _Next1);

  0004a	8b 37		 mov	 esi, DWORD PTR [edi]
  0004c	8b 1a		 mov	 ebx, DWORD PTR [edx]
  0004e	89 1f		 mov	 DWORD PTR [edi], ebx
  00050	89 32		 mov	 DWORD PTR [edx], esi

; 3276 : 				_Next = _Next1;
; 3277 : 				_Next1 = _Shift < _Last - _Next1 ? _Next1 + _Shift
; 3278 : 					: _First + (_Shift - (_Last - _Next1));

  00052	8b 75 10	 mov	 esi, DWORD PTR __Last$[ebp]
  00055	2b f2		 sub	 esi, edx
  00057	c1 fe 02	 sar	 esi, 2
  0005a	8b fa		 mov	 edi, edx
  0005c	3b ce		 cmp	 ecx, esi
  0005e	7d 09		 jge	 SHORT $LN14@Rotate
  00060	8b f1		 mov	 esi, ecx
  00062	c1 e6 02	 shl	 esi, 2
  00065	03 d6		 add	 edx, esi
  00067	eb 0a		 jmp	 SHORT $LN15@Rotate
$LN14@Rotate:
  00069	8b d1		 mov	 edx, ecx
  0006b	2b d6		 sub	 edx, esi
  0006d	8b 75 08	 mov	 esi, DWORD PTR __First$[ebp]
  00070	8d 14 96	 lea	 edx, DWORD PTR [esi+edx*4]
$LN15@Rotate:

; 3279 : 				if (_Next1 == _Hole)

  00073	3b d0		 cmp	 edx, eax
  00075	75 d3		 jne	 SHORT $LL12@Rotate

; 3268 : 		for (; 0 < _Count; --_Count)

  00077	ff 4d 0c	 dec	 DWORD PTR __Count$[ebp]
  0007a	83 e8 04	 sub	 eax, 4
  0007d	83 7d 0c 00	 cmp	 DWORD PTR __Count$[ebp], 0
  00081	7f ba		 jg	 SHORT $LL34@Rotate
$LN4@Rotate:
  00083	5f		 pop	 edi
  00084	5e		 pop	 esi
  00085	5b		 pop	 ebx

; 3280 : 					break;
; 3281 : 				}
; 3282 : 			}
; 3283 : 	}

  00086	5d		 pop	 ebp
  00087	c3		 ret	 0
??$_Rotate@PAPAVQuestData@@HPAV1@@std@@YAXPAPAVQuestData@@00PAH0@Z ENDP ; std::_Rotate<QuestData * *,int,QuestData *>
_TEXT	ENDS
PUBLIC	??$_Med3@PAPAVQuestCompleteData@@VQuestCompleteDataSort@@@std@@YAXPAPAVQuestCompleteData@@00VQuestCompleteDataSort@@@Z ; std::_Med3<QuestCompleteData * *,QuestCompleteDataSort>
; Function compile flags: /Ogsp
; File c:\program files (x86)\microsoft visual studio 10.0\vc\include\algorithm
;	COMDAT ??$_Med3@PAPAVQuestCompleteData@@VQuestCompleteDataSort@@@std@@YAXPAPAVQuestCompleteData@@00VQuestCompleteDataSort@@@Z
_TEXT	SEGMENT
__First$ = 8						; size = 4
__Mid$ = 12						; size = 4
__Last$ = 16						; size = 4
__Pred$ = 20						; size = 1
??$_Med3@PAPAVQuestCompleteData@@VQuestCompleteDataSort@@@std@@YAXPAPAVQuestCompleteData@@00VQuestCompleteDataSort@@@Z PROC ; std::_Med3<QuestCompleteData * *,QuestCompleteDataSort>, COMDAT

; 3683 : 	{	// sort median of three elements to middle

  00000	55		 push	 ebp
  00001	8b ec		 mov	 ebp, esp
  00003	56		 push	 esi

; 3684 : 	if (_DEBUG_LT_PRED(_Pred, *_Mid, *_First))

  00004	8b 75 0c	 mov	 esi, DWORD PTR __Mid$[ebp]
  00007	57		 push	 edi
  00008	8b 7d 08	 mov	 edi, DWORD PTR __First$[ebp]
  0000b	ff 37		 push	 DWORD PTR [edi]
  0000d	8d 4d 14	 lea	 ecx, DWORD PTR __Pred$[ebp]
  00010	ff 36		 push	 DWORD PTR [esi]
  00012	e8 00 00 00 00	 call	 ??RQuestCompleteDataSort@@QBE_NPBVQuestCompleteData@@0@Z ; QuestCompleteDataSort::operator()
  00017	84 c0		 test	 al, al
  00019	74 08		 je	 SHORT $LN8@Med3@2

; 3685 : 		_STD iter_swap(_Mid, _First);

  0001b	8b 0f		 mov	 ecx, DWORD PTR [edi]
  0001d	8b 06		 mov	 eax, DWORD PTR [esi]
  0001f	89 0e		 mov	 DWORD PTR [esi], ecx
  00021	89 07		 mov	 DWORD PTR [edi], eax
$LN8@Med3@2:

; 3686 : 	if (_DEBUG_LT_PRED(_Pred, *_Last, *_Mid))

  00023	53		 push	 ebx
  00024	ff 36		 push	 DWORD PTR [esi]
  00026	8b 5d 10	 mov	 ebx, DWORD PTR __Last$[ebp]
  00029	ff 33		 push	 DWORD PTR [ebx]
  0002b	8d 4d 14	 lea	 ecx, DWORD PTR __Pred$[ebp]
  0002e	e8 00 00 00 00	 call	 ??RQuestCompleteDataSort@@QBE_NPBVQuestCompleteData@@0@Z ; QuestCompleteDataSort::operator()
  00033	84 c0		 test	 al, al
  00035	74 08		 je	 SHORT $LN18@Med3@2

; 3687 : 		_STD iter_swap(_Last, _Mid);

  00037	8b 0e		 mov	 ecx, DWORD PTR [esi]
  00039	8b 03		 mov	 eax, DWORD PTR [ebx]
  0003b	89 0b		 mov	 DWORD PTR [ebx], ecx
  0003d	89 06		 mov	 DWORD PTR [esi], eax
$LN18@Med3@2:

; 3688 : 	if (_DEBUG_LT_PRED(_Pred, *_Mid, *_First))

  0003f	ff 37		 push	 DWORD PTR [edi]
  00041	8d 4d 14	 lea	 ecx, DWORD PTR __Pred$[ebp]
  00044	ff 36		 push	 DWORD PTR [esi]
  00046	e8 00 00 00 00	 call	 ??RQuestCompleteDataSort@@QBE_NPBVQuestCompleteData@@0@Z ; QuestCompleteDataSort::operator()
  0004b	5b		 pop	 ebx
  0004c	84 c0		 test	 al, al
  0004e	74 08		 je	 SHORT $LN28@Med3@2

; 3689 : 		_STD iter_swap(_Mid, _First);

  00050	8b 0f		 mov	 ecx, DWORD PTR [edi]
  00052	8b 06		 mov	 eax, DWORD PTR [esi]
  00054	89 0e		 mov	 DWORD PTR [esi], ecx
  00056	89 07		 mov	 DWORD PTR [edi], eax
$LN28@Med3@2:
  00058	5f		 pop	 edi
  00059	5e		 pop	 esi

; 3690 : 	}

  0005a	5d		 pop	 ebp
  0005b	c3		 ret	 0
??$_Med3@PAPAVQuestCompleteData@@VQuestCompleteDataSort@@@std@@YAXPAPAVQuestCompleteData@@00VQuestCompleteDataSort@@@Z ENDP ; std::_Med3<QuestCompleteData * *,QuestCompleteDataSort>
_TEXT	ENDS
PUBLIC	??$_Rotate@PAPAVQuestCompleteData@@HPAV1@@std@@YAXPAPAVQuestCompleteData@@00PAH0@Z ; std::_Rotate<QuestCompleteData * *,int,QuestCompleteData *>
; Function compile flags: /Ogsp
; File c:\program files (x86)\microsoft visual studio 10.0\vc\include\xutility
;	COMDAT ??$_Rotate@PAPAVQuestCompleteData@@HPAV1@@std@@YAXPAPAVQuestCompleteData@@00PAH0@Z
_TEXT	SEGMENT
__First$ = 8						; size = 4
__Count$ = 12						; size = 4
__Mid$ = 12						; size = 4
__Last$ = 16						; size = 4
___formal$ = 20						; size = 4
___formal$ = 24						; size = 4
??$_Rotate@PAPAVQuestCompleteData@@HPAV1@@std@@YAXPAPAVQuestCompleteData@@00PAH0@Z PROC ; std::_Rotate<QuestCompleteData * *,int,QuestCompleteData *>, COMDAT

; 3256 : 	{	// rotate [_First, _Last), random-access iterators

  00000	55		 push	 ebp
  00001	8b ec		 mov	 ebp, esp

; 3257 : 	_Diff _Shift = _Mid - _First;

  00003	8b 4d 0c	 mov	 ecx, DWORD PTR __Mid$[ebp]
  00006	53		 push	 ebx
  00007	8b 5d 08	 mov	 ebx, DWORD PTR __First$[ebp]
  0000a	56		 push	 esi

; 3258 : 	_Diff _Count = _Last - _First;

  0000b	8b 75 10	 mov	 esi, DWORD PTR __Last$[ebp]
  0000e	2b cb		 sub	 ecx, ebx
  00010	2b f3		 sub	 esi, ebx
  00012	c1 f9 02	 sar	 ecx, 2
  00015	c1 fe 02	 sar	 esi, 2
  00018	57		 push	 edi
  00019	8b c6		 mov	 eax, esi
  0001b	89 75 0c	 mov	 DWORD PTR __Count$[ebp], esi

; 3259 : 
; 3260 : 	for (_Diff _Factor = _Shift; _Factor != 0; )

  0001e	8b f9		 mov	 edi, ecx
  00020	85 c9		 test	 ecx, ecx
  00022	74 0e		 je	 SHORT $LN8@Rotate@2
$LL9@Rotate@2:

; 3261 : 		{	// find subcycle count as GCD of shift count and length
; 3262 : 		_Diff _Tmp = _Count % _Factor;

  00024	99		 cdq
  00025	f7 ff		 idiv	 edi

; 3263 : 		_Count = _Factor;

  00027	8b c7		 mov	 eax, edi

; 3264 : 		_Factor = _Tmp;

  00029	8b fa		 mov	 edi, edx
  0002b	85 d2		 test	 edx, edx
  0002d	75 f5		 jne	 SHORT $LL9@Rotate@2

; 3263 : 		_Count = _Factor;

  0002f	89 45 0c	 mov	 DWORD PTR __Count$[ebp], eax
$LN8@Rotate@2:

; 3265 : 		}
; 3266 : 
; 3267 : 	if (_Count < _Last - _First)

  00032	3b c6		 cmp	 eax, esi
  00034	7d 4d		 jge	 SHORT $LN4@Rotate@2

; 3268 : 		for (; 0 < _Count; --_Count)

  00036	85 c0		 test	 eax, eax
  00038	7e 49		 jle	 SHORT $LN4@Rotate@2
  0003a	8d 04 83	 lea	 eax, DWORD PTR [ebx+eax*4]
$LL34@Rotate@2:

; 3269 : 			{	// rotate each subcycle
; 3270 : 			_RanIt _Hole = _First + _Count;
; 3271 : 			_RanIt _Next = _Hole;
; 3272 : 			_RanIt _Next1 = _Next + _Shift == _Last ? _First : _Next + _Shift;

  0003d	8d 14 88	 lea	 edx, DWORD PTR [eax+ecx*4]
  00040	8b f8		 mov	 edi, eax
  00042	3b 55 10	 cmp	 edx, DWORD PTR __Last$[ebp]
  00045	75 03		 jne	 SHORT $LL12@Rotate@2
  00047	8b 55 08	 mov	 edx, DWORD PTR __First$[ebp]
$LL12@Rotate@2:

; 3273 : 			for (; ; )
; 3274 : 				{	// percolate elements back around subcycle
; 3275 : 				iter_swap(_Next, _Next1);

  0004a	8b 37		 mov	 esi, DWORD PTR [edi]
  0004c	8b 1a		 mov	 ebx, DWORD PTR [edx]
  0004e	89 1f		 mov	 DWORD PTR [edi], ebx
  00050	89 32		 mov	 DWORD PTR [edx], esi

; 3276 : 				_Next = _Next1;
; 3277 : 				_Next1 = _Shift < _Last - _Next1 ? _Next1 + _Shift
; 3278 : 					: _First + (_Shift - (_Last - _Next1));

  00052	8b 75 10	 mov	 esi, DWORD PTR __Last$[ebp]
  00055	2b f2		 sub	 esi, edx
  00057	c1 fe 02	 sar	 esi, 2
  0005a	8b fa		 mov	 edi, edx
  0005c	3b ce		 cmp	 ecx, esi
  0005e	7d 09		 jge	 SHORT $LN14@Rotate@2
  00060	8b f1		 mov	 esi, ecx
  00062	c1 e6 02	 shl	 esi, 2
  00065	03 d6		 add	 edx, esi
  00067	eb 0a		 jmp	 SHORT $LN15@Rotate@2
$LN14@Rotate@2:
  00069	8b d1		 mov	 edx, ecx
  0006b	2b d6		 sub	 edx, esi
  0006d	8b 75 08	 mov	 esi, DWORD PTR __First$[ebp]
  00070	8d 14 96	 lea	 edx, DWORD PTR [esi+edx*4]
$LN15@Rotate@2:

; 3279 : 				if (_Next1 == _Hole)

  00073	3b d0		 cmp	 edx, eax
  00075	75 d3		 jne	 SHORT $LL12@Rotate@2

; 3268 : 		for (; 0 < _Count; --_Count)

  00077	ff 4d 0c	 dec	 DWORD PTR __Count$[ebp]
  0007a	83 e8 04	 sub	 eax, 4
  0007d	83 7d 0c 00	 cmp	 DWORD PTR __Count$[ebp], 0
  00081	7f ba		 jg	 SHORT $LL34@Rotate@2
$LN4@Rotate@2:
  00083	5f		 pop	 edi
  00084	5e		 pop	 esi
  00085	5b		 pop	 ebx

; 3280 : 					break;
; 3281 : 				}
; 3282 : 			}
; 3283 : 	}

  00086	5d		 pop	 ebp
  00087	c3		 ret	 0
??$_Rotate@PAPAVQuestCompleteData@@HPAV1@@std@@YAXPAPAVQuestCompleteData@@00PAH0@Z ENDP ; std::_Rotate<QuestCompleteData * *,int,QuestCompleteData *>
_TEXT	ENDS
PUBLIC	??$_Push_heap@PAPAVQuestData@@HPAV1@VQuestDataSort@@@std@@YAXPAPAVQuestData@@HH$$QAPAV1@VQuestDataSort@@@Z ; std::_Push_heap<QuestData * *,int,QuestData *,QuestDataSort>
; Function compile flags: /Ogsp
; File c:\program files (x86)\microsoft visual studio 10.0\vc\include\algorithm
;	COMDAT ??$_Push_heap@PAPAVQuestData@@HPAV1@VQuestDataSort@@@std@@YAXPAPAVQuestData@@HH$$QAPAV1@VQuestDataSort@@@Z
_TEXT	SEGMENT
__First$ = 8						; size = 4
__Hole$ = 12						; size = 4
__Top$ = 16						; size = 4
__Val$ = 20						; size = 4
__Pred$ = 24						; size = 1
??$_Push_heap@PAPAVQuestData@@HPAV1@VQuestDataSort@@@std@@YAXPAPAVQuestData@@HH$$QAPAV1@VQuestDataSort@@@Z PROC ; std::_Push_heap<QuestData * *,int,QuestData *,QuestDataSort>, COMDAT

; 2455 : 	{	// percolate _Hole to _Top or where _Val belongs, using operator<

  00000	55		 push	 ebp
  00001	8b ec		 mov	 ebp, esp
  00003	53		 push	 ebx

; 2456 : 	for (_Diff _Idx = (_Hole - 1) / 2;
; 2457 : 		_Top < _Hole && _DEBUG_LT_PRED(_Pred, *(_First + _Idx), _Val);
; 2458 : 		_Idx = (_Hole - 1) / 2)

  00004	8b 5d 08	 mov	 ebx, DWORD PTR __First$[ebp]
  00007	56		 push	 esi
  00008	57		 push	 edi
  00009	8b 7d 0c	 mov	 edi, DWORD PTR __Hole$[ebp]
  0000c	8d 47 ff	 lea	 eax, DWORD PTR [edi-1]
  0000f	99		 cdq
  00010	2b c2		 sub	 eax, edx
  00012	8b f0		 mov	 esi, eax
  00014	d1 fe		 sar	 esi, 1
  00016	eb 26		 jmp	 SHORT $LN12@Push_heap
$LL3@Push_heap:
  00018	8b 45 14	 mov	 eax, DWORD PTR __Val$[ebp]
  0001b	ff 30		 push	 DWORD PTR [eax]
  0001d	8d 4d 18	 lea	 ecx, DWORD PTR __Pred$[ebp]
  00020	ff 34 b3	 push	 DWORD PTR [ebx+esi*4]
  00023	e8 00 00 00 00	 call	 ??RQuestDataSort@@QBE_NPBVQuestData@@0@Z ; QuestDataSort::operator()
  00028	84 c0		 test	 al, al
  0002a	74 17		 je	 SHORT $LN1@Push_heap

; 2459 : 		{	// move _Hole up to parent
; 2460 : 		*(_First + _Hole) = _Move(*(_First + _Idx));

  0002c	8b 04 b3	 mov	 eax, DWORD PTR [ebx+esi*4]
  0002f	89 04 bb	 mov	 DWORD PTR [ebx+edi*4], eax
  00032	8d 46 ff	 lea	 eax, DWORD PTR [esi-1]
  00035	99		 cdq
  00036	2b c2		 sub	 eax, edx
  00038	d1 f8		 sar	 eax, 1

; 2461 : 		_Hole = _Idx;

  0003a	8b fe		 mov	 edi, esi
  0003c	8b f0		 mov	 esi, eax
$LN12@Push_heap:

; 2456 : 	for (_Diff _Idx = (_Hole - 1) / 2;
; 2457 : 		_Top < _Hole && _DEBUG_LT_PRED(_Pred, *(_First + _Idx), _Val);
; 2458 : 		_Idx = (_Hole - 1) / 2)

  0003e	39 7d 10	 cmp	 DWORD PTR __Top$[ebp], edi
  00041	7c d5		 jl	 SHORT $LL3@Push_heap
$LN1@Push_heap:

; 2462 : 		}
; 2463 : 
; 2464 : 	*(_First + _Hole) = _Move(_Val);	// drop _Val into final hole

  00043	8b 45 14	 mov	 eax, DWORD PTR __Val$[ebp]
  00046	8b 00		 mov	 eax, DWORD PTR [eax]
  00048	89 04 bb	 mov	 DWORD PTR [ebx+edi*4], eax
  0004b	5f		 pop	 edi
  0004c	5e		 pop	 esi
  0004d	5b		 pop	 ebx

; 2465 : 	}

  0004e	5d		 pop	 ebp
  0004f	c3		 ret	 0
??$_Push_heap@PAPAVQuestData@@HPAV1@VQuestDataSort@@@std@@YAXPAPAVQuestData@@HH$$QAPAV1@VQuestDataSort@@@Z ENDP ; std::_Push_heap<QuestData * *,int,QuestData *,QuestDataSort>
_TEXT	ENDS
PUBLIC	??$_Push_heap@PAPAVQuestCompleteData@@HPAV1@VQuestCompleteDataSort@@@std@@YAXPAPAVQuestCompleteData@@HH$$QAPAV1@VQuestCompleteDataSort@@@Z ; std::_Push_heap<QuestCompleteData * *,int,QuestCompleteData *,QuestCompleteDataSort>
; Function compile flags: /Ogsp
;	COMDAT ??$_Push_heap@PAPAVQuestCompleteData@@HPAV1@VQuestCompleteDataSort@@@std@@YAXPAPAVQuestCompleteData@@HH$$QAPAV1@VQuestCompleteDataSort@@@Z
_TEXT	SEGMENT
__First$ = 8						; size = 4
__Hole$ = 12						; size = 4
__Top$ = 16						; size = 4
__Val$ = 20						; size = 4
__Pred$ = 24						; size = 1
??$_Push_heap@PAPAVQuestCompleteData@@HPAV1@VQuestCompleteDataSort@@@std@@YAXPAPAVQuestCompleteData@@HH$$QAPAV1@VQuestCompleteDataSort@@@Z PROC ; std::_Push_heap<QuestCompleteData * *,int,QuestCompleteData *,QuestCompleteDataSort>, COMDAT

; 2455 : 	{	// percolate _Hole to _Top or where _Val belongs, using operator<

  00000	55		 push	 ebp
  00001	8b ec		 mov	 ebp, esp
  00003	53		 push	 ebx

; 2456 : 	for (_Diff _Idx = (_Hole - 1) / 2;
; 2457 : 		_Top < _Hole && _DEBUG_LT_PRED(_Pred, *(_First + _Idx), _Val);
; 2458 : 		_Idx = (_Hole - 1) / 2)

  00004	8b 5d 08	 mov	 ebx, DWORD PTR __First$[ebp]
  00007	56		 push	 esi
  00008	57		 push	 edi
  00009	8b 7d 0c	 mov	 edi, DWORD PTR __Hole$[ebp]
  0000c	8d 47 ff	 lea	 eax, DWORD PTR [edi-1]
  0000f	99		 cdq
  00010	2b c2		 sub	 eax, edx
  00012	8b f0		 mov	 esi, eax
  00014	d1 fe		 sar	 esi, 1
  00016	eb 26		 jmp	 SHORT $LN12@Push_heap@2
$LL3@Push_heap@2:
  00018	8b 45 14	 mov	 eax, DWORD PTR __Val$[ebp]
  0001b	ff 30		 push	 DWORD PTR [eax]
  0001d	8d 4d 18	 lea	 ecx, DWORD PTR __Pred$[ebp]
  00020	ff 34 b3	 push	 DWORD PTR [ebx+esi*4]
  00023	e8 00 00 00 00	 call	 ??RQuestCompleteDataSort@@QBE_NPBVQuestCompleteData@@0@Z ; QuestCompleteDataSort::operator()
  00028	84 c0		 test	 al, al
  0002a	74 17		 je	 SHORT $LN1@Push_heap@2

; 2459 : 		{	// move _Hole up to parent
; 2460 : 		*(_First + _Hole) = _Move(*(_First + _Idx));

  0002c	8b 04 b3	 mov	 eax, DWORD PTR [ebx+esi*4]
  0002f	89 04 bb	 mov	 DWORD PTR [ebx+edi*4], eax
  00032	8d 46 ff	 lea	 eax, DWORD PTR [esi-1]
  00035	99		 cdq
  00036	2b c2		 sub	 eax, edx
  00038	d1 f8		 sar	 eax, 1

; 2461 : 		_Hole = _Idx;

  0003a	8b fe		 mov	 edi, esi
  0003c	8b f0		 mov	 esi, eax
$LN12@Push_heap@2:

; 2456 : 	for (_Diff _Idx = (_Hole - 1) / 2;
; 2457 : 		_Top < _Hole && _DEBUG_LT_PRED(_Pred, *(_First + _Idx), _Val);
; 2458 : 		_Idx = (_Hole - 1) / 2)

  0003e	39 7d 10	 cmp	 DWORD PTR __Top$[ebp], edi
  00041	7c d5		 jl	 SHORT $LL3@Push_heap@2
$LN1@Push_heap@2:

; 2462 : 		}
; 2463 : 
; 2464 : 	*(_First + _Hole) = _Move(_Val);	// drop _Val into final hole

  00043	8b 45 14	 mov	 eax, DWORD PTR __Val$[ebp]
  00046	8b 00		 mov	 eax, DWORD PTR [eax]
  00048	89 04 bb	 mov	 DWORD PTR [ebx+edi*4], eax
  0004b	5f		 pop	 edi
  0004c	5e		 pop	 esi
  0004d	5b		 pop	 ebx

; 2465 : 	}

  0004e	5d		 pop	 ebp
  0004f	c3		 ret	 0
??$_Push_heap@PAPAVQuestCompleteData@@HPAV1@VQuestCompleteDataSort@@@std@@YAXPAPAVQuestCompleteData@@HH$$QAPAV1@VQuestCompleteDataSort@@@Z ENDP ; std::_Push_heap<QuestCompleteData * *,int,QuestCompleteData *,QuestCompleteDataSort>
_TEXT	ENDS
PUBLIC	??4QuestData@@QAEAAV0@AAV0@@Z			; QuestData::operator=
; Function compile flags: /Ogsp
;	COMDAT ??4QuestData@@QAEAAV0@AAV0@@Z
_TEXT	SEGMENT
___that$ = 8						; size = 4
??4QuestData@@QAEAAV0@AAV0@@Z PROC			; QuestData::operator=, COMDAT
; _this$ = ecx
  00000	55		 push	 ebp
  00001	8b ec		 mov	 ebp, esp
  00003	56		 push	 esi
  00004	57		 push	 edi
  00005	8b 7d 08	 mov	 edi, DWORD PTR ___that$[ebp]
  00008	8b 47 04	 mov	 eax, DWORD PTR [edi+4]
  0000b	8b f1		 mov	 esi, ecx
  0000d	89 46 04	 mov	 DWORD PTR [esi+4], eax
  00010	8b 47 08	 mov	 eax, DWORD PTR [edi+8]
  00013	89 46 08	 mov	 DWORD PTR [esi+8], eax
  00016	8b 47 0c	 mov	 eax, DWORD PTR [edi+12]
  00019	89 46 0c	 mov	 DWORD PTR [esi+12], eax
  0001c	8d 47 10	 lea	 eax, DWORD PTR [edi+16]
  0001f	50		 push	 eax
  00020	8d 4e 10	 lea	 ecx, DWORD PTR [esi+16]
  00023	e8 00 00 00 00	 call	 ??4?$CEncrypt@K@@QAE_NAAV0@@Z ; CEncrypt<unsigned long>::operator=
  00028	8b 47 40	 mov	 eax, DWORD PTR [edi+64]
  0002b	89 46 40	 mov	 DWORD PTR [esi+64], eax
  0002e	8a 47 44	 mov	 al, BYTE PTR [edi+68]
  00031	88 46 44	 mov	 BYTE PTR [esi+68], al
  00034	5f		 pop	 edi
  00035	8b c6		 mov	 eax, esi
  00037	5e		 pop	 esi
  00038	5d		 pop	 ebp
  00039	c2 04 00	 ret	 4
??4QuestData@@QAEAAV0@AAV0@@Z ENDP			; QuestData::operator=
_TEXT	ENDS
PUBLIC	?IsQuestAttain@ioQuest@@QAE_NKK@Z		; ioQuest::IsQuestAttain
; Function compile flags: /Ogsp
; File d:\lost saga for developer\youtube\tutorial\source\src\lsclient\ioquest.cpp
;	COMDAT ?IsQuestAttain@ioQuest@@QAE_NKK@Z
_TEXT	SEGMENT
_dwMainIndex$ = 8					; size = 4
_dwSubIndex$ = 12					; size = 4
?IsQuestAttain@ioQuest@@QAE_NKK@Z PROC			; ioQuest::IsQuestAttain, COMDAT
; _this$ = ecx

; 500  : {

  00000	55		 push	 ebp
  00001	8b ec		 mov	 ebp, esp
  00003	53		 push	 ebx
  00004	56		 push	 esi
  00005	57		 push	 edi

; 501  : 	vQuestInfo::iterator iter, iEnd;
; 502  : 	iEnd = m_vItemList.end();

  00006	8b 79 08	 mov	 edi, DWORD PTR [ecx+8]

; 503  : 	for(iter = m_vItemList.begin();iter != iEnd;iter++)

  00009	8b 49 04	 mov	 ecx, DWORD PTR [ecx+4]
  0000c	eb 1a		 jmp	 SHORT $LN55@IsQuestAtt
$LL37@IsQuestAtt:

; 504  : 	{
; 505  : 		QuestData *pItemDB = *iter;

  0000e	8b 31		 mov	 esi, DWORD PTR [ecx]

; 506  : 		if( !pItemDB ) continue;

  00010	85 f6		 test	 esi, esi
  00012	74 11		 je	 SHORT $LN5@IsQuestAtt

; 507  : 		if( pItemDB->GetMainIndex() != dwMainIndex ) continue;

  00014	8b 46 04	 mov	 eax, DWORD PTR [esi+4]
  00017	33 d2		 xor	 edx, edx
  00019	bb 10 27 00 00	 mov	 ebx, 10000		; 00002710H
  0001e	f7 f3		 div	 ebx
  00020	3b 45 08	 cmp	 eax, DWORD PTR _dwMainIndex$[ebp]
  00023	74 10		 je	 SHORT $LN2@IsQuestAtt
$LN5@IsQuestAtt:

; 503  : 	for(iter = m_vItemList.begin();iter != iEnd;iter++)

  00025	83 c1 04	 add	 ecx, 4
$LN55@IsQuestAtt:
  00028	3b cf		 cmp	 ecx, edi
  0002a	75 e2		 jne	 SHORT $LL37@IsQuestAtt

; 512  : 	}
; 513  : 	return false;

  0002c	32 c0		 xor	 al, al
$LN7@IsQuestAtt:
  0002e	5f		 pop	 edi
  0002f	5e		 pop	 esi
  00030	5b		 pop	 ebx

; 514  : }

  00031	5d		 pop	 ebp
  00032	c2 08 00	 ret	 8
$LN2@IsQuestAtt:

; 508  : 
; 509  : 		if( pItemDB->GetState() == QS_ATTAIN )

  00035	8b 46 40	 mov	 eax, DWORD PTR [esi+64]
  00038	33 d2		 xor	 edx, edx
  0003a	6a 0a		 push	 10			; 0000000aH
  0003c	59		 pop	 ecx
  0003d	f7 f1		 div	 ecx
  0003f	4a		 dec	 edx
  00040	f7 da		 neg	 edx
  00042	1a d2		 sbb	 dl, dl
  00044	8d 42 01	 lea	 eax, DWORD PTR [edx+1]

; 510  : 			return true;
; 511  : 		return false;

  00047	eb e5		 jmp	 SHORT $LN7@IsQuestAtt
?IsQuestAttain@ioQuest@@QAE_NKK@Z ENDP			; ioQuest::IsQuestAttain
_TEXT	ENDS
PUBLIC	?IsQuestComplete@ioQuest@@QAE_NKK@Z		; ioQuest::IsQuestComplete
; Function compile flags: /Ogsp
;	COMDAT ?IsQuestComplete@ioQuest@@QAE_NKK@Z
_TEXT	SEGMENT
_iEnd$ = -4						; size = 4
_dwMainIndex$ = 8					; size = 4
_dwSubIndex$ = 12					; size = 4
?IsQuestComplete@ioQuest@@QAE_NKK@Z PROC		; ioQuest::IsQuestComplete, COMDAT
; _this$ = ecx

; 517  : {

  00000	55		 push	 ebp
  00001	8b ec		 mov	 ebp, esp
  00003	51		 push	 ecx

; 518  : 	vQuestCompleteInfo::iterator iter, iEnd;
; 519  : 	iEnd = m_vCompleteList.end();

  00004	8b 41 18	 mov	 eax, DWORD PTR [ecx+24]
  00007	53		 push	 ebx
  00008	56		 push	 esi

; 520  : 	for(iter = m_vCompleteList.begin();iter != iEnd;iter++)

  00009	8b 71 14	 mov	 esi, DWORD PTR [ecx+20]
  0000c	57		 push	 edi
  0000d	89 45 fc	 mov	 DWORD PTR _iEnd$[ebp], eax
  00010	3b f0		 cmp	 esi, eax
  00012	74 21		 je	 SHORT $LN4@IsQuestCom
  00014	bf 10 27 00 00	 mov	 edi, 10000		; 00002710H
$LL37@IsQuestCom:

; 521  : 	{
; 522  : 		QuestCompleteData *pItemDB = *iter;

  00019	8b 0e		 mov	 ecx, DWORD PTR [esi]

; 523  : 		if( !pItemDB ) continue;

  0001b	85 c9		 test	 ecx, ecx
  0001d	74 0e		 je	 SHORT $LN5@IsQuestCom

; 524  : 		if( pItemDB->GetMainIndex() != dwMainIndex ) continue;

  0001f	8b 41 04	 mov	 eax, DWORD PTR [ecx+4]
  00022	33 d2		 xor	 edx, edx
  00024	8b df		 mov	 ebx, edi
  00026	f7 f3		 div	 ebx
  00028	3b 45 08	 cmp	 eax, DWORD PTR _dwMainIndex$[ebp]
  0002b	74 11		 je	 SHORT $LN2@IsQuestCom
$LN5@IsQuestCom:

; 520  : 	for(iter = m_vCompleteList.begin();iter != iEnd;iter++)

  0002d	83 c6 04	 add	 esi, 4
  00030	3b 75 fc	 cmp	 esi, DWORD PTR _iEnd$[ebp]
  00033	75 e4		 jne	 SHORT $LL37@IsQuestCom
$LN4@IsQuestCom:

; 529  : 	}
; 530  : 	return false;

  00035	32 c0		 xor	 al, al
$LN7@IsQuestCom:
  00037	5f		 pop	 edi
  00038	5e		 pop	 esi
  00039	5b		 pop	 ebx

; 531  : }

  0003a	c9		 leave
  0003b	c2 08 00	 ret	 8
$LN2@IsQuestCom:

; 525  : 		// 서브 인덱스는 완료된 퀘스트로 판단
; 526  : 		if( dwSubIndex <= pItemDB->GetSubIndex() )   

  0003e	8b 41 04	 mov	 eax, DWORD PTR [ecx+4]
  00041	33 d2		 xor	 edx, edx
  00043	f7 f7		 div	 edi
  00045	3b 55 0c	 cmp	 edx, DWORD PTR _dwSubIndex$[ebp]
  00048	1a c0		 sbb	 al, al
  0004a	fe c0		 inc	 al

; 527  : 			return true;
; 528  : 		return false;

  0004c	eb e9		 jmp	 SHORT $LN7@IsQuestCom
?IsQuestComplete@ioQuest@@QAE_NKK@Z ENDP		; ioQuest::IsQuestComplete
_TEXT	ENDS
PUBLIC	?IsQuestIndexCheck@ioQuest@@QAE_NKK@Z		; ioQuest::IsQuestIndexCheck
; Function compile flags: /Ogsp
;	COMDAT ?IsQuestIndexCheck@ioQuest@@QAE_NKK@Z
_TEXT	SEGMENT
_dwMainIndex$ = 8					; size = 4
_dwSubIndex$ = 12					; size = 4
?IsQuestIndexCheck@ioQuest@@QAE_NKK@Z PROC		; ioQuest::IsQuestIndexCheck, COMDAT
; _this$ = ecx

; 534  : {

  00000	55		 push	 ebp
  00001	8b ec		 mov	 ebp, esp
  00003	53		 push	 ebx
  00004	56		 push	 esi

; 535  : 	{
; 536  : 		vQuestInfo::iterator iter, iEnd;
; 537  : 		iEnd = m_vItemList.end();
; 538  : 		for(iter = m_vItemList.begin();iter != iEnd;iter++)

  00005	8b 71 04	 mov	 esi, DWORD PTR [ecx+4]
  00008	57		 push	 edi
  00009	8b 79 08	 mov	 edi, DWORD PTR [ecx+8]
  0000c	eb 1f		 jmp	 SHORT $LN112@IsQuestInd
$LL111@IsQuestInd:

; 539  : 		{
; 540  : 			QuestData *pItemDB = *iter;

  0000e	8b 06		 mov	 eax, DWORD PTR [esi]

; 541  : 			if( !pItemDB ) continue;

  00010	85 c0		 test	 eax, eax
  00012	74 16		 je	 SHORT $LN11@IsQuestInd

; 542  : 			if( pItemDB->GetMainIndex() != dwMainIndex ) continue;

  00014	8b 40 04	 mov	 eax, DWORD PTR [eax+4]
  00017	33 d2		 xor	 edx, edx
  00019	bb 10 27 00 00	 mov	 ebx, 10000		; 00002710H
  0001e	f7 f3		 div	 ebx
  00020	3b 45 08	 cmp	 eax, DWORD PTR _dwMainIndex$[ebp]
  00023	75 05		 jne	 SHORT $LN11@IsQuestInd

; 543  : 
; 544  : 			// 서브 인덱스는 보유중으로 판단.
; 545  : 			if( dwSubIndex <= pItemDB->GetSubIndex() )   

  00025	39 55 0c	 cmp	 DWORD PTR _dwSubIndex$[ebp], edx
  00028	76 0f		 jbe	 SHORT $LN105@IsQuestInd
$LN11@IsQuestInd:

; 535  : 	{
; 536  : 		vQuestInfo::iterator iter, iEnd;
; 537  : 		iEnd = m_vItemList.end();
; 538  : 		for(iter = m_vItemList.begin();iter != iEnd;iter++)

  0002a	83 c6 04	 add	 esi, 4
$LN112@IsQuestInd:
  0002d	3b f7		 cmp	 esi, edi
  0002f	75 dd		 jne	 SHORT $LL111@IsQuestInd

; 547  : 		}
; 548  : 	}
; 549  : 
; 550  : 	{
; 551  : 		vQuestCompleteInfo::iterator iter, iEnd;
; 552  : 		iEnd = m_vCompleteList.end();

  00031	8b 71 18	 mov	 esi, DWORD PTR [ecx+24]

; 553  : 		for(iter = m_vCompleteList.begin();iter != iEnd;iter++)

  00034	8b 49 14	 mov	 ecx, DWORD PTR [ecx+20]
  00037	eb 23		 jmp	 SHORT $LN113@IsQuestInd
$LN105@IsQuestInd:

; 546  : 				return true;

  00039	b0 01		 mov	 al, 1
  0003b	eb 25		 jmp	 SHORT $LN13@IsQuestInd

; 553  : 		for(iter = m_vCompleteList.begin();iter != iEnd;iter++)

$LL87@IsQuestInd:

; 554  : 		{
; 555  : 			QuestCompleteData *pItemDB = *iter;

  0003d	8b 01		 mov	 eax, DWORD PTR [ecx]

; 556  : 			if( !pItemDB ) continue;

  0003f	85 c0		 test	 eax, eax
  00041	74 16		 je	 SHORT $LN5@IsQuestInd

; 557  : 			if( pItemDB->GetMainIndex() != dwMainIndex ) continue;

  00043	8b 40 04	 mov	 eax, DWORD PTR [eax+4]
  00046	33 d2		 xor	 edx, edx
  00048	bf 10 27 00 00	 mov	 edi, 10000		; 00002710H
  0004d	f7 f7		 div	 edi
  0004f	3b 45 08	 cmp	 eax, DWORD PTR _dwMainIndex$[ebp]
  00052	75 05		 jne	 SHORT $LN5@IsQuestInd

; 558  : 
; 559  : 			// 서브 인덱스는 보유중으로 판단.
; 560  : 			if( dwSubIndex <= pItemDB->GetSubIndex() )   

  00054	39 55 0c	 cmp	 DWORD PTR _dwSubIndex$[ebp], edx
  00057	76 e0		 jbe	 SHORT $LN105@IsQuestInd
$LN5@IsQuestInd:

; 553  : 		for(iter = m_vCompleteList.begin();iter != iEnd;iter++)

  00059	83 c1 04	 add	 ecx, 4
$LN113@IsQuestInd:
  0005c	3b ce		 cmp	 ecx, esi
  0005e	75 dd		 jne	 SHORT $LL87@IsQuestInd

; 561  : 				return true;
; 562  : 		}
; 563  : 	}
; 564  : 	return false;

  00060	32 c0		 xor	 al, al
$LN13@IsQuestInd:
  00062	5f		 pop	 edi
  00063	5e		 pop	 esi
  00064	5b		 pop	 ebx

; 565  : }

  00065	5d		 pop	 ebp
  00066	c2 08 00	 ret	 8
?IsQuestIndexCheck@ioQuest@@QAE_NKK@Z ENDP		; ioQuest::IsQuestIndexCheck
_TEXT	ENDS
PUBLIC	?GetMaxQuest@ioQuest@@QAEHK@Z			; ioQuest::GetMaxQuest
; Function compile flags: /Ogsp
;	COMDAT ?GetMaxQuest@ioQuest@@QAEHK@Z
_TEXT	SEGMENT
_iCount$ = -4						; size = 4
_dwState$ = 8						; size = 4
?GetMaxQuest@ioQuest@@QAEHK@Z PROC			; ioQuest::GetMaxQuest, COMDAT
; _this$ = ecx

; 568  : {

  00000	55		 push	 ebp
  00001	8b ec		 mov	 ebp, esp
  00003	51		 push	 ecx

; 569  : 	int iCount = 0;	

  00004	83 65 fc 00	 and	 DWORD PTR _iCount$[ebp], 0
  00008	56		 push	 esi

; 570  : 	{
; 571  : 		vQuestInfo::iterator iter, iEnd;
; 572  : 		iEnd = m_vItemList.end();
; 573  : 		for(iter = m_vItemList.begin();iter != iEnd;iter++)

  00009	8b 71 04	 mov	 esi, DWORD PTR [ecx+4]
  0000c	57		 push	 edi
  0000d	8b 79 08	 mov	 edi, DWORD PTR [ecx+8]
  00010	3b f7		 cmp	 esi, edi
  00012	74 21		 je	 SHORT $LN8@GetMaxQues
  00014	53		 push	 ebx
$LL103@GetMaxQues:

; 574  : 		{
; 575  : 			QuestData *pItemDB = *iter;

  00015	8b 06		 mov	 eax, DWORD PTR [esi]

; 576  : 			if( !pItemDB ) continue;

  00017	85 c0		 test	 eax, eax
  00019	74 12		 je	 SHORT $LN9@GetMaxQues

; 577  : 			if( pItemDB->GetState() == dwState )

  0001b	8b 40 40	 mov	 eax, DWORD PTR [eax+64]
  0001e	6a 0a		 push	 10			; 0000000aH
  00020	33 d2		 xor	 edx, edx
  00022	5b		 pop	 ebx
  00023	f7 f3		 div	 ebx
  00025	3b 55 08	 cmp	 edx, DWORD PTR _dwState$[ebp]
  00028	75 03		 jne	 SHORT $LN9@GetMaxQues

; 578  : 				iCount++;

  0002a	ff 45 fc	 inc	 DWORD PTR _iCount$[ebp]
$LN9@GetMaxQues:

; 570  : 	{
; 571  : 		vQuestInfo::iterator iter, iEnd;
; 572  : 		iEnd = m_vItemList.end();
; 573  : 		for(iter = m_vItemList.begin();iter != iEnd;iter++)

  0002d	83 c6 04	 add	 esi, 4
  00030	3b f7		 cmp	 esi, edi
  00032	75 e1		 jne	 SHORT $LL103@GetMaxQues
  00034	5b		 pop	 ebx
$LN8@GetMaxQues:

; 579  : 		}
; 580  : 	}
; 581  : 
; 582  : 	if( dwState == QS_COMPLETE )

  00035	83 7d 08 02	 cmp	 DWORD PTR _dwState$[ebp], 2
  00039	75 24		 jne	 SHORT $LN102@GetMaxQues

; 583  : 	{
; 584  : 		vQuestCompleteInfo::iterator iter, iEnd;
; 585  : 		iEnd = m_vCompleteList.end();

  0003b	8b 71 18	 mov	 esi, DWORD PTR [ecx+24]

; 586  : 		for(iter = m_vCompleteList.begin();iter != iEnd;iter++)

  0003e	8b 49 14	 mov	 ecx, DWORD PTR [ecx+20]
  00041	eb 18		 jmp	 SHORT $LN104@GetMaxQues
$LL83@GetMaxQues:

; 587  : 		{
; 588  : 			QuestCompleteData *pItemDB = *iter;

  00043	8b 01		 mov	 eax, DWORD PTR [ecx]

; 589  : 			if( !pItemDB ) continue;

  00045	85 c0		 test	 eax, eax
  00047	74 0f		 je	 SHORT $LN3@GetMaxQues

; 590  : 			iCount += pItemDB->GetSubIndex();

  00049	8b 40 04	 mov	 eax, DWORD PTR [eax+4]
  0004c	33 d2		 xor	 edx, edx
  0004e	bf 10 27 00 00	 mov	 edi, 10000		; 00002710H
  00053	f7 f7		 div	 edi
  00055	01 55 fc	 add	 DWORD PTR _iCount$[ebp], edx
$LN3@GetMaxQues:

; 586  : 		for(iter = m_vCompleteList.begin();iter != iEnd;iter++)

  00058	83 c1 04	 add	 ecx, 4
$LN104@GetMaxQues:
  0005b	3b ce		 cmp	 ecx, esi
  0005d	75 e4		 jne	 SHORT $LL83@GetMaxQues
$LN102@GetMaxQues:

; 591  : 		}
; 592  : 	}
; 593  : 	return iCount;

  0005f	8b 45 fc	 mov	 eax, DWORD PTR _iCount$[ebp]
  00062	5f		 pop	 edi
  00063	5e		 pop	 esi

; 594  : }

  00064	c9		 leave
  00065	c2 04 00	 ret	 4
?GetMaxQuest@ioQuest@@QAEHK@Z ENDP			; ioQuest::GetMaxQuest
_TEXT	ENDS
PUBLIC	?GetMaxAlarmQuest@ioQuest@@QAEHXZ		; ioQuest::GetMaxAlarmQuest
; Function compile flags: /Ogsp
;	COMDAT ?GetMaxAlarmQuest@ioQuest@@QAEHXZ
_TEXT	SEGMENT
?GetMaxAlarmQuest@ioQuest@@QAEHXZ PROC			; ioQuest::GetMaxAlarmQuest, COMDAT
; _this$ = ecx

; 597  : {

  00000	53		 push	 ebx
  00001	56		 push	 esi

; 598  : 	int iCount = 0;
; 599  : 	vQuestInfo::iterator iter, iEnd;
; 600  : 	iEnd = m_vItemList.end();
; 601  : 	for(iter = m_vItemList.begin();iter != iEnd;iter++)

  00002	8b 71 04	 mov	 esi, DWORD PTR [ecx+4]
  00005	57		 push	 edi
  00006	8b 79 08	 mov	 edi, DWORD PTR [ecx+8]
  00009	33 db		 xor	 ebx, ebx
  0000b	eb 13		 jmp	 SHORT $LN52@GetMaxAlar
$LL51@GetMaxAlar:

; 602  : 	{
; 603  : 		QuestData *pItemDB = *iter;

  0000d	8b 0e		 mov	 ecx, DWORD PTR [esi]

; 604  : 		if( !pItemDB ) continue;

  0000f	85 c9		 test	 ecx, ecx
  00011	74 0a		 je	 SHORT $LN4@GetMaxAlar

; 605  : 		if( pItemDB->IsAlarm() )

  00013	e8 00 00 00 00	 call	 ?IsAlarm@QuestData@@QAE_NXZ ; QuestData::IsAlarm
  00018	84 c0		 test	 al, al
  0001a	74 01		 je	 SHORT $LN4@GetMaxAlar

; 606  : 			iCount++;

  0001c	43		 inc	 ebx
$LN4@GetMaxAlar:

; 598  : 	int iCount = 0;
; 599  : 	vQuestInfo::iterator iter, iEnd;
; 600  : 	iEnd = m_vItemList.end();
; 601  : 	for(iter = m_vItemList.begin();iter != iEnd;iter++)

  0001d	83 c6 04	 add	 esi, 4
$LN52@GetMaxAlar:
  00020	3b f7		 cmp	 esi, edi
  00022	75 e9		 jne	 SHORT $LL51@GetMaxAlar

; 607  : 	}
; 608  : 	return iCount;

  00024	5f		 pop	 edi
  00025	5e		 pop	 esi
  00026	8b c3		 mov	 eax, ebx
  00028	5b		 pop	 ebx

; 609  : }

  00029	c3		 ret	 0
?GetMaxAlarmQuest@ioQuest@@QAEHXZ ENDP			; ioQuest::GetMaxAlarmQuest
_TEXT	ENDS
PUBLIC	?GetQuestData@ioQuest@@QAEAAVQuestData@@KK@Z	; ioQuest::GetQuestData
EXTRN	_atexit:PROC
;	COMDAT ?kNoneItem@?8??GetQuestData@ioQuest@@QAEAAVQuestData@@KK@Z@4V3@A
_BSS	SEGMENT
?kNoneItem@?8??GetQuestData@ioQuest@@QAEAAVQuestData@@KK@Z@4V3@A DB 048H DUP (?) ; `ioQuest::GetQuestData'::`9'::kNoneItem
_BSS	ENDS
;	COMDAT ?$S1@?8??GetQuestData@ioQuest@@QAEAAVQuestData@@KK@Z@4IA
_BSS	SEGMENT
?$S1@?8??GetQuestData@ioQuest@@QAEAAVQuestData@@KK@Z@4IA DD 01H DUP (?) ; `ioQuest::GetQuestData'::`9'::$S1
_BSS	ENDS
;	COMDAT xdata$x
xdata$x	SEGMENT
__unwindtable$?GetQuestData@ioQuest@@QAEAAVQuestData@@KK@Z DD 0ffffffffH
	DD	FLAT:__unwindfunclet$?GetQuestData@ioQuest@@QAEAAVQuestData@@KK@Z$0
__ehfuncinfo$?GetQuestData@ioQuest@@QAEAAVQuestData@@KK@Z DD 019930522H
	DD	01H
	DD	FLAT:__unwindtable$?GetQuestData@ioQuest@@QAEAAVQuestData@@KK@Z
	DD	2 DUP(00H)
	DD	2 DUP(00H)
	DD	00H
	DD	01H
; Function compile flags: /Ogsp
xdata$x	ENDS
;	COMDAT ?GetQuestData@ioQuest@@QAEAAVQuestData@@KK@Z
_TEXT	SEGMENT
__$EHRec$ = -12						; size = 12
_dwMainIndex$ = 8					; size = 4
_dwSubIndex$ = 12					; size = 4
?GetQuestData@ioQuest@@QAEAAVQuestData@@KK@Z PROC	; ioQuest::GetQuestData, COMDAT
; _this$ = ecx

; 612  : {

  00000	6a 00		 push	 0
  00002	b8 00 00 00 00	 mov	 eax, __ehhandler$?GetQuestData@ioQuest@@QAEAAVQuestData@@KK@Z
  00007	e8 00 00 00 00	 call	 __EH_prolog3

; 613  : 	vQuestInfo::iterator iter, iEnd;
; 614  : 	iEnd = m_vItemList.end();

  0000c	8b 79 08	 mov	 edi, DWORD PTR [ecx+8]

; 615  : 	for(iter = m_vItemList.begin();iter != iEnd;iter++)

  0000f	8b 49 04	 mov	 ecx, DWORD PTR [ecx+4]
  00012	eb 1f		 jmp	 SHORT $LN60@GetQuestDa
$LN38@GetQuestDa:

; 616  : 	{
; 617  : 		QuestData *pItemDB = *iter;

  00014	8b 31		 mov	 esi, DWORD PTR [ecx]

; 618  : 		if( !pItemDB ) continue;

  00016	85 f6		 test	 esi, esi
  00018	74 16		 je	 SHORT $LN5@GetQuestDa

; 619  : 		if( pItemDB->GetMainIndex() == dwMainIndex &&
; 620  : 			pItemDB->GetSubIndex() == dwSubIndex )

  0001a	8b 46 04	 mov	 eax, DWORD PTR [esi+4]
  0001d	33 d2		 xor	 edx, edx
  0001f	bb 10 27 00 00	 mov	 ebx, 10000		; 00002710H
  00024	f7 f3		 div	 ebx
  00026	3b 45 08	 cmp	 eax, DWORD PTR _dwMainIndex$[ebp]
  00029	75 05		 jne	 SHORT $LN5@GetQuestDa
  0002b	3b 55 0c	 cmp	 edx, DWORD PTR _dwSubIndex$[ebp]
  0002e	74 32		 je	 SHORT $LN1@GetQuestDa
$LN5@GetQuestDa:

; 615  : 	for(iter = m_vItemList.begin();iter != iEnd;iter++)

  00030	83 c1 04	 add	 ecx, 4
$LN60@GetQuestDa:
  00033	3b cf		 cmp	 ecx, edi
  00035	75 dd		 jne	 SHORT $LN38@GetQuestDa

; 621  : 		{
; 622  : 			return *pItemDB;
; 623  : 		}
; 624  : 	}
; 625  : 
; 626  : 	static QuestData kNoneItem;

  00037	f6 05 00 00 00
	00 01		 test	 BYTE PTR ?$S1@?8??GetQuestData@ioQuest@@QAEAAVQuestData@@KK@Z@4IA, 1
  0003e	be 00 00 00 00	 mov	 esi, OFFSET ?kNoneItem@?8??GetQuestData@ioQuest@@QAEAAVQuestData@@KK@Z@4V3@A
  00043	75 1d		 jne	 SHORT $LN1@GetQuestDa
  00045	83 0d 00 00 00
	00 01		 or	 DWORD PTR ?$S1@?8??GetQuestData@ioQuest@@QAEAAVQuestData@@KK@Z@4IA, 1
  0004c	83 65 fc 00	 and	 DWORD PTR __$EHRec$[ebp+8], 0
  00050	8b ce		 mov	 ecx, esi
  00052	e8 00 00 00 00	 call	 ??0QuestData@@QAE@XZ	; QuestData::QuestData
  00057	68 00 00 00 00	 push	 OFFSET ??__FkNoneItem@?8??GetQuestData@ioQuest@@QAEAAVQuestData@@KK@Z@YAXXZ ; `ioQuest::GetQuestData'::`9'::`dynamic atexit destructor for 'kNoneItem''
  0005c	e8 00 00 00 00	 call	 _atexit
  00061	59		 pop	 ecx
$LN1@GetQuestDa:

; 627  : 	return kNoneItem;

  00062	8b c6		 mov	 eax, esi

; 628  : }

  00064	e8 00 00 00 00	 call	 __EH_epilog3
  00069	c2 08 00	 ret	 8
_TEXT	ENDS
;	COMDAT text$x
text$x	SEGMENT
__unwindfunclet$?GetQuestData@ioQuest@@QAEAAVQuestData@@KK@Z$0:
  00000	a1 00 00 00 00	 mov	 eax, DWORD PTR ?$S1@?8??GetQuestData@ioQuest@@QAEAAVQuestData@@KK@Z@4IA
  00005	83 e0 fe	 and	 eax, -2			; fffffffeH
  00008	a3 00 00 00 00	 mov	 DWORD PTR ?$S1@?8??GetQuestData@ioQuest@@QAEAAVQuestData@@KK@Z@4IA, eax
  0000d	c3		 ret	 0
__ehhandler$?GetQuestData@ioQuest@@QAEAAVQuestData@@KK@Z:
  0000e	8b 54 24 08	 mov	 edx, DWORD PTR [esp+8]
  00012	8d 42 0c	 lea	 eax, DWORD PTR [edx+12]
  00015	8b 4a f0	 mov	 ecx, DWORD PTR [edx-16]
  00018	33 c8		 xor	 ecx, eax
  0001a	e8 00 00 00 00	 call	 @__security_check_cookie@4
  0001f	b8 00 00 00 00	 mov	 eax, OFFSET __ehfuncinfo$?GetQuestData@ioQuest@@QAEAAVQuestData@@KK@Z
  00024	e9 00 00 00 00	 jmp	 ___CxxFrameHandler3
text$x	ENDS
?GetQuestData@ioQuest@@QAEAAVQuestData@@KK@Z ENDP	; ioQuest::GetQuestData
PUBLIC	?GetQuestState@ioQuest@@QAEKKK@Z		; ioQuest::GetQuestState
; Function compile flags: /Ogsp
;	COMDAT ?GetQuestState@ioQuest@@QAEKKK@Z
_TEXT	SEGMENT
_dwMainIndex$ = 8					; size = 4
_dwSubIndex$ = 12					; size = 4
?GetQuestState@ioQuest@@QAEKKK@Z PROC			; ioQuest::GetQuestState, COMDAT
; _this$ = ecx

; 631  : {

  00000	55		 push	 ebp
  00001	8b ec		 mov	 ebp, esp
  00003	53		 push	 ebx
  00004	56		 push	 esi

; 632  : 	{
; 633  : 		vQuestInfo::iterator iter, iEnd;
; 634  : 		iEnd = m_vItemList.end();
; 635  : 		for(iter = m_vItemList.begin();iter != iEnd;iter++)

  00005	8b 71 04	 mov	 esi, DWORD PTR [ecx+4]
  00008	57		 push	 edi
  00009	eb 1f		 jmp	 SHORT $LN114@GetQuestSt
$LL113@GetQuestSt:

; 636  : 		{
; 637  : 			QuestData *pItemDB = *iter;

  0000b	8b 3e		 mov	 edi, DWORD PTR [esi]

; 638  : 			if( !pItemDB ) continue;

  0000d	85 ff		 test	 edi, edi
  0000f	74 16		 je	 SHORT $LN11@GetQuestSt

; 639  : 			if( pItemDB->GetMainIndex() == dwMainIndex )			

  00011	8b 47 04	 mov	 eax, DWORD PTR [edi+4]
  00014	33 d2		 xor	 edx, edx
  00016	bb 10 27 00 00	 mov	 ebx, 10000		; 00002710H
  0001b	f7 f3		 div	 ebx
  0001d	3b 45 08	 cmp	 eax, DWORD PTR _dwMainIndex$[ebp]
  00020	75 05		 jne	 SHORT $LN11@GetQuestSt

; 640  : 			{
; 641  : 				if( dwSubIndex == pItemDB->GetSubIndex() )

  00022	39 55 0c	 cmp	 DWORD PTR _dwSubIndex$[ebp], edx
  00025	74 10		 je	 SHORT $LN107@GetQuestSt
$LN11@GetQuestSt:

; 632  : 	{
; 633  : 		vQuestInfo::iterator iter, iEnd;
; 634  : 		iEnd = m_vItemList.end();
; 635  : 		for(iter = m_vItemList.begin();iter != iEnd;iter++)

  00027	83 c6 04	 add	 esi, 4
$LN114@GetQuestSt:
  0002a	3b 71 08	 cmp	 esi, DWORD PTR [ecx+8]
  0002d	75 dc		 jne	 SHORT $LL113@GetQuestSt

; 643  : 			}
; 644  : 		}
; 645  : 	}
; 646  : 
; 647  : 	{
; 648  : 		vQuestCompleteInfo::iterator iter, iEnd;
; 649  : 		iEnd = m_vCompleteList.end();

  0002f	8b 71 18	 mov	 esi, DWORD PTR [ecx+24]

; 650  : 		for(iter = m_vCompleteList.begin();iter != iEnd;iter++)

  00032	8b 49 14	 mov	 ecx, DWORD PTR [ecx+20]
  00035	eb 2d		 jmp	 SHORT $LN115@GetQuestSt
$LN107@GetQuestSt:

; 642  : 					return pItemDB->GetState();

  00037	8b 47 40	 mov	 eax, DWORD PTR [edi+64]
  0003a	6a 0a		 push	 10			; 0000000aH
  0003c	33 d2		 xor	 edx, edx
  0003e	59		 pop	 ecx
  0003f	f7 f1		 div	 ecx
  00041	8b c2		 mov	 eax, edx
  00043	eb 26		 jmp	 SHORT $LN13@GetQuestSt

; 650  : 		for(iter = m_vCompleteList.begin();iter != iEnd;iter++)

$LL89@GetQuestSt:

; 651  : 		{
; 652  : 			QuestCompleteData *pItemDB = *iter;

  00045	8b 01		 mov	 eax, DWORD PTR [ecx]

; 653  : 			if( !pItemDB ) continue;

  00047	85 c0		 test	 eax, eax
  00049	74 16		 je	 SHORT $LN5@GetQuestSt

; 654  : 			if( pItemDB->GetMainIndex() == dwMainIndex )			

  0004b	8b 40 04	 mov	 eax, DWORD PTR [eax+4]
  0004e	33 d2		 xor	 edx, edx
  00050	bf 10 27 00 00	 mov	 edi, 10000		; 00002710H
  00055	f7 f7		 div	 edi
  00057	3b 45 08	 cmp	 eax, DWORD PTR _dwMainIndex$[ebp]
  0005a	75 05		 jne	 SHORT $LN5@GetQuestSt

; 655  : 			{
; 656  : 				if( dwSubIndex <= pItemDB->GetSubIndex() )

  0005c	39 55 0c	 cmp	 DWORD PTR _dwSubIndex$[ebp], edx
  0005f	76 11		 jbe	 SHORT $LN108@GetQuestSt
$LN5@GetQuestSt:

; 650  : 		for(iter = m_vCompleteList.begin();iter != iEnd;iter++)

  00061	83 c1 04	 add	 ecx, 4
$LN115@GetQuestSt:
  00064	3b ce		 cmp	 ecx, esi
  00066	75 dd		 jne	 SHORT $LL89@GetQuestSt

; 658  : 			}
; 659  : 		}
; 660  : 	}
; 661  : 	return 0xFFFFFFFF;

  00068	83 c8 ff	 or	 eax, -1
$LN13@GetQuestSt:
  0006b	5f		 pop	 edi
  0006c	5e		 pop	 esi
  0006d	5b		 pop	 ebx

; 662  : }

  0006e	5d		 pop	 ebp
  0006f	c2 08 00	 ret	 8
$LN108@GetQuestSt:

; 657  : 					return QS_COMPLETE; 

  00072	6a 02		 push	 2
  00074	58		 pop	 eax
  00075	eb f4		 jmp	 SHORT $LN13@GetQuestSt
?GetQuestState@ioQuest@@QAEKKK@Z ENDP			; ioQuest::GetQuestState
_TEXT	ENDS
PUBLIC	??0QuestData@@QAE@ABV0@@Z			; QuestData::QuestData
;	COMDAT xdata$x
xdata$x	SEGMENT
__unwindtable$??0QuestData@@QAE@ABV0@@Z DD 0ffffffffH
	DD	FLAT:__unwindfunclet$??0QuestData@@QAE@ABV0@@Z$0
__ehfuncinfo$??0QuestData@@QAE@ABV0@@Z DD 019930522H
	DD	01H
	DD	FLAT:__unwindtable$??0QuestData@@QAE@ABV0@@Z
	DD	2 DUP(00H)
	DD	2 DUP(00H)
	DD	00H
	DD	01H
; Function compile flags: /Ogsp
xdata$x	ENDS
;	COMDAT ??0QuestData@@QAE@ABV0@@Z
_TEXT	SEGMENT
_this$ = -16						; size = 4
__$EHRec$ = -12						; size = 12
___that$ = 8						; size = 4
??0QuestData@@QAE@ABV0@@Z PROC				; QuestData::QuestData, COMDAT
; _this$ = ecx
  00000	6a 04		 push	 4
  00002	b8 00 00 00 00	 mov	 eax, __ehhandler$??0QuestData@@QAE@ABV0@@Z
  00007	e8 00 00 00 00	 call	 __EH_prolog3
  0000c	8b f1		 mov	 esi, ecx
  0000e	89 75 f0	 mov	 DWORD PTR _this$[ebp], esi
  00011	8b 7d 08	 mov	 edi, DWORD PTR ___that$[ebp]
  00014	c7 06 00 00 00
	00		 mov	 DWORD PTR [esi], OFFSET ??_7QuestDataParent@@6B@
  0001a	8b 47 04	 mov	 eax, DWORD PTR [edi+4]
  0001d	89 46 04	 mov	 DWORD PTR [esi+4], eax
  00020	8b 47 08	 mov	 eax, DWORD PTR [edi+8]
  00023	89 46 08	 mov	 DWORD PTR [esi+8], eax
  00026	8b 47 0c	 mov	 eax, DWORD PTR [edi+12]
  00029	89 46 0c	 mov	 DWORD PTR [esi+12], eax
  0002c	83 65 fc 00	 and	 DWORD PTR __$EHRec$[ebp+8], 0
  00030	8d 47 10	 lea	 eax, DWORD PTR [edi+16]
  00033	50		 push	 eax
  00034	8d 4e 10	 lea	 ecx, DWORD PTR [esi+16]
  00037	c7 06 00 00 00
	00		 mov	 DWORD PTR [esi], OFFSET ??_7QuestData@@6B@
  0003d	e8 00 00 00 00	 call	 ??0?$CEncrypt@K@@QAE@ABV0@@Z ; CEncrypt<unsigned long>::CEncrypt<unsigned long>
  00042	8b 47 40	 mov	 eax, DWORD PTR [edi+64]
  00045	89 46 40	 mov	 DWORD PTR [esi+64], eax
  00048	8a 47 44	 mov	 al, BYTE PTR [edi+68]
  0004b	88 46 44	 mov	 BYTE PTR [esi+68], al
  0004e	8b c6		 mov	 eax, esi
  00050	e8 00 00 00 00	 call	 __EH_epilog3
  00055	c2 04 00	 ret	 4
_TEXT	ENDS
;	COMDAT text$x
text$x	SEGMENT
__unwindfunclet$??0QuestData@@QAE@ABV0@@Z$0:
  00000	8b 4d f0	 mov	 ecx, DWORD PTR _this$[ebp]
  00003	e9 00 00 00 00	 jmp	 ??1QuestDataParent@@UAE@XZ ; QuestDataParent::~QuestDataParent
__ehhandler$??0QuestData@@QAE@ABV0@@Z:
  00008	8b 54 24 08	 mov	 edx, DWORD PTR [esp+8]
  0000c	8d 42 0c	 lea	 eax, DWORD PTR [edx+12]
  0000f	8b 4a ec	 mov	 ecx, DWORD PTR [edx-20]
  00012	33 c8		 xor	 ecx, eax
  00014	e8 00 00 00 00	 call	 @__security_check_cookie@4
  00019	b8 00 00 00 00	 mov	 eax, OFFSET __ehfuncinfo$??0QuestData@@QAE@ABV0@@Z
  0001e	e9 00 00 00 00	 jmp	 ___CxxFrameHandler3
text$x	ENDS
??0QuestData@@QAE@ABV0@@Z ENDP				; QuestData::QuestData
PUBLIC	___$ReturnUdt$GSCopy$
PUBLIC	?GetAttainNCompleteToArray@ioQuest@@QAE?AVQuestData@@H@Z ; ioQuest::GetAttainNCompleteToArray
EXTRN	__EH_epilog3_GS:PROC
EXTRN	__EH_prolog3_GS:PROC
;	COMDAT ?kNoneItem@?BK@??GetAttainNCompleteToArray@ioQuest@@QAE?AVQuestData@@H@Z@4V3@A
_BSS	SEGMENT
?kNoneItem@?BK@??GetAttainNCompleteToArray@ioQuest@@QAE?AVQuestData@@H@Z@4V3@A DB 048H DUP (?) ; `ioQuest::GetAttainNCompleteToArray'::`26'::kNoneItem
_BSS	ENDS
;	COMDAT ?$S3@?BK@??GetAttainNCompleteToArray@ioQuest@@QAE?AVQuestData@@H@Z@4IA
_BSS	SEGMENT
?$S3@?BK@??GetAttainNCompleteToArray@ioQuest@@QAE?AVQuestData@@H@Z@4IA DD 01H DUP (?) ; `ioQuest::GetAttainNCompleteToArray'::`26'::$S3
_BSS	ENDS
;	COMDAT xdata$x
xdata$x	SEGMENT
__unwindtable$?GetAttainNCompleteToArray@ioQuest@@QAE?AVQuestData@@H@Z DD 0ffffffffH
	DD	FLAT:__unwindfunclet$?GetAttainNCompleteToArray@ioQuest@@QAE?AVQuestData@@H@Z$1
	DD	0ffffffffH
	DD	FLAT:__unwindfunclet$?GetAttainNCompleteToArray@ioQuest@@QAE?AVQuestData@@H@Z$2
__ehfuncinfo$?GetAttainNCompleteToArray@ioQuest@@QAE?AVQuestData@@H@Z DD 019930522H
	DD	02H
	DD	FLAT:__unwindtable$?GetAttainNCompleteToArray@ioQuest@@QAE?AVQuestData@@H@Z
	DD	2 DUP(00H)
	DD	2 DUP(00H)
	DD	00H
	DD	01H
; Function compile flags: /Ogsp
xdata$x	ENDS
;	COMDAT ?GetAttainNCompleteToArray@ioQuest@@QAE?AVQuestData@@H@Z
_TEXT	SEGMENT
$T512124 = -96						; size = 4
$T512120 = -96						; size = 4
_pItemDB$505957 = -96					; size = 4
___$ReturnUdt$GSCopy$ = -92				; size = 4
_kVirtualItem$505971 = -88				; size = 72
__$EHRec$ = -12						; size = 12
___$ReturnUdt$ = 8					; size = 4
_iArray$ = 12						; size = 4
?GetAttainNCompleteToArray@ioQuest@@QAE?AVQuestData@@H@Z PROC ; ioQuest::GetAttainNCompleteToArray, COMDAT
; _this$ = ecx

; 686  : {

  00000	6a 54		 push	 84			; 00000054H
  00002	b8 00 00 00 00	 mov	 eax, __ehhandler$?GetAttainNCompleteToArray@ioQuest@@QAE?AVQuestData@@H@Z
  00007	e8 00 00 00 00	 call	 __EH_prolog3_GS

; 732  : 	}
; 733  : 
; 734  : 	static QuestData kNoneItem;

  0000c	8b 45 08	 mov	 eax, DWORD PTR ___$ReturnUdt$[ebp]
  0000f	83 65 a0 00	 and	 DWORD PTR $T512124[ebp], 0
  00013	8b 71 04	 mov	 esi, DWORD PTR [ecx+4]
  00016	8b 79 08	 mov	 edi, DWORD PTR [ecx+8]
  00019	89 45 a4	 mov	 DWORD PTR ___$ReturnUdt$GSCopy$[ebp], eax
  0001c	eb 20		 jmp	 SHORT $LN123@GetAttainN

; 687  : 	// 먼저 달성 퀘스트 검색함
; 688  : 	{
; 689  : 		vQuestInfo::iterator iter;
; 690  : 		for(iter = m_vItemList.begin();iter != m_vItemList.end();iter++)

$LN39@GetAttainN:

; 691  : 		{
; 692  : 			QuestData *pItemDB = *iter;

  0001e	8b 06		 mov	 eax, DWORD PTR [esi]
  00020	89 45 a0	 mov	 DWORD PTR _pItemDB$505957[ebp], eax

; 693  : 			if( !pItemDB ) continue;

  00023	85 c0		 test	 eax, eax
  00025	74 14		 je	 SHORT $LN15@GetAttainN

; 694  : 			if( pItemDB->GetState() == QS_ATTAIN )

  00027	8b 40 40	 mov	 eax, DWORD PTR [eax+64]
  0002a	6a 0a		 push	 10			; 0000000aH
  0002c	33 d2		 xor	 edx, edx
  0002e	5b		 pop	 ebx
  0002f	f7 f3		 div	 ebx
  00031	83 fa 01	 cmp	 edx, 1
  00034	75 05		 jne	 SHORT $LN15@GetAttainN

; 695  : 			{
; 696  : 				if( --iArray < 0 )

  00036	ff 4d 0c	 dec	 DWORD PTR _iArray$[ebp]
  00039	78 39		 js	 SHORT $LN110@GetAttainN
$LN15@GetAttainN:

; 687  : 	// 먼저 달성 퀘스트 검색함
; 688  : 	{
; 689  : 		vQuestInfo::iterator iter;
; 690  : 		for(iter = m_vItemList.begin();iter != m_vItemList.end();iter++)

  0003b	83 c6 04	 add	 esi, 4
$LN123@GetAttainN:
  0003e	3b f7		 cmp	 esi, edi
  00040	75 dc		 jne	 SHORT $LN39@GetAttainN

; 699  : 				}
; 700  : 			}
; 701  : 		}
; 702  : 	}
; 703  : 
; 704  : 	// 다음 완료 퀘스트는 서브 퀘스트도 검색해야한다.
; 705  : 	{
; 706  : 		vQuestCompleteInfo::iterator iter, iEnd;
; 707  : 		iEnd = m_vCompleteList.end();

  00042	8b 41 18	 mov	 eax, DWORD PTR [ecx+24]

; 708  : 		for(iter = m_vCompleteList.begin();iter != iEnd;iter++)

  00045	8b 59 14	 mov	 ebx, DWORD PTR [ecx+20]
  00048	89 45 a0	 mov	 DWORD PTR $T512120[ebp], eax
  0004b	3b d8		 cmp	 ebx, eax
  0004d	74 52		 je	 SHORT $LN8@GetAttainN
$LN89@GetAttainN:

; 709  : 		{
; 710  : 			QuestCompleteData *pItemDB = *iter;

  0004f	8b 33		 mov	 esi, DWORD PTR [ebx]

; 711  : 			if( !pItemDB ) continue;

  00051	85 f6		 test	 esi, esi
  00053	74 44		 je	 SHORT $LN9@GetAttainN

; 712  : 			QuestData kVirtualItem;

  00055	8d 4d a8	 lea	 ecx, DWORD PTR _kVirtualItem$505971[ebp]
  00058	e8 00 00 00 00	 call	 ??0QuestData@@QAE@XZ	; QuestData::QuestData

; 713  : 			// 서브 퀘스트는 완료한 퀘스트이므로 가상으로 완료된 퀘스트를 만들어낸다.
; 714  : 			for(int iSubIndex = ( (int)pItemDB->GetSubIndex() ) - 1;iSubIndex >= 1;iSubIndex--)

  0005d	8b 46 04	 mov	 eax, DWORD PTR [esi+4]
  00060	83 65 fc 00	 and	 DWORD PTR __$EHRec$[ebp+8], 0
  00064	b9 10 27 00 00	 mov	 ecx, 10000		; 00002710H
  00069	8b f9		 mov	 edi, ecx
  0006b	33 d2		 xor	 edx, edx
  0006d	f7 f7		 div	 edi
  0006f	8d 7a ff	 lea	 edi, DWORD PTR [edx-1]
  00072	eb 0b		 jmp	 SHORT $LN125@GetAttainN
$LN110@GetAttainN:

; 697  : 				{
; 698  : 					return *pItemDB;

  00074	ff 75 a0	 push	 DWORD PTR _pItemDB$505957[ebp]
  00077	eb 59		 jmp	 SHORT $LN124@GetAttainN
$LL6@GetAttainN:

; 715  : 			{
; 716  : 				if( --iArray < 0 )

  00079	ff 4d 0c	 dec	 DWORD PTR _iArray$[ebp]
  0007c	78 67		 js	 SHORT $LN111@GetAttainN

; 713  : 			// 서브 퀘스트는 완료한 퀘스트이므로 가상으로 완료된 퀘스트를 만들어낸다.
; 714  : 			for(int iSubIndex = ( (int)pItemDB->GetSubIndex() ) - 1;iSubIndex >= 1;iSubIndex--)

  0007e	4f		 dec	 edi
$LN125@GetAttainN:
  0007f	83 ff 01	 cmp	 edi, 1
  00082	7d f5		 jge	 SHORT $LL6@GetAttainN

; 722  : 				}
; 723  : 			}
; 724  : 
; 725  : 			if( --iArray < 0 )

  00084	ff 4d 0c	 dec	 DWORD PTR _iArray$[ebp]
  00087	0f 88 95 00 00
	00		 js	 $LN112@GetAttainN

; 730  : 			}
; 731  : 		}

  0008d	83 4d fc ff	 or	 DWORD PTR __$EHRec$[ebp+8], -1
  00091	8d 4d a8	 lea	 ecx, DWORD PTR _kVirtualItem$505971[ebp]
  00094	e8 00 00 00 00	 call	 ??1QuestData@@UAE@XZ	; QuestData::~QuestData
$LN9@GetAttainN:

; 708  : 		for(iter = m_vCompleteList.begin();iter != iEnd;iter++)

  00099	83 c3 04	 add	 ebx, 4
  0009c	3b 5d a0	 cmp	 ebx, DWORD PTR $T512120[ebp]
  0009f	75 ae		 jne	 SHORT $LN89@GetAttainN
$LN8@GetAttainN:

; 732  : 	}
; 733  : 
; 734  : 	static QuestData kNoneItem;

  000a1	f6 05 00 00 00
	00 01		 test	 BYTE PTR ?$S3@?BK@??GetAttainNCompleteToArray@ioQuest@@QAE?AVQuestData@@H@Z@4IA, 1
  000a8	be 00 00 00 00	 mov	 esi, OFFSET ?kNoneItem@?BK@??GetAttainNCompleteToArray@ioQuest@@QAE?AVQuestData@@H@Z@4V3@A
  000ad	75 22		 jne	 SHORT $LN1@GetAttainN
  000af	33 c0		 xor	 eax, eax
  000b1	40		 inc	 eax
  000b2	09 05 00 00 00
	00		 or	 DWORD PTR ?$S3@?BK@??GetAttainNCompleteToArray@ioQuest@@QAE?AVQuestData@@H@Z@4IA, eax
  000b8	8b ce		 mov	 ecx, esi
  000ba	89 45 fc	 mov	 DWORD PTR __$EHRec$[ebp+8], eax
  000bd	e8 00 00 00 00	 call	 ??0QuestData@@QAE@XZ	; QuestData::QuestData
  000c2	68 00 00 00 00	 push	 OFFSET ??__FkNoneItem@?BK@??GetAttainNCompleteToArray@ioQuest@@QAE?AVQuestData@@H@Z@YAXXZ ; `ioQuest::GetAttainNCompleteToArray'::`26'::`dynamic atexit destructor for 'kNoneItem''
  000c7	e8 00 00 00 00	 call	 _atexit
  000cc	83 4d fc ff	 or	 DWORD PTR __$EHRec$[ebp+8], -1
  000d0	59		 pop	 ecx
$LN1@GetAttainN:

; 735  : 	return kNoneItem;

  000d1	56		 push	 esi
$LN124@GetAttainN:
  000d2	8b 4d a4	 mov	 ecx, DWORD PTR ___$ReturnUdt$GSCopy$[ebp]
  000d5	e8 00 00 00 00	 call	 ??0QuestData@@QAE@ABV0@@Z
$LN126@GetAttainN:
  000da	8b 45 a4	 mov	 eax, DWORD PTR ___$ReturnUdt$GSCopy$[ebp]

; 736  : }

  000dd	e8 00 00 00 00	 call	 __EH_epilog3_GS
  000e2	c2 08 00	 ret	 8
$LN111@GetAttainN:

; 717  : 				{
; 718  : 					kVirtualItem.SetMainIndex( pItemDB->GetMainIndex() );

  000e5	8b 46 04	 mov	 eax, DWORD PTR [esi+4]
  000e8	33 d2		 xor	 edx, edx
  000ea	f7 f1		 div	 ecx
  000ec	8d 4d a8	 lea	 ecx, DWORD PTR _kVirtualItem$505971[ebp]
  000ef	50		 push	 eax
  000f0	e8 00 00 00 00	 call	 ?SetMainIndex@QuestData@@QAEXK@Z ; QuestData::SetMainIndex

; 719  : 					kVirtualItem.SetSubIndex( iSubIndex );

  000f5	57		 push	 edi
  000f6	8d 4d a8	 lea	 ecx, DWORD PTR _kVirtualItem$505971[ebp]
  000f9	e8 00 00 00 00	 call	 ?SetSubIndex@QuestData@@QAEXK@Z ; QuestData::SetSubIndex
$LN127@GetAttainN:

; 720  : 					kVirtualItem.SetState( QS_COMPLETE );

  000fe	6a 02		 push	 2
  00100	8d 4d a8	 lea	 ecx, DWORD PTR _kVirtualItem$505971[ebp]
  00103	e8 00 00 00 00	 call	 ?SetState@QuestData@@QAEXK@Z ; QuestData::SetState

; 721  : 					return kVirtualItem;

  00108	8b 4d a4	 mov	 ecx, DWORD PTR ___$ReturnUdt$GSCopy$[ebp]
  0010b	8d 45 a8	 lea	 eax, DWORD PTR _kVirtualItem$505971[ebp]
  0010e	50		 push	 eax
  0010f	e8 00 00 00 00	 call	 ??0QuestData@@QAE@ABV0@@Z
  00114	83 4d fc ff	 or	 DWORD PTR __$EHRec$[ebp+8], -1
  00118	8d 4d a8	 lea	 ecx, DWORD PTR _kVirtualItem$505971[ebp]
  0011b	e8 00 00 00 00	 call	 ??1QuestData@@UAE@XZ	; QuestData::~QuestData
  00120	eb b8		 jmp	 SHORT $LN126@GetAttainN
$LN112@GetAttainN:

; 726  : 			{
; 727  : 				kVirtualItem.SetIndexData( pItemDB->GetIndexData() );

  00122	8b 06		 mov	 eax, DWORD PTR [esi]
  00124	8b ce		 mov	 ecx, esi
  00126	ff 10		 call	 DWORD PTR [eax]
  00128	89 45 ac	 mov	 DWORD PTR _kVirtualItem$505971[ebp+4], eax

; 728  : 				kVirtualItem.SetState( QS_COMPLETE );
; 729  : 				return kVirtualItem;

  0012b	eb d1		 jmp	 SHORT $LN127@GetAttainN
_TEXT	ENDS
;	COMDAT text$x
text$x	SEGMENT
__unwindfunclet$?GetAttainNCompleteToArray@ioQuest@@QAE?AVQuestData@@H@Z$1:
  00000	8d 4d a8	 lea	 ecx, DWORD PTR _kVirtualItem$505971[ebp]
  00003	e9 00 00 00 00	 jmp	 ??1QuestData@@UAE@XZ	; QuestData::~QuestData
__unwindfunclet$?GetAttainNCompleteToArray@ioQuest@@QAE?AVQuestData@@H@Z$2:
  00008	a1 00 00 00 00	 mov	 eax, DWORD PTR ?$S3@?BK@??GetAttainNCompleteToArray@ioQuest@@QAE?AVQuestData@@H@Z@4IA
  0000d	83 e0 fe	 and	 eax, -2			; fffffffeH
  00010	a3 00 00 00 00	 mov	 DWORD PTR ?$S3@?BK@??GetAttainNCompleteToArray@ioQuest@@QAE?AVQuestData@@H@Z@4IA, eax
  00015	c3		 ret	 0
__ehhandler$?GetAttainNCompleteToArray@ioQuest@@QAE?AVQuestData@@H@Z:
  00016	8b 54 24 08	 mov	 edx, DWORD PTR [esp+8]
  0001a	8d 42 0c	 lea	 eax, DWORD PTR [edx+12]
  0001d	8b 4a 9c	 mov	 ecx, DWORD PTR [edx-100]
  00020	33 c8		 xor	 ecx, eax
  00022	e8 00 00 00 00	 call	 @__security_check_cookie@4
  00027	8b 4a fc	 mov	 ecx, DWORD PTR [edx-4]
  0002a	33 c8		 xor	 ecx, eax
  0002c	e8 00 00 00 00	 call	 @__security_check_cookie@4
  00031	b8 00 00 00 00	 mov	 eax, OFFSET __ehfuncinfo$?GetAttainNCompleteToArray@ioQuest@@QAE?AVQuestData@@H@Z
  00036	e9 00 00 00 00	 jmp	 ___CxxFrameHandler3
text$x	ENDS
?GetAttainNCompleteToArray@ioQuest@@QAE?AVQuestData@@H@Z ENDP ; ioQuest::GetAttainNCompleteToArray
PUBLIC	?GetAlarmQuestToArray@ioQuest@@QAE?AVQuestData@@H@Z ; ioQuest::GetAlarmQuestToArray
;	COMDAT ?kNoneItem@?M@??GetAlarmQuestToArray@ioQuest@@QAE?AVQuestData@@H@Z@4V3@A
; File c:\program files (x86)\microsoft visual studio 10.0\vc\include\vector
_BSS	SEGMENT
?kNoneItem@?M@??GetAlarmQuestToArray@ioQuest@@QAE?AVQuestData@@H@Z@4V3@A DB 048H DUP (?) ; `ioQuest::GetAlarmQuestToArray'::`12'::kNoneItem
_BSS	ENDS
;	COMDAT ?$S4@?M@??GetAlarmQuestToArray@ioQuest@@QAE?AVQuestData@@H@Z@4IA
_BSS	SEGMENT
?$S4@?M@??GetAlarmQuestToArray@ioQuest@@QAE?AVQuestData@@H@Z@4IA DD 01H DUP (?) ; `ioQuest::GetAlarmQuestToArray'::`12'::$S4
_BSS	ENDS
;	COMDAT xdata$x
xdata$x	SEGMENT
__unwindtable$?GetAlarmQuestToArray@ioQuest@@QAE?AVQuestData@@H@Z DD 0ffffffffH
	DD	FLAT:__unwindfunclet$?GetAlarmQuestToArray@ioQuest@@QAE?AVQuestData@@H@Z$1
__ehfuncinfo$?GetAlarmQuestToArray@ioQuest@@QAE?AVQuestData@@H@Z DD 019930522H
	DD	01H
	DD	FLAT:__unwindtable$?GetAlarmQuestToArray@ioQuest@@QAE?AVQuestData@@H@Z
	DD	2 DUP(00H)
	DD	2 DUP(00H)
	DD	00H
	DD	01H
; Function compile flags: /Ogsp
; File d:\lost saga for developer\youtube\tutorial\source\src\lsclient\ioquest.cpp
xdata$x	ENDS
;	COMDAT ?GetAlarmQuestToArray@ioQuest@@QAE?AVQuestData@@H@Z
_TEXT	SEGMENT
$T512379 = -16						; size = 4
__$EHRec$ = -12						; size = 12
___$ReturnUdt$ = 8					; size = 4
_iArray$ = 12						; size = 4
?GetAlarmQuestToArray@ioQuest@@QAE?AVQuestData@@H@Z PROC ; ioQuest::GetAlarmQuestToArray, COMDAT
; _this$ = ecx

; 739  : {

  00000	6a 04		 push	 4
  00002	b8 00 00 00 00	 mov	 eax, __ehhandler$?GetAlarmQuestToArray@ioQuest@@QAE?AVQuestData@@H@Z
  00007	e8 00 00 00 00	 call	 __EH_prolog3
  0000c	83 65 f0 00	 and	 DWORD PTR $T512379[ebp], 0

; 740  : 	vQuestInfo::iterator iter;
; 741  : 	for(iter = m_vItemList.begin();iter != m_vItemList.end();iter++)

  00010	8b 71 04	 mov	 esi, DWORD PTR [ecx+4]
  00013	8b 59 08	 mov	 ebx, DWORD PTR [ecx+8]
  00016	eb 19		 jmp	 SHORT $LN53@GetAlarmQu
$LL29@GetAlarmQu:

; 742  : 	{
; 743  : 		QuestData *pItemDB = *iter;

  00018	8b 3e		 mov	 edi, DWORD PTR [esi]

; 744  : 		if( !pItemDB ) continue;

  0001a	85 ff		 test	 edi, edi
  0001c	74 10		 je	 SHORT $LN6@GetAlarmQu

; 745  : 		if( pItemDB->IsAlarm() )

  0001e	8b cf		 mov	 ecx, edi
  00020	e8 00 00 00 00	 call	 ?IsAlarm@QuestData@@QAE_NXZ ; QuestData::IsAlarm
  00025	84 c0		 test	 al, al
  00027	74 05		 je	 SHORT $LN6@GetAlarmQu

; 746  : 		{
; 747  : 			if( --iArray < 0 )

  00029	ff 4d 0c	 dec	 DWORD PTR _iArray$[ebp]
  0002c	78 4a		 js	 SHORT $LN50@GetAlarmQu
$LN6@GetAlarmQu:

; 740  : 	vQuestInfo::iterator iter;
; 741  : 	for(iter = m_vItemList.begin();iter != m_vItemList.end();iter++)

  0002e	83 c6 04	 add	 esi, 4
$LN53@GetAlarmQu:
  00031	3b f3		 cmp	 esi, ebx
  00033	75 e3		 jne	 SHORT $LL29@GetAlarmQu

; 750  : 			}
; 751  : 		}
; 752  : 	}
; 753  : 
; 754  : 	static QuestData kNoneItem;

  00035	f6 05 00 00 00
	00 01		 test	 BYTE PTR ?$S4@?M@??GetAlarmQuestToArray@ioQuest@@QAE?AVQuestData@@H@Z@4IA, 1
  0003c	be 00 00 00 00	 mov	 esi, OFFSET ?kNoneItem@?M@??GetAlarmQuestToArray@ioQuest@@QAE?AVQuestData@@H@Z@4V3@A
  00041	75 21		 jne	 SHORT $LN1@GetAlarmQu
  00043	83 0d 00 00 00
	00 01		 or	 DWORD PTR ?$S4@?M@??GetAlarmQuestToArray@ioQuest@@QAE?AVQuestData@@H@Z@4IA, 1
  0004a	83 65 fc 00	 and	 DWORD PTR __$EHRec$[ebp+8], 0
  0004e	8b ce		 mov	 ecx, esi
  00050	e8 00 00 00 00	 call	 ??0QuestData@@QAE@XZ	; QuestData::QuestData
  00055	68 00 00 00 00	 push	 OFFSET ??__FkNoneItem@?M@??GetAlarmQuestToArray@ioQuest@@QAE?AVQuestData@@H@Z@YAXXZ ; `ioQuest::GetAlarmQuestToArray'::`12'::`dynamic atexit destructor for 'kNoneItem''
  0005a	e8 00 00 00 00	 call	 _atexit
  0005f	83 4d fc ff	 or	 DWORD PTR __$EHRec$[ebp+8], -1
  00063	59		 pop	 ecx
$LN1@GetAlarmQu:

; 755  : 	return kNoneItem;

  00064	56		 push	 esi
$LN54@GetAlarmQu:
  00065	8b 4d 08	 mov	 ecx, DWORD PTR ___$ReturnUdt$[ebp]
  00068	e8 00 00 00 00	 call	 ??0QuestData@@QAE@ABV0@@Z
  0006d	8b 45 08	 mov	 eax, DWORD PTR ___$ReturnUdt$[ebp]

; 756  : }

  00070	e8 00 00 00 00	 call	 __EH_epilog3
  00075	c2 08 00	 ret	 8
$LN50@GetAlarmQu:

; 748  : 			{
; 749  : 				return *pItemDB;

  00078	57		 push	 edi
  00079	eb ea		 jmp	 SHORT $LN54@GetAlarmQu
_TEXT	ENDS
;	COMDAT text$x
text$x	SEGMENT
__unwindfunclet$?GetAlarmQuestToArray@ioQuest@@QAE?AVQuestData@@H@Z$1:
  00000	a1 00 00 00 00	 mov	 eax, DWORD PTR ?$S4@?M@??GetAlarmQuestToArray@ioQuest@@QAE?AVQuestData@@H@Z@4IA
  00005	83 e0 fe	 and	 eax, -2			; fffffffeH
  00008	a3 00 00 00 00	 mov	 DWORD PTR ?$S4@?M@??GetAlarmQuestToArray@ioQuest@@QAE?AVQuestData@@H@Z@4IA, eax
  0000d	c3		 ret	 0
__ehhandler$?GetAlarmQuestToArray@ioQuest@@QAE?AVQuestData@@H@Z:
  0000e	8b 54 24 08	 mov	 edx, DWORD PTR [esp+8]
  00012	8d 42 0c	 lea	 eax, DWORD PTR [edx+12]
  00015	8b 4a ec	 mov	 ecx, DWORD PTR [edx-20]
  00018	33 c8		 xor	 ecx, eax
  0001a	e8 00 00 00 00	 call	 @__security_check_cookie@4
  0001f	b8 00 00 00 00	 mov	 eax, OFFSET __ehfuncinfo$?GetAlarmQuestToArray@ioQuest@@QAE?AVQuestData@@H@Z
  00024	e9 00 00 00 00	 jmp	 ___CxxFrameHandler3
text$x	ENDS
?GetAlarmQuestToArray@ioQuest@@QAE?AVQuestData@@H@Z ENDP ; ioQuest::GetAlarmQuestToArray
PUBLIC	??1?$vector@PAVQuestData@@V?$allocator@PAVQuestData@@@std@@@std@@QAE@XZ ; std::vector<QuestData *,std::allocator<QuestData *> >::~vector<QuestData *,std::allocator<QuestData *> >
; Function compile flags: /Ogsp
; File c:\program files (x86)\microsoft visual studio 10.0\vc\include\vector
;	COMDAT ??1?$vector@PAVQuestData@@V?$allocator@PAVQuestData@@@std@@@std@@QAE@XZ
_TEXT	SEGMENT
??1?$vector@PAVQuestData@@V?$allocator@PAVQuestData@@@std@@@std@@QAE@XZ PROC ; std::vector<QuestData *,std::allocator<QuestData *> >::~vector<QuestData *,std::allocator<QuestData *> >, COMDAT
; _this$ = ecx

; 705  : 		_Tidy();

  00000	e9 00 00 00 00	 jmp	 ?_Tidy@?$vector@PAVQuestData@@V?$allocator@PAVQuestData@@@std@@@std@@IAEXXZ ; std::vector<QuestData *,std::allocator<QuestData *> >::_Tidy
??1?$vector@PAVQuestData@@V?$allocator@PAVQuestData@@@std@@@std@@QAE@XZ ENDP ; std::vector<QuestData *,std::allocator<QuestData *> >::~vector<QuestData *,std::allocator<QuestData *> >
_TEXT	ENDS
PUBLIC	?erase@?$vector@PAVQuestData@@V?$allocator@PAVQuestData@@@std@@@std@@QAE?AV?$_Vector_iterator@V?$_Vector_val@PAVQuestData@@V?$allocator@PAVQuestData@@@std@@@std@@@2@V?$_Vector_const_iterator@V?$_Vector_val@PAVQuestData@@V?$allocator@PAVQuestData@@@std@@@std@@@2@@Z ; std::vector<QuestData *,std::allocator<QuestData *> >::erase
; Function compile flags: /Ogsp
;	COMDAT ?erase@?$vector@PAVQuestData@@V?$allocator@PAVQuestData@@@std@@@std@@QAE?AV?$_Vector_iterator@V?$_Vector_val@PAVQuestData@@V?$allocator@PAVQuestData@@@std@@@std@@@2@V?$_Vector_const_iterator@V?$_Vector_val@PAVQuestData@@V?$allocator@PAVQuestData@@@std@@@std@@@2@@Z
_TEXT	SEGMENT
___$ReturnUdt$ = 8					; size = 4
__Cat$512509 = 12					; size = 1
__Where$ = 12						; size = 4
?erase@?$vector@PAVQuestData@@V?$allocator@PAVQuestData@@@std@@@std@@QAE?AV?$_Vector_iterator@V?$_Vector_val@PAVQuestData@@V?$allocator@PAVQuestData@@@std@@@std@@@2@V?$_Vector_const_iterator@V?$_Vector_val@PAVQuestData@@V?$allocator@PAVQuestData@@@std@@@std@@@2@@Z PROC ; std::vector<QuestData *,std::allocator<QuestData *> >::erase, COMDAT
; _this$ = ecx

; 1179 : 		{	// erase element at where

  00000	55		 push	 ebp
  00001	8b ec		 mov	 ebp, esp

; 1180 : 		_Move(_VIPTR(_Where) + 1, this->_Mylast,
; 1181 : 			_VIPTR(_Where));

  00003	8b 45 0c	 mov	 eax, DWORD PTR __Where$[ebp]
  00006	56		 push	 esi
  00007	ff 75 0c	 push	 DWORD PTR __Cat$512509[ebp]
  0000a	8b f1		 mov	 esi, ecx
  0000c	50		 push	 eax
  0000d	ff 76 04	 push	 DWORD PTR [esi+4]
  00010	83 c0 04	 add	 eax, 4
  00013	50		 push	 eax
  00014	e8 00 00 00 00	 call	 ??$_Move@PAPAVQuestData@@PAPAV1@@std@@YAPAPAVQuestData@@PAPAV1@00U_Scalar_ptr_iterator_tag@0@@Z ; std::_Move<QuestData * *,QuestData * *>

; 1182 : 		_Destroy(this->_Mylast - 1, this->_Mylast);
; 1183 : 		--this->_Mylast;
; 1184 : 		return (_Make_iter(_Where));

  00019	8b 45 08	 mov	 eax, DWORD PTR ___$ReturnUdt$[ebp]
  0001c	8b 4d 0c	 mov	 ecx, DWORD PTR __Where$[ebp]
  0001f	83 c4 10	 add	 esp, 16			; 00000010H
  00022	83 46 04 fc	 add	 DWORD PTR [esi+4], -4	; fffffffcH
  00026	89 08		 mov	 DWORD PTR [eax], ecx
  00028	5e		 pop	 esi

; 1185 : 		}

  00029	5d		 pop	 ebp
  0002a	c2 08 00	 ret	 8
?erase@?$vector@PAVQuestData@@V?$allocator@PAVQuestData@@@std@@@std@@QAE?AV?$_Vector_iterator@V?$_Vector_val@PAVQuestData@@V?$allocator@PAVQuestData@@@std@@@std@@@2@V?$_Vector_const_iterator@V?$_Vector_val@PAVQuestData@@V?$allocator@PAVQuestData@@@std@@@std@@@2@@Z ENDP ; std::vector<QuestData *,std::allocator<QuestData *> >::erase
_TEXT	ENDS
PUBLIC	??1?$vector@PAVQuestCompleteData@@V?$allocator@PAVQuestCompleteData@@@std@@@std@@QAE@XZ ; std::vector<QuestCompleteData *,std::allocator<QuestCompleteData *> >::~vector<QuestCompleteData *,std::allocator<QuestCompleteData *> >
; Function compile flags: /Ogsp
;	COMDAT ??1?$vector@PAVQuestCompleteData@@V?$allocator@PAVQuestCompleteData@@@std@@@std@@QAE@XZ
_TEXT	SEGMENT
??1?$vector@PAVQuestCompleteData@@V?$allocator@PAVQuestCompleteData@@@std@@@std@@QAE@XZ PROC ; std::vector<QuestCompleteData *,std::allocator<QuestCompleteData *> >::~vector<QuestCompleteData *,std::allocator<QuestCompleteData *> >, COMDAT
; _this$ = ecx

; 705  : 		_Tidy();

  00000	e9 00 00 00 00	 jmp	 ?_Tidy@?$vector@PAVQuestCompleteData@@V?$allocator@PAVQuestCompleteData@@@std@@@std@@IAEXXZ ; std::vector<QuestCompleteData *,std::allocator<QuestCompleteData *> >::_Tidy
??1?$vector@PAVQuestCompleteData@@V?$allocator@PAVQuestCompleteData@@@std@@@std@@QAE@XZ ENDP ; std::vector<QuestCompleteData *,std::allocator<QuestCompleteData *> >::~vector<QuestCompleteData *,std::allocator<QuestCompleteData *> >
_TEXT	ENDS
PUBLIC	?erase@?$vector@PAVQuestCompleteData@@V?$allocator@PAVQuestCompleteData@@@std@@@std@@QAE?AV?$_Vector_iterator@V?$_Vector_val@PAVQuestCompleteData@@V?$allocator@PAVQuestCompleteData@@@std@@@std@@@2@V?$_Vector_const_iterator@V?$_Vector_val@PAVQuestCompleteData@@V?$allocator@PAVQuestCompleteData@@@std@@@std@@@2@@Z ; std::vector<QuestCompleteData *,std::allocator<QuestCompleteData *> >::erase
; Function compile flags: /Ogsp
;	COMDAT ?erase@?$vector@PAVQuestCompleteData@@V?$allocator@PAVQuestCompleteData@@@std@@@std@@QAE?AV?$_Vector_iterator@V?$_Vector_val@PAVQuestCompleteData@@V?$allocator@PAVQuestCompleteData@@@std@@@std@@@2@V?$_Vector_const_iterator@V?$_Vector_val@PAVQuestCompleteData@@V?$allocator@PAVQuestCompleteData@@@std@@@std@@@2@@Z
_TEXT	SEGMENT
___$ReturnUdt$ = 8					; size = 4
__Cat$512582 = 12					; size = 1
__Where$ = 12						; size = 4
?erase@?$vector@PAVQuestCompleteData@@V?$allocator@PAVQuestCompleteData@@@std@@@std@@QAE?AV?$_Vector_iterator@V?$_Vector_val@PAVQuestCompleteData@@V?$allocator@PAVQuestCompleteData@@@std@@@std@@@2@V?$_Vector_const_iterator@V?$_Vector_val@PAVQuestCompleteData@@V?$allocator@PAVQuestCompleteData@@@std@@@std@@@2@@Z PROC ; std::vector<QuestCompleteData *,std::allocator<QuestCompleteData *> >::erase, COMDAT
; _this$ = ecx

; 1179 : 		{	// erase element at where

  00000	55		 push	 ebp
  00001	8b ec		 mov	 ebp, esp

; 1180 : 		_Move(_VIPTR(_Where) + 1, this->_Mylast,
; 1181 : 			_VIPTR(_Where));

  00003	8b 45 0c	 mov	 eax, DWORD PTR __Where$[ebp]
  00006	56		 push	 esi
  00007	ff 75 0c	 push	 DWORD PTR __Cat$512582[ebp]
  0000a	8b f1		 mov	 esi, ecx
  0000c	50		 push	 eax
  0000d	ff 76 04	 push	 DWORD PTR [esi+4]
  00010	83 c0 04	 add	 eax, 4
  00013	50		 push	 eax
  00014	e8 00 00 00 00	 call	 ??$_Move@PAPAVQuestCompleteData@@PAPAV1@@std@@YAPAPAVQuestCompleteData@@PAPAV1@00U_Scalar_ptr_iterator_tag@0@@Z ; std::_Move<QuestCompleteData * *,QuestCompleteData * *>

; 1182 : 		_Destroy(this->_Mylast - 1, this->_Mylast);
; 1183 : 		--this->_Mylast;
; 1184 : 		return (_Make_iter(_Where));

  00019	8b 45 08	 mov	 eax, DWORD PTR ___$ReturnUdt$[ebp]
  0001c	8b 4d 0c	 mov	 ecx, DWORD PTR __Where$[ebp]
  0001f	83 c4 10	 add	 esp, 16			; 00000010H
  00022	83 46 04 fc	 add	 DWORD PTR [esi+4], -4	; fffffffcH
  00026	89 08		 mov	 DWORD PTR [eax], ecx
  00028	5e		 pop	 esi

; 1185 : 		}

  00029	5d		 pop	 ebp
  0002a	c2 08 00	 ret	 8
?erase@?$vector@PAVQuestCompleteData@@V?$allocator@PAVQuestCompleteData@@@std@@@std@@QAE?AV?$_Vector_iterator@V?$_Vector_val@PAVQuestCompleteData@@V?$allocator@PAVQuestCompleteData@@@std@@@std@@@2@V?$_Vector_const_iterator@V?$_Vector_val@PAVQuestCompleteData@@V?$allocator@PAVQuestCompleteData@@@std@@@std@@@2@@Z ENDP ; std::vector<QuestCompleteData *,std::allocator<QuestCompleteData *> >::erase
_TEXT	ENDS
PUBLIC	?erase@?$vector@PAVQuestData@@V?$allocator@PAVQuestData@@@std@@@std@@QAE?AV?$_Vector_iterator@V?$_Vector_val@PAVQuestData@@V?$allocator@PAVQuestData@@@std@@@std@@@2@V?$_Vector_const_iterator@V?$_Vector_val@PAVQuestData@@V?$allocator@PAVQuestData@@@std@@@std@@@2@0@Z ; std::vector<QuestData *,std::allocator<QuestData *> >::erase
; Function compile flags: /Ogsp
;	COMDAT ?erase@?$vector@PAVQuestData@@V?$allocator@PAVQuestData@@@std@@@std@@QAE?AV?$_Vector_iterator@V?$_Vector_val@PAVQuestData@@V?$allocator@PAVQuestData@@@std@@@std@@@2@V?$_Vector_const_iterator@V?$_Vector_val@PAVQuestData@@V?$allocator@PAVQuestData@@@std@@@std@@@2@0@Z
_TEXT	SEGMENT
___$ReturnUdt$ = 8					; size = 4
__First_arg$ = 12					; size = 4
__Cat$512713 = 16					; size = 1
__Last_arg$ = 16					; size = 4
?erase@?$vector@PAVQuestData@@V?$allocator@PAVQuestData@@@std@@@std@@QAE?AV?$_Vector_iterator@V?$_Vector_val@PAVQuestData@@V?$allocator@PAVQuestData@@@std@@@std@@@2@V?$_Vector_const_iterator@V?$_Vector_val@PAVQuestData@@V?$allocator@PAVQuestData@@@std@@@std@@@2@0@Z PROC ; std::vector<QuestData *,std::allocator<QuestData *> >::erase, COMDAT
; _this$ = ecx

; 1190 : 		{	// erase [_First, _Last)

  00000	55		 push	 ebp
  00001	8b ec		 mov	 ebp, esp

; 1191 : 		iterator _First = _Make_iter(_First_arg);

  00003	8b 45 0c	 mov	 eax, DWORD PTR __First_arg$[ebp]
  00006	56		 push	 esi
  00007	57		 push	 edi
  00008	8b 7d 08	 mov	 edi, DWORD PTR ___$ReturnUdt$[ebp]
  0000b	8b f1		 mov	 esi, ecx
  0000d	89 07		 mov	 DWORD PTR [edi], eax

; 1192 : 		iterator _Last = _Make_iter(_Last_arg);
; 1193 : 
; 1194 : 		if (_First != _Last)

  0000f	3b 45 10	 cmp	 eax, DWORD PTR __Last_arg$[ebp]
  00012	74 16		 je	 SHORT $LN1@erase

; 1195 : 			{	// worth doing, copy down over hole
; 1196 :  #if _ITERATOR_DEBUG_LEVEL == 2
; 1197 : 			if (_Last < _First || _VICONT(_First) != this
; 1198 : 				|| _VIPTR(_First) < this->_Myfirst
; 1199 : 				|| this->_Mylast < _VIPTR(_Last))
; 1200 : 				_DEBUG_ERROR("vector erase iterator outside range");
; 1201 : 			pointer _Ptr = _Move(_VIPTR(_Last), this->_Mylast,
; 1202 : 				_VIPTR(_First));
; 1203 : 			_Orphan_range(_VIPTR(_First), this->_Mylast);
; 1204 : 
; 1205 :  #else /* _ITERATOR_DEBUG_LEVEL == 2 */
; 1206 : 			pointer _Ptr = _Move(_VIPTR(_Last), this->_Mylast,
; 1207 : 				_VIPTR(_First));

  00014	ff 75 10	 push	 DWORD PTR __Cat$512713[ebp]
  00017	8b 4e 04	 mov	 ecx, DWORD PTR [esi+4]
  0001a	50		 push	 eax
  0001b	51		 push	 ecx
  0001c	ff 75 10	 push	 DWORD PTR __Last_arg$[ebp]
  0001f	e8 00 00 00 00	 call	 ??$_Move@PAPAVQuestData@@PAPAV1@@std@@YAPAPAVQuestData@@PAPAV1@00U_Scalar_ptr_iterator_tag@0@@Z ; std::_Move<QuestData * *,QuestData * *>
  00024	83 c4 10	 add	 esp, 16			; 00000010H

; 1208 :  #endif /* _ITERATOR_DEBUG_LEVEL == 2 */
; 1209 : 
; 1210 : 			_Destroy(_Ptr, this->_Mylast);
; 1211 : 			this->_Mylast = _Ptr;

  00027	89 46 04	 mov	 DWORD PTR [esi+4], eax
$LN1@erase:

; 1212 : 			}
; 1213 : 		return (_First);

  0002a	8b c7		 mov	 eax, edi
  0002c	5f		 pop	 edi
  0002d	5e		 pop	 esi

; 1214 : 		}

  0002e	5d		 pop	 ebp
  0002f	c2 0c 00	 ret	 12			; 0000000cH
?erase@?$vector@PAVQuestData@@V?$allocator@PAVQuestData@@@std@@@std@@QAE?AV?$_Vector_iterator@V?$_Vector_val@PAVQuestData@@V?$allocator@PAVQuestData@@@std@@@std@@@2@V?$_Vector_const_iterator@V?$_Vector_val@PAVQuestData@@V?$allocator@PAVQuestData@@@std@@@std@@@2@0@Z ENDP ; std::vector<QuestData *,std::allocator<QuestData *> >::erase
_TEXT	ENDS
PUBLIC	?erase@?$vector@PAVQuestCompleteData@@V?$allocator@PAVQuestCompleteData@@@std@@@std@@QAE?AV?$_Vector_iterator@V?$_Vector_val@PAVQuestCompleteData@@V?$allocator@PAVQuestCompleteData@@@std@@@std@@@2@V?$_Vector_const_iterator@V?$_Vector_val@PAVQuestCompleteData@@V?$allocator@PAVQuestCompleteData@@@std@@@std@@@2@0@Z ; std::vector<QuestCompleteData *,std::allocator<QuestCompleteData *> >::erase
; Function compile flags: /Ogsp
;	COMDAT ?erase@?$vector@PAVQuestCompleteData@@V?$allocator@PAVQuestCompleteData@@@std@@@std@@QAE?AV?$_Vector_iterator@V?$_Vector_val@PAVQuestCompleteData@@V?$allocator@PAVQuestCompleteData@@@std@@@std@@@2@V?$_Vector_const_iterator@V?$_Vector_val@PAVQuestCompleteData@@V?$allocator@PAVQuestCompleteData@@@std@@@std@@@2@0@Z
_TEXT	SEGMENT
___$ReturnUdt$ = 8					; size = 4
__First_arg$ = 12					; size = 4
__Cat$512821 = 16					; size = 1
__Last_arg$ = 16					; size = 4
?erase@?$vector@PAVQuestCompleteData@@V?$allocator@PAVQuestCompleteData@@@std@@@std@@QAE?AV?$_Vector_iterator@V?$_Vector_val@PAVQuestCompleteData@@V?$allocator@PAVQuestCompleteData@@@std@@@std@@@2@V?$_Vector_const_iterator@V?$_Vector_val@PAVQuestCompleteData@@V?$allocator@PAVQuestCompleteData@@@std@@@std@@@2@0@Z PROC ; std::vector<QuestCompleteData *,std::allocator<QuestCompleteData *> >::erase, COMDAT
; _this$ = ecx

; 1190 : 		{	// erase [_First, _Last)

  00000	55		 push	 ebp
  00001	8b ec		 mov	 ebp, esp

; 1191 : 		iterator _First = _Make_iter(_First_arg);

  00003	8b 45 0c	 mov	 eax, DWORD PTR __First_arg$[ebp]
  00006	56		 push	 esi
  00007	57		 push	 edi
  00008	8b 7d 08	 mov	 edi, DWORD PTR ___$ReturnUdt$[ebp]
  0000b	8b f1		 mov	 esi, ecx
  0000d	89 07		 mov	 DWORD PTR [edi], eax

; 1192 : 		iterator _Last = _Make_iter(_Last_arg);
; 1193 : 
; 1194 : 		if (_First != _Last)

  0000f	3b 45 10	 cmp	 eax, DWORD PTR __Last_arg$[ebp]
  00012	74 16		 je	 SHORT $LN1@erase@2

; 1195 : 			{	// worth doing, copy down over hole
; 1196 :  #if _ITERATOR_DEBUG_LEVEL == 2
; 1197 : 			if (_Last < _First || _VICONT(_First) != this
; 1198 : 				|| _VIPTR(_First) < this->_Myfirst
; 1199 : 				|| this->_Mylast < _VIPTR(_Last))
; 1200 : 				_DEBUG_ERROR("vector erase iterator outside range");
; 1201 : 			pointer _Ptr = _Move(_VIPTR(_Last), this->_Mylast,
; 1202 : 				_VIPTR(_First));
; 1203 : 			_Orphan_range(_VIPTR(_First), this->_Mylast);
; 1204 : 
; 1205 :  #else /* _ITERATOR_DEBUG_LEVEL == 2 */
; 1206 : 			pointer _Ptr = _Move(_VIPTR(_Last), this->_Mylast,
; 1207 : 				_VIPTR(_First));

  00014	ff 75 10	 push	 DWORD PTR __Cat$512821[ebp]
  00017	8b 4e 04	 mov	 ecx, DWORD PTR [esi+4]
  0001a	50		 push	 eax
  0001b	51		 push	 ecx
  0001c	ff 75 10	 push	 DWORD PTR __Last_arg$[ebp]
  0001f	e8 00 00 00 00	 call	 ??$_Move@PAPAVQuestCompleteData@@PAPAV1@@std@@YAPAPAVQuestCompleteData@@PAPAV1@00U_Scalar_ptr_iterator_tag@0@@Z ; std::_Move<QuestCompleteData * *,QuestCompleteData * *>
  00024	83 c4 10	 add	 esp, 16			; 00000010H

; 1208 :  #endif /* _ITERATOR_DEBUG_LEVEL == 2 */
; 1209 : 
; 1210 : 			_Destroy(_Ptr, this->_Mylast);
; 1211 : 			this->_Mylast = _Ptr;

  00027	89 46 04	 mov	 DWORD PTR [esi+4], eax
$LN1@erase@2:

; 1212 : 			}
; 1213 : 		return (_First);

  0002a	8b c7		 mov	 eax, edi
  0002c	5f		 pop	 edi
  0002d	5e		 pop	 esi

; 1214 : 		}

  0002e	5d		 pop	 ebp
  0002f	c2 0c 00	 ret	 12			; 0000000cH
?erase@?$vector@PAVQuestCompleteData@@V?$allocator@PAVQuestCompleteData@@@std@@@std@@QAE?AV?$_Vector_iterator@V?$_Vector_val@PAVQuestCompleteData@@V?$allocator@PAVQuestCompleteData@@@std@@@std@@@2@V?$_Vector_const_iterator@V?$_Vector_val@PAVQuestCompleteData@@V?$allocator@PAVQuestCompleteData@@@std@@@std@@@2@0@Z ENDP ; std::vector<QuestCompleteData *,std::allocator<QuestCompleteData *> >::erase
_TEXT	ENDS
PUBLIC	??$_Insertion_sort@PAPAVQuestData@@VQuestDataSort@@@std@@YAXPAPAVQuestData@@0VQuestDataSort@@@Z ; std::_Insertion_sort<QuestData * *,QuestDataSort>
; Function compile flags: /Ogsp
; File c:\program files (x86)\microsoft visual studio 10.0\vc\include\algorithm
;	COMDAT ??$_Insertion_sort@PAPAVQuestData@@VQuestDataSort@@@std@@YAXPAPAVQuestData@@0VQuestDataSort@@@Z
_TEXT	SEGMENT
__First$ = 8						; size = 4
__Last$ = 12						; size = 4
__Pred$ = 16						; size = 1
??$_Insertion_sort@PAPAVQuestData@@VQuestDataSort@@@std@@YAXPAPAVQuestData@@0VQuestDataSort@@@Z PROC ; std::_Insertion_sort<QuestData * *,QuestDataSort>, COMDAT

; 3676 : 	{	// insertion sort [_First, _Last), using _Pred

  00000	55		 push	 ebp
  00001	8b ec		 mov	 ebp, esp

; 3677 : 	_Insertion_sort1(_First, _Last, _Pred, _Val_type(_First));

  00003	6a 00		 push	 0
  00005	ff 75 10	 push	 DWORD PTR __Pred$[ebp]
  00008	ff 75 0c	 push	 DWORD PTR __Last$[ebp]
  0000b	ff 75 08	 push	 DWORD PTR __First$[ebp]
  0000e	e8 00 00 00 00	 call	 ??$_Insertion_sort1@PAPAVQuestData@@VQuestDataSort@@PAV1@@std@@YAXPAPAVQuestData@@0VQuestDataSort@@0@Z ; std::_Insertion_sort1<QuestData * *,QuestDataSort,QuestData *>
  00013	83 c4 10	 add	 esp, 16			; 00000010H

; 3678 : 	}

  00016	5d		 pop	 ebp
  00017	c3		 ret	 0
??$_Insertion_sort@PAPAVQuestData@@VQuestDataSort@@@std@@YAXPAPAVQuestData@@0VQuestDataSort@@@Z ENDP ; std::_Insertion_sort<QuestData * *,QuestDataSort>
_TEXT	ENDS
PUBLIC	??$_Insertion_sort@PAPAVQuestCompleteData@@VQuestCompleteDataSort@@@std@@YAXPAPAVQuestCompleteData@@0VQuestCompleteDataSort@@@Z ; std::_Insertion_sort<QuestCompleteData * *,QuestCompleteDataSort>
; Function compile flags: /Ogsp
;	COMDAT ??$_Insertion_sort@PAPAVQuestCompleteData@@VQuestCompleteDataSort@@@std@@YAXPAPAVQuestCompleteData@@0VQuestCompleteDataSort@@@Z
_TEXT	SEGMENT
__First$ = 8						; size = 4
__Last$ = 12						; size = 4
__Pred$ = 16						; size = 1
??$_Insertion_sort@PAPAVQuestCompleteData@@VQuestCompleteDataSort@@@std@@YAXPAPAVQuestCompleteData@@0VQuestCompleteDataSort@@@Z PROC ; std::_Insertion_sort<QuestCompleteData * *,QuestCompleteDataSort>, COMDAT

; 3676 : 	{	// insertion sort [_First, _Last), using _Pred

  00000	55		 push	 ebp
  00001	8b ec		 mov	 ebp, esp

; 3677 : 	_Insertion_sort1(_First, _Last, _Pred, _Val_type(_First));

  00003	6a 00		 push	 0
  00005	ff 75 10	 push	 DWORD PTR __Pred$[ebp]
  00008	ff 75 0c	 push	 DWORD PTR __Last$[ebp]
  0000b	ff 75 08	 push	 DWORD PTR __First$[ebp]
  0000e	e8 00 00 00 00	 call	 ??$_Insertion_sort1@PAPAVQuestCompleteData@@VQuestCompleteDataSort@@PAV1@@std@@YAXPAPAVQuestCompleteData@@0VQuestCompleteDataSort@@0@Z ; std::_Insertion_sort1<QuestCompleteData * *,QuestCompleteDataSort,QuestCompleteData *>
  00013	83 c4 10	 add	 esp, 16			; 00000010H

; 3678 : 	}

  00016	5d		 pop	 ebp
  00017	c3		 ret	 0
??$_Insertion_sort@PAPAVQuestCompleteData@@VQuestCompleteDataSort@@@std@@YAXPAPAVQuestCompleteData@@0VQuestCompleteDataSort@@@Z ENDP ; std::_Insertion_sort<QuestCompleteData * *,QuestCompleteDataSort>
_TEXT	ENDS
PUBLIC	?reserve@?$vector@PAVQuestData@@V?$allocator@PAVQuestData@@@std@@@std@@QAEXI@Z ; std::vector<QuestData *,std::allocator<QuestData *> >::reserve
; Function compile flags: /Ogsp
; File c:\program files (x86)\microsoft visual studio 10.0\vc\include\vector
;	COMDAT ?reserve@?$vector@PAVQuestData@@V?$allocator@PAVQuestData@@@std@@@std@@QAEXI@Z
_TEXT	SEGMENT
__Count$ = 8						; size = 4
?reserve@?$vector@PAVQuestData@@V?$allocator@PAVQuestData@@@std@@@std@@QAEXI@Z PROC ; std::vector<QuestData *,std::allocator<QuestData *> >::reserve, COMDAT
; _this$ = ecx

; 746  : 		{	// determine new minimum length of allocated storage

  00000	55		 push	 ebp
  00001	8b ec		 mov	 ebp, esp

; 747  : 		if (max_size() < _Count)

  00003	81 7d 08 ff ff
	ff 3f		 cmp	 DWORD PTR __Count$[ebp], 1073741823 ; 3fffffffH
  0000a	56		 push	 esi
  0000b	8b f1		 mov	 esi, ecx
  0000d	76 0b		 jbe	 SHORT $LN5@reserve

; 748  : 			_Xlen();	// result too long

  0000f	68 00 00 00 00	 push	 OFFSET ??_C@_0BD@OLBABOEK@vector?$DMT?$DO?5too?5long?$AA@
  00014	ff 15 00 00 00
	00		 call	 DWORD PTR __imp_?_Xlength_error@std@@YAXPBD@Z
$LN43@reserve:
$LN5@reserve:

; 749  : 		else if (capacity() < _Count)

  0001a	8b 46 08	 mov	 eax, DWORD PTR [esi+8]
  0001d	2b 06		 sub	 eax, DWORD PTR [esi]
  0001f	c1 f8 02	 sar	 eax, 2
  00022	3b 45 08	 cmp	 eax, DWORD PTR __Count$[ebp]
  00025	73 52		 jae	 SHORT $LN3@reserve

; 750  : 			{	// not enough room, reallocate
; 751  : 			pointer _Ptr = this->_Alval.allocate(_Count);

  00027	53		 push	 ebx
  00028	57		 push	 edi
  00029	6a 00		 push	 0
  0002b	ff 75 08	 push	 DWORD PTR __Count$[ebp]
  0002e	e8 00 00 00 00	 call	 ??$_Allocate@PAVQuestData@@@std@@YAPAPAVQuestData@@IPAPAV1@@Z ; std::_Allocate<QuestData *>

; 752  : 
; 753  : 			_TRY_BEGIN
; 754  : 			_Umove(this->_Myfirst, this->_Mylast, _Ptr);

  00033	8b 0e		 mov	 ecx, DWORD PTR [esi]
  00035	8d 56 0c	 lea	 edx, DWORD PTR [esi+12]
  00038	52		 push	 edx
  00039	8b d8		 mov	 ebx, eax
  0003b	8b 46 04	 mov	 eax, DWORD PTR [esi+4]
  0003e	53		 push	 ebx
  0003f	50		 push	 eax
  00040	51		 push	 ecx
  00041	e8 00 00 00 00	 call	 ??$_Uninitialized_move@PAPAVQuestData@@PAPAV1@V?$allocator@PAVQuestData@@@std@@@std@@YAPAPAVQuestData@@PAPAV1@00AAV?$allocator@PAVQuestData@@@0@@Z ; std::_Uninitialized_move<QuestData * *,QuestData * *,std::allocator<QuestData *> >

; 755  : 			_CATCH_ALL
; 756  : 			this->_Alval.deallocate(_Ptr, _Count);
; 757  : 			_RERAISE;
; 758  : 			_CATCH_END
; 759  : 
; 760  : 			size_type _Size = size();

  00046	8b 06		 mov	 eax, DWORD PTR [esi]
  00048	8b 7e 04	 mov	 edi, DWORD PTR [esi+4]
  0004b	2b f8		 sub	 edi, eax
  0004d	83 c4 18	 add	 esp, 24			; 00000018H
  00050	c1 ff 02	 sar	 edi, 2

; 761  : 			if (this->_Myfirst != 0)

  00053	85 c0		 test	 eax, eax
  00055	74 07		 je	 SHORT $LN39@reserve

; 762  : 				{	// destroy and deallocate old array
; 763  : 				_Destroy(this->_Myfirst, this->_Mylast);
; 764  : 				this->_Alval.deallocate(this->_Myfirst,
; 765  : 					this->_Myend - this->_Myfirst);

  00057	50		 push	 eax
  00058	e8 00 00 00 00	 call	 ??3@YAXPAX@Z		; operator delete
  0005d	59		 pop	 ecx
$LN39@reserve:

; 766  : 				}
; 767  : 
; 768  : 			this->_Orphan_all();

  0005e	8b ce		 mov	 ecx, esi
  00060	ff 15 00 00 00
	00		 call	 DWORD PTR __imp_?_Orphan_all@_Container_base0@std@@QAEXXZ

; 769  : 			this->_Myend = _Ptr + _Count;

  00066	8b 45 08	 mov	 eax, DWORD PTR __Count$[ebp]
  00069	8d 04 83	 lea	 eax, DWORD PTR [ebx+eax*4]
  0006c	89 46 08	 mov	 DWORD PTR [esi+8], eax

; 770  : 			this->_Mylast = _Ptr + _Size;

  0006f	8d 04 bb	 lea	 eax, DWORD PTR [ebx+edi*4]
  00072	5f		 pop	 edi

; 771  : 			this->_Myfirst = _Ptr;

  00073	89 1e		 mov	 DWORD PTR [esi], ebx
  00075	89 46 04	 mov	 DWORD PTR [esi+4], eax
  00078	5b		 pop	 ebx
$LN3@reserve:
  00079	5e		 pop	 esi

; 772  : 			}
; 773  : 		}

  0007a	5d		 pop	 ebp
  0007b	c2 04 00	 ret	 4
$LN42@reserve:
?reserve@?$vector@PAVQuestData@@V?$allocator@PAVQuestData@@@std@@@std@@QAEXI@Z ENDP ; std::vector<QuestData *,std::allocator<QuestData *> >::reserve
_TEXT	ENDS
PUBLIC	?reserve@?$vector@PAVQuestCompleteData@@V?$allocator@PAVQuestCompleteData@@@std@@@std@@QAEXI@Z ; std::vector<QuestCompleteData *,std::allocator<QuestCompleteData *> >::reserve
; Function compile flags: /Ogsp
;	COMDAT ?reserve@?$vector@PAVQuestCompleteData@@V?$allocator@PAVQuestCompleteData@@@std@@@std@@QAEXI@Z
_TEXT	SEGMENT
__Count$ = 8						; size = 4
?reserve@?$vector@PAVQuestCompleteData@@V?$allocator@PAVQuestCompleteData@@@std@@@std@@QAEXI@Z PROC ; std::vector<QuestCompleteData *,std::allocator<QuestCompleteData *> >::reserve, COMDAT
; _this$ = ecx

; 746  : 		{	// determine new minimum length of allocated storage

  00000	55		 push	 ebp
  00001	8b ec		 mov	 ebp, esp

; 747  : 		if (max_size() < _Count)

  00003	81 7d 08 ff ff
	ff 3f		 cmp	 DWORD PTR __Count$[ebp], 1073741823 ; 3fffffffH
  0000a	56		 push	 esi
  0000b	8b f1		 mov	 esi, ecx
  0000d	76 0b		 jbe	 SHORT $LN5@reserve@2

; 748  : 			_Xlen();	// result too long

  0000f	68 00 00 00 00	 push	 OFFSET ??_C@_0BD@OLBABOEK@vector?$DMT?$DO?5too?5long?$AA@
  00014	ff 15 00 00 00
	00		 call	 DWORD PTR __imp_?_Xlength_error@std@@YAXPBD@Z
$LN43@reserve@2:
$LN5@reserve@2:

; 749  : 		else if (capacity() < _Count)

  0001a	8b 46 08	 mov	 eax, DWORD PTR [esi+8]
  0001d	2b 06		 sub	 eax, DWORD PTR [esi]
  0001f	c1 f8 02	 sar	 eax, 2
  00022	3b 45 08	 cmp	 eax, DWORD PTR __Count$[ebp]
  00025	73 52		 jae	 SHORT $LN3@reserve@2

; 750  : 			{	// not enough room, reallocate
; 751  : 			pointer _Ptr = this->_Alval.allocate(_Count);

  00027	53		 push	 ebx
  00028	57		 push	 edi
  00029	6a 00		 push	 0
  0002b	ff 75 08	 push	 DWORD PTR __Count$[ebp]
  0002e	e8 00 00 00 00	 call	 ??$_Allocate@PAVQuestCompleteData@@@std@@YAPAPAVQuestCompleteData@@IPAPAV1@@Z ; std::_Allocate<QuestCompleteData *>

; 752  : 
; 753  : 			_TRY_BEGIN
; 754  : 			_Umove(this->_Myfirst, this->_Mylast, _Ptr);

  00033	8b 0e		 mov	 ecx, DWORD PTR [esi]
  00035	8d 56 0c	 lea	 edx, DWORD PTR [esi+12]
  00038	52		 push	 edx
  00039	8b d8		 mov	 ebx, eax
  0003b	8b 46 04	 mov	 eax, DWORD PTR [esi+4]
  0003e	53		 push	 ebx
  0003f	50		 push	 eax
  00040	51		 push	 ecx
  00041	e8 00 00 00 00	 call	 ??$_Uninitialized_move@PAPAVQuestCompleteData@@PAPAV1@V?$allocator@PAVQuestCompleteData@@@std@@@std@@YAPAPAVQuestCompleteData@@PAPAV1@00AAV?$allocator@PAVQuestCompleteData@@@0@@Z ; std::_Uninitialized_move<QuestCompleteData * *,QuestCompleteData * *,std::allocator<QuestCompleteData *> >

; 755  : 			_CATCH_ALL
; 756  : 			this->_Alval.deallocate(_Ptr, _Count);
; 757  : 			_RERAISE;
; 758  : 			_CATCH_END
; 759  : 
; 760  : 			size_type _Size = size();

  00046	8b 06		 mov	 eax, DWORD PTR [esi]
  00048	8b 7e 04	 mov	 edi, DWORD PTR [esi+4]
  0004b	2b f8		 sub	 edi, eax
  0004d	83 c4 18	 add	 esp, 24			; 00000018H
  00050	c1 ff 02	 sar	 edi, 2

; 761  : 			if (this->_Myfirst != 0)

  00053	85 c0		 test	 eax, eax
  00055	74 07		 je	 SHORT $LN39@reserve@2

; 762  : 				{	// destroy and deallocate old array
; 763  : 				_Destroy(this->_Myfirst, this->_Mylast);
; 764  : 				this->_Alval.deallocate(this->_Myfirst,
; 765  : 					this->_Myend - this->_Myfirst);

  00057	50		 push	 eax
  00058	e8 00 00 00 00	 call	 ??3@YAXPAX@Z		; operator delete
  0005d	59		 pop	 ecx
$LN39@reserve@2:

; 766  : 				}
; 767  : 
; 768  : 			this->_Orphan_all();

  0005e	8b ce		 mov	 ecx, esi
  00060	ff 15 00 00 00
	00		 call	 DWORD PTR __imp_?_Orphan_all@_Container_base0@std@@QAEXXZ

; 769  : 			this->_Myend = _Ptr + _Count;

  00066	8b 45 08	 mov	 eax, DWORD PTR __Count$[ebp]
  00069	8d 04 83	 lea	 eax, DWORD PTR [ebx+eax*4]
  0006c	89 46 08	 mov	 DWORD PTR [esi+8], eax

; 770  : 			this->_Mylast = _Ptr + _Size;

  0006f	8d 04 bb	 lea	 eax, DWORD PTR [ebx+edi*4]
  00072	5f		 pop	 edi

; 771  : 			this->_Myfirst = _Ptr;

  00073	89 1e		 mov	 DWORD PTR [esi], ebx
  00075	89 46 04	 mov	 DWORD PTR [esi+4], eax
  00078	5b		 pop	 ebx
$LN3@reserve@2:
  00079	5e		 pop	 esi

; 772  : 			}
; 773  : 		}

  0007a	5d		 pop	 ebp
  0007b	c2 04 00	 ret	 4
$LN42@reserve@2:
?reserve@?$vector@PAVQuestCompleteData@@V?$allocator@PAVQuestCompleteData@@@std@@@std@@QAEXI@Z ENDP ; std::vector<QuestCompleteData *,std::allocator<QuestCompleteData *> >::reserve
_TEXT	ENDS
PUBLIC	??$_Median@PAPAVQuestData@@VQuestDataSort@@@std@@YAXPAPAVQuestData@@00VQuestDataSort@@@Z ; std::_Median<QuestData * *,QuestDataSort>
; Function compile flags: /Ogsp
; File c:\program files (x86)\microsoft visual studio 10.0\vc\include\algorithm
;	COMDAT ??$_Median@PAPAVQuestData@@VQuestDataSort@@@std@@YAXPAPAVQuestData@@00VQuestDataSort@@@Z
_TEXT	SEGMENT
tv200 = 8						; size = 4
__First$ = 8						; size = 4
__Mid$ = 12						; size = 4
tv203 = 16						; size = 4
__Last$ = 16						; size = 4
__Pred$ = 20						; size = 1
??$_Median@PAPAVQuestData@@VQuestDataSort@@@std@@YAXPAPAVQuestData@@00VQuestDataSort@@@Z PROC ; std::_Median<QuestData * *,QuestDataSort>, COMDAT

; 3695 : 	{	// sort median element to middle

  00000	55		 push	 ebp
  00001	8b ec		 mov	 ebp, esp

; 3696 : 	if (40 < _Last - _First)

  00003	8b 4d 08	 mov	 ecx, DWORD PTR __First$[ebp]
  00006	57		 push	 edi
  00007	8b 7d 10	 mov	 edi, DWORD PTR __Last$[ebp]
  0000a	8b c7		 mov	 eax, edi
  0000c	2b c1		 sub	 eax, ecx
  0000e	c1 f8 02	 sar	 eax, 2
  00011	83 f8 28	 cmp	 eax, 40			; 00000028H
  00014	7e 6a		 jle	 SHORT $LN2@Median

; 3697 : 		{	// median of nine
; 3698 : 		size_t _Step = (_Last - _First + 1) / 8;

  00016	40		 inc	 eax
  00017	99		 cdq
  00018	83 e2 07	 and	 edx, 7
  0001b	53		 push	 ebx
  0001c	03 c2		 add	 eax, edx
  0001e	c1 f8 03	 sar	 eax, 3
  00021	56		 push	 esi

; 3699 : 		_Med3(_First, _First + _Step, _First + 2 * _Step, _Pred);

  00022	ff 75 14	 push	 DWORD PTR __Pred$[ebp]
  00025	8b d8		 mov	 ebx, eax
  00027	8b f0		 mov	 esi, eax
  00029	c1 e3 03	 shl	 ebx, 3
  0002c	8d 14 0b	 lea	 edx, DWORD PTR [ebx+ecx]
  0002f	c1 e6 02	 shl	 esi, 2
  00032	8d 04 0e	 lea	 eax, DWORD PTR [esi+ecx]
  00035	52		 push	 edx
  00036	50		 push	 eax
  00037	51		 push	 ecx
  00038	89 45 08	 mov	 DWORD PTR tv200[ebp], eax
  0003b	e8 00 00 00 00	 call	 ??$_Med3@PAPAVQuestData@@VQuestDataSort@@@std@@YAXPAPAVQuestData@@00VQuestDataSort@@@Z ; std::_Med3<QuestData * *,QuestDataSort>

; 3700 : 		_Med3(_Mid - _Step, _Mid, _Mid + _Step, _Pred);

  00040	ff 75 14	 push	 DWORD PTR __Pred$[ebp]
  00043	8b 45 0c	 mov	 eax, DWORD PTR __Mid$[ebp]
  00046	8d 0c 06	 lea	 ecx, DWORD PTR [esi+eax]
  00049	51		 push	 ecx
  0004a	50		 push	 eax
  0004b	2b c6		 sub	 eax, esi
  0004d	50		 push	 eax
  0004e	e8 00 00 00 00	 call	 ??$_Med3@PAPAVQuestData@@VQuestDataSort@@@std@@YAXPAPAVQuestData@@00VQuestDataSort@@@Z ; std::_Med3<QuestData * *,QuestDataSort>

; 3701 : 		_Med3(_Last - 2 * _Step, _Last - _Step, _Last, _Pred);

  00053	ff 75 14	 push	 DWORD PTR __Pred$[ebp]
  00056	89 7d 10	 mov	 DWORD PTR tv203[ebp], edi
  00059	29 75 10	 sub	 DWORD PTR tv203[ebp], esi
  0005c	57		 push	 edi
  0005d	ff 75 10	 push	 DWORD PTR tv203[ebp]
  00060	2b fb		 sub	 edi, ebx
  00062	57		 push	 edi
  00063	e8 00 00 00 00	 call	 ??$_Med3@PAPAVQuestData@@VQuestDataSort@@@std@@YAXPAPAVQuestData@@00VQuestDataSort@@@Z ; std::_Med3<QuestData * *,QuestDataSort>

; 3702 : 		_Med3(_First + _Step, _Mid, _Last - _Step, _Pred);

  00068	ff 75 14	 push	 DWORD PTR __Pred$[ebp]
  0006b	ff 75 10	 push	 DWORD PTR tv203[ebp]
  0006e	ff 75 0c	 push	 DWORD PTR __Mid$[ebp]
  00071	ff 75 08	 push	 DWORD PTR tv200[ebp]
  00074	e8 00 00 00 00	 call	 ??$_Med3@PAPAVQuestData@@VQuestDataSort@@@std@@YAXPAPAVQuestData@@00VQuestDataSort@@@Z ; std::_Med3<QuestData * *,QuestDataSort>
  00079	83 c4 40	 add	 esp, 64			; 00000040H
  0007c	5e		 pop	 esi
  0007d	5b		 pop	 ebx

; 3703 : 		}
; 3704 : 	else

  0007e	eb 10		 jmp	 SHORT $LN1@Median
$LN2@Median:

; 3705 : 		_Med3(_First, _Mid, _Last, _Pred);

  00080	ff 75 14	 push	 DWORD PTR __Pred$[ebp]
  00083	57		 push	 edi
  00084	ff 75 0c	 push	 DWORD PTR __Mid$[ebp]
  00087	51		 push	 ecx
  00088	e8 00 00 00 00	 call	 ??$_Med3@PAPAVQuestData@@VQuestDataSort@@@std@@YAXPAPAVQuestData@@00VQuestDataSort@@@Z ; std::_Med3<QuestData * *,QuestDataSort>
  0008d	83 c4 10	 add	 esp, 16			; 00000010H
$LN1@Median:
  00090	5f		 pop	 edi

; 3706 : 	}

  00091	5d		 pop	 ebp
  00092	c3		 ret	 0
??$_Median@PAPAVQuestData@@VQuestDataSort@@@std@@YAXPAPAVQuestData@@00VQuestDataSort@@@Z ENDP ; std::_Median<QuestData * *,QuestDataSort>
_TEXT	ENDS
PUBLIC	??$_Rotate@PAPAVQuestData@@@std@@YAXPAPAVQuestData@@00Urandom_access_iterator_tag@0@@Z ; std::_Rotate<QuestData * *>
; Function compile flags: /Ogsp
; File c:\program files (x86)\microsoft visual studio 10.0\vc\include\xutility
;	COMDAT ??$_Rotate@PAPAVQuestData@@@std@@YAXPAPAVQuestData@@00Urandom_access_iterator_tag@0@@Z
_TEXT	SEGMENT
__First$ = 8						; size = 4
__Mid$ = 12						; size = 4
__Last$ = 16						; size = 4
___formal$ = 20						; size = 1
??$_Rotate@PAPAVQuestData@@@std@@YAXPAPAVQuestData@@00Urandom_access_iterator_tag@0@@Z PROC ; std::_Rotate<QuestData * *>, COMDAT

; 3288 : 	{	// rotate [_First, _Last), random-access iterators

  00000	55		 push	 ebp
  00001	8b ec		 mov	 ebp, esp

; 3289 : 	_Rotate(_First, _Mid, _Last, _Dist_type(_First), _Val_type(_First));

  00003	6a 00		 push	 0
  00005	6a 00		 push	 0
  00007	ff 75 10	 push	 DWORD PTR __Last$[ebp]
  0000a	ff 75 0c	 push	 DWORD PTR __Mid$[ebp]
  0000d	ff 75 08	 push	 DWORD PTR __First$[ebp]
  00010	e8 00 00 00 00	 call	 ??$_Rotate@PAPAVQuestData@@HPAV1@@std@@YAXPAPAVQuestData@@00PAH0@Z ; std::_Rotate<QuestData * *,int,QuestData *>
  00015	83 c4 14	 add	 esp, 20			; 00000014H

; 3290 : 	}

  00018	5d		 pop	 ebp
  00019	c3		 ret	 0
??$_Rotate@PAPAVQuestData@@@std@@YAXPAPAVQuestData@@00Urandom_access_iterator_tag@0@@Z ENDP ; std::_Rotate<QuestData * *>
_TEXT	ENDS
PUBLIC	??$_Median@PAPAVQuestCompleteData@@VQuestCompleteDataSort@@@std@@YAXPAPAVQuestCompleteData@@00VQuestCompleteDataSort@@@Z ; std::_Median<QuestCompleteData * *,QuestCompleteDataSort>
; Function compile flags: /Ogsp
; File c:\program files (x86)\microsoft visual studio 10.0\vc\include\algorithm
;	COMDAT ??$_Median@PAPAVQuestCompleteData@@VQuestCompleteDataSort@@@std@@YAXPAPAVQuestCompleteData@@00VQuestCompleteDataSort@@@Z
_TEXT	SEGMENT
tv200 = 8						; size = 4
__First$ = 8						; size = 4
__Mid$ = 12						; size = 4
tv203 = 16						; size = 4
__Last$ = 16						; size = 4
__Pred$ = 20						; size = 1
??$_Median@PAPAVQuestCompleteData@@VQuestCompleteDataSort@@@std@@YAXPAPAVQuestCompleteData@@00VQuestCompleteDataSort@@@Z PROC ; std::_Median<QuestCompleteData * *,QuestCompleteDataSort>, COMDAT

; 3695 : 	{	// sort median element to middle

  00000	55		 push	 ebp
  00001	8b ec		 mov	 ebp, esp

; 3696 : 	if (40 < _Last - _First)

  00003	8b 4d 08	 mov	 ecx, DWORD PTR __First$[ebp]
  00006	57		 push	 edi
  00007	8b 7d 10	 mov	 edi, DWORD PTR __Last$[ebp]
  0000a	8b c7		 mov	 eax, edi
  0000c	2b c1		 sub	 eax, ecx
  0000e	c1 f8 02	 sar	 eax, 2
  00011	83 f8 28	 cmp	 eax, 40			; 00000028H
  00014	7e 6a		 jle	 SHORT $LN2@Median@2

; 3697 : 		{	// median of nine
; 3698 : 		size_t _Step = (_Last - _First + 1) / 8;

  00016	40		 inc	 eax
  00017	99		 cdq
  00018	83 e2 07	 and	 edx, 7
  0001b	53		 push	 ebx
  0001c	03 c2		 add	 eax, edx
  0001e	c1 f8 03	 sar	 eax, 3
  00021	56		 push	 esi

; 3699 : 		_Med3(_First, _First + _Step, _First + 2 * _Step, _Pred);

  00022	ff 75 14	 push	 DWORD PTR __Pred$[ebp]
  00025	8b d8		 mov	 ebx, eax
  00027	8b f0		 mov	 esi, eax
  00029	c1 e3 03	 shl	 ebx, 3
  0002c	8d 14 0b	 lea	 edx, DWORD PTR [ebx+ecx]
  0002f	c1 e6 02	 shl	 esi, 2
  00032	8d 04 0e	 lea	 eax, DWORD PTR [esi+ecx]
  00035	52		 push	 edx
  00036	50		 push	 eax
  00037	51		 push	 ecx
  00038	89 45 08	 mov	 DWORD PTR tv200[ebp], eax
  0003b	e8 00 00 00 00	 call	 ??$_Med3@PAPAVQuestCompleteData@@VQuestCompleteDataSort@@@std@@YAXPAPAVQuestCompleteData@@00VQuestCompleteDataSort@@@Z ; std::_Med3<QuestCompleteData * *,QuestCompleteDataSort>

; 3700 : 		_Med3(_Mid - _Step, _Mid, _Mid + _Step, _Pred);

  00040	ff 75 14	 push	 DWORD PTR __Pred$[ebp]
  00043	8b 45 0c	 mov	 eax, DWORD PTR __Mid$[ebp]
  00046	8d 0c 06	 lea	 ecx, DWORD PTR [esi+eax]
  00049	51		 push	 ecx
  0004a	50		 push	 eax
  0004b	2b c6		 sub	 eax, esi
  0004d	50		 push	 eax
  0004e	e8 00 00 00 00	 call	 ??$_Med3@PAPAVQuestCompleteData@@VQuestCompleteDataSort@@@std@@YAXPAPAVQuestCompleteData@@00VQuestCompleteDataSort@@@Z ; std::_Med3<QuestCompleteData * *,QuestCompleteDataSort>

; 3701 : 		_Med3(_Last - 2 * _Step, _Last - _Step, _Last, _Pred);

  00053	ff 75 14	 push	 DWORD PTR __Pred$[ebp]
  00056	89 7d 10	 mov	 DWORD PTR tv203[ebp], edi
  00059	29 75 10	 sub	 DWORD PTR tv203[ebp], esi
  0005c	57		 push	 edi
  0005d	ff 75 10	 push	 DWORD PTR tv203[ebp]
  00060	2b fb		 sub	 edi, ebx
  00062	57		 push	 edi
  00063	e8 00 00 00 00	 call	 ??$_Med3@PAPAVQuestCompleteData@@VQuestCompleteDataSort@@@std@@YAXPAPAVQuestCompleteData@@00VQuestCompleteDataSort@@@Z ; std::_Med3<QuestCompleteData * *,QuestCompleteDataSort>

; 3702 : 		_Med3(_First + _Step, _Mid, _Last - _Step, _Pred);

  00068	ff 75 14	 push	 DWORD PTR __Pred$[ebp]
  0006b	ff 75 10	 push	 DWORD PTR tv203[ebp]
  0006e	ff 75 0c	 push	 DWORD PTR __Mid$[ebp]
  00071	ff 75 08	 push	 DWORD PTR tv200[ebp]
  00074	e8 00 00 00 00	 call	 ??$_Med3@PAPAVQuestCompleteData@@VQuestCompleteDataSort@@@std@@YAXPAPAVQuestCompleteData@@00VQuestCompleteDataSort@@@Z ; std::_Med3<QuestCompleteData * *,QuestCompleteDataSort>
  00079	83 c4 40	 add	 esp, 64			; 00000040H
  0007c	5e		 pop	 esi
  0007d	5b		 pop	 ebx

; 3703 : 		}
; 3704 : 	else

  0007e	eb 10		 jmp	 SHORT $LN1@Median@2
$LN2@Median@2:

; 3705 : 		_Med3(_First, _Mid, _Last, _Pred);

  00080	ff 75 14	 push	 DWORD PTR __Pred$[ebp]
  00083	57		 push	 edi
  00084	ff 75 0c	 push	 DWORD PTR __Mid$[ebp]
  00087	51		 push	 ecx
  00088	e8 00 00 00 00	 call	 ??$_Med3@PAPAVQuestCompleteData@@VQuestCompleteDataSort@@@std@@YAXPAPAVQuestCompleteData@@00VQuestCompleteDataSort@@@Z ; std::_Med3<QuestCompleteData * *,QuestCompleteDataSort>
  0008d	83 c4 10	 add	 esp, 16			; 00000010H
$LN1@Median@2:
  00090	5f		 pop	 edi

; 3706 : 	}

  00091	5d		 pop	 ebp
  00092	c3		 ret	 0
??$_Median@PAPAVQuestCompleteData@@VQuestCompleteDataSort@@@std@@YAXPAPAVQuestCompleteData@@00VQuestCompleteDataSort@@@Z ENDP ; std::_Median<QuestCompleteData * *,QuestCompleteDataSort>
_TEXT	ENDS
PUBLIC	??$_Rotate@PAPAVQuestCompleteData@@@std@@YAXPAPAVQuestCompleteData@@00Urandom_access_iterator_tag@0@@Z ; std::_Rotate<QuestCompleteData * *>
; Function compile flags: /Ogsp
; File c:\program files (x86)\microsoft visual studio 10.0\vc\include\xutility
;	COMDAT ??$_Rotate@PAPAVQuestCompleteData@@@std@@YAXPAPAVQuestCompleteData@@00Urandom_access_iterator_tag@0@@Z
_TEXT	SEGMENT
__First$ = 8						; size = 4
__Mid$ = 12						; size = 4
__Last$ = 16						; size = 4
___formal$ = 20						; size = 1
??$_Rotate@PAPAVQuestCompleteData@@@std@@YAXPAPAVQuestCompleteData@@00Urandom_access_iterator_tag@0@@Z PROC ; std::_Rotate<QuestCompleteData * *>, COMDAT

; 3288 : 	{	// rotate [_First, _Last), random-access iterators

  00000	55		 push	 ebp
  00001	8b ec		 mov	 ebp, esp

; 3289 : 	_Rotate(_First, _Mid, _Last, _Dist_type(_First), _Val_type(_First));

  00003	6a 00		 push	 0
  00005	6a 00		 push	 0
  00007	ff 75 10	 push	 DWORD PTR __Last$[ebp]
  0000a	ff 75 0c	 push	 DWORD PTR __Mid$[ebp]
  0000d	ff 75 08	 push	 DWORD PTR __First$[ebp]
  00010	e8 00 00 00 00	 call	 ??$_Rotate@PAPAVQuestCompleteData@@HPAV1@@std@@YAXPAPAVQuestCompleteData@@00PAH0@Z ; std::_Rotate<QuestCompleteData * *,int,QuestCompleteData *>
  00015	83 c4 14	 add	 esp, 20			; 00000014H

; 3290 : 	}

  00018	5d		 pop	 ebp
  00019	c3		 ret	 0
??$_Rotate@PAPAVQuestCompleteData@@@std@@YAXPAPAVQuestCompleteData@@00Urandom_access_iterator_tag@0@@Z ENDP ; std::_Rotate<QuestCompleteData * *>
_TEXT	ENDS
PUBLIC	??$_Adjust_heap@PAPAVQuestData@@HPAV1@VQuestDataSort@@@std@@YAXPAPAVQuestData@@HH$$QAPAV1@VQuestDataSort@@@Z ; std::_Adjust_heap<QuestData * *,int,QuestData *,QuestDataSort>
; Function compile flags: /Ogsp
; File c:\program files (x86)\microsoft visual studio 10.0\vc\include\algorithm
;	COMDAT ??$_Adjust_heap@PAPAVQuestData@@HPAV1@VQuestDataSort@@@std@@YAXPAPAVQuestData@@HH$$QAPAV1@VQuestDataSort@@@Z
_TEXT	SEGMENT
__First$ = 8						; size = 4
__Top$ = 12						; size = 4
__Hole$ = 12						; size = 4
__Bottom$ = 16						; size = 4
__Val$ = 20						; size = 4
__Pred$ = 24						; size = 1
??$_Adjust_heap@PAPAVQuestData@@HPAV1@VQuestDataSort@@@std@@YAXPAPAVQuestData@@HH$$QAPAV1@VQuestDataSort@@@Z PROC ; std::_Adjust_heap<QuestData * *,int,QuestData *,QuestDataSort>, COMDAT

; 2565 : 	{	// percolate _Hole to _Bottom, then push _Val, using _Pred

  00000	55		 push	 ebp
  00001	8b ec		 mov	 ebp, esp

; 2566 : 	_Diff _Top = _Hole;
; 2567 : 	_Diff _Idx = 2 * _Hole + 2;
; 2568 : 
; 2569 : 	for (; _Idx < _Bottom; _Idx = 2 * _Idx + 2)

  00003	8b 45 10	 mov	 eax, DWORD PTR __Bottom$[ebp]
  00006	53		 push	 ebx
  00007	8b 5d 0c	 mov	 ebx, DWORD PTR __Hole$[ebp]
  0000a	56		 push	 esi
  0000b	8d 74 1b 02	 lea	 esi, DWORD PTR [ebx+ebx+2]
  0000f	57		 push	 edi
  00010	8b 7d 08	 mov	 edi, DWORD PTR __First$[ebp]
  00013	89 5d 0c	 mov	 DWORD PTR __Top$[ebp], ebx
  00016	3b f0		 cmp	 esi, eax
  00018	7d 2a		 jge	 SHORT $LN16@Adjust_hea
$LL5@Adjust_hea:

; 2570 : 		{	// move _Hole down to larger child
; 2571 : 		if (_DEBUG_LT_PRED(_Pred, *(_First + _Idx), *(_First + (_Idx - 1))))

  0001a	ff 74 b7 fc	 push	 DWORD PTR [edi+esi*4-4]
  0001e	8d 4d 18	 lea	 ecx, DWORD PTR __Pred$[ebp]
  00021	ff 34 b7	 push	 DWORD PTR [edi+esi*4]
  00024	e8 00 00 00 00	 call	 ??RQuestDataSort@@QBE_NPBVQuestData@@0@Z ; QuestDataSort::operator()
  00029	84 c0		 test	 al, al
  0002b	74 01		 je	 SHORT $LN2@Adjust_hea

; 2572 : 			--_Idx;

  0002d	4e		 dec	 esi
$LN2@Adjust_hea:

; 2573 : 		*(_First + _Hole) = _Move(*(_First + _Idx));

  0002e	8b 04 b7	 mov	 eax, DWORD PTR [edi+esi*4]
  00031	89 04 9f	 mov	 DWORD PTR [edi+ebx*4], eax

; 2574 : 		_Hole = _Idx;

  00034	8b de		 mov	 ebx, esi
  00036	8d 74 36 02	 lea	 esi, DWORD PTR [esi+esi+2]
  0003a	3b 75 10	 cmp	 esi, DWORD PTR __Bottom$[ebp]
  0003d	7c db		 jl	 SHORT $LL5@Adjust_hea

; 2575 : 		}
; 2576 : 
; 2577 : 	if (_Idx == _Bottom)

  0003f	8b 45 10	 mov	 eax, DWORD PTR __Bottom$[ebp]
  00042	3b f0		 cmp	 esi, eax
$LN16@Adjust_hea:
  00044	75 0a		 jne	 SHORT $LN1@Adjust_hea

; 2578 : 		{	// only child at bottom, move _Hole down to it
; 2579 : 		*(_First + _Hole) = _Move(*(_First + (_Bottom - 1)));

  00046	8b 4c 87 fc	 mov	 ecx, DWORD PTR [edi+eax*4-4]
  0004a	89 0c 9f	 mov	 DWORD PTR [edi+ebx*4], ecx

; 2580 : 		_Hole = _Bottom - 1;

  0004d	8d 58 ff	 lea	 ebx, DWORD PTR [eax-1]
$LN1@Adjust_hea:

; 2581 : 		}
; 2582 : 	_Push_heap(_First, _Hole, _Top, _Move(_Val), _Pred);

  00050	ff 75 18	 push	 DWORD PTR __Pred$[ebp]
  00053	ff 75 14	 push	 DWORD PTR __Val$[ebp]
  00056	ff 75 0c	 push	 DWORD PTR __Top$[ebp]
  00059	53		 push	 ebx
  0005a	57		 push	 edi
  0005b	e8 00 00 00 00	 call	 ??$_Push_heap@PAPAVQuestData@@HPAV1@VQuestDataSort@@@std@@YAXPAPAVQuestData@@HH$$QAPAV1@VQuestDataSort@@@Z ; std::_Push_heap<QuestData * *,int,QuestData *,QuestDataSort>
  00060	83 c4 14	 add	 esp, 20			; 00000014H
  00063	5f		 pop	 edi
  00064	5e		 pop	 esi
  00065	5b		 pop	 ebx

; 2583 : 	}

  00066	5d		 pop	 ebp
  00067	c3		 ret	 0
??$_Adjust_heap@PAPAVQuestData@@HPAV1@VQuestDataSort@@@std@@YAXPAPAVQuestData@@HH$$QAPAV1@VQuestDataSort@@@Z ENDP ; std::_Adjust_heap<QuestData * *,int,QuestData *,QuestDataSort>
_TEXT	ENDS
PUBLIC	??$_Adjust_heap@PAPAVQuestCompleteData@@HPAV1@VQuestCompleteDataSort@@@std@@YAXPAPAVQuestCompleteData@@HH$$QAPAV1@VQuestCompleteDataSort@@@Z ; std::_Adjust_heap<QuestCompleteData * *,int,QuestCompleteData *,QuestCompleteDataSort>
; Function compile flags: /Ogsp
;	COMDAT ??$_Adjust_heap@PAPAVQuestCompleteData@@HPAV1@VQuestCompleteDataSort@@@std@@YAXPAPAVQuestCompleteData@@HH$$QAPAV1@VQuestCompleteDataSort@@@Z
_TEXT	SEGMENT
__First$ = 8						; size = 4
__Top$ = 12						; size = 4
__Hole$ = 12						; size = 4
__Bottom$ = 16						; size = 4
__Val$ = 20						; size = 4
__Pred$ = 24						; size = 1
??$_Adjust_heap@PAPAVQuestCompleteData@@HPAV1@VQuestCompleteDataSort@@@std@@YAXPAPAVQuestCompleteData@@HH$$QAPAV1@VQuestCompleteDataSort@@@Z PROC ; std::_Adjust_heap<QuestCompleteData * *,int,QuestCompleteData *,QuestCompleteDataSort>, COMDAT

; 2565 : 	{	// percolate _Hole to _Bottom, then push _Val, using _Pred

  00000	55		 push	 ebp
  00001	8b ec		 mov	 ebp, esp

; 2566 : 	_Diff _Top = _Hole;
; 2567 : 	_Diff _Idx = 2 * _Hole + 2;
; 2568 : 
; 2569 : 	for (; _Idx < _Bottom; _Idx = 2 * _Idx + 2)

  00003	8b 45 10	 mov	 eax, DWORD PTR __Bottom$[ebp]
  00006	53		 push	 ebx
  00007	8b 5d 0c	 mov	 ebx, DWORD PTR __Hole$[ebp]
  0000a	56		 push	 esi
  0000b	8d 74 1b 02	 lea	 esi, DWORD PTR [ebx+ebx+2]
  0000f	57		 push	 edi
  00010	8b 7d 08	 mov	 edi, DWORD PTR __First$[ebp]
  00013	89 5d 0c	 mov	 DWORD PTR __Top$[ebp], ebx
  00016	3b f0		 cmp	 esi, eax
  00018	7d 2a		 jge	 SHORT $LN16@Adjust_hea@2
$LL5@Adjust_hea@2:

; 2570 : 		{	// move _Hole down to larger child
; 2571 : 		if (_DEBUG_LT_PRED(_Pred, *(_First + _Idx), *(_First + (_Idx - 1))))

  0001a	ff 74 b7 fc	 push	 DWORD PTR [edi+esi*4-4]
  0001e	8d 4d 18	 lea	 ecx, DWORD PTR __Pred$[ebp]
  00021	ff 34 b7	 push	 DWORD PTR [edi+esi*4]
  00024	e8 00 00 00 00	 call	 ??RQuestCompleteDataSort@@QBE_NPBVQuestCompleteData@@0@Z ; QuestCompleteDataSort::operator()
  00029	84 c0		 test	 al, al
  0002b	74 01		 je	 SHORT $LN2@Adjust_hea@2

; 2572 : 			--_Idx;

  0002d	4e		 dec	 esi
$LN2@Adjust_hea@2:

; 2573 : 		*(_First + _Hole) = _Move(*(_First + _Idx));

  0002e	8b 04 b7	 mov	 eax, DWORD PTR [edi+esi*4]
  00031	89 04 9f	 mov	 DWORD PTR [edi+ebx*4], eax

; 2574 : 		_Hole = _Idx;

  00034	8b de		 mov	 ebx, esi
  00036	8d 74 36 02	 lea	 esi, DWORD PTR [esi+esi+2]
  0003a	3b 75 10	 cmp	 esi, DWORD PTR __Bottom$[ebp]
  0003d	7c db		 jl	 SHORT $LL5@Adjust_hea@2

; 2575 : 		}
; 2576 : 
; 2577 : 	if (_Idx == _Bottom)

  0003f	8b 45 10	 mov	 eax, DWORD PTR __Bottom$[ebp]
  00042	3b f0		 cmp	 esi, eax
$LN16@Adjust_hea@2:
  00044	75 0a		 jne	 SHORT $LN1@Adjust_hea@2

; 2578 : 		{	// only child at bottom, move _Hole down to it
; 2579 : 		*(_First + _Hole) = _Move(*(_First + (_Bottom - 1)));

  00046	8b 4c 87 fc	 mov	 ecx, DWORD PTR [edi+eax*4-4]
  0004a	89 0c 9f	 mov	 DWORD PTR [edi+ebx*4], ecx

; 2580 : 		_Hole = _Bottom - 1;

  0004d	8d 58 ff	 lea	 ebx, DWORD PTR [eax-1]
$LN1@Adjust_hea@2:

; 2581 : 		}
; 2582 : 	_Push_heap(_First, _Hole, _Top, _Move(_Val), _Pred);

  00050	ff 75 18	 push	 DWORD PTR __Pred$[ebp]
  00053	ff 75 14	 push	 DWORD PTR __Val$[ebp]
  00056	ff 75 0c	 push	 DWORD PTR __Top$[ebp]
  00059	53		 push	 ebx
  0005a	57		 push	 edi
  0005b	e8 00 00 00 00	 call	 ??$_Push_heap@PAPAVQuestCompleteData@@HPAV1@VQuestCompleteDataSort@@@std@@YAXPAPAVQuestCompleteData@@HH$$QAPAV1@VQuestCompleteDataSort@@@Z ; std::_Push_heap<QuestCompleteData * *,int,QuestCompleteData *,QuestCompleteDataSort>
  00060	83 c4 14	 add	 esp, 20			; 00000014H
  00063	5f		 pop	 edi
  00064	5e		 pop	 esi
  00065	5b		 pop	 ebx

; 2583 : 	}

  00066	5d		 pop	 ebp
  00067	c3		 ret	 0
??$_Adjust_heap@PAPAVQuestCompleteData@@HPAV1@VQuestCompleteDataSort@@@std@@YAXPAPAVQuestCompleteData@@HH$$QAPAV1@VQuestCompleteDataSort@@@Z ENDP ; std::_Adjust_heap<QuestCompleteData * *,int,QuestCompleteData *,QuestCompleteDataSort>
_TEXT	ENDS
PUBLIC	??$_Pop_heap@PAPAVQuestData@@HPAV1@VQuestDataSort@@@std@@YAXPAPAVQuestData@@00$$QAPAV1@VQuestDataSort@@PAH@Z ; std::_Pop_heap<QuestData * *,int,QuestData *,QuestDataSort>
; Function compile flags: /Ogsp
;	COMDAT ??$_Pop_heap@PAPAVQuestData@@HPAV1@VQuestDataSort@@@std@@YAXPAPAVQuestData@@00$$QAPAV1@VQuestDataSort@@PAH@Z
_TEXT	SEGMENT
__First$ = 8						; size = 4
__Last$ = 12						; size = 4
__Dest$ = 16						; size = 4
__Val$ = 20						; size = 4
__Pred$ = 24						; size = 1
___formal$ = 28						; size = 4
??$_Pop_heap@PAPAVQuestData@@HPAV1@VQuestDataSort@@@std@@YAXPAPAVQuestData@@00$$QAPAV1@VQuestDataSort@@PAH@Z PROC ; std::_Pop_heap<QuestData * *,int,QuestData *,QuestDataSort>, COMDAT

; 2591 : 	{	// pop *_First to *_Dest and reheap, using _Pred

  00000	55		 push	 ebp
  00001	8b ec		 mov	 ebp, esp

; 2592 : 	*_Dest = _Move(*_First);

  00003	8b 45 08	 mov	 eax, DWORD PTR __First$[ebp]
  00006	8b 08		 mov	 ecx, DWORD PTR [eax]
  00008	8b 55 10	 mov	 edx, DWORD PTR __Dest$[ebp]

; 2593 : 	_Adjust_heap(_First, _Diff(0), _Diff(_Last - _First),
; 2594 : 		_Move(_Val), _Pred);

  0000b	ff 75 18	 push	 DWORD PTR __Pred$[ebp]
  0000e	89 0a		 mov	 DWORD PTR [edx], ecx
  00010	8b 4d 0c	 mov	 ecx, DWORD PTR __Last$[ebp]
  00013	ff 75 14	 push	 DWORD PTR __Val$[ebp]
  00016	2b c8		 sub	 ecx, eax
  00018	c1 f9 02	 sar	 ecx, 2
  0001b	51		 push	 ecx
  0001c	6a 00		 push	 0
  0001e	50		 push	 eax
  0001f	e8 00 00 00 00	 call	 ??$_Adjust_heap@PAPAVQuestData@@HPAV1@VQuestDataSort@@@std@@YAXPAPAVQuestData@@HH$$QAPAV1@VQuestDataSort@@@Z ; std::_Adjust_heap<QuestData * *,int,QuestData *,QuestDataSort>
  00024	83 c4 14	 add	 esp, 20			; 00000014H

; 2595 : 	}

  00027	5d		 pop	 ebp
  00028	c3		 ret	 0
??$_Pop_heap@PAPAVQuestData@@HPAV1@VQuestDataSort@@@std@@YAXPAPAVQuestData@@00$$QAPAV1@VQuestDataSort@@PAH@Z ENDP ; std::_Pop_heap<QuestData * *,int,QuestData *,QuestDataSort>
_TEXT	ENDS
PUBLIC	??$_Pop_heap@PAPAVQuestCompleteData@@HPAV1@VQuestCompleteDataSort@@@std@@YAXPAPAVQuestCompleteData@@00$$QAPAV1@VQuestCompleteDataSort@@PAH@Z ; std::_Pop_heap<QuestCompleteData * *,int,QuestCompleteData *,QuestCompleteDataSort>
; Function compile flags: /Ogsp
;	COMDAT ??$_Pop_heap@PAPAVQuestCompleteData@@HPAV1@VQuestCompleteDataSort@@@std@@YAXPAPAVQuestCompleteData@@00$$QAPAV1@VQuestCompleteDataSort@@PAH@Z
_TEXT	SEGMENT
__First$ = 8						; size = 4
__Last$ = 12						; size = 4
__Dest$ = 16						; size = 4
__Val$ = 20						; size = 4
__Pred$ = 24						; size = 1
___formal$ = 28						; size = 4
??$_Pop_heap@PAPAVQuestCompleteData@@HPAV1@VQuestCompleteDataSort@@@std@@YAXPAPAVQuestCompleteData@@00$$QAPAV1@VQuestCompleteDataSort@@PAH@Z PROC ; std::_Pop_heap<QuestCompleteData * *,int,QuestCompleteData *,QuestCompleteDataSort>, COMDAT

; 2591 : 	{	// pop *_First to *_Dest and reheap, using _Pred

  00000	55		 push	 ebp
  00001	8b ec		 mov	 ebp, esp

; 2592 : 	*_Dest = _Move(*_First);

  00003	8b 45 08	 mov	 eax, DWORD PTR __First$[ebp]
  00006	8b 08		 mov	 ecx, DWORD PTR [eax]
  00008	8b 55 10	 mov	 edx, DWORD PTR __Dest$[ebp]

; 2593 : 	_Adjust_heap(_First, _Diff(0), _Diff(_Last - _First),
; 2594 : 		_Move(_Val), _Pred);

  0000b	ff 75 18	 push	 DWORD PTR __Pred$[ebp]
  0000e	89 0a		 mov	 DWORD PTR [edx], ecx
  00010	8b 4d 0c	 mov	 ecx, DWORD PTR __Last$[ebp]
  00013	ff 75 14	 push	 DWORD PTR __Val$[ebp]
  00016	2b c8		 sub	 ecx, eax
  00018	c1 f9 02	 sar	 ecx, 2
  0001b	51		 push	 ecx
  0001c	6a 00		 push	 0
  0001e	50		 push	 eax
  0001f	e8 00 00 00 00	 call	 ??$_Adjust_heap@PAPAVQuestCompleteData@@HPAV1@VQuestCompleteDataSort@@@std@@YAXPAPAVQuestCompleteData@@HH$$QAPAV1@VQuestCompleteDataSort@@@Z ; std::_Adjust_heap<QuestCompleteData * *,int,QuestCompleteData *,QuestCompleteDataSort>
  00024	83 c4 14	 add	 esp, 20			; 00000014H

; 2595 : 	}

  00027	5d		 pop	 ebp
  00028	c3		 ret	 0
??$_Pop_heap@PAPAVQuestCompleteData@@HPAV1@VQuestCompleteDataSort@@@std@@YAXPAPAVQuestCompleteData@@00$$QAPAV1@VQuestCompleteDataSort@@PAH@Z ENDP ; std::_Pop_heap<QuestCompleteData * *,int,QuestCompleteData *,QuestCompleteDataSort>
_TEXT	ENDS
PUBLIC	??_7ioQuest@@6B@				; ioQuest::`vftable'
PUBLIC	??0ioQuest@@QAE@XZ				; ioQuest::ioQuest
PUBLIC	??_R4ioQuest@@6B@				; ioQuest::`RTTI Complete Object Locator'
PUBLIC	??_R0?AVioQuest@@@8				; ioQuest `RTTI Type Descriptor'
PUBLIC	??_R3ioQuest@@8					; ioQuest::`RTTI Class Hierarchy Descriptor'
PUBLIC	??_R2ioQuest@@8					; ioQuest::`RTTI Base Class Array'
PUBLIC	??_R1A@?0A@EA@ioQuest@@8			; ioQuest::`RTTI Base Class Descriptor at (0,-1,0,64)'
EXTRN	??_EioQuest@@UAEPAXI@Z:PROC			; ioQuest::`vector deleting destructor'
;	COMDAT ??_R1A@?0A@EA@ioQuest@@8
; File c:\program files (x86)\microsoft visual studio 10.0\vc\include\xmemory
rdata$r	SEGMENT
??_R1A@?0A@EA@ioQuest@@8 DD FLAT:??_R0?AVioQuest@@@8	; ioQuest::`RTTI Base Class Descriptor at (0,-1,0,64)'
	DD	00H
	DD	00H
	DD	0ffffffffH
	DD	00H
	DD	040H
	DD	FLAT:??_R3ioQuest@@8
rdata$r	ENDS
;	COMDAT ??_R2ioQuest@@8
rdata$r	SEGMENT
??_R2ioQuest@@8 DD FLAT:??_R1A@?0A@EA@ioQuest@@8	; ioQuest::`RTTI Base Class Array'
rdata$r	ENDS
;	COMDAT ??_R3ioQuest@@8
rdata$r	SEGMENT
??_R3ioQuest@@8 DD 00H					; ioQuest::`RTTI Class Hierarchy Descriptor'
	DD	00H
	DD	01H
	DD	FLAT:??_R2ioQuest@@8
rdata$r	ENDS
;	COMDAT ??_R0?AVioQuest@@@8
_DATA	SEGMENT
??_R0?AVioQuest@@@8 DD FLAT:??_7type_info@@6B@		; ioQuest `RTTI Type Descriptor'
	DD	00H
	DB	'.?AVioQuest@@', 00H
_DATA	ENDS
;	COMDAT ??_R4ioQuest@@6B@
rdata$r	SEGMENT
??_R4ioQuest@@6B@ DD 00H				; ioQuest::`RTTI Complete Object Locator'
	DD	00H
	DD	00H
	DD	FLAT:??_R0?AVioQuest@@@8
	DD	FLAT:??_R3ioQuest@@8
rdata$r	ENDS
;	COMDAT ??_7ioQuest@@6B@
CONST	SEGMENT
??_7ioQuest@@6B@ DD FLAT:??_R4ioQuest@@6B@		; ioQuest::`vftable'
	DD	FLAT:??_EioQuest@@UAEPAXI@Z
; Function compile flags: /Ogsp
; File d:\lost saga for developer\youtube\tutorial\source\src\lsclient\ioquest.cpp
CONST	ENDS
;	COMDAT ??0ioQuest@@QAE@XZ
_TEXT	SEGMENT
??0ioQuest@@QAE@XZ PROC					; ioQuest::ioQuest, COMDAT
; _this$ = ecx

; 188  : {

  00000	8b c1		 mov	 eax, ecx
  00002	33 c9		 xor	 ecx, ecx
  00004	c7 00 00 00 00
	00		 mov	 DWORD PTR [eax], OFFSET ??_7ioQuest@@6B@
  0000a	89 48 04	 mov	 DWORD PTR [eax+4], ecx
  0000d	89 48 08	 mov	 DWORD PTR [eax+8], ecx
  00010	89 48 0c	 mov	 DWORD PTR [eax+12], ecx
  00013	89 48 14	 mov	 DWORD PTR [eax+20], ecx
  00016	89 48 18	 mov	 DWORD PTR [eax+24], ecx
  00019	89 48 1c	 mov	 DWORD PTR [eax+28], ecx

; 189  : }

  0001c	c3		 ret	 0
??0ioQuest@@QAE@XZ ENDP					; ioQuest::ioQuest
_TEXT	ENDS
PUBLIC	?GetProcessToArray@ioQuest@@QAE?AVQuestData@@H@Z ; ioQuest::GetProcessToArray
;	COMDAT ?kNoneItem@?M@??GetProcessToArray@ioQuest@@QAE?AVQuestData@@H@Z@4V3@A
_BSS	SEGMENT
?kNoneItem@?M@??GetProcessToArray@ioQuest@@QAE?AVQuestData@@H@Z@4V3@A DB 048H DUP (?) ; `ioQuest::GetProcessToArray'::`12'::kNoneItem
_BSS	ENDS
;	COMDAT ?$S2@?M@??GetProcessToArray@ioQuest@@QAE?AVQuestData@@H@Z@4IA
_BSS	SEGMENT
?$S2@?M@??GetProcessToArray@ioQuest@@QAE?AVQuestData@@H@Z@4IA DD 01H DUP (?) ; `ioQuest::GetProcessToArray'::`12'::$S2
_BSS	ENDS
;	COMDAT xdata$x
xdata$x	SEGMENT
__unwindtable$?GetProcessToArray@ioQuest@@QAE?AVQuestData@@H@Z DD 0ffffffffH
	DD	FLAT:__unwindfunclet$?GetProcessToArray@ioQuest@@QAE?AVQuestData@@H@Z$1
__ehfuncinfo$?GetProcessToArray@ioQuest@@QAE?AVQuestData@@H@Z DD 019930522H
	DD	01H
	DD	FLAT:__unwindtable$?GetProcessToArray@ioQuest@@QAE?AVQuestData@@H@Z
	DD	2 DUP(00H)
	DD	2 DUP(00H)
	DD	00H
	DD	01H
; Function compile flags: /Ogsp
xdata$x	ENDS
;	COMDAT ?GetProcessToArray@ioQuest@@QAE?AVQuestData@@H@Z
_TEXT	SEGMENT
$T513151 = -16						; size = 4
__$EHRec$ = -12						; size = 12
___$ReturnUdt$ = 8					; size = 4
_iArray$ = 12						; size = 4
?GetProcessToArray@ioQuest@@QAE?AVQuestData@@H@Z PROC	; ioQuest::GetProcessToArray, COMDAT
; _this$ = ecx

; 665  : {

  00000	6a 04		 push	 4
  00002	b8 00 00 00 00	 mov	 eax, __ehhandler$?GetProcessToArray@ioQuest@@QAE?AVQuestData@@H@Z
  00007	e8 00 00 00 00	 call	 __EH_prolog3

; 666  : 	vQuestInfo::iterator iter;
; 667  : 	for(iter = m_vItemList.begin();iter != m_vItemList.end();iter++)

  0000c	8b 71 04	 mov	 esi, DWORD PTR [ecx+4]
  0000f	83 65 f0 00	 and	 DWORD PTR $T513151[ebp], 0
  00013	8b 49 08	 mov	 ecx, DWORD PTR [ecx+8]
  00016	eb 1c		 jmp	 SHORT $LN57@GetProcess
$LN29@GetProcess:

; 668  : 	{
; 669  : 		QuestData *pItemDB = *iter;

  00018	8b 3e		 mov	 edi, DWORD PTR [esi]

; 670  : 		if( !pItemDB ) continue;

  0001a	85 ff		 test	 edi, edi
  0001c	74 13		 je	 SHORT $LN6@GetProcess

; 671  : 		if( pItemDB->GetState() == QS_PROGRESS )

  0001e	8b 47 40	 mov	 eax, DWORD PTR [edi+64]
  00021	6a 0a		 push	 10			; 0000000aH
  00023	33 d2		 xor	 edx, edx
  00025	5b		 pop	 ebx
  00026	f7 f3		 div	 ebx
  00028	85 d2		 test	 edx, edx
  0002a	75 05		 jne	 SHORT $LN6@GetProcess

; 672  : 		{
; 673  : 			if( --iArray < 0 )

  0002c	ff 4d 0c	 dec	 DWORD PTR _iArray$[ebp]
  0002f	78 4a		 js	 SHORT $LN52@GetProcess
$LN6@GetProcess:

; 666  : 	vQuestInfo::iterator iter;
; 667  : 	for(iter = m_vItemList.begin();iter != m_vItemList.end();iter++)

  00031	83 c6 04	 add	 esi, 4
$LN57@GetProcess:
  00034	3b f1		 cmp	 esi, ecx
  00036	75 e0		 jne	 SHORT $LN29@GetProcess

; 676  : 			}
; 677  : 		}
; 678  : 	}
; 679  : 
; 680  : 	static QuestData kNoneItem;

  00038	f6 05 00 00 00
	00 01		 test	 BYTE PTR ?$S2@?M@??GetProcessToArray@ioQuest@@QAE?AVQuestData@@H@Z@4IA, 1
  0003f	be 00 00 00 00	 mov	 esi, OFFSET ?kNoneItem@?M@??GetProcessToArray@ioQuest@@QAE?AVQuestData@@H@Z@4V3@A
  00044	75 21		 jne	 SHORT $LN1@GetProcess
  00046	83 0d 00 00 00
	00 01		 or	 DWORD PTR ?$S2@?M@??GetProcessToArray@ioQuest@@QAE?AVQuestData@@H@Z@4IA, 1
  0004d	83 65 fc 00	 and	 DWORD PTR __$EHRec$[ebp+8], 0
  00051	8b ce		 mov	 ecx, esi
  00053	e8 00 00 00 00	 call	 ??0QuestData@@QAE@XZ	; QuestData::QuestData
  00058	68 00 00 00 00	 push	 OFFSET ??__FkNoneItem@?M@??GetProcessToArray@ioQuest@@QAE?AVQuestData@@H@Z@YAXXZ ; `ioQuest::GetProcessToArray'::`12'::`dynamic atexit destructor for 'kNoneItem''
  0005d	e8 00 00 00 00	 call	 _atexit
  00062	83 4d fc ff	 or	 DWORD PTR __$EHRec$[ebp+8], -1
  00066	59		 pop	 ecx
$LN1@GetProcess:

; 681  : 	return kNoneItem;

  00067	56		 push	 esi
$LN58@GetProcess:
  00068	8b 4d 08	 mov	 ecx, DWORD PTR ___$ReturnUdt$[ebp]
  0006b	e8 00 00 00 00	 call	 ??0QuestData@@QAE@ABV0@@Z
  00070	8b 45 08	 mov	 eax, DWORD PTR ___$ReturnUdt$[ebp]

; 682  : }

  00073	e8 00 00 00 00	 call	 __EH_epilog3
  00078	c2 08 00	 ret	 8
$LN52@GetProcess:

; 674  : 			{
; 675  : 				return *pItemDB;

  0007b	57		 push	 edi
  0007c	eb ea		 jmp	 SHORT $LN58@GetProcess
_TEXT	ENDS
;	COMDAT text$x
text$x	SEGMENT
__unwindfunclet$?GetProcessToArray@ioQuest@@QAE?AVQuestData@@H@Z$1:
  00000	a1 00 00 00 00	 mov	 eax, DWORD PTR ?$S2@?M@??GetProcessToArray@ioQuest@@QAE?AVQuestData@@H@Z@4IA
  00005	83 e0 fe	 and	 eax, -2			; fffffffeH
  00008	a3 00 00 00 00	 mov	 DWORD PTR ?$S2@?M@??GetProcessToArray@ioQuest@@QAE?AVQuestData@@H@Z@4IA, eax
  0000d	c3		 ret	 0
__ehhandler$?GetProcessToArray@ioQuest@@QAE?AVQuestData@@H@Z:
  0000e	8b 54 24 08	 mov	 edx, DWORD PTR [esp+8]
  00012	8d 42 0c	 lea	 eax, DWORD PTR [edx+12]
  00015	8b 4a ec	 mov	 ecx, DWORD PTR [edx-20]
  00018	33 c8		 xor	 ecx, eax
  0001a	e8 00 00 00 00	 call	 @__security_check_cookie@4
  0001f	b8 00 00 00 00	 mov	 eax, OFFSET __ehfuncinfo$?GetProcessToArray@ioQuest@@QAE?AVQuestData@@H@Z
  00024	e9 00 00 00 00	 jmp	 ___CxxFrameHandler3
text$x	ENDS
?GetProcessToArray@ioQuest@@QAE?AVQuestData@@H@Z ENDP	; ioQuest::GetProcessToArray
PUBLIC	?clear@?$vector@PAVQuestData@@V?$allocator@PAVQuestData@@@std@@@std@@QAEXXZ ; std::vector<QuestData *,std::allocator<QuestData *> >::clear
; Function compile flags: /Ogsp
; File c:\program files (x86)\microsoft visual studio 10.0\vc\include\vector
;	COMDAT ?clear@?$vector@PAVQuestData@@V?$allocator@PAVQuestData@@@std@@@std@@QAEXXZ
_TEXT	SEGMENT
$T513273 = -4						; size = 4
?clear@?$vector@PAVQuestData@@V?$allocator@PAVQuestData@@@std@@@std@@QAEXXZ PROC ; std::vector<QuestData *,std::allocator<QuestData *> >::clear, COMDAT
; _this$ = ecx

; 1217 : 		{	// erase all

  00000	55		 push	 ebp
  00001	8b ec		 mov	 ebp, esp
  00003	51		 push	 ecx

; 1218 : 		erase(begin(), end());

  00004	8b 41 04	 mov	 eax, DWORD PTR [ecx+4]
  00007	8b 11		 mov	 edx, DWORD PTR [ecx]
  00009	50		 push	 eax
  0000a	52		 push	 edx
  0000b	8d 45 fc	 lea	 eax, DWORD PTR $T513273[ebp]
  0000e	50		 push	 eax
  0000f	e8 00 00 00 00	 call	 ?erase@?$vector@PAVQuestData@@V?$allocator@PAVQuestData@@@std@@@std@@QAE?AV?$_Vector_iterator@V?$_Vector_val@PAVQuestData@@V?$allocator@PAVQuestData@@@std@@@std@@@2@V?$_Vector_const_iterator@V?$_Vector_val@PAVQuestData@@V?$allocator@PAVQuestData@@@std@@@std@@@2@0@Z ; std::vector<QuestData *,std::allocator<QuestData *> >::erase

; 1219 : 		}

  00014	c9		 leave
  00015	c3		 ret	 0
?clear@?$vector@PAVQuestData@@V?$allocator@PAVQuestData@@@std@@@std@@QAEXXZ ENDP ; std::vector<QuestData *,std::allocator<QuestData *> >::clear
_TEXT	ENDS
PUBLIC	?clear@?$vector@PAVQuestCompleteData@@V?$allocator@PAVQuestCompleteData@@@std@@@std@@QAEXXZ ; std::vector<QuestCompleteData *,std::allocator<QuestCompleteData *> >::clear
; Function compile flags: /Ogsp
;	COMDAT ?clear@?$vector@PAVQuestCompleteData@@V?$allocator@PAVQuestCompleteData@@@std@@@std@@QAEXXZ
_TEXT	SEGMENT
$T513330 = -4						; size = 4
?clear@?$vector@PAVQuestCompleteData@@V?$allocator@PAVQuestCompleteData@@@std@@@std@@QAEXXZ PROC ; std::vector<QuestCompleteData *,std::allocator<QuestCompleteData *> >::clear, COMDAT
; _this$ = ecx

; 1217 : 		{	// erase all

  00000	55		 push	 ebp
  00001	8b ec		 mov	 ebp, esp
  00003	51		 push	 ecx

; 1218 : 		erase(begin(), end());

  00004	8b 41 04	 mov	 eax, DWORD PTR [ecx+4]
  00007	8b 11		 mov	 edx, DWORD PTR [ecx]
  00009	50		 push	 eax
  0000a	52		 push	 edx
  0000b	8d 45 fc	 lea	 eax, DWORD PTR $T513330[ebp]
  0000e	50		 push	 eax
  0000f	e8 00 00 00 00	 call	 ?erase@?$vector@PAVQuestCompleteData@@V?$allocator@PAVQuestCompleteData@@@std@@@std@@QAE?AV?$_Vector_iterator@V?$_Vector_val@PAVQuestCompleteData@@V?$allocator@PAVQuestCompleteData@@@std@@@std@@@2@V?$_Vector_const_iterator@V?$_Vector_val@PAVQuestCompleteData@@V?$allocator@PAVQuestCompleteData@@@std@@@std@@@2@0@Z ; std::vector<QuestCompleteData *,std::allocator<QuestCompleteData *> >::erase

; 1219 : 		}

  00014	c9		 leave
  00015	c3		 ret	 0
?clear@?$vector@PAVQuestCompleteData@@V?$allocator@PAVQuestCompleteData@@@std@@@std@@QAEXXZ ENDP ; std::vector<QuestCompleteData *,std::allocator<QuestCompleteData *> >::clear
_TEXT	ENDS
PUBLIC	??$_Unguarded_partition@PAPAVQuestData@@VQuestDataSort@@@std@@YA?AU?$pair@PAPAVQuestData@@PAPAV1@@0@PAPAVQuestData@@0VQuestDataSort@@@Z ; std::_Unguarded_partition<QuestData * *,QuestDataSort>
; Function compile flags: /Ogsp
; File c:\program files (x86)\microsoft visual studio 10.0\vc\include\algorithm
;	COMDAT ??$_Unguarded_partition@PAPAVQuestData@@VQuestDataSort@@@std@@YA?AU?$pair@PAPAVQuestData@@PAPAV1@@0@PAPAVQuestData@@0VQuestDataSort@@@Z
_TEXT	SEGMENT
tv291 = -8						; size = 4
tv266 = -8						; size = 4
__Tmp$513535 = -8					; size = 4
__Glast$ = -4						; size = 4
___$ReturnUdt$ = 8					; size = 4
__First$ = 12						; size = 4
__Last$ = 16						; size = 4
__Pred$ = 20						; size = 1
??$_Unguarded_partition@PAPAVQuestData@@VQuestDataSort@@@std@@YA?AU?$pair@PAPAVQuestData@@PAPAV1@@0@PAPAVQuestData@@0VQuestDataSort@@@Z PROC ; std::_Unguarded_partition<QuestData * *,QuestDataSort>, COMDAT

; 3712 : 	{	// partition [_First, _Last), using _Pred

  00000	55		 push	 ebp
  00001	8b ec		 mov	 ebp, esp
  00003	51		 push	 ecx
  00004	51		 push	 ecx

; 3713 : 	_RanIt _Mid = _First + (_Last - _First) / 2;

  00005	8b 4d 10	 mov	 ecx, DWORD PTR __Last$[ebp]
  00008	53		 push	 ebx
  00009	56		 push	 esi
  0000a	57		 push	 edi
  0000b	8b 7d 0c	 mov	 edi, DWORD PTR __First$[ebp]

; 3714 : 	_Median(_First, _Mid, _Last - 1, _Pred);

  0000e	ff 75 14	 push	 DWORD PTR __Pred$[ebp]
  00011	8b c1		 mov	 eax, ecx
  00013	2b c7		 sub	 eax, edi
  00015	c1 f8 02	 sar	 eax, 2
  00018	99		 cdq
  00019	2b c2		 sub	 eax, edx
  0001b	d1 f8		 sar	 eax, 1
  0001d	83 c1 fc	 add	 ecx, -4			; fffffffcH
  00020	51		 push	 ecx
  00021	8d 34 87	 lea	 esi, DWORD PTR [edi+eax*4]
  00024	56		 push	 esi
  00025	57		 push	 edi
  00026	e8 00 00 00 00	 call	 ??$_Median@PAPAVQuestData@@VQuestDataSort@@@std@@YAXPAPAVQuestData@@00VQuestDataSort@@@Z ; std::_Median<QuestData * *,QuestDataSort>
  0002b	83 c4 10	 add	 esp, 16			; 00000010H

; 3715 : 	_RanIt _Pfirst = _Mid;
; 3716 : 	_RanIt _Plast = _Pfirst + 1;

  0002e	8d 5e 04	 lea	 ebx, DWORD PTR [esi+4]
  00031	eb 2c		 jmp	 SHORT $LN130@Unguarded_
$LL27@Unguarded_:

; 3717 : 
; 3718 : 	while (_First < _Pfirst
; 3719 : 		&& !_DEBUG_LT_PRED(_Pred, *(_Pfirst - 1), *_Pfirst)
; 3720 : 		&& !_Pred(*_Pfirst, *(_Pfirst - 1)))

  00033	ff 36		 push	 DWORD PTR [esi]
  00035	8d 46 fc	 lea	 eax, DWORD PTR [esi-4]
  00038	ff 30		 push	 DWORD PTR [eax]
  0003a	8d 4d 14	 lea	 ecx, DWORD PTR __Pred$[ebp]
  0003d	89 45 f8	 mov	 DWORD PTR tv266[ebp], eax
  00040	e8 00 00 00 00	 call	 ??RQuestDataSort@@QBE_NPBVQuestData@@0@Z ; QuestDataSort::operator()
  00045	84 c0		 test	 al, al
  00047	75 3f		 jne	 SHORT $LN131@Unguarded_
  00049	8b 45 f8	 mov	 eax, DWORD PTR tv266[ebp]
  0004c	ff 30		 push	 DWORD PTR [eax]
  0004e	8d 4d 14	 lea	 ecx, DWORD PTR __Pred$[ebp]
  00051	ff 36		 push	 DWORD PTR [esi]
  00053	e8 00 00 00 00	 call	 ??RQuestDataSort@@QBE_NPBVQuestData@@0@Z ; QuestDataSort::operator()
  00058	84 c0		 test	 al, al
  0005a	75 2c		 jne	 SHORT $LN131@Unguarded_

; 3721 : 		--_Pfirst;

  0005c	8b 75 f8	 mov	 esi, DWORD PTR tv266[ebp]
$LN130@Unguarded_:

; 3717 : 
; 3718 : 	while (_First < _Pfirst
; 3719 : 		&& !_DEBUG_LT_PRED(_Pred, *(_Pfirst - 1), *_Pfirst)
; 3720 : 		&& !_Pred(*_Pfirst, *(_Pfirst - 1)))

  0005f	3b fe		 cmp	 edi, esi
  00061	72 d0		 jb	 SHORT $LL27@Unguarded_

; 3725 : 		++_Plast;

  00063	eb 23		 jmp	 SHORT $LN131@Unguarded_
$LL25@Unguarded_:

; 3722 : 	while (_Plast < _Last
; 3723 : 		&& !_DEBUG_LT_PRED(_Pred, *_Plast, *_Pfirst)
; 3724 : 		&& !_Pred(*_Pfirst, *_Plast))

  00065	ff 36		 push	 DWORD PTR [esi]
  00067	8d 4d 14	 lea	 ecx, DWORD PTR __Pred$[ebp]
  0006a	ff 33		 push	 DWORD PTR [ebx]
  0006c	e8 00 00 00 00	 call	 ??RQuestDataSort@@QBE_NPBVQuestData@@0@Z ; QuestDataSort::operator()
  00071	84 c0		 test	 al, al
  00073	75 18		 jne	 SHORT $LN24@Unguarded_
  00075	ff 33		 push	 DWORD PTR [ebx]
  00077	8d 4d 14	 lea	 ecx, DWORD PTR __Pred$[ebp]
  0007a	ff 36		 push	 DWORD PTR [esi]
  0007c	e8 00 00 00 00	 call	 ??RQuestDataSort@@QBE_NPBVQuestData@@0@Z ; QuestDataSort::operator()
  00081	84 c0		 test	 al, al
  00083	75 08		 jne	 SHORT $LN24@Unguarded_

; 3725 : 		++_Plast;

  00085	83 c3 04	 add	 ebx, 4
$LN131@Unguarded_:

; 3722 : 	while (_Plast < _Last
; 3723 : 		&& !_DEBUG_LT_PRED(_Pred, *_Plast, *_Pfirst)
; 3724 : 		&& !_Pred(*_Pfirst, *_Plast))

  00088	3b 5d 10	 cmp	 ebx, DWORD PTR __Last$[ebp]
  0008b	72 d8		 jb	 SHORT $LL25@Unguarded_
$LN24@Unguarded_:

; 3726 : 
; 3727 : 	_RanIt _Gfirst = _Plast;

  0008d	8b fb		 mov	 edi, ebx

; 3728 : 	_RanIt _Glast = _Pfirst;

  0008f	89 75 fc	 mov	 DWORD PTR __Glast$[ebp], esi

; 3729 : 
; 3730 : 	for (; ; )
; 3731 : 		{	// partition
; 3732 : 		for (; _Gfirst < _Last; ++_Gfirst)

  00092	eb 30		 jmp	 SHORT $LN132@Unguarded_
$LL21@Unguarded_:

; 3733 : 			if (_DEBUG_LT_PRED(_Pred, *_Pfirst, *_Gfirst))

  00094	ff 37		 push	 DWORD PTR [edi]
  00096	8d 4d 14	 lea	 ecx, DWORD PTR __Pred$[ebp]
  00099	ff 36		 push	 DWORD PTR [esi]
  0009b	e8 00 00 00 00	 call	 ??RQuestDataSort@@QBE_NPBVQuestData@@0@Z ; QuestDataSort::operator()
  000a0	84 c0		 test	 al, al
  000a2	75 1d		 jne	 SHORT $LN20@Unguarded_

; 3734 : 				;
; 3735 : 			else if (_Pred(*_Gfirst, *_Pfirst))

  000a4	ff 36		 push	 DWORD PTR [esi]
  000a6	8d 4d 14	 lea	 ecx, DWORD PTR __Pred$[ebp]
  000a9	ff 37		 push	 DWORD PTR [edi]
  000ab	e8 00 00 00 00	 call	 ??RQuestDataSort@@QBE_NPBVQuestData@@0@Z ; QuestDataSort::operator()
  000b0	84 c0		 test	 al, al
  000b2	75 15		 jne	 SHORT $LN126@Unguarded_

; 3736 : 				break;
; 3737 : 			else
; 3738 : 				_STD iter_swap(_Plast++, _Gfirst);

  000b4	8b 17		 mov	 edx, DWORD PTR [edi]
  000b6	8b c3		 mov	 eax, ebx
  000b8	8b 08		 mov	 ecx, DWORD PTR [eax]
  000ba	89 10		 mov	 DWORD PTR [eax], edx
  000bc	89 0f		 mov	 DWORD PTR [edi], ecx
$LN133@Unguarded_:
  000be	83 c3 04	 add	 ebx, 4
$LN20@Unguarded_:

; 3729 : 
; 3730 : 	for (; ; )
; 3731 : 		{	// partition
; 3732 : 		for (; _Gfirst < _Last; ++_Gfirst)

  000c1	83 c7 04	 add	 edi, 4
$LN132@Unguarded_:
  000c4	3b 7d 10	 cmp	 edi, DWORD PTR __Last$[ebp]
  000c7	72 cb		 jb	 SHORT $LL21@Unguarded_
$LN126@Unguarded_:

; 3739 : 		for (; _First < _Glast; --_Glast)

  000c9	8b 45 0c	 mov	 eax, DWORD PTR __First$[ebp]
  000cc	3b 45 fc	 cmp	 eax, DWORD PTR __Glast$[ebp]
  000cf	73 47		 jae	 SHORT $LN129@Unguarded_
$LL127@Unguarded_:
  000d1	8b 45 fc	 mov	 eax, DWORD PTR __Glast$[ebp]

; 3740 : 			if (_DEBUG_LT_PRED(_Pred, *(_Glast - 1), *_Pfirst))

  000d4	ff 36		 push	 DWORD PTR [esi]
  000d6	83 c0 fc	 add	 eax, -4			; fffffffcH
  000d9	ff 30		 push	 DWORD PTR [eax]
  000db	8d 4d 14	 lea	 ecx, DWORD PTR __Pred$[ebp]
  000de	89 45 f8	 mov	 DWORD PTR tv291[ebp], eax
  000e1	e8 00 00 00 00	 call	 ??RQuestDataSort@@QBE_NPBVQuestData@@0@Z ; QuestDataSort::operator()
  000e6	84 c0		 test	 al, al
  000e8	75 23		 jne	 SHORT $LN128@Unguarded_

; 3741 : 				;
; 3742 : 			else if (_Pred(*_Pfirst, *(_Glast - 1)))

  000ea	8b 45 f8	 mov	 eax, DWORD PTR tv291[ebp]
  000ed	ff 30		 push	 DWORD PTR [eax]
  000ef	8d 4d 14	 lea	 ecx, DWORD PTR __Pred$[ebp]
  000f2	ff 36		 push	 DWORD PTR [esi]
  000f4	e8 00 00 00 00	 call	 ??RQuestDataSort@@QBE_NPBVQuestData@@0@Z ; QuestDataSort::operator()
  000f9	84 c0		 test	 al, al
  000fb	75 1b		 jne	 SHORT $LN129@Unguarded_

; 3743 : 				break;
; 3744 : 			else
; 3745 : 				_STD iter_swap(--_Pfirst, _Glast - 1);

  000fd	8b 4d f8	 mov	 ecx, DWORD PTR tv291[ebp]
  00100	8b 11		 mov	 edx, DWORD PTR [ecx]
  00102	83 ee 04	 sub	 esi, 4
  00105	8b 06		 mov	 eax, DWORD PTR [esi]
  00107	89 16		 mov	 DWORD PTR [esi], edx
  00109	89 01		 mov	 DWORD PTR [ecx], eax
  0010b	eb 03		 jmp	 SHORT $LN13@Unguarded_
$LN128@Unguarded_:
  0010d	8b 4d f8	 mov	 ecx, DWORD PTR tv291[ebp]
$LN13@Unguarded_:

; 3739 : 		for (; _First < _Glast; --_Glast)

  00110	89 4d fc	 mov	 DWORD PTR __Glast$[ebp], ecx
  00113	39 4d 0c	 cmp	 DWORD PTR __First$[ebp], ecx
  00116	72 b9		 jb	 SHORT $LL127@Unguarded_
$LN129@Unguarded_:

; 3746 : 		if (_Glast == _First && _Gfirst == _Last)

  00118	8b 4d fc	 mov	 ecx, DWORD PTR __Glast$[ebp]
  0011b	3b 4d 0c	 cmp	 ecx, DWORD PTR __First$[ebp]
  0011e	75 2b		 jne	 SHORT $LN6@Unguarded_
  00120	3b 7d 10	 cmp	 edi, DWORD PTR __Last$[ebp]
  00123	74 5d		 je	 SHORT $LN120@Unguarded_

; 3748 : 
; 3749 : 		if (_Glast == _First)
; 3750 : 			{	// no room at bottom, rotate pivot upward
; 3751 : 			if (_Plast != _Gfirst)

  00125	3b df		 cmp	 ebx, edi
  00127	74 08		 je	 SHORT $LN64@Unguarded_

; 3752 : 				_STD iter_swap(_Pfirst, _Plast);

  00129	8b 0b		 mov	 ecx, DWORD PTR [ebx]
  0012b	8b 06		 mov	 eax, DWORD PTR [esi]
  0012d	89 0e		 mov	 DWORD PTR [esi], ecx
  0012f	89 03		 mov	 DWORD PTR [ebx], eax
$LN64@Unguarded_:

; 3753 : 			++_Plast;
; 3754 : 			_STD iter_swap(_Pfirst++, _Gfirst++);

  00131	8b ce		 mov	 ecx, esi
  00133	8b 11		 mov	 edx, DWORD PTR [ecx]
  00135	8b c7		 mov	 eax, edi
  00137	89 55 f8	 mov	 DWORD PTR __Tmp$513535[ebp], edx
  0013a	8b 10		 mov	 edx, DWORD PTR [eax]
  0013c	89 11		 mov	 DWORD PTR [ecx], edx
  0013e	8b 4d f8	 mov	 ecx, DWORD PTR __Tmp$513535[ebp]
  00141	83 c6 04	 add	 esi, 4
  00144	89 08		 mov	 DWORD PTR [eax], ecx
  00146	e9 73 ff ff ff	 jmp	 $LN133@Unguarded_
$LN6@Unguarded_:

; 3755 : 			}
; 3756 : 		else if (_Gfirst == _Last)
; 3757 : 			{	// no room at top, rotate pivot downward
; 3758 : 			if (--_Glast != --_Pfirst)

  0014b	83 e9 04	 sub	 ecx, 4
  0014e	89 4d fc	 mov	 DWORD PTR __Glast$[ebp], ecx
  00151	3b 7d 10	 cmp	 edi, DWORD PTR __Last$[ebp]
  00154	75 1f		 jne	 SHORT $LN3@Unguarded_
  00156	83 ee 04	 sub	 esi, 4
  00159	3b ce		 cmp	 ecx, esi
  0015b	74 08		 je	 SHORT $LN84@Unguarded_

; 3759 : 				_STD iter_swap(_Glast, _Pfirst);

  0015d	8b 16		 mov	 edx, DWORD PTR [esi]
  0015f	8b 01		 mov	 eax, DWORD PTR [ecx]
  00161	89 11		 mov	 DWORD PTR [ecx], edx
  00163	89 06		 mov	 DWORD PTR [esi], eax
$LN84@Unguarded_:

; 3760 : 			_STD iter_swap(_Pfirst, --_Plast);

  00165	8b 06		 mov	 eax, DWORD PTR [esi]
  00167	83 eb 04	 sub	 ebx, 4
  0016a	8b 0b		 mov	 ecx, DWORD PTR [ebx]
  0016c	89 0e		 mov	 DWORD PTR [esi], ecx
  0016e	89 03		 mov	 DWORD PTR [ebx], eax

; 3761 : 			}
; 3762 : 		else

  00170	e9 4f ff ff ff	 jmp	 $LN132@Unguarded_
$LN3@Unguarded_:

; 3763 : 			_STD iter_swap(_Gfirst++, --_Glast);

  00175	8b 11		 mov	 edx, DWORD PTR [ecx]
  00177	8b 07		 mov	 eax, DWORD PTR [edi]
  00179	89 17		 mov	 DWORD PTR [edi], edx
  0017b	89 01		 mov	 DWORD PTR [ecx], eax

; 3764 : 		}

  0017d	e9 3f ff ff ff	 jmp	 $LN20@Unguarded_
$LN120@Unguarded_:

; 3747 : 			return (_STD pair<_RanIt, _RanIt>(_Pfirst, _Plast));

  00182	8b 45 08	 mov	 eax, DWORD PTR ___$ReturnUdt$[ebp]
  00185	5f		 pop	 edi
  00186	89 30		 mov	 DWORD PTR [eax], esi
  00188	5e		 pop	 esi
  00189	89 58 04	 mov	 DWORD PTR [eax+4], ebx
  0018c	5b		 pop	 ebx

; 3765 : 	}

  0018d	c9		 leave
  0018e	c3		 ret	 0
??$_Unguarded_partition@PAPAVQuestData@@VQuestDataSort@@@std@@YA?AU?$pair@PAPAVQuestData@@PAPAV1@@0@PAPAVQuestData@@0VQuestDataSort@@@Z ENDP ; std::_Unguarded_partition<QuestData * *,QuestDataSort>
_TEXT	ENDS
PUBLIC	??$rotate@V?$_Vector_iterator@V?$_Vector_val@PAVQuestData@@V?$allocator@PAVQuestData@@@std@@@std@@@std@@@std@@YA?AV?$_Vector_iterator@V?$_Vector_val@PAVQuestData@@V?$allocator@PAVQuestData@@@std@@@std@@@0@V10@00@Z ; std::rotate<std::_Vector_iterator<std::_Vector_val<QuestData *,std::allocator<QuestData *> > > >
; Function compile flags: /Ogsp
; File c:\program files (x86)\microsoft visual studio 10.0\vc\include\xutility
;	COMDAT ??$rotate@V?$_Vector_iterator@V?$_Vector_val@PAVQuestData@@V?$allocator@PAVQuestData@@@std@@@std@@@std@@@std@@YA?AV?$_Vector_iterator@V?$_Vector_val@PAVQuestData@@V?$allocator@PAVQuestData@@@std@@@std@@@0@V10@00@Z
_TEXT	SEGMENT
___$ReturnUdt$ = 8					; size = 4
__First$ = 12						; size = 4
__Mid$ = 16						; size = 4
__Last$ = 20						; size = 4
??$rotate@V?$_Vector_iterator@V?$_Vector_val@PAVQuestData@@V?$allocator@PAVQuestData@@@std@@@std@@@std@@@std@@YA?AV?$_Vector_iterator@V?$_Vector_val@PAVQuestData@@V?$allocator@PAVQuestData@@@std@@@std@@@0@V10@00@Z PROC ; std::rotate<std::_Vector_iterator<std::_Vector_val<QuestData *,std::allocator<QuestData *> > > >, COMDAT

; 3294 : 	{	// rotate [_First, _Last)

  00000	55		 push	 ebp
  00001	8b ec		 mov	 ebp, esp

; 3295 : 	_DEBUG_RANGE(_First, _Mid);
; 3296 : 	_DEBUG_RANGE(_Mid, _Last);
; 3297 : 	if (_First != _Mid && _Mid != _Last)

  00003	8b 4d 0c	 mov	 ecx, DWORD PTR __First$[ebp]
  00006	8b 45 10	 mov	 eax, DWORD PTR __Mid$[ebp]
  00009	3b c8		 cmp	 ecx, eax
  0000b	74 25		 je	 SHORT $LN56@rotate
  0000d	3b 45 14	 cmp	 eax, DWORD PTR __Last$[ebp]
  00010	74 20		 je	 SHORT $LN56@rotate

; 3298 : 		{	// rotate and compute new first iterator
; 3299 : 		_Rotate(_Unchecked(_First), _Unchecked(_Mid), _Unchecked(_Last),
; 3300 : 			_Iter_cat(_First));

  00012	6a 00		 push	 0
  00014	6a 00		 push	 0
  00016	ff 75 14	 push	 DWORD PTR __Last$[ebp]
  00019	50		 push	 eax
  0001a	51		 push	 ecx
  0001b	e8 00 00 00 00	 call	 ??$_Rotate@PAPAVQuestData@@HPAV1@@std@@YAXPAPAVQuestData@@00PAH0@Z ; std::_Rotate<QuestData * *,int,QuestData *>

; 3301 : 		_STD advance(_First, _STD distance(_Mid, _Last));

  00020	8b 45 14	 mov	 eax, DWORD PTR __Last$[ebp]
  00023	2b 45 10	 sub	 eax, DWORD PTR __Mid$[ebp]
  00026	8b 4d 0c	 mov	 ecx, DWORD PTR __First$[ebp]
  00029	83 c4 14	 add	 esp, 20			; 00000014H
  0002c	c1 f8 02	 sar	 eax, 2
  0002f	8d 0c 81	 lea	 ecx, DWORD PTR [ecx+eax*4]
$LN56@rotate:

; 3302 : 		}
; 3303 : 	return (_First);

  00032	8b 45 08	 mov	 eax, DWORD PTR ___$ReturnUdt$[ebp]
  00035	89 08		 mov	 DWORD PTR [eax], ecx

; 3304 : 	}

  00037	5d		 pop	 ebp
  00038	c3		 ret	 0
??$rotate@V?$_Vector_iterator@V?$_Vector_val@PAVQuestData@@V?$allocator@PAVQuestData@@@std@@@std@@@std@@@std@@YA?AV?$_Vector_iterator@V?$_Vector_val@PAVQuestData@@V?$allocator@PAVQuestData@@@std@@@std@@@0@V10@00@Z ENDP ; std::rotate<std::_Vector_iterator<std::_Vector_val<QuestData *,std::allocator<QuestData *> > > >
_TEXT	ENDS
PUBLIC	??$_Unguarded_partition@PAPAVQuestCompleteData@@VQuestCompleteDataSort@@@std@@YA?AU?$pair@PAPAVQuestCompleteData@@PAPAV1@@0@PAPAVQuestCompleteData@@0VQuestCompleteDataSort@@@Z ; std::_Unguarded_partition<QuestCompleteData * *,QuestCompleteDataSort>
; Function compile flags: /Ogsp
; File c:\program files (x86)\microsoft visual studio 10.0\vc\include\algorithm
;	COMDAT ??$_Unguarded_partition@PAPAVQuestCompleteData@@VQuestCompleteDataSort@@@std@@YA?AU?$pair@PAPAVQuestCompleteData@@PAPAV1@@0@PAPAVQuestCompleteData@@0VQuestCompleteDataSort@@@Z
_TEXT	SEGMENT
tv291 = -8						; size = 4
tv266 = -8						; size = 4
__Tmp$513982 = -8					; size = 4
__Glast$ = -4						; size = 4
___$ReturnUdt$ = 8					; size = 4
__First$ = 12						; size = 4
__Last$ = 16						; size = 4
__Pred$ = 20						; size = 1
??$_Unguarded_partition@PAPAVQuestCompleteData@@VQuestCompleteDataSort@@@std@@YA?AU?$pair@PAPAVQuestCompleteData@@PAPAV1@@0@PAPAVQuestCompleteData@@0VQuestCompleteDataSort@@@Z PROC ; std::_Unguarded_partition<QuestCompleteData * *,QuestCompleteDataSort>, COMDAT

; 3712 : 	{	// partition [_First, _Last), using _Pred

  00000	55		 push	 ebp
  00001	8b ec		 mov	 ebp, esp
  00003	51		 push	 ecx
  00004	51		 push	 ecx

; 3713 : 	_RanIt _Mid = _First + (_Last - _First) / 2;

  00005	8b 4d 10	 mov	 ecx, DWORD PTR __Last$[ebp]
  00008	53		 push	 ebx
  00009	56		 push	 esi
  0000a	57		 push	 edi
  0000b	8b 7d 0c	 mov	 edi, DWORD PTR __First$[ebp]

; 3714 : 	_Median(_First, _Mid, _Last - 1, _Pred);

  0000e	ff 75 14	 push	 DWORD PTR __Pred$[ebp]
  00011	8b c1		 mov	 eax, ecx
  00013	2b c7		 sub	 eax, edi
  00015	c1 f8 02	 sar	 eax, 2
  00018	99		 cdq
  00019	2b c2		 sub	 eax, edx
  0001b	d1 f8		 sar	 eax, 1
  0001d	83 c1 fc	 add	 ecx, -4			; fffffffcH
  00020	51		 push	 ecx
  00021	8d 34 87	 lea	 esi, DWORD PTR [edi+eax*4]
  00024	56		 push	 esi
  00025	57		 push	 edi
  00026	e8 00 00 00 00	 call	 ??$_Median@PAPAVQuestCompleteData@@VQuestCompleteDataSort@@@std@@YAXPAPAVQuestCompleteData@@00VQuestCompleteDataSort@@@Z ; std::_Median<QuestCompleteData * *,QuestCompleteDataSort>
  0002b	83 c4 10	 add	 esp, 16			; 00000010H

; 3715 : 	_RanIt _Pfirst = _Mid;
; 3716 : 	_RanIt _Plast = _Pfirst + 1;

  0002e	8d 5e 04	 lea	 ebx, DWORD PTR [esi+4]
  00031	eb 2c		 jmp	 SHORT $LN130@Unguarded_@2
$LL27@Unguarded_@2:

; 3717 : 
; 3718 : 	while (_First < _Pfirst
; 3719 : 		&& !_DEBUG_LT_PRED(_Pred, *(_Pfirst - 1), *_Pfirst)
; 3720 : 		&& !_Pred(*_Pfirst, *(_Pfirst - 1)))

  00033	ff 36		 push	 DWORD PTR [esi]
  00035	8d 46 fc	 lea	 eax, DWORD PTR [esi-4]
  00038	ff 30		 push	 DWORD PTR [eax]
  0003a	8d 4d 14	 lea	 ecx, DWORD PTR __Pred$[ebp]
  0003d	89 45 f8	 mov	 DWORD PTR tv266[ebp], eax
  00040	e8 00 00 00 00	 call	 ??RQuestCompleteDataSort@@QBE_NPBVQuestCompleteData@@0@Z ; QuestCompleteDataSort::operator()
  00045	84 c0		 test	 al, al
  00047	75 3f		 jne	 SHORT $LN131@Unguarded_@2
  00049	8b 45 f8	 mov	 eax, DWORD PTR tv266[ebp]
  0004c	ff 30		 push	 DWORD PTR [eax]
  0004e	8d 4d 14	 lea	 ecx, DWORD PTR __Pred$[ebp]
  00051	ff 36		 push	 DWORD PTR [esi]
  00053	e8 00 00 00 00	 call	 ??RQuestCompleteDataSort@@QBE_NPBVQuestCompleteData@@0@Z ; QuestCompleteDataSort::operator()
  00058	84 c0		 test	 al, al
  0005a	75 2c		 jne	 SHORT $LN131@Unguarded_@2

; 3721 : 		--_Pfirst;

  0005c	8b 75 f8	 mov	 esi, DWORD PTR tv266[ebp]
$LN130@Unguarded_@2:

; 3717 : 
; 3718 : 	while (_First < _Pfirst
; 3719 : 		&& !_DEBUG_LT_PRED(_Pred, *(_Pfirst - 1), *_Pfirst)
; 3720 : 		&& !_Pred(*_Pfirst, *(_Pfirst - 1)))

  0005f	3b fe		 cmp	 edi, esi
  00061	72 d0		 jb	 SHORT $LL27@Unguarded_@2

; 3725 : 		++_Plast;

  00063	eb 23		 jmp	 SHORT $LN131@Unguarded_@2
$LL25@Unguarded_@2:

; 3722 : 	while (_Plast < _Last
; 3723 : 		&& !_DEBUG_LT_PRED(_Pred, *_Plast, *_Pfirst)
; 3724 : 		&& !_Pred(*_Pfirst, *_Plast))

  00065	ff 36		 push	 DWORD PTR [esi]
  00067	8d 4d 14	 lea	 ecx, DWORD PTR __Pred$[ebp]
  0006a	ff 33		 push	 DWORD PTR [ebx]
  0006c	e8 00 00 00 00	 call	 ??RQuestCompleteDataSort@@QBE_NPBVQuestCompleteData@@0@Z ; QuestCompleteDataSort::operator()
  00071	84 c0		 test	 al, al
  00073	75 18		 jne	 SHORT $LN24@Unguarded_@2
  00075	ff 33		 push	 DWORD PTR [ebx]
  00077	8d 4d 14	 lea	 ecx, DWORD PTR __Pred$[ebp]
  0007a	ff 36		 push	 DWORD PTR [esi]
  0007c	e8 00 00 00 00	 call	 ??RQuestCompleteDataSort@@QBE_NPBVQuestCompleteData@@0@Z ; QuestCompleteDataSort::operator()
  00081	84 c0		 test	 al, al
  00083	75 08		 jne	 SHORT $LN24@Unguarded_@2

; 3725 : 		++_Plast;

  00085	83 c3 04	 add	 ebx, 4
$LN131@Unguarded_@2:

; 3722 : 	while (_Plast < _Last
; 3723 : 		&& !_DEBUG_LT_PRED(_Pred, *_Plast, *_Pfirst)
; 3724 : 		&& !_Pred(*_Pfirst, *_Plast))

  00088	3b 5d 10	 cmp	 ebx, DWORD PTR __Last$[ebp]
  0008b	72 d8		 jb	 SHORT $LL25@Unguarded_@2
$LN24@Unguarded_@2:

; 3726 : 
; 3727 : 	_RanIt _Gfirst = _Plast;

  0008d	8b fb		 mov	 edi, ebx

; 3728 : 	_RanIt _Glast = _Pfirst;

  0008f	89 75 fc	 mov	 DWORD PTR __Glast$[ebp], esi

; 3729 : 
; 3730 : 	for (; ; )
; 3731 : 		{	// partition
; 3732 : 		for (; _Gfirst < _Last; ++_Gfirst)

  00092	eb 30		 jmp	 SHORT $LN132@Unguarded_@2
$LL21@Unguarded_@2:

; 3733 : 			if (_DEBUG_LT_PRED(_Pred, *_Pfirst, *_Gfirst))

  00094	ff 37		 push	 DWORD PTR [edi]
  00096	8d 4d 14	 lea	 ecx, DWORD PTR __Pred$[ebp]
  00099	ff 36		 push	 DWORD PTR [esi]
  0009b	e8 00 00 00 00	 call	 ??RQuestCompleteDataSort@@QBE_NPBVQuestCompleteData@@0@Z ; QuestCompleteDataSort::operator()
  000a0	84 c0		 test	 al, al
  000a2	75 1d		 jne	 SHORT $LN20@Unguarded_@2

; 3734 : 				;
; 3735 : 			else if (_Pred(*_Gfirst, *_Pfirst))

  000a4	ff 36		 push	 DWORD PTR [esi]
  000a6	8d 4d 14	 lea	 ecx, DWORD PTR __Pred$[ebp]
  000a9	ff 37		 push	 DWORD PTR [edi]
  000ab	e8 00 00 00 00	 call	 ??RQuestCompleteDataSort@@QBE_NPBVQuestCompleteData@@0@Z ; QuestCompleteDataSort::operator()
  000b0	84 c0		 test	 al, al
  000b2	75 15		 jne	 SHORT $LN126@Unguarded_@2

; 3736 : 				break;
; 3737 : 			else
; 3738 : 				_STD iter_swap(_Plast++, _Gfirst);

  000b4	8b 17		 mov	 edx, DWORD PTR [edi]
  000b6	8b c3		 mov	 eax, ebx
  000b8	8b 08		 mov	 ecx, DWORD PTR [eax]
  000ba	89 10		 mov	 DWORD PTR [eax], edx
  000bc	89 0f		 mov	 DWORD PTR [edi], ecx
$LN133@Unguarded_@2:
  000be	83 c3 04	 add	 ebx, 4
$LN20@Unguarded_@2:

; 3729 : 
; 3730 : 	for (; ; )
; 3731 : 		{	// partition
; 3732 : 		for (; _Gfirst < _Last; ++_Gfirst)

  000c1	83 c7 04	 add	 edi, 4
$LN132@Unguarded_@2:
  000c4	3b 7d 10	 cmp	 edi, DWORD PTR __Last$[ebp]
  000c7	72 cb		 jb	 SHORT $LL21@Unguarded_@2
$LN126@Unguarded_@2:

; 3739 : 		for (; _First < _Glast; --_Glast)

  000c9	8b 45 0c	 mov	 eax, DWORD PTR __First$[ebp]
  000cc	3b 45 fc	 cmp	 eax, DWORD PTR __Glast$[ebp]
  000cf	73 47		 jae	 SHORT $LN129@Unguarded_@2
$LL127@Unguarded_@2:
  000d1	8b 45 fc	 mov	 eax, DWORD PTR __Glast$[ebp]

; 3740 : 			if (_DEBUG_LT_PRED(_Pred, *(_Glast - 1), *_Pfirst))

  000d4	ff 36		 push	 DWORD PTR [esi]
  000d6	83 c0 fc	 add	 eax, -4			; fffffffcH
  000d9	ff 30		 push	 DWORD PTR [eax]
  000db	8d 4d 14	 lea	 ecx, DWORD PTR __Pred$[ebp]
  000de	89 45 f8	 mov	 DWORD PTR tv291[ebp], eax
  000e1	e8 00 00 00 00	 call	 ??RQuestCompleteDataSort@@QBE_NPBVQuestCompleteData@@0@Z ; QuestCompleteDataSort::operator()
  000e6	84 c0		 test	 al, al
  000e8	75 23		 jne	 SHORT $LN128@Unguarded_@2

; 3741 : 				;
; 3742 : 			else if (_Pred(*_Pfirst, *(_Glast - 1)))

  000ea	8b 45 f8	 mov	 eax, DWORD PTR tv291[ebp]
  000ed	ff 30		 push	 DWORD PTR [eax]
  000ef	8d 4d 14	 lea	 ecx, DWORD PTR __Pred$[ebp]
  000f2	ff 36		 push	 DWORD PTR [esi]
  000f4	e8 00 00 00 00	 call	 ??RQuestCompleteDataSort@@QBE_NPBVQuestCompleteData@@0@Z ; QuestCompleteDataSort::operator()
  000f9	84 c0		 test	 al, al
  000fb	75 1b		 jne	 SHORT $LN129@Unguarded_@2

; 3743 : 				break;
; 3744 : 			else
; 3745 : 				_STD iter_swap(--_Pfirst, _Glast - 1);

  000fd	8b 4d f8	 mov	 ecx, DWORD PTR tv291[ebp]
  00100	8b 11		 mov	 edx, DWORD PTR [ecx]
  00102	83 ee 04	 sub	 esi, 4
  00105	8b 06		 mov	 eax, DWORD PTR [esi]
  00107	89 16		 mov	 DWORD PTR [esi], edx
  00109	89 01		 mov	 DWORD PTR [ecx], eax
  0010b	eb 03		 jmp	 SHORT $LN13@Unguarded_@2
$LN128@Unguarded_@2:
  0010d	8b 4d f8	 mov	 ecx, DWORD PTR tv291[ebp]
$LN13@Unguarded_@2:

; 3739 : 		for (; _First < _Glast; --_Glast)

  00110	89 4d fc	 mov	 DWORD PTR __Glast$[ebp], ecx
  00113	39 4d 0c	 cmp	 DWORD PTR __First$[ebp], ecx
  00116	72 b9		 jb	 SHORT $LL127@Unguarded_@2
$LN129@Unguarded_@2:

; 3746 : 		if (_Glast == _First && _Gfirst == _Last)

  00118	8b 4d fc	 mov	 ecx, DWORD PTR __Glast$[ebp]
  0011b	3b 4d 0c	 cmp	 ecx, DWORD PTR __First$[ebp]
  0011e	75 2b		 jne	 SHORT $LN6@Unguarded_@2
  00120	3b 7d 10	 cmp	 edi, DWORD PTR __Last$[ebp]
  00123	74 5d		 je	 SHORT $LN120@Unguarded_@2

; 3748 : 
; 3749 : 		if (_Glast == _First)
; 3750 : 			{	// no room at bottom, rotate pivot upward
; 3751 : 			if (_Plast != _Gfirst)

  00125	3b df		 cmp	 ebx, edi
  00127	74 08		 je	 SHORT $LN64@Unguarded_@2

; 3752 : 				_STD iter_swap(_Pfirst, _Plast);

  00129	8b 0b		 mov	 ecx, DWORD PTR [ebx]
  0012b	8b 06		 mov	 eax, DWORD PTR [esi]
  0012d	89 0e		 mov	 DWORD PTR [esi], ecx
  0012f	89 03		 mov	 DWORD PTR [ebx], eax
$LN64@Unguarded_@2:

; 3753 : 			++_Plast;
; 3754 : 			_STD iter_swap(_Pfirst++, _Gfirst++);

  00131	8b ce		 mov	 ecx, esi
  00133	8b 11		 mov	 edx, DWORD PTR [ecx]
  00135	8b c7		 mov	 eax, edi
  00137	89 55 f8	 mov	 DWORD PTR __Tmp$513982[ebp], edx
  0013a	8b 10		 mov	 edx, DWORD PTR [eax]
  0013c	89 11		 mov	 DWORD PTR [ecx], edx
  0013e	8b 4d f8	 mov	 ecx, DWORD PTR __Tmp$513982[ebp]
  00141	83 c6 04	 add	 esi, 4
  00144	89 08		 mov	 DWORD PTR [eax], ecx
  00146	e9 73 ff ff ff	 jmp	 $LN133@Unguarded_@2
$LN6@Unguarded_@2:

; 3755 : 			}
; 3756 : 		else if (_Gfirst == _Last)
; 3757 : 			{	// no room at top, rotate pivot downward
; 3758 : 			if (--_Glast != --_Pfirst)

  0014b	83 e9 04	 sub	 ecx, 4
  0014e	89 4d fc	 mov	 DWORD PTR __Glast$[ebp], ecx
  00151	3b 7d 10	 cmp	 edi, DWORD PTR __Last$[ebp]
  00154	75 1f		 jne	 SHORT $LN3@Unguarded_@2
  00156	83 ee 04	 sub	 esi, 4
  00159	3b ce		 cmp	 ecx, esi
  0015b	74 08		 je	 SHORT $LN84@Unguarded_@2

; 3759 : 				_STD iter_swap(_Glast, _Pfirst);

  0015d	8b 16		 mov	 edx, DWORD PTR [esi]
  0015f	8b 01		 mov	 eax, DWORD PTR [ecx]
  00161	89 11		 mov	 DWORD PTR [ecx], edx
  00163	89 06		 mov	 DWORD PTR [esi], eax
$LN84@Unguarded_@2:

; 3760 : 			_STD iter_swap(_Pfirst, --_Plast);

  00165	8b 06		 mov	 eax, DWORD PTR [esi]
  00167	83 eb 04	 sub	 ebx, 4
  0016a	8b 0b		 mov	 ecx, DWORD PTR [ebx]
  0016c	89 0e		 mov	 DWORD PTR [esi], ecx
  0016e	89 03		 mov	 DWORD PTR [ebx], eax

; 3761 : 			}
; 3762 : 		else

  00170	e9 4f ff ff ff	 jmp	 $LN132@Unguarded_@2
$LN3@Unguarded_@2:

; 3763 : 			_STD iter_swap(_Gfirst++, --_Glast);

  00175	8b 11		 mov	 edx, DWORD PTR [ecx]
  00177	8b 07		 mov	 eax, DWORD PTR [edi]
  00179	89 17		 mov	 DWORD PTR [edi], edx
  0017b	89 01		 mov	 DWORD PTR [ecx], eax

; 3764 : 		}

  0017d	e9 3f ff ff ff	 jmp	 $LN20@Unguarded_@2
$LN120@Unguarded_@2:

; 3747 : 			return (_STD pair<_RanIt, _RanIt>(_Pfirst, _Plast));

  00182	8b 45 08	 mov	 eax, DWORD PTR ___$ReturnUdt$[ebp]
  00185	5f		 pop	 edi
  00186	89 30		 mov	 DWORD PTR [eax], esi
  00188	5e		 pop	 esi
  00189	89 58 04	 mov	 DWORD PTR [eax+4], ebx
  0018c	5b		 pop	 ebx

; 3765 : 	}

  0018d	c9		 leave
  0018e	c3		 ret	 0
??$_Unguarded_partition@PAPAVQuestCompleteData@@VQuestCompleteDataSort@@@std@@YA?AU?$pair@PAPAVQuestCompleteData@@PAPAV1@@0@PAPAVQuestCompleteData@@0VQuestCompleteDataSort@@@Z ENDP ; std::_Unguarded_partition<QuestCompleteData * *,QuestCompleteDataSort>
_TEXT	ENDS
PUBLIC	??$rotate@V?$_Vector_iterator@V?$_Vector_val@PAVQuestCompleteData@@V?$allocator@PAVQuestCompleteData@@@std@@@std@@@std@@@std@@YA?AV?$_Vector_iterator@V?$_Vector_val@PAVQuestCompleteData@@V?$allocator@PAVQuestCompleteData@@@std@@@std@@@0@V10@00@Z ; std::rotate<std::_Vector_iterator<std::_Vector_val<QuestCompleteData *,std::allocator<QuestCompleteData *> > > >
; Function compile flags: /Ogsp
; File c:\program files (x86)\microsoft visual studio 10.0\vc\include\xutility
;	COMDAT ??$rotate@V?$_Vector_iterator@V?$_Vector_val@PAVQuestCompleteData@@V?$allocator@PAVQuestCompleteData@@@std@@@std@@@std@@@std@@YA?AV?$_Vector_iterator@V?$_Vector_val@PAVQuestCompleteData@@V?$allocator@PAVQuestCompleteData@@@std@@@std@@@0@V10@00@Z
_TEXT	SEGMENT
___$ReturnUdt$ = 8					; size = 4
__First$ = 12						; size = 4
__Mid$ = 16						; size = 4
__Last$ = 20						; size = 4
??$rotate@V?$_Vector_iterator@V?$_Vector_val@PAVQuestCompleteData@@V?$allocator@PAVQuestCompleteData@@@std@@@std@@@std@@@std@@YA?AV?$_Vector_iterator@V?$_Vector_val@PAVQuestCompleteData@@V?$allocator@PAVQuestCompleteData@@@std@@@std@@@0@V10@00@Z PROC ; std::rotate<std::_Vector_iterator<std::_Vector_val<QuestCompleteData *,std::allocator<QuestCompleteData *> > > >, COMDAT

; 3294 : 	{	// rotate [_First, _Last)

  00000	55		 push	 ebp
  00001	8b ec		 mov	 ebp, esp

; 3295 : 	_DEBUG_RANGE(_First, _Mid);
; 3296 : 	_DEBUG_RANGE(_Mid, _Last);
; 3297 : 	if (_First != _Mid && _Mid != _Last)

  00003	8b 4d 0c	 mov	 ecx, DWORD PTR __First$[ebp]
  00006	8b 45 10	 mov	 eax, DWORD PTR __Mid$[ebp]
  00009	3b c8		 cmp	 ecx, eax
  0000b	74 25		 je	 SHORT $LN56@rotate@2
  0000d	3b 45 14	 cmp	 eax, DWORD PTR __Last$[ebp]
  00010	74 20		 je	 SHORT $LN56@rotate@2

; 3298 : 		{	// rotate and compute new first iterator
; 3299 : 		_Rotate(_Unchecked(_First), _Unchecked(_Mid), _Unchecked(_Last),
; 3300 : 			_Iter_cat(_First));

  00012	6a 00		 push	 0
  00014	6a 00		 push	 0
  00016	ff 75 14	 push	 DWORD PTR __Last$[ebp]
  00019	50		 push	 eax
  0001a	51		 push	 ecx
  0001b	e8 00 00 00 00	 call	 ??$_Rotate@PAPAVQuestCompleteData@@HPAV1@@std@@YAXPAPAVQuestCompleteData@@00PAH0@Z ; std::_Rotate<QuestCompleteData * *,int,QuestCompleteData *>

; 3301 : 		_STD advance(_First, _STD distance(_Mid, _Last));

  00020	8b 45 14	 mov	 eax, DWORD PTR __Last$[ebp]
  00023	2b 45 10	 sub	 eax, DWORD PTR __Mid$[ebp]
  00026	8b 4d 0c	 mov	 ecx, DWORD PTR __First$[ebp]
  00029	83 c4 14	 add	 esp, 20			; 00000014H
  0002c	c1 f8 02	 sar	 eax, 2
  0002f	8d 0c 81	 lea	 ecx, DWORD PTR [ecx+eax*4]
$LN56@rotate@2:

; 3302 : 		}
; 3303 : 	return (_First);

  00032	8b 45 08	 mov	 eax, DWORD PTR ___$ReturnUdt$[ebp]
  00035	89 08		 mov	 DWORD PTR [eax], ecx

; 3304 : 	}

  00037	5d		 pop	 ebp
  00038	c3		 ret	 0
??$rotate@V?$_Vector_iterator@V?$_Vector_val@PAVQuestCompleteData@@V?$allocator@PAVQuestCompleteData@@@std@@@std@@@std@@@std@@YA?AV?$_Vector_iterator@V?$_Vector_val@PAVQuestCompleteData@@V?$allocator@PAVQuestCompleteData@@@std@@@std@@@0@V10@00@Z ENDP ; std::rotate<std::_Vector_iterator<std::_Vector_val<QuestCompleteData *,std::allocator<QuestCompleteData *> > > >
_TEXT	ENDS
PUBLIC	?_Reserve@?$vector@PAVQuestData@@V?$allocator@PAVQuestData@@@std@@@std@@IAEXI@Z ; std::vector<QuestData *,std::allocator<QuestData *> >::_Reserve
; Function compile flags: /Ogsp
; File c:\program files (x86)\microsoft visual studio 10.0\vc\include\vector
;	COMDAT ?_Reserve@?$vector@PAVQuestData@@V?$allocator@PAVQuestData@@@std@@@std@@IAEXI@Z
_TEXT	SEGMENT
__Count$ = 8						; size = 4
?_Reserve@?$vector@PAVQuestData@@V?$allocator@PAVQuestData@@@std@@@std@@IAEXI@Z PROC ; std::vector<QuestData *,std::allocator<QuestData *> >::_Reserve, COMDAT
; _this$ = ecx

; 1290 : 		{	// ensure room for _Count new elements, grow exponentially

  00000	55		 push	 ebp
  00001	8b ec		 mov	 ebp, esp
  00003	56		 push	 esi
  00004	8b f1		 mov	 esi, ecx

; 1291 : 		size_type _Size = size();

  00006	8b 0e		 mov	 ecx, DWORD PTR [esi]
  00008	8b 46 04	 mov	 eax, DWORD PTR [esi+4]
  0000b	2b c1		 sub	 eax, ecx

; 1292 : 		if (max_size() - _Count < _Size)

  0000d	ba ff ff ff 3f	 mov	 edx, 1073741823		; 3fffffffH
  00012	2b 55 08	 sub	 edx, DWORD PTR __Count$[ebp]
  00015	c1 f8 02	 sar	 eax, 2
  00018	3b d0		 cmp	 edx, eax
  0001a	73 0b		 jae	 SHORT $LN4@Reserve

; 1293 : 			_Xlen();

  0001c	68 00 00 00 00	 push	 OFFSET ??_C@_0BD@OLBABOEK@vector?$DMT?$DO?5too?5long?$AA@
  00021	ff 15 00 00 00
	00		 call	 DWORD PTR __imp_?_Xlength_error@std@@YAXPBD@Z
$LN21@Reserve:
$LN4@Reserve:

; 1294 : 		else if ((_Size += _Count) <= capacity())

  00027	8b 56 08	 mov	 edx, DWORD PTR [esi+8]
  0002a	03 45 08	 add	 eax, DWORD PTR __Count$[ebp]
  0002d	2b d1		 sub	 edx, ecx
  0002f	c1 fa 02	 sar	 edx, 2
  00032	3b c2		 cmp	 eax, edx
  00034	76 10		 jbe	 SHORT $LN1@Reserve

; 1295 : 			;
; 1296 : 		else
; 1297 : 			reserve(_Grow_to(_Size));

  00036	50		 push	 eax
  00037	8b ce		 mov	 ecx, esi
  00039	e8 00 00 00 00	 call	 ?_Grow_to@?$vector@PAVQuestData@@V?$allocator@PAVQuestData@@@std@@@std@@IBEII@Z ; std::vector<QuestData *,std::allocator<QuestData *> >::_Grow_to
  0003e	50		 push	 eax
  0003f	8b ce		 mov	 ecx, esi
  00041	e8 00 00 00 00	 call	 ?reserve@?$vector@PAVQuestData@@V?$allocator@PAVQuestData@@@std@@@std@@QAEXI@Z ; std::vector<QuestData *,std::allocator<QuestData *> >::reserve
$LN1@Reserve:
  00046	5e		 pop	 esi

; 1298 : 		}

  00047	5d		 pop	 ebp
  00048	c2 04 00	 ret	 4
$LN20@Reserve:
?_Reserve@?$vector@PAVQuestData@@V?$allocator@PAVQuestData@@@std@@@std@@IAEXI@Z ENDP ; std::vector<QuestData *,std::allocator<QuestData *> >::_Reserve
_TEXT	ENDS
PUBLIC	?_Reserve@?$vector@PAVQuestCompleteData@@V?$allocator@PAVQuestCompleteData@@@std@@@std@@IAEXI@Z ; std::vector<QuestCompleteData *,std::allocator<QuestCompleteData *> >::_Reserve
; Function compile flags: /Ogsp
;	COMDAT ?_Reserve@?$vector@PAVQuestCompleteData@@V?$allocator@PAVQuestCompleteData@@@std@@@std@@IAEXI@Z
_TEXT	SEGMENT
__Count$ = 8						; size = 4
?_Reserve@?$vector@PAVQuestCompleteData@@V?$allocator@PAVQuestCompleteData@@@std@@@std@@IAEXI@Z PROC ; std::vector<QuestCompleteData *,std::allocator<QuestCompleteData *> >::_Reserve, COMDAT
; _this$ = ecx

; 1290 : 		{	// ensure room for _Count new elements, grow exponentially

  00000	55		 push	 ebp
  00001	8b ec		 mov	 ebp, esp
  00003	56		 push	 esi
  00004	8b f1		 mov	 esi, ecx

; 1291 : 		size_type _Size = size();

  00006	8b 0e		 mov	 ecx, DWORD PTR [esi]
  00008	8b 46 04	 mov	 eax, DWORD PTR [esi+4]
  0000b	2b c1		 sub	 eax, ecx

; 1292 : 		if (max_size() - _Count < _Size)

  0000d	ba ff ff ff 3f	 mov	 edx, 1073741823		; 3fffffffH
  00012	2b 55 08	 sub	 edx, DWORD PTR __Count$[ebp]
  00015	c1 f8 02	 sar	 eax, 2
  00018	3b d0		 cmp	 edx, eax
  0001a	73 0b		 jae	 SHORT $LN4@Reserve@2

; 1293 : 			_Xlen();

  0001c	68 00 00 00 00	 push	 OFFSET ??_C@_0BD@OLBABOEK@vector?$DMT?$DO?5too?5long?$AA@
  00021	ff 15 00 00 00
	00		 call	 DWORD PTR __imp_?_Xlength_error@std@@YAXPBD@Z
$LN21@Reserve@2:
$LN4@Reserve@2:

; 1294 : 		else if ((_Size += _Count) <= capacity())

  00027	8b 56 08	 mov	 edx, DWORD PTR [esi+8]
  0002a	03 45 08	 add	 eax, DWORD PTR __Count$[ebp]
  0002d	2b d1		 sub	 edx, ecx
  0002f	c1 fa 02	 sar	 edx, 2
  00032	3b c2		 cmp	 eax, edx
  00034	76 10		 jbe	 SHORT $LN1@Reserve@2

; 1295 : 			;
; 1296 : 		else
; 1297 : 			reserve(_Grow_to(_Size));

  00036	50		 push	 eax
  00037	8b ce		 mov	 ecx, esi
  00039	e8 00 00 00 00	 call	 ?_Grow_to@?$vector@PAVQuestCompleteData@@V?$allocator@PAVQuestCompleteData@@@std@@@std@@IBEII@Z ; std::vector<QuestCompleteData *,std::allocator<QuestCompleteData *> >::_Grow_to
  0003e	50		 push	 eax
  0003f	8b ce		 mov	 ecx, esi
  00041	e8 00 00 00 00	 call	 ?reserve@?$vector@PAVQuestCompleteData@@V?$allocator@PAVQuestCompleteData@@@std@@@std@@QAEXI@Z ; std::vector<QuestCompleteData *,std::allocator<QuestCompleteData *> >::reserve
$LN1@Reserve@2:
  00046	5e		 pop	 esi

; 1298 : 		}

  00047	5d		 pop	 ebp
  00048	c2 04 00	 ret	 4
$LN20@Reserve@2:
?_Reserve@?$vector@PAVQuestCompleteData@@V?$allocator@PAVQuestCompleteData@@@std@@@std@@IAEXI@Z ENDP ; std::vector<QuestCompleteData *,std::allocator<QuestCompleteData *> >::_Reserve
_TEXT	ENDS
PUBLIC	??$_Make_heap@PAPAVQuestData@@HPAV1@VQuestDataSort@@@std@@YAXPAPAVQuestData@@0VQuestDataSort@@PAH0@Z ; std::_Make_heap<QuestData * *,int,QuestData *,QuestDataSort>
; Function compile flags: /Ogsp
; File c:\program files (x86)\microsoft visual studio 10.0\vc\include\algorithm
;	COMDAT ??$_Make_heap@PAPAVQuestData@@HPAV1@VQuestDataSort@@@std@@YAXPAPAVQuestData@@0VQuestDataSort@@PAH0@Z
_TEXT	SEGMENT
__First$ = 8						; size = 4
__Val$507819 = 12					; size = 4
__Last$ = 12						; size = 4
__Pred$ = 16						; size = 1
___formal$ = 20						; size = 4
___formal$ = 24						; size = 4
??$_Make_heap@PAPAVQuestData@@HPAV1@VQuestDataSort@@@std@@YAXPAPAVQuestData@@0VQuestDataSort@@PAH0@Z PROC ; std::_Make_heap<QuestData * *,int,QuestData *,QuestDataSort>, COMDAT

; 2658 : 	{	// make nontrivial [_First, _Last) into a heap, using _Pred

  00000	55		 push	 ebp
  00001	8b ec		 mov	 ebp, esp
  00003	53		 push	 ebx

; 2659 : 	_Diff _Bottom = _Last - _First;

  00004	8b 5d 08	 mov	 ebx, DWORD PTR __First$[ebp]
  00007	56		 push	 esi
  00008	57		 push	 edi
  00009	8b 7d 0c	 mov	 edi, DWORD PTR __Last$[ebp]
  0000c	2b fb		 sub	 edi, ebx
  0000e	c1 ff 02	 sar	 edi, 2

; 2660 : 	for (_Diff _Hole = _Bottom / 2; 0 < _Hole; )

  00011	8b c7		 mov	 eax, edi
  00013	99		 cdq
  00014	2b c2		 sub	 eax, edx
  00016	8b f0		 mov	 esi, eax
  00018	d1 fe		 sar	 esi, 1
  0001a	eb 19		 jmp	 SHORT $LN11@Make_heap
$LL2@Make_heap:

; 2661 : 		{	// reheap top half, bottom to top
; 2662 : 		--_Hole;
; 2663 : 		_Ty _Val = _Move(*(_First + _Hole));
; 2664 : 		_Adjust_heap(_First, _Hole, _Bottom,
; 2665 : 			_Move(_Val), _Pred);

  0001c	ff 75 10	 push	 DWORD PTR __Pred$[ebp]
  0001f	4e		 dec	 esi
  00020	8b 04 b3	 mov	 eax, DWORD PTR [ebx+esi*4]
  00023	89 45 0c	 mov	 DWORD PTR __Val$507819[ebp], eax
  00026	8d 45 0c	 lea	 eax, DWORD PTR __Val$507819[ebp]
  00029	50		 push	 eax
  0002a	57		 push	 edi
  0002b	56		 push	 esi
  0002c	53		 push	 ebx
  0002d	e8 00 00 00 00	 call	 ??$_Adjust_heap@PAPAVQuestData@@HPAV1@VQuestDataSort@@@std@@YAXPAPAVQuestData@@HH$$QAPAV1@VQuestDataSort@@@Z ; std::_Adjust_heap<QuestData * *,int,QuestData *,QuestDataSort>
  00032	83 c4 14	 add	 esp, 20			; 00000014H
$LN11@Make_heap:

; 2660 : 	for (_Diff _Hole = _Bottom / 2; 0 < _Hole; )

  00035	85 f6		 test	 esi, esi
  00037	7f e3		 jg	 SHORT $LL2@Make_heap
  00039	5f		 pop	 edi
  0003a	5e		 pop	 esi
  0003b	5b		 pop	 ebx

; 2666 : 		}
; 2667 : 	}

  0003c	5d		 pop	 ebp
  0003d	c3		 ret	 0
??$_Make_heap@PAPAVQuestData@@HPAV1@VQuestDataSort@@@std@@YAXPAPAVQuestData@@0VQuestDataSort@@PAH0@Z ENDP ; std::_Make_heap<QuestData * *,int,QuestData *,QuestDataSort>
_TEXT	ENDS
PUBLIC	??$_Make_heap@PAPAVQuestCompleteData@@HPAV1@VQuestCompleteDataSort@@@std@@YAXPAPAVQuestCompleteData@@0VQuestCompleteDataSort@@PAH0@Z ; std::_Make_heap<QuestCompleteData * *,int,QuestCompleteData *,QuestCompleteDataSort>
; Function compile flags: /Ogsp
;	COMDAT ??$_Make_heap@PAPAVQuestCompleteData@@HPAV1@VQuestCompleteDataSort@@@std@@YAXPAPAVQuestCompleteData@@0VQuestCompleteDataSort@@PAH0@Z
_TEXT	SEGMENT
__First$ = 8						; size = 4
__Val$508016 = 12					; size = 4
__Last$ = 12						; size = 4
__Pred$ = 16						; size = 1
___formal$ = 20						; size = 4
___formal$ = 24						; size = 4
??$_Make_heap@PAPAVQuestCompleteData@@HPAV1@VQuestCompleteDataSort@@@std@@YAXPAPAVQuestCompleteData@@0VQuestCompleteDataSort@@PAH0@Z PROC ; std::_Make_heap<QuestCompleteData * *,int,QuestCompleteData *,QuestCompleteDataSort>, COMDAT

; 2658 : 	{	// make nontrivial [_First, _Last) into a heap, using _Pred

  00000	55		 push	 ebp
  00001	8b ec		 mov	 ebp, esp
  00003	53		 push	 ebx

; 2659 : 	_Diff _Bottom = _Last - _First;

  00004	8b 5d 08	 mov	 ebx, DWORD PTR __First$[ebp]
  00007	56		 push	 esi
  00008	57		 push	 edi
  00009	8b 7d 0c	 mov	 edi, DWORD PTR __Last$[ebp]
  0000c	2b fb		 sub	 edi, ebx
  0000e	c1 ff 02	 sar	 edi, 2

; 2660 : 	for (_Diff _Hole = _Bottom / 2; 0 < _Hole; )

  00011	8b c7		 mov	 eax, edi
  00013	99		 cdq
  00014	2b c2		 sub	 eax, edx
  00016	8b f0		 mov	 esi, eax
  00018	d1 fe		 sar	 esi, 1
  0001a	eb 19		 jmp	 SHORT $LN11@Make_heap@2
$LL2@Make_heap@2:

; 2661 : 		{	// reheap top half, bottom to top
; 2662 : 		--_Hole;
; 2663 : 		_Ty _Val = _Move(*(_First + _Hole));
; 2664 : 		_Adjust_heap(_First, _Hole, _Bottom,
; 2665 : 			_Move(_Val), _Pred);

  0001c	ff 75 10	 push	 DWORD PTR __Pred$[ebp]
  0001f	4e		 dec	 esi
  00020	8b 04 b3	 mov	 eax, DWORD PTR [ebx+esi*4]
  00023	89 45 0c	 mov	 DWORD PTR __Val$508016[ebp], eax
  00026	8d 45 0c	 lea	 eax, DWORD PTR __Val$508016[ebp]
  00029	50		 push	 eax
  0002a	57		 push	 edi
  0002b	56		 push	 esi
  0002c	53		 push	 ebx
  0002d	e8 00 00 00 00	 call	 ??$_Adjust_heap@PAPAVQuestCompleteData@@HPAV1@VQuestCompleteDataSort@@@std@@YAXPAPAVQuestCompleteData@@HH$$QAPAV1@VQuestCompleteDataSort@@@Z ; std::_Adjust_heap<QuestCompleteData * *,int,QuestCompleteData *,QuestCompleteDataSort>
  00032	83 c4 14	 add	 esp, 20			; 00000014H
$LN11@Make_heap@2:

; 2660 : 	for (_Diff _Hole = _Bottom / 2; 0 < _Hole; )

  00035	85 f6		 test	 esi, esi
  00037	7f e3		 jg	 SHORT $LL2@Make_heap@2
  00039	5f		 pop	 edi
  0003a	5e		 pop	 esi
  0003b	5b		 pop	 ebx

; 2666 : 		}
; 2667 : 	}

  0003c	5d		 pop	 ebp
  0003d	c3		 ret	 0
??$_Make_heap@PAPAVQuestCompleteData@@HPAV1@VQuestCompleteDataSort@@@std@@YAXPAPAVQuestCompleteData@@0VQuestCompleteDataSort@@PAH0@Z ENDP ; std::_Make_heap<QuestCompleteData * *,int,QuestCompleteData *,QuestCompleteDataSort>
_TEXT	ENDS
PUBLIC	??$_Pop_heap_0@PAPAVQuestData@@PAV1@VQuestDataSort@@@std@@YAXPAPAVQuestData@@0VQuestDataSort@@0@Z ; std::_Pop_heap_0<QuestData * *,QuestData *,QuestDataSort>
; Function compile flags: /Ogsp
;	COMDAT ??$_Pop_heap_0@PAPAVQuestData@@PAV1@VQuestDataSort@@@std@@YAXPAPAVQuestData@@0VQuestDataSort@@0@Z
_TEXT	SEGMENT
__First$ = 8						; size = 4
__Val$ = 12						; size = 4
__Last$ = 12						; size = 4
__Pred$ = 16						; size = 1
___formal$ = 20						; size = 4
??$_Pop_heap_0@PAPAVQuestData@@PAV1@VQuestDataSort@@@std@@YAXPAPAVQuestData@@0VQuestDataSort@@0@Z PROC ; std::_Pop_heap_0<QuestData * *,QuestData *,QuestDataSort>, COMDAT

; 2601 : 	{	// pop *_First to *(_Last - 1) and reheap, using _Pred

  00000	55		 push	 ebp
  00001	8b ec		 mov	 ebp, esp

; 2602 : 	_Ty _Val = _Move(*(_Last - 1));

  00003	8b 45 0c	 mov	 eax, DWORD PTR __Last$[ebp]
  00006	83 c0 fc	 add	 eax, -4			; fffffffcH
  00009	8b 08		 mov	 ecx, DWORD PTR [eax]

; 2603 : 	_Pop_heap(_First, _Last - 1, _Last - 1,
; 2604 : 		_Move(_Val), _Pred, _Dist_type(_First));

  0000b	6a 00		 push	 0
  0000d	ff 75 10	 push	 DWORD PTR __Pred$[ebp]
  00010	89 4d 0c	 mov	 DWORD PTR __Val$[ebp], ecx
  00013	8d 4d 0c	 lea	 ecx, DWORD PTR __Val$[ebp]
  00016	51		 push	 ecx
  00017	50		 push	 eax
  00018	50		 push	 eax
  00019	ff 75 08	 push	 DWORD PTR __First$[ebp]
  0001c	e8 00 00 00 00	 call	 ??$_Pop_heap@PAPAVQuestData@@HPAV1@VQuestDataSort@@@std@@YAXPAPAVQuestData@@00$$QAPAV1@VQuestDataSort@@PAH@Z ; std::_Pop_heap<QuestData * *,int,QuestData *,QuestDataSort>
  00021	83 c4 18	 add	 esp, 24			; 00000018H

; 2605 : 	}

  00024	5d		 pop	 ebp
  00025	c3		 ret	 0
??$_Pop_heap_0@PAPAVQuestData@@PAV1@VQuestDataSort@@@std@@YAXPAPAVQuestData@@0VQuestDataSort@@0@Z ENDP ; std::_Pop_heap_0<QuestData * *,QuestData *,QuestDataSort>
_TEXT	ENDS
PUBLIC	??$_Pop_heap_0@PAPAVQuestCompleteData@@PAV1@VQuestCompleteDataSort@@@std@@YAXPAPAVQuestCompleteData@@0VQuestCompleteDataSort@@0@Z ; std::_Pop_heap_0<QuestCompleteData * *,QuestCompleteData *,QuestCompleteDataSort>
; Function compile flags: /Ogsp
;	COMDAT ??$_Pop_heap_0@PAPAVQuestCompleteData@@PAV1@VQuestCompleteDataSort@@@std@@YAXPAPAVQuestCompleteData@@0VQuestCompleteDataSort@@0@Z
_TEXT	SEGMENT
__First$ = 8						; size = 4
__Val$ = 12						; size = 4
__Last$ = 12						; size = 4
__Pred$ = 16						; size = 1
___formal$ = 20						; size = 4
??$_Pop_heap_0@PAPAVQuestCompleteData@@PAV1@VQuestCompleteDataSort@@@std@@YAXPAPAVQuestCompleteData@@0VQuestCompleteDataSort@@0@Z PROC ; std::_Pop_heap_0<QuestCompleteData * *,QuestCompleteData *,QuestCompleteDataSort>, COMDAT

; 2601 : 	{	// pop *_First to *(_Last - 1) and reheap, using _Pred

  00000	55		 push	 ebp
  00001	8b ec		 mov	 ebp, esp

; 2602 : 	_Ty _Val = _Move(*(_Last - 1));

  00003	8b 45 0c	 mov	 eax, DWORD PTR __Last$[ebp]
  00006	83 c0 fc	 add	 eax, -4			; fffffffcH
  00009	8b 08		 mov	 ecx, DWORD PTR [eax]

; 2603 : 	_Pop_heap(_First, _Last - 1, _Last - 1,
; 2604 : 		_Move(_Val), _Pred, _Dist_type(_First));

  0000b	6a 00		 push	 0
  0000d	ff 75 10	 push	 DWORD PTR __Pred$[ebp]
  00010	89 4d 0c	 mov	 DWORD PTR __Val$[ebp], ecx
  00013	8d 4d 0c	 lea	 ecx, DWORD PTR __Val$[ebp]
  00016	51		 push	 ecx
  00017	50		 push	 eax
  00018	50		 push	 eax
  00019	ff 75 08	 push	 DWORD PTR __First$[ebp]
  0001c	e8 00 00 00 00	 call	 ??$_Pop_heap@PAPAVQuestCompleteData@@HPAV1@VQuestCompleteDataSort@@@std@@YAXPAPAVQuestCompleteData@@00$$QAPAV1@VQuestCompleteDataSort@@PAH@Z ; std::_Pop_heap<QuestCompleteData * *,int,QuestCompleteData *,QuestCompleteDataSort>
  00021	83 c4 18	 add	 esp, 24			; 00000018H

; 2605 : 	}

  00024	5d		 pop	 ebp
  00025	c3		 ret	 0
??$_Pop_heap_0@PAPAVQuestCompleteData@@PAV1@VQuestCompleteDataSort@@@std@@YAXPAPAVQuestCompleteData@@0VQuestCompleteDataSort@@0@Z ENDP ; std::_Pop_heap_0<QuestCompleteData * *,QuestCompleteData *,QuestCompleteDataSort>
_TEXT	ENDS
PUBLIC	?ClearQuestData@ioQuest@@QAEXXZ			; ioQuest::ClearQuestData
; Function compile flags: /Ogsp
; File d:\lost saga for developer\youtube\tutorial\source\src\lsclient\ioquest.cpp
;	COMDAT ?ClearQuestData@ioQuest@@QAEXXZ
_TEXT	SEGMENT
$T514693 = -4						; size = 4
$T514532 = -4						; size = 4
?ClearQuestData@ioQuest@@QAEXXZ PROC			; ioQuest::ClearQuestData, COMDAT
; _this$ = ecx

; 197  : {

  00000	55		 push	 ebp
  00001	8b ec		 mov	 ebp, esp
  00003	51		 push	 ecx
  00004	53		 push	 ebx
  00005	56		 push	 esi
  00006	8b f1		 mov	 esi, ecx

; 198  : 	for(vQuestInfo::iterator iter = m_vItemList.begin(); iter != m_vItemList.end(); ++iter)

  00008	8b 5e 04	 mov	 ebx, DWORD PTR [esi+4]
  0000b	57		 push	 edi
  0000c	eb 10		 jmp	 SHORT $LN115@ClearQuest
$LL25@ClearQuest:

; 199  : 	{
; 200  : 		QuestData *pData = (*iter);

  0000e	8b 0b		 mov	 ecx, DWORD PTR [ebx]

; 201  : 		SAFEDELETE( pData );

  00010	85 c9		 test	 ecx, ecx
  00012	74 07		 je	 SHORT $LN7@ClearQuest
  00014	8b 01		 mov	 eax, DWORD PTR [ecx]
  00016	6a 01		 push	 1
  00018	ff 50 0c	 call	 DWORD PTR [eax+12]
$LN7@ClearQuest:

; 198  : 	for(vQuestInfo::iterator iter = m_vItemList.begin(); iter != m_vItemList.end(); ++iter)

  0001b	83 c3 04	 add	 ebx, 4
$LN115@ClearQuest:
  0001e	3b 5e 08	 cmp	 ebx, DWORD PTR [esi+8]
  00021	75 eb		 jne	 SHORT $LL25@ClearQuest

; 202  : 	}
; 203  : 	m_vItemList.clear();

  00023	8b 46 08	 mov	 eax, DWORD PTR [esi+8]
  00026	8b 4e 04	 mov	 ecx, DWORD PTR [esi+4]
  00029	50		 push	 eax
  0002a	51		 push	 ecx
  0002b	8d 45 fc	 lea	 eax, DWORD PTR $T514532[ebp]
  0002e	50		 push	 eax
  0002f	8d 4e 04	 lea	 ecx, DWORD PTR [esi+4]
  00032	e8 00 00 00 00	 call	 ?erase@?$vector@PAVQuestData@@V?$allocator@PAVQuestData@@@std@@@std@@QAE?AV?$_Vector_iterator@V?$_Vector_val@PAVQuestData@@V?$allocator@PAVQuestData@@@std@@@std@@@2@V?$_Vector_const_iterator@V?$_Vector_val@PAVQuestData@@V?$allocator@PAVQuestData@@@std@@@std@@@2@0@Z ; std::vector<QuestData *,std::allocator<QuestData *> >::erase

; 204  : 
; 205  : 	for(vQuestCompleteInfo::iterator iter = m_vCompleteList.begin(); iter != m_vCompleteList.end(); ++iter)

  00037	8b 7e 14	 mov	 edi, DWORD PTR [esi+20]
  0003a	eb 10		 jmp	 SHORT $LN116@ClearQuest
$LL73@ClearQuest:

; 206  : 	{
; 207  : 		QuestCompleteData *pData = (*iter);

  0003c	8b 0f		 mov	 ecx, DWORD PTR [edi]

; 208  : 		SAFEDELETE( pData );

  0003e	85 c9		 test	 ecx, ecx
  00040	74 07		 je	 SHORT $LN3@ClearQuest
  00042	8b 01		 mov	 eax, DWORD PTR [ecx]
  00044	6a 01		 push	 1
  00046	ff 50 0c	 call	 DWORD PTR [eax+12]
$LN3@ClearQuest:

; 204  : 
; 205  : 	for(vQuestCompleteInfo::iterator iter = m_vCompleteList.begin(); iter != m_vCompleteList.end(); ++iter)

  00049	83 c7 04	 add	 edi, 4
$LN116@ClearQuest:
  0004c	3b 7e 18	 cmp	 edi, DWORD PTR [esi+24]
  0004f	75 eb		 jne	 SHORT $LL73@ClearQuest

; 209  : 	}
; 210  : 	m_vCompleteList.clear();

  00051	8b 46 18	 mov	 eax, DWORD PTR [esi+24]
  00054	8b 4e 14	 mov	 ecx, DWORD PTR [esi+20]
  00057	50		 push	 eax
  00058	51		 push	 ecx
  00059	8d 45 fc	 lea	 eax, DWORD PTR $T514693[ebp]
  0005c	50		 push	 eax
  0005d	8d 4e 14	 lea	 ecx, DWORD PTR [esi+20]
  00060	e8 00 00 00 00	 call	 ?erase@?$vector@PAVQuestCompleteData@@V?$allocator@PAVQuestCompleteData@@@std@@@std@@QAE?AV?$_Vector_iterator@V?$_Vector_val@PAVQuestCompleteData@@V?$allocator@PAVQuestCompleteData@@@std@@@std@@@2@V?$_Vector_const_iterator@V?$_Vector_val@PAVQuestCompleteData@@V?$allocator@PAVQuestCompleteData@@@std@@@std@@@2@0@Z ; std::vector<QuestCompleteData *,std::allocator<QuestCompleteData *> >::erase
  00065	5f		 pop	 edi
  00066	5e		 pop	 esi
  00067	5b		 pop	 ebx

; 211  : }

  00068	c9		 leave
  00069	c3		 ret	 0
?ClearQuestData@ioQuest@@QAEXXZ ENDP			; ioQuest::ClearQuestData
_TEXT	ENDS
PUBLIC	??$make_heap@PAPAVQuestData@@VQuestDataSort@@@std@@YAXPAPAVQuestData@@0VQuestDataSort@@@Z ; std::make_heap<QuestData * *,QuestDataSort>
; Function compile flags: /Ogsp
; File c:\program files (x86)\microsoft visual studio 10.0\vc\include\algorithm
;	COMDAT ??$make_heap@PAPAVQuestData@@VQuestDataSort@@@std@@YAXPAPAVQuestData@@0VQuestDataSort@@@Z
_TEXT	SEGMENT
__First$ = 8						; size = 4
__Last$ = 12						; size = 4
__Pred$ = 16						; size = 1
??$make_heap@PAPAVQuestData@@VQuestDataSort@@@std@@YAXPAPAVQuestData@@0VQuestDataSort@@@Z PROC ; std::make_heap<QuestData * *,QuestDataSort>, COMDAT

; 2672 : 	{	// make [_First, _Last) into a heap, using _Pred

  00000	55		 push	 ebp
  00001	8b ec		 mov	 ebp, esp

; 2673 : 	_DEBUG_RANGE(_First, _Last);
; 2674 : 	_DEBUG_POINTER(_Pred);
; 2675 : 	if (1 < _Last - _First)

  00003	8b 45 0c	 mov	 eax, DWORD PTR __Last$[ebp]
  00006	2b 45 08	 sub	 eax, DWORD PTR __First$[ebp]
  00009	83 e0 fc	 and	 eax, -4			; fffffffcH
  0000c	83 f8 04	 cmp	 eax, 4
  0000f	7e 15		 jle	 SHORT $LN1@make_heap

; 2676 : 		_Make_heap(_Unchecked(_First), _Unchecked(_Last), _Pred,
; 2677 : 			_Dist_type(_First), _Val_type(_First));

  00011	6a 00		 push	 0
  00013	6a 00		 push	 0
  00015	ff 75 10	 push	 DWORD PTR __Pred$[ebp]
  00018	ff 75 0c	 push	 DWORD PTR __Last$[ebp]
  0001b	ff 75 08	 push	 DWORD PTR __First$[ebp]
  0001e	e8 00 00 00 00	 call	 ??$_Make_heap@PAPAVQuestData@@HPAV1@VQuestDataSort@@@std@@YAXPAPAVQuestData@@0VQuestDataSort@@PAH0@Z ; std::_Make_heap<QuestData * *,int,QuestData *,QuestDataSort>
  00023	83 c4 14	 add	 esp, 20			; 00000014H
$LN1@make_heap:

; 2678 : 	}

  00026	5d		 pop	 ebp
  00027	c3		 ret	 0
??$make_heap@PAPAVQuestData@@VQuestDataSort@@@std@@YAXPAPAVQuestData@@0VQuestDataSort@@@Z ENDP ; std::make_heap<QuestData * *,QuestDataSort>
_TEXT	ENDS
PUBLIC	??$emplace_back@AAPAVQuestData@@@?$vector@PAVQuestData@@V?$allocator@PAVQuestData@@@std@@@std@@QAEXAAPAVQuestData@@@Z ; std::vector<QuestData *,std::allocator<QuestData *> >::emplace_back<QuestData * &>
; Function compile flags: /Ogsp
; File c:\program files (x86)\microsoft visual studio 10.0\vc\include\vector
;	COMDAT ??$emplace_back@AAPAVQuestData@@@?$vector@PAVQuestData@@V?$allocator@PAVQuestData@@@std@@@std@@QAEXAAPAVQuestData@@@Z
_TEXT	SEGMENT
__Val$ = 8						; size = 4
??$emplace_back@AAPAVQuestData@@@?$vector@PAVQuestData@@V?$allocator@PAVQuestData@@@std@@@std@@QAEXAAPAVQuestData@@@Z PROC ; std::vector<QuestData *,std::allocator<QuestData *> >::emplace_back<QuestData * &>, COMDAT
; _this$ = ecx

; 661  : 		void emplace_back(_Valty&& _Val)

  00000	55		 push	 ebp
  00001	8b ec		 mov	 ebp, esp
  00003	56		 push	 esi
  00004	8b f1		 mov	 esi, ecx

; 662  : 		{	// insert element at end
; 663  : 		if (this->_Mylast == this->_Myend)

  00006	8b 46 04	 mov	 eax, DWORD PTR [esi+4]
  00009	3b 46 08	 cmp	 eax, DWORD PTR [esi+8]
  0000c	75 07		 jne	 SHORT $LN1@emplace_ba

; 664  : 			_Reserve(1);

  0000e	6a 01		 push	 1
  00010	e8 00 00 00 00	 call	 ?_Reserve@?$vector@PAVQuestData@@V?$allocator@PAVQuestData@@@std@@@std@@IAEXI@Z ; std::vector<QuestData *,std::allocator<QuestData *> >::_Reserve
$LN1@emplace_ba:

; 665  : 		_Orphan_range(this->_Mylast, this->_Mylast);
; 666  : 		_Cons_val(this->_Alval,
; 667  : 			this->_Mylast,
; 668  : 			_STD forward<_Valty>(_Val));

  00015	8b 46 04	 mov	 eax, DWORD PTR [esi+4]
  00018	85 c0		 test	 eax, eax
  0001a	74 07		 je	 SHORT $LN14@emplace_ba
  0001c	8b 4d 08	 mov	 ecx, DWORD PTR __Val$[ebp]
  0001f	8b 09		 mov	 ecx, DWORD PTR [ecx]
  00021	89 08		 mov	 DWORD PTR [eax], ecx
$LN14@emplace_ba:

; 669  : 		++this->_Mylast;

  00023	83 46 04 04	 add	 DWORD PTR [esi+4], 4
  00027	5e		 pop	 esi

; 670  : 		}

  00028	5d		 pop	 ebp
  00029	c2 04 00	 ret	 4
??$emplace_back@AAPAVQuestData@@@?$vector@PAVQuestData@@V?$allocator@PAVQuestData@@@std@@@std@@QAEXAAPAVQuestData@@@Z ENDP ; std::vector<QuestData *,std::allocator<QuestData *> >::emplace_back<QuestData * &>
_TEXT	ENDS
PUBLIC	??$make_heap@PAPAVQuestCompleteData@@VQuestCompleteDataSort@@@std@@YAXPAPAVQuestCompleteData@@0VQuestCompleteDataSort@@@Z ; std::make_heap<QuestCompleteData * *,QuestCompleteDataSort>
; Function compile flags: /Ogsp
; File c:\program files (x86)\microsoft visual studio 10.0\vc\include\algorithm
;	COMDAT ??$make_heap@PAPAVQuestCompleteData@@VQuestCompleteDataSort@@@std@@YAXPAPAVQuestCompleteData@@0VQuestCompleteDataSort@@@Z
_TEXT	SEGMENT
__First$ = 8						; size = 4
__Last$ = 12						; size = 4
__Pred$ = 16						; size = 1
??$make_heap@PAPAVQuestCompleteData@@VQuestCompleteDataSort@@@std@@YAXPAPAVQuestCompleteData@@0VQuestCompleteDataSort@@@Z PROC ; std::make_heap<QuestCompleteData * *,QuestCompleteDataSort>, COMDAT

; 2672 : 	{	// make [_First, _Last) into a heap, using _Pred

  00000	55		 push	 ebp
  00001	8b ec		 mov	 ebp, esp

; 2673 : 	_DEBUG_RANGE(_First, _Last);
; 2674 : 	_DEBUG_POINTER(_Pred);
; 2675 : 	if (1 < _Last - _First)

  00003	8b 45 0c	 mov	 eax, DWORD PTR __Last$[ebp]
  00006	2b 45 08	 sub	 eax, DWORD PTR __First$[ebp]
  00009	83 e0 fc	 and	 eax, -4			; fffffffcH
  0000c	83 f8 04	 cmp	 eax, 4
  0000f	7e 15		 jle	 SHORT $LN1@make_heap@2

; 2676 : 		_Make_heap(_Unchecked(_First), _Unchecked(_Last), _Pred,
; 2677 : 			_Dist_type(_First), _Val_type(_First));

  00011	6a 00		 push	 0
  00013	6a 00		 push	 0
  00015	ff 75 10	 push	 DWORD PTR __Pred$[ebp]
  00018	ff 75 0c	 push	 DWORD PTR __Last$[ebp]
  0001b	ff 75 08	 push	 DWORD PTR __First$[ebp]
  0001e	e8 00 00 00 00	 call	 ??$_Make_heap@PAPAVQuestCompleteData@@HPAV1@VQuestCompleteDataSort@@@std@@YAXPAPAVQuestCompleteData@@0VQuestCompleteDataSort@@PAH0@Z ; std::_Make_heap<QuestCompleteData * *,int,QuestCompleteData *,QuestCompleteDataSort>
  00023	83 c4 14	 add	 esp, 20			; 00000014H
$LN1@make_heap@2:

; 2678 : 	}

  00026	5d		 pop	 ebp
  00027	c3		 ret	 0
??$make_heap@PAPAVQuestCompleteData@@VQuestCompleteDataSort@@@std@@YAXPAPAVQuestCompleteData@@0VQuestCompleteDataSort@@@Z ENDP ; std::make_heap<QuestCompleteData * *,QuestCompleteDataSort>
_TEXT	ENDS
PUBLIC	??$emplace_back@AAPAVQuestCompleteData@@@?$vector@PAVQuestCompleteData@@V?$allocator@PAVQuestCompleteData@@@std@@@std@@QAEXAAPAVQuestCompleteData@@@Z ; std::vector<QuestCompleteData *,std::allocator<QuestCompleteData *> >::emplace_back<QuestCompleteData * &>
; Function compile flags: /Ogsp
; File c:\program files (x86)\microsoft visual studio 10.0\vc\include\vector
;	COMDAT ??$emplace_back@AAPAVQuestCompleteData@@@?$vector@PAVQuestCompleteData@@V?$allocator@PAVQuestCompleteData@@@std@@@std@@QAEXAAPAVQuestCompleteData@@@Z
_TEXT	SEGMENT
__Val$ = 8						; size = 4
??$emplace_back@AAPAVQuestCompleteData@@@?$vector@PAVQuestCompleteData@@V?$allocator@PAVQuestCompleteData@@@std@@@std@@QAEXAAPAVQuestCompleteData@@@Z PROC ; std::vector<QuestCompleteData *,std::allocator<QuestCompleteData *> >::emplace_back<QuestCompleteData * &>, COMDAT
; _this$ = ecx

; 661  : 		void emplace_back(_Valty&& _Val)

  00000	55		 push	 ebp
  00001	8b ec		 mov	 ebp, esp
  00003	56		 push	 esi
  00004	8b f1		 mov	 esi, ecx

; 662  : 		{	// insert element at end
; 663  : 		if (this->_Mylast == this->_Myend)

  00006	8b 46 04	 mov	 eax, DWORD PTR [esi+4]
  00009	3b 46 08	 cmp	 eax, DWORD PTR [esi+8]
  0000c	75 07		 jne	 SHORT $LN1@emplace_ba@2

; 664  : 			_Reserve(1);

  0000e	6a 01		 push	 1
  00010	e8 00 00 00 00	 call	 ?_Reserve@?$vector@PAVQuestCompleteData@@V?$allocator@PAVQuestCompleteData@@@std@@@std@@IAEXI@Z ; std::vector<QuestCompleteData *,std::allocator<QuestCompleteData *> >::_Reserve
$LN1@emplace_ba@2:

; 665  : 		_Orphan_range(this->_Mylast, this->_Mylast);
; 666  : 		_Cons_val(this->_Alval,
; 667  : 			this->_Mylast,
; 668  : 			_STD forward<_Valty>(_Val));

  00015	8b 46 04	 mov	 eax, DWORD PTR [esi+4]
  00018	85 c0		 test	 eax, eax
  0001a	74 07		 je	 SHORT $LN14@emplace_ba@2
  0001c	8b 4d 08	 mov	 ecx, DWORD PTR __Val$[ebp]
  0001f	8b 09		 mov	 ecx, DWORD PTR [ecx]
  00021	89 08		 mov	 DWORD PTR [eax], ecx
$LN14@emplace_ba@2:

; 669  : 		++this->_Mylast;

  00023	83 46 04 04	 add	 DWORD PTR [esi+4], 4
  00027	5e		 pop	 esi

; 670  : 		}

  00028	5d		 pop	 ebp
  00029	c2 04 00	 ret	 4
??$emplace_back@AAPAVQuestCompleteData@@@?$vector@PAVQuestCompleteData@@V?$allocator@PAVQuestCompleteData@@@std@@@std@@QAEXAAPAVQuestCompleteData@@@Z ENDP ; std::vector<QuestCompleteData *,std::allocator<QuestCompleteData *> >::emplace_back<QuestCompleteData * &>
_TEXT	ENDS
PUBLIC	??$_Pop_heap@PAPAVQuestData@@VQuestDataSort@@@std@@YAXPAPAVQuestData@@0VQuestDataSort@@@Z ; std::_Pop_heap<QuestData * *,QuestDataSort>
; Function compile flags: /Ogsp
; File c:\program files (x86)\microsoft visual studio 10.0\vc\include\algorithm
;	COMDAT ??$_Pop_heap@PAPAVQuestData@@VQuestDataSort@@@std@@YAXPAPAVQuestData@@0VQuestDataSort@@@Z
_TEXT	SEGMENT
__First$ = 8						; size = 4
__Last$ = 12						; size = 4
__Pred$ = 16						; size = 1
??$_Pop_heap@PAPAVQuestData@@VQuestDataSort@@@std@@YAXPAPAVQuestData@@0VQuestDataSort@@@Z PROC ; std::_Pop_heap<QuestData * *,QuestDataSort>, COMDAT

; 2610 : 	{	// pop *_First to *(_Last - 1) and reheap, using _Pred

  00000	55		 push	 ebp
  00001	8b ec		 mov	 ebp, esp

; 2611 : 	_Pop_heap_0(_Unchecked(_First), _Unchecked(_Last), _Pred,
; 2612 : 		_Val_type(_First));

  00003	6a 00		 push	 0
  00005	ff 75 10	 push	 DWORD PTR __Pred$[ebp]
  00008	ff 75 0c	 push	 DWORD PTR __Last$[ebp]
  0000b	ff 75 08	 push	 DWORD PTR __First$[ebp]
  0000e	e8 00 00 00 00	 call	 ??$_Pop_heap_0@PAPAVQuestData@@PAV1@VQuestDataSort@@@std@@YAXPAPAVQuestData@@0VQuestDataSort@@0@Z ; std::_Pop_heap_0<QuestData * *,QuestData *,QuestDataSort>
  00013	83 c4 10	 add	 esp, 16			; 00000010H

; 2613 : 	}

  00016	5d		 pop	 ebp
  00017	c3		 ret	 0
??$_Pop_heap@PAPAVQuestData@@VQuestDataSort@@@std@@YAXPAPAVQuestData@@0VQuestDataSort@@@Z ENDP ; std::_Pop_heap<QuestData * *,QuestDataSort>
_TEXT	ENDS
PUBLIC	??$_Pop_heap@PAPAVQuestCompleteData@@VQuestCompleteDataSort@@@std@@YAXPAPAVQuestCompleteData@@0VQuestCompleteDataSort@@@Z ; std::_Pop_heap<QuestCompleteData * *,QuestCompleteDataSort>
; Function compile flags: /Ogsp
;	COMDAT ??$_Pop_heap@PAPAVQuestCompleteData@@VQuestCompleteDataSort@@@std@@YAXPAPAVQuestCompleteData@@0VQuestCompleteDataSort@@@Z
_TEXT	SEGMENT
__First$ = 8						; size = 4
__Last$ = 12						; size = 4
__Pred$ = 16						; size = 1
??$_Pop_heap@PAPAVQuestCompleteData@@VQuestCompleteDataSort@@@std@@YAXPAPAVQuestCompleteData@@0VQuestCompleteDataSort@@@Z PROC ; std::_Pop_heap<QuestCompleteData * *,QuestCompleteDataSort>, COMDAT

; 2610 : 	{	// pop *_First to *(_Last - 1) and reheap, using _Pred

  00000	55		 push	 ebp
  00001	8b ec		 mov	 ebp, esp

; 2611 : 	_Pop_heap_0(_Unchecked(_First), _Unchecked(_Last), _Pred,
; 2612 : 		_Val_type(_First));

  00003	6a 00		 push	 0
  00005	ff 75 10	 push	 DWORD PTR __Pred$[ebp]
  00008	ff 75 0c	 push	 DWORD PTR __Last$[ebp]
  0000b	ff 75 08	 push	 DWORD PTR __First$[ebp]
  0000e	e8 00 00 00 00	 call	 ??$_Pop_heap_0@PAPAVQuestCompleteData@@PAV1@VQuestCompleteDataSort@@@std@@YAXPAPAVQuestCompleteData@@0VQuestCompleteDataSort@@0@Z ; std::_Pop_heap_0<QuestCompleteData * *,QuestCompleteData *,QuestCompleteDataSort>
  00013	83 c4 10	 add	 esp, 16			; 00000010H

; 2613 : 	}

  00016	5d		 pop	 ebp
  00017	c3		 ret	 0
??$_Pop_heap@PAPAVQuestCompleteData@@VQuestCompleteDataSort@@@std@@YAXPAPAVQuestCompleteData@@0VQuestCompleteDataSort@@@Z ENDP ; std::_Pop_heap<QuestCompleteData * *,QuestCompleteDataSort>
_TEXT	ENDS
PUBLIC	??1ioQuest@@UAE@XZ				; ioQuest::~ioQuest
;	COMDAT xdata$x
; File c:\program files (x86)\microsoft visual studio 10.0\vc\include\vector
xdata$x	SEGMENT
__unwindtable$??1ioQuest@@UAE@XZ DD 0ffffffffH
	DD	FLAT:__unwindfunclet$??1ioQuest@@UAE@XZ$0
	DD	00H
	DD	FLAT:__unwindfunclet$??1ioQuest@@UAE@XZ$1
__ehfuncinfo$??1ioQuest@@UAE@XZ DD 019930522H
	DD	02H
	DD	FLAT:__unwindtable$??1ioQuest@@UAE@XZ
	DD	2 DUP(00H)
	DD	2 DUP(00H)
	DD	00H
	DD	01H
; Function compile flags: /Ogsp
; File d:\lost saga for developer\youtube\tutorial\source\src\lsclient\ioquest.cpp
xdata$x	ENDS
;	COMDAT ??1ioQuest@@UAE@XZ
_TEXT	SEGMENT
_this$ = -16						; size = 4
__$EHRec$ = -12						; size = 12
??1ioQuest@@UAE@XZ PROC					; ioQuest::~ioQuest, COMDAT
; _this$ = ecx

; 192  : {

  00000	6a 04		 push	 4
  00002	b8 00 00 00 00	 mov	 eax, __ehhandler$??1ioQuest@@UAE@XZ
  00007	e8 00 00 00 00	 call	 __EH_prolog3
  0000c	8b f1		 mov	 esi, ecx
  0000e	89 75 f0	 mov	 DWORD PTR _this$[ebp], esi
  00011	c7 06 00 00 00
	00		 mov	 DWORD PTR [esi], OFFSET ??_7ioQuest@@6B@
  00017	c7 45 fc 01 00
	00 00		 mov	 DWORD PTR __$EHRec$[ebp+8], 1

; 193  : 	ClearQuestData();

  0001e	e8 00 00 00 00	 call	 ?ClearQuestData@ioQuest@@QAEXXZ ; ioQuest::ClearQuestData

; 194  : }

  00023	8d 4e 14	 lea	 ecx, DWORD PTR [esi+20]
  00026	c6 45 fc 00	 mov	 BYTE PTR __$EHRec$[ebp+8], 0
  0002a	e8 00 00 00 00	 call	 ?_Tidy@?$vector@PAVQuestCompleteData@@V?$allocator@PAVQuestCompleteData@@@std@@@std@@IAEXXZ ; std::vector<QuestCompleteData *,std::allocator<QuestCompleteData *> >::_Tidy
  0002f	83 4d fc ff	 or	 DWORD PTR __$EHRec$[ebp+8], -1
  00033	8d 4e 04	 lea	 ecx, DWORD PTR [esi+4]
  00036	e8 00 00 00 00	 call	 ?_Tidy@?$vector@PAVQuestData@@V?$allocator@PAVQuestData@@@std@@@std@@IAEXXZ ; std::vector<QuestData *,std::allocator<QuestData *> >::_Tidy
  0003b	e8 00 00 00 00	 call	 __EH_epilog3
  00040	c3		 ret	 0
_TEXT	ENDS
;	COMDAT text$x
text$x	SEGMENT
__unwindfunclet$??1ioQuest@@UAE@XZ$0:
  00000	8b 4d f0	 mov	 ecx, DWORD PTR _this$[ebp]
  00003	83 c1 04	 add	 ecx, 4
  00006	e9 00 00 00 00	 jmp	 ??1?$vector@PAVQuestData@@V?$allocator@PAVQuestData@@@std@@@std@@QAE@XZ ; std::vector<QuestData *,std::allocator<QuestData *> >::~vector<QuestData *,std::allocator<QuestData *> >
__unwindfunclet$??1ioQuest@@UAE@XZ$1:
  0000b	8b 4d f0	 mov	 ecx, DWORD PTR _this$[ebp]
  0000e	83 c1 14	 add	 ecx, 20			; 00000014H
  00011	e9 00 00 00 00	 jmp	 ??1?$vector@PAVQuestCompleteData@@V?$allocator@PAVQuestCompleteData@@@std@@@std@@QAE@XZ ; std::vector<QuestCompleteData *,std::allocator<QuestCompleteData *> >::~vector<QuestCompleteData *,std::allocator<QuestCompleteData *> >
__ehhandler$??1ioQuest@@UAE@XZ:
  00016	8b 54 24 08	 mov	 edx, DWORD PTR [esp+8]
  0001a	8d 42 0c	 lea	 eax, DWORD PTR [edx+12]
  0001d	8b 4a ec	 mov	 ecx, DWORD PTR [edx-20]
  00020	33 c8		 xor	 ecx, eax
  00022	e8 00 00 00 00	 call	 @__security_check_cookie@4
  00027	b8 00 00 00 00	 mov	 eax, OFFSET __ehfuncinfo$??1ioQuest@@UAE@XZ
  0002c	e9 00 00 00 00	 jmp	 ___CxxFrameHandler3
text$x	ENDS
??1ioQuest@@UAE@XZ ENDP					; ioQuest::~ioQuest
PUBLIC	??$emplace@AAPAVQuestData@@@?$vector@PAVQuestData@@V?$allocator@PAVQuestData@@@std@@@std@@QAE?AV?$_Vector_iterator@V?$_Vector_val@PAVQuestData@@V?$allocator@PAVQuestData@@@std@@@std@@@1@V?$_Vector_const_iterator@V?$_Vector_val@PAVQuestData@@V?$allocator@PAVQuestData@@@std@@@std@@@1@AAPAVQuestData@@@Z ; std::vector<QuestData *,std::allocator<QuestData *> >::emplace<QuestData * &>
; Function compile flags: /Ogsp
; File c:\program files (x86)\microsoft visual studio 10.0\vc\include\vector
;	COMDAT ??$emplace@AAPAVQuestData@@@?$vector@PAVQuestData@@V?$allocator@PAVQuestData@@@std@@@std@@QAE?AV?$_Vector_iterator@V?$_Vector_val@PAVQuestData@@V?$allocator@PAVQuestData@@@std@@@std@@@1@V?$_Vector_const_iterator@V?$_Vector_val@PAVQuestData@@V?$allocator@PAVQuestData@@@std@@@std@@@1@AAPAVQuestData@@@Z
_TEXT	SEGMENT
___$ReturnUdt$ = 8					; size = 4
__Where$ = 12						; size = 4
$T514896 = 16						; size = 4
__Val$ = 16						; size = 4
??$emplace@AAPAVQuestData@@@?$vector@PAVQuestData@@V?$allocator@PAVQuestData@@@std@@@std@@QAE?AV?$_Vector_iterator@V?$_Vector_val@PAVQuestData@@V?$allocator@PAVQuestData@@@std@@@std@@@1@V?$_Vector_const_iterator@V?$_Vector_val@PAVQuestData@@V?$allocator@PAVQuestData@@@std@@@std@@@1@AAPAVQuestData@@@Z PROC ; std::vector<QuestData *,std::allocator<QuestData *> >::emplace<QuestData * &>, COMDAT
; _this$ = ecx

; 679  : 		iterator emplace(const_iterator _Where, _Valty&& _Val)

  00000	55		 push	 ebp
  00001	8b ec		 mov	 ebp, esp
  00003	56		 push	 esi

; 680  : 		{	// insert _Val at _Where
; 681  : 		size_type _Off = _VIPTR(_Where) - this->_Myfirst;

  00004	8b 75 0c	 mov	 esi, DWORD PTR __Where$[ebp]
  00007	57		 push	 edi

; 682  : 
; 683  :  #if _ITERATOR_DEBUG_LEVEL == 2
; 684  : 		if (size() < _Off)
; 685  : 			_DEBUG_ERROR("vector emplace iterator outside range");
; 686  :  #endif /* _ITERATOR_DEBUG_LEVEL == 2 */
; 687  : 
; 688  : 		emplace_back(_STD forward<_Valty>(_Val));

  00008	ff 75 10	 push	 DWORD PTR __Val$[ebp]
  0000b	8b f9		 mov	 edi, ecx
  0000d	2b 37		 sub	 esi, DWORD PTR [edi]
  0000f	e8 00 00 00 00	 call	 ??$emplace_back@AAPAVQuestData@@@?$vector@PAVQuestData@@V?$allocator@PAVQuestData@@@std@@@std@@QAEXAAPAVQuestData@@@Z ; std::vector<QuestData *,std::allocator<QuestData *> >::emplace_back<QuestData * &>

; 689  : 		_STD rotate(begin() + _Off, end() - 1, end());

  00014	8b 4f 04	 mov	 ecx, DWORD PTR [edi+4]
  00017	8b 07		 mov	 eax, DWORD PTR [edi]
  00019	51		 push	 ecx
  0001a	8d 51 fc	 lea	 edx, DWORD PTR [ecx-4]
  0001d	83 e6 fc	 and	 esi, -4			; fffffffcH
  00020	03 c6		 add	 eax, esi
  00022	52		 push	 edx
  00023	50		 push	 eax
  00024	8d 45 10	 lea	 eax, DWORD PTR $T514896[ebp]
  00027	50		 push	 eax
  00028	e8 00 00 00 00	 call	 ??$rotate@V?$_Vector_iterator@V?$_Vector_val@PAVQuestData@@V?$allocator@PAVQuestData@@@std@@@std@@@std@@@std@@YA?AV?$_Vector_iterator@V?$_Vector_val@PAVQuestData@@V?$allocator@PAVQuestData@@@std@@@std@@@0@V10@00@Z ; std::rotate<std::_Vector_iterator<std::_Vector_val<QuestData *,std::allocator<QuestData *> > > >

; 690  : 		return (begin() + _Off);

  0002d	8b 0f		 mov	 ecx, DWORD PTR [edi]
  0002f	8b 45 08	 mov	 eax, DWORD PTR ___$ReturnUdt$[ebp]
  00032	83 c4 10	 add	 esp, 16			; 00000010H
  00035	03 ce		 add	 ecx, esi
  00037	5f		 pop	 edi
  00038	89 08		 mov	 DWORD PTR [eax], ecx
  0003a	5e		 pop	 esi

; 691  : 		}

  0003b	5d		 pop	 ebp
  0003c	c2 0c 00	 ret	 12			; 0000000cH
??$emplace@AAPAVQuestData@@@?$vector@PAVQuestData@@V?$allocator@PAVQuestData@@@std@@@std@@QAE?AV?$_Vector_iterator@V?$_Vector_val@PAVQuestData@@V?$allocator@PAVQuestData@@@std@@@std@@@1@V?$_Vector_const_iterator@V?$_Vector_val@PAVQuestData@@V?$allocator@PAVQuestData@@@std@@@std@@@1@AAPAVQuestData@@@Z ENDP ; std::vector<QuestData *,std::allocator<QuestData *> >::emplace<QuestData * &>
_TEXT	ENDS
PUBLIC	??$emplace@AAPAVQuestCompleteData@@@?$vector@PAVQuestCompleteData@@V?$allocator@PAVQuestCompleteData@@@std@@@std@@QAE?AV?$_Vector_iterator@V?$_Vector_val@PAVQuestCompleteData@@V?$allocator@PAVQuestCompleteData@@@std@@@std@@@1@V?$_Vector_const_iterator@V?$_Vector_val@PAVQuestCompleteData@@V?$allocator@PAVQuestCompleteData@@@std@@@std@@@1@AAPAVQuestCompleteData@@@Z ; std::vector<QuestCompleteData *,std::allocator<QuestCompleteData *> >::emplace<QuestCompleteData * &>
; Function compile flags: /Ogsp
;	COMDAT ??$emplace@AAPAVQuestCompleteData@@@?$vector@PAVQuestCompleteData@@V?$allocator@PAVQuestCompleteData@@@std@@@std@@QAE?AV?$_Vector_iterator@V?$_Vector_val@PAVQuestCompleteData@@V?$allocator@PAVQuestCompleteData@@@std@@@std@@@1@V?$_Vector_const_iterator@V?$_Vector_val@PAVQuestCompleteData@@V?$allocator@PAVQuestCompleteData@@@std@@@std@@@1@AAPAVQuestCompleteData@@@Z
_TEXT	SEGMENT
___$ReturnUdt$ = 8					; size = 4
__Where$ = 12						; size = 4
$T515065 = 16						; size = 4
__Val$ = 16						; size = 4
??$emplace@AAPAVQuestCompleteData@@@?$vector@PAVQuestCompleteData@@V?$allocator@PAVQuestCompleteData@@@std@@@std@@QAE?AV?$_Vector_iterator@V?$_Vector_val@PAVQuestCompleteData@@V?$allocator@PAVQuestCompleteData@@@std@@@std@@@1@V?$_Vector_const_iterator@V?$_Vector_val@PAVQuestCompleteData@@V?$allocator@PAVQuestCompleteData@@@std@@@std@@@1@AAPAVQuestCompleteData@@@Z PROC ; std::vector<QuestCompleteData *,std::allocator<QuestCompleteData *> >::emplace<QuestCompleteData * &>, COMDAT
; _this$ = ecx

; 679  : 		iterator emplace(const_iterator _Where, _Valty&& _Val)

  00000	55		 push	 ebp
  00001	8b ec		 mov	 ebp, esp
  00003	56		 push	 esi

; 680  : 		{	// insert _Val at _Where
; 681  : 		size_type _Off = _VIPTR(_Where) - this->_Myfirst;

  00004	8b 75 0c	 mov	 esi, DWORD PTR __Where$[ebp]
  00007	57		 push	 edi

; 682  : 
; 683  :  #if _ITERATOR_DEBUG_LEVEL == 2
; 684  : 		if (size() < _Off)
; 685  : 			_DEBUG_ERROR("vector emplace iterator outside range");
; 686  :  #endif /* _ITERATOR_DEBUG_LEVEL == 2 */
; 687  : 
; 688  : 		emplace_back(_STD forward<_Valty>(_Val));

  00008	ff 75 10	 push	 DWORD PTR __Val$[ebp]
  0000b	8b f9		 mov	 edi, ecx
  0000d	2b 37		 sub	 esi, DWORD PTR [edi]
  0000f	e8 00 00 00 00	 call	 ??$emplace_back@AAPAVQuestCompleteData@@@?$vector@PAVQuestCompleteData@@V?$allocator@PAVQuestCompleteData@@@std@@@std@@QAEXAAPAVQuestCompleteData@@@Z ; std::vector<QuestCompleteData *,std::allocator<QuestCompleteData *> >::emplace_back<QuestCompleteData * &>

; 689  : 		_STD rotate(begin() + _Off, end() - 1, end());

  00014	8b 4f 04	 mov	 ecx, DWORD PTR [edi+4]
  00017	8b 07		 mov	 eax, DWORD PTR [edi]
  00019	51		 push	 ecx
  0001a	8d 51 fc	 lea	 edx, DWORD PTR [ecx-4]
  0001d	83 e6 fc	 and	 esi, -4			; fffffffcH
  00020	03 c6		 add	 eax, esi
  00022	52		 push	 edx
  00023	50		 push	 eax
  00024	8d 45 10	 lea	 eax, DWORD PTR $T515065[ebp]
  00027	50		 push	 eax
  00028	e8 00 00 00 00	 call	 ??$rotate@V?$_Vector_iterator@V?$_Vector_val@PAVQuestCompleteData@@V?$allocator@PAVQuestCompleteData@@@std@@@std@@@std@@@std@@YA?AV?$_Vector_iterator@V?$_Vector_val@PAVQuestCompleteData@@V?$allocator@PAVQuestCompleteData@@@std@@@std@@@0@V10@00@Z ; std::rotate<std::_Vector_iterator<std::_Vector_val<QuestCompleteData *,std::allocator<QuestCompleteData *> > > >

; 690  : 		return (begin() + _Off);

  0002d	8b 0f		 mov	 ecx, DWORD PTR [edi]
  0002f	8b 45 08	 mov	 eax, DWORD PTR ___$ReturnUdt$[ebp]
  00032	83 c4 10	 add	 esp, 16			; 00000010H
  00035	03 ce		 add	 ecx, esi
  00037	5f		 pop	 edi
  00038	89 08		 mov	 DWORD PTR [eax], ecx
  0003a	5e		 pop	 esi

; 691  : 		}

  0003b	5d		 pop	 ebp
  0003c	c2 0c 00	 ret	 12			; 0000000cH
??$emplace@AAPAVQuestCompleteData@@@?$vector@PAVQuestCompleteData@@V?$allocator@PAVQuestCompleteData@@@std@@@std@@QAE?AV?$_Vector_iterator@V?$_Vector_val@PAVQuestCompleteData@@V?$allocator@PAVQuestCompleteData@@@std@@@std@@@1@V?$_Vector_const_iterator@V?$_Vector_val@PAVQuestCompleteData@@V?$allocator@PAVQuestCompleteData@@@std@@@std@@@1@AAPAVQuestCompleteData@@@Z ENDP ; std::vector<QuestCompleteData *,std::allocator<QuestCompleteData *> >::emplace<QuestCompleteData * &>
_TEXT	ENDS
PUBLIC	??$_Sort_heap@PAPAVQuestData@@VQuestDataSort@@@std@@YAXPAPAVQuestData@@0VQuestDataSort@@@Z ; std::_Sort_heap<QuestData * *,QuestDataSort>
; Function compile flags: /Ogsp
; File c:\program files (x86)\microsoft visual studio 10.0\vc\include\algorithm
;	COMDAT ??$_Sort_heap@PAPAVQuestData@@VQuestDataSort@@@std@@YAXPAPAVQuestData@@0VQuestDataSort@@@Z
_TEXT	SEGMENT
__First$ = 8						; size = 4
__Last$ = 12						; size = 4
__Pred$ = 16						; size = 1
??$_Sort_heap@PAPAVQuestData@@VQuestDataSort@@@std@@YAXPAPAVQuestData@@0VQuestDataSort@@@Z PROC ; std::_Sort_heap<QuestData * *,QuestDataSort>, COMDAT

; 2700 : 	{	// order heap by repeatedly popping, using _Pred

  00000	55		 push	 ebp
  00001	8b ec		 mov	 ebp, esp

; 2701 : 	for (; 1 < _Last - _First; --_Last)

  00003	8b 45 0c	 mov	 eax, DWORD PTR __Last$[ebp]
  00006	2b 45 08	 sub	 eax, DWORD PTR __First$[ebp]
  00009	8b c8		 mov	 ecx, eax
  0000b	83 e1 fc	 and	 ecx, -4			; fffffffcH
  0000e	83 f9 04	 cmp	 ecx, 4
  00011	7e 28		 jle	 SHORT $LN1@Sort_heap
  00013	57		 push	 edi
  00014	8b f8		 mov	 edi, eax
$LL3@Sort_heap:

; 2702 : 		_Pop_heap(_First, _Last, _Pred);

  00016	6a 00		 push	 0
  00018	ff 75 10	 push	 DWORD PTR __Pred$[ebp]
  0001b	ff 75 0c	 push	 DWORD PTR __Last$[ebp]
  0001e	ff 75 08	 push	 DWORD PTR __First$[ebp]
  00021	e8 00 00 00 00	 call	 ??$_Pop_heap_0@PAPAVQuestData@@PAV1@VQuestDataSort@@@std@@YAXPAPAVQuestData@@0VQuestDataSort@@0@Z ; std::_Pop_heap_0<QuestData * *,QuestData *,QuestDataSort>
  00026	83 6d 0c 04	 sub	 DWORD PTR __Last$[ebp], 4
  0002a	83 ef 04	 sub	 edi, 4
  0002d	8b c7		 mov	 eax, edi
  0002f	83 e0 fc	 and	 eax, -4			; fffffffcH
  00032	83 c4 10	 add	 esp, 16			; 00000010H
  00035	83 f8 04	 cmp	 eax, 4
  00038	7f dc		 jg	 SHORT $LL3@Sort_heap
  0003a	5f		 pop	 edi
$LN1@Sort_heap:

; 2703 : 	}

  0003b	5d		 pop	 ebp
  0003c	c3		 ret	 0
??$_Sort_heap@PAPAVQuestData@@VQuestDataSort@@@std@@YAXPAPAVQuestData@@0VQuestDataSort@@@Z ENDP ; std::_Sort_heap<QuestData * *,QuestDataSort>
_TEXT	ENDS
PUBLIC	??$_Sort_heap@PAPAVQuestCompleteData@@VQuestCompleteDataSort@@@std@@YAXPAPAVQuestCompleteData@@0VQuestCompleteDataSort@@@Z ; std::_Sort_heap<QuestCompleteData * *,QuestCompleteDataSort>
; Function compile flags: /Ogsp
;	COMDAT ??$_Sort_heap@PAPAVQuestCompleteData@@VQuestCompleteDataSort@@@std@@YAXPAPAVQuestCompleteData@@0VQuestCompleteDataSort@@@Z
_TEXT	SEGMENT
__First$ = 8						; size = 4
__Last$ = 12						; size = 4
__Pred$ = 16						; size = 1
??$_Sort_heap@PAPAVQuestCompleteData@@VQuestCompleteDataSort@@@std@@YAXPAPAVQuestCompleteData@@0VQuestCompleteDataSort@@@Z PROC ; std::_Sort_heap<QuestCompleteData * *,QuestCompleteDataSort>, COMDAT

; 2700 : 	{	// order heap by repeatedly popping, using _Pred

  00000	55		 push	 ebp
  00001	8b ec		 mov	 ebp, esp

; 2701 : 	for (; 1 < _Last - _First; --_Last)

  00003	8b 45 0c	 mov	 eax, DWORD PTR __Last$[ebp]
  00006	2b 45 08	 sub	 eax, DWORD PTR __First$[ebp]
  00009	8b c8		 mov	 ecx, eax
  0000b	83 e1 fc	 and	 ecx, -4			; fffffffcH
  0000e	83 f9 04	 cmp	 ecx, 4
  00011	7e 28		 jle	 SHORT $LN1@Sort_heap@2
  00013	57		 push	 edi
  00014	8b f8		 mov	 edi, eax
$LL3@Sort_heap@2:

; 2702 : 		_Pop_heap(_First, _Last, _Pred);

  00016	6a 00		 push	 0
  00018	ff 75 10	 push	 DWORD PTR __Pred$[ebp]
  0001b	ff 75 0c	 push	 DWORD PTR __Last$[ebp]
  0001e	ff 75 08	 push	 DWORD PTR __First$[ebp]
  00021	e8 00 00 00 00	 call	 ??$_Pop_heap_0@PAPAVQuestCompleteData@@PAV1@VQuestCompleteDataSort@@@std@@YAXPAPAVQuestCompleteData@@0VQuestCompleteDataSort@@0@Z ; std::_Pop_heap_0<QuestCompleteData * *,QuestCompleteData *,QuestCompleteDataSort>
  00026	83 6d 0c 04	 sub	 DWORD PTR __Last$[ebp], 4
  0002a	83 ef 04	 sub	 edi, 4
  0002d	8b c7		 mov	 eax, edi
  0002f	83 e0 fc	 and	 eax, -4			; fffffffcH
  00032	83 c4 10	 add	 esp, 16			; 00000010H
  00035	83 f8 04	 cmp	 eax, 4
  00038	7f dc		 jg	 SHORT $LL3@Sort_heap@2
  0003a	5f		 pop	 edi
$LN1@Sort_heap@2:

; 2703 : 	}

  0003b	5d		 pop	 ebp
  0003c	c3		 ret	 0
??$_Sort_heap@PAPAVQuestCompleteData@@VQuestCompleteDataSort@@@std@@YAXPAPAVQuestCompleteData@@0VQuestCompleteDataSort@@@Z ENDP ; std::_Sort_heap<QuestCompleteData * *,QuestCompleteDataSort>
; Function compile flags: /Ogsp
_TEXT	ENDS
;	COMDAT ??_GioQuest@@UAEPAXI@Z
_TEXT	SEGMENT
___flags$ = 8						; size = 4
??_GioQuest@@UAEPAXI@Z PROC				; ioQuest::`scalar deleting destructor', COMDAT
; _this$ = ecx
  00000	55		 push	 ebp
  00001	8b ec		 mov	 ebp, esp
  00003	56		 push	 esi
  00004	8b f1		 mov	 esi, ecx
  00006	e8 00 00 00 00	 call	 ??1ioQuest@@UAE@XZ	; ioQuest::~ioQuest
  0000b	f6 45 08 01	 test	 BYTE PTR ___flags$[ebp], 1
  0000f	74 07		 je	 SHORT $LN1@scalar@6
  00011	56		 push	 esi
  00012	e8 00 00 00 00	 call	 ??3@YAXPAX@Z		; operator delete
  00017	59		 pop	 ecx
$LN1@scalar@6:
  00018	8b c6		 mov	 eax, esi
  0001a	5e		 pop	 esi
  0001b	5d		 pop	 ebp
  0001c	c2 04 00	 ret	 4
??_GioQuest@@UAEPAXI@Z ENDP				; ioQuest::`scalar deleting destructor'
_TEXT	ENDS
PUBLIC	??$insert@AAPAVQuestData@@@?$vector@PAVQuestData@@V?$allocator@PAVQuestData@@@std@@@std@@QAE?AV?$_Vector_iterator@V?$_Vector_val@PAVQuestData@@V?$allocator@PAVQuestData@@@std@@@std@@@1@V?$_Vector_const_iterator@V?$_Vector_val@PAVQuestData@@V?$allocator@PAVQuestData@@@std@@@std@@@1@AAPAVQuestData@@@Z ; std::vector<QuestData *,std::allocator<QuestData *> >::insert<QuestData * &>
; Function compile flags: /Ogsp
; File c:\program files (x86)\microsoft visual studio 10.0\vc\include\vector
;	COMDAT ??$insert@AAPAVQuestData@@@?$vector@PAVQuestData@@V?$allocator@PAVQuestData@@@std@@@std@@QAE?AV?$_Vector_iterator@V?$_Vector_val@PAVQuestData@@V?$allocator@PAVQuestData@@@std@@@std@@@1@V?$_Vector_const_iterator@V?$_Vector_val@PAVQuestData@@V?$allocator@PAVQuestData@@@std@@@std@@@1@AAPAVQuestData@@@Z
_TEXT	SEGMENT
___$ReturnUdt$ = 8					; size = 4
__Where$ = 12						; size = 4
__Val$ = 16						; size = 4
??$insert@AAPAVQuestData@@@?$vector@PAVQuestData@@V?$allocator@PAVQuestData@@@std@@@std@@QAE?AV?$_Vector_iterator@V?$_Vector_val@PAVQuestData@@V?$allocator@PAVQuestData@@@std@@@std@@@1@V?$_Vector_const_iterator@V?$_Vector_val@PAVQuestData@@V?$allocator@PAVQuestData@@@std@@@std@@@1@AAPAVQuestData@@@Z PROC ; std::vector<QuestData *,std::allocator<QuestData *> >::insert<QuestData * &>, COMDAT
; _this$ = ecx

; 673  : 		iterator insert(const_iterator _Where, _Valty&& _Val)

  00000	55		 push	 ebp
  00001	8b ec		 mov	 ebp, esp

; 674  : 		{	// insert _Val at _Where
; 675  : 		return (emplace(_Where, _STD forward<_Valty>(_Val)));

  00003	ff 75 10	 push	 DWORD PTR __Val$[ebp]
  00006	ff 75 0c	 push	 DWORD PTR __Where$[ebp]
  00009	ff 75 08	 push	 DWORD PTR ___$ReturnUdt$[ebp]
  0000c	e8 00 00 00 00	 call	 ??$emplace@AAPAVQuestData@@@?$vector@PAVQuestData@@V?$allocator@PAVQuestData@@@std@@@std@@QAE?AV?$_Vector_iterator@V?$_Vector_val@PAVQuestData@@V?$allocator@PAVQuestData@@@std@@@std@@@1@V?$_Vector_const_iterator@V?$_Vector_val@PAVQuestData@@V?$allocator@PAVQuestData@@@std@@@std@@@1@AAPAVQuestData@@@Z ; std::vector<QuestData *,std::allocator<QuestData *> >::emplace<QuestData * &>
  00011	8b 45 08	 mov	 eax, DWORD PTR ___$ReturnUdt$[ebp]

; 676  : 		}

  00014	5d		 pop	 ebp
  00015	c2 0c 00	 ret	 12			; 0000000cH
??$insert@AAPAVQuestData@@@?$vector@PAVQuestData@@V?$allocator@PAVQuestData@@@std@@@std@@QAE?AV?$_Vector_iterator@V?$_Vector_val@PAVQuestData@@V?$allocator@PAVQuestData@@@std@@@std@@@1@V?$_Vector_const_iterator@V?$_Vector_val@PAVQuestData@@V?$allocator@PAVQuestData@@@std@@@std@@@1@AAPAVQuestData@@@Z ENDP ; std::vector<QuestData *,std::allocator<QuestData *> >::insert<QuestData * &>
_TEXT	ENDS
PUBLIC	??$insert@AAPAVQuestCompleteData@@@?$vector@PAVQuestCompleteData@@V?$allocator@PAVQuestCompleteData@@@std@@@std@@QAE?AV?$_Vector_iterator@V?$_Vector_val@PAVQuestCompleteData@@V?$allocator@PAVQuestCompleteData@@@std@@@std@@@1@V?$_Vector_const_iterator@V?$_Vector_val@PAVQuestCompleteData@@V?$allocator@PAVQuestCompleteData@@@std@@@std@@@1@AAPAVQuestCompleteData@@@Z ; std::vector<QuestCompleteData *,std::allocator<QuestCompleteData *> >::insert<QuestCompleteData * &>
; Function compile flags: /Ogsp
;	COMDAT ??$insert@AAPAVQuestCompleteData@@@?$vector@PAVQuestCompleteData@@V?$allocator@PAVQuestCompleteData@@@std@@@std@@QAE?AV?$_Vector_iterator@V?$_Vector_val@PAVQuestCompleteData@@V?$allocator@PAVQuestCompleteData@@@std@@@std@@@1@V?$_Vector_const_iterator@V?$_Vector_val@PAVQuestCompleteData@@V?$allocator@PAVQuestCompleteData@@@std@@@std@@@1@AAPAVQuestCompleteData@@@Z
_TEXT	SEGMENT
___$ReturnUdt$ = 8					; size = 4
__Where$ = 12						; size = 4
__Val$ = 16						; size = 4
??$insert@AAPAVQuestCompleteData@@@?$vector@PAVQuestCompleteData@@V?$allocator@PAVQuestCompleteData@@@std@@@std@@QAE?AV?$_Vector_iterator@V?$_Vector_val@PAVQuestCompleteData@@V?$allocator@PAVQuestCompleteData@@@std@@@std@@@1@V?$_Vector_const_iterator@V?$_Vector_val@PAVQuestCompleteData@@V?$allocator@PAVQuestCompleteData@@@std@@@std@@@1@AAPAVQuestCompleteData@@@Z PROC ; std::vector<QuestCompleteData *,std::allocator<QuestCompleteData *> >::insert<QuestCompleteData * &>, COMDAT
; _this$ = ecx

; 673  : 		iterator insert(const_iterator _Where, _Valty&& _Val)

  00000	55		 push	 ebp
  00001	8b ec		 mov	 ebp, esp

; 674  : 		{	// insert _Val at _Where
; 675  : 		return (emplace(_Where, _STD forward<_Valty>(_Val)));

  00003	ff 75 10	 push	 DWORD PTR __Val$[ebp]
  00006	ff 75 0c	 push	 DWORD PTR __Where$[ebp]
  00009	ff 75 08	 push	 DWORD PTR ___$ReturnUdt$[ebp]
  0000c	e8 00 00 00 00	 call	 ??$emplace@AAPAVQuestCompleteData@@@?$vector@PAVQuestCompleteData@@V?$allocator@PAVQuestCompleteData@@@std@@@std@@QAE?AV?$_Vector_iterator@V?$_Vector_val@PAVQuestCompleteData@@V?$allocator@PAVQuestCompleteData@@@std@@@std@@@1@V?$_Vector_const_iterator@V?$_Vector_val@PAVQuestCompleteData@@V?$allocator@PAVQuestCompleteData@@@std@@@std@@@1@AAPAVQuestCompleteData@@@Z ; std::vector<QuestCompleteData *,std::allocator<QuestCompleteData *> >::emplace<QuestCompleteData * &>
  00011	8b 45 08	 mov	 eax, DWORD PTR ___$ReturnUdt$[ebp]

; 676  : 		}

  00014	5d		 pop	 ebp
  00015	c2 0c 00	 ret	 12			; 0000000cH
??$insert@AAPAVQuestCompleteData@@@?$vector@PAVQuestCompleteData@@V?$allocator@PAVQuestCompleteData@@@std@@@std@@QAE?AV?$_Vector_iterator@V?$_Vector_val@PAVQuestCompleteData@@V?$allocator@PAVQuestCompleteData@@@std@@@std@@@1@V?$_Vector_const_iterator@V?$_Vector_val@PAVQuestCompleteData@@V?$allocator@PAVQuestCompleteData@@@std@@@std@@@1@AAPAVQuestCompleteData@@@Z ENDP ; std::vector<QuestCompleteData *,std::allocator<QuestCompleteData *> >::insert<QuestCompleteData * &>
_TEXT	ENDS
PUBLIC	??$sort_heap@PAPAVQuestData@@VQuestDataSort@@@std@@YAXPAPAVQuestData@@0VQuestDataSort@@@Z ; std::sort_heap<QuestData * *,QuestDataSort>
; Function compile flags: /Ogsp
; File c:\program files (x86)\microsoft visual studio 10.0\vc\include\algorithm
;	COMDAT ??$sort_heap@PAPAVQuestData@@VQuestDataSort@@@std@@YAXPAPAVQuestData@@0VQuestDataSort@@@Z
_TEXT	SEGMENT
__First$ = 8						; size = 4
__Last$ = 12						; size = 4
__Pred$ = 16						; size = 1
??$sort_heap@PAPAVQuestData@@VQuestDataSort@@@std@@YAXPAPAVQuestData@@0VQuestDataSort@@@Z PROC ; std::sort_heap<QuestData * *,QuestDataSort>, COMDAT

; 2708 : 	{	// order heap by repeatedly popping, using _Pred

  00000	55		 push	 ebp
  00001	8b ec		 mov	 ebp, esp

; 2709 : 	_DEBUG_RANGE(_First, _Last);
; 2710 : 	_DEBUG_POINTER(_Pred);
; 2711 : 	_DEBUG_HEAP_PRED(_First, _Last, _Pred);
; 2712 : 	_Sort_heap(_Unchecked(_First), _Unchecked(_Last), _Pred);

  00003	ff 75 10	 push	 DWORD PTR __Pred$[ebp]
  00006	ff 75 0c	 push	 DWORD PTR __Last$[ebp]
  00009	ff 75 08	 push	 DWORD PTR __First$[ebp]
  0000c	e8 00 00 00 00	 call	 ??$_Sort_heap@PAPAVQuestData@@VQuestDataSort@@@std@@YAXPAPAVQuestData@@0VQuestDataSort@@@Z ; std::_Sort_heap<QuestData * *,QuestDataSort>
  00011	83 c4 0c	 add	 esp, 12			; 0000000cH

; 2713 : 	}

  00014	5d		 pop	 ebp
  00015	c3		 ret	 0
??$sort_heap@PAPAVQuestData@@VQuestDataSort@@@std@@YAXPAPAVQuestData@@0VQuestDataSort@@@Z ENDP ; std::sort_heap<QuestData * *,QuestDataSort>
_TEXT	ENDS
PUBLIC	??$sort_heap@PAPAVQuestCompleteData@@VQuestCompleteDataSort@@@std@@YAXPAPAVQuestCompleteData@@0VQuestCompleteDataSort@@@Z ; std::sort_heap<QuestCompleteData * *,QuestCompleteDataSort>
; Function compile flags: /Ogsp
;	COMDAT ??$sort_heap@PAPAVQuestCompleteData@@VQuestCompleteDataSort@@@std@@YAXPAPAVQuestCompleteData@@0VQuestCompleteDataSort@@@Z
_TEXT	SEGMENT
__First$ = 8						; size = 4
__Last$ = 12						; size = 4
__Pred$ = 16						; size = 1
??$sort_heap@PAPAVQuestCompleteData@@VQuestCompleteDataSort@@@std@@YAXPAPAVQuestCompleteData@@0VQuestCompleteDataSort@@@Z PROC ; std::sort_heap<QuestCompleteData * *,QuestCompleteDataSort>, COMDAT

; 2708 : 	{	// order heap by repeatedly popping, using _Pred

  00000	55		 push	 ebp
  00001	8b ec		 mov	 ebp, esp

; 2709 : 	_DEBUG_RANGE(_First, _Last);
; 2710 : 	_DEBUG_POINTER(_Pred);
; 2711 : 	_DEBUG_HEAP_PRED(_First, _Last, _Pred);
; 2712 : 	_Sort_heap(_Unchecked(_First), _Unchecked(_Last), _Pred);

  00003	ff 75 10	 push	 DWORD PTR __Pred$[ebp]
  00006	ff 75 0c	 push	 DWORD PTR __Last$[ebp]
  00009	ff 75 08	 push	 DWORD PTR __First$[ebp]
  0000c	e8 00 00 00 00	 call	 ??$_Sort_heap@PAPAVQuestCompleteData@@VQuestCompleteDataSort@@@std@@YAXPAPAVQuestCompleteData@@0VQuestCompleteDataSort@@@Z ; std::_Sort_heap<QuestCompleteData * *,QuestCompleteDataSort>
  00011	83 c4 0c	 add	 esp, 12			; 0000000cH

; 2713 : 	}

  00014	5d		 pop	 ebp
  00015	c3		 ret	 0
??$sort_heap@PAPAVQuestCompleteData@@VQuestCompleteDataSort@@@std@@YAXPAPAVQuestCompleteData@@0VQuestCompleteDataSort@@@Z ENDP ; std::sort_heap<QuestCompleteData * *,QuestCompleteDataSort>
_TEXT	ENDS
PUBLIC	??$_Sort@PAPAVQuestData@@HVQuestDataSort@@@std@@YAXPAPAVQuestData@@0HVQuestDataSort@@@Z ; std::_Sort<QuestData * *,int,QuestDataSort>
; Function compile flags: /Ogsp
;	COMDAT ??$_Sort@PAPAVQuestData@@HVQuestDataSort@@@std@@YAXPAPAVQuestData@@0HVQuestDataSort@@@Z
_TEXT	SEGMENT
__Mid$506950 = -8					; size = 8
__First$ = 8						; size = 4
__Last$ = 12						; size = 4
__Ideal$ = 16						; size = 4
__Pred$ = 20						; size = 1
??$_Sort@PAPAVQuestData@@HVQuestDataSort@@@std@@YAXPAPAVQuestData@@0HVQuestDataSort@@@Z PROC ; std::_Sort<QuestData * *,int,QuestDataSort>, COMDAT

; 3771 : 	{	// order [_First, _Last), using _Pred

  00000	55		 push	 ebp
  00001	8b ec		 mov	 ebp, esp
  00003	51		 push	 ecx
  00004	51		 push	 ecx
  00005	53		 push	 ebx

; 3772 : 	_Diff _Count;
; 3773 : 	for (; _ISORT_MAX < (_Count = _Last - _First) && 0 < _Ideal; )

  00006	8b 5d 08	 mov	 ebx, DWORD PTR __First$[ebp]
  00009	57		 push	 edi
  0000a	8b 7d 0c	 mov	 edi, DWORD PTR __Last$[ebp]
  0000d	8b c7		 mov	 eax, edi
  0000f	2b c3		 sub	 eax, ebx
  00011	c1 f8 02	 sar	 eax, 2
  00014	83 f8 20	 cmp	 eax, 32			; 00000020H
  00017	0f 8e 89 00 00
	00		 jle	 $LN22@Sort
  0001d	56		 push	 esi
  0001e	8b 75 10	 mov	 esi, DWORD PTR __Ideal$[ebp]
$LL7@Sort:
  00021	85 f6		 test	 esi, esi
  00023	7e 62		 jle	 SHORT $LN6@Sort

; 3774 : 		{	// divide and conquer by quicksort
; 3775 : 		_STD pair<_RanIt, _RanIt> _Mid =
; 3776 : 			_Unguarded_partition(_First, _Last, _Pred);

  00025	ff 75 14	 push	 DWORD PTR __Pred$[ebp]
  00028	8d 45 f8	 lea	 eax, DWORD PTR __Mid$506950[ebp]
  0002b	57		 push	 edi
  0002c	53		 push	 ebx
  0002d	50		 push	 eax
  0002e	e8 00 00 00 00	 call	 ??$_Unguarded_partition@PAPAVQuestData@@VQuestDataSort@@@std@@YA?AU?$pair@PAPAVQuestData@@PAPAV1@@0@PAPAVQuestData@@0VQuestDataSort@@@Z ; std::_Unguarded_partition<QuestData * *,QuestDataSort>

; 3777 : 		_Ideal /= 2, _Ideal += _Ideal / 2;	// allow 1.5 log2(N) divisions
; 3778 : 
; 3779 : 		if (_Mid.first - _First < _Last - _Mid.second)

  00033	8b 4d f8	 mov	 ecx, DWORD PTR __Mid$506950[ebp]
  00036	8b c6		 mov	 eax, esi
  00038	99		 cdq
  00039	2b c2		 sub	 eax, edx
  0003b	d1 f8		 sar	 eax, 1
  0003d	8b f0		 mov	 esi, eax
  0003f	99		 cdq
  00040	2b c2		 sub	 eax, edx
  00042	d1 f8		 sar	 eax, 1
  00044	03 f0		 add	 esi, eax
  00046	8b c7		 mov	 eax, edi
  00048	2b 45 fc	 sub	 eax, DWORD PTR __Mid$506950[ebp+4]
  0004b	83 c4 10	 add	 esp, 16			; 00000010H

; 3780 : 			{	// loop on second half
; 3781 : 			_Sort(_First, _Mid.first, _Ideal, _Pred);

  0004e	ff 75 14	 push	 DWORD PTR __Pred$[ebp]
  00051	2b cb		 sub	 ecx, ebx
  00053	83 e0 fc	 and	 eax, -4			; fffffffcH
  00056	83 e1 fc	 and	 ecx, -4			; fffffffcH
  00059	56		 push	 esi
  0005a	3b c8		 cmp	 ecx, eax
  0005c	7d 0e		 jge	 SHORT $LN5@Sort
  0005e	ff 75 f8	 push	 DWORD PTR __Mid$506950[ebp]
  00061	53		 push	 ebx
  00062	e8 00 00 00 00	 call	 ??$_Sort@PAPAVQuestData@@HVQuestDataSort@@@std@@YAXPAPAVQuestData@@0HVQuestDataSort@@@Z ; std::_Sort<QuestData * *,int,QuestDataSort>

; 3782 : 			_First = _Mid.second;

  00067	8b 5d fc	 mov	 ebx, DWORD PTR __Mid$506950[ebp+4]

; 3783 : 			}
; 3784 : 		else

  0006a	eb 0c		 jmp	 SHORT $LN23@Sort
$LN5@Sort:

; 3785 : 			{	// loop on first half
; 3786 : 			_Sort(_Mid.second, _Last, _Ideal, _Pred);

  0006c	57		 push	 edi
  0006d	ff 75 fc	 push	 DWORD PTR __Mid$506950[ebp+4]
  00070	e8 00 00 00 00	 call	 ??$_Sort@PAPAVQuestData@@HVQuestDataSort@@@std@@YAXPAPAVQuestData@@0HVQuestDataSort@@@Z ; std::_Sort<QuestData * *,int,QuestDataSort>

; 3787 : 			_Last = _Mid.first;

  00075	8b 7d f8	 mov	 edi, DWORD PTR __Mid$506950[ebp]
$LN23@Sort:

; 3772 : 	_Diff _Count;
; 3773 : 	for (; _ISORT_MAX < (_Count = _Last - _First) && 0 < _Ideal; )

  00078	8b c7		 mov	 eax, edi
  0007a	2b c3		 sub	 eax, ebx
  0007c	c1 f8 02	 sar	 eax, 2

; 3785 : 			{	// loop on first half
; 3786 : 			_Sort(_Mid.second, _Last, _Ideal, _Pred);

  0007f	83 c4 10	 add	 esp, 16			; 00000010H
  00082	83 f8 20	 cmp	 eax, 32			; 00000020H
  00085	7f 9a		 jg	 SHORT $LL7@Sort
$LN6@Sort:
  00087	5e		 pop	 esi

; 3788 : 			}
; 3789 : 		}
; 3790 : 
; 3791 : 	if (_ISORT_MAX < _Count)

  00088	83 f8 20	 cmp	 eax, 32			; 00000020H
  0008b	7e 19		 jle	 SHORT $LN22@Sort

; 3792 : 		{	// heap sort if too many divisions
; 3793 : 		_STD make_heap(_First, _Last, _Pred);

  0008d	ff 75 14	 push	 DWORD PTR __Pred$[ebp]
  00090	57		 push	 edi
  00091	53		 push	 ebx
  00092	e8 00 00 00 00	 call	 ??$make_heap@PAPAVQuestData@@VQuestDataSort@@@std@@YAXPAPAVQuestData@@0VQuestDataSort@@@Z ; std::make_heap<QuestData * *,QuestDataSort>

; 3794 : 		_STD sort_heap(_First, _Last, _Pred);

  00097	ff 75 14	 push	 DWORD PTR __Pred$[ebp]
  0009a	57		 push	 edi
  0009b	53		 push	 ebx
  0009c	e8 00 00 00 00	 call	 ??$_Sort_heap@PAPAVQuestData@@VQuestDataSort@@@std@@YAXPAPAVQuestData@@0VQuestDataSort@@@Z ; std::_Sort_heap<QuestData * *,QuestDataSort>
  000a1	83 c4 18	 add	 esp, 24			; 00000018H
  000a4	eb 14		 jmp	 SHORT $LN16@Sort
$LN22@Sort:

; 3795 : 		}
; 3796 : 	else if (1 < _Count)

  000a6	83 f8 01	 cmp	 eax, 1
  000a9	7e 0f		 jle	 SHORT $LN16@Sort

; 3797 : 		_Insertion_sort(_First, _Last, _Pred);	// small

  000ab	6a 00		 push	 0
  000ad	ff 75 14	 push	 DWORD PTR __Pred$[ebp]
  000b0	57		 push	 edi
  000b1	53		 push	 ebx
  000b2	e8 00 00 00 00	 call	 ??$_Insertion_sort1@PAPAVQuestData@@VQuestDataSort@@PAV1@@std@@YAXPAPAVQuestData@@0VQuestDataSort@@0@Z ; std::_Insertion_sort1<QuestData * *,QuestDataSort,QuestData *>
  000b7	83 c4 10	 add	 esp, 16			; 00000010H
$LN16@Sort:
  000ba	5f		 pop	 edi
  000bb	5b		 pop	 ebx

; 3798 : 	}

  000bc	c9		 leave
  000bd	c3		 ret	 0
??$_Sort@PAPAVQuestData@@HVQuestDataSort@@@std@@YAXPAPAVQuestData@@0HVQuestDataSort@@@Z ENDP ; std::_Sort<QuestData * *,int,QuestDataSort>
_TEXT	ENDS
PUBLIC	??$_Sort@PAPAVQuestCompleteData@@HVQuestCompleteDataSort@@@std@@YAXPAPAVQuestCompleteData@@0HVQuestCompleteDataSort@@@Z ; std::_Sort<QuestCompleteData * *,int,QuestCompleteDataSort>
; Function compile flags: /Ogsp
;	COMDAT ??$_Sort@PAPAVQuestCompleteData@@HVQuestCompleteDataSort@@@std@@YAXPAPAVQuestCompleteData@@0HVQuestCompleteDataSort@@@Z
_TEXT	SEGMENT
__Mid$507166 = -8					; size = 8
__First$ = 8						; size = 4
__Last$ = 12						; size = 4
__Ideal$ = 16						; size = 4
__Pred$ = 20						; size = 1
??$_Sort@PAPAVQuestCompleteData@@HVQuestCompleteDataSort@@@std@@YAXPAPAVQuestCompleteData@@0HVQuestCompleteDataSort@@@Z PROC ; std::_Sort<QuestCompleteData * *,int,QuestCompleteDataSort>, COMDAT

; 3771 : 	{	// order [_First, _Last), using _Pred

  00000	55		 push	 ebp
  00001	8b ec		 mov	 ebp, esp
  00003	51		 push	 ecx
  00004	51		 push	 ecx
  00005	53		 push	 ebx

; 3772 : 	_Diff _Count;
; 3773 : 	for (; _ISORT_MAX < (_Count = _Last - _First) && 0 < _Ideal; )

  00006	8b 5d 08	 mov	 ebx, DWORD PTR __First$[ebp]
  00009	57		 push	 edi
  0000a	8b 7d 0c	 mov	 edi, DWORD PTR __Last$[ebp]
  0000d	8b c7		 mov	 eax, edi
  0000f	2b c3		 sub	 eax, ebx
  00011	c1 f8 02	 sar	 eax, 2
  00014	83 f8 20	 cmp	 eax, 32			; 00000020H
  00017	0f 8e 89 00 00
	00		 jle	 $LN22@Sort@2
  0001d	56		 push	 esi
  0001e	8b 75 10	 mov	 esi, DWORD PTR __Ideal$[ebp]
$LL7@Sort@2:
  00021	85 f6		 test	 esi, esi
  00023	7e 62		 jle	 SHORT $LN6@Sort@2

; 3774 : 		{	// divide and conquer by quicksort
; 3775 : 		_STD pair<_RanIt, _RanIt> _Mid =
; 3776 : 			_Unguarded_partition(_First, _Last, _Pred);

  00025	ff 75 14	 push	 DWORD PTR __Pred$[ebp]
  00028	8d 45 f8	 lea	 eax, DWORD PTR __Mid$507166[ebp]
  0002b	57		 push	 edi
  0002c	53		 push	 ebx
  0002d	50		 push	 eax
  0002e	e8 00 00 00 00	 call	 ??$_Unguarded_partition@PAPAVQuestCompleteData@@VQuestCompleteDataSort@@@std@@YA?AU?$pair@PAPAVQuestCompleteData@@PAPAV1@@0@PAPAVQuestCompleteData@@0VQuestCompleteDataSort@@@Z ; std::_Unguarded_partition<QuestCompleteData * *,QuestCompleteDataSort>

; 3777 : 		_Ideal /= 2, _Ideal += _Ideal / 2;	// allow 1.5 log2(N) divisions
; 3778 : 
; 3779 : 		if (_Mid.first - _First < _Last - _Mid.second)

  00033	8b 4d f8	 mov	 ecx, DWORD PTR __Mid$507166[ebp]
  00036	8b c6		 mov	 eax, esi
  00038	99		 cdq
  00039	2b c2		 sub	 eax, edx
  0003b	d1 f8		 sar	 eax, 1
  0003d	8b f0		 mov	 esi, eax
  0003f	99		 cdq
  00040	2b c2		 sub	 eax, edx
  00042	d1 f8		 sar	 eax, 1
  00044	03 f0		 add	 esi, eax
  00046	8b c7		 mov	 eax, edi
  00048	2b 45 fc	 sub	 eax, DWORD PTR __Mid$507166[ebp+4]
  0004b	83 c4 10	 add	 esp, 16			; 00000010H

; 3780 : 			{	// loop on second half
; 3781 : 			_Sort(_First, _Mid.first, _Ideal, _Pred);

  0004e	ff 75 14	 push	 DWORD PTR __Pred$[ebp]
  00051	2b cb		 sub	 ecx, ebx
  00053	83 e0 fc	 and	 eax, -4			; fffffffcH
  00056	83 e1 fc	 and	 ecx, -4			; fffffffcH
  00059	56		 push	 esi
  0005a	3b c8		 cmp	 ecx, eax
  0005c	7d 0e		 jge	 SHORT $LN5@Sort@2
  0005e	ff 75 f8	 push	 DWORD PTR __Mid$507166[ebp]
  00061	53		 push	 ebx
  00062	e8 00 00 00 00	 call	 ??$_Sort@PAPAVQuestCompleteData@@HVQuestCompleteDataSort@@@std@@YAXPAPAVQuestCompleteData@@0HVQuestCompleteDataSort@@@Z ; std::_Sort<QuestCompleteData * *,int,QuestCompleteDataSort>

; 3782 : 			_First = _Mid.second;

  00067	8b 5d fc	 mov	 ebx, DWORD PTR __Mid$507166[ebp+4]

; 3783 : 			}
; 3784 : 		else

  0006a	eb 0c		 jmp	 SHORT $LN23@Sort@2
$LN5@Sort@2:

; 3785 : 			{	// loop on first half
; 3786 : 			_Sort(_Mid.second, _Last, _Ideal, _Pred);

  0006c	57		 push	 edi
  0006d	ff 75 fc	 push	 DWORD PTR __Mid$507166[ebp+4]
  00070	e8 00 00 00 00	 call	 ??$_Sort@PAPAVQuestCompleteData@@HVQuestCompleteDataSort@@@std@@YAXPAPAVQuestCompleteData@@0HVQuestCompleteDataSort@@@Z ; std::_Sort<QuestCompleteData * *,int,QuestCompleteDataSort>

; 3787 : 			_Last = _Mid.first;

  00075	8b 7d f8	 mov	 edi, DWORD PTR __Mid$507166[ebp]
$LN23@Sort@2:

; 3772 : 	_Diff _Count;
; 3773 : 	for (; _ISORT_MAX < (_Count = _Last - _First) && 0 < _Ideal; )

  00078	8b c7		 mov	 eax, edi
  0007a	2b c3		 sub	 eax, ebx
  0007c	c1 f8 02	 sar	 eax, 2

; 3785 : 			{	// loop on first half
; 3786 : 			_Sort(_Mid.second, _Last, _Ideal, _Pred);

  0007f	83 c4 10	 add	 esp, 16			; 00000010H
  00082	83 f8 20	 cmp	 eax, 32			; 00000020H
  00085	7f 9a		 jg	 SHORT $LL7@Sort@2
$LN6@Sort@2:
  00087	5e		 pop	 esi

; 3788 : 			}
; 3789 : 		}
; 3790 : 
; 3791 : 	if (_ISORT_MAX < _Count)

  00088	83 f8 20	 cmp	 eax, 32			; 00000020H
  0008b	7e 19		 jle	 SHORT $LN22@Sort@2

; 3792 : 		{	// heap sort if too many divisions
; 3793 : 		_STD make_heap(_First, _Last, _Pred);

  0008d	ff 75 14	 push	 DWORD PTR __Pred$[ebp]
  00090	57		 push	 edi
  00091	53		 push	 ebx
  00092	e8 00 00 00 00	 call	 ??$make_heap@PAPAVQuestCompleteData@@VQuestCompleteDataSort@@@std@@YAXPAPAVQuestCompleteData@@0VQuestCompleteDataSort@@@Z ; std::make_heap<QuestCompleteData * *,QuestCompleteDataSort>

; 3794 : 		_STD sort_heap(_First, _Last, _Pred);

  00097	ff 75 14	 push	 DWORD PTR __Pred$[ebp]
  0009a	57		 push	 edi
  0009b	53		 push	 ebx
  0009c	e8 00 00 00 00	 call	 ??$_Sort_heap@PAPAVQuestCompleteData@@VQuestCompleteDataSort@@@std@@YAXPAPAVQuestCompleteData@@0VQuestCompleteDataSort@@@Z ; std::_Sort_heap<QuestCompleteData * *,QuestCompleteDataSort>
  000a1	83 c4 18	 add	 esp, 24			; 00000018H
  000a4	eb 14		 jmp	 SHORT $LN16@Sort@2
$LN22@Sort@2:

; 3795 : 		}
; 3796 : 	else if (1 < _Count)

  000a6	83 f8 01	 cmp	 eax, 1
  000a9	7e 0f		 jle	 SHORT $LN16@Sort@2

; 3797 : 		_Insertion_sort(_First, _Last, _Pred);	// small

  000ab	6a 00		 push	 0
  000ad	ff 75 14	 push	 DWORD PTR __Pred$[ebp]
  000b0	57		 push	 edi
  000b1	53		 push	 ebx
  000b2	e8 00 00 00 00	 call	 ??$_Insertion_sort1@PAPAVQuestCompleteData@@VQuestCompleteDataSort@@PAV1@@std@@YAXPAPAVQuestCompleteData@@0VQuestCompleteDataSort@@0@Z ; std::_Insertion_sort1<QuestCompleteData * *,QuestCompleteDataSort,QuestCompleteData *>
  000b7	83 c4 10	 add	 esp, 16			; 00000010H
$LN16@Sort@2:
  000ba	5f		 pop	 edi
  000bb	5b		 pop	 ebx

; 3798 : 	}

  000bc	c9		 leave
  000bd	c3		 ret	 0
??$_Sort@PAPAVQuestCompleteData@@HVQuestCompleteDataSort@@@std@@YAXPAPAVQuestCompleteData@@0HVQuestCompleteDataSort@@@Z ENDP ; std::_Sort<QuestCompleteData * *,int,QuestCompleteDataSort>
_TEXT	ENDS
PUBLIC	??$sort@V?$_Vector_iterator@V?$_Vector_val@PAVQuestData@@V?$allocator@PAVQuestData@@@std@@@std@@@std@@VQuestDataSort@@@std@@YAXV?$_Vector_iterator@V?$_Vector_val@PAVQuestData@@V?$allocator@PAVQuestData@@@std@@@std@@@0@0VQuestDataSort@@@Z ; std::sort<std::_Vector_iterator<std::_Vector_val<QuestData *,std::allocator<QuestData *> > >,QuestDataSort>
; Function compile flags: /Ogsp
;	COMDAT ??$sort@V?$_Vector_iterator@V?$_Vector_val@PAVQuestData@@V?$allocator@PAVQuestData@@@std@@@std@@@std@@VQuestDataSort@@@std@@YAXV?$_Vector_iterator@V?$_Vector_val@PAVQuestData@@V?$allocator@PAVQuestData@@@std@@@std@@@0@0VQuestDataSort@@@Z
_TEXT	SEGMENT
__First$ = 8						; size = 4
__Last$ = 12						; size = 4
__Pred$ = 16						; size = 1
??$sort@V?$_Vector_iterator@V?$_Vector_val@PAVQuestData@@V?$allocator@PAVQuestData@@@std@@@std@@@std@@VQuestDataSort@@@std@@YAXV?$_Vector_iterator@V?$_Vector_val@PAVQuestData@@V?$allocator@PAVQuestData@@@std@@@std@@@0@0VQuestDataSort@@@Z PROC ; std::sort<std::_Vector_iterator<std::_Vector_val<QuestData *,std::allocator<QuestData *> > >,QuestDataSort>, COMDAT

; 3803 : 	{	// order [_First, _Last), using _Pred

  00000	55		 push	 ebp
  00001	8b ec		 mov	 ebp, esp

; 3804 : 	_DEBUG_RANGE(_First, _Last);
; 3805 : 	_DEBUG_POINTER(_Pred);
; 3806 : 	_Sort(_Unchecked(_First), _Unchecked(_Last), _Last - _First, _Pred);

  00003	8b 45 0c	 mov	 eax, DWORD PTR __Last$[ebp]
  00006	ff 75 10	 push	 DWORD PTR __Pred$[ebp]
  00009	2b 45 08	 sub	 eax, DWORD PTR __First$[ebp]
  0000c	c1 f8 02	 sar	 eax, 2
  0000f	50		 push	 eax
  00010	ff 75 0c	 push	 DWORD PTR __Last$[ebp]
  00013	ff 75 08	 push	 DWORD PTR __First$[ebp]
  00016	e8 00 00 00 00	 call	 ??$_Sort@PAPAVQuestData@@HVQuestDataSort@@@std@@YAXPAPAVQuestData@@0HVQuestDataSort@@@Z ; std::_Sort<QuestData * *,int,QuestDataSort>
  0001b	83 c4 10	 add	 esp, 16			; 00000010H

; 3807 : 	}

  0001e	5d		 pop	 ebp
  0001f	c3		 ret	 0
??$sort@V?$_Vector_iterator@V?$_Vector_val@PAVQuestData@@V?$allocator@PAVQuestData@@@std@@@std@@@std@@VQuestDataSort@@@std@@YAXV?$_Vector_iterator@V?$_Vector_val@PAVQuestData@@V?$allocator@PAVQuestData@@@std@@@std@@@0@0VQuestDataSort@@@Z ENDP ; std::sort<std::_Vector_iterator<std::_Vector_val<QuestData *,std::allocator<QuestData *> > >,QuestDataSort>
_TEXT	ENDS
PUBLIC	??$sort@V?$_Vector_iterator@V?$_Vector_val@PAVQuestCompleteData@@V?$allocator@PAVQuestCompleteData@@@std@@@std@@@std@@VQuestCompleteDataSort@@@std@@YAXV?$_Vector_iterator@V?$_Vector_val@PAVQuestCompleteData@@V?$allocator@PAVQuestCompleteData@@@std@@@std@@@0@0VQuestCompleteDataSort@@@Z ; std::sort<std::_Vector_iterator<std::_Vector_val<QuestCompleteData *,std::allocator<QuestCompleteData *> > >,QuestCompleteDataSort>
; Function compile flags: /Ogsp
;	COMDAT ??$sort@V?$_Vector_iterator@V?$_Vector_val@PAVQuestCompleteData@@V?$allocator@PAVQuestCompleteData@@@std@@@std@@@std@@VQuestCompleteDataSort@@@std@@YAXV?$_Vector_iterator@V?$_Vector_val@PAVQuestCompleteData@@V?$allocator@PAVQuestCompleteData@@@std@@@std@@@0@0VQuestCompleteDataSort@@@Z
_TEXT	SEGMENT
__First$ = 8						; size = 4
__Last$ = 12						; size = 4
__Pred$ = 16						; size = 1
??$sort@V?$_Vector_iterator@V?$_Vector_val@PAVQuestCompleteData@@V?$allocator@PAVQuestCompleteData@@@std@@@std@@@std@@VQuestCompleteDataSort@@@std@@YAXV?$_Vector_iterator@V?$_Vector_val@PAVQuestCompleteData@@V?$allocator@PAVQuestCompleteData@@@std@@@std@@@0@0VQuestCompleteDataSort@@@Z PROC ; std::sort<std::_Vector_iterator<std::_Vector_val<QuestCompleteData *,std::allocator<QuestCompleteData *> > >,QuestCompleteDataSort>, COMDAT

; 3803 : 	{	// order [_First, _Last), using _Pred

  00000	55		 push	 ebp
  00001	8b ec		 mov	 ebp, esp

; 3804 : 	_DEBUG_RANGE(_First, _Last);
; 3805 : 	_DEBUG_POINTER(_Pred);
; 3806 : 	_Sort(_Unchecked(_First), _Unchecked(_Last), _Last - _First, _Pred);

  00003	8b 45 0c	 mov	 eax, DWORD PTR __Last$[ebp]
  00006	ff 75 10	 push	 DWORD PTR __Pred$[ebp]
  00009	2b 45 08	 sub	 eax, DWORD PTR __First$[ebp]
  0000c	c1 f8 02	 sar	 eax, 2
  0000f	50		 push	 eax
  00010	ff 75 0c	 push	 DWORD PTR __Last$[ebp]
  00013	ff 75 08	 push	 DWORD PTR __First$[ebp]
  00016	e8 00 00 00 00	 call	 ??$_Sort@PAPAVQuestCompleteData@@HVQuestCompleteDataSort@@@std@@YAXPAPAVQuestCompleteData@@0HVQuestCompleteDataSort@@@Z ; std::_Sort<QuestCompleteData * *,int,QuestCompleteDataSort>
  0001b	83 c4 10	 add	 esp, 16			; 00000010H

; 3807 : 	}

  0001e	5d		 pop	 ebp
  0001f	c3		 ret	 0
??$sort@V?$_Vector_iterator@V?$_Vector_val@PAVQuestCompleteData@@V?$allocator@PAVQuestCompleteData@@@std@@@std@@@std@@VQuestCompleteDataSort@@@std@@YAXV?$_Vector_iterator@V?$_Vector_val@PAVQuestCompleteData@@V?$allocator@PAVQuestCompleteData@@@std@@@std@@@0@0VQuestCompleteDataSort@@@Z ENDP ; std::sort<std::_Vector_iterator<std::_Vector_val<QuestCompleteData *,std::allocator<QuestCompleteData *> > >,QuestCompleteDataSort>
_TEXT	ENDS
PUBLIC	??_C@_0CO@COEONINM@?$LM?v?G?$OA?5?$LP?O?$LH?a?$LF?H?5?D?y?$LN?$LK?F?$KO?$LI?$KG?5?H?$LJ?$LF?f?G?O?$LP?$LE?$LE?Y?$CB@ ; `string'
PUBLIC	?AddQuestData@ioQuest@@QAEXAAVQuestData@@@Z	; ioQuest::AddQuestData
EXTRN	?QuestInfoChange@ioQuestManager@@QAEXXZ:PROC	; ioQuestManager::QuestInfoChange
EXTRN	__imp_?PrintTimeAndLog@CLog@@QAAXHPADZZ:PROC
EXTRN	__imp_?LOG@@3VCLog@@A:BYTE
EXTRN	?AddQuestAttainList@ioQuestManager@@QAEXPAVQuestParent@@@Z:PROC ; ioQuestManager::AddQuestAttainList
EXTRN	?EraseQuestAttainList@ioQuestManager@@QAEXKK@Z:PROC ; ioQuestManager::EraseQuestAttainList
;	COMDAT ??_C@_0CO@COEONINM@?$LM?v?G?$OA?5?$LP?O?$LH?a?$LF?H?5?D?y?$LN?$LK?F?$KO?$LI?$KG?5?H?$LJ?$LF?f?G?O?$LP?$LE?$LE?Y?$CB@
; File c:\program files (x86)\microsoft visual studio 10.0\vc\include\xutility
CONST	SEGMENT
??_C@_0CO@COEONINM@?$LM?v?G?$OA?5?$LP?O?$LH?a?$LF?H?5?D?y?$LN?$LK?F?$KO?$LI?$KG?5?H?$LJ?$LF?f?G?O?$LP?$LE?$LE?Y?$CB@ DB 0bcH
	DB	0f6H, 0c7H, 0e0H, ' ', 0bfH, 0cfH, 0b7H, 0e1H, 0b5H, 0c8H, ' ', 0c4H
	DB	0f9H, 0bdH, 0baH, 0c6H, 0aeH, 0b8H, 0a6H, ' ', 0c8H, 0b9H, 0b5H
	DB	0e6H, 0c7H, 0cfH, 0bfH, 0b4H, 0b4H, 0d9H, '!!!! : %d - %d', 00H ; `string'
CONST	ENDS
;	COMDAT xdata$x
xdata$x	SEGMENT
__unwindtable$?AddQuestData@ioQuest@@QAEXAAVQuestData@@@Z DD 0ffffffffH
	DD	FLAT:__unwindfunclet$?AddQuestData@ioQuest@@QAEXAAVQuestData@@@Z$0
__ehfuncinfo$?AddQuestData@ioQuest@@QAEXAAVQuestData@@@Z DD 019930522H
	DD	01H
	DD	FLAT:__unwindtable$?AddQuestData@ioQuest@@QAEXAAVQuestData@@@Z
	DD	2 DUP(00H)
	DD	2 DUP(00H)
	DD	00H
	DD	01H
; Function compile flags: /Ogsp
; File d:\lost saga for developer\youtube\tutorial\source\src\lsclient\ioquest.cpp
xdata$x	ENDS
;	COMDAT ?AddQuestData@ioQuest@@QAEXAAVQuestData@@@Z
_TEXT	SEGMENT
_pQuestParent$ = -28					; size = 4
$T515432 = -24						; size = 4
_pData$ = -24						; size = 4
_this$ = -24						; size = 4
_pItemDB$505595 = -20					; size = 4
_iter$ = -16						; size = 4
__$EHRec$ = -12						; size = 12
$T515438 = 8						; size = 1
$T515428 = 8						; size = 1
$T515437 = 8						; size = 4
_rkData$ = 8						; size = 4
?AddQuestData@ioQuest@@QAEXAAVQuestData@@@Z PROC	; ioQuest::AddQuestData, COMDAT
; _this$ = ecx

; 306  : {

  00000	6a 10		 push	 16			; 00000010H
  00002	b8 00 00 00 00	 mov	 eax, __ehhandler$?AddQuestData@ioQuest@@QAEXAAVQuestData@@@Z
  00007	e8 00 00 00 00	 call	 __EH_prolog3
  0000c	8b d9		 mov	 ebx, ecx
  0000e	89 5d e8	 mov	 DWORD PTR _this$[ebp], ebx

; 307  : 	QuestParent *pQuestParent = g_QuestMgr.GetQuest( rkData.GetMainIndex(), rkData.GetSubIndex() );

  00011	8b 75 08	 mov	 esi, DWORD PTR _rkData$[ebp]
  00014	8b 46 04	 mov	 eax, DWORD PTR [esi+4]
  00017	bf 10 27 00 00	 mov	 edi, 10000		; 00002710H
  0001c	33 d2		 xor	 edx, edx
  0001e	8b cf		 mov	 ecx, edi
  00020	f7 f1		 div	 ecx
  00022	52		 push	 edx
  00023	50		 push	 eax
  00024	e8 00 00 00 00	 call	 ?GetSingleton@ioQuestManager@@SAAAV1@XZ ; ioQuestManager::GetSingleton
  00029	8b c8		 mov	 ecx, eax
  0002b	e8 00 00 00 00	 call	 ?GetQuest@ioQuestManager@@QAEPAVQuestParent@@KK@Z ; ioQuestManager::GetQuest
  00030	89 45 e4	 mov	 DWORD PTR _pQuestParent$[ebp], eax

; 308  : 	if( pQuestParent )

  00033	85 c0		 test	 eax, eax
  00035	74 36		 je	 SHORT $LN12@AddQuestDa

; 309  : 	{
; 310  : 		switch( rkData.GetState() )

  00037	8b 46 40	 mov	 eax, DWORD PTR [esi+64]
  0003a	6a 0a		 push	 10			; 0000000aH
  0003c	33 d2		 xor	 edx, edx
  0003e	59		 pop	 ecx
  0003f	f7 f1		 div	 ecx
  00041	4a		 dec	 edx
  00042	74 1a		 je	 SHORT $LN11@AddQuestDa
  00044	4a		 dec	 edx
  00045	75 26		 jne	 SHORT $LN12@AddQuestDa

; 315  : 
; 316  : #if defined( USE_GA )
; 317  : 				char chQuestIndex[32]	= {0,};
; 318  : 				char chSlash[16]		= {0,};
; 319  : 				char chPostData[256]	= {0,};
; 320  : 
; 321  : 				if ( ioLocalManager::GetLocalType() == ioLocalManager::LCT_KOREA )
; 322  : 				{
; 323  : 					sprintf_e( chQuestIndex, "%d-%d", (int)rkData.GetMainIndex(), (int)rkData.GetSubIndex() );
; 324  : 					sprintf_e( chSlash, "%%2F" );
; 325  : 					sprintf_e( chPostData, "%sQUEST%sCOMPLETE%s%s", chSlash, chSlash, chSlash, chQuestIndex );
; 326  : 				}
; 327  : 				else
; 328  : 				{
; 329  : 					SafeSprintf( chQuestIndex, sizeof(chQuestIndex), "%1-%2", (int)rkData.GetMainIndex(), (int)rkData.GetSubIndex() );
; 330  : 					SafeSprintf( chSlash, sizeof(chSlash), "%2F" );
; 331  : 					SafeSprintf( chPostData, sizeof(chPostData), "%1QUEST%2COMPLETE%3%4", chSlash, chSlash, chSlash, chQuestIndex );
; 332  : 				}				
; 333  : 
; 334  : 				// QUEST_STATE_COMPLETE
; 335  : 				g_HttpMng.GA_EventTracking( g_MyInfo.GetUserIndex()
; 336  : 					, "Quest"
; 337  : 					, "Complete"
; 338  : 					, ""
; 339  : 					, 1
; 340  : 					, chPostData );
; 341  : #endif
; 342  : 
; 343  : 			}
; 344  : 			
; 345  : 			break;
; 346  : 		case QS_COMPLETE:
; 347  : 			g_QuestMgr.EraseQuestAttainList( rkData.GetMainIndex(), rkData.GetSubIndex() );	

  00047	8b 46 04	 mov	 eax, DWORD PTR [esi+4]
  0004a	8b cf		 mov	 ecx, edi
  0004c	f7 f1		 div	 ecx
  0004e	52		 push	 edx
  0004f	50		 push	 eax
  00050	e8 00 00 00 00	 call	 ?GetSingleton@ioQuestManager@@SAAAV1@XZ ; ioQuestManager::GetSingleton
  00055	8b c8		 mov	 ecx, eax
  00057	e8 00 00 00 00	 call	 ?EraseQuestAttainList@ioQuestManager@@QAEXKK@Z ; ioQuestManager::EraseQuestAttainList

; 348  : 			break;

  0005c	eb 0f		 jmp	 SHORT $LN12@AddQuestDa
$LN11@AddQuestDa:

; 311  : 		{
; 312  : 		case QS_ATTAIN:
; 313  : 			{
; 314  : 				g_QuestMgr.AddQuestAttainList( pQuestParent );

  0005e	ff 75 e4	 push	 DWORD PTR _pQuestParent$[ebp]
  00061	e8 00 00 00 00	 call	 ?GetSingleton@ioQuestManager@@SAAAV1@XZ ; ioQuestManager::GetSingleton
  00066	8b c8		 mov	 ecx, eax
  00068	e8 00 00 00 00	 call	 ?AddQuestAttainList@ioQuestManager@@QAEXPAVQuestParent@@@Z ; ioQuestManager::AddQuestAttainList
$LN12@AddQuestDa:

; 349  : 		}
; 350  : 	}
; 351  : 
; 352  : 	// 이미 보유하고 있는 퀘스트면 덮어쓰고 없는 퀘스트면 추가한다.
; 353  : 	vQuestInfo::iterator iter, iEnd;
; 354  : 	iEnd = m_vItemList.end();
; 355  : 	for(iter = m_vItemList.begin();iter != iEnd;iter++)

  0006d	8d 73 04	 lea	 esi, DWORD PTR [ebx+4]
  00070	8b 0e		 mov	 ecx, DWORD PTR [esi]
  00072	eb 2d		 jmp	 SHORT $LN130@AddQuestDa
$LL58@AddQuestDa:

; 356  : 	{
; 357  : 		QuestData *pItemDB = *iter;

  00074	8b 01		 mov	 eax, DWORD PTR [ecx]
  00076	89 45 ec	 mov	 DWORD PTR _pItemDB$505595[ebp], eax

; 358  : 		if( !pItemDB ) continue;

  00079	85 c0		 test	 eax, eax
  0007b	74 1e		 je	 SHORT $LN8@AddQuestDa

; 359  : 
; 360  : 		if( pItemDB->GetMainIndex() != rkData.GetMainIndex() ) continue;

  0007d	8b 40 04	 mov	 eax, DWORD PTR [eax+4]
  00080	33 d2		 xor	 edx, edx
  00082	8b cf		 mov	 ecx, edi
  00084	f7 f1		 div	 ecx
  00086	33 d2		 xor	 edx, edx
  00088	8b df		 mov	 ebx, edi
  0008a	8b c8		 mov	 ecx, eax
  0008c	8b 45 08	 mov	 eax, DWORD PTR _rkData$[ebp]
  0008f	8b 40 04	 mov	 eax, DWORD PTR [eax+4]
  00092	f7 f3		 div	 ebx
  00094	3b c8		 cmp	 ecx, eax
  00096	74 2d		 je	 SHORT $LN5@AddQuestDa
  00098	8b 5d e8	 mov	 ebx, DWORD PTR _this$[ebp]
$LN8@AddQuestDa:

; 349  : 		}
; 350  : 	}
; 351  : 
; 352  : 	// 이미 보유하고 있는 퀘스트면 덮어쓰고 없는 퀘스트면 추가한다.
; 353  : 	vQuestInfo::iterator iter, iEnd;
; 354  : 	iEnd = m_vItemList.end();
; 355  : 	for(iter = m_vItemList.begin();iter != iEnd;iter++)

  0009b	8b 4d f0	 mov	 ecx, DWORD PTR _iter$[ebp]
  0009e	83 c1 04	 add	 ecx, 4
$LN130@AddQuestDa:
  000a1	89 4d f0	 mov	 DWORD PTR _iter$[ebp], ecx
  000a4	3b 4b 08	 cmp	 ecx, DWORD PTR [ebx+8]
  000a7	75 cb		 jne	 SHORT $LL58@AddQuestDa

; 372  : 		}
; 373  : 	}
; 374  : 	QuestData *pData = new QuestData;

  000a9	6a 48		 push	 72			; 00000048H
  000ab	e8 00 00 00 00	 call	 ??2@YAPAXI@Z		; operator new
  000b0	59		 pop	 ecx
  000b1	89 45 e8	 mov	 DWORD PTR $T515432[ebp], eax
  000b4	83 65 fc 00	 and	 DWORD PTR __$EHRec$[ebp+8], 0
  000b8	85 c0		 test	 eax, eax
  000ba	74 6b		 je	 SHORT $LN17@AddQuestDa
  000bc	8b c8		 mov	 ecx, eax
  000be	e8 00 00 00 00	 call	 ??0QuestData@@QAE@XZ	; QuestData::QuestData
  000c3	eb 64		 jmp	 SHORT $LN18@AddQuestDa
$LN5@AddQuestDa:

; 361  : 
; 362  : 		if( rkData.GetSubIndex() >= pItemDB->GetSubIndex() )

  000c5	8b 45 ec	 mov	 eax, DWORD PTR _pItemDB$505595[ebp]
  000c8	8b 40 04	 mov	 eax, DWORD PTR [eax+4]
  000cb	33 d2		 xor	 edx, edx
  000cd	8b cf		 mov	 ecx, edi
  000cf	f7 f1		 div	 ecx
  000d1	8b 45 08	 mov	 eax, DWORD PTR _rkData$[ebp]
  000d4	8b 40 04	 mov	 eax, DWORD PTR [eax+4]
  000d7	8b ca		 mov	 ecx, edx
  000d9	33 d2		 xor	 edx, edx
  000db	f7 f3		 div	 ebx
  000dd	3b d1		 cmp	 edx, ecx
  000df	72 22		 jb	 SHORT $LN4@AddQuestDa

; 363  : 		{
; 364  : 			*pItemDB = rkData;

  000e1	ff 75 08	 push	 DWORD PTR _rkData$[ebp]
  000e4	8b 4d ec	 mov	 ecx, DWORD PTR _pItemDB$505595[ebp]
  000e7	e8 00 00 00 00	 call	 ??4QuestData@@QAEAAV0@AAV0@@Z

; 365  : 			std::sort( m_vItemList.begin(), m_vItemList.end(), QuestDataSort() );

  000ec	8b 45 e8	 mov	 eax, DWORD PTR _this$[ebp]
  000ef	ff 75 08	 push	 DWORD PTR $T515428[ebp]
  000f2	8b 40 08	 mov	 eax, DWORD PTR [eax+8]
  000f5	8b 36		 mov	 esi, DWORD PTR [esi]
  000f7	50		 push	 eax
  000f8	56		 push	 esi
  000f9	e8 00 00 00 00	 call	 ??$sort@V?$_Vector_iterator@V?$_Vector_val@PAVQuestData@@V?$allocator@PAVQuestData@@@std@@@std@@@std@@VQuestDataSort@@@std@@YAXV?$_Vector_iterator@V?$_Vector_val@PAVQuestData@@V?$allocator@PAVQuestData@@@std@@@std@@@0@0VQuestDataSort@@@Z ; std::sort<std::_Vector_iterator<std::_Vector_val<QuestData *,std::allocator<QuestData *> > >,QuestDataSort>
  000fe	83 c4 0c	 add	 esp, 12			; 0000000cH

; 366  : 			return;          // 이미 있는 퀘스트라서 정보만 갱신

  00101	eb 77		 jmp	 SHORT $LN1@AddQuestDa
$LN4@AddQuestDa:

; 367  : 		}
; 368  : 		else
; 369  : 		{
; 370  : 			LOG.PrintTimeAndLog( 0, "수행 완료된 퀘스트를 획득하였다!!!! : %d - %d", rkData.GetMainIndex(), rkData.GetSubIndex() );

  00103	8b 45 08	 mov	 eax, DWORD PTR _rkData$[ebp]
  00106	8b 40 04	 mov	 eax, DWORD PTR [eax+4]
  00109	33 d2		 xor	 edx, edx
  0010b	f7 f7		 div	 edi
  0010d	52		 push	 edx
  0010e	50		 push	 eax
  0010f	68 00 00 00 00	 push	 OFFSET ??_C@_0CO@COEONINM@?$LM?v?G?$OA?5?$LP?O?$LH?a?$LF?H?5?D?y?$LN?$LK?F?$KO?$LI?$KG?5?H?$LJ?$LF?f?G?O?$LP?$LE?$LE?Y?$CB@
  00114	6a 00		 push	 0
  00116	ff 35 00 00 00
	00		 push	 DWORD PTR __imp_?LOG@@3VCLog@@A
  0011c	ff 15 00 00 00
	00		 call	 DWORD PTR __imp_?PrintTimeAndLog@CLog@@QAAXHPADZZ
  00122	83 c4 14	 add	 esp, 20			; 00000014H

; 371  : 			return;          // Error

  00125	eb 53		 jmp	 SHORT $LN1@AddQuestDa
$LN17@AddQuestDa:

; 372  : 		}
; 373  : 	}
; 374  : 	QuestData *pData = new QuestData;

  00127	33 c0		 xor	 eax, eax
$LN18@AddQuestDa:
  00129	83 4d fc ff	 or	 DWORD PTR __$EHRec$[ebp+8], -1
  0012d	89 45 e8	 mov	 DWORD PTR _pData$[ebp], eax

; 375  : 	if( !pData )

  00130	85 c0		 test	 eax, eax
  00132	74 46		 je	 SHORT $LN1@AddQuestDa

; 376  : 		return;
; 377  : 	*pData = rkData;

  00134	ff 75 08	 push	 DWORD PTR _rkData$[ebp]
  00137	8b c8		 mov	 ecx, eax
  00139	e8 00 00 00 00	 call	 ??4QuestData@@QAEAAV0@AAV0@@Z

; 378  : 	m_vItemList.insert( m_vItemList.begin(), pData );

  0013e	8b 06		 mov	 eax, DWORD PTR [esi]
  00140	8d 4d e8	 lea	 ecx, DWORD PTR _pData$[ebp]
  00143	51		 push	 ecx
  00144	50		 push	 eax
  00145	8d 45 08	 lea	 eax, DWORD PTR $T515437[ebp]
  00148	50		 push	 eax
  00149	8b ce		 mov	 ecx, esi
  0014b	e8 00 00 00 00	 call	 ??$emplace@AAPAVQuestData@@@?$vector@PAVQuestData@@V?$allocator@PAVQuestData@@@std@@@std@@QAE?AV?$_Vector_iterator@V?$_Vector_val@PAVQuestData@@V?$allocator@PAVQuestData@@@std@@@std@@@1@V?$_Vector_const_iterator@V?$_Vector_val@PAVQuestData@@V?$allocator@PAVQuestData@@@std@@@std@@@1@AAPAVQuestData@@@Z ; std::vector<QuestData *,std::allocator<QuestData *> >::emplace<QuestData * &>

; 379  : 	std::sort( m_vItemList.begin(), m_vItemList.end(), QuestDataSort() );

  00150	ff 75 08	 push	 DWORD PTR $T515438[ebp]
  00153	8b 5b 08	 mov	 ebx, DWORD PTR [ebx+8]
  00156	8b 36		 mov	 esi, DWORD PTR [esi]
  00158	53		 push	 ebx
  00159	56		 push	 esi
  0015a	e8 00 00 00 00	 call	 ??$sort@V?$_Vector_iterator@V?$_Vector_val@PAVQuestData@@V?$allocator@PAVQuestData@@@std@@@std@@@std@@VQuestDataSort@@@std@@YAXV?$_Vector_iterator@V?$_Vector_val@PAVQuestData@@V?$allocator@PAVQuestData@@@std@@@std@@@0@0VQuestDataSort@@@Z ; std::sort<std::_Vector_iterator<std::_Vector_val<QuestData *,std::allocator<QuestData *> > >,QuestDataSort>
  0015f	83 c4 0c	 add	 esp, 12			; 0000000cH

; 380  : 	g_QuestMgr.QuestInfoChange();

  00162	e8 00 00 00 00	 call	 ?GetSingleton@ioQuestManager@@SAAAV1@XZ ; ioQuestManager::GetSingleton
  00167	8b c8		 mov	 ecx, eax
  00169	e8 00 00 00 00	 call	 ?QuestInfoChange@ioQuestManager@@QAEXXZ ; ioQuestManager::QuestInfoChange

; 381  : 
; 382  : 	if( pQuestParent )

  0016e	8b 4d e4	 mov	 ecx, DWORD PTR _pQuestParent$[ebp]
  00171	85 c9		 test	 ecx, ecx
  00173	74 05		 je	 SHORT $LN1@AddQuestDa

; 383  : 		pQuestParent->StartProcessTime();

  00175	8b 01		 mov	 eax, DWORD PTR [ecx]
  00177	ff 50 54	 call	 DWORD PTR [eax+84]
$LN1@AddQuestDa:

; 384  : }

  0017a	e8 00 00 00 00	 call	 __EH_epilog3
  0017f	c2 04 00	 ret	 4
_TEXT	ENDS
;	COMDAT text$x
text$x	SEGMENT
__unwindfunclet$?AddQuestData@ioQuest@@QAEXAAVQuestData@@@Z$0:
  00000	ff 75 e8	 push	 DWORD PTR $T515432[ebp]
  00003	e8 00 00 00 00	 call	 ??3@YAXPAX@Z		; operator delete
  00008	59		 pop	 ecx
  00009	c3		 ret	 0
__ehhandler$?AddQuestData@ioQuest@@QAEXAAVQuestData@@@Z:
  0000a	8b 54 24 08	 mov	 edx, DWORD PTR [esp+8]
  0000e	8d 42 0c	 lea	 eax, DWORD PTR [edx+12]
  00011	8b 4a e0	 mov	 ecx, DWORD PTR [edx-32]
  00014	33 c8		 xor	 ecx, eax
  00016	e8 00 00 00 00	 call	 @__security_check_cookie@4
  0001b	b8 00 00 00 00	 mov	 eax, OFFSET __ehfuncinfo$?AddQuestData@ioQuest@@QAEXAAVQuestData@@@Z
  00020	e9 00 00 00 00	 jmp	 ___CxxFrameHandler3
text$x	ENDS
?AddQuestData@ioQuest@@QAEXAAVQuestData@@@Z ENDP	; ioQuest::AddQuestData
PUBLIC	??_C@_0CO@CMBJBCDE@?$LM?v?G?$OA?5?$LP?O?$LH?a?$LF?H?5?D?y?$LN?$LK?F?$KO?$LI?$KG?5?$LP?O?$LH?a?G?O?$LP?$LE?$LE?Y?$CB@ ; `string'
PUBLIC	?AddQuestCompleteData@ioQuest@@QAEXAAVQuestCompleteData@@@Z ; ioQuest::AddQuestCompleteData
;	COMDAT ??_C@_0CO@CMBJBCDE@?$LM?v?G?$OA?5?$LP?O?$LH?a?$LF?H?5?D?y?$LN?$LK?F?$KO?$LI?$KG?5?$LP?O?$LH?a?G?O?$LP?$LE?$LE?Y?$CB@
; File c:\program files (x86)\microsoft visual studio 10.0\vc\include\xutility
CONST	SEGMENT
??_C@_0CO@CMBJBCDE@?$LM?v?G?$OA?5?$LP?O?$LH?a?$LF?H?5?D?y?$LN?$LK?F?$KO?$LI?$KG?5?$LP?O?$LH?a?G?O?$LP?$LE?$LE?Y?$CB@ DB 0bcH
	DB	0f6H, 0c7H, 0e0H, ' ', 0bfH, 0cfH, 0b7H, 0e1H, 0b5H, 0c8H, ' ', 0c4H
	DB	0f9H, 0bdH, 0baH, 0c6H, 0aeH, 0b8H, 0a6H, ' ', 0bfH, 0cfH, 0b7H
	DB	0e1H, 0c7H, 0cfH, 0bfH, 0b4H, 0b4H, 0d9H, '!!!! : %d - %d', 00H ; `string'
; Function compile flags: /Ogsp
; File d:\lost saga for developer\youtube\tutorial\source\src\lsclient\ioquest.cpp
CONST	ENDS
;	COMDAT ?AddQuestCompleteData@ioQuest@@QAEXAAVQuestCompleteData@@@Z
_TEXT	SEGMENT
$T515741 = -8						; size = 4
_this$ = -8						; size = 4
_pItemDB$505646 = -4					; size = 4
$T515732 = 8						; size = 1
$T515742 = 8						; size = 1
_pData$ = 8						; size = 4
_iter$ = 8						; size = 4
_rkData$ = 8						; size = 4
?AddQuestCompleteData@ioQuest@@QAEXAAVQuestCompleteData@@@Z PROC ; ioQuest::AddQuestCompleteData, COMDAT
; _this$ = ecx

; 387  : {

  00000	55		 push	 ebp
  00001	8b ec		 mov	 ebp, esp
  00003	51		 push	 ecx
  00004	51		 push	 ecx
  00005	53		 push	 ebx
  00006	56		 push	 esi

; 388  : 	g_QuestMgr.EraseQuestAttainList( rkData.GetMainIndex(), rkData.GetSubIndex() );	

  00007	8b 75 08	 mov	 esi, DWORD PTR _rkData$[ebp]
  0000a	8b 46 04	 mov	 eax, DWORD PTR [esi+4]
  0000d	8b d9		 mov	 ebx, ecx
  0000f	33 d2		 xor	 edx, edx
  00011	b9 10 27 00 00	 mov	 ecx, 10000		; 00002710H
  00016	f7 f1		 div	 ecx
  00018	57		 push	 edi
  00019	89 5d f8	 mov	 DWORD PTR _this$[ebp], ebx
  0001c	52		 push	 edx
  0001d	50		 push	 eax
  0001e	e8 00 00 00 00	 call	 ?GetSingleton@ioQuestManager@@SAAAV1@XZ ; ioQuestManager::GetSingleton
  00023	8b c8		 mov	 ecx, eax
  00025	e8 00 00 00 00	 call	 ?EraseQuestAttainList@ioQuestManager@@QAEXKK@Z ; ioQuestManager::EraseQuestAttainList

; 389  : 
; 390  : 	// 이미 보유하고 있는 퀘스트면 덮어쓰고 없는 퀘스트면 추가한다.
; 391  : 	vQuestCompleteInfo::iterator iter, iEnd;
; 392  : 	iEnd = m_vCompleteList.end();
; 393  : 	for(iter = m_vCompleteList.begin();iter != iEnd;iter++)

  0002a	8d 7b 14	 lea	 edi, DWORD PTR [ebx+20]
  0002d	8b 0f		 mov	 ecx, DWORD PTR [edi]
  0002f	eb 30		 jmp	 SHORT $LN128@AddQuestCo
$LL46@AddQuestCo:

; 394  : 	{
; 395  : 		QuestCompleteData *pItemDB = *iter;

  00031	8b 01		 mov	 eax, DWORD PTR [ecx]
  00033	89 45 fc	 mov	 DWORD PTR _pItemDB$505646[ebp], eax

; 396  : 		if( !pItemDB ) continue;

  00036	85 c0		 test	 eax, eax
  00038	74 21		 je	 SHORT $LN7@AddQuestCo

; 397  : 		if( pItemDB->GetMainIndex() != rkData.GetMainIndex() ) continue;

  0003a	8b 40 04	 mov	 eax, DWORD PTR [eax+4]
  0003d	33 d2		 xor	 edx, edx
  0003f	b9 10 27 00 00	 mov	 ecx, 10000		; 00002710H
  00044	f7 f1		 div	 ecx
  00046	33 d2		 xor	 edx, edx
  00048	bb 10 27 00 00	 mov	 ebx, 10000		; 00002710H
  0004d	8b c8		 mov	 ecx, eax
  0004f	8b 46 04	 mov	 eax, DWORD PTR [esi+4]
  00052	f7 f3		 div	 ebx
  00054	3b c8		 cmp	 ecx, eax
  00056	74 30		 je	 SHORT $LN4@AddQuestCo
  00058	8b 5d f8	 mov	 ebx, DWORD PTR _this$[ebp]
$LN7@AddQuestCo:

; 389  : 
; 390  : 	// 이미 보유하고 있는 퀘스트면 덮어쓰고 없는 퀘스트면 추가한다.
; 391  : 	vQuestCompleteInfo::iterator iter, iEnd;
; 392  : 	iEnd = m_vCompleteList.end();
; 393  : 	for(iter = m_vCompleteList.begin();iter != iEnd;iter++)

  0005b	8b 4d 08	 mov	 ecx, DWORD PTR _iter$[ebp]
  0005e	83 c1 04	 add	 ecx, 4
$LN128@AddQuestCo:
  00061	89 4d 08	 mov	 DWORD PTR _iter$[ebp], ecx
  00064	3b 4b 18	 cmp	 ecx, DWORD PTR [ebx+24]
  00067	75 c8		 jne	 SHORT $LL46@AddQuestCo

; 409  : 		}
; 410  : 	}
; 411  : 
; 412  : 	QuestCompleteData *pData = new QuestCompleteData;

  00069	6a 10		 push	 16			; 00000010H
  0006b	e8 00 00 00 00	 call	 ??2@YAPAXI@Z		; operator new
  00070	59		 pop	 ecx
  00071	33 c9		 xor	 ecx, ecx
  00073	3b c1		 cmp	 eax, ecx
  00075	74 79		 je	 SHORT $LN11@AddQuestCo
  00077	c7 00 00 00 00
	00		 mov	 DWORD PTR [eax], OFFSET ??_7QuestCompleteData@@6B@
  0007d	89 48 08	 mov	 DWORD PTR [eax+8], ecx
  00080	89 48 04	 mov	 DWORD PTR [eax+4], ecx
  00083	89 48 0c	 mov	 DWORD PTR [eax+12], ecx
  00086	eb 6a		 jmp	 SHORT $LN12@AddQuestCo
$LN4@AddQuestCo:

; 398  : 
; 399  : 		if( rkData.GetSubIndex() >= pItemDB->GetSubIndex() )

  00088	8b 46 04	 mov	 eax, DWORD PTR [esi+4]
  0008b	33 d2		 xor	 edx, edx
  0008d	8b cb		 mov	 ecx, ebx
  0008f	f7 f1		 div	 ecx
  00091	8b 45 fc	 mov	 eax, DWORD PTR _pItemDB$505646[ebp]
  00094	8b 40 04	 mov	 eax, DWORD PTR [eax+4]
  00097	8b ca		 mov	 ecx, edx
  00099	33 d2		 xor	 edx, edx
  0009b	f7 f3		 div	 ebx
  0009d	3b ca		 cmp	 ecx, edx
  0009f	72 2c		 jb	 SHORT $LN3@AddQuestCo

; 400  : 		{
; 401  : 			*pItemDB = rkData;

  000a1	8b 4e 04	 mov	 ecx, DWORD PTR [esi+4]
  000a4	8b 45 fc	 mov	 eax, DWORD PTR _pItemDB$505646[ebp]

; 402  : 			std::sort( m_vCompleteList.begin(), m_vCompleteList.end(), QuestCompleteDataSort() );

  000a7	ff 75 08	 push	 DWORD PTR $T515732[ebp]
  000aa	89 48 04	 mov	 DWORD PTR [eax+4], ecx
  000ad	8b 4e 08	 mov	 ecx, DWORD PTR [esi+8]
  000b0	89 48 08	 mov	 DWORD PTR [eax+8], ecx
  000b3	8b 4e 0c	 mov	 ecx, DWORD PTR [esi+12]
  000b6	89 48 0c	 mov	 DWORD PTR [eax+12], ecx
  000b9	8b 45 f8	 mov	 eax, DWORD PTR _this$[ebp]
  000bc	8b 40 18	 mov	 eax, DWORD PTR [eax+24]
  000bf	8b 3f		 mov	 edi, DWORD PTR [edi]
  000c1	50		 push	 eax
  000c2	57		 push	 edi
  000c3	e8 00 00 00 00	 call	 ??$sort@V?$_Vector_iterator@V?$_Vector_val@PAVQuestCompleteData@@V?$allocator@PAVQuestCompleteData@@@std@@@std@@@std@@VQuestCompleteDataSort@@@std@@YAXV?$_Vector_iterator@V?$_Vector_val@PAVQuestCompleteData@@V?$allocator@PAVQuestCompleteData@@@std@@@std@@@0@0VQuestCompleteDataSort@@@Z ; std::sort<std::_Vector_iterator<std::_Vector_val<QuestCompleteData *,std::allocator<QuestCompleteData *> > >,QuestCompleteDataSort>
  000c8	83 c4 0c	 add	 esp, 12			; 0000000cH

; 403  : 			return;          // 이미 있는 퀘스트라서 정보만 갱신

  000cb	eb 6e		 jmp	 SHORT $LN9@AddQuestCo
$LN3@AddQuestCo:

; 404  : 		}
; 405  : 		else
; 406  : 		{
; 407  : 			LOG.PrintTimeAndLog( 0, "수행 완료된 퀘스트를 완료하였다!!!! : %d - %d", rkData.GetMainIndex(), rkData.GetSubIndex() );

  000cd	8b 46 04	 mov	 eax, DWORD PTR [esi+4]
  000d0	33 d2		 xor	 edx, edx
  000d2	8b cb		 mov	 ecx, ebx
  000d4	f7 f1		 div	 ecx
  000d6	52		 push	 edx
  000d7	50		 push	 eax
  000d8	68 00 00 00 00	 push	 OFFSET ??_C@_0CO@CMBJBCDE@?$LM?v?G?$OA?5?$LP?O?$LH?a?$LF?H?5?D?y?$LN?$LK?F?$KO?$LI?$KG?5?$LP?O?$LH?a?G?O?$LP?$LE?$LE?Y?$CB@
  000dd	6a 00		 push	 0
  000df	ff 35 00 00 00
	00		 push	 DWORD PTR __imp_?LOG@@3VCLog@@A
  000e5	ff 15 00 00 00
	00		 call	 DWORD PTR __imp_?PrintTimeAndLog@CLog@@QAAXHPADZZ
  000eb	83 c4 14	 add	 esp, 20			; 00000014H

; 408  : 			return;          // Error

  000ee	eb 4b		 jmp	 SHORT $LN9@AddQuestCo
$LN11@AddQuestCo:

; 409  : 		}
; 410  : 	}
; 411  : 
; 412  : 	QuestCompleteData *pData = new QuestCompleteData;

  000f0	33 c0		 xor	 eax, eax
$LN12@AddQuestCo:
  000f2	89 45 08	 mov	 DWORD PTR _pData$[ebp], eax

; 413  : 	if( !pData )

  000f5	3b c1		 cmp	 eax, ecx
  000f7	74 42		 je	 SHORT $LN9@AddQuestCo

; 414  : 		return;
; 415  : 	*pData = rkData;

  000f9	8b 4e 04	 mov	 ecx, DWORD PTR [esi+4]
  000fc	89 48 04	 mov	 DWORD PTR [eax+4], ecx
  000ff	8b 4e 08	 mov	 ecx, DWORD PTR [esi+8]
  00102	89 48 08	 mov	 DWORD PTR [eax+8], ecx
  00105	8b 4e 0c	 mov	 ecx, DWORD PTR [esi+12]
  00108	89 48 0c	 mov	 DWORD PTR [eax+12], ecx

; 416  : 	m_vCompleteList.insert( m_vCompleteList.begin(), pData );

  0010b	8b 07		 mov	 eax, DWORD PTR [edi]
  0010d	8d 4d 08	 lea	 ecx, DWORD PTR _pData$[ebp]
  00110	51		 push	 ecx
  00111	50		 push	 eax
  00112	8d 45 f8	 lea	 eax, DWORD PTR $T515741[ebp]
  00115	50		 push	 eax
  00116	8b cf		 mov	 ecx, edi
  00118	e8 00 00 00 00	 call	 ??$emplace@AAPAVQuestCompleteData@@@?$vector@PAVQuestCompleteData@@V?$allocator@PAVQuestCompleteData@@@std@@@std@@QAE?AV?$_Vector_iterator@V?$_Vector_val@PAVQuestCompleteData@@V?$allocator@PAVQuestCompleteData@@@std@@@std@@@1@V?$_Vector_const_iterator@V?$_Vector_val@PAVQuestCompleteData@@V?$allocator@PAVQuestCompleteData@@@std@@@std@@@1@AAPAVQuestCompleteData@@@Z ; std::vector<QuestCompleteData *,std::allocator<QuestCompleteData *> >::emplace<QuestCompleteData * &>

; 417  : 	std::sort( m_vCompleteList.begin(), m_vCompleteList.end(), QuestCompleteDataSort() );

  0011d	ff 75 08	 push	 DWORD PTR $T515742[ebp]
  00120	8b 5b 18	 mov	 ebx, DWORD PTR [ebx+24]
  00123	8b 3f		 mov	 edi, DWORD PTR [edi]
  00125	53		 push	 ebx
  00126	57		 push	 edi
  00127	e8 00 00 00 00	 call	 ??$sort@V?$_Vector_iterator@V?$_Vector_val@PAVQuestCompleteData@@V?$allocator@PAVQuestCompleteData@@@std@@@std@@@std@@VQuestCompleteDataSort@@@std@@YAXV?$_Vector_iterator@V?$_Vector_val@PAVQuestCompleteData@@V?$allocator@PAVQuestCompleteData@@@std@@@std@@@0@0VQuestCompleteDataSort@@@Z ; std::sort<std::_Vector_iterator<std::_Vector_val<QuestCompleteData *,std::allocator<QuestCompleteData *> > >,QuestCompleteDataSort>
  0012c	83 c4 0c	 add	 esp, 12			; 0000000cH

; 418  : 	g_QuestMgr.QuestInfoChange();

  0012f	e8 00 00 00 00	 call	 ?GetSingleton@ioQuestManager@@SAAAV1@XZ ; ioQuestManager::GetSingleton
  00134	8b c8		 mov	 ecx, eax
  00136	e8 00 00 00 00	 call	 ?QuestInfoChange@ioQuestManager@@QAEXXZ ; ioQuestManager::QuestInfoChange
$LN9@AddQuestCo:
  0013b	5f		 pop	 edi
  0013c	5e		 pop	 esi
  0013d	5b		 pop	 ebx

; 419  : }

  0013e	c9		 leave
  0013f	c2 04 00	 ret	 4
?AddQuestCompleteData@ioQuest@@QAEXAAVQuestCompleteData@@@Z ENDP ; ioQuest::AddQuestCompleteData
_TEXT	ENDS
PUBLIC	?RemoveQuestData@ioQuest@@QAE_NKK@Z		; ioQuest::RemoveQuestData
; Function compile flags: /Ogsp
;	COMDAT ?RemoveQuestData@ioQuest@@QAE_NKK@Z
_TEXT	SEGMENT
_iter$ = -8						; size = 4
_bRemove$ = -1						; size = 1
$T516049 = 8						; size = 1
$T516048 = 8						; size = 4
_dwMainIndex$ = 8					; size = 4
_dwSubIndex$ = 12					; size = 4
?RemoveQuestData@ioQuest@@QAE_NKK@Z PROC		; ioQuest::RemoveQuestData, COMDAT
; _this$ = ecx

; 422  : {

  00000	55		 push	 ebp
  00001	8b ec		 mov	 ebp, esp
  00003	51		 push	 ecx
  00004	51		 push	 ecx
  00005	56		 push	 esi
  00006	57		 push	 edi
  00007	8b f9		 mov	 edi, ecx

; 423  : 	bool bRemove = false;
; 424  : 	vQuestInfo::iterator iter, iEnd;
; 425  : 	iEnd = m_vItemList.end();
; 426  : 	for(iter = m_vItemList.begin();iter != iEnd;iter++)

  00009	8d 77 04	 lea	 esi, DWORD PTR [edi+4]
  0000c	8b 0e		 mov	 ecx, DWORD PTR [esi]
  0000e	c6 45 ff 00	 mov	 BYTE PTR _bRemove$[ebp], 0
  00012	89 4d f8	 mov	 DWORD PTR _iter$[ebp], ecx
  00015	3b 4f 08	 cmp	 ecx, DWORD PTR [edi+8]
  00018	74 65		 je	 SHORT $LN1@RemoveQues
  0001a	53		 push	 ebx
$LL76@RemoveQues:

; 427  : 	{
; 428  : 		QuestData *pItemDB = *iter;

  0001b	8b 09		 mov	 ecx, DWORD PTR [ecx]

; 429  : 		if( !pItemDB ) continue;

  0001d	85 c9		 test	 ecx, ecx
  0001f	74 16		 je	 SHORT $LN7@RemoveQues

; 430  : 		if( pItemDB->GetMainIndex() != dwMainIndex ) continue;

  00021	8b 41 04	 mov	 eax, DWORD PTR [ecx+4]
  00024	33 d2		 xor	 edx, edx
  00026	bb 10 27 00 00	 mov	 ebx, 10000		; 00002710H
  0002b	f7 f3		 div	 ebx
  0002d	3b 45 08	 cmp	 eax, DWORD PTR _dwMainIndex$[ebp]
  00030	75 05		 jne	 SHORT $LN7@RemoveQues

; 431  : 		if( pItemDB->GetSubIndex() != dwSubIndex ) continue;

  00032	3b 55 0c	 cmp	 edx, DWORD PTR _dwSubIndex$[ebp]
  00035	74 10		 je	 SHORT $LN3@RemoveQues
$LN7@RemoveQues:

; 423  : 	bool bRemove = false;
; 424  : 	vQuestInfo::iterator iter, iEnd;
; 425  : 	iEnd = m_vItemList.end();
; 426  : 	for(iter = m_vItemList.begin();iter != iEnd;iter++)

  00037	8b 4d f8	 mov	 ecx, DWORD PTR _iter$[ebp]
  0003a	83 c1 04	 add	 ecx, 4
  0003d	89 4d f8	 mov	 DWORD PTR _iter$[ebp], ecx
  00040	3b 4f 08	 cmp	 ecx, DWORD PTR [edi+8]
  00043	75 d6		 jne	 SHORT $LL76@RemoveQues
  00045	eb 37		 jmp	 SHORT $LN77@RemoveQues
$LN3@RemoveQues:

; 432  : 		
; 433  : 		bRemove = true;
; 434  : 		SAFEDELETE( pItemDB );

  00047	8b 01		 mov	 eax, DWORD PTR [ecx]
  00049	6a 01		 push	 1
  0004b	c6 45 ff 01	 mov	 BYTE PTR _bRemove$[ebp], 1
  0004f	ff 50 0c	 call	 DWORD PTR [eax+12]

; 435  : 		m_vItemList.erase( iter );

  00052	ff 75 f8	 push	 DWORD PTR _iter$[ebp]
  00055	8d 45 08	 lea	 eax, DWORD PTR $T516048[ebp]
  00058	50		 push	 eax
  00059	8b ce		 mov	 ecx, esi
  0005b	e8 00 00 00 00	 call	 ?erase@?$vector@PAVQuestData@@V?$allocator@PAVQuestData@@@std@@@std@@QAE?AV?$_Vector_iterator@V?$_Vector_val@PAVQuestData@@V?$allocator@PAVQuestData@@@std@@@std@@@2@V?$_Vector_const_iterator@V?$_Vector_val@PAVQuestData@@V?$allocator@PAVQuestData@@@std@@@std@@@2@@Z ; std::vector<QuestData *,std::allocator<QuestData *> >::erase

; 436  : 		break;
; 437  : 	}
; 438  : 
; 439  : 	if( bRemove )
; 440  : 	{
; 441  : 		std::sort( m_vItemList.begin(), m_vItemList.end(), QuestDataSort() );

  00060	ff 75 08	 push	 DWORD PTR $T516049[ebp]
  00063	8b 7f 08	 mov	 edi, DWORD PTR [edi+8]
  00066	8b 36		 mov	 esi, DWORD PTR [esi]
  00068	57		 push	 edi
  00069	56		 push	 esi
  0006a	e8 00 00 00 00	 call	 ??$sort@V?$_Vector_iterator@V?$_Vector_val@PAVQuestData@@V?$allocator@PAVQuestData@@@std@@@std@@@std@@VQuestDataSort@@@std@@YAXV?$_Vector_iterator@V?$_Vector_val@PAVQuestData@@V?$allocator@PAVQuestData@@@std@@@std@@@0@0VQuestDataSort@@@Z ; std::sort<std::_Vector_iterator<std::_Vector_val<QuestData *,std::allocator<QuestData *> > >,QuestDataSort>
  0006f	83 c4 0c	 add	 esp, 12			; 0000000cH

; 442  : 		g_QuestMgr.QuestInfoChange();

  00072	e8 00 00 00 00	 call	 ?GetSingleton@ioQuestManager@@SAAAV1@XZ ; ioQuestManager::GetSingleton
  00077	8b c8		 mov	 ecx, eax
  00079	e8 00 00 00 00	 call	 ?QuestInfoChange@ioQuestManager@@QAEXXZ ; ioQuestManager::QuestInfoChange
$LN77@RemoveQues:
  0007e	5b		 pop	 ebx
$LN1@RemoveQues:

; 443  : 	}
; 444  : 	return bRemove;

  0007f	8a 45 ff	 mov	 al, BYTE PTR _bRemove$[ebp]
  00082	5f		 pop	 edi
  00083	5e		 pop	 esi

; 445  : }

  00084	c9		 leave
  00085	c2 08 00	 ret	 8
?RemoveQuestData@ioQuest@@QAE_NKK@Z ENDP		; ioQuest::RemoveQuestData
_TEXT	ENDS
PUBLIC	?RemoveQuestCompleteData@ioQuest@@QAE_NKK@Z	; ioQuest::RemoveQuestCompleteData
; Function compile flags: /Ogsp
;	COMDAT ?RemoveQuestCompleteData@ioQuest@@QAE_NKK@Z
_TEXT	SEGMENT
_iter$ = -8						; size = 4
_bRemove$ = -1						; size = 1
$T516229 = 8						; size = 1
$T516228 = 8						; size = 4
_dwMainIndex$ = 8					; size = 4
_dwSubIndex$ = 12					; size = 4
?RemoveQuestCompleteData@ioQuest@@QAE_NKK@Z PROC	; ioQuest::RemoveQuestCompleteData, COMDAT
; _this$ = ecx

; 448  : {

  00000	55		 push	 ebp
  00001	8b ec		 mov	 ebp, esp
  00003	51		 push	 ecx
  00004	51		 push	 ecx
  00005	56		 push	 esi
  00006	57		 push	 edi
  00007	8b f9		 mov	 edi, ecx

; 449  : 	bool bRemove = false;
; 450  : 	vQuestCompleteInfo::iterator iter, iEnd;
; 451  : 	iEnd = m_vCompleteList.end();
; 452  : 	for(iter = m_vCompleteList.begin();iter != iEnd;iter++)

  00009	8d 77 14	 lea	 esi, DWORD PTR [edi+20]
  0000c	8b 0e		 mov	 ecx, DWORD PTR [esi]
  0000e	c6 45 ff 00	 mov	 BYTE PTR _bRemove$[ebp], 0
  00012	89 4d f8	 mov	 DWORD PTR _iter$[ebp], ecx
  00015	3b 4f 18	 cmp	 ecx, DWORD PTR [edi+24]
  00018	74 65		 je	 SHORT $LN1@RemoveQues@2
  0001a	53		 push	 ebx
$LL76@RemoveQues@2:

; 453  : 	{
; 454  : 		QuestCompleteData *pItemDB = *iter;

  0001b	8b 09		 mov	 ecx, DWORD PTR [ecx]

; 455  : 		if( !pItemDB ) continue;

  0001d	85 c9		 test	 ecx, ecx
  0001f	74 16		 je	 SHORT $LN7@RemoveQues@2

; 456  : 		if( pItemDB->GetMainIndex() != dwMainIndex ) continue;

  00021	8b 41 04	 mov	 eax, DWORD PTR [ecx+4]
  00024	33 d2		 xor	 edx, edx
  00026	bb 10 27 00 00	 mov	 ebx, 10000		; 00002710H
  0002b	f7 f3		 div	 ebx
  0002d	3b 45 08	 cmp	 eax, DWORD PTR _dwMainIndex$[ebp]
  00030	75 05		 jne	 SHORT $LN7@RemoveQues@2

; 457  : 		if( pItemDB->GetSubIndex() != dwSubIndex ) continue;

  00032	3b 55 0c	 cmp	 edx, DWORD PTR _dwSubIndex$[ebp]
  00035	74 10		 je	 SHORT $LN3@RemoveQues@2
$LN7@RemoveQues@2:

; 449  : 	bool bRemove = false;
; 450  : 	vQuestCompleteInfo::iterator iter, iEnd;
; 451  : 	iEnd = m_vCompleteList.end();
; 452  : 	for(iter = m_vCompleteList.begin();iter != iEnd;iter++)

  00037	8b 4d f8	 mov	 ecx, DWORD PTR _iter$[ebp]
  0003a	83 c1 04	 add	 ecx, 4
  0003d	89 4d f8	 mov	 DWORD PTR _iter$[ebp], ecx
  00040	3b 4f 18	 cmp	 ecx, DWORD PTR [edi+24]
  00043	75 d6		 jne	 SHORT $LL76@RemoveQues@2
  00045	eb 37		 jmp	 SHORT $LN77@RemoveQues@2
$LN3@RemoveQues@2:

; 458  : 
; 459  : 		bRemove = true;
; 460  : 		SAFEDELETE( pItemDB );

  00047	8b 01		 mov	 eax, DWORD PTR [ecx]
  00049	6a 01		 push	 1
  0004b	c6 45 ff 01	 mov	 BYTE PTR _bRemove$[ebp], 1
  0004f	ff 50 0c	 call	 DWORD PTR [eax+12]

; 461  : 		m_vCompleteList.erase( iter );

  00052	ff 75 f8	 push	 DWORD PTR _iter$[ebp]
  00055	8d 45 08	 lea	 eax, DWORD PTR $T516228[ebp]
  00058	50		 push	 eax
  00059	8b ce		 mov	 ecx, esi
  0005b	e8 00 00 00 00	 call	 ?erase@?$vector@PAVQuestCompleteData@@V?$allocator@PAVQuestCompleteData@@@std@@@std@@QAE?AV?$_Vector_iterator@V?$_Vector_val@PAVQuestCompleteData@@V?$allocator@PAVQuestCompleteData@@@std@@@std@@@2@V?$_Vector_const_iterator@V?$_Vector_val@PAVQuestCompleteData@@V?$allocator@PAVQuestCompleteData@@@std@@@std@@@2@@Z ; std::vector<QuestCompleteData *,std::allocator<QuestCompleteData *> >::erase

; 462  : 		break;
; 463  : 	}
; 464  : 
; 465  : 	if( bRemove )
; 466  : 	{
; 467  : 		std::sort( m_vCompleteList.begin(), m_vCompleteList.end(), QuestCompleteDataSort() );

  00060	ff 75 08	 push	 DWORD PTR $T516229[ebp]
  00063	8b 7f 18	 mov	 edi, DWORD PTR [edi+24]
  00066	8b 36		 mov	 esi, DWORD PTR [esi]
  00068	57		 push	 edi
  00069	56		 push	 esi
  0006a	e8 00 00 00 00	 call	 ??$sort@V?$_Vector_iterator@V?$_Vector_val@PAVQuestCompleteData@@V?$allocator@PAVQuestCompleteData@@@std@@@std@@@std@@VQuestCompleteDataSort@@@std@@YAXV?$_Vector_iterator@V?$_Vector_val@PAVQuestCompleteData@@V?$allocator@PAVQuestCompleteData@@@std@@@std@@@0@0VQuestCompleteDataSort@@@Z ; std::sort<std::_Vector_iterator<std::_Vector_val<QuestCompleteData *,std::allocator<QuestCompleteData *> > >,QuestCompleteDataSort>
  0006f	83 c4 0c	 add	 esp, 12			; 0000000cH

; 468  : 		g_QuestMgr.QuestInfoChange();

  00072	e8 00 00 00 00	 call	 ?GetSingleton@ioQuestManager@@SAAAV1@XZ ; ioQuestManager::GetSingleton
  00077	8b c8		 mov	 ecx, eax
  00079	e8 00 00 00 00	 call	 ?QuestInfoChange@ioQuestManager@@QAEXXZ ; ioQuestManager::QuestInfoChange
$LN77@RemoveQues@2:
  0007e	5b		 pop	 ebx
$LN1@RemoveQues@2:

; 469  : 	}
; 470  : 	return bRemove;

  0007f	8a 45 ff	 mov	 al, BYTE PTR _bRemove$[ebp]
  00082	5f		 pop	 edi
  00083	5e		 pop	 esi

; 471  : }

  00084	c9		 leave
  00085	c2 08 00	 ret	 8
?RemoveQuestCompleteData@ioQuest@@QAE_NKK@Z ENDP	; ioQuest::RemoveQuestCompleteData
_TEXT	ENDS
PUBLIC	?RemoveQuestOneDayAll@ioQuest@@QAE_NXZ		; ioQuest::RemoveQuestOneDayAll
; Function compile flags: /Ogsp
;	COMDAT ?RemoveQuestOneDayAll@ioQuest@@QAE_NXZ
_TEXT	SEGMENT
$T516409 = -12						; size = 1
$T516408 = -12						; size = 4
tv288 = -8						; size = 4
_bRemove$ = -1						; size = 1
?RemoveQuestOneDayAll@ioQuest@@QAE_NXZ PROC		; ioQuest::RemoveQuestOneDayAll, COMDAT
; _this$ = ecx

; 474  : {

  00000	55		 push	 ebp
  00001	8b ec		 mov	 ebp, esp
  00003	83 ec 0c	 sub	 esp, 12			; 0000000cH
  00006	53		 push	 ebx
  00007	8b d9		 mov	 ebx, ecx

; 475  : 	bool bRemove = false;
; 476  : 	vQuestCompleteInfo::iterator iter;
; 477  : 	for(iter = m_vCompleteList.begin();iter != m_vCompleteList.end();)

  00009	8d 43 14	 lea	 eax, DWORD PTR [ebx+20]
  0000c	56		 push	 esi
  0000d	8b 30		 mov	 esi, DWORD PTR [eax]
  0000f	c6 45 ff 00	 mov	 BYTE PTR _bRemove$[ebp], 0
  00013	89 45 f8	 mov	 DWORD PTR tv288[ebp], eax
  00016	3b 73 18	 cmp	 esi, DWORD PTR [ebx+24]
  00019	74 6d		 je	 SHORT $LN1@RemoveQues@3
  0001b	57		 push	 edi
$LL6@RemoveQues@3:

; 478  : 	{
; 479  : 		QuestCompleteData *pItemDB = *iter;

  0001c	8b 3e		 mov	 edi, DWORD PTR [esi]

; 480  : 		if( !pItemDB || !pItemDB->GetLinkQuest() || !pItemDB->GetLinkQuest()->IsOneDayStyle() )

  0001e	85 ff		 test	 edi, edi
  00020	74 36		 je	 SHORT $LN68@RemoveQues@3
  00022	8b 07		 mov	 eax, DWORD PTR [edi]
  00024	8b cf		 mov	 ecx, edi
  00026	ff 50 08	 call	 DWORD PTR [eax+8]
  00029	85 c0		 test	 eax, eax
  0002b	74 2b		 je	 SHORT $LN68@RemoveQues@3
  0002d	8b 07		 mov	 eax, DWORD PTR [edi]
  0002f	8b cf		 mov	 ecx, edi
  00031	ff 50 08	 call	 DWORD PTR [eax+8]
  00034	80 78 18 00	 cmp	 BYTE PTR [eax+24], 0
  00038	74 1e		 je	 SHORT $LN68@RemoveQues@3

; 483  : 			continue;
; 484  : 		}
; 485  : 
; 486  : 		bRemove = true;
; 487  : 		SAFEDELETE( pItemDB );

  0003a	8b 07		 mov	 eax, DWORD PTR [edi]
  0003c	6a 01		 push	 1
  0003e	8b cf		 mov	 ecx, edi
  00040	c6 45 ff 01	 mov	 BYTE PTR _bRemove$[ebp], 1
  00044	ff 50 0c	 call	 DWORD PTR [eax+12]

; 488  : 		iter = m_vCompleteList.erase( iter );

  00047	8b 4d f8	 mov	 ecx, DWORD PTR tv288[ebp]
  0004a	56		 push	 esi
  0004b	8d 45 f4	 lea	 eax, DWORD PTR $T516408[ebp]
  0004e	50		 push	 eax
  0004f	e8 00 00 00 00	 call	 ?erase@?$vector@PAVQuestCompleteData@@V?$allocator@PAVQuestCompleteData@@@std@@@std@@QAE?AV?$_Vector_iterator@V?$_Vector_val@PAVQuestCompleteData@@V?$allocator@PAVQuestCompleteData@@@std@@@std@@@2@V?$_Vector_const_iterator@V?$_Vector_val@PAVQuestCompleteData@@V?$allocator@PAVQuestCompleteData@@@std@@@std@@@2@@Z ; std::vector<QuestCompleteData *,std::allocator<QuestCompleteData *> >::erase
  00054	8b 30		 mov	 esi, DWORD PTR [eax]

; 489  : 	}

  00056	eb 03		 jmp	 SHORT $LN67@RemoveQues@3
$LN68@RemoveQues@3:

; 481  : 		{
; 482  : 			iter++;

  00058	83 c6 04	 add	 esi, 4
$LN67@RemoveQues@3:

; 475  : 	bool bRemove = false;
; 476  : 	vQuestCompleteInfo::iterator iter;
; 477  : 	for(iter = m_vCompleteList.begin();iter != m_vCompleteList.end();)

  0005b	3b 73 18	 cmp	 esi, DWORD PTR [ebx+24]
  0005e	75 bc		 jne	 SHORT $LL6@RemoveQues@3

; 490  : 
; 491  : 	if( bRemove )

  00060	80 7d ff 00	 cmp	 BYTE PTR _bRemove$[ebp], 0
  00064	5f		 pop	 edi
  00065	74 21		 je	 SHORT $LN1@RemoveQues@3

; 492  : 	{
; 493  : 		std::sort( m_vCompleteList.begin(), m_vCompleteList.end(), QuestCompleteDataSort() );

  00067	ff 75 f4	 push	 DWORD PTR $T516409[ebp]
  0006a	8b 5b 18	 mov	 ebx, DWORD PTR [ebx+24]
  0006d	8b 45 f8	 mov	 eax, DWORD PTR tv288[ebp]
  00070	8b 00		 mov	 eax, DWORD PTR [eax]
  00072	53		 push	 ebx
  00073	50		 push	 eax
  00074	e8 00 00 00 00	 call	 ??$sort@V?$_Vector_iterator@V?$_Vector_val@PAVQuestCompleteData@@V?$allocator@PAVQuestCompleteData@@@std@@@std@@@std@@VQuestCompleteDataSort@@@std@@YAXV?$_Vector_iterator@V?$_Vector_val@PAVQuestCompleteData@@V?$allocator@PAVQuestCompleteData@@@std@@@std@@@0@0VQuestCompleteDataSort@@@Z ; std::sort<std::_Vector_iterator<std::_Vector_val<QuestCompleteData *,std::allocator<QuestCompleteData *> > >,QuestCompleteDataSort>
  00079	83 c4 0c	 add	 esp, 12			; 0000000cH

; 494  : 		g_QuestMgr.QuestInfoChange();

  0007c	e8 00 00 00 00	 call	 ?GetSingleton@ioQuestManager@@SAAAV1@XZ ; ioQuestManager::GetSingleton
  00081	8b c8		 mov	 ecx, eax
  00083	e8 00 00 00 00	 call	 ?QuestInfoChange@ioQuestManager@@QAEXXZ ; ioQuestManager::QuestInfoChange
$LN1@RemoveQues@3:

; 495  : 	}
; 496  : 	return bRemove;

  00088	8a 45 ff	 mov	 al, BYTE PTR _bRemove$[ebp]
  0008b	5e		 pop	 esi
  0008c	5b		 pop	 ebx

; 497  : }

  0008d	c9		 leave
  0008e	c3		 ret	 0
?RemoveQuestOneDayAll@ioQuest@@QAE_NXZ ENDP		; ioQuest::RemoveQuestOneDayAll
_TEXT	ENDS
PUBLIC	_this$GSCopy$
PUBLIC	?ApplyQuestData@ioQuest@@QAEXAAVSP2Packet@@@Z	; ioQuest::ApplyQuestData
EXTRN	??5SP2Packet@@QAEAAV0@AAH@Z:PROC		; SP2Packet::operator>>
;	COMDAT xdata$x
; File d:\lost saga for developer\youtube\tutorial\source\src\lsclient\ioquest.h
xdata$x	SEGMENT
__unwindtable$?ApplyQuestData@ioQuest@@QAEXAAVSP2Packet@@@Z DD 0ffffffffH
	DD	FLAT:__unwindfunclet$?ApplyQuestData@ioQuest@@QAEXAAVSP2Packet@@@Z$0
__ehfuncinfo$?ApplyQuestData@ioQuest@@QAEXAAVSP2Packet@@@Z DD 019930522H
	DD	01H
	DD	FLAT:__unwindtable$?ApplyQuestData@ioQuest@@QAEXAAVSP2Packet@@@Z
	DD	2 DUP(00H)
	DD	2 DUP(00H)
	DD	00H
	DD	01H
; Function compile flags: /Ogsp
; File d:\lost saga for developer\youtube\tutorial\source\src\lsclient\ioquest.cpp
xdata$x	ENDS
;	COMDAT ?ApplyQuestData@ioQuest@@QAEXAAVSP2Packet@@@Z
_TEXT	SEGMENT
_this$GSCopy$ = -96					; size = 4
_iMaxQuest$ = -92					; size = 4
_kData$505537 = -88					; size = 72
__$EHRec$ = -12						; size = 12
_rkPacket$ = 8						; size = 4
?ApplyQuestData@ioQuest@@QAEXAAVSP2Packet@@@Z PROC	; ioQuest::ApplyQuestData, COMDAT
; _this$ = ecx

; 214  : {

  00000	6a 54		 push	 84			; 00000054H
  00002	b8 00 00 00 00	 mov	 eax, __ehhandler$?ApplyQuestData@ioQuest@@QAEXAAVSP2Packet@@@Z
  00007	e8 00 00 00 00	 call	 __EH_prolog3_GS
  0000c	8b 75 08	 mov	 esi, DWORD PTR _rkPacket$[ebp]

; 215  : 	int iMaxQuest;
; 216  : 	rkPacket >> iMaxQuest;

  0000f	8d 45 a4	 lea	 eax, DWORD PTR _iMaxQuest$[ebp]
  00012	89 4d a0	 mov	 DWORD PTR _this$GSCopy$[ebp], ecx
  00015	50		 push	 eax
  00016	8b ce		 mov	 ecx, esi
  00018	e8 00 00 00 00	 call	 ??5SP2Packet@@QAEAAV0@AAH@Z ; SP2Packet::operator>>

; 217  : 	for(int i = 0;i < iMaxQuest;i++)

  0001d	33 db		 xor	 ebx, ebx
  0001f	39 5d a4	 cmp	 DWORD PTR _iMaxQuest$[ebp], ebx
  00022	7e 39		 jle	 SHORT $LN2@ApplyQuest
$LL4@ApplyQuest:

; 218  : 	{
; 219  : 		QuestData kData;

  00024	8d 4d a8	 lea	 ecx, DWORD PTR _kData$505537[ebp]
  00027	e8 00 00 00 00	 call	 ??0QuestData@@QAE@XZ	; QuestData::QuestData
  0002c	83 65 fc 00	 and	 DWORD PTR __$EHRec$[ebp+8], 0

; 220  : 		kData.ApplyData( rkPacket );

  00030	56		 push	 esi
  00031	8d 4d a8	 lea	 ecx, DWORD PTR _kData$505537[ebp]
  00034	e8 00 00 00 00	 call	 ?ApplyData@QuestData@@QAEXAAVSP2Packet@@@Z ; QuestData::ApplyData

; 221  : 
; 222  : 
; 223  : 		if( kData.GetIndexData() > 0 )

  00039	83 7d ac 00	 cmp	 DWORD PTR _kData$505537[ebp+4], 0
  0003d	76 0c		 jbe	 SHORT $LN1@ApplyQuest

; 224  : 		{
; 225  : 			AddQuestData( kData );					

  0003f	8b 4d a0	 mov	 ecx, DWORD PTR _this$GSCopy$[ebp]
  00042	8d 45 a8	 lea	 eax, DWORD PTR _kData$505537[ebp]
  00045	50		 push	 eax
  00046	e8 00 00 00 00	 call	 ?AddQuestData@ioQuest@@QAEXAAVQuestData@@@Z ; ioQuest::AddQuestData
$LN1@ApplyQuest:

; 226  : 		}
; 227  : 	}

  0004b	83 4d fc ff	 or	 DWORD PTR __$EHRec$[ebp+8], -1
  0004f	8d 4d a8	 lea	 ecx, DWORD PTR _kData$505537[ebp]
  00052	e8 00 00 00 00	 call	 ??1QuestData@@UAE@XZ	; QuestData::~QuestData
  00057	43		 inc	 ebx
  00058	3b 5d a4	 cmp	 ebx, DWORD PTR _iMaxQuest$[ebp]
  0005b	7c c7		 jl	 SHORT $LL4@ApplyQuest
$LN2@ApplyQuest:

; 228  : 	g_QuestMgr.QuestInfoChange();

  0005d	e8 00 00 00 00	 call	 ?GetSingleton@ioQuestManager@@SAAAV1@XZ ; ioQuestManager::GetSingleton
  00062	8b c8		 mov	 ecx, eax
  00064	e8 00 00 00 00	 call	 ?QuestInfoChange@ioQuestManager@@QAEXXZ ; ioQuestManager::QuestInfoChange

; 229  : }

  00069	e8 00 00 00 00	 call	 __EH_epilog3_GS
  0006e	c2 04 00	 ret	 4
_TEXT	ENDS
;	COMDAT text$x
text$x	SEGMENT
__unwindfunclet$?ApplyQuestData@ioQuest@@QAEXAAVSP2Packet@@@Z$0:
  00000	8d 4d a8	 lea	 ecx, DWORD PTR _kData$505537[ebp]
  00003	e9 00 00 00 00	 jmp	 ??1QuestData@@UAE@XZ	; QuestData::~QuestData
__ehhandler$?ApplyQuestData@ioQuest@@QAEXAAVSP2Packet@@@Z:
  00008	8b 54 24 08	 mov	 edx, DWORD PTR [esp+8]
  0000c	8d 42 0c	 lea	 eax, DWORD PTR [edx+12]
  0000f	8b 4a 9c	 mov	 ecx, DWORD PTR [edx-100]
  00012	33 c8		 xor	 ecx, eax
  00014	e8 00 00 00 00	 call	 @__security_check_cookie@4
  00019	8b 4a fc	 mov	 ecx, DWORD PTR [edx-4]
  0001c	33 c8		 xor	 ecx, eax
  0001e	e8 00 00 00 00	 call	 @__security_check_cookie@4
  00023	b8 00 00 00 00	 mov	 eax, OFFSET __ehfuncinfo$?ApplyQuestData@ioQuest@@QAEXAAVSP2Packet@@@Z
  00028	e9 00 00 00 00	 jmp	 ___CxxFrameHandler3
text$x	ENDS
?ApplyQuestData@ioQuest@@QAEXAAVSP2Packet@@@Z ENDP	; ioQuest::ApplyQuestData
PUBLIC	?ApplyQuestCompleteData@ioQuest@@QAEXAAVSP2Packet@@@Z ; ioQuest::ApplyQuestCompleteData
;	COMDAT xdata$x
xdata$x	SEGMENT
__unwindtable$?ApplyQuestCompleteData@ioQuest@@QAEXAAVSP2Packet@@@Z DD 0ffffffffH
	DD	FLAT:__unwindfunclet$?ApplyQuestCompleteData@ioQuest@@QAEXAAVSP2Packet@@@Z$0
__ehfuncinfo$?ApplyQuestCompleteData@ioQuest@@QAEXAAVSP2Packet@@@Z DD 019930522H
	DD	01H
	DD	FLAT:__unwindtable$?ApplyQuestCompleteData@ioQuest@@QAEXAAVSP2Packet@@@Z
	DD	2 DUP(00H)
	DD	2 DUP(00H)
	DD	00H
	DD	01H
; Function compile flags: /Ogsp
xdata$x	ENDS
;	COMDAT ?ApplyQuestCompleteData@ioQuest@@QAEXAAVSP2Packet@@@Z
_TEXT	SEGMENT
_kData$505548 = -32					; size = 16
_iMaxQuest$ = -16					; size = 4
__$EHRec$ = -12						; size = 12
_rkPacket$ = 8						; size = 4
?ApplyQuestCompleteData@ioQuest@@QAEXAAVSP2Packet@@@Z PROC ; ioQuest::ApplyQuestCompleteData, COMDAT
; _this$ = ecx

; 232  : {

  00000	6a 14		 push	 20			; 00000014H
  00002	b8 00 00 00 00	 mov	 eax, __ehhandler$?ApplyQuestCompleteData@ioQuest@@QAEXAAVSP2Packet@@@Z
  00007	e8 00 00 00 00	 call	 __EH_prolog3
  0000c	8b d9		 mov	 ebx, ecx

; 233  : 	int iMaxQuest;
; 234  : 	rkPacket >> iMaxQuest;

  0000e	8b 4d 08	 mov	 ecx, DWORD PTR _rkPacket$[ebp]
  00011	8d 45 f0	 lea	 eax, DWORD PTR _iMaxQuest$[ebp]
  00014	50		 push	 eax
  00015	e8 00 00 00 00	 call	 ??5SP2Packet@@QAEAAV0@AAH@Z ; SP2Packet::operator>>

; 235  : 	for(int i = 0;i < iMaxQuest;i++)

  0001a	33 f6		 xor	 esi, esi
  0001c	33 ff		 xor	 edi, edi
  0001e	39 75 f0	 cmp	 DWORD PTR _iMaxQuest$[ebp], esi
  00021	7e 3f		 jle	 SHORT $LN2@ApplyQuest@2
$LL4@ApplyQuest@2:

; 236  : 	{
; 237  : 		QuestCompleteData kData;

  00023	c7 45 e0 00 00
	00 00		 mov	 DWORD PTR _kData$505548[ebp], OFFSET ??_7QuestCompleteData@@6B@
  0002a	89 75 e8	 mov	 DWORD PTR _kData$505548[ebp+8], esi
  0002d	89 75 e4	 mov	 DWORD PTR _kData$505548[ebp+4], esi
  00030	89 75 ec	 mov	 DWORD PTR _kData$505548[ebp+12], esi

; 238  : 		kData.ApplyData( rkPacket );

  00033	ff 75 08	 push	 DWORD PTR _rkPacket$[ebp]
  00036	8d 4d e0	 lea	 ecx, DWORD PTR _kData$505548[ebp]
  00039	89 75 fc	 mov	 DWORD PTR __$EHRec$[ebp+8], esi
  0003c	e8 00 00 00 00	 call	 ?ApplyData@QuestCompleteData@@QAEXAAVSP2Packet@@@Z ; QuestCompleteData::ApplyData

; 239  : 
; 240  : 		if( kData.GetIndexData() > 0 )

  00041	39 75 e4	 cmp	 DWORD PTR _kData$505548[ebp+4], esi
  00044	76 0b		 jbe	 SHORT $LN1@ApplyQuest@2

; 241  : 		{
; 242  : 			AddQuestCompleteData( kData );					

  00046	8d 45 e0	 lea	 eax, DWORD PTR _kData$505548[ebp]
  00049	50		 push	 eax
  0004a	8b cb		 mov	 ecx, ebx
  0004c	e8 00 00 00 00	 call	 ?AddQuestCompleteData@ioQuest@@QAEXAAVQuestCompleteData@@@Z ; ioQuest::AddQuestCompleteData
$LN1@ApplyQuest@2:

; 243  : 		}
; 244  : 	}

  00051	83 4d fc ff	 or	 DWORD PTR __$EHRec$[ebp+8], -1
  00055	47		 inc	 edi
  00056	c7 45 e0 00 00
	00 00		 mov	 DWORD PTR _kData$505548[ebp], OFFSET ??_7QuestDataParent@@6B@
  0005d	3b 7d f0	 cmp	 edi, DWORD PTR _iMaxQuest$[ebp]
  00060	7c c1		 jl	 SHORT $LL4@ApplyQuest@2
$LN2@ApplyQuest@2:

; 245  : 	g_QuestMgr.QuestInfoChange();

  00062	e8 00 00 00 00	 call	 ?GetSingleton@ioQuestManager@@SAAAV1@XZ ; ioQuestManager::GetSingleton
  00067	8b c8		 mov	 ecx, eax
  00069	e8 00 00 00 00	 call	 ?QuestInfoChange@ioQuestManager@@QAEXXZ ; ioQuestManager::QuestInfoChange

; 246  : 
; 247  : }

  0006e	e8 00 00 00 00	 call	 __EH_epilog3
  00073	c2 04 00	 ret	 4
_TEXT	ENDS
;	COMDAT text$x
text$x	SEGMENT
__unwindfunclet$?ApplyQuestCompleteData@ioQuest@@QAEXAAVSP2Packet@@@Z$0:
  00000	8d 4d e0	 lea	 ecx, DWORD PTR _kData$505548[ebp]
  00003	e9 00 00 00 00	 jmp	 ??1QuestCompleteData@@UAE@XZ ; QuestCompleteData::~QuestCompleteData
__ehhandler$?ApplyQuestCompleteData@ioQuest@@QAEXAAVSP2Packet@@@Z:
  00008	8b 54 24 08	 mov	 edx, DWORD PTR [esp+8]
  0000c	8d 42 0c	 lea	 eax, DWORD PTR [edx+12]
  0000f	8b 4a dc	 mov	 ecx, DWORD PTR [edx-36]
  00012	33 c8		 xor	 ecx, eax
  00014	e8 00 00 00 00	 call	 @__security_check_cookie@4
  00019	b8 00 00 00 00	 mov	 eax, OFFSET __ehfuncinfo$?ApplyQuestCompleteData@ioQuest@@QAEXAAVSP2Packet@@@Z
  0001e	e9 00 00 00 00	 jmp	 ___CxxFrameHandler3
text$x	ENDS
?ApplyQuestCompleteData@ioQuest@@QAEXAAVSP2Packet@@@Z ENDP ; ioQuest::ApplyQuestCompleteData
PUBLIC	?ApplyQuestOccurData@ioQuest@@QAEXAAVSP2Packet@@@Z ; ioQuest::ApplyQuestOccurData
EXTRN	?QuestAlreadyAttain@ioQuestManager@@QAEXKK@Z:PROC ; ioQuestManager::QuestAlreadyAttain
;	COMDAT xdata$x
xdata$x	SEGMENT
__unwindtable$?ApplyQuestOccurData@ioQuest@@QAEXAAVSP2Packet@@@Z DD 0ffffffffH
	DD	FLAT:__unwindfunclet$?ApplyQuestOccurData@ioQuest@@QAEXAAVSP2Packet@@@Z$0
__ehfuncinfo$?ApplyQuestOccurData@ioQuest@@QAEXAAVSP2Packet@@@Z DD 019930522H
	DD	01H
	DD	FLAT:__unwindtable$?ApplyQuestOccurData@ioQuest@@QAEXAAVSP2Packet@@@Z
	DD	2 DUP(00H)
	DD	2 DUP(00H)
	DD	00H
	DD	01H
; Function compile flags: /Ogsp
xdata$x	ENDS
;	COMDAT ?ApplyQuestOccurData@ioQuest@@QAEXAAVSP2Packet@@@Z
_TEXT	SEGMENT
_iMaxQuest$ = -96					; size = 4
_i$505555 = -92						; size = 4
_kData$505559 = -88					; size = 72
__$EHRec$ = -12						; size = 12
_rkPacket$ = 8						; size = 4
?ApplyQuestOccurData@ioQuest@@QAEXAAVSP2Packet@@@Z PROC	; ioQuest::ApplyQuestOccurData, COMDAT
; _this$ = ecx

; 250  : {

  00000	6a 54		 push	 84			; 00000054H
  00002	b8 00 00 00 00	 mov	 eax, __ehhandler$?ApplyQuestOccurData@ioQuest@@QAEXAAVSP2Packet@@@Z
  00007	e8 00 00 00 00	 call	 __EH_prolog3_GS
  0000c	8b 75 08	 mov	 esi, DWORD PTR _rkPacket$[ebp]

; 251  : 	int iMaxQuest;
; 252  : 	rkPacket >> iMaxQuest;

  0000f	8d 45 a0	 lea	 eax, DWORD PTR _iMaxQuest$[ebp]
  00012	8b f9		 mov	 edi, ecx
  00014	50		 push	 eax
  00015	8b ce		 mov	 ecx, esi
  00017	e8 00 00 00 00	 call	 ??5SP2Packet@@QAEAAV0@AAH@Z ; SP2Packet::operator>>

; 253  : 
; 254  : 	for(int i = 0;i < iMaxQuest;i++)

  0001c	83 65 a4 00	 and	 DWORD PTR _i$505555[ebp], 0
  00020	83 7d a0 00	 cmp	 DWORD PTR _iMaxQuest$[ebp], 0
  00024	7e 57		 jle	 SHORT $LN2@ApplyQuest@3
$LL4@ApplyQuest@3:

; 255  : 	{
; 256  : 		QuestData kData;

  00026	8d 4d a8	 lea	 ecx, DWORD PTR _kData$505559[ebp]
  00029	e8 00 00 00 00	 call	 ??0QuestData@@QAE@XZ	; QuestData::QuestData
  0002e	83 65 fc 00	 and	 DWORD PTR __$EHRec$[ebp+8], 0

; 257  : 		kData.ApplyData( rkPacket );

  00032	56		 push	 esi
  00033	8d 4d a8	 lea	 ecx, DWORD PTR _kData$505559[ebp]
  00036	e8 00 00 00 00	 call	 ?ApplyData@QuestData@@QAEXAAVSP2Packet@@@Z ; QuestData::ApplyData

; 258  : 
; 259  : 		if( kData.GetIndexData() > 0 )

  0003b	83 7d ac 00	 cmp	 DWORD PTR _kData$505559[ebp+4], 0
  0003f	76 25		 jbe	 SHORT $LN1@ApplyQuest@3

; 260  : 		{
; 261  : 			AddQuestData( kData );

  00041	8d 45 a8	 lea	 eax, DWORD PTR _kData$505559[ebp]
  00044	50		 push	 eax
  00045	8b cf		 mov	 ecx, edi
  00047	e8 00 00 00 00	 call	 ?AddQuestData@ioQuest@@QAEXAAVQuestData@@@Z ; ioQuest::AddQuestData

; 262  : 
; 263  : 			// 이미 달성된 퀘스트인지 확인
; 264  : 			g_QuestMgr.QuestAlreadyAttain( kData.GetMainIndex(), kData.GetSubIndex() );

  0004c	8b 45 ac	 mov	 eax, DWORD PTR _kData$505559[ebp+4]
  0004f	33 d2		 xor	 edx, edx
  00051	b9 10 27 00 00	 mov	 ecx, 10000		; 00002710H
  00056	f7 f1		 div	 ecx
  00058	52		 push	 edx
  00059	50		 push	 eax
  0005a	e8 00 00 00 00	 call	 ?GetSingleton@ioQuestManager@@SAAAV1@XZ ; ioQuestManager::GetSingleton
  0005f	8b c8		 mov	 ecx, eax
  00061	e8 00 00 00 00	 call	 ?QuestAlreadyAttain@ioQuestManager@@QAEXKK@Z ; ioQuestManager::QuestAlreadyAttain
$LN1@ApplyQuest@3:

; 265  : 		}
; 266  : 	}

  00066	83 4d fc ff	 or	 DWORD PTR __$EHRec$[ebp+8], -1
  0006a	8d 4d a8	 lea	 ecx, DWORD PTR _kData$505559[ebp]
  0006d	e8 00 00 00 00	 call	 ??1QuestData@@UAE@XZ	; QuestData::~QuestData
  00072	ff 45 a4	 inc	 DWORD PTR _i$505555[ebp]
  00075	8b 45 a4	 mov	 eax, DWORD PTR _i$505555[ebp]
  00078	3b 45 a0	 cmp	 eax, DWORD PTR _iMaxQuest$[ebp]
  0007b	7c a9		 jl	 SHORT $LL4@ApplyQuest@3
$LN2@ApplyQuest@3:

; 267  : 	g_QuestMgr.QuestInfoChange();

  0007d	e8 00 00 00 00	 call	 ?GetSingleton@ioQuestManager@@SAAAV1@XZ ; ioQuestManager::GetSingleton
  00082	8b c8		 mov	 ecx, eax
  00084	e8 00 00 00 00	 call	 ?QuestInfoChange@ioQuestManager@@QAEXXZ ; ioQuestManager::QuestInfoChange

; 268  : }

  00089	e8 00 00 00 00	 call	 __EH_epilog3_GS
  0008e	c2 04 00	 ret	 4
_TEXT	ENDS
;	COMDAT text$x
text$x	SEGMENT
__unwindfunclet$?ApplyQuestOccurData@ioQuest@@QAEXAAVSP2Packet@@@Z$0:
  00000	8d 4d a8	 lea	 ecx, DWORD PTR _kData$505559[ebp]
  00003	e9 00 00 00 00	 jmp	 ??1QuestData@@UAE@XZ	; QuestData::~QuestData
__ehhandler$?ApplyQuestOccurData@ioQuest@@QAEXAAVSP2Packet@@@Z:
  00008	8b 54 24 08	 mov	 edx, DWORD PTR [esp+8]
  0000c	8d 42 0c	 lea	 eax, DWORD PTR [edx+12]
  0000f	8b 4a 9c	 mov	 ecx, DWORD PTR [edx-100]
  00012	33 c8		 xor	 ecx, eax
  00014	e8 00 00 00 00	 call	 @__security_check_cookie@4
  00019	8b 4a fc	 mov	 ecx, DWORD PTR [edx-4]
  0001c	33 c8		 xor	 ecx, eax
  0001e	e8 00 00 00 00	 call	 @__security_check_cookie@4
  00023	b8 00 00 00 00	 mov	 eax, OFFSET __ehfuncinfo$?ApplyQuestOccurData@ioQuest@@QAEXAAVSP2Packet@@@Z
  00028	e9 00 00 00 00	 jmp	 ___CxxFrameHandler3
text$x	ENDS
?ApplyQuestOccurData@ioQuest@@QAEXAAVSP2Packet@@@Z ENDP	; ioQuest::ApplyQuestOccurData
PUBLIC	?ApplyQuestRewardData@ioQuest@@QAEXAAVSP2Packet@@@Z ; ioQuest::ApplyQuestRewardData
EXTRN	?QuestCompleteNextOccur@ioQuestManager@@QAEXKK@Z:PROC ; ioQuestManager::QuestCompleteNextOccur
EXTRN	?DirectPresentAlarm@ioQuestManager@@QAEXKKAAVSP2Packet@@@Z:PROC ; ioQuestManager::DirectPresentAlarm
;	COMDAT xdata$x
xdata$x	SEGMENT
__unwindtable$?ApplyQuestRewardData@ioQuest@@QAEXAAVSP2Packet@@@Z DD 0ffffffffH
	DD	FLAT:__unwindfunclet$?ApplyQuestRewardData@ioQuest@@QAEXAAVSP2Packet@@@Z$0
__ehfuncinfo$?ApplyQuestRewardData@ioQuest@@QAEXAAVSP2Packet@@@Z DD 019930522H
	DD	01H
	DD	FLAT:__unwindtable$?ApplyQuestRewardData@ioQuest@@QAEXAAVSP2Packet@@@Z
	DD	2 DUP(00H)
	DD	2 DUP(00H)
	DD	00H
	DD	01H
; Function compile flags: /Ogsp
xdata$x	ENDS
;	COMDAT ?ApplyQuestRewardData@ioQuest@@QAEXAAVSP2Packet@@@Z
_TEXT	SEGMENT
_kData$505570 = -40					; size = 16
_iMaxQuest$ = -24					; size = 4
_this$ = -20						; size = 4
_i$505566 = -16						; size = 4
__$EHRec$ = -12						; size = 12
_rkPacket$ = 8						; size = 4
?ApplyQuestRewardData@ioQuest@@QAEXAAVSP2Packet@@@Z PROC ; ioQuest::ApplyQuestRewardData, COMDAT
; _this$ = ecx

; 271  : {

  00000	6a 1c		 push	 28			; 0000001cH
  00002	b8 00 00 00 00	 mov	 eax, __ehhandler$?ApplyQuestRewardData@ioQuest@@QAEXAAVSP2Packet@@@Z
  00007	e8 00 00 00 00	 call	 __EH_prolog3
  0000c	89 4d ec	 mov	 DWORD PTR _this$[ebp], ecx

; 272  : 	int iMaxQuest;
; 273  : 	rkPacket >> iMaxQuest;

  0000f	8b 4d 08	 mov	 ecx, DWORD PTR _rkPacket$[ebp]
  00012	8d 45 e8	 lea	 eax, DWORD PTR _iMaxQuest$[ebp]
  00015	50		 push	 eax
  00016	e8 00 00 00 00	 call	 ??5SP2Packet@@QAEAAV0@AAH@Z ; SP2Packet::operator>>

; 274  : 	for(int i = 0;i < iMaxQuest;i++)

  0001b	33 db		 xor	 ebx, ebx
  0001d	89 5d f0	 mov	 DWORD PTR _i$505566[ebp], ebx
  00020	39 5d e8	 cmp	 DWORD PTR _iMaxQuest$[ebp], ebx
  00023	0f 8e ba 00 00
	00		 jle	 $LN4@ApplyQuest@4
  00029	be 10 27 00 00	 mov	 esi, 10000		; 00002710H
$LN6@ApplyQuest@4:

; 275  : 	{
; 276  : 		QuestCompleteData kData;

  0002e	c7 45 d8 00 00
	00 00		 mov	 DWORD PTR _kData$505570[ebp], OFFSET ??_7QuestCompleteData@@6B@
  00035	89 5d e0	 mov	 DWORD PTR _kData$505570[ebp+8], ebx
  00038	89 5d dc	 mov	 DWORD PTR _kData$505570[ebp+4], ebx
  0003b	89 5d e4	 mov	 DWORD PTR _kData$505570[ebp+12], ebx

; 277  : 		kData.ApplyData( rkPacket );

  0003e	ff 75 08	 push	 DWORD PTR _rkPacket$[ebp]
  00041	8d 4d d8	 lea	 ecx, DWORD PTR _kData$505570[ebp]
  00044	89 5d fc	 mov	 DWORD PTR __$EHRec$[ebp+8], ebx
  00047	e8 00 00 00 00	 call	 ?ApplyData@QuestCompleteData@@QAEXAAVSP2Packet@@@Z ; QuestCompleteData::ApplyData

; 278  : 
; 279  : 		// 즉시 받은 선물 처리
; 280  : 		g_QuestMgr.DirectPresentAlarm( kData.GetMainIndex(), kData.GetSubIndex(), rkPacket );

  0004c	8b 45 dc	 mov	 eax, DWORD PTR _kData$505570[ebp+4]
  0004f	33 d2		 xor	 edx, edx
  00051	8b ce		 mov	 ecx, esi
  00053	f7 f1		 div	 ecx
  00055	ff 75 08	 push	 DWORD PTR _rkPacket$[ebp]
  00058	52		 push	 edx
  00059	50		 push	 eax
  0005a	e8 00 00 00 00	 call	 ?GetSingleton@ioQuestManager@@SAAAV1@XZ ; ioQuestManager::GetSingleton
  0005f	8b c8		 mov	 ecx, eax
  00061	e8 00 00 00 00	 call	 ?DirectPresentAlarm@ioQuestManager@@QAEXKKAAVSP2Packet@@@Z ; ioQuestManager::DirectPresentAlarm

; 281  : 
; 282  : 		if( kData.GetIndexData() > 0 )

  00066	8b 45 dc	 mov	 eax, DWORD PTR _kData$505570[ebp+4]
  00069	3b c3		 cmp	 eax, ebx
  0006b	76 5c		 jbe	 SHORT $LN3@ApplyQuest@4

; 283  : 		{
; 284  : 			// 목록에서 제거
; 285  : 			RemoveQuestData( kData.GetMainIndex(), kData.GetSubIndex() ); 

  0006d	33 d2		 xor	 edx, edx
  0006f	8b ce		 mov	 ecx, esi
  00071	f7 f1		 div	 ecx
  00073	8b 4d ec	 mov	 ecx, DWORD PTR _this$[ebp]
  00076	52		 push	 edx
  00077	50		 push	 eax
  00078	e8 00 00 00 00	 call	 ?RemoveQuestData@ioQuest@@QAE_NKK@Z ; ioQuest::RemoveQuestData

; 286  : 
; 287  : 			QuestParent *pQuestParent = g_QuestMgr.GetQuest( kData.GetMainIndex(), kData.GetSubIndex() );

  0007d	8b 45 dc	 mov	 eax, DWORD PTR _kData$505570[ebp+4]
  00080	33 d2		 xor	 edx, edx
  00082	8b ce		 mov	 ecx, esi
  00084	f7 f1		 div	 ecx
  00086	52		 push	 edx
  00087	50		 push	 eax
  00088	e8 00 00 00 00	 call	 ?GetSingleton@ioQuestManager@@SAAAV1@XZ ; ioQuestManager::GetSingleton
  0008d	8b c8		 mov	 ecx, eax
  0008f	e8 00 00 00 00	 call	 ?GetQuest@ioQuestManager@@QAEPAVQuestParent@@KK@Z ; ioQuestManager::GetQuest
  00094	8b f8		 mov	 edi, eax

; 288  : 			if( pQuestParent )

  00096	3b fb		 cmp	 edi, ebx
  00098	74 18		 je	 SHORT $LN1@ApplyQuest@4

; 289  : 			{
; 290  : 				pQuestParent->ProcessRewardComplete();

  0009a	8b 07		 mov	 eax, DWORD PTR [edi]
  0009c	8b cf		 mov	 ecx, edi
  0009e	ff 50 50	 call	 DWORD PTR [eax+80]

; 291  : 				if( !pQuestParent->IsRepeatStyle() )

  000a1	38 5f 19	 cmp	 BYTE PTR [edi+25], bl
  000a4	75 0c		 jne	 SHORT $LN1@ApplyQuest@4

; 292  : 				{
; 293  : 					// 완료 상태 갱신
; 294  : 					AddQuestCompleteData( kData );

  000a6	8b 4d ec	 mov	 ecx, DWORD PTR _this$[ebp]
  000a9	8d 45 d8	 lea	 eax, DWORD PTR _kData$505570[ebp]
  000ac	50		 push	 eax
  000ad	e8 00 00 00 00	 call	 ?AddQuestCompleteData@ioQuest@@QAEXAAVQuestCompleteData@@@Z ; ioQuest::AddQuestCompleteData
$LN1@ApplyQuest@4:

; 295  : 				}
; 296  : 			}		
; 297  : 
; 298  : 			// 다음 연속 퀘스트가 있는지 확인
; 299  : 			g_QuestMgr.QuestCompleteNextOccur( kData.GetMainIndex(), kData.GetSubIndex() );

  000b2	8b 45 dc	 mov	 eax, DWORD PTR _kData$505570[ebp+4]
  000b5	33 d2		 xor	 edx, edx
  000b7	8b ce		 mov	 ecx, esi
  000b9	f7 f1		 div	 ecx
  000bb	52		 push	 edx
  000bc	50		 push	 eax
  000bd	e8 00 00 00 00	 call	 ?GetSingleton@ioQuestManager@@SAAAV1@XZ ; ioQuestManager::GetSingleton
  000c2	8b c8		 mov	 ecx, eax
  000c4	e8 00 00 00 00	 call	 ?QuestCompleteNextOccur@ioQuestManager@@QAEXKK@Z ; ioQuestManager::QuestCompleteNextOccur
$LN3@ApplyQuest@4:

; 300  : 		}
; 301  : 	}

  000c9	83 4d fc ff	 or	 DWORD PTR __$EHRec$[ebp+8], -1
  000cd	ff 45 f0	 inc	 DWORD PTR _i$505566[ebp]
  000d0	8b 45 f0	 mov	 eax, DWORD PTR _i$505566[ebp]
  000d3	c7 45 d8 00 00
	00 00		 mov	 DWORD PTR _kData$505570[ebp], OFFSET ??_7QuestDataParent@@6B@
  000da	3b 45 e8	 cmp	 eax, DWORD PTR _iMaxQuest$[ebp]
  000dd	0f 8c 4b ff ff
	ff		 jl	 $LN6@ApplyQuest@4
$LN4@ApplyQuest@4:

; 302  : 	g_QuestMgr.QuestInfoChange();

  000e3	e8 00 00 00 00	 call	 ?GetSingleton@ioQuestManager@@SAAAV1@XZ ; ioQuestManager::GetSingleton
  000e8	8b c8		 mov	 ecx, eax
  000ea	e8 00 00 00 00	 call	 ?QuestInfoChange@ioQuestManager@@QAEXXZ ; ioQuestManager::QuestInfoChange

; 303  : }

  000ef	e8 00 00 00 00	 call	 __EH_epilog3
  000f4	c2 04 00	 ret	 4
_TEXT	ENDS
;	COMDAT text$x
text$x	SEGMENT
__unwindfunclet$?ApplyQuestRewardData@ioQuest@@QAEXAAVSP2Packet@@@Z$0:
  00000	8d 4d d8	 lea	 ecx, DWORD PTR _kData$505570[ebp]
  00003	e9 00 00 00 00	 jmp	 ??1QuestCompleteData@@UAE@XZ ; QuestCompleteData::~QuestCompleteData
__ehhandler$?ApplyQuestRewardData@ioQuest@@QAEXAAVSP2Packet@@@Z:
  00008	8b 54 24 08	 mov	 edx, DWORD PTR [esp+8]
  0000c	8d 42 0c	 lea	 eax, DWORD PTR [edx+12]
  0000f	8b 4a d4	 mov	 ecx, DWORD PTR [edx-44]
  00012	33 c8		 xor	 ecx, eax
  00014	e8 00 00 00 00	 call	 @__security_check_cookie@4
  00019	b8 00 00 00 00	 mov	 eax, OFFSET __ehfuncinfo$?ApplyQuestRewardData@ioQuest@@QAEXAAVSP2Packet@@@Z
  0001e	e9 00 00 00 00	 jmp	 ___CxxFrameHandler3
text$x	ENDS
?ApplyQuestRewardData@ioQuest@@QAEXAAVSP2Packet@@@Z ENDP ; ioQuest::ApplyQuestRewardData
; Function compile flags: /Ogsp
;	COMDAT ??__FkNoneItem@?8??GetQuestData@ioQuest@@QAEAAVQuestData@@KK@Z@YAXXZ
text$yd	SEGMENT
??__FkNoneItem@?8??GetQuestData@ioQuest@@QAEAAVQuestData@@KK@Z@YAXXZ PROC ; `ioQuest::GetQuestData'::`9'::`dynamic atexit destructor for 'kNoneItem'', COMDAT
  00000	b9 00 00 00 00	 mov	 ecx, OFFSET ?kNoneItem@?8??GetQuestData@ioQuest@@QAEAAVQuestData@@KK@Z@4V3@A
  00005	e9 00 00 00 00	 jmp	 ??1QuestData@@UAE@XZ	; QuestData::~QuestData
??__FkNoneItem@?8??GetQuestData@ioQuest@@QAEAAVQuestData@@KK@Z@YAXXZ ENDP ; `ioQuest::GetQuestData'::`9'::`dynamic atexit destructor for 'kNoneItem''
; Function compile flags: /Ogsp
text$yd	ENDS
;	COMDAT ??__FkNoneItem@?M@??GetProcessToArray@ioQuest@@QAE?AVQuestData@@H@Z@YAXXZ
text$yd	SEGMENT
??__FkNoneItem@?M@??GetProcessToArray@ioQuest@@QAE?AVQuestData@@H@Z@YAXXZ PROC ; `ioQuest::GetProcessToArray'::`12'::`dynamic atexit destructor for 'kNoneItem'', COMDAT
  00000	b9 00 00 00 00	 mov	 ecx, OFFSET ?kNoneItem@?M@??GetProcessToArray@ioQuest@@QAE?AVQuestData@@H@Z@4V3@A
  00005	e9 00 00 00 00	 jmp	 ??1QuestData@@UAE@XZ	; QuestData::~QuestData
??__FkNoneItem@?M@??GetProcessToArray@ioQuest@@QAE?AVQuestData@@H@Z@YAXXZ ENDP ; `ioQuest::GetProcessToArray'::`12'::`dynamic atexit destructor for 'kNoneItem''
; Function compile flags: /Ogsp
text$yd	ENDS
;	COMDAT ??__FkNoneItem@?BK@??GetAttainNCompleteToArray@ioQuest@@QAE?AVQuestData@@H@Z@YAXXZ
text$yd	SEGMENT
??__FkNoneItem@?BK@??GetAttainNCompleteToArray@ioQuest@@QAE?AVQuestData@@H@Z@YAXXZ PROC ; `ioQuest::GetAttainNCompleteToArray'::`26'::`dynamic atexit destructor for 'kNoneItem'', COMDAT
  00000	b9 00 00 00 00	 mov	 ecx, OFFSET ?kNoneItem@?BK@??GetAttainNCompleteToArray@ioQuest@@QAE?AVQuestData@@H@Z@4V3@A
  00005	e9 00 00 00 00	 jmp	 ??1QuestData@@UAE@XZ	; QuestData::~QuestData
??__FkNoneItem@?BK@??GetAttainNCompleteToArray@ioQuest@@QAE?AVQuestData@@H@Z@YAXXZ ENDP ; `ioQuest::GetAttainNCompleteToArray'::`26'::`dynamic atexit destructor for 'kNoneItem''
; Function compile flags: /Ogsp
text$yd	ENDS
;	COMDAT ??__FkNoneItem@?M@??GetAlarmQuestToArray@ioQuest@@QAE?AVQuestData@@H@Z@YAXXZ
text$yd	SEGMENT
??__FkNoneItem@?M@??GetAlarmQuestToArray@ioQuest@@QAE?AVQuestData@@H@Z@YAXXZ PROC ; `ioQuest::GetAlarmQuestToArray'::`12'::`dynamic atexit destructor for 'kNoneItem'', COMDAT
  00000	b9 00 00 00 00	 mov	 ecx, OFFSET ?kNoneItem@?M@??GetAlarmQuestToArray@ioQuest@@QAE?AVQuestData@@H@Z@4V3@A
  00005	e9 00 00 00 00	 jmp	 ??1QuestData@@UAE@XZ	; QuestData::~QuestData
??__FkNoneItem@?M@??GetAlarmQuestToArray@ioQuest@@QAE?AVQuestData@@H@Z@YAXXZ ENDP ; `ioQuest::GetAlarmQuestToArray'::`12'::`dynamic atexit destructor for 'kNoneItem''
text$yd	ENDS
END
