; Listing generated by Microsoft (R) Optimizing Compiler Version 16.00.30319.01 

	TITLE	D:\Lost Saga For Developer\Youtube\Tutorial\Source\src\LSClient\ioRangeTargetShotSkill.cpp
	.686P
	.XMM
	include listing.inc
	.model	flat

INCLUDELIB MSVCRT
INCLUDELIB OLDNAMES

PUBLIC	?_EEM_DS@?$deque@UD3DXVECTOR3@@V?$allocator@UD3DXVECTOR3@@@std@@@std@@2HB ; std::deque<D3DXVECTOR3,std::allocator<D3DXVECTOR3> >::_EEM_DS
;	COMDAT ?_EEM_DS@?$deque@UD3DXVECTOR3@@V?$allocator@UD3DXVECTOR3@@@std@@@std@@2HB
CONST	SEGMENT
?_EEM_DS@?$deque@UD3DXVECTOR3@@V?$allocator@UD3DXVECTOR3@@@std@@@std@@2HB DD 01H ; std::deque<D3DXVECTOR3,std::allocator<D3DXVECTOR3> >::_EEM_DS
CONST	ENDS
PUBLIC	?return1@@YAIXZ					; return1
; Function compile flags: /Ogsp
; File d:\lost saga for developer\youtube\tutorial\source\src\lsclient\stdafx.h
;	COMDAT ?return1@@YAIXZ
_TEXT	SEGMENT
?return1@@YAIXZ PROC					; return1, COMDAT

; 17   : 	__forceinline unsigned int return1() { __asm mov eax, 1 };

  00000	b8 01 00 00 00	 mov	 eax, 1
  00005	c3		 ret	 0
?return1@@YAIXZ ENDP					; return1
_TEXT	ENDS
PUBLIC	?return5@@YAIXZ					; return5
; Function compile flags: /Ogsp
;	COMDAT ?return5@@YAIXZ
_TEXT	SEGMENT
?return5@@YAIXZ PROC					; return5, COMDAT

; 18   : 	__forceinline unsigned int return5() { __asm mov eax, 5 };

  00000	b8 05 00 00 00	 mov	 eax, 5
  00005	c3		 ret	 0
?return5@@YAIXZ ENDP					; return5
_TEXT	ENDS
PUBLIC	?return10@@YAIXZ				; return10
; Function compile flags: /Ogsp
;	COMDAT ?return10@@YAIXZ
_TEXT	SEGMENT
?return10@@YAIXZ PROC					; return10, COMDAT

; 21   : 	__forceinline unsigned int return10() { __asm mov eax, 10 };

  00000	b8 0a 00 00 00	 mov	 eax, 10			; 0000000aH
  00005	c3		 ret	 0
?return10@@YAIXZ ENDP					; return10
_TEXT	ENDS
PUBLIC	?return100@@YAIXZ				; return100
; Function compile flags: /Ogsp
;	COMDAT ?return100@@YAIXZ
_TEXT	SEGMENT
?return100@@YAIXZ PROC					; return100, COMDAT

; 25   : 	__forceinline unsigned int return100() { __asm mov eax, 100 };

  00000	b8 64 00 00 00	 mov	 eax, 100		; 00000064H
  00005	c3		 ret	 0
?return100@@YAIXZ ENDP					; return100
_TEXT	ENDS
PUBLIC	?GetBlowStopMotionState@ioBaseChar@@QBE_NXZ	; ioBaseChar::GetBlowStopMotionState
; Function compile flags: /Ogsp
; File d:\lost saga for developer\youtube\tutorial\source\src\lsclient\iobasechar.h
;	COMDAT ?GetBlowStopMotionState@ioBaseChar@@QBE_NXZ
_TEXT	SEGMENT
?GetBlowStopMotionState@ioBaseChar@@QBE_NXZ PROC	; ioBaseChar::GetBlowStopMotionState, COMDAT
; _this$ = ecx

; 1566 : 	inline bool GetBlowStopMotionState() const { return m_bBlowStopMotion; }

  00000	8a 81 c7 15 00
	00		 mov	 al, BYTE PTR [ecx+5575]
  00006	c3		 ret	 0
?GetBlowStopMotionState@ioBaseChar@@QBE_NXZ ENDP	; ioBaseChar::GetBlowStopMotionState
_TEXT	ENDS
PUBLIC	?GetBlowFrozenState@ioBaseChar@@QBE_NXZ		; ioBaseChar::GetBlowFrozenState
; Function compile flags: /Ogsp
;	COMDAT ?GetBlowFrozenState@ioBaseChar@@QBE_NXZ
_TEXT	SEGMENT
?GetBlowFrozenState@ioBaseChar@@QBE_NXZ PROC		; ioBaseChar::GetBlowFrozenState, COMDAT
; _this$ = ecx

; 1571 : 	inline bool GetBlowFrozenState() const { return m_bBlowFrozenState; }

  00000	8a 81 c5 15 00
	00		 mov	 al, BYTE PTR [ecx+5573]
  00006	c3		 ret	 0
?GetBlowFrozenState@ioBaseChar@@QBE_NXZ ENDP		; ioBaseChar::GetBlowFrozenState
_TEXT	ENDS
PUBLIC	?GetState@ioBaseChar@@QBE?AW4CharState@@XZ	; ioBaseChar::GetState
; Function compile flags: /Ogsp
;	COMDAT ?GetState@ioBaseChar@@QBE?AW4CharState@@XZ
_TEXT	SEGMENT
?GetState@ioBaseChar@@QBE?AW4CharState@@XZ PROC		; ioBaseChar::GetState, COMDAT
; _this$ = ecx

; 2156 : 	inline CharState GetState() const { return m_CharState; }	

  00000	8a 81 10 03 00
	00		 mov	 al, BYTE PTR [ecx+784]
  00006	c3		 ret	 0
?GetState@ioBaseChar@@QBE?AW4CharState@@XZ ENDP		; ioBaseChar::GetState
_TEXT	ENDS
PUBLIC	?GetCharName@ioBaseChar@@QBEABVioHashString@@XZ	; ioBaseChar::GetCharName
; Function compile flags: /Ogsp
;	COMDAT ?GetCharName@ioBaseChar@@QBEABVioHashString@@XZ
_TEXT	SEGMENT
?GetCharName@ioBaseChar@@QBEABVioHashString@@XZ PROC	; ioBaseChar::GetCharName, COMDAT
; _this$ = ecx

; 2594 : 	inline const ioHashString& GetCharName() const { return m_Name; }

  00000	8d 81 d4 02 00
	00		 lea	 eax, DWORD PTR [ecx+724]
  00006	c3		 ret	 0
?GetCharName@ioBaseChar@@QBEABVioHashString@@XZ ENDP	; ioBaseChar::GetCharName
_TEXT	ENDS
PUBLIC	?GetTargetRot@ioBaseChar@@QBEABUD3DXQUATERNION@@XZ ; ioBaseChar::GetTargetRot
; Function compile flags: /Ogsp
;	COMDAT ?GetTargetRot@ioBaseChar@@QBEABUD3DXQUATERNION@@XZ
_TEXT	SEGMENT
?GetTargetRot@ioBaseChar@@QBEABUD3DXQUATERNION@@XZ PROC	; ioBaseChar::GetTargetRot, COMDAT
; _this$ = ecx

; 2599 : 	inline const D3DXQUATERNION& GetTargetRot() const { return m_qtTargetRot; }

  00000	8d 81 a4 06 00
	00		 lea	 eax, DWORD PTR [ecx+1700]
  00006	c3		 ret	 0
?GetTargetRot@ioBaseChar@@QBEABUD3DXQUATERNION@@XZ ENDP	; ioBaseChar::GetTargetRot
_TEXT	ENDS
PUBLIC	_acosf
EXTRN	__fltused:DWORD
EXTRN	__CIacos:PROC
; Function compile flags: /Ogsp
; File c:\program files (x86)\microsoft visual studio 10.0\vc\include\math.h
;	COMDAT _acosf
_TEXT	SEGMENT
tv69 = 8						; size = 4
__X$ = 8						; size = 4
_acosf	PROC						; COMDAT

; 400  :         {return ((float)acos((double)_X)); }

  00000	55		 push	 ebp
  00001	8b ec		 mov	 ebp, esp
  00003	d9 45 08	 fld	 DWORD PTR __X$[ebp]
  00006	e8 00 00 00 00	 call	 __CIacos
  0000b	d9 5d 08	 fstp	 DWORD PTR tv69[ebp]
  0000e	d9 45 08	 fld	 DWORD PTR tv69[ebp]
  00011	5d		 pop	 ebp
  00012	c3		 ret	 0
_acosf	ENDP
_TEXT	ENDS
PUBLIC	??_7bad_alloc@std@@6B@				; std::bad_alloc::`vftable'
PUBLIC	??0bad_alloc@std@@QAE@PBD@Z			; std::bad_alloc::bad_alloc
PUBLIC	??_R4bad_alloc@std@@6B@				; std::bad_alloc::`RTTI Complete Object Locator'
PUBLIC	??_R0?AVbad_alloc@std@@@8			; std::bad_alloc `RTTI Type Descriptor'
PUBLIC	??_R3bad_alloc@std@@8				; std::bad_alloc::`RTTI Class Hierarchy Descriptor'
PUBLIC	??_R2bad_alloc@std@@8				; std::bad_alloc::`RTTI Base Class Array'
PUBLIC	??_R1A@?0A@EA@bad_alloc@std@@8			; std::bad_alloc::`RTTI Base Class Descriptor at (0,-1,0,64)'
PUBLIC	??_R1A@?0A@EA@exception@std@@8			; std::exception::`RTTI Base Class Descriptor at (0,-1,0,64)'
PUBLIC	??_R0?AVexception@std@@@8			; std::exception `RTTI Type Descriptor'
PUBLIC	??_R3exception@std@@8				; std::exception::`RTTI Class Hierarchy Descriptor'
PUBLIC	??_R2exception@std@@8				; std::exception::`RTTI Base Class Array'
EXTRN	__imp_??0exception@std@@QAE@ABQBD@Z:PROC
EXTRN	??_7type_info@@6B@:QWORD			; type_info::`vftable'
EXTRN	??_Ebad_alloc@std@@UAEPAXI@Z:PROC		; std::bad_alloc::`vector deleting destructor'
EXTRN	?what@exception@std@@UBEPBDXZ:PROC		; std::exception::what
;	COMDAT ??_R2exception@std@@8
; File c:\program files (x86)\microsoft visual studio 10.0\vc\include\exception
rdata$r	SEGMENT
??_R2exception@std@@8 DD FLAT:??_R1A@?0A@EA@exception@std@@8 ; std::exception::`RTTI Base Class Array'
rdata$r	ENDS
;	COMDAT ??_R3exception@std@@8
rdata$r	SEGMENT
??_R3exception@std@@8 DD 00H				; std::exception::`RTTI Class Hierarchy Descriptor'
	DD	00H
	DD	01H
	DD	FLAT:??_R2exception@std@@8
rdata$r	ENDS
;	COMDAT ??_R0?AVexception@std@@@8
_DATA	SEGMENT
??_R0?AVexception@std@@@8 DD FLAT:??_7type_info@@6B@	; std::exception `RTTI Type Descriptor'
	DD	00H
	DB	'.?AVexception@std@@', 00H
_DATA	ENDS
;	COMDAT ??_R1A@?0A@EA@exception@std@@8
rdata$r	SEGMENT
??_R1A@?0A@EA@exception@std@@8 DD FLAT:??_R0?AVexception@std@@@8 ; std::exception::`RTTI Base Class Descriptor at (0,-1,0,64)'
	DD	00H
	DD	00H
	DD	0ffffffffH
	DD	00H
	DD	040H
	DD	FLAT:??_R3exception@std@@8
rdata$r	ENDS
;	COMDAT ??_R1A@?0A@EA@bad_alloc@std@@8
rdata$r	SEGMENT
??_R1A@?0A@EA@bad_alloc@std@@8 DD FLAT:??_R0?AVbad_alloc@std@@@8 ; std::bad_alloc::`RTTI Base Class Descriptor at (0,-1,0,64)'
	DD	01H
	DD	00H
	DD	0ffffffffH
	DD	00H
	DD	040H
	DD	FLAT:??_R3bad_alloc@std@@8
rdata$r	ENDS
;	COMDAT ??_R2bad_alloc@std@@8
rdata$r	SEGMENT
??_R2bad_alloc@std@@8 DD FLAT:??_R1A@?0A@EA@bad_alloc@std@@8 ; std::bad_alloc::`RTTI Base Class Array'
	DD	FLAT:??_R1A@?0A@EA@exception@std@@8
rdata$r	ENDS
;	COMDAT ??_R3bad_alloc@std@@8
rdata$r	SEGMENT
??_R3bad_alloc@std@@8 DD 00H				; std::bad_alloc::`RTTI Class Hierarchy Descriptor'
	DD	00H
	DD	02H
	DD	FLAT:??_R2bad_alloc@std@@8
rdata$r	ENDS
;	COMDAT ??_R0?AVbad_alloc@std@@@8
_DATA	SEGMENT
??_R0?AVbad_alloc@std@@@8 DD FLAT:??_7type_info@@6B@	; std::bad_alloc `RTTI Type Descriptor'
	DD	00H
	DB	'.?AVbad_alloc@std@@', 00H
_DATA	ENDS
;	COMDAT ??_R4bad_alloc@std@@6B@
rdata$r	SEGMENT
??_R4bad_alloc@std@@6B@ DD 00H				; std::bad_alloc::`RTTI Complete Object Locator'
	DD	00H
	DD	00H
	DD	FLAT:??_R0?AVbad_alloc@std@@@8
	DD	FLAT:??_R3bad_alloc@std@@8
rdata$r	ENDS
;	COMDAT ??_7bad_alloc@std@@6B@
CONST	SEGMENT
??_7bad_alloc@std@@6B@ DD FLAT:??_R4bad_alloc@std@@6B@	; std::bad_alloc::`vftable'
	DD	FLAT:??_Ebad_alloc@std@@UAEPAXI@Z
	DD	FLAT:?what@exception@std@@UBEPBDXZ
; Function compile flags: /Ogsp
CONST	ENDS
;	COMDAT ??0bad_alloc@std@@QAE@PBD@Z
_TEXT	SEGMENT
__Message$ = 8						; size = 4
??0bad_alloc@std@@QAE@PBD@Z PROC			; std::bad_alloc::bad_alloc, COMDAT
; _this$ = ecx

; 345  : 		{	// construct from message string

  00000	55		 push	 ebp
  00001	8b ec		 mov	 ebp, esp
  00003	56		 push	 esi
  00004	8d 45 08	 lea	 eax, DWORD PTR __Message$[ebp]
  00007	50		 push	 eax
  00008	8b f1		 mov	 esi, ecx
  0000a	ff 15 00 00 00
	00		 call	 DWORD PTR __imp_??0exception@std@@QAE@ABQBD@Z
  00010	c7 06 00 00 00
	00		 mov	 DWORD PTR [esi], OFFSET ??_7bad_alloc@std@@6B@

; 346  : 		}

  00016	8b c6		 mov	 eax, esi
  00018	5e		 pop	 esi
  00019	5d		 pop	 ebp
  0001a	c2 04 00	 ret	 4
??0bad_alloc@std@@QAE@PBD@Z ENDP			; std::bad_alloc::bad_alloc
_TEXT	ENDS
PUBLIC	??1bad_alloc@std@@UAE@XZ			; std::bad_alloc::~bad_alloc
EXTRN	__imp_??1exception@std@@UAE@XZ:PROC
; Function compile flags: /Ogsp
;	COMDAT ??1bad_alloc@std@@UAE@XZ
_TEXT	SEGMENT
??1bad_alloc@std@@UAE@XZ PROC				; std::bad_alloc::~bad_alloc, COMDAT
; _this$ = ecx

; 354  : 		{	// destroy the object

  00000	c7 01 00 00 00
	00		 mov	 DWORD PTR [ecx], OFFSET ??_7bad_alloc@std@@6B@

; 355  : 		}

  00006	ff 25 00 00 00
	00		 jmp	 DWORD PTR __imp_??1exception@std@@UAE@XZ
??1bad_alloc@std@@UAE@XZ ENDP				; std::bad_alloc::~bad_alloc
_TEXT	ENDS
EXTRN	??3@YAXPAX@Z:PROC				; operator delete
; Function compile flags: /Ogsp
;	COMDAT ??_Gbad_alloc@std@@UAEPAXI@Z
_TEXT	SEGMENT
___flags$ = 8						; size = 4
??_Gbad_alloc@std@@UAEPAXI@Z PROC			; std::bad_alloc::`scalar deleting destructor', COMDAT
; _this$ = ecx
  00000	55		 push	 ebp
  00001	8b ec		 mov	 ebp, esp
  00003	56		 push	 esi
  00004	8b f1		 mov	 esi, ecx
  00006	c7 06 00 00 00
	00		 mov	 DWORD PTR [esi], OFFSET ??_7bad_alloc@std@@6B@
  0000c	ff 15 00 00 00
	00		 call	 DWORD PTR __imp_??1exception@std@@UAE@XZ
  00012	f6 45 08 01	 test	 BYTE PTR ___flags$[ebp], 1
  00016	74 07		 je	 SHORT $LN1@scalar
  00018	56		 push	 esi
  00019	e8 00 00 00 00	 call	 ??3@YAXPAX@Z		; operator delete
  0001e	59		 pop	 ecx
$LN1@scalar:
  0001f	8b c6		 mov	 eax, esi
  00021	5e		 pop	 esi
  00022	5d		 pop	 ebp
  00023	c2 04 00	 ret	 4
??_Gbad_alloc@std@@UAEPAXI@Z ENDP			; std::bad_alloc::`scalar deleting destructor'
_TEXT	ENDS
PUBLIC	??2@YAPAXIPAX@Z					; operator new
; Function compile flags: /Ogsp
; File c:\program files (x86)\microsoft visual studio 10.0\vc\include\new
;	COMDAT ??2@YAPAXIPAX@Z
_TEXT	SEGMENT
___formal$ = 8						; size = 4
__Where$ = 12						; size = 4
??2@YAPAXIPAX@Z PROC					; operator new, COMDAT

; 56   : 	{	// construct array with placement at _Where

  00000	55		 push	 ebp
  00001	8b ec		 mov	 ebp, esp

; 57   : 	return (_Where);

  00003	8b 45 0c	 mov	 eax, DWORD PTR __Where$[ebp]

; 58   : 	}

  00006	5d		 pop	 ebp
  00007	c3		 ret	 0
??2@YAPAXIPAX@Z ENDP					; operator new
_TEXT	ENDS
PUBLIC	??3@YAXPAX0@Z					; operator delete
; Function compile flags: /Ogsp
;	COMDAT ??3@YAXPAX0@Z
_TEXT	SEGMENT
___formal$ = 8						; size = 4
___formal$ = 12						; size = 4
??3@YAXPAX0@Z PROC					; operator delete, COMDAT

; 62   : 	}

  00000	c3		 ret	 0
??3@YAXPAX0@Z ENDP					; operator delete
_TEXT	ENDS
PUBLIC	?GetCreator@ioBaseChar@@QAEPAVioPlayStage@@XZ	; ioBaseChar::GetCreator
; Function compile flags: /Ogsp
; File d:\lost saga for developer\youtube\tutorial\source\src\lsclient\iobasechar.h
;	COMDAT ?GetCreator@ioBaseChar@@QAEPAVioPlayStage@@XZ
_TEXT	SEGMENT
?GetCreator@ioBaseChar@@QAEPAVioPlayStage@@XZ PROC	; ioBaseChar::GetCreator, COMDAT
; _this$ = ecx

; 4013 : 	inline ioPlayStage* GetCreator() { return m_pCreator; }

  00000	8b 81 44 03 00
	00		 mov	 eax, DWORD PTR [ecx+836]
  00006	c3		 ret	 0
?GetCreator@ioBaseChar@@QAEPAVioPlayStage@@XZ ENDP	; ioBaseChar::GetCreator
_TEXT	ENDS
PUBLIC	?GetBaseCharList@ioPlayStage@@QBEABV?$vector@PAVioBaseChar@@V?$allocator@PAVioBaseChar@@@std@@@std@@XZ ; ioPlayStage::GetBaseCharList
; Function compile flags: /Ogsp
; File d:\lost saga for developer\youtube\tutorial\source\src\lsclient\ioplaystage.h
;	COMDAT ?GetBaseCharList@ioPlayStage@@QBEABV?$vector@PAVioBaseChar@@V?$allocator@PAVioBaseChar@@@std@@@std@@XZ
_TEXT	SEGMENT
?GetBaseCharList@ioPlayStage@@QBEABV?$vector@PAVioBaseChar@@V?$allocator@PAVioBaseChar@@@std@@@std@@XZ PROC ; ioPlayStage::GetBaseCharList, COMDAT
; _this$ = ecx

; 755  : 	const BaseCharList& GetBaseCharList() const { return m_BaseCharList; }

  00000	8d 41 2c	 lea	 eax, DWORD PTR [ecx+44]
  00003	c3		 ret	 0
?GetBaseCharList@ioPlayStage@@QBEABV?$vector@PAVioBaseChar@@V?$allocator@PAVioBaseChar@@@std@@@std@@XZ ENDP ; ioPlayStage::GetBaseCharList
_TEXT	ENDS
PUBLIC	?GetPlayMode@ioPlayStage@@QBEPAVioPlayMode@@XZ	; ioPlayStage::GetPlayMode
; Function compile flags: /Ogsp
;	COMDAT ?GetPlayMode@ioPlayStage@@QBEPAVioPlayMode@@XZ
_TEXT	SEGMENT
?GetPlayMode@ioPlayStage@@QBEPAVioPlayMode@@XZ PROC	; ioPlayStage::GetPlayMode, COMDAT
; _this$ = ecx

; 780  : 	inline ioPlayMode* GetPlayMode() const { return m_pPlayMode; }

  00000	8b 81 10 01 00
	00		 mov	 eax, DWORD PTR [ecx+272]
  00006	c3		 ret	 0
?GetPlayMode@ioPlayStage@@QBEPAVioPlayMode@@XZ ENDP	; ioPlayStage::GetPlayMode
_TEXT	ENDS
PUBLIC	?_Adopt@_Iterator_base0@std@@QAEXPBX@Z		; std::_Iterator_base0::_Adopt
; Function compile flags: /Ogsp
; File c:\program files (x86)\microsoft visual studio 10.0\vc\include\xutility
;	COMDAT ?_Adopt@_Iterator_base0@std@@QAEXPBX@Z
_TEXT	SEGMENT
___formal$ = 8						; size = 4
?_Adopt@_Iterator_base0@std@@QAEXPBX@Z PROC		; std::_Iterator_base0::_Adopt, COMDAT
; _this$ = ecx

; 49   : 		}

  00000	c2 04 00	 ret	 4
?_Adopt@_Iterator_base0@std@@QAEXPBX@Z ENDP		; std::_Iterator_base0::_Adopt
_TEXT	ENDS
PUBLIC	?IsSkillMotionEnd@ioRangeTargetShotSkill@@UBE_NKPAVioBaseChar@@@Z ; ioRangeTargetShotSkill::IsSkillMotionEnd
EXTRN	__imp_?GetLoopSec@ioFrameTimer@@QBEKXZ:PROC
EXTRN	__imp_?GetSingleton@ioFrameTimer@@SAAAV1@XZ:PROC
; Function compile flags: /Ogsp
; File d:\lost saga for developer\youtube\tutorial\source\src\lsclient\iorangetargetshotskill.cpp
;	COMDAT ?IsSkillMotionEnd@ioRangeTargetShotSkill@@UBE_NKPAVioBaseChar@@@Z
_TEXT	SEGMENT
_dwActionStop$ = 8					; size = 4
_pOwner$ = 12						; size = 4
?IsSkillMotionEnd@ioRangeTargetShotSkill@@UBE_NKPAVioBaseChar@@@Z PROC ; ioRangeTargetShotSkill::IsSkillMotionEnd, COMDAT
; _this$ = ecx

; 339  : {

  00000	56		 push	 esi
  00001	8b f1		 mov	 esi, ecx

; 340  : 	DWORD dwCurTime = FRAMEGETTIME();

  00003	ff 15 00 00 00
	00		 call	 DWORD PTR __imp_?GetSingleton@ioFrameTimer@@SAAAV1@XZ
  00009	8b c8		 mov	 ecx, eax
  0000b	ff 15 00 00 00
	00		 call	 DWORD PTR __imp_?GetLoopSec@ioFrameTimer@@QBEKXZ

; 341  : 
; 342  : 	if( m_dwPreDelayStartTime > 0 )

  00011	83 be 20 02 00
	00 00		 cmp	 DWORD PTR [esi+544], 0

; 343  : 		return false;

  00018	77 16		 ja	 SHORT $LN3@IsSkillMot

; 344  : 
; 345  : 	switch( m_SkillState )

  0001a	8b b6 58 0f 00
	00		 mov	 esi, DWORD PTR [esi+3928]
  00020	85 f6		 test	 esi, esi
  00022	78 0c		 js	 SHORT $LN3@IsSkillMot
  00024	33 c0		 xor	 eax, eax
  00026	40		 inc	 eax
  00027	3b f0		 cmp	 esi, eax
  00029	7e 05		 jle	 SHORT $LN3@IsSkillMot
  0002b	83 fe 04	 cmp	 esi, 4

; 346  : 	{
; 347  : 	case SS_PRE:
; 348  : 	case SS_LOOP:
; 349  : 		return false;
; 350  : 	case SS_END:
; 351  : 		return true;

  0002e	74 02		 je	 SHORT $LN6@IsSkillMot
$LN3@IsSkillMot:

; 352  : 	}
; 353  : 
; 354  : 	return false;

  00030	32 c0		 xor	 al, al
$LN6@IsSkillMot:
  00032	5e		 pop	 esi

; 355  : }

  00033	c2 08 00	 ret	 8
?IsSkillMotionEnd@ioRangeTargetShotSkill@@UBE_NKPAVioBaseChar@@@Z ENDP ; ioRangeTargetShotSkill::IsSkillMotionEnd
_TEXT	ENDS
PUBLIC	?DestroyAimMarker@ioRangeTargetShotSkill@@IAEXPAVioBaseChar@@@Z ; ioRangeTargetShotSkill::DestroyAimMarker
EXTRN	?EndMapEffect@ioBaseChar@@QAEXK_N@Z:PROC	; ioBaseChar::EndMapEffect
; Function compile flags: /Ogsp
;	COMDAT ?DestroyAimMarker@ioRangeTargetShotSkill@@IAEXPAVioBaseChar@@@Z
_TEXT	SEGMENT
_pChar$ = 8						; size = 4
?DestroyAimMarker@ioRangeTargetShotSkill@@IAEXPAVioBaseChar@@@Z PROC ; ioRangeTargetShotSkill::DestroyAimMarker, COMDAT
; _this$ = ecx

; 578  : {

  00000	55		 push	 ebp
  00001	8b ec		 mov	 ebp, esp

; 579  : 	if( !pChar )

  00003	83 7d 08 00	 cmp	 DWORD PTR _pChar$[ebp], 0
  00007	74 1d		 je	 SHORT $LN1@DestroyAim

; 580  : 		return;
; 581  : 
; 582  : 	if( m_dwAimMarkerID != -1 )

  00009	56		 push	 esi
  0000a	8d b1 20 10 00
	00		 lea	 esi, DWORD PTR [ecx+4128]
  00010	8b 06		 mov	 eax, DWORD PTR [esi]
  00012	83 f8 ff	 cmp	 eax, -1
  00015	74 0e		 je	 SHORT $LN5@DestroyAim

; 583  : 	{
; 584  : 		pChar->EndMapEffect( m_dwAimMarkerID, false );

  00017	8b 4d 08	 mov	 ecx, DWORD PTR _pChar$[ebp]
  0001a	6a 00		 push	 0
  0001c	50		 push	 eax
  0001d	e8 00 00 00 00	 call	 ?EndMapEffect@ioBaseChar@@QAEXK_N@Z ; ioBaseChar::EndMapEffect

; 585  : 		m_dwAimMarkerID = -1;

  00022	83 0e ff	 or	 DWORD PTR [esi], -1
$LN5@DestroyAim:
  00025	5e		 pop	 esi
$LN1@DestroyAim:

; 586  : 	}
; 587  : }

  00026	5d		 pop	 ebp
  00027	c2 04 00	 ret	 4
?DestroyAimMarker@ioRangeTargetShotSkill@@IAEXPAVioBaseChar@@@Z ENDP ; ioRangeTargetShotSkill::DestroyAimMarker
_TEXT	ENDS
PUBLIC	?SetEndState@ioRangeTargetShotSkill@@IAEXPAVioBaseChar@@@Z ; ioRangeTargetShotSkill::SetEndState
; Function compile flags: /Ogsp
;	COMDAT ?SetEndState@ioRangeTargetShotSkill@@IAEXPAVioBaseChar@@@Z
_TEXT	SEGMENT
_pChar$ = 8						; size = 4
?SetEndState@ioRangeTargetShotSkill@@IAEXPAVioBaseChar@@@Z PROC ; ioRangeTargetShotSkill::SetEndState, COMDAT
; _this$ = ecx

; 744  : {

  00000	55		 push	 ebp
  00001	8b ec		 mov	 ebp, esp

; 745  : 	if ( !pChar ) return;

  00003	83 7d 08 00	 cmp	 DWORD PTR _pChar$[ebp], 0
  00007	74 0f		 je	 SHORT $LN3@SetEndStat

; 746  : 	if ( m_SkillState == SS_END ) return;

  00009	8d 81 58 0f 00
	00		 lea	 eax, DWORD PTR [ecx+3928]
  0000f	6a 04		 push	 4
  00011	59		 pop	 ecx
  00012	39 08		 cmp	 DWORD PTR [eax], ecx
  00014	74 02		 je	 SHORT $LN3@SetEndStat

; 747  : 		
; 748  : 	m_SkillState = SS_END;

  00016	89 08		 mov	 DWORD PTR [eax], ecx
$LN3@SetEndStat:

; 749  : }

  00018	5d		 pop	 ebp
  00019	c2 04 00	 ret	 4
?SetEndState@ioRangeTargetShotSkill@@IAEXPAVioBaseChar@@@Z ENDP ; ioRangeTargetShotSkill::SetEndState
_TEXT	ENDS
PUBLIC	__real@4f800000
PUBLIC	?AimedFireToUp@ioRangeTargetShotSkill@@IAEXPAVioEntityGroup@@VioHashString@@1MMK_N@Z ; ioRangeTargetShotSkill::AimedFireToUp
EXTRN	__imp_??1ioHashString@@QAE@XZ:PROC
EXTRN	__imp_?SetActionAni@ioEntityGroup@@QAE_NABVioHashString@@MMMMMM_N1@Z:PROC
EXTRN	__imp_??4ioHashString@@QAEAAV0@ABV0@@Z:PROC
EXTRN	__imp_??0ioHashString@@QAE@XZ:PROC
EXTRN	___CxxFrameHandler3:PROC
EXTRN	@__security_check_cookie@4:PROC
EXTRN	__EH_epilog3:PROC
EXTRN	__EH_prolog3:PROC
;	COMDAT __real@4f800000
; File d:\lost saga for developer\youtube\tutorial\source\src\lsclient\stdafx.h
CONST	SEGMENT
__real@4f800000 DD 04f800000r			; 4.29497e+009
CONST	ENDS
;	COMDAT xdata$x
xdata$x	SEGMENT
__unwindtable$?AimedFireToUp@ioRangeTargetShotSkill@@IAEXPAVioEntityGroup@@VioHashString@@1MMK_N@Z DD 0ffffffffH
	DD	FLAT:__unwindfunclet$?AimedFireToUp@ioRangeTargetShotSkill@@IAEXPAVioEntityGroup@@VioHashString@@1MMK_N@Z$0
	DD	00H
	DD	FLAT:__unwindfunclet$?AimedFireToUp@ioRangeTargetShotSkill@@IAEXPAVioEntityGroup@@VioHashString@@1MMK_N@Z$1
	DD	01H
	DD	FLAT:__unwindfunclet$?AimedFireToUp@ioRangeTargetShotSkill@@IAEXPAVioEntityGroup@@VioHashString@@1MMK_N@Z$2
	DD	02H
	DD	FLAT:__unwindfunclet$?AimedFireToUp@ioRangeTargetShotSkill@@IAEXPAVioEntityGroup@@VioHashString@@1MMK_N@Z$3
__ehfuncinfo$?AimedFireToUp@ioRangeTargetShotSkill@@IAEXPAVioEntityGroup@@VioHashString@@1MMK_N@Z DD 019930522H
	DD	04H
	DD	FLAT:__unwindtable$?AimedFireToUp@ioRangeTargetShotSkill@@IAEXPAVioEntityGroup@@VioHashString@@1MMK_N@Z
	DD	2 DUP(00H)
	DD	2 DUP(00H)
	DD	00H
	DD	01H
; Function compile flags: /Ogsp
; File d:\lost saga for developer\youtube\tutorial\source\src\lsclient\iorangetargetshotskill.cpp
xdata$x	ENDS
;	COMDAT ?AimedFireToUp@ioRangeTargetShotSkill@@IAEXPAVioEntityGroup@@VioHashString@@1MMK_N@Z
_TEXT	SEGMENT
_szFireUp$ = -60					; size = 16
_szFireCenter$ = -44					; size = 16
tv243 = -28						; size = 4
tv237 = -28						; size = 4
tv233 = -28						; size = 4
tv229 = -28						; size = 4
tv200 = -28						; size = 4
tv198 = -28						; size = 4
tv195 = -28						; size = 4
tv193 = -28						; size = 4
_bAniFx2$ = -24						; size = 1
_bAniFx1$ = -20						; size = 1
_fFadeOut$ = -16					; size = 4
__$EHRec$ = -12						; size = 12
_pGrp$ = 8						; size = 4
_szCenterAni$ = 12					; size = 16
_szUpAni$ = 28						; size = 16
_fWeight$ = 44						; size = 4
_fTimeRate$ = 48					; size = 4
_dwPreDelay$ = 52					; size = 4
tv212 = 56						; size = 4
tv210 = 56						; size = 4
tv207 = 56						; size = 4
tv74 = 56						; size = 4
tv69 = 56						; size = 4
tv64 = 56						; size = 4
_bHold$ = 56						; size = 1
?AimedFireToUp@ioRangeTargetShotSkill@@IAEXPAVioEntityGroup@@VioHashString@@1MMK_N@Z PROC ; ioRangeTargetShotSkill::AimedFireToUp, COMDAT
; _this$ = ecx

; 798  : {

  00000	6a 30		 push	 48			; 00000030H
  00002	b8 00 00 00 00	 mov	 eax, __ehhandler$?AimedFireToUp@ioRangeTargetShotSkill@@IAEXPAVioEntityGroup@@VioHashString@@1MMK_N@Z
  00007	e8 00 00 00 00	 call	 __EH_prolog3
  0000c	c7 45 fc 01 00
	00 00		 mov	 DWORD PTR __$EHRec$[ebp+8], 1

; 799  : 	float fFadeOut = FLOAT100;

  00013	b8 64 00 00 00	 mov	 eax, 100		; 00000064H
  00018	89 45 e4	 mov	 DWORD PTR tv243[ebp], eax
  0001b	db 45 e4	 fild	 DWORD PTR tv243[ebp]
  0001e	85 c0		 test	 eax, eax
  00020	79 06		 jns	 SHORT $LN28@AimedFireT
  00022	d8 05 00 00 00
	00		 fadd	 DWORD PTR __real@4f800000
$LN28@AimedFireT:

; 800  : 	if( !bHold )

  00028	80 7d 38 00	 cmp	 BYTE PTR _bHold$[ebp], 0
  0002c	d9 5d f0	 fstp	 DWORD PTR _fFadeOut$[ebp]
  0002f	75 08		 jne	 SHORT $LN3@AimedFireT

; 801  : 		fFadeOut = 0.0f;

  00031	0f 57 c0	 xorps	 xmm0, xmm0
  00034	f3 0f 11 45 f0	 movss	 DWORD PTR _fFadeOut$[ebp], xmm0
$LN3@AimedFireT:

; 802  : 
; 803  : 	bool bAniFx1 = false;

  00039	c6 45 ec 00	 mov	 BYTE PTR _bAniFx1$[ebp], 0

; 804  : 	bool bAniFx2 = true;

  0003d	c6 45 e8 01	 mov	 BYTE PTR _bAniFx2$[ebp], 1

; 805  : 
; 806  : 	if( fWeight > FLOAT05 )

  00041	b8 05 00 00 00	 mov	 eax, 5
  00046	8b c8		 mov	 ecx, eax
  00048	b8 0a 00 00 00	 mov	 eax, 10			; 0000000aH
  0004d	d9 45 2c	 fld	 DWORD PTR _fWeight$[ebp]
  00050	89 4d e4	 mov	 DWORD PTR tv237[ebp], ecx
  00053	db 45 e4	 fild	 DWORD PTR tv237[ebp]
  00056	85 c9		 test	 ecx, ecx
  00058	79 06		 jns	 SHORT $LN29@AimedFireT
  0005a	d8 05 00 00 00
	00		 fadd	 DWORD PTR __real@4f800000
$LN29@AimedFireT:
  00060	89 45 e4	 mov	 DWORD PTR tv233[ebp], eax
  00063	db 45 e4	 fild	 DWORD PTR tv233[ebp]
  00066	85 c0		 test	 eax, eax
  00068	79 06		 jns	 SHORT $LN30@AimedFireT
  0006a	d8 05 00 00 00
	00		 fadd	 DWORD PTR __real@4f800000
$LN30@AimedFireT:
  00070	de f9		 fdivp	 ST(1), ST(0)
  00072	d9 5d e4	 fstp	 DWORD PTR tv229[ebp]
  00075	d9 45 e4	 fld	 DWORD PTR tv229[ebp]
  00078	d9 c9		 fxch	 ST(1)
  0007a	df f1		 fcomip	 ST(1)
  0007c	dd d8		 fstp	 ST(0)
  0007e	76 08		 jbe	 SHORT $LN2@AimedFireT

; 807  : 	{
; 808  : 		bAniFx1 = true;

  00080	c6 45 ec 01	 mov	 BYTE PTR _bAniFx1$[ebp], 1

; 809  : 		bAniFx2 = false;

  00084	c6 45 e8 00	 mov	 BYTE PTR _bAniFx2$[ebp], 0
$LN2@AimedFireT:

; 810  : 	}
; 811  : 
; 812  : 	ioHashString szFireUp, szFireCenter;

  00088	8b 35 00 00 00
	00		 mov	 esi, DWORD PTR __imp_??0ioHashString@@QAE@XZ
  0008e	8d 4d c4	 lea	 ecx, DWORD PTR _szFireUp$[ebp]
  00091	ff d6		 call	 esi
  00093	8d 4d d4	 lea	 ecx, DWORD PTR _szFireCenter$[ebp]
  00096	c6 45 fc 02	 mov	 BYTE PTR __$EHRec$[ebp+8], 2
  0009a	ff d6		 call	 esi

; 813  : 	szFireUp = szUpAni;

  0009c	8b 35 00 00 00
	00		 mov	 esi, DWORD PTR __imp_??4ioHashString@@QAEAAV0@ABV0@@Z
  000a2	8d 45 1c	 lea	 eax, DWORD PTR _szUpAni$[ebp]
  000a5	50		 push	 eax
  000a6	8d 4d c4	 lea	 ecx, DWORD PTR _szFireUp$[ebp]
  000a9	c6 45 fc 03	 mov	 BYTE PTR __$EHRec$[ebp+8], 3
  000ad	ff d6		 call	 esi

; 814  : 	szFireCenter = szCenterAni;

  000af	8d 45 0c	 lea	 eax, DWORD PTR _szCenterAni$[ebp]
  000b2	50		 push	 eax
  000b3	8d 4d d4	 lea	 ecx, DWORD PTR _szFireCenter$[ebp]
  000b6	ff d6		 call	 esi

; 815  : 	
; 816  : 	if( fWeight > 0.0f )

  000b8	f3 0f 10 4d 2c	 movss	 xmm1, DWORD PTR _fWeight$[ebp]
  000bd	0f 57 c0	 xorps	 xmm0, xmm0
  000c0	0f 2f c8	 comiss	 xmm1, xmm0
  000c3	8b 35 00 00 00
	00		 mov	 esi, DWORD PTR __imp_?SetActionAni@ioEntityGroup@@QAE_NABVioHashString@@MMMMMM_N1@Z
  000c9	76 7c		 jbe	 SHORT $LN1@AimedFireT

; 817  : 	{
; 818  : 		pGrp->SetActionAni( szFireUp,
; 819  : 			FLOAT100, fFadeOut,
; 820  : 			fWeight, FLOAT1/fTimeRate,
; 821  : 			0.0f, dwPreDelay,
; 822  : 			bHold, bAniFx1 );

  000cb	b8 01 00 00 00	 mov	 eax, 1
  000d0	8b c8		 mov	 ecx, eax
  000d2	b8 64 00 00 00	 mov	 eax, 100		; 00000064H
  000d7	db 45 34	 fild	 DWORD PTR _dwPreDelay$[ebp]
  000da	ff 75 ec	 push	 DWORD PTR _bAniFx1$[ebp]
  000dd	8b 55 34	 mov	 edx, DWORD PTR _dwPreDelay$[ebp]
  000e0	ff 75 38	 push	 DWORD PTR _bHold$[ebp]
  000e3	85 d2		 test	 edx, edx
  000e5	79 06		 jns	 SHORT $LN31@AimedFireT
  000e7	d8 05 00 00 00
	00		 fadd	 DWORD PTR __real@4f800000
$LN31@AimedFireT:
  000ed	83 ec 18	 sub	 esp, 24			; 00000018H
  000f0	d9 5c 24 14	 fstp	 DWORD PTR [esp+20]
  000f4	89 4d e4	 mov	 DWORD PTR tv198[ebp], ecx
  000f7	db 45 e4	 fild	 DWORD PTR tv198[ebp]
  000fa	f3 0f 11 44 24
	10		 movss	 DWORD PTR [esp+16], xmm0
  00100	85 c9		 test	 ecx, ecx
  00102	79 06		 jns	 SHORT $LN32@AimedFireT
  00104	d8 05 00 00 00
	00		 fadd	 DWORD PTR __real@4f800000
$LN32@AimedFireT:
  0010a	d8 75 30	 fdiv	 DWORD PTR _fTimeRate$[ebp]
  0010d	f3 0f 10 45 f0	 movss	 xmm0, DWORD PTR _fFadeOut$[ebp]
  00112	d9 5d e4	 fstp	 DWORD PTR tv195[ebp]
  00115	d9 45 e4	 fld	 DWORD PTR tv195[ebp]
  00118	d9 5c 24 0c	 fstp	 DWORD PTR [esp+12]
  0011c	89 45 e4	 mov	 DWORD PTR tv193[ebp], eax
  0011f	db 45 e4	 fild	 DWORD PTR tv193[ebp]
  00122	f3 0f 11 4c 24
	08		 movss	 DWORD PTR [esp+8], xmm1
  00128	f3 0f 11 44 24
	04		 movss	 DWORD PTR [esp+4], xmm0
  0012e	85 c0		 test	 eax, eax
  00130	79 06		 jns	 SHORT $LN33@AimedFireT
  00132	d8 05 00 00 00
	00		 fadd	 DWORD PTR __real@4f800000
$LN33@AimedFireT:
  00138	8b 4d 08	 mov	 ecx, DWORD PTR _pGrp$[ebp]
  0013b	d9 1c 24	 fstp	 DWORD PTR [esp]
  0013e	8d 45 c4	 lea	 eax, DWORD PTR _szFireUp$[ebp]
  00141	50		 push	 eax
  00142	ff d6		 call	 esi
  00144	0f 57 c0	 xorps	 xmm0, xmm0
$LN1@AimedFireT:

; 823  : 	}
; 824  : 
; 825  : 	pGrp->SetActionAni( szFireCenter,
; 826  : 		FLOAT100, fFadeOut,
; 827  : 		FLOAT1 - fWeight, FLOAT1/fTimeRate,
; 828  : 		0.0f, dwPreDelay,
; 829  : 		bHold, bAniFx2 );

  00147	b8 01 00 00 00	 mov	 eax, 1
  0014c	8b c8		 mov	 ecx, eax
  0014e	b8 01 00 00 00	 mov	 eax, 1
  00153	8b d0		 mov	 edx, eax
  00155	b8 64 00 00 00	 mov	 eax, 100		; 00000064H
  0015a	db 45 34	 fild	 DWORD PTR _dwPreDelay$[ebp]
  0015d	ff 75 e8	 push	 DWORD PTR _bAniFx2$[ebp]
  00160	8b f8		 mov	 edi, eax
  00162	8b 45 34	 mov	 eax, DWORD PTR _dwPreDelay$[ebp]
  00165	ff 75 38	 push	 DWORD PTR _bHold$[ebp]
  00168	85 c0		 test	 eax, eax
  0016a	79 06		 jns	 SHORT $LN34@AimedFireT
  0016c	d8 05 00 00 00
	00		 fadd	 DWORD PTR __real@4f800000
$LN34@AimedFireT:
  00172	83 ec 18	 sub	 esp, 24			; 00000018H
  00175	d9 5c 24 14	 fstp	 DWORD PTR [esp+20]
  00179	89 4d 38	 mov	 DWORD PTR tv69[ebp], ecx
  0017c	db 45 38	 fild	 DWORD PTR tv69[ebp]
  0017f	f3 0f 11 44 24
	10		 movss	 DWORD PTR [esp+16], xmm0
  00185	85 c9		 test	 ecx, ecx
  00187	79 06		 jns	 SHORT $LN35@AimedFireT
  00189	d8 05 00 00 00
	00		 fadd	 DWORD PTR __real@4f800000
$LN35@AimedFireT:
  0018f	d8 75 30	 fdiv	 DWORD PTR _fTimeRate$[ebp]
  00192	d9 5d 38	 fstp	 DWORD PTR tv64[ebp]
  00195	d9 45 38	 fld	 DWORD PTR tv64[ebp]
  00198	d9 5c 24 0c	 fstp	 DWORD PTR [esp+12]
  0019c	89 55 38	 mov	 DWORD PTR tv207[ebp], edx
  0019f	db 45 38	 fild	 DWORD PTR tv207[ebp]
  001a2	85 d2		 test	 edx, edx
  001a4	79 06		 jns	 SHORT $LN36@AimedFireT
  001a6	d8 05 00 00 00
	00		 fadd	 DWORD PTR __real@4f800000
$LN36@AimedFireT:
  001ac	d8 65 2c	 fsub	 DWORD PTR _fWeight$[ebp]
  001af	f3 0f 10 45 f0	 movss	 xmm0, DWORD PTR _fFadeOut$[ebp]
  001b4	d9 5d 38	 fstp	 DWORD PTR tv210[ebp]
  001b7	d9 45 38	 fld	 DWORD PTR tv210[ebp]
  001ba	89 7d 38	 mov	 DWORD PTR tv212[ebp], edi
  001bd	d9 5c 24 08	 fstp	 DWORD PTR [esp+8]
  001c1	f3 0f 11 44 24
	04		 movss	 DWORD PTR [esp+4], xmm0
  001c7	db 45 38	 fild	 DWORD PTR tv212[ebp]
  001ca	85 ff		 test	 edi, edi
  001cc	79 06		 jns	 SHORT $LN37@AimedFireT
  001ce	d8 05 00 00 00
	00		 fadd	 DWORD PTR __real@4f800000
$LN37@AimedFireT:
  001d4	8b 4d 08	 mov	 ecx, DWORD PTR _pGrp$[ebp]
  001d7	d9 1c 24	 fstp	 DWORD PTR [esp]
  001da	8d 45 d4	 lea	 eax, DWORD PTR _szFireCenter$[ebp]
  001dd	50		 push	 eax
  001de	ff d6		 call	 esi

; 830  : }

  001e0	8b 35 00 00 00
	00		 mov	 esi, DWORD PTR __imp_??1ioHashString@@QAE@XZ
  001e6	8d 4d d4	 lea	 ecx, DWORD PTR _szFireCenter$[ebp]
  001e9	c6 45 fc 02	 mov	 BYTE PTR __$EHRec$[ebp+8], 2
  001ed	ff d6		 call	 esi
  001ef	8d 4d c4	 lea	 ecx, DWORD PTR _szFireUp$[ebp]
  001f2	c6 45 fc 01	 mov	 BYTE PTR __$EHRec$[ebp+8], 1
  001f6	ff d6		 call	 esi
  001f8	8d 4d 0c	 lea	 ecx, DWORD PTR _szCenterAni$[ebp]
  001fb	c6 45 fc 00	 mov	 BYTE PTR __$EHRec$[ebp+8], 0
  001ff	ff d6		 call	 esi
  00201	83 4d fc ff	 or	 DWORD PTR __$EHRec$[ebp+8], -1
  00205	8d 4d 1c	 lea	 ecx, DWORD PTR _szUpAni$[ebp]
  00208	ff d6		 call	 esi
  0020a	e8 00 00 00 00	 call	 __EH_epilog3
  0020f	c2 34 00	 ret	 52			; 00000034H
_TEXT	ENDS
;	COMDAT text$x
text$x	SEGMENT
__unwindfunclet$?AimedFireToUp@ioRangeTargetShotSkill@@IAEXPAVioEntityGroup@@VioHashString@@1MMK_N@Z$0:
  00000	8d 4d 1c	 lea	 ecx, DWORD PTR _szUpAni$[ebp]
  00003	ff 25 00 00 00
	00		 jmp	 DWORD PTR __imp_??1ioHashString@@QAE@XZ
__unwindfunclet$?AimedFireToUp@ioRangeTargetShotSkill@@IAEXPAVioEntityGroup@@VioHashString@@1MMK_N@Z$1:
  00009	8d 4d 0c	 lea	 ecx, DWORD PTR _szCenterAni$[ebp]
  0000c	ff 25 00 00 00
	00		 jmp	 DWORD PTR __imp_??1ioHashString@@QAE@XZ
__unwindfunclet$?AimedFireToUp@ioRangeTargetShotSkill@@IAEXPAVioEntityGroup@@VioHashString@@1MMK_N@Z$2:
  00012	8d 4d c4	 lea	 ecx, DWORD PTR _szFireUp$[ebp]
  00015	ff 25 00 00 00
	00		 jmp	 DWORD PTR __imp_??1ioHashString@@QAE@XZ
__unwindfunclet$?AimedFireToUp@ioRangeTargetShotSkill@@IAEXPAVioEntityGroup@@VioHashString@@1MMK_N@Z$3:
  0001b	8d 4d d4	 lea	 ecx, DWORD PTR _szFireCenter$[ebp]
  0001e	ff 25 00 00 00
	00		 jmp	 DWORD PTR __imp_??1ioHashString@@QAE@XZ
__ehhandler$?AimedFireToUp@ioRangeTargetShotSkill@@IAEXPAVioEntityGroup@@VioHashString@@1MMK_N@Z:
  00024	8b 54 24 08	 mov	 edx, DWORD PTR [esp+8]
  00028	8d 42 0c	 lea	 eax, DWORD PTR [edx+12]
  0002b	8b 4a c0	 mov	 ecx, DWORD PTR [edx-64]
  0002e	33 c8		 xor	 ecx, eax
  00030	e8 00 00 00 00	 call	 @__security_check_cookie@4
  00035	b8 00 00 00 00	 mov	 eax, OFFSET __ehfuncinfo$?AimedFireToUp@ioRangeTargetShotSkill@@IAEXPAVioEntityGroup@@VioHashString@@1MMK_N@Z
  0003a	e9 00 00 00 00	 jmp	 ___CxxFrameHandler3
text$x	ENDS
?AimedFireToUp@ioRangeTargetShotSkill@@IAEXPAVioEntityGroup@@VioHashString@@1MMK_N@Z ENDP ; ioRangeTargetShotSkill::AimedFireToUp
PUBLIC	?AimedFireToDown@ioRangeTargetShotSkill@@IAEXPAVioEntityGroup@@VioHashString@@1MMK_N@Z ; ioRangeTargetShotSkill::AimedFireToDown
;	COMDAT xdata$x
; File d:\lost saga for developer\youtube\tutorial\source\src\lsclient\stdafx.h
xdata$x	SEGMENT
__unwindtable$?AimedFireToDown@ioRangeTargetShotSkill@@IAEXPAVioEntityGroup@@VioHashString@@1MMK_N@Z DD 0ffffffffH
	DD	FLAT:__unwindfunclet$?AimedFireToDown@ioRangeTargetShotSkill@@IAEXPAVioEntityGroup@@VioHashString@@1MMK_N@Z$0
	DD	00H
	DD	FLAT:__unwindfunclet$?AimedFireToDown@ioRangeTargetShotSkill@@IAEXPAVioEntityGroup@@VioHashString@@1MMK_N@Z$1
	DD	01H
	DD	FLAT:__unwindfunclet$?AimedFireToDown@ioRangeTargetShotSkill@@IAEXPAVioEntityGroup@@VioHashString@@1MMK_N@Z$2
	DD	02H
	DD	FLAT:__unwindfunclet$?AimedFireToDown@ioRangeTargetShotSkill@@IAEXPAVioEntityGroup@@VioHashString@@1MMK_N@Z$3
__ehfuncinfo$?AimedFireToDown@ioRangeTargetShotSkill@@IAEXPAVioEntityGroup@@VioHashString@@1MMK_N@Z DD 019930522H
	DD	04H
	DD	FLAT:__unwindtable$?AimedFireToDown@ioRangeTargetShotSkill@@IAEXPAVioEntityGroup@@VioHashString@@1MMK_N@Z
	DD	2 DUP(00H)
	DD	2 DUP(00H)
	DD	00H
	DD	01H
; Function compile flags: /Ogsp
; File d:\lost saga for developer\youtube\tutorial\source\src\lsclient\iorangetargetshotskill.cpp
xdata$x	ENDS
;	COMDAT ?AimedFireToDown@ioRangeTargetShotSkill@@IAEXPAVioEntityGroup@@VioHashString@@1MMK_N@Z
_TEXT	SEGMENT
_szFireDown$ = -60					; size = 16
_szFireCenter$ = -44					; size = 16
tv243 = -28						; size = 4
tv237 = -28						; size = 4
tv233 = -28						; size = 4
tv229 = -28						; size = 4
tv200 = -28						; size = 4
tv198 = -28						; size = 4
tv195 = -28						; size = 4
tv193 = -28						; size = 4
_bAniFx1$ = -24						; size = 1
_bAniFx2$ = -20						; size = 1
_fFadeOut$ = -16					; size = 4
__$EHRec$ = -12						; size = 12
_pGrp$ = 8						; size = 4
_szCenterAni$ = 12					; size = 16
_szDownAni$ = 28					; size = 16
_fWeight$ = 44						; size = 4
_fTimeRate$ = 48					; size = 4
_dwPreDelay$ = 52					; size = 4
tv212 = 56						; size = 4
tv210 = 56						; size = 4
tv207 = 56						; size = 4
tv74 = 56						; size = 4
tv69 = 56						; size = 4
tv64 = 56						; size = 4
_bHold$ = 56						; size = 1
?AimedFireToDown@ioRangeTargetShotSkill@@IAEXPAVioEntityGroup@@VioHashString@@1MMK_N@Z PROC ; ioRangeTargetShotSkill::AimedFireToDown, COMDAT
; _this$ = ecx

; 839  : {

  00000	6a 30		 push	 48			; 00000030H
  00002	b8 00 00 00 00	 mov	 eax, __ehhandler$?AimedFireToDown@ioRangeTargetShotSkill@@IAEXPAVioEntityGroup@@VioHashString@@1MMK_N@Z
  00007	e8 00 00 00 00	 call	 __EH_prolog3
  0000c	c7 45 fc 01 00
	00 00		 mov	 DWORD PTR __$EHRec$[ebp+8], 1

; 840  : 	float fFadeOut = FLOAT100;

  00013	b8 64 00 00 00	 mov	 eax, 100		; 00000064H
  00018	89 45 e4	 mov	 DWORD PTR tv243[ebp], eax
  0001b	db 45 e4	 fild	 DWORD PTR tv243[ebp]
  0001e	85 c0		 test	 eax, eax
  00020	79 06		 jns	 SHORT $LN28@AimedFireT@2
  00022	d8 05 00 00 00
	00		 fadd	 DWORD PTR __real@4f800000
$LN28@AimedFireT@2:

; 841  : 	if( !bHold )

  00028	80 7d 38 00	 cmp	 BYTE PTR _bHold$[ebp], 0
  0002c	d9 5d f0	 fstp	 DWORD PTR _fFadeOut$[ebp]
  0002f	75 08		 jne	 SHORT $LN3@AimedFireT@2

; 842  : 		fFadeOut = 0.0f;

  00031	0f 57 c0	 xorps	 xmm0, xmm0
  00034	f3 0f 11 45 f0	 movss	 DWORD PTR _fFadeOut$[ebp], xmm0
$LN3@AimedFireT@2:

; 843  : 	bool bAniFx1 = true;

  00039	c6 45 e8 01	 mov	 BYTE PTR _bAniFx1$[ebp], 1

; 844  : 	bool bAniFx2 = false;

  0003d	c6 45 ec 00	 mov	 BYTE PTR _bAniFx2$[ebp], 0

; 845  : 
; 846  : 	if( fWeight > FLOAT05 )

  00041	b8 05 00 00 00	 mov	 eax, 5
  00046	8b c8		 mov	 ecx, eax
  00048	b8 0a 00 00 00	 mov	 eax, 10			; 0000000aH
  0004d	d9 45 2c	 fld	 DWORD PTR _fWeight$[ebp]
  00050	89 4d e4	 mov	 DWORD PTR tv237[ebp], ecx
  00053	db 45 e4	 fild	 DWORD PTR tv237[ebp]
  00056	85 c9		 test	 ecx, ecx
  00058	79 06		 jns	 SHORT $LN29@AimedFireT@2
  0005a	d8 05 00 00 00
	00		 fadd	 DWORD PTR __real@4f800000
$LN29@AimedFireT@2:
  00060	89 45 e4	 mov	 DWORD PTR tv233[ebp], eax
  00063	db 45 e4	 fild	 DWORD PTR tv233[ebp]
  00066	85 c0		 test	 eax, eax
  00068	79 06		 jns	 SHORT $LN30@AimedFireT@2
  0006a	d8 05 00 00 00
	00		 fadd	 DWORD PTR __real@4f800000
$LN30@AimedFireT@2:
  00070	de f9		 fdivp	 ST(1), ST(0)
  00072	d9 5d e4	 fstp	 DWORD PTR tv229[ebp]
  00075	d9 45 e4	 fld	 DWORD PTR tv229[ebp]
  00078	d9 c9		 fxch	 ST(1)
  0007a	df f1		 fcomip	 ST(1)
  0007c	dd d8		 fstp	 ST(0)
  0007e	76 08		 jbe	 SHORT $LN2@AimedFireT@2

; 847  : 	{
; 848  : 		bAniFx1 = false;

  00080	c6 45 e8 00	 mov	 BYTE PTR _bAniFx1$[ebp], 0

; 849  : 		bAniFx2 = true;

  00084	c6 45 ec 01	 mov	 BYTE PTR _bAniFx2$[ebp], 1
$LN2@AimedFireT@2:

; 850  : 	}
; 851  : 
; 852  : 	ioHashString szFireDown, szFireCenter;

  00088	8b 35 00 00 00
	00		 mov	 esi, DWORD PTR __imp_??0ioHashString@@QAE@XZ
  0008e	8d 4d c4	 lea	 ecx, DWORD PTR _szFireDown$[ebp]
  00091	ff d6		 call	 esi
  00093	8d 4d d4	 lea	 ecx, DWORD PTR _szFireCenter$[ebp]
  00096	c6 45 fc 02	 mov	 BYTE PTR __$EHRec$[ebp+8], 2
  0009a	ff d6		 call	 esi

; 853  : 	szFireDown = szDownAni;

  0009c	8b 35 00 00 00
	00		 mov	 esi, DWORD PTR __imp_??4ioHashString@@QAEAAV0@ABV0@@Z
  000a2	8d 45 1c	 lea	 eax, DWORD PTR _szDownAni$[ebp]
  000a5	50		 push	 eax
  000a6	8d 4d c4	 lea	 ecx, DWORD PTR _szFireDown$[ebp]
  000a9	c6 45 fc 03	 mov	 BYTE PTR __$EHRec$[ebp+8], 3
  000ad	ff d6		 call	 esi

; 854  : 	szFireCenter = szCenterAni;

  000af	8d 45 0c	 lea	 eax, DWORD PTR _szCenterAni$[ebp]
  000b2	50		 push	 eax
  000b3	8d 4d d4	 lea	 ecx, DWORD PTR _szFireCenter$[ebp]
  000b6	ff d6		 call	 esi

; 855  : 
; 856  : 	if( fWeight > 0.0f )

  000b8	f3 0f 10 4d 2c	 movss	 xmm1, DWORD PTR _fWeight$[ebp]
  000bd	0f 57 c0	 xorps	 xmm0, xmm0
  000c0	0f 2f c8	 comiss	 xmm1, xmm0
  000c3	8b 35 00 00 00
	00		 mov	 esi, DWORD PTR __imp_?SetActionAni@ioEntityGroup@@QAE_NABVioHashString@@MMMMMM_N1@Z
  000c9	76 7c		 jbe	 SHORT $LN1@AimedFireT@2

; 857  : 	{
; 858  : 		pGrp->SetActionAni( szFireDown,
; 859  : 			FLOAT100, fFadeOut,
; 860  : 			fWeight, FLOAT1/fTimeRate,
; 861  : 			0.0f, dwPreDelay,
; 862  : 			bHold, bAniFx2 );

  000cb	b8 01 00 00 00	 mov	 eax, 1
  000d0	8b c8		 mov	 ecx, eax
  000d2	b8 64 00 00 00	 mov	 eax, 100		; 00000064H
  000d7	db 45 34	 fild	 DWORD PTR _dwPreDelay$[ebp]
  000da	ff 75 ec	 push	 DWORD PTR _bAniFx2$[ebp]
  000dd	8b 55 34	 mov	 edx, DWORD PTR _dwPreDelay$[ebp]
  000e0	ff 75 38	 push	 DWORD PTR _bHold$[ebp]
  000e3	85 d2		 test	 edx, edx
  000e5	79 06		 jns	 SHORT $LN31@AimedFireT@2
  000e7	d8 05 00 00 00
	00		 fadd	 DWORD PTR __real@4f800000
$LN31@AimedFireT@2:
  000ed	83 ec 18	 sub	 esp, 24			; 00000018H
  000f0	d9 5c 24 14	 fstp	 DWORD PTR [esp+20]
  000f4	89 4d e4	 mov	 DWORD PTR tv198[ebp], ecx
  000f7	db 45 e4	 fild	 DWORD PTR tv198[ebp]
  000fa	f3 0f 11 44 24
	10		 movss	 DWORD PTR [esp+16], xmm0
  00100	85 c9		 test	 ecx, ecx
  00102	79 06		 jns	 SHORT $LN32@AimedFireT@2
  00104	d8 05 00 00 00
	00		 fadd	 DWORD PTR __real@4f800000
$LN32@AimedFireT@2:
  0010a	d8 75 30	 fdiv	 DWORD PTR _fTimeRate$[ebp]
  0010d	f3 0f 10 45 f0	 movss	 xmm0, DWORD PTR _fFadeOut$[ebp]
  00112	d9 5d e4	 fstp	 DWORD PTR tv195[ebp]
  00115	d9 45 e4	 fld	 DWORD PTR tv195[ebp]
  00118	d9 5c 24 0c	 fstp	 DWORD PTR [esp+12]
  0011c	89 45 e4	 mov	 DWORD PTR tv193[ebp], eax
  0011f	db 45 e4	 fild	 DWORD PTR tv193[ebp]
  00122	f3 0f 11 4c 24
	08		 movss	 DWORD PTR [esp+8], xmm1
  00128	f3 0f 11 44 24
	04		 movss	 DWORD PTR [esp+4], xmm0
  0012e	85 c0		 test	 eax, eax
  00130	79 06		 jns	 SHORT $LN33@AimedFireT@2
  00132	d8 05 00 00 00
	00		 fadd	 DWORD PTR __real@4f800000
$LN33@AimedFireT@2:
  00138	8b 4d 08	 mov	 ecx, DWORD PTR _pGrp$[ebp]
  0013b	d9 1c 24	 fstp	 DWORD PTR [esp]
  0013e	8d 45 c4	 lea	 eax, DWORD PTR _szFireDown$[ebp]
  00141	50		 push	 eax
  00142	ff d6		 call	 esi
  00144	0f 57 c0	 xorps	 xmm0, xmm0
$LN1@AimedFireT@2:

; 863  : 	}
; 864  : 
; 865  : 	pGrp->SetActionAni( szFireCenter,
; 866  : 		FLOAT100, fFadeOut,
; 867  : 		FLOAT1 - fWeight, FLOAT1/fTimeRate,
; 868  : 		0.0f, dwPreDelay,
; 869  : 		bHold, bAniFx1 );

  00147	b8 01 00 00 00	 mov	 eax, 1
  0014c	8b c8		 mov	 ecx, eax
  0014e	b8 01 00 00 00	 mov	 eax, 1
  00153	8b d0		 mov	 edx, eax
  00155	b8 64 00 00 00	 mov	 eax, 100		; 00000064H
  0015a	db 45 34	 fild	 DWORD PTR _dwPreDelay$[ebp]
  0015d	ff 75 e8	 push	 DWORD PTR _bAniFx1$[ebp]
  00160	8b f8		 mov	 edi, eax
  00162	8b 45 34	 mov	 eax, DWORD PTR _dwPreDelay$[ebp]
  00165	ff 75 38	 push	 DWORD PTR _bHold$[ebp]
  00168	85 c0		 test	 eax, eax
  0016a	79 06		 jns	 SHORT $LN34@AimedFireT@2
  0016c	d8 05 00 00 00
	00		 fadd	 DWORD PTR __real@4f800000
$LN34@AimedFireT@2:
  00172	83 ec 18	 sub	 esp, 24			; 00000018H
  00175	d9 5c 24 14	 fstp	 DWORD PTR [esp+20]
  00179	89 4d 38	 mov	 DWORD PTR tv69[ebp], ecx
  0017c	db 45 38	 fild	 DWORD PTR tv69[ebp]
  0017f	f3 0f 11 44 24
	10		 movss	 DWORD PTR [esp+16], xmm0
  00185	85 c9		 test	 ecx, ecx
  00187	79 06		 jns	 SHORT $LN35@AimedFireT@2
  00189	d8 05 00 00 00
	00		 fadd	 DWORD PTR __real@4f800000
$LN35@AimedFireT@2:
  0018f	d8 75 30	 fdiv	 DWORD PTR _fTimeRate$[ebp]
  00192	d9 5d 38	 fstp	 DWORD PTR tv64[ebp]
  00195	d9 45 38	 fld	 DWORD PTR tv64[ebp]
  00198	d9 5c 24 0c	 fstp	 DWORD PTR [esp+12]
  0019c	89 55 38	 mov	 DWORD PTR tv207[ebp], edx
  0019f	db 45 38	 fild	 DWORD PTR tv207[ebp]
  001a2	85 d2		 test	 edx, edx
  001a4	79 06		 jns	 SHORT $LN36@AimedFireT@2
  001a6	d8 05 00 00 00
	00		 fadd	 DWORD PTR __real@4f800000
$LN36@AimedFireT@2:
  001ac	d8 65 2c	 fsub	 DWORD PTR _fWeight$[ebp]
  001af	f3 0f 10 45 f0	 movss	 xmm0, DWORD PTR _fFadeOut$[ebp]
  001b4	d9 5d 38	 fstp	 DWORD PTR tv210[ebp]
  001b7	d9 45 38	 fld	 DWORD PTR tv210[ebp]
  001ba	89 7d 38	 mov	 DWORD PTR tv212[ebp], edi
  001bd	d9 5c 24 08	 fstp	 DWORD PTR [esp+8]
  001c1	f3 0f 11 44 24
	04		 movss	 DWORD PTR [esp+4], xmm0
  001c7	db 45 38	 fild	 DWORD PTR tv212[ebp]
  001ca	85 ff		 test	 edi, edi
  001cc	79 06		 jns	 SHORT $LN37@AimedFireT@2
  001ce	d8 05 00 00 00
	00		 fadd	 DWORD PTR __real@4f800000
$LN37@AimedFireT@2:
  001d4	8b 4d 08	 mov	 ecx, DWORD PTR _pGrp$[ebp]
  001d7	d9 1c 24	 fstp	 DWORD PTR [esp]
  001da	8d 45 d4	 lea	 eax, DWORD PTR _szFireCenter$[ebp]
  001dd	50		 push	 eax
  001de	ff d6		 call	 esi

; 870  : }

  001e0	8b 35 00 00 00
	00		 mov	 esi, DWORD PTR __imp_??1ioHashString@@QAE@XZ
  001e6	8d 4d d4	 lea	 ecx, DWORD PTR _szFireCenter$[ebp]
  001e9	c6 45 fc 02	 mov	 BYTE PTR __$EHRec$[ebp+8], 2
  001ed	ff d6		 call	 esi
  001ef	8d 4d c4	 lea	 ecx, DWORD PTR _szFireDown$[ebp]
  001f2	c6 45 fc 01	 mov	 BYTE PTR __$EHRec$[ebp+8], 1
  001f6	ff d6		 call	 esi
  001f8	8d 4d 0c	 lea	 ecx, DWORD PTR _szCenterAni$[ebp]
  001fb	c6 45 fc 00	 mov	 BYTE PTR __$EHRec$[ebp+8], 0
  001ff	ff d6		 call	 esi
  00201	83 4d fc ff	 or	 DWORD PTR __$EHRec$[ebp+8], -1
  00205	8d 4d 1c	 lea	 ecx, DWORD PTR _szDownAni$[ebp]
  00208	ff d6		 call	 esi
  0020a	e8 00 00 00 00	 call	 __EH_epilog3
  0020f	c2 34 00	 ret	 52			; 00000034H
_TEXT	ENDS
;	COMDAT text$x
text$x	SEGMENT
__unwindfunclet$?AimedFireToDown@ioRangeTargetShotSkill@@IAEXPAVioEntityGroup@@VioHashString@@1MMK_N@Z$0:
  00000	8d 4d 1c	 lea	 ecx, DWORD PTR _szDownAni$[ebp]
  00003	ff 25 00 00 00
	00		 jmp	 DWORD PTR __imp_??1ioHashString@@QAE@XZ
__unwindfunclet$?AimedFireToDown@ioRangeTargetShotSkill@@IAEXPAVioEntityGroup@@VioHashString@@1MMK_N@Z$1:
  00009	8d 4d 0c	 lea	 ecx, DWORD PTR _szCenterAni$[ebp]
  0000c	ff 25 00 00 00
	00		 jmp	 DWORD PTR __imp_??1ioHashString@@QAE@XZ
__unwindfunclet$?AimedFireToDown@ioRangeTargetShotSkill@@IAEXPAVioEntityGroup@@VioHashString@@1MMK_N@Z$2:
  00012	8d 4d c4	 lea	 ecx, DWORD PTR _szFireDown$[ebp]
  00015	ff 25 00 00 00
	00		 jmp	 DWORD PTR __imp_??1ioHashString@@QAE@XZ
__unwindfunclet$?AimedFireToDown@ioRangeTargetShotSkill@@IAEXPAVioEntityGroup@@VioHashString@@1MMK_N@Z$3:
  0001b	8d 4d d4	 lea	 ecx, DWORD PTR _szFireCenter$[ebp]
  0001e	ff 25 00 00 00
	00		 jmp	 DWORD PTR __imp_??1ioHashString@@QAE@XZ
__ehhandler$?AimedFireToDown@ioRangeTargetShotSkill@@IAEXPAVioEntityGroup@@VioHashString@@1MMK_N@Z:
  00024	8b 54 24 08	 mov	 edx, DWORD PTR [esp+8]
  00028	8d 42 0c	 lea	 eax, DWORD PTR [edx+12]
  0002b	8b 4a c0	 mov	 ecx, DWORD PTR [edx-64]
  0002e	33 c8		 xor	 ecx, eax
  00030	e8 00 00 00 00	 call	 @__security_check_cookie@4
  00035	b8 00 00 00 00	 mov	 eax, OFFSET __ehfuncinfo$?AimedFireToDown@ioRangeTargetShotSkill@@IAEXPAVioEntityGroup@@VioHashString@@1MMK_N@Z
  0003a	e9 00 00 00 00	 jmp	 ___CxxFrameHandler3
text$x	ENDS
?AimedFireToDown@ioRangeTargetShotSkill@@IAEXPAVioEntityGroup@@VioHashString@@1MMK_N@Z ENDP ; ioRangeTargetShotSkill::AimedFireToDown
PUBLIC	?CheckDownAimState@ioRangeTargetShotSkill@@IAE_NPAVioBaseChar@@@Z ; ioRangeTargetShotSkill::CheckDownAimState
EXTRN	?IsApplyDownState@ioBaseChar@@QAE_N_N@Z:PROC	; ioBaseChar::IsApplyDownState
EXTRN	?IsFloatingState@ioBaseChar@@QBE_NXZ:PROC	; ioBaseChar::IsFloatingState
; Function compile flags: /Ogsp
;	COMDAT ?CheckDownAimState@ioRangeTargetShotSkill@@IAE_NPAVioBaseChar@@@Z
_TEXT	SEGMENT
_pTarget$ = 8						; size = 4
?CheckDownAimState@ioRangeTargetShotSkill@@IAE_NPAVioBaseChar@@@Z PROC ; ioRangeTargetShotSkill::CheckDownAimState, COMDAT
; _this$ = ecx

; 873  : {

  00000	55		 push	 ebp
  00001	8b ec		 mov	 ebp, esp
  00003	53		 push	 ebx
  00004	56		 push	 esi
  00005	8b f1		 mov	 esi, ecx

; 874  : 	if( !pTarget ) return false;

  00007	8b 4d 08	 mov	 ecx, DWORD PTR _pTarget$[ebp]
  0000a	33 db		 xor	 ebx, ebx
  0000c	3b cb		 cmp	 ecx, ebx
  0000e	74 2b		 je	 SHORT $LN1@CheckDownA

; 875  : 
; 876  : 	CharState eState = pTarget->GetState();

  00010	8a 81 10 03 00
	00		 mov	 al, BYTE PTR [ecx+784]

; 877  : 
; 878  : 	if( eState == CS_FROZEN && pTarget->GetBlowFrozenState() && m_bEnableDownAim )

  00016	3c 17		 cmp	 al, 23			; 00000017H
  00018	75 14		 jne	 SHORT $LN6@CheckDownA
  0001a	38 99 c5 15 00
	00		 cmp	 BYTE PTR [ecx+5573], bl
$LN17@CheckDownA:
  00020	74 19		 je	 SHORT $LN1@CheckDownA
$LN16@CheckDownA:
  00022	38 9e fc 11 00
	00		 cmp	 BYTE PTR [esi+4604], bl
  00028	74 11		 je	 SHORT $LN1@CheckDownA

; 879  : 		return true;

  0002a	b0 01		 mov	 al, 1
  0002c	eb 0f		 jmp	 SHORT $LN8@CheckDownA
$LN6@CheckDownA:

; 880  : 
; 881  : 	if( eState == CS_BLOW_WOUNDED && !pTarget->IsFloatingState() && m_bEnableDownAim )

  0002e	3c 0c		 cmp	 al, 12			; 0000000cH
  00030	75 11		 jne	 SHORT $LN5@CheckDownA
$LN19@CheckDownA:
  00032	e8 00 00 00 00	 call	 ?IsFloatingState@ioBaseChar@@QBE_NXZ ; ioBaseChar::IsFloatingState
  00037	84 c0		 test	 al, al
  00039	74 e7		 je	 SHORT $LN16@CheckDownA
$LN1@CheckDownA:

; 895  : 
; 896  : 	return false;

  0003b	32 c0		 xor	 al, al
$LN8@CheckDownA:
  0003d	5e		 pop	 esi
  0003e	5b		 pop	 ebx

; 897  : }

  0003f	5d		 pop	 ebp
  00040	c2 04 00	 ret	 4
$LN5@CheckDownA:

; 882  : 		return true;
; 883  : 
; 884  : 	if( eState == CS_BOUND_BLOW_WOUNDED && !pTarget->IsFloatingState() && m_bEnableDownAim )

  00043	3c 31		 cmp	 al, 49			; 00000031H

; 885  : 		return true;

  00045	74 eb		 je	 SHORT $LN19@CheckDownA

; 886  : 
; 887  : 	if( eState == CS_ETC_STATE && pTarget->IsApplyDownState(false) && m_bEnableDownAim )

  00047	3c 0f		 cmp	 al, 15			; 0000000fH
  00049	75 0a		 jne	 SHORT $LN3@CheckDownA
$LN18@CheckDownA:
  0004b	53		 push	 ebx
  0004c	e8 00 00 00 00	 call	 ?IsApplyDownState@ioBaseChar@@QAE_N_N@Z ; ioBaseChar::IsApplyDownState
  00051	84 c0		 test	 al, al

; 888  : 		return true;

  00053	eb cb		 jmp	 SHORT $LN17@CheckDownA
$LN3@CheckDownA:

; 889  : 
; 890  : 	if( eState == CS_USING_SKILL && pTarget->IsApplyDownState(false) && m_bEnableDownAim )

  00055	3c 07		 cmp	 al, 7

; 891  : 		return true;

  00057	74 f2		 je	 SHORT $LN18@CheckDownA

; 892  : 
; 893  : 	if( eState == CS_STOP_MOTION && pTarget->GetBlowStopMotionState() && m_bEnableDownAim )

  00059	3c 26		 cmp	 al, 38			; 00000026H
  0005b	75 de		 jne	 SHORT $LN1@CheckDownA
  0005d	38 99 c7 15 00
	00		 cmp	 BYTE PTR [ecx+5575], bl

; 894  : 		return true;

  00063	eb bb		 jmp	 SHORT $LN17@CheckDownA
?CheckDownAimState@ioRangeTargetShotSkill@@IAE_NPAVioBaseChar@@@Z ENDP ; ioRangeTargetShotSkill::CheckDownAimState
_TEXT	ENDS
PUBLIC	?IsCanUseSkill@ioRangeTargetShotSkill@@UAE_NPAVioBaseChar@@_N@Z ; ioRangeTargetShotSkill::IsCanUseSkill
EXTRN	?IsCanUseSkill@ioNormalSkill@@UAE_NPAVioBaseChar@@_N@Z:PROC ; ioNormalSkill::IsCanUseSkill
; Function compile flags: /Ogsp
;	COMDAT ?IsCanUseSkill@ioRangeTargetShotSkill@@UAE_NPAVioBaseChar@@_N@Z
_TEXT	SEGMENT
_pChar$ = 8						; size = 4
_bHelpMsg$ = 12						; size = 1
?IsCanUseSkill@ioRangeTargetShotSkill@@UAE_NPAVioBaseChar@@_N@Z PROC ; ioRangeTargetShotSkill::IsCanUseSkill, COMDAT
; _this$ = ecx

; 959  : {

  00000	55		 push	 ebp
  00001	8b ec		 mov	 ebp, esp

; 961  : 	//return true;
; 962  : }

  00003	5d		 pop	 ebp

; 960  : 	return __super::IsCanUseSkill( pChar, bHelpMsg );

  00004	e9 00 00 00 00	 jmp	 ?IsCanUseSkill@ioNormalSkill@@UAE_NPAVioBaseChar@@_N@Z ; ioNormalSkill::IsCanUseSkill
?IsCanUseSkill@ioRangeTargetShotSkill@@UAE_NPAVioBaseChar@@_N@Z ENDP ; ioRangeTargetShotSkill::IsCanUseSkill
_TEXT	ENDS
PUBLIC	??D?$_Vector_const_iterator@V?$_Vector_val@PAVioBaseChar@@V?$allocator@PAVioBaseChar@@@std@@@std@@@std@@QBEABQAVioBaseChar@@XZ ; std::_Vector_const_iterator<std::_Vector_val<ioBaseChar *,std::allocator<ioBaseChar *> > >::operator*
; Function compile flags: /Ogsp
; File c:\program files (x86)\microsoft visual studio 10.0\vc\include\vector
;	COMDAT ??D?$_Vector_const_iterator@V?$_Vector_val@PAVioBaseChar@@V?$allocator@PAVioBaseChar@@@std@@@std@@@std@@QBEABQAVioBaseChar@@XZ
_TEXT	SEGMENT
??D?$_Vector_const_iterator@V?$_Vector_val@PAVioBaseChar@@V?$allocator@PAVioBaseChar@@@std@@@std@@@std@@QBEABQAVioBaseChar@@XZ PROC ; std::_Vector_const_iterator<std::_Vector_val<ioBaseChar *,std::allocator<ioBaseChar *> > >::operator*, COMDAT
; _this$ = ecx

; 64   :  #if _ITERATOR_DEBUG_LEVEL == 2
; 65   : 		if (this->_Getcont() == 0
; 66   : 			|| this->_Ptr == 0
; 67   : 			|| this->_Ptr < ((_Myvec *)this->_Getcont())->_Myfirst
; 68   : 			|| ((_Myvec *)this->_Getcont())->_Mylast <= this->_Ptr)
; 69   : 			{	// report error
; 70   : 			_DEBUG_ERROR("vector iterator not dereferencable");
; 71   : 			_SCL_SECURE_OUT_OF_RANGE;
; 72   : 			}
; 73   : 
; 74   :  #elif _ITERATOR_DEBUG_LEVEL == 1
; 75   : 		_SCL_SECURE_VALIDATE(this->_Getcont() != 0);
; 76   : 		_SCL_SECURE_VALIDATE_RANGE(
; 77   : 			this->_Ptr != 0
; 78   : 			&& ((_Myvec *)this->_Getcont())->_Myfirst <= this->_Ptr
; 79   : 			&& this->_Ptr < ((_Myvec *)this->_Getcont())->_Mylast);
; 80   :  #endif /* _ITERATOR_DEBUG_LEVEL */
; 81   : 
; 82   : 		__analysis_assume(this->_Ptr != 0);
; 83   : 
; 84   : 		return (*this->_Ptr);

  00000	8b 01		 mov	 eax, DWORD PTR [ecx]

; 85   : 		}

  00002	c3		 ret	 0
??D?$_Vector_const_iterator@V?$_Vector_val@PAVioBaseChar@@V?$allocator@PAVioBaseChar@@@std@@@std@@@std@@QBEABQAVioBaseChar@@XZ ENDP ; std::_Vector_const_iterator<std::_Vector_val<ioBaseChar *,std::allocator<ioBaseChar *> > >::operator*
_TEXT	ENDS
PUBLIC	??E?$_Vector_const_iterator@V?$_Vector_val@PAVioBaseChar@@V?$allocator@PAVioBaseChar@@@std@@@std@@@std@@QAEAAV01@XZ ; std::_Vector_const_iterator<std::_Vector_val<ioBaseChar *,std::allocator<ioBaseChar *> > >::operator++
; Function compile flags: /Ogsp
;	COMDAT ??E?$_Vector_const_iterator@V?$_Vector_val@PAVioBaseChar@@V?$allocator@PAVioBaseChar@@@std@@@std@@@std@@QAEAAV01@XZ
_TEXT	SEGMENT
??E?$_Vector_const_iterator@V?$_Vector_val@PAVioBaseChar@@V?$allocator@PAVioBaseChar@@@std@@@std@@@std@@QAEAAV01@XZ PROC ; std::_Vector_const_iterator<std::_Vector_val<ioBaseChar *,std::allocator<ioBaseChar *> > >::operator++, COMDAT
; _this$ = ecx

; 93   : 		{	// preincrement

  00000	8b c1		 mov	 eax, ecx

; 94   :  #if _ITERATOR_DEBUG_LEVEL == 2
; 95   : 		if (this->_Getcont() == 0
; 96   : 			|| this->_Ptr == 0
; 97   : 			|| ((_Myvec *)this->_Getcont())->_Mylast <= this->_Ptr)
; 98   : 			{	// report error
; 99   : 			_DEBUG_ERROR("vector iterator not incrementable");
; 100  : 			_SCL_SECURE_OUT_OF_RANGE;
; 101  : 			}
; 102  : 
; 103  :  #elif _ITERATOR_DEBUG_LEVEL == 1
; 104  : 		_SCL_SECURE_VALIDATE(this->_Getcont() != 0);
; 105  : 		_SCL_SECURE_VALIDATE_RANGE(
; 106  : 			this->_Ptr != 0
; 107  : 			&& this->_Ptr < ((_Myvec *)this->_Getcont())->_Mylast);
; 108  :  #endif /* _ITERATOR_DEBUG_LEVEL */
; 109  : 
; 110  : 		++this->_Ptr;

  00002	83 00 04	 add	 DWORD PTR [eax], 4

; 111  : 		return (*this);
; 112  : 		}

  00005	c3		 ret	 0
??E?$_Vector_const_iterator@V?$_Vector_val@PAVioBaseChar@@V?$allocator@PAVioBaseChar@@@std@@@std@@@std@@QAEAAV01@XZ ENDP ; std::_Vector_const_iterator<std::_Vector_val<ioBaseChar *,std::allocator<ioBaseChar *> > >::operator++
_TEXT	ENDS
PUBLIC	??0?$_Vector_const_iterator@V?$_Vector_val@PAVioBaseChar@@V?$allocator@PAVioBaseChar@@@std@@@std@@@std@@QAE@PAPAVioBaseChar@@PBU_Container_base0@1@@Z ; std::_Vector_const_iterator<std::_Vector_val<ioBaseChar *,std::allocator<ioBaseChar *> > >::_Vector_const_iterator<std::_Vector_val<ioBaseChar *,std::allocator<ioBaseChar *> > >
; Function compile flags: /Ogsp
;	COMDAT ??0?$_Vector_const_iterator@V?$_Vector_val@PAVioBaseChar@@V?$allocator@PAVioBaseChar@@@std@@@std@@@std@@QAE@PAPAVioBaseChar@@PBU_Container_base0@1@@Z
_TEXT	SEGMENT
__Parg$ = 8						; size = 4
__Pvector$ = 12						; size = 4
??0?$_Vector_const_iterator@V?$_Vector_val@PAVioBaseChar@@V?$allocator@PAVioBaseChar@@@std@@@std@@@std@@QAE@PAPAVioBaseChar@@PBU_Container_base0@1@@Z PROC ; std::_Vector_const_iterator<std::_Vector_val<ioBaseChar *,std::allocator<ioBaseChar *> > >::_Vector_const_iterator<std::_Vector_val<ioBaseChar *,std::allocator<ioBaseChar *> > >, COMDAT
; _this$ = ecx

; 45   : 		{	// construct with pointer _Parg

  00000	55		 push	 ebp
  00001	8b ec		 mov	 ebp, esp
  00003	8b c1		 mov	 eax, ecx
  00005	8b 4d 08	 mov	 ecx, DWORD PTR __Parg$[ebp]
  00008	89 08		 mov	 DWORD PTR [eax], ecx

; 46   : 		this->_Adopt(_Pvector);
; 47   : 		}

  0000a	5d		 pop	 ebp
  0000b	c2 08 00	 ret	 8
??0?$_Vector_const_iterator@V?$_Vector_val@PAVioBaseChar@@V?$allocator@PAVioBaseChar@@@std@@@std@@@std@@QAE@PAPAVioBaseChar@@PBU_Container_base0@1@@Z ENDP ; std::_Vector_const_iterator<std::_Vector_val<ioBaseChar *,std::allocator<ioBaseChar *> > >::_Vector_const_iterator<std::_Vector_val<ioBaseChar *,std::allocator<ioBaseChar *> > >
_TEXT	ENDS
PUBLIC	?_Compat@?$_Vector_const_iterator@V?$_Vector_val@PAVioBaseChar@@V?$allocator@PAVioBaseChar@@@std@@@std@@@std@@QBEXABV12@@Z ; std::_Vector_const_iterator<std::_Vector_val<ioBaseChar *,std::allocator<ioBaseChar *> > >::_Compat
; Function compile flags: /Ogsp
;	COMDAT ?_Compat@?$_Vector_const_iterator@V?$_Vector_val@PAVioBaseChar@@V?$allocator@PAVioBaseChar@@@std@@@std@@@std@@QBEXABV12@@Z
_TEXT	SEGMENT
___formal$ = 8						; size = 4
?_Compat@?$_Vector_const_iterator@V?$_Vector_val@PAVioBaseChar@@V?$allocator@PAVioBaseChar@@@std@@@std@@@std@@QBEXABV12@@Z PROC ; std::_Vector_const_iterator<std::_Vector_val<ioBaseChar *,std::allocator<ioBaseChar *> > >::_Compat, COMDAT
; _this$ = ecx

; 253  : 		}

  00000	c2 04 00	 ret	 4
?_Compat@?$_Vector_const_iterator@V?$_Vector_val@PAVioBaseChar@@V?$allocator@PAVioBaseChar@@@std@@@std@@@std@@QBEXABV12@@Z ENDP ; std::_Vector_const_iterator<std::_Vector_val<ioBaseChar *,std::allocator<ioBaseChar *> > >::_Compat
_TEXT	ENDS
PUBLIC	??0D3DXVECTOR3@@QAE@XZ				; D3DXVECTOR3::D3DXVECTOR3
; Function compile flags: /Ogsp
; File c:\program files (x86)\microsoft directx sdk (june 2010)\include\d3dx9math.h
;	COMDAT ??0D3DXVECTOR3@@QAE@XZ
_TEXT	SEGMENT
??0D3DXVECTOR3@@QAE@XZ PROC				; D3DXVECTOR3::D3DXVECTOR3, COMDAT
; _this$ = ecx

; 165  :     D3DXVECTOR3() {};

  00000	8b c1		 mov	 eax, ecx
  00002	c3		 ret	 0
??0D3DXVECTOR3@@QAE@XZ ENDP				; D3DXVECTOR3::D3DXVECTOR3
_TEXT	ENDS
PUBLIC	??0D3DXVECTOR3@@QAE@MMM@Z			; D3DXVECTOR3::D3DXVECTOR3
; Function compile flags: /Ogsp
; File c:\program files (x86)\microsoft directx sdk (june 2010)\include\d3dx9math.inl
;	COMDAT ??0D3DXVECTOR3@@QAE@MMM@Z
_TEXT	SEGMENT
_fx$ = 8						; size = 4
_fy$ = 12						; size = 4
_fz$ = 16						; size = 4
??0D3DXVECTOR3@@QAE@MMM@Z PROC				; D3DXVECTOR3::D3DXVECTOR3, COMDAT
; _this$ = ecx

; 303  : {

  00000	55		 push	 ebp
  00001	8b ec		 mov	 ebp, esp

; 304  :     x = fx;

  00003	f3 0f 10 45 08	 movss	 xmm0, DWORD PTR _fx$[ebp]
  00008	8b c1		 mov	 eax, ecx
  0000a	f3 0f 11 00	 movss	 DWORD PTR [eax], xmm0

; 305  :     y = fy;

  0000e	f3 0f 10 45 0c	 movss	 xmm0, DWORD PTR _fy$[ebp]
  00013	f3 0f 11 40 04	 movss	 DWORD PTR [eax+4], xmm0

; 306  :     z = fz;

  00018	f3 0f 10 45 10	 movss	 xmm0, DWORD PTR _fz$[ebp]
  0001d	f3 0f 11 40 08	 movss	 DWORD PTR [eax+8], xmm0

; 307  : }

  00022	5d		 pop	 ebp
  00023	c2 0c 00	 ret	 12			; 0000000cH
??0D3DXVECTOR3@@QAE@MMM@Z ENDP				; D3DXVECTOR3::D3DXVECTOR3
_TEXT	ENDS
PUBLIC	??GD3DXVECTOR3@@QBE?AU0@ABU0@@Z			; D3DXVECTOR3::operator-
; Function compile flags: /Ogsp
;	COMDAT ??GD3DXVECTOR3@@QBE?AU0@ABU0@@Z
_TEXT	SEGMENT
___$ReturnUdt$ = 8					; size = 4
_v$ = 12						; size = 4
??GD3DXVECTOR3@@QBE?AU0@ABU0@@Z PROC			; D3DXVECTOR3::operator-, COMDAT
; _this$ = ecx

; 386  : {

  00000	55		 push	 ebp
  00001	8b ec		 mov	 ebp, esp

; 387  :     return D3DXVECTOR3(x - v.x, y - v.y, z - v.z);

  00003	8b 55 0c	 mov	 edx, DWORD PTR _v$[ebp]
  00006	f3 0f 10 01	 movss	 xmm0, DWORD PTR [ecx]
  0000a	f3 0f 10 0a	 movss	 xmm1, DWORD PTR [edx]
  0000e	8b 45 08	 mov	 eax, DWORD PTR ___$ReturnUdt$[ebp]
  00011	0f 5a c0	 cvtps2pd xmm0, xmm0
  00014	0f 5a c9	 cvtps2pd xmm1, xmm1
  00017	f2 0f 5c c1	 subsd	 xmm0, xmm1
  0001b	f3 0f 10 4a 04	 movss	 xmm1, DWORD PTR [edx+4]
  00020	66 0f 5a c0	 cvtpd2ps xmm0, xmm0
  00024	f3 0f 11 00	 movss	 DWORD PTR [eax], xmm0
  00028	f3 0f 10 41 04	 movss	 xmm0, DWORD PTR [ecx+4]
  0002d	0f 5a c0	 cvtps2pd xmm0, xmm0
  00030	0f 5a c9	 cvtps2pd xmm1, xmm1
  00033	f2 0f 5c c1	 subsd	 xmm0, xmm1
  00037	f3 0f 10 4a 08	 movss	 xmm1, DWORD PTR [edx+8]
  0003c	66 0f 5a c0	 cvtpd2ps xmm0, xmm0
  00040	f3 0f 11 40 04	 movss	 DWORD PTR [eax+4], xmm0
  00045	f3 0f 10 41 08	 movss	 xmm0, DWORD PTR [ecx+8]
  0004a	0f 5a c0	 cvtps2pd xmm0, xmm0
  0004d	0f 5a c9	 cvtps2pd xmm1, xmm1
  00050	f2 0f 5c c1	 subsd	 xmm0, xmm1
  00054	66 0f 5a c0	 cvtpd2ps xmm0, xmm0
  00058	f3 0f 11 40 08	 movss	 DWORD PTR [eax+8], xmm0

; 388  : }

  0005d	5d		 pop	 ebp
  0005e	c2 08 00	 ret	 8
??GD3DXVECTOR3@@QBE?AU0@ABU0@@Z ENDP			; D3DXVECTOR3::operator-
_TEXT	ENDS
PUBLIC	??$_Ptr_cat@V?$_Vector_const_iterator@V?$_Vector_val@UWeaponInfo@@V?$allocator@UWeaponInfo@@@std@@@std@@@std@@PAUWeaponInfo@@@std@@YA?AU_Nonscalar_ptr_iterator_tag@0@AAV?$_Vector_const_iterator@V?$_Vector_val@UWeaponInfo@@V?$allocator@UWeaponInfo@@@std@@@std@@@0@AAPAUWeaponInfo@@@Z ; std::_Ptr_cat<std::_Vector_const_iterator<std::_Vector_val<WeaponInfo,std::allocator<WeaponInfo> > >,WeaponInfo *>
; Function compile flags: /Ogsp
; File c:\program files (x86)\microsoft visual studio 10.0\vc\include\xutility
;	COMDAT ??$_Ptr_cat@V?$_Vector_const_iterator@V?$_Vector_val@UWeaponInfo@@V?$allocator@UWeaponInfo@@@std@@@std@@@std@@PAUWeaponInfo@@@std@@YA?AU_Nonscalar_ptr_iterator_tag@0@AAV?$_Vector_const_iterator@V?$_Vector_val@UWeaponInfo@@V?$allocator@UWeaponInfo@@@std@@@std@@@0@AAPAUWeaponInfo@@@Z
_TEXT	SEGMENT
__Cat$ = -1						; size = 1
___formal$ = 8						; size = 4
___formal$ = 12						; size = 4
??$_Ptr_cat@V?$_Vector_const_iterator@V?$_Vector_val@UWeaponInfo@@V?$allocator@UWeaponInfo@@@std@@@std@@@std@@PAUWeaponInfo@@@std@@YA?AU_Nonscalar_ptr_iterator_tag@0@AAV?$_Vector_const_iterator@V?$_Vector_val@UWeaponInfo@@V?$allocator@UWeaponInfo@@@std@@@std@@@0@AAPAUWeaponInfo@@@Z PROC ; std::_Ptr_cat<std::_Vector_const_iterator<std::_Vector_val<WeaponInfo,std::allocator<WeaponInfo> > >,WeaponInfo *>, COMDAT

; 485  : 	{	// return pointer category from arbitrary arguments

  00000	55		 push	 ebp
  00001	8b ec		 mov	 ebp, esp
  00003	51		 push	 ecx

; 486  : 	_Nonscalar_ptr_iterator_tag _Cat;
; 487  : 	return (_Cat);

  00004	8a 45 ff	 mov	 al, BYTE PTR __Cat$[ebp]

; 488  : 	}

  00007	c9		 leave
  00008	c3		 ret	 0
??$_Ptr_cat@V?$_Vector_const_iterator@V?$_Vector_val@UWeaponInfo@@V?$allocator@UWeaponInfo@@@std@@@std@@@std@@PAUWeaponInfo@@@std@@YA?AU_Nonscalar_ptr_iterator_tag@0@AAV?$_Vector_const_iterator@V?$_Vector_val@UWeaponInfo@@V?$allocator@UWeaponInfo@@@std@@@std@@@0@AAPAUWeaponInfo@@@Z ENDP ; std::_Ptr_cat<std::_Vector_const_iterator<std::_Vector_val<WeaponInfo,std::allocator<WeaponInfo> > >,WeaponInfo *>
_TEXT	ENDS
PUBLIC	??$_Ptr_cat@V?$_Vector_const_iterator@V?$_Vector_val@UForceInfo@@V?$allocator@UForceInfo@@@std@@@std@@@std@@PAUForceInfo@@@std@@YA?AU_Nonscalar_ptr_iterator_tag@0@AAV?$_Vector_const_iterator@V?$_Vector_val@UForceInfo@@V?$allocator@UForceInfo@@@std@@@std@@@0@AAPAUForceInfo@@@Z ; std::_Ptr_cat<std::_Vector_const_iterator<std::_Vector_val<ForceInfo,std::allocator<ForceInfo> > >,ForceInfo *>
; Function compile flags: /Ogsp
;	COMDAT ??$_Ptr_cat@V?$_Vector_const_iterator@V?$_Vector_val@UForceInfo@@V?$allocator@UForceInfo@@@std@@@std@@@std@@PAUForceInfo@@@std@@YA?AU_Nonscalar_ptr_iterator_tag@0@AAV?$_Vector_const_iterator@V?$_Vector_val@UForceInfo@@V?$allocator@UForceInfo@@@std@@@std@@@0@AAPAUForceInfo@@@Z
_TEXT	SEGMENT
__Cat$ = -1						; size = 1
___formal$ = 8						; size = 4
___formal$ = 12						; size = 4
??$_Ptr_cat@V?$_Vector_const_iterator@V?$_Vector_val@UForceInfo@@V?$allocator@UForceInfo@@@std@@@std@@@std@@PAUForceInfo@@@std@@YA?AU_Nonscalar_ptr_iterator_tag@0@AAV?$_Vector_const_iterator@V?$_Vector_val@UForceInfo@@V?$allocator@UForceInfo@@@std@@@std@@@0@AAPAUForceInfo@@@Z PROC ; std::_Ptr_cat<std::_Vector_const_iterator<std::_Vector_val<ForceInfo,std::allocator<ForceInfo> > >,ForceInfo *>, COMDAT

; 485  : 	{	// return pointer category from arbitrary arguments

  00000	55		 push	 ebp
  00001	8b ec		 mov	 ebp, esp
  00003	51		 push	 ecx

; 486  : 	_Nonscalar_ptr_iterator_tag _Cat;
; 487  : 	return (_Cat);

  00004	8a 45 ff	 mov	 al, BYTE PTR __Cat$[ebp]

; 488  : 	}

  00007	c9		 leave
  00008	c3		 ret	 0
??$_Ptr_cat@V?$_Vector_const_iterator@V?$_Vector_val@UForceInfo@@V?$allocator@UForceInfo@@@std@@@std@@@std@@PAUForceInfo@@@std@@YA?AU_Nonscalar_ptr_iterator_tag@0@AAV?$_Vector_const_iterator@V?$_Vector_val@UForceInfo@@V?$allocator@UForceInfo@@@std@@@std@@@0@AAPAUForceInfo@@@Z ENDP ; std::_Ptr_cat<std::_Vector_const_iterator<std::_Vector_val<ForceInfo,std::allocator<ForceInfo> > >,ForceInfo *>
_TEXT	ENDS
PUBLIC	??D?$_Vector_const_iterator@V?$_Vector_val@UWeaponInfo@@V?$allocator@UWeaponInfo@@@std@@@std@@@std@@QBEABUWeaponInfo@@XZ ; std::_Vector_const_iterator<std::_Vector_val<WeaponInfo,std::allocator<WeaponInfo> > >::operator*
; Function compile flags: /Ogsp
; File c:\program files (x86)\microsoft visual studio 10.0\vc\include\vector
;	COMDAT ??D?$_Vector_const_iterator@V?$_Vector_val@UWeaponInfo@@V?$allocator@UWeaponInfo@@@std@@@std@@@std@@QBEABUWeaponInfo@@XZ
_TEXT	SEGMENT
??D?$_Vector_const_iterator@V?$_Vector_val@UWeaponInfo@@V?$allocator@UWeaponInfo@@@std@@@std@@@std@@QBEABUWeaponInfo@@XZ PROC ; std::_Vector_const_iterator<std::_Vector_val<WeaponInfo,std::allocator<WeaponInfo> > >::operator*, COMDAT
; _this$ = ecx

; 64   :  #if _ITERATOR_DEBUG_LEVEL == 2
; 65   : 		if (this->_Getcont() == 0
; 66   : 			|| this->_Ptr == 0
; 67   : 			|| this->_Ptr < ((_Myvec *)this->_Getcont())->_Myfirst
; 68   : 			|| ((_Myvec *)this->_Getcont())->_Mylast <= this->_Ptr)
; 69   : 			{	// report error
; 70   : 			_DEBUG_ERROR("vector iterator not dereferencable");
; 71   : 			_SCL_SECURE_OUT_OF_RANGE;
; 72   : 			}
; 73   : 
; 74   :  #elif _ITERATOR_DEBUG_LEVEL == 1
; 75   : 		_SCL_SECURE_VALIDATE(this->_Getcont() != 0);
; 76   : 		_SCL_SECURE_VALIDATE_RANGE(
; 77   : 			this->_Ptr != 0
; 78   : 			&& ((_Myvec *)this->_Getcont())->_Myfirst <= this->_Ptr
; 79   : 			&& this->_Ptr < ((_Myvec *)this->_Getcont())->_Mylast);
; 80   :  #endif /* _ITERATOR_DEBUG_LEVEL */
; 81   : 
; 82   : 		__analysis_assume(this->_Ptr != 0);
; 83   : 
; 84   : 		return (*this->_Ptr);

  00000	8b 01		 mov	 eax, DWORD PTR [ecx]

; 85   : 		}

  00002	c3		 ret	 0
??D?$_Vector_const_iterator@V?$_Vector_val@UWeaponInfo@@V?$allocator@UWeaponInfo@@@std@@@std@@@std@@QBEABUWeaponInfo@@XZ ENDP ; std::_Vector_const_iterator<std::_Vector_val<WeaponInfo,std::allocator<WeaponInfo> > >::operator*
_TEXT	ENDS
PUBLIC	??E?$_Vector_const_iterator@V?$_Vector_val@UWeaponInfo@@V?$allocator@UWeaponInfo@@@std@@@std@@@std@@QAEAAV01@XZ ; std::_Vector_const_iterator<std::_Vector_val<WeaponInfo,std::allocator<WeaponInfo> > >::operator++
; Function compile flags: /Ogsp
;	COMDAT ??E?$_Vector_const_iterator@V?$_Vector_val@UWeaponInfo@@V?$allocator@UWeaponInfo@@@std@@@std@@@std@@QAEAAV01@XZ
_TEXT	SEGMENT
??E?$_Vector_const_iterator@V?$_Vector_val@UWeaponInfo@@V?$allocator@UWeaponInfo@@@std@@@std@@@std@@QAEAAV01@XZ PROC ; std::_Vector_const_iterator<std::_Vector_val<WeaponInfo,std::allocator<WeaponInfo> > >::operator++, COMDAT
; _this$ = ecx

; 93   : 		{	// preincrement

  00000	8b c1		 mov	 eax, ecx

; 94   :  #if _ITERATOR_DEBUG_LEVEL == 2
; 95   : 		if (this->_Getcont() == 0
; 96   : 			|| this->_Ptr == 0
; 97   : 			|| ((_Myvec *)this->_Getcont())->_Mylast <= this->_Ptr)
; 98   : 			{	// report error
; 99   : 			_DEBUG_ERROR("vector iterator not incrementable");
; 100  : 			_SCL_SECURE_OUT_OF_RANGE;
; 101  : 			}
; 102  : 
; 103  :  #elif _ITERATOR_DEBUG_LEVEL == 1
; 104  : 		_SCL_SECURE_VALIDATE(this->_Getcont() != 0);
; 105  : 		_SCL_SECURE_VALIDATE_RANGE(
; 106  : 			this->_Ptr != 0
; 107  : 			&& this->_Ptr < ((_Myvec *)this->_Getcont())->_Mylast);
; 108  :  #endif /* _ITERATOR_DEBUG_LEVEL */
; 109  : 
; 110  : 		++this->_Ptr;

  00002	83 00 28	 add	 DWORD PTR [eax], 40	; 00000028H

; 111  : 		return (*this);
; 112  : 		}

  00005	c3		 ret	 0
??E?$_Vector_const_iterator@V?$_Vector_val@UWeaponInfo@@V?$allocator@UWeaponInfo@@@std@@@std@@@std@@QAEAAV01@XZ ENDP ; std::_Vector_const_iterator<std::_Vector_val<WeaponInfo,std::allocator<WeaponInfo> > >::operator++
_TEXT	ENDS
PUBLIC	??D?$_Vector_const_iterator@V?$_Vector_val@UForceInfo@@V?$allocator@UForceInfo@@@std@@@std@@@std@@QBEABUForceInfo@@XZ ; std::_Vector_const_iterator<std::_Vector_val<ForceInfo,std::allocator<ForceInfo> > >::operator*
; Function compile flags: /Ogsp
;	COMDAT ??D?$_Vector_const_iterator@V?$_Vector_val@UForceInfo@@V?$allocator@UForceInfo@@@std@@@std@@@std@@QBEABUForceInfo@@XZ
_TEXT	SEGMENT
??D?$_Vector_const_iterator@V?$_Vector_val@UForceInfo@@V?$allocator@UForceInfo@@@std@@@std@@@std@@QBEABUForceInfo@@XZ PROC ; std::_Vector_const_iterator<std::_Vector_val<ForceInfo,std::allocator<ForceInfo> > >::operator*, COMDAT
; _this$ = ecx

; 64   :  #if _ITERATOR_DEBUG_LEVEL == 2
; 65   : 		if (this->_Getcont() == 0
; 66   : 			|| this->_Ptr == 0
; 67   : 			|| this->_Ptr < ((_Myvec *)this->_Getcont())->_Myfirst
; 68   : 			|| ((_Myvec *)this->_Getcont())->_Mylast <= this->_Ptr)
; 69   : 			{	// report error
; 70   : 			_DEBUG_ERROR("vector iterator not dereferencable");
; 71   : 			_SCL_SECURE_OUT_OF_RANGE;
; 72   : 			}
; 73   : 
; 74   :  #elif _ITERATOR_DEBUG_LEVEL == 1
; 75   : 		_SCL_SECURE_VALIDATE(this->_Getcont() != 0);
; 76   : 		_SCL_SECURE_VALIDATE_RANGE(
; 77   : 			this->_Ptr != 0
; 78   : 			&& ((_Myvec *)this->_Getcont())->_Myfirst <= this->_Ptr
; 79   : 			&& this->_Ptr < ((_Myvec *)this->_Getcont())->_Mylast);
; 80   :  #endif /* _ITERATOR_DEBUG_LEVEL */
; 81   : 
; 82   : 		__analysis_assume(this->_Ptr != 0);
; 83   : 
; 84   : 		return (*this->_Ptr);

  00000	8b 01		 mov	 eax, DWORD PTR [ecx]

; 85   : 		}

  00002	c3		 ret	 0
??D?$_Vector_const_iterator@V?$_Vector_val@UForceInfo@@V?$allocator@UForceInfo@@@std@@@std@@@std@@QBEABUForceInfo@@XZ ENDP ; std::_Vector_const_iterator<std::_Vector_val<ForceInfo,std::allocator<ForceInfo> > >::operator*
_TEXT	ENDS
PUBLIC	??E?$_Vector_const_iterator@V?$_Vector_val@UForceInfo@@V?$allocator@UForceInfo@@@std@@@std@@@std@@QAEAAV01@XZ ; std::_Vector_const_iterator<std::_Vector_val<ForceInfo,std::allocator<ForceInfo> > >::operator++
; Function compile flags: /Ogsp
;	COMDAT ??E?$_Vector_const_iterator@V?$_Vector_val@UForceInfo@@V?$allocator@UForceInfo@@@std@@@std@@@std@@QAEAAV01@XZ
_TEXT	SEGMENT
??E?$_Vector_const_iterator@V?$_Vector_val@UForceInfo@@V?$allocator@UForceInfo@@@std@@@std@@@std@@QAEAAV01@XZ PROC ; std::_Vector_const_iterator<std::_Vector_val<ForceInfo,std::allocator<ForceInfo> > >::operator++, COMDAT
; _this$ = ecx

; 93   : 		{	// preincrement

  00000	8b c1		 mov	 eax, ecx

; 94   :  #if _ITERATOR_DEBUG_LEVEL == 2
; 95   : 		if (this->_Getcont() == 0
; 96   : 			|| this->_Ptr == 0
; 97   : 			|| ((_Myvec *)this->_Getcont())->_Mylast <= this->_Ptr)
; 98   : 			{	// report error
; 99   : 			_DEBUG_ERROR("vector iterator not incrementable");
; 100  : 			_SCL_SECURE_OUT_OF_RANGE;
; 101  : 			}
; 102  : 
; 103  :  #elif _ITERATOR_DEBUG_LEVEL == 1
; 104  : 		_SCL_SECURE_VALIDATE(this->_Getcont() != 0);
; 105  : 		_SCL_SECURE_VALIDATE_RANGE(
; 106  : 			this->_Ptr != 0
; 107  : 			&& this->_Ptr < ((_Myvec *)this->_Getcont())->_Mylast);
; 108  :  #endif /* _ITERATOR_DEBUG_LEVEL */
; 109  : 
; 110  : 		++this->_Ptr;

  00002	83 00 0c	 add	 DWORD PTR [eax], 12	; 0000000cH

; 111  : 		return (*this);
; 112  : 		}

  00005	c3		 ret	 0
??E?$_Vector_const_iterator@V?$_Vector_val@UForceInfo@@V?$allocator@UForceInfo@@@std@@@std@@@std@@QAEAAV01@XZ ENDP ; std::_Vector_const_iterator<std::_Vector_val<ForceInfo,std::allocator<ForceInfo> > >::operator++
_TEXT	ENDS
PUBLIC	??$forward@ABUWeaponInfo@@@std@@YAABUWeaponInfo@@ABU1@@Z ; std::forward<WeaponInfo const &>
; Function compile flags: /Ogsp
; File c:\program files (x86)\microsoft visual studio 10.0\vc\include\utility
;	COMDAT ??$forward@ABUWeaponInfo@@@std@@YAABUWeaponInfo@@ABU1@@Z
_TEXT	SEGMENT
__Arg$ = 8						; size = 4
??$forward@ABUWeaponInfo@@@std@@YAABUWeaponInfo@@ABU1@@Z PROC ; std::forward<WeaponInfo const &>, COMDAT

; 78   : 	{	// forward _Arg, given explicitly specified type parameter

  00000	55		 push	 ebp
  00001	8b ec		 mov	 ebp, esp

; 79   : 	return ((_Ty&&)_Arg);

  00003	8b 45 08	 mov	 eax, DWORD PTR __Arg$[ebp]

; 80   : 	}

  00006	5d		 pop	 ebp
  00007	c3		 ret	 0
??$forward@ABUWeaponInfo@@@std@@YAABUWeaponInfo@@ABU1@@Z ENDP ; std::forward<WeaponInfo const &>
_TEXT	ENDS
PUBLIC	??$forward@ABUForceInfo@@@std@@YAABUForceInfo@@ABU1@@Z ; std::forward<ForceInfo const &>
; Function compile flags: /Ogsp
;	COMDAT ??$forward@ABUForceInfo@@@std@@YAABUForceInfo@@ABU1@@Z
_TEXT	SEGMENT
__Arg$ = 8						; size = 4
??$forward@ABUForceInfo@@@std@@YAABUForceInfo@@ABU1@@Z PROC ; std::forward<ForceInfo const &>, COMDAT

; 78   : 	{	// forward _Arg, given explicitly specified type parameter

  00000	55		 push	 ebp
  00001	8b ec		 mov	 ebp, esp

; 79   : 	return ((_Ty&&)_Arg);

  00003	8b 45 08	 mov	 eax, DWORD PTR __Arg$[ebp]

; 80   : 	}

  00006	5d		 pop	 ebp
  00007	c3		 ret	 0
??$forward@ABUForceInfo@@@std@@YAABUForceInfo@@ABU1@@Z ENDP ; std::forward<ForceInfo const &>
_TEXT	ENDS
PUBLIC	??$_Construct@UForceInfo@@ABU1@@std@@YAXPAUForceInfo@@ABU1@@Z ; std::_Construct<ForceInfo,ForceInfo const &>
; Function compile flags: /Ogsp
; File c:\program files (x86)\microsoft visual studio 10.0\vc\include\xmemory
;	COMDAT ??$_Construct@UForceInfo@@ABU1@@std@@YAXPAUForceInfo@@ABU1@@Z
_TEXT	SEGMENT
__Ptr$ = 8						; size = 4
__Val$ = 12						; size = 4
??$_Construct@UForceInfo@@ABU1@@std@@YAXPAUForceInfo@@ABU1@@Z PROC ; std::_Construct<ForceInfo,ForceInfo const &>, COMDAT

; 46   : 	{	// construct object at _Ptr with value _Val

  00000	55		 push	 ebp
  00001	8b ec		 mov	 ebp, esp
  00003	57		 push	 edi

; 47   : 	void _FARQ *_Vptr = _Ptr;
; 48   : 	::new (_Vptr) _Ty1(_STD forward<_Ty2>(_Val));

  00004	8b 7d 08	 mov	 edi, DWORD PTR __Ptr$[ebp]
  00007	85 ff		 test	 edi, edi
  00009	74 08		 je	 SHORT $LN3@Construct
  0000b	56		 push	 esi
  0000c	8b 75 0c	 mov	 esi, DWORD PTR __Val$[ebp]
  0000f	a5		 movsd
  00010	a5		 movsd
  00011	a5		 movsd
  00012	5e		 pop	 esi
$LN3@Construct:
  00013	5f		 pop	 edi

; 49   : 	}

  00014	5d		 pop	 ebp
  00015	c3		 ret	 0
??$_Construct@UForceInfo@@ABU1@@std@@YAXPAUForceInfo@@ABU1@@Z ENDP ; std::_Construct<ForceInfo,ForceInfo const &>
_TEXT	ENDS
PUBLIC	?D3DXVec3LengthSq@@YAMPBUD3DXVECTOR3@@@Z	; D3DXVec3LengthSq
; Function compile flags: /Ogsp
; File c:\program files (x86)\microsoft directx sdk (june 2010)\include\d3dx9math.inl
;	COMDAT ?D3DXVec3LengthSq@@YAMPBUD3DXVECTOR3@@@Z
_TEXT	SEGMENT
tv165 = 8						; size = 4
_pV$ = 8						; size = 4
?D3DXVec3LengthSq@@YAMPBUD3DXVECTOR3@@@Z PROC		; D3DXVec3LengthSq, COMDAT

; 1725 : {

  00000	55		 push	 ebp
  00001	8b ec		 mov	 ebp, esp

; 1726 : #ifdef D3DX_DEBUG
; 1727 :     if(!pV)
; 1728 :         return 0.0f;
; 1729 : #endif
; 1730 : 
; 1731 :     return pV->x * pV->x + pV->y * pV->y + pV->z * pV->z;

  00003	8b 45 08	 mov	 eax, DWORD PTR _pV$[ebp]
  00006	d9 40 04	 fld	 DWORD PTR [eax+4]
  00009	d9 00		 fld	 DWORD PTR [eax]
  0000b	d9 40 08	 fld	 DWORD PTR [eax+8]
  0000e	d9 c1		 fld	 ST(1)
  00010	de ca		 fmulp	 ST(2), ST(0)
  00012	d9 c2		 fld	 ST(2)
  00014	de cb		 fmulp	 ST(3), ST(0)
  00016	d9 c9		 fxch	 ST(1)
  00018	de c2		 faddp	 ST(2), ST(0)
  0001a	d9 c0		 fld	 ST(0)
  0001c	de c9		 fmulp	 ST(1), ST(0)
  0001e	de c1		 faddp	 ST(1), ST(0)
  00020	d9 5d 08	 fstp	 DWORD PTR tv165[ebp]
  00023	d9 45 08	 fld	 DWORD PTR tv165[ebp]

; 1732 : }

  00026	5d		 pop	 ebp
  00027	c3		 ret	 0
?D3DXVec3LengthSq@@YAMPBUD3DXVECTOR3@@@Z ENDP		; D3DXVec3LengthSq
_TEXT	ENDS
PUBLIC	?D3DXVec3Dot@@YAMPBUD3DXVECTOR3@@0@Z		; D3DXVec3Dot
; Function compile flags: /Ogsp
;	COMDAT ?D3DXVec3Dot@@YAMPBUD3DXVECTOR3@@0@Z
_TEXT	SEGMENT
tv188 = 8						; size = 4
_pV1$ = 8						; size = 4
_pV2$ = 12						; size = 4
?D3DXVec3Dot@@YAMPBUD3DXVECTOR3@@0@Z PROC		; D3DXVec3Dot, COMDAT

; 1736 : {

  00000	55		 push	 ebp
  00001	8b ec		 mov	 ebp, esp

; 1737 : #ifdef D3DX_DEBUG
; 1738 :     if(!pV1 || !pV2)
; 1739 :         return 0.0f;
; 1740 : #endif
; 1741 : 
; 1742 :     return pV1->x * pV2->x + pV1->y * pV2->y + pV1->z * pV2->z;

  00003	8b 45 08	 mov	 eax, DWORD PTR _pV1$[ebp]
  00006	8b 4d 0c	 mov	 ecx, DWORD PTR _pV2$[ebp]
  00009	d9 40 04	 fld	 DWORD PTR [eax+4]
  0000c	d8 49 04	 fmul	 DWORD PTR [ecx+4]
  0000f	d9 00		 fld	 DWORD PTR [eax]
  00011	d8 09		 fmul	 DWORD PTR [ecx]
  00013	de c1		 faddp	 ST(1), ST(0)
  00015	d9 40 08	 fld	 DWORD PTR [eax+8]
  00018	d8 49 08	 fmul	 DWORD PTR [ecx+8]
  0001b	de c1		 faddp	 ST(1), ST(0)
  0001d	d9 5d 08	 fstp	 DWORD PTR tv188[ebp]
  00020	d9 45 08	 fld	 DWORD PTR tv188[ebp]

; 1743 : }

  00023	5d		 pop	 ebp
  00024	c3		 ret	 0
?D3DXVec3Dot@@YAMPBUD3DXVECTOR3@@0@Z ENDP		; D3DXVec3Dot
_TEXT	ENDS
PUBLIC	?_DECSTR@@YAXPADH@Z				; _DECSTR
; Function compile flags: /Ogsp
; File d:\lost saga for developer\youtube\tutorial\source\src\lsclient\stringprotect.h
;	COMDAT ?_DECSTR@@YAXPADH@Z
_TEXT	SEGMENT
_s$ = 8							; size = 4
_l$ = 12						; size = 4
?_DECSTR@@YAXPADH@Z PROC				; _DECSTR, COMDAT

; 40   : __forceinline void _DECSTR(char* s, int l){int i=0,l4=(l-1)/4,*p=(int*)s;s[l-1]=0;for(;i<l4;++i)*(p++)^=0xEAEBECED;for(i=l4*4;i<l-1;++i)s[i]^=0xED-i%4;}

  00000	55		 push	 ebp
  00001	8b ec		 mov	 ebp, esp
  00003	8b 4d 0c	 mov	 ecx, DWORD PTR _l$[ebp]
  00006	56		 push	 esi
  00007	8b 75 08	 mov	 esi, DWORD PTR _s$[ebp]
  0000a	57		 push	 edi
  0000b	8d 79 ff	 lea	 edi, DWORD PTR [ecx-1]
  0000e	8b c7		 mov	 eax, edi
  00010	99		 cdq
  00011	83 e2 03	 and	 edx, 3
  00014	03 c2		 add	 eax, edx
  00016	c1 f8 02	 sar	 eax, 2
  00019	8b d6		 mov	 edx, esi
  0001b	c6 44 0e ff 00	 mov	 BYTE PTR [esi+ecx-1], 0
  00020	85 c0		 test	 eax, eax
  00022	7e 0e		 jle	 SHORT $LN4@DECSTR
  00024	8b c8		 mov	 ecx, eax
$LL6@DECSTR:
  00026	81 32 ed ec eb
	ea		 xor	 DWORD PTR [edx], -353637139 ; eaebecedH
  0002c	83 c2 04	 add	 edx, 4
  0002f	49		 dec	 ecx
  00030	75 f4		 jne	 SHORT $LL6@DECSTR
$LN4@DECSTR:
  00032	c1 e0 02	 shl	 eax, 2
  00035	eb 17		 jmp	 SHORT $LN14@DECSTR
$LL3@DECSTR:
  00037	8b c8		 mov	 ecx, eax
  00039	81 e1 03 00 00
	80		 and	 ecx, -2147483645	; 80000003H
  0003f	79 05		 jns	 SHORT $LN13@DECSTR
  00041	49		 dec	 ecx
  00042	83 c9 fc	 or	 ecx, -4			; fffffffcH
  00045	41		 inc	 ecx
$LN13@DECSTR:
  00046	b2 ed		 mov	 dl, -19			; ffffffedH
  00048	2a d1		 sub	 dl, cl
  0004a	30 14 30	 xor	 BYTE PTR [eax+esi], dl
  0004d	40		 inc	 eax
$LN14@DECSTR:
  0004e	3b c7		 cmp	 eax, edi
  00050	7c e5		 jl	 SHORT $LL3@DECSTR
  00052	5f		 pop	 edi
  00053	5e		 pop	 esi
  00054	5d		 pop	 ebp
  00055	c3		 ret	 0
?_DECSTR@@YAXPADH@Z ENDP				; _DECSTR
_TEXT	ENDS
PUBLIC	?return57@@YAIXZ				; return57
; Function compile flags: /Ogsp
; File d:\lost saga for developer\youtube\tutorial\source\src\lsclient\veryoftenusedefine.h
;	COMDAT ?return57@@YAIXZ
_TEXT	SEGMENT
?return57@@YAIXZ PROC					; return57, COMDAT

; 15   : __forceinline unsigned int return57() { __asm mov eax, 57 };

  00000	b8 39 00 00 00	 mov	 eax, 57			; 00000039H
  00005	c3		 ret	 0
?return57@@YAIXZ ENDP					; return57
_TEXT	ENDS
PUBLIC	?GetGroup@ioGameEntity@@QBEPAVioEntityGroup@@XZ	; ioGameEntity::GetGroup
; Function compile flags: /Ogsp
; File d:\lost saga for developer\youtube\tutorial\source\src\lsclient\iogameentity.h
;	COMDAT ?GetGroup@ioGameEntity@@QBEPAVioEntityGroup@@XZ
_TEXT	SEGMENT
?GetGroup@ioGameEntity@@QBEPAVioEntityGroup@@XZ PROC	; ioGameEntity::GetGroup, COMDAT
; _this$ = ecx

; 166  : 	inline ioEntityGroup* GetGroup() const { return m_pGroup; }

  00000	8b 41 04	 mov	 eax, DWORD PTR [ecx+4]
  00003	c3		 ret	 0
?GetGroup@ioGameEntity@@QBEPAVioEntityGroup@@XZ ENDP	; ioGameEntity::GetGroup
_TEXT	ENDS
PUBLIC	??1WeaponInfo@@QAE@XZ				; WeaponInfo::~WeaponInfo
; Function compile flags: /Ogsp
;	COMDAT ??1WeaponInfo@@QAE@XZ
_TEXT	SEGMENT
??1WeaponInfo@@QAE@XZ PROC				; WeaponInfo::~WeaponInfo, COMDAT
; _this$ = ecx
  00000	83 c1 08	 add	 ecx, 8
  00003	ff 25 00 00 00
	00		 jmp	 DWORD PTR __imp_??1ioHashString@@QAE@XZ
??1WeaponInfo@@QAE@XZ ENDP				; WeaponInfo::~WeaponInfo
_TEXT	ENDS
PUBLIC	?GetName@ioSkill@@QBEABVioHashString@@XZ	; ioSkill::GetName
; Function compile flags: /Ogsp
; File d:\lost saga for developer\youtube\tutorial\source\src\lsclient\ioskill.h
;	COMDAT ?GetName@ioSkill@@QBEABVioHashString@@XZ
_TEXT	SEGMENT
?GetName@ioSkill@@QBEABVioHashString@@XZ PROC		; ioSkill::GetName, COMDAT
; _this$ = ecx

; 414  : 	inline const ioHashString& GetName() const { return m_Name; }

  00000	8d 41 24	 lea	 eax, DWORD PTR [ecx+36]
  00003	c3		 ret	 0
?GetName@ioSkill@@QBEABVioHashString@@XZ ENDP		; ioSkill::GetName
_TEXT	ENDS
PUBLIC	??_7?$CEncrypt@M@@6B@				; CEncrypt<float>::`vftable'
PUBLIC	??1?$CEncrypt@M@@UAE@XZ				; CEncrypt<float>::~CEncrypt<float>
PUBLIC	??_R4?$CEncrypt@M@@6B@				; CEncrypt<float>::`RTTI Complete Object Locator'
PUBLIC	??_R0?AV?$CEncrypt@M@@@8			; CEncrypt<float> `RTTI Type Descriptor'
PUBLIC	??_R3?$CEncrypt@M@@8				; CEncrypt<float>::`RTTI Class Hierarchy Descriptor'
PUBLIC	??_R2?$CEncrypt@M@@8				; CEncrypt<float>::`RTTI Base Class Array'
PUBLIC	??_R1A@?0A@EA@?$CEncrypt@M@@8			; CEncrypt<float>::`RTTI Base Class Descriptor at (0,-1,0,64)'
EXTRN	??1ccddaabb@@UAE@XZ:PROC			; ccddaabb::~ccddaabb
EXTRN	??_E?$CEncrypt@M@@UAEPAXI@Z:PROC		; CEncrypt<float>::`vector deleting destructor'
;	COMDAT ??_R1A@?0A@EA@?$CEncrypt@M@@8
; File d:\lost saga for developer\youtube\tutorial\source\src\lsclient\encryptvalue.h
rdata$r	SEGMENT
??_R1A@?0A@EA@?$CEncrypt@M@@8 DD FLAT:??_R0?AV?$CEncrypt@M@@@8 ; CEncrypt<float>::`RTTI Base Class Descriptor at (0,-1,0,64)'
	DD	00H
	DD	00H
	DD	0ffffffffH
	DD	00H
	DD	040H
	DD	FLAT:??_R3?$CEncrypt@M@@8
rdata$r	ENDS
;	COMDAT ??_R2?$CEncrypt@M@@8
rdata$r	SEGMENT
??_R2?$CEncrypt@M@@8 DD FLAT:??_R1A@?0A@EA@?$CEncrypt@M@@8 ; CEncrypt<float>::`RTTI Base Class Array'
rdata$r	ENDS
;	COMDAT ??_R3?$CEncrypt@M@@8
rdata$r	SEGMENT
??_R3?$CEncrypt@M@@8 DD 00H				; CEncrypt<float>::`RTTI Class Hierarchy Descriptor'
	DD	00H
	DD	01H
	DD	FLAT:??_R2?$CEncrypt@M@@8
rdata$r	ENDS
;	COMDAT ??_R0?AV?$CEncrypt@M@@@8
_DATA	SEGMENT
??_R0?AV?$CEncrypt@M@@@8 DD FLAT:??_7type_info@@6B@	; CEncrypt<float> `RTTI Type Descriptor'
	DD	00H
	DB	'.?AV?$CEncrypt@M@@', 00H
_DATA	ENDS
;	COMDAT ??_R4?$CEncrypt@M@@6B@
rdata$r	SEGMENT
??_R4?$CEncrypt@M@@6B@ DD 00H				; CEncrypt<float>::`RTTI Complete Object Locator'
	DD	00H
	DD	00H
	DD	FLAT:??_R0?AV?$CEncrypt@M@@@8
	DD	FLAT:??_R3?$CEncrypt@M@@8
rdata$r	ENDS
;	COMDAT ??_7?$CEncrypt@M@@6B@
CONST	SEGMENT
??_7?$CEncrypt@M@@6B@ DD FLAT:??_R4?$CEncrypt@M@@6B@	; CEncrypt<float>::`vftable'
	DD	FLAT:??_E?$CEncrypt@M@@UAEPAXI@Z
; Function compile flags: /Ogsp
CONST	ENDS
;	COMDAT ??1?$CEncrypt@M@@UAE@XZ
_TEXT	SEGMENT
??1?$CEncrypt@M@@UAE@XZ PROC				; CEncrypt<float>::~CEncrypt<float>, COMDAT
; _this$ = ecx

; 127  : 	{

  00000	c7 01 00 00 00
	00		 mov	 DWORD PTR [ecx], OFFSET ??_7?$CEncrypt@M@@6B@

; 128  : 	}

  00006	83 c1 0c	 add	 ecx, 12			; 0000000cH
  00009	e9 00 00 00 00	 jmp	 ??1ccddaabb@@UAE@XZ	; ccddaabb::~ccddaabb
??1?$CEncrypt@M@@UAE@XZ ENDP				; CEncrypt<float>::~CEncrypt<float>
; Function compile flags: /Ogsp
_TEXT	ENDS
;	COMDAT ??_G?$CEncrypt@M@@UAEPAXI@Z
_TEXT	SEGMENT
___flags$ = 8						; size = 4
??_G?$CEncrypt@M@@UAEPAXI@Z PROC			; CEncrypt<float>::`scalar deleting destructor', COMDAT
; _this$ = ecx
  00000	55		 push	 ebp
  00001	8b ec		 mov	 ebp, esp
  00003	56		 push	 esi
  00004	8b f1		 mov	 esi, ecx
  00006	8d 4e 0c	 lea	 ecx, DWORD PTR [esi+12]
  00009	c7 06 00 00 00
	00		 mov	 DWORD PTR [esi], OFFSET ??_7?$CEncrypt@M@@6B@
  0000f	e8 00 00 00 00	 call	 ??1ccddaabb@@UAE@XZ	; ccddaabb::~ccddaabb
  00014	f6 45 08 01	 test	 BYTE PTR ___flags$[ebp], 1
  00018	74 07		 je	 SHORT $LN1@scalar@2
  0001a	56		 push	 esi
  0001b	e8 00 00 00 00	 call	 ??3@YAXPAX@Z		; operator delete
  00020	59		 pop	 ecx
$LN1@scalar@2:
  00021	8b c6		 mov	 eax, esi
  00023	5e		 pop	 esi
  00024	5d		 pop	 ebp
  00025	c2 04 00	 ret	 4
??_G?$CEncrypt@M@@UAEPAXI@Z ENDP			; CEncrypt<float>::`scalar deleting destructor'
_TEXT	ENDS
PUBLIC	??1?$_Vector_val@UWeaponInfo@@V?$allocator@UWeaponInfo@@@std@@@std@@QAE@XZ ; std::_Vector_val<WeaponInfo,std::allocator<WeaponInfo> >::~_Vector_val<WeaponInfo,std::allocator<WeaponInfo> >
; Function compile flags: /Ogsp
; File c:\program files (x86)\microsoft visual studio 10.0\vc\include\vector
;	COMDAT ??1?$_Vector_val@UWeaponInfo@@V?$allocator@UWeaponInfo@@@std@@@std@@QAE@XZ
_TEXT	SEGMENT
??1?$_Vector_val@UWeaponInfo@@V?$allocator@UWeaponInfo@@@std@@@std@@QAE@XZ PROC ; std::_Vector_val<WeaponInfo,std::allocator<WeaponInfo> >::~_Vector_val<WeaponInfo,std::allocator<WeaponInfo> >, COMDAT
; _this$ = ecx

; 434  : 		}

  00000	c3		 ret	 0
??1?$_Vector_val@UWeaponInfo@@V?$allocator@UWeaponInfo@@@std@@@std@@QAE@XZ ENDP ; std::_Vector_val<WeaponInfo,std::allocator<WeaponInfo> >::~_Vector_val<WeaponInfo,std::allocator<WeaponInfo> >
_TEXT	ENDS
PUBLIC	??0?$allocator@UWeaponInfo@@@std@@QAE@XZ	; std::allocator<WeaponInfo>::allocator<WeaponInfo>
; Function compile flags: /Ogsp
; File c:\program files (x86)\microsoft visual studio 10.0\vc\include\xmemory
;	COMDAT ??0?$allocator@UWeaponInfo@@@std@@QAE@XZ
_TEXT	SEGMENT
??0?$allocator@UWeaponInfo@@@std@@QAE@XZ PROC		; std::allocator<WeaponInfo>::allocator<WeaponInfo>, COMDAT
; _this$ = ecx

; 161  : 	_ALLOCATOR() _THROW0()

  00000	8b c1		 mov	 eax, ecx

; 162  : 		{	// construct default allocator (do nothing)
; 163  : 		}

  00002	c3		 ret	 0
??0?$allocator@UWeaponInfo@@@std@@QAE@XZ ENDP		; std::allocator<WeaponInfo>::allocator<WeaponInfo>
_TEXT	ENDS
PUBLIC	??1?$_Vector_val@UForceInfo@@V?$allocator@UForceInfo@@@std@@@std@@QAE@XZ ; std::_Vector_val<ForceInfo,std::allocator<ForceInfo> >::~_Vector_val<ForceInfo,std::allocator<ForceInfo> >
; Function compile flags: /Ogsp
; File c:\program files (x86)\microsoft visual studio 10.0\vc\include\vector
;	COMDAT ??1?$_Vector_val@UForceInfo@@V?$allocator@UForceInfo@@@std@@@std@@QAE@XZ
_TEXT	SEGMENT
??1?$_Vector_val@UForceInfo@@V?$allocator@UForceInfo@@@std@@@std@@QAE@XZ PROC ; std::_Vector_val<ForceInfo,std::allocator<ForceInfo> >::~_Vector_val<ForceInfo,std::allocator<ForceInfo> >, COMDAT
; _this$ = ecx

; 434  : 		}

  00000	c3		 ret	 0
??1?$_Vector_val@UForceInfo@@V?$allocator@UForceInfo@@@std@@@std@@QAE@XZ ENDP ; std::_Vector_val<ForceInfo,std::allocator<ForceInfo> >::~_Vector_val<ForceInfo,std::allocator<ForceInfo> >
_TEXT	ENDS
PUBLIC	??0?$allocator@UForceInfo@@@std@@QAE@XZ		; std::allocator<ForceInfo>::allocator<ForceInfo>
; Function compile flags: /Ogsp
; File c:\program files (x86)\microsoft visual studio 10.0\vc\include\xmemory
;	COMDAT ??0?$allocator@UForceInfo@@@std@@QAE@XZ
_TEXT	SEGMENT
??0?$allocator@UForceInfo@@@std@@QAE@XZ PROC		; std::allocator<ForceInfo>::allocator<ForceInfo>, COMDAT
; _this$ = ecx

; 161  : 	_ALLOCATOR() _THROW0()

  00000	8b c1		 mov	 eax, ecx

; 162  : 		{	// construct default allocator (do nothing)
; 163  : 		}

  00002	c3		 ret	 0
??0?$allocator@UForceInfo@@@std@@QAE@XZ ENDP		; std::allocator<ForceInfo>::allocator<ForceInfo>
_TEXT	ENDS
PUBLIC	?EncryptValueToPool@?$CEncrypt@M@@AAEXPBD@Z	; CEncrypt<float>::EncryptValueToPool
EXTRN	?EncryptByte@ccddaabb@@QAEXPBDPADH@Z:PROC	; ccddaabb::EncryptByte
; Function compile flags: /Ogsp
; File d:\lost saga for developer\youtube\tutorial\source\src\lsclient\encryptvalue.h
;	COMDAT ?EncryptValueToPool@?$CEncrypt@M@@AAEXPBD@Z
_TEXT	SEGMENT
_value$ = 8						; size = 4
?EncryptValueToPool@?$CEncrypt@M@@AAEXPBD@Z PROC	; CEncrypt<float>::EncryptValueToPool, COMDAT
; _this$ = ecx

; 67   : 	{

  00000	55		 push	 ebp
  00001	8b ec		 mov	 ebp, esp

; 68   : 		m_RC5.EncryptByte( value, m_MemPool, max(m_ValueSize, DEFAULT_ENCRYPT) );

  00003	0f b7 41 06	 movzx	 eax, WORD PTR [ecx+6]
  00007	83 f8 04	 cmp	 eax, 4
  0000a	77 03		 ja	 SHORT $LN4@EncryptVal
  0000c	6a 04		 push	 4
  0000e	58		 pop	 eax
$LN4@EncryptVal:
  0000f	50		 push	 eax
  00010	8d 41 1c	 lea	 eax, DWORD PTR [ecx+28]
  00013	50		 push	 eax
  00014	ff 75 08	 push	 DWORD PTR _value$[ebp]
  00017	83 c1 0c	 add	 ecx, 12			; 0000000cH
  0001a	e8 00 00 00 00	 call	 ?EncryptByte@ccddaabb@@QAEXPBDPADH@Z ; ccddaabb::EncryptByte

; 69   : 		
; 70   : 	}

  0001f	5d		 pop	 ebp
  00020	c2 04 00	 ret	 4
?EncryptValueToPool@?$CEncrypt@M@@AAEXPBD@Z ENDP	; CEncrypt<float>::EncryptValueToPool
_TEXT	ENDS
PUBLIC	?Init@?$CEncrypt@M@@AAEXXZ			; CEncrypt<float>::Init
EXTRN	?Setup@ccddaabb@@QAEXPBDHH@Z:PROC		; ccddaabb::Setup
EXTRN	__imp__rand:PROC
EXTRN	__imp__timeGetTime@0:PROC
EXTRN	__imp__GetCurrentProcessId@0:PROC
; Function compile flags: /Ogsp
;	COMDAT ?Init@?$CEncrypt@M@@AAEXXZ
_TEXT	SEGMENT
_pid$ = -8						; size = 4
_tick$ = -4						; size = 4
?Init@?$CEncrypt@M@@AAEXXZ PROC				; CEncrypt<float>::Init, COMDAT
; _this$ = ecx

; 73   : 	{

  00000	55		 push	 ebp
  00001	8b ec		 mov	 ebp, esp
  00003	51		 push	 ecx
  00004	51		 push	 ecx
  00005	53		 push	 ebx
  00006	56		 push	 esi
  00007	57		 push	 edi
  00008	8b f1		 mov	 esi, ecx

; 74   : 		DWORD pid = GetCurrentProcessId();

  0000a	ff 15 00 00 00
	00		 call	 DWORD PTR __imp__GetCurrentProcessId@0
  00010	89 45 f8	 mov	 DWORD PTR _pid$[ebp], eax

; 75   : 		DWORD tick = timeGetTime();

  00013	ff 15 00 00 00
	00		 call	 DWORD PTR __imp__timeGetTime@0

; 76   : 		m_ValueSize    = sizeof(type);
; 77   : 		m_MemPoolPos   = (unsigned short)( rand()+pid+tick )%(MAX_MEM_POOL-m_ValueSize);

  00019	8b 3d 00 00 00
	00		 mov	 edi, DWORD PTR __imp__rand
  0001f	89 45 fc	 mov	 DWORD PTR _tick$[ebp], eax
  00022	6a 04		 push	 4
  00024	58		 pop	 eax
  00025	66 89 46 06	 mov	 WORD PTR [esi+6], ax
  00029	ff d7		 call	 edi
  0002b	03 45 f8	 add	 eax, DWORD PTR _pid$[ebp]
  0002e	0f b7 4e 06	 movzx	 ecx, WORD PTR [esi+6]
  00032	03 45 fc	 add	 eax, DWORD PTR _tick$[ebp]
  00035	6a 0c		 push	 12			; 0000000cH
  00037	0f b7 c0	 movzx	 eax, ax
  0003a	5b		 pop	 ebx
  0003b	99		 cdq
  0003c	2b d9		 sub	 ebx, ecx
  0003e	f7 fb		 idiv	 ebx
  00040	66 89 56 04	 mov	 WORD PTR [esi+4], dx

; 78   : 		m_EncryptSeed  = (char)( rand()+pid+tick )%256;

  00044	ff d7		 call	 edi
  00046	02 45 f8	 add	 al, BYTE PTR _pid$[ebp]
  00049	02 45 fc	 add	 al, BYTE PTR _tick$[ebp]
  0004c	0f be c0	 movsx	 eax, al
  0004f	25 ff 00 00 80	 and	 eax, -2147483393	; 800000ffH
  00054	79 07		 jns	 SHORT $LN8@Init
  00056	48		 dec	 eax
  00057	0d 00 ff ff ff	 or	 eax, -256		; ffffff00H
  0005c	40		 inc	 eax
$LN8@Init:
  0005d	88 46 08	 mov	 BYTE PTR [esi+8], al

; 79   : 
; 80   : 		for (int i = 0; i < MAX_MEM_POOL ; i++)

  00060	33 db		 xor	 ebx, ebx
$LL3@Init:

; 81   : 			m_MemPool[i] = (char)( rand()+pid+tick )%256; // 

  00062	ff d7		 call	 edi
  00064	02 45 f8	 add	 al, BYTE PTR _pid$[ebp]
  00067	02 45 fc	 add	 al, BYTE PTR _tick$[ebp]
  0006a	0f be c0	 movsx	 eax, al
  0006d	25 ff 00 00 80	 and	 eax, -2147483393	; 800000ffH
  00072	79 07		 jns	 SHORT $LN9@Init
  00074	48		 dec	 eax
  00075	0d 00 ff ff ff	 or	 eax, -256		; ffffff00H
  0007a	40		 inc	 eax
$LN9@Init:
  0007b	88 44 1e 1c	 mov	 BYTE PTR [esi+ebx+28], al
  0007f	43		 inc	 ebx
  00080	83 fb 0c	 cmp	 ebx, 12			; 0000000cH
  00083	7c dd		 jl	 SHORT $LL3@Init

; 82   : 
; 83   : 		//UJ 130913, : szKey  
; 84   : 		//char szKey[ccddaabb::KEY_SIZE];//="";
; 85   : 		//for (int i = 0; i < ccddaabb::KEY_SIZE  ; i++)
; 86   : 		//	szKey[i] = (char)( rand()+pid+tick )%256; // 
; 87   : 		m_RC5.Setup( NULL, pid, tick );

  00085	ff 75 fc	 push	 DWORD PTR _tick$[ebp]
  00088	8d 4e 0c	 lea	 ecx, DWORD PTR [esi+12]
  0008b	ff 75 f8	 push	 DWORD PTR _pid$[ebp]
  0008e	6a 00		 push	 0
  00090	e8 00 00 00 00	 call	 ?Setup@ccddaabb@@QAEXPBDHH@Z ; ccddaabb::Setup
  00095	5f		 pop	 edi
  00096	5e		 pop	 esi
  00097	5b		 pop	 ebx

; 88   : 
; 89   : #ifdef _NOTUSE
; 90   : 		m_value        = 0;
; 91   : 		EncryptValueToPool((char*)&m_value);
; 92   : 		Debug();
; 93   : #endif
; 94   : 	}

  00098	c9		 leave
  00099	c3		 ret	 0
?Init@?$CEncrypt@M@@AAEXXZ ENDP				; CEncrypt<float>::Init
_TEXT	ENDS
PUBLIC	?DecryptValueToPool@?$CEncrypt@M@@QAEXPAM@Z	; CEncrypt<float>::DecryptValueToPool
EXTRN	?DecryptByte@ccddaabb@@QBEXPBDPADH@Z:PROC	; ccddaabb::DecryptByte
; Function compile flags: /Ogsp
;	COMDAT ?DecryptValueToPool@?$CEncrypt@M@@QAEXPAM@Z
_TEXT	SEGMENT
_value$ = 8						; size = 4
?DecryptValueToPool@?$CEncrypt@M@@QAEXPAM@Z PROC	; CEncrypt<float>::DecryptValueToPool, COMDAT
; _this$ = ecx

; 1648 : 	{

  00000	55		 push	 ebp
  00001	8b ec		 mov	 ebp, esp
  00003	56		 push	 esi

; 1649 : 		m_RC5.DecryptByte( m_MemPool, m_TempMem, 4 );

  00004	8d 71 28	 lea	 esi, DWORD PTR [ecx+40]
  00007	6a 04		 push	 4
  00009	8d 41 1c	 lea	 eax, DWORD PTR [ecx+28]
  0000c	56		 push	 esi
  0000d	50		 push	 eax
  0000e	83 c1 0c	 add	 ecx, 12			; 0000000cH
  00011	e8 00 00 00 00	 call	 ?DecryptByte@ccddaabb@@QBEXPBDPADH@Z ; ccddaabb::DecryptByte

; 1650 : 		*value = *((float*)m_TempMem);

  00016	d9 06		 fld	 DWORD PTR [esi]
  00018	8b 45 08	 mov	 eax, DWORD PTR _value$[ebp]
  0001b	d9 18		 fstp	 DWORD PTR [eax]
  0001d	5e		 pop	 esi

; 1651 : 	}

  0001e	5d		 pop	 ebp
  0001f	c2 04 00	 ret	 4
?DecryptValueToPool@?$CEncrypt@M@@QAEXPAM@Z ENDP	; CEncrypt<float>::DecryptValueToPool
_TEXT	ENDS
PUBLIC	?EncryptValueToPool@?$CEncrypt@K@@AAEXPBD@Z	; CEncrypt<unsigned long>::EncryptValueToPool
; Function compile flags: /Ogsp
;	COMDAT ?EncryptValueToPool@?$CEncrypt@K@@AAEXPBD@Z
_TEXT	SEGMENT
_value$ = 8						; size = 4
?EncryptValueToPool@?$CEncrypt@K@@AAEXPBD@Z PROC	; CEncrypt<unsigned long>::EncryptValueToPool, COMDAT
; _this$ = ecx

; 67   : 	{

  00000	55		 push	 ebp
  00001	8b ec		 mov	 ebp, esp

; 68   : 		m_RC5.EncryptByte( value, m_MemPool, max(m_ValueSize, DEFAULT_ENCRYPT) );

  00003	0f b7 41 06	 movzx	 eax, WORD PTR [ecx+6]
  00007	83 f8 04	 cmp	 eax, 4
  0000a	77 03		 ja	 SHORT $LN4@EncryptVal@2
  0000c	6a 04		 push	 4
  0000e	58		 pop	 eax
$LN4@EncryptVal@2:
  0000f	50		 push	 eax
  00010	8d 41 1c	 lea	 eax, DWORD PTR [ecx+28]
  00013	50		 push	 eax
  00014	ff 75 08	 push	 DWORD PTR _value$[ebp]
  00017	83 c1 0c	 add	 ecx, 12			; 0000000cH
  0001a	e8 00 00 00 00	 call	 ?EncryptByte@ccddaabb@@QAEXPBDPADH@Z ; ccddaabb::EncryptByte

; 69   : 		
; 70   : 	}

  0001f	5d		 pop	 ebp
  00020	c2 04 00	 ret	 4
?EncryptValueToPool@?$CEncrypt@K@@AAEXPBD@Z ENDP	; CEncrypt<unsigned long>::EncryptValueToPool
_TEXT	ENDS
PUBLIC	?DecryptValueToPool@?$CEncrypt@K@@QAEXPAK@Z	; CEncrypt<unsigned long>::DecryptValueToPool
; Function compile flags: /Ogsp
;	COMDAT ?DecryptValueToPool@?$CEncrypt@K@@QAEXPAK@Z
_TEXT	SEGMENT
_value$ = 8						; size = 4
?DecryptValueToPool@?$CEncrypt@K@@QAEXPAK@Z PROC	; CEncrypt<unsigned long>::DecryptValueToPool, COMDAT
; _this$ = ecx

; 1256 : 	{

  00000	55		 push	 ebp
  00001	8b ec		 mov	 ebp, esp
  00003	56		 push	 esi

; 1257 : 		m_RC5.DecryptByte( m_MemPool, m_TempMem, 4 );

  00004	8d 71 28	 lea	 esi, DWORD PTR [ecx+40]
  00007	6a 04		 push	 4
  00009	8d 41 1c	 lea	 eax, DWORD PTR [ecx+28]
  0000c	56		 push	 esi
  0000d	50		 push	 eax
  0000e	83 c1 0c	 add	 ecx, 12			; 0000000cH
  00011	e8 00 00 00 00	 call	 ?DecryptByte@ccddaabb@@QBEXPBDPADH@Z ; ccddaabb::DecryptByte

; 1258 : 		*value = *((DWORD*)m_TempMem);

  00016	8b 06		 mov	 eax, DWORD PTR [esi]
  00018	8b 4d 08	 mov	 ecx, DWORD PTR _value$[ebp]
  0001b	89 01		 mov	 DWORD PTR [ecx], eax
  0001d	5e		 pop	 esi

; 1259 : 	}

  0001e	5d		 pop	 ebp
  0001f	c2 04 00	 ret	 4
?DecryptValueToPool@?$CEncrypt@K@@QAEXPAK@Z ENDP	; CEncrypt<unsigned long>::DecryptValueToPool
_TEXT	ENDS
PUBLIC	?DecryptValueToPool@?$CEncrypt@W4TeamType@@@@QAEXPAW4TeamType@@@Z ; CEncrypt<enum TeamType>::DecryptValueToPool
; Function compile flags: /Ogsp
;	COMDAT ?DecryptValueToPool@?$CEncrypt@W4TeamType@@@@QAEXPAW4TeamType@@@Z
_TEXT	SEGMENT
_value$ = 8						; size = 4
?DecryptValueToPool@?$CEncrypt@W4TeamType@@@@QAEXPAW4TeamType@@@Z PROC ; CEncrypt<enum TeamType>::DecryptValueToPool, COMDAT
; _this$ = ecx

; 2959 : 	{

  00000	55		 push	 ebp
  00001	8b ec		 mov	 ebp, esp
  00003	56		 push	 esi

; 2960 : 		m_RC5.DecryptByte( m_MemPool, m_TempMem, sizeof(TeamType) );

  00004	8d 71 28	 lea	 esi, DWORD PTR [ecx+40]
  00007	6a 04		 push	 4
  00009	8d 41 1c	 lea	 eax, DWORD PTR [ecx+28]
  0000c	56		 push	 esi
  0000d	50		 push	 eax
  0000e	83 c1 0c	 add	 ecx, 12			; 0000000cH
  00011	e8 00 00 00 00	 call	 ?DecryptByte@ccddaabb@@QBEXPBDPADH@Z ; ccddaabb::DecryptByte

; 2961 : 		*value = *((TeamType*)m_TempMem);

  00016	8b 06		 mov	 eax, DWORD PTR [esi]
  00018	8b 4d 08	 mov	 ecx, DWORD PTR _value$[ebp]
  0001b	89 01		 mov	 DWORD PTR [ecx], eax
  0001d	5e		 pop	 esi

; 2962 : 	}

  0001e	5d		 pop	 ebp
  0001f	c2 04 00	 ret	 4
?DecryptValueToPool@?$CEncrypt@W4TeamType@@@@QAEXPAW4TeamType@@@Z ENDP ; CEncrypt<enum TeamType>::DecryptValueToPool
_TEXT	ENDS
PUBLIC	?DecryptValueToPool@?$CEncrypt@W4ModeType@@@@QAEXPAW4ModeType@@@Z ; CEncrypt<enum ModeType>::DecryptValueToPool
; Function compile flags: /Ogsp
;	COMDAT ?DecryptValueToPool@?$CEncrypt@W4ModeType@@@@QAEXPAW4ModeType@@@Z
_TEXT	SEGMENT
_value$ = 8						; size = 4
?DecryptValueToPool@?$CEncrypt@W4ModeType@@@@QAEXPAW4ModeType@@@Z PROC ; CEncrypt<enum ModeType>::DecryptValueToPool, COMDAT
; _this$ = ecx

; 3039 : 	{

  00000	55		 push	 ebp
  00001	8b ec		 mov	 ebp, esp
  00003	56		 push	 esi

; 3040 : 		m_RC5.DecryptByte( m_MemPool, m_TempMem, sizeof(ModeType) );

  00004	8d 71 28	 lea	 esi, DWORD PTR [ecx+40]
  00007	6a 04		 push	 4
  00009	8d 41 1c	 lea	 eax, DWORD PTR [ecx+28]
  0000c	56		 push	 esi
  0000d	50		 push	 eax
  0000e	83 c1 0c	 add	 ecx, 12			; 0000000cH
  00011	e8 00 00 00 00	 call	 ?DecryptByte@ccddaabb@@QBEXPBDPADH@Z ; ccddaabb::DecryptByte

; 3041 : 		*value = *((ModeType*)m_TempMem);

  00016	8b 06		 mov	 eax, DWORD PTR [esi]
  00018	8b 4d 08	 mov	 ecx, DWORD PTR _value$[ebp]
  0001b	89 01		 mov	 DWORD PTR [ecx], eax
  0001d	5e		 pop	 esi

; 3042 : 	}

  0001e	5d		 pop	 ebp
  0001f	c2 04 00	 ret	 4
?DecryptValueToPool@?$CEncrypt@W4ModeType@@@@QAEXPAW4ModeType@@@Z ENDP ; CEncrypt<enum ModeType>::DecryptValueToPool
_TEXT	ENDS
PUBLIC	??0?$allocator@UWeaponInfo@@@std@@QAE@ABV01@@Z	; std::allocator<WeaponInfo>::allocator<WeaponInfo>
; Function compile flags: /Ogsp
; File c:\program files (x86)\microsoft visual studio 10.0\vc\include\xmemory
;	COMDAT ??0?$allocator@UWeaponInfo@@@std@@QAE@ABV01@@Z
_TEXT	SEGMENT
___formal$ = 8						; size = 4
??0?$allocator@UWeaponInfo@@@std@@QAE@ABV01@@Z PROC	; std::allocator<WeaponInfo>::allocator<WeaponInfo>, COMDAT
; _this$ = ecx

; 165  : 	_ALLOCATOR(const _ALLOCATOR<_Ty>&) _THROW0()

  00000	8b c1		 mov	 eax, ecx

; 166  : 		{	// construct by copying (do nothing)
; 167  : 		}

  00002	c2 04 00	 ret	 4
??0?$allocator@UWeaponInfo@@@std@@QAE@ABV01@@Z ENDP	; std::allocator<WeaponInfo>::allocator<WeaponInfo>
_TEXT	ENDS
PUBLIC	?deallocate@?$allocator@UWeaponInfo@@@std@@QAEXPAUWeaponInfo@@I@Z ; std::allocator<WeaponInfo>::deallocate
; Function compile flags: /Ogsp
;	COMDAT ?deallocate@?$allocator@UWeaponInfo@@@std@@QAEXPAUWeaponInfo@@I@Z
_TEXT	SEGMENT
__Ptr$ = 8						; size = 4
___formal$ = 12						; size = 4
?deallocate@?$allocator@UWeaponInfo@@@std@@QAEXPAUWeaponInfo@@I@Z PROC ; std::allocator<WeaponInfo>::deallocate, COMDAT
; _this$ = ecx

; 181  : 		{	// deallocate object at _Ptr, ignore size

  00000	55		 push	 ebp
  00001	8b ec		 mov	 ebp, esp

; 182  : 		::operator delete(_Ptr);

  00003	ff 75 08	 push	 DWORD PTR __Ptr$[ebp]
  00006	e8 00 00 00 00	 call	 ??3@YAXPAX@Z		; operator delete
  0000b	59		 pop	 ecx

; 183  : 		}

  0000c	5d		 pop	 ebp
  0000d	c2 08 00	 ret	 8
?deallocate@?$allocator@UWeaponInfo@@@std@@QAEXPAUWeaponInfo@@I@Z ENDP ; std::allocator<WeaponInfo>::deallocate
_TEXT	ENDS
PUBLIC	??0?$allocator@UForceInfo@@@std@@QAE@ABV01@@Z	; std::allocator<ForceInfo>::allocator<ForceInfo>
; Function compile flags: /Ogsp
;	COMDAT ??0?$allocator@UForceInfo@@@std@@QAE@ABV01@@Z
_TEXT	SEGMENT
___formal$ = 8						; size = 4
??0?$allocator@UForceInfo@@@std@@QAE@ABV01@@Z PROC	; std::allocator<ForceInfo>::allocator<ForceInfo>, COMDAT
; _this$ = ecx

; 165  : 	_ALLOCATOR(const _ALLOCATOR<_Ty>&) _THROW0()

  00000	8b c1		 mov	 eax, ecx

; 166  : 		{	// construct by copying (do nothing)
; 167  : 		}

  00002	c2 04 00	 ret	 4
??0?$allocator@UForceInfo@@@std@@QAE@ABV01@@Z ENDP	; std::allocator<ForceInfo>::allocator<ForceInfo>
_TEXT	ENDS
PUBLIC	?deallocate@?$allocator@UForceInfo@@@std@@QAEXPAUForceInfo@@I@Z ; std::allocator<ForceInfo>::deallocate
; Function compile flags: /Ogsp
;	COMDAT ?deallocate@?$allocator@UForceInfo@@@std@@QAEXPAUForceInfo@@I@Z
_TEXT	SEGMENT
__Ptr$ = 8						; size = 4
___formal$ = 12						; size = 4
?deallocate@?$allocator@UForceInfo@@@std@@QAEXPAUForceInfo@@I@Z PROC ; std::allocator<ForceInfo>::deallocate, COMDAT
; _this$ = ecx

; 181  : 		{	// deallocate object at _Ptr, ignore size

  00000	55		 push	 ebp
  00001	8b ec		 mov	 ebp, esp

; 182  : 		::operator delete(_Ptr);

  00003	ff 75 08	 push	 DWORD PTR __Ptr$[ebp]
  00006	e8 00 00 00 00	 call	 ??3@YAXPAX@Z		; operator delete
  0000b	59		 pop	 ecx

; 183  : 		}

  0000c	5d		 pop	 ebp
  0000d	c2 08 00	 ret	 8
?deallocate@?$allocator@UForceInfo@@@std@@QAEXPAUForceInfo@@I@Z ENDP ; std::allocator<ForceInfo>::deallocate
_TEXT	ENDS
PUBLIC	??$_Ptr_cat@UWeaponInfo@@U1@@std@@YA?AU_Nonscalar_ptr_iterator_tag@0@PAUWeaponInfo@@0@Z ; std::_Ptr_cat<WeaponInfo,WeaponInfo>
; Function compile flags: /Ogsp
; File c:\program files (x86)\microsoft visual studio 10.0\vc\include\xutility
;	COMDAT ??$_Ptr_cat@UWeaponInfo@@U1@@std@@YA?AU_Nonscalar_ptr_iterator_tag@0@PAUWeaponInfo@@0@Z
_TEXT	SEGMENT
__Cat$ = -1						; size = 1
___formal$ = 8						; size = 4
___formal$ = 12						; size = 4
??$_Ptr_cat@UWeaponInfo@@U1@@std@@YA?AU_Nonscalar_ptr_iterator_tag@0@PAUWeaponInfo@@0@Z PROC ; std::_Ptr_cat<WeaponInfo,WeaponInfo>, COMDAT

; 516  : 	{	// return pointer category from pointers

  00000	55		 push	 ebp
  00001	8b ec		 mov	 ebp, esp
  00003	51		 push	 ecx

; 517  : 	typename _Ptr_cat_helper<_Elem1, _Elem2>::_Type _Cat;
; 518  : 	return (_Cat);

  00004	8a 45 ff	 mov	 al, BYTE PTR __Cat$[ebp]

; 519  : 	}

  00007	c9		 leave
  00008	c3		 ret	 0
??$_Ptr_cat@UWeaponInfo@@U1@@std@@YA?AU_Nonscalar_ptr_iterator_tag@0@PAUWeaponInfo@@0@Z ENDP ; std::_Ptr_cat<WeaponInfo,WeaponInfo>
_TEXT	ENDS
PUBLIC	??$_Ptr_cat@UForceInfo@@U1@@std@@YA?AU_Nonscalar_ptr_iterator_tag@0@PAUForceInfo@@0@Z ; std::_Ptr_cat<ForceInfo,ForceInfo>
; Function compile flags: /Ogsp
;	COMDAT ??$_Ptr_cat@UForceInfo@@U1@@std@@YA?AU_Nonscalar_ptr_iterator_tag@0@PAUForceInfo@@0@Z
_TEXT	SEGMENT
__Cat$ = -1						; size = 1
___formal$ = 8						; size = 4
___formal$ = 12						; size = 4
??$_Ptr_cat@UForceInfo@@U1@@std@@YA?AU_Nonscalar_ptr_iterator_tag@0@PAUForceInfo@@0@Z PROC ; std::_Ptr_cat<ForceInfo,ForceInfo>, COMDAT

; 516  : 	{	// return pointer category from pointers

  00000	55		 push	 ebp
  00001	8b ec		 mov	 ebp, esp
  00003	51		 push	 ecx

; 517  : 	typename _Ptr_cat_helper<_Elem1, _Elem2>::_Type _Cat;
; 518  : 	return (_Cat);

  00004	8a 45 ff	 mov	 al, BYTE PTR __Cat$[ebp]

; 519  : 	}

  00007	c9		 leave
  00008	c3		 ret	 0
??$_Ptr_cat@UForceInfo@@U1@@std@@YA?AU_Nonscalar_ptr_iterator_tag@0@PAUForceInfo@@0@Z ENDP ; std::_Ptr_cat<ForceInfo,ForceInfo>
_TEXT	ENDS
PUBLIC	?size@?$vector@UWeaponInfo@@V?$allocator@UWeaponInfo@@@std@@@std@@QBEIXZ ; std::vector<WeaponInfo,std::allocator<WeaponInfo> >::size
; Function compile flags: /Ogsp
; File c:\program files (x86)\microsoft visual studio 10.0\vc\include\vector
;	COMDAT ?size@?$vector@UWeaponInfo@@V?$allocator@UWeaponInfo@@@std@@@std@@QBEIXZ
_TEXT	SEGMENT
?size@?$vector@UWeaponInfo@@V?$allocator@UWeaponInfo@@@std@@@std@@QBEIXZ PROC ; std::vector<WeaponInfo,std::allocator<WeaponInfo> >::size, COMDAT
; _this$ = ecx

; 879  : 		return (this->_Mylast - this->_Myfirst);

  00000	8b 41 04	 mov	 eax, DWORD PTR [ecx+4]
  00003	2b 01		 sub	 eax, DWORD PTR [ecx]
  00005	6a 28		 push	 40			; 00000028H
  00007	99		 cdq
  00008	59		 pop	 ecx
  00009	f7 f9		 idiv	 ecx

; 880  : 		}

  0000b	c3		 ret	 0
?size@?$vector@UWeaponInfo@@V?$allocator@UWeaponInfo@@@std@@@std@@QBEIXZ ENDP ; std::vector<WeaponInfo,std::allocator<WeaponInfo> >::size
_TEXT	ENDS
PUBLIC	?size@?$vector@UForceInfo@@V?$allocator@UForceInfo@@@std@@@std@@QBEIXZ ; std::vector<ForceInfo,std::allocator<ForceInfo> >::size
; Function compile flags: /Ogsp
;	COMDAT ?size@?$vector@UForceInfo@@V?$allocator@UForceInfo@@@std@@@std@@QBEIXZ
_TEXT	SEGMENT
?size@?$vector@UForceInfo@@V?$allocator@UForceInfo@@@std@@@std@@QBEIXZ PROC ; std::vector<ForceInfo,std::allocator<ForceInfo> >::size, COMDAT
; _this$ = ecx

; 879  : 		return (this->_Mylast - this->_Myfirst);

  00000	8b 41 04	 mov	 eax, DWORD PTR [ecx+4]
  00003	2b 01		 sub	 eax, DWORD PTR [ecx]
  00005	6a 0c		 push	 12			; 0000000cH
  00007	99		 cdq
  00008	59		 pop	 ecx
  00009	f7 f9		 idiv	 ecx

; 880  : 		}

  0000b	c3		 ret	 0
?size@?$vector@UForceInfo@@V?$allocator@UForceInfo@@@std@@@std@@QBEIXZ ENDP ; std::vector<ForceInfo,std::allocator<ForceInfo> >::size
_TEXT	ENDS
PUBLIC	??_C@_0BD@OLBABOEK@vector?$DMT?$DO?5too?5long?$AA@ ; `string'
PUBLIC	?_Xlen@?$vector@UWeaponInfo@@V?$allocator@UWeaponInfo@@@std@@@std@@IBEXXZ ; std::vector<WeaponInfo,std::allocator<WeaponInfo> >::_Xlen
EXTRN	__imp_?_Xlength_error@std@@YAXPBD@Z:PROC
;	COMDAT ??_C@_0BD@OLBABOEK@vector?$DMT?$DO?5too?5long?$AA@
CONST	SEGMENT
??_C@_0BD@OLBABOEK@vector?$DMT?$DO?5too?5long?$AA@ DB 'vector<T> too long'
	DB	00H						; `string'
; Function compile flags: /Ogsp
CONST	ENDS
;	COMDAT ?_Xlen@?$vector@UWeaponInfo@@V?$allocator@UWeaponInfo@@@std@@@std@@IBEXXZ
_TEXT	SEGMENT
?_Xlen@?$vector@UWeaponInfo@@V?$allocator@UWeaponInfo@@@std@@@std@@IBEXXZ PROC ; std::vector<WeaponInfo,std::allocator<WeaponInfo> >::_Xlen, COMDAT
; _this$ = ecx

; 1427 : 		_Xlength_error("vector<T> too long");

  00000	68 00 00 00 00	 push	 OFFSET ??_C@_0BD@OLBABOEK@vector?$DMT?$DO?5too?5long?$AA@
  00005	ff 15 00 00 00
	00		 call	 DWORD PTR __imp_?_Xlength_error@std@@YAXPBD@Z
$LN4@Xlen:
$LN3@Xlen:
  0000b	cc		 int	 3
?_Xlen@?$vector@UWeaponInfo@@V?$allocator@UWeaponInfo@@@std@@@std@@IBEXXZ ENDP ; std::vector<WeaponInfo,std::allocator<WeaponInfo> >::_Xlen
_TEXT	ENDS
PUBLIC	?_Xlen@?$vector@UForceInfo@@V?$allocator@UForceInfo@@@std@@@std@@IBEXXZ ; std::vector<ForceInfo,std::allocator<ForceInfo> >::_Xlen
; Function compile flags: /Ogsp
;	COMDAT ?_Xlen@?$vector@UForceInfo@@V?$allocator@UForceInfo@@@std@@@std@@IBEXXZ
_TEXT	SEGMENT
?_Xlen@?$vector@UForceInfo@@V?$allocator@UForceInfo@@@std@@@std@@IBEXXZ PROC ; std::vector<ForceInfo,std::allocator<ForceInfo> >::_Xlen, COMDAT
; _this$ = ecx

; 1427 : 		_Xlength_error("vector<T> too long");

  00000	68 00 00 00 00	 push	 OFFSET ??_C@_0BD@OLBABOEK@vector?$DMT?$DO?5too?5long?$AA@
  00005	ff 15 00 00 00
	00		 call	 DWORD PTR __imp_?_Xlength_error@std@@YAXPBD@Z
$LN4@Xlen@2:
$LN3@Xlen@2:
  0000b	cc		 int	 3
?_Xlen@?$vector@UForceInfo@@V?$allocator@UForceInfo@@@std@@@std@@IBEXXZ ENDP ; std::vector<ForceInfo,std::allocator<ForceInfo> >::_Xlen
_TEXT	ENDS
PUBLIC	?max_size@?$allocator@UWeaponInfo@@@std@@QBEIXZ	; std::allocator<WeaponInfo>::max_size
; Function compile flags: /Ogsp
; File c:\program files (x86)\microsoft visual studio 10.0\vc\include\xmemory
;	COMDAT ?max_size@?$allocator@UWeaponInfo@@@std@@QBEIXZ
_TEXT	SEGMENT
?max_size@?$allocator@UWeaponInfo@@@std@@QBEIXZ PROC	; std::allocator<WeaponInfo>::max_size, COMDAT
; _this$ = ecx

; 218  : 		_SIZT _Count = (_SIZT)(-1) / sizeof (_Ty);
; 219  : 		return (0 < _Count ? _Count : 1);

  00000	b8 66 66 66 06	 mov	 eax, 107374182		; 06666666H

; 220  : 		}

  00005	c3		 ret	 0
?max_size@?$allocator@UWeaponInfo@@@std@@QBEIXZ ENDP	; std::allocator<WeaponInfo>::max_size
_TEXT	ENDS
PUBLIC	?max_size@?$allocator@UForceInfo@@@std@@QBEIXZ	; std::allocator<ForceInfo>::max_size
; Function compile flags: /Ogsp
;	COMDAT ?max_size@?$allocator@UForceInfo@@@std@@QBEIXZ
_TEXT	SEGMENT
?max_size@?$allocator@UForceInfo@@@std@@QBEIXZ PROC	; std::allocator<ForceInfo>::max_size, COMDAT
; _this$ = ecx

; 218  : 		_SIZT _Count = (_SIZT)(-1) / sizeof (_Ty);
; 219  : 		return (0 < _Count ? _Count : 1);

  00000	b8 55 55 55 15	 mov	 eax, 357913941		; 15555555H

; 220  : 		}

  00005	c3		 ret	 0
?max_size@?$allocator@UForceInfo@@@std@@QBEIXZ ENDP	; std::allocator<ForceInfo>::max_size
_TEXT	ENDS
PUBLIC	??0?$_Vector_const_iterator@V?$_Vector_val@UWeaponInfo@@V?$allocator@UWeaponInfo@@@std@@@std@@@std@@QAE@PAUWeaponInfo@@PBU_Container_base0@1@@Z ; std::_Vector_const_iterator<std::_Vector_val<WeaponInfo,std::allocator<WeaponInfo> > >::_Vector_const_iterator<std::_Vector_val<WeaponInfo,std::allocator<WeaponInfo> > >
; Function compile flags: /Ogsp
; File c:\program files (x86)\microsoft visual studio 10.0\vc\include\vector
;	COMDAT ??0?$_Vector_const_iterator@V?$_Vector_val@UWeaponInfo@@V?$allocator@UWeaponInfo@@@std@@@std@@@std@@QAE@PAUWeaponInfo@@PBU_Container_base0@1@@Z
_TEXT	SEGMENT
__Parg$ = 8						; size = 4
__Pvector$ = 12						; size = 4
??0?$_Vector_const_iterator@V?$_Vector_val@UWeaponInfo@@V?$allocator@UWeaponInfo@@@std@@@std@@@std@@QAE@PAUWeaponInfo@@PBU_Container_base0@1@@Z PROC ; std::_Vector_const_iterator<std::_Vector_val<WeaponInfo,std::allocator<WeaponInfo> > >::_Vector_const_iterator<std::_Vector_val<WeaponInfo,std::allocator<WeaponInfo> > >, COMDAT
; _this$ = ecx

; 45   : 		{	// construct with pointer _Parg

  00000	55		 push	 ebp
  00001	8b ec		 mov	 ebp, esp
  00003	8b c1		 mov	 eax, ecx
  00005	8b 4d 08	 mov	 ecx, DWORD PTR __Parg$[ebp]
  00008	89 08		 mov	 DWORD PTR [eax], ecx

; 46   : 		this->_Adopt(_Pvector);
; 47   : 		}

  0000a	5d		 pop	 ebp
  0000b	c2 08 00	 ret	 8
??0?$_Vector_const_iterator@V?$_Vector_val@UWeaponInfo@@V?$allocator@UWeaponInfo@@@std@@@std@@@std@@QAE@PAUWeaponInfo@@PBU_Container_base0@1@@Z ENDP ; std::_Vector_const_iterator<std::_Vector_val<WeaponInfo,std::allocator<WeaponInfo> > >::_Vector_const_iterator<std::_Vector_val<WeaponInfo,std::allocator<WeaponInfo> > >
_TEXT	ENDS
PUBLIC	??0?$_Vector_const_iterator@V?$_Vector_val@UForceInfo@@V?$allocator@UForceInfo@@@std@@@std@@@std@@QAE@PAUForceInfo@@PBU_Container_base0@1@@Z ; std::_Vector_const_iterator<std::_Vector_val<ForceInfo,std::allocator<ForceInfo> > >::_Vector_const_iterator<std::_Vector_val<ForceInfo,std::allocator<ForceInfo> > >
; Function compile flags: /Ogsp
;	COMDAT ??0?$_Vector_const_iterator@V?$_Vector_val@UForceInfo@@V?$allocator@UForceInfo@@@std@@@std@@@std@@QAE@PAUForceInfo@@PBU_Container_base0@1@@Z
_TEXT	SEGMENT
__Parg$ = 8						; size = 4
__Pvector$ = 12						; size = 4
??0?$_Vector_const_iterator@V?$_Vector_val@UForceInfo@@V?$allocator@UForceInfo@@@std@@@std@@@std@@QAE@PAUForceInfo@@PBU_Container_base0@1@@Z PROC ; std::_Vector_const_iterator<std::_Vector_val<ForceInfo,std::allocator<ForceInfo> > >::_Vector_const_iterator<std::_Vector_val<ForceInfo,std::allocator<ForceInfo> > >, COMDAT
; _this$ = ecx

; 45   : 		{	// construct with pointer _Parg

  00000	55		 push	 ebp
  00001	8b ec		 mov	 ebp, esp
  00003	8b c1		 mov	 eax, ecx
  00005	8b 4d 08	 mov	 ecx, DWORD PTR __Parg$[ebp]
  00008	89 08		 mov	 DWORD PTR [eax], ecx

; 46   : 		this->_Adopt(_Pvector);
; 47   : 		}

  0000a	5d		 pop	 ebp
  0000b	c2 08 00	 ret	 8
??0?$_Vector_const_iterator@V?$_Vector_val@UForceInfo@@V?$allocator@UForceInfo@@@std@@@std@@@std@@QAE@PAUForceInfo@@PBU_Container_base0@1@@Z ENDP ; std::_Vector_const_iterator<std::_Vector_val<ForceInfo,std::allocator<ForceInfo> > >::_Vector_const_iterator<std::_Vector_val<ForceInfo,std::allocator<ForceInfo> > >
_TEXT	ENDS
PUBLIC	?_Compat@?$_Vector_const_iterator@V?$_Vector_val@UWeaponInfo@@V?$allocator@UWeaponInfo@@@std@@@std@@@std@@QBEXABV12@@Z ; std::_Vector_const_iterator<std::_Vector_val<WeaponInfo,std::allocator<WeaponInfo> > >::_Compat
; Function compile flags: /Ogsp
;	COMDAT ?_Compat@?$_Vector_const_iterator@V?$_Vector_val@UWeaponInfo@@V?$allocator@UWeaponInfo@@@std@@@std@@@std@@QBEXABV12@@Z
_TEXT	SEGMENT
___formal$ = 8						; size = 4
?_Compat@?$_Vector_const_iterator@V?$_Vector_val@UWeaponInfo@@V?$allocator@UWeaponInfo@@@std@@@std@@@std@@QBEXABV12@@Z PROC ; std::_Vector_const_iterator<std::_Vector_val<WeaponInfo,std::allocator<WeaponInfo> > >::_Compat, COMDAT
; _this$ = ecx

; 253  : 		}

  00000	c2 04 00	 ret	 4
?_Compat@?$_Vector_const_iterator@V?$_Vector_val@UWeaponInfo@@V?$allocator@UWeaponInfo@@@std@@@std@@@std@@QBEXABV12@@Z ENDP ; std::_Vector_const_iterator<std::_Vector_val<WeaponInfo,std::allocator<WeaponInfo> > >::_Compat
_TEXT	ENDS
PUBLIC	?_Compat@?$_Vector_const_iterator@V?$_Vector_val@UForceInfo@@V?$allocator@UForceInfo@@@std@@@std@@@std@@QBEXABV12@@Z ; std::_Vector_const_iterator<std::_Vector_val<ForceInfo,std::allocator<ForceInfo> > >::_Compat
; Function compile flags: /Ogsp
;	COMDAT ?_Compat@?$_Vector_const_iterator@V?$_Vector_val@UForceInfo@@V?$allocator@UForceInfo@@@std@@@std@@@std@@QBEXABV12@@Z
_TEXT	SEGMENT
___formal$ = 8						; size = 4
?_Compat@?$_Vector_const_iterator@V?$_Vector_val@UForceInfo@@V?$allocator@UForceInfo@@@std@@@std@@@std@@QBEXABV12@@Z PROC ; std::_Vector_const_iterator<std::_Vector_val<ForceInfo,std::allocator<ForceInfo> > >::_Compat, COMDAT
; _this$ = ecx

; 253  : 		}

  00000	c2 04 00	 ret	 4
?_Compat@?$_Vector_const_iterator@V?$_Vector_val@UForceInfo@@V?$allocator@UForceInfo@@@std@@@std@@@std@@QBEXABV12@@Z ENDP ; std::_Vector_const_iterator<std::_Vector_val<ForceInfo,std::allocator<ForceInfo> > >::_Compat
_TEXT	ENDS
PUBLIC	__TI2?AVbad_alloc@std@@
PUBLIC	??$_Allocate@UWeaponInfo@@@std@@YAPAUWeaponInfo@@IPAU1@@Z ; std::_Allocate<WeaponInfo>
PUBLIC	__CTA2?AVbad_alloc@std@@
PUBLIC	__CT??_R0?AVbad_alloc@std@@@8??0bad_alloc@std@@QAE@ABV01@@Z12
PUBLIC	??0bad_alloc@std@@QAE@ABV01@@Z			; std::bad_alloc::bad_alloc
PUBLIC	__CT??_R0?AVexception@std@@@8??0exception@std@@QAE@ABV01@@Z12
EXTRN	??2@YAPAXI@Z:PROC				; operator new
EXTRN	__CxxThrowException@8:PROC
EXTRN	??0exception@std@@QAE@ABV01@@Z:PROC		; std::exception::exception
;	COMDAT __CT??_R0?AVexception@std@@@8??0exception@std@@QAE@ABV01@@Z12
; File c:\program files (x86)\microsoft visual studio 10.0\vc\include\exception
xdata$x	SEGMENT
__CT??_R0?AVexception@std@@@8??0exception@std@@QAE@ABV01@@Z12 DD 00H
	DD	FLAT:??_R0?AVexception@std@@@8
	DD	00H
	DD	0ffffffffH
	ORG $+4
	DD	0cH
	DD	FLAT:??0exception@std@@QAE@ABV01@@Z
xdata$x	ENDS
;	COMDAT __CT??_R0?AVbad_alloc@std@@@8??0bad_alloc@std@@QAE@ABV01@@Z12
xdata$x	SEGMENT
__CT??_R0?AVbad_alloc@std@@@8??0bad_alloc@std@@QAE@ABV01@@Z12 DD 00H
	DD	FLAT:??_R0?AVbad_alloc@std@@@8
	DD	00H
	DD	0ffffffffH
	ORG $+4
	DD	0cH
	DD	FLAT:??0bad_alloc@std@@QAE@ABV01@@Z
xdata$x	ENDS
;	COMDAT __CTA2?AVbad_alloc@std@@
xdata$x	SEGMENT
__CTA2?AVbad_alloc@std@@ DD 02H
	DD	FLAT:__CT??_R0?AVbad_alloc@std@@@8??0bad_alloc@std@@QAE@ABV01@@Z12
	DD	FLAT:__CT??_R0?AVexception@std@@@8??0exception@std@@QAE@ABV01@@Z12
xdata$x	ENDS
;	COMDAT __TI2?AVbad_alloc@std@@
xdata$x	SEGMENT
__TI2?AVbad_alloc@std@@ DD 00H
	DD	FLAT:??1bad_alloc@std@@UAE@XZ
	DD	00H
	DD	FLAT:__CTA2?AVbad_alloc@std@@
; Function compile flags: /Ogsp
; File c:\program files (x86)\microsoft visual studio 10.0\vc\include\xmemory
xdata$x	ENDS
;	COMDAT ??$_Allocate@UWeaponInfo@@@std@@YAPAUWeaponInfo@@IPAU1@@Z
_TEXT	SEGMENT
$T535310 = -12						; size = 12
$T535315 = 8						; size = 4
__Count$ = 8						; size = 4
___formal$ = 12						; size = 4
??$_Allocate@UWeaponInfo@@@std@@YAPAUWeaponInfo@@IPAU1@@Z PROC ; std::_Allocate<WeaponInfo>, COMDAT

; 30   : 	{	// allocate storage for _Count elements of type _Ty

  00000	55		 push	 ebp
  00001	8b ec		 mov	 ebp, esp

; 31   : 	void *_Ptr = 0;
; 32   : 
; 33   : 	if (_Count <= 0)

  00003	8b 4d 08	 mov	 ecx, DWORD PTR __Count$[ebp]
  00006	83 ec 0c	 sub	 esp, 12			; 0000000cH
  00009	33 c0		 xor	 eax, eax
  0000b	85 c9		 test	 ecx, ecx

; 34   : 		_Count = 0;
; 35   : 	else if (((_SIZT)(-1) / sizeof (_Ty) < _Count)

  0000d	74 3c		 je	 SHORT $LN5@Allocate

; 36   : 		|| (_Ptr = ::operator new(_Count * sizeof (_Ty))) == 0)

  0000f	81 f9 66 66 66
	06		 cmp	 ecx, 107374182		; 06666666H
  00015	77 0e		 ja	 SHORT $LN1@Allocate
  00017	6b c9 28	 imul	 ecx, 40			; 00000028H
  0001a	51		 push	 ecx
  0001b	e8 00 00 00 00	 call	 ??2@YAPAXI@Z		; operator new
  00020	59		 pop	 ecx
  00021	85 c0		 test	 eax, eax

; 38   : 
; 39   : 	return ((_Ty _FARQ *)_Ptr);

  00023	75 26		 jne	 SHORT $LN5@Allocate
$LN1@Allocate:

; 37   : 		_THROW_NCEE(bad_alloc, 0);

  00025	83 65 08 00	 and	 DWORD PTR $T535315[ebp], 0
  00029	8d 45 08	 lea	 eax, DWORD PTR $T535315[ebp]
  0002c	50		 push	 eax
  0002d	8d 4d f4	 lea	 ecx, DWORD PTR $T535310[ebp]
  00030	ff 15 00 00 00
	00		 call	 DWORD PTR __imp_??0exception@std@@QAE@ABQBD@Z
  00036	68 00 00 00 00	 push	 OFFSET __TI2?AVbad_alloc@std@@
  0003b	8d 45 f4	 lea	 eax, DWORD PTR $T535310[ebp]
  0003e	50		 push	 eax
  0003f	c7 45 f4 00 00
	00 00		 mov	 DWORD PTR $T535310[ebp], OFFSET ??_7bad_alloc@std@@6B@
  00046	e8 00 00 00 00	 call	 __CxxThrowException@8
$LN10@Allocate:
$LN5@Allocate:

; 40   : 	}

  0004b	c9		 leave
  0004c	c3		 ret	 0
$LN9@Allocate:
??$_Allocate@UWeaponInfo@@@std@@YAPAUWeaponInfo@@IPAU1@@Z ENDP ; std::_Allocate<WeaponInfo>
_TEXT	ENDS
EXTRN	__imp_??0exception@std@@QAE@ABV01@@Z:PROC
; Function compile flags: /Ogsp
;	COMDAT ??0bad_alloc@std@@QAE@ABV01@@Z
_TEXT	SEGMENT
___that$ = 8						; size = 4
??0bad_alloc@std@@QAE@ABV01@@Z PROC			; std::bad_alloc::bad_alloc, COMDAT
; _this$ = ecx
  00000	55		 push	 ebp
  00001	8b ec		 mov	 ebp, esp
  00003	56		 push	 esi
  00004	ff 75 08	 push	 DWORD PTR ___that$[ebp]
  00007	8b f1		 mov	 esi, ecx
  00009	ff 15 00 00 00
	00		 call	 DWORD PTR __imp_??0exception@std@@QAE@ABV01@@Z
  0000f	c7 06 00 00 00
	00		 mov	 DWORD PTR [esi], OFFSET ??_7bad_alloc@std@@6B@
  00015	8b c6		 mov	 eax, esi
  00017	5e		 pop	 esi
  00018	5d		 pop	 ebp
  00019	c2 04 00	 ret	 4
??0bad_alloc@std@@QAE@ABV01@@Z ENDP			; std::bad_alloc::bad_alloc
_TEXT	ENDS
PUBLIC	??$_Allocate@UForceInfo@@@std@@YAPAUForceInfo@@IPAU1@@Z ; std::_Allocate<ForceInfo>
; Function compile flags: /Ogsp
;	COMDAT ??$_Allocate@UForceInfo@@@std@@YAPAUForceInfo@@IPAU1@@Z
_TEXT	SEGMENT
$T535323 = -12						; size = 12
$T535327 = 8						; size = 4
__Count$ = 8						; size = 4
___formal$ = 12						; size = 4
??$_Allocate@UForceInfo@@@std@@YAPAUForceInfo@@IPAU1@@Z PROC ; std::_Allocate<ForceInfo>, COMDAT

; 30   : 	{	// allocate storage for _Count elements of type _Ty

  00000	55		 push	 ebp
  00001	8b ec		 mov	 ebp, esp

; 31   : 	void *_Ptr = 0;
; 32   : 
; 33   : 	if (_Count <= 0)

  00003	8b 4d 08	 mov	 ecx, DWORD PTR __Count$[ebp]
  00006	83 ec 0c	 sub	 esp, 12			; 0000000cH
  00009	33 c0		 xor	 eax, eax
  0000b	85 c9		 test	 ecx, ecx

; 34   : 		_Count = 0;
; 35   : 	else if (((_SIZT)(-1) / sizeof (_Ty) < _Count)

  0000d	74 3c		 je	 SHORT $LN5@Allocate@2

; 36   : 		|| (_Ptr = ::operator new(_Count * sizeof (_Ty))) == 0)

  0000f	81 f9 55 55 55
	15		 cmp	 ecx, 357913941		; 15555555H
  00015	77 0e		 ja	 SHORT $LN1@Allocate@2
  00017	6b c9 0c	 imul	 ecx, 12			; 0000000cH
  0001a	51		 push	 ecx
  0001b	e8 00 00 00 00	 call	 ??2@YAPAXI@Z		; operator new
  00020	59		 pop	 ecx
  00021	85 c0		 test	 eax, eax

; 38   : 
; 39   : 	return ((_Ty _FARQ *)_Ptr);

  00023	75 26		 jne	 SHORT $LN5@Allocate@2
$LN1@Allocate@2:

; 37   : 		_THROW_NCEE(bad_alloc, 0);

  00025	83 65 08 00	 and	 DWORD PTR $T535327[ebp], 0
  00029	8d 45 08	 lea	 eax, DWORD PTR $T535327[ebp]
  0002c	50		 push	 eax
  0002d	8d 4d f4	 lea	 ecx, DWORD PTR $T535323[ebp]
  00030	ff 15 00 00 00
	00		 call	 DWORD PTR __imp_??0exception@std@@QAE@ABQBD@Z
  00036	68 00 00 00 00	 push	 OFFSET __TI2?AVbad_alloc@std@@
  0003b	8d 45 f4	 lea	 eax, DWORD PTR $T535323[ebp]
  0003e	50		 push	 eax
  0003f	c7 45 f4 00 00
	00 00		 mov	 DWORD PTR $T535323[ebp], OFFSET ??_7bad_alloc@std@@6B@
  00046	e8 00 00 00 00	 call	 __CxxThrowException@8
$LN10@Allocate@2:
$LN5@Allocate@2:

; 40   : 	}

  0004b	c9		 leave
  0004c	c3		 ret	 0
$LN9@Allocate@2:
??$_Allocate@UForceInfo@@@std@@YAPAUForceInfo@@IPAU1@@Z ENDP ; std::_Allocate<ForceInfo>
_TEXT	ENDS
PUBLIC	??$_Destroy@UForceInfo@@@std@@YAXPAUForceInfo@@@Z ; std::_Destroy<ForceInfo>
; Function compile flags: /Ogsp
;	COMDAT ??$_Destroy@UForceInfo@@@std@@YAXPAUForceInfo@@@Z
_TEXT	SEGMENT
__Ptr$ = 8						; size = 4
??$_Destroy@UForceInfo@@@std@@YAXPAUForceInfo@@@Z PROC	; std::_Destroy<ForceInfo>, COMDAT

; 63   : 	_Ptr->~_Ty();
; 64   : 	}

  00000	c3		 ret	 0
??$_Destroy@UForceInfo@@@std@@YAXPAUForceInfo@@@Z ENDP	; std::_Destroy<ForceInfo>
_TEXT	ENDS
PUBLIC	??_GWeaponInfo@@QAEPAXI@Z			; WeaponInfo::`scalar deleting destructor'
; Function compile flags: /Ogsp
;	COMDAT ??_GWeaponInfo@@QAEPAXI@Z
_TEXT	SEGMENT
___flags$ = 8						; size = 4
??_GWeaponInfo@@QAEPAXI@Z PROC				; WeaponInfo::`scalar deleting destructor', COMDAT
; _this$ = ecx
  00000	55		 push	 ebp
  00001	8b ec		 mov	 ebp, esp
  00003	56		 push	 esi
  00004	8b f1		 mov	 esi, ecx
  00006	8d 4e 08	 lea	 ecx, DWORD PTR [esi+8]
  00009	ff 15 00 00 00
	00		 call	 DWORD PTR __imp_??1ioHashString@@QAE@XZ
  0000f	f6 45 08 01	 test	 BYTE PTR ___flags$[ebp], 1
  00013	74 07		 je	 SHORT $LN1@scalar@3
  00015	56		 push	 esi
  00016	e8 00 00 00 00	 call	 ??3@YAXPAX@Z		; operator delete
  0001b	59		 pop	 ecx
$LN1@scalar@3:
  0001c	8b c6		 mov	 eax, esi
  0001e	5e		 pop	 esi
  0001f	5d		 pop	 ebp
  00020	c2 04 00	 ret	 4
??_GWeaponInfo@@QAEPAXI@Z ENDP				; WeaponInfo::`scalar deleting destructor'
_TEXT	ENDS
PUBLIC	??0WeaponInfo@@QAE@ABU0@@Z			; WeaponInfo::WeaponInfo
EXTRN	__imp_??0ioHashString@@QAE@ABV0@@Z:PROC
; Function compile flags: /Ogsp
;	COMDAT ??0WeaponInfo@@QAE@ABU0@@Z
_TEXT	SEGMENT
___that$ = 8						; size = 4
??0WeaponInfo@@QAE@ABU0@@Z PROC				; WeaponInfo::WeaponInfo, COMDAT
; _this$ = ecx
  00000	55		 push	 ebp
  00001	8b ec		 mov	 ebp, esp
  00003	56		 push	 esi
  00004	57		 push	 edi
  00005	8b 7d 08	 mov	 edi, DWORD PTR ___that$[ebp]
  00008	8b 07		 mov	 eax, DWORD PTR [edi]
  0000a	8b f1		 mov	 esi, ecx
  0000c	89 06		 mov	 DWORD PTR [esi], eax
  0000e	8b 47 04	 mov	 eax, DWORD PTR [edi+4]
  00011	89 46 04	 mov	 DWORD PTR [esi+4], eax
  00014	8d 47 08	 lea	 eax, DWORD PTR [edi+8]
  00017	50		 push	 eax
  00018	8d 4e 08	 lea	 ecx, DWORD PTR [esi+8]
  0001b	ff 15 00 00 00
	00		 call	 DWORD PTR __imp_??0ioHashString@@QAE@ABV0@@Z
  00021	8b 47 18	 mov	 eax, DWORD PTR [edi+24]
  00024	89 46 18	 mov	 DWORD PTR [esi+24], eax
  00027	8b 47 1c	 mov	 eax, DWORD PTR [edi+28]
  0002a	89 46 1c	 mov	 DWORD PTR [esi+28], eax
  0002d	8a 47 20	 mov	 al, BYTE PTR [edi+32]
  00030	88 46 20	 mov	 BYTE PTR [esi+32], al
  00033	8b 47 24	 mov	 eax, DWORD PTR [edi+36]
  00036	89 46 24	 mov	 DWORD PTR [esi+36], eax
  00039	5f		 pop	 edi
  0003a	8b c6		 mov	 eax, esi
  0003c	5e		 pop	 esi
  0003d	5d		 pop	 ebp
  0003e	c2 04 00	 ret	 4
??0WeaponInfo@@QAE@ABU0@@Z ENDP				; WeaponInfo::WeaponInfo
_TEXT	ENDS
PUBLIC	__real@3f800000
PUBLIC	?SetLoopState@ioRangeTargetShotSkill@@IAEXPAVioBaseChar@@PAVioPlayStage@@@Z ; ioRangeTargetShotSkill::SetLoopState
EXTRN	__imp_?c_str@ioHashString@@QBEPBDXZ:PROC
EXTRN	?SetSkillMoveEnable@ioBaseChar@@QAEX_N0@Z:PROC	; ioBaseChar::SetSkillMoveEnable
EXTRN	__imp_?SetLoopAni@ioEntityGroup@@QAE_NHMMMM@Z:PROC
EXTRN	__imp_?ClearAllLoopAni@ioEntityGroup@@QAEXM_N@Z:PROC
EXTRN	__imp_?ClearAllActionAni@ioEntityGroup@@QAEXM_N@Z:PROC
EXTRN	__imp_?GetAnimationIdx@ioEntityGroup@@QAEHABVioHashString@@@Z:PROC
;	COMDAT __real@3f800000
; File d:\lost saga for developer\youtube\tutorial\source\src\lsclient\stdafx.h
CONST	SEGMENT
__real@3f800000 DD 03f800000r			; 1
; Function compile flags: /Ogsp
; File d:\lost saga for developer\youtube\tutorial\source\src\lsclient\iorangetargetshotskill.cpp
CONST	ENDS
;	COMDAT ?SetLoopState@ioRangeTargetShotSkill@@IAEXPAVioBaseChar@@PAVioPlayStage@@@Z
_TEXT	SEGMENT
tv176 = -8						; size = 4
tv171 = -8						; size = 4
tv166 = -8						; size = 4
_iAniID$ = -4						; size = 4
_pChar$ = 8						; size = 4
_pStage$ = 12						; size = 4
?SetLoopState@ioRangeTargetShotSkill@@IAEXPAVioBaseChar@@PAVioPlayStage@@@Z PROC ; ioRangeTargetShotSkill::SetLoopState, COMDAT
; _this$ = ecx

; 272  : {

  00000	55		 push	 ebp
  00001	8b ec		 mov	 ebp, esp
  00003	51		 push	 ecx
  00004	51		 push	 ecx
  00005	53		 push	 ebx

; 273  : 	if( !pChar )

  00006	8b 5d 08	 mov	 ebx, DWORD PTR _pChar$[ebp]
  00009	56		 push	 esi
  0000a	8b f1		 mov	 esi, ecx
  0000c	85 db		 test	 ebx, ebx
  0000e	0f 84 e2 00 00
	00		 je	 $LN3@SetLoopSta

; 274  : 		return;
; 275  : 
; 276  : 	DWORD dwCurTime = FRAMEGETTIME();

  00014	57		 push	 edi
  00015	ff 15 00 00 00
	00		 call	 DWORD PTR __imp_?GetSingleton@ioFrameTimer@@SAAAV1@XZ
  0001b	8b c8		 mov	 ecx, eax
  0001d	ff 15 00 00 00
	00		 call	 DWORD PTR __imp_?GetLoopSec@ioFrameTimer@@QBEKXZ

; 277  : 	m_SkillState = SS_LOOP;

  00023	33 ff		 xor	 edi, edi
  00025	47		 inc	 edi
  00026	89 be 58 0f 00
	00		 mov	 DWORD PTR [esi+3928], edi

; 278  : 
; 279  : 	ioEntityGroup *pGrp = pChar->GetGroup();

  0002c	8b 5b 04	 mov	 ebx, DWORD PTR [ebx+4]

; 280  : 
; 281  : 	int iAniID = 0;
; 282  : 	iAniID = pGrp->GetAnimationIdx( m_LoopDelayAnimation );

  0002f	8d 86 9c 0f 00
	00		 lea	 eax, DWORD PTR [esi+3996]
  00035	50		 push	 eax
  00036	8b cb		 mov	 ecx, ebx
  00038	ff 15 00 00 00
	00		 call	 DWORD PTR __imp_?GetAnimationIdx@ioEntityGroup@@QAEHABVioHashString@@@Z
  0003e	89 45 fc	 mov	 DWORD PTR _iAniID$[ebp], eax

; 283  : 	if( iAniID == -1 )

  00041	83 f8 ff	 cmp	 eax, -1
  00044	0f 84 ab 00 00
	00		 je	 $LN13@SetLoopSta

; 284  : 		return;
; 285  : 
; 286  : 	pGrp->ClearAllActionAni( FLOAT100, true );

  0004a	b8 64 00 00 00	 mov	 eax, 100		; 00000064H
  0004f	89 45 f8	 mov	 DWORD PTR tv176[ebp], eax
  00052	db 45 f8	 fild	 DWORD PTR tv176[ebp]
  00055	57		 push	 edi
  00056	85 c0		 test	 eax, eax
  00058	79 06		 jns	 SHORT $LN14@SetLoopSta
  0005a	d8 05 00 00 00
	00		 fadd	 DWORD PTR __real@4f800000
$LN14@SetLoopSta:
  00060	51		 push	 ecx
  00061	8b cb		 mov	 ecx, ebx
  00063	d9 1c 24	 fstp	 DWORD PTR [esp]
  00066	ff 15 00 00 00
	00		 call	 DWORD PTR __imp_?ClearAllActionAni@ioEntityGroup@@QAEXM_N@Z

; 287  : 	pGrp->ClearAllLoopAni( FLOAT100, true );

  0006c	b8 64 00 00 00	 mov	 eax, 100		; 00000064H
  00071	89 45 f8	 mov	 DWORD PTR tv171[ebp], eax
  00074	db 45 f8	 fild	 DWORD PTR tv171[ebp]
  00077	57		 push	 edi
  00078	85 c0		 test	 eax, eax
  0007a	79 06		 jns	 SHORT $LN15@SetLoopSta
  0007c	d8 05 00 00 00
	00		 fadd	 DWORD PTR __real@4f800000
$LN15@SetLoopSta:
  00082	51		 push	 ecx
  00083	8b cb		 mov	 ecx, ebx
  00085	d9 1c 24	 fstp	 DWORD PTR [esp]
  00088	ff 15 00 00 00
	00		 call	 DWORD PTR __imp_?ClearAllLoopAni@ioEntityGroup@@QAEXM_N@Z

; 288  : 
; 289  : 	pGrp->SetLoopAni( iAniID, FLOAT100 );

  0008e	b8 64 00 00 00	 mov	 eax, 100		; 00000064H
  00093	0f 57 c0	 xorps	 xmm0, xmm0
  00096	83 ec 10	 sub	 esp, 16			; 00000010H
  00099	f3 0f 11 44 24
	0c		 movss	 DWORD PTR [esp+12], xmm0
  0009f	f3 0f 10 05 00
	00 00 00	 movss	 xmm0, DWORD PTR __real@3f800000
  000a7	89 45 f8	 mov	 DWORD PTR tv166[ebp], eax
  000aa	db 45 f8	 fild	 DWORD PTR tv166[ebp]
  000ad	f3 0f 11 44 24
	08		 movss	 DWORD PTR [esp+8], xmm0
  000b3	f3 0f 11 44 24
	04		 movss	 DWORD PTR [esp+4], xmm0
  000b9	85 c0		 test	 eax, eax
  000bb	79 06		 jns	 SHORT $LN16@SetLoopSta
  000bd	d8 05 00 00 00
	00		 fadd	 DWORD PTR __real@4f800000
$LN16@SetLoopSta:
  000c3	d9 1c 24	 fstp	 DWORD PTR [esp]
  000c6	ff 75 fc	 push	 DWORD PTR _iAniID$[ebp]
  000c9	8b cb		 mov	 ecx, ebx
  000cb	ff 15 00 00 00
	00		 call	 DWORD PTR __imp_?SetLoopAni@ioEntityGroup@@QAE_NHMMMM@Z

; 290  : 	m_dwMotionEndTime = 0;
; 291  : 
; 292  : 	pChar->SetSkillMoveEnable( true, true );

  000d1	8b 4d 08	 mov	 ecx, DWORD PTR _pChar$[ebp]
  000d4	83 a6 d8 02 00
	00 00		 and	 DWORD PTR [esi+728], 0
  000db	57		 push	 edi
  000dc	57		 push	 edi
  000dd	e8 00 00 00 00	 call	 ?SetSkillMoveEnable@ioBaseChar@@QAEX_N0@Z ; ioBaseChar::SetSkillMoveEnable

; 293  : 
; 294  : 	m_bSetMoveAni = false;
; 295  : 	m_szTargetName.c_str();

  000e2	8d 8e 5c 0f 00
	00		 lea	 ecx, DWORD PTR [esi+3932]
  000e8	c6 86 fc 0f 00
	00 00		 mov	 BYTE PTR [esi+4092], 0
  000ef	ff 15 00 00 00
	00		 call	 DWORD PTR __imp_?c_str@ioHashString@@QBEPBDXZ
$LN13@SetLoopSta:
  000f5	5f		 pop	 edi
$LN3@SetLoopSta:
  000f6	5e		 pop	 esi
  000f7	5b		 pop	 ebx

; 296  : }

  000f8	c9		 leave
  000f9	c2 08 00	 ret	 8
?SetLoopState@ioRangeTargetShotSkill@@IAEXPAVioBaseChar@@PAVioPlayStage@@@Z ENDP ; ioRangeTargetShotSkill::SetLoopState
_TEXT	ENDS
PUBLIC	?CheckNormalMoveAni@ioRangeTargetShotSkill@@IAEXPAVioBaseChar@@@Z ; ioRangeTargetShotSkill::CheckNormalMoveAni
EXTRN	?IsSettedDirection@ioBaseChar@@QBE_NXZ:PROC	; ioBaseChar::IsSettedDirection
; Function compile flags: /Ogsp
;	COMDAT ?CheckNormalMoveAni@ioRangeTargetShotSkill@@IAEXPAVioBaseChar@@@Z
_TEXT	SEGMENT
tv208 = 8						; size = 4
tv203 = 8						; size = 4
tv198 = 8						; size = 4
tv175 = 8						; size = 4
tv165 = 8						; size = 4
tv141 = 8						; size = 4
_pChar$ = 8						; size = 4
?CheckNormalMoveAni@ioRangeTargetShotSkill@@IAEXPAVioBaseChar@@@Z PROC ; ioRangeTargetShotSkill::CheckNormalMoveAni, COMDAT
; _this$ = ecx

; 299  : {

  00000	55		 push	 ebp
  00001	8b ec		 mov	 ebp, esp
  00003	53		 push	 ebx

; 300  : 	if( !pChar ) return;

  00004	8b 5d 08	 mov	 ebx, DWORD PTR _pChar$[ebp]
  00007	56		 push	 esi
  00008	8b f1		 mov	 esi, ecx
  0000a	85 db		 test	 ebx, ebx
  0000c	0f 84 91 01 00
	00		 je	 $LN2@CheckNorma

; 301  : 
; 302  : 	DWORD dwCurTime = FRAMEGETTIME();

  00012	57		 push	 edi
  00013	ff 15 00 00 00
	00		 call	 DWORD PTR __imp_?GetSingleton@ioFrameTimer@@SAAAV1@XZ
  00019	8b c8		 mov	 ecx, eax
  0001b	ff 15 00 00 00
	00		 call	 DWORD PTR __imp_?GetLoopSec@ioFrameTimer@@QBEKXZ

; 303  : 	ioEntityGroup *pGrp = pChar->GetGroup();

  00021	8b 7b 04	 mov	 edi, DWORD PTR [ebx+4]

; 304  : 	int iAniID = 0;
; 305  : 
; 306  : 	if( pChar->IsSettedDirection() )

  00024	8b cb		 mov	 ecx, ebx
  00026	e8 00 00 00 00	 call	 ?IsSettedDirection@ioBaseChar@@QBE_NXZ ; ioBaseChar::IsSettedDirection
  0002b	84 c0		 test	 al, al
  0002d	0f 84 ba 00 00
	00		 je	 $LN6@CheckNorma

; 307  : 	{	
; 308  : 		if( !m_bSetMoveAni )

  00033	80 be fc 0f 00
	00 00		 cmp	 BYTE PTR [esi+4092], 0
  0003a	0f 85 62 01 00
	00		 jne	 $LN24@CheckNorma

; 309  : 		{	
; 310  : 			iAniID = pGrp->GetAnimationIdx( m_LoopMoveAnimation );

  00040	8d 86 ac 0f 00
	00		 lea	 eax, DWORD PTR [esi+4012]
  00046	50		 push	 eax
  00047	8b cf		 mov	 ecx, edi
  00049	ff 15 00 00 00
	00		 call	 DWORD PTR __imp_?GetAnimationIdx@ioEntityGroup@@QAEHABVioHashString@@@Z
  0004f	8b d8		 mov	 ebx, eax

; 311  : 			if( iAniID == -1 )

  00051	83 fb ff	 cmp	 ebx, -1
  00054	0f 84 48 01 00
	00		 je	 $LN24@CheckNorma

; 312  : 				return;
; 313  : 
; 314  : 			pGrp->ClearAllActionAni( FLOAT100, true );

  0005a	b8 64 00 00 00	 mov	 eax, 100		; 00000064H
  0005f	89 45 08	 mov	 DWORD PTR tv208[ebp], eax
  00062	db 45 08	 fild	 DWORD PTR tv208[ebp]
  00065	6a 01		 push	 1
  00067	85 c0		 test	 eax, eax
  00069	79 06		 jns	 SHORT $LN25@CheckNorma
  0006b	d8 05 00 00 00
	00		 fadd	 DWORD PTR __real@4f800000
$LN25@CheckNorma:
  00071	51		 push	 ecx
  00072	8b cf		 mov	 ecx, edi
  00074	d9 1c 24	 fstp	 DWORD PTR [esp]
  00077	ff 15 00 00 00
	00		 call	 DWORD PTR __imp_?ClearAllActionAni@ioEntityGroup@@QAEXM_N@Z

; 315  : 			pGrp->ClearAllLoopAni( FLOAT100, true );

  0007d	b8 64 00 00 00	 mov	 eax, 100		; 00000064H
  00082	89 45 08	 mov	 DWORD PTR tv203[ebp], eax
  00085	db 45 08	 fild	 DWORD PTR tv203[ebp]
  00088	6a 01		 push	 1
  0008a	85 c0		 test	 eax, eax
  0008c	79 06		 jns	 SHORT $LN26@CheckNorma
  0008e	d8 05 00 00 00
	00		 fadd	 DWORD PTR __real@4f800000
$LN26@CheckNorma:
  00094	51		 push	 ecx
  00095	8b cf		 mov	 ecx, edi
  00097	d9 1c 24	 fstp	 DWORD PTR [esp]
  0009a	ff 15 00 00 00
	00		 call	 DWORD PTR __imp_?ClearAllLoopAni@ioEntityGroup@@QAEXM_N@Z

; 316  : 
; 317  : 			pGrp->SetLoopAni( iAniID, FLOAT100 );	

  000a0	b8 64 00 00 00	 mov	 eax, 100		; 00000064H
  000a5	0f 57 c0	 xorps	 xmm0, xmm0
  000a8	83 ec 10	 sub	 esp, 16			; 00000010H
  000ab	f3 0f 11 44 24
	0c		 movss	 DWORD PTR [esp+12], xmm0
  000b1	f3 0f 10 05 00
	00 00 00	 movss	 xmm0, DWORD PTR __real@3f800000
  000b9	89 45 08	 mov	 DWORD PTR tv198[ebp], eax
  000bc	db 45 08	 fild	 DWORD PTR tv198[ebp]
  000bf	f3 0f 11 44 24
	08		 movss	 DWORD PTR [esp+8], xmm0
  000c5	f3 0f 11 44 24
	04		 movss	 DWORD PTR [esp+4], xmm0
  000cb	85 c0		 test	 eax, eax
  000cd	79 06		 jns	 SHORT $LN27@CheckNorma
  000cf	d8 05 00 00 00
	00		 fadd	 DWORD PTR __real@4f800000
$LN27@CheckNorma:
  000d5	d9 1c 24	 fstp	 DWORD PTR [esp]
  000d8	53		 push	 ebx
  000d9	8b cf		 mov	 ecx, edi
  000db	ff 15 00 00 00
	00		 call	 DWORD PTR __imp_?SetLoopAni@ioEntityGroup@@QAE_NHMMMM@Z

; 318  : 			m_bSetMoveAni = true;

  000e1	c6 86 fc 0f 00
	00 01		 mov	 BYTE PTR [esi+4092], 1

; 319  : 		}
; 320  : 	}
; 321  : 	else

  000e8	e9 b5 00 00 00	 jmp	 $LN24@CheckNorma
$LN6@CheckNorma:

; 322  : 	{
; 323  : 		if( m_bSetMoveAni )

  000ed	80 be fc 0f 00
	00 00		 cmp	 BYTE PTR [esi+4092], 0
  000f4	0f 84 a8 00 00
	00		 je	 $LN24@CheckNorma

; 324  : 		{
; 325  : 			iAniID = pGrp->GetAnimationIdx( m_LoopDelayAnimation );

  000fa	8d 86 9c 0f 00
	00		 lea	 eax, DWORD PTR [esi+3996]
  00100	50		 push	 eax
  00101	8b cf		 mov	 ecx, edi
  00103	ff 15 00 00 00
	00		 call	 DWORD PTR __imp_?GetAnimationIdx@ioEntityGroup@@QAEHABVioHashString@@@Z
  00109	8b d8		 mov	 ebx, eax

; 326  : 			if( iAniID == -1 )

  0010b	83 fb ff	 cmp	 ebx, -1
  0010e	0f 84 8e 00 00
	00		 je	 $LN24@CheckNorma

; 327  : 				return;
; 328  : 
; 329  : 			pGrp->ClearAllActionAni( FLOAT100, true );

  00114	b8 64 00 00 00	 mov	 eax, 100		; 00000064H
  00119	89 45 08	 mov	 DWORD PTR tv175[ebp], eax
  0011c	db 45 08	 fild	 DWORD PTR tv175[ebp]
  0011f	6a 01		 push	 1
  00121	85 c0		 test	 eax, eax
  00123	79 06		 jns	 SHORT $LN28@CheckNorma
  00125	d8 05 00 00 00
	00		 fadd	 DWORD PTR __real@4f800000
$LN28@CheckNorma:
  0012b	51		 push	 ecx
  0012c	8b cf		 mov	 ecx, edi
  0012e	d9 1c 24	 fstp	 DWORD PTR [esp]
  00131	ff 15 00 00 00
	00		 call	 DWORD PTR __imp_?ClearAllActionAni@ioEntityGroup@@QAEXM_N@Z

; 330  : 			pGrp->ClearAllLoopAni( FLOAT100, true );

  00137	b8 64 00 00 00	 mov	 eax, 100		; 00000064H
  0013c	89 45 08	 mov	 DWORD PTR tv165[ebp], eax
  0013f	db 45 08	 fild	 DWORD PTR tv165[ebp]
  00142	6a 01		 push	 1
  00144	85 c0		 test	 eax, eax
  00146	79 06		 jns	 SHORT $LN29@CheckNorma
  00148	d8 05 00 00 00
	00		 fadd	 DWORD PTR __real@4f800000
$LN29@CheckNorma:
  0014e	51		 push	 ecx
  0014f	8b cf		 mov	 ecx, edi
  00151	d9 1c 24	 fstp	 DWORD PTR [esp]
  00154	ff 15 00 00 00
	00		 call	 DWORD PTR __imp_?ClearAllLoopAni@ioEntityGroup@@QAEXM_N@Z

; 331  : 
; 332  : 			pGrp->SetLoopAni( iAniID, FLOAT100 );

  0015a	b8 64 00 00 00	 mov	 eax, 100		; 00000064H
  0015f	0f 57 c0	 xorps	 xmm0, xmm0
  00162	83 ec 10	 sub	 esp, 16			; 00000010H
  00165	f3 0f 11 44 24
	0c		 movss	 DWORD PTR [esp+12], xmm0
  0016b	f3 0f 10 05 00
	00 00 00	 movss	 xmm0, DWORD PTR __real@3f800000
  00173	89 45 08	 mov	 DWORD PTR tv141[ebp], eax
  00176	db 45 08	 fild	 DWORD PTR tv141[ebp]
  00179	f3 0f 11 44 24
	08		 movss	 DWORD PTR [esp+8], xmm0
  0017f	f3 0f 11 44 24
	04		 movss	 DWORD PTR [esp+4], xmm0
  00185	85 c0		 test	 eax, eax
  00187	79 06		 jns	 SHORT $LN30@CheckNorma
  00189	d8 05 00 00 00
	00		 fadd	 DWORD PTR __real@4f800000
$LN30@CheckNorma:
  0018f	d9 1c 24	 fstp	 DWORD PTR [esp]
  00192	53		 push	 ebx
  00193	8b cf		 mov	 ecx, edi
  00195	ff 15 00 00 00
	00		 call	 DWORD PTR __imp_?SetLoopAni@ioEntityGroup@@QAE_NHMMMM@Z

; 333  : 			m_bSetMoveAni = false;

  0019b	c6 86 fc 0f 00
	00 00		 mov	 BYTE PTR [esi+4092], 0
$LN24@CheckNorma:
  001a2	5f		 pop	 edi
$LN2@CheckNorma:
  001a3	5e		 pop	 esi
  001a4	5b		 pop	 ebx

; 334  : 		}
; 335  : 	}
; 336  : }

  001a5	5d		 pop	 ebp
  001a6	c2 04 00	 ret	 4
?CheckNormalMoveAni@ioRangeTargetShotSkill@@IAEXPAVioBaseChar@@@Z ENDP ; ioRangeTargetShotSkill::CheckNormalMoveAni
_TEXT	ENDS
PUBLIC	_pChar$GSCopy$
PUBLIC	__$ArrayPad$
PUBLIC	?CheckAttackDir@ioRangeTargetShotSkill@@IAEXPAVioBaseChar@@PAVioPlayStage@@@Z ; ioRangeTargetShotSkill::CheckAttackDir
EXTRN	_D3DXVec3Normalize@8:PROC
EXTRN	?SetTargetRotToTargetPos@ioBaseChar@@QAEXABUD3DXVECTOR3@@_N1@Z:PROC ; ioBaseChar::SetTargetRotToTargetPos
EXTRN	?GetMidPositionByRate@ioGameEntity@@QBE?AUD3DXVECTOR3@@M@Z:PROC ; ioGameEntity::GetMidPositionByRate
EXTRN	__imp_??D@YA?AUD3DXVECTOR3@@ABUD3DXQUATERNION@@ABU0@@Z:PROC
EXTRN	?GetBaseChar@ioPlayStage@@QAEPAVioBaseChar@@ABVioHashString@@@Z:PROC ; ioPlayStage::GetBaseChar
EXTRN	___security_cookie:DWORD
; Function compile flags: /Ogsp
;	COMDAT ?CheckAttackDir@ioRangeTargetShotSkill@@IAEXPAVioBaseChar@@PAVioPlayStage@@@Z
_TEXT	SEGMENT
_pChar$GSCopy$ = -52					; size = 4
_pTarget$ = -48						; size = 4
tv377 = -44						; size = 4
tv348 = -44						; size = 4
tv344 = -44						; size = 4
tv340 = -44						; size = 4
tv321 = -44						; size = 4
tv272 = -44						; size = 4
tv268 = -44						; size = 4
$T531517 = -40						; size = 12
$T531513 = -40						; size = 12
$T531510 = -40						; size = 12
$T531516 = -28						; size = 12
$T531515 = -28						; size = 12
$T531509 = -28						; size = 12
_vTargetPos$ = -16					; size = 12
__$ArrayPad$ = -4					; size = 4
_pChar$ = 8						; size = 4
_pStage$ = 12						; size = 4
?CheckAttackDir@ioRangeTargetShotSkill@@IAEXPAVioBaseChar@@PAVioPlayStage@@@Z PROC ; ioRangeTargetShotSkill::CheckAttackDir, COMDAT
; _this$ = ecx

; 752  : {

  00000	55		 push	 ebp
  00001	8b ec		 mov	 ebp, esp
  00003	83 ec 34	 sub	 esp, 52			; 00000034H
  00006	a1 00 00 00 00	 mov	 eax, DWORD PTR ___security_cookie
  0000b	33 c5		 xor	 eax, ebp
  0000d	89 45 fc	 mov	 DWORD PTR __$ArrayPad$[ebp], eax
  00010	53		 push	 ebx
  00011	56		 push	 esi
  00012	8b 75 08	 mov	 esi, DWORD PTR _pChar$[ebp]
  00015	8b d9		 mov	 ebx, ecx
  00017	8b 4d 0c	 mov	 ecx, DWORD PTR _pStage$[ebp]

; 768  : 
; 769  : 	pChar->SetTargetRotToTargetPos( vTargetPos, true, false );

  0001a	89 75 cc	 mov	 DWORD PTR _pChar$GSCopy$[ebp], esi
  0001d	85 f6		 test	 esi, esi
  0001f	0f 84 a5 01 00
	00		 je	 $LN4@CheckAttac

; 753  : 	if ( !pChar || !pStage) return;

  00025	85 c9		 test	 ecx, ecx
  00027	0f 84 9d 01 00
	00		 je	 $LN4@CheckAttac

; 754  : 
; 755  : 	ioBaseChar *pTarget = pStage->GetBaseChar( m_szTargetName );

  0002d	57		 push	 edi
  0002e	8d bb 5c 0f 00
	00		 lea	 edi, DWORD PTR [ebx+3932]
  00034	57		 push	 edi
  00035	e8 00 00 00 00	 call	 ?GetBaseChar@ioPlayStage@@QAEPAVioBaseChar@@ABVioHashString@@@Z ; ioPlayStage::GetBaseChar
  0003a	89 45 d0	 mov	 DWORD PTR _pTarget$[ebp], eax

; 756  : 	if ( !pTarget )

  0003d	85 c0		 test	 eax, eax
  0003f	75 4f		 jne	 SHORT $LN3@CheckAttac

; 757  : 	{
; 758  : 		m_vAttackDir = pChar->GetTargetRot() * D3DXVECTOR3( 0.0f, 0.0f, -FLOAT1 );

  00041	b8 01 00 00 00	 mov	 eax, 1
  00046	0f 57 c0	 xorps	 xmm0, xmm0
  00049	89 45 d4	 mov	 DWORD PTR tv377[ebp], eax
  0004c	db 45 d4	 fild	 DWORD PTR tv377[ebp]
  0004f	f3 0f 11 45 e4	 movss	 DWORD PTR $T531509[ebp], xmm0
  00054	f3 0f 11 45 e8	 movss	 DWORD PTR $T531509[ebp+4], xmm0
  00059	85 c0		 test	 eax, eax
  0005b	79 06		 jns	 SHORT $LN29@CheckAttac
  0005d	d8 05 00 00 00
	00		 fadd	 DWORD PTR __real@4f800000
$LN29@CheckAttac:
  00063	8d 45 e4	 lea	 eax, DWORD PTR $T531509[ebp]
  00066	d9 e0		 fchs
  00068	50		 push	 eax
  00069	d9 5d ec	 fstp	 DWORD PTR $T531509[ebp+8]
  0006c	81 c6 a4 06 00
	00		 add	 esi, 1700		; 000006a4H
  00072	8d 45 d8	 lea	 eax, DWORD PTR $T531510[ebp]
  00075	56		 push	 esi
  00076	50		 push	 eax
  00077	ff 15 00 00 00
	00		 call	 DWORD PTR __imp_??D@YA?AUD3DXVECTOR3@@ABUD3DXQUATERNION@@ABU0@@Z
  0007d	8d bb f0 11 00
	00		 lea	 edi, DWORD PTR [ebx+4592]
  00083	8b f0		 mov	 esi, eax
  00085	a5		 movsd
  00086	a5		 movsd
  00087	83 c4 0c	 add	 esp, 12			; 0000000cH
  0008a	a5		 movsd

; 759  : 		return;

  0008b	e9 39 01 00 00	 jmp	 $LN28@CheckAttac
$LN3@CheckAttac:

; 760  : 	}	
; 761  : 	m_szPreTargetName = m_szTargetName;

  00090	57		 push	 edi
  00091	8d 8b 8c 0f 00
	00		 lea	 ecx, DWORD PTR [ebx+3980]
  00097	ff 15 00 00 00
	00		 call	 DWORD PTR __imp_??4ioHashString@@QAEAAV0@ABV0@@Z

; 762  : 	
; 763  : 	D3DXVECTOR3 vTargetPos;
; 764  : 	if( CheckDownAimState( pTarget ) )

  0009d	ff 75 d0	 push	 DWORD PTR _pTarget$[ebp]
  000a0	8b cb		 mov	 ecx, ebx
  000a2	e8 00 00 00 00	 call	 ?CheckDownAimState@ioRangeTargetShotSkill@@IAE_NPAVioBaseChar@@@Z ; ioRangeTargetShotSkill::CheckDownAimState
  000a7	84 c0		 test	 al, al
  000a9	74 13		 je	 SHORT $LN2@CheckAttac

; 765  : 		vTargetPos = pTarget->GetMidPositionByRate( m_fDownTargetAimRate );

  000ab	f3 0f 10 83 00
	12 00 00	 movss	 xmm0, DWORD PTR [ebx+4608]
  000b3	51		 push	 ecx
  000b4	f3 0f 11 04 24	 movss	 DWORD PTR [esp], xmm0
  000b9	8d 45 d8	 lea	 eax, DWORD PTR $T531513[ebp]

; 766  : 	else

  000bc	eb 3b		 jmp	 SHORT $LN34@CheckAttac
$LN2@CheckAttac:

; 767  : 		vTargetPos = pTarget->GetMidPositionByRate();

  000be	b8 05 00 00 00	 mov	 eax, 5
  000c3	8b c8		 mov	 ecx, eax
  000c5	b8 0a 00 00 00	 mov	 eax, 10			; 0000000aH
  000ca	89 4d d4	 mov	 DWORD PTR tv348[ebp], ecx
  000cd	db 45 d4	 fild	 DWORD PTR tv348[ebp]
  000d0	85 c9		 test	 ecx, ecx
  000d2	79 06		 jns	 SHORT $LN30@CheckAttac
  000d4	d8 05 00 00 00
	00		 fadd	 DWORD PTR __real@4f800000
$LN30@CheckAttac:
  000da	89 45 d4	 mov	 DWORD PTR tv344[ebp], eax
  000dd	db 45 d4	 fild	 DWORD PTR tv344[ebp]
  000e0	85 c0		 test	 eax, eax
  000e2	79 06		 jns	 SHORT $LN31@CheckAttac
  000e4	d8 05 00 00 00
	00		 fadd	 DWORD PTR __real@4f800000
$LN31@CheckAttac:
  000ea	de f9		 fdivp	 ST(1), ST(0)
  000ec	51		 push	 ecx
  000ed	8d 45 e4	 lea	 eax, DWORD PTR $T531515[ebp]
  000f0	d9 5d d4	 fstp	 DWORD PTR tv340[ebp]
  000f3	d9 45 d4	 fld	 DWORD PTR tv340[ebp]
  000f6	d9 1c 24	 fstp	 DWORD PTR [esp]
$LN34@CheckAttac:
  000f9	8b 4d d0	 mov	 ecx, DWORD PTR _pTarget$[ebp]
  000fc	50		 push	 eax
  000fd	e8 00 00 00 00	 call	 ?GetMidPositionByRate@ioGameEntity@@QBE?AUD3DXVECTOR3@@M@Z ; ioGameEntity::GetMidPositionByRate

; 768  : 
; 769  : 	pChar->SetTargetRotToTargetPos( vTargetPos, true, false );

  00102	8b 4d cc	 mov	 ecx, DWORD PTR _pChar$GSCopy$[ebp]
  00105	8b f0		 mov	 esi, eax
  00107	8d 7d f0	 lea	 edi, DWORD PTR _vTargetPos$[ebp]
  0010a	a5		 movsd
  0010b	6a 00		 push	 0
  0010d	a5		 movsd
  0010e	6a 01		 push	 1
  00110	8d 45 f0	 lea	 eax, DWORD PTR _vTargetPos$[ebp]
  00113	50		 push	 eax
  00114	a5		 movsd
  00115	e8 00 00 00 00	 call	 ?SetTargetRotToTargetPos@ioBaseChar@@QAEXABUD3DXVECTOR3@@_N1@Z ; ioBaseChar::SetTargetRotToTargetPos

; 770  : 
; 771  : 	m_vAttackDir = vTargetPos - pChar->GetMidPositionByRate();

  0011a	b8 05 00 00 00	 mov	 eax, 5
  0011f	8b c8		 mov	 ecx, eax
  00121	b8 0a 00 00 00	 mov	 eax, 10			; 0000000aH
  00126	89 4d d4	 mov	 DWORD PTR tv321[ebp], ecx
  00129	db 45 d4	 fild	 DWORD PTR tv321[ebp]
  0012c	85 c9		 test	 ecx, ecx
  0012e	79 06		 jns	 SHORT $LN32@CheckAttac
  00130	d8 05 00 00 00
	00		 fadd	 DWORD PTR __real@4f800000
$LN32@CheckAttac:
  00136	89 45 d4	 mov	 DWORD PTR tv272[ebp], eax
  00139	db 45 d4	 fild	 DWORD PTR tv272[ebp]
  0013c	85 c0		 test	 eax, eax
  0013e	79 06		 jns	 SHORT $LN33@CheckAttac
  00140	d8 05 00 00 00
	00		 fadd	 DWORD PTR __real@4f800000
$LN33@CheckAttac:
  00146	de f9		 fdivp	 ST(1), ST(0)
  00148	51		 push	 ecx
  00149	8b 4d cc	 mov	 ecx, DWORD PTR _pChar$GSCopy$[ebp]
  0014c	8d 45 e4	 lea	 eax, DWORD PTR $T531516[ebp]
  0014f	d9 5d d4	 fstp	 DWORD PTR tv268[ebp]
  00152	d9 45 d4	 fld	 DWORD PTR tv268[ebp]
  00155	d9 1c 24	 fstp	 DWORD PTR [esp]
  00158	50		 push	 eax
  00159	e8 00 00 00 00	 call	 ?GetMidPositionByRate@ioGameEntity@@QBE?AUD3DXVECTOR3@@M@Z ; ioGameEntity::GetMidPositionByRate
  0015e	f3 0f 10 08	 movss	 xmm1, DWORD PTR [eax]
  00162	f3 0f 10 45 f0	 movss	 xmm0, DWORD PTR _vTargetPos$[ebp]
  00167	0f 5a c0	 cvtps2pd xmm0, xmm0
  0016a	0f 5a c9	 cvtps2pd xmm1, xmm1
  0016d	f2 0f 5c c1	 subsd	 xmm0, xmm1
  00171	f3 0f 10 48 04	 movss	 xmm1, DWORD PTR [eax+4]
  00176	66 0f 5a c0	 cvtpd2ps xmm0, xmm0
  0017a	f3 0f 11 45 d8	 movss	 DWORD PTR $T531517[ebp], xmm0
  0017f	f3 0f 10 45 f4	 movss	 xmm0, DWORD PTR _vTargetPos$[ebp+4]
  00184	0f 5a c0	 cvtps2pd xmm0, xmm0
  00187	0f 5a c9	 cvtps2pd xmm1, xmm1
  0018a	f2 0f 5c c1	 subsd	 xmm0, xmm1
  0018e	f3 0f 10 48 08	 movss	 xmm1, DWORD PTR [eax+8]
  00193	66 0f 5a c0	 cvtpd2ps xmm0, xmm0
  00197	f3 0f 11 45 dc	 movss	 DWORD PTR $T531517[ebp+4], xmm0
  0019c	f3 0f 10 45 f8	 movss	 xmm0, DWORD PTR _vTargetPos$[ebp+8]
  001a1	81 c3 f0 11 00
	00		 add	 ebx, 4592		; 000011f0H
  001a7	0f 5a c0	 cvtps2pd xmm0, xmm0
  001aa	0f 5a c9	 cvtps2pd xmm1, xmm1
  001ad	f2 0f 5c c1	 subsd	 xmm0, xmm1
  001b1	66 0f 5a c0	 cvtpd2ps xmm0, xmm0
  001b5	f3 0f 11 45 e0	 movss	 DWORD PTR $T531517[ebp+8], xmm0
  001ba	8d 75 d8	 lea	 esi, DWORD PTR $T531517[ebp]
  001bd	8b fb		 mov	 edi, ebx
  001bf	a5		 movsd
  001c0	a5		 movsd

; 772  : 	D3DXVec3Normalize( &m_vAttackDir, &m_vAttackDir );

  001c1	53		 push	 ebx
  001c2	53		 push	 ebx
  001c3	a5		 movsd
  001c4	e8 00 00 00 00	 call	 _D3DXVec3Normalize@8
$LN28@CheckAttac:
  001c9	5f		 pop	 edi
$LN4@CheckAttac:

; 773  : }

  001ca	8b 4d fc	 mov	 ecx, DWORD PTR __$ArrayPad$[ebp]
  001cd	5e		 pop	 esi
  001ce	33 cd		 xor	 ecx, ebp
  001d0	5b		 pop	 ebx
  001d1	e8 00 00 00 00	 call	 @__security_check_cookie@4
  001d6	c9		 leave
  001d7	c2 08 00	 ret	 8
?CheckAttackDir@ioRangeTargetShotSkill@@IAEXPAVioBaseChar@@PAVioPlayStage@@@Z ENDP ; ioRangeTargetShotSkill::CheckAttackDir
_TEXT	ENDS
PUBLIC	_pOwner$GSCopy$
PUBLIC	___$ReturnUdt$GSCopy$
PUBLIC	__$ArrayPad$
PUBLIC	?ReCalcMoveDir@ioRangeTargetShotSkill@@IAE?AUD3DXVECTOR3@@PAVioBaseChar@@PAVioWeapon@@@Z ; ioRangeTargetShotSkill::ReCalcMoveDir
EXTRN	?GetBaseChar@ioBaseChar@@QAEPAV1@ABVioHashString@@@Z:PROC ; ioBaseChar::GetBaseChar
; Function compile flags: /Ogsp
;	COMDAT ?ReCalcMoveDir@ioRangeTargetShotSkill@@IAE?AUD3DXVECTOR3@@PAVioBaseChar@@PAVioWeapon@@@Z
_TEXT	SEGMENT
_vTargetPos$ = -64					; size = 12
___$ReturnUdt$GSCopy$ = -52				; size = 4
tv347 = -48						; size = 4
tv343 = -48						; size = 4
_pOwner$GSCopy$ = -48					; size = 4
tv339 = -44						; size = 4
tv247 = -44						; size = 4
_pTarget$ = -44						; size = 4
$T531611 = -40						; size = 12
_vAimedDir$531615 = -28					; size = 12
_vWeaponPos$ = -28					; size = 12
$T531617 = -16						; size = 12
_vAimedDir$531612 = -16					; size = 12
__$ArrayPad$ = -4					; size = 4
___$ReturnUdt$ = 8					; size = 4
_pOwner$ = 12						; size = 4
_pWeapon$ = 16						; size = 4
?ReCalcMoveDir@ioRangeTargetShotSkill@@IAE?AUD3DXVECTOR3@@PAVioBaseChar@@PAVioWeapon@@@Z PROC ; ioRangeTargetShotSkill::ReCalcMoveDir, COMDAT
; _this$ = ecx

; 900  : {

  00000	55		 push	 ebp
  00001	8b ec		 mov	 ebp, esp
  00003	83 ec 40	 sub	 esp, 64			; 00000040H
  00006	a1 00 00 00 00	 mov	 eax, DWORD PTR ___security_cookie
  0000b	33 c5		 xor	 eax, ebp
  0000d	89 45 fc	 mov	 DWORD PTR __$ArrayPad$[ebp], eax
  00010	8b 45 08	 mov	 eax, DWORD PTR ___$ReturnUdt$[ebp]
  00013	53		 push	 ebx
  00014	56		 push	 esi
  00015	8b 75 10	 mov	 esi, DWORD PTR _pWeapon$[ebp]
  00018	8b d9		 mov	 ebx, ecx
  0001a	8b 4d 0c	 mov	 ecx, DWORD PTR _pOwner$[ebp]

; 901  : 	ioBaseChar *pTarget = pOwner->GetBaseChar( m_szTargetName );

  0001d	89 45 cc	 mov	 DWORD PTR ___$ReturnUdt$GSCopy$[ebp], eax
  00020	57		 push	 edi
  00021	8d 83 5c 0f 00
	00		 lea	 eax, DWORD PTR [ebx+3932]
  00027	50		 push	 eax
  00028	89 4d d0	 mov	 DWORD PTR _pOwner$GSCopy$[ebp], ecx
  0002b	e8 00 00 00 00	 call	 ?GetBaseChar@ioBaseChar@@QAEPAV1@ABVioHashString@@@Z ; ioBaseChar::GetBaseChar
  00030	89 45 d4	 mov	 DWORD PTR _pTarget$[ebp], eax

; 902  : 	D3DXVECTOR3 vTargetPos;
; 903  : 	D3DXVECTOR3 vWeaponPos = pWeapon->GetPosition();

  00033	8b 06		 mov	 eax, DWORD PTR [esi]
  00035	8b ce		 mov	 ecx, esi
  00037	ff 50 70	 call	 DWORD PTR [eax+112]
  0003a	8b f0		 mov	 esi, eax
  0003c	8d 7d e4	 lea	 edi, DWORD PTR _vWeaponPos$[ebp]
  0003f	a5		 movsd
  00040	a5		 movsd
  00041	a5		 movsd

; 904  : 
; 905  : 	if( pTarget )

  00042	8b 75 d4	 mov	 esi, DWORD PTR _pTarget$[ebp]
  00045	85 f6		 test	 esi, esi
  00047	0f 84 f9 00 00
	00		 je	 $LN4@ReCalcMove

; 906  : 	{
; 907  : 		if( CheckDownAimState( pTarget ) )

  0004d	56		 push	 esi
  0004e	8b cb		 mov	 ecx, ebx
  00050	e8 00 00 00 00	 call	 ?CheckDownAimState@ioRangeTargetShotSkill@@IAE_NPAVioBaseChar@@@Z ; ioRangeTargetShotSkill::CheckDownAimState
  00055	84 c0		 test	 al, al
  00057	74 10		 je	 SHORT $LN3@ReCalcMove

; 908  : 			vTargetPos = pTarget->GetMidPositionByRate( m_fDownTargetAimRate );

  00059	f3 0f 10 83 00
	12 00 00	 movss	 xmm0, DWORD PTR [ebx+4608]
  00061	51		 push	 ecx
  00062	f3 0f 11 04 24	 movss	 DWORD PTR [esp], xmm0

; 909  : 		else

  00067	eb 38		 jmp	 SHORT $LN26@ReCalcMove
$LN3@ReCalcMove:

; 910  : 			vTargetPos = pTarget->GetMidPositionByRate();

  00069	b8 05 00 00 00	 mov	 eax, 5
  0006e	8b c8		 mov	 ecx, eax
  00070	b8 0a 00 00 00	 mov	 eax, 10			; 0000000aH
  00075	89 4d d0	 mov	 DWORD PTR tv347[ebp], ecx
  00078	db 45 d0	 fild	 DWORD PTR tv347[ebp]
  0007b	85 c9		 test	 ecx, ecx
  0007d	79 06		 jns	 SHORT $LN23@ReCalcMove
  0007f	d8 05 00 00 00
	00		 fadd	 DWORD PTR __real@4f800000
$LN23@ReCalcMove:
  00085	89 45 d0	 mov	 DWORD PTR tv343[ebp], eax
  00088	db 45 d0	 fild	 DWORD PTR tv343[ebp]
  0008b	85 c0		 test	 eax, eax
  0008d	79 06		 jns	 SHORT $LN24@ReCalcMove
  0008f	d8 05 00 00 00
	00		 fadd	 DWORD PTR __real@4f800000
$LN24@ReCalcMove:
  00095	de f9		 fdivp	 ST(1), ST(0)
  00097	51		 push	 ecx
  00098	d9 5d d4	 fstp	 DWORD PTR tv339[ebp]
  0009b	d9 45 d4	 fld	 DWORD PTR tv339[ebp]
  0009e	d9 1c 24	 fstp	 DWORD PTR [esp]
$LN26@ReCalcMove:
  000a1	8d 45 d8	 lea	 eax, DWORD PTR $T531611[ebp]
  000a4	50		 push	 eax
  000a5	8b ce		 mov	 ecx, esi
  000a7	e8 00 00 00 00	 call	 ?GetMidPositionByRate@ioGameEntity@@QBE?AUD3DXVECTOR3@@M@Z ; ioGameEntity::GetMidPositionByRate

; 911  : 	
; 912  : 
; 913  : 		D3DXVECTOR3 vAimedDir =  vTargetPos - vWeaponPos;

  000ac	f3 0f 10 4d e4	 movss	 xmm1, DWORD PTR _vWeaponPos$[ebp]
  000b1	8b f0		 mov	 esi, eax
  000b3	8d 7d c0	 lea	 edi, DWORD PTR _vTargetPos$[ebp]
  000b6	a5		 movsd
  000b7	a5		 movsd
  000b8	a5		 movsd
  000b9	f3 0f 10 45 c0	 movss	 xmm0, DWORD PTR _vTargetPos$[ebp]
  000be	0f 5a c0	 cvtps2pd xmm0, xmm0
  000c1	0f 5a c9	 cvtps2pd xmm1, xmm1
  000c4	f2 0f 5c c1	 subsd	 xmm0, xmm1
  000c8	f3 0f 10 4d e8	 movss	 xmm1, DWORD PTR _vWeaponPos$[ebp+4]
  000cd	66 0f 5a c0	 cvtpd2ps xmm0, xmm0
  000d1	f3 0f 11 45 f0	 movss	 DWORD PTR _vAimedDir$531612[ebp], xmm0
  000d6	f3 0f 10 45 c4	 movss	 xmm0, DWORD PTR _vTargetPos$[ebp+4]
  000db	0f 5a c0	 cvtps2pd xmm0, xmm0
  000de	0f 5a c9	 cvtps2pd xmm1, xmm1
  000e1	f2 0f 5c c1	 subsd	 xmm0, xmm1
  000e5	f3 0f 10 4d ec	 movss	 xmm1, DWORD PTR _vWeaponPos$[ebp+8]
  000ea	66 0f 5a c0	 cvtpd2ps xmm0, xmm0
  000ee	f3 0f 11 45 f4	 movss	 DWORD PTR _vAimedDir$531612[ebp+4], xmm0
  000f3	f3 0f 10 45 c8	 movss	 xmm0, DWORD PTR _vTargetPos$[ebp+8]

; 914  : 		D3DXVec3Normalize( &vAimedDir, &vAimedDir );

  000f8	8d 45 f0	 lea	 eax, DWORD PTR _vAimedDir$531612[ebp]
  000fb	0f 5a c0	 cvtps2pd xmm0, xmm0
  000fe	0f 5a c9	 cvtps2pd xmm1, xmm1
  00101	50		 push	 eax
  00102	f2 0f 5c c1	 subsd	 xmm0, xmm1
  00106	66 0f 5a c0	 cvtpd2ps xmm0, xmm0
  0010a	50		 push	 eax
  0010b	f3 0f 11 45 f8	 movss	 DWORD PTR _vAimedDir$531612[ebp+8], xmm0
  00110	e8 00 00 00 00	 call	 _D3DXVec3Normalize@8

; 915  : 		vAimedDir.x = m_vAttackDir.x;
; 916  : 		vAimedDir.z = m_vAttackDir.z;
; 917  : 
; 918  : 		D3DXVec3Normalize( &vAimedDir, &vAimedDir );

  00115	8d 45 f0	 lea	 eax, DWORD PTR _vAimedDir$531612[ebp]
  00118	8d bb f0 11 00
	00		 lea	 edi, DWORD PTR [ebx+4592]
  0011e	f3 0f 10 07	 movss	 xmm0, DWORD PTR [edi]
  00122	50		 push	 eax
  00123	f3 0f 11 45 f0	 movss	 DWORD PTR _vAimedDir$531612[ebp], xmm0
  00128	f3 0f 10 83 f8
	11 00 00	 movss	 xmm0, DWORD PTR [ebx+4600]
  00130	50		 push	 eax
  00131	f3 0f 11 45 f8	 movss	 DWORD PTR _vAimedDir$531612[ebp+8], xmm0
  00136	e8 00 00 00 00	 call	 _D3DXVec3Normalize@8

; 919  : 
; 920  : 		m_vAttackDir = vAimedDir;

  0013b	8d 75 f0	 lea	 esi, DWORD PTR _vAimedDir$531612[ebp]
  0013e	a5		 movsd
  0013f	a5		 movsd
  00140	a5		 movsd

; 921  : 		
; 922  : 		return vAimedDir;

  00141	8d 75 f0	 lea	 esi, DWORD PTR _vAimedDir$531612[ebp]
  00144	eb 44		 jmp	 SHORT $LN27@ReCalcMove
$LN4@ReCalcMove:

; 923  : 	}
; 924  : 	else
; 925  : 	{
; 926  : 		D3DXVECTOR3 vAimedDir = pOwner->GetTargetRot() * D3DXVECTOR3( 0.0f, 0.0f, -FLOAT1 );

  00146	b8 01 00 00 00	 mov	 eax, 1
  0014b	0f 57 c0	 xorps	 xmm0, xmm0
  0014e	89 45 d4	 mov	 DWORD PTR tv247[ebp], eax
  00151	db 45 d4	 fild	 DWORD PTR tv247[ebp]
  00154	f3 0f 11 45 f0	 movss	 DWORD PTR $T531617[ebp], xmm0
  00159	f3 0f 11 45 f4	 movss	 DWORD PTR $T531617[ebp+4], xmm0
  0015e	85 c0		 test	 eax, eax
  00160	79 06		 jns	 SHORT $LN25@ReCalcMove
  00162	d8 05 00 00 00
	00		 fadd	 DWORD PTR __real@4f800000
$LN25@ReCalcMove:
  00168	8d 45 f0	 lea	 eax, DWORD PTR $T531617[ebp]
  0016b	d9 e0		 fchs
  0016d	50		 push	 eax
  0016e	d9 5d f8	 fstp	 DWORD PTR $T531617[ebp+8]
  00171	8b 45 d0	 mov	 eax, DWORD PTR _pOwner$GSCopy$[ebp]
  00174	05 a4 06 00 00	 add	 eax, 1700		; 000006a4H
  00179	50		 push	 eax
  0017a	8d 45 e4	 lea	 eax, DWORD PTR _vAimedDir$531615[ebp]
  0017d	50		 push	 eax
  0017e	ff 15 00 00 00
	00		 call	 DWORD PTR __imp_??D@YA?AUD3DXVECTOR3@@ABUD3DXQUATERNION@@ABU0@@Z
  00184	83 c4 0c	 add	 esp, 12			; 0000000cH

; 927  : 		return vAimedDir;

  00187	8d 75 e4	 lea	 esi, DWORD PTR _vAimedDir$531615[ebp]
$LN27@ReCalcMove:
  0018a	8b 45 cc	 mov	 eax, DWORD PTR ___$ReturnUdt$GSCopy$[ebp]

; 928  : 	}
; 929  : }

  0018d	8b 4d fc	 mov	 ecx, DWORD PTR __$ArrayPad$[ebp]
  00190	8b f8		 mov	 edi, eax
  00192	a5		 movsd
  00193	a5		 movsd
  00194	a5		 movsd
  00195	5f		 pop	 edi
  00196	5e		 pop	 esi
  00197	33 cd		 xor	 ecx, ebp
  00199	5b		 pop	 ebx
  0019a	e8 00 00 00 00	 call	 @__security_check_cookie@4
  0019f	c9		 leave
  001a0	c2 0c 00	 ret	 12			; 0000000cH
?ReCalcMoveDir@ioRangeTargetShotSkill@@IAE?AUD3DXVECTOR3@@PAVioBaseChar@@PAVioWeapon@@@Z ENDP ; ioRangeTargetShotSkill::ReCalcMoveDir
_TEXT	ENDS
PUBLIC	??D?$CEncrypt@M@@QAEMABM@Z			; CEncrypt<float>::operator*
; Function compile flags: /Ogsp
; File d:\lost saga for developer\youtube\tutorial\source\src\lsclient\encryptvalue.h
;	COMDAT ??D?$CEncrypt@M@@QAEMABM@Z
_TEXT	SEGMENT
_value$ = -4						; size = 4
tv130 = 8						; size = 4
_inValue$ = 8						; size = 4
??D?$CEncrypt@M@@QAEMABM@Z PROC				; CEncrypt<float>::operator*, COMDAT
; _this$ = ecx

; 1685 : 	{	

  00000	55		 push	 ebp
  00001	8b ec		 mov	 ebp, esp
  00003	51		 push	 ecx

; 1686 : 		type value;
; 1687 : 		DecryptValueToPool(&value);

  00004	8d 45 fc	 lea	 eax, DWORD PTR _value$[ebp]
  00007	50		 push	 eax
  00008	e8 00 00 00 00	 call	 ?DecryptValueToPool@?$CEncrypt@M@@QAEXPAM@Z ; CEncrypt<float>::DecryptValueToPool

; 1688 : #ifdef _NOTUSE
; 1689 : 		Debug();
; 1690 : #endif
; 1691 : 		return value * inValue;

  0000d	8b 45 08	 mov	 eax, DWORD PTR _inValue$[ebp]
  00010	d9 00		 fld	 DWORD PTR [eax]
  00012	d8 4d fc	 fmul	 DWORD PTR _value$[ebp]
  00015	d9 5d 08	 fstp	 DWORD PTR tv130[ebp]
  00018	d9 45 08	 fld	 DWORD PTR tv130[ebp]

; 1692 : 	}

  0001b	c9		 leave
  0001c	c2 04 00	 ret	 4
??D?$CEncrypt@M@@QAEMABM@Z ENDP				; CEncrypt<float>::operator*
_TEXT	ENDS
PUBLIC	??O?$CEncrypt@K@@QAE_NABH@Z			; CEncrypt<unsigned long>::operator>
; Function compile flags: /Ogsp
;	COMDAT ??O?$CEncrypt@K@@QAE_NABH@Z
_TEXT	SEGMENT
_value$ = -4						; size = 4
_inValue$ = 8						; size = 4
??O?$CEncrypt@K@@QAE_NABH@Z PROC			; CEncrypt<unsigned long>::operator>, COMDAT
; _this$ = ecx

; 1009 : 	{

  00000	55		 push	 ebp
  00001	8b ec		 mov	 ebp, esp
  00003	51		 push	 ecx

; 1010 : 		
; 1011 : 		type value;
; 1012 : 		DecryptValueToPool(&value);

  00004	8d 45 fc	 lea	 eax, DWORD PTR _value$[ebp]
  00007	50		 push	 eax
  00008	e8 00 00 00 00	 call	 ?DecryptValueToPool@?$CEncrypt@K@@QAEXPAK@Z ; CEncrypt<unsigned long>::DecryptValueToPool

; 1013 : #ifdef _NOTUSE
; 1014 : 		Debug();
; 1015 : #endif
; 1016 : 		return (value > inValue);

  0000d	8b 45 08	 mov	 eax, DWORD PTR _inValue$[ebp]
  00010	8b 00		 mov	 eax, DWORD PTR [eax]
  00012	3b 45 fc	 cmp	 eax, DWORD PTR _value$[ebp]
  00015	1b c0		 sbb	 eax, eax
  00017	f7 d8		 neg	 eax

; 1017 : 	}		

  00019	c9		 leave
  0001a	c2 04 00	 ret	 4
??O?$CEncrypt@K@@QAE_NABH@Z ENDP			; CEncrypt<unsigned long>::operator>
_TEXT	ENDS
PUBLIC	??H?$CEncrypt@K@@QAEKABK@Z			; CEncrypt<unsigned long>::operator+
; Function compile flags: /Ogsp
;	COMDAT ??H?$CEncrypt@K@@QAEKABK@Z
_TEXT	SEGMENT
_value$ = -4						; size = 4
_inValue$ = 8						; size = 4
??H?$CEncrypt@K@@QAEKABK@Z PROC				; CEncrypt<unsigned long>::operator+, COMDAT
; _this$ = ecx

; 1285 : 	{

  00000	55		 push	 ebp
  00001	8b ec		 mov	 ebp, esp
  00003	51		 push	 ecx

; 1286 : 		type value;
; 1287 : 		DecryptValueToPool(&value);

  00004	8d 45 fc	 lea	 eax, DWORD PTR _value$[ebp]
  00007	50		 push	 eax
  00008	e8 00 00 00 00	 call	 ?DecryptValueToPool@?$CEncrypt@K@@QAEXPAK@Z ; CEncrypt<unsigned long>::DecryptValueToPool

; 1288 : #ifdef _NOTUSE
; 1289 : 		Debug();
; 1290 : #endif
; 1291 : 		return value + inValue;

  0000d	8b 45 08	 mov	 eax, DWORD PTR _inValue$[ebp]
  00010	8b 00		 mov	 eax, DWORD PTR [eax]
  00012	03 45 fc	 add	 eax, DWORD PTR _value$[ebp]

; 1292 : 	}

  00015	c9		 leave
  00016	c2 04 00	 ret	 4
??H?$CEncrypt@K@@QAEKABK@Z ENDP				; CEncrypt<unsigned long>::operator+
_TEXT	ENDS
PUBLIC	?begin@?$vector@PAVioBaseChar@@V?$allocator@PAVioBaseChar@@@std@@@std@@QBE?AV?$_Vector_const_iterator@V?$_Vector_val@PAVioBaseChar@@V?$allocator@PAVioBaseChar@@@std@@@std@@@2@XZ ; std::vector<ioBaseChar *,std::allocator<ioBaseChar *> >::begin
; Function compile flags: /Ogsp
; File c:\program files (x86)\microsoft visual studio 10.0\vc\include\vector
;	COMDAT ?begin@?$vector@PAVioBaseChar@@V?$allocator@PAVioBaseChar@@@std@@@std@@QBE?AV?$_Vector_const_iterator@V?$_Vector_val@PAVioBaseChar@@V?$allocator@PAVioBaseChar@@@std@@@std@@@2@XZ
_TEXT	SEGMENT
___$ReturnUdt$ = 8					; size = 4
?begin@?$vector@PAVioBaseChar@@V?$allocator@PAVioBaseChar@@@std@@@std@@QBE?AV?$_Vector_const_iterator@V?$_Vector_val@PAVioBaseChar@@V?$allocator@PAVioBaseChar@@@std@@@std@@@2@XZ PROC ; std::vector<ioBaseChar *,std::allocator<ioBaseChar *> >::begin, COMDAT
; _this$ = ecx

; 786  : 		{	// return iterator for beginning of nonmutable sequence

  00000	55		 push	 ebp
  00001	8b ec		 mov	 ebp, esp

; 787  : 		return (const_iterator(this->_Myfirst, this));

  00003	8b 09		 mov	 ecx, DWORD PTR [ecx]
  00005	8b 45 08	 mov	 eax, DWORD PTR ___$ReturnUdt$[ebp]
  00008	89 08		 mov	 DWORD PTR [eax], ecx

; 788  : 		}

  0000a	5d		 pop	 ebp
  0000b	c2 04 00	 ret	 4
?begin@?$vector@PAVioBaseChar@@V?$allocator@PAVioBaseChar@@@std@@@std@@QBE?AV?$_Vector_const_iterator@V?$_Vector_val@PAVioBaseChar@@V?$allocator@PAVioBaseChar@@@std@@@std@@@2@XZ ENDP ; std::vector<ioBaseChar *,std::allocator<ioBaseChar *> >::begin
_TEXT	ENDS
PUBLIC	?end@?$vector@PAVioBaseChar@@V?$allocator@PAVioBaseChar@@@std@@@std@@QBE?AV?$_Vector_const_iterator@V?$_Vector_val@PAVioBaseChar@@V?$allocator@PAVioBaseChar@@@std@@@std@@@2@XZ ; std::vector<ioBaseChar *,std::allocator<ioBaseChar *> >::end
; Function compile flags: /Ogsp
;	COMDAT ?end@?$vector@PAVioBaseChar@@V?$allocator@PAVioBaseChar@@@std@@@std@@QBE?AV?$_Vector_const_iterator@V?$_Vector_val@PAVioBaseChar@@V?$allocator@PAVioBaseChar@@@std@@@std@@@2@XZ
_TEXT	SEGMENT
___$ReturnUdt$ = 8					; size = 4
?end@?$vector@PAVioBaseChar@@V?$allocator@PAVioBaseChar@@@std@@@std@@QBE?AV?$_Vector_const_iterator@V?$_Vector_val@PAVioBaseChar@@V?$allocator@PAVioBaseChar@@@std@@@std@@@2@XZ PROC ; std::vector<ioBaseChar *,std::allocator<ioBaseChar *> >::end, COMDAT
; _this$ = ecx

; 796  : 		{	// return iterator for end of nonmutable sequence

  00000	55		 push	 ebp
  00001	8b ec		 mov	 ebp, esp

; 797  : 		return (const_iterator(this->_Mylast, this));

  00003	8b 49 04	 mov	 ecx, DWORD PTR [ecx+4]
  00006	8b 45 08	 mov	 eax, DWORD PTR ___$ReturnUdt$[ebp]
  00009	89 08		 mov	 DWORD PTR [eax], ecx

; 798  : 		}

  0000b	5d		 pop	 ebp
  0000c	c2 04 00	 ret	 4
?end@?$vector@PAVioBaseChar@@V?$allocator@PAVioBaseChar@@@std@@@std@@QBE?AV?$_Vector_const_iterator@V?$_Vector_val@PAVioBaseChar@@V?$allocator@PAVioBaseChar@@@std@@@std@@@2@XZ ENDP ; std::vector<ioBaseChar *,std::allocator<ioBaseChar *> >::end
_TEXT	ENDS
PUBLIC	?begin@?$vector@UWeaponInfo@@V?$allocator@UWeaponInfo@@@std@@@std@@QBE?AV?$_Vector_const_iterator@V?$_Vector_val@UWeaponInfo@@V?$allocator@UWeaponInfo@@@std@@@std@@@2@XZ ; std::vector<WeaponInfo,std::allocator<WeaponInfo> >::begin
; Function compile flags: /Ogsp
;	COMDAT ?begin@?$vector@UWeaponInfo@@V?$allocator@UWeaponInfo@@@std@@@std@@QBE?AV?$_Vector_const_iterator@V?$_Vector_val@UWeaponInfo@@V?$allocator@UWeaponInfo@@@std@@@std@@@2@XZ
_TEXT	SEGMENT
___$ReturnUdt$ = 8					; size = 4
?begin@?$vector@UWeaponInfo@@V?$allocator@UWeaponInfo@@@std@@@std@@QBE?AV?$_Vector_const_iterator@V?$_Vector_val@UWeaponInfo@@V?$allocator@UWeaponInfo@@@std@@@std@@@2@XZ PROC ; std::vector<WeaponInfo,std::allocator<WeaponInfo> >::begin, COMDAT
; _this$ = ecx

; 786  : 		{	// return iterator for beginning of nonmutable sequence

  00000	55		 push	 ebp
  00001	8b ec		 mov	 ebp, esp

; 787  : 		return (const_iterator(this->_Myfirst, this));

  00003	8b 09		 mov	 ecx, DWORD PTR [ecx]
  00005	8b 45 08	 mov	 eax, DWORD PTR ___$ReturnUdt$[ebp]
  00008	89 08		 mov	 DWORD PTR [eax], ecx

; 788  : 		}

  0000a	5d		 pop	 ebp
  0000b	c2 04 00	 ret	 4
?begin@?$vector@UWeaponInfo@@V?$allocator@UWeaponInfo@@@std@@@std@@QBE?AV?$_Vector_const_iterator@V?$_Vector_val@UWeaponInfo@@V?$allocator@UWeaponInfo@@@std@@@std@@@2@XZ ENDP ; std::vector<WeaponInfo,std::allocator<WeaponInfo> >::begin
_TEXT	ENDS
PUBLIC	?end@?$vector@UWeaponInfo@@V?$allocator@UWeaponInfo@@@std@@@std@@QBE?AV?$_Vector_const_iterator@V?$_Vector_val@UWeaponInfo@@V?$allocator@UWeaponInfo@@@std@@@std@@@2@XZ ; std::vector<WeaponInfo,std::allocator<WeaponInfo> >::end
; Function compile flags: /Ogsp
;	COMDAT ?end@?$vector@UWeaponInfo@@V?$allocator@UWeaponInfo@@@std@@@std@@QBE?AV?$_Vector_const_iterator@V?$_Vector_val@UWeaponInfo@@V?$allocator@UWeaponInfo@@@std@@@std@@@2@XZ
_TEXT	SEGMENT
___$ReturnUdt$ = 8					; size = 4
?end@?$vector@UWeaponInfo@@V?$allocator@UWeaponInfo@@@std@@@std@@QBE?AV?$_Vector_const_iterator@V?$_Vector_val@UWeaponInfo@@V?$allocator@UWeaponInfo@@@std@@@std@@@2@XZ PROC ; std::vector<WeaponInfo,std::allocator<WeaponInfo> >::end, COMDAT
; _this$ = ecx

; 796  : 		{	// return iterator for end of nonmutable sequence

  00000	55		 push	 ebp
  00001	8b ec		 mov	 ebp, esp

; 797  : 		return (const_iterator(this->_Mylast, this));

  00003	8b 49 04	 mov	 ecx, DWORD PTR [ecx+4]
  00006	8b 45 08	 mov	 eax, DWORD PTR ___$ReturnUdt$[ebp]
  00009	89 08		 mov	 DWORD PTR [eax], ecx

; 798  : 		}

  0000b	5d		 pop	 ebp
  0000c	c2 04 00	 ret	 4
?end@?$vector@UWeaponInfo@@V?$allocator@UWeaponInfo@@@std@@@std@@QBE?AV?$_Vector_const_iterator@V?$_Vector_val@UWeaponInfo@@V?$allocator@UWeaponInfo@@@std@@@std@@@2@XZ ENDP ; std::vector<WeaponInfo,std::allocator<WeaponInfo> >::end
_TEXT	ENDS
PUBLIC	?begin@?$vector@UForceInfo@@V?$allocator@UForceInfo@@@std@@@std@@QBE?AV?$_Vector_const_iterator@V?$_Vector_val@UForceInfo@@V?$allocator@UForceInfo@@@std@@@std@@@2@XZ ; std::vector<ForceInfo,std::allocator<ForceInfo> >::begin
; Function compile flags: /Ogsp
;	COMDAT ?begin@?$vector@UForceInfo@@V?$allocator@UForceInfo@@@std@@@std@@QBE?AV?$_Vector_const_iterator@V?$_Vector_val@UForceInfo@@V?$allocator@UForceInfo@@@std@@@std@@@2@XZ
_TEXT	SEGMENT
___$ReturnUdt$ = 8					; size = 4
?begin@?$vector@UForceInfo@@V?$allocator@UForceInfo@@@std@@@std@@QBE?AV?$_Vector_const_iterator@V?$_Vector_val@UForceInfo@@V?$allocator@UForceInfo@@@std@@@std@@@2@XZ PROC ; std::vector<ForceInfo,std::allocator<ForceInfo> >::begin, COMDAT
; _this$ = ecx

; 786  : 		{	// return iterator for beginning of nonmutable sequence

  00000	55		 push	 ebp
  00001	8b ec		 mov	 ebp, esp

; 787  : 		return (const_iterator(this->_Myfirst, this));

  00003	8b 09		 mov	 ecx, DWORD PTR [ecx]
  00005	8b 45 08	 mov	 eax, DWORD PTR ___$ReturnUdt$[ebp]
  00008	89 08		 mov	 DWORD PTR [eax], ecx

; 788  : 		}

  0000a	5d		 pop	 ebp
  0000b	c2 04 00	 ret	 4
?begin@?$vector@UForceInfo@@V?$allocator@UForceInfo@@@std@@@std@@QBE?AV?$_Vector_const_iterator@V?$_Vector_val@UForceInfo@@V?$allocator@UForceInfo@@@std@@@std@@@2@XZ ENDP ; std::vector<ForceInfo,std::allocator<ForceInfo> >::begin
_TEXT	ENDS
PUBLIC	?end@?$vector@UForceInfo@@V?$allocator@UForceInfo@@@std@@@std@@QBE?AV?$_Vector_const_iterator@V?$_Vector_val@UForceInfo@@V?$allocator@UForceInfo@@@std@@@std@@@2@XZ ; std::vector<ForceInfo,std::allocator<ForceInfo> >::end
; Function compile flags: /Ogsp
;	COMDAT ?end@?$vector@UForceInfo@@V?$allocator@UForceInfo@@@std@@@std@@QBE?AV?$_Vector_const_iterator@V?$_Vector_val@UForceInfo@@V?$allocator@UForceInfo@@@std@@@std@@@2@XZ
_TEXT	SEGMENT
___$ReturnUdt$ = 8					; size = 4
?end@?$vector@UForceInfo@@V?$allocator@UForceInfo@@@std@@@std@@QBE?AV?$_Vector_const_iterator@V?$_Vector_val@UForceInfo@@V?$allocator@UForceInfo@@@std@@@std@@@2@XZ PROC ; std::vector<ForceInfo,std::allocator<ForceInfo> >::end, COMDAT
; _this$ = ecx

; 796  : 		{	// return iterator for end of nonmutable sequence

  00000	55		 push	 ebp
  00001	8b ec		 mov	 ebp, esp

; 797  : 		return (const_iterator(this->_Mylast, this));

  00003	8b 49 04	 mov	 ecx, DWORD PTR [ecx+4]
  00006	8b 45 08	 mov	 eax, DWORD PTR ___$ReturnUdt$[ebp]
  00009	89 08		 mov	 DWORD PTR [eax], ecx

; 798  : 		}

  0000b	5d		 pop	 ebp
  0000c	c2 04 00	 ret	 4
?end@?$vector@UForceInfo@@V?$allocator@UForceInfo@@@std@@@std@@QBE?AV?$_Vector_const_iterator@V?$_Vector_val@UForceInfo@@V?$allocator@UForceInfo@@@std@@@std@@@2@XZ ENDP ; std::vector<ForceInfo,std::allocator<ForceInfo> >::end
_TEXT	ENDS
PUBLIC	??8?$_Vector_const_iterator@V?$_Vector_val@PAVioBaseChar@@V?$allocator@PAVioBaseChar@@@std@@@std@@@std@@QBE_NABV01@@Z ; std::_Vector_const_iterator<std::_Vector_val<ioBaseChar *,std::allocator<ioBaseChar *> > >::operator==
; Function compile flags: /Ogsp
;	COMDAT ??8?$_Vector_const_iterator@V?$_Vector_val@PAVioBaseChar@@V?$allocator@PAVioBaseChar@@@std@@@std@@@std@@QBE_NABV01@@Z
_TEXT	SEGMENT
__Right$ = 8						; size = 4
??8?$_Vector_const_iterator@V?$_Vector_val@PAVioBaseChar@@V?$allocator@PAVioBaseChar@@@std@@@std@@@std@@QBE_NABV01@@Z PROC ; std::_Vector_const_iterator<std::_Vector_val<ioBaseChar *,std::allocator<ioBaseChar *> > >::operator==, COMDAT
; _this$ = ecx

; 201  : 		{	// test for iterator equality

  00000	55		 push	 ebp
  00001	8b ec		 mov	 ebp, esp

; 202  : 		_Compat(_Right);
; 203  : 		return (this->_Ptr == _Right._Ptr);

  00003	8b 01		 mov	 eax, DWORD PTR [ecx]
  00005	8b 4d 08	 mov	 ecx, DWORD PTR __Right$[ebp]
  00008	2b 01		 sub	 eax, DWORD PTR [ecx]
  0000a	f7 d8		 neg	 eax
  0000c	1b c0		 sbb	 eax, eax
  0000e	40		 inc	 eax

; 204  : 		}

  0000f	5d		 pop	 ebp
  00010	c2 04 00	 ret	 4
??8?$_Vector_const_iterator@V?$_Vector_val@PAVioBaseChar@@V?$allocator@PAVioBaseChar@@@std@@@std@@@std@@QBE_NABV01@@Z ENDP ; std::_Vector_const_iterator<std::_Vector_val<ioBaseChar *,std::allocator<ioBaseChar *> > >::operator==
_TEXT	ENDS
PUBLIC	_this$GSCopy$
PUBLIC	__$ArrayPad$
PUBLIC	??$LoadString_e@$0BD@@ioINILoader@@QAEXAAY0BD@$$CBDAAY00$$CBDPADH@Z ; ioINILoader::LoadString_e<19>
EXTRN	__imp_?LoadStringA@ioINILoader@@QAEXPBD0PADH@Z:PROC
; Function compile flags: /Ogsp
; File d:\lost saga for developer\youtube\tutorial\source\src\io3dengine\ioiniloader.h
;	COMDAT ??$LoadString_e@$0BD@@ioINILoader@@QAEXAAY0BD@$$CBDAAY00$$CBDPADH@Z
_TEXT	SEGMENT
_this$GSCopy$ = -32					; size = 4
__k$ = -28						; size = 19
__$ArrayPad$ = -4					; size = 4
_k$ = 8							; size = 4
_d$ = 12						; size = 4
_b$ = 16						; size = 4
_i$ = 20						; size = 4
??$LoadString_e@$0BD@@ioINILoader@@QAEXAAY0BD@$$CBDAAY00$$CBDPADH@Z PROC ; ioINILoader::LoadString_e<19>, COMDAT
; _this$ = ecx

; 161  : 	{

  00000	55		 push	 ebp
  00001	8b ec		 mov	 ebp, esp
  00003	83 ec 20	 sub	 esp, 32			; 00000020H
  00006	a1 00 00 00 00	 mov	 eax, DWORD PTR ___security_cookie
  0000b	33 c5		 xor	 eax, ebp
  0000d	89 45 fc	 mov	 DWORD PTR __$ArrayPad$[ebp], eax
  00010	8b 45 08	 mov	 eax, DWORD PTR _k$[ebp]

; 162  : 		_ENCSTR(k, _k);

  00013	8a 10		 mov	 dl, BYTE PTR [eax]
  00015	56		 push	 esi
  00016	8b 75 0c	 mov	 esi, DWORD PTR _d$[ebp]
  00019	57		 push	 edi
  0001a	8b 7d 10	 mov	 edi, DWORD PTR _b$[ebp]
  0001d	89 4d e0	 mov	 DWORD PTR _this$GSCopy$[ebp], ecx
  00020	84 d2		 test	 dl, dl
  00022	0f 84 cf 01 00
	00		 je	 $LN96@LoadString
  00028	80 f2 ed	 xor	 dl, -19			; ffffffedH
  0002b	88 55 e4	 mov	 BYTE PTR __k$[ebp], dl
  0002e	8a 50 01	 mov	 dl, BYTE PTR [eax+1]
  00031	84 d2		 test	 dl, dl
  00033	0f 84 b8 01 00
	00		 je	 $LN95@LoadString
  00039	b1 ec		 mov	 cl, -20			; ffffffecH
  0003b	32 d1		 xor	 dl, cl
  0003d	88 55 e5	 mov	 BYTE PTR __k$[ebp+1], dl
  00040	8a 50 02	 mov	 dl, BYTE PTR [eax+2]
  00043	84 d2		 test	 dl, dl
  00045	0f 84 a0 01 00
	00		 je	 $LN94@LoadString
  0004b	80 f2 eb	 xor	 dl, -21			; ffffffebH
  0004e	88 55 e6	 mov	 BYTE PTR __k$[ebp+2], dl
  00051	8a 50 03	 mov	 dl, BYTE PTR [eax+3]
  00054	84 d2		 test	 dl, dl
  00056	0f 84 89 01 00
	00		 je	 $LN93@LoadString
  0005c	80 f2 ea	 xor	 dl, -22			; ffffffeaH
  0005f	88 55 e7	 mov	 BYTE PTR __k$[ebp+3], dl
  00062	8a 50 04	 mov	 dl, BYTE PTR [eax+4]
  00065	84 d2		 test	 dl, dl
  00067	0f 84 72 01 00
	00		 je	 $LN92@LoadString
  0006d	80 f2 ed	 xor	 dl, -19			; ffffffedH
  00070	88 55 e8	 mov	 BYTE PTR __k$[ebp+4], dl
  00073	8a 50 05	 mov	 dl, BYTE PTR [eax+5]
  00076	84 d2		 test	 dl, dl
  00078	0f 84 5c 01 00
	00		 je	 $LN91@LoadString
  0007e	32 d1		 xor	 dl, cl
  00080	88 55 e9	 mov	 BYTE PTR __k$[ebp+5], dl
  00083	8a 50 06	 mov	 dl, BYTE PTR [eax+6]
  00086	84 d2		 test	 dl, dl
  00088	0f 84 46 01 00
	00		 je	 $LN90@LoadString
  0008e	80 f2 eb	 xor	 dl, -21			; ffffffebH
  00091	88 55 ea	 mov	 BYTE PTR __k$[ebp+6], dl
  00094	8a 50 07	 mov	 dl, BYTE PTR [eax+7]
  00097	84 d2		 test	 dl, dl
  00099	0f 84 2f 01 00
	00		 je	 $LN89@LoadString
  0009f	80 f2 ea	 xor	 dl, -22			; ffffffeaH
  000a2	88 55 eb	 mov	 BYTE PTR __k$[ebp+7], dl
  000a5	8a 50 08	 mov	 dl, BYTE PTR [eax+8]
  000a8	84 d2		 test	 dl, dl
  000aa	0f 84 18 01 00
	00		 je	 $LN88@LoadString
  000b0	80 f2 ed	 xor	 dl, -19			; ffffffedH
  000b3	88 55 ec	 mov	 BYTE PTR __k$[ebp+8], dl
  000b6	8a 50 09	 mov	 dl, BYTE PTR [eax+9]
  000b9	84 d2		 test	 dl, dl
  000bb	0f 84 02 01 00
	00		 je	 $LN87@LoadString
  000c1	32 d1		 xor	 dl, cl
  000c3	88 55 ed	 mov	 BYTE PTR __k$[ebp+9], dl
  000c6	8a 50 0a	 mov	 dl, BYTE PTR [eax+10]
  000c9	84 d2		 test	 dl, dl
  000cb	0f 84 ec 00 00
	00		 je	 $LN86@LoadString
  000d1	80 f2 eb	 xor	 dl, -21			; ffffffebH
  000d4	88 55 ee	 mov	 BYTE PTR __k$[ebp+10], dl
  000d7	8a 50 0b	 mov	 dl, BYTE PTR [eax+11]
  000da	84 d2		 test	 dl, dl
  000dc	0f 84 d5 00 00
	00		 je	 $LN85@LoadString
  000e2	80 f2 ea	 xor	 dl, -22			; ffffffeaH
  000e5	88 55 ef	 mov	 BYTE PTR __k$[ebp+11], dl
  000e8	8a 50 0c	 mov	 dl, BYTE PTR [eax+12]
  000eb	84 d2		 test	 dl, dl
  000ed	0f 84 be 00 00
	00		 je	 $LN84@LoadString
  000f3	80 f2 ed	 xor	 dl, -19			; ffffffedH
  000f6	88 55 f0	 mov	 BYTE PTR __k$[ebp+12], dl
  000f9	8a 50 0d	 mov	 dl, BYTE PTR [eax+13]
  000fc	84 d2		 test	 dl, dl
  000fe	0f 84 a8 00 00
	00		 je	 $LN83@LoadString
  00104	32 d1		 xor	 dl, cl
  00106	88 55 f1	 mov	 BYTE PTR __k$[ebp+13], dl
  00109	8a 50 0e	 mov	 dl, BYTE PTR [eax+14]
  0010c	84 d2		 test	 dl, dl
  0010e	0f 84 92 00 00
	00		 je	 $LN82@LoadString
  00114	80 f2 eb	 xor	 dl, -21			; ffffffebH
  00117	88 55 f2	 mov	 BYTE PTR __k$[ebp+14], dl
  0011a	8a 50 0f	 mov	 dl, BYTE PTR [eax+15]
  0011d	84 d2		 test	 dl, dl
  0011f	74 7f		 je	 SHORT $LN81@LoadString
  00121	80 f2 ea	 xor	 dl, -22			; ffffffeaH
  00124	88 55 f3	 mov	 BYTE PTR __k$[ebp+15], dl
  00127	8a 50 10	 mov	 dl, BYTE PTR [eax+16]
  0012a	84 d2		 test	 dl, dl
  0012c	74 6c		 je	 SHORT $LN80@LoadString
  0012e	80 f2 ed	 xor	 dl, -19			; ffffffedH
  00131	88 55 f4	 mov	 BYTE PTR __k$[ebp+16], dl
  00134	8a 50 11	 mov	 dl, BYTE PTR [eax+17]
  00137	84 d2		 test	 dl, dl
  00139	74 5a		 je	 SHORT $LN79@LoadString
  0013b	32 d1		 xor	 dl, cl
  0013d	80 78 12 00	 cmp	 BYTE PTR [eax+18], 0
  00141	88 55 f5	 mov	 BYTE PTR __k$[ebp+17], dl
  00144	0f 84 b1 00 00
	00		 je	 $LN111@LoadString
  0014a	8a 50 13	 mov	 dl, BYTE PTR [eax+19]
  0014d	84 d2		 test	 dl, dl
  0014f	74 3e		 je	 SHORT $LN77@LoadString
  00151	80 f2 ea	 xor	 dl, -22			; ffffffeaH
  00154	88 55 f7	 mov	 BYTE PTR __k$[ebp+19], dl
  00157	8a 50 14	 mov	 dl, BYTE PTR [eax+20]
  0015a	84 d2		 test	 dl, dl
  0015c	74 2b		 je	 SHORT $LN76@LoadString
  0015e	80 f2 ed	 xor	 dl, -19			; ffffffedH
  00161	88 55 f8	 mov	 BYTE PTR __k$[ebp+20], dl
  00164	8a 50 15	 mov	 dl, BYTE PTR [eax+21]
  00167	84 d2		 test	 dl, dl
  00169	74 19		 je	 SHORT $LN75@LoadString
  0016b	8a 40 16	 mov	 al, BYTE PTR [eax+22]
  0016e	32 d1		 xor	 dl, cl
  00170	88 55 f9	 mov	 BYTE PTR __k$[ebp+21], dl
  00173	84 c0		 test	 al, al
  00175	74 07		 je	 SHORT $LN74@LoadString
  00177	34 eb		 xor	 al, -21			; ffffffebH
  00179	88 45 fa	 mov	 BYTE PTR __k$[ebp+22], al
  0017c	eb 7d		 jmp	 SHORT $LN111@LoadString
$LN74@LoadString:
  0017e	c6 45 fa eb	 mov	 BYTE PTR __k$[ebp+22], -21 ; ffffffebH
  00182	eb 77		 jmp	 SHORT $LN111@LoadString
$LN75@LoadString:
  00184	88 4d f9	 mov	 BYTE PTR __k$[ebp+21], cl
  00187	eb 72		 jmp	 SHORT $LN111@LoadString
$LN76@LoadString:
  00189	c6 45 f8 ed	 mov	 BYTE PTR __k$[ebp+20], -19 ; ffffffedH
  0018d	eb 6c		 jmp	 SHORT $LN111@LoadString
$LN77@LoadString:
  0018f	c6 45 f7 ea	 mov	 BYTE PTR __k$[ebp+19], -22 ; ffffffeaH
  00193	eb 66		 jmp	 SHORT $LN111@LoadString
$LN79@LoadString:
  00195	88 4d f5	 mov	 BYTE PTR __k$[ebp+17], cl
  00198	eb 61		 jmp	 SHORT $LN111@LoadString
$LN80@LoadString:
  0019a	c6 45 f4 ed	 mov	 BYTE PTR __k$[ebp+16], -19 ; ffffffedH
  0019e	eb 5b		 jmp	 SHORT $LN111@LoadString
$LN81@LoadString:
  001a0	c6 45 f3 ea	 mov	 BYTE PTR __k$[ebp+15], -22 ; ffffffeaH
  001a4	eb 55		 jmp	 SHORT $LN111@LoadString
$LN82@LoadString:
  001a6	c6 45 f2 eb	 mov	 BYTE PTR __k$[ebp+14], -21 ; ffffffebH
  001aa	eb 4f		 jmp	 SHORT $LN111@LoadString
$LN83@LoadString:
  001ac	88 4d f1	 mov	 BYTE PTR __k$[ebp+13], cl
  001af	eb 4a		 jmp	 SHORT $LN111@LoadString
$LN84@LoadString:
  001b1	c6 45 f0 ed	 mov	 BYTE PTR __k$[ebp+12], -19 ; ffffffedH
  001b5	eb 44		 jmp	 SHORT $LN111@LoadString
$LN85@LoadString:
  001b7	c6 45 ef ea	 mov	 BYTE PTR __k$[ebp+11], -22 ; ffffffeaH
  001bb	eb 3e		 jmp	 SHORT $LN111@LoadString
$LN86@LoadString:
  001bd	c6 45 ee eb	 mov	 BYTE PTR __k$[ebp+10], -21 ; ffffffebH
  001c1	eb 38		 jmp	 SHORT $LN111@LoadString
$LN87@LoadString:
  001c3	88 4d ed	 mov	 BYTE PTR __k$[ebp+9], cl
  001c6	eb 33		 jmp	 SHORT $LN111@LoadString
$LN88@LoadString:
  001c8	c6 45 ec ed	 mov	 BYTE PTR __k$[ebp+8], -19 ; ffffffedH
  001cc	eb 2d		 jmp	 SHORT $LN111@LoadString
$LN89@LoadString:
  001ce	c6 45 eb ea	 mov	 BYTE PTR __k$[ebp+7], -22 ; ffffffeaH
  001d2	eb 27		 jmp	 SHORT $LN111@LoadString
$LN90@LoadString:
  001d4	c6 45 ea eb	 mov	 BYTE PTR __k$[ebp+6], -21 ; ffffffebH
  001d8	eb 21		 jmp	 SHORT $LN111@LoadString
$LN91@LoadString:
  001da	88 4d e9	 mov	 BYTE PTR __k$[ebp+5], cl
  001dd	eb 1c		 jmp	 SHORT $LN111@LoadString
$LN92@LoadString:
  001df	c6 45 e8 ed	 mov	 BYTE PTR __k$[ebp+4], -19 ; ffffffedH
  001e3	eb 16		 jmp	 SHORT $LN111@LoadString
$LN93@LoadString:
  001e5	c6 45 e7 ea	 mov	 BYTE PTR __k$[ebp+3], -22 ; ffffffeaH
  001e9	eb 10		 jmp	 SHORT $LN111@LoadString
$LN94@LoadString:
  001eb	c6 45 e6 eb	 mov	 BYTE PTR __k$[ebp+2], -21 ; ffffffebH
  001ef	eb 0a		 jmp	 SHORT $LN111@LoadString
$LN95@LoadString:
  001f1	c6 45 e5 ec	 mov	 BYTE PTR __k$[ebp+1], -20 ; ffffffecH
  001f5	eb 04		 jmp	 SHORT $LN111@LoadString
$LN96@LoadString:
  001f7	c6 45 e4 ed	 mov	 BYTE PTR __k$[ebp], -19	; ffffffedH
$LN111@LoadString:
  001fb	6a 04		 push	 4
  001fd	8d 45 e4	 lea	 eax, DWORD PTR __k$[ebp]
  00200	c6 45 f6 00	 mov	 BYTE PTR __k$[ebp+18], 0
  00204	5a		 pop	 edx
$LL104@LoadString:
  00205	81 30 ed ec eb
	ea		 xor	 DWORD PTR [eax], -353637139 ; eaebecedH
  0020b	83 c0 04	 add	 eax, 4
  0020e	4a		 dec	 edx
  0020f	75 f4		 jne	 SHORT $LL104@LoadString
  00211	6a 10		 push	 16			; 00000010H
  00213	58		 pop	 eax
$LL101@LoadString:
  00214	8b c8		 mov	 ecx, eax
  00216	81 e1 03 00 00
	80		 and	 ecx, -2147483645	; 80000003H
  0021c	79 05		 jns	 SHORT $LN112@LoadString
  0021e	49		 dec	 ecx
  0021f	83 c9 fc	 or	 ecx, -4			; fffffffcH
  00222	41		 inc	 ecx
$LN112@LoadString:
  00223	b2 ed		 mov	 dl, -19			; ffffffedH
  00225	2a d1		 sub	 dl, cl
  00227	30 54 05 e4	 xor	 BYTE PTR __k$[ebp+eax], dl
  0022b	40		 inc	 eax
  0022c	83 f8 12	 cmp	 eax, 18			; 00000012H
  0022f	7c e3		 jl	 SHORT $LL101@LoadString

; 163  : 		LoadString(_k, d, b, i);

  00231	ff 75 14	 push	 DWORD PTR _i$[ebp]
  00234	8b 4d e0	 mov	 ecx, DWORD PTR _this$GSCopy$[ebp]
  00237	57		 push	 edi
  00238	56		 push	 esi
  00239	8d 45 e4	 lea	 eax, DWORD PTR __k$[ebp]
  0023c	50		 push	 eax
  0023d	ff 15 00 00 00
	00		 call	 DWORD PTR __imp_?LoadStringA@ioINILoader@@QAEXPBD0PADH@Z

; 164  : 	}

  00243	8b 4d fc	 mov	 ecx, DWORD PTR __$ArrayPad$[ebp]
  00246	5f		 pop	 edi
  00247	33 cd		 xor	 ecx, ebp
  00249	5e		 pop	 esi
  0024a	e8 00 00 00 00	 call	 @__security_check_cookie@4
  0024f	c9		 leave
  00250	c2 10 00	 ret	 16			; 00000010H
??$LoadString_e@$0BD@@ioINILoader@@QAEXAAY0BD@$$CBDAAY00$$CBDPADH@Z ENDP ; ioINILoader::LoadString_e<19>
_TEXT	ENDS
PUBLIC	_this$GSCopy$
PUBLIC	__$ArrayPad$
PUBLIC	??$LoadString_e@$0BF@@ioINILoader@@QAEXAAY0BF@$$CBDAAY00$$CBDPADH@Z ; ioINILoader::LoadString_e<21>
; Function compile flags: /Ogsp
;	COMDAT ??$LoadString_e@$0BF@@ioINILoader@@QAEXAAY0BF@$$CBDAAY00$$CBDPADH@Z
_TEXT	SEGMENT
_this$GSCopy$ = -36					; size = 4
__k$ = -32						; size = 21
__$ArrayPad$ = -4					; size = 4
_k$ = 8							; size = 4
_d$ = 12						; size = 4
_b$ = 16						; size = 4
_i$ = 20						; size = 4
??$LoadString_e@$0BF@@ioINILoader@@QAEXAAY0BF@$$CBDAAY00$$CBDPADH@Z PROC ; ioINILoader::LoadString_e<21>, COMDAT
; _this$ = ecx

; 161  : 	{

  00000	55		 push	 ebp
  00001	8b ec		 mov	 ebp, esp
  00003	83 ec 24	 sub	 esp, 36			; 00000024H
  00006	a1 00 00 00 00	 mov	 eax, DWORD PTR ___security_cookie
  0000b	33 c5		 xor	 eax, ebp
  0000d	89 45 fc	 mov	 DWORD PTR __$ArrayPad$[ebp], eax
  00010	8b 45 08	 mov	 eax, DWORD PTR _k$[ebp]

; 162  : 		_ENCSTR(k, _k);

  00013	8a 10		 mov	 dl, BYTE PTR [eax]
  00015	53		 push	 ebx
  00016	56		 push	 esi
  00017	8b 75 0c	 mov	 esi, DWORD PTR _d$[ebp]
  0001a	57		 push	 edi
  0001b	8b 7d 10	 mov	 edi, DWORD PTR _b$[ebp]
  0001e	89 4d dc	 mov	 DWORD PTR _this$GSCopy$[ebp], ecx
  00021	84 d2		 test	 dl, dl
  00023	0f 84 f7 01 00
	00		 je	 $LN96@LoadString@2
  00029	80 f2 ed	 xor	 dl, -19			; ffffffedH
  0002c	88 55 e0	 mov	 BYTE PTR __k$[ebp], dl
  0002f	8a 50 01	 mov	 dl, BYTE PTR [eax+1]
  00032	84 d2		 test	 dl, dl
  00034	0f 84 e0 01 00
	00		 je	 $LN95@LoadString@2
  0003a	b1 ec		 mov	 cl, -20			; ffffffecH
  0003c	32 d1		 xor	 dl, cl
  0003e	88 55 e1	 mov	 BYTE PTR __k$[ebp+1], dl
  00041	8a 50 02	 mov	 dl, BYTE PTR [eax+2]
  00044	84 d2		 test	 dl, dl
  00046	0f 84 c8 01 00
	00		 je	 $LN94@LoadString@2
  0004c	b3 eb		 mov	 bl, -21			; ffffffebH
  0004e	32 d3		 xor	 dl, bl
  00050	88 55 e2	 mov	 BYTE PTR __k$[ebp+2], dl
  00053	8a 50 03	 mov	 dl, BYTE PTR [eax+3]
  00056	84 d2		 test	 dl, dl
  00058	0f 84 b0 01 00
	00		 je	 $LN93@LoadString@2
  0005e	80 f2 ea	 xor	 dl, -22			; ffffffeaH
  00061	88 55 e3	 mov	 BYTE PTR __k$[ebp+3], dl
  00064	8a 50 04	 mov	 dl, BYTE PTR [eax+4]
  00067	84 d2		 test	 dl, dl
  00069	0f 84 99 01 00
	00		 je	 $LN92@LoadString@2
  0006f	80 f2 ed	 xor	 dl, -19			; ffffffedH
  00072	88 55 e4	 mov	 BYTE PTR __k$[ebp+4], dl
  00075	8a 50 05	 mov	 dl, BYTE PTR [eax+5]
  00078	84 d2		 test	 dl, dl
  0007a	0f 84 83 01 00
	00		 je	 $LN91@LoadString@2
  00080	32 d1		 xor	 dl, cl
  00082	88 55 e5	 mov	 BYTE PTR __k$[ebp+5], dl
  00085	8a 50 06	 mov	 dl, BYTE PTR [eax+6]
  00088	84 d2		 test	 dl, dl
  0008a	0f 84 6e 01 00
	00		 je	 $LN90@LoadString@2
  00090	32 d3		 xor	 dl, bl
  00092	88 55 e6	 mov	 BYTE PTR __k$[ebp+6], dl
  00095	8a 50 07	 mov	 dl, BYTE PTR [eax+7]
  00098	84 d2		 test	 dl, dl
  0009a	0f 84 58 01 00
	00		 je	 $LN89@LoadString@2
  000a0	80 f2 ea	 xor	 dl, -22			; ffffffeaH
  000a3	88 55 e7	 mov	 BYTE PTR __k$[ebp+7], dl
  000a6	8a 50 08	 mov	 dl, BYTE PTR [eax+8]
  000a9	84 d2		 test	 dl, dl
  000ab	0f 84 41 01 00
	00		 je	 $LN88@LoadString@2
  000b1	80 f2 ed	 xor	 dl, -19			; ffffffedH
  000b4	88 55 e8	 mov	 BYTE PTR __k$[ebp+8], dl
  000b7	8a 50 09	 mov	 dl, BYTE PTR [eax+9]
  000ba	84 d2		 test	 dl, dl
  000bc	0f 84 2b 01 00
	00		 je	 $LN87@LoadString@2
  000c2	32 d1		 xor	 dl, cl
  000c4	88 55 e9	 mov	 BYTE PTR __k$[ebp+9], dl
  000c7	8a 50 0a	 mov	 dl, BYTE PTR [eax+10]
  000ca	84 d2		 test	 dl, dl
  000cc	0f 84 16 01 00
	00		 je	 $LN86@LoadString@2
  000d2	32 d3		 xor	 dl, bl
  000d4	88 55 ea	 mov	 BYTE PTR __k$[ebp+10], dl
  000d7	8a 50 0b	 mov	 dl, BYTE PTR [eax+11]
  000da	84 d2		 test	 dl, dl
  000dc	0f 84 00 01 00
	00		 je	 $LN85@LoadString@2
  000e2	80 f2 ea	 xor	 dl, -22			; ffffffeaH
  000e5	88 55 eb	 mov	 BYTE PTR __k$[ebp+11], dl
  000e8	8a 50 0c	 mov	 dl, BYTE PTR [eax+12]
  000eb	84 d2		 test	 dl, dl
  000ed	0f 84 e9 00 00
	00		 je	 $LN84@LoadString@2
  000f3	80 f2 ed	 xor	 dl, -19			; ffffffedH
  000f6	88 55 ec	 mov	 BYTE PTR __k$[ebp+12], dl
  000f9	8a 50 0d	 mov	 dl, BYTE PTR [eax+13]
  000fc	84 d2		 test	 dl, dl
  000fe	0f 84 d3 00 00
	00		 je	 $LN83@LoadString@2
  00104	32 d1		 xor	 dl, cl
  00106	88 55 ed	 mov	 BYTE PTR __k$[ebp+13], dl
  00109	8a 50 0e	 mov	 dl, BYTE PTR [eax+14]
  0010c	84 d2		 test	 dl, dl
  0010e	0f 84 be 00 00
	00		 je	 $LN82@LoadString@2
  00114	32 d3		 xor	 dl, bl
  00116	88 55 ee	 mov	 BYTE PTR __k$[ebp+14], dl
  00119	8a 50 0f	 mov	 dl, BYTE PTR [eax+15]
  0011c	84 d2		 test	 dl, dl
  0011e	0f 84 a8 00 00
	00		 je	 $LN81@LoadString@2
  00124	80 f2 ea	 xor	 dl, -22			; ffffffeaH
  00127	88 55 ef	 mov	 BYTE PTR __k$[ebp+15], dl
  0012a	8a 50 10	 mov	 dl, BYTE PTR [eax+16]
  0012d	84 d2		 test	 dl, dl
  0012f	0f 84 91 00 00
	00		 je	 $LN80@LoadString@2
  00135	80 f2 ed	 xor	 dl, -19			; ffffffedH
  00138	88 55 f0	 mov	 BYTE PTR __k$[ebp+16], dl
  0013b	8a 50 11	 mov	 dl, BYTE PTR [eax+17]
  0013e	84 d2		 test	 dl, dl
  00140	74 7f		 je	 SHORT $LN79@LoadString@2
  00142	32 d1		 xor	 dl, cl
  00144	88 55 f1	 mov	 BYTE PTR __k$[ebp+17], dl
  00147	8a 50 12	 mov	 dl, BYTE PTR [eax+18]
  0014a	84 d2		 test	 dl, dl
  0014c	74 6e		 je	 SHORT $LN78@LoadString@2
  0014e	32 d3		 xor	 dl, bl
  00150	88 55 f2	 mov	 BYTE PTR __k$[ebp+18], dl
  00153	8a 50 13	 mov	 dl, BYTE PTR [eax+19]
  00156	84 d2		 test	 dl, dl
  00158	74 5c		 je	 SHORT $LN77@LoadString@2
  0015a	80 f2 ea	 xor	 dl, -22			; ffffffeaH
  0015d	80 78 14 00	 cmp	 BYTE PTR [eax+20], 0
  00161	88 55 f3	 mov	 BYTE PTR __k$[ebp+19], dl
  00164	0f 84 ba 00 00
	00		 je	 $LN111@LoadString@2
  0016a	8a 50 15	 mov	 dl, BYTE PTR [eax+21]
  0016d	84 d2		 test	 dl, dl
  0016f	74 40		 je	 SHORT $LN75@LoadString@2
  00171	32 d1		 xor	 dl, cl
  00173	88 55 f5	 mov	 BYTE PTR __k$[ebp+21], dl
  00176	8a 50 16	 mov	 dl, BYTE PTR [eax+22]
  00179	84 d2		 test	 dl, dl
  0017b	74 2f		 je	 SHORT $LN74@LoadString@2
  0017d	32 d3		 xor	 dl, bl
  0017f	88 55 f6	 mov	 BYTE PTR __k$[ebp+22], dl
  00182	8a 50 17	 mov	 dl, BYTE PTR [eax+23]
  00185	84 d2		 test	 dl, dl
  00187	74 1d		 je	 SHORT $LN73@LoadString@2
  00189	8a 40 18	 mov	 al, BYTE PTR [eax+24]
  0018c	80 f2 ea	 xor	 dl, -22			; ffffffeaH
  0018f	88 55 f7	 mov	 BYTE PTR __k$[ebp+23], dl
  00192	84 c0		 test	 al, al
  00194	74 0a		 je	 SHORT $LN72@LoadString@2
  00196	34 ed		 xor	 al, -19			; ffffffedH
  00198	88 45 f8	 mov	 BYTE PTR __k$[ebp+24], al
  0019b	e9 84 00 00 00	 jmp	 $LN111@LoadString@2
$LN72@LoadString@2:
  001a0	c6 45 f8 ed	 mov	 BYTE PTR __k$[ebp+24], -19 ; ffffffedH
  001a4	eb 7e		 jmp	 SHORT $LN111@LoadString@2
$LN73@LoadString@2:
  001a6	c6 45 f7 ea	 mov	 BYTE PTR __k$[ebp+23], -22 ; ffffffeaH
  001aa	eb 78		 jmp	 SHORT $LN111@LoadString@2
$LN74@LoadString@2:
  001ac	88 5d f6	 mov	 BYTE PTR __k$[ebp+22], bl
  001af	eb 73		 jmp	 SHORT $LN111@LoadString@2
$LN75@LoadString@2:
  001b1	88 4d f5	 mov	 BYTE PTR __k$[ebp+21], cl
  001b4	eb 6e		 jmp	 SHORT $LN111@LoadString@2
$LN77@LoadString@2:
  001b6	c6 45 f3 ea	 mov	 BYTE PTR __k$[ebp+19], -22 ; ffffffeaH
  001ba	eb 68		 jmp	 SHORT $LN111@LoadString@2
$LN78@LoadString@2:
  001bc	88 5d f2	 mov	 BYTE PTR __k$[ebp+18], bl
  001bf	eb 63		 jmp	 SHORT $LN111@LoadString@2
$LN79@LoadString@2:
  001c1	88 4d f1	 mov	 BYTE PTR __k$[ebp+17], cl
  001c4	eb 5e		 jmp	 SHORT $LN111@LoadString@2
$LN80@LoadString@2:
  001c6	c6 45 f0 ed	 mov	 BYTE PTR __k$[ebp+16], -19 ; ffffffedH
  001ca	eb 58		 jmp	 SHORT $LN111@LoadString@2
$LN81@LoadString@2:
  001cc	c6 45 ef ea	 mov	 BYTE PTR __k$[ebp+15], -22 ; ffffffeaH
  001d0	eb 52		 jmp	 SHORT $LN111@LoadString@2
$LN82@LoadString@2:
  001d2	88 5d ee	 mov	 BYTE PTR __k$[ebp+14], bl
  001d5	eb 4d		 jmp	 SHORT $LN111@LoadString@2
$LN83@LoadString@2:
  001d7	88 4d ed	 mov	 BYTE PTR __k$[ebp+13], cl
  001da	eb 48		 jmp	 SHORT $LN111@LoadString@2
$LN84@LoadString@2:
  001dc	c6 45 ec ed	 mov	 BYTE PTR __k$[ebp+12], -19 ; ffffffedH
  001e0	eb 42		 jmp	 SHORT $LN111@LoadString@2
$LN85@LoadString@2:
  001e2	c6 45 eb ea	 mov	 BYTE PTR __k$[ebp+11], -22 ; ffffffeaH
  001e6	eb 3c		 jmp	 SHORT $LN111@LoadString@2
$LN86@LoadString@2:
  001e8	88 5d ea	 mov	 BYTE PTR __k$[ebp+10], bl
  001eb	eb 37		 jmp	 SHORT $LN111@LoadString@2
$LN87@LoadString@2:
  001ed	88 4d e9	 mov	 BYTE PTR __k$[ebp+9], cl
  001f0	eb 32		 jmp	 SHORT $LN111@LoadString@2
$LN88@LoadString@2:
  001f2	c6 45 e8 ed	 mov	 BYTE PTR __k$[ebp+8], -19 ; ffffffedH
  001f6	eb 2c		 jmp	 SHORT $LN111@LoadString@2
$LN89@LoadString@2:
  001f8	c6 45 e7 ea	 mov	 BYTE PTR __k$[ebp+7], -22 ; ffffffeaH
  001fc	eb 26		 jmp	 SHORT $LN111@LoadString@2
$LN90@LoadString@2:
  001fe	88 5d e6	 mov	 BYTE PTR __k$[ebp+6], bl
  00201	eb 21		 jmp	 SHORT $LN111@LoadString@2
$LN91@LoadString@2:
  00203	88 4d e5	 mov	 BYTE PTR __k$[ebp+5], cl
  00206	eb 1c		 jmp	 SHORT $LN111@LoadString@2
$LN92@LoadString@2:
  00208	c6 45 e4 ed	 mov	 BYTE PTR __k$[ebp+4], -19 ; ffffffedH
  0020c	eb 16		 jmp	 SHORT $LN111@LoadString@2
$LN93@LoadString@2:
  0020e	c6 45 e3 ea	 mov	 BYTE PTR __k$[ebp+3], -22 ; ffffffeaH
  00212	eb 10		 jmp	 SHORT $LN111@LoadString@2
$LN94@LoadString@2:
  00214	c6 45 e2 eb	 mov	 BYTE PTR __k$[ebp+2], -21 ; ffffffebH
  00218	eb 0a		 jmp	 SHORT $LN111@LoadString@2
$LN95@LoadString@2:
  0021a	c6 45 e1 ec	 mov	 BYTE PTR __k$[ebp+1], -20 ; ffffffecH
  0021e	eb 04		 jmp	 SHORT $LN111@LoadString@2
$LN96@LoadString@2:
  00220	c6 45 e0 ed	 mov	 BYTE PTR __k$[ebp], -19	; ffffffedH
$LN111@LoadString@2:
  00224	6a 05		 push	 5
  00226	8d 45 e0	 lea	 eax, DWORD PTR __k$[ebp]
  00229	c6 45 f4 00	 mov	 BYTE PTR __k$[ebp+20], 0
  0022d	5a		 pop	 edx
$LL104@LoadString@2:
  0022e	81 30 ed ec eb
	ea		 xor	 DWORD PTR [eax], -353637139 ; eaebecedH
  00234	83 c0 04	 add	 eax, 4
  00237	4a		 dec	 edx
  00238	75 f4		 jne	 SHORT $LL104@LoadString@2

; 163  : 		LoadString(_k, d, b, i);

  0023a	ff 75 14	 push	 DWORD PTR _i$[ebp]
  0023d	8b 4d dc	 mov	 ecx, DWORD PTR _this$GSCopy$[ebp]
  00240	57		 push	 edi
  00241	56		 push	 esi
  00242	8d 45 e0	 lea	 eax, DWORD PTR __k$[ebp]
  00245	50		 push	 eax
  00246	ff 15 00 00 00
	00		 call	 DWORD PTR __imp_?LoadStringA@ioINILoader@@QAEXPBD0PADH@Z

; 164  : 	}

  0024c	8b 4d fc	 mov	 ecx, DWORD PTR __$ArrayPad$[ebp]
  0024f	5f		 pop	 edi
  00250	5e		 pop	 esi
  00251	33 cd		 xor	 ecx, ebp
  00253	5b		 pop	 ebx
  00254	e8 00 00 00 00	 call	 @__security_check_cookie@4
  00259	c9		 leave
  0025a	c2 10 00	 ret	 16			; 00000010H
??$LoadString_e@$0BF@@ioINILoader@@QAEXAAY0BF@$$CBDAAY00$$CBDPADH@Z ENDP ; ioINILoader::LoadString_e<21>
_TEXT	ENDS
PUBLIC	_this$GSCopy$
PUBLIC	__$ArrayPad$
PUBLIC	??$LoadString_e@$0BC@@ioINILoader@@QAEXAAY0BC@$$CBDAAY00$$CBDPADH@Z ; ioINILoader::LoadString_e<18>
; Function compile flags: /Ogsp
;	COMDAT ??$LoadString_e@$0BC@@ioINILoader@@QAEXAAY0BC@$$CBDAAY00$$CBDPADH@Z
_TEXT	SEGMENT
_this$GSCopy$ = -32					; size = 4
__k$ = -28						; size = 18
__$ArrayPad$ = -4					; size = 4
_k$ = 8							; size = 4
_d$ = 12						; size = 4
_b$ = 16						; size = 4
_i$ = 20						; size = 4
??$LoadString_e@$0BC@@ioINILoader@@QAEXAAY0BC@$$CBDAAY00$$CBDPADH@Z PROC ; ioINILoader::LoadString_e<18>, COMDAT
; _this$ = ecx

; 161  : 	{

  00000	55		 push	 ebp
  00001	8b ec		 mov	 ebp, esp
  00003	83 ec 20	 sub	 esp, 32			; 00000020H
  00006	a1 00 00 00 00	 mov	 eax, DWORD PTR ___security_cookie
  0000b	33 c5		 xor	 eax, ebp
  0000d	89 45 fc	 mov	 DWORD PTR __$ArrayPad$[ebp], eax
  00010	8b 45 08	 mov	 eax, DWORD PTR _k$[ebp]

; 162  : 		_ENCSTR(k, _k);

  00013	8a 10		 mov	 dl, BYTE PTR [eax]
  00015	56		 push	 esi
  00016	8b 75 0c	 mov	 esi, DWORD PTR _d$[ebp]
  00019	57		 push	 edi
  0001a	8b 7d 10	 mov	 edi, DWORD PTR _b$[ebp]
  0001d	89 4d e0	 mov	 DWORD PTR _this$GSCopy$[ebp], ecx
  00020	84 d2		 test	 dl, dl
  00022	0f 84 be 01 00
	00		 je	 $LN96@LoadString@3
  00028	80 f2 ed	 xor	 dl, -19			; ffffffedH
  0002b	88 55 e4	 mov	 BYTE PTR __k$[ebp], dl
  0002e	8a 50 01	 mov	 dl, BYTE PTR [eax+1]
  00031	84 d2		 test	 dl, dl
  00033	0f 84 a7 01 00
	00		 je	 $LN95@LoadString@3
  00039	80 f2 ec	 xor	 dl, -20			; ffffffecH
  0003c	88 55 e5	 mov	 BYTE PTR __k$[ebp+1], dl
  0003f	8a 50 02	 mov	 dl, BYTE PTR [eax+2]
  00042	84 d2		 test	 dl, dl
  00044	0f 84 90 01 00
	00		 je	 $LN94@LoadString@3
  0004a	b1 eb		 mov	 cl, -21			; ffffffebH
  0004c	32 d1		 xor	 dl, cl
  0004e	88 55 e6	 mov	 BYTE PTR __k$[ebp+2], dl
  00051	8a 50 03	 mov	 dl, BYTE PTR [eax+3]
  00054	84 d2		 test	 dl, dl
  00056	0f 84 78 01 00
	00		 je	 $LN93@LoadString@3
  0005c	80 f2 ea	 xor	 dl, -22			; ffffffeaH
  0005f	88 55 e7	 mov	 BYTE PTR __k$[ebp+3], dl
  00062	8a 50 04	 mov	 dl, BYTE PTR [eax+4]
  00065	84 d2		 test	 dl, dl
  00067	0f 84 61 01 00
	00		 je	 $LN92@LoadString@3
  0006d	80 f2 ed	 xor	 dl, -19			; ffffffedH
  00070	88 55 e8	 mov	 BYTE PTR __k$[ebp+4], dl
  00073	8a 50 05	 mov	 dl, BYTE PTR [eax+5]
  00076	84 d2		 test	 dl, dl
  00078	0f 84 4a 01 00
	00		 je	 $LN91@LoadString@3
  0007e	80 f2 ec	 xor	 dl, -20			; ffffffecH
  00081	88 55 e9	 mov	 BYTE PTR __k$[ebp+5], dl
  00084	8a 50 06	 mov	 dl, BYTE PTR [eax+6]
  00087	84 d2		 test	 dl, dl
  00089	0f 84 34 01 00
	00		 je	 $LN90@LoadString@3
  0008f	32 d1		 xor	 dl, cl
  00091	88 55 ea	 mov	 BYTE PTR __k$[ebp+6], dl
  00094	8a 50 07	 mov	 dl, BYTE PTR [eax+7]
  00097	84 d2		 test	 dl, dl
  00099	0f 84 1e 01 00
	00		 je	 $LN89@LoadString@3
  0009f	80 f2 ea	 xor	 dl, -22			; ffffffeaH
  000a2	88 55 eb	 mov	 BYTE PTR __k$[ebp+7], dl
  000a5	8a 50 08	 mov	 dl, BYTE PTR [eax+8]
  000a8	84 d2		 test	 dl, dl
  000aa	0f 84 07 01 00
	00		 je	 $LN88@LoadString@3
  000b0	80 f2 ed	 xor	 dl, -19			; ffffffedH
  000b3	88 55 ec	 mov	 BYTE PTR __k$[ebp+8], dl
  000b6	8a 50 09	 mov	 dl, BYTE PTR [eax+9]
  000b9	84 d2		 test	 dl, dl
  000bb	0f 84 f0 00 00
	00		 je	 $LN87@LoadString@3
  000c1	80 f2 ec	 xor	 dl, -20			; ffffffecH
  000c4	88 55 ed	 mov	 BYTE PTR __k$[ebp+9], dl
  000c7	8a 50 0a	 mov	 dl, BYTE PTR [eax+10]
  000ca	84 d2		 test	 dl, dl
  000cc	0f 84 da 00 00
	00		 je	 $LN86@LoadString@3
  000d2	32 d1		 xor	 dl, cl
  000d4	88 55 ee	 mov	 BYTE PTR __k$[ebp+10], dl
  000d7	8a 50 0b	 mov	 dl, BYTE PTR [eax+11]
  000da	84 d2		 test	 dl, dl
  000dc	0f 84 c4 00 00
	00		 je	 $LN85@LoadString@3
  000e2	80 f2 ea	 xor	 dl, -22			; ffffffeaH
  000e5	88 55 ef	 mov	 BYTE PTR __k$[ebp+11], dl
  000e8	8a 50 0c	 mov	 dl, BYTE PTR [eax+12]
  000eb	84 d2		 test	 dl, dl
  000ed	0f 84 ad 00 00
	00		 je	 $LN84@LoadString@3
  000f3	80 f2 ed	 xor	 dl, -19			; ffffffedH
  000f6	88 55 f0	 mov	 BYTE PTR __k$[ebp+12], dl
  000f9	8a 50 0d	 mov	 dl, BYTE PTR [eax+13]
  000fc	84 d2		 test	 dl, dl
  000fe	0f 84 96 00 00
	00		 je	 $LN83@LoadString@3
  00104	80 f2 ec	 xor	 dl, -20			; ffffffecH
  00107	88 55 f1	 mov	 BYTE PTR __k$[ebp+13], dl
  0010a	8a 50 0e	 mov	 dl, BYTE PTR [eax+14]
  0010d	84 d2		 test	 dl, dl
  0010f	0f 84 80 00 00
	00		 je	 $LN82@LoadString@3
  00115	32 d1		 xor	 dl, cl
  00117	88 55 f2	 mov	 BYTE PTR __k$[ebp+14], dl
  0011a	8a 50 0f	 mov	 dl, BYTE PTR [eax+15]
  0011d	84 d2		 test	 dl, dl
  0011f	74 6e		 je	 SHORT $LN81@LoadString@3
  00121	80 f2 ea	 xor	 dl, -22			; ffffffeaH
  00124	88 55 f3	 mov	 BYTE PTR __k$[ebp+15], dl
  00127	8a 50 10	 mov	 dl, BYTE PTR [eax+16]
  0012a	84 d2		 test	 dl, dl
  0012c	74 5b		 je	 SHORT $LN80@LoadString@3
  0012e	80 f2 ed	 xor	 dl, -19			; ffffffedH
  00131	80 78 11 00	 cmp	 BYTE PTR [eax+17], 0
  00135	88 55 f4	 mov	 BYTE PTR __k$[ebp+16], dl
  00138	0f 84 ac 00 00
	00		 je	 $LN111@LoadString@3
  0013e	8a 50 12	 mov	 dl, BYTE PTR [eax+18]
  00141	84 d2		 test	 dl, dl
  00143	74 3f		 je	 SHORT $LN78@LoadString@3
  00145	32 d1		 xor	 dl, cl
  00147	88 55 f6	 mov	 BYTE PTR __k$[ebp+18], dl
  0014a	8a 50 13	 mov	 dl, BYTE PTR [eax+19]
  0014d	84 d2		 test	 dl, dl
  0014f	74 2d		 je	 SHORT $LN77@LoadString@3
  00151	80 f2 ea	 xor	 dl, -22			; ffffffeaH
  00154	88 55 f7	 mov	 BYTE PTR __k$[ebp+19], dl
  00157	8a 50 14	 mov	 dl, BYTE PTR [eax+20]
  0015a	84 d2		 test	 dl, dl
  0015c	74 1a		 je	 SHORT $LN76@LoadString@3
  0015e	8a 40 15	 mov	 al, BYTE PTR [eax+21]
  00161	80 f2 ed	 xor	 dl, -19			; ffffffedH
  00164	88 55 f8	 mov	 BYTE PTR __k$[ebp+20], dl
  00167	84 c0		 test	 al, al
  00169	74 07		 je	 SHORT $LN75@LoadString@3
  0016b	34 ec		 xor	 al, -20			; ffffffecH
  0016d	88 45 f9	 mov	 BYTE PTR __k$[ebp+21], al
  00170	eb 78		 jmp	 SHORT $LN111@LoadString@3
$LN75@LoadString@3:
  00172	c6 45 f9 ec	 mov	 BYTE PTR __k$[ebp+21], -20 ; ffffffecH
  00176	eb 72		 jmp	 SHORT $LN111@LoadString@3
$LN76@LoadString@3:
  00178	c6 45 f8 ed	 mov	 BYTE PTR __k$[ebp+20], -19 ; ffffffedH
  0017c	eb 6c		 jmp	 SHORT $LN111@LoadString@3
$LN77@LoadString@3:
  0017e	c6 45 f7 ea	 mov	 BYTE PTR __k$[ebp+19], -22 ; ffffffeaH
  00182	eb 66		 jmp	 SHORT $LN111@LoadString@3
$LN78@LoadString@3:
  00184	88 4d f6	 mov	 BYTE PTR __k$[ebp+18], cl
  00187	eb 61		 jmp	 SHORT $LN111@LoadString@3
$LN80@LoadString@3:
  00189	c6 45 f4 ed	 mov	 BYTE PTR __k$[ebp+16], -19 ; ffffffedH
  0018d	eb 5b		 jmp	 SHORT $LN111@LoadString@3
$LN81@LoadString@3:
  0018f	c6 45 f3 ea	 mov	 BYTE PTR __k$[ebp+15], -22 ; ffffffeaH
  00193	eb 55		 jmp	 SHORT $LN111@LoadString@3
$LN82@LoadString@3:
  00195	88 4d f2	 mov	 BYTE PTR __k$[ebp+14], cl
  00198	eb 50		 jmp	 SHORT $LN111@LoadString@3
$LN83@LoadString@3:
  0019a	c6 45 f1 ec	 mov	 BYTE PTR __k$[ebp+13], -20 ; ffffffecH
  0019e	eb 4a		 jmp	 SHORT $LN111@LoadString@3
$LN84@LoadString@3:
  001a0	c6 45 f0 ed	 mov	 BYTE PTR __k$[ebp+12], -19 ; ffffffedH
  001a4	eb 44		 jmp	 SHORT $LN111@LoadString@3
$LN85@LoadString@3:
  001a6	c6 45 ef ea	 mov	 BYTE PTR __k$[ebp+11], -22 ; ffffffeaH
  001aa	eb 3e		 jmp	 SHORT $LN111@LoadString@3
$LN86@LoadString@3:
  001ac	88 4d ee	 mov	 BYTE PTR __k$[ebp+10], cl
  001af	eb 39		 jmp	 SHORT $LN111@LoadString@3
$LN87@LoadString@3:
  001b1	c6 45 ed ec	 mov	 BYTE PTR __k$[ebp+9], -20 ; ffffffecH
  001b5	eb 33		 jmp	 SHORT $LN111@LoadString@3
$LN88@LoadString@3:
  001b7	c6 45 ec ed	 mov	 BYTE PTR __k$[ebp+8], -19 ; ffffffedH
  001bb	eb 2d		 jmp	 SHORT $LN111@LoadString@3
$LN89@LoadString@3:
  001bd	c6 45 eb ea	 mov	 BYTE PTR __k$[ebp+7], -22 ; ffffffeaH
  001c1	eb 27		 jmp	 SHORT $LN111@LoadString@3
$LN90@LoadString@3:
  001c3	88 4d ea	 mov	 BYTE PTR __k$[ebp+6], cl
  001c6	eb 22		 jmp	 SHORT $LN111@LoadString@3
$LN91@LoadString@3:
  001c8	c6 45 e9 ec	 mov	 BYTE PTR __k$[ebp+5], -20 ; ffffffecH
  001cc	eb 1c		 jmp	 SHORT $LN111@LoadString@3
$LN92@LoadString@3:
  001ce	c6 45 e8 ed	 mov	 BYTE PTR __k$[ebp+4], -19 ; ffffffedH
  001d2	eb 16		 jmp	 SHORT $LN111@LoadString@3
$LN93@LoadString@3:
  001d4	c6 45 e7 ea	 mov	 BYTE PTR __k$[ebp+3], -22 ; ffffffeaH
  001d8	eb 10		 jmp	 SHORT $LN111@LoadString@3
$LN94@LoadString@3:
  001da	c6 45 e6 eb	 mov	 BYTE PTR __k$[ebp+2], -21 ; ffffffebH
  001de	eb 0a		 jmp	 SHORT $LN111@LoadString@3
$LN95@LoadString@3:
  001e0	c6 45 e5 ec	 mov	 BYTE PTR __k$[ebp+1], -20 ; ffffffecH
  001e4	eb 04		 jmp	 SHORT $LN111@LoadString@3
$LN96@LoadString@3:
  001e6	c6 45 e4 ed	 mov	 BYTE PTR __k$[ebp], -19	; ffffffedH
$LN111@LoadString@3:
  001ea	6a 04		 push	 4
  001ec	8d 45 e4	 lea	 eax, DWORD PTR __k$[ebp]
  001ef	c6 45 f5 00	 mov	 BYTE PTR __k$[ebp+17], 0
  001f3	5a		 pop	 edx
$LL104@LoadString@3:
  001f4	81 30 ed ec eb
	ea		 xor	 DWORD PTR [eax], -353637139 ; eaebecedH
  001fa	83 c0 04	 add	 eax, 4
  001fd	4a		 dec	 edx
  001fe	75 f4		 jne	 SHORT $LL104@LoadString@3

; 163  : 		LoadString(_k, d, b, i);

  00200	ff 75 14	 push	 DWORD PTR _i$[ebp]
  00203	8b 4d e0	 mov	 ecx, DWORD PTR _this$GSCopy$[ebp]
  00206	80 75 f4 ed	 xor	 BYTE PTR __k$[ebp+16], -19 ; ffffffedH
  0020a	57		 push	 edi
  0020b	56		 push	 esi
  0020c	8d 45 e4	 lea	 eax, DWORD PTR __k$[ebp]
  0020f	50		 push	 eax
  00210	ff 15 00 00 00
	00		 call	 DWORD PTR __imp_?LoadStringA@ioINILoader@@QAEXPBD0PADH@Z

; 164  : 	}

  00216	8b 4d fc	 mov	 ecx, DWORD PTR __$ArrayPad$[ebp]
  00219	5f		 pop	 edi
  0021a	33 cd		 xor	 ecx, ebp
  0021c	5e		 pop	 esi
  0021d	e8 00 00 00 00	 call	 @__security_check_cookie@4
  00222	c9		 leave
  00223	c2 10 00	 ret	 16			; 00000010H
??$LoadString_e@$0BC@@ioINILoader@@QAEXAAY0BC@$$CBDAAY00$$CBDPADH@Z ENDP ; ioINILoader::LoadString_e<18>
_TEXT	ENDS
PUBLIC	_this$GSCopy$
PUBLIC	__$ArrayPad$
PUBLIC	??$LoadString_e@$0BE@@ioINILoader@@QAEXAAY0BE@$$CBDAAY00$$CBDPADH@Z ; ioINILoader::LoadString_e<20>
; Function compile flags: /Ogsp
;	COMDAT ??$LoadString_e@$0BE@@ioINILoader@@QAEXAAY0BE@$$CBDAAY00$$CBDPADH@Z
_TEXT	SEGMENT
_this$GSCopy$ = -32					; size = 4
__k$ = -28						; size = 20
__$ArrayPad$ = -4					; size = 4
_k$ = 8							; size = 4
_d$ = 12						; size = 4
_b$ = 16						; size = 4
_i$ = 20						; size = 4
??$LoadString_e@$0BE@@ioINILoader@@QAEXAAY0BE@$$CBDAAY00$$CBDPADH@Z PROC ; ioINILoader::LoadString_e<20>, COMDAT
; _this$ = ecx

; 161  : 	{

  00000	55		 push	 ebp
  00001	8b ec		 mov	 ebp, esp
  00003	83 ec 20	 sub	 esp, 32			; 00000020H
  00006	a1 00 00 00 00	 mov	 eax, DWORD PTR ___security_cookie
  0000b	33 c5		 xor	 eax, ebp
  0000d	89 45 fc	 mov	 DWORD PTR __$ArrayPad$[ebp], eax
  00010	8b 45 08	 mov	 eax, DWORD PTR _k$[ebp]

; 162  : 		_ENCSTR(k, _k);

  00013	8a 10		 mov	 dl, BYTE PTR [eax]
  00015	53		 push	 ebx
  00016	56		 push	 esi
  00017	8b 75 0c	 mov	 esi, DWORD PTR _d$[ebp]
  0001a	57		 push	 edi
  0001b	8b 7d 10	 mov	 edi, DWORD PTR _b$[ebp]
  0001e	89 4d e0	 mov	 DWORD PTR _this$GSCopy$[ebp], ecx
  00021	84 d2		 test	 dl, dl
  00023	0f 84 dd 01 00
	00		 je	 $LN96@LoadString@4
  00029	80 f2 ed	 xor	 dl, -19			; ffffffedH
  0002c	88 55 e4	 mov	 BYTE PTR __k$[ebp], dl
  0002f	8a 50 01	 mov	 dl, BYTE PTR [eax+1]
  00032	84 d2		 test	 dl, dl
  00034	0f 84 c6 01 00
	00		 je	 $LN95@LoadString@4
  0003a	b3 ec		 mov	 bl, -20			; ffffffecH
  0003c	32 d3		 xor	 dl, bl
  0003e	88 55 e5	 mov	 BYTE PTR __k$[ebp+1], dl
  00041	8a 50 02	 mov	 dl, BYTE PTR [eax+2]
  00044	84 d2		 test	 dl, dl
  00046	0f 84 ae 01 00
	00		 je	 $LN94@LoadString@4
  0004c	b1 eb		 mov	 cl, -21			; ffffffebH
  0004e	32 d1		 xor	 dl, cl
  00050	88 55 e6	 mov	 BYTE PTR __k$[ebp+2], dl
  00053	8a 50 03	 mov	 dl, BYTE PTR [eax+3]
  00056	84 d2		 test	 dl, dl
  00058	0f 84 96 01 00
	00		 je	 $LN93@LoadString@4
  0005e	80 f2 ea	 xor	 dl, -22			; ffffffeaH
  00061	88 55 e7	 mov	 BYTE PTR __k$[ebp+3], dl
  00064	8a 50 04	 mov	 dl, BYTE PTR [eax+4]
  00067	84 d2		 test	 dl, dl
  00069	0f 84 7f 01 00
	00		 je	 $LN92@LoadString@4
  0006f	80 f2 ed	 xor	 dl, -19			; ffffffedH
  00072	88 55 e8	 mov	 BYTE PTR __k$[ebp+4], dl
  00075	8a 50 05	 mov	 dl, BYTE PTR [eax+5]
  00078	84 d2		 test	 dl, dl
  0007a	0f 84 69 01 00
	00		 je	 $LN91@LoadString@4
  00080	32 d3		 xor	 dl, bl
  00082	88 55 e9	 mov	 BYTE PTR __k$[ebp+5], dl
  00085	8a 50 06	 mov	 dl, BYTE PTR [eax+6]
  00088	84 d2		 test	 dl, dl
  0008a	0f 84 54 01 00
	00		 je	 $LN90@LoadString@4
  00090	32 d1		 xor	 dl, cl
  00092	88 55 ea	 mov	 BYTE PTR __k$[ebp+6], dl
  00095	8a 50 07	 mov	 dl, BYTE PTR [eax+7]
  00098	84 d2		 test	 dl, dl
  0009a	0f 84 3e 01 00
	00		 je	 $LN89@LoadString@4
  000a0	80 f2 ea	 xor	 dl, -22			; ffffffeaH
  000a3	88 55 eb	 mov	 BYTE PTR __k$[ebp+7], dl
  000a6	8a 50 08	 mov	 dl, BYTE PTR [eax+8]
  000a9	84 d2		 test	 dl, dl
  000ab	0f 84 27 01 00
	00		 je	 $LN88@LoadString@4
  000b1	80 f2 ed	 xor	 dl, -19			; ffffffedH
  000b4	88 55 ec	 mov	 BYTE PTR __k$[ebp+8], dl
  000b7	8a 50 09	 mov	 dl, BYTE PTR [eax+9]
  000ba	84 d2		 test	 dl, dl
  000bc	0f 84 11 01 00
	00		 je	 $LN87@LoadString@4
  000c2	32 d3		 xor	 dl, bl
  000c4	88 55 ed	 mov	 BYTE PTR __k$[ebp+9], dl
  000c7	8a 50 0a	 mov	 dl, BYTE PTR [eax+10]
  000ca	84 d2		 test	 dl, dl
  000cc	0f 84 fc 00 00
	00		 je	 $LN86@LoadString@4
  000d2	32 d1		 xor	 dl, cl
  000d4	88 55 ee	 mov	 BYTE PTR __k$[ebp+10], dl
  000d7	8a 50 0b	 mov	 dl, BYTE PTR [eax+11]
  000da	84 d2		 test	 dl, dl
  000dc	0f 84 e6 00 00
	00		 je	 $LN85@LoadString@4
  000e2	80 f2 ea	 xor	 dl, -22			; ffffffeaH
  000e5	88 55 ef	 mov	 BYTE PTR __k$[ebp+11], dl
  000e8	8a 50 0c	 mov	 dl, BYTE PTR [eax+12]
  000eb	84 d2		 test	 dl, dl
  000ed	0f 84 cf 00 00
	00		 je	 $LN84@LoadString@4
  000f3	80 f2 ed	 xor	 dl, -19			; ffffffedH
  000f6	88 55 f0	 mov	 BYTE PTR __k$[ebp+12], dl
  000f9	8a 50 0d	 mov	 dl, BYTE PTR [eax+13]
  000fc	84 d2		 test	 dl, dl
  000fe	0f 84 b9 00 00
	00		 je	 $LN83@LoadString@4
  00104	32 d3		 xor	 dl, bl
  00106	88 55 f1	 mov	 BYTE PTR __k$[ebp+13], dl
  00109	8a 50 0e	 mov	 dl, BYTE PTR [eax+14]
  0010c	84 d2		 test	 dl, dl
  0010e	0f 84 a4 00 00
	00		 je	 $LN82@LoadString@4
  00114	32 d1		 xor	 dl, cl
  00116	88 55 f2	 mov	 BYTE PTR __k$[ebp+14], dl
  00119	8a 50 0f	 mov	 dl, BYTE PTR [eax+15]
  0011c	84 d2		 test	 dl, dl
  0011e	0f 84 8e 00 00
	00		 je	 $LN81@LoadString@4
  00124	80 f2 ea	 xor	 dl, -22			; ffffffeaH
  00127	88 55 f3	 mov	 BYTE PTR __k$[ebp+15], dl
  0012a	8a 50 10	 mov	 dl, BYTE PTR [eax+16]
  0012d	84 d2		 test	 dl, dl
  0012f	74 7b		 je	 SHORT $LN80@LoadString@4
  00131	80 f2 ed	 xor	 dl, -19			; ffffffedH
  00134	88 55 f4	 mov	 BYTE PTR __k$[ebp+16], dl
  00137	8a 50 11	 mov	 dl, BYTE PTR [eax+17]
  0013a	84 d2		 test	 dl, dl
  0013c	74 69		 je	 SHORT $LN79@LoadString@4
  0013e	32 d3		 xor	 dl, bl
  00140	88 55 f5	 mov	 BYTE PTR __k$[ebp+17], dl
  00143	8a 50 12	 mov	 dl, BYTE PTR [eax+18]
  00146	84 d2		 test	 dl, dl
  00148	74 58		 je	 SHORT $LN78@LoadString@4
  0014a	32 d1		 xor	 dl, cl
  0014c	80 78 13 00	 cmp	 BYTE PTR [eax+19], 0
  00150	88 55 f6	 mov	 BYTE PTR __k$[ebp+18], dl
  00153	0f 84 b1 00 00
	00		 je	 $LN111@LoadString@4
  00159	8a 50 14	 mov	 dl, BYTE PTR [eax+20]
  0015c	84 d2		 test	 dl, dl
  0015e	74 3c		 je	 SHORT $LN76@LoadString@4
  00160	80 f2 ed	 xor	 dl, -19			; ffffffedH
  00163	88 55 f8	 mov	 BYTE PTR __k$[ebp+20], dl
  00166	8a 50 15	 mov	 dl, BYTE PTR [eax+21]
  00169	84 d2		 test	 dl, dl
  0016b	74 2a		 je	 SHORT $LN75@LoadString@4
  0016d	32 d3		 xor	 dl, bl
  0016f	88 55 f9	 mov	 BYTE PTR __k$[ebp+21], dl
  00172	8a 50 16	 mov	 dl, BYTE PTR [eax+22]
  00175	84 d2		 test	 dl, dl
  00177	74 19		 je	 SHORT $LN74@LoadString@4
  00179	8a 40 17	 mov	 al, BYTE PTR [eax+23]
  0017c	32 d1		 xor	 dl, cl
  0017e	88 55 fa	 mov	 BYTE PTR __k$[ebp+22], dl
  00181	84 c0		 test	 al, al
  00183	74 07		 je	 SHORT $LN73@LoadString@4
  00185	34 ea		 xor	 al, -22			; ffffffeaH
  00187	88 45 fb	 mov	 BYTE PTR __k$[ebp+23], al
  0018a	eb 7e		 jmp	 SHORT $LN111@LoadString@4
$LN73@LoadString@4:
  0018c	c6 45 fb ea	 mov	 BYTE PTR __k$[ebp+23], -22 ; ffffffeaH
  00190	eb 78		 jmp	 SHORT $LN111@LoadString@4
$LN74@LoadString@4:
  00192	88 4d fa	 mov	 BYTE PTR __k$[ebp+22], cl
  00195	eb 73		 jmp	 SHORT $LN111@LoadString@4
$LN75@LoadString@4:
  00197	88 5d f9	 mov	 BYTE PTR __k$[ebp+21], bl
  0019a	eb 6e		 jmp	 SHORT $LN111@LoadString@4
$LN76@LoadString@4:
  0019c	c6 45 f8 ed	 mov	 BYTE PTR __k$[ebp+20], -19 ; ffffffedH
  001a0	eb 68		 jmp	 SHORT $LN111@LoadString@4
$LN78@LoadString@4:
  001a2	88 4d f6	 mov	 BYTE PTR __k$[ebp+18], cl
  001a5	eb 63		 jmp	 SHORT $LN111@LoadString@4
$LN79@LoadString@4:
  001a7	88 5d f5	 mov	 BYTE PTR __k$[ebp+17], bl
  001aa	eb 5e		 jmp	 SHORT $LN111@LoadString@4
$LN80@LoadString@4:
  001ac	c6 45 f4 ed	 mov	 BYTE PTR __k$[ebp+16], -19 ; ffffffedH
  001b0	eb 58		 jmp	 SHORT $LN111@LoadString@4
$LN81@LoadString@4:
  001b2	c6 45 f3 ea	 mov	 BYTE PTR __k$[ebp+15], -22 ; ffffffeaH
  001b6	eb 52		 jmp	 SHORT $LN111@LoadString@4
$LN82@LoadString@4:
  001b8	88 4d f2	 mov	 BYTE PTR __k$[ebp+14], cl
  001bb	eb 4d		 jmp	 SHORT $LN111@LoadString@4
$LN83@LoadString@4:
  001bd	88 5d f1	 mov	 BYTE PTR __k$[ebp+13], bl
  001c0	eb 48		 jmp	 SHORT $LN111@LoadString@4
$LN84@LoadString@4:
  001c2	c6 45 f0 ed	 mov	 BYTE PTR __k$[ebp+12], -19 ; ffffffedH
  001c6	eb 42		 jmp	 SHORT $LN111@LoadString@4
$LN85@LoadString@4:
  001c8	c6 45 ef ea	 mov	 BYTE PTR __k$[ebp+11], -22 ; ffffffeaH
  001cc	eb 3c		 jmp	 SHORT $LN111@LoadString@4
$LN86@LoadString@4:
  001ce	88 4d ee	 mov	 BYTE PTR __k$[ebp+10], cl
  001d1	eb 37		 jmp	 SHORT $LN111@LoadString@4
$LN87@LoadString@4:
  001d3	88 5d ed	 mov	 BYTE PTR __k$[ebp+9], bl
  001d6	eb 32		 jmp	 SHORT $LN111@LoadString@4
$LN88@LoadString@4:
  001d8	c6 45 ec ed	 mov	 BYTE PTR __k$[ebp+8], -19 ; ffffffedH
  001dc	eb 2c		 jmp	 SHORT $LN111@LoadString@4
$LN89@LoadString@4:
  001de	c6 45 eb ea	 mov	 BYTE PTR __k$[ebp+7], -22 ; ffffffeaH
  001e2	eb 26		 jmp	 SHORT $LN111@LoadString@4
$LN90@LoadString@4:
  001e4	88 4d ea	 mov	 BYTE PTR __k$[ebp+6], cl
  001e7	eb 21		 jmp	 SHORT $LN111@LoadString@4
$LN91@LoadString@4:
  001e9	88 5d e9	 mov	 BYTE PTR __k$[ebp+5], bl
  001ec	eb 1c		 jmp	 SHORT $LN111@LoadString@4
$LN92@LoadString@4:
  001ee	c6 45 e8 ed	 mov	 BYTE PTR __k$[ebp+4], -19 ; ffffffedH
  001f2	eb 16		 jmp	 SHORT $LN111@LoadString@4
$LN93@LoadString@4:
  001f4	c6 45 e7 ea	 mov	 BYTE PTR __k$[ebp+3], -22 ; ffffffeaH
  001f8	eb 10		 jmp	 SHORT $LN111@LoadString@4
$LN94@LoadString@4:
  001fa	c6 45 e6 eb	 mov	 BYTE PTR __k$[ebp+2], -21 ; ffffffebH
  001fe	eb 0a		 jmp	 SHORT $LN111@LoadString@4
$LN95@LoadString@4:
  00200	c6 45 e5 ec	 mov	 BYTE PTR __k$[ebp+1], -20 ; ffffffecH
  00204	eb 04		 jmp	 SHORT $LN111@LoadString@4
$LN96@LoadString@4:
  00206	c6 45 e4 ed	 mov	 BYTE PTR __k$[ebp], -19	; ffffffedH
$LN111@LoadString@4:
  0020a	6a 04		 push	 4
  0020c	8d 45 e4	 lea	 eax, DWORD PTR __k$[ebp]
  0020f	c6 45 f7 00	 mov	 BYTE PTR __k$[ebp+19], 0
  00213	5a		 pop	 edx
$LL104@LoadString@4:
  00214	81 30 ed ec eb
	ea		 xor	 DWORD PTR [eax], -353637139 ; eaebecedH
  0021a	83 c0 04	 add	 eax, 4
  0021d	4a		 dec	 edx
  0021e	75 f4		 jne	 SHORT $LL104@LoadString@4
  00220	6a 10		 push	 16			; 00000010H
  00222	58		 pop	 eax
$LL101@LoadString@4:
  00223	8b c8		 mov	 ecx, eax
  00225	81 e1 03 00 00
	80		 and	 ecx, -2147483645	; 80000003H
  0022b	79 05		 jns	 SHORT $LN112@LoadString@4
  0022d	49		 dec	 ecx
  0022e	83 c9 fc	 or	 ecx, -4			; fffffffcH
  00231	41		 inc	 ecx
$LN112@LoadString@4:
  00232	b2 ed		 mov	 dl, -19			; ffffffedH
  00234	2a d1		 sub	 dl, cl
  00236	30 54 05 e4	 xor	 BYTE PTR __k$[ebp+eax], dl
  0023a	40		 inc	 eax
  0023b	83 f8 13	 cmp	 eax, 19			; 00000013H
  0023e	7c e3		 jl	 SHORT $LL101@LoadString@4

; 163  : 		LoadString(_k, d, b, i);

  00240	ff 75 14	 push	 DWORD PTR _i$[ebp]
  00243	8b 4d e0	 mov	 ecx, DWORD PTR _this$GSCopy$[ebp]
  00246	57		 push	 edi
  00247	56		 push	 esi
  00248	8d 45 e4	 lea	 eax, DWORD PTR __k$[ebp]
  0024b	50		 push	 eax
  0024c	ff 15 00 00 00
	00		 call	 DWORD PTR __imp_?LoadStringA@ioINILoader@@QAEXPBD0PADH@Z

; 164  : 	}

  00252	8b 4d fc	 mov	 ecx, DWORD PTR __$ArrayPad$[ebp]
  00255	5f		 pop	 edi
  00256	5e		 pop	 esi
  00257	33 cd		 xor	 ecx, ebp
  00259	5b		 pop	 ebx
  0025a	e8 00 00 00 00	 call	 @__security_check_cookie@4
  0025f	c9		 leave
  00260	c2 10 00	 ret	 16			; 00000010H
??$LoadString_e@$0BE@@ioINILoader@@QAEXAAY0BE@$$CBDAAY00$$CBDPADH@Z ENDP ; ioINILoader::LoadString_e<20>
_TEXT	ENDS
PUBLIC	_this$GSCopy$
PUBLIC	__$ArrayPad$
PUBLIC	??$LoadString_e@$0BA@@ioINILoader@@QAEXAAY0BA@$$CBDAAY00$$CBDPADH@Z ; ioINILoader::LoadString_e<16>
; Function compile flags: /Ogsp
;	COMDAT ??$LoadString_e@$0BA@@ioINILoader@@QAEXAAY0BA@$$CBDAAY00$$CBDPADH@Z
_TEXT	SEGMENT
_this$GSCopy$ = -28					; size = 4
__k$ = -24						; size = 16
__$ArrayPad$ = -4					; size = 4
_k$ = 8							; size = 4
_d$ = 12						; size = 4
_b$ = 16						; size = 4
_i$ = 20						; size = 4
??$LoadString_e@$0BA@@ioINILoader@@QAEXAAY0BA@$$CBDAAY00$$CBDPADH@Z PROC ; ioINILoader::LoadString_e<16>, COMDAT
; _this$ = ecx

; 161  : 	{

  00000	55		 push	 ebp
  00001	8b ec		 mov	 ebp, esp
  00003	83 ec 1c	 sub	 esp, 28			; 0000001cH
  00006	a1 00 00 00 00	 mov	 eax, DWORD PTR ___security_cookie
  0000b	33 c5		 xor	 eax, ebp
  0000d	89 45 fc	 mov	 DWORD PTR __$ArrayPad$[ebp], eax
  00010	8b 45 08	 mov	 eax, DWORD PTR _k$[ebp]

; 162  : 		_ENCSTR(k, _k);

  00013	8a 10		 mov	 dl, BYTE PTR [eax]
  00015	56		 push	 esi
  00016	8b 75 0c	 mov	 esi, DWORD PTR _d$[ebp]
  00019	57		 push	 edi
  0001a	8b 7d 10	 mov	 edi, DWORD PTR _b$[ebp]
  0001d	89 4d e4	 mov	 DWORD PTR _this$GSCopy$[ebp], ecx
  00020	84 d2		 test	 dl, dl
  00022	0f 84 8c 01 00
	00		 je	 $LN96@LoadString@5
  00028	80 f2 ed	 xor	 dl, -19			; ffffffedH
  0002b	88 55 e8	 mov	 BYTE PTR __k$[ebp], dl
  0002e	8a 50 01	 mov	 dl, BYTE PTR [eax+1]
  00031	84 d2		 test	 dl, dl
  00033	0f 84 75 01 00
	00		 je	 $LN95@LoadString@5
  00039	80 f2 ec	 xor	 dl, -20			; ffffffecH
  0003c	88 55 e9	 mov	 BYTE PTR __k$[ebp+1], dl
  0003f	8a 50 02	 mov	 dl, BYTE PTR [eax+2]
  00042	84 d2		 test	 dl, dl
  00044	0f 84 5e 01 00
	00		 je	 $LN94@LoadString@5
  0004a	b1 eb		 mov	 cl, -21			; ffffffebH
  0004c	32 d1		 xor	 dl, cl
  0004e	88 55 ea	 mov	 BYTE PTR __k$[ebp+2], dl
  00051	8a 50 03	 mov	 dl, BYTE PTR [eax+3]
  00054	84 d2		 test	 dl, dl
  00056	0f 84 46 01 00
	00		 je	 $LN93@LoadString@5
  0005c	80 f2 ea	 xor	 dl, -22			; ffffffeaH
  0005f	88 55 eb	 mov	 BYTE PTR __k$[ebp+3], dl
  00062	8a 50 04	 mov	 dl, BYTE PTR [eax+4]
  00065	84 d2		 test	 dl, dl
  00067	0f 84 2f 01 00
	00		 je	 $LN92@LoadString@5
  0006d	80 f2 ed	 xor	 dl, -19			; ffffffedH
  00070	88 55 ec	 mov	 BYTE PTR __k$[ebp+4], dl
  00073	8a 50 05	 mov	 dl, BYTE PTR [eax+5]
  00076	84 d2		 test	 dl, dl
  00078	0f 84 18 01 00
	00		 je	 $LN91@LoadString@5
  0007e	80 f2 ec	 xor	 dl, -20			; ffffffecH
  00081	88 55 ed	 mov	 BYTE PTR __k$[ebp+5], dl
  00084	8a 50 06	 mov	 dl, BYTE PTR [eax+6]
  00087	84 d2		 test	 dl, dl
  00089	0f 84 02 01 00
	00		 je	 $LN90@LoadString@5
  0008f	32 d1		 xor	 dl, cl
  00091	88 55 ee	 mov	 BYTE PTR __k$[ebp+6], dl
  00094	8a 50 07	 mov	 dl, BYTE PTR [eax+7]
  00097	84 d2		 test	 dl, dl
  00099	0f 84 ec 00 00
	00		 je	 $LN89@LoadString@5
  0009f	80 f2 ea	 xor	 dl, -22			; ffffffeaH
  000a2	88 55 ef	 mov	 BYTE PTR __k$[ebp+7], dl
  000a5	8a 50 08	 mov	 dl, BYTE PTR [eax+8]
  000a8	84 d2		 test	 dl, dl
  000aa	0f 84 d5 00 00
	00		 je	 $LN88@LoadString@5
  000b0	80 f2 ed	 xor	 dl, -19			; ffffffedH
  000b3	88 55 f0	 mov	 BYTE PTR __k$[ebp+8], dl
  000b6	8a 50 09	 mov	 dl, BYTE PTR [eax+9]
  000b9	84 d2		 test	 dl, dl
  000bb	0f 84 be 00 00
	00		 je	 $LN87@LoadString@5
  000c1	80 f2 ec	 xor	 dl, -20			; ffffffecH
  000c4	88 55 f1	 mov	 BYTE PTR __k$[ebp+9], dl
  000c7	8a 50 0a	 mov	 dl, BYTE PTR [eax+10]
  000ca	84 d2		 test	 dl, dl
  000cc	0f 84 a8 00 00
	00		 je	 $LN86@LoadString@5
  000d2	32 d1		 xor	 dl, cl
  000d4	88 55 f2	 mov	 BYTE PTR __k$[ebp+10], dl
  000d7	8a 50 0b	 mov	 dl, BYTE PTR [eax+11]
  000da	84 d2		 test	 dl, dl
  000dc	0f 84 92 00 00
	00		 je	 $LN85@LoadString@5
  000e2	80 f2 ea	 xor	 dl, -22			; ffffffeaH
  000e5	88 55 f3	 mov	 BYTE PTR __k$[ebp+11], dl
  000e8	8a 50 0c	 mov	 dl, BYTE PTR [eax+12]
  000eb	84 d2		 test	 dl, dl
  000ed	74 7f		 je	 SHORT $LN84@LoadString@5
  000ef	80 f2 ed	 xor	 dl, -19			; ffffffedH
  000f2	88 55 f4	 mov	 BYTE PTR __k$[ebp+12], dl
  000f5	8a 50 0d	 mov	 dl, BYTE PTR [eax+13]
  000f8	84 d2		 test	 dl, dl
  000fa	74 6c		 je	 SHORT $LN83@LoadString@5
  000fc	80 f2 ec	 xor	 dl, -20			; ffffffecH
  000ff	88 55 f5	 mov	 BYTE PTR __k$[ebp+13], dl
  00102	8a 50 0e	 mov	 dl, BYTE PTR [eax+14]
  00105	84 d2		 test	 dl, dl
  00107	74 5a		 je	 SHORT $LN82@LoadString@5
  00109	32 d1		 xor	 dl, cl
  0010b	80 78 0f 00	 cmp	 BYTE PTR [eax+15], 0
  0010f	88 55 f6	 mov	 BYTE PTR __k$[ebp+14], dl
  00112	0f 84 a0 00 00
	00		 je	 $LN111@LoadString@5
  00118	8a 50 10	 mov	 dl, BYTE PTR [eax+16]
  0011b	84 d2		 test	 dl, dl
  0011d	74 3e		 je	 SHORT $LN80@LoadString@5
  0011f	80 f2 ed	 xor	 dl, -19			; ffffffedH
  00122	88 55 f8	 mov	 BYTE PTR __k$[ebp+16], dl
  00125	8a 50 11	 mov	 dl, BYTE PTR [eax+17]
  00128	84 d2		 test	 dl, dl
  0012a	74 2b		 je	 SHORT $LN79@LoadString@5
  0012c	80 f2 ec	 xor	 dl, -20			; ffffffecH
  0012f	88 55 f9	 mov	 BYTE PTR __k$[ebp+17], dl
  00132	8a 50 12	 mov	 dl, BYTE PTR [eax+18]
  00135	84 d2		 test	 dl, dl
  00137	74 19		 je	 SHORT $LN78@LoadString@5
  00139	8a 40 13	 mov	 al, BYTE PTR [eax+19]
  0013c	32 d1		 xor	 dl, cl
  0013e	88 55 fa	 mov	 BYTE PTR __k$[ebp+18], dl
  00141	84 c0		 test	 al, al
  00143	74 07		 je	 SHORT $LN77@LoadString@5
  00145	34 ea		 xor	 al, -22			; ffffffeaH
  00147	88 45 fb	 mov	 BYTE PTR __k$[ebp+19], al
  0014a	eb 6c		 jmp	 SHORT $LN111@LoadString@5
$LN77@LoadString@5:
  0014c	c6 45 fb ea	 mov	 BYTE PTR __k$[ebp+19], -22 ; ffffffeaH
  00150	eb 66		 jmp	 SHORT $LN111@LoadString@5
$LN78@LoadString@5:
  00152	88 4d fa	 mov	 BYTE PTR __k$[ebp+18], cl
  00155	eb 61		 jmp	 SHORT $LN111@LoadString@5
$LN79@LoadString@5:
  00157	c6 45 f9 ec	 mov	 BYTE PTR __k$[ebp+17], -20 ; ffffffecH
  0015b	eb 5b		 jmp	 SHORT $LN111@LoadString@5
$LN80@LoadString@5:
  0015d	c6 45 f8 ed	 mov	 BYTE PTR __k$[ebp+16], -19 ; ffffffedH
  00161	eb 55		 jmp	 SHORT $LN111@LoadString@5
$LN82@LoadString@5:
  00163	88 4d f6	 mov	 BYTE PTR __k$[ebp+14], cl
  00166	eb 50		 jmp	 SHORT $LN111@LoadString@5
$LN83@LoadString@5:
  00168	c6 45 f5 ec	 mov	 BYTE PTR __k$[ebp+13], -20 ; ffffffecH
  0016c	eb 4a		 jmp	 SHORT $LN111@LoadString@5
$LN84@LoadString@5:
  0016e	c6 45 f4 ed	 mov	 BYTE PTR __k$[ebp+12], -19 ; ffffffedH
  00172	eb 44		 jmp	 SHORT $LN111@LoadString@5
$LN85@LoadString@5:
  00174	c6 45 f3 ea	 mov	 BYTE PTR __k$[ebp+11], -22 ; ffffffeaH
  00178	eb 3e		 jmp	 SHORT $LN111@LoadString@5
$LN86@LoadString@5:
  0017a	88 4d f2	 mov	 BYTE PTR __k$[ebp+10], cl
  0017d	eb 39		 jmp	 SHORT $LN111@LoadString@5
$LN87@LoadString@5:
  0017f	c6 45 f1 ec	 mov	 BYTE PTR __k$[ebp+9], -20 ; ffffffecH
  00183	eb 33		 jmp	 SHORT $LN111@LoadString@5
$LN88@LoadString@5:
  00185	c6 45 f0 ed	 mov	 BYTE PTR __k$[ebp+8], -19 ; ffffffedH
  00189	eb 2d		 jmp	 SHORT $LN111@LoadString@5
$LN89@LoadString@5:
  0018b	c6 45 ef ea	 mov	 BYTE PTR __k$[ebp+7], -22 ; ffffffeaH
  0018f	eb 27		 jmp	 SHORT $LN111@LoadString@5
$LN90@LoadString@5:
  00191	88 4d ee	 mov	 BYTE PTR __k$[ebp+6], cl
  00194	eb 22		 jmp	 SHORT $LN111@LoadString@5
$LN91@LoadString@5:
  00196	c6 45 ed ec	 mov	 BYTE PTR __k$[ebp+5], -20 ; ffffffecH
  0019a	eb 1c		 jmp	 SHORT $LN111@LoadString@5
$LN92@LoadString@5:
  0019c	c6 45 ec ed	 mov	 BYTE PTR __k$[ebp+4], -19 ; ffffffedH
  001a0	eb 16		 jmp	 SHORT $LN111@LoadString@5
$LN93@LoadString@5:
  001a2	c6 45 eb ea	 mov	 BYTE PTR __k$[ebp+3], -22 ; ffffffeaH
  001a6	eb 10		 jmp	 SHORT $LN111@LoadString@5
$LN94@LoadString@5:
  001a8	c6 45 ea eb	 mov	 BYTE PTR __k$[ebp+2], -21 ; ffffffebH
  001ac	eb 0a		 jmp	 SHORT $LN111@LoadString@5
$LN95@LoadString@5:
  001ae	c6 45 e9 ec	 mov	 BYTE PTR __k$[ebp+1], -20 ; ffffffecH
  001b2	eb 04		 jmp	 SHORT $LN111@LoadString@5
$LN96@LoadString@5:
  001b4	c6 45 e8 ed	 mov	 BYTE PTR __k$[ebp], -19	; ffffffedH
$LN111@LoadString@5:
  001b8	6a 03		 push	 3
  001ba	8d 45 e8	 lea	 eax, DWORD PTR __k$[ebp]
  001bd	c6 45 f7 00	 mov	 BYTE PTR __k$[ebp+15], 0
  001c1	5a		 pop	 edx
$LL104@LoadString@5:
  001c2	81 30 ed ec eb
	ea		 xor	 DWORD PTR [eax], -353637139 ; eaebecedH
  001c8	83 c0 04	 add	 eax, 4
  001cb	4a		 dec	 edx
  001cc	75 f4		 jne	 SHORT $LL104@LoadString@5
  001ce	6a 0c		 push	 12			; 0000000cH
  001d0	58		 pop	 eax
$LL101@LoadString@5:
  001d1	8b c8		 mov	 ecx, eax
  001d3	81 e1 03 00 00
	80		 and	 ecx, -2147483645	; 80000003H
  001d9	79 05		 jns	 SHORT $LN112@LoadString@5
  001db	49		 dec	 ecx
  001dc	83 c9 fc	 or	 ecx, -4			; fffffffcH
  001df	41		 inc	 ecx
$LN112@LoadString@5:
  001e0	b2 ed		 mov	 dl, -19			; ffffffedH
  001e2	2a d1		 sub	 dl, cl
  001e4	30 54 05 e8	 xor	 BYTE PTR __k$[ebp+eax], dl
  001e8	40		 inc	 eax
  001e9	83 f8 0f	 cmp	 eax, 15			; 0000000fH
  001ec	7c e3		 jl	 SHORT $LL101@LoadString@5

; 163  : 		LoadString(_k, d, b, i);

  001ee	ff 75 14	 push	 DWORD PTR _i$[ebp]
  001f1	8b 4d e4	 mov	 ecx, DWORD PTR _this$GSCopy$[ebp]
  001f4	57		 push	 edi
  001f5	56		 push	 esi
  001f6	8d 45 e8	 lea	 eax, DWORD PTR __k$[ebp]
  001f9	50		 push	 eax
  001fa	ff 15 00 00 00
	00		 call	 DWORD PTR __imp_?LoadStringA@ioINILoader@@QAEXPBD0PADH@Z

; 164  : 	}

  00200	8b 4d fc	 mov	 ecx, DWORD PTR __$ArrayPad$[ebp]
  00203	5f		 pop	 edi
  00204	33 cd		 xor	 ecx, ebp
  00206	5e		 pop	 esi
  00207	e8 00 00 00 00	 call	 @__security_check_cookie@4
  0020c	c9		 leave
  0020d	c2 10 00	 ret	 16			; 00000010H
??$LoadString_e@$0BA@@ioINILoader@@QAEXAAY0BA@$$CBDAAY00$$CBDPADH@Z ENDP ; ioINILoader::LoadString_e<16>
_TEXT	ENDS
PUBLIC	_this$GSCopy$
PUBLIC	__$ArrayPad$
PUBLIC	??$LoadString_e@$0P@@ioINILoader@@QAEXAAY0P@$$CBDAAY00$$CBDPADH@Z ; ioINILoader::LoadString_e<15>
; Function compile flags: /Ogsp
;	COMDAT ??$LoadString_e@$0P@@ioINILoader@@QAEXAAY0P@$$CBDAAY00$$CBDPADH@Z
_TEXT	SEGMENT
_this$GSCopy$ = -28					; size = 4
__k$ = -24						; size = 15
__$ArrayPad$ = -4					; size = 4
_k$ = 8							; size = 4
_d$ = 12						; size = 4
_b$ = 16						; size = 4
_i$ = 20						; size = 4
??$LoadString_e@$0P@@ioINILoader@@QAEXAAY0P@$$CBDAAY00$$CBDPADH@Z PROC ; ioINILoader::LoadString_e<15>, COMDAT
; _this$ = ecx

; 161  : 	{

  00000	55		 push	 ebp
  00001	8b ec		 mov	 ebp, esp
  00003	83 ec 1c	 sub	 esp, 28			; 0000001cH
  00006	a1 00 00 00 00	 mov	 eax, DWORD PTR ___security_cookie
  0000b	33 c5		 xor	 eax, ebp
  0000d	89 45 fc	 mov	 DWORD PTR __$ArrayPad$[ebp], eax
  00010	8b 45 08	 mov	 eax, DWORD PTR _k$[ebp]

; 162  : 		_ENCSTR(k, _k);

  00013	8a 10		 mov	 dl, BYTE PTR [eax]
  00015	56		 push	 esi
  00016	8b 75 0c	 mov	 esi, DWORD PTR _d$[ebp]
  00019	57		 push	 edi
  0001a	8b 7d 10	 mov	 edi, DWORD PTR _b$[ebp]
  0001d	89 4d e4	 mov	 DWORD PTR _this$GSCopy$[ebp], ecx
  00020	84 d2		 test	 dl, dl
  00022	0f 84 75 01 00
	00		 je	 $LN96@LoadString@6
  00028	80 f2 ed	 xor	 dl, -19			; ffffffedH
  0002b	88 55 e8	 mov	 BYTE PTR __k$[ebp], dl
  0002e	8a 50 01	 mov	 dl, BYTE PTR [eax+1]
  00031	84 d2		 test	 dl, dl
  00033	0f 84 5e 01 00
	00		 je	 $LN95@LoadString@6
  00039	b1 ec		 mov	 cl, -20			; ffffffecH
  0003b	32 d1		 xor	 dl, cl
  0003d	88 55 e9	 mov	 BYTE PTR __k$[ebp+1], dl
  00040	8a 50 02	 mov	 dl, BYTE PTR [eax+2]
  00043	84 d2		 test	 dl, dl
  00045	0f 84 46 01 00
	00		 je	 $LN94@LoadString@6
  0004b	80 f2 eb	 xor	 dl, -21			; ffffffebH
  0004e	88 55 ea	 mov	 BYTE PTR __k$[ebp+2], dl
  00051	8a 50 03	 mov	 dl, BYTE PTR [eax+3]
  00054	84 d2		 test	 dl, dl
  00056	0f 84 2f 01 00
	00		 je	 $LN93@LoadString@6
  0005c	80 f2 ea	 xor	 dl, -22			; ffffffeaH
  0005f	88 55 eb	 mov	 BYTE PTR __k$[ebp+3], dl
  00062	8a 50 04	 mov	 dl, BYTE PTR [eax+4]
  00065	84 d2		 test	 dl, dl
  00067	0f 84 18 01 00
	00		 je	 $LN92@LoadString@6
  0006d	80 f2 ed	 xor	 dl, -19			; ffffffedH
  00070	88 55 ec	 mov	 BYTE PTR __k$[ebp+4], dl
  00073	8a 50 05	 mov	 dl, BYTE PTR [eax+5]
  00076	84 d2		 test	 dl, dl
  00078	0f 84 02 01 00
	00		 je	 $LN91@LoadString@6
  0007e	32 d1		 xor	 dl, cl
  00080	88 55 ed	 mov	 BYTE PTR __k$[ebp+5], dl
  00083	8a 50 06	 mov	 dl, BYTE PTR [eax+6]
  00086	84 d2		 test	 dl, dl
  00088	0f 84 ec 00 00
	00		 je	 $LN90@LoadString@6
  0008e	80 f2 eb	 xor	 dl, -21			; ffffffebH
  00091	88 55 ee	 mov	 BYTE PTR __k$[ebp+6], dl
  00094	8a 50 07	 mov	 dl, BYTE PTR [eax+7]
  00097	84 d2		 test	 dl, dl
  00099	0f 84 d5 00 00
	00		 je	 $LN89@LoadString@6
  0009f	80 f2 ea	 xor	 dl, -22			; ffffffeaH
  000a2	88 55 ef	 mov	 BYTE PTR __k$[ebp+7], dl
  000a5	8a 50 08	 mov	 dl, BYTE PTR [eax+8]
  000a8	84 d2		 test	 dl, dl
  000aa	0f 84 be 00 00
	00		 je	 $LN88@LoadString@6
  000b0	80 f2 ed	 xor	 dl, -19			; ffffffedH
  000b3	88 55 f0	 mov	 BYTE PTR __k$[ebp+8], dl
  000b6	8a 50 09	 mov	 dl, BYTE PTR [eax+9]
  000b9	84 d2		 test	 dl, dl
  000bb	0f 84 a8 00 00
	00		 je	 $LN87@LoadString@6
  000c1	32 d1		 xor	 dl, cl
  000c3	88 55 f1	 mov	 BYTE PTR __k$[ebp+9], dl
  000c6	8a 50 0a	 mov	 dl, BYTE PTR [eax+10]
  000c9	84 d2		 test	 dl, dl
  000cb	0f 84 92 00 00
	00		 je	 $LN86@LoadString@6
  000d1	80 f2 eb	 xor	 dl, -21			; ffffffebH
  000d4	88 55 f2	 mov	 BYTE PTR __k$[ebp+10], dl
  000d7	8a 50 0b	 mov	 dl, BYTE PTR [eax+11]
  000da	84 d2		 test	 dl, dl
  000dc	74 7f		 je	 SHORT $LN85@LoadString@6
  000de	80 f2 ea	 xor	 dl, -22			; ffffffeaH
  000e1	88 55 f3	 mov	 BYTE PTR __k$[ebp+11], dl
  000e4	8a 50 0c	 mov	 dl, BYTE PTR [eax+12]
  000e7	84 d2		 test	 dl, dl
  000e9	74 6c		 je	 SHORT $LN84@LoadString@6
  000eb	80 f2 ed	 xor	 dl, -19			; ffffffedH
  000ee	88 55 f4	 mov	 BYTE PTR __k$[ebp+12], dl
  000f1	8a 50 0d	 mov	 dl, BYTE PTR [eax+13]
  000f4	84 d2		 test	 dl, dl
  000f6	74 5a		 je	 SHORT $LN83@LoadString@6
  000f8	32 d1		 xor	 dl, cl
  000fa	80 78 0e 00	 cmp	 BYTE PTR [eax+14], 0
  000fe	88 55 f5	 mov	 BYTE PTR __k$[ebp+13], dl
  00101	0f 84 9a 00 00
	00		 je	 $LN111@LoadString@6
  00107	8a 50 0f	 mov	 dl, BYTE PTR [eax+15]
  0010a	84 d2		 test	 dl, dl
  0010c	74 3e		 je	 SHORT $LN81@LoadString@6
  0010e	80 f2 ea	 xor	 dl, -22			; ffffffeaH
  00111	88 55 f7	 mov	 BYTE PTR __k$[ebp+15], dl
  00114	8a 50 10	 mov	 dl, BYTE PTR [eax+16]
  00117	84 d2		 test	 dl, dl
  00119	74 2b		 je	 SHORT $LN80@LoadString@6
  0011b	80 f2 ed	 xor	 dl, -19			; ffffffedH
  0011e	88 55 f8	 mov	 BYTE PTR __k$[ebp+16], dl
  00121	8a 50 11	 mov	 dl, BYTE PTR [eax+17]
  00124	84 d2		 test	 dl, dl
  00126	74 19		 je	 SHORT $LN79@LoadString@6
  00128	8a 40 12	 mov	 al, BYTE PTR [eax+18]
  0012b	32 d1		 xor	 dl, cl
  0012d	88 55 f9	 mov	 BYTE PTR __k$[ebp+17], dl
  00130	84 c0		 test	 al, al
  00132	74 07		 je	 SHORT $LN78@LoadString@6
  00134	34 eb		 xor	 al, -21			; ffffffebH
  00136	88 45 fa	 mov	 BYTE PTR __k$[ebp+18], al
  00139	eb 66		 jmp	 SHORT $LN111@LoadString@6
$LN78@LoadString@6:
  0013b	c6 45 fa eb	 mov	 BYTE PTR __k$[ebp+18], -21 ; ffffffebH
  0013f	eb 60		 jmp	 SHORT $LN111@LoadString@6
$LN79@LoadString@6:
  00141	88 4d f9	 mov	 BYTE PTR __k$[ebp+17], cl
  00144	eb 5b		 jmp	 SHORT $LN111@LoadString@6
$LN80@LoadString@6:
  00146	c6 45 f8 ed	 mov	 BYTE PTR __k$[ebp+16], -19 ; ffffffedH
  0014a	eb 55		 jmp	 SHORT $LN111@LoadString@6
$LN81@LoadString@6:
  0014c	c6 45 f7 ea	 mov	 BYTE PTR __k$[ebp+15], -22 ; ffffffeaH
  00150	eb 4f		 jmp	 SHORT $LN111@LoadString@6
$LN83@LoadString@6:
  00152	88 4d f5	 mov	 BYTE PTR __k$[ebp+13], cl
  00155	eb 4a		 jmp	 SHORT $LN111@LoadString@6
$LN84@LoadString@6:
  00157	c6 45 f4 ed	 mov	 BYTE PTR __k$[ebp+12], -19 ; ffffffedH
  0015b	eb 44		 jmp	 SHORT $LN111@LoadString@6
$LN85@LoadString@6:
  0015d	c6 45 f3 ea	 mov	 BYTE PTR __k$[ebp+11], -22 ; ffffffeaH
  00161	eb 3e		 jmp	 SHORT $LN111@LoadString@6
$LN86@LoadString@6:
  00163	c6 45 f2 eb	 mov	 BYTE PTR __k$[ebp+10], -21 ; ffffffebH
  00167	eb 38		 jmp	 SHORT $LN111@LoadString@6
$LN87@LoadString@6:
  00169	88 4d f1	 mov	 BYTE PTR __k$[ebp+9], cl
  0016c	eb 33		 jmp	 SHORT $LN111@LoadString@6
$LN88@LoadString@6:
  0016e	c6 45 f0 ed	 mov	 BYTE PTR __k$[ebp+8], -19 ; ffffffedH
  00172	eb 2d		 jmp	 SHORT $LN111@LoadString@6
$LN89@LoadString@6:
  00174	c6 45 ef ea	 mov	 BYTE PTR __k$[ebp+7], -22 ; ffffffeaH
  00178	eb 27		 jmp	 SHORT $LN111@LoadString@6
$LN90@LoadString@6:
  0017a	c6 45 ee eb	 mov	 BYTE PTR __k$[ebp+6], -21 ; ffffffebH
  0017e	eb 21		 jmp	 SHORT $LN111@LoadString@6
$LN91@LoadString@6:
  00180	88 4d ed	 mov	 BYTE PTR __k$[ebp+5], cl
  00183	eb 1c		 jmp	 SHORT $LN111@LoadString@6
$LN92@LoadString@6:
  00185	c6 45 ec ed	 mov	 BYTE PTR __k$[ebp+4], -19 ; ffffffedH
  00189	eb 16		 jmp	 SHORT $LN111@LoadString@6
$LN93@LoadString@6:
  0018b	c6 45 eb ea	 mov	 BYTE PTR __k$[ebp+3], -22 ; ffffffeaH
  0018f	eb 10		 jmp	 SHORT $LN111@LoadString@6
$LN94@LoadString@6:
  00191	c6 45 ea eb	 mov	 BYTE PTR __k$[ebp+2], -21 ; ffffffebH
  00195	eb 0a		 jmp	 SHORT $LN111@LoadString@6
$LN95@LoadString@6:
  00197	c6 45 e9 ec	 mov	 BYTE PTR __k$[ebp+1], -20 ; ffffffecH
  0019b	eb 04		 jmp	 SHORT $LN111@LoadString@6
$LN96@LoadString@6:
  0019d	c6 45 e8 ed	 mov	 BYTE PTR __k$[ebp], -19	; ffffffedH
$LN111@LoadString@6:
  001a1	6a 03		 push	 3
  001a3	8d 45 e8	 lea	 eax, DWORD PTR __k$[ebp]
  001a6	c6 45 f6 00	 mov	 BYTE PTR __k$[ebp+14], 0
  001aa	5a		 pop	 edx
$LL104@LoadString@6:
  001ab	81 30 ed ec eb
	ea		 xor	 DWORD PTR [eax], -353637139 ; eaebecedH
  001b1	83 c0 04	 add	 eax, 4
  001b4	4a		 dec	 edx
  001b5	75 f4		 jne	 SHORT $LL104@LoadString@6
  001b7	6a 0c		 push	 12			; 0000000cH
  001b9	58		 pop	 eax
$LL101@LoadString@6:
  001ba	8b c8		 mov	 ecx, eax
  001bc	81 e1 03 00 00
	80		 and	 ecx, -2147483645	; 80000003H
  001c2	79 05		 jns	 SHORT $LN112@LoadString@6
  001c4	49		 dec	 ecx
  001c5	83 c9 fc	 or	 ecx, -4			; fffffffcH
  001c8	41		 inc	 ecx
$LN112@LoadString@6:
  001c9	b2 ed		 mov	 dl, -19			; ffffffedH
  001cb	2a d1		 sub	 dl, cl
  001cd	30 54 05 e8	 xor	 BYTE PTR __k$[ebp+eax], dl
  001d1	40		 inc	 eax
  001d2	83 f8 0e	 cmp	 eax, 14			; 0000000eH
  001d5	7c e3		 jl	 SHORT $LL101@LoadString@6

; 163  : 		LoadString(_k, d, b, i);

  001d7	ff 75 14	 push	 DWORD PTR _i$[ebp]
  001da	8b 4d e4	 mov	 ecx, DWORD PTR _this$GSCopy$[ebp]
  001dd	57		 push	 edi
  001de	56		 push	 esi
  001df	8d 45 e8	 lea	 eax, DWORD PTR __k$[ebp]
  001e2	50		 push	 eax
  001e3	ff 15 00 00 00
	00		 call	 DWORD PTR __imp_?LoadStringA@ioINILoader@@QAEXPBD0PADH@Z

; 164  : 	}

  001e9	8b 4d fc	 mov	 ecx, DWORD PTR __$ArrayPad$[ebp]
  001ec	5f		 pop	 edi
  001ed	33 cd		 xor	 ecx, ebp
  001ef	5e		 pop	 esi
  001f0	e8 00 00 00 00	 call	 @__security_check_cookie@4
  001f5	c9		 leave
  001f6	c2 10 00	 ret	 16			; 00000010H
??$LoadString_e@$0P@@ioINILoader@@QAEXAAY0P@$$CBDAAY00$$CBDPADH@Z ENDP ; ioINILoader::LoadString_e<15>
_TEXT	ENDS
PUBLIC	__$ArrayPad$
PUBLIC	??$LoadInt_e@$0BC@@ioINILoader@@QAEHAAY0BC@$$CBDH@Z ; ioINILoader::LoadInt_e<18>
EXTRN	__imp_?LoadInt@ioINILoader@@QAEHPBDH@Z:PROC
; Function compile flags: /Ogsp
;	COMDAT ??$LoadInt_e@$0BC@@ioINILoader@@QAEHAAY0BC@$$CBDH@Z
_TEXT	SEGMENT
__k$ = -28						; size = 18
__$ArrayPad$ = -4					; size = 4
_k$ = 8							; size = 4
_i$ = 12						; size = 4
??$LoadInt_e@$0BC@@ioINILoader@@QAEHAAY0BC@$$CBDH@Z PROC ; ioINILoader::LoadInt_e<18>, COMDAT
; _this$ = ecx

; 118  : 	{

  00000	55		 push	 ebp
  00001	8b ec		 mov	 ebp, esp
  00003	83 ec 1c	 sub	 esp, 28			; 0000001cH
  00006	a1 00 00 00 00	 mov	 eax, DWORD PTR ___security_cookie
  0000b	33 c5		 xor	 eax, ebp
  0000d	89 45 fc	 mov	 DWORD PTR __$ArrayPad$[ebp], eax
  00010	8b 45 08	 mov	 eax, DWORD PTR _k$[ebp]

; 119  : 		_ENCSTR(k, _k);

  00013	8a 10		 mov	 dl, BYTE PTR [eax]
  00015	56		 push	 esi
  00016	8b f1		 mov	 esi, ecx
  00018	84 d2		 test	 dl, dl
  0001a	0f 84 be 01 00
	00		 je	 $LN96@LoadInt_e
  00020	80 f2 ed	 xor	 dl, -19			; ffffffedH
  00023	88 55 e4	 mov	 BYTE PTR __k$[ebp], dl
  00026	8a 50 01	 mov	 dl, BYTE PTR [eax+1]
  00029	84 d2		 test	 dl, dl
  0002b	0f 84 a7 01 00
	00		 je	 $LN95@LoadInt_e
  00031	80 f2 ec	 xor	 dl, -20			; ffffffecH
  00034	88 55 e5	 mov	 BYTE PTR __k$[ebp+1], dl
  00037	8a 50 02	 mov	 dl, BYTE PTR [eax+2]
  0003a	84 d2		 test	 dl, dl
  0003c	0f 84 90 01 00
	00		 je	 $LN94@LoadInt_e
  00042	b1 eb		 mov	 cl, -21			; ffffffebH
  00044	32 d1		 xor	 dl, cl
  00046	88 55 e6	 mov	 BYTE PTR __k$[ebp+2], dl
  00049	8a 50 03	 mov	 dl, BYTE PTR [eax+3]
  0004c	84 d2		 test	 dl, dl
  0004e	0f 84 78 01 00
	00		 je	 $LN93@LoadInt_e
  00054	80 f2 ea	 xor	 dl, -22			; ffffffeaH
  00057	88 55 e7	 mov	 BYTE PTR __k$[ebp+3], dl
  0005a	8a 50 04	 mov	 dl, BYTE PTR [eax+4]
  0005d	84 d2		 test	 dl, dl
  0005f	0f 84 61 01 00
	00		 je	 $LN92@LoadInt_e
  00065	80 f2 ed	 xor	 dl, -19			; ffffffedH
  00068	88 55 e8	 mov	 BYTE PTR __k$[ebp+4], dl
  0006b	8a 50 05	 mov	 dl, BYTE PTR [eax+5]
  0006e	84 d2		 test	 dl, dl
  00070	0f 84 4a 01 00
	00		 je	 $LN91@LoadInt_e
  00076	80 f2 ec	 xor	 dl, -20			; ffffffecH
  00079	88 55 e9	 mov	 BYTE PTR __k$[ebp+5], dl
  0007c	8a 50 06	 mov	 dl, BYTE PTR [eax+6]
  0007f	84 d2		 test	 dl, dl
  00081	0f 84 34 01 00
	00		 je	 $LN90@LoadInt_e
  00087	32 d1		 xor	 dl, cl
  00089	88 55 ea	 mov	 BYTE PTR __k$[ebp+6], dl
  0008c	8a 50 07	 mov	 dl, BYTE PTR [eax+7]
  0008f	84 d2		 test	 dl, dl
  00091	0f 84 1e 01 00
	00		 je	 $LN89@LoadInt_e
  00097	80 f2 ea	 xor	 dl, -22			; ffffffeaH
  0009a	88 55 eb	 mov	 BYTE PTR __k$[ebp+7], dl
  0009d	8a 50 08	 mov	 dl, BYTE PTR [eax+8]
  000a0	84 d2		 test	 dl, dl
  000a2	0f 84 07 01 00
	00		 je	 $LN88@LoadInt_e
  000a8	80 f2 ed	 xor	 dl, -19			; ffffffedH
  000ab	88 55 ec	 mov	 BYTE PTR __k$[ebp+8], dl
  000ae	8a 50 09	 mov	 dl, BYTE PTR [eax+9]
  000b1	84 d2		 test	 dl, dl
  000b3	0f 84 f0 00 00
	00		 je	 $LN87@LoadInt_e
  000b9	80 f2 ec	 xor	 dl, -20			; ffffffecH
  000bc	88 55 ed	 mov	 BYTE PTR __k$[ebp+9], dl
  000bf	8a 50 0a	 mov	 dl, BYTE PTR [eax+10]
  000c2	84 d2		 test	 dl, dl
  000c4	0f 84 da 00 00
	00		 je	 $LN86@LoadInt_e
  000ca	32 d1		 xor	 dl, cl
  000cc	88 55 ee	 mov	 BYTE PTR __k$[ebp+10], dl
  000cf	8a 50 0b	 mov	 dl, BYTE PTR [eax+11]
  000d2	84 d2		 test	 dl, dl
  000d4	0f 84 c4 00 00
	00		 je	 $LN85@LoadInt_e
  000da	80 f2 ea	 xor	 dl, -22			; ffffffeaH
  000dd	88 55 ef	 mov	 BYTE PTR __k$[ebp+11], dl
  000e0	8a 50 0c	 mov	 dl, BYTE PTR [eax+12]
  000e3	84 d2		 test	 dl, dl
  000e5	0f 84 ad 00 00
	00		 je	 $LN84@LoadInt_e
  000eb	80 f2 ed	 xor	 dl, -19			; ffffffedH
  000ee	88 55 f0	 mov	 BYTE PTR __k$[ebp+12], dl
  000f1	8a 50 0d	 mov	 dl, BYTE PTR [eax+13]
  000f4	84 d2		 test	 dl, dl
  000f6	0f 84 96 00 00
	00		 je	 $LN83@LoadInt_e
  000fc	80 f2 ec	 xor	 dl, -20			; ffffffecH
  000ff	88 55 f1	 mov	 BYTE PTR __k$[ebp+13], dl
  00102	8a 50 0e	 mov	 dl, BYTE PTR [eax+14]
  00105	84 d2		 test	 dl, dl
  00107	0f 84 80 00 00
	00		 je	 $LN82@LoadInt_e
  0010d	32 d1		 xor	 dl, cl
  0010f	88 55 f2	 mov	 BYTE PTR __k$[ebp+14], dl
  00112	8a 50 0f	 mov	 dl, BYTE PTR [eax+15]
  00115	84 d2		 test	 dl, dl
  00117	74 6e		 je	 SHORT $LN81@LoadInt_e
  00119	80 f2 ea	 xor	 dl, -22			; ffffffeaH
  0011c	88 55 f3	 mov	 BYTE PTR __k$[ebp+15], dl
  0011f	8a 50 10	 mov	 dl, BYTE PTR [eax+16]
  00122	84 d2		 test	 dl, dl
  00124	74 5b		 je	 SHORT $LN80@LoadInt_e
  00126	80 f2 ed	 xor	 dl, -19			; ffffffedH
  00129	80 78 11 00	 cmp	 BYTE PTR [eax+17], 0
  0012d	88 55 f4	 mov	 BYTE PTR __k$[ebp+16], dl
  00130	0f 84 ac 00 00
	00		 je	 $LN1@LoadInt_e
  00136	8a 50 12	 mov	 dl, BYTE PTR [eax+18]
  00139	84 d2		 test	 dl, dl
  0013b	74 3f		 je	 SHORT $LN78@LoadInt_e
  0013d	32 d1		 xor	 dl, cl
  0013f	88 55 f6	 mov	 BYTE PTR __k$[ebp+18], dl
  00142	8a 50 13	 mov	 dl, BYTE PTR [eax+19]
  00145	84 d2		 test	 dl, dl
  00147	74 2d		 je	 SHORT $LN77@LoadInt_e
  00149	80 f2 ea	 xor	 dl, -22			; ffffffeaH
  0014c	88 55 f7	 mov	 BYTE PTR __k$[ebp+19], dl
  0014f	8a 50 14	 mov	 dl, BYTE PTR [eax+20]
  00152	84 d2		 test	 dl, dl
  00154	74 1a		 je	 SHORT $LN76@LoadInt_e
  00156	8a 40 15	 mov	 al, BYTE PTR [eax+21]
  00159	80 f2 ed	 xor	 dl, -19			; ffffffedH
  0015c	88 55 f8	 mov	 BYTE PTR __k$[ebp+20], dl
  0015f	84 c0		 test	 al, al
  00161	74 07		 je	 SHORT $LN75@LoadInt_e
  00163	34 ec		 xor	 al, -20			; ffffffecH
  00165	88 45 f9	 mov	 BYTE PTR __k$[ebp+21], al
  00168	eb 78		 jmp	 SHORT $LN1@LoadInt_e
$LN75@LoadInt_e:
  0016a	c6 45 f9 ec	 mov	 BYTE PTR __k$[ebp+21], -20 ; ffffffecH
  0016e	eb 72		 jmp	 SHORT $LN1@LoadInt_e
$LN76@LoadInt_e:
  00170	c6 45 f8 ed	 mov	 BYTE PTR __k$[ebp+20], -19 ; ffffffedH
  00174	eb 6c		 jmp	 SHORT $LN1@LoadInt_e
$LN77@LoadInt_e:
  00176	c6 45 f7 ea	 mov	 BYTE PTR __k$[ebp+19], -22 ; ffffffeaH
  0017a	eb 66		 jmp	 SHORT $LN1@LoadInt_e
$LN78@LoadInt_e:
  0017c	88 4d f6	 mov	 BYTE PTR __k$[ebp+18], cl
  0017f	eb 61		 jmp	 SHORT $LN1@LoadInt_e
$LN80@LoadInt_e:
  00181	c6 45 f4 ed	 mov	 BYTE PTR __k$[ebp+16], -19 ; ffffffedH
  00185	eb 5b		 jmp	 SHORT $LN1@LoadInt_e
$LN81@LoadInt_e:
  00187	c6 45 f3 ea	 mov	 BYTE PTR __k$[ebp+15], -22 ; ffffffeaH
  0018b	eb 55		 jmp	 SHORT $LN1@LoadInt_e
$LN82@LoadInt_e:
  0018d	88 4d f2	 mov	 BYTE PTR __k$[ebp+14], cl
  00190	eb 50		 jmp	 SHORT $LN1@LoadInt_e
$LN83@LoadInt_e:
  00192	c6 45 f1 ec	 mov	 BYTE PTR __k$[ebp+13], -20 ; ffffffecH
  00196	eb 4a		 jmp	 SHORT $LN1@LoadInt_e
$LN84@LoadInt_e:
  00198	c6 45 f0 ed	 mov	 BYTE PTR __k$[ebp+12], -19 ; ffffffedH
  0019c	eb 44		 jmp	 SHORT $LN1@LoadInt_e
$LN85@LoadInt_e:
  0019e	c6 45 ef ea	 mov	 BYTE PTR __k$[ebp+11], -22 ; ffffffeaH
  001a2	eb 3e		 jmp	 SHORT $LN1@LoadInt_e
$LN86@LoadInt_e:
  001a4	88 4d ee	 mov	 BYTE PTR __k$[ebp+10], cl
  001a7	eb 39		 jmp	 SHORT $LN1@LoadInt_e
$LN87@LoadInt_e:
  001a9	c6 45 ed ec	 mov	 BYTE PTR __k$[ebp+9], -20 ; ffffffecH
  001ad	eb 33		 jmp	 SHORT $LN1@LoadInt_e
$LN88@LoadInt_e:
  001af	c6 45 ec ed	 mov	 BYTE PTR __k$[ebp+8], -19 ; ffffffedH
  001b3	eb 2d		 jmp	 SHORT $LN1@LoadInt_e
$LN89@LoadInt_e:
  001b5	c6 45 eb ea	 mov	 BYTE PTR __k$[ebp+7], -22 ; ffffffeaH
  001b9	eb 27		 jmp	 SHORT $LN1@LoadInt_e
$LN90@LoadInt_e:
  001bb	88 4d ea	 mov	 BYTE PTR __k$[ebp+6], cl
  001be	eb 22		 jmp	 SHORT $LN1@LoadInt_e
$LN91@LoadInt_e:
  001c0	c6 45 e9 ec	 mov	 BYTE PTR __k$[ebp+5], -20 ; ffffffecH
  001c4	eb 1c		 jmp	 SHORT $LN1@LoadInt_e
$LN92@LoadInt_e:
  001c6	c6 45 e8 ed	 mov	 BYTE PTR __k$[ebp+4], -19 ; ffffffedH
  001ca	eb 16		 jmp	 SHORT $LN1@LoadInt_e
$LN93@LoadInt_e:
  001cc	c6 45 e7 ea	 mov	 BYTE PTR __k$[ebp+3], -22 ; ffffffeaH
  001d0	eb 10		 jmp	 SHORT $LN1@LoadInt_e
$LN94@LoadInt_e:
  001d2	c6 45 e6 eb	 mov	 BYTE PTR __k$[ebp+2], -21 ; ffffffebH
  001d6	eb 0a		 jmp	 SHORT $LN1@LoadInt_e
$LN95@LoadInt_e:
  001d8	c6 45 e5 ec	 mov	 BYTE PTR __k$[ebp+1], -20 ; ffffffecH
  001dc	eb 04		 jmp	 SHORT $LN1@LoadInt_e
$LN96@LoadInt_e:
  001de	c6 45 e4 ed	 mov	 BYTE PTR __k$[ebp], -19	; ffffffedH
$LN1@LoadInt_e:
  001e2	6a 04		 push	 4
  001e4	8d 45 e4	 lea	 eax, DWORD PTR __k$[ebp]
  001e7	c6 45 f5 00	 mov	 BYTE PTR __k$[ebp+17], 0
  001eb	5a		 pop	 edx
$LL104@LoadInt_e:
  001ec	81 30 ed ec eb
	ea		 xor	 DWORD PTR [eax], -353637139 ; eaebecedH
  001f2	83 c0 04	 add	 eax, 4
  001f5	4a		 dec	 edx
  001f6	75 f4		 jne	 SHORT $LL104@LoadInt_e

; 120  : 		return LoadInt(_k, i);

  001f8	ff 75 0c	 push	 DWORD PTR _i$[ebp]
  001fb	80 75 f4 ed	 xor	 BYTE PTR __k$[ebp+16], -19 ; ffffffedH
  001ff	8d 45 e4	 lea	 eax, DWORD PTR __k$[ebp]
  00202	50		 push	 eax
  00203	8b ce		 mov	 ecx, esi
  00205	ff 15 00 00 00
	00		 call	 DWORD PTR __imp_?LoadInt@ioINILoader@@QAEHPBDH@Z

; 121  : 	}

  0020b	8b 4d fc	 mov	 ecx, DWORD PTR __$ArrayPad$[ebp]
  0020e	33 cd		 xor	 ecx, ebp
  00210	5e		 pop	 esi
  00211	e8 00 00 00 00	 call	 @__security_check_cookie@4
  00216	c9		 leave
  00217	c2 08 00	 ret	 8
??$LoadInt_e@$0BC@@ioINILoader@@QAEHAAY0BC@$$CBDH@Z ENDP ; ioINILoader::LoadInt_e<18>
_TEXT	ENDS
PUBLIC	__$ArrayPad$
PUBLIC	??$LoadFloat_e@$0BC@@ioINILoader@@QAEMAAY0BC@$$CBDM@Z ; ioINILoader::LoadFloat_e<18>
EXTRN	__imp_?LoadFloat@ioINILoader@@QAEMPBDM@Z:PROC
; Function compile flags: /Ogsp
;	COMDAT ??$LoadFloat_e@$0BC@@ioINILoader@@QAEMAAY0BC@$$CBDM@Z
_TEXT	SEGMENT
__k$ = -28						; size = 18
__$ArrayPad$ = -4					; size = 4
_k$ = 8							; size = 4
_f$ = 12						; size = 4
??$LoadFloat_e@$0BC@@ioINILoader@@QAEMAAY0BC@$$CBDM@Z PROC ; ioINILoader::LoadFloat_e<18>, COMDAT
; _this$ = ecx

; 135  : 	{

  00000	55		 push	 ebp
  00001	8b ec		 mov	 ebp, esp
  00003	83 ec 1c	 sub	 esp, 28			; 0000001cH
  00006	a1 00 00 00 00	 mov	 eax, DWORD PTR ___security_cookie
  0000b	33 c5		 xor	 eax, ebp
  0000d	89 45 fc	 mov	 DWORD PTR __$ArrayPad$[ebp], eax
  00010	8b 45 08	 mov	 eax, DWORD PTR _k$[ebp]

; 136  : 		_ENCSTR(k, _k);

  00013	8a 10		 mov	 dl, BYTE PTR [eax]
  00015	56		 push	 esi
  00016	8b f1		 mov	 esi, ecx
  00018	84 d2		 test	 dl, dl
  0001a	0f 84 be 01 00
	00		 je	 $LN96@LoadFloat_
  00020	80 f2 ed	 xor	 dl, -19			; ffffffedH
  00023	88 55 e4	 mov	 BYTE PTR __k$[ebp], dl
  00026	8a 50 01	 mov	 dl, BYTE PTR [eax+1]
  00029	84 d2		 test	 dl, dl
  0002b	0f 84 a7 01 00
	00		 je	 $LN95@LoadFloat_
  00031	80 f2 ec	 xor	 dl, -20			; ffffffecH
  00034	88 55 e5	 mov	 BYTE PTR __k$[ebp+1], dl
  00037	8a 50 02	 mov	 dl, BYTE PTR [eax+2]
  0003a	84 d2		 test	 dl, dl
  0003c	0f 84 90 01 00
	00		 je	 $LN94@LoadFloat_
  00042	b1 eb		 mov	 cl, -21			; ffffffebH
  00044	32 d1		 xor	 dl, cl
  00046	88 55 e6	 mov	 BYTE PTR __k$[ebp+2], dl
  00049	8a 50 03	 mov	 dl, BYTE PTR [eax+3]
  0004c	84 d2		 test	 dl, dl
  0004e	0f 84 78 01 00
	00		 je	 $LN93@LoadFloat_
  00054	80 f2 ea	 xor	 dl, -22			; ffffffeaH
  00057	88 55 e7	 mov	 BYTE PTR __k$[ebp+3], dl
  0005a	8a 50 04	 mov	 dl, BYTE PTR [eax+4]
  0005d	84 d2		 test	 dl, dl
  0005f	0f 84 61 01 00
	00		 je	 $LN92@LoadFloat_
  00065	80 f2 ed	 xor	 dl, -19			; ffffffedH
  00068	88 55 e8	 mov	 BYTE PTR __k$[ebp+4], dl
  0006b	8a 50 05	 mov	 dl, BYTE PTR [eax+5]
  0006e	84 d2		 test	 dl, dl
  00070	0f 84 4a 01 00
	00		 je	 $LN91@LoadFloat_
  00076	80 f2 ec	 xor	 dl, -20			; ffffffecH
  00079	88 55 e9	 mov	 BYTE PTR __k$[ebp+5], dl
  0007c	8a 50 06	 mov	 dl, BYTE PTR [eax+6]
  0007f	84 d2		 test	 dl, dl
  00081	0f 84 34 01 00
	00		 je	 $LN90@LoadFloat_
  00087	32 d1		 xor	 dl, cl
  00089	88 55 ea	 mov	 BYTE PTR __k$[ebp+6], dl
  0008c	8a 50 07	 mov	 dl, BYTE PTR [eax+7]
  0008f	84 d2		 test	 dl, dl
  00091	0f 84 1e 01 00
	00		 je	 $LN89@LoadFloat_
  00097	80 f2 ea	 xor	 dl, -22			; ffffffeaH
  0009a	88 55 eb	 mov	 BYTE PTR __k$[ebp+7], dl
  0009d	8a 50 08	 mov	 dl, BYTE PTR [eax+8]
  000a0	84 d2		 test	 dl, dl
  000a2	0f 84 07 01 00
	00		 je	 $LN88@LoadFloat_
  000a8	80 f2 ed	 xor	 dl, -19			; ffffffedH
  000ab	88 55 ec	 mov	 BYTE PTR __k$[ebp+8], dl
  000ae	8a 50 09	 mov	 dl, BYTE PTR [eax+9]
  000b1	84 d2		 test	 dl, dl
  000b3	0f 84 f0 00 00
	00		 je	 $LN87@LoadFloat_
  000b9	80 f2 ec	 xor	 dl, -20			; ffffffecH
  000bc	88 55 ed	 mov	 BYTE PTR __k$[ebp+9], dl
  000bf	8a 50 0a	 mov	 dl, BYTE PTR [eax+10]
  000c2	84 d2		 test	 dl, dl
  000c4	0f 84 da 00 00
	00		 je	 $LN86@LoadFloat_
  000ca	32 d1		 xor	 dl, cl
  000cc	88 55 ee	 mov	 BYTE PTR __k$[ebp+10], dl
  000cf	8a 50 0b	 mov	 dl, BYTE PTR [eax+11]
  000d2	84 d2		 test	 dl, dl
  000d4	0f 84 c4 00 00
	00		 je	 $LN85@LoadFloat_
  000da	80 f2 ea	 xor	 dl, -22			; ffffffeaH
  000dd	88 55 ef	 mov	 BYTE PTR __k$[ebp+11], dl
  000e0	8a 50 0c	 mov	 dl, BYTE PTR [eax+12]
  000e3	84 d2		 test	 dl, dl
  000e5	0f 84 ad 00 00
	00		 je	 $LN84@LoadFloat_
  000eb	80 f2 ed	 xor	 dl, -19			; ffffffedH
  000ee	88 55 f0	 mov	 BYTE PTR __k$[ebp+12], dl
  000f1	8a 50 0d	 mov	 dl, BYTE PTR [eax+13]
  000f4	84 d2		 test	 dl, dl
  000f6	0f 84 96 00 00
	00		 je	 $LN83@LoadFloat_
  000fc	80 f2 ec	 xor	 dl, -20			; ffffffecH
  000ff	88 55 f1	 mov	 BYTE PTR __k$[ebp+13], dl
  00102	8a 50 0e	 mov	 dl, BYTE PTR [eax+14]
  00105	84 d2		 test	 dl, dl
  00107	0f 84 80 00 00
	00		 je	 $LN82@LoadFloat_
  0010d	32 d1		 xor	 dl, cl
  0010f	88 55 f2	 mov	 BYTE PTR __k$[ebp+14], dl
  00112	8a 50 0f	 mov	 dl, BYTE PTR [eax+15]
  00115	84 d2		 test	 dl, dl
  00117	74 6e		 je	 SHORT $LN81@LoadFloat_
  00119	80 f2 ea	 xor	 dl, -22			; ffffffeaH
  0011c	88 55 f3	 mov	 BYTE PTR __k$[ebp+15], dl
  0011f	8a 50 10	 mov	 dl, BYTE PTR [eax+16]
  00122	84 d2		 test	 dl, dl
  00124	74 5b		 je	 SHORT $LN80@LoadFloat_
  00126	80 f2 ed	 xor	 dl, -19			; ffffffedH
  00129	80 78 11 00	 cmp	 BYTE PTR [eax+17], 0
  0012d	88 55 f4	 mov	 BYTE PTR __k$[ebp+16], dl
  00130	0f 84 ac 00 00
	00		 je	 $LN1@LoadFloat_
  00136	8a 50 12	 mov	 dl, BYTE PTR [eax+18]
  00139	84 d2		 test	 dl, dl
  0013b	74 3f		 je	 SHORT $LN78@LoadFloat_
  0013d	32 d1		 xor	 dl, cl
  0013f	88 55 f6	 mov	 BYTE PTR __k$[ebp+18], dl
  00142	8a 50 13	 mov	 dl, BYTE PTR [eax+19]
  00145	84 d2		 test	 dl, dl
  00147	74 2d		 je	 SHORT $LN77@LoadFloat_
  00149	80 f2 ea	 xor	 dl, -22			; ffffffeaH
  0014c	88 55 f7	 mov	 BYTE PTR __k$[ebp+19], dl
  0014f	8a 50 14	 mov	 dl, BYTE PTR [eax+20]
  00152	84 d2		 test	 dl, dl
  00154	74 1a		 je	 SHORT $LN76@LoadFloat_
  00156	8a 40 15	 mov	 al, BYTE PTR [eax+21]
  00159	80 f2 ed	 xor	 dl, -19			; ffffffedH
  0015c	88 55 f8	 mov	 BYTE PTR __k$[ebp+20], dl
  0015f	84 c0		 test	 al, al
  00161	74 07		 je	 SHORT $LN75@LoadFloat_
  00163	34 ec		 xor	 al, -20			; ffffffecH
  00165	88 45 f9	 mov	 BYTE PTR __k$[ebp+21], al
  00168	eb 78		 jmp	 SHORT $LN1@LoadFloat_
$LN75@LoadFloat_:
  0016a	c6 45 f9 ec	 mov	 BYTE PTR __k$[ebp+21], -20 ; ffffffecH
  0016e	eb 72		 jmp	 SHORT $LN1@LoadFloat_
$LN76@LoadFloat_:
  00170	c6 45 f8 ed	 mov	 BYTE PTR __k$[ebp+20], -19 ; ffffffedH
  00174	eb 6c		 jmp	 SHORT $LN1@LoadFloat_
$LN77@LoadFloat_:
  00176	c6 45 f7 ea	 mov	 BYTE PTR __k$[ebp+19], -22 ; ffffffeaH
  0017a	eb 66		 jmp	 SHORT $LN1@LoadFloat_
$LN78@LoadFloat_:
  0017c	88 4d f6	 mov	 BYTE PTR __k$[ebp+18], cl
  0017f	eb 61		 jmp	 SHORT $LN1@LoadFloat_
$LN80@LoadFloat_:
  00181	c6 45 f4 ed	 mov	 BYTE PTR __k$[ebp+16], -19 ; ffffffedH
  00185	eb 5b		 jmp	 SHORT $LN1@LoadFloat_
$LN81@LoadFloat_:
  00187	c6 45 f3 ea	 mov	 BYTE PTR __k$[ebp+15], -22 ; ffffffeaH
  0018b	eb 55		 jmp	 SHORT $LN1@LoadFloat_
$LN82@LoadFloat_:
  0018d	88 4d f2	 mov	 BYTE PTR __k$[ebp+14], cl
  00190	eb 50		 jmp	 SHORT $LN1@LoadFloat_
$LN83@LoadFloat_:
  00192	c6 45 f1 ec	 mov	 BYTE PTR __k$[ebp+13], -20 ; ffffffecH
  00196	eb 4a		 jmp	 SHORT $LN1@LoadFloat_
$LN84@LoadFloat_:
  00198	c6 45 f0 ed	 mov	 BYTE PTR __k$[ebp+12], -19 ; ffffffedH
  0019c	eb 44		 jmp	 SHORT $LN1@LoadFloat_
$LN85@LoadFloat_:
  0019e	c6 45 ef ea	 mov	 BYTE PTR __k$[ebp+11], -22 ; ffffffeaH
  001a2	eb 3e		 jmp	 SHORT $LN1@LoadFloat_
$LN86@LoadFloat_:
  001a4	88 4d ee	 mov	 BYTE PTR __k$[ebp+10], cl
  001a7	eb 39		 jmp	 SHORT $LN1@LoadFloat_
$LN87@LoadFloat_:
  001a9	c6 45 ed ec	 mov	 BYTE PTR __k$[ebp+9], -20 ; ffffffecH
  001ad	eb 33		 jmp	 SHORT $LN1@LoadFloat_
$LN88@LoadFloat_:
  001af	c6 45 ec ed	 mov	 BYTE PTR __k$[ebp+8], -19 ; ffffffedH
  001b3	eb 2d		 jmp	 SHORT $LN1@LoadFloat_
$LN89@LoadFloat_:
  001b5	c6 45 eb ea	 mov	 BYTE PTR __k$[ebp+7], -22 ; ffffffeaH
  001b9	eb 27		 jmp	 SHORT $LN1@LoadFloat_
$LN90@LoadFloat_:
  001bb	88 4d ea	 mov	 BYTE PTR __k$[ebp+6], cl
  001be	eb 22		 jmp	 SHORT $LN1@LoadFloat_
$LN91@LoadFloat_:
  001c0	c6 45 e9 ec	 mov	 BYTE PTR __k$[ebp+5], -20 ; ffffffecH
  001c4	eb 1c		 jmp	 SHORT $LN1@LoadFloat_
$LN92@LoadFloat_:
  001c6	c6 45 e8 ed	 mov	 BYTE PTR __k$[ebp+4], -19 ; ffffffedH
  001ca	eb 16		 jmp	 SHORT $LN1@LoadFloat_
$LN93@LoadFloat_:
  001cc	c6 45 e7 ea	 mov	 BYTE PTR __k$[ebp+3], -22 ; ffffffeaH
  001d0	eb 10		 jmp	 SHORT $LN1@LoadFloat_
$LN94@LoadFloat_:
  001d2	c6 45 e6 eb	 mov	 BYTE PTR __k$[ebp+2], -21 ; ffffffebH
  001d6	eb 0a		 jmp	 SHORT $LN1@LoadFloat_
$LN95@LoadFloat_:
  001d8	c6 45 e5 ec	 mov	 BYTE PTR __k$[ebp+1], -20 ; ffffffecH
  001dc	eb 04		 jmp	 SHORT $LN1@LoadFloat_
$LN96@LoadFloat_:
  001de	c6 45 e4 ed	 mov	 BYTE PTR __k$[ebp], -19	; ffffffedH
$LN1@LoadFloat_:
  001e2	6a 04		 push	 4
  001e4	8d 45 e4	 lea	 eax, DWORD PTR __k$[ebp]
  001e7	c6 45 f5 00	 mov	 BYTE PTR __k$[ebp+17], 0
  001eb	5a		 pop	 edx
$LL104@LoadFloat_:
  001ec	81 30 ed ec eb
	ea		 xor	 DWORD PTR [eax], -353637139 ; eaebecedH
  001f2	83 c0 04	 add	 eax, 4
  001f5	4a		 dec	 edx
  001f6	75 f4		 jne	 SHORT $LL104@LoadFloat_

; 137  : 		return LoadFloat(_k, f);

  001f8	f3 0f 10 45 0c	 movss	 xmm0, DWORD PTR _f$[ebp]
  001fd	80 75 f4 ed	 xor	 BYTE PTR __k$[ebp+16], -19 ; ffffffedH
  00201	51		 push	 ecx
  00202	8d 45 e4	 lea	 eax, DWORD PTR __k$[ebp]
  00205	f3 0f 11 04 24	 movss	 DWORD PTR [esp], xmm0
  0020a	50		 push	 eax
  0020b	8b ce		 mov	 ecx, esi
  0020d	ff 15 00 00 00
	00		 call	 DWORD PTR __imp_?LoadFloat@ioINILoader@@QAEMPBDM@Z

; 138  : 	}

  00213	8b 4d fc	 mov	 ecx, DWORD PTR __$ArrayPad$[ebp]
  00216	33 cd		 xor	 ecx, ebp
  00218	5e		 pop	 esi
  00219	e8 00 00 00 00	 call	 @__security_check_cookie@4
  0021e	c9		 leave
  0021f	c2 08 00	 ret	 8
??$LoadFloat_e@$0BC@@ioINILoader@@QAEMAAY0BC@$$CBDM@Z ENDP ; ioINILoader::LoadFloat_e<18>
_TEXT	ENDS
PUBLIC	__$ArrayPad$
PUBLIC	??$LoadFloat_e@$0BG@@ioINILoader@@QAEMAAY0BG@$$CBDM@Z ; ioINILoader::LoadFloat_e<22>
; Function compile flags: /Ogsp
;	COMDAT ??$LoadFloat_e@$0BG@@ioINILoader@@QAEMAAY0BG@$$CBDM@Z
_TEXT	SEGMENT
__k$ = -32						; size = 22
__$ArrayPad$ = -4					; size = 4
_k$ = 8							; size = 4
_f$ = 12						; size = 4
??$LoadFloat_e@$0BG@@ioINILoader@@QAEMAAY0BG@$$CBDM@Z PROC ; ioINILoader::LoadFloat_e<22>, COMDAT
; _this$ = ecx

; 135  : 	{

  00000	55		 push	 ebp
  00001	8b ec		 mov	 ebp, esp
  00003	83 ec 20	 sub	 esp, 32			; 00000020H
  00006	a1 00 00 00 00	 mov	 eax, DWORD PTR ___security_cookie
  0000b	33 c5		 xor	 eax, ebp
  0000d	89 45 fc	 mov	 DWORD PTR __$ArrayPad$[ebp], eax
  00010	8b 45 08	 mov	 eax, DWORD PTR _k$[ebp]

; 136  : 		_ENCSTR(k, _k);

  00013	8a 10		 mov	 dl, BYTE PTR [eax]
  00015	53		 push	 ebx
  00016	56		 push	 esi
  00017	8b f1		 mov	 esi, ecx
  00019	84 d2		 test	 dl, dl
  0001b	0f 84 15 02 00
	00		 je	 $LN96@LoadFloat_@2
  00021	80 f2 ed	 xor	 dl, -19			; ffffffedH
  00024	88 55 e0	 mov	 BYTE PTR __k$[ebp], dl
  00027	8a 50 01	 mov	 dl, BYTE PTR [eax+1]
  0002a	84 d2		 test	 dl, dl
  0002c	0f 84 fe 01 00
	00		 je	 $LN95@LoadFloat_@2
  00032	80 f2 ec	 xor	 dl, -20			; ffffffecH
  00035	88 55 e1	 mov	 BYTE PTR __k$[ebp+1], dl
  00038	8a 50 02	 mov	 dl, BYTE PTR [eax+2]
  0003b	84 d2		 test	 dl, dl
  0003d	0f 84 e7 01 00
	00		 je	 $LN94@LoadFloat_@2
  00043	b1 eb		 mov	 cl, -21			; ffffffebH
  00045	32 d1		 xor	 dl, cl
  00047	88 55 e2	 mov	 BYTE PTR __k$[ebp+2], dl
  0004a	8a 50 03	 mov	 dl, BYTE PTR [eax+3]
  0004d	84 d2		 test	 dl, dl
  0004f	0f 84 cf 01 00
	00		 je	 $LN93@LoadFloat_@2
  00055	b3 ea		 mov	 bl, -22			; ffffffeaH
  00057	32 d3		 xor	 dl, bl
  00059	88 55 e3	 mov	 BYTE PTR __k$[ebp+3], dl
  0005c	8a 50 04	 mov	 dl, BYTE PTR [eax+4]
  0005f	84 d2		 test	 dl, dl
  00061	0f 84 b7 01 00
	00		 je	 $LN92@LoadFloat_@2
  00067	80 f2 ed	 xor	 dl, -19			; ffffffedH
  0006a	88 55 e4	 mov	 BYTE PTR __k$[ebp+4], dl
  0006d	8a 50 05	 mov	 dl, BYTE PTR [eax+5]
  00070	84 d2		 test	 dl, dl
  00072	0f 84 a0 01 00
	00		 je	 $LN91@LoadFloat_@2
  00078	80 f2 ec	 xor	 dl, -20			; ffffffecH
  0007b	88 55 e5	 mov	 BYTE PTR __k$[ebp+5], dl
  0007e	8a 50 06	 mov	 dl, BYTE PTR [eax+6]
  00081	84 d2		 test	 dl, dl
  00083	0f 84 8a 01 00
	00		 je	 $LN90@LoadFloat_@2
  00089	32 d1		 xor	 dl, cl
  0008b	88 55 e6	 mov	 BYTE PTR __k$[ebp+6], dl
  0008e	8a 50 07	 mov	 dl, BYTE PTR [eax+7]
  00091	84 d2		 test	 dl, dl
  00093	0f 84 75 01 00
	00		 je	 $LN89@LoadFloat_@2
  00099	32 d3		 xor	 dl, bl
  0009b	88 55 e7	 mov	 BYTE PTR __k$[ebp+7], dl
  0009e	8a 50 08	 mov	 dl, BYTE PTR [eax+8]
  000a1	84 d2		 test	 dl, dl
  000a3	0f 84 5f 01 00
	00		 je	 $LN88@LoadFloat_@2
  000a9	80 f2 ed	 xor	 dl, -19			; ffffffedH
  000ac	88 55 e8	 mov	 BYTE PTR __k$[ebp+8], dl
  000af	8a 50 09	 mov	 dl, BYTE PTR [eax+9]
  000b2	84 d2		 test	 dl, dl
  000b4	0f 84 48 01 00
	00		 je	 $LN87@LoadFloat_@2
  000ba	80 f2 ec	 xor	 dl, -20			; ffffffecH
  000bd	88 55 e9	 mov	 BYTE PTR __k$[ebp+9], dl
  000c0	8a 50 0a	 mov	 dl, BYTE PTR [eax+10]
  000c3	84 d2		 test	 dl, dl
  000c5	0f 84 32 01 00
	00		 je	 $LN86@LoadFloat_@2
  000cb	32 d1		 xor	 dl, cl
  000cd	88 55 ea	 mov	 BYTE PTR __k$[ebp+10], dl
  000d0	8a 50 0b	 mov	 dl, BYTE PTR [eax+11]
  000d3	84 d2		 test	 dl, dl
  000d5	0f 84 1d 01 00
	00		 je	 $LN85@LoadFloat_@2
  000db	32 d3		 xor	 dl, bl
  000dd	88 55 eb	 mov	 BYTE PTR __k$[ebp+11], dl
  000e0	8a 50 0c	 mov	 dl, BYTE PTR [eax+12]
  000e3	84 d2		 test	 dl, dl
  000e5	0f 84 07 01 00
	00		 je	 $LN84@LoadFloat_@2
  000eb	80 f2 ed	 xor	 dl, -19			; ffffffedH
  000ee	88 55 ec	 mov	 BYTE PTR __k$[ebp+12], dl
  000f1	8a 50 0d	 mov	 dl, BYTE PTR [eax+13]
  000f4	84 d2		 test	 dl, dl
  000f6	0f 84 f0 00 00
	00		 je	 $LN83@LoadFloat_@2
  000fc	80 f2 ec	 xor	 dl, -20			; ffffffecH
  000ff	88 55 ed	 mov	 BYTE PTR __k$[ebp+13], dl
  00102	8a 50 0e	 mov	 dl, BYTE PTR [eax+14]
  00105	84 d2		 test	 dl, dl
  00107	0f 84 da 00 00
	00		 je	 $LN82@LoadFloat_@2
  0010d	32 d1		 xor	 dl, cl
  0010f	88 55 ee	 mov	 BYTE PTR __k$[ebp+14], dl
  00112	8a 50 0f	 mov	 dl, BYTE PTR [eax+15]
  00115	84 d2		 test	 dl, dl
  00117	0f 84 c5 00 00
	00		 je	 $LN81@LoadFloat_@2
  0011d	32 d3		 xor	 dl, bl
  0011f	88 55 ef	 mov	 BYTE PTR __k$[ebp+15], dl
  00122	8a 50 10	 mov	 dl, BYTE PTR [eax+16]
  00125	84 d2		 test	 dl, dl
  00127	0f 84 af 00 00
	00		 je	 $LN80@LoadFloat_@2
  0012d	80 f2 ed	 xor	 dl, -19			; ffffffedH
  00130	88 55 f0	 mov	 BYTE PTR __k$[ebp+16], dl
  00133	8a 50 11	 mov	 dl, BYTE PTR [eax+17]
  00136	84 d2		 test	 dl, dl
  00138	0f 84 98 00 00
	00		 je	 $LN79@LoadFloat_@2
  0013e	80 f2 ec	 xor	 dl, -20			; ffffffecH
  00141	88 55 f1	 mov	 BYTE PTR __k$[ebp+17], dl
  00144	8a 50 12	 mov	 dl, BYTE PTR [eax+18]
  00147	84 d2		 test	 dl, dl
  00149	0f 84 82 00 00
	00		 je	 $LN78@LoadFloat_@2
  0014f	32 d1		 xor	 dl, cl
  00151	88 55 f2	 mov	 BYTE PTR __k$[ebp+18], dl
  00154	8a 50 13	 mov	 dl, BYTE PTR [eax+19]
  00157	84 d2		 test	 dl, dl
  00159	74 71		 je	 SHORT $LN77@LoadFloat_@2
  0015b	32 d3		 xor	 dl, bl
  0015d	88 55 f3	 mov	 BYTE PTR __k$[ebp+19], dl
  00160	8a 50 14	 mov	 dl, BYTE PTR [eax+20]
  00163	84 d2		 test	 dl, dl
  00165	74 5f		 je	 SHORT $LN76@LoadFloat_@2
  00167	80 f2 ed	 xor	 dl, -19			; ffffffedH
  0016a	80 78 15 00	 cmp	 BYTE PTR [eax+21], 0
  0016e	88 55 f4	 mov	 BYTE PTR __k$[ebp+20], dl
  00171	0f 84 c3 00 00
	00		 je	 $LN1@LoadFloat_@2
  00177	8a 50 16	 mov	 dl, BYTE PTR [eax+22]
  0017a	84 d2		 test	 dl, dl
  0017c	74 43		 je	 SHORT $LN74@LoadFloat_@2
  0017e	32 d1		 xor	 dl, cl
  00180	88 55 f6	 mov	 BYTE PTR __k$[ebp+22], dl
  00183	8a 50 17	 mov	 dl, BYTE PTR [eax+23]
  00186	84 d2		 test	 dl, dl
  00188	74 32		 je	 SHORT $LN73@LoadFloat_@2
  0018a	32 d3		 xor	 dl, bl
  0018c	88 55 f7	 mov	 BYTE PTR __k$[ebp+23], dl
  0018f	8a 50 18	 mov	 dl, BYTE PTR [eax+24]
  00192	84 d2		 test	 dl, dl
  00194	74 20		 je	 SHORT $LN72@LoadFloat_@2
  00196	8a 40 19	 mov	 al, BYTE PTR [eax+25]
  00199	80 f2 ed	 xor	 dl, -19			; ffffffedH
  0019c	88 55 f8	 mov	 BYTE PTR __k$[ebp+24], dl
  0019f	84 c0		 test	 al, al
  001a1	74 0a		 je	 SHORT $LN71@LoadFloat_@2
  001a3	34 ec		 xor	 al, -20			; ffffffecH
  001a5	88 45 f9	 mov	 BYTE PTR __k$[ebp+25], al
  001a8	e9 8d 00 00 00	 jmp	 $LN1@LoadFloat_@2
$LN71@LoadFloat_@2:
  001ad	c6 45 f9 ec	 mov	 BYTE PTR __k$[ebp+25], -20 ; ffffffecH
  001b1	e9 84 00 00 00	 jmp	 $LN1@LoadFloat_@2
$LN72@LoadFloat_@2:
  001b6	c6 45 f8 ed	 mov	 BYTE PTR __k$[ebp+24], -19 ; ffffffedH
  001ba	eb 7e		 jmp	 SHORT $LN1@LoadFloat_@2
$LN73@LoadFloat_@2:
  001bc	88 5d f7	 mov	 BYTE PTR __k$[ebp+23], bl
  001bf	eb 79		 jmp	 SHORT $LN1@LoadFloat_@2
$LN74@LoadFloat_@2:
  001c1	88 4d f6	 mov	 BYTE PTR __k$[ebp+22], cl
  001c4	eb 74		 jmp	 SHORT $LN1@LoadFloat_@2
$LN76@LoadFloat_@2:
  001c6	c6 45 f4 ed	 mov	 BYTE PTR __k$[ebp+20], -19 ; ffffffedH
  001ca	eb 6e		 jmp	 SHORT $LN1@LoadFloat_@2
$LN77@LoadFloat_@2:
  001cc	88 5d f3	 mov	 BYTE PTR __k$[ebp+19], bl
  001cf	eb 69		 jmp	 SHORT $LN1@LoadFloat_@2
$LN78@LoadFloat_@2:
  001d1	88 4d f2	 mov	 BYTE PTR __k$[ebp+18], cl
  001d4	eb 64		 jmp	 SHORT $LN1@LoadFloat_@2
$LN79@LoadFloat_@2:
  001d6	c6 45 f1 ec	 mov	 BYTE PTR __k$[ebp+17], -20 ; ffffffecH
  001da	eb 5e		 jmp	 SHORT $LN1@LoadFloat_@2
$LN80@LoadFloat_@2:
  001dc	c6 45 f0 ed	 mov	 BYTE PTR __k$[ebp+16], -19 ; ffffffedH
  001e0	eb 58		 jmp	 SHORT $LN1@LoadFloat_@2
$LN81@LoadFloat_@2:
  001e2	88 5d ef	 mov	 BYTE PTR __k$[ebp+15], bl
  001e5	eb 53		 jmp	 SHORT $LN1@LoadFloat_@2
$LN82@LoadFloat_@2:
  001e7	88 4d ee	 mov	 BYTE PTR __k$[ebp+14], cl
  001ea	eb 4e		 jmp	 SHORT $LN1@LoadFloat_@2
$LN83@LoadFloat_@2:
  001ec	c6 45 ed ec	 mov	 BYTE PTR __k$[ebp+13], -20 ; ffffffecH
  001f0	eb 48		 jmp	 SHORT $LN1@LoadFloat_@2
$LN84@LoadFloat_@2:
  001f2	c6 45 ec ed	 mov	 BYTE PTR __k$[ebp+12], -19 ; ffffffedH
  001f6	eb 42		 jmp	 SHORT $LN1@LoadFloat_@2
$LN85@LoadFloat_@2:
  001f8	88 5d eb	 mov	 BYTE PTR __k$[ebp+11], bl
  001fb	eb 3d		 jmp	 SHORT $LN1@LoadFloat_@2
$LN86@LoadFloat_@2:
  001fd	88 4d ea	 mov	 BYTE PTR __k$[ebp+10], cl
  00200	eb 38		 jmp	 SHORT $LN1@LoadFloat_@2
$LN87@LoadFloat_@2:
  00202	c6 45 e9 ec	 mov	 BYTE PTR __k$[ebp+9], -20 ; ffffffecH
  00206	eb 32		 jmp	 SHORT $LN1@LoadFloat_@2
$LN88@LoadFloat_@2:
  00208	c6 45 e8 ed	 mov	 BYTE PTR __k$[ebp+8], -19 ; ffffffedH
  0020c	eb 2c		 jmp	 SHORT $LN1@LoadFloat_@2
$LN89@LoadFloat_@2:
  0020e	88 5d e7	 mov	 BYTE PTR __k$[ebp+7], bl
  00211	eb 27		 jmp	 SHORT $LN1@LoadFloat_@2
$LN90@LoadFloat_@2:
  00213	88 4d e6	 mov	 BYTE PTR __k$[ebp+6], cl
  00216	eb 22		 jmp	 SHORT $LN1@LoadFloat_@2
$LN91@LoadFloat_@2:
  00218	c6 45 e5 ec	 mov	 BYTE PTR __k$[ebp+5], -20 ; ffffffecH
  0021c	eb 1c		 jmp	 SHORT $LN1@LoadFloat_@2
$LN92@LoadFloat_@2:
  0021e	c6 45 e4 ed	 mov	 BYTE PTR __k$[ebp+4], -19 ; ffffffedH
  00222	eb 16		 jmp	 SHORT $LN1@LoadFloat_@2
$LN93@LoadFloat_@2:
  00224	c6 45 e3 ea	 mov	 BYTE PTR __k$[ebp+3], -22 ; ffffffeaH
  00228	eb 10		 jmp	 SHORT $LN1@LoadFloat_@2
$LN94@LoadFloat_@2:
  0022a	c6 45 e2 eb	 mov	 BYTE PTR __k$[ebp+2], -21 ; ffffffebH
  0022e	eb 0a		 jmp	 SHORT $LN1@LoadFloat_@2
$LN95@LoadFloat_@2:
  00230	c6 45 e1 ec	 mov	 BYTE PTR __k$[ebp+1], -20 ; ffffffecH
  00234	eb 04		 jmp	 SHORT $LN1@LoadFloat_@2
$LN96@LoadFloat_@2:
  00236	c6 45 e0 ed	 mov	 BYTE PTR __k$[ebp], -19	; ffffffedH
$LN1@LoadFloat_@2:
  0023a	6a 05		 push	 5
  0023c	8d 45 e0	 lea	 eax, DWORD PTR __k$[ebp]
  0023f	c6 45 f5 00	 mov	 BYTE PTR __k$[ebp+21], 0
  00243	5a		 pop	 edx
$LL104@LoadFloat_@2:
  00244	81 30 ed ec eb
	ea		 xor	 DWORD PTR [eax], -353637139 ; eaebecedH
  0024a	83 c0 04	 add	 eax, 4
  0024d	4a		 dec	 edx
  0024e	75 f4		 jne	 SHORT $LL104@LoadFloat_@2

; 137  : 		return LoadFloat(_k, f);

  00250	f3 0f 10 45 0c	 movss	 xmm0, DWORD PTR _f$[ebp]
  00255	80 75 f4 ed	 xor	 BYTE PTR __k$[ebp+20], -19 ; ffffffedH
  00259	51		 push	 ecx
  0025a	8d 45 e0	 lea	 eax, DWORD PTR __k$[ebp]
  0025d	f3 0f 11 04 24	 movss	 DWORD PTR [esp], xmm0
  00262	50		 push	 eax
  00263	8b ce		 mov	 ecx, esi
  00265	ff 15 00 00 00
	00		 call	 DWORD PTR __imp_?LoadFloat@ioINILoader@@QAEMPBDM@Z

; 138  : 	}

  0026b	8b 4d fc	 mov	 ecx, DWORD PTR __$ArrayPad$[ebp]
  0026e	5e		 pop	 esi
  0026f	33 cd		 xor	 ecx, ebp
  00271	5b		 pop	 ebx
  00272	e8 00 00 00 00	 call	 @__security_check_cookie@4
  00277	c9		 leave
  00278	c2 08 00	 ret	 8
??$LoadFloat_e@$0BG@@ioINILoader@@QAEMAAY0BG@$$CBDM@Z ENDP ; ioINILoader::LoadFloat_e<22>
_TEXT	ENDS
PUBLIC	__$ArrayPad$
PUBLIC	??$LoadFloat_e@$0BB@@ioINILoader@@QAEMAAY0BB@$$CBDM@Z ; ioINILoader::LoadFloat_e<17>
; Function compile flags: /Ogsp
;	COMDAT ??$LoadFloat_e@$0BB@@ioINILoader@@QAEMAAY0BB@$$CBDM@Z
_TEXT	SEGMENT
__k$ = -28						; size = 17
__$ArrayPad$ = -4					; size = 4
_k$ = 8							; size = 4
_f$ = 12						; size = 4
??$LoadFloat_e@$0BB@@ioINILoader@@QAEMAAY0BB@$$CBDM@Z PROC ; ioINILoader::LoadFloat_e<17>, COMDAT
; _this$ = ecx

; 135  : 	{

  00000	55		 push	 ebp
  00001	8b ec		 mov	 ebp, esp
  00003	83 ec 1c	 sub	 esp, 28			; 0000001cH
  00006	a1 00 00 00 00	 mov	 eax, DWORD PTR ___security_cookie
  0000b	33 c5		 xor	 eax, ebp
  0000d	89 45 fc	 mov	 DWORD PTR __$ArrayPad$[ebp], eax
  00010	8b 45 08	 mov	 eax, DWORD PTR _k$[ebp]

; 136  : 		_ENCSTR(k, _k);

  00013	8a 10		 mov	 dl, BYTE PTR [eax]
  00015	56		 push	 esi
  00016	8b f1		 mov	 esi, ecx
  00018	84 d2		 test	 dl, dl
  0001a	0f 84 a7 01 00
	00		 je	 $LN96@LoadFloat_@3
  00020	80 f2 ed	 xor	 dl, -19			; ffffffedH
  00023	88 55 e4	 mov	 BYTE PTR __k$[ebp], dl
  00026	8a 50 01	 mov	 dl, BYTE PTR [eax+1]
  00029	84 d2		 test	 dl, dl
  0002b	0f 84 90 01 00
	00		 je	 $LN95@LoadFloat_@3
  00031	b1 ec		 mov	 cl, -20			; ffffffecH
  00033	32 d1		 xor	 dl, cl
  00035	88 55 e5	 mov	 BYTE PTR __k$[ebp+1], dl
  00038	8a 50 02	 mov	 dl, BYTE PTR [eax+2]
  0003b	84 d2		 test	 dl, dl
  0003d	0f 84 78 01 00
	00		 je	 $LN94@LoadFloat_@3
  00043	80 f2 eb	 xor	 dl, -21			; ffffffebH
  00046	88 55 e6	 mov	 BYTE PTR __k$[ebp+2], dl
  00049	8a 50 03	 mov	 dl, BYTE PTR [eax+3]
  0004c	84 d2		 test	 dl, dl
  0004e	0f 84 61 01 00
	00		 je	 $LN93@LoadFloat_@3
  00054	80 f2 ea	 xor	 dl, -22			; ffffffeaH
  00057	88 55 e7	 mov	 BYTE PTR __k$[ebp+3], dl
  0005a	8a 50 04	 mov	 dl, BYTE PTR [eax+4]
  0005d	84 d2		 test	 dl, dl
  0005f	0f 84 4a 01 00
	00		 je	 $LN92@LoadFloat_@3
  00065	80 f2 ed	 xor	 dl, -19			; ffffffedH
  00068	88 55 e8	 mov	 BYTE PTR __k$[ebp+4], dl
  0006b	8a 50 05	 mov	 dl, BYTE PTR [eax+5]
  0006e	84 d2		 test	 dl, dl
  00070	0f 84 34 01 00
	00		 je	 $LN91@LoadFloat_@3
  00076	32 d1		 xor	 dl, cl
  00078	88 55 e9	 mov	 BYTE PTR __k$[ebp+5], dl
  0007b	8a 50 06	 mov	 dl, BYTE PTR [eax+6]
  0007e	84 d2		 test	 dl, dl
  00080	0f 84 1e 01 00
	00		 je	 $LN90@LoadFloat_@3
  00086	80 f2 eb	 xor	 dl, -21			; ffffffebH
  00089	88 55 ea	 mov	 BYTE PTR __k$[ebp+6], dl
  0008c	8a 50 07	 mov	 dl, BYTE PTR [eax+7]
  0008f	84 d2		 test	 dl, dl
  00091	0f 84 07 01 00
	00		 je	 $LN89@LoadFloat_@3
  00097	80 f2 ea	 xor	 dl, -22			; ffffffeaH
  0009a	88 55 eb	 mov	 BYTE PTR __k$[ebp+7], dl
  0009d	8a 50 08	 mov	 dl, BYTE PTR [eax+8]
  000a0	84 d2		 test	 dl, dl
  000a2	0f 84 f0 00 00
	00		 je	 $LN88@LoadFloat_@3
  000a8	80 f2 ed	 xor	 dl, -19			; ffffffedH
  000ab	88 55 ec	 mov	 BYTE PTR __k$[ebp+8], dl
  000ae	8a 50 09	 mov	 dl, BYTE PTR [eax+9]
  000b1	84 d2		 test	 dl, dl
  000b3	0f 84 da 00 00
	00		 je	 $LN87@LoadFloat_@3
  000b9	32 d1		 xor	 dl, cl
  000bb	88 55 ed	 mov	 BYTE PTR __k$[ebp+9], dl
  000be	8a 50 0a	 mov	 dl, BYTE PTR [eax+10]
  000c1	84 d2		 test	 dl, dl
  000c3	0f 84 c4 00 00
	00		 je	 $LN86@LoadFloat_@3
  000c9	80 f2 eb	 xor	 dl, -21			; ffffffebH
  000cc	88 55 ee	 mov	 BYTE PTR __k$[ebp+10], dl
  000cf	8a 50 0b	 mov	 dl, BYTE PTR [eax+11]
  000d2	84 d2		 test	 dl, dl
  000d4	0f 84 ad 00 00
	00		 je	 $LN85@LoadFloat_@3
  000da	80 f2 ea	 xor	 dl, -22			; ffffffeaH
  000dd	88 55 ef	 mov	 BYTE PTR __k$[ebp+11], dl
  000e0	8a 50 0c	 mov	 dl, BYTE PTR [eax+12]
  000e3	84 d2		 test	 dl, dl
  000e5	0f 84 96 00 00
	00		 je	 $LN84@LoadFloat_@3
  000eb	80 f2 ed	 xor	 dl, -19			; ffffffedH
  000ee	88 55 f0	 mov	 BYTE PTR __k$[ebp+12], dl
  000f1	8a 50 0d	 mov	 dl, BYTE PTR [eax+13]
  000f4	84 d2		 test	 dl, dl
  000f6	0f 84 80 00 00
	00		 je	 $LN83@LoadFloat_@3
  000fc	32 d1		 xor	 dl, cl
  000fe	88 55 f1	 mov	 BYTE PTR __k$[ebp+13], dl
  00101	8a 50 0e	 mov	 dl, BYTE PTR [eax+14]
  00104	84 d2		 test	 dl, dl
  00106	74 6e		 je	 SHORT $LN82@LoadFloat_@3
  00108	80 f2 eb	 xor	 dl, -21			; ffffffebH
  0010b	88 55 f2	 mov	 BYTE PTR __k$[ebp+14], dl
  0010e	8a 50 0f	 mov	 dl, BYTE PTR [eax+15]
  00111	84 d2		 test	 dl, dl
  00113	74 5b		 je	 SHORT $LN81@LoadFloat_@3
  00115	80 f2 ea	 xor	 dl, -22			; ffffffeaH
  00118	80 78 10 00	 cmp	 BYTE PTR [eax+16], 0
  0011c	88 55 f3	 mov	 BYTE PTR __k$[ebp+15], dl
  0011f	0f 84 a6 00 00
	00		 je	 $LN1@LoadFloat_@3
  00125	8a 50 11	 mov	 dl, BYTE PTR [eax+17]
  00128	84 d2		 test	 dl, dl
  0012a	74 3f		 je	 SHORT $LN79@LoadFloat_@3
  0012c	32 d1		 xor	 dl, cl
  0012e	88 55 f5	 mov	 BYTE PTR __k$[ebp+17], dl
  00131	8a 50 12	 mov	 dl, BYTE PTR [eax+18]
  00134	84 d2		 test	 dl, dl
  00136	74 2d		 je	 SHORT $LN78@LoadFloat_@3
  00138	80 f2 eb	 xor	 dl, -21			; ffffffebH
  0013b	88 55 f6	 mov	 BYTE PTR __k$[ebp+18], dl
  0013e	8a 50 13	 mov	 dl, BYTE PTR [eax+19]
  00141	84 d2		 test	 dl, dl
  00143	74 1a		 je	 SHORT $LN77@LoadFloat_@3
  00145	8a 40 14	 mov	 al, BYTE PTR [eax+20]
  00148	80 f2 ea	 xor	 dl, -22			; ffffffeaH
  0014b	88 55 f7	 mov	 BYTE PTR __k$[ebp+19], dl
  0014e	84 c0		 test	 al, al
  00150	74 07		 je	 SHORT $LN76@LoadFloat_@3
  00152	34 ed		 xor	 al, -19			; ffffffedH
  00154	88 45 f8	 mov	 BYTE PTR __k$[ebp+20], al
  00157	eb 72		 jmp	 SHORT $LN1@LoadFloat_@3
$LN76@LoadFloat_@3:
  00159	c6 45 f8 ed	 mov	 BYTE PTR __k$[ebp+20], -19 ; ffffffedH
  0015d	eb 6c		 jmp	 SHORT $LN1@LoadFloat_@3
$LN77@LoadFloat_@3:
  0015f	c6 45 f7 ea	 mov	 BYTE PTR __k$[ebp+19], -22 ; ffffffeaH
  00163	eb 66		 jmp	 SHORT $LN1@LoadFloat_@3
$LN78@LoadFloat_@3:
  00165	c6 45 f6 eb	 mov	 BYTE PTR __k$[ebp+18], -21 ; ffffffebH
  00169	eb 60		 jmp	 SHORT $LN1@LoadFloat_@3
$LN79@LoadFloat_@3:
  0016b	88 4d f5	 mov	 BYTE PTR __k$[ebp+17], cl
  0016e	eb 5b		 jmp	 SHORT $LN1@LoadFloat_@3
$LN81@LoadFloat_@3:
  00170	c6 45 f3 ea	 mov	 BYTE PTR __k$[ebp+15], -22 ; ffffffeaH
  00174	eb 55		 jmp	 SHORT $LN1@LoadFloat_@3
$LN82@LoadFloat_@3:
  00176	c6 45 f2 eb	 mov	 BYTE PTR __k$[ebp+14], -21 ; ffffffebH
  0017a	eb 4f		 jmp	 SHORT $LN1@LoadFloat_@3
$LN83@LoadFloat_@3:
  0017c	88 4d f1	 mov	 BYTE PTR __k$[ebp+13], cl
  0017f	eb 4a		 jmp	 SHORT $LN1@LoadFloat_@3
$LN84@LoadFloat_@3:
  00181	c6 45 f0 ed	 mov	 BYTE PTR __k$[ebp+12], -19 ; ffffffedH
  00185	eb 44		 jmp	 SHORT $LN1@LoadFloat_@3
$LN85@LoadFloat_@3:
  00187	c6 45 ef ea	 mov	 BYTE PTR __k$[ebp+11], -22 ; ffffffeaH
  0018b	eb 3e		 jmp	 SHORT $LN1@LoadFloat_@3
$LN86@LoadFloat_@3:
  0018d	c6 45 ee eb	 mov	 BYTE PTR __k$[ebp+10], -21 ; ffffffebH
  00191	eb 38		 jmp	 SHORT $LN1@LoadFloat_@3
$LN87@LoadFloat_@3:
  00193	88 4d ed	 mov	 BYTE PTR __k$[ebp+9], cl
  00196	eb 33		 jmp	 SHORT $LN1@LoadFloat_@3
$LN88@LoadFloat_@3:
  00198	c6 45 ec ed	 mov	 BYTE PTR __k$[ebp+8], -19 ; ffffffedH
  0019c	eb 2d		 jmp	 SHORT $LN1@LoadFloat_@3
$LN89@LoadFloat_@3:
  0019e	c6 45 eb ea	 mov	 BYTE PTR __k$[ebp+7], -22 ; ffffffeaH
  001a2	eb 27		 jmp	 SHORT $LN1@LoadFloat_@3
$LN90@LoadFloat_@3:
  001a4	c6 45 ea eb	 mov	 BYTE PTR __k$[ebp+6], -21 ; ffffffebH
  001a8	eb 21		 jmp	 SHORT $LN1@LoadFloat_@3
$LN91@LoadFloat_@3:
  001aa	88 4d e9	 mov	 BYTE PTR __k$[ebp+5], cl
  001ad	eb 1c		 jmp	 SHORT $LN1@LoadFloat_@3
$LN92@LoadFloat_@3:
  001af	c6 45 e8 ed	 mov	 BYTE PTR __k$[ebp+4], -19 ; ffffffedH
  001b3	eb 16		 jmp	 SHORT $LN1@LoadFloat_@3
$LN93@LoadFloat_@3:
  001b5	c6 45 e7 ea	 mov	 BYTE PTR __k$[ebp+3], -22 ; ffffffeaH
  001b9	eb 10		 jmp	 SHORT $LN1@LoadFloat_@3
$LN94@LoadFloat_@3:
  001bb	c6 45 e6 eb	 mov	 BYTE PTR __k$[ebp+2], -21 ; ffffffebH
  001bf	eb 0a		 jmp	 SHORT $LN1@LoadFloat_@3
$LN95@LoadFloat_@3:
  001c1	c6 45 e5 ec	 mov	 BYTE PTR __k$[ebp+1], -20 ; ffffffecH
  001c5	eb 04		 jmp	 SHORT $LN1@LoadFloat_@3
$LN96@LoadFloat_@3:
  001c7	c6 45 e4 ed	 mov	 BYTE PTR __k$[ebp], -19	; ffffffedH
$LN1@LoadFloat_@3:
  001cb	6a 04		 push	 4
  001cd	8d 45 e4	 lea	 eax, DWORD PTR __k$[ebp]
  001d0	c6 45 f4 00	 mov	 BYTE PTR __k$[ebp+16], 0
  001d4	5a		 pop	 edx
$LL104@LoadFloat_@3:
  001d5	81 30 ed ec eb
	ea		 xor	 DWORD PTR [eax], -353637139 ; eaebecedH
  001db	83 c0 04	 add	 eax, 4
  001de	4a		 dec	 edx
  001df	75 f4		 jne	 SHORT $LL104@LoadFloat_@3

; 137  : 		return LoadFloat(_k, f);

  001e1	f3 0f 10 45 0c	 movss	 xmm0, DWORD PTR _f$[ebp]
  001e6	51		 push	 ecx
  001e7	8d 45 e4	 lea	 eax, DWORD PTR __k$[ebp]
  001ea	f3 0f 11 04 24	 movss	 DWORD PTR [esp], xmm0
  001ef	50		 push	 eax
  001f0	8b ce		 mov	 ecx, esi
  001f2	ff 15 00 00 00
	00		 call	 DWORD PTR __imp_?LoadFloat@ioINILoader@@QAEMPBDM@Z

; 138  : 	}

  001f8	8b 4d fc	 mov	 ecx, DWORD PTR __$ArrayPad$[ebp]
  001fb	33 cd		 xor	 ecx, ebp
  001fd	5e		 pop	 esi
  001fe	e8 00 00 00 00	 call	 @__security_check_cookie@4
  00203	c9		 leave
  00204	c2 08 00	 ret	 8
??$LoadFloat_e@$0BB@@ioINILoader@@QAEMAAY0BB@$$CBDM@Z ENDP ; ioINILoader::LoadFloat_e<17>
_TEXT	ENDS
PUBLIC	__$ArrayPad$
PUBLIC	??$LoadFloat_e@$0BF@@ioINILoader@@QAEMAAY0BF@$$CBDM@Z ; ioINILoader::LoadFloat_e<21>
; Function compile flags: /Ogsp
;	COMDAT ??$LoadFloat_e@$0BF@@ioINILoader@@QAEMAAY0BF@$$CBDM@Z
_TEXT	SEGMENT
__k$ = -32						; size = 21
__$ArrayPad$ = -4					; size = 4
_k$ = 8							; size = 4
_f$ = 12						; size = 4
??$LoadFloat_e@$0BF@@ioINILoader@@QAEMAAY0BF@$$CBDM@Z PROC ; ioINILoader::LoadFloat_e<21>, COMDAT
; _this$ = ecx

; 135  : 	{

  00000	55		 push	 ebp
  00001	8b ec		 mov	 ebp, esp
  00003	83 ec 20	 sub	 esp, 32			; 00000020H
  00006	a1 00 00 00 00	 mov	 eax, DWORD PTR ___security_cookie
  0000b	33 c5		 xor	 eax, ebp
  0000d	89 45 fc	 mov	 DWORD PTR __$ArrayPad$[ebp], eax
  00010	8b 45 08	 mov	 eax, DWORD PTR _k$[ebp]

; 136  : 		_ENCSTR(k, _k);

  00013	8a 10		 mov	 dl, BYTE PTR [eax]
  00015	53		 push	 ebx
  00016	56		 push	 esi
  00017	8b f1		 mov	 esi, ecx
  00019	84 d2		 test	 dl, dl
  0001b	0f 84 f7 01 00
	00		 je	 $LN96@LoadFloat_@4
  00021	80 f2 ed	 xor	 dl, -19			; ffffffedH
  00024	88 55 e0	 mov	 BYTE PTR __k$[ebp], dl
  00027	8a 50 01	 mov	 dl, BYTE PTR [eax+1]
  0002a	84 d2		 test	 dl, dl
  0002c	0f 84 e0 01 00
	00		 je	 $LN95@LoadFloat_@4
  00032	b1 ec		 mov	 cl, -20			; ffffffecH
  00034	32 d1		 xor	 dl, cl
  00036	88 55 e1	 mov	 BYTE PTR __k$[ebp+1], dl
  00039	8a 50 02	 mov	 dl, BYTE PTR [eax+2]
  0003c	84 d2		 test	 dl, dl
  0003e	0f 84 c8 01 00
	00		 je	 $LN94@LoadFloat_@4
  00044	b3 eb		 mov	 bl, -21			; ffffffebH
  00046	32 d3		 xor	 dl, bl
  00048	88 55 e2	 mov	 BYTE PTR __k$[ebp+2], dl
  0004b	8a 50 03	 mov	 dl, BYTE PTR [eax+3]
  0004e	84 d2		 test	 dl, dl
  00050	0f 84 b0 01 00
	00		 je	 $LN93@LoadFloat_@4
  00056	80 f2 ea	 xor	 dl, -22			; ffffffeaH
  00059	88 55 e3	 mov	 BYTE PTR __k$[ebp+3], dl
  0005c	8a 50 04	 mov	 dl, BYTE PTR [eax+4]
  0005f	84 d2		 test	 dl, dl
  00061	0f 84 99 01 00
	00		 je	 $LN92@LoadFloat_@4
  00067	80 f2 ed	 xor	 dl, -19			; ffffffedH
  0006a	88 55 e4	 mov	 BYTE PTR __k$[ebp+4], dl
  0006d	8a 50 05	 mov	 dl, BYTE PTR [eax+5]
  00070	84 d2		 test	 dl, dl
  00072	0f 84 83 01 00
	00		 je	 $LN91@LoadFloat_@4
  00078	32 d1		 xor	 dl, cl
  0007a	88 55 e5	 mov	 BYTE PTR __k$[ebp+5], dl
  0007d	8a 50 06	 mov	 dl, BYTE PTR [eax+6]
  00080	84 d2		 test	 dl, dl
  00082	0f 84 6e 01 00
	00		 je	 $LN90@LoadFloat_@4
  00088	32 d3		 xor	 dl, bl
  0008a	88 55 e6	 mov	 BYTE PTR __k$[ebp+6], dl
  0008d	8a 50 07	 mov	 dl, BYTE PTR [eax+7]
  00090	84 d2		 test	 dl, dl
  00092	0f 84 58 01 00
	00		 je	 $LN89@LoadFloat_@4
  00098	80 f2 ea	 xor	 dl, -22			; ffffffeaH
  0009b	88 55 e7	 mov	 BYTE PTR __k$[ebp+7], dl
  0009e	8a 50 08	 mov	 dl, BYTE PTR [eax+8]
  000a1	84 d2		 test	 dl, dl
  000a3	0f 84 41 01 00
	00		 je	 $LN88@LoadFloat_@4
  000a9	80 f2 ed	 xor	 dl, -19			; ffffffedH
  000ac	88 55 e8	 mov	 BYTE PTR __k$[ebp+8], dl
  000af	8a 50 09	 mov	 dl, BYTE PTR [eax+9]
  000b2	84 d2		 test	 dl, dl
  000b4	0f 84 2b 01 00
	00		 je	 $LN87@LoadFloat_@4
  000ba	32 d1		 xor	 dl, cl
  000bc	88 55 e9	 mov	 BYTE PTR __k$[ebp+9], dl
  000bf	8a 50 0a	 mov	 dl, BYTE PTR [eax+10]
  000c2	84 d2		 test	 dl, dl
  000c4	0f 84 16 01 00
	00		 je	 $LN86@LoadFloat_@4
  000ca	32 d3		 xor	 dl, bl
  000cc	88 55 ea	 mov	 BYTE PTR __k$[ebp+10], dl
  000cf	8a 50 0b	 mov	 dl, BYTE PTR [eax+11]
  000d2	84 d2		 test	 dl, dl
  000d4	0f 84 00 01 00
	00		 je	 $LN85@LoadFloat_@4
  000da	80 f2 ea	 xor	 dl, -22			; ffffffeaH
  000dd	88 55 eb	 mov	 BYTE PTR __k$[ebp+11], dl
  000e0	8a 50 0c	 mov	 dl, BYTE PTR [eax+12]
  000e3	84 d2		 test	 dl, dl
  000e5	0f 84 e9 00 00
	00		 je	 $LN84@LoadFloat_@4
  000eb	80 f2 ed	 xor	 dl, -19			; ffffffedH
  000ee	88 55 ec	 mov	 BYTE PTR __k$[ebp+12], dl
  000f1	8a 50 0d	 mov	 dl, BYTE PTR [eax+13]
  000f4	84 d2		 test	 dl, dl
  000f6	0f 84 d3 00 00
	00		 je	 $LN83@LoadFloat_@4
  000fc	32 d1		 xor	 dl, cl
  000fe	88 55 ed	 mov	 BYTE PTR __k$[ebp+13], dl
  00101	8a 50 0e	 mov	 dl, BYTE PTR [eax+14]
  00104	84 d2		 test	 dl, dl
  00106	0f 84 be 00 00
	00		 je	 $LN82@LoadFloat_@4
  0010c	32 d3		 xor	 dl, bl
  0010e	88 55 ee	 mov	 BYTE PTR __k$[ebp+14], dl
  00111	8a 50 0f	 mov	 dl, BYTE PTR [eax+15]
  00114	84 d2		 test	 dl, dl
  00116	0f 84 a8 00 00
	00		 je	 $LN81@LoadFloat_@4
  0011c	80 f2 ea	 xor	 dl, -22			; ffffffeaH
  0011f	88 55 ef	 mov	 BYTE PTR __k$[ebp+15], dl
  00122	8a 50 10	 mov	 dl, BYTE PTR [eax+16]
  00125	84 d2		 test	 dl, dl
  00127	0f 84 91 00 00
	00		 je	 $LN80@LoadFloat_@4
  0012d	80 f2 ed	 xor	 dl, -19			; ffffffedH
  00130	88 55 f0	 mov	 BYTE PTR __k$[ebp+16], dl
  00133	8a 50 11	 mov	 dl, BYTE PTR [eax+17]
  00136	84 d2		 test	 dl, dl
  00138	74 7f		 je	 SHORT $LN79@LoadFloat_@4
  0013a	32 d1		 xor	 dl, cl
  0013c	88 55 f1	 mov	 BYTE PTR __k$[ebp+17], dl
  0013f	8a 50 12	 mov	 dl, BYTE PTR [eax+18]
  00142	84 d2		 test	 dl, dl
  00144	74 6e		 je	 SHORT $LN78@LoadFloat_@4
  00146	32 d3		 xor	 dl, bl
  00148	88 55 f2	 mov	 BYTE PTR __k$[ebp+18], dl
  0014b	8a 50 13	 mov	 dl, BYTE PTR [eax+19]
  0014e	84 d2		 test	 dl, dl
  00150	74 5c		 je	 SHORT $LN77@LoadFloat_@4
  00152	80 f2 ea	 xor	 dl, -22			; ffffffeaH
  00155	80 78 14 00	 cmp	 BYTE PTR [eax+20], 0
  00159	88 55 f3	 mov	 BYTE PTR __k$[ebp+19], dl
  0015c	0f 84 ba 00 00
	00		 je	 $LN1@LoadFloat_@4
  00162	8a 50 15	 mov	 dl, BYTE PTR [eax+21]
  00165	84 d2		 test	 dl, dl
  00167	74 40		 je	 SHORT $LN75@LoadFloat_@4
  00169	32 d1		 xor	 dl, cl
  0016b	88 55 f5	 mov	 BYTE PTR __k$[ebp+21], dl
  0016e	8a 50 16	 mov	 dl, BYTE PTR [eax+22]
  00171	84 d2		 test	 dl, dl
  00173	74 2f		 je	 SHORT $LN74@LoadFloat_@4
  00175	32 d3		 xor	 dl, bl
  00177	88 55 f6	 mov	 BYTE PTR __k$[ebp+22], dl
  0017a	8a 50 17	 mov	 dl, BYTE PTR [eax+23]
  0017d	84 d2		 test	 dl, dl
  0017f	74 1d		 je	 SHORT $LN73@LoadFloat_@4
  00181	8a 40 18	 mov	 al, BYTE PTR [eax+24]
  00184	80 f2 ea	 xor	 dl, -22			; ffffffeaH
  00187	88 55 f7	 mov	 BYTE PTR __k$[ebp+23], dl
  0018a	84 c0		 test	 al, al
  0018c	74 0a		 je	 SHORT $LN72@LoadFloat_@4
  0018e	34 ed		 xor	 al, -19			; ffffffedH
  00190	88 45 f8	 mov	 BYTE PTR __k$[ebp+24], al
  00193	e9 84 00 00 00	 jmp	 $LN1@LoadFloat_@4
$LN72@LoadFloat_@4:
  00198	c6 45 f8 ed	 mov	 BYTE PTR __k$[ebp+24], -19 ; ffffffedH
  0019c	eb 7e		 jmp	 SHORT $LN1@LoadFloat_@4
$LN73@LoadFloat_@4:
  0019e	c6 45 f7 ea	 mov	 BYTE PTR __k$[ebp+23], -22 ; ffffffeaH
  001a2	eb 78		 jmp	 SHORT $LN1@LoadFloat_@4
$LN74@LoadFloat_@4:
  001a4	88 5d f6	 mov	 BYTE PTR __k$[ebp+22], bl
  001a7	eb 73		 jmp	 SHORT $LN1@LoadFloat_@4
$LN75@LoadFloat_@4:
  001a9	88 4d f5	 mov	 BYTE PTR __k$[ebp+21], cl
  001ac	eb 6e		 jmp	 SHORT $LN1@LoadFloat_@4
$LN77@LoadFloat_@4:
  001ae	c6 45 f3 ea	 mov	 BYTE PTR __k$[ebp+19], -22 ; ffffffeaH
  001b2	eb 68		 jmp	 SHORT $LN1@LoadFloat_@4
$LN78@LoadFloat_@4:
  001b4	88 5d f2	 mov	 BYTE PTR __k$[ebp+18], bl
  001b7	eb 63		 jmp	 SHORT $LN1@LoadFloat_@4
$LN79@LoadFloat_@4:
  001b9	88 4d f1	 mov	 BYTE PTR __k$[ebp+17], cl
  001bc	eb 5e		 jmp	 SHORT $LN1@LoadFloat_@4
$LN80@LoadFloat_@4:
  001be	c6 45 f0 ed	 mov	 BYTE PTR __k$[ebp+16], -19 ; ffffffedH
  001c2	eb 58		 jmp	 SHORT $LN1@LoadFloat_@4
$LN81@LoadFloat_@4:
  001c4	c6 45 ef ea	 mov	 BYTE PTR __k$[ebp+15], -22 ; ffffffeaH
  001c8	eb 52		 jmp	 SHORT $LN1@LoadFloat_@4
$LN82@LoadFloat_@4:
  001ca	88 5d ee	 mov	 BYTE PTR __k$[ebp+14], bl
  001cd	eb 4d		 jmp	 SHORT $LN1@LoadFloat_@4
$LN83@LoadFloat_@4:
  001cf	88 4d ed	 mov	 BYTE PTR __k$[ebp+13], cl
  001d2	eb 48		 jmp	 SHORT $LN1@LoadFloat_@4
$LN84@LoadFloat_@4:
  001d4	c6 45 ec ed	 mov	 BYTE PTR __k$[ebp+12], -19 ; ffffffedH
  001d8	eb 42		 jmp	 SHORT $LN1@LoadFloat_@4
$LN85@LoadFloat_@4:
  001da	c6 45 eb ea	 mov	 BYTE PTR __k$[ebp+11], -22 ; ffffffeaH
  001de	eb 3c		 jmp	 SHORT $LN1@LoadFloat_@4
$LN86@LoadFloat_@4:
  001e0	88 5d ea	 mov	 BYTE PTR __k$[ebp+10], bl
  001e3	eb 37		 jmp	 SHORT $LN1@LoadFloat_@4
$LN87@LoadFloat_@4:
  001e5	88 4d e9	 mov	 BYTE PTR __k$[ebp+9], cl
  001e8	eb 32		 jmp	 SHORT $LN1@LoadFloat_@4
$LN88@LoadFloat_@4:
  001ea	c6 45 e8 ed	 mov	 BYTE PTR __k$[ebp+8], -19 ; ffffffedH
  001ee	eb 2c		 jmp	 SHORT $LN1@LoadFloat_@4
$LN89@LoadFloat_@4:
  001f0	c6 45 e7 ea	 mov	 BYTE PTR __k$[ebp+7], -22 ; ffffffeaH
  001f4	eb 26		 jmp	 SHORT $LN1@LoadFloat_@4
$LN90@LoadFloat_@4:
  001f6	88 5d e6	 mov	 BYTE PTR __k$[ebp+6], bl
  001f9	eb 21		 jmp	 SHORT $LN1@LoadFloat_@4
$LN91@LoadFloat_@4:
  001fb	88 4d e5	 mov	 BYTE PTR __k$[ebp+5], cl
  001fe	eb 1c		 jmp	 SHORT $LN1@LoadFloat_@4
$LN92@LoadFloat_@4:
  00200	c6 45 e4 ed	 mov	 BYTE PTR __k$[ebp+4], -19 ; ffffffedH
  00204	eb 16		 jmp	 SHORT $LN1@LoadFloat_@4
$LN93@LoadFloat_@4:
  00206	c6 45 e3 ea	 mov	 BYTE PTR __k$[ebp+3], -22 ; ffffffeaH
  0020a	eb 10		 jmp	 SHORT $LN1@LoadFloat_@4
$LN94@LoadFloat_@4:
  0020c	c6 45 e2 eb	 mov	 BYTE PTR __k$[ebp+2], -21 ; ffffffebH
  00210	eb 0a		 jmp	 SHORT $LN1@LoadFloat_@4
$LN95@LoadFloat_@4:
  00212	c6 45 e1 ec	 mov	 BYTE PTR __k$[ebp+1], -20 ; ffffffecH
  00216	eb 04		 jmp	 SHORT $LN1@LoadFloat_@4
$LN96@LoadFloat_@4:
  00218	c6 45 e0 ed	 mov	 BYTE PTR __k$[ebp], -19	; ffffffedH
$LN1@LoadFloat_@4:
  0021c	6a 05		 push	 5
  0021e	8d 45 e0	 lea	 eax, DWORD PTR __k$[ebp]
  00221	c6 45 f4 00	 mov	 BYTE PTR __k$[ebp+20], 0
  00225	5a		 pop	 edx
$LL104@LoadFloat_@4:
  00226	81 30 ed ec eb
	ea		 xor	 DWORD PTR [eax], -353637139 ; eaebecedH
  0022c	83 c0 04	 add	 eax, 4
  0022f	4a		 dec	 edx
  00230	75 f4		 jne	 SHORT $LL104@LoadFloat_@4

; 137  : 		return LoadFloat(_k, f);

  00232	f3 0f 10 45 0c	 movss	 xmm0, DWORD PTR _f$[ebp]
  00237	51		 push	 ecx
  00238	8d 45 e0	 lea	 eax, DWORD PTR __k$[ebp]
  0023b	f3 0f 11 04 24	 movss	 DWORD PTR [esp], xmm0
  00240	50		 push	 eax
  00241	8b ce		 mov	 ecx, esi
  00243	ff 15 00 00 00
	00		 call	 DWORD PTR __imp_?LoadFloat@ioINILoader@@QAEMPBDM@Z

; 138  : 	}

  00249	8b 4d fc	 mov	 ecx, DWORD PTR __$ArrayPad$[ebp]
  0024c	5e		 pop	 esi
  0024d	33 cd		 xor	 ecx, ebp
  0024f	5b		 pop	 ebx
  00250	e8 00 00 00 00	 call	 @__security_check_cookie@4
  00255	c9		 leave
  00256	c2 08 00	 ret	 8
??$LoadFloat_e@$0BF@@ioINILoader@@QAEMAAY0BF@$$CBDM@Z ENDP ; ioINILoader::LoadFloat_e<21>
_TEXT	ENDS
PUBLIC	__$ArrayPad$
PUBLIC	??$LoadInt_e@$0P@@ioINILoader@@QAEHAAY0P@$$CBDH@Z ; ioINILoader::LoadInt_e<15>
; Function compile flags: /Ogsp
;	COMDAT ??$LoadInt_e@$0P@@ioINILoader@@QAEHAAY0P@$$CBDH@Z
_TEXT	SEGMENT
__k$ = -24						; size = 15
__$ArrayPad$ = -4					; size = 4
_k$ = 8							; size = 4
_i$ = 12						; size = 4
??$LoadInt_e@$0P@@ioINILoader@@QAEHAAY0P@$$CBDH@Z PROC	; ioINILoader::LoadInt_e<15>, COMDAT
; _this$ = ecx

; 118  : 	{

  00000	55		 push	 ebp
  00001	8b ec		 mov	 ebp, esp
  00003	83 ec 18	 sub	 esp, 24			; 00000018H
  00006	a1 00 00 00 00	 mov	 eax, DWORD PTR ___security_cookie
  0000b	33 c5		 xor	 eax, ebp
  0000d	89 45 fc	 mov	 DWORD PTR __$ArrayPad$[ebp], eax
  00010	8b 45 08	 mov	 eax, DWORD PTR _k$[ebp]

; 119  : 		_ENCSTR(k, _k);

  00013	8a 10		 mov	 dl, BYTE PTR [eax]
  00015	56		 push	 esi
  00016	8b f1		 mov	 esi, ecx
  00018	84 d2		 test	 dl, dl
  0001a	0f 84 75 01 00
	00		 je	 $LN96@LoadInt_e@2
  00020	80 f2 ed	 xor	 dl, -19			; ffffffedH
  00023	88 55 e8	 mov	 BYTE PTR __k$[ebp], dl
  00026	8a 50 01	 mov	 dl, BYTE PTR [eax+1]
  00029	84 d2		 test	 dl, dl
  0002b	0f 84 5e 01 00
	00		 je	 $LN95@LoadInt_e@2
  00031	b1 ec		 mov	 cl, -20			; ffffffecH
  00033	32 d1		 xor	 dl, cl
  00035	88 55 e9	 mov	 BYTE PTR __k$[ebp+1], dl
  00038	8a 50 02	 mov	 dl, BYTE PTR [eax+2]
  0003b	84 d2		 test	 dl, dl
  0003d	0f 84 46 01 00
	00		 je	 $LN94@LoadInt_e@2
  00043	80 f2 eb	 xor	 dl, -21			; ffffffebH
  00046	88 55 ea	 mov	 BYTE PTR __k$[ebp+2], dl
  00049	8a 50 03	 mov	 dl, BYTE PTR [eax+3]
  0004c	84 d2		 test	 dl, dl
  0004e	0f 84 2f 01 00
	00		 je	 $LN93@LoadInt_e@2
  00054	80 f2 ea	 xor	 dl, -22			; ffffffeaH
  00057	88 55 eb	 mov	 BYTE PTR __k$[ebp+3], dl
  0005a	8a 50 04	 mov	 dl, BYTE PTR [eax+4]
  0005d	84 d2		 test	 dl, dl
  0005f	0f 84 18 01 00
	00		 je	 $LN92@LoadInt_e@2
  00065	80 f2 ed	 xor	 dl, -19			; ffffffedH
  00068	88 55 ec	 mov	 BYTE PTR __k$[ebp+4], dl
  0006b	8a 50 05	 mov	 dl, BYTE PTR [eax+5]
  0006e	84 d2		 test	 dl, dl
  00070	0f 84 02 01 00
	00		 je	 $LN91@LoadInt_e@2
  00076	32 d1		 xor	 dl, cl
  00078	88 55 ed	 mov	 BYTE PTR __k$[ebp+5], dl
  0007b	8a 50 06	 mov	 dl, BYTE PTR [eax+6]
  0007e	84 d2		 test	 dl, dl
  00080	0f 84 ec 00 00
	00		 je	 $LN90@LoadInt_e@2
  00086	80 f2 eb	 xor	 dl, -21			; ffffffebH
  00089	88 55 ee	 mov	 BYTE PTR __k$[ebp+6], dl
  0008c	8a 50 07	 mov	 dl, BYTE PTR [eax+7]
  0008f	84 d2		 test	 dl, dl
  00091	0f 84 d5 00 00
	00		 je	 $LN89@LoadInt_e@2
  00097	80 f2 ea	 xor	 dl, -22			; ffffffeaH
  0009a	88 55 ef	 mov	 BYTE PTR __k$[ebp+7], dl
  0009d	8a 50 08	 mov	 dl, BYTE PTR [eax+8]
  000a0	84 d2		 test	 dl, dl
  000a2	0f 84 be 00 00
	00		 je	 $LN88@LoadInt_e@2
  000a8	80 f2 ed	 xor	 dl, -19			; ffffffedH
  000ab	88 55 f0	 mov	 BYTE PTR __k$[ebp+8], dl
  000ae	8a 50 09	 mov	 dl, BYTE PTR [eax+9]
  000b1	84 d2		 test	 dl, dl
  000b3	0f 84 a8 00 00
	00		 je	 $LN87@LoadInt_e@2
  000b9	32 d1		 xor	 dl, cl
  000bb	88 55 f1	 mov	 BYTE PTR __k$[ebp+9], dl
  000be	8a 50 0a	 mov	 dl, BYTE PTR [eax+10]
  000c1	84 d2		 test	 dl, dl
  000c3	0f 84 92 00 00
	00		 je	 $LN86@LoadInt_e@2
  000c9	80 f2 eb	 xor	 dl, -21			; ffffffebH
  000cc	88 55 f2	 mov	 BYTE PTR __k$[ebp+10], dl
  000cf	8a 50 0b	 mov	 dl, BYTE PTR [eax+11]
  000d2	84 d2		 test	 dl, dl
  000d4	74 7f		 je	 SHORT $LN85@LoadInt_e@2
  000d6	80 f2 ea	 xor	 dl, -22			; ffffffeaH
  000d9	88 55 f3	 mov	 BYTE PTR __k$[ebp+11], dl
  000dc	8a 50 0c	 mov	 dl, BYTE PTR [eax+12]
  000df	84 d2		 test	 dl, dl
  000e1	74 6c		 je	 SHORT $LN84@LoadInt_e@2
  000e3	80 f2 ed	 xor	 dl, -19			; ffffffedH
  000e6	88 55 f4	 mov	 BYTE PTR __k$[ebp+12], dl
  000e9	8a 50 0d	 mov	 dl, BYTE PTR [eax+13]
  000ec	84 d2		 test	 dl, dl
  000ee	74 5a		 je	 SHORT $LN83@LoadInt_e@2
  000f0	32 d1		 xor	 dl, cl
  000f2	80 78 0e 00	 cmp	 BYTE PTR [eax+14], 0
  000f6	88 55 f5	 mov	 BYTE PTR __k$[ebp+13], dl
  000f9	0f 84 9a 00 00
	00		 je	 $LN1@LoadInt_e@2
  000ff	8a 50 0f	 mov	 dl, BYTE PTR [eax+15]
  00102	84 d2		 test	 dl, dl
  00104	74 3e		 je	 SHORT $LN81@LoadInt_e@2
  00106	80 f2 ea	 xor	 dl, -22			; ffffffeaH
  00109	88 55 f7	 mov	 BYTE PTR __k$[ebp+15], dl
  0010c	8a 50 10	 mov	 dl, BYTE PTR [eax+16]
  0010f	84 d2		 test	 dl, dl
  00111	74 2b		 je	 SHORT $LN80@LoadInt_e@2
  00113	80 f2 ed	 xor	 dl, -19			; ffffffedH
  00116	88 55 f8	 mov	 BYTE PTR __k$[ebp+16], dl
  00119	8a 50 11	 mov	 dl, BYTE PTR [eax+17]
  0011c	84 d2		 test	 dl, dl
  0011e	74 19		 je	 SHORT $LN79@LoadInt_e@2
  00120	8a 40 12	 mov	 al, BYTE PTR [eax+18]
  00123	32 d1		 xor	 dl, cl
  00125	88 55 f9	 mov	 BYTE PTR __k$[ebp+17], dl
  00128	84 c0		 test	 al, al
  0012a	74 07		 je	 SHORT $LN78@LoadInt_e@2
  0012c	34 eb		 xor	 al, -21			; ffffffebH
  0012e	88 45 fa	 mov	 BYTE PTR __k$[ebp+18], al
  00131	eb 66		 jmp	 SHORT $LN1@LoadInt_e@2
$LN78@LoadInt_e@2:
  00133	c6 45 fa eb	 mov	 BYTE PTR __k$[ebp+18], -21 ; ffffffebH
  00137	eb 60		 jmp	 SHORT $LN1@LoadInt_e@2
$LN79@LoadInt_e@2:
  00139	88 4d f9	 mov	 BYTE PTR __k$[ebp+17], cl
  0013c	eb 5b		 jmp	 SHORT $LN1@LoadInt_e@2
$LN80@LoadInt_e@2:
  0013e	c6 45 f8 ed	 mov	 BYTE PTR __k$[ebp+16], -19 ; ffffffedH
  00142	eb 55		 jmp	 SHORT $LN1@LoadInt_e@2
$LN81@LoadInt_e@2:
  00144	c6 45 f7 ea	 mov	 BYTE PTR __k$[ebp+15], -22 ; ffffffeaH
  00148	eb 4f		 jmp	 SHORT $LN1@LoadInt_e@2
$LN83@LoadInt_e@2:
  0014a	88 4d f5	 mov	 BYTE PTR __k$[ebp+13], cl
  0014d	eb 4a		 jmp	 SHORT $LN1@LoadInt_e@2
$LN84@LoadInt_e@2:
  0014f	c6 45 f4 ed	 mov	 BYTE PTR __k$[ebp+12], -19 ; ffffffedH
  00153	eb 44		 jmp	 SHORT $LN1@LoadInt_e@2
$LN85@LoadInt_e@2:
  00155	c6 45 f3 ea	 mov	 BYTE PTR __k$[ebp+11], -22 ; ffffffeaH
  00159	eb 3e		 jmp	 SHORT $LN1@LoadInt_e@2
$LN86@LoadInt_e@2:
  0015b	c6 45 f2 eb	 mov	 BYTE PTR __k$[ebp+10], -21 ; ffffffebH
  0015f	eb 38		 jmp	 SHORT $LN1@LoadInt_e@2
$LN87@LoadInt_e@2:
  00161	88 4d f1	 mov	 BYTE PTR __k$[ebp+9], cl
  00164	eb 33		 jmp	 SHORT $LN1@LoadInt_e@2
$LN88@LoadInt_e@2:
  00166	c6 45 f0 ed	 mov	 BYTE PTR __k$[ebp+8], -19 ; ffffffedH
  0016a	eb 2d		 jmp	 SHORT $LN1@LoadInt_e@2
$LN89@LoadInt_e@2:
  0016c	c6 45 ef ea	 mov	 BYTE PTR __k$[ebp+7], -22 ; ffffffeaH
  00170	eb 27		 jmp	 SHORT $LN1@LoadInt_e@2
$LN90@LoadInt_e@2:
  00172	c6 45 ee eb	 mov	 BYTE PTR __k$[ebp+6], -21 ; ffffffebH
  00176	eb 21		 jmp	 SHORT $LN1@LoadInt_e@2
$LN91@LoadInt_e@2:
  00178	88 4d ed	 mov	 BYTE PTR __k$[ebp+5], cl
  0017b	eb 1c		 jmp	 SHORT $LN1@LoadInt_e@2
$LN92@LoadInt_e@2:
  0017d	c6 45 ec ed	 mov	 BYTE PTR __k$[ebp+4], -19 ; ffffffedH
  00181	eb 16		 jmp	 SHORT $LN1@LoadInt_e@2
$LN93@LoadInt_e@2:
  00183	c6 45 eb ea	 mov	 BYTE PTR __k$[ebp+3], -22 ; ffffffeaH
  00187	eb 10		 jmp	 SHORT $LN1@LoadInt_e@2
$LN94@LoadInt_e@2:
  00189	c6 45 ea eb	 mov	 BYTE PTR __k$[ebp+2], -21 ; ffffffebH
  0018d	eb 0a		 jmp	 SHORT $LN1@LoadInt_e@2
$LN95@LoadInt_e@2:
  0018f	c6 45 e9 ec	 mov	 BYTE PTR __k$[ebp+1], -20 ; ffffffecH
  00193	eb 04		 jmp	 SHORT $LN1@LoadInt_e@2
$LN96@LoadInt_e@2:
  00195	c6 45 e8 ed	 mov	 BYTE PTR __k$[ebp], -19	; ffffffedH
$LN1@LoadInt_e@2:
  00199	6a 03		 push	 3
  0019b	8d 45 e8	 lea	 eax, DWORD PTR __k$[ebp]
  0019e	c6 45 f6 00	 mov	 BYTE PTR __k$[ebp+14], 0
  001a2	5a		 pop	 edx
$LL104@LoadInt_e@2:
  001a3	81 30 ed ec eb
	ea		 xor	 DWORD PTR [eax], -353637139 ; eaebecedH
  001a9	83 c0 04	 add	 eax, 4
  001ac	4a		 dec	 edx
  001ad	75 f4		 jne	 SHORT $LL104@LoadInt_e@2
  001af	6a 0c		 push	 12			; 0000000cH
  001b1	58		 pop	 eax
$LL101@LoadInt_e@2:
  001b2	8b c8		 mov	 ecx, eax
  001b4	81 e1 03 00 00
	80		 and	 ecx, -2147483645	; 80000003H
  001ba	79 05		 jns	 SHORT $LN111@LoadInt_e@2
  001bc	49		 dec	 ecx
  001bd	83 c9 fc	 or	 ecx, -4			; fffffffcH
  001c0	41		 inc	 ecx
$LN111@LoadInt_e@2:
  001c1	b2 ed		 mov	 dl, -19			; ffffffedH
  001c3	2a d1		 sub	 dl, cl
  001c5	30 54 05 e8	 xor	 BYTE PTR __k$[ebp+eax], dl
  001c9	40		 inc	 eax
  001ca	83 f8 0e	 cmp	 eax, 14			; 0000000eH
  001cd	7c e3		 jl	 SHORT $LL101@LoadInt_e@2

; 120  : 		return LoadInt(_k, i);

  001cf	ff 75 0c	 push	 DWORD PTR _i$[ebp]
  001d2	8d 45 e8	 lea	 eax, DWORD PTR __k$[ebp]
  001d5	50		 push	 eax
  001d6	8b ce		 mov	 ecx, esi
  001d8	ff 15 00 00 00
	00		 call	 DWORD PTR __imp_?LoadInt@ioINILoader@@QAEHPBDH@Z

; 121  : 	}

  001de	8b 4d fc	 mov	 ecx, DWORD PTR __$ArrayPad$[ebp]
  001e1	33 cd		 xor	 ecx, ebp
  001e3	5e		 pop	 esi
  001e4	e8 00 00 00 00	 call	 @__security_check_cookie@4
  001e9	c9		 leave
  001ea	c2 08 00	 ret	 8
??$LoadInt_e@$0P@@ioINILoader@@QAEHAAY0P@$$CBDH@Z ENDP	; ioINILoader::LoadInt_e<15>
_TEXT	ENDS
PUBLIC	__$ArrayPad$
PUBLIC	??$LoadBool_e@$0BA@@ioINILoader@@QAE_NAAY0BA@$$CBD_N@Z ; ioINILoader::LoadBool_e<16>
EXTRN	__imp_?LoadBool@ioINILoader@@QAE_NPBD_N@Z:PROC
; Function compile flags: /Ogsp
;	COMDAT ??$LoadBool_e@$0BA@@ioINILoader@@QAE_NAAY0BA@$$CBD_N@Z
_TEXT	SEGMENT
__k$ = -24						; size = 16
__$ArrayPad$ = -4					; size = 4
_k$ = 8							; size = 4
_b$ = 12						; size = 1
??$LoadBool_e@$0BA@@ioINILoader@@QAE_NAAY0BA@$$CBD_N@Z PROC ; ioINILoader::LoadBool_e<16>, COMDAT
; _this$ = ecx

; 101  : 	{

  00000	55		 push	 ebp
  00001	8b ec		 mov	 ebp, esp
  00003	83 ec 18	 sub	 esp, 24			; 00000018H
  00006	a1 00 00 00 00	 mov	 eax, DWORD PTR ___security_cookie
  0000b	33 c5		 xor	 eax, ebp
  0000d	89 45 fc	 mov	 DWORD PTR __$ArrayPad$[ebp], eax
  00010	8b 45 08	 mov	 eax, DWORD PTR _k$[ebp]

; 102  : 		_ENCSTR(k, _k);

  00013	8a 10		 mov	 dl, BYTE PTR [eax]
  00015	56		 push	 esi
  00016	8b f1		 mov	 esi, ecx
  00018	84 d2		 test	 dl, dl
  0001a	0f 84 8c 01 00
	00		 je	 $LN96@LoadBool_e
  00020	80 f2 ed	 xor	 dl, -19			; ffffffedH
  00023	88 55 e8	 mov	 BYTE PTR __k$[ebp], dl
  00026	8a 50 01	 mov	 dl, BYTE PTR [eax+1]
  00029	84 d2		 test	 dl, dl
  0002b	0f 84 75 01 00
	00		 je	 $LN95@LoadBool_e
  00031	80 f2 ec	 xor	 dl, -20			; ffffffecH
  00034	88 55 e9	 mov	 BYTE PTR __k$[ebp+1], dl
  00037	8a 50 02	 mov	 dl, BYTE PTR [eax+2]
  0003a	84 d2		 test	 dl, dl
  0003c	0f 84 5e 01 00
	00		 je	 $LN94@LoadBool_e
  00042	b1 eb		 mov	 cl, -21			; ffffffebH
  00044	32 d1		 xor	 dl, cl
  00046	88 55 ea	 mov	 BYTE PTR __k$[ebp+2], dl
  00049	8a 50 03	 mov	 dl, BYTE PTR [eax+3]
  0004c	84 d2		 test	 dl, dl
  0004e	0f 84 46 01 00
	00		 je	 $LN93@LoadBool_e
  00054	80 f2 ea	 xor	 dl, -22			; ffffffeaH
  00057	88 55 eb	 mov	 BYTE PTR __k$[ebp+3], dl
  0005a	8a 50 04	 mov	 dl, BYTE PTR [eax+4]
  0005d	84 d2		 test	 dl, dl
  0005f	0f 84 2f 01 00
	00		 je	 $LN92@LoadBool_e
  00065	80 f2 ed	 xor	 dl, -19			; ffffffedH
  00068	88 55 ec	 mov	 BYTE PTR __k$[ebp+4], dl
  0006b	8a 50 05	 mov	 dl, BYTE PTR [eax+5]
  0006e	84 d2		 test	 dl, dl
  00070	0f 84 18 01 00
	00		 je	 $LN91@LoadBool_e
  00076	80 f2 ec	 xor	 dl, -20			; ffffffecH
  00079	88 55 ed	 mov	 BYTE PTR __k$[ebp+5], dl
  0007c	8a 50 06	 mov	 dl, BYTE PTR [eax+6]
  0007f	84 d2		 test	 dl, dl
  00081	0f 84 02 01 00
	00		 je	 $LN90@LoadBool_e
  00087	32 d1		 xor	 dl, cl
  00089	88 55 ee	 mov	 BYTE PTR __k$[ebp+6], dl
  0008c	8a 50 07	 mov	 dl, BYTE PTR [eax+7]
  0008f	84 d2		 test	 dl, dl
  00091	0f 84 ec 00 00
	00		 je	 $LN89@LoadBool_e
  00097	80 f2 ea	 xor	 dl, -22			; ffffffeaH
  0009a	88 55 ef	 mov	 BYTE PTR __k$[ebp+7], dl
  0009d	8a 50 08	 mov	 dl, BYTE PTR [eax+8]
  000a0	84 d2		 test	 dl, dl
  000a2	0f 84 d5 00 00
	00		 je	 $LN88@LoadBool_e
  000a8	80 f2 ed	 xor	 dl, -19			; ffffffedH
  000ab	88 55 f0	 mov	 BYTE PTR __k$[ebp+8], dl
  000ae	8a 50 09	 mov	 dl, BYTE PTR [eax+9]
  000b1	84 d2		 test	 dl, dl
  000b3	0f 84 be 00 00
	00		 je	 $LN87@LoadBool_e
  000b9	80 f2 ec	 xor	 dl, -20			; ffffffecH
  000bc	88 55 f1	 mov	 BYTE PTR __k$[ebp+9], dl
  000bf	8a 50 0a	 mov	 dl, BYTE PTR [eax+10]
  000c2	84 d2		 test	 dl, dl
  000c4	0f 84 a8 00 00
	00		 je	 $LN86@LoadBool_e
  000ca	32 d1		 xor	 dl, cl
  000cc	88 55 f2	 mov	 BYTE PTR __k$[ebp+10], dl
  000cf	8a 50 0b	 mov	 dl, BYTE PTR [eax+11]
  000d2	84 d2		 test	 dl, dl
  000d4	0f 84 92 00 00
	00		 je	 $LN85@LoadBool_e
  000da	80 f2 ea	 xor	 dl, -22			; ffffffeaH
  000dd	88 55 f3	 mov	 BYTE PTR __k$[ebp+11], dl
  000e0	8a 50 0c	 mov	 dl, BYTE PTR [eax+12]
  000e3	84 d2		 test	 dl, dl
  000e5	74 7f		 je	 SHORT $LN84@LoadBool_e
  000e7	80 f2 ed	 xor	 dl, -19			; ffffffedH
  000ea	88 55 f4	 mov	 BYTE PTR __k$[ebp+12], dl
  000ed	8a 50 0d	 mov	 dl, BYTE PTR [eax+13]
  000f0	84 d2		 test	 dl, dl
  000f2	74 6c		 je	 SHORT $LN83@LoadBool_e
  000f4	80 f2 ec	 xor	 dl, -20			; ffffffecH
  000f7	88 55 f5	 mov	 BYTE PTR __k$[ebp+13], dl
  000fa	8a 50 0e	 mov	 dl, BYTE PTR [eax+14]
  000fd	84 d2		 test	 dl, dl
  000ff	74 5a		 je	 SHORT $LN82@LoadBool_e
  00101	32 d1		 xor	 dl, cl
  00103	80 78 0f 00	 cmp	 BYTE PTR [eax+15], 0
  00107	88 55 f6	 mov	 BYTE PTR __k$[ebp+14], dl
  0010a	0f 84 a0 00 00
	00		 je	 $LN1@LoadBool_e
  00110	8a 50 10	 mov	 dl, BYTE PTR [eax+16]
  00113	84 d2		 test	 dl, dl
  00115	74 3e		 je	 SHORT $LN80@LoadBool_e
  00117	80 f2 ed	 xor	 dl, -19			; ffffffedH
  0011a	88 55 f8	 mov	 BYTE PTR __k$[ebp+16], dl
  0011d	8a 50 11	 mov	 dl, BYTE PTR [eax+17]
  00120	84 d2		 test	 dl, dl
  00122	74 2b		 je	 SHORT $LN79@LoadBool_e
  00124	80 f2 ec	 xor	 dl, -20			; ffffffecH
  00127	88 55 f9	 mov	 BYTE PTR __k$[ebp+17], dl
  0012a	8a 50 12	 mov	 dl, BYTE PTR [eax+18]
  0012d	84 d2		 test	 dl, dl
  0012f	74 19		 je	 SHORT $LN78@LoadBool_e
  00131	8a 40 13	 mov	 al, BYTE PTR [eax+19]
  00134	32 d1		 xor	 dl, cl
  00136	88 55 fa	 mov	 BYTE PTR __k$[ebp+18], dl
  00139	84 c0		 test	 al, al
  0013b	74 07		 je	 SHORT $LN77@LoadBool_e
  0013d	34 ea		 xor	 al, -22			; ffffffeaH
  0013f	88 45 fb	 mov	 BYTE PTR __k$[ebp+19], al
  00142	eb 6c		 jmp	 SHORT $LN1@LoadBool_e
$LN77@LoadBool_e:
  00144	c6 45 fb ea	 mov	 BYTE PTR __k$[ebp+19], -22 ; ffffffeaH
  00148	eb 66		 jmp	 SHORT $LN1@LoadBool_e
$LN78@LoadBool_e:
  0014a	88 4d fa	 mov	 BYTE PTR __k$[ebp+18], cl
  0014d	eb 61		 jmp	 SHORT $LN1@LoadBool_e
$LN79@LoadBool_e:
  0014f	c6 45 f9 ec	 mov	 BYTE PTR __k$[ebp+17], -20 ; ffffffecH
  00153	eb 5b		 jmp	 SHORT $LN1@LoadBool_e
$LN80@LoadBool_e:
  00155	c6 45 f8 ed	 mov	 BYTE PTR __k$[ebp+16], -19 ; ffffffedH
  00159	eb 55		 jmp	 SHORT $LN1@LoadBool_e
$LN82@LoadBool_e:
  0015b	88 4d f6	 mov	 BYTE PTR __k$[ebp+14], cl
  0015e	eb 50		 jmp	 SHORT $LN1@LoadBool_e
$LN83@LoadBool_e:
  00160	c6 45 f5 ec	 mov	 BYTE PTR __k$[ebp+13], -20 ; ffffffecH
  00164	eb 4a		 jmp	 SHORT $LN1@LoadBool_e
$LN84@LoadBool_e:
  00166	c6 45 f4 ed	 mov	 BYTE PTR __k$[ebp+12], -19 ; ffffffedH
  0016a	eb 44		 jmp	 SHORT $LN1@LoadBool_e
$LN85@LoadBool_e:
  0016c	c6 45 f3 ea	 mov	 BYTE PTR __k$[ebp+11], -22 ; ffffffeaH
  00170	eb 3e		 jmp	 SHORT $LN1@LoadBool_e
$LN86@LoadBool_e:
  00172	88 4d f2	 mov	 BYTE PTR __k$[ebp+10], cl
  00175	eb 39		 jmp	 SHORT $LN1@LoadBool_e
$LN87@LoadBool_e:
  00177	c6 45 f1 ec	 mov	 BYTE PTR __k$[ebp+9], -20 ; ffffffecH
  0017b	eb 33		 jmp	 SHORT $LN1@LoadBool_e
$LN88@LoadBool_e:
  0017d	c6 45 f0 ed	 mov	 BYTE PTR __k$[ebp+8], -19 ; ffffffedH
  00181	eb 2d		 jmp	 SHORT $LN1@LoadBool_e
$LN89@LoadBool_e:
  00183	c6 45 ef ea	 mov	 BYTE PTR __k$[ebp+7], -22 ; ffffffeaH
  00187	eb 27		 jmp	 SHORT $LN1@LoadBool_e
$LN90@LoadBool_e:
  00189	88 4d ee	 mov	 BYTE PTR __k$[ebp+6], cl
  0018c	eb 22		 jmp	 SHORT $LN1@LoadBool_e
$LN91@LoadBool_e:
  0018e	c6 45 ed ec	 mov	 BYTE PTR __k$[ebp+5], -20 ; ffffffecH
  00192	eb 1c		 jmp	 SHORT $LN1@LoadBool_e
$LN92@LoadBool_e:
  00194	c6 45 ec ed	 mov	 BYTE PTR __k$[ebp+4], -19 ; ffffffedH
  00198	eb 16		 jmp	 SHORT $LN1@LoadBool_e
$LN93@LoadBool_e:
  0019a	c6 45 eb ea	 mov	 BYTE PTR __k$[ebp+3], -22 ; ffffffeaH
  0019e	eb 10		 jmp	 SHORT $LN1@LoadBool_e
$LN94@LoadBool_e:
  001a0	c6 45 ea eb	 mov	 BYTE PTR __k$[ebp+2], -21 ; ffffffebH
  001a4	eb 0a		 jmp	 SHORT $LN1@LoadBool_e
$LN95@LoadBool_e:
  001a6	c6 45 e9 ec	 mov	 BYTE PTR __k$[ebp+1], -20 ; ffffffecH
  001aa	eb 04		 jmp	 SHORT $LN1@LoadBool_e
$LN96@LoadBool_e:
  001ac	c6 45 e8 ed	 mov	 BYTE PTR __k$[ebp], -19	; ffffffedH
$LN1@LoadBool_e:
  001b0	6a 03		 push	 3
  001b2	8d 45 e8	 lea	 eax, DWORD PTR __k$[ebp]
  001b5	c6 45 f7 00	 mov	 BYTE PTR __k$[ebp+15], 0
  001b9	5a		 pop	 edx
$LL104@LoadBool_e:
  001ba	81 30 ed ec eb
	ea		 xor	 DWORD PTR [eax], -353637139 ; eaebecedH
  001c0	83 c0 04	 add	 eax, 4
  001c3	4a		 dec	 edx
  001c4	75 f4		 jne	 SHORT $LL104@LoadBool_e
  001c6	6a 0c		 push	 12			; 0000000cH
  001c8	58		 pop	 eax
$LL101@LoadBool_e:
  001c9	8b c8		 mov	 ecx, eax
  001cb	81 e1 03 00 00
	80		 and	 ecx, -2147483645	; 80000003H
  001d1	79 05		 jns	 SHORT $LN111@LoadBool_e
  001d3	49		 dec	 ecx
  001d4	83 c9 fc	 or	 ecx, -4			; fffffffcH
  001d7	41		 inc	 ecx
$LN111@LoadBool_e:
  001d8	b2 ed		 mov	 dl, -19			; ffffffedH
  001da	2a d1		 sub	 dl, cl
  001dc	30 54 05 e8	 xor	 BYTE PTR __k$[ebp+eax], dl
  001e0	40		 inc	 eax
  001e1	83 f8 0f	 cmp	 eax, 15			; 0000000fH
  001e4	7c e3		 jl	 SHORT $LL101@LoadBool_e

; 103  : 		return LoadBool(_k, b);

  001e6	ff 75 0c	 push	 DWORD PTR _b$[ebp]
  001e9	8d 45 e8	 lea	 eax, DWORD PTR __k$[ebp]
  001ec	50		 push	 eax
  001ed	8b ce		 mov	 ecx, esi
  001ef	ff 15 00 00 00
	00		 call	 DWORD PTR __imp_?LoadBool@ioINILoader@@QAE_NPBD_N@Z

; 104  : 	}

  001f5	8b 4d fc	 mov	 ecx, DWORD PTR __$ArrayPad$[ebp]
  001f8	33 cd		 xor	 ecx, ebp
  001fa	5e		 pop	 esi
  001fb	e8 00 00 00 00	 call	 @__security_check_cookie@4
  00200	c9		 leave
  00201	c2 08 00	 ret	 8
??$LoadBool_e@$0BA@@ioINILoader@@QAE_NAAY0BA@$$CBD_N@Z ENDP ; ioINILoader::LoadBool_e<16>
_TEXT	ENDS
PUBLIC	__real@3fd2ee0d320154cb
PUBLIC	__real@41f0000000000000
PUBLIC	??$RADtoDEG@M@@YAMM@Z				; RADtoDEG<float>
;	COMDAT __real@3fd2ee0d320154cb
; File d:\lost saga for developer\youtube\tutorial\source\src\lsclient\veryoftenusedefine.h
CONST	SEGMENT
__real@3fd2ee0d320154cb DQ 03fd2ee0d320154cbr	; 0.29578
CONST	ENDS
;	COMDAT __real@41f0000000000000
CONST	SEGMENT
__real@41f0000000000000 DQ 041f0000000000000r	; 4.29497e+009
; Function compile flags: /Ogsp
CONST	ENDS
;	COMDAT ??$RADtoDEG@M@@YAMM@Z
_TEXT	SEGMENT
tv130 = -4						; size = 4
tv75 = 8						; size = 4
_val$ = 8						; size = 4
??$RADtoDEG@M@@YAMM@Z PROC				; RADtoDEG<float>, COMDAT

; 18   : type  RADtoDEG (type val) {return (type) (val * (return57() + 0.2957795132)); }

  00000	55		 push	 ebp
  00001	8b ec		 mov	 ebp, esp
  00003	51		 push	 ecx
  00004	b8 39 00 00 00	 mov	 eax, 57			; 00000039H
  00009	89 45 fc	 mov	 DWORD PTR tv130[ebp], eax
  0000c	db 45 fc	 fild	 DWORD PTR tv130[ebp]
  0000f	85 c0		 test	 eax, eax
  00011	79 06		 jns	 SHORT $LN5@RADtoDEG
  00013	dc 05 00 00 00
	00		 fadd	 QWORD PTR __real@41f0000000000000
$LN5@RADtoDEG:
  00019	dc 05 00 00 00
	00		 fadd	 QWORD PTR __real@3fd2ee0d320154cb
  0001f	d8 4d 08	 fmul	 DWORD PTR _val$[ebp]
  00022	d9 5d 08	 fstp	 DWORD PTR tv75[ebp]
  00025	d9 45 08	 fld	 DWORD PTR tv75[ebp]
  00028	c9		 leave
  00029	c3		 ret	 0
??$RADtoDEG@M@@YAMM@Z ENDP				; RADtoDEG<float>
_TEXT	ENDS
PUBLIC	??$GetAnimationEventTime_e@$06@ioEntityGroup@@QAEMHAAY06$$CBD@Z ; ioEntityGroup::GetAnimationEventTime_e<7>
EXTRN	__imp_?GetAnimationEventTime@ioEntityGroup@@QAEMHABVioHashString@@@Z:PROC
EXTRN	__imp_??0ioHashString@@QAE@PBD@Z:PROC
EXTRN	__EH_epilog3_GS:PROC
EXTRN	__EH_prolog3_GS:PROC
;	COMDAT xdata$x
; File d:\lost saga for developer\youtube\tutorial\source\src\lsclient\stringprotect.h
xdata$x	SEGMENT
__unwindtable$??$GetAnimationEventTime_e@$06@ioEntityGroup@@QAEMHAAY06$$CBD@Z DD 0ffffffffH
	DD	FLAT:__unwindfunclet$??$GetAnimationEventTime_e@$06@ioEntityGroup@@QAEMHAAY06$$CBD@Z$0
__ehfuncinfo$??$GetAnimationEventTime_e@$06@ioEntityGroup@@QAEMHAAY06$$CBD@Z DD 019930522H
	DD	01H
	DD	FLAT:__unwindtable$??$GetAnimationEventTime_e@$06@ioEntityGroup@@QAEMHAAY06$$CBD@Z
	DD	2 DUP(00H)
	DD	2 DUP(00H)
	DD	00H
	DD	01H
; Function compile flags: /Ogsp
; File d:\lost saga for developer\youtube\tutorial\source\src\io3dengine\ioentitygroup.h
xdata$x	ENDS
;	COMDAT ??$GetAnimationEventTime_e@$06@ioEntityGroup@@QAEMHAAY06$$CBD@Z
_TEXT	SEGMENT
$T535889 = -48						; size = 16
$T535888 = -32						; size = 4
_szEncEventType$ = -28					; size = 7
__$EHRec$ = -12						; size = 12
_id$ = 8						; size = 4
_szEventType$ = 12					; size = 4
??$GetAnimationEventTime_e@$06@ioEntityGroup@@QAEMHAAY06$$CBD@Z PROC ; ioEntityGroup::GetAnimationEventTime_e<7>, COMDAT
; _this$ = ecx

; 414  : 	{

  00000	6a 24		 push	 36			; 00000024H
  00002	b8 00 00 00 00	 mov	 eax, __ehhandler$??$GetAnimationEventTime_e@$06@ioEntityGroup@@QAEMHAAY06$$CBD@Z
  00007	e8 00 00 00 00	 call	 __EH_prolog3_GS
  0000c	8b 45 0c	 mov	 eax, DWORD PTR _szEventType$[ebp]
  0000f	8b f1		 mov	 esi, ecx

; 415  : 		_ENCSTR(szEventType, szEncEventType);

  00011	8a 08		 mov	 cl, BYTE PTR [eax]
  00013	84 c9		 test	 cl, cl
  00015	0f 84 c0 00 00
	00		 je	 $LN96@GetAnimati
  0001b	80 f1 ed	 xor	 cl, -19			; ffffffedH
  0001e	88 4d e4	 mov	 BYTE PTR _szEncEventType$[ebp], cl
  00021	8a 48 01	 mov	 cl, BYTE PTR [eax+1]
  00024	84 c9		 test	 cl, cl
  00026	0f 84 a9 00 00
	00		 je	 $LN95@GetAnimati
  0002c	80 f1 ec	 xor	 cl, -20			; ffffffecH
  0002f	88 4d e5	 mov	 BYTE PTR _szEncEventType$[ebp+1], cl
  00032	8a 48 02	 mov	 cl, BYTE PTR [eax+2]
  00035	84 c9		 test	 cl, cl
  00037	0f 84 92 00 00
	00		 je	 $LN94@GetAnimati
  0003d	80 f1 eb	 xor	 cl, -21			; ffffffebH
  00040	88 4d e6	 mov	 BYTE PTR _szEncEventType$[ebp+2], cl
  00043	8a 48 03	 mov	 cl, BYTE PTR [eax+3]
  00046	84 c9		 test	 cl, cl
  00048	74 7f		 je	 SHORT $LN93@GetAnimati
  0004a	80 f1 ea	 xor	 cl, -22			; ffffffeaH
  0004d	88 4d e7	 mov	 BYTE PTR _szEncEventType$[ebp+3], cl
  00050	8a 48 04	 mov	 cl, BYTE PTR [eax+4]
  00053	84 c9		 test	 cl, cl
  00055	74 6c		 je	 SHORT $LN92@GetAnimati
  00057	80 f1 ed	 xor	 cl, -19			; ffffffedH
  0005a	88 4d e8	 mov	 BYTE PTR _szEncEventType$[ebp+4], cl
  0005d	8a 48 05	 mov	 cl, BYTE PTR [eax+5]
  00060	84 c9		 test	 cl, cl
  00062	74 59		 je	 SHORT $LN91@GetAnimati
  00064	80 f1 ec	 xor	 cl, -20			; ffffffecH
  00067	80 78 06 00	 cmp	 BYTE PTR [eax+6], 0
  0006b	88 4d e9	 mov	 BYTE PTR _szEncEventType$[ebp+5], cl
  0006e	74 6f		 je	 SHORT $LN1@GetAnimati
  00070	8a 48 07	 mov	 cl, BYTE PTR [eax+7]
  00073	84 c9		 test	 cl, cl
  00075	74 40		 je	 SHORT $LN89@GetAnimati
  00077	80 f1 ea	 xor	 cl, -22			; ffffffeaH
  0007a	88 4d eb	 mov	 BYTE PTR _szEncEventType$[ebp+7], cl
  0007d	8a 48 08	 mov	 cl, BYTE PTR [eax+8]
  00080	84 c9		 test	 cl, cl
  00082	74 2d		 je	 SHORT $LN88@GetAnimati
  00084	80 f1 ed	 xor	 cl, -19			; ffffffedH
  00087	88 4d ec	 mov	 BYTE PTR _szEncEventType$[ebp+8], cl
  0008a	8a 48 09	 mov	 cl, BYTE PTR [eax+9]
  0008d	84 c9		 test	 cl, cl
  0008f	74 1a		 je	 SHORT $LN87@GetAnimati
  00091	8a 40 0a	 mov	 al, BYTE PTR [eax+10]
  00094	80 f1 ec	 xor	 cl, -20			; ffffffecH
  00097	88 4d ed	 mov	 BYTE PTR _szEncEventType$[ebp+9], cl
  0009a	84 c0		 test	 al, al
  0009c	74 07		 je	 SHORT $LN86@GetAnimati
  0009e	34 eb		 xor	 al, -21			; ffffffebH
  000a0	88 45 ee	 mov	 BYTE PTR _szEncEventType$[ebp+10], al
  000a3	eb 3a		 jmp	 SHORT $LN1@GetAnimati
$LN86@GetAnimati:
  000a5	c6 45 ee eb	 mov	 BYTE PTR _szEncEventType$[ebp+10], -21 ; ffffffebH
  000a9	eb 34		 jmp	 SHORT $LN1@GetAnimati
$LN87@GetAnimati:
  000ab	c6 45 ed ec	 mov	 BYTE PTR _szEncEventType$[ebp+9], -20 ; ffffffecH
  000af	eb 2e		 jmp	 SHORT $LN1@GetAnimati
$LN88@GetAnimati:
  000b1	c6 45 ec ed	 mov	 BYTE PTR _szEncEventType$[ebp+8], -19 ; ffffffedH
  000b5	eb 28		 jmp	 SHORT $LN1@GetAnimati
$LN89@GetAnimati:
  000b7	c6 45 eb ea	 mov	 BYTE PTR _szEncEventType$[ebp+7], -22 ; ffffffeaH
  000bb	eb 22		 jmp	 SHORT $LN1@GetAnimati
$LN91@GetAnimati:
  000bd	c6 45 e9 ec	 mov	 BYTE PTR _szEncEventType$[ebp+5], -20 ; ffffffecH
  000c1	eb 1c		 jmp	 SHORT $LN1@GetAnimati
$LN92@GetAnimati:
  000c3	c6 45 e8 ed	 mov	 BYTE PTR _szEncEventType$[ebp+4], -19 ; ffffffedH
  000c7	eb 16		 jmp	 SHORT $LN1@GetAnimati
$LN93@GetAnimati:
  000c9	c6 45 e7 ea	 mov	 BYTE PTR _szEncEventType$[ebp+3], -22 ; ffffffeaH
  000cd	eb 10		 jmp	 SHORT $LN1@GetAnimati
$LN94@GetAnimati:
  000cf	c6 45 e6 eb	 mov	 BYTE PTR _szEncEventType$[ebp+2], -21 ; ffffffebH
  000d3	eb 0a		 jmp	 SHORT $LN1@GetAnimati
$LN95@GetAnimati:
  000d5	c6 45 e5 ec	 mov	 BYTE PTR _szEncEventType$[ebp+1], -20 ; ffffffecH
  000d9	eb 04		 jmp	 SHORT $LN1@GetAnimati
$LN96@GetAnimati:
  000db	c6 45 e4 ed	 mov	 BYTE PTR _szEncEventType$[ebp], -19 ; ffffffedH
$LN1@GetAnimati:
  000df	81 75 e4 ed ec
	eb ea		 xor	 DWORD PTR _szEncEventType$[ebp], -353637139 ; eaebecedH
  000e6	6a 04		 push	 4
  000e8	c6 45 ea 00	 mov	 BYTE PTR _szEncEventType$[ebp+6], 0
  000ec	58		 pop	 eax
$LL102@GetAnimati:
  000ed	8b c8		 mov	 ecx, eax
  000ef	81 e1 03 00 00
	80		 and	 ecx, -2147483645	; 80000003H
  000f5	79 05		 jns	 SHORT $LN113@GetAnimati
  000f7	49		 dec	 ecx
  000f8	83 c9 fc	 or	 ecx, -4			; fffffffcH
  000fb	41		 inc	 ecx
$LN113@GetAnimati:
  000fc	b2 ed		 mov	 dl, -19			; ffffffedH
  000fe	2a d1		 sub	 dl, cl
  00100	30 54 05 e4	 xor	 BYTE PTR _szEncEventType$[ebp+eax], dl
  00104	40		 inc	 eax
  00105	83 f8 06	 cmp	 eax, 6
  00108	7c e3		 jl	 SHORT $LL102@GetAnimati

; 416  : 		return GetAnimationEventTime(id, szEncEventType);

  0010a	8d 45 e4	 lea	 eax, DWORD PTR _szEncEventType$[ebp]
  0010d	50		 push	 eax
  0010e	8d 4d d0	 lea	 ecx, DWORD PTR $T535889[ebp]
  00111	ff 15 00 00 00
	00		 call	 DWORD PTR __imp_??0ioHashString@@QAE@PBD@Z
  00117	83 65 fc 00	 and	 DWORD PTR __$EHRec$[ebp+8], 0
  0011b	8d 45 d0	 lea	 eax, DWORD PTR $T535889[ebp]
  0011e	50		 push	 eax
  0011f	ff 75 08	 push	 DWORD PTR _id$[ebp]
  00122	8b ce		 mov	 ecx, esi
  00124	ff 15 00 00 00
	00		 call	 DWORD PTR __imp_?GetAnimationEventTime@ioEntityGroup@@QAEMHABVioHashString@@@Z
  0012a	d9 5d e0	 fstp	 DWORD PTR $T535888[ebp]
  0012d	83 4d fc ff	 or	 DWORD PTR __$EHRec$[ebp+8], -1
  00131	8d 4d d0	 lea	 ecx, DWORD PTR $T535889[ebp]
  00134	ff 15 00 00 00
	00		 call	 DWORD PTR __imp_??1ioHashString@@QAE@XZ
  0013a	d9 45 e0	 fld	 DWORD PTR $T535888[ebp]

; 417  : 	}

  0013d	e8 00 00 00 00	 call	 __EH_epilog3_GS
  00142	c2 08 00	 ret	 8
_TEXT	ENDS
;	COMDAT text$x
text$x	SEGMENT
__unwindfunclet$??$GetAnimationEventTime_e@$06@ioEntityGroup@@QAEMHAAY06$$CBD@Z$0:
  00000	8d 4d d0	 lea	 ecx, DWORD PTR $T535889[ebp]
  00003	ff 25 00 00 00
	00		 jmp	 DWORD PTR __imp_??1ioHashString@@QAE@XZ
__ehhandler$??$GetAnimationEventTime_e@$06@ioEntityGroup@@QAEMHAAY06$$CBD@Z:
  00009	8b 54 24 08	 mov	 edx, DWORD PTR [esp+8]
  0000d	8d 42 0c	 lea	 eax, DWORD PTR [edx+12]
  00010	8b 4a cc	 mov	 ecx, DWORD PTR [edx-52]
  00013	33 c8		 xor	 ecx, eax
  00015	e8 00 00 00 00	 call	 @__security_check_cookie@4
  0001a	8b 4a fc	 mov	 ecx, DWORD PTR [edx-4]
  0001d	33 c8		 xor	 ecx, eax
  0001f	e8 00 00 00 00	 call	 @__security_check_cookie@4
  00024	b8 00 00 00 00	 mov	 eax, OFFSET __ehfuncinfo$??$GetAnimationEventTime_e@$06@ioEntityGroup@@QAEMHAAY06$$CBD@Z
  00029	e9 00 00 00 00	 jmp	 ___CxxFrameHandler3
text$x	ENDS
??$GetAnimationEventTime_e@$06@ioEntityGroup@@QAEMHAAY06$$CBD@Z ENDP ; ioEntityGroup::GetAnimationEventTime_e<7>
PUBLIC	??$GetAnimationEventTime_e@$0N@@ioEntityGroup@@QAEMHAAY0N@$$CBD@Z ; ioEntityGroup::GetAnimationEventTime_e<13>
;	COMDAT xdata$x
; File d:\lost saga for developer\youtube\tutorial\source\src\lsclient\stringprotect.h
xdata$x	SEGMENT
__unwindtable$??$GetAnimationEventTime_e@$0N@@ioEntityGroup@@QAEMHAAY0N@$$CBD@Z DD 0ffffffffH
	DD	FLAT:__unwindfunclet$??$GetAnimationEventTime_e@$0N@@ioEntityGroup@@QAEMHAAY0N@$$CBD@Z$0
__ehfuncinfo$??$GetAnimationEventTime_e@$0N@@ioEntityGroup@@QAEMHAAY0N@$$CBD@Z DD 019930522H
	DD	01H
	DD	FLAT:__unwindtable$??$GetAnimationEventTime_e@$0N@@ioEntityGroup@@QAEMHAAY0N@$$CBD@Z
	DD	2 DUP(00H)
	DD	2 DUP(00H)
	DD	00H
	DD	01H
; Function compile flags: /Ogsp
; File d:\lost saga for developer\youtube\tutorial\source\src\io3dengine\ioentitygroup.h
xdata$x	ENDS
;	COMDAT ??$GetAnimationEventTime_e@$0N@@ioEntityGroup@@QAEMHAAY0N@$$CBD@Z
_TEXT	SEGMENT
$T535922 = -56						; size = 16
$T535921 = -40						; size = 4
_szEncEventType$ = -36					; size = 13
__$EHRec$ = -12						; size = 12
_id$ = 8						; size = 4
_szEventType$ = 12					; size = 4
??$GetAnimationEventTime_e@$0N@@ioEntityGroup@@QAEMHAAY0N@$$CBD@Z PROC ; ioEntityGroup::GetAnimationEventTime_e<13>, COMDAT
; _this$ = ecx

; 414  : 	{

  00000	6a 2c		 push	 44			; 0000002cH
  00002	b8 00 00 00 00	 mov	 eax, __ehhandler$??$GetAnimationEventTime_e@$0N@@ioEntityGroup@@QAEMHAAY0N@$$CBD@Z
  00007	e8 00 00 00 00	 call	 __EH_prolog3_GS
  0000c	8b 45 0c	 mov	 eax, DWORD PTR _szEventType$[ebp]
  0000f	8b f1		 mov	 esi, ecx

; 415  : 		_ENCSTR(szEventType, szEncEventType);

  00011	8a 08		 mov	 cl, BYTE PTR [eax]
  00013	84 c9		 test	 cl, cl
  00015	0f 84 49 01 00
	00		 je	 $LN96@GetAnimati@2
  0001b	80 f1 ed	 xor	 cl, -19			; ffffffedH
  0001e	88 4d dc	 mov	 BYTE PTR _szEncEventType$[ebp], cl
  00021	8a 48 01	 mov	 cl, BYTE PTR [eax+1]
  00024	84 c9		 test	 cl, cl
  00026	0f 84 32 01 00
	00		 je	 $LN95@GetAnimati@2
  0002c	80 f1 ec	 xor	 cl, -20			; ffffffecH
  0002f	88 4d dd	 mov	 BYTE PTR _szEncEventType$[ebp+1], cl
  00032	8a 48 02	 mov	 cl, BYTE PTR [eax+2]
  00035	84 c9		 test	 cl, cl
  00037	0f 84 1b 01 00
	00		 je	 $LN94@GetAnimati@2
  0003d	b2 eb		 mov	 dl, -21			; ffffffebH
  0003f	32 ca		 xor	 cl, dl
  00041	88 4d de	 mov	 BYTE PTR _szEncEventType$[ebp+2], cl
  00044	8a 48 03	 mov	 cl, BYTE PTR [eax+3]
  00047	84 c9		 test	 cl, cl
  00049	0f 84 03 01 00
	00		 je	 $LN93@GetAnimati@2
  0004f	80 f1 ea	 xor	 cl, -22			; ffffffeaH
  00052	88 4d df	 mov	 BYTE PTR _szEncEventType$[ebp+3], cl
  00055	8a 48 04	 mov	 cl, BYTE PTR [eax+4]
  00058	84 c9		 test	 cl, cl
  0005a	0f 84 ec 00 00
	00		 je	 $LN92@GetAnimati@2
  00060	80 f1 ed	 xor	 cl, -19			; ffffffedH
  00063	88 4d e0	 mov	 BYTE PTR _szEncEventType$[ebp+4], cl
  00066	8a 48 05	 mov	 cl, BYTE PTR [eax+5]
  00069	84 c9		 test	 cl, cl
  0006b	0f 84 d5 00 00
	00		 je	 $LN91@GetAnimati@2
  00071	80 f1 ec	 xor	 cl, -20			; ffffffecH
  00074	88 4d e1	 mov	 BYTE PTR _szEncEventType$[ebp+5], cl
  00077	8a 48 06	 mov	 cl, BYTE PTR [eax+6]
  0007a	84 c9		 test	 cl, cl
  0007c	0f 84 bf 00 00
	00		 je	 $LN90@GetAnimati@2
  00082	32 ca		 xor	 cl, dl
  00084	88 4d e2	 mov	 BYTE PTR _szEncEventType$[ebp+6], cl
  00087	8a 48 07	 mov	 cl, BYTE PTR [eax+7]
  0008a	84 c9		 test	 cl, cl
  0008c	0f 84 a9 00 00
	00		 je	 $LN89@GetAnimati@2
  00092	80 f1 ea	 xor	 cl, -22			; ffffffeaH
  00095	88 4d e3	 mov	 BYTE PTR _szEncEventType$[ebp+7], cl
  00098	8a 48 08	 mov	 cl, BYTE PTR [eax+8]
  0009b	84 c9		 test	 cl, cl
  0009d	0f 84 92 00 00
	00		 je	 $LN88@GetAnimati@2
  000a3	80 f1 ed	 xor	 cl, -19			; ffffffedH
  000a6	88 4d e4	 mov	 BYTE PTR _szEncEventType$[ebp+8], cl
  000a9	8a 48 09	 mov	 cl, BYTE PTR [eax+9]
  000ac	84 c9		 test	 cl, cl
  000ae	74 7f		 je	 SHORT $LN87@GetAnimati@2
  000b0	80 f1 ec	 xor	 cl, -20			; ffffffecH
  000b3	88 4d e5	 mov	 BYTE PTR _szEncEventType$[ebp+9], cl
  000b6	8a 48 0a	 mov	 cl, BYTE PTR [eax+10]
  000b9	84 c9		 test	 cl, cl
  000bb	74 6d		 je	 SHORT $LN86@GetAnimati@2
  000bd	32 ca		 xor	 cl, dl
  000bf	88 4d e6	 mov	 BYTE PTR _szEncEventType$[ebp+10], cl
  000c2	8a 48 0b	 mov	 cl, BYTE PTR [eax+11]
  000c5	84 c9		 test	 cl, cl
  000c7	74 5b		 je	 SHORT $LN85@GetAnimati@2
  000c9	80 f1 ea	 xor	 cl, -22			; ffffffeaH
  000cc	80 78 0c 00	 cmp	 BYTE PTR [eax+12], 0
  000d0	88 4d e7	 mov	 BYTE PTR _szEncEventType$[ebp+11], cl
  000d3	0f 84 8f 00 00
	00		 je	 $LN1@GetAnimati@2
  000d9	8a 48 0d	 mov	 cl, BYTE PTR [eax+13]
  000dc	84 c9		 test	 cl, cl
  000de	74 3e		 je	 SHORT $LN83@GetAnimati@2
  000e0	80 f1 ec	 xor	 cl, -20			; ffffffecH
  000e3	88 4d e9	 mov	 BYTE PTR _szEncEventType$[ebp+13], cl
  000e6	8a 48 0e	 mov	 cl, BYTE PTR [eax+14]
  000e9	84 c9		 test	 cl, cl
  000eb	74 2c		 je	 SHORT $LN82@GetAnimati@2
  000ed	32 ca		 xor	 cl, dl
  000ef	88 4d ea	 mov	 BYTE PTR _szEncEventType$[ebp+14], cl
  000f2	8a 48 0f	 mov	 cl, BYTE PTR [eax+15]
  000f5	84 c9		 test	 cl, cl
  000f7	74 1a		 je	 SHORT $LN81@GetAnimati@2
  000f9	8a 40 10	 mov	 al, BYTE PTR [eax+16]
  000fc	80 f1 ea	 xor	 cl, -22			; ffffffeaH
  000ff	88 4d eb	 mov	 BYTE PTR _szEncEventType$[ebp+15], cl
  00102	84 c0		 test	 al, al
  00104	74 07		 je	 SHORT $LN80@GetAnimati@2
  00106	34 ed		 xor	 al, -19			; ffffffedH
  00108	88 45 ec	 mov	 BYTE PTR _szEncEventType$[ebp+16], al
  0010b	eb 5b		 jmp	 SHORT $LN1@GetAnimati@2
$LN80@GetAnimati@2:
  0010d	c6 45 ec ed	 mov	 BYTE PTR _szEncEventType$[ebp+16], -19 ; ffffffedH
  00111	eb 55		 jmp	 SHORT $LN1@GetAnimati@2
$LN81@GetAnimati@2:
  00113	c6 45 eb ea	 mov	 BYTE PTR _szEncEventType$[ebp+15], -22 ; ffffffeaH
  00117	eb 4f		 jmp	 SHORT $LN1@GetAnimati@2
$LN82@GetAnimati@2:
  00119	88 55 ea	 mov	 BYTE PTR _szEncEventType$[ebp+14], dl
  0011c	eb 4a		 jmp	 SHORT $LN1@GetAnimati@2
$LN83@GetAnimati@2:
  0011e	c6 45 e9 ec	 mov	 BYTE PTR _szEncEventType$[ebp+13], -20 ; ffffffecH
  00122	eb 44		 jmp	 SHORT $LN1@GetAnimati@2
$LN85@GetAnimati@2:
  00124	c6 45 e7 ea	 mov	 BYTE PTR _szEncEventType$[ebp+11], -22 ; ffffffeaH
  00128	eb 3e		 jmp	 SHORT $LN1@GetAnimati@2
$LN86@GetAnimati@2:
  0012a	88 55 e6	 mov	 BYTE PTR _szEncEventType$[ebp+10], dl
  0012d	eb 39		 jmp	 SHORT $LN1@GetAnimati@2
$LN87@GetAnimati@2:
  0012f	c6 45 e5 ec	 mov	 BYTE PTR _szEncEventType$[ebp+9], -20 ; ffffffecH
  00133	eb 33		 jmp	 SHORT $LN1@GetAnimati@2
$LN88@GetAnimati@2:
  00135	c6 45 e4 ed	 mov	 BYTE PTR _szEncEventType$[ebp+8], -19 ; ffffffedH
  00139	eb 2d		 jmp	 SHORT $LN1@GetAnimati@2
$LN89@GetAnimati@2:
  0013b	c6 45 e3 ea	 mov	 BYTE PTR _szEncEventType$[ebp+7], -22 ; ffffffeaH
  0013f	eb 27		 jmp	 SHORT $LN1@GetAnimati@2
$LN90@GetAnimati@2:
  00141	88 55 e2	 mov	 BYTE PTR _szEncEventType$[ebp+6], dl
  00144	eb 22		 jmp	 SHORT $LN1@GetAnimati@2
$LN91@GetAnimati@2:
  00146	c6 45 e1 ec	 mov	 BYTE PTR _szEncEventType$[ebp+5], -20 ; ffffffecH
  0014a	eb 1c		 jmp	 SHORT $LN1@GetAnimati@2
$LN92@GetAnimati@2:
  0014c	c6 45 e0 ed	 mov	 BYTE PTR _szEncEventType$[ebp+4], -19 ; ffffffedH
  00150	eb 16		 jmp	 SHORT $LN1@GetAnimati@2
$LN93@GetAnimati@2:
  00152	c6 45 df ea	 mov	 BYTE PTR _szEncEventType$[ebp+3], -22 ; ffffffeaH
  00156	eb 10		 jmp	 SHORT $LN1@GetAnimati@2
$LN94@GetAnimati@2:
  00158	c6 45 de eb	 mov	 BYTE PTR _szEncEventType$[ebp+2], -21 ; ffffffebH
  0015c	eb 0a		 jmp	 SHORT $LN1@GetAnimati@2
$LN95@GetAnimati@2:
  0015e	c6 45 dd ec	 mov	 BYTE PTR _szEncEventType$[ebp+1], -20 ; ffffffecH
  00162	eb 04		 jmp	 SHORT $LN1@GetAnimati@2
$LN96@GetAnimati@2:
  00164	c6 45 dc ed	 mov	 BYTE PTR _szEncEventType$[ebp], -19 ; ffffffedH
$LN1@GetAnimati@2:
  00168	6a 03		 push	 3
  0016a	8d 45 dc	 lea	 eax, DWORD PTR _szEncEventType$[ebp]
  0016d	c6 45 e8 00	 mov	 BYTE PTR _szEncEventType$[ebp+12], 0
  00171	59		 pop	 ecx
$LL105@GetAnimati@2:
  00172	81 30 ed ec eb
	ea		 xor	 DWORD PTR [eax], -353637139 ; eaebecedH
  00178	83 c0 04	 add	 eax, 4
  0017b	49		 dec	 ecx
  0017c	75 f4		 jne	 SHORT $LL105@GetAnimati@2

; 416  : 		return GetAnimationEventTime(id, szEncEventType);

  0017e	8d 45 dc	 lea	 eax, DWORD PTR _szEncEventType$[ebp]
  00181	50		 push	 eax
  00182	8d 4d c8	 lea	 ecx, DWORD PTR $T535922[ebp]
  00185	ff 15 00 00 00
	00		 call	 DWORD PTR __imp_??0ioHashString@@QAE@PBD@Z
  0018b	83 65 fc 00	 and	 DWORD PTR __$EHRec$[ebp+8], 0
  0018f	8d 45 c8	 lea	 eax, DWORD PTR $T535922[ebp]
  00192	50		 push	 eax
  00193	ff 75 08	 push	 DWORD PTR _id$[ebp]
  00196	8b ce		 mov	 ecx, esi
  00198	ff 15 00 00 00
	00		 call	 DWORD PTR __imp_?GetAnimationEventTime@ioEntityGroup@@QAEMHABVioHashString@@@Z
  0019e	d9 5d d8	 fstp	 DWORD PTR $T535921[ebp]
  001a1	83 4d fc ff	 or	 DWORD PTR __$EHRec$[ebp+8], -1
  001a5	8d 4d c8	 lea	 ecx, DWORD PTR $T535922[ebp]
  001a8	ff 15 00 00 00
	00		 call	 DWORD PTR __imp_??1ioHashString@@QAE@XZ
  001ae	d9 45 d8	 fld	 DWORD PTR $T535921[ebp]

; 417  : 	}

  001b1	e8 00 00 00 00	 call	 __EH_epilog3_GS
  001b6	c2 08 00	 ret	 8
_TEXT	ENDS
;	COMDAT text$x
text$x	SEGMENT
__unwindfunclet$??$GetAnimationEventTime_e@$0N@@ioEntityGroup@@QAEMHAAY0N@$$CBD@Z$0:
  00000	8d 4d c8	 lea	 ecx, DWORD PTR $T535922[ebp]
  00003	ff 25 00 00 00
	00		 jmp	 DWORD PTR __imp_??1ioHashString@@QAE@XZ
__ehhandler$??$GetAnimationEventTime_e@$0N@@ioEntityGroup@@QAEMHAAY0N@$$CBD@Z:
  00009	8b 54 24 08	 mov	 edx, DWORD PTR [esp+8]
  0000d	8d 42 0c	 lea	 eax, DWORD PTR [edx+12]
  00010	8b 4a c4	 mov	 ecx, DWORD PTR [edx-60]
  00013	33 c8		 xor	 ecx, eax
  00015	e8 00 00 00 00	 call	 @__security_check_cookie@4
  0001a	8b 4a fc	 mov	 ecx, DWORD PTR [edx-4]
  0001d	33 c8		 xor	 ecx, eax
  0001f	e8 00 00 00 00	 call	 @__security_check_cookie@4
  00024	b8 00 00 00 00	 mov	 eax, OFFSET __ehfuncinfo$??$GetAnimationEventTime_e@$0N@@ioEntityGroup@@QAEMHAAY0N@$$CBD@Z
  00029	e9 00 00 00 00	 jmp	 ___CxxFrameHandler3
text$x	ENDS
??$GetAnimationEventTime_e@$0N@@ioEntityGroup@@QAEMHAAY0N@$$CBD@Z ENDP ; ioEntityGroup::GetAnimationEventTime_e<13>
PUBLIC	??$GetAnimationEventTime_e@$0M@@ioEntityGroup@@QAEMHAAY0M@$$CBD@Z ; ioEntityGroup::GetAnimationEventTime_e<12>
;	COMDAT xdata$x
; File d:\lost saga for developer\youtube\tutorial\source\src\lsclient\stringprotect.h
xdata$x	SEGMENT
__unwindtable$??$GetAnimationEventTime_e@$0M@@ioEntityGroup@@QAEMHAAY0M@$$CBD@Z DD 0ffffffffH
	DD	FLAT:__unwindfunclet$??$GetAnimationEventTime_e@$0M@@ioEntityGroup@@QAEMHAAY0M@$$CBD@Z$0
__ehfuncinfo$??$GetAnimationEventTime_e@$0M@@ioEntityGroup@@QAEMHAAY0M@$$CBD@Z DD 019930522H
	DD	01H
	DD	FLAT:__unwindtable$??$GetAnimationEventTime_e@$0M@@ioEntityGroup@@QAEMHAAY0M@$$CBD@Z
	DD	2 DUP(00H)
	DD	2 DUP(00H)
	DD	00H
	DD	01H
; Function compile flags: /Ogsp
; File d:\lost saga for developer\youtube\tutorial\source\src\io3dengine\ioentitygroup.h
xdata$x	ENDS
;	COMDAT ??$GetAnimationEventTime_e@$0M@@ioEntityGroup@@QAEMHAAY0M@$$CBD@Z
_TEXT	SEGMENT
$T535952 = -52						; size = 16
$T535951 = -36						; size = 4
_szEncEventType$ = -32					; size = 12
__$EHRec$ = -12						; size = 12
_id$ = 8						; size = 4
_szEventType$ = 12					; size = 4
??$GetAnimationEventTime_e@$0M@@ioEntityGroup@@QAEMHAAY0M@$$CBD@Z PROC ; ioEntityGroup::GetAnimationEventTime_e<12>, COMDAT
; _this$ = ecx

; 414  : 	{

  00000	6a 28		 push	 40			; 00000028H
  00002	b8 00 00 00 00	 mov	 eax, __ehhandler$??$GetAnimationEventTime_e@$0M@@ioEntityGroup@@QAEMHAAY0M@$$CBD@Z
  00007	e8 00 00 00 00	 call	 __EH_prolog3_GS
  0000c	8b 45 0c	 mov	 eax, DWORD PTR _szEventType$[ebp]
  0000f	8b f1		 mov	 esi, ecx

; 415  : 		_ENCSTR(szEventType, szEncEventType);

  00011	8a 08		 mov	 cl, BYTE PTR [eax]
  00013	84 c9		 test	 cl, cl
  00015	0f 84 36 01 00
	00		 je	 $LN96@GetAnimati@3
  0001b	b2 ed		 mov	 dl, -19			; ffffffedH
  0001d	32 ca		 xor	 cl, dl
  0001f	88 4d e0	 mov	 BYTE PTR _szEncEventType$[ebp], cl
  00022	8a 48 01	 mov	 cl, BYTE PTR [eax+1]
  00025	84 c9		 test	 cl, cl
  00027	0f 84 1e 01 00
	00		 je	 $LN95@GetAnimati@3
  0002d	80 f1 ec	 xor	 cl, -20			; ffffffecH
  00030	88 4d e1	 mov	 BYTE PTR _szEncEventType$[ebp+1], cl
  00033	8a 48 02	 mov	 cl, BYTE PTR [eax+2]
  00036	84 c9		 test	 cl, cl
  00038	0f 84 07 01 00
	00		 je	 $LN94@GetAnimati@3
  0003e	80 f1 eb	 xor	 cl, -21			; ffffffebH
  00041	88 4d e2	 mov	 BYTE PTR _szEncEventType$[ebp+2], cl
  00044	8a 48 03	 mov	 cl, BYTE PTR [eax+3]
  00047	84 c9		 test	 cl, cl
  00049	0f 84 f0 00 00
	00		 je	 $LN93@GetAnimati@3
  0004f	80 f1 ea	 xor	 cl, -22			; ffffffeaH
  00052	88 4d e3	 mov	 BYTE PTR _szEncEventType$[ebp+3], cl
  00055	8a 48 04	 mov	 cl, BYTE PTR [eax+4]
  00058	84 c9		 test	 cl, cl
  0005a	0f 84 da 00 00
	00		 je	 $LN92@GetAnimati@3
  00060	32 ca		 xor	 cl, dl
  00062	88 4d e4	 mov	 BYTE PTR _szEncEventType$[ebp+4], cl
  00065	8a 48 05	 mov	 cl, BYTE PTR [eax+5]
  00068	84 c9		 test	 cl, cl
  0006a	0f 84 c4 00 00
	00		 je	 $LN91@GetAnimati@3
  00070	80 f1 ec	 xor	 cl, -20			; ffffffecH
  00073	88 4d e5	 mov	 BYTE PTR _szEncEventType$[ebp+5], cl
  00076	8a 48 06	 mov	 cl, BYTE PTR [eax+6]
  00079	84 c9		 test	 cl, cl
  0007b	0f 84 ad 00 00
	00		 je	 $LN90@GetAnimati@3
  00081	80 f1 eb	 xor	 cl, -21			; ffffffebH
  00084	88 4d e6	 mov	 BYTE PTR _szEncEventType$[ebp+6], cl
  00087	8a 48 07	 mov	 cl, BYTE PTR [eax+7]
  0008a	84 c9		 test	 cl, cl
  0008c	0f 84 96 00 00
	00		 je	 $LN89@GetAnimati@3
  00092	80 f1 ea	 xor	 cl, -22			; ffffffeaH
  00095	88 4d e7	 mov	 BYTE PTR _szEncEventType$[ebp+7], cl
  00098	8a 48 08	 mov	 cl, BYTE PTR [eax+8]
  0009b	84 c9		 test	 cl, cl
  0009d	0f 84 80 00 00
	00		 je	 $LN88@GetAnimati@3
  000a3	32 ca		 xor	 cl, dl
  000a5	88 4d e8	 mov	 BYTE PTR _szEncEventType$[ebp+8], cl
  000a8	8a 48 09	 mov	 cl, BYTE PTR [eax+9]
  000ab	84 c9		 test	 cl, cl
  000ad	74 6e		 je	 SHORT $LN87@GetAnimati@3
  000af	80 f1 ec	 xor	 cl, -20			; ffffffecH
  000b2	88 4d e9	 mov	 BYTE PTR _szEncEventType$[ebp+9], cl
  000b5	8a 48 0a	 mov	 cl, BYTE PTR [eax+10]
  000b8	84 c9		 test	 cl, cl
  000ba	74 5b		 je	 SHORT $LN86@GetAnimati@3
  000bc	80 f1 eb	 xor	 cl, -21			; ffffffebH
  000bf	80 78 0b 00	 cmp	 BYTE PTR [eax+11], 0
  000c3	88 4d ea	 mov	 BYTE PTR _szEncEventType$[ebp+10], cl
  000c6	0f 84 89 00 00
	00		 je	 $LN1@GetAnimati@3
  000cc	8a 48 0c	 mov	 cl, BYTE PTR [eax+12]
  000cf	84 c9		 test	 cl, cl
  000d1	74 3f		 je	 SHORT $LN84@GetAnimati@3
  000d3	32 ca		 xor	 cl, dl
  000d5	88 4d ec	 mov	 BYTE PTR _szEncEventType$[ebp+12], cl
  000d8	8a 48 0d	 mov	 cl, BYTE PTR [eax+13]
  000db	84 c9		 test	 cl, cl
  000dd	74 2d		 je	 SHORT $LN83@GetAnimati@3
  000df	80 f1 ec	 xor	 cl, -20			; ffffffecH
  000e2	88 4d ed	 mov	 BYTE PTR _szEncEventType$[ebp+13], cl
  000e5	8a 48 0e	 mov	 cl, BYTE PTR [eax+14]
  000e8	84 c9		 test	 cl, cl
  000ea	74 1a		 je	 SHORT $LN82@GetAnimati@3
  000ec	8a 40 0f	 mov	 al, BYTE PTR [eax+15]
  000ef	80 f1 eb	 xor	 cl, -21			; ffffffebH
  000f2	88 4d ee	 mov	 BYTE PTR _szEncEventType$[ebp+14], cl
  000f5	84 c0		 test	 al, al
  000f7	74 07		 je	 SHORT $LN81@GetAnimati@3
  000f9	34 ea		 xor	 al, -22			; ffffffeaH
  000fb	88 45 ef	 mov	 BYTE PTR _szEncEventType$[ebp+15], al
  000fe	eb 55		 jmp	 SHORT $LN1@GetAnimati@3
$LN81@GetAnimati@3:
  00100	c6 45 ef ea	 mov	 BYTE PTR _szEncEventType$[ebp+15], -22 ; ffffffeaH
  00104	eb 4f		 jmp	 SHORT $LN1@GetAnimati@3
$LN82@GetAnimati@3:
  00106	c6 45 ee eb	 mov	 BYTE PTR _szEncEventType$[ebp+14], -21 ; ffffffebH
  0010a	eb 49		 jmp	 SHORT $LN1@GetAnimati@3
$LN83@GetAnimati@3:
  0010c	c6 45 ed ec	 mov	 BYTE PTR _szEncEventType$[ebp+13], -20 ; ffffffecH
  00110	eb 43		 jmp	 SHORT $LN1@GetAnimati@3
$LN84@GetAnimati@3:
  00112	88 55 ec	 mov	 BYTE PTR _szEncEventType$[ebp+12], dl
  00115	eb 3e		 jmp	 SHORT $LN1@GetAnimati@3
$LN86@GetAnimati@3:
  00117	c6 45 ea eb	 mov	 BYTE PTR _szEncEventType$[ebp+10], -21 ; ffffffebH
  0011b	eb 38		 jmp	 SHORT $LN1@GetAnimati@3
$LN87@GetAnimati@3:
  0011d	c6 45 e9 ec	 mov	 BYTE PTR _szEncEventType$[ebp+9], -20 ; ffffffecH
  00121	eb 32		 jmp	 SHORT $LN1@GetAnimati@3
$LN88@GetAnimati@3:
  00123	88 55 e8	 mov	 BYTE PTR _szEncEventType$[ebp+8], dl
  00126	eb 2d		 jmp	 SHORT $LN1@GetAnimati@3
$LN89@GetAnimati@3:
  00128	c6 45 e7 ea	 mov	 BYTE PTR _szEncEventType$[ebp+7], -22 ; ffffffeaH
  0012c	eb 27		 jmp	 SHORT $LN1@GetAnimati@3
$LN90@GetAnimati@3:
  0012e	c6 45 e6 eb	 mov	 BYTE PTR _szEncEventType$[ebp+6], -21 ; ffffffebH
  00132	eb 21		 jmp	 SHORT $LN1@GetAnimati@3
$LN91@GetAnimati@3:
  00134	c6 45 e5 ec	 mov	 BYTE PTR _szEncEventType$[ebp+5], -20 ; ffffffecH
  00138	eb 1b		 jmp	 SHORT $LN1@GetAnimati@3
$LN92@GetAnimati@3:
  0013a	88 55 e4	 mov	 BYTE PTR _szEncEventType$[ebp+4], dl
  0013d	eb 16		 jmp	 SHORT $LN1@GetAnimati@3
$LN93@GetAnimati@3:
  0013f	c6 45 e3 ea	 mov	 BYTE PTR _szEncEventType$[ebp+3], -22 ; ffffffeaH
  00143	eb 10		 jmp	 SHORT $LN1@GetAnimati@3
$LN94@GetAnimati@3:
  00145	c6 45 e2 eb	 mov	 BYTE PTR _szEncEventType$[ebp+2], -21 ; ffffffebH
  00149	eb 0a		 jmp	 SHORT $LN1@GetAnimati@3
$LN95@GetAnimati@3:
  0014b	c6 45 e1 ec	 mov	 BYTE PTR _szEncEventType$[ebp+1], -20 ; ffffffecH
  0014f	eb 04		 jmp	 SHORT $LN1@GetAnimati@3
$LN96@GetAnimati@3:
  00151	c6 45 e0 ed	 mov	 BYTE PTR _szEncEventType$[ebp], -19 ; ffffffedH
$LN1@GetAnimati@3:
  00155	6a 02		 push	 2
  00157	8d 45 e0	 lea	 eax, DWORD PTR _szEncEventType$[ebp]
  0015a	c6 45 eb 00	 mov	 BYTE PTR _szEncEventType$[ebp+11], 0
  0015e	59		 pop	 ecx
$LL105@GetAnimati@3:
  0015f	81 30 ed ec eb
	ea		 xor	 DWORD PTR [eax], -353637139 ; eaebecedH
  00165	83 c0 04	 add	 eax, 4
  00168	49		 dec	 ecx
  00169	75 f4		 jne	 SHORT $LL105@GetAnimati@3
  0016b	6a 08		 push	 8
  0016d	58		 pop	 eax
$LL102@GetAnimati@3:
  0016e	8b c8		 mov	 ecx, eax
  00170	81 e1 03 00 00
	80		 and	 ecx, -2147483645	; 80000003H
  00176	79 05		 jns	 SHORT $LN113@GetAnimati@3
  00178	49		 dec	 ecx
  00179	83 c9 fc	 or	 ecx, -4			; fffffffcH
  0017c	41		 inc	 ecx
$LN113@GetAnimati@3:
  0017d	b2 ed		 mov	 dl, -19			; ffffffedH
  0017f	2a d1		 sub	 dl, cl
  00181	30 54 05 e0	 xor	 BYTE PTR _szEncEventType$[ebp+eax], dl
  00185	40		 inc	 eax
  00186	83 f8 0b	 cmp	 eax, 11			; 0000000bH
  00189	7c e3		 jl	 SHORT $LL102@GetAnimati@3

; 416  : 		return GetAnimationEventTime(id, szEncEventType);

  0018b	8d 45 e0	 lea	 eax, DWORD PTR _szEncEventType$[ebp]
  0018e	50		 push	 eax
  0018f	8d 4d cc	 lea	 ecx, DWORD PTR $T535952[ebp]
  00192	ff 15 00 00 00
	00		 call	 DWORD PTR __imp_??0ioHashString@@QAE@PBD@Z
  00198	83 65 fc 00	 and	 DWORD PTR __$EHRec$[ebp+8], 0
  0019c	8d 45 cc	 lea	 eax, DWORD PTR $T535952[ebp]
  0019f	50		 push	 eax
  001a0	ff 75 08	 push	 DWORD PTR _id$[ebp]
  001a3	8b ce		 mov	 ecx, esi
  001a5	ff 15 00 00 00
	00		 call	 DWORD PTR __imp_?GetAnimationEventTime@ioEntityGroup@@QAEMHABVioHashString@@@Z
  001ab	d9 5d dc	 fstp	 DWORD PTR $T535951[ebp]
  001ae	83 4d fc ff	 or	 DWORD PTR __$EHRec$[ebp+8], -1
  001b2	8d 4d cc	 lea	 ecx, DWORD PTR $T535952[ebp]
  001b5	ff 15 00 00 00
	00		 call	 DWORD PTR __imp_??1ioHashString@@QAE@XZ
  001bb	d9 45 dc	 fld	 DWORD PTR $T535951[ebp]

; 417  : 	}

  001be	e8 00 00 00 00	 call	 __EH_epilog3_GS
  001c3	c2 08 00	 ret	 8
_TEXT	ENDS
;	COMDAT text$x
text$x	SEGMENT
__unwindfunclet$??$GetAnimationEventTime_e@$0M@@ioEntityGroup@@QAEMHAAY0M@$$CBD@Z$0:
  00000	8d 4d cc	 lea	 ecx, DWORD PTR $T535952[ebp]
  00003	ff 25 00 00 00
	00		 jmp	 DWORD PTR __imp_??1ioHashString@@QAE@XZ
__ehhandler$??$GetAnimationEventTime_e@$0M@@ioEntityGroup@@QAEMHAAY0M@$$CBD@Z:
  00009	8b 54 24 08	 mov	 edx, DWORD PTR [esp+8]
  0000d	8d 42 0c	 lea	 eax, DWORD PTR [edx+12]
  00010	8b 4a c8	 mov	 ecx, DWORD PTR [edx-56]
  00013	33 c8		 xor	 ecx, eax
  00015	e8 00 00 00 00	 call	 @__security_check_cookie@4
  0001a	8b 4a fc	 mov	 ecx, DWORD PTR [edx-4]
  0001d	33 c8		 xor	 ecx, eax
  0001f	e8 00 00 00 00	 call	 @__security_check_cookie@4
  00024	b8 00 00 00 00	 mov	 eax, OFFSET __ehfuncinfo$??$GetAnimationEventTime_e@$0M@@ioEntityGroup@@QAEMHAAY0M@$$CBD@Z
  00029	e9 00 00 00 00	 jmp	 ___CxxFrameHandler3
text$x	ENDS
??$GetAnimationEventTime_e@$0M@@ioEntityGroup@@QAEMHAAY0M@$$CBD@Z ENDP ; ioEntityGroup::GetAnimationEventTime_e<12>
PUBLIC	?construct@?$allocator@UForceInfo@@@std@@QAEXPAUForceInfo@@ABU3@@Z ; std::allocator<ForceInfo>::construct
; Function compile flags: /Ogsp
; File c:\program files (x86)\microsoft visual studio 10.0\vc\include\xmemory
;	COMDAT ?construct@?$allocator@UForceInfo@@@std@@QAEXPAUForceInfo@@ABU3@@Z
_TEXT	SEGMENT
__Ptr$ = 8						; size = 4
__Val$ = 12						; size = 4
?construct@?$allocator@UForceInfo@@@std@@QAEXPAUForceInfo@@ABU3@@Z PROC ; std::allocator<ForceInfo>::construct, COMDAT
; _this$ = ecx

; 196  : 		{	// construct object at _Ptr with value _Val

  00000	55		 push	 ebp
  00001	8b ec		 mov	 ebp, esp
  00003	57		 push	 edi

; 197  : 		_Construct(_Ptr, _Val);

  00004	8b 7d 08	 mov	 edi, DWORD PTR __Ptr$[ebp]
  00007	85 ff		 test	 edi, edi
  00009	74 08		 je	 SHORT $LN5@construct
  0000b	56		 push	 esi
  0000c	8b 75 0c	 mov	 esi, DWORD PTR __Val$[ebp]
  0000f	a5		 movsd
  00010	a5		 movsd
  00011	a5		 movsd
  00012	5e		 pop	 esi
$LN5@construct:
  00013	5f		 pop	 edi

; 198  : 		}

  00014	5d		 pop	 ebp
  00015	c2 08 00	 ret	 8
?construct@?$allocator@UForceInfo@@@std@@QAEXPAUForceInfo@@ABU3@@Z ENDP ; std::allocator<ForceInfo>::construct
_TEXT	ENDS
PUBLIC	??$_Construct@UWeaponInfo@@ABU1@@std@@YAXPAUWeaponInfo@@ABU1@@Z ; std::_Construct<WeaponInfo,WeaponInfo const &>
;	COMDAT xdata$x
; File c:\program files (x86)\microsoft visual studio 10.0\vc\include\utility
xdata$x	SEGMENT
__unwindtable$??$_Construct@UWeaponInfo@@ABU1@@std@@YAXPAUWeaponInfo@@ABU1@@Z DD 0ffffffffH
	DD	FLAT:__unwindfunclet$??$_Construct@UWeaponInfo@@ABU1@@std@@YAXPAUWeaponInfo@@ABU1@@Z$0
__ehfuncinfo$??$_Construct@UWeaponInfo@@ABU1@@std@@YAXPAUWeaponInfo@@ABU1@@Z DD 019930522H
	DD	01H
	DD	FLAT:__unwindtable$??$_Construct@UWeaponInfo@@ABU1@@std@@YAXPAUWeaponInfo@@ABU1@@Z
	DD	2 DUP(00H)
	DD	2 DUP(00H)
	DD	00H
	DD	01H
; Function compile flags: /Ogsp
; File c:\program files (x86)\microsoft visual studio 10.0\vc\include\xmemory
xdata$x	ENDS
;	COMDAT ??$_Construct@UWeaponInfo@@ABU1@@std@@YAXPAUWeaponInfo@@ABU1@@Z
_TEXT	SEGMENT
$T536006 = -16						; size = 4
__$EHRec$ = -12						; size = 12
__Vptr$ = 8						; size = 4
__Ptr$ = 8						; size = 4
__Val$ = 12						; size = 4
??$_Construct@UWeaponInfo@@ABU1@@std@@YAXPAUWeaponInfo@@ABU1@@Z PROC ; std::_Construct<WeaponInfo,WeaponInfo const &>, COMDAT

; 46   : 	{	// construct object at _Ptr with value _Val

  00000	6a 04		 push	 4
  00002	b8 00 00 00 00	 mov	 eax, __ehhandler$??$_Construct@UWeaponInfo@@ABU1@@std@@YAXPAUWeaponInfo@@ABU1@@Z
  00007	e8 00 00 00 00	 call	 __EH_prolog3

; 47   : 	void _FARQ *_Vptr = _Ptr;

  0000c	8b 4d 08	 mov	 ecx, DWORD PTR __Ptr$[ebp]
  0000f	89 4d 08	 mov	 DWORD PTR __Vptr$[ebp], ecx

; 48   : 	::new (_Vptr) _Ty1(_STD forward<_Ty2>(_Val));

  00012	89 4d f0	 mov	 DWORD PTR $T536006[ebp], ecx
  00015	83 65 fc 00	 and	 DWORD PTR __$EHRec$[ebp+8], 0
  00019	85 c9		 test	 ecx, ecx
  0001b	74 08		 je	 SHORT $LN3@Construct@2
  0001d	ff 75 0c	 push	 DWORD PTR __Val$[ebp]
  00020	e8 00 00 00 00	 call	 ??0WeaponInfo@@QAE@ABU0@@Z
$LN3@Construct@2:

; 49   : 	}

  00025	e8 00 00 00 00	 call	 __EH_epilog3
  0002a	c3		 ret	 0
_TEXT	ENDS
;	COMDAT text$x
text$x	SEGMENT
__unwindfunclet$??$_Construct@UWeaponInfo@@ABU1@@std@@YAXPAUWeaponInfo@@ABU1@@Z$0:
  00000	ff 75 08	 push	 DWORD PTR __Vptr$[ebp]
  00003	ff 75 f0	 push	 DWORD PTR $T536006[ebp]
  00006	e8 00 00 00 00	 call	 ??3@YAXPAX0@Z		; operator delete
  0000b	59		 pop	 ecx
  0000c	59		 pop	 ecx
  0000d	c3		 ret	 0
__ehhandler$??$_Construct@UWeaponInfo@@ABU1@@std@@YAXPAUWeaponInfo@@ABU1@@Z:
  0000e	8b 54 24 08	 mov	 edx, DWORD PTR [esp+8]
  00012	8d 42 0c	 lea	 eax, DWORD PTR [edx+12]
  00015	8b 4a ec	 mov	 ecx, DWORD PTR [edx-20]
  00018	33 c8		 xor	 ecx, eax
  0001a	e8 00 00 00 00	 call	 @__security_check_cookie@4
  0001f	b8 00 00 00 00	 mov	 eax, OFFSET __ehfuncinfo$??$_Construct@UWeaponInfo@@ABU1@@std@@YAXPAUWeaponInfo@@ABU1@@Z
  00024	e9 00 00 00 00	 jmp	 ___CxxFrameHandler3
text$x	ENDS
??$_Construct@UWeaponInfo@@ABU1@@std@@YAXPAUWeaponInfo@@ABU1@@Z ENDP ; std::_Construct<WeaponInfo,WeaponInfo const &>
PUBLIC	??0?$CEncrypt@M@@QAE@XZ				; CEncrypt<float>::CEncrypt<float>
EXTRN	??0ccddaabb@@QAE@XZ:PROC			; ccddaabb::ccddaabb
;	COMDAT xdata$x
; File d:\lost saga for developer\youtube\tutorial\source\src\lsclient\encryptvalue.h
xdata$x	SEGMENT
__unwindtable$??0?$CEncrypt@M@@QAE@XZ DD 0ffffffffH
	DD	FLAT:__unwindfunclet$??0?$CEncrypt@M@@QAE@XZ$0
__ehfuncinfo$??0?$CEncrypt@M@@QAE@XZ DD 019930522H
	DD	01H
	DD	FLAT:__unwindtable$??0?$CEncrypt@M@@QAE@XZ
	DD	2 DUP(00H)
	DD	2 DUP(00H)
	DD	00H
	DD	01H
; Function compile flags: /Ogsp
xdata$x	ENDS
;	COMDAT ??0?$CEncrypt@M@@QAE@XZ
_TEXT	SEGMENT
_this$ = -16						; size = 4
__$EHRec$ = -12						; size = 12
??0?$CEncrypt@M@@QAE@XZ PROC				; CEncrypt<float>::CEncrypt<float>, COMDAT
; _this$ = ecx

; 109  : 	CEncrypt()

  00000	6a 04		 push	 4
  00002	b8 00 00 00 00	 mov	 eax, __ehhandler$??0?$CEncrypt@M@@QAE@XZ
  00007	e8 00 00 00 00	 call	 __EH_prolog3
  0000c	8b f1		 mov	 esi, ecx
  0000e	89 75 f0	 mov	 DWORD PTR _this$[ebp], esi
  00011	8d 4e 0c	 lea	 ecx, DWORD PTR [esi+12]
  00014	c7 06 00 00 00
	00		 mov	 DWORD PTR [esi], OFFSET ??_7?$CEncrypt@M@@6B@
  0001a	e8 00 00 00 00	 call	 ??0ccddaabb@@QAE@XZ	; ccddaabb::ccddaabb
  0001f	83 65 fc 00	 and	 DWORD PTR __$EHRec$[ebp+8], 0

; 110  : 	{
; 111  : 		Init();

  00023	8b ce		 mov	 ecx, esi
  00025	e8 00 00 00 00	 call	 ?Init@?$CEncrypt@M@@AAEXXZ ; CEncrypt<float>::Init

; 112  : 	}

  0002a	8b c6		 mov	 eax, esi
  0002c	e8 00 00 00 00	 call	 __EH_epilog3
  00031	c3		 ret	 0
_TEXT	ENDS
;	COMDAT text$x
text$x	SEGMENT
__unwindfunclet$??0?$CEncrypt@M@@QAE@XZ$0:
  00000	8b 4d f0	 mov	 ecx, DWORD PTR _this$[ebp]
  00003	83 c1 0c	 add	 ecx, 12			; 0000000cH
  00006	e9 00 00 00 00	 jmp	 ??1ccddaabb@@UAE@XZ	; ccddaabb::~ccddaabb
__ehhandler$??0?$CEncrypt@M@@QAE@XZ:
  0000b	8b 54 24 08	 mov	 edx, DWORD PTR [esp+8]
  0000f	8d 42 0c	 lea	 eax, DWORD PTR [edx+12]
  00012	8b 4a ec	 mov	 ecx, DWORD PTR [edx-20]
  00015	33 c8		 xor	 ecx, eax
  00017	e8 00 00 00 00	 call	 @__security_check_cookie@4
  0001c	b8 00 00 00 00	 mov	 eax, OFFSET __ehfuncinfo$??0?$CEncrypt@M@@QAE@XZ
  00021	e9 00 00 00 00	 jmp	 ___CxxFrameHandler3
text$x	ENDS
??0?$CEncrypt@M@@QAE@XZ ENDP				; CEncrypt<float>::CEncrypt<float>
PUBLIC	??B?$CEncrypt@M@@QAEMXZ				; CEncrypt<float>::operator float
; Function compile flags: /Ogsp
;	COMDAT ??B?$CEncrypt@M@@QAEMXZ
_TEXT	SEGMENT
_value$ = -4						; size = 4
??B?$CEncrypt@M@@QAEMXZ PROC				; CEncrypt<float>::operator float, COMDAT
; _this$ = ecx

; 134  : 	{

  00000	55		 push	 ebp
  00001	8b ec		 mov	 ebp, esp
  00003	51		 push	 ecx

; 135  : 		type value;
; 136  : 		DecryptValueToPool(&value);

  00004	8d 45 fc	 lea	 eax, DWORD PTR _value$[ebp]
  00007	50		 push	 eax
  00008	e8 00 00 00 00	 call	 ?DecryptValueToPool@?$CEncrypt@M@@QAEXPAM@Z ; CEncrypt<float>::DecryptValueToPool

; 137  : 
; 138  : #ifdef _NOTUSE
; 139  : 		Debug();
; 140  : #endif
; 141  : 		return value;

  0000d	d9 45 fc	 fld	 DWORD PTR _value$[ebp]

; 142  : 	}

  00010	c9		 leave
  00011	c3		 ret	 0
??B?$CEncrypt@M@@QAEMXZ ENDP				; CEncrypt<float>::operator float
_TEXT	ENDS
PUBLIC	??B?$CEncrypt@M@@QBEMXZ				; CEncrypt<float>::operator float
; Function compile flags: /Ogsp
;	COMDAT ??B?$CEncrypt@M@@QBEMXZ
_TEXT	SEGMENT
_value$ = -4						; size = 4
??B?$CEncrypt@M@@QBEMXZ PROC				; CEncrypt<float>::operator float, COMDAT
; _this$ = ecx

; 145  : 	{

  00000	55		 push	 ebp
  00001	8b ec		 mov	 ebp, esp
  00003	51		 push	 ecx

; 146  : 		//UJ 130829, const    --start
; 147  : 		type value;
; 148  : 		CEncrypt<type>* pThis = const_cast<CEncrypt<type>*>(this);
; 149  : 		pThis->DecryptValueToPool(&value);

  00004	8d 45 fc	 lea	 eax, DWORD PTR _value$[ebp]
  00007	50		 push	 eax
  00008	e8 00 00 00 00	 call	 ?DecryptValueToPool@?$CEncrypt@M@@QAEXPAM@Z ; CEncrypt<float>::DecryptValueToPool

; 150  : 		//// const DecryptValueToPool     .
; 151  :  		//type value;
; 152  : 		//char szTempMem[MAX_ENCRYPT];
; 153  : 		//m_RC5.DecryptByte( m_MemPool, szTempMem, max(m_ValueSize, DEFAULT_ENCRYPT) );
; 154  : 		//memcpy( &value, szTempMem, m_ValueSize );
; 155  : 		//UJ --end
; 156  : 
; 157  : #ifdef _NOTUSE
; 158  : 		Debug();
; 159  : #endif
; 160  : 		return value;

  0000d	d9 45 fc	 fld	 DWORD PTR _value$[ebp]

; 161  : 	}

  00010	c9		 leave
  00011	c3		 ret	 0
??B?$CEncrypt@M@@QBEMXZ ENDP				; CEncrypt<float>::operator float
_TEXT	ENDS
PUBLIC	??4?$CEncrypt@M@@QAEMM@Z			; CEncrypt<float>::operator=
; Function compile flags: /Ogsp
;	COMDAT ??4?$CEncrypt@M@@QAEMM@Z
_TEXT	SEGMENT
_value$ = 8						; size = 4
_inValue$ = 8						; size = 4
??4?$CEncrypt@M@@QAEMM@Z PROC				; CEncrypt<float>::operator=, COMDAT
; _this$ = ecx

; 1654 : 	{	

  00000	55		 push	 ebp
  00001	8b ec		 mov	 ebp, esp

; 1655 : 		type value = inValue;

  00003	d9 45 08	 fld	 DWORD PTR _inValue$[ebp]

; 1656 : 		EncryptValueToPool((char*)&value);

  00006	8d 45 08	 lea	 eax, DWORD PTR _value$[ebp]
  00009	50		 push	 eax
  0000a	d9 5d 08	 fstp	 DWORD PTR _value$[ebp]
  0000d	e8 00 00 00 00	 call	 ?EncryptValueToPool@?$CEncrypt@M@@AAEXPBD@Z ; CEncrypt<float>::EncryptValueToPool

; 1657 : #ifdef _NOTUSE
; 1658 : 		m_value = inValue;
; 1659 : 		Debug();
; 1660 : #endif
; 1661 : 		return value;

  00012	d9 45 08	 fld	 DWORD PTR _value$[ebp]

; 1662 : 	}

  00015	5d		 pop	 ebp
  00016	c2 04 00	 ret	 4
??4?$CEncrypt@M@@QAEMM@Z ENDP				; CEncrypt<float>::operator=
_TEXT	ENDS
PUBLIC	??4?$CEncrypt@K@@QAEKH@Z			; CEncrypt<unsigned long>::operator=
; Function compile flags: /Ogsp
;	COMDAT ??4?$CEncrypt@K@@QAEKH@Z
_TEXT	SEGMENT
_value$ = 8						; size = 4
_inValue$ = 8						; size = 4
??4?$CEncrypt@K@@QAEKH@Z PROC				; CEncrypt<unsigned long>::operator=, COMDAT
; _this$ = ecx

; 843  : 	{

  00000	55		 push	 ebp
  00001	8b ec		 mov	 ebp, esp

; 844  : 		type value = inValue;

  00003	8b 45 08	 mov	 eax, DWORD PTR _inValue$[ebp]
  00006	89 45 08	 mov	 DWORD PTR _value$[ebp], eax

; 845  : 		EncryptValueToPool((char*)&value);

  00009	8d 45 08	 lea	 eax, DWORD PTR _value$[ebp]
  0000c	50		 push	 eax
  0000d	e8 00 00 00 00	 call	 ?EncryptValueToPool@?$CEncrypt@K@@AAEXPBD@Z ; CEncrypt<unsigned long>::EncryptValueToPool

; 846  : #ifdef _NOTUSE
; 847  : 		m_value = inValue;
; 848  : 		Debug();
; 849  : #endif
; 850  : 		return value;

  00012	8b 45 08	 mov	 eax, DWORD PTR _value$[ebp]

; 851  : 	}

  00015	5d		 pop	 ebp
  00016	c2 04 00	 ret	 4
??4?$CEncrypt@K@@QAEKH@Z ENDP				; CEncrypt<unsigned long>::operator=
_TEXT	ENDS
PUBLIC	??4?$CEncrypt@K@@QAEKK@Z			; CEncrypt<unsigned long>::operator=
; Function compile flags: /Ogsp
;	COMDAT ??4?$CEncrypt@K@@QAEKK@Z
_TEXT	SEGMENT
_value$ = 8						; size = 4
_inValue$ = 8						; size = 4
??4?$CEncrypt@K@@QAEKK@Z PROC				; CEncrypt<unsigned long>::operator=, COMDAT
; _this$ = ecx

; 1262 : 	{

  00000	55		 push	 ebp
  00001	8b ec		 mov	 ebp, esp

; 1263 : 		
; 1264 : 		type value = inValue;

  00003	8b 45 08	 mov	 eax, DWORD PTR _inValue$[ebp]
  00006	89 45 08	 mov	 DWORD PTR _value$[ebp], eax

; 1265 : 		EncryptValueToPool((char*)&value);

  00009	8d 45 08	 lea	 eax, DWORD PTR _value$[ebp]
  0000c	50		 push	 eax
  0000d	e8 00 00 00 00	 call	 ?EncryptValueToPool@?$CEncrypt@K@@AAEXPBD@Z ; CEncrypt<unsigned long>::EncryptValueToPool

; 1266 : #ifdef _NOTUSE
; 1267 : 		m_value = inValue;
; 1268 : 		Debug();
; 1269 : #endif
; 1270 : 		return value;

  00012	8b 45 08	 mov	 eax, DWORD PTR _value$[ebp]

; 1271 : 	}

  00015	5d		 pop	 ebp
  00016	c2 04 00	 ret	 4
??4?$CEncrypt@K@@QAEKK@Z ENDP				; CEncrypt<unsigned long>::operator=
_TEXT	ENDS
PUBLIC	??B?$CEncrypt@W4TeamType@@@@QBE?AW4TeamType@@XZ	; CEncrypt<enum TeamType>::operator enum TeamType
; Function compile flags: /Ogsp
;	COMDAT ??B?$CEncrypt@W4TeamType@@@@QBE?AW4TeamType@@XZ
_TEXT	SEGMENT
_value$ = -4						; size = 4
??B?$CEncrypt@W4TeamType@@@@QBE?AW4TeamType@@XZ PROC	; CEncrypt<enum TeamType>::operator enum TeamType, COMDAT
; _this$ = ecx

; 145  : 	{

  00000	55		 push	 ebp
  00001	8b ec		 mov	 ebp, esp
  00003	51		 push	 ecx

; 146  : 		//UJ 130829, const    --start
; 147  : 		type value;
; 148  : 		CEncrypt<type>* pThis = const_cast<CEncrypt<type>*>(this);
; 149  : 		pThis->DecryptValueToPool(&value);

  00004	8d 45 fc	 lea	 eax, DWORD PTR _value$[ebp]
  00007	50		 push	 eax
  00008	e8 00 00 00 00	 call	 ?DecryptValueToPool@?$CEncrypt@W4TeamType@@@@QAEXPAW4TeamType@@@Z ; CEncrypt<enum TeamType>::DecryptValueToPool

; 150  : 		//// const DecryptValueToPool     .
; 151  :  		//type value;
; 152  : 		//char szTempMem[MAX_ENCRYPT];
; 153  : 		//m_RC5.DecryptByte( m_MemPool, szTempMem, max(m_ValueSize, DEFAULT_ENCRYPT) );
; 154  : 		//memcpy( &value, szTempMem, m_ValueSize );
; 155  : 		//UJ --end
; 156  : 
; 157  : #ifdef _NOTUSE
; 158  : 		Debug();
; 159  : #endif
; 160  : 		return value;

  0000d	8b 45 fc	 mov	 eax, DWORD PTR _value$[ebp]

; 161  : 	}

  00010	c9		 leave
  00011	c3		 ret	 0
??B?$CEncrypt@W4TeamType@@@@QBE?AW4TeamType@@XZ ENDP	; CEncrypt<enum TeamType>::operator enum TeamType
_TEXT	ENDS
PUBLIC	??B?$CEncrypt@W4ModeType@@@@QAE?AW4ModeType@@XZ	; CEncrypt<enum ModeType>::operator enum ModeType
; Function compile flags: /Ogsp
;	COMDAT ??B?$CEncrypt@W4ModeType@@@@QAE?AW4ModeType@@XZ
_TEXT	SEGMENT
_value$ = -4						; size = 4
??B?$CEncrypt@W4ModeType@@@@QAE?AW4ModeType@@XZ PROC	; CEncrypt<enum ModeType>::operator enum ModeType, COMDAT
; _this$ = ecx

; 134  : 	{

  00000	55		 push	 ebp
  00001	8b ec		 mov	 ebp, esp
  00003	51		 push	 ecx

; 135  : 		type value;
; 136  : 		DecryptValueToPool(&value);

  00004	8d 45 fc	 lea	 eax, DWORD PTR _value$[ebp]
  00007	50		 push	 eax
  00008	e8 00 00 00 00	 call	 ?DecryptValueToPool@?$CEncrypt@W4ModeType@@@@QAEXPAW4ModeType@@@Z ; CEncrypt<enum ModeType>::DecryptValueToPool

; 137  : 
; 138  : #ifdef _NOTUSE
; 139  : 		Debug();
; 140  : #endif
; 141  : 		return value;

  0000d	8b 45 fc	 mov	 eax, DWORD PTR _value$[ebp]

; 142  : 	}

  00010	c9		 leave
  00011	c3		 ret	 0
??B?$CEncrypt@W4ModeType@@@@QAE?AW4ModeType@@XZ ENDP	; CEncrypt<enum ModeType>::operator enum ModeType
_TEXT	ENDS
PUBLIC	??0?$_Vector_val@UWeaponInfo@@V?$allocator@UWeaponInfo@@@std@@@std@@QAE@V?$allocator@UWeaponInfo@@@1@@Z ; std::_Vector_val<WeaponInfo,std::allocator<WeaponInfo> >::_Vector_val<WeaponInfo,std::allocator<WeaponInfo> >
; Function compile flags: /Ogsp
; File c:\program files (x86)\microsoft visual studio 10.0\vc\include\vector
;	COMDAT ??0?$_Vector_val@UWeaponInfo@@V?$allocator@UWeaponInfo@@@std@@@std@@QAE@V?$allocator@UWeaponInfo@@@1@@Z
_TEXT	SEGMENT
__Al$ = 8						; size = 1
??0?$_Vector_val@UWeaponInfo@@V?$allocator@UWeaponInfo@@@std@@@std@@QAE@V?$allocator@UWeaponInfo@@@1@@Z PROC ; std::_Vector_val<WeaponInfo,std::allocator<WeaponInfo> >::_Vector_val<WeaponInfo,std::allocator<WeaponInfo> >, COMDAT
; _this$ = ecx

; 426  : 		{	// construct allocator from _Al

  00000	8b c1		 mov	 eax, ecx

; 427  : 		_Myfirst = 0;

  00002	33 c9		 xor	 ecx, ecx
  00004	89 08		 mov	 DWORD PTR [eax], ecx

; 428  : 		_Mylast = 0;

  00006	89 48 04	 mov	 DWORD PTR [eax+4], ecx

; 429  : 		_Myend = 0;

  00009	89 48 08	 mov	 DWORD PTR [eax+8], ecx

; 430  : 		}

  0000c	c2 04 00	 ret	 4
??0?$_Vector_val@UWeaponInfo@@V?$allocator@UWeaponInfo@@@std@@@std@@QAE@V?$allocator@UWeaponInfo@@@1@@Z ENDP ; std::_Vector_val<WeaponInfo,std::allocator<WeaponInfo> >::_Vector_val<WeaponInfo,std::allocator<WeaponInfo> >
_TEXT	ENDS
PUBLIC	??0?$_Vector_val@UForceInfo@@V?$allocator@UForceInfo@@@std@@@std@@QAE@V?$allocator@UForceInfo@@@1@@Z ; std::_Vector_val<ForceInfo,std::allocator<ForceInfo> >::_Vector_val<ForceInfo,std::allocator<ForceInfo> >
; Function compile flags: /Ogsp
;	COMDAT ??0?$_Vector_val@UForceInfo@@V?$allocator@UForceInfo@@@std@@@std@@QAE@V?$allocator@UForceInfo@@@1@@Z
_TEXT	SEGMENT
__Al$ = 8						; size = 1
??0?$_Vector_val@UForceInfo@@V?$allocator@UForceInfo@@@std@@@std@@QAE@V?$allocator@UForceInfo@@@1@@Z PROC ; std::_Vector_val<ForceInfo,std::allocator<ForceInfo> >::_Vector_val<ForceInfo,std::allocator<ForceInfo> >, COMDAT
; _this$ = ecx

; 426  : 		{	// construct allocator from _Al

  00000	8b c1		 mov	 eax, ecx

; 427  : 		_Myfirst = 0;

  00002	33 c9		 xor	 ecx, ecx
  00004	89 08		 mov	 DWORD PTR [eax], ecx

; 428  : 		_Mylast = 0;

  00006	89 48 04	 mov	 DWORD PTR [eax+4], ecx

; 429  : 		_Myend = 0;

  00009	89 48 08	 mov	 DWORD PTR [eax+8], ecx

; 430  : 		}

  0000c	c2 04 00	 ret	 4
??0?$_Vector_val@UForceInfo@@V?$allocator@UForceInfo@@@std@@@std@@QAE@V?$allocator@UForceInfo@@@1@@Z ENDP ; std::_Vector_val<ForceInfo,std::allocator<ForceInfo> >::_Vector_val<ForceInfo,std::allocator<ForceInfo> >
_TEXT	ENDS
PUBLIC	?max_size@?$vector@UWeaponInfo@@V?$allocator@UWeaponInfo@@@std@@@std@@QBEIXZ ; std::vector<WeaponInfo,std::allocator<WeaponInfo> >::max_size
; Function compile flags: /Ogsp
;	COMDAT ?max_size@?$vector@UWeaponInfo@@V?$allocator@UWeaponInfo@@@std@@@std@@QBEIXZ
_TEXT	SEGMENT
?max_size@?$vector@UWeaponInfo@@V?$allocator@UWeaponInfo@@@std@@@std@@QBEIXZ PROC ; std::vector<WeaponInfo,std::allocator<WeaponInfo> >::max_size, COMDAT
; _this$ = ecx

; 884  : 		return (this->_Alval.max_size());

  00000	b8 66 66 66 06	 mov	 eax, 107374182		; 06666666H

; 885  : 		}

  00005	c3		 ret	 0
?max_size@?$vector@UWeaponInfo@@V?$allocator@UWeaponInfo@@@std@@@std@@QBEIXZ ENDP ; std::vector<WeaponInfo,std::allocator<WeaponInfo> >::max_size
_TEXT	ENDS
PUBLIC	?allocate@?$allocator@UWeaponInfo@@@std@@QAEPAUWeaponInfo@@I@Z ; std::allocator<WeaponInfo>::allocate
; Function compile flags: /Ogsp
; File c:\program files (x86)\microsoft visual studio 10.0\vc\include\xmemory
;	COMDAT ?allocate@?$allocator@UWeaponInfo@@@std@@QAEPAUWeaponInfo@@I@Z
_TEXT	SEGMENT
__Count$ = 8						; size = 4
?allocate@?$allocator@UWeaponInfo@@@std@@QAEPAUWeaponInfo@@I@Z PROC ; std::allocator<WeaponInfo>::allocate, COMDAT
; _this$ = ecx

; 186  : 		{	// allocate array of _Count elements

  00000	55		 push	 ebp
  00001	8b ec		 mov	 ebp, esp

; 187  : 		return (_Allocate(_Count, (pointer)0));

  00003	6a 00		 push	 0
  00005	ff 75 08	 push	 DWORD PTR __Count$[ebp]
  00008	e8 00 00 00 00	 call	 ??$_Allocate@UWeaponInfo@@@std@@YAPAUWeaponInfo@@IPAU1@@Z ; std::_Allocate<WeaponInfo>
  0000d	59		 pop	 ecx
  0000e	59		 pop	 ecx

; 188  : 		}

  0000f	5d		 pop	 ebp
  00010	c2 04 00	 ret	 4
?allocate@?$allocator@UWeaponInfo@@@std@@QAEPAUWeaponInfo@@I@Z ENDP ; std::allocator<WeaponInfo>::allocate
_TEXT	ENDS
PUBLIC	?max_size@?$vector@UForceInfo@@V?$allocator@UForceInfo@@@std@@@std@@QBEIXZ ; std::vector<ForceInfo,std::allocator<ForceInfo> >::max_size
; Function compile flags: /Ogsp
; File c:\program files (x86)\microsoft visual studio 10.0\vc\include\vector
;	COMDAT ?max_size@?$vector@UForceInfo@@V?$allocator@UForceInfo@@@std@@@std@@QBEIXZ
_TEXT	SEGMENT
?max_size@?$vector@UForceInfo@@V?$allocator@UForceInfo@@@std@@@std@@QBEIXZ PROC ; std::vector<ForceInfo,std::allocator<ForceInfo> >::max_size, COMDAT
; _this$ = ecx

; 884  : 		return (this->_Alval.max_size());

  00000	b8 55 55 55 15	 mov	 eax, 357913941		; 15555555H

; 885  : 		}

  00005	c3		 ret	 0
?max_size@?$vector@UForceInfo@@V?$allocator@UForceInfo@@@std@@@std@@QBEIXZ ENDP ; std::vector<ForceInfo,std::allocator<ForceInfo> >::max_size
_TEXT	ENDS
PUBLIC	?allocate@?$allocator@UForceInfo@@@std@@QAEPAUForceInfo@@I@Z ; std::allocator<ForceInfo>::allocate
; Function compile flags: /Ogsp
; File c:\program files (x86)\microsoft visual studio 10.0\vc\include\xmemory
;	COMDAT ?allocate@?$allocator@UForceInfo@@@std@@QAEPAUForceInfo@@I@Z
_TEXT	SEGMENT
__Count$ = 8						; size = 4
?allocate@?$allocator@UForceInfo@@@std@@QAEPAUForceInfo@@I@Z PROC ; std::allocator<ForceInfo>::allocate, COMDAT
; _this$ = ecx

; 186  : 		{	// allocate array of _Count elements

  00000	55		 push	 ebp
  00001	8b ec		 mov	 ebp, esp

; 187  : 		return (_Allocate(_Count, (pointer)0));

  00003	6a 00		 push	 0
  00005	ff 75 08	 push	 DWORD PTR __Count$[ebp]
  00008	e8 00 00 00 00	 call	 ??$_Allocate@UForceInfo@@@std@@YAPAUForceInfo@@IPAU1@@Z ; std::_Allocate<ForceInfo>
  0000d	59		 pop	 ecx
  0000e	59		 pop	 ecx

; 188  : 		}

  0000f	5d		 pop	 ebp
  00010	c2 04 00	 ret	 4
?allocate@?$allocator@UForceInfo@@@std@@QAEPAUForceInfo@@I@Z ENDP ; std::allocator<ForceInfo>::allocate
_TEXT	ENDS
PUBLIC	??8?$_Vector_const_iterator@V?$_Vector_val@UWeaponInfo@@V?$allocator@UWeaponInfo@@@std@@@std@@@std@@QBE_NABV01@@Z ; std::_Vector_const_iterator<std::_Vector_val<WeaponInfo,std::allocator<WeaponInfo> > >::operator==
; Function compile flags: /Ogsp
; File c:\program files (x86)\microsoft visual studio 10.0\vc\include\vector
;	COMDAT ??8?$_Vector_const_iterator@V?$_Vector_val@UWeaponInfo@@V?$allocator@UWeaponInfo@@@std@@@std@@@std@@QBE_NABV01@@Z
_TEXT	SEGMENT
__Right$ = 8						; size = 4
??8?$_Vector_const_iterator@V?$_Vector_val@UWeaponInfo@@V?$allocator@UWeaponInfo@@@std@@@std@@@std@@QBE_NABV01@@Z PROC ; std::_Vector_const_iterator<std::_Vector_val<WeaponInfo,std::allocator<WeaponInfo> > >::operator==, COMDAT
; _this$ = ecx

; 201  : 		{	// test for iterator equality

  00000	55		 push	 ebp
  00001	8b ec		 mov	 ebp, esp

; 202  : 		_Compat(_Right);
; 203  : 		return (this->_Ptr == _Right._Ptr);

  00003	8b 01		 mov	 eax, DWORD PTR [ecx]
  00005	8b 4d 08	 mov	 ecx, DWORD PTR __Right$[ebp]
  00008	2b 01		 sub	 eax, DWORD PTR [ecx]
  0000a	f7 d8		 neg	 eax
  0000c	1b c0		 sbb	 eax, eax
  0000e	40		 inc	 eax

; 204  : 		}

  0000f	5d		 pop	 ebp
  00010	c2 04 00	 ret	 4
??8?$_Vector_const_iterator@V?$_Vector_val@UWeaponInfo@@V?$allocator@UWeaponInfo@@@std@@@std@@@std@@QBE_NABV01@@Z ENDP ; std::_Vector_const_iterator<std::_Vector_val<WeaponInfo,std::allocator<WeaponInfo> > >::operator==
_TEXT	ENDS
PUBLIC	??8?$_Vector_const_iterator@V?$_Vector_val@UForceInfo@@V?$allocator@UForceInfo@@@std@@@std@@@std@@QBE_NABV01@@Z ; std::_Vector_const_iterator<std::_Vector_val<ForceInfo,std::allocator<ForceInfo> > >::operator==
; Function compile flags: /Ogsp
;	COMDAT ??8?$_Vector_const_iterator@V?$_Vector_val@UForceInfo@@V?$allocator@UForceInfo@@@std@@@std@@@std@@QBE_NABV01@@Z
_TEXT	SEGMENT
__Right$ = 8						; size = 4
??8?$_Vector_const_iterator@V?$_Vector_val@UForceInfo@@V?$allocator@UForceInfo@@@std@@@std@@@std@@QBE_NABV01@@Z PROC ; std::_Vector_const_iterator<std::_Vector_val<ForceInfo,std::allocator<ForceInfo> > >::operator==, COMDAT
; _this$ = ecx

; 201  : 		{	// test for iterator equality

  00000	55		 push	 ebp
  00001	8b ec		 mov	 ebp, esp

; 202  : 		_Compat(_Right);
; 203  : 		return (this->_Ptr == _Right._Ptr);

  00003	8b 01		 mov	 eax, DWORD PTR [ecx]
  00005	8b 4d 08	 mov	 ecx, DWORD PTR __Right$[ebp]
  00008	2b 01		 sub	 eax, DWORD PTR [ecx]
  0000a	f7 d8		 neg	 eax
  0000c	1b c0		 sbb	 eax, eax
  0000e	40		 inc	 eax

; 204  : 		}

  0000f	5d		 pop	 ebp
  00010	c2 04 00	 ret	 4
??8?$_Vector_const_iterator@V?$_Vector_val@UForceInfo@@V?$allocator@UForceInfo@@@std@@@std@@@std@@QBE_NABV01@@Z ENDP ; std::_Vector_const_iterator<std::_Vector_val<ForceInfo,std::allocator<ForceInfo> > >::operator==
_TEXT	ENDS
PUBLIC	?destroy@?$allocator@UForceInfo@@@std@@QAEXPAUForceInfo@@@Z ; std::allocator<ForceInfo>::destroy
; Function compile flags: /Ogsp
; File c:\program files (x86)\microsoft visual studio 10.0\vc\include\xmemory
;	COMDAT ?destroy@?$allocator@UForceInfo@@@std@@QAEXPAUForceInfo@@@Z
_TEXT	SEGMENT
__Ptr$ = 8						; size = 4
?destroy@?$allocator@UForceInfo@@@std@@QAEXPAUForceInfo@@@Z PROC ; std::allocator<ForceInfo>::destroy, COMDAT
; _this$ = ecx

; 213  : 		_Destroy(_Ptr);
; 214  : 		}

  00000	c2 04 00	 ret	 4
?destroy@?$allocator@UForceInfo@@@std@@QAEXPAUForceInfo@@@Z ENDP ; std::allocator<ForceInfo>::destroy
_TEXT	ENDS
PUBLIC	??$_Destroy@UWeaponInfo@@@std@@YAXPAUWeaponInfo@@@Z ; std::_Destroy<WeaponInfo>
; Function compile flags: /Ogsp
;	COMDAT ??$_Destroy@UWeaponInfo@@@std@@YAXPAUWeaponInfo@@@Z
_TEXT	SEGMENT
__Ptr$ = 8						; size = 4
??$_Destroy@UWeaponInfo@@@std@@YAXPAUWeaponInfo@@@Z PROC ; std::_Destroy<WeaponInfo>, COMDAT

; 62   : 	{	// destroy object at _Ptr

  00000	55		 push	 ebp
  00001	8b ec		 mov	 ebp, esp

; 63   : 	_Ptr->~_Ty();

  00003	8b 4d 08	 mov	 ecx, DWORD PTR __Ptr$[ebp]
  00006	83 c1 08	 add	 ecx, 8

; 64   : 	}

  00009	5d		 pop	 ebp

; 63   : 	_Ptr->~_Ty();

  0000a	ff 25 00 00 00
	00		 jmp	 DWORD PTR __imp_??1ioHashString@@QAE@XZ
??$_Destroy@UWeaponInfo@@@std@@YAXPAUWeaponInfo@@@Z ENDP ; std::_Destroy<WeaponInfo>
_TEXT	ENDS
PUBLIC	?ClearData@ioRangeTargetShotSkill@@IAEXXZ	; ioRangeTargetShotSkill::ClearData
EXTRN	__imp_?Clear@ioHashString@@QAEXXZ:PROC
; Function compile flags: /Ogsp
; File d:\lost saga for developer\youtube\tutorial\source\src\lsclient\iorangetargetshotskill.cpp
;	COMDAT ?ClearData@ioRangeTargetShotSkill@@IAEXXZ
_TEXT	SEGMENT
_value$536117 = -4					; size = 4
?ClearData@ioRangeTargetShotSkill@@IAEXXZ PROC		; ioRangeTargetShotSkill::ClearData, COMDAT
; _this$ = ecx

; 44   : {

  00000	55		 push	 ebp
  00001	8b ec		 mov	 ebp, esp
  00003	51		 push	 ecx
  00004	56		 push	 esi
  00005	8b f1		 mov	 esi, ecx
  00007	57		 push	 edi

; 45   : 	m_szTargetName.Clear();

  00008	8b 3d 00 00 00
	00		 mov	 edi, DWORD PTR __imp_?Clear@ioHashString@@QAEXXZ
  0000e	8d 8e 5c 0f 00
	00		 lea	 ecx, DWORD PTR [esi+3932]
  00014	ff d7		 call	 edi

; 46   : 	m_szNearTargetName.Clear();

  00016	8d 8e 6c 0f 00
	00		 lea	 ecx, DWORD PTR [esi+3948]
  0001c	ff d7		 call	 edi

; 47   : 	m_szFarTargetName.Clear();

  0001e	8d 8e 7c 0f 00
	00		 lea	 ecx, DWORD PTR [esi+3964]
  00024	ff d7		 call	 edi

; 48   : 	m_szPreTargetName.c_str();

  00026	8d 8e 8c 0f 00
	00		 lea	 ecx, DWORD PTR [esi+3980]
  0002c	ff 15 00 00 00
	00		 call	 DWORD PTR __imp_?c_str@ioHashString@@QBEPBDXZ

; 49   : 
; 50   : 	m_SkillState = SS_PRE;
; 51   : 	m_bSetHandMesh = false;
; 52   : 	m_bSetMoveAni = false;
; 53   : 	
; 54   : 	//maker
; 55   : 	m_dwAimMarkerID = -1;

  00032	83 8e 20 10 00
	00 ff		 or	 DWORD PTR [esi+4128], -1
  00039	33 c0		 xor	 eax, eax
  0003b	89 86 58 0f 00
	00		 mov	 DWORD PTR [esi+3928], eax
  00041	88 86 0a 0f 00
	00		 mov	 BYTE PTR [esi+3850], al
  00047	88 86 fc 0f 00
	00		 mov	 BYTE PTR [esi+4092], al

; 56   : 	
; 57   : 	m_bFindNear = true;
; 58   : 	m_bFindFar = true;
; 59   : 
; 60   : 	m_dwSkillStartTime = 0;

  0004d	89 45 fc	 mov	 DWORD PTR _value$536117[ebp], eax
  00050	8d 45 fc	 lea	 eax, DWORD PTR _value$536117[ebp]
  00053	50		 push	 eax
  00054	8d 8e 94 0e 00
	00		 lea	 ecx, DWORD PTR [esi+3732]
  0005a	66 c7 86 48 11
	00 00 01 01	 mov	 WORD PTR [esi+4424], 257 ; 00000101H
  00063	e8 00 00 00 00	 call	 ?EncryptValueToPool@?$CEncrypt@K@@AAEXPBD@Z ; CEncrypt<unsigned long>::EncryptValueToPool
  00068	5f		 pop	 edi
  00069	5e		 pop	 esi

; 61   : }

  0006a	c9		 leave
  0006b	c3		 ret	 0
?ClearData@ioRangeTargetShotSkill@@IAEXXZ ENDP		; ioRangeTargetShotSkill::ClearData
_TEXT	ENDS
PUBLIC	??_C@_00CNPNBAHC@?$AA@				; `string'
PUBLIC	_rkLoader$GSCopy$
PUBLIC	__$ArrayPad$
PUBLIC	?LoadProperty@ioRangeTargetShotSkill@@UAEXAAVioINILoader@@@Z ; ioRangeTargetShotSkill::LoadProperty
EXTRN	__imp_??4ioHashString@@QAEAAV0@PBD@Z:PROC
EXTRN	?LoadAttackAttribute@@YAXPBDAAUAttackAttribute@@AAVioINILoader@@@Z:PROC ; LoadAttackAttribute
EXTRN	__imp__wsprintfA:PROC
EXTRN	?LoadProperty@ioNormalSkill@@UAEXAAVioINILoader@@@Z:PROC ; ioNormalSkill::LoadProperty
;	COMDAT ??_C@_00CNPNBAHC@?$AA@
; File d:\lost saga for developer\youtube\tutorial\source\src\lsclient\stringprotect.h
CONST	SEGMENT
??_C@_00CNPNBAHC@?$AA@ DB 00H				; `string'
; Function compile flags: /Ogsp
; File d:\lost saga for developer\youtube\tutorial\source\src\lsclient\iorangetargetshotskill.cpp
CONST	ENDS
;	COMDAT ?LoadProperty@ioRangeTargetShotSkill@@UAEXAAVioINILoader@@@Z
_TEXT	SEGMENT
_value$537658 = -760					; size = 4
_value$537397 = -756					; size = 4
_value$537527 = -752					; size = 4
_value$537788 = -748					; size = 4
_value$537918 = -744					; size = 4
_rkLoader$GSCopy$ = -740				; size = 4
_szBuf$ = -736						; size = 260
__k$537688 = -476					; size = 17
__k$537948 = -452					; size = 21
__k$537818 = -424					; size = 21
__k$538323 = -396					; size = 21
__k$536273 = -368					; size = 21
__k$537415 = -340					; size = 22
__k$536785 = -312					; size = 15
__k$536718 = -292					; size = 16
__k$537545 = -272					; size = 22
__k$538142 = -244					; size = 15
__k$537093 = -224					; size = 16
__k$536535 = -204					; size = 20
___encStr$530629 = -180					; size = 16
__k$536148 = -160					; size = 19
__k$536910 = -136					; size = 15
__k$537285 = -116					; size = 18
___encStr$530810 = -92					; size = 15
__k$537160 = -72					; size = 18
__k$536410 = -48					; size = 18
__k$538185 = -24					; size = 16
__$ArrayPad$ = -4					; size = 4
_rkLoader$ = 8						; size = 4
?LoadProperty@ioRangeTargetShotSkill@@UAEXAAVioINILoader@@@Z PROC ; ioRangeTargetShotSkill::LoadProperty, COMDAT
; _this$ = ecx

; 64   : {

  00000	55		 push	 ebp
  00001	8b ec		 mov	 ebp, esp
  00003	81 ec f8 02 00
	00		 sub	 esp, 760		; 000002f8H
  00009	a1 00 00 00 00	 mov	 eax, DWORD PTR ___security_cookie
  0000e	33 c5		 xor	 eax, ebp
  00010	89 45 fc	 mov	 DWORD PTR __$ArrayPad$[ebp], eax
  00013	53		 push	 ebx
  00014	8b 5d 08	 mov	 ebx, DWORD PTR _rkLoader$[ebp]
  00017	56		 push	 esi
  00018	57		 push	 edi

; 65   : 	ioNormalSkill::LoadProperty( rkLoader );

  00019	53		 push	 ebx
  0001a	8b f1		 mov	 esi, ecx

; 91   : 	rkLoader.LoadString_e( "blue_aim_marker", "", szBuf, MAX_PATH );

  0001c	89 9d 1c fd ff
	ff		 mov	 DWORD PTR _rkLoader$GSCopy$[ebp], ebx
  00022	e8 00 00 00 00	 call	 ?LoadProperty@ioNormalSkill@@UAEXAAVioINILoader@@@Z ; ioNormalSkill::LoadProperty
  00027	6a 03		 push	 3
  00029	c7 85 4c ff ff
	ff 83 89 8a 98	 mov	 DWORD PTR ___encStr$530629[ebp], -1735751293 ; 988a8983H
  00033	c7 85 50 ff ff
	ff b2 8d 82 87	 mov	 DWORD PTR ___encStr$530629[ebp+4], -2021487182 ; 87828db2H
  0003d	c7 85 54 ff ff
	ff b2 8d 9f 9e	 mov	 DWORD PTR ___encStr$530629[ebp+8], -1633710670 ; 9e9f8db2H
  00047	8d 85 4c ff ff
	ff		 lea	 eax, DWORD PTR ___encStr$530629[ebp]
  0004d	c7 85 58 ff ff
	ff 8c 8f 80 00	 mov	 DWORD PTR ___encStr$530629[ebp+12], 8425356 ; 00808f8cH
  00057	59		 pop	 ecx
  00058	bf ed ec eb ea	 mov	 edi, -353637139		; eaebecedH
$LL206@LoadProper:

; 66   : 	char szBuf[MAX_PATH];
; 67   : 
; 68   : 	wsprintf_e( szBuf, "near_aim_attack");

  0005d	31 38		 xor	 DWORD PTR [eax], edi
  0005f	83 c0 04	 add	 eax, 4
  00062	49		 dec	 ecx
  00063	75 f8		 jne	 SHORT $LL206@LoadProper
  00065	6a 0c		 push	 12			; 0000000cH
  00067	58		 pop	 eax
$LL203@LoadProper:
  00068	8b c8		 mov	 ecx, eax
  0006a	81 e1 03 00 00
	80		 and	 ecx, -2147483645	; 80000003H
  00070	79 05		 jns	 SHORT $LN2215@LoadProper
  00072	49		 dec	 ecx
  00073	83 c9 fc	 or	 ecx, -4			; fffffffcH
  00076	41		 inc	 ecx
$LN2215@LoadProper:
  00077	b2 ed		 mov	 dl, -19			; ffffffedH
  00079	2a d1		 sub	 dl, cl
  0007b	30 94 05 4c ff
	ff ff		 xor	 BYTE PTR ___encStr$530629[ebp+eax], dl
  00082	40		 inc	 eax
  00083	83 f8 0f	 cmp	 eax, 15			; 0000000fH
  00086	7c e0		 jl	 SHORT $LL203@LoadProper
  00088	8d 85 4c ff ff
	ff		 lea	 eax, DWORD PTR ___encStr$530629[ebp]
  0008e	50		 push	 eax
  0008f	8d 85 20 fd ff
	ff		 lea	 eax, DWORD PTR _szBuf$[ebp]
  00095	50		 push	 eax
  00096	ff 15 00 00 00
	00		 call	 DWORD PTR __imp__wsprintfA

; 69   : 	LoadAttackAttribute( szBuf, m_NearAimAttribute, rkLoader );

  0009c	53		 push	 ebx
  0009d	8d 86 4c 11 00
	00		 lea	 eax, DWORD PTR [esi+4428]
  000a3	50		 push	 eax
  000a4	8d 85 20 fd ff
	ff		 lea	 eax, DWORD PTR _szBuf$[ebp]
  000aa	50		 push	 eax
  000ab	e8 00 00 00 00	 call	 ?LoadAttackAttribute@@YAXPBDAAUAttackAttribute@@AAVioINILoader@@@Z ; LoadAttackAttribute
  000b0	83 c4 14	 add	 esp, 20			; 00000014H
  000b3	6a 04		 push	 4

; 70   : 	rkLoader.LoadString_e( "near_aim_attack_up", "", szBuf, MAX_PATH );	

  000b5	c7 85 60 ff ff
	ff 83 89 8a 98	 mov	 DWORD PTR __k$536148[ebp], -1735751293 ; 988a8983H
  000bf	c7 85 64 ff ff
	ff b2 8d 82 87	 mov	 DWORD PTR __k$536148[ebp+4], -2021487182 ; 87828db2H
  000c9	c7 85 68 ff ff
	ff b2 8d 9f 9e	 mov	 DWORD PTR __k$536148[ebp+8], -1633710670 ; 9e9f8db2H
  000d3	c7 85 6c ff ff
	ff 8c 8f 80 b5	 mov	 DWORD PTR __k$536148[ebp+12], -1249865844 ; b5808f8cH
  000dd	66 c7 85 70 ff
	ff ff 98 9c	 mov	 WORD PTR __k$536148[ebp+16], 40088 ; 00009c98H
  000e6	8d 85 60 ff ff
	ff		 lea	 eax, DWORD PTR __k$536148[ebp]
  000ec	c6 85 72 ff ff
	ff 00		 mov	 BYTE PTR __k$536148[ebp+18], 0
  000f3	59		 pop	 ecx
$LL312@LoadProper:
  000f4	31 38		 xor	 DWORD PTR [eax], edi
  000f6	83 c0 04	 add	 eax, 4
  000f9	49		 dec	 ecx
  000fa	75 f8		 jne	 SHORT $LL312@LoadProper
  000fc	6a 10		 push	 16			; 00000010H
  000fe	58		 pop	 eax
$LL309@LoadProper:
  000ff	8b c8		 mov	 ecx, eax
  00101	81 e1 03 00 00
	80		 and	 ecx, -2147483645	; 80000003H
  00107	79 05		 jns	 SHORT $LN2216@LoadProper
  00109	49		 dec	 ecx
  0010a	83 c9 fc	 or	 ecx, -4			; fffffffcH
  0010d	41		 inc	 ecx
$LN2216@LoadProper:
  0010e	b2 ed		 mov	 dl, -19			; ffffffedH
  00110	2a d1		 sub	 dl, cl
  00112	30 94 05 60 ff
	ff ff		 xor	 BYTE PTR __k$536148[ebp+eax], dl
  00119	40		 inc	 eax
  0011a	83 f8 12	 cmp	 eax, 18			; 00000012H
  0011d	7c e0		 jl	 SHORT $LL309@LoadProper
  0011f	8b 3d 00 00 00
	00		 mov	 edi, DWORD PTR __imp_?LoadStringA@ioINILoader@@QAEXPBD0PADH@Z
  00125	68 04 01 00 00	 push	 260			; 00000104H
  0012a	8d 85 20 fd ff
	ff		 lea	 eax, DWORD PTR _szBuf$[ebp]
  00130	50		 push	 eax
  00131	68 00 00 00 00	 push	 OFFSET ??_C@_00CNPNBAHC@?$AA@
  00136	8d 85 60 ff ff
	ff		 lea	 eax, DWORD PTR __k$536148[ebp]
  0013c	50		 push	 eax
  0013d	8b cb		 mov	 ecx, ebx
  0013f	ff d7		 call	 edi

; 71   : 	m_NearUpAnimation = szBuf;

  00141	8b 1d 00 00 00
	00		 mov	 ebx, DWORD PTR __imp_??4ioHashString@@QAEAAV0@PBD@Z
  00147	8d 85 20 fd ff
	ff		 lea	 eax, DWORD PTR _szBuf$[ebp]
  0014d	50		 push	 eax
  0014e	8d 8e bc 0f 00
	00		 lea	 ecx, DWORD PTR [esi+4028]
  00154	ff d3		 call	 ebx
  00156	6a 05		 push	 5

; 72   : 	rkLoader.LoadString_e( "near_aim_attack_down", "", szBuf, MAX_PATH );

  00158	c7 85 90 fe ff
	ff 83 89 8a 98	 mov	 DWORD PTR __k$536273[ebp], -1735751293 ; 988a8983H
  00162	c7 85 94 fe ff
	ff b2 8d 82 87	 mov	 DWORD PTR __k$536273[ebp+4], -2021487182 ; 87828db2H
  0016c	c7 85 98 fe ff
	ff b2 8d 9f 9e	 mov	 DWORD PTR __k$536273[ebp+8], -1633710670 ; 9e9f8db2H
  00176	c7 85 9c fe ff
	ff 8c 8f 80 b5	 mov	 DWORD PTR __k$536273[ebp+12], -1249865844 ; b5808f8cH
  00180	c7 85 a0 fe ff
	ff 89 83 9c 84	 mov	 DWORD PTR __k$536273[ebp+16], -2070117495 ; 849c8389H
  0018a	8d 85 90 fe ff
	ff		 lea	 eax, DWORD PTR __k$536273[ebp]
  00190	c6 85 a4 fe ff
	ff 00		 mov	 BYTE PTR __k$536273[ebp+20], 0
  00197	59		 pop	 ecx
$LL418@LoadProper:
  00198	81 30 ed ec eb
	ea		 xor	 DWORD PTR [eax], -353637139 ; eaebecedH
  0019e	83 c0 04	 add	 eax, 4
  001a1	49		 dec	 ecx
  001a2	75 f4		 jne	 SHORT $LL418@LoadProper
  001a4	8b 8d 1c fd ff
	ff		 mov	 ecx, DWORD PTR _rkLoader$GSCopy$[ebp]
  001aa	68 04 01 00 00	 push	 260			; 00000104H
  001af	8d 85 20 fd ff
	ff		 lea	 eax, DWORD PTR _szBuf$[ebp]
  001b5	50		 push	 eax
  001b6	68 00 00 00 00	 push	 OFFSET ??_C@_00CNPNBAHC@?$AA@
  001bb	8d 85 90 fe ff
	ff		 lea	 eax, DWORD PTR __k$536273[ebp]
  001c1	50		 push	 eax
  001c2	ff d7		 call	 edi

; 73   : 	m_NearDownAnimation	= szBuf;

  001c4	8d 85 20 fd ff
	ff		 lea	 eax, DWORD PTR _szBuf$[ebp]
  001ca	50		 push	 eax
  001cb	8d 8e cc 0f 00
	00		 lea	 ecx, DWORD PTR [esi+4044]
  001d1	ff d3		 call	 ebx
  001d3	6a 03		 push	 3

; 74   : 
; 75   : 	wsprintf_e( szBuf, "far_aim_attack");

  001d5	c7 45 a4 8b 8d
	99 b5		 mov	 DWORD PTR ___encStr$530810[ebp], -1248227957 ; b5998d8bH
  001dc	c7 45 a8 8c 85
	86 b5		 mov	 DWORD PTR ___encStr$530810[ebp+4], -1249475188 ; b586858cH
  001e3	c7 45 ac 8c 98
	9f 8b		 mov	 DWORD PTR ___encStr$530810[ebp+8], -1952474996 ; 8b9f988cH
  001ea	66 c7 45 b0 8e
	87		 mov	 WORD PTR ___encStr$530810[ebp+12], 34702 ; 0000878eH
  001f0	8d 45 a4	 lea	 eax, DWORD PTR ___encStr$530810[ebp]
  001f3	c6 45 b2 00	 mov	 BYTE PTR ___encStr$530810[ebp+14], 0
  001f7	59		 pop	 ecx
$LL426@LoadProper:
  001f8	81 30 ed ec eb
	ea		 xor	 DWORD PTR [eax], -353637139 ; eaebecedH
  001fe	83 c0 04	 add	 eax, 4
  00201	49		 dec	 ecx
  00202	75 f4		 jne	 SHORT $LL426@LoadProper
  00204	6a 0c		 push	 12			; 0000000cH
  00206	58		 pop	 eax
$LL423@LoadProper:
  00207	8b c8		 mov	 ecx, eax
  00209	81 e1 03 00 00
	80		 and	 ecx, -2147483645	; 80000003H
  0020f	79 05		 jns	 SHORT $LN2217@LoadProper
  00211	49		 dec	 ecx
  00212	83 c9 fc	 or	 ecx, -4			; fffffffcH
  00215	41		 inc	 ecx
$LN2217@LoadProper:
  00216	b2 ed		 mov	 dl, -19			; ffffffedH
  00218	2a d1		 sub	 dl, cl
  0021a	30 54 05 a4	 xor	 BYTE PTR ___encStr$530810[ebp+eax], dl
  0021e	40		 inc	 eax
  0021f	83 f8 0e	 cmp	 eax, 14			; 0000000eH
  00222	7c e3		 jl	 SHORT $LL423@LoadProper
  00224	8d 45 a4	 lea	 eax, DWORD PTR ___encStr$530810[ebp]
  00227	50		 push	 eax
  00228	8d 85 20 fd ff
	ff		 lea	 eax, DWORD PTR _szBuf$[ebp]
  0022e	50		 push	 eax
  0022f	ff 15 00 00 00
	00		 call	 DWORD PTR __imp__wsprintfA

; 76   : 	LoadAttackAttribute( szBuf, m_FarAimAttribute, rkLoader );

  00235	ff b5 1c fd ff
	ff		 push	 DWORD PTR _rkLoader$GSCopy$[ebp]
  0023b	8d 86 9c 11 00
	00		 lea	 eax, DWORD PTR [esi+4508]
  00241	50		 push	 eax
  00242	8d 85 20 fd ff
	ff		 lea	 eax, DWORD PTR _szBuf$[ebp]
  00248	50		 push	 eax
  00249	e8 00 00 00 00	 call	 ?LoadAttackAttribute@@YAXPBDAAUAttackAttribute@@AAVioINILoader@@@Z ; LoadAttackAttribute
  0024e	83 c4 14	 add	 esp, 20			; 00000014H
  00251	6a 04		 push	 4

; 77   : 	rkLoader.LoadString_e( "far_aim_attack_up", "", szBuf, MAX_PATH );	

  00253	c7 45 d0 8b 8d
	99 b5		 mov	 DWORD PTR __k$536410[ebp], -1248227957 ; b5998d8bH
  0025a	c7 45 d4 8c 85
	86 b5		 mov	 DWORD PTR __k$536410[ebp+4], -1249475188 ; b586858cH
  00261	c7 45 d8 8c 98
	9f 8b		 mov	 DWORD PTR __k$536410[ebp+8], -1952474996 ; 8b9f988cH
  00268	c7 45 dc 8e 87
	b4 9f		 mov	 DWORD PTR __k$536410[ebp+12], -1615558770 ; 9fb4878eH
  0026f	8d 45 d0	 lea	 eax, DWORD PTR __k$536410[ebp]
  00272	66 c7 45 e0 9d
	00		 mov	 WORD PTR __k$536410[ebp+16], 157 ; 0000009dH
  00278	59		 pop	 ecx
$LL532@LoadProper:
  00279	81 30 ed ec eb
	ea		 xor	 DWORD PTR [eax], -353637139 ; eaebecedH
  0027f	83 c0 04	 add	 eax, 4
  00282	49		 dec	 ecx
  00283	75 f4		 jne	 SHORT $LL532@LoadProper
  00285	8b 8d 1c fd ff
	ff		 mov	 ecx, DWORD PTR _rkLoader$GSCopy$[ebp]
  0028b	80 75 e0 ed	 xor	 BYTE PTR __k$536410[ebp+16], -19 ; ffffffedH
  0028f	68 04 01 00 00	 push	 260			; 00000104H
  00294	8d 85 20 fd ff
	ff		 lea	 eax, DWORD PTR _szBuf$[ebp]
  0029a	50		 push	 eax
  0029b	68 00 00 00 00	 push	 OFFSET ??_C@_00CNPNBAHC@?$AA@
  002a0	8d 45 d0	 lea	 eax, DWORD PTR __k$536410[ebp]
  002a3	50		 push	 eax
  002a4	ff d7		 call	 edi

; 78   : 	m_FarUpAnimation = szBuf;

  002a6	8d 85 20 fd ff
	ff		 lea	 eax, DWORD PTR _szBuf$[ebp]
  002ac	50		 push	 eax
  002ad	8d 8e dc 0f 00
	00		 lea	 ecx, DWORD PTR [esi+4060]
  002b3	ff d3		 call	 ebx
  002b5	6a 04		 push	 4

; 79   : 	rkLoader.LoadString_e( "far_aim_attack_down", "", szBuf, MAX_PATH );

  002b7	c7 85 34 ff ff
	ff 8b 8d 99 b5	 mov	 DWORD PTR __k$536535[ebp], -1248227957 ; b5998d8bH
  002c1	c7 85 38 ff ff
	ff 8c 85 86 b5	 mov	 DWORD PTR __k$536535[ebp+4], -1249475188 ; b586858cH
  002cb	c7 85 3c ff ff
	ff 8c 98 9f 8b	 mov	 DWORD PTR __k$536535[ebp+8], -1952474996 ; 8b9f988cH
  002d5	c7 85 40 ff ff
	ff 8e 87 b4 8e	 mov	 DWORD PTR __k$536535[ebp+12], -1900771442 ; 8eb4878eH
  002df	8d 85 34 ff ff
	ff		 lea	 eax, DWORD PTR __k$536535[ebp]
  002e5	c7 85 44 ff ff
	ff 82 9b 85 00	 mov	 DWORD PTR __k$536535[ebp+16], 8756098 ; 00859b82H
  002ef	59		 pop	 ecx
$LL638@LoadProper:
  002f0	81 30 ed ec eb
	ea		 xor	 DWORD PTR [eax], -353637139 ; eaebecedH
  002f6	83 c0 04	 add	 eax, 4
  002f9	49		 dec	 ecx
  002fa	75 f4		 jne	 SHORT $LL638@LoadProper
  002fc	6a 10		 push	 16			; 00000010H
  002fe	58		 pop	 eax
$LL635@LoadProper:
  002ff	8b c8		 mov	 ecx, eax
  00301	81 e1 03 00 00
	80		 and	 ecx, -2147483645	; 80000003H
  00307	79 05		 jns	 SHORT $LN2218@LoadProper
  00309	49		 dec	 ecx
  0030a	83 c9 fc	 or	 ecx, -4			; fffffffcH
  0030d	41		 inc	 ecx
$LN2218@LoadProper:
  0030e	b2 ed		 mov	 dl, -19			; ffffffedH
  00310	2a d1		 sub	 dl, cl
  00312	30 94 05 34 ff
	ff ff		 xor	 BYTE PTR __k$536535[ebp+eax], dl
  00319	40		 inc	 eax
  0031a	83 f8 13	 cmp	 eax, 19			; 00000013H
  0031d	7c e0		 jl	 SHORT $LL635@LoadProper
  0031f	8b 8d 1c fd ff
	ff		 mov	 ecx, DWORD PTR _rkLoader$GSCopy$[ebp]
  00325	68 04 01 00 00	 push	 260			; 00000104H
  0032a	8d 85 20 fd ff
	ff		 lea	 eax, DWORD PTR _szBuf$[ebp]
  00330	50		 push	 eax
  00331	68 00 00 00 00	 push	 OFFSET ??_C@_00CNPNBAHC@?$AA@
  00336	8d 85 34 ff ff
	ff		 lea	 eax, DWORD PTR __k$536535[ebp]
  0033c	50		 push	 eax
  0033d	ff d7		 call	 edi

; 80   : 	m_FarDownAnimation	= szBuf;

  0033f	8d 85 20 fd ff
	ff		 lea	 eax, DWORD PTR _szBuf$[ebp]
  00345	50		 push	 eax
  00346	8d 8e ec 0f 00
	00		 lea	 ecx, DWORD PTR [esi+4076]
  0034c	ff d3		 call	 ebx
  0034e	6a 03		 push	 3

; 81   : 
; 82   : 	//loop motion
; 83   : 	rkLoader.LoadString_e( "delay_animation", "", szBuf, MAX_PATH );	

  00350	c7 85 dc fe ff
	ff 89 89 87 8b	 mov	 DWORD PTR __k$536718[ebp], -1954051703 ; 8b878989H
  0035a	c7 85 e0 fe ff
	ff 94 b3 8a 84	 mov	 DWORD PTR __k$536718[ebp+4], -2071284844 ; 848ab394H
  00364	c7 85 e4 fe ff
	ff 84 81 8a 9e	 mov	 DWORD PTR __k$536718[ebp+8], -1635090044 ; 9e8a8184H
  0036e	8d 85 dc fe ff
	ff		 lea	 eax, DWORD PTR __k$536718[ebp]
  00374	c7 85 e8 fe ff
	ff 84 83 85 00	 mov	 DWORD PTR __k$536718[ebp+12], 8749956 ; 00858384H
  0037e	59		 pop	 ecx
$LL744@LoadProper:
  0037f	81 30 ed ec eb
	ea		 xor	 DWORD PTR [eax], -353637139 ; eaebecedH
  00385	83 c0 04	 add	 eax, 4
  00388	49		 dec	 ecx
  00389	75 f4		 jne	 SHORT $LL744@LoadProper
  0038b	6a 0c		 push	 12			; 0000000cH
  0038d	58		 pop	 eax
$LL741@LoadProper:
  0038e	8b c8		 mov	 ecx, eax
  00390	81 e1 03 00 00
	80		 and	 ecx, -2147483645	; 80000003H
  00396	79 05		 jns	 SHORT $LN2219@LoadProper
  00398	49		 dec	 ecx
  00399	83 c9 fc	 or	 ecx, -4			; fffffffcH
  0039c	41		 inc	 ecx
$LN2219@LoadProper:
  0039d	b2 ed		 mov	 dl, -19			; ffffffedH
  0039f	2a d1		 sub	 dl, cl
  003a1	30 94 05 dc fe
	ff ff		 xor	 BYTE PTR __k$536718[ebp+eax], dl
  003a8	40		 inc	 eax
  003a9	83 f8 0f	 cmp	 eax, 15			; 0000000fH
  003ac	7c e0		 jl	 SHORT $LL741@LoadProper
  003ae	8b 8d 1c fd ff
	ff		 mov	 ecx, DWORD PTR _rkLoader$GSCopy$[ebp]
  003b4	68 04 01 00 00	 push	 260			; 00000104H
  003b9	8d 85 20 fd ff
	ff		 lea	 eax, DWORD PTR _szBuf$[ebp]
  003bf	50		 push	 eax
  003c0	68 00 00 00 00	 push	 OFFSET ??_C@_00CNPNBAHC@?$AA@
  003c5	8d 85 dc fe ff
	ff		 lea	 eax, DWORD PTR __k$536718[ebp]
  003cb	50		 push	 eax
  003cc	ff d7		 call	 edi

; 84   : 	m_LoopDelayAnimation = szBuf;

  003ce	8d 85 20 fd ff
	ff		 lea	 eax, DWORD PTR _szBuf$[ebp]
  003d4	50		 push	 eax
  003d5	8d 8e 9c 0f 00
	00		 lea	 ecx, DWORD PTR [esi+3996]
  003db	ff d3		 call	 ebx
  003dd	6a 03		 push	 3

; 85   : 	rkLoader.LoadString_e( "move_animation", "", szBuf, MAX_PATH );

  003df	c7 85 c8 fe ff
	ff 80 83 9d 8f	 mov	 DWORD PTR __k$536785[ebp], -1885502592 ; 8f9d8380H
  003e9	c7 85 cc fe ff
	ff b2 8d 85 83	 mov	 DWORD PTR __k$536785[ebp+4], -2088399438 ; 83858db2H
  003f3	c7 85 d0 fe ff
	ff 80 8d 9f 83	 mov	 DWORD PTR __k$536785[ebp+8], -2086695552 ; 839f8d80H
  003fd	66 c7 85 d4 fe
	ff ff 82 82	 mov	 WORD PTR __k$536785[ebp+12], 33410 ; 00008282H
  00406	8d 85 c8 fe ff
	ff		 lea	 eax, DWORD PTR __k$536785[ebp]
  0040c	c6 85 d6 fe ff
	ff 00		 mov	 BYTE PTR __k$536785[ebp+14], 0
  00413	59		 pop	 ecx
$LL850@LoadProper:
  00414	81 30 ed ec eb
	ea		 xor	 DWORD PTR [eax], -353637139 ; eaebecedH
  0041a	83 c0 04	 add	 eax, 4
  0041d	49		 dec	 ecx
  0041e	75 f4		 jne	 SHORT $LL850@LoadProper
  00420	6a 0c		 push	 12			; 0000000cH
  00422	58		 pop	 eax
$LL847@LoadProper:
  00423	8b c8		 mov	 ecx, eax
  00425	81 e1 03 00 00
	80		 and	 ecx, -2147483645	; 80000003H
  0042b	79 05		 jns	 SHORT $LN2220@LoadProper
  0042d	49		 dec	 ecx
  0042e	83 c9 fc	 or	 ecx, -4			; fffffffcH
  00431	41		 inc	 ecx
$LN2220@LoadProper:
  00432	b2 ed		 mov	 dl, -19			; ffffffedH
  00434	2a d1		 sub	 dl, cl
  00436	30 94 05 c8 fe
	ff ff		 xor	 BYTE PTR __k$536785[ebp+eax], dl
  0043d	40		 inc	 eax
  0043e	83 f8 0e	 cmp	 eax, 14			; 0000000eH
  00441	7c e0		 jl	 SHORT $LL847@LoadProper
  00443	8b 8d 1c fd ff
	ff		 mov	 ecx, DWORD PTR _rkLoader$GSCopy$[ebp]
  00449	68 04 01 00 00	 push	 260			; 00000104H
  0044e	8d 85 20 fd ff
	ff		 lea	 eax, DWORD PTR _szBuf$[ebp]
  00454	50		 push	 eax
  00455	68 00 00 00 00	 push	 OFFSET ??_C@_00CNPNBAHC@?$AA@
  0045a	8d 85 c8 fe ff
	ff		 lea	 eax, DWORD PTR __k$536785[ebp]
  00460	50		 push	 eax
  00461	ff d7		 call	 edi

; 86   : 	m_LoopMoveAnimation	= szBuf;

  00463	8d 85 20 fd ff
	ff		 lea	 eax, DWORD PTR _szBuf$[ebp]
  00469	50		 push	 eax
  0046a	8d 8e ac 0f 00
	00		 lea	 ecx, DWORD PTR [esi+4012]
  00470	ff d3		 call	 ebx
  00472	6a 03		 push	 3

; 87   : 
; 88   : 	// aim mark
; 89   : 	rkLoader.LoadString_e( "red_aim_marker", "", szBuf, MAX_PATH );

  00474	c7 85 78 ff ff
	ff 9f 89 8f b5	 mov	 DWORD PTR __k$536910[ebp], -1248884321 ; b58f899fH
  0047e	c7 85 7c ff ff
	ff 8c 85 86 b5	 mov	 DWORD PTR __k$536910[ebp+4], -1249475188 ; b586858cH
  00488	c7 45 80 80 8d
	99 81		 mov	 DWORD PTR __k$536910[ebp+8], -2120643200 ; 81998d80H
  0048f	66 c7 45 84 88
	9e		 mov	 WORD PTR __k$536910[ebp+12], 40584 ; 00009e88H
  00495	8d 85 78 ff ff
	ff		 lea	 eax, DWORD PTR __k$536910[ebp]
  0049b	c6 45 86 00	 mov	 BYTE PTR __k$536910[ebp+14], 0
  0049f	59		 pop	 ecx
$LL956@LoadProper:
  004a0	81 30 ed ec eb
	ea		 xor	 DWORD PTR [eax], -353637139 ; eaebecedH
  004a6	83 c0 04	 add	 eax, 4
  004a9	49		 dec	 ecx
  004aa	75 f4		 jne	 SHORT $LL956@LoadProper
  004ac	6a 0c		 push	 12			; 0000000cH
  004ae	58		 pop	 eax
$LL953@LoadProper:
  004af	8b c8		 mov	 ecx, eax
  004b1	81 e1 03 00 00
	80		 and	 ecx, -2147483645	; 80000003H
  004b7	79 05		 jns	 SHORT $LN2221@LoadProper
  004b9	49		 dec	 ecx
  004ba	83 c9 fc	 or	 ecx, -4			; fffffffcH
  004bd	41		 inc	 ecx
$LN2221@LoadProper:
  004be	b2 ed		 mov	 dl, -19			; ffffffedH
  004c0	2a d1		 sub	 dl, cl
  004c2	30 94 05 78 ff
	ff ff		 xor	 BYTE PTR __k$536910[ebp+eax], dl
  004c9	40		 inc	 eax
  004ca	83 f8 0e	 cmp	 eax, 14			; 0000000eH
  004cd	7c e0		 jl	 SHORT $LL953@LoadProper
  004cf	8b 8d 1c fd ff
	ff		 mov	 ecx, DWORD PTR _rkLoader$GSCopy$[ebp]
  004d5	68 04 01 00 00	 push	 260			; 00000104H
  004da	8d 85 20 fd ff
	ff		 lea	 eax, DWORD PTR _szBuf$[ebp]
  004e0	50		 push	 eax
  004e1	68 00 00 00 00	 push	 OFFSET ??_C@_00CNPNBAHC@?$AA@
  004e6	8d 85 78 ff ff
	ff		 lea	 eax, DWORD PTR __k$536910[ebp]
  004ec	50		 push	 eax
  004ed	ff d7		 call	 edi

; 90   : 	m_szRedAimMarker = szBuf;

  004ef	8d 85 20 fd ff
	ff		 lea	 eax, DWORD PTR _szBuf$[ebp]
  004f5	50		 push	 eax
  004f6	8d 8e 00 10 00
	00		 lea	 ecx, DWORD PTR [esi+4096]
  004fc	ff d3		 call	 ebx
  004fe	6a 03		 push	 3

; 91   : 	rkLoader.LoadString_e( "blue_aim_marker", "", szBuf, MAX_PATH );

  00500	c7 85 20 ff ff
	ff 8f 80 9e 8f	 mov	 DWORD PTR __k$537093[ebp], -1885437809 ; 8f9e808fH
  0050a	c7 85 24 ff ff
	ff b2 8d 82 87	 mov	 DWORD PTR __k$537093[ebp+4], -2021487182 ; 87828db2H
  00514	c7 85 28 ff ff
	ff b2 81 8a 98	 mov	 DWORD PTR __k$537093[ebp+8], -1735753294 ; 988a81b2H
  0051e	8d 85 20 ff ff
	ff		 lea	 eax, DWORD PTR __k$537093[ebp]
  00524	c7 85 2c ff ff
	ff 86 89 99 00	 mov	 DWORD PTR __k$537093[ebp+12], 10062214 ; 00998986H
  0052e	59		 pop	 ecx
$LL1062@LoadProper:
  0052f	81 30 ed ec eb
	ea		 xor	 DWORD PTR [eax], -353637139 ; eaebecedH
  00535	83 c0 04	 add	 eax, 4
  00538	49		 dec	 ecx
  00539	75 f4		 jne	 SHORT $LL1062@LoadProper
  0053b	6a 0c		 push	 12			; 0000000cH
  0053d	58		 pop	 eax
$LL1059@LoadProper:
  0053e	8b c8		 mov	 ecx, eax
  00540	81 e1 03 00 00
	80		 and	 ecx, -2147483645	; 80000003H
  00546	79 05		 jns	 SHORT $LN2222@LoadProper
  00548	49		 dec	 ecx
  00549	83 c9 fc	 or	 ecx, -4			; fffffffcH
  0054c	41		 inc	 ecx
$LN2222@LoadProper:
  0054d	b2 ed		 mov	 dl, -19			; ffffffedH
  0054f	2a d1		 sub	 dl, cl
  00551	30 94 05 20 ff
	ff ff		 xor	 BYTE PTR __k$537093[ebp+eax], dl
  00558	40		 inc	 eax
  00559	83 f8 0f	 cmp	 eax, 15			; 0000000fH
  0055c	7c e0		 jl	 SHORT $LL1059@LoadProper
  0055e	8b 8d 1c fd ff
	ff		 mov	 ecx, DWORD PTR _rkLoader$GSCopy$[ebp]
  00564	68 04 01 00 00	 push	 260			; 00000104H
  00569	8d 85 20 fd ff
	ff		 lea	 eax, DWORD PTR _szBuf$[ebp]
  0056f	50		 push	 eax
  00570	68 00 00 00 00	 push	 OFFSET ??_C@_00CNPNBAHC@?$AA@
  00575	8d 85 20 ff ff
	ff		 lea	 eax, DWORD PTR __k$537093[ebp]
  0057b	50		 push	 eax
  0057c	ff d7		 call	 edi

; 92   : 	m_szBlueAimMarker = szBuf;

  0057e	8d 85 20 fd ff
	ff		 lea	 eax, DWORD PTR _szBuf$[ebp]
  00584	50		 push	 eax
  00585	8d 8e 10 10 00
	00		 lea	 ecx, DWORD PTR [esi+4112]
  0058b	ff d3		 call	 ebx
  0058d	6a 04		 push	 4

; 93   : 
; 94   : 	//   
; 95   : 	m_TargetWoundType	= (TargetWoundType)rkLoader.LoadInt_e( "target_wound_type", TWT_ALL );

  0058f	c7 45 b8 99 8d
	99 8d		 mov	 DWORD PTR __k$537160[ebp], -1919316583 ; 8d998d99H
  00596	c7 45 bc 88 98
	b4 9d		 mov	 DWORD PTR __k$537160[ebp+4], -1649108856 ; 9db49888H
  0059d	c7 45 c0 82 99
	85 8e		 mov	 DWORD PTR __k$537160[ebp+8], -1903847038 ; 8e859982H
  005a4	c7 45 c4 b2 98
	92 9a		 mov	 DWORD PTR __k$537160[ebp+12], -1701668686 ; 9a9298b2H
  005ab	8d 45 b8	 lea	 eax, DWORD PTR __k$537160[ebp]
  005ae	66 c7 45 c8 88
	00		 mov	 WORD PTR __k$537160[ebp+16], 136 ; 00000088H
  005b4	59		 pop	 ecx
  005b5	bf ed ec eb ea	 mov	 edi, -353637139		; eaebecedH
$LL1168@LoadProper:
  005ba	31 38		 xor	 DWORD PTR [eax], edi
  005bc	83 c0 04	 add	 eax, 4
  005bf	49		 dec	 ecx
  005c0	75 f8		 jne	 SHORT $LL1168@LoadProper
  005c2	8b 8d 1c fd ff
	ff		 mov	 ecx, DWORD PTR _rkLoader$GSCopy$[ebp]
  005c8	8b 1d 00 00 00
	00		 mov	 ebx, DWORD PTR __imp_?LoadInt@ioINILoader@@QAEHPBDH@Z
  005ce	80 75 c8 ed	 xor	 BYTE PTR __k$537160[ebp+16], -19 ; ffffffedH
  005d2	6a 01		 push	 1
  005d4	8d 45 b8	 lea	 eax, DWORD PTR __k$537160[ebp]
  005d7	50		 push	 eax
  005d8	ff d3		 call	 ebx
  005da	89 86 24 10 00
	00		 mov	 DWORD PTR [esi+4132], eax
  005e0	6a 04		 push	 4

; 96   : 	m_fNTargetAngle		= rkLoader.LoadFloat_e( "near_target_angle", 0.0f );

  005e2	c7 45 8c 83 89
	8a 98		 mov	 DWORD PTR __k$537285[ebp], -1735751293 ; 988a8983H
  005e9	c7 45 90 b2 98
	8a 98		 mov	 DWORD PTR __k$537285[ebp+4], -1735747406 ; 988a98b2H
  005f0	c7 45 94 8a 89
	9f b5		 mov	 DWORD PTR __k$537285[ebp+8], -1247835766 ; b59f898aH
  005f7	c7 45 98 8c 82
	8c 86		 mov	 DWORD PTR __k$537285[ebp+12], -2037611892 ; 868c828cH
  005fe	8d 45 8c	 lea	 eax, DWORD PTR __k$537285[ebp]
  00601	66 c7 45 9c 88
	00		 mov	 WORD PTR __k$537285[ebp+16], 136 ; 00000088H
  00607	59		 pop	 ecx
$LL1274@LoadProper:
  00608	31 38		 xor	 DWORD PTR [eax], edi
  0060a	83 c0 04	 add	 eax, 4
  0060d	49		 dec	 ecx
  0060e	75 f8		 jne	 SHORT $LL1274@LoadProper
  00610	0f 57 c0	 xorps	 xmm0, xmm0
  00613	80 75 9c ed	 xor	 BYTE PTR __k$537285[ebp+16], -19 ; ffffffedH
  00617	51		 push	 ecx
  00618	8b 8d 1c fd ff
	ff		 mov	 ecx, DWORD PTR _rkLoader$GSCopy$[ebp]
  0061e	8d 45 8c	 lea	 eax, DWORD PTR __k$537285[ebp]
  00621	f3 0f 11 04 24	 movss	 DWORD PTR [esp], xmm0
  00626	50		 push	 eax
  00627	ff 15 00 00 00
	00		 call	 DWORD PTR __imp_?LoadFloat@ioINILoader@@QAEMPBDM@Z
  0062d	d9 9d 0c fd ff
	ff		 fstp	 DWORD PTR _value$537397[ebp]
  00633	8d 85 0c fd ff
	ff		 lea	 eax, DWORD PTR _value$537397[ebp]
  00639	50		 push	 eax
  0063a	8d 8e 28 10 00
	00		 lea	 ecx, DWORD PTR [esi+4136]
  00640	e8 00 00 00 00	 call	 ?EncryptValueToPool@?$CEncrypt@M@@AAEXPBD@Z ; CEncrypt<float>::EncryptValueToPool
  00645	6a 05		 push	 5

; 97   : 	m_fNTargetRange		= rkLoader.LoadFloat_e( "near_target_max_range", 0.0f );

  00647	c7 85 ac fe ff
	ff 83 89 8a 98	 mov	 DWORD PTR __k$537415[ebp], -1735751293 ; 988a8983H
  00651	c7 85 b0 fe ff
	ff b2 98 8a 98	 mov	 DWORD PTR __k$537415[ebp+4], -1735747406 ; 988a98b2H
  0065b	c7 85 b4 fe ff
	ff 8a 89 9f b5	 mov	 DWORD PTR __k$537415[ebp+8], -1247835766 ; b59f898aH
  00665	c7 85 b8 fe ff
	ff 80 8d 93 b5	 mov	 DWORD PTR __k$537415[ebp+12], -1248621184 ; b5938d80H
  0066f	c7 85 bc fe ff
	ff 9f 8d 85 8d	 mov	 DWORD PTR __k$537415[ebp+16], -1920627297 ; 8d858d9fH
  00679	8d 85 ac fe ff
	ff		 lea	 eax, DWORD PTR __k$537415[ebp]
  0067f	66 c7 85 c0 fe
	ff ff 88 00	 mov	 WORD PTR __k$537415[ebp+20], 136 ; 00000088H
  00688	59		 pop	 ecx
$LL1382@LoadProper:
  00689	31 38		 xor	 DWORD PTR [eax], edi
  0068b	83 c0 04	 add	 eax, 4
  0068e	49		 dec	 ecx
  0068f	75 f8		 jne	 SHORT $LL1382@LoadProper
  00691	0f 57 c0	 xorps	 xmm0, xmm0
  00694	80 b5 c0 fe ff
	ff ed		 xor	 BYTE PTR __k$537415[ebp+20], -19 ; ffffffedH
  0069b	51		 push	 ecx
  0069c	8b 8d 1c fd ff
	ff		 mov	 ecx, DWORD PTR _rkLoader$GSCopy$[ebp]
  006a2	8d 85 ac fe ff
	ff		 lea	 eax, DWORD PTR __k$537415[ebp]
  006a8	f3 0f 11 04 24	 movss	 DWORD PTR [esp], xmm0
  006ad	50		 push	 eax
  006ae	ff 15 00 00 00
	00		 call	 DWORD PTR __imp_?LoadFloat@ioINILoader@@QAEMPBDM@Z
  006b4	d9 9d 10 fd ff
	ff		 fstp	 DWORD PTR _value$537527[ebp]
  006ba	8d 85 10 fd ff
	ff		 lea	 eax, DWORD PTR _value$537527[ebp]
  006c0	50		 push	 eax
  006c1	8d 8e 58 10 00
	00		 lea	 ecx, DWORD PTR [esi+4184]
  006c7	e8 00 00 00 00	 call	 ?EncryptValueToPool@?$CEncrypt@M@@AAEXPBD@Z ; CEncrypt<float>::EncryptValueToPool
  006cc	6a 05		 push	 5

; 98   : 	m_fNTargetMinRange	= rkLoader.LoadFloat_e( "near_target_min_range", 0.0f );

  006ce	c7 85 f0 fe ff
	ff 83 89 8a 98	 mov	 DWORD PTR __k$537545[ebp], -1735751293 ; 988a8983H
  006d8	c7 85 f4 fe ff
	ff b2 98 8a 98	 mov	 DWORD PTR __k$537545[ebp+4], -1735747406 ; 988a98b2H
  006e2	c7 85 f8 fe ff
	ff 8a 89 9f b5	 mov	 DWORD PTR __k$537545[ebp+8], -1247835766 ; b59f898aH
  006ec	c7 85 fc fe ff
	ff 80 85 85 b5	 mov	 DWORD PTR __k$537545[ebp+12], -1249540736 ; b5858580H
  006f6	c7 85 00 ff ff
	ff 9f 8d 85 8d	 mov	 DWORD PTR __k$537545[ebp+16], -1920627297 ; 8d858d9fH
  00700	8d 85 f0 fe ff
	ff		 lea	 eax, DWORD PTR __k$537545[ebp]
  00706	66 c7 85 04 ff
	ff ff 88 00	 mov	 WORD PTR __k$537545[ebp+20], 136 ; 00000088H
  0070f	59		 pop	 ecx
$LL1490@LoadProper:
  00710	31 38		 xor	 DWORD PTR [eax], edi
  00712	83 c0 04	 add	 eax, 4
  00715	49		 dec	 ecx
  00716	75 f8		 jne	 SHORT $LL1490@LoadProper
  00718	0f 57 c0	 xorps	 xmm0, xmm0
  0071b	80 b5 04 ff ff
	ff ed		 xor	 BYTE PTR __k$537545[ebp+20], -19 ; ffffffedH
  00722	51		 push	 ecx
  00723	8b 8d 1c fd ff
	ff		 mov	 ecx, DWORD PTR _rkLoader$GSCopy$[ebp]
  00729	8d 85 f0 fe ff
	ff		 lea	 eax, DWORD PTR __k$537545[ebp]
  0072f	f3 0f 11 04 24	 movss	 DWORD PTR [esp], xmm0
  00734	50		 push	 eax
  00735	ff 15 00 00 00
	00		 call	 DWORD PTR __imp_?LoadFloat@ioINILoader@@QAEMPBDM@Z
  0073b	d9 9d 08 fd ff
	ff		 fstp	 DWORD PTR _value$537658[ebp]
  00741	8d 85 08 fd ff
	ff		 lea	 eax, DWORD PTR _value$537658[ebp]
  00747	50		 push	 eax
  00748	8d 8e 88 10 00
	00		 lea	 ecx, DWORD PTR [esi+4232]
  0074e	e8 00 00 00 00	 call	 ?EncryptValueToPool@?$CEncrypt@M@@AAEXPBD@Z ; CEncrypt<float>::EncryptValueToPool
  00753	6a 04		 push	 4

; 99   : 
; 100  : 	m_fFTargetAngle		= rkLoader.LoadFloat_e( "far_target_angle", 0.0f );

  00755	c7 85 24 fe ff
	ff 8b 8d 99 b5	 mov	 DWORD PTR __k$537688[ebp], -1248227957 ; b5998d8bH
  0075f	c7 85 28 fe ff
	ff 99 8d 99 8d	 mov	 DWORD PTR __k$537688[ebp+4], -1919316583 ; 8d998d99H
  00769	c7 85 2c fe ff
	ff 88 98 b4 8b	 mov	 DWORD PTR __k$537688[ebp+8], -1951098744 ; 8bb49888H
  00773	c7 85 30 fe ff
	ff 83 8b 87 8f	 mov	 DWORD PTR __k$537688[ebp+12], -1886942333 ; 8f878b83H
  0077d	8d 85 24 fe ff
	ff		 lea	 eax, DWORD PTR __k$537688[ebp]
  00783	c6 85 34 fe ff
	ff 00		 mov	 BYTE PTR __k$537688[ebp+16], 0
  0078a	59		 pop	 ecx
$LL1598@LoadProper:
  0078b	31 38		 xor	 DWORD PTR [eax], edi
  0078d	83 c0 04	 add	 eax, 4
  00790	49		 dec	 ecx
  00791	75 f8		 jne	 SHORT $LL1598@LoadProper
  00793	0f 57 c0	 xorps	 xmm0, xmm0
  00796	51		 push	 ecx
  00797	8b 8d 1c fd ff
	ff		 mov	 ecx, DWORD PTR _rkLoader$GSCopy$[ebp]
  0079d	8d 85 24 fe ff
	ff		 lea	 eax, DWORD PTR __k$537688[ebp]
  007a3	f3 0f 11 04 24	 movss	 DWORD PTR [esp], xmm0
  007a8	50		 push	 eax
  007a9	ff 15 00 00 00
	00		 call	 DWORD PTR __imp_?LoadFloat@ioINILoader@@QAEMPBDM@Z
  007af	d9 9d 14 fd ff
	ff		 fstp	 DWORD PTR _value$537788[ebp]
  007b5	8d 85 14 fd ff
	ff		 lea	 eax, DWORD PTR _value$537788[ebp]
  007bb	50		 push	 eax
  007bc	8d 8e b8 10 00
	00		 lea	 ecx, DWORD PTR [esi+4280]
  007c2	e8 00 00 00 00	 call	 ?EncryptValueToPool@?$CEncrypt@M@@AAEXPBD@Z ; CEncrypt<float>::EncryptValueToPool
  007c7	6a 05		 push	 5

; 101  : 	m_fFTargetRange		= rkLoader.LoadFloat_e( "far_target_max_range", 0.0f );

  007c9	c7 85 58 fe ff
	ff 8b 8d 99 b5	 mov	 DWORD PTR __k$537818[ebp], -1248227957 ; b5998d8bH
  007d3	c7 85 5c fe ff
	ff 99 8d 99 8d	 mov	 DWORD PTR __k$537818[ebp+4], -1919316583 ; 8d998d99H
  007dd	c7 85 60 fe ff
	ff 88 98 b4 87	 mov	 DWORD PTR __k$537818[ebp+8], -2018207608 ; 87b49888H
  007e7	c7 85 64 fe ff
	ff 8c 94 b4 98	 mov	 DWORD PTR __k$537818[ebp+12], -1732995956 ; 98b4948cH
  007f1	c7 85 68 fe ff
	ff 8c 82 8c 8f	 mov	 DWORD PTR __k$537818[ebp+16], -1886616948 ; 8f8c828cH
  007fb	8d 85 58 fe ff
	ff		 lea	 eax, DWORD PTR __k$537818[ebp]
  00801	c6 85 6c fe ff
	ff 00		 mov	 BYTE PTR __k$537818[ebp+20], 0
  00808	59		 pop	 ecx
$LL1706@LoadProper:
  00809	31 38		 xor	 DWORD PTR [eax], edi
  0080b	83 c0 04	 add	 eax, 4
  0080e	49		 dec	 ecx
  0080f	75 f8		 jne	 SHORT $LL1706@LoadProper
  00811	0f 57 c0	 xorps	 xmm0, xmm0
  00814	51		 push	 ecx
  00815	8b 8d 1c fd ff
	ff		 mov	 ecx, DWORD PTR _rkLoader$GSCopy$[ebp]
  0081b	8d 85 58 fe ff
	ff		 lea	 eax, DWORD PTR __k$537818[ebp]
  00821	f3 0f 11 04 24	 movss	 DWORD PTR [esp], xmm0
  00826	50		 push	 eax
  00827	ff 15 00 00 00
	00		 call	 DWORD PTR __imp_?LoadFloat@ioINILoader@@QAEMPBDM@Z
  0082d	d9 9d 18 fd ff
	ff		 fstp	 DWORD PTR _value$537918[ebp]
  00833	8d 85 18 fd ff
	ff		 lea	 eax, DWORD PTR _value$537918[ebp]
  00839	50		 push	 eax
  0083a	8d 8e e8 10 00
	00		 lea	 ecx, DWORD PTR [esi+4328]
  00840	e8 00 00 00 00	 call	 ?EncryptValueToPool@?$CEncrypt@M@@AAEXPBD@Z ; CEncrypt<float>::EncryptValueToPool
  00845	6a 05		 push	 5

; 102  : 	m_fFTargetMinRange	= rkLoader.LoadFloat_e( "far_target_min_range", 0.0f );

  00847	c7 85 3c fe ff
	ff 8b 8d 99 b5	 mov	 DWORD PTR __k$537948[ebp], -1248227957 ; b5998d8bH
  00851	c7 85 40 fe ff
	ff 99 8d 99 8d	 mov	 DWORD PTR __k$537948[ebp+4], -1919316583 ; 8d998d99H
  0085b	c7 85 44 fe ff
	ff 88 98 b4 87	 mov	 DWORD PTR __k$537948[ebp+8], -2018207608 ; 87b49888H
  00865	c7 85 48 fe ff
	ff 84 82 b4 98	 mov	 DWORD PTR __k$537948[ebp+12], -1733000572 ; 98b48284H
  0086f	c7 85 4c fe ff
	ff 8c 82 8c 8f	 mov	 DWORD PTR __k$537948[ebp+16], -1886616948 ; 8f8c828cH
  00879	8d 85 3c fe ff
	ff		 lea	 eax, DWORD PTR __k$537948[ebp]
  0087f	c6 85 50 fe ff
	ff 00		 mov	 BYTE PTR __k$537948[ebp+20], 0
  00886	59		 pop	 ecx
$LL1814@LoadProper:
  00887	31 38		 xor	 DWORD PTR [eax], edi
  00889	83 c0 04	 add	 eax, 4
  0088c	49		 dec	 ecx
  0088d	75 f8		 jne	 SHORT $LL1814@LoadProper
  0088f	0f 57 c0	 xorps	 xmm0, xmm0
  00892	51		 push	 ecx
  00893	8b 8d 1c fd ff
	ff		 mov	 ecx, DWORD PTR _rkLoader$GSCopy$[ebp]
  00899	8d 85 3c fe ff
	ff		 lea	 eax, DWORD PTR __k$537948[ebp]
  0089f	f3 0f 11 04 24	 movss	 DWORD PTR [esp], xmm0
  008a4	50		 push	 eax
  008a5	ff 15 00 00 00
	00		 call	 DWORD PTR __imp_?LoadFloat@ioINILoader@@QAEMPBDM@Z
  008ab	51		 push	 ecx
  008ac	8d 8e 18 11 00
	00		 lea	 ecx, DWORD PTR [esi+4376]
  008b2	d9 1c 24	 fstp	 DWORD PTR [esp]
  008b5	e8 00 00 00 00	 call	 ??4?$CEncrypt@M@@QAEMM@Z ; CEncrypt<float>::operator=
  008ba	dd d8		 fstp	 ST(0)
  008bc	6a 03		 push	 3

; 103  : 
; 104  : 	m_dwSkillDuration = (DWORD)rkLoader.LoadInt_e( "skill_duration", 0 );

  008be	c7 85 0c ff ff
	ff 9e 87 82 86	 mov	 DWORD PTR __k$538142[ebp], -2038265954 ; 8682879eH
  008c8	c7 85 10 ff ff
	ff 81 b3 8f 9f	 mov	 DWORD PTR __k$538142[ebp+4], -1617972351 ; 9f8fb381H
  008d2	c7 85 14 ff ff
	ff 9f 8d 9f 83	 mov	 DWORD PTR __k$538142[ebp+8], -2086695521 ; 839f8d9fH
  008dc	66 c7 85 18 ff
	ff ff 82 82	 mov	 WORD PTR __k$538142[ebp+12], 33410 ; 00008282H
  008e5	8d 85 0c ff ff
	ff		 lea	 eax, DWORD PTR __k$538142[ebp]
  008eb	c6 85 1a ff ff
	ff 00		 mov	 BYTE PTR __k$538142[ebp+14], 0
  008f2	59		 pop	 ecx
$LL1920@LoadProper:
  008f3	31 38		 xor	 DWORD PTR [eax], edi
  008f5	83 c0 04	 add	 eax, 4
  008f8	49		 dec	 ecx
  008f9	75 f8		 jne	 SHORT $LL1920@LoadProper
  008fb	6a 0c		 push	 12			; 0000000cH
  008fd	58		 pop	 eax
$LL1917@LoadProper:
  008fe	8b c8		 mov	 ecx, eax
  00900	81 e1 03 00 00
	80		 and	 ecx, -2147483645	; 80000003H
  00906	79 05		 jns	 SHORT $LN2223@LoadProper
  00908	49		 dec	 ecx
  00909	83 c9 fc	 or	 ecx, -4			; fffffffcH
  0090c	41		 inc	 ecx
$LN2223@LoadProper:
  0090d	b2 ed		 mov	 dl, -19			; ffffffedH
  0090f	2a d1		 sub	 dl, cl
  00911	30 94 05 0c ff
	ff ff		 xor	 BYTE PTR __k$538142[ebp+eax], dl
  00918	40		 inc	 eax
  00919	83 f8 0e	 cmp	 eax, 14			; 0000000eH
  0091c	7c e0		 jl	 SHORT $LL1917@LoadProper
  0091e	8b 8d 1c fd ff
	ff		 mov	 ecx, DWORD PTR _rkLoader$GSCopy$[ebp]
  00924	6a 00		 push	 0
  00926	8d 85 0c ff ff
	ff		 lea	 eax, DWORD PTR __k$538142[ebp]
  0092c	50		 push	 eax
  0092d	ff d3		 call	 ebx
  0092f	89 86 ec 11 00
	00		 mov	 DWORD PTR [esi+4588], eax
  00935	6a 03		 push	 3

; 105  : 
; 106  : 	m_bEnableDownAim = rkLoader.LoadBool_e( "enable_down_aim", false );

  00937	c7 45 e8 88 82
	8a 88		 mov	 DWORD PTR __k$538185[ebp], -2004188536 ; 888a8288H
  0093e	c7 45 ec 81 89
	b4 8e		 mov	 DWORD PTR __k$538185[ebp+4], -1900770943 ; 8eb48981H
  00945	c7 45 f0 82 9b
	85 b5		 mov	 DWORD PTR __k$538185[ebp+8], -1249535102 ; b5859b82H
  0094c	8d 45 e8	 lea	 eax, DWORD PTR __k$538185[ebp]
  0094f	c7 45 f4 8c 85
	86 00		 mov	 DWORD PTR __k$538185[ebp+12], 8816012 ; 0086858cH
  00956	59		 pop	 ecx
$LL2026@LoadProper:
  00957	31 38		 xor	 DWORD PTR [eax], edi
  00959	83 c0 04	 add	 eax, 4
  0095c	49		 dec	 ecx
  0095d	75 f8		 jne	 SHORT $LL2026@LoadProper
  0095f	6a 0c		 push	 12			; 0000000cH
  00961	58		 pop	 eax
$LL2023@LoadProper:
  00962	8b c8		 mov	 ecx, eax
  00964	81 e1 03 00 00
	80		 and	 ecx, -2147483645	; 80000003H
  0096a	79 05		 jns	 SHORT $LN2224@LoadProper
  0096c	49		 dec	 ecx
  0096d	83 c9 fc	 or	 ecx, -4			; fffffffcH
  00970	41		 inc	 ecx
$LN2224@LoadProper:
  00971	b2 ed		 mov	 dl, -19			; ffffffedH
  00973	2a d1		 sub	 dl, cl
  00975	30 54 05 e8	 xor	 BYTE PTR __k$538185[ebp+eax], dl
  00979	40		 inc	 eax
  0097a	83 f8 0f	 cmp	 eax, 15			; 0000000fH
  0097d	7c e3		 jl	 SHORT $LL2023@LoadProper
  0097f	8b 8d 1c fd ff
	ff		 mov	 ecx, DWORD PTR _rkLoader$GSCopy$[ebp]
  00985	6a 00		 push	 0
  00987	8d 45 e8	 lea	 eax, DWORD PTR __k$538185[ebp]
  0098a	50		 push	 eax
  0098b	ff 15 00 00 00
	00		 call	 DWORD PTR __imp_?LoadBool@ioINILoader@@QAE_NPBD_N@Z
  00991	88 86 fc 11 00
	00		 mov	 BYTE PTR [esi+4604], al
  00997	6a 05		 push	 5

; 107  : 	m_fDownTargetAimRate = rkLoader.LoadFloat_e( "down_target_aim_rate", 0.0f );

  00999	c7 85 74 fe ff
	ff 89 83 9c 84	 mov	 DWORD PTR __k$538323[ebp], -2070117495 ; 849c8389H
  009a3	c7 85 78 fe ff
	ff b2 98 8a 98	 mov	 DWORD PTR __k$538323[ebp+4], -1735747406 ; 988a98b2H
  009ad	c7 85 7c fe ff
	ff 8a 89 9f b5	 mov	 DWORD PTR __k$538323[ebp+8], -1247835766 ; b59f898aH
  009b7	c7 85 80 fe ff
	ff 8c 85 86 b5	 mov	 DWORD PTR __k$538323[ebp+12], -1249475188 ; b586858cH
  009c1	c7 85 84 fe ff
	ff 9f 8d 9f 8f	 mov	 DWORD PTR __k$538323[ebp+16], -1885368929 ; 8f9f8d9fH
  009cb	8d 85 74 fe ff
	ff		 lea	 eax, DWORD PTR __k$538323[ebp]
  009d1	c6 85 88 fe ff
	ff 00		 mov	 BYTE PTR __k$538323[ebp+20], 0
  009d8	59		 pop	 ecx
$LL2132@LoadProper:
  009d9	31 38		 xor	 DWORD PTR [eax], edi
  009db	83 c0 04	 add	 eax, 4
  009de	49		 dec	 ecx
  009df	75 f8		 jne	 SHORT $LL2132@LoadProper
  009e1	0f 57 c0	 xorps	 xmm0, xmm0
  009e4	51		 push	 ecx
  009e5	8b 8d 1c fd ff
	ff		 mov	 ecx, DWORD PTR _rkLoader$GSCopy$[ebp]
  009eb	8d 85 74 fe ff
	ff		 lea	 eax, DWORD PTR __k$538323[ebp]
  009f1	f3 0f 11 04 24	 movss	 DWORD PTR [esp], xmm0
  009f6	50		 push	 eax
  009f7	ff 15 00 00 00
	00		 call	 DWORD PTR __imp_?LoadFloat@ioINILoader@@QAEMPBDM@Z
  009fd	d9 9e 00 12 00
	00		 fstp	 DWORD PTR [esi+4608]

; 108  : }

  00a03	8b 4d fc	 mov	 ecx, DWORD PTR __$ArrayPad$[ebp]
  00a06	5f		 pop	 edi
  00a07	5e		 pop	 esi
  00a08	33 cd		 xor	 ecx, ebp
  00a0a	5b		 pop	 ebx
  00a0b	e8 00 00 00 00	 call	 @__security_check_cookie@4
  00a10	c9		 leave
  00a11	c2 04 00	 ret	 4
?LoadProperty@ioRangeTargetShotSkill@@UAEXAAVioINILoader@@@Z ENDP ; ioRangeTargetShotSkill::LoadProperty
_TEXT	ENDS
PUBLIC	?OnSkillStart@ioRangeTargetShotSkill@@UAE_NPAVioBaseChar@@@Z ; ioRangeTargetShotSkill::OnSkillStart
EXTRN	?GetPlayStage@ioSkillMaker@@QAEPAVioPlayStage@@XZ:PROC ; ioSkillMaker::GetPlayStage
EXTRN	?GetSingleton@ioSkillMaker@@SAAAV1@XZ:PROC	; ioSkillMaker::GetSingleton
EXTRN	?ReduceNeedGaugeBySkill@ioBaseChar@@QAEMPAVioSkill@@M@Z:PROC ; ioBaseChar::ReduceNeedGaugeBySkill
EXTRN	?GetNeedGauge@ioSkill@@QAEMABVioHashString@@@Z:PROC ; ioSkill::GetNeedGauge
EXTRN	?SetCameraBuff@ioSkill@@IAEXPAVioBaseChar@@@Z:PROC ; ioSkill::SetCameraBuff
EXTRN	?IncreaseWeaponIndexBase@ioBaseChar@@QAEKXZ:PROC ; ioBaseChar::IncreaseWeaponIndexBase
EXTRN	?ChangeSkillWeaponMesh@ioBaseChar@@QAE_NPAVioSkill@@ABVioHashString@@_N@Z:PROC ; ioBaseChar::ChangeSkillWeaponMesh
EXTRN	__imp_?IsEmpty@ioHashString@@QBE_NXZ:PROC
EXTRN	?ShowWeaponItemMesh@ioBaseChar@@QAEX_N0@Z:PROC	; ioBaseChar::ShowWeaponItemMesh
EXTRN	?AttachEffect@ioBaseChar@@QAEPAVioEffect@@ABVioHashString@@PAVioEntityEvent@@_N@Z:PROC ; ioBaseChar::AttachEffect
EXTRN	?OnSkillStart@ioNormalSkill@@UAE_NPAVioBaseChar@@@Z:PROC ; ioNormalSkill::OnSkillStart
; Function compile flags: /Ogsp
;	COMDAT ?OnSkillStart@ioRangeTargetShotSkill@@UAE_NPAVioBaseChar@@@Z
_TEXT	SEGMENT
_value$538516 = 8					; size = 4
_pChar$ = 8						; size = 4
?OnSkillStart@ioRangeTargetShotSkill@@UAE_NPAVioBaseChar@@@Z PROC ; ioRangeTargetShotSkill::OnSkillStart, COMDAT
; _this$ = ecx

; 116  : {

  00000	55		 push	 ebp
  00001	8b ec		 mov	 ebp, esp
  00003	56		 push	 esi
  00004	57		 push	 edi

; 117  : 	if( !pChar )

  00005	8b 7d 08	 mov	 edi, DWORD PTR _pChar$[ebp]
  00008	8b f1		 mov	 esi, ecx
  0000a	85 ff		 test	 edi, edi
  0000c	75 07		 jne	 SHORT $LN5@OnSkillSta

; 118  : 		return false;

  0000e	32 c0		 xor	 al, al
  00010	e9 02 01 00 00	 jmp	 $LN6@OnSkillSta
$LN5@OnSkillSta:
  00015	53		 push	 ebx

; 119  : 
; 120  : 	ioNormalSkill::OnSkillStart( pChar );

  00016	57		 push	 edi
  00017	e8 00 00 00 00	 call	 ?OnSkillStart@ioNormalSkill@@UAE_NPAVioBaseChar@@@Z ; ioNormalSkill::OnSkillStart

; 121  : 
; 122  : 	ClearData();

  0001c	8b ce		 mov	 ecx, esi
  0001e	e8 00 00 00 00	 call	 ?ClearData@ioRangeTargetShotSkill@@IAEXXZ ; ioRangeTargetShotSkill::ClearData

; 123  : 
; 124  : 	pChar->AttachEffect( m_SkillEffectName );

  00023	6a 01		 push	 1
  00025	6a 00		 push	 0
  00027	8d 86 b8 01 00
	00		 lea	 eax, DWORD PTR [esi+440]
  0002d	50		 push	 eax
  0002e	8b cf		 mov	 ecx, edi
  00030	e8 00 00 00 00	 call	 ?AttachEffect@ioBaseChar@@QAEPAVioEffect@@ABVioHashString@@PAVioEntityEvent@@_N@Z ; ioBaseChar::AttachEffect

; 125  : 	m_dwSkillStartTime = FRAMEGETTIME();

  00035	ff 15 00 00 00
	00		 call	 DWORD PTR __imp_?GetSingleton@ioFrameTimer@@SAAAV1@XZ
  0003b	8b c8		 mov	 ecx, eax
  0003d	ff 15 00 00 00
	00		 call	 DWORD PTR __imp_?GetLoopSec@ioFrameTimer@@QBEKXZ
  00043	89 45 08	 mov	 DWORD PTR _value$538516[ebp], eax
  00046	8d 45 08	 lea	 eax, DWORD PTR _value$538516[ebp]
  00049	50		 push	 eax
  0004a	8d 8e 94 0e 00
	00		 lea	 ecx, DWORD PTR [esi+3732]
  00050	e8 00 00 00 00	 call	 ?EncryptValueToPool@?$CEncrypt@K@@AAEXPBD@Z ; CEncrypt<unsigned long>::EncryptValueToPool

; 126  : 
; 127  : 	if( m_bUseItemMesh )

  00055	80 be 08 0f 00
	00 00		 cmp	 BYTE PTR [esi+3848], 0
  0005c	74 0b		 je	 SHORT $LN4@OnSkillSta

; 128  : 	{
; 129  : 		pChar->ShowWeaponItemMesh( false );

  0005e	6a 00		 push	 0
  00060	6a 00		 push	 0
  00062	8b cf		 mov	 ecx, edi
  00064	e8 00 00 00 00	 call	 ?ShowWeaponItemMesh@ioBaseChar@@QAEX_N0@Z ; ioBaseChar::ShowWeaponItemMesh
$LN4@OnSkillSta:

; 130  : 	}
; 131  : 
; 132  : 	if( !m_bSetHandMesh && m_bUseItemMesh && !m_HandMesh.IsEmpty() )

  00069	80 be 0a 0f 00
	00 00		 cmp	 BYTE PTR [esi+3850], 0
  00070	75 33		 jne	 SHORT $LN3@OnSkillSta
  00072	80 be 08 0f 00
	00 00		 cmp	 BYTE PTR [esi+3848], 0
  00079	74 2a		 je	 SHORT $LN3@OnSkillSta
  0007b	8d 9e f8 0e 00
	00		 lea	 ebx, DWORD PTR [esi+3832]
  00081	8b cb		 mov	 ecx, ebx
  00083	ff 15 00 00 00
	00		 call	 DWORD PTR __imp_?IsEmpty@ioHashString@@QBE_NXZ
  00089	84 c0		 test	 al, al
  0008b	75 18		 jne	 SHORT $LN3@OnSkillSta

; 133  : 	{
; 134  : 		pChar->ChangeSkillWeaponMesh( this, m_HandMesh, m_bVisibleEquipMesh );

  0008d	0f b6 86 09 0f
	00 00		 movzx	 eax, BYTE PTR [esi+3849]
  00094	50		 push	 eax
  00095	53		 push	 ebx
  00096	56		 push	 esi
  00097	8b cf		 mov	 ecx, edi
  00099	e8 00 00 00 00	 call	 ?ChangeSkillWeaponMesh@ioBaseChar@@QAE_NPAVioSkill@@ABVioHashString@@_N@Z ; ioBaseChar::ChangeSkillWeaponMesh

; 135  : 		m_bSetHandMesh = true;

  0009e	c6 86 0a 0f 00
	00 01		 mov	 BYTE PTR [esi+3850], 1
$LN3@OnSkillSta:

; 136  : 	}
; 137  : 	
; 138  : 	m_dwWeaponBaseIndex = pChar->IncreaseWeaponIndexBase();

  000a5	8b cf		 mov	 ecx, edi
  000a7	e8 00 00 00 00	 call	 ?IncreaseWeaponIndexBase@ioBaseChar@@QAEKXZ ; ioBaseChar::IncreaseWeaponIndexBase

; 139  : 	
; 140  : 	pChar->SetSkillMoveEnable( false, false );

  000ac	6a 00		 push	 0
  000ae	6a 00		 push	 0
  000b0	8b cf		 mov	 ecx, edi
  000b2	89 46 78	 mov	 DWORD PTR [esi+120], eax
  000b5	e8 00 00 00 00	 call	 ?SetSkillMoveEnable@ioBaseChar@@QAEX_N0@Z ; ioBaseChar::SetSkillMoveEnable

; 141  : 
; 142  : 	SetCameraBuff( pChar );

  000ba	57		 push	 edi
  000bb	8b ce		 mov	 ecx, esi
  000bd	e8 00 00 00 00	 call	 ?SetCameraBuff@ioSkill@@IAEXPAVioBaseChar@@@Z ; ioSkill::SetCameraBuff

; 143  : 	
; 144  : 	if( !m_bReduceGauge )

  000c2	80 be 50 03 00
	00 00		 cmp	 BYTE PTR [esi+848], 0
  000c9	75 23		 jne	 SHORT $LN2@OnSkillSta

; 145  : 	{
; 146  : 		float fCurGauge = pChar->ReduceNeedGaugeBySkill( this, GetNeedGauge(pChar->GetCharName()) );

  000cb	8d 87 d4 02 00
	00		 lea	 eax, DWORD PTR [edi+724]
  000d1	50		 push	 eax
  000d2	8b ce		 mov	 ecx, esi
  000d4	e8 00 00 00 00	 call	 ?GetNeedGauge@ioSkill@@QAEMABVioHashString@@@Z ; ioSkill::GetNeedGauge
  000d9	51		 push	 ecx
  000da	d9 1c 24	 fstp	 DWORD PTR [esp]
  000dd	56		 push	 esi
  000de	8b cf		 mov	 ecx, edi
  000e0	e8 00 00 00 00	 call	 ?ReduceNeedGaugeBySkill@ioBaseChar@@QAEMPAVioSkill@@M@Z ; ioBaseChar::ReduceNeedGaugeBySkill
  000e5	dd d8		 fstp	 ST(0)

; 147  : 		m_bReduceGauge = true;

  000e7	c6 86 50 03 00
	00 01		 mov	 BYTE PTR [esi+848], 1
$LN2@OnSkillSta:

; 148  : 	}
; 149  : 
; 150  : 	ioPlayStage* pStage = g_SkillMaker.GetPlayStage();

  000ee	e8 00 00 00 00	 call	 ?GetSingleton@ioSkillMaker@@SAAAV1@XZ ; ioSkillMaker::GetSingleton
  000f3	8b c8		 mov	 ecx, eax
  000f5	e8 00 00 00 00	 call	 ?GetPlayStage@ioSkillMaker@@QAEPAVioPlayStage@@XZ ; ioSkillMaker::GetPlayStage
  000fa	8b d8		 mov	 ebx, eax

; 151  : 	if( !StartPreDelayAnimation( pChar ) )	// Delay Animation 

  000fc	8b 06		 mov	 eax, DWORD PTR [esi]
  000fe	57		 push	 edi
  000ff	8b ce		 mov	 ecx, esi
  00101	ff 90 88 01 00
	00		 call	 DWORD PTR [eax+392]
  00107	84 c0		 test	 al, al
  00109	75 09		 jne	 SHORT $LN1@OnSkillSta

; 152  : 	{	
; 153  : 		SetLoopState( pChar, pStage );

  0010b	53		 push	 ebx
  0010c	57		 push	 edi
  0010d	8b ce		 mov	 ecx, esi
  0010f	e8 00 00 00 00	 call	 ?SetLoopState@ioRangeTargetShotSkill@@IAEXPAVioBaseChar@@PAVioPlayStage@@@Z ; ioRangeTargetShotSkill::SetLoopState
$LN1@OnSkillSta:

; 154  : 	}	
; 155  : 
; 156  : 	return true;

  00114	b0 01		 mov	 al, 1
  00116	5b		 pop	 ebx
$LN6@OnSkillSta:
  00117	5f		 pop	 edi
  00118	5e		 pop	 esi

; 157  : }

  00119	5d		 pop	 ebp
  0011a	c2 04 00	 ret	 4
?OnSkillStart@ioRangeTargetShotSkill@@UAE_NPAVioBaseChar@@@Z ENDP ; ioRangeTargetShotSkill::OnSkillStart
_TEXT	ENDS
PUBLIC	?OnSkillEnd@ioRangeTargetShotSkill@@UAEXPAVioBaseChar@@@Z ; ioRangeTargetShotSkill::OnSkillEnd
EXTRN	__imp_?StopSound@ioSoundManager@@QAEXABVioHashString@@K@Z:PROC
EXTRN	__imp_?GetSingleton@ioSoundManager@@SAAAV1@XZ:PROC
EXTRN	?EndCameraBuff@ioSkill@@IAEXPAVioBaseChar@@@Z:PROC ; ioSkill::EndCameraBuff
EXTRN	?RestoreSkillWeaponMesh@ioBaseChar@@QAE_NPAVioSkill@@ABVioHashString@@_N2@Z:PROC ; ioBaseChar::RestoreSkillWeaponMesh
EXTRN	?OnSkillEnd@ioNormalSkill@@UAEXPAVioBaseChar@@@Z:PROC ; ioNormalSkill::OnSkillEnd
; Function compile flags: /Ogsp
;	COMDAT ?OnSkillEnd@ioRangeTargetShotSkill@@UAEXPAVioBaseChar@@@Z
_TEXT	SEGMENT
_pChar$ = 8						; size = 4
?OnSkillEnd@ioRangeTargetShotSkill@@UAEXPAVioBaseChar@@@Z PROC ; ioRangeTargetShotSkill::OnSkillEnd, COMDAT
; _this$ = ecx

; 160  : {

  00000	55		 push	 ebp
  00001	8b ec		 mov	 ebp, esp
  00003	53		 push	 ebx

; 161  : 	ioNormalSkill::OnSkillEnd( pChar );

  00004	8b 5d 08	 mov	 ebx, DWORD PTR _pChar$[ebp]
  00007	56		 push	 esi
  00008	57		 push	 edi
  00009	53		 push	 ebx
  0000a	8b f1		 mov	 esi, ecx
  0000c	e8 00 00 00 00	 call	 ?OnSkillEnd@ioNormalSkill@@UAEXPAVioBaseChar@@@Z ; ioNormalSkill::OnSkillEnd

; 162  : 	//  
; 163  : 	if( m_bUseItemMesh )

  00011	80 be 08 0f 00
	00 00		 cmp	 BYTE PTR [esi+3848], 0
  00018	74 0b		 je	 SHORT $LN6@OnSkillEnd

; 164  : 	{
; 165  : 		pChar->ShowWeaponItemMesh( true );

  0001a	6a 00		 push	 0
  0001c	6a 01		 push	 1
  0001e	8b cb		 mov	 ecx, ebx
  00020	e8 00 00 00 00	 call	 ?ShowWeaponItemMesh@ioBaseChar@@QAEX_N0@Z ; ioBaseChar::ShowWeaponItemMesh
$LN6@OnSkillEnd:

; 166  : 	}
; 167  : 
; 168  : 	//      
; 169  : 	if( !m_HandMesh.IsEmpty() )

  00025	8d be f8 0e 00
	00		 lea	 edi, DWORD PTR [esi+3832]
  0002b	8b cf		 mov	 ecx, edi
  0002d	ff 15 00 00 00
	00		 call	 DWORD PTR __imp_?IsEmpty@ioHashString@@QBE_NXZ
  00033	84 c0		 test	 al, al
  00035	75 13		 jne	 SHORT $LN2@OnSkillEnd

; 170  : 		pChar->RestoreSkillWeaponMesh( this, m_HandMesh, m_bVisibleEquipMesh );

  00037	0f b6 86 09 0f
	00 00		 movzx	 eax, BYTE PTR [esi+3849]
  0003e	6a 00		 push	 0
  00040	50		 push	 eax
  00041	57		 push	 edi
  00042	56		 push	 esi
  00043	8b cb		 mov	 ecx, ebx
  00045	e8 00 00 00 00	 call	 ?RestoreSkillWeaponMesh@ioBaseChar@@QAE_NPAVioSkill@@ABVioHashString@@_N2@Z ; ioBaseChar::RestoreSkillWeaponMesh
$LN2@OnSkillEnd:

; 171  : 
; 172  : 	EndCameraBuff( pChar );

  0004a	53		 push	 ebx
  0004b	8b ce		 mov	 ecx, esi
  0004d	e8 00 00 00 00	 call	 ?EndCameraBuff@ioSkill@@IAEXPAVioBaseChar@@@Z ; ioSkill::EndCameraBuff

; 173  : 
; 174  : 	pChar->SetSkillMoveEnable( false, false );

  00052	6a 00		 push	 0
  00054	6a 00		 push	 0
  00056	8b cb		 mov	 ecx, ebx
  00058	e8 00 00 00 00	 call	 ?SetSkillMoveEnable@ioBaseChar@@QAEX_N0@Z ; ioBaseChar::SetSkillMoveEnable

; 175  : 
; 176  : 	if( !m_SkillSoundName.IsEmpty() )

  0005d	8d be f8 01 00
	00		 lea	 edi, DWORD PTR [esi+504]
  00063	8b cf		 mov	 ecx, edi
  00065	ff 15 00 00 00
	00		 call	 DWORD PTR __imp_?IsEmpty@ioHashString@@QBE_NXZ
  0006b	84 c0		 test	 al, al
  0006d	75 15		 jne	 SHORT $LN1@OnSkillEnd

; 177  : 	{
; 178  : 		g_SoundMgr.StopSound( m_SkillSoundName, m_SkillSoundID );		

  0006f	ff b6 08 02 00
	00		 push	 DWORD PTR [esi+520]
  00075	57		 push	 edi
  00076	ff 15 00 00 00
	00		 call	 DWORD PTR __imp_?GetSingleton@ioSoundManager@@SAAAV1@XZ
  0007c	8b c8		 mov	 ecx, eax
  0007e	ff 15 00 00 00
	00		 call	 DWORD PTR __imp_?StopSound@ioSoundManager@@QAEXABVioHashString@@K@Z
$LN1@OnSkillEnd:

; 179  : 	}
; 180  : 
; 181  : 	DestroyAimMarker( pChar );

  00084	53		 push	 ebx
  00085	8b ce		 mov	 ecx, esi
  00087	e8 00 00 00 00	 call	 ?DestroyAimMarker@ioRangeTargetShotSkill@@IAEXPAVioBaseChar@@@Z ; ioRangeTargetShotSkill::DestroyAimMarker

; 182  : 	ClearData();

  0008c	8b ce		 mov	 ecx, esi
  0008e	e8 00 00 00 00	 call	 ?ClearData@ioRangeTargetShotSkill@@IAEXXZ ; ioRangeTargetShotSkill::ClearData
  00093	5f		 pop	 edi
  00094	5e		 pop	 esi
  00095	5b		 pop	 ebx

; 183  : }

  00096	5d		 pop	 ebp
  00097	c2 04 00	 ret	 4
?OnSkillEnd@ioRangeTargetShotSkill@@UAEXPAVioBaseChar@@@Z ENDP ; ioRangeTargetShotSkill::OnSkillEnd
_TEXT	ENDS
PUBLIC	__$ArrayPad$
PUBLIC	?ApplyAttributeToWeapon@ioRangeTargetShotSkill@@UAEXPAVioWeapon@@PAVioPlayStage@@@Z ; ioRangeTargetShotSkill::ApplyAttributeToWeapon
EXTRN	?GetOwner@ioWeapon@@QBEPAVioBaseChar@@XZ:PROC	; ioWeapon::GetOwner
EXTRN	?ApplyAttributeToWeapon@ioSkill@@UAEXPAVioWeapon@@PAVioPlayStage@@@Z:PROC ; ioSkill::ApplyAttributeToWeapon
; Function compile flags: /Ogsp
;	COMDAT ?ApplyAttributeToWeapon@ioRangeTargetShotSkill@@UAEXPAVioWeapon@@PAVioPlayStage@@@Z
_TEXT	SEGMENT
_vAimedDir$ = -16					; size = 12
__$ArrayPad$ = -4					; size = 4
_pWeapon$ = 8						; size = 4
_pStage$ = 12						; size = 4
?ApplyAttributeToWeapon@ioRangeTargetShotSkill@@UAEXPAVioWeapon@@PAVioPlayStage@@@Z PROC ; ioRangeTargetShotSkill::ApplyAttributeToWeapon, COMDAT
; _this$ = ecx

; 618  : {	

  00000	55		 push	 ebp
  00001	8b ec		 mov	 ebp, esp
  00003	83 ec 10	 sub	 esp, 16			; 00000010H
  00006	a1 00 00 00 00	 mov	 eax, DWORD PTR ___security_cookie
  0000b	33 c5		 xor	 eax, ebp
  0000d	89 45 fc	 mov	 DWORD PTR __$ArrayPad$[ebp], eax
  00010	8b 45 0c	 mov	 eax, DWORD PTR _pStage$[ebp]
  00013	56		 push	 esi
  00014	8b 75 08	 mov	 esi, DWORD PTR _pWeapon$[ebp]
  00017	57		 push	 edi

; 619  : 	ioSkill::ApplyAttributeToWeapon( pWeapon, pStage );

  00018	50		 push	 eax
  00019	56		 push	 esi
  0001a	8b f9		 mov	 edi, ecx
  0001c	e8 00 00 00 00	 call	 ?ApplyAttributeToWeapon@ioSkill@@UAEXPAVioWeapon@@PAVioPlayStage@@@Z ; ioSkill::ApplyAttributeToWeapon

; 620  : 	
; 621  : 	D3DXVECTOR3 vAimedDir = ReCalcMoveDir( pWeapon->GetOwner(), pWeapon );

  00021	56		 push	 esi
  00022	8b ce		 mov	 ecx, esi
  00024	e8 00 00 00 00	 call	 ?GetOwner@ioWeapon@@QBEPAVioBaseChar@@XZ ; ioWeapon::GetOwner
  00029	50		 push	 eax
  0002a	8d 45 f0	 lea	 eax, DWORD PTR _vAimedDir$[ebp]
  0002d	50		 push	 eax
  0002e	8b cf		 mov	 ecx, edi
  00030	e8 00 00 00 00	 call	 ?ReCalcMoveDir@ioRangeTargetShotSkill@@IAE?AUD3DXVECTOR3@@PAVioBaseChar@@PAVioWeapon@@@Z ; ioRangeTargetShotSkill::ReCalcMoveDir

; 622  : 	pWeapon->SetMoveDir( vAimedDir );

  00035	8b 06		 mov	 eax, DWORD PTR [esi]
  00037	8d 4d f0	 lea	 ecx, DWORD PTR _vAimedDir$[ebp]
  0003a	51		 push	 ecx
  0003b	8b ce		 mov	 ecx, esi
  0003d	ff 90 b0 00 00
	00		 call	 DWORD PTR [eax+176]

; 623  : }

  00043	8b 4d fc	 mov	 ecx, DWORD PTR __$ArrayPad$[ebp]
  00046	5f		 pop	 edi
  00047	33 cd		 xor	 ecx, ebp
  00049	5e		 pop	 esi
  0004a	e8 00 00 00 00	 call	 @__security_check_cookie@4
  0004f	c9		 leave
  00050	c2 08 00	 ret	 8
?ApplyAttributeToWeapon@ioRangeTargetShotSkill@@UAEXPAVioWeapon@@PAVioPlayStage@@@Z ENDP ; ioRangeTargetShotSkill::ApplyAttributeToWeapon
_TEXT	ENDS
PUBLIC	__$ArrayPad$
PUBLIC	?GetAimedUpDownWeight@ioRangeTargetShotSkill@@IAEMABUD3DXVECTOR3@@M@Z ; ioRangeTargetShotSkill::GetAimedUpDownWeight
; Function compile flags: /Ogsp
;	COMDAT ?GetAimedUpDownWeight@ioRangeTargetShotSkill@@IAEMABUD3DXVECTOR3@@M@Z
_TEXT	SEGMENT
tv309 = -28						; size = 4
tv300 = -28						; size = 4
tv295 = -28						; size = 4
tv247 = -28						; size = 4
tv324 = -24						; size = 4
tv314 = -24						; size = 4
tv236 = -24						; size = 4
tv152 = -24						; size = 4
tv131 = -24						; size = 4
_fAngle$ = -20						; size = 4
_vXZDir$ = -16						; size = 12
__$ArrayPad$ = -4					; size = 4
_vAimDir$ = 8						; size = 4
_fMaxAngle$ = 12					; size = 4
?GetAimedUpDownWeight@ioRangeTargetShotSkill@@IAEMABUD3DXVECTOR3@@M@Z PROC ; ioRangeTargetShotSkill::GetAimedUpDownWeight, COMDAT
; _this$ = ecx

; 776  : {

  00000	55		 push	 ebp
  00001	8b ec		 mov	 ebp, esp
  00003	83 ec 1c	 sub	 esp, 28			; 0000001cH
  00006	a1 00 00 00 00	 mov	 eax, DWORD PTR ___security_cookie
  0000b	33 c5		 xor	 eax, ebp
  0000d	89 45 fc	 mov	 DWORD PTR __$ArrayPad$[ebp], eax
  00010	56		 push	 esi
  00011	8b 75 08	 mov	 esi, DWORD PTR _vAimDir$[ebp]

; 777  : 	D3DXVECTOR3 vXZDir( vAimDir.x, 0.0f, vAimDir.z );

  00014	f3 0f 10 06	 movss	 xmm0, DWORD PTR [esi]

; 778  : 	D3DXVec3Normalize( &vXZDir, &vXZDir );

  00018	8d 45 f0	 lea	 eax, DWORD PTR _vXZDir$[ebp]
  0001b	f3 0f 11 45 f0	 movss	 DWORD PTR _vXZDir$[ebp], xmm0
  00020	0f 57 c0	 xorps	 xmm0, xmm0
  00023	50		 push	 eax
  00024	f3 0f 11 45 f4	 movss	 DWORD PTR _vXZDir$[ebp+4], xmm0
  00029	f3 0f 10 46 08	 movss	 xmm0, DWORD PTR [esi+8]
  0002e	50		 push	 eax
  0002f	f3 0f 11 45 f8	 movss	 DWORD PTR _vXZDir$[ebp+8], xmm0
  00034	e8 00 00 00 00	 call	 _D3DXVec3Normalize@8

; 779  : 
; 780  : 	float fAngle = D3DXVec3Dot( &vXZDir, &vAimDir );

  00039	f3 0f 10 46 04	 movss	 xmm0, DWORD PTR [esi+4]
  0003e	f3 0f 10 4d f4	 movss	 xmm1, DWORD PTR _vXZDir$[ebp+4]
  00043	f3 0f 10 55 f0	 movss	 xmm2, DWORD PTR _vXZDir$[ebp]
  00048	0f 5a c9	 cvtps2pd xmm1, xmm1
  0004b	0f 5a c0	 cvtps2pd xmm0, xmm0
  0004e	f2 0f 59 c1	 mulsd	 xmm0, xmm1
  00052	f3 0f 10 0e	 movss	 xmm1, DWORD PTR [esi]
  00056	0f 5a c9	 cvtps2pd xmm1, xmm1
  00059	0f 5a d2	 cvtps2pd xmm2, xmm2
  0005c	f2 0f 59 ca	 mulsd	 xmm1, xmm2
  00060	f3 0f 10 55 f8	 movss	 xmm2, DWORD PTR _vXZDir$[ebp+8]
  00065	f2 0f 58 c1	 addsd	 xmm0, xmm1
  00069	f3 0f 10 4e 08	 movss	 xmm1, DWORD PTR [esi+8]
  0006e	0f 5a c9	 cvtps2pd xmm1, xmm1
  00071	0f 5a d2	 cvtps2pd xmm2, xmm2
  00074	f2 0f 59 ca	 mulsd	 xmm1, xmm2
  00078	f2 0f 58 c1	 addsd	 xmm0, xmm1
  0007c	66 0f 5a c0	 cvtpd2ps xmm0, xmm0
  00080	f3 0f 11 45 ec	 movss	 DWORD PTR _fAngle$[ebp], xmm0

; 781  : 	fAngle = max( -FLOAT1, min( fAngle, FLOAT1 ) );

  00085	b8 01 00 00 00	 mov	 eax, 1
  0008a	d9 45 ec	 fld	 DWORD PTR _fAngle$[ebp]
  0008d	89 45 e8	 mov	 DWORD PTR tv324[ebp], eax
  00090	db 45 e8	 fild	 DWORD PTR tv324[ebp]
  00093	85 c0		 test	 eax, eax
  00095	79 06		 jns	 SHORT $LN33@GetAimedUp
  00097	d8 05 00 00 00
	00		 fadd	 DWORD PTR __real@4f800000
$LN33@GetAimedUp:
  0009d	df f1		 fcomip	 ST(1)
  0009f	dd d8		 fstp	 ST(0)
  000a1	5e		 pop	 esi
  000a2	76 07		 jbe	 SHORT $LN3@GetAimedUp
  000a4	f3 0f 11 45 e8	 movss	 DWORD PTR tv131[ebp], xmm0
  000a9	eb 18		 jmp	 SHORT $LN4@GetAimedUp
$LN3@GetAimedUp:
  000ab	b8 01 00 00 00	 mov	 eax, 1
  000b0	89 45 e8	 mov	 DWORD PTR tv314[ebp], eax
  000b3	db 45 e8	 fild	 DWORD PTR tv314[ebp]
  000b6	85 c0		 test	 eax, eax
  000b8	79 06		 jns	 SHORT $LN34@GetAimedUp
  000ba	d8 05 00 00 00
	00		 fadd	 DWORD PTR __real@4f800000
$LN34@GetAimedUp:
  000c0	d9 5d e8	 fstp	 DWORD PTR tv131[ebp]
$LN4@GetAimedUp:
  000c3	b8 01 00 00 00	 mov	 eax, 1
  000c8	89 45 e4	 mov	 DWORD PTR tv309[ebp], eax
  000cb	db 45 e4	 fild	 DWORD PTR tv309[ebp]
  000ce	85 c0		 test	 eax, eax
  000d0	79 06		 jns	 SHORT $LN35@GetAimedUp
  000d2	d8 05 00 00 00
	00		 fadd	 DWORD PTR __real@4f800000
$LN35@GetAimedUp:
  000d8	d9 e0		 fchs
  000da	d9 45 e8	 fld	 DWORD PTR tv131[ebp]
  000dd	d9 c9		 fxch	 ST(1)
  000df	df f1		 fcomip	 ST(1)
  000e1	dd d8		 fstp	 ST(0)
  000e3	76 19		 jbe	 SHORT $LN7@GetAimedUp
  000e5	b8 01 00 00 00	 mov	 eax, 1
  000ea	89 45 e4	 mov	 DWORD PTR tv300[ebp], eax
  000ed	db 45 e4	 fild	 DWORD PTR tv300[ebp]
  000f0	85 c0		 test	 eax, eax
  000f2	79 06		 jns	 SHORT $LN36@GetAimedUp
  000f4	d8 05 00 00 00
	00		 fadd	 DWORD PTR __real@4f800000
$LN36@GetAimedUp:
  000fa	d9 e0		 fchs
  000fc	eb 33		 jmp	 SHORT $LN38@GetAimedUp
$LN7@GetAimedUp:
  000fe	b8 01 00 00 00	 mov	 eax, 1
  00103	d9 45 ec	 fld	 DWORD PTR _fAngle$[ebp]
  00106	89 45 e4	 mov	 DWORD PTR tv295[ebp], eax
  00109	db 45 e4	 fild	 DWORD PTR tv295[ebp]
  0010c	85 c0		 test	 eax, eax
  0010e	79 06		 jns	 SHORT $LN37@GetAimedUp
  00110	d8 05 00 00 00
	00		 fadd	 DWORD PTR __real@4f800000
$LN37@GetAimedUp:
  00116	df f1		 fcomip	 ST(1)
  00118	dd d8		 fstp	 ST(0)
  0011a	77 18		 ja	 SHORT $LN6@GetAimedUp
  0011c	b8 01 00 00 00	 mov	 eax, 1
  00121	89 45 e4	 mov	 DWORD PTR tv247[ebp], eax
  00124	db 45 e4	 fild	 DWORD PTR tv247[ebp]
  00127	85 c0		 test	 eax, eax
  00129	79 06		 jns	 SHORT $LN38@GetAimedUp
  0012b	d8 05 00 00 00
	00		 fadd	 DWORD PTR __real@4f800000
$LN38@GetAimedUp:
  00131	d9 5d ec	 fstp	 DWORD PTR _fAngle$[ebp]
$LN6@GetAimedUp:

; 782  : 	fAngle = acosf( fAngle );
; 783  : 	fAngle = RADtoDEG( fAngle );

  00134	d9 45 ec	 fld	 DWORD PTR _fAngle$[ebp]
  00137	e8 00 00 00 00	 call	 __CIacos
  0013c	d9 5d e8	 fstp	 DWORD PTR tv152[ebp]
  0013f	d9 45 e8	 fld	 DWORD PTR tv152[ebp]
  00142	51		 push	 ecx
  00143	d9 1c 24	 fstp	 DWORD PTR [esp]
  00146	e8 00 00 00 00	 call	 ??$RADtoDEG@M@@YAMM@Z	; RADtoDEG<float>

; 784  : 	fAngle = max( 0.0f, min( fAngle, fMaxAngle ) );

  0014b	f3 0f 10 4d 0c	 movss	 xmm1, DWORD PTR _fMaxAngle$[ebp]
  00150	d9 5d ec	 fstp	 DWORD PTR _fAngle$[ebp]
  00153	d9 45 ec	 fld	 DWORD PTR _fAngle$[ebp]
  00156	59		 pop	 ecx
  00157	d9 45 0c	 fld	 DWORD PTR _fMaxAngle$[ebp]
  0015a	df f1		 fcomip	 ST(1)
  0015c	dd d8		 fstp	 ST(0)
  0015e	76 07		 jbe	 SHORT $LN9@GetAimedUp
  00160	f3 0f 10 45 ec	 movss	 xmm0, DWORD PTR _fAngle$[ebp]
  00165	eb 03		 jmp	 SHORT $LN10@GetAimedUp
$LN9@GetAimedUp:
  00167	0f 28 c1	 movaps	 xmm0, xmm1
$LN10@GetAimedUp:
  0016a	0f 57 d2	 xorps	 xmm2, xmm2
  0016d	f3 0f 5a c0	 cvtss2sd xmm0, xmm0
  00171	66 0f 2f d0	 comisd	 xmm2, xmm0
  00175	76 0a		 jbe	 SHORT $LN13@GetAimedUp
  00177	0f 57 c0	 xorps	 xmm0, xmm0
  0017a	f3 0f 11 45 ec	 movss	 DWORD PTR _fAngle$[ebp], xmm0
  0017f	eb 16		 jmp	 SHORT $LN12@GetAimedUp
$LN13@GetAimedUp:
  00181	f3 0f 10 45 ec	 movss	 xmm0, DWORD PTR _fAngle$[ebp]
  00186	0f 5a c0	 cvtps2pd xmm0, xmm0
  00189	0f 5a d1	 cvtps2pd xmm2, xmm1
  0018c	66 0f 2f d0	 comisd	 xmm2, xmm0
  00190	77 05		 ja	 SHORT $LN12@GetAimedUp
  00192	f3 0f 11 4d ec	 movss	 DWORD PTR _fAngle$[ebp], xmm1
$LN12@GetAimedUp:

; 785  : 
; 786  : 	float fWeight = fAngle / fMaxAngle;
; 787  : 
; 788  : 	return fWeight;

  00197	d9 45 ec	 fld	 DWORD PTR _fAngle$[ebp]

; 789  : }

  0019a	8b 4d fc	 mov	 ecx, DWORD PTR __$ArrayPad$[ebp]
  0019d	d8 75 0c	 fdiv	 DWORD PTR _fMaxAngle$[ebp]
  001a0	33 cd		 xor	 ecx, ebp
  001a2	d9 5d e8	 fstp	 DWORD PTR tv236[ebp]
  001a5	d9 45 e8	 fld	 DWORD PTR tv236[ebp]
  001a8	e8 00 00 00 00	 call	 @__security_check_cookie@4
  001ad	c9		 leave
  001ae	c2 08 00	 ret	 8
?GetAimedUpDownWeight@ioRangeTargetShotSkill@@IAEMABUD3DXVECTOR3@@M@Z ENDP ; ioRangeTargetShotSkill::GetAimedUpDownWeight
_TEXT	ENDS
PUBLIC	??9?$_Vector_const_iterator@V?$_Vector_val@PAVioBaseChar@@V?$allocator@PAVioBaseChar@@@std@@@std@@@std@@QBE_NABV01@@Z ; std::_Vector_const_iterator<std::_Vector_val<ioBaseChar *,std::allocator<ioBaseChar *> > >::operator!=
; Function compile flags: /Ogsp
; File c:\program files (x86)\microsoft visual studio 10.0\vc\include\vector
;	COMDAT ??9?$_Vector_const_iterator@V?$_Vector_val@PAVioBaseChar@@V?$allocator@PAVioBaseChar@@@std@@@std@@@std@@QBE_NABV01@@Z
_TEXT	SEGMENT
__Right$ = 8						; size = 4
??9?$_Vector_const_iterator@V?$_Vector_val@PAVioBaseChar@@V?$allocator@PAVioBaseChar@@@std@@@std@@@std@@QBE_NABV01@@Z PROC ; std::_Vector_const_iterator<std::_Vector_val<ioBaseChar *,std::allocator<ioBaseChar *> > >::operator!=, COMDAT
; _this$ = ecx

; 207  : 		{	// test for iterator inequality

  00000	55		 push	 ebp
  00001	8b ec		 mov	 ebp, esp

; 208  : 		return (!(*this == _Right));

  00003	8b 01		 mov	 eax, DWORD PTR [ecx]
  00005	8b 55 08	 mov	 edx, DWORD PTR __Right$[ebp]
  00008	33 c9		 xor	 ecx, ecx
  0000a	3b 02		 cmp	 eax, DWORD PTR [edx]
  0000c	0f 95 c0	 setne	 al

; 209  : 		}

  0000f	5d		 pop	 ebp
  00010	c2 04 00	 ret	 4
??9?$_Vector_const_iterator@V?$_Vector_val@PAVioBaseChar@@V?$allocator@PAVioBaseChar@@@std@@@std@@@std@@QBE_NABV01@@Z ENDP ; std::_Vector_const_iterator<std::_Vector_val<ioBaseChar *,std::allocator<ioBaseChar *> > >::operator!=
_TEXT	ENDS
PUBLIC	??$_Cons_val@V?$allocator@UForceInfo@@@std@@UForceInfo@@ABU3@@std@@YAXAAV?$allocator@UForceInfo@@@0@PAUForceInfo@@ABU2@@Z ; std::_Cons_val<std::allocator<ForceInfo>,ForceInfo,ForceInfo const &>
; Function compile flags: /Ogsp
; File c:\program files (x86)\microsoft visual studio 10.0\vc\include\xmemory
;	COMDAT ??$_Cons_val@V?$allocator@UForceInfo@@@std@@UForceInfo@@ABU3@@std@@YAXAAV?$allocator@UForceInfo@@@0@PAUForceInfo@@ABU2@@Z
_TEXT	SEGMENT
__Alval$ = 8						; size = 4
__Pdest$ = 12						; size = 4
__Src$ = 16						; size = 4
??$_Cons_val@V?$allocator@UForceInfo@@@std@@UForceInfo@@ABU3@@std@@YAXAAV?$allocator@UForceInfo@@@0@PAUForceInfo@@ABU2@@Z PROC ; std::_Cons_val<std::allocator<ForceInfo>,ForceInfo,ForceInfo const &>, COMDAT

; 279  : 	{	// construct using allocator

  00000	55		 push	 ebp
  00001	8b ec		 mov	 ebp, esp
  00003	57		 push	 edi

; 280  : 	_Alval.construct(_Pdest, _STD forward<_Ty2>(_Src));

  00004	8b 7d 0c	 mov	 edi, DWORD PTR __Pdest$[ebp]
  00007	85 ff		 test	 edi, edi
  00009	74 08		 je	 SHORT $LN9@Cons_val
  0000b	56		 push	 esi
  0000c	8b 75 10	 mov	 esi, DWORD PTR __Src$[ebp]
  0000f	a5		 movsd
  00010	a5		 movsd
  00011	a5		 movsd
  00012	5e		 pop	 esi
$LN9@Cons_val:
  00013	5f		 pop	 edi

; 281  : 	}

  00014	5d		 pop	 ebp
  00015	c3		 ret	 0
??$_Cons_val@V?$allocator@UForceInfo@@@std@@UForceInfo@@ABU3@@std@@YAXAAV?$allocator@UForceInfo@@@0@PAUForceInfo@@ABU2@@Z ENDP ; std::_Cons_val<std::allocator<ForceInfo>,ForceInfo,ForceInfo const &>
_TEXT	ENDS
PUBLIC	?construct@?$allocator@UWeaponInfo@@@std@@QAEXPAUWeaponInfo@@ABU3@@Z ; std::allocator<WeaponInfo>::construct
; Function compile flags: /Ogsp
;	COMDAT ?construct@?$allocator@UWeaponInfo@@@std@@QAEXPAUWeaponInfo@@ABU3@@Z
_TEXT	SEGMENT
__Ptr$ = 8						; size = 4
__Val$ = 12						; size = 4
?construct@?$allocator@UWeaponInfo@@@std@@QAEXPAUWeaponInfo@@ABU3@@Z PROC ; std::allocator<WeaponInfo>::construct, COMDAT
; _this$ = ecx

; 196  : 		{	// construct object at _Ptr with value _Val

  00000	55		 push	 ebp
  00001	8b ec		 mov	 ebp, esp

; 197  : 		_Construct(_Ptr, _Val);

  00003	ff 75 0c	 push	 DWORD PTR __Val$[ebp]
  00006	ff 75 08	 push	 DWORD PTR __Ptr$[ebp]
  00009	e8 00 00 00 00	 call	 ??$_Construct@UWeaponInfo@@ABU1@@std@@YAXPAUWeaponInfo@@ABU1@@Z ; std::_Construct<WeaponInfo,WeaponInfo const &>
  0000e	59		 pop	 ecx
  0000f	59		 pop	 ecx

; 198  : 		}

  00010	5d		 pop	 ebp
  00011	c2 08 00	 ret	 8
?construct@?$allocator@UWeaponInfo@@@std@@QAEXPAUWeaponInfo@@ABU3@@Z ENDP ; std::allocator<WeaponInfo>::construct
_TEXT	ENDS
PUBLIC	?GetTeam@ioPlayEntity@@QBE?AW4TeamType@@XZ	; ioPlayEntity::GetTeam
; Function compile flags: /Ogsp
; File d:\lost saga for developer\youtube\tutorial\source\src\lsclient\ioplayentity.h
;	COMDAT ?GetTeam@ioPlayEntity@@QBE?AW4TeamType@@XZ
_TEXT	SEGMENT
_value$538648 = -4					; size = 4
?GetTeam@ioPlayEntity@@QBE?AW4TeamType@@XZ PROC		; ioPlayEntity::GetTeam, COMDAT
; _this$ = ecx

; 107  : 	inline TeamType GetTeam() const { return m_TeamType; }

  00000	55		 push	 ebp
  00001	8b ec		 mov	 ebp, esp
  00003	51		 push	 ecx
  00004	8d 45 fc	 lea	 eax, DWORD PTR _value$538648[ebp]
  00007	50		 push	 eax
  00008	81 c1 90 00 00
	00		 add	 ecx, 144		; 00000090H
  0000e	e8 00 00 00 00	 call	 ?DecryptValueToPool@?$CEncrypt@W4TeamType@@@@QAEXPAW4TeamType@@@Z ; CEncrypt<enum TeamType>::DecryptValueToPool
  00013	8b 45 fc	 mov	 eax, DWORD PTR _value$538648[ebp]
  00016	c9		 leave
  00017	c3		 ret	 0
?GetTeam@ioPlayEntity@@QBE?AW4TeamType@@XZ ENDP		; ioPlayEntity::GetTeam
_TEXT	ENDS
PUBLIC	?GetModeType@ioPlayMode@@SA?AW4ModeType@@XZ	; ioPlayMode::GetModeType
EXTRN	?m_ModeType@ioPlayMode@@1V?$CEncrypt@W4ModeType@@@@A:BYTE ; ioPlayMode::m_ModeType
; Function compile flags: /Ogsp
; File d:\lost saga for developer\youtube\tutorial\source\src\lsclient\ioplaymode.h
;	COMDAT ?GetModeType@ioPlayMode@@SA?AW4ModeType@@XZ
_TEXT	SEGMENT
?GetModeType@ioPlayMode@@SA?AW4ModeType@@XZ PROC	; ioPlayMode::GetModeType, COMDAT

; 782  : 	static ModeType GetModeType() { return m_ModeType; }

  00000	6a 04		 push	 4
  00002	68 28 00 00 00	 push	 OFFSET ?m_ModeType@ioPlayMode@@1V?$CEncrypt@W4ModeType@@@@A+40
  00007	68 1c 00 00 00	 push	 OFFSET ?m_ModeType@ioPlayMode@@1V?$CEncrypt@W4ModeType@@@@A+28
  0000c	b9 0c 00 00 00	 mov	 ecx, OFFSET ?m_ModeType@ioPlayMode@@1V?$CEncrypt@W4ModeType@@@@A+12
  00011	e8 00 00 00 00	 call	 ?DecryptByte@ccddaabb@@QBEXPBDPADH@Z ; ccddaabb::DecryptByte
  00016	a1 28 00 00 00	 mov	 eax, DWORD PTR ?m_ModeType@ioPlayMode@@1V?$CEncrypt@W4ModeType@@@@A+40
  0001b	c3		 ret	 0
?GetModeType@ioPlayMode@@SA?AW4ModeType@@XZ ENDP	; ioPlayMode::GetModeType
_TEXT	ENDS
PUBLIC	??0?$vector@UWeaponInfo@@V?$allocator@UWeaponInfo@@@std@@@std@@QAE@XZ ; std::vector<WeaponInfo,std::allocator<WeaponInfo> >::vector<WeaponInfo,std::allocator<WeaponInfo> >
; Function compile flags: /Ogsp
; File c:\program files (x86)\microsoft visual studio 10.0\vc\include\vector
;	COMDAT ??0?$vector@UWeaponInfo@@V?$allocator@UWeaponInfo@@@std@@@std@@QAE@XZ
_TEXT	SEGMENT
??0?$vector@UWeaponInfo@@V?$allocator@UWeaponInfo@@@std@@@std@@QAE@XZ PROC ; std::vector<WeaponInfo,std::allocator<WeaponInfo> >::vector<WeaponInfo,std::allocator<WeaponInfo> >, COMDAT
; _this$ = ecx

; 507  : 		{	// construct empty vector

  00000	8b c1		 mov	 eax, ecx
  00002	33 c9		 xor	 ecx, ecx
  00004	89 08		 mov	 DWORD PTR [eax], ecx
  00006	89 48 04	 mov	 DWORD PTR [eax+4], ecx
  00009	89 48 08	 mov	 DWORD PTR [eax+8], ecx

; 508  : 		}

  0000c	c3		 ret	 0
??0?$vector@UWeaponInfo@@V?$allocator@UWeaponInfo@@@std@@@std@@QAE@XZ ENDP ; std::vector<WeaponInfo,std::allocator<WeaponInfo> >::vector<WeaponInfo,std::allocator<WeaponInfo> >
_TEXT	ENDS
PUBLIC	??0?$vector@UForceInfo@@V?$allocator@UForceInfo@@@std@@@std@@QAE@XZ ; std::vector<ForceInfo,std::allocator<ForceInfo> >::vector<ForceInfo,std::allocator<ForceInfo> >
; Function compile flags: /Ogsp
;	COMDAT ??0?$vector@UForceInfo@@V?$allocator@UForceInfo@@@std@@@std@@QAE@XZ
_TEXT	SEGMENT
??0?$vector@UForceInfo@@V?$allocator@UForceInfo@@@std@@@std@@QAE@XZ PROC ; std::vector<ForceInfo,std::allocator<ForceInfo> >::vector<ForceInfo,std::allocator<ForceInfo> >, COMDAT
; _this$ = ecx

; 507  : 		{	// construct empty vector

  00000	8b c1		 mov	 eax, ecx
  00002	33 c9		 xor	 ecx, ecx
  00004	89 08		 mov	 DWORD PTR [eax], ecx
  00006	89 48 04	 mov	 DWORD PTR [eax+4], ecx
  00009	89 48 08	 mov	 DWORD PTR [eax+8], ecx

; 508  : 		}

  0000c	c3		 ret	 0
??0?$vector@UForceInfo@@V?$allocator@UForceInfo@@@std@@@std@@QAE@XZ ENDP ; std::vector<ForceInfo,std::allocator<ForceInfo> >::vector<ForceInfo,std::allocator<ForceInfo> >
_TEXT	ENDS
PUBLIC	??0?$CEncrypt@M@@QAE@ABV0@@Z			; CEncrypt<float>::CEncrypt<float>
;	COMDAT xdata$x
; File d:\lost saga for developer\youtube\tutorial\source\src\lsclient\encryptvalue.h
xdata$x	SEGMENT
__unwindtable$??0?$CEncrypt@M@@QAE@ABV0@@Z DD 0ffffffffH
	DD	FLAT:__unwindfunclet$??0?$CEncrypt@M@@QAE@ABV0@@Z$0
__ehfuncinfo$??0?$CEncrypt@M@@QAE@ABV0@@Z DD 019930522H
	DD	01H
	DD	FLAT:__unwindtable$??0?$CEncrypt@M@@QAE@ABV0@@Z
	DD	2 DUP(00H)
	DD	2 DUP(00H)
	DD	00H
	DD	01H
; Function compile flags: /Ogsp
xdata$x	ENDS
;	COMDAT ??0?$CEncrypt@M@@QAE@ABV0@@Z
_TEXT	SEGMENT
_this$ = -16						; size = 4
__$EHRec$ = -12						; size = 12
_value$538707 = 8					; size = 4
_value$538702 = 8					; size = 4
_inValue$ = 8						; size = 4
??0?$CEncrypt@M@@QAE@ABV0@@Z PROC			; CEncrypt<float>::CEncrypt<float>, COMDAT
; _this$ = ecx

; 120  : 	CEncrypt( const CEncrypt<type> &inValue )   //     

  00000	6a 04		 push	 4
  00002	b8 00 00 00 00	 mov	 eax, __ehhandler$??0?$CEncrypt@M@@QAE@ABV0@@Z
  00007	e8 00 00 00 00	 call	 __EH_prolog3
  0000c	8b f1		 mov	 esi, ecx
  0000e	89 75 f0	 mov	 DWORD PTR _this$[ebp], esi
  00011	8d 4e 0c	 lea	 ecx, DWORD PTR [esi+12]
  00014	c7 06 00 00 00
	00		 mov	 DWORD PTR [esi], OFFSET ??_7?$CEncrypt@M@@6B@
  0001a	e8 00 00 00 00	 call	 ??0ccddaabb@@QAE@XZ	; ccddaabb::ccddaabb
  0001f	83 65 fc 00	 and	 DWORD PTR __$EHRec$[ebp+8], 0

; 121  : 	{
; 122  : 		Init();

  00023	8b ce		 mov	 ecx, esi
  00025	e8 00 00 00 00	 call	 ?Init@?$CEncrypt@M@@AAEXXZ ; CEncrypt<float>::Init

; 123  : 		*this = inValue;

  0002a	8b 4d 08	 mov	 ecx, DWORD PTR _inValue$[ebp]
  0002d	8d 45 08	 lea	 eax, DWORD PTR _value$538702[ebp]
  00030	50		 push	 eax
  00031	e8 00 00 00 00	 call	 ?DecryptValueToPool@?$CEncrypt@M@@QAEXPAM@Z ; CEncrypt<float>::DecryptValueToPool
  00036	f3 0f 10 45 08	 movss	 xmm0, DWORD PTR _value$538702[ebp]
  0003b	8d 45 08	 lea	 eax, DWORD PTR _value$538707[ebp]
  0003e	50		 push	 eax
  0003f	8b ce		 mov	 ecx, esi
  00041	f3 0f 11 45 08	 movss	 DWORD PTR _value$538707[ebp], xmm0
  00046	e8 00 00 00 00	 call	 ?EncryptValueToPool@?$CEncrypt@M@@AAEXPBD@Z ; CEncrypt<float>::EncryptValueToPool

; 124  : 	}

  0004b	8b c6		 mov	 eax, esi
  0004d	e8 00 00 00 00	 call	 __EH_epilog3
  00052	c2 04 00	 ret	 4
_TEXT	ENDS
;	COMDAT text$x
text$x	SEGMENT
__unwindfunclet$??0?$CEncrypt@M@@QAE@ABV0@@Z$0:
  00000	8b 4d f0	 mov	 ecx, DWORD PTR _this$[ebp]
  00003	83 c1 0c	 add	 ecx, 12			; 0000000cH
  00006	e9 00 00 00 00	 jmp	 ??1ccddaabb@@UAE@XZ	; ccddaabb::~ccddaabb
__ehhandler$??0?$CEncrypt@M@@QAE@ABV0@@Z:
  0000b	8b 54 24 08	 mov	 edx, DWORD PTR [esp+8]
  0000f	8d 42 0c	 lea	 eax, DWORD PTR [edx+12]
  00012	8b 4a ec	 mov	 ecx, DWORD PTR [edx-20]
  00015	33 c8		 xor	 ecx, eax
  00017	e8 00 00 00 00	 call	 @__security_check_cookie@4
  0001c	b8 00 00 00 00	 mov	 eax, OFFSET __ehfuncinfo$??0?$CEncrypt@M@@QAE@ABV0@@Z
  00021	e9 00 00 00 00	 jmp	 ___CxxFrameHandler3
text$x	ENDS
??0?$CEncrypt@M@@QAE@ABV0@@Z ENDP			; CEncrypt<float>::CEncrypt<float>
PUBLIC	?_Buy@?$vector@UWeaponInfo@@V?$allocator@UWeaponInfo@@@std@@@std@@IAE_NI@Z ; std::vector<WeaponInfo,std::allocator<WeaponInfo> >::_Buy
; Function compile flags: /Ogsp
; File c:\program files (x86)\microsoft visual studio 10.0\vc\include\vector
;	COMDAT ?_Buy@?$vector@UWeaponInfo@@V?$allocator@UWeaponInfo@@@std@@@std@@IAE_NI@Z
_TEXT	SEGMENT
__Capacity$ = 8						; size = 4
?_Buy@?$vector@UWeaponInfo@@V?$allocator@UWeaponInfo@@@std@@@std@@IAE_NI@Z PROC ; std::vector<WeaponInfo,std::allocator<WeaponInfo> >::_Buy, COMDAT
; _this$ = ecx

; 1250 : 		{	// allocate array with _Capacity elements

  00000	55		 push	 ebp
  00001	8b ec		 mov	 ebp, esp
  00003	56		 push	 esi

; 1251 : 		this->_Myfirst = 0;

  00004	33 c0		 xor	 eax, eax
  00006	57		 push	 edi

; 1252 : 		this->_Mylast = 0;
; 1253 : 		this->_Myend = 0;
; 1254 : 
; 1255 : 		if (_Capacity == 0)

  00007	8b 7d 08	 mov	 edi, DWORD PTR __Capacity$[ebp]
  0000a	8b f1		 mov	 esi, ecx
  0000c	89 06		 mov	 DWORD PTR [esi], eax
  0000e	89 46 04	 mov	 DWORD PTR [esi+4], eax
  00011	89 46 08	 mov	 DWORD PTR [esi+8], eax
  00014	3b f8		 cmp	 edi, eax
  00016	75 04		 jne	 SHORT $LN4@Buy

; 1256 : 			return (false);

  00018	32 c0		 xor	 al, al
  0001a	eb 2b		 jmp	 SHORT $LN5@Buy
$LN4@Buy:

; 1257 : 		else if (max_size() < _Capacity)

  0001c	81 ff 66 66 66
	06		 cmp	 edi, 107374182		; 06666666H
  00022	76 0b		 jbe	 SHORT $LN2@Buy

; 1258 : 			_Xlen();	// result too long

  00024	68 00 00 00 00	 push	 OFFSET ??_C@_0BD@OLBABOEK@vector?$DMT?$DO?5too?5long?$AA@
  00029	ff 15 00 00 00
	00		 call	 DWORD PTR __imp_?_Xlength_error@std@@YAXPBD@Z
$LN19@Buy:
$LN2@Buy:

; 1259 : 		else
; 1260 : 			{	// nonempty array, allocate storage
; 1261 : 			this->_Myfirst = this->_Alval.allocate(_Capacity);

  0002f	50		 push	 eax
  00030	57		 push	 edi
  00031	e8 00 00 00 00	 call	 ??$_Allocate@UWeaponInfo@@@std@@YAPAUWeaponInfo@@IPAU1@@Z ; std::_Allocate<WeaponInfo>

; 1262 : 			this->_Mylast = this->_Myfirst;
; 1263 : 			this->_Myend = this->_Myfirst + _Capacity;

  00036	6b ff 28	 imul	 edi, 40			; 00000028H
  00039	03 f8		 add	 edi, eax
  0003b	59		 pop	 ecx
  0003c	89 06		 mov	 DWORD PTR [esi], eax
  0003e	89 46 04	 mov	 DWORD PTR [esi+4], eax
  00041	59		 pop	 ecx
  00042	89 7e 08	 mov	 DWORD PTR [esi+8], edi

; 1264 : 			}
; 1265 : 		return (true);

  00045	b0 01		 mov	 al, 1
$LN5@Buy:
  00047	5f		 pop	 edi
  00048	5e		 pop	 esi

; 1266 : 		}

  00049	5d		 pop	 ebp
  0004a	c2 04 00	 ret	 4
$LN18@Buy:
?_Buy@?$vector@UWeaponInfo@@V?$allocator@UWeaponInfo@@@std@@@std@@IAE_NI@Z ENDP ; std::vector<WeaponInfo,std::allocator<WeaponInfo> >::_Buy
_TEXT	ENDS
PUBLIC	?_Buy@?$vector@UForceInfo@@V?$allocator@UForceInfo@@@std@@@std@@IAE_NI@Z ; std::vector<ForceInfo,std::allocator<ForceInfo> >::_Buy
; Function compile flags: /Ogsp
;	COMDAT ?_Buy@?$vector@UForceInfo@@V?$allocator@UForceInfo@@@std@@@std@@IAE_NI@Z
_TEXT	SEGMENT
__Capacity$ = 8						; size = 4
?_Buy@?$vector@UForceInfo@@V?$allocator@UForceInfo@@@std@@@std@@IAE_NI@Z PROC ; std::vector<ForceInfo,std::allocator<ForceInfo> >::_Buy, COMDAT
; _this$ = ecx

; 1250 : 		{	// allocate array with _Capacity elements

  00000	55		 push	 ebp
  00001	8b ec		 mov	 ebp, esp
  00003	56		 push	 esi

; 1251 : 		this->_Myfirst = 0;

  00004	33 c0		 xor	 eax, eax
  00006	57		 push	 edi

; 1252 : 		this->_Mylast = 0;
; 1253 : 		this->_Myend = 0;
; 1254 : 
; 1255 : 		if (_Capacity == 0)

  00007	8b 7d 08	 mov	 edi, DWORD PTR __Capacity$[ebp]
  0000a	8b f1		 mov	 esi, ecx
  0000c	89 06		 mov	 DWORD PTR [esi], eax
  0000e	89 46 04	 mov	 DWORD PTR [esi+4], eax
  00011	89 46 08	 mov	 DWORD PTR [esi+8], eax
  00014	3b f8		 cmp	 edi, eax
  00016	75 04		 jne	 SHORT $LN4@Buy@2

; 1256 : 			return (false);

  00018	32 c0		 xor	 al, al
  0001a	eb 2b		 jmp	 SHORT $LN5@Buy@2
$LN4@Buy@2:

; 1257 : 		else if (max_size() < _Capacity)

  0001c	81 ff 55 55 55
	15		 cmp	 edi, 357913941		; 15555555H
  00022	76 0b		 jbe	 SHORT $LN2@Buy@2

; 1258 : 			_Xlen();	// result too long

  00024	68 00 00 00 00	 push	 OFFSET ??_C@_0BD@OLBABOEK@vector?$DMT?$DO?5too?5long?$AA@
  00029	ff 15 00 00 00
	00		 call	 DWORD PTR __imp_?_Xlength_error@std@@YAXPBD@Z
$LN19@Buy@2:
$LN2@Buy@2:

; 1259 : 		else
; 1260 : 			{	// nonempty array, allocate storage
; 1261 : 			this->_Myfirst = this->_Alval.allocate(_Capacity);

  0002f	50		 push	 eax
  00030	57		 push	 edi
  00031	e8 00 00 00 00	 call	 ??$_Allocate@UForceInfo@@@std@@YAPAUForceInfo@@IPAU1@@Z ; std::_Allocate<ForceInfo>

; 1262 : 			this->_Mylast = this->_Myfirst;
; 1263 : 			this->_Myend = this->_Myfirst + _Capacity;

  00036	6b ff 0c	 imul	 edi, 12			; 0000000cH
  00039	03 f8		 add	 edi, eax
  0003b	59		 pop	 ecx
  0003c	89 06		 mov	 DWORD PTR [esi], eax
  0003e	89 46 04	 mov	 DWORD PTR [esi+4], eax
  00041	59		 pop	 ecx
  00042	89 7e 08	 mov	 DWORD PTR [esi+8], edi

; 1264 : 			}
; 1265 : 		return (true);

  00045	b0 01		 mov	 al, 1
$LN5@Buy@2:
  00047	5f		 pop	 edi
  00048	5e		 pop	 esi

; 1266 : 		}

  00049	5d		 pop	 ebp
  0004a	c2 04 00	 ret	 4
$LN18@Buy@2:
?_Buy@?$vector@UForceInfo@@V?$allocator@UForceInfo@@@std@@@std@@IAE_NI@Z ENDP ; std::vector<ForceInfo,std::allocator<ForceInfo> >::_Buy
_TEXT	ENDS
PUBLIC	??9?$_Vector_const_iterator@V?$_Vector_val@UWeaponInfo@@V?$allocator@UWeaponInfo@@@std@@@std@@@std@@QBE_NABV01@@Z ; std::_Vector_const_iterator<std::_Vector_val<WeaponInfo,std::allocator<WeaponInfo> > >::operator!=
; Function compile flags: /Ogsp
;	COMDAT ??9?$_Vector_const_iterator@V?$_Vector_val@UWeaponInfo@@V?$allocator@UWeaponInfo@@@std@@@std@@@std@@QBE_NABV01@@Z
_TEXT	SEGMENT
__Right$ = 8						; size = 4
??9?$_Vector_const_iterator@V?$_Vector_val@UWeaponInfo@@V?$allocator@UWeaponInfo@@@std@@@std@@@std@@QBE_NABV01@@Z PROC ; std::_Vector_const_iterator<std::_Vector_val<WeaponInfo,std::allocator<WeaponInfo> > >::operator!=, COMDAT
; _this$ = ecx

; 207  : 		{	// test for iterator inequality

  00000	55		 push	 ebp
  00001	8b ec		 mov	 ebp, esp

; 208  : 		return (!(*this == _Right));

  00003	8b 01		 mov	 eax, DWORD PTR [ecx]
  00005	8b 55 08	 mov	 edx, DWORD PTR __Right$[ebp]
  00008	33 c9		 xor	 ecx, ecx
  0000a	3b 02		 cmp	 eax, DWORD PTR [edx]
  0000c	0f 95 c0	 setne	 al

; 209  : 		}

  0000f	5d		 pop	 ebp
  00010	c2 04 00	 ret	 4
??9?$_Vector_const_iterator@V?$_Vector_val@UWeaponInfo@@V?$allocator@UWeaponInfo@@@std@@@std@@@std@@QBE_NABV01@@Z ENDP ; std::_Vector_const_iterator<std::_Vector_val<WeaponInfo,std::allocator<WeaponInfo> > >::operator!=
_TEXT	ENDS
PUBLIC	??9?$_Vector_const_iterator@V?$_Vector_val@UForceInfo@@V?$allocator@UForceInfo@@@std@@@std@@@std@@QBE_NABV01@@Z ; std::_Vector_const_iterator<std::_Vector_val<ForceInfo,std::allocator<ForceInfo> > >::operator!=
; Function compile flags: /Ogsp
;	COMDAT ??9?$_Vector_const_iterator@V?$_Vector_val@UForceInfo@@V?$allocator@UForceInfo@@@std@@@std@@@std@@QBE_NABV01@@Z
_TEXT	SEGMENT
__Right$ = 8						; size = 4
??9?$_Vector_const_iterator@V?$_Vector_val@UForceInfo@@V?$allocator@UForceInfo@@@std@@@std@@@std@@QBE_NABV01@@Z PROC ; std::_Vector_const_iterator<std::_Vector_val<ForceInfo,std::allocator<ForceInfo> > >::operator!=, COMDAT
; _this$ = ecx

; 207  : 		{	// test for iterator inequality

  00000	55		 push	 ebp
  00001	8b ec		 mov	 ebp, esp

; 208  : 		return (!(*this == _Right));

  00003	8b 01		 mov	 eax, DWORD PTR [ecx]
  00005	8b 55 08	 mov	 edx, DWORD PTR __Right$[ebp]
  00008	33 c9		 xor	 ecx, ecx
  0000a	3b 02		 cmp	 eax, DWORD PTR [edx]
  0000c	0f 95 c0	 setne	 al

; 209  : 		}

  0000f	5d		 pop	 ebp
  00010	c2 04 00	 ret	 4
??9?$_Vector_const_iterator@V?$_Vector_val@UForceInfo@@V?$allocator@UForceInfo@@@std@@@std@@@std@@QBE_NABV01@@Z ENDP ; std::_Vector_const_iterator<std::_Vector_val<ForceInfo,std::allocator<ForceInfo> > >::operator!=
_TEXT	ENDS
PUBLIC	??$_Dest_val@V?$allocator@UForceInfo@@@std@@UForceInfo@@@std@@YAXAAV?$allocator@UForceInfo@@@0@PAUForceInfo@@@Z ; std::_Dest_val<std::allocator<ForceInfo>,ForceInfo>
; Function compile flags: /Ogsp
; File c:\program files (x86)\microsoft visual studio 10.0\vc\include\xmemory
;	COMDAT ??$_Dest_val@V?$allocator@UForceInfo@@@std@@UForceInfo@@@std@@YAXAAV?$allocator@UForceInfo@@@0@PAUForceInfo@@@Z
_TEXT	SEGMENT
__Alval$ = 8						; size = 4
__Pdest$ = 12						; size = 4
??$_Dest_val@V?$allocator@UForceInfo@@@std@@UForceInfo@@@std@@YAXAAV?$allocator@UForceInfo@@@0@PAUForceInfo@@@Z PROC ; std::_Dest_val<std::allocator<ForceInfo>,ForceInfo>, COMDAT

; 287  : 	_Alval.destroy(_Pdest);
; 288  : 	}

  00000	c3		 ret	 0
??$_Dest_val@V?$allocator@UForceInfo@@@std@@UForceInfo@@@std@@YAXAAV?$allocator@UForceInfo@@@0@PAUForceInfo@@@Z ENDP ; std::_Dest_val<std::allocator<ForceInfo>,ForceInfo>
_TEXT	ENDS
PUBLIC	?destroy@?$allocator@UWeaponInfo@@@std@@QAEXPAUWeaponInfo@@@Z ; std::allocator<WeaponInfo>::destroy
; Function compile flags: /Ogsp
;	COMDAT ?destroy@?$allocator@UWeaponInfo@@@std@@QAEXPAUWeaponInfo@@@Z
_TEXT	SEGMENT
__Ptr$ = 8						; size = 4
?destroy@?$allocator@UWeaponInfo@@@std@@QAEXPAUWeaponInfo@@@Z PROC ; std::allocator<WeaponInfo>::destroy, COMDAT
; _this$ = ecx

; 212  : 		{	// destroy object at _Ptr

  00000	55		 push	 ebp
  00001	8b ec		 mov	 ebp, esp

; 213  : 		_Destroy(_Ptr);

  00003	8b 4d 08	 mov	 ecx, DWORD PTR __Ptr$[ebp]
  00006	83 c1 08	 add	 ecx, 8
  00009	ff 15 00 00 00
	00		 call	 DWORD PTR __imp_??1ioHashString@@QAE@XZ

; 214  : 		}

  0000f	5d		 pop	 ebp
  00010	c2 04 00	 ret	 4
?destroy@?$allocator@UWeaponInfo@@@std@@QAEXPAUWeaponInfo@@@Z ENDP ; std::allocator<WeaponInfo>::destroy
_TEXT	ENDS
PUBLIC	_pStage$GSCopy$
PUBLIC	_pChar$GSCopy$
PUBLIC	_this$GSCopy$
PUBLIC	__$ArrayPad$
PUBLIC	?CreateAimMarker@ioRangeTargetShotSkill@@IAEXPAVioBaseChar@@PAVioPlayStage@@@Z ; ioRangeTargetShotSkill::CreateAimMarker
EXTRN	?GetUniqueID@ioMapEffect@@QBEKXZ:PROC		; ioMapEffect::GetUniqueID
EXTRN	?CreateMapEffect@ioPlayStage@@QAEPAVioMapEffect@@ABVioHashString@@ABUD3DXVECTOR3@@1@Z:PROC ; ioPlayStage::CreateMapEffect
EXTRN	?GetMidHeightByRate@ioGameEntity@@QBEMM@Z:PROC	; ioGameEntity::GetMidHeightByRate
; Function compile flags: /Ogsp
; File d:\lost saga for developer\youtube\tutorial\source\src\lsclient\iorangetargetshotskill.cpp
;	COMDAT ?CreateAimMarker@ioRangeTargetShotSkill@@IAEXPAVioBaseChar@@PAVioPlayStage@@@Z
_TEXT	SEGMENT
_value$538855 = -44					; size = 4
_pChar$GSCopy$ = -44					; size = 4
_pStage$GSCopy$ = -40					; size = 4
_this$GSCopy$ = -36					; size = 4
tv270 = -32						; size = 4
tv267 = -32						; size = 4
tv264 = -32						; size = 4
tv250 = -32						; size = 4
tv246 = -32						; size = 4
tv242 = -32						; size = 4
_vTargetPos$531376 = -28				; size = 12
_vScale$531375 = -16					; size = 12
__$ArrayPad$ = -4					; size = 4
_pChar$ = 8						; size = 4
_pStage$ = 12						; size = 4
?CreateAimMarker@ioRangeTargetShotSkill@@IAEXPAVioBaseChar@@PAVioPlayStage@@@Z PROC ; ioRangeTargetShotSkill::CreateAimMarker, COMDAT
; _this$ = ecx

; 510  : {

  00000	55		 push	 ebp
  00001	8b ec		 mov	 ebp, esp
  00003	83 ec 2c	 sub	 esp, 44			; 0000002cH
  00006	a1 00 00 00 00	 mov	 eax, DWORD PTR ___security_cookie
  0000b	33 c5		 xor	 eax, ebp
  0000d	89 45 fc	 mov	 DWORD PTR __$ArrayPad$[ebp], eax
  00010	8b 45 08	 mov	 eax, DWORD PTR _pChar$[ebp]
  00013	56		 push	 esi
  00014	8b 75 0c	 mov	 esi, DWORD PTR _pStage$[ebp]
  00017	57		 push	 edi
  00018	8b f9		 mov	 edi, ecx

; 520  : 	{
; 521  : 		D3DXVECTOR3 vScale( FLOAT1, FLOAT1, FLOAT1 );

  0001a	89 7d dc	 mov	 DWORD PTR _this$GSCopy$[ebp], edi
  0001d	89 45 d4	 mov	 DWORD PTR _pChar$GSCopy$[ebp], eax
  00020	89 75 d8	 mov	 DWORD PTR _pStage$GSCopy$[ebp], esi
  00023	85 c0		 test	 eax, eax
  00025	0f 84 41 01 00
	00		 je	 $LN1@CreateAimM

; 511  : 	if ( !pChar ) return;
; 512  : 	if ( !pStage ) return;

  0002b	85 f6		 test	 esi, esi
  0002d	0f 84 39 01 00
	00		 je	 $LN1@CreateAimM

; 513  : 
; 514  : 	if( m_szTargetName.IsEmpty() ) return;

  00033	53		 push	 ebx
  00034	8d 9f 5c 0f 00
	00		 lea	 ebx, DWORD PTR [edi+3932]
  0003a	8b cb		 mov	 ecx, ebx
  0003c	ff 15 00 00 00
	00		 call	 DWORD PTR __imp_?IsEmpty@ioHashString@@QBE_NXZ
  00042	84 c0		 test	 al, al
  00044	0f 85 21 01 00
	00		 jne	 $LN29@CreateAimM

; 515  : 	
; 516  : 	if( m_dwAimMarkerID != -1 )	return;

  0004a	83 bf 20 10 00
	00 ff		 cmp	 DWORD PTR [edi+4128], -1
  00051	0f 85 14 01 00
	00		 jne	 $LN29@CreateAimM

; 517  : 
; 518  : 	ioBaseChar *pTarget = pStage->GetBaseChar( m_szTargetName );

  00057	53		 push	 ebx
  00058	8b ce		 mov	 ecx, esi
  0005a	e8 00 00 00 00	 call	 ?GetBaseChar@ioPlayStage@@QAEPAVioBaseChar@@ABVioHashString@@@Z ; ioPlayStage::GetBaseChar
  0005f	8b d8		 mov	 ebx, eax

; 519  : 	if( pTarget )

  00061	85 db		 test	 ebx, ebx
  00063	0f 84 02 01 00
	00		 je	 $LN29@CreateAimM

; 520  : 	{
; 521  : 		D3DXVECTOR3 vScale( FLOAT1, FLOAT1, FLOAT1 );

  00069	b8 01 00 00 00	 mov	 eax, 1
  0006e	8b c8		 mov	 ecx, eax
  00070	b8 01 00 00 00	 mov	 eax, 1
  00075	8b d0		 mov	 edx, eax
  00077	b8 01 00 00 00	 mov	 eax, 1
  0007c	89 45 e0	 mov	 DWORD PTR tv270[ebp], eax
  0007f	db 45 e0	 fild	 DWORD PTR tv270[ebp]
  00082	85 c0		 test	 eax, eax
  00084	79 06		 jns	 SHORT $LN30@CreateAimM
  00086	d8 05 00 00 00
	00		 fadd	 DWORD PTR __real@4f800000
$LN30@CreateAimM:
  0008c	89 55 e0	 mov	 DWORD PTR tv267[ebp], edx
  0008f	d9 5d f0	 fstp	 DWORD PTR _vScale$531375[ebp]
  00092	db 45 e0	 fild	 DWORD PTR tv267[ebp]
  00095	85 d2		 test	 edx, edx
  00097	79 06		 jns	 SHORT $LN31@CreateAimM
  00099	d8 05 00 00 00
	00		 fadd	 DWORD PTR __real@4f800000
$LN31@CreateAimM:
  0009f	89 4d e0	 mov	 DWORD PTR tv264[ebp], ecx
  000a2	d9 5d f4	 fstp	 DWORD PTR _vScale$531375[ebp+4]
  000a5	db 45 e0	 fild	 DWORD PTR tv264[ebp]
  000a8	85 c9		 test	 ecx, ecx
  000aa	79 06		 jns	 SHORT $LN32@CreateAimM
  000ac	d8 05 00 00 00
	00		 fadd	 DWORD PTR __real@4f800000
$LN32@CreateAimM:

; 522  : 		D3DXVECTOR3 vTargetPos = pTarget->GetWorldPosition();

  000b2	8b 03		 mov	 eax, DWORD PTR [ebx]
  000b4	d9 5d f8	 fstp	 DWORD PTR _vScale$531375[ebp+8]
  000b7	8b cb		 mov	 ecx, ebx
  000b9	ff 50 70	 call	 DWORD PTR [eax+112]
  000bc	8b f0		 mov	 esi, eax
  000be	8d 7d e4	 lea	 edi, DWORD PTR _vTargetPos$531376[ebp]
  000c1	a5		 movsd
  000c2	a5		 movsd
  000c3	a5		 movsd

; 523  : 		vTargetPos.y = pTarget->GetMidHeightByRate();

  000c4	b8 05 00 00 00	 mov	 eax, 5
  000c9	8b c8		 mov	 ecx, eax
  000cb	b8 0a 00 00 00	 mov	 eax, 10			; 0000000aH
  000d0	89 4d e0	 mov	 DWORD PTR tv250[ebp], ecx
  000d3	db 45 e0	 fild	 DWORD PTR tv250[ebp]
  000d6	85 c9		 test	 ecx, ecx
  000d8	79 06		 jns	 SHORT $LN33@CreateAimM
  000da	d8 05 00 00 00
	00		 fadd	 DWORD PTR __real@4f800000
$LN33@CreateAimM:
  000e0	89 45 e0	 mov	 DWORD PTR tv246[ebp], eax
  000e3	db 45 e0	 fild	 DWORD PTR tv246[ebp]
  000e6	85 c0		 test	 eax, eax
  000e8	79 06		 jns	 SHORT $LN34@CreateAimM
  000ea	d8 05 00 00 00
	00		 fadd	 DWORD PTR __real@4f800000
$LN34@CreateAimM:
  000f0	de f9		 fdivp	 ST(1), ST(0)
  000f2	51		 push	 ecx
  000f3	8b cb		 mov	 ecx, ebx
  000f5	d9 5d e0	 fstp	 DWORD PTR tv242[ebp]
  000f8	d9 45 e0	 fld	 DWORD PTR tv242[ebp]
  000fb	d9 1c 24	 fstp	 DWORD PTR [esp]
  000fe	e8 00 00 00 00	 call	 ?GetMidHeightByRate@ioGameEntity@@QBEMM@Z ; ioGameEntity::GetMidHeightByRate
  00103	d9 5d e8	 fstp	 DWORD PTR _vTargetPos$531376[ebp+4]

; 524  : 		ioMapEffect *pMapEffect = NULL;
; 525  : 		if( pChar->IsNeedProcess() ) 

  00106	8b 75 d4	 mov	 esi, DWORD PTR _pChar$GSCopy$[ebp]
  00109	8b 06		 mov	 eax, DWORD PTR [esi]
  0010b	8b ce		 mov	 ecx, esi
  0010d	ff 90 00 01 00
	00		 call	 DWORD PTR [eax+256]
  00113	84 c0		 test	 al, al
  00115	74 12		 je	 SHORT $LN5@CreateAimM

; 526  : 		{
; 527  : 			pMapEffect = pStage->CreateMapEffect( m_szBlueAimMarker, vTargetPos, vScale );

  00117	8d 45 f0	 lea	 eax, DWORD PTR _vScale$531375[ebp]
  0011a	50		 push	 eax
  0011b	8d 45 e4	 lea	 eax, DWORD PTR _vTargetPos$531376[ebp]
  0011e	50		 push	 eax
  0011f	8b 45 dc	 mov	 eax, DWORD PTR _this$GSCopy$[ebp]
$LN36@CreateAimM:
  00122	05 10 10 00 00	 add	 eax, 4112		; 00001010H

; 528  : 		}
; 529  : 		else

  00127	eb 25		 jmp	 SHORT $LN35@CreateAimM
$LN5@CreateAimM:

; 530  : 		{
; 531  : 			if( pChar->GetTeam() == TEAM_BLUE )

  00129	8d 45 d4	 lea	 eax, DWORD PTR _value$538855[ebp]
  0012c	50		 push	 eax
  0012d	8d 8e 90 00 00
	00		 lea	 ecx, DWORD PTR [esi+144]
  00133	e8 00 00 00 00	 call	 ?DecryptValueToPool@?$CEncrypt@W4TeamType@@@@QAEXPAW4TeamType@@@Z ; CEncrypt<enum TeamType>::DecryptValueToPool
  00138	83 7d d4 02	 cmp	 DWORD PTR _value$538855[ebp], 2

; 532  : 				pMapEffect = pStage->CreateMapEffect( m_szBlueAimMarker, vTargetPos, vScale );

  0013c	8d 45 f0	 lea	 eax, DWORD PTR _vScale$531375[ebp]
  0013f	50		 push	 eax
  00140	8d 45 e4	 lea	 eax, DWORD PTR _vTargetPos$531376[ebp]
  00143	50		 push	 eax
  00144	8b 45 dc	 mov	 eax, DWORD PTR _this$GSCopy$[ebp]

; 533  : 			else

  00147	74 d9		 je	 SHORT $LN36@CreateAimM

; 534  : 				pMapEffect = pStage->CreateMapEffect( m_szRedAimMarker, vTargetPos, vScale );

  00149	05 00 10 00 00	 add	 eax, 4096		; 00001000H
$LN35@CreateAimM:
  0014e	8b 4d d8	 mov	 ecx, DWORD PTR _pStage$GSCopy$[ebp]
  00151	50		 push	 eax
  00152	e8 00 00 00 00	 call	 ?CreateMapEffect@ioPlayStage@@QAEPAVioMapEffect@@ABVioHashString@@ABUD3DXVECTOR3@@1@Z ; ioPlayStage::CreateMapEffect

; 535  : 		}
; 536  : 
; 537  : 		if( pMapEffect )

  00157	85 c0		 test	 eax, eax
  00159	74 10		 je	 SHORT $LN29@CreateAimM

; 538  : 		{	
; 539  : 			m_dwAimMarkerID = pMapEffect->GetUniqueID();

  0015b	8b c8		 mov	 ecx, eax
  0015d	e8 00 00 00 00	 call	 ?GetUniqueID@ioMapEffect@@QBEKXZ ; ioMapEffect::GetUniqueID
  00162	8b 4d dc	 mov	 ecx, DWORD PTR _this$GSCopy$[ebp]
  00165	89 81 20 10 00
	00		 mov	 DWORD PTR [ecx+4128], eax
$LN29@CreateAimM:
  0016b	5b		 pop	 ebx
$LN1@CreateAimM:

; 540  : 		}
; 541  : 	}
; 542  : }

  0016c	8b 4d fc	 mov	 ecx, DWORD PTR __$ArrayPad$[ebp]
  0016f	5f		 pop	 edi
  00170	33 cd		 xor	 ecx, ebp
  00172	5e		 pop	 esi
  00173	e8 00 00 00 00	 call	 @__security_check_cookie@4
  00178	c9		 leave
  00179	c2 08 00	 ret	 8
?CreateAimMarker@ioRangeTargetShotSkill@@IAEXPAVioBaseChar@@PAVioPlayStage@@@Z ENDP ; ioRangeTargetShotSkill::CreateAimMarker
_TEXT	ENDS
PUBLIC	_pStage$GSCopy$
PUBLIC	_this$GSCopy$
PUBLIC	__$ArrayPad$
PUBLIC	?UpdateAimMarker@ioRangeTargetShotSkill@@IAEXPAVioBaseChar@@PAVioPlayStage@@@Z ; ioRangeTargetShotSkill::UpdateAimMarker
EXTRN	?SetWorldPosition@ioMapEffect@@QAEXABUD3DXVECTOR3@@@Z:PROC ; ioMapEffect::SetWorldPosition
EXTRN	?FindMapEffect@ioPlayStage@@QAEPAVioMapEffect@@K@Z:PROC ; ioPlayStage::FindMapEffect
; Function compile flags: /Ogsp
;	COMDAT ?UpdateAimMarker@ioRangeTargetShotSkill@@IAEXPAVioBaseChar@@PAVioPlayStage@@@Z
_TEXT	SEGMENT
_pStage$GSCopy$ = -28					; size = 4
_this$GSCopy$ = -24					; size = 4
tv242 = -20						; size = 4
tv238 = -20						; size = 4
tv234 = -20						; size = 4
tv226 = -20						; size = 4
_vTargetPos$531398 = -16				; size = 12
__$ArrayPad$ = -4					; size = 4
_pChar$ = 8						; size = 4
_pStage$ = 12						; size = 4
?UpdateAimMarker@ioRangeTargetShotSkill@@IAEXPAVioBaseChar@@PAVioPlayStage@@@Z PROC ; ioRangeTargetShotSkill::UpdateAimMarker, COMDAT
; _this$ = ecx

; 546  : {

  00000	55		 push	 ebp
  00001	8b ec		 mov	 ebp, esp
  00003	83 ec 1c	 sub	 esp, 28			; 0000001cH
  00006	a1 00 00 00 00	 mov	 eax, DWORD PTR ___security_cookie
  0000b	33 c5		 xor	 eax, ebp
  0000d	89 45 fc	 mov	 DWORD PTR __$ArrayPad$[ebp], eax
  00010	53		 push	 ebx
  00011	56		 push	 esi
  00012	8b 75 0c	 mov	 esi, DWORD PTR _pStage$[ebp]
  00015	57		 push	 edi
  00016	8b 7d 08	 mov	 edi, DWORD PTR _pChar$[ebp]
  00019	8b d9		 mov	 ebx, ecx

; 564  : 	{
; 565  : 		D3DXVECTOR3 vScale( FLOAT1, FLOAT1, FLOAT1 );

  0001b	89 5d e8	 mov	 DWORD PTR _this$GSCopy$[ebp], ebx
  0001e	89 75 e4	 mov	 DWORD PTR _pStage$GSCopy$[ebp], esi
  00021	85 ff		 test	 edi, edi
  00023	0f 84 e0 00 00
	00		 je	 $LN1@UpdateAimM

; 547  : 	if ( !pChar ) return;
; 548  : 	if ( !pStage ) return;

  00029	85 f6		 test	 esi, esi
  0002b	0f 84 d8 00 00
	00		 je	 $LN1@UpdateAimM

; 549  : 		
; 550  : 	if( m_szTargetName.IsEmpty() )

  00031	8d 8b 5c 0f 00
	00		 lea	 ecx, DWORD PTR [ebx+3932]
  00037	89 4d ec	 mov	 DWORD PTR tv226[ebp], ecx
  0003a	ff 15 00 00 00
	00		 call	 DWORD PTR __imp_?IsEmpty@ioHashString@@QBE_NXZ
  00040	84 c0		 test	 al, al
  00042	74 0d		 je	 SHORT $LN4@UpdateAimM

; 551  : 	{			
; 552  : 		DestroyAimMarker( pChar );

  00044	57		 push	 edi
  00045	8b cb		 mov	 ecx, ebx
  00047	e8 00 00 00 00	 call	 ?DestroyAimMarker@ioRangeTargetShotSkill@@IAEXPAVioBaseChar@@@Z ; ioRangeTargetShotSkill::DestroyAimMarker

; 553  : 		return;

  0004c	e9 b8 00 00 00	 jmp	 $LN1@UpdateAimM
$LN4@UpdateAimM:

; 554  : 	}
; 555  : 
; 556  : 	if( m_dwAimMarkerID == -1 && !m_szTargetName.IsEmpty() )

  00051	83 bb 20 10 00
	00 ff		 cmp	 DWORD PTR [ebx+4128], -1
  00058	75 1b		 jne	 SHORT $LN3@UpdateAimM
  0005a	8b 4d ec	 mov	 ecx, DWORD PTR tv226[ebp]
  0005d	ff 15 00 00 00
	00		 call	 DWORD PTR __imp_?IsEmpty@ioHashString@@QBE_NXZ
  00063	84 c0		 test	 al, al
  00065	75 0e		 jne	 SHORT $LN3@UpdateAimM

; 557  : 	{
; 558  : 		CreateAimMarker( pChar, pStage );

  00067	56		 push	 esi
  00068	57		 push	 edi
  00069	8b cb		 mov	 ecx, ebx
  0006b	e8 00 00 00 00	 call	 ?CreateAimMarker@ioRangeTargetShotSkill@@IAEXPAVioBaseChar@@PAVioPlayStage@@@Z ; ioRangeTargetShotSkill::CreateAimMarker

; 559  : 		return;

  00070	e9 94 00 00 00	 jmp	 $LN1@UpdateAimM
$LN3@UpdateAimM:

; 560  : 	}
; 561  : 
; 562  : 	ioBaseChar *pTarget = pStage->GetBaseChar( m_szTargetName );

  00075	ff 75 ec	 push	 DWORD PTR tv226[ebp]
  00078	8b ce		 mov	 ecx, esi
  0007a	e8 00 00 00 00	 call	 ?GetBaseChar@ioPlayStage@@QAEPAVioBaseChar@@ABVioHashString@@@Z ; ioPlayStage::GetBaseChar
  0007f	8b d8		 mov	 ebx, eax

; 563  : 	if ( pTarget )

  00081	85 db		 test	 ebx, ebx
  00083	0f 84 80 00 00
	00		 je	 $LN1@UpdateAimM

; 564  : 	{
; 565  : 		D3DXVECTOR3 vScale( FLOAT1, FLOAT1, FLOAT1 );

  00089	b8 01 00 00 00	 mov	 eax, 1
  0008e	b8 01 00 00 00	 mov	 eax, 1
  00093	b8 01 00 00 00	 mov	 eax, 1

; 566  : 		D3DXVECTOR3 vTargetPos = pTarget->GetWorldPosition();

  00098	8b 03		 mov	 eax, DWORD PTR [ebx]
  0009a	8b cb		 mov	 ecx, ebx
  0009c	ff 50 70	 call	 DWORD PTR [eax+112]
  0009f	8b f0		 mov	 esi, eax
  000a1	8d 7d f0	 lea	 edi, DWORD PTR _vTargetPos$531398[ebp]
  000a4	a5		 movsd
  000a5	a5		 movsd
  000a6	a5		 movsd

; 567  : 		vTargetPos.y = pTarget->GetMidHeightByRate();

  000a7	b8 05 00 00 00	 mov	 eax, 5
  000ac	8b c8		 mov	 ecx, eax
  000ae	b8 0a 00 00 00	 mov	 eax, 10			; 0000000aH
  000b3	89 4d ec	 mov	 DWORD PTR tv242[ebp], ecx
  000b6	db 45 ec	 fild	 DWORD PTR tv242[ebp]
  000b9	85 c9		 test	 ecx, ecx
  000bb	79 06		 jns	 SHORT $LN21@UpdateAimM
  000bd	d8 05 00 00 00
	00		 fadd	 DWORD PTR __real@4f800000
$LN21@UpdateAimM:
  000c3	89 45 ec	 mov	 DWORD PTR tv238[ebp], eax
  000c6	db 45 ec	 fild	 DWORD PTR tv238[ebp]
  000c9	85 c0		 test	 eax, eax
  000cb	79 06		 jns	 SHORT $LN22@UpdateAimM
  000cd	d8 05 00 00 00
	00		 fadd	 DWORD PTR __real@4f800000
$LN22@UpdateAimM:
  000d3	de f9		 fdivp	 ST(1), ST(0)
  000d5	51		 push	 ecx
  000d6	8b cb		 mov	 ecx, ebx
  000d8	d9 5d ec	 fstp	 DWORD PTR tv234[ebp]
  000db	d9 45 ec	 fld	 DWORD PTR tv234[ebp]
  000de	d9 1c 24	 fstp	 DWORD PTR [esp]
  000e1	e8 00 00 00 00	 call	 ?GetMidHeightByRate@ioGameEntity@@QBEMM@Z ; ioGameEntity::GetMidHeightByRate
  000e6	d9 5d f4	 fstp	 DWORD PTR _vTargetPos$531398[ebp+4]

; 568  : 		
; 569  : 		ioMapEffect *pMapEffect = pStage->FindMapEffect( m_dwAimMarkerID );

  000e9	8b 45 e8	 mov	 eax, DWORD PTR _this$GSCopy$[ebp]
  000ec	ff b0 20 10 00
	00		 push	 DWORD PTR [eax+4128]
  000f2	8b 4d e4	 mov	 ecx, DWORD PTR _pStage$GSCopy$[ebp]
  000f5	e8 00 00 00 00	 call	 ?FindMapEffect@ioPlayStage@@QAEPAVioMapEffect@@K@Z ; ioPlayStage::FindMapEffect

; 570  : 		if( pMapEffect )

  000fa	85 c0		 test	 eax, eax
  000fc	74 0b		 je	 SHORT $LN1@UpdateAimM

; 571  : 		{
; 572  : 			pMapEffect->SetWorldPosition( vTargetPos );

  000fe	8d 4d f0	 lea	 ecx, DWORD PTR _vTargetPos$531398[ebp]
  00101	51		 push	 ecx
  00102	8b c8		 mov	 ecx, eax
  00104	e8 00 00 00 00	 call	 ?SetWorldPosition@ioMapEffect@@QAEXABUD3DXVECTOR3@@@Z ; ioMapEffect::SetWorldPosition
$LN1@UpdateAimM:

; 573  : 		}
; 574  : 	}
; 575  : }

  00109	8b 4d fc	 mov	 ecx, DWORD PTR __$ArrayPad$[ebp]
  0010c	5f		 pop	 edi
  0010d	5e		 pop	 esi
  0010e	33 cd		 xor	 ecx, ebp
  00110	5b		 pop	 ebx
  00111	e8 00 00 00 00	 call	 @__security_check_cookie@4
  00116	c9		 leave
  00117	c2 08 00	 ret	 8
?UpdateAimMarker@ioRangeTargetShotSkill@@IAEXPAVioBaseChar@@PAVioPlayStage@@@Z ENDP ; ioRangeTargetShotSkill::UpdateAimMarker
_TEXT	ENDS
PUBLIC	?IsEnableTargetState@ioRangeTargetShotSkill@@IAE_NPAVioBaseChar@@_N@Z ; ioRangeTargetShotSkill::IsEnableTargetState
EXTRN	?CheckTargetWoundType@ioBaseChar@@QAE_NW4TargetWoundType@@@Z:PROC ; ioBaseChar::CheckTargetWoundType
EXTRN	?IsEnableTarget@ioBaseChar@@QAE_N_N0@Z:PROC	; ioBaseChar::IsEnableTarget
EXTRN	?IsSystemState@ioBaseChar@@QAE_NXZ:PROC		; ioBaseChar::IsSystemState
; Function compile flags: /Ogsp
;	COMDAT ?IsEnableTargetState@ioRangeTargetShotSkill@@IAE_NPAVioBaseChar@@_N@Z
_TEXT	SEGMENT
_pTarget$ = 8						; size = 4
_bCheckTargetWound$ = 12				; size = 1
?IsEnableTargetState@ioRangeTargetShotSkill@@IAE_NPAVioBaseChar@@_N@Z PROC ; ioRangeTargetShotSkill::IsEnableTargetState, COMDAT
; _this$ = ecx

; 590  : {

  00000	55		 push	 ebp
  00001	8b ec		 mov	 ebp, esp
  00003	56		 push	 esi

; 591  : 	if( !pTarget )

  00004	8b 75 08	 mov	 esi, DWORD PTR _pTarget$[ebp]
  00007	57		 push	 edi
  00008	8b f9		 mov	 edi, ecx
  0000a	85 f6		 test	 esi, esi
  0000c	75 04		 jne	 SHORT $LN7@IsEnableTa
$LN14@IsEnableTa:

; 592  : 		return false;

  0000e	32 c0		 xor	 al, al
  00010	eb 50		 jmp	 SHORT $LN8@IsEnableTa
$LN7@IsEnableTa:

; 593  : 
; 594  : 	if( pTarget->IsSystemState() )

  00012	8b ce		 mov	 ecx, esi
  00014	e8 00 00 00 00	 call	 ?IsSystemState@ioBaseChar@@QAE_NXZ ; ioBaseChar::IsSystemState
  00019	84 c0		 test	 al, al

; 595  : 		return false;

  0001b	75 f1		 jne	 SHORT $LN14@IsEnableTa

; 596  : 
; 597  : 	if( !pTarget->IsEnableTarget() )

  0001d	6a 01		 push	 1
  0001f	6a 01		 push	 1
  00021	8b ce		 mov	 ecx, esi
  00023	e8 00 00 00 00	 call	 ?IsEnableTarget@ioBaseChar@@QAE_N_N0@Z ; ioBaseChar::IsEnableTarget
  00028	84 c0		 test	 al, al

; 598  : 		return false;

  0002a	74 e2		 je	 SHORT $LN14@IsEnableTa

; 599  : 
; 600  : 	ioPlayStage *pStage = pTarget->GetCreator();

  0002c	8b 86 44 03 00
	00		 mov	 eax, DWORD PTR [esi+836]

; 601  : 	if( pStage )

  00032	85 c0		 test	 eax, eax
  00034	74 13		 je	 SHORT $LN3@IsEnableTa

; 602  : 	{
; 603  : 		ioPlayMode *pMode = pStage->GetPlayMode();
; 604  : 		if( pMode && pMode->GetModeType() == MT_FOOTBALL )

  00036	83 b8 10 01 00
	00 00		 cmp	 DWORD PTR [eax+272], 0
  0003d	74 0a		 je	 SHORT $LN3@IsEnableTa
  0003f	e8 00 00 00 00	 call	 ?GetModeType@ioPlayMode@@SA?AW4ModeType@@XZ ; ioPlayMode::GetModeType
  00044	83 f8 09	 cmp	 eax, 9

; 605  : 			return false;

  00047	74 c5		 je	 SHORT $LN14@IsEnableTa
$LN3@IsEnableTa:

; 606  : 	}
; 607  : 
; 608  : 	if( bCheckTargetWound )

  00049	80 7d 0c 00	 cmp	 BYTE PTR _bCheckTargetWound$[ebp], 0
  0004d	74 11		 je	 SHORT $LN1@IsEnableTa

; 609  : 	{
; 610  : 		if( !pTarget->CheckTargetWoundType( m_TargetWoundType ) )

  0004f	ff b7 24 10 00
	00		 push	 DWORD PTR [edi+4132]
  00055	8b ce		 mov	 ecx, esi
  00057	e8 00 00 00 00	 call	 ?CheckTargetWoundType@ioBaseChar@@QAE_NW4TargetWoundType@@@Z ; ioBaseChar::CheckTargetWoundType
  0005c	84 c0		 test	 al, al

; 611  : 			return false;

  0005e	74 ae		 je	 SHORT $LN14@IsEnableTa
$LN1@IsEnableTa:

; 612  : 	}
; 613  : 
; 614  : 	return true;

  00060	b0 01		 mov	 al, 1
$LN8@IsEnableTa:
  00062	5f		 pop	 edi
  00063	5e		 pop	 esi

; 615  : }

  00064	5d		 pop	 ebp
  00065	c2 08 00	 ret	 8
?IsEnableTargetState@ioRangeTargetShotSkill@@IAE_NPAVioBaseChar@@_N@Z ENDP ; ioRangeTargetShotSkill::IsEnableTargetState
_TEXT	ENDS
PUBLIC	__real@00000000
PUBLIC	__real@42aa0000
PUBLIC	_pChar$GSCopy$
PUBLIC	?SetNearAimFireState@ioRangeTargetShotSkill@@IAEXPAVioBaseChar@@PAVioPlayStage@@@Z ; ioRangeTargetShotSkill::SetNearAimFireState
EXTRN	__imp_?GetAnimationFullTime@ioEntityGroup@@QAEMH@Z:PROC
EXTRN	?RefreshFireTimeListWithBase@ioBaseChar@@QAEXKHABV?$vector@UWeaponInfo@@V?$allocator@UWeaponInfo@@@std@@@std@@W4FireTimeType@@MK_N@Z:PROC ; ioBaseChar::RefreshFireTimeListWithBase
EXTRN	__ftol2:PROC
;	COMDAT __real@00000000
; File d:\lost saga for developer\youtube\tutorial\source\src\lsclient\stringprotect.h
CONST	SEGMENT
__real@00000000 DD 000000000r			; 0
CONST	ENDS
;	COMDAT __real@42aa0000
CONST	SEGMENT
__real@42aa0000 DD 042aa0000r			; 85
CONST	ENDS
;	COMDAT xdata$x
xdata$x	SEGMENT
__ehfuncinfo$?SetNearAimFireState@ioRangeTargetShotSkill@@IAEXPAVioBaseChar@@PAVioPlayStage@@@Z DD 019930522H
	DD	05H
	DD	FLAT:__unwindtable$?SetNearAimFireState@ioRangeTargetShotSkill@@IAEXPAVioBaseChar@@PAVioPlayStage@@@Z
	DD	2 DUP(00H)
	DD	2 DUP(00H)
	DD	00H
	DD	01H
__unwindtable$?SetNearAimFireState@ioRangeTargetShotSkill@@IAEXPAVioBaseChar@@PAVioPlayStage@@@Z DD 0ffffffffH
	DD	FLAT:__unwindfunclet$?SetNearAimFireState@ioRangeTargetShotSkill@@IAEXPAVioBaseChar@@PAVioPlayStage@@@Z$0
	DD	0ffffffffH
	DD	FLAT:__unwindfunclet$?SetNearAimFireState@ioRangeTargetShotSkill@@IAEXPAVioBaseChar@@PAVioPlayStage@@@Z$2
	DD	0ffffffffH
	DD	FLAT:__unwindfunclet$?SetNearAimFireState@ioRangeTargetShotSkill@@IAEXPAVioBaseChar@@PAVioPlayStage@@@Z$4
	DD	0ffffffffH
	DD	FLAT:__unwindfunclet$?SetNearAimFireState@ioRangeTargetShotSkill@@IAEXPAVioBaseChar@@PAVioPlayStage@@@Z$5
	DD	0ffffffffH
	DD	FLAT:__unwindfunclet$?SetNearAimFireState@ioRangeTargetShotSkill@@IAEXPAVioBaseChar@@PAVioPlayStage@@@Z$6
; Function compile flags: /Ogsp
; File d:\lost saga for developer\youtube\tutorial\source\src\lsclient\iorangetargetshotskill.cpp
xdata$x	ENDS
;	COMDAT ?SetNearAimFireState@ioRangeTargetShotSkill@@IAEXPAVioBaseChar@@PAVioPlayStage@@@Z
_TEXT	SEGMENT
$T539221 = -112						; size = 16
$T539112 = -96						; size = 16
$T539004 = -96						; size = 16
_pChar$GSCopy$ = -80					; size = 4
tv3053 = -76						; size = 4
tv3037 = -76						; size = 4
tv3025 = -76						; size = 4
$T538913 = -76						; size = 4
$T538912 = -76						; size = 4
_iAniID$ = -72						; size = 4
tv3093 = -68						; size = 4
$T539220 = -68						; size = 4
$T539110 = -68						; size = 4
_dwPreDelay$ = -68					; size = 4
_fTimeRate$ = -64					; size = 4
_pGrp$ = -60						; size = 4
tv3087 = -56						; size = 4
tv3082 = -56						; size = 4
_value$538937 = -56					; size = 4
_dwCurTime$ = -56					; size = 4
$T538914 = -56						; size = 4
$T538911 = -56						; size = 4
_fWeight$ = -56						; size = 4
_szEncEventType$539218 = -52				; size = 12
_szEncEventType$539087 = -36				; size = 13
_szEncEventType$538957 = -32				; size = 7
__$EHRec$ = -12						; size = 12
_pChar$ = 8						; size = 4
_pStage$ = 12						; size = 4
?SetNearAimFireState@ioRangeTargetShotSkill@@IAEXPAVioBaseChar@@PAVioPlayStage@@@Z PROC ; ioRangeTargetShotSkill::SetNearAimFireState, COMDAT
; _this$ = ecx

; 626  : {

  00000	6a 64		 push	 100			; 00000064H
  00002	b8 00 00 00 00	 mov	 eax, __ehhandler$?SetNearAimFireState@ioRangeTargetShotSkill@@IAEXPAVioBaseChar@@PAVioPlayStage@@@Z
  00007	e8 00 00 00 00	 call	 __EH_prolog3_GS
  0000c	8b 5d 08	 mov	 ebx, DWORD PTR _pChar$[ebp]
  0000f	8b f1		 mov	 esi, ecx

; 678  : 	m_dwEnableReserveTime += pGrp->GetAnimationEventTime_e( iAniID, "key_reserve" ) * fTimeRate;

  00011	89 5d b0	 mov	 DWORD PTR _pChar$GSCopy$[ebp], ebx
  00014	85 db		 test	 ebx, ebx
  00016	0f 84 c9 03 00
	00		 je	 $LN7@SetNearAim

; 627  : 	if ( !pChar ) return;
; 628  : 	if ( !pStage ) return;

  0001c	83 7d 0c 00	 cmp	 DWORD PTR _pStage$[ebp], 0
  00020	0f 84 bf 03 00
	00		 je	 $LN7@SetNearAim

; 629  : 
; 630  : 	m_SkillState = SS_NEAR_AIM_FIRE;

  00026	c7 86 58 0f 00
	00 02 00 00 00	 mov	 DWORD PTR [esi+3928], 2

; 631  : 	
; 632  : 	ioEntityGroup *pGrp = pChar->GetGroup();

  00030	8b 4b 04	 mov	 ecx, DWORD PTR [ebx+4]

; 633  : 	int iAniID = pGrp->GetAnimationIdx( m_NearAimAttribute.m_AttackAnimation );

  00033	8d 86 4c 11 00
	00		 lea	 eax, DWORD PTR [esi+4428]
  00039	50		 push	 eax
  0003a	89 4d c4	 mov	 DWORD PTR _pGrp$[ebp], ecx
  0003d	ff 15 00 00 00
	00		 call	 DWORD PTR __imp_?GetAnimationIdx@ioEntityGroup@@QAEHABVioHashString@@@Z
  00043	89 45 b8	 mov	 DWORD PTR _iAniID$[ebp], eax

; 634  : 	if( iAniID == -1 )	return;

  00046	83 f8 ff	 cmp	 eax, -1
  00049	0f 84 96 03 00
	00		 je	 $LN7@SetNearAim

; 635  : 
; 636  : 	float fTimeRate  = m_NearAimAttribute.m_fAttackAniRate * m_fExtraAniRate;

  0004f	f3 0f 10 86 5c
	11 00 00	 movss	 xmm0, DWORD PTR [esi+4444]
  00057	f3 0f 10 8e 68
	03 00 00	 movss	 xmm1, DWORD PTR [esi+872]
  0005f	0f 5a c0	 cvtps2pd xmm0, xmm0
  00062	0f 5a c9	 cvtps2pd xmm1, xmm1
  00065	f2 0f 59 c1	 mulsd	 xmm0, xmm1

; 637  : 	if ( fTimeRate <= 0.0f )

  00069	0f 57 c9	 xorps	 xmm1, xmm1
  0006c	66 0f 5a c0	 cvtpd2ps xmm0, xmm0
  00070	0f 2f c8	 comiss	 xmm1, xmm0
  00073	f3 0f 11 45 c0	 movss	 DWORD PTR _fTimeRate$[ebp], xmm0
  00078	72 1d		 jb	 SHORT $LN3@SetNearAim

; 638  : 		fTimeRate = FLOAT1;

  0007a	b8 01 00 00 00	 mov	 eax, 1
  0007f	89 45 bc	 mov	 DWORD PTR tv3093[ebp], eax
  00082	db 45 bc	 fild	 DWORD PTR tv3093[ebp]
  00085	85 c0		 test	 eax, eax
  00087	79 06		 jns	 SHORT $LN357@SetNearAim
  00089	d8 05 00 00 00
	00		 fadd	 DWORD PTR __real@4f800000
$LN357@SetNearAim:
  0008f	d9 5d c0	 fstp	 DWORD PTR _fTimeRate$[ebp]
  00092	f3 0f 10 45 c0	 movss	 xmm0, DWORD PTR _fTimeRate$[ebp]
$LN3@SetNearAim:

; 639  : 
; 640  : 	DWORD dwPreDelay = m_NearAimAttribute.m_dwPreDelay;

  00097	8b be 94 11 00
	00		 mov	 edi, DWORD PTR [esi+4500]

; 641  : 	
; 642  : 	pChar->RefreshFireTimeListWithBase( m_dwWeaponBaseIndex,
; 643  : 										iAniID,
; 644  : 										m_NearAimAttribute.m_vWeaponInfoList,
; 645  : 										FTT_SKILL_ATTACK,
; 646  : 										fTimeRate,
; 647  : 										dwPreDelay );

  0009d	6a 00		 push	 0
  0009f	57		 push	 edi
  000a0	51		 push	 ecx
  000a1	f3 0f 11 04 24	 movss	 DWORD PTR [esp], xmm0
  000a6	6a 04		 push	 4
  000a8	8d 86 74 11 00
	00		 lea	 eax, DWORD PTR [esi+4468]
  000ae	50		 push	 eax
  000af	ff 75 b8	 push	 DWORD PTR _iAniID$[ebp]
  000b2	8b cb		 mov	 ecx, ebx
  000b4	ff 76 78	 push	 DWORD PTR [esi+120]
  000b7	89 7d bc	 mov	 DWORD PTR _dwPreDelay$[ebp], edi
  000ba	e8 00 00 00 00	 call	 ?RefreshFireTimeListWithBase@ioBaseChar@@QAEXKHABV?$vector@UWeaponInfo@@V?$allocator@UWeaponInfo@@@std@@@std@@W4FireTimeType@@MK_N@Z ; ioBaseChar::RefreshFireTimeListWithBase

; 648  : 	pChar->IncreaseWeaponIndexBase();

  000bf	8b cb		 mov	 ecx, ebx
  000c1	e8 00 00 00 00	 call	 ?IncreaseWeaponIndexBase@ioBaseChar@@QAEKXZ ; ioBaseChar::IncreaseWeaponIndexBase

; 649  : 
; 650  : 	pGrp->ClearAllActionAni( FLOAT100, true );

  000c6	b8 64 00 00 00	 mov	 eax, 100		; 00000064H
  000cb	33 db		 xor	 ebx, ebx
  000cd	43		 inc	 ebx
  000ce	89 45 c8	 mov	 DWORD PTR tv3087[ebp], eax
  000d1	db 45 c8	 fild	 DWORD PTR tv3087[ebp]
  000d4	53		 push	 ebx
  000d5	85 c0		 test	 eax, eax
  000d7	79 06		 jns	 SHORT $LN358@SetNearAim
  000d9	d8 05 00 00 00
	00		 fadd	 DWORD PTR __real@4f800000
$LN358@SetNearAim:
  000df	51		 push	 ecx
  000e0	8b 4d c4	 mov	 ecx, DWORD PTR _pGrp$[ebp]
  000e3	d9 1c 24	 fstp	 DWORD PTR [esp]
  000e6	ff 15 00 00 00
	00		 call	 DWORD PTR __imp_?ClearAllActionAni@ioEntityGroup@@QAEXM_N@Z

; 651  : 	pGrp->ClearAllLoopAni( FLOAT100, true );

  000ec	b8 64 00 00 00	 mov	 eax, 100		; 00000064H
  000f1	89 45 c8	 mov	 DWORD PTR tv3082[ebp], eax
  000f4	db 45 c8	 fild	 DWORD PTR tv3082[ebp]
  000f7	53		 push	 ebx
  000f8	85 c0		 test	 eax, eax
  000fa	79 06		 jns	 SHORT $LN359@SetNearAim
  000fc	d8 05 00 00 00
	00		 fadd	 DWORD PTR __real@4f800000
$LN359@SetNearAim:
  00102	51		 push	 ecx
  00103	8b 4d c4	 mov	 ecx, DWORD PTR _pGrp$[ebp]
  00106	d9 1c 24	 fstp	 DWORD PTR [esp]
  00109	ff 15 00 00 00
	00		 call	 DWORD PTR __imp_?ClearAllLoopAni@ioEntityGroup@@QAEXM_N@Z

; 652  : 	
; 653  : 	float fWeight = GetAimedUpDownWeight( m_vAttackDir, 85.0f );

  0010f	f3 0f 10 05 00
	00 00 00	 movss	 xmm0, DWORD PTR __real@42aa0000
  00117	51		 push	 ecx
  00118	8d 86 f0 11 00
	00		 lea	 eax, DWORD PTR [esi+4592]
  0011e	f3 0f 11 04 24	 movss	 DWORD PTR [esp], xmm0
  00123	50		 push	 eax
  00124	8b ce		 mov	 ecx, esi
  00126	e8 00 00 00 00	 call	 ?GetAimedUpDownWeight@ioRangeTargetShotSkill@@IAEMABUD3DXVECTOR3@@M@Z ; ioRangeTargetShotSkill::GetAimedUpDownWeight
  0012b	d9 5d c8	 fstp	 DWORD PTR _fWeight$[ebp]

; 654  : 	if( m_vAttackDir.y >= 0.0f )
; 655  : 	{
; 656  : 		AimedFireToUp( pGrp, m_NearAimAttribute.m_AttackAnimation, m_NearUpAnimation, fWeight, fTimeRate, dwPreDelay, true );

  0012e	d9 45 c0	 fld	 DWORD PTR _fTimeRate$[ebp]
  00131	f3 0f 10 86 f4
	11 00 00	 movss	 xmm0, DWORD PTR [esi+4596]
  00139	53		 push	 ebx
  0013a	57		 push	 edi
  0013b	8b 3d 00 00 00
	00		 mov	 edi, DWORD PTR __imp_??0ioHashString@@QAE@ABV0@@Z
  00141	83 ec 18	 sub	 esp, 24			; 00000018H
  00144	0f 2f 05 00 00
	00 00		 comiss	 xmm0, DWORD PTR __real@00000000
  0014b	d9 5c 24 14	 fstp	 DWORD PTR [esp+20]
  0014f	d9 45 c8	 fld	 DWORD PTR _fWeight$[ebp]
  00152	8b cc		 mov	 ecx, esp
  00154	d9 5c 24 10	 fstp	 DWORD PTR [esp+16]
  00158	72 31		 jb	 SHORT $LN2@SetNearAim
  0015a	8d 86 bc 0f 00
	00		 lea	 eax, DWORD PTR [esi+4028]
  00160	89 65 c8	 mov	 DWORD PTR $T538911[ebp], esp
  00163	50		 push	 eax
  00164	ff d7		 call	 edi
  00166	83 65 fc 00	 and	 DWORD PTR __$EHRec$[ebp+8], 0
  0016a	83 ec 10	 sub	 esp, 16			; 00000010H
  0016d	8d 86 4c 11 00
	00		 lea	 eax, DWORD PTR [esi+4428]
  00173	8b cc		 mov	 ecx, esp
  00175	89 65 b4	 mov	 DWORD PTR $T538912[ebp], esp
  00178	50		 push	 eax
  00179	ff d7		 call	 edi
  0017b	ff 75 c4	 push	 DWORD PTR _pGrp$[ebp]
  0017e	83 4d fc ff	 or	 DWORD PTR __$EHRec$[ebp+8], -1
  00182	8b ce		 mov	 ecx, esi
  00184	e8 00 00 00 00	 call	 ?AimedFireToUp@ioRangeTargetShotSkill@@IAEXPAVioEntityGroup@@VioHashString@@1MMK_N@Z ; ioRangeTargetShotSkill::AimedFireToUp

; 657  : 	}
; 658  : 	else

  00189	eb 2e		 jmp	 SHORT $LN1@SetNearAim
$LN2@SetNearAim:

; 659  : 	{
; 660  : 		AimedFireToDown( pGrp, m_NearAimAttribute.m_AttackAnimation, m_NearDownAnimation, fWeight, fTimeRate, dwPreDelay, true );

  0018b	8d 86 cc 0f 00
	00		 lea	 eax, DWORD PTR [esi+4044]
  00191	89 65 b4	 mov	 DWORD PTR $T538913[ebp], esp
  00194	50		 push	 eax
  00195	ff d7		 call	 edi
  00197	83 ec 10	 sub	 esp, 16			; 00000010H
  0019a	8d 86 4c 11 00
	00		 lea	 eax, DWORD PTR [esi+4428]
  001a0	8b cc		 mov	 ecx, esp
  001a2	89 65 c8	 mov	 DWORD PTR $T538914[ebp], esp
  001a5	50		 push	 eax
  001a6	89 5d fc	 mov	 DWORD PTR __$EHRec$[ebp+8], ebx
  001a9	ff d7		 call	 edi
  001ab	ff 75 c4	 push	 DWORD PTR _pGrp$[ebp]
  001ae	83 4d fc ff	 or	 DWORD PTR __$EHRec$[ebp+8], -1
  001b2	8b ce		 mov	 ecx, esi
  001b4	e8 00 00 00 00	 call	 ?AimedFireToDown@ioRangeTargetShotSkill@@IAEXPAVioEntityGroup@@VioHashString@@1MMK_N@Z ; ioRangeTargetShotSkill::AimedFireToDown
$LN1@SetNearAim:

; 661  : 	}
; 662  : 
; 663  : 	m_dwMotionStartTime = m_dwMotionEndTime = FRAMEGETTIME();

  001b9	8b 1d 00 00 00
	00		 mov	 ebx, DWORD PTR __imp_?GetSingleton@ioFrameTimer@@SAAAV1@XZ
  001bf	ff d3		 call	 ebx
  001c1	8b c8		 mov	 ecx, eax
  001c3	ff 15 00 00 00
	00		 call	 DWORD PTR __imp_?GetLoopSec@ioFrameTimer@@QBEKXZ
  001c9	89 86 d8 02 00
	00		 mov	 DWORD PTR [esi+728], eax
  001cf	89 45 c8	 mov	 DWORD PTR _value$538937[ebp], eax
  001d2	8d 45 c8	 lea	 eax, DWORD PTR _value$538937[ebp]
  001d5	50		 push	 eax
  001d6	8d 8e a8 02 00
	00		 lea	 ecx, DWORD PTR [esi+680]
  001dc	e8 00 00 00 00	 call	 ?EncryptValueToPool@?$CEncrypt@K@@AAEXPBD@Z ; CEncrypt<unsigned long>::EncryptValueToPool

; 664  : 	m_dwMotionEndTime += pGrp->GetAnimationFullTime( iAniID ) * fTimeRate;

  001e1	ff 75 b8	 push	 DWORD PTR _iAniID$[ebp]
  001e4	8b 4d c4	 mov	 ecx, DWORD PTR _pGrp$[ebp]
  001e7	ff 15 00 00 00
	00		 call	 DWORD PTR __imp_?GetAnimationFullTime@ioEntityGroup@@QAEMH@Z

; 665  : 	m_dwMotionEndTime += dwPreDelay + m_NearAimAttribute.m_dwEndDelay;

  001ed	d8 4d c0	 fmul	 DWORD PTR _fTimeRate$[ebp]
  001f0	8b 86 d8 02 00
	00		 mov	 eax, DWORD PTR [esi+728]
  001f6	db 86 d8 02 00
	00		 fild	 DWORD PTR [esi+728]
  001fc	85 c0		 test	 eax, eax
  001fe	79 06		 jns	 SHORT $LN360@SetNearAim
  00200	dc 05 00 00 00
	00		 fadd	 QWORD PTR __real@41f0000000000000
$LN360@SetNearAim:

; 664  : 	m_dwMotionEndTime += pGrp->GetAnimationFullTime( iAniID ) * fTimeRate;

  00206	de c1		 faddp	 ST(1), ST(0)

; 665  : 	m_dwMotionEndTime += dwPreDelay + m_NearAimAttribute.m_dwEndDelay;

  00208	e8 00 00 00 00	 call	 __ftol2
  0020d	03 86 98 11 00
	00		 add	 eax, DWORD PTR [esi+4504]
  00213	03 45 bc	 add	 eax, DWORD PTR _dwPreDelay$[ebp]
  00216	89 86 d8 02 00
	00		 mov	 DWORD PTR [esi+728], eax

; 666  : 
; 667  : 	DWORD dwCurTime = FRAMEGETTIME();

  0021c	ff d3		 call	 ebx
  0021e	8b c8		 mov	 ecx, eax
  00220	ff 15 00 00 00
	00		 call	 DWORD PTR __imp_?GetLoopSec@ioFrameTimer@@QBEKXZ

; 668  : 	DWORD dwFireStartTime;
; 669  : 	dwFireStartTime = m_dwFireMotionEndTime = dwCurTime;
; 670  : 
; 671  : 	dwFireStartTime += dwPreDelay;
; 672  : 	dwFireStartTime += pGrp->GetAnimationEventTime_e( iAniID, "fire_s" ) * fTimeRate;

  00226	6a 04		 push	 4
  00228	89 45 c8	 mov	 DWORD PTR _dwCurTime$[ebp], eax
  0022b	89 86 24 02 00
	00		 mov	 DWORD PTR [esi+548], eax
  00231	c7 45 e0 8b 85
	99 8f		 mov	 DWORD PTR _szEncEventType$538957[ebp], -1885764213 ; 8f99858bH
  00238	81 75 e0 ed ec
	eb ea		 xor	 DWORD PTR _szEncEventType$538957[ebp], -353637139 ; eaebecedH
  0023f	66 c7 45 e4 b2
	9f		 mov	 WORD PTR _szEncEventType$538957[ebp+4], 40882 ; 00009fb2H
  00245	c6 45 e6 00	 mov	 BYTE PTR _szEncEventType$538957[ebp+6], 0
  00249	58		 pop	 eax
$LL124@SetNearAim:
  0024a	8b c8		 mov	 ecx, eax
  0024c	81 e1 03 00 00
	80		 and	 ecx, -2147483645	; 80000003H
  00252	79 05		 jns	 SHORT $LN361@SetNearAim
  00254	49		 dec	 ecx
  00255	83 c9 fc	 or	 ecx, -4			; fffffffcH
  00258	41		 inc	 ecx
$LN361@SetNearAim:
  00259	b2 ed		 mov	 dl, -19			; ffffffedH
  0025b	2a d1		 sub	 dl, cl
  0025d	30 54 05 e0	 xor	 BYTE PTR _szEncEventType$538957[ebp+eax], dl
  00261	40		 inc	 eax
  00262	83 f8 06	 cmp	 eax, 6
  00265	7c e3		 jl	 SHORT $LL124@SetNearAim
  00267	8b 1d 00 00 00
	00		 mov	 ebx, DWORD PTR __imp_??0ioHashString@@QAE@PBD@Z
  0026d	8d 45 e0	 lea	 eax, DWORD PTR _szEncEventType$538957[ebp]
  00270	50		 push	 eax
  00271	8d 4d a0	 lea	 ecx, DWORD PTR $T539004[ebp]
  00274	ff d3		 call	 ebx
  00276	8b 4d c4	 mov	 ecx, DWORD PTR _pGrp$[ebp]
  00279	8d 45 a0	 lea	 eax, DWORD PTR $T539004[ebp]
  0027c	50		 push	 eax
  0027d	ff 75 b8	 push	 DWORD PTR _iAniID$[ebp]
  00280	c7 45 fc 02 00
	00 00		 mov	 DWORD PTR __$EHRec$[ebp+8], 2
  00287	ff 15 00 00 00
	00		 call	 DWORD PTR __imp_?GetAnimationEventTime@ioEntityGroup@@QAEMHABVioHashString@@@Z
  0028d	dd d8		 fstp	 ST(0)
  0028f	83 4d fc ff	 or	 DWORD PTR __$EHRec$[ebp+8], -1
  00293	8d 4d a0	 lea	 ecx, DWORD PTR $T539004[ebp]
  00296	ff 15 00 00 00
	00		 call	 DWORD PTR __imp_??1ioHashString@@QAE@XZ

; 673  : 
; 674  : 	m_dwFireMotionEndTime += dwPreDelay;

  0029c	8b 45 bc	 mov	 eax, DWORD PTR _dwPreDelay$[ebp]
  0029f	01 86 24 02 00
	00		 add	 DWORD PTR [esi+548], eax
  002a5	6a 03		 push	 3

; 675  : 	m_dwFireMotionEndTime += pGrp->GetAnimationEventTime_e( iAniID, "firemotion_e" ) * fTimeRate;

  002a7	c7 45 dc 8b 85
	99 8f		 mov	 DWORD PTR _szEncEventType$539087[ebp], -1885764213 ; 8f99858bH
  002ae	c7 45 e0 80 83
	9f 83		 mov	 DWORD PTR _szEncEventType$539087[ebp+4], -2086698112 ; 839f8380H
  002b5	c7 45 e4 82 82
	b4 8f		 mov	 DWORD PTR _szEncEventType$539087[ebp+8], -1883995518 ; 8fb48282H
  002bc	8d 45 dc	 lea	 eax, DWORD PTR _szEncEventType$539087[ebp]
  002bf	c6 45 e8 00	 mov	 BYTE PTR _szEncEventType$539087[ebp+12], 0
  002c3	59		 pop	 ecx
$LL234@SetNearAim:
  002c4	81 30 ed ec eb
	ea		 xor	 DWORD PTR [eax], -353637139 ; eaebecedH
  002ca	83 c0 04	 add	 eax, 4
  002cd	49		 dec	 ecx
  002ce	75 f4		 jne	 SHORT $LL234@SetNearAim
  002d0	8d 45 dc	 lea	 eax, DWORD PTR _szEncEventType$539087[ebp]
  002d3	50		 push	 eax
  002d4	8d 4d a0	 lea	 ecx, DWORD PTR $T539112[ebp]
  002d7	ff d3		 call	 ebx
  002d9	8b 4d c4	 mov	 ecx, DWORD PTR _pGrp$[ebp]
  002dc	8d 45 a0	 lea	 eax, DWORD PTR $T539112[ebp]
  002df	50		 push	 eax
  002e0	ff 75 b8	 push	 DWORD PTR _iAniID$[ebp]
  002e3	c7 45 fc 03 00
	00 00		 mov	 DWORD PTR __$EHRec$[ebp+8], 3
  002ea	ff 15 00 00 00
	00		 call	 DWORD PTR __imp_?GetAnimationEventTime@ioEntityGroup@@QAEMHABVioHashString@@@Z
  002f0	d9 5d bc	 fstp	 DWORD PTR $T539110[ebp]
  002f3	83 4d fc ff	 or	 DWORD PTR __$EHRec$[ebp+8], -1
  002f7	8d 4d a0	 lea	 ecx, DWORD PTR $T539112[ebp]
  002fa	ff 15 00 00 00
	00		 call	 DWORD PTR __imp_??1ioHashString@@QAE@XZ
  00300	d9 45 bc	 fld	 DWORD PTR $T539110[ebp]
  00303	8b 86 24 02 00
	00		 mov	 eax, DWORD PTR [esi+548]
  00309	d8 4d c0	 fmul	 DWORD PTR _fTimeRate$[ebp]
  0030c	db 86 24 02 00
	00		 fild	 DWORD PTR [esi+548]
  00312	85 c0		 test	 eax, eax
  00314	79 06		 jns	 SHORT $LN362@SetNearAim
  00316	dc 05 00 00 00
	00		 fadd	 QWORD PTR __real@41f0000000000000
$LN362@SetNearAim:
  0031c	de c1		 faddp	 ST(1), ST(0)
  0031e	e8 00 00 00 00	 call	 __ftol2
  00323	89 86 24 02 00
	00		 mov	 DWORD PTR [esi+548], eax

; 676  : 
; 677  : 	m_dwEnableReserveTime = dwCurTime;

  00329	8b 45 c8	 mov	 eax, DWORD PTR _dwCurTime$[ebp]
  0032c	6a 02		 push	 2
  0032e	89 86 dc 02 00
	00		 mov	 DWORD PTR [esi+732], eax

; 678  : 	m_dwEnableReserveTime += pGrp->GetAnimationEventTime_e( iAniID, "key_reserve" ) * fTimeRate;

  00334	c7 45 cc 86 89
	92 b5		 mov	 DWORD PTR _szEncEventType$539218[ebp], -1248687738 ; b5928986H
  0033b	c7 45 d0 9f 89
	98 8f		 mov	 DWORD PTR _szEncEventType$539218[ebp+4], -1885828705 ; 8f98899fH
  00342	8d 45 cc	 lea	 eax, DWORD PTR _szEncEventType$539218[ebp]
  00345	c7 45 d4 9f 9a
	8e 00		 mov	 DWORD PTR _szEncEventType$539218[ebp+8], 9345695 ; 008e9a9fH
  0034c	59		 pop	 ecx
$LL341@SetNearAim:
  0034d	81 30 ed ec eb
	ea		 xor	 DWORD PTR [eax], -353637139 ; eaebecedH
  00353	83 c0 04	 add	 eax, 4
  00356	49		 dec	 ecx
  00357	75 f4		 jne	 SHORT $LL341@SetNearAim
  00359	6a 08		 push	 8
  0035b	58		 pop	 eax
$LL338@SetNearAim:
  0035c	8b c8		 mov	 ecx, eax
  0035e	81 e1 03 00 00
	80		 and	 ecx, -2147483645	; 80000003H
  00364	79 05		 jns	 SHORT $LN363@SetNearAim
  00366	49		 dec	 ecx
  00367	83 c9 fc	 or	 ecx, -4			; fffffffcH
  0036a	41		 inc	 ecx
$LN363@SetNearAim:
  0036b	b2 ed		 mov	 dl, -19			; ffffffedH
  0036d	2a d1		 sub	 dl, cl
  0036f	30 54 05 cc	 xor	 BYTE PTR _szEncEventType$539218[ebp+eax], dl
  00373	40		 inc	 eax
  00374	83 f8 0b	 cmp	 eax, 11			; 0000000bH
  00377	7c e3		 jl	 SHORT $LL338@SetNearAim
  00379	8d 45 cc	 lea	 eax, DWORD PTR _szEncEventType$539218[ebp]
  0037c	50		 push	 eax
  0037d	8d 4d 90	 lea	 ecx, DWORD PTR $T539221[ebp]
  00380	ff d3		 call	 ebx
  00382	8b 4d c4	 mov	 ecx, DWORD PTR _pGrp$[ebp]
  00385	8d 45 90	 lea	 eax, DWORD PTR $T539221[ebp]
  00388	50		 push	 eax
  00389	ff 75 b8	 push	 DWORD PTR _iAniID$[ebp]
  0038c	c7 45 fc 04 00
	00 00		 mov	 DWORD PTR __$EHRec$[ebp+8], 4
  00393	ff 15 00 00 00
	00		 call	 DWORD PTR __imp_?GetAnimationEventTime@ioEntityGroup@@QAEMHABVioHashString@@@Z
  00399	d9 5d bc	 fstp	 DWORD PTR $T539220[ebp]
  0039c	83 4d fc ff	 or	 DWORD PTR __$EHRec$[ebp+8], -1
  003a0	8d 4d 90	 lea	 ecx, DWORD PTR $T539221[ebp]
  003a3	ff 15 00 00 00
	00		 call	 DWORD PTR __imp_??1ioHashString@@QAE@XZ
  003a9	d9 45 bc	 fld	 DWORD PTR $T539220[ebp]
  003ac	8b 86 dc 02 00
	00		 mov	 eax, DWORD PTR [esi+732]
  003b2	d8 4d c0	 fmul	 DWORD PTR _fTimeRate$[ebp]
  003b5	db 86 dc 02 00
	00		 fild	 DWORD PTR [esi+732]
  003bb	85 c0		 test	 eax, eax
  003bd	79 06		 jns	 SHORT $LN364@SetNearAim
  003bf	dc 05 00 00 00
	00		 fadd	 QWORD PTR __real@41f0000000000000
$LN364@SetNearAim:
  003c5	de c1		 faddp	 ST(1), ST(0)
  003c7	e8 00 00 00 00	 call	 __ftol2

; 679  : 
; 680  : 	pChar->SetSkillMoveEnable( false, false );

  003cc	8b 4d b0	 mov	 ecx, DWORD PTR _pChar$GSCopy$[ebp]
  003cf	6a 00		 push	 0
  003d1	6a 00		 push	 0
  003d3	89 86 dc 02 00
	00		 mov	 DWORD PTR [esi+732], eax
  003d9	e8 00 00 00 00	 call	 ?SetSkillMoveEnable@ioBaseChar@@QAEX_N0@Z ; ioBaseChar::SetSkillMoveEnable

; 681  : 	m_bFindNear = false;

  003de	c6 86 48 11 00
	00 00		 mov	 BYTE PTR [esi+4424], 0
$LN7@SetNearAim:

; 682  : }

  003e5	e8 00 00 00 00	 call	 __EH_epilog3_GS
  003ea	c2 08 00	 ret	 8
_TEXT	ENDS
;	COMDAT text$x
text$x	SEGMENT
__unwindfunclet$?SetNearAimFireState@ioRangeTargetShotSkill@@IAEXPAVioBaseChar@@PAVioPlayStage@@@Z$0:
  00000	8b 4d c8	 mov	 ecx, DWORD PTR $T538911[ebp]
  00003	ff 25 00 00 00
	00		 jmp	 DWORD PTR __imp_??1ioHashString@@QAE@XZ
__unwindfunclet$?SetNearAimFireState@ioRangeTargetShotSkill@@IAEXPAVioBaseChar@@PAVioPlayStage@@@Z$2:
  00009	8b 4d b4	 mov	 ecx, DWORD PTR $T538913[ebp]
  0000c	ff 25 00 00 00
	00		 jmp	 DWORD PTR __imp_??1ioHashString@@QAE@XZ
__unwindfunclet$?SetNearAimFireState@ioRangeTargetShotSkill@@IAEXPAVioBaseChar@@PAVioPlayStage@@@Z$4:
  00012	8d 4d a0	 lea	 ecx, DWORD PTR $T539004[ebp]
  00015	ff 25 00 00 00
	00		 jmp	 DWORD PTR __imp_??1ioHashString@@QAE@XZ
__unwindfunclet$?SetNearAimFireState@ioRangeTargetShotSkill@@IAEXPAVioBaseChar@@PAVioPlayStage@@@Z$5:
  0001b	8d 4d a0	 lea	 ecx, DWORD PTR $T539112[ebp]
  0001e	ff 25 00 00 00
	00		 jmp	 DWORD PTR __imp_??1ioHashString@@QAE@XZ
__unwindfunclet$?SetNearAimFireState@ioRangeTargetShotSkill@@IAEXPAVioBaseChar@@PAVioPlayStage@@@Z$6:
  00024	8d 4d 90	 lea	 ecx, DWORD PTR $T539221[ebp]
  00027	ff 25 00 00 00
	00		 jmp	 DWORD PTR __imp_??1ioHashString@@QAE@XZ
__ehhandler$?SetNearAimFireState@ioRangeTargetShotSkill@@IAEXPAVioBaseChar@@PAVioPlayStage@@@Z:
  0002d	8b 54 24 08	 mov	 edx, DWORD PTR [esp+8]
  00031	8d 42 0c	 lea	 eax, DWORD PTR [edx+12]
  00034	8b 4a 8c	 mov	 ecx, DWORD PTR [edx-116]
  00037	33 c8		 xor	 ecx, eax
  00039	e8 00 00 00 00	 call	 @__security_check_cookie@4
  0003e	8b 4a fc	 mov	 ecx, DWORD PTR [edx-4]
  00041	33 c8		 xor	 ecx, eax
  00043	e8 00 00 00 00	 call	 @__security_check_cookie@4
  00048	b8 00 00 00 00	 mov	 eax, OFFSET __ehfuncinfo$?SetNearAimFireState@ioRangeTargetShotSkill@@IAEXPAVioBaseChar@@PAVioPlayStage@@@Z
  0004d	e9 00 00 00 00	 jmp	 ___CxxFrameHandler3
text$x	ENDS
?SetNearAimFireState@ioRangeTargetShotSkill@@IAEXPAVioBaseChar@@PAVioPlayStage@@@Z ENDP ; ioRangeTargetShotSkill::SetNearAimFireState
PUBLIC	_pChar$GSCopy$
PUBLIC	?SetFarAimFireState@ioRangeTargetShotSkill@@IAEXPAVioBaseChar@@PAVioPlayStage@@@Z ; ioRangeTargetShotSkill::SetFarAimFireState
;	COMDAT xdata$x
; File d:\lost saga for developer\youtube\tutorial\source\src\lsclient\stringprotect.h
xdata$x	SEGMENT
__ehfuncinfo$?SetFarAimFireState@ioRangeTargetShotSkill@@IAEXPAVioBaseChar@@PAVioPlayStage@@@Z DD 019930522H
	DD	05H
	DD	FLAT:__unwindtable$?SetFarAimFireState@ioRangeTargetShotSkill@@IAEXPAVioBaseChar@@PAVioPlayStage@@@Z
	DD	2 DUP(00H)
	DD	2 DUP(00H)
	DD	00H
	DD	01H
__unwindtable$?SetFarAimFireState@ioRangeTargetShotSkill@@IAEXPAVioBaseChar@@PAVioPlayStage@@@Z DD 0ffffffffH
	DD	FLAT:__unwindfunclet$?SetFarAimFireState@ioRangeTargetShotSkill@@IAEXPAVioBaseChar@@PAVioPlayStage@@@Z$0
	DD	0ffffffffH
	DD	FLAT:__unwindfunclet$?SetFarAimFireState@ioRangeTargetShotSkill@@IAEXPAVioBaseChar@@PAVioPlayStage@@@Z$2
	DD	0ffffffffH
	DD	FLAT:__unwindfunclet$?SetFarAimFireState@ioRangeTargetShotSkill@@IAEXPAVioBaseChar@@PAVioPlayStage@@@Z$4
	DD	0ffffffffH
	DD	FLAT:__unwindfunclet$?SetFarAimFireState@ioRangeTargetShotSkill@@IAEXPAVioBaseChar@@PAVioPlayStage@@@Z$5
	DD	0ffffffffH
	DD	FLAT:__unwindfunclet$?SetFarAimFireState@ioRangeTargetShotSkill@@IAEXPAVioBaseChar@@PAVioPlayStage@@@Z$6
; Function compile flags: /Ogsp
; File d:\lost saga for developer\youtube\tutorial\source\src\lsclient\iorangetargetshotskill.cpp
xdata$x	ENDS
;	COMDAT ?SetFarAimFireState@ioRangeTargetShotSkill@@IAEXPAVioBaseChar@@PAVioPlayStage@@@Z
_TEXT	SEGMENT
$T539670 = -112						; size = 16
$T539638 = -96						; size = 16
$T539508 = -96						; size = 16
_pChar$GSCopy$ = -80					; size = 4
tv3053 = -76						; size = 4
tv3037 = -76						; size = 4
tv3025 = -76						; size = 4
$T539364 = -76						; size = 4
$T539363 = -76						; size = 4
_iAniID$ = -72						; size = 4
tv3093 = -68						; size = 4
$T539669 = -68						; size = 4
$T539637 = -68						; size = 4
_dwPreDelay$ = -68					; size = 4
_fTimeRate$ = -64					; size = 4
_pGrp$ = -60						; size = 4
tv3087 = -56						; size = 4
tv3082 = -56						; size = 4
_value$539388 = -56					; size = 4
_dwCurTime$ = -56					; size = 4
$T539365 = -56						; size = 4
$T539362 = -56						; size = 4
_fWeight$ = -56						; size = 4
_szEncEventType$539683 = -52				; size = 12
_szEncEventType$539538 = -36				; size = 13
_szEncEventType$539408 = -32				; size = 7
__$EHRec$ = -12						; size = 12
_pChar$ = 8						; size = 4
_pStage$ = 12						; size = 4
?SetFarAimFireState@ioRangeTargetShotSkill@@IAEXPAVioBaseChar@@PAVioPlayStage@@@Z PROC ; ioRangeTargetShotSkill::SetFarAimFireState, COMDAT
; _this$ = ecx

; 685  : {

  00000	6a 64		 push	 100			; 00000064H
  00002	b8 00 00 00 00	 mov	 eax, __ehhandler$?SetFarAimFireState@ioRangeTargetShotSkill@@IAEXPAVioBaseChar@@PAVioPlayStage@@@Z
  00007	e8 00 00 00 00	 call	 __EH_prolog3_GS
  0000c	8b 5d 08	 mov	 ebx, DWORD PTR _pChar$[ebp]
  0000f	8b f1		 mov	 esi, ecx

; 737  : 	m_dwEnableReserveTime += pGrp->GetAnimationEventTime_e( iAniID, "key_reserve" ) * fTimeRate;

  00011	89 5d b0	 mov	 DWORD PTR _pChar$GSCopy$[ebp], ebx
  00014	85 db		 test	 ebx, ebx
  00016	0f 84 c9 03 00
	00		 je	 $LN7@SetFarAimF

; 686  : 	if ( !pChar ) return;
; 687  : 	if ( !pStage ) return;

  0001c	83 7d 0c 00	 cmp	 DWORD PTR _pStage$[ebp], 0
  00020	0f 84 bf 03 00
	00		 je	 $LN7@SetFarAimF

; 688  : 	
; 689  : 	m_SkillState = SS_FAR_AIM_FIRE;

  00026	c7 86 58 0f 00
	00 03 00 00 00	 mov	 DWORD PTR [esi+3928], 3

; 690  : 	
; 691  : 	ioEntityGroup *pGrp = pChar->GetGroup();

  00030	8b 4b 04	 mov	 ecx, DWORD PTR [ebx+4]

; 692  : 	int iAniID = pGrp->GetAnimationIdx( m_FarAimAttribute.m_AttackAnimation );

  00033	8d 86 9c 11 00
	00		 lea	 eax, DWORD PTR [esi+4508]
  00039	50		 push	 eax
  0003a	89 4d c4	 mov	 DWORD PTR _pGrp$[ebp], ecx
  0003d	ff 15 00 00 00
	00		 call	 DWORD PTR __imp_?GetAnimationIdx@ioEntityGroup@@QAEHABVioHashString@@@Z
  00043	89 45 b8	 mov	 DWORD PTR _iAniID$[ebp], eax

; 693  : 	if( iAniID == -1 )	return;

  00046	83 f8 ff	 cmp	 eax, -1
  00049	0f 84 96 03 00
	00		 je	 $LN7@SetFarAimF

; 694  : 
; 695  : 	float fTimeRate  = m_FarAimAttribute.m_fAttackAniRate * m_fExtraAniRate;

  0004f	f3 0f 10 86 ac
	11 00 00	 movss	 xmm0, DWORD PTR [esi+4524]
  00057	f3 0f 10 8e 68
	03 00 00	 movss	 xmm1, DWORD PTR [esi+872]
  0005f	0f 5a c0	 cvtps2pd xmm0, xmm0
  00062	0f 5a c9	 cvtps2pd xmm1, xmm1
  00065	f2 0f 59 c1	 mulsd	 xmm0, xmm1

; 696  : 	if ( fTimeRate <= 0.0f )

  00069	0f 57 c9	 xorps	 xmm1, xmm1
  0006c	66 0f 5a c0	 cvtpd2ps xmm0, xmm0
  00070	0f 2f c8	 comiss	 xmm1, xmm0
  00073	f3 0f 11 45 c0	 movss	 DWORD PTR _fTimeRate$[ebp], xmm0
  00078	72 1d		 jb	 SHORT $LN3@SetFarAimF

; 697  : 		fTimeRate = FLOAT1;

  0007a	b8 01 00 00 00	 mov	 eax, 1
  0007f	89 45 bc	 mov	 DWORD PTR tv3093[ebp], eax
  00082	db 45 bc	 fild	 DWORD PTR tv3093[ebp]
  00085	85 c0		 test	 eax, eax
  00087	79 06		 jns	 SHORT $LN357@SetFarAimF
  00089	d8 05 00 00 00
	00		 fadd	 DWORD PTR __real@4f800000
$LN357@SetFarAimF:
  0008f	d9 5d c0	 fstp	 DWORD PTR _fTimeRate$[ebp]
  00092	f3 0f 10 45 c0	 movss	 xmm0, DWORD PTR _fTimeRate$[ebp]
$LN3@SetFarAimF:

; 698  : 
; 699  : 	DWORD dwPreDelay = m_FarAimAttribute.m_dwPreDelay;

  00097	8b be e4 11 00
	00		 mov	 edi, DWORD PTR [esi+4580]

; 700  : 
; 701  : 	pChar->RefreshFireTimeListWithBase( m_dwWeaponBaseIndex,
; 702  : 										iAniID,
; 703  : 										m_FarAimAttribute.m_vWeaponInfoList,
; 704  : 										FTT_SKILL_ATTACK,
; 705  : 										fTimeRate,
; 706  : 										dwPreDelay );

  0009d	6a 00		 push	 0
  0009f	57		 push	 edi
  000a0	51		 push	 ecx
  000a1	f3 0f 11 04 24	 movss	 DWORD PTR [esp], xmm0
  000a6	6a 04		 push	 4
  000a8	8d 86 c4 11 00
	00		 lea	 eax, DWORD PTR [esi+4548]
  000ae	50		 push	 eax
  000af	ff 75 b8	 push	 DWORD PTR _iAniID$[ebp]
  000b2	8b cb		 mov	 ecx, ebx
  000b4	ff 76 78	 push	 DWORD PTR [esi+120]
  000b7	89 7d bc	 mov	 DWORD PTR _dwPreDelay$[ebp], edi
  000ba	e8 00 00 00 00	 call	 ?RefreshFireTimeListWithBase@ioBaseChar@@QAEXKHABV?$vector@UWeaponInfo@@V?$allocator@UWeaponInfo@@@std@@@std@@W4FireTimeType@@MK_N@Z ; ioBaseChar::RefreshFireTimeListWithBase

; 707  : 	pChar->IncreaseWeaponIndexBase();

  000bf	8b cb		 mov	 ecx, ebx
  000c1	e8 00 00 00 00	 call	 ?IncreaseWeaponIndexBase@ioBaseChar@@QAEKXZ ; ioBaseChar::IncreaseWeaponIndexBase

; 708  : 
; 709  : 	pGrp->ClearAllActionAni( FLOAT100, true );

  000c6	b8 64 00 00 00	 mov	 eax, 100		; 00000064H
  000cb	33 db		 xor	 ebx, ebx
  000cd	43		 inc	 ebx
  000ce	89 45 c8	 mov	 DWORD PTR tv3087[ebp], eax
  000d1	db 45 c8	 fild	 DWORD PTR tv3087[ebp]
  000d4	53		 push	 ebx
  000d5	85 c0		 test	 eax, eax
  000d7	79 06		 jns	 SHORT $LN358@SetFarAimF
  000d9	d8 05 00 00 00
	00		 fadd	 DWORD PTR __real@4f800000
$LN358@SetFarAimF:
  000df	51		 push	 ecx
  000e0	8b 4d c4	 mov	 ecx, DWORD PTR _pGrp$[ebp]
  000e3	d9 1c 24	 fstp	 DWORD PTR [esp]
  000e6	ff 15 00 00 00
	00		 call	 DWORD PTR __imp_?ClearAllActionAni@ioEntityGroup@@QAEXM_N@Z

; 710  : 	pGrp->ClearAllLoopAni( FLOAT100, true );

  000ec	b8 64 00 00 00	 mov	 eax, 100		; 00000064H
  000f1	89 45 c8	 mov	 DWORD PTR tv3082[ebp], eax
  000f4	db 45 c8	 fild	 DWORD PTR tv3082[ebp]
  000f7	53		 push	 ebx
  000f8	85 c0		 test	 eax, eax
  000fa	79 06		 jns	 SHORT $LN359@SetFarAimF
  000fc	d8 05 00 00 00
	00		 fadd	 DWORD PTR __real@4f800000
$LN359@SetFarAimF:
  00102	51		 push	 ecx
  00103	8b 4d c4	 mov	 ecx, DWORD PTR _pGrp$[ebp]
  00106	d9 1c 24	 fstp	 DWORD PTR [esp]
  00109	ff 15 00 00 00
	00		 call	 DWORD PTR __imp_?ClearAllLoopAni@ioEntityGroup@@QAEXM_N@Z

; 711  : 	
; 712  : 	float fWeight = GetAimedUpDownWeight( m_vAttackDir, 85.0f );

  0010f	f3 0f 10 05 00
	00 00 00	 movss	 xmm0, DWORD PTR __real@42aa0000
  00117	51		 push	 ecx
  00118	8d 86 f0 11 00
	00		 lea	 eax, DWORD PTR [esi+4592]
  0011e	f3 0f 11 04 24	 movss	 DWORD PTR [esp], xmm0
  00123	50		 push	 eax
  00124	8b ce		 mov	 ecx, esi
  00126	e8 00 00 00 00	 call	 ?GetAimedUpDownWeight@ioRangeTargetShotSkill@@IAEMABUD3DXVECTOR3@@M@Z ; ioRangeTargetShotSkill::GetAimedUpDownWeight
  0012b	d9 5d c8	 fstp	 DWORD PTR _fWeight$[ebp]

; 713  : 	if( m_vAttackDir.y >= 0.0f )
; 714  : 	{
; 715  : 		AimedFireToUp( pGrp, m_FarAimAttribute.m_AttackAnimation, m_FarUpAnimation, fWeight, fTimeRate, dwPreDelay, true );

  0012e	d9 45 c0	 fld	 DWORD PTR _fTimeRate$[ebp]
  00131	f3 0f 10 86 f4
	11 00 00	 movss	 xmm0, DWORD PTR [esi+4596]
  00139	53		 push	 ebx
  0013a	57		 push	 edi
  0013b	8b 3d 00 00 00
	00		 mov	 edi, DWORD PTR __imp_??0ioHashString@@QAE@ABV0@@Z
  00141	83 ec 18	 sub	 esp, 24			; 00000018H
  00144	0f 2f 05 00 00
	00 00		 comiss	 xmm0, DWORD PTR __real@00000000
  0014b	d9 5c 24 14	 fstp	 DWORD PTR [esp+20]
  0014f	d9 45 c8	 fld	 DWORD PTR _fWeight$[ebp]
  00152	8b cc		 mov	 ecx, esp
  00154	d9 5c 24 10	 fstp	 DWORD PTR [esp+16]
  00158	72 31		 jb	 SHORT $LN2@SetFarAimF
  0015a	8d 86 dc 0f 00
	00		 lea	 eax, DWORD PTR [esi+4060]
  00160	89 65 c8	 mov	 DWORD PTR $T539362[ebp], esp
  00163	50		 push	 eax
  00164	ff d7		 call	 edi
  00166	83 65 fc 00	 and	 DWORD PTR __$EHRec$[ebp+8], 0
  0016a	83 ec 10	 sub	 esp, 16			; 00000010H
  0016d	8d 86 9c 11 00
	00		 lea	 eax, DWORD PTR [esi+4508]
  00173	8b cc		 mov	 ecx, esp
  00175	89 65 b4	 mov	 DWORD PTR $T539363[ebp], esp
  00178	50		 push	 eax
  00179	ff d7		 call	 edi
  0017b	ff 75 c4	 push	 DWORD PTR _pGrp$[ebp]
  0017e	83 4d fc ff	 or	 DWORD PTR __$EHRec$[ebp+8], -1
  00182	8b ce		 mov	 ecx, esi
  00184	e8 00 00 00 00	 call	 ?AimedFireToUp@ioRangeTargetShotSkill@@IAEXPAVioEntityGroup@@VioHashString@@1MMK_N@Z ; ioRangeTargetShotSkill::AimedFireToUp

; 716  : 	}
; 717  : 	else

  00189	eb 2e		 jmp	 SHORT $LN1@SetFarAimF
$LN2@SetFarAimF:

; 718  : 	{
; 719  : 		AimedFireToDown( pGrp, m_FarAimAttribute.m_AttackAnimation, m_FarDownAnimation, fWeight, fTimeRate, dwPreDelay, true );

  0018b	8d 86 ec 0f 00
	00		 lea	 eax, DWORD PTR [esi+4076]
  00191	89 65 b4	 mov	 DWORD PTR $T539364[ebp], esp
  00194	50		 push	 eax
  00195	ff d7		 call	 edi
  00197	83 ec 10	 sub	 esp, 16			; 00000010H
  0019a	8d 86 9c 11 00
	00		 lea	 eax, DWORD PTR [esi+4508]
  001a0	8b cc		 mov	 ecx, esp
  001a2	89 65 c8	 mov	 DWORD PTR $T539365[ebp], esp
  001a5	50		 push	 eax
  001a6	89 5d fc	 mov	 DWORD PTR __$EHRec$[ebp+8], ebx
  001a9	ff d7		 call	 edi
  001ab	ff 75 c4	 push	 DWORD PTR _pGrp$[ebp]
  001ae	83 4d fc ff	 or	 DWORD PTR __$EHRec$[ebp+8], -1
  001b2	8b ce		 mov	 ecx, esi
  001b4	e8 00 00 00 00	 call	 ?AimedFireToDown@ioRangeTargetShotSkill@@IAEXPAVioEntityGroup@@VioHashString@@1MMK_N@Z ; ioRangeTargetShotSkill::AimedFireToDown
$LN1@SetFarAimF:

; 720  : 	}
; 721  : 	
; 722  : 	m_dwMotionStartTime = m_dwMotionEndTime = FRAMEGETTIME();

  001b9	8b 1d 00 00 00
	00		 mov	 ebx, DWORD PTR __imp_?GetSingleton@ioFrameTimer@@SAAAV1@XZ
  001bf	ff d3		 call	 ebx
  001c1	8b c8		 mov	 ecx, eax
  001c3	ff 15 00 00 00
	00		 call	 DWORD PTR __imp_?GetLoopSec@ioFrameTimer@@QBEKXZ
  001c9	89 86 d8 02 00
	00		 mov	 DWORD PTR [esi+728], eax
  001cf	89 45 c8	 mov	 DWORD PTR _value$539388[ebp], eax
  001d2	8d 45 c8	 lea	 eax, DWORD PTR _value$539388[ebp]
  001d5	50		 push	 eax
  001d6	8d 8e a8 02 00
	00		 lea	 ecx, DWORD PTR [esi+680]
  001dc	e8 00 00 00 00	 call	 ?EncryptValueToPool@?$CEncrypt@K@@AAEXPBD@Z ; CEncrypt<unsigned long>::EncryptValueToPool

; 723  : 	m_dwMotionEndTime += pGrp->GetAnimationFullTime( iAniID ) * fTimeRate;

  001e1	ff 75 b8	 push	 DWORD PTR _iAniID$[ebp]
  001e4	8b 4d c4	 mov	 ecx, DWORD PTR _pGrp$[ebp]
  001e7	ff 15 00 00 00
	00		 call	 DWORD PTR __imp_?GetAnimationFullTime@ioEntityGroup@@QAEMH@Z

; 724  : 	m_dwMotionEndTime += dwPreDelay + m_FarAimAttribute.m_dwEndDelay;

  001ed	d8 4d c0	 fmul	 DWORD PTR _fTimeRate$[ebp]
  001f0	8b 86 d8 02 00
	00		 mov	 eax, DWORD PTR [esi+728]
  001f6	db 86 d8 02 00
	00		 fild	 DWORD PTR [esi+728]
  001fc	85 c0		 test	 eax, eax
  001fe	79 06		 jns	 SHORT $LN360@SetFarAimF
  00200	dc 05 00 00 00
	00		 fadd	 QWORD PTR __real@41f0000000000000
$LN360@SetFarAimF:

; 723  : 	m_dwMotionEndTime += pGrp->GetAnimationFullTime( iAniID ) * fTimeRate;

  00206	de c1		 faddp	 ST(1), ST(0)

; 724  : 	m_dwMotionEndTime += dwPreDelay + m_FarAimAttribute.m_dwEndDelay;

  00208	e8 00 00 00 00	 call	 __ftol2
  0020d	03 86 e8 11 00
	00		 add	 eax, DWORD PTR [esi+4584]
  00213	03 45 bc	 add	 eax, DWORD PTR _dwPreDelay$[ebp]
  00216	89 86 d8 02 00
	00		 mov	 DWORD PTR [esi+728], eax

; 725  : 
; 726  : 	DWORD dwCurTime = FRAMEGETTIME();

  0021c	ff d3		 call	 ebx
  0021e	8b c8		 mov	 ecx, eax
  00220	ff 15 00 00 00
	00		 call	 DWORD PTR __imp_?GetLoopSec@ioFrameTimer@@QBEKXZ

; 727  : 	DWORD dwFireStartTime;
; 728  : 	dwFireStartTime = m_dwFireMotionEndTime = dwCurTime;
; 729  : 
; 730  : 	dwFireStartTime += dwPreDelay;
; 731  : 	dwFireStartTime += pGrp->GetAnimationEventTime_e( iAniID, "fire_s" ) * fTimeRate;

  00226	6a 04		 push	 4
  00228	89 45 c8	 mov	 DWORD PTR _dwCurTime$[ebp], eax
  0022b	89 86 24 02 00
	00		 mov	 DWORD PTR [esi+548], eax
  00231	c7 45 e0 8b 85
	99 8f		 mov	 DWORD PTR _szEncEventType$539408[ebp], -1885764213 ; 8f99858bH
  00238	81 75 e0 ed ec
	eb ea		 xor	 DWORD PTR _szEncEventType$539408[ebp], -353637139 ; eaebecedH
  0023f	66 c7 45 e4 b2
	9f		 mov	 WORD PTR _szEncEventType$539408[ebp+4], 40882 ; 00009fb2H
  00245	c6 45 e6 00	 mov	 BYTE PTR _szEncEventType$539408[ebp+6], 0
  00249	58		 pop	 eax
$LL124@SetFarAimF:
  0024a	8b c8		 mov	 ecx, eax
  0024c	81 e1 03 00 00
	80		 and	 ecx, -2147483645	; 80000003H
  00252	79 05		 jns	 SHORT $LN361@SetFarAimF
  00254	49		 dec	 ecx
  00255	83 c9 fc	 or	 ecx, -4			; fffffffcH
  00258	41		 inc	 ecx
$LN361@SetFarAimF:
  00259	b2 ed		 mov	 dl, -19			; ffffffedH
  0025b	2a d1		 sub	 dl, cl
  0025d	30 54 05 e0	 xor	 BYTE PTR _szEncEventType$539408[ebp+eax], dl
  00261	40		 inc	 eax
  00262	83 f8 06	 cmp	 eax, 6
  00265	7c e3		 jl	 SHORT $LL124@SetFarAimF
  00267	8b 1d 00 00 00
	00		 mov	 ebx, DWORD PTR __imp_??0ioHashString@@QAE@PBD@Z
  0026d	8d 45 e0	 lea	 eax, DWORD PTR _szEncEventType$539408[ebp]
  00270	50		 push	 eax
  00271	8d 4d a0	 lea	 ecx, DWORD PTR $T539508[ebp]
  00274	ff d3		 call	 ebx
  00276	8b 4d c4	 mov	 ecx, DWORD PTR _pGrp$[ebp]
  00279	8d 45 a0	 lea	 eax, DWORD PTR $T539508[ebp]
  0027c	50		 push	 eax
  0027d	ff 75 b8	 push	 DWORD PTR _iAniID$[ebp]
  00280	c7 45 fc 02 00
	00 00		 mov	 DWORD PTR __$EHRec$[ebp+8], 2
  00287	ff 15 00 00 00
	00		 call	 DWORD PTR __imp_?GetAnimationEventTime@ioEntityGroup@@QAEMHABVioHashString@@@Z
  0028d	dd d8		 fstp	 ST(0)
  0028f	83 4d fc ff	 or	 DWORD PTR __$EHRec$[ebp+8], -1
  00293	8d 4d a0	 lea	 ecx, DWORD PTR $T539508[ebp]
  00296	ff 15 00 00 00
	00		 call	 DWORD PTR __imp_??1ioHashString@@QAE@XZ

; 732  : 
; 733  : 	m_dwFireMotionEndTime += dwPreDelay;

  0029c	8b 45 bc	 mov	 eax, DWORD PTR _dwPreDelay$[ebp]
  0029f	01 86 24 02 00
	00		 add	 DWORD PTR [esi+548], eax
  002a5	6a 03		 push	 3

; 734  : 	m_dwFireMotionEndTime += pGrp->GetAnimationEventTime_e( iAniID, "firemotion_e" ) * fTimeRate;

  002a7	c7 45 dc 8b 85
	99 8f		 mov	 DWORD PTR _szEncEventType$539538[ebp], -1885764213 ; 8f99858bH
  002ae	c7 45 e0 80 83
	9f 83		 mov	 DWORD PTR _szEncEventType$539538[ebp+4], -2086698112 ; 839f8380H
  002b5	c7 45 e4 82 82
	b4 8f		 mov	 DWORD PTR _szEncEventType$539538[ebp+8], -1883995518 ; 8fb48282H
  002bc	8d 45 dc	 lea	 eax, DWORD PTR _szEncEventType$539538[ebp]
  002bf	c6 45 e8 00	 mov	 BYTE PTR _szEncEventType$539538[ebp+12], 0
  002c3	59		 pop	 ecx
$LL234@SetFarAimF:
  002c4	81 30 ed ec eb
	ea		 xor	 DWORD PTR [eax], -353637139 ; eaebecedH
  002ca	83 c0 04	 add	 eax, 4
  002cd	49		 dec	 ecx
  002ce	75 f4		 jne	 SHORT $LL234@SetFarAimF
  002d0	8d 45 dc	 lea	 eax, DWORD PTR _szEncEventType$539538[ebp]
  002d3	50		 push	 eax
  002d4	8d 4d a0	 lea	 ecx, DWORD PTR $T539638[ebp]
  002d7	ff d3		 call	 ebx
  002d9	8b 4d c4	 mov	 ecx, DWORD PTR _pGrp$[ebp]
  002dc	8d 45 a0	 lea	 eax, DWORD PTR $T539638[ebp]
  002df	50		 push	 eax
  002e0	ff 75 b8	 push	 DWORD PTR _iAniID$[ebp]
  002e3	c7 45 fc 03 00
	00 00		 mov	 DWORD PTR __$EHRec$[ebp+8], 3
  002ea	ff 15 00 00 00
	00		 call	 DWORD PTR __imp_?GetAnimationEventTime@ioEntityGroup@@QAEMHABVioHashString@@@Z
  002f0	d9 5d bc	 fstp	 DWORD PTR $T539637[ebp]
  002f3	83 4d fc ff	 or	 DWORD PTR __$EHRec$[ebp+8], -1
  002f7	8d 4d a0	 lea	 ecx, DWORD PTR $T539638[ebp]
  002fa	ff 15 00 00 00
	00		 call	 DWORD PTR __imp_??1ioHashString@@QAE@XZ
  00300	d9 45 bc	 fld	 DWORD PTR $T539637[ebp]
  00303	8b 86 24 02 00
	00		 mov	 eax, DWORD PTR [esi+548]
  00309	d8 4d c0	 fmul	 DWORD PTR _fTimeRate$[ebp]
  0030c	db 86 24 02 00
	00		 fild	 DWORD PTR [esi+548]
  00312	85 c0		 test	 eax, eax
  00314	79 06		 jns	 SHORT $LN362@SetFarAimF
  00316	dc 05 00 00 00
	00		 fadd	 QWORD PTR __real@41f0000000000000
$LN362@SetFarAimF:
  0031c	de c1		 faddp	 ST(1), ST(0)
  0031e	e8 00 00 00 00	 call	 __ftol2
  00323	89 86 24 02 00
	00		 mov	 DWORD PTR [esi+548], eax

; 735  : 
; 736  : 	m_dwEnableReserveTime = dwCurTime;

  00329	8b 45 c8	 mov	 eax, DWORD PTR _dwCurTime$[ebp]
  0032c	6a 02		 push	 2
  0032e	89 86 dc 02 00
	00		 mov	 DWORD PTR [esi+732], eax

; 737  : 	m_dwEnableReserveTime += pGrp->GetAnimationEventTime_e( iAniID, "key_reserve" ) * fTimeRate;

  00334	c7 45 cc 86 89
	92 b5		 mov	 DWORD PTR _szEncEventType$539683[ebp], -1248687738 ; b5928986H
  0033b	c7 45 d0 9f 89
	98 8f		 mov	 DWORD PTR _szEncEventType$539683[ebp+4], -1885828705 ; 8f98899fH
  00342	8d 45 cc	 lea	 eax, DWORD PTR _szEncEventType$539683[ebp]
  00345	c7 45 d4 9f 9a
	8e 00		 mov	 DWORD PTR _szEncEventType$539683[ebp+8], 9345695 ; 008e9a9fH
  0034c	59		 pop	 ecx
$LL341@SetFarAimF:
  0034d	81 30 ed ec eb
	ea		 xor	 DWORD PTR [eax], -353637139 ; eaebecedH
  00353	83 c0 04	 add	 eax, 4
  00356	49		 dec	 ecx
  00357	75 f4		 jne	 SHORT $LL341@SetFarAimF
  00359	6a 08		 push	 8
  0035b	58		 pop	 eax
$LL338@SetFarAimF:
  0035c	8b c8		 mov	 ecx, eax
  0035e	81 e1 03 00 00
	80		 and	 ecx, -2147483645	; 80000003H
  00364	79 05		 jns	 SHORT $LN363@SetFarAimF
  00366	49		 dec	 ecx
  00367	83 c9 fc	 or	 ecx, -4			; fffffffcH
  0036a	41		 inc	 ecx
$LN363@SetFarAimF:
  0036b	b2 ed		 mov	 dl, -19			; ffffffedH
  0036d	2a d1		 sub	 dl, cl
  0036f	30 54 05 cc	 xor	 BYTE PTR _szEncEventType$539683[ebp+eax], dl
  00373	40		 inc	 eax
  00374	83 f8 0b	 cmp	 eax, 11			; 0000000bH
  00377	7c e3		 jl	 SHORT $LL338@SetFarAimF
  00379	8d 45 cc	 lea	 eax, DWORD PTR _szEncEventType$539683[ebp]
  0037c	50		 push	 eax
  0037d	8d 4d 90	 lea	 ecx, DWORD PTR $T539670[ebp]
  00380	ff d3		 call	 ebx
  00382	8b 4d c4	 mov	 ecx, DWORD PTR _pGrp$[ebp]
  00385	8d 45 90	 lea	 eax, DWORD PTR $T539670[ebp]
  00388	50		 push	 eax
  00389	ff 75 b8	 push	 DWORD PTR _iAniID$[ebp]
  0038c	c7 45 fc 04 00
	00 00		 mov	 DWORD PTR __$EHRec$[ebp+8], 4
  00393	ff 15 00 00 00
	00		 call	 DWORD PTR __imp_?GetAnimationEventTime@ioEntityGroup@@QAEMHABVioHashString@@@Z
  00399	d9 5d bc	 fstp	 DWORD PTR $T539669[ebp]
  0039c	83 4d fc ff	 or	 DWORD PTR __$EHRec$[ebp+8], -1
  003a0	8d 4d 90	 lea	 ecx, DWORD PTR $T539670[ebp]
  003a3	ff 15 00 00 00
	00		 call	 DWORD PTR __imp_??1ioHashString@@QAE@XZ
  003a9	d9 45 bc	 fld	 DWORD PTR $T539669[ebp]
  003ac	8b 86 dc 02 00
	00		 mov	 eax, DWORD PTR [esi+732]
  003b2	d8 4d c0	 fmul	 DWORD PTR _fTimeRate$[ebp]
  003b5	db 86 dc 02 00
	00		 fild	 DWORD PTR [esi+732]
  003bb	85 c0		 test	 eax, eax
  003bd	79 06		 jns	 SHORT $LN364@SetFarAimF
  003bf	dc 05 00 00 00
	00		 fadd	 QWORD PTR __real@41f0000000000000
$LN364@SetFarAimF:
  003c5	de c1		 faddp	 ST(1), ST(0)
  003c7	e8 00 00 00 00	 call	 __ftol2

; 738  : 
; 739  : 	pChar->SetSkillMoveEnable( false, false );

  003cc	8b 4d b0	 mov	 ecx, DWORD PTR _pChar$GSCopy$[ebp]
  003cf	6a 00		 push	 0
  003d1	6a 00		 push	 0
  003d3	89 86 dc 02 00
	00		 mov	 DWORD PTR [esi+732], eax
  003d9	e8 00 00 00 00	 call	 ?SetSkillMoveEnable@ioBaseChar@@QAEX_N0@Z ; ioBaseChar::SetSkillMoveEnable

; 740  : 	m_bFindFar = false;

  003de	c6 86 49 11 00
	00 00		 mov	 BYTE PTR [esi+4425], 0
$LN7@SetFarAimF:

; 741  : }

  003e5	e8 00 00 00 00	 call	 __EH_epilog3_GS
  003ea	c2 08 00	 ret	 8
_TEXT	ENDS
;	COMDAT text$x
text$x	SEGMENT
__unwindfunclet$?SetFarAimFireState@ioRangeTargetShotSkill@@IAEXPAVioBaseChar@@PAVioPlayStage@@@Z$0:
  00000	8b 4d c8	 mov	 ecx, DWORD PTR $T539362[ebp]
  00003	ff 25 00 00 00
	00		 jmp	 DWORD PTR __imp_??1ioHashString@@QAE@XZ
__unwindfunclet$?SetFarAimFireState@ioRangeTargetShotSkill@@IAEXPAVioBaseChar@@PAVioPlayStage@@@Z$2:
  00009	8b 4d b4	 mov	 ecx, DWORD PTR $T539364[ebp]
  0000c	ff 25 00 00 00
	00		 jmp	 DWORD PTR __imp_??1ioHashString@@QAE@XZ
__unwindfunclet$?SetFarAimFireState@ioRangeTargetShotSkill@@IAEXPAVioBaseChar@@PAVioPlayStage@@@Z$4:
  00012	8d 4d a0	 lea	 ecx, DWORD PTR $T539508[ebp]
  00015	ff 25 00 00 00
	00		 jmp	 DWORD PTR __imp_??1ioHashString@@QAE@XZ
__unwindfunclet$?SetFarAimFireState@ioRangeTargetShotSkill@@IAEXPAVioBaseChar@@PAVioPlayStage@@@Z$5:
  0001b	8d 4d a0	 lea	 ecx, DWORD PTR $T539638[ebp]
  0001e	ff 25 00 00 00
	00		 jmp	 DWORD PTR __imp_??1ioHashString@@QAE@XZ
__unwindfunclet$?SetFarAimFireState@ioRangeTargetShotSkill@@IAEXPAVioBaseChar@@PAVioPlayStage@@@Z$6:
  00024	8d 4d 90	 lea	 ecx, DWORD PTR $T539670[ebp]
  00027	ff 25 00 00 00
	00		 jmp	 DWORD PTR __imp_??1ioHashString@@QAE@XZ
__ehhandler$?SetFarAimFireState@ioRangeTargetShotSkill@@IAEXPAVioBaseChar@@PAVioPlayStage@@@Z:
  0002d	8b 54 24 08	 mov	 edx, DWORD PTR [esp+8]
  00031	8d 42 0c	 lea	 eax, DWORD PTR [edx+12]
  00034	8b 4a 8c	 mov	 ecx, DWORD PTR [edx-116]
  00037	33 c8		 xor	 ecx, eax
  00039	e8 00 00 00 00	 call	 @__security_check_cookie@4
  0003e	8b 4a fc	 mov	 ecx, DWORD PTR [edx-4]
  00041	33 c8		 xor	 ecx, eax
  00043	e8 00 00 00 00	 call	 @__security_check_cookie@4
  00048	b8 00 00 00 00	 mov	 eax, OFFSET __ehfuncinfo$?SetFarAimFireState@ioRangeTargetShotSkill@@IAEXPAVioBaseChar@@PAVioPlayStage@@@Z
  0004d	e9 00 00 00 00	 jmp	 ___CxxFrameHandler3
text$x	ENDS
?SetFarAimFireState@ioRangeTargetShotSkill@@IAEXPAVioBaseChar@@PAVioPlayStage@@@Z ENDP ; ioRangeTargetShotSkill::SetFarAimFireState
PUBLIC	?ApplyExtraSkillInfo@ioRangeTargetShotSkill@@UAEXPAVioBaseChar@@PAVioPlayStage@@AAVSP2Packet@@@Z ; ioRangeTargetShotSkill::ApplyExtraSkillInfo
EXTRN	??5SP2Packet@@QAEAAV0@AAH@Z:PROC		; SP2Packet::operator>>
; Function compile flags: /Ogsp
;	COMDAT ?ApplyExtraSkillInfo@ioRangeTargetShotSkill@@UAEXPAVioBaseChar@@PAVioPlayStage@@AAVSP2Packet@@@Z
_TEXT	SEGMENT
_pChar$ = 8						; size = 4
_pStage$ = 12						; size = 4
_iState$ = 16						; size = 4
_rkPacket$ = 16						; size = 4
?ApplyExtraSkillInfo@ioRangeTargetShotSkill@@UAEXPAVioBaseChar@@PAVioPlayStage@@AAVSP2Packet@@@Z PROC ; ioRangeTargetShotSkill::ApplyExtraSkillInfo, COMDAT
; _this$ = ecx

; 932  : {

  00000	55		 push	 ebp
  00001	8b ec		 mov	 ebp, esp
  00003	56		 push	 esi

; 933  : 	int iState;
; 934  : 	rkPacket >> iState;

  00004	8d 45 10	 lea	 eax, DWORD PTR _iState$[ebp]
  00007	8b f1		 mov	 esi, ecx
  00009	8b 4d 10	 mov	 ecx, DWORD PTR _rkPacket$[ebp]
  0000c	50		 push	 eax
  0000d	e8 00 00 00 00	 call	 ??5SP2Packet@@QAEAAV0@AAH@Z ; SP2Packet::operator>>

; 935  : 	switch( iState )

  00012	8b 45 10	 mov	 eax, DWORD PTR _iState$[ebp]
  00015	83 e8 00	 sub	 eax, 0
  00018	74 2f		 je	 SHORT $LN1@ApplyExtra
  0001a	48		 dec	 eax
  0001b	74 1f		 je	 SHORT $LN3@ApplyExtra
  0001d	48		 dec	 eax
  0001e	75 36		 jne	 SHORT $LN4@ApplyExtra

; 940  : 			SetNearAimFireState( pChar, pStage );
; 941  : 		}
; 942  : 		break;
; 943  : 	case TA_FAR:
; 944  : 		{
; 945  : 			CheckAttackDir( pChar, pStage );

  00020	ff 75 0c	 push	 DWORD PTR _pStage$[ebp]
  00023	8b ce		 mov	 ecx, esi
  00025	ff 75 08	 push	 DWORD PTR _pChar$[ebp]
  00028	e8 00 00 00 00	 call	 ?CheckAttackDir@ioRangeTargetShotSkill@@IAEXPAVioBaseChar@@PAVioPlayStage@@@Z ; ioRangeTargetShotSkill::CheckAttackDir

; 946  : 			SetFarAimFireState( pChar, pStage );

  0002d	ff 75 0c	 push	 DWORD PTR _pStage$[ebp]
  00030	8b ce		 mov	 ecx, esi
  00032	ff 75 08	 push	 DWORD PTR _pChar$[ebp]
  00035	e8 00 00 00 00	 call	 ?SetFarAimFireState@ioRangeTargetShotSkill@@IAEXPAVioBaseChar@@PAVioPlayStage@@@Z ; ioRangeTargetShotSkill::SetFarAimFireState

; 947  : 		}
; 948  : 		break;

  0003a	eb 1a		 jmp	 SHORT $LN4@ApplyExtra
$LN3@ApplyExtra:

; 936  : 	{
; 937  : 	case TA_NEAR:
; 938  : 		{
; 939  : 			CheckAttackDir( pChar, pStage );

  0003c	ff 75 0c	 push	 DWORD PTR _pStage$[ebp]
  0003f	8b ce		 mov	 ecx, esi
  00041	ff 75 08	 push	 DWORD PTR _pChar$[ebp]
  00044	e8 00 00 00 00	 call	 ?CheckAttackDir@ioRangeTargetShotSkill@@IAEXPAVioBaseChar@@PAVioPlayStage@@@Z ; ioRangeTargetShotSkill::CheckAttackDir
$LN1@ApplyExtra:

; 949  : 	case TA_NONE:
; 950  : 		{
; 951  : 			SetNearAimFireState( pChar, pStage );

  00049	ff 75 0c	 push	 DWORD PTR _pStage$[ebp]
  0004c	8b ce		 mov	 ecx, esi
  0004e	ff 75 08	 push	 DWORD PTR _pChar$[ebp]
  00051	e8 00 00 00 00	 call	 ?SetNearAimFireState@ioRangeTargetShotSkill@@IAEXPAVioBaseChar@@PAVioPlayStage@@@Z ; ioRangeTargetShotSkill::SetNearAimFireState
$LN4@ApplyExtra:
  00056	5e		 pop	 esi

; 952  : 		}
; 953  : 		break;
; 954  : 	}
; 955  : }

  00057	5d		 pop	 ebp
  00058	c2 0c 00	 ret	 12			; 0000000cH
?ApplyExtraSkillInfo@ioRangeTargetShotSkill@@UAEXPAVioBaseChar@@PAVioPlayStage@@AAVSP2Packet@@@Z ENDP ; ioRangeTargetShotSkill::ApplyExtraSkillInfo
_TEXT	ENDS
PUBLIC	??$_Uninit_copy@V?$_Vector_const_iterator@V?$_Vector_val@UForceInfo@@V?$allocator@UForceInfo@@@std@@@std@@@std@@PAUForceInfo@@V?$allocator@UForceInfo@@@2@@std@@YAPAUForceInfo@@V?$_Vector_const_iterator@V?$_Vector_val@UForceInfo@@V?$allocator@UForceInfo@@@std@@@std@@@0@0PAU1@AAV?$allocator@UForceInfo@@@0@U_Nonscalar_ptr_iterator_tag@0@@Z ; std::_Uninit_copy<std::_Vector_const_iterator<std::_Vector_val<ForceInfo,std::allocator<ForceInfo> > >,ForceInfo *,std::allocator<ForceInfo> >
; Function compile flags: /Ogsp
; File c:\program files (x86)\microsoft visual studio 10.0\vc\include\memory
;	COMDAT ??$_Uninit_copy@V?$_Vector_const_iterator@V?$_Vector_val@UForceInfo@@V?$allocator@UForceInfo@@@std@@@std@@@std@@PAUForceInfo@@V?$allocator@UForceInfo@@@2@@std@@YAPAUForceInfo@@V?$_Vector_const_iterator@V?$_Vector_val@UForceInfo@@V?$allocator@UForceInfo@@@std@@@std@@@0@0PAU1@AAV?$allocator@UForceInfo@@@0@U_Nonscalar_ptr_iterator_tag@0@@Z
_TEXT	SEGMENT
__First$ = 8						; size = 4
__Last$ = 12						; size = 4
__Dest$ = 16						; size = 4
__Al$ = 20						; size = 4
___formal$ = 24						; size = 1
??$_Uninit_copy@V?$_Vector_const_iterator@V?$_Vector_val@UForceInfo@@V?$allocator@UForceInfo@@@std@@@std@@@std@@PAUForceInfo@@V?$allocator@UForceInfo@@@2@@std@@YAPAUForceInfo@@V?$_Vector_const_iterator@V?$_Vector_val@UForceInfo@@V?$allocator@UForceInfo@@@std@@@std@@@0@0PAU1@AAV?$allocator@UForceInfo@@@0@U_Nonscalar_ptr_iterator_tag@0@@Z PROC ; std::_Uninit_copy<std::_Vector_const_iterator<std::_Vector_val<ForceInfo,std::allocator<ForceInfo> > >,ForceInfo *,std::allocator<ForceInfo> >, COMDAT

; 369  : 	{	// copy [_First, _Last) to raw _Dest, using _Al, arbitrary type

  00000	55		 push	 ebp
  00001	8b ec		 mov	 ebp, esp

; 370  : 	_DEBUG_RANGE(_First, _Last);
; 371  : 	_DEBUG_POINTER(_Dest);
; 372  : 	_FwdIt _Next = _Dest;
; 373  : 
; 374  : 	_TRY_BEGIN
; 375  : 	for (; _First != _Last; ++_Dest, ++_First)

  00003	eb 19		 jmp	 SHORT $LN35@Uninit_cop
$LL14@Uninit_cop:

; 376  : 		_Cons_val(_Al, _Dest, *_First);

  00005	ff 75 08	 push	 DWORD PTR __First$[ebp]
  00008	ff 75 10	 push	 DWORD PTR __Dest$[ebp]
  0000b	ff 75 14	 push	 DWORD PTR __Al$[ebp]
  0000e	e8 00 00 00 00	 call	 ??$_Cons_val@V?$allocator@UForceInfo@@@std@@UForceInfo@@ABU3@@std@@YAXAAV?$allocator@UForceInfo@@@0@PAUForceInfo@@ABU2@@Z ; std::_Cons_val<std::allocator<ForceInfo>,ForceInfo,ForceInfo const &>
  00013	83 45 10 0c	 add	 DWORD PTR __Dest$[ebp], 12 ; 0000000cH
  00017	83 c4 0c	 add	 esp, 12			; 0000000cH
  0001a	83 45 08 0c	 add	 DWORD PTR __First$[ebp], 12 ; 0000000cH
$LN35@Uninit_cop:

; 370  : 	_DEBUG_RANGE(_First, _Last);
; 371  : 	_DEBUG_POINTER(_Dest);
; 372  : 	_FwdIt _Next = _Dest;
; 373  : 
; 374  : 	_TRY_BEGIN
; 375  : 	for (; _First != _Last; ++_Dest, ++_First)

  0001e	8b 45 08	 mov	 eax, DWORD PTR __First$[ebp]
  00021	3b 45 0c	 cmp	 eax, DWORD PTR __Last$[ebp]
  00024	75 df		 jne	 SHORT $LL14@Uninit_cop

; 377  : 	_CATCH_ALL
; 378  : 	for (; _Next != _Dest; ++_Next)
; 379  : 		_Dest_val(_Al, _Next);
; 380  : 	_RERAISE;
; 381  : 	_CATCH_END
; 382  : 	return (_Dest);

  00026	8b 45 10	 mov	 eax, DWORD PTR __Dest$[ebp]

; 383  : 	}

  00029	5d		 pop	 ebp
  0002a	c3		 ret	 0
??$_Uninit_copy@V?$_Vector_const_iterator@V?$_Vector_val@UForceInfo@@V?$allocator@UForceInfo@@@std@@@std@@@std@@PAUForceInfo@@V?$allocator@UForceInfo@@@2@@std@@YAPAUForceInfo@@V?$_Vector_const_iterator@V?$_Vector_val@UForceInfo@@V?$allocator@UForceInfo@@@std@@@std@@@0@0PAU1@AAV?$allocator@UForceInfo@@@0@U_Nonscalar_ptr_iterator_tag@0@@Z ENDP ; std::_Uninit_copy<std::_Vector_const_iterator<std::_Vector_val<ForceInfo,std::allocator<ForceInfo> > >,ForceInfo *,std::allocator<ForceInfo> >
_TEXT	ENDS
PUBLIC	??$_Cons_val@V?$allocator@UWeaponInfo@@@std@@UWeaponInfo@@ABU3@@std@@YAXAAV?$allocator@UWeaponInfo@@@0@PAUWeaponInfo@@ABU2@@Z ; std::_Cons_val<std::allocator<WeaponInfo>,WeaponInfo,WeaponInfo const &>
; Function compile flags: /Ogsp
; File c:\program files (x86)\microsoft visual studio 10.0\vc\include\xmemory
;	COMDAT ??$_Cons_val@V?$allocator@UWeaponInfo@@@std@@UWeaponInfo@@ABU3@@std@@YAXAAV?$allocator@UWeaponInfo@@@0@PAUWeaponInfo@@ABU2@@Z
_TEXT	SEGMENT
__Alval$ = 8						; size = 4
__Pdest$ = 12						; size = 4
__Src$ = 16						; size = 4
??$_Cons_val@V?$allocator@UWeaponInfo@@@std@@UWeaponInfo@@ABU3@@std@@YAXAAV?$allocator@UWeaponInfo@@@0@PAUWeaponInfo@@ABU2@@Z PROC ; std::_Cons_val<std::allocator<WeaponInfo>,WeaponInfo,WeaponInfo const &>, COMDAT

; 279  : 	{	// construct using allocator

  00000	55		 push	 ebp
  00001	8b ec		 mov	 ebp, esp

; 280  : 	_Alval.construct(_Pdest, _STD forward<_Ty2>(_Src));

  00003	ff 75 10	 push	 DWORD PTR __Src$[ebp]
  00006	ff 75 0c	 push	 DWORD PTR __Pdest$[ebp]
  00009	e8 00 00 00 00	 call	 ??$_Construct@UWeaponInfo@@ABU1@@std@@YAXPAUWeaponInfo@@ABU1@@Z ; std::_Construct<WeaponInfo,WeaponInfo const &>
  0000e	59		 pop	 ecx
  0000f	59		 pop	 ecx

; 281  : 	}

  00010	5d		 pop	 ebp
  00011	c3		 ret	 0
??$_Cons_val@V?$allocator@UWeaponInfo@@@std@@UWeaponInfo@@ABU3@@std@@YAXAAV?$allocator@UWeaponInfo@@@0@PAUWeaponInfo@@ABU2@@Z ENDP ; std::_Cons_val<std::allocator<WeaponInfo>,WeaponInfo,WeaponInfo const &>
_TEXT	ENDS
PUBLIC	??$_Destroy_range@V?$allocator@UForceInfo@@@std@@@std@@YAXPAUForceInfo@@0AAV?$allocator@UForceInfo@@@0@U_Nonscalar_ptr_iterator_tag@0@@Z ; std::_Destroy_range<std::allocator<ForceInfo> >
; Function compile flags: /Ogsp
;	COMDAT ??$_Destroy_range@V?$allocator@UForceInfo@@@std@@@std@@YAXPAUForceInfo@@0AAV?$allocator@UForceInfo@@@0@U_Nonscalar_ptr_iterator_tag@0@@Z
_TEXT	SEGMENT
__First$ = 8						; size = 4
__Last$ = 12						; size = 4
__Al$ = 16						; size = 4
___formal$ = 20						; size = 1
??$_Destroy_range@V?$allocator@UForceInfo@@@std@@@std@@YAXPAUForceInfo@@0AAV?$allocator@UForceInfo@@@0@U_Nonscalar_ptr_iterator_tag@0@@Z PROC ; std::_Destroy_range<std::allocator<ForceInfo> >, COMDAT

; 96   : 	for (; _First != _Last; ++_First)
; 97   : 		_Dest_val(_Al, _First);
; 98   : 	}

  00000	c3		 ret	 0
??$_Destroy_range@V?$allocator@UForceInfo@@@std@@@std@@YAXPAUForceInfo@@0AAV?$allocator@UForceInfo@@@0@U_Nonscalar_ptr_iterator_tag@0@@Z ENDP ; std::_Destroy_range<std::allocator<ForceInfo> >
_TEXT	ENDS
PUBLIC	??$_Dest_val@V?$allocator@UWeaponInfo@@@std@@UWeaponInfo@@@std@@YAXAAV?$allocator@UWeaponInfo@@@0@PAUWeaponInfo@@@Z ; std::_Dest_val<std::allocator<WeaponInfo>,WeaponInfo>
; Function compile flags: /Ogsp
;	COMDAT ??$_Dest_val@V?$allocator@UWeaponInfo@@@std@@UWeaponInfo@@@std@@YAXAAV?$allocator@UWeaponInfo@@@0@PAUWeaponInfo@@@Z
_TEXT	SEGMENT
__Alval$ = 8						; size = 4
__Pdest$ = 12						; size = 4
??$_Dest_val@V?$allocator@UWeaponInfo@@@std@@UWeaponInfo@@@std@@YAXAAV?$allocator@UWeaponInfo@@@0@PAUWeaponInfo@@@Z PROC ; std::_Dest_val<std::allocator<WeaponInfo>,WeaponInfo>, COMDAT

; 286  : 	{	// destroy using allocator

  00000	55		 push	 ebp
  00001	8b ec		 mov	 ebp, esp

; 287  : 	_Alval.destroy(_Pdest);

  00003	8b 4d 0c	 mov	 ecx, DWORD PTR __Pdest$[ebp]
  00006	83 c1 08	 add	 ecx, 8

; 288  : 	}

  00009	5d		 pop	 ebp

; 287  : 	_Alval.destroy(_Pdest);

  0000a	ff 25 00 00 00
	00		 jmp	 DWORD PTR __imp_??1ioHashString@@QAE@XZ
??$_Dest_val@V?$allocator@UWeaponInfo@@@std@@UWeaponInfo@@@std@@YAXAAV?$allocator@UWeaponInfo@@@0@PAUWeaponInfo@@@Z ENDP ; std::_Dest_val<std::allocator<WeaponInfo>,WeaponInfo>
_TEXT	ENDS
PUBLIC	_pStage$GSCopy$
PUBLIC	_this$GSCopy$
PUBLIC	?FindNearTarget@ioRangeTargetShotSkill@@IAEXPAVioBaseChar@@PAVioPlayStage@@@Z ; ioRangeTargetShotSkill::FindNearTarget
;	COMDAT xdata$x
; File d:\lost saga for developer\youtube\tutorial\source\src\lsclient\iobasechar.h
xdata$x	SEGMENT
__unwindtable$?FindNearTarget@ioRangeTargetShotSkill@@IAEXPAVioBaseChar@@PAVioPlayStage@@@Z DD 0ffffffffH
	DD	FLAT:__unwindfunclet$?FindNearTarget@ioRangeTargetShotSkill@@IAEXPAVioBaseChar@@PAVioPlayStage@@@Z$0
__ehfuncinfo$?FindNearTarget@ioRangeTargetShotSkill@@IAEXPAVioBaseChar@@PAVioPlayStage@@@Z DD 019930522H
	DD	01H
	DD	FLAT:__unwindtable$?FindNearTarget@ioRangeTargetShotSkill@@IAEXPAVioBaseChar@@PAVioPlayStage@@@Z
	DD	2 DUP(00H)
	DD	2 DUP(00H)
	DD	00H
	DD	01H
; Function compile flags: /Ogsp
; File d:\lost saga for developer\youtube\tutorial\source\src\lsclient\iorangetargetshotskill.cpp
xdata$x	ENDS
;	COMDAT ?FindNearTarget@ioRangeTargetShotSkill@@IAEXPAVioBaseChar@@PAVioPlayStage@@@Z
_TEXT	SEGMENT
_value$540010 = -164					; size = 4
_value$540023 = -160					; size = 4
_fMaxRangeSq$531291 = -156				; size = 4
_value$540061 = -152					; size = 4
_value$540069 = -148					; size = 4
_value$540072 = -144					; size = 4
_value$540064 = -140					; size = 4
_qtRot$ = -136						; size = 16
_this$GSCopy$ = -120					; size = 4
tv682 = -116						; size = 4
_value$540084 = -116					; size = 4
_pStage$GSCopy$ = -112					; size = 4
tv652 = -108						; size = 4
$T540037 = -108						; size = 4
_szTarget$ = -104					; size = 16
_fLengthSq$531290 = -88					; size = 4
tv667 = -84						; size = 4
tv663 = -84						; size = 4
tv658 = -84						; size = 4
_Iter$ = -80						; size = 4
_value$539930 = -76					; size = 4
_fNPreLengthSq$ = -76					; size = 4
_value$539933 = -72					; size = 4
_pCurChar$531282 = -72					; size = 4
tv648 = -68						; size = 4
tv644 = -68						; size = 4
tv599 = -68						; size = 4
$T540080 = -68						; size = 4
$T540041 = -68						; size = 4
_fAngleGap$531298 = -68					; size = 4
_fValue$531297 = -68					; size = 4
$T531288 = -64						; size = 12
$T531287 = -52						; size = 12
$T531170 = -52						; size = 12
_vDiff$531286 = -40					; size = 12
_vDir$ = -28						; size = 12
__$EHRec$ = -12						; size = 12
_pChar$ = 8						; size = 4
_pStage$ = 12						; size = 4
?FindNearTarget@ioRangeTargetShotSkill@@IAEXPAVioBaseChar@@PAVioPlayStage@@@Z PROC ; ioRangeTargetShotSkill::FindNearTarget, COMDAT
; _this$ = ecx

; 358  : {

  00000	68 98 00 00 00	 push	 152			; 00000098H
  00005	b8 00 00 00 00	 mov	 eax, __ehhandler$?FindNearTarget@ioRangeTargetShotSkill@@IAEXPAVioBaseChar@@PAVioPlayStage@@@Z
  0000a	e8 00 00 00 00	 call	 __EH_prolog3_GS
  0000f	8b 5d 08	 mov	 ebx, DWORD PTR _pChar$[ebp]
  00012	8b 45 0c	 mov	 eax, DWORD PTR _pStage$[ebp]
  00015	8b f1		 mov	 esi, ecx

; 372  : 	for ( ; Iter != rkCharList.end(); ++Iter )

  00017	89 75 88	 mov	 DWORD PTR _this$GSCopy$[ebp], esi
  0001a	89 45 90	 mov	 DWORD PTR _pStage$GSCopy$[ebp], eax
  0001d	85 db		 test	 ebx, ebx
  0001f	0f 84 98 03 00
	00		 je	 $LN12@FindNearTa

; 359  : 	if( !pChar )
; 360  : 		return;
; 361  : 	
; 362  : 	ioHashString	szTarget;

  00025	8d 4d 98	 lea	 ecx, DWORD PTR _szTarget$[ebp]
  00028	ff 15 00 00 00
	00		 call	 DWORD PTR __imp_??0ioHashString@@QAE@XZ
  0002e	83 65 fc 00	 and	 DWORD PTR __$EHRec$[ebp+8], 0

; 363  : 	float fNPreLengthSq = m_fNTargetRange * m_fNTargetRange;

  00032	8d 45 b4	 lea	 eax, DWORD PTR _value$539930[ebp]
  00035	50		 push	 eax
  00036	8d 8e 58 10 00
	00		 lea	 ecx, DWORD PTR [esi+4184]
  0003c	e8 00 00 00 00	 call	 ?DecryptValueToPool@?$CEncrypt@M@@QAEXPAM@Z ; CEncrypt<float>::DecryptValueToPool
  00041	8d 45 b8	 lea	 eax, DWORD PTR _value$539933[ebp]
  00044	50		 push	 eax
  00045	8d 8e 58 10 00
	00		 lea	 ecx, DWORD PTR [esi+4184]
  0004b	e8 00 00 00 00	 call	 ?DecryptValueToPool@?$CEncrypt@M@@QAEXPAM@Z ; CEncrypt<float>::DecryptValueToPool
  00050	f3 0f 10 4d b4	 movss	 xmm1, DWORD PTR _value$539930[ebp]
  00055	f3 0f 10 45 b8	 movss	 xmm0, DWORD PTR _value$539933[ebp]

; 364  : 
; 365  : 	D3DXQUATERNION qtRot = pChar->GetTargetRot();

  0005a	8d b3 a4 06 00
	00		 lea	 esi, DWORD PTR [ebx+1700]
  00060	8d bd 78 ff ff
	ff		 lea	 edi, DWORD PTR _qtRot$[ebp]
  00066	a5		 movsd
  00067	a5		 movsd
  00068	a5		 movsd
  00069	0f 5a c0	 cvtps2pd xmm0, xmm0
  0006c	0f 5a c9	 cvtps2pd xmm1, xmm1
  0006f	f2 0f 59 c1	 mulsd	 xmm0, xmm1
  00073	66 0f 5a c0	 cvtpd2ps xmm0, xmm0
  00077	f3 0f 11 45 b4	 movss	 DWORD PTR _fNPreLengthSq$[ebp], xmm0
  0007c	a5		 movsd

; 366  : 	D3DXVECTOR3 vDir = qtRot * D3DXVECTOR3( 0.0f, 0.0f, -FLOAT1 );

  0007d	b8 01 00 00 00	 mov	 eax, 1
  00082	0f 57 c0	 xorps	 xmm0, xmm0
  00085	89 45 8c	 mov	 DWORD PTR tv682[ebp], eax
  00088	db 45 8c	 fild	 DWORD PTR tv682[ebp]
  0008b	f3 0f 11 45 cc	 movss	 DWORD PTR $T531170[ebp], xmm0
  00090	f3 0f 11 45 d0	 movss	 DWORD PTR $T531170[ebp+4], xmm0
  00095	85 c0		 test	 eax, eax
  00097	79 06		 jns	 SHORT $LN93@FindNearTa
  00099	d8 05 00 00 00
	00		 fadd	 DWORD PTR __real@4f800000
$LN93@FindNearTa:
  0009f	8d 45 cc	 lea	 eax, DWORD PTR $T531170[ebp]
  000a2	d9 e0		 fchs
  000a4	50		 push	 eax
  000a5	d9 5d d4	 fstp	 DWORD PTR $T531170[ebp+8]
  000a8	8d 85 78 ff ff
	ff		 lea	 eax, DWORD PTR _qtRot$[ebp]
  000ae	50		 push	 eax
  000af	8d 45 e4	 lea	 eax, DWORD PTR _vDir$[ebp]
  000b2	50		 push	 eax
  000b3	ff 15 00 00 00
	00		 call	 DWORD PTR __imp_??D@YA?AUD3DXVECTOR3@@ABUD3DXQUATERNION@@ABU0@@Z
  000b9	83 c4 0c	 add	 esp, 12			; 0000000cH

; 367  : 	D3DXVec3Normalize( &vDir, &vDir );

  000bc	8d 45 e4	 lea	 eax, DWORD PTR _vDir$[ebp]
  000bf	50		 push	 eax
  000c0	50		 push	 eax
  000c1	e8 00 00 00 00	 call	 _D3DXVec3Normalize@8

; 368  : 
; 369  : 	const BaseCharList &rkCharList = pStage->GetBaseCharList();
; 370  : 
; 371  : 	auto Iter = rkCharList.begin();

  000c6	8b 45 90	 mov	 eax, DWORD PTR _pStage$GSCopy$[ebp]
  000c9	8b 70 2c	 mov	 esi, DWORD PTR [eax+44]
  000cc	e9 c0 02 00 00	 jmp	 $LN98@FindNearTa

; 372  : 	for ( ; Iter != rkCharList.end(); ++Iter )

$LL33@FindNearTa:

; 373  : 	{
; 374  : 		ioBaseChar *pCurChar = *Iter;

  000d1	8b 3e		 mov	 edi, DWORD PTR [esi]
  000d3	89 7d b8	 mov	 DWORD PTR _pCurChar$531282[ebp], edi

; 375  : 
; 376  : 		if ( pCurChar == pChar )

  000d6	3b fb		 cmp	 edi, ebx
  000d8	0f 84 ad 02 00
	00		 je	 $LN9@FindNearTa

; 377  : 			continue;
; 378  : 
; 379  : 		if ( pCurChar->GetTeam() == pChar->GetTeam() )

  000de	8d 85 5c ff ff
	ff		 lea	 eax, DWORD PTR _value$540010[ebp]
  000e4	8d 8f 90 00 00
	00		 lea	 ecx, DWORD PTR [edi+144]
  000ea	50		 push	 eax
  000eb	e8 00 00 00 00	 call	 ?DecryptValueToPool@?$CEncrypt@W4TeamType@@@@QAEXPAW4TeamType@@@Z ; CEncrypt<enum TeamType>::DecryptValueToPool
  000f0	8d 85 60 ff ff
	ff		 lea	 eax, DWORD PTR _value$540023[ebp]
  000f6	8d 8b 90 00 00
	00		 lea	 ecx, DWORD PTR [ebx+144]
  000fc	50		 push	 eax
  000fd	e8 00 00 00 00	 call	 ?DecryptValueToPool@?$CEncrypt@W4TeamType@@@@QAEXPAW4TeamType@@@Z ; CEncrypt<enum TeamType>::DecryptValueToPool
  00102	8b 85 5c ff ff
	ff		 mov	 eax, DWORD PTR _value$540010[ebp]
  00108	3b 85 60 ff ff
	ff		 cmp	 eax, DWORD PTR _value$540023[ebp]
  0010e	0f 84 77 02 00
	00		 je	 $LN9@FindNearTa

; 380  : 			continue;
; 381  : 		
; 382  : 		if( !IsEnableTargetState( pCurChar, true ) )

  00114	6a 01		 push	 1
  00116	57		 push	 edi
  00117	8b 7d 88	 mov	 edi, DWORD PTR _this$GSCopy$[ebp]
  0011a	8b cf		 mov	 ecx, edi
  0011c	e8 00 00 00 00	 call	 ?IsEnableTargetState@ioRangeTargetShotSkill@@IAE_NPAVioBaseChar@@_N@Z ; ioRangeTargetShotSkill::IsEnableTargetState
  00121	84 c0		 test	 al, al
  00123	0f 84 62 02 00
	00		 je	 $LN9@FindNearTa

; 383  : 			continue;
; 384  : 
; 385  : 		D3DXVECTOR3 vDiff = pCurChar->GetMidPositionByRate() - pChar->GetMidPositionByRate();

  00129	b8 05 00 00 00	 mov	 eax, 5
  0012e	8b c8		 mov	 ecx, eax
  00130	b8 0a 00 00 00	 mov	 eax, 10			; 0000000aH
  00135	8b d0		 mov	 edx, eax
  00137	b8 05 00 00 00	 mov	 eax, 5
  0013c	89 45 94	 mov	 DWORD PTR $T540037[ebp], eax
  0013f	b8 0a 00 00 00	 mov	 eax, 10			; 0000000aH
  00144	89 4d ac	 mov	 DWORD PTR tv667[ebp], ecx
  00147	db 45 ac	 fild	 DWORD PTR tv667[ebp]
  0014a	89 45 bc	 mov	 DWORD PTR $T540041[ebp], eax
  0014d	85 c9		 test	 ecx, ecx
  0014f	79 06		 jns	 SHORT $LN94@FindNearTa
  00151	d8 05 00 00 00
	00		 fadd	 DWORD PTR __real@4f800000
$LN94@FindNearTa:
  00157	89 55 ac	 mov	 DWORD PTR tv663[ebp], edx
  0015a	db 45 ac	 fild	 DWORD PTR tv663[ebp]
  0015d	85 d2		 test	 edx, edx
  0015f	79 06		 jns	 SHORT $LN95@FindNearTa
  00161	d8 05 00 00 00
	00		 fadd	 DWORD PTR __real@4f800000
$LN95@FindNearTa:
  00167	de f9		 fdivp	 ST(1), ST(0)
  00169	51		 push	 ecx
  0016a	8d 45 c0	 lea	 eax, DWORD PTR $T531288[ebp]
  0016d	8b cb		 mov	 ecx, ebx
  0016f	d9 5d ac	 fstp	 DWORD PTR tv658[ebp]
  00172	d9 45 ac	 fld	 DWORD PTR tv658[ebp]
  00175	d9 1c 24	 fstp	 DWORD PTR [esp]
  00178	50		 push	 eax
  00179	e8 00 00 00 00	 call	 ?GetMidPositionByRate@ioGameEntity@@QBE?AUD3DXVECTOR3@@M@Z ; ioGameEntity::GetMidPositionByRate
  0017e	db 45 94	 fild	 DWORD PTR $T540037[ebp]
  00181	8b f0		 mov	 esi, eax
  00183	8b 45 94	 mov	 eax, DWORD PTR $T540037[ebp]
  00186	85 c0		 test	 eax, eax
  00188	79 06		 jns	 SHORT $LN96@FindNearTa
  0018a	d8 05 00 00 00
	00		 fadd	 DWORD PTR __real@4f800000
$LN96@FindNearTa:
  00190	8b 45 bc	 mov	 eax, DWORD PTR $T540041[ebp]
  00193	db 45 bc	 fild	 DWORD PTR $T540041[ebp]
  00196	85 c0		 test	 eax, eax
  00198	79 06		 jns	 SHORT $LN97@FindNearTa
  0019a	d8 05 00 00 00
	00		 fadd	 DWORD PTR __real@4f800000
$LN97@FindNearTa:
  001a0	de f9		 fdivp	 ST(1), ST(0)
  001a2	51		 push	 ecx
  001a3	8b 4d b8	 mov	 ecx, DWORD PTR _pCurChar$531282[ebp]
  001a6	8d 45 cc	 lea	 eax, DWORD PTR $T531287[ebp]
  001a9	d9 5d bc	 fstp	 DWORD PTR tv644[ebp]
  001ac	d9 45 bc	 fld	 DWORD PTR tv644[ebp]
  001af	d9 1c 24	 fstp	 DWORD PTR [esp]
  001b2	50		 push	 eax
  001b3	e8 00 00 00 00	 call	 ?GetMidPositionByRate@ioGameEntity@@QBE?AUD3DXVECTOR3@@M@Z ; ioGameEntity::GetMidPositionByRate
  001b8	f3 0f 10 00	 movss	 xmm0, DWORD PTR [eax]
  001bc	f3 0f 10 0e	 movss	 xmm1, DWORD PTR [esi]
  001c0	f3 0f 10 56 04	 movss	 xmm2, DWORD PTR [esi+4]
  001c5	f3 0f 10 5e 08	 movss	 xmm3, DWORD PTR [esi+8]
  001ca	0f 5a c0	 cvtps2pd xmm0, xmm0
  001cd	0f 5a c9	 cvtps2pd xmm1, xmm1
  001d0	f2 0f 5c c1	 subsd	 xmm0, xmm1
  001d4	f3 0f 10 48 04	 movss	 xmm1, DWORD PTR [eax+4]
  001d9	0f 5a d2	 cvtps2pd xmm2, xmm2
  001dc	0f 5a c9	 cvtps2pd xmm1, xmm1
  001df	f2 0f 5c ca	 subsd	 xmm1, xmm2
  001e3	f3 0f 10 50 08	 movss	 xmm2, DWORD PTR [eax+8]
  001e8	66 0f 5a c0	 cvtpd2ps xmm0, xmm0
  001ec	0f 5a d2	 cvtps2pd xmm2, xmm2
  001ef	f3 0f 11 45 d8	 movss	 DWORD PTR _vDiff$531286[ebp], xmm0
  001f4	66 0f 5a c9	 cvtpd2ps xmm1, xmm1
  001f8	0f 5a db	 cvtps2pd xmm3, xmm3
  001fb	f2 0f 5c d3	 subsd	 xmm2, xmm3
  001ff	66 0f 5a d2	 cvtpd2ps xmm2, xmm2

; 386  : 		float fLengthSq = D3DXVec3LengthSq( &vDiff );

  00203	f3 0f 5a c0	 cvtss2sd xmm0, xmm0
  00207	f3 0f 11 4d dc	 movss	 DWORD PTR _vDiff$531286[ebp+4], xmm1
  0020c	f3 0f 11 55 e0	 movss	 DWORD PTR _vDiff$531286[ebp+8], xmm2
  00211	f2 0f 59 c0	 mulsd	 xmm0, xmm0
  00215	f3 0f 5a c9	 cvtss2sd xmm1, xmm1
  00219	f3 0f 5a d2	 cvtss2sd xmm2, xmm2
  0021d	f2 0f 59 c9	 mulsd	 xmm1, xmm1
  00221	f2 0f 58 c1	 addsd	 xmm0, xmm1
  00225	f2 0f 59 d2	 mulsd	 xmm2, xmm2

; 387  : 
; 388  : 		float fMaxRangeSq = m_fNTargetRange * m_fNTargetRange;

  00229	8d 85 68 ff ff
	ff		 lea	 eax, DWORD PTR _value$540061[ebp]
  0022f	f2 0f 58 c2	 addsd	 xmm0, xmm2
  00233	66 0f 5a c0	 cvtpd2ps xmm0, xmm0
  00237	50		 push	 eax
  00238	8d 8f 58 10 00
	00		 lea	 ecx, DWORD PTR [edi+4184]
  0023e	f3 0f 11 45 a8	 movss	 DWORD PTR _fLengthSq$531290[ebp], xmm0
  00243	e8 00 00 00 00	 call	 ?DecryptValueToPool@?$CEncrypt@M@@QAEXPAM@Z ; CEncrypt<float>::DecryptValueToPool
  00248	8d 85 74 ff ff
	ff		 lea	 eax, DWORD PTR _value$540064[ebp]
  0024e	50		 push	 eax
  0024f	8d 8f 58 10 00
	00		 lea	 ecx, DWORD PTR [edi+4184]
  00255	e8 00 00 00 00	 call	 ?DecryptValueToPool@?$CEncrypt@M@@QAEXPAM@Z ; CEncrypt<float>::DecryptValueToPool
  0025a	f3 0f 10 85 74
	ff ff ff	 movss	 xmm0, DWORD PTR _value$540064[ebp]
  00262	f3 0f 10 8d 68
	ff ff ff	 movss	 xmm1, DWORD PTR _value$540061[ebp]
  0026a	0f 5a c0	 cvtps2pd xmm0, xmm0
  0026d	0f 5a c9	 cvtps2pd xmm1, xmm1

; 389  : 		float fMinRangeSq = m_fNTargetMinRange * m_fNTargetMinRange;

  00270	8d 85 6c ff ff
	ff		 lea	 eax, DWORD PTR _value$540069[ebp]
  00276	f2 0f 59 c1	 mulsd	 xmm0, xmm1
  0027a	66 0f 5a c0	 cvtpd2ps xmm0, xmm0
  0027e	50		 push	 eax
  0027f	8d 8f 88 10 00
	00		 lea	 ecx, DWORD PTR [edi+4232]
  00285	f3 0f 11 85 64
	ff ff ff	 movss	 DWORD PTR _fMaxRangeSq$531291[ebp], xmm0
  0028d	e8 00 00 00 00	 call	 ?DecryptValueToPool@?$CEncrypt@M@@QAEXPAM@Z ; CEncrypt<float>::DecryptValueToPool
  00292	8d 85 70 ff ff
	ff		 lea	 eax, DWORD PTR _value$540072[ebp]
  00298	50		 push	 eax
  00299	8d 8f 88 10 00
	00		 lea	 ecx, DWORD PTR [edi+4232]
  0029f	e8 00 00 00 00	 call	 ?DecryptValueToPool@?$CEncrypt@M@@QAEXPAM@Z ; CEncrypt<float>::DecryptValueToPool
  002a4	f3 0f 10 8d 6c
	ff ff ff	 movss	 xmm1, DWORD PTR _value$540069[ebp]
  002ac	f3 0f 10 85 70
	ff ff ff	 movss	 xmm0, DWORD PTR _value$540072[ebp]
  002b4	0f 5a c0	 cvtps2pd xmm0, xmm0
  002b7	0f 5a c9	 cvtps2pd xmm1, xmm1
  002ba	f2 0f 59 c1	 mulsd	 xmm0, xmm1

; 390  : 		if( !COMPARE( fLengthSq, fMinRangeSq, fMaxRangeSq ) )

  002be	f3 0f 10 4d a8	 movss	 xmm1, DWORD PTR _fLengthSq$531290[ebp]
  002c3	66 0f 5a c0	 cvtpd2ps xmm0, xmm0
  002c7	0f 5a c9	 cvtps2pd xmm1, xmm1
  002ca	f3 0f 5a c0	 cvtss2sd xmm0, xmm0
  002ce	66 0f 2f c8	 comisd	 xmm1, xmm0
  002d2	0f 82 b0 00 00
	00		 jb	 $LN89@FindNearTa
  002d8	f3 0f 10 45 a8	 movss	 xmm0, DWORD PTR _fLengthSq$531290[ebp]
  002dd	f3 0f 10 8d 64
	ff ff ff	 movss	 xmm1, DWORD PTR _fMaxRangeSq$531291[ebp]
  002e5	0f 5a c0	 cvtps2pd xmm0, xmm0
  002e8	0f 5a c9	 cvtps2pd xmm1, xmm1
  002eb	66 0f 2f c8	 comisd	 xmm1, xmm0
  002ef	0f 86 93 00 00
	00		 jbe	 $LN89@FindNearTa

; 391  : 			continue;
; 392  : 
; 393  : 		D3DXVec3Normalize( &vDiff, &vDiff );

  002f5	8d 45 d8	 lea	 eax, DWORD PTR _vDiff$531286[ebp]
  002f8	50		 push	 eax
  002f9	50		 push	 eax
  002fa	e8 00 00 00 00	 call	 _D3DXVec3Normalize@8

; 394  : 		float fValue = D3DXVec3Dot( &vDir, &vDiff );

  002ff	d9 45 e8	 fld	 DWORD PTR _vDir$[ebp+4]
  00302	d8 4d dc	 fmul	 DWORD PTR _vDiff$531286[ebp+4]
  00305	d9 45 e4	 fld	 DWORD PTR _vDir$[ebp]
  00308	d8 4d d8	 fmul	 DWORD PTR _vDiff$531286[ebp]
  0030b	de c1		 faddp	 ST(1), ST(0)
  0030d	d9 45 ec	 fld	 DWORD PTR _vDir$[ebp+8]
  00310	d8 4d e0	 fmul	 DWORD PTR _vDiff$531286[ebp+8]
  00313	de c1		 faddp	 ST(1), ST(0)
  00315	d9 5d bc	 fstp	 DWORD PTR _fValue$531297[ebp]

; 395  : 		float fAngleGap = RADtoDEG( acosf(fValue) );

  00318	d9 45 bc	 fld	 DWORD PTR _fValue$531297[ebp]
  0031b	e8 00 00 00 00	 call	 __CIacos
  00320	d9 5d bc	 fstp	 DWORD PTR tv599[ebp]
  00323	d9 45 bc	 fld	 DWORD PTR tv599[ebp]
  00326	51		 push	 ecx
  00327	d9 5d bc	 fstp	 DWORD PTR $T540080[ebp]
  0032a	f3 0f 10 45 bc	 movss	 xmm0, DWORD PTR $T540080[ebp]
  0032f	f3 0f 11 04 24	 movss	 DWORD PTR [esp], xmm0
  00334	e8 00 00 00 00	 call	 ??$RADtoDEG@M@@YAMM@Z	; RADtoDEG<float>
  00339	d9 5d bc	 fstp	 DWORD PTR _fAngleGap$531298[ebp]
  0033c	59		 pop	 ecx

; 396  : 		if( fAngleGap >= m_fNTargetAngle )

  0033d	8d 45 8c	 lea	 eax, DWORD PTR _value$540084[ebp]
  00340	50		 push	 eax
  00341	8d 8f 28 10 00
	00		 lea	 ecx, DWORD PTR [edi+4136]
  00347	e8 00 00 00 00	 call	 ?DecryptValueToPool@?$CEncrypt@M@@QAEXPAM@Z ; CEncrypt<float>::DecryptValueToPool
  0034c	d9 45 8c	 fld	 DWORD PTR _value$540084[ebp]
  0034f	d9 45 bc	 fld	 DWORD PTR _fAngleGap$531298[ebp]
  00352	df f1		 fcomip	 ST(1)
  00354	dd d8		 fstp	 ST(0)
  00356	73 30		 jae	 SHORT $LN89@FindNearTa

; 397  : 			continue;
; 398  : 
; 399  : 		if( fLengthSq < fNPreLengthSq )

  00358	f3 0f 10 45 a8	 movss	 xmm0, DWORD PTR _fLengthSq$531290[ebp]
  0035d	f3 0f 10 55 b4	 movss	 xmm2, DWORD PTR _fNPreLengthSq$[ebp]
  00362	0f 57 c9	 xorps	 xmm1, xmm1
  00365	0f 5a c8	 cvtps2pd xmm1, xmm0
  00368	0f 5a d2	 cvtps2pd xmm2, xmm2
  0036b	66 0f 2f d1	 comisd	 xmm2, xmm1
  0036f	76 17		 jbe	 SHORT $LN89@FindNearTa

; 400  : 		{
; 401  : 			fNPreLengthSq = fLengthSq;
; 402  : 			szTarget = pCurChar->GetCharName();

  00371	8b 45 b8	 mov	 eax, DWORD PTR _pCurChar$531282[ebp]
  00374	05 d4 02 00 00	 add	 eax, 724		; 000002d4H
  00379	50		 push	 eax
  0037a	8d 4d 98	 lea	 ecx, DWORD PTR _szTarget$[ebp]
  0037d	f3 0f 11 45 b4	 movss	 DWORD PTR _fNPreLengthSq$[ebp], xmm0
  00382	ff 15 00 00 00
	00		 call	 DWORD PTR __imp_??4ioHashString@@QAEAAV0@ABV0@@Z
$LN89@FindNearTa:
  00388	8b 75 b0	 mov	 esi, DWORD PTR _Iter$[ebp]
$LN9@FindNearTa:

; 372  : 	for ( ; Iter != rkCharList.end(); ++Iter )

  0038b	8b 45 90	 mov	 eax, DWORD PTR _pStage$GSCopy$[ebp]
  0038e	83 c6 04	 add	 esi, 4
$LN98@FindNearTa:
  00391	89 75 b0	 mov	 DWORD PTR _Iter$[ebp], esi
  00394	3b 70 30	 cmp	 esi, DWORD PTR [eax+48]
  00397	0f 85 34 fd ff
	ff		 jne	 $LL33@FindNearTa

; 403  : 		}
; 404  : 	}
; 405  : 
; 406  : 	m_szNearTargetName = szTarget;

  0039d	8b 4d 88	 mov	 ecx, DWORD PTR _this$GSCopy$[ebp]
  003a0	8d 45 98	 lea	 eax, DWORD PTR _szTarget$[ebp]
  003a3	50		 push	 eax
  003a4	81 c1 6c 0f 00
	00		 add	 ecx, 3948		; 00000f6cH
  003aa	ff 15 00 00 00
	00		 call	 DWORD PTR __imp_??4ioHashString@@QAEAAV0@ABV0@@Z

; 407  : }

  003b0	83 4d fc ff	 or	 DWORD PTR __$EHRec$[ebp+8], -1
  003b4	8d 4d 98	 lea	 ecx, DWORD PTR _szTarget$[ebp]
  003b7	ff 15 00 00 00
	00		 call	 DWORD PTR __imp_??1ioHashString@@QAE@XZ
$LN12@FindNearTa:
  003bd	e8 00 00 00 00	 call	 __EH_epilog3_GS
  003c2	c2 08 00	 ret	 8
_TEXT	ENDS
;	COMDAT text$x
text$x	SEGMENT
__unwindfunclet$?FindNearTarget@ioRangeTargetShotSkill@@IAEXPAVioBaseChar@@PAVioPlayStage@@@Z$0:
  00000	8d 4d 98	 lea	 ecx, DWORD PTR _szTarget$[ebp]
  00003	ff 25 00 00 00
	00		 jmp	 DWORD PTR __imp_??1ioHashString@@QAE@XZ
__ehhandler$?FindNearTarget@ioRangeTargetShotSkill@@IAEXPAVioBaseChar@@PAVioPlayStage@@@Z:
  00009	8b 54 24 08	 mov	 edx, DWORD PTR [esp+8]
  0000d	8d 42 0c	 lea	 eax, DWORD PTR [edx+12]
  00010	8b 8a 58 ff ff
	ff		 mov	 ecx, DWORD PTR [edx-168]
  00016	33 c8		 xor	 ecx, eax
  00018	e8 00 00 00 00	 call	 @__security_check_cookie@4
  0001d	8b 4a fc	 mov	 ecx, DWORD PTR [edx-4]
  00020	33 c8		 xor	 ecx, eax
  00022	e8 00 00 00 00	 call	 @__security_check_cookie@4
  00027	b8 00 00 00 00	 mov	 eax, OFFSET __ehfuncinfo$?FindNearTarget@ioRangeTargetShotSkill@@IAEXPAVioBaseChar@@PAVioPlayStage@@@Z
  0002c	e9 00 00 00 00	 jmp	 ___CxxFrameHandler3
text$x	ENDS
?FindNearTarget@ioRangeTargetShotSkill@@IAEXPAVioBaseChar@@PAVioPlayStage@@@Z ENDP ; ioRangeTargetShotSkill::FindNearTarget
PUBLIC	_pStage$GSCopy$
PUBLIC	_this$GSCopy$
PUBLIC	?FindFarTarget@ioRangeTargetShotSkill@@IAEXPAVioBaseChar@@PAVioPlayStage@@@Z ; ioRangeTargetShotSkill::FindFarTarget
;	COMDAT xdata$x
; File d:\lost saga for developer\youtube\tutorial\source\src\lsclient\iobasechar.h
xdata$x	SEGMENT
__unwindtable$?FindFarTarget@ioRangeTargetShotSkill@@IAEXPAVioBaseChar@@PAVioPlayStage@@@Z DD 0ffffffffH
	DD	FLAT:__unwindfunclet$?FindFarTarget@ioRangeTargetShotSkill@@IAEXPAVioBaseChar@@PAVioPlayStage@@@Z$0
__ehfuncinfo$?FindFarTarget@ioRangeTargetShotSkill@@IAEXPAVioBaseChar@@PAVioPlayStage@@@Z DD 019930522H
	DD	01H
	DD	FLAT:__unwindtable$?FindFarTarget@ioRangeTargetShotSkill@@IAEXPAVioBaseChar@@PAVioPlayStage@@@Z
	DD	2 DUP(00H)
	DD	2 DUP(00H)
	DD	00H
	DD	01H
; Function compile flags: /Ogsp
; File d:\lost saga for developer\youtube\tutorial\source\src\lsclient\iorangetargetshotskill.cpp
xdata$x	ENDS
;	COMDAT ?FindFarTarget@ioRangeTargetShotSkill@@IAEXPAVioBaseChar@@PAVioPlayStage@@@Z
_TEXT	SEGMENT
_value$540199 = -164					; size = 4
_value$540212 = -160					; size = 4
_fMaxRangeSq$531336 = -156				; size = 4
_value$540250 = -152					; size = 4
_value$540258 = -148					; size = 4
_value$540261 = -144					; size = 4
_value$540253 = -140					; size = 4
_qtRot$ = -136						; size = 16
_this$GSCopy$ = -120					; size = 4
tv682 = -116						; size = 4
_value$540273 = -116					; size = 4
_pStage$GSCopy$ = -112					; size = 4
tv652 = -108						; size = 4
$T540226 = -108						; size = 4
_szTarget$ = -104					; size = 16
_fLengthSq$531335 = -88					; size = 4
tv667 = -84						; size = 4
tv663 = -84						; size = 4
tv658 = -84						; size = 4
_Iter$ = -80						; size = 4
_value$540119 = -76					; size = 4
_fFPreLengthSq$ = -76					; size = 4
_value$540122 = -72					; size = 4
_pCurChar$531327 = -72					; size = 4
tv648 = -68						; size = 4
tv644 = -68						; size = 4
tv599 = -68						; size = 4
$T540269 = -68						; size = 4
$T540230 = -68						; size = 4
_fAngleGap$531343 = -68					; size = 4
_fValue$531342 = -68					; size = 4
$T531333 = -64						; size = 12
$T531332 = -52						; size = 12
$T531317 = -52						; size = 12
_vDiff$531331 = -40					; size = 12
_vDir$ = -28						; size = 12
__$EHRec$ = -12						; size = 12
_pChar$ = 8						; size = 4
_pStage$ = 12						; size = 4
?FindFarTarget@ioRangeTargetShotSkill@@IAEXPAVioBaseChar@@PAVioPlayStage@@@Z PROC ; ioRangeTargetShotSkill::FindFarTarget, COMDAT
; _this$ = ecx

; 410  : {

  00000	68 98 00 00 00	 push	 152			; 00000098H
  00005	b8 00 00 00 00	 mov	 eax, __ehhandler$?FindFarTarget@ioRangeTargetShotSkill@@IAEXPAVioBaseChar@@PAVioPlayStage@@@Z
  0000a	e8 00 00 00 00	 call	 __EH_prolog3_GS
  0000f	8b 5d 08	 mov	 ebx, DWORD PTR _pChar$[ebp]
  00012	8b 45 0c	 mov	 eax, DWORD PTR _pStage$[ebp]
  00015	8b f1		 mov	 esi, ecx

; 424  : 	for ( ; Iter != rkCharList.end(); ++Iter )

  00017	89 75 88	 mov	 DWORD PTR _this$GSCopy$[ebp], esi
  0001a	89 45 90	 mov	 DWORD PTR _pStage$GSCopy$[ebp], eax
  0001d	85 db		 test	 ebx, ebx
  0001f	0f 84 98 03 00
	00		 je	 $LN12@FindFarTar

; 411  : 	if( !pChar )
; 412  : 		return;
; 413  : 
; 414  : 	ioHashString	szTarget;

  00025	8d 4d 98	 lea	 ecx, DWORD PTR _szTarget$[ebp]
  00028	ff 15 00 00 00
	00		 call	 DWORD PTR __imp_??0ioHashString@@QAE@XZ
  0002e	83 65 fc 00	 and	 DWORD PTR __$EHRec$[ebp+8], 0

; 415  : 	float	fFPreLengthSq = m_fFTargetRange * m_fFTargetRange;

  00032	8d 45 b4	 lea	 eax, DWORD PTR _value$540119[ebp]
  00035	50		 push	 eax
  00036	8d 8e e8 10 00
	00		 lea	 ecx, DWORD PTR [esi+4328]
  0003c	e8 00 00 00 00	 call	 ?DecryptValueToPool@?$CEncrypt@M@@QAEXPAM@Z ; CEncrypt<float>::DecryptValueToPool
  00041	8d 45 b8	 lea	 eax, DWORD PTR _value$540122[ebp]
  00044	50		 push	 eax
  00045	8d 8e e8 10 00
	00		 lea	 ecx, DWORD PTR [esi+4328]
  0004b	e8 00 00 00 00	 call	 ?DecryptValueToPool@?$CEncrypt@M@@QAEXPAM@Z ; CEncrypt<float>::DecryptValueToPool
  00050	f3 0f 10 4d b4	 movss	 xmm1, DWORD PTR _value$540119[ebp]
  00055	f3 0f 10 45 b8	 movss	 xmm0, DWORD PTR _value$540122[ebp]

; 416  : 
; 417  : 	D3DXQUATERNION qtRot = pChar->GetTargetRot();

  0005a	8d b3 a4 06 00
	00		 lea	 esi, DWORD PTR [ebx+1700]
  00060	8d bd 78 ff ff
	ff		 lea	 edi, DWORD PTR _qtRot$[ebp]
  00066	a5		 movsd
  00067	a5		 movsd
  00068	a5		 movsd
  00069	0f 5a c0	 cvtps2pd xmm0, xmm0
  0006c	0f 5a c9	 cvtps2pd xmm1, xmm1
  0006f	f2 0f 59 c1	 mulsd	 xmm0, xmm1
  00073	66 0f 5a c0	 cvtpd2ps xmm0, xmm0
  00077	f3 0f 11 45 b4	 movss	 DWORD PTR _fFPreLengthSq$[ebp], xmm0
  0007c	a5		 movsd

; 418  : 	D3DXVECTOR3 vDir = qtRot * D3DXVECTOR3( 0.0f, 0.0f, -FLOAT1 );

  0007d	b8 01 00 00 00	 mov	 eax, 1
  00082	0f 57 c0	 xorps	 xmm0, xmm0
  00085	89 45 8c	 mov	 DWORD PTR tv682[ebp], eax
  00088	db 45 8c	 fild	 DWORD PTR tv682[ebp]
  0008b	f3 0f 11 45 cc	 movss	 DWORD PTR $T531317[ebp], xmm0
  00090	f3 0f 11 45 d0	 movss	 DWORD PTR $T531317[ebp+4], xmm0
  00095	85 c0		 test	 eax, eax
  00097	79 06		 jns	 SHORT $LN93@FindFarTar
  00099	d8 05 00 00 00
	00		 fadd	 DWORD PTR __real@4f800000
$LN93@FindFarTar:
  0009f	8d 45 cc	 lea	 eax, DWORD PTR $T531317[ebp]
  000a2	d9 e0		 fchs
  000a4	50		 push	 eax
  000a5	d9 5d d4	 fstp	 DWORD PTR $T531317[ebp+8]
  000a8	8d 85 78 ff ff
	ff		 lea	 eax, DWORD PTR _qtRot$[ebp]
  000ae	50		 push	 eax
  000af	8d 45 e4	 lea	 eax, DWORD PTR _vDir$[ebp]
  000b2	50		 push	 eax
  000b3	ff 15 00 00 00
	00		 call	 DWORD PTR __imp_??D@YA?AUD3DXVECTOR3@@ABUD3DXQUATERNION@@ABU0@@Z
  000b9	83 c4 0c	 add	 esp, 12			; 0000000cH

; 419  : 	D3DXVec3Normalize( &vDir, &vDir );

  000bc	8d 45 e4	 lea	 eax, DWORD PTR _vDir$[ebp]
  000bf	50		 push	 eax
  000c0	50		 push	 eax
  000c1	e8 00 00 00 00	 call	 _D3DXVec3Normalize@8

; 420  : 
; 421  : 	const BaseCharList &rkCharList = pStage->GetBaseCharList();
; 422  : 
; 423  : 	auto Iter = rkCharList.begin();

  000c6	8b 45 90	 mov	 eax, DWORD PTR _pStage$GSCopy$[ebp]
  000c9	8b 70 2c	 mov	 esi, DWORD PTR [eax+44]
  000cc	e9 c0 02 00 00	 jmp	 $LN98@FindFarTar

; 424  : 	for ( ; Iter != rkCharList.end(); ++Iter )

$LL33@FindFarTar:

; 425  : 	{
; 426  : 		ioBaseChar *pCurChar = *Iter;

  000d1	8b 3e		 mov	 edi, DWORD PTR [esi]
  000d3	89 7d b8	 mov	 DWORD PTR _pCurChar$531327[ebp], edi

; 427  : 
; 428  : 		if ( pCurChar == pChar )

  000d6	3b fb		 cmp	 edi, ebx
  000d8	0f 84 ad 02 00
	00		 je	 $LN9@FindFarTar

; 429  : 			continue;
; 430  : 
; 431  : 		if ( pCurChar->GetTeam() == pChar->GetTeam() )

  000de	8d 85 5c ff ff
	ff		 lea	 eax, DWORD PTR _value$540199[ebp]
  000e4	8d 8f 90 00 00
	00		 lea	 ecx, DWORD PTR [edi+144]
  000ea	50		 push	 eax
  000eb	e8 00 00 00 00	 call	 ?DecryptValueToPool@?$CEncrypt@W4TeamType@@@@QAEXPAW4TeamType@@@Z ; CEncrypt<enum TeamType>::DecryptValueToPool
  000f0	8d 85 60 ff ff
	ff		 lea	 eax, DWORD PTR _value$540212[ebp]
  000f6	8d 8b 90 00 00
	00		 lea	 ecx, DWORD PTR [ebx+144]
  000fc	50		 push	 eax
  000fd	e8 00 00 00 00	 call	 ?DecryptValueToPool@?$CEncrypt@W4TeamType@@@@QAEXPAW4TeamType@@@Z ; CEncrypt<enum TeamType>::DecryptValueToPool
  00102	8b 85 5c ff ff
	ff		 mov	 eax, DWORD PTR _value$540199[ebp]
  00108	3b 85 60 ff ff
	ff		 cmp	 eax, DWORD PTR _value$540212[ebp]
  0010e	0f 84 77 02 00
	00		 je	 $LN9@FindFarTar

; 432  : 			continue;
; 433  : 
; 434  : 		if( !IsEnableTargetState( pCurChar, true ) )

  00114	6a 01		 push	 1
  00116	57		 push	 edi
  00117	8b 7d 88	 mov	 edi, DWORD PTR _this$GSCopy$[ebp]
  0011a	8b cf		 mov	 ecx, edi
  0011c	e8 00 00 00 00	 call	 ?IsEnableTargetState@ioRangeTargetShotSkill@@IAE_NPAVioBaseChar@@_N@Z ; ioRangeTargetShotSkill::IsEnableTargetState
  00121	84 c0		 test	 al, al
  00123	0f 84 62 02 00
	00		 je	 $LN9@FindFarTar

; 435  : 			continue;
; 436  : 
; 437  : 		D3DXVECTOR3 vDiff = pCurChar->GetMidPositionByRate() - pChar->GetMidPositionByRate();

  00129	b8 05 00 00 00	 mov	 eax, 5
  0012e	8b c8		 mov	 ecx, eax
  00130	b8 0a 00 00 00	 mov	 eax, 10			; 0000000aH
  00135	8b d0		 mov	 edx, eax
  00137	b8 05 00 00 00	 mov	 eax, 5
  0013c	89 45 94	 mov	 DWORD PTR $T540226[ebp], eax
  0013f	b8 0a 00 00 00	 mov	 eax, 10			; 0000000aH
  00144	89 4d ac	 mov	 DWORD PTR tv667[ebp], ecx
  00147	db 45 ac	 fild	 DWORD PTR tv667[ebp]
  0014a	89 45 bc	 mov	 DWORD PTR $T540230[ebp], eax
  0014d	85 c9		 test	 ecx, ecx
  0014f	79 06		 jns	 SHORT $LN94@FindFarTar
  00151	d8 05 00 00 00
	00		 fadd	 DWORD PTR __real@4f800000
$LN94@FindFarTar:
  00157	89 55 ac	 mov	 DWORD PTR tv663[ebp], edx
  0015a	db 45 ac	 fild	 DWORD PTR tv663[ebp]
  0015d	85 d2		 test	 edx, edx
  0015f	79 06		 jns	 SHORT $LN95@FindFarTar
  00161	d8 05 00 00 00
	00		 fadd	 DWORD PTR __real@4f800000
$LN95@FindFarTar:
  00167	de f9		 fdivp	 ST(1), ST(0)
  00169	51		 push	 ecx
  0016a	8d 45 c0	 lea	 eax, DWORD PTR $T531333[ebp]
  0016d	8b cb		 mov	 ecx, ebx
  0016f	d9 5d ac	 fstp	 DWORD PTR tv658[ebp]
  00172	d9 45 ac	 fld	 DWORD PTR tv658[ebp]
  00175	d9 1c 24	 fstp	 DWORD PTR [esp]
  00178	50		 push	 eax
  00179	e8 00 00 00 00	 call	 ?GetMidPositionByRate@ioGameEntity@@QBE?AUD3DXVECTOR3@@M@Z ; ioGameEntity::GetMidPositionByRate
  0017e	db 45 94	 fild	 DWORD PTR $T540226[ebp]
  00181	8b f0		 mov	 esi, eax
  00183	8b 45 94	 mov	 eax, DWORD PTR $T540226[ebp]
  00186	85 c0		 test	 eax, eax
  00188	79 06		 jns	 SHORT $LN96@FindFarTar
  0018a	d8 05 00 00 00
	00		 fadd	 DWORD PTR __real@4f800000
$LN96@FindFarTar:
  00190	8b 45 bc	 mov	 eax, DWORD PTR $T540230[ebp]
  00193	db 45 bc	 fild	 DWORD PTR $T540230[ebp]
  00196	85 c0		 test	 eax, eax
  00198	79 06		 jns	 SHORT $LN97@FindFarTar
  0019a	d8 05 00 00 00
	00		 fadd	 DWORD PTR __real@4f800000
$LN97@FindFarTar:
  001a0	de f9		 fdivp	 ST(1), ST(0)
  001a2	51		 push	 ecx
  001a3	8b 4d b8	 mov	 ecx, DWORD PTR _pCurChar$531327[ebp]
  001a6	8d 45 cc	 lea	 eax, DWORD PTR $T531332[ebp]
  001a9	d9 5d bc	 fstp	 DWORD PTR tv644[ebp]
  001ac	d9 45 bc	 fld	 DWORD PTR tv644[ebp]
  001af	d9 1c 24	 fstp	 DWORD PTR [esp]
  001b2	50		 push	 eax
  001b3	e8 00 00 00 00	 call	 ?GetMidPositionByRate@ioGameEntity@@QBE?AUD3DXVECTOR3@@M@Z ; ioGameEntity::GetMidPositionByRate
  001b8	f3 0f 10 00	 movss	 xmm0, DWORD PTR [eax]
  001bc	f3 0f 10 0e	 movss	 xmm1, DWORD PTR [esi]
  001c0	f3 0f 10 56 04	 movss	 xmm2, DWORD PTR [esi+4]
  001c5	f3 0f 10 5e 08	 movss	 xmm3, DWORD PTR [esi+8]
  001ca	0f 5a c0	 cvtps2pd xmm0, xmm0
  001cd	0f 5a c9	 cvtps2pd xmm1, xmm1
  001d0	f2 0f 5c c1	 subsd	 xmm0, xmm1
  001d4	f3 0f 10 48 04	 movss	 xmm1, DWORD PTR [eax+4]
  001d9	0f 5a d2	 cvtps2pd xmm2, xmm2
  001dc	0f 5a c9	 cvtps2pd xmm1, xmm1
  001df	f2 0f 5c ca	 subsd	 xmm1, xmm2
  001e3	f3 0f 10 50 08	 movss	 xmm2, DWORD PTR [eax+8]
  001e8	66 0f 5a c0	 cvtpd2ps xmm0, xmm0
  001ec	0f 5a d2	 cvtps2pd xmm2, xmm2
  001ef	f3 0f 11 45 d8	 movss	 DWORD PTR _vDiff$531331[ebp], xmm0
  001f4	66 0f 5a c9	 cvtpd2ps xmm1, xmm1
  001f8	0f 5a db	 cvtps2pd xmm3, xmm3
  001fb	f2 0f 5c d3	 subsd	 xmm2, xmm3
  001ff	66 0f 5a d2	 cvtpd2ps xmm2, xmm2

; 438  : 		float fLengthSq = D3DXVec3LengthSq( &vDiff );

  00203	f3 0f 5a c0	 cvtss2sd xmm0, xmm0
  00207	f3 0f 11 4d dc	 movss	 DWORD PTR _vDiff$531331[ebp+4], xmm1
  0020c	f3 0f 11 55 e0	 movss	 DWORD PTR _vDiff$531331[ebp+8], xmm2
  00211	f2 0f 59 c0	 mulsd	 xmm0, xmm0
  00215	f3 0f 5a c9	 cvtss2sd xmm1, xmm1
  00219	f3 0f 5a d2	 cvtss2sd xmm2, xmm2
  0021d	f2 0f 59 c9	 mulsd	 xmm1, xmm1
  00221	f2 0f 58 c1	 addsd	 xmm0, xmm1
  00225	f2 0f 59 d2	 mulsd	 xmm2, xmm2

; 439  : 
; 440  : 		float fMaxRangeSq = m_fFTargetRange * m_fFTargetRange;

  00229	8d 85 68 ff ff
	ff		 lea	 eax, DWORD PTR _value$540250[ebp]
  0022f	f2 0f 58 c2	 addsd	 xmm0, xmm2
  00233	66 0f 5a c0	 cvtpd2ps xmm0, xmm0
  00237	50		 push	 eax
  00238	8d 8f e8 10 00
	00		 lea	 ecx, DWORD PTR [edi+4328]
  0023e	f3 0f 11 45 a8	 movss	 DWORD PTR _fLengthSq$531335[ebp], xmm0
  00243	e8 00 00 00 00	 call	 ?DecryptValueToPool@?$CEncrypt@M@@QAEXPAM@Z ; CEncrypt<float>::DecryptValueToPool
  00248	8d 85 74 ff ff
	ff		 lea	 eax, DWORD PTR _value$540253[ebp]
  0024e	50		 push	 eax
  0024f	8d 8f e8 10 00
	00		 lea	 ecx, DWORD PTR [edi+4328]
  00255	e8 00 00 00 00	 call	 ?DecryptValueToPool@?$CEncrypt@M@@QAEXPAM@Z ; CEncrypt<float>::DecryptValueToPool
  0025a	f3 0f 10 85 74
	ff ff ff	 movss	 xmm0, DWORD PTR _value$540253[ebp]
  00262	f3 0f 10 8d 68
	ff ff ff	 movss	 xmm1, DWORD PTR _value$540250[ebp]
  0026a	0f 5a c0	 cvtps2pd xmm0, xmm0
  0026d	0f 5a c9	 cvtps2pd xmm1, xmm1

; 441  : 		float fMinRangeSq = m_fFTargetMinRange * m_fFTargetMinRange;

  00270	8d 85 6c ff ff
	ff		 lea	 eax, DWORD PTR _value$540258[ebp]
  00276	f2 0f 59 c1	 mulsd	 xmm0, xmm1
  0027a	66 0f 5a c0	 cvtpd2ps xmm0, xmm0
  0027e	50		 push	 eax
  0027f	8d 8f 18 11 00
	00		 lea	 ecx, DWORD PTR [edi+4376]
  00285	f3 0f 11 85 64
	ff ff ff	 movss	 DWORD PTR _fMaxRangeSq$531336[ebp], xmm0
  0028d	e8 00 00 00 00	 call	 ?DecryptValueToPool@?$CEncrypt@M@@QAEXPAM@Z ; CEncrypt<float>::DecryptValueToPool
  00292	8d 85 70 ff ff
	ff		 lea	 eax, DWORD PTR _value$540261[ebp]
  00298	50		 push	 eax
  00299	8d 8f 18 11 00
	00		 lea	 ecx, DWORD PTR [edi+4376]
  0029f	e8 00 00 00 00	 call	 ?DecryptValueToPool@?$CEncrypt@M@@QAEXPAM@Z ; CEncrypt<float>::DecryptValueToPool
  002a4	f3 0f 10 8d 6c
	ff ff ff	 movss	 xmm1, DWORD PTR _value$540258[ebp]
  002ac	f3 0f 10 85 70
	ff ff ff	 movss	 xmm0, DWORD PTR _value$540261[ebp]
  002b4	0f 5a c0	 cvtps2pd xmm0, xmm0
  002b7	0f 5a c9	 cvtps2pd xmm1, xmm1
  002ba	f2 0f 59 c1	 mulsd	 xmm0, xmm1

; 442  : 		if( !COMPARE( fLengthSq, fMinRangeSq, fMaxRangeSq ) )

  002be	f3 0f 10 4d a8	 movss	 xmm1, DWORD PTR _fLengthSq$531335[ebp]
  002c3	66 0f 5a c0	 cvtpd2ps xmm0, xmm0
  002c7	0f 5a c9	 cvtps2pd xmm1, xmm1
  002ca	f3 0f 5a c0	 cvtss2sd xmm0, xmm0
  002ce	66 0f 2f c8	 comisd	 xmm1, xmm0
  002d2	0f 82 b0 00 00
	00		 jb	 $LN89@FindFarTar
  002d8	f3 0f 10 45 a8	 movss	 xmm0, DWORD PTR _fLengthSq$531335[ebp]
  002dd	f3 0f 10 8d 64
	ff ff ff	 movss	 xmm1, DWORD PTR _fMaxRangeSq$531336[ebp]
  002e5	0f 5a c0	 cvtps2pd xmm0, xmm0
  002e8	0f 5a c9	 cvtps2pd xmm1, xmm1
  002eb	66 0f 2f c8	 comisd	 xmm1, xmm0
  002ef	0f 86 93 00 00
	00		 jbe	 $LN89@FindFarTar

; 443  : 			continue;
; 444  : 
; 445  : 		D3DXVec3Normalize( &vDiff, &vDiff );

  002f5	8d 45 d8	 lea	 eax, DWORD PTR _vDiff$531331[ebp]
  002f8	50		 push	 eax
  002f9	50		 push	 eax
  002fa	e8 00 00 00 00	 call	 _D3DXVec3Normalize@8

; 446  : 		float fValue = D3DXVec3Dot( &vDir, &vDiff );

  002ff	d9 45 e8	 fld	 DWORD PTR _vDir$[ebp+4]
  00302	d8 4d dc	 fmul	 DWORD PTR _vDiff$531331[ebp+4]
  00305	d9 45 e4	 fld	 DWORD PTR _vDir$[ebp]
  00308	d8 4d d8	 fmul	 DWORD PTR _vDiff$531331[ebp]
  0030b	de c1		 faddp	 ST(1), ST(0)
  0030d	d9 45 ec	 fld	 DWORD PTR _vDir$[ebp+8]
  00310	d8 4d e0	 fmul	 DWORD PTR _vDiff$531331[ebp+8]
  00313	de c1		 faddp	 ST(1), ST(0)
  00315	d9 5d bc	 fstp	 DWORD PTR _fValue$531342[ebp]

; 447  : 		float fAngleGap = RADtoDEG( acosf(fValue) );

  00318	d9 45 bc	 fld	 DWORD PTR _fValue$531342[ebp]
  0031b	e8 00 00 00 00	 call	 __CIacos
  00320	d9 5d bc	 fstp	 DWORD PTR tv599[ebp]
  00323	d9 45 bc	 fld	 DWORD PTR tv599[ebp]
  00326	51		 push	 ecx
  00327	d9 5d bc	 fstp	 DWORD PTR $T540269[ebp]
  0032a	f3 0f 10 45 bc	 movss	 xmm0, DWORD PTR $T540269[ebp]
  0032f	f3 0f 11 04 24	 movss	 DWORD PTR [esp], xmm0
  00334	e8 00 00 00 00	 call	 ??$RADtoDEG@M@@YAMM@Z	; RADtoDEG<float>
  00339	d9 5d bc	 fstp	 DWORD PTR _fAngleGap$531343[ebp]
  0033c	59		 pop	 ecx

; 448  : 		if( fAngleGap >= m_fFTargetAngle )

  0033d	8d 45 8c	 lea	 eax, DWORD PTR _value$540273[ebp]
  00340	50		 push	 eax
  00341	8d 8f b8 10 00
	00		 lea	 ecx, DWORD PTR [edi+4280]
  00347	e8 00 00 00 00	 call	 ?DecryptValueToPool@?$CEncrypt@M@@QAEXPAM@Z ; CEncrypt<float>::DecryptValueToPool
  0034c	d9 45 8c	 fld	 DWORD PTR _value$540273[ebp]
  0034f	d9 45 bc	 fld	 DWORD PTR _fAngleGap$531343[ebp]
  00352	df f1		 fcomip	 ST(1)
  00354	dd d8		 fstp	 ST(0)
  00356	73 30		 jae	 SHORT $LN89@FindFarTar

; 449  : 			continue;
; 450  : 
; 451  : 		if( fLengthSq < fFPreLengthSq )

  00358	f3 0f 10 45 a8	 movss	 xmm0, DWORD PTR _fLengthSq$531335[ebp]
  0035d	f3 0f 10 55 b4	 movss	 xmm2, DWORD PTR _fFPreLengthSq$[ebp]
  00362	0f 57 c9	 xorps	 xmm1, xmm1
  00365	0f 5a c8	 cvtps2pd xmm1, xmm0
  00368	0f 5a d2	 cvtps2pd xmm2, xmm2
  0036b	66 0f 2f d1	 comisd	 xmm2, xmm1
  0036f	76 17		 jbe	 SHORT $LN89@FindFarTar

; 452  : 		{
; 453  : 			fFPreLengthSq = fLengthSq;
; 454  : 			szTarget = pCurChar->GetCharName();

  00371	8b 45 b8	 mov	 eax, DWORD PTR _pCurChar$531327[ebp]
  00374	05 d4 02 00 00	 add	 eax, 724		; 000002d4H
  00379	50		 push	 eax
  0037a	8d 4d 98	 lea	 ecx, DWORD PTR _szTarget$[ebp]
  0037d	f3 0f 11 45 b4	 movss	 DWORD PTR _fFPreLengthSq$[ebp], xmm0
  00382	ff 15 00 00 00
	00		 call	 DWORD PTR __imp_??4ioHashString@@QAEAAV0@ABV0@@Z
$LN89@FindFarTar:
  00388	8b 75 b0	 mov	 esi, DWORD PTR _Iter$[ebp]
$LN9@FindFarTar:

; 424  : 	for ( ; Iter != rkCharList.end(); ++Iter )

  0038b	8b 45 90	 mov	 eax, DWORD PTR _pStage$GSCopy$[ebp]
  0038e	83 c6 04	 add	 esi, 4
$LN98@FindFarTar:
  00391	89 75 b0	 mov	 DWORD PTR _Iter$[ebp], esi
  00394	3b 70 30	 cmp	 esi, DWORD PTR [eax+48]
  00397	0f 85 34 fd ff
	ff		 jne	 $LL33@FindFarTar

; 455  : 		}
; 456  : 	}
; 457  : 
; 458  : 	m_szFarTargetName = szTarget;

  0039d	8b 4d 88	 mov	 ecx, DWORD PTR _this$GSCopy$[ebp]
  003a0	8d 45 98	 lea	 eax, DWORD PTR _szTarget$[ebp]
  003a3	50		 push	 eax
  003a4	81 c1 7c 0f 00
	00		 add	 ecx, 3964		; 00000f7cH
  003aa	ff 15 00 00 00
	00		 call	 DWORD PTR __imp_??4ioHashString@@QAEAAV0@ABV0@@Z

; 459  : }

  003b0	83 4d fc ff	 or	 DWORD PTR __$EHRec$[ebp+8], -1
  003b4	8d 4d 98	 lea	 ecx, DWORD PTR _szTarget$[ebp]
  003b7	ff 15 00 00 00
	00		 call	 DWORD PTR __imp_??1ioHashString@@QAE@XZ
$LN12@FindFarTar:
  003bd	e8 00 00 00 00	 call	 __EH_epilog3_GS
  003c2	c2 08 00	 ret	 8
_TEXT	ENDS
;	COMDAT text$x
text$x	SEGMENT
__unwindfunclet$?FindFarTarget@ioRangeTargetShotSkill@@IAEXPAVioBaseChar@@PAVioPlayStage@@@Z$0:
  00000	8d 4d 98	 lea	 ecx, DWORD PTR _szTarget$[ebp]
  00003	ff 25 00 00 00
	00		 jmp	 DWORD PTR __imp_??1ioHashString@@QAE@XZ
__ehhandler$?FindFarTarget@ioRangeTargetShotSkill@@IAEXPAVioBaseChar@@PAVioPlayStage@@@Z:
  00009	8b 54 24 08	 mov	 edx, DWORD PTR [esp+8]
  0000d	8d 42 0c	 lea	 eax, DWORD PTR [edx+12]
  00010	8b 8a 58 ff ff
	ff		 mov	 ecx, DWORD PTR [edx-168]
  00016	33 c8		 xor	 ecx, eax
  00018	e8 00 00 00 00	 call	 @__security_check_cookie@4
  0001d	8b 4a fc	 mov	 ecx, DWORD PTR [edx-4]
  00020	33 c8		 xor	 ecx, eax
  00022	e8 00 00 00 00	 call	 @__security_check_cookie@4
  00027	b8 00 00 00 00	 mov	 eax, OFFSET __ehfuncinfo$?FindFarTarget@ioRangeTargetShotSkill@@IAEXPAVioBaseChar@@PAVioPlayStage@@@Z
  0002c	e9 00 00 00 00	 jmp	 ___CxxFrameHandler3
text$x	ENDS
?FindFarTarget@ioRangeTargetShotSkill@@IAEXPAVioBaseChar@@PAVioPlayStage@@@Z ENDP ; ioRangeTargetShotSkill::FindFarTarget
PUBLIC	?CheckTarget@ioRangeTargetShotSkill@@IAEHPAVioBaseChar@@PAVioPlayStage@@@Z ; ioRangeTargetShotSkill::CheckTarget
EXTRN	__imp_??8ioHashString@@QBE_NABV0@@Z:PROC
; Function compile flags: /Ogsp
;	COMDAT ?CheckTarget@ioRangeTargetShotSkill@@IAEHPAVioBaseChar@@PAVioPlayStage@@@Z
_TEXT	SEGMENT
_pChar$ = 8						; size = 4
_pStage$ = 12						; size = 4
?CheckTarget@ioRangeTargetShotSkill@@IAEHPAVioBaseChar@@PAVioPlayStage@@@Z PROC ; ioRangeTargetShotSkill::CheckTarget, COMDAT
; _this$ = ecx

; 462  : {

  00000	55		 push	 ebp
  00001	8b ec		 mov	 ebp, esp
  00003	56		 push	 esi
  00004	8b f1		 mov	 esi, ecx
  00006	57		 push	 edi

; 463  : 	if ( m_szNearTargetName.IsEmpty() && m_szFarTargetName.IsEmpty() )

  00007	8d be 6c 0f 00
	00		 lea	 edi, DWORD PTR [esi+3948]
  0000d	8b cf		 mov	 ecx, edi
  0000f	ff 15 00 00 00
	00		 call	 DWORD PTR __imp_?IsEmpty@ioHashString@@QBE_NXZ
  00015	84 c0		 test	 al, al
  00017	74 37		 je	 SHORT $LN10@CheckTarge
  00019	8d 8e 7c 0f 00
	00		 lea	 ecx, DWORD PTR [esi+3964]
  0001f	ff 15 00 00 00
	00		 call	 DWORD PTR __imp_?IsEmpty@ioHashString@@QBE_NXZ
  00025	84 c0		 test	 al, al
  00027	74 27		 je	 SHORT $LN10@CheckTarge

; 464  : 	{
; 465  : 		m_szTargetName.Clear();

  00029	8d 8e 5c 0f 00
	00		 lea	 ecx, DWORD PTR [esi+3932]
  0002f	ff 15 00 00 00
	00		 call	 DWORD PTR __imp_?Clear@ioHashString@@QAEXXZ

; 466  : 		m_bFindNear = true;
; 467  : 		m_bFindFar = true;
; 468  : 		DestroyAimMarker( pChar );

  00035	ff 75 08	 push	 DWORD PTR _pChar$[ebp]
  00038	8b ce		 mov	 ecx, esi
  0003a	66 c7 86 48 11
	00 00 01 01	 mov	 WORD PTR [esi+4424], 257 ; 00000101H
  00043	e8 00 00 00 00	 call	 ?DestroyAimMarker@ioRangeTargetShotSkill@@IAEXPAVioBaseChar@@@Z ; ioRangeTargetShotSkill::DestroyAimMarker
$LN1@CheckTarge:

; 502  : 		CreateAimMarker( pChar, pStage );
; 503  : 		return TA_FAR;
; 504  : 	}
; 505  : 
; 506  : 	return TA_NONE;

  00048	33 c0		 xor	 eax, eax
$LN11@CheckTarge:
  0004a	5f		 pop	 edi
  0004b	5e		 pop	 esi

; 507  : }

  0004c	5d		 pop	 ebp
  0004d	c2 08 00	 ret	 8
$LN10@CheckTarge:

; 469  : 		return TA_NONE;
; 470  : 	}
; 471  : 	else if ( !m_szNearTargetName.IsEmpty() && !m_szFarTargetName.IsEmpty() )

  00050	8b cf		 mov	 ecx, edi
  00052	ff 15 00 00 00
	00		 call	 DWORD PTR __imp_?IsEmpty@ioHashString@@QBE_NXZ
  00058	84 c0		 test	 al, al
  0005a	0f 85 89 00 00
	00		 jne	 $LN8@CheckTarge
  00060	8d 8e 7c 0f 00
	00		 lea	 ecx, DWORD PTR [esi+3964]
  00066	ff 15 00 00 00
	00		 call	 DWORD PTR __imp_?IsEmpty@ioHashString@@QBE_NXZ
  0006c	84 c0		 test	 al, al
  0006e	75 79		 jne	 SHORT $LN8@CheckTarge

; 472  : 	{
; 473  : 		if ( m_szPreTargetName == m_szNearTargetName || ( !m_bFindNear && m_bFindFar ) )

  00070	53		 push	 ebx
  00071	57		 push	 edi
  00072	8d 8e 8c 0f 00
	00		 lea	 ecx, DWORD PTR [esi+3980]
  00078	ff 15 00 00 00
	00		 call	 DWORD PTR __imp_??8ioHashString@@QBE_NABV0@@Z
  0007e	84 c0		 test	 al, al
  00080	75 2a		 jne	 SHORT $LN6@CheckTarge
  00082	38 86 48 11 00
	00		 cmp	 BYTE PTR [esi+4424], al
  00088	75 08		 jne	 SHORT $LN7@CheckTarge
  0008a	38 86 49 11 00
	00		 cmp	 BYTE PTR [esi+4425], al
  00090	75 1a		 jne	 SHORT $LN6@CheckTarge
$LN7@CheckTarge:

; 480  : 		}
; 481  : 		else
; 482  : 		{
; 483  : 			m_szTargetName = m_szNearTargetName;

  00092	57		 push	 edi
  00093	8d 8e 5c 0f 00
	00		 lea	 ecx, DWORD PTR [esi+3932]
  00099	ff 15 00 00 00
	00		 call	 DWORD PTR __imp_??4ioHashString@@QAEAAV0@ABV0@@Z

; 484  : 			m_szNearTargetName.Clear();

  0009f	8b cf		 mov	 ecx, edi
  000a1	ff 15 00 00 00
	00		 call	 DWORD PTR __imp_?Clear@ioHashString@@QAEXXZ
  000a7	33 ff		 xor	 edi, edi
  000a9	47		 inc	 edi
  000aa	eb 28		 jmp	 SHORT $LN14@CheckTarge
$LN6@CheckTarge:

; 474  : 		{
; 475  : 			m_szTargetName = m_szFarTargetName;

  000ac	8d be 7c 0f 00
	00		 lea	 edi, DWORD PTR [esi+3964]
  000b2	57		 push	 edi
  000b3	8d 8e 5c 0f 00
	00		 lea	 ecx, DWORD PTR [esi+3932]
  000b9	ff 15 00 00 00
	00		 call	 DWORD PTR __imp_??4ioHashString@@QAEAAV0@ABV0@@Z

; 476  : 			m_szFarTargetName.Clear();

  000bf	8b cf		 mov	 ecx, edi
  000c1	8b 3d 00 00 00
	00		 mov	 edi, DWORD PTR __imp_?Clear@ioHashString@@QAEXXZ
  000c7	ff d7		 call	 edi

; 477  : 			m_szPreTargetName.Clear();

  000c9	8d 8e 8c 0f 00
	00		 lea	 ecx, DWORD PTR [esi+3980]
  000cf	ff d7		 call	 edi
  000d1	6a 02		 push	 2
  000d3	5f		 pop	 edi
$LN14@CheckTarge:
  000d4	5b		 pop	 ebx
$LN13@CheckTarge:

; 478  : 			CreateAimMarker( pChar, pStage );

  000d5	ff 75 0c	 push	 DWORD PTR _pStage$[ebp]
  000d8	8b ce		 mov	 ecx, esi
  000da	ff 75 08	 push	 DWORD PTR _pChar$[ebp]
  000dd	e8 00 00 00 00	 call	 ?CreateAimMarker@ioRangeTargetShotSkill@@IAEXPAVioBaseChar@@PAVioPlayStage@@@Z ; ioRangeTargetShotSkill::CreateAimMarker

; 479  : 			return TA_FAR;

  000e2	8b c7		 mov	 eax, edi
  000e4	e9 61 ff ff ff	 jmp	 $LN11@CheckTarge
$LN8@CheckTarge:

; 485  : 			CreateAimMarker( pChar, pStage );
; 486  : 			return TA_NEAR;
; 487  : 		}		
; 488  : 	}
; 489  : 	else if ( !m_szNearTargetName.IsEmpty() && m_szFarTargetName.IsEmpty() )

  000e9	8b cf		 mov	 ecx, edi
  000eb	ff 15 00 00 00
	00		 call	 DWORD PTR __imp_?IsEmpty@ioHashString@@QBE_NXZ
  000f1	84 c0		 test	 al, al
  000f3	75 31		 jne	 SHORT $LN3@CheckTarge
  000f5	8d 8e 7c 0f 00
	00		 lea	 ecx, DWORD PTR [esi+3964]
  000fb	ff 15 00 00 00
	00		 call	 DWORD PTR __imp_?IsEmpty@ioHashString@@QBE_NXZ
  00101	84 c0		 test	 al, al
  00103	74 21		 je	 SHORT $LN3@CheckTarge

; 490  : 	{
; 491  : 		m_szTargetName = m_szNearTargetName;

  00105	57		 push	 edi
  00106	8d 8e 5c 0f 00
	00		 lea	 ecx, DWORD PTR [esi+3932]
  0010c	ff 15 00 00 00
	00		 call	 DWORD PTR __imp_??4ioHashString@@QAEAAV0@ABV0@@Z

; 492  : 		m_szNearTargetName.Clear();

  00112	8b cf		 mov	 ecx, edi
  00114	ff 15 00 00 00
	00		 call	 DWORD PTR __imp_?Clear@ioHashString@@QAEXXZ

; 493  : 		m_bFindFar = true;

  0011a	33 ff		 xor	 edi, edi
  0011c	c6 86 49 11 00
	00 01		 mov	 BYTE PTR [esi+4425], 1
  00123	47		 inc	 edi
  00124	eb af		 jmp	 SHORT $LN13@CheckTarge
$LN3@CheckTarge:

; 494  : 		CreateAimMarker( pChar, pStage );
; 495  : 		return TA_NEAR;
; 496  : 	}
; 497  : 	else if ( m_szNearTargetName.IsEmpty() && !m_szFarTargetName.IsEmpty() )

  00126	8b cf		 mov	 ecx, edi
  00128	ff 15 00 00 00
	00		 call	 DWORD PTR __imp_?IsEmpty@ioHashString@@QBE_NXZ
  0012e	84 c0		 test	 al, al
  00130	0f 84 12 ff ff
	ff		 je	 $LN1@CheckTarge
  00136	8d be 7c 0f 00
	00		 lea	 edi, DWORD PTR [esi+3964]
  0013c	8b cf		 mov	 ecx, edi
  0013e	ff 15 00 00 00
	00		 call	 DWORD PTR __imp_?IsEmpty@ioHashString@@QBE_NXZ
  00144	84 c0		 test	 al, al
  00146	0f 85 fc fe ff
	ff		 jne	 $LN1@CheckTarge

; 498  : 	{
; 499  : 		m_szTargetName = m_szFarTargetName;

  0014c	57		 push	 edi
  0014d	8d 8e 5c 0f 00
	00		 lea	 ecx, DWORD PTR [esi+3932]
  00153	ff 15 00 00 00
	00		 call	 DWORD PTR __imp_??4ioHashString@@QAEAAV0@ABV0@@Z

; 500  : 		m_szFarTargetName.Clear();

  00159	8b cf		 mov	 ecx, edi
  0015b	ff 15 00 00 00
	00		 call	 DWORD PTR __imp_?Clear@ioHashString@@QAEXXZ

; 501  : 		m_bFindNear = true;

  00161	6a 02		 push	 2
  00163	c6 86 48 11 00
	00 01		 mov	 BYTE PTR [esi+4424], 1
  0016a	5f		 pop	 edi
  0016b	e9 65 ff ff ff	 jmp	 $LN13@CheckTarge
?CheckTarget@ioRangeTargetShotSkill@@IAEHPAVioBaseChar@@PAVioPlayStage@@@Z ENDP ; ioRangeTargetShotSkill::CheckTarget
_TEXT	ENDS
PUBLIC	??$_Uninitialized_copy@V?$_Vector_const_iterator@V?$_Vector_val@UForceInfo@@V?$allocator@UForceInfo@@@std@@@std@@@std@@PAUForceInfo@@V?$allocator@UForceInfo@@@2@@std@@YAPAUForceInfo@@V?$_Vector_const_iterator@V?$_Vector_val@UForceInfo@@V?$allocator@UForceInfo@@@std@@@std@@@0@0PAU1@AAV?$allocator@UForceInfo@@@0@@Z ; std::_Uninitialized_copy<std::_Vector_const_iterator<std::_Vector_val<ForceInfo,std::allocator<ForceInfo> > >,ForceInfo *,std::allocator<ForceInfo> >
; Function compile flags: /Ogsp
; File c:\program files (x86)\microsoft visual studio 10.0\vc\include\memory
;	COMDAT ??$_Uninitialized_copy@V?$_Vector_const_iterator@V?$_Vector_val@UForceInfo@@V?$allocator@UForceInfo@@@std@@@std@@@std@@PAUForceInfo@@V?$allocator@UForceInfo@@@2@@std@@YAPAUForceInfo@@V?$_Vector_const_iterator@V?$_Vector_val@UForceInfo@@V?$allocator@UForceInfo@@@std@@@std@@@0@0PAU1@AAV?$allocator@UForceInfo@@@0@@Z
_TEXT	SEGMENT
__Cat$540307 = -4					; size = 1
__First$ = 8						; size = 4
__Last$ = 12						; size = 4
__Dest$ = 16						; size = 4
__Al$ = 20						; size = 4
??$_Uninitialized_copy@V?$_Vector_const_iterator@V?$_Vector_val@UForceInfo@@V?$allocator@UForceInfo@@@std@@@std@@@std@@PAUForceInfo@@V?$allocator@UForceInfo@@@2@@std@@YAPAUForceInfo@@V?$_Vector_const_iterator@V?$_Vector_val@UForceInfo@@V?$allocator@UForceInfo@@@std@@@std@@@0@0PAU1@AAV?$allocator@UForceInfo@@@0@@Z PROC ; std::_Uninitialized_copy<std::_Vector_const_iterator<std::_Vector_val<ForceInfo,std::allocator<ForceInfo> > >,ForceInfo *,std::allocator<ForceInfo> >, COMDAT

; 412  : 	{	// copy [_First, _Last) to raw _Dest, using _Al

  00000	55		 push	 ebp
  00001	8b ec		 mov	 ebp, esp
  00003	51		 push	 ecx

; 413  : 	return (_Uninit_copy(_First, _Last, _Dest, _Al,
; 414  : 		_Ptr_cat(_First, _Dest)));

  00004	ff 75 fc	 push	 DWORD PTR __Cat$540307[ebp]
  00007	ff 75 14	 push	 DWORD PTR __Al$[ebp]
  0000a	ff 75 10	 push	 DWORD PTR __Dest$[ebp]
  0000d	ff 75 0c	 push	 DWORD PTR __Last$[ebp]
  00010	ff 75 08	 push	 DWORD PTR __First$[ebp]
  00013	e8 00 00 00 00	 call	 ??$_Uninit_copy@V?$_Vector_const_iterator@V?$_Vector_val@UForceInfo@@V?$allocator@UForceInfo@@@std@@@std@@@std@@PAUForceInfo@@V?$allocator@UForceInfo@@@2@@std@@YAPAUForceInfo@@V?$_Vector_const_iterator@V?$_Vector_val@UForceInfo@@V?$allocator@UForceInfo@@@std@@@std@@@0@0PAU1@AAV?$allocator@UForceInfo@@@0@U_Nonscalar_ptr_iterator_tag@0@@Z ; std::_Uninit_copy<std::_Vector_const_iterator<std::_Vector_val<ForceInfo,std::allocator<ForceInfo> > >,ForceInfo *,std::allocator<ForceInfo> >
  00018	83 c4 14	 add	 esp, 20			; 00000014H

; 415  : 	}

  0001b	c9		 leave
  0001c	c3		 ret	 0
??$_Uninitialized_copy@V?$_Vector_const_iterator@V?$_Vector_val@UForceInfo@@V?$allocator@UForceInfo@@@std@@@std@@@std@@PAUForceInfo@@V?$allocator@UForceInfo@@@2@@std@@YAPAUForceInfo@@V?$_Vector_const_iterator@V?$_Vector_val@UForceInfo@@V?$allocator@UForceInfo@@@std@@@std@@@0@0PAU1@AAV?$allocator@UForceInfo@@@0@@Z ENDP ; std::_Uninitialized_copy<std::_Vector_const_iterator<std::_Vector_val<ForceInfo,std::allocator<ForceInfo> > >,ForceInfo *,std::allocator<ForceInfo> >
_TEXT	ENDS
PUBLIC	??$_Uninit_copy@V?$_Vector_const_iterator@V?$_Vector_val@UWeaponInfo@@V?$allocator@UWeaponInfo@@@std@@@std@@@std@@PAUWeaponInfo@@V?$allocator@UWeaponInfo@@@2@@std@@YAPAUWeaponInfo@@V?$_Vector_const_iterator@V?$_Vector_val@UWeaponInfo@@V?$allocator@UWeaponInfo@@@std@@@std@@@0@0PAU1@AAV?$allocator@UWeaponInfo@@@0@U_Nonscalar_ptr_iterator_tag@0@@Z ; std::_Uninit_copy<std::_Vector_const_iterator<std::_Vector_val<WeaponInfo,std::allocator<WeaponInfo> > >,WeaponInfo *,std::allocator<WeaponInfo> >
EXTRN	__EH_prolog3_catch:PROC
;	COMDAT xdata$x
; File d:\lost saga for developer\youtube\tutorial\source\src\lsclient\playentityhelpstruct.h
xdata$x	SEGMENT
__catchsym$??$_Uninit_copy@V?$_Vector_const_iterator@V?$_Vector_val@UWeaponInfo@@V?$allocator@UWeaponInfo@@@std@@@std@@@std@@PAUWeaponInfo@@V?$allocator@UWeaponInfo@@@2@@std@@YAPAUWeaponInfo@@V?$_Vector_const_iterator@V?$_Vector_val@UWeaponInfo@@V?$allocator@UWeaponInfo@@@std@@@std@@@0@0PAU1@AAV?$allocator@UWeaponInfo@@@0@U_Nonscalar_ptr_iterator_tag@0@@Z$3 DD 040H
	DD	00H
	DD	00H
	DD	FLAT:__catch$??$_Uninit_copy@V?$_Vector_const_iterator@V?$_Vector_val@UWeaponInfo@@V?$allocator@UWeaponInfo@@@std@@@std@@@std@@PAUWeaponInfo@@V?$allocator@UWeaponInfo@@@2@@std@@YAPAUWeaponInfo@@V?$_Vector_const_iterator@V?$_Vector_val@UWeaponInfo@@V?$allocator@UWeaponInfo@@@std@@@std@@@0@0PAU1@AAV?$allocator@UWeaponInfo@@@0@U_Nonscalar_ptr_iterator_tag@0@@Z$0
__unwindtable$??$_Uninit_copy@V?$_Vector_const_iterator@V?$_Vector_val@UWeaponInfo@@V?$allocator@UWeaponInfo@@@std@@@std@@@std@@PAUWeaponInfo@@V?$allocator@UWeaponInfo@@@2@@std@@YAPAUWeaponInfo@@V?$_Vector_const_iterator@V?$_Vector_val@UWeaponInfo@@V?$allocator@UWeaponInfo@@@std@@@std@@@0@0PAU1@AAV?$allocator@UWeaponInfo@@@0@U_Nonscalar_ptr_iterator_tag@0@@Z DD 0ffffffffH
	DD	00H
	DD	0ffffffffH
	DD	00H
__tryblocktable$??$_Uninit_copy@V?$_Vector_const_iterator@V?$_Vector_val@UWeaponInfo@@V?$allocator@UWeaponInfo@@@std@@@std@@@std@@PAUWeaponInfo@@V?$allocator@UWeaponInfo@@@2@@std@@YAPAUWeaponInfo@@V?$_Vector_const_iterator@V?$_Vector_val@UWeaponInfo@@V?$allocator@UWeaponInfo@@@std@@@std@@@0@0PAU1@AAV?$allocator@UWeaponInfo@@@0@U_Nonscalar_ptr_iterator_tag@0@@Z DD 00H
	DD	00H
	DD	01H
	DD	01H
	DD	FLAT:__catchsym$??$_Uninit_copy@V?$_Vector_const_iterator@V?$_Vector_val@UWeaponInfo@@V?$allocator@UWeaponInfo@@@std@@@std@@@std@@PAUWeaponInfo@@V?$allocator@UWeaponInfo@@@2@@std@@YAPAUWeaponInfo@@V?$_Vector_const_iterator@V?$_Vector_val@UWeaponInfo@@V?$allocator@UWeaponInfo@@@std@@@std@@@0@0PAU1@AAV?$allocator@UWeaponInfo@@@0@U_Nonscalar_ptr_iterator_tag@0@@Z$3
__ehfuncinfo$??$_Uninit_copy@V?$_Vector_const_iterator@V?$_Vector_val@UWeaponInfo@@V?$allocator@UWeaponInfo@@@std@@@std@@@std@@PAUWeaponInfo@@V?$allocator@UWeaponInfo@@@2@@std@@YAPAUWeaponInfo@@V?$_Vector_const_iterator@V?$_Vector_val@UWeaponInfo@@V?$allocator@UWeaponInfo@@@std@@@std@@@0@0PAU1@AAV?$allocator@UWeaponInfo@@@0@U_Nonscalar_ptr_iterator_tag@0@@Z DD 019930522H
	DD	02H
	DD	FLAT:__unwindtable$??$_Uninit_copy@V?$_Vector_const_iterator@V?$_Vector_val@UWeaponInfo@@V?$allocator@UWeaponInfo@@@std@@@std@@@std@@PAUWeaponInfo@@V?$allocator@UWeaponInfo@@@2@@std@@YAPAUWeaponInfo@@V?$_Vector_const_iterator@V?$_Vector_val@UWeaponInfo@@V?$allocator@UWeaponInfo@@@std@@@std@@@0@0PAU1@AAV?$allocator@UWeaponInfo@@@0@U_Nonscalar_ptr_iterator_tag@0@@Z
	DD	01H
	DD	FLAT:__tryblocktable$??$_Uninit_copy@V?$_Vector_const_iterator@V?$_Vector_val@UWeaponInfo@@V?$allocator@UWeaponInfo@@@std@@@std@@@std@@PAUWeaponInfo@@V?$allocator@UWeaponInfo@@@2@@std@@YAPAUWeaponInfo@@V?$_Vector_const_iterator@V?$_Vector_val@UWeaponInfo@@V?$allocator@UWeaponInfo@@@std@@@std@@@0@0PAU1@AAV?$allocator@UWeaponInfo@@@0@U_Nonscalar_ptr_iterator_tag@0@@Z
	DD	2 DUP(00H)
	DD	00H
	DD	01H
; Function compile flags: /Ogsp
; File c:\program files (x86)\microsoft visual studio 10.0\vc\include\memory
xdata$x	ENDS
;	COMDAT ??$_Uninit_copy@V?$_Vector_const_iterator@V?$_Vector_val@UWeaponInfo@@V?$allocator@UWeaponInfo@@@std@@@std@@@std@@PAUWeaponInfo@@V?$allocator@UWeaponInfo@@@2@@std@@YAPAUWeaponInfo@@V?$_Vector_const_iterator@V?$_Vector_val@UWeaponInfo@@V?$allocator@UWeaponInfo@@@std@@@std@@@0@0PAU1@AAV?$allocator@UWeaponInfo@@@0@U_Nonscalar_ptr_iterator_tag@0@@Z
_TEXT	SEGMENT
__Next$ = -20						; size = 4
__$EHRec$ = -16						; size = 16
__First$ = 8						; size = 4
__Last$ = 12						; size = 4
__Dest$ = 16						; size = 4
__Al$ = 20						; size = 4
___formal$ = 24						; size = 1
??$_Uninit_copy@V?$_Vector_const_iterator@V?$_Vector_val@UWeaponInfo@@V?$allocator@UWeaponInfo@@@std@@@std@@@std@@PAUWeaponInfo@@V?$allocator@UWeaponInfo@@@2@@std@@YAPAUWeaponInfo@@V?$_Vector_const_iterator@V?$_Vector_val@UWeaponInfo@@V?$allocator@UWeaponInfo@@@std@@@std@@@0@0PAU1@AAV?$allocator@UWeaponInfo@@@0@U_Nonscalar_ptr_iterator_tag@0@@Z PROC ; std::_Uninit_copy<std::_Vector_const_iterator<std::_Vector_val<WeaponInfo,std::allocator<WeaponInfo> > >,WeaponInfo *,std::allocator<WeaponInfo> >, COMDAT

; 369  : 	{	// copy [_First, _Last) to raw _Dest, using _Al, arbitrary type

  00000	6a 08		 push	 8
  00002	b8 00 00 00 00	 mov	 eax, __ehhandler$??$_Uninit_copy@V?$_Vector_const_iterator@V?$_Vector_val@UWeaponInfo@@V?$allocator@UWeaponInfo@@@std@@@std@@@std@@PAUWeaponInfo@@V?$allocator@UWeaponInfo@@@2@@std@@YAPAUWeaponInfo@@V?$_Vector_const_iterator@V?$_Vector_val@UWeaponInfo@@V?$allocator@UWeaponInfo@@@std@@@std@@@0@0PAU1@AAV?$allocator@UWeaponInfo@@@0@U_Nonscalar_ptr_iterator_tag@0@@Z
  00007	e8 00 00 00 00	 call	 __EH_prolog3_catch

; 370  : 	_DEBUG_RANGE(_First, _Last);
; 371  : 	_DEBUG_POINTER(_Dest);
; 372  : 	_FwdIt _Next = _Dest;

  0000c	8b 45 10	 mov	 eax, DWORD PTR __Dest$[ebp]

; 373  : 
; 374  : 	_TRY_BEGIN

  0000f	83 65 fc 00	 and	 DWORD PTR __$EHRec$[ebp+12], 0
  00013	89 45 ec	 mov	 DWORD PTR __Next$[ebp], eax

; 375  : 	for (; _First != _Last; ++_Dest, ++_First)

$LL14@Uninit_cop@2:
  00016	8b 45 08	 mov	 eax, DWORD PTR __First$[ebp]
  00019	3b 45 0c	 cmp	 eax, DWORD PTR __Last$[ebp]
  0001c	74 34		 je	 SHORT $LN4@Uninit_cop@2

; 376  : 		_Cons_val(_Al, _Dest, *_First);

  0001e	50		 push	 eax
  0001f	ff 75 10	 push	 DWORD PTR __Dest$[ebp]
  00022	e8 00 00 00 00	 call	 ??$_Construct@UWeaponInfo@@ABU1@@std@@YAXPAUWeaponInfo@@ABU1@@Z ; std::_Construct<WeaponInfo,WeaponInfo const &>
  00027	83 45 10 28	 add	 DWORD PTR __Dest$[ebp], 40 ; 00000028H
  0002b	83 45 08 28	 add	 DWORD PTR __First$[ebp], 40 ; 00000028H
  0002f	59		 pop	 ecx
  00030	59		 pop	 ecx
  00031	eb e3		 jmp	 SHORT $LL14@Uninit_cop@2
__catch$??$_Uninit_copy@V?$_Vector_const_iterator@V?$_Vector_val@UWeaponInfo@@V?$allocator@UWeaponInfo@@@std@@@std@@@std@@PAUWeaponInfo@@V?$allocator@UWeaponInfo@@@2@@std@@YAPAUWeaponInfo@@V?$_Vector_const_iterator@V?$_Vector_val@UWeaponInfo@@V?$allocator@UWeaponInfo@@@std@@@std@@@0@0PAU1@AAV?$allocator@UWeaponInfo@@@0@U_Nonscalar_ptr_iterator_tag@0@@Z$0:

; 377  : 	_CATCH_ALL
; 378  : 	for (; _Next != _Dest; ++_Next)

  00033	8b 75 ec	 mov	 esi, DWORD PTR __Next$[ebp]
  00036	eb 0c		 jmp	 SHORT $LN48@Uninit_cop@2
$LL3@Uninit_cop@2:

; 379  : 		_Dest_val(_Al, _Next);

  00038	8d 4e 08	 lea	 ecx, DWORD PTR [esi+8]
  0003b	ff 15 00 00 00
	00		 call	 DWORD PTR __imp_??1ioHashString@@QAE@XZ
  00041	83 c6 28	 add	 esi, 40			; 00000028H
$LN48@Uninit_cop@2:

; 377  : 	_CATCH_ALL
; 378  : 	for (; _Next != _Dest; ++_Next)

  00044	3b 75 10	 cmp	 esi, DWORD PTR __Dest$[ebp]
  00047	75 ef		 jne	 SHORT $LL3@Uninit_cop@2

; 380  : 	_RERAISE;

  00049	6a 00		 push	 0
  0004b	6a 00		 push	 0
  0004d	e8 00 00 00 00	 call	 __CxxThrowException@8
$LN49@Uninit_cop@2:
$LN4@Uninit_cop@2:

; 381  : 	_CATCH_END
; 382  : 	return (_Dest);

  00052	8b 45 10	 mov	 eax, DWORD PTR __Dest$[ebp]

; 383  : 	}

  00055	e8 00 00 00 00	 call	 __EH_epilog3
  0005a	c3		 ret	 0
$LN47@Uninit_cop@2:
_TEXT	ENDS
;	COMDAT text$x
text$x	SEGMENT
__ehhandler$??$_Uninit_copy@V?$_Vector_const_iterator@V?$_Vector_val@UWeaponInfo@@V?$allocator@UWeaponInfo@@@std@@@std@@@std@@PAUWeaponInfo@@V?$allocator@UWeaponInfo@@@2@@std@@YAPAUWeaponInfo@@V?$_Vector_const_iterator@V?$_Vector_val@UWeaponInfo@@V?$allocator@UWeaponInfo@@@std@@@std@@@0@0PAU1@AAV?$allocator@UWeaponInfo@@@0@U_Nonscalar_ptr_iterator_tag@0@@Z:
  00000	8b 54 24 08	 mov	 edx, DWORD PTR [esp+8]
  00004	8d 42 0c	 lea	 eax, DWORD PTR [edx+12]
  00007	8b 4a e8	 mov	 ecx, DWORD PTR [edx-24]
  0000a	33 c8		 xor	 ecx, eax
  0000c	e8 00 00 00 00	 call	 @__security_check_cookie@4
  00011	b8 00 00 00 00	 mov	 eax, OFFSET __ehfuncinfo$??$_Uninit_copy@V?$_Vector_const_iterator@V?$_Vector_val@UWeaponInfo@@V?$allocator@UWeaponInfo@@@std@@@std@@@std@@PAUWeaponInfo@@V?$allocator@UWeaponInfo@@@2@@std@@YAPAUWeaponInfo@@V?$_Vector_const_iterator@V?$_Vector_val@UWeaponInfo@@V?$allocator@UWeaponInfo@@@std@@@std@@@0@0PAU1@AAV?$allocator@UWeaponInfo@@@0@U_Nonscalar_ptr_iterator_tag@0@@Z
  00016	e9 00 00 00 00	 jmp	 ___CxxFrameHandler3
text$x	ENDS
??$_Uninit_copy@V?$_Vector_const_iterator@V?$_Vector_val@UWeaponInfo@@V?$allocator@UWeaponInfo@@@std@@@std@@@std@@PAUWeaponInfo@@V?$allocator@UWeaponInfo@@@2@@std@@YAPAUWeaponInfo@@V?$_Vector_const_iterator@V?$_Vector_val@UWeaponInfo@@V?$allocator@UWeaponInfo@@@std@@@std@@@0@0PAU1@AAV?$allocator@UWeaponInfo@@@0@U_Nonscalar_ptr_iterator_tag@0@@Z ENDP ; std::_Uninit_copy<std::_Vector_const_iterator<std::_Vector_val<WeaponInfo,std::allocator<WeaponInfo> > >,WeaponInfo *,std::allocator<WeaponInfo> >
PUBLIC	??$_Destroy_range@V?$allocator@UForceInfo@@@std@@@std@@YAXPAUForceInfo@@0AAV?$allocator@UForceInfo@@@0@@Z ; std::_Destroy_range<std::allocator<ForceInfo> >
; Function compile flags: /Ogsp
; File c:\program files (x86)\microsoft visual studio 10.0\vc\include\xmemory
;	COMDAT ??$_Destroy_range@V?$allocator@UForceInfo@@@std@@@std@@YAXPAUForceInfo@@0AAV?$allocator@UForceInfo@@@0@@Z
_TEXT	SEGMENT
__First$ = 8						; size = 4
__Last$ = 12						; size = 4
__Al$ = 16						; size = 4
??$_Destroy_range@V?$allocator@UForceInfo@@@std@@@std@@YAXPAUForceInfo@@0AAV?$allocator@UForceInfo@@@0@@Z PROC ; std::_Destroy_range<std::allocator<ForceInfo> >, COMDAT

; 88   : 	_Destroy_range(_First, _Last, _Al, _Ptr_cat(_First, _Last));
; 89   : 	}

  00000	c3		 ret	 0
??$_Destroy_range@V?$allocator@UForceInfo@@@std@@@std@@YAXPAUForceInfo@@0AAV?$allocator@UForceInfo@@@0@@Z ENDP ; std::_Destroy_range<std::allocator<ForceInfo> >
_TEXT	ENDS
PUBLIC	??$_Destroy_range@V?$allocator@UWeaponInfo@@@std@@@std@@YAXPAUWeaponInfo@@0AAV?$allocator@UWeaponInfo@@@0@U_Nonscalar_ptr_iterator_tag@0@@Z ; std::_Destroy_range<std::allocator<WeaponInfo> >
; Function compile flags: /Ogsp
;	COMDAT ??$_Destroy_range@V?$allocator@UWeaponInfo@@@std@@@std@@YAXPAUWeaponInfo@@0AAV?$allocator@UWeaponInfo@@@0@U_Nonscalar_ptr_iterator_tag@0@@Z
_TEXT	SEGMENT
__First$ = 8						; size = 4
__Last$ = 12						; size = 4
__Al$ = 16						; size = 4
___formal$ = 20						; size = 1
??$_Destroy_range@V?$allocator@UWeaponInfo@@@std@@@std@@YAXPAUWeaponInfo@@0AAV?$allocator@UWeaponInfo@@@0@U_Nonscalar_ptr_iterator_tag@0@@Z PROC ; std::_Destroy_range<std::allocator<WeaponInfo> >, COMDAT

; 95   : 	{	// destroy [_First, _Last), arbitrary type

  00000	55		 push	 ebp
  00001	8b ec		 mov	 ebp, esp
  00003	56		 push	 esi

; 96   : 	for (; _First != _Last; ++_First)

  00004	8b 75 08	 mov	 esi, DWORD PTR __First$[ebp]
  00007	eb 0c		 jmp	 SHORT $LN20@Destroy_ra
$LL3@Destroy_ra:

; 97   : 		_Dest_val(_Al, _First);

  00009	8d 4e 08	 lea	 ecx, DWORD PTR [esi+8]
  0000c	ff 15 00 00 00
	00		 call	 DWORD PTR __imp_??1ioHashString@@QAE@XZ
  00012	83 c6 28	 add	 esi, 40			; 00000028H
$LN20@Destroy_ra:

; 96   : 	for (; _First != _Last; ++_First)

  00015	3b 75 0c	 cmp	 esi, DWORD PTR __Last$[ebp]
  00018	75 ef		 jne	 SHORT $LL3@Destroy_ra
  0001a	5e		 pop	 esi

; 98   : 	}

  0001b	5d		 pop	 ebp
  0001c	c3		 ret	 0
??$_Destroy_range@V?$allocator@UWeaponInfo@@@std@@@std@@YAXPAUWeaponInfo@@0AAV?$allocator@UWeaponInfo@@@0@U_Nonscalar_ptr_iterator_tag@0@@Z ENDP ; std::_Destroy_range<std::allocator<WeaponInfo> >
_TEXT	ENDS
PUBLIC	__$ArrayPad$
PUBLIC	?OnProcessState@ioRangeTargetShotSkill@@UAEXPAVioBaseChar@@PAVioPlayStage@@@Z ; ioRangeTargetShotSkill::OnProcessState
EXTRN	??1SP2Packet@@UAE@XZ:PROC			; SP2Packet::~SP2Packet
EXTRN	?SendToAllPlayingUser@P2PNetwork@@YAXAAVSP2Packet@@PAVioBaseChar@@@Z:PROC ; P2PNetwork::SendToAllPlayingUser
EXTRN	??6SP2Packet@@QAEAAV0@H@Z:PROC			; SP2Packet::operator<<
EXTRN	??6SP2Packet@@QAEAAV0@ABVioHashString@@@Z:PROC	; SP2Packet::operator<<
EXTRN	??0SP2Packet@@QAE@K@Z:PROC			; SP2Packet::SP2Packet
EXTRN	?IsAttackKey@ioBaseChar@@QBE_NXZ:PROC		; ioBaseChar::IsAttackKey
EXTRN	__chkstk:PROC
;	COMDAT xdata$x
; File d:\lost saga for developer\youtube\tutorial\source\src\lsclient\ioskill.h
xdata$x	SEGMENT
__unwindtable$?OnProcessState@ioRangeTargetShotSkill@@UAEXPAVioBaseChar@@PAVioPlayStage@@@Z DD 0ffffffffH
	DD	FLAT:__unwindfunclet$?OnProcessState@ioRangeTargetShotSkill@@UAEXPAVioBaseChar@@PAVioPlayStage@@@Z$0
__ehfuncinfo$?OnProcessState@ioRangeTargetShotSkill@@UAEXPAVioBaseChar@@PAVioPlayStage@@@Z DD 019930522H
	DD	01H
	DD	FLAT:__unwindtable$?OnProcessState@ioRangeTargetShotSkill@@UAEXPAVioBaseChar@@PAVioPlayStage@@@Z
	DD	2 DUP(00H)
	DD	2 DUP(00H)
	DD	00H
	DD	01H
; Function compile flags: /Ogsp
; File d:\lost saga for developer\youtube\tutorial\source\src\lsclient\iorangetargetshotskill.cpp
xdata$x	ENDS
;	COMDAT ?OnProcessState@ioRangeTargetShotSkill@@UAEXPAVioBaseChar@@PAVioPlayStage@@@Z
_TEXT	SEGMENT
_value$540499 = -32816					; size = 4
_value$540495 = -32816					; size = 4
_iTarget$531098 = -32812				; size = 4
_dwCurTime$ = -32812					; size = 4
_kPacket$531106 = -32808				; size = 32792
__$ArrayPad$ = -16					; size = 4
__$EHRec$ = -12						; size = 12
_pChar$ = 8						; size = 4
_pStage$ = 12						; size = 4
?OnProcessState@ioRangeTargetShotSkill@@UAEXPAVioBaseChar@@PAVioPlayStage@@@Z PROC ; ioRangeTargetShotSkill::OnProcessState, COMDAT
; _this$ = ecx

; 186  : {

  00000	55		 push	 ebp
  00001	8b ec		 mov	 ebp, esp
  00003	6a ff		 push	 -1
  00005	68 00 00 00 00	 push	 __ehhandler$?OnProcessState@ioRangeTargetShotSkill@@UAEXPAVioBaseChar@@PAVioPlayStage@@@Z
  0000a	64 a1 00 00 00
	00		 mov	 eax, DWORD PTR fs:0
  00010	50		 push	 eax
  00011	b8 24 80 00 00	 mov	 eax, 32804		; 00008024H
  00016	e8 00 00 00 00	 call	 __chkstk
  0001b	a1 00 00 00 00	 mov	 eax, DWORD PTR ___security_cookie
  00020	33 c5		 xor	 eax, ebp
  00022	89 45 f0	 mov	 DWORD PTR __$ArrayPad$[ebp], eax
  00025	53		 push	 ebx
  00026	56		 push	 esi
  00027	57		 push	 edi
  00028	50		 push	 eax
  00029	8d 45 f4	 lea	 eax, DWORD PTR __$EHRec$[ebp]
  0002c	64 a3 00 00 00
	00		 mov	 DWORD PTR fs:0, eax
  00032	8b 7d 08	 mov	 edi, DWORD PTR _pChar$[ebp]
  00035	8b 5d 0c	 mov	 ebx, DWORD PTR _pStage$[ebp]
  00038	8b f1		 mov	 esi, ecx

; 187  : 	DWORD dwCurTime = FRAMEGETTIME();

  0003a	ff 15 00 00 00
	00		 call	 DWORD PTR __imp_?GetSingleton@ioFrameTimer@@SAAAV1@XZ
  00040	8b c8		 mov	 ecx, eax
  00042	ff 15 00 00 00
	00		 call	 DWORD PTR __imp_?GetLoopSec@ioFrameTimer@@QBEKXZ
  00048	89 85 d4 7f ff
	ff		 mov	 DWORD PTR _dwCurTime$[ebp], eax

; 188  : 
; 189  : 	switch( m_SkillState )

  0004e	8b 86 58 0f 00
	00		 mov	 eax, DWORD PTR [esi+3928]
  00054	83 e8 00	 sub	 eax, 0
  00057	0f 84 9e 01 00
	00		 je	 $LN16@OnProcessS
  0005d	48		 dec	 eax
  0005e	74 43		 je	 SHORT $LN14@OnProcessS
  00060	48		 dec	 eax
  00061	74 07		 je	 SHORT $LN5@OnProcessS
  00063	48		 dec	 eax
  00064	0f 85 c6 01 00
	00		 jne	 $LN15@OnProcessS
$LN5@OnProcessS:

; 242  : 	case SS_NEAR_AIM_FIRE:
; 243  : 		{
; 244  : 			UpdateAimMarker( pChar, pStage );

  0006a	53		 push	 ebx
  0006b	57		 push	 edi
  0006c	8b ce		 mov	 ecx, esi
  0006e	e8 00 00 00 00	 call	 ?UpdateAimMarker@ioRangeTargetShotSkill@@IAEXPAVioBaseChar@@PAVioPlayStage@@@Z ; ioRangeTargetShotSkill::UpdateAimMarker

; 245  : 			if ( m_dwMotionEndTime > 0 && m_dwMotionEndTime < dwCurTime )

  00073	8b 86 d8 02 00
	00		 mov	 eax, DWORD PTR [esi+728]
  00079	85 c0		 test	 eax, eax
  0007b	0f 84 af 01 00
	00		 je	 $LN15@OnProcessS
  00081	3b 85 d4 7f ff
	ff		 cmp	 eax, DWORD PTR _dwCurTime$[ebp]
  00087	0f 83 a3 01 00
	00		 jae	 $LN15@OnProcessS

; 246  : 			{
; 247  : 				SetLoopState( pChar, pStage );

  0008d	53		 push	 ebx
  0008e	57		 push	 edi
  0008f	8b ce		 mov	 ecx, esi
  00091	e8 00 00 00 00	 call	 ?SetLoopState@ioRangeTargetShotSkill@@IAEXPAVioBaseChar@@PAVioPlayStage@@@Z ; ioRangeTargetShotSkill::SetLoopState

; 248  : 				DestroyAimMarker( pChar );

  00096	57		 push	 edi
  00097	8b ce		 mov	 ecx, esi
  00099	e8 00 00 00 00	 call	 ?DestroyAimMarker@ioRangeTargetShotSkill@@IAEXPAVioBaseChar@@@Z ; ioRangeTargetShotSkill::DestroyAimMarker

; 249  : 			}
; 250  : 		}
; 251  : 		break;

  0009e	e9 8d 01 00 00	 jmp	 $LN15@OnProcessS
$LN14@OnProcessS:

; 200  : 			}
; 201  : 		}
; 202  : 		break;
; 203  : 	case SS_LOOP:
; 204  : 		{
; 205  : 			if ( m_dwSkillStartTime > 0 && m_dwSkillStartTime + m_dwSkillDuration < dwCurTime )

  000a3	8d 85 d0 7f ff
	ff		 lea	 eax, DWORD PTR _value$540495[ebp]
  000a9	8d 8e 94 0e 00
	00		 lea	 ecx, DWORD PTR [esi+3732]
  000af	50		 push	 eax
  000b0	e8 00 00 00 00	 call	 ?DecryptValueToPool@?$CEncrypt@K@@QAEXPAK@Z ; CEncrypt<unsigned long>::DecryptValueToPool
  000b5	83 bd d0 7f ff
	ff 00		 cmp	 DWORD PTR _value$540495[ebp], 0
  000bc	76 2e		 jbe	 SHORT $LN13@OnProcessS
  000be	8d 85 d0 7f ff
	ff		 lea	 eax, DWORD PTR _value$540499[ebp]
  000c4	50		 push	 eax
  000c5	8d 8e 94 0e 00
	00		 lea	 ecx, DWORD PTR [esi+3732]
  000cb	e8 00 00 00 00	 call	 ?DecryptValueToPool@?$CEncrypt@K@@QAEXPAK@Z ; CEncrypt<unsigned long>::DecryptValueToPool
  000d0	8b 86 ec 11 00
	00		 mov	 eax, DWORD PTR [esi+4588]
  000d6	03 85 d0 7f ff
	ff		 add	 eax, DWORD PTR _value$540499[ebp]
  000dc	3b 85 d4 7f ff
	ff		 cmp	 eax, DWORD PTR _dwCurTime$[ebp]
  000e2	73 08		 jae	 SHORT $LN13@OnProcessS

; 206  : 			{
; 207  : 				SetEndState( pChar );

  000e4	57		 push	 edi
  000e5	8b ce		 mov	 ecx, esi
  000e7	e8 00 00 00 00	 call	 ?SetEndState@ioRangeTargetShotSkill@@IAEXPAVioBaseChar@@@Z ; ioRangeTargetShotSkill::SetEndState
$LN13@OnProcessS:

; 208  : 			}
; 209  : 			FindNearTarget( pChar, pStage );

  000ec	53		 push	 ebx
  000ed	57		 push	 edi
  000ee	8b ce		 mov	 ecx, esi
  000f0	e8 00 00 00 00	 call	 ?FindNearTarget@ioRangeTargetShotSkill@@IAEXPAVioBaseChar@@PAVioPlayStage@@@Z ; ioRangeTargetShotSkill::FindNearTarget

; 210  : 			FindFarTarget( pChar, pStage );

  000f5	53		 push	 ebx
  000f6	57		 push	 edi
  000f7	8b ce		 mov	 ecx, esi
  000f9	e8 00 00 00 00	 call	 ?FindFarTarget@ioRangeTargetShotSkill@@IAEXPAVioBaseChar@@PAVioPlayStage@@@Z ; ioRangeTargetShotSkill::FindFarTarget

; 211  : 			int iTarget = CheckTarget( pChar, pStage );

  000fe	53		 push	 ebx
  000ff	57		 push	 edi
  00100	8b ce		 mov	 ecx, esi
  00102	e8 00 00 00 00	 call	 ?CheckTarget@ioRangeTargetShotSkill@@IAEHPAVioBaseChar@@PAVioPlayStage@@@Z ; ioRangeTargetShotSkill::CheckTarget

; 212  : 			CheckNormalMoveAni( pChar );

  00107	57		 push	 edi
  00108	8b ce		 mov	 ecx, esi
  0010a	89 85 d4 7f ff
	ff		 mov	 DWORD PTR _iTarget$531098[ebp], eax
  00110	e8 00 00 00 00	 call	 ?CheckNormalMoveAni@ioRangeTargetShotSkill@@IAEXPAVioBaseChar@@@Z ; ioRangeTargetShotSkill::CheckNormalMoveAni

; 213  : 			UpdateAimMarker( pChar, pStage );

  00115	53		 push	 ebx
  00116	57		 push	 edi
  00117	8b ce		 mov	 ecx, esi
  00119	e8 00 00 00 00	 call	 ?UpdateAimMarker@ioRangeTargetShotSkill@@IAEXPAVioBaseChar@@PAVioPlayStage@@@Z ; ioRangeTargetShotSkill::UpdateAimMarker

; 214  : 			if( pChar->IsAttackKey() && pChar->IsNeedProcess() )

  0011e	8b cf		 mov	 ecx, edi
  00120	e8 00 00 00 00	 call	 ?IsAttackKey@ioBaseChar@@QBE_NXZ ; ioBaseChar::IsAttackKey
  00125	84 c0		 test	 al, al
  00127	0f 84 03 01 00
	00		 je	 $LN15@OnProcessS
  0012d	8b 07		 mov	 eax, DWORD PTR [edi]
  0012f	8b cf		 mov	 ecx, edi
  00131	ff 90 00 01 00
	00		 call	 DWORD PTR [eax+256]
  00137	84 c0		 test	 al, al
  00139	0f 84 f1 00 00
	00		 je	 $LN15@OnProcessS

; 215  : 			{
; 216  : 				if ( iTarget == TA_NEAR )

  0013f	83 bd d4 7f ff
	ff 01		 cmp	 DWORD PTR _iTarget$531098[ebp], 1
  00146	75 0b		 jne	 SHORT $LN11@OnProcessS

; 217  : 				{
; 218  : 					CheckAttackDir( pChar, pStage );

  00148	53		 push	 ebx
  00149	57		 push	 edi
  0014a	8b ce		 mov	 ecx, esi
  0014c	e8 00 00 00 00	 call	 ?CheckAttackDir@ioRangeTargetShotSkill@@IAEXPAVioBaseChar@@PAVioPlayStage@@@Z ; ioRangeTargetShotSkill::CheckAttackDir

; 219  : 					SetNearAimFireState( pChar, pStage );

  00151	eb 26		 jmp	 SHORT $LN31@OnProcessS
$LN11@OnProcessS:

; 220  : 				}
; 221  : 				else if ( iTarget == TA_FAR )

  00153	83 bd d4 7f ff
	ff 02		 cmp	 DWORD PTR _iTarget$531098[ebp], 2
  0015a	75 14		 jne	 SHORT $LN9@OnProcessS

; 222  : 				{
; 223  : 					CheckAttackDir( pChar, pStage );

  0015c	53		 push	 ebx
  0015d	57		 push	 edi
  0015e	8b ce		 mov	 ecx, esi
  00160	e8 00 00 00 00	 call	 ?CheckAttackDir@ioRangeTargetShotSkill@@IAEXPAVioBaseChar@@PAVioPlayStage@@@Z ; ioRangeTargetShotSkill::CheckAttackDir

; 224  : 					SetFarAimFireState( pChar, pStage );

  00165	53		 push	 ebx
  00166	57		 push	 edi
  00167	8b ce		 mov	 ecx, esi
  00169	e8 00 00 00 00	 call	 ?SetFarAimFireState@ioRangeTargetShotSkill@@IAEXPAVioBaseChar@@PAVioPlayStage@@@Z ; ioRangeTargetShotSkill::SetFarAimFireState
  0016e	eb 12		 jmp	 SHORT $LN7@OnProcessS
$LN9@OnProcessS:

; 225  : 				}
; 226  : 				else if ( iTarget == TA_NONE )

  00170	83 bd d4 7f ff
	ff 00		 cmp	 DWORD PTR _iTarget$531098[ebp], 0
  00177	75 09		 jne	 SHORT $LN7@OnProcessS
$LN31@OnProcessS:

; 227  : 				{
; 228  : 					SetNearAimFireState( pChar, pStage );

  00179	53		 push	 ebx
  0017a	57		 push	 edi
  0017b	8b ce		 mov	 ecx, esi
  0017d	e8 00 00 00 00	 call	 ?SetNearAimFireState@ioRangeTargetShotSkill@@IAEXPAVioBaseChar@@PAVioPlayStage@@@Z ; ioRangeTargetShotSkill::SetNearAimFireState
$LN7@OnProcessS:

; 229  : 				}
; 230  : 
; 231  : 				if( pChar->IsNeedSendNetwork() )

  00182	8b 07		 mov	 eax, DWORD PTR [edi]
  00184	8b cf		 mov	 ecx, edi
  00186	ff 90 04 01 00
	00		 call	 DWORD PTR [eax+260]
  0018c	84 c0		 test	 al, al
  0018e	0f 84 9c 00 00
	00		 je	 $LN15@OnProcessS

; 232  : 				{
; 233  : 					SP2Packet kPacket( CUPK_SKILL_EXTRA_INFO );

  00194	68 39 41 00 00	 push	 16697			; 00004139H
  00199	8d 8d d8 7f ff
	ff		 lea	 ecx, DWORD PTR _kPacket$531106[ebp]
  0019f	e8 00 00 00 00	 call	 ??0SP2Packet@@QAE@K@Z	; SP2Packet::SP2Packet
  001a4	83 65 fc 00	 and	 DWORD PTR __$EHRec$[ebp+8], 0

; 234  : 					kPacket << pChar->GetCharName();

  001a8	81 c7 d4 02 00
	00		 add	 edi, 724		; 000002d4H
  001ae	57		 push	 edi
  001af	8d 8d d8 7f ff
	ff		 lea	 ecx, DWORD PTR _kPacket$531106[ebp]
  001b5	e8 00 00 00 00	 call	 ??6SP2Packet@@QAEAAV0@ABVioHashString@@@Z ; SP2Packet::operator<<

; 235  : 					kPacket << GetName();

  001ba	83 c6 24	 add	 esi, 36			; 00000024H
  001bd	56		 push	 esi
  001be	8d 8d d8 7f ff
	ff		 lea	 ecx, DWORD PTR _kPacket$531106[ebp]
  001c4	e8 00 00 00 00	 call	 ??6SP2Packet@@QAEAAV0@ABVioHashString@@@Z ; SP2Packet::operator<<

; 236  : 					kPacket << iTarget;

  001c9	ff b5 d4 7f ff
	ff		 push	 DWORD PTR _iTarget$531098[ebp]
  001cf	8d 8d d8 7f ff
	ff		 lea	 ecx, DWORD PTR _kPacket$531106[ebp]
  001d5	e8 00 00 00 00	 call	 ??6SP2Packet@@QAEAAV0@H@Z ; SP2Packet::operator<<

; 237  : 					P2PNetwork::SendToAllPlayingUser( kPacket );

  001da	8d 85 d8 7f ff
	ff		 lea	 eax, DWORD PTR _kPacket$531106[ebp]
  001e0	6a 00		 push	 0
  001e2	50		 push	 eax
  001e3	e8 00 00 00 00	 call	 ?SendToAllPlayingUser@P2PNetwork@@YAXAAVSP2Packet@@PAVioBaseChar@@@Z ; P2PNetwork::SendToAllPlayingUser

; 238  : 				}

  001e8	83 4d fc ff	 or	 DWORD PTR __$EHRec$[ebp+8], -1
  001ec	59		 pop	 ecx
  001ed	59		 pop	 ecx
  001ee	8d 8d d8 7f ff
	ff		 lea	 ecx, DWORD PTR _kPacket$531106[ebp]
  001f4	e8 00 00 00 00	 call	 ??1SP2Packet@@UAE@XZ	; SP2Packet::~SP2Packet

; 239  : 			}
; 240  : 		}
; 241  : 		break;

  001f9	eb 35		 jmp	 SHORT $LN15@OnProcessS
$LN16@OnProcessS:

; 190  : 	{
; 191  : 	case SS_PRE:
; 192  : 		{
; 193  : 			DWORD dwPreDelay = GetPreDelayTime();

  001fb	8b 06		 mov	 eax, DWORD PTR [esi]
  001fd	8b ce		 mov	 ecx, esi
  001ff	ff 90 34 01 00
	00		 call	 DWORD PTR [eax+308]

; 194  : 			if( m_dwPreDelayStartTime + dwPreDelay < dwCurTime )

  00205	8b 96 20 02 00
	00		 mov	 edx, DWORD PTR [esi+544]
  0020b	03 d0		 add	 edx, eax
  0020d	3b 95 d4 7f ff
	ff		 cmp	 edx, DWORD PTR _dwCurTime$[ebp]
  00213	73 1b		 jae	 SHORT $LN15@OnProcessS

; 195  : 			{
; 196  : 				m_dwPreDelayStartTime = 0;
; 197  : 
; 198  : 				EndPreDelayEffect( pChar );

  00215	8b 06		 mov	 eax, DWORD PTR [esi]
  00217	83 a6 20 02 00
	00 00		 and	 DWORD PTR [esi+544], 0
  0021e	57		 push	 edi
  0021f	8b ce		 mov	 ecx, esi
  00221	ff 90 dc 00 00
	00		 call	 DWORD PTR [eax+220]

; 199  : 				SetLoopState( pChar, pStage );

  00227	53		 push	 ebx
  00228	57		 push	 edi
  00229	8b ce		 mov	 ecx, esi
  0022b	e8 00 00 00 00	 call	 ?SetLoopState@ioRangeTargetShotSkill@@IAEXPAVioBaseChar@@PAVioPlayStage@@@Z ; ioRangeTargetShotSkill::SetLoopState
$LN15@OnProcessS:

; 252  : 	case SS_FAR_AIM_FIRE:
; 253  : 		{
; 254  : 			UpdateAimMarker( pChar, pStage );
; 255  : 			if ( m_dwMotionEndTime > 0 && m_dwMotionEndTime < dwCurTime )
; 256  : 			{
; 257  : 				SetLoopState( pChar, pStage );
; 258  : 				DestroyAimMarker( pChar );
; 259  : 			}
; 260  : 		}
; 261  : 		break;
; 262  : 	case SS_END:
; 263  : 		{
; 264  : 
; 265  : 		}
; 266  : 		break;
; 267  : 	}
; 268  : }

  00230	8b 4d f4	 mov	 ecx, DWORD PTR __$EHRec$[ebp]
  00233	64 89 0d 00 00
	00 00		 mov	 DWORD PTR fs:0, ecx
  0023a	59		 pop	 ecx
  0023b	5f		 pop	 edi
  0023c	5e		 pop	 esi
  0023d	5b		 pop	 ebx
  0023e	8b 4d f0	 mov	 ecx, DWORD PTR __$ArrayPad$[ebp]
  00241	33 cd		 xor	 ecx, ebp
  00243	e8 00 00 00 00	 call	 @__security_check_cookie@4
  00248	c9		 leave
  00249	c2 08 00	 ret	 8
_TEXT	ENDS
;	COMDAT text$x
text$x	SEGMENT
__unwindfunclet$?OnProcessState@ioRangeTargetShotSkill@@UAEXPAVioBaseChar@@PAVioPlayStage@@@Z$0:
  00000	8d 8d d8 7f ff
	ff		 lea	 ecx, DWORD PTR _kPacket$531106[ebp]
  00006	e9 00 00 00 00	 jmp	 ??1SP2Packet@@UAE@XZ	; SP2Packet::~SP2Packet
__ehhandler$?OnProcessState@ioRangeTargetShotSkill@@UAEXPAVioBaseChar@@PAVioPlayStage@@@Z:
  0000b	8b 54 24 08	 mov	 edx, DWORD PTR [esp+8]
  0000f	8d 42 0c	 lea	 eax, DWORD PTR [edx+12]
  00012	8b 8a cc 7f ff
	ff		 mov	 ecx, DWORD PTR [edx-32820]
  00018	33 c8		 xor	 ecx, eax
  0001a	e8 00 00 00 00	 call	 @__security_check_cookie@4
  0001f	8b 4a fc	 mov	 ecx, DWORD PTR [edx-4]
  00022	33 c8		 xor	 ecx, eax
  00024	e8 00 00 00 00	 call	 @__security_check_cookie@4
  00029	b8 00 00 00 00	 mov	 eax, OFFSET __ehfuncinfo$?OnProcessState@ioRangeTargetShotSkill@@UAEXPAVioBaseChar@@PAVioPlayStage@@@Z
  0002e	e9 00 00 00 00	 jmp	 ___CxxFrameHandler3
text$x	ENDS
?OnProcessState@ioRangeTargetShotSkill@@UAEXPAVioBaseChar@@PAVioPlayStage@@@Z ENDP ; ioRangeTargetShotSkill::OnProcessState
PUBLIC	??$_Ucopy@V?$_Vector_const_iterator@V?$_Vector_val@UForceInfo@@V?$allocator@UForceInfo@@@std@@@std@@@std@@@?$vector@UForceInfo@@V?$allocator@UForceInfo@@@std@@@std@@IAEPAUForceInfo@@V?$_Vector_const_iterator@V?$_Vector_val@UForceInfo@@V?$allocator@UForceInfo@@@std@@@std@@@1@0PAU2@@Z ; std::vector<ForceInfo,std::allocator<ForceInfo> >::_Ucopy<std::_Vector_const_iterator<std::_Vector_val<ForceInfo,std::allocator<ForceInfo> > > >
; Function compile flags: /Ogsp
; File c:\program files (x86)\microsoft visual studio 10.0\vc\include\vector
;	COMDAT ??$_Ucopy@V?$_Vector_const_iterator@V?$_Vector_val@UForceInfo@@V?$allocator@UForceInfo@@@std@@@std@@@std@@@?$vector@UForceInfo@@V?$allocator@UForceInfo@@@std@@@std@@IAEPAUForceInfo@@V?$_Vector_const_iterator@V?$_Vector_val@UForceInfo@@V?$allocator@UForceInfo@@@std@@@std@@@1@0PAU2@@Z
_TEXT	SEGMENT
__First$ = 8						; size = 4
__Last$ = 12						; size = 4
__Cat$540530 = 16					; size = 1
__Ptr$ = 16						; size = 4
??$_Ucopy@V?$_Vector_const_iterator@V?$_Vector_val@UForceInfo@@V?$allocator@UForceInfo@@@std@@@std@@@std@@@?$vector@UForceInfo@@V?$allocator@UForceInfo@@@std@@@std@@IAEPAUForceInfo@@V?$_Vector_const_iterator@V?$_Vector_val@UForceInfo@@V?$allocator@UForceInfo@@@std@@@std@@@1@0PAU2@@Z PROC ; std::vector<ForceInfo,std::allocator<ForceInfo> >::_Ucopy<std::_Vector_const_iterator<std::_Vector_val<ForceInfo,std::allocator<ForceInfo> > > >, COMDAT
; _this$ = ecx

; 1315 : 		pointer _Ucopy(_Iter _First, _Iter _Last, pointer _Ptr)

  00000	55		 push	 ebp
  00001	8b ec		 mov	 ebp, esp

; 1316 : 		{	// copy initializing [_First, _Last), using allocator
; 1317 : 		return (_Uninitialized_copy(_First, _Last,
; 1318 : 			_Ptr, this->_Alval));

  00003	ff 75 10	 push	 DWORD PTR __Cat$540530[ebp]
  00006	83 c1 0c	 add	 ecx, 12			; 0000000cH
  00009	51		 push	 ecx
  0000a	ff 75 10	 push	 DWORD PTR __Ptr$[ebp]
  0000d	ff 75 0c	 push	 DWORD PTR __Last$[ebp]
  00010	ff 75 08	 push	 DWORD PTR __First$[ebp]
  00013	e8 00 00 00 00	 call	 ??$_Uninit_copy@V?$_Vector_const_iterator@V?$_Vector_val@UForceInfo@@V?$allocator@UForceInfo@@@std@@@std@@@std@@PAUForceInfo@@V?$allocator@UForceInfo@@@2@@std@@YAPAUForceInfo@@V?$_Vector_const_iterator@V?$_Vector_val@UForceInfo@@V?$allocator@UForceInfo@@@std@@@std@@@0@0PAU1@AAV?$allocator@UForceInfo@@@0@U_Nonscalar_ptr_iterator_tag@0@@Z ; std::_Uninit_copy<std::_Vector_const_iterator<std::_Vector_val<ForceInfo,std::allocator<ForceInfo> > >,ForceInfo *,std::allocator<ForceInfo> >
  00018	83 c4 14	 add	 esp, 20			; 00000014H

; 1319 : 		}

  0001b	5d		 pop	 ebp
  0001c	c2 0c 00	 ret	 12			; 0000000cH
??$_Ucopy@V?$_Vector_const_iterator@V?$_Vector_val@UForceInfo@@V?$allocator@UForceInfo@@@std@@@std@@@std@@@?$vector@UForceInfo@@V?$allocator@UForceInfo@@@std@@@std@@IAEPAUForceInfo@@V?$_Vector_const_iterator@V?$_Vector_val@UForceInfo@@V?$allocator@UForceInfo@@@std@@@std@@@1@0PAU2@@Z ENDP ; std::vector<ForceInfo,std::allocator<ForceInfo> >::_Ucopy<std::_Vector_const_iterator<std::_Vector_val<ForceInfo,std::allocator<ForceInfo> > > >
_TEXT	ENDS
PUBLIC	??$_Uninitialized_copy@V?$_Vector_const_iterator@V?$_Vector_val@UWeaponInfo@@V?$allocator@UWeaponInfo@@@std@@@std@@@std@@PAUWeaponInfo@@V?$allocator@UWeaponInfo@@@2@@std@@YAPAUWeaponInfo@@V?$_Vector_const_iterator@V?$_Vector_val@UWeaponInfo@@V?$allocator@UWeaponInfo@@@std@@@std@@@0@0PAU1@AAV?$allocator@UWeaponInfo@@@0@@Z ; std::_Uninitialized_copy<std::_Vector_const_iterator<std::_Vector_val<WeaponInfo,std::allocator<WeaponInfo> > >,WeaponInfo *,std::allocator<WeaponInfo> >
; Function compile flags: /Ogsp
; File c:\program files (x86)\microsoft visual studio 10.0\vc\include\memory
;	COMDAT ??$_Uninitialized_copy@V?$_Vector_const_iterator@V?$_Vector_val@UWeaponInfo@@V?$allocator@UWeaponInfo@@@std@@@std@@@std@@PAUWeaponInfo@@V?$allocator@UWeaponInfo@@@2@@std@@YAPAUWeaponInfo@@V?$_Vector_const_iterator@V?$_Vector_val@UWeaponInfo@@V?$allocator@UWeaponInfo@@@std@@@std@@@0@0PAU1@AAV?$allocator@UWeaponInfo@@@0@@Z
_TEXT	SEGMENT
__Cat$540539 = -4					; size = 1
__First$ = 8						; size = 4
__Last$ = 12						; size = 4
__Dest$ = 16						; size = 4
__Al$ = 20						; size = 4
??$_Uninitialized_copy@V?$_Vector_const_iterator@V?$_Vector_val@UWeaponInfo@@V?$allocator@UWeaponInfo@@@std@@@std@@@std@@PAUWeaponInfo@@V?$allocator@UWeaponInfo@@@2@@std@@YAPAUWeaponInfo@@V?$_Vector_const_iterator@V?$_Vector_val@UWeaponInfo@@V?$allocator@UWeaponInfo@@@std@@@std@@@0@0PAU1@AAV?$allocator@UWeaponInfo@@@0@@Z PROC ; std::_Uninitialized_copy<std::_Vector_const_iterator<std::_Vector_val<WeaponInfo,std::allocator<WeaponInfo> > >,WeaponInfo *,std::allocator<WeaponInfo> >, COMDAT

; 412  : 	{	// copy [_First, _Last) to raw _Dest, using _Al

  00000	55		 push	 ebp
  00001	8b ec		 mov	 ebp, esp
  00003	51		 push	 ecx

; 413  : 	return (_Uninit_copy(_First, _Last, _Dest, _Al,
; 414  : 		_Ptr_cat(_First, _Dest)));

  00004	ff 75 fc	 push	 DWORD PTR __Cat$540539[ebp]
  00007	ff 75 14	 push	 DWORD PTR __Al$[ebp]
  0000a	ff 75 10	 push	 DWORD PTR __Dest$[ebp]
  0000d	ff 75 0c	 push	 DWORD PTR __Last$[ebp]
  00010	ff 75 08	 push	 DWORD PTR __First$[ebp]
  00013	e8 00 00 00 00	 call	 ??$_Uninit_copy@V?$_Vector_const_iterator@V?$_Vector_val@UWeaponInfo@@V?$allocator@UWeaponInfo@@@std@@@std@@@std@@PAUWeaponInfo@@V?$allocator@UWeaponInfo@@@2@@std@@YAPAUWeaponInfo@@V?$_Vector_const_iterator@V?$_Vector_val@UWeaponInfo@@V?$allocator@UWeaponInfo@@@std@@@std@@@0@0PAU1@AAV?$allocator@UWeaponInfo@@@0@U_Nonscalar_ptr_iterator_tag@0@@Z ; std::_Uninit_copy<std::_Vector_const_iterator<std::_Vector_val<WeaponInfo,std::allocator<WeaponInfo> > >,WeaponInfo *,std::allocator<WeaponInfo> >
  00018	83 c4 14	 add	 esp, 20			; 00000014H

; 415  : 	}

  0001b	c9		 leave
  0001c	c3		 ret	 0
??$_Uninitialized_copy@V?$_Vector_const_iterator@V?$_Vector_val@UWeaponInfo@@V?$allocator@UWeaponInfo@@@std@@@std@@@std@@PAUWeaponInfo@@V?$allocator@UWeaponInfo@@@2@@std@@YAPAUWeaponInfo@@V?$_Vector_const_iterator@V?$_Vector_val@UWeaponInfo@@V?$allocator@UWeaponInfo@@@std@@@std@@@0@0PAU1@AAV?$allocator@UWeaponInfo@@@0@@Z ENDP ; std::_Uninitialized_copy<std::_Vector_const_iterator<std::_Vector_val<WeaponInfo,std::allocator<WeaponInfo> > >,WeaponInfo *,std::allocator<WeaponInfo> >
_TEXT	ENDS
PUBLIC	?_Destroy@?$vector@UForceInfo@@V?$allocator@UForceInfo@@@std@@@std@@IAEXPAUForceInfo@@0@Z ; std::vector<ForceInfo,std::allocator<ForceInfo> >::_Destroy
; Function compile flags: /Ogsp
; File c:\program files (x86)\microsoft visual studio 10.0\vc\include\vector
;	COMDAT ?_Destroy@?$vector@UForceInfo@@V?$allocator@UForceInfo@@@std@@@std@@IAEXPAUForceInfo@@0@Z
_TEXT	SEGMENT
__First$ = 8						; size = 4
__Last$ = 12						; size = 4
?_Destroy@?$vector@UForceInfo@@V?$allocator@UForceInfo@@@std@@@std@@IAEXPAUForceInfo@@0@Z PROC ; std::vector<ForceInfo,std::allocator<ForceInfo> >::_Destroy, COMDAT
; _this$ = ecx

; 1270 : 		_Destroy_range(_First, _Last, this->_Alval);
; 1271 : 		}

  00000	c2 08 00	 ret	 8
?_Destroy@?$vector@UForceInfo@@V?$allocator@UForceInfo@@@std@@@std@@IAEXPAUForceInfo@@0@Z ENDP ; std::vector<ForceInfo,std::allocator<ForceInfo> >::_Destroy
_TEXT	ENDS
PUBLIC	??$_Destroy_range@V?$allocator@UWeaponInfo@@@std@@@std@@YAXPAUWeaponInfo@@0AAV?$allocator@UWeaponInfo@@@0@@Z ; std::_Destroy_range<std::allocator<WeaponInfo> >
; Function compile flags: /Ogsp
; File c:\program files (x86)\microsoft visual studio 10.0\vc\include\xmemory
;	COMDAT ??$_Destroy_range@V?$allocator@UWeaponInfo@@@std@@@std@@YAXPAUWeaponInfo@@0AAV?$allocator@UWeaponInfo@@@0@@Z
_TEXT	SEGMENT
__First$ = 8						; size = 4
__Last$ = 12						; size = 4
__Al$ = 16						; size = 4
??$_Destroy_range@V?$allocator@UWeaponInfo@@@std@@@std@@YAXPAUWeaponInfo@@0AAV?$allocator@UWeaponInfo@@@0@@Z PROC ; std::_Destroy_range<std::allocator<WeaponInfo> >, COMDAT

; 87   : 	{	// destroy [_First, _Last)

  00000	55		 push	 ebp
  00001	8b ec		 mov	 ebp, esp
  00003	56		 push	 esi

; 88   : 	_Destroy_range(_First, _Last, _Al, _Ptr_cat(_First, _Last));

  00004	8b 75 08	 mov	 esi, DWORD PTR __First$[ebp]
  00007	eb 0c		 jmp	 SHORT $LN24@Destroy_ra@2
$LL7@Destroy_ra@2:
  00009	8d 4e 08	 lea	 ecx, DWORD PTR [esi+8]
  0000c	ff 15 00 00 00
	00		 call	 DWORD PTR __imp_??1ioHashString@@QAE@XZ
  00012	83 c6 28	 add	 esi, 40			; 00000028H
$LN24@Destroy_ra@2:
  00015	3b 75 0c	 cmp	 esi, DWORD PTR __Last$[ebp]
  00018	75 ef		 jne	 SHORT $LL7@Destroy_ra@2
  0001a	5e		 pop	 esi

; 89   : 	}

  0001b	5d		 pop	 ebp
  0001c	c3		 ret	 0
??$_Destroy_range@V?$allocator@UWeaponInfo@@@std@@@std@@YAXPAUWeaponInfo@@0AAV?$allocator@UWeaponInfo@@@0@@Z ENDP ; std::_Destroy_range<std::allocator<WeaponInfo> >
_TEXT	ENDS
PUBLIC	??$_Ucopy@V?$_Vector_const_iterator@V?$_Vector_val@UWeaponInfo@@V?$allocator@UWeaponInfo@@@std@@@std@@@std@@@?$vector@UWeaponInfo@@V?$allocator@UWeaponInfo@@@std@@@std@@IAEPAUWeaponInfo@@V?$_Vector_const_iterator@V?$_Vector_val@UWeaponInfo@@V?$allocator@UWeaponInfo@@@std@@@std@@@1@0PAU2@@Z ; std::vector<WeaponInfo,std::allocator<WeaponInfo> >::_Ucopy<std::_Vector_const_iterator<std::_Vector_val<WeaponInfo,std::allocator<WeaponInfo> > > >
; Function compile flags: /Ogsp
; File c:\program files (x86)\microsoft visual studio 10.0\vc\include\vector
;	COMDAT ??$_Ucopy@V?$_Vector_const_iterator@V?$_Vector_val@UWeaponInfo@@V?$allocator@UWeaponInfo@@@std@@@std@@@std@@@?$vector@UWeaponInfo@@V?$allocator@UWeaponInfo@@@std@@@std@@IAEPAUWeaponInfo@@V?$_Vector_const_iterator@V?$_Vector_val@UWeaponInfo@@V?$allocator@UWeaponInfo@@@std@@@std@@@1@0PAU2@@Z
_TEXT	SEGMENT
__First$ = 8						; size = 4
__Last$ = 12						; size = 4
__Cat$540678 = 16					; size = 1
__Ptr$ = 16						; size = 4
??$_Ucopy@V?$_Vector_const_iterator@V?$_Vector_val@UWeaponInfo@@V?$allocator@UWeaponInfo@@@std@@@std@@@std@@@?$vector@UWeaponInfo@@V?$allocator@UWeaponInfo@@@std@@@std@@IAEPAUWeaponInfo@@V?$_Vector_const_iterator@V?$_Vector_val@UWeaponInfo@@V?$allocator@UWeaponInfo@@@std@@@std@@@1@0PAU2@@Z PROC ; std::vector<WeaponInfo,std::allocator<WeaponInfo> >::_Ucopy<std::_Vector_const_iterator<std::_Vector_val<WeaponInfo,std::allocator<WeaponInfo> > > >, COMDAT
; _this$ = ecx

; 1315 : 		pointer _Ucopy(_Iter _First, _Iter _Last, pointer _Ptr)

  00000	55		 push	 ebp
  00001	8b ec		 mov	 ebp, esp

; 1316 : 		{	// copy initializing [_First, _Last), using allocator
; 1317 : 		return (_Uninitialized_copy(_First, _Last,
; 1318 : 			_Ptr, this->_Alval));

  00003	ff 75 10	 push	 DWORD PTR __Cat$540678[ebp]
  00006	83 c1 0c	 add	 ecx, 12			; 0000000cH
  00009	51		 push	 ecx
  0000a	ff 75 10	 push	 DWORD PTR __Ptr$[ebp]
  0000d	ff 75 0c	 push	 DWORD PTR __Last$[ebp]
  00010	ff 75 08	 push	 DWORD PTR __First$[ebp]
  00013	e8 00 00 00 00	 call	 ??$_Uninit_copy@V?$_Vector_const_iterator@V?$_Vector_val@UWeaponInfo@@V?$allocator@UWeaponInfo@@@std@@@std@@@std@@PAUWeaponInfo@@V?$allocator@UWeaponInfo@@@2@@std@@YAPAUWeaponInfo@@V?$_Vector_const_iterator@V?$_Vector_val@UWeaponInfo@@V?$allocator@UWeaponInfo@@@std@@@std@@@0@0PAU1@AAV?$allocator@UWeaponInfo@@@0@U_Nonscalar_ptr_iterator_tag@0@@Z ; std::_Uninit_copy<std::_Vector_const_iterator<std::_Vector_val<WeaponInfo,std::allocator<WeaponInfo> > >,WeaponInfo *,std::allocator<WeaponInfo> >
  00018	83 c4 14	 add	 esp, 20			; 00000014H

; 1319 : 		}

  0001b	5d		 pop	 ebp
  0001c	c2 0c 00	 ret	 12			; 0000000cH
??$_Ucopy@V?$_Vector_const_iterator@V?$_Vector_val@UWeaponInfo@@V?$allocator@UWeaponInfo@@@std@@@std@@@std@@@?$vector@UWeaponInfo@@V?$allocator@UWeaponInfo@@@std@@@std@@IAEPAUWeaponInfo@@V?$_Vector_const_iterator@V?$_Vector_val@UWeaponInfo@@V?$allocator@UWeaponInfo@@@std@@@std@@@1@0PAU2@@Z ENDP ; std::vector<WeaponInfo,std::allocator<WeaponInfo> >::_Ucopy<std::_Vector_const_iterator<std::_Vector_val<WeaponInfo,std::allocator<WeaponInfo> > > >
_TEXT	ENDS
PUBLIC	?_Tidy@?$vector@UForceInfo@@V?$allocator@UForceInfo@@@std@@@std@@IAEXXZ ; std::vector<ForceInfo,std::allocator<ForceInfo> >::_Tidy
EXTRN	__imp_?_Orphan_all@_Container_base0@std@@QAEXXZ:PROC
; Function compile flags: /Ogsp
;	COMDAT ?_Tidy@?$vector@UForceInfo@@V?$allocator@UForceInfo@@@std@@@std@@IAEXXZ
_TEXT	SEGMENT
?_Tidy@?$vector@UForceInfo@@V?$allocator@UForceInfo@@@std@@@std@@IAEXXZ PROC ; std::vector<ForceInfo,std::allocator<ForceInfo> >::_Tidy, COMDAT
; _this$ = ecx

; 1301 : 		{	// free all storage

  00000	56		 push	 esi
  00001	8b f1		 mov	 esi, ecx

; 1302 : 		if (this->_Myfirst != 0)

  00003	83 3e 00	 cmp	 DWORD PTR [esi], 0
  00006	74 0e		 je	 SHORT $LN21@Tidy

; 1303 : 			{	// something to free, destroy and deallocate it
; 1304 : 			this->_Orphan_all();

  00008	ff 15 00 00 00
	00		 call	 DWORD PTR __imp_?_Orphan_all@_Container_base0@std@@QAEXXZ

; 1305 : 			_Destroy(this->_Myfirst, this->_Mylast);
; 1306 : 			this->_Alval.deallocate(this->_Myfirst,
; 1307 : 				this->_Myend - this->_Myfirst);

  0000e	ff 36		 push	 DWORD PTR [esi]
  00010	e8 00 00 00 00	 call	 ??3@YAXPAX@Z		; operator delete
  00015	59		 pop	 ecx
$LN21@Tidy:

; 1308 : 			}
; 1309 : 		this->_Myfirst = 0;

  00016	83 26 00	 and	 DWORD PTR [esi], 0

; 1310 : 		this->_Mylast = 0;

  00019	83 66 04 00	 and	 DWORD PTR [esi+4], 0

; 1311 : 		this->_Myend = 0;

  0001d	83 66 08 00	 and	 DWORD PTR [esi+8], 0
  00021	5e		 pop	 esi

; 1312 : 		}

  00022	c3		 ret	 0
?_Tidy@?$vector@UForceInfo@@V?$allocator@UForceInfo@@@std@@@std@@IAEXXZ ENDP ; std::vector<ForceInfo,std::allocator<ForceInfo> >::_Tidy
_TEXT	ENDS
PUBLIC	?_Destroy@?$vector@UWeaponInfo@@V?$allocator@UWeaponInfo@@@std@@@std@@IAEXPAUWeaponInfo@@0@Z ; std::vector<WeaponInfo,std::allocator<WeaponInfo> >::_Destroy
; Function compile flags: /Ogsp
;	COMDAT ?_Destroy@?$vector@UWeaponInfo@@V?$allocator@UWeaponInfo@@@std@@@std@@IAEXPAUWeaponInfo@@0@Z
_TEXT	SEGMENT
__First$ = 8						; size = 4
__Last$ = 12						; size = 4
?_Destroy@?$vector@UWeaponInfo@@V?$allocator@UWeaponInfo@@@std@@@std@@IAEXPAUWeaponInfo@@0@Z PROC ; std::vector<WeaponInfo,std::allocator<WeaponInfo> >::_Destroy, COMDAT
; _this$ = ecx

; 1269 : 		{	// destroy [_First, _Last) using allocator

  00000	55		 push	 ebp
  00001	8b ec		 mov	 ebp, esp

; 1270 : 		_Destroy_range(_First, _Last, this->_Alval);

  00003	83 c1 0c	 add	 ecx, 12			; 0000000cH
  00006	51		 push	 ecx
  00007	ff 75 0c	 push	 DWORD PTR __Last$[ebp]
  0000a	ff 75 08	 push	 DWORD PTR __First$[ebp]
  0000d	e8 00 00 00 00	 call	 ??$_Destroy_range@V?$allocator@UWeaponInfo@@@std@@@std@@YAXPAUWeaponInfo@@0AAV?$allocator@UWeaponInfo@@@0@@Z ; std::_Destroy_range<std::allocator<WeaponInfo> >
  00012	83 c4 0c	 add	 esp, 12			; 0000000cH

; 1271 : 		}

  00015	5d		 pop	 ebp
  00016	c2 08 00	 ret	 8
?_Destroy@?$vector@UWeaponInfo@@V?$allocator@UWeaponInfo@@@std@@@std@@IAEXPAUWeaponInfo@@0@Z ENDP ; std::vector<WeaponInfo,std::allocator<WeaponInfo> >::_Destroy
_TEXT	ENDS
PUBLIC	??0?$vector@UForceInfo@@V?$allocator@UForceInfo@@@std@@@std@@QAE@ABV01@@Z ; std::vector<ForceInfo,std::allocator<ForceInfo> >::vector<ForceInfo,std::allocator<ForceInfo> >
;	COMDAT xdata$x
; File c:\program files (x86)\microsoft visual studio 10.0\vc\include\xutility
xdata$x	SEGMENT
__catchsym$??0?$vector@UForceInfo@@V?$allocator@UForceInfo@@@std@@@std@@QAE@ABV01@@Z$2 DD 040H
	DD	00H
	DD	00H
	DD	FLAT:__catch$??0?$vector@UForceInfo@@V?$allocator@UForceInfo@@@std@@@std@@QAE@ABV01@@Z$0
__unwindtable$??0?$vector@UForceInfo@@V?$allocator@UForceInfo@@@std@@@std@@QAE@ABV01@@Z DD 0ffffffffH
	DD	00H
	DD	0ffffffffH
	DD	00H
__tryblocktable$??0?$vector@UForceInfo@@V?$allocator@UForceInfo@@@std@@@std@@QAE@ABV01@@Z DD 00H
	DD	00H
	DD	01H
	DD	01H
	DD	FLAT:__catchsym$??0?$vector@UForceInfo@@V?$allocator@UForceInfo@@@std@@@std@@QAE@ABV01@@Z$2
__ehfuncinfo$??0?$vector@UForceInfo@@V?$allocator@UForceInfo@@@std@@@std@@QAE@ABV01@@Z DD 019930522H
	DD	02H
	DD	FLAT:__unwindtable$??0?$vector@UForceInfo@@V?$allocator@UForceInfo@@@std@@@std@@QAE@ABV01@@Z
	DD	01H
	DD	FLAT:__tryblocktable$??0?$vector@UForceInfo@@V?$allocator@UForceInfo@@@std@@@std@@QAE@ABV01@@Z
	DD	2 DUP(00H)
	DD	00H
	DD	01H
; Function compile flags: /Ogsp
; File c:\program files (x86)\microsoft visual studio 10.0\vc\include\vector
xdata$x	ENDS
;	COMDAT ??0?$vector@UForceInfo@@V?$allocator@UForceInfo@@@std@@@std@@QAE@ABV01@@Z
_TEXT	SEGMENT
_this$ = -20						; size = 4
__$EHRec$ = -16						; size = 16
__Cat$540842 = 8					; size = 1
__Right$ = 8						; size = 4
??0?$vector@UForceInfo@@V?$allocator@UForceInfo@@@std@@@std@@QAE@ABV01@@Z PROC ; std::vector<ForceInfo,std::allocator<ForceInfo> >::vector<ForceInfo,std::allocator<ForceInfo> >, COMDAT
; _this$ = ecx

; 535  : 		{	// construct by copying _Right

  00000	6a 08		 push	 8
  00002	b8 00 00 00 00	 mov	 eax, __ehhandler$??0?$vector@UForceInfo@@V?$allocator@UForceInfo@@@std@@@std@@QAE@ABV01@@Z
  00007	e8 00 00 00 00	 call	 __EH_prolog3_catch
  0000c	8b f1		 mov	 esi, ecx
  0000e	89 75 ec	 mov	 DWORD PTR _this$[ebp], esi

; 536  : 		if (_Buy(_Right.size()))

  00011	8b 7d 08	 mov	 edi, DWORD PTR __Right$[ebp]
  00014	33 db		 xor	 ebx, ebx
  00016	89 1e		 mov	 DWORD PTR [esi], ebx
  00018	89 5e 04	 mov	 DWORD PTR [esi+4], ebx
  0001b	89 5e 08	 mov	 DWORD PTR [esi+8], ebx
  0001e	8b 47 04	 mov	 eax, DWORD PTR [edi+4]
  00021	2b 07		 sub	 eax, DWORD PTR [edi]
  00023	6a 0c		 push	 12			; 0000000cH
  00025	59		 pop	 ecx
  00026	99		 cdq
  00027	f7 f9		 idiv	 ecx
  00029	8b ce		 mov	 ecx, esi
  0002b	50		 push	 eax
  0002c	e8 00 00 00 00	 call	 ?_Buy@?$vector@UForceInfo@@V?$allocator@UForceInfo@@@std@@@std@@IAE_NI@Z ; std::vector<ForceInfo,std::allocator<ForceInfo> >::_Buy
  00031	84 c0		 test	 al, al
  00033	74 1f		 je	 SHORT $LN7@vector

; 537  : 			_TRY_BEGIN
; 538  : 			this->_Mylast = _Ucopy(_Right.begin(), _Right.end(),
; 539  : 				this->_Myfirst);

  00035	ff 75 08	 push	 DWORD PTR __Cat$540842[ebp]
  00038	8b 0e		 mov	 ecx, DWORD PTR [esi]
  0003a	8b 47 04	 mov	 eax, DWORD PTR [edi+4]
  0003d	8b 3f		 mov	 edi, DWORD PTR [edi]
  0003f	8d 56 0c	 lea	 edx, DWORD PTR [esi+12]
  00042	52		 push	 edx
  00043	51		 push	 ecx
  00044	50		 push	 eax
  00045	57		 push	 edi
  00046	89 5d fc	 mov	 DWORD PTR __$EHRec$[ebp+12], ebx
  00049	e8 00 00 00 00	 call	 ??$_Uninit_copy@V?$_Vector_const_iterator@V?$_Vector_val@UForceInfo@@V?$allocator@UForceInfo@@@std@@@std@@@std@@PAUForceInfo@@V?$allocator@UForceInfo@@@2@@std@@YAPAUForceInfo@@V?$_Vector_const_iterator@V?$_Vector_val@UForceInfo@@V?$allocator@UForceInfo@@@std@@@std@@@0@0PAU1@AAV?$allocator@UForceInfo@@@0@U_Nonscalar_ptr_iterator_tag@0@@Z ; std::_Uninit_copy<std::_Vector_const_iterator<std::_Vector_val<ForceInfo,std::allocator<ForceInfo> > >,ForceInfo *,std::allocator<ForceInfo> >
  0004e	83 c4 14	 add	 esp, 20			; 00000014H
  00051	89 46 04	 mov	 DWORD PTR [esi+4], eax
$LN7@vector:

; 543  : 			_CATCH_END
; 544  : 		}

  00054	8b c6		 mov	 eax, esi
  00056	e8 00 00 00 00	 call	 __EH_epilog3
  0005b	c2 04 00	 ret	 4
__catch$??0?$vector@UForceInfo@@V?$allocator@UForceInfo@@@std@@@std@@QAE@ABV01@@Z$0:

; 540  : 			_CATCH_ALL
; 541  : 			_Tidy();

  0005e	8b 4d ec	 mov	 ecx, DWORD PTR _this$[ebp]
  00061	e8 00 00 00 00	 call	 ?_Tidy@?$vector@UForceInfo@@V?$allocator@UForceInfo@@@std@@@std@@IAEXXZ ; std::vector<ForceInfo,std::allocator<ForceInfo> >::_Tidy

; 542  : 			_RERAISE;

  00066	33 db		 xor	 ebx, ebx
  00068	53		 push	 ebx
  00069	53		 push	 ebx
  0006a	e8 00 00 00 00	 call	 __CxxThrowException@8
$LN38@vector:
$LN37@vector:
  0006f	cc		 int	 3
_TEXT	ENDS
;	COMDAT text$x
text$x	SEGMENT
__ehhandler$??0?$vector@UForceInfo@@V?$allocator@UForceInfo@@@std@@@std@@QAE@ABV01@@Z:
  00000	8b 54 24 08	 mov	 edx, DWORD PTR [esp+8]
  00004	8d 42 0c	 lea	 eax, DWORD PTR [edx+12]
  00007	8b 4a e8	 mov	 ecx, DWORD PTR [edx-24]
  0000a	33 c8		 xor	 ecx, eax
  0000c	e8 00 00 00 00	 call	 @__security_check_cookie@4
  00011	b8 00 00 00 00	 mov	 eax, OFFSET __ehfuncinfo$??0?$vector@UForceInfo@@V?$allocator@UForceInfo@@@std@@@std@@QAE@ABV01@@Z
  00016	e9 00 00 00 00	 jmp	 ___CxxFrameHandler3
text$x	ENDS
??0?$vector@UForceInfo@@V?$allocator@UForceInfo@@@std@@@std@@QAE@ABV01@@Z ENDP ; std::vector<ForceInfo,std::allocator<ForceInfo> >::vector<ForceInfo,std::allocator<ForceInfo> >
PUBLIC	??1?$vector@UForceInfo@@V?$allocator@UForceInfo@@@std@@@std@@QAE@XZ ; std::vector<ForceInfo,std::allocator<ForceInfo> >::~vector<ForceInfo,std::allocator<ForceInfo> >
; Function compile flags: /Ogsp
;	COMDAT ??1?$vector@UForceInfo@@V?$allocator@UForceInfo@@@std@@@std@@QAE@XZ
_TEXT	SEGMENT
??1?$vector@UForceInfo@@V?$allocator@UForceInfo@@@std@@@std@@QAE@XZ PROC ; std::vector<ForceInfo,std::allocator<ForceInfo> >::~vector<ForceInfo,std::allocator<ForceInfo> >, COMDAT
; _this$ = ecx

; 705  : 		_Tidy();

  00000	e9 00 00 00 00	 jmp	 ?_Tidy@?$vector@UForceInfo@@V?$allocator@UForceInfo@@@std@@@std@@IAEXXZ ; std::vector<ForceInfo,std::allocator<ForceInfo> >::_Tidy
??1?$vector@UForceInfo@@V?$allocator@UForceInfo@@@std@@@std@@QAE@XZ ENDP ; std::vector<ForceInfo,std::allocator<ForceInfo> >::~vector<ForceInfo,std::allocator<ForceInfo> >
_TEXT	ENDS
PUBLIC	?_Tidy@?$vector@UWeaponInfo@@V?$allocator@UWeaponInfo@@@std@@@std@@IAEXXZ ; std::vector<WeaponInfo,std::allocator<WeaponInfo> >::_Tidy
; Function compile flags: /Ogsp
;	COMDAT ?_Tidy@?$vector@UWeaponInfo@@V?$allocator@UWeaponInfo@@@std@@@std@@IAEXXZ
_TEXT	SEGMENT
?_Tidy@?$vector@UWeaponInfo@@V?$allocator@UWeaponInfo@@@std@@@std@@IAEXXZ PROC ; std::vector<WeaponInfo,std::allocator<WeaponInfo> >::_Tidy, COMDAT
; _this$ = ecx

; 1301 : 		{	// free all storage

  00000	56		 push	 esi
  00001	8b f1		 mov	 esi, ecx

; 1302 : 		if (this->_Myfirst != 0)

  00003	83 3e 00	 cmp	 DWORD PTR [esi], 0
  00006	74 1e		 je	 SHORT $LN6@Tidy@2

; 1303 : 			{	// something to free, destroy and deallocate it
; 1304 : 			this->_Orphan_all();

  00008	ff 15 00 00 00
	00		 call	 DWORD PTR __imp_?_Orphan_all@_Container_base0@std@@QAEXXZ

; 1305 : 			_Destroy(this->_Myfirst, this->_Mylast);

  0000e	8d 46 0c	 lea	 eax, DWORD PTR [esi+12]
  00011	50		 push	 eax
  00012	ff 76 04	 push	 DWORD PTR [esi+4]
  00015	ff 36		 push	 DWORD PTR [esi]
  00017	e8 00 00 00 00	 call	 ??$_Destroy_range@V?$allocator@UWeaponInfo@@@std@@@std@@YAXPAUWeaponInfo@@0AAV?$allocator@UWeaponInfo@@@0@@Z ; std::_Destroy_range<std::allocator<WeaponInfo> >

; 1306 : 			this->_Alval.deallocate(this->_Myfirst,
; 1307 : 				this->_Myend - this->_Myfirst);

  0001c	ff 36		 push	 DWORD PTR [esi]
  0001e	e8 00 00 00 00	 call	 ??3@YAXPAX@Z		; operator delete
  00023	83 c4 10	 add	 esp, 16			; 00000010H
$LN6@Tidy@2:

; 1308 : 			}
; 1309 : 		this->_Myfirst = 0;

  00026	83 26 00	 and	 DWORD PTR [esi], 0

; 1310 : 		this->_Mylast = 0;

  00029	83 66 04 00	 and	 DWORD PTR [esi+4], 0

; 1311 : 		this->_Myend = 0;

  0002d	83 66 08 00	 and	 DWORD PTR [esi+8], 0
  00031	5e		 pop	 esi

; 1312 : 		}

  00032	c3		 ret	 0
?_Tidy@?$vector@UWeaponInfo@@V?$allocator@UWeaponInfo@@@std@@@std@@IAEXXZ ENDP ; std::vector<WeaponInfo,std::allocator<WeaponInfo> >::_Tidy
_TEXT	ENDS
PUBLIC	??0?$vector@UWeaponInfo@@V?$allocator@UWeaponInfo@@@std@@@std@@QAE@ABV01@@Z ; std::vector<WeaponInfo,std::allocator<WeaponInfo> >::vector<WeaponInfo,std::allocator<WeaponInfo> >
;	COMDAT xdata$x
; File c:\program files (x86)\microsoft visual studio 10.0\vc\include\xutility
xdata$x	SEGMENT
__catchsym$??0?$vector@UWeaponInfo@@V?$allocator@UWeaponInfo@@@std@@@std@@QAE@ABV01@@Z$2 DD 040H
	DD	00H
	DD	00H
	DD	FLAT:__catch$??0?$vector@UWeaponInfo@@V?$allocator@UWeaponInfo@@@std@@@std@@QAE@ABV01@@Z$0
__unwindtable$??0?$vector@UWeaponInfo@@V?$allocator@UWeaponInfo@@@std@@@std@@QAE@ABV01@@Z DD 0ffffffffH
	DD	00H
	DD	0ffffffffH
	DD	00H
__tryblocktable$??0?$vector@UWeaponInfo@@V?$allocator@UWeaponInfo@@@std@@@std@@QAE@ABV01@@Z DD 00H
	DD	00H
	DD	01H
	DD	01H
	DD	FLAT:__catchsym$??0?$vector@UWeaponInfo@@V?$allocator@UWeaponInfo@@@std@@@std@@QAE@ABV01@@Z$2
__ehfuncinfo$??0?$vector@UWeaponInfo@@V?$allocator@UWeaponInfo@@@std@@@std@@QAE@ABV01@@Z DD 019930522H
	DD	02H
	DD	FLAT:__unwindtable$??0?$vector@UWeaponInfo@@V?$allocator@UWeaponInfo@@@std@@@std@@QAE@ABV01@@Z
	DD	01H
	DD	FLAT:__tryblocktable$??0?$vector@UWeaponInfo@@V?$allocator@UWeaponInfo@@@std@@@std@@QAE@ABV01@@Z
	DD	2 DUP(00H)
	DD	00H
	DD	01H
; Function compile flags: /Ogsp
; File c:\program files (x86)\microsoft visual studio 10.0\vc\include\vector
xdata$x	ENDS
;	COMDAT ??0?$vector@UWeaponInfo@@V?$allocator@UWeaponInfo@@@std@@@std@@QAE@ABV01@@Z
_TEXT	SEGMENT
_this$ = -20						; size = 4
__$EHRec$ = -16						; size = 16
__Cat$540957 = 8					; size = 1
__Right$ = 8						; size = 4
??0?$vector@UWeaponInfo@@V?$allocator@UWeaponInfo@@@std@@@std@@QAE@ABV01@@Z PROC ; std::vector<WeaponInfo,std::allocator<WeaponInfo> >::vector<WeaponInfo,std::allocator<WeaponInfo> >, COMDAT
; _this$ = ecx

; 535  : 		{	// construct by copying _Right

  00000	6a 08		 push	 8
  00002	b8 00 00 00 00	 mov	 eax, __ehhandler$??0?$vector@UWeaponInfo@@V?$allocator@UWeaponInfo@@@std@@@std@@QAE@ABV01@@Z
  00007	e8 00 00 00 00	 call	 __EH_prolog3_catch
  0000c	8b f1		 mov	 esi, ecx
  0000e	89 75 ec	 mov	 DWORD PTR _this$[ebp], esi

; 536  : 		if (_Buy(_Right.size()))

  00011	8b 7d 08	 mov	 edi, DWORD PTR __Right$[ebp]
  00014	33 db		 xor	 ebx, ebx
  00016	89 1e		 mov	 DWORD PTR [esi], ebx
  00018	89 5e 04	 mov	 DWORD PTR [esi+4], ebx
  0001b	89 5e 08	 mov	 DWORD PTR [esi+8], ebx
  0001e	8b 47 04	 mov	 eax, DWORD PTR [edi+4]
  00021	2b 07		 sub	 eax, DWORD PTR [edi]
  00023	6a 28		 push	 40			; 00000028H
  00025	59		 pop	 ecx
  00026	99		 cdq
  00027	f7 f9		 idiv	 ecx
  00029	8b ce		 mov	 ecx, esi
  0002b	50		 push	 eax
  0002c	e8 00 00 00 00	 call	 ?_Buy@?$vector@UWeaponInfo@@V?$allocator@UWeaponInfo@@@std@@@std@@IAE_NI@Z ; std::vector<WeaponInfo,std::allocator<WeaponInfo> >::_Buy
  00031	84 c0		 test	 al, al
  00033	74 1f		 je	 SHORT $LN7@vector@2

; 537  : 			_TRY_BEGIN
; 538  : 			this->_Mylast = _Ucopy(_Right.begin(), _Right.end(),
; 539  : 				this->_Myfirst);

  00035	ff 75 08	 push	 DWORD PTR __Cat$540957[ebp]
  00038	8b 0e		 mov	 ecx, DWORD PTR [esi]
  0003a	8b 47 04	 mov	 eax, DWORD PTR [edi+4]
  0003d	8b 3f		 mov	 edi, DWORD PTR [edi]
  0003f	8d 56 0c	 lea	 edx, DWORD PTR [esi+12]
  00042	52		 push	 edx
  00043	51		 push	 ecx
  00044	50		 push	 eax
  00045	57		 push	 edi
  00046	89 5d fc	 mov	 DWORD PTR __$EHRec$[ebp+12], ebx
  00049	e8 00 00 00 00	 call	 ??$_Uninit_copy@V?$_Vector_const_iterator@V?$_Vector_val@UWeaponInfo@@V?$allocator@UWeaponInfo@@@std@@@std@@@std@@PAUWeaponInfo@@V?$allocator@UWeaponInfo@@@2@@std@@YAPAUWeaponInfo@@V?$_Vector_const_iterator@V?$_Vector_val@UWeaponInfo@@V?$allocator@UWeaponInfo@@@std@@@std@@@0@0PAU1@AAV?$allocator@UWeaponInfo@@@0@U_Nonscalar_ptr_iterator_tag@0@@Z ; std::_Uninit_copy<std::_Vector_const_iterator<std::_Vector_val<WeaponInfo,std::allocator<WeaponInfo> > >,WeaponInfo *,std::allocator<WeaponInfo> >
  0004e	83 c4 14	 add	 esp, 20			; 00000014H
  00051	89 46 04	 mov	 DWORD PTR [esi+4], eax
$LN7@vector@2:

; 543  : 			_CATCH_END
; 544  : 		}

  00054	8b c6		 mov	 eax, esi
  00056	e8 00 00 00 00	 call	 __EH_epilog3
  0005b	c2 04 00	 ret	 4
__catch$??0?$vector@UWeaponInfo@@V?$allocator@UWeaponInfo@@@std@@@std@@QAE@ABV01@@Z$0:

; 540  : 			_CATCH_ALL
; 541  : 			_Tidy();

  0005e	8b 4d ec	 mov	 ecx, DWORD PTR _this$[ebp]
  00061	e8 00 00 00 00	 call	 ?_Tidy@?$vector@UWeaponInfo@@V?$allocator@UWeaponInfo@@@std@@@std@@IAEXXZ ; std::vector<WeaponInfo,std::allocator<WeaponInfo> >::_Tidy

; 542  : 			_RERAISE;

  00066	33 db		 xor	 ebx, ebx
  00068	53		 push	 ebx
  00069	53		 push	 ebx
  0006a	e8 00 00 00 00	 call	 __CxxThrowException@8
$LN38@vector@2:
$LN37@vector@2:
  0006f	cc		 int	 3
_TEXT	ENDS
;	COMDAT text$x
text$x	SEGMENT
__ehhandler$??0?$vector@UWeaponInfo@@V?$allocator@UWeaponInfo@@@std@@@std@@QAE@ABV01@@Z:
  00000	8b 54 24 08	 mov	 edx, DWORD PTR [esp+8]
  00004	8d 42 0c	 lea	 eax, DWORD PTR [edx+12]
  00007	8b 4a e8	 mov	 ecx, DWORD PTR [edx-24]
  0000a	33 c8		 xor	 ecx, eax
  0000c	e8 00 00 00 00	 call	 @__security_check_cookie@4
  00011	b8 00 00 00 00	 mov	 eax, OFFSET __ehfuncinfo$??0?$vector@UWeaponInfo@@V?$allocator@UWeaponInfo@@@std@@@std@@QAE@ABV01@@Z
  00016	e9 00 00 00 00	 jmp	 ___CxxFrameHandler3
text$x	ENDS
??0?$vector@UWeaponInfo@@V?$allocator@UWeaponInfo@@@std@@@std@@QAE@ABV01@@Z ENDP ; std::vector<WeaponInfo,std::allocator<WeaponInfo> >::vector<WeaponInfo,std::allocator<WeaponInfo> >
PUBLIC	??1?$vector@UWeaponInfo@@V?$allocator@UWeaponInfo@@@std@@@std@@QAE@XZ ; std::vector<WeaponInfo,std::allocator<WeaponInfo> >::~vector<WeaponInfo,std::allocator<WeaponInfo> >
; Function compile flags: /Ogsp
;	COMDAT ??1?$vector@UWeaponInfo@@V?$allocator@UWeaponInfo@@@std@@@std@@QAE@XZ
_TEXT	SEGMENT
??1?$vector@UWeaponInfo@@V?$allocator@UWeaponInfo@@@std@@@std@@QAE@XZ PROC ; std::vector<WeaponInfo,std::allocator<WeaponInfo> >::~vector<WeaponInfo,std::allocator<WeaponInfo> >, COMDAT
; _this$ = ecx

; 705  : 		_Tidy();

  00000	e9 00 00 00 00	 jmp	 ?_Tidy@?$vector@UWeaponInfo@@V?$allocator@UWeaponInfo@@@std@@@std@@IAEXXZ ; std::vector<WeaponInfo,std::allocator<WeaponInfo> >::_Tidy
??1?$vector@UWeaponInfo@@V?$allocator@UWeaponInfo@@@std@@@std@@QAE@XZ ENDP ; std::vector<WeaponInfo,std::allocator<WeaponInfo> >::~vector<WeaponInfo,std::allocator<WeaponInfo> >
_TEXT	ENDS
PUBLIC	??0AttackAttribute@@QAE@ABU0@@Z			; AttackAttribute::AttackAttribute
;	COMDAT xdata$x
xdata$x	SEGMENT
__unwindtable$??0AttackAttribute@@QAE@ABU0@@Z DD 0ffffffffH
	DD	FLAT:__unwindfunclet$??0AttackAttribute@@QAE@ABU0@@Z$0
	DD	00H
	DD	FLAT:__unwindfunclet$??0AttackAttribute@@QAE@ABU0@@Z$1
	DD	01H
	DD	FLAT:__unwindfunclet$??0AttackAttribute@@QAE@ABU0@@Z$2
__ehfuncinfo$??0AttackAttribute@@QAE@ABU0@@Z DD 019930522H
	DD	03H
	DD	FLAT:__unwindtable$??0AttackAttribute@@QAE@ABU0@@Z
	DD	2 DUP(00H)
	DD	2 DUP(00H)
	DD	00H
	DD	01H
; Function compile flags: /Ogsp
xdata$x	ENDS
;	COMDAT ??0AttackAttribute@@QAE@ABU0@@Z
_TEXT	SEGMENT
_this$ = -16						; size = 4
__$EHRec$ = -12						; size = 12
___that$ = 8						; size = 4
??0AttackAttribute@@QAE@ABU0@@Z PROC			; AttackAttribute::AttackAttribute, COMDAT
; _this$ = ecx
  00000	6a 04		 push	 4
  00002	b8 00 00 00 00	 mov	 eax, __ehhandler$??0AttackAttribute@@QAE@ABU0@@Z
  00007	e8 00 00 00 00	 call	 __EH_prolog3
  0000c	8b f1		 mov	 esi, ecx
  0000e	89 75 f0	 mov	 DWORD PTR _this$[ebp], esi
  00011	8b 7d 08	 mov	 edi, DWORD PTR ___that$[ebp]
  00014	8b 1d 00 00 00
	00		 mov	 ebx, DWORD PTR __imp_??0ioHashString@@QAE@ABV0@@Z
  0001a	57		 push	 edi
  0001b	ff d3		 call	 ebx
  0001d	d9 47 10	 fld	 DWORD PTR [edi+16]
  00020	83 65 fc 00	 and	 DWORD PTR __$EHRec$[ebp+8], 0
  00024	d9 5e 10	 fstp	 DWORD PTR [esi+16]
  00027	8d 47 14	 lea	 eax, DWORD PTR [edi+20]
  0002a	50		 push	 eax
  0002b	8d 4e 14	 lea	 ecx, DWORD PTR [esi+20]
  0002e	ff d3		 call	 ebx
  00030	d9 47 24	 fld	 DWORD PTR [edi+36]
  00033	8d 47 28	 lea	 eax, DWORD PTR [edi+40]
  00036	d9 5e 24	 fstp	 DWORD PTR [esi+36]
  00039	50		 push	 eax
  0003a	8d 4e 28	 lea	 ecx, DWORD PTR [esi+40]
  0003d	c6 45 fc 01	 mov	 BYTE PTR __$EHRec$[ebp+8], 1
  00041	e8 00 00 00 00	 call	 ??0?$vector@UWeaponInfo@@V?$allocator@UWeaponInfo@@@std@@@std@@QAE@ABV01@@Z ; std::vector<WeaponInfo,std::allocator<WeaponInfo> >::vector<WeaponInfo,std::allocator<WeaponInfo> >
  00046	8d 47 38	 lea	 eax, DWORD PTR [edi+56]
  00049	50		 push	 eax
  0004a	8d 4e 38	 lea	 ecx, DWORD PTR [esi+56]
  0004d	c6 45 fc 02	 mov	 BYTE PTR __$EHRec$[ebp+8], 2
  00051	e8 00 00 00 00	 call	 ??0?$vector@UForceInfo@@V?$allocator@UForceInfo@@@std@@@std@@QAE@ABV01@@Z ; std::vector<ForceInfo,std::allocator<ForceInfo> >::vector<ForceInfo,std::allocator<ForceInfo> >
  00056	8b 47 48	 mov	 eax, DWORD PTR [edi+72]
  00059	89 46 48	 mov	 DWORD PTR [esi+72], eax
  0005c	8b 47 4c	 mov	 eax, DWORD PTR [edi+76]
  0005f	89 46 4c	 mov	 DWORD PTR [esi+76], eax
  00062	8b c6		 mov	 eax, esi
  00064	e8 00 00 00 00	 call	 __EH_epilog3
  00069	c2 04 00	 ret	 4
_TEXT	ENDS
;	COMDAT text$x
text$x	SEGMENT
__unwindfunclet$??0AttackAttribute@@QAE@ABU0@@Z$0:
  00000	8b 4d f0	 mov	 ecx, DWORD PTR _this$[ebp]
  00003	ff 25 00 00 00
	00		 jmp	 DWORD PTR __imp_??1ioHashString@@QAE@XZ
__unwindfunclet$??0AttackAttribute@@QAE@ABU0@@Z$1:
  00009	8b 4d f0	 mov	 ecx, DWORD PTR _this$[ebp]
  0000c	83 c1 14	 add	 ecx, 20			; 00000014H
  0000f	ff 25 00 00 00
	00		 jmp	 DWORD PTR __imp_??1ioHashString@@QAE@XZ
__unwindfunclet$??0AttackAttribute@@QAE@ABU0@@Z$2:
  00015	8b 4d f0	 mov	 ecx, DWORD PTR _this$[ebp]
  00018	83 c1 28	 add	 ecx, 40			; 00000028H
  0001b	e9 00 00 00 00	 jmp	 ??1?$vector@UWeaponInfo@@V?$allocator@UWeaponInfo@@@std@@@std@@QAE@XZ ; std::vector<WeaponInfo,std::allocator<WeaponInfo> >::~vector<WeaponInfo,std::allocator<WeaponInfo> >
__ehhandler$??0AttackAttribute@@QAE@ABU0@@Z:
  00020	8b 54 24 08	 mov	 edx, DWORD PTR [esp+8]
  00024	8d 42 0c	 lea	 eax, DWORD PTR [edx+12]
  00027	8b 4a ec	 mov	 ecx, DWORD PTR [edx-20]
  0002a	33 c8		 xor	 ecx, eax
  0002c	e8 00 00 00 00	 call	 @__security_check_cookie@4
  00031	b8 00 00 00 00	 mov	 eax, OFFSET __ehfuncinfo$??0AttackAttribute@@QAE@ABU0@@Z
  00036	e9 00 00 00 00	 jmp	 ___CxxFrameHandler3
text$x	ENDS
??0AttackAttribute@@QAE@ABU0@@Z ENDP			; AttackAttribute::AttackAttribute
PUBLIC	??0AttackAttribute@@QAE@XZ			; AttackAttribute::AttackAttribute
EXTRN	?Init@AttackAttribute@@QAEXXZ:PROC		; AttackAttribute::Init
;	COMDAT xdata$x
; File c:\program files (x86)\microsoft visual studio 10.0\vc\include\xmemory
xdata$x	SEGMENT
__unwindtable$??0AttackAttribute@@QAE@XZ DD 0ffffffffH
	DD	FLAT:__unwindfunclet$??0AttackAttribute@@QAE@XZ$0
	DD	00H
	DD	FLAT:__unwindfunclet$??0AttackAttribute@@QAE@XZ$1
	DD	01H
	DD	FLAT:__unwindfunclet$??0AttackAttribute@@QAE@XZ$2
	DD	02H
	DD	FLAT:__unwindfunclet$??0AttackAttribute@@QAE@XZ$3
__ehfuncinfo$??0AttackAttribute@@QAE@XZ DD 019930522H
	DD	04H
	DD	FLAT:__unwindtable$??0AttackAttribute@@QAE@XZ
	DD	2 DUP(00H)
	DD	2 DUP(00H)
	DD	00H
	DD	01H
; Function compile flags: /Ogsp
; File d:\lost saga for developer\youtube\tutorial\source\src\lsclient\ioattackattribute.h
xdata$x	ENDS
;	COMDAT ??0AttackAttribute@@QAE@XZ
_TEXT	SEGMENT
_this$ = -16						; size = 4
__$EHRec$ = -12						; size = 12
??0AttackAttribute@@QAE@XZ PROC				; AttackAttribute::AttackAttribute, COMDAT
; _this$ = ecx

; 107  : 	AttackAttribute()

  00000	6a 04		 push	 4
  00002	b8 00 00 00 00	 mov	 eax, __ehhandler$??0AttackAttribute@@QAE@XZ
  00007	e8 00 00 00 00	 call	 __EH_prolog3
  0000c	8b f1		 mov	 esi, ecx
  0000e	89 75 f0	 mov	 DWORD PTR _this$[ebp], esi
  00011	8b 3d 00 00 00
	00		 mov	 edi, DWORD PTR __imp_??0ioHashString@@QAE@XZ
  00017	ff d7		 call	 edi
  00019	33 db		 xor	 ebx, ebx
  0001b	8d 4e 14	 lea	 ecx, DWORD PTR [esi+20]
  0001e	89 5d fc	 mov	 DWORD PTR __$EHRec$[ebp+8], ebx
  00021	ff d7		 call	 edi
  00023	89 5e 28	 mov	 DWORD PTR [esi+40], ebx
  00026	89 5e 2c	 mov	 DWORD PTR [esi+44], ebx
  00029	89 5e 30	 mov	 DWORD PTR [esi+48], ebx
  0002c	89 5e 38	 mov	 DWORD PTR [esi+56], ebx
  0002f	89 5e 3c	 mov	 DWORD PTR [esi+60], ebx
  00032	89 5e 40	 mov	 DWORD PTR [esi+64], ebx

; 108  : 	{
; 109  : 		Init();

  00035	8b ce		 mov	 ecx, esi
  00037	c6 45 fc 03	 mov	 BYTE PTR __$EHRec$[ebp+8], 3
  0003b	e8 00 00 00 00	 call	 ?Init@AttackAttribute@@QAEXXZ ; AttackAttribute::Init

; 110  : 	}

  00040	8b c6		 mov	 eax, esi
  00042	e8 00 00 00 00	 call	 __EH_epilog3
  00047	c3		 ret	 0
_TEXT	ENDS
;	COMDAT text$x
text$x	SEGMENT
__unwindfunclet$??0AttackAttribute@@QAE@XZ$0:
  00000	8b 4d f0	 mov	 ecx, DWORD PTR _this$[ebp]
  00003	ff 25 00 00 00
	00		 jmp	 DWORD PTR __imp_??1ioHashString@@QAE@XZ
__unwindfunclet$??0AttackAttribute@@QAE@XZ$1:
  00009	8b 4d f0	 mov	 ecx, DWORD PTR _this$[ebp]
  0000c	83 c1 14	 add	 ecx, 20			; 00000014H
  0000f	ff 25 00 00 00
	00		 jmp	 DWORD PTR __imp_??1ioHashString@@QAE@XZ
__unwindfunclet$??0AttackAttribute@@QAE@XZ$2:
  00015	8b 4d f0	 mov	 ecx, DWORD PTR _this$[ebp]
  00018	83 c1 28	 add	 ecx, 40			; 00000028H
  0001b	e9 00 00 00 00	 jmp	 ??1?$vector@UWeaponInfo@@V?$allocator@UWeaponInfo@@@std@@@std@@QAE@XZ ; std::vector<WeaponInfo,std::allocator<WeaponInfo> >::~vector<WeaponInfo,std::allocator<WeaponInfo> >
__unwindfunclet$??0AttackAttribute@@QAE@XZ$3:
  00020	8b 4d f0	 mov	 ecx, DWORD PTR _this$[ebp]
  00023	83 c1 38	 add	 ecx, 56			; 00000038H
  00026	e9 00 00 00 00	 jmp	 ??1?$vector@UForceInfo@@V?$allocator@UForceInfo@@@std@@@std@@QAE@XZ ; std::vector<ForceInfo,std::allocator<ForceInfo> >::~vector<ForceInfo,std::allocator<ForceInfo> >
__ehhandler$??0AttackAttribute@@QAE@XZ:
  0002b	8b 54 24 08	 mov	 edx, DWORD PTR [esp+8]
  0002f	8d 42 0c	 lea	 eax, DWORD PTR [edx+12]
  00032	8b 4a ec	 mov	 ecx, DWORD PTR [edx-20]
  00035	33 c8		 xor	 ecx, eax
  00037	e8 00 00 00 00	 call	 @__security_check_cookie@4
  0003c	b8 00 00 00 00	 mov	 eax, OFFSET __ehfuncinfo$??0AttackAttribute@@QAE@XZ
  00041	e9 00 00 00 00	 jmp	 ___CxxFrameHandler3
text$x	ENDS
??0AttackAttribute@@QAE@XZ ENDP				; AttackAttribute::AttackAttribute
PUBLIC	??1AttackAttribute@@QAE@XZ			; AttackAttribute::~AttackAttribute
;	COMDAT xdata$x
xdata$x	SEGMENT
__unwindtable$??1AttackAttribute@@QAE@XZ DD 0ffffffffH
	DD	FLAT:__unwindfunclet$??1AttackAttribute@@QAE@XZ$0
	DD	00H
	DD	FLAT:__unwindfunclet$??1AttackAttribute@@QAE@XZ$1
	DD	01H
	DD	FLAT:__unwindfunclet$??1AttackAttribute@@QAE@XZ$2
__ehfuncinfo$??1AttackAttribute@@QAE@XZ DD 019930522H
	DD	03H
	DD	FLAT:__unwindtable$??1AttackAttribute@@QAE@XZ
	DD	2 DUP(00H)
	DD	2 DUP(00H)
	DD	00H
	DD	01H
; Function compile flags: /Ogsp
xdata$x	ENDS
;	COMDAT ??1AttackAttribute@@QAE@XZ
_TEXT	SEGMENT
_this$ = -16						; size = 4
__$EHRec$ = -12						; size = 12
??1AttackAttribute@@QAE@XZ PROC				; AttackAttribute::~AttackAttribute, COMDAT
; _this$ = ecx
  00000	6a 04		 push	 4
  00002	b8 00 00 00 00	 mov	 eax, __ehhandler$??1AttackAttribute@@QAE@XZ
  00007	e8 00 00 00 00	 call	 __EH_prolog3
  0000c	8b f1		 mov	 esi, ecx
  0000e	89 75 f0	 mov	 DWORD PTR _this$[ebp], esi
  00011	8d 4e 38	 lea	 ecx, DWORD PTR [esi+56]
  00014	c7 45 fc 02 00
	00 00		 mov	 DWORD PTR __$EHRec$[ebp+8], 2
  0001b	e8 00 00 00 00	 call	 ?_Tidy@?$vector@UForceInfo@@V?$allocator@UForceInfo@@@std@@@std@@IAEXXZ ; std::vector<ForceInfo,std::allocator<ForceInfo> >::_Tidy
  00020	8d 4e 28	 lea	 ecx, DWORD PTR [esi+40]
  00023	c6 45 fc 01	 mov	 BYTE PTR __$EHRec$[ebp+8], 1
  00027	e8 00 00 00 00	 call	 ?_Tidy@?$vector@UWeaponInfo@@V?$allocator@UWeaponInfo@@@std@@@std@@IAEXXZ ; std::vector<WeaponInfo,std::allocator<WeaponInfo> >::_Tidy
  0002c	8b 3d 00 00 00
	00		 mov	 edi, DWORD PTR __imp_??1ioHashString@@QAE@XZ
  00032	8d 4e 14	 lea	 ecx, DWORD PTR [esi+20]
  00035	c6 45 fc 00	 mov	 BYTE PTR __$EHRec$[ebp+8], 0
  00039	ff d7		 call	 edi
  0003b	83 4d fc ff	 or	 DWORD PTR __$EHRec$[ebp+8], -1
  0003f	8b ce		 mov	 ecx, esi
  00041	ff d7		 call	 edi
  00043	e8 00 00 00 00	 call	 __EH_epilog3
  00048	c3		 ret	 0
_TEXT	ENDS
;	COMDAT text$x
text$x	SEGMENT
__unwindfunclet$??1AttackAttribute@@QAE@XZ$0:
  00000	8b 4d f0	 mov	 ecx, DWORD PTR _this$[ebp]
  00003	ff 25 00 00 00
	00		 jmp	 DWORD PTR __imp_??1ioHashString@@QAE@XZ
__unwindfunclet$??1AttackAttribute@@QAE@XZ$1:
  00009	8b 4d f0	 mov	 ecx, DWORD PTR _this$[ebp]
  0000c	83 c1 14	 add	 ecx, 20			; 00000014H
  0000f	ff 25 00 00 00
	00		 jmp	 DWORD PTR __imp_??1ioHashString@@QAE@XZ
__unwindfunclet$??1AttackAttribute@@QAE@XZ$2:
  00015	8b 4d f0	 mov	 ecx, DWORD PTR _this$[ebp]
  00018	83 c1 28	 add	 ecx, 40			; 00000028H
  0001b	e9 00 00 00 00	 jmp	 ??1?$vector@UWeaponInfo@@V?$allocator@UWeaponInfo@@@std@@@std@@QAE@XZ ; std::vector<WeaponInfo,std::allocator<WeaponInfo> >::~vector<WeaponInfo,std::allocator<WeaponInfo> >
__ehhandler$??1AttackAttribute@@QAE@XZ:
  00020	8b 54 24 08	 mov	 edx, DWORD PTR [esp+8]
  00024	8d 42 0c	 lea	 eax, DWORD PTR [edx+12]
  00027	8b 4a ec	 mov	 ecx, DWORD PTR [edx-20]
  0002a	33 c8		 xor	 ecx, eax
  0002c	e8 00 00 00 00	 call	 @__security_check_cookie@4
  00031	b8 00 00 00 00	 mov	 eax, OFFSET __ehfuncinfo$??1AttackAttribute@@QAE@XZ
  00036	e9 00 00 00 00	 jmp	 ___CxxFrameHandler3
text$x	ENDS
??1AttackAttribute@@QAE@XZ ENDP				; AttackAttribute::~AttackAttribute
PUBLIC	??_7ioRangeTargetShotSkill@@6B@			; ioRangeTargetShotSkill::`vftable'
PUBLIC	??0ioRangeTargetShotSkill@@QAE@XZ		; ioRangeTargetShotSkill::ioRangeTargetShotSkill
PUBLIC	??_R4ioRangeTargetShotSkill@@6B@		; ioRangeTargetShotSkill::`RTTI Complete Object Locator'
PUBLIC	??_R0?AVioRangeTargetShotSkill@@@8		; ioRangeTargetShotSkill `RTTI Type Descriptor'
PUBLIC	??_R3ioRangeTargetShotSkill@@8			; ioRangeTargetShotSkill::`RTTI Class Hierarchy Descriptor'
PUBLIC	??_R2ioRangeTargetShotSkill@@8			; ioRangeTargetShotSkill::`RTTI Base Class Array'
PUBLIC	??_R1A@?0A@EA@ioRangeTargetShotSkill@@8		; ioRangeTargetShotSkill::`RTTI Base Class Descriptor at (0,-1,0,64)'
PUBLIC	??_R1A@?0A@EA@ioNormalSkill@@8			; ioNormalSkill::`RTTI Base Class Descriptor at (0,-1,0,64)'
PUBLIC	??_R0?AVioNormalSkill@@@8			; ioNormalSkill `RTTI Type Descriptor'
PUBLIC	??_R3ioNormalSkill@@8				; ioNormalSkill::`RTTI Class Hierarchy Descriptor'
PUBLIC	??_R2ioNormalSkill@@8				; ioNormalSkill::`RTTI Base Class Array'
PUBLIC	??_R1A@?0A@EA@ioSkill@@8			; ioSkill::`RTTI Base Class Descriptor at (0,-1,0,64)'
PUBLIC	??_R0?AVioSkill@@@8				; ioSkill `RTTI Type Descriptor'
PUBLIC	??_R3ioSkill@@8					; ioSkill::`RTTI Class Hierarchy Descriptor'
PUBLIC	??_R2ioSkill@@8					; ioSkill::`RTTI Base Class Array'
PUBLIC	?Clone@ioRangeTargetShotSkill@@UAEPAVioSkill@@XZ ; ioRangeTargetShotSkill::Clone
PUBLIC	?GetDefenseSkillBreakeType@ioSkill@@UBE?AW4DefenseBreakType@@XZ ; ioSkill::GetDefenseSkillBreakeType
PUBLIC	?GetSkillEndNextJumpAmt@ioSkill@@UBEMXZ		; ioSkill::GetSkillEndNextJumpAmt
PUBLIC	?GetSkillEndNextLandRate@ioSkill@@UBEMXZ	; ioSkill::GetSkillEndNextLandRate
PUBLIC	?GetSkillEndNextJumpMustEnable@ioSkill@@UAE?AW4SkillEndJumpType@@XZ ; ioSkill::GetSkillEndNextJumpMustEnable
PUBLIC	?EnableChangeGrapplingTargetPos@ioSkill@@UBE_NXZ ; ioSkill::EnableChangeGrapplingTargetPos
PUBLIC	?IsInvisibleBottomCircle@ioSkill@@UAE_NPAVioBaseChar@@@Z ; ioSkill::IsInvisibleBottomCircle
PUBLIC	?IsCanJumpingSkill@ioSkill@@UBE_NXZ		; ioSkill::IsCanJumpingSkill
PUBLIC	?IsCanJumpingSkillOnBlowWound@ioSkill@@UBE_NXZ	; ioSkill::IsCanJumpingSkillOnBlowWound
PUBLIC	?IsCanDownSkill@ioSkill@@UBE_NXZ		; ioSkill::IsCanDownSkill
PUBLIC	?IsCanBlowWoundSkill@ioSkill@@UBE_NXZ		; ioSkill::IsCanBlowWoundSkill
PUBLIC	?IsCanWoundSkill@ioSkill@@UBE_NXZ		; ioSkill::IsCanWoundSkill
PUBLIC	?IsUseActiveCnt@ioSkill@@UBE_NXZ		; ioSkill::IsUseActiveCnt
PUBLIC	?GetMaxActiveCnt@ioSkill@@UBEHPAVioBaseChar@@@Z	; ioSkill::GetMaxActiveCnt
PUBLIC	?GetCurActiveCnt@ioSkill@@UBEHPAVioBaseChar@@@Z	; ioSkill::GetCurActiveCnt
EXTRN	??1ioNormalSkill@@UAE@XZ:PROC			; ioNormalSkill::~ioNormalSkill
EXTRN	??0ioNormalSkill@@QAE@XZ:PROC			; ioNormalSkill::ioNormalSkill
EXTRN	?GetTypeID@ioNormalSkill@@UBEHXZ:PROC		; ioNormalSkill::GetTypeID
EXTRN	?IsProtected@ioSkill@@UBE_NH@Z:PROC		; ioSkill::IsProtected
EXTRN	?IsCanSwitchSkill@ioSkill@@UBE_NXZ:PROC		; ioSkill::IsCanSwitchSkill
EXTRN	?IsCanSemiSwitchSkill@ioSkill@@UBE_NXZ:PROC	; ioSkill::IsCanSemiSwitchSkill
EXTRN	?IsCanCancelBySkill@ioSkill@@UBE_NPAVioBaseChar@@AAH@Z:PROC ; ioSkill::IsCanCancelBySkill
EXTRN	?IsCanUseZeroHP@ioSkill@@UBE_NPAVioBaseChar@@@Z:PROC ; ioSkill::IsCanUseZeroHP
EXTRN	?IsCanUseSkillWithCrown@ioSkill@@UAE_NPAVioBaseChar@@@Z:PROC ; ioSkill::IsCanUseSkillWithCrown
EXTRN	?IsCanUseBoss@ioSkill@@UBE_NPAVioBaseChar@@@Z:PROC ; ioSkill::IsCanUseBoss
EXTRN	?IsCanUseFootball@ioSkill@@UBE_NXZ:PROC		; ioSkill::IsCanUseFootball
EXTRN	?IsCanUseGangSiMode@ioSkill@@UBE_NXZ:PROC	; ioSkill::IsCanUseGangSiMode
EXTRN	?IsCanUseByWeaponType@ioSkill@@UBE_NPAVioBaseChar@@@Z:PROC ; ioSkill::IsCanUseByWeaponType
EXTRN	?IsCanUseThunderBirdHold@ioSkill@@UBE_NPAVioBaseChar@@@Z:PROC ; ioSkill::IsCanUseThunderBirdHold
EXTRN	?IsCanUseLimitHP@ioSkill@@UBE_NPAVioBaseChar@@@Z:PROC ; ioSkill::IsCanUseLimitHP
EXTRN	?IsOnOffEnable@ioSkill@@UAE_NXZ:PROC		; ioSkill::IsOnOffEnable
EXTRN	?IsCanDefenseStateSkill@ioSkill@@UAE_NXZ:PROC	; ioSkill::IsCanDefenseStateSkill
EXTRN	?SetDefenseStateSkill@ioSkill@@UAEXPAVioBaseChar@@@Z:PROC ; ioSkill::SetDefenseStateSkill
EXTRN	?HasBuff@ioSkill@@UBE_NH@Z:PROC			; ioSkill::HasBuff
EXTRN	?GetBuffType@ioSkill@@UAEHH@Z:PROC		; ioSkill::GetBuffType
EXTRN	?IsEnableReserve@ioSkill@@UBE_NXZ:PROC		; ioSkill::IsEnableReserve
EXTRN	?IsCharSkipState@ioSkill@@UBE?AW4SkillCharColType@@XZ:PROC ; ioSkill::IsCharSkipState
EXTRN	?IsEntityCollisionSkipState@ioSkill@@UBE_NXZ:PROC ; ioSkill::IsEntityCollisionSkipState
EXTRN	?IsEndState@ioSkill@@UBE_NXZ:PROC		; ioSkill::IsEndState
EXTRN	?IsAttackEndState@ioNormalSkill@@UBE_NXZ:PROC	; ioNormalSkill::IsAttackEndState
EXTRN	?IsJumpState@ioSkill@@UBE_NXZ:PROC		; ioSkill::IsJumpState
EXTRN	?IsDownState@ioSkill@@UBE_NXZ:PROC		; ioSkill::IsDownState
EXTRN	?IsNoDropState@ioSkill@@UBE_NXZ:PROC		; ioSkill::IsNoDropState
EXTRN	?IsCanSendControl@ioSkill@@UBE_NXZ:PROC		; ioSkill::IsCanSendControl
EXTRN	?IsSkipState@ioSkill@@UBE_NXZ:PROC		; ioSkill::IsSkipState
EXTRN	?GetSkillMoveRate@ioSkill@@UBEMXZ:PROC		; ioSkill::GetSkillMoveRate
EXTRN	?SetSkillGrapplingState@ioSkill@@UAE_NPAVioBaseChar@@ABVioHashString@@@Z:PROC ; ioSkill::SetSkillGrapplingState
EXTRN	?GetGrapplingTargetPos@ioSkill@@UAE?AUD3DXVECTOR3@@PAVioBaseChar@@0@Z:PROC ; ioSkill::GetGrapplingTargetPos
EXTRN	?GetGrapplingTargetPos@ioSkill@@UAE?AUD3DXVECTOR3@@PAVioBaseChar@@@Z:PROC ; ioSkill::GetGrapplingTargetPos
EXTRN	?GetSkillWoundGrapplingInfo@ioSkill@@UAE?AUGrapplingSkillWoundedInfo@@XZ:PROC ; ioSkill::GetSkillWoundGrapplingInfo
EXTRN	?SetCreateWeaponDependency@ioSkill@@UAEXPAVioBaseChar@@PAVioPlayStage@@@Z:PROC ; ioSkill::SetCreateWeaponDependency
EXTRN	?SetNextSkillState@ioSkill@@UAEXPAVioBaseChar@@PAVioWeapon@@@Z:PROC ; ioSkill::SetNextSkillState
EXTRN	?OnSkillEndByWounded@ioSkill@@UAEXPAVioBaseChar@@@Z:PROC ; ioSkill::OnSkillEndByWounded
EXTRN	?OnProcessNotUseSkill@ioSkill@@UAEXPAVioBaseChar@@PAVioPlayStage@@@Z:PROC ; ioSkill::OnProcessNotUseSkill
EXTRN	?OnSkillItemRelease@ioSkill@@UAEXPAVioBaseChar@@@Z:PROC ; ioSkill::OnSkillItemRelease
EXTRN	?ApplyEquipSlotSkillExtraInfo@ioSkill@@UAEXPAVioBaseChar@@PAVioPlayStage@@AAVSP2Packet@@@Z:PROC ; ioSkill::ApplyEquipSlotSkillExtraInfo
EXTRN	?ApplyExtraPassiveSkillInfo@ioSkill@@UAEXPAVioBaseChar@@PAVioPlayStage@@AAVSP2Packet@@@Z:PROC ; ioSkill::ApplyExtraPassiveSkillInfo
EXTRN	?StartPreDelayEffect@ioNormalSkill@@UAEXPAVioBaseChar@@@Z:PROC ; ioNormalSkill::StartPreDelayEffect
EXTRN	?EndPreDelayEffect@ioNormalSkill@@UAEXPAVioBaseChar@@@Z:PROC ; ioNormalSkill::EndPreDelayEffect
EXTRN	?IsUseAutoTargetValue@ioSkill@@UAE_NXZ:PROC	; ioSkill::IsUseAutoTargetValue
EXTRN	?IsAutoTargetDownState@ioSkill@@UAE_NXZ:PROC	; ioSkill::IsAutoTargetDownState
EXTRN	?CheckUseBuff@ioSkill@@UAE_NPAVioBaseChar@@@Z:PROC ; ioSkill::CheckUseBuff
EXTRN	?CheckUseItemMesh@ioSkill@@UAE_NXZ:PROC		; ioSkill::CheckUseItemMesh
EXTRN	?CheckUseActiveCount@ioSkill@@UAE_NXZ:PROC	; ioSkill::CheckUseActiveCount
EXTRN	?CheckAniRotate@ioSkill@@UAEXPAVioBaseChar@@@Z:PROC ; ioSkill::CheckAniRotate
EXTRN	?IsEnableDashCheck@ioSkill@@UAE_NPAVioBaseChar@@@Z:PROC ; ioSkill::IsEnableDashCheck
EXTRN	?IsEnableMultiActive@ioSkill@@UAE_NPAVioBaseChar@@@Z:PROC ; ioSkill::IsEnableMultiActive
EXTRN	?GetAutoTargetValue@ioSkill@@UAEXAAM00@Z:PROC	; ioSkill::GetAutoTargetValue
EXTRN	?GetSkillGravityRate@ioSkill@@UAEMXZ:PROC	; ioSkill::GetSkillGravityRate
EXTRN	?GetSkillMotionName@ioSkill@@UBEABVioHashString@@XZ:PROC ; ioSkill::GetSkillMotionName
EXTRN	?HasSkillMotion@ioSkill@@UBE_NXZ:PROC		; ioSkill::HasSkillMotion
EXTRN	?GetSkillMotionRate@ioSkill@@UBEMXZ:PROC	; ioSkill::GetSkillMotionRate
EXTRN	?IsPreDelayProtect@ioSkill@@UBE_NXZ:PROC	; ioSkill::IsPreDelayProtect
EXTRN	?GetPreDelayAniName@ioSkill@@UBEABVioHashString@@XZ:PROC ; ioSkill::GetPreDelayAniName
EXTRN	?GetPreDelayTime@ioSkill@@UBEKXZ:PROC		; ioSkill::GetPreDelayTime
EXTRN	?GetPreDelayOwnerEffect@ioSkill@@UBEABVioHashString@@XZ:PROC ; ioSkill::GetPreDelayOwnerEffect
EXTRN	?GetPreDelayOtherEffect@ioSkill@@UBEABVioHashString@@XZ:PROC ; ioSkill::GetPreDelayOtherEffect
EXTRN	?SetCancelSkill@ioSkill@@UAEXPAVioBaseChar@@@Z:PROC ; ioSkill::SetCancelSkill
EXTRN	?ClearAirJump@ioSkill@@MAEXXZ:PROC		; ioSkill::ClearAirJump
EXTRN	?SetAirJump@ioSkill@@MAEXPAVioBaseChar@@HM@Z:PROC ; ioSkill::SetAirJump
EXTRN	?CheckAirJump@ioSkill@@MAEXPAVioBaseChar@@@Z:PROC ; ioSkill::CheckAirJump
EXTRN	?UseActiveCount@ioSkill@@UAE_NPAVioBaseChar@@@Z:PROC ; ioSkill::UseActiveCount
EXTRN	?GetMaxActiveCount@ioSkill@@UAEHPAVioBaseChar@@@Z:PROC ; ioSkill::GetMaxActiveCount
EXTRN	?GetCurActiveCount@ioSkill@@UAEHPAVioBaseChar@@@Z:PROC ; ioSkill::GetCurActiveCount
EXTRN	?HideHPGauge@ioSkill@@UAE_NXZ:PROC		; ioSkill::HideHPGauge
EXTRN	?SetInfoByApplyWeapon@ioSkill@@UAEXPAVioBaseChar@@0K_N@Z:PROC ; ioSkill::SetInfoByApplyWeapon
EXTRN	?SetCollisionByApplySkill@ioSkill@@UAEXXZ:PROC	; ioSkill::SetCollisionByApplySkill
EXTRN	?SetChargingRateForWeapon@ioSkill@@UAEXPAVioWeapon@@@Z:PROC ; ioSkill::SetChargingRateForWeapon
EXTRN	?CheckExceptionCamera@ioSkill@@UAE_NXZ:PROC	; ioSkill::CheckExceptionCamera
EXTRN	?GetExceptionCameraPos@ioSkill@@UAE?AUD3DXVECTOR3@@PAVioBaseChar@@@Z:PROC ; ioSkill::GetExceptionCameraPos
EXTRN	?IsFixedExceptionCamera@ioSkill@@UAE_NXZ:PROC	; ioSkill::IsFixedExceptionCamera
EXTRN	??_EioRangeTargetShotSkill@@UAEPAXI@Z:PROC	; ioRangeTargetShotSkill::`vector deleting destructor'
EXTRN	?StartPreDelayAnimation@ioNormalSkill@@MAE_NPAVioBaseChar@@@Z:PROC ; ioNormalSkill::StartPreDelayAnimation
EXTRN	?SetNormalSkill@ioNormalSkill@@MAEXPAVioBaseChar@@@Z:PROC ; ioNormalSkill::SetNormalSkill
;	COMDAT ??_R2ioSkill@@8
; File c:\program files (x86)\microsoft directx sdk (june 2010)\include\d3dx9math.h
rdata$r	SEGMENT
??_R2ioSkill@@8 DD FLAT:??_R1A@?0A@EA@ioSkill@@8	; ioSkill::`RTTI Base Class Array'
rdata$r	ENDS
;	COMDAT ??_R3ioSkill@@8
rdata$r	SEGMENT
??_R3ioSkill@@8 DD 00H					; ioSkill::`RTTI Class Hierarchy Descriptor'
	DD	00H
	DD	01H
	DD	FLAT:??_R2ioSkill@@8
rdata$r	ENDS
;	COMDAT ??_R0?AVioSkill@@@8
_DATA	SEGMENT
??_R0?AVioSkill@@@8 DD FLAT:??_7type_info@@6B@		; ioSkill `RTTI Type Descriptor'
	DD	00H
	DB	'.?AVioSkill@@', 00H
_DATA	ENDS
;	COMDAT ??_R1A@?0A@EA@ioSkill@@8
rdata$r	SEGMENT
??_R1A@?0A@EA@ioSkill@@8 DD FLAT:??_R0?AVioSkill@@@8	; ioSkill::`RTTI Base Class Descriptor at (0,-1,0,64)'
	DD	00H
	DD	00H
	DD	0ffffffffH
	DD	00H
	DD	040H
	DD	FLAT:??_R3ioSkill@@8
rdata$r	ENDS
;	COMDAT ??_R2ioNormalSkill@@8
rdata$r	SEGMENT
??_R2ioNormalSkill@@8 DD FLAT:??_R1A@?0A@EA@ioNormalSkill@@8 ; ioNormalSkill::`RTTI Base Class Array'
	DD	FLAT:??_R1A@?0A@EA@ioSkill@@8
rdata$r	ENDS
;	COMDAT ??_R3ioNormalSkill@@8
rdata$r	SEGMENT
??_R3ioNormalSkill@@8 DD 00H				; ioNormalSkill::`RTTI Class Hierarchy Descriptor'
	DD	00H
	DD	02H
	DD	FLAT:??_R2ioNormalSkill@@8
rdata$r	ENDS
;	COMDAT ??_R0?AVioNormalSkill@@@8
_DATA	SEGMENT
??_R0?AVioNormalSkill@@@8 DD FLAT:??_7type_info@@6B@	; ioNormalSkill `RTTI Type Descriptor'
	DD	00H
	DB	'.?AVioNormalSkill@@', 00H
_DATA	ENDS
;	COMDAT ??_R1A@?0A@EA@ioNormalSkill@@8
rdata$r	SEGMENT
??_R1A@?0A@EA@ioNormalSkill@@8 DD FLAT:??_R0?AVioNormalSkill@@@8 ; ioNormalSkill::`RTTI Base Class Descriptor at (0,-1,0,64)'
	DD	01H
	DD	00H
	DD	0ffffffffH
	DD	00H
	DD	040H
	DD	FLAT:??_R3ioNormalSkill@@8
rdata$r	ENDS
;	COMDAT ??_R1A@?0A@EA@ioRangeTargetShotSkill@@8
rdata$r	SEGMENT
??_R1A@?0A@EA@ioRangeTargetShotSkill@@8 DD FLAT:??_R0?AVioRangeTargetShotSkill@@@8 ; ioRangeTargetShotSkill::`RTTI Base Class Descriptor at (0,-1,0,64)'
	DD	02H
	DD	00H
	DD	0ffffffffH
	DD	00H
	DD	040H
	DD	FLAT:??_R3ioRangeTargetShotSkill@@8
rdata$r	ENDS
;	COMDAT ??_R2ioRangeTargetShotSkill@@8
rdata$r	SEGMENT
??_R2ioRangeTargetShotSkill@@8 DD FLAT:??_R1A@?0A@EA@ioRangeTargetShotSkill@@8 ; ioRangeTargetShotSkill::`RTTI Base Class Array'
	DD	FLAT:??_R1A@?0A@EA@ioNormalSkill@@8
	DD	FLAT:??_R1A@?0A@EA@ioSkill@@8
rdata$r	ENDS
;	COMDAT ??_R3ioRangeTargetShotSkill@@8
rdata$r	SEGMENT
??_R3ioRangeTargetShotSkill@@8 DD 00H			; ioRangeTargetShotSkill::`RTTI Class Hierarchy Descriptor'
	DD	00H
	DD	03H
	DD	FLAT:??_R2ioRangeTargetShotSkill@@8
rdata$r	ENDS
;	COMDAT ??_R0?AVioRangeTargetShotSkill@@@8
_DATA	SEGMENT
??_R0?AVioRangeTargetShotSkill@@@8 DD FLAT:??_7type_info@@6B@ ; ioRangeTargetShotSkill `RTTI Type Descriptor'
	DD	00H
	DB	'.?AVioRangeTargetShotSkill@@', 00H
_DATA	ENDS
;	COMDAT ??_R4ioRangeTargetShotSkill@@6B@
rdata$r	SEGMENT
??_R4ioRangeTargetShotSkill@@6B@ DD 00H			; ioRangeTargetShotSkill::`RTTI Complete Object Locator'
	DD	00H
	DD	00H
	DD	FLAT:??_R0?AVioRangeTargetShotSkill@@@8
	DD	FLAT:??_R3ioRangeTargetShotSkill@@8
rdata$r	ENDS
;	COMDAT ??_7ioRangeTargetShotSkill@@6B@
CONST	SEGMENT
??_7ioRangeTargetShotSkill@@6B@ DD FLAT:??_R4ioRangeTargetShotSkill@@6B@ ; ioRangeTargetShotSkill::`vftable'
	DD	FLAT:?LoadProperty@ioRangeTargetShotSkill@@UAEXAAVioINILoader@@@Z
	DD	FLAT:?Clone@ioRangeTargetShotSkill@@UAEPAVioSkill@@XZ
	DD	FLAT:?GetTypeID@ioNormalSkill@@UBEHXZ
	DD	FLAT:?IsProtected@ioSkill@@UBE_NH@Z
	DD	FLAT:?IsCanSwitchSkill@ioSkill@@UBE_NXZ
	DD	FLAT:?IsCanSemiSwitchSkill@ioSkill@@UBE_NXZ
	DD	FLAT:?IsCanCancelBySkill@ioSkill@@UBE_NPAVioBaseChar@@AAH@Z
	DD	FLAT:?IsCanUseZeroHP@ioSkill@@UBE_NPAVioBaseChar@@@Z
	DD	FLAT:?IsCanUseSkillWithCrown@ioSkill@@UAE_NPAVioBaseChar@@@Z
	DD	FLAT:?IsCanUseBoss@ioSkill@@UBE_NPAVioBaseChar@@@Z
	DD	FLAT:?IsCanUseFootball@ioSkill@@UBE_NXZ
	DD	FLAT:?IsCanUseGangSiMode@ioSkill@@UBE_NXZ
	DD	FLAT:?IsCanUseByWeaponType@ioSkill@@UBE_NPAVioBaseChar@@@Z
	DD	FLAT:?IsCanUseThunderBirdHold@ioSkill@@UBE_NPAVioBaseChar@@@Z
	DD	FLAT:?IsCanUseLimitHP@ioSkill@@UBE_NPAVioBaseChar@@@Z
	DD	FLAT:?IsCanUseSkill@ioRangeTargetShotSkill@@UAE_NPAVioBaseChar@@_N@Z
	DD	FLAT:?IsOnOffEnable@ioSkill@@UAE_NXZ
	DD	FLAT:?IsCanDefenseStateSkill@ioSkill@@UAE_NXZ
	DD	FLAT:?SetDefenseStateSkill@ioSkill@@UAEXPAVioBaseChar@@@Z
	DD	FLAT:?GetDefenseSkillBreakeType@ioSkill@@UBE?AW4DefenseBreakType@@XZ
	DD	FLAT:?HasBuff@ioSkill@@UBE_NH@Z
	DD	FLAT:?GetBuffType@ioSkill@@UAEHH@Z
	DD	FLAT:?IsEnableReserve@ioSkill@@UBE_NXZ
	DD	FLAT:?IsSkillMotionEnd@ioRangeTargetShotSkill@@UBE_NKPAVioBaseChar@@@Z
	DD	FLAT:?IsCharSkipState@ioSkill@@UBE?AW4SkillCharColType@@XZ
	DD	FLAT:?IsEntityCollisionSkipState@ioSkill@@UBE_NXZ
	DD	FLAT:?GetSkillEndNextJumpAmt@ioSkill@@UBEMXZ
	DD	FLAT:?GetSkillEndNextLandRate@ioSkill@@UBEMXZ
	DD	FLAT:?GetSkillEndNextJumpMustEnable@ioSkill@@UAE?AW4SkillEndJumpType@@XZ
	DD	FLAT:?IsEndState@ioSkill@@UBE_NXZ
	DD	FLAT:?IsAttackEndState@ioNormalSkill@@UBE_NXZ
	DD	FLAT:?IsJumpState@ioSkill@@UBE_NXZ
	DD	FLAT:?IsDownState@ioSkill@@UBE_NXZ
	DD	FLAT:?IsNoDropState@ioSkill@@UBE_NXZ
	DD	FLAT:?IsCanSendControl@ioSkill@@UBE_NXZ
	DD	FLAT:?IsSkipState@ioSkill@@UBE_NXZ
	DD	FLAT:?GetSkillMoveRate@ioSkill@@UBEMXZ
	DD	FLAT:?SetSkillGrapplingState@ioSkill@@UAE_NPAVioBaseChar@@ABVioHashString@@@Z
	DD	FLAT:?GetGrapplingTargetPos@ioSkill@@UAE?AUD3DXVECTOR3@@PAVioBaseChar@@0@Z
	DD	FLAT:?GetGrapplingTargetPos@ioSkill@@UAE?AUD3DXVECTOR3@@PAVioBaseChar@@@Z
	DD	FLAT:?EnableChangeGrapplingTargetPos@ioSkill@@UBE_NXZ
	DD	FLAT:?GetSkillWoundGrapplingInfo@ioSkill@@UAE?AUGrapplingSkillWoundedInfo@@XZ
	DD	FLAT:?SetCreateWeaponDependency@ioSkill@@UAEXPAVioBaseChar@@PAVioPlayStage@@@Z
	DD	FLAT:?SetNextSkillState@ioSkill@@UAEXPAVioBaseChar@@PAVioWeapon@@@Z
	DD	FLAT:?OnSkillStart@ioRangeTargetShotSkill@@UAE_NPAVioBaseChar@@@Z
	DD	FLAT:?OnProcessState@ioRangeTargetShotSkill@@UAEXPAVioBaseChar@@PAVioPlayStage@@@Z
	DD	FLAT:?OnSkillEndByWounded@ioSkill@@UAEXPAVioBaseChar@@@Z
	DD	FLAT:?OnSkillEnd@ioRangeTargetShotSkill@@UAEXPAVioBaseChar@@@Z
	DD	FLAT:?OnProcessNotUseSkill@ioSkill@@UAEXPAVioBaseChar@@PAVioPlayStage@@@Z
	DD	FLAT:?OnSkillItemRelease@ioSkill@@UAEXPAVioBaseChar@@@Z
	DD	FLAT:?ApplyAttributeToWeapon@ioRangeTargetShotSkill@@UAEXPAVioWeapon@@PAVioPlayStage@@@Z
	DD	FLAT:?ApplyExtraSkillInfo@ioRangeTargetShotSkill@@UAEXPAVioBaseChar@@PAVioPlayStage@@AAVSP2Packet@@@Z
	DD	FLAT:?ApplyEquipSlotSkillExtraInfo@ioSkill@@UAEXPAVioBaseChar@@PAVioPlayStage@@AAVSP2Packet@@@Z
	DD	FLAT:?ApplyExtraPassiveSkillInfo@ioSkill@@UAEXPAVioBaseChar@@PAVioPlayStage@@AAVSP2Packet@@@Z
	DD	FLAT:?StartPreDelayEffect@ioNormalSkill@@UAEXPAVioBaseChar@@@Z
	DD	FLAT:?EndPreDelayEffect@ioNormalSkill@@UAEXPAVioBaseChar@@@Z
	DD	FLAT:?IsUseAutoTargetValue@ioSkill@@UAE_NXZ
	DD	FLAT:?IsAutoTargetDownState@ioSkill@@UAE_NXZ
	DD	FLAT:?CheckUseBuff@ioSkill@@UAE_NPAVioBaseChar@@@Z
	DD	FLAT:?CheckUseItemMesh@ioSkill@@UAE_NXZ
	DD	FLAT:?CheckUseActiveCount@ioSkill@@UAE_NXZ
	DD	FLAT:?CheckAniRotate@ioSkill@@UAEXPAVioBaseChar@@@Z
	DD	FLAT:?IsEnableDashCheck@ioSkill@@UAE_NPAVioBaseChar@@@Z
	DD	FLAT:?IsEnableMultiActive@ioSkill@@UAE_NPAVioBaseChar@@@Z
	DD	FLAT:?IsInvisibleBottomCircle@ioSkill@@UAE_NPAVioBaseChar@@@Z
	DD	FLAT:?GetAutoTargetValue@ioSkill@@UAEXAAM00@Z
	DD	FLAT:?IsCanJumpingSkill@ioSkill@@UBE_NXZ
	DD	FLAT:?IsCanJumpingSkillOnBlowWound@ioSkill@@UBE_NXZ
	DD	FLAT:?IsCanDownSkill@ioSkill@@UBE_NXZ
	DD	FLAT:?IsCanBlowWoundSkill@ioSkill@@UBE_NXZ
	DD	FLAT:?IsCanWoundSkill@ioSkill@@UBE_NXZ
	DD	FLAT:?GetSkillGravityRate@ioSkill@@UAEMXZ
	DD	FLAT:?GetSkillMotionName@ioSkill@@UBEABVioHashString@@XZ
	DD	FLAT:?HasSkillMotion@ioSkill@@UBE_NXZ
	DD	FLAT:?GetSkillMotionRate@ioSkill@@UBEMXZ
	DD	FLAT:?IsPreDelayProtect@ioSkill@@UBE_NXZ
	DD	FLAT:?GetPreDelayAniName@ioSkill@@UBEABVioHashString@@XZ
	DD	FLAT:?GetPreDelayTime@ioSkill@@UBEKXZ
	DD	FLAT:?GetPreDelayOwnerEffect@ioSkill@@UBEABVioHashString@@XZ
	DD	FLAT:?GetPreDelayOtherEffect@ioSkill@@UBEABVioHashString@@XZ
	DD	FLAT:?SetCancelSkill@ioSkill@@UAEXPAVioBaseChar@@@Z
	DD	FLAT:?ClearAirJump@ioSkill@@MAEXXZ
	DD	FLAT:?SetAirJump@ioSkill@@MAEXPAVioBaseChar@@HM@Z
	DD	FLAT:?CheckAirJump@ioSkill@@MAEXPAVioBaseChar@@@Z
	DD	FLAT:?UseActiveCount@ioSkill@@UAE_NPAVioBaseChar@@@Z
	DD	FLAT:?GetMaxActiveCount@ioSkill@@UAEHPAVioBaseChar@@@Z
	DD	FLAT:?GetCurActiveCount@ioSkill@@UAEHPAVioBaseChar@@@Z
	DD	FLAT:?HideHPGauge@ioSkill@@UAE_NXZ
	DD	FLAT:?SetInfoByApplyWeapon@ioSkill@@UAEXPAVioBaseChar@@0K_N@Z
	DD	FLAT:?SetCollisionByApplySkill@ioSkill@@UAEXXZ
	DD	FLAT:?SetChargingRateForWeapon@ioSkill@@UAEXPAVioWeapon@@@Z
	DD	FLAT:?CheckExceptionCamera@ioSkill@@UAE_NXZ
	DD	FLAT:?GetExceptionCameraPos@ioSkill@@UAE?AUD3DXVECTOR3@@PAVioBaseChar@@@Z
	DD	FLAT:?IsFixedExceptionCamera@ioSkill@@UAE_NXZ
	DD	FLAT:?IsUseActiveCnt@ioSkill@@UBE_NXZ
	DD	FLAT:?GetMaxActiveCnt@ioSkill@@UBEHPAVioBaseChar@@@Z
	DD	FLAT:?GetCurActiveCnt@ioSkill@@UBEHPAVioBaseChar@@@Z
	DD	FLAT:??_EioRangeTargetShotSkill@@UAEPAXI@Z
	DD	FLAT:?StartPreDelayAnimation@ioNormalSkill@@MAE_NPAVioBaseChar@@@Z
	DD	FLAT:?SetNormalSkill@ioNormalSkill@@MAEXPAVioBaseChar@@@Z
CONST	ENDS
;	COMDAT xdata$x
xdata$x	SEGMENT
__ehfuncinfo$??0ioRangeTargetShotSkill@@QAE@XZ DD 019930522H
	DD	015H
	DD	FLAT:__unwindtable$??0ioRangeTargetShotSkill@@QAE@XZ
	DD	2 DUP(00H)
	DD	2 DUP(00H)
	DD	00H
	DD	01H
__unwindtable$??0ioRangeTargetShotSkill@@QAE@XZ DD 0ffffffffH
	DD	FLAT:__unwindfunclet$??0ioRangeTargetShotSkill@@QAE@XZ$0
	DD	00H
	DD	FLAT:__unwindfunclet$??0ioRangeTargetShotSkill@@QAE@XZ$1
	DD	01H
	DD	FLAT:__unwindfunclet$??0ioRangeTargetShotSkill@@QAE@XZ$2
	DD	02H
	DD	FLAT:__unwindfunclet$??0ioRangeTargetShotSkill@@QAE@XZ$3
	DD	03H
	DD	FLAT:__unwindfunclet$??0ioRangeTargetShotSkill@@QAE@XZ$4
	DD	04H
	DD	FLAT:__unwindfunclet$??0ioRangeTargetShotSkill@@QAE@XZ$5
	DD	05H
	DD	FLAT:__unwindfunclet$??0ioRangeTargetShotSkill@@QAE@XZ$6
	DD	06H
	DD	FLAT:__unwindfunclet$??0ioRangeTargetShotSkill@@QAE@XZ$7
	DD	07H
	DD	FLAT:__unwindfunclet$??0ioRangeTargetShotSkill@@QAE@XZ$8
	DD	08H
	DD	FLAT:__unwindfunclet$??0ioRangeTargetShotSkill@@QAE@XZ$9
	DD	09H
	DD	FLAT:__unwindfunclet$??0ioRangeTargetShotSkill@@QAE@XZ$10
	DD	0aH
	DD	FLAT:__unwindfunclet$??0ioRangeTargetShotSkill@@QAE@XZ$11
	DD	0bH
	DD	FLAT:__unwindfunclet$??0ioRangeTargetShotSkill@@QAE@XZ$12
	DD	0cH
	DD	FLAT:__unwindfunclet$??0ioRangeTargetShotSkill@@QAE@XZ$13
	DD	0dH
	DD	FLAT:__unwindfunclet$??0ioRangeTargetShotSkill@@QAE@XZ$14
	DD	0eH
	DD	FLAT:__unwindfunclet$??0ioRangeTargetShotSkill@@QAE@XZ$15
	DD	0fH
	DD	FLAT:__unwindfunclet$??0ioRangeTargetShotSkill@@QAE@XZ$16
	DD	010H
	DD	FLAT:__unwindfunclet$??0ioRangeTargetShotSkill@@QAE@XZ$17
	DD	011H
	DD	FLAT:__unwindfunclet$??0ioRangeTargetShotSkill@@QAE@XZ$18
	DD	012H
	DD	FLAT:__unwindfunclet$??0ioRangeTargetShotSkill@@QAE@XZ$19
	DD	013H
	DD	FLAT:__unwindfunclet$??0ioRangeTargetShotSkill@@QAE@XZ$20
; Function compile flags: /Ogsp
; File d:\lost saga for developer\youtube\tutorial\source\src\lsclient\iorangetargetshotskill.cpp
xdata$x	ENDS
;	COMDAT ??0ioRangeTargetShotSkill@@QAE@XZ
_TEXT	SEGMENT
_this$ = -16						; size = 4
__$EHRec$ = -12						; size = 12
??0ioRangeTargetShotSkill@@QAE@XZ PROC			; ioRangeTargetShotSkill::ioRangeTargetShotSkill, COMDAT
; _this$ = ecx

; 8    : {

  00000	6a 04		 push	 4
  00002	b8 00 00 00 00	 mov	 eax, __ehhandler$??0ioRangeTargetShotSkill@@QAE@XZ
  00007	e8 00 00 00 00	 call	 __EH_prolog3
  0000c	8b f1		 mov	 esi, ecx
  0000e	89 75 f0	 mov	 DWORD PTR _this$[ebp], esi
  00011	e8 00 00 00 00	 call	 ??0ioNormalSkill@@QAE@XZ ; ioNormalSkill::ioNormalSkill
  00016	8b 3d 00 00 00
	00		 mov	 edi, DWORD PTR __imp_??0ioHashString@@QAE@XZ
  0001c	83 65 fc 00	 and	 DWORD PTR __$EHRec$[ebp+8], 0
  00020	8d 8e 5c 0f 00
	00		 lea	 ecx, DWORD PTR [esi+3932]
  00026	c7 06 00 00 00
	00		 mov	 DWORD PTR [esi], OFFSET ??_7ioRangeTargetShotSkill@@6B@
  0002c	ff d7		 call	 edi
  0002e	8d 8e 6c 0f 00
	00		 lea	 ecx, DWORD PTR [esi+3948]
  00034	c6 45 fc 01	 mov	 BYTE PTR __$EHRec$[ebp+8], 1
  00038	ff d7		 call	 edi
  0003a	8d 8e 7c 0f 00
	00		 lea	 ecx, DWORD PTR [esi+3964]
  00040	c6 45 fc 02	 mov	 BYTE PTR __$EHRec$[ebp+8], 2
  00044	ff d7		 call	 edi
  00046	8d 8e 8c 0f 00
	00		 lea	 ecx, DWORD PTR [esi+3980]
  0004c	c6 45 fc 03	 mov	 BYTE PTR __$EHRec$[ebp+8], 3
  00050	ff d7		 call	 edi
  00052	8d 8e 9c 0f 00
	00		 lea	 ecx, DWORD PTR [esi+3996]
  00058	c6 45 fc 04	 mov	 BYTE PTR __$EHRec$[ebp+8], 4
  0005c	ff d7		 call	 edi
  0005e	8d 8e ac 0f 00
	00		 lea	 ecx, DWORD PTR [esi+4012]
  00064	c6 45 fc 05	 mov	 BYTE PTR __$EHRec$[ebp+8], 5
  00068	ff d7		 call	 edi
  0006a	8d 8e bc 0f 00
	00		 lea	 ecx, DWORD PTR [esi+4028]
  00070	c6 45 fc 06	 mov	 BYTE PTR __$EHRec$[ebp+8], 6
  00074	ff d7		 call	 edi
  00076	8d 8e cc 0f 00
	00		 lea	 ecx, DWORD PTR [esi+4044]
  0007c	c6 45 fc 07	 mov	 BYTE PTR __$EHRec$[ebp+8], 7
  00080	ff d7		 call	 edi
  00082	8d 8e dc 0f 00
	00		 lea	 ecx, DWORD PTR [esi+4060]
  00088	c6 45 fc 08	 mov	 BYTE PTR __$EHRec$[ebp+8], 8
  0008c	ff d7		 call	 edi
  0008e	8d 8e ec 0f 00
	00		 lea	 ecx, DWORD PTR [esi+4076]
  00094	c6 45 fc 09	 mov	 BYTE PTR __$EHRec$[ebp+8], 9
  00098	ff d7		 call	 edi
  0009a	8d 8e 00 10 00
	00		 lea	 ecx, DWORD PTR [esi+4096]
  000a0	c6 45 fc 0a	 mov	 BYTE PTR __$EHRec$[ebp+8], 10 ; 0000000aH
  000a4	ff d7		 call	 edi
  000a6	8d 8e 10 10 00
	00		 lea	 ecx, DWORD PTR [esi+4112]
  000ac	c6 45 fc 0b	 mov	 BYTE PTR __$EHRec$[ebp+8], 11 ; 0000000bH
  000b0	ff d7		 call	 edi
  000b2	8d 8e 28 10 00
	00		 lea	 ecx, DWORD PTR [esi+4136]
  000b8	c6 45 fc 0c	 mov	 BYTE PTR __$EHRec$[ebp+8], 12 ; 0000000cH
  000bc	e8 00 00 00 00	 call	 ??0?$CEncrypt@M@@QAE@XZ	; CEncrypt<float>::CEncrypt<float>
  000c1	8d 8e 58 10 00
	00		 lea	 ecx, DWORD PTR [esi+4184]
  000c7	c6 45 fc 0d	 mov	 BYTE PTR __$EHRec$[ebp+8], 13 ; 0000000dH
  000cb	e8 00 00 00 00	 call	 ??0?$CEncrypt@M@@QAE@XZ	; CEncrypt<float>::CEncrypt<float>
  000d0	8d 8e 88 10 00
	00		 lea	 ecx, DWORD PTR [esi+4232]
  000d6	c6 45 fc 0e	 mov	 BYTE PTR __$EHRec$[ebp+8], 14 ; 0000000eH
  000da	e8 00 00 00 00	 call	 ??0?$CEncrypt@M@@QAE@XZ	; CEncrypt<float>::CEncrypt<float>
  000df	8d 8e b8 10 00
	00		 lea	 ecx, DWORD PTR [esi+4280]
  000e5	c6 45 fc 0f	 mov	 BYTE PTR __$EHRec$[ebp+8], 15 ; 0000000fH
  000e9	e8 00 00 00 00	 call	 ??0?$CEncrypt@M@@QAE@XZ	; CEncrypt<float>::CEncrypt<float>
  000ee	8d 8e e8 10 00
	00		 lea	 ecx, DWORD PTR [esi+4328]
  000f4	c6 45 fc 10	 mov	 BYTE PTR __$EHRec$[ebp+8], 16 ; 00000010H
  000f8	e8 00 00 00 00	 call	 ??0?$CEncrypt@M@@QAE@XZ	; CEncrypt<float>::CEncrypt<float>
  000fd	8d 8e 18 11 00
	00		 lea	 ecx, DWORD PTR [esi+4376]
  00103	c6 45 fc 11	 mov	 BYTE PTR __$EHRec$[ebp+8], 17 ; 00000011H
  00107	e8 00 00 00 00	 call	 ??0?$CEncrypt@M@@QAE@XZ	; CEncrypt<float>::CEncrypt<float>
  0010c	8d 8e 4c 11 00
	00		 lea	 ecx, DWORD PTR [esi+4428]
  00112	c6 45 fc 12	 mov	 BYTE PTR __$EHRec$[ebp+8], 18 ; 00000012H
  00116	e8 00 00 00 00	 call	 ??0AttackAttribute@@QAE@XZ ; AttackAttribute::AttackAttribute
  0011b	c6 45 fc 13	 mov	 BYTE PTR __$EHRec$[ebp+8], 19 ; 00000013H
  0011f	8d 8e 9c 11 00
	00		 lea	 ecx, DWORD PTR [esi+4508]
  00125	e8 00 00 00 00	 call	 ??0AttackAttribute@@QAE@XZ ; AttackAttribute::AttackAttribute

; 9    : 	ClearData();

  0012a	8b ce		 mov	 ecx, esi
  0012c	c6 45 fc 14	 mov	 BYTE PTR __$EHRec$[ebp+8], 20 ; 00000014H
  00130	e8 00 00 00 00	 call	 ?ClearData@ioRangeTargetShotSkill@@IAEXXZ ; ioRangeTargetShotSkill::ClearData

; 10   : }

  00135	8b c6		 mov	 eax, esi
  00137	e8 00 00 00 00	 call	 __EH_epilog3
  0013c	c3		 ret	 0
_TEXT	ENDS
;	COMDAT text$x
text$x	SEGMENT
__unwindfunclet$??0ioRangeTargetShotSkill@@QAE@XZ$0:
  00000	8b 4d f0	 mov	 ecx, DWORD PTR _this$[ebp]
  00003	e9 00 00 00 00	 jmp	 ??1ioNormalSkill@@UAE@XZ ; ioNormalSkill::~ioNormalSkill
__unwindfunclet$??0ioRangeTargetShotSkill@@QAE@XZ$1:
  00008	8b 4d f0	 mov	 ecx, DWORD PTR _this$[ebp]
  0000b	81 c1 5c 0f 00
	00		 add	 ecx, 3932		; 00000f5cH
  00011	ff 25 00 00 00
	00		 jmp	 DWORD PTR __imp_??1ioHashString@@QAE@XZ
__unwindfunclet$??0ioRangeTargetShotSkill@@QAE@XZ$2:
  00017	8b 4d f0	 mov	 ecx, DWORD PTR _this$[ebp]
  0001a	81 c1 6c 0f 00
	00		 add	 ecx, 3948		; 00000f6cH
  00020	ff 25 00 00 00
	00		 jmp	 DWORD PTR __imp_??1ioHashString@@QAE@XZ
__unwindfunclet$??0ioRangeTargetShotSkill@@QAE@XZ$3:
  00026	8b 4d f0	 mov	 ecx, DWORD PTR _this$[ebp]
  00029	81 c1 7c 0f 00
	00		 add	 ecx, 3964		; 00000f7cH
  0002f	ff 25 00 00 00
	00		 jmp	 DWORD PTR __imp_??1ioHashString@@QAE@XZ
__unwindfunclet$??0ioRangeTargetShotSkill@@QAE@XZ$4:
  00035	8b 4d f0	 mov	 ecx, DWORD PTR _this$[ebp]
  00038	81 c1 8c 0f 00
	00		 add	 ecx, 3980		; 00000f8cH
  0003e	ff 25 00 00 00
	00		 jmp	 DWORD PTR __imp_??1ioHashString@@QAE@XZ
__unwindfunclet$??0ioRangeTargetShotSkill@@QAE@XZ$5:
  00044	8b 4d f0	 mov	 ecx, DWORD PTR _this$[ebp]
  00047	81 c1 9c 0f 00
	00		 add	 ecx, 3996		; 00000f9cH
  0004d	ff 25 00 00 00
	00		 jmp	 DWORD PTR __imp_??1ioHashString@@QAE@XZ
__unwindfunclet$??0ioRangeTargetShotSkill@@QAE@XZ$6:
  00053	8b 4d f0	 mov	 ecx, DWORD PTR _this$[ebp]
  00056	81 c1 ac 0f 00
	00		 add	 ecx, 4012		; 00000facH
  0005c	ff 25 00 00 00
	00		 jmp	 DWORD PTR __imp_??1ioHashString@@QAE@XZ
__unwindfunclet$??0ioRangeTargetShotSkill@@QAE@XZ$7:
  00062	8b 4d f0	 mov	 ecx, DWORD PTR _this$[ebp]
  00065	81 c1 bc 0f 00
	00		 add	 ecx, 4028		; 00000fbcH
  0006b	ff 25 00 00 00
	00		 jmp	 DWORD PTR __imp_??1ioHashString@@QAE@XZ
__unwindfunclet$??0ioRangeTargetShotSkill@@QAE@XZ$8:
  00071	8b 4d f0	 mov	 ecx, DWORD PTR _this$[ebp]
  00074	81 c1 cc 0f 00
	00		 add	 ecx, 4044		; 00000fccH
  0007a	ff 25 00 00 00
	00		 jmp	 DWORD PTR __imp_??1ioHashString@@QAE@XZ
__unwindfunclet$??0ioRangeTargetShotSkill@@QAE@XZ$9:
  00080	8b 4d f0	 mov	 ecx, DWORD PTR _this$[ebp]
  00083	81 c1 dc 0f 00
	00		 add	 ecx, 4060		; 00000fdcH
  00089	ff 25 00 00 00
	00		 jmp	 DWORD PTR __imp_??1ioHashString@@QAE@XZ
__unwindfunclet$??0ioRangeTargetShotSkill@@QAE@XZ$10:
  0008f	8b 4d f0	 mov	 ecx, DWORD PTR _this$[ebp]
  00092	81 c1 ec 0f 00
	00		 add	 ecx, 4076		; 00000fecH
  00098	ff 25 00 00 00
	00		 jmp	 DWORD PTR __imp_??1ioHashString@@QAE@XZ
__unwindfunclet$??0ioRangeTargetShotSkill@@QAE@XZ$11:
  0009e	8b 4d f0	 mov	 ecx, DWORD PTR _this$[ebp]
  000a1	81 c1 00 10 00
	00		 add	 ecx, 4096		; 00001000H
  000a7	ff 25 00 00 00
	00		 jmp	 DWORD PTR __imp_??1ioHashString@@QAE@XZ
__unwindfunclet$??0ioRangeTargetShotSkill@@QAE@XZ$12:
  000ad	8b 4d f0	 mov	 ecx, DWORD PTR _this$[ebp]
  000b0	81 c1 10 10 00
	00		 add	 ecx, 4112		; 00001010H
  000b6	ff 25 00 00 00
	00		 jmp	 DWORD PTR __imp_??1ioHashString@@QAE@XZ
__unwindfunclet$??0ioRangeTargetShotSkill@@QAE@XZ$13:
  000bc	8b 4d f0	 mov	 ecx, DWORD PTR _this$[ebp]
  000bf	81 c1 28 10 00
	00		 add	 ecx, 4136		; 00001028H
  000c5	e9 00 00 00 00	 jmp	 ??1?$CEncrypt@M@@UAE@XZ	; CEncrypt<float>::~CEncrypt<float>
__unwindfunclet$??0ioRangeTargetShotSkill@@QAE@XZ$14:
  000ca	8b 4d f0	 mov	 ecx, DWORD PTR _this$[ebp]
  000cd	81 c1 58 10 00
	00		 add	 ecx, 4184		; 00001058H
  000d3	e9 00 00 00 00	 jmp	 ??1?$CEncrypt@M@@UAE@XZ	; CEncrypt<float>::~CEncrypt<float>
__unwindfunclet$??0ioRangeTargetShotSkill@@QAE@XZ$15:
  000d8	8b 4d f0	 mov	 ecx, DWORD PTR _this$[ebp]
  000db	81 c1 88 10 00
	00		 add	 ecx, 4232		; 00001088H
  000e1	e9 00 00 00 00	 jmp	 ??1?$CEncrypt@M@@UAE@XZ	; CEncrypt<float>::~CEncrypt<float>
__unwindfunclet$??0ioRangeTargetShotSkill@@QAE@XZ$16:
  000e6	8b 4d f0	 mov	 ecx, DWORD PTR _this$[ebp]
  000e9	81 c1 b8 10 00
	00		 add	 ecx, 4280		; 000010b8H
  000ef	e9 00 00 00 00	 jmp	 ??1?$CEncrypt@M@@UAE@XZ	; CEncrypt<float>::~CEncrypt<float>
__unwindfunclet$??0ioRangeTargetShotSkill@@QAE@XZ$17:
  000f4	8b 4d f0	 mov	 ecx, DWORD PTR _this$[ebp]
  000f7	81 c1 e8 10 00
	00		 add	 ecx, 4328		; 000010e8H
  000fd	e9 00 00 00 00	 jmp	 ??1?$CEncrypt@M@@UAE@XZ	; CEncrypt<float>::~CEncrypt<float>
__unwindfunclet$??0ioRangeTargetShotSkill@@QAE@XZ$18:
  00102	8b 4d f0	 mov	 ecx, DWORD PTR _this$[ebp]
  00105	81 c1 18 11 00
	00		 add	 ecx, 4376		; 00001118H
  0010b	e9 00 00 00 00	 jmp	 ??1?$CEncrypt@M@@UAE@XZ	; CEncrypt<float>::~CEncrypt<float>
__unwindfunclet$??0ioRangeTargetShotSkill@@QAE@XZ$19:
  00110	8b 4d f0	 mov	 ecx, DWORD PTR _this$[ebp]
  00113	81 c1 4c 11 00
	00		 add	 ecx, 4428		; 0000114cH
  00119	e9 00 00 00 00	 jmp	 ??1AttackAttribute@@QAE@XZ
__unwindfunclet$??0ioRangeTargetShotSkill@@QAE@XZ$20:
  0011e	8b 4d f0	 mov	 ecx, DWORD PTR _this$[ebp]
  00121	81 c1 9c 11 00
	00		 add	 ecx, 4508		; 0000119cH
  00127	e9 00 00 00 00	 jmp	 ??1AttackAttribute@@QAE@XZ
__ehhandler$??0ioRangeTargetShotSkill@@QAE@XZ:
  0012c	8b 54 24 08	 mov	 edx, DWORD PTR [esp+8]
  00130	8d 42 0c	 lea	 eax, DWORD PTR [edx+12]
  00133	8b 4a ec	 mov	 ecx, DWORD PTR [edx-20]
  00136	33 c8		 xor	 ecx, eax
  00138	e8 00 00 00 00	 call	 @__security_check_cookie@4
  0013d	b8 00 00 00 00	 mov	 eax, OFFSET __ehfuncinfo$??0ioRangeTargetShotSkill@@QAE@XZ
  00142	e9 00 00 00 00	 jmp	 ___CxxFrameHandler3
text$x	ENDS
??0ioRangeTargetShotSkill@@QAE@XZ ENDP			; ioRangeTargetShotSkill::ioRangeTargetShotSkill
; Function compile flags: /Ogsp
; File d:\lost saga for developer\youtube\tutorial\source\src\lsclient\ioskill.h
;	COMDAT ?GetDefenseSkillBreakeType@ioSkill@@UBE?AW4DefenseBreakType@@XZ
_TEXT	SEGMENT
?GetDefenseSkillBreakeType@ioSkill@@UBE?AW4DefenseBreakType@@XZ PROC ; ioSkill::GetDefenseSkillBreakeType, COMDAT
; _this$ = ecx

; 327  : 	virtual DefenseBreakType GetDefenseSkillBreakeType() const { return m_eDefenseSkillBreakType; }

  00000	8b 81 30 0e 00
	00		 mov	 eax, DWORD PTR [ecx+3632]
  00006	c3		 ret	 0
?GetDefenseSkillBreakeType@ioSkill@@UBE?AW4DefenseBreakType@@XZ ENDP ; ioSkill::GetDefenseSkillBreakeType
; Function compile flags: /Ogsp
_TEXT	ENDS
;	COMDAT ?GetSkillEndNextJumpAmt@ioSkill@@UBEMXZ
_TEXT	SEGMENT
?GetSkillEndNextJumpAmt@ioSkill@@UBEMXZ PROC		; ioSkill::GetSkillEndNextJumpAmt, COMDAT
; _this$ = ecx

; 335  : 	virtual float GetSkillEndNextJumpAmt() const { return m_fSkillEndNextJumpAmt; }

  00000	d9 81 4c 05 00
	00		 fld	 DWORD PTR [ecx+1356]
  00006	c3		 ret	 0
?GetSkillEndNextJumpAmt@ioSkill@@UBEMXZ ENDP		; ioSkill::GetSkillEndNextJumpAmt
; Function compile flags: /Ogsp
_TEXT	ENDS
;	COMDAT ?GetSkillEndNextLandRate@ioSkill@@UBEMXZ
_TEXT	SEGMENT
?GetSkillEndNextLandRate@ioSkill@@UBEMXZ PROC		; ioSkill::GetSkillEndNextLandRate, COMDAT
; _this$ = ecx

; 336  : 	virtual float GetSkillEndNextLandRate() const { return m_fSkillEndNextLandRate; }

  00000	d9 81 50 05 00
	00		 fld	 DWORD PTR [ecx+1360]
  00006	c3		 ret	 0
?GetSkillEndNextLandRate@ioSkill@@UBEMXZ ENDP		; ioSkill::GetSkillEndNextLandRate
; Function compile flags: /Ogsp
_TEXT	ENDS
;	COMDAT ?GetSkillEndNextJumpMustEnable@ioSkill@@UAE?AW4SkillEndJumpType@@XZ
_TEXT	SEGMENT
?GetSkillEndNextJumpMustEnable@ioSkill@@UAE?AW4SkillEndJumpType@@XZ PROC ; ioSkill::GetSkillEndNextJumpMustEnable, COMDAT
; _this$ = ecx

; 337  : 	virtual SkillEndJumpType GetSkillEndNextJumpMustEnable(){ return SEJT_DEFAULT; }

  00000	33 c0		 xor	 eax, eax
  00002	c3		 ret	 0
?GetSkillEndNextJumpMustEnable@ioSkill@@UAE?AW4SkillEndJumpType@@XZ ENDP ; ioSkill::GetSkillEndNextJumpMustEnable
; Function compile flags: /Ogsp
_TEXT	ENDS
;	COMDAT ?EnableChangeGrapplingTargetPos@ioSkill@@UBE_NXZ
_TEXT	SEGMENT
?EnableChangeGrapplingTargetPos@ioSkill@@UBE_NXZ PROC	; ioSkill::EnableChangeGrapplingTargetPos, COMDAT
; _this$ = ecx

; 355  : 	virtual bool EnableChangeGrapplingTargetPos() const { return m_bChangeGrapplingTargetPos; }

  00000	8a 81 40 09 00
	00		 mov	 al, BYTE PTR [ecx+2368]
  00006	c3		 ret	 0
?EnableChangeGrapplingTargetPos@ioSkill@@UBE_NXZ ENDP	; ioSkill::EnableChangeGrapplingTargetPos
; Function compile flags: /Ogsp
_TEXT	ENDS
;	COMDAT ?IsInvisibleBottomCircle@ioSkill@@UAE_NPAVioBaseChar@@@Z
_TEXT	SEGMENT
_pChar$ = 8						; size = 4
?IsInvisibleBottomCircle@ioSkill@@UAE_NPAVioBaseChar@@@Z PROC ; ioSkill::IsInvisibleBottomCircle, COMDAT
; _this$ = ecx

; 393  : 	virtual bool IsInvisibleBottomCircle( ioBaseChar *pChar ) { return false; }

  00000	32 c0		 xor	 al, al
  00002	c2 04 00	 ret	 4
?IsInvisibleBottomCircle@ioSkill@@UAE_NPAVioBaseChar@@@Z ENDP ; ioSkill::IsInvisibleBottomCircle
; Function compile flags: /Ogsp
_TEXT	ENDS
;	COMDAT ?IsUseActiveCnt@ioSkill@@UBE_NXZ
_TEXT	SEGMENT
?IsUseActiveCnt@ioSkill@@UBE_NXZ PROC			; ioSkill::IsUseActiveCnt, COMDAT
; _this$ = ecx

; 544  : 	virtual bool IsUseActiveCnt() const { return false; }

  00000	32 c0		 xor	 al, al
  00002	c3		 ret	 0
?IsUseActiveCnt@ioSkill@@UBE_NXZ ENDP			; ioSkill::IsUseActiveCnt
; Function compile flags: /Ogsp
_TEXT	ENDS
;	COMDAT ?GetMaxActiveCnt@ioSkill@@UBEHPAVioBaseChar@@@Z
_TEXT	SEGMENT
_pChar$ = 8						; size = 4
?GetMaxActiveCnt@ioSkill@@UBEHPAVioBaseChar@@@Z PROC	; ioSkill::GetMaxActiveCnt, COMDAT
; _this$ = ecx

; 545  : 	virtual int GetMaxActiveCnt( ioBaseChar *pChar ) const { return 0; }

  00000	33 c0		 xor	 eax, eax
  00002	c2 04 00	 ret	 4
?GetMaxActiveCnt@ioSkill@@UBEHPAVioBaseChar@@@Z ENDP	; ioSkill::GetMaxActiveCnt
; Function compile flags: /Ogsp
_TEXT	ENDS
;	COMDAT ?GetCurActiveCnt@ioSkill@@UBEHPAVioBaseChar@@@Z
_TEXT	SEGMENT
_pChar$ = 8						; size = 4
?GetCurActiveCnt@ioSkill@@UBEHPAVioBaseChar@@@Z PROC	; ioSkill::GetCurActiveCnt, COMDAT
; _this$ = ecx

; 546  : 	virtual int GetCurActiveCnt( ioBaseChar *pChar ) const { return 0; }

  00000	33 c0		 xor	 eax, eax
  00002	c2 04 00	 ret	 4
?GetCurActiveCnt@ioSkill@@UBEHPAVioBaseChar@@@Z ENDP	; ioSkill::GetCurActiveCnt
_TEXT	ENDS
PUBLIC	?DecryptValueToPool@?$CEncrypt@_N@@QAEXPA_N@Z	; CEncrypt<bool>::DecryptValueToPool
; Function compile flags: /Ogsp
; File d:\lost saga for developer\youtube\tutorial\source\src\lsclient\encryptvalue.h
;	COMDAT ?DecryptValueToPool@?$CEncrypt@_N@@QAEXPA_N@Z
_TEXT	SEGMENT
_value$ = 8						; size = 4
?DecryptValueToPool@?$CEncrypt@_N@@QAEXPA_N@Z PROC	; CEncrypt<bool>::DecryptValueToPool, COMDAT
; _this$ = ecx

; 219  : 	{

  00000	55		 push	 ebp
  00001	8b ec		 mov	 ebp, esp
  00003	56		 push	 esi

; 220  : 		m_RC5.DecryptByte( m_MemPool, m_TempMem, 4 );

  00004	8d 71 28	 lea	 esi, DWORD PTR [ecx+40]
  00007	6a 04		 push	 4
  00009	8d 41 1c	 lea	 eax, DWORD PTR [ecx+28]
  0000c	56		 push	 esi
  0000d	50		 push	 eax
  0000e	83 c1 0c	 add	 ecx, 12			; 0000000cH
  00011	e8 00 00 00 00	 call	 ?DecryptByte@ccddaabb@@QBEXPBDPADH@Z ; ccddaabb::DecryptByte

; 221  : 		*value = *((bool*)m_TempMem);

  00016	8a 06		 mov	 al, BYTE PTR [esi]
  00018	8b 4d 08	 mov	 ecx, DWORD PTR _value$[ebp]
  0001b	88 01		 mov	 BYTE PTR [ecx], al
  0001d	5e		 pop	 esi

; 222  : 	}

  0001e	5d		 pop	 ebp
  0001f	c2 04 00	 ret	 4
?DecryptValueToPool@?$CEncrypt@_N@@QAEXPA_N@Z ENDP	; CEncrypt<bool>::DecryptValueToPool
_TEXT	ENDS
PUBLIC	??B?$CEncrypt@_N@@QBE_NXZ			; CEncrypt<bool>::operator bool
; Function compile flags: /Ogsp
;	COMDAT ??B?$CEncrypt@_N@@QBE_NXZ
_TEXT	SEGMENT
_value$ = -1						; size = 1
??B?$CEncrypt@_N@@QBE_NXZ PROC				; CEncrypt<bool>::operator bool, COMDAT
; _this$ = ecx

; 145  : 	{

  00000	55		 push	 ebp
  00001	8b ec		 mov	 ebp, esp
  00003	51		 push	 ecx

; 146  : 		//UJ 130829, const    --start
; 147  : 		type value;
; 148  : 		CEncrypt<type>* pThis = const_cast<CEncrypt<type>*>(this);
; 149  : 		pThis->DecryptValueToPool(&value);

  00004	8d 45 ff	 lea	 eax, DWORD PTR _value$[ebp]
  00007	50		 push	 eax
  00008	e8 00 00 00 00	 call	 ?DecryptValueToPool@?$CEncrypt@_N@@QAEXPA_N@Z ; CEncrypt<bool>::DecryptValueToPool

; 150  : 		//// const DecryptValueToPool     .
; 151  :  		//type value;
; 152  : 		//char szTempMem[MAX_ENCRYPT];
; 153  : 		//m_RC5.DecryptByte( m_MemPool, szTempMem, max(m_ValueSize, DEFAULT_ENCRYPT) );
; 154  : 		//memcpy( &value, szTempMem, m_ValueSize );
; 155  : 		//UJ --end
; 156  : 
; 157  : #ifdef _NOTUSE
; 158  : 		Debug();
; 159  : #endif
; 160  : 		return value;

  0000d	8a 45 ff	 mov	 al, BYTE PTR _value$[ebp]

; 161  : 	}

  00010	c9		 leave
  00011	c3		 ret	 0
??B?$CEncrypt@_N@@QBE_NXZ ENDP				; CEncrypt<bool>::operator bool
; Function compile flags: /Ogsp
; File d:\lost saga for developer\youtube\tutorial\source\src\lsclient\ioskill.h
_TEXT	ENDS
;	COMDAT ?IsCanJumpingSkill@ioSkill@@UBE_NXZ
_TEXT	SEGMENT
_value$541151 = -1					; size = 1
?IsCanJumpingSkill@ioSkill@@UBE_NXZ PROC		; ioSkill::IsCanJumpingSkill, COMDAT
; _this$ = ecx

; 431  : 	virtual bool IsCanJumpingSkill() const { return m_bEnableJumpingSkill; }

  00000	55		 push	 ebp
  00001	8b ec		 mov	 ebp, esp
  00003	51		 push	 ecx
  00004	8d 45 ff	 lea	 eax, DWORD PTR _value$541151[ebp]
  00007	50		 push	 eax
  00008	81 c1 9c 03 00
	00		 add	 ecx, 924		; 0000039cH
  0000e	e8 00 00 00 00	 call	 ?DecryptValueToPool@?$CEncrypt@_N@@QAEXPA_N@Z ; CEncrypt<bool>::DecryptValueToPool
  00013	8a 45 ff	 mov	 al, BYTE PTR _value$541151[ebp]
  00016	c9		 leave
  00017	c3		 ret	 0
?IsCanJumpingSkill@ioSkill@@UBE_NXZ ENDP		; ioSkill::IsCanJumpingSkill
; Function compile flags: /Ogsp
_TEXT	ENDS
;	COMDAT ?IsCanJumpingSkillOnBlowWound@ioSkill@@UBE_NXZ
_TEXT	SEGMENT
_value$541158 = -1					; size = 1
?IsCanJumpingSkillOnBlowWound@ioSkill@@UBE_NXZ PROC	; ioSkill::IsCanJumpingSkillOnBlowWound, COMDAT
; _this$ = ecx

; 432  : 	virtual bool IsCanJumpingSkillOnBlowWound() const { return m_bEnableJumpingSkillOnBlowWound; }

  00000	55		 push	 ebp
  00001	8b ec		 mov	 ebp, esp
  00003	51		 push	 ecx
  00004	8d 45 ff	 lea	 eax, DWORD PTR _value$541158[ebp]
  00007	50		 push	 eax
  00008	81 c1 cc 03 00
	00		 add	 ecx, 972		; 000003ccH
  0000e	e8 00 00 00 00	 call	 ?DecryptValueToPool@?$CEncrypt@_N@@QAEXPA_N@Z ; CEncrypt<bool>::DecryptValueToPool
  00013	8a 45 ff	 mov	 al, BYTE PTR _value$541158[ebp]
  00016	c9		 leave
  00017	c3		 ret	 0
?IsCanJumpingSkillOnBlowWound@ioSkill@@UBE_NXZ ENDP	; ioSkill::IsCanJumpingSkillOnBlowWound
; Function compile flags: /Ogsp
_TEXT	ENDS
;	COMDAT ?IsCanDownSkill@ioSkill@@UBE_NXZ
_TEXT	SEGMENT
_value$541165 = -1					; size = 1
?IsCanDownSkill@ioSkill@@UBE_NXZ PROC			; ioSkill::IsCanDownSkill, COMDAT
; _this$ = ecx

; 437  : 	virtual bool IsCanDownSkill() const { return m_bEnableDownSkill; }

  00000	55		 push	 ebp
  00001	8b ec		 mov	 ebp, esp
  00003	51		 push	 ecx
  00004	8d 45 ff	 lea	 eax, DWORD PTR _value$541165[ebp]
  00007	50		 push	 eax
  00008	81 c1 5c 04 00
	00		 add	 ecx, 1116		; 0000045cH
  0000e	e8 00 00 00 00	 call	 ?DecryptValueToPool@?$CEncrypt@_N@@QAEXPA_N@Z ; CEncrypt<bool>::DecryptValueToPool
  00013	8a 45 ff	 mov	 al, BYTE PTR _value$541165[ebp]
  00016	c9		 leave
  00017	c3		 ret	 0
?IsCanDownSkill@ioSkill@@UBE_NXZ ENDP			; ioSkill::IsCanDownSkill
; Function compile flags: /Ogsp
_TEXT	ENDS
;	COMDAT ?IsCanBlowWoundSkill@ioSkill@@UBE_NXZ
_TEXT	SEGMENT
_value$541172 = -1					; size = 1
?IsCanBlowWoundSkill@ioSkill@@UBE_NXZ PROC		; ioSkill::IsCanBlowWoundSkill, COMDAT
; _this$ = ecx

; 440  : 	virtual bool IsCanBlowWoundSkill() const { return m_bEnableBlowWoundSkill; }

  00000	55		 push	 ebp
  00001	8b ec		 mov	 ebp, esp
  00003	51		 push	 ecx
  00004	8d 45 ff	 lea	 eax, DWORD PTR _value$541172[ebp]
  00007	50		 push	 eax
  00008	81 c1 8c 04 00
	00		 add	 ecx, 1164		; 0000048cH
  0000e	e8 00 00 00 00	 call	 ?DecryptValueToPool@?$CEncrypt@_N@@QAEXPA_N@Z ; CEncrypt<bool>::DecryptValueToPool
  00013	8a 45 ff	 mov	 al, BYTE PTR _value$541172[ebp]
  00016	c9		 leave
  00017	c3		 ret	 0
?IsCanBlowWoundSkill@ioSkill@@UBE_NXZ ENDP		; ioSkill::IsCanBlowWoundSkill
; Function compile flags: /Ogsp
_TEXT	ENDS
;	COMDAT ?IsCanWoundSkill@ioSkill@@UBE_NXZ
_TEXT	SEGMENT
_value$541179 = -1					; size = 1
?IsCanWoundSkill@ioSkill@@UBE_NXZ PROC			; ioSkill::IsCanWoundSkill, COMDAT
; _this$ = ecx

; 446  : 	virtual bool IsCanWoundSkill() const { return m_bEnableWoundSkill; }

  00000	55		 push	 ebp
  00001	8b ec		 mov	 ebp, esp
  00003	51		 push	 ecx
  00004	8d 45 ff	 lea	 eax, DWORD PTR _value$541179[ebp]
  00007	50		 push	 eax
  00008	81 c1 54 05 00
	00		 add	 ecx, 1364		; 00000554H
  0000e	e8 00 00 00 00	 call	 ?DecryptValueToPool@?$CEncrypt@_N@@QAEXPA_N@Z ; CEncrypt<bool>::DecryptValueToPool
  00013	8a 45 ff	 mov	 al, BYTE PTR _value$541179[ebp]
  00016	c9		 leave
  00017	c3		 ret	 0
?IsCanWoundSkill@ioSkill@@UBE_NXZ ENDP			; ioSkill::IsCanWoundSkill
_TEXT	ENDS
PUBLIC	??0ioRangeTargetShotSkill@@QAE@ABV0@@Z		; ioRangeTargetShotSkill::ioRangeTargetShotSkill
EXTRN	??0ioNormalSkill@@QAE@ABV0@@Z:PROC		; ioNormalSkill::ioNormalSkill
;	COMDAT xdata$x
; File c:\program files (x86)\microsoft directx sdk (june 2010)\include\d3dx9math.h
xdata$x	SEGMENT
__ehfuncinfo$??0ioRangeTargetShotSkill@@QAE@ABV0@@Z DD 019930522H
	DD	015H
	DD	FLAT:__unwindtable$??0ioRangeTargetShotSkill@@QAE@ABV0@@Z
	DD	2 DUP(00H)
	DD	2 DUP(00H)
	DD	00H
	DD	01H
__unwindtable$??0ioRangeTargetShotSkill@@QAE@ABV0@@Z DD 0ffffffffH
	DD	FLAT:__unwindfunclet$??0ioRangeTargetShotSkill@@QAE@ABV0@@Z$0
	DD	00H
	DD	FLAT:__unwindfunclet$??0ioRangeTargetShotSkill@@QAE@ABV0@@Z$1
	DD	01H
	DD	FLAT:__unwindfunclet$??0ioRangeTargetShotSkill@@QAE@ABV0@@Z$2
	DD	02H
	DD	FLAT:__unwindfunclet$??0ioRangeTargetShotSkill@@QAE@ABV0@@Z$3
	DD	03H
	DD	FLAT:__unwindfunclet$??0ioRangeTargetShotSkill@@QAE@ABV0@@Z$4
	DD	04H
	DD	FLAT:__unwindfunclet$??0ioRangeTargetShotSkill@@QAE@ABV0@@Z$5
	DD	05H
	DD	FLAT:__unwindfunclet$??0ioRangeTargetShotSkill@@QAE@ABV0@@Z$6
	DD	06H
	DD	FLAT:__unwindfunclet$??0ioRangeTargetShotSkill@@QAE@ABV0@@Z$7
	DD	07H
	DD	FLAT:__unwindfunclet$??0ioRangeTargetShotSkill@@QAE@ABV0@@Z$8
	DD	08H
	DD	FLAT:__unwindfunclet$??0ioRangeTargetShotSkill@@QAE@ABV0@@Z$9
	DD	09H
	DD	FLAT:__unwindfunclet$??0ioRangeTargetShotSkill@@QAE@ABV0@@Z$10
	DD	0aH
	DD	FLAT:__unwindfunclet$??0ioRangeTargetShotSkill@@QAE@ABV0@@Z$11
	DD	0bH
	DD	FLAT:__unwindfunclet$??0ioRangeTargetShotSkill@@QAE@ABV0@@Z$12
	DD	0cH
	DD	FLAT:__unwindfunclet$??0ioRangeTargetShotSkill@@QAE@ABV0@@Z$13
	DD	0dH
	DD	FLAT:__unwindfunclet$??0ioRangeTargetShotSkill@@QAE@ABV0@@Z$14
	DD	0eH
	DD	FLAT:__unwindfunclet$??0ioRangeTargetShotSkill@@QAE@ABV0@@Z$15
	DD	0fH
	DD	FLAT:__unwindfunclet$??0ioRangeTargetShotSkill@@QAE@ABV0@@Z$16
	DD	010H
	DD	FLAT:__unwindfunclet$??0ioRangeTargetShotSkill@@QAE@ABV0@@Z$17
	DD	011H
	DD	FLAT:__unwindfunclet$??0ioRangeTargetShotSkill@@QAE@ABV0@@Z$18
	DD	012H
	DD	FLAT:__unwindfunclet$??0ioRangeTargetShotSkill@@QAE@ABV0@@Z$19
	DD	013H
	DD	FLAT:__unwindfunclet$??0ioRangeTargetShotSkill@@QAE@ABV0@@Z$20
; Function compile flags: /Ogsp
; File d:\lost saga for developer\youtube\tutorial\source\src\lsclient\iorangetargetshotskill.cpp
xdata$x	ENDS
;	COMDAT ??0ioRangeTargetShotSkill@@QAE@ABV0@@Z
_TEXT	SEGMENT
_this$ = -16						; size = 4
__$EHRec$ = -12						; size = 12
_rhs$ = 8						; size = 4
??0ioRangeTargetShotSkill@@QAE@ABV0@@Z PROC		; ioRangeTargetShotSkill::ioRangeTargetShotSkill, COMDAT
; _this$ = ecx

; 34   : {

  00000	6a 04		 push	 4
  00002	b8 00 00 00 00	 mov	 eax, __ehhandler$??0ioRangeTargetShotSkill@@QAE@ABV0@@Z
  00007	e8 00 00 00 00	 call	 __EH_prolog3
  0000c	8b f1		 mov	 esi, ecx
  0000e	89 75 f0	 mov	 DWORD PTR _this$[ebp], esi
  00011	8b 7d 08	 mov	 edi, DWORD PTR _rhs$[ebp]
  00014	57		 push	 edi
  00015	e8 00 00 00 00	 call	 ??0ioNormalSkill@@QAE@ABV0@@Z ; ioNormalSkill::ioNormalSkill
  0001a	8b 1d 00 00 00
	00		 mov	 ebx, DWORD PTR __imp_??0ioHashString@@QAE@XZ
  00020	83 65 fc 00	 and	 DWORD PTR __$EHRec$[ebp+8], 0
  00024	8d 8e 5c 0f 00
	00		 lea	 ecx, DWORD PTR [esi+3932]
  0002a	c7 06 00 00 00
	00		 mov	 DWORD PTR [esi], OFFSET ??_7ioRangeTargetShotSkill@@6B@
  00030	ff d3		 call	 ebx
  00032	8d 8e 6c 0f 00
	00		 lea	 ecx, DWORD PTR [esi+3948]
  00038	c6 45 fc 01	 mov	 BYTE PTR __$EHRec$[ebp+8], 1
  0003c	ff d3		 call	 ebx
  0003e	8d 8e 7c 0f 00
	00		 lea	 ecx, DWORD PTR [esi+3964]
  00044	c6 45 fc 02	 mov	 BYTE PTR __$EHRec$[ebp+8], 2
  00048	ff d3		 call	 ebx
  0004a	8d 8e 8c 0f 00
	00		 lea	 ecx, DWORD PTR [esi+3980]
  00050	c6 45 fc 03	 mov	 BYTE PTR __$EHRec$[ebp+8], 3
  00054	ff d3		 call	 ebx
  00056	8b 1d 00 00 00
	00		 mov	 ebx, DWORD PTR __imp_??0ioHashString@@QAE@ABV0@@Z
  0005c	8d 87 9c 0f 00
	00		 lea	 eax, DWORD PTR [edi+3996]
  00062	50		 push	 eax
  00063	8d 8e 9c 0f 00
	00		 lea	 ecx, DWORD PTR [esi+3996]
  00069	c6 45 fc 04	 mov	 BYTE PTR __$EHRec$[ebp+8], 4
  0006d	ff d3		 call	 ebx
  0006f	8d 87 ac 0f 00
	00		 lea	 eax, DWORD PTR [edi+4012]
  00075	50		 push	 eax
  00076	8d 8e ac 0f 00
	00		 lea	 ecx, DWORD PTR [esi+4012]
  0007c	c6 45 fc 05	 mov	 BYTE PTR __$EHRec$[ebp+8], 5
  00080	ff d3		 call	 ebx
  00082	8d 87 bc 0f 00
	00		 lea	 eax, DWORD PTR [edi+4028]
  00088	50		 push	 eax
  00089	8d 8e bc 0f 00
	00		 lea	 ecx, DWORD PTR [esi+4028]
  0008f	c6 45 fc 06	 mov	 BYTE PTR __$EHRec$[ebp+8], 6
  00093	ff d3		 call	 ebx
  00095	8d 87 cc 0f 00
	00		 lea	 eax, DWORD PTR [edi+4044]
  0009b	50		 push	 eax
  0009c	8d 8e cc 0f 00
	00		 lea	 ecx, DWORD PTR [esi+4044]
  000a2	c6 45 fc 07	 mov	 BYTE PTR __$EHRec$[ebp+8], 7
  000a6	ff d3		 call	 ebx
  000a8	8d 87 dc 0f 00
	00		 lea	 eax, DWORD PTR [edi+4060]
  000ae	50		 push	 eax
  000af	8d 8e dc 0f 00
	00		 lea	 ecx, DWORD PTR [esi+4060]
  000b5	c6 45 fc 08	 mov	 BYTE PTR __$EHRec$[ebp+8], 8
  000b9	ff d3		 call	 ebx
  000bb	8d 87 ec 0f 00
	00		 lea	 eax, DWORD PTR [edi+4076]
  000c1	50		 push	 eax
  000c2	8d 8e ec 0f 00
	00		 lea	 ecx, DWORD PTR [esi+4076]
  000c8	c6 45 fc 09	 mov	 BYTE PTR __$EHRec$[ebp+8], 9
  000cc	ff d3		 call	 ebx
  000ce	8d 87 00 10 00
	00		 lea	 eax, DWORD PTR [edi+4096]
  000d4	50		 push	 eax
  000d5	8d 8e 00 10 00
	00		 lea	 ecx, DWORD PTR [esi+4096]
  000db	c6 45 fc 0a	 mov	 BYTE PTR __$EHRec$[ebp+8], 10 ; 0000000aH
  000df	ff d3		 call	 ebx
  000e1	8d 87 10 10 00
	00		 lea	 eax, DWORD PTR [edi+4112]
  000e7	50		 push	 eax
  000e8	8d 8e 10 10 00
	00		 lea	 ecx, DWORD PTR [esi+4112]
  000ee	c6 45 fc 0b	 mov	 BYTE PTR __$EHRec$[ebp+8], 11 ; 0000000bH
  000f2	ff d3		 call	 ebx
  000f4	8b 87 24 10 00
	00		 mov	 eax, DWORD PTR [edi+4132]
  000fa	89 86 24 10 00
	00		 mov	 DWORD PTR [esi+4132], eax
  00100	8d 87 28 10 00
	00		 lea	 eax, DWORD PTR [edi+4136]
  00106	50		 push	 eax
  00107	8d 8e 28 10 00
	00		 lea	 ecx, DWORD PTR [esi+4136]
  0010d	c6 45 fc 0c	 mov	 BYTE PTR __$EHRec$[ebp+8], 12 ; 0000000cH
  00111	e8 00 00 00 00	 call	 ??0?$CEncrypt@M@@QAE@ABV0@@Z ; CEncrypt<float>::CEncrypt<float>
  00116	c6 45 fc 0d	 mov	 BYTE PTR __$EHRec$[ebp+8], 13 ; 0000000dH
  0011a	8d 87 58 10 00
	00		 lea	 eax, DWORD PTR [edi+4184]
  00120	50		 push	 eax
  00121	8d 8e 58 10 00
	00		 lea	 ecx, DWORD PTR [esi+4184]
  00127	e8 00 00 00 00	 call	 ??0?$CEncrypt@M@@QAE@ABV0@@Z ; CEncrypt<float>::CEncrypt<float>
  0012c	8d 87 88 10 00
	00		 lea	 eax, DWORD PTR [edi+4232]
  00132	50		 push	 eax
  00133	8d 8e 88 10 00
	00		 lea	 ecx, DWORD PTR [esi+4232]
  00139	c6 45 fc 0e	 mov	 BYTE PTR __$EHRec$[ebp+8], 14 ; 0000000eH
  0013d	e8 00 00 00 00	 call	 ??0?$CEncrypt@M@@QAE@ABV0@@Z ; CEncrypt<float>::CEncrypt<float>
  00142	8d 87 b8 10 00
	00		 lea	 eax, DWORD PTR [edi+4280]
  00148	50		 push	 eax
  00149	8d 8e b8 10 00
	00		 lea	 ecx, DWORD PTR [esi+4280]
  0014f	c6 45 fc 0f	 mov	 BYTE PTR __$EHRec$[ebp+8], 15 ; 0000000fH
  00153	e8 00 00 00 00	 call	 ??0?$CEncrypt@M@@QAE@ABV0@@Z ; CEncrypt<float>::CEncrypt<float>
  00158	8d 87 e8 10 00
	00		 lea	 eax, DWORD PTR [edi+4328]
  0015e	50		 push	 eax
  0015f	8d 8e e8 10 00
	00		 lea	 ecx, DWORD PTR [esi+4328]
  00165	c6 45 fc 10	 mov	 BYTE PTR __$EHRec$[ebp+8], 16 ; 00000010H
  00169	e8 00 00 00 00	 call	 ??0?$CEncrypt@M@@QAE@ABV0@@Z ; CEncrypt<float>::CEncrypt<float>
  0016e	8d 87 18 11 00
	00		 lea	 eax, DWORD PTR [edi+4376]
  00174	50		 push	 eax
  00175	8d 8e 18 11 00
	00		 lea	 ecx, DWORD PTR [esi+4376]
  0017b	c6 45 fc 11	 mov	 BYTE PTR __$EHRec$[ebp+8], 17 ; 00000011H
  0017f	e8 00 00 00 00	 call	 ??0?$CEncrypt@M@@QAE@ABV0@@Z ; CEncrypt<float>::CEncrypt<float>
  00184	8d 87 4c 11 00
	00		 lea	 eax, DWORD PTR [edi+4428]
  0018a	50		 push	 eax
  0018b	8d 8e 4c 11 00
	00		 lea	 ecx, DWORD PTR [esi+4428]
  00191	c6 45 fc 12	 mov	 BYTE PTR __$EHRec$[ebp+8], 18 ; 00000012H
  00195	e8 00 00 00 00	 call	 ??0AttackAttribute@@QAE@ABU0@@Z
  0019a	8d 87 9c 11 00
	00		 lea	 eax, DWORD PTR [edi+4508]
  001a0	50		 push	 eax
  001a1	8d 8e 9c 11 00
	00		 lea	 ecx, DWORD PTR [esi+4508]
  001a7	c6 45 fc 13	 mov	 BYTE PTR __$EHRec$[ebp+8], 19 ; 00000013H
  001ab	e8 00 00 00 00	 call	 ??0AttackAttribute@@QAE@ABU0@@Z
  001b0	8b 87 ec 11 00
	00		 mov	 eax, DWORD PTR [edi+4588]
  001b6	89 86 ec 11 00
	00		 mov	 DWORD PTR [esi+4588], eax
  001bc	8a 87 fc 11 00
	00		 mov	 al, BYTE PTR [edi+4604]
  001c2	88 86 fc 11 00
	00		 mov	 BYTE PTR [esi+4604], al
  001c8	d9 87 00 12 00
	00		 fld	 DWORD PTR [edi+4608]

; 35   : 	ClearData();

  001ce	8b ce		 mov	 ecx, esi
  001d0	d9 9e 00 12 00
	00		 fstp	 DWORD PTR [esi+4608]
  001d6	c6 45 fc 14	 mov	 BYTE PTR __$EHRec$[ebp+8], 20 ; 00000014H
  001da	e8 00 00 00 00	 call	 ?ClearData@ioRangeTargetShotSkill@@IAEXXZ ; ioRangeTargetShotSkill::ClearData

; 36   : }

  001df	8b c6		 mov	 eax, esi
  001e1	e8 00 00 00 00	 call	 __EH_epilog3
  001e6	c2 04 00	 ret	 4
_TEXT	ENDS
;	COMDAT text$x
text$x	SEGMENT
__unwindfunclet$??0ioRangeTargetShotSkill@@QAE@ABV0@@Z$0:
  00000	8b 4d f0	 mov	 ecx, DWORD PTR _this$[ebp]
  00003	e9 00 00 00 00	 jmp	 ??1ioNormalSkill@@UAE@XZ ; ioNormalSkill::~ioNormalSkill
__unwindfunclet$??0ioRangeTargetShotSkill@@QAE@ABV0@@Z$1:
  00008	8b 4d f0	 mov	 ecx, DWORD PTR _this$[ebp]
  0000b	81 c1 5c 0f 00
	00		 add	 ecx, 3932		; 00000f5cH
  00011	ff 25 00 00 00
	00		 jmp	 DWORD PTR __imp_??1ioHashString@@QAE@XZ
__unwindfunclet$??0ioRangeTargetShotSkill@@QAE@ABV0@@Z$2:
  00017	8b 4d f0	 mov	 ecx, DWORD PTR _this$[ebp]
  0001a	81 c1 6c 0f 00
	00		 add	 ecx, 3948		; 00000f6cH
  00020	ff 25 00 00 00
	00		 jmp	 DWORD PTR __imp_??1ioHashString@@QAE@XZ
__unwindfunclet$??0ioRangeTargetShotSkill@@QAE@ABV0@@Z$3:
  00026	8b 4d f0	 mov	 ecx, DWORD PTR _this$[ebp]
  00029	81 c1 7c 0f 00
	00		 add	 ecx, 3964		; 00000f7cH
  0002f	ff 25 00 00 00
	00		 jmp	 DWORD PTR __imp_??1ioHashString@@QAE@XZ
__unwindfunclet$??0ioRangeTargetShotSkill@@QAE@ABV0@@Z$4:
  00035	8b 4d f0	 mov	 ecx, DWORD PTR _this$[ebp]
  00038	81 c1 8c 0f 00
	00		 add	 ecx, 3980		; 00000f8cH
  0003e	ff 25 00 00 00
	00		 jmp	 DWORD PTR __imp_??1ioHashString@@QAE@XZ
__unwindfunclet$??0ioRangeTargetShotSkill@@QAE@ABV0@@Z$5:
  00044	8b 4d f0	 mov	 ecx, DWORD PTR _this$[ebp]
  00047	81 c1 9c 0f 00
	00		 add	 ecx, 3996		; 00000f9cH
  0004d	ff 25 00 00 00
	00		 jmp	 DWORD PTR __imp_??1ioHashString@@QAE@XZ
__unwindfunclet$??0ioRangeTargetShotSkill@@QAE@ABV0@@Z$6:
  00053	8b 4d f0	 mov	 ecx, DWORD PTR _this$[ebp]
  00056	81 c1 ac 0f 00
	00		 add	 ecx, 4012		; 00000facH
  0005c	ff 25 00 00 00
	00		 jmp	 DWORD PTR __imp_??1ioHashString@@QAE@XZ
__unwindfunclet$??0ioRangeTargetShotSkill@@QAE@ABV0@@Z$7:
  00062	8b 4d f0	 mov	 ecx, DWORD PTR _this$[ebp]
  00065	81 c1 bc 0f 00
	00		 add	 ecx, 4028		; 00000fbcH
  0006b	ff 25 00 00 00
	00		 jmp	 DWORD PTR __imp_??1ioHashString@@QAE@XZ
__unwindfunclet$??0ioRangeTargetShotSkill@@QAE@ABV0@@Z$8:
  00071	8b 4d f0	 mov	 ecx, DWORD PTR _this$[ebp]
  00074	81 c1 cc 0f 00
	00		 add	 ecx, 4044		; 00000fccH
  0007a	ff 25 00 00 00
	00		 jmp	 DWORD PTR __imp_??1ioHashString@@QAE@XZ
__unwindfunclet$??0ioRangeTargetShotSkill@@QAE@ABV0@@Z$9:
  00080	8b 4d f0	 mov	 ecx, DWORD PTR _this$[ebp]
  00083	81 c1 dc 0f 00
	00		 add	 ecx, 4060		; 00000fdcH
  00089	ff 25 00 00 00
	00		 jmp	 DWORD PTR __imp_??1ioHashString@@QAE@XZ
__unwindfunclet$??0ioRangeTargetShotSkill@@QAE@ABV0@@Z$10:
  0008f	8b 4d f0	 mov	 ecx, DWORD PTR _this$[ebp]
  00092	81 c1 ec 0f 00
	00		 add	 ecx, 4076		; 00000fecH
  00098	ff 25 00 00 00
	00		 jmp	 DWORD PTR __imp_??1ioHashString@@QAE@XZ
__unwindfunclet$??0ioRangeTargetShotSkill@@QAE@ABV0@@Z$11:
  0009e	8b 4d f0	 mov	 ecx, DWORD PTR _this$[ebp]
  000a1	81 c1 00 10 00
	00		 add	 ecx, 4096		; 00001000H
  000a7	ff 25 00 00 00
	00		 jmp	 DWORD PTR __imp_??1ioHashString@@QAE@XZ
__unwindfunclet$??0ioRangeTargetShotSkill@@QAE@ABV0@@Z$12:
  000ad	8b 4d f0	 mov	 ecx, DWORD PTR _this$[ebp]
  000b0	81 c1 10 10 00
	00		 add	 ecx, 4112		; 00001010H
  000b6	ff 25 00 00 00
	00		 jmp	 DWORD PTR __imp_??1ioHashString@@QAE@XZ
__unwindfunclet$??0ioRangeTargetShotSkill@@QAE@ABV0@@Z$13:
  000bc	8b 4d f0	 mov	 ecx, DWORD PTR _this$[ebp]
  000bf	81 c1 28 10 00
	00		 add	 ecx, 4136		; 00001028H
  000c5	e9 00 00 00 00	 jmp	 ??1?$CEncrypt@M@@UAE@XZ	; CEncrypt<float>::~CEncrypt<float>
__unwindfunclet$??0ioRangeTargetShotSkill@@QAE@ABV0@@Z$14:
  000ca	8b 4d f0	 mov	 ecx, DWORD PTR _this$[ebp]
  000cd	81 c1 58 10 00
	00		 add	 ecx, 4184		; 00001058H
  000d3	e9 00 00 00 00	 jmp	 ??1?$CEncrypt@M@@UAE@XZ	; CEncrypt<float>::~CEncrypt<float>
__unwindfunclet$??0ioRangeTargetShotSkill@@QAE@ABV0@@Z$15:
  000d8	8b 4d f0	 mov	 ecx, DWORD PTR _this$[ebp]
  000db	81 c1 88 10 00
	00		 add	 ecx, 4232		; 00001088H
  000e1	e9 00 00 00 00	 jmp	 ??1?$CEncrypt@M@@UAE@XZ	; CEncrypt<float>::~CEncrypt<float>
__unwindfunclet$??0ioRangeTargetShotSkill@@QAE@ABV0@@Z$16:
  000e6	8b 4d f0	 mov	 ecx, DWORD PTR _this$[ebp]
  000e9	81 c1 b8 10 00
	00		 add	 ecx, 4280		; 000010b8H
  000ef	e9 00 00 00 00	 jmp	 ??1?$CEncrypt@M@@UAE@XZ	; CEncrypt<float>::~CEncrypt<float>
__unwindfunclet$??0ioRangeTargetShotSkill@@QAE@ABV0@@Z$17:
  000f4	8b 4d f0	 mov	 ecx, DWORD PTR _this$[ebp]
  000f7	81 c1 e8 10 00
	00		 add	 ecx, 4328		; 000010e8H
  000fd	e9 00 00 00 00	 jmp	 ??1?$CEncrypt@M@@UAE@XZ	; CEncrypt<float>::~CEncrypt<float>
__unwindfunclet$??0ioRangeTargetShotSkill@@QAE@ABV0@@Z$18:
  00102	8b 4d f0	 mov	 ecx, DWORD PTR _this$[ebp]
  00105	81 c1 18 11 00
	00		 add	 ecx, 4376		; 00001118H
  0010b	e9 00 00 00 00	 jmp	 ??1?$CEncrypt@M@@UAE@XZ	; CEncrypt<float>::~CEncrypt<float>
__unwindfunclet$??0ioRangeTargetShotSkill@@QAE@ABV0@@Z$19:
  00110	8b 4d f0	 mov	 ecx, DWORD PTR _this$[ebp]
  00113	81 c1 4c 11 00
	00		 add	 ecx, 4428		; 0000114cH
  00119	e9 00 00 00 00	 jmp	 ??1AttackAttribute@@QAE@XZ
__unwindfunclet$??0ioRangeTargetShotSkill@@QAE@ABV0@@Z$20:
  0011e	8b 4d f0	 mov	 ecx, DWORD PTR _this$[ebp]
  00121	81 c1 9c 11 00
	00		 add	 ecx, 4508		; 0000119cH
  00127	e9 00 00 00 00	 jmp	 ??1AttackAttribute@@QAE@XZ
__ehhandler$??0ioRangeTargetShotSkill@@QAE@ABV0@@Z:
  0012c	8b 54 24 08	 mov	 edx, DWORD PTR [esp+8]
  00130	8d 42 0c	 lea	 eax, DWORD PTR [edx+12]
  00133	8b 4a ec	 mov	 ecx, DWORD PTR [edx-20]
  00136	33 c8		 xor	 ecx, eax
  00138	e8 00 00 00 00	 call	 @__security_check_cookie@4
  0013d	b8 00 00 00 00	 mov	 eax, OFFSET __ehfuncinfo$??0ioRangeTargetShotSkill@@QAE@ABV0@@Z
  00142	e9 00 00 00 00	 jmp	 ___CxxFrameHandler3
text$x	ENDS
??0ioRangeTargetShotSkill@@QAE@ABV0@@Z ENDP		; ioRangeTargetShotSkill::ioRangeTargetShotSkill
PUBLIC	??1ioRangeTargetShotSkill@@UAE@XZ		; ioRangeTargetShotSkill::~ioRangeTargetShotSkill
;	COMDAT xdata$x
; File d:\lost saga for developer\youtube\tutorial\source\src\lsclient\encryptvalue.h
xdata$x	SEGMENT
__ehfuncinfo$??1ioRangeTargetShotSkill@@UAE@XZ DD 019930522H
	DD	014H
	DD	FLAT:__unwindtable$??1ioRangeTargetShotSkill@@UAE@XZ
	DD	2 DUP(00H)
	DD	2 DUP(00H)
	DD	00H
	DD	01H
__unwindtable$??1ioRangeTargetShotSkill@@UAE@XZ DD 0ffffffffH
	DD	FLAT:__unwindfunclet$??1ioRangeTargetShotSkill@@UAE@XZ$0
	DD	00H
	DD	FLAT:__unwindfunclet$??1ioRangeTargetShotSkill@@UAE@XZ$1
	DD	01H
	DD	FLAT:__unwindfunclet$??1ioRangeTargetShotSkill@@UAE@XZ$2
	DD	02H
	DD	FLAT:__unwindfunclet$??1ioRangeTargetShotSkill@@UAE@XZ$3
	DD	03H
	DD	FLAT:__unwindfunclet$??1ioRangeTargetShotSkill@@UAE@XZ$4
	DD	04H
	DD	FLAT:__unwindfunclet$??1ioRangeTargetShotSkill@@UAE@XZ$5
	DD	05H
	DD	FLAT:__unwindfunclet$??1ioRangeTargetShotSkill@@UAE@XZ$6
	DD	06H
	DD	FLAT:__unwindfunclet$??1ioRangeTargetShotSkill@@UAE@XZ$7
	DD	07H
	DD	FLAT:__unwindfunclet$??1ioRangeTargetShotSkill@@UAE@XZ$8
	DD	08H
	DD	FLAT:__unwindfunclet$??1ioRangeTargetShotSkill@@UAE@XZ$9
	DD	09H
	DD	FLAT:__unwindfunclet$??1ioRangeTargetShotSkill@@UAE@XZ$10
	DD	0aH
	DD	FLAT:__unwindfunclet$??1ioRangeTargetShotSkill@@UAE@XZ$11
	DD	0bH
	DD	FLAT:__unwindfunclet$??1ioRangeTargetShotSkill@@UAE@XZ$12
	DD	0cH
	DD	FLAT:__unwindfunclet$??1ioRangeTargetShotSkill@@UAE@XZ$13
	DD	0dH
	DD	FLAT:__unwindfunclet$??1ioRangeTargetShotSkill@@UAE@XZ$14
	DD	0eH
	DD	FLAT:__unwindfunclet$??1ioRangeTargetShotSkill@@UAE@XZ$15
	DD	0fH
	DD	FLAT:__unwindfunclet$??1ioRangeTargetShotSkill@@UAE@XZ$16
	DD	010H
	DD	FLAT:__unwindfunclet$??1ioRangeTargetShotSkill@@UAE@XZ$17
	DD	011H
	DD	FLAT:__unwindfunclet$??1ioRangeTargetShotSkill@@UAE@XZ$18
	DD	012H
	DD	FLAT:__unwindfunclet$??1ioRangeTargetShotSkill@@UAE@XZ$19
; Function compile flags: /Ogsp
; File d:\lost saga for developer\youtube\tutorial\source\src\lsclient\iorangetargetshotskill.cpp
xdata$x	ENDS
;	COMDAT ??1ioRangeTargetShotSkill@@UAE@XZ
_TEXT	SEGMENT
_this$ = -16						; size = 4
__$EHRec$ = -12						; size = 12
??1ioRangeTargetShotSkill@@UAE@XZ PROC			; ioRangeTargetShotSkill::~ioRangeTargetShotSkill, COMDAT
; _this$ = ecx

; 40   : {

  00000	6a 04		 push	 4
  00002	b8 00 00 00 00	 mov	 eax, __ehhandler$??1ioRangeTargetShotSkill@@UAE@XZ
  00007	e8 00 00 00 00	 call	 __EH_prolog3
  0000c	8b f1		 mov	 esi, ecx
  0000e	89 75 f0	 mov	 DWORD PTR _this$[ebp], esi
  00011	c7 06 00 00 00
	00		 mov	 DWORD PTR [esi], OFFSET ??_7ioRangeTargetShotSkill@@6B@

; 41   : }

  00017	8d 8e 9c 11 00
	00		 lea	 ecx, DWORD PTR [esi+4508]
  0001d	c7 45 fc 13 00
	00 00		 mov	 DWORD PTR __$EHRec$[ebp+8], 19 ; 00000013H
  00024	e8 00 00 00 00	 call	 ??1AttackAttribute@@QAE@XZ
  00029	8d 8e 4c 11 00
	00		 lea	 ecx, DWORD PTR [esi+4428]
  0002f	c6 45 fc 12	 mov	 BYTE PTR __$EHRec$[ebp+8], 18 ; 00000012H
  00033	e8 00 00 00 00	 call	 ??1AttackAttribute@@QAE@XZ
  00038	bf 00 00 00 00	 mov	 edi, OFFSET ??_7?$CEncrypt@M@@6B@
  0003d	8d 8e 24 11 00
	00		 lea	 ecx, DWORD PTR [esi+4388]
  00043	c6 45 fc 11	 mov	 BYTE PTR __$EHRec$[ebp+8], 17 ; 00000011H
  00047	89 be 18 11 00
	00		 mov	 DWORD PTR [esi+4376], edi
  0004d	e8 00 00 00 00	 call	 ??1ccddaabb@@UAE@XZ	; ccddaabb::~ccddaabb
  00052	8d 8e f4 10 00
	00		 lea	 ecx, DWORD PTR [esi+4340]
  00058	c6 45 fc 10	 mov	 BYTE PTR __$EHRec$[ebp+8], 16 ; 00000010H
  0005c	89 be e8 10 00
	00		 mov	 DWORD PTR [esi+4328], edi
  00062	e8 00 00 00 00	 call	 ??1ccddaabb@@UAE@XZ	; ccddaabb::~ccddaabb
  00067	8d 8e c4 10 00
	00		 lea	 ecx, DWORD PTR [esi+4292]
  0006d	c6 45 fc 0f	 mov	 BYTE PTR __$EHRec$[ebp+8], 15 ; 0000000fH
  00071	89 be b8 10 00
	00		 mov	 DWORD PTR [esi+4280], edi
  00077	e8 00 00 00 00	 call	 ??1ccddaabb@@UAE@XZ	; ccddaabb::~ccddaabb
  0007c	8d 8e 94 10 00
	00		 lea	 ecx, DWORD PTR [esi+4244]
  00082	c6 45 fc 0e	 mov	 BYTE PTR __$EHRec$[ebp+8], 14 ; 0000000eH
  00086	89 be 88 10 00
	00		 mov	 DWORD PTR [esi+4232], edi
  0008c	e8 00 00 00 00	 call	 ??1ccddaabb@@UAE@XZ	; ccddaabb::~ccddaabb
  00091	8d 8e 64 10 00
	00		 lea	 ecx, DWORD PTR [esi+4196]
  00097	c6 45 fc 0d	 mov	 BYTE PTR __$EHRec$[ebp+8], 13 ; 0000000dH
  0009b	89 be 58 10 00
	00		 mov	 DWORD PTR [esi+4184], edi
  000a1	e8 00 00 00 00	 call	 ??1ccddaabb@@UAE@XZ	; ccddaabb::~ccddaabb
  000a6	8d 8e 34 10 00
	00		 lea	 ecx, DWORD PTR [esi+4148]
  000ac	c6 45 fc 0c	 mov	 BYTE PTR __$EHRec$[ebp+8], 12 ; 0000000cH
  000b0	89 be 28 10 00
	00		 mov	 DWORD PTR [esi+4136], edi
  000b6	e8 00 00 00 00	 call	 ??1ccddaabb@@UAE@XZ	; ccddaabb::~ccddaabb
  000bb	8b 3d 00 00 00
	00		 mov	 edi, DWORD PTR __imp_??1ioHashString@@QAE@XZ
  000c1	8d 8e 10 10 00
	00		 lea	 ecx, DWORD PTR [esi+4112]
  000c7	c6 45 fc 0b	 mov	 BYTE PTR __$EHRec$[ebp+8], 11 ; 0000000bH
  000cb	ff d7		 call	 edi
  000cd	8d 8e 00 10 00
	00		 lea	 ecx, DWORD PTR [esi+4096]
  000d3	c6 45 fc 0a	 mov	 BYTE PTR __$EHRec$[ebp+8], 10 ; 0000000aH
  000d7	ff d7		 call	 edi
  000d9	8d 8e ec 0f 00
	00		 lea	 ecx, DWORD PTR [esi+4076]
  000df	c6 45 fc 09	 mov	 BYTE PTR __$EHRec$[ebp+8], 9
  000e3	ff d7		 call	 edi
  000e5	8d 8e dc 0f 00
	00		 lea	 ecx, DWORD PTR [esi+4060]
  000eb	c6 45 fc 08	 mov	 BYTE PTR __$EHRec$[ebp+8], 8
  000ef	ff d7		 call	 edi
  000f1	8d 8e cc 0f 00
	00		 lea	 ecx, DWORD PTR [esi+4044]
  000f7	c6 45 fc 07	 mov	 BYTE PTR __$EHRec$[ebp+8], 7
  000fb	ff d7		 call	 edi
  000fd	8d 8e bc 0f 00
	00		 lea	 ecx, DWORD PTR [esi+4028]
  00103	c6 45 fc 06	 mov	 BYTE PTR __$EHRec$[ebp+8], 6
  00107	ff d7		 call	 edi
  00109	8d 8e ac 0f 00
	00		 lea	 ecx, DWORD PTR [esi+4012]
  0010f	c6 45 fc 05	 mov	 BYTE PTR __$EHRec$[ebp+8], 5
  00113	ff d7		 call	 edi
  00115	8d 8e 9c 0f 00
	00		 lea	 ecx, DWORD PTR [esi+3996]
  0011b	c6 45 fc 04	 mov	 BYTE PTR __$EHRec$[ebp+8], 4
  0011f	ff d7		 call	 edi
  00121	8d 8e 8c 0f 00
	00		 lea	 ecx, DWORD PTR [esi+3980]
  00127	c6 45 fc 03	 mov	 BYTE PTR __$EHRec$[ebp+8], 3
  0012b	ff d7		 call	 edi
  0012d	c6 45 fc 02	 mov	 BYTE PTR __$EHRec$[ebp+8], 2
  00131	8d 8e 7c 0f 00
	00		 lea	 ecx, DWORD PTR [esi+3964]
  00137	ff d7		 call	 edi
  00139	8d 8e 6c 0f 00
	00		 lea	 ecx, DWORD PTR [esi+3948]
  0013f	c6 45 fc 01	 mov	 BYTE PTR __$EHRec$[ebp+8], 1
  00143	ff d7		 call	 edi
  00145	8d 8e 5c 0f 00
	00		 lea	 ecx, DWORD PTR [esi+3932]
  0014b	c6 45 fc 00	 mov	 BYTE PTR __$EHRec$[ebp+8], 0
  0014f	ff d7		 call	 edi
  00151	83 4d fc ff	 or	 DWORD PTR __$EHRec$[ebp+8], -1
  00155	8b ce		 mov	 ecx, esi
  00157	e8 00 00 00 00	 call	 ??1ioNormalSkill@@UAE@XZ ; ioNormalSkill::~ioNormalSkill
  0015c	e8 00 00 00 00	 call	 __EH_epilog3
  00161	c3		 ret	 0
_TEXT	ENDS
;	COMDAT text$x
text$x	SEGMENT
__unwindfunclet$??1ioRangeTargetShotSkill@@UAE@XZ$0:
  00000	8b 4d f0	 mov	 ecx, DWORD PTR _this$[ebp]
  00003	e9 00 00 00 00	 jmp	 ??1ioNormalSkill@@UAE@XZ ; ioNormalSkill::~ioNormalSkill
__unwindfunclet$??1ioRangeTargetShotSkill@@UAE@XZ$1:
  00008	8b 4d f0	 mov	 ecx, DWORD PTR _this$[ebp]
  0000b	81 c1 5c 0f 00
	00		 add	 ecx, 3932		; 00000f5cH
  00011	ff 25 00 00 00
	00		 jmp	 DWORD PTR __imp_??1ioHashString@@QAE@XZ
__unwindfunclet$??1ioRangeTargetShotSkill@@UAE@XZ$2:
  00017	8b 4d f0	 mov	 ecx, DWORD PTR _this$[ebp]
  0001a	81 c1 6c 0f 00
	00		 add	 ecx, 3948		; 00000f6cH
  00020	ff 25 00 00 00
	00		 jmp	 DWORD PTR __imp_??1ioHashString@@QAE@XZ
__unwindfunclet$??1ioRangeTargetShotSkill@@UAE@XZ$3:
  00026	8b 4d f0	 mov	 ecx, DWORD PTR _this$[ebp]
  00029	81 c1 7c 0f 00
	00		 add	 ecx, 3964		; 00000f7cH
  0002f	ff 25 00 00 00
	00		 jmp	 DWORD PTR __imp_??1ioHashString@@QAE@XZ
__unwindfunclet$??1ioRangeTargetShotSkill@@UAE@XZ$4:
  00035	8b 4d f0	 mov	 ecx, DWORD PTR _this$[ebp]
  00038	81 c1 8c 0f 00
	00		 add	 ecx, 3980		; 00000f8cH
  0003e	ff 25 00 00 00
	00		 jmp	 DWORD PTR __imp_??1ioHashString@@QAE@XZ
__unwindfunclet$??1ioRangeTargetShotSkill@@UAE@XZ$5:
  00044	8b 4d f0	 mov	 ecx, DWORD PTR _this$[ebp]
  00047	81 c1 9c 0f 00
	00		 add	 ecx, 3996		; 00000f9cH
  0004d	ff 25 00 00 00
	00		 jmp	 DWORD PTR __imp_??1ioHashString@@QAE@XZ
__unwindfunclet$??1ioRangeTargetShotSkill@@UAE@XZ$6:
  00053	8b 4d f0	 mov	 ecx, DWORD PTR _this$[ebp]
  00056	81 c1 ac 0f 00
	00		 add	 ecx, 4012		; 00000facH
  0005c	ff 25 00 00 00
	00		 jmp	 DWORD PTR __imp_??1ioHashString@@QAE@XZ
__unwindfunclet$??1ioRangeTargetShotSkill@@UAE@XZ$7:
  00062	8b 4d f0	 mov	 ecx, DWORD PTR _this$[ebp]
  00065	81 c1 bc 0f 00
	00		 add	 ecx, 4028		; 00000fbcH
  0006b	ff 25 00 00 00
	00		 jmp	 DWORD PTR __imp_??1ioHashString@@QAE@XZ
__unwindfunclet$??1ioRangeTargetShotSkill@@UAE@XZ$8:
  00071	8b 4d f0	 mov	 ecx, DWORD PTR _this$[ebp]
  00074	81 c1 cc 0f 00
	00		 add	 ecx, 4044		; 00000fccH
  0007a	ff 25 00 00 00
	00		 jmp	 DWORD PTR __imp_??1ioHashString@@QAE@XZ
__unwindfunclet$??1ioRangeTargetShotSkill@@UAE@XZ$9:
  00080	8b 4d f0	 mov	 ecx, DWORD PTR _this$[ebp]
  00083	81 c1 dc 0f 00
	00		 add	 ecx, 4060		; 00000fdcH
  00089	ff 25 00 00 00
	00		 jmp	 DWORD PTR __imp_??1ioHashString@@QAE@XZ
__unwindfunclet$??1ioRangeTargetShotSkill@@UAE@XZ$10:
  0008f	8b 4d f0	 mov	 ecx, DWORD PTR _this$[ebp]
  00092	81 c1 ec 0f 00
	00		 add	 ecx, 4076		; 00000fecH
  00098	ff 25 00 00 00
	00		 jmp	 DWORD PTR __imp_??1ioHashString@@QAE@XZ
__unwindfunclet$??1ioRangeTargetShotSkill@@UAE@XZ$11:
  0009e	8b 4d f0	 mov	 ecx, DWORD PTR _this$[ebp]
  000a1	81 c1 00 10 00
	00		 add	 ecx, 4096		; 00001000H
  000a7	ff 25 00 00 00
	00		 jmp	 DWORD PTR __imp_??1ioHashString@@QAE@XZ
__unwindfunclet$??1ioRangeTargetShotSkill@@UAE@XZ$12:
  000ad	8b 4d f0	 mov	 ecx, DWORD PTR _this$[ebp]
  000b0	81 c1 10 10 00
	00		 add	 ecx, 4112		; 00001010H
  000b6	ff 25 00 00 00
	00		 jmp	 DWORD PTR __imp_??1ioHashString@@QAE@XZ
__unwindfunclet$??1ioRangeTargetShotSkill@@UAE@XZ$13:
  000bc	8b 4d f0	 mov	 ecx, DWORD PTR _this$[ebp]
  000bf	81 c1 28 10 00
	00		 add	 ecx, 4136		; 00001028H
  000c5	e9 00 00 00 00	 jmp	 ??1?$CEncrypt@M@@UAE@XZ	; CEncrypt<float>::~CEncrypt<float>
__unwindfunclet$??1ioRangeTargetShotSkill@@UAE@XZ$14:
  000ca	8b 4d f0	 mov	 ecx, DWORD PTR _this$[ebp]
  000cd	81 c1 58 10 00
	00		 add	 ecx, 4184		; 00001058H
  000d3	e9 00 00 00 00	 jmp	 ??1?$CEncrypt@M@@UAE@XZ	; CEncrypt<float>::~CEncrypt<float>
__unwindfunclet$??1ioRangeTargetShotSkill@@UAE@XZ$15:
  000d8	8b 4d f0	 mov	 ecx, DWORD PTR _this$[ebp]
  000db	81 c1 88 10 00
	00		 add	 ecx, 4232		; 00001088H
  000e1	e9 00 00 00 00	 jmp	 ??1?$CEncrypt@M@@UAE@XZ	; CEncrypt<float>::~CEncrypt<float>
__unwindfunclet$??1ioRangeTargetShotSkill@@UAE@XZ$16:
  000e6	8b 4d f0	 mov	 ecx, DWORD PTR _this$[ebp]
  000e9	81 c1 b8 10 00
	00		 add	 ecx, 4280		; 000010b8H
  000ef	e9 00 00 00 00	 jmp	 ??1?$CEncrypt@M@@UAE@XZ	; CEncrypt<float>::~CEncrypt<float>
__unwindfunclet$??1ioRangeTargetShotSkill@@UAE@XZ$17:
  000f4	8b 4d f0	 mov	 ecx, DWORD PTR _this$[ebp]
  000f7	81 c1 e8 10 00
	00		 add	 ecx, 4328		; 000010e8H
  000fd	e9 00 00 00 00	 jmp	 ??1?$CEncrypt@M@@UAE@XZ	; CEncrypt<float>::~CEncrypt<float>
__unwindfunclet$??1ioRangeTargetShotSkill@@UAE@XZ$18:
  00102	8b 4d f0	 mov	 ecx, DWORD PTR _this$[ebp]
  00105	81 c1 18 11 00
	00		 add	 ecx, 4376		; 00001118H
  0010b	e9 00 00 00 00	 jmp	 ??1?$CEncrypt@M@@UAE@XZ	; CEncrypt<float>::~CEncrypt<float>
__unwindfunclet$??1ioRangeTargetShotSkill@@UAE@XZ$19:
  00110	8b 4d f0	 mov	 ecx, DWORD PTR _this$[ebp]
  00113	81 c1 4c 11 00
	00		 add	 ecx, 4428		; 0000114cH
  00119	e9 00 00 00 00	 jmp	 ??1AttackAttribute@@QAE@XZ
__ehhandler$??1ioRangeTargetShotSkill@@UAE@XZ:
  0011e	8b 54 24 08	 mov	 edx, DWORD PTR [esp+8]
  00122	8d 42 0c	 lea	 eax, DWORD PTR [edx+12]
  00125	8b 4a ec	 mov	 ecx, DWORD PTR [edx-20]
  00128	33 c8		 xor	 ecx, eax
  0012a	e8 00 00 00 00	 call	 @__security_check_cookie@4
  0012f	b8 00 00 00 00	 mov	 eax, OFFSET __ehfuncinfo$??1ioRangeTargetShotSkill@@UAE@XZ
  00134	e9 00 00 00 00	 jmp	 ___CxxFrameHandler3
text$x	ENDS
??1ioRangeTargetShotSkill@@UAE@XZ ENDP			; ioRangeTargetShotSkill::~ioRangeTargetShotSkill
;	COMDAT xdata$x
xdata$x	SEGMENT
__unwindtable$?Clone@ioRangeTargetShotSkill@@UAEPAVioSkill@@XZ DD 0ffffffffH
	DD	FLAT:__unwindfunclet$?Clone@ioRangeTargetShotSkill@@UAEPAVioSkill@@XZ$0
__ehfuncinfo$?Clone@ioRangeTargetShotSkill@@UAEPAVioSkill@@XZ DD 019930522H
	DD	01H
	DD	FLAT:__unwindtable$?Clone@ioRangeTargetShotSkill@@UAEPAVioSkill@@XZ
	DD	2 DUP(00H)
	DD	2 DUP(00H)
	DD	00H
	DD	01H
; Function compile flags: /Ogsp
xdata$x	ENDS
;	COMDAT ?Clone@ioRangeTargetShotSkill@@UAEPAVioSkill@@XZ
_TEXT	SEGMENT
$T541275 = -16						; size = 4
__$EHRec$ = -12						; size = 12
?Clone@ioRangeTargetShotSkill@@UAEPAVioSkill@@XZ PROC	; ioRangeTargetShotSkill::Clone, COMDAT
; _this$ = ecx

; 111  : {

  00000	6a 04		 push	 4
  00002	b8 00 00 00 00	 mov	 eax, __ehhandler$?Clone@ioRangeTargetShotSkill@@UAEPAVioSkill@@XZ
  00007	e8 00 00 00 00	 call	 __EH_prolog3
  0000c	8b f1		 mov	 esi, ecx

; 112  : 	return new ioRangeTargetShotSkill( *this );

  0000e	68 04 12 00 00	 push	 4612			; 00001204H
  00013	e8 00 00 00 00	 call	 ??2@YAPAXI@Z		; operator new
  00018	59		 pop	 ecx
  00019	8b c8		 mov	 ecx, eax
  0001b	89 4d f0	 mov	 DWORD PTR $T541275[ebp], ecx
  0001e	33 c0		 xor	 eax, eax
  00020	89 45 fc	 mov	 DWORD PTR __$EHRec$[ebp+8], eax
  00023	3b c8		 cmp	 ecx, eax
  00025	74 06		 je	 SHORT $LN3@Clone
  00027	56		 push	 esi
  00028	e8 00 00 00 00	 call	 ??0ioRangeTargetShotSkill@@QAE@ABV0@@Z ; ioRangeTargetShotSkill::ioRangeTargetShotSkill
$LN3@Clone:

; 113  : }

  0002d	e8 00 00 00 00	 call	 __EH_epilog3
  00032	c3		 ret	 0
_TEXT	ENDS
;	COMDAT text$x
text$x	SEGMENT
__unwindfunclet$?Clone@ioRangeTargetShotSkill@@UAEPAVioSkill@@XZ$0:
  00000	ff 75 f0	 push	 DWORD PTR $T541275[ebp]
  00003	e8 00 00 00 00	 call	 ??3@YAXPAX@Z		; operator delete
  00008	59		 pop	 ecx
  00009	c3		 ret	 0
__ehhandler$?Clone@ioRangeTargetShotSkill@@UAEPAVioSkill@@XZ:
  0000a	8b 54 24 08	 mov	 edx, DWORD PTR [esp+8]
  0000e	8d 42 0c	 lea	 eax, DWORD PTR [edx+12]
  00011	8b 4a ec	 mov	 ecx, DWORD PTR [edx-20]
  00014	33 c8		 xor	 ecx, eax
  00016	e8 00 00 00 00	 call	 @__security_check_cookie@4
  0001b	b8 00 00 00 00	 mov	 eax, OFFSET __ehfuncinfo$?Clone@ioRangeTargetShotSkill@@UAEPAVioSkill@@XZ
  00020	e9 00 00 00 00	 jmp	 ___CxxFrameHandler3
text$x	ENDS
?Clone@ioRangeTargetShotSkill@@UAEPAVioSkill@@XZ ENDP	; ioRangeTargetShotSkill::Clone
; Function compile flags: /Ogsp
;	COMDAT ??_GioRangeTargetShotSkill@@UAEPAXI@Z
_TEXT	SEGMENT
___flags$ = 8						; size = 4
??_GioRangeTargetShotSkill@@UAEPAXI@Z PROC		; ioRangeTargetShotSkill::`scalar deleting destructor', COMDAT
; _this$ = ecx
  00000	55		 push	 ebp
  00001	8b ec		 mov	 ebp, esp
  00003	56		 push	 esi
  00004	8b f1		 mov	 esi, ecx
  00006	e8 00 00 00 00	 call	 ??1ioRangeTargetShotSkill@@UAE@XZ ; ioRangeTargetShotSkill::~ioRangeTargetShotSkill
  0000b	f6 45 08 01	 test	 BYTE PTR ___flags$[ebp], 1
  0000f	74 07		 je	 SHORT $LN1@scalar@4
  00011	56		 push	 esi
  00012	e8 00 00 00 00	 call	 ??3@YAXPAX@Z		; operator delete
  00017	59		 pop	 ecx
$LN1@scalar@4:
  00018	8b c6		 mov	 eax, esi
  0001a	5e		 pop	 esi
  0001b	5d		 pop	 ebp
  0001c	c2 04 00	 ret	 4
??_GioRangeTargetShotSkill@@UAEPAXI@Z ENDP		; ioRangeTargetShotSkill::`scalar deleting destructor'
_TEXT	ENDS
END
