; Listing generated by Microsoft (R) Optimizing Compiler Version 16.00.30319.01 

	TITLE	D:\Lost Saga For Developer\Youtube\Tutorial\Source\src\LSClient\ioReservedTask.cpp
	.686P
	.XMM
	include listing.inc
	.model	flat

INCLUDELIB MSVCRT
INCLUDELIB OLDNAMES

PUBLIC	?ms_Singleton@?$Singleton@VioReservedTask@@@@1PAVioReservedTask@@A ; Singleton<ioReservedTask>::ms_Singleton
;	COMDAT ?ms_Singleton@?$Singleton@VioReservedTask@@@@1PAVioReservedTask@@A
_BSS	SEGMENT
?ms_Singleton@?$Singleton@VioReservedTask@@@@1PAVioReservedTask@@A DD 01H DUP (?) ; Singleton<ioReservedTask>::ms_Singleton
_BSS	ENDS
PUBLIC	?Init@ioReservedTask@@QAEXXZ			; ioReservedTask::Init
; Function compile flags: /Ogsp
; File d:\lost saga for developer\youtube\tutorial\source\src\lsclient\ioreservedtask.cpp
;	COMDAT ?Init@ioReservedTask@@QAEXXZ
_TEXT	SEGMENT
?Init@ioReservedTask@@QAEXXZ PROC			; ioReservedTask::Init, COMDAT
; _this$ = ecx

; 30   : }

  00000	c3		 ret	 0
?Init@ioReservedTask@@QAEXXZ ENDP			; ioReservedTask::Init
_TEXT	ENDS
PUBLIC	??_7bad_alloc@std@@6B@				; std::bad_alloc::`vftable'
PUBLIC	??0bad_alloc@std@@QAE@PBD@Z			; std::bad_alloc::bad_alloc
PUBLIC	??_R4bad_alloc@std@@6B@				; std::bad_alloc::`RTTI Complete Object Locator'
PUBLIC	??_R0?AVbad_alloc@std@@@8			; std::bad_alloc `RTTI Type Descriptor'
PUBLIC	??_R3bad_alloc@std@@8				; std::bad_alloc::`RTTI Class Hierarchy Descriptor'
PUBLIC	??_R2bad_alloc@std@@8				; std::bad_alloc::`RTTI Base Class Array'
PUBLIC	??_R1A@?0A@EA@bad_alloc@std@@8			; std::bad_alloc::`RTTI Base Class Descriptor at (0,-1,0,64)'
PUBLIC	??_R1A@?0A@EA@exception@std@@8			; std::exception::`RTTI Base Class Descriptor at (0,-1,0,64)'
PUBLIC	??_R0?AVexception@std@@@8			; std::exception `RTTI Type Descriptor'
PUBLIC	??_R3exception@std@@8				; std::exception::`RTTI Class Hierarchy Descriptor'
PUBLIC	??_R2exception@std@@8				; std::exception::`RTTI Base Class Array'
EXTRN	__imp_??0exception@std@@QAE@ABQBD@Z:PROC
EXTRN	??_7type_info@@6B@:QWORD			; type_info::`vftable'
EXTRN	??_Ebad_alloc@std@@UAEPAXI@Z:PROC		; std::bad_alloc::`vector deleting destructor'
EXTRN	?what@exception@std@@UBEPBDXZ:PROC		; std::exception::what
;	COMDAT ??_R2exception@std@@8
; File c:\program files (x86)\microsoft visual studio 10.0\vc\include\exception
rdata$r	SEGMENT
??_R2exception@std@@8 DD FLAT:??_R1A@?0A@EA@exception@std@@8 ; std::exception::`RTTI Base Class Array'
rdata$r	ENDS
;	COMDAT ??_R3exception@std@@8
rdata$r	SEGMENT
??_R3exception@std@@8 DD 00H				; std::exception::`RTTI Class Hierarchy Descriptor'
	DD	00H
	DD	01H
	DD	FLAT:??_R2exception@std@@8
rdata$r	ENDS
;	COMDAT ??_R0?AVexception@std@@@8
_DATA	SEGMENT
??_R0?AVexception@std@@@8 DD FLAT:??_7type_info@@6B@	; std::exception `RTTI Type Descriptor'
	DD	00H
	DB	'.?AVexception@std@@', 00H
_DATA	ENDS
;	COMDAT ??_R1A@?0A@EA@exception@std@@8
rdata$r	SEGMENT
??_R1A@?0A@EA@exception@std@@8 DD FLAT:??_R0?AVexception@std@@@8 ; std::exception::`RTTI Base Class Descriptor at (0,-1,0,64)'
	DD	00H
	DD	00H
	DD	0ffffffffH
	DD	00H
	DD	040H
	DD	FLAT:??_R3exception@std@@8
rdata$r	ENDS
;	COMDAT ??_R1A@?0A@EA@bad_alloc@std@@8
rdata$r	SEGMENT
??_R1A@?0A@EA@bad_alloc@std@@8 DD FLAT:??_R0?AVbad_alloc@std@@@8 ; std::bad_alloc::`RTTI Base Class Descriptor at (0,-1,0,64)'
	DD	01H
	DD	00H
	DD	0ffffffffH
	DD	00H
	DD	040H
	DD	FLAT:??_R3bad_alloc@std@@8
rdata$r	ENDS
;	COMDAT ??_R2bad_alloc@std@@8
rdata$r	SEGMENT
??_R2bad_alloc@std@@8 DD FLAT:??_R1A@?0A@EA@bad_alloc@std@@8 ; std::bad_alloc::`RTTI Base Class Array'
	DD	FLAT:??_R1A@?0A@EA@exception@std@@8
rdata$r	ENDS
;	COMDAT ??_R3bad_alloc@std@@8
rdata$r	SEGMENT
??_R3bad_alloc@std@@8 DD 00H				; std::bad_alloc::`RTTI Class Hierarchy Descriptor'
	DD	00H
	DD	02H
	DD	FLAT:??_R2bad_alloc@std@@8
rdata$r	ENDS
;	COMDAT ??_R0?AVbad_alloc@std@@@8
_DATA	SEGMENT
??_R0?AVbad_alloc@std@@@8 DD FLAT:??_7type_info@@6B@	; std::bad_alloc `RTTI Type Descriptor'
	DD	00H
	DB	'.?AVbad_alloc@std@@', 00H
_DATA	ENDS
;	COMDAT ??_R4bad_alloc@std@@6B@
rdata$r	SEGMENT
??_R4bad_alloc@std@@6B@ DD 00H				; std::bad_alloc::`RTTI Complete Object Locator'
	DD	00H
	DD	00H
	DD	FLAT:??_R0?AVbad_alloc@std@@@8
	DD	FLAT:??_R3bad_alloc@std@@8
rdata$r	ENDS
;	COMDAT ??_7bad_alloc@std@@6B@
CONST	SEGMENT
??_7bad_alloc@std@@6B@ DD FLAT:??_R4bad_alloc@std@@6B@	; std::bad_alloc::`vftable'
	DD	FLAT:??_Ebad_alloc@std@@UAEPAXI@Z
	DD	FLAT:?what@exception@std@@UBEPBDXZ
; Function compile flags: /Ogsp
CONST	ENDS
;	COMDAT ??0bad_alloc@std@@QAE@PBD@Z
_TEXT	SEGMENT
__Message$ = 8						; size = 4
??0bad_alloc@std@@QAE@PBD@Z PROC			; std::bad_alloc::bad_alloc, COMDAT
; _this$ = ecx

; 345  : 		{	// construct from message string

  00000	55		 push	 ebp
  00001	8b ec		 mov	 ebp, esp
  00003	56		 push	 esi
  00004	8d 45 08	 lea	 eax, DWORD PTR __Message$[ebp]
  00007	50		 push	 eax
  00008	8b f1		 mov	 esi, ecx
  0000a	ff 15 00 00 00
	00		 call	 DWORD PTR __imp_??0exception@std@@QAE@ABQBD@Z
  00010	c7 06 00 00 00
	00		 mov	 DWORD PTR [esi], OFFSET ??_7bad_alloc@std@@6B@

; 346  : 		}

  00016	8b c6		 mov	 eax, esi
  00018	5e		 pop	 esi
  00019	5d		 pop	 ebp
  0001a	c2 04 00	 ret	 4
??0bad_alloc@std@@QAE@PBD@Z ENDP			; std::bad_alloc::bad_alloc
_TEXT	ENDS
PUBLIC	??1bad_alloc@std@@UAE@XZ			; std::bad_alloc::~bad_alloc
EXTRN	__imp_??1exception@std@@UAE@XZ:PROC
; Function compile flags: /Ogsp
;	COMDAT ??1bad_alloc@std@@UAE@XZ
_TEXT	SEGMENT
??1bad_alloc@std@@UAE@XZ PROC				; std::bad_alloc::~bad_alloc, COMDAT
; _this$ = ecx

; 354  : 		{	// destroy the object

  00000	c7 01 00 00 00
	00		 mov	 DWORD PTR [ecx], OFFSET ??_7bad_alloc@std@@6B@

; 355  : 		}

  00006	ff 25 00 00 00
	00		 jmp	 DWORD PTR __imp_??1exception@std@@UAE@XZ
??1bad_alloc@std@@UAE@XZ ENDP				; std::bad_alloc::~bad_alloc
_TEXT	ENDS
EXTRN	??3@YAXPAX@Z:PROC				; operator delete
; Function compile flags: /Ogsp
;	COMDAT ??_Gbad_alloc@std@@UAEPAXI@Z
_TEXT	SEGMENT
___flags$ = 8						; size = 4
??_Gbad_alloc@std@@UAEPAXI@Z PROC			; std::bad_alloc::`scalar deleting destructor', COMDAT
; _this$ = ecx
  00000	55		 push	 ebp
  00001	8b ec		 mov	 ebp, esp
  00003	56		 push	 esi
  00004	8b f1		 mov	 esi, ecx
  00006	c7 06 00 00 00
	00		 mov	 DWORD PTR [esi], OFFSET ??_7bad_alloc@std@@6B@
  0000c	ff 15 00 00 00
	00		 call	 DWORD PTR __imp_??1exception@std@@UAE@XZ
  00012	f6 45 08 01	 test	 BYTE PTR ___flags$[ebp], 1
  00016	74 07		 je	 SHORT $LN1@scalar
  00018	56		 push	 esi
  00019	e8 00 00 00 00	 call	 ??3@YAXPAX@Z		; operator delete
  0001e	59		 pop	 ecx
$LN1@scalar:
  0001f	8b c6		 mov	 eax, esi
  00021	5e		 pop	 esi
  00022	5d		 pop	 ebp
  00023	c2 04 00	 ret	 4
??_Gbad_alloc@std@@UAEPAXI@Z ENDP			; std::bad_alloc::`scalar deleting destructor'
_TEXT	ENDS
PUBLIC	??2@YAPAXIPAX@Z					; operator new
; Function compile flags: /Ogsp
; File c:\program files (x86)\microsoft visual studio 10.0\vc\include\new
;	COMDAT ??2@YAPAXIPAX@Z
_TEXT	SEGMENT
___formal$ = 8						; size = 4
__Where$ = 12						; size = 4
??2@YAPAXIPAX@Z PROC					; operator new, COMDAT

; 56   : 	{	// construct array with placement at _Where

  00000	55		 push	 ebp
  00001	8b ec		 mov	 ebp, esp

; 57   : 	return (_Where);

  00003	8b 45 0c	 mov	 eax, DWORD PTR __Where$[ebp]

; 58   : 	}

  00006	5d		 pop	 ebp
  00007	c3		 ret	 0
??2@YAPAXIPAX@Z ENDP					; operator new
_TEXT	ENDS
PUBLIC	??_C@_0BK@PDIMJIKH@?$CFs?5?9?5pTask?5casting?5FAIL?$CB?$CB?$AA@ ; `string'
PUBLIC	??_C@_0CG@CKAJMEFG@ioReservedTask?3?3OnExecuteServerC@ ; `string'
PUBLIC	??_R0?AUioTask@@@8				; ioTask `RTTI Type Descriptor'
PUBLIC	??_R0?AUioTaskServerMove@@@8			; ioTaskServerMove `RTTI Type Descriptor'
PUBLIC	__$ArrayPad$
PUBLIC	?OnExecuteServerChange@ioReservedTask@@IAE_NPAUioTask@@@Z ; ioReservedTask::OnExecuteServerChange
EXTRN	__imp_?PrintTimeAndLog@CLog@@QAAXHPADZZ:PROC
EXTRN	__imp_?LOG@@3VCLog@@A:BYTE
EXTRN	??1SP2Packet@@UAE@XZ:PROC			; SP2Packet::~SP2Packet
EXTRN	?SendToServer@TCPNetwork@@YAXAAVSP2Packet@@@Z:PROC ; TCPNetwork::SendToServer
EXTRN	??6SP2Packet@@QAEAAV0@H@Z:PROC			; SP2Packet::operator<<
EXTRN	??0SP2Packet@@QAE@K@Z:PROC			; SP2Packet::SP2Packet
EXTRN	?MouseBusy@TCPNetwork@@YAX_N@Z:PROC		; TCPNetwork::MouseBusy
EXTRN	___security_cookie:DWORD
EXTRN	___CxxFrameHandler3:PROC
EXTRN	@__security_check_cookie@4:PROC
EXTRN	__chkstk:PROC
EXTRN	___RTDynamicCast:PROC
;	COMDAT ??_C@_0BK@PDIMJIKH@?$CFs?5?9?5pTask?5casting?5FAIL?$CB?$CB?$AA@
; File d:\lost saga for developer\youtube\tutorial\source\src\lsclient\ioreservedtask.cpp
CONST	SEGMENT
??_C@_0BK@PDIMJIKH@?$CFs?5?9?5pTask?5casting?5FAIL?$CB?$CB?$AA@ DB '%s - '
	DB	'pTask casting FAIL!!', 00H			; `string'
CONST	ENDS
;	COMDAT ??_C@_0CG@CKAJMEFG@ioReservedTask?3?3OnExecuteServerC@
CONST	SEGMENT
??_C@_0CG@CKAJMEFG@ioReservedTask?3?3OnExecuteServerC@ DB 'ioReservedTask'
	DB	'::OnExecuteServerChange', 00H		; `string'
CONST	ENDS
;	COMDAT ??_R0?AUioTask@@@8
_DATA	SEGMENT
??_R0?AUioTask@@@8 DD FLAT:??_7type_info@@6B@		; ioTask `RTTI Type Descriptor'
	DD	00H
	DB	'.?AUioTask@@', 00H
_DATA	ENDS
;	COMDAT ??_R0?AUioTaskServerMove@@@8
_DATA	SEGMENT
??_R0?AUioTaskServerMove@@@8 DD FLAT:??_7type_info@@6B@	; ioTaskServerMove `RTTI Type Descriptor'
	DD	00H
	DB	'.?AUioTaskServerMove@@', 00H
_DATA	ENDS
;	COMDAT xdata$x
xdata$x	SEGMENT
__unwindtable$?OnExecuteServerChange@ioReservedTask@@IAE_NPAUioTask@@@Z DD 0ffffffffH
	DD	FLAT:__unwindfunclet$?OnExecuteServerChange@ioReservedTask@@IAE_NPAUioTask@@@Z$0
__ehfuncinfo$?OnExecuteServerChange@ioReservedTask@@IAE_NPAUioTask@@@Z DD 019930522H
	DD	01H
	DD	FLAT:__unwindtable$?OnExecuteServerChange@ioReservedTask@@IAE_NPAUioTask@@@Z
	DD	2 DUP(00H)
	DD	2 DUP(00H)
	DD	00H
	DD	01H
; Function compile flags: /Ogsp
xdata$x	ENDS
;	COMDAT ?OnExecuteServerChange@ioReservedTask@@IAE_NPAUioTask@@@Z
_TEXT	SEGMENT
_kPacket$517732 = -32808				; size = 32792
__$ArrayPad$ = -16					; size = 4
__$EHRec$ = -12						; size = 12
_pTask$ = 8						; size = 4
?OnExecuteServerChange@ioReservedTask@@IAE_NPAUioTask@@@Z PROC ; ioReservedTask::OnExecuteServerChange, COMDAT
; _this$ = ecx

; 164  : {

  00000	55		 push	 ebp
  00001	8b ec		 mov	 ebp, esp
  00003	6a ff		 push	 -1
  00005	68 00 00 00 00	 push	 __ehhandler$?OnExecuteServerChange@ioReservedTask@@IAE_NPAUioTask@@@Z
  0000a	64 a1 00 00 00
	00		 mov	 eax, DWORD PTR fs:0
  00010	50		 push	 eax
  00011	b8 1c 80 00 00	 mov	 eax, 32796		; 0000801cH
  00016	e8 00 00 00 00	 call	 __chkstk
  0001b	a1 00 00 00 00	 mov	 eax, DWORD PTR ___security_cookie
  00020	33 c5		 xor	 eax, ebp
  00022	89 45 f0	 mov	 DWORD PTR __$ArrayPad$[ebp], eax
  00025	56		 push	 esi
  00026	50		 push	 eax
  00027	8d 45 f4	 lea	 eax, DWORD PTR __$EHRec$[ebp]
  0002a	64 a3 00 00 00
	00		 mov	 DWORD PTR fs:0, eax
  00030	8b 45 08	 mov	 eax, DWORD PTR _pTask$[ebp]

; 165  : 	ioTaskServerMove* task = dynamic_cast<ioTaskServerMove*>(pTask);

  00033	6a 00		 push	 0
  00035	68 00 00 00 00	 push	 OFFSET ??_R0?AUioTaskServerMove@@@8
  0003a	68 00 00 00 00	 push	 OFFSET ??_R0?AUioTask@@@8
  0003f	6a 00		 push	 0
  00041	50		 push	 eax
  00042	e8 00 00 00 00	 call	 ___RTDynamicCast
  00047	8b f0		 mov	 esi, eax
  00049	83 c4 14	 add	 esp, 20			; 00000014H

; 166  : 	if( task )

  0004c	85 f6		 test	 esi, esi
  0004e	74 49		 je	 SHORT $LN2@OnExecuteS

; 167  : 	{
; 168  : 		TCPNetwork::MouseBusy( true );

  00050	6a 01		 push	 1
  00052	e8 00 00 00 00	 call	 ?MouseBusy@TCPNetwork@@YAX_N@Z ; TCPNetwork::MouseBusy

; 169  : 		SP2Packet kPacket( CTPK_MYROOM_SERVER_CHANGE );

  00057	8d 8d d8 7f ff
	ff		 lea	 ecx, DWORD PTR _kPacket$517732[ebp]
  0005d	c7 04 24 76 01
	00 00		 mov	 DWORD PTR [esp], 374	; 00000176H
  00064	e8 00 00 00 00	 call	 ??0SP2Packet@@QAE@K@Z	; SP2Packet::SP2Packet

; 170  : 		kPacket << task->iServerIndex;

  00069	ff 76 10	 push	 DWORD PTR [esi+16]
  0006c	83 65 fc 00	 and	 DWORD PTR __$EHRec$[ebp+8], 0
  00070	8d 8d d8 7f ff
	ff		 lea	 ecx, DWORD PTR _kPacket$517732[ebp]
  00076	e8 00 00 00 00	 call	 ??6SP2Packet@@QAEAAV0@H@Z ; SP2Packet::operator<<

; 171  : 		TCPNetwork::SendToServer( kPacket );

  0007b	8d 85 d8 7f ff
	ff		 lea	 eax, DWORD PTR _kPacket$517732[ebp]
  00081	50		 push	 eax
  00082	e8 00 00 00 00	 call	 ?SendToServer@TCPNetwork@@YAXAAVSP2Packet@@@Z ; TCPNetwork::SendToServer

; 172  : 	}

  00087	83 4d fc ff	 or	 DWORD PTR __$EHRec$[ebp+8], -1
  0008b	59		 pop	 ecx
  0008c	8d 8d d8 7f ff
	ff		 lea	 ecx, DWORD PTR _kPacket$517732[ebp]
  00092	e8 00 00 00 00	 call	 ??1SP2Packet@@UAE@XZ	; SP2Packet::~SP2Packet

; 173  : 	else

  00097	eb 1b		 jmp	 SHORT $LN1@OnExecuteS
$LN2@OnExecuteS:

; 174  : 	{
; 175  : 		LOG.PrintTimeAndLog(0, "%s - pTask casting FAIL!!", __FUNCTION__ );		

  00099	68 00 00 00 00	 push	 OFFSET ??_C@_0CG@CKAJMEFG@ioReservedTask?3?3OnExecuteServerC@
  0009e	68 00 00 00 00	 push	 OFFSET ??_C@_0BK@PDIMJIKH@?$CFs?5?9?5pTask?5casting?5FAIL?$CB?$CB?$AA@
  000a3	6a 00		 push	 0
  000a5	ff 35 00 00 00
	00		 push	 DWORD PTR __imp_?LOG@@3VCLog@@A
  000ab	ff 15 00 00 00
	00		 call	 DWORD PTR __imp_?PrintTimeAndLog@CLog@@QAAXHPADZZ
  000b1	83 c4 10	 add	 esp, 16			; 00000010H
$LN1@OnExecuteS:

; 176  : 	}
; 177  : 
; 178  : 	return true;

  000b4	b0 01		 mov	 al, 1

; 179  : }

  000b6	8b 4d f4	 mov	 ecx, DWORD PTR __$EHRec$[ebp]
  000b9	64 89 0d 00 00
	00 00		 mov	 DWORD PTR fs:0, ecx
  000c0	59		 pop	 ecx
  000c1	5e		 pop	 esi
  000c2	8b 4d f0	 mov	 ecx, DWORD PTR __$ArrayPad$[ebp]
  000c5	33 cd		 xor	 ecx, ebp
  000c7	e8 00 00 00 00	 call	 @__security_check_cookie@4
  000cc	c9		 leave
  000cd	c2 04 00	 ret	 4
_TEXT	ENDS
;	COMDAT text$x
text$x	SEGMENT
__unwindfunclet$?OnExecuteServerChange@ioReservedTask@@IAE_NPAUioTask@@@Z$0:
  00000	8d 8d d8 7f ff
	ff		 lea	 ecx, DWORD PTR _kPacket$517732[ebp]
  00006	e9 00 00 00 00	 jmp	 ??1SP2Packet@@UAE@XZ	; SP2Packet::~SP2Packet
__ehhandler$?OnExecuteServerChange@ioReservedTask@@IAE_NPAUioTask@@@Z:
  0000b	8b 54 24 08	 mov	 edx, DWORD PTR [esp+8]
  0000f	8d 42 0c	 lea	 eax, DWORD PTR [edx+12]
  00012	8b 8a dc 7f ff
	ff		 mov	 ecx, DWORD PTR [edx-32804]
  00018	33 c8		 xor	 ecx, eax
  0001a	e8 00 00 00 00	 call	 @__security_check_cookie@4
  0001f	8b 4a fc	 mov	 ecx, DWORD PTR [edx-4]
  00022	33 c8		 xor	 ecx, eax
  00024	e8 00 00 00 00	 call	 @__security_check_cookie@4
  00029	b8 00 00 00 00	 mov	 eax, OFFSET __ehfuncinfo$?OnExecuteServerChange@ioReservedTask@@IAE_NPAUioTask@@@Z
  0002e	e9 00 00 00 00	 jmp	 ___CxxFrameHandler3
text$x	ENDS
?OnExecuteServerChange@ioReservedTask@@IAE_NPAUioTask@@@Z ENDP ; ioReservedTask::OnExecuteServerChange
PUBLIC	??3@YAXPAX0@Z					; operator delete
; Function compile flags: /Ogsp
; File c:\program files (x86)\microsoft visual studio 10.0\vc\include\new
;	COMDAT ??3@YAXPAX0@Z
_TEXT	SEGMENT
___formal$ = 8						; size = 4
___formal$ = 12						; size = 4
??3@YAXPAX0@Z PROC					; operator delete, COMDAT

; 62   : 	}

  00000	c3		 ret	 0
??3@YAXPAX0@Z ENDP					; operator delete
_TEXT	ENDS
PUBLIC	??_C@_0BP@KPFJJIA@?$CFs?5?9?5?$CFd?5?9?5pTask?5casting?5FAIL?$CB?$CB?$AA@ ; `string'
PUBLIC	??_C@_0CC@PMFMNNFN@?$CFs?5?9?5?$CFd?5?9?5ATTENDANCE_WND?5not?5fin@ ; `string'
PUBLIC	??_R0?AVioWnd@@@8				; ioWnd `RTTI Type Descriptor'
PUBLIC	??_R0?AVAttendanceWnd@@@8			; AttendanceWnd `RTTI Type Descriptor'
PUBLIC	??_R0?AUioTaskAttendanceReward@@@8		; ioTaskAttendanceReward `RTTI Type Descriptor'
PUBLIC	??_C@_0BB@MKFOMIFN@?$CFs?5?9?5UNKOWN?5TYPE?$AA@	; `string'
PUBLIC	??_C@_0BD@BEBFNMFK@?$CFs?5?9?5pTask?5?$DN?$DN?5NULL?$AA@ ; `string'
PUBLIC	??_C@_0CJ@KGELAGJC@ioReservedTask?3?3OnExecuteRecvAtt@ ; `string'
PUBLIC	?OnExecuteRecvAtttendance@ioReservedTask@@IAE_NPAUioTask@@@Z ; ioReservedTask::OnExecuteRecvAtttendance
EXTRN	__imp_?ShowWnd@ioWnd@@QAEXXZ:PROC
EXTRN	?SetReward@AttendanceWnd@@QAEXHHHHHH@Z:PROC	; AttendanceWnd::SetReward
EXTRN	?AddAttendanceRecord@AttendanceWnd@@QAEXK@Z:PROC ; AttendanceWnd::AddAttendanceRecord
EXTRN	__imp_?FindWnd@ioGUIManager@@QAEPAVioWnd@@K@Z:PROC
EXTRN	?GetSingleton@ioSP2GUIManager@@SAAAV1@XZ:PROC	; ioSP2GUIManager::GetSingleton
;	COMDAT ??_C@_0BP@KPFJJIA@?$CFs?5?9?5?$CFd?5?9?5pTask?5casting?5FAIL?$CB?$CB?$AA@
; File d:\lost saga for developer\youtube\tutorial\source\src\lsclient\ioreservedtask.cpp
CONST	SEGMENT
??_C@_0BP@KPFJJIA@?$CFs?5?9?5?$CFd?5?9?5pTask?5casting?5FAIL?$CB?$CB?$AA@ DB '%'
	DB	's - %d - pTask casting FAIL!!', 00H		; `string'
CONST	ENDS
;	COMDAT ??_C@_0CC@PMFMNNFN@?$CFs?5?9?5?$CFd?5?9?5ATTENDANCE_WND?5not?5fin@
CONST	SEGMENT
??_C@_0CC@PMFMNNFN@?$CFs?5?9?5?$CFd?5?9?5ATTENDANCE_WND?5not?5fin@ DB '%s'
	DB	' - %d - ATTENDANCE_WND not find', 00H	; `string'
CONST	ENDS
;	COMDAT ??_R0?AVioWnd@@@8
_DATA	SEGMENT
??_R0?AVioWnd@@@8 DD FLAT:??_7type_info@@6B@		; ioWnd `RTTI Type Descriptor'
	DD	00H
	DB	'.?AVioWnd@@', 00H
_DATA	ENDS
;	COMDAT ??_R0?AVAttendanceWnd@@@8
_DATA	SEGMENT
??_R0?AVAttendanceWnd@@@8 DD FLAT:??_7type_info@@6B@	; AttendanceWnd `RTTI Type Descriptor'
	DD	00H
	DB	'.?AVAttendanceWnd@@', 00H
_DATA	ENDS
;	COMDAT ??_R0?AUioTaskAttendanceReward@@@8
_DATA	SEGMENT
??_R0?AUioTaskAttendanceReward@@@8 DD FLAT:??_7type_info@@6B@ ; ioTaskAttendanceReward `RTTI Type Descriptor'
	DD	00H
	DB	'.?AUioTaskAttendanceReward@@', 00H
_DATA	ENDS
;	COMDAT ??_C@_0BB@MKFOMIFN@?$CFs?5?9?5UNKOWN?5TYPE?$AA@
CONST	SEGMENT
??_C@_0BB@MKFOMIFN@?$CFs?5?9?5UNKOWN?5TYPE?$AA@ DB '%s - UNKOWN TYPE', 00H ; `string'
CONST	ENDS
;	COMDAT ??_C@_0BD@BEBFNMFK@?$CFs?5?9?5pTask?5?$DN?$DN?5NULL?$AA@
CONST	SEGMENT
??_C@_0BD@BEBFNMFK@?$CFs?5?9?5pTask?5?$DN?$DN?5NULL?$AA@ DB '%s - pTask ='
	DB	'= NULL', 00H				; `string'
CONST	ENDS
;	COMDAT ??_C@_0CJ@KGELAGJC@ioReservedTask?3?3OnExecuteRecvAtt@
CONST	SEGMENT
??_C@_0CJ@KGELAGJC@ioReservedTask?3?3OnExecuteRecvAtt@ DB 'ioReservedTask'
	DB	'::OnExecuteRecvAtttendance', 00H		; `string'
; Function compile flags: /Ogsp
CONST	ENDS
;	COMDAT ?OnExecuteRecvAtttendance@ioReservedTask@@IAE_NPAUioTask@@@Z
_TEXT	SEGMENT
_pWnd$517758 = 8					; size = 4
_pTask$ = 8						; size = 4
?OnExecuteRecvAtttendance@ioReservedTask@@IAE_NPAUioTask@@@Z PROC ; ioReservedTask::OnExecuteRecvAtttendance, COMDAT
; _this$ = ecx

; 182  : {

  00000	55		 push	 ebp
  00001	8b ec		 mov	 ebp, esp
  00003	53		 push	 ebx
  00004	57		 push	 edi

; 183  : 	if( !pTask )

  00005	8b 7d 08	 mov	 edi, DWORD PTR _pTask$[ebp]
  00008	33 db		 xor	 ebx, ebx
  0000a	3b fb		 cmp	 edi, ebx
  0000c	75 1f		 jne	 SHORT $LN12@OnExecuteR

; 184  : 	{
; 185  : 		LOG.PrintTimeAndLog(0, "%s - pTask == NULL", __FUNCTION__ );

  0000e	68 00 00 00 00	 push	 OFFSET ??_C@_0CJ@KGELAGJC@ioReservedTask?3?3OnExecuteRecvAtt@
  00013	68 00 00 00 00	 push	 OFFSET ??_C@_0BD@BEBFNMFK@?$CFs?5?9?5pTask?5?$DN?$DN?5NULL?$AA@
  00018	53		 push	 ebx
  00019	ff 35 00 00 00
	00		 push	 DWORD PTR __imp_?LOG@@3VCLog@@A
  0001f	ff 15 00 00 00
	00		 call	 DWORD PTR __imp_?PrintTimeAndLog@CLog@@QAAXHPADZZ
  00025	83 c4 10	 add	 esp, 16			; 00000010H

; 186  : 		return true;

  00028	e9 0c 01 00 00	 jmp	 $LN7@OnExecuteR
$LN12@OnExecuteR:

; 187  : 	}
; 188  : 
; 189  : 	switch( pTask->eWhen )

  0002d	8b 47 08	 mov	 eax, DWORD PTR [edi+8]
  00030	83 e8 04	 sub	 eax, 4
  00033	0f 84 c3 00 00
	00		 je	 $LN9@OnExecuteR
  00039	48		 dec	 eax
  0003a	74 21		 je	 SHORT $LN6@OnExecuteR

; 226  : 		}
; 227  : 		break;
; 228  : 	default:
; 229  : 		{
; 230  : 			LOG.PrintTimeAndLog(0, "%s - UNKOWN TYPE", __FUNCTION__ );

  0003c	68 00 00 00 00	 push	 OFFSET ??_C@_0CJ@KGELAGJC@ioReservedTask?3?3OnExecuteRecvAtt@
  00041	68 00 00 00 00	 push	 OFFSET ??_C@_0BB@MKFOMIFN@?$CFs?5?9?5UNKOWN?5TYPE?$AA@
  00046	53		 push	 ebx
  00047	ff 35 00 00 00
	00		 push	 DWORD PTR __imp_?LOG@@3VCLog@@A
  0004d	ff 15 00 00 00
	00		 call	 DWORD PTR __imp_?PrintTimeAndLog@CLog@@QAAXHPADZZ
  00053	83 c4 10	 add	 esp, 16			; 00000010H

; 231  : 		}
; 232  : 	}
; 233  : 
; 234  : 	return false;

  00056	32 c0		 xor	 al, al
  00058	e9 de 00 00 00	 jmp	 $LN13@OnExecuteR
$LN6@OnExecuteR:
  0005d	56		 push	 esi

; 203  : 		}
; 204  : 		break;
; 205  : 	case RESERVEDCMD_WHEN_RECV_ATTENDANCE_REWARD:
; 206  : 		{
; 207  : 			ioTaskAttendanceReward* pReward =  dynamic_cast<ioTaskAttendanceReward*>( pTask );

  0005e	53		 push	 ebx
  0005f	68 00 00 00 00	 push	 OFFSET ??_R0?AUioTaskAttendanceReward@@@8
  00064	68 00 00 00 00	 push	 OFFSET ??_R0?AUioTask@@@8
  00069	53		 push	 ebx
  0006a	57		 push	 edi
  0006b	e8 00 00 00 00	 call	 ___RTDynamicCast
  00070	8b f0		 mov	 esi, eax
  00072	83 c4 14	 add	 esp, 20			; 00000014H

; 208  : 			if( pReward )

  00075	3b f3		 cmp	 esi, ebx
  00077	74 63		 je	 SHORT $LN5@OnExecuteR

; 209  : 			{
; 210  : 				AttendanceWnd* pWnd = dynamic_cast<AttendanceWnd*>( g_GUIMgr.FindWnd( ATTENDANCE_WND ) );

  00079	53		 push	 ebx
  0007a	68 00 00 00 00	 push	 OFFSET ??_R0?AVAttendanceWnd@@@8
  0007f	68 00 00 00 00	 push	 OFFSET ??_R0?AVioWnd@@@8
  00084	53		 push	 ebx
  00085	68 5f 18 00 00	 push	 6239			; 0000185fH
  0008a	e8 00 00 00 00	 call	 ?GetSingleton@ioSP2GUIManager@@SAAAV1@XZ ; ioSP2GUIManager::GetSingleton
  0008f	8b c8		 mov	 ecx, eax
  00091	ff 15 00 00 00
	00		 call	 DWORD PTR __imp_?FindWnd@ioGUIManager@@QAEPAVioWnd@@K@Z
  00097	50		 push	 eax
  00098	e8 00 00 00 00	 call	 ___RTDynamicCast
  0009d	8b c8		 mov	 ecx, eax
  0009f	83 c4 14	 add	 esp, 20			; 00000014H
  000a2	89 4d 08	 mov	 DWORD PTR _pWnd$517758[ebp], ecx

; 211  : 				if( pWnd )

  000a5	3b cb		 cmp	 ecx, ebx
  000a7	74 24		 je	 SHORT $LN4@OnExecuteR

; 212  : 				{
; 213  : 					pWnd->AddAttendanceRecord( pReward->dwDate );

  000a9	ff 76 28	 push	 DWORD PTR [esi+40]
  000ac	e8 00 00 00 00	 call	 ?AddAttendanceRecord@AttendanceWnd@@QAEXK@Z ; AttendanceWnd::AddAttendanceRecord

; 214  : 					pWnd->SetReward( pReward->iTodayPresentType, pReward->iTodayValue1, pReward->iTodayValue2, pReward->iAccruePresentType, pReward->iAccrueValue1, pReward->iAccrueValue2 );					

  000b1	ff 76 24	 push	 DWORD PTR [esi+36]
  000b4	8b 4d 08	 mov	 ecx, DWORD PTR _pWnd$517758[ebp]
  000b7	ff 76 20	 push	 DWORD PTR [esi+32]
  000ba	ff 76 1c	 push	 DWORD PTR [esi+28]
  000bd	ff 76 18	 push	 DWORD PTR [esi+24]
  000c0	ff 76 14	 push	 DWORD PTR [esi+20]
  000c3	ff 76 10	 push	 DWORD PTR [esi+16]
  000c6	e8 00 00 00 00	 call	 ?SetReward@AttendanceWnd@@QAEXHHHHHH@Z ; AttendanceWnd::SetReward

; 215  : 				}
; 216  : 				else

  000cb	eb 2c		 jmp	 SHORT $LN2@OnExecuteR
$LN4@OnExecuteR:

; 217  : 				{
; 218  : 					LOG.PrintTimeAndLog(0, "%s - %d - ATTENDANCE_WND not find", __FUNCTION__, pTask->eWhen );

  000cd	ff 77 08	 push	 DWORD PTR [edi+8]
  000d0	68 00 00 00 00	 push	 OFFSET ??_C@_0CJ@KGELAGJC@ioReservedTask?3?3OnExecuteRecvAtt@
  000d5	68 00 00 00 00	 push	 OFFSET ??_C@_0CC@PMFMNNFN@?$CFs?5?9?5?$CFd?5?9?5ATTENDANCE_WND?5not?5fin@

; 219  : 				}
; 220  : 			}
; 221  : 			else

  000da	eb 0d		 jmp	 SHORT $LN15@OnExecuteR
$LN5@OnExecuteR:

; 222  : 			{
; 223  : 				LOG.PrintTimeAndLog(0, "%s - %d - pTask casting FAIL!!", __FUNCTION__, pTask->eWhen );

  000dc	ff 77 08	 push	 DWORD PTR [edi+8]
  000df	68 00 00 00 00	 push	 OFFSET ??_C@_0CJ@KGELAGJC@ioReservedTask?3?3OnExecuteRecvAtt@
  000e4	68 00 00 00 00	 push	 OFFSET ??_C@_0BP@KPFJJIA@?$CFs?5?9?5?$CFd?5?9?5pTask?5casting?5FAIL?$CB?$CB?$AA@
$LN15@OnExecuteR:
  000e9	53		 push	 ebx
  000ea	ff 35 00 00 00
	00		 push	 DWORD PTR __imp_?LOG@@3VCLog@@A
  000f0	ff 15 00 00 00
	00		 call	 DWORD PTR __imp_?PrintTimeAndLog@CLog@@QAAXHPADZZ
  000f6	83 c4 14	 add	 esp, 20			; 00000014H
$LN2@OnExecuteR:
  000f9	5e		 pop	 esi

; 224  : 			}
; 225  : 			return true;

  000fa	eb 3d		 jmp	 SHORT $LN7@OnExecuteR
$LN9@OnExecuteR:

; 190  : 	{
; 191  : 	case RESERVEDCMD_WHEN_RECV_ATTENDANCE:
; 192  : 		{
; 193  : 			AttendanceWnd* pWnd = (AttendanceWnd*)( g_GUIMgr.FindWnd( ATTENDANCE_WND ) );

  000fc	68 5f 18 00 00	 push	 6239			; 0000185fH
  00101	e8 00 00 00 00	 call	 ?GetSingleton@ioSP2GUIManager@@SAAAV1@XZ ; ioSP2GUIManager::GetSingleton
  00106	8b c8		 mov	 ecx, eax
  00108	ff 15 00 00 00
	00		 call	 DWORD PTR __imp_?FindWnd@ioGUIManager@@QAEPAVioWnd@@K@Z

; 194  : 			if( pWnd )

  0010e	3b c3		 cmp	 eax, ebx
  00110	74 0a		 je	 SHORT $LN8@OnExecuteR

; 195  : 			{
; 196  : 				pWnd->ShowWnd();

  00112	8b c8		 mov	 ecx, eax
  00114	ff 15 00 00 00
	00		 call	 DWORD PTR __imp_?ShowWnd@ioWnd@@QAEXXZ

; 197  : 			}
; 198  : 			else

  0011a	eb 1d		 jmp	 SHORT $LN7@OnExecuteR
$LN8@OnExecuteR:

; 199  : 			{
; 200  : 				LOG.PrintTimeAndLog(0, "%s - %d - ATTENDANCE_WND not find", __FUNCTION__, pTask->eWhen );

  0011c	ff 77 08	 push	 DWORD PTR [edi+8]
  0011f	68 00 00 00 00	 push	 OFFSET ??_C@_0CJ@KGELAGJC@ioReservedTask?3?3OnExecuteRecvAtt@
  00124	68 00 00 00 00	 push	 OFFSET ??_C@_0CC@PMFMNNFN@?$CFs?5?9?5?$CFd?5?9?5ATTENDANCE_WND?5not?5fin@
  00129	53		 push	 ebx
  0012a	ff 35 00 00 00
	00		 push	 DWORD PTR __imp_?LOG@@3VCLog@@A
  00130	ff 15 00 00 00
	00		 call	 DWORD PTR __imp_?PrintTimeAndLog@CLog@@QAAXHPADZZ
  00136	83 c4 14	 add	 esp, 20			; 00000014H
$LN7@OnExecuteR:

; 201  : 			}
; 202  : 			return true;

  00139	b0 01		 mov	 al, 1
$LN13@OnExecuteR:
  0013b	5f		 pop	 edi
  0013c	5b		 pop	 ebx

; 235  : }

  0013d	5d		 pop	 ebp
  0013e	c2 04 00	 ret	 4
?OnExecuteRecvAtttendance@ioReservedTask@@IAE_NPAUioTask@@@Z ENDP ; ioReservedTask::OnExecuteRecvAtttendance
_TEXT	ENDS
PUBLIC	??_C@_0BJ@PJHLDKBF@?$CFs?5?3?5Show?5Tournament?5wnd?$AA@ ; `string'
PUBLIC	??_C@_0CI@GPNCPILP@ioReservedTask?3?3OnExecuteRecvTou@ ; `string'
PUBLIC	??_R0?AVTournamentAlarmMainRewardWnd@@@8	; TournamentAlarmMainRewardWnd `RTTI Type Descriptor'
PUBLIC	??_R0?AUioTaskTournamentReward@@@8		; ioTaskTournamentReward `RTTI Type Descriptor'
PUBLIC	?OnExecuteRecvTournament@ioReservedTask@@IAE_NPAUioTask@@@Z ; ioReservedTask::OnExecuteRecvTournament
EXTRN	?QuestOccurTerm@ioQuestManager@@QAEXW4QuestOccur@@HHH@Z:PROC ; ioQuestManager::QuestOccurTerm
EXTRN	?QuestCompleteTerm@ioQuestManager@@QAEXW4QuestComplete@@HHH@Z:PROC ; ioQuestManager::QuestCompleteTerm
EXTRN	?GetSingleton@ioQuestManager@@SAAAV1@XZ:PROC	; ioQuestManager::GetSingleton
EXTRN	?SetRewardInfo@TournamentAlarmMainRewardWnd@@QAEXEKHHHHHKABVioHashString@@@Z:PROC ; TournamentAlarmMainRewardWnd::SetRewardInfo
;	COMDAT ??_C@_0BJ@PJHLDKBF@?$CFs?5?3?5Show?5Tournament?5wnd?$AA@
CONST	SEGMENT
??_C@_0BJ@PJHLDKBF@?$CFs?5?3?5Show?5Tournament?5wnd?$AA@ DB '%s : Show To'
	DB	'urnament wnd', 00H				; `string'
CONST	ENDS
;	COMDAT ??_C@_0CI@GPNCPILP@ioReservedTask?3?3OnExecuteRecvTou@
CONST	SEGMENT
??_C@_0CI@GPNCPILP@ioReservedTask?3?3OnExecuteRecvTou@ DB 'ioReservedTask'
	DB	'::OnExecuteRecvTournament', 00H		; `string'
CONST	ENDS
;	COMDAT ??_R0?AVTournamentAlarmMainRewardWnd@@@8
_DATA	SEGMENT
??_R0?AVTournamentAlarmMainRewardWnd@@@8 DD FLAT:??_7type_info@@6B@ ; TournamentAlarmMainRewardWnd `RTTI Type Descriptor'
	DD	00H
	DB	'.?AVTournamentAlarmMainRewardWnd@@', 00H
_DATA	ENDS
;	COMDAT ??_R0?AUioTaskTournamentReward@@@8
_DATA	SEGMENT
??_R0?AUioTaskTournamentReward@@@8 DD FLAT:??_7type_info@@6B@ ; ioTaskTournamentReward `RTTI Type Descriptor'
	DD	00H
	DB	'.?AUioTaskTournamentReward@@', 00H
; Function compile flags: /Ogsp
_DATA	ENDS
;	COMDAT ?OnExecuteRecvTournament@ioReservedTask@@IAE_NPAUioTask@@@Z
_TEXT	SEGMENT
_pTask$ = 8						; size = 4
?OnExecuteRecvTournament@ioReservedTask@@IAE_NPAUioTask@@@Z PROC ; ioReservedTask::OnExecuteRecvTournament, COMDAT
; _this$ = ecx

; 283  : {

  00000	55		 push	 ebp
  00001	8b ec		 mov	 ebp, esp

; 284  : 	switch( pTask->eWhen )

  00003	8b 45 08	 mov	 eax, DWORD PTR _pTask$[ebp]
  00006	83 78 08 07	 cmp	 DWORD PTR [eax+8], 7
  0000a	0f 85 c4 00 00
	00		 jne	 $LN2@OnExecuteR@2

; 285  : 	{
; 286  : 	case RESERVEDCMD_WHEN_RECV_TOURNAEMNT_REWARD:
; 287  : 		{
; 288  : 			ioTaskTournamentReward* pReward =  dynamic_cast<ioTaskTournamentReward*>( pTask );

  00010	56		 push	 esi
  00011	57		 push	 edi
  00012	33 ff		 xor	 edi, edi
  00014	57		 push	 edi
  00015	68 00 00 00 00	 push	 OFFSET ??_R0?AUioTaskTournamentReward@@@8
  0001a	68 00 00 00 00	 push	 OFFSET ??_R0?AUioTask@@@8
  0001f	57		 push	 edi
  00020	50		 push	 eax
  00021	e8 00 00 00 00	 call	 ___RTDynamicCast
  00026	8b f0		 mov	 esi, eax
  00028	83 c4 14	 add	 esp, 20			; 00000014H

; 289  : 			if( pReward )

  0002b	3b f7		 cmp	 esi, edi
  0002d	0f 84 9f 00 00
	00		 je	 $LN9@OnExecuteR@2

; 290  : 			{
; 291  : 				// 보상 UI 표시만한다. 선물함에 이미 들어있음
; 292  : 				TournamentAlarmMainRewardWnd* pWnd = dynamic_cast<TournamentAlarmMainRewardWnd*>( g_GUIMgr.FindWnd( TOURNAMENT_REWARD_ALARM_WND ) );

  00033	53		 push	 ebx
  00034	57		 push	 edi
  00035	68 00 00 00 00	 push	 OFFSET ??_R0?AVTournamentAlarmMainRewardWnd@@@8
  0003a	68 00 00 00 00	 push	 OFFSET ??_R0?AVioWnd@@@8
  0003f	57		 push	 edi
  00040	68 3f 18 00 00	 push	 6207			; 0000183fH
  00045	e8 00 00 00 00	 call	 ?GetSingleton@ioSP2GUIManager@@SAAAV1@XZ ; ioSP2GUIManager::GetSingleton
  0004a	8b c8		 mov	 ecx, eax
  0004c	ff 15 00 00 00
	00		 call	 DWORD PTR __imp_?FindWnd@ioGUIManager@@QAEPAVioWnd@@K@Z
  00052	50		 push	 eax
  00053	e8 00 00 00 00	 call	 ___RTDynamicCast
  00058	8b d8		 mov	 ebx, eax
  0005a	83 c4 14	 add	 esp, 20			; 00000014H

; 293  : 				if( pWnd )

  0005d	3b df		 cmp	 ebx, edi
  0005f	74 70		 je	 SHORT $LN11@OnExecuteR@2

; 294  : 				{
; 295  : 					pWnd->SetRewardInfo( pReward->AttainTourPos,
; 296  : 										 pReward->dwStartDate,
; 297  : 										 pReward->iMyCampPos,
; 298  : 										 pReward->iWinCampPos,
; 299  : 										 pReward->iLadderBonusPeso,
; 300  : 										 pReward->iLadderRank,
; 301  : 										 pReward->iLadderPoint,
; 302  : 										 pReward->dwCheerPeso,
; 303  : 										 pReward->szWinnerTeamName );

  00061	8d 46 30	 lea	 eax, DWORD PTR [esi+48]
  00064	50		 push	 eax
  00065	ff 76 18	 push	 DWORD PTR [esi+24]
  00068	0f b6 46 10	 movzx	 eax, BYTE PTR [esi+16]
  0006c	ff 76 2c	 push	 DWORD PTR [esi+44]
  0006f	8b cb		 mov	 ecx, ebx
  00071	ff 76 28	 push	 DWORD PTR [esi+40]
  00074	ff 76 24	 push	 DWORD PTR [esi+36]
  00077	ff 76 20	 push	 DWORD PTR [esi+32]
  0007a	ff 76 1c	 push	 DWORD PTR [esi+28]
  0007d	ff 76 14	 push	 DWORD PTR [esi+20]
  00080	50		 push	 eax
  00081	e8 00 00 00 00	 call	 ?SetRewardInfo@TournamentAlarmMainRewardWnd@@QAEXEKHHHHHKABVioHashString@@@Z ; TournamentAlarmMainRewardWnd::SetRewardInfo

; 304  : 					pWnd->ShowWnd();

  00086	8b cb		 mov	 ecx, ebx
  00088	ff 15 00 00 00
	00		 call	 DWORD PTR __imp_?ShowWnd@ioWnd@@QAEXXZ

; 305  : 
; 306  : 					if( pReward->iLadderPoint > 0 )

  0008e	39 7e 2c	 cmp	 DWORD PTR [esi+44], edi
  00091	7e 24		 jle	 SHORT $LN1@OnExecuteR@2

; 307  : 					{
; 308  : 						g_QuestMgr.QuestCompleteTerm( QC_CAMP_SEASON_REWARD, RESERVEDCMD_TYPE_TOURNAMENT, RESERVEDCMD_WHEN_RECV_TOURNAEMNT_REWARD );

  00093	57		 push	 edi
  00094	6a 07		 push	 7
  00096	6a 04		 push	 4
  00098	6a 20		 push	 32			; 00000020H
  0009a	e8 00 00 00 00	 call	 ?GetSingleton@ioQuestManager@@SAAAV1@XZ ; ioQuestManager::GetSingleton
  0009f	8b c8		 mov	 ecx, eax
  000a1	e8 00 00 00 00	 call	 ?QuestCompleteTerm@ioQuestManager@@QAEXW4QuestComplete@@HHH@Z ; ioQuestManager::QuestCompleteTerm

; 309  : 						g_QuestMgr.QuestOccurTerm( QO_CAMP_SEASON_REWARD );						

  000a6	57		 push	 edi
  000a7	57		 push	 edi
  000a8	57		 push	 edi
  000a9	6a 15		 push	 21			; 00000015H
  000ab	e8 00 00 00 00	 call	 ?GetSingleton@ioQuestManager@@SAAAV1@XZ ; ioQuestManager::GetSingleton
  000b0	8b c8		 mov	 ecx, eax
  000b2	e8 00 00 00 00	 call	 ?QuestOccurTerm@ioQuestManager@@QAEXW4QuestOccur@@HHH@Z ; ioQuestManager::QuestOccurTerm
$LN1@OnExecuteR@2:

; 310  : 					}
; 311  : 					LOG.PrintTimeAndLog( 0 , "%s : Show Tournament wnd", __FUNCTION__ );

  000b7	68 00 00 00 00	 push	 OFFSET ??_C@_0CI@GPNCPILP@ioReservedTask?3?3OnExecuteRecvTou@
  000bc	68 00 00 00 00	 push	 OFFSET ??_C@_0BJ@PJHLDKBF@?$CFs?5?3?5Show?5Tournament?5wnd?$AA@
  000c1	57		 push	 edi
  000c2	ff 35 00 00 00
	00		 push	 DWORD PTR __imp_?LOG@@3VCLog@@A
  000c8	ff 15 00 00 00
	00		 call	 DWORD PTR __imp_?PrintTimeAndLog@CLog@@QAAXHPADZZ
  000ce	83 c4 10	 add	 esp, 16			; 00000010H
$LN11@OnExecuteR@2:
  000d1	5b		 pop	 ebx
$LN9@OnExecuteR@2:
  000d2	5f		 pop	 edi
  000d3	5e		 pop	 esi
$LN2@OnExecuteR@2:

; 312  : 				}
; 313  : 			}
; 314  : 		}
; 315  : 		break;
; 316  : 	}
; 317  : 
; 318  : 	return true;

  000d4	b0 01		 mov	 al, 1

; 319  : }

  000d6	5d		 pop	 ebp
  000d7	c2 04 00	 ret	 4
?OnExecuteRecvTournament@ioReservedTask@@IAE_NPAUioTask@@@Z ENDP ; ioReservedTask::OnExecuteRecvTournament
_TEXT	ENDS
PUBLIC	??_R0?AVRollBookWnd@@@8				; RollBookWnd `RTTI Type Descriptor'
PUBLIC	??_R0?AUioTaskRollBook@@@8			; ioTaskRollBook `RTTI Type Descriptor'
PUBLIC	??_C@_0CG@DJCAMKNN@ioReservedTask?3?3OnExecuteRecvRol@ ; `string'
PUBLIC	?OnExecuteRecvRollBook@ioReservedTask@@IAE_NPAUioTask@@@Z ; ioReservedTask::OnExecuteRecvRollBook
EXTRN	?SettingRollBookByPacket@RollBookWnd@@QAEXKHHH@Z:PROC ; RollBookWnd::SettingRollBookByPacket
;	COMDAT ??_R0?AVRollBookWnd@@@8
_DATA	SEGMENT
??_R0?AVRollBookWnd@@@8 DD FLAT:??_7type_info@@6B@	; RollBookWnd `RTTI Type Descriptor'
	DD	00H
	DB	'.?AVRollBookWnd@@', 00H
_DATA	ENDS
;	COMDAT ??_R0?AUioTaskRollBook@@@8
_DATA	SEGMENT
??_R0?AUioTaskRollBook@@@8 DD FLAT:??_7type_info@@6B@	; ioTaskRollBook `RTTI Type Descriptor'
	DD	00H
	DB	'.?AUioTaskRollBook@@', 00H
_DATA	ENDS
;	COMDAT ??_C@_0CG@DJCAMKNN@ioReservedTask?3?3OnExecuteRecvRol@
CONST	SEGMENT
??_C@_0CG@DJCAMKNN@ioReservedTask?3?3OnExecuteRecvRol@ DB 'ioReservedTask'
	DB	'::OnExecuteRecvRollBook', 00H		; `string'
; Function compile flags: /Ogsp
CONST	ENDS
;	COMDAT ?OnExecuteRecvRollBook@ioReservedTask@@IAE_NPAUioTask@@@Z
_TEXT	SEGMENT
_pTask$ = 8						; size = 4
?OnExecuteRecvRollBook@ioReservedTask@@IAE_NPAUioTask@@@Z PROC ; ioReservedTask::OnExecuteRecvRollBook, COMDAT
; _this$ = ecx

; 322  : {

  00000	55		 push	 ebp
  00001	8b ec		 mov	 ebp, esp
  00003	53		 push	 ebx
  00004	57		 push	 edi

; 323  : 	if( !pTask )

  00005	8b 7d 08	 mov	 edi, DWORD PTR _pTask$[ebp]
  00008	33 db		 xor	 ebx, ebx
  0000a	3b fb		 cmp	 edi, ebx
  0000c	75 1f		 jne	 SHORT $LN9@OnExecuteR@3

; 324  : 	{
; 325  : 		LOG.PrintTimeAndLog(0, "%s - pTask == NULL", __FUNCTION__ );

  0000e	68 00 00 00 00	 push	 OFFSET ??_C@_0CG@DJCAMKNN@ioReservedTask?3?3OnExecuteRecvRol@
  00013	68 00 00 00 00	 push	 OFFSET ??_C@_0BD@BEBFNMFK@?$CFs?5?9?5pTask?5?$DN?$DN?5NULL?$AA@
  00018	53		 push	 ebx
  00019	ff 35 00 00 00
	00		 push	 DWORD PTR __imp_?LOG@@3VCLog@@A
  0001f	ff 15 00 00 00
	00		 call	 DWORD PTR __imp_?PrintTimeAndLog@CLog@@QAAXHPADZZ
  00025	83 c4 10	 add	 esp, 16			; 00000010H

; 326  : 		return true;

  00028	e9 b0 00 00 00	 jmp	 $LN12@OnExecuteR@3
$LN9@OnExecuteR@3:

; 327  : 	}
; 328  : 
; 329  : 	switch( pTask->eWhen )

  0002d	83 7f 08 08	 cmp	 DWORD PTR [edi+8], 8
  00031	74 21		 je	 SHORT $LN6@OnExecuteR@3

; 351  : 		}
; 352  : 		break;
; 353  : 	default:
; 354  : 		{
; 355  : 			LOG.PrintTimeAndLog(0, "%s - UNKOWN TYPE", __FUNCTION__ );

  00033	68 00 00 00 00	 push	 OFFSET ??_C@_0CG@DJCAMKNN@ioReservedTask?3?3OnExecuteRecvRol@
  00038	68 00 00 00 00	 push	 OFFSET ??_C@_0BB@MKFOMIFN@?$CFs?5?9?5UNKOWN?5TYPE?$AA@
  0003d	53		 push	 ebx
  0003e	ff 35 00 00 00
	00		 push	 DWORD PTR __imp_?LOG@@3VCLog@@A
  00044	ff 15 00 00 00
	00		 call	 DWORD PTR __imp_?PrintTimeAndLog@CLog@@QAAXHPADZZ
  0004a	83 c4 10	 add	 esp, 16			; 00000010H

; 356  : 		}
; 357  : 	}
; 358  : 
; 359  : 	return false;

  0004d	32 c0		 xor	 al, al
  0004f	e9 8b 00 00 00	 jmp	 $LN10@OnExecuteR@3
$LN6@OnExecuteR@3:
  00054	56		 push	 esi

; 330  : 	{
; 331  : 	case RESERVEDCMD_WHEN_ROLLBOOK:
; 332  : 		{
; 333  : 			ioTaskRollBook* pRollBookTask =  dynamic_cast<ioTaskRollBook*>( pTask );

  00055	53		 push	 ebx
  00056	68 00 00 00 00	 push	 OFFSET ??_R0?AUioTaskRollBook@@@8
  0005b	68 00 00 00 00	 push	 OFFSET ??_R0?AUioTask@@@8
  00060	53		 push	 ebx
  00061	57		 push	 edi
  00062	e8 00 00 00 00	 call	 ___RTDynamicCast
  00067	8b f0		 mov	 esi, eax
  00069	83 c4 14	 add	 esp, 20			; 00000014H

; 334  : 			if( pRollBookTask )

  0006c	3b f3		 cmp	 esi, ebx
  0006e	74 4f		 je	 SHORT $LN5@OnExecuteR@3

; 335  : 			{
; 336  : 				RollBookWnd* pWnd = dynamic_cast<RollBookWnd*>( g_GUIMgr.FindWnd( ROLLBOOK_WND ) );

  00070	53		 push	 ebx
  00071	68 00 00 00 00	 push	 OFFSET ??_R0?AVRollBookWnd@@@8
  00076	68 00 00 00 00	 push	 OFFSET ??_R0?AVioWnd@@@8
  0007b	53		 push	 ebx
  0007c	68 80 18 00 00	 push	 6272			; 00001880H
  00081	e8 00 00 00 00	 call	 ?GetSingleton@ioSP2GUIManager@@SAAAV1@XZ ; ioSP2GUIManager::GetSingleton
  00086	8b c8		 mov	 ecx, eax
  00088	ff 15 00 00 00
	00		 call	 DWORD PTR __imp_?FindWnd@ioGUIManager@@QAEPAVioWnd@@K@Z
  0008e	50		 push	 eax
  0008f	e8 00 00 00 00	 call	 ___RTDynamicCast
  00094	83 c4 14	 add	 esp, 20			; 00000014H

; 337  : 				if( pWnd )

  00097	3b c3		 cmp	 eax, ebx
  00099	74 15		 je	 SHORT $LN4@OnExecuteR@3

; 338  : 				{
; 339  : 					pWnd->SettingRollBookByPacket( pRollBookTask->dwReceiveTime, pRollBookTask->iState, pRollBookTask->iTablePage, pRollBookTask->iPosition );

  0009b	ff 76 1c	 push	 DWORD PTR [esi+28]
  0009e	8b c8		 mov	 ecx, eax
  000a0	ff 76 18	 push	 DWORD PTR [esi+24]
  000a3	ff 76 14	 push	 DWORD PTR [esi+20]
  000a6	ff 76 10	 push	 DWORD PTR [esi+16]
  000a9	e8 00 00 00 00	 call	 ?SettingRollBookByPacket@RollBookWnd@@QAEXKHHH@Z ; RollBookWnd::SettingRollBookByPacket

; 340  : 				}
; 341  : 				else

  000ae	eb 2c		 jmp	 SHORT $LN2@OnExecuteR@3
$LN4@OnExecuteR@3:

; 342  : 				{
; 343  : 					LOG.PrintTimeAndLog(0, "%s - %d - ATTENDANCE_WND not find", __FUNCTION__, pTask->eWhen );

  000b0	ff 77 08	 push	 DWORD PTR [edi+8]
  000b3	68 00 00 00 00	 push	 OFFSET ??_C@_0CG@DJCAMKNN@ioReservedTask?3?3OnExecuteRecvRol@
  000b8	68 00 00 00 00	 push	 OFFSET ??_C@_0CC@PMFMNNFN@?$CFs?5?9?5?$CFd?5?9?5ATTENDANCE_WND?5not?5fin@

; 344  : 				}
; 345  : 			}
; 346  : 			else

  000bd	eb 0d		 jmp	 SHORT $LN13@OnExecuteR@3
$LN5@OnExecuteR@3:

; 347  : 			{
; 348  : 				LOG.PrintTimeAndLog(0, "%s - %d - pTask casting FAIL!!", __FUNCTION__, pTask->eWhen );

  000bf	ff 77 08	 push	 DWORD PTR [edi+8]
  000c2	68 00 00 00 00	 push	 OFFSET ??_C@_0CG@DJCAMKNN@ioReservedTask?3?3OnExecuteRecvRol@
  000c7	68 00 00 00 00	 push	 OFFSET ??_C@_0BP@KPFJJIA@?$CFs?5?9?5?$CFd?5?9?5pTask?5casting?5FAIL?$CB?$CB?$AA@
$LN13@OnExecuteR@3:
  000cc	53		 push	 ebx
  000cd	ff 35 00 00 00
	00		 push	 DWORD PTR __imp_?LOG@@3VCLog@@A
  000d3	ff 15 00 00 00
	00		 call	 DWORD PTR __imp_?PrintTimeAndLog@CLog@@QAAXHPADZZ
  000d9	83 c4 14	 add	 esp, 20			; 00000014H
$LN2@OnExecuteR@3:
  000dc	5e		 pop	 esi
$LN12@OnExecuteR@3:

; 349  : 			}
; 350  : 			return true;

  000dd	b0 01		 mov	 al, 1
$LN10@OnExecuteR@3:
  000df	5f		 pop	 edi
  000e0	5b		 pop	 ebx

; 360  : }

  000e1	5d		 pop	 ebp
  000e2	c2 04 00	 ret	 4
?OnExecuteRecvRollBook@ioReservedTask@@IAE_NPAUioTask@@@Z ENDP ; ioReservedTask::OnExecuteRecvRollBook
_TEXT	ENDS
PUBLIC	??_C@_0CB@BLMFOKCI@?$CFs?5?3?5Show?5Guild?5Rank?5Reward?5wnd?5@ ; `string'
PUBLIC	??_R0?AVGuildRankRewardWnd@@@8			; GuildRankRewardWnd `RTTI Type Descriptor'
PUBLIC	??_R0?AUioTaskGuildRankReward@@@8		; ioTaskGuildRankReward `RTTI Type Descriptor'
PUBLIC	??_C@_0CM@JGFKAHAP@ioReservedTask?3?3OnExecuteRecvGul@ ; `string'
PUBLIC	?OnExecuteRecvGuldRankReward@ioReservedTask@@IAE_NPAUioTask@@@Z ; ioReservedTask::OnExecuteRecvGuldRankReward
EXTRN	?SettingRewardInfo@GuildRankRewardWnd@@QAEXHFHH@Z:PROC ; GuildRankRewardWnd::SettingRewardInfo
EXTRN	?GetMyGuildLevel@ioGuildInfo@@QAEKXZ:PROC	; ioGuildInfo::GetMyGuildLevel
EXTRN	?GetSingleton@ioGuildInfo@@SAAAV1@XZ:PROC	; ioGuildInfo::GetSingleton
;	COMDAT ??_C@_0CB@BLMFOKCI@?$CFs?5?3?5Show?5Guild?5Rank?5Reward?5wnd?5@
CONST	SEGMENT
??_C@_0CB@BLMFOKCI@?$CFs?5?3?5Show?5Guild?5Rank?5Reward?5wnd?5@ DB '%s : '
	DB	'Show Guild Rank Reward wnd ', 00H		; `string'
CONST	ENDS
;	COMDAT ??_R0?AVGuildRankRewardWnd@@@8
_DATA	SEGMENT
??_R0?AVGuildRankRewardWnd@@@8 DD FLAT:??_7type_info@@6B@ ; GuildRankRewardWnd `RTTI Type Descriptor'
	DD	00H
	DB	'.?AVGuildRankRewardWnd@@', 00H
_DATA	ENDS
;	COMDAT ??_R0?AUioTaskGuildRankReward@@@8
_DATA	SEGMENT
??_R0?AUioTaskGuildRankReward@@@8 DD FLAT:??_7type_info@@6B@ ; ioTaskGuildRankReward `RTTI Type Descriptor'
	DD	00H
	DB	'.?AUioTaskGuildRankReward@@', 00H
_DATA	ENDS
;	COMDAT ??_C@_0CM@JGFKAHAP@ioReservedTask?3?3OnExecuteRecvGul@
CONST	SEGMENT
??_C@_0CM@JGFKAHAP@ioReservedTask?3?3OnExecuteRecvGul@ DB 'ioReservedTask'
	DB	'::OnExecuteRecvGuldRankReward', 00H		; `string'
; Function compile flags: /Ogsp
CONST	ENDS
;	COMDAT ?OnExecuteRecvGuldRankReward@ioReservedTask@@IAE_NPAUioTask@@@Z
_TEXT	SEGMENT
_pTask$ = 8						; size = 4
?OnExecuteRecvGuldRankReward@ioReservedTask@@IAE_NPAUioTask@@@Z PROC ; ioReservedTask::OnExecuteRecvGuldRankReward, COMDAT
; _this$ = ecx

; 363  : {

  00000	55		 push	 ebp
  00001	8b ec		 mov	 ebp, esp
  00003	53		 push	 ebx
  00004	57		 push	 edi

; 364  : 	if( !pTask )

  00005	8b 7d 08	 mov	 edi, DWORD PTR _pTask$[ebp]
  00008	33 db		 xor	 ebx, ebx
  0000a	3b fb		 cmp	 edi, ebx
  0000c	75 1f		 jne	 SHORT $LN8@OnExecuteR@4

; 365  : 	{
; 366  : 		LOG.PrintTimeAndLog(0, "%s - pTask == NULL", __FUNCTION__ );

  0000e	68 00 00 00 00	 push	 OFFSET ??_C@_0CM@JGFKAHAP@ioReservedTask?3?3OnExecuteRecvGul@
  00013	68 00 00 00 00	 push	 OFFSET ??_C@_0BD@BEBFNMFK@?$CFs?5?9?5pTask?5?$DN?$DN?5NULL?$AA@
  00018	53		 push	 ebx
  00019	ff 35 00 00 00
	00		 push	 DWORD PTR __imp_?LOG@@3VCLog@@A
  0001f	ff 15 00 00 00
	00		 call	 DWORD PTR __imp_?PrintTimeAndLog@CLog@@QAAXHPADZZ
  00025	83 c4 10	 add	 esp, 16			; 00000010H

; 367  : 		return true;

  00028	e9 c9 00 00 00	 jmp	 $LN11@OnExecuteR@4
$LN8@OnExecuteR@4:

; 368  : 	}
; 369  : 
; 370  : 	switch( pTask->eWhen )

  0002d	83 7f 08 09	 cmp	 DWORD PTR [edi+8], 9
  00031	74 21		 je	 SHORT $LN5@OnExecuteR@4

; 389  : 		}
; 390  : 		break;
; 391  : 	default:
; 392  : 		{
; 393  : 			LOG.PrintTimeAndLog(0, "%s - UNKOWN TYPE", __FUNCTION__ );

  00033	68 00 00 00 00	 push	 OFFSET ??_C@_0CM@JGFKAHAP@ioReservedTask?3?3OnExecuteRecvGul@
  00038	68 00 00 00 00	 push	 OFFSET ??_C@_0BB@MKFOMIFN@?$CFs?5?9?5UNKOWN?5TYPE?$AA@
  0003d	53		 push	 ebx
  0003e	ff 35 00 00 00
	00		 push	 DWORD PTR __imp_?LOG@@3VCLog@@A
  00044	ff 15 00 00 00
	00		 call	 DWORD PTR __imp_?PrintTimeAndLog@CLog@@QAAXHPADZZ
  0004a	83 c4 10	 add	 esp, 16			; 00000010H

; 394  : 		}
; 395  : 	}
; 396  : 
; 397  : 	return false;

  0004d	32 c0		 xor	 al, al
  0004f	e9 a4 00 00 00	 jmp	 $LN9@OnExecuteR@4
$LN5@OnExecuteR@4:
  00054	56		 push	 esi

; 371  : 	{
; 372  : 	case RESERVEDCMD_WHEN_RECV_GUILD_RANK_REWARD:
; 373  : 		{
; 374  : 			ioTaskGuildRankReward* pGulildRankRewardTask =  dynamic_cast<ioTaskGuildRankReward*>( pTask );

  00055	53		 push	 ebx
  00056	68 00 00 00 00	 push	 OFFSET ??_R0?AUioTaskGuildRankReward@@@8
  0005b	68 00 00 00 00	 push	 OFFSET ??_R0?AUioTask@@@8
  00060	53		 push	 ebx
  00061	57		 push	 edi
  00062	e8 00 00 00 00	 call	 ___RTDynamicCast
  00067	8b f0		 mov	 esi, eax
  00069	83 c4 14	 add	 esp, 20			; 00000014H

; 375  : 			if( pGulildRankRewardTask )

  0006c	3b f3		 cmp	 esi, ebx
  0006e	74 68		 je	 SHORT $LN4@OnExecuteR@4

; 376  : 			{
; 377  : 				GuildRankRewardWnd *pGuildRankRewardWnd = dynamic_cast< GuildRankRewardWnd* >( g_GUIMgr.FindWnd( GUILD_RANK_REWARD_WND ) );

  00070	53		 push	 ebx
  00071	68 00 00 00 00	 push	 OFFSET ??_R0?AVGuildRankRewardWnd@@@8
  00076	68 00 00 00 00	 push	 OFFSET ??_R0?AVioWnd@@@8
  0007b	53		 push	 ebx
  0007c	68 83 18 00 00	 push	 6275			; 00001883H
  00081	e8 00 00 00 00	 call	 ?GetSingleton@ioSP2GUIManager@@SAAAV1@XZ ; ioSP2GUIManager::GetSingleton
  00086	8b c8		 mov	 ecx, eax
  00088	ff 15 00 00 00
	00		 call	 DWORD PTR __imp_?FindWnd@ioGUIManager@@QAEPAVioWnd@@K@Z
  0008e	50		 push	 eax
  0008f	e8 00 00 00 00	 call	 ___RTDynamicCast
  00094	8b f8		 mov	 edi, eax
  00096	83 c4 14	 add	 esp, 20			; 00000014H

; 378  : 				if( pGuildRankRewardWnd )

  00099	3b fb		 cmp	 edi, ebx
  0009b	74 1f		 je	 SHORT $LN3@OnExecuteR@4

; 379  : 					pGuildRankRewardWnd->SettingRewardInfo( g_GuildInfo.GetMyGuildLevel(), 
; 380  : 						(short)pGulildRankRewardTask->iPresentType, pGulildRankRewardTask->iPresentValue1, pGulildRankRewardTask->iPresentValue2 );

  0009d	ff 76 18	 push	 DWORD PTR [esi+24]
  000a0	0f b7 46 10	 movzx	 eax, WORD PTR [esi+16]
  000a4	ff 76 14	 push	 DWORD PTR [esi+20]
  000a7	50		 push	 eax
  000a8	e8 00 00 00 00	 call	 ?GetSingleton@ioGuildInfo@@SAAAV1@XZ ; ioGuildInfo::GetSingleton
  000ad	8b c8		 mov	 ecx, eax
  000af	e8 00 00 00 00	 call	 ?GetMyGuildLevel@ioGuildInfo@@QAEKXZ ; ioGuildInfo::GetMyGuildLevel
  000b4	50		 push	 eax
  000b5	8b cf		 mov	 ecx, edi
  000b7	e8 00 00 00 00	 call	 ?SettingRewardInfo@GuildRankRewardWnd@@QAEXHFHH@Z ; GuildRankRewardWnd::SettingRewardInfo
$LN3@OnExecuteR@4:

; 381  : 
; 382  : 				LOG.PrintTimeAndLog( 0 , "%s : Show Guild Rank Reward wnd ", __FUNCTION__ );

  000bc	68 00 00 00 00	 push	 OFFSET ??_C@_0CM@JGFKAHAP@ioReservedTask?3?3OnExecuteRecvGul@
  000c1	68 00 00 00 00	 push	 OFFSET ??_C@_0CB@BLMFOKCI@?$CFs?5?3?5Show?5Guild?5Rank?5Reward?5wnd?5@
  000c6	53		 push	 ebx
  000c7	ff 35 00 00 00
	00		 push	 DWORD PTR __imp_?LOG@@3VCLog@@A
  000cd	ff 15 00 00 00
	00		 call	 DWORD PTR __imp_?PrintTimeAndLog@CLog@@QAAXHPADZZ
  000d3	83 c4 10	 add	 esp, 16			; 00000010H

; 383  : 			}
; 384  : 			else

  000d6	eb 1d		 jmp	 SHORT $LN2@OnExecuteR@4
$LN4@OnExecuteR@4:

; 385  : 			{
; 386  : 				LOG.PrintTimeAndLog(0, "%s - %d - pTask casting FAIL!!", __FUNCTION__, pTask->eWhen );

  000d8	ff 77 08	 push	 DWORD PTR [edi+8]
  000db	68 00 00 00 00	 push	 OFFSET ??_C@_0CM@JGFKAHAP@ioReservedTask?3?3OnExecuteRecvGul@
  000e0	68 00 00 00 00	 push	 OFFSET ??_C@_0BP@KPFJJIA@?$CFs?5?9?5?$CFd?5?9?5pTask?5casting?5FAIL?$CB?$CB?$AA@
  000e5	53		 push	 ebx
  000e6	ff 35 00 00 00
	00		 push	 DWORD PTR __imp_?LOG@@3VCLog@@A
  000ec	ff 15 00 00 00
	00		 call	 DWORD PTR __imp_?PrintTimeAndLog@CLog@@QAAXHPADZZ
  000f2	83 c4 14	 add	 esp, 20			; 00000014H
$LN2@OnExecuteR@4:
  000f5	5e		 pop	 esi
$LN11@OnExecuteR@4:

; 387  : 			}
; 388  : 			return true;

  000f6	b0 01		 mov	 al, 1
$LN9@OnExecuteR@4:
  000f8	5f		 pop	 edi
  000f9	5b		 pop	 ebx

; 398  : }

  000fa	5d		 pop	 ebp
  000fb	c2 04 00	 ret	 4
?OnExecuteRecvGuldRankReward@ioReservedTask@@IAE_NPAUioTask@@@Z ENDP ; ioReservedTask::OnExecuteRecvGuldRankReward
_TEXT	ENDS
PUBLIC	??0?$Singleton@VioReservedTask@@@@QAE@XZ	; Singleton<ioReservedTask>::Singleton<ioReservedTask>
; Function compile flags: /Ogsp
; File d:\lost saga for developer\youtube\tutorial\source\src\io3dengine\iosingleton.h
;	COMDAT ??0?$Singleton@VioReservedTask@@@@QAE@XZ
_TEXT	SEGMENT
??0?$Singleton@VioReservedTask@@@@QAE@XZ PROC		; Singleton<ioReservedTask>::Singleton<ioReservedTask>, COMDAT
; _this$ = ecx

; 27   : 	Singleton()

  00000	8b c1		 mov	 eax, ecx

; 28   : 	{
; 29   : 		assert( !ms_Singleton );
; 30   : 		int offset = (int)(T*)1 - (int)(Singleton <T>*)(T*)1;
; 31   : 		ms_Singleton = (T*)((int)this + offset);

  00002	8d 48 fc	 lea	 ecx, DWORD PTR [eax-4]
  00005	89 0d 00 00 00
	00		 mov	 DWORD PTR ?ms_Singleton@?$Singleton@VioReservedTask@@@@1PAVioReservedTask@@A, ecx ; Singleton<ioReservedTask>::ms_Singleton

; 32   : 	}

  0000b	c3		 ret	 0
??0?$Singleton@VioReservedTask@@@@QAE@XZ ENDP		; Singleton<ioReservedTask>::Singleton<ioReservedTask>
_TEXT	ENDS
PUBLIC	??1?$Singleton@VioReservedTask@@@@QAE@XZ	; Singleton<ioReservedTask>::~Singleton<ioReservedTask>
; Function compile flags: /Ogsp
;	COMDAT ??1?$Singleton@VioReservedTask@@@@QAE@XZ
_TEXT	SEGMENT
??1?$Singleton@VioReservedTask@@@@QAE@XZ PROC		; Singleton<ioReservedTask>::~Singleton<ioReservedTask>, COMDAT
; _this$ = ecx

; 36   : 		assert( ms_Singleton );
; 37   : 		ms_Singleton = 0;

  00000	83 25 00 00 00
	00 00		 and	 DWORD PTR ?ms_Singleton@?$Singleton@VioReservedTask@@@@1PAVioReservedTask@@A, 0 ; Singleton<ioReservedTask>::ms_Singleton

; 38   : 	}

  00007	c3		 ret	 0
??1?$Singleton@VioReservedTask@@@@QAE@XZ ENDP		; Singleton<ioReservedTask>::~Singleton<ioReservedTask>
_TEXT	ENDS
PUBLIC	?GetSingleton@?$Singleton@VioReservedTask@@@@SAAAVioReservedTask@@XZ ; Singleton<ioReservedTask>::GetSingleton
; Function compile flags: /Ogsp
;	COMDAT ?GetSingleton@?$Singleton@VioReservedTask@@@@SAAAVioReservedTask@@XZ
_TEXT	SEGMENT
?GetSingleton@?$Singleton@VioReservedTask@@@@SAAAVioReservedTask@@XZ PROC ; Singleton<ioReservedTask>::GetSingleton, COMDAT

; 42   : 		assert( ms_Singleton );
; 43   : 		return (*ms_Singleton);

  00000	a1 00 00 00 00	 mov	 eax, DWORD PTR ?ms_Singleton@?$Singleton@VioReservedTask@@@@1PAVioReservedTask@@A ; Singleton<ioReservedTask>::ms_Singleton

; 44   : 	}

  00005	c3		 ret	 0
?GetSingleton@?$Singleton@VioReservedTask@@@@SAAAVioReservedTask@@XZ ENDP ; Singleton<ioReservedTask>::GetSingleton
_TEXT	ENDS
PUBLIC	?size@?$vector@PAUioTask@@V?$allocator@PAUioTask@@@std@@@std@@QBEIXZ ; std::vector<ioTask *,std::allocator<ioTask *> >::size
; Function compile flags: /Ogsp
; File c:\program files (x86)\microsoft visual studio 10.0\vc\include\vector
;	COMDAT ?size@?$vector@PAUioTask@@V?$allocator@PAUioTask@@@std@@@std@@QBEIXZ
_TEXT	SEGMENT
?size@?$vector@PAUioTask@@V?$allocator@PAUioTask@@@std@@@std@@QBEIXZ PROC ; std::vector<ioTask *,std::allocator<ioTask *> >::size, COMDAT
; _this$ = ecx

; 879  : 		return (this->_Mylast - this->_Myfirst);

  00000	8b 41 04	 mov	 eax, DWORD PTR [ecx+4]
  00003	2b 01		 sub	 eax, DWORD PTR [ecx]
  00005	c1 f8 02	 sar	 eax, 2

; 880  : 		}

  00008	c3		 ret	 0
?size@?$vector@PAUioTask@@V?$allocator@PAUioTask@@@std@@@std@@QBEIXZ ENDP ; std::vector<ioTask *,std::allocator<ioTask *> >::size
_TEXT	ENDS
PUBLIC	?_Inside@?$vector@PAUioTask@@V?$allocator@PAUioTask@@@std@@@std@@IBE_NPBQAUioTask@@@Z ; std::vector<ioTask *,std::allocator<ioTask *> >::_Inside
; Function compile flags: /Ogsp
;	COMDAT ?_Inside@?$vector@PAUioTask@@V?$allocator@PAUioTask@@@std@@@std@@IBE_NPBQAUioTask@@@Z
_TEXT	SEGMENT
__Ptr$ = 8						; size = 4
?_Inside@?$vector@PAUioTask@@V?$allocator@PAUioTask@@@std@@@std@@IBE_NPBQAUioTask@@@Z PROC ; std::vector<ioTask *,std::allocator<ioTask *> >::_Inside, COMDAT
; _this$ = ecx

; 1285 : 		{	// test if _Ptr points inside vector

  00000	55		 push	 ebp
  00001	8b ec		 mov	 ebp, esp

; 1286 : 		return (_Ptr < this->_Mylast && this->_Myfirst <= _Ptr);

  00003	8b 45 08	 mov	 eax, DWORD PTR __Ptr$[ebp]
  00006	3b 41 04	 cmp	 eax, DWORD PTR [ecx+4]
  00009	73 09		 jae	 SHORT $LN3@Inside
  0000b	39 01		 cmp	 DWORD PTR [ecx], eax
  0000d	77 05		 ja	 SHORT $LN3@Inside
  0000f	33 c0		 xor	 eax, eax
  00011	40		 inc	 eax
  00012	eb 02		 jmp	 SHORT $LN4@Inside
$LN3@Inside:
  00014	33 c0		 xor	 eax, eax
$LN4@Inside:

; 1287 : 		}

  00016	5d		 pop	 ebp
  00017	c2 04 00	 ret	 4
?_Inside@?$vector@PAUioTask@@V?$allocator@PAUioTask@@@std@@@std@@IBE_NPBQAUioTask@@@Z ENDP ; std::vector<ioTask *,std::allocator<ioTask *> >::_Inside
_TEXT	ENDS
PUBLIC	?_Orphan_range@?$vector@PAUioTask@@V?$allocator@PAUioTask@@@std@@@std@@IBEXPAPAUioTask@@0@Z ; std::vector<ioTask *,std::allocator<ioTask *> >::_Orphan_range
; Function compile flags: /Ogsp
;	COMDAT ?_Orphan_range@?$vector@PAUioTask@@V?$allocator@PAUioTask@@@std@@@std@@IBEXPAPAUioTask@@0@Z
_TEXT	SEGMENT
___formal$ = 8						; size = 4
___formal$ = 12						; size = 4
?_Orphan_range@?$vector@PAUioTask@@V?$allocator@PAUioTask@@@std@@@std@@IBEXPAPAUioTask@@0@Z PROC ; std::vector<ioTask *,std::allocator<ioTask *> >::_Orphan_range, COMDAT
; _this$ = ecx

; 1454 : 		}

  00000	c2 08 00	 ret	 8
?_Orphan_range@?$vector@PAUioTask@@V?$allocator@PAUioTask@@@std@@@std@@IBEXPAPAUioTask@@0@Z ENDP ; std::vector<ioTask *,std::allocator<ioTask *> >::_Orphan_range
_TEXT	ENDS
PUBLIC	??1?$_Vector_val@PAUioTask@@V?$allocator@PAUioTask@@@std@@@std@@QAE@XZ ; std::_Vector_val<ioTask *,std::allocator<ioTask *> >::~_Vector_val<ioTask *,std::allocator<ioTask *> >
; Function compile flags: /Ogsp
;	COMDAT ??1?$_Vector_val@PAUioTask@@V?$allocator@PAUioTask@@@std@@@std@@QAE@XZ
_TEXT	SEGMENT
??1?$_Vector_val@PAUioTask@@V?$allocator@PAUioTask@@@std@@@std@@QAE@XZ PROC ; std::_Vector_val<ioTask *,std::allocator<ioTask *> >::~_Vector_val<ioTask *,std::allocator<ioTask *> >, COMDAT
; _this$ = ecx

; 434  : 		}

  00000	c3		 ret	 0
??1?$_Vector_val@PAUioTask@@V?$allocator@PAUioTask@@@std@@@std@@QAE@XZ ENDP ; std::_Vector_val<ioTask *,std::allocator<ioTask *> >::~_Vector_val<ioTask *,std::allocator<ioTask *> >
_TEXT	ENDS
PUBLIC	??0?$allocator@PAUioTask@@@std@@QAE@XZ		; std::allocator<ioTask *>::allocator<ioTask *>
; Function compile flags: /Ogsp
; File c:\program files (x86)\microsoft visual studio 10.0\vc\include\xmemory
;	COMDAT ??0?$allocator@PAUioTask@@@std@@QAE@XZ
_TEXT	SEGMENT
??0?$allocator@PAUioTask@@@std@@QAE@XZ PROC		; std::allocator<ioTask *>::allocator<ioTask *>, COMDAT
; _this$ = ecx

; 161  : 	_ALLOCATOR() _THROW0()

  00000	8b c1		 mov	 eax, ecx

; 162  : 		{	// construct default allocator (do nothing)
; 163  : 		}

  00002	c3		 ret	 0
??0?$allocator@PAUioTask@@@std@@QAE@XZ ENDP		; std::allocator<ioTask *>::allocator<ioTask *>
_TEXT	ENDS
PUBLIC	??D?$_Vector_const_iterator@V?$_Vector_val@PAUioTask@@V?$allocator@PAUioTask@@@std@@@std@@@std@@QBEABQAUioTask@@XZ ; std::_Vector_const_iterator<std::_Vector_val<ioTask *,std::allocator<ioTask *> > >::operator*
; Function compile flags: /Ogsp
; File c:\program files (x86)\microsoft visual studio 10.0\vc\include\vector
;	COMDAT ??D?$_Vector_const_iterator@V?$_Vector_val@PAUioTask@@V?$allocator@PAUioTask@@@std@@@std@@@std@@QBEABQAUioTask@@XZ
_TEXT	SEGMENT
??D?$_Vector_const_iterator@V?$_Vector_val@PAUioTask@@V?$allocator@PAUioTask@@@std@@@std@@@std@@QBEABQAUioTask@@XZ PROC ; std::_Vector_const_iterator<std::_Vector_val<ioTask *,std::allocator<ioTask *> > >::operator*, COMDAT
; _this$ = ecx

; 64   :  #if _ITERATOR_DEBUG_LEVEL == 2
; 65   : 		if (this->_Getcont() == 0
; 66   : 			|| this->_Ptr == 0
; 67   : 			|| this->_Ptr < ((_Myvec *)this->_Getcont())->_Myfirst
; 68   : 			|| ((_Myvec *)this->_Getcont())->_Mylast <= this->_Ptr)
; 69   : 			{	// report error
; 70   : 			_DEBUG_ERROR("vector iterator not dereferencable");
; 71   : 			_SCL_SECURE_OUT_OF_RANGE;
; 72   : 			}
; 73   : 
; 74   :  #elif _ITERATOR_DEBUG_LEVEL == 1
; 75   : 		_SCL_SECURE_VALIDATE(this->_Getcont() != 0);
; 76   : 		_SCL_SECURE_VALIDATE_RANGE(
; 77   : 			this->_Ptr != 0
; 78   : 			&& ((_Myvec *)this->_Getcont())->_Myfirst <= this->_Ptr
; 79   : 			&& this->_Ptr < ((_Myvec *)this->_Getcont())->_Mylast);
; 80   :  #endif /* _ITERATOR_DEBUG_LEVEL */
; 81   : 
; 82   : 		__analysis_assume(this->_Ptr != 0);
; 83   : 
; 84   : 		return (*this->_Ptr);

  00000	8b 01		 mov	 eax, DWORD PTR [ecx]

; 85   : 		}

  00002	c3		 ret	 0
??D?$_Vector_const_iterator@V?$_Vector_val@PAUioTask@@V?$allocator@PAUioTask@@@std@@@std@@@std@@QBEABQAUioTask@@XZ ENDP ; std::_Vector_const_iterator<std::_Vector_val<ioTask *,std::allocator<ioTask *> > >::operator*
_TEXT	ENDS
PUBLIC	??E?$_Vector_const_iterator@V?$_Vector_val@PAUioTask@@V?$allocator@PAUioTask@@@std@@@std@@@std@@QAEAAV01@XZ ; std::_Vector_const_iterator<std::_Vector_val<ioTask *,std::allocator<ioTask *> > >::operator++
; Function compile flags: /Ogsp
;	COMDAT ??E?$_Vector_const_iterator@V?$_Vector_val@PAUioTask@@V?$allocator@PAUioTask@@@std@@@std@@@std@@QAEAAV01@XZ
_TEXT	SEGMENT
??E?$_Vector_const_iterator@V?$_Vector_val@PAUioTask@@V?$allocator@PAUioTask@@@std@@@std@@@std@@QAEAAV01@XZ PROC ; std::_Vector_const_iterator<std::_Vector_val<ioTask *,std::allocator<ioTask *> > >::operator++, COMDAT
; _this$ = ecx

; 93   : 		{	// preincrement

  00000	8b c1		 mov	 eax, ecx

; 94   :  #if _ITERATOR_DEBUG_LEVEL == 2
; 95   : 		if (this->_Getcont() == 0
; 96   : 			|| this->_Ptr == 0
; 97   : 			|| ((_Myvec *)this->_Getcont())->_Mylast <= this->_Ptr)
; 98   : 			{	// report error
; 99   : 			_DEBUG_ERROR("vector iterator not incrementable");
; 100  : 			_SCL_SECURE_OUT_OF_RANGE;
; 101  : 			}
; 102  : 
; 103  :  #elif _ITERATOR_DEBUG_LEVEL == 1
; 104  : 		_SCL_SECURE_VALIDATE(this->_Getcont() != 0);
; 105  : 		_SCL_SECURE_VALIDATE_RANGE(
; 106  : 			this->_Ptr != 0
; 107  : 			&& this->_Ptr < ((_Myvec *)this->_Getcont())->_Mylast);
; 108  :  #endif /* _ITERATOR_DEBUG_LEVEL */
; 109  : 
; 110  : 		++this->_Ptr;

  00002	83 00 04	 add	 DWORD PTR [eax], 4

; 111  : 		return (*this);
; 112  : 		}

  00005	c3		 ret	 0
??E?$_Vector_const_iterator@V?$_Vector_val@PAUioTask@@V?$allocator@PAUioTask@@@std@@@std@@@std@@QAEAAV01@XZ ENDP ; std::_Vector_const_iterator<std::_Vector_val<ioTask *,std::allocator<ioTask *> > >::operator++
_TEXT	ENDS
PUBLIC	?capacity@?$vector@PAUioTask@@V?$allocator@PAUioTask@@@std@@@std@@QBEIXZ ; std::vector<ioTask *,std::allocator<ioTask *> >::capacity
; Function compile flags: /Ogsp
;	COMDAT ?capacity@?$vector@PAUioTask@@V?$allocator@PAUioTask@@@std@@@std@@QBEIXZ
_TEXT	SEGMENT
?capacity@?$vector@PAUioTask@@V?$allocator@PAUioTask@@@std@@@std@@QBEIXZ PROC ; std::vector<ioTask *,std::allocator<ioTask *> >::capacity, COMDAT
; _this$ = ecx

; 777  : 		return (this->_Myend - this->_Myfirst);

  00000	8b 41 08	 mov	 eax, DWORD PTR [ecx+8]
  00003	2b 01		 sub	 eax, DWORD PTR [ecx]
  00005	c1 f8 02	 sar	 eax, 2

; 778  : 		}

  00008	c3		 ret	 0
?capacity@?$vector@PAUioTask@@V?$allocator@PAUioTask@@@std@@@std@@QBEIXZ ENDP ; std::vector<ioTask *,std::allocator<ioTask *> >::capacity
_TEXT	ENDS
PUBLIC	??_C@_0BD@OLBABOEK@vector?$DMT?$DO?5too?5long?$AA@ ; `string'
PUBLIC	?_Xlen@?$vector@PAUioTask@@V?$allocator@PAUioTask@@@std@@@std@@IBEXXZ ; std::vector<ioTask *,std::allocator<ioTask *> >::_Xlen
EXTRN	__imp_?_Xlength_error@std@@YAXPBD@Z:PROC
;	COMDAT ??_C@_0BD@OLBABOEK@vector?$DMT?$DO?5too?5long?$AA@
CONST	SEGMENT
??_C@_0BD@OLBABOEK@vector?$DMT?$DO?5too?5long?$AA@ DB 'vector<T> too long'
	DB	00H						; `string'
; Function compile flags: /Ogsp
CONST	ENDS
;	COMDAT ?_Xlen@?$vector@PAUioTask@@V?$allocator@PAUioTask@@@std@@@std@@IBEXXZ
_TEXT	SEGMENT
?_Xlen@?$vector@PAUioTask@@V?$allocator@PAUioTask@@@std@@@std@@IBEXXZ PROC ; std::vector<ioTask *,std::allocator<ioTask *> >::_Xlen, COMDAT
; _this$ = ecx

; 1427 : 		_Xlength_error("vector<T> too long");

  00000	68 00 00 00 00	 push	 OFFSET ??_C@_0BD@OLBABOEK@vector?$DMT?$DO?5too?5long?$AA@
  00005	ff 15 00 00 00
	00		 call	 DWORD PTR __imp_?_Xlength_error@std@@YAXPBD@Z
$LN4@Xlen:
$LN3@Xlen:
  0000b	cc		 int	 3
?_Xlen@?$vector@PAUioTask@@V?$allocator@PAUioTask@@@std@@@std@@IBEXXZ ENDP ; std::vector<ioTask *,std::allocator<ioTask *> >::_Xlen
_TEXT	ENDS
PUBLIC	??0?$allocator@PAUioTask@@@std@@QAE@ABV01@@Z	; std::allocator<ioTask *>::allocator<ioTask *>
; Function compile flags: /Ogsp
; File c:\program files (x86)\microsoft visual studio 10.0\vc\include\xmemory
;	COMDAT ??0?$allocator@PAUioTask@@@std@@QAE@ABV01@@Z
_TEXT	SEGMENT
___formal$ = 8						; size = 4
??0?$allocator@PAUioTask@@@std@@QAE@ABV01@@Z PROC	; std::allocator<ioTask *>::allocator<ioTask *>, COMDAT
; _this$ = ecx

; 165  : 	_ALLOCATOR(const _ALLOCATOR<_Ty>&) _THROW0()

  00000	8b c1		 mov	 eax, ecx

; 166  : 		{	// construct by copying (do nothing)
; 167  : 		}

  00002	c2 04 00	 ret	 4
??0?$allocator@PAUioTask@@@std@@QAE@ABV01@@Z ENDP	; std::allocator<ioTask *>::allocator<ioTask *>
_TEXT	ENDS
PUBLIC	?_Adopt@_Iterator_base0@std@@QAEXPBX@Z		; std::_Iterator_base0::_Adopt
; Function compile flags: /Ogsp
; File c:\program files (x86)\microsoft visual studio 10.0\vc\include\xutility
;	COMDAT ?_Adopt@_Iterator_base0@std@@QAEXPBX@Z
_TEXT	SEGMENT
___formal$ = 8						; size = 4
?_Adopt@_Iterator_base0@std@@QAEXPBX@Z PROC		; std::_Iterator_base0::_Adopt, COMDAT
; _this$ = ecx

; 49   : 		}

  00000	c2 04 00	 ret	 4
?_Adopt@_Iterator_base0@std@@QAEXPBX@Z ENDP		; std::_Iterator_base0::_Adopt
_TEXT	ENDS
PUBLIC	?deallocate@?$allocator@PAUioTask@@@std@@QAEXPAPAUioTask@@I@Z ; std::allocator<ioTask *>::deallocate
; Function compile flags: /Ogsp
; File c:\program files (x86)\microsoft visual studio 10.0\vc\include\xmemory
;	COMDAT ?deallocate@?$allocator@PAUioTask@@@std@@QAEXPAPAUioTask@@I@Z
_TEXT	SEGMENT
__Ptr$ = 8						; size = 4
___formal$ = 12						; size = 4
?deallocate@?$allocator@PAUioTask@@@std@@QAEXPAPAUioTask@@I@Z PROC ; std::allocator<ioTask *>::deallocate, COMDAT
; _this$ = ecx

; 181  : 		{	// deallocate object at _Ptr, ignore size

  00000	55		 push	 ebp
  00001	8b ec		 mov	 ebp, esp

; 182  : 		::operator delete(_Ptr);

  00003	ff 75 08	 push	 DWORD PTR __Ptr$[ebp]
  00006	e8 00 00 00 00	 call	 ??3@YAXPAX@Z		; operator delete
  0000b	59		 pop	 ecx

; 183  : 		}

  0000c	5d		 pop	 ebp
  0000d	c2 08 00	 ret	 8
?deallocate@?$allocator@PAUioTask@@@std@@QAEXPAPAUioTask@@I@Z ENDP ; std::allocator<ioTask *>::deallocate
_TEXT	ENDS
PUBLIC	??0?$_Vector_const_iterator@V?$_Vector_val@PAUioTask@@V?$allocator@PAUioTask@@@std@@@std@@@std@@QAE@PAPAUioTask@@PBU_Container_base0@1@@Z ; std::_Vector_const_iterator<std::_Vector_val<ioTask *,std::allocator<ioTask *> > >::_Vector_const_iterator<std::_Vector_val<ioTask *,std::allocator<ioTask *> > >
; Function compile flags: /Ogsp
; File c:\program files (x86)\microsoft visual studio 10.0\vc\include\vector
;	COMDAT ??0?$_Vector_const_iterator@V?$_Vector_val@PAUioTask@@V?$allocator@PAUioTask@@@std@@@std@@@std@@QAE@PAPAUioTask@@PBU_Container_base0@1@@Z
_TEXT	SEGMENT
__Parg$ = 8						; size = 4
__Pvector$ = 12						; size = 4
??0?$_Vector_const_iterator@V?$_Vector_val@PAUioTask@@V?$allocator@PAUioTask@@@std@@@std@@@std@@QAE@PAPAUioTask@@PBU_Container_base0@1@@Z PROC ; std::_Vector_const_iterator<std::_Vector_val<ioTask *,std::allocator<ioTask *> > >::_Vector_const_iterator<std::_Vector_val<ioTask *,std::allocator<ioTask *> > >, COMDAT
; _this$ = ecx

; 45   : 		{	// construct with pointer _Parg

  00000	55		 push	 ebp
  00001	8b ec		 mov	 ebp, esp
  00003	8b c1		 mov	 eax, ecx
  00005	8b 4d 08	 mov	 ecx, DWORD PTR __Parg$[ebp]
  00008	89 08		 mov	 DWORD PTR [eax], ecx

; 46   : 		this->_Adopt(_Pvector);
; 47   : 		}

  0000a	5d		 pop	 ebp
  0000b	c2 08 00	 ret	 8
??0?$_Vector_const_iterator@V?$_Vector_val@PAUioTask@@V?$allocator@PAUioTask@@@std@@@std@@@std@@QAE@PAPAUioTask@@PBU_Container_base0@1@@Z ENDP ; std::_Vector_const_iterator<std::_Vector_val<ioTask *,std::allocator<ioTask *> > >::_Vector_const_iterator<std::_Vector_val<ioTask *,std::allocator<ioTask *> > >
_TEXT	ENDS
PUBLIC	?_Compat@?$_Vector_const_iterator@V?$_Vector_val@PAUioTask@@V?$allocator@PAUioTask@@@std@@@std@@@std@@QBEXABV12@@Z ; std::_Vector_const_iterator<std::_Vector_val<ioTask *,std::allocator<ioTask *> > >::_Compat
; Function compile flags: /Ogsp
;	COMDAT ?_Compat@?$_Vector_const_iterator@V?$_Vector_val@PAUioTask@@V?$allocator@PAUioTask@@@std@@@std@@@std@@QBEXABV12@@Z
_TEXT	SEGMENT
___formal$ = 8						; size = 4
?_Compat@?$_Vector_const_iterator@V?$_Vector_val@PAUioTask@@V?$allocator@PAUioTask@@@std@@@std@@@std@@QBEXABV12@@Z PROC ; std::_Vector_const_iterator<std::_Vector_val<ioTask *,std::allocator<ioTask *> > >::_Compat, COMDAT
; _this$ = ecx

; 253  : 		}

  00000	c2 04 00	 ret	 4
?_Compat@?$_Vector_const_iterator@V?$_Vector_val@PAUioTask@@V?$allocator@PAUioTask@@@std@@@std@@@std@@QBEXABV12@@Z ENDP ; std::_Vector_const_iterator<std::_Vector_val<ioTask *,std::allocator<ioTask *> > >::_Compat
_TEXT	ENDS
PUBLIC	?max_size@?$allocator@PAUioTask@@@std@@QBEIXZ	; std::allocator<ioTask *>::max_size
; Function compile flags: /Ogsp
; File c:\program files (x86)\microsoft visual studio 10.0\vc\include\xmemory
;	COMDAT ?max_size@?$allocator@PAUioTask@@@std@@QBEIXZ
_TEXT	SEGMENT
?max_size@?$allocator@PAUioTask@@@std@@QBEIXZ PROC	; std::allocator<ioTask *>::max_size, COMDAT
; _this$ = ecx

; 218  : 		_SIZT _Count = (_SIZT)(-1) / sizeof (_Ty);
; 219  : 		return (0 < _Count ? _Count : 1);

  00000	b8 ff ff ff 3f	 mov	 eax, 1073741823		; 3fffffffH

; 220  : 		}

  00005	c3		 ret	 0
?max_size@?$allocator@PAUioTask@@@std@@QBEIXZ ENDP	; std::allocator<ioTask *>::max_size
_TEXT	ENDS
PUBLIC	??$addressof@QAUioTask@@@std@@YAPBQAUioTask@@ABQAU1@@Z ; std::addressof<ioTask * const>
; Function compile flags: /Ogsp
;	COMDAT ??$addressof@QAUioTask@@@std@@YAPBQAUioTask@@ABQAU1@@Z
_TEXT	SEGMENT
__Val$ = 8						; size = 4
??$addressof@QAUioTask@@@std@@YAPBQAUioTask@@ABQAU1@@Z PROC ; std::addressof<ioTask * const>, COMDAT

; 110  : 	{	// return address of _Val

  00000	55		 push	 ebp
  00001	8b ec		 mov	 ebp, esp

; 111  : 	return ((_Ty *) &(char&)_Val);

  00003	8b 45 08	 mov	 eax, DWORD PTR __Val$[ebp]

; 112  : 	}

  00006	5d		 pop	 ebp
  00007	c3		 ret	 0
??$addressof@QAUioTask@@@std@@YAPBQAUioTask@@ABQAU1@@Z ENDP ; std::addressof<ioTask * const>
_TEXT	ENDS
PUBLIC	__TI2?AVbad_alloc@std@@
PUBLIC	??$_Allocate@PAUioTask@@@std@@YAPAPAUioTask@@IPAPAU1@@Z ; std::_Allocate<ioTask *>
PUBLIC	__CTA2?AVbad_alloc@std@@
PUBLIC	__CT??_R0?AVbad_alloc@std@@@8??0bad_alloc@std@@QAE@ABV01@@Z12
PUBLIC	??0bad_alloc@std@@QAE@ABV01@@Z			; std::bad_alloc::bad_alloc
PUBLIC	__CT??_R0?AVexception@std@@@8??0exception@std@@QAE@ABV01@@Z12
EXTRN	??2@YAPAXI@Z:PROC				; operator new
EXTRN	__CxxThrowException@8:PROC
EXTRN	??0exception@std@@QAE@ABV01@@Z:PROC		; std::exception::exception
;	COMDAT __CT??_R0?AVexception@std@@@8??0exception@std@@QAE@ABV01@@Z12
; File c:\program files (x86)\microsoft visual studio 10.0\vc\include\exception
xdata$x	SEGMENT
__CT??_R0?AVexception@std@@@8??0exception@std@@QAE@ABV01@@Z12 DD 00H
	DD	FLAT:??_R0?AVexception@std@@@8
	DD	00H
	DD	0ffffffffH
	ORG $+4
	DD	0cH
	DD	FLAT:??0exception@std@@QAE@ABV01@@Z
xdata$x	ENDS
;	COMDAT __CT??_R0?AVbad_alloc@std@@@8??0bad_alloc@std@@QAE@ABV01@@Z12
xdata$x	SEGMENT
__CT??_R0?AVbad_alloc@std@@@8??0bad_alloc@std@@QAE@ABV01@@Z12 DD 00H
	DD	FLAT:??_R0?AVbad_alloc@std@@@8
	DD	00H
	DD	0ffffffffH
	ORG $+4
	DD	0cH
	DD	FLAT:??0bad_alloc@std@@QAE@ABV01@@Z
xdata$x	ENDS
;	COMDAT __CTA2?AVbad_alloc@std@@
xdata$x	SEGMENT
__CTA2?AVbad_alloc@std@@ DD 02H
	DD	FLAT:__CT??_R0?AVbad_alloc@std@@@8??0bad_alloc@std@@QAE@ABV01@@Z12
	DD	FLAT:__CT??_R0?AVexception@std@@@8??0exception@std@@QAE@ABV01@@Z12
xdata$x	ENDS
;	COMDAT __TI2?AVbad_alloc@std@@
xdata$x	SEGMENT
__TI2?AVbad_alloc@std@@ DD 00H
	DD	FLAT:??1bad_alloc@std@@UAE@XZ
	DD	00H
	DD	FLAT:__CTA2?AVbad_alloc@std@@
; Function compile flags: /Ogsp
; File c:\program files (x86)\microsoft visual studio 10.0\vc\include\xmemory
xdata$x	ENDS
;	COMDAT ??$_Allocate@PAUioTask@@@std@@YAPAPAUioTask@@IPAPAU1@@Z
_TEXT	SEGMENT
$T519107 = -12						; size = 12
$T519112 = 8						; size = 4
__Count$ = 8						; size = 4
___formal$ = 12						; size = 4
??$_Allocate@PAUioTask@@@std@@YAPAPAUioTask@@IPAPAU1@@Z PROC ; std::_Allocate<ioTask *>, COMDAT

; 30   : 	{	// allocate storage for _Count elements of type _Ty

  00000	55		 push	 ebp
  00001	8b ec		 mov	 ebp, esp

; 31   : 	void *_Ptr = 0;
; 32   : 
; 33   : 	if (_Count <= 0)

  00003	8b 4d 08	 mov	 ecx, DWORD PTR __Count$[ebp]
  00006	83 ec 0c	 sub	 esp, 12			; 0000000cH
  00009	33 c0		 xor	 eax, eax
  0000b	85 c9		 test	 ecx, ecx

; 34   : 		_Count = 0;
; 35   : 	else if (((_SIZT)(-1) / sizeof (_Ty) < _Count)

  0000d	74 3e		 je	 SHORT $LN5@Allocate

; 36   : 		|| (_Ptr = ::operator new(_Count * sizeof (_Ty))) == 0)

  0000f	81 f9 ff ff ff
	3f		 cmp	 ecx, 1073741823		; 3fffffffH
  00015	77 10		 ja	 SHORT $LN1@Allocate
  00017	8b c1		 mov	 eax, ecx
  00019	c1 e0 02	 shl	 eax, 2
  0001c	50		 push	 eax
  0001d	e8 00 00 00 00	 call	 ??2@YAPAXI@Z		; operator new
  00022	59		 pop	 ecx
  00023	85 c0		 test	 eax, eax

; 38   : 
; 39   : 	return ((_Ty _FARQ *)_Ptr);

  00025	75 26		 jne	 SHORT $LN5@Allocate
$LN1@Allocate:

; 37   : 		_THROW_NCEE(bad_alloc, 0);

  00027	83 65 08 00	 and	 DWORD PTR $T519112[ebp], 0
  0002b	8d 45 08	 lea	 eax, DWORD PTR $T519112[ebp]
  0002e	50		 push	 eax
  0002f	8d 4d f4	 lea	 ecx, DWORD PTR $T519107[ebp]
  00032	ff 15 00 00 00
	00		 call	 DWORD PTR __imp_??0exception@std@@QAE@ABQBD@Z
  00038	68 00 00 00 00	 push	 OFFSET __TI2?AVbad_alloc@std@@
  0003d	8d 45 f4	 lea	 eax, DWORD PTR $T519107[ebp]
  00040	50		 push	 eax
  00041	c7 45 f4 00 00
	00 00		 mov	 DWORD PTR $T519107[ebp], OFFSET ??_7bad_alloc@std@@6B@
  00048	e8 00 00 00 00	 call	 __CxxThrowException@8
$LN10@Allocate:
$LN5@Allocate:

; 40   : 	}

  0004d	c9		 leave
  0004e	c3		 ret	 0
$LN9@Allocate:
??$_Allocate@PAUioTask@@@std@@YAPAPAUioTask@@IPAPAU1@@Z ENDP ; std::_Allocate<ioTask *>
_TEXT	ENDS
PUBLIC	??$forward@AAPAUioTask@@@std@@YAAAPAUioTask@@AAPAU1@@Z ; std::forward<ioTask * &>
; Function compile flags: /Ogsp
; File c:\program files (x86)\microsoft visual studio 10.0\vc\include\utility
;	COMDAT ??$forward@AAPAUioTask@@@std@@YAAAPAUioTask@@AAPAU1@@Z
_TEXT	SEGMENT
__Arg$ = 8						; size = 4
??$forward@AAPAUioTask@@@std@@YAAAPAUioTask@@AAPAU1@@Z PROC ; std::forward<ioTask * &>, COMDAT

; 78   : 	{	// forward _Arg, given explicitly specified type parameter

  00000	55		 push	 ebp
  00001	8b ec		 mov	 ebp, esp

; 79   : 	return ((_Ty&&)_Arg);

  00003	8b 45 08	 mov	 eax, DWORD PTR __Arg$[ebp]

; 80   : 	}

  00006	5d		 pop	 ebp
  00007	c3		 ret	 0
??$forward@AAPAUioTask@@@std@@YAAAPAUioTask@@AAPAU1@@Z ENDP ; std::forward<ioTask * &>
_TEXT	ENDS
PUBLIC	??$construct@AAPAUioTask@@@?$allocator@PAUioTask@@@std@@QAEXPAPAUioTask@@AAPAU2@@Z ; std::allocator<ioTask *>::construct<ioTask * &>
; Function compile flags: /Ogsp
; File c:\program files (x86)\microsoft visual studio 10.0\vc\include\xmemory
;	COMDAT ??$construct@AAPAUioTask@@@?$allocator@PAUioTask@@@std@@QAEXPAPAUioTask@@AAPAU2@@Z
_TEXT	SEGMENT
__Ptr$ = 8						; size = 4
__Val$ = 12						; size = 4
??$construct@AAPAUioTask@@@?$allocator@PAUioTask@@@std@@QAEXPAPAUioTask@@AAPAU2@@Z PROC ; std::allocator<ioTask *>::construct<ioTask * &>, COMDAT
; _this$ = ecx

; 206  : 		void construct(pointer _Ptr, _Other&& _Val)

  00000	55		 push	 ebp
  00001	8b ec		 mov	 ebp, esp

; 207  : 		{	// construct object at _Ptr with value _Val
; 208  : 		::new ((void _FARQ *)_Ptr) _Ty(_STD forward<_Other>(_Val));

  00003	8b 45 08	 mov	 eax, DWORD PTR __Ptr$[ebp]
  00006	85 c0		 test	 eax, eax
  00008	74 07		 je	 SHORT $LN3@construct
  0000a	8b 4d 0c	 mov	 ecx, DWORD PTR __Val$[ebp]
  0000d	8b 09		 mov	 ecx, DWORD PTR [ecx]
  0000f	89 08		 mov	 DWORD PTR [eax], ecx
$LN3@construct:

; 209  : 		}

  00011	5d		 pop	 ebp
  00012	c2 08 00	 ret	 8
??$construct@AAPAUioTask@@@?$allocator@PAUioTask@@@std@@QAEXPAPAUioTask@@AAPAU2@@Z ENDP ; std::allocator<ioTask *>::construct<ioTask * &>
_TEXT	ENDS
PUBLIC	??$forward@ABQAUioTask@@@std@@YAABQAUioTask@@ABQAU1@@Z ; std::forward<ioTask * const &>
; Function compile flags: /Ogsp
; File c:\program files (x86)\microsoft visual studio 10.0\vc\include\utility
;	COMDAT ??$forward@ABQAUioTask@@@std@@YAABQAUioTask@@ABQAU1@@Z
_TEXT	SEGMENT
__Arg$ = 8						; size = 4
??$forward@ABQAUioTask@@@std@@YAABQAUioTask@@ABQAU1@@Z PROC ; std::forward<ioTask * const &>, COMDAT

; 78   : 	{	// forward _Arg, given explicitly specified type parameter

  00000	55		 push	 ebp
  00001	8b ec		 mov	 ebp, esp

; 79   : 	return ((_Ty&&)_Arg);

  00003	8b 45 08	 mov	 eax, DWORD PTR __Arg$[ebp]

; 80   : 	}

  00006	5d		 pop	 ebp
  00007	c3		 ret	 0
??$forward@ABQAUioTask@@@std@@YAABQAUioTask@@ABQAU1@@Z ENDP ; std::forward<ioTask * const &>
_TEXT	ENDS
PUBLIC	??$_Ptr_cat@PAUioTask@@PAU1@@std@@YA?AU_Scalar_ptr_iterator_tag@0@PAPAUioTask@@0@Z ; std::_Ptr_cat<ioTask *,ioTask *>
; Function compile flags: /Ogsp
; File c:\program files (x86)\microsoft visual studio 10.0\vc\include\xutility
;	COMDAT ??$_Ptr_cat@PAUioTask@@PAU1@@std@@YA?AU_Scalar_ptr_iterator_tag@0@PAPAUioTask@@0@Z
_TEXT	SEGMENT
__Cat$ = -1						; size = 1
___formal$ = 8						; size = 4
___formal$ = 12						; size = 4
??$_Ptr_cat@PAUioTask@@PAU1@@std@@YA?AU_Scalar_ptr_iterator_tag@0@PAPAUioTask@@0@Z PROC ; std::_Ptr_cat<ioTask *,ioTask *>, COMDAT

; 516  : 	{	// return pointer category from pointers

  00000	55		 push	 ebp
  00001	8b ec		 mov	 ebp, esp
  00003	51		 push	 ecx

; 517  : 	typename _Ptr_cat_helper<_Elem1, _Elem2>::_Type _Cat;
; 518  : 	return (_Cat);

  00004	8a 45 ff	 mov	 al, BYTE PTR __Cat$[ebp]

; 519  : 	}

  00007	c9		 leave
  00008	c3		 ret	 0
??$_Ptr_cat@PAUioTask@@PAU1@@std@@YA?AU_Scalar_ptr_iterator_tag@0@PAPAUioTask@@0@Z ENDP ; std::_Ptr_cat<ioTask *,ioTask *>
_TEXT	ENDS
PUBLIC	??$_Move@PAPAUioTask@@PAPAU1@@std@@YAPAPAUioTask@@PAPAU1@00U_Scalar_ptr_iterator_tag@0@@Z ; std::_Move<ioTask * *,ioTask * *>
EXTRN	__imp__memmove:PROC
; Function compile flags: /Ogsp
;	COMDAT ??$_Move@PAPAUioTask@@PAPAU1@@std@@YAPAPAUioTask@@PAPAU1@00U_Scalar_ptr_iterator_tag@0@@Z
_TEXT	SEGMENT
__First$ = 8						; size = 4
__Last$ = 12						; size = 4
__Dest$ = 16						; size = 4
___formal$ = 20						; size = 1
??$_Move@PAPAUioTask@@PAPAU1@@std@@YAPAPAUioTask@@PAPAU1@00U_Scalar_ptr_iterator_tag@0@@Z PROC ; std::_Move<ioTask * *,ioTask * *>, COMDAT

; 2522 : 	{	// move [_First, _Last) to [_Dest, ...), pointers to scalars

  00000	55		 push	 ebp
  00001	8b ec		 mov	 ebp, esp
  00003	56		 push	 esi

; 2523 : 	ptrdiff_t _Count = _Last - _First;

  00004	8b 75 0c	 mov	 esi, DWORD PTR __Last$[ebp]
  00007	2b 75 08	 sub	 esi, DWORD PTR __First$[ebp]
  0000a	57		 push	 edi

; 2524 : 	_CSTD memmove(&*_Dest, &*_First,
; 2525 : 		_Count * sizeof (*_First));

  0000b	8b 7d 10	 mov	 edi, DWORD PTR __Dest$[ebp]
  0000e	c1 fe 02	 sar	 esi, 2
  00011	c1 e6 02	 shl	 esi, 2
  00014	56		 push	 esi
  00015	ff 75 08	 push	 DWORD PTR __First$[ebp]
  00018	57		 push	 edi
  00019	ff 15 00 00 00
	00		 call	 DWORD PTR __imp__memmove
  0001f	83 c4 0c	 add	 esp, 12			; 0000000cH

; 2526 : 	return (_Dest + _Count);

  00022	8d 04 3e	 lea	 eax, DWORD PTR [esi+edi]
  00025	5f		 pop	 edi
  00026	5e		 pop	 esi

; 2527 : 	}

  00027	5d		 pop	 ebp
  00028	c3		 ret	 0
??$_Move@PAPAUioTask@@PAPAU1@@std@@YAPAPAUioTask@@PAPAU1@00U_Scalar_ptr_iterator_tag@0@@Z ENDP ; std::_Move<ioTask * *,ioTask * *>
_TEXT	ENDS
PUBLIC	??$_Destroy_range@V?$allocator@PAUioTask@@@std@@@std@@YAXPAPAUioTask@@0AAV?$allocator@PAUioTask@@@0@U_Scalar_ptr_iterator_tag@0@@Z ; std::_Destroy_range<std::allocator<ioTask *> >
; Function compile flags: /Ogsp
; File c:\program files (x86)\microsoft visual studio 10.0\vc\include\xmemory
;	COMDAT ??$_Destroy_range@V?$allocator@PAUioTask@@@std@@@std@@YAXPAPAUioTask@@0AAV?$allocator@PAUioTask@@@0@U_Scalar_ptr_iterator_tag@0@@Z
_TEXT	SEGMENT
__First$ = 8						; size = 4
__Last$ = 12						; size = 4
__Al$ = 16						; size = 4
___formal$ = 20						; size = 1
??$_Destroy_range@V?$allocator@PAUioTask@@@std@@@std@@YAXPAPAUioTask@@0AAV?$allocator@PAUioTask@@@0@U_Scalar_ptr_iterator_tag@0@@Z PROC ; std::_Destroy_range<std::allocator<ioTask *> >, COMDAT

; 105  : 	}

  00000	c3		 ret	 0
??$_Destroy_range@V?$allocator@PAUioTask@@@std@@@std@@YAXPAPAUioTask@@0AAV?$allocator@PAUioTask@@@0@U_Scalar_ptr_iterator_tag@0@@Z ENDP ; std::_Destroy_range<std::allocator<ioTask *> >
_TEXT	ENDS
PUBLIC	??$_Construct@PAUioTask@@ABQAU1@@std@@YAXPAPAUioTask@@ABQAU1@@Z ; std::_Construct<ioTask *,ioTask * const &>
; Function compile flags: /Ogsp
;	COMDAT ??$_Construct@PAUioTask@@ABQAU1@@std@@YAXPAPAUioTask@@ABQAU1@@Z
_TEXT	SEGMENT
__Ptr$ = 8						; size = 4
__Val$ = 12						; size = 4
??$_Construct@PAUioTask@@ABQAU1@@std@@YAXPAPAUioTask@@ABQAU1@@Z PROC ; std::_Construct<ioTask *,ioTask * const &>, COMDAT

; 46   : 	{	// construct object at _Ptr with value _Val

  00000	55		 push	 ebp
  00001	8b ec		 mov	 ebp, esp

; 47   : 	void _FARQ *_Vptr = _Ptr;
; 48   : 	::new (_Vptr) _Ty1(_STD forward<_Ty2>(_Val));

  00003	8b 45 08	 mov	 eax, DWORD PTR __Ptr$[ebp]
  00006	85 c0		 test	 eax, eax
  00008	74 07		 je	 SHORT $LN3@Construct
  0000a	8b 4d 0c	 mov	 ecx, DWORD PTR __Val$[ebp]
  0000d	8b 09		 mov	 ecx, DWORD PTR [ecx]
  0000f	89 08		 mov	 DWORD PTR [eax], ecx
$LN3@Construct:

; 49   : 	}

  00011	5d		 pop	 ebp
  00012	c3		 ret	 0
??$_Construct@PAUioTask@@ABQAU1@@std@@YAXPAPAUioTask@@ABQAU1@@Z ENDP ; std::_Construct<ioTask *,ioTask * const &>
_TEXT	ENDS
PUBLIC	??$_Val_type@PAPAUioTask@@@std@@YAPAPAUioTask@@PAPAU1@@Z ; std::_Val_type<ioTask * *>
; Function compile flags: /Ogsp
; File c:\program files (x86)\microsoft visual studio 10.0\vc\include\xutility
;	COMDAT ??$_Val_type@PAPAUioTask@@@std@@YAPAPAUioTask@@PAPAU1@@Z
_TEXT	SEGMENT
___formal$ = 8						; size = 4
??$_Val_type@PAPAUioTask@@@std@@YAPAPAUioTask@@PAPAU1@@Z PROC ; std::_Val_type<ioTask * *>, COMDAT

; 790  : 	return (0);

  00000	33 c0		 xor	 eax, eax

; 791  : 	}

  00002	c3		 ret	 0
??$_Val_type@PAPAUioTask@@@std@@YAPAPAUioTask@@PAPAU1@@Z ENDP ; std::_Val_type<ioTask * *>
_TEXT	ENDS
PUBLIC	??$_Uninit_move@PAUioTask@@PAU1@PAU1@@std@@YAPAPAUioTask@@PAPAU1@00AAV?$allocator@PAUioTask@@@0@0U_Scalar_ptr_iterator_tag@0@@Z ; std::_Uninit_move<ioTask *,ioTask *,ioTask *>
; Function compile flags: /Ogsp
; File c:\program files (x86)\microsoft visual studio 10.0\vc\include\memory
;	COMDAT ??$_Uninit_move@PAUioTask@@PAU1@PAU1@@std@@YAPAPAUioTask@@PAPAU1@00AAV?$allocator@PAUioTask@@@0@0U_Scalar_ptr_iterator_tag@0@@Z
_TEXT	SEGMENT
__First$ = 8						; size = 4
__Last$ = 12						; size = 4
__Dest$ = 16						; size = 4
___formal$ = 20						; size = 4
___formal$ = 24						; size = 4
___formal$ = 28						; size = 1
??$_Uninit_move@PAUioTask@@PAU1@PAU1@@std@@YAPAPAUioTask@@PAPAU1@00AAV?$allocator@PAUioTask@@@0@0U_Scalar_ptr_iterator_tag@0@@Z PROC ; std::_Uninit_move<ioTask *,ioTask *,ioTask *>, COMDAT

; 456  : 	{	// move [_First, _Last) to raw _Dest, scalar type

  00000	55		 push	 ebp
  00001	8b ec		 mov	 ebp, esp
  00003	56		 push	 esi

; 457  : 	_DEBUG_RANGE(_First, _Last);
; 458  : 	_DEBUG_POINTER(_Dest);
; 459  : 	size_t _Count = (size_t)(_Last - _First);

  00004	8b 75 0c	 mov	 esi, DWORD PTR __Last$[ebp]
  00007	2b 75 08	 sub	 esi, DWORD PTR __First$[ebp]
  0000a	c1 fe 02	 sar	 esi, 2

; 460  : 	return ((_Ty2 *)_CSTD memmove(&*_Dest, &*_First,
; 461  : 		_Count * sizeof (*_First)) + _Count);	// NB: non-overlapping move

  0000d	c1 e6 02	 shl	 esi, 2
  00010	56		 push	 esi
  00011	ff 75 08	 push	 DWORD PTR __First$[ebp]
  00014	ff 75 10	 push	 DWORD PTR __Dest$[ebp]
  00017	ff 15 00 00 00
	00		 call	 DWORD PTR __imp__memmove
  0001d	83 c4 0c	 add	 esp, 12			; 0000000cH
  00020	03 c6		 add	 eax, esi
  00022	5e		 pop	 esi

; 462  : 	}

  00023	5d		 pop	 ebp
  00024	c3		 ret	 0
??$_Uninit_move@PAUioTask@@PAU1@PAU1@@std@@YAPAPAUioTask@@PAPAU1@00AAV?$allocator@PAUioTask@@@0@0U_Scalar_ptr_iterator_tag@0@@Z ENDP ; std::_Uninit_move<ioTask *,ioTask *,ioTask *>
_TEXT	ENDS
PUBLIC	?GetPCRoomAuthority@ioMyInfo@@QAEKXZ		; ioMyInfo::GetPCRoomAuthority
; Function compile flags: /Ogsp
; File d:\lost saga for developer\youtube\tutorial\source\src\lsclient\iomyinfo.h
;	COMDAT ?GetPCRoomAuthority@ioMyInfo@@QAEKXZ
_TEXT	SEGMENT
?GetPCRoomAuthority@ioMyInfo@@QAEKXZ PROC		; ioMyInfo::GetPCRoomAuthority, COMDAT
; _this$ = ecx

; 836  : 	DWORD GetPCRoomAuthority(){ return m_dwPCRoomAuthority; }

  00000	8b 81 34 08 00
	00		 mov	 eax, DWORD PTR [ecx+2100]
  00006	c3		 ret	 0
?GetPCRoomAuthority@ioMyInfo@@QAEKXZ ENDP		; ioMyInfo::GetPCRoomAuthority
_TEXT	ENDS
PUBLIC	?DecryptValueToPool@?$CEncrypt@H@@QAEXPAH@Z	; CEncrypt<int>::DecryptValueToPool
EXTRN	?DecryptByte@ccddaabb@@QBEXPBDPADH@Z:PROC	; ccddaabb::DecryptByte
; Function compile flags: /Ogsp
; File d:\lost saga for developer\youtube\tutorial\source\src\lsclient\encryptvalue.h
;	COMDAT ?DecryptValueToPool@?$CEncrypt@H@@QAEXPAH@Z
_TEXT	SEGMENT
_value$ = 8						; size = 4
?DecryptValueToPool@?$CEncrypt@H@@QAEXPAH@Z PROC	; CEncrypt<int>::DecryptValueToPool, COMDAT
; _this$ = ecx

; 837  : 	{

  00000	55		 push	 ebp
  00001	8b ec		 mov	 ebp, esp
  00003	56		 push	 esi

; 838  : 		m_RC5.DecryptByte( m_MemPool, m_TempMem, 4 );

  00004	8d 71 28	 lea	 esi, DWORD PTR [ecx+40]
  00007	6a 04		 push	 4
  00009	8d 41 1c	 lea	 eax, DWORD PTR [ecx+28]
  0000c	56		 push	 esi
  0000d	50		 push	 eax
  0000e	83 c1 0c	 add	 ecx, 12			; 0000000cH
  00011	e8 00 00 00 00	 call	 ?DecryptByte@ccddaabb@@QBEXPBDPADH@Z ; ccddaabb::DecryptByte

; 839  : 		*value = *((int*)m_TempMem);

  00016	8b 06		 mov	 eax, DWORD PTR [esi]
  00018	8b 4d 08	 mov	 ecx, DWORD PTR _value$[ebp]
  0001b	89 01		 mov	 DWORD PTR [ecx], eax
  0001d	5e		 pop	 esi

; 840  : 	}

  0001e	5d		 pop	 ebp
  0001f	c2 04 00	 ret	 4
?DecryptValueToPool@?$CEncrypt@H@@QAEXPAH@Z ENDP	; CEncrypt<int>::DecryptValueToPool
_TEXT	ENDS
EXTRN	__imp_??0exception@std@@QAE@ABV01@@Z:PROC
; Function compile flags: /Ogsp
;	COMDAT ??0bad_alloc@std@@QAE@ABV01@@Z
_TEXT	SEGMENT
___that$ = 8						; size = 4
??0bad_alloc@std@@QAE@ABV01@@Z PROC			; std::bad_alloc::bad_alloc, COMDAT
; _this$ = ecx
  00000	55		 push	 ebp
  00001	8b ec		 mov	 ebp, esp
  00003	56		 push	 esi
  00004	ff 75 08	 push	 DWORD PTR ___that$[ebp]
  00007	8b f1		 mov	 esi, ecx
  00009	ff 15 00 00 00
	00		 call	 DWORD PTR __imp_??0exception@std@@QAE@ABV01@@Z
  0000f	c7 06 00 00 00
	00		 mov	 DWORD PTR [esi], OFFSET ??_7bad_alloc@std@@6B@
  00015	8b c6		 mov	 eax, esi
  00017	5e		 pop	 esi
  00018	5d		 pop	 ebp
  00019	c2 04 00	 ret	 4
??0bad_alloc@std@@QAE@ABV01@@Z ENDP			; std::bad_alloc::bad_alloc
_TEXT	ENDS
PUBLIC	?GetSingleton@ioReservedTask@@SAAAV1@XZ		; ioReservedTask::GetSingleton
; Function compile flags: /Ogsp
; File d:\lost saga for developer\youtube\tutorial\source\src\lsclient\ioreservedtask.cpp
;	COMDAT ?GetSingleton@ioReservedTask@@SAAAV1@XZ
_TEXT	SEGMENT
?GetSingleton@ioReservedTask@@SAAAV1@XZ PROC		; ioReservedTask::GetSingleton, COMDAT

; 15   : 	return Singleton< ioReservedTask >::GetSingleton();

  00000	a1 00 00 00 00	 mov	 eax, DWORD PTR ?ms_Singleton@?$Singleton@VioReservedTask@@@@1PAVioReservedTask@@A ; Singleton<ioReservedTask>::ms_Singleton

; 16   : }

  00005	c3		 ret	 0
?GetSingleton@ioReservedTask@@SAAAV1@XZ ENDP		; ioReservedTask::GetSingleton
_TEXT	ENDS
PUBLIC	??D?$_Vector_iterator@V?$_Vector_val@PAUioTask@@V?$allocator@PAUioTask@@@std@@@std@@@std@@QBEAAPAUioTask@@XZ ; std::_Vector_iterator<std::_Vector_val<ioTask *,std::allocator<ioTask *> > >::operator*
; Function compile flags: /Ogsp
; File c:\program files (x86)\microsoft visual studio 10.0\vc\include\vector
;	COMDAT ??D?$_Vector_iterator@V?$_Vector_val@PAUioTask@@V?$allocator@PAUioTask@@@std@@@std@@@std@@QBEAAPAUioTask@@XZ
_TEXT	SEGMENT
??D?$_Vector_iterator@V?$_Vector_val@PAUioTask@@V?$allocator@PAUioTask@@@std@@@std@@@std@@QBEAAPAUioTask@@XZ PROC ; std::_Vector_iterator<std::_Vector_val<ioTask *,std::allocator<ioTask *> > >::operator*, COMDAT
; _this$ = ecx

; 322  : 		return ((reference)**(_Mybase *)this);

  00000	8b 01		 mov	 eax, DWORD PTR [ecx]

; 323  : 		}

  00002	c3		 ret	 0
??D?$_Vector_iterator@V?$_Vector_val@PAUioTask@@V?$allocator@PAUioTask@@@std@@@std@@@std@@QBEAAPAUioTask@@XZ ENDP ; std::_Vector_iterator<std::_Vector_val<ioTask *,std::allocator<ioTask *> > >::operator*
_TEXT	ENDS
PUBLIC	??E?$_Vector_iterator@V?$_Vector_val@PAUioTask@@V?$allocator@PAUioTask@@@std@@@std@@@std@@QAEAAV01@XZ ; std::_Vector_iterator<std::_Vector_val<ioTask *,std::allocator<ioTask *> > >::operator++
; Function compile flags: /Ogsp
;	COMDAT ??E?$_Vector_iterator@V?$_Vector_val@PAUioTask@@V?$allocator@PAUioTask@@@std@@@std@@@std@@QAEAAV01@XZ
_TEXT	SEGMENT
??E?$_Vector_iterator@V?$_Vector_val@PAUioTask@@V?$allocator@PAUioTask@@@std@@@std@@@std@@QAEAAV01@XZ PROC ; std::_Vector_iterator<std::_Vector_val<ioTask *,std::allocator<ioTask *> > >::operator++, COMDAT
; _this$ = ecx

; 331  : 		{	// preincrement

  00000	8b c1		 mov	 eax, ecx

; 332  : 		++*(_Mybase *)this;

  00002	83 00 04	 add	 DWORD PTR [eax], 4

; 333  : 		return (*this);
; 334  : 		}

  00005	c3		 ret	 0
??E?$_Vector_iterator@V?$_Vector_val@PAUioTask@@V?$allocator@PAUioTask@@@std@@@std@@@std@@QAEAAV01@XZ ENDP ; std::_Vector_iterator<std::_Vector_val<ioTask *,std::allocator<ioTask *> > >::operator++
_TEXT	ENDS
PUBLIC	??0?$_Vector_val@PAUioTask@@V?$allocator@PAUioTask@@@std@@@std@@QAE@V?$allocator@PAUioTask@@@1@@Z ; std::_Vector_val<ioTask *,std::allocator<ioTask *> >::_Vector_val<ioTask *,std::allocator<ioTask *> >
; Function compile flags: /Ogsp
;	COMDAT ??0?$_Vector_val@PAUioTask@@V?$allocator@PAUioTask@@@std@@@std@@QAE@V?$allocator@PAUioTask@@@1@@Z
_TEXT	SEGMENT
__Al$ = 8						; size = 1
??0?$_Vector_val@PAUioTask@@V?$allocator@PAUioTask@@@std@@@std@@QAE@V?$allocator@PAUioTask@@@1@@Z PROC ; std::_Vector_val<ioTask *,std::allocator<ioTask *> >::_Vector_val<ioTask *,std::allocator<ioTask *> >, COMDAT
; _this$ = ecx

; 426  : 		{	// construct allocator from _Al

  00000	8b c1		 mov	 eax, ecx

; 427  : 		_Myfirst = 0;

  00002	33 c9		 xor	 ecx, ecx
  00004	89 08		 mov	 DWORD PTR [eax], ecx

; 428  : 		_Mylast = 0;

  00006	89 48 04	 mov	 DWORD PTR [eax+4], ecx

; 429  : 		_Myend = 0;

  00009	89 48 08	 mov	 DWORD PTR [eax+8], ecx

; 430  : 		}

  0000c	c2 04 00	 ret	 4
??0?$_Vector_val@PAUioTask@@V?$allocator@PAUioTask@@@std@@@std@@QAE@V?$allocator@PAUioTask@@@1@@Z ENDP ; std::_Vector_val<ioTask *,std::allocator<ioTask *> >::_Vector_val<ioTask *,std::allocator<ioTask *> >
_TEXT	ENDS
PUBLIC	??0?$_Vector_iterator@V?$_Vector_val@PAUioTask@@V?$allocator@PAUioTask@@@std@@@std@@@std@@QAE@PAPAUioTask@@PBU_Container_base0@1@@Z ; std::_Vector_iterator<std::_Vector_val<ioTask *,std::allocator<ioTask *> > >::_Vector_iterator<std::_Vector_val<ioTask *,std::allocator<ioTask *> > >
; Function compile flags: /Ogsp
;	COMDAT ??0?$_Vector_iterator@V?$_Vector_val@PAUioTask@@V?$allocator@PAUioTask@@@std@@@std@@@std@@QAE@PAPAUioTask@@PBU_Container_base0@1@@Z
_TEXT	SEGMENT
__Parg$ = 8						; size = 4
__Pvector$ = 12						; size = 4
??0?$_Vector_iterator@V?$_Vector_val@PAUioTask@@V?$allocator@PAUioTask@@@std@@@std@@@std@@QAE@PAPAUioTask@@PBU_Container_base0@1@@Z PROC ; std::_Vector_iterator<std::_Vector_val<ioTask *,std::allocator<ioTask *> > >::_Vector_iterator<std::_Vector_val<ioTask *,std::allocator<ioTask *> > >, COMDAT
; _this$ = ecx

; 304  : 		{	// construct with pointer _Parg

  00000	55		 push	 ebp
  00001	8b ec		 mov	 ebp, esp
  00003	8b c1		 mov	 eax, ecx
  00005	8b 4d 08	 mov	 ecx, DWORD PTR __Parg$[ebp]
  00008	89 08		 mov	 DWORD PTR [eax], ecx

; 305  : 		}

  0000a	5d		 pop	 ebp
  0000b	c2 08 00	 ret	 8
??0?$_Vector_iterator@V?$_Vector_val@PAUioTask@@V?$allocator@PAUioTask@@@std@@@std@@@std@@QAE@PAPAUioTask@@PBU_Container_base0@1@@Z ENDP ; std::_Vector_iterator<std::_Vector_val<ioTask *,std::allocator<ioTask *> > >::_Vector_iterator<std::_Vector_val<ioTask *,std::allocator<ioTask *> > >
_TEXT	ENDS
PUBLIC	??8?$_Vector_const_iterator@V?$_Vector_val@PAUioTask@@V?$allocator@PAUioTask@@@std@@@std@@@std@@QBE_NABV01@@Z ; std::_Vector_const_iterator<std::_Vector_val<ioTask *,std::allocator<ioTask *> > >::operator==
; Function compile flags: /Ogsp
;	COMDAT ??8?$_Vector_const_iterator@V?$_Vector_val@PAUioTask@@V?$allocator@PAUioTask@@@std@@@std@@@std@@QBE_NABV01@@Z
_TEXT	SEGMENT
__Right$ = 8						; size = 4
??8?$_Vector_const_iterator@V?$_Vector_val@PAUioTask@@V?$allocator@PAUioTask@@@std@@@std@@@std@@QBE_NABV01@@Z PROC ; std::_Vector_const_iterator<std::_Vector_val<ioTask *,std::allocator<ioTask *> > >::operator==, COMDAT
; _this$ = ecx

; 201  : 		{	// test for iterator equality

  00000	55		 push	 ebp
  00001	8b ec		 mov	 ebp, esp

; 202  : 		_Compat(_Right);
; 203  : 		return (this->_Ptr == _Right._Ptr);

  00003	8b 01		 mov	 eax, DWORD PTR [ecx]
  00005	8b 4d 08	 mov	 ecx, DWORD PTR __Right$[ebp]
  00008	2b 01		 sub	 eax, DWORD PTR [ecx]
  0000a	f7 d8		 neg	 eax
  0000c	1b c0		 sbb	 eax, eax
  0000e	40		 inc	 eax

; 204  : 		}

  0000f	5d		 pop	 ebp
  00010	c2 04 00	 ret	 4
??8?$_Vector_const_iterator@V?$_Vector_val@PAUioTask@@V?$allocator@PAUioTask@@@std@@@std@@@std@@QBE_NABV01@@Z ENDP ; std::_Vector_const_iterator<std::_Vector_val<ioTask *,std::allocator<ioTask *> > >::operator==
_TEXT	ENDS
PUBLIC	?max_size@?$vector@PAUioTask@@V?$allocator@PAUioTask@@@std@@@std@@QBEIXZ ; std::vector<ioTask *,std::allocator<ioTask *> >::max_size
; Function compile flags: /Ogsp
;	COMDAT ?max_size@?$vector@PAUioTask@@V?$allocator@PAUioTask@@@std@@@std@@QBEIXZ
_TEXT	SEGMENT
?max_size@?$vector@PAUioTask@@V?$allocator@PAUioTask@@@std@@@std@@QBEIXZ PROC ; std::vector<ioTask *,std::allocator<ioTask *> >::max_size, COMDAT
; _this$ = ecx

; 884  : 		return (this->_Alval.max_size());

  00000	b8 ff ff ff 3f	 mov	 eax, 1073741823		; 3fffffffH

; 885  : 		}

  00005	c3		 ret	 0
?max_size@?$vector@PAUioTask@@V?$allocator@PAUioTask@@@std@@@std@@QBEIXZ ENDP ; std::vector<ioTask *,std::allocator<ioTask *> >::max_size
_TEXT	ENDS
PUBLIC	?_Grow_to@?$vector@PAUioTask@@V?$allocator@PAUioTask@@@std@@@std@@IBEII@Z ; std::vector<ioTask *,std::allocator<ioTask *> >::_Grow_to
; Function compile flags: /Ogsp
;	COMDAT ?_Grow_to@?$vector@PAUioTask@@V?$allocator@PAUioTask@@@std@@@std@@IBEII@Z
_TEXT	SEGMENT
__Count$ = 8						; size = 4
?_Grow_to@?$vector@PAUioTask@@V?$allocator@PAUioTask@@@std@@@std@@IBEII@Z PROC ; std::vector<ioTask *,std::allocator<ioTask *> >::_Grow_to, COMDAT
; _this$ = ecx

; 1274 : 		{	// grow by 50% or at least to _Count

  00000	55		 push	 ebp
  00001	8b ec		 mov	 ebp, esp

; 1275 : 		size_type _Capacity = capacity();

  00003	8b 41 08	 mov	 eax, DWORD PTR [ecx+8]
  00006	2b 01		 sub	 eax, DWORD PTR [ecx]

; 1276 : 
; 1277 : 		_Capacity = max_size() - _Capacity / 2 < _Capacity
; 1278 : 			? 0 : _Capacity + _Capacity / 2;	// try to grow by 50%

  00008	ba ff ff ff 3f	 mov	 edx, 1073741823		; 3fffffffH
  0000d	c1 f8 02	 sar	 eax, 2
  00010	8b c8		 mov	 ecx, eax
  00012	d1 e9		 shr	 ecx, 1
  00014	2b d1		 sub	 edx, ecx
  00016	3b d0		 cmp	 edx, eax
  00018	73 04		 jae	 SHORT $LN4@Grow_to
  0001a	33 c0		 xor	 eax, eax
  0001c	eb 02		 jmp	 SHORT $LN5@Grow_to
$LN4@Grow_to:
  0001e	03 c1		 add	 eax, ecx
$LN5@Grow_to:

; 1279 : 		if (_Capacity < _Count)

  00020	3b 45 08	 cmp	 eax, DWORD PTR __Count$[ebp]

; 1280 : 			_Capacity = _Count;

  00023	0f 42 45 08	 cmovb	 eax, DWORD PTR __Count$[ebp]

; 1281 : 		return (_Capacity);
; 1282 : 		}

  00027	5d		 pop	 ebp
  00028	c2 04 00	 ret	 4
?_Grow_to@?$vector@PAUioTask@@V?$allocator@PAUioTask@@@std@@@std@@IBEII@Z ENDP ; std::vector<ioTask *,std::allocator<ioTask *> >::_Grow_to
_TEXT	ENDS
PUBLIC	?allocate@?$allocator@PAUioTask@@@std@@QAEPAPAUioTask@@I@Z ; std::allocator<ioTask *>::allocate
; Function compile flags: /Ogsp
; File c:\program files (x86)\microsoft visual studio 10.0\vc\include\xmemory
;	COMDAT ?allocate@?$allocator@PAUioTask@@@std@@QAEPAPAUioTask@@I@Z
_TEXT	SEGMENT
__Count$ = 8						; size = 4
?allocate@?$allocator@PAUioTask@@@std@@QAEPAPAUioTask@@I@Z PROC ; std::allocator<ioTask *>::allocate, COMDAT
; _this$ = ecx

; 186  : 		{	// allocate array of _Count elements

  00000	55		 push	 ebp
  00001	8b ec		 mov	 ebp, esp

; 187  : 		return (_Allocate(_Count, (pointer)0));

  00003	6a 00		 push	 0
  00005	ff 75 08	 push	 DWORD PTR __Count$[ebp]
  00008	e8 00 00 00 00	 call	 ??$_Allocate@PAUioTask@@@std@@YAPAPAUioTask@@IPAPAU1@@Z ; std::_Allocate<ioTask *>
  0000d	59		 pop	 ecx
  0000e	59		 pop	 ecx

; 188  : 		}

  0000f	5d		 pop	 ebp
  00010	c2 04 00	 ret	 4
?allocate@?$allocator@PAUioTask@@@std@@QAEPAPAUioTask@@I@Z ENDP ; std::allocator<ioTask *>::allocate
_TEXT	ENDS
PUBLIC	??$_Cons_val@V?$allocator@PAUioTask@@@std@@PAUioTask@@AAPAU3@@std@@YAXAAV?$allocator@PAUioTask@@@0@PAPAUioTask@@AAPAU2@@Z ; std::_Cons_val<std::allocator<ioTask *>,ioTask *,ioTask * &>
; Function compile flags: /Ogsp
;	COMDAT ??$_Cons_val@V?$allocator@PAUioTask@@@std@@PAUioTask@@AAPAU3@@std@@YAXAAV?$allocator@PAUioTask@@@0@PAPAUioTask@@AAPAU2@@Z
_TEXT	SEGMENT
__Alval$ = 8						; size = 4
__Pdest$ = 12						; size = 4
__Src$ = 16						; size = 4
??$_Cons_val@V?$allocator@PAUioTask@@@std@@PAUioTask@@AAPAU3@@std@@YAXAAV?$allocator@PAUioTask@@@0@PAPAUioTask@@AAPAU2@@Z PROC ; std::_Cons_val<std::allocator<ioTask *>,ioTask *,ioTask * &>, COMDAT

; 279  : 	{	// construct using allocator

  00000	55		 push	 ebp
  00001	8b ec		 mov	 ebp, esp

; 280  : 	_Alval.construct(_Pdest, _STD forward<_Ty2>(_Src));

  00003	8b 45 0c	 mov	 eax, DWORD PTR __Pdest$[ebp]
  00006	85 c0		 test	 eax, eax
  00008	74 07		 je	 SHORT $LN7@Cons_val
  0000a	8b 4d 10	 mov	 ecx, DWORD PTR __Src$[ebp]
  0000d	8b 09		 mov	 ecx, DWORD PTR [ecx]
  0000f	89 08		 mov	 DWORD PTR [eax], ecx
$LN7@Cons_val:

; 281  : 	}

  00011	5d		 pop	 ebp
  00012	c3		 ret	 0
??$_Cons_val@V?$allocator@PAUioTask@@@std@@PAUioTask@@AAPAU3@@std@@YAXAAV?$allocator@PAUioTask@@@0@PAPAUioTask@@AAPAU2@@Z ENDP ; std::_Cons_val<std::allocator<ioTask *>,ioTask *,ioTask * &>
_TEXT	ENDS
PUBLIC	??$_Move@PAPAUioTask@@PAPAU1@@std@@YAPAPAUioTask@@PAPAU1@00@Z ; std::_Move<ioTask * *,ioTask * *>
; Function compile flags: /Ogsp
; File c:\program files (x86)\microsoft visual studio 10.0\vc\include\xutility
;	COMDAT ??$_Move@PAPAUioTask@@PAPAU1@@std@@YAPAPAUioTask@@PAPAU1@00@Z
_TEXT	SEGMENT
__Cat$519273 = -4					; size = 1
__First$ = 8						; size = 4
__Last$ = 12						; size = 4
__Dest$ = 16						; size = 4
??$_Move@PAPAUioTask@@PAPAU1@@std@@YAPAPAUioTask@@PAPAU1@00@Z PROC ; std::_Move<ioTask * *,ioTask * *>, COMDAT

; 2533 : 	{	// move [_First, _Last) to [_Dest, ...), unchecked

  00000	55		 push	 ebp
  00001	8b ec		 mov	 ebp, esp
  00003	51		 push	 ecx

; 2534 : 	return (_Move(_First, _Last,
; 2535 : 		_Dest, _Ptr_cat(_First, _Dest)));

  00004	ff 75 fc	 push	 DWORD PTR __Cat$519273[ebp]
  00007	ff 75 10	 push	 DWORD PTR __Dest$[ebp]
  0000a	ff 75 0c	 push	 DWORD PTR __Last$[ebp]
  0000d	ff 75 08	 push	 DWORD PTR __First$[ebp]
  00010	e8 00 00 00 00	 call	 ??$_Move@PAPAUioTask@@PAPAU1@@std@@YAPAPAUioTask@@PAPAU1@00U_Scalar_ptr_iterator_tag@0@@Z ; std::_Move<ioTask * *,ioTask * *>
  00015	83 c4 10	 add	 esp, 16			; 00000010H

; 2536 : 	}

  00018	c9		 leave
  00019	c3		 ret	 0
??$_Move@PAPAUioTask@@PAPAU1@@std@@YAPAPAUioTask@@PAPAU1@00@Z ENDP ; std::_Move<ioTask * *,ioTask * *>
_TEXT	ENDS
PUBLIC	??$_Destroy_range@V?$allocator@PAUioTask@@@std@@@std@@YAXPAPAUioTask@@0AAV?$allocator@PAUioTask@@@0@@Z ; std::_Destroy_range<std::allocator<ioTask *> >
; Function compile flags: /Ogsp
; File c:\program files (x86)\microsoft visual studio 10.0\vc\include\xmemory
;	COMDAT ??$_Destroy_range@V?$allocator@PAUioTask@@@std@@@std@@YAXPAPAUioTask@@0AAV?$allocator@PAUioTask@@@0@@Z
_TEXT	SEGMENT
__First$ = 8						; size = 4
__Last$ = 12						; size = 4
__Al$ = 16						; size = 4
??$_Destroy_range@V?$allocator@PAUioTask@@@std@@@std@@YAXPAPAUioTask@@0AAV?$allocator@PAUioTask@@@0@@Z PROC ; std::_Destroy_range<std::allocator<ioTask *> >, COMDAT

; 88   : 	_Destroy_range(_First, _Last, _Al, _Ptr_cat(_First, _Last));
; 89   : 	}

  00000	c3		 ret	 0
??$_Destroy_range@V?$allocator@PAUioTask@@@std@@@std@@YAXPAPAUioTask@@0AAV?$allocator@PAUioTask@@@0@@Z ENDP ; std::_Destroy_range<std::allocator<ioTask *> >
_TEXT	ENDS
PUBLIC	?construct@?$allocator@PAUioTask@@@std@@QAEXPAPAUioTask@@ABQAU3@@Z ; std::allocator<ioTask *>::construct
; Function compile flags: /Ogsp
;	COMDAT ?construct@?$allocator@PAUioTask@@@std@@QAEXPAPAUioTask@@ABQAU3@@Z
_TEXT	SEGMENT
__Ptr$ = 8						; size = 4
__Val$ = 12						; size = 4
?construct@?$allocator@PAUioTask@@@std@@QAEXPAPAUioTask@@ABQAU3@@Z PROC ; std::allocator<ioTask *>::construct, COMDAT
; _this$ = ecx

; 196  : 		{	// construct object at _Ptr with value _Val

  00000	55		 push	 ebp
  00001	8b ec		 mov	 ebp, esp

; 197  : 		_Construct(_Ptr, _Val);

  00003	8b 45 08	 mov	 eax, DWORD PTR __Ptr$[ebp]
  00006	85 c0		 test	 eax, eax
  00008	74 07		 je	 SHORT $LN5@construct@2
  0000a	8b 4d 0c	 mov	 ecx, DWORD PTR __Val$[ebp]
  0000d	8b 09		 mov	 ecx, DWORD PTR [ecx]
  0000f	89 08		 mov	 DWORD PTR [eax], ecx
$LN5@construct@2:

; 198  : 		}

  00011	5d		 pop	 ebp
  00012	c2 08 00	 ret	 8
?construct@?$allocator@PAUioTask@@@std@@QAEXPAPAUioTask@@ABQAU3@@Z ENDP ; std::allocator<ioTask *>::construct
_TEXT	ENDS
PUBLIC	??$_Uninitialized_move@PAPAUioTask@@PAPAU1@V?$allocator@PAUioTask@@@std@@@std@@YAPAPAUioTask@@PAPAU1@00AAV?$allocator@PAUioTask@@@0@@Z ; std::_Uninitialized_move<ioTask * *,ioTask * *,std::allocator<ioTask *> >
; Function compile flags: /Ogsp
; File c:\program files (x86)\microsoft visual studio 10.0\vc\include\memory
;	COMDAT ??$_Uninitialized_move@PAPAUioTask@@PAPAU1@V?$allocator@PAUioTask@@@std@@@std@@YAPAPAUioTask@@PAPAU1@00AAV?$allocator@PAUioTask@@@0@@Z
_TEXT	SEGMENT
__First$ = 8						; size = 4
__Last$ = 12						; size = 4
__Dest$ = 16						; size = 4
__Al$ = 20						; size = 4
??$_Uninitialized_move@PAPAUioTask@@PAPAU1@V?$allocator@PAUioTask@@@std@@@std@@YAPAPAUioTask@@PAPAU1@00AAV?$allocator@PAUioTask@@@0@@Z PROC ; std::_Uninitialized_move<ioTask * *,ioTask * *,std::allocator<ioTask *> >, COMDAT

; 469  : 	{	// move [_First, _Last) to raw _Dest, using _Al

  00000	55		 push	 ebp
  00001	8b ec		 mov	 ebp, esp
  00003	56		 push	 esi

; 470  : 	return (_Uninit_move(_First, _Last, _Dest, _Al,
; 471  : 		_Val_type(_First), _Ptr_cat(_First, _Dest)));

  00004	8b 75 0c	 mov	 esi, DWORD PTR __Last$[ebp]
  00007	2b 75 08	 sub	 esi, DWORD PTR __First$[ebp]
  0000a	c1 fe 02	 sar	 esi, 2
  0000d	c1 e6 02	 shl	 esi, 2
  00010	56		 push	 esi
  00011	ff 75 08	 push	 DWORD PTR __First$[ebp]
  00014	ff 75 10	 push	 DWORD PTR __Dest$[ebp]
  00017	ff 15 00 00 00
	00		 call	 DWORD PTR __imp__memmove
  0001d	83 c4 0c	 add	 esp, 12			; 0000000cH
  00020	03 c6		 add	 eax, esi
  00022	5e		 pop	 esi

; 472  : 	}

  00023	5d		 pop	 ebp
  00024	c3		 ret	 0
??$_Uninitialized_move@PAPAUioTask@@PAPAU1@V?$allocator@PAUioTask@@@std@@@std@@YAPAPAUioTask@@PAPAU1@00AAV?$allocator@PAUioTask@@@0@@Z ENDP ; std::_Uninitialized_move<ioTask * *,ioTask * *,std::allocator<ioTask *> >
_TEXT	ENDS
PUBLIC	??B?$CEncrypt@H@@QAEHXZ				; CEncrypt<int>::operator int
; Function compile flags: /Ogsp
; File d:\lost saga for developer\youtube\tutorial\source\src\lsclient\encryptvalue.h
;	COMDAT ??B?$CEncrypt@H@@QAEHXZ
_TEXT	SEGMENT
_value$ = -4						; size = 4
??B?$CEncrypt@H@@QAEHXZ PROC				; CEncrypt<int>::operator int, COMDAT
; _this$ = ecx

; 134  : 	{

  00000	55		 push	 ebp
  00001	8b ec		 mov	 ebp, esp
  00003	51		 push	 ecx

; 135  : 		type value;
; 136  : 		DecryptValueToPool(&value);

  00004	8d 45 fc	 lea	 eax, DWORD PTR _value$[ebp]
  00007	50		 push	 eax
  00008	e8 00 00 00 00	 call	 ?DecryptValueToPool@?$CEncrypt@H@@QAEXPAH@Z ; CEncrypt<int>::DecryptValueToPool

; 137  : 
; 138  : #ifdef _NOTUSE
; 139  : 		Debug();
; 140  : #endif
; 141  : 		return value;

  0000d	8b 45 fc	 mov	 eax, DWORD PTR _value$[ebp]

; 142  : 	}

  00010	c9		 leave
  00011	c3		 ret	 0
??B?$CEncrypt@H@@QAEHXZ ENDP				; CEncrypt<int>::operator int
_TEXT	ENDS
PUBLIC	??0?$vector@PAUioTask@@V?$allocator@PAUioTask@@@std@@@std@@QAE@XZ ; std::vector<ioTask *,std::allocator<ioTask *> >::vector<ioTask *,std::allocator<ioTask *> >
; Function compile flags: /Ogsp
; File c:\program files (x86)\microsoft visual studio 10.0\vc\include\vector
;	COMDAT ??0?$vector@PAUioTask@@V?$allocator@PAUioTask@@@std@@@std@@QAE@XZ
_TEXT	SEGMENT
??0?$vector@PAUioTask@@V?$allocator@PAUioTask@@@std@@@std@@QAE@XZ PROC ; std::vector<ioTask *,std::allocator<ioTask *> >::vector<ioTask *,std::allocator<ioTask *> >, COMDAT
; _this$ = ecx

; 507  : 		{	// construct empty vector

  00000	8b c1		 mov	 eax, ecx
  00002	33 c9		 xor	 ecx, ecx
  00004	89 08		 mov	 DWORD PTR [eax], ecx
  00006	89 48 04	 mov	 DWORD PTR [eax+4], ecx
  00009	89 48 08	 mov	 DWORD PTR [eax+8], ecx

; 508  : 		}

  0000c	c3		 ret	 0
??0?$vector@PAUioTask@@V?$allocator@PAUioTask@@@std@@@std@@QAE@XZ ENDP ; std::vector<ioTask *,std::allocator<ioTask *> >::vector<ioTask *,std::allocator<ioTask *> >
_TEXT	ENDS
PUBLIC	?begin@?$vector@PAUioTask@@V?$allocator@PAUioTask@@@std@@@std@@QAE?AV?$_Vector_iterator@V?$_Vector_val@PAUioTask@@V?$allocator@PAUioTask@@@std@@@std@@@2@XZ ; std::vector<ioTask *,std::allocator<ioTask *> >::begin
; Function compile flags: /Ogsp
;	COMDAT ?begin@?$vector@PAUioTask@@V?$allocator@PAUioTask@@@std@@@std@@QAE?AV?$_Vector_iterator@V?$_Vector_val@PAUioTask@@V?$allocator@PAUioTask@@@std@@@std@@@2@XZ
_TEXT	SEGMENT
___$ReturnUdt$ = 8					; size = 4
?begin@?$vector@PAUioTask@@V?$allocator@PAUioTask@@@std@@@std@@QAE?AV?$_Vector_iterator@V?$_Vector_val@PAUioTask@@V?$allocator@PAUioTask@@@std@@@std@@@2@XZ PROC ; std::vector<ioTask *,std::allocator<ioTask *> >::begin, COMDAT
; _this$ = ecx

; 781  : 		{	// return iterator for beginning of mutable sequence

  00000	55		 push	 ebp
  00001	8b ec		 mov	 ebp, esp

; 782  : 		return (iterator(this->_Myfirst, this));

  00003	8b 09		 mov	 ecx, DWORD PTR [ecx]
  00005	8b 45 08	 mov	 eax, DWORD PTR ___$ReturnUdt$[ebp]
  00008	89 08		 mov	 DWORD PTR [eax], ecx

; 783  : 		}

  0000a	5d		 pop	 ebp
  0000b	c2 04 00	 ret	 4
?begin@?$vector@PAUioTask@@V?$allocator@PAUioTask@@@std@@@std@@QAE?AV?$_Vector_iterator@V?$_Vector_val@PAUioTask@@V?$allocator@PAUioTask@@@std@@@std@@@2@XZ ENDP ; std::vector<ioTask *,std::allocator<ioTask *> >::begin
_TEXT	ENDS
PUBLIC	?end@?$vector@PAUioTask@@V?$allocator@PAUioTask@@@std@@@std@@QAE?AV?$_Vector_iterator@V?$_Vector_val@PAUioTask@@V?$allocator@PAUioTask@@@std@@@std@@@2@XZ ; std::vector<ioTask *,std::allocator<ioTask *> >::end
; Function compile flags: /Ogsp
;	COMDAT ?end@?$vector@PAUioTask@@V?$allocator@PAUioTask@@@std@@@std@@QAE?AV?$_Vector_iterator@V?$_Vector_val@PAUioTask@@V?$allocator@PAUioTask@@@std@@@std@@@2@XZ
_TEXT	SEGMENT
___$ReturnUdt$ = 8					; size = 4
?end@?$vector@PAUioTask@@V?$allocator@PAUioTask@@@std@@@std@@QAE?AV?$_Vector_iterator@V?$_Vector_val@PAUioTask@@V?$allocator@PAUioTask@@@std@@@std@@@2@XZ PROC ; std::vector<ioTask *,std::allocator<ioTask *> >::end, COMDAT
; _this$ = ecx

; 791  : 		{	// return iterator for end of mutable sequence

  00000	55		 push	 ebp
  00001	8b ec		 mov	 ebp, esp

; 792  : 		return (iterator(this->_Mylast, this));

  00003	8b 49 04	 mov	 ecx, DWORD PTR [ecx+4]
  00006	8b 45 08	 mov	 eax, DWORD PTR ___$ReturnUdt$[ebp]
  00009	89 08		 mov	 DWORD PTR [eax], ecx

; 793  : 		}

  0000b	5d		 pop	 ebp
  0000c	c2 04 00	 ret	 4
?end@?$vector@PAUioTask@@V?$allocator@PAUioTask@@@std@@@std@@QAE?AV?$_Vector_iterator@V?$_Vector_val@PAUioTask@@V?$allocator@PAUioTask@@@std@@@std@@@2@XZ ENDP ; std::vector<ioTask *,std::allocator<ioTask *> >::end
_TEXT	ENDS
PUBLIC	??9?$_Vector_const_iterator@V?$_Vector_val@PAUioTask@@V?$allocator@PAUioTask@@@std@@@std@@@std@@QBE_NABV01@@Z ; std::_Vector_const_iterator<std::_Vector_val<ioTask *,std::allocator<ioTask *> > >::operator!=
; Function compile flags: /Ogsp
;	COMDAT ??9?$_Vector_const_iterator@V?$_Vector_val@PAUioTask@@V?$allocator@PAUioTask@@@std@@@std@@@std@@QBE_NABV01@@Z
_TEXT	SEGMENT
__Right$ = 8						; size = 4
??9?$_Vector_const_iterator@V?$_Vector_val@PAUioTask@@V?$allocator@PAUioTask@@@std@@@std@@@std@@QBE_NABV01@@Z PROC ; std::_Vector_const_iterator<std::_Vector_val<ioTask *,std::allocator<ioTask *> > >::operator!=, COMDAT
; _this$ = ecx

; 207  : 		{	// test for iterator inequality

  00000	55		 push	 ebp
  00001	8b ec		 mov	 ebp, esp

; 208  : 		return (!(*this == _Right));

  00003	8b 01		 mov	 eax, DWORD PTR [ecx]
  00005	8b 55 08	 mov	 edx, DWORD PTR __Right$[ebp]
  00008	33 c9		 xor	 ecx, ecx
  0000a	3b 02		 cmp	 eax, DWORD PTR [edx]
  0000c	0f 95 c0	 setne	 al

; 209  : 		}

  0000f	5d		 pop	 ebp
  00010	c2 04 00	 ret	 4
??9?$_Vector_const_iterator@V?$_Vector_val@PAUioTask@@V?$allocator@PAUioTask@@@std@@@std@@@std@@QBE_NABV01@@Z ENDP ; std::_Vector_const_iterator<std::_Vector_val<ioTask *,std::allocator<ioTask *> > >::operator!=
_TEXT	ENDS
PUBLIC	?_Make_iter@?$vector@PAUioTask@@V?$allocator@PAUioTask@@@std@@@std@@QBE?AV?$_Vector_iterator@V?$_Vector_val@PAUioTask@@V?$allocator@PAUioTask@@@std@@@std@@@2@V?$_Vector_const_iterator@V?$_Vector_val@PAUioTask@@V?$allocator@PAUioTask@@@std@@@std@@@2@@Z ; std::vector<ioTask *,std::allocator<ioTask *> >::_Make_iter
; Function compile flags: /Ogsp
;	COMDAT ?_Make_iter@?$vector@PAUioTask@@V?$allocator@PAUioTask@@@std@@@std@@QBE?AV?$_Vector_iterator@V?$_Vector_val@PAUioTask@@V?$allocator@PAUioTask@@@std@@@std@@@2@V?$_Vector_const_iterator@V?$_Vector_val@PAUioTask@@V?$allocator@PAUioTask@@@std@@@std@@@2@@Z
_TEXT	SEGMENT
___$ReturnUdt$ = 8					; size = 4
__Where$ = 12						; size = 4
?_Make_iter@?$vector@PAUioTask@@V?$allocator@PAUioTask@@@std@@@std@@QBE?AV?$_Vector_iterator@V?$_Vector_val@PAUioTask@@V?$allocator@PAUioTask@@@std@@@std@@@2@V?$_Vector_const_iterator@V?$_Vector_val@PAUioTask@@V?$allocator@PAUioTask@@@std@@@std@@@2@@Z PROC ; std::vector<ioTask *,std::allocator<ioTask *> >::_Make_iter, COMDAT
; _this$ = ecx

; 801  : 		{	// make iterator from const_iterator

  00000	55		 push	 ebp
  00001	8b ec		 mov	 ebp, esp

; 802  : 		return (iterator(_Where._Ptr, this));

  00003	8b 45 08	 mov	 eax, DWORD PTR ___$ReturnUdt$[ebp]
  00006	8b 4d 0c	 mov	 ecx, DWORD PTR __Where$[ebp]
  00009	89 08		 mov	 DWORD PTR [eax], ecx

; 803  : 		}

  0000b	5d		 pop	 ebp
  0000c	c2 08 00	 ret	 8
?_Make_iter@?$vector@PAUioTask@@V?$allocator@PAUioTask@@@std@@@std@@QBE?AV?$_Vector_iterator@V?$_Vector_val@PAUioTask@@V?$allocator@PAUioTask@@@std@@@std@@@2@V?$_Vector_const_iterator@V?$_Vector_val@PAUioTask@@V?$allocator@PAUioTask@@@std@@@std@@@2@@Z ENDP ; std::vector<ioTask *,std::allocator<ioTask *> >::_Make_iter
_TEXT	ENDS
PUBLIC	?_Destroy@?$vector@PAUioTask@@V?$allocator@PAUioTask@@@std@@@std@@IAEXPAPAUioTask@@0@Z ; std::vector<ioTask *,std::allocator<ioTask *> >::_Destroy
; Function compile flags: /Ogsp
;	COMDAT ?_Destroy@?$vector@PAUioTask@@V?$allocator@PAUioTask@@@std@@@std@@IAEXPAPAUioTask@@0@Z
_TEXT	SEGMENT
__First$ = 8						; size = 4
__Last$ = 12						; size = 4
?_Destroy@?$vector@PAUioTask@@V?$allocator@PAUioTask@@@std@@@std@@IAEXPAPAUioTask@@0@Z PROC ; std::vector<ioTask *,std::allocator<ioTask *> >::_Destroy, COMDAT
; _this$ = ecx

; 1270 : 		_Destroy_range(_First, _Last, this->_Alval);
; 1271 : 		}

  00000	c2 08 00	 ret	 8
?_Destroy@?$vector@PAUioTask@@V?$allocator@PAUioTask@@@std@@@std@@IAEXPAPAUioTask@@0@Z ENDP ; std::vector<ioTask *,std::allocator<ioTask *> >::_Destroy
_TEXT	ENDS
PUBLIC	?_Tidy@?$vector@PAUioTask@@V?$allocator@PAUioTask@@@std@@@std@@IAEXXZ ; std::vector<ioTask *,std::allocator<ioTask *> >::_Tidy
EXTRN	__imp_?_Orphan_all@_Container_base0@std@@QAEXXZ:PROC
; Function compile flags: /Ogsp
;	COMDAT ?_Tidy@?$vector@PAUioTask@@V?$allocator@PAUioTask@@@std@@@std@@IAEXXZ
_TEXT	SEGMENT
?_Tidy@?$vector@PAUioTask@@V?$allocator@PAUioTask@@@std@@@std@@IAEXXZ PROC ; std::vector<ioTask *,std::allocator<ioTask *> >::_Tidy, COMDAT
; _this$ = ecx

; 1301 : 		{	// free all storage

  00000	56		 push	 esi
  00001	8b f1		 mov	 esi, ecx

; 1302 : 		if (this->_Myfirst != 0)

  00003	83 3e 00	 cmp	 DWORD PTR [esi], 0
  00006	74 0e		 je	 SHORT $LN12@Tidy

; 1303 : 			{	// something to free, destroy and deallocate it
; 1304 : 			this->_Orphan_all();

  00008	ff 15 00 00 00
	00		 call	 DWORD PTR __imp_?_Orphan_all@_Container_base0@std@@QAEXXZ

; 1305 : 			_Destroy(this->_Myfirst, this->_Mylast);
; 1306 : 			this->_Alval.deallocate(this->_Myfirst,
; 1307 : 				this->_Myend - this->_Myfirst);

  0000e	ff 36		 push	 DWORD PTR [esi]
  00010	e8 00 00 00 00	 call	 ??3@YAXPAX@Z		; operator delete
  00015	59		 pop	 ecx
$LN12@Tidy:

; 1308 : 			}
; 1309 : 		this->_Myfirst = 0;

  00016	83 26 00	 and	 DWORD PTR [esi], 0

; 1310 : 		this->_Mylast = 0;

  00019	83 66 04 00	 and	 DWORD PTR [esi+4], 0

; 1311 : 		this->_Myend = 0;

  0001d	83 66 08 00	 and	 DWORD PTR [esi+8], 0
  00021	5e		 pop	 esi

; 1312 : 		}

  00022	c3		 ret	 0
?_Tidy@?$vector@PAUioTask@@V?$allocator@PAUioTask@@@std@@@std@@IAEXXZ ENDP ; std::vector<ioTask *,std::allocator<ioTask *> >::_Tidy
_TEXT	ENDS
PUBLIC	??$_Cons_val@V?$allocator@PAUioTask@@@std@@PAUioTask@@ABQAU3@@std@@YAXAAV?$allocator@PAUioTask@@@0@PAPAUioTask@@ABQAU2@@Z ; std::_Cons_val<std::allocator<ioTask *>,ioTask *,ioTask * const &>
; Function compile flags: /Ogsp
; File c:\program files (x86)\microsoft visual studio 10.0\vc\include\xmemory
;	COMDAT ??$_Cons_val@V?$allocator@PAUioTask@@@std@@PAUioTask@@ABQAU3@@std@@YAXAAV?$allocator@PAUioTask@@@0@PAPAUioTask@@ABQAU2@@Z
_TEXT	SEGMENT
__Alval$ = 8						; size = 4
__Pdest$ = 12						; size = 4
__Src$ = 16						; size = 4
??$_Cons_val@V?$allocator@PAUioTask@@@std@@PAUioTask@@ABQAU3@@std@@YAXAAV?$allocator@PAUioTask@@@0@PAPAUioTask@@ABQAU2@@Z PROC ; std::_Cons_val<std::allocator<ioTask *>,ioTask *,ioTask * const &>, COMDAT

; 279  : 	{	// construct using allocator

  00000	55		 push	 ebp
  00001	8b ec		 mov	 ebp, esp

; 280  : 	_Alval.construct(_Pdest, _STD forward<_Ty2>(_Src));

  00003	8b 45 0c	 mov	 eax, DWORD PTR __Pdest$[ebp]
  00006	85 c0		 test	 eax, eax
  00008	74 07		 je	 SHORT $LN9@Cons_val@2
  0000a	8b 4d 10	 mov	 ecx, DWORD PTR __Src$[ebp]
  0000d	8b 09		 mov	 ecx, DWORD PTR [ecx]
  0000f	89 08		 mov	 DWORD PTR [eax], ecx
$LN9@Cons_val@2:

; 281  : 	}

  00011	5d		 pop	 ebp
  00012	c3		 ret	 0
??$_Cons_val@V?$allocator@PAUioTask@@@std@@PAUioTask@@ABQAU3@@std@@YAXAAV?$allocator@PAUioTask@@@0@PAPAUioTask@@ABQAU2@@Z ENDP ; std::_Cons_val<std::allocator<ioTask *>,ioTask *,ioTask * const &>
_TEXT	ENDS
PUBLIC	??$_Umove@PAPAUioTask@@@?$vector@PAUioTask@@V?$allocator@PAUioTask@@@std@@@std@@IAEPAPAUioTask@@PAPAU2@00@Z ; std::vector<ioTask *,std::allocator<ioTask *> >::_Umove<ioTask * *>
; Function compile flags: /Ogsp
; File c:\program files (x86)\microsoft visual studio 10.0\vc\include\vector
;	COMDAT ??$_Umove@PAPAUioTask@@@?$vector@PAUioTask@@V?$allocator@PAUioTask@@@std@@@std@@IAEPAPAUioTask@@PAPAU2@00@Z
_TEXT	SEGMENT
__First$ = 8						; size = 4
__Last$ = 12						; size = 4
__Ptr$ = 16						; size = 4
??$_Umove@PAPAUioTask@@@?$vector@PAUioTask@@V?$allocator@PAUioTask@@@std@@@std@@IAEPAPAUioTask@@PAPAU2@00@Z PROC ; std::vector<ioTask *,std::allocator<ioTask *> >::_Umove<ioTask * *>, COMDAT
; _this$ = ecx

; 1322 : 		pointer _Umove(_Iter _First, _Iter _Last, pointer _Ptr)

  00000	55		 push	 ebp
  00001	8b ec		 mov	 ebp, esp

; 1323 : 		{	// move initializing [_First, _Last), using allocator
; 1324 : 		return (_Uninitialized_move(_First, _Last,
; 1325 : 			_Ptr, this->_Alval));

  00003	83 c1 0c	 add	 ecx, 12			; 0000000cH
  00006	51		 push	 ecx
  00007	ff 75 10	 push	 DWORD PTR __Ptr$[ebp]
  0000a	ff 75 0c	 push	 DWORD PTR __Last$[ebp]
  0000d	ff 75 08	 push	 DWORD PTR __First$[ebp]
  00010	e8 00 00 00 00	 call	 ??$_Uninitialized_move@PAPAUioTask@@PAPAU1@V?$allocator@PAUioTask@@@std@@@std@@YAPAPAUioTask@@PAPAU1@00AAV?$allocator@PAUioTask@@@0@@Z ; std::_Uninitialized_move<ioTask * *,ioTask * *,std::allocator<ioTask *> >
  00015	83 c4 10	 add	 esp, 16			; 00000010H

; 1326 : 		}

  00018	5d		 pop	 ebp
  00019	c2 0c 00	 ret	 12			; 0000000cH
??$_Umove@PAPAUioTask@@@?$vector@PAUioTask@@V?$allocator@PAUioTask@@@std@@@std@@IAEPAPAUioTask@@PAPAU2@00@Z ENDP ; std::vector<ioTask *,std::allocator<ioTask *> >::_Umove<ioTask * *>
_TEXT	ENDS
PUBLIC	?GetPcRoomCharMax@ioMyInfo@@QAEHXZ		; ioMyInfo::GetPcRoomCharMax
; Function compile flags: /Ogsp
; File d:\lost saga for developer\youtube\tutorial\source\src\lsclient\iomyinfo.h
;	COMDAT ?GetPcRoomCharMax@ioMyInfo@@QAEHXZ
_TEXT	SEGMENT
_value$519509 = -4					; size = 4
?GetPcRoomCharMax@ioMyInfo@@QAEHXZ PROC			; ioMyInfo::GetPcRoomCharMax, COMDAT
; _this$ = ecx

; 1071 : 	inline int GetPcRoomCharMax(){	return m_iExcercisePCRoomCharMax; }

  00000	55		 push	 ebp
  00001	8b ec		 mov	 ebp, esp
  00003	51		 push	 ecx
  00004	8d 45 fc	 lea	 eax, DWORD PTR _value$519509[ebp]
  00007	50		 push	 eax
  00008	81 c1 cc 0b 00
	00		 add	 ecx, 3020		; 00000bccH
  0000e	e8 00 00 00 00	 call	 ?DecryptValueToPool@?$CEncrypt@H@@QAEXPAH@Z ; CEncrypt<int>::DecryptValueToPool
  00013	8b 45 fc	 mov	 eax, DWORD PTR _value$519509[ebp]
  00016	c9		 leave
  00017	c3		 ret	 0
?GetPcRoomCharMax@ioMyInfo@@QAEHXZ ENDP			; ioMyInfo::GetPcRoomCharMax
_TEXT	ENDS
PUBLIC	?GetTask@ioReservedTask@@QAEQBUioTask@@W4ReservedTaskTypes@@W4ReservedTaskWhens@@@Z ; ioReservedTask::GetTask
; Function compile flags: /Ogsp
; File d:\lost saga for developer\youtube\tutorial\source\src\lsclient\ioreservedtask.cpp
;	COMDAT ?GetTask@ioReservedTask@@QAEQBUioTask@@W4ReservedTaskTypes@@W4ReservedTaskWhens@@@Z
_TEXT	SEGMENT
_eTaskType$ = 8						; size = 4
_eWhen$ = 12						; size = 4
?GetTask@ioReservedTask@@QAEQBUioTask@@W4ReservedTaskTypes@@W4ReservedTaskWhens@@@Z PROC ; ioReservedTask::GetTask, COMDAT
; _this$ = ecx

; 69   : {

  00000	55		 push	 ebp
  00001	8b ec		 mov	 ebp, esp

; 70   : 	for( vReservedTask::iterator it = m_vReservedTask.begin() ; it != m_vReservedTask.end() ; ++it )

  00003	8b 51 04	 mov	 edx, DWORD PTR [ecx+4]
  00006	8b 49 08	 mov	 ecx, DWORD PTR [ecx+8]
  00009	56		 push	 esi
  0000a	eb 19		 jmp	 SHORT $LN41@GetTask
$LL18@GetTask:

; 71   : 	{
; 72   : 		ioTask* pTask = *it;

  0000c	8b 02		 mov	 eax, DWORD PTR [edx]

; 73   : 		if( !pTask )

  0000e	85 c0		 test	 eax, eax
  00010	74 10		 je	 SHORT $LN4@GetTask

; 74   : 			continue;
; 75   : 
; 76   : 		//같은 예약이면 Add하지 않음
; 77   : 		if( pTask->eType == eTaskType && pTask->eWhen == eWhen )

  00012	8b 70 04	 mov	 esi, DWORD PTR [eax+4]
  00015	3b 75 08	 cmp	 esi, DWORD PTR _eTaskType$[ebp]
  00018	75 08		 jne	 SHORT $LN4@GetTask
  0001a	8b 70 08	 mov	 esi, DWORD PTR [eax+8]
  0001d	3b 75 0c	 cmp	 esi, DWORD PTR _eWhen$[ebp]
  00020	74 09		 je	 SHORT $LN6@GetTask
$LN4@GetTask:

; 70   : 	for( vReservedTask::iterator it = m_vReservedTask.begin() ; it != m_vReservedTask.end() ; ++it )

  00022	83 c2 04	 add	 edx, 4
$LN41@GetTask:
  00025	3b d1		 cmp	 edx, ecx
  00027	75 e3		 jne	 SHORT $LL18@GetTask

; 78   : 		{
; 79   : 			return pTask;
; 80   : 		}
; 81   : 	}
; 82   : 
; 83   : 	return NULL;

  00029	33 c0		 xor	 eax, eax
$LN6@GetTask:
  0002b	5e		 pop	 esi

; 84   : }

  0002c	5d		 pop	 ebp
  0002d	c2 08 00	 ret	 8
?GetTask@ioReservedTask@@QAEQBUioTask@@W4ReservedTaskTypes@@W4ReservedTaskWhens@@@Z ENDP ; ioReservedTask::GetTask
_TEXT	ENDS
PUBLIC	__real@3f266666
PUBLIC	??_C@_0CE@JEIDOKAJ@ioReservedTask?3?3OnExecuteRecvPCR@ ; `string'
PUBLIC	??_C@_00CNPNBAHC@?$AA@				; `string'
PUBLIC	?OnExecuteRecvPCRoom@ioReservedTask@@IAE_NPAUioTask@@@Z ; ioReservedTask::OnExecuteRecvPCRoom
EXTRN	__imp_?ShowWnd@ioGUIManager@@QAEXK_N@Z:PROC
EXTRN	??_M@YGXPAXIHP6EX0@Z@Z:PROC			; `eh vector destructor iterator'
EXTRN	?SetPrevMsgListBoxWithTitle@ioSP2GUIManager@@QAEXPAVioWnd@@H0PAVioComplexStringPrinter@@PBD222W4TextAlignType@@@Z:PROC ; ioSP2GUIManager::SetPrevMsgListBoxWithTitle
EXTRN	?AddTextPiece@ioComplexStringPrinter@@QAAXMPBDZZ:PROC ; ioComplexStringPrinter::AddTextPiece
EXTRN	__imp_?GetString@ioStringManager@@QAEPADPBD0HW4FileNamePrefix@1@@Z:PROC
EXTRN	__imp_?GetSingleton@ioStringManager@@SAAAV1@XZ:PROC
EXTRN	?SetTextColor@ioComplexStringPrinter@@QAEXK@Z:PROC ; ioComplexStringPrinter::SetTextColor
EXTRN	?SetBkColor@ioComplexStringPrinter@@QAEXHHH@Z:PROC ; ioComplexStringPrinter::SetBkColor
EXTRN	?SetTextStyle@ioComplexStringPrinter@@QAEXW4TextStyle@@@Z:PROC ; ioComplexStringPrinter::SetTextStyle
EXTRN	??_L@YGXPAXIHP6EX0@Z1@Z:PROC			; `eh vector constructor iterator'
EXTRN	??0ioComplexStringPrinter@@QAE@XZ:PROC		; ioComplexStringPrinter::ioComplexStringPrinter
EXTRN	??1ioComplexStringPrinter@@QAE@XZ:PROC		; ioComplexStringPrinter::~ioComplexStringPrinter
EXTRN	?GetLocal@ioLocalManager@@QAEPAVioLocalParent@@W4LocalType@ioLocalManagerParent@@@Z:PROC ; ioLocalManager::GetLocal
EXTRN	?GetSingleton@ioLocalManager@@SAAAV1@XZ:PROC	; ioLocalManager::GetSingleton
EXTRN	__imp_?GetLocalType@ioLocalManagerParent@@SA?AW4LocalType@1@XZ:PROC
EXTRN	?IsCharBankruptcy@ioMyInfo@@QAE_NXZ:PROC	; ioMyInfo::IsCharBankruptcy
EXTRN	?IsBankruptcy@ioMyInfo@@QAE_NXZ:PROC		; ioMyInfo::IsBankruptcy
EXTRN	?GetSingleton@ioMyInfo@@SAAAV1@XZ:PROC		; ioMyInfo::GetSingleton
EXTRN	__fltused:DWORD
EXTRN	__EH_epilog3_GS:PROC
EXTRN	__EH_prolog3_GS:PROC
;	COMDAT __real@3f266666
; File d:\lost saga for developer\youtube\tutorial\source\src\lsclient\iomyinfo.h
CONST	SEGMENT
__real@3f266666 DD 03f266666r			; 0.65
CONST	ENDS
;	COMDAT ??_C@_0CE@JEIDOKAJ@ioReservedTask?3?3OnExecuteRecvPCR@
CONST	SEGMENT
??_C@_0CE@JEIDOKAJ@ioReservedTask?3?3OnExecuteRecvPCR@ DB 'ioReservedTask'
	DB	'::OnExecuteRecvPCRoom', 00H			; `string'
CONST	ENDS
;	COMDAT ??_C@_00CNPNBAHC@?$AA@
CONST	SEGMENT
??_C@_00CNPNBAHC@?$AA@ DB 00H				; `string'
CONST	ENDS
;	COMDAT xdata$x
xdata$x	SEGMENT
__unwindtable$?OnExecuteRecvPCRoom@ioReservedTask@@IAE_NPAUioTask@@@Z DD 0ffffffffH
	DD	FLAT:__unwindfunclet$?OnExecuteRecvPCRoom@ioReservedTask@@IAE_NPAUioTask@@@Z$0
__ehfuncinfo$?OnExecuteRecvPCRoom@ioReservedTask@@IAE_NPAUioTask@@@Z DD 019930522H
	DD	01H
	DD	FLAT:__unwindtable$?OnExecuteRecvPCRoom@ioReservedTask@@IAE_NPAUioTask@@@Z
	DD	2 DUP(00H)
	DD	2 DUP(00H)
	DD	00H
	DD	01H
; Function compile flags: /Ogsp
; File d:\lost saga for developer\youtube\tutorial\source\src\lsclient\ioreservedtask.cpp
xdata$x	ENDS
;	COMDAT ?OnExecuteRecvPCRoom@ioReservedTask@@IAE_NPAUioTask@@@Z
_TEXT	SEGMENT
_value$519610 = -404					; size = 4
_kPrinter$517776 = -400					; size = 384
__$EHRec$ = -12						; size = 12
_pTask$ = 8						; size = 4
?OnExecuteRecvPCRoom@ioReservedTask@@IAE_NPAUioTask@@@Z PROC ; ioReservedTask::OnExecuteRecvPCRoom, COMDAT
; _this$ = ecx

; 238  : {

  00000	68 88 01 00 00	 push	 392			; 00000188H
  00005	b8 00 00 00 00	 mov	 eax, __ehhandler$?OnExecuteRecvPCRoom@ioReservedTask@@IAE_NPAUioTask@@@Z
  0000a	e8 00 00 00 00	 call	 __EH_prolog3_GS

; 239  : 	//파산 상태에서는 pc방 안내혜택 Off
; 240  : 	if( g_MyInfo.IsBankruptcy() || g_MyInfo.IsCharBankruptcy() )

  0000f	e8 00 00 00 00	 call	 ?GetSingleton@ioMyInfo@@SAAAV1@XZ ; ioMyInfo::GetSingleton
  00014	8b c8		 mov	 ecx, eax
  00016	e8 00 00 00 00	 call	 ?IsBankruptcy@ioMyInfo@@QAE_NXZ ; ioMyInfo::IsBankruptcy
  0001b	84 c0		 test	 al, al
  0001d	0f 85 72 02 00
	00		 jne	 $LN8@OnExecuteR@5
  00023	e8 00 00 00 00	 call	 ?GetSingleton@ioMyInfo@@SAAAV1@XZ ; ioMyInfo::GetSingleton
  00028	8b c8		 mov	 ecx, eax
  0002a	e8 00 00 00 00	 call	 ?IsCharBankruptcy@ioMyInfo@@QAE_NXZ ; ioMyInfo::IsCharBankruptcy
  0002f	84 c0		 test	 al, al
  00031	0f 85 5e 02 00
	00		 jne	 $LN8@OnExecuteR@5

; 242  : 	
; 243  : 	ioLocalParent *pLocal = g_LocalMgr.GetLocal( ioLocalManager::GetLocalType() );

  00037	ff 15 00 00 00
	00		 call	 DWORD PTR __imp_?GetLocalType@ioLocalManagerParent@@SA?AW4LocalType@1@XZ
  0003d	50		 push	 eax
  0003e	e8 00 00 00 00	 call	 ?GetSingleton@ioLocalManager@@SAAAV1@XZ ; ioLocalManager::GetSingleton
  00043	8b c8		 mov	 ecx, eax
  00045	e8 00 00 00 00	 call	 ?GetLocal@ioLocalManager@@QAEPAVioLocalParent@@W4LocalType@ioLocalManagerParent@@@Z ; ioLocalManager::GetLocal

; 244  : 	if( pLocal && pLocal->IsPCRoomBonusSoldier() )

  0004a	33 f6		 xor	 esi, esi
  0004c	3b c6		 cmp	 eax, esi
  0004e	0f 84 2a 02 00
	00		 je	 $LN7@OnExecuteR@5
  00054	8b 10		 mov	 edx, DWORD PTR [eax]
  00056	8b c8		 mov	 ecx, eax
  00058	ff 92 ec 00 00
	00		 call	 DWORD PTR [edx+236]
  0005e	84 c0		 test	 al, al
  00060	0f 84 18 02 00
	00		 je	 $LN7@OnExecuteR@5

; 245  : 	{
; 246  : 		if( g_MyInfo.GetPcRoomCharMax() <= 1 )

  00066	e8 00 00 00 00	 call	 ?GetSingleton@ioMyInfo@@SAAAV1@XZ ; ioMyInfo::GetSingleton
  0006b	8d 8d 6c fe ff
	ff		 lea	 ecx, DWORD PTR _value$519610[ebp]
  00071	51		 push	 ecx
  00072	8d 88 cc 0b 00
	00		 lea	 ecx, DWORD PTR [eax+3020]
  00078	e8 00 00 00 00	 call	 ?DecryptValueToPool@?$CEncrypt@H@@QAEXPAH@Z ; CEncrypt<int>::DecryptValueToPool
  0007d	83 bd 6c fe ff
	ff 01		 cmp	 DWORD PTR _value$519610[ebp], 1
  00084	0f 8f c6 01 00
	00		 jg	 $LN6@OnExecuteR@5

; 247  : 		{
; 248  : 			ioComplexStringPrinter kPrinter[MAX_MSG_LIST_SIZE];

  0008a	68 00 00 00 00	 push	 OFFSET ??1ioComplexStringPrinter@@QAE@XZ ; ioComplexStringPrinter::~ioComplexStringPrinter
  0008f	68 00 00 00 00	 push	 OFFSET ??0ioComplexStringPrinter@@QAE@XZ ; ioComplexStringPrinter::ioComplexStringPrinter
  00094	6a 0c		 push	 12			; 0000000cH
  00096	6a 20		 push	 32			; 00000020H
  00098	8d 85 70 fe ff
	ff		 lea	 eax, DWORD PTR _kPrinter$517776[ebp]
  0009e	50		 push	 eax
  0009f	e8 00 00 00 00	 call	 ??_L@YGXPAXIHP6EX0@Z1@Z

; 249  : 			kPrinter[0].SetTextStyle( TS_NORMAL );

  000a4	56		 push	 esi
  000a5	8d 8d 70 fe ff
	ff		 lea	 ecx, DWORD PTR _kPrinter$517776[ebp]
  000ab	89 75 fc	 mov	 DWORD PTR __$EHRec$[ebp+8], esi
  000ae	e8 00 00 00 00	 call	 ?SetTextStyle@ioComplexStringPrinter@@QAEXW4TextStyle@@@Z ; ioComplexStringPrinter::SetTextStyle

; 250  : 			kPrinter[0].SetBkColor( 0, 0, 0 );

  000b3	56		 push	 esi
  000b4	56		 push	 esi
  000b5	56		 push	 esi
  000b6	8d 8d 70 fe ff
	ff		 lea	 ecx, DWORD PTR _kPrinter$517776[ebp]
  000bc	e8 00 00 00 00	 call	 ?SetBkColor@ioComplexStringPrinter@@QAEXHHH@Z ; ioComplexStringPrinter::SetBkColor

; 251  : 			kPrinter[0].SetTextColor( TCT_DEFAULT_DARKGRAY );

  000c1	68 3a 3a 3a ff	 push	 -12961222		; ff3a3a3aH
  000c6	8d 8d 70 fe ff
	ff		 lea	 ecx, DWORD PTR _kPrinter$517776[ebp]
  000cc	e8 00 00 00 00	 call	 ?SetTextColor@ioComplexStringPrinter@@QAEXK@Z ; ioComplexStringPrinter::SetTextColor

; 252  : 			kPrinter[0].AddTextPiece( FONT_SIZE_13, STR(1) );

  000d1	56		 push	 esi
  000d2	8b 35 00 00 00
	00		 mov	 esi, DWORD PTR __imp_?GetSingleton@ioStringManager@@SAAAV1@XZ
  000d8	6a 01		 push	 1
  000da	68 00 00 00 00	 push	 OFFSET ??_C@_00CNPNBAHC@?$AA@
  000df	bb 00 00 00 00	 mov	 ebx, OFFSET ??_C@_0CE@JEIDOKAJ@ioReservedTask?3?3OnExecuteRecvPCR@
  000e4	53		 push	 ebx
  000e5	ff d6		 call	 esi
  000e7	8b 3d 00 00 00
	00		 mov	 edi, DWORD PTR __imp_?GetString@ioStringManager@@QAEPADPBD0HW4FileNamePrefix@1@@Z
  000ed	8b c8		 mov	 ecx, eax
  000ef	ff d7		 call	 edi
  000f1	f3 0f 10 05 00
	00 00 00	 movss	 xmm0, DWORD PTR __real@3f266666
  000f9	50		 push	 eax
  000fa	51		 push	 ecx
  000fb	8d 85 70 fe ff
	ff		 lea	 eax, DWORD PTR _kPrinter$517776[ebp]
  00101	f3 0f 11 04 24	 movss	 DWORD PTR [esp], xmm0
  00106	50		 push	 eax
  00107	e8 00 00 00 00	 call	 ?AddTextPiece@ioComplexStringPrinter@@QAAXMPBDZZ ; ioComplexStringPrinter::AddTextPiece
  0010c	83 c4 0c	 add	 esp, 12			; 0000000cH

; 253  : 
; 254  : 			kPrinter[1].SetTextStyle( TS_NORMAL );

  0010f	6a 00		 push	 0
  00111	8d 8d 90 fe ff
	ff		 lea	 ecx, DWORD PTR _kPrinter$517776[ebp+32]
  00117	e8 00 00 00 00	 call	 ?SetTextStyle@ioComplexStringPrinter@@QAEXW4TextStyle@@@Z ; ioComplexStringPrinter::SetTextStyle

; 255  : 			kPrinter[1].SetBkColor( 0, 0, 0 );	

  0011c	33 c0		 xor	 eax, eax
  0011e	50		 push	 eax
  0011f	50		 push	 eax
  00120	50		 push	 eax
  00121	8d 8d 90 fe ff
	ff		 lea	 ecx, DWORD PTR _kPrinter$517776[ebp+32]
  00127	e8 00 00 00 00	 call	 ?SetBkColor@ioComplexStringPrinter@@QAEXHHH@Z ; ioComplexStringPrinter::SetBkColor

; 256  : 			kPrinter[1].SetTextColor( TCT_DEFAULT_DARKGRAY );

  0012c	68 3a 3a 3a ff	 push	 -12961222		; ff3a3a3aH
  00131	8d 8d 90 fe ff
	ff		 lea	 ecx, DWORD PTR _kPrinter$517776[ebp+32]
  00137	e8 00 00 00 00	 call	 ?SetTextColor@ioComplexStringPrinter@@QAEXK@Z ; ioComplexStringPrinter::SetTextColor

; 257  : 			kPrinter[1].AddTextPiece( FONT_SIZE_13, STR(2) );

  0013c	6a 00		 push	 0
  0013e	6a 02		 push	 2
  00140	68 00 00 00 00	 push	 OFFSET ??_C@_00CNPNBAHC@?$AA@
  00145	53		 push	 ebx
  00146	ff d6		 call	 esi
  00148	8b c8		 mov	 ecx, eax
  0014a	ff d7		 call	 edi
  0014c	f3 0f 10 05 00
	00 00 00	 movss	 xmm0, DWORD PTR __real@3f266666
  00154	50		 push	 eax
  00155	51		 push	 ecx
  00156	8d 85 90 fe ff
	ff		 lea	 eax, DWORD PTR _kPrinter$517776[ebp+32]
  0015c	f3 0f 11 04 24	 movss	 DWORD PTR [esp], xmm0
  00161	50		 push	 eax
  00162	e8 00 00 00 00	 call	 ?AddTextPiece@ioComplexStringPrinter@@QAAXMPBDZZ ; ioComplexStringPrinter::AddTextPiece
  00167	83 c4 0c	 add	 esp, 12			; 0000000cH

; 258  : 
; 259  : 			kPrinter[2].SetTextStyle( TS_NORMAL );

  0016a	6a 00		 push	 0
  0016c	8d 8d b0 fe ff
	ff		 lea	 ecx, DWORD PTR _kPrinter$517776[ebp+64]
  00172	e8 00 00 00 00	 call	 ?SetTextStyle@ioComplexStringPrinter@@QAEXW4TextStyle@@@Z ; ioComplexStringPrinter::SetTextStyle

; 260  : 			kPrinter[2].SetBkColor( 0, 0, 0 );

  00177	33 c0		 xor	 eax, eax
  00179	50		 push	 eax
  0017a	50		 push	 eax
  0017b	50		 push	 eax
  0017c	8d 8d b0 fe ff
	ff		 lea	 ecx, DWORD PTR _kPrinter$517776[ebp+64]
  00182	e8 00 00 00 00	 call	 ?SetBkColor@ioComplexStringPrinter@@QAEXHHH@Z ; ioComplexStringPrinter::SetBkColor

; 261  : 			kPrinter[2].SetTextColor( TCT_DEFAULT_DARKGRAY );

  00187	68 3a 3a 3a ff	 push	 -12961222		; ff3a3a3aH
  0018c	8d 8d b0 fe ff
	ff		 lea	 ecx, DWORD PTR _kPrinter$517776[ebp+64]
  00192	e8 00 00 00 00	 call	 ?SetTextColor@ioComplexStringPrinter@@QAEXK@Z ; ioComplexStringPrinter::SetTextColor

; 262  : 			kPrinter[2].AddTextPiece( FONT_SIZE_13, STR(3) );

  00197	6a 00		 push	 0
  00199	6a 03		 push	 3
  0019b	68 00 00 00 00	 push	 OFFSET ??_C@_00CNPNBAHC@?$AA@
  001a0	53		 push	 ebx
  001a1	ff d6		 call	 esi
  001a3	8b c8		 mov	 ecx, eax
  001a5	ff d7		 call	 edi
  001a7	f3 0f 10 05 00
	00 00 00	 movss	 xmm0, DWORD PTR __real@3f266666
  001af	50		 push	 eax
  001b0	51		 push	 ecx
  001b1	8d 85 b0 fe ff
	ff		 lea	 eax, DWORD PTR _kPrinter$517776[ebp+64]
  001b7	f3 0f 11 04 24	 movss	 DWORD PTR [esp], xmm0
  001bc	50		 push	 eax
  001bd	e8 00 00 00 00	 call	 ?AddTextPiece@ioComplexStringPrinter@@QAAXMPBDZZ ; ioComplexStringPrinter::AddTextPiece
  001c2	83 c4 0c	 add	 esp, 12			; 0000000cH

; 263  : 			g_GUIMgr.SetPrevMsgListBoxWithTitle( g_GUIMgr.FindWnd( PCROOM_SOLDIER_BONUS_WND ), MB_OK, NULL, kPrinter, STR(4), STR(5), STR(6), STR(7) );

  001c5	6a 01		 push	 1
  001c7	6a 00		 push	 0
  001c9	6a 07		 push	 7
  001cb	68 00 00 00 00	 push	 OFFSET ??_C@_00CNPNBAHC@?$AA@
  001d0	53		 push	 ebx
  001d1	ff d6		 call	 esi
  001d3	8b c8		 mov	 ecx, eax
  001d5	ff d7		 call	 edi
  001d7	50		 push	 eax
  001d8	6a 00		 push	 0
  001da	6a 06		 push	 6
  001dc	68 00 00 00 00	 push	 OFFSET ??_C@_00CNPNBAHC@?$AA@
  001e1	53		 push	 ebx
  001e2	ff d6		 call	 esi
  001e4	8b c8		 mov	 ecx, eax
  001e6	ff d7		 call	 edi
  001e8	50		 push	 eax
  001e9	6a 00		 push	 0
  001eb	6a 05		 push	 5
  001ed	68 00 00 00 00	 push	 OFFSET ??_C@_00CNPNBAHC@?$AA@
  001f2	53		 push	 ebx
  001f3	ff d6		 call	 esi
  001f5	8b c8		 mov	 ecx, eax
  001f7	ff d7		 call	 edi
  001f9	50		 push	 eax
  001fa	6a 00		 push	 0
  001fc	6a 04		 push	 4
  001fe	68 00 00 00 00	 push	 OFFSET ??_C@_00CNPNBAHC@?$AA@
  00203	53		 push	 ebx
  00204	ff d6		 call	 esi
  00206	8b c8		 mov	 ecx, eax
  00208	ff d7		 call	 edi
  0020a	50		 push	 eax
  0020b	8d 85 70 fe ff
	ff		 lea	 eax, DWORD PTR _kPrinter$517776[ebp]
  00211	50		 push	 eax
  00212	6a 00		 push	 0
  00214	6a 00		 push	 0
  00216	68 ef 17 00 00	 push	 6127			; 000017efH
  0021b	e8 00 00 00 00	 call	 ?GetSingleton@ioSP2GUIManager@@SAAAV1@XZ ; ioSP2GUIManager::GetSingleton
  00220	8b c8		 mov	 ecx, eax
  00222	ff 15 00 00 00
	00		 call	 DWORD PTR __imp_?FindWnd@ioGUIManager@@QAEPAVioWnd@@K@Z
  00228	50		 push	 eax
  00229	e8 00 00 00 00	 call	 ?GetSingleton@ioSP2GUIManager@@SAAAV1@XZ ; ioSP2GUIManager::GetSingleton
  0022e	8b c8		 mov	 ecx, eax
  00230	e8 00 00 00 00	 call	 ?SetPrevMsgListBoxWithTitle@ioSP2GUIManager@@QAEXPAVioWnd@@H0PAVioComplexStringPrinter@@PBD222W4TextAlignType@@@Z ; ioSP2GUIManager::SetPrevMsgListBoxWithTitle

; 264  : 		}

  00235	83 4d fc ff	 or	 DWORD PTR __$EHRec$[ebp+8], -1
  00239	68 00 00 00 00	 push	 OFFSET ??1ioComplexStringPrinter@@QAE@XZ ; ioComplexStringPrinter::~ioComplexStringPrinter
  0023e	6a 0c		 push	 12			; 0000000cH
  00240	6a 20		 push	 32			; 00000020H
  00242	8d 85 70 fe ff
	ff		 lea	 eax, DWORD PTR _kPrinter$517776[ebp]
  00248	50		 push	 eax
  00249	e8 00 00 00 00	 call	 ??_M@YGXPAXIHP6EX0@Z@Z

; 265  : 		else

  0024e	eb 41		 jmp	 SHORT $LN1@OnExecuteR@5
$LN6@OnExecuteR@5:

; 266  : 		{
; 267  : 			if( g_MyInfo.GetPCRoomAuthority() ==  FREEDAY_EVENT_CODE )

  00250	e8 00 00 00 00	 call	 ?GetSingleton@ioMyInfo@@SAAAV1@XZ ; ioMyInfo::GetSingleton
  00255	81 b8 34 08 00
	00 00 00 00 01	 cmp	 DWORD PTR [eax+2100], 16777216 ; 01000000H
  0025f	75 08		 jne	 SHORT $LN4@OnExecuteR@5

; 268  : 				g_GUIMgr.ShowWnd( USER_SELECT_HERO_BONUS_WND );

  00261	56		 push	 esi
  00262	68 02 19 00 00	 push	 6402			; 00001902H
  00267	eb 1b		 jmp	 SHORT $LN22@OnExecuteR@5
$LN4@OnExecuteR@5:

; 269  : 			else if( g_MyInfo.GetPCRoomAuthority() != 0 )

  00269	e8 00 00 00 00	 call	 ?GetSingleton@ioMyInfo@@SAAAV1@XZ ; ioMyInfo::GetSingleton
  0026e	39 b0 34 08 00
	00		 cmp	 DWORD PTR [eax+2100], esi
  00274	74 1b		 je	 SHORT $LN1@OnExecuteR@5

; 270  : 				g_GUIMgr.ShowWnd( EX_PCROOM_AUTHORITY_WND );

  00276	56		 push	 esi
  00277	68 5d 18 00 00	 push	 6237			; 0000185dH

; 271  : 			
; 272  : 		}
; 273  : 	}
; 274  : 	else

  0027c	eb 06		 jmp	 SHORT $LN22@OnExecuteR@5
$LN7@OnExecuteR@5:

; 275  : 	{
; 276  : 		g_GUIMgr.ShowWnd( PCROOM_LOCAL_BENEFIT_WND );

  0027e	56		 push	 esi
  0027f	68 2e 18 00 00	 push	 6190			; 0000182eH
$LN22@OnExecuteR@5:
  00284	e8 00 00 00 00	 call	 ?GetSingleton@ioSP2GUIManager@@SAAAV1@XZ ; ioSP2GUIManager::GetSingleton
  00289	8b c8		 mov	 ecx, eax
  0028b	ff 15 00 00 00
	00		 call	 DWORD PTR __imp_?ShowWnd@ioGUIManager@@QAEXK_N@Z
$LN1@OnExecuteR@5:

; 277  : 	}
; 278  : 
; 279  : 	return true;

  00291	b0 01		 mov	 al, 1
  00293	eb 02		 jmp	 SHORT $LN10@OnExecuteR@5
$LN8@OnExecuteR@5:

; 241  : 		return false;

  00295	32 c0		 xor	 al, al
$LN10@OnExecuteR@5:

; 280  : }

  00297	e8 00 00 00 00	 call	 __EH_epilog3_GS
  0029c	c2 04 00	 ret	 4
_TEXT	ENDS
;	COMDAT text$x
text$x	SEGMENT
__unwindfunclet$?OnExecuteRecvPCRoom@ioReservedTask@@IAE_NPAUioTask@@@Z$0:
  00000	68 00 00 00 00	 push	 OFFSET ??1ioComplexStringPrinter@@QAE@XZ ; ioComplexStringPrinter::~ioComplexStringPrinter
  00005	6a 0c		 push	 12			; 0000000cH
  00007	6a 20		 push	 32			; 00000020H
  00009	8d 85 70 fe ff
	ff		 lea	 eax, DWORD PTR _kPrinter$517776[ebp]
  0000f	50		 push	 eax
  00010	e8 00 00 00 00	 call	 ??_M@YGXPAXIHP6EX0@Z@Z
  00015	c3		 ret	 0
__ehhandler$?OnExecuteRecvPCRoom@ioReservedTask@@IAE_NPAUioTask@@@Z:
  00016	8b 54 24 08	 mov	 edx, DWORD PTR [esp+8]
  0001a	8d 42 0c	 lea	 eax, DWORD PTR [edx+12]
  0001d	8b 8a 68 fe ff
	ff		 mov	 ecx, DWORD PTR [edx-408]
  00023	33 c8		 xor	 ecx, eax
  00025	e8 00 00 00 00	 call	 @__security_check_cookie@4
  0002a	8b 4a fc	 mov	 ecx, DWORD PTR [edx-4]
  0002d	33 c8		 xor	 ecx, eax
  0002f	e8 00 00 00 00	 call	 @__security_check_cookie@4
  00034	b8 00 00 00 00	 mov	 eax, OFFSET __ehfuncinfo$?OnExecuteRecvPCRoom@ioReservedTask@@IAE_NPAUioTask@@@Z
  00039	e9 00 00 00 00	 jmp	 ___CxxFrameHandler3
text$x	ENDS
?OnExecuteRecvPCRoom@ioReservedTask@@IAE_NPAUioTask@@@Z ENDP ; ioReservedTask::OnExecuteRecvPCRoom
PUBLIC	??1?$vector@PAUioTask@@V?$allocator@PAUioTask@@@std@@@std@@QAE@XZ ; std::vector<ioTask *,std::allocator<ioTask *> >::~vector<ioTask *,std::allocator<ioTask *> >
; Function compile flags: /Ogsp
; File c:\program files (x86)\microsoft visual studio 10.0\vc\include\vector
;	COMDAT ??1?$vector@PAUioTask@@V?$allocator@PAUioTask@@@std@@@std@@QAE@XZ
_TEXT	SEGMENT
??1?$vector@PAUioTask@@V?$allocator@PAUioTask@@@std@@@std@@QAE@XZ PROC ; std::vector<ioTask *,std::allocator<ioTask *> >::~vector<ioTask *,std::allocator<ioTask *> >, COMDAT
; _this$ = ecx

; 705  : 		_Tidy();

  00000	e9 00 00 00 00	 jmp	 ?_Tidy@?$vector@PAUioTask@@V?$allocator@PAUioTask@@@std@@@std@@IAEXXZ ; std::vector<ioTask *,std::allocator<ioTask *> >::_Tidy
??1?$vector@PAUioTask@@V?$allocator@PAUioTask@@@std@@@std@@QAE@XZ ENDP ; std::vector<ioTask *,std::allocator<ioTask *> >::~vector<ioTask *,std::allocator<ioTask *> >
_TEXT	ENDS
PUBLIC	?erase@?$vector@PAUioTask@@V?$allocator@PAUioTask@@@std@@@std@@QAE?AV?$_Vector_iterator@V?$_Vector_val@PAUioTask@@V?$allocator@PAUioTask@@@std@@@std@@@2@V?$_Vector_const_iterator@V?$_Vector_val@PAUioTask@@V?$allocator@PAUioTask@@@std@@@std@@@2@@Z ; std::vector<ioTask *,std::allocator<ioTask *> >::erase
; Function compile flags: /Ogsp
;	COMDAT ?erase@?$vector@PAUioTask@@V?$allocator@PAUioTask@@@std@@@std@@QAE?AV?$_Vector_iterator@V?$_Vector_val@PAUioTask@@V?$allocator@PAUioTask@@@std@@@std@@@2@V?$_Vector_const_iterator@V?$_Vector_val@PAUioTask@@V?$allocator@PAUioTask@@@std@@@std@@@2@@Z
_TEXT	SEGMENT
___$ReturnUdt$ = 8					; size = 4
__Cat$519654 = 12					; size = 1
__Where$ = 12						; size = 4
?erase@?$vector@PAUioTask@@V?$allocator@PAUioTask@@@std@@@std@@QAE?AV?$_Vector_iterator@V?$_Vector_val@PAUioTask@@V?$allocator@PAUioTask@@@std@@@std@@@2@V?$_Vector_const_iterator@V?$_Vector_val@PAUioTask@@V?$allocator@PAUioTask@@@std@@@std@@@2@@Z PROC ; std::vector<ioTask *,std::allocator<ioTask *> >::erase, COMDAT
; _this$ = ecx

; 1179 : 		{	// erase element at where

  00000	55		 push	 ebp
  00001	8b ec		 mov	 ebp, esp

; 1180 : 		_Move(_VIPTR(_Where) + 1, this->_Mylast,
; 1181 : 			_VIPTR(_Where));

  00003	8b 45 0c	 mov	 eax, DWORD PTR __Where$[ebp]
  00006	56		 push	 esi
  00007	ff 75 0c	 push	 DWORD PTR __Cat$519654[ebp]
  0000a	8b f1		 mov	 esi, ecx
  0000c	50		 push	 eax
  0000d	ff 76 04	 push	 DWORD PTR [esi+4]
  00010	83 c0 04	 add	 eax, 4
  00013	50		 push	 eax
  00014	e8 00 00 00 00	 call	 ??$_Move@PAPAUioTask@@PAPAU1@@std@@YAPAPAUioTask@@PAPAU1@00U_Scalar_ptr_iterator_tag@0@@Z ; std::_Move<ioTask * *,ioTask * *>

; 1182 : 		_Destroy(this->_Mylast - 1, this->_Mylast);
; 1183 : 		--this->_Mylast;
; 1184 : 		return (_Make_iter(_Where));

  00019	8b 45 08	 mov	 eax, DWORD PTR ___$ReturnUdt$[ebp]
  0001c	8b 4d 0c	 mov	 ecx, DWORD PTR __Where$[ebp]
  0001f	83 c4 10	 add	 esp, 16			; 00000010H
  00022	83 46 04 fc	 add	 DWORD PTR [esi+4], -4	; fffffffcH
  00026	89 08		 mov	 DWORD PTR [eax], ecx
  00028	5e		 pop	 esi

; 1185 : 		}

  00029	5d		 pop	 ebp
  0002a	c2 08 00	 ret	 8
?erase@?$vector@PAUioTask@@V?$allocator@PAUioTask@@@std@@@std@@QAE?AV?$_Vector_iterator@V?$_Vector_val@PAUioTask@@V?$allocator@PAUioTask@@@std@@@std@@@2@V?$_Vector_const_iterator@V?$_Vector_val@PAUioTask@@V?$allocator@PAUioTask@@@std@@@std@@@2@@Z ENDP ; std::vector<ioTask *,std::allocator<ioTask *> >::erase
_TEXT	ENDS
PUBLIC	?erase@?$vector@PAUioTask@@V?$allocator@PAUioTask@@@std@@@std@@QAE?AV?$_Vector_iterator@V?$_Vector_val@PAUioTask@@V?$allocator@PAUioTask@@@std@@@std@@@2@V?$_Vector_const_iterator@V?$_Vector_val@PAUioTask@@V?$allocator@PAUioTask@@@std@@@std@@@2@0@Z ; std::vector<ioTask *,std::allocator<ioTask *> >::erase
; Function compile flags: /Ogsp
;	COMDAT ?erase@?$vector@PAUioTask@@V?$allocator@PAUioTask@@@std@@@std@@QAE?AV?$_Vector_iterator@V?$_Vector_val@PAUioTask@@V?$allocator@PAUioTask@@@std@@@std@@@2@V?$_Vector_const_iterator@V?$_Vector_val@PAUioTask@@V?$allocator@PAUioTask@@@std@@@std@@@2@0@Z
_TEXT	SEGMENT
___$ReturnUdt$ = 8					; size = 4
__First_arg$ = 12					; size = 4
__Cat$519783 = 16					; size = 1
__Last_arg$ = 16					; size = 4
?erase@?$vector@PAUioTask@@V?$allocator@PAUioTask@@@std@@@std@@QAE?AV?$_Vector_iterator@V?$_Vector_val@PAUioTask@@V?$allocator@PAUioTask@@@std@@@std@@@2@V?$_Vector_const_iterator@V?$_Vector_val@PAUioTask@@V?$allocator@PAUioTask@@@std@@@std@@@2@0@Z PROC ; std::vector<ioTask *,std::allocator<ioTask *> >::erase, COMDAT
; _this$ = ecx

; 1190 : 		{	// erase [_First, _Last)

  00000	55		 push	 ebp
  00001	8b ec		 mov	 ebp, esp

; 1191 : 		iterator _First = _Make_iter(_First_arg);

  00003	8b 45 0c	 mov	 eax, DWORD PTR __First_arg$[ebp]
  00006	56		 push	 esi
  00007	57		 push	 edi
  00008	8b 7d 08	 mov	 edi, DWORD PTR ___$ReturnUdt$[ebp]
  0000b	8b f1		 mov	 esi, ecx
  0000d	89 07		 mov	 DWORD PTR [edi], eax

; 1192 : 		iterator _Last = _Make_iter(_Last_arg);
; 1193 : 
; 1194 : 		if (_First != _Last)

  0000f	3b 45 10	 cmp	 eax, DWORD PTR __Last_arg$[ebp]
  00012	74 16		 je	 SHORT $LN1@erase

; 1195 : 			{	// worth doing, copy down over hole
; 1196 :  #if _ITERATOR_DEBUG_LEVEL == 2
; 1197 : 			if (_Last < _First || _VICONT(_First) != this
; 1198 : 				|| _VIPTR(_First) < this->_Myfirst
; 1199 : 				|| this->_Mylast < _VIPTR(_Last))
; 1200 : 				_DEBUG_ERROR("vector erase iterator outside range");
; 1201 : 			pointer _Ptr = _Move(_VIPTR(_Last), this->_Mylast,
; 1202 : 				_VIPTR(_First));
; 1203 : 			_Orphan_range(_VIPTR(_First), this->_Mylast);
; 1204 : 
; 1205 :  #else /* _ITERATOR_DEBUG_LEVEL == 2 */
; 1206 : 			pointer _Ptr = _Move(_VIPTR(_Last), this->_Mylast,
; 1207 : 				_VIPTR(_First));

  00014	ff 75 10	 push	 DWORD PTR __Cat$519783[ebp]
  00017	8b 4e 04	 mov	 ecx, DWORD PTR [esi+4]
  0001a	50		 push	 eax
  0001b	51		 push	 ecx
  0001c	ff 75 10	 push	 DWORD PTR __Last_arg$[ebp]
  0001f	e8 00 00 00 00	 call	 ??$_Move@PAPAUioTask@@PAPAU1@@std@@YAPAPAUioTask@@PAPAU1@00U_Scalar_ptr_iterator_tag@0@@Z ; std::_Move<ioTask * *,ioTask * *>
  00024	83 c4 10	 add	 esp, 16			; 00000010H

; 1208 :  #endif /* _ITERATOR_DEBUG_LEVEL == 2 */
; 1209 : 
; 1210 : 			_Destroy(_Ptr, this->_Mylast);
; 1211 : 			this->_Mylast = _Ptr;

  00027	89 46 04	 mov	 DWORD PTR [esi+4], eax
$LN1@erase:

; 1212 : 			}
; 1213 : 		return (_First);

  0002a	8b c7		 mov	 eax, edi
  0002c	5f		 pop	 edi
  0002d	5e		 pop	 esi

; 1214 : 		}

  0002e	5d		 pop	 ebp
  0002f	c2 0c 00	 ret	 12			; 0000000cH
?erase@?$vector@PAUioTask@@V?$allocator@PAUioTask@@@std@@@std@@QAE?AV?$_Vector_iterator@V?$_Vector_val@PAUioTask@@V?$allocator@PAUioTask@@@std@@@std@@@2@V?$_Vector_const_iterator@V?$_Vector_val@PAUioTask@@V?$allocator@PAUioTask@@@std@@@std@@@2@0@Z ENDP ; std::vector<ioTask *,std::allocator<ioTask *> >::erase
_TEXT	ENDS
PUBLIC	?reserve@?$vector@PAUioTask@@V?$allocator@PAUioTask@@@std@@@std@@QAEXI@Z ; std::vector<ioTask *,std::allocator<ioTask *> >::reserve
; Function compile flags: /Ogsp
;	COMDAT ?reserve@?$vector@PAUioTask@@V?$allocator@PAUioTask@@@std@@@std@@QAEXI@Z
_TEXT	SEGMENT
__Count$ = 8						; size = 4
?reserve@?$vector@PAUioTask@@V?$allocator@PAUioTask@@@std@@@std@@QAEXI@Z PROC ; std::vector<ioTask *,std::allocator<ioTask *> >::reserve, COMDAT
; _this$ = ecx

; 746  : 		{	// determine new minimum length of allocated storage

  00000	55		 push	 ebp
  00001	8b ec		 mov	 ebp, esp

; 747  : 		if (max_size() < _Count)

  00003	81 7d 08 ff ff
	ff 3f		 cmp	 DWORD PTR __Count$[ebp], 1073741823 ; 3fffffffH
  0000a	56		 push	 esi
  0000b	8b f1		 mov	 esi, ecx
  0000d	76 0b		 jbe	 SHORT $LN5@reserve

; 748  : 			_Xlen();	// result too long

  0000f	68 00 00 00 00	 push	 OFFSET ??_C@_0BD@OLBABOEK@vector?$DMT?$DO?5too?5long?$AA@
  00014	ff 15 00 00 00
	00		 call	 DWORD PTR __imp_?_Xlength_error@std@@YAXPBD@Z
$LN43@reserve:
$LN5@reserve:

; 749  : 		else if (capacity() < _Count)

  0001a	8b 46 08	 mov	 eax, DWORD PTR [esi+8]
  0001d	2b 06		 sub	 eax, DWORD PTR [esi]
  0001f	c1 f8 02	 sar	 eax, 2
  00022	3b 45 08	 cmp	 eax, DWORD PTR __Count$[ebp]
  00025	73 52		 jae	 SHORT $LN3@reserve

; 750  : 			{	// not enough room, reallocate
; 751  : 			pointer _Ptr = this->_Alval.allocate(_Count);

  00027	53		 push	 ebx
  00028	57		 push	 edi
  00029	6a 00		 push	 0
  0002b	ff 75 08	 push	 DWORD PTR __Count$[ebp]
  0002e	e8 00 00 00 00	 call	 ??$_Allocate@PAUioTask@@@std@@YAPAPAUioTask@@IPAPAU1@@Z ; std::_Allocate<ioTask *>

; 752  : 
; 753  : 			_TRY_BEGIN
; 754  : 			_Umove(this->_Myfirst, this->_Mylast, _Ptr);

  00033	8b 0e		 mov	 ecx, DWORD PTR [esi]
  00035	8d 56 0c	 lea	 edx, DWORD PTR [esi+12]
  00038	52		 push	 edx
  00039	8b d8		 mov	 ebx, eax
  0003b	8b 46 04	 mov	 eax, DWORD PTR [esi+4]
  0003e	53		 push	 ebx
  0003f	50		 push	 eax
  00040	51		 push	 ecx
  00041	e8 00 00 00 00	 call	 ??$_Uninitialized_move@PAPAUioTask@@PAPAU1@V?$allocator@PAUioTask@@@std@@@std@@YAPAPAUioTask@@PAPAU1@00AAV?$allocator@PAUioTask@@@0@@Z ; std::_Uninitialized_move<ioTask * *,ioTask * *,std::allocator<ioTask *> >

; 755  : 			_CATCH_ALL
; 756  : 			this->_Alval.deallocate(_Ptr, _Count);
; 757  : 			_RERAISE;
; 758  : 			_CATCH_END
; 759  : 
; 760  : 			size_type _Size = size();

  00046	8b 06		 mov	 eax, DWORD PTR [esi]
  00048	8b 7e 04	 mov	 edi, DWORD PTR [esi+4]
  0004b	2b f8		 sub	 edi, eax
  0004d	83 c4 18	 add	 esp, 24			; 00000018H
  00050	c1 ff 02	 sar	 edi, 2

; 761  : 			if (this->_Myfirst != 0)

  00053	85 c0		 test	 eax, eax
  00055	74 07		 je	 SHORT $LN39@reserve

; 762  : 				{	// destroy and deallocate old array
; 763  : 				_Destroy(this->_Myfirst, this->_Mylast);
; 764  : 				this->_Alval.deallocate(this->_Myfirst,
; 765  : 					this->_Myend - this->_Myfirst);

  00057	50		 push	 eax
  00058	e8 00 00 00 00	 call	 ??3@YAXPAX@Z		; operator delete
  0005d	59		 pop	 ecx
$LN39@reserve:

; 766  : 				}
; 767  : 
; 768  : 			this->_Orphan_all();

  0005e	8b ce		 mov	 ecx, esi
  00060	ff 15 00 00 00
	00		 call	 DWORD PTR __imp_?_Orphan_all@_Container_base0@std@@QAEXXZ

; 769  : 			this->_Myend = _Ptr + _Count;

  00066	8b 45 08	 mov	 eax, DWORD PTR __Count$[ebp]
  00069	8d 04 83	 lea	 eax, DWORD PTR [ebx+eax*4]
  0006c	89 46 08	 mov	 DWORD PTR [esi+8], eax

; 770  : 			this->_Mylast = _Ptr + _Size;

  0006f	8d 04 bb	 lea	 eax, DWORD PTR [ebx+edi*4]
  00072	5f		 pop	 edi

; 771  : 			this->_Myfirst = _Ptr;

  00073	89 1e		 mov	 DWORD PTR [esi], ebx
  00075	89 46 04	 mov	 DWORD PTR [esi+4], eax
  00078	5b		 pop	 ebx
$LN3@reserve:
  00079	5e		 pop	 esi

; 772  : 			}
; 773  : 		}

  0007a	5d		 pop	 ebp
  0007b	c2 04 00	 ret	 4
$LN42@reserve:
?reserve@?$vector@PAUioTask@@V?$allocator@PAUioTask@@@std@@@std@@QAEXI@Z ENDP ; std::vector<ioTask *,std::allocator<ioTask *> >::reserve
_TEXT	ENDS
PUBLIC	??_7ioReservedTask@@6B@				; ioReservedTask::`vftable'
PUBLIC	??0ioReservedTask@@QAE@XZ			; ioReservedTask::ioReservedTask
PUBLIC	??_R4ioReservedTask@@6B@			; ioReservedTask::`RTTI Complete Object Locator'
PUBLIC	??_R0?AVioReservedTask@@@8			; ioReservedTask `RTTI Type Descriptor'
PUBLIC	??_R3ioReservedTask@@8				; ioReservedTask::`RTTI Class Hierarchy Descriptor'
PUBLIC	??_R2ioReservedTask@@8				; ioReservedTask::`RTTI Base Class Array'
PUBLIC	??_R1A@?0A@EA@ioReservedTask@@8			; ioReservedTask::`RTTI Base Class Descriptor at (0,-1,0,64)'
PUBLIC	??_R13?0A@EA@?$Singleton@VioReservedTask@@@@8	; Singleton<ioReservedTask>::`RTTI Base Class Descriptor at (4,-1,0,64)'
PUBLIC	??_R0?AV?$Singleton@VioReservedTask@@@@@8	; Singleton<ioReservedTask> `RTTI Type Descriptor'
PUBLIC	??_R3?$Singleton@VioReservedTask@@@@8		; Singleton<ioReservedTask>::`RTTI Class Hierarchy Descriptor'
PUBLIC	??_R2?$Singleton@VioReservedTask@@@@8		; Singleton<ioReservedTask>::`RTTI Base Class Array'
PUBLIC	??_R1A@?0A@EA@?$Singleton@VioReservedTask@@@@8	; Singleton<ioReservedTask>::`RTTI Base Class Descriptor at (0,-1,0,64)'
EXTRN	??_EioReservedTask@@UAEPAXI@Z:PROC		; ioReservedTask::`vector deleting destructor'
;	COMDAT ??_R1A@?0A@EA@?$Singleton@VioReservedTask@@@@8
; File d:\lost saga for developer\youtube\tutorial\source\src\lsclient\ioreservedtask.cpp
rdata$r	SEGMENT
??_R1A@?0A@EA@?$Singleton@VioReservedTask@@@@8 DD FLAT:??_R0?AV?$Singleton@VioReservedTask@@@@@8 ; Singleton<ioReservedTask>::`RTTI Base Class Descriptor at (0,-1,0,64)'
	DD	00H
	DD	00H
	DD	0ffffffffH
	DD	00H
	DD	040H
	DD	FLAT:??_R3?$Singleton@VioReservedTask@@@@8
rdata$r	ENDS
;	COMDAT ??_R2?$Singleton@VioReservedTask@@@@8
rdata$r	SEGMENT
??_R2?$Singleton@VioReservedTask@@@@8 DD FLAT:??_R1A@?0A@EA@?$Singleton@VioReservedTask@@@@8 ; Singleton<ioReservedTask>::`RTTI Base Class Array'
rdata$r	ENDS
;	COMDAT ??_R3?$Singleton@VioReservedTask@@@@8
rdata$r	SEGMENT
??_R3?$Singleton@VioReservedTask@@@@8 DD 00H		; Singleton<ioReservedTask>::`RTTI Class Hierarchy Descriptor'
	DD	00H
	DD	01H
	DD	FLAT:??_R2?$Singleton@VioReservedTask@@@@8
rdata$r	ENDS
;	COMDAT ??_R0?AV?$Singleton@VioReservedTask@@@@@8
_DATA	SEGMENT
??_R0?AV?$Singleton@VioReservedTask@@@@@8 DD FLAT:??_7type_info@@6B@ ; Singleton<ioReservedTask> `RTTI Type Descriptor'
	DD	00H
	DB	'.?AV?$Singleton@VioReservedTask@@@@', 00H
_DATA	ENDS
;	COMDAT ??_R13?0A@EA@?$Singleton@VioReservedTask@@@@8
rdata$r	SEGMENT
??_R13?0A@EA@?$Singleton@VioReservedTask@@@@8 DD FLAT:??_R0?AV?$Singleton@VioReservedTask@@@@@8 ; Singleton<ioReservedTask>::`RTTI Base Class Descriptor at (4,-1,0,64)'
	DD	00H
	DD	04H
	DD	0ffffffffH
	DD	00H
	DD	040H
	DD	FLAT:??_R3?$Singleton@VioReservedTask@@@@8
rdata$r	ENDS
;	COMDAT ??_R1A@?0A@EA@ioReservedTask@@8
rdata$r	SEGMENT
??_R1A@?0A@EA@ioReservedTask@@8 DD FLAT:??_R0?AVioReservedTask@@@8 ; ioReservedTask::`RTTI Base Class Descriptor at (0,-1,0,64)'
	DD	01H
	DD	00H
	DD	0ffffffffH
	DD	00H
	DD	040H
	DD	FLAT:??_R3ioReservedTask@@8
rdata$r	ENDS
;	COMDAT ??_R2ioReservedTask@@8
rdata$r	SEGMENT
??_R2ioReservedTask@@8 DD FLAT:??_R1A@?0A@EA@ioReservedTask@@8 ; ioReservedTask::`RTTI Base Class Array'
	DD	FLAT:??_R13?0A@EA@?$Singleton@VioReservedTask@@@@8
rdata$r	ENDS
;	COMDAT ??_R3ioReservedTask@@8
rdata$r	SEGMENT
??_R3ioReservedTask@@8 DD 00H				; ioReservedTask::`RTTI Class Hierarchy Descriptor'
	DD	00H
	DD	02H
	DD	FLAT:??_R2ioReservedTask@@8
rdata$r	ENDS
;	COMDAT ??_R0?AVioReservedTask@@@8
_DATA	SEGMENT
??_R0?AVioReservedTask@@@8 DD FLAT:??_7type_info@@6B@	; ioReservedTask `RTTI Type Descriptor'
	DD	00H
	DB	'.?AVioReservedTask@@', 00H
_DATA	ENDS
;	COMDAT ??_R4ioReservedTask@@6B@
rdata$r	SEGMENT
??_R4ioReservedTask@@6B@ DD 00H				; ioReservedTask::`RTTI Complete Object Locator'
	DD	00H
	DD	00H
	DD	FLAT:??_R0?AVioReservedTask@@@8
	DD	FLAT:??_R3ioReservedTask@@8
rdata$r	ENDS
;	COMDAT ??_7ioReservedTask@@6B@
CONST	SEGMENT
??_7ioReservedTask@@6B@ DD FLAT:??_R4ioReservedTask@@6B@ ; ioReservedTask::`vftable'
	DD	FLAT:??_EioReservedTask@@UAEPAXI@Z
; Function compile flags: /Ogsp
CONST	ENDS
;	COMDAT ??0ioReservedTask@@QAE@XZ
_TEXT	SEGMENT
??0ioReservedTask@@QAE@XZ PROC				; ioReservedTask::ioReservedTask, COMDAT
; _this$ = ecx

; 19   : {

  00000	8b c1		 mov	 eax, ecx
  00002	a3 00 00 00 00	 mov	 DWORD PTR ?ms_Singleton@?$Singleton@VioReservedTask@@@@1PAVioReservedTask@@A, eax ; Singleton<ioReservedTask>::ms_Singleton
  00007	33 c9		 xor	 ecx, ecx
  00009	c7 00 00 00 00
	00		 mov	 DWORD PTR [eax], OFFSET ??_7ioReservedTask@@6B@
  0000f	89 48 04	 mov	 DWORD PTR [eax+4], ecx
  00012	89 48 08	 mov	 DWORD PTR [eax+8], ecx
  00015	89 48 0c	 mov	 DWORD PTR [eax+12], ecx

; 20   : 	Init();
; 21   : }

  00018	c3		 ret	 0
??0ioReservedTask@@QAE@XZ ENDP				; ioReservedTask::ioReservedTask
_TEXT	ENDS
PUBLIC	?RemoveTask@ioReservedTask@@QAEXW4ReservedTaskTypes@@@Z ; ioReservedTask::RemoveTask
; Function compile flags: /Ogsp
;	COMDAT ?RemoveTask@ioReservedTask@@QAEXW4ReservedTaskTypes@@@Z
_TEXT	SEGMENT
$T519948 = 8						; size = 4
_eType$ = 8						; size = 4
?RemoveTask@ioReservedTask@@QAEXW4ReservedTaskTypes@@@Z PROC ; ioReservedTask::RemoveTask, COMDAT
; _this$ = ecx

; 125  : {

  00000	55		 push	 ebp
  00001	8b ec		 mov	 ebp, esp
  00003	56		 push	 esi
  00004	57		 push	 edi

; 126  : 	for( vReservedTask::iterator it = m_vReservedTask.begin() ; it != m_vReservedTask.end() ; ++it )

  00005	8d 79 04	 lea	 edi, DWORD PTR [ecx+4]
  00008	8b 37		 mov	 esi, DWORD PTR [edi]
  0000a	8b 49 08	 mov	 ecx, DWORD PTR [ecx+8]
  0000d	eb 11		 jmp	 SHORT $LN43@RemoveTask
$LL20@RemoveTask:

; 127  : 	{
; 128  : 		ioTask* pTask = *it;

  0000f	8b 06		 mov	 eax, DWORD PTR [esi]

; 129  : 		if( !pTask )

  00011	85 c0		 test	 eax, eax
  00013	74 08		 je	 SHORT $LN4@RemoveTask

; 130  : 			continue;
; 131  : 		
; 132  : 		if(pTask->eType == eType)

  00015	8b 50 04	 mov	 edx, DWORD PTR [eax+4]
  00018	3b 55 08	 cmp	 edx, DWORD PTR _eType$[ebp]
  0001b	74 09		 je	 SHORT $LN41@RemoveTask
$LN4@RemoveTask:

; 126  : 	for( vReservedTask::iterator it = m_vReservedTask.begin() ; it != m_vReservedTask.end() ; ++it )

  0001d	83 c6 04	 add	 esi, 4
$LN43@RemoveTask:
  00020	3b f1		 cmp	 esi, ecx
  00022	75 eb		 jne	 SHORT $LL20@RemoveTask

; 130  : 			continue;
; 131  : 		
; 132  : 		if(pTask->eType == eType)

  00024	eb 14		 jmp	 SHORT $LN3@RemoveTask
$LN41@RemoveTask:

; 133  : 		{
; 134  : 			delete pTask;

  00026	8b 10		 mov	 edx, DWORD PTR [eax]
  00028	6a 01		 push	 1
  0002a	8b c8		 mov	 ecx, eax
  0002c	ff 12		 call	 DWORD PTR [edx]

; 135  : 			it = m_vReservedTask.erase(it);

  0002e	56		 push	 esi
  0002f	8d 45 08	 lea	 eax, DWORD PTR $T519948[ebp]
  00032	50		 push	 eax
  00033	8b cf		 mov	 ecx, edi
  00035	e8 00 00 00 00	 call	 ?erase@?$vector@PAUioTask@@V?$allocator@PAUioTask@@@std@@@std@@QAE?AV?$_Vector_iterator@V?$_Vector_val@PAUioTask@@V?$allocator@PAUioTask@@@std@@@std@@@2@V?$_Vector_const_iterator@V?$_Vector_val@PAUioTask@@V?$allocator@PAUioTask@@@std@@@std@@@2@@Z ; std::vector<ioTask *,std::allocator<ioTask *> >::erase
$LN3@RemoveTask:
  0003a	5f		 pop	 edi
  0003b	5e		 pop	 esi

; 136  : 			break;
; 137  : 		}
; 138  : 	}
; 139  : }

  0003c	5d		 pop	 ebp
  0003d	c2 04 00	 ret	 4
?RemoveTask@ioReservedTask@@QAEXW4ReservedTaskTypes@@@Z ENDP ; ioReservedTask::RemoveTask
_TEXT	ENDS
PUBLIC	?OnExecute@ioReservedTask@@IAE_NPAUioTask@@@Z	; ioReservedTask::OnExecute
; Function compile flags: /Ogsp
;	COMDAT ?OnExecute@ioReservedTask@@IAE_NPAUioTask@@@Z
_TEXT	SEGMENT
_pTask$ = 8						; size = 4
?OnExecute@ioReservedTask@@IAE_NPAUioTask@@@Z PROC	; ioReservedTask::OnExecute, COMDAT
; _this$ = ecx

; 142  : {

  00000	55		 push	 ebp
  00001	8b ec		 mov	 ebp, esp

; 143  : 	switch( pTask->eType )

  00003	8b 55 08	 mov	 edx, DWORD PTR _pTask$[ebp]
  00006	8b 42 04	 mov	 eax, DWORD PTR [edx+4]
  00009	48		 dec	 eax
  0000a	74 3b		 je	 SHORT $LN6@OnExecute
  0000c	48		 dec	 eax
  0000d	74 30		 je	 SHORT $LN5@OnExecute
  0000f	48		 dec	 eax
  00010	74 25		 je	 SHORT $LN4@OnExecute
  00012	48		 dec	 eax
  00013	74 1a		 je	 SHORT $LN3@OnExecute
  00015	48		 dec	 eax
  00016	74 0f		 je	 SHORT $LN2@OnExecute
  00018	48		 dec	 eax
  00019	74 04		 je	 SHORT $LN1@OnExecute

; 157  : 	break;
; 158  : 	}
; 159  : 
; 160  : 	return true;

  0001b	b0 01		 mov	 al, 1
  0001d	eb 2e		 jmp	 SHORT $LN9@OnExecute
$LN1@OnExecute:

; 155  : 	case RESERVEDCMD_TYPE_GUILD_RANK_REWARD:
; 156  : 		return OnExecuteRecvGuldRankReward( pTask );

  0001f	52		 push	 edx
  00020	e8 00 00 00 00	 call	 ?OnExecuteRecvGuldRankReward@ioReservedTask@@IAE_NPAUioTask@@@Z ; ioReservedTask::OnExecuteRecvGuldRankReward
  00025	eb 26		 jmp	 SHORT $LN9@OnExecute
$LN2@OnExecute:

; 153  : 	case RESERVEDCMD_TYPE_ROLLBOOK:
; 154  : 		return OnExecuteRecvRollBook( pTask );

  00027	52		 push	 edx
  00028	e8 00 00 00 00	 call	 ?OnExecuteRecvRollBook@ioReservedTask@@IAE_NPAUioTask@@@Z ; ioReservedTask::OnExecuteRecvRollBook
  0002d	eb 1e		 jmp	 SHORT $LN9@OnExecute
$LN3@OnExecute:

; 151  : 	case RESERVEDCMD_TYPE_TOURNAMENT:
; 152  : 		return OnExecuteRecvTournament( pTask );

  0002f	52		 push	 edx
  00030	e8 00 00 00 00	 call	 ?OnExecuteRecvTournament@ioReservedTask@@IAE_NPAUioTask@@@Z ; ioReservedTask::OnExecuteRecvTournament
  00035	eb 16		 jmp	 SHORT $LN9@OnExecute
$LN4@OnExecute:

; 149  : 	case RESERVEDCMD_TYPE_PCROOOM:
; 150  : 		return OnExecuteRecvPCRoom( pTask );	

  00037	52		 push	 edx
  00038	e8 00 00 00 00	 call	 ?OnExecuteRecvPCRoom@ioReservedTask@@IAE_NPAUioTask@@@Z ; ioReservedTask::OnExecuteRecvPCRoom
  0003d	eb 0e		 jmp	 SHORT $LN9@OnExecute
$LN5@OnExecute:

; 147  : 	case RESERVEDCMD_TYPE_ATTENDANCE:
; 148  : 		return OnExecuteRecvAtttendance( pTask );	

  0003f	52		 push	 edx
  00040	e8 00 00 00 00	 call	 ?OnExecuteRecvAtttendance@ioReservedTask@@IAE_NPAUioTask@@@Z ; ioReservedTask::OnExecuteRecvAtttendance
  00045	eb 06		 jmp	 SHORT $LN9@OnExecute
$LN6@OnExecute:

; 144  : 	{
; 145  : 	case RESERVEDCMD_TYPE_SERVERCHANGE:
; 146  : 		return OnExecuteServerChange( pTask );	

  00047	52		 push	 edx
  00048	e8 00 00 00 00	 call	 ?OnExecuteServerChange@ioReservedTask@@IAE_NPAUioTask@@@Z ; ioReservedTask::OnExecuteServerChange
$LN9@OnExecute:

; 161  : }

  0004d	5d		 pop	 ebp
  0004e	c2 04 00	 ret	 4
?OnExecute@ioReservedTask@@IAE_NPAUioTask@@@Z ENDP	; ioReservedTask::OnExecute
_TEXT	ENDS
PUBLIC	?clear@?$vector@PAUioTask@@V?$allocator@PAUioTask@@@std@@@std@@QAEXXZ ; std::vector<ioTask *,std::allocator<ioTask *> >::clear
; Function compile flags: /Ogsp
; File c:\program files (x86)\microsoft visual studio 10.0\vc\include\vector
;	COMDAT ?clear@?$vector@PAUioTask@@V?$allocator@PAUioTask@@@std@@@std@@QAEXXZ
_TEXT	SEGMENT
$T520042 = -4						; size = 4
?clear@?$vector@PAUioTask@@V?$allocator@PAUioTask@@@std@@@std@@QAEXXZ PROC ; std::vector<ioTask *,std::allocator<ioTask *> >::clear, COMDAT
; _this$ = ecx

; 1217 : 		{	// erase all

  00000	55		 push	 ebp
  00001	8b ec		 mov	 ebp, esp
  00003	51		 push	 ecx

; 1218 : 		erase(begin(), end());

  00004	8b 41 04	 mov	 eax, DWORD PTR [ecx+4]
  00007	8b 11		 mov	 edx, DWORD PTR [ecx]
  00009	50		 push	 eax
  0000a	52		 push	 edx
  0000b	8d 45 fc	 lea	 eax, DWORD PTR $T520042[ebp]
  0000e	50		 push	 eax
  0000f	e8 00 00 00 00	 call	 ?erase@?$vector@PAUioTask@@V?$allocator@PAUioTask@@@std@@@std@@QAE?AV?$_Vector_iterator@V?$_Vector_val@PAUioTask@@V?$allocator@PAUioTask@@@std@@@std@@@2@V?$_Vector_const_iterator@V?$_Vector_val@PAUioTask@@V?$allocator@PAUioTask@@@std@@@std@@@2@0@Z ; std::vector<ioTask *,std::allocator<ioTask *> >::erase

; 1219 : 		}

  00014	c9		 leave
  00015	c3		 ret	 0
?clear@?$vector@PAUioTask@@V?$allocator@PAUioTask@@@std@@@std@@QAEXXZ ENDP ; std::vector<ioTask *,std::allocator<ioTask *> >::clear
_TEXT	ENDS
PUBLIC	?_Reserve@?$vector@PAUioTask@@V?$allocator@PAUioTask@@@std@@@std@@IAEXI@Z ; std::vector<ioTask *,std::allocator<ioTask *> >::_Reserve
; Function compile flags: /Ogsp
;	COMDAT ?_Reserve@?$vector@PAUioTask@@V?$allocator@PAUioTask@@@std@@@std@@IAEXI@Z
_TEXT	SEGMENT
__Count$ = 8						; size = 4
?_Reserve@?$vector@PAUioTask@@V?$allocator@PAUioTask@@@std@@@std@@IAEXI@Z PROC ; std::vector<ioTask *,std::allocator<ioTask *> >::_Reserve, COMDAT
; _this$ = ecx

; 1290 : 		{	// ensure room for _Count new elements, grow exponentially

  00000	55		 push	 ebp
  00001	8b ec		 mov	 ebp, esp
  00003	56		 push	 esi
  00004	8b f1		 mov	 esi, ecx

; 1291 : 		size_type _Size = size();

  00006	8b 0e		 mov	 ecx, DWORD PTR [esi]
  00008	8b 46 04	 mov	 eax, DWORD PTR [esi+4]
  0000b	2b c1		 sub	 eax, ecx

; 1292 : 		if (max_size() - _Count < _Size)

  0000d	ba ff ff ff 3f	 mov	 edx, 1073741823		; 3fffffffH
  00012	2b 55 08	 sub	 edx, DWORD PTR __Count$[ebp]
  00015	c1 f8 02	 sar	 eax, 2
  00018	3b d0		 cmp	 edx, eax
  0001a	73 0b		 jae	 SHORT $LN4@Reserve

; 1293 : 			_Xlen();

  0001c	68 00 00 00 00	 push	 OFFSET ??_C@_0BD@OLBABOEK@vector?$DMT?$DO?5too?5long?$AA@
  00021	ff 15 00 00 00
	00		 call	 DWORD PTR __imp_?_Xlength_error@std@@YAXPBD@Z
$LN21@Reserve:
$LN4@Reserve:

; 1294 : 		else if ((_Size += _Count) <= capacity())

  00027	8b 56 08	 mov	 edx, DWORD PTR [esi+8]
  0002a	03 45 08	 add	 eax, DWORD PTR __Count$[ebp]
  0002d	2b d1		 sub	 edx, ecx
  0002f	c1 fa 02	 sar	 edx, 2
  00032	3b c2		 cmp	 eax, edx
  00034	76 10		 jbe	 SHORT $LN1@Reserve

; 1295 : 			;
; 1296 : 		else
; 1297 : 			reserve(_Grow_to(_Size));

  00036	50		 push	 eax
  00037	8b ce		 mov	 ecx, esi
  00039	e8 00 00 00 00	 call	 ?_Grow_to@?$vector@PAUioTask@@V?$allocator@PAUioTask@@@std@@@std@@IBEII@Z ; std::vector<ioTask *,std::allocator<ioTask *> >::_Grow_to
  0003e	50		 push	 eax
  0003f	8b ce		 mov	 ecx, esi
  00041	e8 00 00 00 00	 call	 ?reserve@?$vector@PAUioTask@@V?$allocator@PAUioTask@@@std@@@std@@QAEXI@Z ; std::vector<ioTask *,std::allocator<ioTask *> >::reserve
$LN1@Reserve:
  00046	5e		 pop	 esi

; 1298 : 		}

  00047	5d		 pop	 ebp
  00048	c2 04 00	 ret	 4
$LN20@Reserve:
?_Reserve@?$vector@PAUioTask@@V?$allocator@PAUioTask@@@std@@@std@@IAEXI@Z ENDP ; std::vector<ioTask *,std::allocator<ioTask *> >::_Reserve
_TEXT	ENDS
PUBLIC	?Destroy@ioReservedTask@@QAEXXZ			; ioReservedTask::Destroy
; Function compile flags: /Ogsp
; File d:\lost saga for developer\youtube\tutorial\source\src\lsclient\ioreservedtask.cpp
;	COMDAT ?Destroy@ioReservedTask@@QAEXXZ
_TEXT	SEGMENT
$T520272 = -4						; size = 4
?Destroy@ioReservedTask@@QAEXXZ PROC			; ioReservedTask::Destroy, COMDAT
; _this$ = ecx

; 33   : {

  00000	55		 push	 ebp
  00001	8b ec		 mov	 ebp, esp
  00003	51		 push	 ecx
  00004	53		 push	 ebx
  00005	56		 push	 esi
  00006	8b d9		 mov	 ebx, ecx
  00008	57		 push	 edi

; 34   : 	for( vReservedTask::iterator it = m_vReservedTask.begin() ; it != m_vReservedTask.end() ; ++it )

  00009	8b 7b 04	 mov	 edi, DWORD PTR [ebx+4]
  0000c	eb 0f		 jmp	 SHORT $LN59@Destroy
$LL19@Destroy:

; 35   : 	{
; 36   : 		ioTask* pTask = *it;

  0000e	8b 0f		 mov	 ecx, DWORD PTR [edi]

; 37   : 		if( !pTask )

  00010	85 c9		 test	 ecx, ecx
  00012	74 06		 je	 SHORT $LN3@Destroy

; 38   : 			continue;
; 39   : 		
; 40   : 		delete pTask;

  00014	8b 01		 mov	 eax, DWORD PTR [ecx]
  00016	6a 01		 push	 1
  00018	ff 10		 call	 DWORD PTR [eax]
$LN3@Destroy:

; 34   : 	for( vReservedTask::iterator it = m_vReservedTask.begin() ; it != m_vReservedTask.end() ; ++it )

  0001a	83 c7 04	 add	 edi, 4
$LN59@Destroy:
  0001d	3b 7b 08	 cmp	 edi, DWORD PTR [ebx+8]
  00020	75 ec		 jne	 SHORT $LL19@Destroy

; 41   : 	}
; 42   : 	m_vReservedTask.clear();

  00022	8b 43 08	 mov	 eax, DWORD PTR [ebx+8]
  00025	8b 4b 04	 mov	 ecx, DWORD PTR [ebx+4]
  00028	50		 push	 eax
  00029	51		 push	 ecx
  0002a	8d 45 fc	 lea	 eax, DWORD PTR $T520272[ebp]
  0002d	50		 push	 eax
  0002e	8d 4b 04	 lea	 ecx, DWORD PTR [ebx+4]
  00031	e8 00 00 00 00	 call	 ?erase@?$vector@PAUioTask@@V?$allocator@PAUioTask@@@std@@@std@@QAE?AV?$_Vector_iterator@V?$_Vector_val@PAUioTask@@V?$allocator@PAUioTask@@@std@@@std@@@2@V?$_Vector_const_iterator@V?$_Vector_val@PAUioTask@@V?$allocator@PAUioTask@@@std@@@std@@@2@0@Z ; std::vector<ioTask *,std::allocator<ioTask *> >::erase
  00036	5f		 pop	 edi
  00037	5e		 pop	 esi
  00038	5b		 pop	 ebx

; 43   : }

  00039	c9		 leave
  0003a	c3		 ret	 0
?Destroy@ioReservedTask@@QAEXXZ ENDP			; ioReservedTask::Destroy
_TEXT	ENDS
PUBLIC	?ExecuteReservedTask@ioReservedTask@@QAEXW4ReservedTaskWhens@@@Z ; ioReservedTask::ExecuteReservedTask
; Function compile flags: /Ogsp
;	COMDAT ?ExecuteReservedTask@ioReservedTask@@QAEXW4ReservedTaskWhens@@@Z
_TEXT	SEGMENT
$T520303 = 8						; size = 4
_eWhen$ = 8						; size = 4
?ExecuteReservedTask@ioReservedTask@@QAEXW4ReservedTaskWhens@@@Z PROC ; ioReservedTask::ExecuteReservedTask, COMDAT
; _this$ = ecx

; 87   : {

  00000	55		 push	 ebp
  00001	8b ec		 mov	 ebp, esp
  00003	53		 push	 ebx
  00004	56		 push	 esi
  00005	57		 push	 edi
  00006	8b f9		 mov	 edi, ecx

; 88   : 	// 예약된 작업실행
; 89   : 	for( vReservedTask::iterator it = m_vReservedTask.begin() ; it != m_vReservedTask.end() ; ++it )

  00008	8b 47 04	 mov	 eax, DWORD PTR [edi+4]
  0000b	8b 4f 08	 mov	 ecx, DWORD PTR [edi+8]
  0000e	eb 11		 jmp	 SHORT $LN85@ExecuteRes
$LL24@ExecuteRes:

; 90   : 	{
; 91   : 		ioTask* pTask = *it;

  00010	8b 30		 mov	 esi, DWORD PTR [eax]

; 92   : 		if(!pTask)

  00012	85 f6		 test	 esi, esi
  00014	74 08		 je	 SHORT $LN8@ExecuteRes

; 93   : 			continue;
; 94   : 
; 95   : 		if( pTask->eWhen == eWhen )

  00016	8b 56 08	 mov	 edx, DWORD PTR [esi+8]
  00019	3b 55 08	 cmp	 edx, DWORD PTR _eWhen$[ebp]
  0001c	74 09		 je	 SHORT $LN82@ExecuteRes
$LN8@ExecuteRes:

; 88   : 	// 예약된 작업실행
; 89   : 	for( vReservedTask::iterator it = m_vReservedTask.begin() ; it != m_vReservedTask.end() ; ++it )

  0001e	83 c0 04	 add	 eax, 4
$LN85@ExecuteRes:
  00021	3b c1		 cmp	 eax, ecx
  00023	75 eb		 jne	 SHORT $LL24@ExecuteRes

; 93   : 			continue;
; 94   : 
; 95   : 		if( pTask->eWhen == eWhen )

  00025	eb 0b		 jmp	 SHORT $LN7@ExecuteRes
$LN82@ExecuteRes:

; 96   : 		{
; 97   : 			//현재 하나의 예약작업만 처리함
; 98   : 			pTask->bEraseAfterExecution = OnExecute( pTask );

  00027	56		 push	 esi
  00028	8b cf		 mov	 ecx, edi
  0002a	e8 00 00 00 00	 call	 ?OnExecute@ioReservedTask@@IAE_NPAUioTask@@@Z ; ioReservedTask::OnExecute
  0002f	88 46 0c	 mov	 BYTE PTR [esi+12], al
$LN7@ExecuteRes:

; 99   : 			break;
; 100  : 		}
; 101  : 	}
; 102  : 
; 103  : 	// 예약된 작업삭제
; 104  : 	for( vReservedTask::iterator it = m_vReservedTask.begin() ; it != m_vReservedTask.end() ;  )

  00032	8b 77 04	 mov	 esi, DWORD PTR [edi+4]
  00035	eb 26		 jmp	 SHORT $LN86@ExecuteRes
$LL4@ExecuteRes:

; 105  : 	{
; 106  : 		ioTask* pTask = *it;

  00037	8b 0e		 mov	 ecx, DWORD PTR [esi]

; 107  : 		if( !pTask ) 

  00039	85 c9		 test	 ecx, ecx
  0003b	75 05		 jne	 SHORT $LN2@ExecuteRes
$LN87@ExecuteRes:

; 108  : 		{
; 109  : 			++it;

  0003d	83 c6 04	 add	 esi, 4

; 110  : 			continue;

  00040	eb 1b		 jmp	 SHORT $LN86@ExecuteRes
$LN2@ExecuteRes:

; 111  : 		}
; 112  : 
; 113  : 		if( !pTask->bEraseAfterExecution )

  00042	80 79 0c 00	 cmp	 BYTE PTR [ecx+12], 0

; 114  : 		{
; 115  : 			++it;
; 116  : 			continue;

  00046	74 f5		 je	 SHORT $LN87@ExecuteRes

; 117  : 		}
; 118  : 		
; 119  : 		delete pTask;

  00048	8b 01		 mov	 eax, DWORD PTR [ecx]
  0004a	6a 01		 push	 1
  0004c	ff 10		 call	 DWORD PTR [eax]

; 120  : 		it = m_vReservedTask.erase( it );

  0004e	56		 push	 esi
  0004f	8d 45 08	 lea	 eax, DWORD PTR $T520303[ebp]
  00052	50		 push	 eax
  00053	8d 4f 04	 lea	 ecx, DWORD PTR [edi+4]
  00056	e8 00 00 00 00	 call	 ?erase@?$vector@PAUioTask@@V?$allocator@PAUioTask@@@std@@@std@@QAE?AV?$_Vector_iterator@V?$_Vector_val@PAUioTask@@V?$allocator@PAUioTask@@@std@@@std@@@2@V?$_Vector_const_iterator@V?$_Vector_val@PAUioTask@@V?$allocator@PAUioTask@@@std@@@std@@@2@@Z ; std::vector<ioTask *,std::allocator<ioTask *> >::erase
  0005b	8b 30		 mov	 esi, DWORD PTR [eax]
$LN86@ExecuteRes:

; 99   : 			break;
; 100  : 		}
; 101  : 	}
; 102  : 
; 103  : 	// 예약된 작업삭제
; 104  : 	for( vReservedTask::iterator it = m_vReservedTask.begin() ; it != m_vReservedTask.end() ;  )

  0005d	3b 77 08	 cmp	 esi, DWORD PTR [edi+8]
  00060	75 d5		 jne	 SHORT $LL4@ExecuteRes
  00062	5f		 pop	 edi
  00063	5e		 pop	 esi
  00064	5b		 pop	 ebx

; 121  : 	}
; 122  : }

  00065	5d		 pop	 ebp
  00066	c2 04 00	 ret	 4
?ExecuteReservedTask@ioReservedTask@@QAEXW4ReservedTaskWhens@@@Z ENDP ; ioReservedTask::ExecuteReservedTask
_TEXT	ENDS
PUBLIC	?push_back@?$vector@PAUioTask@@V?$allocator@PAUioTask@@@std@@@std@@QAEXABQAUioTask@@@Z ; std::vector<ioTask *,std::allocator<ioTask *> >::push_back
; Function compile flags: /Ogsp
; File c:\program files (x86)\microsoft visual studio 10.0\vc\include\vector
;	COMDAT ?push_back@?$vector@PAUioTask@@V?$allocator@PAUioTask@@@std@@@std@@QAEXABQAUioTask@@@Z
_TEXT	SEGMENT
__Val$ = 8						; size = 4
?push_back@?$vector@PAUioTask@@V?$allocator@PAUioTask@@@std@@@std@@QAEXABQAUioTask@@@Z PROC ; std::vector<ioTask *,std::allocator<ioTask *> >::push_back, COMDAT
; _this$ = ecx

; 976  : 		{	// insert element at end

  00000	55		 push	 ebp
  00001	8b ec		 mov	 ebp, esp
  00003	56		 push	 esi
  00004	8b f1		 mov	 esi, ecx

; 977  : 		if (_Inside(_STD addressof(_Val)))

  00006	8b 46 04	 mov	 eax, DWORD PTR [esi+4]
  00009	57		 push	 edi
  0000a	8b 7d 08	 mov	 edi, DWORD PTR __Val$[ebp]
  0000d	3b f8		 cmp	 edi, eax
  0000f	73 27		 jae	 SHORT $LN4@push_back
  00011	8b 0e		 mov	 ecx, DWORD PTR [esi]
  00013	3b cf		 cmp	 ecx, edi
  00015	77 21		 ja	 SHORT $LN4@push_back

; 978  : 			{	// push back an element
; 979  : 			size_type _Idx = _STD addressof(_Val) - this->_Myfirst;

  00017	2b f9		 sub	 edi, ecx
  00019	c1 ff 02	 sar	 edi, 2

; 980  : 			if (this->_Mylast == this->_Myend)

  0001c	3b 46 08	 cmp	 eax, DWORD PTR [esi+8]
  0001f	75 09		 jne	 SHORT $LN3@push_back

; 981  : 				_Reserve(1);

  00021	6a 01		 push	 1
  00023	8b ce		 mov	 ecx, esi
  00025	e8 00 00 00 00	 call	 ?_Reserve@?$vector@PAUioTask@@V?$allocator@PAUioTask@@@std@@@std@@IAEXI@Z ; std::vector<ioTask *,std::allocator<ioTask *> >::_Reserve
$LN3@push_back:

; 982  : 			_Orphan_range(this->_Mylast, this->_Mylast);
; 983  : 			_Cons_val(this->_Alval,
; 984  : 				this->_Mylast,
; 985  : 				this->_Myfirst[_Idx]);

  0002a	8b 46 04	 mov	 eax, DWORD PTR [esi+4]
  0002d	85 c0		 test	 eax, eax
  0002f	74 20		 je	 SHORT $LN39@push_back
  00031	8b 0e		 mov	 ecx, DWORD PTR [esi]
  00033	8b 0c b9	 mov	 ecx, DWORD PTR [ecx+edi*4]

; 986  : 			++this->_Mylast;
; 987  : 			}
; 988  : 		else

  00036	eb 17		 jmp	 SHORT $LN46@push_back
$LN4@push_back:

; 989  : 			{	// push back a non-element
; 990  : 			if (this->_Mylast == this->_Myend)

  00038	3b 46 08	 cmp	 eax, DWORD PTR [esi+8]
  0003b	75 09		 jne	 SHORT $LN1@push_back

; 991  : 				_Reserve(1);

  0003d	6a 01		 push	 1
  0003f	8b ce		 mov	 ecx, esi
  00041	e8 00 00 00 00	 call	 ?_Reserve@?$vector@PAUioTask@@V?$allocator@PAUioTask@@@std@@@std@@IAEXI@Z ; std::vector<ioTask *,std::allocator<ioTask *> >::_Reserve
$LN1@push_back:

; 992  : 			_Orphan_range(this->_Mylast, this->_Mylast);
; 993  : 			_Cons_val(this->_Alval,
; 994  : 				this->_Mylast,
; 995  : 				_Val);

  00046	8b 46 04	 mov	 eax, DWORD PTR [esi+4]
  00049	85 c0		 test	 eax, eax
  0004b	74 04		 je	 SHORT $LN39@push_back
  0004d	8b 0f		 mov	 ecx, DWORD PTR [edi]
$LN46@push_back:
  0004f	89 08		 mov	 DWORD PTR [eax], ecx
$LN39@push_back:

; 996  : 			++this->_Mylast;

  00051	83 46 04 04	 add	 DWORD PTR [esi+4], 4
  00055	5f		 pop	 edi
  00056	5e		 pop	 esi

; 997  : 			}
; 998  : 		}

  00057	5d		 pop	 ebp
  00058	c2 04 00	 ret	 4
?push_back@?$vector@PAUioTask@@V?$allocator@PAUioTask@@@std@@@std@@QAEXABQAUioTask@@@Z ENDP ; std::vector<ioTask *,std::allocator<ioTask *> >::push_back
_TEXT	ENDS
PUBLIC	??1ioReservedTask@@UAE@XZ			; ioReservedTask::~ioReservedTask
EXTRN	__EH_epilog3:PROC
EXTRN	__EH_prolog3:PROC
;	COMDAT xdata$x
; File d:\lost saga for developer\youtube\tutorial\source\src\io3dengine\iosingleton.h
xdata$x	SEGMENT
__unwindtable$??1ioReservedTask@@UAE@XZ DD 0ffffffffH
	DD	FLAT:__unwindfunclet$??1ioReservedTask@@UAE@XZ$0
	DD	00H
	DD	FLAT:__unwindfunclet$??1ioReservedTask@@UAE@XZ$1
__ehfuncinfo$??1ioReservedTask@@UAE@XZ DD 019930522H
	DD	02H
	DD	FLAT:__unwindtable$??1ioReservedTask@@UAE@XZ
	DD	2 DUP(00H)
	DD	2 DUP(00H)
	DD	00H
	DD	01H
; Function compile flags: /Ogsp
; File d:\lost saga for developer\youtube\tutorial\source\src\lsclient\ioreservedtask.cpp
xdata$x	ENDS
;	COMDAT ??1ioReservedTask@@UAE@XZ
_TEXT	SEGMENT
_this$ = -16						; size = 4
__$EHRec$ = -12						; size = 12
??1ioReservedTask@@UAE@XZ PROC				; ioReservedTask::~ioReservedTask, COMDAT
; _this$ = ecx

; 24   : {

  00000	6a 04		 push	 4
  00002	b8 00 00 00 00	 mov	 eax, __ehhandler$??1ioReservedTask@@UAE@XZ
  00007	e8 00 00 00 00	 call	 __EH_prolog3
  0000c	8b f1		 mov	 esi, ecx
  0000e	89 75 f0	 mov	 DWORD PTR _this$[ebp], esi
  00011	c7 06 00 00 00
	00		 mov	 DWORD PTR [esi], OFFSET ??_7ioReservedTask@@6B@
  00017	c7 45 fc 01 00
	00 00		 mov	 DWORD PTR __$EHRec$[ebp+8], 1

; 25   : 	Destroy();

  0001e	e8 00 00 00 00	 call	 ?Destroy@ioReservedTask@@QAEXXZ ; ioReservedTask::Destroy

; 26   : }

  00023	8d 4e 04	 lea	 ecx, DWORD PTR [esi+4]
  00026	c6 45 fc 00	 mov	 BYTE PTR __$EHRec$[ebp+8], 0
  0002a	e8 00 00 00 00	 call	 ?_Tidy@?$vector@PAUioTask@@V?$allocator@PAUioTask@@@std@@@std@@IAEXXZ ; std::vector<ioTask *,std::allocator<ioTask *> >::_Tidy
  0002f	83 25 00 00 00
	00 00		 and	 DWORD PTR ?ms_Singleton@?$Singleton@VioReservedTask@@@@1PAVioReservedTask@@A, 0 ; Singleton<ioReservedTask>::ms_Singleton
  00036	e8 00 00 00 00	 call	 __EH_epilog3
  0003b	c3		 ret	 0
_TEXT	ENDS
;	COMDAT text$x
text$x	SEGMENT
__unwindfunclet$??1ioReservedTask@@UAE@XZ$0:
  00000	8b 4d f0	 mov	 ecx, DWORD PTR _this$[ebp]
  00003	83 c1 04	 add	 ecx, 4
  00006	e9 00 00 00 00	 jmp	 ??1?$Singleton@VioReservedTask@@@@QAE@XZ ; Singleton<ioReservedTask>::~Singleton<ioReservedTask>
__unwindfunclet$??1ioReservedTask@@UAE@XZ$1:
  0000b	8b 4d f0	 mov	 ecx, DWORD PTR _this$[ebp]
  0000e	83 c1 04	 add	 ecx, 4
  00011	e9 00 00 00 00	 jmp	 ??1?$vector@PAUioTask@@V?$allocator@PAUioTask@@@std@@@std@@QAE@XZ ; std::vector<ioTask *,std::allocator<ioTask *> >::~vector<ioTask *,std::allocator<ioTask *> >
__ehhandler$??1ioReservedTask@@UAE@XZ:
  00016	8b 54 24 08	 mov	 edx, DWORD PTR [esp+8]
  0001a	8d 42 0c	 lea	 eax, DWORD PTR [edx+12]
  0001d	8b 4a ec	 mov	 ecx, DWORD PTR [edx-20]
  00020	33 c8		 xor	 ecx, eax
  00022	e8 00 00 00 00	 call	 @__security_check_cookie@4
  00027	b8 00 00 00 00	 mov	 eax, OFFSET __ehfuncinfo$??1ioReservedTask@@UAE@XZ
  0002c	e9 00 00 00 00	 jmp	 ___CxxFrameHandler3
text$x	ENDS
??1ioReservedTask@@UAE@XZ ENDP				; ioReservedTask::~ioReservedTask
PUBLIC	??_C@_0BG@FNCLCPKO@?$CFs?5?9?5pNewTask?5?$DN?$DN?5NULL?$AA@ ; `string'
PUBLIC	??_C@_0CA@PMBPILGJ@ioReservedTask?3?3AddReservedTask?$AA@ ; `string'
PUBLIC	?AddReservedTask@ioReservedTask@@QAEXPAUioTask@@@Z ; ioReservedTask::AddReservedTask
;	COMDAT ??_C@_0BG@FNCLCPKO@?$CFs?5?9?5pNewTask?5?$DN?$DN?5NULL?$AA@
; File c:\program files (x86)\microsoft visual studio 10.0\vc\include\vector
CONST	SEGMENT
??_C@_0BG@FNCLCPKO@?$CFs?5?9?5pNewTask?5?$DN?$DN?5NULL?$AA@ DB '%s - pNew'
	DB	'Task == NULL', 00H				; `string'
CONST	ENDS
;	COMDAT ??_C@_0CA@PMBPILGJ@ioReservedTask?3?3AddReservedTask?$AA@
CONST	SEGMENT
??_C@_0CA@PMBPILGJ@ioReservedTask?3?3AddReservedTask?$AA@ DB 'ioReservedT'
	DB	'ask::AddReservedTask', 00H			; `string'
; Function compile flags: /Ogsp
; File d:\lost saga for developer\youtube\tutorial\source\src\lsclient\ioreservedtask.cpp
CONST	ENDS
;	COMDAT ?AddReservedTask@ioReservedTask@@QAEXPAUioTask@@@Z
_TEXT	SEGMENT
_pNewTask$ = 8						; size = 4
?AddReservedTask@ioReservedTask@@QAEXPAUioTask@@@Z PROC	; ioReservedTask::AddReservedTask, COMDAT
; _this$ = ecx

; 46   : {

  00000	55		 push	 ebp
  00001	8b ec		 mov	 ebp, esp
  00003	57		 push	 edi

; 47   : 	if( !pNewTask )

  00004	8b 7d 08	 mov	 edi, DWORD PTR _pNewTask$[ebp]
  00007	8b c1		 mov	 eax, ecx
  00009	85 ff		 test	 edi, edi
  0000b	75 1c		 jne	 SHORT $LN6@AddReserve

; 48   : 	{
; 49   : 		LOG.PrintTimeAndLog(0, "%s - pNewTask == NULL", __FUNCTION__ );

  0000d	68 00 00 00 00	 push	 OFFSET ??_C@_0CA@PMBPILGJ@ioReservedTask?3?3AddReservedTask?$AA@
  00012	68 00 00 00 00	 push	 OFFSET ??_C@_0BG@FNCLCPKO@?$CFs?5?9?5pNewTask?5?$DN?$DN?5NULL?$AA@
  00017	57		 push	 edi
  00018	ff 35 00 00 00
	00		 push	 DWORD PTR __imp_?LOG@@3VCLog@@A
  0001e	ff 15 00 00 00
	00		 call	 DWORD PTR __imp_?PrintTimeAndLog@CLog@@QAAXHPADZZ
  00024	83 c4 10	 add	 esp, 16			; 00000010H

; 50   : 		return;

  00027	eb 34		 jmp	 SHORT $LN7@AddReserve
$LN6@AddReserve:

; 51   : 	}
; 52   : 
; 53   : 	// 예약된 작업실행
; 54   : 	for( vReservedTask::iterator it = m_vReservedTask.begin() ; it != m_vReservedTask.end() ; ++it )

  00029	8d 48 04	 lea	 ecx, DWORD PTR [eax+4]
  0002c	8b 11		 mov	 edx, DWORD PTR [ecx]
  0002e	8b 40 08	 mov	 eax, DWORD PTR [eax+8]
  00031	53		 push	 ebx
  00032	56		 push	 esi
  00033	eb 19		 jmp	 SHORT $LN46@AddReserve
$LL43@AddReserve:

; 55   : 	{
; 56   : 		ioTask* pTask = *it;

  00035	8b 32		 mov	 esi, DWORD PTR [edx]

; 57   : 		if( !pTask )

  00037	85 f6		 test	 esi, esi
  00039	74 10		 je	 SHORT $LN4@AddReserve

; 58   : 			continue;
; 59   : 
; 60   : 		//같은 예약이면 Add하지 않음
; 61   : 		if( pTask->eType == pNewTask->eType && pTask->eWhen == pNewTask->eWhen )

  0003b	8b 5e 04	 mov	 ebx, DWORD PTR [esi+4]
  0003e	3b 5f 04	 cmp	 ebx, DWORD PTR [edi+4]
  00041	75 08		 jne	 SHORT $LN4@AddReserve
  00043	8b 76 08	 mov	 esi, DWORD PTR [esi+8]
  00046	3b 77 08	 cmp	 esi, DWORD PTR [edi+8]
  00049	74 10		 je	 SHORT $LN44@AddReserve
$LN4@AddReserve:

; 51   : 	}
; 52   : 
; 53   : 	// 예약된 작업실행
; 54   : 	for( vReservedTask::iterator it = m_vReservedTask.begin() ; it != m_vReservedTask.end() ; ++it )

  0004b	83 c2 04	 add	 edx, 4
$LN46@AddReserve:
  0004e	3b d0		 cmp	 edx, eax
  00050	75 e3		 jne	 SHORT $LL43@AddReserve

; 62   : 			return;
; 63   : 	}
; 64   : 
; 65   : 	m_vReservedTask.push_back( pNewTask );

  00052	8d 45 08	 lea	 eax, DWORD PTR _pNewTask$[ebp]
  00055	50		 push	 eax
  00056	e8 00 00 00 00	 call	 ?push_back@?$vector@PAUioTask@@V?$allocator@PAUioTask@@@std@@@std@@QAEXABQAUioTask@@@Z ; std::vector<ioTask *,std::allocator<ioTask *> >::push_back
$LN44@AddReserve:
  0005b	5e		 pop	 esi
  0005c	5b		 pop	 ebx
$LN7@AddReserve:
  0005d	5f		 pop	 edi

; 66   : }

  0005e	5d		 pop	 ebp
  0005f	c2 04 00	 ret	 4
?AddReservedTask@ioReservedTask@@QAEXPAUioTask@@@Z ENDP	; ioReservedTask::AddReservedTask
; Function compile flags: /Ogsp
_TEXT	ENDS
;	COMDAT ??_GioReservedTask@@UAEPAXI@Z
_TEXT	SEGMENT
___flags$ = 8						; size = 4
??_GioReservedTask@@UAEPAXI@Z PROC			; ioReservedTask::`scalar deleting destructor', COMDAT
; _this$ = ecx
  00000	55		 push	 ebp
  00001	8b ec		 mov	 ebp, esp
  00003	56		 push	 esi
  00004	8b f1		 mov	 esi, ecx
  00006	e8 00 00 00 00	 call	 ??1ioReservedTask@@UAE@XZ ; ioReservedTask::~ioReservedTask
  0000b	f6 45 08 01	 test	 BYTE PTR ___flags$[ebp], 1
  0000f	74 07		 je	 SHORT $LN1@scalar@2
  00011	56		 push	 esi
  00012	e8 00 00 00 00	 call	 ??3@YAXPAX@Z		; operator delete
  00017	59		 pop	 ecx
$LN1@scalar@2:
  00018	8b c6		 mov	 eax, esi
  0001a	5e		 pop	 esi
  0001b	5d		 pop	 ebp
  0001c	c2 04 00	 ret	 4
??_GioReservedTask@@UAEPAXI@Z ENDP			; ioReservedTask::`scalar deleting destructor'
_TEXT	ENDS
END
