; Listing generated by Microsoft (R) Optimizing Compiler Version 16.00.30319.01 

	TITLE	D:\Lost Saga For Developer\Youtube\Tutorial\Source\src\LSClient\ioRotationWeapon.cpp
	.686P
	.XMM
	include listing.inc
	.model	flat

INCLUDELIB MSVCRT
INCLUDELIB OLDNAMES

PUBLIC	?m_ActionStopType@ioRotationWeapon@@2W4ActionStopType@@A ; ioRotationWeapon::m_ActionStopType
PUBLIC	?m_DieActionStopType@ioRotationWeapon@@2W4ActionStopType@@A ; ioRotationWeapon::m_DieActionStopType
_BSS	SEGMENT
?m_ActionStopType@ioRotationWeapon@@2W4ActionStopType@@A DD 01H DUP (?) ; ioRotationWeapon::m_ActionStopType
?m_DieActionStopType@ioRotationWeapon@@2W4ActionStopType@@A DD 01H DUP (?) ; ioRotationWeapon::m_DieActionStopType
_BSS	ENDS
PUBLIC	?return1@@YAIXZ					; return1
; Function compile flags: /Ogsp
; File d:\lost saga for developer\youtube\tutorial\source\src\lsclient\stdafx.h
;	COMDAT ?return1@@YAIXZ
_TEXT	SEGMENT
?return1@@YAIXZ PROC					; return1, COMDAT

; 17   : 	__forceinline unsigned int return1() { __asm mov eax, 1 };

  00000	b8 01 00 00 00	 mov	 eax, 1
  00005	c3		 ret	 0
?return1@@YAIXZ ENDP					; return1
_TEXT	ENDS
PUBLIC	?return5@@YAIXZ					; return5
; Function compile flags: /Ogsp
;	COMDAT ?return5@@YAIXZ
_TEXT	SEGMENT
?return5@@YAIXZ PROC					; return5, COMDAT

; 18   : 	__forceinline unsigned int return5() { __asm mov eax, 5 };

  00000	b8 05 00 00 00	 mov	 eax, 5
  00005	c3		 ret	 0
?return5@@YAIXZ ENDP					; return5
_TEXT	ENDS
PUBLIC	?return10@@YAIXZ				; return10
; Function compile flags: /Ogsp
;	COMDAT ?return10@@YAIXZ
_TEXT	SEGMENT
?return10@@YAIXZ PROC					; return10, COMDAT

; 21   : 	__forceinline unsigned int return10() { __asm mov eax, 10 };

  00000	b8 0a 00 00 00	 mov	 eax, 10			; 0000000aH
  00005	c3		 ret	 0
?return10@@YAIXZ ENDP					; return10
_TEXT	ENDS
PUBLIC	?return360@@YAIXZ				; return360
; Function compile flags: /Ogsp
;	COMDAT ?return360@@YAIXZ
_TEXT	SEGMENT
?return360@@YAIXZ PROC					; return360, COMDAT

; 27   : 	__forceinline unsigned int return360() { __asm mov eax, 360 };

  00000	b8 68 01 00 00	 mov	 eax, 360		; 00000168H
  00005	c3		 ret	 0
?return360@@YAIXZ ENDP					; return360
_TEXT	ENDS
PUBLIC	?return1000@@YAIXZ				; return1000
; Function compile flags: /Ogsp
;	COMDAT ?return1000@@YAIXZ
_TEXT	SEGMENT
?return1000@@YAIXZ PROC					; return1000, COMDAT

; 29   : 	__forceinline unsigned int return1000() { __asm mov eax, 1000 };

  00000	b8 e8 03 00 00	 mov	 eax, 1000		; 000003e8H
  00005	c3		 ret	 0
?return1000@@YAIXZ ENDP					; return1000
_TEXT	ENDS
PUBLIC	?GetActionStopTotalDelay@ioBaseChar@@QBEKXZ	; ioBaseChar::GetActionStopTotalDelay
; Function compile flags: /Ogsp
; File d:\lost saga for developer\youtube\tutorial\source\src\lsclient\iobasechar.h
;	COMDAT ?GetActionStopTotalDelay@ioBaseChar@@QBEKXZ
_TEXT	SEGMENT
?GetActionStopTotalDelay@ioBaseChar@@QBEKXZ PROC	; ioBaseChar::GetActionStopTotalDelay, COMDAT
; _this$ = ecx

; 2399 : 	DWORD GetActionStopTotalDelay() const { return m_dwActionStopTotalDelay; }	// kaseton : action delay

  00000	8b 81 b8 15 00
	00		 mov	 eax, DWORD PTR [ecx+5560]
  00006	c3		 ret	 0
?GetActionStopTotalDelay@ioBaseChar@@QBEKXZ ENDP	; ioBaseChar::GetActionStopTotalDelay
_TEXT	ENDS
PUBLIC	?GetTargetRot@ioBaseChar@@QBEABUD3DXQUATERNION@@XZ ; ioBaseChar::GetTargetRot
; Function compile flags: /Ogsp
;	COMDAT ?GetTargetRot@ioBaseChar@@QBEABUD3DXQUATERNION@@XZ
_TEXT	SEGMENT
?GetTargetRot@ioBaseChar@@QBEABUD3DXQUATERNION@@XZ PROC	; ioBaseChar::GetTargetRot, COMDAT
; _this$ = ecx

; 2599 : 	inline const D3DXQUATERNION& GetTargetRot() const { return m_qtTargetRot; }

  00000	8d 81 a4 06 00
	00		 lea	 eax, DWORD PTR [ecx+1700]
  00006	c3		 ret	 0
?GetTargetRot@ioBaseChar@@QBEABUD3DXQUATERNION@@XZ ENDP	; ioBaseChar::GetTargetRot
_TEXT	ENDS
PUBLIC	_acosf
EXTRN	__fltused:DWORD
EXTRN	__CIacos:PROC
; Function compile flags: /Ogsp
; File c:\program files (x86)\microsoft visual studio 10.0\vc\include\math.h
;	COMDAT _acosf
_TEXT	SEGMENT
tv69 = 8						; size = 4
__X$ = 8						; size = 4
_acosf	PROC						; COMDAT

; 400  :         {return ((float)acos((double)_X)); }

  00000	55		 push	 ebp
  00001	8b ec		 mov	 ebp, esp
  00003	d9 45 08	 fld	 DWORD PTR __X$[ebp]
  00006	e8 00 00 00 00	 call	 __CIacos
  0000b	d9 5d 08	 fstp	 DWORD PTR tv69[ebp]
  0000e	d9 45 08	 fld	 DWORD PTR tv69[ebp]
  00011	5d		 pop	 ebp
  00012	c3		 ret	 0
_acosf	ENDP
_TEXT	ENDS
PUBLIC	??_C@_0DJ@COBGJCIN@ioRotationWeapon?3?3?$HOioRotationWea@ ; `string'
PUBLIC	??_7ioRotationWeapon@@6B@			; ioRotationWeapon::`vftable'
PUBLIC	??1ioRotationWeapon@@UAE@XZ			; ioRotationWeapon::~ioRotationWeapon
PUBLIC	??_R4ioRotationWeapon@@6B@			; ioRotationWeapon::`RTTI Complete Object Locator'
PUBLIC	??_R0?AVioRotationWeapon@@@8			; ioRotationWeapon `RTTI Type Descriptor'
PUBLIC	??_R3ioRotationWeapon@@8			; ioRotationWeapon::`RTTI Class Hierarchy Descriptor'
PUBLIC	??_R2ioRotationWeapon@@8			; ioRotationWeapon::`RTTI Base Class Array'
PUBLIC	??_R1A@?0A@EA@ioRotationWeapon@@8		; ioRotationWeapon::`RTTI Base Class Descriptor at (0,-1,0,64)'
PUBLIC	??_R1A@?0A@EA@ioWeapon@@8			; ioWeapon::`RTTI Base Class Descriptor at (0,-1,0,64)'
PUBLIC	??_R0?AVioWeapon@@@8				; ioWeapon `RTTI Type Descriptor'
PUBLIC	??_R3ioWeapon@@8				; ioWeapon::`RTTI Class Hierarchy Descriptor'
PUBLIC	??_R2ioWeapon@@8				; ioWeapon::`RTTI Base Class Array'
PUBLIC	?SetCreateItem@ioRotationWeapon@@UAEXABVioHashString@@@Z ; ioRotationWeapon::SetCreateItem
PUBLIC	?SetWeaponDead@ioRotationWeapon@@UAEXXZ		; ioRotationWeapon::SetWeaponDead
PUBLIC	?InitResource@ioRotationWeapon@@UAE_NXZ		; ioRotationWeapon::InitResource
PUBLIC	?DestroyResource@ioRotationWeapon@@UAEXPAVioPlayStage@@@Z ; ioRotationWeapon::DestroyResource
PUBLIC	?LoadProperty@ioRotationWeapon@@UAEXAAVioINILoader@@@Z ; ioRotationWeapon::LoadProperty
PUBLIC	?SetLiveTime@ioRotationWeapon@@UAEXK@Z		; ioRotationWeapon::SetLiveTime
PUBLIC	?SetMoveDir@ioRotationWeapon@@UAEXABUD3DXVECTOR3@@@Z ; ioRotationWeapon::SetMoveDir
PUBLIC	?SetStartPosition@ioRotationWeapon@@UAEXABUD3DXVECTOR3@@PAVioPlayStage@@@Z ; ioRotationWeapon::SetStartPosition
PUBLIC	?Process@ioRotationWeapon@@UAEXMPAVioPlayStage@@@Z ; ioRotationWeapon::Process
PUBLIC	?IsCollision@ioRotationWeapon@@UAE_NPAVioPlayEntity@@_N@Z ; ioRotationWeapon::IsCollision
PUBLIC	?CheckCurAttribute@ioRotationWeapon@@UAEXPBVioPlayEntity@@@Z ; ioRotationWeapon::CheckCurAttribute
PUBLIC	?GetAttackDir@ioRotationWeapon@@UBE?AUD3DXVECTOR3@@PBVioPlayEntity@@@Z ; ioRotationWeapon::GetAttackDir
PUBLIC	?GetLocalAttackBox@ioRotationWeapon@@UBEABVioOrientBox@@XZ ; ioRotationWeapon::GetLocalAttackBox
PUBLIC	?GetType@ioRotationWeapon@@UBE?AW4WeaponType@ioWeapon@@XZ ; ioRotationWeapon::GetType
PUBLIC	?GetActionStopType@ioRotationWeapon@@UBE?AW4ActionStopType@@XZ ; ioRotationWeapon::GetActionStopType
PUBLIC	?GetDieActionStopType@ioRotationWeapon@@UBE?AW4ActionStopType@@XZ ; ioRotationWeapon::GetDieActionStopType
PUBLIC	?UpdateWorldAttackBox@ioRotationWeapon@@MAEXM_N@Z ; ioRotationWeapon::UpdateWorldAttackBox
PUBLIC	?GetAttribute@ioRotationWeapon@@MBEPBUWeaponAttribute@@XZ ; ioRotationWeapon::GetAttribute
EXTRN	??1ioWeapon@@UAE@XZ:PROC			; ioWeapon::~ioWeapon
EXTRN	__imp_?PrintTimeAndLog@CLog@@QAAXHPADZZ:PROC
EXTRN	__imp_?LOG@@3VCLog@@A:BYTE
EXTRN	___CxxFrameHandler3:PROC
EXTRN	@__security_check_cookie@4:PROC
EXTRN	__EH_epilog3:PROC
EXTRN	__EH_prolog3:PROC
EXTRN	??_7type_info@@6B@:QWORD			; type_info::`vftable'
EXTRN	?IsAlreadyCollisioned@ioWeapon@@UAE_NPAVioPlayEntity@@@Z:PROC ; ioWeapon::IsAlreadyCollisioned
EXTRN	?AddCollisionEntity@ioWeapon@@UAEXPAVioPlayEntity@@@Z:PROC ; ioWeapon::AddCollisionEntity
EXTRN	?SetOwnerDamageRate@ioWeapon@@UAEXM@Z:PROC	; ioWeapon::SetOwnerDamageRate
EXTRN	?SetOwnerChargeDamageRate@ioWeapon@@UAEXM@Z:PROC ; ioWeapon::SetOwnerChargeDamageRate
EXTRN	?SetOwnerChargeForceRate@ioWeapon@@UAEXM@Z:PROC	; ioWeapon::SetOwnerChargeForceRate
EXTRN	?SetOwnerChargeRangeRate@ioWeapon@@UAEXM@Z:PROC	; ioWeapon::SetOwnerChargeRangeRate
EXTRN	?SetOwnerChargeSpeedRate@ioWeapon@@UAEXM@Z:PROC	; ioWeapon::SetOwnerChargeSpeedRate
EXTRN	?SetOwnerChargeBlowRate@ioWeapon@@UAEXM@Z:PROC	; ioWeapon::SetOwnerChargeBlowRate
EXTRN	?SetOwnerChargeFloatRate@ioWeapon@@UAEXM@Z:PROC	; ioWeapon::SetOwnerChargeFloatRate
EXTRN	?SetOwnerChargeScaleRate@ioWeapon@@UAEXM@Z:PROC	; ioWeapon::SetOwnerChargeScaleRate
EXTRN	?SetOwnerChargeExplosionRate@ioWeapon@@UAEXM@Z:PROC ; ioWeapon::SetOwnerChargeExplosionRate
EXTRN	?SetOwnerChargeWoundedTimeRate@ioWeapon@@UAEXM@Z:PROC ; ioWeapon::SetOwnerChargeWoundedTimeRate
EXTRN	?SetOwnerChargeLiveTimeRate@ioWeapon@@UAEXM@Z:PROC ; ioWeapon::SetOwnerChargeLiveTimeRate
EXTRN	?SetOwnerChargeBuffLiveTimeRate@ioWeapon@@UAEXM@Z:PROC ; ioWeapon::SetOwnerChargeBuffLiveTimeRate
EXTRN	?SetWeaponIndex@ioWeapon@@UAEXK@Z:PROC		; ioWeapon::SetWeaponIndex
EXTRN	?SetGrapplingTargetName@ioWeapon@@UAEXABVioHashString@@@Z:PROC ; ioWeapon::SetGrapplingTargetName
EXTRN	?SetTeam@ioWeapon@@UAEXPAVioPlayStage@@W4TeamType@@@Z:PROC ; ioWeapon::SetTeam
EXTRN	?CallReserveAreaWeapon@ioWeapon@@UAEXXZ:PROC	; ioWeapon::CallReserveAreaWeapon
EXTRN	?PlayExplosionSound@ioWeapon@@UAEXXZ:PROC	; ioWeapon::PlayExplosionSound
EXTRN	?PlayWoundedSound@ioWeapon@@UAEXPAVioPlayEntity@@@Z:PROC ; ioWeapon::PlayWoundedSound
EXTRN	?PlayDefensedSound@ioWeapon@@UAEXPAVioPlayEntity@@@Z:PROC ; ioWeapon::PlayDefensedSound
EXTRN	?PlayLoopSound@ioWeapon@@UAEXXZ:PROC		; ioWeapon::PlayLoopSound
EXTRN	?StopLoopSound@ioWeapon@@UAEXXZ:PROC		; ioWeapon::StopLoopSound
EXTRN	?GetTargetAirBuffList@ioWeapon@@UBEABV?$vector@UBuffInfoStruct@@V?$allocator@UBuffInfoStruct@@@std@@@std@@XZ:PROC ; ioWeapon::GetTargetAirBuffList
EXTRN	?GetTargetBuffList@ioWeapon@@UBEABV?$vector@UBuffInfoStruct@@V?$allocator@UBuffInfoStruct@@@std@@@std@@XZ:PROC ; ioWeapon::GetTargetBuffList
EXTRN	?GetTargetDownBuffList@ioWeapon@@UBEABV?$vector@UBuffInfoStruct@@V?$allocator@UBuffInfoStruct@@@std@@@std@@XZ:PROC ; ioWeapon::GetTargetDownBuffList
EXTRN	?GetPosition@ioWeapon@@UBEABUD3DXVECTOR3@@XZ:PROC ; ioWeapon::GetPosition
EXTRN	?GetBlowType@ioWeapon@@UBE?AW4BlowTargetType@@XZ:PROC ; ioWeapon::GetBlowType
EXTRN	?GetPushPower@ioWeapon@@UBEMM@Z:PROC		; ioWeapon::GetPushPower
EXTRN	?GetBlowPower@ioWeapon@@UBEMM@Z:PROC		; ioWeapon::GetBlowPower
EXTRN	?GetAirPushPower@ioWeapon@@UBEMM@Z:PROC		; ioWeapon::GetAirPushPower
EXTRN	?GetAirBlowPower@ioWeapon@@UBEMM@Z:PROC		; ioWeapon::GetAirBlowPower
EXTRN	?GetDefensePushPower@ioWeapon@@UBEMM@Z:PROC	; ioWeapon::GetDefensePushPower
EXTRN	?GetCollisionEnableTime@ioWeapon@@UBEKXZ:PROC	; ioWeapon::GetCollisionEnableTime
EXTRN	?SetSylphid@ioWeapon@@UAEHXZ:PROC		; ioWeapon::SetSylphid
EXTRN	?ApplyExtraReserveWeaponByWeaponInfo@ioWeapon@@UAEXPAV1@@Z:PROC ; ioWeapon::ApplyExtraReserveWeaponByWeaponInfo
EXTRN	?SetResistanceAttr@ioWeapon@@UAEXH@Z:PROC	; ioWeapon::SetResistanceAttr
EXTRN	?SetStartCollisionBox@ioWeapon@@UAEXXZ:PROC	; ioWeapon::SetStartCollisionBox
EXTRN	?SetMoveSpeed@ioWeapon@@UAEXM@Z:PROC		; ioWeapon::SetMoveSpeed
EXTRN	?SetFloatPower@ioWeapon@@UAEXM@Z:PROC		; ioWeapon::SetFloatPower
EXTRN	?TestMapCollision@ioWeapon@@UAE_NPAVioOpcodeShape@@PAVioPlayStage@@PBUD3DXMATRIX@@@Z:PROC ; ioWeapon::TestMapCollision
EXTRN	?CheckPreCollision@ioWeapon@@UAEXPAVioPlayEntity@@PAVioPlayStage@@@Z:PROC ; ioWeapon::CheckPreCollision
EXTRN	?CheckStructAndDummy@ioWeapon@@UAEXPAVioPlayEntity@@PAVioPlayStage@@@Z:PROC ; ioWeapon::CheckStructAndDummy
EXTRN	?GetDamage@ioWeapon@@UAEMPAVioPlayEntity@@@Z:PROC ; ioWeapon::GetDamage
EXTRN	?GetBaseDamage@ioWeapon@@UAEMPAVioPlayEntity@@@Z:PROC ; ioWeapon::GetBaseDamage
EXTRN	?GetPushAngle@ioWeapon@@UBEMXZ:PROC		; ioWeapon::GetPushAngle
EXTRN	?IsResistanceMagic@ioWeapon@@UAEHPAVioBaseChar@@@Z:PROC ; ioWeapon::IsResistanceMagic
EXTRN	?IsResistanceBomb@ioWeapon@@UAEHPAVioBaseChar@@@Z:PROC ; ioWeapon::IsResistanceBomb
EXTRN	?IsCanMineExplosion@ioWeapon@@UAE_NXZ:PROC	; ioWeapon::IsCanMineExplosion
EXTRN	?CheckGrapplingState@ioWeapon@@UAE?AW4GrapplingType@@XZ:PROC ; ioWeapon::CheckGrapplingState
EXTRN	?CheckItemNotDrop@ioWeapon@@UAE_NPAVioBaseChar@@@Z:PROC ; ioWeapon::CheckItemNotDrop
EXTRN	?GetWorldAttackBoxList@ioWeapon@@UAEXAAV?$vector@VioOrientBox@@V?$allocator@VioOrientBox@@@std@@@std@@@Z:PROC ; ioWeapon::GetWorldAttackBoxList
EXTRN	?GetLiveTime@ioWeapon@@UAEKXZ:PROC		; ioWeapon::GetLiveTime
EXTRN	?GetMoveDir@ioWeapon@@UAE?AUD3DXVECTOR3@@XZ:PROC ; ioWeapon::GetMoveDir
EXTRN	?CheckWeaponCollision@ioWeapon@@UAEXXZ:PROC	; ioWeapon::CheckWeaponCollision
EXTRN	?GetRefreshDuration@ioWeapon@@UAEKXZ:PROC	; ioWeapon::GetRefreshDuration
EXTRN	?GetIgnoreDuration@ioWeapon@@UAEKXZ:PROC	; ioWeapon::GetIgnoreDuration
EXTRN	?GetIgnoreTimeTypeDuration@ioWeapon@@UAEKXZ:PROC ; ioWeapon::GetIgnoreTimeTypeDuration
EXTRN	?GetIgnoreTimeType@ioWeapon@@UAEKXZ:PROC	; ioWeapon::GetIgnoreTimeType
EXTRN	?ApplyWeaponSync@ioWeapon@@UAEXAAVSP2Packet@@PAVioPlayStage@@@Z:PROC ; ioWeapon::ApplyWeaponSync
EXTRN	?IsSkillDependency@ioWeapon@@UAE_NABVioHashString@@@Z:PROC ; ioWeapon::IsSkillDependency
EXTRN	?SetSkillDependencyAction@ioWeapon@@UAEXXZ:PROC	; ioWeapon::SetSkillDependencyAction
EXTRN	?CalcFinalDamage@ioWeapon@@MAEMXZ:PROC		; ioWeapon::CalcFinalDamage
EXTRN	?CalcFinalBoundDamage@ioWeapon@@MAEMXZ:PROC	; ioWeapon::CalcFinalBoundDamage
EXTRN	?CheckPiercing@ioWeapon@@MAE_N_N@Z:PROC		; ioWeapon::CheckPiercing
EXTRN	?ClearCollisionList@ioWeapon@@MAEXXZ:PROC	; ioWeapon::ClearCollisionList
EXTRN	?CheckCreateWeaponList@ioWeapon@@MAEXXZ:PROC	; ioWeapon::CheckCreateWeaponList
EXTRN	?CreateCollisionAreaWeapon@ioWeapon@@MAEXXZ:PROC ; ioWeapon::CreateCollisionAreaWeapon
EXTRN	?SetMapCollision@ioWeapon@@UAEXXZ:PROC		; ioWeapon::SetMapCollision
EXTRN	?IsIgnoreMapCollision@ioWeapon@@UBE_NXZ:PROC	; ioWeapon::IsIgnoreMapCollision
EXTRN	?IsIgnoreTestMapCollision@ioWeapon@@UBE_NXZ:PROC ; ioWeapon::IsIgnoreTestMapCollision
EXTRN	?IsIgnoreMapCollisionEffect@ioWeapon@@UBE_NXZ:PROC ; ioWeapon::IsIgnoreMapCollisionEffect
EXTRN	?AddEffectEvent@ioWeapon@@MAEXPAVioEffect@@@Z:PROC ; ioWeapon::AddEffectEvent
EXTRN	??_EioRotationWeapon@@UAEPAXI@Z:PROC		; ioRotationWeapon::`vector deleting destructor'
;	COMDAT ??_R2ioWeapon@@8
; File d:\lost saga for developer\youtube\tutorial\source\src\lsclient\iorotationweapon.cpp
rdata$r	SEGMENT
??_R2ioWeapon@@8 DD FLAT:??_R1A@?0A@EA@ioWeapon@@8	; ioWeapon::`RTTI Base Class Array'
rdata$r	ENDS
;	COMDAT ??_R3ioWeapon@@8
rdata$r	SEGMENT
??_R3ioWeapon@@8 DD 00H					; ioWeapon::`RTTI Class Hierarchy Descriptor'
	DD	00H
	DD	01H
	DD	FLAT:??_R2ioWeapon@@8
rdata$r	ENDS
;	COMDAT ??_R0?AVioWeapon@@@8
_DATA	SEGMENT
??_R0?AVioWeapon@@@8 DD FLAT:??_7type_info@@6B@		; ioWeapon `RTTI Type Descriptor'
	DD	00H
	DB	'.?AVioWeapon@@', 00H
_DATA	ENDS
;	COMDAT ??_R1A@?0A@EA@ioWeapon@@8
rdata$r	SEGMENT
??_R1A@?0A@EA@ioWeapon@@8 DD FLAT:??_R0?AVioWeapon@@@8	; ioWeapon::`RTTI Base Class Descriptor at (0,-1,0,64)'
	DD	00H
	DD	00H
	DD	0ffffffffH
	DD	00H
	DD	040H
	DD	FLAT:??_R3ioWeapon@@8
rdata$r	ENDS
;	COMDAT ??_R1A@?0A@EA@ioRotationWeapon@@8
rdata$r	SEGMENT
??_R1A@?0A@EA@ioRotationWeapon@@8 DD FLAT:??_R0?AVioRotationWeapon@@@8 ; ioRotationWeapon::`RTTI Base Class Descriptor at (0,-1,0,64)'
	DD	01H
	DD	00H
	DD	0ffffffffH
	DD	00H
	DD	040H
	DD	FLAT:??_R3ioRotationWeapon@@8
rdata$r	ENDS
;	COMDAT ??_R2ioRotationWeapon@@8
rdata$r	SEGMENT
??_R2ioRotationWeapon@@8 DD FLAT:??_R1A@?0A@EA@ioRotationWeapon@@8 ; ioRotationWeapon::`RTTI Base Class Array'
	DD	FLAT:??_R1A@?0A@EA@ioWeapon@@8
rdata$r	ENDS
;	COMDAT ??_R3ioRotationWeapon@@8
rdata$r	SEGMENT
??_R3ioRotationWeapon@@8 DD 00H				; ioRotationWeapon::`RTTI Class Hierarchy Descriptor'
	DD	00H
	DD	02H
	DD	FLAT:??_R2ioRotationWeapon@@8
rdata$r	ENDS
;	COMDAT ??_R0?AVioRotationWeapon@@@8
_DATA	SEGMENT
??_R0?AVioRotationWeapon@@@8 DD FLAT:??_7type_info@@6B@	; ioRotationWeapon `RTTI Type Descriptor'
	DD	00H
	DB	'.?AVioRotationWeapon@@', 00H
_DATA	ENDS
;	COMDAT ??_R4ioRotationWeapon@@6B@
rdata$r	SEGMENT
??_R4ioRotationWeapon@@6B@ DD 00H			; ioRotationWeapon::`RTTI Complete Object Locator'
	DD	00H
	DD	00H
	DD	FLAT:??_R0?AVioRotationWeapon@@@8
	DD	FLAT:??_R3ioRotationWeapon@@8
rdata$r	ENDS
;	COMDAT ??_C@_0DJ@COBGJCIN@ioRotationWeapon?3?3?$HOioRotationWea@
CONST	SEGMENT
??_C@_0DJ@COBGJCIN@ioRotationWeapon?3?3?$HOioRotationWea@ DB 'ioRotationW'
	DB	'eapon::~ioRotationWeapon - UnReleased Resouce', 00H ; `string'
CONST	ENDS
;	COMDAT ??_7ioRotationWeapon@@6B@
CONST	SEGMENT
??_7ioRotationWeapon@@6B@ DD FLAT:??_R4ioRotationWeapon@@6B@ ; ioRotationWeapon::`vftable'
	DD	FLAT:?IsAlreadyCollisioned@ioWeapon@@UAE_NPAVioPlayEntity@@@Z
	DD	FLAT:?AddCollisionEntity@ioWeapon@@UAEXPAVioPlayEntity@@@Z
	DD	FLAT:?SetOwnerDamageRate@ioWeapon@@UAEXM@Z
	DD	FLAT:?SetOwnerChargeDamageRate@ioWeapon@@UAEXM@Z
	DD	FLAT:?SetOwnerChargeForceRate@ioWeapon@@UAEXM@Z
	DD	FLAT:?SetOwnerChargeRangeRate@ioWeapon@@UAEXM@Z
	DD	FLAT:?SetOwnerChargeSpeedRate@ioWeapon@@UAEXM@Z
	DD	FLAT:?SetOwnerChargeBlowRate@ioWeapon@@UAEXM@Z
	DD	FLAT:?SetOwnerChargeFloatRate@ioWeapon@@UAEXM@Z
	DD	FLAT:?SetOwnerChargeScaleRate@ioWeapon@@UAEXM@Z
	DD	FLAT:?SetOwnerChargeExplosionRate@ioWeapon@@UAEXM@Z
	DD	FLAT:?SetOwnerChargeWoundedTimeRate@ioWeapon@@UAEXM@Z
	DD	FLAT:?SetOwnerChargeLiveTimeRate@ioWeapon@@UAEXM@Z
	DD	FLAT:?SetOwnerChargeBuffLiveTimeRate@ioWeapon@@UAEXM@Z
	DD	FLAT:?SetWeaponIndex@ioWeapon@@UAEXK@Z
	DD	FLAT:?SetGrapplingTargetName@ioWeapon@@UAEXABVioHashString@@@Z
	DD	FLAT:?SetCreateItem@ioRotationWeapon@@UAEXABVioHashString@@@Z
	DD	FLAT:?SetTeam@ioWeapon@@UAEXPAVioPlayStage@@W4TeamType@@@Z
	DD	FLAT:?CallReserveAreaWeapon@ioWeapon@@UAEXXZ
	DD	FLAT:?SetWeaponDead@ioRotationWeapon@@UAEXXZ
	DD	FLAT:?PlayExplosionSound@ioWeapon@@UAEXXZ
	DD	FLAT:?PlayWoundedSound@ioWeapon@@UAEXPAVioPlayEntity@@@Z
	DD	FLAT:?PlayDefensedSound@ioWeapon@@UAEXPAVioPlayEntity@@@Z
	DD	FLAT:?PlayLoopSound@ioWeapon@@UAEXXZ
	DD	FLAT:?StopLoopSound@ioWeapon@@UAEXXZ
	DD	FLAT:?GetTargetAirBuffList@ioWeapon@@UBEABV?$vector@UBuffInfoStruct@@V?$allocator@UBuffInfoStruct@@@std@@@std@@XZ
	DD	FLAT:?GetTargetBuffList@ioWeapon@@UBEABV?$vector@UBuffInfoStruct@@V?$allocator@UBuffInfoStruct@@@std@@@std@@XZ
	DD	FLAT:?GetTargetDownBuffList@ioWeapon@@UBEABV?$vector@UBuffInfoStruct@@V?$allocator@UBuffInfoStruct@@@std@@@std@@XZ
	DD	FLAT:?GetPosition@ioWeapon@@UBEABUD3DXVECTOR3@@XZ
	DD	FLAT:?GetBlowType@ioWeapon@@UBE?AW4BlowTargetType@@XZ
	DD	FLAT:?GetPushPower@ioWeapon@@UBEMM@Z
	DD	FLAT:?GetBlowPower@ioWeapon@@UBEMM@Z
	DD	FLAT:?GetAirPushPower@ioWeapon@@UBEMM@Z
	DD	FLAT:?GetAirBlowPower@ioWeapon@@UBEMM@Z
	DD	FLAT:?GetDefensePushPower@ioWeapon@@UBEMM@Z
	DD	FLAT:?GetCollisionEnableTime@ioWeapon@@UBEKXZ
	DD	FLAT:?SetSylphid@ioWeapon@@UAEHXZ
	DD	FLAT:?ApplyExtraReserveWeaponByWeaponInfo@ioWeapon@@UAEXPAV1@@Z
	DD	FLAT:?InitResource@ioRotationWeapon@@UAE_NXZ
	DD	FLAT:?DestroyResource@ioRotationWeapon@@UAEXPAVioPlayStage@@@Z
	DD	FLAT:?LoadProperty@ioRotationWeapon@@UAEXAAVioINILoader@@@Z
	DD	FLAT:?SetResistanceAttr@ioWeapon@@UAEXH@Z
	DD	FLAT:?SetStartCollisionBox@ioWeapon@@UAEXXZ
	DD	FLAT:?SetLiveTime@ioRotationWeapon@@UAEXK@Z
	DD	FLAT:?SetMoveDir@ioRotationWeapon@@UAEXABUD3DXVECTOR3@@@Z
	DD	FLAT:?SetMoveSpeed@ioWeapon@@UAEXM@Z
	DD	FLAT:?SetFloatPower@ioWeapon@@UAEXM@Z
	DD	FLAT:?SetStartPosition@ioRotationWeapon@@UAEXABUD3DXVECTOR3@@PAVioPlayStage@@@Z
	DD	FLAT:?Process@ioRotationWeapon@@UAEXMPAVioPlayStage@@@Z
	DD	FLAT:?IsCollision@ioRotationWeapon@@UAE_NPAVioPlayEntity@@_N@Z
	DD	FLAT:?TestMapCollision@ioWeapon@@UAE_NPAVioOpcodeShape@@PAVioPlayStage@@PBUD3DXMATRIX@@@Z
	DD	FLAT:?CheckPreCollision@ioWeapon@@UAEXPAVioPlayEntity@@PAVioPlayStage@@@Z
	DD	FLAT:?CheckStructAndDummy@ioWeapon@@UAEXPAVioPlayEntity@@PAVioPlayStage@@@Z
	DD	FLAT:?GetDamage@ioWeapon@@UAEMPAVioPlayEntity@@@Z
	DD	FLAT:?GetBaseDamage@ioWeapon@@UAEMPAVioPlayEntity@@@Z
	DD	FLAT:?GetPushAngle@ioWeapon@@UBEMXZ
	DD	FLAT:?IsResistanceMagic@ioWeapon@@UAEHPAVioBaseChar@@@Z
	DD	FLAT:?IsResistanceBomb@ioWeapon@@UAEHPAVioBaseChar@@@Z
	DD	FLAT:?IsCanMineExplosion@ioWeapon@@UAE_NXZ
	DD	FLAT:?CheckGrapplingState@ioWeapon@@UAE?AW4GrapplingType@@XZ
	DD	FLAT:?CheckCurAttribute@ioRotationWeapon@@UAEXPBVioPlayEntity@@@Z
	DD	FLAT:?CheckItemNotDrop@ioWeapon@@UAE_NPAVioBaseChar@@@Z
	DD	FLAT:?GetWorldAttackBoxList@ioWeapon@@UAEXAAV?$vector@VioOrientBox@@V?$allocator@VioOrientBox@@@std@@@std@@@Z
	DD	FLAT:?GetAttackDir@ioRotationWeapon@@UBE?AUD3DXVECTOR3@@PBVioPlayEntity@@@Z
	DD	FLAT:?GetLocalAttackBox@ioRotationWeapon@@UBEABVioOrientBox@@XZ
	DD	FLAT:?GetLiveTime@ioWeapon@@UAEKXZ
	DD	FLAT:?GetMoveDir@ioWeapon@@UAE?AUD3DXVECTOR3@@XZ
	DD	FLAT:?CheckWeaponCollision@ioWeapon@@UAEXXZ
	DD	FLAT:?GetType@ioRotationWeapon@@UBE?AW4WeaponType@ioWeapon@@XZ
	DD	FLAT:?GetActionStopType@ioRotationWeapon@@UBE?AW4ActionStopType@@XZ
	DD	FLAT:?GetDieActionStopType@ioRotationWeapon@@UBE?AW4ActionStopType@@XZ
	DD	FLAT:?GetRefreshDuration@ioWeapon@@UAEKXZ
	DD	FLAT:?GetIgnoreDuration@ioWeapon@@UAEKXZ
	DD	FLAT:?GetIgnoreTimeTypeDuration@ioWeapon@@UAEKXZ
	DD	FLAT:?GetIgnoreTimeType@ioWeapon@@UAEKXZ
	DD	FLAT:?ApplyWeaponSync@ioWeapon@@UAEXAAVSP2Packet@@PAVioPlayStage@@@Z
	DD	FLAT:?IsSkillDependency@ioWeapon@@UAE_NABVioHashString@@@Z
	DD	FLAT:?SetSkillDependencyAction@ioWeapon@@UAEXXZ
	DD	FLAT:?UpdateWorldAttackBox@ioRotationWeapon@@MAEXM_N@Z
	DD	FLAT:?GetAttribute@ioRotationWeapon@@MBEPBUWeaponAttribute@@XZ
	DD	FLAT:?CalcFinalDamage@ioWeapon@@MAEMXZ
	DD	FLAT:?CalcFinalBoundDamage@ioWeapon@@MAEMXZ
	DD	FLAT:?CheckPiercing@ioWeapon@@MAE_N_N@Z
	DD	FLAT:?ClearCollisionList@ioWeapon@@MAEXXZ
	DD	FLAT:?CheckCreateWeaponList@ioWeapon@@MAEXXZ
	DD	FLAT:?CreateCollisionAreaWeapon@ioWeapon@@MAEXXZ
	DD	FLAT:?SetMapCollision@ioWeapon@@UAEXXZ
	DD	FLAT:?IsIgnoreMapCollision@ioWeapon@@UBE_NXZ
	DD	FLAT:?IsIgnoreTestMapCollision@ioWeapon@@UBE_NXZ
	DD	FLAT:?IsIgnoreMapCollisionEffect@ioWeapon@@UBE_NXZ
	DD	FLAT:?AddEffectEvent@ioWeapon@@MAEXPAVioEffect@@@Z
	DD	FLAT:??_EioRotationWeapon@@UAEPAXI@Z
CONST	ENDS
;	COMDAT xdata$x
xdata$x	SEGMENT
__unwindtable$??1ioRotationWeapon@@UAE@XZ DD 0ffffffffH
	DD	FLAT:__unwindfunclet$??1ioRotationWeapon@@UAE@XZ$0
__ehfuncinfo$??1ioRotationWeapon@@UAE@XZ DD 019930522H
	DD	01H
	DD	FLAT:__unwindtable$??1ioRotationWeapon@@UAE@XZ
	DD	2 DUP(00H)
	DD	2 DUP(00H)
	DD	00H
	DD	01H
; Function compile flags: /Ogsp
xdata$x	ENDS
;	COMDAT ??1ioRotationWeapon@@UAE@XZ
_TEXT	SEGMENT
_this$ = -16						; size = 4
__$EHRec$ = -12						; size = 12
??1ioRotationWeapon@@UAE@XZ PROC			; ioRotationWeapon::~ioRotationWeapon, COMDAT
; _this$ = ecx

; 29   : {

  00000	6a 04		 push	 4
  00002	b8 00 00 00 00	 mov	 eax, __ehhandler$??1ioRotationWeapon@@UAE@XZ
  00007	e8 00 00 00 00	 call	 __EH_prolog3
  0000c	8b f1		 mov	 esi, ecx
  0000e	89 75 f0	 mov	 DWORD PTR _this$[ebp], esi
  00011	c7 06 00 00 00
	00		 mov	 DWORD PTR [esi], OFFSET ??_7ioRotationWeapon@@6B@
  00017	33 c0		 xor	 eax, eax
  00019	89 45 fc	 mov	 DWORD PTR __$EHRec$[ebp+8], eax

; 30   : 	if( m_pFireBall )

  0001c	39 86 94 08 00
	00		 cmp	 DWORD PTR [esi+2196], eax
  00022	74 15		 je	 SHORT $LN1@ioRotation

; 31   : 	{
; 32   : 		LOG.PrintTimeAndLog( 0, "ioRotationWeapon::~ioRotationWeapon - UnReleased Resouce" );

  00024	68 00 00 00 00	 push	 OFFSET ??_C@_0DJ@COBGJCIN@ioRotationWeapon?3?3?$HOioRotationWea@
  00029	50		 push	 eax
  0002a	ff 35 00 00 00
	00		 push	 DWORD PTR __imp_?LOG@@3VCLog@@A
  00030	ff 15 00 00 00
	00		 call	 DWORD PTR __imp_?PrintTimeAndLog@CLog@@QAAXHPADZZ
  00036	83 c4 0c	 add	 esp, 12			; 0000000cH
$LN1@ioRotation:

; 33   : 	}
; 34   : }

  00039	83 4d fc ff	 or	 DWORD PTR __$EHRec$[ebp+8], -1
  0003d	8b ce		 mov	 ecx, esi
  0003f	e8 00 00 00 00	 call	 ??1ioWeapon@@UAE@XZ	; ioWeapon::~ioWeapon
  00044	e8 00 00 00 00	 call	 __EH_epilog3
  00049	c3		 ret	 0
_TEXT	ENDS
;	COMDAT text$x
text$x	SEGMENT
__unwindfunclet$??1ioRotationWeapon@@UAE@XZ$0:
  00000	8b 4d f0	 mov	 ecx, DWORD PTR _this$[ebp]
  00003	e9 00 00 00 00	 jmp	 ??1ioWeapon@@UAE@XZ	; ioWeapon::~ioWeapon
__ehhandler$??1ioRotationWeapon@@UAE@XZ:
  00008	8b 54 24 08	 mov	 edx, DWORD PTR [esp+8]
  0000c	8d 42 0c	 lea	 eax, DWORD PTR [edx+12]
  0000f	8b 4a ec	 mov	 ecx, DWORD PTR [edx-20]
  00012	33 c8		 xor	 ecx, eax
  00014	e8 00 00 00 00	 call	 @__security_check_cookie@4
  00019	b8 00 00 00 00	 mov	 eax, OFFSET __ehfuncinfo$??1ioRotationWeapon@@UAE@XZ
  0001e	e9 00 00 00 00	 jmp	 ___CxxFrameHandler3
text$x	ENDS
??1ioRotationWeapon@@UAE@XZ ENDP			; ioRotationWeapon::~ioRotationWeapon
; Function compile flags: /Ogsp
;	COMDAT ?SetLiveTime@ioRotationWeapon@@UAEXK@Z
_TEXT	SEGMENT
_dwTime$ = 8						; size = 4
?SetLiveTime@ioRotationWeapon@@UAEXK@Z PROC		; ioRotationWeapon::SetLiveTime, COMDAT
; _this$ = ecx

; 121  : }

  00000	c2 04 00	 ret	 4
?SetLiveTime@ioRotationWeapon@@UAEXK@Z ENDP		; ioRotationWeapon::SetLiveTime
_TEXT	ENDS
EXTRN	__imp_?DestroyEffect@ioEffectFactory@@QAEXPAVioEffect@@@Z:PROC
EXTRN	__imp_?GetSingleton@ioEffectFactory@@SAAAV1@XZ:PROC
; Function compile flags: /Ogsp
;	COMDAT ?DestroyResource@ioRotationWeapon@@UAEXPAVioPlayStage@@@Z
_TEXT	SEGMENT
_pStage$ = 8						; size = 4
?DestroyResource@ioRotationWeapon@@UAEXPAVioPlayStage@@@Z PROC ; ioRotationWeapon::DestroyResource, COMDAT
; _this$ = ecx

; 254  : {

  00000	56		 push	 esi

; 255  : 	if( m_pFireBall )

  00001	8d b1 94 08 00
	00		 lea	 esi, DWORD PTR [ecx+2196]
  00007	8b 06		 mov	 eax, DWORD PTR [esi]
  00009	85 c0		 test	 eax, eax
  0000b	74 12		 je	 SHORT $LN1@DestroyRes

; 256  : 	{
; 257  : 		g_EffectFactory.DestroyEffect( m_pFireBall );

  0000d	50		 push	 eax
  0000e	ff 15 00 00 00
	00		 call	 DWORD PTR __imp_?GetSingleton@ioEffectFactory@@SAAAV1@XZ
  00014	8b c8		 mov	 ecx, eax
  00016	ff 15 00 00 00
	00		 call	 DWORD PTR __imp_?DestroyEffect@ioEffectFactory@@QAEXPAVioEffect@@@Z

; 258  : 		m_pFireBall = NULL;

  0001c	83 26 00	 and	 DWORD PTR [esi], 0
$LN1@DestroyRes:
  0001f	5e		 pop	 esi

; 259  : 	}
; 260  : }

  00020	c2 04 00	 ret	 4
?DestroyResource@ioRotationWeapon@@UAEXPAVioPlayStage@@@Z ENDP ; ioRotationWeapon::DestroyResource
_TEXT	ENDS
EXTRN	?GetLocalAttackBox@ioWeapon@@UBEABVioOrientBox@@XZ:PROC ; ioWeapon::GetLocalAttackBox
EXTRN	__imp_?GetCollisionBox@ioEffect@@QBEABVioOrientBox@@XZ:PROC
; Function compile flags: /Ogsp
;	COMDAT ?GetLocalAttackBox@ioRotationWeapon@@UBEABVioOrientBox@@XZ
_TEXT	SEGMENT
?GetLocalAttackBox@ioRotationWeapon@@UBEABVioOrientBox@@XZ PROC ; ioRotationWeapon::GetLocalAttackBox, COMDAT
; _this$ = ecx

; 288  : 	if( m_pFireBall )

  00000	8b 81 94 08 00
	00		 mov	 eax, DWORD PTR [ecx+2196]
  00006	85 c0		 test	 eax, eax
  00008	74 08		 je	 SHORT $LN1@GetLocalAt

; 289  : 		return m_pFireBall->GetCollisionBox();

  0000a	8b c8		 mov	 ecx, eax
  0000c	ff 25 00 00 00
	00		 jmp	 DWORD PTR __imp_?GetCollisionBox@ioEffect@@QBEABVioOrientBox@@XZ
$LN1@GetLocalAt:

; 290  : 
; 291  : 	return ioWeapon::GetLocalAttackBox();

  00012	e9 00 00 00 00	 jmp	 ?GetLocalAttackBox@ioWeapon@@UBEABVioOrientBox@@XZ ; ioWeapon::GetLocalAttackBox
?GetLocalAttackBox@ioRotationWeapon@@UBEABVioOrientBox@@XZ ENDP ; ioRotationWeapon::GetLocalAttackBox
; Function compile flags: /Ogsp
_TEXT	ENDS
;	COMDAT ?GetType@ioRotationWeapon@@UBE?AW4WeaponType@ioWeapon@@XZ
_TEXT	SEGMENT
?GetType@ioRotationWeapon@@UBE?AW4WeaponType@ioWeapon@@XZ PROC ; ioRotationWeapon::GetType, COMDAT
; _this$ = ecx

; 296  : 	return WT_ROTATE;

  00000	6a 13		 push	 19			; 00000013H
  00002	58		 pop	 eax

; 297  : }

  00003	c3		 ret	 0
?GetType@ioRotationWeapon@@UBE?AW4WeaponType@ioWeapon@@XZ ENDP ; ioRotationWeapon::GetType
; Function compile flags: /Ogsp
_TEXT	ENDS
;	COMDAT ?GetActionStopType@ioRotationWeapon@@UBE?AW4ActionStopType@@XZ
_TEXT	SEGMENT
?GetActionStopType@ioRotationWeapon@@UBE?AW4ActionStopType@@XZ PROC ; ioRotationWeapon::GetActionStopType, COMDAT
; _this$ = ecx

; 301  : 	return m_ActionStopType;

  00000	a1 00 00 00 00	 mov	 eax, DWORD PTR ?m_ActionStopType@ioRotationWeapon@@2W4ActionStopType@@A ; ioRotationWeapon::m_ActionStopType

; 302  : }

  00005	c3		 ret	 0
?GetActionStopType@ioRotationWeapon@@UBE?AW4ActionStopType@@XZ ENDP ; ioRotationWeapon::GetActionStopType
; Function compile flags: /Ogsp
_TEXT	ENDS
;	COMDAT ?GetDieActionStopType@ioRotationWeapon@@UBE?AW4ActionStopType@@XZ
_TEXT	SEGMENT
?GetDieActionStopType@ioRotationWeapon@@UBE?AW4ActionStopType@@XZ PROC ; ioRotationWeapon::GetDieActionStopType, COMDAT
; _this$ = ecx

; 306  : 	return m_DieActionStopType;

  00000	a1 00 00 00 00	 mov	 eax, DWORD PTR ?m_DieActionStopType@ioRotationWeapon@@2W4ActionStopType@@A ; ioRotationWeapon::m_DieActionStopType

; 307  : }

  00005	c3		 ret	 0
?GetDieActionStopType@ioRotationWeapon@@UBE?AW4ActionStopType@@XZ ENDP ; ioRotationWeapon::GetDieActionStopType
_TEXT	ENDS
EXTRN	?CheckCurAttribute@ioWeapon@@UAEXPBVioPlayEntity@@@Z:PROC ; ioWeapon::CheckCurAttribute
; Function compile flags: /Ogsp
;	COMDAT ?CheckCurAttribute@ioRotationWeapon@@UAEXPBVioPlayEntity@@@Z
_TEXT	SEGMENT
_pTarget$ = 8						; size = 4
?CheckCurAttribute@ioRotationWeapon@@UAEXPBVioPlayEntity@@@Z PROC ; ioRotationWeapon::CheckCurAttribute, COMDAT
; _this$ = ecx

; 339  : {

  00000	55		 push	 ebp
  00001	8b ec		 mov	 ebp, esp

; 341  : }

  00003	5d		 pop	 ebp

; 340  : 	ioWeapon::CheckCurAttribute( pTarget );

  00004	e9 00 00 00 00	 jmp	 ?CheckCurAttribute@ioWeapon@@UAEXPBVioPlayEntity@@@Z ; ioWeapon::CheckCurAttribute
?CheckCurAttribute@ioRotationWeapon@@UAEXPBVioPlayEntity@@@Z ENDP ; ioRotationWeapon::CheckCurAttribute
; Function compile flags: /Ogsp
_TEXT	ENDS
;	COMDAT ?GetAttribute@ioRotationWeapon@@MBEPBUWeaponAttribute@@XZ
_TEXT	SEGMENT
?GetAttribute@ioRotationWeapon@@MBEPBUWeaponAttribute@@XZ PROC ; ioRotationWeapon::GetAttribute, COMDAT
; _this$ = ecx

; 345  : 	if( m_bResistance )

  00000	80 b9 3c 06 00
	00 00		 cmp	 BYTE PTR [ecx+1596], 0
  00007	74 07		 je	 SHORT $LN1@GetAttribu

; 346  : 	{
; 347  : 		if( m_pResistanceAttr )

  00009	8b 41 0c	 mov	 eax, DWORD PTR [ecx+12]
  0000c	85 c0		 test	 eax, eax

; 348  : 			return m_pResistanceAttr;

  0000e	75 03		 jne	 SHORT $LN3@GetAttribu
$LN1@GetAttribu:

; 349  : 	}
; 350  : 
; 351  : 	return m_pConstAttr;

  00010	8b 41 08	 mov	 eax, DWORD PTR [ecx+8]
$LN3@GetAttribu:

; 352  : }

  00013	c3		 ret	 0
?GetAttribute@ioRotationWeapon@@MBEPBUWeaponAttribute@@XZ ENDP ; ioRotationWeapon::GetAttribute
_TEXT	ENDS
PUBLIC	?CheckOwnerState@ioRotationWeapon@@IAE_NXZ	; ioRotationWeapon::CheckOwnerState
EXTRN	?IsApplyDownState@ioBaseChar@@QAE_N_N@Z:PROC	; ioBaseChar::IsApplyDownState
EXTRN	?GetOwner@ioWeapon@@QBEPAVioBaseChar@@XZ:PROC	; ioWeapon::GetOwner
; Function compile flags: /Ogsp
;	COMDAT ?CheckOwnerState@ioRotationWeapon@@IAE_NXZ
_TEXT	SEGMENT
?CheckOwnerState@ioRotationWeapon@@IAE_NXZ PROC		; ioRotationWeapon::CheckOwnerState, COMDAT
; _this$ = ecx

; 435  : {

  00000	56		 push	 esi
  00001	8b f1		 mov	 esi, ecx

; 436  : 	ioBaseChar *pOwner = GetOwner();

  00003	e8 00 00 00 00	 call	 ?GetOwner@ioWeapon@@QBEPAVioBaseChar@@XZ ; ioWeapon::GetOwner

; 437  : 	if( !pOwner ) return false;

  00008	85 c0		 test	 eax, eax
  0000a	75 04		 jne	 SHORT $LN2@CheckOwner
$LN5@CheckOwner:
  0000c	32 c0		 xor	 al, al
  0000e	5e		 pop	 esi

; 443  : }

  0000f	c3		 ret	 0
$LN2@CheckOwner:

; 438  : 
; 439  : 	if( !m_bEnableDownState && pOwner->IsApplyDownState( false ) )

  00010	80 be d5 08 00
	00 00		 cmp	 BYTE PTR [esi+2261], 0
  00017	75 0d		 jne	 SHORT $LN1@CheckOwner
  00019	6a 00		 push	 0
  0001b	8b c8		 mov	 ecx, eax
  0001d	e8 00 00 00 00	 call	 ?IsApplyDownState@ioBaseChar@@QAE_N_N@Z ; ioBaseChar::IsApplyDownState
  00022	84 c0		 test	 al, al

; 440  : 		return false;

  00024	75 e6		 jne	 SHORT $LN5@CheckOwner
$LN1@CheckOwner:

; 441  : 
; 442  : 	return true;

  00026	b0 01		 mov	 al, 1
  00028	5e		 pop	 esi

; 443  : }

  00029	c3		 ret	 0
?CheckOwnerState@ioRotationWeapon@@IAE_NXZ ENDP		; ioRotationWeapon::CheckOwnerState
_TEXT	ENDS
PUBLIC	__real@3f91df46a2526c7a
PUBLIC	??$DEGtoRAD@M@@YAMM@Z				; DEGtoRAD<float>
;	COMDAT __real@3f91df46a2526c7a
; File d:\lost saga for developer\youtube\tutorial\source\src\lsclient\veryoftenusedefine.h
CONST	SEGMENT
__real@3f91df46a2526c7a DQ 03f91df46a2526c7ar	; 0.0174533
; Function compile flags: /Ogsp
CONST	ENDS
;	COMDAT ??$DEGtoRAD@M@@YAMM@Z
_TEXT	SEGMENT
tv129 = 8						; size = 4
_val$ = 8						; size = 4
??$DEGtoRAD@M@@YAMM@Z PROC				; DEGtoRAD<float>, COMDAT

; 20   : type  DEGtoRAD (type val) {return (type) (val * 0.0174532925199);}

  00000	55		 push	 ebp
  00001	8b ec		 mov	 ebp, esp
  00003	d9 45 08	 fld	 DWORD PTR _val$[ebp]
  00006	dc 0d 00 00 00
	00		 fmul	 QWORD PTR __real@3f91df46a2526c7a
  0000c	d9 5d 08	 fstp	 DWORD PTR tv129[ebp]
  0000f	d9 45 08	 fld	 DWORD PTR tv129[ebp]
  00012	5d		 pop	 ebp
  00013	c3		 ret	 0
??$DEGtoRAD@M@@YAMM@Z ENDP				; DEGtoRAD<float>
_TEXT	ENDS
PUBLIC	??0D3DXVECTOR3@@QAE@XZ				; D3DXVECTOR3::D3DXVECTOR3
; Function compile flags: /Ogsp
; File c:\program files (x86)\microsoft directx sdk (june 2010)\include\d3dx9math.h
;	COMDAT ??0D3DXVECTOR3@@QAE@XZ
_TEXT	SEGMENT
??0D3DXVECTOR3@@QAE@XZ PROC				; D3DXVECTOR3::D3DXVECTOR3, COMDAT
; _this$ = ecx

; 165  :     D3DXVECTOR3() {};

  00000	8b c1		 mov	 eax, ecx
  00002	c3		 ret	 0
??0D3DXVECTOR3@@QAE@XZ ENDP				; D3DXVECTOR3::D3DXVECTOR3
_TEXT	ENDS
PUBLIC	??0D3DXQUATERNION@@QAE@XZ			; D3DXQUATERNION::D3DXQUATERNION
; Function compile flags: /Ogsp
;	COMDAT ??0D3DXQUATERNION@@QAE@XZ
_TEXT	SEGMENT
??0D3DXQUATERNION@@QAE@XZ PROC				; D3DXQUATERNION::D3DXQUATERNION, COMDAT
; _this$ = ecx

; 429  :     D3DXQUATERNION() {}

  00000	8b c1		 mov	 eax, ecx
  00002	c3		 ret	 0
??0D3DXQUATERNION@@QAE@XZ ENDP				; D3DXQUATERNION::D3DXQUATERNION
_TEXT	ENDS
PUBLIC	??0D3DXVECTOR3@@QAE@MMM@Z			; D3DXVECTOR3::D3DXVECTOR3
; Function compile flags: /Ogsp
; File c:\program files (x86)\microsoft directx sdk (june 2010)\include\d3dx9math.inl
;	COMDAT ??0D3DXVECTOR3@@QAE@MMM@Z
_TEXT	SEGMENT
_fx$ = 8						; size = 4
_fy$ = 12						; size = 4
_fz$ = 16						; size = 4
??0D3DXVECTOR3@@QAE@MMM@Z PROC				; D3DXVECTOR3::D3DXVECTOR3, COMDAT
; _this$ = ecx

; 303  : {

  00000	55		 push	 ebp
  00001	8b ec		 mov	 ebp, esp

; 304  :     x = fx;

  00003	f3 0f 10 45 08	 movss	 xmm0, DWORD PTR _fx$[ebp]
  00008	8b c1		 mov	 eax, ecx
  0000a	f3 0f 11 00	 movss	 DWORD PTR [eax], xmm0

; 305  :     y = fy;

  0000e	f3 0f 10 45 0c	 movss	 xmm0, DWORD PTR _fy$[ebp]
  00013	f3 0f 11 40 04	 movss	 DWORD PTR [eax+4], xmm0

; 306  :     z = fz;

  00018	f3 0f 10 45 10	 movss	 xmm0, DWORD PTR _fz$[ebp]
  0001d	f3 0f 11 40 08	 movss	 DWORD PTR [eax+8], xmm0

; 307  : }

  00022	5d		 pop	 ebp
  00023	c2 0c 00	 ret	 12			; 0000000cH
??0D3DXVECTOR3@@QAE@MMM@Z ENDP				; D3DXVECTOR3::D3DXVECTOR3
_TEXT	ENDS
PUBLIC	__mask@@NegFloat@
PUBLIC	??GD3DXVECTOR3@@QBE?AU0@XZ			; D3DXVECTOR3::operator-
;	COMDAT __mask@@NegFloat@
CONST	SEGMENT
__mask@@NegFloat@ DB 00H, 00H, 00H, 080H, 00H, 00H, 00H, 080H, 00H, 00H, 00H
	DB	080H, 00H, 00H, 00H, 080H
; Function compile flags: /Ogsp
CONST	ENDS
;	COMDAT ??GD3DXVECTOR3@@QBE?AU0@XZ
_TEXT	SEGMENT
___$ReturnUdt$ = 8					; size = 4
??GD3DXVECTOR3@@QBE?AU0@XZ PROC				; D3DXVECTOR3::operator-, COMDAT
; _this$ = ecx

; 372  : {

  00000	55		 push	 ebp
  00001	8b ec		 mov	 ebp, esp

; 373  :     return D3DXVECTOR3(-x, -y, -z);

  00003	f3 0f 10 05 00
	00 00 00	 movss	 xmm0, DWORD PTR __mask@@NegFloat@
  0000b	8b 45 08	 mov	 eax, DWORD PTR ___$ReturnUdt$[ebp]
  0000e	f3 0f 10 09	 movss	 xmm1, DWORD PTR [ecx]
  00012	0f 57 c8	 xorps	 xmm1, xmm0
  00015	f3 0f 11 08	 movss	 DWORD PTR [eax], xmm1
  00019	f3 0f 10 49 04	 movss	 xmm1, DWORD PTR [ecx+4]
  0001e	0f 57 c8	 xorps	 xmm1, xmm0
  00021	f3 0f 11 48 04	 movss	 DWORD PTR [eax+4], xmm1
  00026	f3 0f 10 49 08	 movss	 xmm1, DWORD PTR [ecx+8]
  0002b	0f 57 c8	 xorps	 xmm1, xmm0
  0002e	f3 0f 11 48 08	 movss	 DWORD PTR [eax+8], xmm1

; 374  : }

  00033	5d		 pop	 ebp
  00034	c2 04 00	 ret	 4
??GD3DXVECTOR3@@QBE?AU0@XZ ENDP				; D3DXVECTOR3::operator-
_TEXT	ENDS
PUBLIC	??HD3DXVECTOR3@@QBE?AU0@ABU0@@Z			; D3DXVECTOR3::operator+
; Function compile flags: /Ogsp
;	COMDAT ??HD3DXVECTOR3@@QBE?AU0@ABU0@@Z
_TEXT	SEGMENT
___$ReturnUdt$ = 8					; size = 4
_v$ = 12						; size = 4
??HD3DXVECTOR3@@QBE?AU0@ABU0@@Z PROC			; D3DXVECTOR3::operator+, COMDAT
; _this$ = ecx

; 380  : {

  00000	55		 push	 ebp
  00001	8b ec		 mov	 ebp, esp

; 381  :     return D3DXVECTOR3(x + v.x, y + v.y, z + v.z);

  00003	8b 55 0c	 mov	 edx, DWORD PTR _v$[ebp]
  00006	f3 0f 10 02	 movss	 xmm0, DWORD PTR [edx]
  0000a	f3 0f 10 09	 movss	 xmm1, DWORD PTR [ecx]
  0000e	8b 45 08	 mov	 eax, DWORD PTR ___$ReturnUdt$[ebp]
  00011	0f 5a c0	 cvtps2pd xmm0, xmm0
  00014	0f 5a c9	 cvtps2pd xmm1, xmm1
  00017	f2 0f 58 c1	 addsd	 xmm0, xmm1
  0001b	f3 0f 10 49 04	 movss	 xmm1, DWORD PTR [ecx+4]
  00020	66 0f 5a c0	 cvtpd2ps xmm0, xmm0
  00024	f3 0f 11 00	 movss	 DWORD PTR [eax], xmm0
  00028	f3 0f 10 42 04	 movss	 xmm0, DWORD PTR [edx+4]
  0002d	0f 5a c0	 cvtps2pd xmm0, xmm0
  00030	0f 5a c9	 cvtps2pd xmm1, xmm1
  00033	f2 0f 58 c1	 addsd	 xmm0, xmm1
  00037	f3 0f 10 49 08	 movss	 xmm1, DWORD PTR [ecx+8]
  0003c	66 0f 5a c0	 cvtpd2ps xmm0, xmm0
  00040	f3 0f 11 40 04	 movss	 DWORD PTR [eax+4], xmm0
  00045	f3 0f 10 42 08	 movss	 xmm0, DWORD PTR [edx+8]
  0004a	0f 5a c0	 cvtps2pd xmm0, xmm0
  0004d	0f 5a c9	 cvtps2pd xmm1, xmm1
  00050	f2 0f 58 c1	 addsd	 xmm0, xmm1
  00054	66 0f 5a c0	 cvtpd2ps xmm0, xmm0
  00058	f3 0f 11 40 08	 movss	 DWORD PTR [eax+8], xmm0

; 382  : }

  0005d	5d		 pop	 ebp
  0005e	c2 08 00	 ret	 8
??HD3DXVECTOR3@@QBE?AU0@ABU0@@Z ENDP			; D3DXVECTOR3::operator+
_TEXT	ENDS
PUBLIC	??GD3DXVECTOR3@@QBE?AU0@ABU0@@Z			; D3DXVECTOR3::operator-
; Function compile flags: /Ogsp
;	COMDAT ??GD3DXVECTOR3@@QBE?AU0@ABU0@@Z
_TEXT	SEGMENT
___$ReturnUdt$ = 8					; size = 4
_v$ = 12						; size = 4
??GD3DXVECTOR3@@QBE?AU0@ABU0@@Z PROC			; D3DXVECTOR3::operator-, COMDAT
; _this$ = ecx

; 386  : {

  00000	55		 push	 ebp
  00001	8b ec		 mov	 ebp, esp

; 387  :     return D3DXVECTOR3(x - v.x, y - v.y, z - v.z);

  00003	8b 55 0c	 mov	 edx, DWORD PTR _v$[ebp]
  00006	f3 0f 10 01	 movss	 xmm0, DWORD PTR [ecx]
  0000a	f3 0f 10 0a	 movss	 xmm1, DWORD PTR [edx]
  0000e	8b 45 08	 mov	 eax, DWORD PTR ___$ReturnUdt$[ebp]
  00011	0f 5a c0	 cvtps2pd xmm0, xmm0
  00014	0f 5a c9	 cvtps2pd xmm1, xmm1
  00017	f2 0f 5c c1	 subsd	 xmm0, xmm1
  0001b	f3 0f 10 4a 04	 movss	 xmm1, DWORD PTR [edx+4]
  00020	66 0f 5a c0	 cvtpd2ps xmm0, xmm0
  00024	f3 0f 11 00	 movss	 DWORD PTR [eax], xmm0
  00028	f3 0f 10 41 04	 movss	 xmm0, DWORD PTR [ecx+4]
  0002d	0f 5a c0	 cvtps2pd xmm0, xmm0
  00030	0f 5a c9	 cvtps2pd xmm1, xmm1
  00033	f2 0f 5c c1	 subsd	 xmm0, xmm1
  00037	f3 0f 10 4a 08	 movss	 xmm1, DWORD PTR [edx+8]
  0003c	66 0f 5a c0	 cvtpd2ps xmm0, xmm0
  00040	f3 0f 11 40 04	 movss	 DWORD PTR [eax+4], xmm0
  00045	f3 0f 10 41 08	 movss	 xmm0, DWORD PTR [ecx+8]
  0004a	0f 5a c0	 cvtps2pd xmm0, xmm0
  0004d	0f 5a c9	 cvtps2pd xmm1, xmm1
  00050	f2 0f 5c c1	 subsd	 xmm0, xmm1
  00054	66 0f 5a c0	 cvtpd2ps xmm0, xmm0
  00058	f3 0f 11 40 08	 movss	 DWORD PTR [eax+8], xmm0

; 388  : }

  0005d	5d		 pop	 ebp
  0005e	c2 08 00	 ret	 8
??GD3DXVECTOR3@@QBE?AU0@ABU0@@Z ENDP			; D3DXVECTOR3::operator-
_TEXT	ENDS
PUBLIC	??9D3DXVECTOR3@@QBEHABU0@@Z			; D3DXVECTOR3::operator!=
; Function compile flags: /Ogsp
;	COMDAT ??9D3DXVECTOR3@@QBEHABU0@@Z
_TEXT	SEGMENT
_v$ = 8							; size = 4
??9D3DXVECTOR3@@QBEHABU0@@Z PROC			; D3DXVECTOR3::operator!=, COMDAT
; _this$ = ecx

; 419  : {

  00000	55		 push	 ebp
  00001	8b ec		 mov	 ebp, esp

; 420  :     return x != v.x || y != v.y || z != v.z;

  00003	8b 55 08	 mov	 edx, DWORD PTR _v$[ebp]
  00006	f3 0f 10 01	 movss	 xmm0, DWORD PTR [ecx]
  0000a	f3 0f 10 0a	 movss	 xmm1, DWORD PTR [edx]
  0000e	0f 5a c0	 cvtps2pd xmm0, xmm0
  00011	0f 5a c9	 cvtps2pd xmm1, xmm1
  00014	66 0f 2e c1	 ucomisd xmm0, xmm1
  00018	9f		 lahf
  00019	f6 c4 44	 test	 ah, 68			; 00000044H
  0001c	7a 38		 jp	 SHORT $LN3@operator
  0001e	f3 0f 10 41 04	 movss	 xmm0, DWORD PTR [ecx+4]
  00023	f3 0f 10 4a 04	 movss	 xmm1, DWORD PTR [edx+4]
  00028	0f 5a c0	 cvtps2pd xmm0, xmm0
  0002b	0f 5a c9	 cvtps2pd xmm1, xmm1
  0002e	66 0f 2e c1	 ucomisd xmm0, xmm1
  00032	9f		 lahf
  00033	f6 c4 44	 test	 ah, 68			; 00000044H
  00036	7a 1e		 jp	 SHORT $LN3@operator
  00038	f3 0f 10 41 08	 movss	 xmm0, DWORD PTR [ecx+8]
  0003d	f3 0f 10 4a 08	 movss	 xmm1, DWORD PTR [edx+8]
  00042	0f 5a c0	 cvtps2pd xmm0, xmm0
  00045	0f 5a c9	 cvtps2pd xmm1, xmm1
  00048	66 0f 2e c1	 ucomisd xmm0, xmm1
  0004c	9f		 lahf
  0004d	f6 c4 44	 test	 ah, 68			; 00000044H
  00050	7a 04		 jp	 SHORT $LN3@operator
  00052	33 c0		 xor	 eax, eax
  00054	eb 03		 jmp	 SHORT $LN4@operator
$LN3@operator:
  00056	33 c0		 xor	 eax, eax
  00058	40		 inc	 eax
$LN4@operator:

; 421  : }

  00059	5d		 pop	 ebp
  0005a	c2 04 00	 ret	 4
??9D3DXVECTOR3@@QBEHABU0@@Z ENDP			; D3DXVECTOR3::operator!=
_TEXT	ENDS
PUBLIC	?D3DXVec3Dot@@YAMPBUD3DXVECTOR3@@0@Z		; D3DXVec3Dot
; Function compile flags: /Ogsp
;	COMDAT ?D3DXVec3Dot@@YAMPBUD3DXVECTOR3@@0@Z
_TEXT	SEGMENT
tv188 = 8						; size = 4
_pV1$ = 8						; size = 4
_pV2$ = 12						; size = 4
?D3DXVec3Dot@@YAMPBUD3DXVECTOR3@@0@Z PROC		; D3DXVec3Dot, COMDAT

; 1736 : {

  00000	55		 push	 ebp
  00001	8b ec		 mov	 ebp, esp

; 1737 : #ifdef D3DX_DEBUG
; 1738 :     if(!pV1 || !pV2)
; 1739 :         return 0.0f;
; 1740 : #endif
; 1741 : 
; 1742 :     return pV1->x * pV2->x + pV1->y * pV2->y + pV1->z * pV2->z;

  00003	8b 45 08	 mov	 eax, DWORD PTR _pV1$[ebp]
  00006	8b 4d 0c	 mov	 ecx, DWORD PTR _pV2$[ebp]
  00009	d9 40 04	 fld	 DWORD PTR [eax+4]
  0000c	d8 49 04	 fmul	 DWORD PTR [ecx+4]
  0000f	d9 00		 fld	 DWORD PTR [eax]
  00011	d8 09		 fmul	 DWORD PTR [ecx]
  00013	de c1		 faddp	 ST(1), ST(0)
  00015	d9 40 08	 fld	 DWORD PTR [eax+8]
  00018	d8 49 08	 fmul	 DWORD PTR [ecx+8]
  0001b	de c1		 faddp	 ST(1), ST(0)
  0001d	d9 5d 08	 fstp	 DWORD PTR tv188[ebp]
  00020	d9 45 08	 fld	 DWORD PTR tv188[ebp]

; 1743 : }

  00023	5d		 pop	 ebp
  00024	c3		 ret	 0
?D3DXVec3Dot@@YAMPBUD3DXVECTOR3@@0@Z ENDP		; D3DXVec3Dot
_TEXT	ENDS
PUBLIC	?D3DXVec3Cross@@YAPAUD3DXVECTOR3@@PAU1@PBU1@1@Z	; D3DXVec3Cross
; Function compile flags: /Ogsp
;	COMDAT ?D3DXVec3Cross@@YAPAUD3DXVECTOR3@@PAU1@PBU1@1@Z
_TEXT	SEGMENT
_v$ = -12						; size = 12
_pOut$ = 8						; size = 4
_pV1$ = 12						; size = 4
_pV2$ = 16						; size = 4
?D3DXVec3Cross@@YAPAUD3DXVECTOR3@@PAU1@PBU1@1@Z PROC	; D3DXVec3Cross, COMDAT

; 1747 : {

  00000	55		 push	 ebp
  00001	8b ec		 mov	 ebp, esp
  00003	83 ec 0c	 sub	 esp, 12			; 0000000cH

; 1757 :     v.z = pV1->x * pV2->y - pV1->y * pV2->x;
; 1758 : 
; 1759 :     *pOut = v;

  00006	56		 push	 esi
  00007	57		 push	 edi

; 1748 :     D3DXVECTOR3 v;
; 1749 : 
; 1750 : #ifdef D3DX_DEBUG
; 1751 :     if(!pOut || !pV1 || !pV2)
; 1752 :         return NULL;
; 1753 : #endif
; 1754 : 
; 1755 :     v.x = pV1->y * pV2->z - pV1->z * pV2->y;

  00008	8b 45 0c	 mov	 eax, DWORD PTR _pV1$[ebp]
  0000b	f3 0f 10 40 04	 movss	 xmm0, DWORD PTR [eax+4]
  00010	f3 0f 10 50 08	 movss	 xmm2, DWORD PTR [eax+8]
  00015	8b 4d 10	 mov	 ecx, DWORD PTR _pV2$[ebp]
  00018	f3 0f 10 49 08	 movss	 xmm1, DWORD PTR [ecx+8]
  0001d	f3 0f 10 59 04	 movss	 xmm3, DWORD PTR [ecx+4]
  00022	0f 5a e8	 cvtps2pd xmm5, xmm0
  00025	0f 5a e1	 cvtps2pd xmm4, xmm1
  00028	0f 5a f2	 cvtps2pd xmm6, xmm2
  0002b	f2 0f 59 e5	 mulsd	 xmm4, xmm5

; 1756 :     v.y = pV1->z * pV2->x - pV1->x * pV2->z;

  0002f	0f 5a d2	 cvtps2pd xmm2, xmm2
  00032	0f 5a c9	 cvtps2pd xmm1, xmm1
  00035	0f 5a eb	 cvtps2pd xmm5, xmm3
  00038	f2 0f 59 ee	 mulsd	 xmm5, xmm6
  0003c	f2 0f 5c e5	 subsd	 xmm4, xmm5
  00040	f3 0f 10 28	 movss	 xmm5, DWORD PTR [eax]

; 1757 :     v.z = pV1->x * pV2->y - pV1->y * pV2->x;
; 1758 : 
; 1759 :     *pOut = v;

  00044	8b 45 08	 mov	 eax, DWORD PTR _pOut$[ebp]
  00047	66 0f 5a e4	 cvtpd2ps xmm4, xmm4
  0004b	f3 0f 11 65 f4	 movss	 DWORD PTR _v$[ebp], xmm4
  00050	f3 0f 10 21	 movss	 xmm4, DWORD PTR [ecx]
  00054	0f 5a f4	 cvtps2pd xmm6, xmm4
  00057	f2 0f 59 f2	 mulsd	 xmm6, xmm2
  0005b	0f 5a d5	 cvtps2pd xmm2, xmm5
  0005e	f2 0f 59 d1	 mulsd	 xmm2, xmm1
  00062	f2 0f 5c f2	 subsd	 xmm6, xmm2
  00066	66 0f 5a ce	 cvtpd2ps xmm1, xmm6
  0006a	f3 0f 11 4d f8	 movss	 DWORD PTR _v$[ebp+4], xmm1
  0006f	0f 5a c0	 cvtps2pd xmm0, xmm0
  00072	0f 5a d3	 cvtps2pd xmm2, xmm3
  00075	0f 5a cd	 cvtps2pd xmm1, xmm5
  00078	f2 0f 59 ca	 mulsd	 xmm1, xmm2
  0007c	8d 75 f4	 lea	 esi, DWORD PTR _v$[ebp]
  0007f	8b f8		 mov	 edi, eax
  00081	0f 5a d4	 cvtps2pd xmm2, xmm4
  00084	f2 0f 59 d0	 mulsd	 xmm2, xmm0
  00088	f2 0f 5c ca	 subsd	 xmm1, xmm2
  0008c	66 0f 5a c1	 cvtpd2ps xmm0, xmm1
  00090	f3 0f 11 45 fc	 movss	 DWORD PTR _v$[ebp+8], xmm0
  00095	a5		 movsd
  00096	a5		 movsd
  00097	a5		 movsd
  00098	5f		 pop	 edi
  00099	5e		 pop	 esi

; 1760 :     return pOut;
; 1761 : }

  0009a	c9		 leave
  0009b	c3		 ret	 0
?D3DXVec3Cross@@YAPAUD3DXVECTOR3@@PAU1@PBU1@1@Z ENDP	; D3DXVec3Cross
_TEXT	ENDS
PUBLIC	?_DECSTR@@YAXPADH@Z				; _DECSTR
; Function compile flags: /Ogsp
; File d:\lost saga for developer\youtube\tutorial\source\src\lsclient\stringprotect.h
;	COMDAT ?_DECSTR@@YAXPADH@Z
_TEXT	SEGMENT
_s$ = 8							; size = 4
_l$ = 12						; size = 4
?_DECSTR@@YAXPADH@Z PROC				; _DECSTR, COMDAT

; 40   : __forceinline void _DECSTR(char* s, int l){int i=0,l4=(l-1)/4,*p=(int*)s;s[l-1]=0;for(;i<l4;++i)*(p++)^=0xEAEBECED;for(i=l4*4;i<l-1;++i)s[i]^=0xED-i%4;}

  00000	55		 push	 ebp
  00001	8b ec		 mov	 ebp, esp
  00003	8b 4d 0c	 mov	 ecx, DWORD PTR _l$[ebp]
  00006	56		 push	 esi
  00007	8b 75 08	 mov	 esi, DWORD PTR _s$[ebp]
  0000a	57		 push	 edi
  0000b	8d 79 ff	 lea	 edi, DWORD PTR [ecx-1]
  0000e	8b c7		 mov	 eax, edi
  00010	99		 cdq
  00011	83 e2 03	 and	 edx, 3
  00014	03 c2		 add	 eax, edx
  00016	c1 f8 02	 sar	 eax, 2
  00019	8b d6		 mov	 edx, esi
  0001b	c6 44 0e ff 00	 mov	 BYTE PTR [esi+ecx-1], 0
  00020	85 c0		 test	 eax, eax
  00022	7e 0e		 jle	 SHORT $LN4@DECSTR
  00024	8b c8		 mov	 ecx, eax
$LL6@DECSTR:
  00026	81 32 ed ec eb
	ea		 xor	 DWORD PTR [edx], -353637139 ; eaebecedH
  0002c	83 c2 04	 add	 edx, 4
  0002f	49		 dec	 ecx
  00030	75 f4		 jne	 SHORT $LL6@DECSTR
$LN4@DECSTR:
  00032	c1 e0 02	 shl	 eax, 2
  00035	eb 17		 jmp	 SHORT $LN14@DECSTR
$LL3@DECSTR:
  00037	8b c8		 mov	 ecx, eax
  00039	81 e1 03 00 00
	80		 and	 ecx, -2147483645	; 80000003H
  0003f	79 05		 jns	 SHORT $LN13@DECSTR
  00041	49		 dec	 ecx
  00042	83 c9 fc	 or	 ecx, -4			; fffffffcH
  00045	41		 inc	 ecx
$LN13@DECSTR:
  00046	b2 ed		 mov	 dl, -19			; ffffffedH
  00048	2a d1		 sub	 dl, cl
  0004a	30 14 30	 xor	 BYTE PTR [eax+esi], dl
  0004d	40		 inc	 eax
$LN14@DECSTR:
  0004e	3b c7		 cmp	 eax, edi
  00050	7c e5		 jl	 SHORT $LL3@DECSTR
  00052	5f		 pop	 edi
  00053	5e		 pop	 esi
  00054	5d		 pop	 ebp
  00055	c3		 ret	 0
?_DECSTR@@YAXPADH@Z ENDP				; _DECSTR
_TEXT	ENDS
PUBLIC	??_R0?AVioGameEntity@@@8			; ioGameEntity `RTTI Type Descriptor'
PUBLIC	??_R0?AVioPlayEntity@@@8			; ioPlayEntity `RTTI Type Descriptor'
PUBLIC	?ToPlayEntity@@YAPAVioPlayEntity@@PAVioGameEntity@@@Z ; ToPlayEntity
EXTRN	___RTDynamicCast:PROC
;	COMDAT ??_R0?AVioGameEntity@@@8
; File d:\lost saga for developer\youtube\tutorial\source\src\lsclient\ioplayentity.h
_DATA	SEGMENT
??_R0?AVioGameEntity@@@8 DD FLAT:??_7type_info@@6B@	; ioGameEntity `RTTI Type Descriptor'
	DD	00H
	DB	'.?AVioGameEntity@@', 00H
_DATA	ENDS
;	COMDAT ??_R0?AVioPlayEntity@@@8
_DATA	SEGMENT
??_R0?AVioPlayEntity@@@8 DD FLAT:??_7type_info@@6B@	; ioPlayEntity `RTTI Type Descriptor'
	DD	00H
	DB	'.?AVioPlayEntity@@', 00H
; Function compile flags: /Ogsp
_DATA	ENDS
;	COMDAT ?ToPlayEntity@@YAPAVioPlayEntity@@PAVioGameEntity@@@Z
_TEXT	SEGMENT
_pObj$ = 8						; size = 4
?ToPlayEntity@@YAPAVioPlayEntity@@PAVioGameEntity@@@Z PROC ; ToPlayEntity, COMDAT

; 121  : {

  00000	55		 push	 ebp
  00001	8b ec		 mov	 ebp, esp
  00003	56		 push	 esi

; 122  : 	if( !pObj || pObj->GetTypeID() != ioGameEntity::GET_PLAY_ENTITY )

  00004	8b 75 08	 mov	 esi, DWORD PTR _pObj$[ebp]
  00007	85 f6		 test	 esi, esi
  00009	74 25		 je	 SHORT $LN1@ToPlayEnti
  0000b	8b 06		 mov	 eax, DWORD PTR [esi]
  0000d	8b ce		 mov	 ecx, esi
  0000f	ff 50 10	 call	 DWORD PTR [eax+16]
  00012	83 f8 01	 cmp	 eax, 1
  00015	75 19		 jne	 SHORT $LN1@ToPlayEnti

; 124  : 
; 125  : 	return dynamic_cast< ioPlayEntity* >( pObj );

  00017	6a 00		 push	 0
  00019	68 00 00 00 00	 push	 OFFSET ??_R0?AVioPlayEntity@@@8
  0001e	68 00 00 00 00	 push	 OFFSET ??_R0?AVioGameEntity@@@8
  00023	6a 00		 push	 0
  00025	56		 push	 esi
  00026	e8 00 00 00 00	 call	 ___RTDynamicCast
  0002b	83 c4 14	 add	 esp, 20			; 00000014H
  0002e	eb 02		 jmp	 SHORT $LN3@ToPlayEnti
$LN1@ToPlayEnti:

; 123  : 		return NULL;

  00030	33 c0		 xor	 eax, eax
$LN3@ToPlayEnti:
  00032	5e		 pop	 esi

; 126  : }

  00033	5d		 pop	 ebp
  00034	c3		 ret	 0
?ToPlayEntity@@YAPAVioPlayEntity@@PAVioGameEntity@@@Z ENDP ; ToPlayEntity
_TEXT	ENDS
PUBLIC	?GetItemCreateIndex@ioItem@@QBEHXZ		; ioItem::GetItemCreateIndex
; Function compile flags: /Ogsp
; File d:\lost saga for developer\youtube\tutorial\source\src\lsclient\ioitem.h
;	COMDAT ?GetItemCreateIndex@ioItem@@QBEHXZ
_TEXT	SEGMENT
?GetItemCreateIndex@ioItem@@QBEHXZ PROC			; ioItem::GetItemCreateIndex, COMDAT
; _this$ = ecx

; 266  : 	inline int	 GetItemCreateIndex() const { return m_iItemCreateIndex; }

  00000	8b 41 3c	 mov	 eax, DWORD PTR [ecx+60]
  00003	c3		 ret	 0
?GetItemCreateIndex@ioItem@@QBEHXZ ENDP			; ioItem::GetItemCreateIndex
_TEXT	ENDS
PUBLIC	?IsLive@ioWeapon@@QBE_NXZ			; ioWeapon::IsLive
; Function compile flags: /Ogsp
; File d:\lost saga for developer\youtube\tutorial\source\src\lsclient\ioweapon.h
;	COMDAT ?IsLive@ioWeapon@@QBE_NXZ
_TEXT	SEGMENT
?IsLive@ioWeapon@@QBE_NXZ PROC				; ioWeapon::IsLive, COMDAT
; _this$ = ecx

; 533  : 	inline bool IsLive() const { return m_bLive; }

  00000	8a 81 82 05 00
	00		 mov	 al, BYTE PTR [ecx+1410]
  00006	c3		 ret	 0
?IsLive@ioWeapon@@QBE_NXZ ENDP				; ioWeapon::IsLive
_TEXT	ENDS
PUBLIC	?GetParentSceneNode@ioWeapon@@QBEPAVioSceneNode@@XZ ; ioWeapon::GetParentSceneNode
; Function compile flags: /Ogsp
;	COMDAT ?GetParentSceneNode@ioWeapon@@QBEPAVioSceneNode@@XZ
_TEXT	SEGMENT
?GetParentSceneNode@ioWeapon@@QBEPAVioSceneNode@@XZ PROC ; ioWeapon::GetParentSceneNode, COMDAT
; _this$ = ecx

; 797  : 	ioSceneNode* GetParentSceneNode() const { return m_pSceneNode; }

  00000	8b 41 04	 mov	 eax, DWORD PTR [ecx+4]
  00003	c3		 ret	 0
?GetParentSceneNode@ioWeapon@@QBEPAVioSceneNode@@XZ ENDP ; ioWeapon::GetParentSceneNode
_TEXT	ENDS
PUBLIC	?GetName@ioSkill@@QBEABVioHashString@@XZ	; ioSkill::GetName
; Function compile flags: /Ogsp
; File d:\lost saga for developer\youtube\tutorial\source\src\lsclient\ioskill.h
;	COMDAT ?GetName@ioSkill@@QBEABVioHashString@@XZ
_TEXT	SEGMENT
?GetName@ioSkill@@QBEABVioHashString@@XZ PROC		; ioSkill::GetName, COMDAT
; _this$ = ecx

; 414  : 	inline const ioHashString& GetName() const { return m_Name; }

  00000	8d 41 24	 lea	 eax, DWORD PTR [ecx+36]
  00003	c3		 ret	 0
?GetName@ioSkill@@QBEABVioHashString@@XZ ENDP		; ioSkill::GetName
_TEXT	ENDS
PUBLIC	?DecryptValueToPool@?$CEncrypt@_N@@QAEXPA_N@Z	; CEncrypt<bool>::DecryptValueToPool
EXTRN	?DecryptByte@ccddaabb@@QBEXPBDPADH@Z:PROC	; ccddaabb::DecryptByte
; Function compile flags: /Ogsp
; File d:\lost saga for developer\youtube\tutorial\source\src\lsclient\encryptvalue.h
;	COMDAT ?DecryptValueToPool@?$CEncrypt@_N@@QAEXPA_N@Z
_TEXT	SEGMENT
_value$ = 8						; size = 4
?DecryptValueToPool@?$CEncrypt@_N@@QAEXPA_N@Z PROC	; CEncrypt<bool>::DecryptValueToPool, COMDAT
; _this$ = ecx

; 219  : 	{

  00000	55		 push	 ebp
  00001	8b ec		 mov	 ebp, esp
  00003	56		 push	 esi

; 220  : 		m_RC5.DecryptByte( m_MemPool, m_TempMem, 4 );

  00004	8d 71 28	 lea	 esi, DWORD PTR [ecx+40]
  00007	6a 04		 push	 4
  00009	8d 41 1c	 lea	 eax, DWORD PTR [ecx+28]
  0000c	56		 push	 esi
  0000d	50		 push	 eax
  0000e	83 c1 0c	 add	 ecx, 12			; 0000000cH
  00011	e8 00 00 00 00	 call	 ?DecryptByte@ccddaabb@@QBEXPBDPADH@Z ; ccddaabb::DecryptByte

; 221  : 		*value = *((bool*)m_TempMem);

  00016	8a 06		 mov	 al, BYTE PTR [esi]
  00018	8b 4d 08	 mov	 ecx, DWORD PTR _value$[ebp]
  0001b	88 01		 mov	 BYTE PTR [ecx], al
  0001d	5e		 pop	 esi

; 222  : 	}

  0001e	5d		 pop	 ebp
  0001f	c2 04 00	 ret	 4
?DecryptValueToPool@?$CEncrypt@_N@@QAEXPA_N@Z ENDP	; CEncrypt<bool>::DecryptValueToPool
_TEXT	ENDS
PUBLIC	??_R0?AVioBaseChar@@@8				; ioBaseChar `RTTI Type Descriptor'
PUBLIC	?ToBaseChar@@YAPAVioBaseChar@@PAVioGameEntity@@@Z ; ToBaseChar
;	COMDAT ??_R0?AVioBaseChar@@@8
; File d:\lost saga for developer\youtube\tutorial\source\src\lsclient\iobasechar.h
_DATA	SEGMENT
??_R0?AVioBaseChar@@@8 DD FLAT:??_7type_info@@6B@	; ioBaseChar `RTTI Type Descriptor'
	DD	00H
	DB	'.?AVioBaseChar@@', 00H
; Function compile flags: /Ogsp
_DATA	ENDS
;	COMDAT ?ToBaseChar@@YAPAVioBaseChar@@PAVioGameEntity@@@Z
_TEXT	SEGMENT
_pObj$ = 8						; size = 4
?ToBaseChar@@YAPAVioBaseChar@@PAVioGameEntity@@@Z PROC	; ToBaseChar, COMDAT

; 4326 : {

  00000	55		 push	 ebp
  00001	8b ec		 mov	 ebp, esp
  00003	56		 push	 esi

; 4327 : 	ioPlayEntity *pPlay = ToPlayEntity( pObj );

  00004	ff 75 08	 push	 DWORD PTR _pObj$[ebp]
  00007	e8 00 00 00 00	 call	 ?ToPlayEntity@@YAPAVioPlayEntity@@PAVioGameEntity@@@Z ; ToPlayEntity
  0000c	8b f0		 mov	 esi, eax
  0000e	59		 pop	 ecx

; 4328 : 	if( !pPlay || pPlay->GetSubType() != ioPlayEntity::PST_CHAR )

  0000f	85 f6		 test	 esi, esi
  00011	74 25		 je	 SHORT $LN1@ToBaseChar
  00013	8b 06		 mov	 eax, DWORD PTR [esi]
  00015	8b ce		 mov	 ecx, esi
  00017	ff 90 a4 00 00
	00		 call	 DWORD PTR [eax+164]
  0001d	85 c0		 test	 eax, eax
  0001f	75 17		 jne	 SHORT $LN1@ToBaseChar

; 4330 : 
; 4331 : 	return dynamic_cast< ioBaseChar* >( pPlay );

  00021	50		 push	 eax
  00022	68 00 00 00 00	 push	 OFFSET ??_R0?AVioBaseChar@@@8
  00027	68 00 00 00 00	 push	 OFFSET ??_R0?AVioPlayEntity@@@8
  0002c	50		 push	 eax
  0002d	56		 push	 esi
  0002e	e8 00 00 00 00	 call	 ___RTDynamicCast
  00033	83 c4 14	 add	 esp, 20			; 00000014H
  00036	eb 02		 jmp	 SHORT $LN3@ToBaseChar
$LN1@ToBaseChar:

; 4329 : 		return NULL;

  00038	33 c0		 xor	 eax, eax
$LN3@ToBaseChar:
  0003a	5e		 pop	 esi

; 4332 : }

  0003b	5d		 pop	 ebp
  0003c	c3		 ret	 0
?ToBaseChar@@YAPAVioBaseChar@@PAVioGameEntity@@@Z ENDP	; ToBaseChar
_TEXT	ENDS
PUBLIC	??0ioRotationWeapon@@QAE@PAVioBaseChar@@PBUWeaponAttribute@@@Z ; ioRotationWeapon::ioRotationWeapon
EXTRN	?SetPeculiarity@ioWeapon@@QAEXK@Z:PROC		; ioWeapon::SetPeculiarity
EXTRN	??0ioWeapon@@QAE@PAVioBaseChar@@PBUWeaponAttribute@@@Z:PROC ; ioWeapon::ioWeapon
;	COMDAT xdata$x
; File c:\program files (x86)\microsoft directx sdk (june 2010)\include\d3dx9math.h
xdata$x	SEGMENT
__unwindtable$??0ioRotationWeapon@@QAE@PAVioBaseChar@@PBUWeaponAttribute@@@Z DD 0ffffffffH
	DD	FLAT:__unwindfunclet$??0ioRotationWeapon@@QAE@PAVioBaseChar@@PBUWeaponAttribute@@@Z$0
__ehfuncinfo$??0ioRotationWeapon@@QAE@PAVioBaseChar@@PBUWeaponAttribute@@@Z DD 019930522H
	DD	01H
	DD	FLAT:__unwindtable$??0ioRotationWeapon@@QAE@PAVioBaseChar@@PBUWeaponAttribute@@@Z
	DD	2 DUP(00H)
	DD	2 DUP(00H)
	DD	00H
	DD	01H
; Function compile flags: /Ogsp
; File d:\lost saga for developer\youtube\tutorial\source\src\lsclient\iorotationweapon.cpp
xdata$x	ENDS
;	COMDAT ??0ioRotationWeapon@@QAE@PAVioBaseChar@@PBUWeaponAttribute@@@Z
_TEXT	SEGMENT
_this$ = -16						; size = 4
__$EHRec$ = -12						; size = 12
_pOwner$ = 8						; size = 4
_pAttr$ = 12						; size = 4
??0ioRotationWeapon@@QAE@PAVioBaseChar@@PBUWeaponAttribute@@@Z PROC ; ioRotationWeapon::ioRotationWeapon, COMDAT
; _this$ = ecx

; 14   : {

  00000	6a 04		 push	 4
  00002	b8 00 00 00 00	 mov	 eax, __ehhandler$??0ioRotationWeapon@@QAE@PAVioBaseChar@@PBUWeaponAttribute@@@Z
  00007	e8 00 00 00 00	 call	 __EH_prolog3
  0000c	8b f1		 mov	 esi, ecx
  0000e	89 75 f0	 mov	 DWORD PTR _this$[ebp], esi
  00011	ff 75 0c	 push	 DWORD PTR _pAttr$[ebp]
  00014	ff 75 08	 push	 DWORD PTR _pOwner$[ebp]
  00017	e8 00 00 00 00	 call	 ??0ioWeapon@@QAE@PAVioBaseChar@@PBUWeaponAttribute@@@Z ; ioWeapon::ioWeapon
  0001c	33 db		 xor	 ebx, ebx

; 15   : 	SetPeculiarity( WP_ONE_TIME_USE | WP_MISSILE_WEAPON | WP_DIVIDE_ACTION );

  0001e	68 03 01 00 00	 push	 259			; 00000103H
  00023	8b ce		 mov	 ecx, esi
  00025	89 5d fc	 mov	 DWORD PTR __$EHRec$[ebp+8], ebx
  00028	c7 06 00 00 00
	00		 mov	 DWORD PTR [esi], OFFSET ??_7ioRotationWeapon@@6B@
  0002e	e8 00 00 00 00	 call	 ?SetPeculiarity@ioWeapon@@QAEXK@Z ; ioWeapon::SetPeculiarity

; 16   : 
; 17   : 	m_pFireBall = NULL;

  00033	89 9e 94 08 00
	00		 mov	 DWORD PTR [esi+2196], ebx

; 18   : 
; 19   : 	m_iCreateItemIndex = 0;

  00039	89 9e 98 08 00
	00		 mov	 DWORD PTR [esi+2200], ebx

; 20   : 
; 21   : 	m_bEnableDownState = false;

  0003f	66 89 9e d5 08
	00 00		 mov	 WORD PTR [esi+2261], bx

; 22   : 	m_bRemoveByWoundState = false;
; 23   : 
; 24   : 	m_bSetGraceClose = false;

  00046	66 c7 86 d8 08
	00 00 00 01	 mov	 WORD PTR [esi+2264], 256 ; 00000100H

; 25   : 	m_bFirst = true;
; 26   : }

  0004f	8b c6		 mov	 eax, esi
  00051	e8 00 00 00 00	 call	 __EH_epilog3
  00056	c2 08 00	 ret	 8
_TEXT	ENDS
;	COMDAT text$x
text$x	SEGMENT
__unwindfunclet$??0ioRotationWeapon@@QAE@PAVioBaseChar@@PBUWeaponAttribute@@@Z$0:
  00000	8b 4d f0	 mov	 ecx, DWORD PTR _this$[ebp]
  00003	e9 00 00 00 00	 jmp	 ??1ioWeapon@@UAE@XZ	; ioWeapon::~ioWeapon
__ehhandler$??0ioRotationWeapon@@QAE@PAVioBaseChar@@PBUWeaponAttribute@@@Z:
  00008	8b 54 24 08	 mov	 edx, DWORD PTR [esp+8]
  0000c	8d 42 0c	 lea	 eax, DWORD PTR [edx+12]
  0000f	8b 4a ec	 mov	 ecx, DWORD PTR [edx-20]
  00012	33 c8		 xor	 ecx, eax
  00014	e8 00 00 00 00	 call	 @__security_check_cookie@4
  00019	b8 00 00 00 00	 mov	 eax, OFFSET __ehfuncinfo$??0ioRotationWeapon@@QAE@PAVioBaseChar@@PBUWeaponAttribute@@@Z
  0001e	e9 00 00 00 00	 jmp	 ___CxxFrameHandler3
text$x	ENDS
??0ioRotationWeapon@@QAE@PAVioBaseChar@@PBUWeaponAttribute@@@Z ENDP ; ioRotationWeapon::ioRotationWeapon
EXTRN	??3@YAXPAX@Z:PROC				; operator delete
; Function compile flags: /Ogsp
;	COMDAT ??_GioRotationWeapon@@UAEPAXI@Z
_TEXT	SEGMENT
___flags$ = 8						; size = 4
??_GioRotationWeapon@@UAEPAXI@Z PROC			; ioRotationWeapon::`scalar deleting destructor', COMDAT
; _this$ = ecx
  00000	55		 push	 ebp
  00001	8b ec		 mov	 ebp, esp
  00003	56		 push	 esi
  00004	8b f1		 mov	 esi, ecx
  00006	e8 00 00 00 00	 call	 ??1ioRotationWeapon@@UAE@XZ ; ioRotationWeapon::~ioRotationWeapon
  0000b	f6 45 08 01	 test	 BYTE PTR ___flags$[ebp], 1
  0000f	74 07		 je	 SHORT $LN1@scalar
  00011	56		 push	 esi
  00012	e8 00 00 00 00	 call	 ??3@YAXPAX@Z		; operator delete
  00017	59		 pop	 ecx
$LN1@scalar:
  00018	8b c6		 mov	 eax, esi
  0001a	5e		 pop	 esi
  0001b	5d		 pop	 ebp
  0001c	c2 04 00	 ret	 4
??_GioRotationWeapon@@UAEPAXI@Z ENDP			; ioRotationWeapon::`scalar deleting destructor'
_TEXT	ENDS
PUBLIC	?CreateFireBall@ioRotationWeapon@@IAE_NABVioHashString@@@Z ; ioRotationWeapon::CreateFireBall
EXTRN	__imp_?CreateEffect@ioEffectFactory@@QAEPAVioEffect@@ABVioHashString@@@Z:PROC
; Function compile flags: /Ogsp
;	COMDAT ?CreateFireBall@ioRotationWeapon@@IAE_NABVioHashString@@@Z
_TEXT	SEGMENT
_szFileName$ = 8					; size = 4
?CreateFireBall@ioRotationWeapon@@IAE_NABVioHashString@@@Z PROC ; ioRotationWeapon::CreateFireBall, COMDAT
; _this$ = ecx

; 65   : {

  00000	55		 push	 ebp
  00001	8b ec		 mov	 ebp, esp
  00003	56		 push	 esi
  00004	8b f1		 mov	 esi, ecx

; 66   : 	ioBaseChar *pOwner = GetOwner();

  00006	e8 00 00 00 00	 call	 ?GetOwner@ioWeapon@@QBEPAVioBaseChar@@XZ ; ioWeapon::GetOwner

; 67   : 	if( !pOwner )	return false;

  0000b	85 c0		 test	 eax, eax
  0000d	75 04		 jne	 SHORT $LN2@CreateFire
$LN9@CreateFire:
  0000f	32 c0		 xor	 al, al
  00011	eb 3c		 jmp	 SHORT $LN3@CreateFire
$LN2@CreateFire:

; 68   : 
; 69   : 	m_pFireBall = g_EffectFactory.CreateEffect( szFileName );

  00013	ff 75 08	 push	 DWORD PTR _szFileName$[ebp]
  00016	ff 15 00 00 00
	00		 call	 DWORD PTR __imp_?GetSingleton@ioEffectFactory@@SAAAV1@XZ
  0001c	8b c8		 mov	 ecx, eax
  0001e	ff 15 00 00 00
	00		 call	 DWORD PTR __imp_?CreateEffect@ioEffectFactory@@QAEPAVioEffect@@ABVioHashString@@@Z
  00024	89 86 94 08 00
	00		 mov	 DWORD PTR [esi+2196], eax

; 70   : 	if( !m_pFireBall )	return false;

  0002a	85 c0		 test	 eax, eax
  0002c	74 e1		 je	 SHORT $LN9@CreateFire

; 71   : 
; 72   : 	GetParentSceneNode()->AttachObject( m_pFireBall );

  0002e	8b 4e 04	 mov	 ecx, DWORD PTR [esi+4]
  00031	8b 11		 mov	 edx, DWORD PTR [ecx]
  00033	83 c0 14	 add	 eax, 20			; 00000014H
  00036	50		 push	 eax
  00037	ff 92 ac 00 00
	00		 call	 DWORD PTR [edx+172]

; 73   : 
; 74   : 	AddEffectEvent( m_pFireBall );

  0003d	ff b6 94 08 00
	00		 push	 DWORD PTR [esi+2196]
  00043	8b 06		 mov	 eax, DWORD PTR [esi]
  00045	8b ce		 mov	 ecx, esi
  00047	ff 90 68 01 00
	00		 call	 DWORD PTR [eax+360]

; 75   : 	return true;

  0004d	b0 01		 mov	 al, 1
$LN3@CreateFire:
  0004f	5e		 pop	 esi

; 76   : }

  00050	5d		 pop	 ebp
  00051	c2 04 00	 ret	 4
?CreateFireBall@ioRotationWeapon@@IAE_NABVioHashString@@@Z ENDP ; ioRotationWeapon::CreateFireBall
_TEXT	ENDS
PUBLIC	__real@4f800000
PUBLIC	_vPos$GSCopy$
EXTRN	?GetMidPositionByRate@ioGameEntity@@QBE?AUD3DXVECTOR3@@M@Z:PROC ; ioGameEntity::GetMidPositionByRate
EXTRN	?SetPosition@ioWeapon@@QAEXABUD3DXVECTOR3@@@Z:PROC ; ioWeapon::SetPosition
EXTRN	__imp_??1ioHashString@@QAE@XZ:PROC
EXTRN	__imp_?HasLinkedSystem@ioEffect@@QBE_NXZ:PROC
EXTRN	__imp_?IsEmpty@ioHashString@@QBE_NXZ:PROC
EXTRN	__imp_?GetSkeletonName@ioEffect@@QBE?AVioHashString@@XZ:PROC
EXTRN	__EH_epilog3_GS:PROC
EXTRN	__EH_prolog3_GS:PROC
;	COMDAT __real@4f800000
; File d:\lost saga for developer\youtube\tutorial\source\src\lsclient\iobasechar.h
CONST	SEGMENT
__real@4f800000 DD 04f800000r			; 4.29497e+009
CONST	ENDS
;	COMDAT xdata$x
xdata$x	SEGMENT
__unwindtable$?SetStartPosition@ioRotationWeapon@@UAEXABUD3DXVECTOR3@@PAVioPlayStage@@@Z DD 0ffffffffH
	DD	FLAT:__unwindfunclet$?SetStartPosition@ioRotationWeapon@@UAEXABUD3DXVECTOR3@@PAVioPlayStage@@@Z$0
__ehfuncinfo$?SetStartPosition@ioRotationWeapon@@UAEXABUD3DXVECTOR3@@PAVioPlayStage@@@Z DD 019930522H
	DD	01H
	DD	FLAT:__unwindtable$?SetStartPosition@ioRotationWeapon@@UAEXABUD3DXVECTOR3@@PAVioPlayStage@@@Z
	DD	2 DUP(00H)
	DD	2 DUP(00H)
	DD	00H
	DD	01H
; Function compile flags: /Ogsp
; File d:\lost saga for developer\youtube\tutorial\source\src\lsclient\iorotationweapon.cpp
xdata$x	ENDS
;	COMDAT ?SetStartPosition@ioRotationWeapon@@UAEXABUD3DXVECTOR3@@PAVioPlayStage@@@Z
_TEXT	SEGMENT
$T525504 = -60						; size = 16
_pOwner$ = -44						; size = 4
_vPos$GSCopy$ = -40					; size = 4
tv363 = -36						; size = 4
tv359 = -36						; size = 4
tv355 = -36						; size = 4
$T525507 = -36						; size = 4
$T525503 = -29						; size = 1
$T523860 = -28						; size = 12
$T523859 = -28						; size = 12
__$EHRec$ = -12						; size = 12
_vPos$ = 8						; size = 4
_pStage$ = 12						; size = 4
?SetStartPosition@ioRotationWeapon@@UAEXABUD3DXVECTOR3@@PAVioPlayStage@@@Z PROC ; ioRotationWeapon::SetStartPosition, COMDAT
; _this$ = ecx

; 79   : {

  00000	6a 30		 push	 48			; 00000030H
  00002	b8 00 00 00 00	 mov	 eax, __ehhandler$?SetStartPosition@ioRotationWeapon@@UAEXABUD3DXVECTOR3@@PAVioPlayStage@@@Z
  00007	e8 00 00 00 00	 call	 __EH_prolog3_GS
  0000c	83 65 dc 00	 and	 DWORD PTR $T525507[ebp], 0
  00010	8b 75 08	 mov	 esi, DWORD PTR _vPos$[ebp]
  00013	8b d9		 mov	 ebx, ecx

; 80   : 	if( m_pFireBall && m_pFireBall->GetSkeletonName().IsEmpty() && m_pFireBall->HasLinkedSystem() )

  00015	8b 8b 94 08 00
	00		 mov	 ecx, DWORD PTR [ebx+2196]

; 87   : 		return;
; 88   : 
; 89   : 	m_vOwnerPos = pOwner->GetMidPositionByRate();

  0001b	89 75 d8	 mov	 DWORD PTR _vPos$GSCopy$[ebp], esi
  0001e	85 c9		 test	 ecx, ecx
  00020	74 35		 je	 SHORT $LN5@SetStartPo

; 80   : 	if( m_pFireBall && m_pFireBall->GetSkeletonName().IsEmpty() && m_pFireBall->HasLinkedSystem() )

  00022	8d 45 c4	 lea	 eax, DWORD PTR $T525504[ebp]
  00025	50		 push	 eax
  00026	ff 15 00 00 00
	00		 call	 DWORD PTR __imp_?GetSkeletonName@ioEffect@@QBE?AVioHashString@@XZ
  0002c	83 65 fc 00	 and	 DWORD PTR __$EHRec$[ebp+8], 0
  00030	8b c8		 mov	 ecx, eax
  00032	c7 45 dc 01 00
	00 00		 mov	 DWORD PTR $T525507[ebp], 1
  00039	ff 15 00 00 00
	00		 call	 DWORD PTR __imp_?IsEmpty@ioHashString@@QBE_NXZ
  0003f	84 c0		 test	 al, al
  00041	74 14		 je	 SHORT $LN5@SetStartPo
  00043	8b 8b 94 08 00
	00		 mov	 ecx, DWORD PTR [ebx+2196]
  00049	ff 15 00 00 00
	00		 call	 DWORD PTR __imp_?HasLinkedSystem@ioEffect@@QBE_NXZ
  0004f	c6 45 e3 01	 mov	 BYTE PTR $T525503[ebp], 1
  00053	84 c0		 test	 al, al
  00055	75 04		 jne	 SHORT $LN6@SetStartPo
$LN5@SetStartPo:
  00057	c6 45 e3 00	 mov	 BYTE PTR $T525503[ebp], 0
$LN6@SetStartPo:
  0005b	83 4d fc ff	 or	 DWORD PTR __$EHRec$[ebp+8], -1
  0005f	f6 45 dc 01	 test	 BYTE PTR $T525507[ebp], 1
  00063	74 09		 je	 SHORT $LN9@SetStartPo
  00065	8d 4d c4	 lea	 ecx, DWORD PTR $T525504[ebp]
  00068	ff 15 00 00 00
	00		 call	 DWORD PTR __imp_??1ioHashString@@QAE@XZ
$LN9@SetStartPo:
  0006e	80 7d e3 00	 cmp	 BYTE PTR $T525503[ebp], 0
  00072	0f 85 f4 00 00
	00		 jne	 $LN3@SetStartPo

; 81   : 		return;
; 82   : 
; 83   : 	SetPosition( vPos );

  00078	56		 push	 esi
  00079	8b cb		 mov	 ecx, ebx
  0007b	e8 00 00 00 00	 call	 ?SetPosition@ioWeapon@@QAEXABUD3DXVECTOR3@@@Z ; ioWeapon::SetPosition

; 84   : 
; 85   : 	ioBaseChar *pOwner = GetOwner();

  00080	8b cb		 mov	 ecx, ebx
  00082	e8 00 00 00 00	 call	 ?GetOwner@ioWeapon@@QBEPAVioBaseChar@@XZ ; ioWeapon::GetOwner
  00087	8b c8		 mov	 ecx, eax
  00089	89 4d d4	 mov	 DWORD PTR _pOwner$[ebp], ecx

; 86   : 	if( !pOwner )

  0008c	85 c9		 test	 ecx, ecx
  0008e	0f 84 d8 00 00
	00		 je	 $LN3@SetStartPo

; 87   : 		return;
; 88   : 
; 89   : 	m_vOwnerPos = pOwner->GetMidPositionByRate();

  00094	b8 05 00 00 00	 mov	 eax, 5
  00099	8b d0		 mov	 edx, eax
  0009b	b8 0a 00 00 00	 mov	 eax, 10			; 0000000aH
  000a0	89 55 dc	 mov	 DWORD PTR tv363[ebp], edx
  000a3	db 45 dc	 fild	 DWORD PTR tv363[ebp]
  000a6	85 d2		 test	 edx, edx
  000a8	79 06		 jns	 SHORT $LN22@SetStartPo
  000aa	d8 05 00 00 00
	00		 fadd	 DWORD PTR __real@4f800000
$LN22@SetStartPo:
  000b0	89 45 dc	 mov	 DWORD PTR tv359[ebp], eax
  000b3	db 45 dc	 fild	 DWORD PTR tv359[ebp]
  000b6	85 c0		 test	 eax, eax
  000b8	79 06		 jns	 SHORT $LN23@SetStartPo
  000ba	d8 05 00 00 00
	00		 fadd	 DWORD PTR __real@4f800000
$LN23@SetStartPo:
  000c0	de f9		 fdivp	 ST(1), ST(0)
  000c2	51		 push	 ecx
  000c3	8d 45 e4	 lea	 eax, DWORD PTR $T523859[ebp]
  000c6	d9 5d dc	 fstp	 DWORD PTR tv355[ebp]
  000c9	d9 45 dc	 fld	 DWORD PTR tv355[ebp]
  000cc	d9 1c 24	 fstp	 DWORD PTR [esp]
  000cf	50		 push	 eax
  000d0	e8 00 00 00 00	 call	 ?GetMidPositionByRate@ioGameEntity@@QBE?AUD3DXVECTOR3@@M@Z ; ioGameEntity::GetMidPositionByRate
  000d5	8b f0		 mov	 esi, eax
  000d7	8d bb b0 08 00
	00		 lea	 edi, DWORD PTR [ebx+2224]
  000dd	a5		 movsd
  000de	a5		 movsd
  000df	a5		 movsd

; 90   : 	m_vCenterPos = m_vOwnerPos;

  000e0	8b f0		 mov	 esi, eax

; 91   : 	m_vDiffPos = vPos - m_vOwnerPos;

  000e2	8b 45 d8	 mov	 eax, DWORD PTR _vPos$GSCopy$[ebp]
  000e5	8d bb c8 08 00
	00		 lea	 edi, DWORD PTR [ebx+2248]
  000eb	a5		 movsd
  000ec	a5		 movsd
  000ed	a5		 movsd
  000ee	f3 0f 10 00	 movss	 xmm0, DWORD PTR [eax]
  000f2	f3 0f 10 8b b0
	08 00 00	 movss	 xmm1, DWORD PTR [ebx+2224]
  000fa	0f 5a c0	 cvtps2pd xmm0, xmm0
  000fd	0f 5a c9	 cvtps2pd xmm1, xmm1
  00100	f2 0f 5c c1	 subsd	 xmm0, xmm1
  00104	f3 0f 10 8b b4
	08 00 00	 movss	 xmm1, DWORD PTR [ebx+2228]
  0010c	66 0f 5a c0	 cvtpd2ps xmm0, xmm0
  00110	f3 0f 11 45 e4	 movss	 DWORD PTR $T523860[ebp], xmm0
  00115	f3 0f 10 40 04	 movss	 xmm0, DWORD PTR [eax+4]
  0011a	0f 5a c0	 cvtps2pd xmm0, xmm0
  0011d	0f 5a c9	 cvtps2pd xmm1, xmm1
  00120	f2 0f 5c c1	 subsd	 xmm0, xmm1
  00124	f3 0f 10 8b b8
	08 00 00	 movss	 xmm1, DWORD PTR [ebx+2232]
  0012c	66 0f 5a c0	 cvtpd2ps xmm0, xmm0
  00130	f3 0f 11 45 e8	 movss	 DWORD PTR $T523860[ebp+4], xmm0
  00135	f3 0f 10 40 08	 movss	 xmm0, DWORD PTR [eax+8]
  0013a	0f 5a c0	 cvtps2pd xmm0, xmm0
  0013d	0f 5a c9	 cvtps2pd xmm1, xmm1
  00140	f2 0f 5c c1	 subsd	 xmm0, xmm1
  00144	66 0f 5a c0	 cvtpd2ps xmm0, xmm0
  00148	f3 0f 11 45 ec	 movss	 DWORD PTR $T523860[ebp+8], xmm0
  0014d	8d bb bc 08 00
	00		 lea	 edi, DWORD PTR [ebx+2236]
  00153	8d 75 e4	 lea	 esi, DWORD PTR $T523860[ebp]
  00156	a5		 movsd
  00157	a5		 movsd
  00158	a5		 movsd

; 92   : 	
; 93   : 	m_qtStartRot = pOwner->GetTargetRot();

  00159	8b 75 d4	 mov	 esi, DWORD PTR _pOwner$[ebp]
  0015c	81 c6 a4 06 00
	00		 add	 esi, 1700		; 000006a4H
  00162	8d bb a0 08 00
	00		 lea	 edi, DWORD PTR [ebx+2208]
  00168	a5		 movsd
  00169	a5		 movsd
  0016a	a5		 movsd
  0016b	a5		 movsd
$LN3@SetStartPo:

; 94   : }

  0016c	e8 00 00 00 00	 call	 __EH_epilog3_GS
  00171	c2 08 00	 ret	 8
_TEXT	ENDS
;	COMDAT text$x
text$x	SEGMENT
__unwindfunclet$?SetStartPosition@ioRotationWeapon@@UAEXABUD3DXVECTOR3@@PAVioPlayStage@@@Z$0:
  00000	8b 45 dc	 mov	 eax, DWORD PTR $T525507[ebp]
  00003	83 e0 01	 and	 eax, 1
  00006	0f 84 0d 00 00
	00		 je	 $LN8@SetStartPo
  0000c	83 65 dc fe	 and	 DWORD PTR $T525507[ebp], -2 ; fffffffeH
  00010	8d 4d c4	 lea	 ecx, DWORD PTR $T525504[ebp]
  00013	ff 25 00 00 00
	00		 jmp	 DWORD PTR __imp_??1ioHashString@@QAE@XZ
$LN8@SetStartPo:
  00019	c3		 ret	 0
__ehhandler$?SetStartPosition@ioRotationWeapon@@UAEXABUD3DXVECTOR3@@PAVioPlayStage@@@Z:
  0001a	8b 54 24 08	 mov	 edx, DWORD PTR [esp+8]
  0001e	8d 42 0c	 lea	 eax, DWORD PTR [edx+12]
  00021	8b 4a c0	 mov	 ecx, DWORD PTR [edx-64]
  00024	33 c8		 xor	 ecx, eax
  00026	e8 00 00 00 00	 call	 @__security_check_cookie@4
  0002b	8b 4a fc	 mov	 ecx, DWORD PTR [edx-4]
  0002e	33 c8		 xor	 ecx, eax
  00030	e8 00 00 00 00	 call	 @__security_check_cookie@4
  00035	b8 00 00 00 00	 mov	 eax, OFFSET __ehfuncinfo$?SetStartPosition@ioRotationWeapon@@UAEXABUD3DXVECTOR3@@PAVioPlayStage@@@Z
  0003a	e9 00 00 00 00	 jmp	 ___CxxFrameHandler3
text$x	ENDS
?SetStartPosition@ioRotationWeapon@@UAEXABUD3DXVECTOR3@@PAVioPlayStage@@@Z ENDP ; ioRotationWeapon::SetStartPosition
PUBLIC	__$ArrayPad$
EXTRN	?SetOrientation@ioWeapon@@QAEXABUD3DXQUATERNION@@@Z:PROC ; ioWeapon::SetOrientation
EXTRN	__imp_?CalcDirectionQuaternion@ioMath@@SAXAAUD3DXQUATERNION@@ABUD3DXVECTOR3@@@Z:PROC
EXTRN	___security_cookie:DWORD
; Function compile flags: /Ogsp
;	COMDAT ?SetMoveDir@ioRotationWeapon@@UAEXABUD3DXVECTOR3@@@Z
_TEXT	SEGMENT
_qtRot$ = -32						; size = 16
$T523866 = -16						; size = 12
__$ArrayPad$ = -4					; size = 4
_vDir$ = 8						; size = 4
?SetMoveDir@ioRotationWeapon@@UAEXABUD3DXVECTOR3@@@Z PROC ; ioRotationWeapon::SetMoveDir, COMDAT
; _this$ = ecx

; 97   : {

  00000	55		 push	 ebp
  00001	8b ec		 mov	 ebp, esp
  00003	83 ec 20	 sub	 esp, 32			; 00000020H
  00006	a1 00 00 00 00	 mov	 eax, DWORD PTR ___security_cookie
  0000b	33 c5		 xor	 eax, ebp
  0000d	89 45 fc	 mov	 DWORD PTR __$ArrayPad$[ebp], eax
  00010	8b 45 08	 mov	 eax, DWORD PTR _vDir$[ebp]

; 98   : 	D3DXQUATERNION qtRot;
; 99   : 	ioMath::CalcDirectionQuaternion( qtRot, -vDir );

  00013	f3 0f 10 08	 movss	 xmm1, DWORD PTR [eax]
  00017	f3 0f 10 05 00
	00 00 00	 movss	 xmm0, DWORD PTR __mask@@NegFloat@
  0001f	0f 57 c8	 xorps	 xmm1, xmm0
  00022	f3 0f 11 4d f0	 movss	 DWORD PTR $T523866[ebp], xmm1
  00027	f3 0f 10 48 04	 movss	 xmm1, DWORD PTR [eax+4]
  0002c	0f 57 c8	 xorps	 xmm1, xmm0
  0002f	f3 0f 11 4d f4	 movss	 DWORD PTR $T523866[ebp+4], xmm1
  00034	f3 0f 10 48 08	 movss	 xmm1, DWORD PTR [eax+8]
  00039	56		 push	 esi
  0003a	8d 45 f0	 lea	 eax, DWORD PTR $T523866[ebp]
  0003d	50		 push	 eax
  0003e	8d 45 e0	 lea	 eax, DWORD PTR _qtRot$[ebp]
  00041	0f 57 c8	 xorps	 xmm1, xmm0
  00044	50		 push	 eax
  00045	8b f1		 mov	 esi, ecx
  00047	f3 0f 11 4d f8	 movss	 DWORD PTR $T523866[ebp+8], xmm1
  0004c	ff 15 00 00 00
	00		 call	 DWORD PTR __imp_?CalcDirectionQuaternion@ioMath@@SAXAAUD3DXQUATERNION@@ABUD3DXVECTOR3@@@Z
  00052	59		 pop	 ecx
  00053	59		 pop	 ecx

; 100  : 	SetOrientation( qtRot );

  00054	8d 45 e0	 lea	 eax, DWORD PTR _qtRot$[ebp]
  00057	50		 push	 eax
  00058	8b ce		 mov	 ecx, esi
  0005a	e8 00 00 00 00	 call	 ?SetOrientation@ioWeapon@@QAEXABUD3DXQUATERNION@@@Z ; ioWeapon::SetOrientation

; 101  : }

  0005f	8b 4d fc	 mov	 ecx, DWORD PTR __$ArrayPad$[ebp]
  00062	33 cd		 xor	 ecx, ebp
  00064	5e		 pop	 esi
  00065	e8 00 00 00 00	 call	 @__security_check_cookie@4
  0006a	c9		 leave
  0006b	c2 04 00	 ret	 4
?SetMoveDir@ioRotationWeapon@@UAEXABUD3DXVECTOR3@@@Z ENDP ; ioRotationWeapon::SetMoveDir
_TEXT	ENDS
PUBLIC	__real@00000000
PUBLIC	__$ArrayPad$
EXTRN	_D3DXVec3Normalize@8:PROC
EXTRN	__imp_??D@YA?AUD3DXVECTOR3@@ABUD3DXQUATERNION@@ABU0@@Z:PROC
;	COMDAT __real@00000000
; File d:\lost saga for developer\youtube\tutorial\source\src\lsclient\iobasechar.h
CONST	SEGMENT
__real@00000000 DD 000000000r			; 0
; Function compile flags: /Ogsp
; File d:\lost saga for developer\youtube\tutorial\source\src\lsclient\iorotationweapon.cpp
CONST	ENDS
;	COMDAT ?GetAttackDir@ioRotationWeapon@@UBE?AUD3DXVECTOR3@@PBVioPlayEntity@@@Z
_TEXT	SEGMENT
tv353 = -32						; size = 4
tv325 = -32						; size = 4
$T523961 = -28						; size = 12
$T523955 = -28						; size = 12
_v$525592 = -16						; size = 12
$T523960 = -16						; size = 12
__$ArrayPad$ = -4					; size = 4
___$ReturnUdt$ = 8					; size = 4
_pEntity$ = 12						; size = 4
?GetAttackDir@ioRotationWeapon@@UBE?AUD3DXVECTOR3@@PBVioPlayEntity@@@Z PROC ; ioRotationWeapon::GetAttackDir, COMDAT
; _this$ = ecx

; 263  : {

  00000	55		 push	 ebp
  00001	8b ec		 mov	 ebp, esp
  00003	83 ec 20	 sub	 esp, 32			; 00000020H
  00006	a1 00 00 00 00	 mov	 eax, DWORD PTR ___security_cookie
  0000b	33 c5		 xor	 eax, ebp
  0000d	89 45 fc	 mov	 DWORD PTR __$ArrayPad$[ebp], eax

; 264  : 	D3DXVECTOR3 vAttackDir;
; 265  : 
; 266  : 	if( m_fRotationTime > 0.0f )

  00010	f3 0f 10 81 9c
	08 00 00	 movss	 xmm0, DWORD PTR [ecx+2204]
  00018	0f 2f 05 00 00
	00 00		 comiss	 xmm0, DWORD PTR __real@00000000
  0001f	53		 push	 ebx
  00020	8b 5d 08	 mov	 ebx, DWORD PTR ___$ReturnUdt$[ebp]
  00023	56		 push	 esi
  00024	57		 push	 edi
  00025	0f 86 92 00 00
	00		 jbe	 $LN3@GetAttackD

; 267  : 	{
; 268  : 		D3DXVec3Cross( &vAttackDir,
; 269  : 					   &D3DXVECTOR3( 0.0f, FLOAT1, 0.0f ),
; 270  : 					   &m_vDiffPos );

  0002b	b8 01 00 00 00	 mov	 eax, 1
  00030	89 45 e0	 mov	 DWORD PTR tv353[ebp], eax
  00033	db 45 e0	 fild	 DWORD PTR tv353[ebp]
  00036	85 c0		 test	 eax, eax
  00038	79 06		 jns	 SHORT $LN22@GetAttackD
  0003a	d8 05 00 00 00
	00		 fadd	 DWORD PTR __real@4f800000
$LN22@GetAttackD:
  00040	0f 57 c9	 xorps	 xmm1, xmm1
  00043	d9 5d e8	 fstp	 DWORD PTR $T523955[ebp+4]
  00046	f3 0f 10 91 c4
	08 00 00	 movss	 xmm2, DWORD PTR [ecx+2244]
  0004e	f3 0f 10 65 e8	 movss	 xmm4, DWORD PTR $T523955[ebp+4]
  00053	f3 0f 10 81 c0
	08 00 00	 movss	 xmm0, DWORD PTR [ecx+2240]
  0005b	0f 5a da	 cvtps2pd xmm3, xmm2
  0005e	0f 5a e4	 cvtps2pd xmm4, xmm4
  00061	f2 0f 59 dc	 mulsd	 xmm3, xmm4
  00065	0f 5a c0	 cvtps2pd xmm0, xmm0
  00068	f2 0f 59 c1	 mulsd	 xmm0, xmm1
  0006c	f2 0f 5c d8	 subsd	 xmm3, xmm0
  00070	66 0f 5a db	 cvtpd2ps xmm3, xmm3
  00074	f3 0f 11 5d f0	 movss	 DWORD PTR _v$525592[ebp], xmm3
  00079	f3 0f 10 99 bc
	08 00 00	 movss	 xmm3, DWORD PTR [ecx+2236]
  00081	0f 5a d2	 cvtps2pd xmm2, xmm2
  00084	f2 0f 59 d1	 mulsd	 xmm2, xmm1
  00088	0f 5a e3	 cvtps2pd xmm4, xmm3
  0008b	f2 0f 59 e1	 mulsd	 xmm4, xmm1
  0008f	f2 0f 5c e2	 subsd	 xmm4, xmm2
  00093	f3 0f 10 55 e8	 movss	 xmm2, DWORD PTR $T523955[ebp+4]
  00098	66 0f 5a cc	 cvtpd2ps xmm1, xmm4
  0009c	f3 0f 11 4d f4	 movss	 DWORD PTR _v$525592[ebp+4], xmm1
  000a1	0f 5a d2	 cvtps2pd xmm2, xmm2
  000a4	8d 75 f0	 lea	 esi, DWORD PTR _v$525592[ebp]
  000a7	0f 5a cb	 cvtps2pd xmm1, xmm3
  000aa	f2 0f 59 ca	 mulsd	 xmm1, xmm2
  000ae	f2 0f 5c c1	 subsd	 xmm0, xmm1
  000b2	66 0f 5a c0	 cvtpd2ps xmm0, xmm0
  000b6	f3 0f 11 45 f8	 movss	 DWORD PTR _v$525592[ebp+8], xmm0

; 271  : 	}
; 272  : 	else

  000bb	eb 4c		 jmp	 SHORT $LN24@GetAttackD
$LN3@GetAttackD:

; 273  : 	{
; 274  : 		ioBaseChar *pOwner = GetOwner();

  000bd	e8 00 00 00 00	 call	 ?GetOwner@ioWeapon@@QBEPAVioBaseChar@@XZ ; ioWeapon::GetOwner
  000c2	8b c8		 mov	 ecx, eax

; 275  : 		if( pOwner )

  000c4	85 c9		 test	 ecx, ecx
  000c6	74 46		 je	 SHORT $LN1@GetAttackD

; 276  : 		{
; 277  : 			vAttackDir = pOwner->GetTargetRot() * D3DXVECTOR3( 0.0f, 0.0f, -FLOAT1 );

  000c8	b8 01 00 00 00	 mov	 eax, 1
  000cd	0f 57 c0	 xorps	 xmm0, xmm0
  000d0	89 45 e0	 mov	 DWORD PTR tv325[ebp], eax
  000d3	db 45 e0	 fild	 DWORD PTR tv325[ebp]
  000d6	f3 0f 11 45 f0	 movss	 DWORD PTR $T523960[ebp], xmm0
  000db	f3 0f 11 45 f4	 movss	 DWORD PTR $T523960[ebp+4], xmm0
  000e0	85 c0		 test	 eax, eax
  000e2	79 06		 jns	 SHORT $LN23@GetAttackD
  000e4	d8 05 00 00 00
	00		 fadd	 DWORD PTR __real@4f800000
$LN23@GetAttackD:
  000ea	8d 45 f0	 lea	 eax, DWORD PTR $T523960[ebp]
  000ed	d9 e0		 fchs
  000ef	50		 push	 eax
  000f0	d9 5d f8	 fstp	 DWORD PTR $T523960[ebp+8]
  000f3	81 c1 a4 06 00
	00		 add	 ecx, 1700		; 000006a4H
  000f9	51		 push	 ecx
  000fa	8d 45 e4	 lea	 eax, DWORD PTR $T523961[ebp]
  000fd	50		 push	 eax
  000fe	ff 15 00 00 00
	00		 call	 DWORD PTR __imp_??D@YA?AUD3DXVECTOR3@@ABUD3DXQUATERNION@@ABU0@@Z
  00104	83 c4 0c	 add	 esp, 12			; 0000000cH
  00107	8b f0		 mov	 esi, eax
$LN24@GetAttackD:
  00109	8b fb		 mov	 edi, ebx
  0010b	a5		 movsd
  0010c	a5		 movsd
  0010d	a5		 movsd
$LN1@GetAttackD:

; 278  : 		}
; 279  : 	}
; 280  : 
; 281  : 	D3DXVec3Normalize( &vAttackDir, &vAttackDir );

  0010e	53		 push	 ebx
  0010f	53		 push	 ebx
  00110	e8 00 00 00 00	 call	 _D3DXVec3Normalize@8

; 282  : 	
; 283  : 	return vAttackDir;
; 284  : }

  00115	8b 4d fc	 mov	 ecx, DWORD PTR __$ArrayPad$[ebp]
  00118	5f		 pop	 edi
  00119	5e		 pop	 esi
  0011a	8b c3		 mov	 eax, ebx
  0011c	33 cd		 xor	 ecx, ebp
  0011e	5b		 pop	 ebx
  0011f	e8 00 00 00 00	 call	 @__security_check_cookie@4
  00124	c9		 leave
  00125	c2 08 00	 ret	 8
?GetAttackDir@ioRotationWeapon@@UBE?AUD3DXVECTOR3@@PBVioPlayEntity@@@Z ENDP ; ioRotationWeapon::GetAttackDir
_TEXT	ENDS
EXTRN	__imp_?SetNull@ioOrientBox@@QAEXXZ:PROC
EXTRN	__imp_?Transform@ioOrientBox@@QAEXABUD3DXVECTOR3@@0ABUD3DXQUATERNION@@@Z:PROC
EXTRN	?GetScale@ioWeapon@@QBEABUD3DXVECTOR3@@XZ:PROC	; ioWeapon::GetScale
EXTRN	__imp_?IsNull@ioOrientBox@@QBE_NXZ:PROC
EXTRN	__imp_?SetExtents@ioOrientBox@@QAEXHM@Z:PROC
EXTRN	__imp_?GetExtents@ioOrientBox@@QBEMH@Z:PROC
; Function compile flags: /Ogsp
;	COMDAT ?UpdateWorldAttackBox@ioRotationWeapon@@MAEXM_N@Z
_TEXT	SEGMENT
tv359 = -8						; size = 4
tv365 = -4						; size = 4
tv341 = -4						; size = 4
_fTimePerSec$ = 8					; size = 4
tv351 = 12						; size = 4
_fMapCollisionRate$ = 12				; size = 4
_bSetNull$ = 12						; size = 1
?UpdateWorldAttackBox@ioRotationWeapon@@MAEXM_N@Z PROC	; ioRotationWeapon::UpdateWorldAttackBox, COMDAT
; _this$ = ecx

; 310  : {

  00000	55		 push	 ebp
  00001	8b ec		 mov	 ebp, esp
  00003	51		 push	 ecx
  00004	51		 push	 ecx
  00005	53		 push	 ebx
  00006	8b d9		 mov	 ebx, ecx

; 311  : 	if( !IsLive() || bSetNull )

  00008	80 bb 82 05 00
	00 00		 cmp	 BYTE PTR [ebx+1410], 0
  0000f	56		 push	 esi
  00010	57		 push	 edi
  00011	0f 84 0c 01 00
	00		 je	 $LN2@UpdateWorl
  00017	80 7d 0c 00	 cmp	 BYTE PTR _bSetNull$[ebp], 0
  0001b	0f 85 02 01 00
	00		 jne	 $LN2@UpdateWorl

; 315  : 		return;
; 316  : 	}
; 317  : 
; 318  : 	m_WorldAttackBox = GetLocalAttackBox();

  00021	8b 03		 mov	 eax, DWORD PTR [ebx]
  00023	ff 90 00 01 00
	00		 call	 DWORD PTR [eax+256]
  00029	6a 11		 push	 17			; 00000011H
  0002b	8b f0		 mov	 esi, eax

; 319  : 
; 320  : 	float fMapCollisionRate = GetAttribute()->m_fMapCollisionBoxRate;

  0002d	8b 03		 mov	 eax, DWORD PTR [ebx]
  0002f	59		 pop	 ecx
  00030	8d bb e8 04 00
	00		 lea	 edi, DWORD PTR [ebx+1256]
  00036	f3 a5		 rep movsd
  00038	8b cb		 mov	 ecx, ebx
  0003a	ff 90 3c 01 00
	00		 call	 DWORD PTR [eax+316]

; 321  : 	m_WorldAttackBoxForMap = m_WorldAttackBox;

  00040	6a 11		 push	 17			; 00000011H
  00042	d9 80 a8 01 00
	00		 fld	 DWORD PTR [eax+424]
  00048	59		 pop	 ecx
  00049	8d bb 2c 05 00
	00		 lea	 edi, DWORD PTR [ebx+1324]
  0004f	d9 5d 0c	 fstp	 DWORD PTR _fMapCollisionRate$[ebp]
  00052	8d b3 e8 04 00
	00		 lea	 esi, DWORD PTR [ebx+1256]
  00058	f3 a5		 rep movsd

; 322  : 	m_WorldAttackBoxForMap.SetExtents( 0, m_WorldAttackBox.GetExtents(0)*fMapCollisionRate );

  0005a	6a 00		 push	 0
  0005c	8d 8b e8 04 00
	00		 lea	 ecx, DWORD PTR [ebx+1256]
  00062	ff 15 00 00 00
	00		 call	 DWORD PTR __imp_?GetExtents@ioOrientBox@@QBEMH@Z
  00068	8b 35 00 00 00
	00		 mov	 esi, DWORD PTR __imp_?SetExtents@ioOrientBox@@QAEXHM@Z
  0006e	d8 4d 0c	 fmul	 DWORD PTR _fMapCollisionRate$[ebp]
  00071	51		 push	 ecx
  00072	8d 8b 2c 05 00
	00		 lea	 ecx, DWORD PTR [ebx+1324]
  00078	d9 5d fc	 fstp	 DWORD PTR tv365[ebp]
  0007b	d9 45 fc	 fld	 DWORD PTR tv365[ebp]
  0007e	89 4d fc	 mov	 DWORD PTR tv341[ebp], ecx
  00081	d9 1c 24	 fstp	 DWORD PTR [esp]
  00084	6a 00		 push	 0
  00086	ff d6		 call	 esi

; 323  : 	m_WorldAttackBoxForMap.SetExtents( 1, m_WorldAttackBox.GetExtents(1)*fMapCollisionRate );

  00088	6a 01		 push	 1
  0008a	8d 8b e8 04 00
	00		 lea	 ecx, DWORD PTR [ebx+1256]
  00090	ff 15 00 00 00
	00		 call	 DWORD PTR __imp_?GetExtents@ioOrientBox@@QBEMH@Z
  00096	d8 4d 0c	 fmul	 DWORD PTR _fMapCollisionRate$[ebp]
  00099	51		 push	 ecx
  0009a	8b 4d fc	 mov	 ecx, DWORD PTR tv341[ebp]
  0009d	d9 5d f8	 fstp	 DWORD PTR tv359[ebp]
  000a0	d9 45 f8	 fld	 DWORD PTR tv359[ebp]
  000a3	d9 1c 24	 fstp	 DWORD PTR [esp]
  000a6	6a 01		 push	 1
  000a8	ff d6		 call	 esi

; 324  : 	m_WorldAttackBoxForMap.SetExtents( 2, m_WorldAttackBox.GetExtents(2)*fMapCollisionRate );

  000aa	6a 02		 push	 2
  000ac	8d 8b e8 04 00
	00		 lea	 ecx, DWORD PTR [ebx+1256]
  000b2	ff 15 00 00 00
	00		 call	 DWORD PTR __imp_?GetExtents@ioOrientBox@@QBEMH@Z
  000b8	d8 4d 0c	 fmul	 DWORD PTR _fMapCollisionRate$[ebp]
  000bb	51		 push	 ecx
  000bc	8b 4d fc	 mov	 ecx, DWORD PTR tv341[ebp]
  000bf	d9 5d 0c	 fstp	 DWORD PTR tv351[ebp]
  000c2	d9 45 0c	 fld	 DWORD PTR tv351[ebp]
  000c5	d9 1c 24	 fstp	 DWORD PTR [esp]
  000c8	6a 02		 push	 2
  000ca	ff d6		 call	 esi

; 325  : 
; 326  : 	if( !m_WorldAttackBox.IsNull() )

  000cc	8d 8b e8 04 00
	00		 lea	 ecx, DWORD PTR [ebx+1256]
  000d2	ff 15 00 00 00
	00		 call	 DWORD PTR __imp_?IsNull@ioOrientBox@@QBE_NXZ
  000d8	84 c0		 test	 al, al
  000da	75 5d		 jne	 SHORT $LN1@UpdateWorl

; 327  : 	{
; 328  : 		m_WorldAttackBox.Transform( GetPosition(),
; 329  : 									GetScale(),
; 330  : 									GetParentSceneNode()->GetDerivedOrientation() );

  000dc	8b 4b 04	 mov	 ecx, DWORD PTR [ebx+4]
  000df	8b 01		 mov	 eax, DWORD PTR [ecx]
  000e1	ff 50 78	 call	 DWORD PTR [eax+120]
  000e4	50		 push	 eax
  000e5	8b cb		 mov	 ecx, ebx
  000e7	e8 00 00 00 00	 call	 ?GetScale@ioWeapon@@QBEABUD3DXVECTOR3@@XZ ; ioWeapon::GetScale
  000ec	50		 push	 eax
  000ed	8b 03		 mov	 eax, DWORD PTR [ebx]
  000ef	8b cb		 mov	 ecx, ebx
  000f1	ff 50 70	 call	 DWORD PTR [eax+112]
  000f4	8b 35 00 00 00
	00		 mov	 esi, DWORD PTR __imp_?Transform@ioOrientBox@@QAEXABUD3DXVECTOR3@@0ABUD3DXQUATERNION@@@Z
  000fa	50		 push	 eax
  000fb	8d 8b e8 04 00
	00		 lea	 ecx, DWORD PTR [ebx+1256]
  00101	ff d6		 call	 esi

; 331  : 
; 332  : 		m_WorldAttackBoxForMap.Transform( GetPosition(),
; 333  : 										  GetScale(),
; 334  : 										  GetParentSceneNode()->GetDerivedOrientation() );

  00103	8b 4b 04	 mov	 ecx, DWORD PTR [ebx+4]
  00106	8b 01		 mov	 eax, DWORD PTR [ecx]
  00108	ff 50 78	 call	 DWORD PTR [eax+120]
  0010b	50		 push	 eax
  0010c	8b cb		 mov	 ecx, ebx
  0010e	e8 00 00 00 00	 call	 ?GetScale@ioWeapon@@QBEABUD3DXVECTOR3@@XZ ; ioWeapon::GetScale
  00113	50		 push	 eax
  00114	8b 03		 mov	 eax, DWORD PTR [ebx]
  00116	8b cb		 mov	 ecx, ebx
  00118	ff 50 70	 call	 DWORD PTR [eax+112]
  0011b	8b 4d fc	 mov	 ecx, DWORD PTR tv341[ebp]
  0011e	50		 push	 eax
  0011f	ff d6		 call	 esi
  00121	eb 16		 jmp	 SHORT $LN1@UpdateWorl
$LN2@UpdateWorl:

; 312  : 	{
; 313  : 		m_WorldAttackBox.SetNull();

  00123	8b 35 00 00 00
	00		 mov	 esi, DWORD PTR __imp_?SetNull@ioOrientBox@@QAEXXZ
  00129	8d 8b e8 04 00
	00		 lea	 ecx, DWORD PTR [ebx+1256]
  0012f	ff d6		 call	 esi

; 314  : 		m_WorldAttackBoxForMap.SetNull();

  00131	8d 8b 2c 05 00
	00		 lea	 ecx, DWORD PTR [ebx+1324]
  00137	ff d6		 call	 esi
$LN1@UpdateWorl:
  00139	5f		 pop	 edi
  0013a	5e		 pop	 esi
  0013b	5b		 pop	 ebx

; 335  : 	}
; 336  : }

  0013c	c9		 leave
  0013d	c2 08 00	 ret	 8
?UpdateWorldAttackBox@ioRotationWeapon@@MAEXM_N@Z ENDP	; ioRotationWeapon::UpdateWorldAttackBox
_TEXT	ENDS
PUBLIC	?CheckCollisionLine@ioRotationWeapon@@IAE_NPAVioPlayEntity@@ABUD3DXVECTOR3@@@Z ; ioRotationWeapon::CheckCollisionLine
EXTRN	?CheckCollisionLine@ioBaseChar@@QAE_NABUD3DXVECTOR3@@_N@Z:PROC ; ioBaseChar::CheckCollisionLine
; Function compile flags: /Ogsp
;	COMDAT ?CheckCollisionLine@ioRotationWeapon@@IAE_NPAVioPlayEntity@@ABUD3DXVECTOR3@@@Z
_TEXT	SEGMENT
_pTarget$ = 8						; size = 4
_vColPoint$ = 12					; size = 4
?CheckCollisionLine@ioRotationWeapon@@IAE_NPAVioPlayEntity@@ABUD3DXVECTOR3@@@Z PROC ; ioRotationWeapon::CheckCollisionLine, COMDAT
; _this$ = ecx

; 368  : {

  00000	55		 push	 ebp
  00001	8b ec		 mov	 ebp, esp
  00003	56		 push	 esi

; 369  : 	//     
; 370  : 	ioBaseChar *pTargetChar = ToBaseChar( pTarget );

  00004	ff 75 08	 push	 DWORD PTR _pTarget$[ebp]
  00007	8b f1		 mov	 esi, ecx
  00009	e8 00 00 00 00	 call	 ?ToBaseChar@@YAPAVioBaseChar@@PAVioGameEntity@@@Z ; ToBaseChar
  0000e	59		 pop	 ecx

; 371  : 	if( !pTargetChar )	return true;

  0000f	85 c0		 test	 eax, eax
  00011	75 04		 jne	 SHORT $LN2@CheckColli
  00013	b0 01		 mov	 al, 1
  00015	eb 1b		 jmp	 SHORT $LN3@CheckColli
$LN2@CheckColli:

; 372  : 
; 373  : 	ioBaseChar *pOwner = GetOwner();

  00017	8b ce		 mov	 ecx, esi
  00019	e8 00 00 00 00	 call	 ?GetOwner@ioWeapon@@QBEPAVioBaseChar@@XZ ; ioWeapon::GetOwner

; 374  : 	if( pOwner )

  0001e	85 c0		 test	 eax, eax
  00020	74 0e		 je	 SHORT $LN1@CheckColli

; 375  : 		return pOwner->CheckCollisionLine( vColPoint );

  00022	6a 01		 push	 1
  00024	ff 75 0c	 push	 DWORD PTR _vColPoint$[ebp]
  00027	8b c8		 mov	 ecx, eax
  00029	e8 00 00 00 00	 call	 ?CheckCollisionLine@ioBaseChar@@QAE_NABUD3DXVECTOR3@@_N@Z ; ioBaseChar::CheckCollisionLine
  0002e	eb 02		 jmp	 SHORT $LN3@CheckColli
$LN1@CheckColli:

; 376  : 
; 377  : 	return false;	//     

  00030	32 c0		 xor	 al, al
$LN3@CheckColli:
  00032	5e		 pop	 esi

; 378  : }

  00033	5d		 pop	 ebp
  00034	c2 08 00	 ret	 8
?CheckCollisionLine@ioRotationWeapon@@IAE_NPAVioPlayEntity@@ABUD3DXVECTOR3@@@Z ENDP ; ioRotationWeapon::CheckCollisionLine
_TEXT	ENDS
EXTRN	?CheckSkillItemHide@ioBaseChar@@QAEX_NH@Z:PROC	; ioBaseChar::CheckSkillItemHide
EXTRN	?GetEquipedItem@ioBaseChar@@QAEPAVioItem@@ABVioHashString@@@Z:PROC ; ioBaseChar::GetEquipedItem
EXTRN	__imp_??4ioHashString@@QAEAAV0@ABV0@@Z:PROC
; Function compile flags: /Ogsp
;	COMDAT ?SetCreateItem@ioRotationWeapon@@UAEXABVioHashString@@@Z
_TEXT	SEGMENT
_rkName$ = 8						; size = 4
?SetCreateItem@ioRotationWeapon@@UAEXABVioHashString@@@Z PROC ; ioRotationWeapon::SetCreateItem, COMDAT
; _this$ = ecx

; 381  : {

  00000	55		 push	 ebp
  00001	8b ec		 mov	 ebp, esp
  00003	53		 push	 ebx
  00004	56		 push	 esi
  00005	8b f1		 mov	 esi, ecx
  00007	57		 push	 edi

; 382  : 	m_CreateItem = rkName;

  00008	ff 75 08	 push	 DWORD PTR _rkName$[ebp]
  0000b	8d 7e 20	 lea	 edi, DWORD PTR [esi+32]
  0000e	8b cf		 mov	 ecx, edi
  00010	ff 15 00 00 00
	00		 call	 DWORD PTR __imp_??4ioHashString@@QAEAAV0@ABV0@@Z

; 383  : 	m_iCreateItemIndex = 0;

  00016	83 a6 98 08 00
	00 00		 and	 DWORD PTR [esi+2200], 0

; 384  : 
; 385  : 	ioBaseChar *pOwner = GetOwner();

  0001d	8b ce		 mov	 ecx, esi
  0001f	e8 00 00 00 00	 call	 ?GetOwner@ioWeapon@@QBEPAVioBaseChar@@XZ ; ioWeapon::GetOwner
  00024	8b d8		 mov	 ebx, eax

; 386  : 	if( !pOwner ) return;

  00026	85 db		 test	 ebx, ebx
  00028	74 2b		 je	 SHORT $LN1@SetCreateI

; 387  : 
; 388  : 	ioItem *pItem = pOwner->GetEquipedItem( m_CreateItem );

  0002a	57		 push	 edi
  0002b	8b cb		 mov	 ecx, ebx
  0002d	e8 00 00 00 00	 call	 ?GetEquipedItem@ioBaseChar@@QAEPAVioItem@@ABVioHashString@@@Z ; ioBaseChar::GetEquipedItem

; 389  : 	if( pItem )

  00032	85 c0		 test	 eax, eax
  00034	74 1f		 je	 SHORT $LN1@SetCreateI

; 390  : 	{
; 391  : 		m_iCreateItemIndex = pItem->GetItemCreateIndex();

  00036	8b 48 3c	 mov	 ecx, DWORD PTR [eax+60]
  00039	89 8e 98 08 00
	00		 mov	 DWORD PTR [esi+2200], ecx

; 392  : 	}
; 393  : 
; 394  : 	//
; 395  : 	if( pItem && pItem->GetItemCreateIndex() == m_iCreateItemIndex )

  0003f	39 48 3c	 cmp	 DWORD PTR [eax+60], ecx
  00042	75 11		 jne	 SHORT $LN1@SetCreateI

; 396  : 	{
; 397  : 		int iItemType = (int)pItem->GetType();

  00044	8b 10		 mov	 edx, DWORD PTR [eax]
  00046	8b c8		 mov	 ecx, eax
  00048	ff 52 08	 call	 DWORD PTR [edx+8]

; 398  : 		pOwner->CheckSkillItemHide( false, iItemType );

  0004b	50		 push	 eax
  0004c	6a 00		 push	 0
  0004e	8b cb		 mov	 ecx, ebx
  00050	e8 00 00 00 00	 call	 ?CheckSkillItemHide@ioBaseChar@@QAEX_NH@Z ; ioBaseChar::CheckSkillItemHide
$LN1@SetCreateI:
  00055	5f		 pop	 edi
  00056	5e		 pop	 esi
  00057	5b		 pop	 ebx

; 399  : 	}
; 400  : }

  00058	5d		 pop	 ebp
  00059	c2 04 00	 ret	 4
?SetCreateItem@ioRotationWeapon@@UAEXABVioHashString@@@Z ENDP ; ioRotationWeapon::SetCreateItem
_TEXT	ENDS
EXTRN	?CheckRotationWeaponByItem@ioWeaponManager@@QAE_NABVioHashString@@H@Z:PROC ; ioWeaponManager::CheckRotationWeaponByItem
EXTRN	?GetSingleton@ioWeaponManager@@SAAAV1@XZ:PROC	; ioWeaponManager::GetSingleton
; Function compile flags: /Ogsp
;	COMDAT ?SetWeaponDead@ioRotationWeapon@@UAEXXZ
_TEXT	SEGMENT
?SetWeaponDead@ioRotationWeapon@@UAEXXZ PROC		; ioRotationWeapon::SetWeaponDead, COMDAT
; _this$ = ecx

; 403  : {

  00000	53		 push	 ebx
  00001	56		 push	 esi
  00002	8b f1		 mov	 esi, ecx

; 404  : 	StopLoopSound();

  00004	8b 06		 mov	 eax, DWORD PTR [esi]
  00006	ff 50 60	 call	 DWORD PTR [eax+96]

; 405  : 	m_bLive = false;
; 406  : 
; 407  : 	// Live false  ...
; 408  : 	ioBaseChar *pOwner = GetOwner();

  00009	8b ce		 mov	 ecx, esi
  0000b	c6 86 82 05 00
	00 00		 mov	 BYTE PTR [esi+1410], 0
  00012	e8 00 00 00 00	 call	 ?GetOwner@ioWeapon@@QBEPAVioBaseChar@@XZ ; ioWeapon::GetOwner
  00017	8b d8		 mov	 ebx, eax

; 409  : 	if( !pOwner ) return;

  00019	85 db		 test	 ebx, ebx
  0001b	74 44		 je	 SHORT $LN1@SetWeaponD

; 410  : 
; 411  : 	ioItem *pItem = pOwner->GetEquipedItem( m_CreateItem );

  0001d	57		 push	 edi
  0001e	8d 46 20	 lea	 eax, DWORD PTR [esi+32]
  00021	50		 push	 eax
  00022	8b cb		 mov	 ecx, ebx
  00024	e8 00 00 00 00	 call	 ?GetEquipedItem@ioBaseChar@@QAEPAVioItem@@ABVioHashString@@@Z ; ioBaseChar::GetEquipedItem
  00029	8b f8		 mov	 edi, eax

; 412  : 	if( pItem && pItem->GetItemCreateIndex() == m_iCreateItemIndex )

  0002b	85 ff		 test	 edi, edi
  0002d	74 31		 je	 SHORT $LN10@SetWeaponD
  0002f	8b 47 3c	 mov	 eax, DWORD PTR [edi+60]
  00032	3b 86 98 08 00
	00		 cmp	 eax, DWORD PTR [esi+2200]
  00038	75 26		 jne	 SHORT $LN10@SetWeaponD

; 413  : 	{
; 414  : 		if( !g_WeaponMgr.CheckRotationWeaponByItem(m_OwnerName, pItem->GetItemCreateIndex()) )

  0003a	50		 push	 eax
  0003b	83 c6 10	 add	 esi, 16			; 00000010H
  0003e	56		 push	 esi
  0003f	e8 00 00 00 00	 call	 ?GetSingleton@ioWeaponManager@@SAAAV1@XZ ; ioWeaponManager::GetSingleton
  00044	8b c8		 mov	 ecx, eax
  00046	e8 00 00 00 00	 call	 ?CheckRotationWeaponByItem@ioWeaponManager@@QAE_NABVioHashString@@H@Z ; ioWeaponManager::CheckRotationWeaponByItem
  0004b	84 c0		 test	 al, al
  0004d	75 11		 jne	 SHORT $LN10@SetWeaponD

; 415  : 		{
; 416  : 			int iItemType = (int)pItem->GetType();

  0004f	8b 07		 mov	 eax, DWORD PTR [edi]
  00051	8b cf		 mov	 ecx, edi
  00053	ff 50 08	 call	 DWORD PTR [eax+8]

; 417  : 			pOwner->CheckSkillItemHide( true, iItemType );

  00056	50		 push	 eax
  00057	6a 01		 push	 1
  00059	8b cb		 mov	 ecx, ebx
  0005b	e8 00 00 00 00	 call	 ?CheckSkillItemHide@ioBaseChar@@QAEX_NH@Z ; ioBaseChar::CheckSkillItemHide
$LN10@SetWeaponD:
  00060	5f		 pop	 edi
$LN1@SetWeaponD:
  00061	5e		 pop	 esi
  00062	5b		 pop	 ebx

; 418  : 		}
; 419  : 	}
; 420  : }

  00063	c3		 ret	 0
?SetWeaponDead@ioRotationWeapon@@UAEXXZ ENDP		; ioRotationWeapon::SetWeaponDead
_TEXT	ENDS
PUBLIC	?CheckCreateItem@ioRotationWeapon@@IAE_NXZ	; ioRotationWeapon::CheckCreateItem
; Function compile flags: /Ogsp
;	COMDAT ?CheckCreateItem@ioRotationWeapon@@IAE_NXZ
_TEXT	SEGMENT
?CheckCreateItem@ioRotationWeapon@@IAE_NXZ PROC		; ioRotationWeapon::CheckCreateItem, COMDAT
; _this$ = ecx

; 423  : {

  00000	56		 push	 esi
  00001	8b f1		 mov	 esi, ecx

; 424  : 	ioBaseChar *pOwner = GetOwner();

  00003	e8 00 00 00 00	 call	 ?GetOwner@ioWeapon@@QBEPAVioBaseChar@@XZ ; ioWeapon::GetOwner

; 425  : 	if( !pOwner ) return false;

  00008	85 c0		 test	 eax, eax
  0000a	74 1e		 je	 SHORT $LN1@CheckCreat

; 426  : 
; 427  : 	ioItem *pItem = pOwner->GetEquipedItem( m_CreateItem );

  0000c	8d 4e 20	 lea	 ecx, DWORD PTR [esi+32]
  0000f	51		 push	 ecx
  00010	8b c8		 mov	 ecx, eax
  00012	e8 00 00 00 00	 call	 ?GetEquipedItem@ioBaseChar@@QAEPAVioItem@@ABVioHashString@@@Z ; ioBaseChar::GetEquipedItem

; 428  : 	if( pItem && pItem->GetItemCreateIndex() == m_iCreateItemIndex )

  00017	85 c0		 test	 eax, eax
  00019	74 0f		 je	 SHORT $LN1@CheckCreat
  0001b	8b 40 3c	 mov	 eax, DWORD PTR [eax+60]
  0001e	3b 86 98 08 00
	00		 cmp	 eax, DWORD PTR [esi+2200]
  00024	75 04		 jne	 SHORT $LN1@CheckCreat

; 429  : 		return true;

  00026	b0 01		 mov	 al, 1
  00028	5e		 pop	 esi

; 432  : }

  00029	c3		 ret	 0
$LN1@CheckCreat:

; 430  : 
; 431  : 	return false;

  0002a	32 c0		 xor	 al, al
  0002c	5e		 pop	 esi

; 432  : }

  0002d	c3		 ret	 0
?CheckCreateItem@ioRotationWeapon@@IAE_NXZ ENDP		; ioRotationWeapon::CheckCreateItem
_TEXT	ENDS
PUBLIC	__$ArrayPad$
PUBLIC	??$LoadInt_e@$09@ioINILoader@@QAEHAAY09$$CBDH@Z	; ioINILoader::LoadInt_e<10>
EXTRN	__imp_?LoadInt@ioINILoader@@QAEHPBDH@Z:PROC
; Function compile flags: /Ogsp
; File d:\lost saga for developer\youtube\tutorial\source\src\io3dengine\ioiniloader.h
;	COMDAT ??$LoadInt_e@$09@ioINILoader@@QAEHAAY09$$CBDH@Z
_TEXT	SEGMENT
__k$ = -20						; size = 10
__$ArrayPad$ = -4					; size = 4
_k$ = 8							; size = 4
_i$ = 12						; size = 4
??$LoadInt_e@$09@ioINILoader@@QAEHAAY09$$CBDH@Z PROC	; ioINILoader::LoadInt_e<10>, COMDAT
; _this$ = ecx

; 118  : 	{

  00000	55		 push	 ebp
  00001	8b ec		 mov	 ebp, esp
  00003	83 ec 14	 sub	 esp, 20			; 00000014H
  00006	a1 00 00 00 00	 mov	 eax, DWORD PTR ___security_cookie
  0000b	33 c5		 xor	 eax, ebp
  0000d	89 45 fc	 mov	 DWORD PTR __$ArrayPad$[ebp], eax
  00010	8b 45 08	 mov	 eax, DWORD PTR _k$[ebp]

; 119  : 		_ENCSTR(k, _k);

  00013	8a 10		 mov	 dl, BYTE PTR [eax]
  00015	84 d2		 test	 dl, dl
  00017	0f 84 0d 01 00
	00		 je	 $LN96@LoadInt_e
  0001d	80 f2 ed	 xor	 dl, -19			; ffffffedH
  00020	88 55 ec	 mov	 BYTE PTR __k$[ebp], dl
  00023	8a 50 01	 mov	 dl, BYTE PTR [eax+1]
  00026	84 d2		 test	 dl, dl
  00028	0f 84 f6 00 00
	00		 je	 $LN95@LoadInt_e
  0002e	80 f2 ec	 xor	 dl, -20			; ffffffecH
  00031	88 55 ed	 mov	 BYTE PTR __k$[ebp+1], dl
  00034	8a 50 02	 mov	 dl, BYTE PTR [eax+2]
  00037	84 d2		 test	 dl, dl
  00039	0f 84 df 00 00
	00		 je	 $LN94@LoadInt_e
  0003f	80 f2 eb	 xor	 dl, -21			; ffffffebH
  00042	88 55 ee	 mov	 BYTE PTR __k$[ebp+2], dl
  00045	8a 50 03	 mov	 dl, BYTE PTR [eax+3]
  00048	84 d2		 test	 dl, dl
  0004a	0f 84 c8 00 00
	00		 je	 $LN93@LoadInt_e
  00050	80 f2 ea	 xor	 dl, -22			; ffffffeaH
  00053	88 55 ef	 mov	 BYTE PTR __k$[ebp+3], dl
  00056	8a 50 04	 mov	 dl, BYTE PTR [eax+4]
  00059	84 d2		 test	 dl, dl
  0005b	0f 84 b1 00 00
	00		 je	 $LN92@LoadInt_e
  00061	80 f2 ed	 xor	 dl, -19			; ffffffedH
  00064	88 55 f0	 mov	 BYTE PTR __k$[ebp+4], dl
  00067	8a 50 05	 mov	 dl, BYTE PTR [eax+5]
  0006a	84 d2		 test	 dl, dl
  0006c	0f 84 9a 00 00
	00		 je	 $LN91@LoadInt_e
  00072	80 f2 ec	 xor	 dl, -20			; ffffffecH
  00075	88 55 f1	 mov	 BYTE PTR __k$[ebp+5], dl
  00078	8a 50 06	 mov	 dl, BYTE PTR [eax+6]
  0007b	84 d2		 test	 dl, dl
  0007d	0f 84 83 00 00
	00		 je	 $LN90@LoadInt_e
  00083	80 f2 eb	 xor	 dl, -21			; ffffffebH
  00086	88 55 f2	 mov	 BYTE PTR __k$[ebp+6], dl
  00089	8a 50 07	 mov	 dl, BYTE PTR [eax+7]
  0008c	84 d2		 test	 dl, dl
  0008e	74 70		 je	 SHORT $LN89@LoadInt_e
  00090	80 f2 ea	 xor	 dl, -22			; ffffffeaH
  00093	88 55 f3	 mov	 BYTE PTR __k$[ebp+7], dl
  00096	8a 50 08	 mov	 dl, BYTE PTR [eax+8]
  00099	84 d2		 test	 dl, dl
  0009b	74 5d		 je	 SHORT $LN88@LoadInt_e
  0009d	80 f2 ed	 xor	 dl, -19			; ffffffedH
  000a0	80 78 09 00	 cmp	 BYTE PTR [eax+9], 0
  000a4	88 55 f4	 mov	 BYTE PTR __k$[ebp+8], dl
  000a7	0f 84 81 00 00
	00		 je	 $LN1@LoadInt_e
  000ad	8a 50 0a	 mov	 dl, BYTE PTR [eax+10]
  000b0	84 d2		 test	 dl, dl
  000b2	74 40		 je	 SHORT $LN86@LoadInt_e
  000b4	80 f2 eb	 xor	 dl, -21			; ffffffebH
  000b7	88 55 f6	 mov	 BYTE PTR __k$[ebp+10], dl
  000ba	8a 50 0b	 mov	 dl, BYTE PTR [eax+11]
  000bd	84 d2		 test	 dl, dl
  000bf	74 2d		 je	 SHORT $LN85@LoadInt_e
  000c1	80 f2 ea	 xor	 dl, -22			; ffffffeaH
  000c4	88 55 f7	 mov	 BYTE PTR __k$[ebp+11], dl
  000c7	8a 50 0c	 mov	 dl, BYTE PTR [eax+12]
  000ca	84 d2		 test	 dl, dl
  000cc	74 1a		 je	 SHORT $LN84@LoadInt_e
  000ce	8a 40 0d	 mov	 al, BYTE PTR [eax+13]
  000d1	80 f2 ed	 xor	 dl, -19			; ffffffedH
  000d4	88 55 f8	 mov	 BYTE PTR __k$[ebp+12], dl
  000d7	84 c0		 test	 al, al
  000d9	74 07		 je	 SHORT $LN83@LoadInt_e
  000db	34 ec		 xor	 al, -20			; ffffffecH
  000dd	88 45 f9	 mov	 BYTE PTR __k$[ebp+13], al
  000e0	eb 4c		 jmp	 SHORT $LN1@LoadInt_e
$LN83@LoadInt_e:
  000e2	c6 45 f9 ec	 mov	 BYTE PTR __k$[ebp+13], -20 ; ffffffecH
  000e6	eb 46		 jmp	 SHORT $LN1@LoadInt_e
$LN84@LoadInt_e:
  000e8	c6 45 f8 ed	 mov	 BYTE PTR __k$[ebp+12], -19 ; ffffffedH
  000ec	eb 40		 jmp	 SHORT $LN1@LoadInt_e
$LN85@LoadInt_e:
  000ee	c6 45 f7 ea	 mov	 BYTE PTR __k$[ebp+11], -22 ; ffffffeaH
  000f2	eb 3a		 jmp	 SHORT $LN1@LoadInt_e
$LN86@LoadInt_e:
  000f4	c6 45 f6 eb	 mov	 BYTE PTR __k$[ebp+10], -21 ; ffffffebH
  000f8	eb 34		 jmp	 SHORT $LN1@LoadInt_e
$LN88@LoadInt_e:
  000fa	c6 45 f4 ed	 mov	 BYTE PTR __k$[ebp+8], -19 ; ffffffedH
  000fe	eb 2e		 jmp	 SHORT $LN1@LoadInt_e
$LN89@LoadInt_e:
  00100	c6 45 f3 ea	 mov	 BYTE PTR __k$[ebp+7], -22 ; ffffffeaH
  00104	eb 28		 jmp	 SHORT $LN1@LoadInt_e
$LN90@LoadInt_e:
  00106	c6 45 f2 eb	 mov	 BYTE PTR __k$[ebp+6], -21 ; ffffffebH
  0010a	eb 22		 jmp	 SHORT $LN1@LoadInt_e
$LN91@LoadInt_e:
  0010c	c6 45 f1 ec	 mov	 BYTE PTR __k$[ebp+5], -20 ; ffffffecH
  00110	eb 1c		 jmp	 SHORT $LN1@LoadInt_e
$LN92@LoadInt_e:
  00112	c6 45 f0 ed	 mov	 BYTE PTR __k$[ebp+4], -19 ; ffffffedH
  00116	eb 16		 jmp	 SHORT $LN1@LoadInt_e
$LN93@LoadInt_e:
  00118	c6 45 ef ea	 mov	 BYTE PTR __k$[ebp+3], -22 ; ffffffeaH
  0011c	eb 10		 jmp	 SHORT $LN1@LoadInt_e
$LN94@LoadInt_e:
  0011e	c6 45 ee eb	 mov	 BYTE PTR __k$[ebp+2], -21 ; ffffffebH
  00122	eb 0a		 jmp	 SHORT $LN1@LoadInt_e
$LN95@LoadInt_e:
  00124	c6 45 ed ec	 mov	 BYTE PTR __k$[ebp+1], -20 ; ffffffecH
  00128	eb 04		 jmp	 SHORT $LN1@LoadInt_e
$LN96@LoadInt_e:
  0012a	c6 45 ec ed	 mov	 BYTE PTR __k$[ebp], -19	; ffffffedH
$LN1@LoadInt_e:
  0012e	6a 02		 push	 2
  00130	8d 45 ec	 lea	 eax, DWORD PTR __k$[ebp]
  00133	c6 45 f5 00	 mov	 BYTE PTR __k$[ebp+9], 0
  00137	5a		 pop	 edx
$LL104@LoadInt_e:
  00138	81 30 ed ec eb
	ea		 xor	 DWORD PTR [eax], -353637139 ; eaebecedH
  0013e	83 c0 04	 add	 eax, 4
  00141	4a		 dec	 edx
  00142	75 f4		 jne	 SHORT $LL104@LoadInt_e

; 120  : 		return LoadInt(_k, i);

  00144	ff 75 0c	 push	 DWORD PTR _i$[ebp]
  00147	80 75 f4 ed	 xor	 BYTE PTR __k$[ebp+8], -19 ; ffffffedH
  0014b	8d 45 ec	 lea	 eax, DWORD PTR __k$[ebp]
  0014e	50		 push	 eax
  0014f	ff 15 00 00 00
	00		 call	 DWORD PTR __imp_?LoadInt@ioINILoader@@QAEHPBDH@Z

; 121  : 	}

  00155	8b 4d fc	 mov	 ecx, DWORD PTR __$ArrayPad$[ebp]
  00158	33 cd		 xor	 ecx, ebp
  0015a	e8 00 00 00 00	 call	 @__security_check_cookie@4
  0015f	c9		 leave
  00160	c2 08 00	 ret	 8
??$LoadInt_e@$09@ioINILoader@@QAEHAAY09$$CBDH@Z ENDP	; ioINILoader::LoadInt_e<10>
_TEXT	ENDS
PUBLIC	__$ArrayPad$
PUBLIC	??$LoadFloat_e@$0O@@ioINILoader@@QAEMAAY0O@$$CBDM@Z ; ioINILoader::LoadFloat_e<14>
EXTRN	__imp_?LoadFloat@ioINILoader@@QAEMPBDM@Z:PROC
; Function compile flags: /Ogsp
;	COMDAT ??$LoadFloat_e@$0O@@ioINILoader@@QAEMAAY0O@$$CBDM@Z
_TEXT	SEGMENT
__k$ = -24						; size = 14
__$ArrayPad$ = -4					; size = 4
_k$ = 8							; size = 4
_f$ = 12						; size = 4
??$LoadFloat_e@$0O@@ioINILoader@@QAEMAAY0O@$$CBDM@Z PROC ; ioINILoader::LoadFloat_e<14>, COMDAT
; _this$ = ecx

; 135  : 	{

  00000	55		 push	 ebp
  00001	8b ec		 mov	 ebp, esp
  00003	83 ec 18	 sub	 esp, 24			; 00000018H
  00006	a1 00 00 00 00	 mov	 eax, DWORD PTR ___security_cookie
  0000b	33 c5		 xor	 eax, ebp
  0000d	89 45 fc	 mov	 DWORD PTR __$ArrayPad$[ebp], eax
  00010	8b 45 08	 mov	 eax, DWORD PTR _k$[ebp]

; 136  : 		_ENCSTR(k, _k);

  00013	8a 10		 mov	 dl, BYTE PTR [eax]
  00015	56		 push	 esi
  00016	8b f1		 mov	 esi, ecx
  00018	84 d2		 test	 dl, dl
  0001a	0f 84 64 01 00
	00		 je	 $LN96@LoadFloat_
  00020	80 f2 ed	 xor	 dl, -19			; ffffffedH
  00023	88 55 e8	 mov	 BYTE PTR __k$[ebp], dl
  00026	8a 50 01	 mov	 dl, BYTE PTR [eax+1]
  00029	84 d2		 test	 dl, dl
  0002b	0f 84 4d 01 00
	00		 je	 $LN95@LoadFloat_
  00031	80 f2 ec	 xor	 dl, -20			; ffffffecH
  00034	88 55 e9	 mov	 BYTE PTR __k$[ebp+1], dl
  00037	8a 50 02	 mov	 dl, BYTE PTR [eax+2]
  0003a	84 d2		 test	 dl, dl
  0003c	0f 84 36 01 00
	00		 je	 $LN94@LoadFloat_
  00042	b1 eb		 mov	 cl, -21			; ffffffebH
  00044	32 d1		 xor	 dl, cl
  00046	88 55 ea	 mov	 BYTE PTR __k$[ebp+2], dl
  00049	8a 50 03	 mov	 dl, BYTE PTR [eax+3]
  0004c	84 d2		 test	 dl, dl
  0004e	0f 84 1e 01 00
	00		 je	 $LN93@LoadFloat_
  00054	80 f2 ea	 xor	 dl, -22			; ffffffeaH
  00057	88 55 eb	 mov	 BYTE PTR __k$[ebp+3], dl
  0005a	8a 50 04	 mov	 dl, BYTE PTR [eax+4]
  0005d	84 d2		 test	 dl, dl
  0005f	0f 84 07 01 00
	00		 je	 $LN92@LoadFloat_
  00065	80 f2 ed	 xor	 dl, -19			; ffffffedH
  00068	88 55 ec	 mov	 BYTE PTR __k$[ebp+4], dl
  0006b	8a 50 05	 mov	 dl, BYTE PTR [eax+5]
  0006e	84 d2		 test	 dl, dl
  00070	0f 84 f0 00 00
	00		 je	 $LN91@LoadFloat_
  00076	80 f2 ec	 xor	 dl, -20			; ffffffecH
  00079	88 55 ed	 mov	 BYTE PTR __k$[ebp+5], dl
  0007c	8a 50 06	 mov	 dl, BYTE PTR [eax+6]
  0007f	84 d2		 test	 dl, dl
  00081	0f 84 da 00 00
	00		 je	 $LN90@LoadFloat_
  00087	32 d1		 xor	 dl, cl
  00089	88 55 ee	 mov	 BYTE PTR __k$[ebp+6], dl
  0008c	8a 50 07	 mov	 dl, BYTE PTR [eax+7]
  0008f	84 d2		 test	 dl, dl
  00091	0f 84 c4 00 00
	00		 je	 $LN89@LoadFloat_
  00097	80 f2 ea	 xor	 dl, -22			; ffffffeaH
  0009a	88 55 ef	 mov	 BYTE PTR __k$[ebp+7], dl
  0009d	8a 50 08	 mov	 dl, BYTE PTR [eax+8]
  000a0	84 d2		 test	 dl, dl
  000a2	0f 84 ad 00 00
	00		 je	 $LN88@LoadFloat_
  000a8	80 f2 ed	 xor	 dl, -19			; ffffffedH
  000ab	88 55 f0	 mov	 BYTE PTR __k$[ebp+8], dl
  000ae	8a 50 09	 mov	 dl, BYTE PTR [eax+9]
  000b1	84 d2		 test	 dl, dl
  000b3	0f 84 96 00 00
	00		 je	 $LN87@LoadFloat_
  000b9	80 f2 ec	 xor	 dl, -20			; ffffffecH
  000bc	88 55 f1	 mov	 BYTE PTR __k$[ebp+9], dl
  000bf	8a 50 0a	 mov	 dl, BYTE PTR [eax+10]
  000c2	84 d2		 test	 dl, dl
  000c4	0f 84 80 00 00
	00		 je	 $LN86@LoadFloat_
  000ca	32 d1		 xor	 dl, cl
  000cc	88 55 f2	 mov	 BYTE PTR __k$[ebp+10], dl
  000cf	8a 50 0b	 mov	 dl, BYTE PTR [eax+11]
  000d2	84 d2		 test	 dl, dl
  000d4	74 6e		 je	 SHORT $LN85@LoadFloat_
  000d6	80 f2 ea	 xor	 dl, -22			; ffffffeaH
  000d9	88 55 f3	 mov	 BYTE PTR __k$[ebp+11], dl
  000dc	8a 50 0c	 mov	 dl, BYTE PTR [eax+12]
  000df	84 d2		 test	 dl, dl
  000e1	74 5b		 je	 SHORT $LN84@LoadFloat_
  000e3	80 f2 ed	 xor	 dl, -19			; ffffffedH
  000e6	80 78 0d 00	 cmp	 BYTE PTR [eax+13], 0
  000ea	88 55 f4	 mov	 BYTE PTR __k$[ebp+12], dl
  000ed	0f 84 95 00 00
	00		 je	 $LN1@LoadFloat_
  000f3	8a 50 0e	 mov	 dl, BYTE PTR [eax+14]
  000f6	84 d2		 test	 dl, dl
  000f8	74 3f		 je	 SHORT $LN82@LoadFloat_
  000fa	32 d1		 xor	 dl, cl
  000fc	88 55 f6	 mov	 BYTE PTR __k$[ebp+14], dl
  000ff	8a 50 0f	 mov	 dl, BYTE PTR [eax+15]
  00102	84 d2		 test	 dl, dl
  00104	74 2d		 je	 SHORT $LN81@LoadFloat_
  00106	80 f2 ea	 xor	 dl, -22			; ffffffeaH
  00109	88 55 f7	 mov	 BYTE PTR __k$[ebp+15], dl
  0010c	8a 50 10	 mov	 dl, BYTE PTR [eax+16]
  0010f	84 d2		 test	 dl, dl
  00111	74 1a		 je	 SHORT $LN80@LoadFloat_
  00113	8a 40 11	 mov	 al, BYTE PTR [eax+17]
  00116	80 f2 ed	 xor	 dl, -19			; ffffffedH
  00119	88 55 f8	 mov	 BYTE PTR __k$[ebp+16], dl
  0011c	84 c0		 test	 al, al
  0011e	74 07		 je	 SHORT $LN79@LoadFloat_
  00120	34 ec		 xor	 al, -20			; ffffffecH
  00122	88 45 f9	 mov	 BYTE PTR __k$[ebp+17], al
  00125	eb 61		 jmp	 SHORT $LN1@LoadFloat_
$LN79@LoadFloat_:
  00127	c6 45 f9 ec	 mov	 BYTE PTR __k$[ebp+17], -20 ; ffffffecH
  0012b	eb 5b		 jmp	 SHORT $LN1@LoadFloat_
$LN80@LoadFloat_:
  0012d	c6 45 f8 ed	 mov	 BYTE PTR __k$[ebp+16], -19 ; ffffffedH
  00131	eb 55		 jmp	 SHORT $LN1@LoadFloat_
$LN81@LoadFloat_:
  00133	c6 45 f7 ea	 mov	 BYTE PTR __k$[ebp+15], -22 ; ffffffeaH
  00137	eb 4f		 jmp	 SHORT $LN1@LoadFloat_
$LN82@LoadFloat_:
  00139	88 4d f6	 mov	 BYTE PTR __k$[ebp+14], cl
  0013c	eb 4a		 jmp	 SHORT $LN1@LoadFloat_
$LN84@LoadFloat_:
  0013e	c6 45 f4 ed	 mov	 BYTE PTR __k$[ebp+12], -19 ; ffffffedH
  00142	eb 44		 jmp	 SHORT $LN1@LoadFloat_
$LN85@LoadFloat_:
  00144	c6 45 f3 ea	 mov	 BYTE PTR __k$[ebp+11], -22 ; ffffffeaH
  00148	eb 3e		 jmp	 SHORT $LN1@LoadFloat_
$LN86@LoadFloat_:
  0014a	88 4d f2	 mov	 BYTE PTR __k$[ebp+10], cl
  0014d	eb 39		 jmp	 SHORT $LN1@LoadFloat_
$LN87@LoadFloat_:
  0014f	c6 45 f1 ec	 mov	 BYTE PTR __k$[ebp+9], -20 ; ffffffecH
  00153	eb 33		 jmp	 SHORT $LN1@LoadFloat_
$LN88@LoadFloat_:
  00155	c6 45 f0 ed	 mov	 BYTE PTR __k$[ebp+8], -19 ; ffffffedH
  00159	eb 2d		 jmp	 SHORT $LN1@LoadFloat_
$LN89@LoadFloat_:
  0015b	c6 45 ef ea	 mov	 BYTE PTR __k$[ebp+7], -22 ; ffffffeaH
  0015f	eb 27		 jmp	 SHORT $LN1@LoadFloat_
$LN90@LoadFloat_:
  00161	88 4d ee	 mov	 BYTE PTR __k$[ebp+6], cl
  00164	eb 22		 jmp	 SHORT $LN1@LoadFloat_
$LN91@LoadFloat_:
  00166	c6 45 ed ec	 mov	 BYTE PTR __k$[ebp+5], -20 ; ffffffecH
  0016a	eb 1c		 jmp	 SHORT $LN1@LoadFloat_
$LN92@LoadFloat_:
  0016c	c6 45 ec ed	 mov	 BYTE PTR __k$[ebp+4], -19 ; ffffffedH
  00170	eb 16		 jmp	 SHORT $LN1@LoadFloat_
$LN93@LoadFloat_:
  00172	c6 45 eb ea	 mov	 BYTE PTR __k$[ebp+3], -22 ; ffffffeaH
  00176	eb 10		 jmp	 SHORT $LN1@LoadFloat_
$LN94@LoadFloat_:
  00178	c6 45 ea eb	 mov	 BYTE PTR __k$[ebp+2], -21 ; ffffffebH
  0017c	eb 0a		 jmp	 SHORT $LN1@LoadFloat_
$LN95@LoadFloat_:
  0017e	c6 45 e9 ec	 mov	 BYTE PTR __k$[ebp+1], -20 ; ffffffecH
  00182	eb 04		 jmp	 SHORT $LN1@LoadFloat_
$LN96@LoadFloat_:
  00184	c6 45 e8 ed	 mov	 BYTE PTR __k$[ebp], -19	; ffffffedH
$LN1@LoadFloat_:
  00188	6a 03		 push	 3
  0018a	8d 45 e8	 lea	 eax, DWORD PTR __k$[ebp]
  0018d	c6 45 f5 00	 mov	 BYTE PTR __k$[ebp+13], 0
  00191	5a		 pop	 edx
$LL104@LoadFloat_:
  00192	81 30 ed ec eb
	ea		 xor	 DWORD PTR [eax], -353637139 ; eaebecedH
  00198	83 c0 04	 add	 eax, 4
  0019b	4a		 dec	 edx
  0019c	75 f4		 jne	 SHORT $LL104@LoadFloat_

; 137  : 		return LoadFloat(_k, f);

  0019e	f3 0f 10 45 0c	 movss	 xmm0, DWORD PTR _f$[ebp]
  001a3	80 75 f4 ed	 xor	 BYTE PTR __k$[ebp+12], -19 ; ffffffedH
  001a7	51		 push	 ecx
  001a8	8d 45 e8	 lea	 eax, DWORD PTR __k$[ebp]
  001ab	f3 0f 11 04 24	 movss	 DWORD PTR [esp], xmm0
  001b0	50		 push	 eax
  001b1	8b ce		 mov	 ecx, esi
  001b3	ff 15 00 00 00
	00		 call	 DWORD PTR __imp_?LoadFloat@ioINILoader@@QAEMPBDM@Z

; 138  : 	}

  001b9	8b 4d fc	 mov	 ecx, DWORD PTR __$ArrayPad$[ebp]
  001bc	33 cd		 xor	 ecx, ebp
  001be	5e		 pop	 esi
  001bf	e8 00 00 00 00	 call	 @__security_check_cookie@4
  001c4	c9		 leave
  001c5	c2 08 00	 ret	 8
??$LoadFloat_e@$0O@@ioINILoader@@QAEMAAY0O@$$CBDM@Z ENDP ; ioINILoader::LoadFloat_e<14>
_TEXT	ENDS
PUBLIC	__$ArrayPad$
PUBLIC	??$LoadBool_e@$0BC@@ioINILoader@@QAE_NAAY0BC@$$CBD_N@Z ; ioINILoader::LoadBool_e<18>
EXTRN	__imp_?LoadBool@ioINILoader@@QAE_NPBD_N@Z:PROC
; Function compile flags: /Ogsp
;	COMDAT ??$LoadBool_e@$0BC@@ioINILoader@@QAE_NAAY0BC@$$CBD_N@Z
_TEXT	SEGMENT
__k$ = -28						; size = 18
__$ArrayPad$ = -4					; size = 4
_k$ = 8							; size = 4
_b$ = 12						; size = 1
??$LoadBool_e@$0BC@@ioINILoader@@QAE_NAAY0BC@$$CBD_N@Z PROC ; ioINILoader::LoadBool_e<18>, COMDAT
; _this$ = ecx

; 101  : 	{

  00000	55		 push	 ebp
  00001	8b ec		 mov	 ebp, esp
  00003	83 ec 1c	 sub	 esp, 28			; 0000001cH
  00006	a1 00 00 00 00	 mov	 eax, DWORD PTR ___security_cookie
  0000b	33 c5		 xor	 eax, ebp
  0000d	89 45 fc	 mov	 DWORD PTR __$ArrayPad$[ebp], eax
  00010	8b 45 08	 mov	 eax, DWORD PTR _k$[ebp]

; 102  : 		_ENCSTR(k, _k);

  00013	8a 10		 mov	 dl, BYTE PTR [eax]
  00015	56		 push	 esi
  00016	8b f1		 mov	 esi, ecx
  00018	84 d2		 test	 dl, dl
  0001a	0f 84 be 01 00
	00		 je	 $LN96@LoadBool_e
  00020	80 f2 ed	 xor	 dl, -19			; ffffffedH
  00023	88 55 e4	 mov	 BYTE PTR __k$[ebp], dl
  00026	8a 50 01	 mov	 dl, BYTE PTR [eax+1]
  00029	84 d2		 test	 dl, dl
  0002b	0f 84 a7 01 00
	00		 je	 $LN95@LoadBool_e
  00031	80 f2 ec	 xor	 dl, -20			; ffffffecH
  00034	88 55 e5	 mov	 BYTE PTR __k$[ebp+1], dl
  00037	8a 50 02	 mov	 dl, BYTE PTR [eax+2]
  0003a	84 d2		 test	 dl, dl
  0003c	0f 84 90 01 00
	00		 je	 $LN94@LoadBool_e
  00042	b1 eb		 mov	 cl, -21			; ffffffebH
  00044	32 d1		 xor	 dl, cl
  00046	88 55 e6	 mov	 BYTE PTR __k$[ebp+2], dl
  00049	8a 50 03	 mov	 dl, BYTE PTR [eax+3]
  0004c	84 d2		 test	 dl, dl
  0004e	0f 84 78 01 00
	00		 je	 $LN93@LoadBool_e
  00054	80 f2 ea	 xor	 dl, -22			; ffffffeaH
  00057	88 55 e7	 mov	 BYTE PTR __k$[ebp+3], dl
  0005a	8a 50 04	 mov	 dl, BYTE PTR [eax+4]
  0005d	84 d2		 test	 dl, dl
  0005f	0f 84 61 01 00
	00		 je	 $LN92@LoadBool_e
  00065	80 f2 ed	 xor	 dl, -19			; ffffffedH
  00068	88 55 e8	 mov	 BYTE PTR __k$[ebp+4], dl
  0006b	8a 50 05	 mov	 dl, BYTE PTR [eax+5]
  0006e	84 d2		 test	 dl, dl
  00070	0f 84 4a 01 00
	00		 je	 $LN91@LoadBool_e
  00076	80 f2 ec	 xor	 dl, -20			; ffffffecH
  00079	88 55 e9	 mov	 BYTE PTR __k$[ebp+5], dl
  0007c	8a 50 06	 mov	 dl, BYTE PTR [eax+6]
  0007f	84 d2		 test	 dl, dl
  00081	0f 84 34 01 00
	00		 je	 $LN90@LoadBool_e
  00087	32 d1		 xor	 dl, cl
  00089	88 55 ea	 mov	 BYTE PTR __k$[ebp+6], dl
  0008c	8a 50 07	 mov	 dl, BYTE PTR [eax+7]
  0008f	84 d2		 test	 dl, dl
  00091	0f 84 1e 01 00
	00		 je	 $LN89@LoadBool_e
  00097	80 f2 ea	 xor	 dl, -22			; ffffffeaH
  0009a	88 55 eb	 mov	 BYTE PTR __k$[ebp+7], dl
  0009d	8a 50 08	 mov	 dl, BYTE PTR [eax+8]
  000a0	84 d2		 test	 dl, dl
  000a2	0f 84 07 01 00
	00		 je	 $LN88@LoadBool_e
  000a8	80 f2 ed	 xor	 dl, -19			; ffffffedH
  000ab	88 55 ec	 mov	 BYTE PTR __k$[ebp+8], dl
  000ae	8a 50 09	 mov	 dl, BYTE PTR [eax+9]
  000b1	84 d2		 test	 dl, dl
  000b3	0f 84 f0 00 00
	00		 je	 $LN87@LoadBool_e
  000b9	80 f2 ec	 xor	 dl, -20			; ffffffecH
  000bc	88 55 ed	 mov	 BYTE PTR __k$[ebp+9], dl
  000bf	8a 50 0a	 mov	 dl, BYTE PTR [eax+10]
  000c2	84 d2		 test	 dl, dl
  000c4	0f 84 da 00 00
	00		 je	 $LN86@LoadBool_e
  000ca	32 d1		 xor	 dl, cl
  000cc	88 55 ee	 mov	 BYTE PTR __k$[ebp+10], dl
  000cf	8a 50 0b	 mov	 dl, BYTE PTR [eax+11]
  000d2	84 d2		 test	 dl, dl
  000d4	0f 84 c4 00 00
	00		 je	 $LN85@LoadBool_e
  000da	80 f2 ea	 xor	 dl, -22			; ffffffeaH
  000dd	88 55 ef	 mov	 BYTE PTR __k$[ebp+11], dl
  000e0	8a 50 0c	 mov	 dl, BYTE PTR [eax+12]
  000e3	84 d2		 test	 dl, dl
  000e5	0f 84 ad 00 00
	00		 je	 $LN84@LoadBool_e
  000eb	80 f2 ed	 xor	 dl, -19			; ffffffedH
  000ee	88 55 f0	 mov	 BYTE PTR __k$[ebp+12], dl
  000f1	8a 50 0d	 mov	 dl, BYTE PTR [eax+13]
  000f4	84 d2		 test	 dl, dl
  000f6	0f 84 96 00 00
	00		 je	 $LN83@LoadBool_e
  000fc	80 f2 ec	 xor	 dl, -20			; ffffffecH
  000ff	88 55 f1	 mov	 BYTE PTR __k$[ebp+13], dl
  00102	8a 50 0e	 mov	 dl, BYTE PTR [eax+14]
  00105	84 d2		 test	 dl, dl
  00107	0f 84 80 00 00
	00		 je	 $LN82@LoadBool_e
  0010d	32 d1		 xor	 dl, cl
  0010f	88 55 f2	 mov	 BYTE PTR __k$[ebp+14], dl
  00112	8a 50 0f	 mov	 dl, BYTE PTR [eax+15]
  00115	84 d2		 test	 dl, dl
  00117	74 6e		 je	 SHORT $LN81@LoadBool_e
  00119	80 f2 ea	 xor	 dl, -22			; ffffffeaH
  0011c	88 55 f3	 mov	 BYTE PTR __k$[ebp+15], dl
  0011f	8a 50 10	 mov	 dl, BYTE PTR [eax+16]
  00122	84 d2		 test	 dl, dl
  00124	74 5b		 je	 SHORT $LN80@LoadBool_e
  00126	80 f2 ed	 xor	 dl, -19			; ffffffedH
  00129	80 78 11 00	 cmp	 BYTE PTR [eax+17], 0
  0012d	88 55 f4	 mov	 BYTE PTR __k$[ebp+16], dl
  00130	0f 84 ac 00 00
	00		 je	 $LN1@LoadBool_e
  00136	8a 50 12	 mov	 dl, BYTE PTR [eax+18]
  00139	84 d2		 test	 dl, dl
  0013b	74 3f		 je	 SHORT $LN78@LoadBool_e
  0013d	32 d1		 xor	 dl, cl
  0013f	88 55 f6	 mov	 BYTE PTR __k$[ebp+18], dl
  00142	8a 50 13	 mov	 dl, BYTE PTR [eax+19]
  00145	84 d2		 test	 dl, dl
  00147	74 2d		 je	 SHORT $LN77@LoadBool_e
  00149	80 f2 ea	 xor	 dl, -22			; ffffffeaH
  0014c	88 55 f7	 mov	 BYTE PTR __k$[ebp+19], dl
  0014f	8a 50 14	 mov	 dl, BYTE PTR [eax+20]
  00152	84 d2		 test	 dl, dl
  00154	74 1a		 je	 SHORT $LN76@LoadBool_e
  00156	8a 40 15	 mov	 al, BYTE PTR [eax+21]
  00159	80 f2 ed	 xor	 dl, -19			; ffffffedH
  0015c	88 55 f8	 mov	 BYTE PTR __k$[ebp+20], dl
  0015f	84 c0		 test	 al, al
  00161	74 07		 je	 SHORT $LN75@LoadBool_e
  00163	34 ec		 xor	 al, -20			; ffffffecH
  00165	88 45 f9	 mov	 BYTE PTR __k$[ebp+21], al
  00168	eb 78		 jmp	 SHORT $LN1@LoadBool_e
$LN75@LoadBool_e:
  0016a	c6 45 f9 ec	 mov	 BYTE PTR __k$[ebp+21], -20 ; ffffffecH
  0016e	eb 72		 jmp	 SHORT $LN1@LoadBool_e
$LN76@LoadBool_e:
  00170	c6 45 f8 ed	 mov	 BYTE PTR __k$[ebp+20], -19 ; ffffffedH
  00174	eb 6c		 jmp	 SHORT $LN1@LoadBool_e
$LN77@LoadBool_e:
  00176	c6 45 f7 ea	 mov	 BYTE PTR __k$[ebp+19], -22 ; ffffffeaH
  0017a	eb 66		 jmp	 SHORT $LN1@LoadBool_e
$LN78@LoadBool_e:
  0017c	88 4d f6	 mov	 BYTE PTR __k$[ebp+18], cl
  0017f	eb 61		 jmp	 SHORT $LN1@LoadBool_e
$LN80@LoadBool_e:
  00181	c6 45 f4 ed	 mov	 BYTE PTR __k$[ebp+16], -19 ; ffffffedH
  00185	eb 5b		 jmp	 SHORT $LN1@LoadBool_e
$LN81@LoadBool_e:
  00187	c6 45 f3 ea	 mov	 BYTE PTR __k$[ebp+15], -22 ; ffffffeaH
  0018b	eb 55		 jmp	 SHORT $LN1@LoadBool_e
$LN82@LoadBool_e:
  0018d	88 4d f2	 mov	 BYTE PTR __k$[ebp+14], cl
  00190	eb 50		 jmp	 SHORT $LN1@LoadBool_e
$LN83@LoadBool_e:
  00192	c6 45 f1 ec	 mov	 BYTE PTR __k$[ebp+13], -20 ; ffffffecH
  00196	eb 4a		 jmp	 SHORT $LN1@LoadBool_e
$LN84@LoadBool_e:
  00198	c6 45 f0 ed	 mov	 BYTE PTR __k$[ebp+12], -19 ; ffffffedH
  0019c	eb 44		 jmp	 SHORT $LN1@LoadBool_e
$LN85@LoadBool_e:
  0019e	c6 45 ef ea	 mov	 BYTE PTR __k$[ebp+11], -22 ; ffffffeaH
  001a2	eb 3e		 jmp	 SHORT $LN1@LoadBool_e
$LN86@LoadBool_e:
  001a4	88 4d ee	 mov	 BYTE PTR __k$[ebp+10], cl
  001a7	eb 39		 jmp	 SHORT $LN1@LoadBool_e
$LN87@LoadBool_e:
  001a9	c6 45 ed ec	 mov	 BYTE PTR __k$[ebp+9], -20 ; ffffffecH
  001ad	eb 33		 jmp	 SHORT $LN1@LoadBool_e
$LN88@LoadBool_e:
  001af	c6 45 ec ed	 mov	 BYTE PTR __k$[ebp+8], -19 ; ffffffedH
  001b3	eb 2d		 jmp	 SHORT $LN1@LoadBool_e
$LN89@LoadBool_e:
  001b5	c6 45 eb ea	 mov	 BYTE PTR __k$[ebp+7], -22 ; ffffffeaH
  001b9	eb 27		 jmp	 SHORT $LN1@LoadBool_e
$LN90@LoadBool_e:
  001bb	88 4d ea	 mov	 BYTE PTR __k$[ebp+6], cl
  001be	eb 22		 jmp	 SHORT $LN1@LoadBool_e
$LN91@LoadBool_e:
  001c0	c6 45 e9 ec	 mov	 BYTE PTR __k$[ebp+5], -20 ; ffffffecH
  001c4	eb 1c		 jmp	 SHORT $LN1@LoadBool_e
$LN92@LoadBool_e:
  001c6	c6 45 e8 ed	 mov	 BYTE PTR __k$[ebp+4], -19 ; ffffffedH
  001ca	eb 16		 jmp	 SHORT $LN1@LoadBool_e
$LN93@LoadBool_e:
  001cc	c6 45 e7 ea	 mov	 BYTE PTR __k$[ebp+3], -22 ; ffffffeaH
  001d0	eb 10		 jmp	 SHORT $LN1@LoadBool_e
$LN94@LoadBool_e:
  001d2	c6 45 e6 eb	 mov	 BYTE PTR __k$[ebp+2], -21 ; ffffffebH
  001d6	eb 0a		 jmp	 SHORT $LN1@LoadBool_e
$LN95@LoadBool_e:
  001d8	c6 45 e5 ec	 mov	 BYTE PTR __k$[ebp+1], -20 ; ffffffecH
  001dc	eb 04		 jmp	 SHORT $LN1@LoadBool_e
$LN96@LoadBool_e:
  001de	c6 45 e4 ed	 mov	 BYTE PTR __k$[ebp], -19	; ffffffedH
$LN1@LoadBool_e:
  001e2	6a 04		 push	 4
  001e4	8d 45 e4	 lea	 eax, DWORD PTR __k$[ebp]
  001e7	c6 45 f5 00	 mov	 BYTE PTR __k$[ebp+17], 0
  001eb	5a		 pop	 edx
$LL104@LoadBool_e:
  001ec	81 30 ed ec eb
	ea		 xor	 DWORD PTR [eax], -353637139 ; eaebecedH
  001f2	83 c0 04	 add	 eax, 4
  001f5	4a		 dec	 edx
  001f6	75 f4		 jne	 SHORT $LL104@LoadBool_e

; 103  : 		return LoadBool(_k, b);

  001f8	ff 75 0c	 push	 DWORD PTR _b$[ebp]
  001fb	80 75 f4 ed	 xor	 BYTE PTR __k$[ebp+16], -19 ; ffffffedH
  001ff	8d 45 e4	 lea	 eax, DWORD PTR __k$[ebp]
  00202	50		 push	 eax
  00203	8b ce		 mov	 ecx, esi
  00205	ff 15 00 00 00
	00		 call	 DWORD PTR __imp_?LoadBool@ioINILoader@@QAE_NPBD_N@Z

; 104  : 	}

  0020b	8b 4d fc	 mov	 ecx, DWORD PTR __$ArrayPad$[ebp]
  0020e	33 cd		 xor	 ecx, ebp
  00210	5e		 pop	 esi
  00211	e8 00 00 00 00	 call	 @__security_check_cookie@4
  00216	c9		 leave
  00217	c2 08 00	 ret	 8
??$LoadBool_e@$0BC@@ioINILoader@@QAE_NAAY0BC@$$CBD_N@Z ENDP ; ioINILoader::LoadBool_e<18>
_TEXT	ENDS
PUBLIC	__$ArrayPad$
PUBLIC	??$LoadBool_e@$0BA@@ioINILoader@@QAE_NAAY0BA@$$CBD_N@Z ; ioINILoader::LoadBool_e<16>
; Function compile flags: /Ogsp
;	COMDAT ??$LoadBool_e@$0BA@@ioINILoader@@QAE_NAAY0BA@$$CBD_N@Z
_TEXT	SEGMENT
__k$ = -24						; size = 16
__$ArrayPad$ = -4					; size = 4
_k$ = 8							; size = 4
_b$ = 12						; size = 1
??$LoadBool_e@$0BA@@ioINILoader@@QAE_NAAY0BA@$$CBD_N@Z PROC ; ioINILoader::LoadBool_e<16>, COMDAT
; _this$ = ecx

; 101  : 	{

  00000	55		 push	 ebp
  00001	8b ec		 mov	 ebp, esp
  00003	83 ec 18	 sub	 esp, 24			; 00000018H
  00006	a1 00 00 00 00	 mov	 eax, DWORD PTR ___security_cookie
  0000b	33 c5		 xor	 eax, ebp
  0000d	89 45 fc	 mov	 DWORD PTR __$ArrayPad$[ebp], eax
  00010	8b 45 08	 mov	 eax, DWORD PTR _k$[ebp]

; 102  : 		_ENCSTR(k, _k);

  00013	8a 10		 mov	 dl, BYTE PTR [eax]
  00015	56		 push	 esi
  00016	8b f1		 mov	 esi, ecx
  00018	84 d2		 test	 dl, dl
  0001a	0f 84 8c 01 00
	00		 je	 $LN96@LoadBool_e@2
  00020	80 f2 ed	 xor	 dl, -19			; ffffffedH
  00023	88 55 e8	 mov	 BYTE PTR __k$[ebp], dl
  00026	8a 50 01	 mov	 dl, BYTE PTR [eax+1]
  00029	84 d2		 test	 dl, dl
  0002b	0f 84 75 01 00
	00		 je	 $LN95@LoadBool_e@2
  00031	80 f2 ec	 xor	 dl, -20			; ffffffecH
  00034	88 55 e9	 mov	 BYTE PTR __k$[ebp+1], dl
  00037	8a 50 02	 mov	 dl, BYTE PTR [eax+2]
  0003a	84 d2		 test	 dl, dl
  0003c	0f 84 5e 01 00
	00		 je	 $LN94@LoadBool_e@2
  00042	b1 eb		 mov	 cl, -21			; ffffffebH
  00044	32 d1		 xor	 dl, cl
  00046	88 55 ea	 mov	 BYTE PTR __k$[ebp+2], dl
  00049	8a 50 03	 mov	 dl, BYTE PTR [eax+3]
  0004c	84 d2		 test	 dl, dl
  0004e	0f 84 46 01 00
	00		 je	 $LN93@LoadBool_e@2
  00054	80 f2 ea	 xor	 dl, -22			; ffffffeaH
  00057	88 55 eb	 mov	 BYTE PTR __k$[ebp+3], dl
  0005a	8a 50 04	 mov	 dl, BYTE PTR [eax+4]
  0005d	84 d2		 test	 dl, dl
  0005f	0f 84 2f 01 00
	00		 je	 $LN92@LoadBool_e@2
  00065	80 f2 ed	 xor	 dl, -19			; ffffffedH
  00068	88 55 ec	 mov	 BYTE PTR __k$[ebp+4], dl
  0006b	8a 50 05	 mov	 dl, BYTE PTR [eax+5]
  0006e	84 d2		 test	 dl, dl
  00070	0f 84 18 01 00
	00		 je	 $LN91@LoadBool_e@2
  00076	80 f2 ec	 xor	 dl, -20			; ffffffecH
  00079	88 55 ed	 mov	 BYTE PTR __k$[ebp+5], dl
  0007c	8a 50 06	 mov	 dl, BYTE PTR [eax+6]
  0007f	84 d2		 test	 dl, dl
  00081	0f 84 02 01 00
	00		 je	 $LN90@LoadBool_e@2
  00087	32 d1		 xor	 dl, cl
  00089	88 55 ee	 mov	 BYTE PTR __k$[ebp+6], dl
  0008c	8a 50 07	 mov	 dl, BYTE PTR [eax+7]
  0008f	84 d2		 test	 dl, dl
  00091	0f 84 ec 00 00
	00		 je	 $LN89@LoadBool_e@2
  00097	80 f2 ea	 xor	 dl, -22			; ffffffeaH
  0009a	88 55 ef	 mov	 BYTE PTR __k$[ebp+7], dl
  0009d	8a 50 08	 mov	 dl, BYTE PTR [eax+8]
  000a0	84 d2		 test	 dl, dl
  000a2	0f 84 d5 00 00
	00		 je	 $LN88@LoadBool_e@2
  000a8	80 f2 ed	 xor	 dl, -19			; ffffffedH
  000ab	88 55 f0	 mov	 BYTE PTR __k$[ebp+8], dl
  000ae	8a 50 09	 mov	 dl, BYTE PTR [eax+9]
  000b1	84 d2		 test	 dl, dl
  000b3	0f 84 be 00 00
	00		 je	 $LN87@LoadBool_e@2
  000b9	80 f2 ec	 xor	 dl, -20			; ffffffecH
  000bc	88 55 f1	 mov	 BYTE PTR __k$[ebp+9], dl
  000bf	8a 50 0a	 mov	 dl, BYTE PTR [eax+10]
  000c2	84 d2		 test	 dl, dl
  000c4	0f 84 a8 00 00
	00		 je	 $LN86@LoadBool_e@2
  000ca	32 d1		 xor	 dl, cl
  000cc	88 55 f2	 mov	 BYTE PTR __k$[ebp+10], dl
  000cf	8a 50 0b	 mov	 dl, BYTE PTR [eax+11]
  000d2	84 d2		 test	 dl, dl
  000d4	0f 84 92 00 00
	00		 je	 $LN85@LoadBool_e@2
  000da	80 f2 ea	 xor	 dl, -22			; ffffffeaH
  000dd	88 55 f3	 mov	 BYTE PTR __k$[ebp+11], dl
  000e0	8a 50 0c	 mov	 dl, BYTE PTR [eax+12]
  000e3	84 d2		 test	 dl, dl
  000e5	74 7f		 je	 SHORT $LN84@LoadBool_e@2
  000e7	80 f2 ed	 xor	 dl, -19			; ffffffedH
  000ea	88 55 f4	 mov	 BYTE PTR __k$[ebp+12], dl
  000ed	8a 50 0d	 mov	 dl, BYTE PTR [eax+13]
  000f0	84 d2		 test	 dl, dl
  000f2	74 6c		 je	 SHORT $LN83@LoadBool_e@2
  000f4	80 f2 ec	 xor	 dl, -20			; ffffffecH
  000f7	88 55 f5	 mov	 BYTE PTR __k$[ebp+13], dl
  000fa	8a 50 0e	 mov	 dl, BYTE PTR [eax+14]
  000fd	84 d2		 test	 dl, dl
  000ff	74 5a		 je	 SHORT $LN82@LoadBool_e@2
  00101	32 d1		 xor	 dl, cl
  00103	80 78 0f 00	 cmp	 BYTE PTR [eax+15], 0
  00107	88 55 f6	 mov	 BYTE PTR __k$[ebp+14], dl
  0010a	0f 84 a0 00 00
	00		 je	 $LN1@LoadBool_e@2
  00110	8a 50 10	 mov	 dl, BYTE PTR [eax+16]
  00113	84 d2		 test	 dl, dl
  00115	74 3e		 je	 SHORT $LN80@LoadBool_e@2
  00117	80 f2 ed	 xor	 dl, -19			; ffffffedH
  0011a	88 55 f8	 mov	 BYTE PTR __k$[ebp+16], dl
  0011d	8a 50 11	 mov	 dl, BYTE PTR [eax+17]
  00120	84 d2		 test	 dl, dl
  00122	74 2b		 je	 SHORT $LN79@LoadBool_e@2
  00124	80 f2 ec	 xor	 dl, -20			; ffffffecH
  00127	88 55 f9	 mov	 BYTE PTR __k$[ebp+17], dl
  0012a	8a 50 12	 mov	 dl, BYTE PTR [eax+18]
  0012d	84 d2		 test	 dl, dl
  0012f	74 19		 je	 SHORT $LN78@LoadBool_e@2
  00131	8a 40 13	 mov	 al, BYTE PTR [eax+19]
  00134	32 d1		 xor	 dl, cl
  00136	88 55 fa	 mov	 BYTE PTR __k$[ebp+18], dl
  00139	84 c0		 test	 al, al
  0013b	74 07		 je	 SHORT $LN77@LoadBool_e@2
  0013d	34 ea		 xor	 al, -22			; ffffffeaH
  0013f	88 45 fb	 mov	 BYTE PTR __k$[ebp+19], al
  00142	eb 6c		 jmp	 SHORT $LN1@LoadBool_e@2
$LN77@LoadBool_e@2:
  00144	c6 45 fb ea	 mov	 BYTE PTR __k$[ebp+19], -22 ; ffffffeaH
  00148	eb 66		 jmp	 SHORT $LN1@LoadBool_e@2
$LN78@LoadBool_e@2:
  0014a	88 4d fa	 mov	 BYTE PTR __k$[ebp+18], cl
  0014d	eb 61		 jmp	 SHORT $LN1@LoadBool_e@2
$LN79@LoadBool_e@2:
  0014f	c6 45 f9 ec	 mov	 BYTE PTR __k$[ebp+17], -20 ; ffffffecH
  00153	eb 5b		 jmp	 SHORT $LN1@LoadBool_e@2
$LN80@LoadBool_e@2:
  00155	c6 45 f8 ed	 mov	 BYTE PTR __k$[ebp+16], -19 ; ffffffedH
  00159	eb 55		 jmp	 SHORT $LN1@LoadBool_e@2
$LN82@LoadBool_e@2:
  0015b	88 4d f6	 mov	 BYTE PTR __k$[ebp+14], cl
  0015e	eb 50		 jmp	 SHORT $LN1@LoadBool_e@2
$LN83@LoadBool_e@2:
  00160	c6 45 f5 ec	 mov	 BYTE PTR __k$[ebp+13], -20 ; ffffffecH
  00164	eb 4a		 jmp	 SHORT $LN1@LoadBool_e@2
$LN84@LoadBool_e@2:
  00166	c6 45 f4 ed	 mov	 BYTE PTR __k$[ebp+12], -19 ; ffffffedH
  0016a	eb 44		 jmp	 SHORT $LN1@LoadBool_e@2
$LN85@LoadBool_e@2:
  0016c	c6 45 f3 ea	 mov	 BYTE PTR __k$[ebp+11], -22 ; ffffffeaH
  00170	eb 3e		 jmp	 SHORT $LN1@LoadBool_e@2
$LN86@LoadBool_e@2:
  00172	88 4d f2	 mov	 BYTE PTR __k$[ebp+10], cl
  00175	eb 39		 jmp	 SHORT $LN1@LoadBool_e@2
$LN87@LoadBool_e@2:
  00177	c6 45 f1 ec	 mov	 BYTE PTR __k$[ebp+9], -20 ; ffffffecH
  0017b	eb 33		 jmp	 SHORT $LN1@LoadBool_e@2
$LN88@LoadBool_e@2:
  0017d	c6 45 f0 ed	 mov	 BYTE PTR __k$[ebp+8], -19 ; ffffffedH
  00181	eb 2d		 jmp	 SHORT $LN1@LoadBool_e@2
$LN89@LoadBool_e@2:
  00183	c6 45 ef ea	 mov	 BYTE PTR __k$[ebp+7], -22 ; ffffffeaH
  00187	eb 27		 jmp	 SHORT $LN1@LoadBool_e@2
$LN90@LoadBool_e@2:
  00189	88 4d ee	 mov	 BYTE PTR __k$[ebp+6], cl
  0018c	eb 22		 jmp	 SHORT $LN1@LoadBool_e@2
$LN91@LoadBool_e@2:
  0018e	c6 45 ed ec	 mov	 BYTE PTR __k$[ebp+5], -20 ; ffffffecH
  00192	eb 1c		 jmp	 SHORT $LN1@LoadBool_e@2
$LN92@LoadBool_e@2:
  00194	c6 45 ec ed	 mov	 BYTE PTR __k$[ebp+4], -19 ; ffffffedH
  00198	eb 16		 jmp	 SHORT $LN1@LoadBool_e@2
$LN93@LoadBool_e@2:
  0019a	c6 45 eb ea	 mov	 BYTE PTR __k$[ebp+3], -22 ; ffffffeaH
  0019e	eb 10		 jmp	 SHORT $LN1@LoadBool_e@2
$LN94@LoadBool_e@2:
  001a0	c6 45 ea eb	 mov	 BYTE PTR __k$[ebp+2], -21 ; ffffffebH
  001a4	eb 0a		 jmp	 SHORT $LN1@LoadBool_e@2
$LN95@LoadBool_e@2:
  001a6	c6 45 e9 ec	 mov	 BYTE PTR __k$[ebp+1], -20 ; ffffffecH
  001aa	eb 04		 jmp	 SHORT $LN1@LoadBool_e@2
$LN96@LoadBool_e@2:
  001ac	c6 45 e8 ed	 mov	 BYTE PTR __k$[ebp], -19	; ffffffedH
$LN1@LoadBool_e@2:
  001b0	6a 03		 push	 3
  001b2	8d 45 e8	 lea	 eax, DWORD PTR __k$[ebp]
  001b5	c6 45 f7 00	 mov	 BYTE PTR __k$[ebp+15], 0
  001b9	5a		 pop	 edx
$LL104@LoadBool_e@2:
  001ba	81 30 ed ec eb
	ea		 xor	 DWORD PTR [eax], -353637139 ; eaebecedH
  001c0	83 c0 04	 add	 eax, 4
  001c3	4a		 dec	 edx
  001c4	75 f4		 jne	 SHORT $LL104@LoadBool_e@2
  001c6	6a 0c		 push	 12			; 0000000cH
  001c8	58		 pop	 eax
$LL101@LoadBool_e@2:
  001c9	8b c8		 mov	 ecx, eax
  001cb	81 e1 03 00 00
	80		 and	 ecx, -2147483645	; 80000003H
  001d1	79 05		 jns	 SHORT $LN111@LoadBool_e@2
  001d3	49		 dec	 ecx
  001d4	83 c9 fc	 or	 ecx, -4			; fffffffcH
  001d7	41		 inc	 ecx
$LN111@LoadBool_e@2:
  001d8	b2 ed		 mov	 dl, -19			; ffffffedH
  001da	2a d1		 sub	 dl, cl
  001dc	30 54 05 e8	 xor	 BYTE PTR __k$[ebp+eax], dl
  001e0	40		 inc	 eax
  001e1	83 f8 0f	 cmp	 eax, 15			; 0000000fH
  001e4	7c e3		 jl	 SHORT $LL101@LoadBool_e@2

; 103  : 		return LoadBool(_k, b);

  001e6	ff 75 0c	 push	 DWORD PTR _b$[ebp]
  001e9	8d 45 e8	 lea	 eax, DWORD PTR __k$[ebp]
  001ec	50		 push	 eax
  001ed	8b ce		 mov	 ecx, esi
  001ef	ff 15 00 00 00
	00		 call	 DWORD PTR __imp_?LoadBool@ioINILoader@@QAE_NPBD_N@Z

; 104  : 	}

  001f5	8b 4d fc	 mov	 ecx, DWORD PTR __$ArrayPad$[ebp]
  001f8	33 cd		 xor	 ecx, ebp
  001fa	5e		 pop	 esi
  001fb	e8 00 00 00 00	 call	 @__security_check_cookie@4
  00200	c9		 leave
  00201	c2 08 00	 ret	 8
??$LoadBool_e@$0BA@@ioINILoader@@QAE_NAAY0BA@$$CBD_N@Z ENDP ; ioINILoader::LoadBool_e<16>
_TEXT	ENDS
PUBLIC	__$ArrayPad$
PUBLIC	??$LoadBool_e@$0BE@@ioINILoader@@QAE_NAAY0BE@$$CBD_N@Z ; ioINILoader::LoadBool_e<20>
; Function compile flags: /Ogsp
;	COMDAT ??$LoadBool_e@$0BE@@ioINILoader@@QAE_NAAY0BE@$$CBD_N@Z
_TEXT	SEGMENT
__k$ = -28						; size = 20
__$ArrayPad$ = -4					; size = 4
_k$ = 8							; size = 4
_b$ = 12						; size = 1
??$LoadBool_e@$0BE@@ioINILoader@@QAE_NAAY0BE@$$CBD_N@Z PROC ; ioINILoader::LoadBool_e<20>, COMDAT
; _this$ = ecx

; 101  : 	{

  00000	55		 push	 ebp
  00001	8b ec		 mov	 ebp, esp
  00003	83 ec 1c	 sub	 esp, 28			; 0000001cH
  00006	a1 00 00 00 00	 mov	 eax, DWORD PTR ___security_cookie
  0000b	33 c5		 xor	 eax, ebp
  0000d	89 45 fc	 mov	 DWORD PTR __$ArrayPad$[ebp], eax
  00010	8b 45 08	 mov	 eax, DWORD PTR _k$[ebp]

; 102  : 		_ENCSTR(k, _k);

  00013	8a 10		 mov	 dl, BYTE PTR [eax]
  00015	53		 push	 ebx
  00016	56		 push	 esi
  00017	8b f1		 mov	 esi, ecx
  00019	84 d2		 test	 dl, dl
  0001b	0f 84 dd 01 00
	00		 je	 $LN96@LoadBool_e@3
  00021	80 f2 ed	 xor	 dl, -19			; ffffffedH
  00024	88 55 e4	 mov	 BYTE PTR __k$[ebp], dl
  00027	8a 50 01	 mov	 dl, BYTE PTR [eax+1]
  0002a	84 d2		 test	 dl, dl
  0002c	0f 84 c6 01 00
	00		 je	 $LN95@LoadBool_e@3
  00032	b3 ec		 mov	 bl, -20			; ffffffecH
  00034	32 d3		 xor	 dl, bl
  00036	88 55 e5	 mov	 BYTE PTR __k$[ebp+1], dl
  00039	8a 50 02	 mov	 dl, BYTE PTR [eax+2]
  0003c	84 d2		 test	 dl, dl
  0003e	0f 84 ae 01 00
	00		 je	 $LN94@LoadBool_e@3
  00044	b1 eb		 mov	 cl, -21			; ffffffebH
  00046	32 d1		 xor	 dl, cl
  00048	88 55 e6	 mov	 BYTE PTR __k$[ebp+2], dl
  0004b	8a 50 03	 mov	 dl, BYTE PTR [eax+3]
  0004e	84 d2		 test	 dl, dl
  00050	0f 84 96 01 00
	00		 je	 $LN93@LoadBool_e@3
  00056	80 f2 ea	 xor	 dl, -22			; ffffffeaH
  00059	88 55 e7	 mov	 BYTE PTR __k$[ebp+3], dl
  0005c	8a 50 04	 mov	 dl, BYTE PTR [eax+4]
  0005f	84 d2		 test	 dl, dl
  00061	0f 84 7f 01 00
	00		 je	 $LN92@LoadBool_e@3
  00067	80 f2 ed	 xor	 dl, -19			; ffffffedH
  0006a	88 55 e8	 mov	 BYTE PTR __k$[ebp+4], dl
  0006d	8a 50 05	 mov	 dl, BYTE PTR [eax+5]
  00070	84 d2		 test	 dl, dl
  00072	0f 84 69 01 00
	00		 je	 $LN91@LoadBool_e@3
  00078	32 d3		 xor	 dl, bl
  0007a	88 55 e9	 mov	 BYTE PTR __k$[ebp+5], dl
  0007d	8a 50 06	 mov	 dl, BYTE PTR [eax+6]
  00080	84 d2		 test	 dl, dl
  00082	0f 84 54 01 00
	00		 je	 $LN90@LoadBool_e@3
  00088	32 d1		 xor	 dl, cl
  0008a	88 55 ea	 mov	 BYTE PTR __k$[ebp+6], dl
  0008d	8a 50 07	 mov	 dl, BYTE PTR [eax+7]
  00090	84 d2		 test	 dl, dl
  00092	0f 84 3e 01 00
	00		 je	 $LN89@LoadBool_e@3
  00098	80 f2 ea	 xor	 dl, -22			; ffffffeaH
  0009b	88 55 eb	 mov	 BYTE PTR __k$[ebp+7], dl
  0009e	8a 50 08	 mov	 dl, BYTE PTR [eax+8]
  000a1	84 d2		 test	 dl, dl
  000a3	0f 84 27 01 00
	00		 je	 $LN88@LoadBool_e@3
  000a9	80 f2 ed	 xor	 dl, -19			; ffffffedH
  000ac	88 55 ec	 mov	 BYTE PTR __k$[ebp+8], dl
  000af	8a 50 09	 mov	 dl, BYTE PTR [eax+9]
  000b2	84 d2		 test	 dl, dl
  000b4	0f 84 11 01 00
	00		 je	 $LN87@LoadBool_e@3
  000ba	32 d3		 xor	 dl, bl
  000bc	88 55 ed	 mov	 BYTE PTR __k$[ebp+9], dl
  000bf	8a 50 0a	 mov	 dl, BYTE PTR [eax+10]
  000c2	84 d2		 test	 dl, dl
  000c4	0f 84 fc 00 00
	00		 je	 $LN86@LoadBool_e@3
  000ca	32 d1		 xor	 dl, cl
  000cc	88 55 ee	 mov	 BYTE PTR __k$[ebp+10], dl
  000cf	8a 50 0b	 mov	 dl, BYTE PTR [eax+11]
  000d2	84 d2		 test	 dl, dl
  000d4	0f 84 e6 00 00
	00		 je	 $LN85@LoadBool_e@3
  000da	80 f2 ea	 xor	 dl, -22			; ffffffeaH
  000dd	88 55 ef	 mov	 BYTE PTR __k$[ebp+11], dl
  000e0	8a 50 0c	 mov	 dl, BYTE PTR [eax+12]
  000e3	84 d2		 test	 dl, dl
  000e5	0f 84 cf 00 00
	00		 je	 $LN84@LoadBool_e@3
  000eb	80 f2 ed	 xor	 dl, -19			; ffffffedH
  000ee	88 55 f0	 mov	 BYTE PTR __k$[ebp+12], dl
  000f1	8a 50 0d	 mov	 dl, BYTE PTR [eax+13]
  000f4	84 d2		 test	 dl, dl
  000f6	0f 84 b9 00 00
	00		 je	 $LN83@LoadBool_e@3
  000fc	32 d3		 xor	 dl, bl
  000fe	88 55 f1	 mov	 BYTE PTR __k$[ebp+13], dl
  00101	8a 50 0e	 mov	 dl, BYTE PTR [eax+14]
  00104	84 d2		 test	 dl, dl
  00106	0f 84 a4 00 00
	00		 je	 $LN82@LoadBool_e@3
  0010c	32 d1		 xor	 dl, cl
  0010e	88 55 f2	 mov	 BYTE PTR __k$[ebp+14], dl
  00111	8a 50 0f	 mov	 dl, BYTE PTR [eax+15]
  00114	84 d2		 test	 dl, dl
  00116	0f 84 8e 00 00
	00		 je	 $LN81@LoadBool_e@3
  0011c	80 f2 ea	 xor	 dl, -22			; ffffffeaH
  0011f	88 55 f3	 mov	 BYTE PTR __k$[ebp+15], dl
  00122	8a 50 10	 mov	 dl, BYTE PTR [eax+16]
  00125	84 d2		 test	 dl, dl
  00127	74 7b		 je	 SHORT $LN80@LoadBool_e@3
  00129	80 f2 ed	 xor	 dl, -19			; ffffffedH
  0012c	88 55 f4	 mov	 BYTE PTR __k$[ebp+16], dl
  0012f	8a 50 11	 mov	 dl, BYTE PTR [eax+17]
  00132	84 d2		 test	 dl, dl
  00134	74 69		 je	 SHORT $LN79@LoadBool_e@3
  00136	32 d3		 xor	 dl, bl
  00138	88 55 f5	 mov	 BYTE PTR __k$[ebp+17], dl
  0013b	8a 50 12	 mov	 dl, BYTE PTR [eax+18]
  0013e	84 d2		 test	 dl, dl
  00140	74 58		 je	 SHORT $LN78@LoadBool_e@3
  00142	32 d1		 xor	 dl, cl
  00144	80 78 13 00	 cmp	 BYTE PTR [eax+19], 0
  00148	88 55 f6	 mov	 BYTE PTR __k$[ebp+18], dl
  0014b	0f 84 b1 00 00
	00		 je	 $LN1@LoadBool_e@3
  00151	8a 50 14	 mov	 dl, BYTE PTR [eax+20]
  00154	84 d2		 test	 dl, dl
  00156	74 3c		 je	 SHORT $LN76@LoadBool_e@3
  00158	80 f2 ed	 xor	 dl, -19			; ffffffedH
  0015b	88 55 f8	 mov	 BYTE PTR __k$[ebp+20], dl
  0015e	8a 50 15	 mov	 dl, BYTE PTR [eax+21]
  00161	84 d2		 test	 dl, dl
  00163	74 2a		 je	 SHORT $LN75@LoadBool_e@3
  00165	32 d3		 xor	 dl, bl
  00167	88 55 f9	 mov	 BYTE PTR __k$[ebp+21], dl
  0016a	8a 50 16	 mov	 dl, BYTE PTR [eax+22]
  0016d	84 d2		 test	 dl, dl
  0016f	74 19		 je	 SHORT $LN74@LoadBool_e@3
  00171	8a 40 17	 mov	 al, BYTE PTR [eax+23]
  00174	32 d1		 xor	 dl, cl
  00176	88 55 fa	 mov	 BYTE PTR __k$[ebp+22], dl
  00179	84 c0		 test	 al, al
  0017b	74 07		 je	 SHORT $LN73@LoadBool_e@3
  0017d	34 ea		 xor	 al, -22			; ffffffeaH
  0017f	88 45 fb	 mov	 BYTE PTR __k$[ebp+23], al
  00182	eb 7e		 jmp	 SHORT $LN1@LoadBool_e@3
$LN73@LoadBool_e@3:
  00184	c6 45 fb ea	 mov	 BYTE PTR __k$[ebp+23], -22 ; ffffffeaH
  00188	eb 78		 jmp	 SHORT $LN1@LoadBool_e@3
$LN74@LoadBool_e@3:
  0018a	88 4d fa	 mov	 BYTE PTR __k$[ebp+22], cl
  0018d	eb 73		 jmp	 SHORT $LN1@LoadBool_e@3
$LN75@LoadBool_e@3:
  0018f	88 5d f9	 mov	 BYTE PTR __k$[ebp+21], bl
  00192	eb 6e		 jmp	 SHORT $LN1@LoadBool_e@3
$LN76@LoadBool_e@3:
  00194	c6 45 f8 ed	 mov	 BYTE PTR __k$[ebp+20], -19 ; ffffffedH
  00198	eb 68		 jmp	 SHORT $LN1@LoadBool_e@3
$LN78@LoadBool_e@3:
  0019a	88 4d f6	 mov	 BYTE PTR __k$[ebp+18], cl
  0019d	eb 63		 jmp	 SHORT $LN1@LoadBool_e@3
$LN79@LoadBool_e@3:
  0019f	88 5d f5	 mov	 BYTE PTR __k$[ebp+17], bl
  001a2	eb 5e		 jmp	 SHORT $LN1@LoadBool_e@3
$LN80@LoadBool_e@3:
  001a4	c6 45 f4 ed	 mov	 BYTE PTR __k$[ebp+16], -19 ; ffffffedH
  001a8	eb 58		 jmp	 SHORT $LN1@LoadBool_e@3
$LN81@LoadBool_e@3:
  001aa	c6 45 f3 ea	 mov	 BYTE PTR __k$[ebp+15], -22 ; ffffffeaH
  001ae	eb 52		 jmp	 SHORT $LN1@LoadBool_e@3
$LN82@LoadBool_e@3:
  001b0	88 4d f2	 mov	 BYTE PTR __k$[ebp+14], cl
  001b3	eb 4d		 jmp	 SHORT $LN1@LoadBool_e@3
$LN83@LoadBool_e@3:
  001b5	88 5d f1	 mov	 BYTE PTR __k$[ebp+13], bl
  001b8	eb 48		 jmp	 SHORT $LN1@LoadBool_e@3
$LN84@LoadBool_e@3:
  001ba	c6 45 f0 ed	 mov	 BYTE PTR __k$[ebp+12], -19 ; ffffffedH
  001be	eb 42		 jmp	 SHORT $LN1@LoadBool_e@3
$LN85@LoadBool_e@3:
  001c0	c6 45 ef ea	 mov	 BYTE PTR __k$[ebp+11], -22 ; ffffffeaH
  001c4	eb 3c		 jmp	 SHORT $LN1@LoadBool_e@3
$LN86@LoadBool_e@3:
  001c6	88 4d ee	 mov	 BYTE PTR __k$[ebp+10], cl
  001c9	eb 37		 jmp	 SHORT $LN1@LoadBool_e@3
$LN87@LoadBool_e@3:
  001cb	88 5d ed	 mov	 BYTE PTR __k$[ebp+9], bl
  001ce	eb 32		 jmp	 SHORT $LN1@LoadBool_e@3
$LN88@LoadBool_e@3:
  001d0	c6 45 ec ed	 mov	 BYTE PTR __k$[ebp+8], -19 ; ffffffedH
  001d4	eb 2c		 jmp	 SHORT $LN1@LoadBool_e@3
$LN89@LoadBool_e@3:
  001d6	c6 45 eb ea	 mov	 BYTE PTR __k$[ebp+7], -22 ; ffffffeaH
  001da	eb 26		 jmp	 SHORT $LN1@LoadBool_e@3
$LN90@LoadBool_e@3:
  001dc	88 4d ea	 mov	 BYTE PTR __k$[ebp+6], cl
  001df	eb 21		 jmp	 SHORT $LN1@LoadBool_e@3
$LN91@LoadBool_e@3:
  001e1	88 5d e9	 mov	 BYTE PTR __k$[ebp+5], bl
  001e4	eb 1c		 jmp	 SHORT $LN1@LoadBool_e@3
$LN92@LoadBool_e@3:
  001e6	c6 45 e8 ed	 mov	 BYTE PTR __k$[ebp+4], -19 ; ffffffedH
  001ea	eb 16		 jmp	 SHORT $LN1@LoadBool_e@3
$LN93@LoadBool_e@3:
  001ec	c6 45 e7 ea	 mov	 BYTE PTR __k$[ebp+3], -22 ; ffffffeaH
  001f0	eb 10		 jmp	 SHORT $LN1@LoadBool_e@3
$LN94@LoadBool_e@3:
  001f2	c6 45 e6 eb	 mov	 BYTE PTR __k$[ebp+2], -21 ; ffffffebH
  001f6	eb 0a		 jmp	 SHORT $LN1@LoadBool_e@3
$LN95@LoadBool_e@3:
  001f8	c6 45 e5 ec	 mov	 BYTE PTR __k$[ebp+1], -20 ; ffffffecH
  001fc	eb 04		 jmp	 SHORT $LN1@LoadBool_e@3
$LN96@LoadBool_e@3:
  001fe	c6 45 e4 ed	 mov	 BYTE PTR __k$[ebp], -19	; ffffffedH
$LN1@LoadBool_e@3:
  00202	6a 04		 push	 4
  00204	8d 45 e4	 lea	 eax, DWORD PTR __k$[ebp]
  00207	c6 45 f7 00	 mov	 BYTE PTR __k$[ebp+19], 0
  0020b	5a		 pop	 edx
$LL104@LoadBool_e@3:
  0020c	81 30 ed ec eb
	ea		 xor	 DWORD PTR [eax], -353637139 ; eaebecedH
  00212	83 c0 04	 add	 eax, 4
  00215	4a		 dec	 edx
  00216	75 f4		 jne	 SHORT $LL104@LoadBool_e@3
  00218	6a 10		 push	 16			; 00000010H
  0021a	58		 pop	 eax
$LL101@LoadBool_e@3:
  0021b	8b c8		 mov	 ecx, eax
  0021d	81 e1 03 00 00
	80		 and	 ecx, -2147483645	; 80000003H
  00223	79 05		 jns	 SHORT $LN111@LoadBool_e@3
  00225	49		 dec	 ecx
  00226	83 c9 fc	 or	 ecx, -4			; fffffffcH
  00229	41		 inc	 ecx
$LN111@LoadBool_e@3:
  0022a	b2 ed		 mov	 dl, -19			; ffffffedH
  0022c	2a d1		 sub	 dl, cl
  0022e	30 54 05 e4	 xor	 BYTE PTR __k$[ebp+eax], dl
  00232	40		 inc	 eax
  00233	83 f8 13	 cmp	 eax, 19			; 00000013H
  00236	7c e3		 jl	 SHORT $LL101@LoadBool_e@3

; 103  : 		return LoadBool(_k, b);

  00238	ff 75 0c	 push	 DWORD PTR _b$[ebp]
  0023b	8d 45 e4	 lea	 eax, DWORD PTR __k$[ebp]
  0023e	50		 push	 eax
  0023f	8b ce		 mov	 ecx, esi
  00241	ff 15 00 00 00
	00		 call	 DWORD PTR __imp_?LoadBool@ioINILoader@@QAE_NPBD_N@Z

; 104  : 	}

  00247	8b 4d fc	 mov	 ecx, DWORD PTR __$ArrayPad$[ebp]
  0024a	5e		 pop	 esi
  0024b	33 cd		 xor	 ecx, ebp
  0024d	5b		 pop	 ebx
  0024e	e8 00 00 00 00	 call	 @__security_check_cookie@4
  00253	c9		 leave
  00254	c2 08 00	 ret	 8
??$LoadBool_e@$0BE@@ioINILoader@@QAE_NAAY0BE@$$CBD_N@Z ENDP ; ioINILoader::LoadBool_e<20>
_TEXT	ENDS
PUBLIC	__$ArrayPad$
PUBLIC	??$LoadBool_e@$0BB@@ioINILoader@@QAE_NAAY0BB@$$CBD_N@Z ; ioINILoader::LoadBool_e<17>
; Function compile flags: /Ogsp
;	COMDAT ??$LoadBool_e@$0BB@@ioINILoader@@QAE_NAAY0BB@$$CBD_N@Z
_TEXT	SEGMENT
__k$ = -28						; size = 17
__$ArrayPad$ = -4					; size = 4
_k$ = 8							; size = 4
_b$ = 12						; size = 1
??$LoadBool_e@$0BB@@ioINILoader@@QAE_NAAY0BB@$$CBD_N@Z PROC ; ioINILoader::LoadBool_e<17>, COMDAT
; _this$ = ecx

; 101  : 	{

  00000	55		 push	 ebp
  00001	8b ec		 mov	 ebp, esp
  00003	83 ec 1c	 sub	 esp, 28			; 0000001cH
  00006	a1 00 00 00 00	 mov	 eax, DWORD PTR ___security_cookie
  0000b	33 c5		 xor	 eax, ebp
  0000d	89 45 fc	 mov	 DWORD PTR __$ArrayPad$[ebp], eax
  00010	8b 45 08	 mov	 eax, DWORD PTR _k$[ebp]

; 102  : 		_ENCSTR(k, _k);

  00013	8a 10		 mov	 dl, BYTE PTR [eax]
  00015	56		 push	 esi
  00016	8b f1		 mov	 esi, ecx
  00018	84 d2		 test	 dl, dl
  0001a	0f 84 a7 01 00
	00		 je	 $LN96@LoadBool_e@4
  00020	80 f2 ed	 xor	 dl, -19			; ffffffedH
  00023	88 55 e4	 mov	 BYTE PTR __k$[ebp], dl
  00026	8a 50 01	 mov	 dl, BYTE PTR [eax+1]
  00029	84 d2		 test	 dl, dl
  0002b	0f 84 90 01 00
	00		 je	 $LN95@LoadBool_e@4
  00031	b1 ec		 mov	 cl, -20			; ffffffecH
  00033	32 d1		 xor	 dl, cl
  00035	88 55 e5	 mov	 BYTE PTR __k$[ebp+1], dl
  00038	8a 50 02	 mov	 dl, BYTE PTR [eax+2]
  0003b	84 d2		 test	 dl, dl
  0003d	0f 84 78 01 00
	00		 je	 $LN94@LoadBool_e@4
  00043	80 f2 eb	 xor	 dl, -21			; ffffffebH
  00046	88 55 e6	 mov	 BYTE PTR __k$[ebp+2], dl
  00049	8a 50 03	 mov	 dl, BYTE PTR [eax+3]
  0004c	84 d2		 test	 dl, dl
  0004e	0f 84 61 01 00
	00		 je	 $LN93@LoadBool_e@4
  00054	80 f2 ea	 xor	 dl, -22			; ffffffeaH
  00057	88 55 e7	 mov	 BYTE PTR __k$[ebp+3], dl
  0005a	8a 50 04	 mov	 dl, BYTE PTR [eax+4]
  0005d	84 d2		 test	 dl, dl
  0005f	0f 84 4a 01 00
	00		 je	 $LN92@LoadBool_e@4
  00065	80 f2 ed	 xor	 dl, -19			; ffffffedH
  00068	88 55 e8	 mov	 BYTE PTR __k$[ebp+4], dl
  0006b	8a 50 05	 mov	 dl, BYTE PTR [eax+5]
  0006e	84 d2		 test	 dl, dl
  00070	0f 84 34 01 00
	00		 je	 $LN91@LoadBool_e@4
  00076	32 d1		 xor	 dl, cl
  00078	88 55 e9	 mov	 BYTE PTR __k$[ebp+5], dl
  0007b	8a 50 06	 mov	 dl, BYTE PTR [eax+6]
  0007e	84 d2		 test	 dl, dl
  00080	0f 84 1e 01 00
	00		 je	 $LN90@LoadBool_e@4
  00086	80 f2 eb	 xor	 dl, -21			; ffffffebH
  00089	88 55 ea	 mov	 BYTE PTR __k$[ebp+6], dl
  0008c	8a 50 07	 mov	 dl, BYTE PTR [eax+7]
  0008f	84 d2		 test	 dl, dl
  00091	0f 84 07 01 00
	00		 je	 $LN89@LoadBool_e@4
  00097	80 f2 ea	 xor	 dl, -22			; ffffffeaH
  0009a	88 55 eb	 mov	 BYTE PTR __k$[ebp+7], dl
  0009d	8a 50 08	 mov	 dl, BYTE PTR [eax+8]
  000a0	84 d2		 test	 dl, dl
  000a2	0f 84 f0 00 00
	00		 je	 $LN88@LoadBool_e@4
  000a8	80 f2 ed	 xor	 dl, -19			; ffffffedH
  000ab	88 55 ec	 mov	 BYTE PTR __k$[ebp+8], dl
  000ae	8a 50 09	 mov	 dl, BYTE PTR [eax+9]
  000b1	84 d2		 test	 dl, dl
  000b3	0f 84 da 00 00
	00		 je	 $LN87@LoadBool_e@4
  000b9	32 d1		 xor	 dl, cl
  000bb	88 55 ed	 mov	 BYTE PTR __k$[ebp+9], dl
  000be	8a 50 0a	 mov	 dl, BYTE PTR [eax+10]
  000c1	84 d2		 test	 dl, dl
  000c3	0f 84 c4 00 00
	00		 je	 $LN86@LoadBool_e@4
  000c9	80 f2 eb	 xor	 dl, -21			; ffffffebH
  000cc	88 55 ee	 mov	 BYTE PTR __k$[ebp+10], dl
  000cf	8a 50 0b	 mov	 dl, BYTE PTR [eax+11]
  000d2	84 d2		 test	 dl, dl
  000d4	0f 84 ad 00 00
	00		 je	 $LN85@LoadBool_e@4
  000da	80 f2 ea	 xor	 dl, -22			; ffffffeaH
  000dd	88 55 ef	 mov	 BYTE PTR __k$[ebp+11], dl
  000e0	8a 50 0c	 mov	 dl, BYTE PTR [eax+12]
  000e3	84 d2		 test	 dl, dl
  000e5	0f 84 96 00 00
	00		 je	 $LN84@LoadBool_e@4
  000eb	80 f2 ed	 xor	 dl, -19			; ffffffedH
  000ee	88 55 f0	 mov	 BYTE PTR __k$[ebp+12], dl
  000f1	8a 50 0d	 mov	 dl, BYTE PTR [eax+13]
  000f4	84 d2		 test	 dl, dl
  000f6	0f 84 80 00 00
	00		 je	 $LN83@LoadBool_e@4
  000fc	32 d1		 xor	 dl, cl
  000fe	88 55 f1	 mov	 BYTE PTR __k$[ebp+13], dl
  00101	8a 50 0e	 mov	 dl, BYTE PTR [eax+14]
  00104	84 d2		 test	 dl, dl
  00106	74 6e		 je	 SHORT $LN82@LoadBool_e@4
  00108	80 f2 eb	 xor	 dl, -21			; ffffffebH
  0010b	88 55 f2	 mov	 BYTE PTR __k$[ebp+14], dl
  0010e	8a 50 0f	 mov	 dl, BYTE PTR [eax+15]
  00111	84 d2		 test	 dl, dl
  00113	74 5b		 je	 SHORT $LN81@LoadBool_e@4
  00115	80 f2 ea	 xor	 dl, -22			; ffffffeaH
  00118	80 78 10 00	 cmp	 BYTE PTR [eax+16], 0
  0011c	88 55 f3	 mov	 BYTE PTR __k$[ebp+15], dl
  0011f	0f 84 a6 00 00
	00		 je	 $LN1@LoadBool_e@4
  00125	8a 50 11	 mov	 dl, BYTE PTR [eax+17]
  00128	84 d2		 test	 dl, dl
  0012a	74 3f		 je	 SHORT $LN79@LoadBool_e@4
  0012c	32 d1		 xor	 dl, cl
  0012e	88 55 f5	 mov	 BYTE PTR __k$[ebp+17], dl
  00131	8a 50 12	 mov	 dl, BYTE PTR [eax+18]
  00134	84 d2		 test	 dl, dl
  00136	74 2d		 je	 SHORT $LN78@LoadBool_e@4
  00138	80 f2 eb	 xor	 dl, -21			; ffffffebH
  0013b	88 55 f6	 mov	 BYTE PTR __k$[ebp+18], dl
  0013e	8a 50 13	 mov	 dl, BYTE PTR [eax+19]
  00141	84 d2		 test	 dl, dl
  00143	74 1a		 je	 SHORT $LN77@LoadBool_e@4
  00145	8a 40 14	 mov	 al, BYTE PTR [eax+20]
  00148	80 f2 ea	 xor	 dl, -22			; ffffffeaH
  0014b	88 55 f7	 mov	 BYTE PTR __k$[ebp+19], dl
  0014e	84 c0		 test	 al, al
  00150	74 07		 je	 SHORT $LN76@LoadBool_e@4
  00152	34 ed		 xor	 al, -19			; ffffffedH
  00154	88 45 f8	 mov	 BYTE PTR __k$[ebp+20], al
  00157	eb 72		 jmp	 SHORT $LN1@LoadBool_e@4
$LN76@LoadBool_e@4:
  00159	c6 45 f8 ed	 mov	 BYTE PTR __k$[ebp+20], -19 ; ffffffedH
  0015d	eb 6c		 jmp	 SHORT $LN1@LoadBool_e@4
$LN77@LoadBool_e@4:
  0015f	c6 45 f7 ea	 mov	 BYTE PTR __k$[ebp+19], -22 ; ffffffeaH
  00163	eb 66		 jmp	 SHORT $LN1@LoadBool_e@4
$LN78@LoadBool_e@4:
  00165	c6 45 f6 eb	 mov	 BYTE PTR __k$[ebp+18], -21 ; ffffffebH
  00169	eb 60		 jmp	 SHORT $LN1@LoadBool_e@4
$LN79@LoadBool_e@4:
  0016b	88 4d f5	 mov	 BYTE PTR __k$[ebp+17], cl
  0016e	eb 5b		 jmp	 SHORT $LN1@LoadBool_e@4
$LN81@LoadBool_e@4:
  00170	c6 45 f3 ea	 mov	 BYTE PTR __k$[ebp+15], -22 ; ffffffeaH
  00174	eb 55		 jmp	 SHORT $LN1@LoadBool_e@4
$LN82@LoadBool_e@4:
  00176	c6 45 f2 eb	 mov	 BYTE PTR __k$[ebp+14], -21 ; ffffffebH
  0017a	eb 4f		 jmp	 SHORT $LN1@LoadBool_e@4
$LN83@LoadBool_e@4:
  0017c	88 4d f1	 mov	 BYTE PTR __k$[ebp+13], cl
  0017f	eb 4a		 jmp	 SHORT $LN1@LoadBool_e@4
$LN84@LoadBool_e@4:
  00181	c6 45 f0 ed	 mov	 BYTE PTR __k$[ebp+12], -19 ; ffffffedH
  00185	eb 44		 jmp	 SHORT $LN1@LoadBool_e@4
$LN85@LoadBool_e@4:
  00187	c6 45 ef ea	 mov	 BYTE PTR __k$[ebp+11], -22 ; ffffffeaH
  0018b	eb 3e		 jmp	 SHORT $LN1@LoadBool_e@4
$LN86@LoadBool_e@4:
  0018d	c6 45 ee eb	 mov	 BYTE PTR __k$[ebp+10], -21 ; ffffffebH
  00191	eb 38		 jmp	 SHORT $LN1@LoadBool_e@4
$LN87@LoadBool_e@4:
  00193	88 4d ed	 mov	 BYTE PTR __k$[ebp+9], cl
  00196	eb 33		 jmp	 SHORT $LN1@LoadBool_e@4
$LN88@LoadBool_e@4:
  00198	c6 45 ec ed	 mov	 BYTE PTR __k$[ebp+8], -19 ; ffffffedH
  0019c	eb 2d		 jmp	 SHORT $LN1@LoadBool_e@4
$LN89@LoadBool_e@4:
  0019e	c6 45 eb ea	 mov	 BYTE PTR __k$[ebp+7], -22 ; ffffffeaH
  001a2	eb 27		 jmp	 SHORT $LN1@LoadBool_e@4
$LN90@LoadBool_e@4:
  001a4	c6 45 ea eb	 mov	 BYTE PTR __k$[ebp+6], -21 ; ffffffebH
  001a8	eb 21		 jmp	 SHORT $LN1@LoadBool_e@4
$LN91@LoadBool_e@4:
  001aa	88 4d e9	 mov	 BYTE PTR __k$[ebp+5], cl
  001ad	eb 1c		 jmp	 SHORT $LN1@LoadBool_e@4
$LN92@LoadBool_e@4:
  001af	c6 45 e8 ed	 mov	 BYTE PTR __k$[ebp+4], -19 ; ffffffedH
  001b3	eb 16		 jmp	 SHORT $LN1@LoadBool_e@4
$LN93@LoadBool_e@4:
  001b5	c6 45 e7 ea	 mov	 BYTE PTR __k$[ebp+3], -22 ; ffffffeaH
  001b9	eb 10		 jmp	 SHORT $LN1@LoadBool_e@4
$LN94@LoadBool_e@4:
  001bb	c6 45 e6 eb	 mov	 BYTE PTR __k$[ebp+2], -21 ; ffffffebH
  001bf	eb 0a		 jmp	 SHORT $LN1@LoadBool_e@4
$LN95@LoadBool_e@4:
  001c1	c6 45 e5 ec	 mov	 BYTE PTR __k$[ebp+1], -20 ; ffffffecH
  001c5	eb 04		 jmp	 SHORT $LN1@LoadBool_e@4
$LN96@LoadBool_e@4:
  001c7	c6 45 e4 ed	 mov	 BYTE PTR __k$[ebp], -19	; ffffffedH
$LN1@LoadBool_e@4:
  001cb	6a 04		 push	 4
  001cd	8d 45 e4	 lea	 eax, DWORD PTR __k$[ebp]
  001d0	c6 45 f4 00	 mov	 BYTE PTR __k$[ebp+16], 0
  001d4	5a		 pop	 edx
$LL104@LoadBool_e@4:
  001d5	81 30 ed ec eb
	ea		 xor	 DWORD PTR [eax], -353637139 ; eaebecedH
  001db	83 c0 04	 add	 eax, 4
  001de	4a		 dec	 edx
  001df	75 f4		 jne	 SHORT $LL104@LoadBool_e@4

; 103  : 		return LoadBool(_k, b);

  001e1	ff 75 0c	 push	 DWORD PTR _b$[ebp]
  001e4	8d 45 e4	 lea	 eax, DWORD PTR __k$[ebp]
  001e7	50		 push	 eax
  001e8	8b ce		 mov	 ecx, esi
  001ea	ff 15 00 00 00
	00		 call	 DWORD PTR __imp_?LoadBool@ioINILoader@@QAE_NPBD_N@Z

; 104  : 	}

  001f0	8b 4d fc	 mov	 ecx, DWORD PTR __$ArrayPad$[ebp]
  001f3	33 cd		 xor	 ecx, ebp
  001f5	5e		 pop	 esi
  001f6	e8 00 00 00 00	 call	 @__security_check_cookie@4
  001fb	c9		 leave
  001fc	c2 08 00	 ret	 8
??$LoadBool_e@$0BB@@ioINILoader@@QAE_NAAY0BB@$$CBD_N@Z ENDP ; ioINILoader::LoadBool_e<17>
_TEXT	ENDS
PUBLIC	??B?$CEncrypt@_N@@QAE_NXZ			; CEncrypt<bool>::operator bool
; Function compile flags: /Ogsp
; File d:\lost saga for developer\youtube\tutorial\source\src\lsclient\encryptvalue.h
;	COMDAT ??B?$CEncrypt@_N@@QAE_NXZ
_TEXT	SEGMENT
_value$ = -1						; size = 1
??B?$CEncrypt@_N@@QAE_NXZ PROC				; CEncrypt<bool>::operator bool, COMDAT
; _this$ = ecx

; 134  : 	{

  00000	55		 push	 ebp
  00001	8b ec		 mov	 ebp, esp
  00003	51		 push	 ecx

; 135  : 		type value;
; 136  : 		DecryptValueToPool(&value);

  00004	8d 45 ff	 lea	 eax, DWORD PTR _value$[ebp]
  00007	50		 push	 eax
  00008	e8 00 00 00 00	 call	 ?DecryptValueToPool@?$CEncrypt@_N@@QAEXPA_N@Z ; CEncrypt<bool>::DecryptValueToPool

; 137  : 
; 138  : #ifdef _NOTUSE
; 139  : 		Debug();
; 140  : #endif
; 141  : 		return value;

  0000d	8a 45 ff	 mov	 al, BYTE PTR _value$[ebp]

; 142  : 	}

  00010	c9		 leave
  00011	c3		 ret	 0
??B?$CEncrypt@_N@@QAE_NXZ ENDP				; CEncrypt<bool>::operator bool
_TEXT	ENDS
EXTRN	?InitResource@ioWeapon@@UAE_NXZ:PROC		; ioWeapon::InitResource
; Function compile flags: /Ogsp
; File d:\lost saga for developer\youtube\tutorial\source\src\lsclient\iorotationweapon.cpp
;	COMDAT ?InitResource@ioRotationWeapon@@UAE_NXZ
_TEXT	SEGMENT
?InitResource@ioRotationWeapon@@UAE_NXZ PROC		; ioRotationWeapon::InitResource, COMDAT
; _this$ = ecx

; 37   : {

  00000	56		 push	 esi
  00001	8b f1		 mov	 esi, ecx

; 38   : 	if( ioWeapon::InitResource() )

  00003	e8 00 00 00 00	 call	 ?InitResource@ioWeapon@@UAE_NXZ ; ioWeapon::InitResource
  00008	84 c0		 test	 al, al
  0000a	74 25		 je	 SHORT $LN1@InitResour

; 39   : 	{
; 40   : 		DestroyResource();

  0000c	8b 06		 mov	 eax, DWORD PTR [esi]
  0000e	6a 00		 push	 0
  00010	8b ce		 mov	 ecx, esi
  00012	ff 90 9c 00 00
	00		 call	 DWORD PTR [eax+156]

; 41   : 		return CreateFireBall( GetAttribute()->m_WeaponEffect );

  00018	8b 06		 mov	 eax, DWORD PTR [esi]
  0001a	8b ce		 mov	 ecx, esi
  0001c	ff 90 3c 01 00
	00		 call	 DWORD PTR [eax+316]
  00022	05 34 01 00 00	 add	 eax, 308		; 00000134H
  00027	50		 push	 eax
  00028	8b ce		 mov	 ecx, esi
  0002a	e8 00 00 00 00	 call	 ?CreateFireBall@ioRotationWeapon@@IAE_NABVioHashString@@@Z ; ioRotationWeapon::CreateFireBall
  0002f	5e		 pop	 esi

; 45   : }

  00030	c3		 ret	 0
$LN1@InitResour:

; 42   : 	}
; 43   : 
; 44   : 	return false;

  00031	32 c0		 xor	 al, al
  00033	5e		 pop	 esi

; 45   : }

  00034	c3		 ret	 0
?InitResource@ioRotationWeapon@@UAE_NXZ ENDP		; ioRotationWeapon::InitResource
_TEXT	ENDS
PUBLIC	_rkLoader$GSCopy$
PUBLIC	__$ArrayPad$
EXTRN	?LoadProperty@ioWeapon@@UAEXAAVioINILoader@@@Z:PROC ; ioWeapon::LoadProperty
; Function compile flags: /Ogsp
;	COMDAT ?LoadProperty@ioRotationWeapon@@UAEXAAVioINILoader@@@Z
_TEXT	SEGMENT
_rkLoader$GSCopy$ = -32					; size = 4
__k$526572 = -28					; size = 17
__k$526447 = -28					; size = 18
__k$526309 = -28					; size = 20
__k$526059 = -28					; size = 18
__k$526184 = -24					; size = 16
__k$525934 = -24					; size = 14
__k$525824 = -20					; size = 10
__$ArrayPad$ = -4					; size = 4
_rkLoader$ = 8						; size = 4
?LoadProperty@ioRotationWeapon@@UAEXAAVioINILoader@@@Z PROC ; ioRotationWeapon::LoadProperty, COMDAT
; _this$ = ecx

; 48   : {

  00000	55		 push	 ebp
  00001	8b ec		 mov	 ebp, esp
  00003	83 ec 20	 sub	 esp, 32			; 00000020H
  00006	a1 00 00 00 00	 mov	 eax, DWORD PTR ___security_cookie
  0000b	33 c5		 xor	 eax, ebp
  0000d	89 45 fc	 mov	 DWORD PTR __$ArrayPad$[ebp], eax
  00010	53		 push	 ebx
  00011	56		 push	 esi
  00012	57		 push	 edi
  00013	8b 7d 08	 mov	 edi, DWORD PTR _rkLoader$[ebp]

; 49   : 	ioWeapon::LoadProperty( rkLoader );

  00016	57		 push	 edi
  00017	8b f1		 mov	 esi, ecx

; 61   : 	m_bReverseRotation = rkLoader.LoadBool_e( "reverse_rotation", false );

  00019	89 7d e0	 mov	 DWORD PTR _rkLoader$GSCopy$[ebp], edi
  0001c	e8 00 00 00 00	 call	 ?LoadProperty@ioWeapon@@UAEXAAVioINILoader@@@Z ; ioWeapon::LoadProperty
  00021	6a 02		 push	 2
  00023	c7 45 ec 81 85
	9d 8f		 mov	 DWORD PTR __k$525824[ebp], -1885502079 ; 8f9d8581H
  0002a	c7 45 f0 b2 98
	82 87		 mov	 DWORD PTR __k$525824[ebp+4], -2021484366 ; 878298b2H
  00031	8d 45 ec	 lea	 eax, DWORD PTR __k$525824[ebp]
  00034	33 db		 xor	 ebx, ebx
  00036	66 c7 45 f4 88
	00		 mov	 WORD PTR __k$525824[ebp+8], 136 ; 00000088H
  0003c	59		 pop	 ecx
$LL106@LoadProper:

; 50   : 
; 51   : 	char szBuf[MAX_PATH] = "";
; 52   : 
; 53   : 	m_dwLiveTime = rkLoader.LoadInt_e( "live_time", 0 );

  0003d	81 30 ed ec eb
	ea		 xor	 DWORD PTR [eax], -353637139 ; eaebecedH
  00043	83 c0 04	 add	 eax, 4
  00046	49		 dec	 ecx
  00047	75 f4		 jne	 SHORT $LL106@LoadProper
  00049	80 75 f4 ed	 xor	 BYTE PTR __k$525824[ebp+8], -19 ; ffffffedH
  0004d	53		 push	 ebx
  0004e	8d 45 ec	 lea	 eax, DWORD PTR __k$525824[ebp]
  00051	50		 push	 eax
  00052	8b cf		 mov	 ecx, edi
  00054	ff 15 00 00 00
	00		 call	 DWORD PTR __imp_?LoadInt@ioINILoader@@QAEHPBDH@Z
  0005a	6a 03		 push	 3
  0005c	89 86 d8 04 00
	00		 mov	 DWORD PTR [esi+1240], eax

; 54   : 	m_fRotationTime = rkLoader.LoadFloat_e( "rotation_time", 0.0f );

  00062	c7 45 e8 9f 83
	9f 8b		 mov	 DWORD PTR __k$525934[ebp], -1952480353 ; 8b9f839fH
  00069	c7 45 ec 99 85
	84 84		 mov	 DWORD PTR __k$525934[ebp+4], -2071689831 ; 84848599H
  00070	c7 45 f0 b2 98
	82 87		 mov	 DWORD PTR __k$525934[ebp+8], -2021484366 ; 878298b2H
  00077	8d 45 e8	 lea	 eax, DWORD PTR __k$525934[ebp]
  0007a	66 c7 45 f4 88
	00		 mov	 WORD PTR __k$525934[ebp+12], 136 ; 00000088H
  00080	59		 pop	 ecx
$LL212@LoadProper:
  00081	81 30 ed ec eb
	ea		 xor	 DWORD PTR [eax], -353637139 ; eaebecedH
  00087	83 c0 04	 add	 eax, 4
  0008a	49		 dec	 ecx
  0008b	75 f4		 jne	 SHORT $LL212@LoadProper
  0008d	0f 57 c0	 xorps	 xmm0, xmm0
  00090	80 75 f4 ed	 xor	 BYTE PTR __k$525934[ebp+12], -19 ; ffffffedH
  00094	51		 push	 ecx
  00095	8d 45 e8	 lea	 eax, DWORD PTR __k$525934[ebp]
  00098	f3 0f 11 04 24	 movss	 DWORD PTR [esp], xmm0
  0009d	50		 push	 eax
  0009e	8b cf		 mov	 ecx, edi
  000a0	ff 15 00 00 00
	00		 call	 DWORD PTR __imp_?LoadFloat@ioINILoader@@QAEMPBDM@Z
  000a6	d9 9e 9c 08 00
	00		 fstp	 DWORD PTR [esi+2204]
  000ac	6a 04		 push	 4

; 55   : 
; 56   : 	m_bEnableDownState = rkLoader.LoadBool_e( "enable_down_state", false );

  000ae	c7 45 e4 88 82
	8a 88		 mov	 DWORD PTR __k$526059[ebp], -2004188536 ; 888a8288H
  000b5	c7 45 e8 81 89
	b4 8e		 mov	 DWORD PTR __k$526059[ebp+4], -1900770943 ; 8eb48981H
  000bc	c7 45 ec 82 9b
	85 b5		 mov	 DWORD PTR __k$526059[ebp+8], -1249535102 ; b5859b82H
  000c3	c7 45 f0 9e 98
	8a 9e		 mov	 DWORD PTR __k$526059[ebp+12], -1635084130 ; 9e8a989eH
  000ca	8d 45 e4	 lea	 eax, DWORD PTR __k$526059[ebp]
  000cd	66 c7 45 f4 88
	00		 mov	 WORD PTR __k$526059[ebp+16], 136 ; 00000088H
  000d3	59		 pop	 ecx
$LL318@LoadProper:
  000d4	81 30 ed ec eb
	ea		 xor	 DWORD PTR [eax], -353637139 ; eaebecedH
  000da	83 c0 04	 add	 eax, 4
  000dd	49		 dec	 ecx
  000de	75 f4		 jne	 SHORT $LL318@LoadProper
  000e0	80 75 f4 ed	 xor	 BYTE PTR __k$526059[ebp+16], -19 ; ffffffedH
  000e4	53		 push	 ebx
  000e5	8d 45 e4	 lea	 eax, DWORD PTR __k$526059[ebp]
  000e8	8b cf		 mov	 ecx, edi
  000ea	8b 3d 00 00 00
	00		 mov	 edi, DWORD PTR __imp_?LoadBool@ioINILoader@@QAE_NPBD_N@Z
  000f0	50		 push	 eax
  000f1	ff d7		 call	 edi
  000f3	6a 03		 push	 3
  000f5	88 86 d5 08 00
	00		 mov	 BYTE PTR [esi+2261], al

; 57   : 	m_bRemoveByWoundState = rkLoader.LoadBool_e( "remove_by_wound", false );

  000fb	c7 45 e8 9f 89
	86 85		 mov	 DWORD PTR __k$526184[ebp], -2054780513 ; 8586899fH
  00102	c7 45 ec 9b 89
	b4 88		 mov	 DWORD PTR __k$526184[ebp+4], -2001434213 ; 88b4899bH
  00109	c7 45 f0 94 b3
	9c 85		 mov	 DWORD PTR __k$526184[ebp+8], -2053327980 ; 859cb394H
  00110	8d 45 e8	 lea	 eax, DWORD PTR __k$526184[ebp]
  00113	c7 45 f4 98 82
	8f 00		 mov	 DWORD PTR __k$526184[ebp+12], 9405080 ; 008f8298H
  0011a	59		 pop	 ecx
$LL424@LoadProper:
  0011b	81 30 ed ec eb
	ea		 xor	 DWORD PTR [eax], -353637139 ; eaebecedH
  00121	83 c0 04	 add	 eax, 4
  00124	49		 dec	 ecx
  00125	75 f4		 jne	 SHORT $LL424@LoadProper
  00127	6a 0c		 push	 12			; 0000000cH
  00129	58		 pop	 eax
$LL421@LoadProper:
  0012a	8b c8		 mov	 ecx, eax
  0012c	81 e1 03 00 00
	80		 and	 ecx, -2147483645	; 80000003H
  00132	79 05		 jns	 SHORT $LN773@LoadProper
  00134	49		 dec	 ecx
  00135	83 c9 fc	 or	 ecx, -4			; fffffffcH
  00138	41		 inc	 ecx
$LN773@LoadProper:
  00139	b2 ed		 mov	 dl, -19			; ffffffedH
  0013b	2a d1		 sub	 dl, cl
  0013d	30 54 05 e8	 xor	 BYTE PTR __k$526184[ebp+eax], dl
  00141	40		 inc	 eax
  00142	83 f8 0f	 cmp	 eax, 15			; 0000000fH
  00145	7c e3		 jl	 SHORT $LL421@LoadProper
  00147	8b 4d e0	 mov	 ecx, DWORD PTR _rkLoader$GSCopy$[ebp]
  0014a	53		 push	 ebx
  0014b	8d 45 e8	 lea	 eax, DWORD PTR __k$526184[ebp]
  0014e	50		 push	 eax
  0014f	ff d7		 call	 edi
  00151	6a 04		 push	 4
  00153	88 86 d6 08 00
	00		 mov	 BYTE PTR [esi+2262], al

; 58   : 	m_bRemoveBySkillEnd = rkLoader.LoadBool_e( "remove_by_skill_end", false );

  00159	c7 45 e4 9f 89
	86 85		 mov	 DWORD PTR __k$526309[ebp], -2054780513 ; 8586899fH
  00160	c7 45 e8 9b 89
	b4 88		 mov	 DWORD PTR __k$526309[ebp+4], -2001434213 ; 88b4899bH
  00167	c7 45 ec 94 b3
	98 81		 mov	 DWORD PTR __k$526309[ebp+8], -2120698988 ; 8198b394H
  0016e	c7 45 f0 84 80
	87 b5		 mov	 DWORD PTR __k$526309[ebp+12], -1249410940 ; b5878084H
  00175	8d 45 e4	 lea	 eax, DWORD PTR __k$526309[ebp]
  00178	c7 45 f4 88 82
	8f 00		 mov	 DWORD PTR __k$526309[ebp+16], 9405064 ; 008f8288H
  0017f	59		 pop	 ecx
$LL530@LoadProper:
  00180	81 30 ed ec eb
	ea		 xor	 DWORD PTR [eax], -353637139 ; eaebecedH
  00186	83 c0 04	 add	 eax, 4
  00189	49		 dec	 ecx
  0018a	75 f4		 jne	 SHORT $LL530@LoadProper
  0018c	6a 10		 push	 16			; 00000010H
  0018e	58		 pop	 eax
$LL527@LoadProper:
  0018f	8b c8		 mov	 ecx, eax
  00191	81 e1 03 00 00
	80		 and	 ecx, -2147483645	; 80000003H
  00197	79 05		 jns	 SHORT $LN774@LoadProper
  00199	49		 dec	 ecx
  0019a	83 c9 fc	 or	 ecx, -4			; fffffffcH
  0019d	41		 inc	 ecx
$LN774@LoadProper:
  0019e	b2 ed		 mov	 dl, -19			; ffffffedH
  001a0	2a d1		 sub	 dl, cl
  001a2	30 54 05 e4	 xor	 BYTE PTR __k$526309[ebp+eax], dl
  001a6	40		 inc	 eax
  001a7	83 f8 13	 cmp	 eax, 19			; 00000013H
  001aa	7c e3		 jl	 SHORT $LL527@LoadProper
  001ac	8b 4d e0	 mov	 ecx, DWORD PTR _rkLoader$GSCopy$[ebp]
  001af	53		 push	 ebx
  001b0	8d 45 e4	 lea	 eax, DWORD PTR __k$526309[ebp]
  001b3	50		 push	 eax
  001b4	ff d7		 call	 edi
  001b6	6a 04		 push	 4
  001b8	88 86 d7 08 00
	00		 mov	 BYTE PTR [esi+2263], al

; 59   : 
; 60   : 	m_bIndependenceChar = rkLoader.LoadBool_e( "independence_char", false );

  001be	c7 45 e4 84 82
	8f 8f		 mov	 DWORD PTR __k$526447[ebp], -1886420348 ; 8f8f8284H
  001c5	c7 45 e8 9d 89
	85 8e		 mov	 DWORD PTR __k$526447[ebp+4], -1903851107 ; 8e85899dH
  001cc	c7 45 ec 88 82
	88 8f		 mov	 DWORD PTR __k$526447[ebp+8], -1886879096 ; 8f888288H
  001d3	c7 45 f0 b2 8f
	83 8b		 mov	 DWORD PTR __k$526447[ebp+12], -1954312270 ; 8b838fb2H
  001da	8d 45 e4	 lea	 eax, DWORD PTR __k$526447[ebp]
  001dd	66 c7 45 f4 9f
	00		 mov	 WORD PTR __k$526447[ebp+16], 159 ; 0000009fH
  001e3	59		 pop	 ecx
$LL636@LoadProper:
  001e4	81 30 ed ec eb
	ea		 xor	 DWORD PTR [eax], -353637139 ; eaebecedH
  001ea	83 c0 04	 add	 eax, 4
  001ed	49		 dec	 ecx
  001ee	75 f4		 jne	 SHORT $LL636@LoadProper
  001f0	8b 4d e0	 mov	 ecx, DWORD PTR _rkLoader$GSCopy$[ebp]
  001f3	80 75 f4 ed	 xor	 BYTE PTR __k$526447[ebp+16], -19 ; ffffffedH
  001f7	53		 push	 ebx
  001f8	8d 45 e4	 lea	 eax, DWORD PTR __k$526447[ebp]
  001fb	50		 push	 eax
  001fc	ff d7		 call	 edi
  001fe	6a 04		 push	 4
  00200	88 86 d4 08 00
	00		 mov	 BYTE PTR [esi+2260], al

; 61   : 	m_bReverseRotation = rkLoader.LoadBool_e( "reverse_rotation", false );

  00206	c7 45 e4 9f 89
	9d 8f		 mov	 DWORD PTR __k$526572[ebp], -1885501025 ; 8f9d899fH
  0020d	c7 45 e8 9f 9f
	8e b5		 mov	 DWORD PTR __k$526572[ebp+4], -1248944225 ; b58e9f9fH
  00214	c7 45 ec 9f 83
	9f 8b		 mov	 DWORD PTR __k$526572[ebp+8], -1952480353 ; 8b9f839fH
  0021b	c7 45 f0 99 85
	84 84		 mov	 DWORD PTR __k$526572[ebp+12], -2071689831 ; 84848599H
  00222	8d 45 e4	 lea	 eax, DWORD PTR __k$526572[ebp]
  00225	88 5d f4	 mov	 BYTE PTR __k$526572[ebp+16], bl
  00228	59		 pop	 ecx
$LL742@LoadProper:
  00229	81 30 ed ec eb
	ea		 xor	 DWORD PTR [eax], -353637139 ; eaebecedH
  0022f	83 c0 04	 add	 eax, 4
  00232	49		 dec	 ecx
  00233	75 f4		 jne	 SHORT $LL742@LoadProper
  00235	8b 4d e0	 mov	 ecx, DWORD PTR _rkLoader$GSCopy$[ebp]
  00238	53		 push	 ebx
  00239	8d 45 e4	 lea	 eax, DWORD PTR __k$526572[ebp]
  0023c	50		 push	 eax
  0023d	ff d7		 call	 edi

; 62   : }

  0023f	8b 4d fc	 mov	 ecx, DWORD PTR __$ArrayPad$[ebp]
  00242	5f		 pop	 edi
  00243	88 86 da 08 00
	00		 mov	 BYTE PTR [esi+2266], al
  00249	5e		 pop	 esi
  0024a	33 cd		 xor	 ecx, ebp
  0024c	5b		 pop	 ebx
  0024d	e8 00 00 00 00	 call	 @__security_check_cookie@4
  00252	c9		 leave
  00253	c2 04 00	 ret	 4
?LoadProperty@ioRotationWeapon@@UAEXAAVioINILoader@@@Z ENDP ; ioRotationWeapon::LoadProperty
_TEXT	ENDS
PUBLIC	?SetGraceClose@ioRotationWeapon@@IAEXXZ		; ioRotationWeapon::SetGraceClose
EXTRN	__imp_?EndEffectForce@ioEffect@@QAEXXZ:PROC
EXTRN	__imp_?EndEffectGrace@ioEffect@@QAEXXZ:PROC
; Function compile flags: /Ogsp
;	COMDAT ?SetGraceClose@ioRotationWeapon@@IAEXXZ
_TEXT	SEGMENT
_value$526706 = -1					; size = 1
?SetGraceClose@ioRotationWeapon@@IAEXXZ PROC		; ioRotationWeapon::SetGraceClose, COMDAT
; _this$ = ecx

; 104  : {

  00000	55		 push	 ebp
  00001	8b ec		 mov	 ebp, esp
  00003	51		 push	 ecx
  00004	56		 push	 esi
  00005	8b f1		 mov	 esi, ecx

; 105  : 	if( m_bSetGraceClose )	return;

  00007	80 be d8 08 00
	00 00		 cmp	 BYTE PTR [esi+2264], 0
  0000e	75 40		 jne	 SHORT $LN5@SetGraceCl

; 106  : 
; 107  : 	if( m_pFireBall )

  00010	83 be 94 08 00
	00 00		 cmp	 DWORD PTR [esi+2196], 0
  00017	74 29		 je	 SHORT $LN1@SetGraceCl

; 108  : 	{
; 109  : 		if( m_bEndEffectGrace )

  00019	8d 45 ff	 lea	 eax, DWORD PTR _value$526706[ebp]
  0001c	50		 push	 eax
  0001d	8d 8e 08 08 00
	00		 lea	 ecx, DWORD PTR [esi+2056]
  00023	e8 00 00 00 00	 call	 ?DecryptValueToPool@?$CEncrypt@_N@@QAEXPA_N@Z ; CEncrypt<bool>::DecryptValueToPool
  00028	80 7d ff 00	 cmp	 BYTE PTR _value$526706[ebp], 0

; 110  : 			m_pFireBall->EndEffectGrace();

  0002c	8b 8e 94 08 00
	00		 mov	 ecx, DWORD PTR [esi+2196]
  00032	74 08		 je	 SHORT $LN2@SetGraceCl
  00034	ff 15 00 00 00
	00		 call	 DWORD PTR __imp_?EndEffectGrace@ioEffect@@QAEXXZ

; 111  : 		else

  0003a	eb 06		 jmp	 SHORT $LN1@SetGraceCl
$LN2@SetGraceCl:

; 112  : 			m_pFireBall->EndEffectForce();

  0003c	ff 15 00 00 00
	00		 call	 DWORD PTR __imp_?EndEffectForce@ioEffect@@QAEXXZ
$LN1@SetGraceCl:

; 113  : 	}
; 114  : 
; 115  : 	StopLoopSound();

  00042	8b 06		 mov	 eax, DWORD PTR [esi]
  00044	8b ce		 mov	 ecx, esi
  00046	ff 50 60	 call	 DWORD PTR [eax+96]

; 116  : 	m_bSetGraceClose = true;

  00049	c6 86 d8 08 00
	00 01		 mov	 BYTE PTR [esi+2264], 1
$LN5@SetGraceCl:
  00050	5e		 pop	 esi

; 117  : }

  00051	c9		 leave
  00052	c3		 ret	 0
?SetGraceClose@ioRotationWeapon@@IAEXXZ ENDP		; ioRotationWeapon::SetGraceClose
_TEXT	ENDS
PUBLIC	__real@3fef5c2900000000
PUBLIC	__real@bfef5c2900000000
EXTRN	_D3DXQuaternionRotationAxis@12:PROC
EXTRN	__imp_?UNIT_Y@ioMath@@2UD3DXVECTOR3@@A:BYTE
EXTRN	_D3DXQuaternionRotationYawPitchRoll@16:PROC
EXTRN	__imp_?ArrangeHead@ioMath@@SAMM@Z:PROC
EXTRN	__imp_?GetLoopSec@ioFrameTimer@@QBEKXZ:PROC
EXTRN	__imp_?GetSingleton@ioFrameTimer@@SAAAV1@XZ:PROC
EXTRN	__imp_??9ioHashString@@QBE_NABV0@@Z:PROC
EXTRN	?GetCurActiveSkill@ioBaseChar@@QAEPAVioSkill@@XZ:PROC ; ioBaseChar::GetCurActiveSkill
EXTRN	__imp_??0ioHashString@@QAE@ABV0@@Z:PROC
EXTRN	?GetWeaponBySkillName@ioWeapon@@QBEABVioHashString@@XZ:PROC ; ioWeapon::GetWeaponBySkillName
;	COMDAT __real@3fef5c2900000000
; File d:\lost saga for developer\youtube\tutorial\source\src\lsclient\stdafx.h
CONST	SEGMENT
__real@3fef5c2900000000 DQ 03fef5c2900000000r	; 0.98
CONST	ENDS
;	COMDAT __real@bfef5c2900000000
CONST	SEGMENT
__real@bfef5c2900000000 DQ 0bfef5c2900000000r	; -0.98
CONST	ENDS
;	COMDAT xdata$x
xdata$x	SEGMENT
__unwindtable$?Process@ioRotationWeapon@@UAEXMPAVioPlayStage@@@Z DD 0ffffffffH
	DD	FLAT:__unwindfunclet$?Process@ioRotationWeapon@@UAEXMPAVioPlayStage@@@Z$0
__ehfuncinfo$?Process@ioRotationWeapon@@UAEXMPAVioPlayStage@@@Z DD 019930522H
	DD	01H
	DD	FLAT:__unwindtable$?Process@ioRotationWeapon@@UAEXMPAVioPlayStage@@@Z
	DD	2 DUP(00H)
	DD	2 DUP(00H)
	DD	00H
	DD	01H
; Function compile flags: /Ogsp
; File d:\lost saga for developer\youtube\tutorial\source\src\lsclient\iorotationweapon.cpp
xdata$x	ENDS
;	COMDAT ?Process@ioRotationWeapon@@UAEXMPAVioPlayStage@@@Z
_TEXT	SEGMENT
_qtNewRot$523936 = -168					; size = 16
_qtCurRot$523921 = -152					; size = 16
_vCurCencter$523901 = -136				; size = 12
_qtAngle$523912 = -124					; size = 16
_szSkillName$523886 = -124				; size = 16
_fDotValue$523932 = -108				; size = 4
_fAngle$523907 = -108					; size = 4
_fRotationRate$523906 = -108				; size = 4
_pOwner$523898 = -108					; size = 4
tv1109 = -104						; size = 4
tv1105 = -104						; size = 4
tv1099 = -104						; size = 4
tv1069 = -104						; size = 4
tv1066 = -104						; size = 4
tv1060 = -104						; size = 4
tv1054 = -104						; size = 4
tv1045 = -104						; size = 4
tv1004 = -104						; size = 4
tv993 = -104						; size = 4
tv954 = -104						; size = 4
tv439 = -104						; size = 4
tv266 = -104						; size = 4
_fGapAngle$523933 = -104				; size = 4
$T523937 = -100						; size = 12
_vAxis$523934 = -88					; size = 12
_v$526796 = -76						; size = 12
$T523917 = -76						; size = 12
_vNewPos$523938 = -64					; size = 12
_vStartDir$523922 = -52					; size = 12
_vCurDir$523926 = -40					; size = 12
_vDiff$523930 = -28					; size = 12
$T523928 = -28						; size = 12
$T523924 = -28						; size = 12
_vNewPos$523918 = -28					; size = 12
$T523900 = -28						; size = 12
__$EHRec$ = -12						; size = 12
_fTimePerSec$ = 8					; size = 4
_pStage$ = 12						; size = 4
?Process@ioRotationWeapon@@UAEXMPAVioPlayStage@@@Z PROC	; ioRotationWeapon::Process, COMDAT
; _this$ = ecx

; 124  : {

  00000	68 9c 00 00 00	 push	 156			; 0000009cH
  00005	b8 00 00 00 00	 mov	 eax, __ehhandler$?Process@ioRotationWeapon@@UAEXMPAVioPlayStage@@@Z
  0000a	e8 00 00 00 00	 call	 __EH_prolog3_GS
  0000f	8b d9		 mov	 ebx, ecx

; 125  : 	DWORD dwLooseTime = 0;

  00011	33 f6		 xor	 esi, esi

; 126  : 	if( GetOwner() )

  00013	e8 00 00 00 00	 call	 ?GetOwner@ioWeapon@@QBEPAVioBaseChar@@XZ ; ioWeapon::GetOwner
  00018	85 c0		 test	 eax, eax
  0001a	74 0d		 je	 SHORT $LN24@Process

; 127  : 	{
; 128  : 		dwLooseTime = GetOwner()->GetActionStopTotalDelay();

  0001c	8b cb		 mov	 ecx, ebx
  0001e	e8 00 00 00 00	 call	 ?GetOwner@ioWeapon@@QBEPAVioBaseChar@@XZ ; ioWeapon::GetOwner
  00023	8b b0 b8 15 00
	00		 mov	 esi, DWORD PTR [eax+5560]
$LN24@Process:

; 129  : 	}
; 130  : 
; 131  : 	if( m_bRemoveBySkillEnd )

  00029	80 bb d7 08 00
	00 00		 cmp	 BYTE PTR [ebx+2263], 0
  00030	74 50		 je	 SHORT $LN19@Process

; 132  : 	{
; 133  : 		ioHashString szSkillName = GetWeaponBySkillName();

  00032	8b cb		 mov	 ecx, ebx
  00034	e8 00 00 00 00	 call	 ?GetWeaponBySkillName@ioWeapon@@QBEABVioHashString@@XZ ; ioWeapon::GetWeaponBySkillName
  00039	50		 push	 eax
  0003a	8d 4d 84	 lea	 ecx, DWORD PTR _szSkillName$523886[ebp]
  0003d	ff 15 00 00 00
	00		 call	 DWORD PTR __imp_??0ioHashString@@QAE@ABV0@@Z
  00043	83 65 fc 00	 and	 DWORD PTR __$EHRec$[ebp+8], 0

; 134  : 		ioBaseChar *pOwner = GetOwner();

  00047	8b cb		 mov	 ecx, ebx
  00049	e8 00 00 00 00	 call	 ?GetOwner@ioWeapon@@QBEPAVioBaseChar@@XZ ; ioWeapon::GetOwner

; 135  : 		if( pOwner )

  0004e	85 c0		 test	 eax, eax
  00050	74 23		 je	 SHORT $LN15@Process

; 136  : 		{
; 137  : 			ioSkill *pSkill = pOwner->GetCurActiveSkill();

  00052	8b c8		 mov	 ecx, eax
  00054	e8 00 00 00 00	 call	 ?GetCurActiveSkill@ioBaseChar@@QAEPAVioSkill@@XZ ; ioBaseChar::GetCurActiveSkill

; 138  : 			if( !pSkill )

  00059	85 c0		 test	 eax, eax

; 139  : 				SetWeaponDead();

  0005b	74 11		 je	 SHORT $LN86@Process

; 140  : 			else if( pSkill && pSkill->GetName() != szSkillName )

  0005d	8d 4d 84	 lea	 ecx, DWORD PTR _szSkillName$523886[ebp]
  00060	51		 push	 ecx
  00061	8d 48 24	 lea	 ecx, DWORD PTR [eax+36]
  00064	ff 15 00 00 00
	00		 call	 DWORD PTR __imp_??9ioHashString@@QBE_NABV0@@Z
  0006a	84 c0		 test	 al, al
  0006c	74 07		 je	 SHORT $LN15@Process
$LN86@Process:

; 141  : 				SetWeaponDead();

  0006e	8b 03		 mov	 eax, DWORD PTR [ebx]
  00070	8b cb		 mov	 ecx, ebx
  00072	ff 50 4c	 call	 DWORD PTR [eax+76]
$LN15@Process:

; 142  : 		}
; 143  : 	}

  00075	83 4d fc ff	 or	 DWORD PTR __$EHRec$[ebp+8], -1
  00079	8d 4d 84	 lea	 ecx, DWORD PTR _szSkillName$523886[ebp]
  0007c	ff 15 00 00 00
	00		 call	 DWORD PTR __imp_??1ioHashString@@QAE@XZ
$LN19@Process:

; 144  : 
; 145  : 	if( m_dwCreatedTime + m_dwLiveTime + dwLooseTime < FRAMEGETTIME() )

  00082	ff 15 00 00 00
	00		 call	 DWORD PTR __imp_?GetSingleton@ioFrameTimer@@SAAAV1@XZ
  00088	8b c8		 mov	 ecx, eax
  0008a	ff 15 00 00 00
	00		 call	 DWORD PTR __imp_?GetLoopSec@ioFrameTimer@@QBEKXZ
  00090	8b 8b d8 04 00
	00		 mov	 ecx, DWORD PTR [ebx+1240]
  00096	03 8b d4 04 00
	00		 add	 ecx, DWORD PTR [ebx+1236]
  0009c	03 ce		 add	 ecx, esi
  0009e	3b c8		 cmp	 ecx, eax

; 146  : 	{
; 147  : 		SetWeaponDead();

  000a0	8b cb		 mov	 ecx, ebx
  000a2	73 0a		 jae	 SHORT $LN14@Process
$LN87@Process:
  000a4	8b 03		 mov	 eax, DWORD PTR [ebx]
$LN88@Process:
  000a6	ff 50 4c	 call	 DWORD PTR [eax+76]

; 148  : 		return;

  000a9	e9 8a 05 00 00	 jmp	 $LN1@Process
$LN14@Process:

; 149  : 	}
; 150  : 
; 151  : 	if( !CheckCreateItem() )

  000ae	e8 00 00 00 00	 call	 ?CheckCreateItem@ioRotationWeapon@@IAE_NXZ ; ioRotationWeapon::CheckCreateItem

; 152  : 	{
; 153  : 		SetWeaponDead();

  000b3	8b cb		 mov	 ecx, ebx
  000b5	84 c0		 test	 al, al

; 154  : 		return;

  000b7	74 eb		 je	 SHORT $LN87@Process

; 155  : 	}
; 156  : 
; 157  : 	if( !CheckOwnerState() )

  000b9	e8 00 00 00 00	 call	 ?CheckOwnerState@ioRotationWeapon@@IAE_NXZ ; ioRotationWeapon::CheckOwnerState
  000be	84 c0		 test	 al, al

; 158  : 	{
; 159  : 		SetWeaponDead();

  000c0	8b 03		 mov	 eax, DWORD PTR [ebx]
  000c2	8b cb		 mov	 ecx, ebx

; 160  : 		return;

  000c4	74 e0		 je	 SHORT $LN88@Process

; 161  : 	}
; 162  : 
; 163  : 	if( !CheckPiercing() )

  000c6	6a 00		 push	 0
  000c8	ff 90 48 01 00
	00		 call	 DWORD PTR [eax+328]
  000ce	84 c0		 test	 al, al
  000d0	0f 84 62 05 00
	00		 je	 $LN1@Process

; 164  : 		return;
; 165  : 
; 166  : 	if( !m_bFirst )

  000d6	80 bb d9 08 00
	00 00		 cmp	 BYTE PTR [ebx+2265], 0
  000dd	0f 85 15 05 00
	00		 jne	 $LN10@Process

; 167  : 	{
; 168  : 		//    
; 169  : 		ioBaseChar *pOwner = GetOwner();

  000e3	8b cb		 mov	 ecx, ebx
  000e5	e8 00 00 00 00	 call	 ?GetOwner@ioWeapon@@QBEPAVioBaseChar@@XZ ; ioWeapon::GetOwner
  000ea	89 45 94	 mov	 DWORD PTR _pOwner$523898[ebp], eax

; 170  : 		if( !pOwner )

  000ed	85 c0		 test	 eax, eax
  000ef	75 1b		 jne	 SHORT $LN9@Process

; 171  : 		{
; 172  : 			UpdateWorldAttackBox( fTimePerSec, true );

  000f1	f3 0f 10 45 08	 movss	 xmm0, DWORD PTR _fTimePerSec$[ebp]
  000f6	8b 03		 mov	 eax, DWORD PTR [ebx]
  000f8	6a 01		 push	 1
  000fa	51		 push	 ecx
  000fb	8b cb		 mov	 ecx, ebx
  000fd	f3 0f 11 04 24	 movss	 DWORD PTR [esp], xmm0
  00102	ff 90 38 01 00
	00		 call	 DWORD PTR [eax+312]

; 173  : 			SetWeaponDead();

  00108	8b cb		 mov	 ecx, ebx

; 174  : 			return;

  0010a	eb 98		 jmp	 SHORT $LN87@Process
$LN9@Process:

; 175  : 		}
; 176  : 
; 177  : 		m_vOwnerPos = pOwner->GetMidPositionByRate();

  0010c	b8 05 00 00 00	 mov	 eax, 5
  00111	8b c8		 mov	 ecx, eax
  00113	b8 0a 00 00 00	 mov	 eax, 10			; 0000000aH
  00118	89 4d 98	 mov	 DWORD PTR tv1109[ebp], ecx
  0011b	db 45 98	 fild	 DWORD PTR tv1109[ebp]
  0011e	85 c9		 test	 ecx, ecx
  00120	79 06		 jns	 SHORT $LN78@Process
  00122	d8 05 00 00 00
	00		 fadd	 DWORD PTR __real@4f800000
$LN78@Process:
  00128	89 45 98	 mov	 DWORD PTR tv1105[ebp], eax
  0012b	db 45 98	 fild	 DWORD PTR tv1105[ebp]
  0012e	85 c0		 test	 eax, eax
  00130	79 06		 jns	 SHORT $LN79@Process
  00132	d8 05 00 00 00
	00		 fadd	 DWORD PTR __real@4f800000
$LN79@Process:
  00138	de f9		 fdivp	 ST(1), ST(0)
  0013a	51		 push	 ecx
  0013b	8b 4d 94	 mov	 ecx, DWORD PTR _pOwner$523898[ebp]
  0013e	8d 45 e4	 lea	 eax, DWORD PTR $T523900[ebp]
  00141	d9 5d 98	 fstp	 DWORD PTR tv1099[ebp]
  00144	d9 45 98	 fld	 DWORD PTR tv1099[ebp]
  00147	d9 1c 24	 fstp	 DWORD PTR [esp]
  0014a	50		 push	 eax
  0014b	e8 00 00 00 00	 call	 ?GetMidPositionByRate@ioGameEntity@@QBE?AUD3DXVECTOR3@@M@Z ; ioGameEntity::GetMidPositionByRate

; 178  : 		D3DXVECTOR3 vCurCencter = m_vOwnerPos;
; 179  : 		if( m_bIndependenceChar )

  00150	80 bb d4 08 00
	00 00		 cmp	 BYTE PTR [ebx+2260], 0
  00157	8d bb b0 08 00
	00		 lea	 edi, DWORD PTR [ebx+2224]
  0015d	8b f0		 mov	 esi, eax
  0015f	a5		 movsd
  00160	a5		 movsd
  00161	a5		 movsd
  00162	8b f0		 mov	 esi, eax
  00164	8d bd 78 ff ff
	ff		 lea	 edi, DWORD PTR _vCurCencter$523901[ebp]
  0016a	a5		 movsd
  0016b	a5		 movsd
  0016c	a5		 movsd
  0016d	74 0f		 je	 SHORT $LN8@Process

; 180  : 			vCurCencter = m_vCenterPos;

  0016f	8d b3 c8 08 00
	00		 lea	 esi, DWORD PTR [ebx+2248]
  00175	8d bd 78 ff ff
	ff		 lea	 edi, DWORD PTR _vCurCencter$523901[ebp]
  0017b	a5		 movsd
  0017c	a5		 movsd
  0017d	a5		 movsd
$LN8@Process:

; 181  : 
; 182  : 		// 
; 183  : 		if( m_fRotationTime > 0.0f )

  0017e	f3 0f 10 8b 9c
	08 00 00	 movss	 xmm1, DWORD PTR [ebx+2204]
  00186	0f 57 c0	 xorps	 xmm0, xmm0
  00189	0f 2f c8	 comiss	 xmm1, xmm0
  0018c	0f 86 41 01 00
	00		 jbe	 $LN7@Process

; 184  : 		{
; 185  : 			float fGapTime = fTimePerSec * FLOAT1000;

  00192	b8 e8 03 00 00	 mov	 eax, 1000		; 000003e8H

; 186  : 			float fRotationRate = fGapTime / m_fRotationTime;

  00197	89 45 98	 mov	 DWORD PTR tv1069[ebp], eax
  0019a	db 45 98	 fild	 DWORD PTR tv1069[ebp]
  0019d	85 c0		 test	 eax, eax
  0019f	79 06		 jns	 SHORT $LN80@Process
  001a1	d8 05 00 00 00
	00		 fadd	 DWORD PTR __real@4f800000
$LN80@Process:

; 187  : 			float fAngle = 0.0f;
; 188  : 			if ( !m_bReverseRotation )

  001a7	80 bb da 08 00
	00 00		 cmp	 BYTE PTR [ebx+2266], 0
  001ae	d8 4d 08	 fmul	 DWORD PTR _fTimePerSec$[ebp]
  001b1	d9 5d 98	 fstp	 DWORD PTR tv1066[ebp]
  001b4	d9 45 98	 fld	 DWORD PTR tv1066[ebp]
  001b7	d8 b3 9c 08 00
	00		 fdiv	 DWORD PTR [ebx+2204]
  001bd	d9 5d 94	 fstp	 DWORD PTR _fRotationRate$523906[ebp]
  001c0	75 17		 jne	 SHORT $LN6@Process

; 189  : 				fAngle = FLOAT360 * fRotationRate;

  001c2	b8 68 01 00 00	 mov	 eax, 360		; 00000168H
  001c7	89 45 98	 mov	 DWORD PTR tv1060[ebp], eax
  001ca	db 45 98	 fild	 DWORD PTR tv1060[ebp]
  001cd	85 c0		 test	 eax, eax
  001cf	79 1f		 jns	 SHORT $LN81@Process
  001d1	d8 05 00 00 00
	00		 fadd	 DWORD PTR __real@4f800000

; 190  : 			else

  001d7	eb 17		 jmp	 SHORT $LN81@Process
$LN6@Process:

; 191  : 				fAngle = -FLOAT360 * fRotationRate;

  001d9	b8 68 01 00 00	 mov	 eax, 360		; 00000168H
  001de	89 45 98	 mov	 DWORD PTR tv1054[ebp], eax
  001e1	db 45 98	 fild	 DWORD PTR tv1054[ebp]
  001e4	85 c0		 test	 eax, eax
  001e6	79 06		 jns	 SHORT $LN82@Process
  001e8	d8 05 00 00 00
	00		 fadd	 DWORD PTR __real@4f800000
$LN82@Process:
  001ee	d9 e0		 fchs
$LN81@Process:
  001f0	d8 4d 94	 fmul	 DWORD PTR _fRotationRate$523906[ebp]

; 192  : 
; 193  : 			fAngle = ioMath::ArrangeHead( fAngle );

  001f3	51		 push	 ecx
  001f4	d9 5d 94	 fstp	 DWORD PTR _fAngle$523907[ebp]
  001f7	f3 0f 10 45 94	 movss	 xmm0, DWORD PTR _fAngle$523907[ebp]
  001fc	f3 0f 11 04 24	 movss	 DWORD PTR [esp], xmm0
  00201	ff 15 00 00 00
	00		 call	 DWORD PTR __imp_?ArrangeHead@ioMath@@SAMM@Z
  00207	d9 5d 94	 fstp	 DWORD PTR _fAngle$523907[ebp]

; 194  : 
; 195  : 			D3DXQUATERNION qtAngle;
; 196  : 			D3DXQuaternionRotationYawPitchRoll( &qtAngle, DEGtoRAD(fAngle), 0.0f, 0.0f );

  0020a	d9 45 94	 fld	 DWORD PTR _fAngle$523907[ebp]
  0020d	0f 57 c0	 xorps	 xmm0, xmm0
  00210	dc 0d 00 00 00
	00		 fmul	 QWORD PTR __real@3f91df46a2526c7a
  00216	f3 0f 11 04 24	 movss	 DWORD PTR [esp], xmm0
  0021b	51		 push	 ecx
  0021c	51		 push	 ecx
  0021d	d9 5d 98	 fstp	 DWORD PTR tv1045[ebp]
  00220	f3 0f 11 44 24
	04		 movss	 DWORD PTR [esp+4], xmm0
  00226	d9 45 98	 fld	 DWORD PTR tv1045[ebp]
  00229	8d 45 84	 lea	 eax, DWORD PTR _qtAngle$523912[ebp]
  0022c	d9 1c 24	 fstp	 DWORD PTR [esp]
  0022f	50		 push	 eax
  00230	e8 00 00 00 00	 call	 _D3DXQuaternionRotationYawPitchRoll@16

; 197  : 			SetOrientation( qtAngle );

  00235	8d 45 84	 lea	 eax, DWORD PTR _qtAngle$523912[ebp]
  00238	50		 push	 eax
  00239	8b cb		 mov	 ecx, ebx
  0023b	e8 00 00 00 00	 call	 ?SetOrientation@ioWeapon@@QAEXABUD3DXQUATERNION@@@Z ; ioWeapon::SetOrientation

; 198  : 
; 199  : 			m_vDiffPos = qtAngle * m_vDiffPos;

  00240	8d bb bc 08 00
	00		 lea	 edi, DWORD PTR [ebx+2236]
  00246	57		 push	 edi
  00247	8d 45 84	 lea	 eax, DWORD PTR _qtAngle$523912[ebp]
  0024a	50		 push	 eax
  0024b	8d 45 b4	 lea	 eax, DWORD PTR $T523917[ebp]
  0024e	50		 push	 eax
  0024f	ff 15 00 00 00
	00		 call	 DWORD PTR __imp_??D@YA?AUD3DXVECTOR3@@ABUD3DXQUATERNION@@ABU0@@Z

; 200  : 
; 201  : 			D3DXVECTOR3 vNewPos = vCurCencter + m_vDiffPos;

  00255	f3 0f 10 8d 78
	ff ff ff	 movss	 xmm1, DWORD PTR _vCurCencter$523901[ebp]
  0025d	8b f0		 mov	 esi, eax
  0025f	a5		 movsd
  00260	a5		 movsd
  00261	a5		 movsd
  00262	f3 0f 10 83 bc
	08 00 00	 movss	 xmm0, DWORD PTR [ebx+2236]
  0026a	0f 5a c0	 cvtps2pd xmm0, xmm0
  0026d	0f 5a c9	 cvtps2pd xmm1, xmm1
  00270	f2 0f 58 c1	 addsd	 xmm0, xmm1
  00274	f3 0f 10 8d 7c
	ff ff ff	 movss	 xmm1, DWORD PTR _vCurCencter$523901[ebp+4]
  0027c	66 0f 5a c0	 cvtpd2ps xmm0, xmm0
  00280	f3 0f 11 45 e4	 movss	 DWORD PTR _vNewPos$523918[ebp], xmm0
  00285	f3 0f 10 83 c0
	08 00 00	 movss	 xmm0, DWORD PTR [ebx+2240]
  0028d	0f 5a c0	 cvtps2pd xmm0, xmm0
  00290	0f 5a c9	 cvtps2pd xmm1, xmm1
  00293	f2 0f 58 c1	 addsd	 xmm0, xmm1
  00297	f3 0f 10 4d 80	 movss	 xmm1, DWORD PTR _vCurCencter$523901[ebp+8]
  0029c	66 0f 5a c0	 cvtpd2ps xmm0, xmm0
  002a0	f3 0f 11 45 e8	 movss	 DWORD PTR _vNewPos$523918[ebp+4], xmm0
  002a5	f3 0f 10 83 c4
	08 00 00	 movss	 xmm0, DWORD PTR [ebx+2244]
  002ad	0f 5a c0	 cvtps2pd xmm0, xmm0
  002b0	83 c4 0c	 add	 esp, 12			; 0000000cH
  002b3	0f 5a c9	 cvtps2pd xmm1, xmm1

; 202  : 			SetPosition( vNewPos );

  002b6	8d 45 e4	 lea	 eax, DWORD PTR _vNewPos$523918[ebp]
  002b9	f2 0f 58 c1	 addsd	 xmm0, xmm1
  002bd	66 0f 5a c0	 cvtpd2ps xmm0, xmm0
  002c1	50		 push	 eax
  002c2	8b cb		 mov	 ecx, ebx
  002c4	f3 0f 11 45 ec	 movss	 DWORD PTR _vNewPos$523918[ebp+8], xmm0
  002c9	e8 00 00 00 00	 call	 ?SetPosition@ioWeapon@@QAEXABUD3DXVECTOR3@@@Z ; ioWeapon::SetPosition

; 203  : 		}
; 204  : 		else

  002ce	e9 0e 03 00 00	 jmp	 $LN4@Process
$LN7@Process:

; 205  : 		{
; 206  : 			D3DXQUATERNION qtCurRot = pOwner->GetTargetRot();

  002d3	8b 75 94	 mov	 esi, DWORD PTR _pOwner$523898[ebp]
  002d6	81 c6 a4 06 00
	00		 add	 esi, 1700		; 000006a4H
  002dc	8d bd 68 ff ff
	ff		 lea	 edi, DWORD PTR _qtCurRot$523921[ebp]
  002e2	a5		 movsd
  002e3	a5		 movsd
  002e4	a5		 movsd
  002e5	a5		 movsd

; 207  : 
; 208  : 			D3DXVECTOR3 vStartDir = m_qtStartRot * D3DXVECTOR3( 0.0f, 0.0f, -FLOAT1 );

  002e6	b8 01 00 00 00	 mov	 eax, 1
  002eb	89 45 98	 mov	 DWORD PTR tv1004[ebp], eax
  002ee	f3 0f 11 45 e4	 movss	 DWORD PTR $T523924[ebp], xmm0
  002f3	db 45 98	 fild	 DWORD PTR tv1004[ebp]
  002f6	f3 0f 11 45 e8	 movss	 DWORD PTR $T523924[ebp+4], xmm0
  002fb	85 c0		 test	 eax, eax
  002fd	79 06		 jns	 SHORT $LN83@Process
  002ff	d8 05 00 00 00
	00		 fadd	 DWORD PTR __real@4f800000
$LN83@Process:
  00305	8b 35 00 00 00
	00		 mov	 esi, DWORD PTR __imp_??D@YA?AUD3DXVECTOR3@@ABUD3DXQUATERNION@@ABU0@@Z
  0030b	d9 e0		 fchs
  0030d	8d 45 e4	 lea	 eax, DWORD PTR $T523924[ebp]
  00310	d9 5d ec	 fstp	 DWORD PTR $T523924[ebp+8]
  00313	50		 push	 eax
  00314	8d 83 a0 08 00
	00		 lea	 eax, DWORD PTR [ebx+2208]
  0031a	50		 push	 eax
  0031b	8d 45 cc	 lea	 eax, DWORD PTR _vStartDir$523922[ebp]
  0031e	50		 push	 eax
  0031f	ff d6		 call	 esi

; 209  : 			vStartDir.y = 0.0f;

  00321	0f 57 c0	 xorps	 xmm0, xmm0
  00324	83 c4 0c	 add	 esp, 12			; 0000000cH

; 210  : 			D3DXVec3Normalize( &vStartDir, &vStartDir );

  00327	8d 45 cc	 lea	 eax, DWORD PTR _vStartDir$523922[ebp]
  0032a	50		 push	 eax
  0032b	50		 push	 eax
  0032c	f3 0f 11 45 d0	 movss	 DWORD PTR _vStartDir$523922[ebp+4], xmm0
  00331	e8 00 00 00 00	 call	 _D3DXVec3Normalize@8

; 211  : 
; 212  : 			D3DXVECTOR3 vCurDir = qtCurRot * D3DXVECTOR3( 0.0f, 0.0f, -FLOAT1 );

  00336	b8 01 00 00 00	 mov	 eax, 1
  0033b	0f 57 c0	 xorps	 xmm0, xmm0
  0033e	89 45 98	 mov	 DWORD PTR tv993[ebp], eax
  00341	db 45 98	 fild	 DWORD PTR tv993[ebp]
  00344	f3 0f 11 45 e4	 movss	 DWORD PTR $T523928[ebp], xmm0
  00349	f3 0f 11 45 e8	 movss	 DWORD PTR $T523928[ebp+4], xmm0
  0034e	85 c0		 test	 eax, eax
  00350	79 06		 jns	 SHORT $LN84@Process
  00352	d8 05 00 00 00
	00		 fadd	 DWORD PTR __real@4f800000
$LN84@Process:
  00358	8d 45 e4	 lea	 eax, DWORD PTR $T523928[ebp]
  0035b	d9 e0		 fchs
  0035d	50		 push	 eax
  0035e	d9 5d ec	 fstp	 DWORD PTR $T523928[ebp+8]
  00361	8d 85 68 ff ff
	ff		 lea	 eax, DWORD PTR _qtCurRot$523921[ebp]
  00367	50		 push	 eax
  00368	8d 45 d8	 lea	 eax, DWORD PTR _vCurDir$523926[ebp]
  0036b	50		 push	 eax
  0036c	ff d6		 call	 esi

; 213  : 			vCurDir.y = 0.0f;

  0036e	0f 57 c0	 xorps	 xmm0, xmm0
  00371	83 c4 0c	 add	 esp, 12			; 0000000cH

; 214  : 			D3DXVec3Normalize( &vCurDir, &vCurDir );

  00374	8d 45 d8	 lea	 eax, DWORD PTR _vCurDir$523926[ebp]
  00377	50		 push	 eax
  00378	50		 push	 eax
  00379	f3 0f 11 45 dc	 movss	 DWORD PTR _vCurDir$523926[ebp+4], xmm0
  0037e	e8 00 00 00 00	 call	 _D3DXVec3Normalize@8

; 215  : 
; 216  : 			D3DXVECTOR3 vDiff = m_vDiffPos;
; 217  : 
; 218  : 			if( vCurDir != vStartDir )

  00383	f3 0f 10 45 d8	 movss	 xmm0, DWORD PTR _vCurDir$523926[ebp]
  00388	f3 0f 10 4d cc	 movss	 xmm1, DWORD PTR _vStartDir$523922[ebp]
  0038d	8d b3 bc 08 00
	00		 lea	 esi, DWORD PTR [ebx+2236]
  00393	8d 7d e4	 lea	 edi, DWORD PTR _vDiff$523930[ebp]
  00396	a5		 movsd
  00397	0f 5a c0	 cvtps2pd xmm0, xmm0
  0039a	0f 5a c9	 cvtps2pd xmm1, xmm1
  0039d	66 0f 2e c1	 ucomisd xmm0, xmm1
  003a1	a5		 movsd
  003a2	9f		 lahf
  003a3	a5		 movsd
  003a4	f6 c4 44	 test	 ah, 68			; 00000044H
  003a7	7a 38		 jp	 SHORT $LN58@Process
  003a9	f3 0f 10 45 dc	 movss	 xmm0, DWORD PTR _vCurDir$523926[ebp+4]
  003ae	f3 0f 10 4d d0	 movss	 xmm1, DWORD PTR _vStartDir$523922[ebp+4]
  003b3	0f 5a c0	 cvtps2pd xmm0, xmm0
  003b6	0f 5a c9	 cvtps2pd xmm1, xmm1
  003b9	66 0f 2e c1	 ucomisd xmm0, xmm1
  003bd	9f		 lahf
  003be	f6 c4 44	 test	 ah, 68			; 00000044H
  003c1	7a 1e		 jp	 SHORT $LN58@Process
  003c3	f3 0f 10 45 e0	 movss	 xmm0, DWORD PTR _vCurDir$523926[ebp+8]
  003c8	f3 0f 10 4d d4	 movss	 xmm1, DWORD PTR _vStartDir$523922[ebp+8]
  003cd	0f 5a c0	 cvtps2pd xmm0, xmm0
  003d0	0f 5a c9	 cvtps2pd xmm1, xmm1
  003d3	66 0f 2e c1	 ucomisd xmm0, xmm1
  003d7	9f		 lahf
  003d8	f6 c4 44	 test	 ah, 68			; 00000044H
  003db	0f 8b 8a 01 00
	00		 jnp	 $LN3@Process
$LN58@Process:

; 219  : 			{
; 220  : 				float fDotValue = D3DXVec3Dot( &vStartDir, &vCurDir );

  003e1	f3 0f 10 4d d8	 movss	 xmm1, DWORD PTR _vCurDir$523926[ebp]
  003e6	f3 0f 10 45 cc	 movss	 xmm0, DWORD PTR _vStartDir$523922[ebp]
  003eb	f3 0f 10 55 d0	 movss	 xmm2, DWORD PTR _vStartDir$523922[ebp+4]
  003f0	0f 5a c9	 cvtps2pd xmm1, xmm1
  003f3	0f 5a c0	 cvtps2pd xmm0, xmm0
  003f6	f2 0f 59 c1	 mulsd	 xmm0, xmm1
  003fa	f3 0f 10 4d dc	 movss	 xmm1, DWORD PTR _vCurDir$523926[ebp+4]
  003ff	0f 5a c9	 cvtps2pd xmm1, xmm1
  00402	0f 5a d2	 cvtps2pd xmm2, xmm2
  00405	f2 0f 59 ca	 mulsd	 xmm1, xmm2
  00409	f3 0f 10 55 e0	 movss	 xmm2, DWORD PTR _vCurDir$523926[ebp+8]
  0040e	f2 0f 58 c1	 addsd	 xmm0, xmm1
  00412	f3 0f 10 4d d4	 movss	 xmm1, DWORD PTR _vStartDir$523922[ebp+8]
  00417	0f 5a c9	 cvtps2pd xmm1, xmm1
  0041a	0f 5a d2	 cvtps2pd xmm2, xmm2
  0041d	f2 0f 59 ca	 mulsd	 xmm1, xmm2
  00421	f2 0f 58 c1	 addsd	 xmm0, xmm1
  00425	f2 0f 5a c0	 cvtsd2ss xmm0, xmm0
  00429	f3 0f 11 45 94	 movss	 DWORD PTR _fDotValue$523932[ebp], xmm0

; 221  : 				float fGapAngle = acosf(fDotValue);

  0042e	d9 45 94	 fld	 DWORD PTR _fDotValue$523932[ebp]
  00431	e8 00 00 00 00	 call	 __CIacos
  00436	d9 5d 98	 fstp	 DWORD PTR tv954[ebp]

; 222  : 
; 223  : 				D3DXVECTOR3 vAxis = ioMath::UNIT_Y;

  00439	8b 35 00 00 00
	00		 mov	 esi, DWORD PTR __imp_?UNIT_Y@ioMath@@2UD3DXVECTOR3@@A
  0043f	d9 45 98	 fld	 DWORD PTR tv954[ebp]

; 224  : 				if( COMPARE( fDotValue, -0.98f, 0.98f ) )

  00442	f3 0f 10 45 94	 movss	 xmm0, DWORD PTR _fDotValue$523932[ebp]
  00447	d9 5d 98	 fstp	 DWORD PTR _fGapAngle$523933[ebp]
  0044a	8d 7d a8	 lea	 edi, DWORD PTR _vAxis$523934[ebp]
  0044d	a5		 movsd
  0044e	a5		 movsd
  0044f	0f 5a c0	 cvtps2pd xmm0, xmm0
  00452	66 0f 2f 05 00
	00 00 00	 comisd	 xmm0, QWORD PTR __real@bfef5c2900000000
  0045a	a5		 movsd
  0045b	0f 82 cc 00 00
	00		 jb	 $LN2@Process
  00461	f3 0f 10 45 94	 movss	 xmm0, DWORD PTR _fDotValue$523932[ebp]
  00466	f2 0f 10 0d 00
	00 00 00	 movsd	 xmm1, QWORD PTR __real@3fef5c2900000000
  0046e	0f 5a c0	 cvtps2pd xmm0, xmm0
  00471	66 0f 2f c8	 comisd	 xmm1, xmm0
  00475	0f 86 b2 00 00
	00		 jbe	 $LN2@Process

; 225  : 				{
; 226  : 					D3DXVec3Cross( &vAxis, &vStartDir, &vCurDir );

  0047b	f3 0f 10 45 e0	 movss	 xmm0, DWORD PTR _vCurDir$523926[ebp+8]
  00480	f3 0f 10 4d d0	 movss	 xmm1, DWORD PTR _vStartDir$523922[ebp+4]
  00485	f3 0f 10 55 dc	 movss	 xmm2, DWORD PTR _vCurDir$523926[ebp+4]
  0048a	0f 5a c9	 cvtps2pd xmm1, xmm1
  0048d	0f 5a c0	 cvtps2pd xmm0, xmm0
  00490	f2 0f 59 c1	 mulsd	 xmm0, xmm1
  00494	f3 0f 10 4d d4	 movss	 xmm1, DWORD PTR _vStartDir$523922[ebp+8]
  00499	0f 5a c9	 cvtps2pd xmm1, xmm1
  0049c	0f 5a d2	 cvtps2pd xmm2, xmm2
  0049f	f2 0f 59 ca	 mulsd	 xmm1, xmm2
  004a3	f3 0f 10 55 cc	 movss	 xmm2, DWORD PTR _vStartDir$523922[ebp]
  004a8	f2 0f 5c c1	 subsd	 xmm0, xmm1
  004ac	f3 0f 10 4d d8	 movss	 xmm1, DWORD PTR _vCurDir$523926[ebp]
  004b1	f2 0f 5a c0	 cvtsd2ss xmm0, xmm0
  004b5	f3 0f 11 45 b4	 movss	 DWORD PTR _v$526796[ebp], xmm0
  004ba	f3 0f 10 45 d4	 movss	 xmm0, DWORD PTR _vStartDir$523922[ebp+8]
  004bf	0f 5a c9	 cvtps2pd xmm1, xmm1
  004c2	0f 5a c0	 cvtps2pd xmm0, xmm0
  004c5	f2 0f 59 c1	 mulsd	 xmm0, xmm1
  004c9	f3 0f 10 4d e0	 movss	 xmm1, DWORD PTR _vCurDir$523926[ebp+8]
  004ce	0f 5a c9	 cvtps2pd xmm1, xmm1
  004d1	0f 5a d2	 cvtps2pd xmm2, xmm2
  004d4	f2 0f 59 ca	 mulsd	 xmm1, xmm2
  004d8	f3 0f 10 55 d0	 movss	 xmm2, DWORD PTR _vStartDir$523922[ebp+4]
  004dd	f2 0f 5c c1	 subsd	 xmm0, xmm1
  004e1	f3 0f 10 4d dc	 movss	 xmm1, DWORD PTR _vCurDir$523926[ebp+4]
  004e6	f2 0f 5a c0	 cvtsd2ss xmm0, xmm0
  004ea	f3 0f 11 45 b8	 movss	 DWORD PTR _v$526796[ebp+4], xmm0
  004ef	f3 0f 10 45 cc	 movss	 xmm0, DWORD PTR _vStartDir$523922[ebp]
  004f4	0f 5a c9	 cvtps2pd xmm1, xmm1
  004f7	0f 5a c0	 cvtps2pd xmm0, xmm0
  004fa	f2 0f 59 c1	 mulsd	 xmm0, xmm1
  004fe	f3 0f 10 4d d8	 movss	 xmm1, DWORD PTR _vCurDir$523926[ebp]
  00503	0f 5a c9	 cvtps2pd xmm1, xmm1
  00506	0f 5a d2	 cvtps2pd xmm2, xmm2
  00509	f2 0f 59 ca	 mulsd	 xmm1, xmm2
  0050d	f2 0f 5c c1	 subsd	 xmm0, xmm1
  00511	f2 0f 5a c0	 cvtsd2ss xmm0, xmm0
  00515	f3 0f 11 45 bc	 movss	 DWORD PTR _v$526796[ebp+8], xmm0
  0051a	8d 75 b4	 lea	 esi, DWORD PTR _v$526796[ebp]
  0051d	8d 7d a8	 lea	 edi, DWORD PTR _vAxis$523934[ebp]
  00520	a5		 movsd

; 227  : 					D3DXVec3Normalize( &vAxis, &vAxis );

  00521	8d 45 a8	 lea	 eax, DWORD PTR _vAxis$523934[ebp]
  00524	a5		 movsd
  00525	50		 push	 eax
  00526	50		 push	 eax
  00527	a5		 movsd
  00528	e8 00 00 00 00	 call	 _D3DXVec3Normalize@8
$LN2@Process:

; 228  : 				}
; 229  : 
; 230  : 				D3DXQUATERNION qtNewRot;
; 231  : 				D3DXQuaternionRotationAxis( &qtNewRot, &vAxis, fGapAngle );

  0052d	f3 0f 10 45 98	 movss	 xmm0, DWORD PTR _fGapAngle$523933[ebp]
  00532	51		 push	 ecx
  00533	f3 0f 11 04 24	 movss	 DWORD PTR [esp], xmm0
  00538	8d 45 a8	 lea	 eax, DWORD PTR _vAxis$523934[ebp]
  0053b	50		 push	 eax
  0053c	8d 85 58 ff ff
	ff		 lea	 eax, DWORD PTR _qtNewRot$523936[ebp]
  00542	50		 push	 eax
  00543	e8 00 00 00 00	 call	 _D3DXQuaternionRotationAxis@12

; 232  : 
; 233  : 				vDiff = qtNewRot * m_vDiffPos;

  00548	8d 83 bc 08 00
	00		 lea	 eax, DWORD PTR [ebx+2236]
  0054e	50		 push	 eax
  0054f	8d 85 58 ff ff
	ff		 lea	 eax, DWORD PTR _qtNewRot$523936[ebp]
  00555	50		 push	 eax
  00556	8d 45 9c	 lea	 eax, DWORD PTR $T523937[ebp]
  00559	50		 push	 eax
  0055a	ff 15 00 00 00
	00		 call	 DWORD PTR __imp_??D@YA?AUD3DXVECTOR3@@ABUD3DXQUATERNION@@ABU0@@Z
  00560	8b f0		 mov	 esi, eax
  00562	8d 7d e4	 lea	 edi, DWORD PTR _vDiff$523930[ebp]
  00565	a5		 movsd
  00566	a5		 movsd
  00567	83 c4 0c	 add	 esp, 12			; 0000000cH
  0056a	a5		 movsd
$LN3@Process:

; 234  : 			}
; 235  : 
; 236  : 			D3DXVECTOR3 vNewPos = vCurCencter + vDiff;

  0056b	f3 0f 10 45 e4	 movss	 xmm0, DWORD PTR _vDiff$523930[ebp]
  00570	f3 0f 10 8d 78
	ff ff ff	 movss	 xmm1, DWORD PTR _vCurCencter$523901[ebp]
  00578	0f 5a c0	 cvtps2pd xmm0, xmm0
  0057b	0f 5a c9	 cvtps2pd xmm1, xmm1
  0057e	f2 0f 58 c1	 addsd	 xmm0, xmm1
  00582	f3 0f 10 8d 7c
	ff ff ff	 movss	 xmm1, DWORD PTR _vCurCencter$523901[ebp+4]
  0058a	66 0f 5a c0	 cvtpd2ps xmm0, xmm0
  0058e	f3 0f 11 45 c0	 movss	 DWORD PTR _vNewPos$523938[ebp], xmm0
  00593	f3 0f 10 45 e8	 movss	 xmm0, DWORD PTR _vDiff$523930[ebp+4]
  00598	0f 5a c0	 cvtps2pd xmm0, xmm0
  0059b	0f 5a c9	 cvtps2pd xmm1, xmm1
  0059e	f2 0f 58 c1	 addsd	 xmm0, xmm1
  005a2	f3 0f 10 4d 80	 movss	 xmm1, DWORD PTR _vCurCencter$523901[ebp+8]
  005a7	66 0f 5a c0	 cvtpd2ps xmm0, xmm0
  005ab	f3 0f 11 45 c4	 movss	 DWORD PTR _vNewPos$523938[ebp+4], xmm0
  005b0	f3 0f 10 45 ec	 movss	 xmm0, DWORD PTR _vDiff$523930[ebp+8]
  005b5	0f 5a c0	 cvtps2pd xmm0, xmm0
  005b8	0f 5a c9	 cvtps2pd xmm1, xmm1

; 237  : 			SetPosition( vNewPos );

  005bb	8d 45 c0	 lea	 eax, DWORD PTR _vNewPos$523938[ebp]
  005be	f2 0f 58 c1	 addsd	 xmm0, xmm1
  005c2	66 0f 5a c0	 cvtpd2ps xmm0, xmm0
  005c6	50		 push	 eax
  005c7	8b cb		 mov	 ecx, ebx
  005c9	f3 0f 11 45 c8	 movss	 DWORD PTR _vNewPos$523938[ebp+8], xmm0
  005ce	e8 00 00 00 00	 call	 ?SetPosition@ioWeapon@@QAEXABUD3DXVECTOR3@@@Z ; ioWeapon::SetPosition

; 238  : 
; 239  : 			SetOrientation( qtCurRot );

  005d3	8d 85 68 ff ff
	ff		 lea	 eax, DWORD PTR _qtCurRot$523921[ebp]
  005d9	50		 push	 eax
  005da	8b cb		 mov	 ecx, ebx
  005dc	e8 00 00 00 00	 call	 ?SetOrientation@ioWeapon@@QAEXABUD3DXQUATERNION@@@Z ; ioWeapon::SetOrientation
$LN4@Process:

; 240  : 		}
; 241  : 
; 242  : 		UpdateWorldAttackBox( fTimePerSec, false );

  005e1	f3 0f 10 45 08	 movss	 xmm0, DWORD PTR _fTimePerSec$[ebp]
  005e6	8b 03		 mov	 eax, DWORD PTR [ebx]
  005e8	6a 00		 push	 0
  005ea	51		 push	 ecx
  005eb	8b cb		 mov	 ecx, ebx
  005ed	f3 0f 11 04 24	 movss	 DWORD PTR [esp], xmm0
  005f2	ff 90 38 01 00
	00		 call	 DWORD PTR [eax+312]
$LN10@Process:

; 243  : 	}
; 244  : 
; 245  : 	m_bFirst = false;
; 246  : 	
; 247  : 	if( m_pFireBall )

  005f8	83 bb 94 08 00
	00 00		 cmp	 DWORD PTR [ebx+2196], 0
  005ff	c6 83 d9 08 00
	00 00		 mov	 BYTE PTR [ebx+2265], 0
  00606	74 30		 je	 SHORT $LN1@Process

; 248  : 	{
; 249  : 		m_pFireBall->Update( fTimePerSec * FLOAT1000 );

  00608	b8 e8 03 00 00	 mov	 eax, 1000		; 000003e8H
  0060d	8b 8b 94 08 00
	00		 mov	 ecx, DWORD PTR [ebx+2196]
  00613	83 c1 14	 add	 ecx, 20			; 00000014H
  00616	8b 11		 mov	 edx, DWORD PTR [ecx]
  00618	89 45 98	 mov	 DWORD PTR tv266[ebp], eax
  0061b	db 45 98	 fild	 DWORD PTR tv266[ebp]
  0061e	85 c0		 test	 eax, eax
  00620	79 06		 jns	 SHORT $LN85@Process
  00622	d8 05 00 00 00
	00		 fadd	 DWORD PTR __real@4f800000
$LN85@Process:
  00628	d8 4d 08	 fmul	 DWORD PTR _fTimePerSec$[ebp]
  0062b	51		 push	 ecx
  0062c	d9 5d 98	 fstp	 DWORD PTR tv439[ebp]
  0062f	d9 45 98	 fld	 DWORD PTR tv439[ebp]
  00632	d9 1c 24	 fstp	 DWORD PTR [esp]
  00635	ff 52 40	 call	 DWORD PTR [edx+64]
$LN1@Process:

; 250  : 	}
; 251  : }

  00638	e8 00 00 00 00	 call	 __EH_epilog3_GS
  0063d	c2 08 00	 ret	 8
_TEXT	ENDS
;	COMDAT text$x
text$x	SEGMENT
__unwindfunclet$?Process@ioRotationWeapon@@UAEXMPAVioPlayStage@@@Z$0:
  00000	8d 4d 84	 lea	 ecx, DWORD PTR _szSkillName$523886[ebp]
  00003	ff 25 00 00 00
	00		 jmp	 DWORD PTR __imp_??1ioHashString@@QAE@XZ
__ehhandler$?Process@ioRotationWeapon@@UAEXMPAVioPlayStage@@@Z:
  00009	8b 54 24 08	 mov	 edx, DWORD PTR [esp+8]
  0000d	8d 42 0c	 lea	 eax, DWORD PTR [edx+12]
  00010	8b 8a 54 ff ff
	ff		 mov	 ecx, DWORD PTR [edx-172]
  00016	33 c8		 xor	 ecx, eax
  00018	e8 00 00 00 00	 call	 @__security_check_cookie@4
  0001d	8b 4a fc	 mov	 ecx, DWORD PTR [edx-4]
  00020	33 c8		 xor	 ecx, eax
  00022	e8 00 00 00 00	 call	 @__security_check_cookie@4
  00027	b8 00 00 00 00	 mov	 eax, OFFSET __ehfuncinfo$?Process@ioRotationWeapon@@UAEXMPAVioPlayStage@@@Z
  0002c	e9 00 00 00 00	 jmp	 ___CxxFrameHandler3
text$x	ENDS
?Process@ioRotationWeapon@@UAEXMPAVioPlayStage@@@Z ENDP	; ioRotationWeapon::Process
PUBLIC	_bMapCollision$GSCopy$
PUBLIC	__$ArrayPad$
EXTRN	?GetWorldAttackBox@ioWeapon@@QBEABVioOrientBox@@_N@Z:PROC ; ioWeapon::GetWorldAttackBox
; Function compile flags: /Ogsp
;	COMDAT ?IsCollision@ioRotationWeapon@@UAE_NPAVioPlayEntity@@_N@Z
_TEXT	SEGMENT
_bMapCollision$GSCopy$ = -24				; size = 1
_bCollision$ = -20					; size = 1
_vColPoint$ = -16					; size = 12
__$ArrayPad$ = -4					; size = 4
_pEntity$ = 8						; size = 4
_bMapCollision$ = 12					; size = 1
?IsCollision@ioRotationWeapon@@UAE_NPAVioPlayEntity@@_N@Z PROC ; ioRotationWeapon::IsCollision, COMDAT
; _this$ = ecx

; 355  : {

  00000	55		 push	 ebp
  00001	8b ec		 mov	 ebp, esp
  00003	83 ec 18	 sub	 esp, 24			; 00000018H
  00006	a1 00 00 00 00	 mov	 eax, DWORD PTR ___security_cookie
  0000b	33 c5		 xor	 eax, ebp
  0000d	89 45 fc	 mov	 DWORD PTR __$ArrayPad$[ebp], eax

; 356  : 	bool bCollision = false;
; 357  : 
; 358  : 	D3DXVECTOR3 vColPoint( 0.0f, 0.0f, 0.0f );
; 359  : 	if( pEntity->IsWoundedCollision( GetWorldAttackBox(bMapCollision), &vColPoint ) )

  00010	8a 45 0c	 mov	 al, BYTE PTR _bMapCollision$[ebp]
  00013	0f 57 c0	 xorps	 xmm0, xmm0
  00016	53		 push	 ebx
  00017	56		 push	 esi
  00018	8b 75 08	 mov	 esi, DWORD PTR _pEntity$[ebp]
  0001b	57		 push	 edi
  0001c	8b 3e		 mov	 edi, DWORD PTR [esi]
  0001e	88 45 e8	 mov	 BYTE PTR _bMapCollision$GSCopy$[ebp], al
  00021	8d 45 f0	 lea	 eax, DWORD PTR _vColPoint$[ebp]
  00024	50		 push	 eax
  00025	ff 75 e8	 push	 DWORD PTR _bMapCollision$GSCopy$[ebp]
  00028	8b d9		 mov	 ebx, ecx
  0002a	c6 45 ec 00	 mov	 BYTE PTR _bCollision$[ebp], 0
  0002e	f3 0f 11 45 f0	 movss	 DWORD PTR _vColPoint$[ebp], xmm0
  00033	f3 0f 11 45 f4	 movss	 DWORD PTR _vColPoint$[ebp+4], xmm0
  00038	f3 0f 11 45 f8	 movss	 DWORD PTR _vColPoint$[ebp+8], xmm0
  0003d	e8 00 00 00 00	 call	 ?GetWorldAttackBox@ioWeapon@@QBEABVioOrientBox@@_N@Z ; ioWeapon::GetWorldAttackBox
  00042	50		 push	 eax
  00043	8b ce		 mov	 ecx, esi
  00045	ff 97 90 00 00
	00		 call	 DWORD PTR [edi+144]
  0004b	84 c0		 test	 al, al
  0004d	74 0f		 je	 SHORT $LN1@IsCollisio

; 360  : 		bCollision = CheckCollisionLine( pEntity, vColPoint );

  0004f	8d 45 f0	 lea	 eax, DWORD PTR _vColPoint$[ebp]
  00052	50		 push	 eax
  00053	56		 push	 esi
  00054	8b cb		 mov	 ecx, ebx
  00056	e8 00 00 00 00	 call	 ?CheckCollisionLine@ioRotationWeapon@@IAE_NPAVioPlayEntity@@ABUD3DXVECTOR3@@@Z ; ioRotationWeapon::CheckCollisionLine
  0005b	88 45 ec	 mov	 BYTE PTR _bCollision$[ebp], al
$LN1@IsCollisio:

; 361  : 
; 362  : 	CheckPiercing( bCollision );

  0005e	ff 75 ec	 push	 DWORD PTR _bCollision$[ebp]
  00061	8b 03		 mov	 eax, DWORD PTR [ebx]
  00063	8b cb		 mov	 ecx, ebx
  00065	ff 90 48 01 00
	00		 call	 DWORD PTR [eax+328]

; 363  : 
; 364  : 	return bCollision;
; 365  : }

  0006b	8b 4d fc	 mov	 ecx, DWORD PTR __$ArrayPad$[ebp]
  0006e	8a 45 ec	 mov	 al, BYTE PTR _bCollision$[ebp]
  00071	5f		 pop	 edi
  00072	5e		 pop	 esi
  00073	33 cd		 xor	 ecx, ebp
  00075	5b		 pop	 ebx
  00076	e8 00 00 00 00	 call	 @__security_check_cookie@4
  0007b	c9		 leave
  0007c	c2 08 00	 ret	 8
?IsCollision@ioRotationWeapon@@UAE_NPAVioPlayEntity@@_N@Z ENDP ; ioRotationWeapon::IsCollision
_TEXT	ENDS
END
