; Listing generated by Microsoft (R) Optimizing Compiler Version 16.00.30319.01 

	TITLE	D:\Lost Saga For Developer\Youtube\Tutorial\Source\src\LSClient\ioRoulette.cpp
	.686P
	.XMM
	include listing.inc
	.model	flat

INCLUDELIB MSVCRT
INCLUDELIB OLDNAMES

PUBLIC	?_EEM_DS@?$deque@UD3DXVECTOR3@@V?$allocator@UD3DXVECTOR3@@@std@@@std@@2HB ; std::deque<D3DXVECTOR3,std::allocator<D3DXVECTOR3> >::_EEM_DS
;	COMDAT ?_EEM_DS@?$deque@UD3DXVECTOR3@@V?$allocator@UD3DXVECTOR3@@@std@@@std@@2HB
CONST	SEGMENT
?_EEM_DS@?$deque@UD3DXVECTOR3@@V?$allocator@UD3DXVECTOR3@@@std@@@std@@2HB DD 01H ; std::deque<D3DXVECTOR3,std::allocator<D3DXVECTOR3> >::_EEM_DS
CONST	ENDS
PUBLIC	??_7bad_alloc@std@@6B@				; std::bad_alloc::`vftable'
PUBLIC	??0bad_alloc@std@@QAE@PBD@Z			; std::bad_alloc::bad_alloc
PUBLIC	??_R4bad_alloc@std@@6B@				; std::bad_alloc::`RTTI Complete Object Locator'
PUBLIC	??_R0?AVbad_alloc@std@@@8			; std::bad_alloc `RTTI Type Descriptor'
PUBLIC	??_R3bad_alloc@std@@8				; std::bad_alloc::`RTTI Class Hierarchy Descriptor'
PUBLIC	??_R2bad_alloc@std@@8				; std::bad_alloc::`RTTI Base Class Array'
PUBLIC	??_R1A@?0A@EA@bad_alloc@std@@8			; std::bad_alloc::`RTTI Base Class Descriptor at (0,-1,0,64)'
PUBLIC	??_R1A@?0A@EA@exception@std@@8			; std::exception::`RTTI Base Class Descriptor at (0,-1,0,64)'
PUBLIC	??_R0?AVexception@std@@@8			; std::exception `RTTI Type Descriptor'
PUBLIC	??_R3exception@std@@8				; std::exception::`RTTI Class Hierarchy Descriptor'
PUBLIC	??_R2exception@std@@8				; std::exception::`RTTI Base Class Array'
EXTRN	__imp_??0exception@std@@QAE@ABQBD@Z:PROC
EXTRN	??_7type_info@@6B@:QWORD			; type_info::`vftable'
EXTRN	??_Ebad_alloc@std@@UAEPAXI@Z:PROC		; std::bad_alloc::`vector deleting destructor'
EXTRN	?what@exception@std@@UBEPBDXZ:PROC		; std::exception::what
;	COMDAT ??_R2exception@std@@8
; File c:\program files (x86)\microsoft visual studio 10.0\vc\include\exception
rdata$r	SEGMENT
??_R2exception@std@@8 DD FLAT:??_R1A@?0A@EA@exception@std@@8 ; std::exception::`RTTI Base Class Array'
rdata$r	ENDS
;	COMDAT ??_R3exception@std@@8
rdata$r	SEGMENT
??_R3exception@std@@8 DD 00H				; std::exception::`RTTI Class Hierarchy Descriptor'
	DD	00H
	DD	01H
	DD	FLAT:??_R2exception@std@@8
rdata$r	ENDS
;	COMDAT ??_R0?AVexception@std@@@8
_DATA	SEGMENT
??_R0?AVexception@std@@@8 DD FLAT:??_7type_info@@6B@	; std::exception `RTTI Type Descriptor'
	DD	00H
	DB	'.?AVexception@std@@', 00H
_DATA	ENDS
;	COMDAT ??_R1A@?0A@EA@exception@std@@8
rdata$r	SEGMENT
??_R1A@?0A@EA@exception@std@@8 DD FLAT:??_R0?AVexception@std@@@8 ; std::exception::`RTTI Base Class Descriptor at (0,-1,0,64)'
	DD	00H
	DD	00H
	DD	0ffffffffH
	DD	00H
	DD	040H
	DD	FLAT:??_R3exception@std@@8
rdata$r	ENDS
;	COMDAT ??_R1A@?0A@EA@bad_alloc@std@@8
rdata$r	SEGMENT
??_R1A@?0A@EA@bad_alloc@std@@8 DD FLAT:??_R0?AVbad_alloc@std@@@8 ; std::bad_alloc::`RTTI Base Class Descriptor at (0,-1,0,64)'
	DD	01H
	DD	00H
	DD	0ffffffffH
	DD	00H
	DD	040H
	DD	FLAT:??_R3bad_alloc@std@@8
rdata$r	ENDS
;	COMDAT ??_R2bad_alloc@std@@8
rdata$r	SEGMENT
??_R2bad_alloc@std@@8 DD FLAT:??_R1A@?0A@EA@bad_alloc@std@@8 ; std::bad_alloc::`RTTI Base Class Array'
	DD	FLAT:??_R1A@?0A@EA@exception@std@@8
rdata$r	ENDS
;	COMDAT ??_R3bad_alloc@std@@8
rdata$r	SEGMENT
??_R3bad_alloc@std@@8 DD 00H				; std::bad_alloc::`RTTI Class Hierarchy Descriptor'
	DD	00H
	DD	02H
	DD	FLAT:??_R2bad_alloc@std@@8
rdata$r	ENDS
;	COMDAT ??_R0?AVbad_alloc@std@@@8
_DATA	SEGMENT
??_R0?AVbad_alloc@std@@@8 DD FLAT:??_7type_info@@6B@	; std::bad_alloc `RTTI Type Descriptor'
	DD	00H
	DB	'.?AVbad_alloc@std@@', 00H
_DATA	ENDS
;	COMDAT ??_R4bad_alloc@std@@6B@
rdata$r	SEGMENT
??_R4bad_alloc@std@@6B@ DD 00H				; std::bad_alloc::`RTTI Complete Object Locator'
	DD	00H
	DD	00H
	DD	FLAT:??_R0?AVbad_alloc@std@@@8
	DD	FLAT:??_R3bad_alloc@std@@8
rdata$r	ENDS
;	COMDAT ??_7bad_alloc@std@@6B@
CONST	SEGMENT
??_7bad_alloc@std@@6B@ DD FLAT:??_R4bad_alloc@std@@6B@	; std::bad_alloc::`vftable'
	DD	FLAT:??_Ebad_alloc@std@@UAEPAXI@Z
	DD	FLAT:?what@exception@std@@UBEPBDXZ
; Function compile flags: /Ogsp
CONST	ENDS
;	COMDAT ??0bad_alloc@std@@QAE@PBD@Z
_TEXT	SEGMENT
__Message$ = 8						; size = 4
??0bad_alloc@std@@QAE@PBD@Z PROC			; std::bad_alloc::bad_alloc, COMDAT
; _this$ = ecx

; 345  : 		{	// construct from message string

  00000	55		 push	 ebp
  00001	8b ec		 mov	 ebp, esp
  00003	56		 push	 esi
  00004	8d 45 08	 lea	 eax, DWORD PTR __Message$[ebp]
  00007	50		 push	 eax
  00008	8b f1		 mov	 esi, ecx
  0000a	ff 15 00 00 00
	00		 call	 DWORD PTR __imp_??0exception@std@@QAE@ABQBD@Z
  00010	c7 06 00 00 00
	00		 mov	 DWORD PTR [esi], OFFSET ??_7bad_alloc@std@@6B@

; 346  : 		}

  00016	8b c6		 mov	 eax, esi
  00018	5e		 pop	 esi
  00019	5d		 pop	 ebp
  0001a	c2 04 00	 ret	 4
??0bad_alloc@std@@QAE@PBD@Z ENDP			; std::bad_alloc::bad_alloc
_TEXT	ENDS
PUBLIC	??1bad_alloc@std@@UAE@XZ			; std::bad_alloc::~bad_alloc
EXTRN	__imp_??1exception@std@@UAE@XZ:PROC
; Function compile flags: /Ogsp
;	COMDAT ??1bad_alloc@std@@UAE@XZ
_TEXT	SEGMENT
??1bad_alloc@std@@UAE@XZ PROC				; std::bad_alloc::~bad_alloc, COMDAT
; _this$ = ecx

; 354  : 		{	// destroy the object

  00000	c7 01 00 00 00
	00		 mov	 DWORD PTR [ecx], OFFSET ??_7bad_alloc@std@@6B@

; 355  : 		}

  00006	ff 25 00 00 00
	00		 jmp	 DWORD PTR __imp_??1exception@std@@UAE@XZ
??1bad_alloc@std@@UAE@XZ ENDP				; std::bad_alloc::~bad_alloc
_TEXT	ENDS
EXTRN	??3@YAXPAX@Z:PROC				; operator delete
; Function compile flags: /Ogsp
;	COMDAT ??_Gbad_alloc@std@@UAEPAXI@Z
_TEXT	SEGMENT
___flags$ = 8						; size = 4
??_Gbad_alloc@std@@UAEPAXI@Z PROC			; std::bad_alloc::`scalar deleting destructor', COMDAT
; _this$ = ecx
  00000	55		 push	 ebp
  00001	8b ec		 mov	 ebp, esp
  00003	56		 push	 esi
  00004	8b f1		 mov	 esi, ecx
  00006	c7 06 00 00 00
	00		 mov	 DWORD PTR [esi], OFFSET ??_7bad_alloc@std@@6B@
  0000c	ff 15 00 00 00
	00		 call	 DWORD PTR __imp_??1exception@std@@UAE@XZ
  00012	f6 45 08 01	 test	 BYTE PTR ___flags$[ebp], 1
  00016	74 07		 je	 SHORT $LN1@scalar
  00018	56		 push	 esi
  00019	e8 00 00 00 00	 call	 ??3@YAXPAX@Z		; operator delete
  0001e	59		 pop	 ecx
$LN1@scalar:
  0001f	8b c6		 mov	 eax, esi
  00021	5e		 pop	 esi
  00022	5d		 pop	 ebp
  00023	c2 04 00	 ret	 4
??_Gbad_alloc@std@@UAEPAXI@Z ENDP			; std::bad_alloc::`scalar deleting destructor'
_TEXT	ENDS
PUBLIC	?InitRouletteInfo@ioRoulette@@QAEXPAVioPlayStage@@HHUD3DXVECTOR3@@1@Z ; ioRoulette::InitRouletteInfo
EXTRN	__imp_?UNIT_Z@ioMath@@2UD3DXVECTOR3@@A:BYTE
; Function compile flags: /Ogsp
; File d:\lost saga for developer\youtube\tutorial\source\src\lsclient\ioroulette.cpp
;	COMDAT ?InitRouletteInfo@ioRoulette@@QAEXPAVioPlayStage@@HHUD3DXVECTOR3@@1@Z
_TEXT	SEGMENT
_pStage$ = 8						; size = 4
_iType$ = 12						; size = 4
_iSubIndex$ = 16					; size = 4
_vPos$ = 20						; size = 12
_vScale$ = 32						; size = 12
?InitRouletteInfo@ioRoulette@@QAEXPAVioPlayStage@@HHUD3DXVECTOR3@@1@Z PROC ; ioRoulette::InitRouletteInfo, COMDAT
; _this$ = ecx

; 24   : {

  00000	55		 push	 ebp
  00001	8b ec		 mov	 ebp, esp

; 25   : 	m_bReserveDestroy = false;
; 26   : 	m_vRollAxis = ioMath::UNIT_Z;
; 27   : 
; 28   : 	m_pPlayStage = pStage;

  00003	8b 45 08	 mov	 eax, DWORD PTR _pStage$[ebp]
  00006	53		 push	 ebx
  00007	8b d9		 mov	 ebx, ecx
  00009	56		 push	 esi
  0000a	57		 push	 edi
  0000b	c6 83 d4 01 00
	00 00		 mov	 BYTE PTR [ebx+468], 0
  00012	8b 35 00 00 00
	00		 mov	 esi, DWORD PTR __imp_?UNIT_Z@ioMath@@2UD3DXVECTOR3@@A
  00018	8d bb e4 01 00
	00		 lea	 edi, DWORD PTR [ebx+484]
  0001e	a5		 movsd
  0001f	a5		 movsd
  00020	a5		 movsd
  00021	89 83 d8 01 00
	00		 mov	 DWORD PTR [ebx+472], eax

; 29   : 
; 30   : 	m_iRouletteType = iType;

  00027	8b 45 0c	 mov	 eax, DWORD PTR _iType$[ebp]
  0002a	89 83 cc 01 00
	00		 mov	 DWORD PTR [ebx+460], eax

; 31   : 	m_iSubIndex = iSubIndex;

  00030	8b 45 10	 mov	 eax, DWORD PTR _iSubIndex$[ebp]

; 32   : 	SetWorldPosition( vPos );

  00033	8d 4d 14	 lea	 ecx, DWORD PTR _vPos$[ebp]
  00036	89 83 d0 01 00
	00		 mov	 DWORD PTR [ebx+464], eax
  0003c	8b 03		 mov	 eax, DWORD PTR [ebx]
  0003e	51		 push	 ecx
  0003f	8b cb		 mov	 ecx, ebx
  00041	ff 50 44	 call	 DWORD PTR [eax+68]

; 33   : 	SetWorldScale( vScale );

  00044	8b 03		 mov	 eax, DWORD PTR [ebx]
  00046	8d 4d 20	 lea	 ecx, DWORD PTR _vScale$[ebp]
  00049	51		 push	 ecx
  0004a	8b cb		 mov	 ecx, ebx
  0004c	ff 50 4c	 call	 DWORD PTR [eax+76]
  0004f	5f		 pop	 edi
  00050	5e		 pop	 esi
  00051	5b		 pop	 ebx

; 34   : }

  00052	5d		 pop	 ebp
  00053	c2 24 00	 ret	 36			; 00000024H
?InitRouletteInfo@ioRoulette@@QAEXPAVioPlayStage@@HHUD3DXVECTOR3@@1@Z ENDP ; ioRoulette::InitRouletteInfo
_TEXT	ENDS
PUBLIC	?LoadProperty@ioRoulette@@UAEXAAVioINILoader@@@Z ; ioRoulette::LoadProperty
; Function compile flags: /Ogsp
;	COMDAT ?LoadProperty@ioRoulette@@UAEXAAVioINILoader@@@Z
_TEXT	SEGMENT
_rkLoader$ = 8						; size = 4
?LoadProperty@ioRoulette@@UAEXAAVioINILoader@@@Z PROC	; ioRoulette::LoadProperty, COMDAT
; _this$ = ecx

; 38   : }

  00000	c2 04 00	 ret	 4
?LoadProperty@ioRoulette@@UAEXAAVioINILoader@@@Z ENDP	; ioRoulette::LoadProperty
_TEXT	ENDS
PUBLIC	?UpdateAfter@ioRoulette@@UAEXM@Z		; ioRoulette::UpdateAfter
EXTRN	?UpdateAfter@ioGameEntity@@UAEXM@Z:PROC		; ioGameEntity::UpdateAfter
EXTRN	__fltused:DWORD
; Function compile flags: /Ogsp
;	COMDAT ?UpdateAfter@ioRoulette@@UAEXM@Z
_TEXT	SEGMENT
_fFrameGap$ = 8						; size = 4
?UpdateAfter@ioRoulette@@UAEXM@Z PROC			; ioRoulette::UpdateAfter, COMDAT
; _this$ = ecx

; 46   : {

  00000	55		 push	 ebp
  00001	8b ec		 mov	 ebp, esp
  00003	56		 push	 esi
  00004	8b f1		 mov	 esi, ecx

; 47   : 	if( m_pGroup )

  00006	83 7e 04 00	 cmp	 DWORD PTR [esi+4], 0
  0000a	74 13		 je	 SHORT $LN1@UpdateAfte

; 48   : 	{
; 49   : 		m_pGroup->Update( fFrameGap );

  0000c	8b 4e 04	 mov	 ecx, DWORD PTR [esi+4]
  0000f	f3 0f 10 45 08	 movss	 xmm0, DWORD PTR _fFrameGap$[ebp]
  00014	8b 01		 mov	 eax, DWORD PTR [ecx]
  00016	51		 push	 ecx
  00017	f3 0f 11 04 24	 movss	 DWORD PTR [esp], xmm0
  0001c	ff 50 40	 call	 DWORD PTR [eax+64]
$LN1@UpdateAfte:

; 50   : 	}
; 51   : 
; 52   : 	ioPlayEntity::UpdateAfter( fFrameGap );

  0001f	f3 0f 10 45 08	 movss	 xmm0, DWORD PTR _fFrameGap$[ebp]
  00024	51		 push	 ecx
  00025	8b ce		 mov	 ecx, esi
  00027	f3 0f 11 04 24	 movss	 DWORD PTR [esp], xmm0
  0002c	e8 00 00 00 00	 call	 ?UpdateAfter@ioGameEntity@@UAEXM@Z ; ioGameEntity::UpdateAfter
  00031	5e		 pop	 esi

; 53   : }

  00032	5d		 pop	 ebp
  00033	c2 04 00	 ret	 4
?UpdateAfter@ioRoulette@@UAEXM@Z ENDP			; ioRoulette::UpdateAfter
_TEXT	ENDS
PUBLIC	?ProcessState@ioRoulette@@IAEXM@Z		; ioRoulette::ProcessState
; Function compile flags: /Ogsp
;	COMDAT ?ProcessState@ioRoulette@@IAEXM@Z
_TEXT	SEGMENT
_fTimePerSec$ = 8					; size = 4
?ProcessState@ioRoulette@@IAEXM@Z PROC			; ioRoulette::ProcessState, COMDAT
; _this$ = ecx

; 57   : 	// Process시간 갱신
; 58   : 	// m_dwProcessTime = FRAMEGETTIME();
; 59   : }

  00000	c2 04 00	 ret	 4
?ProcessState@ioRoulette@@IAEXM@Z ENDP			; ioRoulette::ProcessState
_TEXT	ENDS
PUBLIC	?ApplyWeapon@ioRoulette@@UAE?AW4ApplyWeaponExp@@PAVioWeapon@@@Z ; ioRoulette::ApplyWeapon
; Function compile flags: /Ogsp
;	COMDAT ?ApplyWeapon@ioRoulette@@UAE?AW4ApplyWeaponExp@@PAVioWeapon@@@Z
_TEXT	SEGMENT
_pWeapon$ = 8						; size = 4
?ApplyWeapon@ioRoulette@@UAE?AW4ApplyWeaponExp@@PAVioWeapon@@@Z PROC ; ioRoulette::ApplyWeapon, COMDAT
; _this$ = ecx

; 63   : 	return AWE_NO_EXPLOSION;

  00000	33 c0		 xor	 eax, eax

; 64   : }

  00002	c2 04 00	 ret	 4
?ApplyWeapon@ioRoulette@@UAE?AW4ApplyWeaponExp@@PAVioWeapon@@@Z ENDP ; ioRoulette::ApplyWeapon
_TEXT	ENDS
PUBLIC	?IsNeedCheckMapCollision@ioRoulette@@UBE_NXZ	; ioRoulette::IsNeedCheckMapCollision
; Function compile flags: /Ogsp
;	COMDAT ?IsNeedCheckMapCollision@ioRoulette@@UBE_NXZ
_TEXT	SEGMENT
?IsNeedCheckMapCollision@ioRoulette@@UBE_NXZ PROC	; ioRoulette::IsNeedCheckMapCollision, COMDAT
; _this$ = ecx

; 68   : 	return false;

  00000	32 c0		 xor	 al, al

; 69   : }

  00002	c3		 ret	 0
?IsNeedCheckMapCollision@ioRoulette@@UBE_NXZ ENDP	; ioRoulette::IsNeedCheckMapCollision
_TEXT	ENDS
PUBLIC	?IsMountAvailable@ioRoulette@@UBE_NXZ		; ioRoulette::IsMountAvailable
; Function compile flags: /Ogsp
;	COMDAT ?IsMountAvailable@ioRoulette@@UBE_NXZ
_TEXT	SEGMENT
?IsMountAvailable@ioRoulette@@UBE_NXZ PROC		; ioRoulette::IsMountAvailable, COMDAT
; _this$ = ecx

; 73   : 	return false;

  00000	32 c0		 xor	 al, al

; 74   : }

  00002	c3		 ret	 0
?IsMountAvailable@ioRoulette@@UBE_NXZ ENDP		; ioRoulette::IsMountAvailable
_TEXT	ENDS
PUBLIC	?IsMountingAvailable@ioRoulette@@UBE_NXZ	; ioRoulette::IsMountingAvailable
; Function compile flags: /Ogsp
;	COMDAT ?IsMountingAvailable@ioRoulette@@UBE_NXZ
_TEXT	SEGMENT
?IsMountingAvailable@ioRoulette@@UBE_NXZ PROC		; ioRoulette::IsMountingAvailable, COMDAT
; _this$ = ecx

; 78   : 	return false;

  00000	32 c0		 xor	 al, al

; 79   : }

  00002	c3		 ret	 0
?IsMountingAvailable@ioRoulette@@UBE_NXZ ENDP		; ioRoulette::IsMountingAvailable
_TEXT	ENDS
PUBLIC	?IsNowMountEnable@ioRoulette@@UBE_NXZ		; ioRoulette::IsNowMountEnable
; Function compile flags: /Ogsp
;	COMDAT ?IsNowMountEnable@ioRoulette@@UBE_NXZ
_TEXT	SEGMENT
?IsNowMountEnable@ioRoulette@@UBE_NXZ PROC		; ioRoulette::IsNowMountEnable, COMDAT
; _this$ = ecx

; 83   : 	return false;

  00000	32 c0		 xor	 al, al

; 84   : }

  00002	c3		 ret	 0
?IsNowMountEnable@ioRoulette@@UBE_NXZ ENDP		; ioRoulette::IsNowMountEnable
_TEXT	ENDS
PUBLIC	?GetWorldEventReceiver@ioRoulette@@UAEPAVioWorldEventReceiver@@XZ ; ioRoulette::GetWorldEventReceiver
; Function compile flags: /Ogsp
;	COMDAT ?GetWorldEventReceiver@ioRoulette@@UAEPAVioWorldEventReceiver@@XZ
_TEXT	SEGMENT
?GetWorldEventReceiver@ioRoulette@@UAEPAVioWorldEventReceiver@@XZ PROC ; ioRoulette::GetWorldEventReceiver, COMDAT
; _this$ = ecx

; 88   : 	return dynamic_cast<ioWorldEventReceiver*>(this);

  00000	85 c9		 test	 ecx, ecx
  00002	74 07		 je	 SHORT $LN3@GetWorldEv
  00004	8d 81 c8 01 00
	00		 lea	 eax, DWORD PTR [ecx+456]

; 89   : }

  0000a	c3		 ret	 0
$LN3@GetWorldEv:

; 88   : 	return dynamic_cast<ioWorldEventReceiver*>(this);

  0000b	33 c0		 xor	 eax, eax

; 89   : }

  0000d	c3		 ret	 0
?GetWorldEventReceiver@ioRoulette@@UAEPAVioWorldEventReceiver@@XZ ENDP ; ioRoulette::GetWorldEventReceiver
_TEXT	ENDS
PUBLIC	?IsCollisionAvailableWeapon@ioRoulette@@UAE_NPAVioWeapon@@@Z ; ioRoulette::IsCollisionAvailableWeapon
; Function compile flags: /Ogsp
;	COMDAT ?IsCollisionAvailableWeapon@ioRoulette@@UAE_NPAVioWeapon@@@Z
_TEXT	SEGMENT
_pWeapon$ = 8						; size = 4
?IsCollisionAvailableWeapon@ioRoulette@@UAE_NPAVioWeapon@@@Z PROC ; ioRoulette::IsCollisionAvailableWeapon, COMDAT
; _this$ = ecx

; 93   : 	return false;

  00000	32 c0		 xor	 al, al

; 94   : }

  00002	c2 04 00	 ret	 4
?IsCollisionAvailableWeapon@ioRoulette@@UAE_NPAVioWeapon@@@Z ENDP ; ioRoulette::IsCollisionAvailableWeapon
_TEXT	ENDS
PUBLIC	?DontMoveEntityLevel@ioRoulette@@UBEHXZ		; ioRoulette::DontMoveEntityLevel
; Function compile flags: /Ogsp
;	COMDAT ?DontMoveEntityLevel@ioRoulette@@UBEHXZ
_TEXT	SEGMENT
?DontMoveEntityLevel@ioRoulette@@UBEHXZ PROC		; ioRoulette::DontMoveEntityLevel, COMDAT
; _this$ = ecx

; 98   : 	return 0;

  00000	33 c0		 xor	 eax, eax

; 99   : }

  00002	c3		 ret	 0
?DontMoveEntityLevel@ioRoulette@@UBEHXZ ENDP		; ioRoulette::DontMoveEntityLevel
_TEXT	ENDS
PUBLIC	?GetSubType@ioRoulette@@UBE?AW4PlaySubType@ioPlayEntity@@XZ ; ioRoulette::GetSubType
; Function compile flags: /Ogsp
;	COMDAT ?GetSubType@ioRoulette@@UBE?AW4PlaySubType@ioPlayEntity@@XZ
_TEXT	SEGMENT
?GetSubType@ioRoulette@@UBE?AW4PlaySubType@ioPlayEntity@@XZ PROC ; ioRoulette::GetSubType, COMDAT
; _this$ = ecx

; 103  : 	return PST_ROULETTE;

  00000	6a 0d		 push	 13			; 0000000dH
  00002	58		 pop	 eax

; 104  : }

  00003	c3		 ret	 0
?GetSubType@ioRoulette@@UBE?AW4PlaySubType@ioPlayEntity@@XZ ENDP ; ioRoulette::GetSubType
_TEXT	ENDS
PUBLIC	?GetArmorType@ioRoulette@@UBE?AW4ArmorType@@XZ	; ioRoulette::GetArmorType
; Function compile flags: /Ogsp
;	COMDAT ?GetArmorType@ioRoulette@@UBE?AW4ArmorType@@XZ
_TEXT	SEGMENT
?GetArmorType@ioRoulette@@UBE?AW4ArmorType@@XZ PROC	; ioRoulette::GetArmorType, COMDAT
; _this$ = ecx

; 108  : 	return m_ArmorType;

  00000	8b 81 e0 01 00
	00		 mov	 eax, DWORD PTR [ecx+480]

; 109  : }

  00006	c3		 ret	 0
?GetArmorType@ioRoulette@@UBE?AW4ArmorType@@XZ ENDP	; ioRoulette::GetArmorType
_TEXT	ENDS
PUBLIC	?OnTelepotation@ioRoulette@@UAEXABUD3DXVECTOR3@@@Z ; ioRoulette::OnTelepotation
; Function compile flags: /Ogsp
;	COMDAT ?OnTelepotation@ioRoulette@@UAEXABUD3DXVECTOR3@@@Z
_TEXT	SEGMENT
_vTargetPos$ = 8					; size = 4
?OnTelepotation@ioRoulette@@UAEXABUD3DXVECTOR3@@@Z PROC	; ioRoulette::OnTelepotation, COMDAT
; _this$ = ecx

; 113  : 	return;
; 114  : }

  00000	c2 04 00	 ret	 4
?OnTelepotation@ioRoulette@@UAEXABUD3DXVECTOR3@@@Z ENDP	; ioRoulette::OnTelepotation
_TEXT	ENDS
PUBLIC	?OnFireZoneDamage@ioRoulette@@UAEXMABVioHashString@@@Z ; ioRoulette::OnFireZoneDamage
; Function compile flags: /Ogsp
;	COMDAT ?OnFireZoneDamage@ioRoulette@@UAEXMABVioHashString@@@Z
_TEXT	SEGMENT
_fDamage$ = 8						; size = 4
_szBuff$ = 12						; size = 4
?OnFireZoneDamage@ioRoulette@@UAEXMABVioHashString@@@Z PROC ; ioRoulette::OnFireZoneDamage, COMDAT
; _this$ = ecx

; 118  : 	return;
; 119  : }

  00000	c2 08 00	 ret	 8
?OnFireZoneDamage@ioRoulette@@UAEXMABVioHashString@@@Z ENDP ; ioRoulette::OnFireZoneDamage
_TEXT	ENDS
PUBLIC	?OnPoisonZoneDamage@ioRoulette@@UAEXXZ		; ioRoulette::OnPoisonZoneDamage
; Function compile flags: /Ogsp
;	COMDAT ?OnPoisonZoneDamage@ioRoulette@@UAEXXZ
_TEXT	SEGMENT
?OnPoisonZoneDamage@ioRoulette@@UAEXXZ PROC		; ioRoulette::OnPoisonZoneDamage, COMDAT
; _this$ = ecx

; 123  : 	return;
; 124  : }

  00000	c3		 ret	 0
?OnPoisonZoneDamage@ioRoulette@@UAEXXZ ENDP		; ioRoulette::OnPoisonZoneDamage
_TEXT	ENDS
PUBLIC	?UpdateBottomHeight@ioRoulette@@MBEXXZ		; ioRoulette::UpdateBottomHeight
EXTRN	?GetMapHeight@ioPlayMode@@QBEMMMPBVioGameEntity@@_N@Z:PROC ; ioPlayMode::GetMapHeight
; Function compile flags: /Ogsp
;	COMDAT ?UpdateBottomHeight@ioRoulette@@MBEXXZ
_TEXT	SEGMENT
_vCurPos$ = -12						; size = 12
?UpdateBottomHeight@ioRoulette@@MBEXXZ PROC		; ioRoulette::UpdateBottomHeight, COMDAT
; _this$ = ecx

; 127  : {

  00000	55		 push	 ebp
  00001	8b ec		 mov	 ebp, esp
  00003	83 ec 0c	 sub	 esp, 12			; 0000000cH
  00006	53		 push	 ebx
  00007	56		 push	 esi
  00008	8b d9		 mov	 ebx, ecx

; 128  : 	D3DXVECTOR3 vCurPos = GetWorldPosition();

  0000a	8b 03		 mov	 eax, DWORD PTR [ebx]
  0000c	57		 push	 edi
  0000d	ff 50 70	 call	 DWORD PTR [eax+112]
  00010	8b f0		 mov	 esi, eax
  00012	8d 7d f4	 lea	 edi, DWORD PTR _vCurPos$[ebp]
  00015	a5		 movsd

; 129  : 	m_fCurBottomHeight = m_pModeParent->GetMapHeight( vCurPos.x, vCurPos.z, this );

  00016	6a 01		 push	 1
  00018	a5		 movsd
  00019	53		 push	 ebx
  0001a	51		 push	 ecx
  0001b	51		 push	 ecx
  0001c	8b 8b 8c 00 00
	00		 mov	 ecx, DWORD PTR [ebx+140]
  00022	a5		 movsd
  00023	f3 0f 10 45 fc	 movss	 xmm0, DWORD PTR _vCurPos$[ebp+8]
  00028	f3 0f 11 44 24
	04		 movss	 DWORD PTR [esp+4], xmm0
  0002e	f3 0f 10 45 f4	 movss	 xmm0, DWORD PTR _vCurPos$[ebp]
  00033	f3 0f 11 04 24	 movss	 DWORD PTR [esp], xmm0
  00038	e8 00 00 00 00	 call	 ?GetMapHeight@ioPlayMode@@QBEMMMPBVioGameEntity@@_N@Z ; ioPlayMode::GetMapHeight
  0003d	d9 9b 84 00 00
	00		 fstp	 DWORD PTR [ebx+132]
  00043	5f		 pop	 edi
  00044	5e		 pop	 esi
  00045	5b		 pop	 ebx

; 130  : }

  00046	c9		 leave
  00047	c3		 ret	 0
?UpdateBottomHeight@ioRoulette@@MBEXXZ ENDP		; ioRoulette::UpdateBottomHeight
_TEXT	ENDS
PUBLIC	?AttachEffect@ioRoulette@@QAEPAVioEffect@@ABVioHashString@@PAVioEntityEvent@@_N@Z ; ioRoulette::AttachEffect
EXTRN	__imp_?AttachEffect@ioEntityGroup@@QAEPAVioEffect@@ABVioHashString@@PAVioEntityEvent@@ABUD3DXQUATERNION@@ABUD3DXVECTOR3@@_N@Z:PROC
EXTRN	__imp_?QUAT_IDENTITY@ioMath@@2UD3DXQUATERNION@@A:BYTE
EXTRN	__imp_?VEC3_ZERO@ioMath@@2UD3DXVECTOR3@@A:BYTE
EXTRN	__imp_?IsEmpty@ioHashString@@QBE_NXZ:PROC
; Function compile flags: /Ogsp
;	COMDAT ?AttachEffect@ioRoulette@@QAEPAVioEffect@@ABVioHashString@@PAVioEntityEvent@@_N@Z
_TEXT	SEGMENT
_rkEffect$ = 8						; size = 4
_pEntityEventOwner$ = 12				; size = 4
_bDependence$ = 16					; size = 1
?AttachEffect@ioRoulette@@QAEPAVioEffect@@ABVioHashString@@PAVioEntityEvent@@_N@Z PROC ; ioRoulette::AttachEffect, COMDAT
; _this$ = ecx

; 133  : {

  00000	55		 push	 ebp
  00001	8b ec		 mov	 ebp, esp
  00003	56		 push	 esi
  00004	8b f1		 mov	 esi, ecx

; 134  : 	if( !rkEffect.IsEmpty() )

  00006	8b 4d 08	 mov	 ecx, DWORD PTR _rkEffect$[ebp]
  00009	ff 15 00 00 00
	00		 call	 DWORD PTR __imp_?IsEmpty@ioHashString@@QBE_NXZ
  0000f	84 c0		 test	 al, al
  00011	75 20		 jne	 SHORT $LN1@AttachEffe

; 135  : 	{
; 136  : 		return m_pGroup->AttachEffect( rkEffect, pEntityEventOwner, ioMath::QUAT_IDENTITY, ioMath::VEC3_ZERO, bDependence );

  00013	ff 75 10	 push	 DWORD PTR _bDependence$[ebp]
  00016	8b 4e 04	 mov	 ecx, DWORD PTR [esi+4]
  00019	ff 35 00 00 00
	00		 push	 DWORD PTR __imp_?VEC3_ZERO@ioMath@@2UD3DXVECTOR3@@A
  0001f	ff 35 00 00 00
	00		 push	 DWORD PTR __imp_?QUAT_IDENTITY@ioMath@@2UD3DXQUATERNION@@A
  00025	ff 75 0c	 push	 DWORD PTR _pEntityEventOwner$[ebp]
  00028	ff 75 08	 push	 DWORD PTR _rkEffect$[ebp]
  0002b	ff 15 00 00 00
	00		 call	 DWORD PTR __imp_?AttachEffect@ioEntityGroup@@QAEPAVioEffect@@ABVioHashString@@PAVioEntityEvent@@ABUD3DXQUATERNION@@ABUD3DXVECTOR3@@_N@Z
  00031	eb 02		 jmp	 SHORT $LN2@AttachEffe
$LN1@AttachEffe:

; 137  : 	}
; 138  : 
; 139  : 	return NULL;

  00033	33 c0		 xor	 eax, eax
$LN2@AttachEffe:
  00035	5e		 pop	 esi

; 140  : }

  00036	5d		 pop	 ebp
  00037	c2 0c 00	 ret	 12			; 0000000cH
?AttachEffect@ioRoulette@@QAEPAVioEffect@@ABVioHashString@@PAVioEntityEvent@@_N@Z ENDP ; ioRoulette::AttachEffect
_TEXT	ENDS
PUBLIC	?EndEffect@ioRoulette@@QAEXK_N@Z		; ioRoulette::EndEffect
EXTRN	__imp_?EndEffect@ioEntityGroup@@QAEXK_N@Z:PROC
; Function compile flags: /Ogsp
;	COMDAT ?EndEffect@ioRoulette@@QAEXK_N@Z
_TEXT	SEGMENT
_eObjID$ = 8						; size = 4
_bGrace$ = 12						; size = 1
?EndEffect@ioRoulette@@QAEXK_N@Z PROC			; ioRoulette::EndEffect, COMDAT
; _this$ = ecx

; 143  : {

  00000	55		 push	 ebp
  00001	8b ec		 mov	 ebp, esp

; 144  : 	if( eObjID == -1 ) return;

  00003	83 7d 08 ff	 cmp	 DWORD PTR _eObjID$[ebp], -1
  00007	74 0a		 je	 SHORT $LN2@EndEffect

; 145  : 
; 146  : 	m_pGroup->EndEffect( eObjID, bGrace );

  00009	8b 49 04	 mov	 ecx, DWORD PTR [ecx+4]

; 147  : }

  0000c	5d		 pop	 ebp

; 145  : 
; 146  : 	m_pGroup->EndEffect( eObjID, bGrace );

  0000d	ff 25 00 00 00
	00		 jmp	 DWORD PTR __imp_?EndEffect@ioEntityGroup@@QAEXK_N@Z
$LN2@EndEffect:

; 147  : }

  00013	5d		 pop	 ebp
  00014	c2 08 00	 ret	 8
?EndEffect@ioRoulette@@QAEXK_N@Z ENDP			; ioRoulette::EndEffect
_TEXT	ENDS
PUBLIC	?IsEntityCollisionSkipState@ioRoulette@@UBE_NPAVioGameEntity@@@Z ; ioRoulette::IsEntityCollisionSkipState
; Function compile flags: /Ogsp
;	COMDAT ?IsEntityCollisionSkipState@ioRoulette@@UBE_NPAVioGameEntity@@@Z
_TEXT	SEGMENT
_pColEntity$ = 8					; size = 4
?IsEntityCollisionSkipState@ioRoulette@@UBE_NPAVioGameEntity@@@Z PROC ; ioRoulette::IsEntityCollisionSkipState, COMDAT
; _this$ = ecx

; 151  : 	return true;

  00000	b0 01		 mov	 al, 1

; 152  : }

  00002	c2 04 00	 ret	 4
?IsEntityCollisionSkipState@ioRoulette@@UBE_NPAVioGameEntity@@@Z ENDP ; ioRoulette::IsEntityCollisionSkipState
_TEXT	ENDS
PUBLIC	??0?$allocator@UOutLineRecord@@@std@@QAE@XZ	; std::allocator<OutLineRecord>::allocator<OutLineRecord>
; Function compile flags: /Ogsp
; File c:\program files (x86)\microsoft visual studio 10.0\vc\include\xmemory
;	COMDAT ??0?$allocator@UOutLineRecord@@@std@@QAE@XZ
_TEXT	SEGMENT
??0?$allocator@UOutLineRecord@@@std@@QAE@XZ PROC	; std::allocator<OutLineRecord>::allocator<OutLineRecord>, COMDAT
; _this$ = ecx

; 161  : 	_ALLOCATOR() _THROW0()

  00000	8b c1		 mov	 eax, ecx

; 162  : 		{	// construct default allocator (do nothing)
; 163  : 		}

  00002	c3		 ret	 0
??0?$allocator@UOutLineRecord@@@std@@QAE@XZ ENDP	; std::allocator<OutLineRecord>::allocator<OutLineRecord>
_TEXT	ENDS
PUBLIC	?_Nextnode@?$_List_val@UOutLineRecord@@V?$allocator@UOutLineRecord@@@std@@@std@@SAAAPAU_Node@?$_List_nod@UOutLineRecord@@V?$allocator@UOutLineRecord@@@std@@@2@PAU342@@Z ; std::_List_val<OutLineRecord,std::allocator<OutLineRecord> >::_Nextnode
; Function compile flags: /Ogsp
; File c:\program files (x86)\microsoft visual studio 10.0\vc\include\list
;	COMDAT ?_Nextnode@?$_List_val@UOutLineRecord@@V?$allocator@UOutLineRecord@@@std@@@std@@SAAAPAU_Node@?$_List_nod@UOutLineRecord@@V?$allocator@UOutLineRecord@@@std@@@2@PAU342@@Z
_TEXT	SEGMENT
__Pnode$ = 8						; size = 4
?_Nextnode@?$_List_val@UOutLineRecord@@V?$allocator@UOutLineRecord@@@std@@@std@@SAAAPAU_Node@?$_List_nod@UOutLineRecord@@V?$allocator@UOutLineRecord@@@std@@@2@PAU342@@Z PROC ; std::_List_val<OutLineRecord,std::allocator<OutLineRecord> >::_Nextnode, COMDAT

; 560  : 		{	// return reference to successor pointer in node

  00000	55		 push	 ebp
  00001	8b ec		 mov	 ebp, esp

; 561  : 		return ((_Nodepref)(*_Pnode)._Next);

  00003	8b 45 08	 mov	 eax, DWORD PTR __Pnode$[ebp]

; 562  : 		}

  00006	5d		 pop	 ebp
  00007	c3		 ret	 0
?_Nextnode@?$_List_val@UOutLineRecord@@V?$allocator@UOutLineRecord@@@std@@@std@@SAAAPAU_Node@?$_List_nod@UOutLineRecord@@V?$allocator@UOutLineRecord@@@std@@@2@PAU342@@Z ENDP ; std::_List_val<OutLineRecord,std::allocator<OutLineRecord> >::_Nextnode
_TEXT	ENDS
PUBLIC	?_Prevnode@?$_List_val@UOutLineRecord@@V?$allocator@UOutLineRecord@@@std@@@std@@SAAAPAU_Node@?$_List_nod@UOutLineRecord@@V?$allocator@UOutLineRecord@@@std@@@2@PAU342@@Z ; std::_List_val<OutLineRecord,std::allocator<OutLineRecord> >::_Prevnode
; Function compile flags: /Ogsp
;	COMDAT ?_Prevnode@?$_List_val@UOutLineRecord@@V?$allocator@UOutLineRecord@@@std@@@std@@SAAAPAU_Node@?$_List_nod@UOutLineRecord@@V?$allocator@UOutLineRecord@@@std@@@2@PAU342@@Z
_TEXT	SEGMENT
__Pnode$ = 8						; size = 4
?_Prevnode@?$_List_val@UOutLineRecord@@V?$allocator@UOutLineRecord@@@std@@@std@@SAAAPAU_Node@?$_List_nod@UOutLineRecord@@V?$allocator@UOutLineRecord@@@std@@@2@PAU342@@Z PROC ; std::_List_val<OutLineRecord,std::allocator<OutLineRecord> >::_Prevnode, COMDAT

; 565  : 		{	// return reference to predecessor pointer in node

  00000	55		 push	 ebp
  00001	8b ec		 mov	 ebp, esp

; 566  : 		return ((_Nodepref)(*_Pnode)._Prev);

  00003	8b 45 08	 mov	 eax, DWORD PTR __Pnode$[ebp]
  00006	83 c0 04	 add	 eax, 4

; 567  : 		}

  00009	5d		 pop	 ebp
  0000a	c3		 ret	 0
?_Prevnode@?$_List_val@UOutLineRecord@@V?$allocator@UOutLineRecord@@@std@@@std@@SAAAPAU_Node@?$_List_nod@UOutLineRecord@@V?$allocator@UOutLineRecord@@@std@@@2@PAU342@@Z ENDP ; std::_List_val<OutLineRecord,std::allocator<OutLineRecord> >::_Prevnode
_TEXT	ENDS
PUBLIC	??0?$allocator@UOutLineRecord@@@std@@QAE@ABV01@@Z ; std::allocator<OutLineRecord>::allocator<OutLineRecord>
; Function compile flags: /Ogsp
; File c:\program files (x86)\microsoft visual studio 10.0\vc\include\xmemory
;	COMDAT ??0?$allocator@UOutLineRecord@@@std@@QAE@ABV01@@Z
_TEXT	SEGMENT
___formal$ = 8						; size = 4
??0?$allocator@UOutLineRecord@@@std@@QAE@ABV01@@Z PROC	; std::allocator<OutLineRecord>::allocator<OutLineRecord>, COMDAT
; _this$ = ecx

; 165  : 	_ALLOCATOR(const _ALLOCATOR<_Ty>&) _THROW0()

  00000	8b c1		 mov	 eax, ecx

; 166  : 		{	// construct by copying (do nothing)
; 167  : 		}

  00002	c2 04 00	 ret	 4
??0?$allocator@UOutLineRecord@@@std@@QAE@ABV01@@Z ENDP	; std::allocator<OutLineRecord>::allocator<OutLineRecord>
_TEXT	ENDS
PUBLIC	?deallocate@?$allocator@U_Node@?$_List_nod@UOutLineRecord@@V?$allocator@UOutLineRecord@@@std@@@std@@@std@@QAEXPAU_Node@?$_List_nod@UOutLineRecord@@V?$allocator@UOutLineRecord@@@std@@@2@I@Z ; std::allocator<std::_List_nod<OutLineRecord,std::allocator<OutLineRecord> >::_Node>::deallocate
; Function compile flags: /Ogsp
;	COMDAT ?deallocate@?$allocator@U_Node@?$_List_nod@UOutLineRecord@@V?$allocator@UOutLineRecord@@@std@@@std@@@std@@QAEXPAU_Node@?$_List_nod@UOutLineRecord@@V?$allocator@UOutLineRecord@@@std@@@2@I@Z
_TEXT	SEGMENT
__Ptr$ = 8						; size = 4
___formal$ = 12						; size = 4
?deallocate@?$allocator@U_Node@?$_List_nod@UOutLineRecord@@V?$allocator@UOutLineRecord@@@std@@@std@@@std@@QAEXPAU_Node@?$_List_nod@UOutLineRecord@@V?$allocator@UOutLineRecord@@@std@@@2@I@Z PROC ; std::allocator<std::_List_nod<OutLineRecord,std::allocator<OutLineRecord> >::_Node>::deallocate, COMDAT
; _this$ = ecx

; 181  : 		{	// deallocate object at _Ptr, ignore size

  00000	55		 push	 ebp
  00001	8b ec		 mov	 ebp, esp

; 182  : 		::operator delete(_Ptr);

  00003	ff 75 08	 push	 DWORD PTR __Ptr$[ebp]
  00006	e8 00 00 00 00	 call	 ??3@YAXPAX@Z		; operator delete
  0000b	59		 pop	 ecx

; 183  : 		}

  0000c	5d		 pop	 ebp
  0000d	c2 08 00	 ret	 8
?deallocate@?$allocator@U_Node@?$_List_nod@UOutLineRecord@@V?$allocator@UOutLineRecord@@@std@@@std@@@std@@QAEXPAU_Node@?$_List_nod@UOutLineRecord@@V?$allocator@UOutLineRecord@@@std@@@2@I@Z ENDP ; std::allocator<std::_List_nod<OutLineRecord,std::allocator<OutLineRecord> >::_Node>::deallocate
_TEXT	ENDS
PUBLIC	??$?0UOutLineRecord@@@?$allocator@U_Node@?$_List_nod@UOutLineRecord@@V?$allocator@UOutLineRecord@@@std@@@std@@@std@@QAE@ABV?$allocator@UOutLineRecord@@@1@@Z ; std::allocator<std::_List_nod<OutLineRecord,std::allocator<OutLineRecord> >::_Node>::allocator<std::_List_nod<OutLineRecord,std::allocator<OutLineRecord> >::_Node><OutLineRecord>
; Function compile flags: /Ogsp
;	COMDAT ??$?0UOutLineRecord@@@?$allocator@U_Node@?$_List_nod@UOutLineRecord@@V?$allocator@UOutLineRecord@@@std@@@std@@@std@@QAE@ABV?$allocator@UOutLineRecord@@@1@@Z
_TEXT	SEGMENT
___formal$ = 8						; size = 4
??$?0UOutLineRecord@@@?$allocator@U_Node@?$_List_nod@UOutLineRecord@@V?$allocator@UOutLineRecord@@@std@@@std@@@std@@QAE@ABV?$allocator@UOutLineRecord@@@1@@Z PROC ; std::allocator<std::_List_nod<OutLineRecord,std::allocator<OutLineRecord> >::_Node>::allocator<std::_List_nod<OutLineRecord,std::allocator<OutLineRecord> >::_Node><OutLineRecord>, COMDAT
; _this$ = ecx

; 170  : 		_ALLOCATOR(const _ALLOCATOR<_Other>&) _THROW0()

  00000	8b c1		 mov	 eax, ecx

; 171  : 		{	// construct from a related allocator (do nothing)
; 172  : 		}

  00002	c2 04 00	 ret	 4
??$?0UOutLineRecord@@@?$allocator@U_Node@?$_List_nod@UOutLineRecord@@V?$allocator@UOutLineRecord@@@std@@@std@@@std@@QAE@ABV?$allocator@UOutLineRecord@@@1@@Z ENDP ; std::allocator<std::_List_nod<OutLineRecord,std::allocator<OutLineRecord> >::_Node>::allocator<std::_List_nod<OutLineRecord,std::allocator<OutLineRecord> >::_Node><OutLineRecord>
_TEXT	ENDS
PUBLIC	__TI2?AVbad_alloc@std@@
PUBLIC	??$_Allocate@U_Node@?$_List_nod@UOutLineRecord@@V?$allocator@UOutLineRecord@@@std@@@std@@@std@@YAPAU_Node@?$_List_nod@UOutLineRecord@@V?$allocator@UOutLineRecord@@@std@@@0@IPAU120@@Z ; std::_Allocate<std::_List_nod<OutLineRecord,std::allocator<OutLineRecord> >::_Node>
PUBLIC	__CTA2?AVbad_alloc@std@@
PUBLIC	__CT??_R0?AVbad_alloc@std@@@8??0bad_alloc@std@@QAE@ABV01@@Z12
PUBLIC	??0bad_alloc@std@@QAE@ABV01@@Z			; std::bad_alloc::bad_alloc
PUBLIC	__CT??_R0?AVexception@std@@@8??0exception@std@@QAE@ABV01@@Z12
EXTRN	??2@YAPAXI@Z:PROC				; operator new
EXTRN	__CxxThrowException@8:PROC
EXTRN	??0exception@std@@QAE@ABV01@@Z:PROC		; std::exception::exception
;	COMDAT __CT??_R0?AVexception@std@@@8??0exception@std@@QAE@ABV01@@Z12
; File c:\program files (x86)\microsoft visual studio 10.0\vc\include\exception
xdata$x	SEGMENT
__CT??_R0?AVexception@std@@@8??0exception@std@@QAE@ABV01@@Z12 DD 00H
	DD	FLAT:??_R0?AVexception@std@@@8
	DD	00H
	DD	0ffffffffH
	ORG $+4
	DD	0cH
	DD	FLAT:??0exception@std@@QAE@ABV01@@Z
xdata$x	ENDS
;	COMDAT __CT??_R0?AVbad_alloc@std@@@8??0bad_alloc@std@@QAE@ABV01@@Z12
xdata$x	SEGMENT
__CT??_R0?AVbad_alloc@std@@@8??0bad_alloc@std@@QAE@ABV01@@Z12 DD 00H
	DD	FLAT:??_R0?AVbad_alloc@std@@@8
	DD	00H
	DD	0ffffffffH
	ORG $+4
	DD	0cH
	DD	FLAT:??0bad_alloc@std@@QAE@ABV01@@Z
xdata$x	ENDS
;	COMDAT __CTA2?AVbad_alloc@std@@
xdata$x	SEGMENT
__CTA2?AVbad_alloc@std@@ DD 02H
	DD	FLAT:__CT??_R0?AVbad_alloc@std@@@8??0bad_alloc@std@@QAE@ABV01@@Z12
	DD	FLAT:__CT??_R0?AVexception@std@@@8??0exception@std@@QAE@ABV01@@Z12
xdata$x	ENDS
;	COMDAT __TI2?AVbad_alloc@std@@
xdata$x	SEGMENT
__TI2?AVbad_alloc@std@@ DD 00H
	DD	FLAT:??1bad_alloc@std@@UAE@XZ
	DD	00H
	DD	FLAT:__CTA2?AVbad_alloc@std@@
; Function compile flags: /Ogsp
; File c:\program files (x86)\microsoft visual studio 10.0\vc\include\xmemory
xdata$x	ENDS
;	COMDAT ??$_Allocate@U_Node@?$_List_nod@UOutLineRecord@@V?$allocator@UOutLineRecord@@@std@@@std@@@std@@YAPAU_Node@?$_List_nod@UOutLineRecord@@V?$allocator@UOutLineRecord@@@std@@@0@IPAU120@@Z
_TEXT	SEGMENT
$T531148 = -12						; size = 12
$T531153 = 8						; size = 4
__Count$ = 8						; size = 4
___formal$ = 12						; size = 4
??$_Allocate@U_Node@?$_List_nod@UOutLineRecord@@V?$allocator@UOutLineRecord@@@std@@@std@@@std@@YAPAU_Node@?$_List_nod@UOutLineRecord@@V?$allocator@UOutLineRecord@@@std@@@0@IPAU120@@Z PROC ; std::_Allocate<std::_List_nod<OutLineRecord,std::allocator<OutLineRecord> >::_Node>, COMDAT

; 30   : 	{	// allocate storage for _Count elements of type _Ty

  00000	55		 push	 ebp
  00001	8b ec		 mov	 ebp, esp

; 31   : 	void *_Ptr = 0;
; 32   : 
; 33   : 	if (_Count <= 0)

  00003	8b 4d 08	 mov	 ecx, DWORD PTR __Count$[ebp]
  00006	83 ec 0c	 sub	 esp, 12			; 0000000cH
  00009	33 c0		 xor	 eax, eax
  0000b	85 c9		 test	 ecx, ecx

; 34   : 		_Count = 0;
; 35   : 	else if (((_SIZT)(-1) / sizeof (_Ty) < _Count)

  0000d	74 3c		 je	 SHORT $LN5@Allocate

; 36   : 		|| (_Ptr = ::operator new(_Count * sizeof (_Ty))) == 0)

  0000f	81 f9 ff ff ff
	07		 cmp	 ecx, 134217727		; 07ffffffH
  00015	77 0e		 ja	 SHORT $LN1@Allocate
  00017	c1 e1 05	 shl	 ecx, 5
  0001a	51		 push	 ecx
  0001b	e8 00 00 00 00	 call	 ??2@YAPAXI@Z		; operator new
  00020	59		 pop	 ecx
  00021	85 c0		 test	 eax, eax

; 38   : 
; 39   : 	return ((_Ty _FARQ *)_Ptr);

  00023	75 26		 jne	 SHORT $LN5@Allocate
$LN1@Allocate:

; 37   : 		_THROW_NCEE(bad_alloc, 0);

  00025	83 65 08 00	 and	 DWORD PTR $T531153[ebp], 0
  00029	8d 45 08	 lea	 eax, DWORD PTR $T531153[ebp]
  0002c	50		 push	 eax
  0002d	8d 4d f4	 lea	 ecx, DWORD PTR $T531148[ebp]
  00030	ff 15 00 00 00
	00		 call	 DWORD PTR __imp_??0exception@std@@QAE@ABQBD@Z
  00036	68 00 00 00 00	 push	 OFFSET __TI2?AVbad_alloc@std@@
  0003b	8d 45 f4	 lea	 eax, DWORD PTR $T531148[ebp]
  0003e	50		 push	 eax
  0003f	c7 45 f4 00 00
	00 00		 mov	 DWORD PTR $T531148[ebp], OFFSET ??_7bad_alloc@std@@6B@
  00046	e8 00 00 00 00	 call	 __CxxThrowException@8
$LN10@Allocate:
$LN5@Allocate:

; 40   : 	}

  0004b	c9		 leave
  0004c	c3		 ret	 0
$LN9@Allocate:
??$_Allocate@U_Node@?$_List_nod@UOutLineRecord@@V?$allocator@UOutLineRecord@@@std@@@std@@@std@@YAPAU_Node@?$_List_nod@UOutLineRecord@@V?$allocator@UOutLineRecord@@@std@@@0@IPAU120@@Z ENDP ; std::_Allocate<std::_List_nod<OutLineRecord,std::allocator<OutLineRecord> >::_Node>
_TEXT	ENDS
PUBLIC	??$_Destroy@U_Node@?$_List_nod@UOutLineRecord@@V?$allocator@UOutLineRecord@@@std@@@std@@@std@@YAXPAU_Node@?$_List_nod@UOutLineRecord@@V?$allocator@UOutLineRecord@@@std@@@0@@Z ; std::_Destroy<std::_List_nod<OutLineRecord,std::allocator<OutLineRecord> >::_Node>
; Function compile flags: /Ogsp
;	COMDAT ??$_Destroy@U_Node@?$_List_nod@UOutLineRecord@@V?$allocator@UOutLineRecord@@@std@@@std@@@std@@YAXPAU_Node@?$_List_nod@UOutLineRecord@@V?$allocator@UOutLineRecord@@@std@@@0@@Z
_TEXT	SEGMENT
__Ptr$ = 8						; size = 4
??$_Destroy@U_Node@?$_List_nod@UOutLineRecord@@V?$allocator@UOutLineRecord@@@std@@@std@@@std@@YAXPAU_Node@?$_List_nod@UOutLineRecord@@V?$allocator@UOutLineRecord@@@std@@@0@@Z PROC ; std::_Destroy<std::_List_nod<OutLineRecord,std::allocator<OutLineRecord> >::_Node>, COMDAT

; 63   : 	_Ptr->~_Ty();
; 64   : 	}

  00000	c3		 ret	 0
??$_Destroy@U_Node@?$_List_nod@UOutLineRecord@@V?$allocator@UOutLineRecord@@@std@@@std@@@std@@YAXPAU_Node@?$_List_nod@UOutLineRecord@@V?$allocator@UOutLineRecord@@@std@@@0@@Z ENDP ; std::_Destroy<std::_List_nod<OutLineRecord,std::allocator<OutLineRecord> >::_Node>
_TEXT	ENDS
PUBLIC	??0D3DXVECTOR3@@QAE@XZ				; D3DXVECTOR3::D3DXVECTOR3
; Function compile flags: /Ogsp
; File c:\program files (x86)\microsoft directx sdk (june 2010)\include\d3dx9math.h
;	COMDAT ??0D3DXVECTOR3@@QAE@XZ
_TEXT	SEGMENT
??0D3DXVECTOR3@@QAE@XZ PROC				; D3DXVECTOR3::D3DXVECTOR3, COMDAT
; _this$ = ecx

; 165  :     D3DXVECTOR3() {};

  00000	8b c1		 mov	 eax, ecx
  00002	c3		 ret	 0
??0D3DXVECTOR3@@QAE@XZ ENDP				; D3DXVECTOR3::D3DXVECTOR3
_TEXT	ENDS
PUBLIC	??_7ioWorldEventReceiver@@6B@			; ioWorldEventReceiver::`vftable'
PUBLIC	??0ioWorldEventReceiver@@QAE@XZ			; ioWorldEventReceiver::ioWorldEventReceiver
PUBLIC	??_R4ioWorldEventReceiver@@6B@			; ioWorldEventReceiver::`RTTI Complete Object Locator'
PUBLIC	??_R0?AVioWorldEventReceiver@@@8		; ioWorldEventReceiver `RTTI Type Descriptor'
PUBLIC	??_R3ioWorldEventReceiver@@8			; ioWorldEventReceiver::`RTTI Class Hierarchy Descriptor'
PUBLIC	??_R2ioWorldEventReceiver@@8			; ioWorldEventReceiver::`RTTI Base Class Array'
PUBLIC	??_R1A@?0A@EA@ioWorldEventReceiver@@8		; ioWorldEventReceiver::`RTTI Base Class Descriptor at (0,-1,0,64)'
EXTRN	__purecall:PROC
EXTRN	??_EioWorldEventReceiver@@UAEPAXI@Z:PROC	; ioWorldEventReceiver::`vector deleting destructor'
;	COMDAT ??_R1A@?0A@EA@ioWorldEventReceiver@@8
; File d:\lost saga for developer\youtube\tutorial\source\src\lsclient\ioworldeventreceiver.h
rdata$r	SEGMENT
??_R1A@?0A@EA@ioWorldEventReceiver@@8 DD FLAT:??_R0?AVioWorldEventReceiver@@@8 ; ioWorldEventReceiver::`RTTI Base Class Descriptor at (0,-1,0,64)'
	DD	00H
	DD	00H
	DD	0ffffffffH
	DD	00H
	DD	040H
	DD	FLAT:??_R3ioWorldEventReceiver@@8
rdata$r	ENDS
;	COMDAT ??_R2ioWorldEventReceiver@@8
rdata$r	SEGMENT
??_R2ioWorldEventReceiver@@8 DD FLAT:??_R1A@?0A@EA@ioWorldEventReceiver@@8 ; ioWorldEventReceiver::`RTTI Base Class Array'
rdata$r	ENDS
;	COMDAT ??_R3ioWorldEventReceiver@@8
rdata$r	SEGMENT
??_R3ioWorldEventReceiver@@8 DD 00H			; ioWorldEventReceiver::`RTTI Class Hierarchy Descriptor'
	DD	00H
	DD	01H
	DD	FLAT:??_R2ioWorldEventReceiver@@8
rdata$r	ENDS
;	COMDAT ??_R0?AVioWorldEventReceiver@@@8
_DATA	SEGMENT
??_R0?AVioWorldEventReceiver@@@8 DD FLAT:??_7type_info@@6B@ ; ioWorldEventReceiver `RTTI Type Descriptor'
	DD	00H
	DB	'.?AVioWorldEventReceiver@@', 00H
_DATA	ENDS
;	COMDAT ??_R4ioWorldEventReceiver@@6B@
rdata$r	SEGMENT
??_R4ioWorldEventReceiver@@6B@ DD 00H			; ioWorldEventReceiver::`RTTI Complete Object Locator'
	DD	00H
	DD	00H
	DD	FLAT:??_R0?AVioWorldEventReceiver@@@8
	DD	FLAT:??_R3ioWorldEventReceiver@@8
rdata$r	ENDS
;	COMDAT ??_7ioWorldEventReceiver@@6B@
CONST	SEGMENT
??_7ioWorldEventReceiver@@6B@ DD FLAT:??_R4ioWorldEventReceiver@@6B@ ; ioWorldEventReceiver::`vftable'
	DD	FLAT:__purecall
	DD	FLAT:__purecall
	DD	FLAT:__purecall
	DD	FLAT:??_EioWorldEventReceiver@@UAEPAXI@Z
; Function compile flags: /Ogsp
CONST	ENDS
;	COMDAT ??0ioWorldEventReceiver@@QAE@XZ
_TEXT	SEGMENT
??0ioWorldEventReceiver@@QAE@XZ PROC			; ioWorldEventReceiver::ioWorldEventReceiver, COMDAT
; _this$ = ecx

; 11   : 	ioWorldEventReceiver(){}

  00000	8b c1		 mov	 eax, ecx
  00002	c7 00 00 00 00
	00		 mov	 DWORD PTR [eax], OFFSET ??_7ioWorldEventReceiver@@6B@
  00008	c3		 ret	 0
??0ioWorldEventReceiver@@QAE@XZ ENDP			; ioWorldEventReceiver::ioWorldEventReceiver
_TEXT	ENDS
PUBLIC	??1ioWorldEventReceiver@@UAE@XZ			; ioWorldEventReceiver::~ioWorldEventReceiver
; Function compile flags: /Ogsp
;	COMDAT ??1ioWorldEventReceiver@@UAE@XZ
_TEXT	SEGMENT
??1ioWorldEventReceiver@@UAE@XZ PROC			; ioWorldEventReceiver::~ioWorldEventReceiver, COMDAT
; _this$ = ecx

; 12   : 	virtual ~ioWorldEventReceiver(){}

  00000	c7 01 00 00 00
	00		 mov	 DWORD PTR [ecx], OFFSET ??_7ioWorldEventReceiver@@6B@
  00006	c3		 ret	 0
??1ioWorldEventReceiver@@UAE@XZ ENDP			; ioWorldEventReceiver::~ioWorldEventReceiver
; Function compile flags: /Ogsp
_TEXT	ENDS
;	COMDAT ??_GioWorldEventReceiver@@UAEPAXI@Z
_TEXT	SEGMENT
___flags$ = 8						; size = 4
??_GioWorldEventReceiver@@UAEPAXI@Z PROC		; ioWorldEventReceiver::`scalar deleting destructor', COMDAT
; _this$ = ecx
  00000	55		 push	 ebp
  00001	8b ec		 mov	 ebp, esp
  00003	f6 45 08 01	 test	 BYTE PTR ___flags$[ebp], 1
  00007	56		 push	 esi
  00008	8b f1		 mov	 esi, ecx
  0000a	c7 06 00 00 00
	00		 mov	 DWORD PTR [esi], OFFSET ??_7ioWorldEventReceiver@@6B@
  00010	74 07		 je	 SHORT $LN1@scalar@2
  00012	56		 push	 esi
  00013	e8 00 00 00 00	 call	 ??3@YAXPAX@Z		; operator delete
  00018	59		 pop	 ecx
$LN1@scalar@2:
  00019	8b c6		 mov	 eax, esi
  0001b	5e		 pop	 esi
  0001c	5d		 pop	 ebp
  0001d	c2 04 00	 ret	 4
??_GioWorldEventReceiver@@UAEPAXI@Z ENDP		; ioWorldEventReceiver::`scalar deleting destructor'
_TEXT	ENDS
EXTRN	__imp_??0exception@std@@QAE@ABV01@@Z:PROC
; Function compile flags: /Ogsp
;	COMDAT ??0bad_alloc@std@@QAE@ABV01@@Z
_TEXT	SEGMENT
___that$ = 8						; size = 4
??0bad_alloc@std@@QAE@ABV01@@Z PROC			; std::bad_alloc::bad_alloc, COMDAT
; _this$ = ecx
  00000	55		 push	 ebp
  00001	8b ec		 mov	 ebp, esp
  00003	56		 push	 esi
  00004	ff 75 08	 push	 DWORD PTR ___that$[ebp]
  00007	8b f1		 mov	 esi, ecx
  00009	ff 15 00 00 00
	00		 call	 DWORD PTR __imp_??0exception@std@@QAE@ABV01@@Z
  0000f	c7 06 00 00 00
	00		 mov	 DWORD PTR [esi], OFFSET ??_7bad_alloc@std@@6B@
  00015	8b c6		 mov	 eax, esi
  00017	5e		 pop	 esi
  00018	5d		 pop	 ebp
  00019	c2 04 00	 ret	 4
??0bad_alloc@std@@QAE@ABV01@@Z ENDP			; std::bad_alloc::bad_alloc
_TEXT	ENDS
PUBLIC	?Update@ioRoulette@@UAEXMKK@Z			; ioRoulette::Update
; Function compile flags: /Ogsp
; File d:\lost saga for developer\youtube\tutorial\source\src\lsclient\ioroulette.cpp
;	COMDAT ?Update@ioRoulette@@UAEXMKK@Z
_TEXT	SEGMENT
_fTimePerSec$ = 8					; size = 4
_dwPreTime$ = 12					; size = 4
_dwCurTime$ = 16					; size = 4
?Update@ioRoulette@@UAEXMKK@Z PROC			; ioRoulette::Update, COMDAT
; _this$ = ecx

; 42   : 	ProcessState( fTimePerSec );
; 43   : }

  00000	c2 0c 00	 ret	 12			; 0000000cH
?Update@ioRoulette@@UAEXMKK@Z ENDP			; ioRoulette::Update
_TEXT	ENDS
PUBLIC	??1?$_List_val@UOutLineRecord@@V?$allocator@UOutLineRecord@@@std@@@std@@QAE@XZ ; std::_List_val<OutLineRecord,std::allocator<OutLineRecord> >::~_List_val<OutLineRecord,std::allocator<OutLineRecord> >
; Function compile flags: /Ogsp
; File c:\program files (x86)\microsoft visual studio 10.0\vc\include\list
;	COMDAT ??1?$_List_val@UOutLineRecord@@V?$allocator@UOutLineRecord@@@std@@@std@@QAE@XZ
_TEXT	SEGMENT
??1?$_List_val@UOutLineRecord@@V?$allocator@UOutLineRecord@@@std@@@std@@QAE@XZ PROC ; std::_List_val<OutLineRecord,std::allocator<OutLineRecord> >::~_List_val<OutLineRecord,std::allocator<OutLineRecord> >, COMDAT
; _this$ = ecx

; 502  : 		this->_Alnod.deallocate(this->_Myhead, 1);

  00000	ff 31		 push	 DWORD PTR [ecx]
  00002	e8 00 00 00 00	 call	 ??3@YAXPAX@Z		; operator delete
  00007	59		 pop	 ecx

; 503  : 		}

  00008	c3		 ret	 0
??1?$_List_val@UOutLineRecord@@V?$allocator@UOutLineRecord@@@std@@@std@@QAE@XZ ENDP ; std::_List_val<OutLineRecord,std::allocator<OutLineRecord> >::~_List_val<OutLineRecord,std::allocator<OutLineRecord> >
_TEXT	ENDS
PUBLIC	??0?$_List_nod@UOutLineRecord@@V?$allocator@UOutLineRecord@@@std@@@std@@QAE@V?$allocator@UOutLineRecord@@@1@@Z ; std::_List_nod<OutLineRecord,std::allocator<OutLineRecord> >::_List_nod<OutLineRecord,std::allocator<OutLineRecord> >
; Function compile flags: /Ogsp
;	COMDAT ??0?$_List_nod@UOutLineRecord@@V?$allocator@UOutLineRecord@@@std@@@std@@QAE@V?$allocator@UOutLineRecord@@@1@@Z
_TEXT	SEGMENT
__Al$ = 8						; size = 1
??0?$_List_nod@UOutLineRecord@@V?$allocator@UOutLineRecord@@@std@@@std@@QAE@V?$allocator@UOutLineRecord@@@1@@Z PROC ; std::_List_nod<OutLineRecord,std::allocator<OutLineRecord> >::_List_nod<OutLineRecord,std::allocator<OutLineRecord> >, COMDAT
; _this$ = ecx

; 438  : 		{	// construct allocators from _Al

  00000	8b c1		 mov	 eax, ecx

; 439  : 		}

  00002	c2 04 00	 ret	 4
??0?$_List_nod@UOutLineRecord@@V?$allocator@UOutLineRecord@@@std@@@std@@QAE@V?$allocator@UOutLineRecord@@@1@@Z ENDP ; std::_List_nod<OutLineRecord,std::allocator<OutLineRecord> >::_List_nod<OutLineRecord,std::allocator<OutLineRecord> >
_TEXT	ENDS
PUBLIC	?allocate@?$allocator@U_Node@?$_List_nod@UOutLineRecord@@V?$allocator@UOutLineRecord@@@std@@@std@@@std@@QAEPAU_Node@?$_List_nod@UOutLineRecord@@V?$allocator@UOutLineRecord@@@std@@@2@I@Z ; std::allocator<std::_List_nod<OutLineRecord,std::allocator<OutLineRecord> >::_Node>::allocate
; Function compile flags: /Ogsp
; File c:\program files (x86)\microsoft visual studio 10.0\vc\include\xmemory
;	COMDAT ?allocate@?$allocator@U_Node@?$_List_nod@UOutLineRecord@@V?$allocator@UOutLineRecord@@@std@@@std@@@std@@QAEPAU_Node@?$_List_nod@UOutLineRecord@@V?$allocator@UOutLineRecord@@@std@@@2@I@Z
_TEXT	SEGMENT
__Count$ = 8						; size = 4
?allocate@?$allocator@U_Node@?$_List_nod@UOutLineRecord@@V?$allocator@UOutLineRecord@@@std@@@std@@@std@@QAEPAU_Node@?$_List_nod@UOutLineRecord@@V?$allocator@UOutLineRecord@@@std@@@2@I@Z PROC ; std::allocator<std::_List_nod<OutLineRecord,std::allocator<OutLineRecord> >::_Node>::allocate, COMDAT
; _this$ = ecx

; 186  : 		{	// allocate array of _Count elements

  00000	55		 push	 ebp
  00001	8b ec		 mov	 ebp, esp

; 187  : 		return (_Allocate(_Count, (pointer)0));

  00003	6a 00		 push	 0
  00005	ff 75 08	 push	 DWORD PTR __Count$[ebp]
  00008	e8 00 00 00 00	 call	 ??$_Allocate@U_Node@?$_List_nod@UOutLineRecord@@V?$allocator@UOutLineRecord@@@std@@@std@@@std@@YAPAU_Node@?$_List_nod@UOutLineRecord@@V?$allocator@UOutLineRecord@@@std@@@0@IPAU120@@Z ; std::_Allocate<std::_List_nod<OutLineRecord,std::allocator<OutLineRecord> >::_Node>
  0000d	59		 pop	 ecx
  0000e	59		 pop	 ecx

; 188  : 		}

  0000f	5d		 pop	 ebp
  00010	c2 04 00	 ret	 4
?allocate@?$allocator@U_Node@?$_List_nod@UOutLineRecord@@V?$allocator@UOutLineRecord@@@std@@@std@@@std@@QAEPAU_Node@?$_List_nod@UOutLineRecord@@V?$allocator@UOutLineRecord@@@std@@@2@I@Z ENDP ; std::allocator<std::_List_nod<OutLineRecord,std::allocator<OutLineRecord> >::_Node>::allocate
_TEXT	ENDS
PUBLIC	?destroy@?$allocator@U_Node@?$_List_nod@UOutLineRecord@@V?$allocator@UOutLineRecord@@@std@@@std@@@std@@QAEXPAU_Node@?$_List_nod@UOutLineRecord@@V?$allocator@UOutLineRecord@@@std@@@2@@Z ; std::allocator<std::_List_nod<OutLineRecord,std::allocator<OutLineRecord> >::_Node>::destroy
; Function compile flags: /Ogsp
;	COMDAT ?destroy@?$allocator@U_Node@?$_List_nod@UOutLineRecord@@V?$allocator@UOutLineRecord@@@std@@@std@@@std@@QAEXPAU_Node@?$_List_nod@UOutLineRecord@@V?$allocator@UOutLineRecord@@@std@@@2@@Z
_TEXT	SEGMENT
__Ptr$ = 8						; size = 4
?destroy@?$allocator@U_Node@?$_List_nod@UOutLineRecord@@V?$allocator@UOutLineRecord@@@std@@@std@@@std@@QAEXPAU_Node@?$_List_nod@UOutLineRecord@@V?$allocator@UOutLineRecord@@@std@@@2@@Z PROC ; std::allocator<std::_List_nod<OutLineRecord,std::allocator<OutLineRecord> >::_Node>::destroy, COMDAT
; _this$ = ecx

; 213  : 		_Destroy(_Ptr);
; 214  : 		}

  00000	c2 04 00	 ret	 4
?destroy@?$allocator@U_Node@?$_List_nod@UOutLineRecord@@V?$allocator@UOutLineRecord@@@std@@@std@@@std@@QAEXPAU_Node@?$_List_nod@UOutLineRecord@@V?$allocator@UOutLineRecord@@@std@@@2@@Z ENDP ; std::allocator<std::_List_nod<OutLineRecord,std::allocator<OutLineRecord> >::_Node>::destroy
_TEXT	ENDS
PUBLIC	??0?$_List_val@UOutLineRecord@@V?$allocator@UOutLineRecord@@@std@@@std@@QAE@V?$allocator@UOutLineRecord@@@1@@Z ; std::_List_val<OutLineRecord,std::allocator<OutLineRecord> >::_List_val<OutLineRecord,std::allocator<OutLineRecord> >
; Function compile flags: /Ogsp
; File c:\program files (x86)\microsoft visual studio 10.0\vc\include\list
;	COMDAT ??0?$_List_val@UOutLineRecord@@V?$allocator@UOutLineRecord@@@std@@@std@@QAE@V?$allocator@UOutLineRecord@@@1@@Z
_TEXT	SEGMENT
$T531256 = -16						; size = 12
$T531233 = -4						; size = 4
__Al$ = 8						; size = 1
??0?$_List_val@UOutLineRecord@@V?$allocator@UOutLineRecord@@@std@@@std@@QAE@V?$allocator@UOutLineRecord@@@1@@Z PROC ; std::_List_val<OutLineRecord,std::allocator<OutLineRecord> >::_List_val<OutLineRecord,std::allocator<OutLineRecord> >, COMDAT
; _this$ = ecx

; 493  : 		{	// construct base, and allocator from _Al

  00000	55		 push	 ebp
  00001	8b ec		 mov	 ebp, esp
  00003	83 ec 10	 sub	 esp, 16			; 00000010H
  00006	56		 push	 esi
  00007	8b f1		 mov	 esi, ecx

; 494  : 		this->_Mysize = 0;

  00009	83 66 04 00	 and	 DWORD PTR [esi+4], 0

; 495  : 		this->_Myhead = this->_Alnod.allocate(1);

  0000d	6a 20		 push	 32			; 00000020H
  0000f	e8 00 00 00 00	 call	 ??2@YAPAXI@Z		; operator new
  00014	59		 pop	 ecx
  00015	85 c0		 test	 eax, eax
  00017	74 10		 je	 SHORT $LN13@List_val
  00019	89 06		 mov	 DWORD PTR [esi], eax

; 496  : 		this->_Nextnode(this->_Myhead) = this->_Myhead;

  0001b	89 00		 mov	 DWORD PTR [eax], eax

; 497  : 		this->_Prevnode(this->_Myhead) = this->_Myhead;

  0001d	8b 06		 mov	 eax, DWORD PTR [esi]
  0001f	89 40 04	 mov	 DWORD PTR [eax+4], eax

; 498  : 		}

  00022	8b c6		 mov	 eax, esi
  00024	5e		 pop	 esi
  00025	c9		 leave
  00026	c2 04 00	 ret	 4

; 495  : 		this->_Myhead = this->_Alnod.allocate(1);

$LN13@List_val:
  00029	83 65 fc 00	 and	 DWORD PTR $T531233[ebp], 0
  0002d	8d 45 fc	 lea	 eax, DWORD PTR $T531233[ebp]
  00030	50		 push	 eax
  00031	8d 4d f0	 lea	 ecx, DWORD PTR $T531256[ebp]
  00034	ff 15 00 00 00
	00		 call	 DWORD PTR __imp_??0exception@std@@QAE@ABQBD@Z
  0003a	68 00 00 00 00	 push	 OFFSET __TI2?AVbad_alloc@std@@
  0003f	8d 45 f0	 lea	 eax, DWORD PTR $T531256[ebp]
  00042	50		 push	 eax
  00043	c7 45 f0 00 00
	00 00		 mov	 DWORD PTR $T531256[ebp], OFFSET ??_7bad_alloc@std@@6B@
  0004a	e8 00 00 00 00	 call	 __CxxThrowException@8
$LN29@List_val:
$LN28@List_val:
  0004f	cc		 int	 3
??0?$_List_val@UOutLineRecord@@V?$allocator@UOutLineRecord@@@std@@@std@@QAE@V?$allocator@UOutLineRecord@@@1@@Z ENDP ; std::_List_val<OutLineRecord,std::allocator<OutLineRecord> >::_List_val<OutLineRecord,std::allocator<OutLineRecord> >
_TEXT	ENDS
PUBLIC	??$_Dest_val@V?$allocator@U_Node@?$_List_nod@UOutLineRecord@@V?$allocator@UOutLineRecord@@@std@@@std@@@std@@U_Node@?$_List_nod@UOutLineRecord@@V?$allocator@UOutLineRecord@@@std@@@2@@std@@YAXAAV?$allocator@U_Node@?$_List_nod@UOutLineRecord@@V?$allocator@UOutLineRecord@@@std@@@std@@@0@PAU_Node@?$_List_nod@UOutLineRecord@@V?$allocator@UOutLineRecord@@@std@@@0@@Z ; std::_Dest_val<std::allocator<std::_List_nod<OutLineRecord,std::allocator<OutLineRecord> >::_Node>,std::_List_nod<OutLineRecord,std::allocator<OutLineRecord> >::_Node>
; Function compile flags: /Ogsp
; File c:\program files (x86)\microsoft visual studio 10.0\vc\include\xmemory
;	COMDAT ??$_Dest_val@V?$allocator@U_Node@?$_List_nod@UOutLineRecord@@V?$allocator@UOutLineRecord@@@std@@@std@@@std@@U_Node@?$_List_nod@UOutLineRecord@@V?$allocator@UOutLineRecord@@@std@@@2@@std@@YAXAAV?$allocator@U_Node@?$_List_nod@UOutLineRecord@@V?$allocator@UOutLineRecord@@@std@@@std@@@0@PAU_Node@?$_List_nod@UOutLineRecord@@V?$allocator@UOutLineRecord@@@std@@@0@@Z
_TEXT	SEGMENT
__Alval$ = 8						; size = 4
__Pdest$ = 12						; size = 4
??$_Dest_val@V?$allocator@U_Node@?$_List_nod@UOutLineRecord@@V?$allocator@UOutLineRecord@@@std@@@std@@@std@@U_Node@?$_List_nod@UOutLineRecord@@V?$allocator@UOutLineRecord@@@std@@@2@@std@@YAXAAV?$allocator@U_Node@?$_List_nod@UOutLineRecord@@V?$allocator@UOutLineRecord@@@std@@@std@@@0@PAU_Node@?$_List_nod@UOutLineRecord@@V?$allocator@UOutLineRecord@@@std@@@0@@Z PROC ; std::_Dest_val<std::allocator<std::_List_nod<OutLineRecord,std::allocator<OutLineRecord> >::_Node>,std::_List_nod<OutLineRecord,std::allocator<OutLineRecord> >::_Node>, COMDAT

; 287  : 	_Alval.destroy(_Pdest);
; 288  : 	}

  00000	c3		 ret	 0
??$_Dest_val@V?$allocator@U_Node@?$_List_nod@UOutLineRecord@@V?$allocator@UOutLineRecord@@@std@@@std@@@std@@U_Node@?$_List_nod@UOutLineRecord@@V?$allocator@UOutLineRecord@@@std@@@2@@std@@YAXAAV?$allocator@U_Node@?$_List_nod@UOutLineRecord@@V?$allocator@UOutLineRecord@@@std@@@std@@@0@PAU_Node@?$_List_nod@UOutLineRecord@@V?$allocator@UOutLineRecord@@@std@@@0@@Z ENDP ; std::_Dest_val<std::allocator<std::_List_nod<OutLineRecord,std::allocator<OutLineRecord> >::_Node>,std::_List_nod<OutLineRecord,std::allocator<OutLineRecord> >::_Node>
_TEXT	ENDS
PUBLIC	??0?$list@UOutLineRecord@@V?$allocator@UOutLineRecord@@@std@@@std@@QAE@XZ ; std::list<OutLineRecord,std::allocator<OutLineRecord> >::list<OutLineRecord,std::allocator<OutLineRecord> >
; Function compile flags: /Ogsp
; File c:\program files (x86)\microsoft visual studio 10.0\vc\include\list
;	COMDAT ??0?$list@UOutLineRecord@@V?$allocator@UOutLineRecord@@@std@@@std@@QAE@XZ
_TEXT	SEGMENT
$T531289 = -4						; size = 4
$T531284 = -4						; size = 4
??0?$list@UOutLineRecord@@V?$allocator@UOutLineRecord@@@std@@@std@@QAE@XZ PROC ; std::list<OutLineRecord,std::allocator<OutLineRecord> >::list<OutLineRecord,std::allocator<OutLineRecord> >, COMDAT
; _this$ = ecx

; 607  : 		{	// construct empty list

  00000	55		 push	 ebp
  00001	8b ec		 mov	 ebp, esp
  00003	51		 push	 ecx
  00004	56		 push	 esi
  00005	51		 push	 ecx
  00006	89 65 fc	 mov	 DWORD PTR $T531284[ebp], esp
  00009	8b f1		 mov	 esi, ecx
  0000b	89 65 fc	 mov	 DWORD PTR $T531289[ebp], esp
  0000e	e8 00 00 00 00	 call	 ??0?$_List_val@UOutLineRecord@@V?$allocator@UOutLineRecord@@@std@@@std@@QAE@V?$allocator@UOutLineRecord@@@1@@Z ; std::_List_val<OutLineRecord,std::allocator<OutLineRecord> >::_List_val<OutLineRecord,std::allocator<OutLineRecord> >

; 608  : 		}

  00013	8b c6		 mov	 eax, esi
  00015	5e		 pop	 esi
  00016	c9		 leave
  00017	c3		 ret	 0
??0?$list@UOutLineRecord@@V?$allocator@UOutLineRecord@@@std@@@std@@QAE@XZ ENDP ; std::list<OutLineRecord,std::allocator<OutLineRecord> >::list<OutLineRecord,std::allocator<OutLineRecord> >
_TEXT	ENDS
PUBLIC	?clear@?$list@UOutLineRecord@@V?$allocator@UOutLineRecord@@@std@@@std@@QAEXXZ ; std::list<OutLineRecord,std::allocator<OutLineRecord> >::clear
; Function compile flags: /Ogsp
;	COMDAT ?clear@?$list@UOutLineRecord@@V?$allocator@UOutLineRecord@@@std@@@std@@QAEXXZ
_TEXT	SEGMENT
?clear@?$list@UOutLineRecord@@V?$allocator@UOutLineRecord@@@std@@@std@@QAEXXZ PROC ; std::list<OutLineRecord,std::allocator<OutLineRecord> >::clear, COMDAT
; _this$ = ecx

; 1096 : 		{	// erase all

  00000	56		 push	 esi
  00001	8b f1		 mov	 esi, ecx

; 1097 :  #if _ITERATOR_DEBUG_LEVEL == 2
; 1098 : 		this->_Orphan_ptr(*this, 0);
; 1099 :  #endif /* _ITERATOR_DEBUG_LEVEL == 2 */
; 1100 : 
; 1101 : 		_Nodeptr _Pnext;
; 1102 : 		_Nodeptr _Pnode = this->_Nextnode(this->_Myhead);

  00003	8b 06		 mov	 eax, DWORD PTR [esi]
  00005	8b 08		 mov	 ecx, DWORD PTR [eax]

; 1103 : 		this->_Nextnode(this->_Myhead) = this->_Myhead;

  00007	89 00		 mov	 DWORD PTR [eax], eax

; 1104 : 		this->_Prevnode(this->_Myhead) = this->_Myhead;

  00009	8b 06		 mov	 eax, DWORD PTR [esi]
  0000b	89 40 04	 mov	 DWORD PTR [eax+4], eax

; 1105 : 		this->_Mysize = 0;

  0000e	83 66 04 00	 and	 DWORD PTR [esi+4], 0

; 1106 : 
; 1107 : 		for (; _Pnode != this->_Myhead; _Pnode = _Pnext)

  00012	3b 0e		 cmp	 ecx, DWORD PTR [esi]
  00014	74 11		 je	 SHORT $LN1@clear
  00016	57		 push	 edi
$LL3@clear:

; 1108 : 			{	// delete an element
; 1109 : 			_Pnext = this->_Nextnode(_Pnode);

  00017	8b 39		 mov	 edi, DWORD PTR [ecx]

; 1110 : 
; 1111 : 			_Dest_val(this->_Alnod, _Pnode);
; 1112 : 			this->_Alnod.deallocate(_Pnode, 1);

  00019	51		 push	 ecx
  0001a	e8 00 00 00 00	 call	 ??3@YAXPAX@Z		; operator delete
  0001f	59		 pop	 ecx
  00020	8b cf		 mov	 ecx, edi
  00022	3b 3e		 cmp	 edi, DWORD PTR [esi]
  00024	75 f1		 jne	 SHORT $LL3@clear
  00026	5f		 pop	 edi
$LN1@clear:
  00027	5e		 pop	 esi

; 1113 : 			}
; 1114 : 		}

  00028	c3		 ret	 0
?clear@?$list@UOutLineRecord@@V?$allocator@UOutLineRecord@@@std@@@std@@QAEXXZ ENDP ; std::list<OutLineRecord,std::allocator<OutLineRecord> >::clear
_TEXT	ENDS
PUBLIC	?_Tidy@?$list@UOutLineRecord@@V?$allocator@UOutLineRecord@@@std@@@std@@QAEXXZ ; std::list<OutLineRecord,std::allocator<OutLineRecord> >::_Tidy
; Function compile flags: /Ogsp
;	COMDAT ?_Tidy@?$list@UOutLineRecord@@V?$allocator@UOutLineRecord@@@std@@@std@@QAEXXZ
_TEXT	SEGMENT
?_Tidy@?$list@UOutLineRecord@@V?$allocator@UOutLineRecord@@@std@@@std@@QAEXXZ PROC ; std::list<OutLineRecord,std::allocator<OutLineRecord> >::_Tidy, COMDAT
; _this$ = ecx

; 1497 : 		clear();

  00000	e9 00 00 00 00	 jmp	 ?clear@?$list@UOutLineRecord@@V?$allocator@UOutLineRecord@@@std@@@std@@QAEXXZ ; std::list<OutLineRecord,std::allocator<OutLineRecord> >::clear
?_Tidy@?$list@UOutLineRecord@@V?$allocator@UOutLineRecord@@@std@@@std@@QAEXXZ ENDP ; std::list<OutLineRecord,std::allocator<OutLineRecord> >::_Tidy
_TEXT	ENDS
PUBLIC	??1?$list@UOutLineRecord@@V?$allocator@UOutLineRecord@@@std@@@std@@QAE@XZ ; std::list<OutLineRecord,std::allocator<OutLineRecord> >::~list<OutLineRecord,std::allocator<OutLineRecord> >
; Function compile flags: /Ogsp
;	COMDAT ??1?$list@UOutLineRecord@@V?$allocator@UOutLineRecord@@@std@@@std@@QAE@XZ
_TEXT	SEGMENT
??1?$list@UOutLineRecord@@V?$allocator@UOutLineRecord@@@std@@@std@@QAE@XZ PROC ; std::list<OutLineRecord,std::allocator<OutLineRecord> >::~list<OutLineRecord,std::allocator<OutLineRecord> >, COMDAT
; _this$ = ecx

; 769  : 		{	// destroy the object

  00000	56		 push	 esi
  00001	8b f1		 mov	 esi, ecx

; 770  : 		_Tidy();

  00003	e8 00 00 00 00	 call	 ?clear@?$list@UOutLineRecord@@V?$allocator@UOutLineRecord@@@std@@@std@@QAEXXZ ; std::list<OutLineRecord,std::allocator<OutLineRecord> >::clear

; 771  : 		}

  00008	ff 36		 push	 DWORD PTR [esi]
  0000a	e8 00 00 00 00	 call	 ??3@YAXPAX@Z		; operator delete
  0000f	59		 pop	 ecx
  00010	5e		 pop	 esi
  00011	c3		 ret	 0
??1?$list@UOutLineRecord@@V?$allocator@UOutLineRecord@@@std@@@std@@QAE@XZ ENDP ; std::list<OutLineRecord,std::allocator<OutLineRecord> >::~list<OutLineRecord,std::allocator<OutLineRecord> >
_TEXT	ENDS
PUBLIC	??_7ioRoulette@@6BioWorldEventReceiver@@@	; ioRoulette::`vftable'
PUBLIC	??_7ioRoulette@@6BioPlayEntity@@@		; ioRoulette::`vftable'
PUBLIC	??0ioRoulette@@QAE@PAVioEntityGroup@@PAVioPlayMode@@@Z ; ioRoulette::ioRoulette
PUBLIC	??_R4ioRoulette@@6BioPlayEntity@@@		; ioRoulette::`RTTI Complete Object Locator'
PUBLIC	??_R0?AVioRoulette@@@8				; ioRoulette `RTTI Type Descriptor'
PUBLIC	??_R3ioRoulette@@8				; ioRoulette::`RTTI Class Hierarchy Descriptor'
PUBLIC	??_R2ioRoulette@@8				; ioRoulette::`RTTI Base Class Array'
PUBLIC	??_R1A@?0A@EA@ioRoulette@@8			; ioRoulette::`RTTI Base Class Descriptor at (0,-1,0,64)'
PUBLIC	??_R1A@?0A@EA@ioPlayEntity@@8			; ioPlayEntity::`RTTI Base Class Descriptor at (0,-1,0,64)'
PUBLIC	??_R0?AVioPlayEntity@@@8			; ioPlayEntity `RTTI Type Descriptor'
PUBLIC	??_R3ioPlayEntity@@8				; ioPlayEntity::`RTTI Class Hierarchy Descriptor'
PUBLIC	??_R2ioPlayEntity@@8				; ioPlayEntity::`RTTI Base Class Array'
PUBLIC	??_R1A@?0A@EA@ioGameEntity@@8			; ioGameEntity::`RTTI Base Class Descriptor at (0,-1,0,64)'
PUBLIC	??_R0?AVioGameEntity@@@8			; ioGameEntity `RTTI Type Descriptor'
PUBLIC	??_R3ioGameEntity@@8				; ioGameEntity::`RTTI Class Hierarchy Descriptor'
PUBLIC	??_R2ioGameEntity@@8				; ioGameEntity::`RTTI Base Class Array'
PUBLIC	??_R1A@?0A@EA@ioEntityEvent@@8			; ioEntityEvent::`RTTI Base Class Descriptor at (0,-1,0,64)'
PUBLIC	??_R0?AVioEntityEvent@@@8			; ioEntityEvent `RTTI Type Descriptor'
PUBLIC	??_R3ioEntityEvent@@8				; ioEntityEvent::`RTTI Class Hierarchy Descriptor'
PUBLIC	??_R2ioEntityEvent@@8				; ioEntityEvent::`RTTI Base Class Array'
PUBLIC	??_R1BMI@?0A@EA@ioWorldEventReceiver@@8		; ioWorldEventReceiver::`RTTI Base Class Descriptor at (456,-1,0,64)'
PUBLIC	?NeedUpdateBottomHeight@ioGameEntity@@UAEXXZ	; ioGameEntity::NeedUpdateBottomHeight
PUBLIC	?SetTeam@ioPlayEntity@@UAEXW4TeamType@@@Z	; ioPlayEntity::SetTeam
PUBLIC	??_R4ioRoulette@@6BioWorldEventReceiver@@@	; ioRoulette::`RTTI Complete Object Locator'
PUBLIC	??_EioRoulette@@WBMI@AEPAXI@Z			; [thunk]:ioRoulette::`vector deleting destructor'
EXTRN	??1ioPlayEntity@@UAE@XZ:PROC			; ioPlayEntity::~ioPlayEntity
EXTRN	__imp_?GetLoopSec@ioFrameTimer@@QBEKXZ:PROC
EXTRN	__imp_?GetSingleton@ioFrameTimer@@SAAAV1@XZ:PROC
EXTRN	??0ioPlayEntity@@QAE@PAVioEntityGroup@@PAVioPlayMode@@@Z:PROC ; ioPlayEntity::ioPlayEntity
EXTRN	___CxxFrameHandler3:PROC
EXTRN	@__security_check_cookie@4:PROC
EXTRN	__EH_epilog3:PROC
EXTRN	__EH_prolog3:PROC
EXTRN	?AddEntityEvent@ioEntityEvent@@UAEXPAVioEntity@@@Z:PROC ; ioEntityEvent::AddEntityEvent
EXTRN	??_EioRoulette@@UAEPAXI@Z:PROC			; ioRoulette::`vector deleting destructor'
EXTRN	?GetTypeID@ioPlayEntity@@UBEHXZ:PROC		; ioPlayEntity::GetTypeID
EXTRN	?IsAllWeaponDefence@ioGameEntity@@UBE_NXZ:PROC	; ioGameEntity::IsAllWeaponDefence
EXTRN	?HasEntity@ioGameEntity@@UAE_NABVioHashString@@@Z:PROC ; ioGameEntity::HasEntity
EXTRN	?AddEntity@ioGameEntity@@UAEPAVioEntity@@ABVioHashString@@@Z:PROC ; ioGameEntity::AddEntity
EXTRN	?DestroyEntity@ioGameEntity@@UAE_NABVioHashString@@@Z:PROC ; ioGameEntity::DestroyEntity
EXTRN	?GetEntity@ioGameEntity@@UAEPAVioEntity@@ABVioHashString@@@Z:PROC ; ioGameEntity::GetEntity
EXTRN	?UpdateBound@ioGameEntity@@MBEXXZ:PROC		; ioGameEntity::UpdateBound
EXTRN	?SetWorldPosition@ioGameEntity@@UAEXABUD3DXVECTOR3@@@Z:PROC ; ioGameEntity::SetWorldPosition
EXTRN	?SetWorldOrientation@ioGameEntity@@UAEXABUD3DXQUATERNION@@@Z:PROC ; ioGameEntity::SetWorldOrientation
EXTRN	?SetWorldScale@ioGameEntity@@UAEXABUD3DXVECTOR3@@@Z:PROC ; ioGameEntity::SetWorldScale
EXTRN	?Translate@ioGameEntity@@UAEXABUD3DXVECTOR3@@@Z:PROC ; ioGameEntity::Translate
EXTRN	?TranslateByConveyer@ioGameEntity@@UAEXABUD3DXVECTOR3@@@Z:PROC ; ioGameEntity::TranslateByConveyer
EXTRN	?TranslateByWorldEntity@ioGameEntity@@UAEXABUD3DXVECTOR3@@@Z:PROC ; ioGameEntity::TranslateByWorldEntity
EXTRN	?MapCollisionPushingTranslate@ioGameEntity@@UAEXABUD3DXVECTOR3@@@Z:PROC ; ioGameEntity::MapCollisionPushingTranslate
EXTRN	?DontMoveCollisionPushingTranslate@ioGameEntity@@UAEXPAV1@ABUD3DXVECTOR3@@@Z:PROC ; ioGameEntity::DontMoveCollisionPushingTranslate
EXTRN	?Rotate@ioGameEntity@@UAEXABUD3DXVECTOR3@@MW4TransformSpace@ioNode@@@Z:PROC ; ioGameEntity::Rotate
EXTRN	?Scale@ioGameEntity@@UAEXMMM@Z:PROC		; ioGameEntity::Scale
EXTRN	?Scale@ioGameEntity@@UAEXABUD3DXVECTOR3@@@Z:PROC ; ioGameEntity::Scale
EXTRN	?GetWorldPosition@ioGameEntity@@UBEABUD3DXVECTOR3@@XZ:PROC ; ioGameEntity::GetWorldPosition
EXTRN	?GetWorldOrientation@ioGameEntity@@UBEABUD3DXQUATERNION@@XZ:PROC ; ioGameEntity::GetWorldOrientation
EXTRN	?GetWorldScale@ioGameEntity@@UBEABUD3DXVECTOR3@@XZ:PROC ; ioGameEntity::GetWorldScale
EXTRN	?IsCollisionAvailableRange@ioPlayEntity@@UAE_NPAVioWeapon@@@Z:PROC ; ioPlayEntity::IsCollisionAvailableRange
EXTRN	?IsCharCollisionSkipState@ioPlayEntity@@UBE_NW4TeamType@@H@Z:PROC ; ioPlayEntity::IsCharCollisionSkipState
EXTRN	?IsWoundedCollision@ioPlayEntity@@UBE_NABVioOrientBox@@PAUD3DXVECTOR3@@@Z:PROC ; ioPlayEntity::IsWoundedCollision
EXTRN	?GetAttackCollisionBox@ioPlayEntity@@UAE?AVioOrientBox@@W4AniCollisionType@@_N@Z:PROC ; ioPlayEntity::GetAttackCollisionBox
EXTRN	?CheckSphereDistance@ioPlayEntity@@UBE_NABUD3DXVECTOR3@@MAAM@Z:PROC ; ioPlayEntity::CheckSphereDistance
EXTRN	?CheckSpherePoint@ioPlayEntity@@UBE_NABUD3DXVECTOR3@@MAAU2@@Z:PROC ; ioPlayEntity::CheckSpherePoint
EXTRN	?CheckCylinderPoint@ioPlayEntity@@UBE_NABVioCylinder@@ABUD3DXVECTOR3@@AAU3@@Z:PROC ; ioPlayEntity::CheckCylinderPoint
EXTRN	?NotifyDontMoveCollisionPushingSkip@ioPlayEntity@@UAEXPAVioGameEntity@@@Z:PROC ; ioPlayEntity::NotifyDontMoveCollisionPushingSkip
EXTRN	?Revival@ioPlayEntity@@UAEXXZ:PROC		; ioPlayEntity::Revival
EXTRN	?UpdateGauge@ioPlayEntity@@UAEXXZ:PROC		; ioPlayEntity::UpdateGauge
EXTRN	?RenderGauge@ioPlayEntity@@UAEXXZ:PROC		; ioPlayEntity::RenderGauge
EXTRN	?FillMaxHP@ioPlayEntity@@UAEXXZ:PROC		; ioPlayEntity::FillMaxHP
EXTRN	?ProcessRecovery@ioPlayEntity@@MAEXXZ:PROC	; ioPlayEntity::ProcessRecovery
EXTRN	?AddHeadDamageInfo@ioPlayEntity@@UAEXH_N@Z:PROC	; ioPlayEntity::AddHeadDamageInfo
EXTRN	?RenderHeadInfoList@ioPlayEntity@@UAEXHH@Z:PROC	; ioPlayEntity::RenderHeadInfoList
EXTRN	?UpdateHeadInfoList@ioPlayEntity@@MAEXK@Z:PROC	; ioPlayEntity::UpdateHeadInfoList
;	COMDAT ??_R4ioRoulette@@6BioWorldEventReceiver@@@
; File c:\program files (x86)\microsoft visual studio 10.0\vc\include\xmemory
rdata$r	SEGMENT
??_R4ioRoulette@@6BioWorldEventReceiver@@@ DD 00H	; ioRoulette::`RTTI Complete Object Locator'
	DD	01c8H
	DD	00H
	DD	FLAT:??_R0?AVioRoulette@@@8
	DD	FLAT:??_R3ioRoulette@@8
rdata$r	ENDS
;	COMDAT ??_R1BMI@?0A@EA@ioWorldEventReceiver@@8
rdata$r	SEGMENT
??_R1BMI@?0A@EA@ioWorldEventReceiver@@8 DD FLAT:??_R0?AVioWorldEventReceiver@@@8 ; ioWorldEventReceiver::`RTTI Base Class Descriptor at (456,-1,0,64)'
	DD	00H
	DD	01c8H
	DD	0ffffffffH
	DD	00H
	DD	040H
	DD	FLAT:??_R3ioWorldEventReceiver@@8
rdata$r	ENDS
;	COMDAT ??_R2ioEntityEvent@@8
rdata$r	SEGMENT
??_R2ioEntityEvent@@8 DD FLAT:??_R1A@?0A@EA@ioEntityEvent@@8 ; ioEntityEvent::`RTTI Base Class Array'
rdata$r	ENDS
;	COMDAT ??_R3ioEntityEvent@@8
rdata$r	SEGMENT
??_R3ioEntityEvent@@8 DD 00H				; ioEntityEvent::`RTTI Class Hierarchy Descriptor'
	DD	00H
	DD	01H
	DD	FLAT:??_R2ioEntityEvent@@8
rdata$r	ENDS
;	COMDAT ??_R0?AVioEntityEvent@@@8
_DATA	SEGMENT
??_R0?AVioEntityEvent@@@8 DD FLAT:??_7type_info@@6B@	; ioEntityEvent `RTTI Type Descriptor'
	DD	00H
	DB	'.?AVioEntityEvent@@', 00H
_DATA	ENDS
;	COMDAT ??_R1A@?0A@EA@ioEntityEvent@@8
rdata$r	SEGMENT
??_R1A@?0A@EA@ioEntityEvent@@8 DD FLAT:??_R0?AVioEntityEvent@@@8 ; ioEntityEvent::`RTTI Base Class Descriptor at (0,-1,0,64)'
	DD	00H
	DD	00H
	DD	0ffffffffH
	DD	00H
	DD	040H
	DD	FLAT:??_R3ioEntityEvent@@8
rdata$r	ENDS
;	COMDAT ??_R2ioGameEntity@@8
rdata$r	SEGMENT
??_R2ioGameEntity@@8 DD FLAT:??_R1A@?0A@EA@ioGameEntity@@8 ; ioGameEntity::`RTTI Base Class Array'
	DD	FLAT:??_R1A@?0A@EA@ioEntityEvent@@8
rdata$r	ENDS
;	COMDAT ??_R3ioGameEntity@@8
rdata$r	SEGMENT
??_R3ioGameEntity@@8 DD 00H				; ioGameEntity::`RTTI Class Hierarchy Descriptor'
	DD	00H
	DD	02H
	DD	FLAT:??_R2ioGameEntity@@8
rdata$r	ENDS
;	COMDAT ??_R0?AVioGameEntity@@@8
_DATA	SEGMENT
??_R0?AVioGameEntity@@@8 DD FLAT:??_7type_info@@6B@	; ioGameEntity `RTTI Type Descriptor'
	DD	00H
	DB	'.?AVioGameEntity@@', 00H
_DATA	ENDS
;	COMDAT ??_R1A@?0A@EA@ioGameEntity@@8
rdata$r	SEGMENT
??_R1A@?0A@EA@ioGameEntity@@8 DD FLAT:??_R0?AVioGameEntity@@@8 ; ioGameEntity::`RTTI Base Class Descriptor at (0,-1,0,64)'
	DD	01H
	DD	00H
	DD	0ffffffffH
	DD	00H
	DD	040H
	DD	FLAT:??_R3ioGameEntity@@8
rdata$r	ENDS
;	COMDAT ??_R2ioPlayEntity@@8
rdata$r	SEGMENT
??_R2ioPlayEntity@@8 DD FLAT:??_R1A@?0A@EA@ioPlayEntity@@8 ; ioPlayEntity::`RTTI Base Class Array'
	DD	FLAT:??_R1A@?0A@EA@ioGameEntity@@8
	DD	FLAT:??_R1A@?0A@EA@ioEntityEvent@@8
rdata$r	ENDS
;	COMDAT ??_R3ioPlayEntity@@8
rdata$r	SEGMENT
??_R3ioPlayEntity@@8 DD 00H				; ioPlayEntity::`RTTI Class Hierarchy Descriptor'
	DD	00H
	DD	03H
	DD	FLAT:??_R2ioPlayEntity@@8
rdata$r	ENDS
;	COMDAT ??_R0?AVioPlayEntity@@@8
_DATA	SEGMENT
??_R0?AVioPlayEntity@@@8 DD FLAT:??_7type_info@@6B@	; ioPlayEntity `RTTI Type Descriptor'
	DD	00H
	DB	'.?AVioPlayEntity@@', 00H
_DATA	ENDS
;	COMDAT ??_R1A@?0A@EA@ioPlayEntity@@8
rdata$r	SEGMENT
??_R1A@?0A@EA@ioPlayEntity@@8 DD FLAT:??_R0?AVioPlayEntity@@@8 ; ioPlayEntity::`RTTI Base Class Descriptor at (0,-1,0,64)'
	DD	02H
	DD	00H
	DD	0ffffffffH
	DD	00H
	DD	040H
	DD	FLAT:??_R3ioPlayEntity@@8
rdata$r	ENDS
;	COMDAT ??_R1A@?0A@EA@ioRoulette@@8
rdata$r	SEGMENT
??_R1A@?0A@EA@ioRoulette@@8 DD FLAT:??_R0?AVioRoulette@@@8 ; ioRoulette::`RTTI Base Class Descriptor at (0,-1,0,64)'
	DD	04H
	DD	00H
	DD	0ffffffffH
	DD	00H
	DD	040H
	DD	FLAT:??_R3ioRoulette@@8
rdata$r	ENDS
;	COMDAT ??_R2ioRoulette@@8
rdata$r	SEGMENT
??_R2ioRoulette@@8 DD FLAT:??_R1A@?0A@EA@ioRoulette@@8	; ioRoulette::`RTTI Base Class Array'
	DD	FLAT:??_R1A@?0A@EA@ioPlayEntity@@8
	DD	FLAT:??_R1A@?0A@EA@ioGameEntity@@8
	DD	FLAT:??_R1A@?0A@EA@ioEntityEvent@@8
	DD	FLAT:??_R1BMI@?0A@EA@ioWorldEventReceiver@@8
rdata$r	ENDS
;	COMDAT ??_R3ioRoulette@@8
rdata$r	SEGMENT
??_R3ioRoulette@@8 DD 00H				; ioRoulette::`RTTI Class Hierarchy Descriptor'
	DD	01H
	DD	05H
	DD	FLAT:??_R2ioRoulette@@8
rdata$r	ENDS
;	COMDAT ??_R0?AVioRoulette@@@8
_DATA	SEGMENT
??_R0?AVioRoulette@@@8 DD FLAT:??_7type_info@@6B@	; ioRoulette `RTTI Type Descriptor'
	DD	00H
	DB	'.?AVioRoulette@@', 00H
_DATA	ENDS
;	COMDAT ??_R4ioRoulette@@6BioPlayEntity@@@
rdata$r	SEGMENT
??_R4ioRoulette@@6BioPlayEntity@@@ DD 00H		; ioRoulette::`RTTI Complete Object Locator'
	DD	00H
	DD	00H
	DD	FLAT:??_R0?AVioRoulette@@@8
	DD	FLAT:??_R3ioRoulette@@8
rdata$r	ENDS
;	COMDAT ??_7ioRoulette@@6BioWorldEventReceiver@@@
CONST	SEGMENT
??_7ioRoulette@@6BioWorldEventReceiver@@@ DD FLAT:??_R4ioRoulette@@6BioWorldEventReceiver@@@ ; ioRoulette::`vftable'
	DD	FLAT:?OnTelepotation@ioRoulette@@UAEXABUD3DXVECTOR3@@@Z
	DD	FLAT:?OnFireZoneDamage@ioRoulette@@UAEXMABVioHashString@@@Z
	DD	FLAT:?OnPoisonZoneDamage@ioRoulette@@UAEXXZ
	DD	FLAT:??_EioRoulette@@WBMI@AEPAXI@Z
CONST	ENDS
;	COMDAT ??_7ioRoulette@@6BioPlayEntity@@@
CONST	SEGMENT
??_7ioRoulette@@6BioPlayEntity@@@ DD FLAT:??_R4ioRoulette@@6BioPlayEntity@@@ ; ioRoulette::`vftable'
	DD	FLAT:?AddEntityEvent@ioEntityEvent@@UAEXPAVioEntity@@@Z
	DD	FLAT:??_EioRoulette@@UAEPAXI@Z
	DD	FLAT:?Update@ioRoulette@@UAEXMKK@Z
	DD	FLAT:?UpdateAfter@ioRoulette@@UAEXM@Z
	DD	FLAT:?GetTypeID@ioPlayEntity@@UBEHXZ
	DD	FLAT:?IsNeedCheckMapCollision@ioRoulette@@UBE_NXZ
	DD	FLAT:?IsMountAvailable@ioRoulette@@UBE_NXZ
	DD	FLAT:?IsMountingAvailable@ioRoulette@@UBE_NXZ
	DD	FLAT:?IsNowMountEnable@ioRoulette@@UBE_NXZ
	DD	FLAT:?IsAllWeaponDefence@ioGameEntity@@UBE_NXZ
	DD	FLAT:?HasEntity@ioGameEntity@@UAE_NABVioHashString@@@Z
	DD	FLAT:?AddEntity@ioGameEntity@@UAEPAVioEntity@@ABVioHashString@@@Z
	DD	FLAT:?DestroyEntity@ioGameEntity@@UAE_NABVioHashString@@@Z
	DD	FLAT:?GetEntity@ioGameEntity@@UAEPAVioEntity@@ABVioHashString@@@Z
	DD	FLAT:?UpdateBound@ioGameEntity@@MBEXXZ
	DD	FLAT:?UpdateBottomHeight@ioRoulette@@MBEXXZ
	DD	FLAT:?NeedUpdateBottomHeight@ioGameEntity@@UAEXXZ
	DD	FLAT:?SetWorldPosition@ioGameEntity@@UAEXABUD3DXVECTOR3@@@Z
	DD	FLAT:?SetWorldOrientation@ioGameEntity@@UAEXABUD3DXQUATERNION@@@Z
	DD	FLAT:?SetWorldScale@ioGameEntity@@UAEXABUD3DXVECTOR3@@@Z
	DD	FLAT:?Translate@ioGameEntity@@UAEXABUD3DXVECTOR3@@@Z
	DD	FLAT:?TranslateByConveyer@ioGameEntity@@UAEXABUD3DXVECTOR3@@@Z
	DD	FLAT:?TranslateByWorldEntity@ioGameEntity@@UAEXABUD3DXVECTOR3@@@Z
	DD	FLAT:?MapCollisionPushingTranslate@ioGameEntity@@UAEXABUD3DXVECTOR3@@@Z
	DD	FLAT:?DontMoveCollisionPushingTranslate@ioGameEntity@@UAEXPAV1@ABUD3DXVECTOR3@@@Z
	DD	FLAT:?Rotate@ioGameEntity@@UAEXABUD3DXVECTOR3@@MW4TransformSpace@ioNode@@@Z
	DD	FLAT:?Scale@ioGameEntity@@UAEXMMM@Z
	DD	FLAT:?Scale@ioGameEntity@@UAEXABUD3DXVECTOR3@@@Z
	DD	FLAT:?GetWorldPosition@ioGameEntity@@UBEABUD3DXVECTOR3@@XZ
	DD	FLAT:?GetWorldOrientation@ioGameEntity@@UBEABUD3DXQUATERNION@@XZ
	DD	FLAT:?GetWorldScale@ioGameEntity@@UBEABUD3DXVECTOR3@@XZ
	DD	FLAT:?ApplyWeapon@ioRoulette@@UAE?AW4ApplyWeaponExp@@PAVioWeapon@@@Z
	DD	FLAT:?IsCollisionAvailableWeapon@ioRoulette@@UAE_NPAVioWeapon@@@Z
	DD	FLAT:?IsCollisionAvailableRange@ioPlayEntity@@UAE_NPAVioWeapon@@@Z
	DD	FLAT:?IsEntityCollisionSkipState@ioRoulette@@UBE_NPAVioGameEntity@@@Z
	DD	FLAT:?IsCharCollisionSkipState@ioPlayEntity@@UBE_NW4TeamType@@H@Z
	DD	FLAT:?IsWoundedCollision@ioPlayEntity@@UBE_NABVioOrientBox@@PAUD3DXVECTOR3@@@Z
	DD	FLAT:?GetAttackCollisionBox@ioPlayEntity@@UAE?AVioOrientBox@@W4AniCollisionType@@_N@Z
	DD	FLAT:?CheckSphereDistance@ioPlayEntity@@UBE_NABUD3DXVECTOR3@@MAAM@Z
	DD	FLAT:?CheckSpherePoint@ioPlayEntity@@UBE_NABUD3DXVECTOR3@@MAAU2@@Z
	DD	FLAT:?CheckCylinderPoint@ioPlayEntity@@UBE_NABVioCylinder@@ABUD3DXVECTOR3@@AAU3@@Z
	DD	FLAT:?GetSubType@ioRoulette@@UBE?AW4PlaySubType@ioPlayEntity@@XZ
	DD	FLAT:?GetArmorType@ioRoulette@@UBE?AW4ArmorType@@XZ
	DD	FLAT:?DontMoveEntityLevel@ioRoulette@@UBEHXZ
	DD	FLAT:?NotifyDontMoveCollisionPushingSkip@ioPlayEntity@@UAEXPAVioGameEntity@@@Z
	DD	FLAT:?LoadProperty@ioRoulette@@UAEXAAVioINILoader@@@Z
	DD	FLAT:?GetWorldEventReceiver@ioRoulette@@UAEPAVioWorldEventReceiver@@XZ
	DD	FLAT:?Revival@ioPlayEntity@@UAEXXZ
	DD	FLAT:?UpdateGauge@ioPlayEntity@@UAEXXZ
	DD	FLAT:?RenderGauge@ioPlayEntity@@UAEXXZ
	DD	FLAT:?FillMaxHP@ioPlayEntity@@UAEXXZ
	DD	FLAT:?ProcessRecovery@ioPlayEntity@@MAEXXZ
	DD	FLAT:?AddHeadDamageInfo@ioPlayEntity@@UAEXH_N@Z
	DD	FLAT:?RenderHeadInfoList@ioPlayEntity@@UAEXHH@Z
	DD	FLAT:?UpdateHeadInfoList@ioPlayEntity@@MAEXK@Z
	DD	FLAT:?SetTeam@ioPlayEntity@@UAEXW4TeamType@@@Z
CONST	ENDS
;	COMDAT xdata$x
xdata$x	SEGMENT
__unwindtable$??0ioRoulette@@QAE@PAVioEntityGroup@@PAVioPlayMode@@@Z DD 0ffffffffH
	DD	FLAT:__unwindfunclet$??0ioRoulette@@QAE@PAVioEntityGroup@@PAVioPlayMode@@@Z$0
	DD	00H
	DD	FLAT:__unwindfunclet$??0ioRoulette@@QAE@PAVioEntityGroup@@PAVioPlayMode@@@Z$1
	DD	01H
	DD	FLAT:__unwindfunclet$??0ioRoulette@@QAE@PAVioEntityGroup@@PAVioPlayMode@@@Z$2
__ehfuncinfo$??0ioRoulette@@QAE@PAVioEntityGroup@@PAVioPlayMode@@@Z DD 019930522H
	DD	03H
	DD	FLAT:__unwindtable$??0ioRoulette@@QAE@PAVioEntityGroup@@PAVioPlayMode@@@Z
	DD	2 DUP(00H)
	DD	2 DUP(00H)
	DD	00H
	DD	01H
; Function compile flags: /Ogsp
; File d:\lost saga for developer\youtube\tutorial\source\src\lsclient\ioroulette.cpp
xdata$x	ENDS
;	COMDAT ??0ioRoulette@@QAE@PAVioEntityGroup@@PAVioPlayMode@@@Z
_TEXT	SEGMENT
_this$ = -16						; size = 4
__$EHRec$ = -12						; size = 12
_pGrp$ = 8						; size = 4
$T531365 = 12						; size = 4
$T531368 = 12						; size = 4
_pMode$ = 12						; size = 4
??0ioRoulette@@QAE@PAVioEntityGroup@@PAVioPlayMode@@@Z PROC ; ioRoulette::ioRoulette, COMDAT
; _this$ = ecx

; 11   : {

  00000	6a 04		 push	 4
  00002	b8 00 00 00 00	 mov	 eax, __ehhandler$??0ioRoulette@@QAE@PAVioEntityGroup@@PAVioPlayMode@@@Z
  00007	e8 00 00 00 00	 call	 __EH_prolog3
  0000c	8b d9		 mov	 ebx, ecx
  0000e	89 5d f0	 mov	 DWORD PTR _this$[ebp], ebx
  00011	ff 75 0c	 push	 DWORD PTR _pMode$[ebp]
  00014	ff 75 08	 push	 DWORD PTR _pGrp$[ebp]
  00017	e8 00 00 00 00	 call	 ??0ioPlayEntity@@QAE@PAVioEntityGroup@@PAVioPlayMode@@@Z ; ioPlayEntity::ioPlayEntity
  0001c	83 65 fc 00	 and	 DWORD PTR __$EHRec$[ebp+8], 0
  00020	c7 83 c8 01 00
	00 00 00 00 00	 mov	 DWORD PTR [ebx+456], OFFSET ??_7ioWorldEventReceiver@@6B@
  0002a	8d 8b f0 01 00
	00		 lea	 ecx, DWORD PTR [ebx+496]
  00030	51		 push	 ecx
  00031	89 65 0c	 mov	 DWORD PTR $T531368[ebp], esp
  00034	c6 45 fc 01	 mov	 BYTE PTR __$EHRec$[ebp+8], 1
  00038	c7 03 00 00 00
	00		 mov	 DWORD PTR [ebx], OFFSET ??_7ioRoulette@@6BioPlayEntity@@@
  0003e	c7 83 c8 01 00
	00 00 00 00 00	 mov	 DWORD PTR [ebx+456], OFFSET ??_7ioRoulette@@6BioWorldEventReceiver@@@
  00048	89 65 0c	 mov	 DWORD PTR $T531365[ebp], esp
  0004b	e8 00 00 00 00	 call	 ??0?$_List_val@UOutLineRecord@@V?$allocator@UOutLineRecord@@@std@@@std@@QAE@V?$allocator@UOutLineRecord@@@1@@Z ; std::_List_val<OutLineRecord,std::allocator<OutLineRecord> >::_List_val<OutLineRecord,std::allocator<OutLineRecord> >

; 12   : 	m_bReserveDestroy = false;

  00050	c6 83 d4 01 00
	00 00		 mov	 BYTE PTR [ebx+468], 0

; 13   : 
; 14   : 	m_vRollAxis = ioMath::UNIT_Z;

  00057	8b 35 00 00 00
	00		 mov	 esi, DWORD PTR __imp_?UNIT_Z@ioMath@@2UD3DXVECTOR3@@A
  0005d	8d bb e4 01 00
	00		 lea	 edi, DWORD PTR [ebx+484]
  00063	a5		 movsd
  00064	a5		 movsd
  00065	a5		 movsd

; 15   : 	m_ArmorType = AT_UNARMOR;

  00066	83 a3 e0 01 00
	00 00		 and	 DWORD PTR [ebx+480], 0
  0006d	c6 45 fc 02	 mov	 BYTE PTR __$EHRec$[ebp+8], 2

; 16   : 	m_dwProcessTime = FRAMEGETTIME();

  00071	ff 15 00 00 00
	00		 call	 DWORD PTR __imp_?GetSingleton@ioFrameTimer@@SAAAV1@XZ
  00077	8b c8		 mov	 ecx, eax
  00079	ff 15 00 00 00
	00		 call	 DWORD PTR __imp_?GetLoopSec@ioFrameTimer@@QBEKXZ
  0007f	89 83 dc 01 00
	00		 mov	 DWORD PTR [ebx+476], eax

; 17   : }

  00085	8b c3		 mov	 eax, ebx
  00087	e8 00 00 00 00	 call	 __EH_epilog3
  0008c	c2 08 00	 ret	 8
_TEXT	ENDS
;	COMDAT text$x
text$x	SEGMENT
__unwindfunclet$??0ioRoulette@@QAE@PAVioEntityGroup@@PAVioPlayMode@@@Z$0:
  00000	8b 4d f0	 mov	 ecx, DWORD PTR _this$[ebp]
  00003	e9 00 00 00 00	 jmp	 ??1ioPlayEntity@@UAE@XZ	; ioPlayEntity::~ioPlayEntity
__unwindfunclet$??0ioRoulette@@QAE@PAVioEntityGroup@@PAVioPlayMode@@@Z$1:
  00008	8b 4d f0	 mov	 ecx, DWORD PTR _this$[ebp]
  0000b	81 c1 c8 01 00
	00		 add	 ecx, 456		; 000001c8H
  00011	e9 00 00 00 00	 jmp	 ??1ioWorldEventReceiver@@UAE@XZ ; ioWorldEventReceiver::~ioWorldEventReceiver
__unwindfunclet$??0ioRoulette@@QAE@PAVioEntityGroup@@PAVioPlayMode@@@Z$2:
  00016	8b 4d f0	 mov	 ecx, DWORD PTR _this$[ebp]
  00019	81 c1 f0 01 00
	00		 add	 ecx, 496		; 000001f0H
  0001f	e9 00 00 00 00	 jmp	 ??1?$list@UOutLineRecord@@V?$allocator@UOutLineRecord@@@std@@@std@@QAE@XZ ; std::list<OutLineRecord,std::allocator<OutLineRecord> >::~list<OutLineRecord,std::allocator<OutLineRecord> >
__ehhandler$??0ioRoulette@@QAE@PAVioEntityGroup@@PAVioPlayMode@@@Z:
  00024	8b 54 24 08	 mov	 edx, DWORD PTR [esp+8]
  00028	8d 42 0c	 lea	 eax, DWORD PTR [edx+12]
  0002b	8b 4a ec	 mov	 ecx, DWORD PTR [edx-20]
  0002e	33 c8		 xor	 ecx, eax
  00030	e8 00 00 00 00	 call	 @__security_check_cookie@4
  00035	b8 00 00 00 00	 mov	 eax, OFFSET __ehfuncinfo$??0ioRoulette@@QAE@PAVioEntityGroup@@PAVioPlayMode@@@Z
  0003a	e9 00 00 00 00	 jmp	 ___CxxFrameHandler3
text$x	ENDS
??0ioRoulette@@QAE@PAVioEntityGroup@@PAVioPlayMode@@@Z ENDP ; ioRoulette::ioRoulette
; Function compile flags: /Odsp
;	COMDAT ??_EioRoulette@@WBMI@AEPAXI@Z
_TEXT	SEGMENT
??_EioRoulette@@WBMI@AEPAXI@Z PROC			; [thunk]:ioRoulette::`vector deleting destructor', COMDAT
  00000	81 e9 c8 01 00
	00		 sub	 ecx, 456		; 000001c8H
  00006	e9 00 00 00 00	 jmp	 ??_EioRoulette@@UAEPAXI@Z
??_EioRoulette@@WBMI@AEPAXI@Z ENDP			; [thunk]:ioRoulette::`vector deleting destructor'
; Function compile flags: /Ogsp
; File d:\lost saga for developer\youtube\tutorial\source\src\lsclient\iogameentity.h
_TEXT	ENDS
;	COMDAT ?NeedUpdateBottomHeight@ioGameEntity@@UAEXXZ
_TEXT	SEGMENT
?NeedUpdateBottomHeight@ioGameEntity@@UAEXXZ PROC	; ioGameEntity::NeedUpdateBottomHeight, COMDAT
; _this$ = ecx

; 133  : 	virtual void NeedUpdateBottomHeight() { m_bNeedUpdateBottomHeight = true; }

  00000	c6 81 89 00 00
	00 01		 mov	 BYTE PTR [ecx+137], 1
  00007	c3		 ret	 0
?NeedUpdateBottomHeight@ioGameEntity@@UAEXXZ ENDP	; ioGameEntity::NeedUpdateBottomHeight
_TEXT	ENDS
PUBLIC	?EncryptValueToPool@?$CEncrypt@W4TeamType@@@@AAEXPBD@Z ; CEncrypt<enum TeamType>::EncryptValueToPool
EXTRN	?EncryptByte@ccddaabb@@QAEXPBDPADH@Z:PROC	; ccddaabb::EncryptByte
; Function compile flags: /Ogsp
; File d:\lost saga for developer\youtube\tutorial\source\src\lsclient\encryptvalue.h
;	COMDAT ?EncryptValueToPool@?$CEncrypt@W4TeamType@@@@AAEXPBD@Z
_TEXT	SEGMENT
_value$ = 8						; size = 4
?EncryptValueToPool@?$CEncrypt@W4TeamType@@@@AAEXPBD@Z PROC ; CEncrypt<enum TeamType>::EncryptValueToPool, COMDAT
; _this$ = ecx

; 67   : 	{

  00000	55		 push	 ebp
  00001	8b ec		 mov	 ebp, esp

; 68   : 		m_RC5.EncryptByte( value, m_MemPool, max(m_ValueSize, DEFAULT_ENCRYPT) );

  00003	0f b7 41 06	 movzx	 eax, WORD PTR [ecx+6]
  00007	83 f8 04	 cmp	 eax, 4
  0000a	77 03		 ja	 SHORT $LN4@EncryptVal
  0000c	6a 04		 push	 4
  0000e	58		 pop	 eax
$LN4@EncryptVal:
  0000f	50		 push	 eax
  00010	8d 41 1c	 lea	 eax, DWORD PTR [ecx+28]
  00013	50		 push	 eax
  00014	ff 75 08	 push	 DWORD PTR _value$[ebp]
  00017	83 c1 0c	 add	 ecx, 12			; 0000000cH
  0001a	e8 00 00 00 00	 call	 ?EncryptByte@ccddaabb@@QAEXPBDPADH@Z ; ccddaabb::EncryptByte

; 69   : 		
; 70   : 	}

  0001f	5d		 pop	 ebp
  00020	c2 04 00	 ret	 4
?EncryptValueToPool@?$CEncrypt@W4TeamType@@@@AAEXPBD@Z ENDP ; CEncrypt<enum TeamType>::EncryptValueToPool
_TEXT	ENDS
PUBLIC	??4?$CEncrypt@W4TeamType@@@@QAE?AW4TeamType@@W41@@Z ; CEncrypt<enum TeamType>::operator=
; Function compile flags: /Ogsp
;	COMDAT ??4?$CEncrypt@W4TeamType@@@@QAE?AW4TeamType@@W41@@Z
_TEXT	SEGMENT
_value$ = 8						; size = 4
_inValue$ = 8						; size = 4
??4?$CEncrypt@W4TeamType@@@@QAE?AW4TeamType@@W41@@Z PROC ; CEncrypt<enum TeamType>::operator=, COMDAT
; _this$ = ecx

; 2965 : 	{

  00000	55		 push	 ebp
  00001	8b ec		 mov	 ebp, esp

; 2966 : 		type value = inValue;

  00003	8b 45 08	 mov	 eax, DWORD PTR _inValue$[ebp]
  00006	89 45 08	 mov	 DWORD PTR _value$[ebp], eax

; 2967 : 		EncryptValueToPool((char*)&value);

  00009	8d 45 08	 lea	 eax, DWORD PTR _value$[ebp]
  0000c	50		 push	 eax
  0000d	e8 00 00 00 00	 call	 ?EncryptValueToPool@?$CEncrypt@W4TeamType@@@@AAEXPBD@Z ; CEncrypt<enum TeamType>::EncryptValueToPool

; 2968 : #ifdef _NOTUSE
; 2969 : 		m_value = inValue;
; 2970 : 		Debug();
; 2971 : #endif
; 2972 : 		return value;

  00012	8b 45 08	 mov	 eax, DWORD PTR _value$[ebp]

; 2973 : 	}

  00015	5d		 pop	 ebp
  00016	c2 04 00	 ret	 4
??4?$CEncrypt@W4TeamType@@@@QAE?AW4TeamType@@W41@@Z ENDP ; CEncrypt<enum TeamType>::operator=
; Function compile flags: /Ogsp
; File d:\lost saga for developer\youtube\tutorial\source\src\lsclient\ioplayentity.h
_TEXT	ENDS
;	COMDAT ?SetTeam@ioPlayEntity@@UAEXW4TeamType@@@Z
_TEXT	SEGMENT
_value$531400 = 8					; size = 4
_eType$ = 8						; size = 4
?SetTeam@ioPlayEntity@@UAEXW4TeamType@@@Z PROC		; ioPlayEntity::SetTeam, COMDAT
; _this$ = ecx

; 106  : 	virtual void SetTeam( TeamType eType ) { m_TeamType = eType; }

  00000	55		 push	 ebp
  00001	8b ec		 mov	 ebp, esp
  00003	8b 45 08	 mov	 eax, DWORD PTR _eType$[ebp]
  00006	89 45 08	 mov	 DWORD PTR _value$531400[ebp], eax
  00009	8d 45 08	 lea	 eax, DWORD PTR _value$531400[ebp]
  0000c	50		 push	 eax
  0000d	81 c1 90 00 00
	00		 add	 ecx, 144		; 00000090H
  00013	e8 00 00 00 00	 call	 ?EncryptValueToPool@?$CEncrypt@W4TeamType@@@@AAEXPBD@Z ; CEncrypt<enum TeamType>::EncryptValueToPool
  00018	5d		 pop	 ebp
  00019	c2 04 00	 ret	 4
?SetTeam@ioPlayEntity@@UAEXW4TeamType@@@Z ENDP		; ioPlayEntity::SetTeam
_TEXT	ENDS
PUBLIC	??1ioRoulette@@UAE@XZ				; ioRoulette::~ioRoulette
; Function compile flags: /Ogsp
; File d:\lost saga for developer\youtube\tutorial\source\src\lsclient\ioroulette.cpp
;	COMDAT ??1ioRoulette@@UAE@XZ
_TEXT	SEGMENT
??1ioRoulette@@UAE@XZ PROC				; ioRoulette::~ioRoulette, COMDAT
; _this$ = ecx

; 20   : {

  00000	53		 push	 ebx
  00001	56		 push	 esi
  00002	8b f1		 mov	 esi, ecx
  00004	57		 push	 edi

; 21   : }

  00005	8d 8e f0 01 00
	00		 lea	 ecx, DWORD PTR [esi+496]
  0000b	c7 06 00 00 00
	00		 mov	 DWORD PTR [esi], OFFSET ??_7ioRoulette@@6BioPlayEntity@@@
  00011	c7 86 c8 01 00
	00 00 00 00 00	 mov	 DWORD PTR [esi+456], OFFSET ??_7ioRoulette@@6BioWorldEventReceiver@@@
  0001b	e8 00 00 00 00	 call	 ?clear@?$list@UOutLineRecord@@V?$allocator@UOutLineRecord@@@std@@@std@@QAEXXZ ; std::list<OutLineRecord,std::allocator<OutLineRecord> >::clear
  00020	ff b6 f0 01 00
	00		 push	 DWORD PTR [esi+496]
  00026	e8 00 00 00 00	 call	 ??3@YAXPAX@Z		; operator delete
  0002b	59		 pop	 ecx
  0002c	5f		 pop	 edi
  0002d	c7 86 c8 01 00
	00 00 00 00 00	 mov	 DWORD PTR [esi+456], OFFSET ??_7ioWorldEventReceiver@@6B@
  00037	8b ce		 mov	 ecx, esi
  00039	5e		 pop	 esi
  0003a	5b		 pop	 ebx
  0003b	e9 00 00 00 00	 jmp	 ??1ioPlayEntity@@UAE@XZ	; ioPlayEntity::~ioPlayEntity
??1ioRoulette@@UAE@XZ ENDP				; ioRoulette::~ioRoulette
; Function compile flags: /Ogsp
_TEXT	ENDS
;	COMDAT ??_GioRoulette@@UAEPAXI@Z
_TEXT	SEGMENT
___flags$ = 8						; size = 4
??_GioRoulette@@UAEPAXI@Z PROC				; ioRoulette::`scalar deleting destructor', COMDAT
; _this$ = ecx
  00000	55		 push	 ebp
  00001	8b ec		 mov	 ebp, esp
  00003	56		 push	 esi
  00004	8b f1		 mov	 esi, ecx
  00006	e8 00 00 00 00	 call	 ??1ioRoulette@@UAE@XZ	; ioRoulette::~ioRoulette
  0000b	f6 45 08 01	 test	 BYTE PTR ___flags$[ebp], 1
  0000f	74 07		 je	 SHORT $LN1@scalar@3
  00011	56		 push	 esi
  00012	e8 00 00 00 00	 call	 ??3@YAXPAX@Z		; operator delete
  00017	59		 pop	 ecx
$LN1@scalar@3:
  00018	8b c6		 mov	 eax, esi
  0001a	5e		 pop	 esi
  0001b	5d		 pop	 ebp
  0001c	c2 04 00	 ret	 4
??_GioRoulette@@UAEPAXI@Z ENDP				; ioRoulette::`scalar deleting destructor'
_TEXT	ENDS
END
