; Listing generated by Microsoft (R) Optimizing Compiler Version 16.00.30319.01 

	TITLE	D:\Lost Saga For Developer\Youtube\Tutorial\Source\src\LSClient\ioRobinExpansionItem.cpp
	.686P
	.XMM
	include listing.inc
	.model	flat

INCLUDELIB MSVCRT
INCLUDELIB OLDNAMES

PUBLIC	?return5@@YAIXZ					; return5
; Function compile flags: /Ogsp
; File d:\lost saga for developer\youtube\tutorial\source\src\lsclient\stdafx.h
;	COMDAT ?return5@@YAIXZ
_TEXT	SEGMENT
?return5@@YAIXZ PROC					; return5, COMDAT

; 18   : 	__forceinline unsigned int return5() { __asm mov eax, 5 };

  00000	b8 05 00 00 00	 mov	 eax, 5
  00005	c3		 ret	 0
?return5@@YAIXZ ENDP					; return5
_TEXT	ENDS
PUBLIC	?return10@@YAIXZ				; return10
; Function compile flags: /Ogsp
;	COMDAT ?return10@@YAIXZ
_TEXT	SEGMENT
?return10@@YAIXZ PROC					; return10, COMDAT

; 21   : 	__forceinline unsigned int return10() { __asm mov eax, 10 };

  00000	b8 0a 00 00 00	 mov	 eax, 10			; 0000000aH
  00005	c3		 ret	 0
?return10@@YAIXZ ENDP					; return10
_TEXT	ENDS
PUBLIC	?GetBlowStopMotionState@ioBaseChar@@QBE_NXZ	; ioBaseChar::GetBlowStopMotionState
; Function compile flags: /Ogsp
; File d:\lost saga for developer\youtube\tutorial\source\src\lsclient\iobasechar.h
;	COMDAT ?GetBlowStopMotionState@ioBaseChar@@QBE_NXZ
_TEXT	SEGMENT
?GetBlowStopMotionState@ioBaseChar@@QBE_NXZ PROC	; ioBaseChar::GetBlowStopMotionState, COMDAT
; _this$ = ecx

; 1566 : 	inline bool GetBlowStopMotionState() const { return m_bBlowStopMotion; }

  00000	8a 81 c7 15 00
	00		 mov	 al, BYTE PTR [ecx+5575]
  00006	c3		 ret	 0
?GetBlowStopMotionState@ioBaseChar@@QBE_NXZ ENDP	; ioBaseChar::GetBlowStopMotionState
_TEXT	ENDS
PUBLIC	?GetBlowFrozenState@ioBaseChar@@QBE_NXZ		; ioBaseChar::GetBlowFrozenState
; Function compile flags: /Ogsp
;	COMDAT ?GetBlowFrozenState@ioBaseChar@@QBE_NXZ
_TEXT	SEGMENT
?GetBlowFrozenState@ioBaseChar@@QBE_NXZ PROC		; ioBaseChar::GetBlowFrozenState, COMDAT
; _this$ = ecx

; 1571 : 	inline bool GetBlowFrozenState() const { return m_bBlowFrozenState; }

  00000	8a 81 c5 15 00
	00		 mov	 al, BYTE PTR [ecx+5573]
  00006	c3		 ret	 0
?GetBlowFrozenState@ioBaseChar@@QBE_NXZ ENDP		; ioBaseChar::GetBlowFrozenState
_TEXT	ENDS
PUBLIC	?GetState@ioBaseChar@@QBE?AW4CharState@@XZ	; ioBaseChar::GetState
; Function compile flags: /Ogsp
;	COMDAT ?GetState@ioBaseChar@@QBE?AW4CharState@@XZ
_TEXT	SEGMENT
?GetState@ioBaseChar@@QBE?AW4CharState@@XZ PROC		; ioBaseChar::GetState, COMDAT
; _this$ = ecx

; 2156 : 	inline CharState GetState() const { return m_CharState; }	

  00000	8a 81 10 03 00
	00		 mov	 al, BYTE PTR [ecx+784]
  00006	c3		 ret	 0
?GetState@ioBaseChar@@QBE?AW4CharState@@XZ ENDP		; ioBaseChar::GetState
_TEXT	ENDS
PUBLIC	?GetActionStopTotalDelay@ioBaseChar@@QBEKXZ	; ioBaseChar::GetActionStopTotalDelay
; Function compile flags: /Ogsp
;	COMDAT ?GetActionStopTotalDelay@ioBaseChar@@QBEKXZ
_TEXT	SEGMENT
?GetActionStopTotalDelay@ioBaseChar@@QBEKXZ PROC	; ioBaseChar::GetActionStopTotalDelay, COMDAT
; _this$ = ecx

; 2399 : 	DWORD GetActionStopTotalDelay() const { return m_dwActionStopTotalDelay; }	// kaseton : action delay

  00000	8b 81 b8 15 00
	00		 mov	 eax, DWORD PTR [ecx+5560]
  00006	c3		 ret	 0
?GetActionStopTotalDelay@ioBaseChar@@QBEKXZ ENDP	; ioBaseChar::GetActionStopTotalDelay
_TEXT	ENDS
PUBLIC	?GetCharName@ioBaseChar@@QBEABVioHashString@@XZ	; ioBaseChar::GetCharName
; Function compile flags: /Ogsp
;	COMDAT ?GetCharName@ioBaseChar@@QBEABVioHashString@@XZ
_TEXT	SEGMENT
?GetCharName@ioBaseChar@@QBEABVioHashString@@XZ PROC	; ioBaseChar::GetCharName, COMDAT
; _this$ = ecx

; 2594 : 	inline const ioHashString& GetCharName() const { return m_Name; }

  00000	8d 81 d4 02 00
	00		 lea	 eax, DWORD PTR [ecx+724]
  00006	c3		 ret	 0
?GetCharName@ioBaseChar@@QBEABVioHashString@@XZ ENDP	; ioBaseChar::GetCharName
_TEXT	ENDS
PUBLIC	?GetMoveDir@ioBaseChar@@QBEABUD3DXVECTOR3@@XZ	; ioBaseChar::GetMoveDir
; Function compile flags: /Ogsp
;	COMDAT ?GetMoveDir@ioBaseChar@@QBEABUD3DXVECTOR3@@XZ
_TEXT	SEGMENT
?GetMoveDir@ioBaseChar@@QBEABUD3DXVECTOR3@@XZ PROC	; ioBaseChar::GetMoveDir, COMDAT
; _this$ = ecx

; 2596 : 	inline const D3DXVECTOR3& GetMoveDir() const { return m_vMoveDir; }

  00000	8d 81 b4 06 00
	00		 lea	 eax, DWORD PTR [ecx+1716]
  00006	c3		 ret	 0
?GetMoveDir@ioBaseChar@@QBEABUD3DXVECTOR3@@XZ ENDP	; ioBaseChar::GetMoveDir
_TEXT	ENDS
PUBLIC	?GetTargetRot@ioBaseChar@@QBEABUD3DXQUATERNION@@XZ ; ioBaseChar::GetTargetRot
; Function compile flags: /Ogsp
;	COMDAT ?GetTargetRot@ioBaseChar@@QBEABUD3DXQUATERNION@@XZ
_TEXT	SEGMENT
?GetTargetRot@ioBaseChar@@QBEABUD3DXQUATERNION@@XZ PROC	; ioBaseChar::GetTargetRot, COMDAT
; _this$ = ecx

; 2599 : 	inline const D3DXQUATERNION& GetTargetRot() const { return m_qtTargetRot; }

  00000	8d 81 a4 06 00
	00		 lea	 eax, DWORD PTR [ecx+1700]
  00006	c3		 ret	 0
?GetTargetRot@ioBaseChar@@QBEABUD3DXQUATERNION@@XZ ENDP	; ioBaseChar::GetTargetRot
_TEXT	ENDS
PUBLIC	_fabsf
EXTRN	__fltused:DWORD
; Function compile flags: /Ogsp
; File c:\program files (x86)\microsoft visual studio 10.0\vc\include\math.h
;	COMDAT _fabsf
_TEXT	SEGMENT
tv129 = 8						; size = 4
__X$ = 8						; size = 4
_fabsf	PROC						; COMDAT

; 395  :         {return ((float)fabs((double)_X)); }

  00000	55		 push	 ebp
  00001	8b ec		 mov	 ebp, esp
  00003	d9 45 08	 fld	 DWORD PTR __X$[ebp]
  00006	d9 e1		 fabs
  00008	d9 5d 08	 fstp	 DWORD PTR tv129[ebp]
  0000b	d9 45 08	 fld	 DWORD PTR tv129[ebp]
  0000e	5d		 pop	 ebp
  0000f	c3		 ret	 0
_fabsf	ENDP
_TEXT	ENDS
PUBLIC	_acosf
EXTRN	__CIacos:PROC
; Function compile flags: /Ogsp
;	COMDAT _acosf
_TEXT	SEGMENT
tv69 = 8						; size = 4
__X$ = 8						; size = 4
_acosf	PROC						; COMDAT

; 400  :         {return ((float)acos((double)_X)); }

  00000	55		 push	 ebp
  00001	8b ec		 mov	 ebp, esp
  00003	d9 45 08	 fld	 DWORD PTR __X$[ebp]
  00006	e8 00 00 00 00	 call	 __CIacos
  0000b	d9 5d 08	 fstp	 DWORD PTR tv69[ebp]
  0000e	d9 45 08	 fld	 DWORD PTR tv69[ebp]
  00011	5d		 pop	 ebp
  00012	c3		 ret	 0
_acosf	ENDP
_TEXT	ENDS
PUBLIC	_cosf
EXTRN	__CIcos:PROC
; Function compile flags: /Ogsp
;	COMDAT _cosf
_TEXT	SEGMENT
tv69 = 8						; size = 4
__X$ = 8						; size = 4
_cosf	PROC						; COMDAT

; 410  :         {return ((float)cos((double)_X)); }

  00000	55		 push	 ebp
  00001	8b ec		 mov	 ebp, esp
  00003	d9 45 08	 fld	 DWORD PTR __X$[ebp]
  00006	e8 00 00 00 00	 call	 __CIcos
  0000b	d9 5d 08	 fstp	 DWORD PTR tv69[ebp]
  0000e	d9 45 08	 fld	 DWORD PTR tv69[ebp]
  00011	5d		 pop	 ebp
  00012	c3		 ret	 0
_cosf	ENDP
_TEXT	ENDS
PUBLIC	?fabs@@YAMM@Z					; fabs
; Function compile flags: /Ogsp
;	COMDAT ?fabs@@YAMM@Z
_TEXT	SEGMENT
tv131 = 8						; size = 4
__X$ = 8						; size = 4
?fabs@@YAMM@Z PROC					; fabs, COMDAT

; 518  :         {return (fabsf(_X)); }

  00000	55		 push	 ebp
  00001	8b ec		 mov	 ebp, esp
  00003	d9 45 08	 fld	 DWORD PTR __X$[ebp]
  00006	d9 e1		 fabs
  00008	d9 5d 08	 fstp	 DWORD PTR tv131[ebp]
  0000b	d9 45 08	 fld	 DWORD PTR tv131[ebp]
  0000e	5d		 pop	 ebp
  0000f	c3		 ret	 0
?fabs@@YAMM@Z ENDP					; fabs
_TEXT	ENDS
PUBLIC	?SetChargingState@ioBaseChar@@QAEX_N@Z		; ioBaseChar::SetChargingState
; Function compile flags: /Ogsp
; File d:\lost saga for developer\youtube\tutorial\source\src\lsclient\iobasechar.h
;	COMDAT ?SetChargingState@ioBaseChar@@QAEX_N@Z
_TEXT	SEGMENT
_bState$ = 8						; size = 1
?SetChargingState@ioBaseChar@@QAEX_N@Z PROC		; ioBaseChar::SetChargingState, COMDAT
; _this$ = ecx

; 2937 : 	inline void SetChargingState( bool bState ) { m_bChargingState = bState; }

  00000	55		 push	 ebp
  00001	8b ec		 mov	 ebp, esp
  00003	8a 45 08	 mov	 al, BYTE PTR _bState$[ebp]
  00006	88 81 54 20 00
	00		 mov	 BYTE PTR [ecx+8276], al
  0000c	5d		 pop	 ebp
  0000d	c2 04 00	 ret	 4
?SetChargingState@ioBaseChar@@QAEX_N@Z ENDP		; ioBaseChar::SetChargingState
_TEXT	ENDS
PUBLIC	??_7bad_alloc@std@@6B@				; std::bad_alloc::`vftable'
PUBLIC	??0bad_alloc@std@@QAE@PBD@Z			; std::bad_alloc::bad_alloc
PUBLIC	??_R4bad_alloc@std@@6B@				; std::bad_alloc::`RTTI Complete Object Locator'
PUBLIC	??_R0?AVbad_alloc@std@@@8			; std::bad_alloc `RTTI Type Descriptor'
PUBLIC	??_R3bad_alloc@std@@8				; std::bad_alloc::`RTTI Class Hierarchy Descriptor'
PUBLIC	??_R2bad_alloc@std@@8				; std::bad_alloc::`RTTI Base Class Array'
PUBLIC	??_R1A@?0A@EA@bad_alloc@std@@8			; std::bad_alloc::`RTTI Base Class Descriptor at (0,-1,0,64)'
PUBLIC	??_R1A@?0A@EA@exception@std@@8			; std::exception::`RTTI Base Class Descriptor at (0,-1,0,64)'
PUBLIC	??_R0?AVexception@std@@@8			; std::exception `RTTI Type Descriptor'
PUBLIC	??_R3exception@std@@8				; std::exception::`RTTI Class Hierarchy Descriptor'
PUBLIC	??_R2exception@std@@8				; std::exception::`RTTI Base Class Array'
EXTRN	__imp_??0exception@std@@QAE@ABQBD@Z:PROC
EXTRN	??_7type_info@@6B@:QWORD			; type_info::`vftable'
EXTRN	??_Ebad_alloc@std@@UAEPAXI@Z:PROC		; std::bad_alloc::`vector deleting destructor'
EXTRN	?what@exception@std@@UBEPBDXZ:PROC		; std::exception::what
;	COMDAT ??_R2exception@std@@8
; File c:\program files (x86)\microsoft visual studio 10.0\vc\include\exception
rdata$r	SEGMENT
??_R2exception@std@@8 DD FLAT:??_R1A@?0A@EA@exception@std@@8 ; std::exception::`RTTI Base Class Array'
rdata$r	ENDS
;	COMDAT ??_R3exception@std@@8
rdata$r	SEGMENT
??_R3exception@std@@8 DD 00H				; std::exception::`RTTI Class Hierarchy Descriptor'
	DD	00H
	DD	01H
	DD	FLAT:??_R2exception@std@@8
rdata$r	ENDS
;	COMDAT ??_R0?AVexception@std@@@8
_DATA	SEGMENT
??_R0?AVexception@std@@@8 DD FLAT:??_7type_info@@6B@	; std::exception `RTTI Type Descriptor'
	DD	00H
	DB	'.?AVexception@std@@', 00H
_DATA	ENDS
;	COMDAT ??_R1A@?0A@EA@exception@std@@8
rdata$r	SEGMENT
??_R1A@?0A@EA@exception@std@@8 DD FLAT:??_R0?AVexception@std@@@8 ; std::exception::`RTTI Base Class Descriptor at (0,-1,0,64)'
	DD	00H
	DD	00H
	DD	0ffffffffH
	DD	00H
	DD	040H
	DD	FLAT:??_R3exception@std@@8
rdata$r	ENDS
;	COMDAT ??_R1A@?0A@EA@bad_alloc@std@@8
rdata$r	SEGMENT
??_R1A@?0A@EA@bad_alloc@std@@8 DD FLAT:??_R0?AVbad_alloc@std@@@8 ; std::bad_alloc::`RTTI Base Class Descriptor at (0,-1,0,64)'
	DD	01H
	DD	00H
	DD	0ffffffffH
	DD	00H
	DD	040H
	DD	FLAT:??_R3bad_alloc@std@@8
rdata$r	ENDS
;	COMDAT ??_R2bad_alloc@std@@8
rdata$r	SEGMENT
??_R2bad_alloc@std@@8 DD FLAT:??_R1A@?0A@EA@bad_alloc@std@@8 ; std::bad_alloc::`RTTI Base Class Array'
	DD	FLAT:??_R1A@?0A@EA@exception@std@@8
rdata$r	ENDS
;	COMDAT ??_R3bad_alloc@std@@8
rdata$r	SEGMENT
??_R3bad_alloc@std@@8 DD 00H				; std::bad_alloc::`RTTI Class Hierarchy Descriptor'
	DD	00H
	DD	02H
	DD	FLAT:??_R2bad_alloc@std@@8
rdata$r	ENDS
;	COMDAT ??_R0?AVbad_alloc@std@@@8
_DATA	SEGMENT
??_R0?AVbad_alloc@std@@@8 DD FLAT:??_7type_info@@6B@	; std::bad_alloc `RTTI Type Descriptor'
	DD	00H
	DB	'.?AVbad_alloc@std@@', 00H
_DATA	ENDS
;	COMDAT ??_R4bad_alloc@std@@6B@
rdata$r	SEGMENT
??_R4bad_alloc@std@@6B@ DD 00H				; std::bad_alloc::`RTTI Complete Object Locator'
	DD	00H
	DD	00H
	DD	FLAT:??_R0?AVbad_alloc@std@@@8
	DD	FLAT:??_R3bad_alloc@std@@8
rdata$r	ENDS
;	COMDAT ??_7bad_alloc@std@@6B@
CONST	SEGMENT
??_7bad_alloc@std@@6B@ DD FLAT:??_R4bad_alloc@std@@6B@	; std::bad_alloc::`vftable'
	DD	FLAT:??_Ebad_alloc@std@@UAEPAXI@Z
	DD	FLAT:?what@exception@std@@UBEPBDXZ
; Function compile flags: /Ogsp
CONST	ENDS
;	COMDAT ??0bad_alloc@std@@QAE@PBD@Z
_TEXT	SEGMENT
__Message$ = 8						; size = 4
??0bad_alloc@std@@QAE@PBD@Z PROC			; std::bad_alloc::bad_alloc, COMDAT
; _this$ = ecx

; 345  : 		{	// construct from message string

  00000	55		 push	 ebp
  00001	8b ec		 mov	 ebp, esp
  00003	56		 push	 esi
  00004	8d 45 08	 lea	 eax, DWORD PTR __Message$[ebp]
  00007	50		 push	 eax
  00008	8b f1		 mov	 esi, ecx
  0000a	ff 15 00 00 00
	00		 call	 DWORD PTR __imp_??0exception@std@@QAE@ABQBD@Z
  00010	c7 06 00 00 00
	00		 mov	 DWORD PTR [esi], OFFSET ??_7bad_alloc@std@@6B@

; 346  : 		}

  00016	8b c6		 mov	 eax, esi
  00018	5e		 pop	 esi
  00019	5d		 pop	 ebp
  0001a	c2 04 00	 ret	 4
??0bad_alloc@std@@QAE@PBD@Z ENDP			; std::bad_alloc::bad_alloc
_TEXT	ENDS
PUBLIC	??1bad_alloc@std@@UAE@XZ			; std::bad_alloc::~bad_alloc
EXTRN	__imp_??1exception@std@@UAE@XZ:PROC
; Function compile flags: /Ogsp
;	COMDAT ??1bad_alloc@std@@UAE@XZ
_TEXT	SEGMENT
??1bad_alloc@std@@UAE@XZ PROC				; std::bad_alloc::~bad_alloc, COMDAT
; _this$ = ecx

; 354  : 		{	// destroy the object

  00000	c7 01 00 00 00
	00		 mov	 DWORD PTR [ecx], OFFSET ??_7bad_alloc@std@@6B@

; 355  : 		}

  00006	ff 25 00 00 00
	00		 jmp	 DWORD PTR __imp_??1exception@std@@UAE@XZ
??1bad_alloc@std@@UAE@XZ ENDP				; std::bad_alloc::~bad_alloc
_TEXT	ENDS
EXTRN	??3@YAXPAX@Z:PROC				; operator delete
; Function compile flags: /Ogsp
;	COMDAT ??_Gbad_alloc@std@@UAEPAXI@Z
_TEXT	SEGMENT
___flags$ = 8						; size = 4
??_Gbad_alloc@std@@UAEPAXI@Z PROC			; std::bad_alloc::`scalar deleting destructor', COMDAT
; _this$ = ecx
  00000	55		 push	 ebp
  00001	8b ec		 mov	 ebp, esp
  00003	56		 push	 esi
  00004	8b f1		 mov	 esi, ecx
  00006	c7 06 00 00 00
	00		 mov	 DWORD PTR [esi], OFFSET ??_7bad_alloc@std@@6B@
  0000c	ff 15 00 00 00
	00		 call	 DWORD PTR __imp_??1exception@std@@UAE@XZ
  00012	f6 45 08 01	 test	 BYTE PTR ___flags$[ebp], 1
  00016	74 07		 je	 SHORT $LN1@scalar
  00018	56		 push	 esi
  00019	e8 00 00 00 00	 call	 ??3@YAXPAX@Z		; operator delete
  0001e	59		 pop	 ecx
$LN1@scalar:
  0001f	8b c6		 mov	 eax, esi
  00021	5e		 pop	 esi
  00022	5d		 pop	 ebp
  00023	c2 04 00	 ret	 4
??_Gbad_alloc@std@@UAEPAXI@Z ENDP			; std::bad_alloc::`scalar deleting destructor'
_TEXT	ENDS
PUBLIC	??2@YAPAXIPAX@Z					; operator new
; Function compile flags: /Ogsp
; File c:\program files (x86)\microsoft visual studio 10.0\vc\include\new
;	COMDAT ??2@YAPAXIPAX@Z
_TEXT	SEGMENT
___formal$ = 8						; size = 4
__Where$ = 12						; size = 4
??2@YAPAXIPAX@Z PROC					; operator new, COMDAT

; 56   : 	{	// construct array with placement at _Where

  00000	55		 push	 ebp
  00001	8b ec		 mov	 ebp, esp

; 57   : 	return (_Where);

  00003	8b 45 0c	 mov	 eax, DWORD PTR __Where$[ebp]

; 58   : 	}

  00006	5d		 pop	 ebp
  00007	c3		 ret	 0
??2@YAPAXIPAX@Z ENDP					; operator new
_TEXT	ENDS
PUBLIC	??3@YAXPAX0@Z					; operator delete
; Function compile flags: /Ogsp
;	COMDAT ??3@YAXPAX0@Z
_TEXT	SEGMENT
___formal$ = 8						; size = 4
___formal$ = 12						; size = 4
??3@YAXPAX0@Z PROC					; operator delete, COMDAT

; 62   : 	}

  00000	c3		 ret	 0
??3@YAXPAX0@Z ENDP					; operator delete
_TEXT	ENDS
PUBLIC	??_R0?AVioExtendJump@@@8			; ioExtendJump `RTTI Type Descriptor'
PUBLIC	??_R0?AVioRobinExpansionJump@@@8		; ioRobinExpansionJump `RTTI Type Descriptor'
PUBLIC	?ToRobinExpansionJump@@YAPAVioRobinExpansionJump@@PAVioExtendJump@@@Z ; ToRobinExpansionJump
EXTRN	___RTDynamicCast:PROC
;	COMDAT ??_R0?AVioExtendJump@@@8
; File d:\lost saga for developer\youtube\tutorial\source\src\lsclient\iorobinexpansionjump.h
_DATA	SEGMENT
??_R0?AVioExtendJump@@@8 DD FLAT:??_7type_info@@6B@	; ioExtendJump `RTTI Type Descriptor'
	DD	00H
	DB	'.?AVioExtendJump@@', 00H
_DATA	ENDS
;	COMDAT ??_R0?AVioRobinExpansionJump@@@8
_DATA	SEGMENT
??_R0?AVioRobinExpansionJump@@@8 DD FLAT:??_7type_info@@6B@ ; ioRobinExpansionJump `RTTI Type Descriptor'
	DD	00H
	DB	'.?AVioRobinExpansionJump@@', 00H
; Function compile flags: /Ogsp
_DATA	ENDS
;	COMDAT ?ToRobinExpansionJump@@YAPAVioRobinExpansionJump@@PAVioExtendJump@@@Z
_TEXT	SEGMENT
_pJump$ = 8						; size = 4
?ToRobinExpansionJump@@YAPAVioRobinExpansionJump@@PAVioExtendJump@@@Z PROC ; ToRobinExpansionJump, COMDAT

; 265  : {

  00000	55		 push	 ebp
  00001	8b ec		 mov	 ebp, esp
  00003	56		 push	 esi

; 266  : 	if( !pJump || pJump->GetType() != JT_ROBIN_EXPANSION_JUMP )

  00004	8b 75 08	 mov	 esi, DWORD PTR _pJump$[ebp]
  00007	85 f6		 test	 esi, esi
  00009	74 25		 je	 SHORT $LN1@ToRobinExp
  0000b	8b 06		 mov	 eax, DWORD PTR [esi]
  0000d	8b ce		 mov	 ecx, esi
  0000f	ff 50 08	 call	 DWORD PTR [eax+8]
  00012	83 f8 27	 cmp	 eax, 39			; 00000027H
  00015	75 19		 jne	 SHORT $LN1@ToRobinExp

; 268  : 
; 269  : 	return dynamic_cast< ioRobinExpansionJump* >( pJump );

  00017	6a 00		 push	 0
  00019	68 00 00 00 00	 push	 OFFSET ??_R0?AVioRobinExpansionJump@@@8
  0001e	68 00 00 00 00	 push	 OFFSET ??_R0?AVioExtendJump@@@8
  00023	6a 00		 push	 0
  00025	56		 push	 esi
  00026	e8 00 00 00 00	 call	 ___RTDynamicCast
  0002b	83 c4 14	 add	 esp, 20			; 00000014H
  0002e	eb 02		 jmp	 SHORT $LN3@ToRobinExp
$LN1@ToRobinExp:

; 267  : 		return NULL;

  00030	33 c0		 xor	 eax, eax
$LN3@ToRobinExp:
  00032	5e		 pop	 esi

; 270  : }

  00033	5d		 pop	 ebp
  00034	c3		 ret	 0
?ToRobinExpansionJump@@YAPAVioRobinExpansionJump@@PAVioExtendJump@@@Z ENDP ; ToRobinExpansionJump
_TEXT	ENDS
PUBLIC	??_R0?AVioWeapon@@@8				; ioWeapon `RTTI Type Descriptor'
PUBLIC	??_R0?AVioMissileWeapon@@@8			; ioMissileWeapon `RTTI Type Descriptor'
PUBLIC	?ToMissileWeapon@@YAPAVioMissileWeapon@@PAVioWeapon@@@Z ; ToMissileWeapon
;	COMDAT ??_R0?AVioWeapon@@@8
; File d:\lost saga for developer\youtube\tutorial\source\src\lsclient\iomissileweapon.h
_DATA	SEGMENT
??_R0?AVioWeapon@@@8 DD FLAT:??_7type_info@@6B@		; ioWeapon `RTTI Type Descriptor'
	DD	00H
	DB	'.?AVioWeapon@@', 00H
_DATA	ENDS
;	COMDAT ??_R0?AVioMissileWeapon@@@8
_DATA	SEGMENT
??_R0?AVioMissileWeapon@@@8 DD FLAT:??_7type_info@@6B@	; ioMissileWeapon `RTTI Type Descriptor'
	DD	00H
	DB	'.?AVioMissileWeapon@@', 00H
; Function compile flags: /Ogsp
_DATA	ENDS
;	COMDAT ?ToMissileWeapon@@YAPAVioMissileWeapon@@PAVioWeapon@@@Z
_TEXT	SEGMENT
_pWeapon$ = 8						; size = 4
?ToMissileWeapon@@YAPAVioMissileWeapon@@PAVioWeapon@@@Z PROC ; ToMissileWeapon, COMDAT

; 116  : {

  00000	55		 push	 ebp
  00001	8b ec		 mov	 ebp, esp
  00003	56		 push	 esi

; 117  : 	if( !pWeapon || pWeapon->GetType() != ioWeapon::WT_MISSILE )

  00004	8b 75 08	 mov	 esi, DWORD PTR _pWeapon$[ebp]
  00007	85 f6		 test	 esi, esi
  00009	74 28		 je	 SHORT $LN1@ToMissileW
  0000b	8b 06		 mov	 eax, DWORD PTR [esi]
  0000d	8b ce		 mov	 ecx, esi
  0000f	ff 90 10 01 00
	00		 call	 DWORD PTR [eax+272]
  00015	83 f8 02	 cmp	 eax, 2
  00018	75 19		 jne	 SHORT $LN1@ToMissileW

; 119  : 
; 120  : 	return dynamic_cast< ioMissileWeapon* >( pWeapon );

  0001a	6a 00		 push	 0
  0001c	68 00 00 00 00	 push	 OFFSET ??_R0?AVioMissileWeapon@@@8
  00021	68 00 00 00 00	 push	 OFFSET ??_R0?AVioWeapon@@@8
  00026	6a 00		 push	 0
  00028	56		 push	 esi
  00029	e8 00 00 00 00	 call	 ___RTDynamicCast
  0002e	83 c4 14	 add	 esp, 20			; 00000014H
  00031	eb 02		 jmp	 SHORT $LN3@ToMissileW
$LN1@ToMissileW:

; 118  : 		return NULL;

  00033	33 c0		 xor	 eax, eax
$LN3@ToMissileW:
  00035	5e		 pop	 esi

; 121  : }

  00036	5d		 pop	 ebp
  00037	c3		 ret	 0
?ToMissileWeapon@@YAPAVioMissileWeapon@@PAVioWeapon@@@Z ENDP ; ToMissileWeapon
_TEXT	ENDS
PUBLIC	??_R0?AVioArrowWeapon@@@8			; ioArrowWeapon `RTTI Type Descriptor'
PUBLIC	?ToArrowWeapon@@YAPAVioArrowWeapon@@PAVioWeapon@@@Z ; ToArrowWeapon
;	COMDAT ??_R0?AVioArrowWeapon@@@8
; File d:\lost saga for developer\youtube\tutorial\source\src\lsclient\ioarrowweapon.h
_DATA	SEGMENT
??_R0?AVioArrowWeapon@@@8 DD FLAT:??_7type_info@@6B@	; ioArrowWeapon `RTTI Type Descriptor'
	DD	00H
	DB	'.?AVioArrowWeapon@@', 00H
; Function compile flags: /Ogsp
_DATA	ENDS
;	COMDAT ?ToArrowWeapon@@YAPAVioArrowWeapon@@PAVioWeapon@@@Z
_TEXT	SEGMENT
_pWeapon$ = 8						; size = 4
?ToArrowWeapon@@YAPAVioArrowWeapon@@PAVioWeapon@@@Z PROC ; ToArrowWeapon, COMDAT

; 112  : {

  00000	55		 push	 ebp
  00001	8b ec		 mov	 ebp, esp
  00003	56		 push	 esi

; 113  : 	if( !pWeapon || pWeapon->GetType() != ioWeapon::WT_ARROW )

  00004	8b 75 08	 mov	 esi, DWORD PTR _pWeapon$[ebp]
  00007	85 f6		 test	 esi, esi
  00009	74 28		 je	 SHORT $LN1@ToArrowWea
  0000b	8b 06		 mov	 eax, DWORD PTR [esi]
  0000d	8b ce		 mov	 ecx, esi
  0000f	ff 90 10 01 00
	00		 call	 DWORD PTR [eax+272]
  00015	83 f8 0b	 cmp	 eax, 11			; 0000000bH
  00018	75 19		 jne	 SHORT $LN1@ToArrowWea

; 115  : 
; 116  : 	return dynamic_cast< ioArrowWeapon* >( pWeapon );

  0001a	6a 00		 push	 0
  0001c	68 00 00 00 00	 push	 OFFSET ??_R0?AVioArrowWeapon@@@8
  00021	68 00 00 00 00	 push	 OFFSET ??_R0?AVioWeapon@@@8
  00026	6a 00		 push	 0
  00028	56		 push	 esi
  00029	e8 00 00 00 00	 call	 ___RTDynamicCast
  0002e	83 c4 14	 add	 esp, 20			; 00000014H
  00031	eb 02		 jmp	 SHORT $LN3@ToArrowWea
$LN1@ToArrowWea:

; 114  : 		return NULL;

  00033	33 c0		 xor	 eax, eax
$LN3@ToArrowWea:
  00035	5e		 pop	 esi

; 117  : }

  00036	5d		 pop	 ebp
  00037	c3		 ret	 0
?ToArrowWeapon@@YAPAVioArrowWeapon@@PAVioWeapon@@@Z ENDP ; ToArrowWeapon
_TEXT	ENDS
PUBLIC	??_R0?AVioZoneEffectWeapon@@@8			; ioZoneEffectWeapon `RTTI Type Descriptor'
PUBLIC	?ToZoneEffectWeapon@@YAPAVioZoneEffectWeapon@@PAVioWeapon@@@Z ; ToZoneEffectWeapon
;	COMDAT ??_R0?AVioZoneEffectWeapon@@@8
; File d:\lost saga for developer\youtube\tutorial\source\src\lsclient\iozoneeffectweapon.h
_DATA	SEGMENT
??_R0?AVioZoneEffectWeapon@@@8 DD FLAT:??_7type_info@@6B@ ; ioZoneEffectWeapon `RTTI Type Descriptor'
	DD	00H
	DB	'.?AVioZoneEffectWeapon@@', 00H
; Function compile flags: /Ogsp
_DATA	ENDS
;	COMDAT ?ToZoneEffectWeapon@@YAPAVioZoneEffectWeapon@@PAVioWeapon@@@Z
_TEXT	SEGMENT
_pWeapon$ = 8						; size = 4
?ToZoneEffectWeapon@@YAPAVioZoneEffectWeapon@@PAVioWeapon@@@Z PROC ; ToZoneEffectWeapon, COMDAT

; 217  : {

  00000	55		 push	 ebp
  00001	8b ec		 mov	 ebp, esp
  00003	56		 push	 esi

; 218  : 	if( !pWeapon || pWeapon->GetType() != ioWeapon::WT_ZONE_EFFECT )

  00004	8b 75 08	 mov	 esi, DWORD PTR _pWeapon$[ebp]
  00007	85 f6		 test	 esi, esi
  00009	74 28		 je	 SHORT $LN1@ToZoneEffe
  0000b	8b 06		 mov	 eax, DWORD PTR [esi]
  0000d	8b ce		 mov	 ecx, esi
  0000f	ff 90 10 01 00
	00		 call	 DWORD PTR [eax+272]
  00015	83 f8 08	 cmp	 eax, 8
  00018	75 19		 jne	 SHORT $LN1@ToZoneEffe

; 220  : 
; 221  : 	return dynamic_cast< ioZoneEffectWeapon* >( pWeapon );

  0001a	6a 00		 push	 0
  0001c	68 00 00 00 00	 push	 OFFSET ??_R0?AVioZoneEffectWeapon@@@8
  00021	68 00 00 00 00	 push	 OFFSET ??_R0?AVioWeapon@@@8
  00026	6a 00		 push	 0
  00028	56		 push	 esi
  00029	e8 00 00 00 00	 call	 ___RTDynamicCast
  0002e	83 c4 14	 add	 esp, 20			; 00000014H
  00031	eb 02		 jmp	 SHORT $LN3@ToZoneEffe
$LN1@ToZoneEffe:

; 219  : 		return NULL;

  00033	33 c0		 xor	 eax, eax
$LN3@ToZoneEffe:
  00035	5e		 pop	 esi

; 222  : }

  00036	5d		 pop	 ebp
  00037	c3		 ret	 0
?ToZoneEffectWeapon@@YAPAVioZoneEffectWeapon@@PAVioWeapon@@@Z ENDP ; ToZoneEffectWeapon
_TEXT	ENDS
PUBLIC	?_Adopt@_Iterator_base0@std@@QAEXPBX@Z		; std::_Iterator_base0::_Adopt
; Function compile flags: /Ogsp
; File c:\program files (x86)\microsoft visual studio 10.0\vc\include\xutility
;	COMDAT ?_Adopt@_Iterator_base0@std@@QAEXPBX@Z
_TEXT	SEGMENT
___formal$ = 8						; size = 4
?_Adopt@_Iterator_base0@std@@QAEXPBX@Z PROC		; std::_Iterator_base0::_Adopt, COMDAT
; _this$ = ecx

; 49   : 		}

  00000	c2 04 00	 ret	 4
?_Adopt@_Iterator_base0@std@@QAEXPBX@Z ENDP		; std::_Iterator_base0::_Adopt
_TEXT	ENDS
PUBLIC	??_R0?AVioReturnPingpongWeapon@@@8		; ioReturnPingpongWeapon `RTTI Type Descriptor'
PUBLIC	?ToReturnPingpongWeapon@@YAPAVioReturnPingpongWeapon@@PAVioWeapon@@@Z ; ToReturnPingpongWeapon
;	COMDAT ??_R0?AVioReturnPingpongWeapon@@@8
; File d:\lost saga for developer\youtube\tutorial\source\src\lsclient\ioreturnpingpongweapon.h
_DATA	SEGMENT
??_R0?AVioReturnPingpongWeapon@@@8 DD FLAT:??_7type_info@@6B@ ; ioReturnPingpongWeapon `RTTI Type Descriptor'
	DD	00H
	DB	'.?AVioReturnPingpongWeapon@@', 00H
; Function compile flags: /Ogsp
_DATA	ENDS
;	COMDAT ?ToReturnPingpongWeapon@@YAPAVioReturnPingpongWeapon@@PAVioWeapon@@@Z
_TEXT	SEGMENT
_pWeapon$ = 8						; size = 4
?ToReturnPingpongWeapon@@YAPAVioReturnPingpongWeapon@@PAVioWeapon@@@Z PROC ; ToReturnPingpongWeapon, COMDAT

; 134  : {

  00000	55		 push	 ebp
  00001	8b ec		 mov	 ebp, esp
  00003	56		 push	 esi

; 135  : 	if( !pWeapon || pWeapon->GetType() != ioWeapon::WT_RETURN_PINGPONG )

  00004	8b 75 08	 mov	 esi, DWORD PTR _pWeapon$[ebp]
  00007	85 f6		 test	 esi, esi
  00009	74 28		 je	 SHORT $LN1@ToReturnPi
  0000b	8b 06		 mov	 eax, DWORD PTR [esi]
  0000d	8b ce		 mov	 ecx, esi
  0000f	ff 90 10 01 00
	00		 call	 DWORD PTR [eax+272]
  00015	83 f8 34	 cmp	 eax, 52			; 00000034H
  00018	75 19		 jne	 SHORT $LN1@ToReturnPi

; 137  : 
; 138  : 	return dynamic_cast< ioReturnPingpongWeapon* >( pWeapon );

  0001a	6a 00		 push	 0
  0001c	68 00 00 00 00	 push	 OFFSET ??_R0?AVioReturnPingpongWeapon@@@8
  00021	68 00 00 00 00	 push	 OFFSET ??_R0?AVioWeapon@@@8
  00026	6a 00		 push	 0
  00028	56		 push	 esi
  00029	e8 00 00 00 00	 call	 ___RTDynamicCast
  0002e	83 c4 14	 add	 esp, 20			; 00000014H
  00031	eb 02		 jmp	 SHORT $LN3@ToReturnPi
$LN1@ToReturnPi:

; 136  : 		return NULL;

  00033	33 c0		 xor	 eax, eax
$LN3@ToReturnPi:
  00035	5e		 pop	 esi

; 139  : }

  00036	5d		 pop	 ebp
  00037	c3		 ret	 0
?ToReturnPingpongWeapon@@YAPAVioReturnPingpongWeapon@@PAVioWeapon@@@Z ENDP ; ToReturnPingpongWeapon
_TEXT	ENDS
PUBLIC	??0D3DXVECTOR3@@QAE@XZ				; D3DXVECTOR3::D3DXVECTOR3
; Function compile flags: /Ogsp
; File c:\program files (x86)\microsoft directx sdk (june 2010)\include\d3dx9math.h
;	COMDAT ??0D3DXVECTOR3@@QAE@XZ
_TEXT	SEGMENT
??0D3DXVECTOR3@@QAE@XZ PROC				; D3DXVECTOR3::D3DXVECTOR3, COMDAT
; _this$ = ecx

; 165  :     D3DXVECTOR3() {};

  00000	8b c1		 mov	 eax, ecx
  00002	c3		 ret	 0
??0D3DXVECTOR3@@QAE@XZ ENDP				; D3DXVECTOR3::D3DXVECTOR3
_TEXT	ENDS
PUBLIC	??0D3DXQUATERNION@@QAE@XZ			; D3DXQUATERNION::D3DXQUATERNION
; Function compile flags: /Ogsp
;	COMDAT ??0D3DXQUATERNION@@QAE@XZ
_TEXT	SEGMENT
??0D3DXQUATERNION@@QAE@XZ PROC				; D3DXQUATERNION::D3DXQUATERNION, COMDAT
; _this$ = ecx

; 429  :     D3DXQUATERNION() {}

  00000	8b c1		 mov	 eax, ecx
  00002	c3		 ret	 0
??0D3DXQUATERNION@@QAE@XZ ENDP				; D3DXQUATERNION::D3DXQUATERNION
_TEXT	ENDS
PUBLIC	?OnJumpFire@ioRobinExpansionItem@@IAEXPAVioBaseChar@@@Z ; ioRobinExpansionItem::OnJumpFire
EXTRN	?SetMoveDirByRotate@ioBaseChar@@QAEXABUD3DXQUATERNION@@@Z:PROC ; ioBaseChar::SetMoveDirByRotate
EXTRN	__imp_?GetLoopSec@ioFrameTimer@@QBEKXZ:PROC
EXTRN	__imp_?GetSingleton@ioFrameTimer@@SAAAV1@XZ:PROC
; Function compile flags: /Ogsp
; File d:\lost saga for developer\youtube\tutorial\source\src\lsclient\iorobinexpansionitem.cpp
;	COMDAT ?OnJumpFire@ioRobinExpansionItem@@IAEXPAVioBaseChar@@@Z
_TEXT	SEGMENT
_pOwner$ = 8						; size = 4
?OnJumpFire@ioRobinExpansionItem@@IAEXPAVioBaseChar@@@Z PROC ; ioRobinExpansionItem::OnJumpFire, COMDAT
; _this$ = ecx

; 1370 : {

  00000	55		 push	 ebp
  00001	8b ec		 mov	 ebp, esp
  00003	56		 push	 esi
  00004	8b f1		 mov	 esi, ecx

; 1371 : 	DWORD dwCurTime = FRAMEGETTIME();

  00006	ff 15 00 00 00
	00		 call	 DWORD PTR __imp_?GetSingleton@ioFrameTimer@@SAAAV1@XZ
  0000c	8b c8		 mov	 ecx, eax
  0000e	ff 15 00 00 00
	00		 call	 DWORD PTR __imp_?GetLoopSec@ioFrameTimer@@QBEKXZ

; 1372 : 	DWORD dwAttackOverTime = m_dwFireStartTime + m_dwFireEndTime + m_dwFireDelayTime;

  00014	8b 8e 10 1c 00
	00		 mov	 ecx, DWORD PTR [esi+7184]
  0001a	03 8e 0c 1c 00
	00		 add	 ecx, DWORD PTR [esi+7180]
  00020	03 8e 08 1c 00
	00		 add	 ecx, DWORD PTR [esi+7176]

; 1373 : 
; 1374 : 	if( dwCurTime >= dwAttackOverTime )

  00026	3b c1		 cmp	 eax, ecx
  00028	72 16		 jb	 SHORT $LN1@OnJumpFire

; 1375 : 	{
; 1376 : 		m_FireState = FS_NONE;
; 1377 : 		pOwner->SetMoveDirByRotate( pOwner->GetTargetRot() );

  0002a	8b 4d 08	 mov	 ecx, DWORD PTR _pOwner$[ebp]
  0002d	83 a6 54 19 00
	00 00		 and	 DWORD PTR [esi+6484], 0
  00034	8d 81 a4 06 00
	00		 lea	 eax, DWORD PTR [ecx+1700]
  0003a	50		 push	 eax
  0003b	e8 00 00 00 00	 call	 ?SetMoveDirByRotate@ioBaseChar@@QAEXABUD3DXQUATERNION@@@Z ; ioBaseChar::SetMoveDirByRotate
$LN1@OnJumpFire:
  00040	5e		 pop	 esi

; 1378 : 	}
; 1379 : }

  00041	5d		 pop	 ebp
  00042	c2 04 00	 ret	 4
?OnJumpFire@ioRobinExpansionItem@@IAEXPAVioBaseChar@@@Z ENDP ; ioRobinExpansionItem::OnJumpFire
_TEXT	ENDS
PUBLIC	__$ArrayPad$
PUBLIC	?ChangeToAimWaitState@ioRobinExpansionItem@@IAEXPAVioBaseChar@@ABVioHashString@@@Z ; ioRobinExpansionItem::ChangeToAimWaitState
EXTRN	??1SP2Packet@@UAE@XZ:PROC			; SP2Packet::~SP2Packet
EXTRN	?SendToAllPlayingUser@P2PNetwork@@YAXAAVSP2Packet@@PAVioBaseChar@@@Z:PROC ; P2PNetwork::SendToAllPlayingUser
EXTRN	??6SP2Packet@@QAEAAV0@ABVioHashString@@@Z:PROC	; SP2Packet::operator<<
EXTRN	??6SP2Packet@@QAEAAV0@H@Z:PROC			; SP2Packet::operator<<
EXTRN	??6SP2Packet@@QAEAAV0@_N@Z:PROC			; SP2Packet::operator<<
EXTRN	?FillItemGaugePacketHeader@ioAttackableItem@@QAEXPAVioBaseChar@@AAVSP2Packet@@@Z:PROC ; ioAttackableItem::FillItemGaugePacketHeader
EXTRN	??0SP2Packet@@QAE@K@Z:PROC			; SP2Packet::SP2Packet
EXTRN	?SetTargetMarkerState@ioBaseGUISupport@@QAEXW4MarkerState@ioTargetMarker@@W4TargetedType@@@Z:PROC ; ioBaseGUISupport::SetTargetMarkerState
EXTRN	?SetTargetMarkerTarget@ioBaseGUISupport@@QAEXABVioHashString@@_NW4TargetedType@@@Z:PROC ; ioBaseGUISupport::SetTargetMarkerTarget
EXTRN	___security_cookie:DWORD
EXTRN	___CxxFrameHandler3:PROC
EXTRN	@__security_check_cookie@4:PROC
EXTRN	__chkstk:PROC
;	COMDAT xdata$x
xdata$x	SEGMENT
__unwindtable$?ChangeToAimWaitState@ioRobinExpansionItem@@IAEXPAVioBaseChar@@ABVioHashString@@@Z DD 0ffffffffH
	DD	FLAT:__unwindfunclet$?ChangeToAimWaitState@ioRobinExpansionItem@@IAEXPAVioBaseChar@@ABVioHashString@@@Z$0
__ehfuncinfo$?ChangeToAimWaitState@ioRobinExpansionItem@@IAEXPAVioBaseChar@@ABVioHashString@@@Z DD 019930522H
	DD	01H
	DD	FLAT:__unwindtable$?ChangeToAimWaitState@ioRobinExpansionItem@@IAEXPAVioBaseChar@@ABVioHashString@@@Z
	DD	2 DUP(00H)
	DD	2 DUP(00H)
	DD	00H
	DD	01H
; Function compile flags: /Ogsp
xdata$x	ENDS
;	COMDAT ?ChangeToAimWaitState@ioRobinExpansionItem@@IAEXPAVioBaseChar@@ABVioHashString@@@Z
_TEXT	SEGMENT
_kPacket$544138 = -32808				; size = 32792
__$ArrayPad$ = -16					; size = 4
__$EHRec$ = -12						; size = 12
_pOwner$ = 8						; size = 4
_szTarget$ = 12						; size = 4
?ChangeToAimWaitState@ioRobinExpansionItem@@IAEXPAVioBaseChar@@ABVioHashString@@@Z PROC ; ioRobinExpansionItem::ChangeToAimWaitState, COMDAT
; _this$ = ecx

; 1413 : {

  00000	55		 push	 ebp
  00001	8b ec		 mov	 ebp, esp
  00003	6a ff		 push	 -1
  00005	68 00 00 00 00	 push	 __ehhandler$?ChangeToAimWaitState@ioRobinExpansionItem@@IAEXPAVioBaseChar@@ABVioHashString@@@Z
  0000a	64 a1 00 00 00
	00		 mov	 eax, DWORD PTR fs:0
  00010	50		 push	 eax
  00011	b8 1c 80 00 00	 mov	 eax, 32796		; 0000801cH
  00016	e8 00 00 00 00	 call	 __chkstk
  0001b	a1 00 00 00 00	 mov	 eax, DWORD PTR ___security_cookie
  00020	33 c5		 xor	 eax, ebp
  00022	89 45 f0	 mov	 DWORD PTR __$ArrayPad$[ebp], eax
  00025	53		 push	 ebx
  00026	56		 push	 esi
  00027	57		 push	 edi
  00028	50		 push	 eax
  00029	8d 45 f4	 lea	 eax, DWORD PTR __$EHRec$[ebp]
  0002c	64 a3 00 00 00
	00		 mov	 DWORD PTR fs:0, eax
  00032	8b 7d 08	 mov	 edi, DWORD PTR _pOwner$[ebp]
  00035	8b f1		 mov	 esi, ecx

; 1414 : 	m_dwAimStartTime = FRAMEGETTIME();

  00037	ff 15 00 00 00
	00		 call	 DWORD PTR __imp_?GetSingleton@ioFrameTimer@@SAAAV1@XZ
  0003d	8b c8		 mov	 ecx, eax
  0003f	ff 15 00 00 00
	00		 call	 DWORD PTR __imp_?GetLoopSec@ioFrameTimer@@QBEKXZ

; 1415 : 	m_FireState = FS_AIM_WAIT;
; 1416 : 
; 1417 : 	pOwner->SetTargetMarkerTarget( m_AimedTarget, m_bAimedBall );

  00045	0f b6 8e 98 02
	00 00		 movzx	 ecx, BYTE PTR [esi+664]
  0004c	6a 00		 push	 0
  0004e	89 86 14 1c 00
	00		 mov	 DWORD PTR [esi+7188], eax
  00054	51		 push	 ecx
  00055	8d 86 9c 02 00
	00		 lea	 eax, DWORD PTR [esi+668]
  0005b	50		 push	 eax
  0005c	8d 8f cc 01 00
	00		 lea	 ecx, DWORD PTR [edi+460]
  00062	c7 86 54 19 00
	00 03 00 00 00	 mov	 DWORD PTR [esi+6484], 3
  0006c	e8 00 00 00 00	 call	 ?SetTargetMarkerTarget@ioBaseGUISupport@@QAEXABVioHashString@@_NW4TargetedType@@@Z ; ioBaseGUISupport::SetTargetMarkerTarget

; 1418 : 	pOwner->SetTargetMarkerState( ioTargetMarker::MS_AIMING );

  00071	6a 00		 push	 0
  00073	6a 02		 push	 2
  00075	8d 8f cc 01 00
	00		 lea	 ecx, DWORD PTR [edi+460]
  0007b	e8 00 00 00 00	 call	 ?SetTargetMarkerState@ioBaseGUISupport@@QAEXW4MarkerState@ioTargetMarker@@W4TargetedType@@@Z ; ioBaseGUISupport::SetTargetMarkerState

; 1419 : 
; 1420 : 	if( pOwner->IsNeedSendNetwork() )

  00080	8b 07		 mov	 eax, DWORD PTR [edi]
  00082	8b cf		 mov	 ecx, edi
  00084	ff 90 04 01 00
	00		 call	 DWORD PTR [eax+260]
  0008a	84 c0		 test	 al, al
  0008c	0f 84 95 00 00
	00		 je	 $LN1@ChangeToAi

; 1421 : 	{
; 1422 : 		SP2Packet kPacket( CUPK_ITEM_GAUGE_CANCEL );

  00092	68 28 41 00 00	 push	 16680			; 00004128H
  00097	8d 8d d8 7f ff
	ff		 lea	 ecx, DWORD PTR _kPacket$544138[ebp]
  0009d	e8 00 00 00 00	 call	 ??0SP2Packet@@QAE@K@Z	; SP2Packet::SP2Packet

; 1423 : 		FillItemGaugePacketHeader( pOwner, kPacket );

  000a2	8d 85 d8 7f ff
	ff		 lea	 eax, DWORD PTR _kPacket$544138[ebp]
  000a8	50		 push	 eax
  000a9	33 db		 xor	 ebx, ebx
  000ab	57		 push	 edi
  000ac	8b ce		 mov	 ecx, esi
  000ae	89 5d fc	 mov	 DWORD PTR __$EHRec$[ebp+8], ebx
  000b1	e8 00 00 00 00	 call	 ?FillItemGaugePacketHeader@ioAttackableItem@@QAEXPAVioBaseChar@@AAVSP2Packet@@@Z ; ioAttackableItem::FillItemGaugePacketHeader

; 1424 : 		kPacket << false;	//AimJump

  000b6	53		 push	 ebx
  000b7	8d 8d d8 7f ff
	ff		 lea	 ecx, DWORD PTR _kPacket$544138[ebp]
  000bd	e8 00 00 00 00	 call	 ??6SP2Packet@@QAEAAV0@_N@Z ; SP2Packet::operator<<

; 1425 : 		kPacket << (int)m_FireState;

  000c2	ff b6 54 19 00
	00		 push	 DWORD PTR [esi+6484]
  000c8	8d 8d d8 7f ff
	ff		 lea	 ecx, DWORD PTR _kPacket$544138[ebp]
  000ce	e8 00 00 00 00	 call	 ??6SP2Packet@@QAEAAV0@H@Z ; SP2Packet::operator<<

; 1426 : 		kPacket << m_iCurCombo;

  000d3	ff b6 f4 1c 00
	00		 push	 DWORD PTR [esi+7412]
  000d9	8d 8d d8 7f ff
	ff		 lea	 ecx, DWORD PTR _kPacket$544138[ebp]
  000df	e8 00 00 00 00	 call	 ??6SP2Packet@@QAEAAV0@H@Z ; SP2Packet::operator<<

; 1427 : 		kPacket << m_AimedTarget;

  000e4	8d 86 9c 02 00
	00		 lea	 eax, DWORD PTR [esi+668]
  000ea	50		 push	 eax
  000eb	8d 8d d8 7f ff
	ff		 lea	 ecx, DWORD PTR _kPacket$544138[ebp]
  000f1	e8 00 00 00 00	 call	 ??6SP2Packet@@QAEAAV0@ABVioHashString@@@Z ; SP2Packet::operator<<

; 1428 : 		kPacket << m_bAimedBall;

  000f6	0f b6 86 98 02
	00 00		 movzx	 eax, BYTE PTR [esi+664]
  000fd	50		 push	 eax
  000fe	8d 8d d8 7f ff
	ff		 lea	 ecx, DWORD PTR _kPacket$544138[ebp]
  00104	e8 00 00 00 00	 call	 ??6SP2Packet@@QAEAAV0@_N@Z ; SP2Packet::operator<<

; 1429 : 		P2PNetwork::SendToAllPlayingUser( kPacket );

  00109	8d 85 d8 7f ff
	ff		 lea	 eax, DWORD PTR _kPacket$544138[ebp]
  0010f	53		 push	 ebx
  00110	50		 push	 eax
  00111	e8 00 00 00 00	 call	 ?SendToAllPlayingUser@P2PNetwork@@YAXAAVSP2Packet@@PAVioBaseChar@@@Z ; P2PNetwork::SendToAllPlayingUser

; 1430 : 	}

  00116	83 4d fc ff	 or	 DWORD PTR __$EHRec$[ebp+8], -1
  0011a	59		 pop	 ecx
  0011b	59		 pop	 ecx
  0011c	8d 8d d8 7f ff
	ff		 lea	 ecx, DWORD PTR _kPacket$544138[ebp]
  00122	e8 00 00 00 00	 call	 ??1SP2Packet@@UAE@XZ	; SP2Packet::~SP2Packet
$LN1@ChangeToAi:

; 1431 : }

  00127	8b 4d f4	 mov	 ecx, DWORD PTR __$EHRec$[ebp]
  0012a	64 89 0d 00 00
	00 00		 mov	 DWORD PTR fs:0, ecx
  00131	59		 pop	 ecx
  00132	5f		 pop	 edi
  00133	5e		 pop	 esi
  00134	5b		 pop	 ebx
  00135	8b 4d f0	 mov	 ecx, DWORD PTR __$ArrayPad$[ebp]
  00138	33 cd		 xor	 ecx, ebp
  0013a	e8 00 00 00 00	 call	 @__security_check_cookie@4
  0013f	c9		 leave
  00140	c2 08 00	 ret	 8
_TEXT	ENDS
;	COMDAT text$x
text$x	SEGMENT
__unwindfunclet$?ChangeToAimWaitState@ioRobinExpansionItem@@IAEXPAVioBaseChar@@ABVioHashString@@@Z$0:
  00000	8d 8d d8 7f ff
	ff		 lea	 ecx, DWORD PTR _kPacket$544138[ebp]
  00006	e9 00 00 00 00	 jmp	 ??1SP2Packet@@UAE@XZ	; SP2Packet::~SP2Packet
__ehhandler$?ChangeToAimWaitState@ioRobinExpansionItem@@IAEXPAVioBaseChar@@ABVioHashString@@@Z:
  0000b	8b 54 24 08	 mov	 edx, DWORD PTR [esp+8]
  0000f	8d 42 0c	 lea	 eax, DWORD PTR [edx+12]
  00012	8b 8a d4 7f ff
	ff		 mov	 ecx, DWORD PTR [edx-32812]
  00018	33 c8		 xor	 ecx, eax
  0001a	e8 00 00 00 00	 call	 @__security_check_cookie@4
  0001f	8b 4a fc	 mov	 ecx, DWORD PTR [edx-4]
  00022	33 c8		 xor	 ecx, eax
  00024	e8 00 00 00 00	 call	 @__security_check_cookie@4
  00029	b8 00 00 00 00	 mov	 eax, OFFSET __ehfuncinfo$?ChangeToAimWaitState@ioRobinExpansionItem@@IAEXPAVioBaseChar@@ABVioHashString@@@Z
  0002e	e9 00 00 00 00	 jmp	 ___CxxFrameHandler3
text$x	ENDS
?ChangeToAimWaitState@ioRobinExpansionItem@@IAEXPAVioBaseChar@@ABVioHashString@@@Z ENDP ; ioRobinExpansionItem::ChangeToAimWaitState
PUBLIC	??0D3DXVECTOR3@@QAE@MMM@Z			; D3DXVECTOR3::D3DXVECTOR3
; Function compile flags: /Ogsp
; File c:\program files (x86)\microsoft directx sdk (june 2010)\include\d3dx9math.inl
;	COMDAT ??0D3DXVECTOR3@@QAE@MMM@Z
_TEXT	SEGMENT
_fx$ = 8						; size = 4
_fy$ = 12						; size = 4
_fz$ = 16						; size = 4
??0D3DXVECTOR3@@QAE@MMM@Z PROC				; D3DXVECTOR3::D3DXVECTOR3, COMDAT
; _this$ = ecx

; 303  : {

  00000	55		 push	 ebp
  00001	8b ec		 mov	 ebp, esp

; 304  :     x = fx;

  00003	f3 0f 10 45 08	 movss	 xmm0, DWORD PTR _fx$[ebp]
  00008	8b c1		 mov	 eax, ecx
  0000a	f3 0f 11 00	 movss	 DWORD PTR [eax], xmm0

; 305  :     y = fy;

  0000e	f3 0f 10 45 0c	 movss	 xmm0, DWORD PTR _fy$[ebp]
  00013	f3 0f 11 40 04	 movss	 DWORD PTR [eax+4], xmm0

; 306  :     z = fz;

  00018	f3 0f 10 45 10	 movss	 xmm0, DWORD PTR _fz$[ebp]
  0001d	f3 0f 11 40 08	 movss	 DWORD PTR [eax+8], xmm0

; 307  : }

  00022	5d		 pop	 ebp
  00023	c2 0c 00	 ret	 12			; 0000000cH
??0D3DXVECTOR3@@QAE@MMM@Z ENDP				; D3DXVECTOR3::D3DXVECTOR3
_TEXT	ENDS
PUBLIC	__mask@@NegFloat@
PUBLIC	??GD3DXVECTOR3@@QBE?AU0@XZ			; D3DXVECTOR3::operator-
;	COMDAT __mask@@NegFloat@
CONST	SEGMENT
__mask@@NegFloat@ DB 00H, 00H, 00H, 080H, 00H, 00H, 00H, 080H, 00H, 00H, 00H
	DB	080H, 00H, 00H, 00H, 080H
; Function compile flags: /Ogsp
CONST	ENDS
;	COMDAT ??GD3DXVECTOR3@@QBE?AU0@XZ
_TEXT	SEGMENT
___$ReturnUdt$ = 8					; size = 4
??GD3DXVECTOR3@@QBE?AU0@XZ PROC				; D3DXVECTOR3::operator-, COMDAT
; _this$ = ecx

; 372  : {

  00000	55		 push	 ebp
  00001	8b ec		 mov	 ebp, esp

; 373  :     return D3DXVECTOR3(-x, -y, -z);

  00003	f3 0f 10 05 00
	00 00 00	 movss	 xmm0, DWORD PTR __mask@@NegFloat@
  0000b	8b 45 08	 mov	 eax, DWORD PTR ___$ReturnUdt$[ebp]
  0000e	f3 0f 10 09	 movss	 xmm1, DWORD PTR [ecx]
  00012	0f 57 c8	 xorps	 xmm1, xmm0
  00015	f3 0f 11 08	 movss	 DWORD PTR [eax], xmm1
  00019	f3 0f 10 49 04	 movss	 xmm1, DWORD PTR [ecx+4]
  0001e	0f 57 c8	 xorps	 xmm1, xmm0
  00021	f3 0f 11 48 04	 movss	 DWORD PTR [eax+4], xmm1
  00026	f3 0f 10 49 08	 movss	 xmm1, DWORD PTR [ecx+8]
  0002b	0f 57 c8	 xorps	 xmm1, xmm0
  0002e	f3 0f 11 48 08	 movss	 DWORD PTR [eax+8], xmm1

; 374  : }

  00033	5d		 pop	 ebp
  00034	c2 04 00	 ret	 4
??GD3DXVECTOR3@@QBE?AU0@XZ ENDP				; D3DXVECTOR3::operator-
_TEXT	ENDS
PUBLIC	??GD3DXVECTOR3@@QBE?AU0@ABU0@@Z			; D3DXVECTOR3::operator-
; Function compile flags: /Ogsp
;	COMDAT ??GD3DXVECTOR3@@QBE?AU0@ABU0@@Z
_TEXT	SEGMENT
___$ReturnUdt$ = 8					; size = 4
_v$ = 12						; size = 4
??GD3DXVECTOR3@@QBE?AU0@ABU0@@Z PROC			; D3DXVECTOR3::operator-, COMDAT
; _this$ = ecx

; 386  : {

  00000	55		 push	 ebp
  00001	8b ec		 mov	 ebp, esp

; 387  :     return D3DXVECTOR3(x - v.x, y - v.y, z - v.z);

  00003	8b 55 0c	 mov	 edx, DWORD PTR _v$[ebp]
  00006	f3 0f 10 01	 movss	 xmm0, DWORD PTR [ecx]
  0000a	f3 0f 10 0a	 movss	 xmm1, DWORD PTR [edx]
  0000e	8b 45 08	 mov	 eax, DWORD PTR ___$ReturnUdt$[ebp]
  00011	0f 5a c0	 cvtps2pd xmm0, xmm0
  00014	0f 5a c9	 cvtps2pd xmm1, xmm1
  00017	f2 0f 5c c1	 subsd	 xmm0, xmm1
  0001b	f3 0f 10 4a 04	 movss	 xmm1, DWORD PTR [edx+4]
  00020	66 0f 5a c0	 cvtpd2ps xmm0, xmm0
  00024	f3 0f 11 00	 movss	 DWORD PTR [eax], xmm0
  00028	f3 0f 10 41 04	 movss	 xmm0, DWORD PTR [ecx+4]
  0002d	0f 5a c0	 cvtps2pd xmm0, xmm0
  00030	0f 5a c9	 cvtps2pd xmm1, xmm1
  00033	f2 0f 5c c1	 subsd	 xmm0, xmm1
  00037	f3 0f 10 4a 08	 movss	 xmm1, DWORD PTR [edx+8]
  0003c	66 0f 5a c0	 cvtpd2ps xmm0, xmm0
  00040	f3 0f 11 40 04	 movss	 DWORD PTR [eax+4], xmm0
  00045	f3 0f 10 41 08	 movss	 xmm0, DWORD PTR [ecx+8]
  0004a	0f 5a c0	 cvtps2pd xmm0, xmm0
  0004d	0f 5a c9	 cvtps2pd xmm1, xmm1
  00050	f2 0f 5c c1	 subsd	 xmm0, xmm1
  00054	66 0f 5a c0	 cvtpd2ps xmm0, xmm0
  00058	f3 0f 11 40 08	 movss	 DWORD PTR [eax+8], xmm0

; 388  : }

  0005d	5d		 pop	 ebp
  0005e	c2 08 00	 ret	 8
??GD3DXVECTOR3@@QBE?AU0@ABU0@@Z ENDP			; D3DXVECTOR3::operator-
_TEXT	ENDS
PUBLIC	__real@4f800000
PUBLIC	__real@3ff0000000000000
PUBLIC	__real@3f000000
PUBLIC	__real@42c80000
PUBLIC	?AimedFireToUp@ioRobinExpansionItem@@IAEXPAVioEntityGroup@@MMK_N@Z ; ioRobinExpansionItem::AimedFireToUp
EXTRN	__imp_??1ioHashString@@QAE@XZ:PROC
EXTRN	__imp_?SetActionAni@ioEntityGroup@@QAE_NABVioHashString@@MMMMMM_N1@Z:PROC
EXTRN	__imp_??4ioHashString@@QAEAAV0@ABV0@@Z:PROC
EXTRN	__imp_??0ioHashString@@QAE@XZ:PROC
EXTRN	__EH_epilog3:PROC
EXTRN	__EH_prolog3:PROC
;	COMDAT __real@4f800000
; File d:\lost saga for developer\youtube\tutorial\source\src\lsclient\iorobinexpansionitem.cpp
CONST	SEGMENT
__real@4f800000 DD 04f800000r			; 4.29497e+009
CONST	ENDS
;	COMDAT __real@3ff0000000000000
CONST	SEGMENT
__real@3ff0000000000000 DQ 03ff0000000000000r	; 1
CONST	ENDS
;	COMDAT __real@3f000000
CONST	SEGMENT
__real@3f000000 DD 03f000000r			; 0.5
CONST	ENDS
;	COMDAT __real@42c80000
CONST	SEGMENT
__real@42c80000 DD 042c80000r			; 100
CONST	ENDS
;	COMDAT xdata$x
xdata$x	SEGMENT
__unwindtable$?AimedFireToUp@ioRobinExpansionItem@@IAEXPAVioEntityGroup@@MMK_N@Z DD 0ffffffffH
	DD	FLAT:__unwindfunclet$?AimedFireToUp@ioRobinExpansionItem@@IAEXPAVioEntityGroup@@MMK_N@Z$0
	DD	00H
	DD	FLAT:__unwindfunclet$?AimedFireToUp@ioRobinExpansionItem@@IAEXPAVioEntityGroup@@MMK_N@Z$1
__ehfuncinfo$?AimedFireToUp@ioRobinExpansionItem@@IAEXPAVioEntityGroup@@MMK_N@Z DD 019930522H
	DD	02H
	DD	FLAT:__unwindtable$?AimedFireToUp@ioRobinExpansionItem@@IAEXPAVioEntityGroup@@MMK_N@Z
	DD	2 DUP(00H)
	DD	2 DUP(00H)
	DD	00H
	DD	01H
; Function compile flags: /Ogsp
xdata$x	ENDS
;	COMDAT ?AimedFireToUp@ioRobinExpansionItem@@IAEXPAVioEntityGroup@@MMK_N@Z
_TEXT	SEGMENT
_szFireUp$ = -56					; size = 16
_szFireCenter$ = -40					; size = 16
_bAniFx2$ = -24						; size = 1
tv217 = -20						; size = 4
_bAniFx1$ = -20						; size = 1
_fFadeOut$ = -16					; size = 4
__$EHRec$ = -12						; size = 12
_pGrp$ = 8						; size = 4
tv201 = 12						; size = 4
_fWeight$ = 12						; size = 4
_fTimeRate$ = 16					; size = 4
_dwPreDelay$ = 20					; size = 4
_bHold$ = 24						; size = 1
?AimedFireToUp@ioRobinExpansionItem@@IAEXPAVioEntityGroup@@MMK_N@Z PROC ; ioRobinExpansionItem::AimedFireToUp, COMDAT
; _this$ = ecx

; 2035 : {

  00000	6a 2c		 push	 44			; 0000002cH
  00002	b8 00 00 00 00	 mov	 eax, __ehhandler$?AimedFireToUp@ioRobinExpansionItem@@IAEXPAVioEntityGroup@@MMK_N@Z
  00007	e8 00 00 00 00	 call	 __EH_prolog3
  0000c	8b f1		 mov	 esi, ecx

; 2036 : 	float fFadeOut = 100.0f;

  0000e	f3 0f 10 05 00
	00 00 00	 movss	 xmm0, DWORD PTR __real@42c80000

; 2037 : 	if( !bHold )

  00016	33 db		 xor	 ebx, ebx
  00018	f3 0f 11 45 f0	 movss	 DWORD PTR _fFadeOut$[ebp], xmm0
  0001d	38 5d 18	 cmp	 BYTE PTR _bHold$[ebp], bl
  00020	75 08		 jne	 SHORT $LN7@AimedFireT

; 2038 : 		fFadeOut = 0.0f;

  00022	0f 57 c0	 xorps	 xmm0, xmm0
  00025	f3 0f 11 45 f0	 movss	 DWORD PTR _fFadeOut$[ebp], xmm0
$LN7@AimedFireT:

; 2039 : 
; 2040 : 	bool bAniFx1 = false;
; 2041 : 	bool bAniFx2 = true;
; 2042 : 
; 2043 : 	if( fWeight > 0.5f )

  0002a	f3 0f 10 45 0c	 movss	 xmm0, DWORD PTR _fWeight$[ebp]
  0002f	0f 2f 05 00 00
	00 00		 comiss	 xmm0, DWORD PTR __real@3f000000
  00036	88 5d ec	 mov	 BYTE PTR _bAniFx1$[ebp], bl
  00039	c6 45 e8 01	 mov	 BYTE PTR _bAniFx2$[ebp], 1
  0003d	76 07		 jbe	 SHORT $LN6@AimedFireT

; 2044 : 	{
; 2045 : 		bAniFx1 = true;

  0003f	c6 45 ec 01	 mov	 BYTE PTR _bAniFx1$[ebp], 1

; 2046 : 		bAniFx2 = false;

  00043	88 5d e8	 mov	 BYTE PTR _bAniFx2$[ebp], bl
$LN6@AimedFireT:

; 2047 : 	}
; 2048 : 
; 2049 : 	ioHashString szFireUp, szFireCenter;

  00046	8b 3d 00 00 00
	00		 mov	 edi, DWORD PTR __imp_??0ioHashString@@QAE@XZ
  0004c	8d 4d c8	 lea	 ecx, DWORD PTR _szFireUp$[ebp]
  0004f	ff d7		 call	 edi
  00051	8d 4d d8	 lea	 ecx, DWORD PTR _szFireCenter$[ebp]
  00054	89 5d fc	 mov	 DWORD PTR __$EHRec$[ebp+8], ebx
  00057	ff d7		 call	 edi

; 2050 : 	if( m_bAimJumpAttack )
; 2051 : 	{
; 2052 : 		szFireUp = m_JumpFireUp;

  00059	8b 3d 00 00 00
	00		 mov	 edi, DWORD PTR __imp_??4ioHashString@@QAEAAV0@ABV0@@Z
  0005f	c6 45 fc 01	 mov	 BYTE PTR __$EHRec$[ebp+8], 1
  00063	8d 4d c8	 lea	 ecx, DWORD PTR _szFireUp$[ebp]
  00066	38 9e 59 1c 00
	00		 cmp	 BYTE PTR [esi+7257], bl
  0006c	74 11		 je	 SHORT $LN5@AimedFireT
  0006e	8d 86 a4 1c 00
	00		 lea	 eax, DWORD PTR [esi+7332]
  00074	50		 push	 eax
  00075	ff d7		 call	 edi

; 2053 : 		szFireCenter = m_JumpFireCenter;

  00077	81 c6 b4 1c 00
	00		 add	 esi, 7348		; 00001cb4H
  0007d	eb 28		 jmp	 SHORT $LN15@AimedFireT
$LN5@AimedFireT:

; 2054 : 	}
; 2055 : 	else if( m_bZeroAimState )

  0007f	38 9e 20 1c 00
	00		 cmp	 BYTE PTR [esi+7200], bl
  00085	74 11		 je	 SHORT $LN3@AimedFireT

; 2056 : 	{
; 2057 : 		szFireUp = m_ZeroFireUp;

  00087	8d 86 5c 1b 00
	00		 lea	 eax, DWORD PTR [esi+7004]
  0008d	50		 push	 eax
  0008e	ff d7		 call	 edi

; 2058 : 		szFireCenter = m_ZeroFireCenter;

  00090	81 c6 6c 1b 00
	00		 add	 esi, 7020		; 00001b6cH

; 2059 : 	}
; 2060 : 	else

  00096	eb 0f		 jmp	 SHORT $LN15@AimedFireT
$LN3@AimedFireT:

; 2061 : 	{
; 2062 : 		szFireUp = m_FireUp;

  00098	8d 86 fc 1a 00
	00		 lea	 eax, DWORD PTR [esi+6908]
  0009e	50		 push	 eax
  0009f	ff d7		 call	 edi

; 2063 : 		szFireCenter = m_FireCenter;

  000a1	81 c6 0c 1b 00
	00		 add	 esi, 6924		; 00001b0cH
$LN15@AimedFireT:
  000a7	56		 push	 esi
  000a8	8d 4d d8	 lea	 ecx, DWORD PTR _szFireCenter$[ebp]
  000ab	ff d7		 call	 edi

; 2064 : 	}
; 2065 : 
; 2066 : 	if( fWeight > 0.0f )

  000ad	f3 0f 10 55 0c	 movss	 xmm2, DWORD PTR _fWeight$[ebp]
  000b2	0f 57 c9	 xorps	 xmm1, xmm1
  000b5	0f 2f d1	 comiss	 xmm2, xmm1
  000b8	f2 0f 10 05 00
	00 00 00	 movsd	 xmm0, QWORD PTR __real@3ff0000000000000
  000c0	8b 35 00 00 00
	00		 mov	 esi, DWORD PTR __imp_?SetActionAni@ioEntityGroup@@QAE_NABVioHashString@@MMMMMM_N1@Z
  000c6	76 70		 jbe	 SHORT $LN1@AimedFireT

; 2067 : 	{
; 2068 : 		pGrp->SetActionAni( szFireUp,
; 2069 : 							100.0f, fFadeOut,
; 2070 : 							fWeight, 1.0f/fTimeRate,
; 2071 : 							0.0f, dwPreDelay,
; 2072 : 							bHold, bAniFx1 );

  000c8	ff 75 ec	 push	 DWORD PTR _bAniFx1$[ebp]
  000cb	db 45 14	 fild	 DWORD PTR _dwPreDelay$[ebp]
  000ce	8b 45 14	 mov	 eax, DWORD PTR _dwPreDelay$[ebp]
  000d1	ff 75 18	 push	 DWORD PTR _bHold$[ebp]
  000d4	85 c0		 test	 eax, eax
  000d6	79 06		 jns	 SHORT $LN13@AimedFireT
  000d8	d8 05 00 00 00
	00		 fadd	 DWORD PTR __real@4f800000
$LN13@AimedFireT:
  000de	8b 4d 08	 mov	 ecx, DWORD PTR _pGrp$[ebp]
  000e1	83 ec 18	 sub	 esp, 24			; 00000018H
  000e4	d9 5c 24 14	 fstp	 DWORD PTR [esp+20]
  000e8	f3 0f 11 4c 24
	10		 movss	 DWORD PTR [esp+16], xmm1
  000ee	f3 0f 10 4d 10	 movss	 xmm1, DWORD PTR _fTimeRate$[ebp]
  000f3	0f 5a c9	 cvtps2pd xmm1, xmm1
  000f6	f2 0f 5e c1	 divsd	 xmm0, xmm1
  000fa	66 0f 5a c0	 cvtpd2ps xmm0, xmm0
  000fe	f3 0f 11 44 24
	0c		 movss	 DWORD PTR [esp+12], xmm0
  00104	f3 0f 10 45 f0	 movss	 xmm0, DWORD PTR _fFadeOut$[ebp]
  00109	f3 0f 11 54 24
	08		 movss	 DWORD PTR [esp+8], xmm2
  0010f	f3 0f 11 44 24
	04		 movss	 DWORD PTR [esp+4], xmm0
  00115	f3 0f 10 05 00
	00 00 00	 movss	 xmm0, DWORD PTR __real@42c80000
  0011d	8d 45 c8	 lea	 eax, DWORD PTR _szFireUp$[ebp]
  00120	f3 0f 11 04 24	 movss	 DWORD PTR [esp], xmm0
  00125	50		 push	 eax
  00126	ff d6		 call	 esi
  00128	f3 0f 10 55 0c	 movss	 xmm2, DWORD PTR _fWeight$[ebp]
  0012d	0f 57 c9	 xorps	 xmm1, xmm1
  00130	f2 0f 10 05 00
	00 00 00	 movsd	 xmm0, QWORD PTR __real@3ff0000000000000
$LN1@AimedFireT:

; 2073 : 	}
; 2074 : 
; 2075 : 	pGrp->SetActionAni( szFireCenter,
; 2076 : 						100.0f, fFadeOut,
; 2077 : 						1.0f - fWeight, 1.0f/fTimeRate,
; 2078 : 						0.0f, dwPreDelay,
; 2079 : 						bHold, bAniFx2 );

  00138	ff 75 e8	 push	 DWORD PTR _bAniFx2$[ebp]
  0013b	db 45 14	 fild	 DWORD PTR _dwPreDelay$[ebp]
  0013e	8b 45 14	 mov	 eax, DWORD PTR _dwPreDelay$[ebp]
  00141	ff 75 18	 push	 DWORD PTR _bHold$[ebp]
  00144	85 c0		 test	 eax, eax
  00146	79 06		 jns	 SHORT $LN14@AimedFireT
  00148	d8 05 00 00 00
	00		 fadd	 DWORD PTR __real@4f800000
$LN14@AimedFireT:
  0014e	8b 4d 08	 mov	 ecx, DWORD PTR _pGrp$[ebp]
  00151	83 ec 18	 sub	 esp, 24			; 00000018H
  00154	d9 5c 24 14	 fstp	 DWORD PTR [esp+20]
  00158	f3 0f 11 4c 24
	10		 movss	 DWORD PTR [esp+16], xmm1
  0015e	f3 0f 10 4d 10	 movss	 xmm1, DWORD PTR _fTimeRate$[ebp]
  00163	66 0f 28 d8	 movapd	 xmm3, xmm0
  00167	0f 5a c9	 cvtps2pd xmm1, xmm1
  0016a	f2 0f 5e d9	 divsd	 xmm3, xmm1
  0016e	0f 57 c9	 xorps	 xmm1, xmm1
  00171	f2 0f 5a cb	 cvtsd2ss xmm1, xmm3
  00175	f3 0f 11 4c 24
	0c		 movss	 DWORD PTR [esp+12], xmm1
  0017b	8d 45 d8	 lea	 eax, DWORD PTR _szFireCenter$[ebp]
  0017e	0f 5a ca	 cvtps2pd xmm1, xmm2
  00181	f2 0f 5c c1	 subsd	 xmm0, xmm1
  00185	66 0f 5a c0	 cvtpd2ps xmm0, xmm0
  00189	f3 0f 11 44 24
	08		 movss	 DWORD PTR [esp+8], xmm0
  0018f	f3 0f 10 45 f0	 movss	 xmm0, DWORD PTR _fFadeOut$[ebp]
  00194	f3 0f 11 44 24
	04		 movss	 DWORD PTR [esp+4], xmm0
  0019a	f3 0f 10 05 00
	00 00 00	 movss	 xmm0, DWORD PTR __real@42c80000
  001a2	f3 0f 11 04 24	 movss	 DWORD PTR [esp], xmm0
  001a7	50		 push	 eax
  001a8	ff d6		 call	 esi

; 2080 : }

  001aa	8b 35 00 00 00
	00		 mov	 esi, DWORD PTR __imp_??1ioHashString@@QAE@XZ
  001b0	8d 4d d8	 lea	 ecx, DWORD PTR _szFireCenter$[ebp]
  001b3	88 5d fc	 mov	 BYTE PTR __$EHRec$[ebp+8], bl
  001b6	ff d6		 call	 esi
  001b8	83 4d fc ff	 or	 DWORD PTR __$EHRec$[ebp+8], -1
  001bc	8d 4d c8	 lea	 ecx, DWORD PTR _szFireUp$[ebp]
  001bf	ff d6		 call	 esi
  001c1	e8 00 00 00 00	 call	 __EH_epilog3
  001c6	c2 14 00	 ret	 20			; 00000014H
_TEXT	ENDS
;	COMDAT text$x
text$x	SEGMENT
__unwindfunclet$?AimedFireToUp@ioRobinExpansionItem@@IAEXPAVioEntityGroup@@MMK_N@Z$0:
  00000	8d 4d c8	 lea	 ecx, DWORD PTR _szFireUp$[ebp]
  00003	ff 25 00 00 00
	00		 jmp	 DWORD PTR __imp_??1ioHashString@@QAE@XZ
__unwindfunclet$?AimedFireToUp@ioRobinExpansionItem@@IAEXPAVioEntityGroup@@MMK_N@Z$1:
  00009	8d 4d d8	 lea	 ecx, DWORD PTR _szFireCenter$[ebp]
  0000c	ff 25 00 00 00
	00		 jmp	 DWORD PTR __imp_??1ioHashString@@QAE@XZ
__ehhandler$?AimedFireToUp@ioRobinExpansionItem@@IAEXPAVioEntityGroup@@MMK_N@Z:
  00012	8b 54 24 08	 mov	 edx, DWORD PTR [esp+8]
  00016	8d 42 0c	 lea	 eax, DWORD PTR [edx+12]
  00019	8b 4a c4	 mov	 ecx, DWORD PTR [edx-60]
  0001c	33 c8		 xor	 ecx, eax
  0001e	e8 00 00 00 00	 call	 @__security_check_cookie@4
  00023	b8 00 00 00 00	 mov	 eax, OFFSET __ehfuncinfo$?AimedFireToUp@ioRobinExpansionItem@@IAEXPAVioEntityGroup@@MMK_N@Z
  00028	e9 00 00 00 00	 jmp	 ___CxxFrameHandler3
text$x	ENDS
?AimedFireToUp@ioRobinExpansionItem@@IAEXPAVioEntityGroup@@MMK_N@Z ENDP ; ioRobinExpansionItem::AimedFireToUp
PUBLIC	?AimedFireToDown@ioRobinExpansionItem@@IAEXPAVioEntityGroup@@MMK_N@Z ; ioRobinExpansionItem::AimedFireToDown
;	COMDAT xdata$x
xdata$x	SEGMENT
__unwindtable$?AimedFireToDown@ioRobinExpansionItem@@IAEXPAVioEntityGroup@@MMK_N@Z DD 0ffffffffH
	DD	FLAT:__unwindfunclet$?AimedFireToDown@ioRobinExpansionItem@@IAEXPAVioEntityGroup@@MMK_N@Z$0
	DD	00H
	DD	FLAT:__unwindfunclet$?AimedFireToDown@ioRobinExpansionItem@@IAEXPAVioEntityGroup@@MMK_N@Z$1
__ehfuncinfo$?AimedFireToDown@ioRobinExpansionItem@@IAEXPAVioEntityGroup@@MMK_N@Z DD 019930522H
	DD	02H
	DD	FLAT:__unwindtable$?AimedFireToDown@ioRobinExpansionItem@@IAEXPAVioEntityGroup@@MMK_N@Z
	DD	2 DUP(00H)
	DD	2 DUP(00H)
	DD	00H
	DD	01H
; Function compile flags: /Ogsp
xdata$x	ENDS
;	COMDAT ?AimedFireToDown@ioRobinExpansionItem@@IAEXPAVioEntityGroup@@MMK_N@Z
_TEXT	SEGMENT
_szFireDown$ = -56					; size = 16
_szFireCenter$ = -40					; size = 16
_bAniFx2$ = -24						; size = 1
tv217 = -20						; size = 4
_bAniFx1$ = -20						; size = 1
_fFadeOut$ = -16					; size = 4
__$EHRec$ = -12						; size = 12
_pGrp$ = 8						; size = 4
tv200 = 12						; size = 4
_fWeight$ = 12						; size = 4
_fTimeRate$ = 16					; size = 4
_dwPreDelay$ = 20					; size = 4
_bHold$ = 24						; size = 1
?AimedFireToDown@ioRobinExpansionItem@@IAEXPAVioEntityGroup@@MMK_N@Z PROC ; ioRobinExpansionItem::AimedFireToDown, COMDAT
; _this$ = ecx

; 2087 : {

  00000	6a 2c		 push	 44			; 0000002cH
  00002	b8 00 00 00 00	 mov	 eax, __ehhandler$?AimedFireToDown@ioRobinExpansionItem@@IAEXPAVioEntityGroup@@MMK_N@Z
  00007	e8 00 00 00 00	 call	 __EH_prolog3
  0000c	8b f1		 mov	 esi, ecx

; 2088 : 	float fFadeOut = 100.0f;

  0000e	f3 0f 10 05 00
	00 00 00	 movss	 xmm0, DWORD PTR __real@42c80000

; 2089 : 	if( !bHold )

  00016	33 db		 xor	 ebx, ebx
  00018	f3 0f 11 45 f0	 movss	 DWORD PTR _fFadeOut$[ebp], xmm0
  0001d	38 5d 18	 cmp	 BYTE PTR _bHold$[ebp], bl
  00020	75 08		 jne	 SHORT $LN7@AimedFireT@2

; 2090 : 		fFadeOut = 0.0f;

  00022	0f 57 c0	 xorps	 xmm0, xmm0
  00025	f3 0f 11 45 f0	 movss	 DWORD PTR _fFadeOut$[ebp], xmm0
$LN7@AimedFireT@2:

; 2091 : 	bool bAniFx1 = true;
; 2092 : 	bool bAniFx2 = false;
; 2093 : 	
; 2094 : 	if( fWeight > 0.5f )

  0002a	f3 0f 10 45 0c	 movss	 xmm0, DWORD PTR _fWeight$[ebp]
  0002f	0f 2f 05 00 00
	00 00		 comiss	 xmm0, DWORD PTR __real@3f000000
  00036	c6 45 ec 01	 mov	 BYTE PTR _bAniFx1$[ebp], 1
  0003a	88 5d e8	 mov	 BYTE PTR _bAniFx2$[ebp], bl
  0003d	76 07		 jbe	 SHORT $LN6@AimedFireT@2

; 2095 : 	{
; 2096 : 		bAniFx1 = false;

  0003f	88 5d ec	 mov	 BYTE PTR _bAniFx1$[ebp], bl

; 2097 : 		bAniFx2 = true;

  00042	c6 45 e8 01	 mov	 BYTE PTR _bAniFx2$[ebp], 1
$LN6@AimedFireT@2:

; 2098 : 	}
; 2099 : 	
; 2100 : 	ioHashString szFireDown, szFireCenter;

  00046	8b 3d 00 00 00
	00		 mov	 edi, DWORD PTR __imp_??0ioHashString@@QAE@XZ
  0004c	8d 4d c8	 lea	 ecx, DWORD PTR _szFireDown$[ebp]
  0004f	ff d7		 call	 edi
  00051	8d 4d d8	 lea	 ecx, DWORD PTR _szFireCenter$[ebp]
  00054	89 5d fc	 mov	 DWORD PTR __$EHRec$[ebp+8], ebx
  00057	ff d7		 call	 edi

; 2101 : 	if( m_bAimJumpAttack )
; 2102 : 	{
; 2103 : 		szFireDown = m_JumpFireDown;

  00059	8b 3d 00 00 00
	00		 mov	 edi, DWORD PTR __imp_??4ioHashString@@QAEAAV0@ABV0@@Z
  0005f	c6 45 fc 01	 mov	 BYTE PTR __$EHRec$[ebp+8], 1
  00063	8d 4d c8	 lea	 ecx, DWORD PTR _szFireDown$[ebp]
  00066	38 9e 59 1c 00
	00		 cmp	 BYTE PTR [esi+7257], bl
  0006c	74 11		 je	 SHORT $LN5@AimedFireT@2
  0006e	8d 86 c4 1c 00
	00		 lea	 eax, DWORD PTR [esi+7364]
  00074	50		 push	 eax
  00075	ff d7		 call	 edi

; 2104 : 		szFireCenter = m_JumpFireCenter;

  00077	81 c6 b4 1c 00
	00		 add	 esi, 7348		; 00001cb4H
  0007d	eb 28		 jmp	 SHORT $LN15@AimedFireT@2
$LN5@AimedFireT@2:

; 2105 : 	}
; 2106 : 	else if( m_bZeroAimState )

  0007f	38 9e 20 1c 00
	00		 cmp	 BYTE PTR [esi+7200], bl
  00085	74 11		 je	 SHORT $LN3@AimedFireT@2

; 2107 : 	{
; 2108 : 		szFireDown = m_ZeroFireDown;

  00087	8d 86 7c 1b 00
	00		 lea	 eax, DWORD PTR [esi+7036]
  0008d	50		 push	 eax
  0008e	ff d7		 call	 edi

; 2109 : 		szFireCenter = m_ZeroFireCenter;

  00090	81 c6 6c 1b 00
	00		 add	 esi, 7020		; 00001b6cH

; 2110 : 	}
; 2111 : 	else

  00096	eb 0f		 jmp	 SHORT $LN15@AimedFireT@2
$LN3@AimedFireT@2:

; 2112 : 	{
; 2113 : 		szFireDown = m_FireDown;

  00098	8d 86 1c 1b 00
	00		 lea	 eax, DWORD PTR [esi+6940]
  0009e	50		 push	 eax
  0009f	ff d7		 call	 edi

; 2114 : 		szFireCenter = m_FireCenter;

  000a1	81 c6 0c 1b 00
	00		 add	 esi, 6924		; 00001b0cH
$LN15@AimedFireT@2:
  000a7	56		 push	 esi
  000a8	8d 4d d8	 lea	 ecx, DWORD PTR _szFireCenter$[ebp]
  000ab	ff d7		 call	 edi

; 2115 : 	}
; 2116 : 
; 2117 : 	if( fWeight > 0.0f )

  000ad	f3 0f 10 55 0c	 movss	 xmm2, DWORD PTR _fWeight$[ebp]
  000b2	0f 57 c9	 xorps	 xmm1, xmm1
  000b5	0f 2f d1	 comiss	 xmm2, xmm1
  000b8	f2 0f 10 05 00
	00 00 00	 movsd	 xmm0, QWORD PTR __real@3ff0000000000000
  000c0	8b 35 00 00 00
	00		 mov	 esi, DWORD PTR __imp_?SetActionAni@ioEntityGroup@@QAE_NABVioHashString@@MMMMMM_N1@Z
  000c6	0f 86 82 00 00
	00		 jbe	 $LN1@AimedFireT@2

; 2118 : 	{
; 2119 : 		pGrp->SetActionAni( szFireCenter,
; 2120 : 							100.0f, fFadeOut,
; 2121 : 							1.0f - fWeight, 1.0f/fTimeRate,
; 2122 : 							0.0f, dwPreDelay,
; 2123 : 							bHold, bAniFx1 );

  000cc	ff 75 ec	 push	 DWORD PTR _bAniFx1$[ebp]
  000cf	db 45 14	 fild	 DWORD PTR _dwPreDelay$[ebp]
  000d2	8b 45 14	 mov	 eax, DWORD PTR _dwPreDelay$[ebp]
  000d5	ff 75 18	 push	 DWORD PTR _bHold$[ebp]
  000d8	85 c0		 test	 eax, eax
  000da	79 06		 jns	 SHORT $LN13@AimedFireT@2
  000dc	d8 05 00 00 00
	00		 fadd	 DWORD PTR __real@4f800000
$LN13@AimedFireT@2:
  000e2	8b 4d 08	 mov	 ecx, DWORD PTR _pGrp$[ebp]
  000e5	83 ec 18	 sub	 esp, 24			; 00000018H
  000e8	d9 5c 24 14	 fstp	 DWORD PTR [esp+20]
  000ec	f3 0f 11 4c 24
	10		 movss	 DWORD PTR [esp+16], xmm1
  000f2	f3 0f 10 4d 10	 movss	 xmm1, DWORD PTR _fTimeRate$[ebp]
  000f7	66 0f 28 d8	 movapd	 xmm3, xmm0
  000fb	0f 5a c9	 cvtps2pd xmm1, xmm1
  000fe	f2 0f 5e d9	 divsd	 xmm3, xmm1
  00102	0f 57 c9	 xorps	 xmm1, xmm1
  00105	f2 0f 5a cb	 cvtsd2ss xmm1, xmm3
  00109	f3 0f 11 4c 24
	0c		 movss	 DWORD PTR [esp+12], xmm1
  0010f	8d 45 d8	 lea	 eax, DWORD PTR _szFireCenter$[ebp]
  00112	0f 5a ca	 cvtps2pd xmm1, xmm2
  00115	f2 0f 5c c1	 subsd	 xmm0, xmm1
  00119	66 0f 5a c0	 cvtpd2ps xmm0, xmm0
  0011d	f3 0f 11 44 24
	08		 movss	 DWORD PTR [esp+8], xmm0
  00123	f3 0f 10 45 f0	 movss	 xmm0, DWORD PTR _fFadeOut$[ebp]
  00128	f3 0f 11 44 24
	04		 movss	 DWORD PTR [esp+4], xmm0
  0012e	f3 0f 10 05 00
	00 00 00	 movss	 xmm0, DWORD PTR __real@42c80000
  00136	f3 0f 11 04 24	 movss	 DWORD PTR [esp], xmm0
  0013b	50		 push	 eax
  0013c	ff d6		 call	 esi
  0013e	f3 0f 10 55 0c	 movss	 xmm2, DWORD PTR _fWeight$[ebp]
  00143	0f 57 c9	 xorps	 xmm1, xmm1
  00146	f2 0f 10 05 00
	00 00 00	 movsd	 xmm0, QWORD PTR __real@3ff0000000000000
$LN1@AimedFireT@2:

; 2124 : 	}
; 2125 : 
; 2126 : 	pGrp->SetActionAni( szFireDown,
; 2127 : 						100.0f, fFadeOut,
; 2128 : 						fWeight, 1.0f/fTimeRate,
; 2129 : 						0.0f, dwPreDelay,
; 2130 : 						bHold, bAniFx2 );

  0014e	ff 75 e8	 push	 DWORD PTR _bAniFx2$[ebp]
  00151	db 45 14	 fild	 DWORD PTR _dwPreDelay$[ebp]
  00154	8b 45 14	 mov	 eax, DWORD PTR _dwPreDelay$[ebp]
  00157	ff 75 18	 push	 DWORD PTR _bHold$[ebp]
  0015a	85 c0		 test	 eax, eax
  0015c	79 06		 jns	 SHORT $LN14@AimedFireT@2
  0015e	d8 05 00 00 00
	00		 fadd	 DWORD PTR __real@4f800000
$LN14@AimedFireT@2:
  00164	8b 4d 08	 mov	 ecx, DWORD PTR _pGrp$[ebp]
  00167	83 ec 18	 sub	 esp, 24			; 00000018H
  0016a	d9 5c 24 14	 fstp	 DWORD PTR [esp+20]
  0016e	f3 0f 11 4c 24
	10		 movss	 DWORD PTR [esp+16], xmm1
  00174	f3 0f 10 4d 10	 movss	 xmm1, DWORD PTR _fTimeRate$[ebp]
  00179	0f 5a c9	 cvtps2pd xmm1, xmm1
  0017c	f2 0f 5e c1	 divsd	 xmm0, xmm1
  00180	66 0f 5a c0	 cvtpd2ps xmm0, xmm0
  00184	f3 0f 11 44 24
	0c		 movss	 DWORD PTR [esp+12], xmm0
  0018a	f3 0f 10 45 f0	 movss	 xmm0, DWORD PTR _fFadeOut$[ebp]
  0018f	f3 0f 11 54 24
	08		 movss	 DWORD PTR [esp+8], xmm2
  00195	f3 0f 11 44 24
	04		 movss	 DWORD PTR [esp+4], xmm0
  0019b	f3 0f 10 05 00
	00 00 00	 movss	 xmm0, DWORD PTR __real@42c80000
  001a3	8d 45 c8	 lea	 eax, DWORD PTR _szFireDown$[ebp]
  001a6	f3 0f 11 04 24	 movss	 DWORD PTR [esp], xmm0
  001ab	50		 push	 eax
  001ac	ff d6		 call	 esi

; 2131 : }

  001ae	8b 35 00 00 00
	00		 mov	 esi, DWORD PTR __imp_??1ioHashString@@QAE@XZ
  001b4	8d 4d d8	 lea	 ecx, DWORD PTR _szFireCenter$[ebp]
  001b7	88 5d fc	 mov	 BYTE PTR __$EHRec$[ebp+8], bl
  001ba	ff d6		 call	 esi
  001bc	83 4d fc ff	 or	 DWORD PTR __$EHRec$[ebp+8], -1
  001c0	8d 4d c8	 lea	 ecx, DWORD PTR _szFireDown$[ebp]
  001c3	ff d6		 call	 esi
  001c5	e8 00 00 00 00	 call	 __EH_epilog3
  001ca	c2 14 00	 ret	 20			; 00000014H
_TEXT	ENDS
;	COMDAT text$x
text$x	SEGMENT
__unwindfunclet$?AimedFireToDown@ioRobinExpansionItem@@IAEXPAVioEntityGroup@@MMK_N@Z$0:
  00000	8d 4d c8	 lea	 ecx, DWORD PTR _szFireDown$[ebp]
  00003	ff 25 00 00 00
	00		 jmp	 DWORD PTR __imp_??1ioHashString@@QAE@XZ
__unwindfunclet$?AimedFireToDown@ioRobinExpansionItem@@IAEXPAVioEntityGroup@@MMK_N@Z$1:
  00009	8d 4d d8	 lea	 ecx, DWORD PTR _szFireCenter$[ebp]
  0000c	ff 25 00 00 00
	00		 jmp	 DWORD PTR __imp_??1ioHashString@@QAE@XZ
__ehhandler$?AimedFireToDown@ioRobinExpansionItem@@IAEXPAVioEntityGroup@@MMK_N@Z:
  00012	8b 54 24 08	 mov	 edx, DWORD PTR [esp+8]
  00016	8d 42 0c	 lea	 eax, DWORD PTR [edx+12]
  00019	8b 4a c4	 mov	 ecx, DWORD PTR [edx-60]
  0001c	33 c8		 xor	 ecx, eax
  0001e	e8 00 00 00 00	 call	 @__security_check_cookie@4
  00023	b8 00 00 00 00	 mov	 eax, OFFSET __ehfuncinfo$?AimedFireToDown@ioRobinExpansionItem@@IAEXPAVioEntityGroup@@MMK_N@Z
  00028	e9 00 00 00 00	 jmp	 ___CxxFrameHandler3
text$x	ENDS
?AimedFireToDown@ioRobinExpansionItem@@IAEXPAVioEntityGroup@@MMK_N@Z ENDP ; ioRobinExpansionItem::AimedFireToDown
PUBLIC	?GetSubType@ioRobinExpansionItem@@UBE?AW4WeaponSubType@ioWeaponItem@@XZ ; ioRobinExpansionItem::GetSubType
; Function compile flags: /Ogsp
;	COMDAT ?GetSubType@ioRobinExpansionItem@@UBE?AW4WeaponSubType@ioWeaponItem@@XZ
_TEXT	SEGMENT
?GetSubType@ioRobinExpansionItem@@UBE?AW4WeaponSubType@ioWeaponItem@@XZ PROC ; ioRobinExpansionItem::GetSubType, COMDAT
; _this$ = ecx

; 2382 : 	return WST_ROBIN_EXPANSION_ITEM;

  00000	6a 6d		 push	 109			; 0000006dH
  00002	58		 pop	 eax

; 2383 : }

  00003	c3		 ret	 0
?GetSubType@ioRobinExpansionItem@@UBE?AW4WeaponSubType@ioWeaponItem@@XZ ENDP ; ioRobinExpansionItem::GetSubType
_TEXT	ENDS
PUBLIC	__real@3f800000
PUBLIC	??_C@_00CNPNBAHC@?$AA@				; `string'
PUBLIC	?OnReleased@ioRobinExpansionItem@@UAEXPAVioBaseChar@@@Z ; ioRobinExpansionItem::OnReleased
EXTRN	?OnReleased@ioWeaponItem@@UAEXPAVioBaseChar@@@Z:PROC ; ioWeaponItem::OnReleased
EXTRN	?SetTargetMarker@ioBaseGUISupport@@QAEXW4MarkerType@ioTargetMarker@@ABVioHashString@@1111W4TargetedType@@@Z:PROC ; ioBaseGUISupport::SetTargetMarker
EXTRN	__imp_??0ioHashString@@QAE@PBD@Z:PROC
;	COMDAT __real@3f800000
CONST	SEGMENT
__real@3f800000 DD 03f800000r			; 1
CONST	ENDS
;	COMDAT ??_C@_00CNPNBAHC@?$AA@
CONST	SEGMENT
??_C@_00CNPNBAHC@?$AA@ DB 00H				; `string'
CONST	ENDS
;	COMDAT xdata$x
xdata$x	SEGMENT
__ehfuncinfo$?OnReleased@ioRobinExpansionItem@@UAEXPAVioBaseChar@@@Z DD 019930522H
	DD	05H
	DD	FLAT:__unwindtable$?OnReleased@ioRobinExpansionItem@@UAEXPAVioBaseChar@@@Z
	DD	2 DUP(00H)
	DD	2 DUP(00H)
	DD	00H
	DD	01H
__unwindtable$?OnReleased@ioRobinExpansionItem@@UAEXPAVioBaseChar@@@Z DD 0ffffffffH
	DD	FLAT:__unwindfunclet$?OnReleased@ioRobinExpansionItem@@UAEXPAVioBaseChar@@@Z$0
	DD	00H
	DD	FLAT:__unwindfunclet$?OnReleased@ioRobinExpansionItem@@UAEXPAVioBaseChar@@@Z$1
	DD	01H
	DD	FLAT:__unwindfunclet$?OnReleased@ioRobinExpansionItem@@UAEXPAVioBaseChar@@@Z$2
	DD	02H
	DD	FLAT:__unwindfunclet$?OnReleased@ioRobinExpansionItem@@UAEXPAVioBaseChar@@@Z$3
	DD	03H
	DD	FLAT:__unwindfunclet$?OnReleased@ioRobinExpansionItem@@UAEXPAVioBaseChar@@@Z$4
; Function compile flags: /Ogsp
xdata$x	ENDS
;	COMDAT ?OnReleased@ioRobinExpansionItem@@UAEXPAVioBaseChar@@@Z
_TEXT	SEGMENT
$T555004 = -92						; size = 16
$T555005 = -76						; size = 16
$T555006 = -60						; size = 16
$T555007 = -44						; size = 16
$T555008 = -28						; size = 16
__$EHRec$ = -12						; size = 12
_pOwner$ = 8						; size = 4
?OnReleased@ioRobinExpansionItem@@UAEXPAVioBaseChar@@@Z PROC ; ioRobinExpansionItem::OnReleased, COMDAT
; _this$ = ecx

; 2398 : {

  00000	6a 50		 push	 80			; 00000050H
  00002	b8 00 00 00 00	 mov	 eax, __ehhandler$?OnReleased@ioRobinExpansionItem@@UAEXPAVioBaseChar@@@Z
  00007	e8 00 00 00 00	 call	 __EH_prolog3
  0000c	8b d9		 mov	 ebx, ecx

; 2399 : 	pOwner->SetTargetMarker( ioTargetMarker::MT_NONE, "", "", "", "","" );

  0000e	8b 35 00 00 00
	00		 mov	 esi, DWORD PTR __imp_??0ioHashString@@QAE@PBD@Z
  00014	bf 00 00 00 00	 mov	 edi, OFFSET ??_C@_00CNPNBAHC@?$AA@
  00019	57		 push	 edi
  0001a	8d 4d a4	 lea	 ecx, DWORD PTR $T555004[ebp]
  0001d	ff d6		 call	 esi
  0001f	83 65 fc 00	 and	 DWORD PTR __$EHRec$[ebp+8], 0
  00023	57		 push	 edi
  00024	8d 4d b4	 lea	 ecx, DWORD PTR $T555005[ebp]
  00027	ff d6		 call	 esi
  00029	57		 push	 edi
  0002a	8d 4d c4	 lea	 ecx, DWORD PTR $T555006[ebp]
  0002d	c6 45 fc 01	 mov	 BYTE PTR __$EHRec$[ebp+8], 1
  00031	ff d6		 call	 esi
  00033	57		 push	 edi
  00034	8d 4d d4	 lea	 ecx, DWORD PTR $T555007[ebp]
  00037	c6 45 fc 02	 mov	 BYTE PTR __$EHRec$[ebp+8], 2
  0003b	ff d6		 call	 esi
  0003d	57		 push	 edi
  0003e	8d 4d e4	 lea	 ecx, DWORD PTR $T555008[ebp]
  00041	c6 45 fc 03	 mov	 BYTE PTR __$EHRec$[ebp+8], 3
  00045	ff d6		 call	 esi
  00047	8b 7d 08	 mov	 edi, DWORD PTR _pOwner$[ebp]
  0004a	6a 00		 push	 0
  0004c	8d 45 a4	 lea	 eax, DWORD PTR $T555004[ebp]
  0004f	50		 push	 eax
  00050	8d 45 b4	 lea	 eax, DWORD PTR $T555005[ebp]
  00053	50		 push	 eax
  00054	8d 45 c4	 lea	 eax, DWORD PTR $T555006[ebp]
  00057	50		 push	 eax
  00058	8d 45 d4	 lea	 eax, DWORD PTR $T555007[ebp]
  0005b	50		 push	 eax
  0005c	8d 45 e4	 lea	 eax, DWORD PTR $T555008[ebp]
  0005f	50		 push	 eax
  00060	6a 00		 push	 0
  00062	8d 8f cc 01 00
	00		 lea	 ecx, DWORD PTR [edi+460]
  00068	c6 45 fc 04	 mov	 BYTE PTR __$EHRec$[ebp+8], 4
  0006c	e8 00 00 00 00	 call	 ?SetTargetMarker@ioBaseGUISupport@@QAEXW4MarkerType@ioTargetMarker@@ABVioHashString@@1111W4TargetedType@@@Z ; ioBaseGUISupport::SetTargetMarker
  00071	8b 35 00 00 00
	00		 mov	 esi, DWORD PTR __imp_??1ioHashString@@QAE@XZ
  00077	8d 4d e4	 lea	 ecx, DWORD PTR $T555008[ebp]
  0007a	c6 45 fc 03	 mov	 BYTE PTR __$EHRec$[ebp+8], 3
  0007e	ff d6		 call	 esi
  00080	8d 4d d4	 lea	 ecx, DWORD PTR $T555007[ebp]
  00083	c6 45 fc 02	 mov	 BYTE PTR __$EHRec$[ebp+8], 2
  00087	ff d6		 call	 esi
  00089	8d 4d c4	 lea	 ecx, DWORD PTR $T555006[ebp]
  0008c	c6 45 fc 01	 mov	 BYTE PTR __$EHRec$[ebp+8], 1
  00090	ff d6		 call	 esi
  00092	8d 4d b4	 lea	 ecx, DWORD PTR $T555005[ebp]
  00095	c6 45 fc 00	 mov	 BYTE PTR __$EHRec$[ebp+8], 0
  00099	ff d6		 call	 esi
  0009b	83 4d fc ff	 or	 DWORD PTR __$EHRec$[ebp+8], -1
  0009f	8d 4d a4	 lea	 ecx, DWORD PTR $T555004[ebp]
  000a2	ff d6		 call	 esi

; 2400 : 
; 2401 : 	m_fReloadTimeModifyRate = 1.0f;

  000a4	f3 0f 10 05 00
	00 00 00	 movss	 xmm0, DWORD PTR __real@3f800000

; 2402 : 	m_fFireTimeModifyRate = 1.0f;
; 2403 : 
; 2404 : 	ioWeaponItem::OnReleased( pOwner );

  000ac	57		 push	 edi
  000ad	8b cb		 mov	 ecx, ebx
  000af	f3 0f 11 83 d8
	1b 00 00	 movss	 DWORD PTR [ebx+7128], xmm0
  000b7	f3 0f 11 83 dc
	1b 00 00	 movss	 DWORD PTR [ebx+7132], xmm0
  000bf	e8 00 00 00 00	 call	 ?OnReleased@ioWeaponItem@@UAEXPAVioBaseChar@@@Z ; ioWeaponItem::OnReleased

; 2405 : }

  000c4	e8 00 00 00 00	 call	 __EH_epilog3
  000c9	c2 04 00	 ret	 4
_TEXT	ENDS
;	COMDAT text$x
text$x	SEGMENT
__unwindfunclet$?OnReleased@ioRobinExpansionItem@@UAEXPAVioBaseChar@@@Z$0:
  00000	8d 4d a4	 lea	 ecx, DWORD PTR $T555004[ebp]
  00003	ff 25 00 00 00
	00		 jmp	 DWORD PTR __imp_??1ioHashString@@QAE@XZ
__unwindfunclet$?OnReleased@ioRobinExpansionItem@@UAEXPAVioBaseChar@@@Z$1:
  00009	8d 4d b4	 lea	 ecx, DWORD PTR $T555005[ebp]
  0000c	ff 25 00 00 00
	00		 jmp	 DWORD PTR __imp_??1ioHashString@@QAE@XZ
__unwindfunclet$?OnReleased@ioRobinExpansionItem@@UAEXPAVioBaseChar@@@Z$2:
  00012	8d 4d c4	 lea	 ecx, DWORD PTR $T555006[ebp]
  00015	ff 25 00 00 00
	00		 jmp	 DWORD PTR __imp_??1ioHashString@@QAE@XZ
__unwindfunclet$?OnReleased@ioRobinExpansionItem@@UAEXPAVioBaseChar@@@Z$3:
  0001b	8d 4d d4	 lea	 ecx, DWORD PTR $T555007[ebp]
  0001e	ff 25 00 00 00
	00		 jmp	 DWORD PTR __imp_??1ioHashString@@QAE@XZ
__unwindfunclet$?OnReleased@ioRobinExpansionItem@@UAEXPAVioBaseChar@@@Z$4:
  00024	8d 4d e4	 lea	 ecx, DWORD PTR $T555008[ebp]
  00027	ff 25 00 00 00
	00		 jmp	 DWORD PTR __imp_??1ioHashString@@QAE@XZ
__ehhandler$?OnReleased@ioRobinExpansionItem@@UAEXPAVioBaseChar@@@Z:
  0002d	8b 54 24 08	 mov	 edx, DWORD PTR [esp+8]
  00031	8d 42 0c	 lea	 eax, DWORD PTR [edx+12]
  00034	8b 4a a0	 mov	 ecx, DWORD PTR [edx-96]
  00037	33 c8		 xor	 ecx, eax
  00039	e8 00 00 00 00	 call	 @__security_check_cookie@4
  0003e	b8 00 00 00 00	 mov	 eax, OFFSET __ehfuncinfo$?OnReleased@ioRobinExpansionItem@@UAEXPAVioBaseChar@@@Z
  00043	e9 00 00 00 00	 jmp	 ___CxxFrameHandler3
text$x	ENDS
?OnReleased@ioRobinExpansionItem@@UAEXPAVioBaseChar@@@Z ENDP ; ioRobinExpansionItem::OnReleased
PUBLIC	?ModifyFireTimeRate@ioRobinExpansionItem@@QAEXM@Z ; ioRobinExpansionItem::ModifyFireTimeRate
; Function compile flags: /Ogsp
;	COMDAT ?ModifyFireTimeRate@ioRobinExpansionItem@@QAEXM@Z
_TEXT	SEGMENT
_fRate$ = 8						; size = 4
?ModifyFireTimeRate@ioRobinExpansionItem@@QAEXM@Z PROC	; ioRobinExpansionItem::ModifyFireTimeRate, COMDAT
; _this$ = ecx

; 2451 : {

  00000	55		 push	 ebp
  00001	8b ec		 mov	 ebp, esp

; 2452 : 	m_fFireTimeModifyRate *= fRate;

  00003	f3 0f 10 89 dc
	1b 00 00	 movss	 xmm1, DWORD PTR [ecx+7132]
  0000b	f3 0f 10 45 08	 movss	 xmm0, DWORD PTR _fRate$[ebp]
  00010	0f 5a c0	 cvtps2pd xmm0, xmm0
  00013	0f 5a c9	 cvtps2pd xmm1, xmm1
  00016	f2 0f 59 c1	 mulsd	 xmm0, xmm1
  0001a	66 0f 5a c0	 cvtpd2ps xmm0, xmm0
  0001e	f3 0f 11 81 dc
	1b 00 00	 movss	 DWORD PTR [ecx+7132], xmm0

; 2453 : }

  00026	5d		 pop	 ebp
  00027	c2 04 00	 ret	 4
?ModifyFireTimeRate@ioRobinExpansionItem@@QAEXM@Z ENDP	; ioRobinExpansionItem::ModifyFireTimeRate
_TEXT	ENDS
PUBLIC	?SetAimedSkillUse@ioRobinExpansionItem@@QAEX_N@Z ; ioRobinExpansionItem::SetAimedSkillUse
; Function compile flags: /Ogsp
;	COMDAT ?SetAimedSkillUse@ioRobinExpansionItem@@QAEX_N@Z
_TEXT	SEGMENT
_bSkillUsed$ = 8					; size = 1
?SetAimedSkillUse@ioRobinExpansionItem@@QAEX_N@Z PROC	; ioRobinExpansionItem::SetAimedSkillUse, COMDAT
; _this$ = ecx

; 2464 : {

  00000	55		 push	 ebp
  00001	8b ec		 mov	 ebp, esp

; 2465 : 	m_bSetSkillAimed = bSkillUsed;

  00003	8a 45 08	 mov	 al, BYTE PTR _bSkillUsed$[ebp]
  00006	88 81 50 1c 00
	00		 mov	 BYTE PTR [ecx+7248], al

; 2466 : }

  0000c	5d		 pop	 ebp
  0000d	c2 04 00	 ret	 4
?SetAimedSkillUse@ioRobinExpansionItem@@QAEX_N@Z ENDP	; ioRobinExpansionItem::SetAimedSkillUse
_TEXT	ENDS
PUBLIC	?SetAimedDirSet@ioRobinExpansionItem@@QAEX_N@Z	; ioRobinExpansionItem::SetAimedDirSet
; Function compile flags: /Ogsp
;	COMDAT ?SetAimedDirSet@ioRobinExpansionItem@@QAEX_N@Z
_TEXT	SEGMENT
_bAimedSet$ = 8						; size = 1
?SetAimedDirSet@ioRobinExpansionItem@@QAEX_N@Z PROC	; ioRobinExpansionItem::SetAimedDirSet, COMDAT
; _this$ = ecx

; 2469 : {

  00000	55		 push	 ebp
  00001	8b ec		 mov	 ebp, esp

; 2470 : 	m_bSetAimedDir = bAimedSet;

  00003	8a 45 08	 mov	 al, BYTE PTR _bAimedSet$[ebp]
  00006	88 81 51 1c 00
	00		 mov	 BYTE PTR [ecx+7249], al

; 2471 : }

  0000c	5d		 pop	 ebp
  0000d	c2 04 00	 ret	 4
?SetAimedDirSet@ioRobinExpansionItem@@QAEX_N@Z ENDP	; ioRobinExpansionItem::SetAimedDirSet
_TEXT	ENDS
PUBLIC	__real@bf800000
PUBLIC	___$ReturnUdt$GSCopy$
PUBLIC	__$ArrayPad$
PUBLIC	?ReCalcMoveDir@ioRobinExpansionItem@@QAE?AUD3DXVECTOR3@@PAVioBaseChar@@PAVioWeapon@@@Z ; ioRobinExpansionItem::ReCalcMoveDir
EXTRN	_D3DXVec3Normalize@8:PROC
EXTRN	?GetMidPositionByRate@ioGameEntity@@QBE?AUD3DXVECTOR3@@M@Z:PROC ; ioGameEntity::GetMidPositionByRate
EXTRN	__imp_??D@YA?AUD3DXVECTOR3@@ABUD3DXQUATERNION@@ABU0@@Z:PROC
EXTRN	?GetBaseChar@ioBaseChar@@QAEPAV1@ABVioHashString@@@Z:PROC ; ioBaseChar::GetBaseChar
;	COMDAT __real@bf800000
; File c:\program files (x86)\microsoft directx sdk (june 2010)\include\d3dx9math.inl
CONST	SEGMENT
__real@bf800000 DD 0bf800000r			; -1
; Function compile flags: /Ogsp
; File d:\lost saga for developer\youtube\tutorial\source\src\lsclient\iorobinexpansionitem.cpp
CONST	ENDS
;	COMDAT ?ReCalcMoveDir@ioRobinExpansionItem@@QAE?AUD3DXVECTOR3@@PAVioBaseChar@@PAVioWeapon@@@Z
_TEXT	SEGMENT
_pTarget$ = -60						; size = 4
___$ReturnUdt$GSCopy$ = -56				; size = 4
$T544618 = -52						; size = 12
_vWeaponPos$ = -40					; size = 12
$T544615 = -40						; size = 12
_vAimedDir$ = -28					; size = 12
_vTargetPos$ = -16					; size = 12
$T544614 = -16						; size = 12
__$ArrayPad$ = -4					; size = 4
___$ReturnUdt$ = 8					; size = 4
_pOwner$ = 12						; size = 4
_pWeapon$ = 16						; size = 4
?ReCalcMoveDir@ioRobinExpansionItem@@QAE?AUD3DXVECTOR3@@PAVioBaseChar@@PAVioWeapon@@@Z PROC ; ioRobinExpansionItem::ReCalcMoveDir, COMDAT
; _this$ = ecx

; 2474 : {

  00000	55		 push	 ebp
  00001	8b ec		 mov	 ebp, esp
  00003	83 ec 3c	 sub	 esp, 60			; 0000003cH
  00006	a1 00 00 00 00	 mov	 eax, DWORD PTR ___security_cookie
  0000b	33 c5		 xor	 eax, ebp
  0000d	89 45 fc	 mov	 DWORD PTR __$ArrayPad$[ebp], eax
  00010	8b 45 08	 mov	 eax, DWORD PTR ___$ReturnUdt$[ebp]
  00013	53		 push	 ebx
  00014	56		 push	 esi
  00015	8b 75 10	 mov	 esi, DWORD PTR _pWeapon$[ebp]
  00018	8b d9		 mov	 ebx, ecx
  0001a	57		 push	 edi
  0001b	8b 7d 0c	 mov	 edi, DWORD PTR _pOwner$[ebp]

; 2475 : 	/*ioBaseChar *pTarget = pOwner->GetBaseChar( m_AimedTarget );
; 2476 : 	if( !pTarget && !m_bAimedBall )
; 2477 : 		return m_vAimedDir;
; 2478 : 
; 2479 : 	ioBall *pBall = pOwner->FindBall();
; 2480 : 	if( !pTarget && !pBall ) return m_vAimedDir;
; 2481 : 
; 2482 : 	D3DXVECTOR3 vTargetPos;
; 2483 : 	D3DXVECTOR3 vWeaponPos = pWeapon->GetPosition();
; 2484 : 
; 2485 : 	if( pTarget )
; 2486 : 	{
; 2487 : 		if( CheckDownAimState( pTarget ) )
; 2488 : 			vTargetPos = pTarget->GetMidPositionByRate( m_fDownTargetAimRate );
; 2489 : 		else
; 2490 : 			vTargetPos = pTarget->GetMidPositionByRate( m_fTargetAimRate );
; 2491 : 	}
; 2492 : 	else if( m_bAimedBall && pBall )
; 2493 : 		vTargetPos = pBall->GetMidPositionByRate();
; 2494 : 
; 2495 : 	D3DXVECTOR3 vAimedDir =  vTargetPos - vWeaponPos;
; 2496 : 	D3DXVec3Normalize( &vAimedDir, &vAimedDir );
; 2497 : 	
; 2498 : 	vAimedDir.x = m_vAimedDir.x;
; 2499 : 	vAimedDir.z = m_vAimedDir.z;
; 2500 : 
; 2501 : 	D3DXVec3Normalize( &vAimedDir, &vAimedDir );
; 2502 : 
; 2503 : 	return vAimedDir;*/
; 2504 : 
; 2505 : 
; 2506 : 	ioBaseChar *pTarget = pOwner->GetBaseChar( m_AimedTarget );

  0001e	89 45 c8	 mov	 DWORD PTR ___$ReturnUdt$GSCopy$[ebp], eax
  00021	8d 83 9c 02 00
	00		 lea	 eax, DWORD PTR [ebx+668]
  00027	50		 push	 eax
  00028	8b cf		 mov	 ecx, edi
  0002a	e8 00 00 00 00	 call	 ?GetBaseChar@ioBaseChar@@QAEPAV1@ABVioHashString@@@Z ; ioBaseChar::GetBaseChar
  0002f	89 45 c4	 mov	 DWORD PTR _pTarget$[ebp], eax

; 2507 : 	if( !pTarget )//&& !m_bAimedBall )

  00032	85 c0		 test	 eax, eax
  00034	75 48		 jne	 SHORT $LN1@ReCalcMove

; 2508 : 	{
; 2509 : 		m_vAimedDir = pOwner->GetTargetRot() * D3DXVECTOR3( 0.0f, 0.0f, -1.0f );

  00036	0f 57 c0	 xorps	 xmm0, xmm0
  00039	8d 45 f0	 lea	 eax, DWORD PTR $T544614[ebp]
  0003c	50		 push	 eax
  0003d	81 c7 a4 06 00
	00		 add	 edi, 1700		; 000006a4H
  00043	8d 45 d8	 lea	 eax, DWORD PTR $T544615[ebp]
  00046	f3 0f 11 45 f0	 movss	 DWORD PTR $T544614[ebp], xmm0
  0004b	f3 0f 11 45 f4	 movss	 DWORD PTR $T544614[ebp+4], xmm0
  00050	f3 0f 10 05 00
	00 00 00	 movss	 xmm0, DWORD PTR __real@bf800000
  00058	57		 push	 edi
  00059	50		 push	 eax
  0005a	f3 0f 11 45 f8	 movss	 DWORD PTR $T544614[ebp+8], xmm0
  0005f	ff 15 00 00 00
	00		 call	 DWORD PTR __imp_??D@YA?AUD3DXVECTOR3@@ABUD3DXQUATERNION@@ABU0@@Z
  00065	8b f0		 mov	 esi, eax
  00067	8d bb f8 1c 00
	00		 lea	 edi, DWORD PTR [ebx+7416]
  0006d	a5		 movsd
  0006e	a5		 movsd
  0006f	a5		 movsd
  00070	83 c4 0c	 add	 esp, 12			; 0000000cH

; 2510 : 		return m_vAimedDir;

  00073	8d b3 f8 1c 00
	00		 lea	 esi, DWORD PTR [ebx+7416]
  00079	e9 a1 00 00 00	 jmp	 $LN14@ReCalcMove
$LN1@ReCalcMove:

; 2511 : 	}
; 2512 : 
; 2513 : 	//ioBall *pBall = pOwner->FindBall();
; 2514 : 	//if( !pTarget && !pBall ) return m_vAimedDir;
; 2515 : 
; 2516 : 	D3DXVECTOR3 vTargetPos;
; 2517 : 	D3DXVECTOR3 vWeaponPos = pWeapon->GetPosition();

  0007e	8b 06		 mov	 eax, DWORD PTR [esi]
  00080	8b ce		 mov	 ecx, esi
  00082	ff 50 70	 call	 DWORD PTR [eax+112]

; 2518 : 	vTargetPos = pTarget->GetMidPositionByRate( m_fTargetAimRate );

  00085	f3 0f 10 83 bc
	1e 00 00	 movss	 xmm0, DWORD PTR [ebx+7868]
  0008d	8b f0		 mov	 esi, eax
  0008f	8d 7d d8	 lea	 edi, DWORD PTR _vWeaponPos$[ebp]
  00092	a5		 movsd
  00093	51		 push	 ecx
  00094	8b 4d c4	 mov	 ecx, DWORD PTR _pTarget$[ebp]
  00097	a5		 movsd
  00098	8d 45 cc	 lea	 eax, DWORD PTR $T544618[ebp]
  0009b	f3 0f 11 04 24	 movss	 DWORD PTR [esp], xmm0
  000a0	50		 push	 eax
  000a1	a5		 movsd
  000a2	e8 00 00 00 00	 call	 ?GetMidPositionByRate@ioGameEntity@@QBE?AUD3DXVECTOR3@@M@Z ; ioGameEntity::GetMidPositionByRate

; 2519 : 
; 2520 : 	D3DXVECTOR3 vAimedDir =  vTargetPos - vWeaponPos;

  000a7	f3 0f 10 4d d8	 movss	 xmm1, DWORD PTR _vWeaponPos$[ebp]
  000ac	8b f0		 mov	 esi, eax
  000ae	8d 7d f0	 lea	 edi, DWORD PTR _vTargetPos$[ebp]
  000b1	a5		 movsd
  000b2	a5		 movsd
  000b3	a5		 movsd
  000b4	f3 0f 10 45 f0	 movss	 xmm0, DWORD PTR _vTargetPos$[ebp]
  000b9	0f 5a c0	 cvtps2pd xmm0, xmm0
  000bc	0f 5a c9	 cvtps2pd xmm1, xmm1
  000bf	f2 0f 5c c1	 subsd	 xmm0, xmm1
  000c3	f3 0f 10 4d dc	 movss	 xmm1, DWORD PTR _vWeaponPos$[ebp+4]
  000c8	66 0f 5a c0	 cvtpd2ps xmm0, xmm0
  000cc	f3 0f 11 45 e4	 movss	 DWORD PTR _vAimedDir$[ebp], xmm0
  000d1	f3 0f 10 45 f4	 movss	 xmm0, DWORD PTR _vTargetPos$[ebp+4]
  000d6	0f 5a c0	 cvtps2pd xmm0, xmm0
  000d9	0f 5a c9	 cvtps2pd xmm1, xmm1
  000dc	f2 0f 5c c1	 subsd	 xmm0, xmm1
  000e0	f3 0f 10 4d e0	 movss	 xmm1, DWORD PTR _vWeaponPos$[ebp+8]
  000e5	66 0f 5a c0	 cvtpd2ps xmm0, xmm0
  000e9	f3 0f 11 45 e8	 movss	 DWORD PTR _vAimedDir$[ebp+4], xmm0
  000ee	f3 0f 10 45 f8	 movss	 xmm0, DWORD PTR _vTargetPos$[ebp+8]

; 2521 : 	D3DXVec3Normalize( &vAimedDir, &vAimedDir );

  000f3	8d 45 e4	 lea	 eax, DWORD PTR _vAimedDir$[ebp]
  000f6	0f 5a c0	 cvtps2pd xmm0, xmm0
  000f9	0f 5a c9	 cvtps2pd xmm1, xmm1
  000fc	50		 push	 eax
  000fd	f2 0f 5c c1	 subsd	 xmm0, xmm1
  00101	66 0f 5a c0	 cvtpd2ps xmm0, xmm0
  00105	50		 push	 eax
  00106	f3 0f 11 45 ec	 movss	 DWORD PTR _vAimedDir$[ebp+8], xmm0
  0010b	e8 00 00 00 00	 call	 _D3DXVec3Normalize@8

; 2522 : 
; 2523 : 	/*vAimedDir.x = m_vAimedDir.x;
; 2524 : 	vAimedDir.z = m_vAimedDir.z;
; 2525 : 
; 2526 : 	D3DXVec3Normalize( &vAimedDir, &vAimedDir );*/
; 2527 : 
; 2528 : 	m_vAimedDir = vAimedDir;

  00110	8d bb f8 1c 00
	00		 lea	 edi, DWORD PTR [ebx+7416]
  00116	8d 75 e4	 lea	 esi, DWORD PTR _vAimedDir$[ebp]
  00119	a5		 movsd
  0011a	a5		 movsd
  0011b	a5		 movsd

; 2529 : 
; 2530 : 	return vAimedDir;

  0011c	8d 75 e4	 lea	 esi, DWORD PTR _vAimedDir$[ebp]
$LN14@ReCalcMove:
  0011f	8b 45 c8	 mov	 eax, DWORD PTR ___$ReturnUdt$GSCopy$[ebp]

; 2531 : }

  00122	8b 4d fc	 mov	 ecx, DWORD PTR __$ArrayPad$[ebp]
  00125	8b f8		 mov	 edi, eax
  00127	a5		 movsd
  00128	a5		 movsd
  00129	a5		 movsd
  0012a	5f		 pop	 edi
  0012b	5e		 pop	 esi
  0012c	33 cd		 xor	 ecx, ebp
  0012e	5b		 pop	 ebx
  0012f	e8 00 00 00 00	 call	 @__security_check_cookie@4
  00134	c9		 leave
  00135	c2 0c 00	 ret	 12			; 0000000cH
?ReCalcMoveDir@ioRobinExpansionItem@@QAE?AUD3DXVECTOR3@@PAVioBaseChar@@PAVioWeapon@@@Z ENDP ; ioRobinExpansionItem::ReCalcMoveDir
_TEXT	ENDS
PUBLIC	?CheckDownAimState@ioRobinExpansionItem@@IAE_NPAVioBaseChar@@@Z ; ioRobinExpansionItem::CheckDownAimState
EXTRN	?IsApplyDownState@ioBaseChar@@QAE_N_N@Z:PROC	; ioBaseChar::IsApplyDownState
EXTRN	?IsFloatingState@ioBaseChar@@QBE_NXZ:PROC	; ioBaseChar::IsFloatingState
; Function compile flags: /Ogsp
;	COMDAT ?CheckDownAimState@ioRobinExpansionItem@@IAE_NPAVioBaseChar@@@Z
_TEXT	SEGMENT
_pTarget$ = 8						; size = 4
?CheckDownAimState@ioRobinExpansionItem@@IAE_NPAVioBaseChar@@@Z PROC ; ioRobinExpansionItem::CheckDownAimState, COMDAT
; _this$ = ecx

; 2534 : {

  00000	55		 push	 ebp
  00001	8b ec		 mov	 ebp, esp
  00003	53		 push	 ebx
  00004	56		 push	 esi
  00005	8b f1		 mov	 esi, ecx

; 2535 : 	if( !pTarget ) return false;

  00007	8b 4d 08	 mov	 ecx, DWORD PTR _pTarget$[ebp]
  0000a	33 db		 xor	 ebx, ebx
  0000c	3b cb		 cmp	 ecx, ebx
  0000e	74 2b		 je	 SHORT $LN1@CheckDownA

; 2536 : 
; 2537 : 	CharState eState = pTarget->GetState();

  00010	8a 81 10 03 00
	00		 mov	 al, BYTE PTR [ecx+784]

; 2538 : 
; 2539 : 	if( eState == CS_FROZEN && pTarget->GetBlowFrozenState() && m_bEnableDownAim )

  00016	3c 17		 cmp	 al, 23			; 00000017H
  00018	75 14		 jne	 SHORT $LN6@CheckDownA
  0001a	38 99 c5 15 00
	00		 cmp	 BYTE PTR [ecx+5573], bl
$LN17@CheckDownA:
  00020	74 19		 je	 SHORT $LN1@CheckDownA
$LN16@CheckDownA:
  00022	38 9e 22 1c 00
	00		 cmp	 BYTE PTR [esi+7202], bl
  00028	74 11		 je	 SHORT $LN1@CheckDownA

; 2540 : 		return true;

  0002a	b0 01		 mov	 al, 1
  0002c	eb 0f		 jmp	 SHORT $LN8@CheckDownA
$LN6@CheckDownA:

; 2541 : 
; 2542 : 	if( eState == CS_BLOW_WOUNDED && !pTarget->IsFloatingState() && m_bEnableDownAim )

  0002e	3c 0c		 cmp	 al, 12			; 0000000cH
  00030	75 11		 jne	 SHORT $LN5@CheckDownA
$LN19@CheckDownA:
  00032	e8 00 00 00 00	 call	 ?IsFloatingState@ioBaseChar@@QBE_NXZ ; ioBaseChar::IsFloatingState
  00037	84 c0		 test	 al, al
  00039	74 e7		 je	 SHORT $LN16@CheckDownA
$LN1@CheckDownA:

; 2556 : 
; 2557 : 	return false;

  0003b	32 c0		 xor	 al, al
$LN8@CheckDownA:
  0003d	5e		 pop	 esi
  0003e	5b		 pop	 ebx

; 2558 : }

  0003f	5d		 pop	 ebp
  00040	c2 04 00	 ret	 4
$LN5@CheckDownA:

; 2543 : 		return true;
; 2544 : 
; 2545 : 	if( eState == CS_BOUND_BLOW_WOUNDED && !pTarget->IsFloatingState() && m_bEnableDownAim )

  00043	3c 31		 cmp	 al, 49			; 00000031H

; 2546 : 		return true;

  00045	74 eb		 je	 SHORT $LN19@CheckDownA

; 2547 : 
; 2548 : 	if( eState == CS_ETC_STATE && pTarget->IsApplyDownState(false) && m_bEnableDownAim )

  00047	3c 0f		 cmp	 al, 15			; 0000000fH
  00049	75 0a		 jne	 SHORT $LN3@CheckDownA
$LN18@CheckDownA:
  0004b	53		 push	 ebx
  0004c	e8 00 00 00 00	 call	 ?IsApplyDownState@ioBaseChar@@QAE_N_N@Z ; ioBaseChar::IsApplyDownState
  00051	84 c0		 test	 al, al

; 2549 : 		return true;

  00053	eb cb		 jmp	 SHORT $LN17@CheckDownA
$LN3@CheckDownA:

; 2550 : 
; 2551 : 	if( eState == CS_USING_SKILL && pTarget->IsApplyDownState(false) && m_bEnableDownAim )

  00055	3c 07		 cmp	 al, 7

; 2552 : 		return true;

  00057	74 f2		 je	 SHORT $LN18@CheckDownA

; 2553 : 
; 2554 : 	if( eState == CS_STOP_MOTION && pTarget->GetBlowStopMotionState() && m_bEnableDownAim )

  00059	3c 26		 cmp	 al, 38			; 00000026H
  0005b	75 de		 jne	 SHORT $LN1@CheckDownA
  0005d	38 99 c7 15 00
	00		 cmp	 BYTE PTR [ecx+5575], bl

; 2555 : 		return true;

  00063	eb bb		 jmp	 SHORT $LN17@CheckDownA
?CheckDownAimState@ioRobinExpansionItem@@IAE_NPAVioBaseChar@@@Z ENDP ; ioRobinExpansionItem::CheckDownAimState
_TEXT	ENDS
PUBLIC	?CheckAimState@ioRobinExpansionItem@@UAE_N_N@Z	; ioRobinExpansionItem::CheckAimState
; Function compile flags: /Ogsp
;	COMDAT ?CheckAimState@ioRobinExpansionItem@@UAE_N_N@Z
_TEXT	SEGMENT
_bAimMove$ = 8						; size = 1
?CheckAimState@ioRobinExpansionItem@@UAE_N_N@Z PROC	; ioRobinExpansionItem::CheckAimState, COMDAT
; _this$ = ecx

; 2561 : {

  00000	55		 push	 ebp
  00001	8b ec		 mov	 ebp, esp

; 2562 : 	if( !bAimMove )

  00003	80 7d 08 00	 cmp	 BYTE PTR _bAimMove$[ebp], 0
  00007	75 19		 jne	 SHORT $LN5@CheckAimSt

; 2563 : 	{
; 2564 : 		switch( m_FireState )

  00009	8b 81 54 19 00
	00		 mov	 eax, DWORD PTR [ecx+6484]
  0000f	83 f8 02	 cmp	 eax, 2
  00012	7c 0e		 jl	 SHORT $LN5@CheckAimSt
  00014	83 f8 03	 cmp	 eax, 3
  00017	7e 05		 jle	 SHORT $LN4@CheckAimSt
  00019	83 f8 05	 cmp	 eax, 5
  0001c	75 04		 jne	 SHORT $LN5@CheckAimSt
$LN4@CheckAimSt:

; 2565 : 		{
; 2566 : 		case FS_AIMING:
; 2567 : 		case FS_AIM_WAIT:
; 2568 : 		case FS_AIMED:
; 2569 : 			return true;

  0001e	b0 01		 mov	 al, 1
  00020	eb 17		 jmp	 SHORT $LN8@CheckAimSt
$LN5@CheckAimSt:

; 2570 : 		}
; 2571 : 	}
; 2572 : 
; 2573 : 	switch( m_FireState )

  00022	8b 89 54 19 00
	00		 mov	 ecx, DWORD PTR [ecx+6484]
  00028	83 f9 02	 cmp	 ecx, 2
  0002b	7c 0a		 jl	 SHORT $LN2@CheckAimSt
  0002d	83 f9 03	 cmp	 ecx, 3
  00030	7e ec		 jle	 SHORT $LN4@CheckAimSt
  00032	83 f9 05	 cmp	 ecx, 5

; 2574 : 	{
; 2575 : 	case FS_AIMING:
; 2576 : 	case FS_AIM_WAIT:
; 2577 : 	case FS_AIMED:
; 2578 : 		return true;

  00035	74 e7		 je	 SHORT $LN4@CheckAimSt
$LN2@CheckAimSt:

; 2579 : 	}
; 2580 : 
; 2581 : 	return false;

  00037	32 c0		 xor	 al, al
$LN8@CheckAimSt:

; 2582 : }

  00039	5d		 pop	 ebp
  0003a	c2 04 00	 ret	 4
?CheckAimState@ioRobinExpansionItem@@UAE_N_N@Z ENDP	; ioRobinExpansionItem::CheckAimState
_TEXT	ENDS
PUBLIC	?SetNoneState@ioRobinExpansionItem@@UAEXPAVioBaseChar@@H@Z ; ioRobinExpansionItem::SetNoneState
EXTRN	__imp_?Clear@ioHashString@@QAEXXZ:PROC
; Function compile flags: /Ogsp
;	COMDAT ?SetNoneState@ioRobinExpansionItem@@UAEXPAVioBaseChar@@H@Z
_TEXT	SEGMENT
_pOwner$ = 8						; size = 4
_eNewState$ = 12					; size = 4
?SetNoneState@ioRobinExpansionItem@@UAEXPAVioBaseChar@@H@Z PROC ; ioRobinExpansionItem::SetNoneState, COMDAT
; _this$ = ecx

; 2626 : {

  00000	55		 push	 ebp
  00001	8b ec		 mov	 ebp, esp
  00003	56		 push	 esi
  00004	8b f1		 mov	 esi, ecx

; 2627 : 	m_AimedTarget.Clear();

  00006	8d 8e 9c 02 00
	00		 lea	 ecx, DWORD PTR [esi+668]
  0000c	ff 15 00 00 00
	00		 call	 DWORD PTR __imp_?Clear@ioHashString@@QAEXXZ

; 2628 : 	m_bAimedBall = false;
; 2629 : 
; 2630 : 	m_bSetSkillAimed = false;
; 2631 : 	m_bSetAimedDir = false;
; 2632 : 	m_bAimedState = false;
; 2633 : 
; 2634 : 	m_bZeroAimState = false;
; 2635 : 	m_dwZeroAimStartTime = 0;
; 2636 : 
; 2637 : 	m_FireState = FS_NONE;
; 2638 : 	m_AimJumpState = AJS_NONE;
; 2639 : 
; 2640 : 	pOwner->SetTargetMarkerState( ioTargetMarker::MS_NONE );

  00012	8b 4d 08	 mov	 ecx, DWORD PTR _pOwner$[ebp]
  00015	33 c0		 xor	 eax, eax
  00017	50		 push	 eax
  00018	50		 push	 eax
  00019	81 c1 cc 01 00
	00		 add	 ecx, 460		; 000001ccH
  0001f	88 86 98 02 00
	00		 mov	 BYTE PTR [esi+664], al
  00025	66 89 86 50 1c
	00 00		 mov	 WORD PTR [esi+7248], ax
  0002c	88 86 58 1c 00
	00		 mov	 BYTE PTR [esi+7256], al
  00032	88 86 20 1c 00
	00		 mov	 BYTE PTR [esi+7200], al
  00038	89 86 1c 1c 00
	00		 mov	 DWORD PTR [esi+7196], eax
  0003e	89 86 54 19 00
	00		 mov	 DWORD PTR [esi+6484], eax
  00044	89 86 58 19 00
	00		 mov	 DWORD PTR [esi+6488], eax
  0004a	e8 00 00 00 00	 call	 ?SetTargetMarkerState@ioBaseGUISupport@@QAEXW4MarkerState@ioTargetMarker@@W4TargetedType@@@Z ; ioBaseGUISupport::SetTargetMarkerState
  0004f	5e		 pop	 esi

; 2641 : }

  00050	5d		 pop	 ebp
  00051	c2 08 00	 ret	 8
?SetNoneState@ioRobinExpansionItem@@UAEXPAVioBaseChar@@H@Z ENDP ; ioRobinExpansionItem::SetNoneState
_TEXT	ENDS
PUBLIC	?IsChargeAttackState@ioRobinExpansionItem@@UAE_NPAVioBaseChar@@@Z ; ioRobinExpansionItem::IsChargeAttackState
; Function compile flags: /Ogsp
;	COMDAT ?IsChargeAttackState@ioRobinExpansionItem@@UAE_NPAVioBaseChar@@@Z
_TEXT	SEGMENT
_pOwner$ = 8						; size = 4
?IsChargeAttackState@ioRobinExpansionItem@@UAE_NPAVioBaseChar@@@Z PROC ; ioRobinExpansionItem::IsChargeAttackState, COMDAT
; _this$ = ecx

; 2818 : {

  00000	55		 push	 ebp
  00001	8b ec		 mov	 ebp, esp

; 2819 : 	if( pOwner->GetState() == CS_ATTACK )

  00003	8b 45 08	 mov	 eax, DWORD PTR _pOwner$[ebp]
  00006	80 b8 10 03 00
	00 05		 cmp	 BYTE PTR [eax+784], 5
  0000d	75 1e		 jne	 SHORT $LN2@IsChargeAt

; 2820 : 	{
; 2821 : 		if( m_FireState == FS_CHARGING ||
; 2822 : 			m_FireState == FS_AIMING ||
; 2823 : 			m_FireState == FS_AIM_WAIT ||
; 2824 : 			m_FireState == FS_AIMED )

  0000f	8b 81 54 19 00
	00		 mov	 eax, DWORD PTR [ecx+6484]
  00015	83 f8 01	 cmp	 eax, 1
  00018	74 0f		 je	 SHORT $LN1@IsChargeAt
  0001a	83 f8 02	 cmp	 eax, 2
  0001d	74 0a		 je	 SHORT $LN1@IsChargeAt
  0001f	83 f8 03	 cmp	 eax, 3
  00022	74 05		 je	 SHORT $LN1@IsChargeAt
  00024	83 f8 05	 cmp	 eax, 5
  00027	75 04		 jne	 SHORT $LN2@IsChargeAt
$LN1@IsChargeAt:

; 2825 : 			return true;

  00029	b0 01		 mov	 al, 1
  0002b	eb 02		 jmp	 SHORT $LN4@IsChargeAt
$LN2@IsChargeAt:

; 2826 : 	}
; 2827 : 
; 2828 : 	return false;

  0002d	32 c0		 xor	 al, al
$LN4@IsChargeAt:

; 2829 : }

  0002f	5d		 pop	 ebp
  00030	c2 04 00	 ret	 4
?IsChargeAttackState@ioRobinExpansionItem@@UAE_NPAVioBaseChar@@@Z ENDP ; ioRobinExpansionItem::IsChargeAttackState
_TEXT	ENDS
PUBLIC	?OnEndExtendDefense@ioRobinExpansionItem@@UAEXPAVioBaseChar@@@Z ; ioRobinExpansionItem::OnEndExtendDefense
EXTRN	?ShowWeaponItemMesh@ioBaseChar@@QAEX_N0@Z:PROC	; ioBaseChar::ShowWeaponItemMesh
EXTRN	?EndEffect@ioBaseChar@@QAEXABVioHashString@@_N1@Z:PROC ; ioBaseChar::EndEffect
EXTRN	__imp_?IsEmpty@ioHashString@@QBE_NXZ:PROC
; Function compile flags: /Ogsp
;	COMDAT ?OnEndExtendDefense@ioRobinExpansionItem@@UAEXPAVioBaseChar@@@Z
_TEXT	SEGMENT
_pOwner$ = 8						; size = 4
?OnEndExtendDefense@ioRobinExpansionItem@@UAEXPAVioBaseChar@@@Z PROC ; ioRobinExpansionItem::OnEndExtendDefense, COMDAT
; _this$ = ecx

; 2918 : {

  00000	55		 push	 ebp
  00001	8b ec		 mov	 ebp, esp
  00003	56		 push	 esi

; 2919 : 	if( !m_ReloadEffect.IsEmpty() )

  00004	8d b1 04 1a 00
	00		 lea	 esi, DWORD PTR [ecx+6660]
  0000a	8b ce		 mov	 ecx, esi
  0000c	ff 15 00 00 00
	00		 call	 DWORD PTR __imp_?IsEmpty@ioHashString@@QBE_NXZ
  00012	84 c0		 test	 al, al
  00014	75 19		 jne	 SHORT $LN1@OnEndExten

; 2920 : 	{
; 2921 : 		pOwner->EndEffect( m_ReloadEffect, false );

  00016	8b 4d 08	 mov	 ecx, DWORD PTR _pOwner$[ebp]
  00019	6a 01		 push	 1
  0001b	6a 00		 push	 0
  0001d	56		 push	 esi
  0001e	e8 00 00 00 00	 call	 ?EndEffect@ioBaseChar@@QAEXABVioHashString@@_N1@Z ; ioBaseChar::EndEffect

; 2922 : 		pOwner->ShowWeaponItemMesh( true );

  00023	8b 4d 08	 mov	 ecx, DWORD PTR _pOwner$[ebp]
  00026	6a 00		 push	 0
  00028	6a 01		 push	 1
  0002a	e8 00 00 00 00	 call	 ?ShowWeaponItemMesh@ioBaseChar@@QAEX_N0@Z ; ioBaseChar::ShowWeaponItemMesh
$LN1@OnEndExten:
  0002f	5e		 pop	 esi

; 2923 : 	}
; 2924 : }

  00030	5d		 pop	 ebp
  00031	c2 04 00	 ret	 4
?OnEndExtendDefense@ioRobinExpansionItem@@UAEXPAVioBaseChar@@@Z ENDP ; ioRobinExpansionItem::OnEndExtendDefense
_TEXT	ENDS
PUBLIC	?D3DXVec3LengthSq@@YAMPBUD3DXVECTOR3@@@Z	; D3DXVec3LengthSq
; Function compile flags: /Ogsp
; File c:\program files (x86)\microsoft directx sdk (june 2010)\include\d3dx9math.inl
;	COMDAT ?D3DXVec3LengthSq@@YAMPBUD3DXVECTOR3@@@Z
_TEXT	SEGMENT
tv165 = 8						; size = 4
_pV$ = 8						; size = 4
?D3DXVec3LengthSq@@YAMPBUD3DXVECTOR3@@@Z PROC		; D3DXVec3LengthSq, COMDAT

; 1725 : {

  00000	55		 push	 ebp
  00001	8b ec		 mov	 ebp, esp

; 1726 : #ifdef D3DX_DEBUG
; 1727 :     if(!pV)
; 1728 :         return 0.0f;
; 1729 : #endif
; 1730 : 
; 1731 :     return pV->x * pV->x + pV->y * pV->y + pV->z * pV->z;

  00003	8b 45 08	 mov	 eax, DWORD PTR _pV$[ebp]
  00006	d9 40 04	 fld	 DWORD PTR [eax+4]
  00009	d9 00		 fld	 DWORD PTR [eax]
  0000b	d9 40 08	 fld	 DWORD PTR [eax+8]
  0000e	d9 c1		 fld	 ST(1)
  00010	de ca		 fmulp	 ST(2), ST(0)
  00012	d9 c2		 fld	 ST(2)
  00014	de cb		 fmulp	 ST(3), ST(0)
  00016	d9 c9		 fxch	 ST(1)
  00018	de c2		 faddp	 ST(2), ST(0)
  0001a	d9 c0		 fld	 ST(0)
  0001c	de c9		 fmulp	 ST(1), ST(0)
  0001e	de c1		 faddp	 ST(1), ST(0)
  00020	d9 5d 08	 fstp	 DWORD PTR tv165[ebp]
  00023	d9 45 08	 fld	 DWORD PTR tv165[ebp]

; 1732 : }

  00026	5d		 pop	 ebp
  00027	c3		 ret	 0
?D3DXVec3LengthSq@@YAMPBUD3DXVECTOR3@@@Z ENDP		; D3DXVec3LengthSq
_TEXT	ENDS
PUBLIC	?OnEndExtendAttack@ioRobinExpansionItem@@UAEXPAVioBaseChar@@_N@Z ; ioRobinExpansionItem::OnEndExtendAttack
EXTRN	?EndEffect@ioBaseChar@@QAEXK_N@Z:PROC		; ioBaseChar::EndEffect
; Function compile flags: /Ogsp
; File d:\lost saga for developer\youtube\tutorial\source\src\lsclient\iorobinexpansionitem.cpp
;	COMDAT ?OnEndExtendAttack@ioRobinExpansionItem@@UAEXPAVioBaseChar@@_N@Z
_TEXT	SEGMENT
_pOwner$ = 8						; size = 4
_bReleaseItem$ = 12					; size = 1
?OnEndExtendAttack@ioRobinExpansionItem@@UAEXPAVioBaseChar@@_N@Z PROC ; ioRobinExpansionItem::OnEndExtendAttack, COMDAT
; _this$ = ecx

; 2927 : {

  00000	55		 push	 ebp
  00001	8b ec		 mov	 ebp, esp
  00003	53		 push	 ebx
  00004	56		 push	 esi
  00005	8b f1		 mov	 esi, ecx

; 2928 : 	if( m_ZeroAimedEffectID != -1 )

  00007	8b 86 44 1c 00
	00		 mov	 eax, DWORD PTR [esi+7236]
  0000d	33 db		 xor	 ebx, ebx
  0000f	83 f8 ff	 cmp	 eax, -1
  00012	74 11		 je	 SHORT $LN4@OnEndExten@2

; 2929 : 	{
; 2930 : 		pOwner->EndEffect( m_ZeroAimedEffectID, false );

  00014	8b 4d 08	 mov	 ecx, DWORD PTR _pOwner$[ebp]
  00017	53		 push	 ebx
  00018	50		 push	 eax
  00019	e8 00 00 00 00	 call	 ?EndEffect@ioBaseChar@@QAEXK_N@Z ; ioBaseChar::EndEffect

; 2931 : 		m_ZeroAimedEffectID = -1;

  0001e	83 8e 44 1c 00
	00 ff		 or	 DWORD PTR [esi+7236], -1
$LN4@OnEndExten@2:

; 2932 : 	}
; 2933 : 
; 2934 : 	if( m_bAimEffect )

  00025	38 9e 23 1c 00
	00		 cmp	 BYTE PTR [esi+7203], bl
  0002b	74 26		 je	 SHORT $LN2@OnEndExten@2

; 2935 : 	{
; 2936 : 		if( m_AimJumpState != AJS_READY || bReleaseItem )

  0002d	83 be 58 19 00
	00 01		 cmp	 DWORD PTR [esi+6488], 1
  00034	75 05		 jne	 SHORT $LN1@OnEndExten@2
  00036	38 5d 0c	 cmp	 BYTE PTR _bReleaseItem$[ebp], bl
  00039	74 18		 je	 SHORT $LN2@OnEndExten@2
$LN1@OnEndExten@2:

; 2937 : 		{
; 2938 : 			m_bAimEffect = false;
; 2939 : 			pOwner->EndEffect( m_AimEffect, false );

  0003b	8b 4d 08	 mov	 ecx, DWORD PTR _pOwner$[ebp]
  0003e	6a 01		 push	 1
  00040	88 9e 23 1c 00
	00		 mov	 BYTE PTR [esi+7203], bl
  00046	53		 push	 ebx
  00047	81 c6 24 1c 00
	00		 add	 esi, 7204		; 00001c24H
  0004d	56		 push	 esi
  0004e	e8 00 00 00 00	 call	 ?EndEffect@ioBaseChar@@QAEXABVioHashString@@_N1@Z ; ioBaseChar::EndEffect
$LN2@OnEndExten@2:
  00053	5e		 pop	 esi
  00054	5b		 pop	 ebx

; 2940 : 		}
; 2941 : 	}
; 2942 : }

  00055	5d		 pop	 ebp
  00056	c2 08 00	 ret	 8
?OnEndExtendAttack@ioRobinExpansionItem@@UAEXPAVioBaseChar@@_N@Z ENDP ; ioRobinExpansionItem::OnEndExtendAttack
_TEXT	ENDS
PUBLIC	?D3DXVec3Dot@@YAMPBUD3DXVECTOR3@@0@Z		; D3DXVec3Dot
; Function compile flags: /Ogsp
; File c:\program files (x86)\microsoft directx sdk (june 2010)\include\d3dx9math.inl
;	COMDAT ?D3DXVec3Dot@@YAMPBUD3DXVECTOR3@@0@Z
_TEXT	SEGMENT
tv188 = 8						; size = 4
_pV1$ = 8						; size = 4
_pV2$ = 12						; size = 4
?D3DXVec3Dot@@YAMPBUD3DXVECTOR3@@0@Z PROC		; D3DXVec3Dot, COMDAT

; 1736 : {

  00000	55		 push	 ebp
  00001	8b ec		 mov	 ebp, esp

; 1737 : #ifdef D3DX_DEBUG
; 1738 :     if(!pV1 || !pV2)
; 1739 :         return 0.0f;
; 1740 : #endif
; 1741 : 
; 1742 :     return pV1->x * pV2->x + pV1->y * pV2->y + pV1->z * pV2->z;

  00003	8b 45 08	 mov	 eax, DWORD PTR _pV1$[ebp]
  00006	8b 4d 0c	 mov	 ecx, DWORD PTR _pV2$[ebp]
  00009	d9 40 04	 fld	 DWORD PTR [eax+4]
  0000c	d8 49 04	 fmul	 DWORD PTR [ecx+4]
  0000f	d9 00		 fld	 DWORD PTR [eax]
  00011	d8 09		 fmul	 DWORD PTR [ecx]
  00013	de c1		 faddp	 ST(1), ST(0)
  00015	d9 40 08	 fld	 DWORD PTR [eax+8]
  00018	d8 49 08	 fmul	 DWORD PTR [ecx+8]
  0001b	de c1		 faddp	 ST(1), ST(0)
  0001d	d9 5d 08	 fstp	 DWORD PTR tv188[ebp]
  00020	d9 45 08	 fld	 DWORD PTR tv188[ebp]

; 1743 : }

  00023	5d		 pop	 ebp
  00024	c3		 ret	 0
?D3DXVec3Dot@@YAMPBUD3DXVECTOR3@@0@Z ENDP		; D3DXVec3Dot
_TEXT	ENDS
PUBLIC	__$ArrayPad$
PUBLIC	?SetAimJumpCancel@ioRobinExpansionItem@@IAEXPAVioBaseChar@@@Z ; ioRobinExpansionItem::SetAimJumpCancel
EXTRN	?SetState@ioBaseChar@@QAEXH_N@Z:PROC		; ioBaseChar::SetState
;	COMDAT xdata$x
; File d:\lost saga for developer\youtube\tutorial\source\src\lsclient\iorobinexpansionitem.cpp
xdata$x	SEGMENT
__unwindtable$?SetAimJumpCancel@ioRobinExpansionItem@@IAEXPAVioBaseChar@@@Z DD 0ffffffffH
	DD	FLAT:__unwindfunclet$?SetAimJumpCancel@ioRobinExpansionItem@@IAEXPAVioBaseChar@@@Z$0
__ehfuncinfo$?SetAimJumpCancel@ioRobinExpansionItem@@IAEXPAVioBaseChar@@@Z DD 019930522H
	DD	01H
	DD	FLAT:__unwindtable$?SetAimJumpCancel@ioRobinExpansionItem@@IAEXPAVioBaseChar@@@Z
	DD	2 DUP(00H)
	DD	2 DUP(00H)
	DD	00H
	DD	01H
; Function compile flags: /Ogsp
xdata$x	ENDS
;	COMDAT ?SetAimJumpCancel@ioRobinExpansionItem@@IAEXPAVioBaseChar@@@Z
_TEXT	SEGMENT
_kPacket$544987 = -32808				; size = 32792
__$ArrayPad$ = -16					; size = 4
__$EHRec$ = -12						; size = 12
_pChar$ = 8						; size = 4
?SetAimJumpCancel@ioRobinExpansionItem@@IAEXPAVioBaseChar@@@Z PROC ; ioRobinExpansionItem::SetAimJumpCancel, COMDAT
; _this$ = ecx

; 3076 : {

  00000	55		 push	 ebp
  00001	8b ec		 mov	 ebp, esp
  00003	6a ff		 push	 -1
  00005	68 00 00 00 00	 push	 __ehhandler$?SetAimJumpCancel@ioRobinExpansionItem@@IAEXPAVioBaseChar@@@Z
  0000a	64 a1 00 00 00
	00		 mov	 eax, DWORD PTR fs:0
  00010	50		 push	 eax
  00011	b8 1c 80 00 00	 mov	 eax, 32796		; 0000801cH
  00016	e8 00 00 00 00	 call	 __chkstk
  0001b	a1 00 00 00 00	 mov	 eax, DWORD PTR ___security_cookie
  00020	33 c5		 xor	 eax, ebp
  00022	89 45 f0	 mov	 DWORD PTR __$ArrayPad$[ebp], eax
  00025	53		 push	 ebx
  00026	56		 push	 esi
  00027	57		 push	 edi
  00028	50		 push	 eax
  00029	8d 45 f4	 lea	 eax, DWORD PTR __$EHRec$[ebp]
  0002c	64 a3 00 00 00
	00		 mov	 DWORD PTR fs:0, eax
  00032	8b 7d 08	 mov	 edi, DWORD PTR _pChar$[ebp]

; 3077 : 	m_dwCheckAimCancelTime = 0;

  00035	33 db		 xor	 ebx, ebx
  00037	8b f1		 mov	 esi, ecx

; 3078 : 	m_FireState = FS_NONE;
; 3079 : 
; 3080 : 	pChar->SetTargetMarkerState( ioTargetMarker::MS_NONE );

  00039	53		 push	 ebx
  0003a	53		 push	 ebx
  0003b	8d 8f cc 01 00
	00		 lea	 ecx, DWORD PTR [edi+460]
  00041	89 9e 68 1c 00
	00		 mov	 DWORD PTR [esi+7272], ebx
  00047	89 9e 54 19 00
	00		 mov	 DWORD PTR [esi+6484], ebx
  0004d	e8 00 00 00 00	 call	 ?SetTargetMarkerState@ioBaseGUISupport@@QAEXW4MarkerState@ioTargetMarker@@W4TargetedType@@@Z ; ioBaseGUISupport::SetTargetMarkerState

; 3081 : 	pChar->SetState( CS_DELAY );

  00052	6a 01		 push	 1
  00054	53		 push	 ebx
  00055	8b cf		 mov	 ecx, edi
  00057	e8 00 00 00 00	 call	 ?SetState@ioBaseChar@@QAEXH_N@Z ; ioBaseChar::SetState

; 3082 : 
; 3083 : 	if( m_ZeroAimedEffectID != -1 )

  0005c	8b 86 44 1c 00
	00		 mov	 eax, DWORD PTR [esi+7236]
  00062	83 f8 ff	 cmp	 eax, -1
  00065	74 10		 je	 SHORT $LN2@SetAimJump

; 3084 : 	{
; 3085 : 		pChar->EndEffect( m_ZeroAimedEffectID, false );

  00067	53		 push	 ebx
  00068	50		 push	 eax
  00069	8b cf		 mov	 ecx, edi
  0006b	e8 00 00 00 00	 call	 ?EndEffect@ioBaseChar@@QAEXK_N@Z ; ioBaseChar::EndEffect

; 3086 : 		m_ZeroAimedEffectID = -1;

  00070	83 8e 44 1c 00
	00 ff		 or	 DWORD PTR [esi+7236], -1
$LN2@SetAimJump:

; 3087 : 	}
; 3088 : 
; 3089 : 	m_bSetAimedDir = false;

  00077	88 9e 51 1c 00
	00		 mov	 BYTE PTR [esi+7249], bl

; 3090 : 	m_bAimedState = false;

  0007d	88 9e 58 1c 00
	00		 mov	 BYTE PTR [esi+7256], bl

; 3091 : 	m_AimJumpState = AJS_CANCEL;

  00083	c7 86 58 19 00
	00 02 00 00 00	 mov	 DWORD PTR [esi+6488], 2

; 3092 : 
; 3093 : 	if( pChar->IsNeedSendNetwork() )

  0008d	8b 07		 mov	 eax, DWORD PTR [edi]
  0008f	8b cf		 mov	 ecx, edi
  00091	ff 90 04 01 00
	00		 call	 DWORD PTR [eax+260]
  00097	84 c0		 test	 al, al
  00099	74 60		 je	 SHORT $LN1@SetAimJump

; 3094 : 	{
; 3095 : 		SP2Packet kPacket( CUPK_ITEM_GAUGE_CANCEL );

  0009b	68 28 41 00 00	 push	 16680			; 00004128H
  000a0	8d 8d d8 7f ff
	ff		 lea	 ecx, DWORD PTR _kPacket$544987[ebp]
  000a6	e8 00 00 00 00	 call	 ??0SP2Packet@@QAE@K@Z	; SP2Packet::SP2Packet
  000ab	83 65 fc 00	 and	 DWORD PTR __$EHRec$[ebp+8], 0

; 3096 : 		FillItemGaugePacketHeader( pChar, kPacket );

  000af	8d 85 d8 7f ff
	ff		 lea	 eax, DWORD PTR _kPacket$544987[ebp]
  000b5	50		 push	 eax
  000b6	57		 push	 edi
  000b7	8b ce		 mov	 ecx, esi
  000b9	e8 00 00 00 00	 call	 ?FillItemGaugePacketHeader@ioAttackableItem@@QAEXPAVioBaseChar@@AAVSP2Packet@@@Z ; ioAttackableItem::FillItemGaugePacketHeader

; 3097 : 		kPacket << true;		// AimJumpState

  000be	6a 01		 push	 1
  000c0	8d 8d d8 7f ff
	ff		 lea	 ecx, DWORD PTR _kPacket$544987[ebp]
  000c6	e8 00 00 00 00	 call	 ??6SP2Packet@@QAEAAV0@_N@Z ; SP2Packet::operator<<

; 3098 : 		kPacket << (int)m_AimJumpState;

  000cb	ff b6 58 19 00
	00		 push	 DWORD PTR [esi+6488]
  000d1	8d 8d d8 7f ff
	ff		 lea	 ecx, DWORD PTR _kPacket$544987[ebp]
  000d7	e8 00 00 00 00	 call	 ??6SP2Packet@@QAEAAV0@H@Z ; SP2Packet::operator<<

; 3099 : 		P2PNetwork::SendToAllPlayingUser( kPacket );

  000dc	8d 85 d8 7f ff
	ff		 lea	 eax, DWORD PTR _kPacket$544987[ebp]
  000e2	6a 00		 push	 0
  000e4	50		 push	 eax
  000e5	e8 00 00 00 00	 call	 ?SendToAllPlayingUser@P2PNetwork@@YAXAAVSP2Packet@@PAVioBaseChar@@@Z ; P2PNetwork::SendToAllPlayingUser

; 3100 : 	}

  000ea	83 4d fc ff	 or	 DWORD PTR __$EHRec$[ebp+8], -1
  000ee	59		 pop	 ecx
  000ef	59		 pop	 ecx
  000f0	8d 8d d8 7f ff
	ff		 lea	 ecx, DWORD PTR _kPacket$544987[ebp]
  000f6	e8 00 00 00 00	 call	 ??1SP2Packet@@UAE@XZ	; SP2Packet::~SP2Packet
$LN1@SetAimJump:

; 3101 : }

  000fb	8b 4d f4	 mov	 ecx, DWORD PTR __$EHRec$[ebp]
  000fe	64 89 0d 00 00
	00 00		 mov	 DWORD PTR fs:0, ecx
  00105	59		 pop	 ecx
  00106	5f		 pop	 edi
  00107	5e		 pop	 esi
  00108	5b		 pop	 ebx
  00109	8b 4d f0	 mov	 ecx, DWORD PTR __$ArrayPad$[ebp]
  0010c	33 cd		 xor	 ecx, ebp
  0010e	e8 00 00 00 00	 call	 @__security_check_cookie@4
  00113	c9		 leave
  00114	c2 04 00	 ret	 4
_TEXT	ENDS
;	COMDAT text$x
text$x	SEGMENT
__unwindfunclet$?SetAimJumpCancel@ioRobinExpansionItem@@IAEXPAVioBaseChar@@@Z$0:
  00000	8d 8d d8 7f ff
	ff		 lea	 ecx, DWORD PTR _kPacket$544987[ebp]
  00006	e9 00 00 00 00	 jmp	 ??1SP2Packet@@UAE@XZ	; SP2Packet::~SP2Packet
__ehhandler$?SetAimJumpCancel@ioRobinExpansionItem@@IAEXPAVioBaseChar@@@Z:
  0000b	8b 54 24 08	 mov	 edx, DWORD PTR [esp+8]
  0000f	8d 42 0c	 lea	 eax, DWORD PTR [edx+12]
  00012	8b 8a d4 7f ff
	ff		 mov	 ecx, DWORD PTR [edx-32812]
  00018	33 c8		 xor	 ecx, eax
  0001a	e8 00 00 00 00	 call	 @__security_check_cookie@4
  0001f	8b 4a fc	 mov	 ecx, DWORD PTR [edx-4]
  00022	33 c8		 xor	 ecx, eax
  00024	e8 00 00 00 00	 call	 @__security_check_cookie@4
  00029	b8 00 00 00 00	 mov	 eax, OFFSET __ehfuncinfo$?SetAimJumpCancel@ioRobinExpansionItem@@IAEXPAVioBaseChar@@@Z
  0002e	e9 00 00 00 00	 jmp	 ___CxxFrameHandler3
text$x	ENDS
?SetAimJumpCancel@ioRobinExpansionItem@@IAEXPAVioBaseChar@@@Z ENDP ; ioRobinExpansionItem::SetAimJumpCancel
PUBLIC	?GetJumppingAnimation@ioRobinExpansionItem@@UBEABVioHashString@@XZ ; ioRobinExpansionItem::GetJumppingAnimation
EXTRN	?GetJumppingAnimation@ioAttackableItem@@UBEABVioHashString@@XZ:PROC ; ioAttackableItem::GetJumppingAnimation
; Function compile flags: /Ogsp
;	COMDAT ?GetJumppingAnimation@ioRobinExpansionItem@@UBEABVioHashString@@XZ
_TEXT	SEGMENT
?GetJumppingAnimation@ioRobinExpansionItem@@UBEABVioHashString@@XZ PROC ; ioRobinExpansionItem::GetJumppingAnimation, COMDAT
; _this$ = ecx

; 3104 : {

  00000	56		 push	 esi
  00001	8b f1		 mov	 esi, ecx

; 3105 : 	bool bAim = false;
; 3106 : 	switch( m_FireState )

  00003	8b 86 54 19 00
	00		 mov	 eax, DWORD PTR [esi+6484]
  00009	57		 push	 edi
  0000a	83 f8 02	 cmp	 eax, 2
  0000d	7c 28		 jl	 SHORT $LN1@GetJumppin
  0000f	83 f8 03	 cmp	 eax, 3
  00012	7e 0a		 jle	 SHORT $LN2@GetJumppin
  00014	83 f8 05	 cmp	 eax, 5
  00017	74 05		 je	 SHORT $LN2@GetJumppin
  00019	83 f8 07	 cmp	 eax, 7
  0001c	75 19		 jne	 SHORT $LN1@GetJumppin
$LN2@GetJumppin:

; 3107 : 	{
; 3108 : 	case FS_AIMING:
; 3109 : 	case FS_AIM_WAIT:
; 3110 : 	case FS_AIMED:
; 3111 : 	case FS_AIMED_FIRE:
; 3112 : 		bAim = true;
; 3113 : 	}
; 3114 : 
; 3115 : 	if( bAim && !m_AimJumppingAnimation.IsEmpty() )

  0001e	8d 8e e4 1c 00
	00		 lea	 ecx, DWORD PTR [esi+7396]
  00024	ff 15 00 00 00
	00		 call	 DWORD PTR __imp_?IsEmpty@ioHashString@@QBE_NXZ
  0002a	84 c0		 test	 al, al
  0002c	75 09		 jne	 SHORT $LN1@GetJumppin

; 3116 : 		return m_AimJumppingAnimation;

  0002e	5f		 pop	 edi
  0002f	8d 86 e4 1c 00
	00		 lea	 eax, DWORD PTR [esi+7396]
  00035	5e		 pop	 esi

; 3119 : }

  00036	c3		 ret	 0
$LN1@GetJumppin:
  00037	5f		 pop	 edi

; 3117 : 
; 3118 : 	return ioAttackableItem::GetJumppingAnimation();

  00038	8b ce		 mov	 ecx, esi
  0003a	5e		 pop	 esi
  0003b	e9 00 00 00 00	 jmp	 ?GetJumppingAnimation@ioAttackableItem@@UBEABVioHashString@@XZ ; ioAttackableItem::GetJumppingAnimation
?GetJumppingAnimation@ioRobinExpansionItem@@UBEABVioHashString@@XZ ENDP ; ioRobinExpansionItem::GetJumppingAnimation
_TEXT	ENDS
PUBLIC	?SetAimEffet@ioRobinExpansionItem@@QAEXPAVioBaseChar@@@Z ; ioRobinExpansionItem::SetAimEffet
EXTRN	?AttachEffect@ioBaseChar@@QAEPAVioEffect@@ABVioHashString@@PAVioEntityEvent@@_N@Z:PROC ; ioBaseChar::AttachEffect
; Function compile flags: /Ogsp
;	COMDAT ?SetAimEffet@ioRobinExpansionItem@@QAEXPAVioBaseChar@@@Z
_TEXT	SEGMENT
_pOwner$ = 8						; size = 4
?SetAimEffet@ioRobinExpansionItem@@QAEXPAVioBaseChar@@@Z PROC ; ioRobinExpansionItem::SetAimEffet, COMDAT
; _this$ = ecx

; 3209 : {

  00000	55		 push	 ebp
  00001	8b ec		 mov	 ebp, esp
  00003	56		 push	 esi
  00004	8b f1		 mov	 esi, ecx

; 3210 : 	if( !m_bAimEffect )

  00006	80 be 23 1c 00
	00 00		 cmp	 BYTE PTR [esi+7203], 0
  0000d	75 1a		 jne	 SHORT $LN1@SetAimEffe

; 3211 : 	{
; 3212 : 		pOwner->AttachEffect( m_AimEffect );

  0000f	8b 4d 08	 mov	 ecx, DWORD PTR _pOwner$[ebp]
  00012	6a 01		 push	 1
  00014	6a 00		 push	 0
  00016	8d 86 24 1c 00
	00		 lea	 eax, DWORD PTR [esi+7204]
  0001c	50		 push	 eax
  0001d	e8 00 00 00 00	 call	 ?AttachEffect@ioBaseChar@@QAEPAVioEffect@@ABVioHashString@@PAVioEntityEvent@@_N@Z ; ioBaseChar::AttachEffect

; 3213 : 		m_bAimEffect = true;

  00022	c6 86 23 1c 00
	00 01		 mov	 BYTE PTR [esi+7203], 1
$LN1@SetAimEffe:
  00029	5e		 pop	 esi

; 3214 : 	}
; 3215 : }

  0002a	5d		 pop	 ebp
  0002b	c2 04 00	 ret	 4
?SetAimEffet@ioRobinExpansionItem@@QAEXPAVioBaseChar@@@Z ENDP ; ioRobinExpansionItem::SetAimEffet
_TEXT	ENDS
PUBLIC	__real@00000000
PUBLIC	?GetAttackSpeedRate@ioRobinExpansionItem@@UBEMXZ ; ioRobinExpansionItem::GetAttackSpeedRate
;	COMDAT __real@00000000
CONST	SEGMENT
__real@00000000 DD 000000000r			; 0
; Function compile flags: /Ogsp
CONST	ENDS
;	COMDAT ?GetAttackSpeedRate@ioRobinExpansionItem@@UBEMXZ
_TEXT	SEGMENT
tv134 = -4						; size = 4
?GetAttackSpeedRate@ioRobinExpansionItem@@UBEMXZ PROC	; ioRobinExpansionItem::GetAttackSpeedRate, COMDAT
; _this$ = ecx

; 3320 : {

  00000	55		 push	 ebp
  00001	8b ec		 mov	 ebp, esp
  00003	51		 push	 ecx

; 3321 : 	if( m_bZeroAimState && m_fZeroAimSpeedRate > 0.0f )

  00004	80 b9 20 1c 00
	00 00		 cmp	 BYTE PTR [ecx+7200], 0
  0000b	74 1b		 je	 SHORT $LN2@GetAttackS
  0000d	f3 0f 10 81 84
	1a 00 00	 movss	 xmm0, DWORD PTR [ecx+6788]
  00015	0f 2f 05 00 00
	00 00		 comiss	 xmm0, DWORD PTR __real@00000000
  0001c	f3 0f 11 45 fc	 movss	 DWORD PTR tv134[ebp], xmm0
  00021	76 05		 jbe	 SHORT $LN2@GetAttackS

; 3322 : 		return m_fZeroAimSpeedRate;

  00023	d9 45 fc	 fld	 DWORD PTR tv134[ebp]

; 3325 : }

  00026	c9		 leave
  00027	c3		 ret	 0
$LN2@GetAttackS:

; 3323 : 	else
; 3324 : 		return m_fAttackSpeedRate;

  00028	d9 81 18 0a 00
	00		 fld	 DWORD PTR [ecx+2584]

; 3325 : }

  0002e	c9		 leave
  0002f	c3		 ret	 0
?GetAttackSpeedRate@ioRobinExpansionItem@@UBEMXZ ENDP	; ioRobinExpansionItem::GetAttackSpeedRate
_TEXT	ENDS
PUBLIC	?IsAimedState@ioRobinExpansionItem@@QAE_NXZ	; ioRobinExpansionItem::IsAimedState
; Function compile flags: /Ogsp
;	COMDAT ?IsAimedState@ioRobinExpansionItem@@QAE_NXZ
_TEXT	SEGMENT
?IsAimedState@ioRobinExpansionItem@@QAE_NXZ PROC	; ioRobinExpansionItem::IsAimedState, COMDAT
; _this$ = ecx

; 3329 : 	if( m_FireState == FS_AIMED )

  00000	83 b9 54 19 00
	00 05		 cmp	 DWORD PTR [ecx+6484], 5
  00007	0f 94 c0	 sete	 al

; 3330 : 		return true;
; 3331 : 
; 3332 : 	return false;
; 3333 : }

  0000a	c3		 ret	 0
?IsAimedState@ioRobinExpansionItem@@QAE_NXZ ENDP	; ioRobinExpansionItem::IsAimedState
_TEXT	ENDS
PUBLIC	__$ArrayPad$
PUBLIC	?SetFireEffect@ioRobinExpansionItem@@IAEXPAVioBaseChar@@ABUD3DXVECTOR3@@@Z ; ioRobinExpansionItem::SetFireEffect
EXTRN	?CreateMapEffectWithDir@ioBaseChar@@QAEPAVioMapEffect@@ABVioHashString@@ABUD3DXVECTOR3@@@Z:PROC ; ioBaseChar::CreateMapEffectWithDir
; Function compile flags: /Ogsp
;	COMDAT ?SetFireEffect@ioRobinExpansionItem@@IAEXPAVioBaseChar@@ABUD3DXVECTOR3@@@Z
_TEXT	SEGMENT
tv161 = -32						; size = 4
_vNormalDir$545163 = -28				; size = 12
$T545164 = -16						; size = 12
__$ArrayPad$ = -4					; size = 4
_pOwner$ = 8						; size = 4
_vDir$ = 12						; size = 4
?SetFireEffect@ioRobinExpansionItem@@IAEXPAVioBaseChar@@ABUD3DXVECTOR3@@@Z PROC ; ioRobinExpansionItem::SetFireEffect, COMDAT
; _this$ = ecx

; 3467 : {

  00000	55		 push	 ebp
  00001	8b ec		 mov	 ebp, esp
  00003	83 ec 20	 sub	 esp, 32			; 00000020H
  00006	a1 00 00 00 00	 mov	 eax, DWORD PTR ___security_cookie
  0000b	33 c5		 xor	 eax, ebp
  0000d	89 45 fc	 mov	 DWORD PTR __$ArrayPad$[ebp], eax
  00010	53		 push	 ebx
  00011	8b 5d 0c	 mov	 ebx, DWORD PTR _vDir$[ebp]
  00014	56		 push	 esi
  00015	8b 75 08	 mov	 esi, DWORD PTR _pOwner$[ebp]
  00018	57		 push	 edi
  00019	8b f9		 mov	 edi, ecx

; 3468 : 	if( !pOwner ) return;

  0001b	85 f6		 test	 esi, esi
  0001d	74 5e		 je	 SHORT $LN1@SetFireEff

; 3469 : 	if( m_FireEffect.IsEmpty() ) return;

  0001f	8d 8f a8 1e 00
	00		 lea	 ecx, DWORD PTR [edi+7848]
  00025	89 4d e0	 mov	 DWORD PTR tv161[ebp], ecx
  00028	ff 15 00 00 00
	00		 call	 DWORD PTR __imp_?IsEmpty@ioHashString@@QBE_NXZ
  0002e	84 c0		 test	 al, al
  00030	75 4b		 jne	 SHORT $LN1@SetFireEff

; 3470 : 
; 3471 : 	if( m_bAimedState )

  00032	38 87 58 1c 00
	00		 cmp	 BYTE PTR [edi+7256], al
  00038	74 03		 je	 SHORT $LN2@SetFireEff

; 3472 : 	{
; 3473 : 		pOwner->CreateMapEffectWithDir( m_FireEffect, vDir );

  0003a	53		 push	 ebx

; 3474 : 	}
; 3475 : 	else

  0003b	eb 36		 jmp	 SHORT $LN11@SetFireEff
$LN2@SetFireEff:

; 3476 : 	{
; 3477 : 		D3DXVECTOR3 vNormalDir = pOwner->GetTargetRot() * D3DXVECTOR3( 0.0f, 0.0f, -1.0f );

  0003d	0f 57 c0	 xorps	 xmm0, xmm0
  00040	8d 45 f0	 lea	 eax, DWORD PTR $T545164[ebp]
  00043	50		 push	 eax
  00044	8d 86 a4 06 00
	00		 lea	 eax, DWORD PTR [esi+1700]
  0004a	50		 push	 eax
  0004b	8d 45 e4	 lea	 eax, DWORD PTR _vNormalDir$545163[ebp]
  0004e	f3 0f 11 45 f0	 movss	 DWORD PTR $T545164[ebp], xmm0
  00053	f3 0f 11 45 f4	 movss	 DWORD PTR $T545164[ebp+4], xmm0
  00058	f3 0f 10 05 00
	00 00 00	 movss	 xmm0, DWORD PTR __real@bf800000
  00060	50		 push	 eax
  00061	f3 0f 11 45 f8	 movss	 DWORD PTR $T545164[ebp+8], xmm0
  00066	ff 15 00 00 00
	00		 call	 DWORD PTR __imp_??D@YA?AUD3DXVECTOR3@@ABUD3DXQUATERNION@@ABU0@@Z
  0006c	83 c4 0c	 add	 esp, 12			; 0000000cH

; 3478 : 		pOwner->CreateMapEffectWithDir( m_FireEffect, vNormalDir );

  0006f	8d 45 e4	 lea	 eax, DWORD PTR _vNormalDir$545163[ebp]
  00072	50		 push	 eax
$LN11@SetFireEff:
  00073	ff 75 e0	 push	 DWORD PTR tv161[ebp]
  00076	8b ce		 mov	 ecx, esi
  00078	e8 00 00 00 00	 call	 ?CreateMapEffectWithDir@ioBaseChar@@QAEPAVioMapEffect@@ABVioHashString@@ABUD3DXVECTOR3@@@Z ; ioBaseChar::CreateMapEffectWithDir
$LN1@SetFireEff:

; 3479 : 	}
; 3480 : }

  0007d	8b 4d fc	 mov	 ecx, DWORD PTR __$ArrayPad$[ebp]
  00080	5f		 pop	 edi
  00081	5e		 pop	 esi
  00082	33 cd		 xor	 ecx, ebp
  00084	5b		 pop	 ebx
  00085	e8 00 00 00 00	 call	 @__security_check_cookie@4
  0008a	c9		 leave
  0008b	c2 08 00	 ret	 8
?SetFireEffect@ioRobinExpansionItem@@IAEXPAVioBaseChar@@ABUD3DXVECTOR3@@@Z ENDP ; ioRobinExpansionItem::SetFireEffect
_TEXT	ENDS
PUBLIC	?IsEnableAttackDashCheck@ioRobinExpansionItem@@UAE_NPAVioBaseChar@@_N@Z ; ioRobinExpansionItem::IsEnableAttackDashCheck
; Function compile flags: /Ogsp
;	COMDAT ?IsEnableAttackDashCheck@ioRobinExpansionItem@@UAE_NPAVioBaseChar@@_N@Z
_TEXT	SEGMENT
_pOwner$ = 8						; size = 4
_bCheck$ = 12						; size = 1
?IsEnableAttackDashCheck@ioRobinExpansionItem@@UAE_NPAVioBaseChar@@_N@Z PROC ; ioRobinExpansionItem::IsEnableAttackDashCheck, COMDAT
; _this$ = ecx

; 3484 : 	switch( m_FireState )

  00000	8b 81 54 19 00
	00		 mov	 eax, DWORD PTR [ecx+6484]
  00006	83 f8 02	 cmp	 eax, 2
  00009	7c 11		 jl	 SHORT $LN2@IsEnableAt
  0000b	83 f8 03	 cmp	 eax, 3
  0000e	7e 08		 jle	 SHORT $LN1@IsEnableAt
  00010	83 c0 fb	 add	 eax, -5			; fffffffbH
  00013	83 f8 04	 cmp	 eax, 4
  00016	77 04		 ja	 SHORT $LN2@IsEnableAt
$LN1@IsEnableAt:

; 3485 : 	{
; 3486 : 	case FS_AIMING:
; 3487 : 	case FS_AIM_WAIT:
; 3488 : 	case FS_AIMED:
; 3489 : 	case FS_NORMAL_FIRE:
; 3490 : 	case FS_AIMED_FIRE:
; 3491 : 	case FS_NORAML_EXTEND_FIRE:
; 3492 : 	case FS_AIMED_EXTEND_FIRE:
; 3493 : 		return true;

  00018	b0 01		 mov	 al, 1
  0001a	eb 02		 jmp	 SHORT $LN4@IsEnableAt
$LN2@IsEnableAt:

; 3494 : 	}
; 3495 : 
; 3496 : 	return false;

  0001c	32 c0		 xor	 al, al
$LN4@IsEnableAt:

; 3497 : }

  0001e	c2 08 00	 ret	 8
?IsEnableAttackDashCheck@ioRobinExpansionItem@@UAE_NPAVioBaseChar@@_N@Z ENDP ; ioRobinExpansionItem::IsEnableAttackDashCheck
_TEXT	ENDS
PUBLIC	?IsChargeBulletType@ioRobinExpansionItem@@QAE_NXZ ; ioRobinExpansionItem::IsChargeBulletType
; Function compile flags: /Ogsp
;	COMDAT ?IsChargeBulletType@ioRobinExpansionItem@@QAE_NXZ
_TEXT	SEGMENT
?IsChargeBulletType@ioRobinExpansionItem@@QAE_NXZ PROC	; ioRobinExpansionItem::IsChargeBulletType, COMDAT
; _this$ = ecx

; 3582 : 	if( m_BulletType == BCT_CHARGE )

  00000	83 b9 08 1d 00
	00 02		 cmp	 DWORD PTR [ecx+7432], 2
  00007	0f 94 c0	 sete	 al

; 3583 : 		return true;
; 3584 : 
; 3585 : 	return false;
; 3586 : }

  0000a	c3		 ret	 0
?IsChargeBulletType@ioRobinExpansionItem@@QAE_NXZ ENDP	; ioRobinExpansionItem::IsChargeBulletType
_TEXT	ENDS
PUBLIC	??A?$vector@VioHashString@@V?$allocator@VioHashString@@@std@@@std@@QAEAAVioHashString@@I@Z ; std::vector<ioHashString,std::allocator<ioHashString> >::operator[]
; Function compile flags: /Ogsp
; File c:\program files (x86)\microsoft visual studio 10.0\vc\include\vector
;	COMDAT ??A?$vector@VioHashString@@V?$allocator@VioHashString@@@std@@@std@@QAEAAVioHashString@@I@Z
_TEXT	SEGMENT
__Pos$ = 8						; size = 4
??A?$vector@VioHashString@@V?$allocator@VioHashString@@@std@@@std@@QAEAAVioHashString@@I@Z PROC ; std::vector<ioHashString,std::allocator<ioHashString> >::operator[], COMDAT
; _this$ = ecx

; 928  : 		{	// subscript mutable sequence

  00000	55		 push	 ebp
  00001	8b ec		 mov	 ebp, esp

; 929  :  #if _ITERATOR_DEBUG_LEVEL == 2
; 930  : 		if (size() <= _Pos)
; 931  : 			{	// report error
; 932  : 			_DEBUG_ERROR("vector subscript out of range");
; 933  : 			_SCL_SECURE_OUT_OF_RANGE;
; 934  : 			}
; 935  : 
; 936  :  #elif _ITERATOR_DEBUG_LEVEL == 1
; 937  : 		_SCL_SECURE_VALIDATE_RANGE(_Pos < size());
; 938  :  #endif /* _ITERATOR_DEBUG_LEVEL */
; 939  : 
; 940  : 		return (*(this->_Myfirst + _Pos));

  00003	8b 45 08	 mov	 eax, DWORD PTR __Pos$[ebp]
  00006	c1 e0 04	 shl	 eax, 4
  00009	03 01		 add	 eax, DWORD PTR [ecx]

; 941  : 		}

  0000b	5d		 pop	 ebp
  0000c	c2 04 00	 ret	 4
??A?$vector@VioHashString@@V?$allocator@VioHashString@@@std@@@std@@QAEAAVioHashString@@I@Z ENDP ; std::vector<ioHashString,std::allocator<ioHashString> >::operator[]
_TEXT	ENDS
PUBLIC	?size@?$vector@MV?$allocator@M@std@@@std@@QBEIXZ ; std::vector<float,std::allocator<float> >::size
; Function compile flags: /Ogsp
;	COMDAT ?size@?$vector@MV?$allocator@M@std@@@std@@QBEIXZ
_TEXT	SEGMENT
?size@?$vector@MV?$allocator@M@std@@@std@@QBEIXZ PROC	; std::vector<float,std::allocator<float> >::size, COMDAT
; _this$ = ecx

; 879  : 		return (this->_Mylast - this->_Myfirst);

  00000	8b 41 04	 mov	 eax, DWORD PTR [ecx+4]
  00003	2b 01		 sub	 eax, DWORD PTR [ecx]
  00005	c1 f8 02	 sar	 eax, 2

; 880  : 		}

  00008	c3		 ret	 0
?size@?$vector@MV?$allocator@M@std@@@std@@QBEIXZ ENDP	; std::vector<float,std::allocator<float> >::size
_TEXT	ENDS
PUBLIC	??A?$vector@MV?$allocator@M@std@@@std@@QAEAAMI@Z ; std::vector<float,std::allocator<float> >::operator[]
; Function compile flags: /Ogsp
;	COMDAT ??A?$vector@MV?$allocator@M@std@@@std@@QAEAAMI@Z
_TEXT	SEGMENT
__Pos$ = 8						; size = 4
??A?$vector@MV?$allocator@M@std@@@std@@QAEAAMI@Z PROC	; std::vector<float,std::allocator<float> >::operator[], COMDAT
; _this$ = ecx

; 928  : 		{	// subscript mutable sequence

  00000	55		 push	 ebp
  00001	8b ec		 mov	 ebp, esp

; 929  :  #if _ITERATOR_DEBUG_LEVEL == 2
; 930  : 		if (size() <= _Pos)
; 931  : 			{	// report error
; 932  : 			_DEBUG_ERROR("vector subscript out of range");
; 933  : 			_SCL_SECURE_OUT_OF_RANGE;
; 934  : 			}
; 935  : 
; 936  :  #elif _ITERATOR_DEBUG_LEVEL == 1
; 937  : 		_SCL_SECURE_VALIDATE_RANGE(_Pos < size());
; 938  :  #endif /* _ITERATOR_DEBUG_LEVEL */
; 939  : 
; 940  : 		return (*(this->_Myfirst + _Pos));

  00003	8b 01		 mov	 eax, DWORD PTR [ecx]
  00005	8b 4d 08	 mov	 ecx, DWORD PTR __Pos$[ebp]
  00008	8d 04 88	 lea	 eax, DWORD PTR [eax+ecx*4]

; 941  : 		}

  0000b	5d		 pop	 ebp
  0000c	c2 04 00	 ret	 4
??A?$vector@MV?$allocator@M@std@@@std@@QAEAAMI@Z ENDP	; std::vector<float,std::allocator<float> >::operator[]
_TEXT	ENDS
PUBLIC	?size@?$vector@UAttackAttribute@@V?$allocator@UAttackAttribute@@@std@@@std@@QBEIXZ ; std::vector<AttackAttribute,std::allocator<AttackAttribute> >::size
; Function compile flags: /Ogsp
;	COMDAT ?size@?$vector@UAttackAttribute@@V?$allocator@UAttackAttribute@@@std@@@std@@QBEIXZ
_TEXT	SEGMENT
?size@?$vector@UAttackAttribute@@V?$allocator@UAttackAttribute@@@std@@@std@@QBEIXZ PROC ; std::vector<AttackAttribute,std::allocator<AttackAttribute> >::size, COMDAT
; _this$ = ecx

; 879  : 		return (this->_Mylast - this->_Myfirst);

  00000	8b 41 04	 mov	 eax, DWORD PTR [ecx+4]
  00003	2b 01		 sub	 eax, DWORD PTR [ecx]
  00005	6a 50		 push	 80			; 00000050H
  00007	99		 cdq
  00008	59		 pop	 ecx
  00009	f7 f9		 idiv	 ecx

; 880  : 		}

  0000b	c3		 ret	 0
?size@?$vector@UAttackAttribute@@V?$allocator@UAttackAttribute@@@std@@@std@@QBEIXZ ENDP ; std::vector<AttackAttribute,std::allocator<AttackAttribute> >::size
_TEXT	ENDS
PUBLIC	??A?$vector@UAttackAttribute@@V?$allocator@UAttackAttribute@@@std@@@std@@QAEAAUAttackAttribute@@I@Z ; std::vector<AttackAttribute,std::allocator<AttackAttribute> >::operator[]
; Function compile flags: /Ogsp
;	COMDAT ??A?$vector@UAttackAttribute@@V?$allocator@UAttackAttribute@@@std@@@std@@QAEAAUAttackAttribute@@I@Z
_TEXT	SEGMENT
__Pos$ = 8						; size = 4
??A?$vector@UAttackAttribute@@V?$allocator@UAttackAttribute@@@std@@@std@@QAEAAUAttackAttribute@@I@Z PROC ; std::vector<AttackAttribute,std::allocator<AttackAttribute> >::operator[], COMDAT
; _this$ = ecx

; 928  : 		{	// subscript mutable sequence

  00000	55		 push	 ebp
  00001	8b ec		 mov	 ebp, esp

; 929  :  #if _ITERATOR_DEBUG_LEVEL == 2
; 930  : 		if (size() <= _Pos)
; 931  : 			{	// report error
; 932  : 			_DEBUG_ERROR("vector subscript out of range");
; 933  : 			_SCL_SECURE_OUT_OF_RANGE;
; 934  : 			}
; 935  : 
; 936  :  #elif _ITERATOR_DEBUG_LEVEL == 1
; 937  : 		_SCL_SECURE_VALIDATE_RANGE(_Pos < size());
; 938  :  #endif /* _ITERATOR_DEBUG_LEVEL */
; 939  : 
; 940  : 		return (*(this->_Myfirst + _Pos));

  00003	8b 45 08	 mov	 eax, DWORD PTR __Pos$[ebp]
  00006	6b c0 50	 imul	 eax, 80			; 00000050H
  00009	03 01		 add	 eax, DWORD PTR [ecx]

; 941  : 		}

  0000b	5d		 pop	 ebp
  0000c	c2 04 00	 ret	 4
??A?$vector@UAttackAttribute@@V?$allocator@UAttackAttribute@@@std@@@std@@QAEAAUAttackAttribute@@I@Z ENDP ; std::vector<AttackAttribute,std::allocator<AttackAttribute> >::operator[]
_TEXT	ENDS
PUBLIC	?size@?$list@MV?$allocator@M@std@@@std@@QBEIXZ	; std::list<float,std::allocator<float> >::size
; Function compile flags: /Ogsp
; File c:\program files (x86)\microsoft visual studio 10.0\vc\include\list
;	COMDAT ?size@?$list@MV?$allocator@M@std@@@std@@QBEIXZ
_TEXT	SEGMENT
?size@?$list@MV?$allocator@M@std@@@std@@QBEIXZ PROC	; std::list<float,std::allocator<float> >::size, COMDAT
; _this$ = ecx

; 877  : 		return (this->_Mysize);

  00000	8b 41 04	 mov	 eax, DWORD PTR [ecx+4]

; 878  : 		}

  00003	c3		 ret	 0
?size@?$list@MV?$allocator@M@std@@@std@@QBEIXZ ENDP	; std::list<float,std::allocator<float> >::size
_TEXT	ENDS
PUBLIC	?size@?$vector@USecondAttribute@@V?$allocator@USecondAttribute@@@std@@@std@@QBEIXZ ; std::vector<SecondAttribute,std::allocator<SecondAttribute> >::size
; Function compile flags: /Ogsp
; File c:\program files (x86)\microsoft visual studio 10.0\vc\include\vector
;	COMDAT ?size@?$vector@USecondAttribute@@V?$allocator@USecondAttribute@@@std@@@std@@QBEIXZ
_TEXT	SEGMENT
?size@?$vector@USecondAttribute@@V?$allocator@USecondAttribute@@@std@@@std@@QBEIXZ PROC ; std::vector<SecondAttribute,std::allocator<SecondAttribute> >::size, COMDAT
; _this$ = ecx

; 879  : 		return (this->_Mylast - this->_Myfirst);

  00000	8b 41 04	 mov	 eax, DWORD PTR [ecx+4]
  00003	2b 01		 sub	 eax, DWORD PTR [ecx]
  00005	c1 f8 03	 sar	 eax, 3

; 880  : 		}

  00008	c3		 ret	 0
?size@?$vector@USecondAttribute@@V?$allocator@USecondAttribute@@@std@@@std@@QBEIXZ ENDP ; std::vector<SecondAttribute,std::allocator<SecondAttribute> >::size
_TEXT	ENDS
PUBLIC	?capacity@?$vector@VioHashString@@V?$allocator@VioHashString@@@std@@@std@@QBEIXZ ; std::vector<ioHashString,std::allocator<ioHashString> >::capacity
; Function compile flags: /Ogsp
;	COMDAT ?capacity@?$vector@VioHashString@@V?$allocator@VioHashString@@@std@@@std@@QBEIXZ
_TEXT	SEGMENT
?capacity@?$vector@VioHashString@@V?$allocator@VioHashString@@@std@@@std@@QBEIXZ PROC ; std::vector<ioHashString,std::allocator<ioHashString> >::capacity, COMDAT
; _this$ = ecx

; 777  : 		return (this->_Myend - this->_Myfirst);

  00000	8b 41 08	 mov	 eax, DWORD PTR [ecx+8]
  00003	2b 01		 sub	 eax, DWORD PTR [ecx]
  00005	c1 f8 04	 sar	 eax, 4

; 778  : 		}

  00008	c3		 ret	 0
?capacity@?$vector@VioHashString@@V?$allocator@VioHashString@@@std@@@std@@QBEIXZ ENDP ; std::vector<ioHashString,std::allocator<ioHashString> >::capacity
_TEXT	ENDS
PUBLIC	?_Inside@?$vector@VioHashString@@V?$allocator@VioHashString@@@std@@@std@@IBE_NPBVioHashString@@@Z ; std::vector<ioHashString,std::allocator<ioHashString> >::_Inside
; Function compile flags: /Ogsp
;	COMDAT ?_Inside@?$vector@VioHashString@@V?$allocator@VioHashString@@@std@@@std@@IBE_NPBVioHashString@@@Z
_TEXT	SEGMENT
__Ptr$ = 8						; size = 4
?_Inside@?$vector@VioHashString@@V?$allocator@VioHashString@@@std@@@std@@IBE_NPBVioHashString@@@Z PROC ; std::vector<ioHashString,std::allocator<ioHashString> >::_Inside, COMDAT
; _this$ = ecx

; 1285 : 		{	// test if _Ptr points inside vector

  00000	55		 push	 ebp
  00001	8b ec		 mov	 ebp, esp

; 1286 : 		return (_Ptr < this->_Mylast && this->_Myfirst <= _Ptr);

  00003	8b 45 08	 mov	 eax, DWORD PTR __Ptr$[ebp]
  00006	3b 41 04	 cmp	 eax, DWORD PTR [ecx+4]
  00009	73 09		 jae	 SHORT $LN3@Inside
  0000b	39 01		 cmp	 DWORD PTR [ecx], eax
  0000d	77 05		 ja	 SHORT $LN3@Inside
  0000f	33 c0		 xor	 eax, eax
  00011	40		 inc	 eax
  00012	eb 02		 jmp	 SHORT $LN4@Inside
$LN3@Inside:
  00014	33 c0		 xor	 eax, eax
$LN4@Inside:

; 1287 : 		}

  00016	5d		 pop	 ebp
  00017	c2 04 00	 ret	 4
?_Inside@?$vector@VioHashString@@V?$allocator@VioHashString@@@std@@@std@@IBE_NPBVioHashString@@@Z ENDP ; std::vector<ioHashString,std::allocator<ioHashString> >::_Inside
_TEXT	ENDS
PUBLIC	?_Orphan_range@?$vector@VioHashString@@V?$allocator@VioHashString@@@std@@@std@@IBEXPAVioHashString@@0@Z ; std::vector<ioHashString,std::allocator<ioHashString> >::_Orphan_range
; Function compile flags: /Ogsp
;	COMDAT ?_Orphan_range@?$vector@VioHashString@@V?$allocator@VioHashString@@@std@@@std@@IBEXPAVioHashString@@0@Z
_TEXT	SEGMENT
___formal$ = 8						; size = 4
___formal$ = 12						; size = 4
?_Orphan_range@?$vector@VioHashString@@V?$allocator@VioHashString@@@std@@@std@@IBEXPAVioHashString@@0@Z PROC ; std::vector<ioHashString,std::allocator<ioHashString> >::_Orphan_range, COMDAT
; _this$ = ecx

; 1454 : 		}

  00000	c2 08 00	 ret	 8
?_Orphan_range@?$vector@VioHashString@@V?$allocator@VioHashString@@@std@@@std@@IBEXPAVioHashString@@0@Z ENDP ; std::vector<ioHashString,std::allocator<ioHashString> >::_Orphan_range
_TEXT	ENDS
PUBLIC	?capacity@?$vector@MV?$allocator@M@std@@@std@@QBEIXZ ; std::vector<float,std::allocator<float> >::capacity
; Function compile flags: /Ogsp
;	COMDAT ?capacity@?$vector@MV?$allocator@M@std@@@std@@QBEIXZ
_TEXT	SEGMENT
?capacity@?$vector@MV?$allocator@M@std@@@std@@QBEIXZ PROC ; std::vector<float,std::allocator<float> >::capacity, COMDAT
; _this$ = ecx

; 777  : 		return (this->_Myend - this->_Myfirst);

  00000	8b 41 08	 mov	 eax, DWORD PTR [ecx+8]
  00003	2b 01		 sub	 eax, DWORD PTR [ecx]
  00005	c1 f8 02	 sar	 eax, 2

; 778  : 		}

  00008	c3		 ret	 0
?capacity@?$vector@MV?$allocator@M@std@@@std@@QBEIXZ ENDP ; std::vector<float,std::allocator<float> >::capacity
_TEXT	ENDS
PUBLIC	?_Inside@?$vector@MV?$allocator@M@std@@@std@@IBE_NPBM@Z ; std::vector<float,std::allocator<float> >::_Inside
; Function compile flags: /Ogsp
;	COMDAT ?_Inside@?$vector@MV?$allocator@M@std@@@std@@IBE_NPBM@Z
_TEXT	SEGMENT
__Ptr$ = 8						; size = 4
?_Inside@?$vector@MV?$allocator@M@std@@@std@@IBE_NPBM@Z PROC ; std::vector<float,std::allocator<float> >::_Inside, COMDAT
; _this$ = ecx

; 1285 : 		{	// test if _Ptr points inside vector

  00000	55		 push	 ebp
  00001	8b ec		 mov	 ebp, esp

; 1286 : 		return (_Ptr < this->_Mylast && this->_Myfirst <= _Ptr);

  00003	8b 45 08	 mov	 eax, DWORD PTR __Ptr$[ebp]
  00006	3b 41 04	 cmp	 eax, DWORD PTR [ecx+4]
  00009	73 09		 jae	 SHORT $LN3@Inside@2
  0000b	39 01		 cmp	 DWORD PTR [ecx], eax
  0000d	77 05		 ja	 SHORT $LN3@Inside@2
  0000f	33 c0		 xor	 eax, eax
  00011	40		 inc	 eax
  00012	eb 02		 jmp	 SHORT $LN4@Inside@2
$LN3@Inside@2:
  00014	33 c0		 xor	 eax, eax
$LN4@Inside@2:

; 1287 : 		}

  00016	5d		 pop	 ebp
  00017	c2 04 00	 ret	 4
?_Inside@?$vector@MV?$allocator@M@std@@@std@@IBE_NPBM@Z ENDP ; std::vector<float,std::allocator<float> >::_Inside
_TEXT	ENDS
PUBLIC	?_Orphan_range@?$vector@MV?$allocator@M@std@@@std@@IBEXPAM0@Z ; std::vector<float,std::allocator<float> >::_Orphan_range
; Function compile flags: /Ogsp
;	COMDAT ?_Orphan_range@?$vector@MV?$allocator@M@std@@@std@@IBEXPAM0@Z
_TEXT	SEGMENT
___formal$ = 8						; size = 4
___formal$ = 12						; size = 4
?_Orphan_range@?$vector@MV?$allocator@M@std@@@std@@IBEXPAM0@Z PROC ; std::vector<float,std::allocator<float> >::_Orphan_range, COMDAT
; _this$ = ecx

; 1454 : 		}

  00000	c2 08 00	 ret	 8
?_Orphan_range@?$vector@MV?$allocator@M@std@@@std@@IBEXPAM0@Z ENDP ; std::vector<float,std::allocator<float> >::_Orphan_range
_TEXT	ENDS
PUBLIC	?capacity@?$vector@UAttackAttribute@@V?$allocator@UAttackAttribute@@@std@@@std@@QBEIXZ ; std::vector<AttackAttribute,std::allocator<AttackAttribute> >::capacity
; Function compile flags: /Ogsp
;	COMDAT ?capacity@?$vector@UAttackAttribute@@V?$allocator@UAttackAttribute@@@std@@@std@@QBEIXZ
_TEXT	SEGMENT
?capacity@?$vector@UAttackAttribute@@V?$allocator@UAttackAttribute@@@std@@@std@@QBEIXZ PROC ; std::vector<AttackAttribute,std::allocator<AttackAttribute> >::capacity, COMDAT
; _this$ = ecx

; 777  : 		return (this->_Myend - this->_Myfirst);

  00000	8b 41 08	 mov	 eax, DWORD PTR [ecx+8]
  00003	2b 01		 sub	 eax, DWORD PTR [ecx]
  00005	6a 50		 push	 80			; 00000050H
  00007	99		 cdq
  00008	59		 pop	 ecx
  00009	f7 f9		 idiv	 ecx

; 778  : 		}

  0000b	c3		 ret	 0
?capacity@?$vector@UAttackAttribute@@V?$allocator@UAttackAttribute@@@std@@@std@@QBEIXZ ENDP ; std::vector<AttackAttribute,std::allocator<AttackAttribute> >::capacity
_TEXT	ENDS
PUBLIC	?_Inside@?$vector@UAttackAttribute@@V?$allocator@UAttackAttribute@@@std@@@std@@IBE_NPBUAttackAttribute@@@Z ; std::vector<AttackAttribute,std::allocator<AttackAttribute> >::_Inside
; Function compile flags: /Ogsp
;	COMDAT ?_Inside@?$vector@UAttackAttribute@@V?$allocator@UAttackAttribute@@@std@@@std@@IBE_NPBUAttackAttribute@@@Z
_TEXT	SEGMENT
__Ptr$ = 8						; size = 4
?_Inside@?$vector@UAttackAttribute@@V?$allocator@UAttackAttribute@@@std@@@std@@IBE_NPBUAttackAttribute@@@Z PROC ; std::vector<AttackAttribute,std::allocator<AttackAttribute> >::_Inside, COMDAT
; _this$ = ecx

; 1285 : 		{	// test if _Ptr points inside vector

  00000	55		 push	 ebp
  00001	8b ec		 mov	 ebp, esp

; 1286 : 		return (_Ptr < this->_Mylast && this->_Myfirst <= _Ptr);

  00003	8b 45 08	 mov	 eax, DWORD PTR __Ptr$[ebp]
  00006	3b 41 04	 cmp	 eax, DWORD PTR [ecx+4]
  00009	73 09		 jae	 SHORT $LN3@Inside@3
  0000b	39 01		 cmp	 DWORD PTR [ecx], eax
  0000d	77 05		 ja	 SHORT $LN3@Inside@3
  0000f	33 c0		 xor	 eax, eax
  00011	40		 inc	 eax
  00012	eb 02		 jmp	 SHORT $LN4@Inside@3
$LN3@Inside@3:
  00014	33 c0		 xor	 eax, eax
$LN4@Inside@3:

; 1287 : 		}

  00016	5d		 pop	 ebp
  00017	c2 04 00	 ret	 4
?_Inside@?$vector@UAttackAttribute@@V?$allocator@UAttackAttribute@@@std@@@std@@IBE_NPBUAttackAttribute@@@Z ENDP ; std::vector<AttackAttribute,std::allocator<AttackAttribute> >::_Inside
_TEXT	ENDS
PUBLIC	??_C@_0BD@OLBABOEK@vector?$DMT?$DO?5too?5long?$AA@ ; `string'
PUBLIC	?_Xlen@?$vector@UAttackAttribute@@V?$allocator@UAttackAttribute@@@std@@@std@@IBEXXZ ; std::vector<AttackAttribute,std::allocator<AttackAttribute> >::_Xlen
EXTRN	__imp_?_Xlength_error@std@@YAXPBD@Z:PROC
;	COMDAT ??_C@_0BD@OLBABOEK@vector?$DMT?$DO?5too?5long?$AA@
CONST	SEGMENT
??_C@_0BD@OLBABOEK@vector?$DMT?$DO?5too?5long?$AA@ DB 'vector<T> too long'
	DB	00H						; `string'
; Function compile flags: /Ogsp
CONST	ENDS
;	COMDAT ?_Xlen@?$vector@UAttackAttribute@@V?$allocator@UAttackAttribute@@@std@@@std@@IBEXXZ
_TEXT	SEGMENT
?_Xlen@?$vector@UAttackAttribute@@V?$allocator@UAttackAttribute@@@std@@@std@@IBEXXZ PROC ; std::vector<AttackAttribute,std::allocator<AttackAttribute> >::_Xlen, COMDAT
; _this$ = ecx

; 1427 : 		_Xlength_error("vector<T> too long");

  00000	68 00 00 00 00	 push	 OFFSET ??_C@_0BD@OLBABOEK@vector?$DMT?$DO?5too?5long?$AA@
  00005	ff 15 00 00 00
	00		 call	 DWORD PTR __imp_?_Xlength_error@std@@YAXPBD@Z
$LN4@Xlen:
$LN3@Xlen:
  0000b	cc		 int	 3
?_Xlen@?$vector@UAttackAttribute@@V?$allocator@UAttackAttribute@@@std@@@std@@IBEXXZ ENDP ; std::vector<AttackAttribute,std::allocator<AttackAttribute> >::_Xlen
_TEXT	ENDS
PUBLIC	?_Orphan_range@?$vector@UAttackAttribute@@V?$allocator@UAttackAttribute@@@std@@@std@@IBEXPAUAttackAttribute@@0@Z ; std::vector<AttackAttribute,std::allocator<AttackAttribute> >::_Orphan_range
; Function compile flags: /Ogsp
;	COMDAT ?_Orphan_range@?$vector@UAttackAttribute@@V?$allocator@UAttackAttribute@@@std@@@std@@IBEXPAUAttackAttribute@@0@Z
_TEXT	SEGMENT
___formal$ = 8						; size = 4
___formal$ = 12						; size = 4
?_Orphan_range@?$vector@UAttackAttribute@@V?$allocator@UAttackAttribute@@@std@@@std@@IBEXPAUAttackAttribute@@0@Z PROC ; std::vector<AttackAttribute,std::allocator<AttackAttribute> >::_Orphan_range, COMDAT
; _this$ = ecx

; 1454 : 		}

  00000	c2 08 00	 ret	 8
?_Orphan_range@?$vector@UAttackAttribute@@V?$allocator@UAttackAttribute@@@std@@@std@@IBEXPAUAttackAttribute@@0@Z ENDP ; std::vector<AttackAttribute,std::allocator<AttackAttribute> >::_Orphan_range
_TEXT	ENDS
PUBLIC	?_Nextnode@?$_List_val@MV?$allocator@M@std@@@std@@SAAAPAU_Node@?$_List_nod@MV?$allocator@M@std@@@2@PAU342@@Z ; std::_List_val<float,std::allocator<float> >::_Nextnode
; Function compile flags: /Ogsp
; File c:\program files (x86)\microsoft visual studio 10.0\vc\include\list
;	COMDAT ?_Nextnode@?$_List_val@MV?$allocator@M@std@@@std@@SAAAPAU_Node@?$_List_nod@MV?$allocator@M@std@@@2@PAU342@@Z
_TEXT	SEGMENT
__Pnode$ = 8						; size = 4
?_Nextnode@?$_List_val@MV?$allocator@M@std@@@std@@SAAAPAU_Node@?$_List_nod@MV?$allocator@M@std@@@2@PAU342@@Z PROC ; std::_List_val<float,std::allocator<float> >::_Nextnode, COMDAT

; 560  : 		{	// return reference to successor pointer in node

  00000	55		 push	 ebp
  00001	8b ec		 mov	 ebp, esp

; 561  : 		return ((_Nodepref)(*_Pnode)._Next);

  00003	8b 45 08	 mov	 eax, DWORD PTR __Pnode$[ebp]

; 562  : 		}

  00006	5d		 pop	 ebp
  00007	c3		 ret	 0
?_Nextnode@?$_List_val@MV?$allocator@M@std@@@std@@SAAAPAU_Node@?$_List_nod@MV?$allocator@M@std@@@2@PAU342@@Z ENDP ; std::_List_val<float,std::allocator<float> >::_Nextnode
_TEXT	ENDS
PUBLIC	??D?$_Vector_const_iterator@V?$_Vector_val@MV?$allocator@M@std@@@std@@@std@@QBEABMXZ ; std::_Vector_const_iterator<std::_Vector_val<float,std::allocator<float> > >::operator*
; Function compile flags: /Ogsp
; File c:\program files (x86)\microsoft visual studio 10.0\vc\include\vector
;	COMDAT ??D?$_Vector_const_iterator@V?$_Vector_val@MV?$allocator@M@std@@@std@@@std@@QBEABMXZ
_TEXT	SEGMENT
??D?$_Vector_const_iterator@V?$_Vector_val@MV?$allocator@M@std@@@std@@@std@@QBEABMXZ PROC ; std::_Vector_const_iterator<std::_Vector_val<float,std::allocator<float> > >::operator*, COMDAT
; _this$ = ecx

; 64   :  #if _ITERATOR_DEBUG_LEVEL == 2
; 65   : 		if (this->_Getcont() == 0
; 66   : 			|| this->_Ptr == 0
; 67   : 			|| this->_Ptr < ((_Myvec *)this->_Getcont())->_Myfirst
; 68   : 			|| ((_Myvec *)this->_Getcont())->_Mylast <= this->_Ptr)
; 69   : 			{	// report error
; 70   : 			_DEBUG_ERROR("vector iterator not dereferencable");
; 71   : 			_SCL_SECURE_OUT_OF_RANGE;
; 72   : 			}
; 73   : 
; 74   :  #elif _ITERATOR_DEBUG_LEVEL == 1
; 75   : 		_SCL_SECURE_VALIDATE(this->_Getcont() != 0);
; 76   : 		_SCL_SECURE_VALIDATE_RANGE(
; 77   : 			this->_Ptr != 0
; 78   : 			&& ((_Myvec *)this->_Getcont())->_Myfirst <= this->_Ptr
; 79   : 			&& this->_Ptr < ((_Myvec *)this->_Getcont())->_Mylast);
; 80   :  #endif /* _ITERATOR_DEBUG_LEVEL */
; 81   : 
; 82   : 		__analysis_assume(this->_Ptr != 0);
; 83   : 
; 84   : 		return (*this->_Ptr);

  00000	8b 01		 mov	 eax, DWORD PTR [ecx]

; 85   : 		}

  00002	c3		 ret	 0
??D?$_Vector_const_iterator@V?$_Vector_val@MV?$allocator@M@std@@@std@@@std@@QBEABMXZ ENDP ; std::_Vector_const_iterator<std::_Vector_val<float,std::allocator<float> > >::operator*
_TEXT	ENDS
PUBLIC	??E?$_Vector_const_iterator@V?$_Vector_val@MV?$allocator@M@std@@@std@@@std@@QAEAAV01@XZ ; std::_Vector_const_iterator<std::_Vector_val<float,std::allocator<float> > >::operator++
; Function compile flags: /Ogsp
;	COMDAT ??E?$_Vector_const_iterator@V?$_Vector_val@MV?$allocator@M@std@@@std@@@std@@QAEAAV01@XZ
_TEXT	SEGMENT
??E?$_Vector_const_iterator@V?$_Vector_val@MV?$allocator@M@std@@@std@@@std@@QAEAAV01@XZ PROC ; std::_Vector_const_iterator<std::_Vector_val<float,std::allocator<float> > >::operator++, COMDAT
; _this$ = ecx

; 93   : 		{	// preincrement

  00000	8b c1		 mov	 eax, ecx

; 94   :  #if _ITERATOR_DEBUG_LEVEL == 2
; 95   : 		if (this->_Getcont() == 0
; 96   : 			|| this->_Ptr == 0
; 97   : 			|| ((_Myvec *)this->_Getcont())->_Mylast <= this->_Ptr)
; 98   : 			{	// report error
; 99   : 			_DEBUG_ERROR("vector iterator not incrementable");
; 100  : 			_SCL_SECURE_OUT_OF_RANGE;
; 101  : 			}
; 102  : 
; 103  :  #elif _ITERATOR_DEBUG_LEVEL == 1
; 104  : 		_SCL_SECURE_VALIDATE(this->_Getcont() != 0);
; 105  : 		_SCL_SECURE_VALIDATE_RANGE(
; 106  : 			this->_Ptr != 0
; 107  : 			&& this->_Ptr < ((_Myvec *)this->_Getcont())->_Mylast);
; 108  :  #endif /* _ITERATOR_DEBUG_LEVEL */
; 109  : 
; 110  : 		++this->_Ptr;

  00002	83 00 04	 add	 DWORD PTR [eax], 4

; 111  : 		return (*this);
; 112  : 		}

  00005	c3		 ret	 0
??E?$_Vector_const_iterator@V?$_Vector_val@MV?$allocator@M@std@@@std@@@std@@QAEAAV01@XZ ENDP ; std::_Vector_const_iterator<std::_Vector_val<float,std::allocator<float> > >::operator++
_TEXT	ENDS
PUBLIC	?_Inside@?$vector@USecondAttribute@@V?$allocator@USecondAttribute@@@std@@@std@@IBE_NPBUSecondAttribute@@@Z ; std::vector<SecondAttribute,std::allocator<SecondAttribute> >::_Inside
; Function compile flags: /Ogsp
;	COMDAT ?_Inside@?$vector@USecondAttribute@@V?$allocator@USecondAttribute@@@std@@@std@@IBE_NPBUSecondAttribute@@@Z
_TEXT	SEGMENT
__Ptr$ = 8						; size = 4
?_Inside@?$vector@USecondAttribute@@V?$allocator@USecondAttribute@@@std@@@std@@IBE_NPBUSecondAttribute@@@Z PROC ; std::vector<SecondAttribute,std::allocator<SecondAttribute> >::_Inside, COMDAT
; _this$ = ecx

; 1285 : 		{	// test if _Ptr points inside vector

  00000	55		 push	 ebp
  00001	8b ec		 mov	 ebp, esp

; 1286 : 		return (_Ptr < this->_Mylast && this->_Myfirst <= _Ptr);

  00003	8b 45 08	 mov	 eax, DWORD PTR __Ptr$[ebp]
  00006	3b 41 04	 cmp	 eax, DWORD PTR [ecx+4]
  00009	73 09		 jae	 SHORT $LN3@Inside@4
  0000b	39 01		 cmp	 DWORD PTR [ecx], eax
  0000d	77 05		 ja	 SHORT $LN3@Inside@4
  0000f	33 c0		 xor	 eax, eax
  00011	40		 inc	 eax
  00012	eb 02		 jmp	 SHORT $LN4@Inside@4
$LN3@Inside@4:
  00014	33 c0		 xor	 eax, eax
$LN4@Inside@4:

; 1287 : 		}

  00016	5d		 pop	 ebp
  00017	c2 04 00	 ret	 4
?_Inside@?$vector@USecondAttribute@@V?$allocator@USecondAttribute@@@std@@@std@@IBE_NPBUSecondAttribute@@@Z ENDP ; std::vector<SecondAttribute,std::allocator<SecondAttribute> >::_Inside
_TEXT	ENDS
PUBLIC	?_Orphan_range@?$vector@USecondAttribute@@V?$allocator@USecondAttribute@@@std@@@std@@IBEXPAUSecondAttribute@@0@Z ; std::vector<SecondAttribute,std::allocator<SecondAttribute> >::_Orphan_range
; Function compile flags: /Ogsp
;	COMDAT ?_Orphan_range@?$vector@USecondAttribute@@V?$allocator@USecondAttribute@@@std@@@std@@IBEXPAUSecondAttribute@@0@Z
_TEXT	SEGMENT
___formal$ = 8						; size = 4
___formal$ = 12						; size = 4
?_Orphan_range@?$vector@USecondAttribute@@V?$allocator@USecondAttribute@@@std@@@std@@IBEXPAUSecondAttribute@@0@Z PROC ; std::vector<SecondAttribute,std::allocator<SecondAttribute> >::_Orphan_range, COMDAT
; _this$ = ecx

; 1454 : 		}

  00000	c2 08 00	 ret	 8
?_Orphan_range@?$vector@USecondAttribute@@V?$allocator@USecondAttribute@@@std@@@std@@IBEXPAUSecondAttribute@@0@Z ENDP ; std::vector<SecondAttribute,std::allocator<SecondAttribute> >::_Orphan_range
_TEXT	ENDS
PUBLIC	??1?$_Vector_val@USecondAttribute@@V?$allocator@USecondAttribute@@@std@@@std@@QAE@XZ ; std::_Vector_val<SecondAttribute,std::allocator<SecondAttribute> >::~_Vector_val<SecondAttribute,std::allocator<SecondAttribute> >
; Function compile flags: /Ogsp
;	COMDAT ??1?$_Vector_val@USecondAttribute@@V?$allocator@USecondAttribute@@@std@@@std@@QAE@XZ
_TEXT	SEGMENT
??1?$_Vector_val@USecondAttribute@@V?$allocator@USecondAttribute@@@std@@@std@@QAE@XZ PROC ; std::_Vector_val<SecondAttribute,std::allocator<SecondAttribute> >::~_Vector_val<SecondAttribute,std::allocator<SecondAttribute> >, COMDAT
; _this$ = ecx

; 434  : 		}

  00000	c3		 ret	 0
??1?$_Vector_val@USecondAttribute@@V?$allocator@USecondAttribute@@@std@@@std@@QAE@XZ ENDP ; std::_Vector_val<SecondAttribute,std::allocator<SecondAttribute> >::~_Vector_val<SecondAttribute,std::allocator<SecondAttribute> >
_TEXT	ENDS
PUBLIC	??0?$allocator@USecondAttribute@@@std@@QAE@XZ	; std::allocator<SecondAttribute>::allocator<SecondAttribute>
; Function compile flags: /Ogsp
; File c:\program files (x86)\microsoft visual studio 10.0\vc\include\xmemory
;	COMDAT ??0?$allocator@USecondAttribute@@@std@@QAE@XZ
_TEXT	SEGMENT
??0?$allocator@USecondAttribute@@@std@@QAE@XZ PROC	; std::allocator<SecondAttribute>::allocator<SecondAttribute>, COMDAT
; _this$ = ecx

; 161  : 	_ALLOCATOR() _THROW0()

  00000	8b c1		 mov	 eax, ecx

; 162  : 		{	// construct default allocator (do nothing)
; 163  : 		}

  00002	c3		 ret	 0
??0?$allocator@USecondAttribute@@@std@@QAE@XZ ENDP	; std::allocator<SecondAttribute>::allocator<SecondAttribute>
_TEXT	ENDS
PUBLIC	??0?$allocator@USecondAttribute@@@std@@QAE@ABV01@@Z ; std::allocator<SecondAttribute>::allocator<SecondAttribute>
; Function compile flags: /Ogsp
;	COMDAT ??0?$allocator@USecondAttribute@@@std@@QAE@ABV01@@Z
_TEXT	SEGMENT
___formal$ = 8						; size = 4
??0?$allocator@USecondAttribute@@@std@@QAE@ABV01@@Z PROC ; std::allocator<SecondAttribute>::allocator<SecondAttribute>, COMDAT
; _this$ = ecx

; 165  : 	_ALLOCATOR(const _ALLOCATOR<_Ty>&) _THROW0()

  00000	8b c1		 mov	 eax, ecx

; 166  : 		{	// construct by copying (do nothing)
; 167  : 		}

  00002	c2 04 00	 ret	 4
??0?$allocator@USecondAttribute@@@std@@QAE@ABV01@@Z ENDP ; std::allocator<SecondAttribute>::allocator<SecondAttribute>
_TEXT	ENDS
PUBLIC	??8?$_List_const_iterator@V?$_List_val@MV?$allocator@M@std@@@std@@@std@@QBE_NABV01@@Z ; std::_List_const_iterator<std::_List_val<float,std::allocator<float> > >::operator==
; Function compile flags: /Ogsp
; File c:\program files (x86)\microsoft visual studio 10.0\vc\include\list
;	COMDAT ??8?$_List_const_iterator@V?$_List_val@MV?$allocator@M@std@@@std@@@std@@QBE_NABV01@@Z
_TEXT	SEGMENT
__Right$ = 8						; size = 4
??8?$_List_const_iterator@V?$_List_val@MV?$allocator@M@std@@@std@@@std@@QBE_NABV01@@Z PROC ; std::_List_const_iterator<std::_List_val<float,std::allocator<float> > >::operator==, COMDAT
; _this$ = ecx

; 281  : 		{	// test for iterator equality

  00000	55		 push	 ebp
  00001	8b ec		 mov	 ebp, esp

; 282  :  #if _ITERATOR_DEBUG_LEVEL == 2
; 283  : 		if (this->_Getcont() == 0
; 284  : 			|| this->_Getcont() != _Right._Getcont())
; 285  : 			{	// report error
; 286  : 			_DEBUG_ERROR("list iterators incompatible");
; 287  : 			_SCL_SECURE_INVALID_ARGUMENT;
; 288  : 			}
; 289  : 
; 290  :  #elif _ITERATOR_DEBUG_LEVEL == 1
; 291  : 		_SCL_SECURE_VALIDATE(this->_Getcont() != 0
; 292  : 			&& this->_Getcont() == _Right._Getcont());
; 293  :  #endif /* _ITERATOR_DEBUG_LEVEL */
; 294  : 
; 295  : 		return (this->_Ptr == _Right._Ptr);

  00003	8b 01		 mov	 eax, DWORD PTR [ecx]
  00005	8b 4d 08	 mov	 ecx, DWORD PTR __Right$[ebp]
  00008	2b 01		 sub	 eax, DWORD PTR [ecx]
  0000a	f7 d8		 neg	 eax
  0000c	1b c0		 sbb	 eax, eax
  0000e	40		 inc	 eax

; 296  : 		}

  0000f	5d		 pop	 ebp
  00010	c2 04 00	 ret	 4
??8?$_List_const_iterator@V?$_List_val@MV?$allocator@M@std@@@std@@@std@@QBE_NABV01@@Z ENDP ; std::_List_const_iterator<std::_List_val<float,std::allocator<float> > >::operator==
_TEXT	ENDS
PUBLIC	?_Xlen@?$vector@MV?$allocator@M@std@@@std@@IBEXXZ ; std::vector<float,std::allocator<float> >::_Xlen
; Function compile flags: /Ogsp
; File c:\program files (x86)\microsoft visual studio 10.0\vc\include\vector
;	COMDAT ?_Xlen@?$vector@MV?$allocator@M@std@@@std@@IBEXXZ
_TEXT	SEGMENT
?_Xlen@?$vector@MV?$allocator@M@std@@@std@@IBEXXZ PROC	; std::vector<float,std::allocator<float> >::_Xlen, COMDAT
; _this$ = ecx

; 1427 : 		_Xlength_error("vector<T> too long");

  00000	68 00 00 00 00	 push	 OFFSET ??_C@_0BD@OLBABOEK@vector?$DMT?$DO?5too?5long?$AA@
  00005	ff 15 00 00 00
	00		 call	 DWORD PTR __imp_?_Xlength_error@std@@YAXPBD@Z
$LN4@Xlen@2:
$LN3@Xlen@2:
  0000b	cc		 int	 3
?_Xlen@?$vector@MV?$allocator@M@std@@@std@@IBEXXZ ENDP	; std::vector<float,std::allocator<float> >::_Xlen
_TEXT	ENDS
PUBLIC	?max_size@?$allocator@UAttackAttribute@@@std@@QBEIXZ ; std::allocator<AttackAttribute>::max_size
; Function compile flags: /Ogsp
; File c:\program files (x86)\microsoft visual studio 10.0\vc\include\xmemory
;	COMDAT ?max_size@?$allocator@UAttackAttribute@@@std@@QBEIXZ
_TEXT	SEGMENT
?max_size@?$allocator@UAttackAttribute@@@std@@QBEIXZ PROC ; std::allocator<AttackAttribute>::max_size, COMDAT
; _this$ = ecx

; 218  : 		_SIZT _Count = (_SIZT)(-1) / sizeof (_Ty);
; 219  : 		return (0 < _Count ? _Count : 1);

  00000	b8 33 33 33 03	 mov	 eax, 53687091		; 03333333H

; 220  : 		}

  00005	c3		 ret	 0
?max_size@?$allocator@UAttackAttribute@@@std@@QBEIXZ ENDP ; std::allocator<AttackAttribute>::max_size
_TEXT	ENDS
PUBLIC	?_Myval@?$_List_val@MV?$allocator@M@std@@@std@@SAAAMPAU_Node@?$_List_nod@MV?$allocator@M@std@@@2@@Z ; std::_List_val<float,std::allocator<float> >::_Myval
; Function compile flags: /Ogsp
; File c:\program files (x86)\microsoft visual studio 10.0\vc\include\list
;	COMDAT ?_Myval@?$_List_val@MV?$allocator@M@std@@@std@@SAAAMPAU_Node@?$_List_nod@MV?$allocator@M@std@@@2@@Z
_TEXT	SEGMENT
__Pnode$ = 8						; size = 4
?_Myval@?$_List_val@MV?$allocator@M@std@@@std@@SAAAMPAU_Node@?$_List_nod@MV?$allocator@M@std@@@2@@Z PROC ; std::_List_val<float,std::allocator<float> >::_Myval, COMDAT

; 570  : 		{	// return reference to value in node

  00000	55		 push	 ebp
  00001	8b ec		 mov	 ebp, esp

; 571  : 		return ((reference)(*_Pnode)._Myval);

  00003	8b 45 08	 mov	 eax, DWORD PTR __Pnode$[ebp]
  00006	83 c0 08	 add	 eax, 8

; 572  : 		}

  00009	5d		 pop	 ebp
  0000a	c3		 ret	 0
?_Myval@?$_List_val@MV?$allocator@M@std@@@std@@SAAAMPAU_Node@?$_List_nod@MV?$allocator@M@std@@@2@@Z ENDP ; std::_List_val<float,std::allocator<float> >::_Myval
_TEXT	ENDS
PUBLIC	?capacity@?$vector@USecondAttribute@@V?$allocator@USecondAttribute@@@std@@@std@@QBEIXZ ; std::vector<SecondAttribute,std::allocator<SecondAttribute> >::capacity
; Function compile flags: /Ogsp
; File c:\program files (x86)\microsoft visual studio 10.0\vc\include\vector
;	COMDAT ?capacity@?$vector@USecondAttribute@@V?$allocator@USecondAttribute@@@std@@@std@@QBEIXZ
_TEXT	SEGMENT
?capacity@?$vector@USecondAttribute@@V?$allocator@USecondAttribute@@@std@@@std@@QBEIXZ PROC ; std::vector<SecondAttribute,std::allocator<SecondAttribute> >::capacity, COMDAT
; _this$ = ecx

; 777  : 		return (this->_Myend - this->_Myfirst);

  00000	8b 41 08	 mov	 eax, DWORD PTR [ecx+8]
  00003	2b 01		 sub	 eax, DWORD PTR [ecx]
  00005	c1 f8 03	 sar	 eax, 3

; 778  : 		}

  00008	c3		 ret	 0
?capacity@?$vector@USecondAttribute@@V?$allocator@USecondAttribute@@@std@@@std@@QBEIXZ ENDP ; std::vector<SecondAttribute,std::allocator<SecondAttribute> >::capacity
_TEXT	ENDS
PUBLIC	?_Xlen@?$vector@USecondAttribute@@V?$allocator@USecondAttribute@@@std@@@std@@IBEXXZ ; std::vector<SecondAttribute,std::allocator<SecondAttribute> >::_Xlen
; Function compile flags: /Ogsp
;	COMDAT ?_Xlen@?$vector@USecondAttribute@@V?$allocator@USecondAttribute@@@std@@@std@@IBEXXZ
_TEXT	SEGMENT
?_Xlen@?$vector@USecondAttribute@@V?$allocator@USecondAttribute@@@std@@@std@@IBEXXZ PROC ; std::vector<SecondAttribute,std::allocator<SecondAttribute> >::_Xlen, COMDAT
; _this$ = ecx

; 1427 : 		_Xlength_error("vector<T> too long");

  00000	68 00 00 00 00	 push	 OFFSET ??_C@_0BD@OLBABOEK@vector?$DMT?$DO?5too?5long?$AA@
  00005	ff 15 00 00 00
	00		 call	 DWORD PTR __imp_?_Xlength_error@std@@YAXPBD@Z
$LN4@Xlen@3:
$LN3@Xlen@3:
  0000b	cc		 int	 3
?_Xlen@?$vector@USecondAttribute@@V?$allocator@USecondAttribute@@@std@@@std@@IBEXXZ ENDP ; std::vector<SecondAttribute,std::allocator<SecondAttribute> >::_Xlen
_TEXT	ENDS
PUBLIC	?deallocate@?$allocator@USecondAttribute@@@std@@QAEXPAUSecondAttribute@@I@Z ; std::allocator<SecondAttribute>::deallocate
; Function compile flags: /Ogsp
; File c:\program files (x86)\microsoft visual studio 10.0\vc\include\xmemory
;	COMDAT ?deallocate@?$allocator@USecondAttribute@@@std@@QAEXPAUSecondAttribute@@I@Z
_TEXT	SEGMENT
__Ptr$ = 8						; size = 4
___formal$ = 12						; size = 4
?deallocate@?$allocator@USecondAttribute@@@std@@QAEXPAUSecondAttribute@@I@Z PROC ; std::allocator<SecondAttribute>::deallocate, COMDAT
; _this$ = ecx

; 181  : 		{	// deallocate object at _Ptr, ignore size

  00000	55		 push	 ebp
  00001	8b ec		 mov	 ebp, esp

; 182  : 		::operator delete(_Ptr);

  00003	ff 75 08	 push	 DWORD PTR __Ptr$[ebp]
  00006	e8 00 00 00 00	 call	 ??3@YAXPAX@Z		; operator delete
  0000b	59		 pop	 ecx

; 183  : 		}

  0000c	5d		 pop	 ebp
  0000d	c2 08 00	 ret	 8
?deallocate@?$allocator@USecondAttribute@@@std@@QAEXPAUSecondAttribute@@I@Z ENDP ; std::allocator<SecondAttribute>::deallocate
_TEXT	ENDS
PUBLIC	??E?$_List_const_iterator@V?$_List_val@MV?$allocator@M@std@@@std@@@std@@QAEAAV01@XZ ; std::_List_const_iterator<std::_List_val<float,std::allocator<float> > >::operator++
; Function compile flags: /Ogsp
; File c:\program files (x86)\microsoft visual studio 10.0\vc\include\list
;	COMDAT ??E?$_List_const_iterator@V?$_List_val@MV?$allocator@M@std@@@std@@@std@@QAEAAV01@XZ
_TEXT	SEGMENT
??E?$_List_const_iterator@V?$_List_val@MV?$allocator@M@std@@@std@@@std@@QAEAAV01@XZ PROC ; std::_List_const_iterator<std::_List_val<float,std::allocator<float> > >::operator++, COMDAT
; _this$ = ecx

; 221  : 		{	// preincrement

  00000	8b c1		 mov	 eax, ecx

; 222  :  #if _ITERATOR_DEBUG_LEVEL == 2
; 223  : 		if (this->_Getcont() == 0
; 224  : 			|| this->_Ptr == 0
; 225  : 			|| this->_Ptr == ((_Mylist *)this->_Getcont())->_Myhead)
; 226  : 			{	// report error
; 227  : 			_DEBUG_ERROR("list iterator not incrementable");
; 228  : 			_SCL_SECURE_OUT_OF_RANGE;
; 229  : 			}
; 230  : 
; 231  :  #elif _ITERATOR_DEBUG_LEVEL == 1
; 232  : 		_SCL_SECURE_VALIDATE(this->_Getcont() != 0 && this->_Ptr != 0);
; 233  : 		_SCL_SECURE_VALIDATE_RANGE(this->_Ptr !=
; 234  : 			((_Mylist *)this->_Getcont())->_Myhead);
; 235  :  #endif /* _ITERATOR_DEBUG_LEVEL */
; 236  : 
; 237  : 		this->_Ptr = _Mylist::_Nextnode(this->_Ptr);

  00002	8b 08		 mov	 ecx, DWORD PTR [eax]
  00004	8b 09		 mov	 ecx, DWORD PTR [ecx]
  00006	89 08		 mov	 DWORD PTR [eax], ecx

; 238  : 		return (*this);
; 239  : 		}

  00008	c3		 ret	 0
??E?$_List_const_iterator@V?$_List_val@MV?$allocator@M@std@@@std@@@std@@QAEAAV01@XZ ENDP ; std::_List_const_iterator<std::_List_val<float,std::allocator<float> > >::operator++
_TEXT	ENDS
PUBLIC	??0?$_Vector_const_iterator@V?$_Vector_val@USecondAttribute@@V?$allocator@USecondAttribute@@@std@@@std@@@std@@QAE@PAUSecondAttribute@@PBU_Container_base0@1@@Z ; std::_Vector_const_iterator<std::_Vector_val<SecondAttribute,std::allocator<SecondAttribute> > >::_Vector_const_iterator<std::_Vector_val<SecondAttribute,std::allocator<SecondAttribute> > >
; Function compile flags: /Ogsp
; File c:\program files (x86)\microsoft visual studio 10.0\vc\include\vector
;	COMDAT ??0?$_Vector_const_iterator@V?$_Vector_val@USecondAttribute@@V?$allocator@USecondAttribute@@@std@@@std@@@std@@QAE@PAUSecondAttribute@@PBU_Container_base0@1@@Z
_TEXT	SEGMENT
__Parg$ = 8						; size = 4
__Pvector$ = 12						; size = 4
??0?$_Vector_const_iterator@V?$_Vector_val@USecondAttribute@@V?$allocator@USecondAttribute@@@std@@@std@@@std@@QAE@PAUSecondAttribute@@PBU_Container_base0@1@@Z PROC ; std::_Vector_const_iterator<std::_Vector_val<SecondAttribute,std::allocator<SecondAttribute> > >::_Vector_const_iterator<std::_Vector_val<SecondAttribute,std::allocator<SecondAttribute> > >, COMDAT
; _this$ = ecx

; 45   : 		{	// construct with pointer _Parg

  00000	55		 push	 ebp
  00001	8b ec		 mov	 ebp, esp
  00003	8b c1		 mov	 eax, ecx
  00005	8b 4d 08	 mov	 ecx, DWORD PTR __Parg$[ebp]
  00008	89 08		 mov	 DWORD PTR [eax], ecx

; 46   : 		this->_Adopt(_Pvector);
; 47   : 		}

  0000a	5d		 pop	 ebp
  0000b	c2 08 00	 ret	 8
??0?$_Vector_const_iterator@V?$_Vector_val@USecondAttribute@@V?$allocator@USecondAttribute@@@std@@@std@@@std@@QAE@PAUSecondAttribute@@PBU_Container_base0@1@@Z ENDP ; std::_Vector_const_iterator<std::_Vector_val<SecondAttribute,std::allocator<SecondAttribute> > >::_Vector_const_iterator<std::_Vector_val<SecondAttribute,std::allocator<SecondAttribute> > >
_TEXT	ENDS
PUBLIC	??0?$_Vector_iterator@V?$_Vector_val@USecondAttribute@@V?$allocator@USecondAttribute@@@std@@@std@@@std@@QAE@PAUSecondAttribute@@PBU_Container_base0@1@@Z ; std::_Vector_iterator<std::_Vector_val<SecondAttribute,std::allocator<SecondAttribute> > >::_Vector_iterator<std::_Vector_val<SecondAttribute,std::allocator<SecondAttribute> > >
; Function compile flags: /Ogsp
;	COMDAT ??0?$_Vector_iterator@V?$_Vector_val@USecondAttribute@@V?$allocator@USecondAttribute@@@std@@@std@@@std@@QAE@PAUSecondAttribute@@PBU_Container_base0@1@@Z
_TEXT	SEGMENT
__Parg$ = 8						; size = 4
__Pvector$ = 12						; size = 4
??0?$_Vector_iterator@V?$_Vector_val@USecondAttribute@@V?$allocator@USecondAttribute@@@std@@@std@@@std@@QAE@PAUSecondAttribute@@PBU_Container_base0@1@@Z PROC ; std::_Vector_iterator<std::_Vector_val<SecondAttribute,std::allocator<SecondAttribute> > >::_Vector_iterator<std::_Vector_val<SecondAttribute,std::allocator<SecondAttribute> > >, COMDAT
; _this$ = ecx

; 304  : 		{	// construct with pointer _Parg

  00000	55		 push	 ebp
  00001	8b ec		 mov	 ebp, esp
  00003	8b c1		 mov	 eax, ecx
  00005	8b 4d 08	 mov	 ecx, DWORD PTR __Parg$[ebp]
  00008	89 08		 mov	 DWORD PTR [eax], ecx

; 305  : 		}

  0000a	5d		 pop	 ebp
  0000b	c2 08 00	 ret	 8
??0?$_Vector_iterator@V?$_Vector_val@USecondAttribute@@V?$allocator@USecondAttribute@@@std@@@std@@@std@@QAE@PAUSecondAttribute@@PBU_Container_base0@1@@Z ENDP ; std::_Vector_iterator<std::_Vector_val<SecondAttribute,std::allocator<SecondAttribute> > >::_Vector_iterator<std::_Vector_val<SecondAttribute,std::allocator<SecondAttribute> > >
_TEXT	ENDS
PUBLIC	?max_size@?$allocator@M@std@@QBEIXZ		; std::allocator<float>::max_size
; Function compile flags: /Ogsp
; File c:\program files (x86)\microsoft visual studio 10.0\vc\include\xmemory
;	COMDAT ?max_size@?$allocator@M@std@@QBEIXZ
_TEXT	SEGMENT
?max_size@?$allocator@M@std@@QBEIXZ PROC		; std::allocator<float>::max_size, COMDAT
; _this$ = ecx

; 218  : 		_SIZT _Count = (_SIZT)(-1) / sizeof (_Ty);
; 219  : 		return (0 < _Count ? _Count : 1);

  00000	b8 ff ff ff 3f	 mov	 eax, 1073741823		; 3fffffffH

; 220  : 		}

  00005	c3		 ret	 0
?max_size@?$allocator@M@std@@QBEIXZ ENDP		; std::allocator<float>::max_size
_TEXT	ENDS
PUBLIC	?max_size@?$allocator@USecondAttribute@@@std@@QBEIXZ ; std::allocator<SecondAttribute>::max_size
; Function compile flags: /Ogsp
;	COMDAT ?max_size@?$allocator@USecondAttribute@@@std@@QBEIXZ
_TEXT	SEGMENT
?max_size@?$allocator@USecondAttribute@@@std@@QBEIXZ PROC ; std::allocator<SecondAttribute>::max_size, COMDAT
; _this$ = ecx

; 218  : 		_SIZT _Count = (_SIZT)(-1) / sizeof (_Ty);
; 219  : 		return (0 < _Count ? _Count : 1);

  00000	b8 ff ff ff 1f	 mov	 eax, 536870911		; 1fffffffH

; 220  : 		}

  00005	c3		 ret	 0
?max_size@?$allocator@USecondAttribute@@@std@@QBEIXZ ENDP ; std::allocator<SecondAttribute>::max_size
_TEXT	ENDS
PUBLIC	??0?$_List_unchecked_const_iterator@V?$_List_val@MV?$allocator@M@std@@@std@@U_Iterator_base0@2@@std@@QAE@PAU_Node@?$_List_nod@MV?$allocator@M@std@@@1@PBV?$_List_val@MV?$allocator@M@std@@@1@@Z ; std::_List_unchecked_const_iterator<std::_List_val<float,std::allocator<float> >,std::_Iterator_base0>::_List_unchecked_const_iterator<std::_List_val<float,std::allocator<float> >,std::_Iterator_base0>
; Function compile flags: /Ogsp
; File c:\program files (x86)\microsoft visual studio 10.0\vc\include\list
;	COMDAT ??0?$_List_unchecked_const_iterator@V?$_List_val@MV?$allocator@M@std@@@std@@U_Iterator_base0@2@@std@@QAE@PAU_Node@?$_List_nod@MV?$allocator@M@std@@@1@PBV?$_List_val@MV?$allocator@M@std@@@1@@Z
_TEXT	SEGMENT
__Pnode$ = 8						; size = 4
__Plist$ = 12						; size = 4
??0?$_List_unchecked_const_iterator@V?$_List_val@MV?$allocator@M@std@@@std@@U_Iterator_base0@2@@std@@QAE@PAU_Node@?$_List_nod@MV?$allocator@M@std@@@1@PBV?$_List_val@MV?$allocator@M@std@@@1@@Z PROC ; std::_List_unchecked_const_iterator<std::_List_val<float,std::allocator<float> >,std::_Iterator_base0>::_List_unchecked_const_iterator<std::_List_val<float,std::allocator<float> >,std::_Iterator_base0>, COMDAT
; _this$ = ecx

; 41   : 		{	// construct with node pointer _Pnode

  00000	55		 push	 ebp
  00001	8b ec		 mov	 ebp, esp
  00003	8b c1		 mov	 eax, ecx
  00005	8b 4d 08	 mov	 ecx, DWORD PTR __Pnode$[ebp]
  00008	89 08		 mov	 DWORD PTR [eax], ecx

; 42   : 		this->_Adopt(_Plist);
; 43   : 		}

  0000a	5d		 pop	 ebp
  0000b	c2 08 00	 ret	 8
??0?$_List_unchecked_const_iterator@V?$_List_val@MV?$allocator@M@std@@@std@@U_Iterator_base0@2@@std@@QAE@PAU_Node@?$_List_nod@MV?$allocator@M@std@@@1@PBV?$_List_val@MV?$allocator@M@std@@@1@@Z ENDP ; std::_List_unchecked_const_iterator<std::_List_val<float,std::allocator<float> >,std::_Iterator_base0>::_List_unchecked_const_iterator<std::_List_val<float,std::allocator<float> >,std::_Iterator_base0>
_TEXT	ENDS
PUBLIC	?_Compat@?$_Vector_const_iterator@V?$_Vector_val@USecondAttribute@@V?$allocator@USecondAttribute@@@std@@@std@@@std@@QBEXABV12@@Z ; std::_Vector_const_iterator<std::_Vector_val<SecondAttribute,std::allocator<SecondAttribute> > >::_Compat
; Function compile flags: /Ogsp
; File c:\program files (x86)\microsoft visual studio 10.0\vc\include\vector
;	COMDAT ?_Compat@?$_Vector_const_iterator@V?$_Vector_val@USecondAttribute@@V?$allocator@USecondAttribute@@@std@@@std@@@std@@QBEXABV12@@Z
_TEXT	SEGMENT
___formal$ = 8						; size = 4
?_Compat@?$_Vector_const_iterator@V?$_Vector_val@USecondAttribute@@V?$allocator@USecondAttribute@@@std@@@std@@@std@@QBEXABV12@@Z PROC ; std::_Vector_const_iterator<std::_Vector_val<SecondAttribute,std::allocator<SecondAttribute> > >::_Compat, COMDAT
; _this$ = ecx

; 253  : 		}

  00000	c2 04 00	 ret	 4
?_Compat@?$_Vector_const_iterator@V?$_Vector_val@USecondAttribute@@V?$allocator@USecondAttribute@@@std@@@std@@@std@@QBEXABV12@@Z ENDP ; std::_Vector_const_iterator<std::_Vector_val<SecondAttribute,std::allocator<SecondAttribute> > >::_Compat
_TEXT	ENDS
PUBLIC	__real@3f91df46a2526c7a
PUBLIC	??$DEGtoRAD@M@@YAMM@Z				; DEGtoRAD<float>
;	COMDAT __real@3f91df46a2526c7a
; File d:\lost saga for developer\youtube\tutorial\source\src\lsclient\veryoftenusedefine.h
CONST	SEGMENT
__real@3f91df46a2526c7a DQ 03f91df46a2526c7ar	; 0.0174533
; Function compile flags: /Ogsp
CONST	ENDS
;	COMDAT ??$DEGtoRAD@M@@YAMM@Z
_TEXT	SEGMENT
tv129 = 8						; size = 4
_val$ = 8						; size = 4
??$DEGtoRAD@M@@YAMM@Z PROC				; DEGtoRAD<float>, COMDAT

; 20   : type  DEGtoRAD (type val) {return (type) (val * 0.0174532925199);}

  00000	55		 push	 ebp
  00001	8b ec		 mov	 ebp, esp
  00003	d9 45 08	 fld	 DWORD PTR _val$[ebp]
  00006	dc 0d 00 00 00
	00		 fmul	 QWORD PTR __real@3f91df46a2526c7a
  0000c	d9 5d 08	 fstp	 DWORD PTR tv129[ebp]
  0000f	d9 45 08	 fld	 DWORD PTR tv129[ebp]
  00012	5d		 pop	 ebp
  00013	c3		 ret	 0
??$DEGtoRAD@M@@YAMM@Z ENDP				; DEGtoRAD<float>
_TEXT	ENDS
PUBLIC	??$addressof@VioHashString@@@std@@YAPAVioHashString@@AAV1@@Z ; std::addressof<ioHashString>
; Function compile flags: /Ogsp
; File c:\program files (x86)\microsoft visual studio 10.0\vc\include\xmemory
;	COMDAT ??$addressof@VioHashString@@@std@@YAPAVioHashString@@AAV1@@Z
_TEXT	SEGMENT
__Val$ = 8						; size = 4
??$addressof@VioHashString@@@std@@YAPAVioHashString@@AAV1@@Z PROC ; std::addressof<ioHashString>, COMDAT

; 110  : 	{	// return address of _Val

  00000	55		 push	 ebp
  00001	8b ec		 mov	 ebp, esp

; 111  : 	return ((_Ty *) &(char&)_Val);

  00003	8b 45 08	 mov	 eax, DWORD PTR __Val$[ebp]

; 112  : 	}

  00006	5d		 pop	 ebp
  00007	c3		 ret	 0
??$addressof@VioHashString@@@std@@YAPAVioHashString@@AAV1@@Z ENDP ; std::addressof<ioHashString>
_TEXT	ENDS
PUBLIC	??$forward@VioHashString@@@std@@YA$$QAVioHashString@@AAV1@@Z ; std::forward<ioHashString>
; Function compile flags: /Ogsp
; File c:\program files (x86)\microsoft visual studio 10.0\vc\include\utility
;	COMDAT ??$forward@VioHashString@@@std@@YA$$QAVioHashString@@AAV1@@Z
_TEXT	SEGMENT
__Arg$ = 8						; size = 4
??$forward@VioHashString@@@std@@YA$$QAVioHashString@@AAV1@@Z PROC ; std::forward<ioHashString>, COMDAT

; 78   : 	{	// forward _Arg, given explicitly specified type parameter

  00000	55		 push	 ebp
  00001	8b ec		 mov	 ebp, esp

; 79   : 	return ((_Ty&&)_Arg);

  00003	8b 45 08	 mov	 eax, DWORD PTR __Arg$[ebp]

; 80   : 	}

  00006	5d		 pop	 ebp
  00007	c3		 ret	 0
??$forward@VioHashString@@@std@@YA$$QAVioHashString@@AAV1@@Z ENDP ; std::forward<ioHashString>
_TEXT	ENDS
PUBLIC	??$addressof@$$CBM@std@@YAPBMABM@Z		; std::addressof<float const >
; Function compile flags: /Ogsp
; File c:\program files (x86)\microsoft visual studio 10.0\vc\include\xmemory
;	COMDAT ??$addressof@$$CBM@std@@YAPBMABM@Z
_TEXT	SEGMENT
__Val$ = 8						; size = 4
??$addressof@$$CBM@std@@YAPBMABM@Z PROC			; std::addressof<float const >, COMDAT

; 110  : 	{	// return address of _Val

  00000	55		 push	 ebp
  00001	8b ec		 mov	 ebp, esp

; 111  : 	return ((_Ty *) &(char&)_Val);

  00003	8b 45 08	 mov	 eax, DWORD PTR __Val$[ebp]

; 112  : 	}

  00006	5d		 pop	 ebp
  00007	c3		 ret	 0
??$addressof@$$CBM@std@@YAPBMABM@Z ENDP			; std::addressof<float const >
_TEXT	ENDS
PUBLIC	??$addressof@$$CBUAttackAttribute@@@std@@YAPBUAttackAttribute@@ABU1@@Z ; std::addressof<AttackAttribute const >
; Function compile flags: /Ogsp
;	COMDAT ??$addressof@$$CBUAttackAttribute@@@std@@YAPBUAttackAttribute@@ABU1@@Z
_TEXT	SEGMENT
__Val$ = 8						; size = 4
??$addressof@$$CBUAttackAttribute@@@std@@YAPBUAttackAttribute@@ABU1@@Z PROC ; std::addressof<AttackAttribute const >, COMDAT

; 110  : 	{	// return address of _Val

  00000	55		 push	 ebp
  00001	8b ec		 mov	 ebp, esp

; 111  : 	return ((_Ty *) &(char&)_Val);

  00003	8b 45 08	 mov	 eax, DWORD PTR __Val$[ebp]

; 112  : 	}

  00006	5d		 pop	 ebp
  00007	c3		 ret	 0
??$addressof@$$CBUAttackAttribute@@@std@@YAPBUAttackAttribute@@ABU1@@Z ENDP ; std::addressof<AttackAttribute const >
_TEXT	ENDS
PUBLIC	??$addressof@$$CBUSecondAttribute@@@std@@YAPBUSecondAttribute@@ABU1@@Z ; std::addressof<SecondAttribute const >
; Function compile flags: /Ogsp
;	COMDAT ??$addressof@$$CBUSecondAttribute@@@std@@YAPBUSecondAttribute@@ABU1@@Z
_TEXT	SEGMENT
__Val$ = 8						; size = 4
??$addressof@$$CBUSecondAttribute@@@std@@YAPBUSecondAttribute@@ABU1@@Z PROC ; std::addressof<SecondAttribute const >, COMDAT

; 110  : 	{	// return address of _Val

  00000	55		 push	 ebp
  00001	8b ec		 mov	 ebp, esp

; 111  : 	return ((_Ty *) &(char&)_Val);

  00003	8b 45 08	 mov	 eax, DWORD PTR __Val$[ebp]

; 112  : 	}

  00006	5d		 pop	 ebp
  00007	c3		 ret	 0
??$addressof@$$CBUSecondAttribute@@@std@@YAPBUSecondAttribute@@ABU1@@Z ENDP ; std::addressof<SecondAttribute const >
_TEXT	ENDS
PUBLIC	__TI2?AVbad_alloc@std@@
PUBLIC	??$_Allocate@UAttackAttribute@@@std@@YAPAUAttackAttribute@@IPAU1@@Z ; std::_Allocate<AttackAttribute>
PUBLIC	__CTA2?AVbad_alloc@std@@
PUBLIC	__CT??_R0?AVbad_alloc@std@@@8??0bad_alloc@std@@QAE@ABV01@@Z12
PUBLIC	??0bad_alloc@std@@QAE@ABV01@@Z			; std::bad_alloc::bad_alloc
PUBLIC	__CT??_R0?AVexception@std@@@8??0exception@std@@QAE@ABV01@@Z12
EXTRN	??2@YAPAXI@Z:PROC				; operator new
EXTRN	__CxxThrowException@8:PROC
EXTRN	??0exception@std@@QAE@ABV01@@Z:PROC		; std::exception::exception
;	COMDAT __CT??_R0?AVexception@std@@@8??0exception@std@@QAE@ABV01@@Z12
; File c:\program files (x86)\microsoft visual studio 10.0\vc\include\exception
xdata$x	SEGMENT
__CT??_R0?AVexception@std@@@8??0exception@std@@QAE@ABV01@@Z12 DD 00H
	DD	FLAT:??_R0?AVexception@std@@@8
	DD	00H
	DD	0ffffffffH
	ORG $+4
	DD	0cH
	DD	FLAT:??0exception@std@@QAE@ABV01@@Z
xdata$x	ENDS
;	COMDAT __CT??_R0?AVbad_alloc@std@@@8??0bad_alloc@std@@QAE@ABV01@@Z12
xdata$x	SEGMENT
__CT??_R0?AVbad_alloc@std@@@8??0bad_alloc@std@@QAE@ABV01@@Z12 DD 00H
	DD	FLAT:??_R0?AVbad_alloc@std@@@8
	DD	00H
	DD	0ffffffffH
	ORG $+4
	DD	0cH
	DD	FLAT:??0bad_alloc@std@@QAE@ABV01@@Z
xdata$x	ENDS
;	COMDAT __CTA2?AVbad_alloc@std@@
xdata$x	SEGMENT
__CTA2?AVbad_alloc@std@@ DD 02H
	DD	FLAT:__CT??_R0?AVbad_alloc@std@@@8??0bad_alloc@std@@QAE@ABV01@@Z12
	DD	FLAT:__CT??_R0?AVexception@std@@@8??0exception@std@@QAE@ABV01@@Z12
xdata$x	ENDS
;	COMDAT __TI2?AVbad_alloc@std@@
xdata$x	SEGMENT
__TI2?AVbad_alloc@std@@ DD 00H
	DD	FLAT:??1bad_alloc@std@@UAE@XZ
	DD	00H
	DD	FLAT:__CTA2?AVbad_alloc@std@@
; Function compile flags: /Ogsp
; File c:\program files (x86)\microsoft visual studio 10.0\vc\include\xmemory
xdata$x	ENDS
;	COMDAT ??$_Allocate@UAttackAttribute@@@std@@YAPAUAttackAttribute@@IPAU1@@Z
_TEXT	SEGMENT
$T555293 = -12						; size = 12
$T555298 = 8						; size = 4
__Count$ = 8						; size = 4
___formal$ = 12						; size = 4
??$_Allocate@UAttackAttribute@@@std@@YAPAUAttackAttribute@@IPAU1@@Z PROC ; std::_Allocate<AttackAttribute>, COMDAT

; 30   : 	{	// allocate storage for _Count elements of type _Ty

  00000	55		 push	 ebp
  00001	8b ec		 mov	 ebp, esp

; 31   : 	void *_Ptr = 0;
; 32   : 
; 33   : 	if (_Count <= 0)

  00003	8b 4d 08	 mov	 ecx, DWORD PTR __Count$[ebp]
  00006	83 ec 0c	 sub	 esp, 12			; 0000000cH
  00009	33 c0		 xor	 eax, eax
  0000b	85 c9		 test	 ecx, ecx

; 34   : 		_Count = 0;
; 35   : 	else if (((_SIZT)(-1) / sizeof (_Ty) < _Count)

  0000d	74 3c		 je	 SHORT $LN5@Allocate

; 36   : 		|| (_Ptr = ::operator new(_Count * sizeof (_Ty))) == 0)

  0000f	81 f9 33 33 33
	03		 cmp	 ecx, 53687091		; 03333333H
  00015	77 0e		 ja	 SHORT $LN1@Allocate
  00017	6b c9 50	 imul	 ecx, 80			; 00000050H
  0001a	51		 push	 ecx
  0001b	e8 00 00 00 00	 call	 ??2@YAPAXI@Z		; operator new
  00020	59		 pop	 ecx
  00021	85 c0		 test	 eax, eax

; 38   : 
; 39   : 	return ((_Ty _FARQ *)_Ptr);

  00023	75 26		 jne	 SHORT $LN5@Allocate
$LN1@Allocate:

; 37   : 		_THROW_NCEE(bad_alloc, 0);

  00025	83 65 08 00	 and	 DWORD PTR $T555298[ebp], 0
  00029	8d 45 08	 lea	 eax, DWORD PTR $T555298[ebp]
  0002c	50		 push	 eax
  0002d	8d 4d f4	 lea	 ecx, DWORD PTR $T555293[ebp]
  00030	ff 15 00 00 00
	00		 call	 DWORD PTR __imp_??0exception@std@@QAE@ABQBD@Z
  00036	68 00 00 00 00	 push	 OFFSET __TI2?AVbad_alloc@std@@
  0003b	8d 45 f4	 lea	 eax, DWORD PTR $T555293[ebp]
  0003e	50		 push	 eax
  0003f	c7 45 f4 00 00
	00 00		 mov	 DWORD PTR $T555293[ebp], OFFSET ??_7bad_alloc@std@@6B@
  00046	e8 00 00 00 00	 call	 __CxxThrowException@8
$LN10@Allocate:
$LN5@Allocate:

; 40   : 	}

  0004b	c9		 leave
  0004c	c3		 ret	 0
$LN9@Allocate:
??$_Allocate@UAttackAttribute@@@std@@YAPAUAttackAttribute@@IPAU1@@Z ENDP ; std::_Allocate<AttackAttribute>
_TEXT	ENDS
PUBLIC	??$_Allocate@M@std@@YAPAMIPAM@Z			; std::_Allocate<float>
; Function compile flags: /Ogsp
;	COMDAT ??$_Allocate@M@std@@YAPAMIPAM@Z
_TEXT	SEGMENT
$T555303 = -12						; size = 12
$T555307 = 8						; size = 4
__Count$ = 8						; size = 4
___formal$ = 12						; size = 4
??$_Allocate@M@std@@YAPAMIPAM@Z PROC			; std::_Allocate<float>, COMDAT

; 30   : 	{	// allocate storage for _Count elements of type _Ty

  00000	55		 push	 ebp
  00001	8b ec		 mov	 ebp, esp

; 31   : 	void *_Ptr = 0;
; 32   : 
; 33   : 	if (_Count <= 0)

  00003	8b 4d 08	 mov	 ecx, DWORD PTR __Count$[ebp]
  00006	83 ec 0c	 sub	 esp, 12			; 0000000cH
  00009	33 c0		 xor	 eax, eax
  0000b	85 c9		 test	 ecx, ecx

; 34   : 		_Count = 0;
; 35   : 	else if (((_SIZT)(-1) / sizeof (_Ty) < _Count)

  0000d	74 3e		 je	 SHORT $LN5@Allocate@2

; 36   : 		|| (_Ptr = ::operator new(_Count * sizeof (_Ty))) == 0)

  0000f	81 f9 ff ff ff
	3f		 cmp	 ecx, 1073741823		; 3fffffffH
  00015	77 10		 ja	 SHORT $LN1@Allocate@2
  00017	8b c1		 mov	 eax, ecx
  00019	c1 e0 02	 shl	 eax, 2
  0001c	50		 push	 eax
  0001d	e8 00 00 00 00	 call	 ??2@YAPAXI@Z		; operator new
  00022	59		 pop	 ecx
  00023	85 c0		 test	 eax, eax

; 38   : 
; 39   : 	return ((_Ty _FARQ *)_Ptr);

  00025	75 26		 jne	 SHORT $LN5@Allocate@2
$LN1@Allocate@2:

; 37   : 		_THROW_NCEE(bad_alloc, 0);

  00027	83 65 08 00	 and	 DWORD PTR $T555307[ebp], 0
  0002b	8d 45 08	 lea	 eax, DWORD PTR $T555307[ebp]
  0002e	50		 push	 eax
  0002f	8d 4d f4	 lea	 ecx, DWORD PTR $T555303[ebp]
  00032	ff 15 00 00 00
	00		 call	 DWORD PTR __imp_??0exception@std@@QAE@ABQBD@Z
  00038	68 00 00 00 00	 push	 OFFSET __TI2?AVbad_alloc@std@@
  0003d	8d 45 f4	 lea	 eax, DWORD PTR $T555303[ebp]
  00040	50		 push	 eax
  00041	c7 45 f4 00 00
	00 00		 mov	 DWORD PTR $T555303[ebp], OFFSET ??_7bad_alloc@std@@6B@
  00048	e8 00 00 00 00	 call	 __CxxThrowException@8
$LN10@Allocate@2:
$LN5@Allocate@2:

; 40   : 	}

  0004d	c9		 leave
  0004e	c3		 ret	 0
$LN9@Allocate@2:
??$_Allocate@M@std@@YAPAMIPAM@Z ENDP			; std::_Allocate<float>
_TEXT	ENDS
PUBLIC	??$_Allocate@USecondAttribute@@@std@@YAPAUSecondAttribute@@IPAU1@@Z ; std::_Allocate<SecondAttribute>
; Function compile flags: /Ogsp
;	COMDAT ??$_Allocate@USecondAttribute@@@std@@YAPAUSecondAttribute@@IPAU1@@Z
_TEXT	SEGMENT
$T555312 = -12						; size = 12
$T555316 = 8						; size = 4
__Count$ = 8						; size = 4
___formal$ = 12						; size = 4
??$_Allocate@USecondAttribute@@@std@@YAPAUSecondAttribute@@IPAU1@@Z PROC ; std::_Allocate<SecondAttribute>, COMDAT

; 30   : 	{	// allocate storage for _Count elements of type _Ty

  00000	55		 push	 ebp
  00001	8b ec		 mov	 ebp, esp

; 31   : 	void *_Ptr = 0;
; 32   : 
; 33   : 	if (_Count <= 0)

  00003	8b 4d 08	 mov	 ecx, DWORD PTR __Count$[ebp]
  00006	83 ec 0c	 sub	 esp, 12			; 0000000cH
  00009	33 c0		 xor	 eax, eax
  0000b	85 c9		 test	 ecx, ecx

; 34   : 		_Count = 0;
; 35   : 	else if (((_SIZT)(-1) / sizeof (_Ty) < _Count)

  0000d	74 3e		 je	 SHORT $LN5@Allocate@3

; 36   : 		|| (_Ptr = ::operator new(_Count * sizeof (_Ty))) == 0)

  0000f	81 f9 ff ff ff
	1f		 cmp	 ecx, 536870911		; 1fffffffH
  00015	77 10		 ja	 SHORT $LN1@Allocate@3
  00017	8b c1		 mov	 eax, ecx
  00019	c1 e0 03	 shl	 eax, 3
  0001c	50		 push	 eax
  0001d	e8 00 00 00 00	 call	 ??2@YAPAXI@Z		; operator new
  00022	59		 pop	 ecx
  00023	85 c0		 test	 eax, eax

; 38   : 
; 39   : 	return ((_Ty _FARQ *)_Ptr);

  00025	75 26		 jne	 SHORT $LN5@Allocate@3
$LN1@Allocate@3:

; 37   : 		_THROW_NCEE(bad_alloc, 0);

  00027	83 65 08 00	 and	 DWORD PTR $T555316[ebp], 0
  0002b	8d 45 08	 lea	 eax, DWORD PTR $T555316[ebp]
  0002e	50		 push	 eax
  0002f	8d 4d f4	 lea	 ecx, DWORD PTR $T555312[ebp]
  00032	ff 15 00 00 00
	00		 call	 DWORD PTR __imp_??0exception@std@@QAE@ABQBD@Z
  00038	68 00 00 00 00	 push	 OFFSET __TI2?AVbad_alloc@std@@
  0003d	8d 45 f4	 lea	 eax, DWORD PTR $T555312[ebp]
  00040	50		 push	 eax
  00041	c7 45 f4 00 00
	00 00		 mov	 DWORD PTR $T555312[ebp], OFFSET ??_7bad_alloc@std@@6B@
  00048	e8 00 00 00 00	 call	 __CxxThrowException@8
$LN10@Allocate@3:
$LN5@Allocate@3:

; 40   : 	}

  0004d	c9		 leave
  0004e	c3		 ret	 0
$LN9@Allocate@3:
??$_Allocate@USecondAttribute@@@std@@YAPAUSecondAttribute@@IPAU1@@Z ENDP ; std::_Allocate<SecondAttribute>
_TEXT	ENDS
PUBLIC	?construct@?$allocator@VioHashString@@@std@@QAEXPAVioHashString@@$$QAV3@@Z ; std::allocator<ioHashString>::construct
EXTRN	__imp_??0ioHashString@@QAE@ABV0@@Z:PROC
;	COMDAT xdata$x
; File c:\program files (x86)\microsoft visual studio 10.0\vc\include\utility
xdata$x	SEGMENT
__unwindtable$?construct@?$allocator@VioHashString@@@std@@QAEXPAVioHashString@@$$QAV3@@Z DD 0ffffffffH
	DD	FLAT:__unwindfunclet$?construct@?$allocator@VioHashString@@@std@@QAEXPAVioHashString@@$$QAV3@@Z$0
__ehfuncinfo$?construct@?$allocator@VioHashString@@@std@@QAEXPAVioHashString@@$$QAV3@@Z DD 019930522H
	DD	01H
	DD	FLAT:__unwindtable$?construct@?$allocator@VioHashString@@@std@@QAEXPAVioHashString@@$$QAV3@@Z
	DD	2 DUP(00H)
	DD	2 DUP(00H)
	DD	00H
	DD	01H
; Function compile flags: /Ogsp
; File c:\program files (x86)\microsoft visual studio 10.0\vc\include\xmemory
xdata$x	ENDS
;	COMDAT ?construct@?$allocator@VioHashString@@@std@@QAEXPAVioHashString@@$$QAV3@@Z
_TEXT	SEGMENT
$T555322 = -16						; size = 4
__$EHRec$ = -12						; size = 12
__Ptr$ = 8						; size = 4
__Val$ = 12						; size = 4
?construct@?$allocator@VioHashString@@@std@@QAEXPAVioHashString@@$$QAV3@@Z PROC ; std::allocator<ioHashString>::construct, COMDAT
; _this$ = ecx

; 201  : 		{	// construct object at _Ptr with value _Val

  00000	6a 04		 push	 4
  00002	b8 00 00 00 00	 mov	 eax, __ehhandler$?construct@?$allocator@VioHashString@@@std@@QAEXPAVioHashString@@$$QAV3@@Z
  00007	e8 00 00 00 00	 call	 __EH_prolog3

; 202  : 		::new ((void _FARQ *)_Ptr) _Ty(_STD forward<_Ty>(_Val));

  0000c	8b 4d 08	 mov	 ecx, DWORD PTR __Ptr$[ebp]
  0000f	89 4d f0	 mov	 DWORD PTR $T555322[ebp], ecx
  00012	83 65 fc 00	 and	 DWORD PTR __$EHRec$[ebp+8], 0
  00016	85 c9		 test	 ecx, ecx
  00018	74 09		 je	 SHORT $LN3@construct
  0001a	ff 75 0c	 push	 DWORD PTR __Val$[ebp]
  0001d	ff 15 00 00 00
	00		 call	 DWORD PTR __imp_??0ioHashString@@QAE@ABV0@@Z
$LN3@construct:

; 203  : 		}

  00023	e8 00 00 00 00	 call	 __EH_epilog3
  00028	c2 08 00	 ret	 8
_TEXT	ENDS
;	COMDAT text$x
text$x	SEGMENT
__unwindfunclet$?construct@?$allocator@VioHashString@@@std@@QAEXPAVioHashString@@$$QAV3@@Z$0:
  00000	ff 75 08	 push	 DWORD PTR __Ptr$[ebp]
  00003	ff 75 f0	 push	 DWORD PTR $T555322[ebp]
  00006	e8 00 00 00 00	 call	 ??3@YAXPAX0@Z		; operator delete
  0000b	59		 pop	 ecx
  0000c	59		 pop	 ecx
  0000d	c3		 ret	 0
__ehhandler$?construct@?$allocator@VioHashString@@@std@@QAEXPAVioHashString@@$$QAV3@@Z:
  0000e	8b 54 24 08	 mov	 edx, DWORD PTR [esp+8]
  00012	8d 42 0c	 lea	 eax, DWORD PTR [edx+12]
  00015	8b 4a ec	 mov	 ecx, DWORD PTR [edx-20]
  00018	33 c8		 xor	 ecx, eax
  0001a	e8 00 00 00 00	 call	 @__security_check_cookie@4
  0001f	b8 00 00 00 00	 mov	 eax, OFFSET __ehfuncinfo$?construct@?$allocator@VioHashString@@@std@@QAEXPAVioHashString@@$$QAV3@@Z
  00024	e9 00 00 00 00	 jmp	 ___CxxFrameHandler3
text$x	ENDS
?construct@?$allocator@VioHashString@@@std@@QAEXPAVioHashString@@$$QAV3@@Z ENDP ; std::allocator<ioHashString>::construct
PUBLIC	??$_Copy_impl@PAMPAM@std@@YAPAMPAM00U_Scalar_ptr_iterator_tag@0@@Z ; std::_Copy_impl<float *,float *>
EXTRN	__imp__memmove:PROC
; Function compile flags: /Ogsp
; File c:\program files (x86)\microsoft visual studio 10.0\vc\include\xutility
;	COMDAT ??$_Copy_impl@PAMPAM@std@@YAPAMPAM00U_Scalar_ptr_iterator_tag@0@@Z
_TEXT	SEGMENT
__First$ = 8						; size = 4
__Last$ = 12						; size = 4
__Dest$ = 16						; size = 4
___formal$ = 20						; size = 1
??$_Copy_impl@PAMPAM@std@@YAPAMPAM00U_Scalar_ptr_iterator_tag@0@@Z PROC ; std::_Copy_impl<float *,float *>, COMDAT

; 2152 : 	{	// copy [_First, _Last) to [_Dest, ...), pointers to scalars

  00000	55		 push	 ebp
  00001	8b ec		 mov	 ebp, esp
  00003	56		 push	 esi

; 2153 : 	ptrdiff_t _Count = _Last - _First;

  00004	8b 75 0c	 mov	 esi, DWORD PTR __Last$[ebp]
  00007	2b 75 08	 sub	 esi, DWORD PTR __First$[ebp]
  0000a	57		 push	 edi

; 2154 : 	_CSTD memmove(&*_Dest, &*_First,
; 2155 : 		_Count * sizeof (*_First));

  0000b	8b 7d 10	 mov	 edi, DWORD PTR __Dest$[ebp]
  0000e	c1 fe 02	 sar	 esi, 2
  00011	c1 e6 02	 shl	 esi, 2
  00014	56		 push	 esi
  00015	ff 75 08	 push	 DWORD PTR __First$[ebp]
  00018	57		 push	 edi
  00019	ff 15 00 00 00
	00		 call	 DWORD PTR __imp__memmove
  0001f	83 c4 0c	 add	 esp, 12			; 0000000cH

; 2156 : 	return (_Dest + _Count);

  00022	8d 04 3e	 lea	 eax, DWORD PTR [esi+edi]
  00025	5f		 pop	 edi
  00026	5e		 pop	 esi

; 2157 : 	}

  00027	5d		 pop	 ebp
  00028	c3		 ret	 0
??$_Copy_impl@PAMPAM@std@@YAPAMPAM00U_Scalar_ptr_iterator_tag@0@@Z ENDP ; std::_Copy_impl<float *,float *>
_TEXT	ENDS
PUBLIC	??$forward@AAM@std@@YAAAMAAM@Z			; std::forward<float &>
; Function compile flags: /Ogsp
; File c:\program files (x86)\microsoft visual studio 10.0\vc\include\utility
;	COMDAT ??$forward@AAM@std@@YAAAMAAM@Z
_TEXT	SEGMENT
__Arg$ = 8						; size = 4
??$forward@AAM@std@@YAAAMAAM@Z PROC			; std::forward<float &>, COMDAT

; 78   : 	{	// forward _Arg, given explicitly specified type parameter

  00000	55		 push	 ebp
  00001	8b ec		 mov	 ebp, esp

; 79   : 	return ((_Ty&&)_Arg);

  00003	8b 45 08	 mov	 eax, DWORD PTR __Arg$[ebp]

; 80   : 	}

  00006	5d		 pop	 ebp
  00007	c3		 ret	 0
??$forward@AAM@std@@YAAAMAAM@Z ENDP			; std::forward<float &>
_TEXT	ENDS
PUBLIC	??$construct@AAM@?$allocator@M@std@@QAEXPAMAAM@Z ; std::allocator<float>::construct<float &>
; Function compile flags: /Ogsp
; File c:\program files (x86)\microsoft visual studio 10.0\vc\include\xmemory
;	COMDAT ??$construct@AAM@?$allocator@M@std@@QAEXPAMAAM@Z
_TEXT	SEGMENT
__Ptr$ = 8						; size = 4
__Val$ = 12						; size = 4
??$construct@AAM@?$allocator@M@std@@QAEXPAMAAM@Z PROC	; std::allocator<float>::construct<float &>, COMDAT
; _this$ = ecx

; 206  : 		void construct(pointer _Ptr, _Other&& _Val)

  00000	55		 push	 ebp
  00001	8b ec		 mov	 ebp, esp

; 207  : 		{	// construct object at _Ptr with value _Val
; 208  : 		::new ((void _FARQ *)_Ptr) _Ty(_STD forward<_Other>(_Val));

  00003	8b 45 08	 mov	 eax, DWORD PTR __Ptr$[ebp]
  00006	85 c0		 test	 eax, eax
  00008	74 07		 je	 SHORT $LN3@construct@2
  0000a	8b 4d 0c	 mov	 ecx, DWORD PTR __Val$[ebp]
  0000d	d9 01		 fld	 DWORD PTR [ecx]
  0000f	d9 18		 fstp	 DWORD PTR [eax]
$LN3@construct@2:

; 209  : 		}

  00011	5d		 pop	 ebp
  00012	c2 08 00	 ret	 8
??$construct@AAM@?$allocator@M@std@@QAEXPAMAAM@Z ENDP	; std::allocator<float>::construct<float &>
_TEXT	ENDS
PUBLIC	??$forward@ABM@std@@YAABMABM@Z			; std::forward<float const &>
; Function compile flags: /Ogsp
; File c:\program files (x86)\microsoft visual studio 10.0\vc\include\utility
;	COMDAT ??$forward@ABM@std@@YAABMABM@Z
_TEXT	SEGMENT
__Arg$ = 8						; size = 4
??$forward@ABM@std@@YAABMABM@Z PROC			; std::forward<float const &>, COMDAT

; 78   : 	{	// forward _Arg, given explicitly specified type parameter

  00000	55		 push	 ebp
  00001	8b ec		 mov	 ebp, esp

; 79   : 	return ((_Ty&&)_Arg);

  00003	8b 45 08	 mov	 eax, DWORD PTR __Arg$[ebp]

; 80   : 	}

  00006	5d		 pop	 ebp
  00007	c3		 ret	 0
??$forward@ABM@std@@YAABMABM@Z ENDP			; std::forward<float const &>
_TEXT	ENDS
PUBLIC	??$forward@AAUAttackAttribute@@@std@@YAAAUAttackAttribute@@AAU1@@Z ; std::forward<AttackAttribute &>
; Function compile flags: /Ogsp
;	COMDAT ??$forward@AAUAttackAttribute@@@std@@YAAAUAttackAttribute@@AAU1@@Z
_TEXT	SEGMENT
__Arg$ = 8						; size = 4
??$forward@AAUAttackAttribute@@@std@@YAAAUAttackAttribute@@AAU1@@Z PROC ; std::forward<AttackAttribute &>, COMDAT

; 78   : 	{	// forward _Arg, given explicitly specified type parameter

  00000	55		 push	 ebp
  00001	8b ec		 mov	 ebp, esp

; 79   : 	return ((_Ty&&)_Arg);

  00003	8b 45 08	 mov	 eax, DWORD PTR __Arg$[ebp]

; 80   : 	}

  00006	5d		 pop	 ebp
  00007	c3		 ret	 0
??$forward@AAUAttackAttribute@@@std@@YAAAUAttackAttribute@@AAU1@@Z ENDP ; std::forward<AttackAttribute &>
_TEXT	ENDS
PUBLIC	??$forward@ABUAttackAttribute@@@std@@YAABUAttackAttribute@@ABU1@@Z ; std::forward<AttackAttribute const &>
; Function compile flags: /Ogsp
;	COMDAT ??$forward@ABUAttackAttribute@@@std@@YAABUAttackAttribute@@ABU1@@Z
_TEXT	SEGMENT
__Arg$ = 8						; size = 4
??$forward@ABUAttackAttribute@@@std@@YAABUAttackAttribute@@ABU1@@Z PROC ; std::forward<AttackAttribute const &>, COMDAT

; 78   : 	{	// forward _Arg, given explicitly specified type parameter

  00000	55		 push	 ebp
  00001	8b ec		 mov	 ebp, esp

; 79   : 	return ((_Ty&&)_Arg);

  00003	8b 45 08	 mov	 eax, DWORD PTR __Arg$[ebp]

; 80   : 	}

  00006	5d		 pop	 ebp
  00007	c3		 ret	 0
??$forward@ABUAttackAttribute@@@std@@YAABUAttackAttribute@@ABU1@@Z ENDP ; std::forward<AttackAttribute const &>
_TEXT	ENDS
PUBLIC	??$forward@AAUSecondAttribute@@@std@@YAAAUSecondAttribute@@AAU1@@Z ; std::forward<SecondAttribute &>
; Function compile flags: /Ogsp
;	COMDAT ??$forward@AAUSecondAttribute@@@std@@YAAAUSecondAttribute@@AAU1@@Z
_TEXT	SEGMENT
__Arg$ = 8						; size = 4
??$forward@AAUSecondAttribute@@@std@@YAAAUSecondAttribute@@AAU1@@Z PROC ; std::forward<SecondAttribute &>, COMDAT

; 78   : 	{	// forward _Arg, given explicitly specified type parameter

  00000	55		 push	 ebp
  00001	8b ec		 mov	 ebp, esp

; 79   : 	return ((_Ty&&)_Arg);

  00003	8b 45 08	 mov	 eax, DWORD PTR __Arg$[ebp]

; 80   : 	}

  00006	5d		 pop	 ebp
  00007	c3		 ret	 0
??$forward@AAUSecondAttribute@@@std@@YAAAUSecondAttribute@@AAU1@@Z ENDP ; std::forward<SecondAttribute &>
_TEXT	ENDS
PUBLIC	??$construct@AAUSecondAttribute@@@?$allocator@USecondAttribute@@@std@@QAEXPAUSecondAttribute@@AAU2@@Z ; std::allocator<SecondAttribute>::construct<SecondAttribute &>
; Function compile flags: /Ogsp
; File c:\program files (x86)\microsoft visual studio 10.0\vc\include\xmemory
;	COMDAT ??$construct@AAUSecondAttribute@@@?$allocator@USecondAttribute@@@std@@QAEXPAUSecondAttribute@@AAU2@@Z
_TEXT	SEGMENT
__Ptr$ = 8						; size = 4
__Val$ = 12						; size = 4
??$construct@AAUSecondAttribute@@@?$allocator@USecondAttribute@@@std@@QAEXPAUSecondAttribute@@AAU2@@Z PROC ; std::allocator<SecondAttribute>::construct<SecondAttribute &>, COMDAT
; _this$ = ecx

; 206  : 		void construct(pointer _Ptr, _Other&& _Val)

  00000	55		 push	 ebp
  00001	8b ec		 mov	 ebp, esp

; 207  : 		{	// construct object at _Ptr with value _Val
; 208  : 		::new ((void _FARQ *)_Ptr) _Ty(_STD forward<_Other>(_Val));

  00003	8b 45 08	 mov	 eax, DWORD PTR __Ptr$[ebp]
  00006	85 c0		 test	 eax, eax
  00008	74 0d		 je	 SHORT $LN3@construct@3
  0000a	8b 4d 0c	 mov	 ecx, DWORD PTR __Val$[ebp]
  0000d	8b 11		 mov	 edx, DWORD PTR [ecx]
  0000f	89 10		 mov	 DWORD PTR [eax], edx
  00011	8b 49 04	 mov	 ecx, DWORD PTR [ecx+4]
  00014	89 48 04	 mov	 DWORD PTR [eax+4], ecx
$LN3@construct@3:

; 209  : 		}

  00017	5d		 pop	 ebp
  00018	c2 08 00	 ret	 8
??$construct@AAUSecondAttribute@@@?$allocator@USecondAttribute@@@std@@QAEXPAUSecondAttribute@@AAU2@@Z ENDP ; std::allocator<SecondAttribute>::construct<SecondAttribute &>
_TEXT	ENDS
PUBLIC	??$forward@ABUSecondAttribute@@@std@@YAABUSecondAttribute@@ABU1@@Z ; std::forward<SecondAttribute const &>
; Function compile flags: /Ogsp
; File c:\program files (x86)\microsoft visual studio 10.0\vc\include\utility
;	COMDAT ??$forward@ABUSecondAttribute@@@std@@YAABUSecondAttribute@@ABU1@@Z
_TEXT	SEGMENT
__Arg$ = 8						; size = 4
??$forward@ABUSecondAttribute@@@std@@YAABUSecondAttribute@@ABU1@@Z PROC ; std::forward<SecondAttribute const &>, COMDAT

; 78   : 	{	// forward _Arg, given explicitly specified type parameter

  00000	55		 push	 ebp
  00001	8b ec		 mov	 ebp, esp

; 79   : 	return ((_Ty&&)_Arg);

  00003	8b 45 08	 mov	 eax, DWORD PTR __Arg$[ebp]

; 80   : 	}

  00006	5d		 pop	 ebp
  00007	c3		 ret	 0
??$forward@ABUSecondAttribute@@@std@@YAABUSecondAttribute@@ABU1@@Z ENDP ; std::forward<SecondAttribute const &>
_TEXT	ENDS
PUBLIC	??$_Ptr_cat@USecondAttribute@@U1@@std@@YA?AU_Nonscalar_ptr_iterator_tag@0@PAUSecondAttribute@@0@Z ; std::_Ptr_cat<SecondAttribute,SecondAttribute>
; Function compile flags: /Ogsp
; File c:\program files (x86)\microsoft visual studio 10.0\vc\include\xutility
;	COMDAT ??$_Ptr_cat@USecondAttribute@@U1@@std@@YA?AU_Nonscalar_ptr_iterator_tag@0@PAUSecondAttribute@@0@Z
_TEXT	SEGMENT
__Cat$ = -1						; size = 1
___formal$ = 8						; size = 4
___formal$ = 12						; size = 4
??$_Ptr_cat@USecondAttribute@@U1@@std@@YA?AU_Nonscalar_ptr_iterator_tag@0@PAUSecondAttribute@@0@Z PROC ; std::_Ptr_cat<SecondAttribute,SecondAttribute>, COMDAT

; 516  : 	{	// return pointer category from pointers

  00000	55		 push	 ebp
  00001	8b ec		 mov	 ebp, esp
  00003	51		 push	 ecx

; 517  : 	typename _Ptr_cat_helper<_Elem1, _Elem2>::_Type _Cat;
; 518  : 	return (_Cat);

  00004	8a 45 ff	 mov	 al, BYTE PTR __Cat$[ebp]

; 519  : 	}

  00007	c9		 leave
  00008	c3		 ret	 0
??$_Ptr_cat@USecondAttribute@@U1@@std@@YA?AU_Nonscalar_ptr_iterator_tag@0@PAUSecondAttribute@@0@Z ENDP ; std::_Ptr_cat<SecondAttribute,SecondAttribute>
_TEXT	ENDS
PUBLIC	??$_Construct@MABM@std@@YAXPAMABM@Z		; std::_Construct<float,float const &>
; Function compile flags: /Ogsp
; File c:\program files (x86)\microsoft visual studio 10.0\vc\include\xmemory
;	COMDAT ??$_Construct@MABM@std@@YAXPAMABM@Z
_TEXT	SEGMENT
__Ptr$ = 8						; size = 4
__Val$ = 12						; size = 4
??$_Construct@MABM@std@@YAXPAMABM@Z PROC		; std::_Construct<float,float const &>, COMDAT

; 46   : 	{	// construct object at _Ptr with value _Val

  00000	55		 push	 ebp
  00001	8b ec		 mov	 ebp, esp

; 47   : 	void _FARQ *_Vptr = _Ptr;
; 48   : 	::new (_Vptr) _Ty1(_STD forward<_Ty2>(_Val));

  00003	8b 45 08	 mov	 eax, DWORD PTR __Ptr$[ebp]
  00006	85 c0		 test	 eax, eax
  00008	74 07		 je	 SHORT $LN3@Construct
  0000a	8b 4d 0c	 mov	 ecx, DWORD PTR __Val$[ebp]
  0000d	d9 01		 fld	 DWORD PTR [ecx]
  0000f	d9 18		 fstp	 DWORD PTR [eax]
$LN3@Construct:

; 49   : 	}

  00011	5d		 pop	 ebp
  00012	c3		 ret	 0
??$_Construct@MABM@std@@YAXPAMABM@Z ENDP		; std::_Construct<float,float const &>
_TEXT	ENDS
PUBLIC	??$_Construct@USecondAttribute@@ABU1@@std@@YAXPAUSecondAttribute@@ABU1@@Z ; std::_Construct<SecondAttribute,SecondAttribute const &>
; Function compile flags: /Ogsp
;	COMDAT ??$_Construct@USecondAttribute@@ABU1@@std@@YAXPAUSecondAttribute@@ABU1@@Z
_TEXT	SEGMENT
__Ptr$ = 8						; size = 4
__Val$ = 12						; size = 4
??$_Construct@USecondAttribute@@ABU1@@std@@YAXPAUSecondAttribute@@ABU1@@Z PROC ; std::_Construct<SecondAttribute,SecondAttribute const &>, COMDAT

; 46   : 	{	// construct object at _Ptr with value _Val

  00000	55		 push	 ebp
  00001	8b ec		 mov	 ebp, esp

; 47   : 	void _FARQ *_Vptr = _Ptr;
; 48   : 	::new (_Vptr) _Ty1(_STD forward<_Ty2>(_Val));

  00003	8b 45 08	 mov	 eax, DWORD PTR __Ptr$[ebp]
  00006	85 c0		 test	 eax, eax
  00008	74 0d		 je	 SHORT $LN3@Construct@2
  0000a	8b 4d 0c	 mov	 ecx, DWORD PTR __Val$[ebp]
  0000d	8b 11		 mov	 edx, DWORD PTR [ecx]
  0000f	89 10		 mov	 DWORD PTR [eax], edx
  00011	8b 49 04	 mov	 ecx, DWORD PTR [ecx+4]
  00014	89 48 04	 mov	 DWORD PTR [eax+4], ecx
$LN3@Construct@2:

; 49   : 	}

  00017	5d		 pop	 ebp
  00018	c3		 ret	 0
??$_Construct@USecondAttribute@@ABU1@@std@@YAXPAUSecondAttribute@@ABU1@@Z ENDP ; std::_Construct<SecondAttribute,SecondAttribute const &>
_TEXT	ENDS
PUBLIC	??$_Uninit_copy@MM@std@@YAPAMPAM00AAV?$allocator@M@0@U_Scalar_ptr_iterator_tag@0@@Z ; std::_Uninit_copy<float,float>
; Function compile flags: /Ogsp
; File c:\program files (x86)\microsoft visual studio 10.0\vc\include\memory
;	COMDAT ??$_Uninit_copy@MM@std@@YAPAMPAM00AAV?$allocator@M@0@U_Scalar_ptr_iterator_tag@0@@Z
_TEXT	SEGMENT
__First$ = 8						; size = 4
__Last$ = 12						; size = 4
__Dest$ = 16						; size = 4
___formal$ = 20						; size = 4
___formal$ = 24						; size = 1
??$_Uninit_copy@MM@std@@YAPAMPAM00AAV?$allocator@M@0@U_Scalar_ptr_iterator_tag@0@@Z PROC ; std::_Uninit_copy<float,float>, COMDAT

; 399  : 	{	// copy [_First, _Last) to raw _Dest, scalar type

  00000	55		 push	 ebp
  00001	8b ec		 mov	 ebp, esp
  00003	56		 push	 esi

; 400  : 	_DEBUG_RANGE(_First, _Last);
; 401  : 	_DEBUG_POINTER(_Dest);
; 402  : 	size_t _Count = (size_t)(_Last - _First);

  00004	8b 75 0c	 mov	 esi, DWORD PTR __Last$[ebp]
  00007	2b 75 08	 sub	 esi, DWORD PTR __First$[ebp]
  0000a	c1 fe 02	 sar	 esi, 2

; 403  : 	return ((_Ty2 *)_CSTD memmove(&*_Dest, &*_First,
; 404  : 		_Count * sizeof (*_First)) + _Count);	// NB: non-overlapping move

  0000d	c1 e6 02	 shl	 esi, 2
  00010	56		 push	 esi
  00011	ff 75 08	 push	 DWORD PTR __First$[ebp]
  00014	ff 75 10	 push	 DWORD PTR __Dest$[ebp]
  00017	ff 15 00 00 00
	00		 call	 DWORD PTR __imp__memmove
  0001d	83 c4 0c	 add	 esp, 12			; 0000000cH
  00020	03 c6		 add	 eax, esi
  00022	5e		 pop	 esi

; 405  : 	}

  00023	5d		 pop	 ebp
  00024	c3		 ret	 0
??$_Uninit_copy@MM@std@@YAPAMPAM00AAV?$allocator@M@0@U_Scalar_ptr_iterator_tag@0@@Z ENDP ; std::_Uninit_copy<float,float>
_TEXT	ENDS
PUBLIC	??$_Ptr_cat@V?$_Vector_const_iterator@V?$_Vector_val@UAttackAttribute@@V?$allocator@UAttackAttribute@@@std@@@std@@@std@@PAUAttackAttribute@@@std@@YA?AU_Nonscalar_ptr_iterator_tag@0@AAV?$_Vector_const_iterator@V?$_Vector_val@UAttackAttribute@@V?$allocator@UAttackAttribute@@@std@@@std@@@0@AAPAUAttackAttribute@@@Z ; std::_Ptr_cat<std::_Vector_const_iterator<std::_Vector_val<AttackAttribute,std::allocator<AttackAttribute> > >,AttackAttribute *>
; Function compile flags: /Ogsp
; File c:\program files (x86)\microsoft visual studio 10.0\vc\include\xutility
;	COMDAT ??$_Ptr_cat@V?$_Vector_const_iterator@V?$_Vector_val@UAttackAttribute@@V?$allocator@UAttackAttribute@@@std@@@std@@@std@@PAUAttackAttribute@@@std@@YA?AU_Nonscalar_ptr_iterator_tag@0@AAV?$_Vector_const_iterator@V?$_Vector_val@UAttackAttribute@@V?$allocator@UAttackAttribute@@@std@@@std@@@0@AAPAUAttackAttribute@@@Z
_TEXT	SEGMENT
__Cat$ = -1						; size = 1
___formal$ = 8						; size = 4
___formal$ = 12						; size = 4
??$_Ptr_cat@V?$_Vector_const_iterator@V?$_Vector_val@UAttackAttribute@@V?$allocator@UAttackAttribute@@@std@@@std@@@std@@PAUAttackAttribute@@@std@@YA?AU_Nonscalar_ptr_iterator_tag@0@AAV?$_Vector_const_iterator@V?$_Vector_val@UAttackAttribute@@V?$allocator@UAttackAttribute@@@std@@@std@@@0@AAPAUAttackAttribute@@@Z PROC ; std::_Ptr_cat<std::_Vector_const_iterator<std::_Vector_val<AttackAttribute,std::allocator<AttackAttribute> > >,AttackAttribute *>, COMDAT

; 485  : 	{	// return pointer category from arbitrary arguments

  00000	55		 push	 ebp
  00001	8b ec		 mov	 ebp, esp
  00003	51		 push	 ecx

; 486  : 	_Nonscalar_ptr_iterator_tag _Cat;
; 487  : 	return (_Cat);

  00004	8a 45 ff	 mov	 al, BYTE PTR __Cat$[ebp]

; 488  : 	}

  00007	c9		 leave
  00008	c3		 ret	 0
??$_Ptr_cat@V?$_Vector_const_iterator@V?$_Vector_val@UAttackAttribute@@V?$allocator@UAttackAttribute@@@std@@@std@@@std@@PAUAttackAttribute@@@std@@YA?AU_Nonscalar_ptr_iterator_tag@0@AAV?$_Vector_const_iterator@V?$_Vector_val@UAttackAttribute@@V?$allocator@UAttackAttribute@@@std@@@std@@@0@AAPAUAttackAttribute@@@Z ENDP ; std::_Ptr_cat<std::_Vector_const_iterator<std::_Vector_val<AttackAttribute,std::allocator<AttackAttribute> > >,AttackAttribute *>
_TEXT	ENDS
PUBLIC	??$_Val_type@PAUAttackAttribute@@@std@@YAPAUAttackAttribute@@PAU1@@Z ; std::_Val_type<AttackAttribute *>
; Function compile flags: /Ogsp
;	COMDAT ??$_Val_type@PAUAttackAttribute@@@std@@YAPAUAttackAttribute@@PAU1@@Z
_TEXT	SEGMENT
___formal$ = 8						; size = 4
??$_Val_type@PAUAttackAttribute@@@std@@YAPAUAttackAttribute@@PAU1@@Z PROC ; std::_Val_type<AttackAttribute *>, COMDAT

; 790  : 	return (0);

  00000	33 c0		 xor	 eax, eax

; 791  : 	}

  00002	c3		 ret	 0
??$_Val_type@PAUAttackAttribute@@@std@@YAPAUAttackAttribute@@PAU1@@Z ENDP ; std::_Val_type<AttackAttribute *>
_TEXT	ENDS
PUBLIC	??$_Ptr_cat@V?$_Vector_const_iterator@V?$_Vector_val@USecondAttribute@@V?$allocator@USecondAttribute@@@std@@@std@@@std@@PAUSecondAttribute@@@std@@YA?AU_Nonscalar_ptr_iterator_tag@0@AAV?$_Vector_const_iterator@V?$_Vector_val@USecondAttribute@@V?$allocator@USecondAttribute@@@std@@@std@@@0@AAPAUSecondAttribute@@@Z ; std::_Ptr_cat<std::_Vector_const_iterator<std::_Vector_val<SecondAttribute,std::allocator<SecondAttribute> > >,SecondAttribute *>
; Function compile flags: /Ogsp
;	COMDAT ??$_Ptr_cat@V?$_Vector_const_iterator@V?$_Vector_val@USecondAttribute@@V?$allocator@USecondAttribute@@@std@@@std@@@std@@PAUSecondAttribute@@@std@@YA?AU_Nonscalar_ptr_iterator_tag@0@AAV?$_Vector_const_iterator@V?$_Vector_val@USecondAttribute@@V?$allocator@USecondAttribute@@@std@@@std@@@0@AAPAUSecondAttribute@@@Z
_TEXT	SEGMENT
__Cat$ = -1						; size = 1
___formal$ = 8						; size = 4
___formal$ = 12						; size = 4
??$_Ptr_cat@V?$_Vector_const_iterator@V?$_Vector_val@USecondAttribute@@V?$allocator@USecondAttribute@@@std@@@std@@@std@@PAUSecondAttribute@@@std@@YA?AU_Nonscalar_ptr_iterator_tag@0@AAV?$_Vector_const_iterator@V?$_Vector_val@USecondAttribute@@V?$allocator@USecondAttribute@@@std@@@std@@@0@AAPAUSecondAttribute@@@Z PROC ; std::_Ptr_cat<std::_Vector_const_iterator<std::_Vector_val<SecondAttribute,std::allocator<SecondAttribute> > >,SecondAttribute *>, COMDAT

; 485  : 	{	// return pointer category from arbitrary arguments

  00000	55		 push	 ebp
  00001	8b ec		 mov	 ebp, esp
  00003	51		 push	 ecx

; 486  : 	_Nonscalar_ptr_iterator_tag _Cat;
; 487  : 	return (_Cat);

  00004	8a 45 ff	 mov	 al, BYTE PTR __Cat$[ebp]

; 488  : 	}

  00007	c9		 leave
  00008	c3		 ret	 0
??$_Ptr_cat@V?$_Vector_const_iterator@V?$_Vector_val@USecondAttribute@@V?$allocator@USecondAttribute@@@std@@@std@@@std@@PAUSecondAttribute@@@std@@YA?AU_Nonscalar_ptr_iterator_tag@0@AAV?$_Vector_const_iterator@V?$_Vector_val@USecondAttribute@@V?$allocator@USecondAttribute@@@std@@@std@@@0@AAPAUSecondAttribute@@@Z ENDP ; std::_Ptr_cat<std::_Vector_const_iterator<std::_Vector_val<SecondAttribute,std::allocator<SecondAttribute> > >,SecondAttribute *>
_TEXT	ENDS
PUBLIC	??$move@AAUSecondAttribute@@@std@@YA$$QAUSecondAttribute@@AAU1@@Z ; std::move<SecondAttribute &>
; Function compile flags: /Ogsp
; File c:\program files (x86)\microsoft visual studio 10.0\vc\include\utility
;	COMDAT ??$move@AAUSecondAttribute@@@std@@YA$$QAUSecondAttribute@@AAU1@@Z
_TEXT	SEGMENT
__Arg$ = 8						; size = 4
??$move@AAUSecondAttribute@@@std@@YA$$QAUSecondAttribute@@AAU1@@Z PROC ; std::move<SecondAttribute &>, COMDAT

; 86   : 	{	// forward _Arg as movable

  00000	55		 push	 ebp
  00001	8b ec		 mov	 ebp, esp

; 87   : 	return ((typename tr1::_Remove_reference<_Ty>::_Type&&)_Arg);

  00003	8b 45 08	 mov	 eax, DWORD PTR __Arg$[ebp]

; 88   : 	}

  00006	5d		 pop	 ebp
  00007	c3		 ret	 0
??$move@AAUSecondAttribute@@@std@@YA$$QAUSecondAttribute@@AAU1@@Z ENDP ; std::move<SecondAttribute &>
_TEXT	ENDS
PUBLIC	??$_Val_type@PAVioHashString@@@std@@YAPAVioHashString@@PAV1@@Z ; std::_Val_type<ioHashString *>
; Function compile flags: /Ogsp
; File c:\program files (x86)\microsoft visual studio 10.0\vc\include\xutility
;	COMDAT ??$_Val_type@PAVioHashString@@@std@@YAPAVioHashString@@PAV1@@Z
_TEXT	SEGMENT
___formal$ = 8						; size = 4
??$_Val_type@PAVioHashString@@@std@@YAPAVioHashString@@PAV1@@Z PROC ; std::_Val_type<ioHashString *>, COMDAT

; 790  : 	return (0);

  00000	33 c0		 xor	 eax, eax

; 791  : 	}

  00002	c3		 ret	 0
??$_Val_type@PAVioHashString@@@std@@YAPAVioHashString@@PAV1@@Z ENDP ; std::_Val_type<ioHashString *>
_TEXT	ENDS
PUBLIC	??$_Val_type@PAM@std@@YAPAMPAM@Z		; std::_Val_type<float *>
; Function compile flags: /Ogsp
;	COMDAT ??$_Val_type@PAM@std@@YAPAMPAM@Z
_TEXT	SEGMENT
___formal$ = 8						; size = 4
??$_Val_type@PAM@std@@YAPAMPAM@Z PROC			; std::_Val_type<float *>, COMDAT

; 790  : 	return (0);

  00000	33 c0		 xor	 eax, eax

; 791  : 	}

  00002	c3		 ret	 0
??$_Val_type@PAM@std@@YAPAMPAM@Z ENDP			; std::_Val_type<float *>
_TEXT	ENDS
PUBLIC	??$_Uninit_move@MMM@std@@YAPAMPAM00AAV?$allocator@M@0@0U_Scalar_ptr_iterator_tag@0@@Z ; std::_Uninit_move<float,float,float>
; Function compile flags: /Ogsp
; File c:\program files (x86)\microsoft visual studio 10.0\vc\include\memory
;	COMDAT ??$_Uninit_move@MMM@std@@YAPAMPAM00AAV?$allocator@M@0@0U_Scalar_ptr_iterator_tag@0@@Z
_TEXT	SEGMENT
__First$ = 8						; size = 4
__Last$ = 12						; size = 4
__Dest$ = 16						; size = 4
___formal$ = 20						; size = 4
___formal$ = 24						; size = 4
___formal$ = 28						; size = 1
??$_Uninit_move@MMM@std@@YAPAMPAM00AAV?$allocator@M@0@0U_Scalar_ptr_iterator_tag@0@@Z PROC ; std::_Uninit_move<float,float,float>, COMDAT

; 456  : 	{	// move [_First, _Last) to raw _Dest, scalar type

  00000	55		 push	 ebp
  00001	8b ec		 mov	 ebp, esp
  00003	56		 push	 esi

; 457  : 	_DEBUG_RANGE(_First, _Last);
; 458  : 	_DEBUG_POINTER(_Dest);
; 459  : 	size_t _Count = (size_t)(_Last - _First);

  00004	8b 75 0c	 mov	 esi, DWORD PTR __Last$[ebp]
  00007	2b 75 08	 sub	 esi, DWORD PTR __First$[ebp]
  0000a	c1 fe 02	 sar	 esi, 2

; 460  : 	return ((_Ty2 *)_CSTD memmove(&*_Dest, &*_First,
; 461  : 		_Count * sizeof (*_First)) + _Count);	// NB: non-overlapping move

  0000d	c1 e6 02	 shl	 esi, 2
  00010	56		 push	 esi
  00011	ff 75 08	 push	 DWORD PTR __First$[ebp]
  00014	ff 75 10	 push	 DWORD PTR __Dest$[ebp]
  00017	ff 15 00 00 00
	00		 call	 DWORD PTR __imp__memmove
  0001d	83 c4 0c	 add	 esp, 12			; 0000000cH
  00020	03 c6		 add	 eax, esi
  00022	5e		 pop	 esi

; 462  : 	}

  00023	5d		 pop	 ebp
  00024	c3		 ret	 0
??$_Uninit_move@MMM@std@@YAPAMPAM00AAV?$allocator@M@0@0U_Scalar_ptr_iterator_tag@0@@Z ENDP ; std::_Uninit_move<float,float,float>
_TEXT	ENDS
PUBLIC	??$_Val_type@PAUSecondAttribute@@@std@@YAPAUSecondAttribute@@PAU1@@Z ; std::_Val_type<SecondAttribute *>
; Function compile flags: /Ogsp
; File c:\program files (x86)\microsoft visual studio 10.0\vc\include\xutility
;	COMDAT ??$_Val_type@PAUSecondAttribute@@@std@@YAPAUSecondAttribute@@PAU1@@Z
_TEXT	SEGMENT
___formal$ = 8						; size = 4
??$_Val_type@PAUSecondAttribute@@@std@@YAPAUSecondAttribute@@PAU1@@Z PROC ; std::_Val_type<SecondAttribute *>, COMDAT

; 790  : 	return (0);

  00000	33 c0		 xor	 eax, eax

; 791  : 	}

  00002	c3		 ret	 0
??$_Val_type@PAUSecondAttribute@@@std@@YAPAUSecondAttribute@@PAU1@@Z ENDP ; std::_Val_type<SecondAttribute *>
_TEXT	ENDS
PUBLIC	??D?$_Vector_const_iterator@V?$_Vector_val@UAttackAttribute@@V?$allocator@UAttackAttribute@@@std@@@std@@@std@@QBEABUAttackAttribute@@XZ ; std::_Vector_const_iterator<std::_Vector_val<AttackAttribute,std::allocator<AttackAttribute> > >::operator*
; Function compile flags: /Ogsp
; File c:\program files (x86)\microsoft visual studio 10.0\vc\include\vector
;	COMDAT ??D?$_Vector_const_iterator@V?$_Vector_val@UAttackAttribute@@V?$allocator@UAttackAttribute@@@std@@@std@@@std@@QBEABUAttackAttribute@@XZ
_TEXT	SEGMENT
??D?$_Vector_const_iterator@V?$_Vector_val@UAttackAttribute@@V?$allocator@UAttackAttribute@@@std@@@std@@@std@@QBEABUAttackAttribute@@XZ PROC ; std::_Vector_const_iterator<std::_Vector_val<AttackAttribute,std::allocator<AttackAttribute> > >::operator*, COMDAT
; _this$ = ecx

; 64   :  #if _ITERATOR_DEBUG_LEVEL == 2
; 65   : 		if (this->_Getcont() == 0
; 66   : 			|| this->_Ptr == 0
; 67   : 			|| this->_Ptr < ((_Myvec *)this->_Getcont())->_Myfirst
; 68   : 			|| ((_Myvec *)this->_Getcont())->_Mylast <= this->_Ptr)
; 69   : 			{	// report error
; 70   : 			_DEBUG_ERROR("vector iterator not dereferencable");
; 71   : 			_SCL_SECURE_OUT_OF_RANGE;
; 72   : 			}
; 73   : 
; 74   :  #elif _ITERATOR_DEBUG_LEVEL == 1
; 75   : 		_SCL_SECURE_VALIDATE(this->_Getcont() != 0);
; 76   : 		_SCL_SECURE_VALIDATE_RANGE(
; 77   : 			this->_Ptr != 0
; 78   : 			&& ((_Myvec *)this->_Getcont())->_Myfirst <= this->_Ptr
; 79   : 			&& this->_Ptr < ((_Myvec *)this->_Getcont())->_Mylast);
; 80   :  #endif /* _ITERATOR_DEBUG_LEVEL */
; 81   : 
; 82   : 		__analysis_assume(this->_Ptr != 0);
; 83   : 
; 84   : 		return (*this->_Ptr);

  00000	8b 01		 mov	 eax, DWORD PTR [ecx]

; 85   : 		}

  00002	c3		 ret	 0
??D?$_Vector_const_iterator@V?$_Vector_val@UAttackAttribute@@V?$allocator@UAttackAttribute@@@std@@@std@@@std@@QBEABUAttackAttribute@@XZ ENDP ; std::_Vector_const_iterator<std::_Vector_val<AttackAttribute,std::allocator<AttackAttribute> > >::operator*
_TEXT	ENDS
PUBLIC	??E?$_Vector_const_iterator@V?$_Vector_val@UAttackAttribute@@V?$allocator@UAttackAttribute@@@std@@@std@@@std@@QAEAAV01@XZ ; std::_Vector_const_iterator<std::_Vector_val<AttackAttribute,std::allocator<AttackAttribute> > >::operator++
; Function compile flags: /Ogsp
;	COMDAT ??E?$_Vector_const_iterator@V?$_Vector_val@UAttackAttribute@@V?$allocator@UAttackAttribute@@@std@@@std@@@std@@QAEAAV01@XZ
_TEXT	SEGMENT
??E?$_Vector_const_iterator@V?$_Vector_val@UAttackAttribute@@V?$allocator@UAttackAttribute@@@std@@@std@@@std@@QAEAAV01@XZ PROC ; std::_Vector_const_iterator<std::_Vector_val<AttackAttribute,std::allocator<AttackAttribute> > >::operator++, COMDAT
; _this$ = ecx

; 93   : 		{	// preincrement

  00000	8b c1		 mov	 eax, ecx

; 94   :  #if _ITERATOR_DEBUG_LEVEL == 2
; 95   : 		if (this->_Getcont() == 0
; 96   : 			|| this->_Ptr == 0
; 97   : 			|| ((_Myvec *)this->_Getcont())->_Mylast <= this->_Ptr)
; 98   : 			{	// report error
; 99   : 			_DEBUG_ERROR("vector iterator not incrementable");
; 100  : 			_SCL_SECURE_OUT_OF_RANGE;
; 101  : 			}
; 102  : 
; 103  :  #elif _ITERATOR_DEBUG_LEVEL == 1
; 104  : 		_SCL_SECURE_VALIDATE(this->_Getcont() != 0);
; 105  : 		_SCL_SECURE_VALIDATE_RANGE(
; 106  : 			this->_Ptr != 0
; 107  : 			&& this->_Ptr < ((_Myvec *)this->_Getcont())->_Mylast);
; 108  :  #endif /* _ITERATOR_DEBUG_LEVEL */
; 109  : 
; 110  : 		++this->_Ptr;

  00002	83 00 50	 add	 DWORD PTR [eax], 80	; 00000050H

; 111  : 		return (*this);
; 112  : 		}

  00005	c3		 ret	 0
??E?$_Vector_const_iterator@V?$_Vector_val@UAttackAttribute@@V?$allocator@UAttackAttribute@@@std@@@std@@@std@@QAEAAV01@XZ ENDP ; std::_Vector_const_iterator<std::_Vector_val<AttackAttribute,std::allocator<AttackAttribute> > >::operator++
_TEXT	ENDS
PUBLIC	??D?$_Vector_const_iterator@V?$_Vector_val@USecondAttribute@@V?$allocator@USecondAttribute@@@std@@@std@@@std@@QBEABUSecondAttribute@@XZ ; std::_Vector_const_iterator<std::_Vector_val<SecondAttribute,std::allocator<SecondAttribute> > >::operator*
; Function compile flags: /Ogsp
;	COMDAT ??D?$_Vector_const_iterator@V?$_Vector_val@USecondAttribute@@V?$allocator@USecondAttribute@@@std@@@std@@@std@@QBEABUSecondAttribute@@XZ
_TEXT	SEGMENT
??D?$_Vector_const_iterator@V?$_Vector_val@USecondAttribute@@V?$allocator@USecondAttribute@@@std@@@std@@@std@@QBEABUSecondAttribute@@XZ PROC ; std::_Vector_const_iterator<std::_Vector_val<SecondAttribute,std::allocator<SecondAttribute> > >::operator*, COMDAT
; _this$ = ecx

; 64   :  #if _ITERATOR_DEBUG_LEVEL == 2
; 65   : 		if (this->_Getcont() == 0
; 66   : 			|| this->_Ptr == 0
; 67   : 			|| this->_Ptr < ((_Myvec *)this->_Getcont())->_Myfirst
; 68   : 			|| ((_Myvec *)this->_Getcont())->_Mylast <= this->_Ptr)
; 69   : 			{	// report error
; 70   : 			_DEBUG_ERROR("vector iterator not dereferencable");
; 71   : 			_SCL_SECURE_OUT_OF_RANGE;
; 72   : 			}
; 73   : 
; 74   :  #elif _ITERATOR_DEBUG_LEVEL == 1
; 75   : 		_SCL_SECURE_VALIDATE(this->_Getcont() != 0);
; 76   : 		_SCL_SECURE_VALIDATE_RANGE(
; 77   : 			this->_Ptr != 0
; 78   : 			&& ((_Myvec *)this->_Getcont())->_Myfirst <= this->_Ptr
; 79   : 			&& this->_Ptr < ((_Myvec *)this->_Getcont())->_Mylast);
; 80   :  #endif /* _ITERATOR_DEBUG_LEVEL */
; 81   : 
; 82   : 		__analysis_assume(this->_Ptr != 0);
; 83   : 
; 84   : 		return (*this->_Ptr);

  00000	8b 01		 mov	 eax, DWORD PTR [ecx]

; 85   : 		}

  00002	c3		 ret	 0
??D?$_Vector_const_iterator@V?$_Vector_val@USecondAttribute@@V?$allocator@USecondAttribute@@@std@@@std@@@std@@QBEABUSecondAttribute@@XZ ENDP ; std::_Vector_const_iterator<std::_Vector_val<SecondAttribute,std::allocator<SecondAttribute> > >::operator*
_TEXT	ENDS
PUBLIC	??E?$_Vector_const_iterator@V?$_Vector_val@USecondAttribute@@V?$allocator@USecondAttribute@@@std@@@std@@@std@@QAEAAV01@XZ ; std::_Vector_const_iterator<std::_Vector_val<SecondAttribute,std::allocator<SecondAttribute> > >::operator++
; Function compile flags: /Ogsp
;	COMDAT ??E?$_Vector_const_iterator@V?$_Vector_val@USecondAttribute@@V?$allocator@USecondAttribute@@@std@@@std@@@std@@QAEAAV01@XZ
_TEXT	SEGMENT
??E?$_Vector_const_iterator@V?$_Vector_val@USecondAttribute@@V?$allocator@USecondAttribute@@@std@@@std@@@std@@QAEAAV01@XZ PROC ; std::_Vector_const_iterator<std::_Vector_val<SecondAttribute,std::allocator<SecondAttribute> > >::operator++, COMDAT
; _this$ = ecx

; 93   : 		{	// preincrement

  00000	8b c1		 mov	 eax, ecx

; 94   :  #if _ITERATOR_DEBUG_LEVEL == 2
; 95   : 		if (this->_Getcont() == 0
; 96   : 			|| this->_Ptr == 0
; 97   : 			|| ((_Myvec *)this->_Getcont())->_Mylast <= this->_Ptr)
; 98   : 			{	// report error
; 99   : 			_DEBUG_ERROR("vector iterator not incrementable");
; 100  : 			_SCL_SECURE_OUT_OF_RANGE;
; 101  : 			}
; 102  : 
; 103  :  #elif _ITERATOR_DEBUG_LEVEL == 1
; 104  : 		_SCL_SECURE_VALIDATE(this->_Getcont() != 0);
; 105  : 		_SCL_SECURE_VALIDATE_RANGE(
; 106  : 			this->_Ptr != 0
; 107  : 			&& this->_Ptr < ((_Myvec *)this->_Getcont())->_Mylast);
; 108  :  #endif /* _ITERATOR_DEBUG_LEVEL */
; 109  : 
; 110  : 		++this->_Ptr;

  00002	83 00 08	 add	 DWORD PTR [eax], 8

; 111  : 		return (*this);
; 112  : 		}

  00005	c3		 ret	 0
??E?$_Vector_const_iterator@V?$_Vector_val@USecondAttribute@@V?$allocator@USecondAttribute@@@std@@@std@@@std@@QAEAAV01@XZ ENDP ; std::_Vector_const_iterator<std::_Vector_val<SecondAttribute,std::allocator<SecondAttribute> > >::operator++
_TEXT	ENDS
PUBLIC	??$_Destroy@USecondAttribute@@@std@@YAXPAUSecondAttribute@@@Z ; std::_Destroy<SecondAttribute>
; Function compile flags: /Ogsp
; File c:\program files (x86)\microsoft visual studio 10.0\vc\include\xmemory
;	COMDAT ??$_Destroy@USecondAttribute@@@std@@YAXPAUSecondAttribute@@@Z
_TEXT	SEGMENT
__Ptr$ = 8						; size = 4
??$_Destroy@USecondAttribute@@@std@@YAXPAUSecondAttribute@@@Z PROC ; std::_Destroy<SecondAttribute>, COMDAT

; 63   : 	_Ptr->~_Ty();
; 64   : 	}

  00000	c3		 ret	 0
??$_Destroy@USecondAttribute@@@std@@YAXPAUSecondAttribute@@@Z ENDP ; std::_Destroy<SecondAttribute>
_TEXT	ENDS
PUBLIC	??$forward@UAttackAttribute@@@std@@YA$$QAUAttackAttribute@@AAU1@@Z ; std::forward<AttackAttribute>
; Function compile flags: /Ogsp
; File c:\program files (x86)\microsoft visual studio 10.0\vc\include\utility
;	COMDAT ??$forward@UAttackAttribute@@@std@@YA$$QAUAttackAttribute@@AAU1@@Z
_TEXT	SEGMENT
__Arg$ = 8						; size = 4
??$forward@UAttackAttribute@@@std@@YA$$QAUAttackAttribute@@AAU1@@Z PROC ; std::forward<AttackAttribute>, COMDAT

; 78   : 	{	// forward _Arg, given explicitly specified type parameter

  00000	55		 push	 ebp
  00001	8b ec		 mov	 ebp, esp

; 79   : 	return ((_Ty&&)_Arg);

  00003	8b 45 08	 mov	 eax, DWORD PTR __Arg$[ebp]

; 80   : 	}

  00006	5d		 pop	 ebp
  00007	c3		 ret	 0
??$forward@UAttackAttribute@@@std@@YA$$QAUAttackAttribute@@AAU1@@Z ENDP ; std::forward<AttackAttribute>
_TEXT	ENDS
PUBLIC	??$forward@USecondAttribute@@@std@@YA$$QAUSecondAttribute@@AAU1@@Z ; std::forward<SecondAttribute>
; Function compile flags: /Ogsp
;	COMDAT ??$forward@USecondAttribute@@@std@@YA$$QAUSecondAttribute@@AAU1@@Z
_TEXT	SEGMENT
__Arg$ = 8						; size = 4
??$forward@USecondAttribute@@@std@@YA$$QAUSecondAttribute@@AAU1@@Z PROC ; std::forward<SecondAttribute>, COMDAT

; 78   : 	{	// forward _Arg, given explicitly specified type parameter

  00000	55		 push	 ebp
  00001	8b ec		 mov	 ebp, esp

; 79   : 	return ((_Ty&&)_Arg);

  00003	8b 45 08	 mov	 eax, DWORD PTR __Arg$[ebp]

; 80   : 	}

  00006	5d		 pop	 ebp
  00007	c3		 ret	 0
??$forward@USecondAttribute@@@std@@YA$$QAUSecondAttribute@@AAU1@@Z ENDP ; std::forward<SecondAttribute>
_TEXT	ENDS
PUBLIC	??$_Ptr_cat@V?$_Vector_const_iterator@V?$_Vector_val@UWeaponInfo@@V?$allocator@UWeaponInfo@@@std@@@std@@@std@@PAUWeaponInfo@@@std@@YA?AU_Nonscalar_ptr_iterator_tag@0@AAV?$_Vector_const_iterator@V?$_Vector_val@UWeaponInfo@@V?$allocator@UWeaponInfo@@@std@@@std@@@0@AAPAUWeaponInfo@@@Z ; std::_Ptr_cat<std::_Vector_const_iterator<std::_Vector_val<WeaponInfo,std::allocator<WeaponInfo> > >,WeaponInfo *>
; Function compile flags: /Ogsp
; File c:\program files (x86)\microsoft visual studio 10.0\vc\include\xutility
;	COMDAT ??$_Ptr_cat@V?$_Vector_const_iterator@V?$_Vector_val@UWeaponInfo@@V?$allocator@UWeaponInfo@@@std@@@std@@@std@@PAUWeaponInfo@@@std@@YA?AU_Nonscalar_ptr_iterator_tag@0@AAV?$_Vector_const_iterator@V?$_Vector_val@UWeaponInfo@@V?$allocator@UWeaponInfo@@@std@@@std@@@0@AAPAUWeaponInfo@@@Z
_TEXT	SEGMENT
__Cat$ = -1						; size = 1
___formal$ = 8						; size = 4
___formal$ = 12						; size = 4
??$_Ptr_cat@V?$_Vector_const_iterator@V?$_Vector_val@UWeaponInfo@@V?$allocator@UWeaponInfo@@@std@@@std@@@std@@PAUWeaponInfo@@@std@@YA?AU_Nonscalar_ptr_iterator_tag@0@AAV?$_Vector_const_iterator@V?$_Vector_val@UWeaponInfo@@V?$allocator@UWeaponInfo@@@std@@@std@@@0@AAPAUWeaponInfo@@@Z PROC ; std::_Ptr_cat<std::_Vector_const_iterator<std::_Vector_val<WeaponInfo,std::allocator<WeaponInfo> > >,WeaponInfo *>, COMDAT

; 485  : 	{	// return pointer category from arbitrary arguments

  00000	55		 push	 ebp
  00001	8b ec		 mov	 ebp, esp
  00003	51		 push	 ecx

; 486  : 	_Nonscalar_ptr_iterator_tag _Cat;
; 487  : 	return (_Cat);

  00004	8a 45 ff	 mov	 al, BYTE PTR __Cat$[ebp]

; 488  : 	}

  00007	c9		 leave
  00008	c3		 ret	 0
??$_Ptr_cat@V?$_Vector_const_iterator@V?$_Vector_val@UWeaponInfo@@V?$allocator@UWeaponInfo@@@std@@@std@@@std@@PAUWeaponInfo@@@std@@YA?AU_Nonscalar_ptr_iterator_tag@0@AAV?$_Vector_const_iterator@V?$_Vector_val@UWeaponInfo@@V?$allocator@UWeaponInfo@@@std@@@std@@@0@AAPAUWeaponInfo@@@Z ENDP ; std::_Ptr_cat<std::_Vector_const_iterator<std::_Vector_val<WeaponInfo,std::allocator<WeaponInfo> > >,WeaponInfo *>
_TEXT	ENDS
PUBLIC	??$_Ptr_cat@V?$_Vector_const_iterator@V?$_Vector_val@UForceInfo@@V?$allocator@UForceInfo@@@std@@@std@@@std@@PAUForceInfo@@@std@@YA?AU_Nonscalar_ptr_iterator_tag@0@AAV?$_Vector_const_iterator@V?$_Vector_val@UForceInfo@@V?$allocator@UForceInfo@@@std@@@std@@@0@AAPAUForceInfo@@@Z ; std::_Ptr_cat<std::_Vector_const_iterator<std::_Vector_val<ForceInfo,std::allocator<ForceInfo> > >,ForceInfo *>
; Function compile flags: /Ogsp
;	COMDAT ??$_Ptr_cat@V?$_Vector_const_iterator@V?$_Vector_val@UForceInfo@@V?$allocator@UForceInfo@@@std@@@std@@@std@@PAUForceInfo@@@std@@YA?AU_Nonscalar_ptr_iterator_tag@0@AAV?$_Vector_const_iterator@V?$_Vector_val@UForceInfo@@V?$allocator@UForceInfo@@@std@@@std@@@0@AAPAUForceInfo@@@Z
_TEXT	SEGMENT
__Cat$ = -1						; size = 1
___formal$ = 8						; size = 4
___formal$ = 12						; size = 4
??$_Ptr_cat@V?$_Vector_const_iterator@V?$_Vector_val@UForceInfo@@V?$allocator@UForceInfo@@@std@@@std@@@std@@PAUForceInfo@@@std@@YA?AU_Nonscalar_ptr_iterator_tag@0@AAV?$_Vector_const_iterator@V?$_Vector_val@UForceInfo@@V?$allocator@UForceInfo@@@std@@@std@@@0@AAPAUForceInfo@@@Z PROC ; std::_Ptr_cat<std::_Vector_const_iterator<std::_Vector_val<ForceInfo,std::allocator<ForceInfo> > >,ForceInfo *>, COMDAT

; 485  : 	{	// return pointer category from arbitrary arguments

  00000	55		 push	 ebp
  00001	8b ec		 mov	 ebp, esp
  00003	51		 push	 ecx

; 486  : 	_Nonscalar_ptr_iterator_tag _Cat;
; 487  : 	return (_Cat);

  00004	8a 45 ff	 mov	 al, BYTE PTR __Cat$[ebp]

; 488  : 	}

  00007	c9		 leave
  00008	c3		 ret	 0
??$_Ptr_cat@V?$_Vector_const_iterator@V?$_Vector_val@UForceInfo@@V?$allocator@UForceInfo@@@std@@@std@@@std@@PAUForceInfo@@@std@@YA?AU_Nonscalar_ptr_iterator_tag@0@AAV?$_Vector_const_iterator@V?$_Vector_val@UForceInfo@@V?$allocator@UForceInfo@@@std@@@std@@@0@AAPAUForceInfo@@@Z ENDP ; std::_Ptr_cat<std::_Vector_const_iterator<std::_Vector_val<ForceInfo,std::allocator<ForceInfo> > >,ForceInfo *>
_TEXT	ENDS
PUBLIC	??D?$_Vector_const_iterator@V?$_Vector_val@UWeaponInfo@@V?$allocator@UWeaponInfo@@@std@@@std@@@std@@QBEABUWeaponInfo@@XZ ; std::_Vector_const_iterator<std::_Vector_val<WeaponInfo,std::allocator<WeaponInfo> > >::operator*
; Function compile flags: /Ogsp
; File c:\program files (x86)\microsoft visual studio 10.0\vc\include\vector
;	COMDAT ??D?$_Vector_const_iterator@V?$_Vector_val@UWeaponInfo@@V?$allocator@UWeaponInfo@@@std@@@std@@@std@@QBEABUWeaponInfo@@XZ
_TEXT	SEGMENT
??D?$_Vector_const_iterator@V?$_Vector_val@UWeaponInfo@@V?$allocator@UWeaponInfo@@@std@@@std@@@std@@QBEABUWeaponInfo@@XZ PROC ; std::_Vector_const_iterator<std::_Vector_val<WeaponInfo,std::allocator<WeaponInfo> > >::operator*, COMDAT
; _this$ = ecx

; 64   :  #if _ITERATOR_DEBUG_LEVEL == 2
; 65   : 		if (this->_Getcont() == 0
; 66   : 			|| this->_Ptr == 0
; 67   : 			|| this->_Ptr < ((_Myvec *)this->_Getcont())->_Myfirst
; 68   : 			|| ((_Myvec *)this->_Getcont())->_Mylast <= this->_Ptr)
; 69   : 			{	// report error
; 70   : 			_DEBUG_ERROR("vector iterator not dereferencable");
; 71   : 			_SCL_SECURE_OUT_OF_RANGE;
; 72   : 			}
; 73   : 
; 74   :  #elif _ITERATOR_DEBUG_LEVEL == 1
; 75   : 		_SCL_SECURE_VALIDATE(this->_Getcont() != 0);
; 76   : 		_SCL_SECURE_VALIDATE_RANGE(
; 77   : 			this->_Ptr != 0
; 78   : 			&& ((_Myvec *)this->_Getcont())->_Myfirst <= this->_Ptr
; 79   : 			&& this->_Ptr < ((_Myvec *)this->_Getcont())->_Mylast);
; 80   :  #endif /* _ITERATOR_DEBUG_LEVEL */
; 81   : 
; 82   : 		__analysis_assume(this->_Ptr != 0);
; 83   : 
; 84   : 		return (*this->_Ptr);

  00000	8b 01		 mov	 eax, DWORD PTR [ecx]

; 85   : 		}

  00002	c3		 ret	 0
??D?$_Vector_const_iterator@V?$_Vector_val@UWeaponInfo@@V?$allocator@UWeaponInfo@@@std@@@std@@@std@@QBEABUWeaponInfo@@XZ ENDP ; std::_Vector_const_iterator<std::_Vector_val<WeaponInfo,std::allocator<WeaponInfo> > >::operator*
_TEXT	ENDS
PUBLIC	??E?$_Vector_const_iterator@V?$_Vector_val@UWeaponInfo@@V?$allocator@UWeaponInfo@@@std@@@std@@@std@@QAEAAV01@XZ ; std::_Vector_const_iterator<std::_Vector_val<WeaponInfo,std::allocator<WeaponInfo> > >::operator++
; Function compile flags: /Ogsp
;	COMDAT ??E?$_Vector_const_iterator@V?$_Vector_val@UWeaponInfo@@V?$allocator@UWeaponInfo@@@std@@@std@@@std@@QAEAAV01@XZ
_TEXT	SEGMENT
??E?$_Vector_const_iterator@V?$_Vector_val@UWeaponInfo@@V?$allocator@UWeaponInfo@@@std@@@std@@@std@@QAEAAV01@XZ PROC ; std::_Vector_const_iterator<std::_Vector_val<WeaponInfo,std::allocator<WeaponInfo> > >::operator++, COMDAT
; _this$ = ecx

; 93   : 		{	// preincrement

  00000	8b c1		 mov	 eax, ecx

; 94   :  #if _ITERATOR_DEBUG_LEVEL == 2
; 95   : 		if (this->_Getcont() == 0
; 96   : 			|| this->_Ptr == 0
; 97   : 			|| ((_Myvec *)this->_Getcont())->_Mylast <= this->_Ptr)
; 98   : 			{	// report error
; 99   : 			_DEBUG_ERROR("vector iterator not incrementable");
; 100  : 			_SCL_SECURE_OUT_OF_RANGE;
; 101  : 			}
; 102  : 
; 103  :  #elif _ITERATOR_DEBUG_LEVEL == 1
; 104  : 		_SCL_SECURE_VALIDATE(this->_Getcont() != 0);
; 105  : 		_SCL_SECURE_VALIDATE_RANGE(
; 106  : 			this->_Ptr != 0
; 107  : 			&& this->_Ptr < ((_Myvec *)this->_Getcont())->_Mylast);
; 108  :  #endif /* _ITERATOR_DEBUG_LEVEL */
; 109  : 
; 110  : 		++this->_Ptr;

  00002	83 00 28	 add	 DWORD PTR [eax], 40	; 00000028H

; 111  : 		return (*this);
; 112  : 		}

  00005	c3		 ret	 0
??E?$_Vector_const_iterator@V?$_Vector_val@UWeaponInfo@@V?$allocator@UWeaponInfo@@@std@@@std@@@std@@QAEAAV01@XZ ENDP ; std::_Vector_const_iterator<std::_Vector_val<WeaponInfo,std::allocator<WeaponInfo> > >::operator++
_TEXT	ENDS
PUBLIC	??D?$_Vector_const_iterator@V?$_Vector_val@UForceInfo@@V?$allocator@UForceInfo@@@std@@@std@@@std@@QBEABUForceInfo@@XZ ; std::_Vector_const_iterator<std::_Vector_val<ForceInfo,std::allocator<ForceInfo> > >::operator*
; Function compile flags: /Ogsp
;	COMDAT ??D?$_Vector_const_iterator@V?$_Vector_val@UForceInfo@@V?$allocator@UForceInfo@@@std@@@std@@@std@@QBEABUForceInfo@@XZ
_TEXT	SEGMENT
??D?$_Vector_const_iterator@V?$_Vector_val@UForceInfo@@V?$allocator@UForceInfo@@@std@@@std@@@std@@QBEABUForceInfo@@XZ PROC ; std::_Vector_const_iterator<std::_Vector_val<ForceInfo,std::allocator<ForceInfo> > >::operator*, COMDAT
; _this$ = ecx

; 64   :  #if _ITERATOR_DEBUG_LEVEL == 2
; 65   : 		if (this->_Getcont() == 0
; 66   : 			|| this->_Ptr == 0
; 67   : 			|| this->_Ptr < ((_Myvec *)this->_Getcont())->_Myfirst
; 68   : 			|| ((_Myvec *)this->_Getcont())->_Mylast <= this->_Ptr)
; 69   : 			{	// report error
; 70   : 			_DEBUG_ERROR("vector iterator not dereferencable");
; 71   : 			_SCL_SECURE_OUT_OF_RANGE;
; 72   : 			}
; 73   : 
; 74   :  #elif _ITERATOR_DEBUG_LEVEL == 1
; 75   : 		_SCL_SECURE_VALIDATE(this->_Getcont() != 0);
; 76   : 		_SCL_SECURE_VALIDATE_RANGE(
; 77   : 			this->_Ptr != 0
; 78   : 			&& ((_Myvec *)this->_Getcont())->_Myfirst <= this->_Ptr
; 79   : 			&& this->_Ptr < ((_Myvec *)this->_Getcont())->_Mylast);
; 80   :  #endif /* _ITERATOR_DEBUG_LEVEL */
; 81   : 
; 82   : 		__analysis_assume(this->_Ptr != 0);
; 83   : 
; 84   : 		return (*this->_Ptr);

  00000	8b 01		 mov	 eax, DWORD PTR [ecx]

; 85   : 		}

  00002	c3		 ret	 0
??D?$_Vector_const_iterator@V?$_Vector_val@UForceInfo@@V?$allocator@UForceInfo@@@std@@@std@@@std@@QBEABUForceInfo@@XZ ENDP ; std::_Vector_const_iterator<std::_Vector_val<ForceInfo,std::allocator<ForceInfo> > >::operator*
_TEXT	ENDS
PUBLIC	??E?$_Vector_const_iterator@V?$_Vector_val@UForceInfo@@V?$allocator@UForceInfo@@@std@@@std@@@std@@QAEAAV01@XZ ; std::_Vector_const_iterator<std::_Vector_val<ForceInfo,std::allocator<ForceInfo> > >::operator++
; Function compile flags: /Ogsp
;	COMDAT ??E?$_Vector_const_iterator@V?$_Vector_val@UForceInfo@@V?$allocator@UForceInfo@@@std@@@std@@@std@@QAEAAV01@XZ
_TEXT	SEGMENT
??E?$_Vector_const_iterator@V?$_Vector_val@UForceInfo@@V?$allocator@UForceInfo@@@std@@@std@@@std@@QAEAAV01@XZ PROC ; std::_Vector_const_iterator<std::_Vector_val<ForceInfo,std::allocator<ForceInfo> > >::operator++, COMDAT
; _this$ = ecx

; 93   : 		{	// preincrement

  00000	8b c1		 mov	 eax, ecx

; 94   :  #if _ITERATOR_DEBUG_LEVEL == 2
; 95   : 		if (this->_Getcont() == 0
; 96   : 			|| this->_Ptr == 0
; 97   : 			|| ((_Myvec *)this->_Getcont())->_Mylast <= this->_Ptr)
; 98   : 			{	// report error
; 99   : 			_DEBUG_ERROR("vector iterator not incrementable");
; 100  : 			_SCL_SECURE_OUT_OF_RANGE;
; 101  : 			}
; 102  : 
; 103  :  #elif _ITERATOR_DEBUG_LEVEL == 1
; 104  : 		_SCL_SECURE_VALIDATE(this->_Getcont() != 0);
; 105  : 		_SCL_SECURE_VALIDATE_RANGE(
; 106  : 			this->_Ptr != 0
; 107  : 			&& this->_Ptr < ((_Myvec *)this->_Getcont())->_Mylast);
; 108  :  #endif /* _ITERATOR_DEBUG_LEVEL */
; 109  : 
; 110  : 		++this->_Ptr;

  00002	83 00 0c	 add	 DWORD PTR [eax], 12	; 0000000cH

; 111  : 		return (*this);
; 112  : 		}

  00005	c3		 ret	 0
??E?$_Vector_const_iterator@V?$_Vector_val@UForceInfo@@V?$allocator@UForceInfo@@@std@@@std@@@std@@QAEAAV01@XZ ENDP ; std::_Vector_const_iterator<std::_Vector_val<ForceInfo,std::allocator<ForceInfo> > >::operator++
_TEXT	ENDS
PUBLIC	??$forward@ABUWeaponInfo@@@std@@YAABUWeaponInfo@@ABU1@@Z ; std::forward<WeaponInfo const &>
; Function compile flags: /Ogsp
; File c:\program files (x86)\microsoft visual studio 10.0\vc\include\utility
;	COMDAT ??$forward@ABUWeaponInfo@@@std@@YAABUWeaponInfo@@ABU1@@Z
_TEXT	SEGMENT
__Arg$ = 8						; size = 4
??$forward@ABUWeaponInfo@@@std@@YAABUWeaponInfo@@ABU1@@Z PROC ; std::forward<WeaponInfo const &>, COMDAT

; 78   : 	{	// forward _Arg, given explicitly specified type parameter

  00000	55		 push	 ebp
  00001	8b ec		 mov	 ebp, esp

; 79   : 	return ((_Ty&&)_Arg);

  00003	8b 45 08	 mov	 eax, DWORD PTR __Arg$[ebp]

; 80   : 	}

  00006	5d		 pop	 ebp
  00007	c3		 ret	 0
??$forward@ABUWeaponInfo@@@std@@YAABUWeaponInfo@@ABU1@@Z ENDP ; std::forward<WeaponInfo const &>
_TEXT	ENDS
PUBLIC	??$forward@ABUForceInfo@@@std@@YAABUForceInfo@@ABU1@@Z ; std::forward<ForceInfo const &>
; Function compile flags: /Ogsp
;	COMDAT ??$forward@ABUForceInfo@@@std@@YAABUForceInfo@@ABU1@@Z
_TEXT	SEGMENT
__Arg$ = 8						; size = 4
??$forward@ABUForceInfo@@@std@@YAABUForceInfo@@ABU1@@Z PROC ; std::forward<ForceInfo const &>, COMDAT

; 78   : 	{	// forward _Arg, given explicitly specified type parameter

  00000	55		 push	 ebp
  00001	8b ec		 mov	 ebp, esp

; 79   : 	return ((_Ty&&)_Arg);

  00003	8b 45 08	 mov	 eax, DWORD PTR __Arg$[ebp]

; 80   : 	}

  00006	5d		 pop	 ebp
  00007	c3		 ret	 0
??$forward@ABUForceInfo@@@std@@YAABUForceInfo@@ABU1@@Z ENDP ; std::forward<ForceInfo const &>
_TEXT	ENDS
PUBLIC	??$_Construct@UForceInfo@@ABU1@@std@@YAXPAUForceInfo@@ABU1@@Z ; std::_Construct<ForceInfo,ForceInfo const &>
; Function compile flags: /Ogsp
; File c:\program files (x86)\microsoft visual studio 10.0\vc\include\xmemory
;	COMDAT ??$_Construct@UForceInfo@@ABU1@@std@@YAXPAUForceInfo@@ABU1@@Z
_TEXT	SEGMENT
__Ptr$ = 8						; size = 4
__Val$ = 12						; size = 4
??$_Construct@UForceInfo@@ABU1@@std@@YAXPAUForceInfo@@ABU1@@Z PROC ; std::_Construct<ForceInfo,ForceInfo const &>, COMDAT

; 46   : 	{	// construct object at _Ptr with value _Val

  00000	55		 push	 ebp
  00001	8b ec		 mov	 ebp, esp
  00003	57		 push	 edi

; 47   : 	void _FARQ *_Vptr = _Ptr;
; 48   : 	::new (_Vptr) _Ty1(_STD forward<_Ty2>(_Val));

  00004	8b 7d 08	 mov	 edi, DWORD PTR __Ptr$[ebp]
  00007	85 ff		 test	 edi, edi
  00009	74 08		 je	 SHORT $LN3@Construct@3
  0000b	56		 push	 esi
  0000c	8b 75 0c	 mov	 esi, DWORD PTR __Val$[ebp]
  0000f	a5		 movsd
  00010	a5		 movsd
  00011	a5		 movsd
  00012	5e		 pop	 esi
$LN3@Construct@3:
  00013	5f		 pop	 edi

; 49   : 	}

  00014	5d		 pop	 ebp
  00015	c3		 ret	 0
??$_Construct@UForceInfo@@ABU1@@std@@YAXPAUForceInfo@@ABU1@@Z ENDP ; std::_Construct<ForceInfo,ForceInfo const &>
_TEXT	ENDS
PUBLIC	?_DECSTR@@YAXPADH@Z				; _DECSTR
; Function compile flags: /Ogsp
; File d:\lost saga for developer\youtube\tutorial\source\src\lsclient\stringprotect.h
;	COMDAT ?_DECSTR@@YAXPADH@Z
_TEXT	SEGMENT
_s$ = 8							; size = 4
_l$ = 12						; size = 4
?_DECSTR@@YAXPADH@Z PROC				; _DECSTR, COMDAT

; 40   : __forceinline void _DECSTR(char* s, int l){int i=0,l4=(l-1)/4,*p=(int*)s;s[l-1]=0;for(;i<l4;++i)*(p++)^=0xEAEBECED;for(i=l4*4;i<l-1;++i)s[i]^=0xED-i%4;}

  00000	55		 push	 ebp
  00001	8b ec		 mov	 ebp, esp
  00003	8b 4d 0c	 mov	 ecx, DWORD PTR _l$[ebp]
  00006	56		 push	 esi
  00007	8b 75 08	 mov	 esi, DWORD PTR _s$[ebp]
  0000a	57		 push	 edi
  0000b	8d 79 ff	 lea	 edi, DWORD PTR [ecx-1]
  0000e	8b c7		 mov	 eax, edi
  00010	99		 cdq
  00011	83 e2 03	 and	 edx, 3
  00014	03 c2		 add	 eax, edx
  00016	c1 f8 02	 sar	 eax, 2
  00019	8b d6		 mov	 edx, esi
  0001b	c6 44 0e ff 00	 mov	 BYTE PTR [esi+ecx-1], 0
  00020	85 c0		 test	 eax, eax
  00022	7e 0e		 jle	 SHORT $LN4@DECSTR
  00024	8b c8		 mov	 ecx, eax
$LL6@DECSTR:
  00026	81 32 ed ec eb
	ea		 xor	 DWORD PTR [edx], -353637139 ; eaebecedH
  0002c	83 c2 04	 add	 edx, 4
  0002f	49		 dec	 ecx
  00030	75 f4		 jne	 SHORT $LL6@DECSTR
$LN4@DECSTR:
  00032	c1 e0 02	 shl	 eax, 2
  00035	eb 17		 jmp	 SHORT $LN14@DECSTR
$LL3@DECSTR:
  00037	8b c8		 mov	 ecx, eax
  00039	81 e1 03 00 00
	80		 and	 ecx, -2147483645	; 80000003H
  0003f	79 05		 jns	 SHORT $LN13@DECSTR
  00041	49		 dec	 ecx
  00042	83 c9 fc	 or	 ecx, -4			; fffffffcH
  00045	41		 inc	 ecx
$LN13@DECSTR:
  00046	b2 ed		 mov	 dl, -19			; ffffffedH
  00048	2a d1		 sub	 dl, cl
  0004a	30 14 30	 xor	 BYTE PTR [eax+esi], dl
  0004d	40		 inc	 eax
$LN14@DECSTR:
  0004e	3b c7		 cmp	 eax, edi
  00050	7c e5		 jl	 SHORT $LL3@DECSTR
  00052	5f		 pop	 edi
  00053	5e		 pop	 esi
  00054	5d		 pop	 ebp
  00055	c3		 ret	 0
?_DECSTR@@YAXPADH@Z ENDP				; _DECSTR
_TEXT	ENDS
PUBLIC	?return57@@YAIXZ				; return57
; Function compile flags: /Ogsp
; File d:\lost saga for developer\youtube\tutorial\source\src\lsclient\veryoftenusedefine.h
;	COMDAT ?return57@@YAIXZ
_TEXT	SEGMENT
?return57@@YAIXZ PROC					; return57, COMDAT

; 15   : __forceinline unsigned int return57() { __asm mov eax, 57 };

  00000	b8 39 00 00 00	 mov	 eax, 57			; 00000039H
  00005	c3		 ret	 0
?return57@@YAIXZ ENDP					; return57
_TEXT	ENDS
PUBLIC	?GetGroup@ioGameEntity@@QBEPAVioEntityGroup@@XZ	; ioGameEntity::GetGroup
; Function compile flags: /Ogsp
; File d:\lost saga for developer\youtube\tutorial\source\src\lsclient\iogameentity.h
;	COMDAT ?GetGroup@ioGameEntity@@QBEPAVioEntityGroup@@XZ
_TEXT	SEGMENT
?GetGroup@ioGameEntity@@QBEPAVioEntityGroup@@XZ PROC	; ioGameEntity::GetGroup, COMDAT
; _this$ = ecx

; 166  : 	inline ioEntityGroup* GetGroup() const { return m_pGroup; }

  00000	8b 41 04	 mov	 eax, DWORD PTR [ecx+4]
  00003	c3		 ret	 0
?GetGroup@ioGameEntity@@QBEPAVioEntityGroup@@XZ ENDP	; ioGameEntity::GetGroup
_TEXT	ENDS
PUBLIC	??0SecondAttribute@@QAE@XZ			; SecondAttribute::SecondAttribute
; Function compile flags: /Ogsp
; File d:\lost saga for developer\youtube\tutorial\source\src\lsclient\playentityhelpstruct.h
;	COMDAT ??0SecondAttribute@@QAE@XZ
_TEXT	SEGMENT
??0SecondAttribute@@QAE@XZ PROC				; SecondAttribute::SecondAttribute, COMDAT
; _this$ = ecx

; 603  : 	{
; 604  : 		m_iAttributeIndex = 0;
; 605  : 		m_fLimiteValue = 0.0f;

  00000	0f 57 c0	 xorps	 xmm0, xmm0
  00003	8b c1		 mov	 eax, ecx
  00005	83 20 00	 and	 DWORD PTR [eax], 0
  00008	f3 0f 11 40 04	 movss	 DWORD PTR [eax+4], xmm0

; 606  : 	}

  0000d	c3		 ret	 0
??0SecondAttribute@@QAE@XZ ENDP				; SecondAttribute::SecondAttribute
_TEXT	ENDS
PUBLIC	??1WeaponInfo@@QAE@XZ				; WeaponInfo::~WeaponInfo
; Function compile flags: /Ogsp
;	COMDAT ??1WeaponInfo@@QAE@XZ
_TEXT	SEGMENT
??1WeaponInfo@@QAE@XZ PROC				; WeaponInfo::~WeaponInfo, COMDAT
; _this$ = ecx
  00000	83 c1 08	 add	 ecx, 8
  00003	ff 25 00 00 00
	00		 jmp	 DWORD PTR __imp_??1ioHashString@@QAE@XZ
??1WeaponInfo@@QAE@XZ ENDP				; WeaponInfo::~WeaponInfo
_TEXT	ENDS
PUBLIC	?GetHP@ioPlayEntity@@QAEAAUStatusValue@@XZ	; ioPlayEntity::GetHP
; Function compile flags: /Ogsp
; File d:\lost saga for developer\youtube\tutorial\source\src\lsclient\ioplayentity.h
;	COMDAT ?GetHP@ioPlayEntity@@QAEAAUStatusValue@@XZ
_TEXT	SEGMENT
?GetHP@ioPlayEntity@@QAEAAUStatusValue@@XZ PROC		; ioPlayEntity::GetHP, COMDAT
; _this$ = ecx

; 96   : 	inline StatusValue& GetHP() { return m_HP; }

  00000	8d 81 c0 00 00
	00		 lea	 eax, DWORD PTR [ecx+192]
  00006	c3		 ret	 0
?GetHP@ioPlayEntity@@QAEAAUStatusValue@@XZ ENDP		; ioPlayEntity::GetHP
_TEXT	ENDS
PUBLIC	?GetJumpType@ioAttackableItem@@QBE?AW4JumpType@@XZ ; ioAttackableItem::GetJumpType
; Function compile flags: /Ogsp
; File d:\lost saga for developer\youtube\tutorial\source\src\lsclient\ioattackableitem.h
;	COMDAT ?GetJumpType@ioAttackableItem@@QBE?AW4JumpType@@XZ
_TEXT	SEGMENT
?GetJumpType@ioAttackableItem@@QBE?AW4JumpType@@XZ PROC	; ioAttackableItem::GetJumpType, COMDAT
; _this$ = ecx

; 614  : 	inline JumpType GetJumpType() const { return m_JumpType; }

  00000	8b 81 c0 0b 00
	00		 mov	 eax, DWORD PTR [ecx+3008]
  00006	c3		 ret	 0
?GetJumpType@ioAttackableItem@@QBE?AW4JumpType@@XZ ENDP	; ioAttackableItem::GetJumpType
_TEXT	ENDS
PUBLIC	?size@?$vector@VioHashString@@V?$allocator@VioHashString@@@std@@@std@@QBEIXZ ; std::vector<ioHashString,std::allocator<ioHashString> >::size
; Function compile flags: /Ogsp
; File c:\program files (x86)\microsoft visual studio 10.0\vc\include\vector
;	COMDAT ?size@?$vector@VioHashString@@V?$allocator@VioHashString@@@std@@@std@@QBEIXZ
_TEXT	SEGMENT
?size@?$vector@VioHashString@@V?$allocator@VioHashString@@@std@@@std@@QBEIXZ PROC ; std::vector<ioHashString,std::allocator<ioHashString> >::size, COMDAT
; _this$ = ecx

; 879  : 		return (this->_Mylast - this->_Myfirst);

  00000	8b 41 04	 mov	 eax, DWORD PTR [ecx+4]
  00003	2b 01		 sub	 eax, DWORD PTR [ecx]
  00005	c1 f8 04	 sar	 eax, 4

; 880  : 		}

  00008	c3		 ret	 0
?size@?$vector@VioHashString@@V?$allocator@VioHashString@@@std@@@std@@QBEIXZ ENDP ; std::vector<ioHashString,std::allocator<ioHashString> >::size
_TEXT	ENDS
PUBLIC	??_7?$CEncrypt@M@@6B@				; CEncrypt<float>::`vftable'
PUBLIC	??1?$CEncrypt@M@@UAE@XZ				; CEncrypt<float>::~CEncrypt<float>
PUBLIC	??_R4?$CEncrypt@M@@6B@				; CEncrypt<float>::`RTTI Complete Object Locator'
PUBLIC	??_R0?AV?$CEncrypt@M@@@8			; CEncrypt<float> `RTTI Type Descriptor'
PUBLIC	??_R3?$CEncrypt@M@@8				; CEncrypt<float>::`RTTI Class Hierarchy Descriptor'
PUBLIC	??_R2?$CEncrypt@M@@8				; CEncrypt<float>::`RTTI Base Class Array'
PUBLIC	??_R1A@?0A@EA@?$CEncrypt@M@@8			; CEncrypt<float>::`RTTI Base Class Descriptor at (0,-1,0,64)'
EXTRN	??1ccddaabb@@UAE@XZ:PROC			; ccddaabb::~ccddaabb
EXTRN	??_E?$CEncrypt@M@@UAEPAXI@Z:PROC		; CEncrypt<float>::`vector deleting destructor'
;	COMDAT ??_R1A@?0A@EA@?$CEncrypt@M@@8
; File d:\lost saga for developer\youtube\tutorial\source\src\lsclient\encryptvalue.h
rdata$r	SEGMENT
??_R1A@?0A@EA@?$CEncrypt@M@@8 DD FLAT:??_R0?AV?$CEncrypt@M@@@8 ; CEncrypt<float>::`RTTI Base Class Descriptor at (0,-1,0,64)'
	DD	00H
	DD	00H
	DD	0ffffffffH
	DD	00H
	DD	040H
	DD	FLAT:??_R3?$CEncrypt@M@@8
rdata$r	ENDS
;	COMDAT ??_R2?$CEncrypt@M@@8
rdata$r	SEGMENT
??_R2?$CEncrypt@M@@8 DD FLAT:??_R1A@?0A@EA@?$CEncrypt@M@@8 ; CEncrypt<float>::`RTTI Base Class Array'
rdata$r	ENDS
;	COMDAT ??_R3?$CEncrypt@M@@8
rdata$r	SEGMENT
??_R3?$CEncrypt@M@@8 DD 00H				; CEncrypt<float>::`RTTI Class Hierarchy Descriptor'
	DD	00H
	DD	01H
	DD	FLAT:??_R2?$CEncrypt@M@@8
rdata$r	ENDS
;	COMDAT ??_R0?AV?$CEncrypt@M@@@8
_DATA	SEGMENT
??_R0?AV?$CEncrypt@M@@@8 DD FLAT:??_7type_info@@6B@	; CEncrypt<float> `RTTI Type Descriptor'
	DD	00H
	DB	'.?AV?$CEncrypt@M@@', 00H
_DATA	ENDS
;	COMDAT ??_R4?$CEncrypt@M@@6B@
rdata$r	SEGMENT
??_R4?$CEncrypt@M@@6B@ DD 00H				; CEncrypt<float>::`RTTI Complete Object Locator'
	DD	00H
	DD	00H
	DD	FLAT:??_R0?AV?$CEncrypt@M@@@8
	DD	FLAT:??_R3?$CEncrypt@M@@8
rdata$r	ENDS
;	COMDAT ??_7?$CEncrypt@M@@6B@
CONST	SEGMENT
??_7?$CEncrypt@M@@6B@ DD FLAT:??_R4?$CEncrypt@M@@6B@	; CEncrypt<float>::`vftable'
	DD	FLAT:??_E?$CEncrypt@M@@UAEPAXI@Z
; Function compile flags: /Ogsp
CONST	ENDS
;	COMDAT ??1?$CEncrypt@M@@UAE@XZ
_TEXT	SEGMENT
??1?$CEncrypt@M@@UAE@XZ PROC				; CEncrypt<float>::~CEncrypt<float>, COMDAT
; _this$ = ecx

; 127  : 	{

  00000	c7 01 00 00 00
	00		 mov	 DWORD PTR [ecx], OFFSET ??_7?$CEncrypt@M@@6B@

; 128  : 	}

  00006	83 c1 0c	 add	 ecx, 12			; 0000000cH
  00009	e9 00 00 00 00	 jmp	 ??1ccddaabb@@UAE@XZ	; ccddaabb::~ccddaabb
??1?$CEncrypt@M@@UAE@XZ ENDP				; CEncrypt<float>::~CEncrypt<float>
_TEXT	ENDS
PUBLIC	??_7?$CEncrypt@K@@6B@				; CEncrypt<unsigned long>::`vftable'
PUBLIC	??1?$CEncrypt@K@@UAE@XZ				; CEncrypt<unsigned long>::~CEncrypt<unsigned long>
PUBLIC	??_R4?$CEncrypt@K@@6B@				; CEncrypt<unsigned long>::`RTTI Complete Object Locator'
PUBLIC	??_R0?AV?$CEncrypt@K@@@8			; CEncrypt<unsigned long> `RTTI Type Descriptor'
PUBLIC	??_R3?$CEncrypt@K@@8				; CEncrypt<unsigned long>::`RTTI Class Hierarchy Descriptor'
PUBLIC	??_R2?$CEncrypt@K@@8				; CEncrypt<unsigned long>::`RTTI Base Class Array'
PUBLIC	??_R1A@?0A@EA@?$CEncrypt@K@@8			; CEncrypt<unsigned long>::`RTTI Base Class Descriptor at (0,-1,0,64)'
EXTRN	??_E?$CEncrypt@K@@UAEPAXI@Z:PROC		; CEncrypt<unsigned long>::`vector deleting destructor'
;	COMDAT ??_R1A@?0A@EA@?$CEncrypt@K@@8
rdata$r	SEGMENT
??_R1A@?0A@EA@?$CEncrypt@K@@8 DD FLAT:??_R0?AV?$CEncrypt@K@@@8 ; CEncrypt<unsigned long>::`RTTI Base Class Descriptor at (0,-1,0,64)'
	DD	00H
	DD	00H
	DD	0ffffffffH
	DD	00H
	DD	040H
	DD	FLAT:??_R3?$CEncrypt@K@@8
rdata$r	ENDS
;	COMDAT ??_R2?$CEncrypt@K@@8
rdata$r	SEGMENT
??_R2?$CEncrypt@K@@8 DD FLAT:??_R1A@?0A@EA@?$CEncrypt@K@@8 ; CEncrypt<unsigned long>::`RTTI Base Class Array'
rdata$r	ENDS
;	COMDAT ??_R3?$CEncrypt@K@@8
rdata$r	SEGMENT
??_R3?$CEncrypt@K@@8 DD 00H				; CEncrypt<unsigned long>::`RTTI Class Hierarchy Descriptor'
	DD	00H
	DD	01H
	DD	FLAT:??_R2?$CEncrypt@K@@8
rdata$r	ENDS
;	COMDAT ??_R0?AV?$CEncrypt@K@@@8
_DATA	SEGMENT
??_R0?AV?$CEncrypt@K@@@8 DD FLAT:??_7type_info@@6B@	; CEncrypt<unsigned long> `RTTI Type Descriptor'
	DD	00H
	DB	'.?AV?$CEncrypt@K@@', 00H
_DATA	ENDS
;	COMDAT ??_R4?$CEncrypt@K@@6B@
rdata$r	SEGMENT
??_R4?$CEncrypt@K@@6B@ DD 00H				; CEncrypt<unsigned long>::`RTTI Complete Object Locator'
	DD	00H
	DD	00H
	DD	FLAT:??_R0?AV?$CEncrypt@K@@@8
	DD	FLAT:??_R3?$CEncrypt@K@@8
rdata$r	ENDS
;	COMDAT ??_7?$CEncrypt@K@@6B@
CONST	SEGMENT
??_7?$CEncrypt@K@@6B@ DD FLAT:??_R4?$CEncrypt@K@@6B@	; CEncrypt<unsigned long>::`vftable'
	DD	FLAT:??_E?$CEncrypt@K@@UAEPAXI@Z
; Function compile flags: /Ogsp
CONST	ENDS
;	COMDAT ??1?$CEncrypt@K@@UAE@XZ
_TEXT	SEGMENT
??1?$CEncrypt@K@@UAE@XZ PROC				; CEncrypt<unsigned long>::~CEncrypt<unsigned long>, COMDAT
; _this$ = ecx

; 127  : 	{

  00000	c7 01 00 00 00
	00		 mov	 DWORD PTR [ecx], OFFSET ??_7?$CEncrypt@K@@6B@

; 128  : 	}

  00006	83 c1 0c	 add	 ecx, 12			; 0000000cH
  00009	e9 00 00 00 00	 jmp	 ??1ccddaabb@@UAE@XZ	; ccddaabb::~ccddaabb
??1?$CEncrypt@K@@UAE@XZ ENDP				; CEncrypt<unsigned long>::~CEncrypt<unsigned long>
_TEXT	ENDS
PUBLIC	??_7?$CEncrypt@_N@@6B@				; CEncrypt<bool>::`vftable'
PUBLIC	??1?$CEncrypt@_N@@UAE@XZ			; CEncrypt<bool>::~CEncrypt<bool>
PUBLIC	??_R4?$CEncrypt@_N@@6B@				; CEncrypt<bool>::`RTTI Complete Object Locator'
PUBLIC	??_R0?AV?$CEncrypt@_N@@@8			; CEncrypt<bool> `RTTI Type Descriptor'
PUBLIC	??_R3?$CEncrypt@_N@@8				; CEncrypt<bool>::`RTTI Class Hierarchy Descriptor'
PUBLIC	??_R2?$CEncrypt@_N@@8				; CEncrypt<bool>::`RTTI Base Class Array'
PUBLIC	??_R1A@?0A@EA@?$CEncrypt@_N@@8			; CEncrypt<bool>::`RTTI Base Class Descriptor at (0,-1,0,64)'
EXTRN	??_E?$CEncrypt@_N@@UAEPAXI@Z:PROC		; CEncrypt<bool>::`vector deleting destructor'
;	COMDAT ??_R1A@?0A@EA@?$CEncrypt@_N@@8
rdata$r	SEGMENT
??_R1A@?0A@EA@?$CEncrypt@_N@@8 DD FLAT:??_R0?AV?$CEncrypt@_N@@@8 ; CEncrypt<bool>::`RTTI Base Class Descriptor at (0,-1,0,64)'
	DD	00H
	DD	00H
	DD	0ffffffffH
	DD	00H
	DD	040H
	DD	FLAT:??_R3?$CEncrypt@_N@@8
rdata$r	ENDS
;	COMDAT ??_R2?$CEncrypt@_N@@8
rdata$r	SEGMENT
??_R2?$CEncrypt@_N@@8 DD FLAT:??_R1A@?0A@EA@?$CEncrypt@_N@@8 ; CEncrypt<bool>::`RTTI Base Class Array'
rdata$r	ENDS
;	COMDAT ??_R3?$CEncrypt@_N@@8
rdata$r	SEGMENT
??_R3?$CEncrypt@_N@@8 DD 00H				; CEncrypt<bool>::`RTTI Class Hierarchy Descriptor'
	DD	00H
	DD	01H
	DD	FLAT:??_R2?$CEncrypt@_N@@8
rdata$r	ENDS
;	COMDAT ??_R0?AV?$CEncrypt@_N@@@8
_DATA	SEGMENT
??_R0?AV?$CEncrypt@_N@@@8 DD FLAT:??_7type_info@@6B@	; CEncrypt<bool> `RTTI Type Descriptor'
	DD	00H
	DB	'.?AV?$CEncrypt@_N@@', 00H
_DATA	ENDS
;	COMDAT ??_R4?$CEncrypt@_N@@6B@
rdata$r	SEGMENT
??_R4?$CEncrypt@_N@@6B@ DD 00H				; CEncrypt<bool>::`RTTI Complete Object Locator'
	DD	00H
	DD	00H
	DD	FLAT:??_R0?AV?$CEncrypt@_N@@@8
	DD	FLAT:??_R3?$CEncrypt@_N@@8
rdata$r	ENDS
;	COMDAT ??_7?$CEncrypt@_N@@6B@
CONST	SEGMENT
??_7?$CEncrypt@_N@@6B@ DD FLAT:??_R4?$CEncrypt@_N@@6B@	; CEncrypt<bool>::`vftable'
	DD	FLAT:??_E?$CEncrypt@_N@@UAEPAXI@Z
; Function compile flags: /Ogsp
CONST	ENDS
;	COMDAT ??1?$CEncrypt@_N@@UAE@XZ
_TEXT	SEGMENT
??1?$CEncrypt@_N@@UAE@XZ PROC				; CEncrypt<bool>::~CEncrypt<bool>, COMDAT
; _this$ = ecx

; 127  : 	{

  00000	c7 01 00 00 00
	00		 mov	 DWORD PTR [ecx], OFFSET ??_7?$CEncrypt@_N@@6B@

; 128  : 	}

  00006	83 c1 0c	 add	 ecx, 12			; 0000000cH
  00009	e9 00 00 00 00	 jmp	 ??1ccddaabb@@UAE@XZ	; ccddaabb::~ccddaabb
??1?$CEncrypt@_N@@UAE@XZ ENDP				; CEncrypt<bool>::~CEncrypt<bool>
_TEXT	ENDS
PUBLIC	??_7?$CEncrypt@H@@6B@				; CEncrypt<int>::`vftable'
PUBLIC	??1?$CEncrypt@H@@UAE@XZ				; CEncrypt<int>::~CEncrypt<int>
PUBLIC	??_R4?$CEncrypt@H@@6B@				; CEncrypt<int>::`RTTI Complete Object Locator'
PUBLIC	??_R0?AV?$CEncrypt@H@@@8			; CEncrypt<int> `RTTI Type Descriptor'
PUBLIC	??_R3?$CEncrypt@H@@8				; CEncrypt<int>::`RTTI Class Hierarchy Descriptor'
PUBLIC	??_R2?$CEncrypt@H@@8				; CEncrypt<int>::`RTTI Base Class Array'
PUBLIC	??_R1A@?0A@EA@?$CEncrypt@H@@8			; CEncrypt<int>::`RTTI Base Class Descriptor at (0,-1,0,64)'
EXTRN	??_E?$CEncrypt@H@@UAEPAXI@Z:PROC		; CEncrypt<int>::`vector deleting destructor'
;	COMDAT ??_R1A@?0A@EA@?$CEncrypt@H@@8
rdata$r	SEGMENT
??_R1A@?0A@EA@?$CEncrypt@H@@8 DD FLAT:??_R0?AV?$CEncrypt@H@@@8 ; CEncrypt<int>::`RTTI Base Class Descriptor at (0,-1,0,64)'
	DD	00H
	DD	00H
	DD	0ffffffffH
	DD	00H
	DD	040H
	DD	FLAT:??_R3?$CEncrypt@H@@8
rdata$r	ENDS
;	COMDAT ??_R2?$CEncrypt@H@@8
rdata$r	SEGMENT
??_R2?$CEncrypt@H@@8 DD FLAT:??_R1A@?0A@EA@?$CEncrypt@H@@8 ; CEncrypt<int>::`RTTI Base Class Array'
rdata$r	ENDS
;	COMDAT ??_R3?$CEncrypt@H@@8
rdata$r	SEGMENT
??_R3?$CEncrypt@H@@8 DD 00H				; CEncrypt<int>::`RTTI Class Hierarchy Descriptor'
	DD	00H
	DD	01H
	DD	FLAT:??_R2?$CEncrypt@H@@8
rdata$r	ENDS
;	COMDAT ??_R0?AV?$CEncrypt@H@@@8
_DATA	SEGMENT
??_R0?AV?$CEncrypt@H@@@8 DD FLAT:??_7type_info@@6B@	; CEncrypt<int> `RTTI Type Descriptor'
	DD	00H
	DB	'.?AV?$CEncrypt@H@@', 00H
_DATA	ENDS
;	COMDAT ??_R4?$CEncrypt@H@@6B@
rdata$r	SEGMENT
??_R4?$CEncrypt@H@@6B@ DD 00H				; CEncrypt<int>::`RTTI Complete Object Locator'
	DD	00H
	DD	00H
	DD	FLAT:??_R0?AV?$CEncrypt@H@@@8
	DD	FLAT:??_R3?$CEncrypt@H@@8
rdata$r	ENDS
;	COMDAT ??_7?$CEncrypt@H@@6B@
CONST	SEGMENT
??_7?$CEncrypt@H@@6B@ DD FLAT:??_R4?$CEncrypt@H@@6B@	; CEncrypt<int>::`vftable'
	DD	FLAT:??_E?$CEncrypt@H@@UAEPAXI@Z
; Function compile flags: /Ogsp
CONST	ENDS
;	COMDAT ??1?$CEncrypt@H@@UAE@XZ
_TEXT	SEGMENT
??1?$CEncrypt@H@@UAE@XZ PROC				; CEncrypt<int>::~CEncrypt<int>, COMDAT
; _this$ = ecx

; 127  : 	{

  00000	c7 01 00 00 00
	00		 mov	 DWORD PTR [ecx], OFFSET ??_7?$CEncrypt@H@@6B@

; 128  : 	}

  00006	83 c1 0c	 add	 ecx, 12			; 0000000cH
  00009	e9 00 00 00 00	 jmp	 ??1ccddaabb@@UAE@XZ	; ccddaabb::~ccddaabb
??1?$CEncrypt@H@@UAE@XZ ENDP				; CEncrypt<int>::~CEncrypt<int>
; Function compile flags: /Ogsp
_TEXT	ENDS
;	COMDAT ??_G?$CEncrypt@M@@UAEPAXI@Z
_TEXT	SEGMENT
___flags$ = 8						; size = 4
??_G?$CEncrypt@M@@UAEPAXI@Z PROC			; CEncrypt<float>::`scalar deleting destructor', COMDAT
; _this$ = ecx
  00000	55		 push	 ebp
  00001	8b ec		 mov	 ebp, esp
  00003	56		 push	 esi
  00004	8b f1		 mov	 esi, ecx
  00006	8d 4e 0c	 lea	 ecx, DWORD PTR [esi+12]
  00009	c7 06 00 00 00
	00		 mov	 DWORD PTR [esi], OFFSET ??_7?$CEncrypt@M@@6B@
  0000f	e8 00 00 00 00	 call	 ??1ccddaabb@@UAE@XZ	; ccddaabb::~ccddaabb
  00014	f6 45 08 01	 test	 BYTE PTR ___flags$[ebp], 1
  00018	74 07		 je	 SHORT $LN1@scalar@2
  0001a	56		 push	 esi
  0001b	e8 00 00 00 00	 call	 ??3@YAXPAX@Z		; operator delete
  00020	59		 pop	 ecx
$LN1@scalar@2:
  00021	8b c6		 mov	 eax, esi
  00023	5e		 pop	 esi
  00024	5d		 pop	 ebp
  00025	c2 04 00	 ret	 4
??_G?$CEncrypt@M@@UAEPAXI@Z ENDP			; CEncrypt<float>::`scalar deleting destructor'
; Function compile flags: /Ogsp
_TEXT	ENDS
;	COMDAT ??_G?$CEncrypt@K@@UAEPAXI@Z
_TEXT	SEGMENT
___flags$ = 8						; size = 4
??_G?$CEncrypt@K@@UAEPAXI@Z PROC			; CEncrypt<unsigned long>::`scalar deleting destructor', COMDAT
; _this$ = ecx
  00000	55		 push	 ebp
  00001	8b ec		 mov	 ebp, esp
  00003	56		 push	 esi
  00004	8b f1		 mov	 esi, ecx
  00006	8d 4e 0c	 lea	 ecx, DWORD PTR [esi+12]
  00009	c7 06 00 00 00
	00		 mov	 DWORD PTR [esi], OFFSET ??_7?$CEncrypt@K@@6B@
  0000f	e8 00 00 00 00	 call	 ??1ccddaabb@@UAE@XZ	; ccddaabb::~ccddaabb
  00014	f6 45 08 01	 test	 BYTE PTR ___flags$[ebp], 1
  00018	74 07		 je	 SHORT $LN1@scalar@3
  0001a	56		 push	 esi
  0001b	e8 00 00 00 00	 call	 ??3@YAXPAX@Z		; operator delete
  00020	59		 pop	 ecx
$LN1@scalar@3:
  00021	8b c6		 mov	 eax, esi
  00023	5e		 pop	 esi
  00024	5d		 pop	 ebp
  00025	c2 04 00	 ret	 4
??_G?$CEncrypt@K@@UAEPAXI@Z ENDP			; CEncrypt<unsigned long>::`scalar deleting destructor'
; Function compile flags: /Ogsp
_TEXT	ENDS
;	COMDAT ??_G?$CEncrypt@_N@@UAEPAXI@Z
_TEXT	SEGMENT
___flags$ = 8						; size = 4
??_G?$CEncrypt@_N@@UAEPAXI@Z PROC			; CEncrypt<bool>::`scalar deleting destructor', COMDAT
; _this$ = ecx
  00000	55		 push	 ebp
  00001	8b ec		 mov	 ebp, esp
  00003	56		 push	 esi
  00004	8b f1		 mov	 esi, ecx
  00006	8d 4e 0c	 lea	 ecx, DWORD PTR [esi+12]
  00009	c7 06 00 00 00
	00		 mov	 DWORD PTR [esi], OFFSET ??_7?$CEncrypt@_N@@6B@
  0000f	e8 00 00 00 00	 call	 ??1ccddaabb@@UAE@XZ	; ccddaabb::~ccddaabb
  00014	f6 45 08 01	 test	 BYTE PTR ___flags$[ebp], 1
  00018	74 07		 je	 SHORT $LN1@scalar@4
  0001a	56		 push	 esi
  0001b	e8 00 00 00 00	 call	 ??3@YAXPAX@Z		; operator delete
  00020	59		 pop	 ecx
$LN1@scalar@4:
  00021	8b c6		 mov	 eax, esi
  00023	5e		 pop	 esi
  00024	5d		 pop	 ebp
  00025	c2 04 00	 ret	 4
??_G?$CEncrypt@_N@@UAEPAXI@Z ENDP			; CEncrypt<bool>::`scalar deleting destructor'
; Function compile flags: /Ogsp
_TEXT	ENDS
;	COMDAT ??_G?$CEncrypt@H@@UAEPAXI@Z
_TEXT	SEGMENT
___flags$ = 8						; size = 4
??_G?$CEncrypt@H@@UAEPAXI@Z PROC			; CEncrypt<int>::`scalar deleting destructor', COMDAT
; _this$ = ecx
  00000	55		 push	 ebp
  00001	8b ec		 mov	 ebp, esp
  00003	56		 push	 esi
  00004	8b f1		 mov	 esi, ecx
  00006	8d 4e 0c	 lea	 ecx, DWORD PTR [esi+12]
  00009	c7 06 00 00 00
	00		 mov	 DWORD PTR [esi], OFFSET ??_7?$CEncrypt@H@@6B@
  0000f	e8 00 00 00 00	 call	 ??1ccddaabb@@UAE@XZ	; ccddaabb::~ccddaabb
  00014	f6 45 08 01	 test	 BYTE PTR ___flags$[ebp], 1
  00018	74 07		 je	 SHORT $LN1@scalar@5
  0001a	56		 push	 esi
  0001b	e8 00 00 00 00	 call	 ??3@YAXPAX@Z		; operator delete
  00020	59		 pop	 ecx
$LN1@scalar@5:
  00021	8b c6		 mov	 eax, esi
  00023	5e		 pop	 esi
  00024	5d		 pop	 ebp
  00025	c2 04 00	 ret	 4
??_G?$CEncrypt@H@@UAEPAXI@Z ENDP			; CEncrypt<int>::`scalar deleting destructor'
_TEXT	ENDS
PUBLIC	??1?$_Vector_val@VioHashString@@V?$allocator@VioHashString@@@std@@@std@@QAE@XZ ; std::_Vector_val<ioHashString,std::allocator<ioHashString> >::~_Vector_val<ioHashString,std::allocator<ioHashString> >
; Function compile flags: /Ogsp
; File c:\program files (x86)\microsoft visual studio 10.0\vc\include\vector
;	COMDAT ??1?$_Vector_val@VioHashString@@V?$allocator@VioHashString@@@std@@@std@@QAE@XZ
_TEXT	SEGMENT
??1?$_Vector_val@VioHashString@@V?$allocator@VioHashString@@@std@@@std@@QAE@XZ PROC ; std::_Vector_val<ioHashString,std::allocator<ioHashString> >::~_Vector_val<ioHashString,std::allocator<ioHashString> >, COMDAT
; _this$ = ecx

; 434  : 		}

  00000	c3		 ret	 0
??1?$_Vector_val@VioHashString@@V?$allocator@VioHashString@@@std@@@std@@QAE@XZ ENDP ; std::_Vector_val<ioHashString,std::allocator<ioHashString> >::~_Vector_val<ioHashString,std::allocator<ioHashString> >
_TEXT	ENDS
PUBLIC	??0?$allocator@VioHashString@@@std@@QAE@XZ	; std::allocator<ioHashString>::allocator<ioHashString>
; Function compile flags: /Ogsp
; File c:\program files (x86)\microsoft visual studio 10.0\vc\include\xmemory
;	COMDAT ??0?$allocator@VioHashString@@@std@@QAE@XZ
_TEXT	SEGMENT
??0?$allocator@VioHashString@@@std@@QAE@XZ PROC		; std::allocator<ioHashString>::allocator<ioHashString>, COMDAT
; _this$ = ecx

; 161  : 	_ALLOCATOR() _THROW0()

  00000	8b c1		 mov	 eax, ecx

; 162  : 		{	// construct default allocator (do nothing)
; 163  : 		}

  00002	c3		 ret	 0
??0?$allocator@VioHashString@@@std@@QAE@XZ ENDP		; std::allocator<ioHashString>::allocator<ioHashString>
_TEXT	ENDS
PUBLIC	??0?$allocator@VioHashString@@@std@@QAE@ABV01@@Z ; std::allocator<ioHashString>::allocator<ioHashString>
; Function compile flags: /Ogsp
;	COMDAT ??0?$allocator@VioHashString@@@std@@QAE@ABV01@@Z
_TEXT	SEGMENT
___formal$ = 8						; size = 4
??0?$allocator@VioHashString@@@std@@QAE@ABV01@@Z PROC	; std::allocator<ioHashString>::allocator<ioHashString>, COMDAT
; _this$ = ecx

; 165  : 	_ALLOCATOR(const _ALLOCATOR<_Ty>&) _THROW0()

  00000	8b c1		 mov	 eax, ecx

; 166  : 		{	// construct by copying (do nothing)
; 167  : 		}

  00002	c2 04 00	 ret	 4
??0?$allocator@VioHashString@@@std@@QAE@ABV01@@Z ENDP	; std::allocator<ioHashString>::allocator<ioHashString>
_TEXT	ENDS
PUBLIC	??1?$_Vector_val@MV?$allocator@M@std@@@std@@QAE@XZ ; std::_Vector_val<float,std::allocator<float> >::~_Vector_val<float,std::allocator<float> >
; Function compile flags: /Ogsp
; File c:\program files (x86)\microsoft visual studio 10.0\vc\include\vector
;	COMDAT ??1?$_Vector_val@MV?$allocator@M@std@@@std@@QAE@XZ
_TEXT	SEGMENT
??1?$_Vector_val@MV?$allocator@M@std@@@std@@QAE@XZ PROC	; std::_Vector_val<float,std::allocator<float> >::~_Vector_val<float,std::allocator<float> >, COMDAT
; _this$ = ecx

; 434  : 		}

  00000	c3		 ret	 0
??1?$_Vector_val@MV?$allocator@M@std@@@std@@QAE@XZ ENDP	; std::_Vector_val<float,std::allocator<float> >::~_Vector_val<float,std::allocator<float> >
_TEXT	ENDS
PUBLIC	??0?$allocator@M@std@@QAE@XZ			; std::allocator<float>::allocator<float>
; Function compile flags: /Ogsp
; File c:\program files (x86)\microsoft visual studio 10.0\vc\include\xmemory
;	COMDAT ??0?$allocator@M@std@@QAE@XZ
_TEXT	SEGMENT
??0?$allocator@M@std@@QAE@XZ PROC			; std::allocator<float>::allocator<float>, COMDAT
; _this$ = ecx

; 161  : 	_ALLOCATOR() _THROW0()

  00000	8b c1		 mov	 eax, ecx

; 162  : 		{	// construct default allocator (do nothing)
; 163  : 		}

  00002	c3		 ret	 0
??0?$allocator@M@std@@QAE@XZ ENDP			; std::allocator<float>::allocator<float>
_TEXT	ENDS
PUBLIC	??1?$_Vector_val@UWeaponInfo@@V?$allocator@UWeaponInfo@@@std@@@std@@QAE@XZ ; std::_Vector_val<WeaponInfo,std::allocator<WeaponInfo> >::~_Vector_val<WeaponInfo,std::allocator<WeaponInfo> >
; Function compile flags: /Ogsp
; File c:\program files (x86)\microsoft visual studio 10.0\vc\include\vector
;	COMDAT ??1?$_Vector_val@UWeaponInfo@@V?$allocator@UWeaponInfo@@@std@@@std@@QAE@XZ
_TEXT	SEGMENT
??1?$_Vector_val@UWeaponInfo@@V?$allocator@UWeaponInfo@@@std@@@std@@QAE@XZ PROC ; std::_Vector_val<WeaponInfo,std::allocator<WeaponInfo> >::~_Vector_val<WeaponInfo,std::allocator<WeaponInfo> >, COMDAT
; _this$ = ecx

; 434  : 		}

  00000	c3		 ret	 0
??1?$_Vector_val@UWeaponInfo@@V?$allocator@UWeaponInfo@@@std@@@std@@QAE@XZ ENDP ; std::_Vector_val<WeaponInfo,std::allocator<WeaponInfo> >::~_Vector_val<WeaponInfo,std::allocator<WeaponInfo> >
_TEXT	ENDS
PUBLIC	??0?$allocator@UWeaponInfo@@@std@@QAE@XZ	; std::allocator<WeaponInfo>::allocator<WeaponInfo>
; Function compile flags: /Ogsp
; File c:\program files (x86)\microsoft visual studio 10.0\vc\include\xmemory
;	COMDAT ??0?$allocator@UWeaponInfo@@@std@@QAE@XZ
_TEXT	SEGMENT
??0?$allocator@UWeaponInfo@@@std@@QAE@XZ PROC		; std::allocator<WeaponInfo>::allocator<WeaponInfo>, COMDAT
; _this$ = ecx

; 161  : 	_ALLOCATOR() _THROW0()

  00000	8b c1		 mov	 eax, ecx

; 162  : 		{	// construct default allocator (do nothing)
; 163  : 		}

  00002	c3		 ret	 0
??0?$allocator@UWeaponInfo@@@std@@QAE@XZ ENDP		; std::allocator<WeaponInfo>::allocator<WeaponInfo>
_TEXT	ENDS
PUBLIC	??1?$_Vector_val@UForceInfo@@V?$allocator@UForceInfo@@@std@@@std@@QAE@XZ ; std::_Vector_val<ForceInfo,std::allocator<ForceInfo> >::~_Vector_val<ForceInfo,std::allocator<ForceInfo> >
; Function compile flags: /Ogsp
; File c:\program files (x86)\microsoft visual studio 10.0\vc\include\vector
;	COMDAT ??1?$_Vector_val@UForceInfo@@V?$allocator@UForceInfo@@@std@@@std@@QAE@XZ
_TEXT	SEGMENT
??1?$_Vector_val@UForceInfo@@V?$allocator@UForceInfo@@@std@@@std@@QAE@XZ PROC ; std::_Vector_val<ForceInfo,std::allocator<ForceInfo> >::~_Vector_val<ForceInfo,std::allocator<ForceInfo> >, COMDAT
; _this$ = ecx

; 434  : 		}

  00000	c3		 ret	 0
??1?$_Vector_val@UForceInfo@@V?$allocator@UForceInfo@@@std@@@std@@QAE@XZ ENDP ; std::_Vector_val<ForceInfo,std::allocator<ForceInfo> >::~_Vector_val<ForceInfo,std::allocator<ForceInfo> >
_TEXT	ENDS
PUBLIC	??0?$allocator@UForceInfo@@@std@@QAE@XZ		; std::allocator<ForceInfo>::allocator<ForceInfo>
; Function compile flags: /Ogsp
; File c:\program files (x86)\microsoft visual studio 10.0\vc\include\xmemory
;	COMDAT ??0?$allocator@UForceInfo@@@std@@QAE@XZ
_TEXT	SEGMENT
??0?$allocator@UForceInfo@@@std@@QAE@XZ PROC		; std::allocator<ForceInfo>::allocator<ForceInfo>, COMDAT
; _this$ = ecx

; 161  : 	_ALLOCATOR() _THROW0()

  00000	8b c1		 mov	 eax, ecx

; 162  : 		{	// construct default allocator (do nothing)
; 163  : 		}

  00002	c3		 ret	 0
??0?$allocator@UForceInfo@@@std@@QAE@XZ ENDP		; std::allocator<ForceInfo>::allocator<ForceInfo>
_TEXT	ENDS
PUBLIC	?EncryptValueToPool@?$CEncrypt@M@@AAEXPBD@Z	; CEncrypt<float>::EncryptValueToPool
EXTRN	?EncryptByte@ccddaabb@@QAEXPBDPADH@Z:PROC	; ccddaabb::EncryptByte
; Function compile flags: /Ogsp
; File d:\lost saga for developer\youtube\tutorial\source\src\lsclient\encryptvalue.h
;	COMDAT ?EncryptValueToPool@?$CEncrypt@M@@AAEXPBD@Z
_TEXT	SEGMENT
_value$ = 8						; size = 4
?EncryptValueToPool@?$CEncrypt@M@@AAEXPBD@Z PROC	; CEncrypt<float>::EncryptValueToPool, COMDAT
; _this$ = ecx

; 67   : 	{

  00000	55		 push	 ebp
  00001	8b ec		 mov	 ebp, esp

; 68   : 		m_RC5.EncryptByte( value, m_MemPool, max(m_ValueSize, DEFAULT_ENCRYPT) );

  00003	0f b7 41 06	 movzx	 eax, WORD PTR [ecx+6]
  00007	83 f8 04	 cmp	 eax, 4
  0000a	77 03		 ja	 SHORT $LN4@EncryptVal
  0000c	6a 04		 push	 4
  0000e	58		 pop	 eax
$LN4@EncryptVal:
  0000f	50		 push	 eax
  00010	8d 41 1c	 lea	 eax, DWORD PTR [ecx+28]
  00013	50		 push	 eax
  00014	ff 75 08	 push	 DWORD PTR _value$[ebp]
  00017	83 c1 0c	 add	 ecx, 12			; 0000000cH
  0001a	e8 00 00 00 00	 call	 ?EncryptByte@ccddaabb@@QAEXPBDPADH@Z ; ccddaabb::EncryptByte

; 69   : 		
; 70   : 	}

  0001f	5d		 pop	 ebp
  00020	c2 04 00	 ret	 4
?EncryptValueToPool@?$CEncrypt@M@@AAEXPBD@Z ENDP	; CEncrypt<float>::EncryptValueToPool
_TEXT	ENDS
PUBLIC	?Init@?$CEncrypt@M@@AAEXXZ			; CEncrypt<float>::Init
EXTRN	?Setup@ccddaabb@@QAEXPBDHH@Z:PROC		; ccddaabb::Setup
EXTRN	__imp__rand:PROC
EXTRN	__imp__timeGetTime@0:PROC
EXTRN	__imp__GetCurrentProcessId@0:PROC
; Function compile flags: /Ogsp
;	COMDAT ?Init@?$CEncrypt@M@@AAEXXZ
_TEXT	SEGMENT
_pid$ = -8						; size = 4
_tick$ = -4						; size = 4
?Init@?$CEncrypt@M@@AAEXXZ PROC				; CEncrypt<float>::Init, COMDAT
; _this$ = ecx

; 73   : 	{

  00000	55		 push	 ebp
  00001	8b ec		 mov	 ebp, esp
  00003	51		 push	 ecx
  00004	51		 push	 ecx
  00005	53		 push	 ebx
  00006	56		 push	 esi
  00007	57		 push	 edi
  00008	8b f1		 mov	 esi, ecx

; 74   : 		DWORD pid = GetCurrentProcessId();

  0000a	ff 15 00 00 00
	00		 call	 DWORD PTR __imp__GetCurrentProcessId@0
  00010	89 45 f8	 mov	 DWORD PTR _pid$[ebp], eax

; 75   : 		DWORD tick = timeGetTime();

  00013	ff 15 00 00 00
	00		 call	 DWORD PTR __imp__timeGetTime@0

; 76   : 		m_ValueSize    = sizeof(type);
; 77   : 		m_MemPoolPos   = (unsigned short)( rand()+pid+tick )%(MAX_MEM_POOL-m_ValueSize);

  00019	8b 3d 00 00 00
	00		 mov	 edi, DWORD PTR __imp__rand
  0001f	89 45 fc	 mov	 DWORD PTR _tick$[ebp], eax
  00022	6a 04		 push	 4
  00024	58		 pop	 eax
  00025	66 89 46 06	 mov	 WORD PTR [esi+6], ax
  00029	ff d7		 call	 edi
  0002b	03 45 f8	 add	 eax, DWORD PTR _pid$[ebp]
  0002e	0f b7 4e 06	 movzx	 ecx, WORD PTR [esi+6]
  00032	03 45 fc	 add	 eax, DWORD PTR _tick$[ebp]
  00035	6a 0c		 push	 12			; 0000000cH
  00037	0f b7 c0	 movzx	 eax, ax
  0003a	5b		 pop	 ebx
  0003b	99		 cdq
  0003c	2b d9		 sub	 ebx, ecx
  0003e	f7 fb		 idiv	 ebx
  00040	66 89 56 04	 mov	 WORD PTR [esi+4], dx

; 78   : 		m_EncryptSeed  = (char)( rand()+pid+tick )%256;

  00044	ff d7		 call	 edi
  00046	02 45 f8	 add	 al, BYTE PTR _pid$[ebp]
  00049	02 45 fc	 add	 al, BYTE PTR _tick$[ebp]
  0004c	0f be c0	 movsx	 eax, al
  0004f	25 ff 00 00 80	 and	 eax, -2147483393	; 800000ffH
  00054	79 07		 jns	 SHORT $LN8@Init
  00056	48		 dec	 eax
  00057	0d 00 ff ff ff	 or	 eax, -256		; ffffff00H
  0005c	40		 inc	 eax
$LN8@Init:
  0005d	88 46 08	 mov	 BYTE PTR [esi+8], al

; 79   : 
; 80   : 		for (int i = 0; i < MAX_MEM_POOL ; i++)

  00060	33 db		 xor	 ebx, ebx
$LL3@Init:

; 81   : 			m_MemPool[i] = (char)( rand()+pid+tick )%256; // 

  00062	ff d7		 call	 edi
  00064	02 45 f8	 add	 al, BYTE PTR _pid$[ebp]
  00067	02 45 fc	 add	 al, BYTE PTR _tick$[ebp]
  0006a	0f be c0	 movsx	 eax, al
  0006d	25 ff 00 00 80	 and	 eax, -2147483393	; 800000ffH
  00072	79 07		 jns	 SHORT $LN9@Init
  00074	48		 dec	 eax
  00075	0d 00 ff ff ff	 or	 eax, -256		; ffffff00H
  0007a	40		 inc	 eax
$LN9@Init:
  0007b	88 44 1e 1c	 mov	 BYTE PTR [esi+ebx+28], al
  0007f	43		 inc	 ebx
  00080	83 fb 0c	 cmp	 ebx, 12			; 0000000cH
  00083	7c dd		 jl	 SHORT $LL3@Init

; 82   : 
; 83   : 		//UJ 130913, : szKey  
; 84   : 		//char szKey[ccddaabb::KEY_SIZE];//="";
; 85   : 		//for (int i = 0; i < ccddaabb::KEY_SIZE  ; i++)
; 86   : 		//	szKey[i] = (char)( rand()+pid+tick )%256; // 
; 87   : 		m_RC5.Setup( NULL, pid, tick );

  00085	ff 75 fc	 push	 DWORD PTR _tick$[ebp]
  00088	8d 4e 0c	 lea	 ecx, DWORD PTR [esi+12]
  0008b	ff 75 f8	 push	 DWORD PTR _pid$[ebp]
  0008e	6a 00		 push	 0
  00090	e8 00 00 00 00	 call	 ?Setup@ccddaabb@@QAEXPBDHH@Z ; ccddaabb::Setup
  00095	5f		 pop	 edi
  00096	5e		 pop	 esi
  00097	5b		 pop	 ebx

; 88   : 
; 89   : #ifdef _NOTUSE
; 90   : 		m_value        = 0;
; 91   : 		EncryptValueToPool((char*)&m_value);
; 92   : 		Debug();
; 93   : #endif
; 94   : 	}

  00098	c9		 leave
  00099	c3		 ret	 0
?Init@?$CEncrypt@M@@AAEXXZ ENDP				; CEncrypt<float>::Init
_TEXT	ENDS
PUBLIC	?DecryptValueToPool@?$CEncrypt@M@@QAEXPAM@Z	; CEncrypt<float>::DecryptValueToPool
EXTRN	?DecryptByte@ccddaabb@@QBEXPBDPADH@Z:PROC	; ccddaabb::DecryptByte
; Function compile flags: /Ogsp
;	COMDAT ?DecryptValueToPool@?$CEncrypt@M@@QAEXPAM@Z
_TEXT	SEGMENT
_value$ = 8						; size = 4
?DecryptValueToPool@?$CEncrypt@M@@QAEXPAM@Z PROC	; CEncrypt<float>::DecryptValueToPool, COMDAT
; _this$ = ecx

; 1648 : 	{

  00000	55		 push	 ebp
  00001	8b ec		 mov	 ebp, esp
  00003	56		 push	 esi

; 1649 : 		m_RC5.DecryptByte( m_MemPool, m_TempMem, 4 );

  00004	8d 71 28	 lea	 esi, DWORD PTR [ecx+40]
  00007	6a 04		 push	 4
  00009	8d 41 1c	 lea	 eax, DWORD PTR [ecx+28]
  0000c	56		 push	 esi
  0000d	50		 push	 eax
  0000e	83 c1 0c	 add	 ecx, 12			; 0000000cH
  00011	e8 00 00 00 00	 call	 ?DecryptByte@ccddaabb@@QBEXPBDPADH@Z ; ccddaabb::DecryptByte

; 1650 : 		*value = *((float*)m_TempMem);

  00016	d9 06		 fld	 DWORD PTR [esi]
  00018	8b 45 08	 mov	 eax, DWORD PTR _value$[ebp]
  0001b	d9 18		 fstp	 DWORD PTR [eax]
  0001d	5e		 pop	 esi

; 1651 : 	}

  0001e	5d		 pop	 ebp
  0001f	c2 04 00	 ret	 4
?DecryptValueToPool@?$CEncrypt@M@@QAEXPAM@Z ENDP	; CEncrypt<float>::DecryptValueToPool
_TEXT	ENDS
PUBLIC	?EncryptValueToPool@?$CEncrypt@K@@AAEXPBD@Z	; CEncrypt<unsigned long>::EncryptValueToPool
; Function compile flags: /Ogsp
;	COMDAT ?EncryptValueToPool@?$CEncrypt@K@@AAEXPBD@Z
_TEXT	SEGMENT
_value$ = 8						; size = 4
?EncryptValueToPool@?$CEncrypt@K@@AAEXPBD@Z PROC	; CEncrypt<unsigned long>::EncryptValueToPool, COMDAT
; _this$ = ecx

; 67   : 	{

  00000	55		 push	 ebp
  00001	8b ec		 mov	 ebp, esp

; 68   : 		m_RC5.EncryptByte( value, m_MemPool, max(m_ValueSize, DEFAULT_ENCRYPT) );

  00003	0f b7 41 06	 movzx	 eax, WORD PTR [ecx+6]
  00007	83 f8 04	 cmp	 eax, 4
  0000a	77 03		 ja	 SHORT $LN4@EncryptVal@2
  0000c	6a 04		 push	 4
  0000e	58		 pop	 eax
$LN4@EncryptVal@2:
