; Listing generated by Microsoft (R) Optimizing Compiler Version 16.00.30319.01 

	TITLE	D:\Lost Saga For Developer\Youtube\Tutorial\Source\src\LSClient\ioRotateTargetWeapon.cpp
	.686P
	.XMM
	include listing.inc
	.model	flat

INCLUDELIB MSVCRT
INCLUDELIB OLDNAMES

PUBLIC	?_EEM_DS@?$deque@UD3DXVECTOR3@@V?$allocator@UD3DXVECTOR3@@@std@@@std@@2HB ; std::deque<D3DXVECTOR3,std::allocator<D3DXVECTOR3> >::_EEM_DS
PUBLIC	?m_ActionStopType@ioRotateTargetWeapon@@2W4ActionStopType@@A ; ioRotateTargetWeapon::m_ActionStopType
PUBLIC	?m_DieActionStopType@ioRotateTargetWeapon@@2W4ActionStopType@@A ; ioRotateTargetWeapon::m_DieActionStopType
_BSS	SEGMENT
?m_ActionStopType@ioRotateTargetWeapon@@2W4ActionStopType@@A DD 01H DUP (?) ; ioRotateTargetWeapon::m_ActionStopType
?m_DieActionStopType@ioRotateTargetWeapon@@2W4ActionStopType@@A DD 01H DUP (?) ; ioRotateTargetWeapon::m_DieActionStopType
_BSS	ENDS
;	COMDAT ?_EEM_DS@?$deque@UD3DXVECTOR3@@V?$allocator@UD3DXVECTOR3@@@std@@@std@@2HB
CONST	SEGMENT
?_EEM_DS@?$deque@UD3DXVECTOR3@@V?$allocator@UD3DXVECTOR3@@@std@@@std@@2HB DD 01H ; std::deque<D3DXVECTOR3,std::allocator<D3DXVECTOR3> >::_EEM_DS
CONST	ENDS
PUBLIC	?return1@@YAIXZ					; return1
; Function compile flags: /Ogsp
; File d:\lost saga for developer\youtube\tutorial\source\src\lsclient\stdafx.h
;	COMDAT ?return1@@YAIXZ
_TEXT	SEGMENT
?return1@@YAIXZ PROC					; return1, COMDAT

; 17   : 	__forceinline unsigned int return1() { __asm mov eax, 1 };

  00000	b8 01 00 00 00	 mov	 eax, 1
  00005	c3		 ret	 0
?return1@@YAIXZ ENDP					; return1
_TEXT	ENDS
PUBLIC	?return5@@YAIXZ					; return5
; Function compile flags: /Ogsp
;	COMDAT ?return5@@YAIXZ
_TEXT	SEGMENT
?return5@@YAIXZ PROC					; return5, COMDAT

; 18   : 	__forceinline unsigned int return5() { __asm mov eax, 5 };

  00000	b8 05 00 00 00	 mov	 eax, 5
  00005	c3		 ret	 0
?return5@@YAIXZ ENDP					; return5
_TEXT	ENDS
PUBLIC	?return10@@YAIXZ				; return10
; Function compile flags: /Ogsp
;	COMDAT ?return10@@YAIXZ
_TEXT	SEGMENT
?return10@@YAIXZ PROC					; return10, COMDAT

; 21   : 	__forceinline unsigned int return10() { __asm mov eax, 10 };

  00000	b8 0a 00 00 00	 mov	 eax, 10			; 0000000aH
  00005	c3		 ret	 0
?return10@@YAIXZ ENDP					; return10
_TEXT	ENDS
PUBLIC	?return360@@YAIXZ				; return360
; Function compile flags: /Ogsp
;	COMDAT ?return360@@YAIXZ
_TEXT	SEGMENT
?return360@@YAIXZ PROC					; return360, COMDAT

; 27   : 	__forceinline unsigned int return360() { __asm mov eax, 360 };

  00000	b8 68 01 00 00	 mov	 eax, 360		; 00000168H
  00005	c3		 ret	 0
?return360@@YAIXZ ENDP					; return360
_TEXT	ENDS
PUBLIC	?GetState@ioBaseChar@@QBE?AW4CharState@@XZ	; ioBaseChar::GetState
; Function compile flags: /Ogsp
; File d:\lost saga for developer\youtube\tutorial\source\src\lsclient\iobasechar.h
;	COMDAT ?GetState@ioBaseChar@@QBE?AW4CharState@@XZ
_TEXT	SEGMENT
?GetState@ioBaseChar@@QBE?AW4CharState@@XZ PROC		; ioBaseChar::GetState, COMDAT
; _this$ = ecx

; 2156 : 	inline CharState GetState() const { return m_CharState; }	

  00000	8a 81 10 03 00
	00		 mov	 al, BYTE PTR [ecx+784]
  00006	c3		 ret	 0
?GetState@ioBaseChar@@QBE?AW4CharState@@XZ ENDP		; ioBaseChar::GetState
_TEXT	ENDS
PUBLIC	?GetCharName@ioBaseChar@@QBEABVioHashString@@XZ	; ioBaseChar::GetCharName
; Function compile flags: /Ogsp
;	COMDAT ?GetCharName@ioBaseChar@@QBEABVioHashString@@XZ
_TEXT	SEGMENT
?GetCharName@ioBaseChar@@QBEABVioHashString@@XZ PROC	; ioBaseChar::GetCharName, COMDAT
; _this$ = ecx

; 2594 : 	inline const ioHashString& GetCharName() const { return m_Name; }

  00000	8d 81 d4 02 00
	00		 lea	 eax, DWORD PTR [ecx+724]
  00006	c3		 ret	 0
?GetCharName@ioBaseChar@@QBEABVioHashString@@XZ ENDP	; ioBaseChar::GetCharName
_TEXT	ENDS
PUBLIC	?GetRandomSeed@ioBaseChar@@QBEKXZ		; ioBaseChar::GetRandomSeed
; Function compile flags: /Ogsp
;	COMDAT ?GetRandomSeed@ioBaseChar@@QBEKXZ
_TEXT	SEGMENT
?GetRandomSeed@ioBaseChar@@QBEKXZ PROC			; ioBaseChar::GetRandomSeed, COMDAT
; _this$ = ecx

; 3372 : 	inline DWORD GetRandomSeed() const { return m_dwRandomSeed; }

  00000	8b 81 74 16 00
	00		 mov	 eax, DWORD PTR [ecx+5748]
  00006	c3		 ret	 0
?GetRandomSeed@ioBaseChar@@QBEKXZ ENDP			; ioBaseChar::GetRandomSeed
_TEXT	ENDS
PUBLIC	??_7bad_alloc@std@@6B@				; std::bad_alloc::`vftable'
PUBLIC	??0bad_alloc@std@@QAE@PBD@Z			; std::bad_alloc::bad_alloc
PUBLIC	??_R4bad_alloc@std@@6B@				; std::bad_alloc::`RTTI Complete Object Locator'
PUBLIC	??_R0?AVbad_alloc@std@@@8			; std::bad_alloc `RTTI Type Descriptor'
PUBLIC	??_R3bad_alloc@std@@8				; std::bad_alloc::`RTTI Class Hierarchy Descriptor'
PUBLIC	??_R2bad_alloc@std@@8				; std::bad_alloc::`RTTI Base Class Array'
PUBLIC	??_R1A@?0A@EA@bad_alloc@std@@8			; std::bad_alloc::`RTTI Base Class Descriptor at (0,-1,0,64)'
PUBLIC	??_R1A@?0A@EA@exception@std@@8			; std::exception::`RTTI Base Class Descriptor at (0,-1,0,64)'
PUBLIC	??_R0?AVexception@std@@@8			; std::exception `RTTI Type Descriptor'
PUBLIC	??_R3exception@std@@8				; std::exception::`RTTI Class Hierarchy Descriptor'
PUBLIC	??_R2exception@std@@8				; std::exception::`RTTI Base Class Array'
EXTRN	__imp_??0exception@std@@QAE@ABQBD@Z:PROC
EXTRN	??_7type_info@@6B@:QWORD			; type_info::`vftable'
EXTRN	??_Ebad_alloc@std@@UAEPAXI@Z:PROC		; std::bad_alloc::`vector deleting destructor'
EXTRN	?what@exception@std@@UBEPBDXZ:PROC		; std::exception::what
;	COMDAT ??_R2exception@std@@8
; File c:\program files (x86)\microsoft visual studio 10.0\vc\include\exception
rdata$r	SEGMENT
??_R2exception@std@@8 DD FLAT:??_R1A@?0A@EA@exception@std@@8 ; std::exception::`RTTI Base Class Array'
rdata$r	ENDS
;	COMDAT ??_R3exception@std@@8
rdata$r	SEGMENT
??_R3exception@std@@8 DD 00H				; std::exception::`RTTI Class Hierarchy Descriptor'
	DD	00H
	DD	01H
	DD	FLAT:??_R2exception@std@@8
rdata$r	ENDS
;	COMDAT ??_R0?AVexception@std@@@8
_DATA	SEGMENT
??_R0?AVexception@std@@@8 DD FLAT:??_7type_info@@6B@	; std::exception `RTTI Type Descriptor'
	DD	00H
	DB	'.?AVexception@std@@', 00H
_DATA	ENDS
;	COMDAT ??_R1A@?0A@EA@exception@std@@8
rdata$r	SEGMENT
??_R1A@?0A@EA@exception@std@@8 DD FLAT:??_R0?AVexception@std@@@8 ; std::exception::`RTTI Base Class Descriptor at (0,-1,0,64)'
	DD	00H
	DD	00H
	DD	0ffffffffH
	DD	00H
	DD	040H
	DD	FLAT:??_R3exception@std@@8
rdata$r	ENDS
;	COMDAT ??_R1A@?0A@EA@bad_alloc@std@@8
rdata$r	SEGMENT
??_R1A@?0A@EA@bad_alloc@std@@8 DD FLAT:??_R0?AVbad_alloc@std@@@8 ; std::bad_alloc::`RTTI Base Class Descriptor at (0,-1,0,64)'
	DD	01H
	DD	00H
	DD	0ffffffffH
	DD	00H
	DD	040H
	DD	FLAT:??_R3bad_alloc@std@@8
rdata$r	ENDS
;	COMDAT ??_R2bad_alloc@std@@8
rdata$r	SEGMENT
??_R2bad_alloc@std@@8 DD FLAT:??_R1A@?0A@EA@bad_alloc@std@@8 ; std::bad_alloc::`RTTI Base Class Array'
	DD	FLAT:??_R1A@?0A@EA@exception@std@@8
rdata$r	ENDS
;	COMDAT ??_R3bad_alloc@std@@8
rdata$r	SEGMENT
??_R3bad_alloc@std@@8 DD 00H				; std::bad_alloc::`RTTI Class Hierarchy Descriptor'
	DD	00H
	DD	02H
	DD	FLAT:??_R2bad_alloc@std@@8
rdata$r	ENDS
;	COMDAT ??_R0?AVbad_alloc@std@@@8
_DATA	SEGMENT
??_R0?AVbad_alloc@std@@@8 DD FLAT:??_7type_info@@6B@	; std::bad_alloc `RTTI Type Descriptor'
	DD	00H
	DB	'.?AVbad_alloc@std@@', 00H
_DATA	ENDS
;	COMDAT ??_R4bad_alloc@std@@6B@
rdata$r	SEGMENT
??_R4bad_alloc@std@@6B@ DD 00H				; std::bad_alloc::`RTTI Complete Object Locator'
	DD	00H
	DD	00H
	DD	FLAT:??_R0?AVbad_alloc@std@@@8
	DD	FLAT:??_R3bad_alloc@std@@8
rdata$r	ENDS
;	COMDAT ??_7bad_alloc@std@@6B@
CONST	SEGMENT
??_7bad_alloc@std@@6B@ DD FLAT:??_R4bad_alloc@std@@6B@	; std::bad_alloc::`vftable'
	DD	FLAT:??_Ebad_alloc@std@@UAEPAXI@Z
	DD	FLAT:?what@exception@std@@UBEPBDXZ
; Function compile flags: /Ogsp
CONST	ENDS
;	COMDAT ??0bad_alloc@std@@QAE@PBD@Z
_TEXT	SEGMENT
__Message$ = 8						; size = 4
??0bad_alloc@std@@QAE@PBD@Z PROC			; std::bad_alloc::bad_alloc, COMDAT
; _this$ = ecx

; 345  : 		{	// construct from message string

  00000	55		 push	 ebp
  00001	8b ec		 mov	 ebp, esp
  00003	56		 push	 esi
  00004	8d 45 08	 lea	 eax, DWORD PTR __Message$[ebp]
  00007	50		 push	 eax
  00008	8b f1		 mov	 esi, ecx
  0000a	ff 15 00 00 00
	00		 call	 DWORD PTR __imp_??0exception@std@@QAE@ABQBD@Z
  00010	c7 06 00 00 00
	00		 mov	 DWORD PTR [esi], OFFSET ??_7bad_alloc@std@@6B@

; 346  : 		}

  00016	8b c6		 mov	 eax, esi
  00018	5e		 pop	 esi
  00019	5d		 pop	 ebp
  0001a	c2 04 00	 ret	 4
??0bad_alloc@std@@QAE@PBD@Z ENDP			; std::bad_alloc::bad_alloc
_TEXT	ENDS
PUBLIC	??1bad_alloc@std@@UAE@XZ			; std::bad_alloc::~bad_alloc
EXTRN	__imp_??1exception@std@@UAE@XZ:PROC
; Function compile flags: /Ogsp
;	COMDAT ??1bad_alloc@std@@UAE@XZ
_TEXT	SEGMENT
??1bad_alloc@std@@UAE@XZ PROC				; std::bad_alloc::~bad_alloc, COMDAT
; _this$ = ecx

; 354  : 		{	// destroy the object

  00000	c7 01 00 00 00
	00		 mov	 DWORD PTR [ecx], OFFSET ??_7bad_alloc@std@@6B@

; 355  : 		}

  00006	ff 25 00 00 00
	00		 jmp	 DWORD PTR __imp_??1exception@std@@UAE@XZ
??1bad_alloc@std@@UAE@XZ ENDP				; std::bad_alloc::~bad_alloc
_TEXT	ENDS
EXTRN	??3@YAXPAX@Z:PROC				; operator delete
; Function compile flags: /Ogsp
;	COMDAT ??_Gbad_alloc@std@@UAEPAXI@Z
_TEXT	SEGMENT
___flags$ = 8						; size = 4
??_Gbad_alloc@std@@UAEPAXI@Z PROC			; std::bad_alloc::`scalar deleting destructor', COMDAT
; _this$ = ecx
  00000	55		 push	 ebp
  00001	8b ec		 mov	 ebp, esp
  00003	56		 push	 esi
  00004	8b f1		 mov	 esi, ecx
  00006	c7 06 00 00 00
	00		 mov	 DWORD PTR [esi], OFFSET ??_7bad_alloc@std@@6B@
  0000c	ff 15 00 00 00
	00		 call	 DWORD PTR __imp_??1exception@std@@UAE@XZ
  00012	f6 45 08 01	 test	 BYTE PTR ___flags$[ebp], 1
  00016	74 07		 je	 SHORT $LN1@scalar
  00018	56		 push	 esi
  00019	e8 00 00 00 00	 call	 ??3@YAXPAX@Z		; operator delete
  0001e	59		 pop	 ecx
$LN1@scalar:
  0001f	8b c6		 mov	 eax, esi
  00021	5e		 pop	 esi
  00022	5d		 pop	 ebp
  00023	c2 04 00	 ret	 4
??_Gbad_alloc@std@@UAEPAXI@Z ENDP			; std::bad_alloc::`scalar deleting destructor'
_TEXT	ENDS
PUBLIC	??2@YAPAXIPAX@Z					; operator new
; Function compile flags: /Ogsp
; File c:\program files (x86)\microsoft visual studio 10.0\vc\include\new
;	COMDAT ??2@YAPAXIPAX@Z
_TEXT	SEGMENT
___formal$ = 8						; size = 4
__Where$ = 12						; size = 4
??2@YAPAXIPAX@Z PROC					; operator new, COMDAT

; 56   : 	{	// construct array with placement at _Where

  00000	55		 push	 ebp
  00001	8b ec		 mov	 ebp, esp

; 57   : 	return (_Where);

  00003	8b 45 0c	 mov	 eax, DWORD PTR __Where$[ebp]

; 58   : 	}

  00006	5d		 pop	 ebp
  00007	c3		 ret	 0
??2@YAPAXIPAX@Z ENDP					; operator new
_TEXT	ENDS
PUBLIC	??3@YAXPAX0@Z					; operator delete
; Function compile flags: /Ogsp
;	COMDAT ??3@YAXPAX0@Z
_TEXT	SEGMENT
___formal$ = 8						; size = 4
___formal$ = 12						; size = 4
??3@YAXPAX0@Z PROC					; operator delete, COMDAT

; 62   : 	}

  00000	c3		 ret	 0
??3@YAXPAX0@Z ENDP					; operator delete
_TEXT	ENDS
PUBLIC	?SetLiveTime@ioRotateTargetWeapon@@UAEXK@Z	; ioRotateTargetWeapon::SetLiveTime
; Function compile flags: /Ogsp
; File d:\lost saga for developer\youtube\tutorial\source\src\lsclient\iorotatetargetweapon.cpp
;	COMDAT ?SetLiveTime@ioRotateTargetWeapon@@UAEXK@Z
_TEXT	SEGMENT
_dwTime$ = 8						; size = 4
?SetLiveTime@ioRotateTargetWeapon@@UAEXK@Z PROC		; ioRotateTargetWeapon::SetLiveTime, COMDAT
; _this$ = ecx

; 69   : }

  00000	c2 04 00	 ret	 4
?SetLiveTime@ioRotateTargetWeapon@@UAEXK@Z ENDP		; ioRotateTargetWeapon::SetLiveTime
_TEXT	ENDS
PUBLIC	?DestroyResource@ioRotateTargetWeapon@@UAEXPAVioPlayStage@@@Z ; ioRotateTargetWeapon::DestroyResource
; Function compile flags: /Ogsp
;	COMDAT ?DestroyResource@ioRotateTargetWeapon@@UAEXPAVioPlayStage@@@Z
_TEXT	SEGMENT
_pStage$ = 8						; size = 4
?DestroyResource@ioRotateTargetWeapon@@UAEXPAVioPlayStage@@@Z PROC ; ioRotateTargetWeapon::DestroyResource, COMDAT
; _this$ = ecx

; 142  : }

  00000	c2 04 00	 ret	 4
?DestroyResource@ioRotateTargetWeapon@@UAEXPAVioPlayStage@@@Z ENDP ; ioRotateTargetWeapon::DestroyResource
_TEXT	ENDS
PUBLIC	?GetType@ioRotateTargetWeapon@@UBE?AW4WeaponType@ioWeapon@@XZ ; ioRotateTargetWeapon::GetType
; Function compile flags: /Ogsp
;	COMDAT ?GetType@ioRotateTargetWeapon@@UBE?AW4WeaponType@ioWeapon@@XZ
_TEXT	SEGMENT
?GetType@ioRotateTargetWeapon@@UBE?AW4WeaponType@ioWeapon@@XZ PROC ; ioRotateTargetWeapon::GetType, COMDAT
; _this$ = ecx

; 146  : 	return WT_ROTATE_TARGET_WEAPON;

  00000	6a 59		 push	 89			; 00000059H
  00002	58		 pop	 eax

; 147  : }

  00003	c3		 ret	 0
?GetType@ioRotateTargetWeapon@@UBE?AW4WeaponType@ioWeapon@@XZ ENDP ; ioRotateTargetWeapon::GetType
_TEXT	ENDS
PUBLIC	?GetActionStopType@ioRotateTargetWeapon@@UBE?AW4ActionStopType@@XZ ; ioRotateTargetWeapon::GetActionStopType
; Function compile flags: /Ogsp
;	COMDAT ?GetActionStopType@ioRotateTargetWeapon@@UBE?AW4ActionStopType@@XZ
_TEXT	SEGMENT
?GetActionStopType@ioRotateTargetWeapon@@UBE?AW4ActionStopType@@XZ PROC ; ioRotateTargetWeapon::GetActionStopType, COMDAT
; _this$ = ecx

; 151  : 	return m_ActionStopType;

  00000	a1 00 00 00 00	 mov	 eax, DWORD PTR ?m_ActionStopType@ioRotateTargetWeapon@@2W4ActionStopType@@A ; ioRotateTargetWeapon::m_ActionStopType

; 152  : }

  00005	c3		 ret	 0
?GetActionStopType@ioRotateTargetWeapon@@UBE?AW4ActionStopType@@XZ ENDP ; ioRotateTargetWeapon::GetActionStopType
_TEXT	ENDS
PUBLIC	?GetDieActionStopType@ioRotateTargetWeapon@@UBE?AW4ActionStopType@@XZ ; ioRotateTargetWeapon::GetDieActionStopType
; Function compile flags: /Ogsp
;	COMDAT ?GetDieActionStopType@ioRotateTargetWeapon@@UBE?AW4ActionStopType@@XZ
_TEXT	SEGMENT
?GetDieActionStopType@ioRotateTargetWeapon@@UBE?AW4ActionStopType@@XZ PROC ; ioRotateTargetWeapon::GetDieActionStopType, COMDAT
; _this$ = ecx

; 156  : 	return m_DieActionStopType;

  00000	a1 00 00 00 00	 mov	 eax, DWORD PTR ?m_DieActionStopType@ioRotateTargetWeapon@@2W4ActionStopType@@A ; ioRotateTargetWeapon::m_DieActionStopType

; 157  : }

  00005	c3		 ret	 0
?GetDieActionStopType@ioRotateTargetWeapon@@UBE?AW4ActionStopType@@XZ ENDP ; ioRotateTargetWeapon::GetDieActionStopType
_TEXT	ENDS
PUBLIC	?GetAttackDir@ioRotateTargetWeapon@@UBE?AUD3DXVECTOR3@@PBVioPlayEntity@@@Z ; ioRotateTargetWeapon::GetAttackDir
; Function compile flags: /Ogsp
;	COMDAT ?GetAttackDir@ioRotateTargetWeapon@@UBE?AUD3DXVECTOR3@@PBVioPlayEntity@@@Z
_TEXT	SEGMENT
___$ReturnUdt$ = 8					; size = 4
_pEntity$ = 12						; size = 4
?GetAttackDir@ioRotateTargetWeapon@@UBE?AUD3DXVECTOR3@@PBVioPlayEntity@@@Z PROC ; ioRotateTargetWeapon::GetAttackDir, COMDAT
; _this$ = ecx

; 160  : {

  00000	55		 push	 ebp
  00001	8b ec		 mov	 ebp, esp

; 161  : 	return m_vAttackDir;

  00003	8b 45 08	 mov	 eax, DWORD PTR ___$ReturnUdt$[ebp]
  00006	56		 push	 esi
  00007	57		 push	 edi
  00008	8d b1 a4 08 00
	00		 lea	 esi, DWORD PTR [ecx+2212]
  0000e	8b f8		 mov	 edi, eax
  00010	a5		 movsd
  00011	a5		 movsd
  00012	a5		 movsd
  00013	5f		 pop	 edi
  00014	5e		 pop	 esi

; 162  : }

  00015	5d		 pop	 ebp
  00016	c2 08 00	 ret	 8
?GetAttackDir@ioRotateTargetWeapon@@UBE?AUD3DXVECTOR3@@PBVioPlayEntity@@@Z ENDP ; ioRotateTargetWeapon::GetAttackDir
_TEXT	ENDS
PUBLIC	?GetLocalAttackBox@ioRotateTargetWeapon@@UBEABVioOrientBox@@XZ ; ioRotateTargetWeapon::GetLocalAttackBox
; Function compile flags: /Ogsp
;	COMDAT ?GetLocalAttackBox@ioRotateTargetWeapon@@UBEABVioOrientBox@@XZ
_TEXT	SEGMENT
?GetLocalAttackBox@ioRotateTargetWeapon@@UBEABVioOrientBox@@XZ PROC ; ioRotateTargetWeapon::GetLocalAttackBox, COMDAT
; _this$ = ecx

; 166  : 	return m_LocalAttackBox;

  00000	8d 81 b0 08 00
	00		 lea	 eax, DWORD PTR [ecx+2224]

; 167  : }

  00006	c3		 ret	 0
?GetLocalAttackBox@ioRotateTargetWeapon@@UBEABVioOrientBox@@XZ ENDP ; ioRotateTargetWeapon::GetLocalAttackBox
_TEXT	ENDS
PUBLIC	?_Adopt@_Iterator_base0@std@@QAEXPBX@Z		; std::_Iterator_base0::_Adopt
; Function compile flags: /Ogsp
; File c:\program files (x86)\microsoft visual studio 10.0\vc\include\xutility
;	COMDAT ?_Adopt@_Iterator_base0@std@@QAEXPBX@Z
_TEXT	SEGMENT
___formal$ = 8						; size = 4
?_Adopt@_Iterator_base0@std@@QAEXPBX@Z PROC		; std::_Iterator_base0::_Adopt, COMDAT
; _this$ = ecx

; 49   : 		}

  00000	c2 04 00	 ret	 4
?_Adopt@_Iterator_base0@std@@QAEXPBX@Z ENDP		; std::_Iterator_base0::_Adopt
_TEXT	ENDS
PUBLIC	??1TargetInfo@ioRotateTargetWeapon@@QAE@XZ	; ioRotateTargetWeapon::TargetInfo::~TargetInfo
EXTRN	__imp_??1ioHashString@@QAE@XZ:PROC
; Function compile flags: /Ogsp
;	COMDAT ??1TargetInfo@ioRotateTargetWeapon@@QAE@XZ
_TEXT	SEGMENT
??1TargetInfo@ioRotateTargetWeapon@@QAE@XZ PROC		; ioRotateTargetWeapon::TargetInfo::~TargetInfo, COMDAT
; _this$ = ecx
  00000	ff 25 00 00 00
	00		 jmp	 DWORD PTR __imp_??1ioHashString@@QAE@XZ
??1TargetInfo@ioRotateTargetWeapon@@QAE@XZ ENDP		; ioRotateTargetWeapon::TargetInfo::~TargetInfo
_TEXT	ENDS
PUBLIC	??0TargetInfo@ioRotateTargetWeapon@@QAE@ABU01@@Z ; ioRotateTargetWeapon::TargetInfo::TargetInfo
EXTRN	__imp_??0ioHashString@@QAE@ABV0@@Z:PROC
; Function compile flags: /Ogsp
;	COMDAT ??0TargetInfo@ioRotateTargetWeapon@@QAE@ABU01@@Z
_TEXT	SEGMENT
___that$ = 8						; size = 4
??0TargetInfo@ioRotateTargetWeapon@@QAE@ABU01@@Z PROC	; ioRotateTargetWeapon::TargetInfo::TargetInfo, COMDAT
; _this$ = ecx
  00000	55		 push	 ebp
  00001	8b ec		 mov	 ebp, esp
  00003	53		 push	 ebx
  00004	56		 push	 esi
  00005	8b 75 08	 mov	 esi, DWORD PTR ___that$[ebp]
  00008	57		 push	 edi
  00009	56		 push	 esi
  0000a	8b d9		 mov	 ebx, ecx
  0000c	ff 15 00 00 00
	00		 call	 DWORD PTR __imp_??0ioHashString@@QAE@ABV0@@Z
  00012	83 c6 10	 add	 esi, 16			; 00000010H
  00015	8d 7b 10	 lea	 edi, DWORD PTR [ebx+16]
  00018	a5		 movsd
  00019	a5		 movsd
  0001a	a5		 movsd
  0001b	5f		 pop	 edi
  0001c	5e		 pop	 esi
  0001d	8b c3		 mov	 eax, ebx
  0001f	5b		 pop	 ebx
  00020	5d		 pop	 ebp
  00021	c2 04 00	 ret	 4
??0TargetInfo@ioRotateTargetWeapon@@QAE@ABU01@@Z ENDP	; ioRotateTargetWeapon::TargetInfo::TargetInfo
_TEXT	ENDS
PUBLIC	??A?$vector@VioHashString@@V?$allocator@VioHashString@@@std@@@std@@QAEAAVioHashString@@I@Z ; std::vector<ioHashString,std::allocator<ioHashString> >::operator[]
; Function compile flags: /Ogsp
; File c:\program files (x86)\microsoft visual studio 10.0\vc\include\vector
;	COMDAT ??A?$vector@VioHashString@@V?$allocator@VioHashString@@@std@@@std@@QAEAAVioHashString@@I@Z
_TEXT	SEGMENT
__Pos$ = 8						; size = 4
??A?$vector@VioHashString@@V?$allocator@VioHashString@@@std@@@std@@QAEAAVioHashString@@I@Z PROC ; std::vector<ioHashString,std::allocator<ioHashString> >::operator[], COMDAT
; _this$ = ecx

; 928  : 		{	// subscript mutable sequence

  00000	55		 push	 ebp
  00001	8b ec		 mov	 ebp, esp

; 929  :  #if _ITERATOR_DEBUG_LEVEL == 2
; 930  : 		if (size() <= _Pos)
; 931  : 			{	// report error
; 932  : 			_DEBUG_ERROR("vector subscript out of range");
; 933  : 			_SCL_SECURE_OUT_OF_RANGE;
; 934  : 			}
; 935  : 
; 936  :  #elif _ITERATOR_DEBUG_LEVEL == 1
; 937  : 		_SCL_SECURE_VALIDATE_RANGE(_Pos < size());
; 938  :  #endif /* _ITERATOR_DEBUG_LEVEL */
; 939  : 
; 940  : 		return (*(this->_Myfirst + _Pos));

  00003	8b 45 08	 mov	 eax, DWORD PTR __Pos$[ebp]
  00006	c1 e0 04	 shl	 eax, 4
  00009	03 01		 add	 eax, DWORD PTR [ecx]

; 941  : 		}

  0000b	5d		 pop	 ebp
  0000c	c2 04 00	 ret	 4
??A?$vector@VioHashString@@V?$allocator@VioHashString@@@std@@@std@@QAEAAVioHashString@@I@Z ENDP ; std::vector<ioHashString,std::allocator<ioHashString> >::operator[]
_TEXT	ENDS
PUBLIC	?size@?$vector@UTargetInfo@ioRotateTargetWeapon@@V?$allocator@UTargetInfo@ioRotateTargetWeapon@@@std@@@std@@QBEIXZ ; std::vector<ioRotateTargetWeapon::TargetInfo,std::allocator<ioRotateTargetWeapon::TargetInfo> >::size
; Function compile flags: /Ogsp
;	COMDAT ?size@?$vector@UTargetInfo@ioRotateTargetWeapon@@V?$allocator@UTargetInfo@ioRotateTargetWeapon@@@std@@@std@@QBEIXZ
_TEXT	SEGMENT
?size@?$vector@UTargetInfo@ioRotateTargetWeapon@@V?$allocator@UTargetInfo@ioRotateTargetWeapon@@@std@@@std@@QBEIXZ PROC ; std::vector<ioRotateTargetWeapon::TargetInfo,std::allocator<ioRotateTargetWeapon::TargetInfo> >::size, COMDAT
; _this$ = ecx

; 879  : 		return (this->_Mylast - this->_Myfirst);

  00000	8b 41 04	 mov	 eax, DWORD PTR [ecx+4]
  00003	2b 01		 sub	 eax, DWORD PTR [ecx]
  00005	6a 1c		 push	 28			; 0000001cH
  00007	99		 cdq
  00008	59		 pop	 ecx
  00009	f7 f9		 idiv	 ecx

; 880  : 		}

  0000b	c3		 ret	 0
?size@?$vector@UTargetInfo@ioRotateTargetWeapon@@V?$allocator@UTargetInfo@ioRotateTargetWeapon@@@std@@@std@@QBEIXZ ENDP ; std::vector<ioRotateTargetWeapon::TargetInfo,std::allocator<ioRotateTargetWeapon::TargetInfo> >::size
_TEXT	ENDS
PUBLIC	?empty@?$vector@UTargetInfo@ioRotateTargetWeapon@@V?$allocator@UTargetInfo@ioRotateTargetWeapon@@@std@@@std@@QBE_NXZ ; std::vector<ioRotateTargetWeapon::TargetInfo,std::allocator<ioRotateTargetWeapon::TargetInfo> >::empty
; Function compile flags: /Ogsp
;	COMDAT ?empty@?$vector@UTargetInfo@ioRotateTargetWeapon@@V?$allocator@UTargetInfo@ioRotateTargetWeapon@@@std@@@std@@QBE_NXZ
_TEXT	SEGMENT
?empty@?$vector@UTargetInfo@ioRotateTargetWeapon@@V?$allocator@UTargetInfo@ioRotateTargetWeapon@@@std@@@std@@QBE_NXZ PROC ; std::vector<ioRotateTargetWeapon::TargetInfo,std::allocator<ioRotateTargetWeapon::TargetInfo> >::empty, COMDAT
; _this$ = ecx

; 889  : 		return (this->_Myfirst == this->_Mylast);

  00000	8b 01		 mov	 eax, DWORD PTR [ecx]
  00002	2b 41 04	 sub	 eax, DWORD PTR [ecx+4]
  00005	f7 d8		 neg	 eax
  00007	1b c0		 sbb	 eax, eax
  00009	40		 inc	 eax

; 890  : 		}

  0000a	c3		 ret	 0
?empty@?$vector@UTargetInfo@ioRotateTargetWeapon@@V?$allocator@UTargetInfo@ioRotateTargetWeapon@@@std@@@std@@QBE_NXZ ENDP ; std::vector<ioRotateTargetWeapon::TargetInfo,std::allocator<ioRotateTargetWeapon::TargetInfo> >::empty
_TEXT	ENDS
PUBLIC	??A?$vector@UTargetInfo@ioRotateTargetWeapon@@V?$allocator@UTargetInfo@ioRotateTargetWeapon@@@std@@@std@@QAEAAUTargetInfo@ioRotateTargetWeapon@@I@Z ; std::vector<ioRotateTargetWeapon::TargetInfo,std::allocator<ioRotateTargetWeapon::TargetInfo> >::operator[]
; Function compile flags: /Ogsp
;	COMDAT ??A?$vector@UTargetInfo@ioRotateTargetWeapon@@V?$allocator@UTargetInfo@ioRotateTargetWeapon@@@std@@@std@@QAEAAUTargetInfo@ioRotateTargetWeapon@@I@Z
_TEXT	SEGMENT
__Pos$ = 8						; size = 4
??A?$vector@UTargetInfo@ioRotateTargetWeapon@@V?$allocator@UTargetInfo@ioRotateTargetWeapon@@@std@@@std@@QAEAAUTargetInfo@ioRotateTargetWeapon@@I@Z PROC ; std::vector<ioRotateTargetWeapon::TargetInfo,std::allocator<ioRotateTargetWeapon::TargetInfo> >::operator[], COMDAT
; _this$ = ecx

; 928  : 		{	// subscript mutable sequence

  00000	55		 push	 ebp
  00001	8b ec		 mov	 ebp, esp

; 929  :  #if _ITERATOR_DEBUG_LEVEL == 2
; 930  : 		if (size() <= _Pos)
; 931  : 			{	// report error
; 932  : 			_DEBUG_ERROR("vector subscript out of range");
; 933  : 			_SCL_SECURE_OUT_OF_RANGE;
; 934  : 			}
; 935  : 
; 936  :  #elif _ITERATOR_DEBUG_LEVEL == 1
; 937  : 		_SCL_SECURE_VALIDATE_RANGE(_Pos < size());
; 938  :  #endif /* _ITERATOR_DEBUG_LEVEL */
; 939  : 
; 940  : 		return (*(this->_Myfirst + _Pos));

  00003	8b 45 08	 mov	 eax, DWORD PTR __Pos$[ebp]
  00006	6b c0 1c	 imul	 eax, 28			; 0000001cH
  00009	03 01		 add	 eax, DWORD PTR [ecx]

; 941  : 		}

  0000b	5d		 pop	 ebp
  0000c	c2 04 00	 ret	 4
??A?$vector@UTargetInfo@ioRotateTargetWeapon@@V?$allocator@UTargetInfo@ioRotateTargetWeapon@@@std@@@std@@QAEAAUTargetInfo@ioRotateTargetWeapon@@I@Z ENDP ; std::vector<ioRotateTargetWeapon::TargetInfo,std::allocator<ioRotateTargetWeapon::TargetInfo> >::operator[]
_TEXT	ENDS
PUBLIC	?_Inside@?$vector@VioHashString@@V?$allocator@VioHashString@@@std@@@std@@IBE_NPBVioHashString@@@Z ; std::vector<ioHashString,std::allocator<ioHashString> >::_Inside
; Function compile flags: /Ogsp
;	COMDAT ?_Inside@?$vector@VioHashString@@V?$allocator@VioHashString@@@std@@@std@@IBE_NPBVioHashString@@@Z
_TEXT	SEGMENT
__Ptr$ = 8						; size = 4
?_Inside@?$vector@VioHashString@@V?$allocator@VioHashString@@@std@@@std@@IBE_NPBVioHashString@@@Z PROC ; std::vector<ioHashString,std::allocator<ioHashString> >::_Inside, COMDAT
; _this$ = ecx

; 1285 : 		{	// test if _Ptr points inside vector

  00000	55		 push	 ebp
  00001	8b ec		 mov	 ebp, esp

; 1286 : 		return (_Ptr < this->_Mylast && this->_Myfirst <= _Ptr);

  00003	8b 45 08	 mov	 eax, DWORD PTR __Ptr$[ebp]
  00006	3b 41 04	 cmp	 eax, DWORD PTR [ecx+4]
  00009	73 09		 jae	 SHORT $LN3@Inside
  0000b	39 01		 cmp	 DWORD PTR [ecx], eax
  0000d	77 05		 ja	 SHORT $LN3@Inside
  0000f	33 c0		 xor	 eax, eax
  00011	40		 inc	 eax
  00012	eb 02		 jmp	 SHORT $LN4@Inside
$LN3@Inside:
  00014	33 c0		 xor	 eax, eax
$LN4@Inside:

; 1287 : 		}

  00016	5d		 pop	 ebp
  00017	c2 04 00	 ret	 4
?_Inside@?$vector@VioHashString@@V?$allocator@VioHashString@@@std@@@std@@IBE_NPBVioHashString@@@Z ENDP ; std::vector<ioHashString,std::allocator<ioHashString> >::_Inside
_TEXT	ENDS
PUBLIC	?_Orphan_range@?$vector@VioHashString@@V?$allocator@VioHashString@@@std@@@std@@IBEXPAVioHashString@@0@Z ; std::vector<ioHashString,std::allocator<ioHashString> >::_Orphan_range
; Function compile flags: /Ogsp
;	COMDAT ?_Orphan_range@?$vector@VioHashString@@V?$allocator@VioHashString@@@std@@@std@@IBEXPAVioHashString@@0@Z
_TEXT	SEGMENT
___formal$ = 8						; size = 4
___formal$ = 12						; size = 4
?_Orphan_range@?$vector@VioHashString@@V?$allocator@VioHashString@@@std@@@std@@IBEXPAVioHashString@@0@Z PROC ; std::vector<ioHashString,std::allocator<ioHashString> >::_Orphan_range, COMDAT
; _this$ = ecx

; 1454 : 		}

  00000	c2 08 00	 ret	 8
?_Orphan_range@?$vector@VioHashString@@V?$allocator@VioHashString@@@std@@@std@@IBEXPAVioHashString@@0@Z ENDP ; std::vector<ioHashString,std::allocator<ioHashString> >::_Orphan_range
_TEXT	ENDS
PUBLIC	?_Inside@?$vector@UTargetInfo@ioRotateTargetWeapon@@V?$allocator@UTargetInfo@ioRotateTargetWeapon@@@std@@@std@@IBE_NPBUTargetInfo@ioRotateTargetWeapon@@@Z ; std::vector<ioRotateTargetWeapon::TargetInfo,std::allocator<ioRotateTargetWeapon::TargetInfo> >::_Inside
; Function compile flags: /Ogsp
;	COMDAT ?_Inside@?$vector@UTargetInfo@ioRotateTargetWeapon@@V?$allocator@UTargetInfo@ioRotateTargetWeapon@@@std@@@std@@IBE_NPBUTargetInfo@ioRotateTargetWeapon@@@Z
_TEXT	SEGMENT
__Ptr$ = 8						; size = 4
?_Inside@?$vector@UTargetInfo@ioRotateTargetWeapon@@V?$allocator@UTargetInfo@ioRotateTargetWeapon@@@std@@@std@@IBE_NPBUTargetInfo@ioRotateTargetWeapon@@@Z PROC ; std::vector<ioRotateTargetWeapon::TargetInfo,std::allocator<ioRotateTargetWeapon::TargetInfo> >::_Inside, COMDAT
; _this$ = ecx

; 1285 : 		{	// test if _Ptr points inside vector

  00000	55		 push	 ebp
  00001	8b ec		 mov	 ebp, esp

; 1286 : 		return (_Ptr < this->_Mylast && this->_Myfirst <= _Ptr);

  00003	8b 45 08	 mov	 eax, DWORD PTR __Ptr$[ebp]
  00006	3b 41 04	 cmp	 eax, DWORD PTR [ecx+4]
  00009	73 09		 jae	 SHORT $LN3@Inside@2
  0000b	39 01		 cmp	 DWORD PTR [ecx], eax
  0000d	77 05		 ja	 SHORT $LN3@Inside@2
  0000f	33 c0		 xor	 eax, eax
  00011	40		 inc	 eax
  00012	eb 02		 jmp	 SHORT $LN4@Inside@2
$LN3@Inside@2:
  00014	33 c0		 xor	 eax, eax
$LN4@Inside@2:

; 1287 : 		}

  00016	5d		 pop	 ebp
  00017	c2 04 00	 ret	 4
?_Inside@?$vector@UTargetInfo@ioRotateTargetWeapon@@V?$allocator@UTargetInfo@ioRotateTargetWeapon@@@std@@@std@@IBE_NPBUTargetInfo@ioRotateTargetWeapon@@@Z ENDP ; std::vector<ioRotateTargetWeapon::TargetInfo,std::allocator<ioRotateTargetWeapon::TargetInfo> >::_Inside
_TEXT	ENDS
PUBLIC	?_Orphan_range@?$vector@UTargetInfo@ioRotateTargetWeapon@@V?$allocator@UTargetInfo@ioRotateTargetWeapon@@@std@@@std@@IBEXPAUTargetInfo@ioRotateTargetWeapon@@0@Z ; std::vector<ioRotateTargetWeapon::TargetInfo,std::allocator<ioRotateTargetWeapon::TargetInfo> >::_Orphan_range
; Function compile flags: /Ogsp
;	COMDAT ?_Orphan_range@?$vector@UTargetInfo@ioRotateTargetWeapon@@V?$allocator@UTargetInfo@ioRotateTargetWeapon@@@std@@@std@@IBEXPAUTargetInfo@ioRotateTargetWeapon@@0@Z
_TEXT	SEGMENT
___formal$ = 8						; size = 4
___formal$ = 12						; size = 4
?_Orphan_range@?$vector@UTargetInfo@ioRotateTargetWeapon@@V?$allocator@UTargetInfo@ioRotateTargetWeapon@@@std@@@std@@IBEXPAUTargetInfo@ioRotateTargetWeapon@@0@Z PROC ; std::vector<ioRotateTargetWeapon::TargetInfo,std::allocator<ioRotateTargetWeapon::TargetInfo> >::_Orphan_range, COMDAT
; _this$ = ecx

; 1454 : 		}

  00000	c2 08 00	 ret	 8
?_Orphan_range@?$vector@UTargetInfo@ioRotateTargetWeapon@@V?$allocator@UTargetInfo@ioRotateTargetWeapon@@@std@@@std@@IBEXPAUTargetInfo@ioRotateTargetWeapon@@0@Z ENDP ; std::vector<ioRotateTargetWeapon::TargetInfo,std::allocator<ioRotateTargetWeapon::TargetInfo> >::_Orphan_range
_TEXT	ENDS
PUBLIC	??1?$_Vector_val@UTargetInfo@ioRotateTargetWeapon@@V?$allocator@UTargetInfo@ioRotateTargetWeapon@@@std@@@std@@QAE@XZ ; std::_Vector_val<ioRotateTargetWeapon::TargetInfo,std::allocator<ioRotateTargetWeapon::TargetInfo> >::~_Vector_val<ioRotateTargetWeapon::TargetInfo,std::allocator<ioRotateTargetWeapon::TargetInfo> >
; Function compile flags: /Ogsp
;	COMDAT ??1?$_Vector_val@UTargetInfo@ioRotateTargetWeapon@@V?$allocator@UTargetInfo@ioRotateTargetWeapon@@@std@@@std@@QAE@XZ
_TEXT	SEGMENT
??1?$_Vector_val@UTargetInfo@ioRotateTargetWeapon@@V?$allocator@UTargetInfo@ioRotateTargetWeapon@@@std@@@std@@QAE@XZ PROC ; std::_Vector_val<ioRotateTargetWeapon::TargetInfo,std::allocator<ioRotateTargetWeapon::TargetInfo> >::~_Vector_val<ioRotateTargetWeapon::TargetInfo,std::allocator<ioRotateTargetWeapon::TargetInfo> >, COMDAT
; _this$ = ecx

; 434  : 		}

  00000	c3		 ret	 0
??1?$_Vector_val@UTargetInfo@ioRotateTargetWeapon@@V?$allocator@UTargetInfo@ioRotateTargetWeapon@@@std@@@std@@QAE@XZ ENDP ; std::_Vector_val<ioRotateTargetWeapon::TargetInfo,std::allocator<ioRotateTargetWeapon::TargetInfo> >::~_Vector_val<ioRotateTargetWeapon::TargetInfo,std::allocator<ioRotateTargetWeapon::TargetInfo> >
_TEXT	ENDS
PUBLIC	??0?$allocator@UTargetInfo@ioRotateTargetWeapon@@@std@@QAE@XZ ; std::allocator<ioRotateTargetWeapon::TargetInfo>::allocator<ioRotateTargetWeapon::TargetInfo>
; Function compile flags: /Ogsp
; File c:\program files (x86)\microsoft visual studio 10.0\vc\include\xmemory
;	COMDAT ??0?$allocator@UTargetInfo@ioRotateTargetWeapon@@@std@@QAE@XZ
_TEXT	SEGMENT
??0?$allocator@UTargetInfo@ioRotateTargetWeapon@@@std@@QAE@XZ PROC ; std::allocator<ioRotateTargetWeapon::TargetInfo>::allocator<ioRotateTargetWeapon::TargetInfo>, COMDAT
; _this$ = ecx

; 161  : 	_ALLOCATOR() _THROW0()

  00000	8b c1		 mov	 eax, ecx

; 162  : 		{	// construct default allocator (do nothing)
; 163  : 		}

  00002	c3		 ret	 0
??0?$allocator@UTargetInfo@ioRotateTargetWeapon@@@std@@QAE@XZ ENDP ; std::allocator<ioRotateTargetWeapon::TargetInfo>::allocator<ioRotateTargetWeapon::TargetInfo>
_TEXT	ENDS
PUBLIC	??D?$_Vector_const_iterator@V?$_Vector_val@UTargetInfo@ioRotateTargetWeapon@@V?$allocator@UTargetInfo@ioRotateTargetWeapon@@@std@@@std@@@std@@QBEABUTargetInfo@ioRotateTargetWeapon@@XZ ; std::_Vector_const_iterator<std::_Vector_val<ioRotateTargetWeapon::TargetInfo,std::allocator<ioRotateTargetWeapon::TargetInfo> > >::operator*
; Function compile flags: /Ogsp
; File c:\program files (x86)\microsoft visual studio 10.0\vc\include\vector
;	COMDAT ??D?$_Vector_const_iterator@V?$_Vector_val@UTargetInfo@ioRotateTargetWeapon@@V?$allocator@UTargetInfo@ioRotateTargetWeapon@@@std@@@std@@@std@@QBEABUTargetInfo@ioRotateTargetWeapon@@XZ
_TEXT	SEGMENT
??D?$_Vector_const_iterator@V?$_Vector_val@UTargetInfo@ioRotateTargetWeapon@@V?$allocator@UTargetInfo@ioRotateTargetWeapon@@@std@@@std@@@std@@QBEABUTargetInfo@ioRotateTargetWeapon@@XZ PROC ; std::_Vector_const_iterator<std::_Vector_val<ioRotateTargetWeapon::TargetInfo,std::allocator<ioRotateTargetWeapon::TargetInfo> > >::operator*, COMDAT
; _this$ = ecx

; 64   :  #if _ITERATOR_DEBUG_LEVEL == 2
; 65   : 		if (this->_Getcont() == 0
; 66   : 			|| this->_Ptr == 0
; 67   : 			|| this->_Ptr < ((_Myvec *)this->_Getcont())->_Myfirst
; 68   : 			|| ((_Myvec *)this->_Getcont())->_Mylast <= this->_Ptr)
; 69   : 			{	// report error
; 70   : 			_DEBUG_ERROR("vector iterator not dereferencable");
; 71   : 			_SCL_SECURE_OUT_OF_RANGE;
; 72   : 			}
; 73   : 
; 74   :  #elif _ITERATOR_DEBUG_LEVEL == 1
; 75   : 		_SCL_SECURE_VALIDATE(this->_Getcont() != 0);
; 76   : 		_SCL_SECURE_VALIDATE_RANGE(
; 77   : 			this->_Ptr != 0
; 78   : 			&& ((_Myvec *)this->_Getcont())->_Myfirst <= this->_Ptr
; 79   : 			&& this->_Ptr < ((_Myvec *)this->_Getcont())->_Mylast);
; 80   :  #endif /* _ITERATOR_DEBUG_LEVEL */
; 81   : 
; 82   : 		__analysis_assume(this->_Ptr != 0);
; 83   : 
; 84   : 		return (*this->_Ptr);

  00000	8b 01		 mov	 eax, DWORD PTR [ecx]

; 85   : 		}

  00002	c3		 ret	 0
??D?$_Vector_const_iterator@V?$_Vector_val@UTargetInfo@ioRotateTargetWeapon@@V?$allocator@UTargetInfo@ioRotateTargetWeapon@@@std@@@std@@@std@@QBEABUTargetInfo@ioRotateTargetWeapon@@XZ ENDP ; std::_Vector_const_iterator<std::_Vector_val<ioRotateTargetWeapon::TargetInfo,std::allocator<ioRotateTargetWeapon::TargetInfo> > >::operator*
_TEXT	ENDS
PUBLIC	??E?$_Vector_const_iterator@V?$_Vector_val@UTargetInfo@ioRotateTargetWeapon@@V?$allocator@UTargetInfo@ioRotateTargetWeapon@@@std@@@std@@@std@@QAEAAV01@XZ ; std::_Vector_const_iterator<std::_Vector_val<ioRotateTargetWeapon::TargetInfo,std::allocator<ioRotateTargetWeapon::TargetInfo> > >::operator++
; Function compile flags: /Ogsp
;	COMDAT ??E?$_Vector_const_iterator@V?$_Vector_val@UTargetInfo@ioRotateTargetWeapon@@V?$allocator@UTargetInfo@ioRotateTargetWeapon@@@std@@@std@@@std@@QAEAAV01@XZ
_TEXT	SEGMENT
??E?$_Vector_const_iterator@V?$_Vector_val@UTargetInfo@ioRotateTargetWeapon@@V?$allocator@UTargetInfo@ioRotateTargetWeapon@@@std@@@std@@@std@@QAEAAV01@XZ PROC ; std::_Vector_const_iterator<std::_Vector_val<ioRotateTargetWeapon::TargetInfo,std::allocator<ioRotateTargetWeapon::TargetInfo> > >::operator++, COMDAT
; _this$ = ecx

; 93   : 		{	// preincrement

  00000	8b c1		 mov	 eax, ecx

; 94   :  #if _ITERATOR_DEBUG_LEVEL == 2
; 95   : 		if (this->_Getcont() == 0
; 96   : 			|| this->_Ptr == 0
; 97   : 			|| ((_Myvec *)this->_Getcont())->_Mylast <= this->_Ptr)
; 98   : 			{	// report error
; 99   : 			_DEBUG_ERROR("vector iterator not incrementable");
; 100  : 			_SCL_SECURE_OUT_OF_RANGE;
; 101  : 			}
; 102  : 
; 103  :  #elif _ITERATOR_DEBUG_LEVEL == 1
; 104  : 		_SCL_SECURE_VALIDATE(this->_Getcont() != 0);
; 105  : 		_SCL_SECURE_VALIDATE_RANGE(
; 106  : 			this->_Ptr != 0
; 107  : 			&& this->_Ptr < ((_Myvec *)this->_Getcont())->_Mylast);
; 108  :  #endif /* _ITERATOR_DEBUG_LEVEL */
; 109  : 
; 110  : 		++this->_Ptr;

  00002	83 00 1c	 add	 DWORD PTR [eax], 28	; 0000001cH

; 111  : 		return (*this);
; 112  : 		}

  00005	c3		 ret	 0
??E?$_Vector_const_iterator@V?$_Vector_val@UTargetInfo@ioRotateTargetWeapon@@V?$allocator@UTargetInfo@ioRotateTargetWeapon@@@std@@@std@@@std@@QAEAAV01@XZ ENDP ; std::_Vector_const_iterator<std::_Vector_val<ioRotateTargetWeapon::TargetInfo,std::allocator<ioRotateTargetWeapon::TargetInfo> > >::operator++
_TEXT	ENDS
PUBLIC	?capacity@?$vector@VioHashString@@V?$allocator@VioHashString@@@std@@@std@@QBEIXZ ; std::vector<ioHashString,std::allocator<ioHashString> >::capacity
; Function compile flags: /Ogsp
;	COMDAT ?capacity@?$vector@VioHashString@@V?$allocator@VioHashString@@@std@@@std@@QBEIXZ
_TEXT	SEGMENT
?capacity@?$vector@VioHashString@@V?$allocator@VioHashString@@@std@@@std@@QBEIXZ PROC ; std::vector<ioHashString,std::allocator<ioHashString> >::capacity, COMDAT
; _this$ = ecx

; 777  : 		return (this->_Myend - this->_Myfirst);

  00000	8b 41 08	 mov	 eax, DWORD PTR [ecx+8]
  00003	2b 01		 sub	 eax, DWORD PTR [ecx]
  00005	c1 f8 04	 sar	 eax, 4

; 778  : 		}

  00008	c3		 ret	 0
?capacity@?$vector@VioHashString@@V?$allocator@VioHashString@@@std@@@std@@QBEIXZ ENDP ; std::vector<ioHashString,std::allocator<ioHashString> >::capacity
_TEXT	ENDS
PUBLIC	?capacity@?$vector@UTargetInfo@ioRotateTargetWeapon@@V?$allocator@UTargetInfo@ioRotateTargetWeapon@@@std@@@std@@QBEIXZ ; std::vector<ioRotateTargetWeapon::TargetInfo,std::allocator<ioRotateTargetWeapon::TargetInfo> >::capacity
; Function compile flags: /Ogsp
;	COMDAT ?capacity@?$vector@UTargetInfo@ioRotateTargetWeapon@@V?$allocator@UTargetInfo@ioRotateTargetWeapon@@@std@@@std@@QBEIXZ
_TEXT	SEGMENT
?capacity@?$vector@UTargetInfo@ioRotateTargetWeapon@@V?$allocator@UTargetInfo@ioRotateTargetWeapon@@@std@@@std@@QBEIXZ PROC ; std::vector<ioRotateTargetWeapon::TargetInfo,std::allocator<ioRotateTargetWeapon::TargetInfo> >::capacity, COMDAT
; _this$ = ecx

; 777  : 		return (this->_Myend - this->_Myfirst);

  00000	8b 41 08	 mov	 eax, DWORD PTR [ecx+8]
  00003	2b 01		 sub	 eax, DWORD PTR [ecx]
  00005	6a 1c		 push	 28			; 0000001cH
  00007	99		 cdq
  00008	59		 pop	 ecx
  00009	f7 f9		 idiv	 ecx

; 778  : 		}

  0000b	c3		 ret	 0
?capacity@?$vector@UTargetInfo@ioRotateTargetWeapon@@V?$allocator@UTargetInfo@ioRotateTargetWeapon@@@std@@@std@@QBEIXZ ENDP ; std::vector<ioRotateTargetWeapon::TargetInfo,std::allocator<ioRotateTargetWeapon::TargetInfo> >::capacity
_TEXT	ENDS
PUBLIC	??_C@_0BD@OLBABOEK@vector?$DMT?$DO?5too?5long?$AA@ ; `string'
PUBLIC	?_Xlen@?$vector@UTargetInfo@ioRotateTargetWeapon@@V?$allocator@UTargetInfo@ioRotateTargetWeapon@@@std@@@std@@IBEXXZ ; std::vector<ioRotateTargetWeapon::TargetInfo,std::allocator<ioRotateTargetWeapon::TargetInfo> >::_Xlen
EXTRN	__imp_?_Xlength_error@std@@YAXPBD@Z:PROC
;	COMDAT ??_C@_0BD@OLBABOEK@vector?$DMT?$DO?5too?5long?$AA@
CONST	SEGMENT
??_C@_0BD@OLBABOEK@vector?$DMT?$DO?5too?5long?$AA@ DB 'vector<T> too long'
	DB	00H						; `string'
; Function compile flags: /Ogsp
CONST	ENDS
;	COMDAT ?_Xlen@?$vector@UTargetInfo@ioRotateTargetWeapon@@V?$allocator@UTargetInfo@ioRotateTargetWeapon@@@std@@@std@@IBEXXZ
_TEXT	SEGMENT
?_Xlen@?$vector@UTargetInfo@ioRotateTargetWeapon@@V?$allocator@UTargetInfo@ioRotateTargetWeapon@@@std@@@std@@IBEXXZ PROC ; std::vector<ioRotateTargetWeapon::TargetInfo,std::allocator<ioRotateTargetWeapon::TargetInfo> >::_Xlen, COMDAT
; _this$ = ecx

; 1427 : 		_Xlength_error("vector<T> too long");

  00000	68 00 00 00 00	 push	 OFFSET ??_C@_0BD@OLBABOEK@vector?$DMT?$DO?5too?5long?$AA@
  00005	ff 15 00 00 00
	00		 call	 DWORD PTR __imp_?_Xlength_error@std@@YAXPBD@Z
$LN4@Xlen:
$LN3@Xlen:
  0000b	cc		 int	 3
?_Xlen@?$vector@UTargetInfo@ioRotateTargetWeapon@@V?$allocator@UTargetInfo@ioRotateTargetWeapon@@@std@@@std@@IBEXXZ ENDP ; std::vector<ioRotateTargetWeapon::TargetInfo,std::allocator<ioRotateTargetWeapon::TargetInfo> >::_Xlen
_TEXT	ENDS
PUBLIC	??0?$allocator@UTargetInfo@ioRotateTargetWeapon@@@std@@QAE@ABV01@@Z ; std::allocator<ioRotateTargetWeapon::TargetInfo>::allocator<ioRotateTargetWeapon::TargetInfo>
; Function compile flags: /Ogsp
; File c:\program files (x86)\microsoft visual studio 10.0\vc\include\xmemory
;	COMDAT ??0?$allocator@UTargetInfo@ioRotateTargetWeapon@@@std@@QAE@ABV01@@Z
_TEXT	SEGMENT
___formal$ = 8						; size = 4
??0?$allocator@UTargetInfo@ioRotateTargetWeapon@@@std@@QAE@ABV01@@Z PROC ; std::allocator<ioRotateTargetWeapon::TargetInfo>::allocator<ioRotateTargetWeapon::TargetInfo>, COMDAT
; _this$ = ecx

; 165  : 	_ALLOCATOR(const _ALLOCATOR<_Ty>&) _THROW0()

  00000	8b c1		 mov	 eax, ecx

; 166  : 		{	// construct by copying (do nothing)
; 167  : 		}

  00002	c2 04 00	 ret	 4
??0?$allocator@UTargetInfo@ioRotateTargetWeapon@@@std@@QAE@ABV01@@Z ENDP ; std::allocator<ioRotateTargetWeapon::TargetInfo>::allocator<ioRotateTargetWeapon::TargetInfo>
_TEXT	ENDS
PUBLIC	?deallocate@?$allocator@UTargetInfo@ioRotateTargetWeapon@@@std@@QAEXPAUTargetInfo@ioRotateTargetWeapon@@I@Z ; std::allocator<ioRotateTargetWeapon::TargetInfo>::deallocate
; Function compile flags: /Ogsp
;	COMDAT ?deallocate@?$allocator@UTargetInfo@ioRotateTargetWeapon@@@std@@QAEXPAUTargetInfo@ioRotateTargetWeapon@@I@Z
_TEXT	SEGMENT
__Ptr$ = 8						; size = 4
___formal$ = 12						; size = 4
?deallocate@?$allocator@UTargetInfo@ioRotateTargetWeapon@@@std@@QAEXPAUTargetInfo@ioRotateTargetWeapon@@I@Z PROC ; std::allocator<ioRotateTargetWeapon::TargetInfo>::deallocate, COMDAT
; _this$ = ecx

; 181  : 		{	// deallocate object at _Ptr, ignore size

  00000	55		 push	 ebp
  00001	8b ec		 mov	 ebp, esp

; 182  : 		::operator delete(_Ptr);

  00003	ff 75 08	 push	 DWORD PTR __Ptr$[ebp]
  00006	e8 00 00 00 00	 call	 ??3@YAXPAX@Z		; operator delete
  0000b	59		 pop	 ecx

; 183  : 		}

  0000c	5d		 pop	 ebp
  0000d	c2 08 00	 ret	 8
?deallocate@?$allocator@UTargetInfo@ioRotateTargetWeapon@@@std@@QAEXPAUTargetInfo@ioRotateTargetWeapon@@I@Z ENDP ; std::allocator<ioRotateTargetWeapon::TargetInfo>::deallocate
_TEXT	ENDS
PUBLIC	??0?$_Vector_const_iterator@V?$_Vector_val@UTargetInfo@ioRotateTargetWeapon@@V?$allocator@UTargetInfo@ioRotateTargetWeapon@@@std@@@std@@@std@@QAE@PAUTargetInfo@ioRotateTargetWeapon@@PBU_Container_base0@1@@Z ; std::_Vector_const_iterator<std::_Vector_val<ioRotateTargetWeapon::TargetInfo,std::allocator<ioRotateTargetWeapon::TargetInfo> > >::_Vector_const_iterator<std::_Vector_val<ioRotateTargetWeapon::TargetInfo,std::allocator<ioRotateTargetWeapon::TargetInfo> > >
; Function compile flags: /Ogsp
; File c:\program files (x86)\microsoft visual studio 10.0\vc\include\vector
;	COMDAT ??0?$_Vector_const_iterator@V?$_Vector_val@UTargetInfo@ioRotateTargetWeapon@@V?$allocator@UTargetInfo@ioRotateTargetWeapon@@@std@@@std@@@std@@QAE@PAUTargetInfo@ioRotateTargetWeapon@@PBU_Container_base0@1@@Z
_TEXT	SEGMENT
__Parg$ = 8						; size = 4
__Pvector$ = 12						; size = 4
??0?$_Vector_const_iterator@V?$_Vector_val@UTargetInfo@ioRotateTargetWeapon@@V?$allocator@UTargetInfo@ioRotateTargetWeapon@@@std@@@std@@@std@@QAE@PAUTargetInfo@ioRotateTargetWeapon@@PBU_Container_base0@1@@Z PROC ; std::_Vector_const_iterator<std::_Vector_val<ioRotateTargetWeapon::TargetInfo,std::allocator<ioRotateTargetWeapon::TargetInfo> > >::_Vector_const_iterator<std::_Vector_val<ioRotateTargetWeapon::TargetInfo,std::allocator<ioRotateTargetWeapon::TargetInfo> > >, COMDAT
; _this$ = ecx

; 45   : 		{	// construct with pointer _Parg

  00000	55		 push	 ebp
  00001	8b ec		 mov	 ebp, esp
  00003	8b c1		 mov	 eax, ecx
  00005	8b 4d 08	 mov	 ecx, DWORD PTR __Parg$[ebp]
  00008	89 08		 mov	 DWORD PTR [eax], ecx

; 46   : 		this->_Adopt(_Pvector);
; 47   : 		}

  0000a	5d		 pop	 ebp
  0000b	c2 08 00	 ret	 8
??0?$_Vector_const_iterator@V?$_Vector_val@UTargetInfo@ioRotateTargetWeapon@@V?$allocator@UTargetInfo@ioRotateTargetWeapon@@@std@@@std@@@std@@QAE@PAUTargetInfo@ioRotateTargetWeapon@@PBU_Container_base0@1@@Z ENDP ; std::_Vector_const_iterator<std::_Vector_val<ioRotateTargetWeapon::TargetInfo,std::allocator<ioRotateTargetWeapon::TargetInfo> > >::_Vector_const_iterator<std::_Vector_val<ioRotateTargetWeapon::TargetInfo,std::allocator<ioRotateTargetWeapon::TargetInfo> > >
_TEXT	ENDS
PUBLIC	?_Compat@?$_Vector_const_iterator@V?$_Vector_val@UTargetInfo@ioRotateTargetWeapon@@V?$allocator@UTargetInfo@ioRotateTargetWeapon@@@std@@@std@@@std@@QBEXABV12@@Z ; std::_Vector_const_iterator<std::_Vector_val<ioRotateTargetWeapon::TargetInfo,std::allocator<ioRotateTargetWeapon::TargetInfo> > >::_Compat
; Function compile flags: /Ogsp
;	COMDAT ?_Compat@?$_Vector_const_iterator@V?$_Vector_val@UTargetInfo@ioRotateTargetWeapon@@V?$allocator@UTargetInfo@ioRotateTargetWeapon@@@std@@@std@@@std@@QBEXABV12@@Z
_TEXT	SEGMENT
___formal$ = 8						; size = 4
?_Compat@?$_Vector_const_iterator@V?$_Vector_val@UTargetInfo@ioRotateTargetWeapon@@V?$allocator@UTargetInfo@ioRotateTargetWeapon@@@std@@@std@@@std@@QBEXABV12@@Z PROC ; std::_Vector_const_iterator<std::_Vector_val<ioRotateTargetWeapon::TargetInfo,std::allocator<ioRotateTargetWeapon::TargetInfo> > >::_Compat, COMDAT
; _this$ = ecx

; 253  : 		}

  00000	c2 04 00	 ret	 4
?_Compat@?$_Vector_const_iterator@V?$_Vector_val@UTargetInfo@ioRotateTargetWeapon@@V?$allocator@UTargetInfo@ioRotateTargetWeapon@@@std@@@std@@@std@@QBEXABV12@@Z ENDP ; std::_Vector_const_iterator<std::_Vector_val<ioRotateTargetWeapon::TargetInfo,std::allocator<ioRotateTargetWeapon::TargetInfo> > >::_Compat
_TEXT	ENDS
PUBLIC	?max_size@?$allocator@UTargetInfo@ioRotateTargetWeapon@@@std@@QBEIXZ ; std::allocator<ioRotateTargetWeapon::TargetInfo>::max_size
; Function compile flags: /Ogsp
; File c:\program files (x86)\microsoft visual studio 10.0\vc\include\xmemory
;	COMDAT ?max_size@?$allocator@UTargetInfo@ioRotateTargetWeapon@@@std@@QBEIXZ
_TEXT	SEGMENT
?max_size@?$allocator@UTargetInfo@ioRotateTargetWeapon@@@std@@QBEIXZ PROC ; std::allocator<ioRotateTargetWeapon::TargetInfo>::max_size, COMDAT
; _this$ = ecx

; 218  : 		_SIZT _Count = (_SIZT)(-1) / sizeof (_Ty);
; 219  : 		return (0 < _Count ? _Count : 1);

  00000	b8 49 92 24 09	 mov	 eax, 153391689		; 09249249H

; 220  : 		}

  00005	c3		 ret	 0
?max_size@?$allocator@UTargetInfo@ioRotateTargetWeapon@@@std@@QBEIXZ ENDP ; std::allocator<ioRotateTargetWeapon::TargetInfo>::max_size
_TEXT	ENDS
PUBLIC	__real@3f91df46a2526c7a
PUBLIC	??$DEGtoRAD@M@@YAMM@Z				; DEGtoRAD<float>
EXTRN	__fltused:DWORD
;	COMDAT __real@3f91df46a2526c7a
; File d:\lost saga for developer\youtube\tutorial\source\src\lsclient\veryoftenusedefine.h
CONST	SEGMENT
__real@3f91df46a2526c7a DQ 03f91df46a2526c7ar	; 0.0174533
; Function compile flags: /Ogsp
CONST	ENDS
;	COMDAT ??$DEGtoRAD@M@@YAMM@Z
_TEXT	SEGMENT
tv129 = 8						; size = 4
_val$ = 8						; size = 4
??$DEGtoRAD@M@@YAMM@Z PROC				; DEGtoRAD<float>, COMDAT

; 20   : type  DEGtoRAD (type val) {return (type) (val * 0.0174532925199);}

  00000	55		 push	 ebp
  00001	8b ec		 mov	 ebp, esp
  00003	d9 45 08	 fld	 DWORD PTR _val$[ebp]
  00006	dc 0d 00 00 00
	00		 fmul	 QWORD PTR __real@3f91df46a2526c7a
  0000c	d9 5d 08	 fstp	 DWORD PTR tv129[ebp]
  0000f	d9 45 08	 fld	 DWORD PTR tv129[ebp]
  00012	5d		 pop	 ebp
  00013	c3		 ret	 0
??$DEGtoRAD@M@@YAMM@Z ENDP				; DEGtoRAD<float>
_TEXT	ENDS
PUBLIC	??$addressof@$$CBVioHashString@@@std@@YAPBVioHashString@@ABV1@@Z ; std::addressof<ioHashString const >
; Function compile flags: /Ogsp
; File c:\program files (x86)\microsoft visual studio 10.0\vc\include\xmemory
;	COMDAT ??$addressof@$$CBVioHashString@@@std@@YAPBVioHashString@@ABV1@@Z
_TEXT	SEGMENT
__Val$ = 8						; size = 4
??$addressof@$$CBVioHashString@@@std@@YAPBVioHashString@@ABV1@@Z PROC ; std::addressof<ioHashString const >, COMDAT

; 110  : 	{	// return address of _Val

  00000	55		 push	 ebp
  00001	8b ec		 mov	 ebp, esp

; 111  : 	return ((_Ty *) &(char&)_Val);

  00003	8b 45 08	 mov	 eax, DWORD PTR __Val$[ebp]

; 112  : 	}

  00006	5d		 pop	 ebp
  00007	c3		 ret	 0
??$addressof@$$CBVioHashString@@@std@@YAPBVioHashString@@ABV1@@Z ENDP ; std::addressof<ioHashString const >
_TEXT	ENDS
PUBLIC	??$addressof@$$CBUTargetInfo@ioRotateTargetWeapon@@@std@@YAPBUTargetInfo@ioRotateTargetWeapon@@ABU12@@Z ; std::addressof<ioRotateTargetWeapon::TargetInfo const >
; Function compile flags: /Ogsp
;	COMDAT ??$addressof@$$CBUTargetInfo@ioRotateTargetWeapon@@@std@@YAPBUTargetInfo@ioRotateTargetWeapon@@ABU12@@Z
_TEXT	SEGMENT
__Val$ = 8						; size = 4
??$addressof@$$CBUTargetInfo@ioRotateTargetWeapon@@@std@@YAPBUTargetInfo@ioRotateTargetWeapon@@ABU12@@Z PROC ; std::addressof<ioRotateTargetWeapon::TargetInfo const >, COMDAT

; 110  : 	{	// return address of _Val

  00000	55		 push	 ebp
  00001	8b ec		 mov	 ebp, esp

; 111  : 	return ((_Ty *) &(char&)_Val);

  00003	8b 45 08	 mov	 eax, DWORD PTR __Val$[ebp]

; 112  : 	}

  00006	5d		 pop	 ebp
  00007	c3		 ret	 0
??$addressof@$$CBUTargetInfo@ioRotateTargetWeapon@@@std@@YAPBUTargetInfo@ioRotateTargetWeapon@@ABU12@@Z ENDP ; std::addressof<ioRotateTargetWeapon::TargetInfo const >
_TEXT	ENDS
PUBLIC	__TI2?AVbad_alloc@std@@
PUBLIC	??$_Allocate@UTargetInfo@ioRotateTargetWeapon@@@std@@YAPAUTargetInfo@ioRotateTargetWeapon@@IPAU12@@Z ; std::_Allocate<ioRotateTargetWeapon::TargetInfo>
PUBLIC	__CTA2?AVbad_alloc@std@@
PUBLIC	__CT??_R0?AVbad_alloc@std@@@8??0bad_alloc@std@@QAE@ABV01@@Z12
PUBLIC	??0bad_alloc@std@@QAE@ABV01@@Z			; std::bad_alloc::bad_alloc
PUBLIC	__CT??_R0?AVexception@std@@@8??0exception@std@@QAE@ABV01@@Z12
EXTRN	??2@YAPAXI@Z:PROC				; operator new
EXTRN	__CxxThrowException@8:PROC
EXTRN	??0exception@std@@QAE@ABV01@@Z:PROC		; std::exception::exception
;	COMDAT __CT??_R0?AVexception@std@@@8??0exception@std@@QAE@ABV01@@Z12
; File c:\program files (x86)\microsoft visual studio 10.0\vc\include\exception
xdata$x	SEGMENT
__CT??_R0?AVexception@std@@@8??0exception@std@@QAE@ABV01@@Z12 DD 00H
	DD	FLAT:??_R0?AVexception@std@@@8
	DD	00H
	DD	0ffffffffH
	ORG $+4
	DD	0cH
	DD	FLAT:??0exception@std@@QAE@ABV01@@Z
xdata$x	ENDS
;	COMDAT __CT??_R0?AVbad_alloc@std@@@8??0bad_alloc@std@@QAE@ABV01@@Z12
xdata$x	SEGMENT
__CT??_R0?AVbad_alloc@std@@@8??0bad_alloc@std@@QAE@ABV01@@Z12 DD 00H
	DD	FLAT:??_R0?AVbad_alloc@std@@@8
	DD	00H
	DD	0ffffffffH
	ORG $+4
	DD	0cH
	DD	FLAT:??0bad_alloc@std@@QAE@ABV01@@Z
xdata$x	ENDS
;	COMDAT __CTA2?AVbad_alloc@std@@
xdata$x	SEGMENT
__CTA2?AVbad_alloc@std@@ DD 02H
	DD	FLAT:__CT??_R0?AVbad_alloc@std@@@8??0bad_alloc@std@@QAE@ABV01@@Z12
	DD	FLAT:__CT??_R0?AVexception@std@@@8??0exception@std@@QAE@ABV01@@Z12
xdata$x	ENDS
;	COMDAT __TI2?AVbad_alloc@std@@
xdata$x	SEGMENT
__TI2?AVbad_alloc@std@@ DD 00H
	DD	FLAT:??1bad_alloc@std@@UAE@XZ
	DD	00H
	DD	FLAT:__CTA2?AVbad_alloc@std@@
; Function compile flags: /Ogsp
; File c:\program files (x86)\microsoft visual studio 10.0\vc\include\xmemory
xdata$x	ENDS
;	COMDAT ??$_Allocate@UTargetInfo@ioRotateTargetWeapon@@@std@@YAPAUTargetInfo@ioRotateTargetWeapon@@IPAU12@@Z
_TEXT	SEGMENT
$T533915 = -12						; size = 12
$T533920 = 8						; size = 4
__Count$ = 8						; size = 4
___formal$ = 12						; size = 4
??$_Allocate@UTargetInfo@ioRotateTargetWeapon@@@std@@YAPAUTargetInfo@ioRotateTargetWeapon@@IPAU12@@Z PROC ; std::_Allocate<ioRotateTargetWeapon::TargetInfo>, COMDAT

; 30   : 	{	// allocate storage for _Count elements of type _Ty

  00000	55		 push	 ebp
  00001	8b ec		 mov	 ebp, esp

; 31   : 	void *_Ptr = 0;
; 32   : 
; 33   : 	if (_Count <= 0)

  00003	8b 4d 08	 mov	 ecx, DWORD PTR __Count$[ebp]
  00006	83 ec 0c	 sub	 esp, 12			; 0000000cH
  00009	33 c0		 xor	 eax, eax
  0000b	85 c9		 test	 ecx, ecx

; 34   : 		_Count = 0;
; 35   : 	else if (((_SIZT)(-1) / sizeof (_Ty) < _Count)

  0000d	74 3c		 je	 SHORT $LN5@Allocate

; 36   : 		|| (_Ptr = ::operator new(_Count * sizeof (_Ty))) == 0)

  0000f	81 f9 49 92 24
	09		 cmp	 ecx, 153391689		; 09249249H
  00015	77 0e		 ja	 SHORT $LN1@Allocate
  00017	6b c9 1c	 imul	 ecx, 28			; 0000001cH
  0001a	51		 push	 ecx
  0001b	e8 00 00 00 00	 call	 ??2@YAPAXI@Z		; operator new
  00020	59		 pop	 ecx
  00021	85 c0		 test	 eax, eax

; 38   : 
; 39   : 	return ((_Ty _FARQ *)_Ptr);

  00023	75 26		 jne	 SHORT $LN5@Allocate
$LN1@Allocate:

; 37   : 		_THROW_NCEE(bad_alloc, 0);

  00025	83 65 08 00	 and	 DWORD PTR $T533920[ebp], 0
  00029	8d 45 08	 lea	 eax, DWORD PTR $T533920[ebp]
  0002c	50		 push	 eax
  0002d	8d 4d f4	 lea	 ecx, DWORD PTR $T533915[ebp]
  00030	ff 15 00 00 00
	00		 call	 DWORD PTR __imp_??0exception@std@@QAE@ABQBD@Z
  00036	68 00 00 00 00	 push	 OFFSET __TI2?AVbad_alloc@std@@
  0003b	8d 45 f4	 lea	 eax, DWORD PTR $T533915[ebp]
  0003e	50		 push	 eax
  0003f	c7 45 f4 00 00
	00 00		 mov	 DWORD PTR $T533915[ebp], OFFSET ??_7bad_alloc@std@@6B@
  00046	e8 00 00 00 00	 call	 __CxxThrowException@8
$LN10@Allocate:
$LN5@Allocate:

; 40   : 	}

  0004b	c9		 leave
  0004c	c3		 ret	 0
$LN9@Allocate:
??$_Allocate@UTargetInfo@ioRotateTargetWeapon@@@std@@YAPAUTargetInfo@ioRotateTargetWeapon@@IPAU12@@Z ENDP ; std::_Allocate<ioRotateTargetWeapon::TargetInfo>
_TEXT	ENDS
PUBLIC	??$forward@AAUTargetInfo@ioRotateTargetWeapon@@@std@@YAAAUTargetInfo@ioRotateTargetWeapon@@AAU12@@Z ; std::forward<ioRotateTargetWeapon::TargetInfo &>
; Function compile flags: /Ogsp
; File c:\program files (x86)\microsoft visual studio 10.0\vc\include\utility
;	COMDAT ??$forward@AAUTargetInfo@ioRotateTargetWeapon@@@std@@YAAAUTargetInfo@ioRotateTargetWeapon@@AAU12@@Z
_TEXT	SEGMENT
__Arg$ = 8						; size = 4
??$forward@AAUTargetInfo@ioRotateTargetWeapon@@@std@@YAAAUTargetInfo@ioRotateTargetWeapon@@AAU12@@Z PROC ; std::forward<ioRotateTargetWeapon::TargetInfo &>, COMDAT

; 78   : 	{	// forward _Arg, given explicitly specified type parameter

  00000	55		 push	 ebp
  00001	8b ec		 mov	 ebp, esp

; 79   : 	return ((_Ty&&)_Arg);

  00003	8b 45 08	 mov	 eax, DWORD PTR __Arg$[ebp]

; 80   : 	}

  00006	5d		 pop	 ebp
  00007	c3		 ret	 0
??$forward@AAUTargetInfo@ioRotateTargetWeapon@@@std@@YAAAUTargetInfo@ioRotateTargetWeapon@@AAU12@@Z ENDP ; std::forward<ioRotateTargetWeapon::TargetInfo &>
_TEXT	ENDS
PUBLIC	??$construct@AAUTargetInfo@ioRotateTargetWeapon@@@?$allocator@UTargetInfo@ioRotateTargetWeapon@@@std@@QAEXPAUTargetInfo@ioRotateTargetWeapon@@AAU23@@Z ; std::allocator<ioRotateTargetWeapon::TargetInfo>::construct<ioRotateTargetWeapon::TargetInfo &>
EXTRN	___CxxFrameHandler3:PROC
EXTRN	@__security_check_cookie@4:PROC
EXTRN	__EH_epilog3:PROC
EXTRN	__EH_prolog3:PROC
;	COMDAT xdata$x
; File d:\lost saga for developer\youtube\tutorial\source\src\lsclient\iorotatetargetweapon.cpp
xdata$x	SEGMENT
__unwindtable$??$construct@AAUTargetInfo@ioRotateTargetWeapon@@@?$allocator@UTargetInfo@ioRotateTargetWeapon@@@std@@QAEXPAUTargetInfo@ioRotateTargetWeapon@@AAU23@@Z DD 0ffffffffH
	DD	FLAT:__unwindfunclet$??$construct@AAUTargetInfo@ioRotateTargetWeapon@@@?$allocator@UTargetInfo@ioRotateTargetWeapon@@@std@@QAEXPAUTargetInfo@ioRotateTargetWeapon@@AAU23@@Z$0
__ehfuncinfo$??$construct@AAUTargetInfo@ioRotateTargetWeapon@@@?$allocator@UTargetInfo@ioRotateTargetWeapon@@@std@@QAEXPAUTargetInfo@ioRotateTargetWeapon@@AAU23@@Z DD 019930522H
	DD	01H
	DD	FLAT:__unwindtable$??$construct@AAUTargetInfo@ioRotateTargetWeapon@@@?$allocator@UTargetInfo@ioRotateTargetWeapon@@@std@@QAEXPAUTargetInfo@ioRotateTargetWeapon@@AAU23@@Z
	DD	2 DUP(00H)
	DD	2 DUP(00H)
	DD	00H
	DD	01H
; Function compile flags: /Ogsp
; File c:\program files (x86)\microsoft visual studio 10.0\vc\include\xmemory
xdata$x	ENDS
;	COMDAT ??$construct@AAUTargetInfo@ioRotateTargetWeapon@@@?$allocator@UTargetInfo@ioRotateTargetWeapon@@@std@@QAEXPAUTargetInfo@ioRotateTargetWeapon@@AAU23@@Z
_TEXT	SEGMENT
$T533928 = -16						; size = 4
__$EHRec$ = -12						; size = 12
__Ptr$ = 8						; size = 4
__Val$ = 12						; size = 4
??$construct@AAUTargetInfo@ioRotateTargetWeapon@@@?$allocator@UTargetInfo@ioRotateTargetWeapon@@@std@@QAEXPAUTargetInfo@ioRotateTargetWeapon@@AAU23@@Z PROC ; std::allocator<ioRotateTargetWeapon::TargetInfo>::construct<ioRotateTargetWeapon::TargetInfo &>, COMDAT
; _this$ = ecx

; 206  : 		void construct(pointer _Ptr, _Other&& _Val)

  00000	6a 04		 push	 4
  00002	b8 00 00 00 00	 mov	 eax, __ehhandler$??$construct@AAUTargetInfo@ioRotateTargetWeapon@@@?$allocator@UTargetInfo@ioRotateTargetWeapon@@@std@@QAEXPAUTargetInfo@ioRotateTargetWeapon@@AAU23@@Z
  00007	e8 00 00 00 00	 call	 __EH_prolog3

; 207  : 		{	// construct object at _Ptr with value _Val
; 208  : 		::new ((void _FARQ *)_Ptr) _Ty(_STD forward<_Other>(_Val));

  0000c	8b 7d 08	 mov	 edi, DWORD PTR __Ptr$[ebp]
  0000f	89 7d f0	 mov	 DWORD PTR $T533928[ebp], edi
  00012	83 65 fc 00	 and	 DWORD PTR __$EHRec$[ebp+8], 0
  00016	85 ff		 test	 edi, edi
  00018	74 15		 je	 SHORT $LN3@construct
  0001a	8b 75 0c	 mov	 esi, DWORD PTR __Val$[ebp]
  0001d	56		 push	 esi
  0001e	8b cf		 mov	 ecx, edi
  00020	ff 15 00 00 00
	00		 call	 DWORD PTR __imp_??0ioHashString@@QAE@ABV0@@Z
  00026	83 c6 10	 add	 esi, 16			; 00000010H
  00029	83 c7 10	 add	 edi, 16			; 00000010H
  0002c	a5		 movsd
  0002d	a5		 movsd
  0002e	a5		 movsd
$LN3@construct:

; 209  : 		}

  0002f	e8 00 00 00 00	 call	 __EH_epilog3
  00034	c2 08 00	 ret	 8
_TEXT	ENDS
;	COMDAT text$x
text$x	SEGMENT
__unwindfunclet$??$construct@AAUTargetInfo@ioRotateTargetWeapon@@@?$allocator@UTargetInfo@ioRotateTargetWeapon@@@std@@QAEXPAUTargetInfo@ioRotateTargetWeapon@@AAU23@@Z$0:
  00000	ff 75 08	 push	 DWORD PTR __Ptr$[ebp]
  00003	ff 75 f0	 push	 DWORD PTR $T533928[ebp]
  00006	e8 00 00 00 00	 call	 ??3@YAXPAX0@Z		; operator delete
  0000b	59		 pop	 ecx
  0000c	59		 pop	 ecx
  0000d	c3		 ret	 0
__ehhandler$??$construct@AAUTargetInfo@ioRotateTargetWeapon@@@?$allocator@UTargetInfo@ioRotateTargetWeapon@@@std@@QAEXPAUTargetInfo@ioRotateTargetWeapon@@AAU23@@Z:
  0000e	8b 54 24 08	 mov	 edx, DWORD PTR [esp+8]
  00012	8d 42 0c	 lea	 eax, DWORD PTR [edx+12]
  00015	8b 4a ec	 mov	 ecx, DWORD PTR [edx-20]
  00018	33 c8		 xor	 ecx, eax
  0001a	e8 00 00 00 00	 call	 @__security_check_cookie@4
  0001f	b8 00 00 00 00	 mov	 eax, OFFSET __ehfuncinfo$??$construct@AAUTargetInfo@ioRotateTargetWeapon@@@?$allocator@UTargetInfo@ioRotateTargetWeapon@@@std@@QAEXPAUTargetInfo@ioRotateTargetWeapon@@AAU23@@Z
  00024	e9 00 00 00 00	 jmp	 ___CxxFrameHandler3
text$x	ENDS
??$construct@AAUTargetInfo@ioRotateTargetWeapon@@@?$allocator@UTargetInfo@ioRotateTargetWeapon@@@std@@QAEXPAUTargetInfo@ioRotateTargetWeapon@@AAU23@@Z ENDP ; std::allocator<ioRotateTargetWeapon::TargetInfo>::construct<ioRotateTargetWeapon::TargetInfo &>
PUBLIC	??$forward@ABUTargetInfo@ioRotateTargetWeapon@@@std@@YAABUTargetInfo@ioRotateTargetWeapon@@ABU12@@Z ; std::forward<ioRotateTargetWeapon::TargetInfo const &>
; Function compile flags: /Ogsp
; File c:\program files (x86)\microsoft visual studio 10.0\vc\include\utility
;	COMDAT ??$forward@ABUTargetInfo@ioRotateTargetWeapon@@@std@@YAABUTargetInfo@ioRotateTargetWeapon@@ABU12@@Z
_TEXT	SEGMENT
__Arg$ = 8						; size = 4
??$forward@ABUTargetInfo@ioRotateTargetWeapon@@@std@@YAABUTargetInfo@ioRotateTargetWeapon@@ABU12@@Z PROC ; std::forward<ioRotateTargetWeapon::TargetInfo const &>, COMDAT

; 78   : 	{	// forward _Arg, given explicitly specified type parameter

  00000	55		 push	 ebp
  00001	8b ec		 mov	 ebp, esp

; 79   : 	return ((_Ty&&)_Arg);

  00003	8b 45 08	 mov	 eax, DWORD PTR __Arg$[ebp]

; 80   : 	}

  00006	5d		 pop	 ebp
  00007	c3		 ret	 0
??$forward@ABUTargetInfo@ioRotateTargetWeapon@@@std@@YAABUTargetInfo@ioRotateTargetWeapon@@ABU12@@Z ENDP ; std::forward<ioRotateTargetWeapon::TargetInfo const &>
_TEXT	ENDS
PUBLIC	??$_Ptr_cat@UTargetInfo@ioRotateTargetWeapon@@U12@@std@@YA?AU_Nonscalar_ptr_iterator_tag@0@PAUTargetInfo@ioRotateTargetWeapon@@0@Z ; std::_Ptr_cat<ioRotateTargetWeapon::TargetInfo,ioRotateTargetWeapon::TargetInfo>
; Function compile flags: /Ogsp
; File c:\program files (x86)\microsoft visual studio 10.0\vc\include\xutility
;	COMDAT ??$_Ptr_cat@UTargetInfo@ioRotateTargetWeapon@@U12@@std@@YA?AU_Nonscalar_ptr_iterator_tag@0@PAUTargetInfo@ioRotateTargetWeapon@@0@Z
_TEXT	SEGMENT
__Cat$ = -1						; size = 1
___formal$ = 8						; size = 4
___formal$ = 12						; size = 4
??$_Ptr_cat@UTargetInfo@ioRotateTargetWeapon@@U12@@std@@YA?AU_Nonscalar_ptr_iterator_tag@0@PAUTargetInfo@ioRotateTargetWeapon@@0@Z PROC ; std::_Ptr_cat<ioRotateTargetWeapon::TargetInfo,ioRotateTargetWeapon::TargetInfo>, COMDAT

; 516  : 	{	// return pointer category from pointers

  00000	55		 push	 ebp
  00001	8b ec		 mov	 ebp, esp
  00003	51		 push	 ecx

; 517  : 	typename _Ptr_cat_helper<_Elem1, _Elem2>::_Type _Cat;
; 518  : 	return (_Cat);

  00004	8a 45 ff	 mov	 al, BYTE PTR __Cat$[ebp]

; 519  : 	}

  00007	c9		 leave
  00008	c3		 ret	 0
??$_Ptr_cat@UTargetInfo@ioRotateTargetWeapon@@U12@@std@@YA?AU_Nonscalar_ptr_iterator_tag@0@PAUTargetInfo@ioRotateTargetWeapon@@0@Z ENDP ; std::_Ptr_cat<ioRotateTargetWeapon::TargetInfo,ioRotateTargetWeapon::TargetInfo>
_TEXT	ENDS
PUBLIC	??$_Construct@UTargetInfo@ioRotateTargetWeapon@@ABU12@@std@@YAXPAUTargetInfo@ioRotateTargetWeapon@@ABU12@@Z ; std::_Construct<ioRotateTargetWeapon::TargetInfo,ioRotateTargetWeapon::TargetInfo const &>
;	COMDAT xdata$x
; File d:\lost saga for developer\youtube\tutorial\source\src\lsclient\iorotatetargetweapon.cpp
xdata$x	SEGMENT
__unwindtable$??$_Construct@UTargetInfo@ioRotateTargetWeapon@@ABU12@@std@@YAXPAUTargetInfo@ioRotateTargetWeapon@@ABU12@@Z DD 0ffffffffH
	DD	FLAT:__unwindfunclet$??$_Construct@UTargetInfo@ioRotateTargetWeapon@@ABU12@@std@@YAXPAUTargetInfo@ioRotateTargetWeapon@@ABU12@@Z$0
__ehfuncinfo$??$_Construct@UTargetInfo@ioRotateTargetWeapon@@ABU12@@std@@YAXPAUTargetInfo@ioRotateTargetWeapon@@ABU12@@Z DD 019930522H
	DD	01H
	DD	FLAT:__unwindtable$??$_Construct@UTargetInfo@ioRotateTargetWeapon@@ABU12@@std@@YAXPAUTargetInfo@ioRotateTargetWeapon@@ABU12@@Z
	DD	2 DUP(00H)
	DD	2 DUP(00H)
	DD	00H
	DD	01H
; Function compile flags: /Ogsp
; File c:\program files (x86)\microsoft visual studio 10.0\vc\include\xmemory
xdata$x	ENDS
;	COMDAT ??$_Construct@UTargetInfo@ioRotateTargetWeapon@@ABU12@@std@@YAXPAUTargetInfo@ioRotateTargetWeapon@@ABU12@@Z
_TEXT	SEGMENT
$T533961 = -16						; size = 4
__$EHRec$ = -12						; size = 12
__Vptr$ = 8						; size = 4
__Ptr$ = 8						; size = 4
__Val$ = 12						; size = 4
??$_Construct@UTargetInfo@ioRotateTargetWeapon@@ABU12@@std@@YAXPAUTargetInfo@ioRotateTargetWeapon@@ABU12@@Z PROC ; std::_Construct<ioRotateTargetWeapon::TargetInfo,ioRotateTargetWeapon::TargetInfo const &>, COMDAT

; 46   : 	{	// construct object at _Ptr with value _Val

  00000	6a 04		 push	 4
  00002	b8 00 00 00 00	 mov	 eax, __ehhandler$??$_Construct@UTargetInfo@ioRotateTargetWeapon@@ABU12@@std@@YAXPAUTargetInfo@ioRotateTargetWeapon@@ABU12@@Z
  00007	e8 00 00 00 00	 call	 __EH_prolog3

; 47   : 	void _FARQ *_Vptr = _Ptr;

  0000c	8b 7d 08	 mov	 edi, DWORD PTR __Ptr$[ebp]
  0000f	89 7d 08	 mov	 DWORD PTR __Vptr$[ebp], edi

; 48   : 	::new (_Vptr) _Ty1(_STD forward<_Ty2>(_Val));

  00012	89 7d f0	 mov	 DWORD PTR $T533961[ebp], edi
  00015	83 65 fc 00	 and	 DWORD PTR __$EHRec$[ebp+8], 0
  00019	85 ff		 test	 edi, edi
  0001b	74 15		 je	 SHORT $LN3@Construct
  0001d	8b 75 0c	 mov	 esi, DWORD PTR __Val$[ebp]
  00020	56		 push	 esi
  00021	8b cf		 mov	 ecx, edi
  00023	ff 15 00 00 00
	00		 call	 DWORD PTR __imp_??0ioHashString@@QAE@ABV0@@Z
  00029	83 c6 10	 add	 esi, 16			; 00000010H
  0002c	83 c7 10	 add	 edi, 16			; 00000010H
  0002f	a5		 movsd
  00030	a5		 movsd
  00031	a5		 movsd
$LN3@Construct:

; 49   : 	}

  00032	e8 00 00 00 00	 call	 __EH_epilog3
  00037	c3		 ret	 0
_TEXT	ENDS
;	COMDAT text$x
text$x	SEGMENT
__unwindfunclet$??$_Construct@UTargetInfo@ioRotateTargetWeapon@@ABU12@@std@@YAXPAUTargetInfo@ioRotateTargetWeapon@@ABU12@@Z$0:
  00000	ff 75 08	 push	 DWORD PTR __Vptr$[ebp]
  00003	ff 75 f0	 push	 DWORD PTR $T533961[ebp]
  00006	e8 00 00 00 00	 call	 ??3@YAXPAX0@Z		; operator delete
  0000b	59		 pop	 ecx
  0000c	59		 pop	 ecx
  0000d	c3		 ret	 0
__ehhandler$??$_Construct@UTargetInfo@ioRotateTargetWeapon@@ABU12@@std@@YAXPAUTargetInfo@ioRotateTargetWeapon@@ABU12@@Z:
  0000e	8b 54 24 08	 mov	 edx, DWORD PTR [esp+8]
  00012	8d 42 0c	 lea	 eax, DWORD PTR [edx+12]
  00015	8b 4a ec	 mov	 ecx, DWORD PTR [edx-20]
  00018	33 c8		 xor	 ecx, eax
  0001a	e8 00 00 00 00	 call	 @__security_check_cookie@4
  0001f	b8 00 00 00 00	 mov	 eax, OFFSET __ehfuncinfo$??$_Construct@UTargetInfo@ioRotateTargetWeapon@@ABU12@@std@@YAXPAUTargetInfo@ioRotateTargetWeapon@@ABU12@@Z
  00024	e9 00 00 00 00	 jmp	 ___CxxFrameHandler3
text$x	ENDS
??$_Construct@UTargetInfo@ioRotateTargetWeapon@@ABU12@@std@@YAXPAUTargetInfo@ioRotateTargetWeapon@@ABU12@@Z ENDP ; std::_Construct<ioRotateTargetWeapon::TargetInfo,ioRotateTargetWeapon::TargetInfo const &>
PUBLIC	??4TargetInfo@ioRotateTargetWeapon@@QAEAAU01@ABU01@@Z ; ioRotateTargetWeapon::TargetInfo::operator=
EXTRN	__imp_??4ioHashString@@QAEAAV0@ABV0@@Z:PROC
; Function compile flags: /Ogsp
;	COMDAT ??4TargetInfo@ioRotateTargetWeapon@@QAEAAU01@ABU01@@Z
_TEXT	SEGMENT
___that$ = 8						; size = 4
??4TargetInfo@ioRotateTargetWeapon@@QAEAAU01@ABU01@@Z PROC ; ioRotateTargetWeapon::TargetInfo::operator=, COMDAT
; _this$ = ecx
  00000	55		 push	 ebp
  00001	8b ec		 mov	 ebp, esp
  00003	53		 push	 ebx
  00004	56		 push	 esi
  00005	8b 75 08	 mov	 esi, DWORD PTR ___that$[ebp]
  00008	57		 push	 edi
  00009	56		 push	 esi
  0000a	8b d9		 mov	 ebx, ecx
  0000c	ff 15 00 00 00
	00		 call	 DWORD PTR __imp_??4ioHashString@@QAEAAV0@ABV0@@Z
  00012	83 c6 10	 add	 esi, 16			; 00000010H
  00015	8d 7b 10	 lea	 edi, DWORD PTR [ebx+16]
  00018	a5		 movsd
  00019	a5		 movsd
  0001a	a5		 movsd
  0001b	5f		 pop	 edi
  0001c	5e		 pop	 esi
  0001d	8b c3		 mov	 eax, ebx
  0001f	5b		 pop	 ebx
  00020	5d		 pop	 ebp
  00021	c2 04 00	 ret	 4
??4TargetInfo@ioRotateTargetWeapon@@QAEAAU01@ABU01@@Z ENDP ; ioRotateTargetWeapon::TargetInfo::operator=
_TEXT	ENDS
PUBLIC	??$move@AAUTargetInfo@ioRotateTargetWeapon@@@std@@YA$$QAUTargetInfo@ioRotateTargetWeapon@@AAU12@@Z ; std::move<ioRotateTargetWeapon::TargetInfo &>
; Function compile flags: /Ogsp
; File c:\program files (x86)\microsoft visual studio 10.0\vc\include\utility
;	COMDAT ??$move@AAUTargetInfo@ioRotateTargetWeapon@@@std@@YA$$QAUTargetInfo@ioRotateTargetWeapon@@AAU12@@Z
_TEXT	SEGMENT
__Arg$ = 8						; size = 4
??$move@AAUTargetInfo@ioRotateTargetWeapon@@@std@@YA$$QAUTargetInfo@ioRotateTargetWeapon@@AAU12@@Z PROC ; std::move<ioRotateTargetWeapon::TargetInfo &>, COMDAT

; 86   : 	{	// forward _Arg as movable

  00000	55		 push	 ebp
  00001	8b ec		 mov	 ebp, esp

; 87   : 	return ((typename tr1::_Remove_reference<_Ty>::_Type&&)_Arg);

  00003	8b 45 08	 mov	 eax, DWORD PTR __Arg$[ebp]

; 88   : 	}

  00006	5d		 pop	 ebp
  00007	c3		 ret	 0
??$move@AAUTargetInfo@ioRotateTargetWeapon@@@std@@YA$$QAUTargetInfo@ioRotateTargetWeapon@@AAU12@@Z ENDP ; std::move<ioRotateTargetWeapon::TargetInfo &>
_TEXT	ENDS
PUBLIC	??$_Val_type@PAVioHashString@@@std@@YAPAVioHashString@@PAV1@@Z ; std::_Val_type<ioHashString *>
; Function compile flags: /Ogsp
; File c:\program files (x86)\microsoft visual studio 10.0\vc\include\xutility
;	COMDAT ??$_Val_type@PAVioHashString@@@std@@YAPAVioHashString@@PAV1@@Z
_TEXT	SEGMENT
___formal$ = 8						; size = 4
??$_Val_type@PAVioHashString@@@std@@YAPAVioHashString@@PAV1@@Z PROC ; std::_Val_type<ioHashString *>, COMDAT

; 790  : 	return (0);

  00000	33 c0		 xor	 eax, eax

; 791  : 	}

  00002	c3		 ret	 0
??$_Val_type@PAVioHashString@@@std@@YAPAVioHashString@@PAV1@@Z ENDP ; std::_Val_type<ioHashString *>
_TEXT	ENDS
PUBLIC	??$_Val_type@PAUTargetInfo@ioRotateTargetWeapon@@@std@@YAPAUTargetInfo@ioRotateTargetWeapon@@PAU12@@Z ; std::_Val_type<ioRotateTargetWeapon::TargetInfo *>
; Function compile flags: /Ogsp
;	COMDAT ??$_Val_type@PAUTargetInfo@ioRotateTargetWeapon@@@std@@YAPAUTargetInfo@ioRotateTargetWeapon@@PAU12@@Z
_TEXT	SEGMENT
___formal$ = 8						; size = 4
??$_Val_type@PAUTargetInfo@ioRotateTargetWeapon@@@std@@YAPAUTargetInfo@ioRotateTargetWeapon@@PAU12@@Z PROC ; std::_Val_type<ioRotateTargetWeapon::TargetInfo *>, COMDAT

; 790  : 	return (0);

  00000	33 c0		 xor	 eax, eax

; 791  : 	}

  00002	c3		 ret	 0
??$_Val_type@PAUTargetInfo@ioRotateTargetWeapon@@@std@@YAPAUTargetInfo@ioRotateTargetWeapon@@PAU12@@Z ENDP ; std::_Val_type<ioRotateTargetWeapon::TargetInfo *>
_TEXT	ENDS
PUBLIC	??_GTargetInfo@ioRotateTargetWeapon@@QAEPAXI@Z	; ioRotateTargetWeapon::TargetInfo::`scalar deleting destructor'
; Function compile flags: /Ogsp
;	COMDAT ??_GTargetInfo@ioRotateTargetWeapon@@QAEPAXI@Z
_TEXT	SEGMENT
___flags$ = 8						; size = 4
??_GTargetInfo@ioRotateTargetWeapon@@QAEPAXI@Z PROC	; ioRotateTargetWeapon::TargetInfo::`scalar deleting destructor', COMDAT
; _this$ = ecx
  00000	55		 push	 ebp
  00001	8b ec		 mov	 ebp, esp
  00003	56		 push	 esi
  00004	8b f1		 mov	 esi, ecx
  00006	ff 15 00 00 00
	00		 call	 DWORD PTR __imp_??1ioHashString@@QAE@XZ
  0000c	f6 45 08 01	 test	 BYTE PTR ___flags$[ebp], 1
  00010	74 07		 je	 SHORT $LN1@scalar@2
  00012	56		 push	 esi
  00013	e8 00 00 00 00	 call	 ??3@YAXPAX@Z		; operator delete
  00018	59		 pop	 ecx
$LN1@scalar@2:
  00019	8b c6		 mov	 eax, esi
  0001b	5e		 pop	 esi
  0001c	5d		 pop	 ebp
  0001d	c2 04 00	 ret	 4
??_GTargetInfo@ioRotateTargetWeapon@@QAEPAXI@Z ENDP	; ioRotateTargetWeapon::TargetInfo::`scalar deleting destructor'
_TEXT	ENDS
PUBLIC	??$forward@VioHashString@@@std@@YA$$QAVioHashString@@AAV1@@Z ; std::forward<ioHashString>
; Function compile flags: /Ogsp
; File c:\program files (x86)\microsoft visual studio 10.0\vc\include\utility
;	COMDAT ??$forward@VioHashString@@@std@@YA$$QAVioHashString@@AAV1@@Z
_TEXT	SEGMENT
__Arg$ = 8						; size = 4
??$forward@VioHashString@@@std@@YA$$QAVioHashString@@AAV1@@Z PROC ; std::forward<ioHashString>, COMDAT

; 78   : 	{	// forward _Arg, given explicitly specified type parameter

  00000	55		 push	 ebp
  00001	8b ec		 mov	 ebp, esp

; 79   : 	return ((_Ty&&)_Arg);

  00003	8b 45 08	 mov	 eax, DWORD PTR __Arg$[ebp]

; 80   : 	}

  00006	5d		 pop	 ebp
  00007	c3		 ret	 0
??$forward@VioHashString@@@std@@YA$$QAVioHashString@@AAV1@@Z ENDP ; std::forward<ioHashString>
_TEXT	ENDS
PUBLIC	??$forward@UTargetInfo@ioRotateTargetWeapon@@@std@@YA$$QAUTargetInfo@ioRotateTargetWeapon@@AAU12@@Z ; std::forward<ioRotateTargetWeapon::TargetInfo>
; Function compile flags: /Ogsp
;	COMDAT ??$forward@UTargetInfo@ioRotateTargetWeapon@@@std@@YA$$QAUTargetInfo@ioRotateTargetWeapon@@AAU12@@Z
_TEXT	SEGMENT
__Arg$ = 8						; size = 4
??$forward@UTargetInfo@ioRotateTargetWeapon@@@std@@YA$$QAUTargetInfo@ioRotateTargetWeapon@@AAU12@@Z PROC ; std::forward<ioRotateTargetWeapon::TargetInfo>, COMDAT

; 78   : 	{	// forward _Arg, given explicitly specified type parameter

  00000	55		 push	 ebp
  00001	8b ec		 mov	 ebp, esp

; 79   : 	return ((_Ty&&)_Arg);

  00003	8b 45 08	 mov	 eax, DWORD PTR __Arg$[ebp]

; 80   : 	}

  00006	5d		 pop	 ebp
  00007	c3		 ret	 0
??$forward@UTargetInfo@ioRotateTargetWeapon@@@std@@YA$$QAUTargetInfo@ioRotateTargetWeapon@@AAU12@@Z ENDP ; std::forward<ioRotateTargetWeapon::TargetInfo>
_TEXT	ENDS
PUBLIC	??0D3DXVECTOR3@@QAE@XZ				; D3DXVECTOR3::D3DXVECTOR3
; Function compile flags: /Ogsp
; File c:\program files (x86)\microsoft directx sdk (june 2010)\include\d3dx9math.h
;	COMDAT ??0D3DXVECTOR3@@QAE@XZ
_TEXT	SEGMENT
??0D3DXVECTOR3@@QAE@XZ PROC				; D3DXVECTOR3::D3DXVECTOR3, COMDAT
; _this$ = ecx

; 165  :     D3DXVECTOR3() {};

  00000	8b c1		 mov	 eax, ecx
  00002	c3		 ret	 0
??0D3DXVECTOR3@@QAE@XZ ENDP				; D3DXVECTOR3::D3DXVECTOR3
_TEXT	ENDS
PUBLIC	??0D3DXQUATERNION@@QAE@XZ			; D3DXQUATERNION::D3DXQUATERNION
; Function compile flags: /Ogsp
;	COMDAT ??0D3DXQUATERNION@@QAE@XZ
_TEXT	SEGMENT
??0D3DXQUATERNION@@QAE@XZ PROC				; D3DXQUATERNION::D3DXQUATERNION, COMDAT
; _this$ = ecx

; 429  :     D3DXQUATERNION() {}

  00000	8b c1		 mov	 eax, ecx
  00002	c3		 ret	 0
??0D3DXQUATERNION@@QAE@XZ ENDP				; D3DXQUATERNION::D3DXQUATERNION
_TEXT	ENDS
PUBLIC	??0D3DXVECTOR3@@QAE@MMM@Z			; D3DXVECTOR3::D3DXVECTOR3
; Function compile flags: /Ogsp
; File c:\program files (x86)\microsoft directx sdk (june 2010)\include\d3dx9math.inl
;	COMDAT ??0D3DXVECTOR3@@QAE@MMM@Z
_TEXT	SEGMENT
_fx$ = 8						; size = 4
_fy$ = 12						; size = 4
_fz$ = 16						; size = 4
??0D3DXVECTOR3@@QAE@MMM@Z PROC				; D3DXVECTOR3::D3DXVECTOR3, COMDAT
; _this$ = ecx

; 303  : {

  00000	55		 push	 ebp
  00001	8b ec		 mov	 ebp, esp

; 304  :     x = fx;

  00003	f3 0f 10 45 08	 movss	 xmm0, DWORD PTR _fx$[ebp]
  00008	8b c1		 mov	 eax, ecx
  0000a	f3 0f 11 00	 movss	 DWORD PTR [eax], xmm0

; 305  :     y = fy;

  0000e	f3 0f 10 45 0c	 movss	 xmm0, DWORD PTR _fy$[ebp]
  00013	f3 0f 11 40 04	 movss	 DWORD PTR [eax+4], xmm0

; 306  :     z = fz;

  00018	f3 0f 10 45 10	 movss	 xmm0, DWORD PTR _fz$[ebp]
  0001d	f3 0f 11 40 08	 movss	 DWORD PTR [eax+8], xmm0

; 307  : }

  00022	5d		 pop	 ebp
  00023	c2 0c 00	 ret	 12			; 0000000cH
??0D3DXVECTOR3@@QAE@MMM@Z ENDP				; D3DXVECTOR3::D3DXVECTOR3
_TEXT	ENDS
PUBLIC	??YD3DXVECTOR3@@QAEAAU0@ABU0@@Z			; D3DXVECTOR3::operator+=
; Function compile flags: /Ogsp
;	COMDAT ??YD3DXVECTOR3@@QAEAAU0@ABU0@@Z
_TEXT	SEGMENT
_v$ = 8							; size = 4
??YD3DXVECTOR3@@QAEAAU0@ABU0@@Z PROC			; D3DXVECTOR3::operator+=, COMDAT
; _this$ = ecx

; 327  : {

  00000	55		 push	 ebp
  00001	8b ec		 mov	 ebp, esp
  00003	8b c1		 mov	 eax, ecx

; 328  :     x += v.x;

  00005	8b 4d 08	 mov	 ecx, DWORD PTR _v$[ebp]
  00008	f3 0f 10 01	 movss	 xmm0, DWORD PTR [ecx]
  0000c	f3 0f 10 08	 movss	 xmm1, DWORD PTR [eax]
  00010	0f 5a c0	 cvtps2pd xmm0, xmm0
  00013	0f 5a c9	 cvtps2pd xmm1, xmm1
  00016	f2 0f 58 c1	 addsd	 xmm0, xmm1

; 329  :     y += v.y;

  0001a	f3 0f 10 48 04	 movss	 xmm1, DWORD PTR [eax+4]
  0001f	66 0f 5a c0	 cvtpd2ps xmm0, xmm0
  00023	f3 0f 11 00	 movss	 DWORD PTR [eax], xmm0
  00027	f3 0f 10 41 04	 movss	 xmm0, DWORD PTR [ecx+4]
  0002c	0f 5a c0	 cvtps2pd xmm0, xmm0
  0002f	0f 5a c9	 cvtps2pd xmm1, xmm1
  00032	f2 0f 58 c1	 addsd	 xmm0, xmm1

; 330  :     z += v.z;

  00036	f3 0f 10 48 08	 movss	 xmm1, DWORD PTR [eax+8]
  0003b	66 0f 5a c0	 cvtpd2ps xmm0, xmm0
  0003f	f3 0f 11 40 04	 movss	 DWORD PTR [eax+4], xmm0
  00044	f3 0f 10 41 08	 movss	 xmm0, DWORD PTR [ecx+8]
  00049	0f 5a c0	 cvtps2pd xmm0, xmm0
  0004c	0f 5a c9	 cvtps2pd xmm1, xmm1
  0004f	f2 0f 58 c1	 addsd	 xmm0, xmm1
  00053	66 0f 5a c0	 cvtpd2ps xmm0, xmm0
  00057	f3 0f 11 40 08	 movss	 DWORD PTR [eax+8], xmm0

; 331  :     return *this;
; 332  : }

  0005c	5d		 pop	 ebp
  0005d	c2 04 00	 ret	 4
??YD3DXVECTOR3@@QAEAAU0@ABU0@@Z ENDP			; D3DXVECTOR3::operator+=
_TEXT	ENDS
PUBLIC	__mask@@NegFloat@
PUBLIC	??GD3DXVECTOR3@@QBE?AU0@XZ			; D3DXVECTOR3::operator-
;	COMDAT __mask@@NegFloat@
CONST	SEGMENT
__mask@@NegFloat@ DB 00H, 00H, 00H, 080H, 00H, 00H, 00H, 080H, 00H, 00H, 00H
	DB	080H, 00H, 00H, 00H, 080H
; Function compile flags: /Ogsp
CONST	ENDS
;	COMDAT ??GD3DXVECTOR3@@QBE?AU0@XZ
_TEXT	SEGMENT
___$ReturnUdt$ = 8					; size = 4
??GD3DXVECTOR3@@QBE?AU0@XZ PROC				; D3DXVECTOR3::operator-, COMDAT
; _this$ = ecx

; 372  : {

  00000	55		 push	 ebp
  00001	8b ec		 mov	 ebp, esp

; 373  :     return D3DXVECTOR3(-x, -y, -z);

  00003	f3 0f 10 05 00
	00 00 00	 movss	 xmm0, DWORD PTR __mask@@NegFloat@
  0000b	8b 45 08	 mov	 eax, DWORD PTR ___$ReturnUdt$[ebp]
  0000e	f3 0f 10 09	 movss	 xmm1, DWORD PTR [ecx]
  00012	0f 57 c8	 xorps	 xmm1, xmm0
  00015	f3 0f 11 08	 movss	 DWORD PTR [eax], xmm1
  00019	f3 0f 10 49 04	 movss	 xmm1, DWORD PTR [ecx+4]
  0001e	0f 57 c8	 xorps	 xmm1, xmm0
  00021	f3 0f 11 48 04	 movss	 DWORD PTR [eax+4], xmm1
  00026	f3 0f 10 49 08	 movss	 xmm1, DWORD PTR [ecx+8]
  0002b	0f 57 c8	 xorps	 xmm1, xmm0
  0002e	f3 0f 11 48 08	 movss	 DWORD PTR [eax+8], xmm1

; 374  : }

  00033	5d		 pop	 ebp
  00034	c2 04 00	 ret	 4
??GD3DXVECTOR3@@QBE?AU0@XZ ENDP				; D3DXVECTOR3::operator-
_TEXT	ENDS
PUBLIC	??HD3DXVECTOR3@@QBE?AU0@ABU0@@Z			; D3DXVECTOR3::operator+
; Function compile flags: /Ogsp
;	COMDAT ??HD3DXVECTOR3@@QBE?AU0@ABU0@@Z
_TEXT	SEGMENT
___$ReturnUdt$ = 8					; size = 4
_v$ = 12						; size = 4
??HD3DXVECTOR3@@QBE?AU0@ABU0@@Z PROC			; D3DXVECTOR3::operator+, COMDAT
; _this$ = ecx

; 380  : {

  00000	55		 push	 ebp
  00001	8b ec		 mov	 ebp, esp

; 381  :     return D3DXVECTOR3(x + v.x, y + v.y, z + v.z);

  00003	8b 55 0c	 mov	 edx, DWORD PTR _v$[ebp]
  00006	f3 0f 10 02	 movss	 xmm0, DWORD PTR [edx]
  0000a	f3 0f 10 09	 movss	 xmm1, DWORD PTR [ecx]
  0000e	8b 45 08	 mov	 eax, DWORD PTR ___$ReturnUdt$[ebp]
  00011	0f 5a c0	 cvtps2pd xmm0, xmm0
  00014	0f 5a c9	 cvtps2pd xmm1, xmm1
  00017	f2 0f 58 c1	 addsd	 xmm0, xmm1
  0001b	f3 0f 10 49 04	 movss	 xmm1, DWORD PTR [ecx+4]
  00020	66 0f 5a c0	 cvtpd2ps xmm0, xmm0
  00024	f3 0f 11 00	 movss	 DWORD PTR [eax], xmm0
  00028	f3 0f 10 42 04	 movss	 xmm0, DWORD PTR [edx+4]
  0002d	0f 5a c0	 cvtps2pd xmm0, xmm0
  00030	0f 5a c9	 cvtps2pd xmm1, xmm1
  00033	f2 0f 58 c1	 addsd	 xmm0, xmm1
  00037	f3 0f 10 49 08	 movss	 xmm1, DWORD PTR [ecx+8]
  0003c	66 0f 5a c0	 cvtpd2ps xmm0, xmm0
  00040	f3 0f 11 40 04	 movss	 DWORD PTR [eax+4], xmm0
  00045	f3 0f 10 42 08	 movss	 xmm0, DWORD PTR [edx+8]
  0004a	0f 5a c0	 cvtps2pd xmm0, xmm0
  0004d	0f 5a c9	 cvtps2pd xmm1, xmm1
  00050	f2 0f 58 c1	 addsd	 xmm0, xmm1
  00054	66 0f 5a c0	 cvtpd2ps xmm0, xmm0
  00058	f3 0f 11 40 08	 movss	 DWORD PTR [eax+8], xmm0

; 382  : }

  0005d	5d		 pop	 ebp
  0005e	c2 08 00	 ret	 8
??HD3DXVECTOR3@@QBE?AU0@ABU0@@Z ENDP			; D3DXVECTOR3::operator+
_TEXT	ENDS
PUBLIC	??GD3DXVECTOR3@@QBE?AU0@ABU0@@Z			; D3DXVECTOR3::operator-
; Function compile flags: /Ogsp
;	COMDAT ??GD3DXVECTOR3@@QBE?AU0@ABU0@@Z
_TEXT	SEGMENT
___$ReturnUdt$ = 8					; size = 4
_v$ = 12						; size = 4
??GD3DXVECTOR3@@QBE?AU0@ABU0@@Z PROC			; D3DXVECTOR3::operator-, COMDAT
; _this$ = ecx

; 386  : {

  00000	55		 push	 ebp
  00001	8b ec		 mov	 ebp, esp

; 387  :     return D3DXVECTOR3(x - v.x, y - v.y, z - v.z);

  00003	8b 55 0c	 mov	 edx, DWORD PTR _v$[ebp]
  00006	f3 0f 10 01	 movss	 xmm0, DWORD PTR [ecx]
  0000a	f3 0f 10 0a	 movss	 xmm1, DWORD PTR [edx]
  0000e	8b 45 08	 mov	 eax, DWORD PTR ___$ReturnUdt$[ebp]
  00011	0f 5a c0	 cvtps2pd xmm0, xmm0
  00014	0f 5a c9	 cvtps2pd xmm1, xmm1
  00017	f2 0f 5c c1	 subsd	 xmm0, xmm1
  0001b	f3 0f 10 4a 04	 movss	 xmm1, DWORD PTR [edx+4]
  00020	66 0f 5a c0	 cvtpd2ps xmm0, xmm0
  00024	f3 0f 11 00	 movss	 DWORD PTR [eax], xmm0
  00028	f3 0f 10 41 04	 movss	 xmm0, DWORD PTR [ecx+4]
  0002d	0f 5a c0	 cvtps2pd xmm0, xmm0
  00030	0f 5a c9	 cvtps2pd xmm1, xmm1
  00033	f2 0f 5c c1	 subsd	 xmm0, xmm1
  00037	f3 0f 10 4a 08	 movss	 xmm1, DWORD PTR [edx+8]
  0003c	66 0f 5a c0	 cvtpd2ps xmm0, xmm0
  00040	f3 0f 11 40 04	 movss	 DWORD PTR [eax+4], xmm0
  00045	f3 0f 10 41 08	 movss	 xmm0, DWORD PTR [ecx+8]
  0004a	0f 5a c0	 cvtps2pd xmm0, xmm0
  0004d	0f 5a c9	 cvtps2pd xmm1, xmm1
  00050	f2 0f 5c c1	 subsd	 xmm0, xmm1
  00054	66 0f 5a c0	 cvtpd2ps xmm0, xmm0
  00058	f3 0f 11 40 08	 movss	 DWORD PTR [eax+8], xmm0

; 388  : }

  0005d	5d		 pop	 ebp
  0005e	c2 08 00	 ret	 8
??GD3DXVECTOR3@@QBE?AU0@ABU0@@Z ENDP			; D3DXVECTOR3::operator-
_TEXT	ENDS
PUBLIC	??DD3DXVECTOR3@@QBE?AU0@M@Z			; D3DXVECTOR3::operator*
; Function compile flags: /Ogsp
;	COMDAT ??DD3DXVECTOR3@@QBE?AU0@M@Z
_TEXT	SEGMENT
___$ReturnUdt$ = 8					; size = 4
_f$ = 12						; size = 4
??DD3DXVECTOR3@@QBE?AU0@M@Z PROC			; D3DXVECTOR3::operator*, COMDAT
; _this$ = ecx

; 392  : {

  00000	55		 push	 ebp
  00001	8b ec		 mov	 ebp, esp

; 393  :     return D3DXVECTOR3(x * f, y * f, z * f);

  00003	f3 0f 10 4d 0c	 movss	 xmm1, DWORD PTR _f$[ebp]
  00008	f3 0f 10 01	 movss	 xmm0, DWORD PTR [ecx]
  0000c	8b 45 08	 mov	 eax, DWORD PTR ___$ReturnUdt$[ebp]
  0000f	0f 5a c0	 cvtps2pd xmm0, xmm0
  00012	0f 5a c9	 cvtps2pd xmm1, xmm1
  00015	f2 0f 59 c1	 mulsd	 xmm0, xmm1
  00019	f3 0f 10 4d 0c	 movss	 xmm1, DWORD PTR _f$[ebp]
  0001e	66 0f 5a c0	 cvtpd2ps xmm0, xmm0
  00022	f3 0f 11 00	 movss	 DWORD PTR [eax], xmm0
  00026	f3 0f 10 41 04	 movss	 xmm0, DWORD PTR [ecx+4]
  0002b	0f 5a c0	 cvtps2pd xmm0, xmm0
  0002e	0f 5a c9	 cvtps2pd xmm1, xmm1
  00031	f2 0f 59 c1	 mulsd	 xmm0, xmm1
  00035	f3 0f 10 4d 0c	 movss	 xmm1, DWORD PTR _f$[ebp]
  0003a	66 0f 5a c0	 cvtpd2ps xmm0, xmm0
  0003e	f3 0f 11 40 04	 movss	 DWORD PTR [eax+4], xmm0
  00043	f3 0f 10 41 08	 movss	 xmm0, DWORD PTR [ecx+8]
  00048	0f 5a c0	 cvtps2pd xmm0, xmm0
  0004b	0f 5a c9	 cvtps2pd xmm1, xmm1
  0004e	f2 0f 59 c1	 mulsd	 xmm0, xmm1
  00052	66 0f 5a c0	 cvtpd2ps xmm0, xmm0
  00056	f3 0f 11 40 08	 movss	 DWORD PTR [eax+8], xmm0

; 394  : }

  0005b	5d		 pop	 ebp
  0005c	c2 08 00	 ret	 8
??DD3DXVECTOR3@@QBE?AU0@M@Z ENDP			; D3DXVECTOR3::operator*
_TEXT	ENDS
PUBLIC	?_DECSTR@@YAXPADH@Z				; _DECSTR
; Function compile flags: /Ogsp
; File d:\lost saga for developer\youtube\tutorial\source\src\lsclient\stringprotect.h
;	COMDAT ?_DECSTR@@YAXPADH@Z
_TEXT	SEGMENT
_s$ = 8							; size = 4
_l$ = 12						; size = 4
?_DECSTR@@YAXPADH@Z PROC				; _DECSTR, COMDAT

; 40   : __forceinline void _DECSTR(char* s, int l){int i=0,l4=(l-1)/4,*p=(int*)s;s[l-1]=0;for(;i<l4;++i)*(p++)^=0xEAEBECED;for(i=l4*4;i<l-1;++i)s[i]^=0xED-i%4;}

  00000	55		 push	 ebp
  00001	8b ec		 mov	 ebp, esp
  00003	8b 4d 0c	 mov	 ecx, DWORD PTR _l$[ebp]
  00006	56		 push	 esi
  00007	8b 75 08	 mov	 esi, DWORD PTR _s$[ebp]
  0000a	57		 push	 edi
  0000b	8d 79 ff	 lea	 edi, DWORD PTR [ecx-1]
  0000e	8b c7		 mov	 eax, edi
  00010	99		 cdq
  00011	83 e2 03	 and	 edx, 3
  00014	03 c2		 add	 eax, edx
  00016	c1 f8 02	 sar	 eax, 2
  00019	8b d6		 mov	 edx, esi
  0001b	c6 44 0e ff 00	 mov	 BYTE PTR [esi+ecx-1], 0
  00020	85 c0		 test	 eax, eax
  00022	7e 0e		 jle	 SHORT $LN4@DECSTR
  00024	8b c8		 mov	 ecx, eax
$LL6@DECSTR:
  00026	81 32 ed ec eb
	ea		 xor	 DWORD PTR [edx], -353637139 ; eaebecedH
  0002c	83 c2 04	 add	 edx, 4
  0002f	49		 dec	 ecx
  00030	75 f4		 jne	 SHORT $LL6@DECSTR
$LN4@DECSTR:
  00032	c1 e0 02	 shl	 eax, 2
  00035	eb 17		 jmp	 SHORT $LN14@DECSTR
$LL3@DECSTR:
  00037	8b c8		 mov	 ecx, eax
  00039	81 e1 03 00 00
	80		 and	 ecx, -2147483645	; 80000003H
  0003f	79 05		 jns	 SHORT $LN13@DECSTR
  00041	49		 dec	 ecx
  00042	83 c9 fc	 or	 ecx, -4			; fffffffcH
  00045	41		 inc	 ecx
$LN13@DECSTR:
  00046	b2 ed		 mov	 dl, -19			; ffffffedH
  00048	2a d1		 sub	 dl, cl
  0004a	30 14 30	 xor	 BYTE PTR [eax+esi], dl
  0004d	40		 inc	 eax
$LN14@DECSTR:
  0004e	3b c7		 cmp	 eax, edi
  00050	7c e5		 jl	 SHORT $LL3@DECSTR
  00052	5f		 pop	 edi
  00053	5e		 pop	 esi
  00054	5d		 pop	 ebp
  00055	c3		 ret	 0
?_DECSTR@@YAXPADH@Z ENDP				; _DECSTR
_TEXT	ENDS
PUBLIC	??_R0?AVioGameEntity@@@8			; ioGameEntity `RTTI Type Descriptor'
PUBLIC	??_R0?AVioPlayEntity@@@8			; ioPlayEntity `RTTI Type Descriptor'
PUBLIC	?ToPlayEntity@@YAPAVioPlayEntity@@PAVioGameEntity@@@Z ; ToPlayEntity
EXTRN	___RTDynamicCast:PROC
;	COMDAT ??_R0?AVioGameEntity@@@8
; File d:\lost saga for developer\youtube\tutorial\source\src\lsclient\ioplayentity.h
_DATA	SEGMENT
??_R0?AVioGameEntity@@@8 DD FLAT:??_7type_info@@6B@	; ioGameEntity `RTTI Type Descriptor'
	DD	00H
	DB	'.?AVioGameEntity@@', 00H
_DATA	ENDS
;	COMDAT ??_R0?AVioPlayEntity@@@8
_DATA	SEGMENT
??_R0?AVioPlayEntity@@@8 DD FLAT:??_7type_info@@6B@	; ioPlayEntity `RTTI Type Descriptor'
	DD	00H
	DB	'.?AVioPlayEntity@@', 00H
; Function compile flags: /Ogsp
_DATA	ENDS
;	COMDAT ?ToPlayEntity@@YAPAVioPlayEntity@@PAVioGameEntity@@@Z
_TEXT	SEGMENT
_pObj$ = 8						; size = 4
?ToPlayEntity@@YAPAVioPlayEntity@@PAVioGameEntity@@@Z PROC ; ToPlayEntity, COMDAT

; 121  : {

  00000	55		 push	 ebp
  00001	8b ec		 mov	 ebp, esp
  00003	56		 push	 esi

; 122  : 	if( !pObj || pObj->GetTypeID() != ioGameEntity::GET_PLAY_ENTITY )

  00004	8b 75 08	 mov	 esi, DWORD PTR _pObj$[ebp]
  00007	85 f6		 test	 esi, esi
  00009	74 25		 je	 SHORT $LN1@ToPlayEnti
  0000b	8b 06		 mov	 eax, DWORD PTR [esi]
  0000d	8b ce		 mov	 ecx, esi
  0000f	ff 50 10	 call	 DWORD PTR [eax+16]
  00012	83 f8 01	 cmp	 eax, 1
  00015	75 19		 jne	 SHORT $LN1@ToPlayEnti

; 124  : 
; 125  : 	return dynamic_cast< ioPlayEntity* >( pObj );

  00017	6a 00		 push	 0
  00019	68 00 00 00 00	 push	 OFFSET ??_R0?AVioPlayEntity@@@8
  0001e	68 00 00 00 00	 push	 OFFSET ??_R0?AVioGameEntity@@@8
  00023	6a 00		 push	 0
  00025	56		 push	 esi
  00026	e8 00 00 00 00	 call	 ___RTDynamicCast
  0002b	83 c4 14	 add	 esp, 20			; 00000014H
  0002e	eb 02		 jmp	 SHORT $LN3@ToPlayEnti
$LN1@ToPlayEnti:

; 123  : 		return NULL;

  00030	33 c0		 xor	 eax, eax
$LN3@ToPlayEnti:
  00032	5e		 pop	 esi

; 126  : }

  00033	5d		 pop	 ebp
  00034	c3		 ret	 0
?ToPlayEntity@@YAPAVioPlayEntity@@PAVioGameEntity@@@Z ENDP ; ToPlayEntity
_TEXT	ENDS
PUBLIC	?GetWeaponIndex@ioWeapon@@QBEKXZ		; ioWeapon::GetWeaponIndex
; Function compile flags: /Ogsp
; File d:\lost saga for developer\youtube\tutorial\source\src\lsclient\ioweapon.h
;	COMDAT ?GetWeaponIndex@ioWeapon@@QBEKXZ
_TEXT	SEGMENT
?GetWeaponIndex@ioWeapon@@QBEKXZ PROC			; ioWeapon::GetWeaponIndex, COMDAT
; _this$ = ecx

; 536  : 	inline DWORD GetWeaponIndex() const { return m_dwWeaponIdx; }

  00000	8b 81 b8 04 00
	00		 mov	 eax, DWORD PTR [ecx+1208]
  00006	c3		 ret	 0
?GetWeaponIndex@ioWeapon@@QBEKXZ ENDP			; ioWeapon::GetWeaponIndex
_TEXT	ENDS
PUBLIC	?GetOwnerName@ioWeapon@@QBEABVioHashString@@XZ	; ioWeapon::GetOwnerName
; Function compile flags: /Ogsp
;	COMDAT ?GetOwnerName@ioWeapon@@QBEABVioHashString@@XZ
_TEXT	SEGMENT
?GetOwnerName@ioWeapon@@QBEABVioHashString@@XZ PROC	; ioWeapon::GetOwnerName, COMDAT
; _this$ = ecx

; 636  : 	inline const ioHashString& GetOwnerName() const { return m_OwnerName; }

  00000	8d 41 10	 lea	 eax, DWORD PTR [ecx+16]
  00003	c3		 ret	 0
?GetOwnerName@ioWeapon@@QBEABVioHashString@@XZ ENDP	; ioWeapon::GetOwnerName
_TEXT	ENDS
PUBLIC	?GetCreateItem@ioWeapon@@QBEABVioHashString@@XZ	; ioWeapon::GetCreateItem
; Function compile flags: /Ogsp
;	COMDAT ?GetCreateItem@ioWeapon@@QBEABVioHashString@@XZ
_TEXT	SEGMENT
?GetCreateItem@ioWeapon@@QBEABVioHashString@@XZ PROC	; ioWeapon::GetCreateItem, COMDAT
; _this$ = ecx

; 637  : 	inline const ioHashString& GetCreateItem() const { return m_CreateItem; }

  00000	8d 41 20	 lea	 eax, DWORD PTR [ecx+32]
  00003	c3		 ret	 0
?GetCreateItem@ioWeapon@@QBEABVioHashString@@XZ ENDP	; ioWeapon::GetCreateItem
_TEXT	ENDS
PUBLIC	?size@?$vector@VioHashString@@V?$allocator@VioHashString@@@std@@@std@@QBEIXZ ; std::vector<ioHashString,std::allocator<ioHashString> >::size
; Function compile flags: /Ogsp
; File c:\program files (x86)\microsoft visual studio 10.0\vc\include\vector
;	COMDAT ?size@?$vector@VioHashString@@V?$allocator@VioHashString@@@std@@@std@@QBEIXZ
_TEXT	SEGMENT
?size@?$vector@VioHashString@@V?$allocator@VioHashString@@@std@@@std@@QBEIXZ PROC ; std::vector<ioHashString,std::allocator<ioHashString> >::size, COMDAT
; _this$ = ecx

; 879  : 		return (this->_Mylast - this->_Myfirst);

  00000	8b 41 04	 mov	 eax, DWORD PTR [ecx+4]
  00003	2b 01		 sub	 eax, DWORD PTR [ecx]
  00005	c1 f8 04	 sar	 eax, 4

; 880  : 		}

  00008	c3		 ret	 0
?size@?$vector@VioHashString@@V?$allocator@VioHashString@@@std@@@std@@QBEIXZ ENDP ; std::vector<ioHashString,std::allocator<ioHashString> >::size
_TEXT	ENDS
PUBLIC	??_7?$CEncrypt@M@@6B@				; CEncrypt<float>::`vftable'
PUBLIC	??1?$CEncrypt@M@@UAE@XZ				; CEncrypt<float>::~CEncrypt<float>
PUBLIC	??_R4?$CEncrypt@M@@6B@				; CEncrypt<float>::`RTTI Complete Object Locator'
PUBLIC	??_R0?AV?$CEncrypt@M@@@8			; CEncrypt<float> `RTTI Type Descriptor'
PUBLIC	??_R3?$CEncrypt@M@@8				; CEncrypt<float>::`RTTI Class Hierarchy Descriptor'
PUBLIC	??_R2?$CEncrypt@M@@8				; CEncrypt<float>::`RTTI Base Class Array'
PUBLIC	??_R1A@?0A@EA@?$CEncrypt@M@@8			; CEncrypt<float>::`RTTI Base Class Descriptor at (0,-1,0,64)'
EXTRN	??1ccddaabb@@UAE@XZ:PROC			; ccddaabb::~ccddaabb
EXTRN	??_E?$CEncrypt@M@@UAEPAXI@Z:PROC		; CEncrypt<float>::`vector deleting destructor'
;	COMDAT ??_R1A@?0A@EA@?$CEncrypt@M@@8
; File d:\lost saga for developer\youtube\tutorial\source\src\lsclient\encryptvalue.h
rdata$r	SEGMENT
??_R1A@?0A@EA@?$CEncrypt@M@@8 DD FLAT:??_R0?AV?$CEncrypt@M@@@8 ; CEncrypt<float>::`RTTI Base Class Descriptor at (0,-1,0,64)'
	DD	00H
	DD	00H
	DD	0ffffffffH
	DD	00H
	DD	040H
	DD	FLAT:??_R3?$CEncrypt@M@@8
rdata$r	ENDS
;	COMDAT ??_R2?$CEncrypt@M@@8
rdata$r	SEGMENT
??_R2?$CEncrypt@M@@8 DD FLAT:??_R1A@?0A@EA@?$CEncrypt@M@@8 ; CEncrypt<float>::`RTTI Base Class Array'
rdata$r	ENDS
;	COMDAT ??_R3?$CEncrypt@M@@8
rdata$r	SEGMENT
??_R3?$CEncrypt@M@@8 DD 00H				; CEncrypt<float>::`RTTI Class Hierarchy Descriptor'
	DD	00H
	DD	01H
	DD	FLAT:??_R2?$CEncrypt@M@@8
rdata$r	ENDS
;	COMDAT ??_R0?AV?$CEncrypt@M@@@8
_DATA	SEGMENT
??_R0?AV?$CEncrypt@M@@@8 DD FLAT:??_7type_info@@6B@	; CEncrypt<float> `RTTI Type Descriptor'
	DD	00H
	DB	'.?AV?$CEncrypt@M@@', 00H
_DATA	ENDS
;	COMDAT ??_R4?$CEncrypt@M@@6B@
rdata$r	SEGMENT
??_R4?$CEncrypt@M@@6B@ DD 00H				; CEncrypt<float>::`RTTI Complete Object Locator'
	DD	00H
	DD	00H
	DD	FLAT:??_R0?AV?$CEncrypt@M@@@8
	DD	FLAT:??_R3?$CEncrypt@M@@8
rdata$r	ENDS
;	COMDAT ??_7?$CEncrypt@M@@6B@
CONST	SEGMENT
??_7?$CEncrypt@M@@6B@ DD FLAT:??_R4?$CEncrypt@M@@6B@	; CEncrypt<float>::`vftable'
	DD	FLAT:??_E?$CEncrypt@M@@UAEPAXI@Z
; Function compile flags: /Ogsp
CONST	ENDS
;	COMDAT ??1?$CEncrypt@M@@UAE@XZ
_TEXT	SEGMENT
??1?$CEncrypt@M@@UAE@XZ PROC				; CEncrypt<float>::~CEncrypt<float>, COMDAT
; _this$ = ecx

; 127  : 	{

  00000	c7 01 00 00 00
	00		 mov	 DWORD PTR [ecx], OFFSET ??_7?$CEncrypt@M@@6B@

; 128  : 	}

  00006	83 c1 0c	 add	 ecx, 12			; 0000000cH
  00009	e9 00 00 00 00	 jmp	 ??1ccddaabb@@UAE@XZ	; ccddaabb::~ccddaabb
??1?$CEncrypt@M@@UAE@XZ ENDP				; CEncrypt<float>::~CEncrypt<float>
_TEXT	ENDS
PUBLIC	??_7?$CEncrypt@K@@6B@				; CEncrypt<unsigned long>::`vftable'
PUBLIC	??1?$CEncrypt@K@@UAE@XZ				; CEncrypt<unsigned long>::~CEncrypt<unsigned long>
PUBLIC	??_R4?$CEncrypt@K@@6B@				; CEncrypt<unsigned long>::`RTTI Complete Object Locator'
PUBLIC	??_R0?AV?$CEncrypt@K@@@8			; CEncrypt<unsigned long> `RTTI Type Descriptor'
PUBLIC	??_R3?$CEncrypt@K@@8				; CEncrypt<unsigned long>::`RTTI Class Hierarchy Descriptor'
PUBLIC	??_R2?$CEncrypt@K@@8				; CEncrypt<unsigned long>::`RTTI Base Class Array'
PUBLIC	??_R1A@?0A@EA@?$CEncrypt@K@@8			; CEncrypt<unsigned long>::`RTTI Base Class Descriptor at (0,-1,0,64)'
EXTRN	??_E?$CEncrypt@K@@UAEPAXI@Z:PROC		; CEncrypt<unsigned long>::`vector deleting destructor'
;	COMDAT ??_R1A@?0A@EA@?$CEncrypt@K@@8
rdata$r	SEGMENT
??_R1A@?0A@EA@?$CEncrypt@K@@8 DD FLAT:??_R0?AV?$CEncrypt@K@@@8 ; CEncrypt<unsigned long>::`RTTI Base Class Descriptor at (0,-1,0,64)'
	DD	00H
	DD	00H
	DD	0ffffffffH
	DD	00H
	DD	040H
	DD	FLAT:??_R3?$CEncrypt@K@@8
rdata$r	ENDS
;	COMDAT ??_R2?$CEncrypt@K@@8
rdata$r	SEGMENT
??_R2?$CEncrypt@K@@8 DD FLAT:??_R1A@?0A@EA@?$CEncrypt@K@@8 ; CEncrypt<unsigned long>::`RTTI Base Class Array'
rdata$r	ENDS
;	COMDAT ??_R3?$CEncrypt@K@@8
rdata$r	SEGMENT
??_R3?$CEncrypt@K@@8 DD 00H				; CEncrypt<unsigned long>::`RTTI Class Hierarchy Descriptor'
	DD	00H
	DD	01H
	DD	FLAT:??_R2?$CEncrypt@K@@8
rdata$r	ENDS
;	COMDAT ??_R0?AV?$CEncrypt@K@@@8
_DATA	SEGMENT
??_R0?AV?$CEncrypt@K@@@8 DD FLAT:??_7type_info@@6B@	; CEncrypt<unsigned long> `RTTI Type Descriptor'
	DD	00H
	DB	'.?AV?$CEncrypt@K@@', 00H
_DATA	ENDS
;	COMDAT ??_R4?$CEncrypt@K@@6B@
rdata$r	SEGMENT
??_R4?$CEncrypt@K@@6B@ DD 00H				; CEncrypt<unsigned long>::`RTTI Complete Object Locator'
	DD	00H
	DD	00H
	DD	FLAT:??_R0?AV?$CEncrypt@K@@@8
	DD	FLAT:??_R3?$CEncrypt@K@@8
rdata$r	ENDS
;	COMDAT ??_7?$CEncrypt@K@@6B@
CONST	SEGMENT
??_7?$CEncrypt@K@@6B@ DD FLAT:??_R4?$CEncrypt@K@@6B@	; CEncrypt<unsigned long>::`vftable'
	DD	FLAT:??_E?$CEncrypt@K@@UAEPAXI@Z
; Function compile flags: /Ogsp
CONST	ENDS
;	COMDAT ??1?$CEncrypt@K@@UAE@XZ
_TEXT	SEGMENT
??1?$CEncrypt@K@@UAE@XZ PROC				; CEncrypt<unsigned long>::~CEncrypt<unsigned long>, COMDAT
; _this$ = ecx

; 127  : 	{

  00000	c7 01 00 00 00
	00		 mov	 DWORD PTR [ecx], OFFSET ??_7?$CEncrypt@K@@6B@

; 128  : 	}

  00006	83 c1 0c	 add	 ecx, 12			; 0000000cH
  00009	e9 00 00 00 00	 jmp	 ??1ccddaabb@@UAE@XZ	; ccddaabb::~ccddaabb
??1?$CEncrypt@K@@UAE@XZ ENDP				; CEncrypt<unsigned long>::~CEncrypt<unsigned long>
; Function compile flags: /Ogsp
_TEXT	ENDS
;	COMDAT ??_G?$CEncrypt@M@@UAEPAXI@Z
_TEXT	SEGMENT
___flags$ = 8						; size = 4
??_G?$CEncrypt@M@@UAEPAXI@Z PROC			; CEncrypt<float>::`scalar deleting destructor', COMDAT
; _this$ = ecx
  00000	55		 push	 ebp
  00001	8b ec		 mov	 ebp, esp
  00003	56		 push	 esi
  00004	8b f1		 mov	 esi, ecx
  00006	8d 4e 0c	 lea	 ecx, DWORD PTR [esi+12]
  00009	c7 06 00 00 00
	00		 mov	 DWORD PTR [esi], OFFSET ??_7?$CEncrypt@M@@6B@
  0000f	e8 00 00 00 00	 call	 ??1ccddaabb@@UAE@XZ	; ccddaabb::~ccddaabb
  00014	f6 45 08 01	 test	 BYTE PTR ___flags$[ebp], 1
  00018	74 07		 je	 SHORT $LN1@scalar@3
  0001a	56		 push	 esi
  0001b	e8 00 00 00 00	 call	 ??3@YAXPAX@Z		; operator delete
  00020	59		 pop	 ecx
$LN1@scalar@3:
  00021	8b c6		 mov	 eax, esi
  00023	5e		 pop	 esi
  00024	5d		 pop	 ebp
  00025	c2 04 00	 ret	 4
??_G?$CEncrypt@M@@UAEPAXI@Z ENDP			; CEncrypt<float>::`scalar deleting destructor'
; Function compile flags: /Ogsp
_TEXT	ENDS
;	COMDAT ??_G?$CEncrypt@K@@UAEPAXI@Z
_TEXT	SEGMENT
___flags$ = 8						; size = 4
??_G?$CEncrypt@K@@UAEPAXI@Z PROC			; CEncrypt<unsigned long>::`scalar deleting destructor', COMDAT
; _this$ = ecx
  00000	55		 push	 ebp
  00001	8b ec		 mov	 ebp, esp
  00003	56		 push	 esi
  00004	8b f1		 mov	 esi, ecx
  00006	8d 4e 0c	 lea	 ecx, DWORD PTR [esi+12]
  00009	c7 06 00 00 00
	00		 mov	 DWORD PTR [esi], OFFSET ??_7?$CEncrypt@K@@6B@
  0000f	e8 00 00 00 00	 call	 ??1ccddaabb@@UAE@XZ	; ccddaabb::~ccddaabb
  00014	f6 45 08 01	 test	 BYTE PTR ___flags$[ebp], 1
  00018	74 07		 je	 SHORT $LN1@scalar@4
  0001a	56		 push	 esi
  0001b	e8 00 00 00 00	 call	 ??3@YAXPAX@Z		; operator delete
  00020	59		 pop	 ecx
$LN1@scalar@4:
  00021	8b c6		 mov	 eax, esi
  00023	5e		 pop	 esi
  00024	5d		 pop	 ebp
  00025	c2 04 00	 ret	 4
??_G?$CEncrypt@K@@UAEPAXI@Z ENDP			; CEncrypt<unsigned long>::`scalar deleting destructor'
_TEXT	ENDS
PUBLIC	??1?$_Vector_val@VioHashString@@V?$allocator@VioHashString@@@std@@@std@@QAE@XZ ; std::_Vector_val<ioHashString,std::allocator<ioHashString> >::~_Vector_val<ioHashString,std::allocator<ioHashString> >
; Function compile flags: /Ogsp
; File c:\program files (x86)\microsoft visual studio 10.0\vc\include\vector
;	COMDAT ??1?$_Vector_val@VioHashString@@V?$allocator@VioHashString@@@std@@@std@@QAE@XZ
_TEXT	SEGMENT
??1?$_Vector_val@VioHashString@@V?$allocator@VioHashString@@@std@@@std@@QAE@XZ PROC ; std::_Vector_val<ioHashString,std::allocator<ioHashString> >::~_Vector_val<ioHashString,std::allocator<ioHashString> >, COMDAT
; _this$ = ecx

; 434  : 		}

  00000	c3		 ret	 0
??1?$_Vector_val@VioHashString@@V?$allocator@VioHashString@@@std@@@std@@QAE@XZ ENDP ; std::_Vector_val<ioHashString,std::allocator<ioHashString> >::~_Vector_val<ioHashString,std::allocator<ioHashString> >
_TEXT	ENDS
PUBLIC	??0?$allocator@VioHashString@@@std@@QAE@XZ	; std::allocator<ioHashString>::allocator<ioHashString>
; Function compile flags: /Ogsp
; File c:\program files (x86)\microsoft visual studio 10.0\vc\include\xmemory
;	COMDAT ??0?$allocator@VioHashString@@@std@@QAE@XZ
_TEXT	SEGMENT
??0?$allocator@VioHashString@@@std@@QAE@XZ PROC		; std::allocator<ioHashString>::allocator<ioHashString>, COMDAT
; _this$ = ecx

; 161  : 	_ALLOCATOR() _THROW0()

  00000	8b c1		 mov	 eax, ecx

; 162  : 		{	// construct default allocator (do nothing)
; 163  : 		}

  00002	c3		 ret	 0
??0?$allocator@VioHashString@@@std@@QAE@XZ ENDP		; std::allocator<ioHashString>::allocator<ioHashString>
_TEXT	ENDS
PUBLIC	??0?$allocator@VioHashString@@@std@@QAE@ABV01@@Z ; std::allocator<ioHashString>::allocator<ioHashString>
; Function compile flags: /Ogsp
;	COMDAT ??0?$allocator@VioHashString@@@std@@QAE@ABV01@@Z
_TEXT	SEGMENT
___formal$ = 8						; size = 4
??0?$allocator@VioHashString@@@std@@QAE@ABV01@@Z PROC	; std::allocator<ioHashString>::allocator<ioHashString>, COMDAT
; _this$ = ecx

; 165  : 	_ALLOCATOR(const _ALLOCATOR<_Ty>&) _THROW0()

  00000	8b c1		 mov	 eax, ecx

; 166  : 		{	// construct by copying (do nothing)
; 167  : 		}

  00002	c2 04 00	 ret	 4
??0?$allocator@VioHashString@@@std@@QAE@ABV01@@Z ENDP	; std::allocator<ioHashString>::allocator<ioHashString>
_TEXT	ENDS
PUBLIC	?EncryptValueToPool@?$CEncrypt@M@@AAEXPBD@Z	; CEncrypt<float>::EncryptValueToPool
EXTRN	?EncryptByte@ccddaabb@@QAEXPBDPADH@Z:PROC	; ccddaabb::EncryptByte
; Function compile flags: /Ogsp
; File d:\lost saga for developer\youtube\tutorial\source\src\lsclient\encryptvalue.h
;	COMDAT ?EncryptValueToPool@?$CEncrypt@M@@AAEXPBD@Z
_TEXT	SEGMENT
_value$ = 8						; size = 4
?EncryptValueToPool@?$CEncrypt@M@@AAEXPBD@Z PROC	; CEncrypt<float>::EncryptValueToPool, COMDAT
; _this$ = ecx

; 67   : 	{

  00000	55		 push	 ebp
  00001	8b ec		 mov	 ebp, esp

; 68   : 		m_RC5.EncryptByte( value, m_MemPool, max(m_ValueSize, DEFAULT_ENCRYPT) );

  00003	0f b7 41 06	 movzx	 eax, WORD PTR [ecx+6]
  00007	83 f8 04	 cmp	 eax, 4
  0000a	77 03		 ja	 SHORT $LN4@EncryptVal
  0000c	6a 04		 push	 4
  0000e	58		 pop	 eax
$LN4@EncryptVal:
  0000f	50		 push	 eax
  00010	8d 41 1c	 lea	 eax, DWORD PTR [ecx+28]
  00013	50		 push	 eax
  00014	ff 75 08	 push	 DWORD PTR _value$[ebp]
  00017	83 c1 0c	 add	 ecx, 12			; 0000000cH
  0001a	e8 00 00 00 00	 call	 ?EncryptByte@ccddaabb@@QAEXPBDPADH@Z ; ccddaabb::EncryptByte

; 69   : 		
; 70   : 	}

  0001f	5d		 pop	 ebp
  00020	c2 04 00	 ret	 4
?EncryptValueToPool@?$CEncrypt@M@@AAEXPBD@Z ENDP	; CEncrypt<float>::EncryptValueToPool
_TEXT	ENDS
PUBLIC	?Init@?$CEncrypt@M@@AAEXXZ			; CEncrypt<float>::Init
EXTRN	?Setup@ccddaabb@@QAEXPBDHH@Z:PROC		; ccddaabb::Setup
EXTRN	__imp__rand:PROC
EXTRN	__imp__timeGetTime@0:PROC
EXTRN	__imp__GetCurrentProcessId@0:PROC
; Function compile flags: /Ogsp
;	COMDAT ?Init@?$CEncrypt@M@@AAEXXZ
_TEXT	SEGMENT
_pid$ = -8						; size = 4
_tick$ = -4						; size = 4
?Init@?$CEncrypt@M@@AAEXXZ PROC				; CEncrypt<float>::Init, COMDAT
; _this$ = ecx

; 73   : 	{

  00000	55		 push	 ebp
  00001	8b ec		 mov	 ebp, esp
  00003	51		 push	 ecx
  00004	51		 push	 ecx
  00005	53		 push	 ebx
  00006	56		 push	 esi
  00007	57		 push	 edi
  00008	8b f1		 mov	 esi, ecx

; 74   : 		DWORD pid = GetCurrentProcessId();

  0000a	ff 15 00 00 00
	00		 call	 DWORD PTR __imp__GetCurrentProcessId@0
  00010	89 45 f8	 mov	 DWORD PTR _pid$[ebp], eax

; 75   : 		DWORD tick = timeGetTime();

  00013	ff 15 00 00 00
	00		 call	 DWORD PTR __imp__timeGetTime@0

; 76   : 		m_ValueSize    = sizeof(type);
; 77   : 		m_MemPoolPos   = (unsigned short)( rand()+pid+tick )%(MAX_MEM_POOL-m_ValueSize);

  00019	8b 3d 00 00 00
	00		 mov	 edi, DWORD PTR __imp__rand
  0001f	89 45 fc	 mov	 DWORD PTR _tick$[ebp], eax
  00022	6a 04		 push	 4
  00024	58		 pop	 eax
  00025	66 89 46 06	 mov	 WORD PTR [esi+6], ax
  00029	ff d7		 call	 edi
  0002b	03 45 f8	 add	 eax, DWORD PTR _pid$[ebp]
  0002e	0f b7 4e 06	 movzx	 ecx, WORD PTR [esi+6]
  00032	03 45 fc	 add	 eax, DWORD PTR _tick$[ebp]
  00035	6a 0c		 push	 12			; 0000000cH
  00037	0f b7 c0	 movzx	 eax, ax
  0003a	5b		 pop	 ebx
  0003b	99		 cdq
  0003c	2b d9		 sub	 ebx, ecx
  0003e	f7 fb		 idiv	 ebx
  00040	66 89 56 04	 mov	 WORD PTR [esi+4], dx

; 78   : 		m_EncryptSeed  = (char)( rand()+pid+tick )%256;

  00044	ff d7		 call	 edi
  00046	02 45 f8	 add	 al, BYTE PTR _pid$[ebp]
  00049	02 45 fc	 add	 al, BYTE PTR _tick$[ebp]
  0004c	0f be c0	 movsx	 eax, al
  0004f	25 ff 00 00 80	 and	 eax, -2147483393	; 800000ffH
  00054	79 07		 jns	 SHORT $LN8@Init
  00056	48		 dec	 eax
  00057	0d 00 ff ff ff	 or	 eax, -256		; ffffff00H
  0005c	40		 inc	 eax
$LN8@Init:
  0005d	88 46 08	 mov	 BYTE PTR [esi+8], al

; 79   : 
; 80   : 		for (int i = 0; i < MAX_MEM_POOL ; i++)

  00060	33 db		 xor	 ebx, ebx
$LL3@Init:

; 81   : 			m_MemPool[i] = (char)( rand()+pid+tick )%256; // 

  00062	ff d7		 call	 edi
  00064	02 45 f8	 add	 al, BYTE PTR _pid$[ebp]
  00067	02 45 fc	 add	 al, BYTE PTR _tick$[ebp]
  0006a	0f be c0	 movsx	 eax, al
  0006d	25 ff 00 00 80	 and	 eax, -2147483393	; 800000ffH
  00072	79 07		 jns	 SHORT $LN9@Init
  00074	48		 dec	 eax
  00075	0d 00 ff ff ff	 or	 eax, -256		; ffffff00H
  0007a	40		 inc	 eax
$LN9@Init:
  0007b	88 44 1e 1c	 mov	 BYTE PTR [esi+ebx+28], al
  0007f	43		 inc	 ebx
  00080	83 fb 0c	 cmp	 ebx, 12			; 0000000cH
  00083	7c dd		 jl	 SHORT $LL3@Init

; 82   : 
; 83   : 		//UJ 130913, : szKey  
; 84   : 		//char szKey[ccddaabb::KEY_SIZE];//="";
; 85   : 		//for (int i = 0; i < ccddaabb::KEY_SIZE  ; i++)
; 86   : 		//	szKey[i] = (char)( rand()+pid+tick )%256; // 
; 87   : 		m_RC5.Setup( NULL, pid, tick );

  00085	ff 75 fc	 push	 DWORD PTR _tick$[ebp]
  00088	8d 4e 0c	 lea	 ecx, DWORD PTR [esi+12]
  0008b	ff 75 f8	 push	 DWORD PTR _pid$[ebp]
  0008e	6a 00		 push	 0
  00090	e8 00 00 00 00	 call	 ?Setup@ccddaabb@@QAEXPBDHH@Z ; ccddaabb::Setup
  00095	5f		 pop	 edi
  00096	5e		 pop	 esi
  00097	5b		 pop	 ebx

; 88   : 
; 89   : #ifdef _NOTUSE
; 90   : 		m_value        = 0;
; 91   : 		EncryptValueToPool((char*)&m_value);
; 92   : 		Debug();
; 93   : #endif
; 94   : 	}

  00098	c9		 leave
  00099	c3		 ret	 0
?Init@?$CEncrypt@M@@AAEXXZ ENDP				; CEncrypt<float>::Init
_TEXT	ENDS
PUBLIC	?DecryptValueToPool@?$CEncrypt@M@@QAEXPAM@Z	; CEncrypt<float>::DecryptValueToPool
EXTRN	?DecryptByte@ccddaabb@@QBEXPBDPADH@Z:PROC	; ccddaabb::DecryptByte
; Function compile flags: /Ogsp
;	COMDAT ?DecryptValueToPool@?$CEncrypt@M@@QAEXPAM@Z
_TEXT	SEGMENT
_value$ = 8						; size = 4
?DecryptValueToPool@?$CEncrypt@M@@QAEXPAM@Z PROC	; CEncrypt<float>::DecryptValueToPool, COMDAT
; _this$ = ecx

; 1648 : 	{

  00000	55		 push	 ebp
  00001	8b ec		 mov	 ebp, esp
  00003	56		 push	 esi

; 1649 : 		m_RC5.DecryptByte( m_MemPool, m_TempMem, 4 );

  00004	8d 71 28	 lea	 esi, DWORD PTR [ecx+40]
  00007	6a 04		 push	 4
  00009	8d 41 1c	 lea	 eax, DWORD PTR [ecx+28]
  0000c	56		 push	 esi
  0000d	50		 push	 eax
  0000e	83 c1 0c	 add	 ecx, 12			; 0000000cH
  00011	e8 00 00 00 00	 call	 ?DecryptByte@ccddaabb@@QBEXPBDPADH@Z ; ccddaabb::DecryptByte

; 1650 : 		*value = *((float*)m_TempMem);

  00016	d9 06		 fld	 DWORD PTR [esi]
  00018	8b 45 08	 mov	 eax, DWORD PTR _value$[ebp]
  0001b	d9 18		 fstp	 DWORD PTR [eax]
  0001d	5e		 pop	 esi

; 1651 : 	}

  0001e	5d		 pop	 ebp
  0001f	c2 04 00	 ret	 4
?DecryptValueToPool@?$CEncrypt@M@@QAEXPAM@Z ENDP	; CEncrypt<float>::DecryptValueToPool
_TEXT	ENDS
PUBLIC	?Init@?$CEncrypt@K@@AAEXXZ			; CEncrypt<unsigned long>::Init
; Function compile flags: /Ogsp
;	COMDAT ?Init@?$CEncrypt@K@@AAEXXZ
_TEXT	SEGMENT
_pid$ = -8						; size = 4
_tick$ = -4						; size = 4
?Init@?$CEncrypt@K@@AAEXXZ PROC				; CEncrypt<unsigned long>::Init, COMDAT
; _this$ = ecx

; 73   : 	{

  00000	55		 push	 ebp
  00001	8b ec		 mov	 ebp, esp
  00003	51		 push	 ecx
  00004	51		 push	 ecx
  00005	53		 push	 ebx
  00006	56		 push	 esi
  00007	57		 push	 edi
  00008	8b f1		 mov	 esi, ecx

; 74   : 		DWORD pid = GetCurrentProcessId();

  0000a	ff 15 00 00 00
	00		 call	 DWORD PTR __imp__GetCurrentProcessId@0
  00010	89 45 f8	 mov	 DWORD PTR _pid$[ebp], eax

; 75   : 		DWORD tick = timeGetTime();

  00013	ff 15 00 00 00
	00		 call	 DWORD PTR __imp__timeGetTime@0

; 76   : 		m_ValueSize    = sizeof(type);
; 77   : 		m_MemPoolPos   = (unsigned short)( rand()+pid+tick )%(MAX_MEM_POOL-m_ValueSize);

  00019	8b 3d 00 00 00
	00		 mov	 edi, DWORD PTR __imp__rand
  0001f	89 45 fc	 mov	 DWORD PTR _tick$[ebp], eax
  00022	6a 04		 push	 4
  00024	58		 pop	 eax
  00025	66 89 46 06	 mov	 WORD PTR [esi+6], ax
  00029	ff d7		 call	 edi
  0002b	03 45 f8	 add	 eax, DWORD PTR _pid$[ebp]
  0002e	0f b7 4e 06	 movzx	 ecx, WORD PTR [esi+6]
  00032	03 45 fc	 add	 eax, DWORD PTR _tick$[ebp]
  00035	6a 0c		 push	 12			; 0000000cH
  00037	0f b7 c0	 movzx	 eax, ax
  0003a	5b		 pop	 ebx
  0003b	99		 cdq
  0003c	2b d9		 sub	 ebx, ecx
  0003e	f7 fb		 idiv	 ebx
  00040	66 89 56 04	 mov	 WORD PTR [esi+4], dx

; 78   : 		m_EncryptSeed  = (char)( rand()+pid+tick )%256;

  00044	ff d7		 call	 edi
  00046	02 45 f8	 add	 al, BYTE PTR _pid$[ebp]
  00049	02 45 fc	 add	 al, BYTE PTR _tick$[ebp]
  0004c	0f be c0	 movsx	 eax, al
  0004f	25 ff 00 00 80	 and	 eax, -2147483393	; 800000ffH
  00054	79 07		 jns	 SHORT $LN8@Init@2
  00056	48		 dec	 eax
  00057	0d 00 ff ff ff	 or	 eax, -256		; ffffff00H
  0005c	40		 inc	 eax
$LN8@Init@2:
  0005d	88 46 08	 mov	 BYTE PTR [esi+8], al

; 79   : 
; 80   : 		for (int i = 0; i < MAX_MEM_POOL ; i++)

  00060	33 db		 xor	 ebx, ebx
$LL3@Init@2:

; 81   : 			m_MemPool[i] = (char)( rand()+pid+tick )%256; // 

  00062	ff d7		 call	 edi
  00064	02 45 f8	 add	 al, BYTE PTR _pid$[ebp]
  00067	02 45 fc	 add	 al, BYTE PTR _tick$[ebp]
  0006a	0f be c0	 movsx	 eax, al
  0006d	25 ff 00 00 80	 and	 eax, -2147483393	; 800000ffH
  00072	79 07		 jns	 SHORT $LN9@Init@2
  00074	48		 dec	 eax
  00075	0d 00 ff ff ff	 or	 eax, -256		; ffffff00H
  0007a	40		 inc	 eax
$LN9@Init@2:
  0007b	88 44 1e 1c	 mov	 BYTE PTR [esi+ebx+28], al
  0007f	43		 inc	 ebx
  00080	83 fb 0c	 cmp	 ebx, 12			; 0000000cH
  00083	7c dd		 jl	 SHORT $LL3@Init@2

; 82   : 
; 83   : 		//UJ 130913, : szKey  
; 84   : 		//char szKey[ccddaabb::KEY_SIZE];//="";
; 85   : 		//for (int i = 0; i < ccddaabb::KEY_SIZE  ; i++)
; 86   : 		//	szKey[i] = (char)( rand()+pid+tick )%256; // 
; 87   : 		m_RC5.Setup( NULL, pid, tick );

  00085	ff 75 fc	 push	 DWORD PTR _tick$[ebp]
  00088	8d 4e 0c	 lea	 ecx, DWORD PTR [esi+12]
  0008b	ff 75 f8	 push	 DWORD PTR _pid$[ebp]
  0008e	6a 00		 push	 0
  00090	e8 00 00 00 00	 call	 ?Setup@ccddaabb@@QAEXPBDHH@Z ; ccddaabb::Setup
  00095	5f		 pop	 edi
  00096	5e		 pop	 esi
  00097	5b		 pop	 ebx

; 88   : 
; 89   : #ifdef _NOTUSE
; 90   : 		m_value        = 0;
; 91   : 		EncryptValueToPool((char*)&m_value);
; 92   : 		Debug();
; 93   : #endif
; 94   : 	}

  00098	c9		 leave
  00099	c3		 ret	 0
?Init@?$CEncrypt@K@@AAEXXZ ENDP				; CEncrypt<unsigned long>::Init
_TEXT	ENDS
PUBLIC	?DecryptValueToPool@?$CEncrypt@H@@QAEXPAH@Z	; CEncrypt<int>::DecryptValueToPool
; Function compile flags: /Ogsp
;	COMDAT ?DecryptValueToPool@?$CEncrypt@H@@QAEXPAH@Z
_TEXT	SEGMENT
_value$ = 8						; size = 4
?DecryptValueToPool@?$CEncrypt@H@@QAEXPAH@Z PROC	; CEncrypt<int>::DecryptValueToPool, COMDAT
; _this$ = ecx

; 837  : 	{

  00000	55		 push	 ebp
  00001	8b ec		 mov	 ebp, esp
  00003	56		 push	 esi

; 838  : 		m_RC5.DecryptByte( m_MemPool, m_TempMem, 4 );

  00004	8d 71 28	 lea	 esi, DWORD PTR [ecx+40]
  00007	6a 04		 push	 4
  00009	8d 41 1c	 lea	 eax, DWORD PTR [ecx+28]
  0000c	56		 push	 esi
  0000d	50		 push	 eax
  0000e	83 c1 0c	 add	 ecx, 12			; 0000000cH
  00011	e8 00 00 00 00	 call	 ?DecryptByte@ccddaabb@@QBEXPBDPADH@Z ; ccddaabb::DecryptByte

; 839  : 		*value = *((int*)m_TempMem);

  00016	8b 06		 mov	 eax, DWORD PTR [esi]
  00018	8b 4d 08	 mov	 ecx, DWORD PTR _value$[ebp]
  0001b	89 01		 mov	 DWORD PTR [ecx], eax
  0001d	5e		 pop	 esi

; 840  : 	}

  0001e	5d		 pop	 ebp
  0001f	c2 04 00	 ret	 4
?DecryptValueToPool@?$CEncrypt@H@@QAEXPAH@Z ENDP	; CEncrypt<int>::DecryptValueToPool
_TEXT	ENDS
PUBLIC	?_Xlen@?$vector@VioHashString@@V?$allocator@VioHashString@@@std@@@std@@IBEXXZ ; std::vector<ioHashString,std::allocator<ioHashString> >::_Xlen
; Function compile flags: /Ogsp
; File c:\program files (x86)\microsoft visual studio 10.0\vc\include\vector
;	COMDAT ?_Xlen@?$vector@VioHashString@@V?$allocator@VioHashString@@@std@@@std@@IBEXXZ
_TEXT	SEGMENT
?_Xlen@?$vector@VioHashString@@V?$allocator@VioHashString@@@std@@@std@@IBEXXZ PROC ; std::vector<ioHashString,std::allocator<ioHashString> >::_Xlen, COMDAT
; _this$ = ecx

; 1427 : 		_Xlength_error("vector<T> too long");

  00000	68 00 00 00 00	 push	 OFFSET ??_C@_0BD@OLBABOEK@vector?$DMT?$DO?5too?5long?$AA@
  00005	ff 15 00 00 00
	00		 call	 DWORD PTR __imp_?_Xlength_error@std@@YAXPBD@Z
$LN4@Xlen@2:
$LN3@Xlen@2:
  0000b	cc		 int	 3
?_Xlen@?$vector@VioHashString@@V?$allocator@VioHashString@@@std@@@std@@IBEXXZ ENDP ; std::vector<ioHashString,std::allocator<ioHashString> >::_Xlen
_TEXT	ENDS
PUBLIC	?deallocate@?$allocator@VioHashString@@@std@@QAEXPAVioHashString@@I@Z ; std::allocator<ioHashString>::deallocate
; Function compile flags: /Ogsp
; File c:\program files (x86)\microsoft visual studio 10.0\vc\include\xmemory
;	COMDAT ?deallocate@?$allocator@VioHashString@@@std@@QAEXPAVioHashString@@I@Z
_TEXT	SEGMENT
__Ptr$ = 8						; size = 4
___formal$ = 12						; size = 4
?deallocate@?$allocator@VioHashString@@@std@@QAEXPAVioHashString@@I@Z PROC ; std::allocator<ioHashString>::deallocate, COMDAT
; _this$ = ecx

; 181  : 		{	// deallocate object at _Ptr, ignore size

  00000	55		 push	 ebp
  00001	8b ec		 mov	 ebp, esp

; 182  : 		::operator delete(_Ptr);

  00003	ff 75 08	 push	 DWORD PTR __Ptr$[ebp]
  00006	e8 00 00 00 00	 call	 ??3@YAXPAX@Z		; operator delete
  0000b	59		 pop	 ecx

; 183  : 		}

  0000c	5d		 pop	 ebp
  0000d	c2 08 00	 ret	 8
?deallocate@?$allocator@VioHashString@@@std@@QAEXPAVioHashString@@I@Z ENDP ; std::allocator<ioHashString>::deallocate
_TEXT	ENDS
PUBLIC	??0?$_Vector_const_iterator@V?$_Vector_val@VioHashString@@V?$allocator@VioHashString@@@std@@@std@@@std@@QAE@PAVioHashString@@PBU_Container_base0@1@@Z ; std::_Vector_const_iterator<std::_Vector_val<ioHashString,std::allocator<ioHashString> > >::_Vector_const_iterator<std::_Vector_val<ioHashString,std::allocator<ioHashString> > >
; Function compile flags: /Ogsp
; File c:\program files (x86)\microsoft visual studio 10.0\vc\include\vector
;	COMDAT ??0?$_Vector_const_iterator@V?$_Vector_val@VioHashString@@V?$allocator@VioHashString@@@std@@@std@@@std@@QAE@PAVioHashString@@PBU_Container_base0@1@@Z
_TEXT	SEGMENT
__Parg$ = 8						; size = 4
__Pvector$ = 12						; size = 4
??0?$_Vector_const_iterator@V?$_Vector_val@VioHashString@@V?$allocator@VioHashString@@@std@@@std@@@std@@QAE@PAVioHashString@@PBU_Container_base0@1@@Z PROC ; std::_Vector_const_iterator<std::_Vector_val<ioHashString,std::allocator<ioHashString> > >::_Vector_const_iterator<std::_Vector_val<ioHashString,std::allocator<ioHashString> > >, COMDAT
; _this$ = ecx

; 45   : 		{	// construct with pointer _Parg

  00000	55		 push	 ebp
  00001	8b ec		 mov	 ebp, esp
  00003	8b c1		 mov	 eax, ecx
  00005	8b 4d 08	 mov	 ecx, DWORD PTR __Parg$[ebp]
  00008	89 08		 mov	 DWORD PTR [eax], ecx

; 46   : 		this->_Adopt(_Pvector);
; 47   : 		}

  0000a	5d		 pop	 ebp
  0000b	c2 08 00	 ret	 8
??0?$_Vector_const_iterator@V?$_Vector_val@VioHashString@@V?$allocator@VioHashString@@@std@@@std@@@std@@QAE@PAVioHashString@@PBU_Container_base0@1@@Z ENDP ; std::_Vector_const_iterator<std::_Vector_val<ioHashString,std::allocator<ioHashString> > >::_Vector_const_iterator<std::_Vector_val<ioHashString,std::allocator<ioHashString> > >
_TEXT	ENDS
PUBLIC	??0?$_Vector_iterator@V?$_Vector_val@VioHashString@@V?$allocator@VioHashString@@@std@@@std@@@std@@QAE@PAVioHashString@@PBU_Container_base0@1@@Z ; std::_Vector_iterator<std::_Vector_val<ioHashString,std::allocator<ioHashString> > >::_Vector_iterator<std::_Vector_val<ioHashString,std::allocator<ioHashString> > >
; Function compile flags: /Ogsp
;	COMDAT ??0?$_Vector_iterator@V?$_Vector_val@VioHashString@@V?$allocator@VioHashString@@@std@@@std@@@std@@QAE@PAVioHashString@@PBU_Container_base0@1@@Z
_TEXT	SEGMENT
__Parg$ = 8						; size = 4
__Pvector$ = 12						; size = 4
??0?$_Vector_iterator@V?$_Vector_val@VioHashString@@V?$allocator@VioHashString@@@std@@@std@@@std@@QAE@PAVioHashString@@PBU_Container_base0@1@@Z PROC ; std::_Vector_iterator<std::_Vector_val<ioHashString,std::allocator<ioHashString> > >::_Vector_iterator<std::_Vector_val<ioHashString,std::allocator<ioHashString> > >, COMDAT
; _this$ = ecx

; 304  : 		{	// construct with pointer _Parg

  00000	55		 push	 ebp
  00001	8b ec		 mov	 ebp, esp
  00003	8b c1		 mov	 eax, ecx
  00005	8b 4d 08	 mov	 ecx, DWORD PTR __Parg$[ebp]
  00008	89 08		 mov	 DWORD PTR [eax], ecx

; 305  : 		}

  0000a	5d		 pop	 ebp
  0000b	c2 08 00	 ret	 8
??0?$_Vector_iterator@V?$_Vector_val@VioHashString@@V?$allocator@VioHashString@@@std@@@std@@@std@@QAE@PAVioHashString@@PBU_Container_base0@1@@Z ENDP ; std::_Vector_iterator<std::_Vector_val<ioHashString,std::allocator<ioHashString> > >::_Vector_iterator<std::_Vector_val<ioHashString,std::allocator<ioHashString> > >
_TEXT	ENDS
PUBLIC	?max_size@?$allocator@VioHashString@@@std@@QBEIXZ ; std::allocator<ioHashString>::max_size
; Function compile flags: /Ogsp
; File c:\program files (x86)\microsoft visual studio 10.0\vc\include\xmemory
;	COMDAT ?max_size@?$allocator@VioHashString@@@std@@QBEIXZ
_TEXT	SEGMENT
?max_size@?$allocator@VioHashString@@@std@@QBEIXZ PROC	; std::allocator<ioHashString>::max_size, COMDAT
; _this$ = ecx

; 218  : 		_SIZT _Count = (_SIZT)(-1) / sizeof (_Ty);
; 219  : 		return (0 < _Count ? _Count : 1);

  00000	b8 ff ff ff 0f	 mov	 eax, 268435455		; 0fffffffH

; 220  : 		}

  00005	c3		 ret	 0
?max_size@?$allocator@VioHashString@@@std@@QBEIXZ ENDP	; std::allocator<ioHashString>::max_size
_TEXT	ENDS
PUBLIC	?_Compat@?$_Vector_const_iterator@V?$_Vector_val@VioHashString@@V?$allocator@VioHashString@@@std@@@std@@@std@@QBEXABV12@@Z ; std::_Vector_const_iterator<std::_Vector_val<ioHashString,std::allocator<ioHashString> > >::_Compat
; Function compile flags: /Ogsp
; File c:\program files (x86)\microsoft visual studio 10.0\vc\include\vector
;	COMDAT ?_Compat@?$_Vector_const_iterator@V?$_Vector_val@VioHashString@@V?$allocator@VioHashString@@@std@@@std@@@std@@QBEXABV12@@Z
_TEXT	SEGMENT
___formal$ = 8						; size = 4
?_Compat@?$_Vector_const_iterator@V?$_Vector_val@VioHashString@@V?$allocator@VioHashString@@@std@@@std@@@std@@QBEXABV12@@Z PROC ; std::_Vector_const_iterator<std::_Vector_val<ioHashString,std::allocator<ioHashString> > >::_Compat, COMDAT
; _this$ = ecx

; 253  : 		}

  00000	c2 04 00	 ret	 4
?_Compat@?$_Vector_const_iterator@V?$_Vector_val@VioHashString@@V?$allocator@VioHashString@@@std@@@std@@@std@@QBEXABV12@@Z ENDP ; std::_Vector_const_iterator<std::_Vector_val<ioHashString,std::allocator<ioHashString> > >::_Compat
_TEXT	ENDS
PUBLIC	??$_Allocate@VioHashString@@@std@@YAPAVioHashString@@IPAV1@@Z ; std::_Allocate<ioHashString>
; Function compile flags: /Ogsp
; File c:\program files (x86)\microsoft visual studio 10.0\vc\include\xmemory
;	COMDAT ??$_Allocate@VioHashString@@@std@@YAPAVioHashString@@IPAV1@@Z
_TEXT	SEGMENT
$T534152 = -12						; size = 12
$T534156 = 8						; size = 4
__Count$ = 8						; size = 4
___formal$ = 12						; size = 4
??$_Allocate@VioHashString@@@std@@YAPAVioHashString@@IPAV1@@Z PROC ; std::_Allocate<ioHashString>, COMDAT

; 30   : 	{	// allocate storage for _Count elements of type _Ty

  00000	55		 push	 ebp
  00001	8b ec		 mov	 ebp, esp

; 31   : 	void *_Ptr = 0;
; 32   : 
; 33   : 	if (_Count <= 0)

  00003	8b 4d 08	 mov	 ecx, DWORD PTR __Count$[ebp]
  00006	83 ec 0c	 sub	 esp, 12			; 0000000cH
  00009	33 c0		 xor	 eax, eax
  0000b	85 c9		 test	 ecx, ecx

; 34   : 		_Count = 0;
; 35   : 	else if (((_SIZT)(-1) / sizeof (_Ty) < _Count)

  0000d	74 3c		 je	 SHORT $LN5@Allocate@2

; 36   : 		|| (_Ptr = ::operator new(_Count * sizeof (_Ty))) == 0)

  0000f	81 f9 ff ff ff
	0f		 cmp	 ecx, 268435455		; 0fffffffH
  00015	77 0e		 ja	 SHORT $LN1@Allocate@2
  00017	c1 e1 04	 shl	 ecx, 4
  0001a	51		 push	 ecx
  0001b	e8 00 00 00 00	 call	 ??2@YAPAXI@Z		; operator new
  00020	59		 pop	 ecx
  00021	85 c0		 test	 eax, eax

; 38   : 
; 39   : 	return ((_Ty _FARQ *)_Ptr);

  00023	75 26		 jne	 SHORT $LN5@Allocate@2
$LN1@Allocate@2:

; 37   : 		_THROW_NCEE(bad_alloc, 0);

  00025	83 65 08 00	 and	 DWORD PTR $T534156[ebp], 0
  00029	8d 45 08	 lea	 eax, DWORD PTR $T534156[ebp]
  0002c	50		 push	 eax
  0002d	8d 4d f4	 lea	 ecx, DWORD PTR $T534152[ebp]
  00030	ff 15 00 00 00
	00		 call	 DWORD PTR __imp_??0exception@std@@QAE@ABQBD@Z
  00036	68 00 00 00 00	 push	 OFFSET __TI2?AVbad_alloc@std@@
  0003b	8d 45 f4	 lea	 eax, DWORD PTR $T534152[ebp]
  0003e	50		 push	 eax
  0003f	c7 45 f4 00 00
	00 00		 mov	 DWORD PTR $T534152[ebp], OFFSET ??_7bad_alloc@std@@6B@
  00046	e8 00 00 00 00	 call	 __CxxThrowException@8
$LN10@Allocate@2:
$LN5@Allocate@2:

; 40   : 	}

  0004b	c9		 leave
  0004c	c3		 ret	 0
$LN9@Allocate@2:
??$_Allocate@VioHashString@@@std@@YAPAVioHashString@@IPAV1@@Z ENDP ; std::_Allocate<ioHashString>
_TEXT	ENDS
EXTRN	__imp_??0exception@std@@QAE@ABV01@@Z:PROC
; Function compile flags: /Ogsp
;	COMDAT ??0bad_alloc@std@@QAE@ABV01@@Z
_TEXT	SEGMENT
___that$ = 8						; size = 4
??0bad_alloc@std@@QAE@ABV01@@Z PROC			; std::bad_alloc::bad_alloc, COMDAT
; _this$ = ecx
  00000	55		 push	 ebp
  00001	8b ec		 mov	 ebp, esp
  00003	56		 push	 esi
  00004	ff 75 08	 push	 DWORD PTR ___that$[ebp]
  00007	8b f1		 mov	 esi, ecx
  00009	ff 15 00 00 00
	00		 call	 DWORD PTR __imp_??0exception@std@@QAE@ABV01@@Z
  0000f	c7 06 00 00 00
	00		 mov	 DWORD PTR [esi], OFFSET ??_7bad_alloc@std@@6B@
  00015	8b c6		 mov	 eax, esi
  00017	5e		 pop	 esi
  00018	5d		 pop	 ebp
  00019	c2 04 00	 ret	 4
??0bad_alloc@std@@QAE@ABV01@@Z ENDP			; std::bad_alloc::bad_alloc
_TEXT	ENDS
PUBLIC	??$forward@ABVioHashString@@@std@@YAABVioHashString@@ABV1@@Z ; std::forward<ioHashString const &>
; Function compile flags: /Ogsp
; File c:\program files (x86)\microsoft visual studio 10.0\vc\include\utility
;	COMDAT ??$forward@ABVioHashString@@@std@@YAABVioHashString@@ABV1@@Z
_TEXT	SEGMENT
__Arg$ = 8						; size = 4
??$forward@ABVioHashString@@@std@@YAABVioHashString@@ABV1@@Z PROC ; std::forward<ioHashString const &>, COMDAT

; 78   : 	{	// forward _Arg, given explicitly specified type parameter

  00000	55		 push	 ebp
  00001	8b ec		 mov	 ebp, esp

; 79   : 	return ((_Ty&&)_Arg);

  00003	8b 45 08	 mov	 eax, DWORD PTR __Arg$[ebp]

; 80   : 	}

  00006	5d		 pop	 ebp
  00007	c3		 ret	 0
??$forward@ABVioHashString@@@std@@YAABVioHashString@@ABV1@@Z ENDP ; std::forward<ioHashString const &>
_TEXT	ENDS
PUBLIC	??$forward@AAVioHashString@@@std@@YAAAVioHashString@@AAV1@@Z ; std::forward<ioHashString &>
; Function compile flags: /Ogsp
;	COMDAT ??$forward@AAVioHashString@@@std@@YAAAVioHashString@@AAV1@@Z
_TEXT	SEGMENT
__Arg$ = 8						; size = 4
??$forward@AAVioHashString@@@std@@YAAAVioHashString@@AAV1@@Z PROC ; std::forward<ioHashString &>, COMDAT

; 78   : 	{	// forward _Arg, given explicitly specified type parameter

  00000	55		 push	 ebp
  00001	8b ec		 mov	 ebp, esp

; 79   : 	return ((_Ty&&)_Arg);

  00003	8b 45 08	 mov	 eax, DWORD PTR __Arg$[ebp]

; 80   : 	}

  00006	5d		 pop	 ebp
  00007	c3		 ret	 0
??$forward@AAVioHashString@@@std@@YAAAVioHashString@@AAV1@@Z ENDP ; std::forward<ioHashString &>
_TEXT	ENDS
PUBLIC	??$_Ptr_cat@VioHashString@@V1@@std@@YA?AU_Nonscalar_ptr_iterator_tag@0@PAVioHashString@@0@Z ; std::_Ptr_cat<ioHashString,ioHashString>
; Function compile flags: /Ogsp
; File c:\program files (x86)\microsoft visual studio 10.0\vc\include\xutility
;	COMDAT ??$_Ptr_cat@VioHashString@@V1@@std@@YA?AU_Nonscalar_ptr_iterator_tag@0@PAVioHashString@@0@Z
_TEXT	SEGMENT
__Cat$ = -1						; size = 1
___formal$ = 8						; size = 4
___formal$ = 12						; size = 4
??$_Ptr_cat@VioHashString@@V1@@std@@YA?AU_Nonscalar_ptr_iterator_tag@0@PAVioHashString@@0@Z PROC ; std::_Ptr_cat<ioHashString,ioHashString>, COMDAT

; 516  : 	{	// return pointer category from pointers

  00000	55		 push	 ebp
  00001	8b ec		 mov	 ebp, esp
  00003	51		 push	 ecx

; 517  : 	typename _Ptr_cat_helper<_Elem1, _Elem2>::_Type _Cat;
; 518  : 	return (_Cat);

  00004	8a 45 ff	 mov	 al, BYTE PTR __Cat$[ebp]

; 519  : 	}

  00007	c9		 leave
  00008	c3		 ret	 0
??$_Ptr_cat@VioHashString@@V1@@std@@YA?AU_Nonscalar_ptr_iterator_tag@0@PAVioHashString@@0@Z ENDP ; std::_Ptr_cat<ioHashString,ioHashString>
_TEXT	ENDS
PUBLIC	??$move@AAVioHashString@@@std@@YA$$QAVioHashString@@AAV1@@Z ; std::move<ioHashString &>
; Function compile flags: /Ogsp
; File c:\program files (x86)\microsoft visual studio 10.0\vc\include\utility
;	COMDAT ??$move@AAVioHashString@@@std@@YA$$QAVioHashString@@AAV1@@Z
_TEXT	SEGMENT
__Arg$ = 8						; size = 4
??$move@AAVioHashString@@@std@@YA$$QAVioHashString@@AAV1@@Z PROC ; std::move<ioHashString &>, COMDAT

; 86   : 	{	// forward _Arg as movable

  00000	55		 push	 ebp
  00001	8b ec		 mov	 ebp, esp

; 87   : 	return ((typename tr1::_Remove_reference<_Ty>::_Type&&)_Arg);

  00003	8b 45 08	 mov	 eax, DWORD PTR __Arg$[ebp]

; 88   : 	}

  00006	5d		 pop	 ebp
  00007	c3		 ret	 0
??$move@AAVioHashString@@@std@@YA$$QAVioHashString@@AAV1@@Z ENDP ; std::move<ioHashString &>
_TEXT	ENDS
PUBLIC	??_GioHashString@@QAEPAXI@Z			; ioHashString::`scalar deleting destructor'
; Function compile flags: /Ogsp
;	COMDAT ??_GioHashString@@QAEPAXI@Z
_TEXT	SEGMENT
___flags$ = 8						; size = 4
??_GioHashString@@QAEPAXI@Z PROC			; ioHashString::`scalar deleting destructor', COMDAT
; _this$ = ecx
  00000	55		 push	 ebp
  00001	8b ec		 mov	 ebp, esp
  00003	56		 push	 esi
  00004	8b f1		 mov	 esi, ecx
  00006	ff 15 00 00 00
	00		 call	 DWORD PTR __imp_??1ioHashString@@QAE@XZ
  0000c	f6 45 08 01	 test	 BYTE PTR ___flags$[ebp], 1
  00010	74 07		 je	 SHORT $LN1@scalar@5
  00012	56		 push	 esi
  00013	e8 00 00 00 00	 call	 ??3@YAXPAX@Z		; operator delete
  00018	59		 pop	 ecx
$LN1@scalar@5:
  00019	8b c6		 mov	 eax, esi
  0001b	5e		 pop	 esi
  0001c	5d		 pop	 ebp
  0001d	c2 04 00	 ret	 4
??_GioHashString@@QAEPAXI@Z ENDP			; ioHashString::`scalar deleting destructor'
_TEXT	ENDS
PUBLIC	??$_Construct@VioHashString@@ABV1@@std@@YAXPAVioHashString@@ABV1@@Z ; std::_Construct<ioHashString,ioHashString const &>
;	COMDAT xdata$x
xdata$x	SEGMENT
__unwindtable$??$_Construct@VioHashString@@ABV1@@std@@YAXPAVioHashString@@ABV1@@Z DD 0ffffffffH
	DD	FLAT:__unwindfunclet$??$_Construct@VioHashString@@ABV1@@std@@YAXPAVioHashString@@ABV1@@Z$0
__ehfuncinfo$??$_Construct@VioHashString@@ABV1@@std@@YAXPAVioHashString@@ABV1@@Z DD 019930522H
	DD	01H
	DD	FLAT:__unwindtable$??$_Construct@VioHashString@@ABV1@@std@@YAXPAVioHashString@@ABV1@@Z
	DD	2 DUP(00H)
	DD	2 DUP(00H)
	DD	00H
	DD	01H
; Function compile flags: /Ogsp
; File c:\program files (x86)\microsoft visual studio 10.0\vc\include\xmemory
xdata$x	ENDS
;	COMDAT ??$_Construct@VioHashString@@ABV1@@std@@YAXPAVioHashString@@ABV1@@Z
_TEXT	SEGMENT
$T534175 = -16						; size = 4
__$EHRec$ = -12						; size = 12
__Vptr$ = 8						; size = 4
__Ptr$ = 8						; size = 4
__Val$ = 12						; size = 4
??$_Construct@VioHashString@@ABV1@@std@@YAXPAVioHashString@@ABV1@@Z PROC ; std::_Construct<ioHashString,ioHashString const &>, COMDAT

; 46   : 	{	// construct object at _Ptr with value _Val

  00000	6a 04		 push	 4
  00002	b8 00 00 00 00	 mov	 eax, __ehhandler$??$_Construct@VioHashString@@ABV1@@std@@YAXPAVioHashString@@ABV1@@Z
  00007	e8 00 00 00 00	 call	 __EH_prolog3

; 47   : 	void _FARQ *_Vptr = _Ptr;

  0000c	8b 4d 08	 mov	 ecx, DWORD PTR __Ptr$[ebp]
  0000f	89 4d 08	 mov	 DWORD PTR __Vptr$[ebp], ecx

; 48   : 	::new (_Vptr) _Ty1(_STD forward<_Ty2>(_Val));

  00012	89 4d f0	 mov	 DWORD PTR $T534175[ebp], ecx
  00015	83 65 fc 00	 and	 DWORD PTR __$EHRec$[ebp+8], 0
  00019	85 c9		 test	 ecx, ecx
  0001b	74 09		 je	 SHORT $LN3@Construct@2
  0001d	ff 75 0c	 push	 DWORD PTR __Val$[ebp]
  00020	ff 15 00 00 00
	00		 call	 DWORD PTR __imp_??0ioHashString@@QAE@ABV0@@Z
$LN3@Construct@2:

; 49   : 	}

  00026	e8 00 00 00 00	 call	 __EH_epilog3
  0002b	c3		 ret	 0
_TEXT	ENDS
;	COMDAT text$x
text$x	SEGMENT
__unwindfunclet$??$_Construct@VioHashString@@ABV1@@std@@YAXPAVioHashString@@ABV1@@Z$0:
  00000	ff 75 08	 push	 DWORD PTR __Vptr$[ebp]
  00003	ff 75 f0	 push	 DWORD PTR $T534175[ebp]
  00006	e8 00 00 00 00	 call	 ??3@YAXPAX0@Z		; operator delete
  0000b	59		 pop	 ecx
  0000c	59		 pop	 ecx
  0000d	c3		 ret	 0
__ehhandler$??$_Construct@VioHashString@@ABV1@@std@@YAXPAVioHashString@@ABV1@@Z:
  0000e	8b 54 24 08	 mov	 edx, DWORD PTR [esp+8]
  00012	8d 42 0c	 lea	 eax, DWORD PTR [edx+12]
  00015	8b 4a ec	 mov	 ecx, DWORD PTR [edx-20]
  00018	33 c8		 xor	 ecx, eax
  0001a	e8 00 00 00 00	 call	 @__security_check_cookie@4
  0001f	b8 00 00 00 00	 mov	 eax, OFFSET __ehfuncinfo$??$_Construct@VioHashString@@ABV1@@std@@YAXPAVioHashString@@ABV1@@Z
  00024	e9 00 00 00 00	 jmp	 ___CxxFrameHandler3
text$x	ENDS
??$_Construct@VioHashString@@ABV1@@std@@YAXPAVioHashString@@ABV1@@Z ENDP ; std::_Construct<ioHashString,ioHashString const &>
PUBLIC	??_R0?AVioBaseChar@@@8				; ioBaseChar `RTTI Type Descriptor'
PUBLIC	?ToBaseChar@@YAPAVioBaseChar@@PAVioGameEntity@@@Z ; ToBaseChar
;	COMDAT ??_R0?AVioBaseChar@@@8
; File d:\lost saga for developer\youtube\tutorial\source\src\lsclient\iobasechar.h
_DATA	SEGMENT
??_R0?AVioBaseChar@@@8 DD FLAT:??_7type_info@@6B@	; ioBaseChar `RTTI Type Descriptor'
	DD	00H
	DB	'.?AVioBaseChar@@', 00H
; Function compile flags: /Ogsp
_DATA	ENDS
;	COMDAT ?ToBaseChar@@YAPAVioBaseChar@@PAVioGameEntity@@@Z
_TEXT	SEGMENT
_pObj$ = 8						; size = 4
?ToBaseChar@@YAPAVioBaseChar@@PAVioGameEntity@@@Z PROC	; ToBaseChar, COMDAT

; 4326 : {

  00000	55		 push	 ebp
  00001	8b ec		 mov	 ebp, esp
  00003	56		 push	 esi

; 4327 : 	ioPlayEntity *pPlay = ToPlayEntity( pObj );

  00004	ff 75 08	 push	 DWORD PTR _pObj$[ebp]
  00007	e8 00 00 00 00	 call	 ?ToPlayEntity@@YAPAVioPlayEntity@@PAVioGameEntity@@@Z ; ToPlayEntity
  0000c	8b f0		 mov	 esi, eax
  0000e	59		 pop	 ecx

; 4328 : 	if( !pPlay || pPlay->GetSubType() != ioPlayEntity::PST_CHAR )

  0000f	85 f6		 test	 esi, esi
  00011	74 25		 je	 SHORT $LN1@ToBaseChar
  00013	8b 06		 mov	 eax, DWORD PTR [esi]
  00015	8b ce		 mov	 ecx, esi
  00017	ff 90 a4 00 00
	00		 call	 DWORD PTR [eax+164]
  0001d	85 c0		 test	 eax, eax
  0001f	75 17		 jne	 SHORT $LN1@ToBaseChar

; 4330 : 
; 4331 : 	return dynamic_cast< ioBaseChar* >( pPlay );

  00021	50		 push	 eax
  00022	68 00 00 00 00	 push	 OFFSET ??_R0?AVioBaseChar@@@8
  00027	68 00 00 00 00	 push	 OFFSET ??_R0?AVioPlayEntity@@@8
  0002c	50		 push	 eax
  0002d	56		 push	 esi
  0002e	e8 00 00 00 00	 call	 ___RTDynamicCast
  00033	83 c4 14	 add	 esp, 20			; 00000014H
  00036	eb 02		 jmp	 SHORT $LN3@ToBaseChar
$LN1@ToBaseChar:

; 4329 : 		return NULL;

  00038	33 c0		 xor	 eax, eax
$LN3@ToBaseChar:
  0003a	5e		 pop	 esi

; 4332 : }

  0003b	5d		 pop	 ebp
  0003c	c3		 ret	 0
?ToBaseChar@@YAPAVioBaseChar@@PAVioGameEntity@@@Z ENDP	; ToBaseChar
_TEXT	ENDS
PUBLIC	__$ArrayPad$
PUBLIC	?SetMoveDir@ioRotateTargetWeapon@@UAEXABUD3DXVECTOR3@@@Z ; ioRotateTargetWeapon::SetMoveDir
EXTRN	?SetOrientation@ioWeapon@@QAEXABUD3DXQUATERNION@@@Z:PROC ; ioWeapon::SetOrientation
EXTRN	__imp_?CalcDirectionQuaternion@ioMath@@SAXAAUD3DXQUATERNION@@ABUD3DXVECTOR3@@@Z:PROC
EXTRN	___security_cookie:DWORD
; Function compile flags: /Ogsp
; File d:\lost saga for developer\youtube\tutorial\source\src\lsclient\iorotatetargetweapon.cpp
;	COMDAT ?SetMoveDir@ioRotateTargetWeapon@@UAEXABUD3DXVECTOR3@@@Z
_TEXT	SEGMENT
_qtRot$ = -32						; size = 16
$T531096 = -16						; size = 12
__$ArrayPad$ = -4					; size = 4
_vDir$ = 8						; size = 4
?SetMoveDir@ioRotateTargetWeapon@@UAEXABUD3DXVECTOR3@@@Z PROC ; ioRotateTargetWeapon::SetMoveDir, COMDAT
; _this$ = ecx

; 81   : {

  00000	55		 push	 ebp
  00001	8b ec		 mov	 ebp, esp
  00003	83 ec 20	 sub	 esp, 32			; 00000020H
  00006	a1 00 00 00 00	 mov	 eax, DWORD PTR ___security_cookie
  0000b	33 c5		 xor	 eax, ebp
  0000d	89 45 fc	 mov	 DWORD PTR __$ArrayPad$[ebp], eax
  00010	53		 push	 ebx
  00011	56		 push	 esi

; 82   : 	m_vMoveDir = vDir;

  00012	8b 75 08	 mov	 esi, DWORD PTR _vDir$[ebp]
  00015	57		 push	 edi
  00016	8b d9		 mov	 ebx, ecx
  00018	8d bb 98 08 00
	00		 lea	 edi, DWORD PTR [ebx+2200]
  0001e	a5		 movsd
  0001f	a5		 movsd
  00020	a5		 movsd

; 83   : 	m_vAttackDir = m_vMoveDir;

  00021	8b 75 08	 mov	 esi, DWORD PTR _vDir$[ebp]
  00024	8d bb a4 08 00
	00		 lea	 edi, DWORD PTR [ebx+2212]
  0002a	a5		 movsd
  0002b	a5		 movsd
  0002c	a5		 movsd

; 84   : 
; 85   : 	D3DXQUATERNION qtRot;
; 86   : 	ioMath::CalcDirectionQuaternion( qtRot, -m_vMoveDir );

  0002d	f3 0f 10 05 00
	00 00 00	 movss	 xmm0, DWORD PTR __mask@@NegFloat@
  00035	f3 0f 10 8b 98
	08 00 00	 movss	 xmm1, DWORD PTR [ebx+2200]
  0003d	0f 57 c8	 xorps	 xmm1, xmm0
  00040	f3 0f 11 4d f0	 movss	 DWORD PTR $T531096[ebp], xmm1
  00045	f3 0f 10 8b 9c
	08 00 00	 movss	 xmm1, DWORD PTR [ebx+2204]
  0004d	0f 57 c8	 xorps	 xmm1, xmm0
  00050	8d 45 f0	 lea	 eax, DWORD PTR $T531096[ebp]
  00053	50		 push	 eax
  00054	f3 0f 11 4d f4	 movss	 DWORD PTR $T531096[ebp+4], xmm1
  00059	f3 0f 10 8b a0
	08 00 00	 movss	 xmm1, DWORD PTR [ebx+2208]
  00061	8d 45 e0	 lea	 eax, DWORD PTR _qtRot$[ebp]
  00064	0f 57 c8	 xorps	 xmm1, xmm0
  00067	50		 push	 eax
  00068	f3 0f 11 4d f8	 movss	 DWORD PTR $T531096[ebp+8], xmm1
  0006d	ff 15 00 00 00
	00		 call	 DWORD PTR __imp_?CalcDirectionQuaternion@ioMath@@SAXAAUD3DXQUATERNION@@ABUD3DXVECTOR3@@@Z
  00073	59		 pop	 ecx
  00074	59		 pop	 ecx

; 87   : 	SetOrientation( qtRot );

  00075	8d 45 e0	 lea	 eax, DWORD PTR _qtRot$[ebp]
  00078	50		 push	 eax
  00079	8b cb		 mov	 ecx, ebx
  0007b	e8 00 00 00 00	 call	 ?SetOrientation@ioWeapon@@QAEXABUD3DXQUATERNION@@@Z ; ioWeapon::SetOrientation

; 88   : }

  00080	8b 4d fc	 mov	 ecx, DWORD PTR __$ArrayPad$[ebp]
  00083	5f		 pop	 edi
  00084	5e		 pop	 esi
  00085	33 cd		 xor	 ecx, ebp
  00087	5b		 pop	 ebx
  00088	e8 00 00 00 00	 call	 @__security_check_cookie@4
  0008d	c9		 leave
  0008e	c2 04 00	 ret	 4
?SetMoveDir@ioRotateTargetWeapon@@UAEXABUD3DXVECTOR3@@@Z ENDP ; ioRotateTargetWeapon::SetMoveDir
_TEXT	ENDS
PUBLIC	??0TargetInfo@ioRotateTargetWeapon@@QAE@XZ	; ioRotateTargetWeapon::TargetInfo::TargetInfo
EXTRN	__imp_??0ioHashString@@QAE@XZ:PROC
; Function compile flags: /Ogsp
;	COMDAT ??0TargetInfo@ioRotateTargetWeapon@@QAE@XZ
_TEXT	SEGMENT
??0TargetInfo@ioRotateTargetWeapon@@QAE@XZ PROC		; ioRotateTargetWeapon::TargetInfo::TargetInfo, COMDAT
; _this$ = ecx
  00000	56		 push	 esi
  00001	8b f1		 mov	 esi, ecx
  00003	ff 15 00 00 00
	00		 call	 DWORD PTR __imp_??0ioHashString@@QAE@XZ
  00009	8b c6		 mov	 eax, esi
  0000b	5e		 pop	 esi
  0000c	c3		 ret	 0
??0TargetInfo@ioRotateTargetWeapon@@QAE@XZ ENDP		; ioRotateTargetWeapon::TargetInfo::TargetInfo
_TEXT	ENDS
PUBLIC	??_C@_0BM@DELEKFKG@PC?5?9WeaponAddBuff7?5?3?5?$CFd?0?5?$CFd?$AA@ ; `string'
PUBLIC	??_C@_00CNPNBAHC@?$AA@				; `string'
PUBLIC	_pStage$GSCopy$
PUBLIC	__$ArrayPad$
PUBLIC	?SetEndState@ioRotateTargetWeapon@@IAEXPAVioPlayStage@@@Z ; ioRotateTargetWeapon::SetEndState
EXTRN	??1SP2Packet@@UAE@XZ:PROC			; SP2Packet::~SP2Packet
EXTRN	?SendToAllPlayingUser@P2PNetwork@@YAXAAVSP2Packet@@PAVioBaseChar@@@Z:PROC ; P2PNetwork::SendToAllPlayingUser
EXTRN	??6SP2Packet@@QAEAAV0@H@Z:PROC			; SP2Packet::operator<<
EXTRN	??6SP2Packet@@QAEAAV0@M@Z:PROC			; SP2Packet::operator<<
EXTRN	??6SP2Packet@@QAEAAV0@_N@Z:PROC			; SP2Packet::operator<<
EXTRN	??6SP2Packet@@QAEAAV0@K@Z:PROC			; SP2Packet::operator<<
EXTRN	??6SP2Packet@@QAEAAV0@ABVioHashString@@@Z:PROC	; SP2Packet::operator<<
EXTRN	??0SP2Packet@@QAE@K@Z:PROC			; SP2Packet::SP2Packet
EXTRN	__imp_?PrintTimeAndLog@CLog@@QAAXHPADZZ:PROC
EXTRN	__imp_?LOG@@3VCLog@@A:BYTE
EXTRN	?GetAttributeIndex@ioWeapon@@QBEHXZ:PROC	; ioWeapon::GetAttributeIndex
EXTRN	__imp_?GetLoopSec@ioFrameTimer@@QBEKXZ:PROC
EXTRN	__imp_?GetSingleton@ioFrameTimer@@SAAAV1@XZ:PROC
EXTRN	?CheckEnableTimeGapUser@Help@@YA_NH@Z:PROC	; Help::CheckEnableTimeGapUser
EXTRN	?AddNewBuff@ioBaseChar@@QAEPAVioBuff@@ABVioHashString@@00PAVioSkill@@_N@Z:PROC ; ioBaseChar::AddNewBuff
EXTRN	__imp_??0ioHashString@@QAE@PBD@Z:PROC
EXTRN	?GetBaseChar@ioPlayStage@@QAEPAVioBaseChar@@ABVioHashString@@@Z:PROC ; ioPlayStage::GetBaseChar
EXTRN	?GetOwner@ioWeapon@@QBEPAVioBaseChar@@XZ:PROC	; ioWeapon::GetOwner
EXTRN	__chkstk:PROC
;	COMDAT ??_C@_0BM@DELEKFKG@PC?5?9WeaponAddBuff7?5?3?5?$CFd?0?5?$CFd?$AA@
; File c:\program files (x86)\microsoft visual studio 10.0\vc\include\vector
CONST	SEGMENT
??_C@_0BM@DELEKFKG@PC?5?9WeaponAddBuff7?5?3?5?$CFd?0?5?$CFd?$AA@ DB 'PC -'
	DB	'WeaponAddBuff7 : %d, %d', 00H		; `string'
CONST	ENDS
;	COMDAT ??_C@_00CNPNBAHC@?$AA@
CONST	SEGMENT
??_C@_00CNPNBAHC@?$AA@ DB 00H				; `string'
CONST	ENDS
;	COMDAT xdata$x
xdata$x	SEGMENT
__unwindtable$?SetEndState@ioRotateTargetWeapon@@IAEXPAVioPlayStage@@@Z DD 0ffffffffH
	DD	FLAT:__unwindfunclet$?SetEndState@ioRotateTargetWeapon@@IAEXPAVioPlayStage@@@Z$0
	DD	0ffffffffH
	DD	FLAT:__unwindfunclet$?SetEndState@ioRotateTargetWeapon@@IAEXPAVioPlayStage@@@Z$1
__ehfuncinfo$?SetEndState@ioRotateTargetWeapon@@IAEXPAVioPlayStage@@@Z DD 019930522H
	DD	02H
	DD	FLAT:__unwindtable$?SetEndState@ioRotateTargetWeapon@@IAEXPAVioPlayStage@@@Z
	DD	2 DUP(00H)
	DD	2 DUP(00H)
	DD	00H
	DD	01H
; Function compile flags: /Ogsp
; File d:\lost saga for developer\youtube\tutorial\source\src\lsclient\iorotatetargetweapon.cpp
xdata$x	ENDS
;	COMDAT ?SetEndState@ioRotateTargetWeapon@@IAEXPAVioPlayStage@@@Z
_TEXT	SEGMENT
$T534223 = -32848					; size = 16
_pStage$GSCopy$ = -32832				; size = 4
_pOwner$ = -32828					; size = 4
tv281 = -32824						; size = 4
tv259 = -32820						; size = 4
tv468 = -32816						; size = 4
tv455 = -32812						; size = 4
tv442 = -32812						; size = 4
_kPacket$531375 = -32808				; size = 32792
__$ArrayPad$ = -16					; size = 4
__$EHRec$ = -12						; size = 12
_pStage$ = 8						; size = 4
?SetEndState@ioRotateTargetWeapon@@IAEXPAVioPlayStage@@@Z PROC ; ioRotateTargetWeapon::SetEndState, COMDAT
; _this$ = ecx

; 274  : {

  00000	55		 push	 ebp
  00001	8b ec		 mov	 ebp, esp
  00003	6a ff		 push	 -1
  00005	68 00 00 00 00	 push	 __ehhandler$?SetEndState@ioRotateTargetWeapon@@IAEXPAVioPlayStage@@@Z
  0000a	64 a1 00 00 00
	00		 mov	 eax, DWORD PTR fs:0
  00010	50		 push	 eax
  00011	b8 44 80 00 00	 mov	 eax, 32836		; 00008044H
  00016	e8 00 00 00 00	 call	 __chkstk
  0001b	a1 00 00 00 00	 mov	 eax, DWORD PTR ___security_cookie
  00020	33 c5		 xor	 eax, ebp
  00022	89 45 f0	 mov	 DWORD PTR __$ArrayPad$[ebp], eax
  00025	53		 push	 ebx
  00026	56		 push	 esi
  00027	57		 push	 edi
  00028	50		 push	 eax
  00029	8d 45 f4	 lea	 eax, DWORD PTR __$EHRec$[ebp]
  0002c	64 a3 00 00 00
	00		 mov	 DWORD PTR fs:0, eax
  00032	8b 45 08	 mov	 eax, DWORD PTR _pStage$[ebp]
  00035	8b f1		 mov	 esi, ecx

; 299  : 				}
; 300  : 				SP2Packet kPacket( CUPK_ADD_NEW_BUFF );

  00037	89 85 c0 7f ff
	ff		 mov	 DWORD PTR _pStage$GSCopy$[ebp], eax
  0003d	85 c0		 test	 eax, eax
  0003f	0f 84 85 02 00
	00		 je	 $LN10@SetEndStat

; 275  : 	if( !pStage ) return;
; 276  : 
; 277  : 	ioBaseChar *pOwner = GetOwner();

  00045	e8 00 00 00 00	 call	 ?GetOwner@ioWeapon@@QBEPAVioBaseChar@@XZ ; ioWeapon::GetOwner
  0004a	89 85 c4 7f ff
	ff		 mov	 DWORD PTR _pOwner$[ebp], eax

; 278  : 	if( !pOwner ) return;

  00050	85 c0		 test	 eax, eax
  00052	0f 84 72 02 00
	00		 je	 $LN10@SetEndStat

; 279  : 
; 280  : 	m_BallState = BS_END;

  00058	c7 86 94 08 00
	00 02 00 00 00	 mov	 DWORD PTR [esi+2196], 2

; 281  : 	
; 282  : 	int iCnt = m_TargetInfoList.size();

  00062	8b 86 f8 08 00
	00		 mov	 eax, DWORD PTR [esi+2296]
  00068	2b 86 f4 08 00
	00		 sub	 eax, DWORD PTR [esi+2292]
  0006e	6a 1c		 push	 28			; 0000001cH
  00070	99		 cdq
  00071	59		 pop	 ecx
  00072	f7 f9		 idiv	 ecx

; 283  : 	for( int i=0; i<iCnt; ++i )

  00074	85 c0		 test	 eax, eax
  00076	0f 8e 4e 02 00
	00		 jle	 $LN10@SetEndStat

; 279  : 
; 280  : 	m_BallState = BS_END;

  0007c	83 a5 d0 7f ff
	ff 00		 and	 DWORD PTR tv468[ebp], 0
  00083	89 85 cc 7f ff
	ff		 mov	 DWORD PTR tv259[ebp], eax
$LN12@SetEndStat:

; 284  : 	{
; 285  : 		ioBaseChar *pTarget = pStage->GetBaseChar( m_TargetInfoList[i].m_TargetName );

  00089	8b 86 f4 08 00
	00		 mov	 eax, DWORD PTR [esi+2292]
  0008f	03 85 d0 7f ff
	ff		 add	 eax, DWORD PTR tv468[ebp]
  00095	8b 8d c0 7f ff
	ff		 mov	 ecx, DWORD PTR _pStage$GSCopy$[ebp]
  0009b	50		 push	 eax
  0009c	e8 00 00 00 00	 call	 ?GetBaseChar@ioPlayStage@@QAEPAVioBaseChar@@ABVioHashString@@@Z ; ioPlayStage::GetBaseChar
  000a1	8b f8		 mov	 edi, eax

; 286  : 		if( pTarget && pTarget->IsNeedProcess() )

  000a3	85 ff		 test	 edi, edi
  000a5	0f 84 0c 02 00
	00		 je	 $LN11@SetEndStat
  000ab	8b 07		 mov	 eax, DWORD PTR [edi]
  000ad	8b cf		 mov	 ecx, edi
  000af	ff 90 00 01 00
	00		 call	 DWORD PTR [eax+256]
  000b5	84 c0		 test	 al, al
  000b7	0f 84 fa 01 00
	00		 je	 $LN11@SetEndStat

; 287  : 		{
; 288  : 			int iBuffCnt = m_TargetEndBuff.size();

  000bd	8b 9e 68 09 00
	00		 mov	 ebx, DWORD PTR [esi+2408]
  000c3	2b 9e 64 09 00
	00		 sub	 ebx, DWORD PTR [esi+2404]
  000c9	c1 fb 04	 sar	 ebx, 4

; 289  : 			for( int j=0; j<iBuffCnt; ++j )

  000cc	85 db		 test	 ebx, ebx
  000ce	7e 6b		 jle	 SHORT $LN6@SetEndStat

; 287  : 		{
; 288  : 			int iBuffCnt = m_TargetEndBuff.size();

  000d0	83 a5 d4 7f ff
	ff 00		 and	 DWORD PTR tv442[ebp], 0
  000d7	89 9d c8 7f ff
	ff		 mov	 DWORD PTR tv281[ebp], ebx
$LL8@SetEndStat:

; 290  : 			{
; 291  : 				pTarget->AddNewBuff( m_TargetEndBuff[j], pOwner->GetCharName(), "", NULL );

  000dd	68 00 00 00 00	 push	 OFFSET ??_C@_00CNPNBAHC@?$AA@
  000e2	8d 8d b0 7f ff
	ff		 lea	 ecx, DWORD PTR $T534223[ebp]
  000e8	ff 15 00 00 00
	00		 call	 DWORD PTR __imp_??0ioHashString@@QAE@PBD@Z
  000ee	33 c0		 xor	 eax, eax
  000f0	50		 push	 eax
  000f1	50		 push	 eax
  000f2	89 45 fc	 mov	 DWORD PTR __$EHRec$[ebp+8], eax
  000f5	8d 85 b0 7f ff
	ff		 lea	 eax, DWORD PTR $T534223[ebp]
  000fb	50		 push	 eax
  000fc	8b 85 c4 7f ff
	ff		 mov	 eax, DWORD PTR _pOwner$[ebp]
  00102	05 d4 02 00 00	 add	 eax, 724		; 000002d4H
  00107	50		 push	 eax
  00108	8b 86 64 09 00
	00		 mov	 eax, DWORD PTR [esi+2404]
  0010e	03 85 d4 7f ff
	ff		 add	 eax, DWORD PTR tv442[ebp]
  00114	8b cf		 mov	 ecx, edi
  00116	50		 push	 eax
  00117	e8 00 00 00 00	 call	 ?AddNewBuff@ioBaseChar@@QAEPAVioBuff@@ABVioHashString@@00PAVioSkill@@_N@Z ; ioBaseChar::AddNewBuff
  0011c	83 4d fc ff	 or	 DWORD PTR __$EHRec$[ebp+8], -1
  00120	8d 8d b0 7f ff
	ff		 lea	 ecx, DWORD PTR $T534223[ebp]
  00126	ff 15 00 00 00
	00		 call	 DWORD PTR __imp_??1ioHashString@@QAE@XZ
  0012c	83 85 d4 7f ff
	ff 10		 add	 DWORD PTR tv442[ebp], 16 ; 00000010H
  00133	ff 8d c8 7f ff
	ff		 dec	 DWORD PTR tv281[ebp]
  00139	75 a2		 jne	 SHORT $LL8@SetEndStat
$LN6@SetEndStat:

; 292  : 			}
; 293  : 
; 294  : 			if( pTarget->IsNeedSendNetwork() )

  0013b	8b 07		 mov	 eax, DWORD PTR [edi]
  0013d	8b cf		 mov	 ecx, edi
  0013f	ff 90 04 01 00
	00		 call	 DWORD PTR [eax+260]
  00145	84 c0		 test	 al, al
  00147	0f 84 6a 01 00
	00		 je	 $LN11@SetEndStat

; 295  : 			{
; 296  : 				if( Help::CheckEnableTimeGapUser() )

  0014d	6a 00		 push	 0
  0014f	e8 00 00 00 00	 call	 ?CheckEnableTimeGapUser@Help@@YA_NH@Z ; Help::CheckEnableTimeGapUser
  00154	59		 pop	 ecx
  00155	84 c0		 test	 al, al
  00157	74 2d		 je	 SHORT $LN4@SetEndStat

; 297  : 				{
; 298  : 					LOG.PrintTimeAndLog( 0, "PC -WeaponAddBuff7 : %d, %d", GetAttributeIndex(), FRAMEGETTIME() );

  00159	ff 15 00 00 00
	00		 call	 DWORD PTR __imp_?GetSingleton@ioFrameTimer@@SAAAV1@XZ
  0015f	8b c8		 mov	 ecx, eax
  00161	ff 15 00 00 00
	00		 call	 DWORD PTR __imp_?GetLoopSec@ioFrameTimer@@QBEKXZ
  00167	50		 push	 eax
  00168	8b ce		 mov	 ecx, esi
  0016a	e8 00 00 00 00	 call	 ?GetAttributeIndex@ioWeapon@@QBEHXZ ; ioWeapon::GetAttributeIndex
  0016f	50		 push	 eax
  00170	68 00 00 00 00	 push	 OFFSET ??_C@_0BM@DELEKFKG@PC?5?9WeaponAddBuff7?5?3?5?$CFd?0?5?$CFd?$AA@
  00175	6a 00		 push	 0
  00177	ff 35 00 00 00
	00		 push	 DWORD PTR __imp_?LOG@@3VCLog@@A
  0017d	ff 15 00 00 00
	00		 call	 DWORD PTR __imp_?PrintTimeAndLog@CLog@@QAAXHPADZZ
  00183	83 c4 14	 add	 esp, 20			; 00000014H
$LN4@SetEndStat:

; 299  : 				}
; 300  : 				SP2Packet kPacket( CUPK_ADD_NEW_BUFF );

  00186	68 31 41 00 00	 push	 16689			; 00004131H
  0018b	8d 8d d8 7f ff
	ff		 lea	 ecx, DWORD PTR _kPacket$531375[ebp]
  00191	e8 00 00 00 00	 call	 ??0SP2Packet@@QAE@K@Z	; SP2Packet::SP2Packet

; 301  : 				kPacket << pTarget->GetCharName();

  00196	8d 87 d4 02 00
	00		 lea	 eax, DWORD PTR [edi+724]
  0019c	50		 push	 eax
  0019d	8d 8d d8 7f ff
	ff		 lea	 ecx, DWORD PTR _kPacket$531375[ebp]
  001a3	c7 45 fc 01 00
	00 00		 mov	 DWORD PTR __$EHRec$[ebp+8], 1
  001aa	e8 00 00 00 00	 call	 ??6SP2Packet@@QAEAAV0@ABVioHashString@@@Z ; SP2Packet::operator<<

; 302  : 				kPacket << GetOwnerName();

  001af	8d 46 10	 lea	 eax, DWORD PTR [esi+16]
  001b2	50		 push	 eax
  001b3	8d 8d d8 7f ff
	ff		 lea	 ecx, DWORD PTR _kPacket$531375[ebp]
  001b9	e8 00 00 00 00	 call	 ??6SP2Packet@@QAEAAV0@ABVioHashString@@@Z ; SP2Packet::operator<<

; 303  : 				kPacket << GetCreateItem();

  001be	8d 46 20	 lea	 eax, DWORD PTR [esi+32]
  001c1	50		 push	 eax
  001c2	8d 8d d8 7f ff
	ff		 lea	 ecx, DWORD PTR _kPacket$531375[ebp]
  001c8	e8 00 00 00 00	 call	 ??6SP2Packet@@QAEAAV0@ABVioHashString@@@Z ; SP2Packet::operator<<

; 304  : 				kPacket << pTarget->GetRandomSeed();

  001cd	ff b7 74 16 00
	00		 push	 DWORD PTR [edi+5748]
  001d3	8d 8d d8 7f ff
	ff		 lea	 ecx, DWORD PTR _kPacket$531375[ebp]
  001d9	e8 00 00 00 00	 call	 ??6SP2Packet@@QAEAAV0@K@Z ; SP2Packet::operator<<

; 305  : 
; 306  : 				kPacket << false;		//  

  001de	33 ff		 xor	 edi, edi
  001e0	57		 push	 edi
  001e1	8d 8d d8 7f ff
	ff		 lea	 ecx, DWORD PTR _kPacket$531375[ebp]
  001e7	e8 00 00 00 00	 call	 ??6SP2Packet@@QAEAAV0@_N@Z ; SP2Packet::operator<<

; 307  : 				kPacket << 0.0f;

  001ec	0f 57 c0	 xorps	 xmm0, xmm0
  001ef	51		 push	 ecx
  001f0	8d 8d d8 7f ff
	ff		 lea	 ecx, DWORD PTR _kPacket$531375[ebp]
  001f6	f3 0f 11 04 24	 movss	 DWORD PTR [esp], xmm0
  001fb	e8 00 00 00 00	 call	 ??6SP2Packet@@QAEAAV0@M@Z ; SP2Packet::operator<<

; 308  : 				kPacket << 0.0f;

  00200	0f 57 c0	 xorps	 xmm0, xmm0
  00203	51		 push	 ecx
  00204	8d 8d d8 7f ff
	ff		 lea	 ecx, DWORD PTR _kPacket$531375[ebp]
  0020a	f3 0f 11 04 24	 movss	 DWORD PTR [esp], xmm0
  0020f	e8 00 00 00 00	 call	 ??6SP2Packet@@QAEAAV0@M@Z ; SP2Packet::operator<<

; 309  : 				kPacket << 0.0f;

  00214	0f 57 c0	 xorps	 xmm0, xmm0
  00217	51		 push	 ecx
  00218	8d 8d d8 7f ff
	ff		 lea	 ecx, DWORD PTR _kPacket$531375[ebp]
  0021e	f3 0f 11 04 24	 movss	 DWORD PTR [esp], xmm0
  00223	e8 00 00 00 00	 call	 ??6SP2Packet@@QAEAAV0@M@Z ; SP2Packet::operator<<

; 310  : 
; 311  : 				kPacket << COWT_WEAPON;			// Check CloseOrderBuff(12.07.13 )

  00228	6a 02		 push	 2
  0022a	8d 8d d8 7f ff
	ff		 lea	 ecx, DWORD PTR _kPacket$531375[ebp]
  00230	e8 00 00 00 00	 call	 ??6SP2Packet@@QAEAAV0@H@Z ; SP2Packet::operator<<

; 312  : 				kPacket << GetOwnerName();

  00235	8d 46 10	 lea	 eax, DWORD PTR [esi+16]
  00238	50		 push	 eax
  00239	8d 8d d8 7f ff
	ff		 lea	 ecx, DWORD PTR _kPacket$531375[ebp]
  0023f	e8 00 00 00 00	 call	 ??6SP2Packet@@QAEAAV0@ABVioHashString@@@Z ; SP2Packet::operator<<

; 313  : 				kPacket << GetWeaponIndex();

  00244	ff b6 b8 04 00
	00		 push	 DWORD PTR [esi+1208]
  0024a	8d 8d d8 7f ff
	ff		 lea	 ecx, DWORD PTR _kPacket$531375[ebp]
  00250	e8 00 00 00 00	 call	 ??6SP2Packet@@QAEAAV0@K@Z ; SP2Packet::operator<<

; 314  : 
; 315  : 				kPacket << iBuffCnt;

  00255	53		 push	 ebx
  00256	8d 8d d8 7f ff
	ff		 lea	 ecx, DWORD PTR _kPacket$531375[ebp]
  0025c	e8 00 00 00 00	 call	 ??6SP2Packet@@QAEAAV0@H@Z ; SP2Packet::operator<<

; 316  : 
; 317  : 				for( int j=0; j<iBuffCnt; ++j )

  00261	3b df		 cmp	 ebx, edi
  00263	7e 28		 jle	 SHORT $LN1@SetEndStat

; 299  : 				}
; 300  : 				SP2Packet kPacket( CUPK_ADD_NEW_BUFF );

  00265	89 bd d4 7f ff
	ff		 mov	 DWORD PTR tv455[ebp], edi
$LN3@SetEndStat:

; 316  : 
; 317  : 				for( int j=0; j<iBuffCnt; ++j )

  0026b	8b 86 64 09 00
	00		 mov	 eax, DWORD PTR [esi+2404]
  00271	03 85 d4 7f ff
	ff		 add	 eax, DWORD PTR tv455[ebp]

; 318  : 				{
; 319  : 					kPacket << m_TargetEndBuff[j];

  00277	8d 8d d8 7f ff
	ff		 lea	 ecx, DWORD PTR _kPacket$531375[ebp]
  0027d	50		 push	 eax
  0027e	e8 00 00 00 00	 call	 ??6SP2Packet@@QAEAAV0@ABVioHashString@@@Z ; SP2Packet::operator<<
  00283	83 85 d4 7f ff
	ff 10		 add	 DWORD PTR tv455[ebp], 16 ; 00000010H
  0028a	4b		 dec	 ebx
  0028b	75 de		 jne	 SHORT $LN3@SetEndStat
$LN1@SetEndStat:

; 320  : 				}
; 321  : 
; 322  : 				kPacket << false;					// Use Force

  0028d	57		 push	 edi
  0028e	8d 8d d8 7f ff
	ff		 lea	 ecx, DWORD PTR _kPacket$531375[ebp]
  00294	e8 00 00 00 00	 call	 ??6SP2Packet@@QAEAAV0@_N@Z ; SP2Packet::operator<<

; 323  : 
; 324  : 				P2PNetwork::SendToAllPlayingUser( kPacket );

  00299	8d 85 d8 7f ff
	ff		 lea	 eax, DWORD PTR _kPacket$531375[ebp]
  0029f	57		 push	 edi
  002a0	50		 push	 eax
  002a1	e8 00 00 00 00	 call	 ?SendToAllPlayingUser@P2PNetwork@@YAXAAVSP2Packet@@PAVioBaseChar@@@Z ; P2PNetwork::SendToAllPlayingUser

; 325  : 			}

  002a6	83 4d fc ff	 or	 DWORD PTR __$EHRec$[ebp+8], -1
  002aa	59		 pop	 ecx
  002ab	59		 pop	 ecx
  002ac	8d 8d d8 7f ff
	ff		 lea	 ecx, DWORD PTR _kPacket$531375[ebp]
  002b2	e8 00 00 00 00	 call	 ??1SP2Packet@@UAE@XZ	; SP2Packet::~SP2Packet
$LN11@SetEndStat:

; 283  : 	for( int i=0; i<iCnt; ++i )

  002b7	83 85 d0 7f ff
	ff 1c		 add	 DWORD PTR tv468[ebp], 28 ; 0000001cH
  002be	ff 8d cc 7f ff
	ff		 dec	 DWORD PTR tv259[ebp]
  002c4	0f 85 bf fd ff
	ff		 jne	 $LN12@SetEndStat
$LN10@SetEndStat:

; 326  : 		}
; 327  : 	}
; 328  : }

  002ca	8b 4d f4	 mov	 ecx, DWORD PTR __$EHRec$[ebp]
  002cd	64 89 0d 00 00
	00 00		 mov	 DWORD PTR fs:0, ecx
  002d4	59		 pop	 ecx
  002d5	5f		 pop	 edi
  002d6	5e		 pop	 esi
  002d7	5b		 pop	 ebx
  002d8	8b 4d f0	 mov	 ecx, DWORD PTR __$ArrayPad$[ebp]
  002db	33 cd		 xor	 ecx, ebp
  002dd	e8 00 00 00 00	 call	 @__security_check_cookie@4
  002e2	c9		 leave
  002e3	c2 04 00	 ret	 4
_TEXT	ENDS
;	COMDAT text$x
text$x	SEGMENT
__unwindfunclet$?SetEndState@ioRotateTargetWeapon@@IAEXPAVioPlayStage@@@Z$0:
  00000	8d 8d b0 7f ff
	ff		 lea	 ecx, DWORD PTR $T534223[ebp]
  00006	ff 25 00 00 00
	00		 jmp	 DWORD PTR __imp_??1ioHashString@@QAE@XZ
__unwindfunclet$?SetEndState@ioRotateTargetWeapon@@IAEXPAVioPlayStage@@@Z$1:
  0000c	8d 8d d8 7f ff
	ff		 lea	 ecx, DWORD PTR _kPacket$531375[ebp]
  00012	e9 00 00 00 00	 jmp	 ??1SP2Packet@@UAE@XZ	; SP2Packet::~SP2Packet
__ehhandler$?SetEndState@ioRotateTargetWeapon@@IAEXPAVioPlayStage@@@Z:
  00017	8b 54 24 08	 mov	 edx, DWORD PTR [esp+8]
  0001b	8d 42 0c	 lea	 eax, DWORD PTR [edx+12]
  0001e	8b 8a ac 7f ff
	ff		 mov	 ecx, DWORD PTR [edx-32852]
  00024	33 c8		 xor	 ecx, eax
  00026	e8 00 00 00 00	 call	 @__security_check_cookie@4
  0002b	8b 4a fc	 mov	 ecx, DWORD PTR [edx-4]
  0002e	33 c8		 xor	 ecx, eax
  00030	e8 00 00 00 00	 call	 @__security_check_cookie@4
  00035	b8 00 00 00 00	 mov	 eax, OFFSET __ehfuncinfo$?SetEndState@ioRotateTargetWeapon@@IAEXPAVioPlayStage@@@Z
  0003a	e9 00 00 00 00	 jmp	 ___CxxFrameHandler3
text$x	ENDS
?SetEndState@ioRotateTargetWeapon@@IAEXPAVioPlayStage@@@Z ENDP ; ioRotateTargetWeapon::SetEndState
PUBLIC	__$ArrayPad$
PUBLIC	?SendExceptionTarget@ioRotateTargetWeapon@@IAEXPAVioBaseChar@@@Z ; ioRotateTargetWeapon::SendExceptionTarget
;	COMDAT xdata$x
; File d:\lost saga for developer\youtube\tutorial\source\src\lsclient\iobasechar.h
xdata$x	SEGMENT
__unwindtable$?SendExceptionTarget@ioRotateTargetWeapon@@IAEXPAVioBaseChar@@@Z DD 0ffffffffH
	DD	FLAT:__unwindfunclet$?SendExceptionTarget@ioRotateTargetWeapon@@IAEXPAVioBaseChar@@@Z$0
__ehfuncinfo$?SendExceptionTarget@ioRotateTargetWeapon@@IAEXPAVioBaseChar@@@Z DD 019930522H
	DD	01H
	DD	FLAT:__unwindtable$?SendExceptionTarget@ioRotateTargetWeapon@@IAEXPAVioBaseChar@@@Z
	DD	2 DUP(00H)
	DD	2 DUP(00H)
	DD	00H
	DD	01H
; Function compile flags: /Ogsp
; File d:\lost saga for developer\youtube\tutorial\source\src\lsclient\iorotatetargetweapon.cpp
xdata$x	ENDS
;	COMDAT ?SendExceptionTarget@ioRotateTargetWeapon@@IAEXPAVioBaseChar@@@Z
_TEXT	SEGMENT
_kPacket$531435 = -32808				; size = 32792
__$ArrayPad$ = -16					; size = 4
__$EHRec$ = -12						; size = 12
_pTarget$ = 8						; size = 4
?SendExceptionTarget@ioRotateTargetWeapon@@IAEXPAVioBaseChar@@@Z PROC ; ioRotateTargetWeapon::SendExceptionTarget, COMDAT
; _this$ = ecx

; 405  : {

  00000	55		 push	 ebp
  00001	8b ec		 mov	 ebp, esp
  00003	6a ff		 push	 -1
  00005	68 00 00 00 00	 push	 __ehhandler$?SendExceptionTarget@ioRotateTargetWeapon@@IAEXPAVioBaseChar@@@Z
  0000a	64 a1 00 00 00
	00		 mov	 eax, DWORD PTR fs:0
  00010	50		 push	 eax
  00011	b8 1c 80 00 00	 mov	 eax, 32796		; 0000801cH
  00016	e8 00 00 00 00	 call	 __chkstk
  0001b	a1 00 00 00 00	 mov	 eax, DWORD PTR ___security_cookie
  00020	33 c5		 xor	 eax, ebp
  00022	89 45 f0	 mov	 DWORD PTR __$ArrayPad$[ebp], eax
  00025	56		 push	 esi
  00026	57		 push	 edi
  00027	50		 push	 eax
  00028	8d 45 f4	 lea	 eax, DWORD PTR __$EHRec$[ebp]
  0002b	64 a3 00 00 00
	00		 mov	 DWORD PTR fs:0, eax
  00031	8b 75 08	 mov	 esi, DWORD PTR _pTarget$[ebp]
  00034	8b f9		 mov	 edi, ecx

; 406  : 	if( !pTarget )

  00036	85 f6		 test	 esi, esi
  00038	0f 84 80 00 00
	00		 je	 $LN1@SendExcept

; 407  : 		return;
; 408  : 	
; 409  : 	if( pTarget->IsNeedSendNetwork() )

  0003e	8b 06		 mov	 eax, DWORD PTR [esi]
  00040	8b ce		 mov	 ecx, esi
  00042	ff 90 04 01 00
	00		 call	 DWORD PTR [eax+260]
  00048	84 c0		 test	 al, al
  0004a	74 72		 je	 SHORT $LN1@SendExcept

; 410  : 	{
; 411  : 		SP2Packet kPacket( CUPK_WEAPON_SYNC );

  0004c	68 16 42 00 00	 push	 16918			; 00004216H
  00051	8d 8d d8 7f ff
	ff		 lea	 ecx, DWORD PTR _kPacket$531435[ebp]
  00057	e8 00 00 00 00	 call	 ??0SP2Packet@@QAE@K@Z	; SP2Packet::SP2Packet
  0005c	83 65 fc 00	 and	 DWORD PTR __$EHRec$[ebp+8], 0

; 412  : 		kPacket << GetOwnerName();

  00060	8d 47 10	 lea	 eax, DWORD PTR [edi+16]
  00063	50		 push	 eax
  00064	8d 8d d8 7f ff
	ff		 lea	 ecx, DWORD PTR _kPacket$531435[ebp]
  0006a	e8 00 00 00 00	 call	 ??6SP2Packet@@QAEAAV0@ABVioHashString@@@Z ; SP2Packet::operator<<

; 413  : 		kPacket << m_dwWeaponIdx;

  0006f	ff b7 b8 04 00
	00		 push	 DWORD PTR [edi+1208]
  00075	8d 8d d8 7f ff
	ff		 lea	 ecx, DWORD PTR _kPacket$531435[ebp]
  0007b	e8 00 00 00 00	 call	 ??6SP2Packet@@QAEAAV0@K@Z ; SP2Packet::operator<<

; 414  : 		kPacket << SS_EXCEPTION;

  00080	6a 01		 push	 1
  00082	8d 8d d8 7f ff
	ff		 lea	 ecx, DWORD PTR _kPacket$531435[ebp]
  00088	e8 00 00 00 00	 call	 ??6SP2Packet@@QAEAAV0@H@Z ; SP2Packet::operator<<

; 415  : 		kPacket << pTarget->GetCharName();

  0008d	81 c6 d4 02 00
	00		 add	 esi, 724		; 000002d4H
  00093	56		 push	 esi
  00094	8d 8d d8 7f ff
	ff		 lea	 ecx, DWORD PTR _kPacket$531435[ebp]
  0009a	e8 00 00 00 00	 call	 ??6SP2Packet@@QAEAAV0@ABVioHashString@@@Z ; SP2Packet::operator<<

; 416  : 		P2PNetwork::SendToAllPlayingUser( kPacket );

  0009f	8d 85 d8 7f ff
	ff		 lea	 eax, DWORD PTR _kPacket$531435[ebp]
  000a5	6a 00		 push	 0
  000a7	50		 push	 eax
  000a8	e8 00 00 00 00	 call	 ?SendToAllPlayingUser@P2PNetwork@@YAXAAVSP2Packet@@PAVioBaseChar@@@Z ; P2PNetwork::SendToAllPlayingUser

; 417  : 	}

  000ad	83 4d fc ff	 or	 DWORD PTR __$EHRec$[ebp+8], -1
  000b1	59		 pop	 ecx
  000b2	59		 pop	 ecx
  000b3	8d 8d d8 7f ff
	ff		 lea	 ecx, DWORD PTR _kPacket$531435[ebp]
  000b9	e8 00 00 00 00	 call	 ??1SP2Packet@@UAE@XZ	; SP2Packet::~SP2Packet
$LN1@SendExcept:

; 418  : }

  000be	8b 4d f4	 mov	 ecx, DWORD PTR __$EHRec$[ebp]
  000c1	64 89 0d 00 00
	00 00		 mov	 DWORD PTR fs:0, ecx
  000c8	59		 pop	 ecx
  000c9	5f		 pop	 edi
  000ca	5e		 pop	 esi
  000cb	8b 4d f0	 mov	 ecx, DWORD PTR __$ArrayPad$[ebp]
  000ce	33 cd		 xor	 ecx, ebp
  000d0	e8 00 00 00 00	 call	 @__security_check_cookie@4
  000d5	c9		 leave
  000d6	c2 04 00	 ret	 4
_TEXT	ENDS
;	COMDAT text$x
text$x	SEGMENT
__unwindfunclet$?SendExceptionTarget@ioRotateTargetWeapon@@IAEXPAVioBaseChar@@@Z$0:
  00000	8d 8d d8 7f ff
	ff		 lea	 ecx, DWORD PTR _kPacket$531435[ebp]
  00006	e9 00 00 00 00	 jmp	 ??1SP2Packet@@UAE@XZ	; SP2Packet::~SP2Packet
__ehhandler$?SendExceptionTarget@ioRotateTargetWeapon@@IAEXPAVioBaseChar@@@Z:
  0000b	8b 54 24 08	 mov	 edx, DWORD PTR [esp+8]
  0000f	8d 42 0c	 lea	 eax, DWORD PTR [edx+12]
  00012	8b 8a d8 7f ff
	ff		 mov	 ecx, DWORD PTR [edx-32808]
  00018	33 c8		 xor	 ecx, eax
  0001a	e8 00 00 00 00	 call	 @__security_check_cookie@4
  0001f	8b 4a fc	 mov	 ecx, DWORD PTR [edx-4]
  00022	33 c8		 xor	 ecx, eax
  00024	e8 00 00 00 00	 call	 @__security_check_cookie@4
  00029	b8 00 00 00 00	 mov	 eax, OFFSET __ehfuncinfo$?SendExceptionTarget@ioRotateTargetWeapon@@IAEXPAVioBaseChar@@@Z
  0002e	e9 00 00 00 00	 jmp	 ___CxxFrameHandler3
text$x	ENDS
?SendExceptionTarget@ioRotateTargetWeapon@@IAEXPAVioBaseChar@@@Z ENDP ; ioRotateTargetWeapon::SendExceptionTarget
PUBLIC	??D?$CEncrypt@M@@QAEMABM@Z			; CEncrypt<float>::operator*
; Function compile flags: /Ogsp
; File d:\lost saga for developer\youtube\tutorial\source\src\lsclient\encryptvalue.h
;	COMDAT ??D?$CEncrypt@M@@QAEMABM@Z
_TEXT	SEGMENT
_value$ = -4						; size = 4
tv130 = 8						; size = 4
_inValue$ = 8						; size = 4
??D?$CEncrypt@M@@QAEMABM@Z PROC				; CEncrypt<float>::operator*, COMDAT
; _this$ = ecx

; 1685 : 	{	

  00000	55		 push	 ebp
  00001	8b ec		 mov	 ebp, esp
  00003	51		 push	 ecx

; 1686 : 		type value;
; 1687 : 		DecryptValueToPool(&value);

  00004	8d 45 fc	 lea	 eax, DWORD PTR _value$[ebp]
  00007	50		 push	 eax
  00008	e8 00 00 00 00	 call	 ?DecryptValueToPool@?$CEncrypt@M@@QAEXPAM@Z ; CEncrypt<float>::DecryptValueToPool

; 1688 : #ifdef _NOTUSE
; 1689 : 		Debug();
; 1690 : #endif
; 1691 : 		return value * inValue;

  0000d	8b 45 08	 mov	 eax, DWORD PTR _inValue$[ebp]
  00010	d9 00		 fld	 DWORD PTR [eax]
  00012	d8 4d fc	 fmul	 DWORD PTR _value$[ebp]
  00015	d9 5d 08	 fstp	 DWORD PTR tv130[ebp]
  00018	d9 45 08	 fld	 DWORD PTR tv130[ebp]

; 1692 : 	}

  0001b	c9		 leave
  0001c	c2 04 00	 ret	 4
??D?$CEncrypt@M@@QAEMABM@Z ENDP				; CEncrypt<float>::operator*
_TEXT	ENDS
PUBLIC	??D?$_Vector_iterator@V?$_Vector_val@UTargetInfo@ioRotateTargetWeapon@@V?$allocator@UTargetInfo@ioRotateTargetWeapon@@@std@@@std@@@std@@QBEAAUTargetInfo@ioRotateTargetWeapon@@XZ ; std::_Vector_iterator<std::_Vector_val<ioRotateTargetWeapon::TargetInfo,std::allocator<ioRotateTargetWeapon::TargetInfo> > >::operator*
; Function compile flags: /Ogsp
; File c:\program files (x86)\microsoft visual studio 10.0\vc\include\vector
;	COMDAT ??D?$_Vector_iterator@V?$_Vector_val@UTargetInfo@ioRotateTargetWeapon@@V?$allocator@UTargetInfo@ioRotateTargetWeapon@@@std@@@std@@@std@@QBEAAUTargetInfo@ioRotateTargetWeapon@@XZ
_TEXT	SEGMENT
??D?$_Vector_iterator@V?$_Vector_val@UTargetInfo@ioRotateTargetWeapon@@V?$allocator@UTargetInfo@ioRotateTargetWeapon@@@std@@@std@@@std@@QBEAAUTargetInfo@ioRotateTargetWeapon@@XZ PROC ; std::_Vector_iterator<std::_Vector_val<ioRotateTargetWeapon::TargetInfo,std::allocator<ioRotateTargetWeapon::TargetInfo> > >::operator*, COMDAT
; _this$ = ecx

; 322  : 		return ((reference)**(_Mybase *)this);

  00000	8b 01		 mov	 eax, DWORD PTR [ecx]

; 323  : 		}

  00002	c3		 ret	 0
??D?$_Vector_iterator@V?$_Vector_val@UTargetInfo@ioRotateTargetWeapon@@V?$allocator@UTargetInfo@ioRotateTargetWeapon@@@std@@@std@@@std@@QBEAAUTargetInfo@ioRotateTargetWeapon@@XZ ENDP ; std::_Vector_iterator<std::_Vector_val<ioRotateTargetWeapon::TargetInfo,std::allocator<ioRotateTargetWeapon::TargetInfo> > >::operator*
_TEXT	ENDS
PUBLIC	??E?$_Vector_iterator@V?$_Vector_val@UTargetInfo@ioRotateTargetWeapon@@V?$allocator@UTargetInfo@ioRotateTargetWeapon@@@std@@@std@@@std@@QAEAAV01@XZ ; std::_Vector_iterator<std::_Vector_val<ioRotateTargetWeapon::TargetInfo,std::allocator<ioRotateTargetWeapon::TargetInfo> > >::operator++
; Function compile flags: /Ogsp
;	COMDAT ??E?$_Vector_iterator@V?$_Vector_val@UTargetInfo@ioRotateTargetWeapon@@V?$allocator@UTargetInfo@ioRotateTargetWeapon@@@std@@@std@@@std@@QAEAAV01@XZ
_TEXT	SEGMENT
??E?$_Vector_iterator@V?$_Vector_val@UTargetInfo@ioRotateTargetWeapon@@V?$allocator@UTargetInfo@ioRotateTargetWeapon@@@std@@@std@@@std@@QAEAAV01@XZ PROC ; std::_Vector_iterator<std::_Vector_val<ioRotateTargetWeapon::TargetInfo,std::allocator<ioRotateTargetWeapon::TargetInfo> > >::operator++, COMDAT
; _this$ = ecx

; 331  : 		{	// preincrement

  00000	8b c1		 mov	 eax, ecx

; 332  : 		++*(_Mybase *)this;

  00002	83 00 1c	 add	 DWORD PTR [eax], 28	; 0000001cH

; 333  : 		return (*this);
; 334  : 		}

  00005	c3		 ret	 0
??E?$_Vector_iterator@V?$_Vector_val@UTargetInfo@ioRotateTargetWeapon@@V?$allocator@UTargetInfo@ioRotateTargetWeapon@@@std@@@std@@@std@@QAEAAV01@XZ ENDP ; std::_Vector_iterator<std::_Vector_val<ioRotateTargetWeapon::TargetInfo,std::allocator<ioRotateTargetWeapon::TargetInfo> > >::operator++
_TEXT	ENDS
PUBLIC	??0?$_Vector_val@UTargetInfo@ioRotateTargetWeapon@@V?$allocator@UTargetInfo@ioRotateTargetWeapon@@@std@@@std@@QAE@V?$allocator@UTargetInfo@ioRotateTargetWeapon@@@1@@Z ; std::_Vector_val<ioRotateTargetWeapon::TargetInfo,std::allocator<ioRotateTargetWeapon::TargetInfo> >::_Vector_val<ioRotateTargetWeapon::TargetInfo,std::allocator<ioRotateTargetWeapon::TargetInfo> >
; Function compile flags: /Ogsp
;	COMDAT ??0?$_Vector_val@UTargetInfo@ioRotateTargetWeapon@@V?$allocator@UTargetInfo@ioRotateTargetWeapon@@@std@@@std@@QAE@V?$allocator@UTargetInfo@ioRotateTargetWeapon@@@1@@Z
_TEXT	SEGMENT
__Al$ = 8						; size = 1
??0?$_Vector_val@UTargetInfo@ioRotateTargetWeapon@@V?$allocator@UTargetInfo@ioRotateTargetWeapon@@@std@@@std@@QAE@V?$allocator@UTargetInfo@ioRotateTargetWeapon@@@1@@Z PROC ; std::_Vector_val<ioRotateTargetWeapon::TargetInfo,std::allocator<ioRotateTargetWeapon::TargetInfo> >::_Vector_val<ioRotateTargetWeapon::TargetInfo,std::allocator<ioRotateTargetWeapon::TargetInfo> >, COMDAT
; _this$ = ecx

; 426  : 		{	// construct allocator from _Al

  00000	8b c1		 mov	 eax, ecx

; 427  : 		_Myfirst = 0;

  00002	33 c9		 xor	 ecx, ecx
  00004	89 08		 mov	 DWORD PTR [eax], ecx

; 428  : 		_Mylast = 0;

  00006	89 48 04	 mov	 DWORD PTR [eax+4], ecx

; 429  : 		_Myend = 0;

  00009	89 48 08	 mov	 DWORD PTR [eax+8], ecx

; 430  : 		}

  0000c	c2 04 00	 ret	 4
??0?$_Vector_val@UTargetInfo@ioRotateTargetWeapon@@V?$allocator@UTargetInfo@ioRotateTargetWeapon@@@std@@@std@@QAE@V?$allocator@UTargetInfo@ioRotateTargetWeapon@@@1@@Z ENDP ; std::_Vector_val<ioRotateTargetWeapon::TargetInfo,std::allocator<ioRotateTargetWeapon::TargetInfo> >::_Vector_val<ioRotateTargetWeapon::TargetInfo,std::allocator<ioRotateTargetWeapon::TargetInfo> >
_TEXT	ENDS
PUBLIC	??0?$_Vector_iterator@V?$_Vector_val@UTargetInfo@ioRotateTargetWeapon@@V?$allocator@UTargetInfo@ioRotateTargetWeapon@@@std@@@std@@@std@@QAE@PAUTargetInfo@ioRotateTargetWeapon@@PBU_Container_base0@1@@Z ; std::_Vector_iterator<std::_Vector_val<ioRotateTargetWeapon::TargetInfo,std::allocator<ioRotateTargetWeapon::TargetInfo> > >::_Vector_iterator<std::_Vector_val<ioRotateTargetWeapon::TargetInfo,std::allocator<ioRotateTargetWeapon::TargetInfo> > >
; Function compile flags: /Ogsp
;	COMDAT ??0?$_Vector_iterator@V?$_Vector_val@UTargetInfo@ioRotateTargetWeapon@@V?$allocator@UTargetInfo@ioRotateTargetWeapon@@@std@@@std@@@std@@QAE@PAUTargetInfo@ioRotateTargetWeapon@@PBU_Container_base0@1@@Z
_TEXT	SEGMENT
__Parg$ = 8						; size = 4
__Pvector$ = 12						; size = 4
??0?$_Vector_iterator@V?$_Vector_val@UTargetInfo@ioRotateTargetWeapon@@V?$allocator@UTargetInfo@ioRotateTargetWeapon@@@std@@@std@@@std@@QAE@PAUTargetInfo@ioRotateTargetWeapon@@PBU_Container_base0@1@@Z PROC ; std::_Vector_iterator<std::_Vector_val<ioRotateTargetWeapon::TargetInfo,std::allocator<ioRotateTargetWeapon::TargetInfo> > >::_Vector_iterator<std::_Vector_val<ioRotateTargetWeapon::TargetInfo,std::allocator<ioRotateTargetWeapon::TargetInfo> > >, COMDAT
; _this$ = ecx

; 304  : 		{	// construct with pointer _Parg

  00000	55		 push	 ebp
  00001	8b ec		 mov	 ebp, esp
  00003	8b c1		 mov	 eax, ecx
  00005	8b 4d 08	 mov	 ecx, DWORD PTR __Parg$[ebp]
  00008	89 08		 mov	 DWORD PTR [eax], ecx

; 305  : 		}

  0000a	5d		 pop	 ebp
  0000b	c2 08 00	 ret	 8
??0?$_Vector_iterator@V?$_Vector_val@UTargetInfo@ioRotateTargetWeapon@@V?$allocator@UTargetInfo@ioRotateTargetWeapon@@@std@@@std@@@std@@QAE@PAUTargetInfo@ioRotateTargetWeapon@@PBU_Container_base0@1@@Z ENDP ; std::_Vector_iterator<std::_Vector_val<ioRotateTargetWeapon::TargetInfo,std::allocator<ioRotateTargetWeapon::TargetInfo> > >::_Vector_iterator<std::_Vector_val<ioRotateTargetWeapon::TargetInfo,std::allocator<ioRotateTargetWeapon::TargetInfo> > >
_TEXT	ENDS
PUBLIC	??8?$_Vector_const_iterator@V?$_Vector_val@UTargetInfo@ioRotateTargetWeapon@@V?$allocator@UTargetInfo@ioRotateTargetWeapon@@@std@@@std@@@std@@QBE_NABV01@@Z ; std::_Vector_const_iterator<std::_Vector_val<ioRotateTargetWeapon::TargetInfo,std::allocator<ioRotateTargetWeapon::TargetInfo> > >::operator==
; Function compile flags: /Ogsp
;	COMDAT ??8?$_Vector_const_iterator@V?$_Vector_val@UTargetInfo@ioRotateTargetWeapon@@V?$allocator@UTargetInfo@ioRotateTargetWeapon@@@std@@@std@@@std@@QBE_NABV01@@Z
_TEXT	SEGMENT
__Right$ = 8						; size = 4
??8?$_Vector_const_iterator@V?$_Vector_val@UTargetInfo@ioRotateTargetWeapon@@V?$allocator@UTargetInfo@ioRotateTargetWeapon@@@std@@@std@@@std@@QBE_NABV01@@Z PROC ; std::_Vector_const_iterator<std::_Vector_val<ioRotateTargetWeapon::TargetInfo,std::allocator<ioRotateTargetWeapon::TargetInfo> > >::operator==, COMDAT
; _this$ = ecx

; 201  : 		{	// test for iterator equality

  00000	55		 push	 ebp
  00001	8b ec		 mov	 ebp, esp

; 202  : 		_Compat(_Right);
; 203  : 		return (this->_Ptr == _Right._Ptr);

  00003	8b 01		 mov	 eax, DWORD PTR [ecx]
  00005	8b 4d 08	 mov	 ecx, DWORD PTR __Right$[ebp]
  00008	2b 01		 sub	 eax, DWORD PTR [ecx]
  0000a	f7 d8		 neg	 eax
  0000c	1b c0		 sbb	 eax, eax
  0000e	40		 inc	 eax

; 204  : 		}

  0000f	5d		 pop	 ebp
  00010	c2 04 00	 ret	 4
??8?$_Vector_const_iterator@V?$_Vector_val@UTargetInfo@ioRotateTargetWeapon@@V?$allocator@UTargetInfo@ioRotateTargetWeapon@@@std@@@std@@@std@@QBE_NABV01@@Z ENDP ; std::_Vector_const_iterator<std::_Vector_val<ioRotateTargetWeapon::TargetInfo,std::allocator<ioRotateTargetWeapon::TargetInfo> > >::operator==
_TEXT	ENDS
PUBLIC	?max_size@?$vector@UTargetInfo@ioRotateTargetWeapon@@V?$allocator@UTargetInfo@ioRotateTargetWeapon@@@std@@@std@@QBEIXZ ; std::vector<ioRotateTargetWeapon::TargetInfo,std::allocator<ioRotateTargetWeapon::TargetInfo> >::max_size
; Function compile flags: /Ogsp
;	COMDAT ?max_size@?$vector@UTargetInfo@ioRotateTargetWeapon@@V?$allocator@UTargetInfo@ioRotateTargetWeapon@@@std@@@std@@QBEIXZ
_TEXT	SEGMENT
?max_size@?$vector@UTargetInfo@ioRotateTargetWeapon@@V?$allocator@UTargetInfo@ioRotateTargetWeapon@@@std@@@std@@QBEIXZ PROC ; std::vector<ioRotateTargetWeapon::TargetInfo,std::allocator<ioRotateTargetWeapon::TargetInfo> >::max_size, COMDAT
; _this$ = ecx

; 884  : 		return (this->_Alval.max_size());

  00000	b8 49 92 24 09	 mov	 eax, 153391689		; 09249249H

; 885  : 		}

  00005	c3		 ret	 0
?max_size@?$vector@UTargetInfo@ioRotateTargetWeapon@@V?$allocator@UTargetInfo@ioRotateTargetWeapon@@@std@@@std@@QBEIXZ ENDP ; std::vector<ioRotateTargetWeapon::TargetInfo,std::allocator<ioRotateTargetWeapon::TargetInfo> >::max_size
_TEXT	ENDS
PUBLIC	?_Grow_to@?$vector@UTargetInfo@ioRotateTargetWeapon@@V?$allocator@UTargetInfo@ioRotateTargetWeapon@@@std@@@std@@IBEII@Z ; std::vector<ioRotateTargetWeapon::TargetInfo,std::allocator<ioRotateTargetWeapon::TargetInfo> >::_Grow_to
; Function compile flags: /Ogsp
;	COMDAT ?_Grow_to@?$vector@UTargetInfo@ioRotateTargetWeapon@@V?$allocator@UTargetInfo@ioRotateTargetWeapon@@@std@@@std@@IBEII@Z
_TEXT	SEGMENT
__Count$ = 8						; size = 4
?_Grow_to@?$vector@UTargetInfo@ioRotateTargetWeapon@@V?$allocator@UTargetInfo@ioRotateTargetWeapon@@@std@@@std@@IBEII@Z PROC ; std::vector<ioRotateTargetWeapon::TargetInfo,std::allocator<ioRotateTargetWeapon::TargetInfo> >::_Grow_to, COMDAT
; _this$ = ecx

; 1274 : 		{	// grow by 50% or at least to _Count

  00000	55		 push	 ebp
  00001	8b ec		 mov	 ebp, esp

; 1275 : 		size_type _Capacity = capacity();

  00003	8b 41 08	 mov	 eax, DWORD PTR [ecx+8]
  00006	2b 01		 sub	 eax, DWORD PTR [ecx]
  00008	6a 1c		 push	 28			; 0000001cH
  0000a	99		 cdq
  0000b	59		 pop	 ecx
  0000c	f7 f9		 idiv	 ecx

; 1276 : 
; 1277 : 		_Capacity = max_size() - _Capacity / 2 < _Capacity
; 1278 : 			? 0 : _Capacity + _Capacity / 2;	// try to grow by 50%

  0000e	ba 49 92 24 09	 mov	 edx, 153391689		; 09249249H
  00013	8b c8		 mov	 ecx, eax
  00015	d1 e9		 shr	 ecx, 1
  00017	2b d1		 sub	 edx, ecx
  00019	3b d0		 cmp	 edx, eax
  0001b	73 04		 jae	 SHORT $LN4@Grow_to
  0001d	33 c0		 xor	 eax, eax
  0001f	eb 02		 jmp	 SHORT $LN5@Grow_to
$LN4@Grow_to:
  00021	03 c1		 add	 eax, ecx
$LN5@Grow_to:

; 1279 : 		if (_Capacity < _Count)

  00023	3b 45 08	 cmp	 eax, DWORD PTR __Count$[ebp]

; 1280 : 			_Capacity = _Count;

  00026	0f 42 45 08	 cmovb	 eax, DWORD PTR __Count$[ebp]

; 1281 : 		return (_Capacity);
; 1282 : 		}

  0002a	5d		 pop	 ebp
  0002b	c2 04 00	 ret	 4
?_Grow_to@?$vector@UTargetInfo@ioRotateTargetWeapon@@V?$allocator@UTargetInfo@ioRotateTargetWeapon@@@std@@@std@@IBEII@Z ENDP ; std::vector<ioRotateTargetWeapon::TargetInfo,std::allocator<ioRotateTargetWeapon::TargetInfo> >::_Grow_to
_TEXT	ENDS
PUBLIC	?allocate@?$allocator@UTargetInfo@ioRotateTargetWeapon@@@std@@QAEPAUTargetInfo@ioRotateTargetWeapon@@I@Z ; std::allocator<ioRotateTargetWeapon::TargetInfo>::allocate
; Function compile flags: /Ogsp
; File c:\program files (x86)\microsoft visual studio 10.0\vc\include\xmemory
;	COMDAT ?allocate@?$allocator@UTargetInfo@ioRotateTargetWeapon@@@std@@QAEPAUTargetInfo@ioRotateTargetWeapon@@I@Z
_TEXT	SEGMENT
__Count$ = 8						; size = 4
?allocate@?$allocator@UTargetInfo@ioRotateTargetWeapon@@@std@@QAEPAUTargetInfo@ioRotateTargetWeapon@@I@Z PROC ; std::allocator<ioRotateTargetWeapon::TargetInfo>::allocate, COMDAT
; _this$ = ecx

; 186  : 		{	// allocate array of _Count elements

  00000	55		 push	 ebp
  00001	8b ec		 mov	 ebp, esp

; 187  : 		return (_Allocate(_Count, (pointer)0));

  00003	6a 00		 push	 0
  00005	ff 75 08	 push	 DWORD PTR __Count$[ebp]
  00008	e8 00 00 00 00	 call	 ??$_Allocate@UTargetInfo@ioRotateTargetWeapon@@@std@@YAPAUTargetInfo@ioRotateTargetWeapon@@IPAU12@@Z ; std::_Allocate<ioRotateTargetWeapon::TargetInfo>
  0000d	59		 pop	 ecx
  0000e	59		 pop	 ecx

; 188  : 		}

  0000f	5d		 pop	 ebp
  00010	c2 04 00	 ret	 4
?allocate@?$allocator@UTargetInfo@ioRotateTargetWeapon@@@std@@QAEPAUTargetInfo@ioRotateTargetWeapon@@I@Z ENDP ; std::allocator<ioRotateTargetWeapon::TargetInfo>::allocate
_TEXT	ENDS
PUBLIC	__$ArrayPad$
PUBLIC	??$LoadInt_e@$09@ioINILoader@@QAEHAAY09$$CBDH@Z	; ioINILoader::LoadInt_e<10>
EXTRN	__imp_?LoadInt@ioINILoader@@QAEHPBDH@Z:PROC
; Function compile flags: /Ogsp
; File d:\lost saga for developer\youtube\tutorial\source\src\io3dengine\ioiniloader.h
;	COMDAT ??$LoadInt_e@$09@ioINILoader@@QAEHAAY09$$CBDH@Z
_TEXT	SEGMENT
__k$ = -20						; size = 10
__$ArrayPad$ = -4					; size = 4
_k$ = 8							; size = 4
_i$ = 12						; size = 4
??$LoadInt_e@$09@ioINILoader@@QAEHAAY09$$CBDH@Z PROC	; ioINILoader::LoadInt_e<10>, COMDAT
; _this$ = ecx

; 118  : 	{

  00000	55		 push	 ebp
  00001	8b ec		 mov	 ebp, esp
  00003	83 ec 14	 sub	 esp, 20			; 00000014H
  00006	a1 00 00 00 00	 mov	 eax, DWORD PTR ___security_cookie
  0000b	33 c5		 xor	 eax, ebp
  0000d	89 45 fc	 mov	 DWORD PTR __$ArrayPad$[ebp], eax
  00010	8b 45 08	 mov	 eax, DWORD PTR _k$[ebp]

; 119  : 		_ENCSTR(k, _k);

  00013	8a 10		 mov	 dl, BYTE PTR [eax]
  00015	84 d2		 test	 dl, dl
  00017	0f 84 0d 01 00
	00		 je	 $LN96@LoadInt_e
  0001d	80 f2 ed	 xor	 dl, -19			; ffffffedH
  00020	88 55 ec	 mov	 BYTE PTR __k$[ebp], dl
  00023	8a 50 01	 mov	 dl, BYTE PTR [eax+1]
  00026	84 d2		 test	 dl, dl
  00028	0f 84 f6 00 00
	00		 je	 $LN95@LoadInt_e
  0002e	80 f2 ec	 xor	 dl, -20			; ffffffecH
  00031	88 55 ed	 mov	 BYTE PTR __k$[ebp+1], dl
  00034	8a 50 02	 mov	 dl, BYTE PTR [eax+2]
  00037	84 d2		 test	 dl, dl
  00039	0f 84 df 00 00
	00		 je	 $LN94@LoadInt_e
  0003f	80 f2 eb	 xor	 dl, -21			; ffffffebH
  00042	88 55 ee	 mov	 BYTE PTR __k$[ebp+2], dl
  00045	8a 50 03	 mov	 dl, BYTE PTR [eax+3]
  00048	84 d2		 test	 dl, dl
  0004a	0f 84 c8 00 00
	00		 je	 $LN93@LoadInt_e
  00050	80 f2 ea	 xor	 dl, -22			; ffffffeaH
  00053	88 55 ef	 mov	 BYTE PTR __k$[ebp+3], dl
  00056	8a 50 04	 mov	 dl, BYTE PTR [eax+4]
  00059	84 d2		 test	 dl, dl
  0005b	0f 84 b1 00 00
	00		 je	 $LN92@LoadInt_e
  00061	80 f2 ed	 xor	 dl, -19			; ffffffedH
  00064	88 55 f0	 mov	 BYTE PTR __k$[ebp+4], dl
  00067	8a 50 05	 mov	 dl, BYTE PTR [eax+5]
  0006a	84 d2		 test	 dl, dl
  0006c	0f 84 9a 00 00
	00		 je	 $LN91@LoadInt_e
  00072	80 f2 ec	 xor	 dl, -20			; ffffffecH
  00075	88 55 f1	 mov	 BYTE PTR __k$[ebp+5], dl
  00078	8a 50 06	 mov	 dl, BYTE PTR [eax+6]
  0007b	84 d2		 test	 dl, dl
  0007d	0f 84 83 00 00
	00		 je	 $LN90@LoadInt_e
  00083	80 f2 eb	 xor	 dl, -21			; ffffffebH
  00086	88 55 f2	 mov	 BYTE PTR __k$[ebp+6], dl
  00089	8a 50 07	 mov	 dl, BYTE PTR [eax+7]
  0008c	84 d2		 test	 dl, dl
  0008e	74 70		 je	 SHORT $LN89@LoadInt_e
  00090	80 f2 ea	 xor	 dl, -22			; ffffffeaH
  00093	88 55 f3	 mov	 BYTE PTR __k$[ebp+7], dl
  00096	8a 50 08	 mov	 dl, BYTE PTR [eax+8]
  00099	84 d2		 test	 dl, dl
  0009b	74 5d		 je	 SHORT $LN88@LoadInt_e
  0009d	80 f2 ed	 xor	 dl, -19			; ffffffedH
  000a0	80 78 09 00	 cmp	 BYTE PTR [eax+9], 0
  000a4	88 55 f4	 mov	 BYTE PTR __k$[ebp+8], dl
  000a7	0f 84 81 00 00
	00		 je	 $LN1@LoadInt_e
  000ad	8a 50 0a	 mov	 dl, BYTE PTR [eax+10]
  000b0	84 d2		 test	 dl, dl
  000b2	74 40		 je	 SHORT $LN86@LoadInt_e
  000b4	80 f2 eb	 xor	 dl, -21			; ffffffebH
  000b7	88 55 f6	 mov	 BYTE PTR __k$[ebp+10], dl
  000ba	8a 50 0b	 mov	 dl, BYTE PTR [eax+11]
  000bd	84 d2		 test	 dl, dl
  000bf	74 2d		 je	 SHORT $LN85@LoadInt_e
  000c1	80 f2 ea	 xor	 dl, -22			; ffffffeaH
  000c4	88 55 f7	 mov	 BYTE PTR __k$[ebp+11], dl
  000c7	8a 50 0c	 mov	 dl, BYTE PTR [eax+12]
  000ca	84 d2		 test	 dl, dl
  000cc	74 1a		 je	 SHORT $LN84@LoadInt_e
  000ce	8a 40 0d	 mov	 al, BYTE PTR [eax+13]
  000d1	80 f2 ed	 xor	 dl, -19			; ffffffedH
  000d4	88 55 f8	 mov	 BYTE PTR __k$[ebp+12], dl
  000d7	84 c0		 test	 al, al
  000d9	74 07		 je	 SHORT $LN83@LoadInt_e
  000db	34 ec		 xor	 al, -20			; ffffffecH
  000dd	88 45 f9	 mov	 BYTE PTR __k$[ebp+13], al
  000e0	eb 4c		 jmp	 SHORT $LN1@LoadInt_e
$LN83@LoadInt_e:
  000e2	c6 45 f9 ec	 mov	 BYTE PTR __k$[ebp+13], -20 ; ffffffecH
  000e6	eb 46		 jmp	 SHORT $LN1@LoadInt_e
$LN84@LoadInt_e:
  000e8	c6 45 f8 ed	 mov	 BYTE PTR __k$[ebp+12], -19 ; ffffffedH
  000ec	eb 40		 jmp	 SHORT $LN1@LoadInt_e
$LN85@LoadInt_e:
  000ee	c6 45 f7 ea	 mov	 BYTE PTR __k$[ebp+11], -22 ; ffffffeaH
  000f2	eb 3a		 jmp	 SHORT $LN1@LoadInt_e
$LN86@LoadInt_e:
  000f4	c6 45 f6 eb	 mov	 BYTE PTR __k$[ebp+10], -21 ; ffffffebH
  000f8	eb 34		 jmp	 SHORT $LN1@LoadInt_e
$LN88@LoadInt_e:
  000fa	c6 45 f4 ed	 mov	 BYTE PTR __k$[ebp+8], -19 ; ffffffedH
  000fe	eb 2e		 jmp	 SHORT $LN1@LoadInt_e
$LN89@LoadInt_e:
  00100	c6 45 f3 ea	 mov	 BYTE PTR __k$[ebp+7], -22 ; ffffffeaH
  00104	eb 28		 jmp	 SHORT $LN1@LoadInt_e
$LN90@LoadInt_e:
  00106	c6 45 f2 eb	 mov	 BYTE PTR __k$[ebp+6], -21 ; ffffffebH
  0010a	eb 22		 jmp	 SHORT $LN1@LoadInt_e
$LN91@LoadInt_e:
  0010c	c6 45 f1 ec	 mov	 BYTE PTR __k$[ebp+5], -20 ; ffffffecH
  00110	eb 1c		 jmp	 SHORT $LN1@LoadInt_e
$LN92@LoadInt_e:
  00112	c6 45 f0 ed	 mov	 BYTE PTR __k$[ebp+4], -19 ; ffffffedH
  00116	eb 16		 jmp	 SHORT $LN1@LoadInt_e
$LN93@LoadInt_e:
  00118	c6 45 ef ea	 mov	 BYTE PTR __k$[ebp+3], -22 ; ffffffeaH
  0011c	eb 10		 jmp	 SHORT $LN1@LoadInt_e
$LN94@LoadInt_e:
  0011e	c6 45 ee eb	 mov	 BYTE PTR __k$[ebp+2], -21 ; ffffffebH
  00122	eb 0a		 jmp	 SHORT $LN1@LoadInt_e
$LN95@LoadInt_e:
  00124	c6 45 ed ec	 mov	 BYTE PTR __k$[ebp+1], -20 ; ffffffecH
  00128	eb 04		 jmp	 SHORT $LN1@LoadInt_e
$LN96@LoadInt_e:
  0012a	c6 45 ec ed	 mov	 BYTE PTR __k$[ebp], -19	; ffffffedH
$LN1@LoadInt_e:
  0012e	6a 02		 push	 2
  00130	8d 45 ec	 lea	 eax, DWORD PTR __k$[ebp]
  00133	c6 45 f5 00	 mov	 BYTE PTR __k$[ebp+9], 0
  00137	5a		 pop	 edx
$LL104@LoadInt_e:
  00138	81 30 ed ec eb
	ea		 xor	 DWORD PTR [eax], -353637139 ; eaebecedH
  0013e	83 c0 04	 add	 eax, 4
  00141	4a		 dec	 edx
  00142	75 f4		 jne	 SHORT $LL104@LoadInt_e

; 120  : 		return LoadInt(_k, i);

  00144	ff 75 0c	 push	 DWORD PTR _i$[ebp]
  00147	80 75 f4 ed	 xor	 BYTE PTR __k$[ebp+8], -19 ; ffffffedH
  0014b	8d 45 ec	 lea	 eax, DWORD PTR __k$[ebp]
  0014e	50		 push	 eax
  0014f	ff 15 00 00 00
	00		 call	 DWORD PTR __imp_?LoadInt@ioINILoader@@QAEHPBDH@Z

; 121  : 	}

  00155	8b 4d fc	 mov	 ecx, DWORD PTR __$ArrayPad$[ebp]
  00158	33 cd		 xor	 ecx, ebp
  0015a	e8 00 00 00 00	 call	 @__security_check_cookie@4
  0015f	c9		 leave
  00160	c2 08 00	 ret	 8
??$LoadInt_e@$09@ioINILoader@@QAEHAAY09$$CBDH@Z ENDP	; ioINILoader::LoadInt_e<10>
_TEXT	ENDS
PUBLIC	__$ArrayPad$
PUBLIC	??$LoadFloat_e@$0BE@@ioINILoader@@QAEMAAY0BE@$$CBDM@Z ; ioINILoader::LoadFloat_e<20>
EXTRN	__imp_?LoadFloat@ioINILoader@@QAEMPBDM@Z:PROC
; Function compile flags: /Ogsp
;	COMDAT ??$LoadFloat_e@$0BE@@ioINILoader@@QAEMAAY0BE@$$CBDM@Z
_TEXT	SEGMENT
__k$ = -28						; size = 20
__$ArrayPad$ = -4					; size = 4
_k$ = 8							; size = 4
_f$ = 12						; size = 4
??$LoadFloat_e@$0BE@@ioINILoader@@QAEMAAY0BE@$$CBDM@Z PROC ; ioINILoader::LoadFloat_e<20>, COMDAT
; _this$ = ecx

; 135  : 	{

  00000	55		 push	 ebp
  00001	8b ec		 mov	 ebp, esp
  00003	83 ec 1c	 sub	 esp, 28			; 0000001cH
  00006	a1 00 00 00 00	 mov	 eax, DWORD PTR ___security_cookie
  0000b	33 c5		 xor	 eax, ebp
  0000d	89 45 fc	 mov	 DWORD PTR __$ArrayPad$[ebp], eax
  00010	8b 45 08	 mov	 eax, DWORD PTR _k$[ebp]

; 136  : 		_ENCSTR(k, _k);

  00013	8a 10		 mov	 dl, BYTE PTR [eax]
  00015	53		 push	 ebx
  00016	56		 push	 esi
  00017	8b f1		 mov	 esi, ecx
  00019	84 d2		 test	 dl, dl
  0001b	0f 84 dd 01 00
	00		 je	 $LN96@LoadFloat_
  00021	80 f2 ed	 xor	 dl, -19			; ffffffedH
  00024	88 55 e4	 mov	 BYTE PTR __k$[ebp], dl
  00027	8a 50 01	 mov	 dl, BYTE PTR [eax+1]
  0002a	84 d2		 test	 dl, dl
  0002c	0f 84 c6 01 00
	00		 je	 $LN95@LoadFloat_
  00032	b3 ec		 mov	 bl, -20			; ffffffecH
  00034	32 d3		 xor	 dl, bl
  00036	88 55 e5	 mov	 BYTE PTR __k$[ebp+1], dl
  00039	8a 50 02	 mov	 dl, BYTE PTR [eax+2]
  0003c	84 d2		 test	 dl, dl
  0003e	0f 84 ae 01 00
	00		 je	 $LN94@LoadFloat_
  00044	b1 eb		 mov	 cl, -21			; ffffffebH
  00046	32 d1		 xor	 dl, cl
  00048	88 55 e6	 mov	 BYTE PTR __k$[ebp+2], dl
  0004b	8a 50 03	 mov	 dl, BYTE PTR [eax+3]
  0004e	84 d2		 test	 dl, dl
  00050	0f 84 96 01 00
	00		 je	 $LN93@LoadFloat_
  00056	80 f2 ea	 xor	 dl, -22			; ffffffeaH
  00059	88 55 e7	 mov	 BYTE PTR __k$[ebp+3], dl
  0005c	8a 50 04	 mov	 dl, BYTE PTR [eax+4]
  0005f	84 d2		 test	 dl, dl
  00061	0f 84 7f 01 00
	00		 je	 $LN92@LoadFloat_
  00067	80 f2 ed	 xor	 dl, -19			; ffffffedH
  0006a	88 55 e8	 mov	 BYTE PTR __k$[ebp+4], dl
  0006d	8a 50 05	 mov	 dl, BYTE PTR [eax+5]
  00070	84 d2		 test	 dl, dl
  00072	0f 84 69 01 00
	00		 je	 $LN91@LoadFloat_
  00078	32 d3		 xor	 dl, bl
  0007a	88 55 e9	 mov	 BYTE PTR __k$[ebp+5], dl
  0007d	8a 50 06	 mov	 dl, BYTE PTR [eax+6]
  00080	84 d2		 test	 dl, dl
  00082	0f 84 54 01 00
	00		 je	 $LN90@LoadFloat_
  00088	32 d1		 xor	 dl, cl
  0008a	88 55 ea	 mov	 BYTE PTR __k$[ebp+6], dl
  0008d	8a 50 07	 mov	 dl, BYTE PTR [eax+7]
  00090	84 d2		 test	 dl, dl
  00092	0f 84 3e 01 00
	00		 je	 $LN89@LoadFloat_
  00098	80 f2 ea	 xor	 dl, -22			; ffffffeaH
  0009b	88 55 eb	 mov	 BYTE PTR __k$[ebp+7], dl
  0009e	8a 50 08	 mov	 dl, BYTE PTR [eax+8]
  000a1	84 d2		 test	 dl, dl
  000a3	0f 84 27 01 00
	00		 je	 $LN88@LoadFloat_
  000a9	80 f2 ed	 xor	 dl, -19			; ffffffedH
  000ac	88 55 ec	 mov	 BYTE PTR __k$[ebp+8], dl
  000af	8a 50 09	 mov	 dl, BYTE PTR [eax+9]
  000b2	84 d2		 test	 dl, dl
  000b4	0f 84 11 01 00
	00		 je	 $LN87@LoadFloat_
  000ba	32 d3		 xor	 dl, bl
  000bc	88 55 ed	 mov	 BYTE PTR __k$[ebp+9], dl
  000bf	8a 50 0a	 mov	 dl, BYTE PTR [eax+10]
  000c2	84 d2		 test	 dl, dl
  000c4	0f 84 fc 00 00
	00		 je	 $LN86@LoadFloat_
  000ca	32 d1		 xor	 dl, cl
  000cc	88 55 ee	 mov	 BYTE PTR __k$[ebp+10], dl
  000cf	8a 50 0b	 mov	 dl, BYTE PTR [eax+11]
  000d2	84 d2		 test	 dl, dl
  000d4	0f 84 e6 00 00
	00		 je	 $LN85@LoadFloat_
  000da	80 f2 ea	 xor	 dl, -22			; ffffffeaH
  000dd	88 55 ef	 mov	 BYTE PTR __k$[ebp+11], dl
  000e0	8a 50 0c	 mov	 dl, BYTE PTR [eax+12]
  000e3	84 d2		 test	 dl, dl
  000e5	0f 84 cf 00 00
	00		 je	 $LN84@LoadFloat_
  000eb	80 f2 ed	 xor	 dl, -19			; ffffffedH
  000ee	88 55 f0	 mov	 BYTE PTR __k$[ebp+12], dl
  000f1	8a 50 0d	 mov	 dl, BYTE PTR [eax+13]
  000f4	84 d2		 test	 dl, dl
  000f6	0f 84 b9 00 00
	00		 je	 $LN83@LoadFloat_
  000fc	32 d3		 xor	 dl, bl
  000fe	88 55 f1	 mov	 BYTE PTR __k$[ebp+13], dl
  00101	8a 50 0e	 mov	 dl, BYTE PTR [eax+14]
  00104	84 d2		 test	 dl, dl
  00106	0f 84 a4 00 00
	00		 je	 $LN82@LoadFloat_
  0010c	32 d1		 xor	 dl, cl
  0010e	88 55 f2	 mov	 BYTE PTR __k$[ebp+14], dl
  00111	8a 50 0f	 mov	 dl, BYTE PTR [eax+15]
  00114	84 d2		 test	 dl, dl
  00116	0f 84 8e 00 00
	00		 je	 $LN81@LoadFloat_
  0011c	80 f2 ea	 xor	 dl, -22			; ffffffeaH
  0011f	88 55 f3	 mov	 BYTE PTR __k$[ebp+15], dl
  00122	8a 50 10	 mov	 dl, BYTE PTR [eax+16]
  00125	84 d2		 test	 dl, dl
  00127	74 7b		 je	 SHORT $LN80@LoadFloat_
  00129	80 f2 ed	 xor	 dl, -19			; ffffffedH
  0012c	88 55 f4	 mov	 BYTE PTR __k$[ebp+16], dl
  0012f	8a 50 11	 mov	 dl, BYTE PTR [eax+17]
  00132	84 d2		 test	 dl, dl
  00134	74 69		 je	 SHORT $LN79@LoadFloat_
  00136	32 d3		 xor	 dl, bl
  00138	88 55 f5	 mov	 BYTE PTR __k$[ebp+17], dl
  0013b	8a 50 12	 mov	 dl, BYTE PTR [eax+18]
  0013e	84 d2		 test	 dl, dl
  00140	74 58		 je	 SHORT $LN78@LoadFloat_
  00142	32 d1		 xor	 dl, cl
  00144	80 78 13 00	 cmp	 BYTE PTR [eax+19], 0
  00148	88 55 f6	 mov	 BYTE PTR __k$[ebp+18], dl
  0014b	0f 84 b1 00 00
	00		 je	 $LN1@LoadFloat_
  00151	8a 50 14	 mov	 dl, BYTE PTR [eax+20]
  00154	84 d2		 test	 dl, dl
  00156	74 3c		 je	 SHORT $LN76@LoadFloat_
  00158	80 f2 ed	 xor	 dl, -19			; ffffffedH
  0015b	88 55 f8	 mov	 BYTE PTR __k$[ebp+20], dl
  0015e	8a 50 15	 mov	 dl, BYTE PTR [eax+21]
  00161	84 d2		 test	 dl, dl
  00163	74 2a		 je	 SHORT $LN75@LoadFloat_
  00165	32 d3		 xor	 dl, bl
  00167	88 55 f9	 mov	 BYTE PTR __k$[ebp+21], dl
  0016a	8a 50 16	 mov	 dl, BYTE PTR [eax+22]
  0016d	84 d2		 test	 dl, dl
  0016f	74 19		 je	 SHORT $LN74@LoadFloat_
  00171	8a 40 17	 mov	 al, BYTE PTR [eax+23]
  00174	32 d1		 xor	 dl, cl
  00176	88 55 fa	 mov	 BYTE PTR __k$[ebp+22], dl
  00179	84 c0		 test	 al, al
  0017b	74 07		 je	 SHORT $LN73@LoadFloat_
  0017d	34 ea		 xor	 al, -22			; ffffffeaH
  0017f	88 45 fb	 mov	 BYTE PTR __k$[ebp+23], al
  00182	eb 7e		 jmp	 SHORT $LN1@LoadFloat_
$LN73@LoadFloat_:
  00184	c6 45 fb ea	 mov	 BYTE PTR __k$[ebp+23], -22 ; ffffffeaH
  00188	eb 78		 jmp	 SHORT $LN1@LoadFloat_
$LN74@LoadFloat_:
  0018a	88 4d fa	 mov	 BYTE PTR __k$[ebp+22], cl
  0018d	eb 73		 jmp	 SHORT $LN1@LoadFloat_
$LN75@LoadFloat_:
  0018f	88 5d f9	 mov	 BYTE PTR __k$[ebp+21], bl
  00192	eb 6e		 jmp	 SHORT $LN1@LoadFloat_
$LN76@LoadFloat_:
  00194	c6 45 f8 ed	 mov	 BYTE PTR __k$[ebp+20], -19 ; ffffffedH
  00198	eb 68		 jmp	 SHORT $LN1@LoadFloat_
$LN78@LoadFloat_:
  0019a	88 4d f6	 mov	 BYTE PTR __k$[ebp+18], cl
  0019d	eb 63		 jmp	 SHORT $LN1@LoadFloat_
$LN79@LoadFloat_:
  0019f	88 5d f5	 mov	 BYTE PTR __k$[ebp+17], bl
  001a2	eb 5e		 jmp	 SHORT $LN1@LoadFloat_
$LN80@LoadFloat_:
  001a4	c6 45 f4 ed	 mov	 BYTE PTR __k$[ebp+16], -19 ; ffffffedH
  001a8	eb 58		 jmp	 SHORT $LN1@LoadFloat_
$LN81@LoadFloat_:
  001aa	c6 45 f3 ea	 mov	 BYTE PTR __k$[ebp+15], -22 ; ffffffeaH
  001ae	eb 52		 jmp	 SHORT $LN1@LoadFloat_
$LN82@LoadFloat_:
  001b0	88 4d f2	 mov	 BYTE PTR __k$[ebp+14], cl
  001b3	eb 4d		 jmp	 SHORT $LN1@LoadFloat_
$LN83@LoadFloat_:
  001b5	88 5d f1	 mov	 BYTE PTR __k$[ebp+13], bl
  001b8	eb 48		 jmp	 SHORT $LN1@LoadFloat_
$LN84@LoadFloat_:
  001ba	c6 45 f0 ed	 mov	 BYTE PTR __k$[ebp+12], -19 ; ffffffedH
  001be	eb 42		 jmp	 SHORT $LN1@LoadFloat_
$LN85@LoadFloat_:
  001c0	c6 45 ef ea	 mov	 BYTE PTR __k$[ebp+11], -22 ; ffffffeaH
  001c4	eb 3c		 jmp	 SHORT $LN1@LoadFloat_
$LN86@LoadFloat_:
  001c6	88 4d ee	 mov	 BYTE PTR __k$[ebp+10], cl
  001c9	eb 37		 jmp	 SHORT $LN1@LoadFloat_
$LN87@LoadFloat_:
  001cb	88 5d ed	 mov	 BYTE PTR __k$[ebp+9], bl
  001ce	eb 32		 jmp	 SHORT $LN1@LoadFloat_
$LN88@LoadFloat_:
  001d0	c6 45 ec ed	 mov	 BYTE PTR __k$[ebp+8], -19 ; ffffffedH
  001d4	eb 2c		 jmp	 SHORT $LN1@LoadFloat_
$LN89@LoadFloat_:
  001d6	c6 45 eb ea	 mov	 BYTE PTR __k$[ebp+7], -22 ; ffffffeaH
  001da	eb 26		 jmp	 SHORT $LN1@LoadFloat_
$LN90@LoadFloat_:
  001dc	88 4d ea	 mov	 BYTE PTR __k$[ebp+6], cl
  001df	eb 21		 jmp	 SHORT $LN1@LoadFloat_
$LN91@LoadFloat_:
  001e1	88 5d e9	 mov	 BYTE PTR __k$[ebp+5], bl
  001e4	eb 1c		 jmp	 SHORT $LN1@LoadFloat_
$LN92@LoadFloat_:
  001e6	c6 45 e8 ed	 mov	 BYTE PTR __k$[ebp+4], -19 ; ffffffedH
  001ea	eb 16		 jmp	 SHORT $LN1@LoadFloat_
$LN93@LoadFloat_:
  001ec	c6 45 e7 ea	 mov	 BYTE PTR __k$[ebp+3], -22 ; ffffffeaH
  001f0	eb 10		 jmp	 SHORT $LN1@LoadFloat_
$LN94@LoadFloat_:
  001f2	c6 45 e6 eb	 mov	 BYTE PTR __k$[ebp+2], -21 ; ffffffebH
  001f6	eb 0a		 jmp	 SHORT $LN1@LoadFloat_
$LN95@LoadFloat_:
  001f8	c6 45 e5 ec	 mov	 BYTE PTR __k$[ebp+1], -20 ; ffffffecH
  001fc	eb 04		 jmp	 SHORT $LN1@LoadFloat_
$LN96@LoadFloat_:
  001fe	c6 45 e4 ed	 mov	 BYTE PTR __k$[ebp], -19	; ffffffedH
$LN1@LoadFloat_:
  00202	6a 04		 push	 4
  00204	8d 45 e4	 lea	 eax, DWORD PTR __k$[ebp]
  00207	c6 45 f7 00	 mov	 BYTE PTR __k$[ebp+19], 0
  0020b	5a		 pop	 edx
$LL104@LoadFloat_:
  0020c	81 30 ed ec eb
	ea		 xor	 DWORD PTR [eax], -353637139 ; eaebecedH
  00212	83 c0 04	 add	 eax, 4
  00215	4a		 dec	 edx
  00216	75 f4		 jne	 SHORT $LL104@LoadFloat_
  00218	6a 10		 push	 16			; 00000010H
  0021a	58		 pop	 eax
$LL101@LoadFloat_:
  0021b	8b c8		 mov	 ecx, eax
  0021d	81 e1 03 00 00
	80		 and	 ecx, -2147483645	; 80000003H
  00223	79 05		 jns	 SHORT $LN111@LoadFloat_
  00225	49		 dec	 ecx
  00226	83 c9 fc	 or	 ecx, -4			; fffffffcH
  00229	41		 inc	 ecx
$LN111@LoadFloat_:
  0022a	b2 ed		 mov	 dl, -19			; ffffffedH
  0022c	2a d1		 sub	 dl, cl
  0022e	30 54 05 e4	 xor	 BYTE PTR __k$[ebp+eax], dl
  00232	40		 inc	 eax
  00233	83 f8 13	 cmp	 eax, 19			; 00000013H
  00236	7c e3		 jl	 SHORT $LL101@LoadFloat_

; 137  : 		return LoadFloat(_k, f);

  00238	f3 0f 10 45 0c	 movss	 xmm0, DWORD PTR _f$[ebp]
  0023d	51		 push	 ecx
  0023e	8d 45 e4	 lea	 eax, DWORD PTR __k$[ebp]
  00241	f3 0f 11 04 24	 movss	 DWORD PTR [esp], xmm0
  00246	50		 push	 eax
  00247	8b ce		 mov	 ecx, esi
  00249	ff 15 00 00 00
	00		 call	 DWORD PTR __imp_?LoadFloat@ioINILoader@@QAEMPBDM@Z

; 138  : 	}

  0024f	8b 4d fc	 mov	 ecx, DWORD PTR __$ArrayPad$[ebp]
  00252	5e		 pop	 esi
  00253	33 cd		 xor	 ecx, ebp
  00255	5b		 pop	 ebx
  00256	e8 00 00 00 00	 call	 @__security_check_cookie@4
  0025b	c9		 leave
  0025c	c2 08 00	 ret	 8
??$LoadFloat_e@$0BE@@ioINILoader@@QAEMAAY0BE@$$CBDM@Z ENDP ; ioINILoader::LoadFloat_e<20>
_TEXT	ENDS
PUBLIC	__$ArrayPad$
PUBLIC	??$LoadInt_e@$0BG@@ioINILoader@@QAEHAAY0BG@$$CBDH@Z ; ioINILoader::LoadInt_e<22>
; Function compile flags: /Ogsp
;	COMDAT ??$LoadInt_e@$0BG@@ioINILoader@@QAEHAAY0BG@$$CBDH@Z
_TEXT	SEGMENT
__k$ = -32						; size = 22
__$ArrayPad$ = -4					; size = 4
_k$ = 8							; size = 4
_i$ = 12						; size = 4
??$LoadInt_e@$0BG@@ioINILoader@@QAEHAAY0BG@$$CBDH@Z PROC ; ioINILoader::LoadInt_e<22>, COMDAT
; _this$ = ecx

; 118  : 	{

  00000	55		 push	 ebp
  00001	8b ec		 mov	 ebp, esp
  00003	83 ec 20	 sub	 esp, 32			; 00000020H
  00006	a1 00 00 00 00	 mov	 eax, DWORD PTR ___security_cookie
  0000b	33 c5		 xor	 eax, ebp
  0000d	89 45 fc	 mov	 DWORD PTR __$ArrayPad$[ebp], eax
  00010	8b 45 08	 mov	 eax, DWORD PTR _k$[ebp]

; 119  : 		_ENCSTR(k, _k);

  00013	8a 10		 mov	 dl, BYTE PTR [eax]
  00015	53		 push	 ebx
  00016	56		 push	 esi
  00017	8b f1		 mov	 esi, ecx
  00019	84 d2		 test	 dl, dl
  0001b	0f 84 15 02 00
	00		 je	 $LN96@LoadInt_e@2
  00021	80 f2 ed	 xor	 dl, -19			; ffffffedH
  00024	88 55 e0	 mov	 BYTE PTR __k$[ebp], dl
  00027	8a 50 01	 mov	 dl, BYTE PTR [eax+1]
  0002a	84 d2		 test	 dl, dl
  0002c	0f 84 fe 01 00
	00		 je	 $LN95@LoadInt_e@2
  00032	80 f2 ec	 xor	 dl, -20			; ffffffecH
  00035	88 55 e1	 mov	 BYTE PTR __k$[ebp+1], dl
  00038	8a 50 02	 mov	 dl, BYTE PTR [eax+2]
  0003b	84 d2		 test	 dl, dl
  0003d	0f 84 e7 01 00
	00		 je	 $LN94@LoadInt_e@2
  00043	b1 eb		 mov	 cl, -21			; ffffffebH
  00045	32 d1		 xor	 dl, cl
  00047	88 55 e2	 mov	 BYTE PTR __k$[ebp+2], dl
  0004a	8a 50 03	 mov	 dl, BYTE PTR [eax+3]
  0004d	84 d2		 test	 dl, dl
  0004f	0f 84 cf 01 00
	00		 je	 $LN93@LoadInt_e@2
  00055	b3 ea		 mov	 bl, -22			; ffffffeaH
  00057	32 d3		 xor	 dl, bl
  00059	88 55 e3	 mov	 BYTE PTR __k$[ebp+3], dl
  0005c	8a 50 04	 mov	 dl, BYTE PTR [eax+4]
  0005f	84 d2		 test	 dl, dl
  00061	0f 84 b7 01 00
	00		 je	 $LN92@LoadInt_e@2
  00067	80 f2 ed	 xor	 dl, -19			; ffffffedH
  0006a	88 55 e4	 mov	 BYTE PTR __k$[ebp+4], dl
  0006d	8a 50 05	 mov	 dl, BYTE PTR [eax+5]
  00070	84 d2		 test	 dl, dl
  00072	0f 84 a0 01 00
	00		 je	 $LN91@LoadInt_e@2
  00078	80 f2 ec	 xor	 dl, -20			; ffffffecH
  0007b	88 55 e5	 mov	 BYTE PTR __k$[ebp+5], dl
  0007e	8a 50 06	 mov	 dl, BYTE PTR [eax+6]
  00081	84 d2		 test	 dl, dl
  00083	0f 84 8a 01 00
	00		 je	 $LN90@LoadInt_e@2
  00089	32 d1		 xor	 dl, cl
  0008b	88 55 e6	 mov	 BYTE PTR __k$[ebp+6], dl
  0008e	8a 50 07	 mov	 dl, BYTE PTR [eax+7]
  00091	84 d2		 test	 dl, dl
  00093	0f 84 75 01 00
	00		 je	 $LN89@LoadInt_e@2
  00099	32 d3		 xor	 dl, bl
  0009b	88 55 e7	 mov	 BYTE PTR __k$[ebp+7], dl
  0009e	8a 50 08	 mov	 dl, BYTE PTR [eax+8]
  000a1	84 d2		 test	 dl, dl
  000a3	0f 84 5f 01 00
	00		 je	 $LN88@LoadInt_e@2
  000a9	80 f2 ed	 xor	 dl, -19			; ffffffedH
  000ac	88 55 e8	 mov	 BYTE PTR __k$[ebp+8], dl
  000af	8a 50 09	 mov	 dl, BYTE PTR [eax+9]
  000b2	84 d2		 test	 dl, dl
  000b4	0f 84 48 01 00
	00		 je	 $LN87@LoadInt_e@2
  000ba	80 f2 ec	 xor	 dl, -20			; ffffffecH
  000bd	88 55 e9	 mov	 BYTE PTR __k$[ebp+9], dl
  000c0	8a 50 0a	 mov	 dl, BYTE PTR [eax+10]
  000c3	84 d2		 test	 dl, dl
  000c5	0f 84 32 01 00
	00		 je	 $LN86@LoadInt_e@2
  000cb	32 d1		 xor	 dl, cl
  000cd	88 55 ea	 mov	 BYTE PTR __k$[ebp+10], dl
  000d0	8a 50 0b	 mov	 dl, BYTE PTR [eax+11]
  000d3	84 d2		 test	 dl, dl
  000d5	0f 84 1d 01 00
	00		 je	 $LN85@LoadInt_e@2
  000db	32 d3		 xor	 dl, bl
  000dd	88 55 eb	 mov	 BYTE PTR __k$[ebp+11], dl
  000e0	8a 50 0c	 mov	 dl, BYTE PTR [eax+12]
  000e3	84 d2		 test	 dl, dl
  000e5	0f 84 07 01 00
	00		 je	 $LN84@LoadInt_e@2
  000eb	80 f2 ed	 xor	 dl, -19			; ffffffedH
  000ee	88 55 ec	 mov	 BYTE PTR __k$[ebp+12], dl
  000f1	8a 50 0d	 mov	 dl, BYTE PTR [eax+13]
  000f4	84 d2		 test	 dl, dl
  000f6	0f 84 f0 00 00
	00		 je	 $LN83@LoadInt_e@2
  000fc	80 f2 ec	 xor	 dl, -20			; ffffffecH
  000ff	88 55 ed	 mov	 BYTE PTR __k$[ebp+13], dl
  00102	8a 50 0e	 mov	 dl, BYTE PTR [eax+14]
  00105	84 d2		 test	 dl, dl
  00107	0f 84 da 00 00
	00		 je	 $LN82@LoadInt_e@2
  0010d	32 d1		 xor	 dl, cl
  0010f	88 55 ee	 mov	 BYTE PTR __k$[ebp+14], dl
  00112	8a 50 0f	 mov	 dl, BYTE PTR [eax+15]
  00115	84 d2		 test	 dl, dl
  00117	0f 84 c5 00 00
	00		 je	 $LN81@LoadInt_e@2
  0011d	32 d3		 xor	 dl, bl
  0011f	88 55 ef	 mov	 BYTE PTR __k$[ebp+15], dl
  00122	8a 50 10	 mov	 dl, BYTE PTR [eax+16]
  00125	84 d2		 test	 dl, dl
  00127	0f 84 af 00 00
	00		 je	 $LN80@LoadInt_e@2
  0012d	80 f2 ed	 xor	 dl, -19			; ffffffedH
  00130	88 55 f0	 mov	 BYTE PTR __k$[ebp+16], dl
  00133	8a 50 11	 mov	 dl, BYTE PTR [eax+17]
  00136	84 d2		 test	 dl, dl
  00138	0f 84 98 00 00
	00		 je	 $LN79@LoadInt_e@2
  0013e	80 f2 ec	 xor	 dl, -20			; ffffffecH
  00141	88 55 f1	 mov	 BYTE PTR __k$[ebp+17], dl
  00144	8a 50 12	 mov	 dl, BYTE PTR [eax+18]
  00147	84 d2		 test	 dl, dl
  00149	0f 84 82 00 00
	00		 je	 $LN78@LoadInt_e@2
  0014f	32 d1		 xor	 dl, cl
  00151	88 55 f2	 mov	 BYTE PTR __k$[ebp+18], dl
  00154	8a 50 13	 mov	 dl, BYTE PTR [eax+19]
  00157	84 d2		 test	 dl, dl
  00159	74 71		 je	 SHORT $LN77@LoadInt_e@2
  0015b	32 d3		 xor	 dl, bl
  0015d	88 55 f3	 mov	 BYTE PTR __k$[ebp+19], dl
  00160	8a 50 14	 mov	 dl, BYTE PTR [eax+20]
  00163	84 d2		 test	 dl, dl
  00165	74 5f		 je	 SHORT $LN76@LoadInt_e@2
  00167	80 f2 ed	 xor	 dl, -19			; ffffffedH
  0016a	80 78 15 00	 cmp	 BYTE PTR [eax+21], 0
  0016e	88 55 f4	 mov	 BYTE PTR __k$[ebp+20], dl
  00171	0f 84 c3 00 00
	00		 je	 $LN1@LoadInt_e@2
  00177	8a 50 16	 mov	 dl, BYTE PTR [eax+22]
  0017a	84 d2		 test	 dl, dl
  0017c	74 43		 je	 SHORT $LN74@LoadInt_e@2
  0017e	32 d1		 xor	 dl, cl
  00180	88 55 f6	 mov	 BYTE PTR __k$[ebp+22], dl
  00183	8a 50 17	 mov	 dl, BYTE PTR [eax+23]
  00186	84 d2		 test	 dl, dl
  00188	74 32		 je	 SHORT $LN73@LoadInt_e@2
  0018a	32 d3		 xor	 dl, bl
  0018c	88 55 f7	 mov	 BYTE PTR __k$[ebp+23], dl
  0018f	8a 50 18	 mov	 dl, BYTE PTR [eax+24]
  00192	84 d2		 test	 dl, dl
  00194	74 20		 je	 SHORT $LN72@LoadInt_e@2
  00196	8a 40 19	 mov	 al, BYTE PTR [eax+25]
  00199	80 f2 ed	 xor	 dl, -19			; ffffffedH
  0019c	88 55 f8	 mov	 BYTE PTR __k$[ebp+24], dl
  0019f	84 c0		 test	 al, al
  001a1	74 0a		 je	 SHORT $LN71@LoadInt_e@2
  001a3	34 ec		 xor	 al, -20			; ffffffecH
  001a5	88 45 f9	 mov	 BYTE PTR __k$[ebp+25], al
  001a8	e9 8d 00 00 00	 jmp	 $LN1@LoadInt_e@2
$LN71@LoadInt_e@2:
  001ad	c6 45 f9 ec	 mov	 BYTE PTR __k$[ebp+25], -20 ; ffffffecH
  001b1	e9 84 00 00 00	 jmp	 $LN1@LoadInt_e@2
$LN72@LoadInt_e@2:
  001b6	c6 45 f8 ed	 mov	 BYTE PTR __k$[ebp+24], -19 ; ffffffedH
  001ba	eb 7e		 jmp	 SHORT $LN1@LoadInt_e@2
$LN73@LoadInt_e@2:
  001bc	88 5d f7	 mov	 BYTE PTR __k$[ebp+23], bl
  001bf	eb 79		 jmp	 SHORT $LN1@LoadInt_e@2
$LN74@LoadInt_e@2:
  001c1	88 4d f6	 mov	 BYTE PTR __k$[ebp+22], cl
  001c4	eb 74		 jmp	 SHORT $LN1@LoadInt_e@2
$LN76@LoadInt_e@2:
  001c6	c6 45 f4 ed	 mov	 BYTE PTR __k$[ebp+20], -19 ; ffffffedH
  001ca	eb 6e		 jmp	 SHORT $LN1@LoadInt_e@2
$LN77@LoadInt_e@2:
  001cc	88 5d f3	 mov	 BYTE PTR __k$[ebp+19], bl
  001cf	eb 69		 jmp	 SHORT $LN1@LoadInt_e@2
$LN78@LoadInt_e@2:
  001d1	88 4d f2	 mov	 BYTE PTR __k$[ebp+18], cl
  001d4	eb 64		 jmp	 SHORT $LN1@LoadInt_e@2
$LN79@LoadInt_e@2:
  001d6	c6 45 f1 ec	 mov	 BYTE PTR __k$[ebp+17], -20 ; ffffffecH
  001da	eb 5e		 jmp	 SHORT $LN1@LoadInt_e@2
$LN80@LoadInt_e@2:
  001dc	c6 45 f0 ed	 mov	 BYTE PTR __k$[ebp+16], -19 ; ffffffedH
  001e0	eb 58		 jmp	 SHORT $LN1@LoadInt_e@2
$LN81@LoadInt_e@2:
  001e2	88 5d ef	 mov	 BYTE PTR __k$[ebp+15], bl
  001e5	eb 53		 jmp	 SHORT $LN1@LoadInt_e@2
$LN82@LoadInt_e@2:
  001e7	88 4d ee	 mov	 BYTE PTR __k$[ebp+14], cl
  001ea	eb 4e		 jmp	 SHORT $LN1@LoadInt_e@2
$LN83@LoadInt_e@2:
  001ec	c6 45 ed ec	 mov	 BYTE PTR __k$[ebp+13], -20 ; ffffffecH
  001f0	eb 48		 jmp	 SHORT $LN1@LoadInt_e@2
$LN84@LoadInt_e@2:
  001f2	c6 45 ec ed	 mov	 BYTE PTR __k$[ebp+12], -19 ; ffffffedH
  001f6	eb 42		 jmp	 SHORT $LN1@LoadInt_e@2
$LN85@LoadInt_e@2:
  001f8	88 5d eb	 mov	 BYTE PTR __k$[ebp+11], bl
  001fb	eb 3d		 jmp	 SHORT $LN1@LoadInt_e@2
$LN86@LoadInt_e@2:
  001fd	88 4d ea	 mov	 BYTE PTR __k$[ebp+10], cl
  00200	eb 38		 jmp	 SHORT $LN1@LoadInt_e@2
$LN87@LoadInt_e@2:
  00202	c6 45 e9 ec	 mov	 BYTE PTR __k$[ebp+9], -20 ; ffffffecH
  00206	eb 32		 jmp	 SHORT $LN1@LoadInt_e@2
$LN88@LoadInt_e@2:
  00208	c6 45 e8 ed	 mov	 BYTE PTR __k$[ebp+8], -19 ; ffffffedH
  0020c	eb 2c		 jmp	 SHORT $LN1@LoadInt_e@2
$LN89@LoadInt_e@2:
  0020e	88 5d e7	 mov	 BYTE PTR __k$[ebp+7], bl
  00211	eb 27		 jmp	 SHORT $LN1@LoadInt_e@2
$LN90@LoadInt_e@2:
  00213	88 4d e6	 mov	 BYTE PTR __k$[ebp+6], cl
  00216	eb 22		 jmp	 SHORT $LN1@LoadInt_e@2
$LN91@LoadInt_e@2:
  00218	c6 45 e5 ec	 mov	 BYTE PTR __k$[ebp+5], -20 ; ffffffecH
  0021c	eb 1c		 jmp	 SHORT $LN1@LoadInt_e@2
$LN92@LoadInt_e@2:
  0021e	c6 45 e4 ed	 mov	 BYTE PTR __k$[ebp+4], -19 ; ffffffedH
  00222	eb 16		 jmp	 SHORT $LN1@LoadInt_e@2
$LN93@LoadInt_e@2:
  00224	c6 45 e3 ea	 mov	 BYTE PTR __k$[ebp+3], -22 ; ffffffeaH
  00228	eb 10		 jmp	 SHORT $LN1@LoadInt_e@2
$LN94@LoadInt_e@2:
  0022a	c6 45 e2 eb	 mov	 BYTE PTR __k$[ebp+2], -21 ; ffffffebH
  0022e	eb 0a		 jmp	 SHORT $LN1@LoadInt_e@2
$LN95@LoadInt_e@2:
  00230	c6 45 e1 ec	 mov	 BYTE PTR __k$[ebp+1], -20 ; ffffffecH
  00234	eb 04		 jmp	 SHORT $LN1@LoadInt_e@2
$LN96@LoadInt_e@2:
  00236	c6 45 e0 ed	 mov	 BYTE PTR __k$[ebp], -19	; ffffffedH
$LN1@LoadInt_e@2:
  0023a	6a 05		 push	 5
  0023c	8d 45 e0	 lea	 eax, DWORD PTR __k$[ebp]
  0023f	c6 45 f5 00	 mov	 BYTE PTR __k$[ebp+21], 0
  00243	5a		 pop	 edx
$LL104@LoadInt_e@2:
  00244	81 30 ed ec eb
	ea		 xor	 DWORD PTR [eax], -353637139 ; eaebecedH
  0024a	83 c0 04	 add	 eax, 4
  0024d	4a		 dec	 edx
  0024e	75 f4		 jne	 SHORT $LL104@LoadInt_e@2

; 120  : 		return LoadInt(_k, i);

  00250	ff 75 0c	 push	 DWORD PTR _i$[ebp]
  00253	80 75 f4 ed	 xor	 BYTE PTR __k$[ebp+20], -19 ; ffffffedH
  00257	8d 45 e0	 lea	 eax, DWORD PTR __k$[ebp]
  0025a	50		 push	 eax
  0025b	8b ce		 mov	 ecx, esi
  0025d	ff 15 00 00 00
	00		 call	 DWORD PTR __imp_?LoadInt@ioINILoader@@QAEHPBDH@Z

; 121  : 	}

  00263	8b 4d fc	 mov	 ecx, DWORD PTR __$ArrayPad$[ebp]
  00266	5e		 pop	 esi
  00267	33 cd		 xor	 ecx, ebp
  00269	5b		 pop	 ebx
  0026a	e8 00 00 00 00	 call	 @__security_check_cookie@4
  0026f	c9		 leave
  00270	c2 08 00	 ret	 8
??$LoadInt_e@$0BG@@ioINILoader@@QAEHAAY0BG@$$CBDH@Z ENDP ; ioINILoader::LoadInt_e<22>
_TEXT	ENDS
PUBLIC	__$ArrayPad$
PUBLIC	??$LoadFloat_e@$0O@@ioINILoader@@QAEMAAY0O@$$CBDM@Z ; ioINILoader::LoadFloat_e<14>
; Function compile flags: /Ogsp
;	COMDAT ??$LoadFloat_e@$0O@@ioINILoader@@QAEMAAY0O@$$CBDM@Z
_TEXT	SEGMENT
__k$ = -24						; size = 14
__$ArrayPad$ = -4					; size = 4
_k$ = 8							; size = 4
_f$ = 12						; size = 4
??$LoadFloat_e@$0O@@ioINILoader@@QAEMAAY0O@$$CBDM@Z PROC ; ioINILoader::LoadFloat_e<14>, COMDAT
; _this$ = ecx

; 135  : 	{

  00000	55		 push	 ebp
  00001	8b ec		 mov	 ebp, esp
  00003	83 ec 18	 sub	 esp, 24			; 00000018H
  00006	a1 00 00 00 00	 mov	 eax, DWORD PTR ___security_cookie
  0000b	33 c5		 xor	 eax, ebp
  0000d	89 45 fc	 mov	 DWORD PTR __$ArrayPad$[ebp], eax
  00010	8b 45 08	 mov	 eax, DWORD PTR _k$[ebp]

; 136  : 		_ENCSTR(k, _k);

  00013	8a 10		 mov	 dl, BYTE PTR [eax]
  00015	56		 push	 esi
  00016	8b f1		 mov	 esi, ecx
  00018	84 d2		 test	 dl, dl
  0001a	0f 84 64 01 00
	00		 je	 $LN96@LoadFloat_@2
  00020	80 f2 ed	 xor	 dl, -19			; ffffffedH
  00023	88 55 e8	 mov	 BYTE PTR __k$[ebp], dl
  00026	8a 50 01	 mov	 dl, BYTE PTR [eax+1]
  00029	84 d2		 test	 dl, dl
  0002b	0f 84 4d 01 00
	00		 je	 $LN95@LoadFloat_@2
  00031	80 f2 ec	 xor	 dl, -20			; ffffffecH
  00034	88 55 e9	 mov	 BYTE PTR __k$[ebp+1], dl
  00037	8a 50 02	 mov	 dl, BYTE PTR [eax+2]
  0003a	84 d2		 test	 dl, dl
  0003c	0f 84 36 01 00
	00		 je	 $LN94@LoadFloat_@2
  00042	b1 eb		 mov	 cl, -21			; ffffffebH
  00044	32 d1		 xor	 dl, cl
  00046	88 55 ea	 mov	 BYTE PTR __k$[ebp+2], dl
  00049	8a 50 03	 mov	 dl, BYTE PTR [eax+3]
  0004c	84 d2		 test	 dl, dl
  0004e	0f 84 1e 01 00
	00		 je	 $LN93@LoadFloat_@2
  00054	80 f2 ea	 xor	 dl, -22			; ffffffeaH
  00057	88 55 eb	 mov	 BYTE PTR __k$[ebp+3], dl
  0005a	8a 50 04	 mov	 dl, BYTE PTR [eax+4]
  0005d	84 d2		 test	 dl, dl
  0005f	0f 84 07 01 00
	00		 je	 $LN92@LoadFloat_@2
  00065	80 f2 ed	 xor	 dl, -19			; ffffffedH
  00068	88 55 ec	 mov	 BYTE PTR __k$[ebp+4], dl
  0006b	8a 50 05	 mov	 dl, BYTE PTR [eax+5]
  0006e	84 d2		 test	 dl, dl
  00070	0f 84 f0 00 00
	00		 je	 $LN91@LoadFloat_@2
  00076	80 f2 ec	 xor	 dl, -20			; ffffffecH
  00079	88 55 ed	 mov	 BYTE PTR __k$[ebp+5], dl
  0007c	8a 50 06	 mov	 dl, BYTE PTR [eax+6]
  0007f	84 d2		 test	 dl, dl
  00081	0f 84 da 00 00
	00		 je	 $LN90@LoadFloat_@2
  00087	32 d1		 xor	 dl, cl
  00089	88 55 ee	 mov	 BYTE PTR __k$[ebp+6], dl
  0008c	8a 50 07	 mov	 dl, BYTE PTR [eax+7]
  0008f	84 d2		 test	 dl, dl
  00091	0f 84 c4 00 00
	00		 je	 $LN89@LoadFloat_@2
  00097	80 f2 ea	 xor	 dl, -22			; ffffffeaH
  0009a	88 55 ef	 mov	 BYTE PTR __k$[ebp+7], dl
  0009d	8a 50 08	 mov	 dl, BYTE PTR [eax+8]
  000a0	84 d2		 test	 dl, dl
  000a2	0f 84 ad 00 00
	00		 je	 $LN88@LoadFloat_@2
  000a8	80 f2 ed	 xor	 dl, -19			; ffffffedH
  000ab	88 55 f0	 mov	 BYTE PTR __k$[ebp+8], dl
  000ae	8a 50 09	 mov	 dl, BYTE PTR [eax+9]
  000b1	84 d2		 test	 dl, dl
  000b3	0f 84 96 00 00
	00		 je	 $LN87@LoadFloat_@2
  000b9	80 f2 ec	 xor	 dl, -20			; ffffffecH
  000bc	88 55 f1	 mov	 BYTE PTR __k$[ebp+9], dl
  000bf	8a 50 0a	 mov	 dl, BYTE PTR [eax+10]
  000c2	84 d2		 test	 dl, dl
  000c4	0f 84 80 00 00
	00		 je	 $LN86@LoadFloat_@2
  000ca	32 d1		 xor	 dl, cl
  000cc	88 55 f2	 mov	 BYTE PTR __k$[ebp+10], dl
  000cf	8a 50 0b	 mov	 dl, BYTE PTR [eax+11]
  000d2	84 d2		 test	 dl, dl
  000d4	74 6e		 je	 SHORT $LN85@LoadFloat_@2
  000d6	80 f2 ea	 xor	 dl, -22			; ffffffeaH
  000d9	88 55 f3	 mov	 BYTE PTR __k$[ebp+11], dl
  000dc	8a 50 0c	 mov	 dl, BYTE PTR [eax+12]
  000df	84 d2		 test	 dl, dl
  000e1	74 5b		 je	 SHORT $LN84@LoadFloat_@2
  000e3	80 f2 ed	 xor	 dl, -19			; ffffffedH
  000e6	80 78 0d 00	 cmp	 BYTE PTR [eax+13], 0
  000ea	88 55 f4	 mov	 BYTE PTR __k$[ebp+12], dl
  000ed	0f 84 95 00 00
	00		 je	 $LN1@LoadFloat_@2
  000f3	8a 50 0e	 mov	 dl, BYTE PTR [eax+14]
  000f6	84 d2		 test	 dl, dl
  000f8	74 3f		 je	 SHORT $LN82@LoadFloat_@2
  000fa	32 d1		 xor	 dl, cl
  000fc	88 55 f6	 mov	 BYTE PTR __k$[ebp+14], dl
  000ff	8a 50 0f	 mov	 dl, BYTE PTR [eax+15]
  00102	84 d2		 test	 dl, dl
  00104	74 2d		 je	 SHORT $LN81@LoadFloat_@2
  00106	80 f2 ea	 xor	 dl, -22			; ffffffeaH
  00109	88 55 f7	 mov	 BYTE PTR __k$[ebp+15], dl
  0010c	8a 50 10	 mov	 dl, BYTE PTR [eax+16]
  0010f	84 d2		 test	 dl, dl
  00111	74 1a		 je	 SHORT $LN80@LoadFloat_@2
  00113	8a 40 11	 mov	 al, BYTE PTR [eax+17]
  00116	80 f2 ed	 xor	 dl, -19			; ffffffedH
  00119	88 55 f8	 mov	 BYTE PTR __k$[ebp+16], dl
  0011c	84 c0		 test	 al, al
  0011e	74 07		 je	 SHORT $LN79@LoadFloat_@2
  00120	34 ec		 xor	 al, -20			; ffffffecH
  00122	88 45 f9	 mov	 BYTE PTR __k$[ebp+17], al
  00125	eb 61		 jmp	 SHORT $LN1@LoadFloat_@2
$LN79@LoadFloat_@2:
  00127	c6 45 f9 ec	 mov	 BYTE PTR __k$[ebp+17], -20 ; ffffffecH
  0012b	eb 5b		 jmp	 SHORT $LN1@LoadFloat_@2
$LN80@LoadFloat_@2:
  0012d	c6 45 f8 ed	 mov	 BYTE PTR __k$[ebp+16], -19 ; ffffffedH
  00131	eb 55		 jmp	 SHORT $LN1@LoadFloat_@2
$LN81@LoadFloat_@2:
  00133	c6 45 f7 ea	 mov	 BYTE PTR __k$[ebp+15], -22 ; ffffffeaH
  00137	eb 4f		 jmp	 SHORT $LN1@LoadFloat_@2
$LN82@LoadFloat_@2:
  00139	88 4d f6	 mov	 BYTE PTR __k$[ebp+14], cl
  0013c	eb 4a		 jmp	 SHORT $LN1@LoadFloat_@2
$LN84@LoadFloat_@2:
  0013e	c6 45 f4 ed	 mov	 BYTE PTR __k$[ebp+12], -19 ; ffffffedH
  00142	eb 44		 jmp	 SHORT $LN1@LoadFloat_@2
$LN85@LoadFloat_@2:
  00144	c6 45 f3 ea	 mov	 BYTE PTR __k$[ebp+11], -22 ; ffffffeaH
  00148	eb 3e		 jmp	 SHORT $LN1@LoadFloat_@2
$LN86@LoadFloat_@2:
  0014a	88 4d f2	 mov	 BYTE PTR __k$[ebp+10], cl
  0014d	eb 39		 jmp	 SHORT $LN1@LoadFloat_@2
$LN87@LoadFloat_@2:
  0014f	c6 45 f1 ec	 mov	 BYTE PTR __k$[ebp+9], -20 ; ffffffecH
  00153	eb 33		 jmp	 SHORT $LN1@LoadFloat_@2
$LN88@LoadFloat_@2:
  00155	c6 45 f0 ed	 mov	 BYTE PTR __k$[ebp+8], -19 ; ffffffedH
  00159	eb 2d		 jmp	 SHORT $LN1@LoadFloat_@2
$LN89@LoadFloat_@2:
  0015b	c6 45 ef ea	 mov	 BYTE PTR __k$[ebp+7], -22 ; ffffffeaH
  0015f	eb 27		 jmp	 SHORT $LN1@LoadFloat_@2
$LN90@LoadFloat_@2:
  00161	88 4d ee	 mov	 BYTE PTR __k$[ebp+6], cl
  00164	eb 22		 jmp	 SHORT $LN1@LoadFloat_@2
$LN91@LoadFloat_@2:
  00166	c6 45 ed ec	 mov	 BYTE PTR __k$[ebp+5], -20 ; ffffffecH
  0016a	eb 1c		 jmp	 SHORT $LN1@LoadFloat_@2
$LN92@LoadFloat_@2:
  0016c	c6 45 ec ed	 mov	 BYTE PTR __k$[ebp+4], -19 ; ffffffedH
  00170	eb 16		 jmp	 SHORT $LN1@LoadFloat_@2
$LN93@LoadFloat_@2:
  00172	c6 45 eb ea	 mov	 BYTE PTR __k$[ebp+3], -22 ; ffffffeaH
  00176	eb 10		 jmp	 SHORT $LN1@LoadFloat_@2
$LN94@LoadFloat_@2:
  00178	c6 45 ea eb	 mov	 BYTE PTR __k$[ebp+2], -21 ; ffffffebH
  0017c	eb 0a		 jmp	 SHORT $LN1@LoadFloat_@2
$LN95@LoadFloat_@2:
  0017e	c6 45 e9 ec	 mov	 BYTE PTR __k$[ebp+1], -20 ; ffffffecH
  00182	eb 04		 jmp	 SHORT $LN1@LoadFloat_@2
$LN96@LoadFloat_@2:
  00184	c6 45 e8 ed	 mov	 BYTE PTR __k$[ebp], -19	; ffffffedH
$LN1@LoadFloat_@2:
  00188	6a 03		 push	 3
  0018a	8d 45 e8	 lea	 eax, DWORD PTR __k$[ebp]
  0018d	c6 45 f5 00	 mov	 BYTE PTR __k$[ebp+13], 0
  00191	5a		 pop	 edx
$LL104@LoadFloat_@2:
  00192	81 30 ed ec eb
	ea		 xor	 DWORD PTR [eax], -353637139 ; eaebecedH
  00198	83 c0 04	 add	 eax, 4
  0019b	4a		 dec	 edx
  0019c	75 f4		 jne	 SHORT $LL104@LoadFloat_@2

; 137  : 		return LoadFloat(_k, f);

  0019e	f3 0f 10 45 0c	 movss	 xmm0, DWORD PTR _f$[ebp]
  001a3	80 75 f4 ed	 xor	 BYTE PTR __k$[ebp+12], -19 ; ffffffedH
  001a7	51		 push	 ecx
  001a8	8d 45 e8	 lea	 eax, DWORD PTR __k$[ebp]
  001ab	f3 0f 11 04 24	 movss	 DWORD PTR [esp], xmm0
  001b0	50		 push	 eax
  001b1	8b ce		 mov	 ecx, esi
  001b3	ff 15 00 00 00
	00		 call	 DWORD PTR __imp_?LoadFloat@ioINILoader@@QAEMPBDM@Z

; 138  : 	}

  001b9	8b 4d fc	 mov	 ecx, DWORD PTR __$ArrayPad$[ebp]
  001bc	33 cd		 xor	 ecx, ebp
  001be	5e		 pop	 esi
  001bf	e8 00 00 00 00	 call	 @__security_check_cookie@4
  001c4	c9		 leave
  001c5	c2 08 00	 ret	 8
??$LoadFloat_e@$0O@@ioINILoader@@QAEMAAY0O@$$CBDM@Z ENDP ; ioINILoader::LoadFloat_e<14>
_TEXT	ENDS
PUBLIC	__$ArrayPad$
PUBLIC	??$LoadFloat_e@$0BF@@ioINILoader@@QAEMAAY0BF@$$CBDM@Z ; ioINILoader::LoadFloat_e<21>
; Function compile flags: /Ogsp
;	COMDAT ??$LoadFloat_e@$0BF@@ioINILoader@@QAEMAAY0BF@$$CBDM@Z
_TEXT	SEGMENT
__k$ = -32						; size = 21
__$ArrayPad$ = -4					; size = 4
_k$ = 8							; size = 4
_f$ = 12						; size = 4
??$LoadFloat_e@$0BF@@ioINILoader@@QAEMAAY0BF@$$CBDM@Z PROC ; ioINILoader::LoadFloat_e<21>, COMDAT
; _this$ = ecx

; 135  : 	{

  00000	55		 push	 ebp
  00001	8b ec		 mov	 ebp, esp
  00003	83 ec 20	 sub	 esp, 32			; 00000020H
  00006	a1 00 00 00 00	 mov	 eax, DWORD PTR ___security_cookie
  0000b	33 c5		 xor	 eax, ebp
  0000d	89 45 fc	 mov	 DWORD PTR __$ArrayPad$[ebp], eax
  00010	8b 45 08	 mov	 eax, DWORD PTR _k$[ebp]

; 136  : 		_ENCSTR(k, _k);

  00013	8a 10		 mov	 dl, BYTE PTR [eax]
  00015	53		 push	 ebx
  00016	56		 push	 esi
  00017	8b f1		 mov	 esi, ecx
  00019	84 d2		 test	 dl, dl
  0001b	0f 84 f7 01 00
	00		 je	 $LN96@LoadFloat_@3
  00021	80 f2 ed	 xor	 dl, -19			; ffffffedH
  00024	88 55 e0	 mov	 BYTE PTR __k$[ebp], dl
  00027	8a 50 01	 mov	 dl, BYTE PTR [eax+1]
  0002a	84 d2		 test	 dl, dl
  0002c	0f 84 e0 01 00
	00		 je	 $LN95@LoadFloat_@3
  00032	b1 ec		 mov	 cl, -20			; ffffffecH
  00034	32 d1		 xor	 dl, cl
  00036	88 55 e1	 mov	 BYTE PTR __k$[ebp+1], dl
  00039	8a 50 02	 mov	 dl, BYTE PTR [eax+2]
  0003c	84 d2		 test	 dl, dl
  0003e	0f 84 c8 01 00
	00		 je	 $LN94@LoadFloat_@3
  00044	b3 eb		 mov	 bl, -21			; ffffffebH
  00046	32 d3		 xor	 dl, bl
  00048	88 55 e2	 mov	 BYTE PTR __k$[ebp+2], dl
  0004b	8a 50 03	 mov	 dl, BYTE PTR [eax+3]
  0004e	84 d2		 test	 dl, dl
  00050	0f 84 b0 01 00
	00		 je	 $LN93@LoadFloat_@3
  00056	80 f2 ea	 xor	 dl, -22			; ffffffeaH
  00059	88 55 e3	 mov	 BYTE PTR __k$[ebp+3], dl
  0005c	8a 50 04	 mov	 dl, BYTE PTR [eax+4]
  0005f	84 d2		 test	 dl, dl
  00061	0f 84 99 01 00
	00		 je	 $LN92@LoadFloat_@3
  00067	80 f2 ed	 xor	 dl, -19			; ffffffedH
  0006a	88 55 e4	 mov	 BYTE PTR __k$[ebp+4], dl
  0006d	8a 50 05	 mov	 dl, BYTE PTR [eax+5]
  00070	84 d2		 test	 dl, dl
  00072	0f 84 83 01 00
	00		 je	 $LN91@LoadFloat_@3
  00078	32 d1		 xor	 dl, cl
  0007a	88 55 e5	 mov	 BYTE PTR __k$[ebp+5], dl
  0007d	8a 50 06	 mov	 dl, BYTE PTR [eax+6]
  00080	84 d2		 test	 dl, dl
  00082	0f 84 6e 01 00
	00		 je	 $LN90@LoadFloat_@3
  00088	32 d3		 xor	 dl, bl
  0008a	88 55 e6	 mov	 BYTE PTR __k$[ebp+6], dl
  0008d	8a 50 07	 mov	 dl, BYTE PTR [eax+7]
  00090	84 d2		 test	 dl, dl
  00092	0f 84 58 01 00
	00		 je	 $LN89@LoadFloat_@3
  00098	80 f2 ea	 xor	 dl, -22			; ffffffeaH
  0009b	88 55 e7	 mov	 BYTE PTR __k$[ebp+7], dl
  0009e	8a 50 08	 mov	 dl, BYTE PTR [eax+8]
  000a1	84 d2		 test	 dl, dl
  000a3	0f 84 41 01 00
	00		 je	 $LN88@LoadFloat_@3
  000a9	80 f2 ed	 xor	 dl, -19			; ffffffedH
  000ac	88 55 e8	 mov	 BYTE PTR __k$[ebp+8], dl
  000af	8a 50 09	 mov	 dl, BYTE PTR [eax+9]
  000b2	84 d2		 test	 dl, dl
  000b4	0f 84 2b 01 00
	00		 je	 $LN87@LoadFloat_@3
  000ba	32 d1		 xor	 dl, cl
  000bc	88 55 e9	 mov	 BYTE PTR __k$[ebp+9], dl
  000bf	8a 50 0a	 mov	 dl, BYTE PTR [eax+10]
  000c2	84 d2		 test	 dl, dl
  000c4	0f 84 16 01 00
	00		 je	 $LN86@LoadFloat_@3
  000ca	32 d3		 xor	 dl, bl
  000cc	88 55 ea	 mov	 BYTE PTR __k$[ebp+10], dl
  000cf	8a 50 0b	 mov	 dl, BYTE PTR [eax+11]
  000d2	84 d2		 test	 dl, dl
  000d4	0f 84 00 01 00
	00		 je	 $LN85@LoadFloat_@3
  000da	80 f2 ea	 xor	 dl, -22			; ffffffeaH
  000dd	88 55 eb	 mov	 BYTE PTR __k$[ebp+11], dl
  000e0	8a 50 0c	 mov	 dl, BYTE PTR [eax+12]
  000e3	84 d2		 test	 dl, dl
  000e5	0f 84 e9 00 00
	00		 je	 $LN84@LoadFloat_@3
  000eb	80 f2 ed	 xor	 dl, -19			; ffffffedH
  000ee	88 55 ec	 mov	 BYTE PTR __k$[ebp+12], dl
  000f1	8a 50 0d	 mov	 dl, BYTE PTR [eax+13]
  000f4	84 d2		 test	 dl, dl
  000f6	0f 84 d3 00 00
	00		 je	 $LN83@LoadFloat_@3
  000fc	32 d1		 xor	 dl, cl
  000fe	88 55 ed	 mov	 BYTE PTR __k$[ebp+13], dl
  00101	8a 50 0e	 mov	 dl, BYTE PTR [eax+14]
  00104	84 d2		 test	 dl, dl
  00106	0f 84 be 00 00
	00		 je	 $LN82@LoadFloat_@3
  0010c	32 d3		 xor	 dl, bl
  0010e	88 55 ee	 mov	 BYTE PTR __k$[ebp+14], dl
  00111	8a 50 0f	 mov	 dl, BYTE PTR [eax+15]
  00114	84 d2		 test	 dl, dl
  00116	0f 84 a8 00 00
	00		 je	 $LN81@LoadFloat_@3
  0011c	80 f2 ea	 xor	 dl, -22			; ffffffeaH
  0011f	88 55 ef	 mov	 BYTE PTR __k$[ebp+15], dl
  00122	8a 50 10	 mov	 dl, BYTE PTR [eax+16]
  00125	84 d2		 test	 dl, dl
  00127	0f 84 91 00 00
	00		 je	 $LN80@LoadFloat_@3
  0012d	80 f2 ed	 xor	 dl, -19			; ffffffedH
  00130	88 55 f0	 mov	 BYTE PTR __k$[ebp+16], dl
  00133	8a 50 11	 mov	 dl, BYTE PTR [eax+17]
  00136	84 d2		 test	 dl, dl
  00138	74 7f		 je	 SHORT $LN79@LoadFloat_@3
  0013a	32 d1		 xor	 dl, cl
  0013c	88 55 f1	 mov	 BYTE PTR __k$[ebp+17], dl
  0013f	8a 50 12	 mov	 dl, BYTE PTR [eax+18]
  00142	84 d2		 test	 dl, dl
  00144	74 6e		 je	 SHORT $LN78@LoadFloat_@3
  00146	32 d3		 xor	 dl, bl
  00148	88 55 f2	 mov	 BYTE PTR __k$[ebp+18], dl
  0014b	8a 50 13	 mov	 dl, BYTE PTR [eax+19]
  0014e	84 d2		 test	 dl, dl
  00150	74 5c		 je	 SHORT $LN77@LoadFloat_@3
  00152	80 f2 ea	 xor	 dl, -22			; ffffffeaH
  00155	80 78 14 00	 cmp	 BYTE PTR [eax+20], 0
  00159	88 55 f3	 mov	 BYTE PTR __k$[ebp+19], dl
  0015c	0f 84 ba 00 00
	00		 je	 $LN1@LoadFloat_@3
  00162	8a 50 15	 mov	 dl, BYTE PTR [eax+21]
  00165	84 d2		 test	 dl, dl
  00167	74 40		 je	 SHORT $LN75@LoadFloat_@3
  00169	32 d1		 xor	 dl, cl
  0016b	88 55 f5	 mov	 BYTE PTR __k$[ebp+21], dl
  0016e	8a 50 16	 mov	 dl, BYTE PTR [eax+22]
  00171	84 d2		 test	 dl, dl
  00173	74 2f		 je	 SHORT $LN74@LoadFloat_@3
  00175	32 d3		 xor	 dl, bl
  00177	88 55 f6	 mov	 BYTE PTR __k$[ebp+22], dl
  0017a	8a 50 17	 mov	 dl, BYTE PTR [eax+23]
  0017d	84 d2		 test	 dl, dl
  0017f	74 1d		 je	 SHORT $LN73@LoadFloat_@3
  00181	8a 40 18	 mov	 al, BYTE PTR [eax+24]
  00184	80 f2 ea	 xor	 dl, -22			; ffffffeaH
  00187	88 55 f7	 mov	 BYTE PTR __k$[ebp+23], dl
  0018a	84 c0		 test	 al, al
  0018c	74 0a		 je	 SHORT $LN72@LoadFloat_@3
  0018e	34 ed		 xor	 al, -19			; ffffffedH
  00190	88 45 f8	 mov	 BYTE PTR __k$[ebp+24], al
  00193	e9 84 00 00 00	 jmp	 $LN1@LoadFloat_@3
$LN72@LoadFloat_@3:
  00198	c6 45 f8 ed	 mov	 BYTE PTR __k$[ebp+24], -19 ; ffffffedH
  0019c	eb 7e		 jmp	 SHORT $LN1@LoadFloat_@3
$LN73@LoadFloat_@3:
  0019e	c6 45 f7 ea	 mov	 BYTE PTR __k$[ebp+23], -22 ; ffffffeaH
  001a2	eb 78		 jmp	 SHORT $LN1@LoadFloat_@3
$LN74@LoadFloat_@3:
  001a4	88 5d f6	 mov	 BYTE PTR __k$[ebp+22], bl
  001a7	eb 73		 jmp	 SHORT $LN1@LoadFloat_@3
$LN75@LoadFloat_@3:
  001a9	88 4d f5	 mov	 BYTE PTR __k$[ebp+21], cl
  001ac	eb 6e		 jmp	 SHORT $LN1@LoadFloat_@3
$LN77@LoadFloat_@3:
  001ae	c6 45 f3 ea	 mov	 BYTE PTR __k$[ebp+19], -22 ; ffffffeaH
  001b2	eb 68		 jmp	 SHORT $LN1@LoadFloat_@3
$LN78@LoadFloat_@3:
  001b4	88 5d f2	 mov	 BYTE PTR __k$[ebp+18], bl
  001b7	eb 63		 jmp	 SHORT $LN1@LoadFloat_@3
$LN79@LoadFloat_@3:
  001b9	88 4d f1	 mov	 BYTE PTR __k$[ebp+17], cl
  001bc	eb 5e		 jmp	 SHORT $LN1@LoadFloat_@3
$LN80@LoadFloat_@3:
  001be	c6 45 f0 ed	 mov	 BYTE PTR __k$[ebp+16], -19 ; ffffffedH
  001c2	eb 58		 jmp	 SHORT $LN1@LoadFloat_@3
$LN81@LoadFloat_@3:
  001c4	c6 45 ef ea	 mov	 BYTE PTR __k$[ebp+15], -22 ; ffffffeaH
  001c8	eb 52		 jmp	 SHORT $LN1@LoadFloat_@3
$LN82@LoadFloat_@3:
  001ca	88 5d ee	 mov	 BYTE PTR __k$[ebp+14], bl
  001cd	eb 4d		 jmp	 SHORT $LN1@LoadFloat_@3
$LN83@LoadFloat_@3:
  001cf	88 4d ed	 mov	 BYTE PTR __k$[ebp+13], cl
  001d2	eb 48		 jmp	 SHORT $LN1@LoadFloat_@3
$LN84@LoadFloat_@3:
  001d4	c6 45 ec ed	 mov	 BYTE PTR __k$[ebp+12], -19 ; ffffffedH
  001d8	eb 42		 jmp	 SHORT $LN1@LoadFloat_@3
$LN85@LoadFloat_@3:
  001da	c6 45 eb ea	 mov	 BYTE PTR __k$[ebp+11], -22 ; ffffffeaH
  001de	eb 3c		 jmp	 SHORT $LN1@LoadFloat_@3
$LN86@LoadFloat_@3:
  001e0	88 5d ea	 mov	 BYTE PTR __k$[ebp+10], bl
  001e3	eb 37		 jmp	 SHORT $LN1@LoadFloat_@3
$LN87@LoadFloat_@3:
  001e5	88 4d e9	 mov	 BYTE PTR __k$[ebp+9], cl
  001e8	eb 32		 jmp	 SHORT $LN1@LoadFloat_@3
$LN88@LoadFloat_@3:
  001ea	c6 45 e8 ed	 mov	 BYTE PTR __k$[ebp+8], -19 ; ffffffedH
  001ee	eb 2c		 jmp	 SHORT $LN1@LoadFloat_@3
$LN89@LoadFloat_@3:
  001f0	c6 45 e7 ea	 mov	 BYTE PTR __k$[ebp+7], -22 ; ffffffeaH
  001f4	eb 26		 jmp	 SHORT $LN1@LoadFloat_@3
$LN90@LoadFloat_@3:
  001f6	88 5d e6	 mov	 BYTE PTR __k$[ebp+6], bl
  001f9	eb 21		 jmp	 SHORT $LN1@LoadFloat_@3
$LN91@LoadFloat_@3:
  001fb	88 4d e5	 mov	 BYTE PTR __k$[ebp+5], cl
  001fe	eb 1c		 jmp	 SHORT $LN1@LoadFloat_@3
$LN92@LoadFloat_@3:
  00200	c6 45 e4 ed	 mov	 BYTE PTR __k$[ebp+4], -19 ; ffffffedH
  00204	eb 16		 jmp	 SHORT $LN1@LoadFloat_@3
$LN93@LoadFloat_@3:
  00206	c6 45 e3 ea	 mov	 BYTE PTR __k$[ebp+3], -22 ; ffffffeaH
  0020a	eb 10		 jmp	 SHORT $LN1@LoadFloat_@3
$LN94@LoadFloat_@3:
  0020c	c6 45 e2 eb	 mov	 BYTE PTR __k$[ebp+2], -21 ; ffffffebH
  00210	eb 0a		 jmp	 SHORT $LN1@LoadFloat_@3
$LN95@LoadFloat_@3:
  00212	c6 45 e1 ec	 mov	 BYTE PTR __k$[ebp+1], -20 ; ffffffecH
  00216	eb 04		 jmp	 SHORT $LN1@LoadFloat_@3
$LN96@LoadFloat_@3:
  00218	c6 45 e0 ed	 mov	 BYTE PTR __k$[ebp], -19	; ffffffedH
$LN1@LoadFloat_@3:
  0021c	6a 05		 push	 5
  0021e	8d 45 e0	 lea	 eax, DWORD PTR __k$[ebp]
  00221	c6 45 f4 00	 mov	 BYTE PTR __k$[ebp+20], 0
  00225	5a		 pop	 edx
$LL104@LoadFloat_@3:
  00226	81 30 ed ec eb
	ea		 xor	 DWORD PTR [eax], -353637139 ; eaebecedH
  0022c	83 c0 04	 add	 eax, 4
  0022f	4a		 dec	 edx
  00230	75 f4		 jne	 SHORT $LL104@LoadFloat_@3

; 137  : 		return LoadFloat(_k, f);

  00232	f3 0f 10 45 0c	 movss	 xmm0, DWORD PTR _f$[ebp]
  00237	51		 push	 ecx
  00238	8d 45 e0	 lea	 eax, DWORD PTR __k$[ebp]
  0023b	f3 0f 11 04 24	 movss	 DWORD PTR [esp], xmm0
  00240	50		 push	 eax
  00241	8b ce		 mov	 ecx, esi
  00243	ff 15 00 00 00
	00		 call	 DWORD PTR __imp_?LoadFloat@ioINILoader@@QAEMPBDM@Z

; 138  : 	}

  00249	8b 4d fc	 mov	 ecx, DWORD PTR __$ArrayPad$[ebp]
  0024c	5e		 pop	 esi
  0024d	33 cd		 xor	 ecx, ebp
  0024f	5b		 pop	 ebx
  00250	e8 00 00 00 00	 call	 @__security_check_cookie@4
  00255	c9		 leave
  00256	c2 08 00	 ret	 8
??$LoadFloat_e@$0BF@@ioINILoader@@QAEMAAY0BF@$$CBDM@Z ENDP ; ioINILoader::LoadFloat_e<21>
_TEXT	ENDS
PUBLIC	__$ArrayPad$
PUBLIC	??$LoadFloat_e@$0BA@@ioINILoader@@QAEMAAY0BA@$$CBDM@Z ; ioINILoader::LoadFloat_e<16>
; Function compile flags: /Ogsp
;	COMDAT ??$LoadFloat_e@$0BA@@ioINILoader@@QAEMAAY0BA@$$CBDM@Z
_TEXT	SEGMENT
__k$ = -24						; size = 16
__$ArrayPad$ = -4					; size = 4
_k$ = 8							; size = 4
_f$ = 12						; size = 4
??$LoadFloat_e@$0BA@@ioINILoader@@QAEMAAY0BA@$$CBDM@Z PROC ; ioINILoader::LoadFloat_e<16>, COMDAT
; _this$ = ecx

; 135  : 	{

  00000	55		 push	 ebp
  00001	8b ec		 mov	 ebp, esp
  00003	83 ec 18	 sub	 esp, 24			; 00000018H
  00006	a1 00 00 00 00	 mov	 eax, DWORD PTR ___security_cookie
  0000b	33 c5		 xor	 eax, ebp
  0000d	89 45 fc	 mov	 DWORD PTR __$ArrayPad$[ebp], eax
  00010	8b 45 08	 mov	 eax, DWORD PTR _k$[ebp]

; 136  : 		_ENCSTR(k, _k);

  00013	8a 10		 mov	 dl, BYTE PTR [eax]
  00015	56		 push	 esi
  00016	8b f1		 mov	 esi, ecx
  00018	84 d2		 test	 dl, dl
  0001a	0f 84 8c 01 00
	00		 je	 $LN96@LoadFloat_@4
  00020	80 f2 ed	 xor	 dl, -19			; ffffffedH
  00023	88 55 e8	 mov	 BYTE PTR __k$[ebp], dl
  00026	8a 50 01	 mov	 dl, BYTE PTR [eax+1]
  00029	84 d2		 test	 dl, dl
  0002b	0f 84 75 01 00
	00		 je	 $LN95@LoadFloat_@4
  00031	80 f2 ec	 xor	 dl, -20			; ffffffecH
  00034	88 55 e9	 mov	 BYTE PTR __k$[ebp+1], dl
  00037	8a 50 02	 mov	 dl, BYTE PTR [eax+2]
  0003a	84 d2		 test	 dl, dl
  0003c	0f 84 5e 01 00
	00		 je	 $LN94@LoadFloat_@4
  00042	b1 eb		 mov	 cl, -21			; ffffffebH
  00044	32 d1		 xor	 dl, cl
  00046	88 55 ea	 mov	 BYTE PTR __k$[ebp+2], dl
  00049	8a 50 03	 mov	 dl, BYTE PTR [eax+3]
  0004c	84 d2		 test	 dl, dl
  0004e	0f 84 46 01 00
	00		 je	 $LN93@LoadFloat_@4
  00054	80 f2 ea	 xor	 dl, -22			; ffffffeaH
  00057	88 55 eb	 mov	 BYTE PTR __k$[ebp+3], dl
  0005a	8a 50 04	 mov	 dl, BYTE PTR [eax+4]
  0005d	84 d2		 test	 dl, dl
  0005f	0f 84 2f 01 00
	00		 je	 $LN92@LoadFloat_@4
  00065	80 f2 ed	 xor	 dl, -19			; ffffffedH
  00068	88 55 ec	 mov	 BYTE PTR __k$[ebp+4], dl
  0006b	8a 50 05	 mov	 dl, BYTE PTR [eax+5]
  0006e	84 d2		 test	 dl, dl
  00070	0f 84 18 01 00
	00		 je	 $LN91@LoadFloat_@4
  00076	80 f2 ec	 xor	 dl, -20			; ffffffecH
  00079	88 55 ed	 mov	 BYTE PTR __k$[ebp+5], dl
  0007c	8a 50 06	 mov	 dl, BYTE PTR [eax+6]
  0007f	84 d2		 test	 dl, dl
  00081	0f 84 02 01 00
	00		 je	 $LN90@LoadFloat_@4
  00087	32 d1		 xor	 dl, cl
  00089	88 55 ee	 mov	 BYTE PTR __k$[ebp+6], dl
  0008c	8a 50 07	 mov	 dl, BYTE PTR [eax+7]
  0008f	84 d2		 test	 dl, dl
  00091	0f 84 ec 00 00
	00		 je	 $LN89@LoadFloat_@4
  00097	80 f2 ea	 xor	 dl, -22			; ffffffeaH
  0009a	88 55 ef	 mov	 BYTE PTR __k$[ebp+7], dl
  0009d	8a 50 08	 mov	 dl, BYTE PTR [eax+8]
  000a0	84 d2		 test	 dl, dl
  000a2	0f 84 d5 00 00
	00		 je	 $LN88@LoadFloat_@4
  000a8	80 f2 ed	 xor	 dl, -19			; ffffffedH
  000ab	88 55 f0	 mov	 BYTE PTR __k$[ebp+8], dl
  000ae	8a 50 09	 mov	 dl, BYTE PTR [eax+9]
  000b1	84 d2		 test	 dl, dl
  000b3	0f 84 be 00 00
	00		 je	 $LN87@LoadFloat_@4
  000b9	80 f2 ec	 xor	 dl, -20			; ffffffecH
  000bc	88 55 f1	 mov	 BYTE PTR __k$[ebp+9], dl
  000bf	8a 50 0a	 mov	 dl, BYTE PTR [eax+10]
  000c2	84 d2		 test	 dl, dl
  000c4	0f 84 a8 00 00
	00		 je	 $LN86@LoadFloat_@4
  000ca	32 d1		 xor	 dl, cl
  000cc	88 55 f2	 mov	 BYTE PTR __k$[ebp+10], dl
  000cf	8a 50 0b	 mov	 dl, BYTE PTR [eax+11]
  000d2	84 d2		 test	 dl, dl
  000d4	0f 84 92 00 00
	00		 je	 $LN85@LoadFloat_@4
  000da	80 f2 ea	 xor	 dl, -22			; ffffffeaH
  000dd	88 55 f3	 mov	 BYTE PTR __k$[ebp+11], dl
  000e0	8a 50 0c	 mov	 dl, BYTE PTR [eax+12]
  000e3	84 d2		 test	 dl, dl
  000e5	74 7f		 je	 SHORT $LN84@LoadFloat_@4
  000e7	80 f2 ed	 xor	 dl, -19			; ffffffedH
  000ea	88 55 f4	 mov	 BYTE PTR __k$[ebp+12], dl
  000ed	8a 50 0d	 mov	 dl, BYTE PTR [eax+13]
  000f0	84 d2		 test	 dl, dl
  000f2	74 6c		 je	 SHORT $LN83@LoadFloat_@4
  000f4	80 f2 ec	 xor	 dl, -20			; ffffffecH
  000f7	88 55 f5	 mov	 BYTE PTR __k$[ebp+13], dl
  000fa	8a 50 0e	 mov	 dl, BYTE PTR [eax+14]
  000fd	84 d2		 test	 dl, dl
  000ff	74 5a		 je	 SHORT $LN82@LoadFloat_@4
  00101	32 d1		 xor	 dl, cl
  00103	80 78 0f 00	 cmp	 BYTE PTR [eax+15], 0
  00107	88 55 f6	 mov	 BYTE PTR __k$[ebp+14], dl
  0010a	0f 84 a0 00 00
	00		 je	 $LN1@LoadFloat_@4
  00110	8a 50 10	 mov	 dl, BYTE PTR [eax+16]
  00113	84 d2		 test	 dl, dl
  00115	74 3e		 je	 SHORT $LN80@LoadFloat_@4
  00117	80 f2 ed	 xor	 dl, -19			; ffffffedH
  0011a	88 55 f8	 mov	 BYTE PTR __k$[ebp+16], dl
  0011d	8a 50 11	 mov	 dl, BYTE PTR [eax+17]
  00120	84 d2		 test	 dl, dl
  00122	74 2b		 je	 SHORT $LN79@LoadFloat_@4
  00124	80 f2 ec	 xor	 dl, -20			; ffffffecH
  00127	88 55 f9	 mov	 BYTE PTR __k$[ebp+17], dl
  0012a	8a 50 12	 mov	 dl, BYTE PTR [eax+18]
  0012d	84 d2		 test	 dl, dl
  0012f	74 19		 je	 SHORT $LN78@LoadFloat_@4
  00131	8a 40 13	 mov	 al, BYTE PTR [eax+19]
  00134	32 d1		 xor	 dl, cl
  00136	88 55 fa	 mov	 BYTE PTR __k$[ebp+18], dl
  00139	84 c0		 test	 al, al
  0013b	74 07		 je	 SHORT $LN77@LoadFloat_@4
  0013d	34 ea		 xor	 al, -22			; ffffffeaH
  0013f	88 45 fb	 mov	 BYTE PTR __k$[ebp+19], al
  00142	eb 6c		 jmp	 SHORT $LN1@LoadFloat_@4
$LN77@LoadFloat_@4:
  00144	c6 45 fb ea	 mov	 BYTE PTR __k$[ebp+19], -22 ; ffffffeaH
  00148	eb 66		 jmp	 SHORT $LN1@LoadFloat_@4
$LN78@LoadFloat_@4:
  0014a	88 4d fa	 mov	 BYTE PTR __k$[ebp+18], cl
  0014d	eb 61		 jmp	 SHORT $LN1@LoadFloat_@4
$LN79@LoadFloat_@4:
  0014f	c6 45 f9 ec	 mov	 BYTE PTR __k$[ebp+17], -20 ; ffffffecH
  00153	eb 5b		 jmp	 SHORT $LN1@LoadFloat_@4
$LN80@LoadFloat_@4:
  00155	c6 45 f8 ed	 mov	 BYTE PTR __k$[ebp+16], -19 ; ffffffedH
  00159	eb 55		 jmp	 SHORT $LN1@LoadFloat_@4
$LN82@LoadFloat_@4:
  0015b	88 4d f6	 mov	 BYTE PTR __k$[ebp+14], cl
  0015e	eb 50		 jmp	 SHORT $LN1@LoadFloat_@4
$LN83@LoadFloat_@4:
  00160	c6 45 f5 ec	 mov	 BYTE PTR __k$[ebp+13], -20 ; ffffffecH
  00164	eb 4a		 jmp	 SHORT $LN1@LoadFloat_@4
$LN84@LoadFloat_@4:
  00166	c6 45 f4 ed	 mov	 BYTE PTR __k$[ebp+12], -19 ; ffffffedH
  0016a	eb 44		 jmp	 SHORT $LN1@LoadFloat_@4
$LN85@LoadFloat_@4:
  0016c	c6 45 f3 ea	 mov	 BYTE PTR __k$[ebp+11], -22 ; ffffffeaH
  00170	eb 3e		 jmp	 SHORT $LN1@LoadFloat_@4
$LN86@LoadFloat_@4:
  00172	88 4d f2	 mov	 BYTE PTR __k$[ebp+10], cl
  00175	eb 39		 jmp	 SHORT $LN1@LoadFloat_@4
$LN87@LoadFloat_@4:
  00177	c6 45 f1 ec	 mov	 BYTE PTR __k$[ebp+9], -20 ; ffffffecH
  0017b	eb 33		 jmp	 SHORT $LN1@LoadFloat_@4
$LN88@LoadFloat_@4:
  0017d	c6 45 f0 ed	 mov	 BYTE PTR __k$[ebp+8], -19 ; ffffffedH
  00181	eb 2d		 jmp	 SHORT $LN1@LoadFloat_@4
$LN89@LoadFloat_@4:
  00183	c6 45 ef ea	 mov	 BYTE PTR __k$[ebp+7], -22 ; ffffffeaH
  00187	eb 27		 jmp	 SHORT $LN1@LoadFloat_@4
$LN90@LoadFloat_@4:
  00189	88 4d ee	 mov	 BYTE PTR __k$[ebp+6], cl
  0018c	eb 22		 jmp	 SHORT $LN1@LoadFloat_@4
$LN91@LoadFloat_@4:
  0018e	c6 45 ed ec	 mov	 BYTE PTR __k$[ebp+5], -20 ; ffffffecH
  00192	eb 1c		 jmp	 SHORT $LN1@LoadFloat_@4
$LN92@LoadFloat_@4:
  00194	c6 45 ec ed	 mov	 BYTE PTR __k$[ebp+4], -19 ; ffffffedH
  00198	eb 16		 jmp	 SHORT $LN1@LoadFloat_@4
$LN93@LoadFloat_@4:
  0019a	c6 45 eb ea	 mov	 BYTE PTR __k$[ebp+3], -22 ; ffffffeaH
  0019e	eb 10		 jmp	 SHORT $LN1@LoadFloat_@4
$LN94@LoadFloat_@4:
  001a0	c6 45 ea eb	 mov	 BYTE PTR __k$[ebp+2], -21 ; ffffffebH
  001a4	eb 0a		 jmp	 SHORT $LN1@LoadFloat_@4
$LN95@LoadFloat_@4:
  001a6	c6 45 e9 ec	 mov	 BYTE PTR __k$[ebp+1], -20 ; ffffffecH
  001aa	eb 04		 jmp	 SHORT $LN1@LoadFloat_@4
$LN96@LoadFloat_@4:
  001ac	c6 45 e8 ed	 mov	 BYTE PTR __k$[ebp], -19	; ffffffedH
$LN1@LoadFloat_@4:
  001b0	6a 03		 push	 3
  001b2	8d 45 e8	 lea	 eax, DWORD PTR __k$[ebp]
  001b5	c6 45 f7 00	 mov	 BYTE PTR __k$[ebp+15], 0
  001b9	5a		 pop	 edx
$LL104@LoadFloat_@4:
  001ba	81 30 ed ec eb
	ea		 xor	 DWORD PTR [eax], -353637139 ; eaebecedH
  001c0	83 c0 04	 add	 eax, 4
  001c3	4a		 dec	 edx
  001c4	75 f4		 jne	 SHORT $LL104@LoadFloat_@4
  001c6	6a 0c		 push	 12			; 0000000cH
  001c8	58		 pop	 eax
$LL101@LoadFloat_@4:
  001c9	8b c8		 mov	 ecx, eax
  001cb	81 e1 03 00 00
	80		 and	 ecx, -2147483645	; 80000003H
  001d1	79 05		 jns	 SHORT $LN111@LoadFloat_@4
  001d3	49		 dec	 ecx
  001d4	83 c9 fc	 or	 ecx, -4			; fffffffcH
  001d7	41		 inc	 ecx
$LN111@LoadFloat_@4:
  001d8	b2 ed		 mov	 dl, -19			; ffffffedH
  001da	2a d1		 sub	 dl, cl
  001dc	30 54 05 e8	 xor	 BYTE PTR __k$[ebp+eax], dl
  001e0	40		 inc	 eax
  001e1	83 f8 0f	 cmp	 eax, 15			; 0000000fH
  001e4	7c e3		 jl	 SHORT $LL101@LoadFloat_@4

; 137  : 		return LoadFloat(_k, f);

  001e6	f3 0f 10 45 0c	 movss	 xmm0, DWORD PTR _f$[ebp]
  001eb	51		 push	 ecx
  001ec	8d 45 e8	 lea	 eax, DWORD PTR __k$[ebp]
  001ef	f3 0f 11 04 24	 movss	 DWORD PTR [esp], xmm0
  001f4	50		 push	 eax
  001f5	8b ce		 mov	 ecx, esi
  001f7	ff 15 00 00 00
	00		 call	 DWORD PTR __imp_?LoadFloat@ioINILoader@@QAEMPBDM@Z

; 138  : 	}

  001fd	8b 4d fc	 mov	 ecx, DWORD PTR __$ArrayPad$[ebp]
  00200	33 cd		 xor	 ecx, ebp
  00202	5e		 pop	 esi
  00203	e8 00 00 00 00	 call	 @__security_check_cookie@4
  00208	c9		 leave
  00209	c2 08 00	 ret	 8
??$LoadFloat_e@$0BA@@ioINILoader@@QAEMAAY0BA@$$CBDM@Z ENDP ; ioINILoader::LoadFloat_e<16>
_TEXT	ENDS
PUBLIC	??$_Cons_val@V?$allocator@UTargetInfo@ioRotateTargetWeapon@@@std@@UTargetInfo@ioRotateTargetWeapon@@AAU34@@std@@YAXAAV?$allocator@UTargetInfo@ioRotateTargetWeapon@@@0@PAUTargetInfo@ioRotateTargetWeapon@@AAU23@@Z ; std::_Cons_val<std::allocator<ioRotateTargetWeapon::TargetInfo>,ioRotateTargetWeapon::TargetInfo,ioRotateTargetWeapon::TargetInfo &>
; Function compile flags: /Ogsp
; File c:\program files (x86)\microsoft visual studio 10.0\vc\include\xmemory
;	COMDAT ??$_Cons_val@V?$allocator@UTargetInfo@ioRotateTargetWeapon@@@std@@UTargetInfo@ioRotateTargetWeapon@@AAU34@@std@@YAXAAV?$allocator@UTargetInfo@ioRotateTargetWeapon@@@0@PAUTargetInfo@ioRotateTargetWeapon@@AAU23@@Z
_TEXT	SEGMENT
__Alval$ = 8						; size = 4
__Pdest$ = 12						; size = 4
__Src$ = 16						; size = 4
??$_Cons_val@V?$allocator@UTargetInfo@ioRotateTargetWeapon@@@std@@UTargetInfo@ioRotateTargetWeapon@@AAU34@@std@@YAXAAV?$allocator@UTargetInfo@ioRotateTargetWeapon@@@0@PAUTargetInfo@ioRotateTargetWeapon@@AAU23@@Z PROC ; std::_Cons_val<std::allocator<ioRotateTargetWeapon::TargetInfo>,ioRotateTargetWeapon::TargetInfo,ioRotateTargetWeapon::TargetInfo &>, COMDAT

; 279  : 	{	// construct using allocator

  00000	55		 push	 ebp
  00001	8b ec		 mov	 ebp, esp

; 280  : 	_Alval.construct(_Pdest, _STD forward<_Ty2>(_Src));

  00003	ff 75 10	 push	 DWORD PTR __Src$[ebp]
  00006	8b 4d 08	 mov	 ecx, DWORD PTR __Alval$[ebp]
  00009	ff 75 0c	 push	 DWORD PTR __Pdest$[ebp]
  0000c	e8 00 00 00 00	 call	 ??$construct@AAUTargetInfo@ioRotateTargetWeapon@@@?$allocator@UTargetInfo@ioRotateTargetWeapon@@@std@@QAEXPAUTargetInfo@ioRotateTargetWeapon@@AAU23@@Z ; std::allocator<ioRotateTargetWeapon::TargetInfo>::construct<ioRotateTargetWeapon::TargetInfo &>

; 281  : 	}

  00011	5d		 pop	 ebp
  00012	c3		 ret	 0
??$_Cons_val@V?$allocator@UTargetInfo@ioRotateTargetWeapon@@@std@@UTargetInfo@ioRotateTargetWeapon@@AAU34@@std@@YAXAAV?$allocator@UTargetInfo@ioRotateTargetWeapon@@@0@PAUTargetInfo@ioRotateTargetWeapon@@AAU23@@Z ENDP ; std::_Cons_val<std::allocator<ioRotateTargetWeapon::TargetInfo>,ioRotateTargetWeapon::TargetInfo,ioRotateTargetWeapon::TargetInfo &>
_TEXT	ENDS
PUBLIC	?construct@?$allocator@UTargetInfo@ioRotateTargetWeapon@@@std@@QAEXPAUTargetInfo@ioRotateTargetWeapon@@ABU34@@Z ; std::allocator<ioRotateTargetWeapon::TargetInfo>::construct
; Function compile flags: /Ogsp
;	COMDAT ?construct@?$allocator@UTargetInfo@ioRotateTargetWeapon@@@std@@QAEXPAUTargetInfo@ioRotateTargetWeapon@@ABU34@@Z
_TEXT	SEGMENT
__Ptr$ = 8						; size = 4
__Val$ = 12						; size = 4
?construct@?$allocator@UTargetInfo@ioRotateTargetWeapon@@@std@@QAEXPAUTargetInfo@ioRotateTargetWeapon@@ABU34@@Z PROC ; std::allocator<ioRotateTargetWeapon::TargetInfo>::construct, COMDAT
; _this$ = ecx

; 196  : 		{	// construct object at _Ptr with value _Val

  00000	55		 push	 ebp
  00001	8b ec		 mov	 ebp, esp

; 197  : 		_Construct(_Ptr, _Val);

  00003	ff 75 0c	 push	 DWORD PTR __Val$[ebp]
  00006	ff 75 08	 push	 DWORD PTR __Ptr$[ebp]
  00009	e8 00 00 00 00	 call	 ??$_Construct@UTargetInfo@ioRotateTargetWeapon@@ABU12@@std@@YAXPAUTargetInfo@ioRotateTargetWeapon@@ABU12@@Z ; std::_Construct<ioRotateTargetWeapon::TargetInfo,ioRotateTargetWeapon::TargetInfo const &>
  0000e	59		 pop	 ecx
  0000f	59		 pop	 ecx

; 198  : 		}

  00010	5d		 pop	 ebp
  00011	c2 08 00	 ret	 8
?construct@?$allocator@UTargetInfo@ioRotateTargetWeapon@@@std@@QAEXPAUTargetInfo@ioRotateTargetWeapon@@ABU34@@Z ENDP ; std::allocator<ioRotateTargetWeapon::TargetInfo>::construct
_TEXT	ENDS
PUBLIC	??$construct@AAVioHashString@@@?$allocator@VioHashString@@@std@@QAEXPAVioHashString@@AAV2@@Z ; std::allocator<ioHashString>::construct<ioHashString &>
;	COMDAT xdata$x
; File c:\program files (x86)\microsoft visual studio 10.0\vc\include\utility
xdata$x	SEGMENT
__unwindtable$??$construct@AAVioHashString@@@?$allocator@VioHashString@@@std@@QAEXPAVioHashString@@AAV2@@Z DD 0ffffffffH
	DD	FLAT:__unwindfunclet$??$construct@AAVioHashString@@@?$allocator@VioHashString@@@std@@QAEXPAVioHashString@@AAV2@@Z$0
__ehfuncinfo$??$construct@AAVioHashString@@@?$allocator@VioHashString@@@std@@QAEXPAVioHashString@@AAV2@@Z DD 019930522H
	DD	01H
	DD	FLAT:__unwindtable$??$construct@AAVioHashString@@@?$allocator@VioHashString@@@std@@QAEXPAVioHashString@@AAV2@@Z
	DD	2 DUP(00H)
	DD	2 DUP(00H)
	DD	00H
	DD	01H
; Function compile flags: /Ogsp
; File c:\program files (x86)\microsoft visual studio 10.0\vc\include\xmemory
xdata$x	ENDS
;	COMDAT ??$construct@AAVioHashString@@@?$allocator@VioHashString@@@std@@QAEXPAVioHashString@@AAV2@@Z
_TEXT	SEGMENT
$T534515 = -16						; size = 4
__$EHRec$ = -12						; size = 12
__Ptr$ = 8						; size = 4
__Val$ = 12						; size = 4
??$construct@AAVioHashString@@@?$allocator@VioHashString@@@std@@QAEXPAVioHashString@@AAV2@@Z PROC ; std::allocator<ioHashString>::construct<ioHashString &>, COMDAT
; _this$ = ecx

; 206  : 		void construct(pointer _Ptr, _Other&& _Val)

  00000	6a 04		 push	 4
  00002	b8 00 00 00 00	 mov	 eax, __ehhandler$??$construct@AAVioHashString@@@?$allocator@VioHashString@@@std@@QAEXPAVioHashString@@AAV2@@Z
  00007	e8 00 00 00 00	 call	 __EH_prolog3

; 207  : 		{	// construct object at _Ptr with value _Val
; 208  : 		::new ((void _FARQ *)_Ptr) _Ty(_STD forward<_Other>(_Val));

  0000c	8b 4d 08	 mov	 ecx, DWORD PTR __Ptr$[ebp]
  0000f	89 4d f0	 mov	 DWORD PTR $T534515[ebp], ecx
  00012	83 65 fc 00	 and	 DWORD PTR __$EHRec$[ebp+8], 0
  00016	85 c9		 test	 ecx, ecx
  00018	74 09		 je	 SHORT $LN3@construct@2
  0001a	ff 75 0c	 push	 DWORD PTR __Val$[ebp]
  0001d	ff 15 00 00 00
	00		 call	 DWORD PTR __imp_??0ioHashString@@QAE@ABV0@@Z
$LN3@construct@2:

; 209  : 		}

  00023	e8 00 00 00 00	 call	 __EH_epilog3
  00028	c2 08 00	 ret	 8
_TEXT	ENDS
;	COMDAT text$x
text$x	SEGMENT
__unwindfunclet$??$construct@AAVioHashString@@@?$allocator@VioHashString@@@std@@QAEXPAVioHashString@@AAV2@@Z$0:
  00000	ff 75 08	 push	 DWORD PTR __Ptr$[ebp]
  00003	ff 75 f0	 push	 DWORD PTR $T534515[ebp]
  00006	e8 00 00 00 00	 call	 ??3@YAXPAX0@Z		; operator delete
  0000b	59		 pop	 ecx
  0000c	59		 pop	 ecx
  0000d	c3		 ret	 0
__ehhandler$??$construct@AAVioHashString@@@?$allocator@VioHashString@@@std@@QAEXPAVioHashString@@AAV2@@Z:
  0000e	8b 54 24 08	 mov	 edx, DWORD PTR [esp+8]
  00012	8d 42 0c	 lea	 eax, DWORD PTR [edx+12]
  00015	8b 4a ec	 mov	 ecx, DWORD PTR [edx-20]
  00018	33 c8		 xor	 ecx, eax
  0001a	e8 00 00 00 00	 call	 @__security_check_cookie@4
  0001f	b8 00 00 00 00	 mov	 eax, OFFSET __ehfuncinfo$??$construct@AAVioHashString@@@?$allocator@VioHashString@@@std@@QAEXPAVioHashString@@AAV2@@Z
  00024	e9 00 00 00 00	 jmp	 ___CxxFrameHandler3
text$x	ENDS
??$construct@AAVioHashString@@@?$allocator@VioHashString@@@std@@QAEXPAVioHashString@@AAV2@@Z ENDP ; std::allocator<ioHashString>::construct<ioHashString &>
PUBLIC	??$_Move@PAUTargetInfo@ioRotateTargetWeapon@@PAU12@@std@@YAPAUTargetInfo@ioRotateTargetWeapon@@PAU12@00U_Nonscalar_ptr_iterator_tag@0@@Z ; std::_Move<ioRotateTargetWeapon::TargetInfo *,ioRotateTargetWeapon::TargetInfo *>
; Function compile flags: /Ogsp
; File c:\program files (x86)\microsoft visual studio 10.0\vc\include\xutility
;	COMDAT ??$_Move@PAUTargetInfo@ioRotateTargetWeapon@@PAU12@@std@@YAPAUTargetInfo@ioRotateTargetWeapon@@PAU12@00U_Nonscalar_ptr_iterator_tag@0@@Z
_TEXT	SEGMENT
__First$ = 8						; size = 4
__Last$ = 12						; size = 4
__Dest$ = 16						; size = 4
___formal$ = 20						; size = 1
??$_Move@PAUTargetInfo@ioRotateTargetWeapon@@PAU12@@std@@YAPAUTargetInfo@ioRotateTargetWeapon@@PAU12@00U_Nonscalar_ptr_iterator_tag@0@@Z PROC ; std::_Move<ioRotateTargetWeapon::TargetInfo *,ioRotateTargetWeapon::TargetInfo *>, COMDAT

; 2512 : 	{	// move [_First, _Last) to [_Dest, ...), arbitrary iterators

  00000	55		 push	 ebp
  00001	8b ec		 mov	 ebp, esp
  00003	53		 push	 ebx

; 2513 : 	for (; _First != _Last; ++_Dest, ++_First)

  00004	8b 5d 08	 mov	 ebx, DWORD PTR __First$[ebp]
  00007	3b 5d 0c	 cmp	 ebx, DWORD PTR __Last$[ebp]
  0000a	74 25		 je	 SHORT $LN12@Move
  0000c	56		 push	 esi
  0000d	57		 push	 edi
$LL3@Move:

; 2514 : 		*_Dest = _STD move(*_First);

  0000e	8b 7d 10	 mov	 edi, DWORD PTR __Dest$[ebp]
  00011	53		 push	 ebx
  00012	8b cf		 mov	 ecx, edi
  00014	ff 15 00 00 00
	00		 call	 DWORD PTR __imp_??4ioHashString@@QAEAAV0@ABV0@@Z
  0001a	83 45 10 1c	 add	 DWORD PTR __Dest$[ebp], 28 ; 0000001cH
  0001e	83 c7 10	 add	 edi, 16			; 00000010H
  00021	8d 73 10	 lea	 esi, DWORD PTR [ebx+16]
  00024	a5		 movsd
  00025	a5		 movsd
  00026	83 c3 1c	 add	 ebx, 28			; 0000001cH
  00029	a5		 movsd
  0002a	3b 5d 0c	 cmp	 ebx, DWORD PTR __Last$[ebp]
  0002d	75 df		 jne	 SHORT $LL3@Move
  0002f	5f		 pop	 edi
  00030	5e		 pop	 esi
$LN12@Move:

; 2515 : 	return (_Dest);

  00031	8b 45 10	 mov	 eax, DWORD PTR __Dest$[ebp]
  00034	5b		 pop	 ebx

; 2516 : 	}

  00035	5d		 pop	 ebp
  00036	c3		 ret	 0
??$_Move@PAUTargetInfo@ioRotateTargetWeapon@@PAU12@@std@@YAPAUTargetInfo@ioRotateTargetWeapon@@PAU12@00U_Nonscalar_ptr_iterator_tag@0@@Z ENDP ; std::_Move<ioRotateTargetWeapon::TargetInfo *,ioRotateTargetWeapon::TargetInfo *>
_TEXT	ENDS
PUBLIC	??$_Destroy@UTargetInfo@ioRotateTargetWeapon@@@std@@YAXPAUTargetInfo@ioRotateTargetWeapon@@@Z ; std::_Destroy<ioRotateTargetWeapon::TargetInfo>
; Function compile flags: /Ogsp
; File c:\program files (x86)\microsoft visual studio 10.0\vc\include\xmemory
;	COMDAT ??$_Destroy@UTargetInfo@ioRotateTargetWeapon@@@std@@YAXPAUTargetInfo@ioRotateTargetWeapon@@@Z
_TEXT	SEGMENT
__Ptr$ = 8						; size = 4
??$_Destroy@UTargetInfo@ioRotateTargetWeapon@@@std@@YAXPAUTargetInfo@ioRotateTargetWeapon@@@Z PROC ; std::_Destroy<ioRotateTargetWeapon::TargetInfo>, COMDAT

; 62   : 	{	// destroy object at _Ptr

  00000	55		 push	 ebp
  00001	8b ec		 mov	 ebp, esp

; 63   : 	_Ptr->~_Ty();

  00003	8b 4d 08	 mov	 ecx, DWORD PTR __Ptr$[ebp]

; 64   : 	}

  00006	5d		 pop	 ebp

; 63   : 	_Ptr->~_Ty();

  00007	ff 25 00 00 00
	00		 jmp	 DWORD PTR __imp_??1ioHashString@@QAE@XZ
??$_Destroy@UTargetInfo@ioRotateTargetWeapon@@@std@@YAXPAUTargetInfo@ioRotateTargetWeapon@@@Z ENDP ; std::_Destroy<ioRotateTargetWeapon::TargetInfo>
_TEXT	ENDS
PUBLIC	?construct@?$allocator@VioHashString@@@std@@QAEXPAVioHashString@@$$QAV3@@Z ; std::allocator<ioHashString>::construct
;	COMDAT xdata$x
; File c:\program files (x86)\microsoft visual studio 10.0\vc\include\utility
xdata$x	SEGMENT
__unwindtable$?construct@?$allocator@VioHashString@@@std@@QAEXPAVioHashString@@$$QAV3@@Z DD 0ffffffffH
	DD	FLAT:__unwindfunclet$?construct@?$allocator@VioHashString@@@std@@QAEXPAVioHashString@@$$QAV3@@Z$0
__ehfuncinfo$?construct@?$allocator@VioHashString@@@std@@QAEXPAVioHashString@@$$QAV3@@Z DD 019930522H
	DD	01H
	DD	FLAT:__unwindtable$?construct@?$allocator@VioHashString@@@std@@QAEXPAVioHashString@@$$QAV3@@Z
	DD	2 DUP(00H)
	DD	2 DUP(00H)
	DD	00H
	DD	01H
; Function compile flags: /Ogsp
; File c:\program files (x86)\microsoft visual studio 10.0\vc\include\xmemory
xdata$x	ENDS
;	COMDAT ?construct@?$allocator@VioHashString@@@std@@QAEXPAVioHashString@@$$QAV3@@Z
_TEXT	SEGMENT
$T534558 = -16						; size = 4
__$EHRec$ = -12						; size = 12
__Ptr$ = 8						; size = 4
__Val$ = 12						; size = 4
?construct@?$allocator@VioHashString@@@std@@QAEXPAVioHashString@@$$QAV3@@Z PROC ; std::allocator<ioHashString>::construct, COMDAT
; _this$ = ecx

; 201  : 		{	// construct object at _Ptr with value _Val

  00000	6a 04		 push	 4
  00002	b8 00 00 00 00	 mov	 eax, __ehhandler$?construct@?$allocator@VioHashString@@@std@@QAEXPAVioHashString@@$$QAV3@@Z
  00007	e8 00 00 00 00	 call	 __EH_prolog3

; 202  : 		::new ((void _FARQ *)_Ptr) _Ty(_STD forward<_Ty>(_Val));

  0000c	8b 4d 08	 mov	 ecx, DWORD PTR __Ptr$[ebp]
  0000f	89 4d f0	 mov	 DWORD PTR $T534558[ebp], ecx
  00012	83 65 fc 00	 and	 DWORD PTR __$EHRec$[ebp+8], 0
  00016	85 c9		 test	 ecx, ecx
  00018	74 09		 je	 SHORT $LN3@construct@3
  0001a	ff 75 0c	 push	 DWORD PTR __Val$[ebp]
  0001d	ff 15 00 00 00
	00		 call	 DWORD PTR __imp_??0ioHashString@@QAE@ABV0@@Z
$LN3@construct@3:

; 203  : 		}

  00023	e8 00 00 00 00	 call	 __EH_epilog3
  00028	c2 08 00	 ret	 8
_TEXT	ENDS
;	COMDAT text$x
text$x	SEGMENT
__unwindfunclet$?construct@?$allocator@VioHashString@@@std@@QAEXPAVioHashString@@$$QAV3@@Z$0:
  00000	ff 75 08	 push	 DWORD PTR __Ptr$[ebp]
  00003	ff 75 f0	 push	 DWORD PTR $T534558[ebp]
  00006	e8 00 00 00 00	 call	 ??3@YAXPAX0@Z		; operator delete
  0000b	59		 pop	 ecx
  0000c	59		 pop	 ecx
  0000d	c3		 ret	 0
__ehhandler$?construct@?$allocator@VioHashString@@@std@@QAEXPAVioHashString@@$$QAV3@@Z:
  0000e	8b 54 24 08	 mov	 edx, DWORD PTR [esp+8]
  00012	8d 42 0c	 lea	 eax, DWORD PTR [edx+12]
  00015	8b 4a ec	 mov	 ecx, DWORD PTR [edx-20]
  00018	33 c8		 xor	 ecx, eax
  0001a	e8 00 00 00 00	 call	 @__security_check_cookie@4
  0001f	b8 00 00 00 00	 mov	 eax, OFFSET __ehfuncinfo$?construct@?$allocator@VioHashString@@@std@@QAEXPAVioHashString@@$$QAV3@@Z
  00024	e9 00 00 00 00	 jmp	 ___CxxFrameHandler3
text$x	ENDS
?construct@?$allocator@VioHashString@@@std@@QAEXPAVioHashString@@$$QAV3@@Z ENDP ; std::allocator<ioHashString>::construct
PUBLIC	?construct@?$allocator@UTargetInfo@ioRotateTargetWeapon@@@std@@QAEXPAUTargetInfo@ioRotateTargetWeapon@@$$QAU34@@Z ; std::allocator<ioRotateTargetWeapon::TargetInfo>::construct
;	COMDAT xdata$x
; File d:\lost saga for developer\youtube\tutorial\source\src\lsclient\iorotatetargetweapon.cpp
xdata$x	SEGMENT
__unwindtable$?construct@?$allocator@UTargetInfo@ioRotateTargetWeapon@@@std@@QAEXPAUTargetInfo@ioRotateTargetWeapon@@$$QAU34@@Z DD 0ffffffffH
	DD	FLAT:__unwindfunclet$?construct@?$allocator@UTargetInfo@ioRotateTargetWeapon@@@std@@QAEXPAUTargetInfo@ioRotateTargetWeapon@@$$QAU34@@Z$0
__ehfuncinfo$?construct@?$allocator@UTargetInfo@ioRotateTargetWeapon@@@std@@QAEXPAUTargetInfo@ioRotateTargetWeapon@@$$QAU34@@Z DD 019930522H
	DD	01H
	DD	FLAT:__unwindtable$?construct@?$allocator@UTargetInfo@ioRotateTargetWeapon@@@std@@QAEXPAUTargetInfo@ioRotateTargetWeapon@@$$QAU34@@Z
	DD	2 DUP(00H)
	DD	2 DUP(00H)
	DD	00H
	DD	01H
; Function compile flags: /Ogsp
; File c:\program files (x86)\microsoft visual studio 10.0\vc\include\xmemory
xdata$x	ENDS
;	COMDAT ?construct@?$allocator@UTargetInfo@ioRotateTargetWeapon@@@std@@QAEXPAUTargetInfo@ioRotateTargetWeapon@@$$QAU34@@Z
_TEXT	SEGMENT
$T534577 = -16						; size = 4
__$EHRec$ = -12						; size = 12
__Ptr$ = 8						; size = 4
__Val$ = 12						; size = 4
?construct@?$allocator@UTargetInfo@ioRotateTargetWeapon@@@std@@QAEXPAUTargetInfo@ioRotateTargetWeapon@@$$QAU34@@Z PROC ; std::allocator<ioRotateTargetWeapon::TargetInfo>::construct, COMDAT
; _this$ = ecx

; 201  : 		{	// construct object at _Ptr with value _Val

  00000	6a 04		 push	 4
  00002	b8 00 00 00 00	 mov	 eax, __ehhandler$?construct@?$allocator@UTargetInfo@ioRotateTargetWeapon@@@std@@QAEXPAUTargetInfo@ioRotateTargetWeapon@@$$QAU34@@Z
  00007	e8 00 00 00 00	 call	 __EH_prolog3

; 202  : 		::new ((void _FARQ *)_Ptr) _Ty(_STD forward<_Ty>(_Val));

  0000c	8b 7d 08	 mov	 edi, DWORD PTR __Ptr$[ebp]
  0000f	89 7d f0	 mov	 DWORD PTR $T534577[ebp], edi
  00012	83 65 fc 00	 and	 DWORD PTR __$EHRec$[ebp+8], 0
  00016	85 ff		 test	 edi, edi
  00018	74 15		 je	 SHORT $LN3@construct@4
  0001a	8b 75 0c	 mov	 esi, DWORD PTR __Val$[ebp]
  0001d	56		 push	 esi
  0001e	8b cf		 mov	 ecx, edi
  00020	ff 15 00 00 00
	00		 call	 DWORD PTR __imp_??0ioHashString@@QAE@ABV0@@Z
  00026	83 c6 10	 add	 esi, 16			; 00000010H
  00029	83 c7 10	 add	 edi, 16			; 00000010H
  0002c	a5		 movsd
  0002d	a5		 movsd
  0002e	a5		 movsd
$LN3@construct@4:

; 203  : 		}

  0002f	e8 00 00 00 00	 call	 __EH_epilog3
  00034	c2 08 00	 ret	 8
_TEXT	ENDS
;	COMDAT text$x
text$x	SEGMENT
__unwindfunclet$?construct@?$allocator@UTargetInfo@ioRotateTargetWeapon@@@std@@QAEXPAUTargetInfo@ioRotateTargetWeapon@@$$QAU34@@Z$0:
  00000	ff 75 08	 push	 DWORD PTR __Ptr$[ebp]
  00003	ff 75 f0	 push	 DWORD PTR $T534577[ebp]
  00006	e8 00 00 00 00	 call	 ??3@YAXPAX0@Z		; operator delete
  0000b	59		 pop	 ecx
  0000c	59		 pop	 ecx
  0000d	c3		 ret	 0
__ehhandler$?construct@?$allocator@UTargetInfo@ioRotateTargetWeapon@@@std@@QAEXPAUTargetInfo@ioRotateTargetWeapon@@$$QAU34@@Z:
  0000e	8b 54 24 08	 mov	 edx, DWORD PTR [esp+8]
  00012	8d 42 0c	 lea	 eax, DWORD PTR [edx+12]
  00015	8b 4a ec	 mov	 ecx, DWORD PTR [edx-20]
  00018	33 c8		 xor	 ecx, eax
  0001a	e8 00 00 00 00	 call	 @__security_check_cookie@4
  0001f	b8 00 00 00 00	 mov	 eax, OFFSET __ehfuncinfo$?construct@?$allocator@UTargetInfo@ioRotateTargetWeapon@@@std@@QAEXPAUTargetInfo@ioRotateTargetWeapon@@$$QAU34@@Z
  00024	e9 00 00 00 00	 jmp	 ___CxxFrameHandler3
text$x	ENDS
?construct@?$allocator@UTargetInfo@ioRotateTargetWeapon@@@std@@QAEXPAUTargetInfo@ioRotateTargetWeapon@@$$QAU34@@Z ENDP ; std::allocator<ioRotateTargetWeapon::TargetInfo>::construct
PUBLIC	??0?$CEncrypt@M@@QAE@XZ				; CEncrypt<float>::CEncrypt<float>
EXTRN	??0ccddaabb@@QAE@XZ:PROC			; ccddaabb::ccddaabb
;	COMDAT xdata$x
; File d:\lost saga for developer\youtube\tutorial\source\src\lsclient\encryptvalue.h
xdata$x	SEGMENT
__unwindtable$??0?$CEncrypt@M@@QAE@XZ DD 0ffffffffH
	DD	FLAT:__unwindfunclet$??0?$CEncrypt@M@@QAE@XZ$0
__ehfuncinfo$??0?$CEncrypt@M@@QAE@XZ DD 019930522H
	DD	01H
	DD	FLAT:__unwindtable$??0?$CEncrypt@M@@QAE@XZ
	DD	2 DUP(00H)
	DD	2 DUP(00H)
	DD	00H
	DD	01H
; Function compile flags: /Ogsp
xdata$x	ENDS
;	COMDAT ??0?$CEncrypt@M@@QAE@XZ
_TEXT	SEGMENT
_this$ = -16						; size = 4
__$EHRec$ = -12						; size = 12
??0?$CEncrypt@M@@QAE@XZ PROC				; CEncrypt<float>::CEncrypt<float>, COMDAT
; _this$ = ecx

; 109  : 	CEncrypt()

  00000	6a 04		 push	 4
  00002	b8 00 00 00 00	 mov	 eax, __ehhandler$??0?$CEncrypt@M@@QAE@XZ
  00007	e8 00 00 00 00	 call	 __EH_prolog3
  0000c	8b f1		 mov	 esi, ecx
  0000e	89 75 f0	 mov	 DWORD PTR _this$[ebp], esi
  00011	8d 4e 0c	 lea	 ecx, DWORD PTR [esi+12]
  00014	c7 06 00 00 00
	00		 mov	 DWORD PTR [esi], OFFSET ??_7?$CEncrypt@M@@6B@
  0001a	e8 00 00 00 00	 call	 ??0ccddaabb@@QAE@XZ	; ccddaabb::ccddaabb
  0001f	83 65 fc 00	 and	 DWORD PTR __$EHRec$[ebp+8], 0

; 110  : 	{
; 111  : 		Init();

  00023	8b ce		 mov	 ecx, esi
  00025	e8 00 00 00 00	 call	 ?Init@?$CEncrypt@M@@AAEXXZ ; CEncrypt<float>::Init

; 112  : 	}

  0002a	8b c6		 mov	 eax, esi
  0002c	e8 00 00 00 00	 call	 __EH_epilog3
  00031	c3		 ret	 0
_TEXT	ENDS
;	COMDAT text$x
text$x	SEGMENT
__unwindfunclet$??0?$CEncrypt@M@@QAE@XZ$0:
  00000	8b 4d f0	 mov	 ecx, DWORD PTR _this$[ebp]
  00003	83 c1 0c	 add	 ecx, 12			; 0000000cH
  00006	e9 00 00 00 00	 jmp	 ??1ccddaabb@@UAE@XZ	; ccddaabb::~ccddaabb
__ehhandler$??0?$CEncrypt@M@@QAE@XZ:
  0000b	8b 54 24 08	 mov	 edx, DWORD PTR [esp+8]
  0000f	8d 42 0c	 lea	 eax, DWORD PTR [edx+12]
  00012	8b 4a ec	 mov	 ecx, DWORD PTR [edx-20]
  00015	33 c8		 xor	 ecx, eax
  00017	e8 00 00 00 00	 call	 @__security_check_cookie@4
  0001c	b8 00 00 00 00	 mov	 eax, OFFSET __ehfuncinfo$??0?$CEncrypt@M@@QAE@XZ
  00021	e9 00 00 00 00	 jmp	 ___CxxFrameHandler3
text$x	ENDS
??0?$CEncrypt@M@@QAE@XZ ENDP				; CEncrypt<float>::CEncrypt<float>
PUBLIC	??B?$CEncrypt@M@@QAEMXZ				; CEncrypt<float>::operator float
; Function compile flags: /Ogsp
;	COMDAT ??B?$CEncrypt@M@@QAEMXZ
_TEXT	SEGMENT
_value$ = -4						; size = 4
??B?$CEncrypt@M@@QAEMXZ PROC				; CEncrypt<float>::operator float, COMDAT
; _this$ = ecx

; 134  : 	{

  00000	55		 push	 ebp
  00001	8b ec		 mov	 ebp, esp
  00003	51		 push	 ecx

; 135  : 		type value;
; 136  : 		DecryptValueToPool(&value);

  00004	8d 45 fc	 lea	 eax, DWORD PTR _value$[ebp]
  00007	50		 push	 eax
  00008	e8 00 00 00 00	 call	 ?DecryptValueToPool@?$CEncrypt@M@@QAEXPAM@Z ; CEncrypt<float>::DecryptValueToPool

; 137  : 
; 138  : #ifdef _NOTUSE
; 139  : 		Debug();
; 140  : #endif
; 141  : 		return value;

  0000d	d9 45 fc	 fld	 DWORD PTR _value$[ebp]

; 142  : 	}

  00010	c9		 leave
  00011	c3		 ret	 0
??B?$CEncrypt@M@@QAEMXZ ENDP				; CEncrypt<float>::operator float
_TEXT	ENDS
PUBLIC	??4?$CEncrypt@M@@QAEMM@Z			; CEncrypt<float>::operator=
; Function compile flags: /Ogsp
;	COMDAT ??4?$CEncrypt@M@@QAEMM@Z
_TEXT	SEGMENT
_value$ = 8						; size = 4
_inValue$ = 8						; size = 4
??4?$CEncrypt@M@@QAEMM@Z PROC				; CEncrypt<float>::operator=, COMDAT
; _this$ = ecx

; 1654 : 	{	

  00000	55		 push	 ebp
  00001	8b ec		 mov	 ebp, esp

; 1655 : 		type value = inValue;

  00003	d9 45 08	 fld	 DWORD PTR _inValue$[ebp]

; 1656 : 		EncryptValueToPool((char*)&value);

  00006	8d 45 08	 lea	 eax, DWORD PTR _value$[ebp]
  00009	50		 push	 eax
  0000a	d9 5d 08	 fstp	 DWORD PTR _value$[ebp]
  0000d	e8 00 00 00 00	 call	 ?EncryptValueToPool@?$CEncrypt@M@@AAEXPBD@Z ; CEncrypt<float>::EncryptValueToPool

; 1657 : #ifdef _NOTUSE
; 1658 : 		m_value = inValue;
; 1659 : 		Debug();
; 1660 : #endif
; 1661 : 		return value;

  00012	d9 45 08	 fld	 DWORD PTR _value$[ebp]

; 1662 : 	}

  00015	5d		 pop	 ebp
  00016	c2 04 00	 ret	 4
??4?$CEncrypt@M@@QAEMM@Z ENDP				; CEncrypt<float>::operator=
_TEXT	ENDS
PUBLIC	??0?$CEncrypt@K@@QAE@XZ				; CEncrypt<unsigned long>::CEncrypt<unsigned long>
;	COMDAT xdata$x
xdata$x	SEGMENT
__unwindtable$??0?$CEncrypt@K@@QAE@XZ DD 0ffffffffH
	DD	FLAT:__unwindfunclet$??0?$CEncrypt@K@@QAE@XZ$0
__ehfuncinfo$??0?$CEncrypt@K@@QAE@XZ DD 019930522H
	DD	01H
	DD	FLAT:__unwindtable$??0?$CEncrypt@K@@QAE@XZ
	DD	2 DUP(00H)
	DD	2 DUP(00H)
	DD	00H
	DD	01H
; Function compile flags: /Ogsp
xdata$x	ENDS
;	COMDAT ??0?$CEncrypt@K@@QAE@XZ
_TEXT	SEGMENT
_this$ = -16						; size = 4
__$EHRec$ = -12						; size = 12
??0?$CEncrypt@K@@QAE@XZ PROC				; CEncrypt<unsigned long>::CEncrypt<unsigned long>, COMDAT
; _this$ = ecx

; 109  : 	CEncrypt()

  00000	6a 04		 push	 4
  00002	b8 00 00 00 00	 mov	 eax, __ehhandler$??0?$CEncrypt@K@@QAE@XZ
  00007	e8 00 00 00 00	 call	 __EH_prolog3
  0000c	8b f1		 mov	 esi, ecx
  0000e	89 75 f0	 mov	 DWORD PTR _this$[ebp], esi
  00011	8d 4e 0c	 lea	 ecx, DWORD PTR [esi+12]
  00014	c7 06 00 00 00
	00		 mov	 DWORD PTR [esi], OFFSET ??_7?$CEncrypt@K@@6B@
  0001a	e8 00 00 00 00	 call	 ??0ccddaabb@@QAE@XZ	; ccddaabb::ccddaabb
  0001f	83 65 fc 00	 and	 DWORD PTR __$EHRec$[ebp+8], 0

; 110  : 	{
; 111  : 		Init();

  00023	8b ce		 mov	 ecx, esi
  00025	e8 00 00 00 00	 call	 ?Init@?$CEncrypt@K@@AAEXXZ ; CEncrypt<unsigned long>::Init

; 112  : 	}

  0002a	8b c6		 mov	 eax, esi
  0002c	e8 00 00 00 00	 call	 __EH_epilog3
  00031	c3		 ret	 0
_TEXT	ENDS
;	COMDAT text$x
text$x	SEGMENT
__unwindfunclet$??0?$CEncrypt@K@@QAE@XZ$0:
  00000	8b 4d f0	 mov	 ecx, DWORD PTR _this$[ebp]
  00003	83 c1 0c	 add	 ecx, 12			; 0000000cH
  00006	e9 00 00 00 00	 jmp	 ??1ccddaabb@@UAE@XZ	; ccddaabb::~ccddaabb
__ehhandler$??0?$CEncrypt@K@@QAE@XZ:
  0000b	8b 54 24 08	 mov	 edx, DWORD PTR [esp+8]
  0000f	8d 42 0c	 lea	 eax, DWORD PTR [edx+12]
  00012	8b 4a ec	 mov	 ecx, DWORD PTR [edx-20]
  00015	33 c8		 xor	 ecx, eax
  00017	e8 00 00 00 00	 call	 @__security_check_cookie@4
  0001c	b8 00 00 00 00	 mov	 eax, OFFSET __ehfuncinfo$??0?$CEncrypt@K@@QAE@XZ
  00021	e9 00 00 00 00	 jmp	 ___CxxFrameHandler3
text$x	ENDS
??0?$CEncrypt@K@@QAE@XZ ENDP				; CEncrypt<unsigned long>::CEncrypt<unsigned long>
PUBLIC	??B?$CEncrypt@H@@QBEHXZ				; CEncrypt<int>::operator int
; Function compile flags: /Ogsp
;	COMDAT ??B?$CEncrypt@H@@QBEHXZ
_TEXT	SEGMENT
_value$ = -4						; size = 4
??B?$CEncrypt@H@@QBEHXZ PROC				; CEncrypt<int>::operator int, COMDAT
; _this$ = ecx

; 145  : 	{

  00000	55		 push	 ebp
  00001	8b ec		 mov	 ebp, esp
  00003	51		 push	 ecx

; 146  : 		//UJ 130829, const    --start
; 147  : 		type value;
; 148  : 		CEncrypt<type>* pThis = const_cast<CEncrypt<type>*>(this);
; 149  : 		pThis->DecryptValueToPool(&value);

  00004	8d 45 fc	 lea	 eax, DWORD PTR _value$[ebp]
  00007	50		 push	 eax
  00008	e8 00 00 00 00	 call	 ?DecryptValueToPool@?$CEncrypt@H@@QAEXPAH@Z ; CEncrypt<int>::DecryptValueToPool

; 150  : 		//// const DecryptValueToPool     .
; 151  :  		//type value;
; 152  : 		//char szTempMem[MAX_ENCRYPT];
; 153  : 		//m_RC5.DecryptByte( m_MemPool, szTempMem, max(m_ValueSize, DEFAULT_ENCRYPT) );
; 154  : 		//memcpy( &value, szTempMem, m_ValueSize );
; 155  : 		//UJ --end
; 156  : 
; 157  : #ifdef _NOTUSE
; 158  : 		Debug();
; 159  : #endif
; 160  : 		return value;

  0000d	8b 45 fc	 mov	 eax, DWORD PTR _value$[ebp]

; 161  : 	}

  00010	c9		 leave
  00011	c3		 ret	 0
??B?$CEncrypt@H@@QBEHXZ ENDP				; CEncrypt<int>::operator int
_TEXT	ENDS
PUBLIC	?begin@?$vector@VioHashString@@V?$allocator@VioHashString@@@std@@@std@@QAE?AV?$_Vector_iterator@V?$_Vector_val@VioHashString@@V?$allocator@VioHashString@@@std@@@std@@@2@XZ ; std::vector<ioHashString,std::allocator<ioHashString> >::begin
; Function compile flags: /Ogsp
; File c:\program files (x86)\microsoft visual studio 10.0\vc\include\vector
;	COMDAT ?begin@?$vector@VioHashString@@V?$allocator@VioHashString@@@std@@@std@@QAE?AV?$_Vector_iterator@V?$_Vector_val@VioHashString@@V?$allocator@VioHashString@@@std@@@std@@@2@XZ
_TEXT	SEGMENT
___$ReturnUdt$ = 8					; size = 4
?begin@?$vector@VioHashString@@V?$allocator@VioHashString@@@std@@@std@@QAE?AV?$_Vector_iterator@V?$_Vector_val@VioHashString@@V?$allocator@VioHashString@@@std@@@std@@@2@XZ PROC ; std::vector<ioHashString,std::allocator<ioHashString> >::begin, COMDAT
; _this$ = ecx

; 781  : 		{	// return iterator for beginning of mutable sequence

  00000	55		 push	 ebp
  00001	8b ec		 mov	 ebp, esp

; 782  : 		return (iterator(this->_Myfirst, this));

  00003	8b 09		 mov	 ecx, DWORD PTR [ecx]
  00005	8b 45 08	 mov	 eax, DWORD PTR ___$ReturnUdt$[ebp]
  00008	89 08		 mov	 DWORD PTR [eax], ecx

; 783  : 		}

  0000a	5d		 pop	 ebp
  0000b	c2 04 00	 ret	 4
?begin@?$vector@VioHashString@@V?$allocator@VioHashString@@@std@@@std@@QAE?AV?$_Vector_iterator@V?$_Vector_val@VioHashString@@V?$allocator@VioHashString@@@std@@@std@@@2@XZ ENDP ; std::vector<ioHashString,std::allocator<ioHashString> >::begin
_TEXT	ENDS
PUBLIC	?end@?$vector@VioHashString@@V?$allocator@VioHashString@@@std@@@std@@QAE?AV?$_Vector_iterator@V?$_Vector_val@VioHashString@@V?$allocator@VioHashString@@@std@@@std@@@2@XZ ; std::vector<ioHashString,std::allocator<ioHashString> >::end
; Function compile flags: /Ogsp
;	COMDAT ?end@?$vector@VioHashString@@V?$allocator@VioHashString@@@std@@@std@@QAE?AV?$_Vector_iterator@V?$_Vector_val@VioHashString@@V?$allocator@VioHashString@@@std@@@std@@@2@XZ
_TEXT	SEGMENT
___$ReturnUdt$ = 8					; size = 4
?end@?$vector@VioHashString@@V?$allocator@VioHashString@@@std@@@std@@QAE?AV?$_Vector_iterator@V?$_Vector_val@VioHashString@@V?$allocator@VioHashString@@@std@@@std@@@2@XZ PROC ; std::vector<ioHashString,std::allocator<ioHashString> >::end, COMDAT
; _this$ = ecx

; 791  : 		{	// return iterator for end of mutable sequence

  00000	55		 push	 ebp
  00001	8b ec		 mov	 ebp, esp

; 792  : 		return (iterator(this->_Mylast, this));

  00003	8b 49 04	 mov	 ecx, DWORD PTR [ecx+4]
  00006	8b 45 08	 mov	 eax, DWORD PTR ___$ReturnUdt$[ebp]
  00009	89 08		 mov	 DWORD PTR [eax], ecx

; 793  : 		}

  0000b	5d		 pop	 ebp
  0000c	c2 04 00	 ret	 4
?end@?$vector@VioHashString@@V?$allocator@VioHashString@@@std@@@std@@QAE?AV?$_Vector_iterator@V?$_Vector_val@VioHashString@@V?$allocator@VioHashString@@@std@@@std@@@2@XZ ENDP ; std::vector<ioHashString,std::allocator<ioHashString> >::end
_TEXT	ENDS
PUBLIC	??0?$_Vector_val@VioHashString@@V?$allocator@VioHashString@@@std@@@std@@QAE@V?$allocator@VioHashString@@@1@@Z ; std::_Vector_val<ioHashString,std::allocator<ioHashString> >::_Vector_val<ioHashString,std::allocator<ioHashString> >
; Function compile flags: /Ogsp
;	COMDAT ??0?$_Vector_val@VioHashString@@V?$allocator@VioHashString@@@std@@@std@@QAE@V?$allocator@VioHashString@@@1@@Z
_TEXT	SEGMENT
__Al$ = 8						; size = 1
??0?$_Vector_val@VioHashString@@V?$allocator@VioHashString@@@std@@@std@@QAE@V?$allocator@VioHashString@@@1@@Z PROC ; std::_Vector_val<ioHashString,std::allocator<ioHashString> >::_Vector_val<ioHashString,std::allocator<ioHashString> >, COMDAT
; _this$ = ecx

; 426  : 		{	// construct allocator from _Al

  00000	8b c1		 mov	 eax, ecx

; 427  : 		_Myfirst = 0;

  00002	33 c9		 xor	 ecx, ecx
  00004	89 08		 mov	 DWORD PTR [eax], ecx

; 428  : 		_Mylast = 0;

  00006	89 48 04	 mov	 DWORD PTR [eax+4], ecx

; 429  : 		_Myend = 0;

  00009	89 48 08	 mov	 DWORD PTR [eax+8], ecx

; 430  : 		}

  0000c	c2 04 00	 ret	 4
??0?$_Vector_val@VioHashString@@V?$allocator@VioHashString@@@std@@@std@@QAE@V?$allocator@VioHashString@@@1@@Z ENDP ; std::_Vector_val<ioHashString,std::allocator<ioHashString> >::_Vector_val<ioHashString,std::allocator<ioHashString> >
_TEXT	ENDS
PUBLIC	?_Make_iter@?$vector@VioHashString@@V?$allocator@VioHashString@@@std@@@std@@QBE?AV?$_Vector_iterator@V?$_Vector_val@VioHashString@@V?$allocator@VioHashString@@@std@@@std@@@2@V?$_Vector_const_iterator@V?$_Vector_val@VioHashString@@V?$allocator@VioHashString@@@std@@@std@@@2@@Z ; std::vector<ioHashString,std::allocator<ioHashString> >::_Make_iter
; Function compile flags: /Ogsp
;	COMDAT ?_Make_iter@?$vector@VioHashString@@V?$allocator@VioHashString@@@std@@@std@@QBE?AV?$_Vector_iterator@V?$_Vector_val@VioHashString@@V?$allocator@VioHashString@@@std@@@std@@@2@V?$_Vector_const_iterator@V?$_Vector_val@VioHashString@@V?$allocator@VioHashString@@@std@@@std@@@2@@Z
_TEXT	SEGMENT
___$ReturnUdt$ = 8					; size = 4
__Where$ = 12						; size = 4
?_Make_iter@?$vector@VioHashString@@V?$allocator@VioHashString@@@std@@@std@@QBE?AV?$_Vector_iterator@V?$_Vector_val@VioHashString@@V?$allocator@VioHashString@@@std@@@std@@@2@V?$_Vector_const_iterator@V?$_Vector_val@VioHashString@@V?$allocator@VioHashString@@@std@@@std@@@2@@Z PROC ; std::vector<ioHashString,std::allocator<ioHashString> >::_Make_iter, COMDAT
; _this$ = ecx

; 801  : 		{	// make iterator from const_iterator

  00000	55		 push	 ebp
  00001	8b ec		 mov	 ebp, esp

; 802  : 		return (iterator(_Where._Ptr, this));

  00003	8b 45 08	 mov	 eax, DWORD PTR ___$ReturnUdt$[ebp]
  00006	8b 4d 0c	 mov	 ecx, DWORD PTR __Where$[ebp]
  00009	89 08		 mov	 DWORD PTR [eax], ecx

; 803  : 		}

  0000b	5d		 pop	 ebp
  0000c	c2 08 00	 ret	 8
?_Make_iter@?$vector@VioHashString@@V?$allocator@VioHashString@@@std@@@std@@QBE?AV?$_Vector_iterator@V?$_Vector_val@VioHashString@@V?$allocator@VioHashString@@@std@@@std@@@2@V?$_Vector_const_iterator@V?$_Vector_val@VioHashString@@V?$allocator@VioHashString@@@std@@@std@@@2@@Z ENDP ; std::vector<ioHashString,std::allocator<ioHashString> >::_Make_iter
_TEXT	ENDS
PUBLIC	?max_size@?$vector@VioHashString@@V?$allocator@VioHashString@@@std@@@std@@QBEIXZ ; std::vector<ioHashString,std::allocator<ioHashString> >::max_size
; Function compile flags: /Ogsp
;	COMDAT ?max_size@?$vector@VioHashString@@V?$allocator@VioHashString@@@std@@@std@@QBEIXZ
_TEXT	SEGMENT
?max_size@?$vector@VioHashString@@V?$allocator@VioHashString@@@std@@@std@@QBEIXZ PROC ; std::vector<ioHashString,std::allocator<ioHashString> >::max_size, COMDAT
; _this$ = ecx

; 884  : 		return (this->_Alval.max_size());

  00000	b8 ff ff ff 0f	 mov	 eax, 268435455		; 0fffffffH

; 885  : 		}

  00005	c3		 ret	 0
?max_size@?$vector@VioHashString@@V?$allocator@VioHashString@@@std@@@std@@QBEIXZ ENDP ; std::vector<ioHashString,std::allocator<ioHashString> >::max_size
_TEXT	ENDS
PUBLIC	?allocate@?$allocator@VioHashString@@@std@@QAEPAVioHashString@@I@Z ; std::allocator<ioHashString>::allocate
; Function compile flags: /Ogsp
; File c:\program files (x86)\microsoft visual studio 10.0\vc\include\xmemory
;	COMDAT ?allocate@?$allocator@VioHashString@@@std@@QAEPAVioHashString@@I@Z
_TEXT	SEGMENT
__Count$ = 8						; size = 4
?allocate@?$allocator@VioHashString@@@std@@QAEPAVioHashString@@I@Z PROC ; std::allocator<ioHashString>::allocate, COMDAT
; _this$ = ecx

; 186  : 		{	// allocate array of _Count elements

  00000	55		 push	 ebp
  00001	8b ec		 mov	 ebp, esp

; 187  : 		return (_Allocate(_Count, (pointer)0));

  00003	6a 00		 push	 0
  00005	ff 75 08	 push	 DWORD PTR __Count$[ebp]
  00008	e8 00 00 00 00	 call	 ??$_Allocate@VioHashString@@@std@@YAPAVioHashString@@IPAV1@@Z ; std::_Allocate<ioHashString>
  0000d	59		 pop	 ecx
  0000e	59		 pop	 ecx

; 188  : 		}

  0000f	5d		 pop	 ebp
  00010	c2 04 00	 ret	 4
?allocate@?$allocator@VioHashString@@@std@@QAEPAVioHashString@@I@Z ENDP ; std::allocator<ioHashString>::allocate
_TEXT	ENDS
PUBLIC	??8?$_Vector_const_iterator@V?$_Vector_val@VioHashString@@V?$allocator@VioHashString@@@std@@@std@@@std@@QBE_NABV01@@Z ; std::_Vector_const_iterator<std::_Vector_val<ioHashString,std::allocator<ioHashString> > >::operator==
; Function compile flags: /Ogsp
; File c:\program files (x86)\microsoft visual studio 10.0\vc\include\vector
;	COMDAT ??8?$_Vector_const_iterator@V?$_Vector_val@VioHashString@@V?$allocator@VioHashString@@@std@@@std@@@std@@QBE_NABV01@@Z
_TEXT	SEGMENT
__Right$ = 8						; size = 4
??8?$_Vector_const_iterator@V?$_Vector_val@VioHashString@@V?$allocator@VioHashString@@@std@@@std@@@std@@QBE_NABV01@@Z PROC ; std::_Vector_const_iterator<std::_Vector_val<ioHashString,std::allocator<ioHashString> > >::operator==, COMDAT
; _this$ = ecx

; 201  : 		{	// test for iterator equality

  00000	55		 push	 ebp
  00001	8b ec		 mov	 ebp, esp

; 202  : 		_Compat(_Right);
; 203  : 		return (this->_Ptr == _Right._Ptr);

  00003	8b 01		 mov	 eax, DWORD PTR [ecx]
  00005	8b 4d 08	 mov	 ecx, DWORD PTR __Right$[ebp]
  00008	2b 01		 sub	 eax, DWORD PTR [ecx]
  0000a	f7 d8		 neg	 eax
  0000c	1b c0		 sbb	 eax, eax
  0000e	40		 inc	 eax

; 204  : 		}

  0000f	5d		 pop	 ebp
  00010	c2 04 00	 ret	 4
??8?$_Vector_const_iterator@V?$_Vector_val@VioHashString@@V?$allocator@VioHashString@@@std@@@std@@@std@@QBE_NABV01@@Z ENDP ; std::_Vector_const_iterator<std::_Vector_val<ioHashString,std::allocator<ioHashString> > >::operator==
_TEXT	ENDS
PUBLIC	??$_Move@PAVioHashString@@PAV1@@std@@YAPAVioHashString@@PAV1@00U_Nonscalar_ptr_iterator_tag@0@@Z ; std::_Move<ioHashString *,ioHashString *>
; Function compile flags: /Ogsp
; File c:\program files (x86)\microsoft visual studio 10.0\vc\include\xutility
;	COMDAT ??$_Move@PAVioHashString@@PAV1@@std@@YAPAVioHashString@@PAV1@00U_Nonscalar_ptr_iterator_tag@0@@Z
_TEXT	SEGMENT
__First$ = 8						; size = 4
__Last$ = 12						; size = 4
__Dest$ = 16						; size = 4
___formal$ = 20						; size = 1
??$_Move@PAVioHashString@@PAV1@@std@@YAPAVioHashString@@PAV1@00U_Nonscalar_ptr_iterator_tag@0@@Z PROC ; std::_Move<ioHashString *,ioHashString *>, COMDAT

; 2512 : 	{	// move [_First, _Last) to [_Dest, ...), arbitrary iterators

  00000	55		 push	 ebp
  00001	8b ec		 mov	 ebp, esp
  00003	56		 push	 esi

; 2513 : 	for (; _First != _Last; ++_Dest, ++_First)

  00004	8b 75 08	 mov	 esi, DWORD PTR __First$[ebp]
  00007	eb 11		 jmp	 SHORT $LN11@Move@2
$LL3@Move@2:

; 2514 : 		*_Dest = _STD move(*_First);

  00009	8b 4d 10	 mov	 ecx, DWORD PTR __Dest$[ebp]
  0000c	56		 push	 esi
  0000d	ff 15 00 00 00
	00		 call	 DWORD PTR __imp_??4ioHashString@@QAEAAV0@ABV0@@Z
  00013	83 45 10 10	 add	 DWORD PTR __Dest$[ebp], 16 ; 00000010H
  00017	83 c6 10	 add	 esi, 16			; 00000010H
$LN11@Move@2:

; 2513 : 	for (; _First != _Last; ++_Dest, ++_First)

  0001a	3b 75 0c	 cmp	 esi, DWORD PTR __Last$[ebp]
  0001d	75 ea		 jne	 SHORT $LL3@Move@2

; 2515 : 	return (_Dest);

  0001f	8b 45 10	 mov	 eax, DWORD PTR __Dest$[ebp]
  00022	5e		 pop	 esi

; 2516 : 	}

  00023	5d		 pop	 ebp
  00024	c3		 ret	 0
??$_Move@PAVioHashString@@PAV1@@std@@YAPAVioHashString@@PAV1@00U_Nonscalar_ptr_iterator_tag@0@@Z ENDP ; std::_Move<ioHashString *,ioHashString *>
_TEXT	ENDS
PUBLIC	??$_Destroy@VioHashString@@@std@@YAXPAVioHashString@@@Z ; std::_Destroy<ioHashString>
; Function compile flags: /Ogsp
; File c:\program files (x86)\microsoft visual studio 10.0\vc\include\xmemory
;	COMDAT ??$_Destroy@VioHashString@@@std@@YAXPAVioHashString@@@Z
_TEXT	SEGMENT
__Ptr$ = 8						; size = 4
??$_Destroy@VioHashString@@@std@@YAXPAVioHashString@@@Z PROC ; std::_Destroy<ioHashString>, COMDAT

; 62   : 	{	// destroy object at _Ptr

  00000	55		 push	 ebp
  00001	8b ec		 mov	 ebp, esp

; 63   : 	_Ptr->~_Ty();

  00003	8b 4d 08	 mov	 ecx, DWORD PTR __Ptr$[ebp]

; 64   : 	}

  00006	5d		 pop	 ebp

; 63   : 	_Ptr->~_Ty();

  00007	ff 25 00 00 00
	00		 jmp	 DWORD PTR __imp_??1ioHashString@@QAE@XZ
??$_Destroy@VioHashString@@@std@@YAXPAVioHashString@@@Z ENDP ; std::_Destroy<ioHashString>
_TEXT	ENDS
PUBLIC	?construct@?$allocator@VioHashString@@@std@@QAEXPAVioHashString@@ABV3@@Z ; std::allocator<ioHashString>::construct
; Function compile flags: /Ogsp
;	COMDAT ?construct@?$allocator@VioHashString@@@std@@QAEXPAVioHashString@@ABV3@@Z
_TEXT	SEGMENT
__Ptr$ = 8						; size = 4
__Val$ = 12						; size = 4
?construct@?$allocator@VioHashString@@@std@@QAEXPAVioHashString@@ABV3@@Z PROC ; std::allocator<ioHashString>::construct, COMDAT
; _this$ = ecx

; 196  : 		{	// construct object at _Ptr with value _Val

  00000	55		 push	 ebp
  00001	8b ec		 mov	 ebp, esp

; 197  : 		_Construct(_Ptr, _Val);

  00003	ff 75 0c	 push	 DWORD PTR __Val$[ebp]
  00006	ff 75 08	 push	 DWORD PTR __Ptr$[ebp]
  00009	e8 00 00 00 00	 call	 ??$_Construct@VioHashString@@ABV1@@std@@YAXPAVioHashString@@ABV1@@Z ; std::_Construct<ioHashString,ioHashString const &>
  0000e	59		 pop	 ecx
  0000f	59		 pop	 ecx

; 198  : 		}

  00010	5d		 pop	 ebp
  00011	c2 08 00	 ret	 8
?construct@?$allocator@VioHashString@@@std@@QAEXPAVioHashString@@ABV3@@Z ENDP ; std::allocator<ioHashString>::construct
_TEXT	ENDS
PUBLIC	?InitResource@ioRotateTargetWeapon@@UAE_NXZ	; ioRotateTargetWeapon::InitResource
EXTRN	__imp_?SetExtents@ioOrientBox@@QAEXHM@Z:PROC
EXTRN	?InitResource@ioWeapon@@UAE_NXZ:PROC		; ioWeapon::InitResource
; Function compile flags: /Ogsp
; File d:\lost saga for developer\youtube\tutorial\source\src\lsclient\iorotatetargetweapon.cpp
;	COMDAT ?InitResource@ioRotateTargetWeapon@@UAE_NXZ
_TEXT	SEGMENT
_value$534729 = -4					; size = 4
_value$534725 = -4					; size = 4
_value$534721 = -4					; size = 4
?InitResource@ioRotateTargetWeapon@@UAE_NXZ PROC	; ioRotateTargetWeapon::InitResource, COMDAT
; _this$ = ecx

; 26   : {

  00000	55		 push	 ebp
  00001	8b ec		 mov	 ebp, esp
  00003	51		 push	 ecx
  00004	56		 push	 esi
  00005	8b f1		 mov	 esi, ecx

; 27   : 	if( ioWeapon::InitResource() )

  00007	e8 00 00 00 00	 call	 ?InitResource@ioWeapon@@UAE_NXZ ; ioWeapon::InitResource
  0000c	84 c0		 test	 al, al
  0000e	0f 84 9b 00 00
	00		 je	 $LN1@InitResour

; 28   : 	{
; 29   : 		DestroyResource();

  00014	8b 06		 mov	 eax, DWORD PTR [esi]
  00016	53		 push	 ebx
  00017	57		 push	 edi
  00018	6a 00		 push	 0
  0001a	8b ce		 mov	 ecx, esi
  0001c	ff 90 9c 00 00
	00		 call	 DWORD PTR [eax+156]

; 30   : 
; 31   : 		m_LocalAttackBox.SetExtents( 0, m_fCollisionRange );

  00022	8d 45 fc	 lea	 eax, DWORD PTR _value$534721[ebp]
  00025	50		 push	 eax
  00026	8d 8e d4 09 00
	00		 lea	 ecx, DWORD PTR [esi+2516]
  0002c	e8 00 00 00 00	 call	 ?DecryptValueToPool@?$CEncrypt@M@@QAEXPAM@Z ; CEncrypt<float>::DecryptValueToPool
  00031	f3 0f 10 45 fc	 movss	 xmm0, DWORD PTR _value$534721[ebp]
  00036	8b 3d 00 00 00
	00		 mov	 edi, DWORD PTR __imp_?SetExtents@ioOrientBox@@QAEXHM@Z
  0003c	8d 8e b0 08 00
	00		 lea	 ecx, DWORD PTR [esi+2224]
  00042	51		 push	 ecx
  00043	f3 0f 11 04 24	 movss	 DWORD PTR [esp], xmm0
  00048	6a 00		 push	 0
  0004a	ff d7		 call	 edi

; 32   : 		m_LocalAttackBox.SetExtents( 1, m_fCollisionRange );

  0004c	8d 45 fc	 lea	 eax, DWORD PTR _value$534725[ebp]
  0004f	50		 push	 eax
  00050	8d 8e d4 09 00
	00		 lea	 ecx, DWORD PTR [esi+2516]
  00056	e8 00 00 00 00	 call	 ?DecryptValueToPool@?$CEncrypt@M@@QAEXPAM@Z ; CEncrypt<float>::DecryptValueToPool
  0005b	f3 0f 10 45 fc	 movss	 xmm0, DWORD PTR _value$534725[ebp]
  00060	51		 push	 ecx
  00061	f3 0f 11 04 24	 movss	 DWORD PTR [esp], xmm0
  00066	6a 01		 push	 1
  00068	8d 8e b0 08 00
	00		 lea	 ecx, DWORD PTR [esi+2224]
  0006e	ff d7		 call	 edi

; 33   : 		m_LocalAttackBox.SetExtents( 2, m_fCollisionRange );

  00070	8d 45 fc	 lea	 eax, DWORD PTR _value$534729[ebp]
  00073	50		 push	 eax
  00074	8d 8e d4 09 00
	00		 lea	 ecx, DWORD PTR [esi+2516]
  0007a	e8 00 00 00 00	 call	 ?DecryptValueToPool@?$CEncrypt@M@@QAEXPAM@Z ; CEncrypt<float>::DecryptValueToPool
  0007f	f3 0f 10 45 fc	 movss	 xmm0, DWORD PTR _value$534729[ebp]
  00084	51		 push	 ecx
  00085	f3 0f 11 04 24	 movss	 DWORD PTR [esp], xmm0
  0008a	6a 02		 push	 2
  0008c	8d 8e b0 08 00
	00		 lea	 ecx, DWORD PTR [esi+2224]
  00092	ff d7		 call	 edi

; 34   : 		UpdateWorldAttackBox( 0.0f, false );

  00094	0f 57 c0	 xorps	 xmm0, xmm0
  00097	8b 06		 mov	 eax, DWORD PTR [esi]
  00099	6a 00		 push	 0
  0009b	51		 push	 ecx
  0009c	8b ce		 mov	 ecx, esi
  0009e	f3 0f 11 04 24	 movss	 DWORD PTR [esp], xmm0
  000a3	ff 90 38 01 00
	00		 call	 DWORD PTR [eax+312]
  000a9	5f		 pop	 edi

; 35   : 
; 36   : 		return true;

  000aa	b0 01		 mov	 al, 1
  000ac	5b		 pop	 ebx
  000ad	eb 02		 jmp	 SHORT $LN2@InitResour
$LN1@InitResour:

; 37   : 	}
; 38   : 
; 39   : 	return false;

  000af	32 c0		 xor	 al, al
$LN2@InitResour:
  000b1	5e		 pop	 esi

; 40   : }

  000b2	c9		 leave
  000b3	c3		 ret	 0
?InitResource@ioRotateTargetWeapon@@UAE_NXZ ENDP	; ioRotateTargetWeapon::InitResource
_TEXT	ENDS
PUBLIC	?SetStartPosition@ioRotateTargetWeapon@@UAEXABUD3DXVECTOR3@@PAVioPlayStage@@@Z ; ioRotateTargetWeapon::SetStartPosition
EXTRN	?SetPosition@ioWeapon@@QAEXABUD3DXVECTOR3@@@Z:PROC ; ioWeapon::SetPosition
; Function compile flags: /Ogsp
;	COMDAT ?SetStartPosition@ioRotateTargetWeapon@@UAEXABUD3DXVECTOR3@@PAVioPlayStage@@@Z
_TEXT	SEGMENT
_value$534743 = 8					; size = 4
_value$534739 = 8					; size = 4
_value$534735 = 8					; size = 4
_vPos$ = 8						; size = 4
_pStage$ = 12						; size = 4
?SetStartPosition@ioRotateTargetWeapon@@UAEXABUD3DXVECTOR3@@PAVioPlayStage@@@Z PROC ; ioRotateTargetWeapon::SetStartPosition, COMDAT
; _this$ = ecx

; 72   : {

  00000	55		 push	 ebp
  00001	8b ec		 mov	 ebp, esp
  00003	53		 push	 ebx
  00004	56		 push	 esi
  00005	57		 push	 edi

; 73   : 	SetPosition( vPos );

  00006	ff 75 08	 push	 DWORD PTR _vPos$[ebp]
  00009	8b f1		 mov	 esi, ecx
  0000b	e8 00 00 00 00	 call	 ?SetPosition@ioWeapon@@QAEXABUD3DXVECTOR3@@@Z ; ioWeapon::SetPosition

; 74   : 	m_LocalAttackBox.SetExtents( 0, m_fCollisionRange );

  00010	8d 45 08	 lea	 eax, DWORD PTR _value$534735[ebp]
  00013	50		 push	 eax
  00014	8d 8e d4 09 00
	00		 lea	 ecx, DWORD PTR [esi+2516]
  0001a	e8 00 00 00 00	 call	 ?DecryptValueToPool@?$CEncrypt@M@@QAEXPAM@Z ; CEncrypt<float>::DecryptValueToPool
  0001f	f3 0f 10 45 08	 movss	 xmm0, DWORD PTR _value$534735[ebp]
  00024	8b 3d 00 00 00
	00		 mov	 edi, DWORD PTR __imp_?SetExtents@ioOrientBox@@QAEXHM@Z
  0002a	8d 8e b0 08 00
	00		 lea	 ecx, DWORD PTR [esi+2224]
  00030	51		 push	 ecx
  00031	f3 0f 11 04 24	 movss	 DWORD PTR [esp], xmm0
  00036	6a 00		 push	 0
  00038	ff d7		 call	 edi

; 75   : 	m_LocalAttackBox.SetExtents( 1, m_fCollisionRange );

  0003a	8d 45 08	 lea	 eax, DWORD PTR _value$534739[ebp]
  0003d	50		 push	 eax
  0003e	8d 8e d4 09 00
	00		 lea	 ecx, DWORD PTR [esi+2516]
  00044	e8 00 00 00 00	 call	 ?DecryptValueToPool@?$CEncrypt@M@@QAEXPAM@Z ; CEncrypt<float>::DecryptValueToPool
  00049	f3 0f 10 45 08	 movss	 xmm0, DWORD PTR _value$534739[ebp]
  0004e	51		 push	 ecx
  0004f	f3 0f 11 04 24	 movss	 DWORD PTR [esp], xmm0
  00054	6a 01		 push	 1
  00056	8d 8e b0 08 00
	00		 lea	 ecx, DWORD PTR [esi+2224]
  0005c	ff d7		 call	 edi

; 76   : 	m_LocalAttackBox.SetExtents( 2, m_fCollisionRange );

  0005e	8d 45 08	 lea	 eax, DWORD PTR _value$534743[ebp]
  00061	50		 push	 eax
  00062	8d 8e d4 09 00
	00		 lea	 ecx, DWORD PTR [esi+2516]
  00068	e8 00 00 00 00	 call	 ?DecryptValueToPool@?$CEncrypt@M@@QAEXPAM@Z ; CEncrypt<float>::DecryptValueToPool
  0006d	f3 0f 10 45 08	 movss	 xmm0, DWORD PTR _value$534743[ebp]
  00072	51		 push	 ecx
  00073	f3 0f 11 04 24	 movss	 DWORD PTR [esp], xmm0
  00078	6a 02		 push	 2
  0007a	8d 8e b0 08 00
	00		 lea	 ecx, DWORD PTR [esi+2224]
  00080	ff d7		 call	 edi

; 77   : 	UpdateWorldAttackBox( 0.0f, false );

  00082	0f 57 c0	 xorps	 xmm0, xmm0
  00085	8b 06		 mov	 eax, DWORD PTR [esi]
  00087	6a 00		 push	 0
  00089	51		 push	 ecx
  0008a	8b ce		 mov	 ecx, esi
  0008c	f3 0f 11 04 24	 movss	 DWORD PTR [esp], xmm0
  00091	ff 90 38 01 00
	00		 call	 DWORD PTR [eax+312]
  00097	5f		 pop	 edi
  00098	5e		 pop	 esi
  00099	5b		 pop	 ebx

; 78   : }

  0009a	5d		 pop	 ebp
  0009b	c2 08 00	 ret	 8
?SetStartPosition@ioRotateTargetWeapon@@UAEXABUD3DXVECTOR3@@PAVioPlayStage@@@Z ENDP ; ioRotateTargetWeapon::SetStartPosition
_TEXT	ENDS
PUBLIC	_pEntity$GSCopy$
PUBLIC	__$ArrayPad$
PUBLIC	?CheckCollision@ioRotateTargetWeapon@@IAE_NPAVioPlayEntity@@@Z ; ioRotateTargetWeapon::CheckCollision
EXTRN	__imp_?VEC3_ZERO@ioMath@@2UD3DXVECTOR3@@A:BYTE
EXTRN	__imp_?GetCenter@ioOrientBox@@QBEABUD3DXVECTOR3@@XZ:PROC
EXTRN	?GetWorldAttackBox@ioWeapon@@QBEABVioOrientBox@@_N@Z:PROC ; ioWeapon::GetWorldAttackBox
; Function compile flags: /Ogsp
;	COMDAT ?CheckCollision@ioRotateTargetWeapon@@IAE_NPAVioPlayEntity@@@Z
_TEXT	SEGMENT
_pEntity$GSCopy$ = -40					; size = 4
_value$534754 = -36					; size = 4
_value$534751 = -32					; size = 4
_vPoint$ = -28						; size = 12
_vPos$ = -16						; size = 12
__$ArrayPad$ = -4					; size = 4
_pEntity$ = 8						; size = 4
?CheckCollision@ioRotateTargetWeapon@@IAE_NPAVioPlayEntity@@@Z PROC ; ioRotateTargetWeapon::CheckCollision, COMDAT
; _this$ = ecx

; 391  : {

  00000	55		 push	 ebp
  00001	8b ec		 mov	 ebp, esp
  00003	83 ec 28	 sub	 esp, 40			; 00000028H
  00006	a1 00 00 00 00	 mov	 eax, DWORD PTR ___security_cookie
  0000b	33 c5		 xor	 eax, ebp
  0000d	89 45 fc	 mov	 DWORD PTR __$ArrayPad$[ebp], eax
  00010	8b 45 08	 mov	 eax, DWORD PTR _pEntity$[ebp]
  00013	53		 push	 ebx
  00014	8b d9		 mov	 ebx, ecx

; 394  : 
; 395  : 	D3DXVECTOR3 vPos = GetWorldAttackBox().GetCenter();

  00016	89 45 d8	 mov	 DWORD PTR _pEntity$GSCopy$[ebp], eax
  00019	85 c0		 test	 eax, eax
  0001b	75 04		 jne	 SHORT $LN2@CheckColli

; 392  : 	if( !pEntity )
; 393  : 		return false;

  0001d	32 c0		 xor	 al, al
  0001f	eb 7b		 jmp	 SHORT $LN1@CheckColli
$LN2@CheckColli:
  00021	56		 push	 esi
  00022	57		 push	 edi

; 394  : 
; 395  : 	D3DXVECTOR3 vPos = GetWorldAttackBox().GetCenter();

  00023	6a 00		 push	 0
  00025	e8 00 00 00 00	 call	 ?GetWorldAttackBox@ioWeapon@@QBEABVioOrientBox@@_N@Z ; ioWeapon::GetWorldAttackBox
  0002a	8b c8		 mov	 ecx, eax
  0002c	ff 15 00 00 00
	00		 call	 DWORD PTR __imp_?GetCenter@ioOrientBox@@QBEABUD3DXVECTOR3@@XZ
  00032	8b f0		 mov	 esi, eax
  00034	8d 7d f0	 lea	 edi, DWORD PTR _vPos$[ebp]
  00037	a5		 movsd
  00038	a5		 movsd

; 396  : 	float fCollisionRange = m_fCollisionRange * m_fOwnerChargeRangeRate;

  00039	8d 45 e0	 lea	 eax, DWORD PTR _value$534751[ebp]
  0003c	50		 push	 eax
  0003d	8d 8b f0 00 00
	00		 lea	 ecx, DWORD PTR [ebx+240]
  00043	a5		 movsd
  00044	e8 00 00 00 00	 call	 ?DecryptValueToPool@?$CEncrypt@M@@QAEXPAM@Z ; CEncrypt<float>::DecryptValueToPool
  00049	8d 45 dc	 lea	 eax, DWORD PTR _value$534754[ebp]
  0004c	50		 push	 eax
  0004d	8d 8b d4 09 00
	00		 lea	 ecx, DWORD PTR [ebx+2516]
  00053	e8 00 00 00 00	 call	 ?DecryptValueToPool@?$CEncrypt@M@@QAEXPAM@Z ; CEncrypt<float>::DecryptValueToPool

; 397  : 	D3DXVECTOR3 vPoint = ioMath::VEC3_ZERO;

  00058	8b 35 00 00 00
	00		 mov	 esi, DWORD PTR __imp_?VEC3_ZERO@ioMath@@2UD3DXVECTOR3@@A

; 398  : 	if( pEntity->CheckSpherePoint( vPos, fCollisionRange, vPoint ) )

  0005e	8b 4d d8	 mov	 ecx, DWORD PTR _pEntity$GSCopy$[ebp]
  00061	f3 0f 10 45 dc	 movss	 xmm0, DWORD PTR _value$534754[ebp]
  00066	f3 0f 10 4d e0	 movss	 xmm1, DWORD PTR _value$534751[ebp]
  0006b	8b 01		 mov	 eax, DWORD PTR [ecx]
  0006d	8d 7d e4	 lea	 edi, DWORD PTR _vPoint$[ebp]
  00070	a5		 movsd
  00071	8d 55 e4	 lea	 edx, DWORD PTR _vPoint$[ebp]
  00074	52		 push	 edx
  00075	0f 5a c0	 cvtps2pd xmm0, xmm0
  00078	a5		 movsd
  00079	0f 5a c9	 cvtps2pd xmm1, xmm1
  0007c	51		 push	 ecx
  0007d	f2 0f 59 c1	 mulsd	 xmm0, xmm1
  00081	66 0f 5a c0	 cvtpd2ps xmm0, xmm0
  00085	8d 55 f0	 lea	 edx, DWORD PTR _vPos$[ebp]
  00088	f3 0f 11 04 24	 movss	 DWORD PTR [esp], xmm0
  0008d	52		 push	 edx
  0008e	a5		 movsd
  0008f	ff 90 9c 00 00
	00		 call	 DWORD PTR [eax+156]
  00095	84 c0		 test	 al, al
  00097	5f		 pop	 edi
  00098	0f 95 c0	 setne	 al
  0009b	5e		 pop	 esi
$LN1@CheckColli:

; 399  : 		return true;
; 400  : 
; 401  : 	return false;
; 402  : }

  0009c	8b 4d fc	 mov	 ecx, DWORD PTR __$ArrayPad$[ebp]
  0009f	33 cd		 xor	 ecx, ebp
  000a1	5b		 pop	 ebx
  000a2	e8 00 00 00 00	 call	 @__security_check_cookie@4
  000a7	c9		 leave
  000a8	c2 04 00	 ret	 4
?CheckCollision@ioRotateTargetWeapon@@IAE_NPAVioPlayEntity@@@Z ENDP ; ioRotateTargetWeapon::CheckCollision
_TEXT	ENDS
PUBLIC	??0?$vector@UTargetInfo@ioRotateTargetWeapon@@V?$allocator@UTargetInfo@ioRotateTargetWeapon@@@std@@@std@@QAE@XZ ; std::vector<ioRotateTargetWeapon::TargetInfo,std::allocator<ioRotateTargetWeapon::TargetInfo> >::vector<ioRotateTargetWeapon::TargetInfo,std::allocator<ioRotateTargetWeapon::TargetInfo> >
; Function compile flags: /Ogsp
; File c:\program files (x86)\microsoft visual studio 10.0\vc\include\vector
;	COMDAT ??0?$vector@UTargetInfo@ioRotateTargetWeapon@@V?$allocator@UTargetInfo@ioRotateTargetWeapon@@@std@@@std@@QAE@XZ
_TEXT	SEGMENT
??0?$vector@UTargetInfo@ioRotateTargetWeapon@@V?$allocator@UTargetInfo@ioRotateTargetWeapon@@@std@@@std@@QAE@XZ PROC ; std::vector<ioRotateTargetWeapon::TargetInfo,std::allocator<ioRotateTargetWeapon::TargetInfo> >::vector<ioRotateTargetWeapon::TargetInfo,std::allocator<ioRotateTargetWeapon::TargetInfo> >, COMDAT
; _this$ = ecx

; 507  : 		{	// construct empty vector

  00000	8b c1		 mov	 eax, ecx
  00002	33 c9		 xor	 ecx, ecx
  00004	89 08		 mov	 DWORD PTR [eax], ecx
  00006	89 48 04	 mov	 DWORD PTR [eax+4], ecx
  00009	89 48 08	 mov	 DWORD PTR [eax+8], ecx

; 508  : 		}

  0000c	c3		 ret	 0
??0?$vector@UTargetInfo@ioRotateTargetWeapon@@V?$allocator@UTargetInfo@ioRotateTargetWeapon@@@std@@@std@@QAE@XZ ENDP ; std::vector<ioRotateTargetWeapon::TargetInfo,std::allocator<ioRotateTargetWeapon::TargetInfo> >::vector<ioRotateTargetWeapon::TargetInfo,std::allocator<ioRotateTargetWeapon::TargetInfo> >
_TEXT	ENDS
PUBLIC	?begin@?$vector@UTargetInfo@ioRotateTargetWeapon@@V?$allocator@UTargetInfo@ioRotateTargetWeapon@@@std@@@std@@QAE?AV?$_Vector_iterator@V?$_Vector_val@UTargetInfo@ioRotateTargetWeapon@@V?$allocator@UTargetInfo@ioRotateTargetWeapon@@@std@@@std@@@2@XZ ; std::vector<ioRotateTargetWeapon::TargetInfo,std::allocator<ioRotateTargetWeapon::TargetInfo> >::begin
; Function compile flags: /Ogsp
;	COMDAT ?begin@?$vector@UTargetInfo@ioRotateTargetWeapon@@V?$allocator@UTargetInfo@ioRotateTargetWeapon@@@std@@@std@@QAE?AV?$_Vector_iterator@V?$_Vector_val@UTargetInfo@ioRotateTargetWeapon@@V?$allocator@UTargetInfo@ioRotateTargetWeapon@@@std@@@std@@@2@XZ
_TEXT	SEGMENT
___$ReturnUdt$ = 8					; size = 4
?begin@?$vector@UTargetInfo@ioRotateTargetWeapon@@V?$allocator@UTargetInfo@ioRotateTargetWeapon@@@std@@@std@@QAE?AV?$_Vector_iterator@V?$_Vector_val@UTargetInfo@ioRotateTargetWeapon@@V?$allocator@UTargetInfo@ioRotateTargetWeapon@@@std@@@std@@@2@XZ PROC ; std::vector<ioRotateTargetWeapon::TargetInfo,std::allocator<ioRotateTargetWeapon::TargetInfo> >::begin, COMDAT
; _this$ = ecx

; 781  : 		{	// return iterator for beginning of mutable sequence

  00000	55		 push	 ebp
  00001	8b ec		 mov	 ebp, esp

; 782  : 		return (iterator(this->_Myfirst, this));

  00003	8b 09		 mov	 ecx, DWORD PTR [ecx]
  00005	8b 45 08	 mov	 eax, DWORD PTR ___$ReturnUdt$[ebp]
  00008	89 08		 mov	 DWORD PTR [eax], ecx

; 783  : 		}

  0000a	5d		 pop	 ebp
  0000b	c2 04 00	 ret	 4
?begin@?$vector@UTargetInfo@ioRotateTargetWeapon@@V?$allocator@UTargetInfo@ioRotateTargetWeapon@@@std@@@std@@QAE?AV?$_Vector_iterator@V?$_Vector_val@UTargetInfo@ioRotateTargetWeapon@@V?$allocator@UTargetInfo@ioRotateTargetWeapon@@@std@@@std@@@2@XZ ENDP ; std::vector<ioRotateTargetWeapon::TargetInfo,std::allocator<ioRotateTargetWeapon::TargetInfo> >::begin
_TEXT	ENDS
PUBLIC	?end@?$vector@UTargetInfo@ioRotateTargetWeapon@@V?$allocator@UTargetInfo@ioRotateTargetWeapon@@@std@@@std@@QAE?AV?$_Vector_iterator@V?$_Vector_val@UTargetInfo@ioRotateTargetWeapon@@V?$allocator@UTargetInfo@ioRotateTargetWeapon@@@std@@@std@@@2@XZ ; std::vector<ioRotateTargetWeapon::TargetInfo,std::allocator<ioRotateTargetWeapon::TargetInfo> >::end
; Function compile flags: /Ogsp
;	COMDAT ?end@?$vector@UTargetInfo@ioRotateTargetWeapon@@V?$allocator@UTargetInfo@ioRotateTargetWeapon@@@std@@@std@@QAE?AV?$_Vector_iterator@V?$_Vector_val@UTargetInfo@ioRotateTargetWeapon@@V?$allocator@UTargetInfo@ioRotateTargetWeapon@@@std@@@std@@@2@XZ
_TEXT	SEGMENT
___$ReturnUdt$ = 8					; size = 4
?end@?$vector@UTargetInfo@ioRotateTargetWeapon@@V?$allocator@UTargetInfo@ioRotateTargetWeapon@@@std@@@std@@QAE?AV?$_Vector_iterator@V?$_Vector_val@UTargetInfo@ioRotateTargetWeapon@@V?$allocator@UTargetInfo@ioRotateTargetWeapon@@@std@@@std@@@2@XZ PROC ; std::vector<ioRotateTargetWeapon::TargetInfo,std::allocator<ioRotateTargetWeapon::TargetInfo> >::end, COMDAT
; _this$ = ecx

; 791  : 		{	// return iterator for end of mutable sequence

  00000	55		 push	 ebp
  00001	8b ec		 mov	 ebp, esp

; 792  : 		return (iterator(this->_Mylast, this));

  00003	8b 49 04	 mov	 ecx, DWORD PTR [ecx+4]
  00006	8b 45 08	 mov	 eax, DWORD PTR ___$ReturnUdt$[ebp]
  00009	89 08		 mov	 DWORD PTR [eax], ecx

; 793  : 		}

  0000b	5d		 pop	 ebp
  0000c	c2 04 00	 ret	 4
?end@?$vector@UTargetInfo@ioRotateTargetWeapon@@V?$allocator@UTargetInfo@ioRotateTargetWeapon@@@std@@@std@@QAE?AV?$_Vector_iterator@V?$_Vector_val@UTargetInfo@ioRotateTargetWeapon@@V?$allocator@UTargetInfo@ioRotateTargetWeapon@@@std@@@std@@@2@XZ ENDP ; std::vector<ioRotateTargetWeapon::TargetInfo,std::allocator<ioRotateTargetWeapon::TargetInfo> >::end
_TEXT	ENDS
PUBLIC	??9?$_Vector_const_iterator@V?$_Vector_val@UTargetInfo@ioRotateTargetWeapon@@V?$allocator@UTargetInfo@ioRotateTargetWeapon@@@std@@@std@@@std@@QBE_NABV01@@Z ; std::_Vector_const_iterator<std::_Vector_val<ioRotateTargetWeapon::TargetInfo,std::allocator<ioRotateTargetWeapon::TargetInfo> > >::operator!=
; Function compile flags: /Ogsp
;	COMDAT ??9?$_Vector_const_iterator@V?$_Vector_val@UTargetInfo@ioRotateTargetWeapon@@V?$allocator@UTargetInfo@ioRotateTargetWeapon@@@std@@@std@@@std@@QBE_NABV01@@Z
_TEXT	SEGMENT
__Right$ = 8						; size = 4
??9?$_Vector_const_iterator@V?$_Vector_val@UTargetInfo@ioRotateTargetWeapon@@V?$allocator@UTargetInfo@ioRotateTargetWeapon@@@std@@@std@@@std@@QBE_NABV01@@Z PROC ; std::_Vector_const_iterator<std::_Vector_val<ioRotateTargetWeapon::TargetInfo,std::allocator<ioRotateTargetWeapon::TargetInfo> > >::operator!=, COMDAT
; _this$ = ecx

; 207  : 		{	// test for iterator inequality

  00000	55		 push	 ebp
  00001	8b ec		 mov	 ebp, esp

; 208  : 		return (!(*this == _Right));

  00003	8b 01		 mov	 eax, DWORD PTR [ecx]
  00005	8b 55 08	 mov	 edx, DWORD PTR __Right$[ebp]
  00008	33 c9		 xor	 ecx, ecx
  0000a	3b 02		 cmp	 eax, DWORD PTR [edx]
  0000c	0f 95 c0	 setne	 al

; 209  : 		}

  0000f	5d		 pop	 ebp
  00010	c2 04 00	 ret	 4
??9?$_Vector_const_iterator@V?$_Vector_val@UTargetInfo@ioRotateTargetWeapon@@V?$allocator@UTargetInfo@ioRotateTargetWeapon@@@std@@@std@@@std@@QBE_NABV01@@Z ENDP ; std::_Vector_const_iterator<std::_Vector_val<ioRotateTargetWeapon::TargetInfo,std::allocator<ioRotateTargetWeapon::TargetInfo> > >::operator!=
_TEXT	ENDS
PUBLIC	?_Make_iter@?$vector@UTargetInfo@ioRotateTargetWeapon@@V?$allocator@UTargetInfo@ioRotateTargetWeapon@@@std@@@std@@QBE?AV?$_Vector_iterator@V?$_Vector_val@UTargetInfo@ioRotateTargetWeapon@@V?$allocator@UTargetInfo@ioRotateTargetWeapon@@@std@@@std@@@2@V?$_Vector_const_iterator@V?$_Vector_val@UTargetInfo@ioRotateTargetWeapon@@V?$allocator@UTargetInfo@ioRotateTargetWeapon@@@std@@@std@@@2@@Z ; std::vector<ioRotateTargetWeapon::TargetInfo,std::allocator<ioRotateTargetWeapon::TargetInfo> >::_Make_iter
; Function compile flags: /Ogsp
;	COMDAT ?_Make_iter@?$vector@UTargetInfo@ioRotateTargetWeapon@@V?$allocator@UTargetInfo@ioRotateTargetWeapon@@@std@@@std@@QBE?AV?$_Vector_iterator@V?$_Vector_val@UTargetInfo@ioRotateTargetWeapon@@V?$allocator@UTargetInfo@ioRotateTargetWeapon@@@std@@@std@@@2@V?$_Vector_const_iterator@V?$_Vector_val@UTargetInfo@ioRotateTargetWeapon@@V?$allocator@UTargetInfo@ioRotateTargetWeapon@@@std@@@std@@@2@@Z
_TEXT	SEGMENT
___$ReturnUdt$ = 8					; size = 4
__Where$ = 12						; size = 4
?_Make_iter@?$vector@UTargetInfo@ioRotateTargetWeapon@@V?$allocator@UTargetInfo@ioRotateTargetWeapon@@@std@@@std@@QBE?AV?$_Vector_iterator@V?$_Vector_val@UTargetInfo@ioRotateTargetWeapon@@V?$allocator@UTargetInfo@ioRotateTargetWeapon@@@std@@@std@@@2@V?$_Vector_const_iterator@V?$_Vector_val@UTargetInfo@ioRotateTargetWeapon@@V?$allocator@UTargetInfo@ioRotateTargetWeapon@@@std@@@std@@@2@@Z PROC ; std::vector<ioRotateTargetWeapon::TargetInfo,std::allocator<ioRotateTargetWeapon::TargetInfo> >::_Make_iter, COMDAT
; _this$ = ecx

; 801  : 		{	// make iterator from const_iterator

  00000	55		 push	 ebp
  00001	8b ec		 mov	 ebp, esp

; 802  : 		return (iterator(_Where._Ptr, this));

  00003	8b 45 08	 mov	 eax, DWORD PTR ___$ReturnUdt$[ebp]
  00006	8b 4d 0c	 mov	 ecx, DWORD PTR __Where$[ebp]
  00009	89 08		 mov	 DWORD PTR [eax], ecx

; 803  : 		}

  0000b	5d		 pop	 ebp
  0000c	c2 08 00	 ret	 8
?_Make_iter@?$vector@UTargetInfo@ioRotateTargetWeapon@@V?$allocator@UTargetInfo@ioRotateTargetWeapon@@@std@@@std@@QBE?AV?$_Vector_iterator@V?$_Vector_val@UTargetInfo@ioRotateTargetWeapon@@V?$allocator@UTargetInfo@ioRotateTargetWeapon@@@std@@@std@@@2@V?$_Vector_const_iterator@V?$_Vector_val@UTargetInfo@ioRotateTargetWeapon@@V?$allocator@UTargetInfo@ioRotateTargetWeapon@@@std@@@std@@@2@@Z ENDP ; std::vector<ioRotateTargetWeapon::TargetInfo,std::allocator<ioRotateTargetWeapon::TargetInfo> >::_Make_iter
_TEXT	ENDS
PUBLIC	?_Grow_to@?$vector@VioHashString@@V?$allocator@VioHashString@@@std@@@std@@IBEII@Z ; std::vector<ioHashString,std::allocator<ioHashString> >::_Grow_to
; Function compile flags: /Ogsp
;	COMDAT ?_Grow_to@?$vector@VioHashString@@V?$allocator@VioHashString@@@std@@@std@@IBEII@Z
_TEXT	SEGMENT
__Count$ = 8						; size = 4
?_Grow_to@?$vector@VioHashString@@V?$allocator@VioHashString@@@std@@@std@@IBEII@Z PROC ; std::vector<ioHashString,std::allocator<ioHashString> >::_Grow_to, COMDAT
; _this$ = ecx

; 1274 : 		{	// grow by 50% or at least to _Count

  00000	55		 push	 ebp
  00001	8b ec		 mov	 ebp, esp

; 1275 : 		size_type _Capacity = capacity();

  00003	8b 41 08	 mov	 eax, DWORD PTR [ecx+8]
  00006	2b 01		 sub	 eax, DWORD PTR [ecx]

; 1276 : 
; 1277 : 		_Capacity = max_size() - _Capacity / 2 < _Capacity
; 1278 : 			? 0 : _Capacity + _Capacity / 2;	// try to grow by 50%

  00008	ba ff ff ff 0f	 mov	 edx, 268435455		; 0fffffffH
  0000d	c1 f8 04	 sar	 eax, 4
  00010	8b c8		 mov	 ecx, eax
  00012	d1 e9		 shr	 ecx, 1
  00014	2b d1		 sub	 edx, ecx
  00016	3b d0		 cmp	 edx, eax
  00018	73 04		 jae	 SHORT $LN4@Grow_to@2
  0001a	33 c0		 xor	 eax, eax
  0001c	eb 02		 jmp	 SHORT $LN5@Grow_to@2
$LN4@Grow_to@2:
  0001e	03 c1		 add	 eax, ecx
$LN5@Grow_to@2:

; 1279 : 		if (_Capacity < _Count)

  00020	3b 45 08	 cmp	 eax, DWORD PTR __Count$[ebp]

; 1280 : 			_Capacity = _Count;

  00023	0f 42 45 08	 cmovb	 eax, DWORD PTR __Count$[ebp]

; 1281 : 		return (_Capacity);
; 1282 : 		}

  00027	5d		 pop	 ebp
  00028	c2 04 00	 ret	 4
?_Grow_to@?$vector@VioHashString@@V?$allocator@VioHashString@@@std@@@std@@IBEII@Z ENDP ; std::vector<ioHashString,std::allocator<ioHashString> >::_Grow_to
_TEXT	ENDS
PUBLIC	??$_Cons_val@V?$allocator@VioHashString@@@std@@VioHashString@@AAV3@@std@@YAXAAV?$allocator@VioHashString@@@0@PAVioHashString@@AAV2@@Z ; std::_Cons_val<std::allocator<ioHashString>,ioHashString,ioHashString &>
; Function compile flags: /Ogsp
; File c:\program files (x86)\microsoft visual studio 10.0\vc\include\xmemory
;	COMDAT ??$_Cons_val@V?$allocator@VioHashString@@@std@@VioHashString@@AAV3@@std@@YAXAAV?$allocator@VioHashString@@@0@PAVioHashString@@AAV2@@Z
_TEXT	SEGMENT
__Alval$ = 8						; size = 4
__Pdest$ = 12						; size = 4
__Src$ = 16						; size = 4
??$_Cons_val@V?$allocator@VioHashString@@@std@@VioHashString@@AAV3@@std@@YAXAAV?$allocator@VioHashString@@@0@PAVioHashString@@AAV2@@Z PROC ; std::_Cons_val<std::allocator<ioHashString>,ioHashString,ioHashString &>, COMDAT

; 279  : 	{	// construct using allocator

  00000	55		 push	 ebp
  00001	8b ec		 mov	 ebp, esp

; 280  : 	_Alval.construct(_Pdest, _STD forward<_Ty2>(_Src));

  00003	ff 75 10	 push	 DWORD PTR __Src$[ebp]
  00006	8b 4d 08	 mov	 ecx, DWORD PTR __Alval$[ebp]
  00009	ff 75 0c	 push	 DWORD PTR __Pdest$[ebp]
  0000c	e8 00 00 00 00	 call	 ??$construct@AAVioHashString@@@?$allocator@VioHashString@@@std@@QAEXPAVioHashString@@AAV2@@Z ; std::allocator<ioHashString>::construct<ioHashString &>

; 281  : 	}

  00011	5d		 pop	 ebp
  00012	c3		 ret	 0
??$_Cons_val@V?$allocator@VioHashString@@@std@@VioHashString@@AAV3@@std@@YAXAAV?$allocator@VioHashString@@@0@PAVioHashString@@AAV2@@Z ENDP ; std::_Cons_val<std::allocator<ioHashString>,ioHashString,ioHashString &>
_TEXT	ENDS
PUBLIC	??$_Cons_val@V?$allocator@UTargetInfo@ioRotateTargetWeapon@@@std@@UTargetInfo@ioRotateTargetWeapon@@ABU34@@std@@YAXAAV?$allocator@UTargetInfo@ioRotateTargetWeapon@@@0@PAUTargetInfo@ioRotateTargetWeapon@@ABU23@@Z ; std::_Cons_val<std::allocator<ioRotateTargetWeapon::TargetInfo>,ioRotateTargetWeapon::TargetInfo,ioRotateTargetWeapon::TargetInfo const &>
; Function compile flags: /Ogsp
;	COMDAT ??$_Cons_val@V?$allocator@UTargetInfo@ioRotateTargetWeapon@@@std@@UTargetInfo@ioRotateTargetWeapon@@ABU34@@std@@YAXAAV?$allocator@UTargetInfo@ioRotateTargetWeapon@@@0@PAUTargetInfo@ioRotateTargetWeapon@@ABU23@@Z
_TEXT	SEGMENT
__Alval$ = 8						; size = 4
__Pdest$ = 12						; size = 4
__Src$ = 16						; size = 4
??$_Cons_val@V?$allocator@UTargetInfo@ioRotateTargetWeapon@@@std@@UTargetInfo@ioRotateTargetWeapon@@ABU34@@std@@YAXAAV?$allocator@UTargetInfo@ioRotateTargetWeapon@@@0@PAUTargetInfo@ioRotateTargetWeapon@@ABU23@@Z PROC ; std::_Cons_val<std::allocator<ioRotateTargetWeapon::TargetInfo>,ioRotateTargetWeapon::TargetInfo,ioRotateTargetWeapon::TargetInfo const &>, COMDAT

; 279  : 	{	// construct using allocator

  00000	55		 push	 ebp
  00001	8b ec		 mov	 ebp, esp

; 280  : 	_Alval.construct(_Pdest, _STD forward<_Ty2>(_Src));

  00003	ff 75 10	 push	 DWORD PTR __Src$[ebp]
  00006	ff 75 0c	 push	 DWORD PTR __Pdest$[ebp]
  00009	e8 00 00 00 00	 call	 ??$_Construct@UTargetInfo@ioRotateTargetWeapon@@ABU12@@std@@YAXPAUTargetInfo@ioRotateTargetWeapon@@ABU12@@Z ; std::_Construct<ioRotateTargetWeapon::TargetInfo,ioRotateTargetWeapon::TargetInfo const &>
  0000e	59		 pop	 ecx
  0000f	59		 pop	 ecx

; 281  : 	}

  00010	5d		 pop	 ebp
  00011	c3		 ret	 0
??$_Cons_val@V?$allocator@UTargetInfo@ioRotateTargetWeapon@@@std@@UTargetInfo@ioRotateTargetWeapon@@ABU34@@std@@YAXAAV?$allocator@UTargetInfo@ioRotateTargetWeapon@@@0@PAUTargetInfo@ioRotateTargetWeapon@@ABU23@@Z ENDP ; std::_Cons_val<std::allocator<ioRotateTargetWeapon::TargetInfo>,ioRotateTargetWeapon::TargetInfo,ioRotateTargetWeapon::TargetInfo const &>
_TEXT	ENDS
PUBLIC	??$_Move@PAUTargetInfo@ioRotateTargetWeapon@@PAU12@@std@@YAPAUTargetInfo@ioRotateTargetWeapon@@PAU12@00@Z ; std::_Move<ioRotateTargetWeapon::TargetInfo *,ioRotateTargetWeapon::TargetInfo *>
; Function compile flags: /Ogsp
; File c:\program files (x86)\microsoft visual studio 10.0\vc\include\xutility
;	COMDAT ??$_Move@PAUTargetInfo@ioRotateTargetWeapon@@PAU12@@std@@YAPAUTargetInfo@ioRotateTargetWeapon@@PAU12@00@Z
_TEXT	SEGMENT
__Cat$534880 = -4					; size = 1
__First$ = 8						; size = 4
__Last$ = 12						; size = 4
__Dest$ = 16						; size = 4
??$_Move@PAUTargetInfo@ioRotateTargetWeapon@@PAU12@@std@@YAPAUTargetInfo@ioRotateTargetWeapon@@PAU12@00@Z PROC ; std::_Move<ioRotateTargetWeapon::TargetInfo *,ioRotateTargetWeapon::TargetInfo *>, COMDAT

; 2533 : 	{	// move [_First, _Last) to [_Dest, ...), unchecked

  00000	55		 push	 ebp
  00001	8b ec		 mov	 ebp, esp
  00003	51		 push	 ecx

; 2534 : 	return (_Move(_First, _Last,
; 2535 : 		_Dest, _Ptr_cat(_First, _Dest)));

  00004	ff 75 fc	 push	 DWORD PTR __Cat$534880[ebp]
  00007	ff 75 10	 push	 DWORD PTR __Dest$[ebp]
  0000a	ff 75 0c	 push	 DWORD PTR __Last$[ebp]
  0000d	ff 75 08	 push	 DWORD PTR __First$[ebp]
  00010	e8 00 00 00 00	 call	 ??$_Move@PAUTargetInfo@ioRotateTargetWeapon@@PAU12@@std@@YAPAUTargetInfo@ioRotateTargetWeapon@@PAU12@00U_Nonscalar_ptr_iterator_tag@0@@Z ; std::_Move<ioRotateTargetWeapon::TargetInfo *,ioRotateTargetWeapon::TargetInfo *>
  00015	83 c4 10	 add	 esp, 16			; 00000010H

; 2536 : 	}

  00018	c9		 leave
  00019	c3		 ret	 0
??$_Move@PAUTargetInfo@ioRotateTargetWeapon@@PAU12@@std@@YAPAUTargetInfo@ioRotateTargetWeapon@@PAU12@00@Z ENDP ; std::_Move<ioRotateTargetWeapon::TargetInfo *,ioRotateTargetWeapon::TargetInfo *>
_TEXT	ENDS
PUBLIC	?destroy@?$allocator@UTargetInfo@ioRotateTargetWeapon@@@std@@QAEXPAUTargetInfo@ioRotateTargetWeapon@@@Z ; std::allocator<ioRotateTargetWeapon::TargetInfo>::destroy
; Function compile flags: /Ogsp
; File c:\program files (x86)\microsoft visual studio 10.0\vc\include\xmemory
;	COMDAT ?destroy@?$allocator@UTargetInfo@ioRotateTargetWeapon@@@std@@QAEXPAUTargetInfo@ioRotateTargetWeapon@@@Z
_TEXT	SEGMENT
__Ptr$ = 8						; size = 4
?destroy@?$allocator@UTargetInfo@ioRotateTargetWeapon@@@std@@QAEXPAUTargetInfo@ioRotateTargetWeapon@@@Z PROC ; std::allocator<ioRotateTargetWeapon::TargetInfo>::destroy, COMDAT
; _this$ = ecx

; 212  : 		{	// destroy object at _Ptr

  00000	55		 push	 ebp
  00001	8b ec		 mov	 ebp, esp

; 213  : 		_Destroy(_Ptr);

  00003	8b 4d 08	 mov	 ecx, DWORD PTR __Ptr$[ebp]
  00006	ff 15 00 00 00
	00		 call	 DWORD PTR __imp_??1ioHashString@@QAE@XZ

; 214  : 		}

  0000c	5d		 pop	 ebp
  0000d	c2 04 00	 ret	 4
?destroy@?$allocator@UTargetInfo@ioRotateTargetWeapon@@@std@@QAEXPAUTargetInfo@ioRotateTargetWeapon@@@Z ENDP ; std::allocator<ioRotateTargetWeapon::TargetInfo>::destroy
_TEXT	ENDS
PUBLIC	??$_Cons_val@V?$allocator@VioHashString@@@std@@VioHashString@@V3@@std@@YAXAAV?$allocator@VioHashString@@@0@PAVioHashString@@$$QAV2@@Z ; std::_Cons_val<std::allocator<ioHashString>,ioHashString,ioHashString>
; Function compile flags: /Ogsp
;	COMDAT ??$_Cons_val@V?$allocator@VioHashString@@@std@@VioHashString@@V3@@std@@YAXAAV?$allocator@VioHashString@@@0@PAVioHashString@@$$QAV2@@Z
_TEXT	SEGMENT
__Alval$ = 8						; size = 4
__Pdest$ = 12						; size = 4
__Src$ = 16						; size = 4
??$_Cons_val@V?$allocator@VioHashString@@@std@@VioHashString@@V3@@std@@YAXAAV?$allocator@VioHashString@@@0@PAVioHashString@@$$QAV2@@Z PROC ; std::_Cons_val<std::allocator<ioHashString>,ioHashString,ioHashString>, COMDAT

; 279  : 	{	// construct using allocator

  00000	55		 push	 ebp
  00001	8b ec		 mov	 ebp, esp

; 280  : 	_Alval.construct(_Pdest, _STD forward<_Ty2>(_Src));

  00003	ff 75 10	 push	 DWORD PTR __Src$[ebp]
  00006	8b 4d 08	 mov	 ecx, DWORD PTR __Alval$[ebp]
  00009	ff 75 0c	 push	 DWORD PTR __Pdest$[ebp]
  0000c	e8 00 00 00 00	 call	 ?construct@?$allocator@VioHashString@@@std@@QAEXPAVioHashString@@$$QAV3@@Z ; std::allocator<ioHashString>::construct

; 281  : 	}

  00011	5d		 pop	 ebp
  00012	c3		 ret	 0
??$_Cons_val@V?$allocator@VioHashString@@@std@@VioHashString@@V3@@std@@YAXAAV?$allocator@VioHashString@@@0@PAVioHashString@@$$QAV2@@Z ENDP ; std::_Cons_val<std::allocator<ioHashString>,ioHashString,ioHashString>
_TEXT	ENDS
PUBLIC	??$_Cons_val@V?$allocator@UTargetInfo@ioRotateTargetWeapon@@@std@@UTargetInfo@ioRotateTargetWeapon@@U34@@std@@YAXAAV?$allocator@UTargetInfo@ioRotateTargetWeapon@@@0@PAUTargetInfo@ioRotateTargetWeapon@@$$QAU23@@Z ; std::_Cons_val<std::allocator<ioRotateTargetWeapon::TargetInfo>,ioRotateTargetWeapon::TargetInfo,ioRotateTargetWeapon::TargetInfo>
; Function compile flags: /Ogsp
;	COMDAT ??$_Cons_val@V?$allocator@UTargetInfo@ioRotateTargetWeapon@@@std@@UTargetInfo@ioRotateTargetWeapon@@U34@@std@@YAXAAV?$allocator@UTargetInfo@ioRotateTargetWeapon@@@0@PAUTargetInfo@ioRotateTargetWeapon@@$$QAU23@@Z
_TEXT	SEGMENT
__Alval$ = 8						; size = 4
__Pdest$ = 12						; size = 4
__Src$ = 16						; size = 4
??$_Cons_val@V?$allocator@UTargetInfo@ioRotateTargetWeapon@@@std@@UTargetInfo@ioRotateTargetWeapon@@U34@@std@@YAXAAV?$allocator@UTargetInfo@ioRotateTargetWeapon@@@0@PAUTargetInfo@ioRotateTargetWeapon@@$$QAU23@@Z PROC ; std::_Cons_val<std::allocator<ioRotateTargetWeapon::TargetInfo>,ioRotateTargetWeapon::TargetInfo,ioRotateTargetWeapon::TargetInfo>, COMDAT

; 279  : 	{	// construct using allocator

  00000	55		 push	 ebp
  00001	8b ec		 mov	 ebp, esp

; 280  : 	_Alval.construct(_Pdest, _STD forward<_Ty2>(_Src));

  00003	ff 75 10	 push	 DWORD PTR __Src$[ebp]
  00006	8b 4d 08	 mov	 ecx, DWORD PTR __Alval$[ebp]
  00009	ff 75 0c	 push	 DWORD PTR __Pdest$[ebp]
  0000c	e8 00 00 00 00	 call	 ?construct@?$allocator@UTargetInfo@ioRotateTargetWeapon@@@std@@QAEXPAUTargetInfo@ioRotateTargetWeapon@@$$QAU34@@Z ; std::allocator<ioRotateTargetWeapon::TargetInfo>::construct

; 281  : 	}

  00011	5d		 pop	 ebp
  00012	c3		 ret	 0
??$_Cons_val@V?$allocator@UTargetInfo@ioRotateTargetWeapon@@@std@@UTargetInfo@ioRotateTargetWeapon@@U34@@std@@YAXAAV?$allocator@UTargetInfo@ioRotateTargetWeapon@@@0@PAUTargetInfo@ioRotateTargetWeapon@@$$QAU23@@Z ENDP ; std::_Cons_val<std::allocator<ioRotateTargetWeapon::TargetInfo>,ioRotateTargetWeapon::TargetInfo,ioRotateTargetWeapon::TargetInfo>
_TEXT	ENDS
PUBLIC	?IsIgnoreProtect@ioWeapon@@QBEHXZ		; ioWeapon::IsIgnoreProtect
; Function compile flags: /Ogsp
; File d:\lost saga for developer\youtube\tutorial\source\src\lsclient\ioweapon.h
;	COMDAT ?IsIgnoreProtect@ioWeapon@@QBEHXZ
_TEXT	SEGMENT
_value$534916 = -4					; size = 4
?IsIgnoreProtect@ioWeapon@@QBEHXZ PROC			; ioWeapon::IsIgnoreProtect, COMDAT
; _this$ = ecx

; 548  : 	inline int IsIgnoreProtect() const { return m_iIgnoreProtect; }

  00000	55		 push	 ebp
  00001	8b ec		 mov	 ebp, esp
  00003	51		 push	 ecx
  00004	8d 45 fc	 lea	 eax, DWORD PTR _value$534916[ebp]
  00007	50		 push	 eax
  00008	81 c1 0c 06 00
	00		 add	 ecx, 1548		; 0000060cH
  0000e	e8 00 00 00 00	 call	 ?DecryptValueToPool@?$CEncrypt@H@@QAEXPAH@Z ; CEncrypt<int>::DecryptValueToPool
  00013	8b 45 fc	 mov	 eax, DWORD PTR _value$534916[ebp]
  00016	c9		 leave
  00017	c3		 ret	 0
?IsIgnoreProtect@ioWeapon@@QBEHXZ ENDP			; ioWeapon::IsIgnoreProtect
_TEXT	ENDS
PUBLIC	??0?$vector@VioHashString@@V?$allocator@VioHashString@@@std@@@std@@QAE@XZ ; std::vector<ioHashString,std::allocator<ioHashString> >::vector<ioHashString,std::allocator<ioHashString> >
; Function compile flags: /Ogsp
; File c:\program files (x86)\microsoft visual studio 10.0\vc\include\vector
;	COMDAT ??0?$vector@VioHashString@@V?$allocator@VioHashString@@@std@@@std@@QAE@XZ
_TEXT	SEGMENT
??0?$vector@VioHashString@@V?$allocator@VioHashString@@@std@@@std@@QAE@XZ PROC ; std::vector<ioHashString,std::allocator<ioHashString> >::vector<ioHashString,std::allocator<ioHashString> >, COMDAT
; _this$ = ecx

; 507  : 		{	// construct empty vector

  00000	8b c1		 mov	 eax, ecx
  00002	33 c9		 xor	 ecx, ecx
  00004	89 08		 mov	 DWORD PTR [eax], ecx
  00006	89 48 04	 mov	 DWORD PTR [eax+4], ecx
  00009	89 48 08	 mov	 DWORD PTR [eax+8], ecx

; 508  : 		}

  0000c	c3		 ret	 0
??0?$vector@VioHashString@@V?$allocator@VioHashString@@@std@@@std@@QAE@XZ ENDP ; std::vector<ioHashString,std::allocator<ioHashString> >::vector<ioHashString,std::allocator<ioHashString> >
_TEXT	ENDS
PUBLIC	??9?$_Vector_const_iterator@V?$_Vector_val@VioHashString@@V?$allocator@VioHashString@@@std@@@std@@@std@@QBE_NABV01@@Z ; std::_Vector_const_iterator<std::_Vector_val<ioHashString,std::allocator<ioHashString> > >::operator!=
; Function compile flags: /Ogsp
;	COMDAT ??9?$_Vector_const_iterator@V?$_Vector_val@VioHashString@@V?$allocator@VioHashString@@@std@@@std@@@std@@QBE_NABV01@@Z
_TEXT	SEGMENT
__Right$ = 8						; size = 4
??9?$_Vector_const_iterator@V?$_Vector_val@VioHashString@@V?$allocator@VioHashString@@@std@@@std@@@std@@QBE_NABV01@@Z PROC ; std::_Vector_const_iterator<std::_Vector_val<ioHashString,std::allocator<ioHashString> > >::operator!=, COMDAT
; _this$ = ecx

; 207  : 		{	// test for iterator inequality

  00000	55		 push	 ebp
  00001	8b ec		 mov	 ebp, esp

; 208  : 		return (!(*this == _Right));

  00003	8b 01		 mov	 eax, DWORD PTR [ecx]
  00005	8b 55 08	 mov	 edx, DWORD PTR __Right$[ebp]
  00008	33 c9		 xor	 ecx, ecx
  0000a	3b 02		 cmp	 eax, DWORD PTR [edx]
  0000c	0f 95 c0	 setne	 al

; 209  : 		}

  0000f	5d		 pop	 ebp
  00010	c2 04 00	 ret	 4
??9?$_Vector_const_iterator@V?$_Vector_val@VioHashString@@V?$allocator@VioHashString@@@std@@@std@@@std@@QBE_NABV01@@Z ENDP ; std::_Vector_const_iterator<std::_Vector_val<ioHashString,std::allocator<ioHashString> > >::operator!=
_TEXT	ENDS
PUBLIC	??$_Move@PAVioHashString@@PAV1@@std@@YAPAVioHashString@@PAV1@00@Z ; std::_Move<ioHashString *,ioHashString *>
; Function compile flags: /Ogsp
; File c:\program files (x86)\microsoft visual studio 10.0\vc\include\xutility
;	COMDAT ??$_Move@PAVioHashString@@PAV1@@std@@YAPAVioHashString@@PAV1@00@Z
_TEXT	SEGMENT
__Cat$534950 = -4					; size = 1
__First$ = 8						; size = 4
__Last$ = 12						; size = 4
__Dest$ = 16						; size = 4
??$_Move@PAVioHashString@@PAV1@@std@@YAPAVioHashString@@PAV1@00@Z PROC ; std::_Move<ioHashString *,ioHashString *>, COMDAT

; 2533 : 	{	// move [_First, _Last) to [_Dest, ...), unchecked

  00000	55		 push	 ebp
  00001	8b ec		 mov	 ebp, esp
  00003	51		 push	 ecx

; 2534 : 	return (_Move(_First, _Last,
; 2535 : 		_Dest, _Ptr_cat(_First, _Dest)));

  00004	ff 75 fc	 push	 DWORD PTR __Cat$534950[ebp]
  00007	ff 75 10	 push	 DWORD PTR __Dest$[ebp]
  0000a	ff 75 0c	 push	 DWORD PTR __Last$[ebp]
  0000d	ff 75 08	 push	 DWORD PTR __First$[ebp]
  00010	e8 00 00 00 00	 call	 ??$_Move@PAVioHashString@@PAV1@@std@@YAPAVioHashString@@PAV1@00U_Nonscalar_ptr_iterator_tag@0@@Z ; std::_Move<ioHashString *,ioHashString *>
  00015	83 c4 10	 add	 esp, 16			; 00000010H

; 2536 : 	}

  00018	c9		 leave
  00019	c3		 ret	 0
??$_Move@PAVioHashString@@PAV1@@std@@YAPAVioHashString@@PAV1@00@Z ENDP ; std::_Move<ioHashString *,ioHashString *>
_TEXT	ENDS
PUBLIC	?destroy@?$allocator@VioHashString@@@std@@QAEXPAVioHashString@@@Z ; std::allocator<ioHashString>::destroy
; Function compile flags: /Ogsp
; File c:\program files (x86)\microsoft visual studio 10.0\vc\include\xmemory
;	COMDAT ?destroy@?$allocator@VioHashString@@@std@@QAEXPAVioHashString@@@Z
_TEXT	SEGMENT
__Ptr$ = 8						; size = 4
?destroy@?$allocator@VioHashString@@@std@@QAEXPAVioHashString@@@Z PROC ; std::allocator<ioHashString>::destroy, COMDAT
; _this$ = ecx

; 212  : 		{	// destroy object at _Ptr

  00000	55		 push	 ebp
  00001	8b ec		 mov	 ebp, esp

; 213  : 		_Destroy(_Ptr);

  00003	8b 4d 08	 mov	 ecx, DWORD PTR __Ptr$[ebp]
  00006	ff 15 00 00 00
	00		 call	 DWORD PTR __imp_??1ioHashString@@QAE@XZ

; 214  : 		}

  0000c	5d		 pop	 ebp
  0000d	c2 04 00	 ret	 4
?destroy@?$allocator@VioHashString@@@std@@QAEXPAVioHashString@@@Z ENDP ; std::allocator<ioHashString>::destroy
_TEXT	ENDS
PUBLIC	??$_Cons_val@V?$allocator@VioHashString@@@std@@VioHashString@@ABV3@@std@@YAXAAV?$allocator@VioHashString@@@0@PAVioHashString@@ABV2@@Z ; std::_Cons_val<std::allocator<ioHashString>,ioHashString,ioHashString const &>
; Function compile flags: /Ogsp
;	COMDAT ??$_Cons_val@V?$allocator@VioHashString@@@std@@VioHashString@@ABV3@@std@@YAXAAV?$allocator@VioHashString@@@0@PAVioHashString@@ABV2@@Z
_TEXT	SEGMENT
__Alval$ = 8						; size = 4
__Pdest$ = 12						; size = 4
__Src$ = 16						; size = 4
??$_Cons_val@V?$allocator@VioHashString@@@std@@VioHashString@@ABV3@@std@@YAXAAV?$allocator@VioHashString@@@0@PAVioHashString@@ABV2@@Z PROC ; std::_Cons_val<std::allocator<ioHashString>,ioHashString,ioHashString const &>, COMDAT

; 279  : 	{	// construct using allocator

  00000	55		 push	 ebp
  00001	8b ec		 mov	 ebp, esp

; 280  : 	_Alval.construct(_Pdest, _STD forward<_Ty2>(_Src));

  00003	ff 75 10	 push	 DWORD PTR __Src$[ebp]
  00006	ff 75 0c	 push	 DWORD PTR __Pdest$[ebp]
  00009	e8 00 00 00 00	 call	 ??$_Construct@VioHashString@@ABV1@@std@@YAXPAVioHashString@@ABV1@@Z ; std::_Construct<ioHashString,ioHashString const &>
  0000e	59		 pop	 ecx
  0000f	59		 pop	 ecx

; 281  : 	}

  00010	5d		 pop	 ebp
  00011	c3		 ret	 0
??$_Cons_val@V?$allocator@VioHashString@@@std@@VioHashString@@ABV3@@std@@YAXAAV?$allocator@VioHashString@@@0@PAVioHashString@@ABV2@@Z ENDP ; std::_Cons_val<std::allocator<ioHashString>,ioHashString,ioHashString const &>
_TEXT	ENDS
PUBLIC	??$_Dest_val@V?$allocator@UTargetInfo@ioRotateTargetWeapon@@@std@@UTargetInfo@ioRotateTargetWeapon@@@std@@YAXAAV?$allocator@UTargetInfo@ioRotateTargetWeapon@@@0@PAUTargetInfo@ioRotateTargetWeapon@@@Z ; std::_Dest_val<std::allocator<ioRotateTargetWeapon::TargetInfo>,ioRotateTargetWeapon::TargetInfo>
; Function compile flags: /Ogsp
;	COMDAT ??$_Dest_val@V?$allocator@UTargetInfo@ioRotateTargetWeapon@@@std@@UTargetInfo@ioRotateTargetWeapon@@@std@@YAXAAV?$allocator@UTargetInfo@ioRotateTargetWeapon@@@0@PAUTargetInfo@ioRotateTargetWeapon@@@Z
_TEXT	SEGMENT
__Alval$ = 8						; size = 4
__Pdest$ = 12						; size = 4
??$_Dest_val@V?$allocator@UTargetInfo@ioRotateTargetWeapon@@@std@@UTargetInfo@ioRotateTargetWeapon@@@std@@YAXAAV?$allocator@UTargetInfo@ioRotateTargetWeapon@@@0@PAUTargetInfo@ioRotateTargetWeapon@@@Z PROC ; std::_Dest_val<std::allocator<ioRotateTargetWeapon::TargetInfo>,ioRotateTargetWeapon::TargetInfo>, COMDAT

; 286  : 	{	// destroy using allocator

  00000	55		 push	 ebp
  00001	8b ec		 mov	 ebp, esp

; 287  : 	_Alval.destroy(_Pdest);

  00003	8b 4d 0c	 mov	 ecx, DWORD PTR __Pdest$[ebp]

; 288  : 	}

  00006	5d		 pop	 ebp

; 287  : 	_Alval.destroy(_Pdest);

  00007	ff 25 00 00 00
	00		 jmp	 DWORD PTR __imp_??1ioHashString@@QAE@XZ
??$_Dest_val@V?$allocator@UTargetInfo@ioRotateTargetWeapon@@@std@@UTargetInfo@ioRotateTargetWeapon@@@std@@YAXAAV?$allocator@UTargetInfo@ioRotateTargetWeapon@@@0@PAUTargetInfo@ioRotateTargetWeapon@@@Z ENDP ; std::_Dest_val<std::allocator<ioRotateTargetWeapon::TargetInfo>,ioRotateTargetWeapon::TargetInfo>
_TEXT	ENDS
PUBLIC	??$_Uninit_move@PAUTargetInfo@ioRotateTargetWeapon@@PAU12@V?$allocator@UTargetInfo@ioRotateTargetWeapon@@@std@@U12@@std@@YAPAUTargetInfo@ioRotateTargetWeapon@@PAU12@00AAV?$allocator@UTargetInfo@ioRotateTargetWeapon@@@0@0U_Nonscalar_ptr_iterator_tag@0@@Z ; std::_Uninit_move<ioRotateTargetWeapon::TargetInfo *,ioRotateTargetWeapon::TargetInfo *,std::allocator<ioRotateTargetWeapon::TargetInfo>,ioRotateTargetWeapon::TargetInfo>
EXTRN	__EH_prolog3_catch:PROC
;	COMDAT xdata$x
; File d:\lost saga for developer\youtube\tutorial\source\src\lsclient\iorotatetargetweapon.cpp
xdata$x	SEGMENT
__catchsym$??$_Uninit_move@PAUTargetInfo@ioRotateTargetWeapon@@PAU12@V?$allocator@UTargetInfo@ioRotateTargetWeapon@@@std@@U12@@std@@YAPAUTargetInfo@ioRotateTargetWeapon@@PAU12@00AAV?$allocator@UTargetInfo@ioRotateTargetWeapon@@@0@0U_Nonscalar_ptr_iterator_tag@0@@Z$3 DD 040H
	DD	00H
	DD	00H
	DD	FLAT:__catch$??$_Uninit_move@PAUTargetInfo@ioRotateTargetWeapon@@PAU12@V?$allocator@UTargetInfo@ioRotateTargetWeapon@@@std@@U12@@std@@YAPAUTargetInfo@ioRotateTargetWeapon@@PAU12@00AAV?$allocator@UTargetInfo@ioRotateTargetWeapon@@@0@0U_Nonscalar_ptr_iterator_tag@0@@Z$0
__unwindtable$??$_Uninit_move@PAUTargetInfo@ioRotateTargetWeapon@@PAU12@V?$allocator@UTargetInfo@ioRotateTargetWeapon@@@std@@U12@@std@@YAPAUTargetInfo@ioRotateTargetWeapon@@PAU12@00AAV?$allocator@UTargetInfo@ioRotateTargetWeapon@@@0@0U_Nonscalar_ptr_iterator_tag@0@@Z DD 0ffffffffH
	DD	00H
	DD	0ffffffffH
	DD	00H
__tryblocktable$??$_Uninit_move@PAUTargetInfo@ioRotateTargetWeapon@@PAU12@V?$allocator@UTargetInfo@ioRotateTargetWeapon@@@std@@U12@@std@@YAPAUTargetInfo@ioRotateTargetWeapon@@PAU12@00AAV?$allocator@UTargetInfo@ioRotateTargetWeapon@@@0@0U_Nonscalar_ptr_iterator_tag@0@@Z DD 00H
	DD	00H
	DD	01H
	DD	01H
	DD	FLAT:__catchsym$??$_Uninit_move@PAUTargetInfo@ioRotateTargetWeapon@@PAU12@V?$allocator@UTargetInfo@ioRotateTargetWeapon@@@std@@U12@@std@@YAPAUTargetInfo@ioRotateTargetWeapon@@PAU12@00AAV?$allocator@UTargetInfo@ioRotateTargetWeapon@@@0@0U_Nonscalar_ptr_iterator_tag@0@@Z$3
__ehfuncinfo$??$_Uninit_move@PAUTargetInfo@ioRotateTargetWeapon@@PAU12@V?$allocator@UTargetInfo@ioRotateTargetWeapon@@@std@@U12@@std@@YAPAUTargetInfo@ioRotateTargetWeapon@@PAU12@00AAV?$allocator@UTargetInfo@ioRotateTargetWeapon@@@0@0U_Nonscalar_ptr_iterator_tag@0@@Z DD 019930522H
	DD	02H
	DD	FLAT:__unwindtable$??$_Uninit_move@PAUTargetInfo@ioRotateTargetWeapon@@PAU12@V?$allocator@UTargetInfo@ioRotateTargetWeapon@@@std@@U12@@std@@YAPAUTargetInfo@ioRotateTargetWeapon@@PAU12@00AAV?$allocator@UTargetInfo@ioRotateTargetWeapon@@@0@0U_Nonscalar_ptr_iterator_tag@0@@Z
	DD	01H
	DD	FLAT:__tryblocktable$??$_Uninit_move@PAUTargetInfo@ioRotateTargetWeapon@@PAU12@V?$allocator@UTargetInfo@ioRotateTargetWeapon@@@std@@U12@@std@@YAPAUTargetInfo@ioRotateTargetWeapon@@PAU12@00AAV?$allocator@UTargetInfo@ioRotateTargetWeapon@@@0@0U_Nonscalar_ptr_iterator_tag@0@@Z
	DD	2 DUP(00H)
	DD	00H
	DD	01H
; Function compile flags: /Ogsp
; File c:\program files (x86)\microsoft visual studio 10.0\vc\include\memory
xdata$x	ENDS
;	COMDAT ??$_Uninit_move@PAUTargetInfo@ioRotateTargetWeapon@@PAU12@V?$allocator@UTargetInfo@ioRotateTargetWeapon@@@std@@U12@@std@@YAPAUTargetInfo@ioRotateTargetWeapon@@PAU12@00AAV?$allocator@UTargetInfo@ioRotateTargetWeapon@@@0@0U_Nonscalar_ptr_iterator_tag@0@@Z
_TEXT	SEGMENT
__Next$ = -20						; size = 4
__$EHRec$ = -16						; size = 16
__First$ = 8						; size = 4
__Last$ = 12						; size = 4
__Dest$ = 16						; size = 4
__Al$ = 20						; size = 4
___formal$ = 24						; size = 4
___formal$ = 28						; size = 1
??$_Uninit_move@PAUTargetInfo@ioRotateTargetWeapon@@PAU12@V?$allocator@UTargetInfo@ioRotateTargetWeapon@@@std@@U12@@std@@YAPAUTargetInfo@ioRotateTargetWeapon@@PAU12@00AAV?$allocator@UTargetInfo@ioRotateTargetWeapon@@@0@0U_Nonscalar_ptr_iterator_tag@0@@Z PROC ; std::_Uninit_move<ioRotateTargetWeapon::TargetInfo *,ioRotateTargetWeapon::TargetInfo *,std::allocator<ioRotateTargetWeapon::TargetInfo>,ioRotateTargetWeapon::TargetInfo>, COMDAT

; 424  : 	{	// move [_First, _Last) to raw _Dest, using _Al, arbitrary type

  00000	6a 08		 push	 8
  00002	b8 00 00 00 00	 mov	 eax, __ehhandler$??$_Uninit_move@PAUTargetInfo@ioRotateTargetWeapon@@PAU12@V?$allocator@UTargetInfo@ioRotateTargetWeapon@@@std@@U12@@std@@YAPAUTargetInfo@ioRotateTargetWeapon@@PAU12@00AAV?$allocator@UTargetInfo@ioRotateTargetWeapon@@@0@0U_Nonscalar_ptr_iterator_tag@0@@Z
  00007	e8 00 00 00 00	 call	 __EH_prolog3_catch

; 425  : 	_DEBUG_RANGE(_First, _Last);
; 426  : 	_DEBUG_POINTER(_Dest);
; 427  : 	_FwdIt _Next = _Dest;

  0000c	8b 45 10	 mov	 eax, DWORD PTR __Dest$[ebp]

; 428  : 
; 429  : 	_TRY_BEGIN

  0000f	83 65 fc 00	 and	 DWORD PTR __$EHRec$[ebp+12], 0
  00013	8b 75 08	 mov	 esi, DWORD PTR __First$[ebp]
  00016	89 45 ec	 mov	 DWORD PTR __Next$[ebp], eax
$LL6@Uninit_mov:

; 430  : 	for (; _First != _Last; ++_Dest, ++_First)

  00019	3b 75 0c	 cmp	 esi, DWORD PTR __Last$[ebp]
  0001c	74 33		 je	 SHORT $LN4@Uninit_mov

; 431  : 		_Cons_val(_Al, _Dest, (_Valty &&)*_First);

  0001e	8b 4d 14	 mov	 ecx, DWORD PTR __Al$[ebp]
  00021	56		 push	 esi
  00022	ff 75 10	 push	 DWORD PTR __Dest$[ebp]
  00025	e8 00 00 00 00	 call	 ?construct@?$allocator@UTargetInfo@ioRotateTargetWeapon@@@std@@QAEXPAUTargetInfo@ioRotateTargetWeapon@@$$QAU34@@Z ; std::allocator<ioRotateTargetWeapon::TargetInfo>::construct
  0002a	83 45 10 1c	 add	 DWORD PTR __Dest$[ebp], 28 ; 0000001cH
  0002e	83 c6 1c	 add	 esi, 28			; 0000001cH
  00031	eb e6		 jmp	 SHORT $LL6@Uninit_mov
__catch$??$_Uninit_move@PAUTargetInfo@ioRotateTargetWeapon@@PAU12@V?$allocator@UTargetInfo@ioRotateTargetWeapon@@@std@@U12@@std@@YAPAUTargetInfo@ioRotateTargetWeapon@@PAU12@00AAV?$allocator@UTargetInfo@ioRotateTargetWeapon@@@0@0U_Nonscalar_ptr_iterator_tag@0@@Z$0:

; 432  : 	_CATCH_ALL
; 433  : 	for (; _Next != _Dest; ++_Next)

  00033	8b 75 ec	 mov	 esi, DWORD PTR __Next$[ebp]
  00036	eb 0b		 jmp	 SHORT $LN36@Uninit_mov
$LL3@Uninit_mov:

; 434  : 		_Dest_val(_Al, _Next);

  00038	8b ce		 mov	 ecx, esi
  0003a	ff 15 00 00 00
	00		 call	 DWORD PTR __imp_??1ioHashString@@QAE@XZ
  00040	83 c6 1c	 add	 esi, 28			; 0000001cH
$LN36@Uninit_mov:

; 432  : 	_CATCH_ALL
; 433  : 	for (; _Next != _Dest; ++_Next)

  00043	3b 75 10	 cmp	 esi, DWORD PTR __Dest$[ebp]
  00046	75 f0		 jne	 SHORT $LL3@Uninit_mov

; 435  : 	_RERAISE;

  00048	6a 00		 push	 0
  0004a	6a 00		 push	 0
  0004c	e8 00 00 00 00	 call	 __CxxThrowException@8
$LN37@Uninit_mov:
$LN4@Uninit_mov:

; 436  : 	_CATCH_END
; 437  : 	return (_Dest);

  00051	8b 45 10	 mov	 eax, DWORD PTR __Dest$[ebp]

; 438  : 	}

  00054	e8 00 00 00 00	 call	 __EH_epilog3
  00059	c3		 ret	 0
$LN35@Uninit_mov:
_TEXT	ENDS
;	COMDAT text$x
text$x	SEGMENT
__ehhandler$??$_Uninit_move@PAUTargetInfo@ioRotateTargetWeapon@@PAU12@V?$allocator@UTargetInfo@ioRotateTargetWeapon@@@std@@U12@@std@@YAPAUTargetInfo@ioRotateTargetWeapon@@PAU12@00AAV?$allocator@UTargetInfo@ioRotateTargetWeapon@@@0@0U_Nonscalar_ptr_iterator_tag@0@@Z:
  00000	8b 54 24 08	 mov	 edx, DWORD PTR [esp+8]
  00004	8d 42 0c	 lea	 eax, DWORD PTR [edx+12]
  00007	8b 4a e8	 mov	 ecx, DWORD PTR [edx-24]
  0000a	33 c8		 xor	 ecx, eax
  0000c	e8 00 00 00 00	 call	 @__security_check_cookie@4
  00011	b8 00 00 00 00	 mov	 eax, OFFSET __ehfuncinfo$??$_Uninit_move@PAUTargetInfo@ioRotateTargetWeapon@@PAU12@V?$allocator@UTargetInfo@ioRotateTargetWeapon@@@std@@U12@@std@@YAPAUTargetInfo@ioRotateTargetWeapon@@PAU12@00AAV?$allocator@UTargetInfo@ioRotateTargetWeapon@@@0@0U_Nonscalar_ptr_iterator_tag@0@@Z
  00016	e9 00 00 00 00	 jmp	 ___CxxFrameHandler3
text$x	ENDS
??$_Uninit_move@PAUTargetInfo@ioRotateTargetWeapon@@PAU12@V?$allocator@UTargetInfo@ioRotateTargetWeapon@@@std@@U12@@std@@YAPAUTargetInfo@ioRotateTargetWeapon@@PAU12@00AAV?$allocator@UTargetInfo@ioRotateTargetWeapon@@@0@0U_Nonscalar_ptr_iterator_tag@0@@Z ENDP ; std::_Uninit_move<ioRotateTargetWeapon::TargetInfo *,ioRotateTargetWeapon::TargetInfo *,std::allocator<ioRotateTargetWeapon::TargetInfo>,ioRotateTargetWeapon::TargetInfo>
PUBLIC	??$_Dest_val@V?$allocator@VioHashString@@@std@@VioHashString@@@std@@YAXAAV?$allocator@VioHashString@@@0@PAVioHashString@@@Z ; std::_Dest_val<std::allocator<ioHashString>,ioHashString>
; Function compile flags: /Ogsp
; File c:\program files (x86)\microsoft visual studio 10.0\vc\include\xmemory
;	COMDAT ??$_Dest_val@V?$allocator@VioHashString@@@std@@VioHashString@@@std@@YAXAAV?$allocator@VioHashString@@@0@PAVioHashString@@@Z
_TEXT	SEGMENT
__Alval$ = 8						; size = 4
__Pdest$ = 12						; size = 4
??$_Dest_val@V?$allocator@VioHashString@@@std@@VioHashString@@@std@@YAXAAV?$allocator@VioHashString@@@0@PAVioHashString@@@Z PROC ; std::_Dest_val<std::allocator<ioHashString>,ioHashString>, COMDAT

; 286  : 	{	// destroy using allocator

  00000	55		 push	 ebp
  00001	8b ec		 mov	 ebp, esp

; 287  : 	_Alval.destroy(_Pdest);

  00003	8b 4d 0c	 mov	 ecx, DWORD PTR __Pdest$[ebp]

; 288  : 	}

  00006	5d		 pop	 ebp

; 287  : 	_Alval.destroy(_Pdest);

  00007	ff 25 00 00 00
	00		 jmp	 DWORD PTR __imp_??1ioHashString@@QAE@XZ
??$_Dest_val@V?$allocator@VioHashString@@@std@@VioHashString@@@std@@YAXAAV?$allocator@VioHashString@@@0@PAVioHashString@@@Z ENDP ; std::_Dest_val<std::allocator<ioHashString>,ioHashString>
_TEXT	ENDS
PUBLIC	??$_Destroy_range@V?$allocator@UTargetInfo@ioRotateTargetWeapon@@@std@@@std@@YAXPAUTargetInfo@ioRotateTargetWeapon@@0AAV?$allocator@UTargetInfo@ioRotateTargetWeapon@@@0@U_Nonscalar_ptr_iterator_tag@0@@Z ; std::_Destroy_range<std::allocator<ioRotateTargetWeapon::TargetInfo> >
; Function compile flags: /Ogsp
;	COMDAT ??$_Destroy_range@V?$allocator@UTargetInfo@ioRotateTargetWeapon@@@std@@@std@@YAXPAUTargetInfo@ioRotateTargetWeapon@@0AAV?$allocator@UTargetInfo@ioRotateTargetWeapon@@@0@U_Nonscalar_ptr_iterator_tag@0@@Z
_TEXT	SEGMENT
__First$ = 8						; size = 4
__Last$ = 12						; size = 4
__Al$ = 16						; size = 4
___formal$ = 20						; size = 1
??$_Destroy_range@V?$allocator@UTargetInfo@ioRotateTargetWeapon@@@std@@@std@@YAXPAUTargetInfo@ioRotateTargetWeapon@@0AAV?$allocator@UTargetInfo@ioRotateTargetWeapon@@@0@U_Nonscalar_ptr_iterator_tag@0@@Z PROC ; std::_Destroy_range<std::allocator<ioRotateTargetWeapon::TargetInfo> >, COMDAT

; 95   : 	{	// destroy [_First, _Last), arbitrary type

  00000	55		 push	 ebp
  00001	8b ec		 mov	 ebp, esp
  00003	56		 push	 esi

; 96   : 	for (; _First != _Last; ++_First)

  00004	8b 75 08	 mov	 esi, DWORD PTR __First$[ebp]
  00007	eb 0b		 jmp	 SHORT $LN20@Destroy_ra
$LL3@Destroy_ra:

; 97   : 		_Dest_val(_Al, _First);

  00009	8b ce		 mov	 ecx, esi
  0000b	ff 15 00 00 00
	00		 call	 DWORD PTR __imp_??1ioHashString@@QAE@XZ
  00011	83 c6 1c	 add	 esi, 28			; 0000001cH
$LN20@Destroy_ra:

; 96   : 	for (; _First != _Last; ++_First)

  00014	3b 75 0c	 cmp	 esi, DWORD PTR __Last$[ebp]
  00017	75 f0		 jne	 SHORT $LL3@Destroy_ra
  00019	5e		 pop	 esi

; 98   : 	}

  0001a	5d		 pop	 ebp
  0001b	c3		 ret	 0
??$_Destroy_range@V?$allocator@UTargetInfo@ioRotateTargetWeapon@@@std@@@std@@YAXPAUTargetInfo@ioRotateTargetWeapon@@0AAV?$allocator@UTargetInfo@ioRotateTargetWeapon@@@0@U_Nonscalar_ptr_iterator_tag@0@@Z ENDP ; std::_Destroy_range<std::allocator<ioRotateTargetWeapon::TargetInfo> >
_TEXT	ENDS
PUBLIC	??$_Uninitialized_move@PAUTargetInfo@ioRotateTargetWeapon@@PAU12@V?$allocator@UTargetInfo@ioRotateTargetWeapon@@@std@@@std@@YAPAUTargetInfo@ioRotateTargetWeapon@@PAU12@00AAV?$allocator@UTargetInfo@ioRotateTargetWeapon@@@0@@Z ; std::_Uninitialized_move<ioRotateTargetWeapon::TargetInfo *,ioRotateTargetWeapon::TargetInfo *,std::allocator<ioRotateTargetWeapon::TargetInfo> >
; Function compile flags: /Ogsp
; File c:\program files (x86)\microsoft visual studio 10.0\vc\include\memory
;	COMDAT ??$_Uninitialized_move@PAUTargetInfo@ioRotateTargetWeapon@@PAU12@V?$allocator@UTargetInfo@ioRotateTargetWeapon@@@std@@@std@@YAPAUTargetInfo@ioRotateTargetWeapon@@PAU12@00AAV?$allocator@UTargetInfo@ioRotateTargetWeapon@@@0@@Z
_TEXT	SEGMENT
__Cat$535144 = -4					; size = 1
__First$ = 8						; size = 4
__Last$ = 12						; size = 4
__Dest$ = 16						; size = 4
__Al$ = 20						; size = 4
??$_Uninitialized_move@PAUTargetInfo@ioRotateTargetWeapon@@PAU12@V?$allocator@UTargetInfo@ioRotateTargetWeapon@@@std@@@std@@YAPAUTargetInfo@ioRotateTargetWeapon@@PAU12@00AAV?$allocator@UTargetInfo@ioRotateTargetWeapon@@@0@@Z PROC ; std::_Uninitialized_move<ioRotateTargetWeapon::TargetInfo *,ioRotateTargetWeapon::TargetInfo *,std::allocator<ioRotateTargetWeapon::TargetInfo> >, COMDAT

; 469  : 	{	// move [_First, _Last) to raw _Dest, using _Al

  00000	55		 push	 ebp
  00001	8b ec		 mov	 ebp, esp
  00003	51		 push	 ecx

; 470  : 	return (_Uninit_move(_First, _Last, _Dest, _Al,
; 471  : 		_Val_type(_First), _Ptr_cat(_First, _Dest)));

  00004	ff 75 fc	 push	 DWORD PTR __Cat$535144[ebp]
  00007	6a 00		 push	 0
  00009	ff 75 14	 push	 DWORD PTR __Al$[ebp]
  0000c	ff 75 10	 push	 DWORD PTR __Dest$[ebp]
  0000f	ff 75 0c	 push	 DWORD PTR __Last$[ebp]
  00012	ff 75 08	 push	 DWORD PTR __First$[ebp]
  00015	e8 00 00 00 00	 call	 ??$_Uninit_move@PAUTargetInfo@ioRotateTargetWeapon@@PAU12@V?$allocator@UTargetInfo@ioRotateTargetWeapon@@@std@@U12@@std@@YAPAUTargetInfo@ioRotateTargetWeapon@@PAU12@00AAV?$allocator@UTargetInfo@ioRotateTargetWeapon@@@0@0U_Nonscalar_ptr_iterator_tag@0@@Z ; std::_Uninit_move<ioRotateTargetWeapon::TargetInfo *,ioRotateTargetWeapon::TargetInfo *,std::allocator<ioRotateTargetWeapon::TargetInfo>,ioRotateTargetWeapon::TargetInfo>
  0001a	83 c4 18	 add	 esp, 24			; 00000018H

; 472  : 	}

  0001d	c9		 leave
  0001e	c3		 ret	 0
??$_Uninitialized_move@PAUTargetInfo@ioRotateTargetWeapon@@PAU12@V?$allocator@UTargetInfo@ioRotateTargetWeapon@@@std@@@std@@YAPAUTargetInfo@ioRotateTargetWeapon@@PAU12@00AAV?$allocator@UTargetInfo@ioRotateTargetWeapon@@@0@@Z ENDP ; std::_Uninitialized_move<ioRotateTargetWeapon::TargetInfo *,ioRotateTargetWeapon::TargetInfo *,std::allocator<ioRotateTargetWeapon::TargetInfo> >
_TEXT	ENDS
PUBLIC	??$_Uninit_move@PAVioHashString@@PAV1@V?$allocator@VioHashString@@@std@@V1@@std@@YAPAVioHashString@@PAV1@00AAV?$allocator@VioHashString@@@0@0U_Nonscalar_ptr_iterator_tag@0@@Z ; std::_Uninit_move<ioHashString *,ioHashString *,std::allocator<ioHashString>,ioHashString>
;	COMDAT xdata$x
; File c:\program files (x86)\microsoft visual studio 10.0\vc\include\vector
xdata$x	SEGMENT
__catchsym$??$_Uninit_move@PAVioHashString@@PAV1@V?$allocator@VioHashString@@@std@@V1@@std@@YAPAVioHashString@@PAV1@00AAV?$allocator@VioHashString@@@0@0U_Nonscalar_ptr_iterator_tag@0@@Z$2 DD 040H
	DD	00H
	DD	00H
	DD	FLAT:__catch$??$_Uninit_move@PAVioHashString@@PAV1@V?$allocator@VioHashString@@@std@@V1@@std@@YAPAVioHashString@@PAV1@00AAV?$allocator@VioHashString@@@0@0U_Nonscalar_ptr_iterator_tag@0@@Z$0
__unwindtable$??$_Uninit_move@PAVioHashString@@PAV1@V?$allocator@VioHashString@@@std@@V1@@std@@YAPAVioHashString@@PAV1@00AAV?$allocator@VioHashString@@@0@0U_Nonscalar_ptr_iterator_tag@0@@Z DD 0ffffffffH
	DD	00H
	DD	0ffffffffH
	DD	00H
__tryblocktable$??$_Uninit_move@PAVioHashString@@PAV1@V?$allocator@VioHashString@@@std@@V1@@std@@YAPAVioHashString@@PAV1@00AAV?$allocator@VioHashString@@@0@0U_Nonscalar_ptr_iterator_tag@0@@Z DD 00H
	DD	00H
	DD	01H
	DD	01H
	DD	FLAT:__catchsym$??$_Uninit_move@PAVioHashString@@PAV1@V?$allocator@VioHashString@@@std@@V1@@std@@YAPAVioHashString@@PAV1@00AAV?$allocator@VioHashString@@@0@0U_Nonscalar_ptr_iterator_tag@0@@Z$2
__ehfuncinfo$??$_Uninit_move@PAVioHashString@@PAV1@V?$allocator@VioHashString@@@std@@V1@@std@@YAPAVioHashString@@PAV1@00AAV?$allocator@VioHashString@@@0@0U_Nonscalar_ptr_iterator_tag@0@@Z DD 019930522H
	DD	02H
	DD	FLAT:__unwindtable$??$_Uninit_move@PAVioHashString@@PAV1@V?$allocator@VioHashString@@@std@@V1@@std@@YAPAVioHashString@@PAV1@00AAV?$allocator@VioHashString@@@0@0U_Nonscalar_ptr_iterator_tag@0@@Z
	DD	01H
	DD	FLAT:__tryblocktable$??$_Uninit_move@PAVioHashString@@PAV1@V?$allocator@VioHashString@@@std@@V1@@std@@YAPAVioHashString@@PAV1@00AAV?$allocator@VioHashString@@@0@0U_Nonscalar_ptr_iterator_tag@0@@Z
	DD	2 DUP(00H)
	DD	00H
	DD	01H
; Function compile flags: /Ogsp
; File c:\program files (x86)\microsoft visual studio 10.0\vc\include\memory
xdata$x	ENDS
;	COMDAT ??$_Uninit_move@PAVioHashString@@PAV1@V?$allocator@VioHashString@@@std@@V1@@std@@YAPAVioHashString@@PAV1@00AAV?$allocator@VioHashString@@@0@0U_Nonscalar_ptr_iterator_tag@0@@Z
_TEXT	SEGMENT
__Next$ = -20						; size = 4
__$EHRec$ = -16						; size = 16
__First$ = 8						; size = 4
__Last$ = 12						; size = 4
__Dest$ = 16						; size = 4
__Al$ = 20						; size = 4
___formal$ = 24						; size = 4
___formal$ = 28						; size = 1
??$_Uninit_move@PAVioHashString@@PAV1@V?$allocator@VioHashString@@@std@@V1@@std@@YAPAVioHashString@@PAV1@00AAV?$allocator@VioHashString@@@0@0U_Nonscalar_ptr_iterator_tag@0@@Z PROC ; std::_Uninit_move<ioHashString *,ioHashString *,std::allocator<ioHashString>,ioHashString>, COMDAT

; 424  : 	{	// move [_First, _Last) to raw _Dest, using _Al, arbitrary type

  00000	6a 08		 push	 8
  00002	b8 00 00 00 00	 mov	 eax, __ehhandler$??$_Uninit_move@PAVioHashString@@PAV1@V?$allocator@VioHashString@@@std@@V1@@std@@YAPAVioHashString@@PAV1@00AAV?$allocator@VioHashString@@@0@0U_Nonscalar_ptr_iterator_tag@0@@Z
  00007	e8 00 00 00 00	 call	 __EH_prolog3_catch

; 425  : 	_DEBUG_RANGE(_First, _Last);
; 426  : 	_DEBUG_POINTER(_Dest);
; 427  : 	_FwdIt _Next = _Dest;

  0000c	8b 45 10	 mov	 eax, DWORD PTR __Dest$[ebp]

; 428  : 
; 429  : 	_TRY_BEGIN

  0000f	83 65 fc 00	 and	 DWORD PTR __$EHRec$[ebp+12], 0
  00013	8b 75 08	 mov	 esi, DWORD PTR __First$[ebp]
  00016	89 45 ec	 mov	 DWORD PTR __Next$[ebp], eax
$LL6@Uninit_mov@2:

; 430  : 	for (; _First != _Last; ++_Dest, ++_First)

  00019	3b 75 0c	 cmp	 esi, DWORD PTR __Last$[ebp]
  0001c	74 33		 je	 SHORT $LN4@Uninit_mov@2

; 431  : 		_Cons_val(_Al, _Dest, (_Valty &&)*_First);

  0001e	8b 4d 14	 mov	 ecx, DWORD PTR __Al$[ebp]
  00021	56		 push	 esi
  00022	ff 75 10	 push	 DWORD PTR __Dest$[ebp]
  00025	e8 00 00 00 00	 call	 ?construct@?$allocator@VioHashString@@@std@@QAEXPAVioHashString@@$$QAV3@@Z ; std::allocator<ioHashString>::construct
  0002a	83 45 10 10	 add	 DWORD PTR __Dest$[ebp], 16 ; 00000010H
  0002e	83 c6 10	 add	 esi, 16			; 00000010H
  00031	eb e6		 jmp	 SHORT $LL6@Uninit_mov@2
__catch$??$_Uninit_move@PAVioHashString@@PAV1@V?$allocator@VioHashString@@@std@@V1@@std@@YAPAVioHashString@@PAV1@00AAV?$allocator@VioHashString@@@0@0U_Nonscalar_ptr_iterator_tag@0@@Z$0:

; 432  : 	_CATCH_ALL
; 433  : 	for (; _Next != _Dest; ++_Next)

  00033	8b 75 ec	 mov	 esi, DWORD PTR __Next$[ebp]
  00036	eb 0b		 jmp	 SHORT $LN33@Uninit_mov@2
$LL3@Uninit_mov@2:

; 434  : 		_Dest_val(_Al, _Next);

  00038	8b ce		 mov	 ecx, esi
  0003a	ff 15 00 00 00
	00		 call	 DWORD PTR __imp_??1ioHashString@@QAE@XZ
  00040	83 c6 10	 add	 esi, 16			; 00000010H
$LN33@Uninit_mov@2:

; 432  : 	_CATCH_ALL
; 433  : 	for (; _Next != _Dest; ++_Next)

  00043	3b 75 10	 cmp	 esi, DWORD PTR __Dest$[ebp]
  00046	75 f0		 jne	 SHORT $LL3@Uninit_mov@2

; 435  : 	_RERAISE;

  00048	6a 00		 push	 0
  0004a	6a 00		 push	 0
  0004c	e8 00 00 00 00	 call	 __CxxThrowException@8
$LN34@Uninit_mov@2:
$LN4@Uninit_mov@2:

; 436  : 	_CATCH_END
; 437  : 	return (_Dest);

  00051	8b 45 10	 mov	 eax, DWORD PTR __Dest$[ebp]

; 438  : 	}

  00054	e8 00 00 00 00	 call	 __EH_epilog3
  00059	c3		 ret	 0
$LN32@Uninit_mov@2:
_TEXT	ENDS
;	COMDAT text$x
text$x	SEGMENT
__ehhandler$??$_Uninit_move@PAVioHashString@@PAV1@V?$allocator@VioHashString@@@std@@V1@@std@@YAPAVioHashString@@PAV1@00AAV?$allocator@VioHashString@@@0@0U_Nonscalar_ptr_iterator_tag@0@@Z:
  00000	8b 54 24 08	 mov	 edx, DWORD PTR [esp+8]
  00004	8d 42 0c	 lea	 eax, DWORD PTR [edx+12]
  00007	8b 4a e8	 mov	 ecx, DWORD PTR [edx-24]
  0000a	33 c8		 xor	 ecx, eax
  0000c	e8 00 00 00 00	 call	 @__security_check_cookie@4
  00011	b8 00 00 00 00	 mov	 eax, OFFSET __ehfuncinfo$??$_Uninit_move@PAVioHashString@@PAV1@V?$allocator@VioHashString@@@std@@V1@@std@@YAPAVioHashString@@PAV1@00AAV?$allocator@VioHashString@@@0@0U_Nonscalar_ptr_iterator_tag@0@@Z
  00016	e9 00 00 00 00	 jmp	 ___CxxFrameHandler3
text$x	ENDS
??$_Uninit_move@PAVioHashString@@PAV1@V?$allocator@VioHashString@@@std@@V1@@std@@YAPAVioHashString@@PAV1@00AAV?$allocator@VioHashString@@@0@0U_Nonscalar_ptr_iterator_tag@0@@Z ENDP ; std::_Uninit_move<ioHashString *,ioHashString *,std::allocator<ioHashString>,ioHashString>
PUBLIC	??$_Destroy_range@V?$allocator@VioHashString@@@std@@@std@@YAXPAVioHashString@@0AAV?$allocator@VioHashString@@@0@U_Nonscalar_ptr_iterator_tag@0@@Z ; std::_Destroy_range<std::allocator<ioHashString> >
; Function compile flags: /Ogsp
; File c:\program files (x86)\microsoft visual studio 10.0\vc\include\xmemory
;	COMDAT ??$_Destroy_range@V?$allocator@VioHashString@@@std@@@std@@YAXPAVioHashString@@0AAV?$allocator@VioHashString@@@0@U_Nonscalar_ptr_iterator_tag@0@@Z
_TEXT	SEGMENT
__First$ = 8						; size = 4
__Last$ = 12						; size = 4
__Al$ = 16						; size = 4
___formal$ = 20						; size = 1
??$_Destroy_range@V?$allocator@VioHashString@@@std@@@std@@YAXPAVioHashString@@0AAV?$allocator@VioHashString@@@0@U_Nonscalar_ptr_iterator_tag@0@@Z PROC ; std::_Destroy_range<std::allocator<ioHashString> >, COMDAT

; 95   : 	{	// destroy [_First, _Last), arbitrary type

  00000	55		 push	 ebp
  00001	8b ec		 mov	 ebp, esp
  00003	56		 push	 esi

; 96   : 	for (; _First != _Last; ++_First)

  00004	8b 75 08	 mov	 esi, DWORD PTR __First$[ebp]
  00007	eb 0b		 jmp	 SHORT $LN17@Destroy_ra@2
$LL3@Destroy_ra@2:

; 97   : 		_Dest_val(_Al, _First);

  00009	8b ce		 mov	 ecx, esi
  0000b	ff 15 00 00 00
	00		 call	 DWORD PTR __imp_??1ioHashString@@QAE@XZ
  00011	83 c6 10	 add	 esi, 16			; 00000010H
$LN17@Destroy_ra@2:

; 96   : 	for (; _First != _Last; ++_First)

  00014	3b 75 0c	 cmp	 esi, DWORD PTR __Last$[ebp]
  00017	75 f0		 jne	 SHORT $LL3@Destroy_ra@2
  00019	5e		 pop	 esi

; 98   : 	}

  0001a	5d		 pop	 ebp
  0001b	c3		 ret	 0
??$_Destroy_range@V?$allocator@VioHashString@@@std@@@std@@YAXPAVioHashString@@0AAV?$allocator@VioHashString@@@0@U_Nonscalar_ptr_iterator_tag@0@@Z ENDP ; std::_Destroy_range<std::allocator<ioHashString> >
_TEXT	ENDS
PUBLIC	??$_Destroy_range@V?$allocator@UTargetInfo@ioRotateTargetWeapon@@@std@@@std@@YAXPAUTargetInfo@ioRotateTargetWeapon@@0AAV?$allocator@UTargetInfo@ioRotateTargetWeapon@@@0@@Z ; std::_Destroy_range<std::allocator<ioRotateTargetWeapon::TargetInfo> >
; Function compile flags: /Ogsp
;	COMDAT ??$_Destroy_range@V?$allocator@UTargetInfo@ioRotateTargetWeapon@@@std@@@std@@YAXPAUTargetInfo@ioRotateTargetWeapon@@0AAV?$allocator@UTargetInfo@ioRotateTargetWeapon@@@0@@Z
_TEXT	SEGMENT
__First$ = 8						; size = 4
__Last$ = 12						; size = 4
__Al$ = 16						; size = 4
??$_Destroy_range@V?$allocator@UTargetInfo@ioRotateTargetWeapon@@@std@@@std@@YAXPAUTargetInfo@ioRotateTargetWeapon@@0AAV?$allocator@UTargetInfo@ioRotateTargetWeapon@@@0@@Z PROC ; std::_Destroy_range<std::allocator<ioRotateTargetWeapon::TargetInfo> >, COMDAT

; 87   : 	{	// destroy [_First, _Last)

  00000	55		 push	 ebp
  00001	8b ec		 mov	 ebp, esp
  00003	56		 push	 esi

; 88   : 	_Destroy_range(_First, _Last, _Al, _Ptr_cat(_First, _Last));

  00004	8b 75 08	 mov	 esi, DWORD PTR __First$[ebp]
  00007	eb 0b		 jmp	 SHORT $LN24@Destroy_ra@3
$LL7@Destroy_ra@3:
  00009	8b ce		 mov	 ecx, esi
  0000b	ff 15 00 00 00
	00		 call	 DWORD PTR __imp_??1ioHashString@@QAE@XZ
  00011	83 c6 1c	 add	 esi, 28			; 0000001cH
$LN24@Destroy_ra@3:
  00014	3b 75 0c	 cmp	 esi, DWORD PTR __Last$[ebp]
  00017	75 f0		 jne	 SHORT $LL7@Destroy_ra@3
  00019	5e		 pop	 esi

; 89   : 	}

  0001a	5d		 pop	 ebp
  0001b	c3		 ret	 0
??$_Destroy_range@V?$allocator@UTargetInfo@ioRotateTargetWeapon@@@std@@@std@@YAXPAUTargetInfo@ioRotateTargetWeapon@@0AAV?$allocator@UTargetInfo@ioRotateTargetWeapon@@@0@@Z ENDP ; std::_Destroy_range<std::allocator<ioRotateTargetWeapon::TargetInfo> >
_TEXT	ENDS
PUBLIC	??$_Umove@PAUTargetInfo@ioRotateTargetWeapon@@@?$vector@UTargetInfo@ioRotateTargetWeapon@@V?$allocator@UTargetInfo@ioRotateTargetWeapon@@@std@@@std@@IAEPAUTargetInfo@ioRotateTargetWeapon@@PAU23@00@Z ; std::vector<ioRotateTargetWeapon::TargetInfo,std::allocator<ioRotateTargetWeapon::TargetInfo> >::_Umove<ioRotateTargetWeapon::TargetInfo *>
; Function compile flags: /Ogsp
; File c:\program files (x86)\microsoft visual studio 10.0\vc\include\vector
;	COMDAT ??$_Umove@PAUTargetInfo@ioRotateTargetWeapon@@@?$vector@UTargetInfo@ioRotateTargetWeapon@@V?$allocator@UTargetInfo@ioRotateTargetWeapon@@@std@@@std@@IAEPAUTargetInfo@ioRotateTargetWeapon@@PAU23@00@Z
_TEXT	SEGMENT
__First$ = 8						; size = 4
__Last$ = 12						; size = 4
__Ptr$ = 16						; size = 4
??$_Umove@PAUTargetInfo@ioRotateTargetWeapon@@@?$vector@UTargetInfo@ioRotateTargetWeapon@@V?$allocator@UTargetInfo@ioRotateTargetWeapon@@@std@@@std@@IAEPAUTargetInfo@ioRotateTargetWeapon@@PAU23@00@Z PROC ; std::vector<ioRotateTargetWeapon::TargetInfo,std::allocator<ioRotateTargetWeapon::TargetInfo> >::_Umove<ioRotateTargetWeapon::TargetInfo *>, COMDAT
; _this$ = ecx

; 1322 : 		pointer _Umove(_Iter _First, _Iter _Last, pointer _Ptr)

  00000	55		 push	 ebp
  00001	8b ec		 mov	 ebp, esp

; 1323 : 		{	// move initializing [_First, _Last), using allocator
; 1324 : 		return (_Uninitialized_move(_First, _Last,
; 1325 : 			_Ptr, this->_Alval));

  00003	83 c1 0c	 add	 ecx, 12			; 0000000cH
  00006	51		 push	 ecx
  00007	ff 75 10	 push	 DWORD PTR __Ptr$[ebp]
  0000a	ff 75 0c	 push	 DWORD PTR __Last$[ebp]
  0000d	ff 75 08	 push	 DWORD PTR __First$[ebp]
  00010	e8 00 00 00 00	 call	 ??$_Uninitialized_move@PAUTargetInfo@ioRotateTargetWeapon@@PAU12@V?$allocator@UTargetInfo@ioRotateTargetWeapon@@@std@@@std@@YAPAUTargetInfo@ioRotateTargetWeapon@@PAU12@00AAV?$allocator@UTargetInfo@ioRotateTargetWeapon@@@0@@Z ; std::_Uninitialized_move<ioRotateTargetWeapon::TargetInfo *,ioRotateTargetWeapon::TargetInfo *,std::allocator<ioRotateTargetWeapon::TargetInfo> >
  00015	83 c4 10	 add	 esp, 16			; 00000010H

; 1326 : 		}

  00018	5d		 pop	 ebp
  00019	c2 0c 00	 ret	 12			; 0000000cH
??$_Umove@PAUTargetInfo@ioRotateTargetWeapon@@@?$vector@UTargetInfo@ioRotateTargetWeapon@@V?$allocator@UTargetInfo@ioRotateTargetWeapon@@@std@@@std@@IAEPAUTargetInfo@ioRotateTargetWeapon@@PAU23@00@Z ENDP ; std::vector<ioRotateTargetWeapon::TargetInfo,std::allocator<ioRotateTargetWeapon::TargetInfo> >::_Umove<ioRotateTargetWeapon::TargetInfo *>
_TEXT	ENDS
PUBLIC	??$_Uninitialized_move@PAVioHashString@@PAV1@V?$allocator@VioHashString@@@std@@@std@@YAPAVioHashString@@PAV1@00AAV?$allocator@VioHashString@@@0@@Z ; std::_Uninitialized_move<ioHashString *,ioHashString *,std::allocator<ioHashString> >
; Function compile flags: /Ogsp
; File c:\program files (x86)\microsoft visual studio 10.0\vc\include\memory
;	COMDAT ??$_Uninitialized_move@PAVioHashString@@PAV1@V?$allocator@VioHashString@@@std@@@std@@YAPAVioHashString@@PAV1@00AAV?$allocator@VioHashString@@@0@@Z
_TEXT	SEGMENT
__Cat$535314 = -4					; size = 1
__First$ = 8						; size = 4
__Last$ = 12						; size = 4
__Dest$ = 16						; size = 4
__Al$ = 20						; size = 4
??$_Uninitialized_move@PAVioHashString@@PAV1@V?$allocator@VioHashString@@@std@@@std@@YAPAVioHashString@@PAV1@00AAV?$allocator@VioHashString@@@0@@Z PROC ; std::_Uninitialized_move<ioHashString *,ioHashString *,std::allocator<ioHashString> >, COMDAT

; 469  : 	{	// move [_First, _Last) to raw _Dest, using _Al

  00000	55		 push	 ebp
  00001	8b ec		 mov	 ebp, esp
  00003	51		 push	 ecx

; 470  : 	return (_Uninit_move(_First, _Last, _Dest, _Al,
; 471  : 		_Val_type(_First), _Ptr_cat(_First, _Dest)));

  00004	ff 75 fc	 push	 DWORD PTR __Cat$535314[ebp]
  00007	6a 00		 push	 0
  00009	ff 75 14	 push	 DWORD PTR __Al$[ebp]
  0000c	ff 75 10	 push	 DWORD PTR __Dest$[ebp]
  0000f	ff 75 0c	 push	 DWORD PTR __Last$[ebp]
  00012	ff 75 08	 push	 DWORD PTR __First$[ebp]
  00015	e8 00 00 00 00	 call	 ??$_Uninit_move@PAVioHashString@@PAV1@V?$allocator@VioHashString@@@std@@V1@@std@@YAPAVioHashString@@PAV1@00AAV?$allocator@VioHashString@@@0@0U_Nonscalar_ptr_iterator_tag@0@@Z ; std::_Uninit_move<ioHashString *,ioHashString *,std::allocator<ioHashString>,ioHashString>
  0001a	83 c4 18	 add	 esp, 24			; 00000018H

; 472  : 	}

  0001d	c9		 leave
  0001e	c3		 ret	 0
??$_Uninitialized_move@PAVioHashString@@PAV1@V?$allocator@VioHashString@@@std@@@std@@YAPAVioHashString@@PAV1@00AAV?$allocator@VioHashString@@@0@@Z ENDP ; std::_Uninitialized_move<ioHashString *,ioHashString *,std::allocator<ioHashString> >
_TEXT	ENDS
PUBLIC	??$_Destroy_range@V?$allocator@VioHashString@@@std@@@std@@YAXPAVioHashString@@0AAV?$allocator@VioHashString@@@0@@Z ; std::_Destroy_range<std::allocator<ioHashString> >
; Function compile flags: /Ogsp
; File c:\program files (x86)\microsoft visual studio 10.0\vc\include\xmemory
;	COMDAT ??$_Destroy_range@V?$allocator@VioHashString@@@std@@@std@@YAXPAVioHashString@@0AAV?$allocator@VioHashString@@@0@@Z
_TEXT	SEGMENT
__First$ = 8						; size = 4
__Last$ = 12						; size = 4
__Al$ = 16						; size = 4
??$_Destroy_range@V?$allocator@VioHashString@@@std@@@std@@YAXPAVioHashString@@0AAV?$allocator@VioHashString@@@0@@Z PROC ; std::_Destroy_range<std::allocator<ioHashString> >, COMDAT

; 87   : 	{	// destroy [_First, _Last)

  00000	55		 push	 ebp
  00001	8b ec		 mov	 ebp, esp
  00003	56		 push	 esi

; 88   : 	_Destroy_range(_First, _Last, _Al, _Ptr_cat(_First, _Last));

  00004	8b 75 08	 mov	 esi, DWORD PTR __First$[ebp]
  00007	eb 0b		 jmp	 SHORT $LN21@Destroy_ra@4
$LL7@Destroy_ra@4:
  00009	8b ce		 mov	 ecx, esi
  0000b	ff 15 00 00 00
	00		 call	 DWORD PTR __imp_??1ioHashString@@QAE@XZ
  00011	83 c6 10	 add	 esi, 16			; 00000010H
$LN21@Destroy_ra@4:
  00014	3b 75 0c	 cmp	 esi, DWORD PTR __Last$[ebp]
  00017	75 f0		 jne	 SHORT $LL7@Destroy_ra@4
  00019	5e		 pop	 esi

; 89   : 	}

  0001a	5d		 pop	 ebp
  0001b	c3		 ret	 0
??$_Destroy_range@V?$allocator@VioHashString@@@std@@@std@@YAXPAVioHashString@@0AAV?$allocator@VioHashString@@@0@@Z ENDP ; std::_Destroy_range<std::allocator<ioHashString> >
_TEXT	ENDS
PUBLIC	?_Destroy@?$vector@UTargetInfo@ioRotateTargetWeapon@@V?$allocator@UTargetInfo@ioRotateTargetWeapon@@@std@@@std@@IAEXPAUTargetInfo@ioRotateTargetWeapon@@0@Z ; std::vector<ioRotateTargetWeapon::TargetInfo,std::allocator<ioRotateTargetWeapon::TargetInfo> >::_Destroy
; Function compile flags: /Ogsp
; File c:\program files (x86)\microsoft visual studio 10.0\vc\include\vector
;	COMDAT ?_Destroy@?$vector@UTargetInfo@ioRotateTargetWeapon@@V?$allocator@UTargetInfo@ioRotateTargetWeapon@@@std@@@std@@IAEXPAUTargetInfo@ioRotateTargetWeapon@@0@Z
_TEXT	SEGMENT
__First$ = 8						; size = 4
__Last$ = 12						; size = 4
?_Destroy@?$vector@UTargetInfo@ioRotateTargetWeapon@@V?$allocator@UTargetInfo@ioRotateTargetWeapon@@@std@@@std@@IAEXPAUTargetInfo@ioRotateTargetWeapon@@0@Z PROC ; std::vector<ioRotateTargetWeapon::TargetInfo,std::allocator<ioRotateTargetWeapon::TargetInfo> >::_Destroy, COMDAT
; _this$ = ecx

; 1269 : 		{	// destroy [_First, _Last) using allocator

  00000	55		 push	 ebp
  00001	8b ec		 mov	 ebp, esp
  00003	56		 push	 esi

; 1270 : 		_Destroy_range(_First, _Last, this->_Alval);

  00004	8b 75 08	 mov	 esi, DWORD PTR __First$[ebp]
  00007	eb 0b		 jmp	 SHORT $LN26@Destroy
$LL9@Destroy:
  00009	8b ce		 mov	 ecx, esi
  0000b	ff 15 00 00 00
	00		 call	 DWORD PTR __imp_??1ioHashString@@QAE@XZ
  00011	83 c6 1c	 add	 esi, 28			; 0000001cH
$LN26@Destroy:
  00014	3b 75 0c	 cmp	 esi, DWORD PTR __Last$[ebp]
  00017	75 f0		 jne	 SHORT $LL9@Destroy
  00019	5e		 pop	 esi

; 1271 : 		}

  0001a	5d		 pop	 ebp
  0001b	c2 08 00	 ret	 8
?_Destroy@?$vector@UTargetInfo@ioRotateTargetWeapon@@V?$allocator@UTargetInfo@ioRotateTargetWeapon@@@std@@@std@@IAEXPAUTargetInfo@ioRotateTargetWeapon@@0@Z ENDP ; std::vector<ioRotateTargetWeapon::TargetInfo,std::allocator<ioRotateTargetWeapon::TargetInfo> >::_Destroy
_TEXT	ENDS
PUBLIC	?_Tidy@?$vector@UTargetInfo@ioRotateTargetWeapon@@V?$allocator@UTargetInfo@ioRotateTargetWeapon@@@std@@@std@@IAEXXZ ; std::vector<ioRotateTargetWeapon::TargetInfo,std::allocator<ioRotateTargetWeapon::TargetInfo> >::_Tidy
EXTRN	__imp_?_Orphan_all@_Container_base0@std@@QAEXXZ:PROC
; Function compile flags: /Ogsp
;	COMDAT ?_Tidy@?$vector@UTargetInfo@ioRotateTargetWeapon@@V?$allocator@UTargetInfo@ioRotateTargetWeapon@@@std@@@std@@IAEXXZ
_TEXT	SEGMENT
?_Tidy@?$vector@UTargetInfo@ioRotateTargetWeapon@@V?$allocator@UTargetInfo@ioRotateTargetWeapon@@@std@@@std@@IAEXXZ PROC ; std::vector<ioRotateTargetWeapon::TargetInfo,std::allocator<ioRotateTargetWeapon::TargetInfo> >::_Tidy, COMDAT
; _this$ = ecx

; 1301 : 		{	// free all storage

  00000	56		 push	 esi
  00001	8b f1		 mov	 esi, ecx

; 1302 : 		if (this->_Myfirst != 0)

  00003	83 3e 00	 cmp	 DWORD PTR [esi], 0
  00006	74 28		 je	 SHORT $LN27@Tidy

; 1303 : 			{	// something to free, destroy and deallocate it
; 1304 : 			this->_Orphan_all();

  00008	53		 push	 ebx
  00009	57		 push	 edi
  0000a	ff 15 00 00 00
	00		 call	 DWORD PTR __imp_?_Orphan_all@_Container_base0@std@@QAEXXZ

; 1305 : 			_Destroy(this->_Myfirst, this->_Mylast);

  00010	8b 5e 04	 mov	 ebx, DWORD PTR [esi+4]
  00013	8b 3e		 mov	 edi, DWORD PTR [esi]
  00015	eb 0b		 jmp	 SHORT $LN31@Tidy
$LL12@Tidy:
  00017	8b cf		 mov	 ecx, edi
  00019	ff 15 00 00 00
	00		 call	 DWORD PTR __imp_??1ioHashString@@QAE@XZ
  0001f	83 c7 1c	 add	 edi, 28			; 0000001cH
$LN31@Tidy:
  00022	3b fb		 cmp	 edi, ebx
  00024	75 f1		 jne	 SHORT $LL12@Tidy

; 1306 : 			this->_Alval.deallocate(this->_Myfirst,
; 1307 : 				this->_Myend - this->_Myfirst);

  00026	ff 36		 push	 DWORD PTR [esi]
  00028	e8 00 00 00 00	 call	 ??3@YAXPAX@Z		; operator delete
  0002d	59		 pop	 ecx
  0002e	5f		 pop	 edi
  0002f	5b		 pop	 ebx
$LN27@Tidy:

; 1308 : 			}
; 1309 : 		this->_Myfirst = 0;

  00030	33 c0		 xor	 eax, eax
  00032	89 06		 mov	 DWORD PTR [esi], eax

; 1310 : 		this->_Mylast = 0;

  00034	89 46 04	 mov	 DWORD PTR [esi+4], eax

; 1311 : 		this->_Myend = 0;

  00037	89 46 08	 mov	 DWORD PTR [esi+8], eax
  0003a	5e		 pop	 esi

; 1312 : 		}

  0003b	c3		 ret	 0
?_Tidy@?$vector@UTargetInfo@ioRotateTargetWeapon@@V?$allocator@UTargetInfo@ioRotateTargetWeapon@@@std@@@std@@IAEXXZ ENDP ; std::vector<ioRotateTargetWeapon::TargetInfo,std::allocator<ioRotateTargetWeapon::TargetInfo> >::_Tidy
_TEXT	ENDS
PUBLIC	?reserve@?$vector@UTargetInfo@ioRotateTargetWeapon@@V?$allocator@UTargetInfo@ioRotateTargetWeapon@@@std@@@std@@QAEXI@Z ; std::vector<ioRotateTargetWeapon::TargetInfo,std::allocator<ioRotateTargetWeapon::TargetInfo> >::reserve
;	COMDAT xdata$x
; File c:\program files (x86)\microsoft visual studio 10.0\vc\include\xmemory
xdata$x	SEGMENT
__catchsym$?reserve@?$vector@UTargetInfo@ioRotateTargetWeapon@@V?$allocator@UTargetInfo@ioRotateTargetWeapon@@@std@@@std@@QAEXI@Z$3 DD 040H
	DD	00H
	DD	00H
	DD	FLAT:__catch$?reserve@?$vector@UTargetInfo@ioRotateTargetWeapon@@V?$allocator@UTargetInfo@ioRotateTargetWeapon@@@std@@@std@@QAEXI@Z$0
__unwindtable$?reserve@?$vector@UTargetInfo@ioRotateTargetWeapon@@V?$allocator@UTargetInfo@ioRotateTargetWeapon@@@std@@@std@@QAEXI@Z DD 0ffffffffH
	DD	00H
	DD	0ffffffffH
	DD	00H
__tryblocktable$?reserve@?$vector@UTargetInfo@ioRotateTargetWeapon@@V?$allocator@UTargetInfo@ioRotateTargetWeapon@@@std@@@std@@QAEXI@Z DD 00H
	DD	00H
	DD	01H
	DD	01H
	DD	FLAT:__catchsym$?reserve@?$vector@UTargetInfo@ioRotateTargetWeapon@@V?$allocator@UTargetInfo@ioRotateTargetWeapon@@@std@@@std@@QAEXI@Z$3
__ehfuncinfo$?reserve@?$vector@UTargetInfo@ioRotateTargetWeapon@@V?$allocator@UTargetInfo@ioRotateTargetWeapon@@@std@@@std@@QAEXI@Z DD 019930522H
	DD	02H
	DD	FLAT:__unwindtable$?reserve@?$vector@UTargetInfo@ioRotateTargetWeapon@@V?$allocator@UTargetInfo@ioRotateTargetWeapon@@@std@@@std@@QAEXI@Z
	DD	01H
	DD	FLAT:__tryblocktable$?reserve@?$vector@UTargetInfo@ioRotateTargetWeapon@@V?$allocator@UTargetInfo@ioRotateTargetWeapon@@@std@@@std@@QAEXI@Z
	DD	2 DUP(00H)
	DD	00H
	DD	01H
; Function compile flags: /Ogsp
; File c:\program files (x86)\microsoft visual studio 10.0\vc\include\vector
xdata$x	ENDS
;	COMDAT ?reserve@?$vector@UTargetInfo@ioRotateTargetWeapon@@V?$allocator@UTargetInfo@ioRotateTargetWeapon@@@std@@@std@@QAEXI@Z
_TEXT	SEGMENT
__Ptr$531755 = -24					; size = 4
$T535695 = -20						; size = 4
__$EHRec$ = -16						; size = 16
__Count$ = 8						; size = 4
?reserve@?$vector@UTargetInfo@ioRotateTargetWeapon@@V?$allocator@UTargetInfo@ioRotateTargetWeapon@@@std@@@std@@QAEXI@Z PROC ; std::vector<ioRotateTargetWeapon::TargetInfo,std::allocator<ioRotateTargetWeapon::TargetInfo> >::reserve, COMDAT
; _this$ = ecx

; 746  : 		{	// determine new minimum length of allocated storage

  00000	6a 0c		 push	 12			; 0000000cH
  00002	b8 00 00 00 00	 mov	 eax, __ehhandler$?reserve@?$vector@UTargetInfo@ioRotateTargetWeapon@@V?$allocator@UTargetInfo@ioRotateTargetWeapon@@@std@@@std@@QAEXI@Z
  00007	e8 00 00 00 00	 call	 __EH_prolog3_catch
  0000c	8b f1		 mov	 esi, ecx

; 747  : 		if (max_size() < _Count)

  0000e	81 7d 08 49 92
	24 09		 cmp	 DWORD PTR __Count$[ebp], 153391689 ; 09249249H
  00015	76 0b		 jbe	 SHORT $LN5@reserve

; 748  : 			_Xlen();	// result too long

  00017	68 00 00 00 00	 push	 OFFSET ??_C@_0BD@OLBABOEK@vector?$DMT?$DO?5too?5long?$AA@
  0001c	ff 15 00 00 00
	00		 call	 DWORD PTR __imp_?_Xlength_error@std@@YAXPBD@Z
$LN62@reserve:
$LN5@reserve:

; 749  : 		else if (capacity() < _Count)

  00022	8b 46 08	 mov	 eax, DWORD PTR [esi+8]
  00025	2b 06		 sub	 eax, DWORD PTR [esi]
  00027	6a 1c		 push	 28			; 0000001cH
  00029	99		 cdq
  0002a	59		 pop	 ecx
  0002b	f7 f9		 idiv	 ecx
  0002d	3b 45 08	 cmp	 eax, DWORD PTR __Count$[ebp]
  00030	0f 83 81 00 00
	00		 jae	 $LN3@reserve

; 750  : 			{	// not enough room, reallocate
; 751  : 			pointer _Ptr = this->_Alval.allocate(_Count);

  00036	6a 00		 push	 0
  00038	ff 75 08	 push	 DWORD PTR __Count$[ebp]
  0003b	e8 00 00 00 00	 call	 ??$_Allocate@UTargetInfo@ioRotateTargetWeapon@@@std@@YAPAUTargetInfo@ioRotateTargetWeapon@@IPAU12@@Z ; std::_Allocate<ioRotateTargetWeapon::TargetInfo>

; 752  : 
; 753  : 			_TRY_BEGIN
; 754  : 			_Umove(this->_Myfirst, this->_Mylast, _Ptr);

  00040	8b 0e		 mov	 ecx, DWORD PTR [esi]
  00042	83 65 fc 00	 and	 DWORD PTR __$EHRec$[ebp+12], 0
  00046	8d 56 0c	 lea	 edx, DWORD PTR [esi+12]
  00049	52		 push	 edx
  0004a	89 45 e8	 mov	 DWORD PTR __Ptr$531755[ebp], eax
  0004d	ff 75 e8	 push	 DWORD PTR __Ptr$531755[ebp]
  00050	8b 46 04	 mov	 eax, DWORD PTR [esi+4]
  00053	50		 push	 eax
  00054	51		 push	 ecx
  00055	e8 00 00 00 00	 call	 ??$_Uninitialized_move@PAUTargetInfo@ioRotateTargetWeapon@@PAU12@V?$allocator@UTargetInfo@ioRotateTargetWeapon@@@std@@@std@@YAPAUTargetInfo@ioRotateTargetWeapon@@PAU12@00AAV?$allocator@UTargetInfo@ioRotateTargetWeapon@@@0@@Z ; std::_Uninitialized_move<ioRotateTargetWeapon::TargetInfo *,ioRotateTargetWeapon::TargetInfo *,std::allocator<ioRotateTargetWeapon::TargetInfo> >

; 758  : 			_CATCH_END
; 759  : 
; 760  : 			size_type _Size = size();

  0005a	8b 5e 04	 mov	 ebx, DWORD PTR [esi+4]
  0005d	8b 0e		 mov	 ecx, DWORD PTR [esi]
  0005f	83 c4 18	 add	 esp, 24			; 00000018H
  00062	8b c3		 mov	 eax, ebx
  00064	2b c1		 sub	 eax, ecx
  00066	6a 1c		 push	 28			; 0000001cH
  00068	99		 cdq
  00069	5f		 pop	 edi
  0006a	f7 ff		 idiv	 edi
  0006c	83 4d fc ff	 or	 DWORD PTR __$EHRec$[ebp+12], -1
  00070	8b f8		 mov	 edi, eax
  00072	85 c9		 test	 ecx, ecx
  00074	74 21		 je	 SHORT $LN54@reserve

; 761  : 			if (this->_Myfirst != 0)
; 762  : 				{	// destroy and deallocate old array
; 763  : 				_Destroy(this->_Myfirst, this->_Mylast);

  00076	89 4d ec	 mov	 DWORD PTR $T535695[ebp], ecx
  00079	3b cb		 cmp	 ecx, ebx
  0007b	74 12		 je	 SHORT $LN37@reserve
$LN39@reserve:
  0007d	8b 4d ec	 mov	 ecx, DWORD PTR $T535695[ebp]
  00080	ff 15 00 00 00
	00		 call	 DWORD PTR __imp_??1ioHashString@@QAE@XZ
  00086	83 45 ec 1c	 add	 DWORD PTR $T535695[ebp], 28 ; 0000001cH
  0008a	39 5d ec	 cmp	 DWORD PTR $T535695[ebp], ebx
  0008d	75 ee		 jne	 SHORT $LN39@reserve
$LN37@reserve:

; 764  : 				this->_Alval.deallocate(this->_Myfirst,
; 765  : 					this->_Myend - this->_Myfirst);

  0008f	ff 36		 push	 DWORD PTR [esi]
  00091	e8 00 00 00 00	 call	 ??3@YAXPAX@Z		; operator delete
  00096	59		 pop	 ecx
$LN54@reserve:

; 766  : 				}
; 767  : 
; 768  : 			this->_Orphan_all();

  00097	8b ce		 mov	 ecx, esi
  00099	ff 15 00 00 00
	00		 call	 DWORD PTR __imp_?_Orphan_all@_Container_base0@std@@QAEXXZ

; 769  : 			this->_Myend = _Ptr + _Count;
; 770  : 			this->_Mylast = _Ptr + _Size;

  0009f	6b ff 1c	 imul	 edi, 28			; 0000001cH
  000a2	8b 45 08	 mov	 eax, DWORD PTR __Count$[ebp]
  000a5	8b 4d e8	 mov	 ecx, DWORD PTR __Ptr$531755[ebp]
  000a8	6b c0 1c	 imul	 eax, 28			; 0000001cH
  000ab	03 c1		 add	 eax, ecx
  000ad	03 f9		 add	 edi, ecx
  000af	89 46 08	 mov	 DWORD PTR [esi+8], eax
  000b2	89 7e 04	 mov	 DWORD PTR [esi+4], edi

; 771  : 			this->_Myfirst = _Ptr;

  000b5	89 0e		 mov	 DWORD PTR [esi], ecx
$LN3@reserve:

; 772  : 			}
; 773  : 		}

  000b7	e8 00 00 00 00	 call	 __EH_epilog3
  000bc	c2 04 00	 ret	 4
__catch$?reserve@?$vector@UTargetInfo@ioRotateTargetWeapon@@V?$allocator@UTargetInfo@ioRotateTargetWeapon@@@std@@@std@@QAEXI@Z$0:

; 755  : 			_CATCH_ALL
; 756  : 			this->_Alval.deallocate(_Ptr, _Count);

  000bf	ff 75 e8	 push	 DWORD PTR __Ptr$531755[ebp]
  000c2	e8 00 00 00 00	 call	 ??3@YAXPAX@Z		; operator delete
  000c7	59		 pop	 ecx

; 757  : 			_RERAISE;

  000c8	6a 00		 push	 0
  000ca	6a 00		 push	 0
  000cc	e8 00 00 00 00	 call	 __CxxThrowException@8
$LN63@reserve:
$LN61@reserve:
  000d1	cc		 int	 3
_TEXT	ENDS
;	COMDAT text$x
text$x	SEGMENT
__ehhandler$?reserve@?$vector@UTargetInfo@ioRotateTargetWeapon@@V?$allocator@UTargetInfo@ioRotateTargetWeapon@@@std@@@std@@QAEXI@Z:
  00000	8b 54 24 08	 mov	 edx, DWORD PTR [esp+8]
  00004	8d 42 0c	 lea	 eax, DWORD PTR [edx+12]
  00007	8b 4a e4	 mov	 ecx, DWORD PTR [edx-28]
  0000a	33 c8		 xor	 ecx, eax
  0000c	e8 00 00 00 00	 call	 @__security_check_cookie@4
  00011	b8 00 00 00 00	 mov	 eax, OFFSET __ehfuncinfo$?reserve@?$vector@UTargetInfo@ioRotateTargetWeapon@@V?$allocator@UTargetInfo@ioRotateTargetWeapon@@@std@@@std@@QAEXI@Z
  00016	e9 00 00 00 00	 jmp	 ___CxxFrameHandler3
text$x	ENDS
?reserve@?$vector@UTargetInfo@ioRotateTargetWeapon@@V?$allocator@UTargetInfo@ioRotateTargetWeapon@@@std@@@std@@QAEXI@Z ENDP ; std::vector<ioRotateTargetWeapon::TargetInfo,std::allocator<ioRotateTargetWeapon::TargetInfo> >::reserve
PUBLIC	??$_Umove@PAVioHashString@@@?$vector@VioHashString@@V?$allocator@VioHashString@@@std@@@std@@IAEPAVioHashString@@PAV2@00@Z ; std::vector<ioHashString,std::allocator<ioHashString> >::_Umove<ioHashString *>
; Function compile flags: /Ogsp
;	COMDAT ??$_Umove@PAVioHashString@@@?$vector@VioHashString@@V?$allocator@VioHashString@@@std@@@std@@IAEPAVioHashString@@PAV2@00@Z
_TEXT	SEGMENT
__First$ = 8						; size = 4
__Last$ = 12						; size = 4
__Ptr$ = 16						; size = 4
??$_Umove@PAVioHashString@@@?$vector@VioHashString@@V?$allocator@VioHashString@@@std@@@std@@IAEPAVioHashString@@PAV2@00@Z PROC ; std::vector<ioHashString,std::allocator<ioHashString> >::_Umove<ioHashString *>, COMDAT
; _this$ = ecx

; 1322 : 		pointer _Umove(_Iter _First, _Iter _Last, pointer _Ptr)

  00000	55		 push	 ebp
  00001	8b ec		 mov	 ebp, esp

; 1323 : 		{	// move initializing [_First, _Last), using allocator
; 1324 : 		return (_Uninitialized_move(_First, _Last,
; 1325 : 			_Ptr, this->_Alval));

  00003	83 c1 0c	 add	 ecx, 12			; 0000000cH
  00006	51		 push	 ecx
  00007	ff 75 10	 push	 DWORD PTR __Ptr$[ebp]
  0000a	ff 75 0c	 push	 DWORD PTR __Last$[ebp]
  0000d	ff 75 08	 push	 DWORD PTR __First$[ebp]
  00010	e8 00 00 00 00	 call	 ??$_Uninitialized_move@PAVioHashString@@PAV1@V?$allocator@VioHashString@@@std@@@std@@YAPAVioHashString@@PAV1@00AAV?$allocator@VioHashString@@@0@@Z ; std::_Uninitialized_move<ioHashString *,ioHashString *,std::allocator<ioHashString> >
  00015	83 c4 10	 add	 esp, 16			; 00000010H

; 1326 : 		}

  00018	5d		 pop	 ebp
  00019	c2 0c 00	 ret	 12			; 0000000cH
??$_Umove@PAVioHashString@@@?$vector@VioHashString@@V?$allocator@VioHashString@@@std@@@std@@IAEPAVioHashString@@PAV2@00@Z ENDP ; std::vector<ioHashString,std::allocator<ioHashString> >::_Umove<ioHashString *>
_TEXT	ENDS
PUBLIC	?_Destroy@?$vector@VioHashString@@V?$allocator@VioHashString@@@std@@@std@@IAEXPAVioHashString@@0@Z ; std::vector<ioHashString,std::allocator<ioHashString> >::_Destroy
; Function compile flags: /Ogsp
;	COMDAT ?_Destroy@?$vector@VioHashString@@V?$allocator@VioHashString@@@std@@@std@@IAEXPAVioHashString@@0@Z
_TEXT	SEGMENT
__First$ = 8						; size = 4
__Last$ = 12						; size = 4
?_Destroy@?$vector@VioHashString@@V?$allocator@VioHashString@@@std@@@std@@IAEXPAVioHashString@@0@Z PROC ; std::vector<ioHashString,std::allocator<ioHashString> >::_Destroy, COMDAT
; _this$ = ecx

; 1269 : 		{	// destroy [_First, _Last) using allocator

  00000	55		 push	 ebp
  00001	8b ec		 mov	 ebp, esp
  00003	56		 push	 esi

; 1270 : 		_Destroy_range(_First, _Last, this->_Alval);

  00004	8b 75 08	 mov	 esi, DWORD PTR __First$[ebp]
  00007	eb 0b		 jmp	 SHORT $LN23@Destroy@2
$LL9@Destroy@2:
  00009	8b ce		 mov	 ecx, esi
  0000b	ff 15 00 00 00
	00		 call	 DWORD PTR __imp_??1ioHashString@@QAE@XZ
  00011	83 c6 10	 add	 esi, 16			; 00000010H
$LN23@Destroy@2:
  00014	3b 75 0c	 cmp	 esi, DWORD PTR __Last$[ebp]
  00017	75 f0		 jne	 SHORT $LL9@Destroy@2
  00019	5e		 pop	 esi

; 1271 : 		}

  0001a	5d		 pop	 ebp
  0001b	c2 08 00	 ret	 8
?_Destroy@?$vector@VioHashString@@V?$allocator@VioHashString@@@std@@@std@@IAEXPAVioHashString@@0@Z ENDP ; std::vector<ioHashString,std::allocator<ioHashString> >::_Destroy
_TEXT	ENDS
PUBLIC	??1?$vector@UTargetInfo@ioRotateTargetWeapon@@V?$allocator@UTargetInfo@ioRotateTargetWeapon@@@std@@@std@@QAE@XZ ; std::vector<ioRotateTargetWeapon::TargetInfo,std::allocator<ioRotateTargetWeapon::TargetInfo> >::~vector<ioRotateTargetWeapon::TargetInfo,std::allocator<ioRotateTargetWeapon::TargetInfo> >
; Function compile flags: /Ogsp
;	COMDAT ??1?$vector@UTargetInfo@ioRotateTargetWeapon@@V?$allocator@UTargetInfo@ioRotateTargetWeapon@@@std@@@std@@QAE@XZ
_TEXT	SEGMENT
??1?$vector@UTargetInfo@ioRotateTargetWeapon@@V?$allocator@UTargetInfo@ioRotateTargetWeapon@@@std@@@std@@QAE@XZ PROC ; std::vector<ioRotateTargetWeapon::TargetInfo,std::allocator<ioRotateTargetWeapon::TargetInfo> >::~vector<ioRotateTargetWeapon::TargetInfo,std::allocator<ioRotateTargetWeapon::TargetInfo> >, COMDAT
; _this$ = ecx

; 705  : 		_Tidy();

  00000	e9 00 00 00 00	 jmp	 ?_Tidy@?$vector@UTargetInfo@ioRotateTargetWeapon@@V?$allocator@UTargetInfo@ioRotateTargetWeapon@@@std@@@std@@IAEXXZ ; std::vector<ioRotateTargetWeapon::TargetInfo,std::allocator<ioRotateTargetWeapon::TargetInfo> >::_Tidy
??1?$vector@UTargetInfo@ioRotateTargetWeapon@@V?$allocator@UTargetInfo@ioRotateTargetWeapon@@@std@@@std@@QAE@XZ ENDP ; std::vector<ioRotateTargetWeapon::TargetInfo,std::allocator<ioRotateTargetWeapon::TargetInfo> >::~vector<ioRotateTargetWeapon::TargetInfo,std::allocator<ioRotateTargetWeapon::TargetInfo> >
_TEXT	ENDS
PUBLIC	?erase@?$vector@UTargetInfo@ioRotateTargetWeapon@@V?$allocator@UTargetInfo@ioRotateTargetWeapon@@@std@@@std@@QAE?AV?$_Vector_iterator@V?$_Vector_val@UTargetInfo@ioRotateTargetWeapon@@V?$allocator@UTargetInfo@ioRotateTargetWeapon@@@std@@@std@@@2@V?$_Vector_const_iterator@V?$_Vector_val@UTargetInfo@ioRotateTargetWeapon@@V?$allocator@UTargetInfo@ioRotateTargetWeapon@@@std@@@std@@@2@@Z ; std::vector<ioRotateTargetWeapon::TargetInfo,std::allocator<ioRotateTargetWeapon::TargetInfo> >::erase
; Function compile flags: /Ogsp
;	COMDAT ?erase@?$vector@UTargetInfo@ioRotateTargetWeapon@@V?$allocator@UTargetInfo@ioRotateTargetWeapon@@@std@@@std@@QAE?AV?$_Vector_iterator@V?$_Vector_val@UTargetInfo@ioRotateTargetWeapon@@V?$allocator@UTargetInfo@ioRotateTargetWeapon@@@std@@@std@@@2@V?$_Vector_const_iterator@V?$_Vector_val@UTargetInfo@ioRotateTargetWeapon@@V?$allocator@UTargetInfo@ioRotateTargetWeapon@@@std@@@std@@@2@@Z
_TEXT	SEGMENT
___$ReturnUdt$ = 8					; size = 4
__Cat$535861 = 12					; size = 1
__Where$ = 12						; size = 4
?erase@?$vector@UTargetInfo@ioRotateTargetWeapon@@V?$allocator@UTargetInfo@ioRotateTargetWeapon@@@std@@@std@@QAE?AV?$_Vector_iterator@V?$_Vector_val@UTargetInfo@ioRotateTargetWeapon@@V?$allocator@UTargetInfo@ioRotateTargetWeapon@@@std@@@std@@@2@V?$_Vector_const_iterator@V?$_Vector_val@UTargetInfo@ioRotateTargetWeapon@@V?$allocator@UTargetInfo@ioRotateTargetWeapon@@@std@@@std@@@2@@Z PROC ; std::vector<ioRotateTargetWeapon::TargetInfo,std::allocator<ioRotateTargetWeapon::TargetInfo> >::erase, COMDAT
; _this$ = ecx

; 1179 : 		{	// erase element at where

  00000	55		 push	 ebp
  00001	8b ec		 mov	 ebp, esp

; 1180 : 		_Move(_VIPTR(_Where) + 1, this->_Mylast,
; 1181 : 			_VIPTR(_Where));

  00003	8b 45 0c	 mov	 eax, DWORD PTR __Where$[ebp]
  00006	53		 push	 ebx
  00007	56		 push	 esi
  00008	57		 push	 edi
  00009	ff 75 0c	 push	 DWORD PTR __Cat$535861[ebp]
  0000c	8b f1		 mov	 esi, ecx
  0000e	50		 push	 eax
  0000f	ff 76 04	 push	 DWORD PTR [esi+4]
  00012	83 c0 1c	 add	 eax, 28			; 0000001cH
  00015	50		 push	 eax
  00016	e8 00 00 00 00	 call	 ??$_Move@PAUTargetInfo@ioRotateTargetWeapon@@PAU12@@std@@YAPAUTargetInfo@ioRotateTargetWeapon@@PAU12@00U_Nonscalar_ptr_iterator_tag@0@@Z ; std::_Move<ioRotateTargetWeapon::TargetInfo *,ioRotateTargetWeapon::TargetInfo *>

; 1182 : 		_Destroy(this->_Mylast - 1, this->_Mylast);

  0001b	8b 7e 04	 mov	 edi, DWORD PTR [esi+4]
  0001e	83 c4 10	 add	 esp, 16			; 00000010H
  00021	8d 5f e4	 lea	 ebx, DWORD PTR [edi-28]
  00024	eb 0b		 jmp	 SHORT $LN40@erase
$LL15@erase:
  00026	8b cb		 mov	 ecx, ebx
  00028	ff 15 00 00 00
	00		 call	 DWORD PTR __imp_??1ioHashString@@QAE@XZ
  0002e	83 c3 1c	 add	 ebx, 28			; 0000001cH
$LN40@erase:
  00031	3b df		 cmp	 ebx, edi
  00033	75 f1		 jne	 SHORT $LL15@erase

; 1183 : 		--this->_Mylast;

  00035	83 46 04 e4	 add	 DWORD PTR [esi+4], -28	; ffffffe4H

; 1184 : 		return (_Make_iter(_Where));

  00039	8b 45 08	 mov	 eax, DWORD PTR ___$ReturnUdt$[ebp]
  0003c	8b 4d 0c	 mov	 ecx, DWORD PTR __Where$[ebp]
  0003f	5f		 pop	 edi
  00040	5e		 pop	 esi
  00041	89 08		 mov	 DWORD PTR [eax], ecx
  00043	5b		 pop	 ebx

; 1185 : 		}

  00044	5d		 pop	 ebp
  00045	c2 08 00	 ret	 8
?erase@?$vector@UTargetInfo@ioRotateTargetWeapon@@V?$allocator@UTargetInfo@ioRotateTargetWeapon@@@std@@@std@@QAE?AV?$_Vector_iterator@V?$_Vector_val@UTargetInfo@ioRotateTargetWeapon@@V?$allocator@UTargetInfo@ioRotateTargetWeapon@@@std@@@std@@@2@V?$_Vector_const_iterator@V?$_Vector_val@UTargetInfo@ioRotateTargetWeapon@@V?$allocator@UTargetInfo@ioRotateTargetWeapon@@@std@@@std@@@2@@Z ENDP ; std::vector<ioRotateTargetWeapon::TargetInfo,std::allocator<ioRotateTargetWeapon::TargetInfo> >::erase
_TEXT	ENDS
PUBLIC	?erase@?$vector@UTargetInfo@ioRotateTargetWeapon@@V?$allocator@UTargetInfo@ioRotateTargetWeapon@@@std@@@std@@QAE?AV?$_Vector_iterator@V?$_Vector_val@UTargetInfo@ioRotateTargetWeapon@@V?$allocator@UTargetInfo@ioRotateTargetWeapon@@@std@@@std@@@2@V?$_Vector_const_iterator@V?$_Vector_val@UTargetInfo@ioRotateTargetWeapon@@V?$allocator@UTargetInfo@ioRotateTargetWeapon@@@std@@@std@@@2@0@Z ; std::vector<ioRotateTargetWeapon::TargetInfo,std::allocator<ioRotateTargetWeapon::TargetInfo> >::erase
; Function compile flags: /Ogsp
;	COMDAT ?erase@?$vector@UTargetInfo@ioRotateTargetWeapon@@V?$allocator@UTargetInfo@ioRotateTargetWeapon@@@std@@@std@@QAE?AV?$_Vector_iterator@V?$_Vector_val@UTargetInfo@ioRotateTargetWeapon@@V?$allocator@UTargetInfo@ioRotateTargetWeapon@@@std@@@std@@@2@V?$_Vector_const_iterator@V?$_Vector_val@UTargetInfo@ioRotateTargetWeapon@@V?$allocator@UTargetInfo@ioRotateTargetWeapon@@@std@@@std@@@2@0@Z
_TEXT	SEGMENT
$T536147 = -4						; size = 4
___$ReturnUdt$ = 8					; size = 4
__First_arg$ = 12					; size = 4
__Cat$536079 = 16					; size = 1
__Last_arg$ = 16					; size = 4
?erase@?$vector@UTargetInfo@ioRotateTargetWeapon@@V?$allocator@UTargetInfo@ioRotateTargetWeapon@@@std@@@std@@QAE?AV?$_Vector_iterator@V?$_Vector_val@UTargetInfo@ioRotateTargetWeapon@@V?$allocator@UTargetInfo@ioRotateTargetWeapon@@@std@@@std@@@2@V?$_Vector_const_iterator@V?$_Vector_val@UTargetInfo@ioRotateTargetWeapon@@V?$allocator@UTargetInfo@ioRotateTargetWeapon@@@std@@@std@@@2@0@Z PROC ; std::vector<ioRotateTargetWeapon::TargetInfo,std::allocator<ioRotateTargetWeapon::TargetInfo> >::erase, COMDAT
; _this$ = ecx

; 1190 : 		{	// erase [_First, _Last)

  00000	55		 push	 ebp
  00001	8b ec		 mov	 ebp, esp
  00003	51		 push	 ecx

; 1191 : 		iterator _First = _Make_iter(_First_arg);

  00004	8b 45 08	 mov	 eax, DWORD PTR ___$ReturnUdt$[ebp]
  00007	56		 push	 esi
  00008	8b f1		 mov	 esi, ecx
  0000a	8b 4d 0c	 mov	 ecx, DWORD PTR __First_arg$[ebp]
  0000d	89 08		 mov	 DWORD PTR [eax], ecx

; 1192 : 		iterator _Last = _Make_iter(_Last_arg);
; 1193 : 
; 1194 : 		if (_First != _Last)

  0000f	3b 4d 10	 cmp	 ecx, DWORD PTR __Last_arg$[ebp]
  00012	74 38		 je	 SHORT $LN1@erase@2

; 1195 : 			{	// worth doing, copy down over hole
; 1196 :  #if _ITERATOR_DEBUG_LEVEL == 2
; 1197 : 			if (_Last < _First || _VICONT(_First) != this
; 1198 : 				|| _VIPTR(_First) < this->_Myfirst
; 1199 : 				|| this->_Mylast < _VIPTR(_Last))
; 1200 : 				_DEBUG_ERROR("vector erase iterator outside range");
; 1201 : 			pointer _Ptr = _Move(_VIPTR(_Last), this->_Mylast,
; 1202 : 				_VIPTR(_First));
; 1203 : 			_Orphan_range(_VIPTR(_First), this->_Mylast);
; 1204 : 
; 1205 :  #else /* _ITERATOR_DEBUG_LEVEL == 2 */
; 1206 : 			pointer _Ptr = _Move(_VIPTR(_Last), this->_Mylast,
; 1207 : 				_VIPTR(_First));

  00014	8b 46 04	 mov	 eax, DWORD PTR [esi+4]
  00017	53		 push	 ebx
  00018	57		 push	 edi
  00019	ff 75 10	 push	 DWORD PTR __Cat$536079[ebp]
  0001c	51		 push	 ecx
  0001d	50		 push	 eax
  0001e	ff 75 10	 push	 DWORD PTR __Last_arg$[ebp]
  00021	e8 00 00 00 00	 call	 ??$_Move@PAUTargetInfo@ioRotateTargetWeapon@@PAU12@@std@@YAPAUTargetInfo@ioRotateTargetWeapon@@PAU12@00U_Nonscalar_ptr_iterator_tag@0@@Z ; std::_Move<ioRotateTargetWeapon::TargetInfo *,ioRotateTargetWeapon::TargetInfo *>

; 1208 :  #endif /* _ITERATOR_DEBUG_LEVEL == 2 */
; 1209 : 
; 1210 : 			_Destroy(_Ptr, this->_Mylast);

  00026	8b 7e 04	 mov	 edi, DWORD PTR [esi+4]
  00029	8b d8		 mov	 ebx, eax
  0002b	83 c4 10	 add	 esp, 16			; 00000010H
  0002e	89 5d fc	 mov	 DWORD PTR $T536147[ebp], ebx
  00031	3b df		 cmp	 ebx, edi
  00033	74 12		 je	 SHORT $LN36@erase@2
$LL55@erase@2:
  00035	8b 4d fc	 mov	 ecx, DWORD PTR $T536147[ebp]
  00038	ff 15 00 00 00
	00		 call	 DWORD PTR __imp_??1ioHashString@@QAE@XZ
  0003e	83 45 fc 1c	 add	 DWORD PTR $T536147[ebp], 28 ; 0000001cH
  00042	39 7d fc	 cmp	 DWORD PTR $T536147[ebp], edi
  00045	75 ee		 jne	 SHORT $LL55@erase@2
$LN36@erase@2:

; 1211 : 			this->_Mylast = _Ptr;

  00047	5f		 pop	 edi
  00048	89 5e 04	 mov	 DWORD PTR [esi+4], ebx
  0004b	5b		 pop	 ebx
$LN1@erase@2:

; 1212 : 			}
; 1213 : 		return (_First);

  0004c	8b 45 08	 mov	 eax, DWORD PTR ___$ReturnUdt$[ebp]
  0004f	5e		 pop	 esi

; 1214 : 		}

  00050	c9		 leave
  00051	c2 0c 00	 ret	 12			; 0000000cH
?erase@?$vector@UTargetInfo@ioRotateTargetWeapon@@V?$allocator@UTargetInfo@ioRotateTargetWeapon@@@std@@@std@@QAE?AV?$_Vector_iterator@V?$_Vector_val@UTargetInfo@ioRotateTargetWeapon@@V?$allocator@UTargetInfo@ioRotateTargetWeapon@@@std@@@std@@@2@V?$_Vector_const_iterator@V?$_Vector_val@UTargetInfo@ioRotateTargetWeapon@@V?$allocator@UTargetInfo@ioRotateTargetWeapon@@@std@@@std@@@2@0@Z ENDP ; std::vector<ioRotateTargetWeapon::TargetInfo,std::allocator<ioRotateTargetWeapon::TargetInfo> >::erase
_TEXT	ENDS
PUBLIC	?_Reserve@?$vector@UTargetInfo@ioRotateTargetWeapon@@V?$allocator@UTargetInfo@ioRotateTargetWeapon@@@std@@@std@@IAEXI@Z ; std::vector<ioRotateTargetWeapon::TargetInfo,std::allocator<ioRotateTargetWeapon::TargetInfo> >::_Reserve
; Function compile flags: /Ogsp
;	COMDAT ?_Reserve@?$vector@UTargetInfo@ioRotateTargetWeapon@@V?$allocator@UTargetInfo@ioRotateTargetWeapon@@@std@@@std@@IAEXI@Z
_TEXT	SEGMENT
__Count$ = 8						; size = 4
?_Reserve@?$vector@UTargetInfo@ioRotateTargetWeapon@@V?$allocator@UTargetInfo@ioRotateTargetWeapon@@@std@@@std@@IAEXI@Z PROC ; std::vector<ioRotateTargetWeapon::TargetInfo,std::allocator<ioRotateTargetWeapon::TargetInfo> >::_Reserve, COMDAT
; _this$ = ecx

; 1290 : 		{	// ensure room for _Count new elements, grow exponentially

  00000	55		 push	 ebp
  00001	8b ec		 mov	 ebp, esp
  00003	56		 push	 esi
  00004	8b f1		 mov	 esi, ecx

; 1291 : 		size_type _Size = size();

  00006	8b 0e		 mov	 ecx, DWORD PTR [esi]
  00008	8b 46 04	 mov	 eax, DWORD PTR [esi+4]
  0000b	2b c1		 sub	 eax, ecx
  0000d	57		 push	 edi
  0000e	99		 cdq
  0000f	6a 1c		 push	 28			; 0000001cH
  00011	5f		 pop	 edi
  00012	f7 ff		 idiv	 edi
  00014	8b f8		 mov	 edi, eax

; 1292 : 		if (max_size() - _Count < _Size)

  00016	b8 49 92 24 09	 mov	 eax, 153391689		; 09249249H
  0001b	2b 45 08	 sub	 eax, DWORD PTR __Count$[ebp]
  0001e	3b c7		 cmp	 eax, edi
  00020	73 0b		 jae	 SHORT $LN4@Reserve

; 1293 : 			_Xlen();

  00022	68 00 00 00 00	 push	 OFFSET ??_C@_0BD@OLBABOEK@vector?$DMT?$DO?5too?5long?$AA@
  00027	ff 15 00 00 00
	00		 call	 DWORD PTR __imp_?_Xlength_error@std@@YAXPBD@Z
$LN21@Reserve:
$LN4@Reserve:

; 1294 : 		else if ((_Size += _Count) <= capacity())

  0002d	8b 46 08	 mov	 eax, DWORD PTR [esi+8]
  00030	2b c1		 sub	 eax, ecx
  00032	6a 1c		 push	 28			; 0000001cH
  00034	99		 cdq
  00035	59		 pop	 ecx
  00036	f7 f9		 idiv	 ecx
  00038	03 7d 08	 add	 edi, DWORD PTR __Count$[ebp]
  0003b	3b f8		 cmp	 edi, eax
  0003d	76 10		 jbe	 SHORT $LN1@Reserve

; 1295 : 			;
; 1296 : 		else
; 1297 : 			reserve(_Grow_to(_Size));

  0003f	57		 push	 edi
  00040	8b ce		 mov	 ecx, esi
  00042	e8 00 00 00 00	 call	 ?_Grow_to@?$vector@UTargetInfo@ioRotateTargetWeapon@@V?$allocator@UTargetInfo@ioRotateTargetWeapon@@@std@@@std@@IBEII@Z ; std::vector<ioRotateTargetWeapon::TargetInfo,std::allocator<ioRotateTargetWeapon::TargetInfo> >::_Grow_to
  00047	50		 push	 eax
  00048	8b ce		 mov	 ecx, esi
  0004a	e8 00 00 00 00	 call	 ?reserve@?$vector@UTargetInfo@ioRotateTargetWeapon@@V?$allocator@UTargetInfo@ioRotateTargetWeapon@@@std@@@std@@QAEXI@Z ; std::vector<ioRotateTargetWeapon::TargetInfo,std::allocator<ioRotateTargetWeapon::TargetInfo> >::reserve
$LN1@Reserve:
  0004f	5f		 pop	 edi
  00050	5e		 pop	 esi

; 1298 : 		}

  00051	5d		 pop	 ebp
  00052	c2 04 00	 ret	 4
$LN20@Reserve:
?_Reserve@?$vector@UTargetInfo@ioRotateTargetWeapon@@V?$allocator@UTargetInfo@ioRotateTargetWeapon@@@std@@@std@@IAEXI@Z ENDP ; std::vector<ioRotateTargetWeapon::TargetInfo,std::allocator<ioRotateTargetWeapon::TargetInfo> >::_Reserve
_TEXT	ENDS
PUBLIC	?reserve@?$vector@VioHashString@@V?$allocator@VioHashString@@@std@@@std@@QAEXI@Z ; std::vector<ioHashString,std::allocator<ioHashString> >::reserve
;	COMDAT xdata$x
; File c:\program files (x86)\microsoft visual studio 10.0\vc\include\xmemory
xdata$x	SEGMENT
__catchsym$?reserve@?$vector@VioHashString@@V?$allocator@VioHashString@@@std@@@std@@QAEXI@Z$2 DD 040H
	DD	00H
	DD	00H
	DD	FLAT:__catch$?reserve@?$vector@VioHashString@@V?$allocator@VioHashString@@@std@@@std@@QAEXI@Z$0
__unwindtable$?reserve@?$vector@VioHashString@@V?$allocator@VioHashString@@@std@@@std@@QAEXI@Z DD 0ffffffffH
	DD	00H
	DD	0ffffffffH
	DD	00H
__tryblocktable$?reserve@?$vector@VioHashString@@V?$allocator@VioHashString@@@std@@@std@@QAEXI@Z DD 00H
	DD	00H
	DD	01H
	DD	01H
	DD	FLAT:__catchsym$?reserve@?$vector@VioHashString@@V?$allocator@VioHashString@@@std@@@std@@QAEXI@Z$2
__ehfuncinfo$?reserve@?$vector@VioHashString@@V?$allocator@VioHashString@@@std@@@std@@QAEXI@Z DD 019930522H
	DD	02H
	DD	FLAT:__unwindtable$?reserve@?$vector@VioHashString@@V?$allocator@VioHashString@@@std@@@std@@QAEXI@Z
	DD	01H
	DD	FLAT:__tryblocktable$?reserve@?$vector@VioHashString@@V?$allocator@VioHashString@@@std@@@std@@QAEXI@Z
	DD	2 DUP(00H)
	DD	00H
	DD	01H
; Function compile flags: /Ogsp
; File c:\program files (x86)\microsoft visual studio 10.0\vc\include\vector
xdata$x	ENDS
;	COMDAT ?reserve@?$vector@VioHashString@@V?$allocator@VioHashString@@@std@@@std@@QAEXI@Z
_TEXT	SEGMENT
tv300 = -24						; size = 4
__Ptr$531735 = -20					; size = 4
__$EHRec$ = -16						; size = 16
$T536321 = 8						; size = 4
__Count$ = 8						; size = 4
?reserve@?$vector@VioHashString@@V?$allocator@VioHashString@@@std@@@std@@QAEXI@Z PROC ; std::vector<ioHashString,std::allocator<ioHashString> >::reserve, COMDAT
; _this$ = ecx

; 746  : 		{	// determine new minimum length of allocated storage

  00000	6a 0c		 push	 12			; 0000000cH
  00002	b8 00 00 00 00	 mov	 eax, __ehhandler$?reserve@?$vector@VioHashString@@V?$allocator@VioHashString@@@std@@@std@@QAEXI@Z
  00007	e8 00 00 00 00	 call	 __EH_prolog3_catch
  0000c	8b f1		 mov	 esi, ecx

; 747  : 		if (max_size() < _Count)

  0000e	8b 5d 08	 mov	 ebx, DWORD PTR __Count$[ebp]
  00011	81 fb ff ff ff
	0f		 cmp	 ebx, 268435455		; 0fffffffH
  00017	76 0b		 jbe	 SHORT $LN5@reserve@2

; 748  : 			_Xlen();	// result too long

  00019	68 00 00 00 00	 push	 OFFSET ??_C@_0BD@OLBABOEK@vector?$DMT?$DO?5too?5long?$AA@
  0001e	ff 15 00 00 00
	00		 call	 DWORD PTR __imp_?_Xlength_error@std@@YAXPBD@Z
$LN59@reserve@2:
$LN5@reserve@2:

; 749  : 		else if (capacity() < _Count)

  00024	8b 46 08	 mov	 eax, DWORD PTR [esi+8]
  00027	2b 06		 sub	 eax, DWORD PTR [esi]
  00029	c1 f8 04	 sar	 eax, 4
  0002c	3b c3		 cmp	 eax, ebx
  0002e	73 7a		 jae	 SHORT $LN3@reserve@2

; 750  : 			{	// not enough room, reallocate
; 751  : 			pointer _Ptr = this->_Alval.allocate(_Count);

  00030	6a 00		 push	 0
  00032	53		 push	 ebx
  00033	e8 00 00 00 00	 call	 ??$_Allocate@VioHashString@@@std@@YAPAVioHashString@@IPAV1@@Z ; std::_Allocate<ioHashString>

; 752  : 
; 753  : 			_TRY_BEGIN
; 754  : 			_Umove(this->_Myfirst, this->_Mylast, _Ptr);

  00038	8b 0e		 mov	 ecx, DWORD PTR [esi]
  0003a	83 65 fc 00	 and	 DWORD PTR __$EHRec$[ebp+12], 0
  0003e	8d 56 0c	 lea	 edx, DWORD PTR [esi+12]
  00041	52		 push	 edx
  00042	89 45 ec	 mov	 DWORD PTR __Ptr$531735[ebp], eax
  00045	ff 75 ec	 push	 DWORD PTR __Ptr$531735[ebp]
  00048	8b 46 04	 mov	 eax, DWORD PTR [esi+4]
  0004b	50		 push	 eax
  0004c	51		 push	 ecx
  0004d	e8 00 00 00 00	 call	 ??$_Uninitialized_move@PAVioHashString@@PAV1@V?$allocator@VioHashString@@@std@@@std@@YAPAVioHashString@@PAV1@00AAV?$allocator@VioHashString@@@0@@Z ; std::_Uninitialized_move<ioHashString *,ioHashString *,std::allocator<ioHashString> >

; 758  : 			_CATCH_END
; 759  : 
; 760  : 			size_type _Size = size();

  00052	8b 4e 04	 mov	 ecx, DWORD PTR [esi+4]
  00055	8b 06		 mov	 eax, DWORD PTR [esi]
  00057	83 4d fc ff	 or	 DWORD PTR __$EHRec$[ebp+12], -1
  0005b	8b f9		 mov	 edi, ecx
  0005d	83 c4 18	 add	 esp, 24			; 00000018H
  00060	2b f8		 sub	 edi, eax
  00062	89 4d e8	 mov	 DWORD PTR tv300[ebp], ecx
  00065	85 c0		 test	 eax, eax
  00067	74 24		 je	 SHORT $LN51@reserve@2

; 761  : 			if (this->_Myfirst != 0)
; 762  : 				{	// destroy and deallocate old array
; 763  : 				_Destroy(this->_Myfirst, this->_Mylast);

  00069	89 45 08	 mov	 DWORD PTR $T536321[ebp], eax
  0006c	3b c1		 cmp	 eax, ecx
  0006e	74 15		 je	 SHORT $LN37@reserve@2
$LN39@reserve@2:
  00070	8b 4d 08	 mov	 ecx, DWORD PTR $T536321[ebp]
  00073	ff 15 00 00 00
	00		 call	 DWORD PTR __imp_??1ioHashString@@QAE@XZ
  00079	83 45 08 10	 add	 DWORD PTR $T536321[ebp], 16 ; 00000010H
  0007d	8b 45 08	 mov	 eax, DWORD PTR $T536321[ebp]
  00080	3b 45 e8	 cmp	 eax, DWORD PTR tv300[ebp]
  00083	75 eb		 jne	 SHORT $LN39@reserve@2
$LN37@reserve@2:

; 764  : 				this->_Alval.deallocate(this->_Myfirst,
; 765  : 					this->_Myend - this->_Myfirst);

  00085	ff 36		 push	 DWORD PTR [esi]
  00087	e8 00 00 00 00	 call	 ??3@YAXPAX@Z		; operator delete
  0008c	59		 pop	 ecx
$LN51@reserve@2:

; 766  : 				}
; 767  : 
; 768  : 			this->_Orphan_all();

  0008d	8b ce		 mov	 ecx, esi
  0008f	ff 15 00 00 00
	00		 call	 DWORD PTR __imp_?_Orphan_all@_Container_base0@std@@QAEXXZ

; 769  : 			this->_Myend = _Ptr + _Count;

  00095	8b 45 ec	 mov	 eax, DWORD PTR __Ptr$531735[ebp]
  00098	c1 e3 04	 shl	 ebx, 4
  0009b	03 d8		 add	 ebx, eax

; 770  : 			this->_Mylast = _Ptr + _Size;

  0009d	83 e7 f0	 and	 edi, -16		; fffffff0H
  000a0	03 f8		 add	 edi, eax
  000a2	89 5e 08	 mov	 DWORD PTR [esi+8], ebx
  000a5	89 7e 04	 mov	 DWORD PTR [esi+4], edi

; 771  : 			this->_Myfirst = _Ptr;

  000a8	89 06		 mov	 DWORD PTR [esi], eax
$LN3@reserve@2:

; 772  : 			}
; 773  : 		}

  000aa	e8 00 00 00 00	 call	 __EH_epilog3
  000af	c2 04 00	 ret	 4
__catch$?reserve@?$vector@VioHashString@@V?$allocator@VioHashString@@@std@@@std@@QAEXI@Z$0:

; 755  : 			_CATCH_ALL
; 756  : 			this->_Alval.deallocate(_Ptr, _Count);

  000b2	ff 75 ec	 push	 DWORD PTR __Ptr$531735[ebp]
  000b5	e8 00 00 00 00	 call	 ??3@YAXPAX@Z		; operator delete
  000ba	59		 pop	 ecx

; 757  : 			_RERAISE;

  000bb	6a 00		 push	 0
  000bd	6a 00		 push	 0
  000bf	e8 00 00 00 00	 call	 __CxxThrowException@8
$LN60@reserve@2:
$LN58@reserve@2:
  000c4	cc		 int	 3
_TEXT	ENDS
;	COMDAT text$x
text$x	SEGMENT
__ehhandler$?reserve@?$vector@VioHashString@@V?$allocator@VioHashString@@@std@@@std@@QAEXI@Z:
  00000	8b 54 24 08	 mov	 edx, DWORD PTR [esp+8]
  00004	8d 42 0c	 lea	 eax, DWORD PTR [edx+12]
  00007	8b 4a e4	 mov	 ecx, DWORD PTR [edx-28]
  0000a	33 c8		 xor	 ecx, eax
  0000c	e8 00 00 00 00	 call	 @__security_check_cookie@4
  00011	b8 00 00 00 00	 mov	 eax, OFFSET __ehfuncinfo$?reserve@?$vector@VioHashString@@V?$allocator@VioHashString@@@std@@@std@@QAEXI@Z
  00016	e9 00 00 00 00	 jmp	 ___CxxFrameHandler3
text$x	ENDS
?reserve@?$vector@VioHashString@@V?$allocator@VioHashString@@@std@@@std@@QAEXI@Z ENDP ; std::vector<ioHashString,std::allocator<ioHashString> >::reserve
PUBLIC	?erase@?$vector@VioHashString@@V?$allocator@VioHashString@@@std@@@std@@QAE?AV?$_Vector_iterator@V?$_Vector_val@VioHashString@@V?$allocator@VioHashString@@@std@@@std@@@2@V?$_Vector_const_iterator@V?$_Vector_val@VioHashString@@V?$allocator@VioHashString@@@std@@@std@@@2@0@Z ; std::vector<ioHashString,std::allocator<ioHashString> >::erase
; Function compile flags: /Ogsp
;	COMDAT ?erase@?$vector@VioHashString@@V?$allocator@VioHashString@@@std@@@std@@QAE?AV?$_Vector_iterator@V?$_Vector_val@VioHashString@@V?$allocator@VioHashString@@@std@@@std@@@2@V?$_Vector_const_iterator@V?$_Vector_val@VioHashString@@V?$allocator@VioHashString@@@std@@@std@@@2@0@Z
_TEXT	SEGMENT
$T536516 = -4						; size = 4
___$ReturnUdt$ = 8					; size = 4
__First_arg$ = 12					; size = 4
__Cat$536461 = 16					; size = 1
__Last_arg$ = 16					; size = 4
?erase@?$vector@VioHashString@@V?$allocator@VioHashString@@@std@@@std@@QAE?AV?$_Vector_iterator@V?$_Vector_val@VioHashString@@V?$allocator@VioHashString@@@std@@@std@@@2@V?$_Vector_const_iterator@V?$_Vector_val@VioHashString@@V?$allocator@VioHashString@@@std@@@std@@@2@0@Z PROC ; std::vector<ioHashString,std::allocator<ioHashString> >::erase, COMDAT
; _this$ = ecx

; 1190 : 		{	// erase [_First, _Last)

  00000	55		 push	 ebp
  00001	8b ec		 mov	 ebp, esp
  00003	51		 push	 ecx

; 1191 : 		iterator _First = _Make_iter(_First_arg);

  00004	8b 45 08	 mov	 eax, DWORD PTR ___$ReturnUdt$[ebp]
  00007	56		 push	 esi
  00008	8b f1		 mov	 esi, ecx
  0000a	8b 4d 0c	 mov	 ecx, DWORD PTR __First_arg$[ebp]
  0000d	89 08		 mov	 DWORD PTR [eax], ecx

; 1192 : 		iterator _Last = _Make_iter(_Last_arg);
; 1193 : 
; 1194 : 		if (_First != _Last)

  0000f	3b 4d 10	 cmp	 ecx, DWORD PTR __Last_arg$[ebp]
  00012	74 38		 je	 SHORT $LN1@erase@3

; 1195 : 			{	// worth doing, copy down over hole
; 1196 :  #if _ITERATOR_DEBUG_LEVEL == 2
; 1197 : 			if (_Last < _First || _VICONT(_First) != this
; 1198 : 				|| _VIPTR(_First) < this->_Myfirst
; 1199 : 				|| this->_Mylast < _VIPTR(_Last))
; 1200 : 				_DEBUG_ERROR("vector erase iterator outside range");
; 1201 : 			pointer _Ptr = _Move(_VIPTR(_Last), this->_Mylast,
; 1202 : 				_VIPTR(_First));
; 1203 : 			_Orphan_range(_VIPTR(_First), this->_Mylast);
; 1204 : 
; 1205 :  #else /* _ITERATOR_DEBUG_LEVEL == 2 */
; 1206 : 			pointer _Ptr = _Move(_VIPTR(_Last), this->_Mylast,
; 1207 : 				_VIPTR(_First));

  00014	8b 46 04	 mov	 eax, DWORD PTR [esi+4]
  00017	53		 push	 ebx
  00018	57		 push	 edi
  00019	ff 75 10	 push	 DWORD PTR __Cat$536461[ebp]
  0001c	51		 push	 ecx
  0001d	50		 push	 eax
  0001e	ff 75 10	 push	 DWORD PTR __Last_arg$[ebp]
  00021	e8 00 00 00 00	 call	 ??$_Move@PAVioHashString@@PAV1@@std@@YAPAVioHashString@@PAV1@00U_Nonscalar_ptr_iterator_tag@0@@Z ; std::_Move<ioHashString *,ioHashString *>

; 1208 :  #endif /* _ITERATOR_DEBUG_LEVEL == 2 */
; 1209 : 
; 1210 : 			_Destroy(_Ptr, this->_Mylast);

  00026	8b 7e 04	 mov	 edi, DWORD PTR [esi+4]
  00029	8b d8		 mov	 ebx, eax
  0002b	83 c4 10	 add	 esp, 16			; 00000010H
  0002e	89 5d fc	 mov	 DWORD PTR $T536516[ebp], ebx
  00031	3b df		 cmp	 ebx, edi
  00033	74 12		 je	 SHORT $LN36@erase@3
$LL52@erase@3:
  00035	8b 4d fc	 mov	 ecx, DWORD PTR $T536516[ebp]
  00038	ff 15 00 00 00
	00		 call	 DWORD PTR __imp_??1ioHashString@@QAE@XZ
  0003e	83 45 fc 10	 add	 DWORD PTR $T536516[ebp], 16 ; 00000010H
  00042	39 7d fc	 cmp	 DWORD PTR $T536516[ebp], edi
  00045	75 ee		 jne	 SHORT $LL52@erase@3
$LN36@erase@3:

; 1211 : 			this->_Mylast = _Ptr;

  00047	5f		 pop	 edi
  00048	89 5e 04	 mov	 DWORD PTR [esi+4], ebx
  0004b	5b		 pop	 ebx
$LN1@erase@3:

; 1212 : 			}
; 1213 : 		return (_First);

  0004c	8b 45 08	 mov	 eax, DWORD PTR ___$ReturnUdt$[ebp]
  0004f	5e		 pop	 esi

; 1214 : 		}

  00050	c9		 leave
  00051	c2 0c 00	 ret	 12			; 0000000cH
?erase@?$vector@VioHashString@@V?$allocator@VioHashString@@@std@@@std@@QAE?AV?$_Vector_iterator@V?$_Vector_val@VioHashString@@V?$allocator@VioHashString@@@std@@@std@@@2@V?$_Vector_const_iterator@V?$_Vector_val@VioHashString@@V?$allocator@VioHashString@@@std@@@std@@@2@0@Z ENDP ; std::vector<ioHashString,std::allocator<ioHashString> >::erase
_TEXT	ENDS
PUBLIC	?_Tidy@?$vector@VioHashString@@V?$allocator@VioHashString@@@std@@@std@@IAEXXZ ; std::vector<ioHashString,std::allocator<ioHashString> >::_Tidy
; Function compile flags: /Ogsp
;	COMDAT ?_Tidy@?$vector@VioHashString@@V?$allocator@VioHashString@@@std@@@std@@IAEXXZ
_TEXT	SEGMENT
?_Tidy@?$vector@VioHashString@@V?$allocator@VioHashString@@@std@@@std@@IAEXXZ PROC ; std::vector<ioHashString,std::allocator<ioHashString> >::_Tidy, COMDAT
; _this$ = ecx

; 1301 : 		{	// free all storage

  00000	56		 push	 esi
  00001	8b f1		 mov	 esi, ecx

; 1302 : 		if (this->_Myfirst != 0)

  00003	83 3e 00	 cmp	 DWORD PTR [esi], 0
  00006	74 28		 je	 SHORT $LN24@Tidy@2

; 1303 : 			{	// something to free, destroy and deallocate it
; 1304 : 			this->_Orphan_all();

  00008	53		 push	 ebx
  00009	57		 push	 edi
  0000a	ff 15 00 00 00
	00		 call	 DWORD PTR __imp_?_Orphan_all@_Container_base0@std@@QAEXXZ

; 1305 : 			_Destroy(this->_Myfirst, this->_Mylast);

  00010	8b 5e 04	 mov	 ebx, DWORD PTR [esi+4]
  00013	8b 3e		 mov	 edi, DWORD PTR [esi]
  00015	eb 0b		 jmp	 SHORT $LN28@Tidy@2
$LL12@Tidy@2:
  00017	8b cf		 mov	 ecx, edi
  00019	ff 15 00 00 00
	00		 call	 DWORD PTR __imp_??1ioHashString@@QAE@XZ
  0001f	83 c7 10	 add	 edi, 16			; 00000010H
$LN28@Tidy@2:
  00022	3b fb		 cmp	 edi, ebx
  00024	75 f1		 jne	 SHORT $LL12@Tidy@2

; 1306 : 			this->_Alval.deallocate(this->_Myfirst,
; 1307 : 				this->_Myend - this->_Myfirst);

  00026	ff 36		 push	 DWORD PTR [esi]
  00028	e8 00 00 00 00	 call	 ??3@YAXPAX@Z		; operator delete
  0002d	59		 pop	 ecx
  0002e	5f		 pop	 edi
  0002f	5b		 pop	 ebx
$LN24@Tidy@2:

; 1308 : 			}
; 1309 : 		this->_Myfirst = 0;

  00030	33 c0		 xor	 eax, eax
  00032	89 06		 mov	 DWORD PTR [esi], eax

; 1310 : 		this->_Mylast = 0;

  00034	89 46 04	 mov	 DWORD PTR [esi+4], eax

; 1311 : 		this->_Myend = 0;

  00037	89 46 08	 mov	 DWORD PTR [esi+8], eax
  0003a	5e		 pop	 esi

; 1312 : 		}

  0003b	c3		 ret	 0
?_Tidy@?$vector@VioHashString@@V?$allocator@VioHashString@@@std@@@std@@IAEXXZ ENDP ; std::vector<ioHashString,std::allocator<ioHashString> >::_Tidy
_TEXT	ENDS
PUBLIC	__real@4f800000
PUBLIC	__real@408f400000000000
PUBLIC	_pStage$GSCopy$
PUBLIC	__$ArrayPad$
PUBLIC	?CheckTarget@ioRotateTargetWeapon@@IAEXPAVioPlayStage@@@Z ; ioRotateTargetWeapon::CheckTarget
EXTRN	_D3DXVec3Normalize@8:PROC
EXTRN	__imp_??D@YA?AUD3DXVECTOR3@@ABUD3DXQUATERNION@@ABU0@@Z:PROC
EXTRN	_D3DXQuaternionRotationAxis@12:PROC
EXTRN	__imp_?UNIT_Y@ioMath@@2UD3DXVECTOR3@@A:BYTE
EXTRN	__imp_?ArrangeHead@ioMath@@SAMM@Z:PROC
EXTRN	__imp_?GetSecPerFrame@ioFrameTimer@@QBEMXZ:PROC
EXTRN	?CheckGrapplingExceptionState@ioBaseChar@@QAE_NXZ:PROC ; ioBaseChar::CheckGrapplingExceptionState
;	COMDAT __real@4f800000
CONST	SEGMENT
__real@4f800000 DD 04f800000r			; 4.29497e+009
CONST	ENDS
;	COMDAT __real@408f400000000000
CONST	SEGMENT
__real@408f400000000000 DQ 0408f400000000000r	; 1000
; Function compile flags: /Ogsp
; File d:\lost saga for developer\youtube\tutorial\source\src\lsclient\iorotatetargetweapon.cpp
CONST	ENDS
;	COMDAT ?CheckTarget@ioRotateTargetWeapon@@IAEXPAVioPlayStage@@@Z
_TEXT	SEGMENT
_qtNewRot$531418 = -136					; size = 16
$T536678 = -120						; size = 4
_qtRot$531407 = -116					; size = 16
$T536674 = -100						; size = 4
$T536676 = -96						; size = 4
_value$536763 = -92					; size = 4
_pStage$GSCopy$ = -88					; size = 4
$T531416 = -84						; size = 12
_pTarget$531393 = -72					; size = 4
_value$536805 = -68					; size = 4
_value$536777 = -64					; size = 4
_iter$ = -60						; size = 4
tv670 = -56						; size = 4
tv666 = -56						; size = 4
tv663 = -56						; size = 4
tv650 = -56						; size = 4
_fRotateAngle$531405 = -56				; size = 4
_fTimePerSec$531403 = -56				; size = 4
$T531414 = -52						; size = 12
_vAxis$531408 = -40					; size = 12
_vNewPos$531415 = -28					; size = 12
_vDir$531413 = -16					; size = 12
__$ArrayPad$ = -4					; size = 4
_pStage$ = 8						; size = 4
?CheckTarget@ioRotateTargetWeapon@@IAEXPAVioPlayStage@@@Z PROC ; ioRotateTargetWeapon::CheckTarget, COMDAT
; _this$ = ecx

; 331  : {

  00000	55		 push	 ebp
  00001	8b ec		 mov	 ebp, esp
  00003	81 ec 88 00 00
	00		 sub	 esp, 136		; 00000088H
  00009	a1 00 00 00 00	 mov	 eax, DWORD PTR ___security_cookie
  0000e	33 c5		 xor	 eax, ebp
  00010	89 45 fc	 mov	 DWORD PTR __$ArrayPad$[ebp], eax
  00013	8b 45 08	 mov	 eax, DWORD PTR _pStage$[ebp]
  00016	53		 push	 ebx
  00017	8b d9		 mov	 ebx, ecx

; 336  : 	while( iter != m_TargetInfoList.end() )

  00019	89 45 a8	 mov	 DWORD PTR _pStage$GSCopy$[ebp], eax
  0001c	85 c0		 test	 eax, eax
  0001e	0f 84 ae 02 00
	00		 je	 $LN4@CheckTarge

; 332  : 	if( !pStage )	return;
; 333  : 	if( m_TargetInfoList.empty() )	return;

  00024	8b 8b f4 08 00
	00		 mov	 ecx, DWORD PTR [ebx+2292]
  0002a	3b 8b f8 08 00
	00		 cmp	 ecx, DWORD PTR [ebx+2296]
  00030	0f 84 9c 02 00
	00		 je	 $LN4@CheckTarge

; 334  : 
; 335  : 	TargetInfoList::iterator iter = m_TargetInfoList.begin();

  00036	56		 push	 esi
  00037	8b f1		 mov	 esi, ecx
  00039	89 75 c4	 mov	 DWORD PTR _iter$[ebp], esi

; 336  : 	while( iter != m_TargetInfoList.end() )

  0003c	3b b3 f8 08 00
	00		 cmp	 esi, DWORD PTR [ebx+2296]
  00042	0f 84 89 02 00
	00		 je	 $LN72@CheckTarge
  00048	57		 push	 edi
  00049	eb 03		 jmp	 SHORT $LN5@CheckTarge
$LL71@CheckTarge:
  0004b	8b 75 c4	 mov	 esi, DWORD PTR _iter$[ebp]
$LN5@CheckTarge:

; 337  : 	{
; 338  : 		TargetInfo &kInfo = *iter;
; 339  : 		ioBaseChar *pTarget = pStage->GetBaseChar( kInfo.m_TargetName );

  0004e	8b 4d a8	 mov	 ecx, DWORD PTR _pStage$GSCopy$[ebp]
  00051	56		 push	 esi
  00052	e8 00 00 00 00	 call	 ?GetBaseChar@ioPlayStage@@QAEPAVioBaseChar@@ABVioHashString@@@Z ; ioPlayStage::GetBaseChar
  00057	8b f8		 mov	 edi, eax
  00059	89 7d b8	 mov	 DWORD PTR _pTarget$531393[ebp], edi

; 340  : 		if( !pTarget )

  0005c	85 ff		 test	 edi, edi
  0005e	75 1a		 jne	 SHORT $LN3@CheckTarge

; 341  : 		{
; 342  : 			iter = m_TargetInfoList.erase( iter );

  00060	56		 push	 esi
  00061	8d 45 9c	 lea	 eax, DWORD PTR $T536674[ebp]
  00064	50		 push	 eax
  00065	8d 8b f4 08 00
	00		 lea	 ecx, DWORD PTR [ebx+2292]
  0006b	e8 00 00 00 00	 call	 ?erase@?$vector@UTargetInfo@ioRotateTargetWeapon@@V?$allocator@UTargetInfo@ioRotateTargetWeapon@@@std@@@std@@QAE?AV?$_Vector_iterator@V?$_Vector_val@UTargetInfo@ioRotateTargetWeapon@@V?$allocator@UTargetInfo@ioRotateTargetWeapon@@@std@@@std@@@2@V?$_Vector_const_iterator@V?$_Vector_val@UTargetInfo@ioRotateTargetWeapon@@V?$allocator@UTargetInfo@ioRotateTargetWeapon@@@std@@@std@@@2@@Z ; std::vector<ioRotateTargetWeapon::TargetInfo,std::allocator<ioRotateTargetWeapon::TargetInfo> >::erase
  00070	8b 00		 mov	 eax, DWORD PTR [eax]
  00072	89 45 c4	 mov	 DWORD PTR _iter$[ebp], eax

; 343  : 			continue;

  00075	e9 47 02 00 00	 jmp	 $LN70@CheckTarge
$LN3@CheckTarge:

; 344  : 		}
; 345  : 
; 346  : 		if( !pTarget->CheckGrapplingExceptionState() && pTarget->IsNeedProcess() )

  0007a	8b cf		 mov	 ecx, edi
  0007c	e8 00 00 00 00	 call	 ?CheckGrapplingExceptionState@ioBaseChar@@QAE_NXZ ; ioBaseChar::CheckGrapplingExceptionState
  00081	84 c0		 test	 al, al
  00083	75 13		 jne	 SHORT $LN2@CheckTarge
  00085	8b 07		 mov	 eax, DWORD PTR [edi]
  00087	8b cf		 mov	 ecx, edi
  00089	ff 90 00 01 00
	00		 call	 DWORD PTR [eax+256]
  0008f	84 c0		 test	 al, al
  00091	74 05		 je	 SHORT $LN2@CheckTarge

; 347  : 		{
; 348  : 			iter = m_TargetInfoList.erase( iter );

  00093	8d 45 a0	 lea	 eax, DWORD PTR $T536676[ebp]

; 349  : 			SendExceptionTarget( pTarget );
; 350  : 			continue;

  00096	eb 1a		 jmp	 SHORT $LN76@CheckTarge
$LN2@CheckTarge:

; 351  : 		}
; 352  : 
; 353  : 		if( pTarget->GetState() != CS_SKIP_STUN && pTarget->IsNeedProcess() )

  00098	80 bf 10 03 00
	00 48		 cmp	 BYTE PTR [edi+784], 72	; 00000048H
  0009f	74 30		 je	 SHORT $LN1@CheckTarge
  000a1	8b 07		 mov	 eax, DWORD PTR [edi]
  000a3	8b cf		 mov	 ecx, edi
  000a5	ff 90 00 01 00
	00		 call	 DWORD PTR [eax+256]
  000ab	84 c0		 test	 al, al
  000ad	74 22		 je	 SHORT $LN1@CheckTarge

; 354  : 		{
; 355  : 			iter = m_TargetInfoList.erase( iter );

  000af	8d 45 88	 lea	 eax, DWORD PTR $T536678[ebp]
$LN76@CheckTarge:
  000b2	56		 push	 esi
  000b3	50		 push	 eax
  000b4	8d 8b f4 08 00
	00		 lea	 ecx, DWORD PTR [ebx+2292]
  000ba	e8 00 00 00 00	 call	 ?erase@?$vector@UTargetInfo@ioRotateTargetWeapon@@V?$allocator@UTargetInfo@ioRotateTargetWeapon@@@std@@@std@@QAE?AV?$_Vector_iterator@V?$_Vector_val@UTargetInfo@ioRotateTargetWeapon@@V?$allocator@UTargetInfo@ioRotateTargetWeapon@@@std@@@std@@@2@V?$_Vector_const_iterator@V?$_Vector_val@UTargetInfo@ioRotateTargetWeapon@@V?$allocator@UTargetInfo@ioRotateTargetWeapon@@@std@@@std@@@2@@Z ; std::vector<ioRotateTargetWeapon::TargetInfo,std::allocator<ioRotateTargetWeapon::TargetInfo> >::erase
  000bf	8b 00		 mov	 eax, DWORD PTR [eax]

; 356  : 			SendExceptionTarget( pTarget );

  000c1	57		 push	 edi
  000c2	8b cb		 mov	 ecx, ebx
  000c4	89 45 c4	 mov	 DWORD PTR _iter$[ebp], eax
  000c7	e8 00 00 00 00	 call	 ?SendExceptionTarget@ioRotateTargetWeapon@@IAEXPAVioBaseChar@@@Z ; ioRotateTargetWeapon::SendExceptionTarget

; 357  : 			continue;

  000cc	e9 f0 01 00 00	 jmp	 $LN70@CheckTarge
$LN1@CheckTarge:

; 358  : 		}
; 359  : 
; 360  : 		float fTimePerSec = g_FrameTimer.GetSecPerFrame();

  000d1	ff 15 00 00 00
	00		 call	 DWORD PTR __imp_?GetSingleton@ioFrameTimer@@SAAAV1@XZ
  000d7	8b c8		 mov	 ecx, eax
  000d9	ff 15 00 00 00
	00		 call	 DWORD PTR __imp_?GetSecPerFrame@ioFrameTimer@@QBEMXZ
  000df	d9 5d c8	 fstp	 DWORD PTR _fTimePerSec$531403[ebp]

; 361  : 		float fRate = (fTimePerSec*1000) / m_dwRotateSpeed;

  000e2	8d 45 a4	 lea	 eax, DWORD PTR _value$536763[ebp]
  000e5	50		 push	 eax
  000e6	8d 8b 34 09 00
	00		 lea	 ecx, DWORD PTR [ebx+2356]
  000ec	e8 00 00 00 00	 call	 ?DecryptValueToPool@?$CEncrypt@M@@QAEXPAM@Z ; CEncrypt<float>::DecryptValueToPool

; 362  : 		float fRotateAngle = FLOAT360 * fRate;

  000f1	b8 68 01 00 00	 mov	 eax, 360		; 00000168H

; 363  : 		fRotateAngle = ioMath::ArrangeHead( fRotateAngle );

  000f6	d9 45 c8	 fld	 DWORD PTR _fTimePerSec$531403[ebp]
  000f9	dc 0d 00 00 00
	00		 fmul	 QWORD PTR __real@408f400000000000
  000ff	d8 75 a4	 fdiv	 DWORD PTR _value$536763[ebp]
  00102	d9 5d c8	 fstp	 DWORD PTR tv670[ebp]
  00105	d9 45 c8	 fld	 DWORD PTR tv670[ebp]
  00108	89 45 c8	 mov	 DWORD PTR tv666[ebp], eax
  0010b	db 45 c8	 fild	 DWORD PTR tv666[ebp]
  0010e	85 c0		 test	 eax, eax
  00110	79 06		 jns	 SHORT $LN74@CheckTarge
  00112	d8 05 00 00 00
	00		 fadd	 DWORD PTR __real@4f800000
$LN74@CheckTarge:

; 362  : 		float fRotateAngle = FLOAT360 * fRate;

  00118	de c9		 fmulp	 ST(1), ST(0)

; 363  : 		fRotateAngle = ioMath::ArrangeHead( fRotateAngle );

  0011a	51		 push	 ecx
  0011b	d9 5d c8	 fstp	 DWORD PTR tv663[ebp]
  0011e	d9 45 c8	 fld	 DWORD PTR tv663[ebp]
  00121	d9 1c 24	 fstp	 DWORD PTR [esp]
  00124	ff 15 00 00 00
	00		 call	 DWORD PTR __imp_?ArrangeHead@ioMath@@SAMM@Z

; 364  : 
; 365  : 		D3DXQUATERNION	qtRot;
; 366  : 		D3DXVECTOR3 vAxis = ioMath::UNIT_Y;

  0012a	8b 35 00 00 00
	00		 mov	 esi, DWORD PTR __imp_?UNIT_Y@ioMath@@2UD3DXVECTOR3@@A
  00130	d9 5d c8	 fstp	 DWORD PTR _fRotateAngle$531405[ebp]

; 367  : 
; 368  : 		D3DXQuaternionRotationAxis( &qtRot, &vAxis, DEGtoRAD(fRotateAngle) );

  00133	d9 45 c8	 fld	 DWORD PTR _fRotateAngle$531405[ebp]
  00136	8d 7d d8	 lea	 edi, DWORD PTR _vAxis$531408[ebp]
  00139	dc 0d 00 00 00
	00		 fmul	 QWORD PTR __real@3f91df46a2526c7a
  0013f	a5		 movsd
  00140	8d 45 d8	 lea	 eax, DWORD PTR _vAxis$531408[ebp]
  00143	d9 5d c8	 fstp	 DWORD PTR tv650[ebp]
  00146	a5		 movsd
  00147	d9 45 c8	 fld	 DWORD PTR tv650[ebp]
  0014a	d9 1c 24	 fstp	 DWORD PTR [esp]
  0014d	50		 push	 eax
  0014e	8d 45 8c	 lea	 eax, DWORD PTR _qtRot$531407[ebp]
  00151	50		 push	 eax
  00152	a5		 movsd
  00153	e8 00 00 00 00	 call	 _D3DXQuaternionRotationAxis@12

; 369  : 
; 370  : 		D3DXVECTOR3 vDir = kInfo.m_vDir;

  00158	8b 75 c4	 mov	 esi, DWORD PTR _iter$[ebp]
  0015b	83 c6 10	 add	 esi, 16			; 00000010H
  0015e	8d 7d f0	 lea	 edi, DWORD PTR _vDir$531413[ebp]
  00161	a5		 movsd

; 371  : 		vDir = qtRot * vDir;

  00162	8d 45 f0	 lea	 eax, DWORD PTR _vDir$531413[ebp]
  00165	50		 push	 eax
  00166	8d 45 8c	 lea	 eax, DWORD PTR _qtRot$531407[ebp]
  00169	a5		 movsd
  0016a	50		 push	 eax
  0016b	8d 45 cc	 lea	 eax, DWORD PTR $T531414[ebp]
  0016e	50		 push	 eax
  0016f	a5		 movsd
  00170	ff 15 00 00 00
	00		 call	 DWORD PTR __imp_??D@YA?AUD3DXVECTOR3@@ABUD3DXQUATERNION@@ABU0@@Z
  00176	8b f0		 mov	 esi, eax
  00178	8d 7d f0	 lea	 edi, DWORD PTR _vDir$531413[ebp]
  0017b	a5		 movsd
  0017c	83 c4 0c	 add	 esp, 12			; 0000000cH

; 372  : 		D3DXVec3Normalize( &vDir, &vDir );

  0017f	8d 45 f0	 lea	 eax, DWORD PTR _vDir$531413[ebp]
  00182	a5		 movsd
  00183	50		 push	 eax
  00184	50		 push	 eax
  00185	a5		 movsd
  00186	e8 00 00 00 00	 call	 _D3DXVec3Normalize@8

; 373  : 		kInfo.m_vDir = vDir;

  0018b	8b 7d c4	 mov	 edi, DWORD PTR _iter$[ebp]
  0018e	83 c7 10	 add	 edi, 16			; 00000010H
  00191	8d 75 f0	 lea	 esi, DWORD PTR _vDir$531413[ebp]
  00194	a5		 movsd
  00195	a5		 movsd

; 374  : 
; 375  : 		// 
; 376  : 		D3DXVECTOR3 vNewPos = GetPosition() + ( vDir * m_fTargetOffset );

  00196	8d 45 c0	 lea	 eax, DWORD PTR _value$536777[ebp]
  00199	50		 push	 eax
  0019a	8d 8b 74 09 00
	00		 lea	 ecx, DWORD PTR [ebx+2420]
  001a0	a5		 movsd
  001a1	e8 00 00 00 00	 call	 ?DecryptValueToPool@?$CEncrypt@M@@QAEXPAM@Z ; CEncrypt<float>::DecryptValueToPool
  001a6	f3 0f 10 45 c0	 movss	 xmm0, DWORD PTR _value$536777[ebp]
  001ab	f3 0f 10 4d f0	 movss	 xmm1, DWORD PTR _vDir$531413[ebp]
  001b0	8b 03		 mov	 eax, DWORD PTR [ebx]
  001b2	0f 5a c0	 cvtps2pd xmm0, xmm0
  001b5	0f 5a c9	 cvtps2pd xmm1, xmm1
  001b8	f2 0f 59 c1	 mulsd	 xmm0, xmm1
  001bc	f3 0f 10 4d f4	 movss	 xmm1, DWORD PTR _vDir$531413[ebp+4]
  001c1	f2 0f 5a c0	 cvtsd2ss xmm0, xmm0
  001c5	f3 0f 11 45 ac	 movss	 DWORD PTR $T531416[ebp], xmm0
  001ca	f3 0f 10 45 c0	 movss	 xmm0, DWORD PTR _value$536777[ebp]
  001cf	0f 5a c0	 cvtps2pd xmm0, xmm0
  001d2	0f 5a c9	 cvtps2pd xmm1, xmm1
  001d5	f2 0f 59 c1	 mulsd	 xmm0, xmm1
  001d9	f3 0f 10 4d c0	 movss	 xmm1, DWORD PTR _value$536777[ebp]
  001de	f2 0f 5a c0	 cvtsd2ss xmm0, xmm0
  001e2	f3 0f 11 45 b0	 movss	 DWORD PTR $T531416[ebp+4], xmm0
  001e7	f3 0f 10 45 f8	 movss	 xmm0, DWORD PTR _vDir$531413[ebp+8]
  001ec	0f 5a c0	 cvtps2pd xmm0, xmm0
  001ef	0f 5a c9	 cvtps2pd xmm1, xmm1
  001f2	f2 0f 59 c1	 mulsd	 xmm0, xmm1
  001f6	66 0f 5a c0	 cvtpd2ps xmm0, xmm0
  001fa	8b cb		 mov	 ecx, ebx
  001fc	f3 0f 11 45 b4	 movss	 DWORD PTR $T531416[ebp+8], xmm0
  00201	ff 50 70	 call	 DWORD PTR [eax+112]
  00204	f3 0f 10 40 04	 movss	 xmm0, DWORD PTR [eax+4]
  00209	0f 5a c0	 cvtps2pd xmm0, xmm0
  0020c	f3 0f 10 4d b0	 movss	 xmm1, DWORD PTR $T531416[ebp+4]
  00211	f3 0f 10 55 b4	 movss	 xmm2, DWORD PTR $T531416[ebp+8]
  00216	f3 0f 10 5d ac	 movss	 xmm3, DWORD PTR $T531416[ebp]
  0021b	0f 5a c9	 cvtps2pd xmm1, xmm1
  0021e	f2 0f 58 c1	 addsd	 xmm0, xmm1
  00222	f3 0f 10 48 08	 movss	 xmm1, DWORD PTR [eax+8]
  00227	0f 5a d2	 cvtps2pd xmm2, xmm2
  0022a	0f 5a c9	 cvtps2pd xmm1, xmm1
  0022d	f2 0f 58 ca	 addsd	 xmm1, xmm2
  00231	f3 0f 10 10	 movss	 xmm2, DWORD PTR [eax]
  00235	0f 5a d2	 cvtps2pd xmm2, xmm2
  00238	0f 5a db	 cvtps2pd xmm3, xmm3

; 377  : 		vNewPos.y += m_fTargetHeightOffset;

  0023b	8d 45 bc	 lea	 eax, DWORD PTR _value$536805[ebp]
  0023e	f2 0f 58 d3	 addsd	 xmm2, xmm3
  00242	66 0f 5a c0	 cvtpd2ps xmm0, xmm0
  00246	66 0f 5a c9	 cvtpd2ps xmm1, xmm1
  0024a	66 0f 5a d2	 cvtpd2ps xmm2, xmm2
  0024e	50		 push	 eax
  0024f	8d 8b a4 09 00
	00		 lea	 ecx, DWORD PTR [ebx+2468]
  00255	f3 0f 11 55 e4	 movss	 DWORD PTR _vNewPos$531415[ebp], xmm2
  0025a	f3 0f 11 45 e8	 movss	 DWORD PTR _vNewPos$531415[ebp+4], xmm0
  0025f	f3 0f 11 4d ec	 movss	 DWORD PTR _vNewPos$531415[ebp+8], xmm1
  00264	e8 00 00 00 00	 call	 ?DecryptValueToPool@?$CEncrypt@M@@QAEXPAM@Z ; CEncrypt<float>::DecryptValueToPool
  00269	f3 0f 10 4d e8	 movss	 xmm1, DWORD PTR _vNewPos$531415[ebp+4]
  0026e	f3 0f 10 45 bc	 movss	 xmm0, DWORD PTR _value$536805[ebp]

; 378  : 		pTarget->SetWorldPosition( vNewPos );

  00273	8b 75 b8	 mov	 esi, DWORD PTR _pTarget$531393[ebp]
  00276	0f 5a c0	 cvtps2pd xmm0, xmm0
  00279	0f 5a c9	 cvtps2pd xmm1, xmm1
  0027c	f2 0f 58 c1	 addsd	 xmm0, xmm1
  00280	8d 4d e4	 lea	 ecx, DWORD PTR _vNewPos$531415[ebp]
  00283	66 0f 5a c0	 cvtpd2ps xmm0, xmm0
  00287	f3 0f 11 45 e8	 movss	 DWORD PTR _vNewPos$531415[ebp+4], xmm0
  0028c	8b 06		 mov	 eax, DWORD PTR [esi]
  0028e	51		 push	 ecx
  0028f	8b ce		 mov	 ecx, esi
  00291	ff 50 44	 call	 DWORD PTR [eax+68]

; 379  : 
; 380  : 		//    
; 381  : 		D3DXQUATERNION	qtNewRot;
; 382  : 		vDir.y = 0.0f;

  00294	0f 57 c0	 xorps	 xmm0, xmm0

; 383  : 		ioMath::CalcDirectionQuaternion( qtNewRot, vDir );

  00297	8d 45 f0	 lea	 eax, DWORD PTR _vDir$531413[ebp]
  0029a	50		 push	 eax
  0029b	8d 85 78 ff ff
	ff		 lea	 eax, DWORD PTR _qtNewRot$531418[ebp]
  002a1	50		 push	 eax
  002a2	f3 0f 11 45 f4	 movss	 DWORD PTR _vDir$531413[ebp+4], xmm0
  002a7	ff 15 00 00 00
	00		 call	 DWORD PTR __imp_?CalcDirectionQuaternion@ioMath@@SAXAAUD3DXQUATERNION@@ABUD3DXVECTOR3@@@Z

; 384  : 		pTarget->SetWorldOrientation( qtNewRot );

  002ad	8b 06		 mov	 eax, DWORD PTR [esi]
  002af	59		 pop	 ecx
  002b0	59		 pop	 ecx
  002b1	8d 8d 78 ff ff
	ff		 lea	 ecx, DWORD PTR _qtNewRot$531418[ebp]
  002b7	51		 push	 ecx
  002b8	8b ce		 mov	 ecx, esi
  002ba	ff 50 48	 call	 DWORD PTR [eax+72]

; 385  : 
; 386  : 		++iter;

  002bd	83 45 c4 1c	 add	 DWORD PTR _iter$[ebp], 28 ; 0000001cH
$LN70@CheckTarge:

; 336  : 	while( iter != m_TargetInfoList.end() )

  002c1	8b 45 c4	 mov	 eax, DWORD PTR _iter$[ebp]
  002c4	3b 83 f8 08 00
	00		 cmp	 eax, DWORD PTR [ebx+2296]
  002ca	0f 85 7b fd ff
	ff		 jne	 $LL71@CheckTarge
  002d0	5f		 pop	 edi
$LN72@CheckTarge:
  002d1	5e		 pop	 esi
$LN4@CheckTarge:

; 387  : 	}
; 388  : }

  002d2	8b 4d fc	 mov	 ecx, DWORD PTR __$ArrayPad$[ebp]
  002d5	33 cd		 xor	 ecx, ebp
  002d7	5b		 pop	 ebx
  002d8	e8 00 00 00 00	 call	 @__security_check_cookie@4
  002dd	c9		 leave
  002de	c2 04 00	 ret	 4
?CheckTarget@ioRotateTargetWeapon@@IAEXPAVioPlayStage@@@Z ENDP ; ioRotateTargetWeapon::CheckTarget
_TEXT	ENDS
PUBLIC	?push_back@?$vector@UTargetInfo@ioRotateTargetWeapon@@V?$allocator@UTargetInfo@ioRotateTargetWeapon@@@std@@@std@@QAEXABUTargetInfo@ioRotateTargetWeapon@@@Z ; std::vector<ioRotateTargetWeapon::TargetInfo,std::allocator<ioRotateTargetWeapon::TargetInfo> >::push_back
; Function compile flags: /Ogsp
; File c:\program files (x86)\microsoft visual studio 10.0\vc\include\vector
;	COMDAT ?push_back@?$vector@UTargetInfo@ioRotateTargetWeapon@@V?$allocator@UTargetInfo@ioRotateTargetWeapon@@@std@@@std@@QAEXABUTargetInfo@ioRotateTargetWeapon@@@Z
_TEXT	SEGMENT
__Val$ = 8						; size = 4
?push_back@?$vector@UTargetInfo@ioRotateTargetWeapon@@V?$allocator@UTargetInfo@ioRotateTargetWeapon@@@std@@@std@@QAEXABUTargetInfo@ioRotateTargetWeapon@@@Z PROC ; std::vector<ioRotateTargetWeapon::TargetInfo,std::allocator<ioRotateTargetWeapon::TargetInfo> >::push_back, COMDAT
; _this$ = ecx

; 976  : 		{	// insert element at end

  00000	55		 push	 ebp
  00001	8b ec		 mov	 ebp, esp
  00003	56		 push	 esi
  00004	8b f1		 mov	 esi, ecx

; 977  : 		if (_Inside(_STD addressof(_Val)))

  00006	8b 4e 04	 mov	 ecx, DWORD PTR [esi+4]
  00009	57		 push	 edi
  0000a	8b 7d 08	 mov	 edi, DWORD PTR __Val$[ebp]
  0000d	3b f9		 cmp	 edi, ecx
  0000f	73 33		 jae	 SHORT $LN4@push_back
  00011	8b 16		 mov	 edx, DWORD PTR [esi]
  00013	3b d7		 cmp	 edx, edi
  00015	77 2d		 ja	 SHORT $LN4@push_back

; 978  : 			{	// push back an element
; 979  : 			size_type _Idx = _STD addressof(_Val) - this->_Myfirst;

  00017	8b c7		 mov	 eax, edi
  00019	2b c2		 sub	 eax, edx
  0001b	6a 1c		 push	 28			; 0000001cH
  0001d	99		 cdq
  0001e	5f		 pop	 edi
  0001f	f7 ff		 idiv	 edi
  00021	8b f8		 mov	 edi, eax

; 980  : 			if (this->_Mylast == this->_Myend)

  00023	3b 4e 08	 cmp	 ecx, DWORD PTR [esi+8]
  00026	75 09		 jne	 SHORT $LN3@push_back

; 981  : 				_Reserve(1);

  00028	6a 01		 push	 1
  0002a	8b ce		 mov	 ecx, esi
  0002c	e8 00 00 00 00	 call	 ?_Reserve@?$vector@UTargetInfo@ioRotateTargetWeapon@@V?$allocator@UTargetInfo@ioRotateTargetWeapon@@@std@@@std@@IAEXI@Z ; std::vector<ioRotateTargetWeapon::TargetInfo,std::allocator<ioRotateTargetWeapon::TargetInfo> >::_Reserve
$LN3@push_back:

; 982  : 			_Orphan_range(this->_Mylast, this->_Mylast);
; 983  : 			_Cons_val(this->_Alval,
; 984  : 				this->_Mylast,
; 985  : 				this->_Myfirst[_Idx]);

  00031	6b ff 1c	 imul	 edi, 28			; 0000001cH
  00034	03 3e		 add	 edi, DWORD PTR [esi]
  00036	8d 4e 0c	 lea	 ecx, DWORD PTR [esi+12]
  00039	57		 push	 edi
  0003a	ff 76 04	 push	 DWORD PTR [esi+4]
  0003d	e8 00 00 00 00	 call	 ??$construct@AAUTargetInfo@ioRotateTargetWeapon@@@?$allocator@UTargetInfo@ioRotateTargetWeapon@@@std@@QAEXPAUTargetInfo@ioRotateTargetWeapon@@AAU23@@Z ; std::allocator<ioRotateTargetWeapon::TargetInfo>::construct<ioRotateTargetWeapon::TargetInfo &>

; 986  : 			++this->_Mylast;
; 987  : 			}
; 988  : 		else

  00042	eb 19		 jmp	 SHORT $LN30@push_back
$LN4@push_back:

; 989  : 			{	// push back a non-element
; 990  : 			if (this->_Mylast == this->_Myend)

  00044	3b 4e 08	 cmp	 ecx, DWORD PTR [esi+8]
  00047	75 09		 jne	 SHORT $LN1@push_back

; 991  : 				_Reserve(1);

  00049	6a 01		 push	 1
  0004b	8b ce		 mov	 ecx, esi
  0004d	e8 00 00 00 00	 call	 ?_Reserve@?$vector@UTargetInfo@ioRotateTargetWeapon@@V?$allocator@UTargetInfo@ioRotateTargetWeapon@@@std@@@std@@IAEXI@Z ; std::vector<ioRotateTargetWeapon::TargetInfo,std::allocator<ioRotateTargetWeapon::TargetInfo> >::_Reserve
$LN1@push_back:

; 992  : 			_Orphan_range(this->_Mylast, this->_Mylast);
; 993  : 			_Cons_val(this->_Alval,
; 994  : 				this->_Mylast,
; 995  : 				_Val);

  00052	57		 push	 edi
  00053	ff 76 04	 push	 DWORD PTR [esi+4]
  00056	e8 00 00 00 00	 call	 ??$_Construct@UTargetInfo@ioRotateTargetWeapon@@ABU12@@std@@YAXPAUTargetInfo@ioRotateTargetWeapon@@ABU12@@Z ; std::_Construct<ioRotateTargetWeapon::TargetInfo,ioRotateTargetWeapon::TargetInfo const &>
  0005b	59		 pop	 ecx
  0005c	59		 pop	 ecx
$LN30@push_back:

; 996  : 			++this->_Mylast;

  0005d	83 46 04 1c	 add	 DWORD PTR [esi+4], 28	; 0000001cH
  00061	5f		 pop	 edi
  00062	5e		 pop	 esi

; 997  : 			}
; 998  : 		}

  00063	5d		 pop	 ebp
  00064	c2 04 00	 ret	 4
?push_back@?$vector@UTargetInfo@ioRotateTargetWeapon@@V?$allocator@UTargetInfo@ioRotateTargetWeapon@@@std@@@std@@QAEXABUTargetInfo@ioRotateTargetWeapon@@@Z ENDP ; std::vector<ioRotateTargetWeapon::TargetInfo,std::allocator<ioRotateTargetWeapon::TargetInfo> >::push_back
_TEXT	ENDS
PUBLIC	?clear@?$vector@UTargetInfo@ioRotateTargetWeapon@@V?$allocator@UTargetInfo@ioRotateTargetWeapon@@@std@@@std@@QAEXXZ ; std::vector<ioRotateTargetWeapon::TargetInfo,std::allocator<ioRotateTargetWeapon::TargetInfo> >::clear
; Function compile flags: /Ogsp
;	COMDAT ?clear@?$vector@UTargetInfo@ioRotateTargetWeapon@@V?$allocator@UTargetInfo@ioRotateTargetWeapon@@@std@@@std@@QAEXXZ
_TEXT	SEGMENT
$T536887 = -4						; size = 4
?clear@?$vector@UTargetInfo@ioRotateTargetWeapon@@V?$allocator@UTargetInfo@ioRotateTargetWeapon@@@std@@@std@@QAEXXZ PROC ; std::vector<ioRotateTargetWeapon::TargetInfo,std::allocator<ioRotateTargetWeapon::TargetInfo> >::clear, COMDAT
; _this$ = ecx

; 1217 : 		{	// erase all

  00000	55		 push	 ebp
  00001	8b ec		 mov	 ebp, esp
  00003	51		 push	 ecx

; 1218 : 		erase(begin(), end());

  00004	8b 41 04	 mov	 eax, DWORD PTR [ecx+4]
  00007	8b 11		 mov	 edx, DWORD PTR [ecx]
  00009	50		 push	 eax
  0000a	52		 push	 edx
  0000b	8d 45 fc	 lea	 eax, DWORD PTR $T536887[ebp]
  0000e	50		 push	 eax
  0000f	e8 00 00 00 00	 call	 ?erase@?$vector@UTargetInfo@ioRotateTargetWeapon@@V?$allocator@UTargetInfo@ioRotateTargetWeapon@@@std@@@std@@QAE?AV?$_Vector_iterator@V?$_Vector_val@UTargetInfo@ioRotateTargetWeapon@@V?$allocator@UTargetInfo@ioRotateTargetWeapon@@@std@@@std@@@2@V?$_Vector_const_iterator@V?$_Vector_val@UTargetInfo@ioRotateTargetWeapon@@V?$allocator@UTargetInfo@ioRotateTargetWeapon@@@std@@@std@@@2@0@Z ; std::vector<ioRotateTargetWeapon::TargetInfo,std::allocator<ioRotateTargetWeapon::TargetInfo> >::erase

; 1219 : 		}

  00014	c9		 leave
  00015	c3		 ret	 0
?clear@?$vector@UTargetInfo@ioRotateTargetWeapon@@V?$allocator@UTargetInfo@ioRotateTargetWeapon@@@std@@@std@@QAEXXZ ENDP ; std::vector<ioRotateTargetWeapon::TargetInfo,std::allocator<ioRotateTargetWeapon::TargetInfo> >::clear
_TEXT	ENDS
PUBLIC	?_Reserve@?$vector@VioHashString@@V?$allocator@VioHashString@@@std@@@std@@IAEXI@Z ; std::vector<ioHashString,std::allocator<ioHashString> >::_Reserve
; Function compile flags: /Ogsp
;	COMDAT ?_Reserve@?$vector@VioHashString@@V?$allocator@VioHashString@@@std@@@std@@IAEXI@Z
_TEXT	SEGMENT
__Count$ = 8						; size = 4
?_Reserve@?$vector@VioHashString@@V?$allocator@VioHashString@@@std@@@std@@IAEXI@Z PROC ; std::vector<ioHashString,std::allocator<ioHashString> >::_Reserve, COMDAT
; _this$ = ecx

; 1290 : 		{	// ensure room for _Count new elements, grow exponentially

  00000	55		 push	 ebp
  00001	8b ec		 mov	 ebp, esp
  00003	56		 push	 esi
  00004	8b f1		 mov	 esi, ecx

; 1291 : 		size_type _Size = size();

  00006	8b 0e		 mov	 ecx, DWORD PTR [esi]
  00008	8b 46 04	 mov	 eax, DWORD PTR [esi+4]
  0000b	2b c1		 sub	 eax, ecx

; 1292 : 		if (max_size() - _Count < _Size)

  0000d	ba ff ff ff 0f	 mov	 edx, 268435455		; 0fffffffH
  00012	2b 55 08	 sub	 edx, DWORD PTR __Count$[ebp]
  00015	c1 f8 04	 sar	 eax, 4
  00018	3b d0		 cmp	 edx, eax
  0001a	73 0b		 jae	 SHORT $LN4@Reserve@2

; 1293 : 			_Xlen();

  0001c	68 00 00 00 00	 push	 OFFSET ??_C@_0BD@OLBABOEK@vector?$DMT?$DO?5too?5long?$AA@
  00021	ff 15 00 00 00
	00		 call	 DWORD PTR __imp_?_Xlength_error@std@@YAXPBD@Z
$LN21@Reserve@2:
$LN4@Reserve@2:

; 1294 : 		else if ((_Size += _Count) <= capacity())

  00027	8b 56 08	 mov	 edx, DWORD PTR [esi+8]
  0002a	03 45 08	 add	 eax, DWORD PTR __Count$[ebp]
  0002d	2b d1		 sub	 edx, ecx
  0002f	c1 fa 04	 sar	 edx, 4
  00032	3b c2		 cmp	 eax, edx
  00034	76 10		 jbe	 SHORT $LN1@Reserve@2

; 1295 : 			;
; 1296 : 		else
; 1297 : 			reserve(_Grow_to(_Size));

  00036	50		 push	 eax
  00037	8b ce		 mov	 ecx, esi
  00039	e8 00 00 00 00	 call	 ?_Grow_to@?$vector@VioHashString@@V?$allocator@VioHashString@@@std@@@std@@IBEII@Z ; std::vector<ioHashString,std::allocator<ioHashString> >::_Grow_to
  0003e	50		 push	 eax
  0003f	8b ce		 mov	 ecx, esi
  00041	e8 00 00 00 00	 call	 ?reserve@?$vector@VioHashString@@V?$allocator@VioHashString@@@std@@@std@@QAEXI@Z ; std::vector<ioHashString,std::allocator<ioHashString> >::reserve
$LN1@Reserve@2:
  00046	5e		 pop	 esi

; 1298 : 		}

  00047	5d		 pop	 ebp
  00048	c2 04 00	 ret	 4
$LN20@Reserve@2:
?_Reserve@?$vector@VioHashString@@V?$allocator@VioHashString@@@std@@@std@@IAEXI@Z ENDP ; std::vector<ioHashString,std::allocator<ioHashString> >::_Reserve
_TEXT	ENDS
PUBLIC	??1?$vector@VioHashString@@V?$allocator@VioHashString@@@std@@@std@@QAE@XZ ; std::vector<ioHashString,std::allocator<ioHashString> >::~vector<ioHashString,std::allocator<ioHashString> >
; Function compile flags: /Ogsp
;	COMDAT ??1?$vector@VioHashString@@V?$allocator@VioHashString@@@std@@@std@@QAE@XZ
_TEXT	SEGMENT
??1?$vector@VioHashString@@V?$allocator@VioHashString@@@std@@@std@@QAE@XZ PROC ; std::vector<ioHashString,std::allocator<ioHashString> >::~vector<ioHashString,std::allocator<ioHashString> >, COMDAT
; _this$ = ecx

; 705  : 		_Tidy();

  00000	e9 00 00 00 00	 jmp	 ?_Tidy@?$vector@VioHashString@@V?$allocator@VioHashString@@@std@@@std@@IAEXXZ ; std::vector<ioHashString,std::allocator<ioHashString> >::_Tidy
??1?$vector@VioHashString@@V?$allocator@VioHashString@@@std@@@std@@QAE@XZ ENDP ; std::vector<ioHashString,std::allocator<ioHashString> >::~vector<ioHashString,std::allocator<ioHashString> >
_TEXT	ENDS
PUBLIC	?clear@?$vector@VioHashString@@V?$allocator@VioHashString@@@std@@@std@@QAEXXZ ; std::vector<ioHashString,std::allocator<ioHashString> >::clear
; Function compile flags: /Ogsp
;	COMDAT ?clear@?$vector@VioHashString@@V?$allocator@VioHashString@@@std@@@std@@QAEXXZ
_TEXT	SEGMENT
$T536981 = -4						; size = 4
?clear@?$vector@VioHashString@@V?$allocator@VioHashString@@@std@@@std@@QAEXXZ PROC ; std::vector<ioHashString,std::allocator<ioHashString> >::clear, COMDAT
; _this$ = ecx

; 1217 : 		{	// erase all

  00000	55		 push	 ebp
  00001	8b ec		 mov	 ebp, esp
  00003	51		 push	 ecx

; 1218 : 		erase(begin(), end());

  00004	8b 41 04	 mov	 eax, DWORD PTR [ecx+4]
  00007	8b 11		 mov	 edx, DWORD PTR [ecx]
  00009	50		 push	 eax
  0000a	52		 push	 edx
  0000b	8d 45 fc	 lea	 eax, DWORD PTR $T536981[ebp]
  0000e	50		 push	 eax
  0000f	e8 00 00 00 00	 call	 ?erase@?$vector@VioHashString@@V?$allocator@VioHashString@@@std@@@std@@QAE?AV?$_Vector_iterator@V?$_Vector_val@VioHashString@@V?$allocator@VioHashString@@@std@@@std@@@2@V?$_Vector_const_iterator@V?$_Vector_val@VioHashString@@V?$allocator@VioHashString@@@std@@@std@@@2@0@Z ; std::vector<ioHashString,std::allocator<ioHashString> >::erase

; 1219 : 		}

  00014	c9		 leave
  00015	c3		 ret	 0
?clear@?$vector@VioHashString@@V?$allocator@VioHashString@@@std@@@std@@QAEXXZ ENDP ; std::vector<ioHashString,std::allocator<ioHashString> >::clear
_TEXT	ENDS
PUBLIC	??_7ioRotateTargetWeapon@@6B@			; ioRotateTargetWeapon::`vftable'
PUBLIC	??0ioRotateTargetWeapon@@QAE@PAVioBaseChar@@PBUWeaponAttribute@@@Z ; ioRotateTargetWeapon::ioRotateTargetWeapon
PUBLIC	??_R4ioRotateTargetWeapon@@6B@			; ioRotateTargetWeapon::`RTTI Complete Object Locator'
PUBLIC	??_R0?AVioRotateTargetWeapon@@@8		; ioRotateTargetWeapon `RTTI Type Descriptor'
PUBLIC	??_R3ioRotateTargetWeapon@@8			; ioRotateTargetWeapon::`RTTI Class Hierarchy Descriptor'
PUBLIC	??_R2ioRotateTargetWeapon@@8			; ioRotateTargetWeapon::`RTTI Base Class Array'
PUBLIC	??_R1A@?0A@EA@ioRotateTargetWeapon@@8		; ioRotateTargetWeapon::`RTTI Base Class Descriptor at (0,-1,0,64)'
PUBLIC	??_R1A@?0A@EA@ioWeapon@@8			; ioWeapon::`RTTI Base Class Descriptor at (0,-1,0,64)'
PUBLIC	??_R0?AVioWeapon@@@8				; ioWeapon `RTTI Type Descriptor'
PUBLIC	??_R3ioWeapon@@8				; ioWeapon::`RTTI Class Hierarchy Descriptor'
PUBLIC	??_R2ioWeapon@@8				; ioWeapon::`RTTI Base Class Array'
PUBLIC	?LoadProperty@ioRotateTargetWeapon@@UAEXAAVioINILoader@@@Z ; ioRotateTargetWeapon::LoadProperty
PUBLIC	?Process@ioRotateTargetWeapon@@UAEXMPAVioPlayStage@@@Z ; ioRotateTargetWeapon::Process
PUBLIC	?IsCollision@ioRotateTargetWeapon@@UAE_NPAVioPlayEntity@@_N@Z ; ioRotateTargetWeapon::IsCollision
PUBLIC	?ApplyWeaponSync@ioRotateTargetWeapon@@UAEXAAVSP2Packet@@PAVioPlayStage@@@Z ; ioRotateTargetWeapon::ApplyWeaponSync
EXTRN	__imp_??1ioOrientBox@@QAE@XZ:PROC
EXTRN	??1ioWeapon@@UAE@XZ:PROC			; ioWeapon::~ioWeapon
EXTRN	?SetPeculiarity@ioWeapon@@QAEXK@Z:PROC		; ioWeapon::SetPeculiarity
EXTRN	__imp_??0ioOrientBox@@QAE@XZ:PROC
EXTRN	??0ioWeapon@@QAE@PAVioBaseChar@@PBUWeaponAttribute@@@Z:PROC ; ioWeapon::ioWeapon
EXTRN	?IsAlreadyCollisioned@ioWeapon@@UAE_NPAVioPlayEntity@@@Z:PROC ; ioWeapon::IsAlreadyCollisioned
EXTRN	?AddCollisionEntity@ioWeapon@@UAEXPAVioPlayEntity@@@Z:PROC ; ioWeapon::AddCollisionEntity
EXTRN	?SetOwnerDamageRate@ioWeapon@@UAEXM@Z:PROC	; ioWeapon::SetOwnerDamageRate
EXTRN	?SetOwnerChargeDamageRate@ioWeapon@@UAEXM@Z:PROC ; ioWeapon::SetOwnerChargeDamageRate
EXTRN	?SetOwnerChargeForceRate@ioWeapon@@UAEXM@Z:PROC	; ioWeapon::SetOwnerChargeForceRate
EXTRN	?SetOwnerChargeRangeRate@ioWeapon@@UAEXM@Z:PROC	; ioWeapon::SetOwnerChargeRangeRate
EXTRN	?SetOwnerChargeSpeedRate@ioWeapon@@UAEXM@Z:PROC	; ioWeapon::SetOwnerChargeSpeedRate
EXTRN	?SetOwnerChargeBlowRate@ioWeapon@@UAEXM@Z:PROC	; ioWeapon::SetOwnerChargeBlowRate
EXTRN	?SetOwnerChargeFloatRate@ioWeapon@@UAEXM@Z:PROC	; ioWeapon::SetOwnerChargeFloatRate
EXTRN	?SetOwnerChargeScaleRate@ioWeapon@@UAEXM@Z:PROC	; ioWeapon::SetOwnerChargeScaleRate
EXTRN	?SetOwnerChargeExplosionRate@ioWeapon@@UAEXM@Z:PROC ; ioWeapon::SetOwnerChargeExplosionRate
EXTRN	?SetOwnerChargeWoundedTimeRate@ioWeapon@@UAEXM@Z:PROC ; ioWeapon::SetOwnerChargeWoundedTimeRate
EXTRN	?SetOwnerChargeLiveTimeRate@ioWeapon@@UAEXM@Z:PROC ; ioWeapon::SetOwnerChargeLiveTimeRate
EXTRN	?SetOwnerChargeBuffLiveTimeRate@ioWeapon@@UAEXM@Z:PROC ; ioWeapon::SetOwnerChargeBuffLiveTimeRate
EXTRN	?SetWeaponIndex@ioWeapon@@UAEXK@Z:PROC		; ioWeapon::SetWeaponIndex
EXTRN	?SetGrapplingTargetName@ioWeapon@@UAEXABVioHashString@@@Z:PROC ; ioWeapon::SetGrapplingTargetName
EXTRN	?SetCreateItem@ioWeapon@@UAEXABVioHashString@@@Z:PROC ; ioWeapon::SetCreateItem
EXTRN	?SetTeam@ioWeapon@@UAEXPAVioPlayStage@@W4TeamType@@@Z:PROC ; ioWeapon::SetTeam
EXTRN	?CallReserveAreaWeapon@ioWeapon@@UAEXXZ:PROC	; ioWeapon::CallReserveAreaWeapon
EXTRN	?SetWeaponDead@ioWeapon@@UAEXXZ:PROC		; ioWeapon::SetWeaponDead
EXTRN	?PlayExplosionSound@ioWeapon@@UAEXXZ:PROC	; ioWeapon::PlayExplosionSound
EXTRN	?PlayWoundedSound@ioWeapon@@UAEXPAVioPlayEntity@@@Z:PROC ; ioWeapon::PlayWoundedSound
EXTRN	?PlayDefensedSound@ioWeapon@@UAEXPAVioPlayEntity@@@Z:PROC ; ioWeapon::PlayDefensedSound
EXTRN	?PlayLoopSound@ioWeapon@@UAEXXZ:PROC		; ioWeapon::PlayLoopSound
EXTRN	?StopLoopSound@ioWeapon@@UAEXXZ:PROC		; ioWeapon::StopLoopSound
EXTRN	?GetTargetAirBuffList@ioWeapon@@UBEABV?$vector@UBuffInfoStruct@@V?$allocator@UBuffInfoStruct@@@std@@@std@@XZ:PROC ; ioWeapon::GetTargetAirBuffList
EXTRN	?GetTargetBuffList@ioWeapon@@UBEABV?$vector@UBuffInfoStruct@@V?$allocator@UBuffInfoStruct@@@std@@@std@@XZ:PROC ; ioWeapon::GetTargetBuffList
EXTRN	?GetTargetDownBuffList@ioWeapon@@UBEABV?$vector@UBuffInfoStruct@@V?$allocator@UBuffInfoStruct@@@std@@@std@@XZ:PROC ; ioWeapon::GetTargetDownBuffList
EXTRN	?GetPosition@ioWeapon@@UBEABUD3DXVECTOR3@@XZ:PROC ; ioWeapon::GetPosition
EXTRN	?GetBlowType@ioWeapon@@UBE?AW4BlowTargetType@@XZ:PROC ; ioWeapon::GetBlowType
EXTRN	?GetPushPower@ioWeapon@@UBEMM@Z:PROC		; ioWeapon::GetPushPower
EXTRN	?GetBlowPower@ioWeapon@@UBEMM@Z:PROC		; ioWeapon::GetBlowPower
EXTRN	?GetAirPushPower@ioWeapon@@UBEMM@Z:PROC		; ioWeapon::GetAirPushPower
EXTRN	?GetAirBlowPower@ioWeapon@@UBEMM@Z:PROC		; ioWeapon::GetAirBlowPower
EXTRN	?GetDefensePushPower@ioWeapon@@UBEMM@Z:PROC	; ioWeapon::GetDefensePushPower
EXTRN	?GetCollisionEnableTime@ioWeapon@@UBEKXZ:PROC	; ioWeapon::GetCollisionEnableTime
EXTRN	?SetSylphid@ioWeapon@@UAEHXZ:PROC		; ioWeapon::SetSylphid
EXTRN	?ApplyExtraReserveWeaponByWeaponInfo@ioWeapon@@UAEXPAV1@@Z:PROC ; ioWeapon::ApplyExtraReserveWeaponByWeaponInfo
EXTRN	?SetResistanceAttr@ioWeapon@@UAEXH@Z:PROC	; ioWeapon::SetResistanceAttr
EXTRN	?SetStartCollisionBox@ioWeapon@@UAEXXZ:PROC	; ioWeapon::SetStartCollisionBox
EXTRN	?SetMoveSpeed@ioWeapon@@UAEXM@Z:PROC		; ioWeapon::SetMoveSpeed
EXTRN	?SetFloatPower@ioWeapon@@UAEXM@Z:PROC		; ioWeapon::SetFloatPower
EXTRN	?TestMapCollision@ioWeapon@@UAE_NPAVioOpcodeShape@@PAVioPlayStage@@PBUD3DXMATRIX@@@Z:PROC ; ioWeapon::TestMapCollision
EXTRN	?CheckPreCollision@ioWeapon@@UAEXPAVioPlayEntity@@PAVioPlayStage@@@Z:PROC ; ioWeapon::CheckPreCollision
EXTRN	?CheckStructAndDummy@ioWeapon@@UAEXPAVioPlayEntity@@PAVioPlayStage@@@Z:PROC ; ioWeapon::CheckStructAndDummy
EXTRN	?GetDamage@ioWeapon@@UAEMPAVioPlayEntity@@@Z:PROC ; ioWeapon::GetDamage
EXTRN	?GetBaseDamage@ioWeapon@@UAEMPAVioPlayEntity@@@Z:PROC ; ioWeapon::GetBaseDamage
EXTRN	?GetPushAngle@ioWeapon@@UBEMXZ:PROC		; ioWeapon::GetPushAngle
EXTRN	?IsResistanceMagic@ioWeapon@@UAEHPAVioBaseChar@@@Z:PROC ; ioWeapon::IsResistanceMagic
EXTRN	?IsResistanceBomb@ioWeapon@@UAEHPAVioBaseChar@@@Z:PROC ; ioWeapon::IsResistanceBomb
EXTRN	?IsCanMineExplosion@ioWeapon@@UAE_NXZ:PROC	; ioWeapon::IsCanMineExplosion
EXTRN	?CheckGrapplingState@ioWeapon@@UAE?AW4GrapplingType@@XZ:PROC ; ioWeapon::CheckGrapplingState
EXTRN	?CheckCurAttribute@ioWeapon@@UAEXPBVioPlayEntity@@@Z:PROC ; ioWeapon::CheckCurAttribute
EXTRN	?CheckItemNotDrop@ioWeapon@@UAE_NPAVioBaseChar@@@Z:PROC ; ioWeapon::CheckItemNotDrop
EXTRN	?GetWorldAttackBoxList@ioWeapon@@UAEXAAV?$vector@VioOrientBox@@V?$allocator@VioOrientBox@@@std@@@std@@@Z:PROC ; ioWeapon::GetWorldAttackBoxList
EXTRN	?GetLiveTime@ioWeapon@@UAEKXZ:PROC		; ioWeapon::GetLiveTime
EXTRN	?GetMoveDir@ioWeapon@@UAE?AUD3DXVECTOR3@@XZ:PROC ; ioWeapon::GetMoveDir
EXTRN	?CheckWeaponCollision@ioWeapon@@UAEXXZ:PROC	; ioWeapon::CheckWeaponCollision
EXTRN	?GetRefreshDuration@ioWeapon@@UAEKXZ:PROC	; ioWeapon::GetRefreshDuration
EXTRN	?GetIgnoreDuration@ioWeapon@@UAEKXZ:PROC	; ioWeapon::GetIgnoreDuration
EXTRN	?GetIgnoreTimeTypeDuration@ioWeapon@@UAEKXZ:PROC ; ioWeapon::GetIgnoreTimeTypeDuration
EXTRN	?GetIgnoreTimeType@ioWeapon@@UAEKXZ:PROC	; ioWeapon::GetIgnoreTimeType
EXTRN	?IsSkillDependency@ioWeapon@@UAE_NABVioHashString@@@Z:PROC ; ioWeapon::IsSkillDependency
EXTRN	?SetSkillDependencyAction@ioWeapon@@UAEXXZ:PROC	; ioWeapon::SetSkillDependencyAction
EXTRN	?UpdateWorldAttackBox@ioWeapon@@MAEXM_N@Z:PROC	; ioWeapon::UpdateWorldAttackBox
EXTRN	?GetAttribute@ioWeapon@@MBEPBUWeaponAttribute@@XZ:PROC ; ioWeapon::GetAttribute
EXTRN	?CalcFinalDamage@ioWeapon@@MAEMXZ:PROC		; ioWeapon::CalcFinalDamage
EXTRN	?CalcFinalBoundDamage@ioWeapon@@MAEMXZ:PROC	; ioWeapon::CalcFinalBoundDamage
EXTRN	?CheckPiercing@ioWeapon@@MAE_N_N@Z:PROC		; ioWeapon::CheckPiercing
EXTRN	?ClearCollisionList@ioWeapon@@MAEXXZ:PROC	; ioWeapon::ClearCollisionList
EXTRN	?CheckCreateWeaponList@ioWeapon@@MAEXXZ:PROC	; ioWeapon::CheckCreateWeaponList
EXTRN	?CreateCollisionAreaWeapon@ioWeapon@@MAEXXZ:PROC ; ioWeapon::CreateCollisionAreaWeapon
EXTRN	?SetMapCollision@ioWeapon@@UAEXXZ:PROC		; ioWeapon::SetMapCollision
EXTRN	?IsIgnoreMapCollision@ioWeapon@@UBE_NXZ:PROC	; ioWeapon::IsIgnoreMapCollision
EXTRN	?IsIgnoreTestMapCollision@ioWeapon@@UBE_NXZ:PROC ; ioWeapon::IsIgnoreTestMapCollision
EXTRN	?IsIgnoreMapCollisionEffect@ioWeapon@@UBE_NXZ:PROC ; ioWeapon::IsIgnoreMapCollisionEffect
EXTRN	?AddEffectEvent@ioWeapon@@MAEXPAVioEffect@@@Z:PROC ; ioWeapon::AddEffectEvent
EXTRN	??_EioRotateTargetWeapon@@UAEPAXI@Z:PROC	; ioRotateTargetWeapon::`vector deleting destructor'
;	COMDAT ??_R2ioWeapon@@8
; File c:\program files (x86)\microsoft visual studio 10.0\vc\include\xutility
rdata$r	SEGMENT
??_R2ioWeapon@@8 DD FLAT:??_R1A@?0A@EA@ioWeapon@@8	; ioWeapon::`RTTI Base Class Array'
rdata$r	ENDS
;	COMDAT ??_R3ioWeapon@@8
rdata$r	SEGMENT
??_R3ioWeapon@@8 DD 00H					; ioWeapon::`RTTI Class Hierarchy Descriptor'
	DD	00H
	DD	01H
	DD	FLAT:??_R2ioWeapon@@8
rdata$r	ENDS
;	COMDAT ??_R0?AVioWeapon@@@8
_DATA	SEGMENT
??_R0?AVioWeapon@@@8 DD FLAT:??_7type_info@@6B@		; ioWeapon `RTTI Type Descriptor'
	DD	00H
	DB	'.?AVioWeapon@@', 00H
_DATA	ENDS
;	COMDAT ??_R1A@?0A@EA@ioWeapon@@8
rdata$r	SEGMENT
??_R1A@?0A@EA@ioWeapon@@8 DD FLAT:??_R0?AVioWeapon@@@8	; ioWeapon::`RTTI Base Class Descriptor at (0,-1,0,64)'
	DD	00H
	DD	00H
	DD	0ffffffffH
	DD	00H
	DD	040H
	DD	FLAT:??_R3ioWeapon@@8
rdata$r	ENDS
;	COMDAT ??_R1A@?0A@EA@ioRotateTargetWeapon@@8
rdata$r	SEGMENT
??_R1A@?0A@EA@ioRotateTargetWeapon@@8 DD FLAT:??_R0?AVioRotateTargetWeapon@@@8 ; ioRotateTargetWeapon::`RTTI Base Class Descriptor at (0,-1,0,64)'
	DD	01H
	DD	00H
	DD	0ffffffffH
	DD	00H
	DD	040H
	DD	FLAT:??_R3ioRotateTargetWeapon@@8
rdata$r	ENDS
;	COMDAT ??_R2ioRotateTargetWeapon@@8
rdata$r	SEGMENT
??_R2ioRotateTargetWeapon@@8 DD FLAT:??_R1A@?0A@EA@ioRotateTargetWeapon@@8 ; ioRotateTargetWeapon::`RTTI Base Class Array'
	DD	FLAT:??_R1A@?0A@EA@ioWeapon@@8
rdata$r	ENDS
;	COMDAT ??_R3ioRotateTargetWeapon@@8
rdata$r	SEGMENT
??_R3ioRotateTargetWeapon@@8 DD 00H			; ioRotateTargetWeapon::`RTTI Class Hierarchy Descriptor'
	DD	00H
	DD	02H
	DD	FLAT:??_R2ioRotateTargetWeapon@@8
rdata$r	ENDS
;	COMDAT ??_R0?AVioRotateTargetWeapon@@@8
_DATA	SEGMENT
??_R0?AVioRotateTargetWeapon@@@8 DD FLAT:??_7type_info@@6B@ ; ioRotateTargetWeapon `RTTI Type Descriptor'
	DD	00H
	DB	'.?AVioRotateTargetWeapon@@', 00H
_DATA	ENDS
;	COMDAT ??_R4ioRotateTargetWeapon@@6B@
rdata$r	SEGMENT
??_R4ioRotateTargetWeapon@@6B@ DD 00H			; ioRotateTargetWeapon::`RTTI Complete Object Locator'
	DD	00H
	DD	00H
	DD	FLAT:??_R0?AVioRotateTargetWeapon@@@8
	DD	FLAT:??_R3ioRotateTargetWeapon@@8
rdata$r	ENDS
;	COMDAT ??_7ioRotateTargetWeapon@@6B@
CONST	SEGMENT
??_7ioRotateTargetWeapon@@6B@ DD FLAT:??_R4ioRotateTargetWeapon@@6B@ ; ioRotateTargetWeapon::`vftable'
	DD	FLAT:?IsAlreadyCollisioned@ioWeapon@@UAE_NPAVioPlayEntity@@@Z
	DD	FLAT:?AddCollisionEntity@ioWeapon@@UAEXPAVioPlayEntity@@@Z
	DD	FLAT:?SetOwnerDamageRate@ioWeapon@@UAEXM@Z
	DD	FLAT:?SetOwnerChargeDamageRate@ioWeapon@@UAEXM@Z
	DD	FLAT:?SetOwnerChargeForceRate@ioWeapon@@UAEXM@Z
	DD	FLAT:?SetOwnerChargeRangeRate@ioWeapon@@UAEXM@Z
	DD	FLAT:?SetOwnerChargeSpeedRate@ioWeapon@@UAEXM@Z
	DD	FLAT:?SetOwnerChargeBlowRate@ioWeapon@@UAEXM@Z
	DD	FLAT:?SetOwnerChargeFloatRate@ioWeapon@@UAEXM@Z
	DD	FLAT:?SetOwnerChargeScaleRate@ioWeapon@@UAEXM@Z
	DD	FLAT:?SetOwnerChargeExplosionRate@ioWeapon@@UAEXM@Z
	DD	FLAT:?SetOwnerChargeWoundedTimeRate@ioWeapon@@UAEXM@Z
	DD	FLAT:?SetOwnerChargeLiveTimeRate@ioWeapon@@UAEXM@Z
	DD	FLAT:?SetOwnerChargeBuffLiveTimeRate@ioWeapon@@UAEXM@Z
	DD	FLAT:?SetWeaponIndex@ioWeapon@@UAEXK@Z
	DD	FLAT:?SetGrapplingTargetName@ioWeapon@@UAEXABVioHashString@@@Z
	DD	FLAT:?SetCreateItem@ioWeapon@@UAEXABVioHashString@@@Z
	DD	FLAT:?SetTeam@ioWeapon@@UAEXPAVioPlayStage@@W4TeamType@@@Z
	DD	FLAT:?CallReserveAreaWeapon@ioWeapon@@UAEXXZ
	DD	FLAT:?SetWeaponDead@ioWeapon@@UAEXXZ
	DD	FLAT:?PlayExplosionSound@ioWeapon@@UAEXXZ
	DD	FLAT:?PlayWoundedSound@ioWeapon@@UAEXPAVioPlayEntity@@@Z
	DD	FLAT:?PlayDefensedSound@ioWeapon@@UAEXPAVioPlayEntity@@@Z
	DD	FLAT:?PlayLoopSound@ioWeapon@@UAEXXZ
	DD	FLAT:?StopLoopSound@ioWeapon@@UAEXXZ
	DD	FLAT:?GetTargetAirBuffList@ioWeapon@@UBEABV?$vector@UBuffInfoStruct@@V?$allocator@UBuffInfoStruct@@@std@@@std@@XZ
	DD	FLAT:?GetTargetBuffList@ioWeapon@@UBEABV?$vector@UBuffInfoStruct@@V?$allocator@UBuffInfoStruct@@@std@@@std@@XZ
	DD	FLAT:?GetTargetDownBuffList@ioWeapon@@UBEABV?$vector@UBuffInfoStruct@@V?$allocator@UBuffInfoStruct@@@std@@@std@@XZ
	DD	FLAT:?GetPosition@ioWeapon@@UBEABUD3DXVECTOR3@@XZ
	DD	FLAT:?GetBlowType@ioWeapon@@UBE?AW4BlowTargetType@@XZ
	DD	FLAT:?GetPushPower@ioWeapon@@UBEMM@Z
	DD	FLAT:?GetBlowPower@ioWeapon@@UBEMM@Z
	DD	FLAT:?GetAirPushPower@ioWeapon@@UBEMM@Z
	DD	FLAT:?GetAirBlowPower@ioWeapon@@UBEMM@Z
	DD	FLAT:?GetDefensePushPower@ioWeapon@@UBEMM@Z
	DD	FLAT:?GetCollisionEnableTime@ioWeapon@@UBEKXZ
	DD	FLAT:?SetSylphid@ioWeapon@@UAEHXZ
	DD	FLAT:?ApplyExtraReserveWeaponByWeaponInfo@ioWeapon@@UAEXPAV1@@Z
	DD	FLAT:?InitResource@ioRotateTargetWeapon@@UAE_NXZ
	DD	FLAT:?DestroyResource@ioRotateTargetWeapon@@UAEXPAVioPlayStage@@@Z
	DD	FLAT:?LoadProperty@ioRotateTargetWeapon@@UAEXAAVioINILoader@@@Z
	DD	FLAT:?SetResistanceAttr@ioWeapon@@UAEXH@Z
	DD	FLAT:?SetStartCollisionBox@ioWeapon@@UAEXXZ
	DD	FLAT:?SetLiveTime@ioRotateTargetWeapon@@UAEXK@Z
	DD	FLAT:?SetMoveDir@ioRotateTargetWeapon@@UAEXABUD3DXVECTOR3@@@Z
	DD	FLAT:?SetMoveSpeed@ioWeapon@@UAEXM@Z
	DD	FLAT:?SetFloatPower@ioWeapon@@UAEXM@Z
	DD	FLAT:?SetStartPosition@ioRotateTargetWeapon@@UAEXABUD3DXVECTOR3@@PAVioPlayStage@@@Z
	DD	FLAT:?Process@ioRotateTargetWeapon@@UAEXMPAVioPlayStage@@@Z
	DD	FLAT:?IsCollision@ioRotateTargetWeapon@@UAE_NPAVioPlayEntity@@_N@Z
	DD	FLAT:?TestMapCollision@ioWeapon@@UAE_NPAVioOpcodeShape@@PAVioPlayStage@@PBUD3DXMATRIX@@@Z
	DD	FLAT:?CheckPreCollision@ioWeapon@@UAEXPAVioPlayEntity@@PAVioPlayStage@@@Z
	DD	FLAT:?CheckStructAndDummy@ioWeapon@@UAEXPAVioPlayEntity@@PAVioPlayStage@@@Z
	DD	FLAT:?GetDamage@ioWeapon@@UAEMPAVioPlayEntity@@@Z
	DD	FLAT:?GetBaseDamage@ioWeapon@@UAEMPAVioPlayEntity@@@Z
	DD	FLAT:?GetPushAngle@ioWeapon@@UBEMXZ
	DD	FLAT:?IsResistanceMagic@ioWeapon@@UAEHPAVioBaseChar@@@Z
	DD	FLAT:?IsResistanceBomb@ioWeapon@@UAEHPAVioBaseChar@@@Z
	DD	FLAT:?IsCanMineExplosion@ioWeapon@@UAE_NXZ
	DD	FLAT:?CheckGrapplingState@ioWeapon@@UAE?AW4GrapplingType@@XZ
	DD	FLAT:?CheckCurAttribute@ioWeapon@@UAEXPBVioPlayEntity@@@Z
	DD	FLAT:?CheckItemNotDrop@ioWeapon@@UAE_NPAVioBaseChar@@@Z
	DD	FLAT:?GetWorldAttackBoxList@ioWeapon@@UAEXAAV?$vector@VioOrientBox@@V?$allocator@VioOrientBox@@@std@@@std@@@Z
	DD	FLAT:?GetAttackDir@ioRotateTargetWeapon@@UBE?AUD3DXVECTOR3@@PBVioPlayEntity@@@Z
	DD	FLAT:?GetLocalAttackBox@ioRotateTargetWeapon@@UBEABVioOrientBox@@XZ
	DD	FLAT:?GetLiveTime@ioWeapon@@UAEKXZ
	DD	FLAT:?GetMoveDir@ioWeapon@@UAE?AUD3DXVECTOR3@@XZ
	DD	FLAT:?CheckWeaponCollision@ioWeapon@@UAEXXZ
	DD	FLAT:?GetType@ioRotateTargetWeapon@@UBE?AW4WeaponType@ioWeapon@@XZ
	DD	FLAT:?GetActionStopType@ioRotateTargetWeapon@@UBE?AW4ActionStopType@@XZ
	DD	FLAT:?GetDieActionStopType@ioRotateTargetWeapon@@UBE?AW4ActionStopType@@XZ
	DD	FLAT:?GetRefreshDuration@ioWeapon@@UAEKXZ
	DD	FLAT:?GetIgnoreDuration@ioWeapon@@UAEKXZ
	DD	FLAT:?GetIgnoreTimeTypeDuration@ioWeapon@@UAEKXZ
	DD	FLAT:?GetIgnoreTimeType@ioWeapon@@UAEKXZ
	DD	FLAT:?ApplyWeaponSync@ioRotateTargetWeapon@@UAEXAAVSP2Packet@@PAVioPlayStage@@@Z
	DD	FLAT:?IsSkillDependency@ioWeapon@@UAE_NABVioHashString@@@Z
	DD	FLAT:?SetSkillDependencyAction@ioWeapon@@UAEXXZ
	DD	FLAT:?UpdateWorldAttackBox@ioWeapon@@MAEXM_N@Z
	DD	FLAT:?GetAttribute@ioWeapon@@MBEPBUWeaponAttribute@@XZ
	DD	FLAT:?CalcFinalDamage@ioWeapon@@MAEMXZ
	DD	FLAT:?CalcFinalBoundDamage@ioWeapon@@MAEMXZ
	DD	FLAT:?CheckPiercing@ioWeapon@@MAE_N_N@Z
	DD	FLAT:?ClearCollisionList@ioWeapon@@MAEXXZ
	DD	FLAT:?CheckCreateWeaponList@ioWeapon@@MAEXXZ
	DD	FLAT:?CreateCollisionAreaWeapon@ioWeapon@@MAEXXZ
	DD	FLAT:?SetMapCollision@ioWeapon@@UAEXXZ
	DD	FLAT:?IsIgnoreMapCollision@ioWeapon@@UBE_NXZ
	DD	FLAT:?IsIgnoreTestMapCollision@ioWeapon@@UBE_NXZ
	DD	FLAT:?IsIgnoreMapCollisionEffect@ioWeapon@@UBE_NXZ
	DD	FLAT:?AddEffectEvent@ioWeapon@@MAEXPAVioEffect@@@Z
	DD	FLAT:??_EioRotateTargetWeapon@@UAEPAXI@Z
CONST	ENDS
;	COMDAT xdata$x
xdata$x	SEGMENT
__ehfuncinfo$??0ioRotateTargetWeapon@@QAE@PAVioBaseChar@@PBUWeaponAttribute@@@Z DD 019930522H
	DD	09H
	DD	FLAT:__unwindtable$??0ioRotateTargetWeapon@@QAE@PAVioBaseChar@@PBUWeaponAttribute@@@Z
	DD	2 DUP(00H)
	DD	2 DUP(00H)
	DD	00H
	DD	01H
__unwindtable$??0ioRotateTargetWeapon@@QAE@PAVioBaseChar@@PBUWeaponAttribute@@@Z DD 0ffffffffH
	DD	FLAT:__unwindfunclet$??0ioRotateTargetWeapon@@QAE@PAVioBaseChar@@PBUWeaponAttribute@@@Z$0
	DD	00H
	DD	FLAT:__unwindfunclet$??0ioRotateTargetWeapon@@QAE@PAVioBaseChar@@PBUWeaponAttribute@@@Z$1
	DD	01H
	DD	FLAT:__unwindfunclet$??0ioRotateTargetWeapon@@QAE@PAVioBaseChar@@PBUWeaponAttribute@@@Z$2
	DD	02H
	DD	FLAT:__unwindfunclet$??0ioRotateTargetWeapon@@QAE@PAVioBaseChar@@PBUWeaponAttribute@@@Z$3
	DD	03H
	DD	FLAT:__unwindfunclet$??0ioRotateTargetWeapon@@QAE@PAVioBaseChar@@PBUWeaponAttribute@@@Z$4
	DD	04H
	DD	FLAT:__unwindfunclet$??0ioRotateTargetWeapon@@QAE@PAVioBaseChar@@PBUWeaponAttribute@@@Z$5
	DD	05H
	DD	FLAT:__unwindfunclet$??0ioRotateTargetWeapon@@QAE@PAVioBaseChar@@PBUWeaponAttribute@@@Z$6
	DD	06H
	DD	FLAT:__unwindfunclet$??0ioRotateTargetWeapon@@QAE@PAVioBaseChar@@PBUWeaponAttribute@@@Z$7
	DD	07H
	DD	FLAT:__unwindfunclet$??0ioRotateTargetWeapon@@QAE@PAVioBaseChar@@PBUWeaponAttribute@@@Z$8
; Function compile flags: /Ogsp
; File d:\lost saga for developer\youtube\tutorial\source\src\lsclient\iorotatetargetweapon.cpp
xdata$x	ENDS
;	COMDAT ??0ioRotateTargetWeapon@@QAE@PAVioBaseChar@@PBUWeaponAttribute@@@Z
_TEXT	SEGMENT
_this$ = -16						; size = 4
__$EHRec$ = -12						; size = 12
_pOwner$ = 8						; size = 4
$T537161 = 12						; size = 4
_pAttr$ = 12						; size = 4
??0ioRotateTargetWeapon@@QAE@PAVioBaseChar@@PBUWeaponAttribute@@@Z PROC ; ioRotateTargetWeapon::ioRotateTargetWeapon, COMDAT
; _this$ = ecx

; 14   : {

  00000	6a 04		 push	 4
  00002	b8 00 00 00 00	 mov	 eax, __ehhandler$??0ioRotateTargetWeapon@@QAE@PAVioBaseChar@@PBUWeaponAttribute@@@Z
  00007	e8 00 00 00 00	 call	 __EH_prolog3
  0000c	8b f1		 mov	 esi, ecx
  0000e	89 75 f0	 mov	 DWORD PTR _this$[ebp], esi
  00011	ff 75 0c	 push	 DWORD PTR _pAttr$[ebp]
  00014	ff 75 08	 push	 DWORD PTR _pOwner$[ebp]
  00017	e8 00 00 00 00	 call	 ??0ioWeapon@@QAE@PAVioBaseChar@@PBUWeaponAttribute@@@Z ; ioWeapon::ioWeapon
  0001c	33 db		 xor	 ebx, ebx
  0001e	8d 8e b0 08 00
	00		 lea	 ecx, DWORD PTR [esi+2224]
  00024	89 5d fc	 mov	 DWORD PTR __$EHRec$[ebp+8], ebx
  00027	c7 06 00 00 00
	00		 mov	 DWORD PTR [esi], OFFSET ??_7ioRotateTargetWeapon@@6B@
  0002d	ff 15 00 00 00
	00		 call	 DWORD PTR __imp_??0ioOrientBox@@QAE@XZ
  00033	89 9e f4 08 00
	00		 mov	 DWORD PTR [esi+2292], ebx
  00039	89 9e f8 08 00
	00		 mov	 DWORD PTR [esi+2296], ebx
  0003f	89 9e fc 08 00
	00		 mov	 DWORD PTR [esi+2300], ebx
  00045	8d 8e 04 09 00
	00		 lea	 ecx, DWORD PTR [esi+2308]
  0004b	c6 45 fc 02	 mov	 BYTE PTR __$EHRec$[ebp+8], 2
  0004f	e8 00 00 00 00	 call	 ??0?$CEncrypt@K@@QAE@XZ	; CEncrypt<unsigned long>::CEncrypt<unsigned long>
  00054	8d 8e 34 09 00
	00		 lea	 ecx, DWORD PTR [esi+2356]
  0005a	c6 45 fc 03	 mov	 BYTE PTR __$EHRec$[ebp+8], 3
  0005e	e8 00 00 00 00	 call	 ??0?$CEncrypt@M@@QAE@XZ	; CEncrypt<float>::CEncrypt<float>
  00063	89 9e 64 09 00
	00		 mov	 DWORD PTR [esi+2404], ebx
  00069	89 9e 68 09 00
	00		 mov	 DWORD PTR [esi+2408], ebx
  0006f	89 9e 6c 09 00
	00		 mov	 DWORD PTR [esi+2412], ebx
  00075	8d 8e 74 09 00
	00		 lea	 ecx, DWORD PTR [esi+2420]
  0007b	c6 45 fc 05	 mov	 BYTE PTR __$EHRec$[ebp+8], 5
  0007f	e8 00 00 00 00	 call	 ??0?$CEncrypt@M@@QAE@XZ	; CEncrypt<float>::CEncrypt<float>
  00084	8d 8e a4 09 00
	00		 lea	 ecx, DWORD PTR [esi+2468]
  0008a	c6 45 fc 06	 mov	 BYTE PTR __$EHRec$[ebp+8], 6
  0008e	e8 00 00 00 00	 call	 ??0?$CEncrypt@M@@QAE@XZ	; CEncrypt<float>::CEncrypt<float>
  00093	8d 8e d4 09 00
	00		 lea	 ecx, DWORD PTR [esi+2516]
  00099	c6 45 fc 07	 mov	 BYTE PTR __$EHRec$[ebp+8], 7
  0009d	e8 00 00 00 00	 call	 ??0?$CEncrypt@M@@QAE@XZ	; CEncrypt<float>::CEncrypt<float>

; 15   : 	SetPeculiarity( WP_ATTACK_OWNER | WP_DEF_NO_SOUND );

  000a2	68 84 00 00 00	 push	 132			; 00000084H
  000a7	8b ce		 mov	 ecx, esi
  000a9	c6 45 fc 08	 mov	 BYTE PTR __$EHRec$[ebp+8], 8
  000ad	e8 00 00 00 00	 call	 ?SetPeculiarity@ioWeapon@@QAEXK@Z ; ioWeapon::SetPeculiarity

; 16   : 
; 17   : 	m_TargetInfoList.clear();

  000b2	8b 86 f8 08 00
	00		 mov	 eax, DWORD PTR [esi+2296]
  000b8	8b 8e f4 08 00
	00		 mov	 ecx, DWORD PTR [esi+2292]
  000be	50		 push	 eax
  000bf	51		 push	 ecx
  000c0	8d 45 0c	 lea	 eax, DWORD PTR $T537161[ebp]
  000c3	50		 push	 eax
  000c4	8d 8e f4 08 00
	00		 lea	 ecx, DWORD PTR [esi+2292]
  000ca	e8 00 00 00 00	 call	 ?erase@?$vector@UTargetInfo@ioRotateTargetWeapon@@V?$allocator@UTargetInfo@ioRotateTargetWeapon@@@std@@@std@@QAE?AV?$_Vector_iterator@V?$_Vector_val@UTargetInfo@ioRotateTargetWeapon@@V?$allocator@UTargetInfo@ioRotateTargetWeapon@@@std@@@std@@@2@V?$_Vector_const_iterator@V?$_Vector_val@UTargetInfo@ioRotateTargetWeapon@@V?$allocator@UTargetInfo@ioRotateTargetWeapon@@@std@@@std@@@2@0@Z ; std::vector<ioRotateTargetWeapon::TargetInfo,std::allocator<ioRotateTargetWeapon::TargetInfo> >::erase

; 18   : 	m_BallState = BS_MOVE;

  000cf	89 9e 94 08 00
	00		 mov	 DWORD PTR [esi+2196], ebx

; 19   : }

  000d5	8b c6		 mov	 eax, esi
  000d7	e8 00 00 00 00	 call	 __EH_epilog3
  000dc	c2 08 00	 ret	 8
_TEXT	ENDS
;	COMDAT text$x
text$x	SEGMENT
__unwindfunclet$??0ioRotateTargetWeapon@@QAE@PAVioBaseChar@@PBUWeaponAttribute@@@Z$0:
  00000	8b 4d f0	 mov	 ecx, DWORD PTR _this$[ebp]
  00003	e9 00 00 00 00	 jmp	 ??1ioWeapon@@UAE@XZ	; ioWeapon::~ioWeapon
__unwindfunclet$??0ioRotateTargetWeapon@@QAE@PAVioBaseChar@@PBUWeaponAttribute@@@Z$1:
  00008	8b 4d f0	 mov	 ecx, DWORD PTR _this$[ebp]
  0000b	81 c1 b0 08 00
	00		 add	 ecx, 2224		; 000008b0H
  00011	ff 25 00 00 00
	00		 jmp	 DWORD PTR __imp_??1ioOrientBox@@QAE@XZ
__unwindfunclet$??0ioRotateTargetWeapon@@QAE@PAVioBaseChar@@PBUWeaponAttribute@@@Z$2:
  00017	8b 4d f0	 mov	 ecx, DWORD PTR _this$[ebp]
  0001a	81 c1 f4 08 00
	00		 add	 ecx, 2292		; 000008f4H
  00020	e9 00 00 00 00	 jmp	 ??1?$vector@UTargetInfo@ioRotateTargetWeapon@@V?$allocator@UTargetInfo@ioRotateTargetWeapon@@@std@@@std@@QAE@XZ ; std::vector<ioRotateTargetWeapon::TargetInfo,std::allocator<ioRotateTargetWeapon::TargetInfo> >::~vector<ioRotateTargetWeapon::TargetInfo,std::allocator<ioRotateTargetWeapon::TargetInfo> >
__unwindfunclet$??0ioRotateTargetWeapon@@QAE@PAVioBaseChar@@PBUWeaponAttribute@@@Z$3:
  00025	8b 4d f0	 mov	 ecx, DWORD PTR _this$[ebp]
  00028	81 c1 04 09 00
	00		 add	 ecx, 2308		; 00000904H
  0002e	e9 00 00 00 00	 jmp	 ??1?$CEncrypt@K@@UAE@XZ	; CEncrypt<unsigned long>::~CEncrypt<unsigned long>
__unwindfunclet$??0ioRotateTargetWeapon@@QAE@PAVioBaseChar@@PBUWeaponAttribute@@@Z$4:
  00033	8b 4d f0	 mov	 ecx, DWORD PTR _this$[ebp]
  00036	81 c1 34 09 00
	00		 add	 ecx, 2356		; 00000934H
  0003c	e9 00 00 00 00	 jmp	 ??1?$CEncrypt@M@@UAE@XZ	; CEncrypt<float>::~CEncrypt<float>
__unwindfunclet$??0ioRotateTargetWeapon@@QAE@PAVioBaseChar@@PBUWeaponAttribute@@@Z$5:
  00041	8b 4d f0	 mov	 ecx, DWORD PTR _this$[ebp]
  00044	81 c1 64 09 00
	00		 add	 ecx, 2404		; 00000964H
  0004a	e9 00 00 00 00	 jmp	 ??1?$vector@VioHashString@@V?$allocator@VioHashString@@@std@@@std@@QAE@XZ ; std::vector<ioHashString,std::allocator<ioHashString> >::~vector<ioHashString,std::allocator<ioHashString> >
__unwindfunclet$??0ioRotateTargetWeapon@@QAE@PAVioBaseChar@@PBUWeaponAttribute@@@Z$6:
  0004f	8b 4d f0	 mov	 ecx, DWORD PTR _this$[ebp]
  00052	81 c1 74 09 00
	00		 add	 ecx, 2420		; 00000974H
  00058	e9 00 00 00 00	 jmp	 ??1?$CEncrypt@M@@UAE@XZ	; CEncrypt<float>::~CEncrypt<float>
__unwindfunclet$??0ioRotateTargetWeapon@@QAE@PAVioBaseChar@@PBUWeaponAttribute@@@Z$7:
  0005d	8b 4d f0	 mov	 ecx, DWORD PTR _this$[ebp]
  00060	81 c1 a4 09 00
	00		 add	 ecx, 2468		; 000009a4H
  00066	e9 00 00 00 00	 jmp	 ??1?$CEncrypt@M@@UAE@XZ	; CEncrypt<float>::~CEncrypt<float>
__unwindfunclet$??0ioRotateTargetWeapon@@QAE@PAVioBaseChar@@PBUWeaponAttribute@@@Z$8:
  0006b	8b 4d f0	 mov	 ecx, DWORD PTR _this$[ebp]
  0006e	81 c1 d4 09 00
	00		 add	 ecx, 2516		; 000009d4H
  00074	e9 00 00 00 00	 jmp	 ??1?$CEncrypt@M@@UAE@XZ	; CEncrypt<float>::~CEncrypt<float>
__ehhandler$??0ioRotateTargetWeapon@@QAE@PAVioBaseChar@@PBUWeaponAttribute@@@Z:
  00079	8b 54 24 08	 mov	 edx, DWORD PTR [esp+8]
  0007d	8d 42 0c	 lea	 eax, DWORD PTR [edx+12]
  00080	8b 4a ec	 mov	 ecx, DWORD PTR [edx-20]
  00083	33 c8		 xor	 ecx, eax
  00085	e8 00 00 00 00	 call	 @__security_check_cookie@4
  0008a	b8 00 00 00 00	 mov	 eax, OFFSET __ehfuncinfo$??0ioRotateTargetWeapon@@QAE@PAVioBaseChar@@PBUWeaponAttribute@@@Z
  0008f	e9 00 00 00 00	 jmp	 ___CxxFrameHandler3
text$x	ENDS
??0ioRotateTargetWeapon@@QAE@PAVioBaseChar@@PBUWeaponAttribute@@@Z ENDP ; ioRotateTargetWeapon::ioRotateTargetWeapon
PUBLIC	??1ioRotateTargetWeapon@@UAE@XZ			; ioRotateTargetWeapon::~ioRotateTargetWeapon
;	COMDAT xdata$x
; File c:\program files (x86)\microsoft visual studio 10.0\vc\include\vector
xdata$x	SEGMENT
__ehfuncinfo$??1ioRotateTargetWeapon@@UAE@XZ DD 019930522H
	DD	08H
	DD	FLAT:__unwindtable$??1ioRotateTargetWeapon@@UAE@XZ
	DD	2 DUP(00H)
	DD	2 DUP(00H)
	DD	00H
	DD	01H
__unwindtable$??1ioRotateTargetWeapon@@UAE@XZ DD 0ffffffffH
	DD	FLAT:__unwindfunclet$??1ioRotateTargetWeapon@@UAE@XZ$0
	DD	00H
	DD	FLAT:__unwindfunclet$??1ioRotateTargetWeapon@@UAE@XZ$1
	DD	01H
	DD	FLAT:__unwindfunclet$??1ioRotateTargetWeapon@@UAE@XZ$2
	DD	02H
	DD	FLAT:__unwindfunclet$??1ioRotateTargetWeapon@@UAE@XZ$3
	DD	03H
	DD	FLAT:__unwindfunclet$??1ioRotateTargetWeapon@@UAE@XZ$4
	DD	04H
	DD	FLAT:__unwindfunclet$??1ioRotateTargetWeapon@@UAE@XZ$5
	DD	05H
	DD	FLAT:__unwindfunclet$??1ioRotateTargetWeapon@@UAE@XZ$6
	DD	06H
	DD	FLAT:__unwindfunclet$??1ioRotateTargetWeapon@@UAE@XZ$7
; Function compile flags: /Ogsp
; File d:\lost saga for developer\youtube\tutorial\source\src\lsclient\iorotatetargetweapon.cpp
xdata$x	ENDS
;	COMDAT ??1ioRotateTargetWeapon@@UAE@XZ
_TEXT	SEGMENT
_this$ = -16						; size = 4
__$EHRec$ = -12						; size = 12
??1ioRotateTargetWeapon@@UAE@XZ PROC			; ioRotateTargetWeapon::~ioRotateTargetWeapon, COMDAT
; _this$ = ecx

; 22   : {

  00000	6a 04		 push	 4
  00002	b8 00 00 00 00	 mov	 eax, __ehhandler$??1ioRotateTargetWeapon@@UAE@XZ
  00007	e8 00 00 00 00	 call	 __EH_prolog3
  0000c	8b f1		 mov	 esi, ecx
  0000e	89 75 f0	 mov	 DWORD PTR _this$[ebp], esi
  00011	c7 06 00 00 00
	00		 mov	 DWORD PTR [esi], OFFSET ??_7ioRotateTargetWeapon@@6B@

; 23   : }

  00017	bf 00 00 00 00	 mov	 edi, OFFSET ??_7?$CEncrypt@M@@6B@
  0001c	8d 8e e0 09 00
	00		 lea	 ecx, DWORD PTR [esi+2528]
  00022	c7 45 fc 07 00
	00 00		 mov	 DWORD PTR __$EHRec$[ebp+8], 7
  00029	89 be d4 09 00
	00		 mov	 DWORD PTR [esi+2516], edi
  0002f	e8 00 00 00 00	 call	 ??1ccddaabb@@UAE@XZ	; ccddaabb::~ccddaabb
  00034	8d 8e b0 09 00
	00		 lea	 ecx, DWORD PTR [esi+2480]
  0003a	c6 45 fc 06	 mov	 BYTE PTR __$EHRec$[ebp+8], 6
  0003e	89 be a4 09 00
	00		 mov	 DWORD PTR [esi+2468], edi
  00044	e8 00 00 00 00	 call	 ??1ccddaabb@@UAE@XZ	; ccddaabb::~ccddaabb
  00049	8d 8e 80 09 00
	00		 lea	 ecx, DWORD PTR [esi+2432]
  0004f	c6 45 fc 05	 mov	 BYTE PTR __$EHRec$[ebp+8], 5
  00053	89 be 74 09 00
	00		 mov	 DWORD PTR [esi+2420], edi
  00059	e8 00 00 00 00	 call	 ??1ccddaabb@@UAE@XZ	; ccddaabb::~ccddaabb
  0005e	8d 8e 64 09 00
	00		 lea	 ecx, DWORD PTR [esi+2404]
  00064	c6 45 fc 04	 mov	 BYTE PTR __$EHRec$[ebp+8], 4
  00068	e8 00 00 00 00	 call	 ?_Tidy@?$vector@VioHashString@@V?$allocator@VioHashString@@@std@@@std@@IAEXXZ ; std::vector<ioHashString,std::allocator<ioHashString> >::_Tidy
  0006d	8d 8e 40 09 00
	00		 lea	 ecx, DWORD PTR [esi+2368]
  00073	c6 45 fc 03	 mov	 BYTE PTR __$EHRec$[ebp+8], 3
  00077	89 be 34 09 00
	00		 mov	 DWORD PTR [esi+2356], edi
  0007d	e8 00 00 00 00	 call	 ??1ccddaabb@@UAE@XZ	; ccddaabb::~ccddaabb
  00082	8d 8e 10 09 00
	00		 lea	 ecx, DWORD PTR [esi+2320]
  00088	c6 45 fc 02	 mov	 BYTE PTR __$EHRec$[ebp+8], 2
  0008c	c7 86 04 09 00
	00 00 00 00 00	 mov	 DWORD PTR [esi+2308], OFFSET ??_7?$CEncrypt@K@@6B@
  00096	e8 00 00 00 00	 call	 ??1ccddaabb@@UAE@XZ	; ccddaabb::~ccddaabb
  0009b	8d 8e f4 08 00
	00		 lea	 ecx, DWORD PTR [esi+2292]
  000a1	c6 45 fc 01	 mov	 BYTE PTR __$EHRec$[ebp+8], 1
  000a5	e8 00 00 00 00	 call	 ?_Tidy@?$vector@UTargetInfo@ioRotateTargetWeapon@@V?$allocator@UTargetInfo@ioRotateTargetWeapon@@@std@@@std@@IAEXXZ ; std::vector<ioRotateTargetWeapon::TargetInfo,std::allocator<ioRotateTargetWeapon::TargetInfo> >::_Tidy
  000aa	8d 8e b0 08 00
	00		 lea	 ecx, DWORD PTR [esi+2224]
  000b0	c6 45 fc 00	 mov	 BYTE PTR __$EHRec$[ebp+8], 0
  000b4	ff 15 00 00 00
	00		 call	 DWORD PTR __imp_??1ioOrientBox@@QAE@XZ
  000ba	83 4d fc ff	 or	 DWORD PTR __$EHRec$[ebp+8], -1
  000be	8b ce		 mov	 ecx, esi
  000c0	e8 00 00 00 00	 call	 ??1ioWeapon@@UAE@XZ	; ioWeapon::~ioWeapon
  000c5	e8 00 00 00 00	 call	 __EH_epilog3
  000ca	c3		 ret	 0
_TEXT	ENDS
;	COMDAT text$x
text$x	SEGMENT
__unwindfunclet$??1ioRotateTargetWeapon@@UAE@XZ$0:
  00000	8b 4d f0	 mov	 ecx, DWORD PTR _this$[ebp]
  00003	e9 00 00 00 00	 jmp	 ??1ioWeapon@@UAE@XZ	; ioWeapon::~ioWeapon
__unwindfunclet$??1ioRotateTargetWeapon@@UAE@XZ$1:
  00008	8b 4d f0	 mov	 ecx, DWORD PTR _this$[ebp]
  0000b	81 c1 b0 08 00
	00		 add	 ecx, 2224		; 000008b0H
  00011	ff 25 00 00 00
	00		 jmp	 DWORD PTR __imp_??1ioOrientBox@@QAE@XZ
__unwindfunclet$??1ioRotateTargetWeapon@@UAE@XZ$2:
  00017	8b 4d f0	 mov	 ecx, DWORD PTR _this$[ebp]
  0001a	81 c1 f4 08 00
	00		 add	 ecx, 2292		; 000008f4H
  00020	e9 00 00 00 00	 jmp	 ??1?$vector@UTargetInfo@ioRotateTargetWeapon@@V?$allocator@UTargetInfo@ioRotateTargetWeapon@@@std@@@std@@QAE@XZ ; std::vector<ioRotateTargetWeapon::TargetInfo,std::allocator<ioRotateTargetWeapon::TargetInfo> >::~vector<ioRotateTargetWeapon::TargetInfo,std::allocator<ioRotateTargetWeapon::TargetInfo> >
__unwindfunclet$??1ioRotateTargetWeapon@@UAE@XZ$3:
  00025	8b 4d f0	 mov	 ecx, DWORD PTR _this$[ebp]
  00028	81 c1 04 09 00
	00		 add	 ecx, 2308		; 00000904H
  0002e	e9 00 00 00 00	 jmp	 ??1?$CEncrypt@K@@UAE@XZ	; CEncrypt<unsigned long>::~CEncrypt<unsigned long>
__unwindfunclet$??1ioRotateTargetWeapon@@UAE@XZ$4:
  00033	8b 4d f0	 mov	 ecx, DWORD PTR _this$[ebp]
  00036	81 c1 34 09 00
	00		 add	 ecx, 2356		; 00000934H
  0003c	e9 00 00 00 00	 jmp	 ??1?$CEncrypt@M@@UAE@XZ	; CEncrypt<float>::~CEncrypt<float>
__unwindfunclet$??1ioRotateTargetWeapon@@UAE@XZ$5:
  00041	8b 4d f0	 mov	 ecx, DWORD PTR _this$[ebp]
  00044	81 c1 64 09 00
	00		 add	 ecx, 2404		; 00000964H
  0004a	e9 00 00 00 00	 jmp	 ??1?$vector@VioHashString@@V?$allocator@VioHashString@@@std@@@std@@QAE@XZ ; std::vector<ioHashString,std::allocator<ioHashString> >::~vector<ioHashString,std::allocator<ioHashString> >
__unwindfunclet$??1ioRotateTargetWeapon@@UAE@XZ$6:
  0004f	8b 4d f0	 mov	 ecx, DWORD PTR _this$[ebp]
  00052	81 c1 74 09 00
	00		 add	 ecx, 2420		; 00000974H
  00058	e9 00 00 00 00	 jmp	 ??1?$CEncrypt@M@@UAE@XZ	; CEncrypt<float>::~CEncrypt<float>
__unwindfunclet$??1ioRotateTargetWeapon@@UAE@XZ$7:
  0005d	8b 4d f0	 mov	 ecx, DWORD PTR _this$[ebp]
  00060	81 c1 a4 09 00
	00		 add	 ecx, 2468		; 000009a4H
  00066	e9 00 00 00 00	 jmp	 ??1?$CEncrypt@M@@UAE@XZ	; CEncrypt<float>::~CEncrypt<float>
__ehhandler$??1ioRotateTargetWeapon@@UAE@XZ:
  0006b	8b 54 24 08	 mov	 edx, DWORD PTR [esp+8]
  0006f	8d 42 0c	 lea	 eax, DWORD PTR [edx+12]
  00072	8b 4a ec	 mov	 ecx, DWORD PTR [edx-20]
  00075	33 c8		 xor	 ecx, eax
  00077	e8 00 00 00 00	 call	 @__security_check_cookie@4
  0007c	b8 00 00 00 00	 mov	 eax, OFFSET __ehfuncinfo$??1ioRotateTargetWeapon@@UAE@XZ
  00081	e9 00 00 00 00	 jmp	 ___CxxFrameHandler3
text$x	ENDS
??1ioRotateTargetWeapon@@UAE@XZ ENDP			; ioRotateTargetWeapon::~ioRotateTargetWeapon
PUBLIC	_pStage$GSCopy$
PUBLIC	__$ArrayPad$
EXTRN	?GetMidPositionByRate@ioGameEntity@@QBE?AUD3DXVECTOR3@@M@Z:PROC ; ioGameEntity::GetMidPositionByRate
EXTRN	?FindDummyChar@ioDummyCharManager@@QAEPAVioDummyChar@@PAVioBaseChar@@H@Z:PROC ; ioDummyCharManager::FindDummyChar
EXTRN	?GetSingleton@ioDummyCharManager@@SAAAV1@XZ:PROC ; ioDummyCharManager::GetSingleton
; Function compile flags: /Ogsp
;	COMDAT ?Process@ioRotateTargetWeapon@@UAEXMPAVioPlayStage@@@Z
_TEXT	SEGMENT
_vDir$531110 = -112					; size = 12
_pStage$GSCopy$ = -100					; size = 4
tv404 = -96						; size = 4
tv400 = -96						; size = 4
tv389 = -96						; size = 4
tv74 = -96						; size = 4
_pDummy$531112 = -96					; size = 4
tv460 = -92						; size = 4
tv456 = -92						; size = 4
tv452 = -92						; size = 4
tv435 = -92						; size = 4
_pOwner$531107 = -92					; size = 4
$T531114 = -88						; size = 12
$T531123 = -76						; size = 12
$T531117 = -64						; size = 12
$T531120 = -52						; size = 12
$T531116 = -40						; size = 12
$T531122 = -28						; size = 12
_vPos$531109 = -16					; size = 12
__$ArrayPad$ = -4					; size = 4
_fTimePerSec$ = 8					; size = 4
_pStage$ = 12						; size = 4
?Process@ioRotateTargetWeapon@@UAEXMPAVioPlayStage@@@Z PROC ; ioRotateTargetWeapon::Process, COMDAT
; _this$ = ecx

; 91   : {

  00000	55		 push	 ebp
  00001	8b ec		 mov	 ebp, esp
  00003	83 ec 70	 sub	 esp, 112		; 00000070H
  00006	a1 00 00 00 00	 mov	 eax, DWORD PTR ___security_cookie
  0000b	33 c5		 xor	 eax, ebp
  0000d	89 45 fc	 mov	 DWORD PTR __$ArrayPad$[ebp], eax
  00010	53		 push	 ebx
  00011	8b d9		 mov	 ebx, ecx

; 92   : 	switch( m_BallState )

  00013	8b 83 94 08 00
	00		 mov	 eax, DWORD PTR [ebx+2196]
  00019	83 e8 00	 sub	 eax, 0
  0001c	56		 push	 esi
  0001d	8b 75 0c	 mov	 esi, DWORD PTR _pStage$[ebp]
  00020	57		 push	 edi

; 123  : 			}
; 124  : 			else
; 125  : 			{
; 126  : 				SetEndState( pStage );

  00021	89 75 9c	 mov	 DWORD PTR _pStage$GSCopy$[ebp], esi
  00024	74 12		 je	 SHORT $LN8@Process

; 92   : 	switch( m_BallState )

  00026	48		 dec	 eax
  00027	48		 dec	 eax
  00028	0f 85 fd 01 00
	00		 jne	 $LN9@Process

; 134  : 	case BS_END:
; 135  : 		SetWeaponDead();

  0002e	8b 03		 mov	 eax, DWORD PTR [ebx]
  00030	ff 50 4c	 call	 DWORD PTR [eax+76]

; 136  : 		break;

  00033	e9 f3 01 00 00	 jmp	 $LN9@Process
$LN8@Process:

; 93   : 	{
; 94   : 	case BS_MOVE:
; 95   : 		{
; 96   : 			ioBaseChar *pOwner = GetOwner();

  00038	e8 00 00 00 00	 call	 ?GetOwner@ioWeapon@@QBEPAVioBaseChar@@XZ ; ioWeapon::GetOwner
  0003d	8b c8		 mov	 ecx, eax
  0003f	89 4d a4	 mov	 DWORD PTR _pOwner$531107[ebp], ecx

; 97   : 			if( pOwner )

  00042	85 c9		 test	 ecx, ecx
  00044	0f 84 d9 01 00
	00		 je	 $LN7@Process

; 98   : 			{
; 99   : 				D3DXVECTOR3 vPos = ioMath::VEC3_ZERO;

  0004a	8b 35 00 00 00
	00		 mov	 esi, DWORD PTR __imp_?VEC3_ZERO@ioMath@@2UD3DXVECTOR3@@A

; 100  : 				D3DXVECTOR3 vDir = ioMath::VEC3_ZERO;
; 101  : 				if( m_iDummyIndex > 0 )

  00050	8b 83 98 05 00
	00		 mov	 eax, DWORD PTR [ebx+1432]
  00056	8d 7d f0	 lea	 edi, DWORD PTR _vPos$531109[ebp]
  00059	a5		 movsd
  0005a	a5		 movsd
  0005b	a5		 movsd
  0005c	85 c0		 test	 eax, eax
  0005e	0f 8e a8 00 00
	00		 jle	 $LN6@Process

; 102  : 				{
; 103  : 					ioDummyChar *pDummy = g_DummyCharMgr.FindDummyChar( pOwner, m_iDummyIndex );

  00064	50		 push	 eax
  00065	51		 push	 ecx
  00066	e8 00 00 00 00	 call	 ?GetSingleton@ioDummyCharManager@@SAAAV1@XZ ; ioDummyCharManager::GetSingleton
  0006b	8b c8		 mov	 ecx, eax
  0006d	e8 00 00 00 00	 call	 ?FindDummyChar@ioDummyCharManager@@QAEPAVioDummyChar@@PAVioBaseChar@@H@Z ; ioDummyCharManager::FindDummyChar
  00072	8b c8		 mov	 ecx, eax
  00074	89 4d a0	 mov	 DWORD PTR _pDummy$531112[ebp], ecx

; 104  : 					if( pDummy )

  00077	85 c9		 test	 ecx, ecx
  00079	0f 84 85 00 00
	00		 je	 $LN5@Process

; 105  : 					{
; 106  : 						vPos = pDummy->GetMidPositionByRate();

  0007f	b8 05 00 00 00	 mov	 eax, 5
  00084	8b d0		 mov	 edx, eax
  00086	b8 0a 00 00 00	 mov	 eax, 10			; 0000000aH
  0008b	89 55 a4	 mov	 DWORD PTR tv460[ebp], edx
  0008e	db 45 a4	 fild	 DWORD PTR tv460[ebp]
  00091	85 d2		 test	 edx, edx
  00093	79 06		 jns	 SHORT $LN33@Process
  00095	d8 05 00 00 00
	00		 fadd	 DWORD PTR __real@4f800000
$LN33@Process:
  0009b	89 45 a4	 mov	 DWORD PTR tv456[ebp], eax
  0009e	db 45 a4	 fild	 DWORD PTR tv456[ebp]
  000a1	85 c0		 test	 eax, eax
  000a3	79 06		 jns	 SHORT $LN34@Process
  000a5	d8 05 00 00 00
	00		 fadd	 DWORD PTR __real@4f800000
$LN34@Process:
  000ab	de f9		 fdivp	 ST(1), ST(0)
  000ad	51		 push	 ecx
  000ae	8d 45 a8	 lea	 eax, DWORD PTR $T531114[ebp]
  000b1	d9 5d a4	 fstp	 DWORD PTR tv452[ebp]
  000b4	d9 45 a4	 fld	 DWORD PTR tv452[ebp]
  000b7	d9 1c 24	 fstp	 DWORD PTR [esp]
  000ba	50		 push	 eax
  000bb	e8 00 00 00 00	 call	 ?GetMidPositionByRate@ioGameEntity@@QBE?AUD3DXVECTOR3@@M@Z ; ioGameEntity::GetMidPositionByRate
  000c0	8b f0		 mov	 esi, eax
  000c2	8d 7d f0	 lea	 edi, DWORD PTR _vPos$531109[ebp]
  000c5	a5		 movsd
  000c6	a5		 movsd
  000c7	a5		 movsd

; 107  : 						vDir = pDummy->GetWorldOrientation() * D3DXVECTOR3( 0.0f, 0.0f, -FLOAT1 );

  000c8	b8 01 00 00 00	 mov	 eax, 1
  000cd	0f 57 c0	 xorps	 xmm0, xmm0
  000d0	89 45 a4	 mov	 DWORD PTR tv435[ebp], eax
  000d3	db 45 a4	 fild	 DWORD PTR tv435[ebp]
  000d6	f3 0f 11 45 d8	 movss	 DWORD PTR $T531116[ebp], xmm0
  000db	f3 0f 11 45 dc	 movss	 DWORD PTR $T531116[ebp+4], xmm0
  000e0	85 c0		 test	 eax, eax
  000e2	79 06		 jns	 SHORT $LN35@Process
  000e4	d8 05 00 00 00
	00		 fadd	 DWORD PTR __real@4f800000
$LN35@Process:
  000ea	8b 4d a0	 mov	 ecx, DWORD PTR _pDummy$531112[ebp]
  000ed	d9 e0		 fchs
  000ef	8d 45 d8	 lea	 eax, DWORD PTR $T531116[ebp]
  000f2	d9 5d e0	 fstp	 DWORD PTR $T531116[ebp+8]
  000f5	50		 push	 eax
  000f6	8b 01		 mov	 eax, DWORD PTR [ecx]
  000f8	ff 50 74	 call	 DWORD PTR [eax+116]
  000fb	50		 push	 eax
  000fc	8d 45 c0	 lea	 eax, DWORD PTR $T531117[ebp]

; 114  : 					}
; 115  : 				}
; 116  : 				else

  000ff	e9 88 00 00 00	 jmp	 $LN39@Process
$LN5@Process:

; 108  : 						vPos += vDir;
; 109  : 					}
; 110  : 					else
; 111  : 					{
; 112  : 						SetEndState( pStage );

  00104	ff 75 9c	 push	 DWORD PTR _pStage$GSCopy$[ebp]

; 113  : 						return;

  00107	e9 18 01 00 00	 jmp	 $LN40@Process
$LN6@Process:

; 117  : 				{
; 118  : 					vPos = pOwner->GetMidPositionByRate();

  0010c	b8 05 00 00 00	 mov	 eax, 5
  00111	8b d0		 mov	 edx, eax
  00113	b8 0a 00 00 00	 mov	 eax, 10			; 0000000aH
  00118	89 55 a0	 mov	 DWORD PTR tv74[ebp], edx
  0011b	db 45 a0	 fild	 DWORD PTR tv74[ebp]
  0011e	85 d2		 test	 edx, edx
  00120	79 06		 jns	 SHORT $LN36@Process
  00122	d8 05 00 00 00
	00		 fadd	 DWORD PTR __real@4f800000
$LN36@Process:
  00128	89 45 a0	 mov	 DWORD PTR tv400[ebp], eax
  0012b	db 45 a0	 fild	 DWORD PTR tv400[ebp]
  0012e	85 c0		 test	 eax, eax
  00130	79 06		 jns	 SHORT $LN37@Process
  00132	d8 05 00 00 00
	00		 fadd	 DWORD PTR __real@4f800000
$LN37@Process:
  00138	de f9		 fdivp	 ST(1), ST(0)
  0013a	51		 push	 ecx
  0013b	8d 45 cc	 lea	 eax, DWORD PTR $T531120[ebp]
  0013e	d9 5d a0	 fstp	 DWORD PTR tv404[ebp]
  00141	d9 45 a0	 fld	 DWORD PTR tv404[ebp]
  00144	d9 1c 24	 fstp	 DWORD PTR [esp]
  00147	50		 push	 eax
  00148	e8 00 00 00 00	 call	 ?GetMidPositionByRate@ioGameEntity@@QBE?AUD3DXVECTOR3@@M@Z ; ioGameEntity::GetMidPositionByRate
  0014d	8b f0		 mov	 esi, eax
  0014f	8d 7d f0	 lea	 edi, DWORD PTR _vPos$531109[ebp]
  00152	a5		 movsd
  00153	a5		 movsd
  00154	a5		 movsd

; 119  : 					vDir = pOwner->GetWorldOrientation() * D3DXVECTOR3( 0.0f, 0.0f, -FLOAT1 );

  00155	b8 01 00 00 00	 mov	 eax, 1
  0015a	0f 57 c0	 xorps	 xmm0, xmm0
  0015d	89 45 a0	 mov	 DWORD PTR tv389[ebp], eax
  00160	db 45 a0	 fild	 DWORD PTR tv389[ebp]
  00163	f3 0f 11 45 e4	 movss	 DWORD PTR $T531122[ebp], xmm0
  00168	f3 0f 11 45 e8	 movss	 DWORD PTR $T531122[ebp+4], xmm0
  0016d	85 c0		 test	 eax, eax
  0016f	79 06		 jns	 SHORT $LN38@Process
  00171	d8 05 00 00 00
	00		 fadd	 DWORD PTR __real@4f800000
$LN38@Process:
  00177	8b 4d a4	 mov	 ecx, DWORD PTR _pOwner$531107[ebp]
  0017a	d9 e0		 fchs
  0017c	8d 45 e4	 lea	 eax, DWORD PTR $T531122[ebp]
  0017f	d9 5d ec	 fstp	 DWORD PTR $T531122[ebp+8]
  00182	50		 push	 eax
  00183	8b 01		 mov	 eax, DWORD PTR [ecx]
  00185	ff 50 74	 call	 DWORD PTR [eax+116]
  00188	50		 push	 eax
  00189	8d 45 b4	 lea	 eax, DWORD PTR $T531123[ebp]
$LN39@Process:
  0018c	50		 push	 eax
  0018d	ff 15 00 00 00
	00		 call	 DWORD PTR __imp_??D@YA?AUD3DXVECTOR3@@ABUD3DXQUATERNION@@ABU0@@Z

; 120  : 					vPos += vDir;

  00193	f3 0f 10 45 f0	 movss	 xmm0, DWORD PTR _vPos$531109[ebp]
  00198	8b f0		 mov	 esi, eax
  0019a	8d 7d 90	 lea	 edi, DWORD PTR _vDir$531110[ebp]
  0019d	a5		 movsd
  0019e	a5		 movsd
  0019f	0f 5a c0	 cvtps2pd xmm0, xmm0
  001a2	a5		 movsd
  001a3	f3 0f 10 4d 90	 movss	 xmm1, DWORD PTR _vDir$531110[ebp]
  001a8	0f 5a c9	 cvtps2pd xmm1, xmm1
  001ab	f2 0f 58 c1	 addsd	 xmm0, xmm1
  001af	f3 0f 10 4d f4	 movss	 xmm1, DWORD PTR _vPos$531109[ebp+4]
  001b4	66 0f 5a c0	 cvtpd2ps xmm0, xmm0
  001b8	f3 0f 11 45 f0	 movss	 DWORD PTR _vPos$531109[ebp], xmm0
  001bd	f3 0f 10 45 94	 movss	 xmm0, DWORD PTR _vDir$531110[ebp+4]
  001c2	0f 5a c0	 cvtps2pd xmm0, xmm0
  001c5	0f 5a c9	 cvtps2pd xmm1, xmm1
  001c8	f2 0f 58 c1	 addsd	 xmm0, xmm1
  001cc	f3 0f 10 4d f8	 movss	 xmm1, DWORD PTR _vPos$531109[ebp+8]
  001d1	66 0f 5a c0	 cvtpd2ps xmm0, xmm0
  001d5	f3 0f 11 45 f4	 movss	 DWORD PTR _vPos$531109[ebp+4], xmm0
  001da	f3 0f 10 45 98	 movss	 xmm0, DWORD PTR _vDir$531110[ebp+8]
  001df	0f 5a c0	 cvtps2pd xmm0, xmm0
  001e2	0f 5a c9	 cvtps2pd xmm1, xmm1
  001e5	83 c4 0c	 add	 esp, 12			; 0000000cH

; 121  : 				}
; 122  : 				SetPosition( vPos );

  001e8	8d 45 f0	 lea	 eax, DWORD PTR _vPos$531109[ebp]
  001eb	f2 0f 58 c1	 addsd	 xmm0, xmm1
  001ef	66 0f 5a c0	 cvtpd2ps xmm0, xmm0
  001f3	50		 push	 eax
  001f4	8b cb		 mov	 ecx, ebx
  001f6	f3 0f 11 45 f8	 movss	 DWORD PTR _vPos$531109[ebp+8], xmm0
  001fb	e8 00 00 00 00	 call	 ?SetPosition@ioWeapon@@QAEXABUD3DXVECTOR3@@@Z ; ioWeapon::SetPosition

; 127  : 				return;
; 128  : 			}
; 129  : 
; 130  : 			UpdateWorldAttackBox( fTimePerSec, false );

  00200	f3 0f 10 45 08	 movss	 xmm0, DWORD PTR _fTimePerSec$[ebp]
  00205	8b 03		 mov	 eax, DWORD PTR [ebx]
  00207	6a 00		 push	 0
  00209	51		 push	 ecx
  0020a	8b cb		 mov	 ecx, ebx
  0020c	f3 0f 11 04 24	 movss	 DWORD PTR [esp], xmm0
  00211	ff 90 38 01 00
	00		 call	 DWORD PTR [eax+312]

; 131  : 			CheckTarget( pStage );

  00217	ff 75 9c	 push	 DWORD PTR _pStage$GSCopy$[ebp]
  0021a	8b cb		 mov	 ecx, ebx
  0021c	e8 00 00 00 00	 call	 ?CheckTarget@ioRotateTargetWeapon@@IAEXPAVioPlayStage@@@Z ; ioRotateTargetWeapon::CheckTarget

; 132  : 		}
; 133  : 		break;

  00221	eb 08		 jmp	 SHORT $LN9@Process
$LN7@Process:

; 123  : 			}
; 124  : 			else
; 125  : 			{
; 126  : 				SetEndState( pStage );

  00223	56		 push	 esi
$LN40@Process:
  00224	8b cb		 mov	 ecx, ebx
  00226	e8 00 00 00 00	 call	 ?SetEndState@ioRotateTargetWeapon@@IAEXPAVioPlayStage@@@Z ; ioRotateTargetWeapon::SetEndState
$LN9@Process:

; 137  : 	}
; 138  : }

  0022b	8b 4d fc	 mov	 ecx, DWORD PTR __$ArrayPad$[ebp]
  0022e	5f		 pop	 edi
  0022f	5e		 pop	 esi
  00230	33 cd		 xor	 ecx, ebp
  00232	5b		 pop	 ebx
  00233	e8 00 00 00 00	 call	 @__security_check_cookie@4
  00238	c9		 leave
  00239	c2 08 00	 ret	 8
?Process@ioRotateTargetWeapon@@UAEXMPAVioPlayStage@@@Z ENDP ; ioRotateTargetWeapon::Process
_TEXT	ENDS
PUBLIC	__$ArrayPad$
EXTRN	??6SP2Packet@@QAEAAV0@ABUD3DXVECTOR3@@@Z:PROC	; SP2Packet::operator<<
EXTRN	?IsStateProtect@ioBaseChar@@QAE_NW4AttackSide@@W4DefenseBreakType@@@Z:PROC ; ioBaseChar::IsStateProtect
EXTRN	?GetDefenseBreakType@ioWeapon@@QBE?AW4DefenseBreakType@@XZ:PROC ; ioWeapon::GetDefenseBreakType
EXTRN	?IsProtectState@ioBaseChar@@QAE_NXZ:PROC	; ioBaseChar::IsProtectState
;	COMDAT xdata$x
xdata$x	SEGMENT
__unwindtable$?IsCollision@ioRotateTargetWeapon@@UAE_NPAVioPlayEntity@@_N@Z DD 0ffffffffH
	DD	FLAT:__unwindfunclet$?IsCollision@ioRotateTargetWeapon@@UAE_NPAVioPlayEntity@@_N@Z$0
	DD	00H
	DD	FLAT:__unwindfunclet$?IsCollision@ioRotateTargetWeapon@@UAE_NPAVioPlayEntity@@_N@Z$1
__ehfuncinfo$?IsCollision@ioRotateTargetWeapon@@UAE_NPAVioPlayEntity@@_N@Z DD 019930522H
	DD	02H
	DD	FLAT:__unwindtable$?IsCollision@ioRotateTargetWeapon@@UAE_NPAVioPlayEntity@@_N@Z
	DD	2 DUP(00H)
	DD	2 DUP(00H)
	DD	00H
	DD	01H
; Function compile flags: /Ogsp
xdata$x	ENDS
;	COMDAT ?IsCollision@ioRotateTargetWeapon@@UAE_NPAVioPlayEntity@@_N@Z
_TEXT	SEGMENT
_vTargetPos$531163 = -32888				; size = 12
_vWeaponPos$531164 = -32876				; size = 12
_value$537311 = -32864					; size = 4
_pTarget$531155 = -32860				; size = 4
_bCollision$ = -32853					; size = 1
_bProtected$531157 = -32849				; size = 1
_kPacket$531168 = -32848				; size = 32792
_kInfo$531162 = -56					; size = 28
_vDiff$531165 = -28					; size = 12
__$ArrayPad$ = -16					; size = 4
__$EHRec$ = -12						; size = 12
_pEntity$ = 8						; size = 4
_bMapCollision$ = 12					; size = 1
?IsCollision@ioRotateTargetWeapon@@UAE_NPAVioPlayEntity@@_N@Z PROC ; ioRotateTargetWeapon::IsCollision, COMDAT
; _this$ = ecx

; 170  : {

  00000	55		 push	 ebp
  00001	8b ec		 mov	 ebp, esp
  00003	6a ff		 push	 -1
  00005	68 00 00 00 00	 push	 __ehhandler$?IsCollision@ioRotateTargetWeapon@@UAE_NPAVioPlayEntity@@_N@Z
  0000a	64 a1 00 00 00
	00		 mov	 eax, DWORD PTR fs:0
  00010	50		 push	 eax
  00011	b8 6c 80 00 00	 mov	 eax, 32876		; 0000806cH
  00016	e8 00 00 00 00	 call	 __chkstk
  0001b	a1 00 00 00 00	 mov	 eax, DWORD PTR ___security_cookie
  00020	33 c5		 xor	 eax, ebp
  00022	89 45 f0	 mov	 DWORD PTR __$ArrayPad$[ebp], eax
  00025	53		 push	 ebx
  00026	56		 push	 esi
  00027	57		 push	 edi
  00028	50		 push	 eax
  00029	8d 45 f4	 lea	 eax, DWORD PTR __$EHRec$[ebp]
  0002c	64 a3 00 00 00
	00		 mov	 DWORD PTR fs:0, eax
  00032	8b 75 08	 mov	 esi, DWORD PTR _pEntity$[ebp]

; 171  : 	if( !pEntity )

  00035	33 ff		 xor	 edi, edi
  00037	8b d9		 mov	 ebx, ecx
  00039	3b f7		 cmp	 esi, edi
  0003b	75 07		 jne	 SHORT $LN8@IsCollisio

; 172  : 		return false;

  0003d	32 c0		 xor	 al, al
  0003f	e9 2a 02 00 00	 jmp	 $LN9@IsCollisio
$LN8@IsCollisio:

; 173  : 
; 174  : 	bool bCollision = CheckCollision( pEntity );

  00044	56		 push	 esi
  00045	e8 00 00 00 00	 call	 ?CheckCollision@ioRotateTargetWeapon@@IAE_NPAVioPlayEntity@@@Z ; ioRotateTargetWeapon::CheckCollision
  0004a	88 85 ab 7f ff
	ff		 mov	 BYTE PTR _bCollision$[ebp], al

; 175  : 	CheckPiercing( bCollision );

  00050	ff b5 ab 7f ff
	ff		 push	 DWORD PTR _bCollision$[ebp]
  00056	8b 03		 mov	 eax, DWORD PTR [ebx]
  00058	8b cb		 mov	 ecx, ebx
  0005a	ff 90 48 01 00
	00		 call	 DWORD PTR [eax+328]

; 176  : 
; 177  : 	if( bCollision && !IsAlreadyCollisioned(pEntity) )

  00060	80 bd ab 7f ff
	ff 00		 cmp	 BYTE PTR _bCollision$[ebp], 0
  00067	0f 84 fb 01 00
	00		 je	 $LN2@IsCollisio
  0006d	8b 03		 mov	 eax, DWORD PTR [ebx]
  0006f	56		 push	 esi
  00070	8b cb		 mov	 ecx, ebx
  00072	ff 10		 call	 DWORD PTR [eax]
  00074	84 c0		 test	 al, al
  00076	0f 85 ec 01 00
	00		 jne	 $LN2@IsCollisio

; 178  : 	{
; 179  : 		ioBaseChar *pTarget = ToBaseChar( pEntity );

  0007c	56		 push	 esi
  0007d	e8 00 00 00 00	 call	 ?ToBaseChar@@YAPAVioBaseChar@@PAVioGameEntity@@@Z ; ToBaseChar
  00082	8b f0		 mov	 esi, eax
  00084	59		 pop	 ecx
  00085	89 b5 a4 7f ff
	ff		 mov	 DWORD PTR _pTarget$531155[ebp], esi

; 180  : 		if( pTarget && pTarget->IsNeedProcess() )

  0008b	3b f7		 cmp	 esi, edi
  0008d	0f 84 d5 01 00
	00		 je	 $LN2@IsCollisio
  00093	8b 06		 mov	 eax, DWORD PTR [esi]
  00095	8b ce		 mov	 ecx, esi
  00097	ff 90 00 01 00
	00		 call	 DWORD PTR [eax+256]
  0009d	84 c0		 test	 al, al
  0009f	0f 84 c3 01 00
	00		 je	 $LN2@IsCollisio

; 181  : 		{
; 182  : 			bool bProtected = false;
; 183  : 
; 184  : 			if( pTarget->IsProtectState() )

  000a5	8b ce		 mov	 ecx, esi
  000a7	c6 85 af 7f ff
	ff 00		 mov	 BYTE PTR _bProtected$531157[ebp], 0
  000ae	e8 00 00 00 00	 call	 ?IsProtectState@ioBaseChar@@QAE_NXZ ; ioBaseChar::IsProtectState
  000b3	84 c0		 test	 al, al
  000b5	74 07		 je	 SHORT $LN5@IsCollisio

; 185  : 				bProtected = true;

  000b7	c6 85 af 7f ff
	ff 01		 mov	 BYTE PTR _bProtected$531157[ebp], 1
$LN5@IsCollisio:

; 186  : 
; 187  : 			if( pTarget->IsStateProtect( AS_NONE, GetDefenseBreakType() ) )

  000be	8b cb		 mov	 ecx, ebx
  000c0	e8 00 00 00 00	 call	 ?GetDefenseBreakType@ioWeapon@@QBE?AW4DefenseBreakType@@XZ ; ioWeapon::GetDefenseBreakType
  000c5	50		 push	 eax
  000c6	57		 push	 edi
  000c7	8b ce		 mov	 ecx, esi
  000c9	e8 00 00 00 00	 call	 ?IsStateProtect@ioBaseChar@@QAE_NW4AttackSide@@W4DefenseBreakType@@@Z ; ioBaseChar::IsStateProtect
  000ce	84 c0		 test	 al, al
  000d0	74 07		 je	 SHORT $LN4@IsCollisio

; 188  : 				bProtected = true;

  000d2	c6 85 af 7f ff
	ff 01		 mov	 BYTE PTR _bProtected$531157[ebp], 1
$LN4@IsCollisio:

; 189  : 
; 190  : 			if( pTarget->GetState() == CS_DEFENSE && GetDefenseBreakType() == DBT_NONE && IsIgnoreProtect() == IPT_NONE )

  000d9	80 be 10 03 00
	00 08		 cmp	 BYTE PTR [esi+784], 8
  000e0	75 2c		 jne	 SHORT $LN3@IsCollisio
  000e2	8b cb		 mov	 ecx, ebx
  000e4	e8 00 00 00 00	 call	 ?GetDefenseBreakType@ioWeapon@@QBE?AW4DefenseBreakType@@XZ ; ioWeapon::GetDefenseBreakType
  000e9	85 c0		 test	 eax, eax
  000eb	75 21		 jne	 SHORT $LN3@IsCollisio
  000ed	8d 85 a0 7f ff
	ff		 lea	 eax, DWORD PTR _value$537311[ebp]
  000f3	8d 8b 0c 06 00
	00		 lea	 ecx, DWORD PTR [ebx+1548]
  000f9	50		 push	 eax
  000fa	e8 00 00 00 00	 call	 ?DecryptValueToPool@?$CEncrypt@H@@QAEXPAH@Z ; CEncrypt<int>::DecryptValueToPool
  000ff	39 bd a0 7f ff
	ff		 cmp	 DWORD PTR _value$537311[ebp], edi
  00105	75 07		 jne	 SHORT $LN3@IsCollisio

; 191  : 				bProtected = true;

  00107	c6 85 af 7f ff
	ff 01		 mov	 BYTE PTR _bProtected$531157[ebp], 1
$LN3@IsCollisio:

; 192  : 
; 193  : 			if( !bProtected )

  0010e	80 bd af 7f ff
	ff 00		 cmp	 BYTE PTR _bProtected$531157[ebp], 0
  00115	0f 85 4d 01 00
	00		 jne	 $LN2@IsCollisio

; 194  : 			{
; 195  : 				TargetInfo kInfo;

  0011b	8d 4d c8	 lea	 ecx, DWORD PTR _kInfo$531162[ebp]
  0011e	ff 15 00 00 00
	00		 call	 DWORD PTR __imp_??0ioHashString@@QAE@XZ

; 196  : 				kInfo.m_TargetName = pTarget->GetCharName();

  00124	8d 86 d4 02 00
	00		 lea	 eax, DWORD PTR [esi+724]
  0012a	50		 push	 eax
  0012b	8d 4d c8	 lea	 ecx, DWORD PTR _kInfo$531162[ebp]
  0012e	89 7d fc	 mov	 DWORD PTR __$EHRec$[ebp+8], edi
  00131	ff 15 00 00 00
	00		 call	 DWORD PTR __imp_??4ioHashString@@QAEAAV0@ABV0@@Z

; 197  : 
; 198  : 				D3DXVECTOR3	vTargetPos = pTarget->GetWorldPosition();

  00137	8b 06		 mov	 eax, DWORD PTR [esi]
  00139	8b ce		 mov	 ecx, esi
  0013b	ff 50 70	 call	 DWORD PTR [eax+112]
  0013e	8b f0		 mov	 esi, eax

; 199  : 				D3DXVECTOR3 vWeaponPos = GetPosition();

  00140	8b 03		 mov	 eax, DWORD PTR [ebx]
  00142	8d bd 88 7f ff
	ff		 lea	 edi, DWORD PTR _vTargetPos$531163[ebp]
  00148	a5		 movsd
  00149	a5		 movsd
  0014a	8b cb		 mov	 ecx, ebx
  0014c	a5		 movsd
  0014d	ff 50 70	 call	 DWORD PTR [eax+112]

; 200  : 				D3DXVECTOR3 vDiff = vTargetPos - vWeaponPos;

  00150	f3 0f 10 85 88
	7f ff ff	 movss	 xmm0, DWORD PTR _vTargetPos$531163[ebp]
  00158	8b f0		 mov	 esi, eax
  0015a	8d bd 94 7f ff
	ff		 lea	 edi, DWORD PTR _vWeaponPos$531164[ebp]
  00160	a5		 movsd
  00161	a5		 movsd
  00162	a5		 movsd
  00163	f3 0f 10 8d 94
	7f ff ff	 movss	 xmm1, DWORD PTR _vWeaponPos$531164[ebp]
  0016b	f3 0f 10 95 9c
	7f ff ff	 movss	 xmm2, DWORD PTR _vWeaponPos$531164[ebp+8]
  00173	0f 5a c9	 cvtps2pd xmm1, xmm1
  00176	0f 5a c0	 cvtps2pd xmm0, xmm0
  00179	f2 0f 5c c1	 subsd	 xmm0, xmm1
  0017d	f3 0f 10 8d 90
	7f ff ff	 movss	 xmm1, DWORD PTR _vTargetPos$531163[ebp+8]

; 201  : 				vDiff.y = 0;
; 202  : 
; 203  : 				D3DXVec3Normalize( &vDiff, &vDiff );

  00185	8d 45 e4	 lea	 eax, DWORD PTR _vDiff$531165[ebp]
  00188	66 0f 5a c0	 cvtpd2ps xmm0, xmm0
  0018c	0f 5a c9	 cvtps2pd xmm1, xmm1
  0018f	0f 5a d2	 cvtps2pd xmm2, xmm2
  00192	50		 push	 eax
  00193	f2 0f 5c ca	 subsd	 xmm1, xmm2
  00197	f3 0f 11 45 e4	 movss	 DWORD PTR _vDiff$531165[ebp], xmm0
  0019c	0f 57 c0	 xorps	 xmm0, xmm0
  0019f	66 0f 5a c9	 cvtpd2ps xmm1, xmm1
  001a3	50		 push	 eax
  001a4	f3 0f 11 4d ec	 movss	 DWORD PTR _vDiff$531165[ebp+8], xmm1
  001a9	f3 0f 11 45 e8	 movss	 DWORD PTR _vDiff$531165[ebp+4], xmm0
  001ae	e8 00 00 00 00	 call	 _D3DXVec3Normalize@8

; 204  : 				kInfo.m_vDir = vDiff;

  001b3	8d 75 e4	 lea	 esi, DWORD PTR _vDiff$531165[ebp]
  001b6	8d 7d d8	 lea	 edi, DWORD PTR _kInfo$531162[ebp+16]
  001b9	a5		 movsd
  001ba	a5		 movsd

; 205  : 
; 206  : 				m_TargetInfoList.push_back( kInfo );

  001bb	8d 45 c8	 lea	 eax, DWORD PTR _kInfo$531162[ebp]
  001be	50		 push	 eax
  001bf	8d 8b f4 08 00
	00		 lea	 ecx, DWORD PTR [ebx+2292]
  001c5	a5		 movsd
  001c6	e8 00 00 00 00	 call	 ?push_back@?$vector@UTargetInfo@ioRotateTargetWeapon@@V?$allocator@UTargetInfo@ioRotateTargetWeapon@@@std@@@std@@QAEXABUTargetInfo@ioRotateTargetWeapon@@@Z ; std::vector<ioRotateTargetWeapon::TargetInfo,std::allocator<ioRotateTargetWeapon::TargetInfo> >::push_back

; 207  : 
; 208  : 				if( pTarget->IsNeedSendNetwork() )

  001cb	8b 8d a4 7f ff
	ff		 mov	 ecx, DWORD PTR _pTarget$531155[ebp]
  001d1	8b 01		 mov	 eax, DWORD PTR [ecx]
  001d3	ff 90 04 01 00
	00		 call	 DWORD PTR [eax+260]
  001d9	84 c0		 test	 al, al
  001db	74 7e		 je	 SHORT $LN1@IsCollisio

; 209  : 				{
; 210  : 					SP2Packet kPacket( CUPK_WEAPON_SYNC );

  001dd	68 16 42 00 00	 push	 16918			; 00004216H
  001e2	8d 8d b0 7f ff
	ff		 lea	 ecx, DWORD PTR _kPacket$531168[ebp]
  001e8	e8 00 00 00 00	 call	 ??0SP2Packet@@QAE@K@Z	; SP2Packet::SP2Packet

; 211  : 					kPacket << GetOwnerName();

  001ed	8d 43 10	 lea	 eax, DWORD PTR [ebx+16]
  001f0	50		 push	 eax
  001f1	8d 8d b0 7f ff
	ff		 lea	 ecx, DWORD PTR _kPacket$531168[ebp]
  001f7	c6 45 fc 01	 mov	 BYTE PTR __$EHRec$[ebp+8], 1
  001fb	e8 00 00 00 00	 call	 ??6SP2Packet@@QAEAAV0@ABVioHashString@@@Z ; SP2Packet::operator<<

; 212  : 					kPacket << m_dwWeaponIdx;

  00200	ff b3 b8 04 00
	00		 push	 DWORD PTR [ebx+1208]
  00206	8d 8d b0 7f ff
	ff		 lea	 ecx, DWORD PTR _kPacket$531168[ebp]
  0020c	e8 00 00 00 00	 call	 ??6SP2Packet@@QAEAAV0@K@Z ; SP2Packet::operator<<

; 213  : 					kPacket << SS_ADD_TARGET;

  00211	6a 00		 push	 0
  00213	8d 8d b0 7f ff
	ff		 lea	 ecx, DWORD PTR _kPacket$531168[ebp]
  00219	e8 00 00 00 00	 call	 ??6SP2Packet@@QAEAAV0@H@Z ; SP2Packet::operator<<

; 214  : 					kPacket << kInfo.m_TargetName;

  0021e	8d 45 c8	 lea	 eax, DWORD PTR _kInfo$531162[ebp]
  00221	50		 push	 eax
  00222	8d 8d b0 7f ff
	ff		 lea	 ecx, DWORD PTR _kPacket$531168[ebp]
  00228	e8 00 00 00 00	 call	 ??6SP2Packet@@QAEAAV0@ABVioHashString@@@Z ; SP2Packet::operator<<

; 215  : 					kPacket << kInfo.m_vDir;

  0022d	8d 45 d8	 lea	 eax, DWORD PTR _kInfo$531162[ebp+16]
  00230	50		 push	 eax
  00231	8d 8d b0 7f ff
	ff		 lea	 ecx, DWORD PTR _kPacket$531168[ebp]
  00237	e8 00 00 00 00	 call	 ??6SP2Packet@@QAEAAV0@ABUD3DXVECTOR3@@@Z ; SP2Packet::operator<<

; 216  : 					P2PNetwork::SendToAllPlayingUser( kPacket );

  0023c	8d 85 b0 7f ff
	ff		 lea	 eax, DWORD PTR _kPacket$531168[ebp]
  00242	6a 00		 push	 0
  00244	50		 push	 eax
  00245	e8 00 00 00 00	 call	 ?SendToAllPlayingUser@P2PNetwork@@YAXAAVSP2Packet@@PAVioBaseChar@@@Z ; P2PNetwork::SendToAllPlayingUser
  0024a	59		 pop	 ecx
  0024b	59		 pop	 ecx

; 217  : 				}

  0024c	8d 8d b0 7f ff
	ff		 lea	 ecx, DWORD PTR _kPacket$531168[ebp]
  00252	c6 45 fc 00	 mov	 BYTE PTR __$EHRec$[ebp+8], 0
  00256	e8 00 00 00 00	 call	 ??1SP2Packet@@UAE@XZ	; SP2Packet::~SP2Packet
$LN1@IsCollisio:

; 218  : 			}

  0025b	83 4d fc ff	 or	 DWORD PTR __$EHRec$[ebp+8], -1
  0025f	8d 4d c8	 lea	 ecx, DWORD PTR _kInfo$531162[ebp]
  00262	ff 15 00 00 00
	00		 call	 DWORD PTR __imp_??1ioHashString@@QAE@XZ
$LN2@IsCollisio:

; 219  : 		}
; 220  : 	}
; 221  : 
; 222  : 	return bCollision;

  00268	8a 85 ab 7f ff
	ff		 mov	 al, BYTE PTR _bCollision$[ebp]
$LN9@IsCollisio:

; 223  : }

  0026e	8b 4d f4	 mov	 ecx, DWORD PTR __$EHRec$[ebp]
  00271	64 89 0d 00 00
	00 00		 mov	 DWORD PTR fs:0, ecx
  00278	59		 pop	 ecx
  00279	5f		 pop	 edi
  0027a	5e		 pop	 esi
  0027b	5b		 pop	 ebx
  0027c	8b 4d f0	 mov	 ecx, DWORD PTR __$ArrayPad$[ebp]
  0027f	33 cd		 xor	 ecx, ebp
  00281	e8 00 00 00 00	 call	 @__security_check_cookie@4
  00286	c9		 leave
  00287	c2 08 00	 ret	 8
_TEXT	ENDS
;	COMDAT text$x
text$x	SEGMENT
__unwindfunclet$?IsCollision@ioRotateTargetWeapon@@UAE_NPAVioPlayEntity@@_N@Z$0:
  00000	8d 4d c8	 lea	 ecx, DWORD PTR _kInfo$531162[ebp]
  00003	e9 00 00 00 00	 jmp	 ??1TargetInfo@ioRotateTargetWeapon@@QAE@XZ
__unwindfunclet$?IsCollision@ioRotateTargetWeapon@@UAE_NPAVioPlayEntity@@_N@Z$1:
  00008	8d 8d b0 7f ff
	ff		 lea	 ecx, DWORD PTR _kPacket$531168[ebp]
  0000e	e9 00 00 00 00	 jmp	 ??1SP2Packet@@UAE@XZ	; SP2Packet::~SP2Packet
__ehhandler$?IsCollision@ioRotateTargetWeapon@@UAE_NPAVioPlayEntity@@_N@Z:
  00013	8b 54 24 08	 mov	 edx, DWORD PTR [esp+8]
  00017	8d 42 0c	 lea	 eax, DWORD PTR [edx+12]
  0001a	8b 8a 84 7f ff
	ff		 mov	 ecx, DWORD PTR [edx-32892]
  00020	33 c8		 xor	 ecx, eax
  00022	e8 00 00 00 00	 call	 @__security_check_cookie@4
  00027	8b 4a fc	 mov	 ecx, DWORD PTR [edx-4]
  0002a	33 c8		 xor	 ecx, eax
  0002c	e8 00 00 00 00	 call	 @__security_check_cookie@4
  00031	b8 00 00 00 00	 mov	 eax, OFFSET __ehfuncinfo$?IsCollision@ioRotateTargetWeapon@@UAE_NPAVioPlayEntity@@_N@Z
  00036	e9 00 00 00 00	 jmp	 ___CxxFrameHandler3
text$x	ENDS
?IsCollision@ioRotateTargetWeapon@@UAE_NPAVioPlayEntity@@_N@Z ENDP ; ioRotateTargetWeapon::IsCollision
EXTRN	??5SP2Packet@@QAEAAV0@AAUD3DXVECTOR3@@@Z:PROC	; SP2Packet::operator>>
EXTRN	__imp_??8ioHashString@@QBE_NABV0@@Z:PROC
EXTRN	??5SP2Packet@@QAEAAV0@AAVioHashString@@@Z:PROC	; SP2Packet::operator>>
EXTRN	??5SP2Packet@@QAEAAV0@AAH@Z:PROC		; SP2Packet::operator>>
EXTRN	__EH_epilog3_GS:PROC
EXTRN	__EH_prolog3_GS:PROC
;	COMDAT xdata$x
xdata$x	SEGMENT
__unwindtable$?ApplyWeaponSync@ioRotateTargetWeapon@@UAEXAAVSP2Packet@@PAVioPlayStage@@@Z DD 0ffffffffH
	DD	FLAT:__unwindfunclet$?ApplyWeaponSync@ioRotateTargetWeapon@@UAEXAAVSP2Packet@@PAVioPlayStage@@@Z$0
	DD	0ffffffffH
	DD	FLAT:__unwindfunclet$?ApplyWeaponSync@ioRotateTargetWeapon@@UAEXAAVSP2Packet@@PAVioPlayStage@@@Z$1
	DD	01H
	DD	FLAT:__unwindfunclet$?ApplyWeaponSync@ioRotateTargetWeapon@@UAEXAAVSP2Packet@@PAVioPlayStage@@@Z$2
__ehfuncinfo$?ApplyWeaponSync@ioRotateTargetWeapon@@UAEXAAVSP2Packet@@PAVioPlayStage@@@Z DD 019930522H
	DD	03H
	DD	FLAT:__unwindtable$?ApplyWeaponSync@ioRotateTargetWeapon@@UAEXAAVSP2Packet@@PAVioPlayStage@@@Z
	DD	2 DUP(00H)
	DD	2 DUP(00H)
	DD	00H
	DD	01H
; Function compile flags: /Ogsp
xdata$x	ENDS
;	COMDAT ?ApplyWeaponSync@ioRotateTargetWeapon@@UAEXAAVSP2Packet@@PAVioPlayStage@@@Z
_TEXT	SEGMENT
_szTargetName$531195 = -104				; size = 16
$T537359 = -88						; size = 4
_iState$ = -84						; size = 4
_iter$531322 = -80					; size = 4
_bAlreadyCollision$531186 = -73				; size = 1
_kInfo$531344 = -72					; size = 28
_kInfo$531185 = -44					; size = 28
__$EHRec$ = -12						; size = 12
_rkPacket$ = 8						; size = 4
_pStage$ = 12						; size = 4
?ApplyWeaponSync@ioRotateTargetWeapon@@UAEXAAVSP2Packet@@PAVioPlayStage@@@Z PROC ; ioRotateTargetWeapon::ApplyWeaponSync, COMDAT
; _this$ = ecx

; 226  : {

  00000	6a 5c		 push	 92			; 0000005cH
  00002	b8 00 00 00 00	 mov	 eax, __ehhandler$?ApplyWeaponSync@ioRotateTargetWeapon@@UAEXAAVSP2Packet@@PAVioPlayStage@@@Z
  00007	e8 00 00 00 00	 call	 __EH_prolog3_GS
  0000c	8b 75 08	 mov	 esi, DWORD PTR _rkPacket$[ebp]

; 227  : 	if( !pStage )	return;

  0000f	33 ff		 xor	 edi, edi
  00011	8b d9		 mov	 ebx, ecx
  00013	39 7d 0c	 cmp	 DWORD PTR _pStage$[ebp], edi
  00016	0f 84 30 01 00
	00		 je	 $LN12@ApplyWeapo

; 228  : 
; 229  : 	int iState;
; 230  : 	rkPacket >> iState;

  0001c	8d 45 ac	 lea	 eax, DWORD PTR _iState$[ebp]
  0001f	50		 push	 eax
  00020	8b ce		 mov	 ecx, esi
  00022	e8 00 00 00 00	 call	 ??5SP2Packet@@QAEAAV0@AAH@Z ; SP2Packet::operator>>

; 231  : 
; 232  : 	switch( iState )

  00027	8b 45 ac	 mov	 eax, DWORD PTR _iState$[ebp]
  0002a	2b c7		 sub	 eax, edi
  0002c	0f 84 9a 00 00
	00		 je	 $LN11@ApplyWeapo
  00032	48		 dec	 eax
  00033	0f 85 13 01 00
	00		 jne	 $LN12@ApplyWeapo

; 253  : 		break;
; 254  : 	case SS_EXCEPTION:
; 255  : 		{
; 256  : 			ioHashString szTargetName;

  00039	8d 4d 98	 lea	 ecx, DWORD PTR _szTargetName$531195[ebp]
  0003c	ff 15 00 00 00
	00		 call	 DWORD PTR __imp_??0ioHashString@@QAE@XZ

; 257  : 			rkPacket >> szTargetName;

  00042	8d 45 98	 lea	 eax, DWORD PTR _szTargetName$531195[ebp]
  00045	50		 push	 eax
  00046	8b ce		 mov	 ecx, esi
  00048	c7 45 fc 01 00
	00 00		 mov	 DWORD PTR __$EHRec$[ebp+8], 1
  0004f	e8 00 00 00 00	 call	 ??5SP2Packet@@QAEAAV0@AAVioHashString@@@Z ; SP2Packet::operator>>

; 258  : 
; 259  : 			TargetInfoList::iterator iter = m_TargetInfoList.begin();

  00054	8b b3 f4 08 00
	00		 mov	 esi, DWORD PTR [ebx+2292]
  0005a	89 75 b0	 mov	 DWORD PTR _iter$531322[ebp], esi

; 260  : 			while( iter != m_TargetInfoList.end() )

  0005d	3b b3 f8 08 00
	00		 cmp	 esi, DWORD PTR [ebx+2296]
  00063	74 62		 je	 SHORT $LN3@ApplyWeapo
  00065	eb 03		 jmp	 SHORT $LN4@ApplyWeapo
$LL73@ApplyWeapo:
  00067	8b 75 b0	 mov	 esi, DWORD PTR _iter$531322[ebp]
$LN4@ApplyWeapo:

; 261  : 			{
; 262  : 				TargetInfo kInfo = *iter;

  0006a	56		 push	 esi
  0006b	8d 4d b8	 lea	 ecx, DWORD PTR _kInfo$531344[ebp]
  0006e	ff 15 00 00 00
	00		 call	 DWORD PTR __imp_??0ioHashString@@QAE@ABV0@@Z
  00074	83 c6 10	 add	 esi, 16			; 00000010H
  00077	8d 7d c8	 lea	 edi, DWORD PTR _kInfo$531344[ebp+16]
  0007a	a5		 movsd
  0007b	a5		 movsd
  0007c	a5		 movsd

; 263  : 				if( kInfo.m_TargetName == szTargetName )

  0007d	8d 45 98	 lea	 eax, DWORD PTR _szTargetName$531195[ebp]
  00080	50		 push	 eax
  00081	8d 4d b8	 lea	 ecx, DWORD PTR _kInfo$531344[ebp]
  00084	c6 45 fc 02	 mov	 BYTE PTR __$EHRec$[ebp+8], 2
  00088	ff 15 00 00 00
	00		 call	 DWORD PTR __imp_??8ioHashString@@QBE_NABV0@@Z
  0008e	84 c0		 test	 al, al
  00090	74 19		 je	 SHORT $LN2@ApplyWeapo

; 264  : 					iter = m_TargetInfoList.erase( iter );

  00092	ff 75 b0	 push	 DWORD PTR _iter$531322[ebp]
  00095	8d 45 a8	 lea	 eax, DWORD PTR $T537359[ebp]
  00098	50		 push	 eax
  00099	8d 8b f4 08 00
	00		 lea	 ecx, DWORD PTR [ebx+2292]
  0009f	e8 00 00 00 00	 call	 ?erase@?$vector@UTargetInfo@ioRotateTargetWeapon@@V?$allocator@UTargetInfo@ioRotateTargetWeapon@@@std@@@std@@QAE?AV?$_Vector_iterator@V?$_Vector_val@UTargetInfo@ioRotateTargetWeapon@@V?$allocator@UTargetInfo@ioRotateTargetWeapon@@@std@@@std@@@2@V?$_Vector_const_iterator@V?$_Vector_val@UTargetInfo@ioRotateTargetWeapon@@V?$allocator@UTargetInfo@ioRotateTargetWeapon@@@std@@@std@@@2@@Z ; std::vector<ioRotateTargetWeapon::TargetInfo,std::allocator<ioRotateTargetWeapon::TargetInfo> >::erase
  000a4	8b 00		 mov	 eax, DWORD PTR [eax]
  000a6	89 45 b0	 mov	 DWORD PTR _iter$531322[ebp], eax

; 265  : 				else

  000a9	eb 04		 jmp	 SHORT $LN63@ApplyWeapo
$LN2@ApplyWeapo:

; 266  : 					++iter;

  000ab	83 45 b0 1c	 add	 DWORD PTR _iter$531322[ebp], 28 ; 0000001cH
$LN63@ApplyWeapo:

; 267  : 			}

  000af	8d 4d b8	 lea	 ecx, DWORD PTR _kInfo$531344[ebp]
  000b2	c6 45 fc 01	 mov	 BYTE PTR __$EHRec$[ebp+8], 1
  000b6	ff 15 00 00 00
	00		 call	 DWORD PTR __imp_??1ioHashString@@QAE@XZ
  000bc	8b 45 b0	 mov	 eax, DWORD PTR _iter$531322[ebp]
  000bf	3b 83 f8 08 00
	00		 cmp	 eax, DWORD PTR [ebx+2296]
  000c5	75 a0		 jne	 SHORT $LL73@ApplyWeapo
$LN3@ApplyWeapo:

; 268  : 		}

  000c7	8d 4d 98	 lea	 ecx, DWORD PTR _szTargetName$531195[ebp]

; 269  : 		break;

  000ca	eb 76		 jmp	 SHORT $LN75@ApplyWeapo
$LN11@ApplyWeapo:

; 233  : 	{
; 234  : 	case SS_ADD_TARGET:
; 235  : 		{
; 236  : 			TargetInfo kInfo;

  000cc	8d 4d d4	 lea	 ecx, DWORD PTR _kInfo$531185[ebp]
  000cf	ff 15 00 00 00
	00		 call	 DWORD PTR __imp_??0ioHashString@@QAE@XZ

; 237  : 			rkPacket >> kInfo.m_TargetName;

  000d5	8d 45 d4	 lea	 eax, DWORD PTR _kInfo$531185[ebp]
  000d8	50		 push	 eax
  000d9	8b ce		 mov	 ecx, esi
  000db	89 7d fc	 mov	 DWORD PTR __$EHRec$[ebp+8], edi
  000de	e8 00 00 00 00	 call	 ??5SP2Packet@@QAEAAV0@AAVioHashString@@@Z ; SP2Packet::operator>>

; 238  : 			rkPacket >> kInfo.m_vDir;

  000e3	8d 45 e4	 lea	 eax, DWORD PTR _kInfo$531185[ebp+16]
  000e6	50		 push	 eax
  000e7	8b ce		 mov	 ecx, esi
  000e9	e8 00 00 00 00	 call	 ??5SP2Packet@@QAEAAV0@AAUD3DXVECTOR3@@@Z ; SP2Packet::operator>>

; 239  : 			
; 240  : 			bool bAlreadyCollision = false;
; 241  : 			int iCnt = m_TargetInfoList.size();

  000ee	8b 83 f8 08 00
	00		 mov	 eax, DWORD PTR [ebx+2296]
  000f4	2b 83 f4 08 00
	00		 sub	 eax, DWORD PTR [ebx+2292]
  000fa	6a 1c		 push	 28			; 0000001cH
  000fc	99		 cdq
  000fd	59		 pop	 ecx
  000fe	f7 f9		 idiv	 ecx
  00100	c6 45 b7 00	 mov	 BYTE PTR _bAlreadyCollision$531186[ebp], 0

; 242  : 			for( int i=0; i<iCnt; ++i )

  00104	3b c7		 cmp	 eax, edi
  00106	7e 28		 jle	 SHORT $LN72@ApplyWeapo

; 233  : 	{
; 234  : 	case SS_ADD_TARGET:
; 235  : 		{
; 236  : 			TargetInfo kInfo;

  00108	8b f0		 mov	 esi, eax
$LL10@ApplyWeapo:

; 243  : 			{
; 244  : 				if( m_TargetInfoList[i].m_TargetName == kInfo.m_TargetName )

  0010a	8b 8b f4 08 00
	00		 mov	 ecx, DWORD PTR [ebx+2292]
  00110	8d 45 d4	 lea	 eax, DWORD PTR _kInfo$531185[ebp]
  00113	03 cf		 add	 ecx, edi
  00115	50		 push	 eax
  00116	ff 15 00 00 00
	00		 call	 DWORD PTR __imp_??8ioHashString@@QBE_NABV0@@Z
  0011c	84 c0		 test	 al, al
  0011e	74 04		 je	 SHORT $LN9@ApplyWeapo

; 245  : 					bAlreadyCollision = true;				

  00120	c6 45 b7 01	 mov	 BYTE PTR _bAlreadyCollision$531186[ebp], 1
$LN9@ApplyWeapo:

; 242  : 			for( int i=0; i<iCnt; ++i )

  00124	83 c7 1c	 add	 edi, 28			; 0000001cH
  00127	4e		 dec	 esi
  00128	75 e0		 jne	 SHORT $LL10@ApplyWeapo

; 246  : 			}
; 247  : 
; 248  : 			if( !bAlreadyCollision )

  0012a	80 7d b7 00	 cmp	 BYTE PTR _bAlreadyCollision$531186[ebp], 0
  0012e	75 0f		 jne	 SHORT $LN6@ApplyWeapo
$LN72@ApplyWeapo:

; 249  : 			{
; 250  : 				m_TargetInfoList.push_back( kInfo );

  00130	8d 45 d4	 lea	 eax, DWORD PTR _kInfo$531185[ebp]
  00133	50		 push	 eax
  00134	8d 8b f4 08 00
	00		 lea	 ecx, DWORD PTR [ebx+2292]
  0013a	e8 00 00 00 00	 call	 ?push_back@?$vector@UTargetInfo@ioRotateTargetWeapon@@V?$allocator@UTargetInfo@ioRotateTargetWeapon@@@std@@@std@@QAEXABUTargetInfo@ioRotateTargetWeapon@@@Z ; std::vector<ioRotateTargetWeapon::TargetInfo,std::allocator<ioRotateTargetWeapon::TargetInfo> >::push_back
$LN6@ApplyWeapo:

; 251  : 			}
; 252  : 		}

  0013f	8d 4d d4	 lea	 ecx, DWORD PTR _kInfo$531185[ebp]
$LN75@ApplyWeapo:
  00142	83 4d fc ff	 or	 DWORD PTR __$EHRec$[ebp+8], -1
  00146	ff 15 00 00 00
	00		 call	 DWORD PTR __imp_??1ioHashString@@QAE@XZ
$LN12@ApplyWeapo:

; 270  : 	}	
; 271  : }

  0014c	e8 00 00 00 00	 call	 __EH_epilog3_GS
  00151	c2 08 00	 ret	 8
_TEXT	ENDS
;	COMDAT text$x
text$x	SEGMENT
__unwindfunclet$?ApplyWeaponSync@ioRotateTargetWeapon@@UAEXAAVSP2Packet@@PAVioPlayStage@@@Z$1:
  00000	8d 4d 98	 lea	 ecx, DWORD PTR _szTargetName$531195[ebp]
  00003	ff 25 00 00 00
	00		 jmp	 DWORD PTR __imp_??1ioHashString@@QAE@XZ
__unwindfunclet$?ApplyWeaponSync@ioRotateTargetWeapon@@UAEXAAVSP2Packet@@PAVioPlayStage@@@Z$2:
  00009	8d 4d b8	 lea	 ecx, DWORD PTR _kInfo$531344[ebp]
  0000c	e9 00 00 00 00	 jmp	 ??1TargetInfo@ioRotateTargetWeapon@@QAE@XZ
__unwindfunclet$?ApplyWeaponSync@ioRotateTargetWeapon@@UAEXAAVSP2Packet@@PAVioPlayStage@@@Z$0:
  00011	8d 4d d4	 lea	 ecx, DWORD PTR _kInfo$531185[ebp]
  00014	e9 00 00 00 00	 jmp	 ??1TargetInfo@ioRotateTargetWeapon@@QAE@XZ
__ehhandler$?ApplyWeaponSync@ioRotateTargetWeapon@@UAEXAAVSP2Packet@@PAVioPlayStage@@@Z:
  00019	8b 54 24 08	 mov	 edx, DWORD PTR [esp+8]
  0001d	8d 42 0c	 lea	 eax, DWORD PTR [edx+12]
  00020	8b 4a 94	 mov	 ecx, DWORD PTR [edx-108]
  00023	33 c8		 xor	 ecx, eax
  00025	e8 00 00 00 00	 call	 @__security_check_cookie@4
  0002a	8b 4a fc	 mov	 ecx, DWORD PTR [edx-4]
  0002d	33 c8		 xor	 ecx, eax
  0002f	e8 00 00 00 00	 call	 @__security_check_cookie@4
  00034	b8 00 00 00 00	 mov	 eax, OFFSET __ehfuncinfo$?ApplyWeaponSync@ioRotateTargetWeapon@@UAEXAAVSP2Packet@@PAVioPlayStage@@@Z
  00039	e9 00 00 00 00	 jmp	 ___CxxFrameHandler3
text$x	ENDS
?ApplyWeaponSync@ioRotateTargetWeapon@@UAEXAAVSP2Packet@@PAVioPlayStage@@@Z ENDP ; ioRotateTargetWeapon::ApplyWeaponSync
PUBLIC	?push_back@?$vector@VioHashString@@V?$allocator@VioHashString@@@std@@@std@@QAEXABVioHashString@@@Z ; std::vector<ioHashString,std::allocator<ioHashString> >::push_back
; Function compile flags: /Ogsp
; File c:\program files (x86)\microsoft visual studio 10.0\vc\include\vector
;	COMDAT ?push_back@?$vector@VioHashString@@V?$allocator@VioHashString@@@std@@@std@@QAEXABVioHashString@@@Z
_TEXT	SEGMENT
__Val$ = 8						; size = 4
?push_back@?$vector@VioHashString@@V?$allocator@VioHashString@@@std@@@std@@QAEXABVioHashString@@@Z PROC ; std::vector<ioHashString,std::allocator<ioHashString> >::push_back, COMDAT
; _this$ = ecx

; 976  : 		{	// insert element at end

  00000	55		 push	 ebp
  00001	8b ec		 mov	 ebp, esp
  00003	56		 push	 esi
  00004	8b f1		 mov	 esi, ecx

; 977  : 		if (_Inside(_STD addressof(_Val)))

  00006	8b 46 04	 mov	 eax, DWORD PTR [esi+4]
  00009	57		 push	 edi
  0000a	8b 7d 08	 mov	 edi, DWORD PTR __Val$[ebp]
  0000d	3b f8		 cmp	 edi, eax
  0000f	73 29		 jae	 SHORT $LN4@push_back@2
  00011	8b 0e		 mov	 ecx, DWORD PTR [esi]
  00013	3b cf		 cmp	 ecx, edi
  00015	77 23		 ja	 SHORT $LN4@push_back@2

; 978  : 			{	// push back an element
; 979  : 			size_type _Idx = _STD addressof(_Val) - this->_Myfirst;

  00017	2b f9		 sub	 edi, ecx

; 980  : 			if (this->_Mylast == this->_Myend)

  00019	3b 46 08	 cmp	 eax, DWORD PTR [esi+8]
  0001c	75 09		 jne	 SHORT $LN3@push_back@2

; 981  : 				_Reserve(1);

  0001e	6a 01		 push	 1
  00020	8b ce		 mov	 ecx, esi
  00022	e8 00 00 00 00	 call	 ?_Reserve@?$vector@VioHashString@@V?$allocator@VioHashString@@@std@@@std@@IAEXI@Z ; std::vector<ioHashString,std::allocator<ioHashString> >::_Reserve
$LN3@push_back@2:

; 982  : 			_Orphan_range(this->_Mylast, this->_Mylast);
; 983  : 			_Cons_val(this->_Alval,
; 984  : 				this->_Mylast,
; 985  : 				this->_Myfirst[_Idx]);

  00027	83 e7 f0	 and	 edi, -16		; fffffff0H
  0002a	03 3e		 add	 edi, DWORD PTR [esi]
  0002c	8d 4e 0c	 lea	 ecx, DWORD PTR [esi+12]
  0002f	57		 push	 edi
  00030	ff 76 04	 push	 DWORD PTR [esi+4]
  00033	e8 00 00 00 00	 call	 ??$construct@AAVioHashString@@@?$allocator@VioHashString@@@std@@QAEXPAVioHashString@@AAV2@@Z ; std::allocator<ioHashString>::construct<ioHashString &>

; 986  : 			++this->_Mylast;
; 987  : 			}
; 988  : 		else

  00038	eb 19		 jmp	 SHORT $LN30@push_back@2
$LN4@push_back@2:

; 989  : 			{	// push back a non-element
; 990  : 			if (this->_Mylast == this->_Myend)

  0003a	3b 46 08	 cmp	 eax, DWORD PTR [esi+8]
  0003d	75 09		 jne	 SHORT $LN1@push_back@2

; 991  : 				_Reserve(1);

  0003f	6a 01		 push	 1
  00041	8b ce		 mov	 ecx, esi
  00043	e8 00 00 00 00	 call	 ?_Reserve@?$vector@VioHashString@@V?$allocator@VioHashString@@@std@@@std@@IAEXI@Z ; std::vector<ioHashString,std::allocator<ioHashString> >::_Reserve
$LN1@push_back@2:

; 992  : 			_Orphan_range(this->_Mylast, this->_Mylast);
; 993  : 			_Cons_val(this->_Alval,
; 994  : 				this->_Mylast,
; 995  : 				_Val);

  00048	57		 push	 edi
  00049	ff 76 04	 push	 DWORD PTR [esi+4]
  0004c	e8 00 00 00 00	 call	 ??$_Construct@VioHashString@@ABV1@@std@@YAXPAVioHashString@@ABV1@@Z ; std::_Construct<ioHashString,ioHashString const &>
  00051	59		 pop	 ecx
  00052	59		 pop	 ecx
$LN30@push_back@2:

; 996  : 			++this->_Mylast;

  00053	83 46 04 10	 add	 DWORD PTR [esi+4], 16	; 00000010H
  00057	5f		 pop	 edi
  00058	5e		 pop	 esi

; 997  : 			}
; 998  : 		}

  00059	5d		 pop	 ebp
  0005a	c2 04 00	 ret	 4
?push_back@?$vector@VioHashString@@V?$allocator@VioHashString@@@std@@@std@@QAEXABVioHashString@@@Z ENDP ; std::vector<ioHashString,std::allocator<ioHashString> >::push_back
; Function compile flags: /Ogsp
_TEXT	ENDS
;	COMDAT ??_GioRotateTargetWeapon@@UAEPAXI@Z
_TEXT	SEGMENT
___flags$ = 8						; size = 4
??_GioRotateTargetWeapon@@UAEPAXI@Z PROC		; ioRotateTargetWeapon::`scalar deleting destructor', COMDAT
; _this$ = ecx
  00000	55		 push	 ebp
  00001	8b ec		 mov	 ebp, esp
  00003	56		 push	 esi
  00004	8b f1		 mov	 esi, ecx
  00006	e8 00 00 00 00	 call	 ??1ioRotateTargetWeapon@@UAE@XZ ; ioRotateTargetWeapon::~ioRotateTargetWeapon
  0000b	f6 45 08 01	 test	 BYTE PTR ___flags$[ebp], 1
  0000f	74 07		 je	 SHORT $LN1@scalar@6
  00011	56		 push	 esi
  00012	e8 00 00 00 00	 call	 ??3@YAXPAX@Z		; operator delete
  00017	59		 pop	 ecx
$LN1@scalar@6:
  00018	8b c6		 mov	 eax, esi
  0001a	5e		 pop	 esi
  0001b	5d		 pop	 ebp
  0001c	c2 04 00	 ret	 4
??_GioRotateTargetWeapon@@UAEPAXI@Z ENDP		; ioRotateTargetWeapon::`scalar deleting destructor'
_TEXT	ENDS
PUBLIC	_rkLoader$GSCopy$
EXTRN	__imp_?LoadStringA@ioINILoader@@QAEXPBD0PADH@Z:PROC
EXTRN	__imp__wsprintfA:PROC
EXTRN	?LoadProperty@ioWeapon@@UAEXAAVioINILoader@@@Z:PROC ; ioWeapon::LoadProperty
EXTRN	_memset:PROC
;	COMDAT xdata$x
; File d:\lost saga for developer\youtube\tutorial\source\src\lsclient\encryptvalue.h
xdata$x	SEGMENT
__unwindtable$?LoadProperty@ioRotateTargetWeapon@@UAEXAAVioINILoader@@@Z DD 0ffffffffH
	DD	FLAT:__unwindfunclet$?LoadProperty@ioRotateTargetWeapon@@UAEXAAVioINILoader@@@Z$0
__ehfuncinfo$?LoadProperty@ioRotateTargetWeapon@@UAEXAAVioINILoader@@@Z DD 019930522H
	DD	01H
	DD	FLAT:__unwindtable$?LoadProperty@ioRotateTargetWeapon@@UAEXAAVioINILoader@@@Z
	DD	2 DUP(00H)
	DD	2 DUP(00H)
	DD	00H
	DD	01H
; Function compile flags: /Ogsp
; File d:\lost saga for developer\youtube\tutorial\source\src\lsclient\iorotatetargetweapon.cpp
xdata$x	ENDS
;	COMDAT ?LoadProperty@ioRotateTargetWeapon@@UAEXAAVioINILoader@@@Z
_TEXT	SEGMENT
_value$538404 = -620					; size = 4
tv5310 = -616						; size = 4
_value$537798 = -616					; size = 4
_value$538275 = -612					; size = 4
_value$538145 = -612					; size = 4
$T537862 = -612						; size = 4
_iBuffCnt$ = -612					; size = 4
_rkLoader$GSCopy$ = -608				; size = 4
_szBuf$ = -604						; size = 260
_szKey$ = -344						; size = 260
__k$538292 = -84					; size = 16
__k$538045 = -64					; size = 14
$T537543 = -64						; size = 16
__k$537560 = -60					; size = 10
__k$538207 = -44					; size = 21
__k$537908 = -44					; size = 22
__k$537698 = -44					; size = 20
___encStr$530916 = -40					; size = 18
__$EHRec$ = -12						; size = 12
_rkLoader$ = 8						; size = 4
?LoadProperty@ioRotateTargetWeapon@@UAEXAAVioINILoader@@@Z PROC ; ioRotateTargetWeapon::LoadProperty, COMDAT
; _this$ = ecx

; 43   : {

  00000	68 60 02 00 00	 push	 608			; 00000260H
  00005	b8 00 00 00 00	 mov	 eax, __ehhandler$?LoadProperty@ioRotateTargetWeapon@@UAEXAAVioINILoader@@@Z
  0000a	e8 00 00 00 00	 call	 __EH_prolog3_GS
  0000f	8b 45 08	 mov	 eax, DWORD PTR _rkLoader$[ebp]

; 44   : 	ioWeapon::LoadProperty( rkLoader );

  00012	50		 push	 eax
  00013	8b f1		 mov	 esi, ecx

; 63   : 	m_fTargetHeightOffset = rkLoader.LoadFloat_e( "target_height_offset", 0.0f );

  00015	89 85 a0 fd ff
	ff		 mov	 DWORD PTR _rkLoader$GSCopy$[ebp], eax
  0001b	e8 00 00 00 00	 call	 ?LoadProperty@ioWeapon@@UAEXAAVioINILoader@@@Z ; ioWeapon::LoadProperty
  00020	bf 03 01 00 00	 mov	 edi, 259		; 00000103H
  00025	33 db		 xor	 ebx, ebx
  00027	57		 push	 edi
  00028	8d 85 a5 fd ff
	ff		 lea	 eax, DWORD PTR _szBuf$[ebp+1]
  0002e	53		 push	 ebx
  0002f	50		 push	 eax
  00030	88 9d a4 fd ff
	ff		 mov	 BYTE PTR _szBuf$[ebp], bl
  00036	e8 00 00 00 00	 call	 _memset
  0003b	57		 push	 edi
  0003c	8d 85 a9 fe ff
	ff		 lea	 eax, DWORD PTR _szKey$[ebp+1]
  00042	53		 push	 ebx
  00043	50		 push	 eax
  00044	88 9d a8 fe ff
	ff		 mov	 BYTE PTR _szKey$[ebp], bl
  0004a	e8 00 00 00 00	 call	 _memset
  0004f	83 c4 18	 add	 esp, 24			; 00000018H
  00052	6a 02		 push	 2
  00054	c7 45 c4 81 85
	9d 8f		 mov	 DWORD PTR __k$537560[ebp], -1885502079 ; 8f9d8581H
  0005b	c7 45 c8 b2 98
	82 87		 mov	 DWORD PTR __k$537560[ebp+4], -2021484366 ; 878298b2H
  00062	8d 45 c4	 lea	 eax, DWORD PTR __k$537560[ebp]
  00065	66 c7 45 cc 88
	00		 mov	 WORD PTR __k$537560[ebp+8], 136 ; 00000088H
  0006b	59		 pop	 ecx
$LL209@LoadProper:

; 45   : 
; 46   : 	char szBuf[MAX_PATH] = "";
; 47   : 	char szKey[MAX_PATH] = "";
; 48   : 
; 49   : 	m_dwLiveTime = rkLoader.LoadInt_e( "live_time", 0 );

  0006c	81 30 ed ec eb
	ea		 xor	 DWORD PTR [eax], -353637139 ; eaebecedH
  00072	83 c0 04	 add	 eax, 4
  00075	49		 dec	 ecx
  00076	75 f4		 jne	 SHORT $LL209@LoadProper
  00078	8b 8d a0 fd ff
	ff		 mov	 ecx, DWORD PTR _rkLoader$GSCopy$[ebp]
  0007e	80 75 cc ed	 xor	 BYTE PTR __k$537560[ebp+8], -19 ; ffffffedH
  00082	53		 push	 ebx
  00083	8d 45 c4	 lea	 eax, DWORD PTR __k$537560[ebp]
  00086	50		 push	 eax
  00087	ff 15 00 00 00
	00		 call	 DWORD PTR __imp_?LoadInt@ioINILoader@@QAEHPBDH@Z
  0008d	6a 04		 push	 4
  0008f	89 86 d8 04 00
	00		 mov	 DWORD PTR [esi+1240], eax

; 50   : 
; 51   : 	m_dwRotateSpeed = (float)rkLoader.LoadFloat_e( "target_rotate_speed", 0.0f );

  00095	c7 45 d4 99 8d
	99 8d		 mov	 DWORD PTR __k$537698[ebp], -1919316583 ; 8d998d99H
  0009c	c7 45 d8 88 98
	b4 98		 mov	 DWORD PTR __k$537698[ebp+4], -1732994936 ; 98b49888H
  000a3	c7 45 dc 82 98
	8a 9e		 mov	 DWORD PTR __k$537698[ebp+8], -1635084158 ; 9e8a9882H
  000aa	c7 45 e0 88 b3
	98 9a		 mov	 DWORD PTR __k$537698[ebp+12], -1701268600 ; 9a98b388H
  000b1	8d 45 d4	 lea	 eax, DWORD PTR __k$537698[ebp]
  000b4	c7 45 e4 88 89
	8f 00		 mov	 DWORD PTR __k$537698[ebp+16], 9406856 ; 008f8988H
  000bb	59		 pop	 ecx
$LL315@LoadProper:
  000bc	81 30 ed ec eb
	ea		 xor	 DWORD PTR [eax], -353637139 ; eaebecedH
  000c2	83 c0 04	 add	 eax, 4
  000c5	49		 dec	 ecx
  000c6	75 f4		 jne	 SHORT $LL315@LoadProper
  000c8	6a 10		 push	 16			; 00000010H
  000ca	5f		 pop	 edi
$LL312@LoadProper:
  000cb	8b c7		 mov	 eax, edi
  000cd	25 03 00 00 80	 and	 eax, -2147483645	; 80000003H
  000d2	79 05		 jns	 SHORT $LN808@LoadProper
  000d4	48		 dec	 eax
  000d5	83 c8 fc	 or	 eax, -4			; fffffffcH
  000d8	40		 inc	 eax
$LN808@LoadProper:
  000d9	b1 ed		 mov	 cl, -19			; ffffffedH
  000db	2a c8		 sub	 cl, al
  000dd	30 4c 3d d4	 xor	 BYTE PTR __k$537698[ebp+edi], cl
  000e1	47		 inc	 edi
  000e2	83 ff 13	 cmp	 edi, 19			; 00000013H
  000e5	7c e4		 jl	 SHORT $LL312@LoadProper
  000e7	0f 57 c0	 xorps	 xmm0, xmm0
  000ea	51		 push	 ecx
  000eb	8b 8d a0 fd ff
	ff		 mov	 ecx, DWORD PTR _rkLoader$GSCopy$[ebp]
  000f1	8d 45 d4	 lea	 eax, DWORD PTR __k$537698[ebp]
  000f4	f3 0f 11 04 24	 movss	 DWORD PTR [esp], xmm0
  000f9	50		 push	 eax
  000fa	ff 15 00 00 00
	00		 call	 DWORD PTR __imp_?LoadFloat@ioINILoader@@QAEMPBDM@Z
  00100	d9 9d 98 fd ff
	ff		 fstp	 DWORD PTR _value$537798[ebp]
  00106	8d 85 98 fd ff
	ff		 lea	 eax, DWORD PTR _value$537798[ebp]
  0010c	50		 push	 eax
  0010d	8d 8e 34 09 00
	00		 lea	 ecx, DWORD PTR [esi+2356]
  00113	e8 00 00 00 00	 call	 ?EncryptValueToPool@?$CEncrypt@M@@AAEXPBD@Z ; CEncrypt<float>::EncryptValueToPool

; 52   : 
; 53   : 	m_TargetEndBuff.clear();

  00118	8b 86 68 09 00
	00		 mov	 eax, DWORD PTR [esi+2408]
  0011e	8b 8e 64 09 00
	00		 mov	 ecx, DWORD PTR [esi+2404]
  00124	50		 push	 eax
  00125	51		 push	 ecx
  00126	8d 85 9c fd ff
	ff		 lea	 eax, DWORD PTR $T537862[ebp]
  0012c	50		 push	 eax
  0012d	8d 8e 64 09 00
	00		 lea	 ecx, DWORD PTR [esi+2404]
  00133	e8 00 00 00 00	 call	 ?erase@?$vector@VioHashString@@V?$allocator@VioHashString@@@std@@@std@@QAE?AV?$_Vector_iterator@V?$_Vector_val@VioHashString@@V?$allocator@VioHashString@@@std@@@std@@@2@V?$_Vector_const_iterator@V?$_Vector_val@VioHashString@@V?$allocator@VioHashString@@@std@@@std@@@2@0@Z ; std::vector<ioHashString,std::allocator<ioHashString> >::erase
  00138	6a 05		 push	 5

; 54   : 	int iBuffCnt = rkLoader.LoadInt_e( "target_end_buff_count", 0 );

  0013a	c7 45 d4 99 8d
	99 8d		 mov	 DWORD PTR __k$537908[ebp], -1919316583 ; 8d998d99H
  00141	c7 45 d8 88 98
	b4 8f		 mov	 DWORD PTR __k$537908[ebp+4], -1883989880 ; 8fb49888H
  00148	c7 45 dc 83 88
	b4 88		 mov	 DWORD PTR __k$537908[ebp+8], -2001434493 ; 88b48883H
  0014f	c7 45 e0 98 8a
	8d b5		 mov	 DWORD PTR __k$537908[ebp+12], -1249015144 ; b58d8a98H
  00156	c7 45 e4 8e 83
	9e 84		 mov	 DWORD PTR __k$537908[ebp+16], -2069986418 ; 849e838eH
  0015d	8d 45 d4	 lea	 eax, DWORD PTR __k$537908[ebp]
  00160	66 c7 45 e8 99
	00		 mov	 WORD PTR __k$537908[ebp+20], 153 ; 00000099H
  00166	59		 pop	 ecx
$LL441@LoadProper:
  00167	81 30 ed ec eb
	ea		 xor	 DWORD PTR [eax], -353637139 ; eaebecedH
  0016d	83 c0 04	 add	 eax, 4
  00170	49		 dec	 ecx
  00171	75 f4		 jne	 SHORT $LL441@LoadProper
  00173	8b 8d a0 fd ff
	ff		 mov	 ecx, DWORD PTR _rkLoader$GSCopy$[ebp]
  00179	80 75 e8 ed	 xor	 BYTE PTR __k$537908[ebp+20], -19 ; ffffffedH
  0017d	53		 push	 ebx
  0017e	8d 45 d4	 lea	 eax, DWORD PTR __k$537908[ebp]
  00181	50		 push	 eax
  00182	ff 15 00 00 00
	00		 call	 DWORD PTR __imp_?LoadInt@ioINILoader@@QAEHPBDH@Z

; 55   : 	for( int i=0; i<iBuffCnt; ++i )

  00188	33 c9		 xor	 ecx, ecx
  0018a	89 85 9c fd ff
	ff		 mov	 DWORD PTR _iBuffCnt$[ebp], eax
  00190	3b c3		 cmp	 eax, ebx
  00192	0f 8e bb 00 00
	00		 jle	 $LN100@LoadProper
$LL102@LoadProper:

; 54   : 	int iBuffCnt = rkLoader.LoadInt_e( "target_end_buff_count", 0 );

  00198	6a 04		 push	 4

; 56   : 	{
; 57   : 		wsprintf_e( szKey, "target_end_buff%d", i+1 );

  0019a	c7 45 d8 99 8d
	99 8d		 mov	 DWORD PTR ___encStr$530916[ebp], -1919316583 ; 8d998d99H
  001a1	c7 45 dc 88 98
	b4 8f		 mov	 DWORD PTR ___encStr$530916[ebp+4], -1883989880 ; 8fb49888H
  001a8	c7 45 e0 83 88
	b4 88		 mov	 DWORD PTR ___encStr$530916[ebp+8], -2001434493 ; 88b48883H
  001af	c7 45 e4 98 8a
	8d cf		 mov	 DWORD PTR ___encStr$530916[ebp+12], -812807528 ; cf8d8a98H
  001b6	8d 45 d8	 lea	 eax, DWORD PTR ___encStr$530916[ebp]
  001b9	66 c7 45 e8 89
	00		 mov	 WORD PTR ___encStr$530916[ebp+16], 137 ; 00000089H
  001bf	5a		 pop	 edx
$LL449@LoadProper:
  001c0	81 30 ed ec eb
	ea		 xor	 DWORD PTR [eax], -353637139 ; eaebecedH
  001c6	83 c0 04	 add	 eax, 4
  001c9	4a		 dec	 edx
  001ca	75 f4		 jne	 SHORT $LL449@LoadProper
  001cc	80 75 e8 ed	 xor	 BYTE PTR ___encStr$530916[ebp+16], -19 ; ffffffedH
  001d0	8d 41 01	 lea	 eax, DWORD PTR [ecx+1]
  001d3	50		 push	 eax
  001d4	89 85 98 fd ff
	ff		 mov	 DWORD PTR tv5310[ebp], eax
  001da	8d 45 d8	 lea	 eax, DWORD PTR ___encStr$530916[ebp]
  001dd	50		 push	 eax
  001de	8d 85 a8 fe ff
	ff		 lea	 eax, DWORD PTR _szKey$[ebp]
  001e4	50		 push	 eax
  001e5	ff 15 00 00 00
	00		 call	 DWORD PTR __imp__wsprintfA

; 58   : 		rkLoader.LoadString( szKey, "", szBuf, MAX_PATH );

  001eb	8b 8d a0 fd ff
	ff		 mov	 ecx, DWORD PTR _rkLoader$GSCopy$[ebp]
  001f1	83 c4 0c	 add	 esp, 12			; 0000000cH
  001f4	68 04 01 00 00	 push	 260			; 00000104H
  001f9	8d 85 a4 fd ff
	ff		 lea	 eax, DWORD PTR _szBuf$[ebp]
  001ff	50		 push	 eax
  00200	68 00 00 00 00	 push	 OFFSET ??_C@_00CNPNBAHC@?$AA@
  00205	8d 85 a8 fe ff
	ff		 lea	 eax, DWORD PTR _szKey$[ebp]
  0020b	50		 push	 eax
  0020c	ff 15 00 00 00
	00		 call	 DWORD PTR __imp_?LoadStringA@ioINILoader@@QAEXPBD0PADH@Z

; 59   : 		m_TargetEndBuff.push_back( szBuf );

  00212	8d 85 a4 fd ff
	ff		 lea	 eax, DWORD PTR _szBuf$[ebp]
  00218	50		 push	 eax
  00219	8d 4d c0	 lea	 ecx, DWORD PTR $T537543[ebp]
  0021c	ff 15 00 00 00
	00		 call	 DWORD PTR __imp_??0ioHashString@@QAE@PBD@Z
  00222	8d 45 c0	 lea	 eax, DWORD PTR $T537543[ebp]
  00225	50		 push	 eax
  00226	8d 8e 64 09 00
	00		 lea	 ecx, DWORD PTR [esi+2404]
  0022c	89 5d fc	 mov	 DWORD PTR __$EHRec$[ebp+8], ebx
  0022f	e8 00 00 00 00	 call	 ?push_back@?$vector@VioHashString@@V?$allocator@VioHashString@@@std@@@std@@QAEXABVioHashString@@@Z ; std::vector<ioHashString,std::allocator<ioHashString> >::push_back
  00234	83 4d fc ff	 or	 DWORD PTR __$EHRec$[ebp+8], -1
  00238	8d 4d c0	 lea	 ecx, DWORD PTR $T537543[ebp]
  0023b	ff 15 00 00 00
	00		 call	 DWORD PTR __imp_??1ioHashString@@QAE@XZ
  00241	8b 8d 98 fd ff
	ff		 mov	 ecx, DWORD PTR tv5310[ebp]
  00247	3b 8d 9c fd ff
	ff		 cmp	 ecx, DWORD PTR _iBuffCnt$[ebp]
  0024d	0f 8c 45 ff ff
	ff		 jl	 $LL102@LoadProper
$LN100@LoadProper:

; 60   : 	}
; 61   : 
; 62   : 	m_fTargetOffset       = rkLoader.LoadFloat_e( "target_offset", 0.0f );

  00253	6a 03		 push	 3
  00255	c7 45 c0 99 8d
	99 8d		 mov	 DWORD PTR __k$538045[ebp], -1919316583 ; 8d998d99H
  0025c	c7 45 c4 88 98
	b4 85		 mov	 DWORD PTR __k$538045[ebp+4], -2051762040 ; 85b49888H
  00263	c7 45 c8 8b 8a
	98 8f		 mov	 DWORD PTR __k$538045[ebp+8], -1885828469 ; 8f988a8bH
  0026a	8d 45 c0	 lea	 eax, DWORD PTR __k$538045[ebp]
  0026d	66 c7 45 cc 99
	00		 mov	 WORD PTR __k$538045[ebp+12], 153 ; 00000099H
  00273	59		 pop	 ecx
$LL555@LoadProper:
  00274	81 30 ed ec eb
	ea		 xor	 DWORD PTR [eax], -353637139 ; eaebecedH
  0027a	83 c0 04	 add	 eax, 4
  0027d	49		 dec	 ecx
  0027e	75 f4		 jne	 SHORT $LL555@LoadProper
  00280	0f 57 c0	 xorps	 xmm0, xmm0
  00283	80 75 cc ed	 xor	 BYTE PTR __k$538045[ebp+12], -19 ; ffffffedH
  00287	51		 push	 ecx
  00288	8b 8d a0 fd ff
	ff		 mov	 ecx, DWORD PTR _rkLoader$GSCopy$[ebp]
  0028e	8d 45 c0	 lea	 eax, DWORD PTR __k$538045[ebp]
  00291	f3 0f 11 04 24	 movss	 DWORD PTR [esp], xmm0
  00296	50		 push	 eax
  00297	ff 15 00 00 00
	00		 call	 DWORD PTR __imp_?LoadFloat@ioINILoader@@QAEMPBDM@Z
  0029d	d9 9d 9c fd ff
	ff		 fstp	 DWORD PTR _value$538145[ebp]
  002a3	8d 85 9c fd ff
	ff		 lea	 eax, DWORD PTR _value$538145[ebp]
  002a9	50		 push	 eax
  002aa	8d 8e 74 09 00
	00		 lea	 ecx, DWORD PTR [esi+2420]
  002b0	e8 00 00 00 00	 call	 ?EncryptValueToPool@?$CEncrypt@M@@AAEXPBD@Z ; CEncrypt<float>::EncryptValueToPool
  002b5	6a 05		 push	 5

; 63   : 	m_fTargetHeightOffset = rkLoader.LoadFloat_e( "target_height_offset", 0.0f );

  002b7	c7 45 d4 99 8d
	99 8d		 mov	 DWORD PTR __k$538207[ebp], -1919316583 ; 8d998d99H
  002be	c7 45 d8 88 98
	b4 82		 mov	 DWORD PTR __k$538207[ebp+4], -2102093688 ; 82b49888H
  002c5	c7 45 dc 88 85
	8c 82		 mov	 DWORD PTR __k$538207[ebp+8], -2104719992 ; 828c8588H
  002cc	c7 45 e0 99 b3
	84 8c		 mov	 DWORD PTR __k$538207[ebp+12], -1937460327 ; 8c84b399H
  002d3	c7 45 e4 8b 9f
	8e 9e		 mov	 DWORD PTR __k$538207[ebp+16], -1634820213 ; 9e8e9f8bH
  002da	8d 45 d4	 lea	 eax, DWORD PTR __k$538207[ebp]
  002dd	88 5d e8	 mov	 BYTE PTR __k$538207[ebp+20], bl
  002e0	59		 pop	 ecx
$LL663@LoadProper:
  002e1	81 30 ed ec eb
	ea		 xor	 DWORD PTR [eax], -353637139 ; eaebecedH
  002e7	83 c0 04	 add	 eax, 4
  002ea	49		 dec	 ecx
  002eb	75 f4		 jne	 SHORT $LL663@LoadProper
  002ed	0f 57 c0	 xorps	 xmm0, xmm0
  002f0	51		 push	 ecx
  002f1	8b 8d a0 fd ff
	ff		 mov	 ecx, DWORD PTR _rkLoader$GSCopy$[ebp]
  002f7	8d 45 d4	 lea	 eax, DWORD PTR __k$538207[ebp]
  002fa	f3 0f 11 04 24	 movss	 DWORD PTR [esp], xmm0
  002ff	50		 push	 eax
  00300	ff 15 00 00 00
	00		 call	 DWORD PTR __imp_?LoadFloat@ioINILoader@@QAEMPBDM@Z
  00306	d9 9d 9c fd ff
	ff		 fstp	 DWORD PTR _value$538275[ebp]
  0030c	8d 85 9c fd ff
	ff		 lea	 eax, DWORD PTR _value$538275[ebp]
  00312	50		 push	 eax
  00313	8d 8e a4 09 00
	00		 lea	 ecx, DWORD PTR [esi+2468]
  00319	e8 00 00 00 00	 call	 ?EncryptValueToPool@?$CEncrypt@M@@AAEXPBD@Z ; CEncrypt<float>::EncryptValueToPool
  0031e	6a 03		 push	 3

; 64   : 	m_fCollisionRange     = rkLoader.LoadFloat_e( "collision_range", 0.0f );

  00320	c7 45 ac 8e 83
	87 86		 mov	 DWORD PTR __k$538292[ebp], -2037939314 ; 8687838eH
  00327	c7 45 b0 84 9f
	82 85		 mov	 DWORD PTR __k$538292[ebp+4], -2055037052 ; 85829f84H
  0032e	c7 45 b4 83 b3
	99 8b		 mov	 DWORD PTR __k$538292[ebp+8], -1952861309 ; 8b99b383H
  00335	8d 45 ac	 lea	 eax, DWORD PTR __k$538292[ebp]
  00338	c7 45 b8 83 8b
	8e 00		 mov	 DWORD PTR __k$538292[ebp+12], 9341827 ; 008e8b83H
  0033f	59		 pop	 ecx
$LL771@LoadProper:
  00340	81 30 ed ec eb
	ea		 xor	 DWORD PTR [eax], -353637139 ; eaebecedH
  00346	83 c0 04	 add	 eax, 4
  00349	49		 dec	 ecx
  0034a	75 f4		 jne	 SHORT $LL771@LoadProper
  0034c	6a 0c		 push	 12			; 0000000cH
  0034e	58		 pop	 eax
$LL768@LoadProper:
  0034f	8b c8		 mov	 ecx, eax
  00351	81 e1 03 00 00
	80		 and	 ecx, -2147483645	; 80000003H
  00357	79 05		 jns	 SHORT $LN809@LoadProper
  00359	49		 dec	 ecx
  0035a	83 c9 fc	 or	 ecx, -4			; fffffffcH
  0035d	41		 inc	 ecx
$LN809@LoadProper:
  0035e	b2 ed		 mov	 dl, -19			; ffffffedH
  00360	2a d1		 sub	 dl, cl
  00362	30 54 05 ac	 xor	 BYTE PTR __k$538292[ebp+eax], dl
  00366	40		 inc	 eax
  00367	83 f8 0f	 cmp	 eax, 15			; 0000000fH
  0036a	7c e3		 jl	 SHORT $LL768@LoadProper
  0036c	0f 57 c0	 xorps	 xmm0, xmm0
  0036f	51		 push	 ecx
  00370	8b 8d a0 fd ff
	ff		 mov	 ecx, DWORD PTR _rkLoader$GSCopy$[ebp]
  00376	8d 45 ac	 lea	 eax, DWORD PTR __k$538292[ebp]
  00379	f3 0f 11 04 24	 movss	 DWORD PTR [esp], xmm0
  0037e	50		 push	 eax
  0037f	ff 15 00 00 00
	00		 call	 DWORD PTR __imp_?LoadFloat@ioINILoader@@QAEMPBDM@Z
  00385	d9 9d 94 fd ff
	ff		 fstp	 DWORD PTR _value$538404[ebp]
  0038b	8d 85 94 fd ff
	ff		 lea	 eax, DWORD PTR _value$538404[ebp]
  00391	50		 push	 eax
  00392	8d 8e d4 09 00
	00		 lea	 ecx, DWORD PTR [esi+2516]
  00398	e8 00 00 00 00	 call	 ?EncryptValueToPool@?$CEncrypt@M@@AAEXPBD@Z ; CEncrypt<float>::EncryptValueToPool

; 65   : }

  0039d	e8 00 00 00 00	 call	 __EH_epilog3_GS
  003a2	c2 04 00	 ret	 4
_TEXT	ENDS
;	COMDAT text$x
text$x	SEGMENT
__unwindfunclet$?LoadProperty@ioRotateTargetWeapon@@UAEXAAVioINILoader@@@Z$0:
  00000	8d 4d c0	 lea	 ecx, DWORD PTR $T537543[ebp]
  00003	ff 25 00 00 00
	00		 jmp	 DWORD PTR __imp_??1ioHashString@@QAE@XZ
__ehhandler$?LoadProperty@ioRotateTargetWeapon@@UAEXAAVioINILoader@@@Z:
  00009	8b 54 24 08	 mov	 edx, DWORD PTR [esp+8]
  0000d	8d 42 0c	 lea	 eax, DWORD PTR [edx+12]
  00010	8b 8a 90 fd ff
	ff		 mov	 ecx, DWORD PTR [edx-624]
  00016	33 c8		 xor	 ecx, eax
  00018	e8 00 00 00 00	 call	 @__security_check_cookie@4
  0001d	8b 4a fc	 mov	 ecx, DWORD PTR [edx-4]
  00020	33 c8		 xor	 ecx, eax
  00022	e8 00 00 00 00	 call	 @__security_check_cookie@4
  00027	b8 00 00 00 00	 mov	 eax, OFFSET __ehfuncinfo$?LoadProperty@ioRotateTargetWeapon@@UAEXAAVioINILoader@@@Z
  0002c	e9 00 00 00 00	 jmp	 ___CxxFrameHandler3
text$x	ENDS
?LoadProperty@ioRotateTargetWeapon@@UAEXAAVioINILoader@@@Z ENDP ; ioRotateTargetWeapon::LoadProperty
END
