; Listing generated by Microsoft (R) Optimizing Compiler Version 16.00.30319.01 

	TITLE	D:\Lost Saga For Developer\Youtube\Tutorial\Source\src\LSClient\ioRotateReturnWeapon.cpp
	.686P
	.XMM
	include listing.inc
	.model	flat

INCLUDELIB MSVCRT
INCLUDELIB OLDNAMES

PUBLIC	?_EEM_DS@?$deque@UD3DXVECTOR3@@V?$allocator@UD3DXVECTOR3@@@std@@@std@@2HB ; std::deque<D3DXVECTOR3,std::allocator<D3DXVECTOR3> >::_EEM_DS
PUBLIC	?m_ActionStopType@ioRotateReturnWeapon@@2W4ActionStopType@@A ; ioRotateReturnWeapon::m_ActionStopType
PUBLIC	?m_DieActionStopType@ioRotateReturnWeapon@@2W4ActionStopType@@A ; ioRotateReturnWeapon::m_DieActionStopType
_BSS	SEGMENT
?m_ActionStopType@ioRotateReturnWeapon@@2W4ActionStopType@@A DD 01H DUP (?) ; ioRotateReturnWeapon::m_ActionStopType
?m_DieActionStopType@ioRotateReturnWeapon@@2W4ActionStopType@@A DD 01H DUP (?) ; ioRotateReturnWeapon::m_DieActionStopType
_BSS	ENDS
;	COMDAT ?_EEM_DS@?$deque@UD3DXVECTOR3@@V?$allocator@UD3DXVECTOR3@@@std@@@std@@2HB
CONST	SEGMENT
?_EEM_DS@?$deque@UD3DXVECTOR3@@V?$allocator@UD3DXVECTOR3@@@std@@@std@@2HB DD 01H ; std::deque<D3DXVECTOR3,std::allocator<D3DXVECTOR3> >::_EEM_DS
CONST	ENDS
PUBLIC	?return5@@YAIXZ					; return5
; Function compile flags: /Ogsp
; File d:\lost saga for developer\youtube\tutorial\source\src\lsclient\stdafx.h
;	COMDAT ?return5@@YAIXZ
_TEXT	SEGMENT
?return5@@YAIXZ PROC					; return5, COMDAT

; 18   : 	__forceinline unsigned int return5() { __asm mov eax, 5 };

  00000	b8 05 00 00 00	 mov	 eax, 5
  00005	c3		 ret	 0
?return5@@YAIXZ ENDP					; return5
_TEXT	ENDS
PUBLIC	?return10@@YAIXZ				; return10
; Function compile flags: /Ogsp
;	COMDAT ?return10@@YAIXZ
_TEXT	SEGMENT
?return10@@YAIXZ PROC					; return10, COMDAT

; 21   : 	__forceinline unsigned int return10() { __asm mov eax, 10 };

  00000	b8 0a 00 00 00	 mov	 eax, 10			; 0000000aH
  00005	c3		 ret	 0
?return10@@YAIXZ ENDP					; return10
_TEXT	ENDS
PUBLIC	_acosf
EXTRN	__fltused:DWORD
EXTRN	__CIacos:PROC
; Function compile flags: /Ogsp
; File c:\program files (x86)\microsoft visual studio 10.0\vc\include\math.h
;	COMDAT _acosf
_TEXT	SEGMENT
tv69 = 8						; size = 4
__X$ = 8						; size = 4
_acosf	PROC						; COMDAT

; 400  :         {return ((float)acos((double)_X)); }

  00000	55		 push	 ebp
  00001	8b ec		 mov	 ebp, esp
  00003	d9 45 08	 fld	 DWORD PTR __X$[ebp]
  00006	e8 00 00 00 00	 call	 __CIacos
  0000b	d9 5d 08	 fstp	 DWORD PTR tv69[ebp]
  0000e	d9 45 08	 fld	 DWORD PTR tv69[ebp]
  00011	5d		 pop	 ebp
  00012	c3		 ret	 0
_acosf	ENDP
_TEXT	ENDS
PUBLIC	?acos@@YAMM@Z					; acos
; Function compile flags: /Ogsp
;	COMDAT ?acos@@YAMM@Z
_TEXT	SEGMENT
tv73 = 8						; size = 4
__X$ = 8						; size = 4
?acos@@YAMM@Z PROC					; acos, COMDAT

; 502  :         {return (acosf(_X)); }

  00000	55		 push	 ebp
  00001	8b ec		 mov	 ebp, esp
  00003	d9 45 08	 fld	 DWORD PTR __X$[ebp]
  00006	e8 00 00 00 00	 call	 __CIacos
  0000b	d9 5d 08	 fstp	 DWORD PTR tv73[ebp]
  0000e	d9 45 08	 fld	 DWORD PTR tv73[ebp]
  00011	5d		 pop	 ebp
  00012	c3		 ret	 0
?acos@@YAMM@Z ENDP					; acos
_TEXT	ENDS
PUBLIC	??_C@_0EC@DPHECDBP@ioRotateReturnWeapon?3?3?$HOioRotateR@ ; `string'
PUBLIC	??_7ioRotateReturnWeapon@@6B@			; ioRotateReturnWeapon::`vftable'
PUBLIC	??1ioRotateReturnWeapon@@UAE@XZ			; ioRotateReturnWeapon::~ioRotateReturnWeapon
PUBLIC	??_R4ioRotateReturnWeapon@@6B@			; ioRotateReturnWeapon::`RTTI Complete Object Locator'
PUBLIC	??_R0?AVioRotateReturnWeapon@@@8		; ioRotateReturnWeapon `RTTI Type Descriptor'
PUBLIC	??_R3ioRotateReturnWeapon@@8			; ioRotateReturnWeapon::`RTTI Class Hierarchy Descriptor'
PUBLIC	??_R2ioRotateReturnWeapon@@8			; ioRotateReturnWeapon::`RTTI Base Class Array'
PUBLIC	??_R1A@?0A@EA@ioRotateReturnWeapon@@8		; ioRotateReturnWeapon::`RTTI Base Class Descriptor at (0,-1,0,64)'
PUBLIC	??_R1A@?0A@EA@ioWeapon@@8			; ioWeapon::`RTTI Base Class Descriptor at (0,-1,0,64)'
PUBLIC	??_R0?AVioWeapon@@@8				; ioWeapon `RTTI Type Descriptor'
PUBLIC	??_R3ioWeapon@@8				; ioWeapon::`RTTI Class Hierarchy Descriptor'
PUBLIC	??_R2ioWeapon@@8				; ioWeapon::`RTTI Base Class Array'
PUBLIC	?SetOwnerChargeScaleRate@ioRotateReturnWeapon@@MAEXM@Z ; ioRotateReturnWeapon::SetOwnerChargeScaleRate
PUBLIC	?SetWeaponDead@ioRotateReturnWeapon@@UAEXXZ	; ioRotateReturnWeapon::SetWeaponDead
PUBLIC	?InitResource@ioRotateReturnWeapon@@MAE_NXZ	; ioRotateReturnWeapon::InitResource
PUBLIC	?DestroyResource@ioRotateReturnWeapon@@MAEXPAVioPlayStage@@@Z ; ioRotateReturnWeapon::DestroyResource
PUBLIC	?LoadProperty@ioRotateReturnWeapon@@UAEXAAVioINILoader@@@Z ; ioRotateReturnWeapon::LoadProperty
PUBLIC	?SetMoveDir@ioRotateReturnWeapon@@UAEXABUD3DXVECTOR3@@@Z ; ioRotateReturnWeapon::SetMoveDir
PUBLIC	?Process@ioRotateReturnWeapon@@MAEXMPAVioPlayStage@@@Z ; ioRotateReturnWeapon::Process
PUBLIC	?IsCollision@ioRotateReturnWeapon@@UAE_NPAVioPlayEntity@@_N@Z ; ioRotateReturnWeapon::IsCollision
PUBLIC	?GetLocalAttackBox@ioRotateReturnWeapon@@MBEABVioOrientBox@@XZ ; ioRotateReturnWeapon::GetLocalAttackBox
PUBLIC	?GetType@ioRotateReturnWeapon@@UBE?AW4WeaponType@ioWeapon@@XZ ; ioRotateReturnWeapon::GetType
PUBLIC	?GetActionStopType@ioRotateReturnWeapon@@MBE?AW4ActionStopType@@XZ ; ioRotateReturnWeapon::GetActionStopType
PUBLIC	?GetDieActionStopType@ioRotateReturnWeapon@@MBE?AW4ActionStopType@@XZ ; ioRotateReturnWeapon::GetDieActionStopType
PUBLIC	?ApplyWeaponSync@ioRotateReturnWeapon@@UAEXAAVSP2Packet@@PAVioPlayStage@@@Z ; ioRotateReturnWeapon::ApplyWeaponSync
PUBLIC	?UpdateWorldAttackBox@ioRotateReturnWeapon@@MAEXM_N@Z ; ioRotateReturnWeapon::UpdateWorldAttackBox
PUBLIC	?IsIgnoreMapCollision@ioRotateReturnWeapon@@UBE_NXZ ; ioRotateReturnWeapon::IsIgnoreMapCollision
EXTRN	??1ioWeapon@@UAE@XZ:PROC			; ioWeapon::~ioWeapon
EXTRN	__imp_??1ioOrientBox@@QAE@XZ:PROC
EXTRN	__imp_??1ioHashString@@QAE@XZ:PROC
EXTRN	__imp_?PrintTimeAndLog@CLog@@QAAXHPADZZ:PROC
EXTRN	__imp_?LOG@@3VCLog@@A:BYTE
EXTRN	___CxxFrameHandler3:PROC
EXTRN	@__security_check_cookie@4:PROC
EXTRN	__EH_epilog3:PROC
EXTRN	__EH_prolog3:PROC
EXTRN	??_7type_info@@6B@:QWORD			; type_info::`vftable'
EXTRN	?IsAlreadyCollisioned@ioWeapon@@UAE_NPAVioPlayEntity@@@Z:PROC ; ioWeapon::IsAlreadyCollisioned
EXTRN	?AddCollisionEntity@ioWeapon@@UAEXPAVioPlayEntity@@@Z:PROC ; ioWeapon::AddCollisionEntity
EXTRN	?SetOwnerDamageRate@ioWeapon@@UAEXM@Z:PROC	; ioWeapon::SetOwnerDamageRate
EXTRN	?SetOwnerChargeDamageRate@ioWeapon@@UAEXM@Z:PROC ; ioWeapon::SetOwnerChargeDamageRate
EXTRN	?SetOwnerChargeForceRate@ioWeapon@@UAEXM@Z:PROC	; ioWeapon::SetOwnerChargeForceRate
EXTRN	?SetOwnerChargeRangeRate@ioWeapon@@UAEXM@Z:PROC	; ioWeapon::SetOwnerChargeRangeRate
EXTRN	?SetOwnerChargeSpeedRate@ioWeapon@@UAEXM@Z:PROC	; ioWeapon::SetOwnerChargeSpeedRate
EXTRN	?SetOwnerChargeBlowRate@ioWeapon@@UAEXM@Z:PROC	; ioWeapon::SetOwnerChargeBlowRate
EXTRN	?SetOwnerChargeFloatRate@ioWeapon@@UAEXM@Z:PROC	; ioWeapon::SetOwnerChargeFloatRate
EXTRN	?SetOwnerChargeExplosionRate@ioWeapon@@UAEXM@Z:PROC ; ioWeapon::SetOwnerChargeExplosionRate
EXTRN	?SetOwnerChargeWoundedTimeRate@ioWeapon@@UAEXM@Z:PROC ; ioWeapon::SetOwnerChargeWoundedTimeRate
EXTRN	?SetOwnerChargeLiveTimeRate@ioWeapon@@UAEXM@Z:PROC ; ioWeapon::SetOwnerChargeLiveTimeRate
EXTRN	?SetOwnerChargeBuffLiveTimeRate@ioWeapon@@UAEXM@Z:PROC ; ioWeapon::SetOwnerChargeBuffLiveTimeRate
EXTRN	?SetWeaponIndex@ioWeapon@@UAEXK@Z:PROC		; ioWeapon::SetWeaponIndex
EXTRN	?SetGrapplingTargetName@ioWeapon@@UAEXABVioHashString@@@Z:PROC ; ioWeapon::SetGrapplingTargetName
EXTRN	?SetCreateItem@ioWeapon@@UAEXABVioHashString@@@Z:PROC ; ioWeapon::SetCreateItem
EXTRN	?SetTeam@ioWeapon@@UAEXPAVioPlayStage@@W4TeamType@@@Z:PROC ; ioWeapon::SetTeam
EXTRN	?CallReserveAreaWeapon@ioWeapon@@UAEXXZ:PROC	; ioWeapon::CallReserveAreaWeapon
EXTRN	?PlayExplosionSound@ioWeapon@@UAEXXZ:PROC	; ioWeapon::PlayExplosionSound
EXTRN	?PlayWoundedSound@ioWeapon@@UAEXPAVioPlayEntity@@@Z:PROC ; ioWeapon::PlayWoundedSound
EXTRN	?PlayDefensedSound@ioWeapon@@UAEXPAVioPlayEntity@@@Z:PROC ; ioWeapon::PlayDefensedSound
EXTRN	?PlayLoopSound@ioWeapon@@UAEXXZ:PROC		; ioWeapon::PlayLoopSound
EXTRN	?StopLoopSound@ioWeapon@@UAEXXZ:PROC		; ioWeapon::StopLoopSound
EXTRN	?GetTargetAirBuffList@ioWeapon@@UBEABV?$vector@UBuffInfoStruct@@V?$allocator@UBuffInfoStruct@@@std@@@std@@XZ:PROC ; ioWeapon::GetTargetAirBuffList
EXTRN	?GetTargetBuffList@ioWeapon@@UBEABV?$vector@UBuffInfoStruct@@V?$allocator@UBuffInfoStruct@@@std@@@std@@XZ:PROC ; ioWeapon::GetTargetBuffList
EXTRN	?GetTargetDownBuffList@ioWeapon@@UBEABV?$vector@UBuffInfoStruct@@V?$allocator@UBuffInfoStruct@@@std@@@std@@XZ:PROC ; ioWeapon::GetTargetDownBuffList
EXTRN	?GetPosition@ioWeapon@@UBEABUD3DXVECTOR3@@XZ:PROC ; ioWeapon::GetPosition
EXTRN	?GetBlowType@ioWeapon@@UBE?AW4BlowTargetType@@XZ:PROC ; ioWeapon::GetBlowType
EXTRN	?GetPushPower@ioWeapon@@UBEMM@Z:PROC		; ioWeapon::GetPushPower
EXTRN	?GetBlowPower@ioWeapon@@UBEMM@Z:PROC		; ioWeapon::GetBlowPower
EXTRN	?GetAirPushPower@ioWeapon@@UBEMM@Z:PROC		; ioWeapon::GetAirPushPower
EXTRN	?GetAirBlowPower@ioWeapon@@UBEMM@Z:PROC		; ioWeapon::GetAirBlowPower
EXTRN	?GetDefensePushPower@ioWeapon@@UBEMM@Z:PROC	; ioWeapon::GetDefensePushPower
EXTRN	?GetCollisionEnableTime@ioWeapon@@UBEKXZ:PROC	; ioWeapon::GetCollisionEnableTime
EXTRN	?SetSylphid@ioWeapon@@UAEHXZ:PROC		; ioWeapon::SetSylphid
EXTRN	?ApplyExtraReserveWeaponByWeaponInfo@ioWeapon@@UAEXPAV1@@Z:PROC ; ioWeapon::ApplyExtraReserveWeaponByWeaponInfo
EXTRN	?SetResistanceAttr@ioWeapon@@UAEXH@Z:PROC	; ioWeapon::SetResistanceAttr
EXTRN	?SetStartCollisionBox@ioWeapon@@UAEXXZ:PROC	; ioWeapon::SetStartCollisionBox
EXTRN	?SetLiveTime@ioWeapon@@UAEXK@Z:PROC		; ioWeapon::SetLiveTime
EXTRN	?SetMoveSpeed@ioWeapon@@UAEXM@Z:PROC		; ioWeapon::SetMoveSpeed
EXTRN	?SetFloatPower@ioWeapon@@UAEXM@Z:PROC		; ioWeapon::SetFloatPower
EXTRN	?SetStartPosition@ioWeapon@@UAEXABUD3DXVECTOR3@@PAVioPlayStage@@@Z:PROC ; ioWeapon::SetStartPosition
EXTRN	?TestMapCollision@ioWeapon@@UAE_NPAVioOpcodeShape@@PAVioPlayStage@@PBUD3DXMATRIX@@@Z:PROC ; ioWeapon::TestMapCollision
EXTRN	?CheckPreCollision@ioWeapon@@UAEXPAVioPlayEntity@@PAVioPlayStage@@@Z:PROC ; ioWeapon::CheckPreCollision
EXTRN	?CheckStructAndDummy@ioWeapon@@UAEXPAVioPlayEntity@@PAVioPlayStage@@@Z:PROC ; ioWeapon::CheckStructAndDummy
EXTRN	?GetDamage@ioWeapon@@UAEMPAVioPlayEntity@@@Z:PROC ; ioWeapon::GetDamage
EXTRN	?GetBaseDamage@ioWeapon@@UAEMPAVioPlayEntity@@@Z:PROC ; ioWeapon::GetBaseDamage
EXTRN	?GetPushAngle@ioWeapon@@UBEMXZ:PROC		; ioWeapon::GetPushAngle
EXTRN	?IsResistanceMagic@ioWeapon@@UAEHPAVioBaseChar@@@Z:PROC ; ioWeapon::IsResistanceMagic
EXTRN	?IsResistanceBomb@ioWeapon@@UAEHPAVioBaseChar@@@Z:PROC ; ioWeapon::IsResistanceBomb
EXTRN	?IsCanMineExplosion@ioWeapon@@UAE_NXZ:PROC	; ioWeapon::IsCanMineExplosion
EXTRN	?CheckGrapplingState@ioWeapon@@UAE?AW4GrapplingType@@XZ:PROC ; ioWeapon::CheckGrapplingState
EXTRN	?CheckCurAttribute@ioWeapon@@UAEXPBVioPlayEntity@@@Z:PROC ; ioWeapon::CheckCurAttribute
EXTRN	?CheckItemNotDrop@ioWeapon@@UAE_NPAVioBaseChar@@@Z:PROC ; ioWeapon::CheckItemNotDrop
EXTRN	?GetWorldAttackBoxList@ioWeapon@@UAEXAAV?$vector@VioOrientBox@@V?$allocator@VioOrientBox@@@std@@@std@@@Z:PROC ; ioWeapon::GetWorldAttackBoxList
EXTRN	?GetAttackDir@ioWeapon@@UBE?AUD3DXVECTOR3@@PBVioPlayEntity@@@Z:PROC ; ioWeapon::GetAttackDir
EXTRN	?GetLiveTime@ioWeapon@@UAEKXZ:PROC		; ioWeapon::GetLiveTime
EXTRN	?GetMoveDir@ioWeapon@@UAE?AUD3DXVECTOR3@@XZ:PROC ; ioWeapon::GetMoveDir
EXTRN	?CheckWeaponCollision@ioWeapon@@UAEXXZ:PROC	; ioWeapon::CheckWeaponCollision
EXTRN	?GetRefreshDuration@ioWeapon@@UAEKXZ:PROC	; ioWeapon::GetRefreshDuration
EXTRN	?GetIgnoreDuration@ioWeapon@@UAEKXZ:PROC	; ioWeapon::GetIgnoreDuration
EXTRN	?GetIgnoreTimeTypeDuration@ioWeapon@@UAEKXZ:PROC ; ioWeapon::GetIgnoreTimeTypeDuration
EXTRN	?GetIgnoreTimeType@ioWeapon@@UAEKXZ:PROC	; ioWeapon::GetIgnoreTimeType
EXTRN	?IsSkillDependency@ioWeapon@@UAE_NABVioHashString@@@Z:PROC ; ioWeapon::IsSkillDependency
EXTRN	?SetSkillDependencyAction@ioWeapon@@UAEXXZ:PROC	; ioWeapon::SetSkillDependencyAction
EXTRN	?GetAttribute@ioWeapon@@MBEPBUWeaponAttribute@@XZ:PROC ; ioWeapon::GetAttribute
EXTRN	?CalcFinalDamage@ioWeapon@@MAEMXZ:PROC		; ioWeapon::CalcFinalDamage
EXTRN	?CalcFinalBoundDamage@ioWeapon@@MAEMXZ:PROC	; ioWeapon::CalcFinalBoundDamage
EXTRN	?CheckPiercing@ioWeapon@@MAE_N_N@Z:PROC		; ioWeapon::CheckPiercing
EXTRN	?ClearCollisionList@ioWeapon@@MAEXXZ:PROC	; ioWeapon::ClearCollisionList
EXTRN	?CheckCreateWeaponList@ioWeapon@@MAEXXZ:PROC	; ioWeapon::CheckCreateWeaponList
EXTRN	?CreateCollisionAreaWeapon@ioWeapon@@MAEXXZ:PROC ; ioWeapon::CreateCollisionAreaWeapon
EXTRN	?SetMapCollision@ioWeapon@@UAEXXZ:PROC		; ioWeapon::SetMapCollision
EXTRN	?IsIgnoreTestMapCollision@ioWeapon@@UBE_NXZ:PROC ; ioWeapon::IsIgnoreTestMapCollision
EXTRN	?IsIgnoreMapCollisionEffect@ioWeapon@@UBE_NXZ:PROC ; ioWeapon::IsIgnoreMapCollisionEffect
EXTRN	?AddEffectEvent@ioWeapon@@MAEXPAVioEffect@@@Z:PROC ; ioWeapon::AddEffectEvent
EXTRN	??_EioRotateReturnWeapon@@UAEPAXI@Z:PROC	; ioRotateReturnWeapon::`vector deleting destructor'
;	COMDAT ??_R2ioWeapon@@8
; File d:\lost saga for developer\youtube\tutorial\source\src\lsclient\iorotatereturnweapon.cpp
rdata$r	SEGMENT
??_R2ioWeapon@@8 DD FLAT:??_R1A@?0A@EA@ioWeapon@@8	; ioWeapon::`RTTI Base Class Array'
rdata$r	ENDS
;	COMDAT ??_R3ioWeapon@@8
rdata$r	SEGMENT
??_R3ioWeapon@@8 DD 00H					; ioWeapon::`RTTI Class Hierarchy Descriptor'
	DD	00H
	DD	01H
	DD	FLAT:??_R2ioWeapon@@8
rdata$r	ENDS
;	COMDAT ??_R0?AVioWeapon@@@8
_DATA	SEGMENT
??_R0?AVioWeapon@@@8 DD FLAT:??_7type_info@@6B@		; ioWeapon `RTTI Type Descriptor'
	DD	00H
	DB	'.?AVioWeapon@@', 00H
_DATA	ENDS
;	COMDAT ??_R1A@?0A@EA@ioWeapon@@8
rdata$r	SEGMENT
??_R1A@?0A@EA@ioWeapon@@8 DD FLAT:??_R0?AVioWeapon@@@8	; ioWeapon::`RTTI Base Class Descriptor at (0,-1,0,64)'
	DD	00H
	DD	00H
	DD	0ffffffffH
	DD	00H
	DD	040H
	DD	FLAT:??_R3ioWeapon@@8
rdata$r	ENDS
;	COMDAT ??_R1A@?0A@EA@ioRotateReturnWeapon@@8
rdata$r	SEGMENT
??_R1A@?0A@EA@ioRotateReturnWeapon@@8 DD FLAT:??_R0?AVioRotateReturnWeapon@@@8 ; ioRotateReturnWeapon::`RTTI Base Class Descriptor at (0,-1,0,64)'
	DD	01H
	DD	00H
	DD	0ffffffffH
	DD	00H
	DD	040H
	DD	FLAT:??_R3ioRotateReturnWeapon@@8
rdata$r	ENDS
;	COMDAT ??_R2ioRotateReturnWeapon@@8
rdata$r	SEGMENT
??_R2ioRotateReturnWeapon@@8 DD FLAT:??_R1A@?0A@EA@ioRotateReturnWeapon@@8 ; ioRotateReturnWeapon::`RTTI Base Class Array'
	DD	FLAT:??_R1A@?0A@EA@ioWeapon@@8
rdata$r	ENDS
;	COMDAT ??_R3ioRotateReturnWeapon@@8
rdata$r	SEGMENT
??_R3ioRotateReturnWeapon@@8 DD 00H			; ioRotateReturnWeapon::`RTTI Class Hierarchy Descriptor'
	DD	00H
	DD	02H
	DD	FLAT:??_R2ioRotateReturnWeapon@@8
rdata$r	ENDS
;	COMDAT ??_R0?AVioRotateReturnWeapon@@@8
_DATA	SEGMENT
??_R0?AVioRotateReturnWeapon@@@8 DD FLAT:??_7type_info@@6B@ ; ioRotateReturnWeapon `RTTI Type Descriptor'
	DD	00H
	DB	'.?AVioRotateReturnWeapon@@', 00H
_DATA	ENDS
;	COMDAT ??_R4ioRotateReturnWeapon@@6B@
rdata$r	SEGMENT
??_R4ioRotateReturnWeapon@@6B@ DD 00H			; ioRotateReturnWeapon::`RTTI Complete Object Locator'
	DD	00H
	DD	00H
	DD	FLAT:??_R0?AVioRotateReturnWeapon@@@8
	DD	FLAT:??_R3ioRotateReturnWeapon@@8
rdata$r	ENDS
;	COMDAT ??_C@_0EC@DPHECDBP@ioRotateReturnWeapon?3?3?$HOioRotateR@
CONST	SEGMENT
??_C@_0EC@DPHECDBP@ioRotateReturnWeapon?3?3?$HOioRotateR@ DB 'ioRotateRet'
	DB	'urnWeapon::~ioRotateReturnWeapon - UnReleased Resource', 00H ; `string'
CONST	ENDS
;	COMDAT ??_7ioRotateReturnWeapon@@6B@
CONST	SEGMENT
??_7ioRotateReturnWeapon@@6B@ DD FLAT:??_R4ioRotateReturnWeapon@@6B@ ; ioRotateReturnWeapon::`vftable'
	DD	FLAT:?IsAlreadyCollisioned@ioWeapon@@UAE_NPAVioPlayEntity@@@Z
	DD	FLAT:?AddCollisionEntity@ioWeapon@@UAEXPAVioPlayEntity@@@Z
	DD	FLAT:?SetOwnerDamageRate@ioWeapon@@UAEXM@Z
	DD	FLAT:?SetOwnerChargeDamageRate@ioWeapon@@UAEXM@Z
	DD	FLAT:?SetOwnerChargeForceRate@ioWeapon@@UAEXM@Z
	DD	FLAT:?SetOwnerChargeRangeRate@ioWeapon@@UAEXM@Z
	DD	FLAT:?SetOwnerChargeSpeedRate@ioWeapon@@UAEXM@Z
	DD	FLAT:?SetOwnerChargeBlowRate@ioWeapon@@UAEXM@Z
	DD	FLAT:?SetOwnerChargeFloatRate@ioWeapon@@UAEXM@Z
	DD	FLAT:?SetOwnerChargeScaleRate@ioRotateReturnWeapon@@MAEXM@Z
	DD	FLAT:?SetOwnerChargeExplosionRate@ioWeapon@@UAEXM@Z
	DD	FLAT:?SetOwnerChargeWoundedTimeRate@ioWeapon@@UAEXM@Z
	DD	FLAT:?SetOwnerChargeLiveTimeRate@ioWeapon@@UAEXM@Z
	DD	FLAT:?SetOwnerChargeBuffLiveTimeRate@ioWeapon@@UAEXM@Z
	DD	FLAT:?SetWeaponIndex@ioWeapon@@UAEXK@Z
	DD	FLAT:?SetGrapplingTargetName@ioWeapon@@UAEXABVioHashString@@@Z
	DD	FLAT:?SetCreateItem@ioWeapon@@UAEXABVioHashString@@@Z
	DD	FLAT:?SetTeam@ioWeapon@@UAEXPAVioPlayStage@@W4TeamType@@@Z
	DD	FLAT:?CallReserveAreaWeapon@ioWeapon@@UAEXXZ
	DD	FLAT:?SetWeaponDead@ioRotateReturnWeapon@@UAEXXZ
	DD	FLAT:?PlayExplosionSound@ioWeapon@@UAEXXZ
	DD	FLAT:?PlayWoundedSound@ioWeapon@@UAEXPAVioPlayEntity@@@Z
	DD	FLAT:?PlayDefensedSound@ioWeapon@@UAEXPAVioPlayEntity@@@Z
	DD	FLAT:?PlayLoopSound@ioWeapon@@UAEXXZ
	DD	FLAT:?StopLoopSound@ioWeapon@@UAEXXZ
	DD	FLAT:?GetTargetAirBuffList@ioWeapon@@UBEABV?$vector@UBuffInfoStruct@@V?$allocator@UBuffInfoStruct@@@std@@@std@@XZ
	DD	FLAT:?GetTargetBuffList@ioWeapon@@UBEABV?$vector@UBuffInfoStruct@@V?$allocator@UBuffInfoStruct@@@std@@@std@@XZ
	DD	FLAT:?GetTargetDownBuffList@ioWeapon@@UBEABV?$vector@UBuffInfoStruct@@V?$allocator@UBuffInfoStruct@@@std@@@std@@XZ
	DD	FLAT:?GetPosition@ioWeapon@@UBEABUD3DXVECTOR3@@XZ
	DD	FLAT:?GetBlowType@ioWeapon@@UBE?AW4BlowTargetType@@XZ
	DD	FLAT:?GetPushPower@ioWeapon@@UBEMM@Z
	DD	FLAT:?GetBlowPower@ioWeapon@@UBEMM@Z
	DD	FLAT:?GetAirPushPower@ioWeapon@@UBEMM@Z
	DD	FLAT:?GetAirBlowPower@ioWeapon@@UBEMM@Z
	DD	FLAT:?GetDefensePushPower@ioWeapon@@UBEMM@Z
	DD	FLAT:?GetCollisionEnableTime@ioWeapon@@UBEKXZ
	DD	FLAT:?SetSylphid@ioWeapon@@UAEHXZ
	DD	FLAT:?ApplyExtraReserveWeaponByWeaponInfo@ioWeapon@@UAEXPAV1@@Z
	DD	FLAT:?InitResource@ioRotateReturnWeapon@@MAE_NXZ
	DD	FLAT:?DestroyResource@ioRotateReturnWeapon@@MAEXPAVioPlayStage@@@Z
	DD	FLAT:?LoadProperty@ioRotateReturnWeapon@@UAEXAAVioINILoader@@@Z
	DD	FLAT:?SetResistanceAttr@ioWeapon@@UAEXH@Z
	DD	FLAT:?SetStartCollisionBox@ioWeapon@@UAEXXZ
	DD	FLAT:?SetLiveTime@ioWeapon@@UAEXK@Z
	DD	FLAT:?SetMoveDir@ioRotateReturnWeapon@@UAEXABUD3DXVECTOR3@@@Z
	DD	FLAT:?SetMoveSpeed@ioWeapon@@UAEXM@Z
	DD	FLAT:?SetFloatPower@ioWeapon@@UAEXM@Z
	DD	FLAT:?SetStartPosition@ioWeapon@@UAEXABUD3DXVECTOR3@@PAVioPlayStage@@@Z
	DD	FLAT:?Process@ioRotateReturnWeapon@@MAEXMPAVioPlayStage@@@Z
	DD	FLAT:?IsCollision@ioRotateReturnWeapon@@UAE_NPAVioPlayEntity@@_N@Z
	DD	FLAT:?TestMapCollision@ioWeapon@@UAE_NPAVioOpcodeShape@@PAVioPlayStage@@PBUD3DXMATRIX@@@Z
	DD	FLAT:?CheckPreCollision@ioWeapon@@UAEXPAVioPlayEntity@@PAVioPlayStage@@@Z
	DD	FLAT:?CheckStructAndDummy@ioWeapon@@UAEXPAVioPlayEntity@@PAVioPlayStage@@@Z
	DD	FLAT:?GetDamage@ioWeapon@@UAEMPAVioPlayEntity@@@Z
	DD	FLAT:?GetBaseDamage@ioWeapon@@UAEMPAVioPlayEntity@@@Z
	DD	FLAT:?GetPushAngle@ioWeapon@@UBEMXZ
	DD	FLAT:?IsResistanceMagic@ioWeapon@@UAEHPAVioBaseChar@@@Z
	DD	FLAT:?IsResistanceBomb@ioWeapon@@UAEHPAVioBaseChar@@@Z
	DD	FLAT:?IsCanMineExplosion@ioWeapon@@UAE_NXZ
	DD	FLAT:?CheckGrapplingState@ioWeapon@@UAE?AW4GrapplingType@@XZ
	DD	FLAT:?CheckCurAttribute@ioWeapon@@UAEXPBVioPlayEntity@@@Z
	DD	FLAT:?CheckItemNotDrop@ioWeapon@@UAE_NPAVioBaseChar@@@Z
	DD	FLAT:?GetWorldAttackBoxList@ioWeapon@@UAEXAAV?$vector@VioOrientBox@@V?$allocator@VioOrientBox@@@std@@@std@@@Z
	DD	FLAT:?GetAttackDir@ioWeapon@@UBE?AUD3DXVECTOR3@@PBVioPlayEntity@@@Z
	DD	FLAT:?GetLocalAttackBox@ioRotateReturnWeapon@@MBEABVioOrientBox@@XZ
	DD	FLAT:?GetLiveTime@ioWeapon@@UAEKXZ
	DD	FLAT:?GetMoveDir@ioWeapon@@UAE?AUD3DXVECTOR3@@XZ
	DD	FLAT:?CheckWeaponCollision@ioWeapon@@UAEXXZ
	DD	FLAT:?GetType@ioRotateReturnWeapon@@UBE?AW4WeaponType@ioWeapon@@XZ
	DD	FLAT:?GetActionStopType@ioRotateReturnWeapon@@MBE?AW4ActionStopType@@XZ
	DD	FLAT:?GetDieActionStopType@ioRotateReturnWeapon@@MBE?AW4ActionStopType@@XZ
	DD	FLAT:?GetRefreshDuration@ioWeapon@@UAEKXZ
	DD	FLAT:?GetIgnoreDuration@ioWeapon@@UAEKXZ
	DD	FLAT:?GetIgnoreTimeTypeDuration@ioWeapon@@UAEKXZ
	DD	FLAT:?GetIgnoreTimeType@ioWeapon@@UAEKXZ
	DD	FLAT:?ApplyWeaponSync@ioRotateReturnWeapon@@UAEXAAVSP2Packet@@PAVioPlayStage@@@Z
	DD	FLAT:?IsSkillDependency@ioWeapon@@UAE_NABVioHashString@@@Z
	DD	FLAT:?SetSkillDependencyAction@ioWeapon@@UAEXXZ
	DD	FLAT:?UpdateWorldAttackBox@ioRotateReturnWeapon@@MAEXM_N@Z
	DD	FLAT:?GetAttribute@ioWeapon@@MBEPBUWeaponAttribute@@XZ
	DD	FLAT:?CalcFinalDamage@ioWeapon@@MAEMXZ
	DD	FLAT:?CalcFinalBoundDamage@ioWeapon@@MAEMXZ
	DD	FLAT:?CheckPiercing@ioWeapon@@MAE_N_N@Z
	DD	FLAT:?ClearCollisionList@ioWeapon@@MAEXXZ
	DD	FLAT:?CheckCreateWeaponList@ioWeapon@@MAEXXZ
	DD	FLAT:?CreateCollisionAreaWeapon@ioWeapon@@MAEXXZ
	DD	FLAT:?SetMapCollision@ioWeapon@@UAEXXZ
	DD	FLAT:?IsIgnoreMapCollision@ioRotateReturnWeapon@@UBE_NXZ
	DD	FLAT:?IsIgnoreTestMapCollision@ioWeapon@@UBE_NXZ
	DD	FLAT:?IsIgnoreMapCollisionEffect@ioWeapon@@UBE_NXZ
	DD	FLAT:?AddEffectEvent@ioWeapon@@MAEXPAVioEffect@@@Z
	DD	FLAT:??_EioRotateReturnWeapon@@UAEPAXI@Z
CONST	ENDS
;	COMDAT xdata$x
xdata$x	SEGMENT
__unwindtable$??1ioRotateReturnWeapon@@UAE@XZ DD 0ffffffffH
	DD	FLAT:__unwindfunclet$??1ioRotateReturnWeapon@@UAE@XZ$0
	DD	00H
	DD	FLAT:__unwindfunclet$??1ioRotateReturnWeapon@@UAE@XZ$1
	DD	01H
	DD	FLAT:__unwindfunclet$??1ioRotateReturnWeapon@@UAE@XZ$2
__ehfuncinfo$??1ioRotateReturnWeapon@@UAE@XZ DD 019930522H
	DD	03H
	DD	FLAT:__unwindtable$??1ioRotateReturnWeapon@@UAE@XZ
	DD	2 DUP(00H)
	DD	2 DUP(00H)
	DD	00H
	DD	01H
; Function compile flags: /Ogsp
xdata$x	ENDS
;	COMDAT ??1ioRotateReturnWeapon@@UAE@XZ
_TEXT	SEGMENT
_this$ = -16						; size = 4
__$EHRec$ = -12						; size = 12
??1ioRotateReturnWeapon@@UAE@XZ PROC			; ioRotateReturnWeapon::~ioRotateReturnWeapon, COMDAT
; _this$ = ecx

; 30   : {

  00000	6a 04		 push	 4
  00002	b8 00 00 00 00	 mov	 eax, __ehhandler$??1ioRotateReturnWeapon@@UAE@XZ
  00007	e8 00 00 00 00	 call	 __EH_prolog3
  0000c	8b f1		 mov	 esi, ecx
  0000e	89 75 f0	 mov	 DWORD PTR _this$[ebp], esi
  00011	c7 06 00 00 00
	00		 mov	 DWORD PTR [esi], OFFSET ??_7ioRotateReturnWeapon@@6B@

; 31   : 	if( m_pFireBall )

  00017	83 be 94 08 00
	00 00		 cmp	 DWORD PTR [esi+2196], 0
  0001e	c7 45 fc 02 00
	00 00		 mov	 DWORD PTR __$EHRec$[ebp+8], 2
  00025	74 16		 je	 SHORT $LN1@ioRotateRe

; 32   : 	{
; 33   : 		LOG.PrintTimeAndLog( 0, "ioRotateReturnWeapon::~ioRotateReturnWeapon - UnReleased Resource" );

  00027	68 00 00 00 00	 push	 OFFSET ??_C@_0EC@DPHECDBP@ioRotateReturnWeapon?3?3?$HOioRotateR@
  0002c	6a 00		 push	 0
  0002e	ff 35 00 00 00
	00		 push	 DWORD PTR __imp_?LOG@@3VCLog@@A
  00034	ff 15 00 00 00
	00		 call	 DWORD PTR __imp_?PrintTimeAndLog@CLog@@QAAXHPADZZ
  0003a	83 c4 0c	 add	 esp, 12			; 0000000cH
$LN1@ioRotateRe:

; 34   : 	}
; 35   : }

  0003d	8d 8e 20 09 00
	00		 lea	 ecx, DWORD PTR [esi+2336]
  00043	c6 45 fc 01	 mov	 BYTE PTR __$EHRec$[ebp+8], 1
  00047	ff 15 00 00 00
	00		 call	 DWORD PTR __imp_??1ioHashString@@QAE@XZ
  0004d	8d 8e 98 08 00
	00		 lea	 ecx, DWORD PTR [esi+2200]
  00053	c6 45 fc 00	 mov	 BYTE PTR __$EHRec$[ebp+8], 0
  00057	ff 15 00 00 00
	00		 call	 DWORD PTR __imp_??1ioOrientBox@@QAE@XZ
  0005d	83 4d fc ff	 or	 DWORD PTR __$EHRec$[ebp+8], -1
  00061	8b ce		 mov	 ecx, esi
  00063	e8 00 00 00 00	 call	 ??1ioWeapon@@UAE@XZ	; ioWeapon::~ioWeapon
  00068	e8 00 00 00 00	 call	 __EH_epilog3
  0006d	c3		 ret	 0
_TEXT	ENDS
;	COMDAT text$x
text$x	SEGMENT
__unwindfunclet$??1ioRotateReturnWeapon@@UAE@XZ$0:
  00000	8b 4d f0	 mov	 ecx, DWORD PTR _this$[ebp]
  00003	e9 00 00 00 00	 jmp	 ??1ioWeapon@@UAE@XZ	; ioWeapon::~ioWeapon
__unwindfunclet$??1ioRotateReturnWeapon@@UAE@XZ$1:
  00008	8b 4d f0	 mov	 ecx, DWORD PTR _this$[ebp]
  0000b	81 c1 98 08 00
	00		 add	 ecx, 2200		; 00000898H
  00011	ff 25 00 00 00
	00		 jmp	 DWORD PTR __imp_??1ioOrientBox@@QAE@XZ
__unwindfunclet$??1ioRotateReturnWeapon@@UAE@XZ$2:
  00017	8b 4d f0	 mov	 ecx, DWORD PTR _this$[ebp]
  0001a	81 c1 20 09 00
	00		 add	 ecx, 2336		; 00000920H
  00020	ff 25 00 00 00
	00		 jmp	 DWORD PTR __imp_??1ioHashString@@QAE@XZ
__ehhandler$??1ioRotateReturnWeapon@@UAE@XZ:
  00026	8b 54 24 08	 mov	 edx, DWORD PTR [esp+8]
  0002a	8d 42 0c	 lea	 eax, DWORD PTR [edx+12]
  0002d	8b 4a ec	 mov	 ecx, DWORD PTR [edx-20]
  00030	33 c8		 xor	 ecx, eax
  00032	e8 00 00 00 00	 call	 @__security_check_cookie@4
  00037	b8 00 00 00 00	 mov	 eax, OFFSET __ehfuncinfo$??1ioRotateReturnWeapon@@UAE@XZ
  0003c	e9 00 00 00 00	 jmp	 ___CxxFrameHandler3
text$x	ENDS
??1ioRotateReturnWeapon@@UAE@XZ ENDP			; ioRotateReturnWeapon::~ioRotateReturnWeapon
; Function compile flags: /Ogsp
;	COMDAT ?GetActionStopType@ioRotateReturnWeapon@@MBE?AW4ActionStopType@@XZ
_TEXT	SEGMENT
?GetActionStopType@ioRotateReturnWeapon@@MBE?AW4ActionStopType@@XZ PROC ; ioRotateReturnWeapon::GetActionStopType, COMDAT
; _this$ = ecx

; 39   : 	return m_ActionStopType;

  00000	a1 00 00 00 00	 mov	 eax, DWORD PTR ?m_ActionStopType@ioRotateReturnWeapon@@2W4ActionStopType@@A ; ioRotateReturnWeapon::m_ActionStopType

; 40   : }

  00005	c3		 ret	 0
?GetActionStopType@ioRotateReturnWeapon@@MBE?AW4ActionStopType@@XZ ENDP ; ioRotateReturnWeapon::GetActionStopType
; Function compile flags: /Ogsp
_TEXT	ENDS
;	COMDAT ?GetDieActionStopType@ioRotateReturnWeapon@@MBE?AW4ActionStopType@@XZ
_TEXT	SEGMENT
?GetDieActionStopType@ioRotateReturnWeapon@@MBE?AW4ActionStopType@@XZ PROC ; ioRotateReturnWeapon::GetDieActionStopType, COMDAT
; _this$ = ecx

; 44   : 	return m_DieActionStopType;

  00000	a1 00 00 00 00	 mov	 eax, DWORD PTR ?m_DieActionStopType@ioRotateReturnWeapon@@2W4ActionStopType@@A ; ioRotateReturnWeapon::m_DieActionStopType

; 45   : }

  00005	c3		 ret	 0
?GetDieActionStopType@ioRotateReturnWeapon@@MBE?AW4ActionStopType@@XZ ENDP ; ioRotateReturnWeapon::GetDieActionStopType
_TEXT	ENDS
EXTRN	__imp_?DestroyEffect@ioEffectFactory@@QAEXPAVioEffect@@@Z:PROC
EXTRN	__imp_?GetSingleton@ioEffectFactory@@SAAAV1@XZ:PROC
; Function compile flags: /Ogsp
;	COMDAT ?DestroyResource@ioRotateReturnWeapon@@MAEXPAVioPlayStage@@@Z
_TEXT	SEGMENT
_pStage$ = 8						; size = 4
?DestroyResource@ioRotateReturnWeapon@@MAEXPAVioPlayStage@@@Z PROC ; ioRotateReturnWeapon::DestroyResource, COMDAT
; _this$ = ecx

; 112  : {

  00000	56		 push	 esi

; 113  : 	if( m_pFireBall )

  00001	8d b1 94 08 00
	00		 lea	 esi, DWORD PTR [ecx+2196]
  00007	8b 06		 mov	 eax, DWORD PTR [esi]
  00009	85 c0		 test	 eax, eax
  0000b	74 12		 je	 SHORT $LN1@DestroyRes

; 114  : 	{
; 115  : 		g_EffectFactory.DestroyEffect( m_pFireBall );

  0000d	50		 push	 eax
  0000e	ff 15 00 00 00
	00		 call	 DWORD PTR __imp_?GetSingleton@ioEffectFactory@@SAAAV1@XZ
  00014	8b c8		 mov	 ecx, eax
  00016	ff 15 00 00 00
	00		 call	 DWORD PTR __imp_?DestroyEffect@ioEffectFactory@@QAEXPAVioEffect@@@Z

; 116  : 		m_pFireBall = NULL;

  0001c	83 26 00	 and	 DWORD PTR [esi], 0
$LN1@DestroyRes:
  0001f	5e		 pop	 esi

; 117  : 	}
; 118  : }

  00020	c2 04 00	 ret	 4
?DestroyResource@ioRotateReturnWeapon@@MAEXPAVioPlayStage@@@Z ENDP ; ioRotateReturnWeapon::DestroyResource
; Function compile flags: /Ogsp
_TEXT	ENDS
;	COMDAT ?GetType@ioRotateReturnWeapon@@UBE?AW4WeaponType@ioWeapon@@XZ
_TEXT	SEGMENT
?GetType@ioRotateReturnWeapon@@UBE?AW4WeaponType@ioWeapon@@XZ PROC ; ioRotateReturnWeapon::GetType, COMDAT
; _this$ = ecx

; 123  : 	return WT_ROTATE_RETURN_WEAPON;

  00000	6a 6c		 push	 108			; 0000006cH
  00002	58		 pop	 eax

; 124  : }

  00003	c3		 ret	 0
?GetType@ioRotateReturnWeapon@@UBE?AW4WeaponType@ioWeapon@@XZ ENDP ; ioRotateReturnWeapon::GetType
_TEXT	ENDS
EXTRN	?GetLocalAttackBox@ioWeapon@@UBEABVioOrientBox@@XZ:PROC ; ioWeapon::GetLocalAttackBox
EXTRN	__imp_?GetCollisionBox@ioEffect@@QBEABVioOrientBox@@XZ:PROC
; Function compile flags: /Ogsp
;	COMDAT ?GetLocalAttackBox@ioRotateReturnWeapon@@MBEABVioOrientBox@@XZ
_TEXT	SEGMENT
?GetLocalAttackBox@ioRotateReturnWeapon@@MBEABVioOrientBox@@XZ PROC ; ioRotateReturnWeapon::GetLocalAttackBox, COMDAT
; _this$ = ecx

; 128  : 	if( m_pFireBall )

  00000	8b 81 94 08 00
	00		 mov	 eax, DWORD PTR [ecx+2196]
  00006	85 c0		 test	 eax, eax
  00008	74 08		 je	 SHORT $LN1@GetLocalAt

; 129  : 		return m_pFireBall->GetCollisionBox();

  0000a	8b c8		 mov	 ecx, eax
  0000c	ff 25 00 00 00
	00		 jmp	 DWORD PTR __imp_?GetCollisionBox@ioEffect@@QBEABVioOrientBox@@XZ
$LN1@GetLocalAt:

; 130  : 
; 131  : 	return ioWeapon::GetLocalAttackBox();

  00012	e9 00 00 00 00	 jmp	 ?GetLocalAttackBox@ioWeapon@@UBEABVioOrientBox@@XZ ; ioWeapon::GetLocalAttackBox
?GetLocalAttackBox@ioRotateReturnWeapon@@MBEABVioOrientBox@@XZ ENDP ; ioRotateReturnWeapon::GetLocalAttackBox
_TEXT	ENDS
PUBLIC	?CheckWeaponDead@ioRotateReturnWeapon@@QAE_NPAVioBaseChar@@@Z ; ioRotateReturnWeapon::CheckWeaponDead
EXTRN	__imp_?GetLoopSec@ioFrameTimer@@QBEKXZ:PROC
EXTRN	__imp_?GetSingleton@ioFrameTimer@@SAAAV1@XZ:PROC
; Function compile flags: /Ogsp
;	COMDAT ?CheckWeaponDead@ioRotateReturnWeapon@@QAE_NPAVioBaseChar@@@Z
_TEXT	SEGMENT
_pOwner$ = 8						; size = 4
?CheckWeaponDead@ioRotateReturnWeapon@@QAE_NPAVioBaseChar@@@Z PROC ; ioRotateReturnWeapon::CheckWeaponDead, COMDAT
; _this$ = ecx

; 318  : {

  00000	55		 push	 ebp
  00001	8b ec		 mov	 ebp, esp

; 319  : 	if( !pOwner )

  00003	83 7d 08 00	 cmp	 DWORD PTR _pOwner$[ebp], 0
  00007	56		 push	 esi
  00008	8b f1		 mov	 esi, ecx
  0000a	75 09		 jne	 SHORT $LN3@CheckWeapo
$LN8@CheckWeapo:

; 320  : 	{
; 321  : 		SetWeaponDead();

  0000c	8b 06		 mov	 eax, DWORD PTR [esi]
  0000e	ff 50 4c	 call	 DWORD PTR [eax+76]

; 322  : 		return false;

  00011	32 c0		 xor	 al, al
  00013	eb 2d		 jmp	 SHORT $LN4@CheckWeapo
$LN3@CheckWeapo:

; 323  : 	}
; 324  : 
; 325  : 	if( m_dwCreatedTime + m_dwLiveTime < FRAMEGETTIME() )

  00015	ff 15 00 00 00
	00		 call	 DWORD PTR __imp_?GetSingleton@ioFrameTimer@@SAAAV1@XZ
  0001b	8b c8		 mov	 ecx, eax
  0001d	ff 15 00 00 00
	00		 call	 DWORD PTR __imp_?GetLoopSec@ioFrameTimer@@QBEKXZ
  00023	8b 8e e0 08 00
	00		 mov	 ecx, DWORD PTR [esi+2272]
  00029	03 8e d4 04 00
	00		 add	 ecx, DWORD PTR [esi+1236]
  0002f	3b c8		 cmp	 ecx, eax
  00031	73 04		 jae	 SHORT $LN2@CheckWeapo
$LN7@CheckWeapo:

; 326  : 	{
; 327  : 		SetWeaponDead();

  00033	8b ce		 mov	 ecx, esi

; 328  : 		return false;

  00035	eb d5		 jmp	 SHORT $LN8@CheckWeapo
$LN2@CheckWeapo:

; 329  : 	}
; 330  : 
; 331  : 	if( m_State == WS_END )

  00037	83 be dc 08 00
	00 03		 cmp	 DWORD PTR [esi+2268], 3

; 332  : 	{
; 333  : 		SetWeaponDead();
; 334  : 		return false;

  0003e	74 f3		 je	 SHORT $LN7@CheckWeapo

; 335  : 	}
; 336  : 
; 337  : 	return true;

  00040	b0 01		 mov	 al, 1
$LN4@CheckWeapo:
  00042	5e		 pop	 esi

; 338  : }

  00043	5d		 pop	 ebp
  00044	c2 04 00	 ret	 4
?CheckWeaponDead@ioRotateReturnWeapon@@QAE_NPAVioBaseChar@@@Z ENDP ; ioRotateReturnWeapon::CheckWeaponDead
; Function compile flags: /Ogsp
_TEXT	ENDS
;	COMDAT ?IsIgnoreMapCollision@ioRotateReturnWeapon@@UBE_NXZ
_TEXT	SEGMENT
?IsIgnoreMapCollision@ioRotateReturnWeapon@@UBE_NXZ PROC ; ioRotateReturnWeapon::IsIgnoreMapCollision, COMDAT
; _this$ = ecx

; 342  : 	return true;

  00000	b0 01		 mov	 al, 1

; 343  : }

  00002	c3		 ret	 0
?IsIgnoreMapCollision@ioRotateReturnWeapon@@UBE_NXZ ENDP ; ioRotateReturnWeapon::IsIgnoreMapCollision
_TEXT	ENDS
EXTRN	?SetWeaponDead@ioWeapon@@UAEXXZ:PROC		; ioWeapon::SetWeaponDead
; Function compile flags: /Ogsp
;	COMDAT ?SetWeaponDead@ioRotateReturnWeapon@@UAEXXZ
_TEXT	SEGMENT
?SetWeaponDead@ioRotateReturnWeapon@@UAEXXZ PROC	; ioRotateReturnWeapon::SetWeaponDead, COMDAT
; _this$ = ecx

; 392  : 	ioWeapon::SetWeaponDead();

  00000	e9 00 00 00 00	 jmp	 ?SetWeaponDead@ioWeapon@@UAEXXZ ; ioWeapon::SetWeaponDead
?SetWeaponDead@ioRotateReturnWeapon@@UAEXXZ ENDP	; ioRotateReturnWeapon::SetWeaponDead
_TEXT	ENDS
EXTRN	??5SP2Packet@@QAEAAV0@AAE@Z:PROC		; SP2Packet::operator>>
; Function compile flags: /Ogsp
;	COMDAT ?ApplyWeaponSync@ioRotateReturnWeapon@@UAEXAAVSP2Packet@@PAVioPlayStage@@@Z
_TEXT	SEGMENT
_eState$ = -1						; size = 1
_rkPacket$ = 8						; size = 4
_pStage$ = 12						; size = 4
?ApplyWeaponSync@ioRotateReturnWeapon@@UAEXAAVSP2Packet@@PAVioPlayStage@@@Z PROC ; ioRotateReturnWeapon::ApplyWeaponSync, COMDAT
; _this$ = ecx

; 396  : {

  00000	55		 push	 ebp
  00001	8b ec		 mov	 ebp, esp
  00003	51		 push	 ecx
  00004	56		 push	 esi

; 397  : 	byte eState = 0;
; 398  : 	rkPacket >> eState;

  00005	8d 45 ff	 lea	 eax, DWORD PTR _eState$[ebp]
  00008	8b f1		 mov	 esi, ecx
  0000a	8b 4d 08	 mov	 ecx, DWORD PTR _rkPacket$[ebp]
  0000d	50		 push	 eax
  0000e	c6 45 ff 00	 mov	 BYTE PTR _eState$[ebp], 0
  00012	e8 00 00 00 00	 call	 ??5SP2Packet@@QAEAAV0@AAE@Z ; SP2Packet::operator>>

; 399  : 
; 400  : 	switch( eState )

  00017	80 7d ff 00	 cmp	 BYTE PTR _eState$[ebp], 0
  0001b	75 15		 jne	 SHORT $LN2@ApplyWeapo

; 401  : 	{
; 402  : 	case WSS_RETURN:
; 403  : 		{
; 404  : 			m_State			= WS_RETURN;
; 405  : 			m_fCurMoveRange	= 0.0f;

  0001d	0f 57 c0	 xorps	 xmm0, xmm0
  00020	c7 86 dc 08 00
	00 02 00 00 00	 mov	 DWORD PTR [esi+2268], 2
  0002a	f3 0f 11 86 fc
	08 00 00	 movss	 DWORD PTR [esi+2300], xmm0
$LN2@ApplyWeapo:
  00032	5e		 pop	 esi

; 406  : 		}
; 407  : 		break;
; 408  : 	}
; 409  : }

  00033	c9		 leave
  00034	c2 08 00	 ret	 8
?ApplyWeaponSync@ioRotateReturnWeapon@@UAEXAAVSP2Packet@@PAVioPlayStage@@@Z ENDP ; ioRotateReturnWeapon::ApplyWeaponSync
_TEXT	ENDS
PUBLIC	??0D3DXVECTOR3@@QAE@XZ				; D3DXVECTOR3::D3DXVECTOR3
; Function compile flags: /Ogsp
; File c:\program files (x86)\microsoft directx sdk (june 2010)\include\d3dx9math.h
;	COMDAT ??0D3DXVECTOR3@@QAE@XZ
_TEXT	SEGMENT
??0D3DXVECTOR3@@QAE@XZ PROC				; D3DXVECTOR3::D3DXVECTOR3, COMDAT
; _this$ = ecx

; 165  :     D3DXVECTOR3() {};

  00000	8b c1		 mov	 eax, ecx
  00002	c3		 ret	 0
??0D3DXVECTOR3@@QAE@XZ ENDP				; D3DXVECTOR3::D3DXVECTOR3
_TEXT	ENDS
PUBLIC	??0D3DXQUATERNION@@QAE@XZ			; D3DXQUATERNION::D3DXQUATERNION
; Function compile flags: /Ogsp
;	COMDAT ??0D3DXQUATERNION@@QAE@XZ
_TEXT	SEGMENT
??0D3DXQUATERNION@@QAE@XZ PROC				; D3DXQUATERNION::D3DXQUATERNION, COMDAT
; _this$ = ecx

; 429  :     D3DXQUATERNION() {}

  00000	8b c1		 mov	 eax, ecx
  00002	c3		 ret	 0
??0D3DXQUATERNION@@QAE@XZ ENDP				; D3DXQUATERNION::D3DXQUATERNION
_TEXT	ENDS
PUBLIC	??0D3DXVECTOR3@@QAE@MMM@Z			; D3DXVECTOR3::D3DXVECTOR3
; Function compile flags: /Ogsp
; File c:\program files (x86)\microsoft directx sdk (june 2010)\include\d3dx9math.inl
;	COMDAT ??0D3DXVECTOR3@@QAE@MMM@Z
_TEXT	SEGMENT
_fx$ = 8						; size = 4
_fy$ = 12						; size = 4
_fz$ = 16						; size = 4
??0D3DXVECTOR3@@QAE@MMM@Z PROC				; D3DXVECTOR3::D3DXVECTOR3, COMDAT
; _this$ = ecx

; 303  : {

  00000	55		 push	 ebp
  00001	8b ec		 mov	 ebp, esp

; 304  :     x = fx;

  00003	f3 0f 10 45 08	 movss	 xmm0, DWORD PTR _fx$[ebp]
  00008	8b c1		 mov	 eax, ecx
  0000a	f3 0f 11 00	 movss	 DWORD PTR [eax], xmm0

; 305  :     y = fy;

  0000e	f3 0f 10 45 0c	 movss	 xmm0, DWORD PTR _fy$[ebp]
  00013	f3 0f 11 40 04	 movss	 DWORD PTR [eax+4], xmm0

; 306  :     z = fz;

  00018	f3 0f 10 45 10	 movss	 xmm0, DWORD PTR _fz$[ebp]
  0001d	f3 0f 11 40 08	 movss	 DWORD PTR [eax+8], xmm0

; 307  : }

  00022	5d		 pop	 ebp
  00023	c2 0c 00	 ret	 12			; 0000000cH
??0D3DXVECTOR3@@QAE@MMM@Z ENDP				; D3DXVECTOR3::D3DXVECTOR3
_TEXT	ENDS
PUBLIC	__mask@@NegFloat@
PUBLIC	??GD3DXVECTOR3@@QBE?AU0@XZ			; D3DXVECTOR3::operator-
;	COMDAT __mask@@NegFloat@
CONST	SEGMENT
__mask@@NegFloat@ DB 00H, 00H, 00H, 080H, 00H, 00H, 00H, 080H, 00H, 00H, 00H
	DB	080H, 00H, 00H, 00H, 080H
; Function compile flags: /Ogsp
CONST	ENDS
;	COMDAT ??GD3DXVECTOR3@@QBE?AU0@XZ
_TEXT	SEGMENT
___$ReturnUdt$ = 8					; size = 4
??GD3DXVECTOR3@@QBE?AU0@XZ PROC				; D3DXVECTOR3::operator-, COMDAT
; _this$ = ecx

; 372  : {

  00000	55		 push	 ebp
  00001	8b ec		 mov	 ebp, esp

; 373  :     return D3DXVECTOR3(-x, -y, -z);

  00003	f3 0f 10 05 00
	00 00 00	 movss	 xmm0, DWORD PTR __mask@@NegFloat@
  0000b	8b 45 08	 mov	 eax, DWORD PTR ___$ReturnUdt$[ebp]
  0000e	f3 0f 10 09	 movss	 xmm1, DWORD PTR [ecx]
  00012	0f 57 c8	 xorps	 xmm1, xmm0
  00015	f3 0f 11 08	 movss	 DWORD PTR [eax], xmm1
  00019	f3 0f 10 49 04	 movss	 xmm1, DWORD PTR [ecx+4]
  0001e	0f 57 c8	 xorps	 xmm1, xmm0
  00021	f3 0f 11 48 04	 movss	 DWORD PTR [eax+4], xmm1
  00026	f3 0f 10 49 08	 movss	 xmm1, DWORD PTR [ecx+8]
  0002b	0f 57 c8	 xorps	 xmm1, xmm0
  0002e	f3 0f 11 48 08	 movss	 DWORD PTR [eax+8], xmm1

; 374  : }

  00033	5d		 pop	 ebp
  00034	c2 04 00	 ret	 4
??GD3DXVECTOR3@@QBE?AU0@XZ ENDP				; D3DXVECTOR3::operator-
_TEXT	ENDS
PUBLIC	??HD3DXVECTOR3@@QBE?AU0@ABU0@@Z			; D3DXVECTOR3::operator+
; Function compile flags: /Ogsp
;	COMDAT ??HD3DXVECTOR3@@QBE?AU0@ABU0@@Z
_TEXT	SEGMENT
___$ReturnUdt$ = 8					; size = 4
_v$ = 12						; size = 4
??HD3DXVECTOR3@@QBE?AU0@ABU0@@Z PROC			; D3DXVECTOR3::operator+, COMDAT
; _this$ = ecx

; 380  : {

  00000	55		 push	 ebp
  00001	8b ec		 mov	 ebp, esp

; 381  :     return D3DXVECTOR3(x + v.x, y + v.y, z + v.z);

  00003	8b 55 0c	 mov	 edx, DWORD PTR _v$[ebp]
  00006	f3 0f 10 02	 movss	 xmm0, DWORD PTR [edx]
  0000a	f3 0f 10 09	 movss	 xmm1, DWORD PTR [ecx]
  0000e	8b 45 08	 mov	 eax, DWORD PTR ___$ReturnUdt$[ebp]
  00011	0f 5a c0	 cvtps2pd xmm0, xmm0
  00014	0f 5a c9	 cvtps2pd xmm1, xmm1
  00017	f2 0f 58 c1	 addsd	 xmm0, xmm1
  0001b	f3 0f 10 49 04	 movss	 xmm1, DWORD PTR [ecx+4]
  00020	66 0f 5a c0	 cvtpd2ps xmm0, xmm0
  00024	f3 0f 11 00	 movss	 DWORD PTR [eax], xmm0
  00028	f3 0f 10 42 04	 movss	 xmm0, DWORD PTR [edx+4]
  0002d	0f 5a c0	 cvtps2pd xmm0, xmm0
  00030	0f 5a c9	 cvtps2pd xmm1, xmm1
  00033	f2 0f 58 c1	 addsd	 xmm0, xmm1
  00037	f3 0f 10 49 08	 movss	 xmm1, DWORD PTR [ecx+8]
  0003c	66 0f 5a c0	 cvtpd2ps xmm0, xmm0
  00040	f3 0f 11 40 04	 movss	 DWORD PTR [eax+4], xmm0
  00045	f3 0f 10 42 08	 movss	 xmm0, DWORD PTR [edx+8]
  0004a	0f 5a c0	 cvtps2pd xmm0, xmm0
  0004d	0f 5a c9	 cvtps2pd xmm1, xmm1
  00050	f2 0f 58 c1	 addsd	 xmm0, xmm1
  00054	66 0f 5a c0	 cvtpd2ps xmm0, xmm0
  00058	f3 0f 11 40 08	 movss	 DWORD PTR [eax+8], xmm0

; 382  : }

  0005d	5d		 pop	 ebp
  0005e	c2 08 00	 ret	 8
??HD3DXVECTOR3@@QBE?AU0@ABU0@@Z ENDP			; D3DXVECTOR3::operator+
_TEXT	ENDS
PUBLIC	??GD3DXVECTOR3@@QBE?AU0@ABU0@@Z			; D3DXVECTOR3::operator-
; Function compile flags: /Ogsp
;	COMDAT ??GD3DXVECTOR3@@QBE?AU0@ABU0@@Z
_TEXT	SEGMENT
___$ReturnUdt$ = 8					; size = 4
_v$ = 12						; size = 4
??GD3DXVECTOR3@@QBE?AU0@ABU0@@Z PROC			; D3DXVECTOR3::operator-, COMDAT
; _this$ = ecx

; 386  : {

  00000	55		 push	 ebp
  00001	8b ec		 mov	 ebp, esp

; 387  :     return D3DXVECTOR3(x - v.x, y - v.y, z - v.z);

  00003	8b 55 0c	 mov	 edx, DWORD PTR _v$[ebp]
  00006	f3 0f 10 01	 movss	 xmm0, DWORD PTR [ecx]
  0000a	f3 0f 10 0a	 movss	 xmm1, DWORD PTR [edx]
  0000e	8b 45 08	 mov	 eax, DWORD PTR ___$ReturnUdt$[ebp]
  00011	0f 5a c0	 cvtps2pd xmm0, xmm0
  00014	0f 5a c9	 cvtps2pd xmm1, xmm1
  00017	f2 0f 5c c1	 subsd	 xmm0, xmm1
  0001b	f3 0f 10 4a 04	 movss	 xmm1, DWORD PTR [edx+4]
  00020	66 0f 5a c0	 cvtpd2ps xmm0, xmm0
  00024	f3 0f 11 00	 movss	 DWORD PTR [eax], xmm0
  00028	f3 0f 10 41 04	 movss	 xmm0, DWORD PTR [ecx+4]
  0002d	0f 5a c0	 cvtps2pd xmm0, xmm0
  00030	0f 5a c9	 cvtps2pd xmm1, xmm1
  00033	f2 0f 5c c1	 subsd	 xmm0, xmm1
  00037	f3 0f 10 4a 08	 movss	 xmm1, DWORD PTR [edx+8]
  0003c	66 0f 5a c0	 cvtpd2ps xmm0, xmm0
  00040	f3 0f 11 40 04	 movss	 DWORD PTR [eax+4], xmm0
  00045	f3 0f 10 41 08	 movss	 xmm0, DWORD PTR [ecx+8]
  0004a	0f 5a c0	 cvtps2pd xmm0, xmm0
  0004d	0f 5a c9	 cvtps2pd xmm1, xmm1
  00050	f2 0f 5c c1	 subsd	 xmm0, xmm1
  00054	66 0f 5a c0	 cvtpd2ps xmm0, xmm0
  00058	f3 0f 11 40 08	 movss	 DWORD PTR [eax+8], xmm0

; 388  : }

  0005d	5d		 pop	 ebp
  0005e	c2 08 00	 ret	 8
??GD3DXVECTOR3@@QBE?AU0@ABU0@@Z ENDP			; D3DXVECTOR3::operator-
_TEXT	ENDS
PUBLIC	??DD3DXVECTOR3@@QBE?AU0@M@Z			; D3DXVECTOR3::operator*
; Function compile flags: /Ogsp
;	COMDAT ??DD3DXVECTOR3@@QBE?AU0@M@Z
_TEXT	SEGMENT
___$ReturnUdt$ = 8					; size = 4
_f$ = 12						; size = 4
??DD3DXVECTOR3@@QBE?AU0@M@Z PROC			; D3DXVECTOR3::operator*, COMDAT
; _this$ = ecx

; 392  : {

  00000	55		 push	 ebp
  00001	8b ec		 mov	 ebp, esp

; 393  :     return D3DXVECTOR3(x * f, y * f, z * f);

  00003	f3 0f 10 4d 0c	 movss	 xmm1, DWORD PTR _f$[ebp]
  00008	f3 0f 10 01	 movss	 xmm0, DWORD PTR [ecx]
  0000c	8b 45 08	 mov	 eax, DWORD PTR ___$ReturnUdt$[ebp]
  0000f	0f 5a c0	 cvtps2pd xmm0, xmm0
  00012	0f 5a c9	 cvtps2pd xmm1, xmm1
  00015	f2 0f 59 c1	 mulsd	 xmm0, xmm1
  00019	f3 0f 10 4d 0c	 movss	 xmm1, DWORD PTR _f$[ebp]
  0001e	66 0f 5a c0	 cvtpd2ps xmm0, xmm0
  00022	f3 0f 11 00	 movss	 DWORD PTR [eax], xmm0
  00026	f3 0f 10 41 04	 movss	 xmm0, DWORD PTR [ecx+4]
  0002b	0f 5a c0	 cvtps2pd xmm0, xmm0
  0002e	0f 5a c9	 cvtps2pd xmm1, xmm1
  00031	f2 0f 59 c1	 mulsd	 xmm0, xmm1
  00035	f3 0f 10 4d 0c	 movss	 xmm1, DWORD PTR _f$[ebp]
  0003a	66 0f 5a c0	 cvtpd2ps xmm0, xmm0
  0003e	f3 0f 11 40 04	 movss	 DWORD PTR [eax+4], xmm0
  00043	f3 0f 10 41 08	 movss	 xmm0, DWORD PTR [ecx+8]
  00048	0f 5a c0	 cvtps2pd xmm0, xmm0
  0004b	0f 5a c9	 cvtps2pd xmm1, xmm1
  0004e	f2 0f 59 c1	 mulsd	 xmm0, xmm1
  00052	66 0f 5a c0	 cvtpd2ps xmm0, xmm0
  00056	f3 0f 11 40 08	 movss	 DWORD PTR [eax+8], xmm0

; 394  : }

  0005b	5d		 pop	 ebp
  0005c	c2 08 00	 ret	 8
??DD3DXVECTOR3@@QBE?AU0@M@Z ENDP			; D3DXVECTOR3::operator*
_TEXT	ENDS
PUBLIC	??9D3DXVECTOR3@@QBEHABU0@@Z			; D3DXVECTOR3::operator!=
; Function compile flags: /Ogsp
;	COMDAT ??9D3DXVECTOR3@@QBEHABU0@@Z
_TEXT	SEGMENT
_v$ = 8							; size = 4
??9D3DXVECTOR3@@QBEHABU0@@Z PROC			; D3DXVECTOR3::operator!=, COMDAT
; _this$ = ecx

; 419  : {

  00000	55		 push	 ebp
  00001	8b ec		 mov	 ebp, esp

; 420  :     return x != v.x || y != v.y || z != v.z;

  00003	8b 55 08	 mov	 edx, DWORD PTR _v$[ebp]
  00006	f3 0f 10 01	 movss	 xmm0, DWORD PTR [ecx]
  0000a	f3 0f 10 0a	 movss	 xmm1, DWORD PTR [edx]
  0000e	0f 5a c0	 cvtps2pd xmm0, xmm0
  00011	0f 5a c9	 cvtps2pd xmm1, xmm1
  00014	66 0f 2e c1	 ucomisd xmm0, xmm1
  00018	9f		 lahf
  00019	f6 c4 44	 test	 ah, 68			; 00000044H
  0001c	7a 38		 jp	 SHORT $LN3@operator
  0001e	f3 0f 10 41 04	 movss	 xmm0, DWORD PTR [ecx+4]
  00023	f3 0f 10 4a 04	 movss	 xmm1, DWORD PTR [edx+4]
  00028	0f 5a c0	 cvtps2pd xmm0, xmm0
  0002b	0f 5a c9	 cvtps2pd xmm1, xmm1
  0002e	66 0f 2e c1	 ucomisd xmm0, xmm1
  00032	9f		 lahf
  00033	f6 c4 44	 test	 ah, 68			; 00000044H
  00036	7a 1e		 jp	 SHORT $LN3@operator
  00038	f3 0f 10 41 08	 movss	 xmm0, DWORD PTR [ecx+8]
  0003d	f3 0f 10 4a 08	 movss	 xmm1, DWORD PTR [edx+8]
  00042	0f 5a c0	 cvtps2pd xmm0, xmm0
  00045	0f 5a c9	 cvtps2pd xmm1, xmm1
  00048	66 0f 2e c1	 ucomisd xmm0, xmm1
  0004c	9f		 lahf
  0004d	f6 c4 44	 test	 ah, 68			; 00000044H
  00050	7a 04		 jp	 SHORT $LN3@operator
  00052	33 c0		 xor	 eax, eax
  00054	eb 03		 jmp	 SHORT $LN4@operator
$LN3@operator:
  00056	33 c0		 xor	 eax, eax
  00058	40		 inc	 eax
$LN4@operator:

; 421  : }

  00059	5d		 pop	 ebp
  0005a	c2 04 00	 ret	 4
??9D3DXVECTOR3@@QBEHABU0@@Z ENDP			; D3DXVECTOR3::operator!=
_TEXT	ENDS
PUBLIC	?D3DXVec3LengthSq@@YAMPBUD3DXVECTOR3@@@Z	; D3DXVec3LengthSq
; Function compile flags: /Ogsp
;	COMDAT ?D3DXVec3LengthSq@@YAMPBUD3DXVECTOR3@@@Z
_TEXT	SEGMENT
tv165 = 8						; size = 4
_pV$ = 8						; size = 4
?D3DXVec3LengthSq@@YAMPBUD3DXVECTOR3@@@Z PROC		; D3DXVec3LengthSq, COMDAT

; 1725 : {

  00000	55		 push	 ebp
  00001	8b ec		 mov	 ebp, esp

; 1726 : #ifdef D3DX_DEBUG
; 1727 :     if(!pV)
; 1728 :         return 0.0f;
; 1729 : #endif
; 1730 : 
; 1731 :     return pV->x * pV->x + pV->y * pV->y + pV->z * pV->z;

  00003	8b 45 08	 mov	 eax, DWORD PTR _pV$[ebp]
  00006	d9 40 04	 fld	 DWORD PTR [eax+4]
  00009	d9 00		 fld	 DWORD PTR [eax]
  0000b	d9 40 08	 fld	 DWORD PTR [eax+8]
  0000e	d9 c1		 fld	 ST(1)
  00010	de ca		 fmulp	 ST(2), ST(0)
  00012	d9 c2		 fld	 ST(2)
  00014	de cb		 fmulp	 ST(3), ST(0)
  00016	d9 c9		 fxch	 ST(1)
  00018	de c2		 faddp	 ST(2), ST(0)
  0001a	d9 c0		 fld	 ST(0)
  0001c	de c9		 fmulp	 ST(1), ST(0)
  0001e	de c1		 faddp	 ST(1), ST(0)
  00020	d9 5d 08	 fstp	 DWORD PTR tv165[ebp]
  00023	d9 45 08	 fld	 DWORD PTR tv165[ebp]

; 1732 : }

  00026	5d		 pop	 ebp
  00027	c3		 ret	 0
?D3DXVec3LengthSq@@YAMPBUD3DXVECTOR3@@@Z ENDP		; D3DXVec3LengthSq
_TEXT	ENDS
PUBLIC	?D3DXVec3Dot@@YAMPBUD3DXVECTOR3@@0@Z		; D3DXVec3Dot
; Function compile flags: /Ogsp
;	COMDAT ?D3DXVec3Dot@@YAMPBUD3DXVECTOR3@@0@Z
_TEXT	SEGMENT
tv188 = 8						; size = 4
_pV1$ = 8						; size = 4
_pV2$ = 12						; size = 4
?D3DXVec3Dot@@YAMPBUD3DXVECTOR3@@0@Z PROC		; D3DXVec3Dot, COMDAT

; 1736 : {

  00000	55		 push	 ebp
  00001	8b ec		 mov	 ebp, esp

; 1737 : #ifdef D3DX_DEBUG
; 1738 :     if(!pV1 || !pV2)
; 1739 :         return 0.0f;
; 1740 : #endif
; 1741 : 
; 1742 :     return pV1->x * pV2->x + pV1->y * pV2->y + pV1->z * pV2->z;

  00003	8b 45 08	 mov	 eax, DWORD PTR _pV1$[ebp]
  00006	8b 4d 0c	 mov	 ecx, DWORD PTR _pV2$[ebp]
  00009	d9 40 04	 fld	 DWORD PTR [eax+4]
  0000c	d8 49 04	 fmul	 DWORD PTR [ecx+4]
  0000f	d9 00		 fld	 DWORD PTR [eax]
  00011	d8 09		 fmul	 DWORD PTR [ecx]
  00013	de c1		 faddp	 ST(1), ST(0)
  00015	d9 40 08	 fld	 DWORD PTR [eax+8]
  00018	d8 49 08	 fmul	 DWORD PTR [ecx+8]
  0001b	de c1		 faddp	 ST(1), ST(0)
  0001d	d9 5d 08	 fstp	 DWORD PTR tv188[ebp]
  00020	d9 45 08	 fld	 DWORD PTR tv188[ebp]

; 1743 : }

  00023	5d		 pop	 ebp
  00024	c3		 ret	 0
?D3DXVec3Dot@@YAMPBUD3DXVECTOR3@@0@Z ENDP		; D3DXVec3Dot
_TEXT	ENDS
PUBLIC	?D3DXVec3Cross@@YAPAUD3DXVECTOR3@@PAU1@PBU1@1@Z	; D3DXVec3Cross
; Function compile flags: /Ogsp
;	COMDAT ?D3DXVec3Cross@@YAPAUD3DXVECTOR3@@PAU1@PBU1@1@Z
_TEXT	SEGMENT
_v$ = -12						; size = 12
_pOut$ = 8						; size = 4
_pV1$ = 12						; size = 4
_pV2$ = 16						; size = 4
?D3DXVec3Cross@@YAPAUD3DXVECTOR3@@PAU1@PBU1@1@Z PROC	; D3DXVec3Cross, COMDAT

; 1747 : {

  00000	55		 push	 ebp
  00001	8b ec		 mov	 ebp, esp
  00003	83 ec 0c	 sub	 esp, 12			; 0000000cH

; 1757 :     v.z = pV1->x * pV2->y - pV1->y * pV2->x;
; 1758 : 
; 1759 :     *pOut = v;

  00006	56		 push	 esi
  00007	57		 push	 edi

; 1748 :     D3DXVECTOR3 v;
; 1749 : 
; 1750 : #ifdef D3DX_DEBUG
; 1751 :     if(!pOut || !pV1 || !pV2)
; 1752 :         return NULL;
; 1753 : #endif
; 1754 : 
; 1755 :     v.x = pV1->y * pV2->z - pV1->z * pV2->y;

  00008	8b 45 0c	 mov	 eax, DWORD PTR _pV1$[ebp]
  0000b	f3 0f 10 40 04	 movss	 xmm0, DWORD PTR [eax+4]
  00010	f3 0f 10 50 08	 movss	 xmm2, DWORD PTR [eax+8]
  00015	8b 4d 10	 mov	 ecx, DWORD PTR _pV2$[ebp]
  00018	f3 0f 10 49 08	 movss	 xmm1, DWORD PTR [ecx+8]
  0001d	f3 0f 10 59 04	 movss	 xmm3, DWORD PTR [ecx+4]
  00022	0f 5a e8	 cvtps2pd xmm5, xmm0
  00025	0f 5a e1	 cvtps2pd xmm4, xmm1
  00028	0f 5a f2	 cvtps2pd xmm6, xmm2
  0002b	f2 0f 59 e5	 mulsd	 xmm4, xmm5

; 1756 :     v.y = pV1->z * pV2->x - pV1->x * pV2->z;

  0002f	0f 5a d2	 cvtps2pd xmm2, xmm2
  00032	0f 5a c9	 cvtps2pd xmm1, xmm1
  00035	0f 5a eb	 cvtps2pd xmm5, xmm3
  00038	f2 0f 59 ee	 mulsd	 xmm5, xmm6
  0003c	f2 0f 5c e5	 subsd	 xmm4, xmm5
  00040	f3 0f 10 28	 movss	 xmm5, DWORD PTR [eax]

; 1757 :     v.z = pV1->x * pV2->y - pV1->y * pV2->x;
; 1758 : 
; 1759 :     *pOut = v;

  00044	8b 45 08	 mov	 eax, DWORD PTR _pOut$[ebp]
  00047	66 0f 5a e4	 cvtpd2ps xmm4, xmm4
  0004b	f3 0f 11 65 f4	 movss	 DWORD PTR _v$[ebp], xmm4
  00050	f3 0f 10 21	 movss	 xmm4, DWORD PTR [ecx]
  00054	0f 5a f4	 cvtps2pd xmm6, xmm4
  00057	f2 0f 59 f2	 mulsd	 xmm6, xmm2
  0005b	0f 5a d5	 cvtps2pd xmm2, xmm5
  0005e	f2 0f 59 d1	 mulsd	 xmm2, xmm1
  00062	f2 0f 5c f2	 subsd	 xmm6, xmm2
  00066	66 0f 5a ce	 cvtpd2ps xmm1, xmm6
  0006a	f3 0f 11 4d f8	 movss	 DWORD PTR _v$[ebp+4], xmm1
  0006f	0f 5a c0	 cvtps2pd xmm0, xmm0
  00072	0f 5a d3	 cvtps2pd xmm2, xmm3
  00075	0f 5a cd	 cvtps2pd xmm1, xmm5
  00078	f2 0f 59 ca	 mulsd	 xmm1, xmm2
  0007c	8d 75 f4	 lea	 esi, DWORD PTR _v$[ebp]
  0007f	8b f8		 mov	 edi, eax
  00081	0f 5a d4	 cvtps2pd xmm2, xmm4
  00084	f2 0f 59 d0	 mulsd	 xmm2, xmm0
  00088	f2 0f 5c ca	 subsd	 xmm1, xmm2
  0008c	66 0f 5a c1	 cvtpd2ps xmm0, xmm1
  00090	f3 0f 11 45 fc	 movss	 DWORD PTR _v$[ebp+8], xmm0
  00095	a5		 movsd
  00096	a5		 movsd
  00097	a5		 movsd
  00098	5f		 pop	 edi
  00099	5e		 pop	 esi

; 1760 :     return pOut;
; 1761 : }

  0009a	c9		 leave
  0009b	c3		 ret	 0
?D3DXVec3Cross@@YAPAUD3DXVECTOR3@@PAU1@PBU1@1@Z ENDP	; D3DXVec3Cross
_TEXT	ENDS
PUBLIC	?_DECSTR@@YAXPADH@Z				; _DECSTR
; Function compile flags: /Ogsp
; File d:\lost saga for developer\youtube\tutorial\source\src\lsclient\stringprotect.h
;	COMDAT ?_DECSTR@@YAXPADH@Z
_TEXT	SEGMENT
_s$ = 8							; size = 4
_l$ = 12						; size = 4
?_DECSTR@@YAXPADH@Z PROC				; _DECSTR, COMDAT

; 40   : __forceinline void _DECSTR(char* s, int l){int i=0,l4=(l-1)/4,*p=(int*)s;s[l-1]=0;for(;i<l4;++i)*(p++)^=0xEAEBECED;for(i=l4*4;i<l-1;++i)s[i]^=0xED-i%4;}

  00000	55		 push	 ebp
  00001	8b ec		 mov	 ebp, esp
  00003	8b 4d 0c	 mov	 ecx, DWORD PTR _l$[ebp]
  00006	56		 push	 esi
  00007	8b 75 08	 mov	 esi, DWORD PTR _s$[ebp]
  0000a	57		 push	 edi
  0000b	8d 79 ff	 lea	 edi, DWORD PTR [ecx-1]
  0000e	8b c7		 mov	 eax, edi
  00010	99		 cdq
  00011	83 e2 03	 and	 edx, 3
  00014	03 c2		 add	 eax, edx
  00016	c1 f8 02	 sar	 eax, 2
  00019	8b d6		 mov	 edx, esi
  0001b	c6 44 0e ff 00	 mov	 BYTE PTR [esi+ecx-1], 0
  00020	85 c0		 test	 eax, eax
  00022	7e 0e		 jle	 SHORT $LN4@DECSTR
  00024	8b c8		 mov	 ecx, eax
$LL6@DECSTR:
  00026	81 32 ed ec eb
	ea		 xor	 DWORD PTR [edx], -353637139 ; eaebecedH
  0002c	83 c2 04	 add	 edx, 4
  0002f	49		 dec	 ecx
  00030	75 f4		 jne	 SHORT $LL6@DECSTR
$LN4@DECSTR:
  00032	c1 e0 02	 shl	 eax, 2
  00035	eb 17		 jmp	 SHORT $LN14@DECSTR
$LL3@DECSTR:
  00037	8b c8		 mov	 ecx, eax
  00039	81 e1 03 00 00
	80		 and	 ecx, -2147483645	; 80000003H
  0003f	79 05		 jns	 SHORT $LN13@DECSTR
  00041	49		 dec	 ecx
  00042	83 c9 fc	 or	 ecx, -4			; fffffffcH
  00045	41		 inc	 ecx
$LN13@DECSTR:
  00046	b2 ed		 mov	 dl, -19			; ffffffedH
  00048	2a d1		 sub	 dl, cl
  0004a	30 14 30	 xor	 BYTE PTR [eax+esi], dl
  0004d	40		 inc	 eax
$LN14@DECSTR:
  0004e	3b c7		 cmp	 eax, edi
  00050	7c e5		 jl	 SHORT $LL3@DECSTR
  00052	5f		 pop	 edi
  00053	5e		 pop	 esi
  00054	5d		 pop	 ebp
  00055	c3		 ret	 0
?_DECSTR@@YAXPADH@Z ENDP				; _DECSTR
_TEXT	ENDS
PUBLIC	?return57@@YAIXZ				; return57
; Function compile flags: /Ogsp
; File d:\lost saga for developer\youtube\tutorial\source\src\lsclient\veryoftenusedefine.h
;	COMDAT ?return57@@YAIXZ
_TEXT	SEGMENT
?return57@@YAIXZ PROC					; return57, COMDAT

; 15   : __forceinline unsigned int return57() { __asm mov eax, 57 };

  00000	b8 39 00 00 00	 mov	 eax, 57			; 00000039H
  00005	c3		 ret	 0
?return57@@YAIXZ ENDP					; return57
_TEXT	ENDS
PUBLIC	?GetGroup@ioGameEntity@@QBEPAVioEntityGroup@@XZ	; ioGameEntity::GetGroup
; Function compile flags: /Ogsp
; File d:\lost saga for developer\youtube\tutorial\source\src\lsclient\iogameentity.h
;	COMDAT ?GetGroup@ioGameEntity@@QBEPAVioEntityGroup@@XZ
_TEXT	SEGMENT
?GetGroup@ioGameEntity@@QBEPAVioEntityGroup@@XZ PROC	; ioGameEntity::GetGroup, COMDAT
; _this$ = ecx

; 166  : 	inline ioEntityGroup* GetGroup() const { return m_pGroup; }

  00000	8b 41 04	 mov	 eax, DWORD PTR [ecx+4]
  00003	c3		 ret	 0
?GetGroup@ioGameEntity@@QBEPAVioEntityGroup@@XZ ENDP	; ioGameEntity::GetGroup
_TEXT	ENDS
PUBLIC	??_R0?AVioGameEntity@@@8			; ioGameEntity `RTTI Type Descriptor'
PUBLIC	??_R0?AVioPlayEntity@@@8			; ioPlayEntity `RTTI Type Descriptor'
PUBLIC	?ToPlayEntity@@YAPAVioPlayEntity@@PAVioGameEntity@@@Z ; ToPlayEntity
EXTRN	___RTDynamicCast:PROC
;	COMDAT ??_R0?AVioGameEntity@@@8
; File d:\lost saga for developer\youtube\tutorial\source\src\lsclient\ioplayentity.h
_DATA	SEGMENT
??_R0?AVioGameEntity@@@8 DD FLAT:??_7type_info@@6B@	; ioGameEntity `RTTI Type Descriptor'
	DD	00H
	DB	'.?AVioGameEntity@@', 00H
_DATA	ENDS
;	COMDAT ??_R0?AVioPlayEntity@@@8
_DATA	SEGMENT
??_R0?AVioPlayEntity@@@8 DD FLAT:??_7type_info@@6B@	; ioPlayEntity `RTTI Type Descriptor'
	DD	00H
	DB	'.?AVioPlayEntity@@', 00H
; Function compile flags: /Ogsp
_DATA	ENDS
;	COMDAT ?ToPlayEntity@@YAPAVioPlayEntity@@PAVioGameEntity@@@Z
_TEXT	SEGMENT
_pObj$ = 8						; size = 4
?ToPlayEntity@@YAPAVioPlayEntity@@PAVioGameEntity@@@Z PROC ; ToPlayEntity, COMDAT

; 121  : {

  00000	55		 push	 ebp
  00001	8b ec		 mov	 ebp, esp
  00003	56		 push	 esi

; 122  : 	if( !pObj || pObj->GetTypeID() != ioGameEntity::GET_PLAY_ENTITY )

  00004	8b 75 08	 mov	 esi, DWORD PTR _pObj$[ebp]
  00007	85 f6		 test	 esi, esi
  00009	74 25		 je	 SHORT $LN1@ToPlayEnti
  0000b	8b 06		 mov	 eax, DWORD PTR [esi]
  0000d	8b ce		 mov	 ecx, esi
  0000f	ff 50 10	 call	 DWORD PTR [eax+16]
  00012	83 f8 01	 cmp	 eax, 1
  00015	75 19		 jne	 SHORT $LN1@ToPlayEnti

; 124  : 
; 125  : 	return dynamic_cast< ioPlayEntity* >( pObj );

  00017	6a 00		 push	 0
  00019	68 00 00 00 00	 push	 OFFSET ??_R0?AVioPlayEntity@@@8
  0001e	68 00 00 00 00	 push	 OFFSET ??_R0?AVioGameEntity@@@8
  00023	6a 00		 push	 0
  00025	56		 push	 esi
  00026	e8 00 00 00 00	 call	 ___RTDynamicCast
  0002b	83 c4 14	 add	 esp, 20			; 00000014H
  0002e	eb 02		 jmp	 SHORT $LN3@ToPlayEnti
$LN1@ToPlayEnti:

; 123  : 		return NULL;

  00030	33 c0		 xor	 eax, eax
$LN3@ToPlayEnti:
  00032	5e		 pop	 esi

; 126  : }

  00033	5d		 pop	 ebp
  00034	c3		 ret	 0
?ToPlayEntity@@YAPAVioPlayEntity@@PAVioGameEntity@@@Z ENDP ; ToPlayEntity
_TEXT	ENDS
PUBLIC	?IsLive@ioWeapon@@QBE_NXZ			; ioWeapon::IsLive
; Function compile flags: /Ogsp
; File d:\lost saga for developer\youtube\tutorial\source\src\lsclient\ioweapon.h
;	COMDAT ?IsLive@ioWeapon@@QBE_NXZ
_TEXT	SEGMENT
?IsLive@ioWeapon@@QBE_NXZ PROC				; ioWeapon::IsLive, COMDAT
; _this$ = ecx

; 533  : 	inline bool IsLive() const { return m_bLive; }

  00000	8a 81 82 05 00
	00		 mov	 al, BYTE PTR [ecx+1410]
  00006	c3		 ret	 0
?IsLive@ioWeapon@@QBE_NXZ ENDP				; ioWeapon::IsLive
_TEXT	ENDS
PUBLIC	?GetOwnerName@ioWeapon@@QBEABVioHashString@@XZ	; ioWeapon::GetOwnerName
; Function compile flags: /Ogsp
;	COMDAT ?GetOwnerName@ioWeapon@@QBEABVioHashString@@XZ
_TEXT	SEGMENT
?GetOwnerName@ioWeapon@@QBEABVioHashString@@XZ PROC	; ioWeapon::GetOwnerName, COMDAT
; _this$ = ecx

; 636  : 	inline const ioHashString& GetOwnerName() const { return m_OwnerName; }

  00000	8d 41 10	 lea	 eax, DWORD PTR [ecx+16]
  00003	c3		 ret	 0
?GetOwnerName@ioWeapon@@QBEABVioHashString@@XZ ENDP	; ioWeapon::GetOwnerName
_TEXT	ENDS
PUBLIC	?GetParentSceneNode@ioWeapon@@QBEPAVioSceneNode@@XZ ; ioWeapon::GetParentSceneNode
; Function compile flags: /Ogsp
;	COMDAT ?GetParentSceneNode@ioWeapon@@QBEPAVioSceneNode@@XZ
_TEXT	SEGMENT
?GetParentSceneNode@ioWeapon@@QBEPAVioSceneNode@@XZ PROC ; ioWeapon::GetParentSceneNode, COMDAT
; _this$ = ecx

; 797  : 	ioSceneNode* GetParentSceneNode() const { return m_pSceneNode; }

  00000	8b 41 04	 mov	 eax, DWORD PTR [ecx+4]
  00003	c3		 ret	 0
?GetParentSceneNode@ioWeapon@@QBEPAVioSceneNode@@XZ ENDP ; ioWeapon::GetParentSceneNode
_TEXT	ENDS
PUBLIC	?EncryptValueToPool@?$CEncrypt@M@@AAEXPBD@Z	; CEncrypt<float>::EncryptValueToPool
EXTRN	?EncryptByte@ccddaabb@@QAEXPBDPADH@Z:PROC	; ccddaabb::EncryptByte
; Function compile flags: /Ogsp
; File d:\lost saga for developer\youtube\tutorial\source\src\lsclient\encryptvalue.h
;	COMDAT ?EncryptValueToPool@?$CEncrypt@M@@AAEXPBD@Z
_TEXT	SEGMENT
_value$ = 8						; size = 4
?EncryptValueToPool@?$CEncrypt@M@@AAEXPBD@Z PROC	; CEncrypt<float>::EncryptValueToPool, COMDAT
; _this$ = ecx

; 67   : 	{

  00000	55		 push	 ebp
  00001	8b ec		 mov	 ebp, esp

; 68   : 		m_RC5.EncryptByte( value, m_MemPool, max(m_ValueSize, DEFAULT_ENCRYPT) );

  00003	0f b7 41 06	 movzx	 eax, WORD PTR [ecx+6]
  00007	83 f8 04	 cmp	 eax, 4
  0000a	77 03		 ja	 SHORT $LN4@EncryptVal
  0000c	6a 04		 push	 4
  0000e	58		 pop	 eax
$LN4@EncryptVal:
  0000f	50		 push	 eax
  00010	8d 41 1c	 lea	 eax, DWORD PTR [ecx+28]
  00013	50		 push	 eax
  00014	ff 75 08	 push	 DWORD PTR _value$[ebp]
  00017	83 c1 0c	 add	 ecx, 12			; 0000000cH
  0001a	e8 00 00 00 00	 call	 ?EncryptByte@ccddaabb@@QAEXPBDPADH@Z ; ccddaabb::EncryptByte

; 69   : 		
; 70   : 	}

  0001f	5d		 pop	 ebp
  00020	c2 04 00	 ret	 4
?EncryptValueToPool@?$CEncrypt@M@@AAEXPBD@Z ENDP	; CEncrypt<float>::EncryptValueToPool
_TEXT	ENDS
PUBLIC	?DecryptValueToPool@?$CEncrypt@M@@QAEXPAM@Z	; CEncrypt<float>::DecryptValueToPool
EXTRN	?DecryptByte@ccddaabb@@QBEXPBDPADH@Z:PROC	; ccddaabb::DecryptByte
; Function compile flags: /Ogsp
;	COMDAT ?DecryptValueToPool@?$CEncrypt@M@@QAEXPAM@Z
_TEXT	SEGMENT
_value$ = 8						; size = 4
?DecryptValueToPool@?$CEncrypt@M@@QAEXPAM@Z PROC	; CEncrypt<float>::DecryptValueToPool, COMDAT
; _this$ = ecx

; 1648 : 	{

  00000	55		 push	 ebp
  00001	8b ec		 mov	 ebp, esp
  00003	56		 push	 esi

; 1649 : 		m_RC5.DecryptByte( m_MemPool, m_TempMem, 4 );

  00004	8d 71 28	 lea	 esi, DWORD PTR [ecx+40]
  00007	6a 04		 push	 4
  00009	8d 41 1c	 lea	 eax, DWORD PTR [ecx+28]
  0000c	56		 push	 esi
  0000d	50		 push	 eax
  0000e	83 c1 0c	 add	 ecx, 12			; 0000000cH
  00011	e8 00 00 00 00	 call	 ?DecryptByte@ccddaabb@@QBEXPBDPADH@Z ; ccddaabb::DecryptByte

; 1650 : 		*value = *((float*)m_TempMem);

  00016	d9 06		 fld	 DWORD PTR [esi]
  00018	8b 45 08	 mov	 eax, DWORD PTR _value$[ebp]
  0001b	d9 18		 fstp	 DWORD PTR [eax]
  0001d	5e		 pop	 esi

; 1651 : 	}

  0001e	5d		 pop	 ebp
  0001f	c2 04 00	 ret	 4
?DecryptValueToPool@?$CEncrypt@M@@QAEXPAM@Z ENDP	; CEncrypt<float>::DecryptValueToPool
_TEXT	ENDS
PUBLIC	??_R0?AVioBaseChar@@@8				; ioBaseChar `RTTI Type Descriptor'
PUBLIC	?ToBaseChar@@YAPAVioBaseChar@@PAVioGameEntity@@@Z ; ToBaseChar
;	COMDAT ??_R0?AVioBaseChar@@@8
; File d:\lost saga for developer\youtube\tutorial\source\src\lsclient\iobasechar.h
_DATA	SEGMENT
??_R0?AVioBaseChar@@@8 DD FLAT:??_7type_info@@6B@	; ioBaseChar `RTTI Type Descriptor'
	DD	00H
	DB	'.?AVioBaseChar@@', 00H
; Function compile flags: /Ogsp
_DATA	ENDS
;	COMDAT ?ToBaseChar@@YAPAVioBaseChar@@PAVioGameEntity@@@Z
_TEXT	SEGMENT
_pObj$ = 8						; size = 4
?ToBaseChar@@YAPAVioBaseChar@@PAVioGameEntity@@@Z PROC	; ToBaseChar, COMDAT

; 4326 : {

  00000	55		 push	 ebp
  00001	8b ec		 mov	 ebp, esp
  00003	56		 push	 esi

; 4327 : 	ioPlayEntity *pPlay = ToPlayEntity( pObj );

  00004	ff 75 08	 push	 DWORD PTR _pObj$[ebp]
  00007	e8 00 00 00 00	 call	 ?ToPlayEntity@@YAPAVioPlayEntity@@PAVioGameEntity@@@Z ; ToPlayEntity
  0000c	8b f0		 mov	 esi, eax
  0000e	59		 pop	 ecx

; 4328 : 	if( !pPlay || pPlay->GetSubType() != ioPlayEntity::PST_CHAR )

  0000f	85 f6		 test	 esi, esi
  00011	74 25		 je	 SHORT $LN1@ToBaseChar
  00013	8b 06		 mov	 eax, DWORD PTR [esi]
  00015	8b ce		 mov	 ecx, esi
  00017	ff 90 a4 00 00
	00		 call	 DWORD PTR [eax+164]
  0001d	85 c0		 test	 eax, eax
  0001f	75 17		 jne	 SHORT $LN1@ToBaseChar

; 4330 : 
; 4331 : 	return dynamic_cast< ioBaseChar* >( pPlay );

  00021	50		 push	 eax
  00022	68 00 00 00 00	 push	 OFFSET ??_R0?AVioBaseChar@@@8
  00027	68 00 00 00 00	 push	 OFFSET ??_R0?AVioPlayEntity@@@8
  0002c	50		 push	 eax
  0002d	56		 push	 esi
  0002e	e8 00 00 00 00	 call	 ___RTDynamicCast
  00033	83 c4 14	 add	 esp, 20			; 00000014H
  00036	eb 02		 jmp	 SHORT $LN3@ToBaseChar
$LN1@ToBaseChar:

; 4329 : 		return NULL;

  00038	33 c0		 xor	 eax, eax
$LN3@ToBaseChar:
  0003a	5e		 pop	 esi

; 4332 : }

  0003b	5d		 pop	 ebp
  0003c	c3		 ret	 0
?ToBaseChar@@YAPAVioBaseChar@@PAVioGameEntity@@@Z ENDP	; ToBaseChar
_TEXT	ENDS
PUBLIC	??0ioRotateReturnWeapon@@QAE@PAVioBaseChar@@PBUWeaponAttribute@@@Z ; ioRotateReturnWeapon::ioRotateReturnWeapon
EXTRN	__imp_?VEC3_ZERO@ioMath@@2UD3DXVECTOR3@@A:BYTE
EXTRN	?SetPeculiarity@ioWeapon@@QAEXK@Z:PROC		; ioWeapon::SetPeculiarity
EXTRN	__imp_??0ioHashString@@QAE@XZ:PROC
EXTRN	__imp_??0ioOrientBox@@QAE@XZ:PROC
EXTRN	??0ioWeapon@@QAE@PAVioBaseChar@@PBUWeaponAttribute@@@Z:PROC ; ioWeapon::ioWeapon
;	COMDAT xdata$x
; File c:\program files (x86)\microsoft directx sdk (june 2010)\include\d3dx9math.h
xdata$x	SEGMENT
__unwindtable$??0ioRotateReturnWeapon@@QAE@PAVioBaseChar@@PBUWeaponAttribute@@@Z DD 0ffffffffH
	DD	FLAT:__unwindfunclet$??0ioRotateReturnWeapon@@QAE@PAVioBaseChar@@PBUWeaponAttribute@@@Z$0
	DD	00H
	DD	FLAT:__unwindfunclet$??0ioRotateReturnWeapon@@QAE@PAVioBaseChar@@PBUWeaponAttribute@@@Z$1
	DD	01H
	DD	FLAT:__unwindfunclet$??0ioRotateReturnWeapon@@QAE@PAVioBaseChar@@PBUWeaponAttribute@@@Z$2
__ehfuncinfo$??0ioRotateReturnWeapon@@QAE@PAVioBaseChar@@PBUWeaponAttribute@@@Z DD 019930522H
	DD	03H
	DD	FLAT:__unwindtable$??0ioRotateReturnWeapon@@QAE@PAVioBaseChar@@PBUWeaponAttribute@@@Z
	DD	2 DUP(00H)
	DD	2 DUP(00H)
	DD	00H
	DD	01H
; Function compile flags: /Ogsp
; File d:\lost saga for developer\youtube\tutorial\source\src\lsclient\iorotatereturnweapon.cpp
xdata$x	ENDS
;	COMDAT ??0ioRotateReturnWeapon@@QAE@PAVioBaseChar@@PBUWeaponAttribute@@@Z
_TEXT	SEGMENT
_this$ = -16						; size = 4
__$EHRec$ = -12						; size = 12
_pOwner$ = 8						; size = 4
_pAttr$ = 12						; size = 4
??0ioRotateReturnWeapon@@QAE@PAVioBaseChar@@PBUWeaponAttribute@@@Z PROC ; ioRotateReturnWeapon::ioRotateReturnWeapon, COMDAT
; _this$ = ecx

; 15   : {

  00000	6a 04		 push	 4
  00002	b8 00 00 00 00	 mov	 eax, __ehhandler$??0ioRotateReturnWeapon@@QAE@PAVioBaseChar@@PBUWeaponAttribute@@@Z
  00007	e8 00 00 00 00	 call	 __EH_prolog3
  0000c	8b d9		 mov	 ebx, ecx
  0000e	89 5d f0	 mov	 DWORD PTR _this$[ebp], ebx
  00011	ff 75 0c	 push	 DWORD PTR _pAttr$[ebp]
  00014	ff 75 08	 push	 DWORD PTR _pOwner$[ebp]
  00017	e8 00 00 00 00	 call	 ??0ioWeapon@@QAE@PAVioBaseChar@@PBUWeaponAttribute@@@Z ; ioWeapon::ioWeapon
  0001c	33 f6		 xor	 esi, esi
  0001e	8d 8b 98 08 00
	00		 lea	 ecx, DWORD PTR [ebx+2200]
  00024	89 75 fc	 mov	 DWORD PTR __$EHRec$[ebp+8], esi
  00027	c7 03 00 00 00
	00		 mov	 DWORD PTR [ebx], OFFSET ??_7ioRotateReturnWeapon@@6B@
  0002d	ff 15 00 00 00
	00		 call	 DWORD PTR __imp_??0ioOrientBox@@QAE@XZ
  00033	8d 8b 20 09 00
	00		 lea	 ecx, DWORD PTR [ebx+2336]
  00039	c6 45 fc 01	 mov	 BYTE PTR __$EHRec$[ebp+8], 1
  0003d	ff 15 00 00 00
	00		 call	 DWORD PTR __imp_??0ioHashString@@QAE@XZ

; 16   : 	SetPeculiarity( WP_MISSILE_WEAPON | WP_DIVIDE_ACTION );

  00043	68 02 01 00 00	 push	 258			; 00000102H
  00048	8b cb		 mov	 ecx, ebx
  0004a	c6 45 fc 02	 mov	 BYTE PTR __$EHRec$[ebp+8], 2
  0004e	e8 00 00 00 00	 call	 ?SetPeculiarity@ioWeapon@@QAEXK@Z ; ioWeapon::SetPeculiarity

; 17   : 
; 18   : 	m_pFireBall			= NULL;
; 19   : 
; 20   : 	m_State				= WS_INIT;
; 21   : 		
; 22   : 	m_fCurMoveRange		= 0.0f;

  00053	0f 57 c0	 xorps	 xmm0, xmm0
  00056	89 b3 94 08 00
	00		 mov	 DWORD PTR [ebx+2196], esi
  0005c	89 b3 dc 08 00
	00		 mov	 DWORD PTR [ebx+2268], esi
  00062	f3 0f 11 83 fc
	08 00 00	 movss	 DWORD PTR [ebx+2300], xmm0

; 23   : 	m_vMoveDir			= ioMath::VEC3_ZERO;

  0006a	8b 35 00 00 00
	00		 mov	 esi, DWORD PTR __imp_?VEC3_ZERO@ioMath@@2UD3DXVECTOR3@@A
  00070	8d bb 0c 09 00
	00		 lea	 edi, DWORD PTR [ebx+2316]
  00076	a5		 movsd
  00077	a5		 movsd
  00078	a5		 movsd

; 24   : 	m_vStartPos			= ioMath::VEC3_ZERO;

  00079	8b 35 00 00 00
	00		 mov	 esi, DWORD PTR __imp_?VEC3_ZERO@ioMath@@2UD3DXVECTOR3@@A
  0007f	8d bb 00 09 00
	00		 lea	 edi, DWORD PTR [ebx+2304]
  00085	a5		 movsd
  00086	a5		 movsd
  00087	a5		 movsd

; 25   : 
; 26   : 	m_dwCollisionSync	= 0;

  00088	83 a3 1c 09 00
	00 00		 and	 DWORD PTR [ebx+2332], 0

; 27   : }

  0008f	8b c3		 mov	 eax, ebx
  00091	e8 00 00 00 00	 call	 __EH_epilog3
  00096	c2 08 00	 ret	 8
_TEXT	ENDS
;	COMDAT text$x
text$x	SEGMENT
__unwindfunclet$??0ioRotateReturnWeapon@@QAE@PAVioBaseChar@@PBUWeaponAttribute@@@Z$0:
  00000	8b 4d f0	 mov	 ecx, DWORD PTR _this$[ebp]
  00003	e9 00 00 00 00	 jmp	 ??1ioWeapon@@UAE@XZ	; ioWeapon::~ioWeapon
__unwindfunclet$??0ioRotateReturnWeapon@@QAE@PAVioBaseChar@@PBUWeaponAttribute@@@Z$1:
  00008	8b 4d f0	 mov	 ecx, DWORD PTR _this$[ebp]
  0000b	81 c1 98 08 00
	00		 add	 ecx, 2200		; 00000898H
  00011	ff 25 00 00 00
	00		 jmp	 DWORD PTR __imp_??1ioOrientBox@@QAE@XZ
__unwindfunclet$??0ioRotateReturnWeapon@@QAE@PAVioBaseChar@@PBUWeaponAttribute@@@Z$2:
  00017	8b 4d f0	 mov	 ecx, DWORD PTR _this$[ebp]
  0001a	81 c1 20 09 00
	00		 add	 ecx, 2336		; 00000920H
  00020	ff 25 00 00 00
	00		 jmp	 DWORD PTR __imp_??1ioHashString@@QAE@XZ
__ehhandler$??0ioRotateReturnWeapon@@QAE@PAVioBaseChar@@PBUWeaponAttribute@@@Z:
  00026	8b 54 24 08	 mov	 edx, DWORD PTR [esp+8]
  0002a	8d 42 0c	 lea	 eax, DWORD PTR [edx+12]
  0002d	8b 4a ec	 mov	 ecx, DWORD PTR [edx-20]
  00030	33 c8		 xor	 ecx, eax
  00032	e8 00 00 00 00	 call	 @__security_check_cookie@4
  00037	b8 00 00 00 00	 mov	 eax, OFFSET __ehfuncinfo$??0ioRotateReturnWeapon@@QAE@PAVioBaseChar@@PBUWeaponAttribute@@@Z
  0003c	e9 00 00 00 00	 jmp	 ___CxxFrameHandler3
text$x	ENDS
??0ioRotateReturnWeapon@@QAE@PAVioBaseChar@@PBUWeaponAttribute@@@Z ENDP ; ioRotateReturnWeapon::ioRotateReturnWeapon
EXTRN	??3@YAXPAX@Z:PROC				; operator delete
; Function compile flags: /Ogsp
;	COMDAT ??_GioRotateReturnWeapon@@UAEPAXI@Z
_TEXT	SEGMENT
___flags$ = 8						; size = 4
??_GioRotateReturnWeapon@@UAEPAXI@Z PROC		; ioRotateReturnWeapon::`scalar deleting destructor', COMDAT
; _this$ = ecx
  00000	55		 push	 ebp
  00001	8b ec		 mov	 ebp, esp
  00003	56		 push	 esi
  00004	8b f1		 mov	 esi, ecx
  00006	e8 00 00 00 00	 call	 ??1ioRotateReturnWeapon@@UAE@XZ ; ioRotateReturnWeapon::~ioRotateReturnWeapon
  0000b	f6 45 08 01	 test	 BYTE PTR ___flags$[ebp], 1
  0000f	74 07		 je	 SHORT $LN1@scalar
  00011	56		 push	 esi
  00012	e8 00 00 00 00	 call	 ??3@YAXPAX@Z		; operator delete
  00017	59		 pop	 ecx
$LN1@scalar:
  00018	8b c6		 mov	 eax, esi
  0001a	5e		 pop	 esi
  0001b	5d		 pop	 ebp
  0001c	c2 04 00	 ret	 4
??_GioRotateReturnWeapon@@UAEPAXI@Z ENDP		; ioRotateReturnWeapon::`scalar deleting destructor'
_TEXT	ENDS
PUBLIC	_this$GSCopy$
PUBLIC	?CreateFireBall@ioRotateReturnWeapon@@IAE_NABVioHashString@@@Z ; ioRotateReturnWeapon::CreateFireBall
EXTRN	?SetPosition@ioWeapon@@QAEXABUD3DXVECTOR3@@@Z:PROC ; ioWeapon::SetPosition
EXTRN	__imp_??D@YA?AUD3DXVECTOR3@@ABU0@0@Z:PROC
EXTRN	__imp_??D@YA?AUD3DXVECTOR3@@ABUD3DXQUATERNION@@ABU0@@Z:PROC
EXTRN	__imp_?GetBiped@ioEntityGroup@@QAEPAVioBiped@@ABVioHashString@@@Z:PROC
EXTRN	__imp_?GetFirstLinkOffset@ioEffect@@QAE_NAAVioHashString@@AAUD3DXVECTOR3@@AAUD3DXQUATERNION@@@Z:PROC
EXTRN	__imp_?IsEmpty@ioHashString@@QBE_NXZ:PROC
EXTRN	__imp_?GetSkeletonName@ioEffect@@QBE?AVioHashString@@XZ:PROC
EXTRN	__imp_?CreateEffect@ioEffectFactory@@QAEPAVioEffect@@ABVioHashString@@@Z:PROC
EXTRN	?GetOwner@ioWeapon@@QBEPAVioBaseChar@@XZ:PROC	; ioWeapon::GetOwner
EXTRN	__EH_epilog3_GS:PROC
EXTRN	__EH_prolog3_GS:PROC
;	COMDAT xdata$x
; File c:\program files (x86)\microsoft directx sdk (june 2010)\include\d3dx9math.inl
xdata$x	SEGMENT
__unwindtable$?CreateFireBall@ioRotateReturnWeapon@@IAE_NABVioHashString@@@Z DD 0ffffffffH
	DD	FLAT:__unwindfunclet$?CreateFireBall@ioRotateReturnWeapon@@IAE_NABVioHashString@@@Z$0
	DD	00H
	DD	FLAT:__unwindfunclet$?CreateFireBall@ioRotateReturnWeapon@@IAE_NABVioHashString@@@Z$1
__ehfuncinfo$?CreateFireBall@ioRotateReturnWeapon@@IAE_NABVioHashString@@@Z DD 019930522H
	DD	02H
	DD	FLAT:__unwindtable$?CreateFireBall@ioRotateReturnWeapon@@IAE_NABVioHashString@@@Z
	DD	2 DUP(00H)
	DD	2 DUP(00H)
	DD	00H
	DD	01H
; Function compile flags: /Ogsp
; File d:\lost saga for developer\youtube\tutorial\source\src\lsclient\iorotatereturnweapon.cpp
xdata$x	ENDS
;	COMDAT ?CreateFireBall@ioRotateReturnWeapon@@IAE_NABVioHashString@@@Z
_TEXT	SEGMENT
_qtLinkRotOffset$ = -100				; size = 16
_szLinkBiped$ = -84					; size = 16
$T532620 = -68						; size = 4
_this$GSCopy$ = -64					; size = 4
$T532614 = -57						; size = 1
$T532615 = -56						; size = 16
$T530644 = -52						; size = 12
_vLinkPosOffset$ = -40					; size = 12
$T530645 = -28						; size = 12
$T530643 = -28						; size = 12
$T530642 = -28						; size = 12
$T530641 = -28						; size = 12
__$EHRec$ = -12						; size = 12
_szFileName$ = 8					; size = 4
?CreateFireBall@ioRotateReturnWeapon@@IAE_NABVioHashString@@@Z PROC ; ioRotateReturnWeapon::CreateFireBall, COMDAT
; _this$ = ecx

; 80   : {

  00000	6a 58		 push	 88			; 00000058H
  00002	b8 00 00 00 00	 mov	 eax, __ehhandler$?CreateFireBall@ioRotateReturnWeapon@@IAE_NABVioHashString@@@Z
  00007	e8 00 00 00 00	 call	 __EH_prolog3_GS
  0000c	8b 7d 08	 mov	 edi, DWORD PTR _szFileName$[ebp]
  0000f	83 65 bc 00	 and	 DWORD PTR $T532620[ebp], 0
  00013	8b f1		 mov	 esi, ecx

; 99   : 		{
; 100  : 			vLinkPosOffset = pLinked->GetDerivedOrientation() * vLinkPosOffset + pLinked->GetDerivedPosition();

  00015	89 75 c0	 mov	 DWORD PTR _this$GSCopy$[ebp], esi
  00018	e8 00 00 00 00	 call	 ?GetOwner@ioWeapon@@QBEPAVioBaseChar@@XZ ; ioWeapon::GetOwner
  0001d	8b d8		 mov	 ebx, eax
  0001f	85 db		 test	 ebx, ebx
  00021	75 07		 jne	 SHORT $LN4@CreateFire
$LN33@CreateFire:

; 81   : 	ioBaseChar *pOwner = GetOwner();
; 82   : 	if( !pOwner )
; 83   : 		return false;

  00023	32 c0		 xor	 al, al
  00025	e9 fd 01 00 00	 jmp	 $LN5@CreateFire
$LN4@CreateFire:

; 84   : 
; 85   : 	m_pFireBall = g_EffectFactory.CreateEffect( szFileName );

  0002a	57		 push	 edi
  0002b	ff 15 00 00 00
	00		 call	 DWORD PTR __imp_?GetSingleton@ioEffectFactory@@SAAAV1@XZ
  00031	8b c8		 mov	 ecx, eax
  00033	ff 15 00 00 00
	00		 call	 DWORD PTR __imp_?CreateEffect@ioEffectFactory@@QAEPAVioEffect@@ABVioHashString@@@Z
  00039	89 86 94 08 00
	00		 mov	 DWORD PTR [esi+2196], eax

; 86   : 	if( !m_pFireBall )

  0003f	85 c0		 test	 eax, eax

; 87   : 		return false;

  00041	74 e0		 je	 SHORT $LN33@CreateFire

; 88   : 
; 89   : 	GetParentSceneNode()->AttachObject( m_pFireBall );

  00043	8b 4e 04	 mov	 ecx, DWORD PTR [esi+4]
  00046	8b 11		 mov	 edx, DWORD PTR [ecx]
  00048	83 c0 14	 add	 eax, 20			; 00000014H
  0004b	50		 push	 eax
  0004c	ff 92 ac 00 00
	00		 call	 DWORD PTR [edx+172]

; 90   : 
; 91   : 	ioHashString szLinkBiped;

  00052	8d 4d ac	 lea	 ecx, DWORD PTR _szLinkBiped$[ebp]
  00055	ff 15 00 00 00
	00		 call	 DWORD PTR __imp_??0ioHashString@@QAE@XZ

; 92   : 	D3DXVECTOR3 vLinkPosOffset;
; 93   : 	D3DXQUATERNION qtLinkRotOffset;
; 94   : 
; 95   : 	if( m_pFireBall->GetSkeletonName().IsEmpty() && m_pFireBall->GetFirstLinkOffset(szLinkBiped, vLinkPosOffset, qtLinkRotOffset ) )

  0005b	8b 8e 94 08 00
	00		 mov	 ecx, DWORD PTR [esi+2196]
  00061	83 65 fc 00	 and	 DWORD PTR __$EHRec$[ebp+8], 0
  00065	8d 45 c8	 lea	 eax, DWORD PTR $T532615[ebp]
  00068	50		 push	 eax
  00069	ff 15 00 00 00
	00		 call	 DWORD PTR __imp_?GetSkeletonName@ioEffect@@QBE?AVioHashString@@XZ
  0006f	8b c8		 mov	 ecx, eax
  00071	c6 45 fc 01	 mov	 BYTE PTR __$EHRec$[ebp+8], 1
  00075	c7 45 bc 01 00
	00 00		 mov	 DWORD PTR $T532620[ebp], 1
  0007c	ff 15 00 00 00
	00		 call	 DWORD PTR __imp_?IsEmpty@ioHashString@@QBE_NXZ
  00082	84 c0		 test	 al, al
  00084	74 20		 je	 SHORT $LN9@CreateFire
  00086	8b 8e 94 08 00
	00		 mov	 ecx, DWORD PTR [esi+2196]
  0008c	8d 45 9c	 lea	 eax, DWORD PTR _qtLinkRotOffset$[ebp]
  0008f	50		 push	 eax
  00090	8d 45 d8	 lea	 eax, DWORD PTR _vLinkPosOffset$[ebp]
  00093	50		 push	 eax
  00094	8d 45 ac	 lea	 eax, DWORD PTR _szLinkBiped$[ebp]
  00097	50		 push	 eax
  00098	ff 15 00 00 00
	00		 call	 DWORD PTR __imp_?GetFirstLinkOffset@ioEffect@@QAE_NAAVioHashString@@AAUD3DXVECTOR3@@AAUD3DXQUATERNION@@@Z
  0009e	c6 45 c7 01	 mov	 BYTE PTR $T532614[ebp], 1
  000a2	84 c0		 test	 al, al
  000a4	75 04		 jne	 SHORT $LN10@CreateFire
$LN9@CreateFire:
  000a6	c6 45 c7 00	 mov	 BYTE PTR $T532614[ebp], 0
$LN10@CreateFire:
  000aa	83 65 fc 00	 and	 DWORD PTR __$EHRec$[ebp+8], 0
  000ae	8d 4d c8	 lea	 ecx, DWORD PTR $T532615[ebp]
  000b1	ff 15 00 00 00
	00		 call	 DWORD PTR __imp_??1ioHashString@@QAE@XZ
  000b7	80 7d c7 00	 cmp	 BYTE PTR $T532614[ebp], 0
  000bb	0f 84 47 01 00
	00		 je	 $LN1@CreateFire

; 96   : 	{
; 97   : 		ioBiped *pLinked = pOwner->GetGroup()->GetBiped( szLinkBiped );

  000c1	8b 4b 04	 mov	 ecx, DWORD PTR [ebx+4]
  000c4	8d 45 ac	 lea	 eax, DWORD PTR _szLinkBiped$[ebp]
  000c7	50		 push	 eax
  000c8	ff 15 00 00 00
	00		 call	 DWORD PTR __imp_?GetBiped@ioEntityGroup@@QAEPAVioBiped@@ABVioHashString@@@Z
  000ce	8b f8		 mov	 edi, eax

; 98   : 		if( pLinked )

  000d0	85 ff		 test	 edi, edi
  000d2	0f 84 30 01 00
	00		 je	 $LN1@CreateFire

; 99   : 		{
; 100  : 			vLinkPosOffset = pLinked->GetDerivedOrientation() * vLinkPosOffset + pLinked->GetDerivedPosition();

  000d8	8b 07		 mov	 eax, DWORD PTR [edi]
  000da	8b cf		 mov	 ecx, edi
  000dc	ff 50 7c	 call	 DWORD PTR [eax+124]
  000df	8b f0		 mov	 esi, eax
  000e1	8d 45 d8	 lea	 eax, DWORD PTR _vLinkPosOffset$[ebp]
  000e4	50		 push	 eax
  000e5	8b 07		 mov	 eax, DWORD PTR [edi]
  000e7	8b cf		 mov	 ecx, edi
  000e9	ff 50 78	 call	 DWORD PTR [eax+120]
  000ec	50		 push	 eax
  000ed	8d 45 e4	 lea	 eax, DWORD PTR $T530641[ebp]
  000f0	50		 push	 eax
  000f1	ff 15 00 00 00
	00		 call	 DWORD PTR __imp_??D@YA?AUD3DXVECTOR3@@ABUD3DXQUATERNION@@ABU0@@Z
  000f7	f3 0f 10 06	 movss	 xmm0, DWORD PTR [esi]
  000fb	f3 0f 10 08	 movss	 xmm1, DWORD PTR [eax]
  000ff	f3 0f 10 50 04	 movss	 xmm2, DWORD PTR [eax+4]
  00104	f3 0f 10 58 08	 movss	 xmm3, DWORD PTR [eax+8]
  00109	0f 5a c9	 cvtps2pd xmm1, xmm1
  0010c	0f 5a c0	 cvtps2pd xmm0, xmm0
  0010f	f2 0f 58 c1	 addsd	 xmm0, xmm1
  00113	f3 0f 10 4e 04	 movss	 xmm1, DWORD PTR [esi+4]
  00118	0f 5a d2	 cvtps2pd xmm2, xmm2
  0011b	0f 5a c9	 cvtps2pd xmm1, xmm1
  0011e	f2 0f 58 ca	 addsd	 xmm1, xmm2
  00122	f3 0f 10 56 08	 movss	 xmm2, DWORD PTR [esi+8]
  00127	0f 5a d2	 cvtps2pd xmm2, xmm2
  0012a	0f 5a db	 cvtps2pd xmm3, xmm3
  0012d	f2 0f 58 d3	 addsd	 xmm2, xmm3
  00131	66 0f 5a c0	 cvtpd2ps xmm0, xmm0
  00135	f3 0f 11 45 e4	 movss	 DWORD PTR $T530642[ebp], xmm0
  0013a	66 0f 5a c9	 cvtpd2ps xmm1, xmm1
  0013e	f3 0f 11 4d e8	 movss	 DWORD PTR $T530642[ebp+4], xmm1
  00143	66 0f 5a d2	 cvtpd2ps xmm2, xmm2
  00147	f3 0f 11 55 ec	 movss	 DWORD PTR $T530642[ebp+8], xmm2
  0014c	8d 75 e4	 lea	 esi, DWORD PTR $T530642[ebp]
  0014f	8d 7d d8	 lea	 edi, DWORD PTR _vLinkPosOffset$[ebp]
  00152	a5		 movsd
  00153	a5		 movsd
  00154	a5		 movsd

; 101  : 			vLinkPosOffset = vLinkPosOffset * pOwner->GetWorldScale();

  00155	8b 03		 mov	 eax, DWORD PTR [ebx]
  00157	83 c4 0c	 add	 esp, 12			; 0000000cH
  0015a	8b cb		 mov	 ecx, ebx
  0015c	ff 50 78	 call	 DWORD PTR [eax+120]
  0015f	50		 push	 eax
  00160	8d 45 d8	 lea	 eax, DWORD PTR _vLinkPosOffset$[ebp]
  00163	50		 push	 eax
  00164	8d 45 e4	 lea	 eax, DWORD PTR $T530643[ebp]
  00167	50		 push	 eax
  00168	ff 15 00 00 00
	00		 call	 DWORD PTR __imp_??D@YA?AUD3DXVECTOR3@@ABU0@0@Z
  0016e	8b f0		 mov	 esi, eax
  00170	8d 7d d8	 lea	 edi, DWORD PTR _vLinkPosOffset$[ebp]
  00173	a5		 movsd
  00174	a5		 movsd
  00175	a5		 movsd

; 102  : 			vLinkPosOffset = pOwner->GetWorldOrientation() * vLinkPosOffset + pOwner->GetWorldPosition();

  00176	8b 03		 mov	 eax, DWORD PTR [ebx]
  00178	83 c4 0c	 add	 esp, 12			; 0000000cH
  0017b	8b cb		 mov	 ecx, ebx
  0017d	ff 50 70	 call	 DWORD PTR [eax+112]
  00180	8b f0		 mov	 esi, eax
  00182	8d 45 d8	 lea	 eax, DWORD PTR _vLinkPosOffset$[ebp]
  00185	50		 push	 eax
  00186	8b 03		 mov	 eax, DWORD PTR [ebx]
  00188	8b cb		 mov	 ecx, ebx
  0018a	ff 50 74	 call	 DWORD PTR [eax+116]
  0018d	50		 push	 eax
  0018e	8d 45 cc	 lea	 eax, DWORD PTR $T530644[ebp]
  00191	50		 push	 eax
  00192	ff 15 00 00 00
	00		 call	 DWORD PTR __imp_??D@YA?AUD3DXVECTOR3@@ABUD3DXQUATERNION@@ABU0@@Z
  00198	f3 0f 10 06	 movss	 xmm0, DWORD PTR [esi]
  0019c	f3 0f 10 08	 movss	 xmm1, DWORD PTR [eax]
  001a0	f3 0f 10 50 04	 movss	 xmm2, DWORD PTR [eax+4]
  001a5	0f 5a c9	 cvtps2pd xmm1, xmm1
  001a8	0f 5a c0	 cvtps2pd xmm0, xmm0
  001ab	f2 0f 58 c1	 addsd	 xmm0, xmm1
  001af	f3 0f 10 4e 04	 movss	 xmm1, DWORD PTR [esi+4]
  001b4	0f 5a c9	 cvtps2pd xmm1, xmm1
  001b7	0f 5a d2	 cvtps2pd xmm2, xmm2
  001ba	f2 0f 58 ca	 addsd	 xmm1, xmm2
  001be	83 c4 0c	 add	 esp, 12			; 0000000cH
  001c1	66 0f 5a c0	 cvtpd2ps xmm0, xmm0
  001c5	66 0f 5a c9	 cvtpd2ps xmm1, xmm1
  001c9	f3 0f 10 56 08	 movss	 xmm2, DWORD PTR [esi+8]
  001ce	f3 0f 10 58 08	 movss	 xmm3, DWORD PTR [eax+8]

; 103  : 			SetPosition( vLinkPosOffset );

  001d3	8b 4d c0	 mov	 ecx, DWORD PTR _this$GSCopy$[ebp]
  001d6	0f 5a d2	 cvtps2pd xmm2, xmm2
  001d9	0f 5a db	 cvtps2pd xmm3, xmm3
  001dc	f2 0f 58 d3	 addsd	 xmm2, xmm3
  001e0	f3 0f 11 45 e4	 movss	 DWORD PTR $T530645[ebp], xmm0
  001e5	f3 0f 11 4d e8	 movss	 DWORD PTR $T530645[ebp+4], xmm1
  001ea	66 0f 5a d2	 cvtpd2ps xmm2, xmm2
  001ee	f3 0f 11 55 ec	 movss	 DWORD PTR $T530645[ebp+8], xmm2
  001f3	8d 75 e4	 lea	 esi, DWORD PTR $T530645[ebp]
  001f6	8d 7d d8	 lea	 edi, DWORD PTR _vLinkPosOffset$[ebp]
  001f9	a5		 movsd
  001fa	a5		 movsd
  001fb	8d 45 d8	 lea	 eax, DWORD PTR _vLinkPosOffset$[ebp]
  001fe	50		 push	 eax
  001ff	a5		 movsd
  00200	e8 00 00 00 00	 call	 ?SetPosition@ioWeapon@@QAEXABUD3DXVECTOR3@@@Z ; ioWeapon::SetPosition
  00205	8b 75 c0	 mov	 esi, DWORD PTR _this$GSCopy$[ebp]
$LN1@CreateFire:

; 104  : 		}
; 105  : 	}
; 106  : 
; 107  : 	AddEffectEvent( m_pFireBall );

  00208	ff b6 94 08 00
	00		 push	 DWORD PTR [esi+2196]
  0020e	8b 06		 mov	 eax, DWORD PTR [esi]
  00210	8b ce		 mov	 ecx, esi
  00212	ff 90 68 01 00
	00		 call	 DWORD PTR [eax+360]

; 108  : 	return true;

  00218	83 4d fc ff	 or	 DWORD PTR __$EHRec$[ebp+8], -1
  0021c	8d 4d ac	 lea	 ecx, DWORD PTR _szLinkBiped$[ebp]
  0021f	ff 15 00 00 00
	00		 call	 DWORD PTR __imp_??1ioHashString@@QAE@XZ
  00225	b0 01		 mov	 al, 1
$LN5@CreateFire:

; 109  : }

  00227	e8 00 00 00 00	 call	 __EH_epilog3_GS
  0022c	c2 04 00	 ret	 4
_TEXT	ENDS
;	COMDAT text$x
text$x	SEGMENT
__unwindfunclet$?CreateFireBall@ioRotateReturnWeapon@@IAE_NABVioHashString@@@Z$0:
  00000	8d 4d ac	 lea	 ecx, DWORD PTR _szLinkBiped$[ebp]
  00003	ff 25 00 00 00
	00		 jmp	 DWORD PTR __imp_??1ioHashString@@QAE@XZ
__unwindfunclet$?CreateFireBall@ioRotateReturnWeapon@@IAE_NABVioHashString@@@Z$1:
  00009	8b 45 bc	 mov	 eax, DWORD PTR $T532620[ebp]
  0000c	83 e0 01	 and	 eax, 1
  0000f	0f 84 0d 00 00
	00		 je	 $LN13@CreateFire
  00015	83 65 bc fe	 and	 DWORD PTR $T532620[ebp], -2 ; fffffffeH
  00019	8d 4d c8	 lea	 ecx, DWORD PTR $T532615[ebp]
  0001c	ff 25 00 00 00
	00		 jmp	 DWORD PTR __imp_??1ioHashString@@QAE@XZ
$LN13@CreateFire:
  00022	c3		 ret	 0
__ehhandler$?CreateFireBall@ioRotateReturnWeapon@@IAE_NABVioHashString@@@Z:
  00023	8b 54 24 08	 mov	 edx, DWORD PTR [esp+8]
  00027	8d 42 0c	 lea	 eax, DWORD PTR [edx+12]
  0002a	8b 4a 98	 mov	 ecx, DWORD PTR [edx-104]
  0002d	33 c8		 xor	 ecx, eax
  0002f	e8 00 00 00 00	 call	 @__security_check_cookie@4
  00034	8b 4a fc	 mov	 ecx, DWORD PTR [edx-4]
  00037	33 c8		 xor	 ecx, eax
  00039	e8 00 00 00 00	 call	 @__security_check_cookie@4
  0003e	b8 00 00 00 00	 mov	 eax, OFFSET __ehfuncinfo$?CreateFireBall@ioRotateReturnWeapon@@IAE_NABVioHashString@@@Z
  00043	e9 00 00 00 00	 jmp	 ___CxxFrameHandler3
text$x	ENDS
?CreateFireBall@ioRotateReturnWeapon@@IAE_NABVioHashString@@@Z ENDP ; ioRotateReturnWeapon::CreateFireBall
EXTRN	?SetOrientation@ioWeapon@@QAEXABUD3DXQUATERNION@@@Z:PROC ; ioWeapon::SetOrientation
EXTRN	?ConvertDirToQuaternion@Help@@YA?AUD3DXQUATERNION@@ABUD3DXVECTOR3@@@Z:PROC ; Help::ConvertDirToQuaternion
EXTRN	_D3DXVec3Normalize@8:PROC
; Function compile flags: /Ogsp
;	COMDAT ?SetMoveDir@ioRotateReturnWeapon@@UAEXABUD3DXVECTOR3@@@Z
_TEXT	SEGMENT
$T532678 = -32						; size = 16
_qtRot$ = -16						; size = 16
_vDir$ = 8						; size = 4
?SetMoveDir@ioRotateReturnWeapon@@UAEXABUD3DXVECTOR3@@@Z PROC ; ioRotateReturnWeapon::SetMoveDir, COMDAT
; _this$ = ecx

; 168  : {

  00000	55		 push	 ebp
  00001	8b ec		 mov	 ebp, esp
  00003	83 ec 20	 sub	 esp, 32			; 00000020H
  00006	53		 push	 ebx
  00007	56		 push	 esi

; 169  : 	m_vMoveDir = vDir;

  00008	8b 75 08	 mov	 esi, DWORD PTR _vDir$[ebp]
  0000b	57		 push	 edi
  0000c	8b d9		 mov	 ebx, ecx
  0000e	8d 83 0c 09 00
	00		 lea	 eax, DWORD PTR [ebx+2316]
  00014	8b f8		 mov	 edi, eax
  00016	a5		 movsd
  00017	a5		 movsd

; 170  : 	D3DXVec3Normalize( &m_vMoveDir, &m_vMoveDir );

  00018	50		 push	 eax
  00019	50		 push	 eax
  0001a	a5		 movsd
  0001b	e8 00 00 00 00	 call	 _D3DXVec3Normalize@8

; 171  : 
; 172  : 	D3DXQUATERNION qtRot;
; 173  : 	qtRot = Help::ConvertDirToQuaternion( vDir );	

  00020	ff 75 08	 push	 DWORD PTR _vDir$[ebp]
  00023	8d 45 e0	 lea	 eax, DWORD PTR $T532678[ebp]
  00026	50		 push	 eax
  00027	e8 00 00 00 00	 call	 ?ConvertDirToQuaternion@Help@@YA?AUD3DXQUATERNION@@ABUD3DXVECTOR3@@@Z ; Help::ConvertDirToQuaternion
  0002c	8b f0		 mov	 esi, eax
  0002e	8d 7d f0	 lea	 edi, DWORD PTR _qtRot$[ebp]
  00031	a5		 movsd
  00032	a5		 movsd
  00033	59		 pop	 ecx
  00034	a5		 movsd
  00035	59		 pop	 ecx

; 174  : 	SetOrientation( qtRot );

  00036	8d 45 f0	 lea	 eax, DWORD PTR _qtRot$[ebp]
  00039	50		 push	 eax
  0003a	8b cb		 mov	 ecx, ebx
  0003c	a5		 movsd
  0003d	e8 00 00 00 00	 call	 ?SetOrientation@ioWeapon@@QAEXABUD3DXQUATERNION@@@Z ; ioWeapon::SetOrientation
  00042	5f		 pop	 edi
  00043	5e		 pop	 esi
  00044	5b		 pop	 ebx

; 175  : }

  00045	c9		 leave
  00046	c2 04 00	 ret	 4
?SetMoveDir@ioRotateReturnWeapon@@UAEXABUD3DXVECTOR3@@@Z ENDP ; ioRotateReturnWeapon::SetMoveDir
_TEXT	ENDS
PUBLIC	_bMapCollision$GSCopy$
PUBLIC	__$ArrayPad$
EXTRN	??1SP2Packet@@UAE@XZ:PROC			; SP2Packet::~SP2Packet
EXTRN	?SendToAllPlayingUser@P2PNetwork@@YAXAAVSP2Packet@@PAVioBaseChar@@@Z:PROC ; P2PNetwork::SendToAllPlayingUser
EXTRN	??6SP2Packet@@QAEAAV0@E@Z:PROC			; SP2Packet::operator<<
EXTRN	??6SP2Packet@@QAEAAV0@K@Z:PROC			; SP2Packet::operator<<
EXTRN	??6SP2Packet@@QAEAAV0@ABVioHashString@@@Z:PROC	; SP2Packet::operator<<
EXTRN	??0SP2Packet@@QAE@K@Z:PROC			; SP2Packet::SP2Packet
EXTRN	?GetWorldAttackBox@ioWeapon@@QBEABVioOrientBox@@_N@Z:PROC ; ioWeapon::GetWorldAttackBox
EXTRN	___security_cookie:DWORD
EXTRN	__chkstk:PROC
;	COMDAT xdata$x
; File d:\lost saga for developer\youtube\tutorial\source\src\lsclient\ioweapon.h
xdata$x	SEGMENT
__unwindtable$?IsCollision@ioRotateReturnWeapon@@UAE_NPAVioPlayEntity@@_N@Z DD 0ffffffffH
	DD	FLAT:__unwindfunclet$?IsCollision@ioRotateReturnWeapon@@UAE_NPAVioPlayEntity@@_N@Z$0
__ehfuncinfo$?IsCollision@ioRotateReturnWeapon@@UAE_NPAVioPlayEntity@@_N@Z DD 019930522H
	DD	01H
	DD	FLAT:__unwindtable$?IsCollision@ioRotateReturnWeapon@@UAE_NPAVioPlayEntity@@_N@Z
	DD	2 DUP(00H)
	DD	2 DUP(00H)
	DD	00H
	DD	01H
; Function compile flags: /Ogsp
; File d:\lost saga for developer\youtube\tutorial\source\src\lsclient\iorotatereturnweapon.cpp
xdata$x	ENDS
;	COMDAT ?IsCollision@ioRotateReturnWeapon@@UAE_NPAVioPlayEntity@@_N@Z
_TEXT	SEGMENT
_bMapCollision$GSCopy$ = -32825				; size = 1
_bCollision$ = -32821					; size = 1
_kPacket$530790 = -32820				; size = 32792
_vColPoint$ = -28					; size = 12
__$ArrayPad$ = -16					; size = 4
__$EHRec$ = -12						; size = 12
_pEntity$ = 8						; size = 4
_bMapCollision$ = 12					; size = 1
?IsCollision@ioRotateReturnWeapon@@UAE_NPAVioPlayEntity@@_N@Z PROC ; ioRotateReturnWeapon::IsCollision, COMDAT
; _this$ = ecx

; 346  : {

  00000	55		 push	 ebp
  00001	8b ec		 mov	 ebp, esp
  00003	6a ff		 push	 -1
  00005	68 00 00 00 00	 push	 __ehhandler$?IsCollision@ioRotateReturnWeapon@@UAE_NPAVioPlayEntity@@_N@Z
  0000a	64 a1 00 00 00
	00		 mov	 eax, DWORD PTR fs:0
  00010	50		 push	 eax
  00011	b8 30 80 00 00	 mov	 eax, 32816		; 00008030H
  00016	e8 00 00 00 00	 call	 __chkstk
  0001b	a1 00 00 00 00	 mov	 eax, DWORD PTR ___security_cookie
  00020	33 c5		 xor	 eax, ebp
  00022	89 45 f0	 mov	 DWORD PTR __$ArrayPad$[ebp], eax
  00025	53		 push	 ebx
  00026	56		 push	 esi
  00027	57		 push	 edi
  00028	50		 push	 eax
  00029	8d 45 f4	 lea	 eax, DWORD PTR __$EHRec$[ebp]
  0002c	64 a3 00 00 00
	00		 mov	 DWORD PTR fs:0, eax

; 347  : 	bool bCollision = false;
; 348  : 
; 349  : 	D3DXVECTOR3 vColPoint( 0.0f, 0.0f, 0.0f );
; 350  : 	if( pEntity->IsWoundedCollision( GetWorldAttackBox(bMapCollision), &vColPoint ) )

  00032	8a 45 0c	 mov	 al, BYTE PTR _bMapCollision$[ebp]
  00035	0f 57 c0	 xorps	 xmm0, xmm0
  00038	8b 7d 08	 mov	 edi, DWORD PTR _pEntity$[ebp]
  0003b	8b 1f		 mov	 ebx, DWORD PTR [edi]
  0003d	88 85 c7 7f ff
	ff		 mov	 BYTE PTR _bMapCollision$GSCopy$[ebp], al
  00043	8d 45 e4	 lea	 eax, DWORD PTR _vColPoint$[ebp]
  00046	50		 push	 eax
  00047	ff b5 c7 7f ff
	ff		 push	 DWORD PTR _bMapCollision$GSCopy$[ebp]
  0004d	8b f1		 mov	 esi, ecx
  0004f	c6 85 cb 7f ff
	ff 00		 mov	 BYTE PTR _bCollision$[ebp], 0
  00056	f3 0f 11 45 e4	 movss	 DWORD PTR _vColPoint$[ebp], xmm0
  0005b	f3 0f 11 45 e8	 movss	 DWORD PTR _vColPoint$[ebp+4], xmm0
  00060	f3 0f 11 45 ec	 movss	 DWORD PTR _vColPoint$[ebp+8], xmm0
  00065	e8 00 00 00 00	 call	 ?GetWorldAttackBox@ioWeapon@@QBEABVioOrientBox@@_N@Z ; ioWeapon::GetWorldAttackBox
  0006a	50		 push	 eax
  0006b	8b cf		 mov	 ecx, edi
  0006d	ff 93 90 00 00
	00		 call	 DWORD PTR [ebx+144]
  00073	84 c0		 test	 al, al
  00075	74 07		 je	 SHORT $LN3@IsCollisio

; 351  : 		bCollision = true;

  00077	c6 85 cb 7f ff
	ff 01		 mov	 BYTE PTR _bCollision$[ebp], 1
$LN3@IsCollisio:

; 352  : 
; 353  : 	ioBaseChar* pTarget = ToBaseChar( pEntity );

  0007e	57		 push	 edi
  0007f	e8 00 00 00 00	 call	 ?ToBaseChar@@YAPAVioBaseChar@@PAVioGameEntity@@@Z ; ToBaseChar

; 354  : 	if( bCollision && pTarget && pTarget->IsNeedProcess() )

  00084	80 bd cb 7f ff
	ff 00		 cmp	 BYTE PTR _bCollision$[ebp], 0
  0008b	59		 pop	 ecx
  0008c	8b f8		 mov	 edi, eax
  0008e	0f 84 cc 00 00
	00		 je	 $LN1@IsCollisio
  00094	33 db		 xor	 ebx, ebx
  00096	3b fb		 cmp	 edi, ebx
  00098	0f 84 c2 00 00
	00		 je	 $LN1@IsCollisio
  0009e	8b 07		 mov	 eax, DWORD PTR [edi]
  000a0	8b cf		 mov	 ecx, edi
  000a2	ff 90 00 01 00
	00		 call	 DWORD PTR [eax+256]
  000a8	84 c0		 test	 al, al
  000aa	0f 84 b0 00 00
	00		 je	 $LN1@IsCollisio

; 355  : 	{
; 356  : 		if( pTarget->IsNeedSendNetwork() && !m_bDisableCollisionReturn && m_dwCollisionSync == 0 )

  000b0	8b 07		 mov	 eax, DWORD PTR [edi]
  000b2	8b cf		 mov	 ecx, edi
  000b4	ff 90 04 01 00
	00		 call	 DWORD PTR [eax+260]
  000ba	84 c0		 test	 al, al
  000bc	0f 84 9e 00 00
	00		 je	 $LN1@IsCollisio
  000c2	38 9e 18 09 00
	00		 cmp	 BYTE PTR [esi+2328], bl
  000c8	0f 85 92 00 00
	00		 jne	 $LN1@IsCollisio
  000ce	39 9e 1c 09 00
	00		 cmp	 DWORD PTR [esi+2332], ebx
  000d4	0f 85 86 00 00
	00		 jne	 $LN1@IsCollisio

; 357  : 		{
; 358  : 			m_State				= WS_RETURN;
; 359  : 			m_fCurMoveRange		= 0.0f;

  000da	0f 57 c0	 xorps	 xmm0, xmm0
  000dd	c7 86 dc 08 00
	00 02 00 00 00	 mov	 DWORD PTR [esi+2268], 2
  000e7	f3 0f 11 86 fc
	08 00 00	 movss	 DWORD PTR [esi+2300], xmm0

; 360  : 			m_dwCollisionSync	= FRAMEGETTIME();

  000ef	ff 15 00 00 00
	00		 call	 DWORD PTR __imp_?GetSingleton@ioFrameTimer@@SAAAV1@XZ
  000f5	8b c8		 mov	 ecx, eax
  000f7	ff 15 00 00 00
	00		 call	 DWORD PTR __imp_?GetLoopSec@ioFrameTimer@@QBEKXZ

; 361  : 
; 362  : 			SP2Packet kPacket( CUPK_WEAPON_SYNC );

  000fd	68 16 42 00 00	 push	 16918			; 00004216H
  00102	8d 8d cc 7f ff
	ff		 lea	 ecx, DWORD PTR _kPacket$530790[ebp]
  00108	89 86 1c 09 00
	00		 mov	 DWORD PTR [esi+2332], eax
  0010e	e8 00 00 00 00	 call	 ??0SP2Packet@@QAE@K@Z	; SP2Packet::SP2Packet

; 363  : 			kPacket << GetOwnerName();

  00113	8d 46 10	 lea	 eax, DWORD PTR [esi+16]
  00116	50		 push	 eax
  00117	8d 8d cc 7f ff
	ff		 lea	 ecx, DWORD PTR _kPacket$530790[ebp]
  0011d	89 5d fc	 mov	 DWORD PTR __$EHRec$[ebp+8], ebx
  00120	e8 00 00 00 00	 call	 ??6SP2Packet@@QAEAAV0@ABVioHashString@@@Z ; SP2Packet::operator<<

; 364  : 			kPacket << m_dwWeaponIdx;

  00125	ff b6 b8 04 00
	00		 push	 DWORD PTR [esi+1208]
  0012b	8d 8d cc 7f ff
	ff		 lea	 ecx, DWORD PTR _kPacket$530790[ebp]
  00131	e8 00 00 00 00	 call	 ??6SP2Packet@@QAEAAV0@K@Z ; SP2Packet::operator<<

; 365  : 			kPacket << (byte)WSS_RETURN;

  00136	53		 push	 ebx
  00137	8d 8d cc 7f ff
	ff		 lea	 ecx, DWORD PTR _kPacket$530790[ebp]
  0013d	e8 00 00 00 00	 call	 ??6SP2Packet@@QAEAAV0@E@Z ; SP2Packet::operator<<

; 366  : 			P2PNetwork::SendToAllPlayingUser( kPacket );

  00142	8d 85 cc 7f ff
	ff		 lea	 eax, DWORD PTR _kPacket$530790[ebp]
  00148	53		 push	 ebx
  00149	50		 push	 eax
  0014a	e8 00 00 00 00	 call	 ?SendToAllPlayingUser@P2PNetwork@@YAXAAVSP2Packet@@PAVioBaseChar@@@Z ; P2PNetwork::SendToAllPlayingUser

; 367  : 		}

  0014f	83 4d fc ff	 or	 DWORD PTR __$EHRec$[ebp+8], -1
  00153	59		 pop	 ecx
  00154	59		 pop	 ecx
  00155	8d 8d cc 7f ff
	ff		 lea	 ecx, DWORD PTR _kPacket$530790[ebp]
  0015b	e8 00 00 00 00	 call	 ??1SP2Packet@@UAE@XZ	; SP2Packet::~SP2Packet
$LN1@IsCollisio:

; 368  : 	}
; 369  : 
; 370  : 	return bCollision;

  00160	8a 85 cb 7f ff
	ff		 mov	 al, BYTE PTR _bCollision$[ebp]

; 371  : }

  00166	8b 4d f4	 mov	 ecx, DWORD PTR __$EHRec$[ebp]
  00169	64 89 0d 00 00
	00 00		 mov	 DWORD PTR fs:0, ecx
  00170	59		 pop	 ecx
  00171	5f		 pop	 edi
  00172	5e		 pop	 esi
  00173	5b		 pop	 ebx
  00174	8b 4d f0	 mov	 ecx, DWORD PTR __$ArrayPad$[ebp]
  00177	33 cd		 xor	 ecx, ebp
  00179	e8 00 00 00 00	 call	 @__security_check_cookie@4
  0017e	c9		 leave
  0017f	c2 08 00	 ret	 8
_TEXT	ENDS
;	COMDAT text$x
text$x	SEGMENT
__unwindfunclet$?IsCollision@ioRotateReturnWeapon@@UAE_NPAVioPlayEntity@@_N@Z$0:
  00000	8d 8d cc 7f ff
	ff		 lea	 ecx, DWORD PTR _kPacket$530790[ebp]
  00006	e9 00 00 00 00	 jmp	 ??1SP2Packet@@UAE@XZ	; SP2Packet::~SP2Packet
__ehhandler$?IsCollision@ioRotateReturnWeapon@@UAE_NPAVioPlayEntity@@_N@Z:
  0000b	8b 54 24 08	 mov	 edx, DWORD PTR [esp+8]
  0000f	8d 42 0c	 lea	 eax, DWORD PTR [edx+12]
  00012	8b 8a c0 7f ff
	ff		 mov	 ecx, DWORD PTR [edx-32832]
  00018	33 c8		 xor	 ecx, eax
  0001a	e8 00 00 00 00	 call	 @__security_check_cookie@4
  0001f	8b 4a fc	 mov	 ecx, DWORD PTR [edx-4]
  00022	33 c8		 xor	 ecx, eax
  00024	e8 00 00 00 00	 call	 @__security_check_cookie@4
  00029	b8 00 00 00 00	 mov	 eax, OFFSET __ehfuncinfo$?IsCollision@ioRotateReturnWeapon@@UAE_NPAVioPlayEntity@@_N@Z
  0002e	e9 00 00 00 00	 jmp	 ___CxxFrameHandler3
text$x	ENDS
?IsCollision@ioRotateReturnWeapon@@UAE_NPAVioPlayEntity@@_N@Z ENDP ; ioRotateReturnWeapon::IsCollision
PUBLIC	?CheckCollisionLine@ioRotateReturnWeapon@@QAE_NPAVioPlayEntity@@ABUD3DXVECTOR3@@@Z ; ioRotateReturnWeapon::CheckCollisionLine
EXTRN	?CheckCollisionLine@ioBaseChar@@QAE_NABUD3DXVECTOR3@@0_N@Z:PROC ; ioBaseChar::CheckCollisionLine
EXTRN	?GetPiercingType@ioWeapon@@QBE?AW4CharPiercingType@@XZ:PROC ; ioWeapon::GetPiercingType
; Function compile flags: /Ogsp
;	COMDAT ?CheckCollisionLine@ioRotateReturnWeapon@@QAE_NPAVioPlayEntity@@ABUD3DXVECTOR3@@@Z
_TEXT	SEGMENT
_pTarget$ = 8						; size = 4
_vColPoint$ = 12					; size = 4
?CheckCollisionLine@ioRotateReturnWeapon@@QAE_NPAVioPlayEntity@@ABUD3DXVECTOR3@@@Z PROC ; ioRotateReturnWeapon::CheckCollisionLine, COMDAT
; _this$ = ecx

; 374  : {

  00000	55		 push	 ebp
  00001	8b ec		 mov	 ebp, esp
  00003	56		 push	 esi
  00004	8b f1		 mov	 esi, ecx

; 375  : 	if( GetPiercingType() == CPT_ALL || GetPiercingType() == CPT_ALL_LIMITE )

  00006	e8 00 00 00 00	 call	 ?GetPiercingType@ioWeapon@@QBE?AW4CharPiercingType@@XZ ; ioWeapon::GetPiercingType
  0000b	83 f8 03	 cmp	 eax, 3
  0000e	74 3d		 je	 SHORT $LN3@CheckColli
  00010	8b ce		 mov	 ecx, esi
  00012	e8 00 00 00 00	 call	 ?GetPiercingType@ioWeapon@@QBE?AW4CharPiercingType@@XZ ; ioWeapon::GetPiercingType
  00017	83 f8 04	 cmp	 eax, 4
  0001a	74 31		 je	 SHORT $LN3@CheckColli

; 377  : 
; 378  : 	//     
; 379  : 	ioBaseChar *pTargetChar = ToBaseChar( pTarget );

  0001c	ff 75 08	 push	 DWORD PTR _pTarget$[ebp]
  0001f	e8 00 00 00 00	 call	 ?ToBaseChar@@YAPAVioBaseChar@@PAVioGameEntity@@@Z ; ToBaseChar
  00024	59		 pop	 ecx

; 380  : 	if( !pTargetChar )

  00025	85 c0		 test	 eax, eax

; 381  : 		return true;

  00027	74 24		 je	 SHORT $LN3@CheckColli

; 382  : 
; 383  : 	ioBaseChar *pOwner = GetOwner();

  00029	8b ce		 mov	 ecx, esi
  0002b	e8 00 00 00 00	 call	 ?GetOwner@ioWeapon@@QBEPAVioBaseChar@@XZ ; ioWeapon::GetOwner

; 384  : 	if( pOwner )

  00030	85 c0		 test	 eax, eax
  00032	74 15		 je	 SHORT $LN1@CheckColli

; 385  : 		return pOwner->CheckCollisionLine( m_vStartPos, vColPoint );

  00034	6a 01		 push	 1
  00036	ff 75 0c	 push	 DWORD PTR _vColPoint$[ebp]
  00039	81 c6 00 09 00
	00		 add	 esi, 2304		; 00000900H
  0003f	56		 push	 esi
  00040	8b c8		 mov	 ecx, eax
  00042	e8 00 00 00 00	 call	 ?CheckCollisionLine@ioBaseChar@@QAE_NABUD3DXVECTOR3@@0_N@Z ; ioBaseChar::CheckCollisionLine
  00047	eb 06		 jmp	 SHORT $LN5@CheckColli
$LN1@CheckColli:

; 386  : 
; 387  : 	return false;	//     

  00049	32 c0		 xor	 al, al
  0004b	eb 02		 jmp	 SHORT $LN5@CheckColli
$LN3@CheckColli:

; 376  : 		return true;

  0004d	b0 01		 mov	 al, 1
$LN5@CheckColli:
  0004f	5e		 pop	 esi

; 388  : }

  00050	5d		 pop	 ebp
  00051	c2 08 00	 ret	 8
?CheckCollisionLine@ioRotateReturnWeapon@@QAE_NPAVioPlayEntity@@ABUD3DXVECTOR3@@@Z ENDP ; ioRotateReturnWeapon::CheckCollisionLine
_TEXT	ENDS
PUBLIC	__$ArrayPad$
PUBLIC	??$LoadString_e@$0L@@ioINILoader@@QAEXAAY0L@$$CBDAAY00$$CBDPADH@Z ; ioINILoader::LoadString_e<11>
EXTRN	__imp_?LoadStringA@ioINILoader@@QAEXPBD0PADH@Z:PROC
; Function compile flags: /Ogsp
; File d:\lost saga for developer\youtube\tutorial\source\src\io3dengine\ioiniloader.h
;	COMDAT ??$LoadString_e@$0L@@ioINILoader@@QAEXAAY0L@$$CBDAAY00$$CBDPADH@Z
_TEXT	SEGMENT
__k$ = -20						; size = 11
__$ArrayPad$ = -4					; size = 4
_k$ = 8							; size = 4
_d$ = 12						; size = 4
_b$ = 16						; size = 4
_i$ = 20						; size = 4
??$LoadString_e@$0L@@ioINILoader@@QAEXAAY0L@$$CBDAAY00$$CBDPADH@Z PROC ; ioINILoader::LoadString_e<11>, COMDAT
; _this$ = ecx

; 161  : 	{

  00000	55		 push	 ebp
  00001	8b ec		 mov	 ebp, esp
  00003	83 ec 14	 sub	 esp, 20			; 00000014H
  00006	a1 00 00 00 00	 mov	 eax, DWORD PTR ___security_cookie
  0000b	33 c5		 xor	 eax, ebp
  0000d	89 45 fc	 mov	 DWORD PTR __$ArrayPad$[ebp], eax
  00010	8b 45 08	 mov	 eax, DWORD PTR _k$[ebp]

; 162  : 		_ENCSTR(k, _k);

  00013	8a 10		 mov	 dl, BYTE PTR [eax]
  00015	53		 push	 ebx
  00016	56		 push	 esi
  00017	8b 75 0c	 mov	 esi, DWORD PTR _d$[ebp]
  0001a	57		 push	 edi
  0001b	8b 7d 10	 mov	 edi, DWORD PTR _b$[ebp]
  0001e	84 d2		 test	 dl, dl
  00020	0f 84 1b 01 00
	00		 je	 $LN96@LoadString
  00026	80 f2 ed	 xor	 dl, -19			; ffffffedH
  00029	88 55 ec	 mov	 BYTE PTR __k$[ebp], dl
  0002c	8a 50 01	 mov	 dl, BYTE PTR [eax+1]
  0002f	84 d2		 test	 dl, dl
  00031	0f 84 04 01 00
	00		 je	 $LN95@LoadString
  00037	b3 ec		 mov	 bl, -20			; ffffffecH
  00039	32 d3		 xor	 dl, bl
  0003b	88 55 ed	 mov	 BYTE PTR __k$[ebp+1], dl
  0003e	8a 50 02	 mov	 dl, BYTE PTR [eax+2]
  00041	84 d2		 test	 dl, dl
  00043	0f 84 ec 00 00
	00		 je	 $LN94@LoadString
  00049	80 f2 eb	 xor	 dl, -21			; ffffffebH
  0004c	88 55 ee	 mov	 BYTE PTR __k$[ebp+2], dl
  0004f	8a 50 03	 mov	 dl, BYTE PTR [eax+3]
  00052	84 d2		 test	 dl, dl
  00054	0f 84 d5 00 00
	00		 je	 $LN93@LoadString
  0005a	80 f2 ea	 xor	 dl, -22			; ffffffeaH
  0005d	88 55 ef	 mov	 BYTE PTR __k$[ebp+3], dl
  00060	8a 50 04	 mov	 dl, BYTE PTR [eax+4]
  00063	84 d2		 test	 dl, dl
  00065	0f 84 be 00 00
	00		 je	 $LN92@LoadString
  0006b	80 f2 ed	 xor	 dl, -19			; ffffffedH
  0006e	88 55 f0	 mov	 BYTE PTR __k$[ebp+4], dl
  00071	8a 50 05	 mov	 dl, BYTE PTR [eax+5]
  00074	84 d2		 test	 dl, dl
  00076	0f 84 a8 00 00
	00		 je	 $LN91@LoadString
  0007c	32 d3		 xor	 dl, bl
  0007e	88 55 f1	 mov	 BYTE PTR __k$[ebp+5], dl
  00081	8a 50 06	 mov	 dl, BYTE PTR [eax+6]
  00084	84 d2		 test	 dl, dl
  00086	0f 84 92 00 00
	00		 je	 $LN90@LoadString
  0008c	80 f2 eb	 xor	 dl, -21			; ffffffebH
  0008f	88 55 f2	 mov	 BYTE PTR __k$[ebp+6], dl
  00092	8a 50 07	 mov	 dl, BYTE PTR [eax+7]
  00095	84 d2		 test	 dl, dl
  00097	74 7f		 je	 SHORT $LN89@LoadString
  00099	80 f2 ea	 xor	 dl, -22			; ffffffeaH
  0009c	88 55 f3	 mov	 BYTE PTR __k$[ebp+7], dl
  0009f	8a 50 08	 mov	 dl, BYTE PTR [eax+8]
  000a2	84 d2		 test	 dl, dl
  000a4	74 6c		 je	 SHORT $LN88@LoadString
  000a6	80 f2 ed	 xor	 dl, -19			; ffffffedH
  000a9	88 55 f4	 mov	 BYTE PTR __k$[ebp+8], dl
  000ac	8a 50 09	 mov	 dl, BYTE PTR [eax+9]
  000af	84 d2		 test	 dl, dl
  000b1	74 5a		 je	 SHORT $LN87@LoadString
  000b3	32 d3		 xor	 dl, bl
  000b5	80 78 0a 00	 cmp	 BYTE PTR [eax+10], 0
  000b9	88 55 f5	 mov	 BYTE PTR __k$[ebp+9], dl
  000bc	0f 84 83 00 00
	00		 je	 $LN1@LoadString
  000c2	8a 50 0b	 mov	 dl, BYTE PTR [eax+11]
  000c5	84 d2		 test	 dl, dl
  000c7	74 3e		 je	 SHORT $LN85@LoadString
  000c9	80 f2 ea	 xor	 dl, -22			; ffffffeaH
  000cc	88 55 f7	 mov	 BYTE PTR __k$[ebp+11], dl
  000cf	8a 50 0c	 mov	 dl, BYTE PTR [eax+12]
  000d2	84 d2		 test	 dl, dl
  000d4	74 2b		 je	 SHORT $LN84@LoadString
  000d6	80 f2 ed	 xor	 dl, -19			; ffffffedH
  000d9	88 55 f8	 mov	 BYTE PTR __k$[ebp+12], dl
  000dc	8a 50 0d	 mov	 dl, BYTE PTR [eax+13]
  000df	84 d2		 test	 dl, dl
  000e1	74 19		 je	 SHORT $LN83@LoadString
  000e3	8a 40 0e	 mov	 al, BYTE PTR [eax+14]
  000e6	32 d3		 xor	 dl, bl
  000e8	88 55 f9	 mov	 BYTE PTR __k$[ebp+13], dl
  000eb	84 c0		 test	 al, al
  000ed	74 07		 je	 SHORT $LN82@LoadString
  000ef	34 eb		 xor	 al, -21			; ffffffebH
  000f1	88 45 fa	 mov	 BYTE PTR __k$[ebp+14], al
  000f4	eb 4f		 jmp	 SHORT $LN1@LoadString
$LN82@LoadString:
  000f6	c6 45 fa eb	 mov	 BYTE PTR __k$[ebp+14], -21 ; ffffffebH
  000fa	eb 49		 jmp	 SHORT $LN1@LoadString
$LN83@LoadString:
  000fc	88 5d f9	 mov	 BYTE PTR __k$[ebp+13], bl
  000ff	eb 44		 jmp	 SHORT $LN1@LoadString
$LN84@LoadString:
  00101	c6 45 f8 ed	 mov	 BYTE PTR __k$[ebp+12], -19 ; ffffffedH
  00105	eb 3e		 jmp	 SHORT $LN1@LoadString
$LN85@LoadString:
  00107	c6 45 f7 ea	 mov	 BYTE PTR __k$[ebp+11], -22 ; ffffffeaH
  0010b	eb 38		 jmp	 SHORT $LN1@LoadString
$LN87@LoadString:
  0010d	88 5d f5	 mov	 BYTE PTR __k$[ebp+9], bl
  00110	eb 33		 jmp	 SHORT $LN1@LoadString
$LN88@LoadString:
  00112	c6 45 f4 ed	 mov	 BYTE PTR __k$[ebp+8], -19 ; ffffffedH
  00116	eb 2d		 jmp	 SHORT $LN1@LoadString
$LN89@LoadString:
  00118	c6 45 f3 ea	 mov	 BYTE PTR __k$[ebp+7], -22 ; ffffffeaH
  0011c	eb 27		 jmp	 SHORT $LN1@LoadString
$LN90@LoadString:
  0011e	c6 45 f2 eb	 mov	 BYTE PTR __k$[ebp+6], -21 ; ffffffebH
  00122	eb 21		 jmp	 SHORT $LN1@LoadString
$LN91@LoadString:
  00124	88 5d f1	 mov	 BYTE PTR __k$[ebp+5], bl
  00127	eb 1c		 jmp	 SHORT $LN1@LoadString
$LN92@LoadString:
  00129	c6 45 f0 ed	 mov	 BYTE PTR __k$[ebp+4], -19 ; ffffffedH
  0012d	eb 16		 jmp	 SHORT $LN1@LoadString
$LN93@LoadString:
  0012f	c6 45 ef ea	 mov	 BYTE PTR __k$[ebp+3], -22 ; ffffffeaH
  00133	eb 10		 jmp	 SHORT $LN1@LoadString
$LN94@LoadString:
  00135	c6 45 ee eb	 mov	 BYTE PTR __k$[ebp+2], -21 ; ffffffebH
  00139	eb 0a		 jmp	 SHORT $LN1@LoadString
$LN95@LoadString:
  0013b	c6 45 ed ec	 mov	 BYTE PTR __k$[ebp+1], -20 ; ffffffecH
  0013f	eb 04		 jmp	 SHORT $LN1@LoadString
$LN96@LoadString:
  00141	c6 45 ec ed	 mov	 BYTE PTR __k$[ebp], -19	; ffffffedH
$LN1@LoadString:
  00145	6a 02		 push	 2
  00147	8d 45 ec	 lea	 eax, DWORD PTR __k$[ebp]
  0014a	c6 45 f6 00	 mov	 BYTE PTR __k$[ebp+10], 0
  0014e	5a		 pop	 edx
$LL104@LoadString:
  0014f	81 30 ed ec eb
	ea		 xor	 DWORD PTR [eax], -353637139 ; eaebecedH
  00155	83 c0 04	 add	 eax, 4
  00158	4a		 dec	 edx
  00159	75 f4		 jne	 SHORT $LL104@LoadString
  0015b	6a 08		 push	 8
  0015d	58		 pop	 eax
$LL101@LoadString:
  0015e	8b d0		 mov	 edx, eax
  00160	81 e2 03 00 00
	80		 and	 edx, -2147483645	; 80000003H
  00166	79 05		 jns	 SHORT $LN111@LoadString
  00168	4a		 dec	 edx
  00169	83 ca fc	 or	 edx, -4			; fffffffcH
  0016c	42		 inc	 edx
$LN111@LoadString:
  0016d	b3 ed		 mov	 bl, -19			; ffffffedH
  0016f	2a da		 sub	 bl, dl
  00171	30 5c 05 ec	 xor	 BYTE PTR __k$[ebp+eax], bl
  00175	40		 inc	 eax
  00176	83 f8 0a	 cmp	 eax, 10			; 0000000aH
  00179	7c e3		 jl	 SHORT $LL101@LoadString

; 163  : 		LoadString(_k, d, b, i);

  0017b	ff 75 14	 push	 DWORD PTR _i$[ebp]
  0017e	8d 45 ec	 lea	 eax, DWORD PTR __k$[ebp]
  00181	57		 push	 edi
  00182	56		 push	 esi
  00183	50		 push	 eax
  00184	ff 15 00 00 00
	00		 call	 DWORD PTR __imp_?LoadStringA@ioINILoader@@QAEXPBD0PADH@Z

; 164  : 	}

  0018a	8b 4d fc	 mov	 ecx, DWORD PTR __$ArrayPad$[ebp]
  0018d	5f		 pop	 edi
  0018e	5e		 pop	 esi
  0018f	33 cd		 xor	 ecx, ebp
  00191	5b		 pop	 ebx
  00192	e8 00 00 00 00	 call	 @__security_check_cookie@4
  00197	c9		 leave
  00198	c2 10 00	 ret	 16			; 00000010H
??$LoadString_e@$0L@@ioINILoader@@QAEXAAY0L@$$CBDAAY00$$CBDPADH@Z ENDP ; ioINILoader::LoadString_e<11>
_TEXT	ENDS
PUBLIC	__$ArrayPad$
PUBLIC	??$LoadInt_e@$09@ioINILoader@@QAEHAAY09$$CBDH@Z	; ioINILoader::LoadInt_e<10>
EXTRN	__imp_?LoadInt@ioINILoader@@QAEHPBDH@Z:PROC
; Function compile flags: /Ogsp
;	COMDAT ??$LoadInt_e@$09@ioINILoader@@QAEHAAY09$$CBDH@Z
_TEXT	SEGMENT
__k$ = -20						; size = 10
__$ArrayPad$ = -4					; size = 4
_k$ = 8							; size = 4
_i$ = 12						; size = 4
??$LoadInt_e@$09@ioINILoader@@QAEHAAY09$$CBDH@Z PROC	; ioINILoader::LoadInt_e<10>, COMDAT
; _this$ = ecx

; 118  : 	{

  00000	55		 push	 ebp
  00001	8b ec		 mov	 ebp, esp
  00003	83 ec 14	 sub	 esp, 20			; 00000014H
  00006	a1 00 00 00 00	 mov	 eax, DWORD PTR ___security_cookie
  0000b	33 c5		 xor	 eax, ebp
  0000d	89 45 fc	 mov	 DWORD PTR __$ArrayPad$[ebp], eax
  00010	8b 45 08	 mov	 eax, DWORD PTR _k$[ebp]

; 119  : 		_ENCSTR(k, _k);

  00013	8a 10		 mov	 dl, BYTE PTR [eax]
  00015	84 d2		 test	 dl, dl
  00017	0f 84 0d 01 00
	00		 je	 $LN96@LoadInt_e
  0001d	80 f2 ed	 xor	 dl, -19			; ffffffedH
  00020	88 55 ec	 mov	 BYTE PTR __k$[ebp], dl
  00023	8a 50 01	 mov	 dl, BYTE PTR [eax+1]
  00026	84 d2		 test	 dl, dl
  00028	0f 84 f6 00 00
	00		 je	 $LN95@LoadInt_e
  0002e	80 f2 ec	 xor	 dl, -20			; ffffffecH
  00031	88 55 ed	 mov	 BYTE PTR __k$[ebp+1], dl
  00034	8a 50 02	 mov	 dl, BYTE PTR [eax+2]
  00037	84 d2		 test	 dl, dl
  00039	0f 84 df 00 00
	00		 je	 $LN94@LoadInt_e
  0003f	80 f2 eb	 xor	 dl, -21			; ffffffebH
  00042	88 55 ee	 mov	 BYTE PTR __k$[ebp+2], dl
  00045	8a 50 03	 mov	 dl, BYTE PTR [eax+3]
  00048	84 d2		 test	 dl, dl
  0004a	0f 84 c8 00 00
	00		 je	 $LN93@LoadInt_e
  00050	80 f2 ea	 xor	 dl, -22			; ffffffeaH
  00053	88 55 ef	 mov	 BYTE PTR __k$[ebp+3], dl
  00056	8a 50 04	 mov	 dl, BYTE PTR [eax+4]
  00059	84 d2		 test	 dl, dl
  0005b	0f 84 b1 00 00
	00		 je	 $LN92@LoadInt_e
  00061	80 f2 ed	 xor	 dl, -19			; ffffffedH
  00064	88 55 f0	 mov	 BYTE PTR __k$[ebp+4], dl
  00067	8a 50 05	 mov	 dl, BYTE PTR [eax+5]
  0006a	84 d2		 test	 dl, dl
  0006c	0f 84 9a 00 00
	00		 je	 $LN91@LoadInt_e
  00072	80 f2 ec	 xor	 dl, -20			; ffffffecH
  00075	88 55 f1	 mov	 BYTE PTR __k$[ebp+5], dl
  00078	8a 50 06	 mov	 dl, BYTE PTR [eax+6]
  0007b	84 d2		 test	 dl, dl
  0007d	0f 84 83 00 00
	00		 je	 $LN90@LoadInt_e
  00083	80 f2 eb	 xor	 dl, -21			; ffffffebH
  00086	88 55 f2	 mov	 BYTE PTR __k$[ebp+6], dl
  00089	8a 50 07	 mov	 dl, BYTE PTR [eax+7]
  0008c	84 d2		 test	 dl, dl
  0008e	74 70		 je	 SHORT $LN89@LoadInt_e
  00090	80 f2 ea	 xor	 dl, -22			; ffffffeaH
  00093	88 55 f3	 mov	 BYTE PTR __k$[ebp+7], dl
  00096	8a 50 08	 mov	 dl, BYTE PTR [eax+8]
  00099	84 d2		 test	 dl, dl
  0009b	74 5d		 je	 SHORT $LN88@LoadInt_e
  0009d	80 f2 ed	 xor	 dl, -19			; ffffffedH
  000a0	80 78 09 00	 cmp	 BYTE PTR [eax+9], 0
  000a4	88 55 f4	 mov	 BYTE PTR __k$[ebp+8], dl
  000a7	0f 84 81 00 00
	00		 je	 $LN1@LoadInt_e
  000ad	8a 50 0a	 mov	 dl, BYTE PTR [eax+10]
  000b0	84 d2		 test	 dl, dl
  000b2	74 40		 je	 SHORT $LN86@LoadInt_e
  000b4	80 f2 eb	 xor	 dl, -21			; ffffffebH
  000b7	88 55 f6	 mov	 BYTE PTR __k$[ebp+10], dl
  000ba	8a 50 0b	 mov	 dl, BYTE PTR [eax+11]
  000bd	84 d2		 test	 dl, dl
  000bf	74 2d		 je	 SHORT $LN85@LoadInt_e
  000c1	80 f2 ea	 xor	 dl, -22			; ffffffeaH
  000c4	88 55 f7	 mov	 BYTE PTR __k$[ebp+11], dl
  000c7	8a 50 0c	 mov	 dl, BYTE PTR [eax+12]
  000ca	84 d2		 test	 dl, dl
  000cc	74 1a		 je	 SHORT $LN84@LoadInt_e
  000ce	8a 40 0d	 mov	 al, BYTE PTR [eax+13]
  000d1	80 f2 ed	 xor	 dl, -19			; ffffffedH
  000d4	88 55 f8	 mov	 BYTE PTR __k$[ebp+12], dl
  000d7	84 c0		 test	 al, al
  000d9	74 07		 je	 SHORT $LN83@LoadInt_e
  000db	34 ec		 xor	 al, -20			; ffffffecH
  000dd	88 45 f9	 mov	 BYTE PTR __k$[ebp+13], al
  000e0	eb 4c		 jmp	 SHORT $LN1@LoadInt_e
$LN83@LoadInt_e:
  000e2	c6 45 f9 ec	 mov	 BYTE PTR __k$[ebp+13], -20 ; ffffffecH
  000e6	eb 46		 jmp	 SHORT $LN1@LoadInt_e
$LN84@LoadInt_e:
  000e8	c6 45 f8 ed	 mov	 BYTE PTR __k$[ebp+12], -19 ; ffffffedH
  000ec	eb 40		 jmp	 SHORT $LN1@LoadInt_e
$LN85@LoadInt_e:
  000ee	c6 45 f7 ea	 mov	 BYTE PTR __k$[ebp+11], -22 ; ffffffeaH
  000f2	eb 3a		 jmp	 SHORT $LN1@LoadInt_e
$LN86@LoadInt_e:
  000f4	c6 45 f6 eb	 mov	 BYTE PTR __k$[ebp+10], -21 ; ffffffebH
  000f8	eb 34		 jmp	 SHORT $LN1@LoadInt_e
$LN88@LoadInt_e:
  000fa	c6 45 f4 ed	 mov	 BYTE PTR __k$[ebp+8], -19 ; ffffffedH
  000fe	eb 2e		 jmp	 SHORT $LN1@LoadInt_e
$LN89@LoadInt_e:
  00100	c6 45 f3 ea	 mov	 BYTE PTR __k$[ebp+7], -22 ; ffffffeaH
  00104	eb 28		 jmp	 SHORT $LN1@LoadInt_e
$LN90@LoadInt_e:
  00106	c6 45 f2 eb	 mov	 BYTE PTR __k$[ebp+6], -21 ; ffffffebH
  0010a	eb 22		 jmp	 SHORT $LN1@LoadInt_e
$LN91@LoadInt_e:
  0010c	c6 45 f1 ec	 mov	 BYTE PTR __k$[ebp+5], -20 ; ffffffecH
  00110	eb 1c		 jmp	 SHORT $LN1@LoadInt_e
$LN92@LoadInt_e:
  00112	c6 45 f0 ed	 mov	 BYTE PTR __k$[ebp+4], -19 ; ffffffedH
  00116	eb 16		 jmp	 SHORT $LN1@LoadInt_e
$LN93@LoadInt_e:
  00118	c6 45 ef ea	 mov	 BYTE PTR __k$[ebp+3], -22 ; ffffffeaH
  0011c	eb 10		 jmp	 SHORT $LN1@LoadInt_e
$LN94@LoadInt_e:
  0011e	c6 45 ee eb	 mov	 BYTE PTR __k$[ebp+2], -21 ; ffffffebH
  00122	eb 0a		 jmp	 SHORT $LN1@LoadInt_e
$LN95@LoadInt_e:
  00124	c6 45 ed ec	 mov	 BYTE PTR __k$[ebp+1], -20 ; ffffffecH
  00128	eb 04		 jmp	 SHORT $LN1@LoadInt_e
$LN96@LoadInt_e:
  0012a	c6 45 ec ed	 mov	 BYTE PTR __k$[ebp], -19	; ffffffedH
$LN1@LoadInt_e:
  0012e	6a 02		 push	 2
  00130	8d 45 ec	 lea	 eax, DWORD PTR __k$[ebp]
  00133	c6 45 f5 00	 mov	 BYTE PTR __k$[ebp+9], 0
  00137	5a		 pop	 edx
$LL104@LoadInt_e:
  00138	81 30 ed ec eb
	ea		 xor	 DWORD PTR [eax], -353637139 ; eaebecedH
  0013e	83 c0 04	 add	 eax, 4
  00141	4a		 dec	 edx
  00142	75 f4		 jne	 SHORT $LL104@LoadInt_e

; 120  : 		return LoadInt(_k, i);

  00144	ff 75 0c	 push	 DWORD PTR _i$[ebp]
  00147	80 75 f4 ed	 xor	 BYTE PTR __k$[ebp+8], -19 ; ffffffedH
  0014b	8d 45 ec	 lea	 eax, DWORD PTR __k$[ebp]
  0014e	50		 push	 eax
  0014f	ff 15 00 00 00
	00		 call	 DWORD PTR __imp_?LoadInt@ioINILoader@@QAEHPBDH@Z

; 121  : 	}

  00155	8b 4d fc	 mov	 ecx, DWORD PTR __$ArrayPad$[ebp]
  00158	33 cd		 xor	 ecx, ebp
  0015a	e8 00 00 00 00	 call	 @__security_check_cookie@4
  0015f	c9		 leave
  00160	c2 08 00	 ret	 8
??$LoadInt_e@$09@ioINILoader@@QAEHAAY09$$CBDH@Z ENDP	; ioINILoader::LoadInt_e<10>
_TEXT	ENDS
PUBLIC	__$ArrayPad$
PUBLIC	??$LoadFloat_e@$09@ioINILoader@@QAEMAAY09$$CBDM@Z ; ioINILoader::LoadFloat_e<10>
EXTRN	__imp_?LoadFloat@ioINILoader@@QAEMPBDM@Z:PROC
; Function compile flags: /Ogsp
;	COMDAT ??$LoadFloat_e@$09@ioINILoader@@QAEMAAY09$$CBDM@Z
_TEXT	SEGMENT
__k$ = -20						; size = 10
__$ArrayPad$ = -4					; size = 4
_k$ = 8							; size = 4
_f$ = 12						; size = 4
??$LoadFloat_e@$09@ioINILoader@@QAEMAAY09$$CBDM@Z PROC	; ioINILoader::LoadFloat_e<10>, COMDAT
; _this$ = ecx

; 135  : 	{

  00000	55		 push	 ebp
  00001	8b ec		 mov	 ebp, esp
  00003	83 ec 14	 sub	 esp, 20			; 00000014H
  00006	a1 00 00 00 00	 mov	 eax, DWORD PTR ___security_cookie
  0000b	33 c5		 xor	 eax, ebp
  0000d	89 45 fc	 mov	 DWORD PTR __$ArrayPad$[ebp], eax
  00010	8b 45 08	 mov	 eax, DWORD PTR _k$[ebp]

; 136  : 		_ENCSTR(k, _k);

  00013	8a 10		 mov	 dl, BYTE PTR [eax]
  00015	84 d2		 test	 dl, dl
  00017	0f 84 0d 01 00
	00		 je	 $LN96@LoadFloat_
  0001d	80 f2 ed	 xor	 dl, -19			; ffffffedH
  00020	88 55 ec	 mov	 BYTE PTR __k$[ebp], dl
  00023	8a 50 01	 mov	 dl, BYTE PTR [eax+1]
  00026	84 d2		 test	 dl, dl
  00028	0f 84 f6 00 00
	00		 je	 $LN95@LoadFloat_
  0002e	80 f2 ec	 xor	 dl, -20			; ffffffecH
  00031	88 55 ed	 mov	 BYTE PTR __k$[ebp+1], dl
  00034	8a 50 02	 mov	 dl, BYTE PTR [eax+2]
  00037	84 d2		 test	 dl, dl
  00039	0f 84 df 00 00
	00		 je	 $LN94@LoadFloat_
  0003f	80 f2 eb	 xor	 dl, -21			; ffffffebH
  00042	88 55 ee	 mov	 BYTE PTR __k$[ebp+2], dl
  00045	8a 50 03	 mov	 dl, BYTE PTR [eax+3]
  00048	84 d2		 test	 dl, dl
  0004a	0f 84 c8 00 00
	00		 je	 $LN93@LoadFloat_
  00050	80 f2 ea	 xor	 dl, -22			; ffffffeaH
  00053	88 55 ef	 mov	 BYTE PTR __k$[ebp+3], dl
  00056	8a 50 04	 mov	 dl, BYTE PTR [eax+4]
  00059	84 d2		 test	 dl, dl
  0005b	0f 84 b1 00 00
	00		 je	 $LN92@LoadFloat_
  00061	80 f2 ed	 xor	 dl, -19			; ffffffedH
  00064	88 55 f0	 mov	 BYTE PTR __k$[ebp+4], dl
  00067	8a 50 05	 mov	 dl, BYTE PTR [eax+5]
  0006a	84 d2		 test	 dl, dl
  0006c	0f 84 9a 00 00
	00		 je	 $LN91@LoadFloat_
  00072	80 f2 ec	 xor	 dl, -20			; ffffffecH
  00075	88 55 f1	 mov	 BYTE PTR __k$[ebp+5], dl
  00078	8a 50 06	 mov	 dl, BYTE PTR [eax+6]
  0007b	84 d2		 test	 dl, dl
  0007d	0f 84 83 00 00
	00		 je	 $LN90@LoadFloat_
  00083	80 f2 eb	 xor	 dl, -21			; ffffffebH
  00086	88 55 f2	 mov	 BYTE PTR __k$[ebp+6], dl
  00089	8a 50 07	 mov	 dl, BYTE PTR [eax+7]
  0008c	84 d2		 test	 dl, dl
  0008e	74 70		 je	 SHORT $LN89@LoadFloat_
  00090	80 f2 ea	 xor	 dl, -22			; ffffffeaH
  00093	88 55 f3	 mov	 BYTE PTR __k$[ebp+7], dl
  00096	8a 50 08	 mov	 dl, BYTE PTR [eax+8]
  00099	84 d2		 test	 dl, dl
  0009b	74 5d		 je	 SHORT $LN88@LoadFloat_
  0009d	80 f2 ed	 xor	 dl, -19			; ffffffedH
  000a0	80 78 09 00	 cmp	 BYTE PTR [eax+9], 0
  000a4	88 55 f4	 mov	 BYTE PTR __k$[ebp+8], dl
  000a7	0f 84 81 00 00
	00		 je	 $LN1@LoadFloat_
  000ad	8a 50 0a	 mov	 dl, BYTE PTR [eax+10]
  000b0	84 d2		 test	 dl, dl
  000b2	74 40		 je	 SHORT $LN86@LoadFloat_
  000b4	80 f2 eb	 xor	 dl, -21			; ffffffebH
  000b7	88 55 f6	 mov	 BYTE PTR __k$[ebp+10], dl
  000ba	8a 50 0b	 mov	 dl, BYTE PTR [eax+11]
  000bd	84 d2		 test	 dl, dl
  000bf	74 2d		 je	 SHORT $LN85@LoadFloat_
  000c1	80 f2 ea	 xor	 dl, -22			; ffffffeaH
  000c4	88 55 f7	 mov	 BYTE PTR __k$[ebp+11], dl
  000c7	8a 50 0c	 mov	 dl, BYTE PTR [eax+12]
  000ca	84 d2		 test	 dl, dl
  000cc	74 1a		 je	 SHORT $LN84@LoadFloat_
  000ce	8a 40 0d	 mov	 al, BYTE PTR [eax+13]
  000d1	80 f2 ed	 xor	 dl, -19			; ffffffedH
  000d4	88 55 f8	 mov	 BYTE PTR __k$[ebp+12], dl
  000d7	84 c0		 test	 al, al
  000d9	74 07		 je	 SHORT $LN83@LoadFloat_
  000db	34 ec		 xor	 al, -20			; ffffffecH
  000dd	88 45 f9	 mov	 BYTE PTR __k$[ebp+13], al
  000e0	eb 4c		 jmp	 SHORT $LN1@LoadFloat_
$LN83@LoadFloat_:
  000e2	c6 45 f9 ec	 mov	 BYTE PTR __k$[ebp+13], -20 ; ffffffecH
  000e6	eb 46		 jmp	 SHORT $LN1@LoadFloat_
$LN84@LoadFloat_:
  000e8	c6 45 f8 ed	 mov	 BYTE PTR __k$[ebp+12], -19 ; ffffffedH
  000ec	eb 40		 jmp	 SHORT $LN1@LoadFloat_
$LN85@LoadFloat_:
  000ee	c6 45 f7 ea	 mov	 BYTE PTR __k$[ebp+11], -22 ; ffffffeaH
  000f2	eb 3a		 jmp	 SHORT $LN1@LoadFloat_
$LN86@LoadFloat_:
  000f4	c6 45 f6 eb	 mov	 BYTE PTR __k$[ebp+10], -21 ; ffffffebH
  000f8	eb 34		 jmp	 SHORT $LN1@LoadFloat_
$LN88@LoadFloat_:
  000fa	c6 45 f4 ed	 mov	 BYTE PTR __k$[ebp+8], -19 ; ffffffedH
  000fe	eb 2e		 jmp	 SHORT $LN1@LoadFloat_
$LN89@LoadFloat_:
  00100	c6 45 f3 ea	 mov	 BYTE PTR __k$[ebp+7], -22 ; ffffffeaH
  00104	eb 28		 jmp	 SHORT $LN1@LoadFloat_
$LN90@LoadFloat_:
  00106	c6 45 f2 eb	 mov	 BYTE PTR __k$[ebp+6], -21 ; ffffffebH
  0010a	eb 22		 jmp	 SHORT $LN1@LoadFloat_
$LN91@LoadFloat_:
  0010c	c6 45 f1 ec	 mov	 BYTE PTR __k$[ebp+5], -20 ; ffffffecH
  00110	eb 1c		 jmp	 SHORT $LN1@LoadFloat_
$LN92@LoadFloat_:
  00112	c6 45 f0 ed	 mov	 BYTE PTR __k$[ebp+4], -19 ; ffffffedH
  00116	eb 16		 jmp	 SHORT $LN1@LoadFloat_
$LN93@LoadFloat_:
  00118	c6 45 ef ea	 mov	 BYTE PTR __k$[ebp+3], -22 ; ffffffeaH
  0011c	eb 10		 jmp	 SHORT $LN1@LoadFloat_
$LN94@LoadFloat_:
  0011e	c6 45 ee eb	 mov	 BYTE PTR __k$[ebp+2], -21 ; ffffffebH
  00122	eb 0a		 jmp	 SHORT $LN1@LoadFloat_
$LN95@LoadFloat_:
  00124	c6 45 ed ec	 mov	 BYTE PTR __k$[ebp+1], -20 ; ffffffecH
  00128	eb 04		 jmp	 SHORT $LN1@LoadFloat_
$LN96@LoadFloat_:
  0012a	c6 45 ec ed	 mov	 BYTE PTR __k$[ebp], -19	; ffffffedH
$LN1@LoadFloat_:
  0012e	6a 02		 push	 2
  00130	8d 45 ec	 lea	 eax, DWORD PTR __k$[ebp]
  00133	c6 45 f5 00	 mov	 BYTE PTR __k$[ebp+9], 0
  00137	5a		 pop	 edx
$LL104@LoadFloat_:
  00138	81 30 ed ec eb
	ea		 xor	 DWORD PTR [eax], -353637139 ; eaebecedH
  0013e	83 c0 04	 add	 eax, 4
  00141	4a		 dec	 edx
  00142	75 f4		 jne	 SHORT $LL104@LoadFloat_

; 137  : 		return LoadFloat(_k, f);

  00144	f3 0f 10 45 0c	 movss	 xmm0, DWORD PTR _f$[ebp]
  00149	80 75 f4 ed	 xor	 BYTE PTR __k$[ebp+8], -19 ; ffffffedH
  0014d	51		 push	 ecx
  0014e	8d 45 ec	 lea	 eax, DWORD PTR __k$[ebp]
  00151	f3 0f 11 04 24	 movss	 DWORD PTR [esp], xmm0
  00156	50		 push	 eax
  00157	ff 15 00 00 00
	00		 call	 DWORD PTR __imp_?LoadFloat@ioINILoader@@QAEMPBDM@Z

; 138  : 	}

  0015d	8b 4d fc	 mov	 ecx, DWORD PTR __$ArrayPad$[ebp]
  00160	33 cd		 xor	 ecx, ebp
  00162	e8 00 00 00 00	 call	 @__security_check_cookie@4
  00167	c9		 leave
  00168	c2 08 00	 ret	 8
??$LoadFloat_e@$09@ioINILoader@@QAEMAAY09$$CBDM@Z ENDP	; ioINILoader::LoadFloat_e<10>
_TEXT	ENDS
PUBLIC	__$ArrayPad$
PUBLIC	??$LoadFloat_e@$0BC@@ioINILoader@@QAEMAAY0BC@$$CBDM@Z ; ioINILoader::LoadFloat_e<18>
; Function compile flags: /Ogsp
;	COMDAT ??$LoadFloat_e@$0BC@@ioINILoader@@QAEMAAY0BC@$$CBDM@Z
_TEXT	SEGMENT
__k$ = -28						; size = 18
__$ArrayPad$ = -4					; size = 4
_k$ = 8							; size = 4
_f$ = 12						; size = 4
??$LoadFloat_e@$0BC@@ioINILoader@@QAEMAAY0BC@$$CBDM@Z PROC ; ioINILoader::LoadFloat_e<18>, COMDAT
; _this$ = ecx

; 135  : 	{

  00000	55		 push	 ebp
  00001	8b ec		 mov	 ebp, esp
  00003	83 ec 1c	 sub	 esp, 28			; 0000001cH
  00006	a1 00 00 00 00	 mov	 eax, DWORD PTR ___security_cookie
  0000b	33 c5		 xor	 eax, ebp
  0000d	89 45 fc	 mov	 DWORD PTR __$ArrayPad$[ebp], eax
  00010	8b 45 08	 mov	 eax, DWORD PTR _k$[ebp]

; 136  : 		_ENCSTR(k, _k);

  00013	8a 10		 mov	 dl, BYTE PTR [eax]
  00015	56		 push	 esi
  00016	8b f1		 mov	 esi, ecx
  00018	84 d2		 test	 dl, dl
  0001a	0f 84 be 01 00
	00		 je	 $LN96@LoadFloat_@2
  00020	80 f2 ed	 xor	 dl, -19			; ffffffedH
  00023	88 55 e4	 mov	 BYTE PTR __k$[ebp], dl
  00026	8a 50 01	 mov	 dl, BYTE PTR [eax+1]
  00029	84 d2		 test	 dl, dl
  0002b	0f 84 a7 01 00
	00		 je	 $LN95@LoadFloat_@2
  00031	80 f2 ec	 xor	 dl, -20			; ffffffecH
  00034	88 55 e5	 mov	 BYTE PTR __k$[ebp+1], dl
  00037	8a 50 02	 mov	 dl, BYTE PTR [eax+2]
  0003a	84 d2		 test	 dl, dl
  0003c	0f 84 90 01 00
	00		 je	 $LN94@LoadFloat_@2
  00042	b1 eb		 mov	 cl, -21			; ffffffebH
  00044	32 d1		 xor	 dl, cl
  00046	88 55 e6	 mov	 BYTE PTR __k$[ebp+2], dl
  00049	8a 50 03	 mov	 dl, BYTE PTR [eax+3]
  0004c	84 d2		 test	 dl, dl
  0004e	0f 84 78 01 00
	00		 je	 $LN93@LoadFloat_@2
  00054	80 f2 ea	 xor	 dl, -22			; ffffffeaH
  00057	88 55 e7	 mov	 BYTE PTR __k$[ebp+3], dl
  0005a	8a 50 04	 mov	 dl, BYTE PTR [eax+4]
  0005d	84 d2		 test	 dl, dl
  0005f	0f 84 61 01 00
	00		 je	 $LN92@LoadFloat_@2
  00065	80 f2 ed	 xor	 dl, -19			; ffffffedH
  00068	88 55 e8	 mov	 BYTE PTR __k$[ebp+4], dl
  0006b	8a 50 05	 mov	 dl, BYTE PTR [eax+5]
  0006e	84 d2		 test	 dl, dl
  00070	0f 84 4a 01 00
	00		 je	 $LN91@LoadFloat_@2
  00076	80 f2 ec	 xor	 dl, -20			; ffffffecH
  00079	88 55 e9	 mov	 BYTE PTR __k$[ebp+5], dl
  0007c	8a 50 06	 mov	 dl, BYTE PTR [eax+6]
  0007f	84 d2		 test	 dl, dl
  00081	0f 84 34 01 00
	00		 je	 $LN90@LoadFloat_@2
  00087	32 d1		 xor	 dl, cl
  00089	88 55 ea	 mov	 BYTE PTR __k$[ebp+6], dl
  0008c	8a 50 07	 mov	 dl, BYTE PTR [eax+7]
  0008f	84 d2		 test	 dl, dl
  00091	0f 84 1e 01 00
	00		 je	 $LN89@LoadFloat_@2
  00097	80 f2 ea	 xor	 dl, -22			; ffffffeaH
  0009a	88 55 eb	 mov	 BYTE PTR __k$[ebp+7], dl
  0009d	8a 50 08	 mov	 dl, BYTE PTR [eax+8]
  000a0	84 d2		 test	 dl, dl
  000a2	0f 84 07 01 00
	00		 je	 $LN88@LoadFloat_@2
  000a8	80 f2 ed	 xor	 dl, -19			; ffffffedH
  000ab	88 55 ec	 mov	 BYTE PTR __k$[ebp+8], dl
  000ae	8a 50 09	 mov	 dl, BYTE PTR [eax+9]
  000b1	84 d2		 test	 dl, dl
  000b3	0f 84 f0 00 00
	00		 je	 $LN87@LoadFloat_@2
  000b9	80 f2 ec	 xor	 dl, -20			; ffffffecH
  000bc	88 55 ed	 mov	 BYTE PTR __k$[ebp+9], dl
  000bf	8a 50 0a	 mov	 dl, BYTE PTR [eax+10]
  000c2	84 d2		 test	 dl, dl
  000c4	0f 84 da 00 00
	00		 je	 $LN86@LoadFloat_@2
  000ca	32 d1		 xor	 dl, cl
  000cc	88 55 ee	 mov	 BYTE PTR __k$[ebp+10], dl
  000cf	8a 50 0b	 mov	 dl, BYTE PTR [eax+11]
  000d2	84 d2		 test	 dl, dl
  000d4	0f 84 c4 00 00
	00		 je	 $LN85@LoadFloat_@2
  000da	80 f2 ea	 xor	 dl, -22			; ffffffeaH
  000dd	88 55 ef	 mov	 BYTE PTR __k$[ebp+11], dl
  000e0	8a 50 0c	 mov	 dl, BYTE PTR [eax+12]
  000e3	84 d2		 test	 dl, dl
  000e5	0f 84 ad 00 00
	00		 je	 $LN84@LoadFloat_@2
  000eb	80 f2 ed	 xor	 dl, -19			; ffffffedH
  000ee	88 55 f0	 mov	 BYTE PTR __k$[ebp+12], dl
  000f1	8a 50 0d	 mov	 dl, BYTE PTR [eax+13]
  000f4	84 d2		 test	 dl, dl
  000f6	0f 84 96 00 00
	00		 je	 $LN83@LoadFloat_@2
  000fc	80 f2 ec	 xor	 dl, -20			; ffffffecH
  000ff	88 55 f1	 mov	 BYTE PTR __k$[ebp+13], dl
  00102	8a 50 0e	 mov	 dl, BYTE PTR [eax+14]
  00105	84 d2		 test	 dl, dl
  00107	0f 84 80 00 00
	00		 je	 $LN82@LoadFloat_@2
  0010d	32 d1		 xor	 dl, cl
  0010f	88 55 f2	 mov	 BYTE PTR __k$[ebp+14], dl
  00112	8a 50 0f	 mov	 dl, BYTE PTR [eax+15]
  00115	84 d2		 test	 dl, dl
  00117	74 6e		 je	 SHORT $LN81@LoadFloat_@2
  00119	80 f2 ea	 xor	 dl, -22			; ffffffeaH
  0011c	88 55 f3	 mov	 BYTE PTR __k$[ebp+15], dl
  0011f	8a 50 10	 mov	 dl, BYTE PTR [eax+16]
  00122	84 d2		 test	 dl, dl
  00124	74 5b		 je	 SHORT $LN80@LoadFloat_@2
  00126	80 f2 ed	 xor	 dl, -19			; ffffffedH
  00129	80 78 11 00	 cmp	 BYTE PTR [eax+17], 0
  0012d	88 55 f4	 mov	 BYTE PTR __k$[ebp+16], dl
  00130	0f 84 ac 00 00
	00		 je	 $LN1@LoadFloat_@2
  00136	8a 50 12	 mov	 dl, BYTE PTR [eax+18]
  00139	84 d2		 test	 dl, dl
  0013b	74 3f		 je	 SHORT $LN78@LoadFloat_@2
  0013d	32 d1		 xor	 dl, cl
  0013f	88 55 f6	 mov	 BYTE PTR __k$[ebp+18], dl
  00142	8a 50 13	 mov	 dl, BYTE PTR [eax+19]
  00145	84 d2		 test	 dl, dl
  00147	74 2d		 je	 SHORT $LN77@LoadFloat_@2
  00149	80 f2 ea	 xor	 dl, -22			; ffffffeaH
  0014c	88 55 f7	 mov	 BYTE PTR __k$[ebp+19], dl
  0014f	8a 50 14	 mov	 dl, BYTE PTR [eax+20]
  00152	84 d2		 test	 dl, dl
  00154	74 1a		 je	 SHORT $LN76@LoadFloat_@2
  00156	8a 40 15	 mov	 al, BYTE PTR [eax+21]
  00159	80 f2 ed	 xor	 dl, -19			; ffffffedH
  0015c	88 55 f8	 mov	 BYTE PTR __k$[ebp+20], dl
  0015f	84 c0		 test	 al, al
  00161	74 07		 je	 SHORT $LN75@LoadFloat_@2
  00163	34 ec		 xor	 al, -20			; ffffffecH
  00165	88 45 f9	 mov	 BYTE PTR __k$[ebp+21], al
  00168	eb 78		 jmp	 SHORT $LN1@LoadFloat_@2
$LN75@LoadFloat_@2:
  0016a	c6 45 f9 ec	 mov	 BYTE PTR __k$[ebp+21], -20 ; ffffffecH
  0016e	eb 72		 jmp	 SHORT $LN1@LoadFloat_@2
$LN76@LoadFloat_@2:
  00170	c6 45 f8 ed	 mov	 BYTE PTR __k$[ebp+20], -19 ; ffffffedH
  00174	eb 6c		 jmp	 SHORT $LN1@LoadFloat_@2
$LN77@LoadFloat_@2:
  00176	c6 45 f7 ea	 mov	 BYTE PTR __k$[ebp+19], -22 ; ffffffeaH
  0017a	eb 66		 jmp	 SHORT $LN1@LoadFloat_@2
$LN78@LoadFloat_@2:
  0017c	88 4d f6	 mov	 BYTE PTR __k$[ebp+18], cl
  0017f	eb 61		 jmp	 SHORT $LN1@LoadFloat_@2
$LN80@LoadFloat_@2:
  00181	c6 45 f4 ed	 mov	 BYTE PTR __k$[ebp+16], -19 ; ffffffedH
  00185	eb 5b		 jmp	 SHORT $LN1@LoadFloat_@2
$LN81@LoadFloat_@2:
  00187	c6 45 f3 ea	 mov	 BYTE PTR __k$[ebp+15], -22 ; ffffffeaH
  0018b	eb 55		 jmp	 SHORT $LN1@LoadFloat_@2
$LN82@LoadFloat_@2:
  0018d	88 4d f2	 mov	 BYTE PTR __k$[ebp+14], cl
  00190	eb 50		 jmp	 SHORT $LN1@LoadFloat_@2
$LN83@LoadFloat_@2:
  00192	c6 45 f1 ec	 mov	 BYTE PTR __k$[ebp+13], -20 ; ffffffecH
  00196	eb 4a		 jmp	 SHORT $LN1@LoadFloat_@2
$LN84@LoadFloat_@2:
  00198	c6 45 f0 ed	 mov	 BYTE PTR __k$[ebp+12], -19 ; ffffffedH
  0019c	eb 44		 jmp	 SHORT $LN1@LoadFloat_@2
$LN85@LoadFloat_@2:
  0019e	c6 45 ef ea	 mov	 BYTE PTR __k$[ebp+11], -22 ; ffffffeaH
  001a2	eb 3e		 jmp	 SHORT $LN1@LoadFloat_@2
$LN86@LoadFloat_@2:
  001a4	88 4d ee	 mov	 BYTE PTR __k$[ebp+10], cl
  001a7	eb 39		 jmp	 SHORT $LN1@LoadFloat_@2
$LN87@LoadFloat_@2:
  001a9	c6 45 ed ec	 mov	 BYTE PTR __k$[ebp+9], -20 ; ffffffecH
  001ad	eb 33		 jmp	 SHORT $LN1@LoadFloat_@2
$LN88@LoadFloat_@2:
  001af	c6 45 ec ed	 mov	 BYTE PTR __k$[ebp+8], -19 ; ffffffedH
  001b3	eb 2d		 jmp	 SHORT $LN1@LoadFloat_@2
$LN89@LoadFloat_@2:
  001b5	c6 45 eb ea	 mov	 BYTE PTR __k$[ebp+7], -22 ; ffffffeaH
  001b9	eb 27		 jmp	 SHORT $LN1@LoadFloat_@2
$LN90@LoadFloat_@2:
  001bb	88 4d ea	 mov	 BYTE PTR __k$[ebp+6], cl
  001be	eb 22		 jmp	 SHORT $LN1@LoadFloat_@2
$LN91@LoadFloat_@2:
  001c0	c6 45 e9 ec	 mov	 BYTE PTR __k$[ebp+5], -20 ; ffffffecH
  001c4	eb 1c		 jmp	 SHORT $LN1@LoadFloat_@2
$LN92@LoadFloat_@2:
  001c6	c6 45 e8 ed	 mov	 BYTE PTR __k$[ebp+4], -19 ; ffffffedH
  001ca	eb 16		 jmp	 SHORT $LN1@LoadFloat_@2
$LN93@LoadFloat_@2:
  001cc	c6 45 e7 ea	 mov	 BYTE PTR __k$[ebp+3], -22 ; ffffffeaH
  001d0	eb 10		 jmp	 SHORT $LN1@LoadFloat_@2
$LN94@LoadFloat_@2:
  001d2	c6 45 e6 eb	 mov	 BYTE PTR __k$[ebp+2], -21 ; ffffffebH
  001d6	eb 0a		 jmp	 SHORT $LN1@LoadFloat_@2
$LN95@LoadFloat_@2:
  001d8	c6 45 e5 ec	 mov	 BYTE PTR __k$[ebp+1], -20 ; ffffffecH
  001dc	eb 04		 jmp	 SHORT $LN1@LoadFloat_@2
$LN96@LoadFloat_@2:
  001de	c6 45 e4 ed	 mov	 BYTE PTR __k$[ebp], -19	; ffffffedH
$LN1@LoadFloat_@2:
  001e2	6a 04		 push	 4
  001e4	8d 45 e4	 lea	 eax, DWORD PTR __k$[ebp]
  001e7	c6 45 f5 00	 mov	 BYTE PTR __k$[ebp+17], 0
  001eb	5a		 pop	 edx
$LL104@LoadFloat_@2:
  001ec	81 30 ed ec eb
	ea		 xor	 DWORD PTR [eax], -353637139 ; eaebecedH
  001f2	83 c0 04	 add	 eax, 4
  001f5	4a		 dec	 edx
  001f6	75 f4		 jne	 SHORT $LL104@LoadFloat_@2

; 137  : 		return LoadFloat(_k, f);

  001f8	f3 0f 10 45 0c	 movss	 xmm0, DWORD PTR _f$[ebp]
  001fd	80 75 f4 ed	 xor	 BYTE PTR __k$[ebp+16], -19 ; ffffffedH
  00201	51		 push	 ecx
  00202	8d 45 e4	 lea	 eax, DWORD PTR __k$[ebp]
  00205	f3 0f 11 04 24	 movss	 DWORD PTR [esp], xmm0
  0020a	50		 push	 eax
  0020b	8b ce		 mov	 ecx, esi
  0020d	ff 15 00 00 00
	00		 call	 DWORD PTR __imp_?LoadFloat@ioINILoader@@QAEMPBDM@Z

; 138  : 	}

  00213	8b 4d fc	 mov	 ecx, DWORD PTR __$ArrayPad$[ebp]
  00216	33 cd		 xor	 ecx, ebp
  00218	5e		 pop	 esi
  00219	e8 00 00 00 00	 call	 @__security_check_cookie@4
  0021e	c9		 leave
  0021f	c2 08 00	 ret	 8
??$LoadFloat_e@$0BC@@ioINILoader@@QAEMAAY0BC@$$CBDM@Z ENDP ; ioINILoader::LoadFloat_e<18>
_TEXT	ENDS
PUBLIC	__$ArrayPad$
PUBLIC	??$LoadFloat_e@$0BE@@ioINILoader@@QAEMAAY0BE@$$CBDM@Z ; ioINILoader::LoadFloat_e<20>
; Function compile flags: /Ogsp
;	COMDAT ??$LoadFloat_e@$0BE@@ioINILoader@@QAEMAAY0BE@$$CBDM@Z
_TEXT	SEGMENT
__k$ = -28						; size = 20
__$ArrayPad$ = -4					; size = 4
_k$ = 8							; size = 4
_f$ = 12						; size = 4
??$LoadFloat_e@$0BE@@ioINILoader@@QAEMAAY0BE@$$CBDM@Z PROC ; ioINILoader::LoadFloat_e<20>, COMDAT
; _this$ = ecx

; 135  : 	{

  00000	55		 push	 ebp
  00001	8b ec		 mov	 ebp, esp
  00003	83 ec 1c	 sub	 esp, 28			; 0000001cH
  00006	a1 00 00 00 00	 mov	 eax, DWORD PTR ___security_cookie
  0000b	33 c5		 xor	 eax, ebp
  0000d	89 45 fc	 mov	 DWORD PTR __$ArrayPad$[ebp], eax
  00010	8b 45 08	 mov	 eax, DWORD PTR _k$[ebp]

; 136  : 		_ENCSTR(k, _k);

  00013	8a 10		 mov	 dl, BYTE PTR [eax]
  00015	53		 push	 ebx
  00016	56		 push	 esi
  00017	8b f1		 mov	 esi, ecx
  00019	84 d2		 test	 dl, dl
  0001b	0f 84 dd 01 00
	00		 je	 $LN96@LoadFloat_@3
  00021	80 f2 ed	 xor	 dl, -19			; ffffffedH
  00024	88 55 e4	 mov	 BYTE PTR __k$[ebp], dl
  00027	8a 50 01	 mov	 dl, BYTE PTR [eax+1]
  0002a	84 d2		 test	 dl, dl
  0002c	0f 84 c6 01 00
	00		 je	 $LN95@LoadFloat_@3
  00032	b3 ec		 mov	 bl, -20			; ffffffecH
  00034	32 d3		 xor	 dl, bl
  00036	88 55 e5	 mov	 BYTE PTR __k$[ebp+1], dl
  00039	8a 50 02	 mov	 dl, BYTE PTR [eax+2]
  0003c	84 d2		 test	 dl, dl
  0003e	0f 84 ae 01 00
	00		 je	 $LN94@LoadFloat_@3
  00044	b1 eb		 mov	 cl, -21			; ffffffebH
  00046	32 d1		 xor	 dl, cl
  00048	88 55 e6	 mov	 BYTE PTR __k$[ebp+2], dl
  0004b	8a 50 03	 mov	 dl, BYTE PTR [eax+3]
  0004e	84 d2		 test	 dl, dl
  00050	0f 84 96 01 00
	00		 je	 $LN93@LoadFloat_@3
  00056	80 f2 ea	 xor	 dl, -22			; ffffffeaH
  00059	88 55 e7	 mov	 BYTE PTR __k$[ebp+3], dl
  0005c	8a 50 04	 mov	 dl, BYTE PTR [eax+4]
  0005f	84 d2		 test	 dl, dl
  00061	0f 84 7f 01 00
	00		 je	 $LN92@LoadFloat_@3
  00067	80 f2 ed	 xor	 dl, -19			; ffffffedH
  0006a	88 55 e8	 mov	 BYTE PTR __k$[ebp+4], dl
  0006d	8a 50 05	 mov	 dl, BYTE PTR [eax+5]
  00070	84 d2		 test	 dl, dl
  00072	0f 84 69 01 00
	00		 je	 $LN91@LoadFloat_@3
  00078	32 d3		 xor	 dl, bl
  0007a	88 55 e9	 mov	 BYTE PTR __k$[ebp+5], dl
  0007d	8a 50 06	 mov	 dl, BYTE PTR [eax+6]
  00080	84 d2		 test	 dl, dl
  00082	0f 84 54 01 00
	00		 je	 $LN90@LoadFloat_@3
  00088	32 d1		 xor	 dl, cl
  0008a	88 55 ea	 mov	 BYTE PTR __k$[ebp+6], dl
  0008d	8a 50 07	 mov	 dl, BYTE PTR [eax+7]
  00090	84 d2		 test	 dl, dl
  00092	0f 84 3e 01 00
	00		 je	 $LN89@LoadFloat_@3
  00098	80 f2 ea	 xor	 dl, -22			; ffffffeaH
  0009b	88 55 eb	 mov	 BYTE PTR __k$[ebp+7], dl
  0009e	8a 50 08	 mov	 dl, BYTE PTR [eax+8]
  000a1	84 d2		 test	 dl, dl
  000a3	0f 84 27 01 00
	00		 je	 $LN88@LoadFloat_@3
  000a9	80 f2 ed	 xor	 dl, -19			; ffffffedH
  000ac	88 55 ec	 mov	 BYTE PTR __k$[ebp+8], dl
  000af	8a 50 09	 mov	 dl, BYTE PTR [eax+9]
  000b2	84 d2		 test	 dl, dl
  000b4	0f 84 11 01 00
	00		 je	 $LN87@LoadFloat_@3
  000ba	32 d3		 xor	 dl, bl
  000bc	88 55 ed	 mov	 BYTE PTR __k$[ebp+9], dl
  000bf	8a 50 0a	 mov	 dl, BYTE PTR [eax+10]
  000c2	84 d2		 test	 dl, dl
  000c4	0f 84 fc 00 00
	00		 je	 $LN86@LoadFloat_@3
  000ca	32 d1		 xor	 dl, cl
  000cc	88 55 ee	 mov	 BYTE PTR __k$[ebp+10], dl
  000cf	8a 50 0b	 mov	 dl, BYTE PTR [eax+11]
  000d2	84 d2		 test	 dl, dl
  000d4	0f 84 e6 00 00
	00		 je	 $LN85@LoadFloat_@3
  000da	80 f2 ea	 xor	 dl, -22			; ffffffeaH
  000dd	88 55 ef	 mov	 BYTE PTR __k$[ebp+11], dl
  000e0	8a 50 0c	 mov	 dl, BYTE PTR [eax+12]
  000e3	84 d2		 test	 dl, dl
  000e5	0f 84 cf 00 00
	00		 je	 $LN84@LoadFloat_@3
  000eb	80 f2 ed	 xor	 dl, -19			; ffffffedH
  000ee	88 55 f0	 mov	 BYTE PTR __k$[ebp+12], dl
  000f1	8a 50 0d	 mov	 dl, BYTE PTR [eax+13]
  000f4	84 d2		 test	 dl, dl
  000f6	0f 84 b9 00 00
	00		 je	 $LN83@LoadFloat_@3
  000fc	32 d3		 xor	 dl, bl
  000fe	88 55 f1	 mov	 BYTE PTR __k$[ebp+13], dl
  00101	8a 50 0e	 mov	 dl, BYTE PTR [eax+14]
  00104	84 d2		 test	 dl, dl
  00106	0f 84 a4 00 00
	00		 je	 $LN82@LoadFloat_@3
  0010c	32 d1		 xor	 dl, cl
  0010e	88 55 f2	 mov	 BYTE PTR __k$[ebp+14], dl
  00111	8a 50 0f	 mov	 dl, BYTE PTR [eax+15]
  00114	84 d2		 test	 dl, dl
  00116	0f 84 8e 00 00
	00		 je	 $LN81@LoadFloat_@3
  0011c	80 f2 ea	 xor	 dl, -22			; ffffffeaH
  0011f	88 55 f3	 mov	 BYTE PTR __k$[ebp+15], dl
  00122	8a 50 10	 mov	 dl, BYTE PTR [eax+16]
  00125	84 d2		 test	 dl, dl
  00127	74 7b		 je	 SHORT $LN80@LoadFloat_@3
  00129	80 f2 ed	 xor	 dl, -19			; ffffffedH
  0012c	88 55 f4	 mov	 BYTE PTR __k$[ebp+16], dl
  0012f	8a 50 11	 mov	 dl, BYTE PTR [eax+17]
  00132	84 d2		 test	 dl, dl
  00134	74 69		 je	 SHORT $LN79@LoadFloat_@3
  00136	32 d3		 xor	 dl, bl
  00138	88 55 f5	 mov	 BYTE PTR __k$[ebp+17], dl
  0013b	8a 50 12	 mov	 dl, BYTE PTR [eax+18]
  0013e	84 d2		 test	 dl, dl
  00140	74 58		 je	 SHORT $LN78@LoadFloat_@3
  00142	32 d1		 xor	 dl, cl
  00144	80 78 13 00	 cmp	 BYTE PTR [eax+19], 0
  00148	88 55 f6	 mov	 BYTE PTR __k$[ebp+18], dl
  0014b	0f 84 b1 00 00
	00		 je	 $LN1@LoadFloat_@3
  00151	8a 50 14	 mov	 dl, BYTE PTR [eax+20]
  00154	84 d2		 test	 dl, dl
  00156	74 3c		 je	 SHORT $LN76@LoadFloat_@3
  00158	80 f2 ed	 xor	 dl, -19			; ffffffedH
  0015b	88 55 f8	 mov	 BYTE PTR __k$[ebp+20], dl
  0015e	8a 50 15	 mov	 dl, BYTE PTR [eax+21]
  00161	84 d2		 test	 dl, dl
  00163	74 2a		 je	 SHORT $LN75@LoadFloat_@3
  00165	32 d3		 xor	 dl, bl
  00167	88 55 f9	 mov	 BYTE PTR __k$[ebp+21], dl
  0016a	8a 50 16	 mov	 dl, BYTE PTR [eax+22]
  0016d	84 d2		 test	 dl, dl
  0016f	74 19		 je	 SHORT $LN74@LoadFloat_@3
  00171	8a 40 17	 mov	 al, BYTE PTR [eax+23]
  00174	32 d1		 xor	 dl, cl
  00176	88 55 fa	 mov	 BYTE PTR __k$[ebp+22], dl
  00179	84 c0		 test	 al, al
  0017b	74 07		 je	 SHORT $LN73@LoadFloat_@3
  0017d	34 ea		 xor	 al, -22			; ffffffeaH
  0017f	88 45 fb	 mov	 BYTE PTR __k$[ebp+23], al
  00182	eb 7e		 jmp	 SHORT $LN1@LoadFloat_@3
$LN73@LoadFloat_@3:
  00184	c6 45 fb ea	 mov	 BYTE PTR __k$[ebp+23], -22 ; ffffffeaH
  00188	eb 78		 jmp	 SHORT $LN1@LoadFloat_@3
$LN74@LoadFloat_@3:
  0018a	88 4d fa	 mov	 BYTE PTR __k$[ebp+22], cl
  0018d	eb 73		 jmp	 SHORT $LN1@LoadFloat_@3
$LN75@LoadFloat_@3:
  0018f	88 5d f9	 mov	 BYTE PTR __k$[ebp+21], bl
  00192	eb 6e		 jmp	 SHORT $LN1@LoadFloat_@3
$LN76@LoadFloat_@3:
  00194	c6 45 f8 ed	 mov	 BYTE PTR __k$[ebp+20], -19 ; ffffffedH
  00198	eb 68		 jmp	 SHORT $LN1@LoadFloat_@3
$LN78@LoadFloat_@3:
  0019a	88 4d f6	 mov	 BYTE PTR __k$[ebp+18], cl
  0019d	eb 63		 jmp	 SHORT $LN1@LoadFloat_@3
$LN79@LoadFloat_@3:
  0019f	88 5d f5	 mov	 BYTE PTR __k$[ebp+17], bl
  001a2	eb 5e		 jmp	 SHORT $LN1@LoadFloat_@3
$LN80@LoadFloat_@3:
  001a4	c6 45 f4 ed	 mov	 BYTE PTR __k$[ebp+16], -19 ; ffffffedH
  001a8	eb 58		 jmp	 SHORT $LN1@LoadFloat_@3
$LN81@LoadFloat_@3:
  001aa	c6 45 f3 ea	 mov	 BYTE PTR __k$[ebp+15], -22 ; ffffffeaH
  001ae	eb 52		 jmp	 SHORT $LN1@LoadFloat_@3
$LN82@LoadFloat_@3:
  001b0	88 4d f2	 mov	 BYTE PTR __k$[ebp+14], cl
  001b3	eb 4d		 jmp	 SHORT $LN1@LoadFloat_@3
$LN83@LoadFloat_@3:
  001b5	88 5d f1	 mov	 BYTE PTR __k$[ebp+13], bl
  001b8	eb 48		 jmp	 SHORT $LN1@LoadFloat_@3
$LN84@LoadFloat_@3:
  001ba	c6 45 f0 ed	 mov	 BYTE PTR __k$[ebp+12], -19 ; ffffffedH
  001be	eb 42		 jmp	 SHORT $LN1@LoadFloat_@3
$LN85@LoadFloat_@3:
  001c0	c6 45 ef ea	 mov	 BYTE PTR __k$[ebp+11], -22 ; ffffffeaH
  001c4	eb 3c		 jmp	 SHORT $LN1@LoadFloat_@3
$LN86@LoadFloat_@3:
  001c6	88 4d ee	 mov	 BYTE PTR __k$[ebp+10], cl
  001c9	eb 37		 jmp	 SHORT $LN1@LoadFloat_@3
$LN87@LoadFloat_@3:
  001cb	88 5d ed	 mov	 BYTE PTR __k$[ebp+9], bl
  001ce	eb 32		 jmp	 SHORT $LN1@LoadFloat_@3
$LN88@LoadFloat_@3:
  001d0	c6 45 ec ed	 mov	 BYTE PTR __k$[ebp+8], -19 ; ffffffedH
  001d4	eb 2c		 jmp	 SHORT $LN1@LoadFloat_@3
$LN89@LoadFloat_@3:
  001d6	c6 45 eb ea	 mov	 BYTE PTR __k$[ebp+7], -22 ; ffffffeaH
  001da	eb 26		 jmp	 SHORT $LN1@LoadFloat_@3
$LN90@LoadFloat_@3:
  001dc	88 4d ea	 mov	 BYTE PTR __k$[ebp+6], cl
  001df	eb 21		 jmp	 SHORT $LN1@LoadFloat_@3
$LN91@LoadFloat_@3:
  001e1	88 5d e9	 mov	 BYTE PTR __k$[ebp+5], bl
  001e4	eb 1c		 jmp	 SHORT $LN1@LoadFloat_@3
$LN92@LoadFloat_@3:
  001e6	c6 45 e8 ed	 mov	 BYTE PTR __k$[ebp+4], -19 ; ffffffedH
  001ea	eb 16		 jmp	 SHORT $LN1@LoadFloat_@3
$LN93@LoadFloat_@3:
  001ec	c6 45 e7 ea	 mov	 BYTE PTR __k$[ebp+3], -22 ; ffffffeaH
  001f0	eb 10		 jmp	 SHORT $LN1@LoadFloat_@3
$LN94@LoadFloat_@3:
  001f2	c6 45 e6 eb	 mov	 BYTE PTR __k$[ebp+2], -21 ; ffffffebH
  001f6	eb 0a		 jmp	 SHORT $LN1@LoadFloat_@3
$LN95@LoadFloat_@3:
  001f8	c6 45 e5 ec	 mov	 BYTE PTR __k$[ebp+1], -20 ; ffffffecH
  001fc	eb 04		 jmp	 SHORT $LN1@LoadFloat_@3
$LN96@LoadFloat_@3:
  001fe	c6 45 e4 ed	 mov	 BYTE PTR __k$[ebp], -19	; ffffffedH
$LN1@LoadFloat_@3:
  00202	6a 04		 push	 4
  00204	8d 45 e4	 lea	 eax, DWORD PTR __k$[ebp]
  00207	c6 45 f7 00	 mov	 BYTE PTR __k$[ebp+19], 0
  0020b	5a		 pop	 edx
$LL104@LoadFloat_@3:
  0020c	81 30 ed ec eb
	ea		 xor	 DWORD PTR [eax], -353637139 ; eaebecedH
  00212	83 c0 04	 add	 eax, 4
  00215	4a		 dec	 edx
  00216	75 f4		 jne	 SHORT $LL104@LoadFloat_@3
  00218	6a 10		 push	 16			; 00000010H
  0021a	58		 pop	 eax
$LL101@LoadFloat_@3:
  0021b	8b c8		 mov	 ecx, eax
  0021d	81 e1 03 00 00
	80		 and	 ecx, -2147483645	; 80000003H
  00223	79 05		 jns	 SHORT $LN111@LoadFloat_@3
  00225	49		 dec	 ecx
  00226	83 c9 fc	 or	 ecx, -4			; fffffffcH
  00229	41		 inc	 ecx
$LN111@LoadFloat_@3:
  0022a	b2 ed		 mov	 dl, -19			; ffffffedH
  0022c	2a d1		 sub	 dl, cl
  0022e	30 54 05 e4	 xor	 BYTE PTR __k$[ebp+eax], dl
  00232	40		 inc	 eax
  00233	83 f8 13	 cmp	 eax, 19			; 00000013H
  00236	7c e3		 jl	 SHORT $LL101@LoadFloat_@3

; 137  : 		return LoadFloat(_k, f);

  00238	f3 0f 10 45 0c	 movss	 xmm0, DWORD PTR _f$[ebp]
  0023d	51		 push	 ecx
  0023e	8d 45 e4	 lea	 eax, DWORD PTR __k$[ebp]
  00241	f3 0f 11 04 24	 movss	 DWORD PTR [esp], xmm0
  00246	50		 push	 eax
  00247	8b ce		 mov	 ecx, esi
  00249	ff 15 00 00 00
	00		 call	 DWORD PTR __imp_?LoadFloat@ioINILoader@@QAEMPBDM@Z

; 138  : 	}

  0024f	8b 4d fc	 mov	 ecx, DWORD PTR __$ArrayPad$[ebp]
  00252	5e		 pop	 esi
  00253	33 cd		 xor	 ecx, ebp
  00255	5b		 pop	 ebx
  00256	e8 00 00 00 00	 call	 @__security_check_cookie@4
  0025b	c9		 leave
  0025c	c2 08 00	 ret	 8
??$LoadFloat_e@$0BE@@ioINILoader@@QAEMAAY0BE@$$CBDM@Z ENDP ; ioINILoader::LoadFloat_e<20>
_TEXT	ENDS
PUBLIC	__$ArrayPad$
PUBLIC	??$LoadFloat_e@$0BB@@ioINILoader@@QAEMAAY0BB@$$CBDM@Z ; ioINILoader::LoadFloat_e<17>
; Function compile flags: /Ogsp
;	COMDAT ??$LoadFloat_e@$0BB@@ioINILoader@@QAEMAAY0BB@$$CBDM@Z
_TEXT	SEGMENT
__k$ = -28						; size = 17
__$ArrayPad$ = -4					; size = 4
_k$ = 8							; size = 4
_f$ = 12						; size = 4
??$LoadFloat_e@$0BB@@ioINILoader@@QAEMAAY0BB@$$CBDM@Z PROC ; ioINILoader::LoadFloat_e<17>, COMDAT
; _this$ = ecx

; 135  : 	{

  00000	55		 push	 ebp
  00001	8b ec		 mov	 ebp, esp
  00003	83 ec 1c	 sub	 esp, 28			; 0000001cH
  00006	a1 00 00 00 00	 mov	 eax, DWORD PTR ___security_cookie
  0000b	33 c5		 xor	 eax, ebp
  0000d	89 45 fc	 mov	 DWORD PTR __$ArrayPad$[ebp], eax
  00010	8b 45 08	 mov	 eax, DWORD PTR _k$[ebp]

; 136  : 		_ENCSTR(k, _k);

  00013	8a 10		 mov	 dl, BYTE PTR [eax]
  00015	56		 push	 esi
  00016	8b f1		 mov	 esi, ecx
  00018	84 d2		 test	 dl, dl
  0001a	0f 84 a7 01 00
	00		 je	 $LN96@LoadFloat_@4
  00020	80 f2 ed	 xor	 dl, -19			; ffffffedH
  00023	88 55 e4	 mov	 BYTE PTR __k$[ebp], dl
  00026	8a 50 01	 mov	 dl, BYTE PTR [eax+1]
  00029	84 d2		 test	 dl, dl
  0002b	0f 84 90 01 00
	00		 je	 $LN95@LoadFloat_@4
  00031	b1 ec		 mov	 cl, -20			; ffffffecH
  00033	32 d1		 xor	 dl, cl
  00035	88 55 e5	 mov	 BYTE PTR __k$[ebp+1], dl
  00038	8a 50 02	 mov	 dl, BYTE PTR [eax+2]
  0003b	84 d2		 test	 dl, dl
  0003d	0f 84 78 01 00
	00		 je	 $LN94@LoadFloat_@4
  00043	80 f2 eb	 xor	 dl, -21			; ffffffebH
  00046	88 55 e6	 mov	 BYTE PTR __k$[ebp+2], dl
  00049	8a 50 03	 mov	 dl, BYTE PTR [eax+3]
  0004c	84 d2		 test	 dl, dl
  0004e	0f 84 61 01 00
	00		 je	 $LN93@LoadFloat_@4
  00054	80 f2 ea	 xor	 dl, -22			; ffffffeaH
  00057	88 55 e7	 mov	 BYTE PTR __k$[ebp+3], dl
  0005a	8a 50 04	 mov	 dl, BYTE PTR [eax+4]
  0005d	84 d2		 test	 dl, dl
  0005f	0f 84 4a 01 00
	00		 je	 $LN92@LoadFloat_@4
  00065	80 f2 ed	 xor	 dl, -19			; ffffffedH
  00068	88 55 e8	 mov	 BYTE PTR __k$[ebp+4], dl
  0006b	8a 50 05	 mov	 dl, BYTE PTR [eax+5]
  0006e	84 d2		 test	 dl, dl
  00070	0f 84 34 01 00
	00		 je	 $LN91@LoadFloat_@4
  00076	32 d1		 xor	 dl, cl
  00078	88 55 e9	 mov	 BYTE PTR __k$[ebp+5], dl
  0007b	8a 50 06	 mov	 dl, BYTE PTR [eax+6]
  0007e	84 d2		 test	 dl, dl
  00080	0f 84 1e 01 00
	00		 je	 $LN90@LoadFloat_@4
  00086	80 f2 eb	 xor	 dl, -21			; ffffffebH
  00089	88 55 ea	 mov	 BYTE PTR __k$[ebp+6], dl
  0008c	8a 50 07	 mov	 dl, BYTE PTR [eax+7]
  0008f	84 d2		 test	 dl, dl
  00091	0f 84 07 01 00
	00		 je	 $LN89@LoadFloat_@4
  00097	80 f2 ea	 xor	 dl, -22			; ffffffeaH
  0009a	88 55 eb	 mov	 BYTE PTR __k$[ebp+7], dl
  0009d	8a 50 08	 mov	 dl, BYTE PTR [eax+8]
  000a0	84 d2		 test	 dl, dl
  000a2	0f 84 f0 00 00
	00		 je	 $LN88@LoadFloat_@4
  000a8	80 f2 ed	 xor	 dl, -19			; ffffffedH
  000ab	88 55 ec	 mov	 BYTE PTR __k$[ebp+8], dl
  000ae	8a 50 09	 mov	 dl, BYTE PTR [eax+9]
  000b1	84 d2		 test	 dl, dl
  000b3	0f 84 da 00 00
	00		 je	 $LN87@LoadFloat_@4
  000b9	32 d1		 xor	 dl, cl
  000bb	88 55 ed	 mov	 BYTE PTR __k$[ebp+9], dl
  000be	8a 50 0a	 mov	 dl, BYTE PTR [eax+10]
  000c1	84 d2		 test	 dl, dl
  000c3	0f 84 c4 00 00
	00		 je	 $LN86@LoadFloat_@4
  000c9	80 f2 eb	 xor	 dl, -21			; ffffffebH
  000cc	88 55 ee	 mov	 BYTE PTR __k$[ebp+10], dl
  000cf	8a 50 0b	 mov	 dl, BYTE PTR [eax+11]
  000d2	84 d2		 test	 dl, dl
  000d4	0f 84 ad 00 00
	00		 je	 $LN85@LoadFloat_@4
  000da	80 f2 ea	 xor	 dl, -22			; ffffffeaH
  000dd	88 55 ef	 mov	 BYTE PTR __k$[ebp+11], dl
  000e0	8a 50 0c	 mov	 dl, BYTE PTR [eax+12]
  000e3	84 d2		 test	 dl, dl
  000e5	0f 84 96 00 00
	00		 je	 $LN84@LoadFloat_@4
  000eb	80 f2 ed	 xor	 dl, -19			; ffffffedH
  000ee	88 55 f0	 mov	 BYTE PTR __k$[ebp+12], dl
  000f1	8a 50 0d	 mov	 dl, BYTE PTR [eax+13]
  000f4	84 d2		 test	 dl, dl
  000f6	0f 84 80 00 00
	00		 je	 $LN83@LoadFloat_@4
  000fc	32 d1		 xor	 dl, cl
  000fe	88 55 f1	 mov	 BYTE PTR __k$[ebp+13], dl
  00101	8a 50 0e	 mov	 dl, BYTE PTR [eax+14]
  00104	84 d2		 test	 dl, dl
  00106	74 6e		 je	 SHORT $LN82@LoadFloat_@4
  00108	80 f2 eb	 xor	 dl, -21			; ffffffebH
  0010b	88 55 f2	 mov	 BYTE PTR __k$[ebp+14], dl
  0010e	8a 50 0f	 mov	 dl, BYTE PTR [eax+15]
  00111	84 d2		 test	 dl, dl
  00113	74 5b		 je	 SHORT $LN81@LoadFloat_@4
  00115	80 f2 ea	 xor	 dl, -22			; ffffffeaH
  00118	80 78 10 00	 cmp	 BYTE PTR [eax+16], 0
  0011c	88 55 f3	 mov	 BYTE PTR __k$[ebp+15], dl
  0011f	0f 84 a6 00 00
	00		 je	 $LN1@LoadFloat_@4
  00125	8a 50 11	 mov	 dl, BYTE PTR [eax+17]
  00128	84 d2		 test	 dl, dl
  0012a	74 3f		 je	 SHORT $LN79@LoadFloat_@4
  0012c	32 d1		 xor	 dl, cl
  0012e	88 55 f5	 mov	 BYTE PTR __k$[ebp+17], dl
  00131	8a 50 12	 mov	 dl, BYTE PTR [eax+18]
  00134	84 d2		 test	 dl, dl
  00136	74 2d		 je	 SHORT $LN78@LoadFloat_@4
  00138	80 f2 eb	 xor	 dl, -21			; ffffffebH
  0013b	88 55 f6	 mov	 BYTE PTR __k$[ebp+18], dl
  0013e	8a 50 13	 mov	 dl, BYTE PTR [eax+19]
  00141	84 d2		 test	 dl, dl
  00143	74 1a		 je	 SHORT $LN77@LoadFloat_@4
  00145	8a 40 14	 mov	 al, BYTE PTR [eax+20]
  00148	80 f2 ea	 xor	 dl, -22			; ffffffeaH
  0014b	88 55 f7	 mov	 BYTE PTR __k$[ebp+19], dl
  0014e	84 c0		 test	 al, al
  00150	74 07		 je	 SHORT $LN76@LoadFloat_@4
  00152	34 ed		 xor	 al, -19			; ffffffedH
  00154	88 45 f8	 mov	 BYTE PTR __k$[ebp+20], al
  00157	eb 72		 jmp	 SHORT $LN1@LoadFloat_@4
$LN76@LoadFloat_@4:
  00159	c6 45 f8 ed	 mov	 BYTE PTR __k$[ebp+20], -19 ; ffffffedH
  0015d	eb 6c		 jmp	 SHORT $LN1@LoadFloat_@4
$LN77@LoadFloat_@4:
  0015f	c6 45 f7 ea	 mov	 BYTE PTR __k$[ebp+19], -22 ; ffffffeaH
  00163	eb 66		 jmp	 SHORT $LN1@LoadFloat_@4
$LN78@LoadFloat_@4:
  00165	c6 45 f6 eb	 mov	 BYTE PTR __k$[ebp+18], -21 ; ffffffebH
  00169	eb 60		 jmp	 SHORT $LN1@LoadFloat_@4
$LN79@LoadFloat_@4:
  0016b	88 4d f5	 mov	 BYTE PTR __k$[ebp+17], cl
  0016e	eb 5b		 jmp	 SHORT $LN1@LoadFloat_@4
$LN81@LoadFloat_@4:
  00170	c6 45 f3 ea	 mov	 BYTE PTR __k$[ebp+15], -22 ; ffffffeaH
  00174	eb 55		 jmp	 SHORT $LN1@LoadFloat_@4
$LN82@LoadFloat_@4:
  00176	c6 45 f2 eb	 mov	 BYTE PTR __k$[ebp+14], -21 ; ffffffebH
  0017a	eb 4f		 jmp	 SHORT $LN1@LoadFloat_@4
$LN83@LoadFloat_@4:
  0017c	88 4d f1	 mov	 BYTE PTR __k$[ebp+13], cl
  0017f	eb 4a		 jmp	 SHORT $LN1@LoadFloat_@4
$LN84@LoadFloat_@4:
  00181	c6 45 f0 ed	 mov	 BYTE PTR __k$[ebp+12], -19 ; ffffffedH
  00185	eb 44		 jmp	 SHORT $LN1@LoadFloat_@4
$LN85@LoadFloat_@4:
  00187	c6 45 ef ea	 mov	 BYTE PTR __k$[ebp+11], -22 ; ffffffeaH
  0018b	eb 3e		 jmp	 SHORT $LN1@LoadFloat_@4
$LN86@LoadFloat_@4:
  0018d	c6 45 ee eb	 mov	 BYTE PTR __k$[ebp+10], -21 ; ffffffebH
  00191	eb 38		 jmp	 SHORT $LN1@LoadFloat_@4
$LN87@LoadFloat_@4:
  00193	88 4d ed	 mov	 BYTE PTR __k$[ebp+9], cl
  00196	eb 33		 jmp	 SHORT $LN1@LoadFloat_@4
$LN88@LoadFloat_@4:
  00198	c6 45 ec ed	 mov	 BYTE PTR __k$[ebp+8], -19 ; ffffffedH
  0019c	eb 2d		 jmp	 SHORT $LN1@LoadFloat_@4
$LN89@LoadFloat_@4:
  0019e	c6 45 eb ea	 mov	 BYTE PTR __k$[ebp+7], -22 ; ffffffeaH
  001a2	eb 27		 jmp	 SHORT $LN1@LoadFloat_@4
$LN90@LoadFloat_@4:
  001a4	c6 45 ea eb	 mov	 BYTE PTR __k$[ebp+6], -21 ; ffffffebH
  001a8	eb 21		 jmp	 SHORT $LN1@LoadFloat_@4
$LN91@LoadFloat_@4:
  001aa	88 4d e9	 mov	 BYTE PTR __k$[ebp+5], cl
  001ad	eb 1c		 jmp	 SHORT $LN1@LoadFloat_@4
$LN92@LoadFloat_@4:
  001af	c6 45 e8 ed	 mov	 BYTE PTR __k$[ebp+4], -19 ; ffffffedH
  001b3	eb 16		 jmp	 SHORT $LN1@LoadFloat_@4
$LN93@LoadFloat_@4:
  001b5	c6 45 e7 ea	 mov	 BYTE PTR __k$[ebp+3], -22 ; ffffffeaH
  001b9	eb 10		 jmp	 SHORT $LN1@LoadFloat_@4
$LN94@LoadFloat_@4:
  001bb	c6 45 e6 eb	 mov	 BYTE PTR __k$[ebp+2], -21 ; ffffffebH
  001bf	eb 0a		 jmp	 SHORT $LN1@LoadFloat_@4
$LN95@LoadFloat_@4:
  001c1	c6 45 e5 ec	 mov	 BYTE PTR __k$[ebp+1], -20 ; ffffffecH
  001c5	eb 04		 jmp	 SHORT $LN1@LoadFloat_@4
$LN96@LoadFloat_@4:
  001c7	c6 45 e4 ed	 mov	 BYTE PTR __k$[ebp], -19	; ffffffedH
$LN1@LoadFloat_@4:
  001cb	6a 04		 push	 4
  001cd	8d 45 e4	 lea	 eax, DWORD PTR __k$[ebp]
  001d0	c6 45 f4 00	 mov	 BYTE PTR __k$[ebp+16], 0
  001d4	5a		 pop	 edx
$LL104@LoadFloat_@4:
  001d5	81 30 ed ec eb
	ea		 xor	 DWORD PTR [eax], -353637139 ; eaebecedH
  001db	83 c0 04	 add	 eax, 4
  001de	4a		 dec	 edx
  001df	75 f4		 jne	 SHORT $LL104@LoadFloat_@4

; 137  : 		return LoadFloat(_k, f);

  001e1	f3 0f 10 45 0c	 movss	 xmm0, DWORD PTR _f$[ebp]
  001e6	51		 push	 ecx
  001e7	8d 45 e4	 lea	 eax, DWORD PTR __k$[ebp]
  001ea	f3 0f 11 04 24	 movss	 DWORD PTR [esp], xmm0
  001ef	50		 push	 eax
  001f0	8b ce		 mov	 ecx, esi
  001f2	ff 15 00 00 00
	00		 call	 DWORD PTR __imp_?LoadFloat@ioINILoader@@QAEMPBDM@Z

; 138  : 	}

  001f8	8b 4d fc	 mov	 ecx, DWORD PTR __$ArrayPad$[ebp]
  001fb	33 cd		 xor	 ecx, ebp
  001fd	5e		 pop	 esi
  001fe	e8 00 00 00 00	 call	 @__security_check_cookie@4
  00203	c9		 leave
  00204	c2 08 00	 ret	 8
??$LoadFloat_e@$0BB@@ioINILoader@@QAEMAAY0BB@$$CBDM@Z ENDP ; ioINILoader::LoadFloat_e<17>
_TEXT	ENDS
PUBLIC	__$ArrayPad$
PUBLIC	??$LoadFloat_e@$0BI@@ioINILoader@@QAEMAAY0BI@$$CBDM@Z ; ioINILoader::LoadFloat_e<24>
; Function compile flags: /Ogsp
;	COMDAT ??$LoadFloat_e@$0BI@@ioINILoader@@QAEMAAY0BI@$$CBDM@Z
_TEXT	SEGMENT
__k$ = -32						; size = 24
__$ArrayPad$ = -4					; size = 4
_k$ = 8							; size = 4
_f$ = 12						; size = 4
??$LoadFloat_e@$0BI@@ioINILoader@@QAEMAAY0BI@$$CBDM@Z PROC ; ioINILoader::LoadFloat_e<24>, COMDAT
; _this$ = ecx

; 135  : 	{

  00000	55		 push	 ebp
  00001	8b ec		 mov	 ebp, esp
  00003	83 ec 20	 sub	 esp, 32			; 00000020H
  00006	a1 00 00 00 00	 mov	 eax, DWORD PTR ___security_cookie
  0000b	33 c5		 xor	 eax, ebp
  0000d	89 45 fc	 mov	 DWORD PTR __$ArrayPad$[ebp], eax
  00010	8b 45 08	 mov	 eax, DWORD PTR _k$[ebp]

; 136  : 		_ENCSTR(k, _k);

  00013	8a 10		 mov	 dl, BYTE PTR [eax]
  00015	53		 push	 ebx
  00016	56		 push	 esi
  00017	8b f1		 mov	 esi, ecx
  00019	84 d2		 test	 dl, dl
  0001b	0f 84 45 02 00
	00		 je	 $LN96@LoadFloat_@5
  00021	80 f2 ed	 xor	 dl, -19			; ffffffedH
  00024	88 55 e0	 mov	 BYTE PTR __k$[ebp], dl
  00027	8a 50 01	 mov	 dl, BYTE PTR [eax+1]
  0002a	84 d2		 test	 dl, dl
  0002c	0f 84 2e 02 00
	00		 je	 $LN95@LoadFloat_@5
  00032	b3 ec		 mov	 bl, -20			; ffffffecH
  00034	32 d3		 xor	 dl, bl
  00036	88 55 e1	 mov	 BYTE PTR __k$[ebp+1], dl
  00039	8a 50 02	 mov	 dl, BYTE PTR [eax+2]
  0003c	84 d2		 test	 dl, dl
  0003e	0f 84 16 02 00
	00		 je	 $LN94@LoadFloat_@5
  00044	b1 eb		 mov	 cl, -21			; ffffffebH
  00046	32 d1		 xor	 dl, cl
  00048	88 55 e2	 mov	 BYTE PTR __k$[ebp+2], dl
  0004b	8a 50 03	 mov	 dl, BYTE PTR [eax+3]
  0004e	84 d2		 test	 dl, dl
  00050	0f 84 fe 01 00
	00		 je	 $LN93@LoadFloat_@5
  00056	80 f2 ea	 xor	 dl, -22			; ffffffeaH
  00059	88 55 e3	 mov	 BYTE PTR __k$[ebp+3], dl
  0005c	8a 50 04	 mov	 dl, BYTE PTR [eax+4]
  0005f	84 d2		 test	 dl, dl
  00061	0f 84 e7 01 00
	00		 je	 $LN92@LoadFloat_@5
  00067	80 f2 ed	 xor	 dl, -19			; ffffffedH
  0006a	88 55 e4	 mov	 BYTE PTR __k$[ebp+4], dl
  0006d	8a 50 05	 mov	 dl, BYTE PTR [eax+5]
  00070	84 d2		 test	 dl, dl
  00072	0f 84 d1 01 00
	00		 je	 $LN91@LoadFloat_@5
  00078	32 d3		 xor	 dl, bl
  0007a	88 55 e5	 mov	 BYTE PTR __k$[ebp+5], dl
  0007d	8a 50 06	 mov	 dl, BYTE PTR [eax+6]
  00080	84 d2		 test	 dl, dl
  00082	0f 84 bc 01 00
	00		 je	 $LN90@LoadFloat_@5
  00088	32 d1		 xor	 dl, cl
  0008a	88 55 e6	 mov	 BYTE PTR __k$[ebp+6], dl
  0008d	8a 50 07	 mov	 dl, BYTE PTR [eax+7]
  00090	84 d2		 test	 dl, dl
  00092	0f 84 a6 01 00
	00		 je	 $LN89@LoadFloat_@5
  00098	80 f2 ea	 xor	 dl, -22			; ffffffeaH
  0009b	88 55 e7	 mov	 BYTE PTR __k$[ebp+7], dl
  0009e	8a 50 08	 mov	 dl, BYTE PTR [eax+8]
  000a1	84 d2		 test	 dl, dl
  000a3	0f 84 8f 01 00
	00		 je	 $LN88@LoadFloat_@5
  000a9	80 f2 ed	 xor	 dl, -19			; ffffffedH
  000ac	88 55 e8	 mov	 BYTE PTR __k$[ebp+8], dl
  000af	8a 50 09	 mov	 dl, BYTE PTR [eax+9]
  000b2	84 d2		 test	 dl, dl
  000b4	0f 84 79 01 00
	00		 je	 $LN87@LoadFloat_@5
  000ba	32 d3		 xor	 dl, bl
  000bc	88 55 e9	 mov	 BYTE PTR __k$[ebp+9], dl
  000bf	8a 50 0a	 mov	 dl, BYTE PTR [eax+10]
  000c2	84 d2		 test	 dl, dl
  000c4	0f 84 64 01 00
	00		 je	 $LN86@LoadFloat_@5
  000ca	32 d1		 xor	 dl, cl
  000cc	88 55 ea	 mov	 BYTE PTR __k$[ebp+10], dl
  000cf	8a 50 0b	 mov	 dl, BYTE PTR [eax+11]
  000d2	84 d2		 test	 dl, dl
  000d4	0f 84 4e 01 00
	00		 je	 $LN85@LoadFloat_@5
  000da	80 f2 ea	 xor	 dl, -22			; ffffffeaH
  000dd	88 55 eb	 mov	 BYTE PTR __k$[ebp+11], dl
  000e0	8a 50 0c	 mov	 dl, BYTE PTR [eax+12]
  000e3	84 d2		 test	 dl, dl
  000e5	0f 84 37 01 00
	00		 je	 $LN84@LoadFloat_@5
  000eb	80 f2 ed	 xor	 dl, -19			; ffffffedH
  000ee	88 55 ec	 mov	 BYTE PTR __k$[ebp+12], dl
  000f1	8a 50 0d	 mov	 dl, BYTE PTR [eax+13]
  000f4	84 d2		 test	 dl, dl
  000f6	0f 84 21 01 00
	00		 je	 $LN83@LoadFloat_@5
  000fc	32 d3		 xor	 dl, bl
  000fe	88 55 ed	 mov	 BYTE PTR __k$[ebp+13], dl
  00101	8a 50 0e	 mov	 dl, BYTE PTR [eax+14]
  00104	84 d2		 test	 dl, dl
  00106	0f 84 0c 01 00
	00		 je	 $LN82@LoadFloat_@5
  0010c	32 d1		 xor	 dl, cl
  0010e	88 55 ee	 mov	 BYTE PTR __k$[ebp+14], dl
  00111	8a 50 0f	 mov	 dl, BYTE PTR [eax+15]
  00114	84 d2		 test	 dl, dl
  00116	0f 84 f6 00 00
	00		 je	 $LN81@LoadFloat_@5
  0011c	80 f2 ea	 xor	 dl, -22			; ffffffeaH
  0011f	88 55 ef	 mov	 BYTE PTR __k$[ebp+15], dl
  00122	8a 50 10	 mov	 dl, BYTE PTR [eax+16]
  00125	84 d2		 test	 dl, dl
  00127	0f 84 df 00 00
	00		 je	 $LN80@LoadFloat_@5
  0012d	80 f2 ed	 xor	 dl, -19			; ffffffedH
  00130	88 55 f0	 mov	 BYTE PTR __k$[ebp+16], dl
  00133	8a 50 11	 mov	 dl, BYTE PTR [eax+17]
  00136	84 d2		 test	 dl, dl
  00138	0f 84 c9 00 00
	00		 je	 $LN79@LoadFloat_@5
  0013e	32 d3		 xor	 dl, bl
  00140	88 55 f1	 mov	 BYTE PTR __k$[ebp+17], dl
  00143	8a 50 12	 mov	 dl, BYTE PTR [eax+18]
  00146	84 d2		 test	 dl, dl
  00148	0f 84 b4 00 00
	00		 je	 $LN78@LoadFloat_@5
  0014e	32 d1		 xor	 dl, cl
  00150	88 55 f2	 mov	 BYTE PTR __k$[ebp+18], dl
  00153	8a 50 13	 mov	 dl, BYTE PTR [eax+19]
  00156	84 d2		 test	 dl, dl
  00158	0f 84 9e 00 00
	00		 je	 $LN77@LoadFloat_@5
  0015e	80 f2 ea	 xor	 dl, -22			; ffffffeaH
  00161	88 55 f3	 mov	 BYTE PTR __k$[ebp+19], dl
  00164	8a 50 14	 mov	 dl, BYTE PTR [eax+20]
  00167	84 d2		 test	 dl, dl
  00169	0f 84 87 00 00
	00		 je	 $LN76@LoadFloat_@5
  0016f	80 f2 ed	 xor	 dl, -19			; ffffffedH
  00172	88 55 f4	 mov	 BYTE PTR __k$[ebp+20], dl
  00175	8a 50 15	 mov	 dl, BYTE PTR [eax+21]
  00178	84 d2		 test	 dl, dl
  0017a	74 75		 je	 SHORT $LN75@LoadFloat_@5
  0017c	32 d3		 xor	 dl, bl
  0017e	88 55 f5	 mov	 BYTE PTR __k$[ebp+21], dl
  00181	8a 50 16	 mov	 dl, BYTE PTR [eax+22]
  00184	84 d2		 test	 dl, dl
  00186	74 64		 je	 SHORT $LN74@LoadFloat_@5
  00188	32 d1		 xor	 dl, cl
  0018a	80 78 17 00	 cmp	 BYTE PTR [eax+23], 0
  0018e	88 55 f6	 mov	 BYTE PTR __k$[ebp+22], dl
  00191	0f 84 d3 00 00
	00		 je	 $LN1@LoadFloat_@5
  00197	8a 50 18	 mov	 dl, BYTE PTR [eax+24]
  0019a	84 d2		 test	 dl, dl
  0019c	74 48		 je	 SHORT $LN72@LoadFloat_@5
  0019e	80 f2 ed	 xor	 dl, -19			; ffffffedH
  001a1	88 55 f8	 mov	 BYTE PTR __k$[ebp+24], dl
  001a4	8a 50 19	 mov	 dl, BYTE PTR [eax+25]
  001a7	84 d2		 test	 dl, dl
  001a9	74 33		 je	 SHORT $LN71@LoadFloat_@5
  001ab	32 d3		 xor	 dl, bl
  001ad	88 55 f9	 mov	 BYTE PTR __k$[ebp+25], dl
  001b0	8a 50 1a	 mov	 dl, BYTE PTR [eax+26]
  001b3	84 d2		 test	 dl, dl
  001b5	74 1f		 je	 SHORT $LN70@LoadFloat_@5
  001b7	8a 40 1b	 mov	 al, BYTE PTR [eax+27]
  001ba	32 d1		 xor	 dl, cl
  001bc	88 55 fa	 mov	 BYTE PTR __k$[ebp+26], dl
  001bf	84 c0		 test	 al, al
  001c1	74 0a		 je	 SHORT $LN69@LoadFloat_@5
  001c3	34 ea		 xor	 al, -22			; ffffffeaH
  001c5	88 45 fb	 mov	 BYTE PTR __k$[ebp+27], al
  001c8	e9 9d 00 00 00	 jmp	 $LN1@LoadFloat_@5
$LN69@LoadFloat_@5:
  001cd	c6 45 fb ea	 mov	 BYTE PTR __k$[ebp+27], -22 ; ffffffeaH
  001d1	e9 94 00 00 00	 jmp	 $LN1@LoadFloat_@5
$LN70@LoadFloat_@5:
  001d6	88 4d fa	 mov	 BYTE PTR __k$[ebp+26], cl
  001d9	e9 8c 00 00 00	 jmp	 $LN1@LoadFloat_@5
$LN71@LoadFloat_@5:
  001de	88 5d f9	 mov	 BYTE PTR __k$[ebp+25], bl
  001e1	e9 84 00 00 00	 jmp	 $LN1@LoadFloat_@5
$LN72@LoadFloat_@5:
  001e6	c6 45 f8 ed	 mov	 BYTE PTR __k$[ebp+24], -19 ; ffffffedH
  001ea	eb 7e		 jmp	 SHORT $LN1@LoadFloat_@5
$LN74@LoadFloat_@5:
  001ec	88 4d f6	 mov	 BYTE PTR __k$[ebp+22], cl
  001ef	eb 79		 jmp	 SHORT $LN1@LoadFloat_@5
$LN75@LoadFloat_@5:
  001f1	88 5d f5	 mov	 BYTE PTR __k$[ebp+21], bl
  001f4	eb 74		 jmp	 SHORT $LN1@LoadFloat_@5
$LN76@LoadFloat_@5:
  001f6	c6 45 f4 ed	 mov	 BYTE PTR __k$[ebp+20], -19 ; ffffffedH
  001fa	eb 6e		 jmp	 SHORT $LN1@LoadFloat_@5
$LN77@LoadFloat_@5:
  001fc	c6 45 f3 ea	 mov	 BYTE PTR __k$[ebp+19], -22 ; ffffffeaH
  00200	eb 68		 jmp	 SHORT $LN1@LoadFloat_@5
$LN78@LoadFloat_@5:
  00202	88 4d f2	 mov	 BYTE PTR __k$[ebp+18], cl
  00205	eb 63		 jmp	 SHORT $LN1@LoadFloat_@5
$LN79@LoadFloat_@5:
  00207	88 5d f1	 mov	 BYTE PTR __k$[ebp+17], bl
  0020a	eb 5e		 jmp	 SHORT $LN1@LoadFloat_@5
$LN80@LoadFloat_@5:
  0020c	c6 45 f0 ed	 mov	 BYTE PTR __k$[ebp+16], -19 ; ffffffedH
  00210	eb 58		 jmp	 SHORT $LN1@LoadFloat_@5
$LN81@LoadFloat_@5:
  00212	c6 45 ef ea	 mov	 BYTE PTR __k$[ebp+15], -22 ; ffffffeaH
  00216	eb 52		 jmp	 SHORT $LN1@LoadFloat_@5
$LN82@LoadFloat_@5:
  00218	88 4d ee	 mov	 BYTE PTR __k$[ebp+14], cl
  0021b	eb 4d		 jmp	 SHORT $LN1@LoadFloat_@5
$LN83@LoadFloat_@5:
  0021d	88 5d ed	 mov	 BYTE PTR __k$[ebp+13], bl
  00220	eb 48		 jmp	 SHORT $LN1@LoadFloat_@5
$LN84@LoadFloat_@5:
  00222	c6 45 ec ed	 mov	 BYTE PTR __k$[ebp+12], -19 ; ffffffedH
  00226	eb 42		 jmp	 SHORT $LN1@LoadFloat_@5
$LN85@LoadFloat_@5:
  00228	c6 45 eb ea	 mov	 BYTE PTR __k$[ebp+11], -22 ; ffffffeaH
  0022c	eb 3c		 jmp	 SHORT $LN1@LoadFloat_@5
$LN86@LoadFloat_@5:
  0022e	88 4d ea	 mov	 BYTE PTR __k$[ebp+10], cl
  00231	eb 37		 jmp	 SHORT $LN1@LoadFloat_@5
$LN87@LoadFloat_@5:
  00233	88 5d e9	 mov	 BYTE PTR __k$[ebp+9], bl
  00236	eb 32		 jmp	 SHORT $LN1@LoadFloat_@5
$LN88@LoadFloat_@5:
  00238	c6 45 e8 ed	 mov	 BYTE PTR __k$[ebp+8], -19 ; ffffffedH
  0023c	eb 2c		 jmp	 SHORT $LN1@LoadFloat_@5
$LN89@LoadFloat_@5:
  0023e	c6 45 e7 ea	 mov	 BYTE PTR __k$[ebp+7], -22 ; ffffffeaH
  00242	eb 26		 jmp	 SHORT $LN1@LoadFloat_@5
$LN90@LoadFloat_@5:
  00244	88 4d e6	 mov	 BYTE PTR __k$[ebp+6], cl
  00247	eb 21		 jmp	 SHORT $LN1@LoadFloat_@5
$LN91@LoadFloat_@5:
  00249	88 5d e5	 mov	 BYTE PTR __k$[ebp+5], bl
  0024c	eb 1c		 jmp	 SHORT $LN1@LoadFloat_@5
$LN92@LoadFloat_@5:
  0024e	c6 45 e4 ed	 mov	 BYTE PTR __k$[ebp+4], -19 ; ffffffedH
  00252	eb 16		 jmp	 SHORT $LN1@LoadFloat_@5
$LN93@LoadFloat_@5:
  00254	c6 45 e3 ea	 mov	 BYTE PTR __k$[ebp+3], -22 ; ffffffeaH
  00258	eb 10		 jmp	 SHORT $LN1@LoadFloat_@5
$LN94@LoadFloat_@5:
  0025a	c6 45 e2 eb	 mov	 BYTE PTR __k$[ebp+2], -21 ; ffffffebH
  0025e	eb 0a		 jmp	 SHORT $LN1@LoadFloat_@5
$LN95@LoadFloat_@5:
  00260	c6 45 e1 ec	 mov	 BYTE PTR __k$[ebp+1], -20 ; ffffffecH
  00264	eb 04		 jmp	 SHORT $LN1@LoadFloat_@5
$LN96@LoadFloat_@5:
  00266	c6 45 e0 ed	 mov	 BYTE PTR __k$[ebp], -19	; ffffffedH
$LN1@LoadFloat_@5:
  0026a	6a 05		 push	 5
  0026c	8d 45 e0	 lea	 eax, DWORD PTR __k$[ebp]
  0026f	c6 45 f7 00	 mov	 BYTE PTR __k$[ebp+23], 0
  00273	5a		 pop	 edx
$LL104@LoadFloat_@5:
  00274	81 30 ed ec eb
	ea		 xor	 DWORD PTR [eax], -353637139 ; eaebecedH
  0027a	83 c0 04	 add	 eax, 4
  0027d	4a		 dec	 edx
  0027e	75 f4		 jne	 SHORT $LL104@LoadFloat_@5
  00280	6a 14		 push	 20			; 00000014H
  00282	58		 pop	 eax
$LL101@LoadFloat_@5:
  00283	8b c8		 mov	 ecx, eax
  00285	81 e1 03 00 00
	80		 and	 ecx, -2147483645	; 80000003H
  0028b	79 05		 jns	 SHORT $LN111@LoadFloat_@5
  0028d	49		 dec	 ecx
  0028e	83 c9 fc	 or	 ecx, -4			; fffffffcH
  00291	41		 inc	 ecx
$LN111@LoadFloat_@5:
  00292	b2 ed		 mov	 dl, -19			; ffffffedH
  00294	2a d1		 sub	 dl, cl
  00296	30 54 05 e0	 xor	 BYTE PTR __k$[ebp+eax], dl
  0029a	40		 inc	 eax
  0029b	83 f8 17	 cmp	 eax, 23			; 00000017H
  0029e	7c e3		 jl	 SHORT $LL101@LoadFloat_@5

; 137  : 		return LoadFloat(_k, f);

  002a0	f3 0f 10 45 0c	 movss	 xmm0, DWORD PTR _f$[ebp]
  002a5	51		 push	 ecx
  002a6	8d 45 e0	 lea	 eax, DWORD PTR __k$[ebp]
  002a9	f3 0f 11 04 24	 movss	 DWORD PTR [esp], xmm0
  002ae	50		 push	 eax
  002af	8b ce		 mov	 ecx, esi
  002b1	ff 15 00 00 00
	00		 call	 DWORD PTR __imp_?LoadFloat@ioINILoader@@QAEMPBDM@Z

; 138  : 	}

  002b7	8b 4d fc	 mov	 ecx, DWORD PTR __$ArrayPad$[ebp]
  002ba	5e		 pop	 esi
  002bb	33 cd		 xor	 ecx, ebp
  002bd	5b		 pop	 ebx
  002be	e8 00 00 00 00	 call	 @__security_check_cookie@4
  002c3	c9		 leave
  002c4	c2 08 00	 ret	 8
??$LoadFloat_e@$0BI@@ioINILoader@@QAEMAAY0BI@$$CBDM@Z ENDP ; ioINILoader::LoadFloat_e<24>
_TEXT	ENDS
PUBLIC	__$ArrayPad$
PUBLIC	??$LoadBool_e@$0BJ@@ioINILoader@@QAE_NAAY0BJ@$$CBD_N@Z ; ioINILoader::LoadBool_e<25>
EXTRN	__imp_?LoadBool@ioINILoader@@QAE_NPBD_N@Z:PROC
; Function compile flags: /Ogsp
;	COMDAT ??$LoadBool_e@$0BJ@@ioINILoader@@QAE_NAAY0BJ@$$CBD_N@Z
_TEXT	SEGMENT
__k$ = -36						; size = 25
__$ArrayPad$ = -4					; size = 4
_k$ = 8							; size = 4
_b$ = 12						; size = 1
??$LoadBool_e@$0BJ@@ioINILoader@@QAE_NAAY0BJ@$$CBD_N@Z PROC ; ioINILoader::LoadBool_e<25>, COMDAT
; _this$ = ecx

; 101  : 	{

  00000	55		 push	 ebp
  00001	8b ec		 mov	 ebp, esp
  00003	83 ec 24	 sub	 esp, 36			; 00000024H
  00006	a1 00 00 00 00	 mov	 eax, DWORD PTR ___security_cookie
  0000b	33 c5		 xor	 eax, ebp
  0000d	89 45 fc	 mov	 DWORD PTR __$ArrayPad$[ebp], eax
  00010	8b 45 08	 mov	 eax, DWORD PTR _k$[ebp]

; 102  : 		_ENCSTR(k, _k);

  00013	8a 10		 mov	 dl, BYTE PTR [eax]
  00015	53		 push	 ebx
  00016	56		 push	 esi
  00017	8b f1		 mov	 esi, ecx
  00019	84 d2		 test	 dl, dl
  0001b	0f 84 5f 02 00
	00		 je	 $LN96@LoadBool_e
  00021	80 f2 ed	 xor	 dl, -19			; ffffffedH
  00024	88 55 dc	 mov	 BYTE PTR __k$[ebp], dl
  00027	8a 50 01	 mov	 dl, BYTE PTR [eax+1]
  0002a	84 d2		 test	 dl, dl
  0002c	0f 84 48 02 00
	00		 je	 $LN95@LoadBool_e
  00032	b1 ec		 mov	 cl, -20			; ffffffecH
  00034	32 d1		 xor	 dl, cl
  00036	88 55 dd	 mov	 BYTE PTR __k$[ebp+1], dl
  00039	8a 50 02	 mov	 dl, BYTE PTR [eax+2]
  0003c	84 d2		 test	 dl, dl
  0003e	0f 84 30 02 00
	00		 je	 $LN94@LoadBool_e
  00044	b3 eb		 mov	 bl, -21			; ffffffebH
  00046	32 d3		 xor	 dl, bl
  00048	88 55 de	 mov	 BYTE PTR __k$[ebp+2], dl
  0004b	8a 50 03	 mov	 dl, BYTE PTR [eax+3]
  0004e	84 d2		 test	 dl, dl
  00050	0f 84 18 02 00
	00		 je	 $LN93@LoadBool_e
  00056	80 f2 ea	 xor	 dl, -22			; ffffffeaH
  00059	88 55 df	 mov	 BYTE PTR __k$[ebp+3], dl
  0005c	8a 50 04	 mov	 dl, BYTE PTR [eax+4]
  0005f	84 d2		 test	 dl, dl
  00061	0f 84 01 02 00
	00		 je	 $LN92@LoadBool_e
  00067	80 f2 ed	 xor	 dl, -19			; ffffffedH
  0006a	88 55 e0	 mov	 BYTE PTR __k$[ebp+4], dl
  0006d	8a 50 05	 mov	 dl, BYTE PTR [eax+5]
  00070	84 d2		 test	 dl, dl
  00072	0f 84 eb 01 00
	00		 je	 $LN91@LoadBool_e
  00078	32 d1		 xor	 dl, cl
  0007a	88 55 e1	 mov	 BYTE PTR __k$[ebp+5], dl
  0007d	8a 50 06	 mov	 dl, BYTE PTR [eax+6]
  00080	84 d2		 test	 dl, dl
  00082	0f 84 d6 01 00
	00		 je	 $LN90@LoadBool_e
  00088	32 d3		 xor	 dl, bl
  0008a	88 55 e2	 mov	 BYTE PTR __k$[ebp+6], dl
  0008d	8a 50 07	 mov	 dl, BYTE PTR [eax+7]
  00090	84 d2		 test	 dl, dl
  00092	0f 84 c0 01 00
	00		 je	 $LN89@LoadBool_e
  00098	80 f2 ea	 xor	 dl, -22			; ffffffeaH
  0009b	88 55 e3	 mov	 BYTE PTR __k$[ebp+7], dl
  0009e	8a 50 08	 mov	 dl, BYTE PTR [eax+8]
  000a1	84 d2		 test	 dl, dl
  000a3	0f 84 a9 01 00
	00		 je	 $LN88@LoadBool_e
  000a9	80 f2 ed	 xor	 dl, -19			; ffffffedH
  000ac	88 55 e4	 mov	 BYTE PTR __k$[ebp+8], dl
  000af	8a 50 09	 mov	 dl, BYTE PTR [eax+9]
  000b2	84 d2		 test	 dl, dl
  000b4	0f 84 93 01 00
	00		 je	 $LN87@LoadBool_e
  000ba	32 d1		 xor	 dl, cl
  000bc	88 55 e5	 mov	 BYTE PTR __k$[ebp+9], dl
  000bf	8a 50 0a	 mov	 dl, BYTE PTR [eax+10]
  000c2	84 d2		 test	 dl, dl
  000c4	0f 84 7e 01 00
	00		 je	 $LN86@LoadBool_e
  000ca	32 d3		 xor	 dl, bl
  000cc	88 55 e6	 mov	 BYTE PTR __k$[ebp+10], dl
  000cf	8a 50 0b	 mov	 dl, BYTE PTR [eax+11]
  000d2	84 d2		 test	 dl, dl
  000d4	0f 84 68 01 00
	00		 je	 $LN85@LoadBool_e
  000da	80 f2 ea	 xor	 dl, -22			; ffffffeaH
  000dd	88 55 e7	 mov	 BYTE PTR __k$[ebp+11], dl
  000e0	8a 50 0c	 mov	 dl, BYTE PTR [eax+12]
  000e3	84 d2		 test	 dl, dl
  000e5	0f 84 51 01 00
	00		 je	 $LN84@LoadBool_e
  000eb	80 f2 ed	 xor	 dl, -19			; ffffffedH
  000ee	88 55 e8	 mov	 BYTE PTR __k$[ebp+12], dl
  000f1	8a 50 0d	 mov	 dl, BYTE PTR [eax+13]
  000f4	84 d2		 test	 dl, dl
  000f6	0f 84 3b 01 00
	00		 je	 $LN83@LoadBool_e
  000fc	32 d1		 xor	 dl, cl
  000fe	88 55 e9	 mov	 BYTE PTR __k$[ebp+13], dl
  00101	8a 50 0e	 mov	 dl, BYTE PTR [eax+14]
  00104	84 d2		 test	 dl, dl
  00106	0f 84 26 01 00
	00		 je	 $LN82@LoadBool_e
  0010c	32 d3		 xor	 dl, bl
  0010e	88 55 ea	 mov	 BYTE PTR __k$[ebp+14], dl
  00111	8a 50 0f	 mov	 dl, BYTE PTR [eax+15]
  00114	84 d2		 test	 dl, dl
  00116	0f 84 10 01 00
	00		 je	 $LN81@LoadBool_e
  0011c	80 f2 ea	 xor	 dl, -22			; ffffffeaH
  0011f	88 55 eb	 mov	 BYTE PTR __k$[ebp+15], dl
  00122	8a 50 10	 mov	 dl, BYTE PTR [eax+16]
  00125	84 d2		 test	 dl, dl
  00127	0f 84 f9 00 00
	00		 je	 $LN80@LoadBool_e
  0012d	80 f2 ed	 xor	 dl, -19			; ffffffedH
  00130	88 55 ec	 mov	 BYTE PTR __k$[ebp+16], dl
  00133	8a 50 11	 mov	 dl, BYTE PTR [eax+17]
  00136	84 d2		 test	 dl, dl
  00138	0f 84 e3 00 00
	00		 je	 $LN79@LoadBool_e
  0013e	32 d1		 xor	 dl, cl
  00140	88 55 ed	 mov	 BYTE PTR __k$[ebp+17], dl
  00143	8a 50 12	 mov	 dl, BYTE PTR [eax+18]
  00146	84 d2		 test	 dl, dl
  00148	0f 84 ce 00 00
	00		 je	 $LN78@LoadBool_e
  0014e	32 d3		 xor	 dl, bl
  00150	88 55 ee	 mov	 BYTE PTR __k$[ebp+18], dl
  00153	8a 50 13	 mov	 dl, BYTE PTR [eax+19]
  00156	84 d2		 test	 dl, dl
  00158	0f 84 b8 00 00
	00		 je	 $LN77@LoadBool_e
  0015e	80 f2 ea	 xor	 dl, -22			; ffffffeaH
  00161	88 55 ef	 mov	 BYTE PTR __k$[ebp+19], dl
  00164	8a 50 14	 mov	 dl, BYTE PTR [eax+20]
  00167	84 d2		 test	 dl, dl
  00169	0f 84 a1 00 00
	00		 je	 $LN76@LoadBool_e
  0016f	80 f2 ed	 xor	 dl, -19			; ffffffedH
  00172	88 55 f0	 mov	 BYTE PTR __k$[ebp+20], dl
  00175	8a 50 15	 mov	 dl, BYTE PTR [eax+21]
  00178	84 d2		 test	 dl, dl
  0017a	0f 84 8b 00 00
	00		 je	 $LN75@LoadBool_e
  00180	32 d1		 xor	 dl, cl
  00182	88 55 f1	 mov	 BYTE PTR __k$[ebp+21], dl
  00185	8a 50 16	 mov	 dl, BYTE PTR [eax+22]
  00188	84 d2		 test	 dl, dl
  0018a	74 7a		 je	 SHORT $LN74@LoadBool_e
  0018c	32 d3		 xor	 dl, bl
  0018e	88 55 f2	 mov	 BYTE PTR __k$[ebp+22], dl
  00191	8a 50 17	 mov	 dl, BYTE PTR [eax+23]
  00194	84 d2		 test	 dl, dl
  00196	74 68		 je	 SHORT $LN73@LoadBool_e
  00198	80 f2 ea	 xor	 dl, -22			; ffffffeaH
  0019b	80 78 18 00	 cmp	 BYTE PTR [eax+24], 0
  0019f	88 55 f3	 mov	 BYTE PTR __k$[ebp+23], dl
  001a2	0f 84 dc 00 00
	00		 je	 $LN1@LoadBool_e
  001a8	8a 50 19	 mov	 dl, BYTE PTR [eax+25]
  001ab	84 d2		 test	 dl, dl
  001ad	74 49		 je	 SHORT $LN71@LoadBool_e
  001af	32 d1		 xor	 dl, cl
  001b1	88 55 f5	 mov	 BYTE PTR __k$[ebp+25], dl
  001b4	8a 50 1a	 mov	 dl, BYTE PTR [eax+26]
  001b7	84 d2		 test	 dl, dl
  001b9	74 35		 je	 SHORT $LN70@LoadBool_e
  001bb	32 d3		 xor	 dl, bl
  001bd	88 55 f6	 mov	 BYTE PTR __k$[ebp+26], dl
  001c0	8a 50 1b	 mov	 dl, BYTE PTR [eax+27]
  001c3	84 d2		 test	 dl, dl
  001c5	74 20		 je	 SHORT $LN69@LoadBool_e
  001c7	8a 40 1c	 mov	 al, BYTE PTR [eax+28]
  001ca	80 f2 ea	 xor	 dl, -22			; ffffffeaH
  001cd	88 55 f7	 mov	 BYTE PTR __k$[ebp+27], dl
  001d0	84 c0		 test	 al, al
  001d2	74 0a		 je	 SHORT $LN68@LoadBool_e
  001d4	34 ed		 xor	 al, -19			; ffffffedH
  001d6	88 45 f8	 mov	 BYTE PTR __k$[ebp+28], al
  001d9	e9 a6 00 00 00	 jmp	 $LN1@LoadBool_e
$LN68@LoadBool_e:
  001de	c6 45 f8 ed	 mov	 BYTE PTR __k$[ebp+28], -19 ; ffffffedH
  001e2	e9 9d 00 00 00	 jmp	 $LN1@LoadBool_e
$LN69@LoadBool_e:
  001e7	c6 45 f7 ea	 mov	 BYTE PTR __k$[ebp+27], -22 ; ffffffeaH
  001eb	e9 94 00 00 00	 jmp	 $LN1@LoadBool_e
$LN70@LoadBool_e:
  001f0	88 5d f6	 mov	 BYTE PTR __k$[ebp+26], bl
  001f3	e9 8c 00 00 00	 jmp	 $LN1@LoadBool_e
$LN71@LoadBool_e:
  001f8	88 4d f5	 mov	 BYTE PTR __k$[ebp+25], cl
  001fb	e9 84 00 00 00	 jmp	 $LN1@LoadBool_e
$LN73@LoadBool_e:
  00200	c6 45 f3 ea	 mov	 BYTE PTR __k$[ebp+23], -22 ; ffffffeaH
  00204	eb 7e		 jmp	 SHORT $LN1@LoadBool_e
$LN74@LoadBool_e:
  00206	88 5d f2	 mov	 BYTE PTR __k$[ebp+22], bl
  00209	eb 79		 jmp	 SHORT $LN1@LoadBool_e
$LN75@LoadBool_e:
  0020b	88 4d f1	 mov	 BYTE PTR __k$[ebp+21], cl
  0020e	eb 74		 jmp	 SHORT $LN1@LoadBool_e
$LN76@LoadBool_e:
  00210	c6 45 f0 ed	 mov	 BYTE PTR __k$[ebp+20], -19 ; ffffffedH
  00214	eb 6e		 jmp	 SHORT $LN1@LoadBool_e
$LN77@LoadBool_e:
  00216	c6 45 ef ea	 mov	 BYTE PTR __k$[ebp+19], -22 ; ffffffeaH
  0021a	eb 68		 jmp	 SHORT $LN1@LoadBool_e
$LN78@LoadBool_e:
  0021c	88 5d ee	 mov	 BYTE PTR __k$[ebp+18], bl
  0021f	eb 63		 jmp	 SHORT $LN1@LoadBool_e
$LN79@LoadBool_e:
  00221	88 4d ed	 mov	 BYTE PTR __k$[ebp+17], cl
  00224	eb 5e		 jmp	 SHORT $LN1@LoadBool_e
$LN80@LoadBool_e:
  00226	c6 45 ec ed	 mov	 BYTE PTR __k$[ebp+16], -19 ; ffffffedH
  0022a	eb 58		 jmp	 SHORT $LN1@LoadBool_e
$LN81@LoadBool_e:
  0022c	c6 45 eb ea	 mov	 BYTE PTR __k$[ebp+15], -22 ; ffffffeaH
  00230	eb 52		 jmp	 SHORT $LN1@LoadBool_e
$LN82@LoadBool_e:
  00232	88 5d ea	 mov	 BYTE PTR __k$[ebp+14], bl
  00235	eb 4d		 jmp	 SHORT $LN1@LoadBool_e
$LN83@LoadBool_e:
  00237	88 4d e9	 mov	 BYTE PTR __k$[ebp+13], cl
  0023a	eb 48		 jmp	 SHORT $LN1@LoadBool_e
$LN84@LoadBool_e:
  0023c	c6 45 e8 ed	 mov	 BYTE PTR __k$[ebp+12], -19 ; ffffffedH
  00240	eb 42		 jmp	 SHORT $LN1@LoadBool_e
$LN85@LoadBool_e:
  00242	c6 45 e7 ea	 mov	 BYTE PTR __k$[ebp+11], -22 ; ffffffeaH
  00246	eb 3c		 jmp	 SHORT $LN1@LoadBool_e
$LN86@LoadBool_e:
  00248	88 5d e6	 mov	 BYTE PTR __k$[ebp+10], bl
  0024b	eb 37		 jmp	 SHORT $LN1@LoadBool_e
$LN87@LoadBool_e:
  0024d	88 4d e5	 mov	 BYTE PTR __k$[ebp+9], cl
  00250	eb 32		 jmp	 SHORT $LN1@LoadBool_e
$LN88@LoadBool_e:
  00252	c6 45 e4 ed	 mov	 BYTE PTR __k$[ebp+8], -19 ; ffffffedH
  00256	eb 2c		 jmp	 SHORT $LN1@LoadBool_e
$LN89@LoadBool_e:
  00258	c6 45 e3 ea	 mov	 BYTE PTR __k$[ebp+7], -22 ; ffffffeaH
  0025c	eb 26		 jmp	 SHORT $LN1@LoadBool_e
$LN90@LoadBool_e:
  0025e	88 5d e2	 mov	 BYTE PTR __k$[ebp+6], bl
  00261	eb 21		 jmp	 SHORT $LN1@LoadBool_e
$LN91@LoadBool_e:
  00263	88 4d e1	 mov	 BYTE PTR __k$[ebp+5], cl
  00266	eb 1c		 jmp	 SHORT $LN1@LoadBool_e
$LN92@LoadBool_e:
  00268	c6 45 e0 ed	 mov	 BYTE PTR __k$[ebp+4], -19 ; ffffffedH
  0026c	eb 16		 jmp	 SHORT $LN1@LoadBool_e
$LN93@LoadBool_e:
  0026e	c6 45 df ea	 mov	 BYTE PTR __k$[ebp+3], -22 ; ffffffeaH
  00272	eb 10		 jmp	 SHORT $LN1@LoadBool_e
$LN94@LoadBool_e:
  00274	c6 45 de eb	 mov	 BYTE PTR __k$[ebp+2], -21 ; ffffffebH
  00278	eb 0a		 jmp	 SHORT $LN1@LoadBool_e
$LN95@LoadBool_e:
  0027a	c6 45 dd ec	 mov	 BYTE PTR __k$[ebp+1], -20 ; ffffffecH
  0027e	eb 04		 jmp	 SHORT $LN1@LoadBool_e
$LN96@LoadBool_e:
  00280	c6 45 dc ed	 mov	 BYTE PTR __k$[ebp], -19	; ffffffedH
$LN1@LoadBool_e:
  00284	6a 06		 push	 6
  00286	8d 45 dc	 lea	 eax, DWORD PTR __k$[ebp]
  00289	c6 45 f4 00	 mov	 BYTE PTR __k$[ebp+24], 0
  0028d	5a		 pop	 edx
$LL104@LoadBool_e:
  0028e	81 30 ed ec eb
	ea		 xor	 DWORD PTR [eax], -353637139 ; eaebecedH
  00294	83 c0 04	 add	 eax, 4
  00297	4a		 dec	 edx
  00298	75 f4		 jne	 SHORT $LL104@LoadBool_e

; 103  : 		return LoadBool(_k, b);

  0029a	ff 75 0c	 push	 DWORD PTR _b$[ebp]
  0029d	8d 45 dc	 lea	 eax, DWORD PTR __k$[ebp]
  002a0	50		 push	 eax
  002a1	8b ce		 mov	 ecx, esi
  002a3	ff 15 00 00 00
	00		 call	 DWORD PTR __imp_?LoadBool@ioINILoader@@QAE_NPBD_N@Z

; 104  : 	}

  002a9	8b 4d fc	 mov	 ecx, DWORD PTR __$ArrayPad$[ebp]
  002ac	5e		 pop	 esi
  002ad	33 cd		 xor	 ecx, ebp
  002af	5b		 pop	 ebx
  002b0	e8 00 00 00 00	 call	 @__security_check_cookie@4
  002b5	c9		 leave
  002b6	c2 08 00	 ret	 8
??$LoadBool_e@$0BJ@@ioINILoader@@QAE_NAAY0BJ@$$CBD_N@Z ENDP ; ioINILoader::LoadBool_e<25>
_TEXT	ENDS
PUBLIC	__real@3fd2ee0d320154cb
PUBLIC	__real@41f0000000000000
PUBLIC	??$RADtoDEG@M@@YAMM@Z				; RADtoDEG<float>
;	COMDAT __real@3fd2ee0d320154cb
; File d:\lost saga for developer\youtube\tutorial\source\src\lsclient\veryoftenusedefine.h
CONST	SEGMENT
__real@3fd2ee0d320154cb DQ 03fd2ee0d320154cbr	; 0.29578
CONST	ENDS
;	COMDAT __real@41f0000000000000
CONST	SEGMENT
__real@41f0000000000000 DQ 041f0000000000000r	; 4.29497e+009
; Function compile flags: /Ogsp
CONST	ENDS
;	COMDAT ??$RADtoDEG@M@@YAMM@Z
_TEXT	SEGMENT
tv130 = -4						; size = 4
tv75 = 8						; size = 4
_val$ = 8						; size = 4
??$RADtoDEG@M@@YAMM@Z PROC				; RADtoDEG<float>, COMDAT

; 18   : type  RADtoDEG (type val) {return (type) (val * (return57() + 0.2957795132)); }

  00000	55		 push	 ebp
  00001	8b ec		 mov	 ebp, esp
  00003	51		 push	 ecx
  00004	b8 39 00 00 00	 mov	 eax, 57			; 00000039H
  00009	89 45 fc	 mov	 DWORD PTR tv130[ebp], eax
  0000c	db 45 fc	 fild	 DWORD PTR tv130[ebp]
  0000f	85 c0		 test	 eax, eax
  00011	79 06		 jns	 SHORT $LN5@RADtoDEG
  00013	dc 05 00 00 00
	00		 fadd	 QWORD PTR __real@41f0000000000000
$LN5@RADtoDEG:
  00019	dc 05 00 00 00
	00		 fadd	 QWORD PTR __real@3fd2ee0d320154cb
  0001f	d8 4d 08	 fmul	 DWORD PTR _val$[ebp]
  00022	d9 5d 08	 fstp	 DWORD PTR tv75[ebp]
  00025	d9 45 08	 fld	 DWORD PTR tv75[ebp]
  00028	c9		 leave
  00029	c3		 ret	 0
??$RADtoDEG@M@@YAMM@Z ENDP				; RADtoDEG<float>
_TEXT	ENDS
PUBLIC	??B?$CEncrypt@M@@QAEMXZ				; CEncrypt<float>::operator float
; Function compile flags: /Ogsp
; File d:\lost saga for developer\youtube\tutorial\source\src\lsclient\encryptvalue.h
;	COMDAT ??B?$CEncrypt@M@@QAEMXZ
_TEXT	SEGMENT
_value$ = -4						; size = 4
??B?$CEncrypt@M@@QAEMXZ PROC				; CEncrypt<float>::operator float, COMDAT
; _this$ = ecx

; 134  : 	{

  00000	55		 push	 ebp
  00001	8b ec		 mov	 ebp, esp
  00003	51		 push	 ecx

; 135  : 		type value;
; 136  : 		DecryptValueToPool(&value);

  00004	8d 45 fc	 lea	 eax, DWORD PTR _value$[ebp]
  00007	50		 push	 eax
  00008	e8 00 00 00 00	 call	 ?DecryptValueToPool@?$CEncrypt@M@@QAEXPAM@Z ; CEncrypt<float>::DecryptValueToPool

; 137  : 
; 138  : #ifdef _NOTUSE
; 139  : 		Debug();
; 140  : #endif
; 141  : 		return value;

  0000d	d9 45 fc	 fld	 DWORD PTR _value$[ebp]

; 142  : 	}

  00010	c9		 leave
  00011	c3		 ret	 0
??B?$CEncrypt@M@@QAEMXZ ENDP				; CEncrypt<float>::operator float
_TEXT	ENDS
PUBLIC	??4?$CEncrypt@M@@QAEMM@Z			; CEncrypt<float>::operator=
; Function compile flags: /Ogsp
;	COMDAT ??4?$CEncrypt@M@@QAEMM@Z
_TEXT	SEGMENT
_value$ = 8						; size = 4
_inValue$ = 8						; size = 4
??4?$CEncrypt@M@@QAEMM@Z PROC				; CEncrypt<float>::operator=, COMDAT
; _this$ = ecx

; 1654 : 	{	

  00000	55		 push	 ebp
  00001	8b ec		 mov	 ebp, esp

; 1655 : 		type value = inValue;

  00003	d9 45 08	 fld	 DWORD PTR _inValue$[ebp]

; 1656 : 		EncryptValueToPool((char*)&value);

  00006	8d 45 08	 lea	 eax, DWORD PTR _value$[ebp]
  00009	50		 push	 eax
  0000a	d9 5d 08	 fstp	 DWORD PTR _value$[ebp]
  0000d	e8 00 00 00 00	 call	 ?EncryptValueToPool@?$CEncrypt@M@@AAEXPBD@Z ; CEncrypt<float>::EncryptValueToPool

; 1657 : #ifdef _NOTUSE
; 1658 : 		m_value = inValue;
; 1659 : 		Debug();
; 1660 : #endif
; 1661 : 		return value;

  00012	d9 45 08	 fld	 DWORD PTR _value$[ebp]

; 1662 : 	}

  00015	5d		 pop	 ebp
  00016	c2 04 00	 ret	 4
??4?$CEncrypt@M@@QAEMM@Z ENDP				; CEncrypt<float>::operator=
_TEXT	ENDS
PUBLIC	??O?$CEncrypt@M@@QAE_NABM@Z			; CEncrypt<float>::operator>
; Function compile flags: /Ogsp
;	COMDAT ??O?$CEncrypt@M@@QAE_NABM@Z
_TEXT	SEGMENT
_value$ = -4						; size = 4
_inValue$ = 8						; size = 4
??O?$CEncrypt@M@@QAE_NABM@Z PROC			; CEncrypt<float>::operator>, COMDAT
; _this$ = ecx

; 1811 : 	{

  00000	55		 push	 ebp
  00001	8b ec		 mov	 ebp, esp
  00003	51		 push	 ecx

; 1812 : 		type value;
; 1813 : 		DecryptValueToPool(&value);

  00004	8d 45 fc	 lea	 eax, DWORD PTR _value$[ebp]
  00007	50		 push	 eax
  00008	e8 00 00 00 00	 call	 ?DecryptValueToPool@?$CEncrypt@M@@QAEXPAM@Z ; CEncrypt<float>::DecryptValueToPool

; 1814 : #ifdef _NOTUSE
; 1815 : 		Debug();
; 1816 : #endif
; 1817 : 		return (value > inValue);

  0000d	8b 45 08	 mov	 eax, DWORD PTR _inValue$[ebp]
  00010	f3 0f 10 08	 movss	 xmm1, DWORD PTR [eax]
  00014	f3 0f 10 45 fc	 movss	 xmm0, DWORD PTR _value$[ebp]
  00019	0f 5a c0	 cvtps2pd xmm0, xmm0
  0001c	0f 5a c9	 cvtps2pd xmm1, xmm1
  0001f	33 c0		 xor	 eax, eax
  00021	66 0f 2f c1	 comisd	 xmm0, xmm1
  00025	76 01		 jbe	 SHORT $LN4@operator@2
  00027	40		 inc	 eax
$LN4@operator@2:

; 1818 : 	}		

  00028	c9		 leave
  00029	c2 04 00	 ret	 4
??O?$CEncrypt@M@@QAE_NABM@Z ENDP			; CEncrypt<float>::operator>
_TEXT	ENDS
PUBLIC	??_C@_00CNPNBAHC@?$AA@				; `string'
PUBLIC	__$ArrayPad$
EXTRN	__imp_??4ioHashString@@QAEAAV0@PBD@Z:PROC
EXTRN	?LoadProperty@ioWeapon@@UAEXAAVioINILoader@@@Z:PROC ; ioWeapon::LoadProperty
EXTRN	_memset:PROC
;	COMDAT ??_C@_00CNPNBAHC@?$AA@
; File d:\lost saga for developer\youtube\tutorial\source\src\lsclient\stringprotect.h
CONST	SEGMENT
??_C@_00CNPNBAHC@?$AA@ DB 00H				; `string'
; Function compile flags: /Ogsp
; File d:\lost saga for developer\youtube\tutorial\source\src\lsclient\iorotatereturnweapon.cpp
CONST	ENDS
;	COMDAT ?LoadProperty@ioRotateReturnWeapon@@UAEXAAVioINILoader@@@Z
_TEXT	SEGMENT
_szBuf$ = -296						; size = 260
__k$533805 = -36					; size = 25
__k$533680 = -36					; size = 24
__k$533417 = -32					; size = 20
__k$533343 = -32					; size = 18
__k$533555 = -28					; size = 17
__k$533180 = -24					; size = 10
__k$533055 = -24					; size = 10
__k$532930 = -24					; size = 11
__$ArrayPad$ = -4					; size = 4
_rkLoader$ = 8						; size = 4
?LoadProperty@ioRotateReturnWeapon@@UAEXAAVioINILoader@@@Z PROC ; ioRotateReturnWeapon::LoadProperty, COMDAT
; _this$ = ecx

; 48   : {

  00000	55		 push	 ebp
  00001	8b ec		 mov	 ebp, esp
  00003	81 ec 28 01 00
	00		 sub	 esp, 296		; 00000128H
  00009	a1 00 00 00 00	 mov	 eax, DWORD PTR ___security_cookie
  0000e	33 c5		 xor	 eax, ebp
  00010	89 45 fc	 mov	 DWORD PTR __$ArrayPad$[ebp], eax
  00013	53		 push	 ebx
  00014	56		 push	 esi
  00015	57		 push	 edi
  00016	8b 7d 08	 mov	 edi, DWORD PTR _rkLoader$[ebp]

; 49   : 	ioWeapon::LoadProperty( rkLoader );

  00019	57		 push	 edi
  0001a	8b f1		 mov	 esi, ecx
  0001c	e8 00 00 00 00	 call	 ?LoadProperty@ioWeapon@@UAEXAAVioINILoader@@@Z ; ioWeapon::LoadProperty

; 50   : 
; 51   : 	char szBuf[MAX_PATH] = "";

  00021	33 db		 xor	 ebx, ebx
  00023	68 03 01 00 00	 push	 259			; 00000103H
  00028	8d 85 d9 fe ff
	ff		 lea	 eax, DWORD PTR _szBuf$[ebp+1]
  0002e	53		 push	 ebx
  0002f	50		 push	 eax
  00030	88 9d d8 fe ff
	ff		 mov	 BYTE PTR _szBuf$[ebp], bl
  00036	e8 00 00 00 00	 call	 _memset
  0003b	83 c4 0c	 add	 esp, 12			; 0000000cH

; 52   : 	char szKey[MAX_PATH] = "";
; 53   : 
; 54   : 	rkLoader.LoadString_e( "fire_sound", "", szBuf, MAX_PATH );

  0003e	6a 02		 push	 2
  00040	c7 45 e8 8b 85
	99 8f		 mov	 DWORD PTR __k$532930[ebp], -1885764213 ; 8f99858bH
  00047	c7 45 ec b2 9f
	84 9f		 mov	 DWORD PTR __k$532930[ebp+4], -1618698318 ; 9f849fb2H
  0004e	66 c7 45 f0 83
	88		 mov	 WORD PTR __k$532930[ebp+8], 34947 ; 00008883H
  00054	8d 45 e8	 lea	 eax, DWORD PTR __k$532930[ebp]
  00057	88 5d f2	 mov	 BYTE PTR __k$532930[ebp+10], bl
  0005a	59		 pop	 ecx
$LL106@LoadProper:
  0005b	81 30 ed ec eb
	ea		 xor	 DWORD PTR [eax], -353637139 ; eaebecedH
  00061	83 c0 04	 add	 eax, 4
  00064	49		 dec	 ecx
  00065	75 f4		 jne	 SHORT $LL106@LoadProper
  00067	6a 08		 push	 8
  00069	58		 pop	 eax
$LL103@LoadProper:
  0006a	8b c8		 mov	 ecx, eax
  0006c	81 e1 03 00 00
	80		 and	 ecx, -2147483645	; 80000003H
  00072	79 05		 jns	 SHORT $LN883@LoadProper
  00074	49		 dec	 ecx
  00075	83 c9 fc	 or	 ecx, -4			; fffffffcH
  00078	41		 inc	 ecx
$LN883@LoadProper:
  00079	b2 ed		 mov	 dl, -19			; ffffffedH
  0007b	2a d1		 sub	 dl, cl
  0007d	30 54 05 e8	 xor	 BYTE PTR __k$532930[ebp+eax], dl
  00081	40		 inc	 eax
  00082	83 f8 0a	 cmp	 eax, 10			; 0000000aH
  00085	7c e3		 jl	 SHORT $LL103@LoadProper
  00087	68 04 01 00 00	 push	 260			; 00000104H
  0008c	8d 85 d8 fe ff
	ff		 lea	 eax, DWORD PTR _szBuf$[ebp]
  00092	50		 push	 eax
  00093	68 00 00 00 00	 push	 OFFSET ??_C@_00CNPNBAHC@?$AA@
  00098	8d 45 e8	 lea	 eax, DWORD PTR __k$532930[ebp]
  0009b	50		 push	 eax
  0009c	8b cf		 mov	 ecx, edi
  0009e	ff 15 00 00 00
	00		 call	 DWORD PTR __imp_?LoadStringA@ioINILoader@@QAEXPBD0PADH@Z

; 55   : 	m_FireSound = szBuf;

  000a4	8d 85 d8 fe ff
	ff		 lea	 eax, DWORD PTR _szBuf$[ebp]
  000aa	50		 push	 eax
  000ab	8d 8e 20 09 00
	00		 lea	 ecx, DWORD PTR [esi+2336]
  000b1	ff 15 00 00 00
	00		 call	 DWORD PTR __imp_??4ioHashString@@QAEAAV0@PBD@Z
  000b7	6a 02		 push	 2

; 56   : 	
; 57   : 	m_dwLiveTime				= rkLoader.LoadInt_e( "live_time", 0 );	

  000b9	c7 45 e8 81 85
	9d 8f		 mov	 DWORD PTR __k$533055[ebp], -1885502079 ; 8f9d8581H
  000c0	c7 45 ec b2 98
	82 87		 mov	 DWORD PTR __k$533055[ebp+4], -2021484366 ; 878298b2H
  000c7	8d 45 e8	 lea	 eax, DWORD PTR __k$533055[ebp]
  000ca	66 c7 45 f0 88
	00		 mov	 WORD PTR __k$533055[ebp+8], 136 ; 00000088H
  000d0	59		 pop	 ecx
$LL212@LoadProper:
  000d1	81 30 ed ec eb
	ea		 xor	 DWORD PTR [eax], -353637139 ; eaebecedH
  000d7	83 c0 04	 add	 eax, 4
  000da	49		 dec	 ecx
  000db	75 f4		 jne	 SHORT $LL212@LoadProper
  000dd	80 75 f0 ed	 xor	 BYTE PTR __k$533055[ebp+8], -19 ; ffffffedH
  000e1	53		 push	 ebx
  000e2	8d 45 e8	 lea	 eax, DWORD PTR __k$533055[ebp]
  000e5	50		 push	 eax
  000e6	8b cf		 mov	 ecx, edi
  000e8	ff 15 00 00 00
	00		 call	 DWORD PTR __imp_?LoadInt@ioINILoader@@QAEHPBDH@Z
  000ee	6a 02		 push	 2
  000f0	89 86 e0 08 00
	00		 mov	 DWORD PTR [esi+2272], eax

; 58   : 		
; 59   : 	m_fMaxMoveRange				= rkLoader.LoadFloat_e( "max_range", 0.0f );

  000f6	c7 45 e8 80 8d
	93 b5		 mov	 DWORD PTR __k$533180[ebp], -1248621184 ; b5938d80H
  000fd	c7 45 ec 9f 8d
	85 8d		 mov	 DWORD PTR __k$533180[ebp+4], -1920627297 ; 8d858d9fH
  00104	8d 45 e8	 lea	 eax, DWORD PTR __k$533180[ebp]
  00107	66 c7 45 f0 88
	00		 mov	 WORD PTR __k$533180[ebp+8], 136 ; 00000088H
  0010d	59		 pop	 ecx
$LL318@LoadProper:
  0010e	81 30 ed ec eb
	ea		 xor	 DWORD PTR [eax], -353637139 ; eaebecedH
  00114	83 c0 04	 add	 eax, 4
  00117	49		 dec	 ecx
  00118	75 f4		 jne	 SHORT $LL318@LoadProper
  0011a	0f 57 c0	 xorps	 xmm0, xmm0
  0011d	80 75 f0 ed	 xor	 BYTE PTR __k$533180[ebp+8], -19 ; ffffffedH
  00121	51		 push	 ecx
  00122	8d 45 e8	 lea	 eax, DWORD PTR __k$533180[ebp]
  00125	f3 0f 11 04 24	 movss	 DWORD PTR [esp], xmm0
  0012a	50		 push	 eax
  0012b	8b cf		 mov	 ecx, edi
  0012d	ff 15 00 00 00
	00		 call	 DWORD PTR __imp_?LoadFloat@ioINILoader@@QAEMPBDM@Z
  00133	d9 9e e8 08 00
	00		 fstp	 DWORD PTR [esi+2280]
  00139	6a 04		 push	 4

; 60   : 		
; 61   : 	m_fReturnMovSpeed			= rkLoader.LoadFloat_e( "return_move_speed", 0.0f );

  0013b	c7 45 e0 9f 89
	9f 9f		 mov	 DWORD PTR __k$533343[ebp], -1616934497 ; 9f9f899fH
  00142	c7 45 e4 9f 82
	b4 87		 mov	 DWORD PTR __k$533343[ebp+4], -2018213217 ; 87b4829fH
  00149	c7 45 e8 82 9a
	8e b5		 mov	 DWORD PTR __k$533343[ebp+8], -1248945534 ; b58e9a82H
  00150	c7 45 ec 9e 9c
	8e 8f		 mov	 DWORD PTR __k$533343[ebp+12], -1886479202 ; 8f8e9c9eH
  00157	8d 45 e0	 lea	 eax, DWORD PTR __k$533343[ebp]
  0015a	66 c7 45 f0 89
	00		 mov	 WORD PTR __k$533343[ebp+16], 137 ; 00000089H
  00160	59		 pop	 ecx
$LL424@LoadProper:
  00161	81 30 ed ec eb
	ea		 xor	 DWORD PTR [eax], -353637139 ; eaebecedH
  00167	83 c0 04	 add	 eax, 4
  0016a	49		 dec	 ecx
  0016b	75 f4		 jne	 SHORT $LL424@LoadProper
  0016d	0f 57 c0	 xorps	 xmm0, xmm0
  00170	80 75 f0 ed	 xor	 BYTE PTR __k$533343[ebp+16], -19 ; ffffffedH
  00174	51		 push	 ecx
  00175	8d 45 e0	 lea	 eax, DWORD PTR __k$533343[ebp]
  00178	f3 0f 11 04 24	 movss	 DWORD PTR [esp], xmm0
  0017d	50		 push	 eax
  0017e	8b cf		 mov	 ecx, edi
  00180	ff 15 00 00 00
	00		 call	 DWORD PTR __imp_?LoadFloat@ioINILoader@@QAEMPBDM@Z
  00186	d9 9e f4 08 00
	00		 fstp	 DWORD PTR [esi+2292]
  0018c	6a 04		 push	 4

; 62   : 	m_fReturnRotSpeed			= rkLoader.LoadFloat_e( "return_rotate_speed", 0.0f );

  0018e	c7 45 e0 9f 89
	9f 9f		 mov	 DWORD PTR __k$533417[ebp], -1616934497 ; 9f9f899fH
  00195	c7 45 e4 9f 82
	b4 98		 mov	 DWORD PTR __k$533417[ebp+4], -1733000545 ; 98b4829fH
  0019c	c7 45 e8 82 98
	8a 9e		 mov	 DWORD PTR __k$533417[ebp+8], -1635084158 ; 9e8a9882H
  001a3	c7 45 ec 88 b3
	98 9a		 mov	 DWORD PTR __k$533417[ebp+12], -1701268600 ; 9a98b388H
  001aa	8d 45 e0	 lea	 eax, DWORD PTR __k$533417[ebp]
  001ad	c7 45 f0 88 89
	8f 00		 mov	 DWORD PTR __k$533417[ebp+16], 9406856 ; 008f8988H
  001b4	59		 pop	 ecx
$LL530@LoadProper:
  001b5	81 30 ed ec eb
	ea		 xor	 DWORD PTR [eax], -353637139 ; eaebecedH
  001bb	83 c0 04	 add	 eax, 4
  001be	49		 dec	 ecx
  001bf	75 f4		 jne	 SHORT $LL530@LoadProper
  001c1	6a 10		 push	 16			; 00000010H
  001c3	58		 pop	 eax
$LL527@LoadProper:
  001c4	8b c8		 mov	 ecx, eax
  001c6	81 e1 03 00 00
	80		 and	 ecx, -2147483645	; 80000003H
  001cc	79 05		 jns	 SHORT $LN884@LoadProper
  001ce	49		 dec	 ecx
  001cf	83 c9 fc	 or	 ecx, -4			; fffffffcH
  001d2	41		 inc	 ecx
$LN884@LoadProper:
  001d3	b2 ed		 mov	 dl, -19			; ffffffedH
  001d5	2a d1		 sub	 dl, cl
  001d7	30 54 05 e0	 xor	 BYTE PTR __k$533417[ebp+eax], dl
  001db	40		 inc	 eax
  001dc	83 f8 13	 cmp	 eax, 19			; 00000013H
  001df	7c e3		 jl	 SHORT $LL527@LoadProper
  001e1	0f 57 c0	 xorps	 xmm0, xmm0
  001e4	51		 push	 ecx
  001e5	8d 45 e0	 lea	 eax, DWORD PTR __k$533417[ebp]
  001e8	f3 0f 11 04 24	 movss	 DWORD PTR [esp], xmm0
  001ed	50		 push	 eax
  001ee	8b cf		 mov	 ecx, edi
  001f0	ff 15 00 00 00
	00		 call	 DWORD PTR __imp_?LoadFloat@ioINILoader@@QAEMPBDM@Z
  001f6	d9 9e f8 08 00
	00		 fstp	 DWORD PTR [esi+2296]
  001fc	6a 04		 push	 4

; 63   : 	m_fMaxEndRange				= rkLoader.LoadFloat_e( "return_end_range", 0.0f );

  001fe	c7 45 e4 9f 89
	9f 9f		 mov	 DWORD PTR __k$533555[ebp], -1616934497 ; 9f9f899fH
  00205	c7 45 e8 9f 82
	b4 8f		 mov	 DWORD PTR __k$533555[ebp+4], -1883995489 ; 8fb4829fH
  0020c	c7 45 ec 83 88
	b4 98		 mov	 DWORD PTR __k$533555[ebp+8], -1732999037 ; 98b48883H
  00213	c7 45 f0 8c 82
	8c 8f		 mov	 DWORD PTR __k$533555[ebp+12], -1886616948 ; 8f8c828cH
  0021a	8d 45 e4	 lea	 eax, DWORD PTR __k$533555[ebp]
  0021d	88 5d f4	 mov	 BYTE PTR __k$533555[ebp+16], bl
  00220	59		 pop	 ecx
$LL636@LoadProper:
  00221	81 30 ed ec eb
	ea		 xor	 DWORD PTR [eax], -353637139 ; eaebecedH
  00227	83 c0 04	 add	 eax, 4
  0022a	49		 dec	 ecx
  0022b	75 f4		 jne	 SHORT $LL636@LoadProper
  0022d	0f 57 c0	 xorps	 xmm0, xmm0
  00230	51		 push	 ecx
  00231	8d 45 e4	 lea	 eax, DWORD PTR __k$533555[ebp]
  00234	f3 0f 11 04 24	 movss	 DWORD PTR [esp], xmm0
  00239	50		 push	 eax
  0023a	8b cf		 mov	 ecx, edi
  0023c	ff 15 00 00 00
	00		 call	 DWORD PTR __imp_?LoadFloat@ioINILoader@@QAEMPBDM@Z
  00242	d9 9e ec 08 00
	00		 fstp	 DWORD PTR [esi+2284]
  00248	6a 05		 push	 5

; 64   : 	m_fMaxEndRangeOffset		= rkLoader.LoadFloat_e( "return_end_range_offset", 0.0f );

  0024a	c7 45 dc 9f 89
	9f 9f		 mov	 DWORD PTR __k$533680[ebp], -1616934497 ; 9f9f899fH
  00251	c7 45 e0 9f 82
	b4 8f		 mov	 DWORD PTR __k$533680[ebp+4], -1883995489 ; 8fb4829fH
  00258	c7 45 e4 83 88
	b4 98		 mov	 DWORD PTR __k$533680[ebp+8], -1732999037 ; 98b48883H
  0025f	c7 45 e8 8c 82
	8c 8f		 mov	 DWORD PTR __k$533680[ebp+12], -1886616948 ; 8f8c828cH
  00266	c7 45 ec b2 83
	8d 8c		 mov	 DWORD PTR __k$533680[ebp+16], -1936882766 ; 8c8d83b2H
  0026d	8d 45 dc	 lea	 eax, DWORD PTR __k$533680[ebp]
  00270	c7 45 f0 9e 89
	9f 00		 mov	 DWORD PTR __k$533680[ebp+20], 10455454 ; 009f899eH
  00277	59		 pop	 ecx
$LL742@LoadProper:
  00278	81 30 ed ec eb
	ea		 xor	 DWORD PTR [eax], -353637139 ; eaebecedH
  0027e	83 c0 04	 add	 eax, 4
  00281	49		 dec	 ecx
  00282	75 f4		 jne	 SHORT $LL742@LoadProper
  00284	6a 14		 push	 20			; 00000014H
  00286	58		 pop	 eax
$LL739@LoadProper:
  00287	8b c8		 mov	 ecx, eax
  00289	81 e1 03 00 00
	80		 and	 ecx, -2147483645	; 80000003H
  0028f	79 05		 jns	 SHORT $LN885@LoadProper
  00291	49		 dec	 ecx
  00292	83 c9 fc	 or	 ecx, -4			; fffffffcH
  00295	41		 inc	 ecx
$LN885@LoadProper:
  00296	b2 ed		 mov	 dl, -19			; ffffffedH
  00298	2a d1		 sub	 dl, cl
  0029a	30 54 05 dc	 xor	 BYTE PTR __k$533680[ebp+eax], dl
  0029e	40		 inc	 eax
  0029f	83 f8 17	 cmp	 eax, 23			; 00000017H
  002a2	7c e3		 jl	 SHORT $LL739@LoadProper
  002a4	0f 57 c0	 xorps	 xmm0, xmm0
  002a7	51		 push	 ecx
  002a8	8d 45 dc	 lea	 eax, DWORD PTR __k$533680[ebp]
  002ab	f3 0f 11 04 24	 movss	 DWORD PTR [esp], xmm0
  002b0	50		 push	 eax
  002b1	8b cf		 mov	 ecx, edi
  002b3	ff 15 00 00 00
	00		 call	 DWORD PTR __imp_?LoadFloat@ioINILoader@@QAEMPBDM@Z
  002b9	d9 9e f0 08 00
	00		 fstp	 DWORD PTR [esi+2288]
  002bf	6a 06		 push	 6

; 65   : 	m_bDisableCollisionReturn	= rkLoader.LoadBool_e( "disable_return_collision", false );

  002c1	c7 45 dc 89 85
	98 8b		 mov	 DWORD PTR __k$533805[ebp], -1952938615 ; 8b988589H
  002c8	c7 45 e0 8f 80
	8e b5		 mov	 DWORD PTR __k$533805[ebp+4], -1248952177 ; b58e808fH
  002cf	c7 45 e4 9f 89
	9f 9f		 mov	 DWORD PTR __k$533805[ebp+8], -1616934497 ; 9f9f899fH
  002d6	c7 45 e8 9f 82
	b4 89		 mov	 DWORD PTR __k$533805[ebp+12], -1984658785 ; 89b4829fH
  002dd	c7 45 ec 82 80
	87 83		 mov	 DWORD PTR __k$533805[ebp+16], -2088271742 ; 83878082H
  002e4	c7 45 f0 9e 85
	84 84		 mov	 DWORD PTR __k$533805[ebp+20], -2071689826 ; 8484859eH
  002eb	8d 45 dc	 lea	 eax, DWORD PTR __k$533805[ebp]
  002ee	88 5d f4	 mov	 BYTE PTR __k$533805[ebp+24], bl
  002f1	59		 pop	 ecx
$LL848@LoadProper:
  002f2	81 30 ed ec eb
	ea		 xor	 DWORD PTR [eax], -353637139 ; eaebecedH
  002f8	83 c0 04	 add	 eax, 4
  002fb	49		 dec	 ecx
  002fc	75 f4		 jne	 SHORT $LL848@LoadProper
  002fe	53		 push	 ebx
  002ff	8d 45 dc	 lea	 eax, DWORD PTR __k$533805[ebp]
  00302	50		 push	 eax
  00303	8b cf		 mov	 ecx, edi
  00305	ff 15 00 00 00
	00		 call	 DWORD PTR __imp_?LoadBool@ioINILoader@@QAE_NPBD_N@Z

; 66   : }

  0030b	8b 4d fc	 mov	 ecx, DWORD PTR __$ArrayPad$[ebp]
  0030e	5f		 pop	 edi
  0030f	88 86 18 09 00
	00		 mov	 BYTE PTR [esi+2328], al
  00315	5e		 pop	 esi
  00316	33 cd		 xor	 ecx, ebp
  00318	5b		 pop	 ebx
  00319	e8 00 00 00 00	 call	 @__security_check_cookie@4
  0031e	c9		 leave
  0031f	c2 04 00	 ret	 4
?LoadProperty@ioRotateReturnWeapon@@UAEXAAVioINILoader@@@Z ENDP ; ioRotateReturnWeapon::LoadProperty
_TEXT	ENDS
EXTRN	?InitResource@ioWeapon@@UAE_NXZ:PROC		; ioWeapon::InitResource
; Function compile flags: /Ogsp
;	COMDAT ?InitResource@ioRotateReturnWeapon@@MAE_NXZ
_TEXT	SEGMENT
?InitResource@ioRotateReturnWeapon@@MAE_NXZ PROC	; ioRotateReturnWeapon::InitResource, COMDAT
; _this$ = ecx

; 69   : {

  00000	56		 push	 esi
  00001	8b f1		 mov	 esi, ecx

; 70   : 	if( ioWeapon::InitResource() )

  00003	e8 00 00 00 00	 call	 ?InitResource@ioWeapon@@UAE_NXZ ; ioWeapon::InitResource
  00008	84 c0		 test	 al, al
  0000a	74 25		 je	 SHORT $LN1@InitResour

; 71   : 	{
; 72   : 		DestroyResource();

  0000c	8b 06		 mov	 eax, DWORD PTR [esi]
  0000e	6a 00		 push	 0
  00010	8b ce		 mov	 ecx, esi
  00012	ff 90 9c 00 00
	00		 call	 DWORD PTR [eax+156]

; 73   : 		return CreateFireBall( GetAttribute()->m_WeaponEffect );

  00018	8b 06		 mov	 eax, DWORD PTR [esi]
  0001a	8b ce		 mov	 ecx, esi
  0001c	ff 90 3c 01 00
	00		 call	 DWORD PTR [eax+316]
  00022	05 34 01 00 00	 add	 eax, 308		; 00000134H
  00027	50		 push	 eax
  00028	8b ce		 mov	 ecx, esi
  0002a	e8 00 00 00 00	 call	 ?CreateFireBall@ioRotateReturnWeapon@@IAE_NABVioHashString@@@Z ; ioRotateReturnWeapon::CreateFireBall
  0002f	5e		 pop	 esi

; 77   : }

  00030	c3		 ret	 0
$LN1@InitResour:

; 74   : 	}
; 75   : 
; 76   : 	return false;

  00031	32 c0		 xor	 al, al
  00033	5e		 pop	 esi

; 77   : }

  00034	c3		 ret	 0
?InitResource@ioRotateReturnWeapon@@MAE_NXZ ENDP	; ioRotateReturnWeapon::InitResource
_TEXT	ENDS
PUBLIC	__real@3f800000
PUBLIC	__$ArrayPad$
EXTRN	__imp_?SetNull@ioOrientBox@@QAEXXZ:PROC
EXTRN	__imp_?UNIT_ALL@ioMath@@2UD3DXVECTOR3@@A:BYTE
EXTRN	__imp_?Transform@ioOrientBox@@QAEXABUD3DXVECTOR3@@0ABUD3DXQUATERNION@@@Z:PROC
EXTRN	?GetOrientation@ioWeapon@@QBEABUD3DXQUATERNION@@XZ:PROC ; ioWeapon::GetOrientation
EXTRN	__imp_?IsNull@ioOrientBox@@QBE_NXZ:PROC
EXTRN	__imp_?SetExtents@ioOrientBox@@QAEXHM@Z:PROC
EXTRN	__imp_?GetExtents@ioOrientBox@@QBEMH@Z:PROC
;	COMDAT __real@3f800000
; File c:\program files (x86)\microsoft directx sdk (june 2010)\include\d3dx9math.inl
CONST	SEGMENT
__real@3f800000 DD 03f800000r			; 1
; Function compile flags: /Ogsp
; File d:\lost saga for developer\youtube\tutorial\source\src\lsclient\iorotatereturnweapon.cpp
CONST	ENDS
;	COMDAT ?UpdateWorldAttackBox@ioRotateReturnWeapon@@MAEXM_N@Z
_TEXT	SEGMENT
_value$533962 = -32					; size = 4
_value$533967 = -28					; size = 4
_fMapCollisionRate$ = -28				; size = 4
tv415 = -24						; size = 4
tv399 = -24						; size = 4
tv409 = -20						; size = 4
tv403 = -20						; size = 4
_value$533972 = -20					; size = 4
_value$533958 = -20					; size = 4
_vScale$530670 = -16					; size = 12
__$ArrayPad$ = -4					; size = 4
_fTimePerSec$ = 8					; size = 4
_bSetNull$ = 12						; size = 1
?UpdateWorldAttackBox@ioRotateReturnWeapon@@MAEXM_N@Z PROC ; ioRotateReturnWeapon::UpdateWorldAttackBox, COMDAT
; _this$ = ecx

; 135  : {

  00000	55		 push	 ebp
  00001	8b ec		 mov	 ebp, esp
  00003	83 ec 20	 sub	 esp, 32			; 00000020H
  00006	a1 00 00 00 00	 mov	 eax, DWORD PTR ___security_cookie
  0000b	33 c5		 xor	 eax, ebp
  0000d	89 45 fc	 mov	 DWORD PTR __$ArrayPad$[ebp], eax
  00010	53		 push	 ebx
  00011	8b d9		 mov	 ebx, ecx

; 136  : 	if( !IsLive() || bSetNull )

  00013	80 bb 82 05 00
	00 00		 cmp	 BYTE PTR [ebx+1410], 0
  0001a	56		 push	 esi
  0001b	57		 push	 edi
  0001c	0f 84 a2 01 00
	00		 je	 $LN4@UpdateWorl
  00022	80 7d 0c 00	 cmp	 BYTE PTR _bSetNull$[ebp], 0
  00026	0f 85 98 01 00
	00		 jne	 $LN4@UpdateWorl

; 140  : 		return;
; 141  : 	}
; 142  : 
; 143  : 	m_WorldAttackBox = GetLocalAttackBox();

  0002c	8b 03		 mov	 eax, DWORD PTR [ebx]
  0002e	ff 90 00 01 00
	00		 call	 DWORD PTR [eax+256]
  00034	6a 11		 push	 17			; 00000011H
  00036	59		 pop	 ecx
  00037	8b f0		 mov	 esi, eax
  00039	8d bb e8 04 00
	00		 lea	 edi, DWORD PTR [ebx+1256]
  0003f	f3 a5		 rep movsd

; 144  : 	m_WorldAttackBoxForMap = m_WorldAttackBox;

  00041	6a 11		 push	 17			; 00000011H
  00043	8b f0		 mov	 esi, eax

; 145  : 
; 146  : 	float fMapCollisionRate = GetAttribute()->m_fMapCollisionBoxRate;

  00045	8b 03		 mov	 eax, DWORD PTR [ebx]
  00047	59		 pop	 ecx
  00048	8d bb 2c 05 00
	00		 lea	 edi, DWORD PTR [ebx+1324]
  0004e	f3 a5		 rep movsd
  00050	8b cb		 mov	 ecx, ebx
  00052	ff 90 3c 01 00
	00		 call	 DWORD PTR [eax+316]

; 147  : 	m_WorldAttackBoxForMap.SetExtents( 0, m_WorldAttackBox.GetExtents(0)*fMapCollisionRate );

  00058	6a 00		 push	 0
  0005a	d9 80 a8 01 00
	00		 fld	 DWORD PTR [eax+424]
  00060	8d 8b e8 04 00
	00		 lea	 ecx, DWORD PTR [ebx+1256]
  00066	d9 5d e4	 fstp	 DWORD PTR _fMapCollisionRate$[ebp]
  00069	ff 15 00 00 00
	00		 call	 DWORD PTR __imp_?GetExtents@ioOrientBox@@QBEMH@Z
  0006f	d8 4d e4	 fmul	 DWORD PTR _fMapCollisionRate$[ebp]
  00072	8b 35 00 00 00
	00		 mov	 esi, DWORD PTR __imp_?SetExtents@ioOrientBox@@QAEXHM@Z
  00078	51		 push	 ecx
  00079	8d 8b 2c 05 00
	00		 lea	 ecx, DWORD PTR [ebx+1324]
  0007f	d9 5d e8	 fstp	 DWORD PTR tv415[ebp]
  00082	d9 45 e8	 fld	 DWORD PTR tv415[ebp]
  00085	89 4d e8	 mov	 DWORD PTR tv399[ebp], ecx
  00088	d9 1c 24	 fstp	 DWORD PTR [esp]
  0008b	6a 00		 push	 0
  0008d	ff d6		 call	 esi

; 148  : 	m_WorldAttackBoxForMap.SetExtents( 1, m_WorldAttackBox.GetExtents(1)*fMapCollisionRate );

  0008f	6a 01		 push	 1
  00091	8d 8b e8 04 00
	00		 lea	 ecx, DWORD PTR [ebx+1256]
  00097	ff 15 00 00 00
	00		 call	 DWORD PTR __imp_?GetExtents@ioOrientBox@@QBEMH@Z
  0009d	d8 4d e4	 fmul	 DWORD PTR _fMapCollisionRate$[ebp]
  000a0	51		 push	 ecx
  000a1	8b 4d e8	 mov	 ecx, DWORD PTR tv399[ebp]
  000a4	d9 5d ec	 fstp	 DWORD PTR tv409[ebp]
  000a7	d9 45 ec	 fld	 DWORD PTR tv409[ebp]
  000aa	d9 1c 24	 fstp	 DWORD PTR [esp]
  000ad	6a 01		 push	 1
  000af	ff d6		 call	 esi

; 149  : 	m_WorldAttackBoxForMap.SetExtents( 2, m_WorldAttackBox.GetExtents(2)*fMapCollisionRate );

  000b1	6a 02		 push	 2
  000b3	8d 8b e8 04 00
	00		 lea	 ecx, DWORD PTR [ebx+1256]
  000b9	ff 15 00 00 00
	00		 call	 DWORD PTR __imp_?GetExtents@ioOrientBox@@QBEMH@Z
  000bf	d8 4d e4	 fmul	 DWORD PTR _fMapCollisionRate$[ebp]
  000c2	51		 push	 ecx
  000c3	8b 4d e8	 mov	 ecx, DWORD PTR tv399[ebp]
  000c6	d9 5d ec	 fstp	 DWORD PTR tv403[ebp]
  000c9	d9 45 ec	 fld	 DWORD PTR tv403[ebp]
  000cc	d9 1c 24	 fstp	 DWORD PTR [esp]
  000cf	6a 02		 push	 2
  000d1	ff d6		 call	 esi

; 150  : 
; 151  : 	if( !m_WorldAttackBox.IsNull() )

  000d3	8d 8b e8 04 00
	00		 lea	 ecx, DWORD PTR [ebx+1256]
  000d9	ff 15 00 00 00
	00		 call	 DWORD PTR __imp_?IsNull@ioOrientBox@@QBE_NXZ
  000df	84 c0		 test	 al, al
  000e1	0f 85 f3 00 00
	00		 jne	 $LN1@UpdateWorl

; 152  : 	{
; 153  : 		if( m_fOwnerChargeScaleRate > 1.0f )

  000e7	8d 45 ec	 lea	 eax, DWORD PTR _value$533958[ebp]
  000ea	50		 push	 eax
  000eb	8d 8b b0 01 00
	00		 lea	 ecx, DWORD PTR [ebx+432]
  000f1	e8 00 00 00 00	 call	 ?DecryptValueToPool@?$CEncrypt@M@@QAEXPAM@Z ; CEncrypt<float>::DecryptValueToPool
  000f6	f3 0f 10 45 ec	 movss	 xmm0, DWORD PTR _value$533958[ebp]
  000fb	0f 2f 05 00 00
	00 00		 comiss	 xmm0, DWORD PTR __real@3f800000
  00102	0f 86 88 00 00
	00		 jbe	 $LN2@UpdateWorl

; 154  : 		{
; 155  : 			D3DXVECTOR3 vScale( m_fOwnerChargeScaleRate, m_fOwnerChargeScaleRate, m_fOwnerChargeScaleRate );

  00108	8d 45 e0	 lea	 eax, DWORD PTR _value$533962[ebp]
  0010b	50		 push	 eax
  0010c	8d 8b b0 01 00
	00		 lea	 ecx, DWORD PTR [ebx+432]
  00112	e8 00 00 00 00	 call	 ?DecryptValueToPool@?$CEncrypt@M@@QAEXPAM@Z ; CEncrypt<float>::DecryptValueToPool
  00117	8d 45 e4	 lea	 eax, DWORD PTR _value$533967[ebp]
  0011a	50		 push	 eax
  0011b	8d 8b b0 01 00
	00		 lea	 ecx, DWORD PTR [ebx+432]
  00121	e8 00 00 00 00	 call	 ?DecryptValueToPool@?$CEncrypt@M@@QAEXPAM@Z ; CEncrypt<float>::DecryptValueToPool
  00126	8d 45 ec	 lea	 eax, DWORD PTR _value$533972[ebp]
  00129	50		 push	 eax
  0012a	8d 8b b0 01 00
	00		 lea	 ecx, DWORD PTR [ebx+432]
  00130	e8 00 00 00 00	 call	 ?DecryptValueToPool@?$CEncrypt@M@@QAEXPAM@Z ; CEncrypt<float>::DecryptValueToPool
  00135	f3 0f 10 45 ec	 movss	 xmm0, DWORD PTR _value$533972[ebp]
  0013a	f3 0f 11 45 f0	 movss	 DWORD PTR _vScale$530670[ebp], xmm0
  0013f	f3 0f 10 45 e4	 movss	 xmm0, DWORD PTR _value$533967[ebp]
  00144	f3 0f 11 45 f4	 movss	 DWORD PTR _vScale$530670[ebp+4], xmm0
  00149	f3 0f 10 45 e0	 movss	 xmm0, DWORD PTR _value$533962[ebp]

; 156  : 			m_WorldAttackBox.Transform( GetPosition(), vScale, GetOrientation() );

  0014e	8b cb		 mov	 ecx, ebx
  00150	f3 0f 11 45 f8	 movss	 DWORD PTR _vScale$530670[ebp+8], xmm0
  00155	e8 00 00 00 00	 call	 ?GetOrientation@ioWeapon@@QBEABUD3DXQUATERNION@@XZ ; ioWeapon::GetOrientation
  0015a	50		 push	 eax
  0015b	8d 45 f0	 lea	 eax, DWORD PTR _vScale$530670[ebp]
  0015e	50		 push	 eax
  0015f	8b 03		 mov	 eax, DWORD PTR [ebx]
  00161	8b cb		 mov	 ecx, ebx
  00163	ff 50 70	 call	 DWORD PTR [eax+112]
  00166	8b 35 00 00 00
	00		 mov	 esi, DWORD PTR __imp_?Transform@ioOrientBox@@QAEXABUD3DXVECTOR3@@0ABUD3DXQUATERNION@@@Z
  0016c	50		 push	 eax
  0016d	8d 8b e8 04 00
	00		 lea	 ecx, DWORD PTR [ebx+1256]
  00173	ff d6		 call	 esi

; 157  : 			m_WorldAttackBoxForMap.Transform( GetPosition(), vScale, GetOrientation() );

  00175	8b cb		 mov	 ecx, ebx
  00177	e8 00 00 00 00	 call	 ?GetOrientation@ioWeapon@@QBEABUD3DXQUATERNION@@XZ ; ioWeapon::GetOrientation
  0017c	50		 push	 eax
  0017d	8d 45 f0	 lea	 eax, DWORD PTR _vScale$530670[ebp]
  00180	50		 push	 eax
$LN23@UpdateWorl:
  00181	8b 03		 mov	 eax, DWORD PTR [ebx]
  00183	8b cb		 mov	 ecx, ebx
  00185	ff 50 70	 call	 DWORD PTR [eax+112]
  00188	8b 4d e8	 mov	 ecx, DWORD PTR tv399[ebp]
  0018b	50		 push	 eax
  0018c	ff d6		 call	 esi

; 158  : 		}
; 159  : 		else

  0018e	eb 4a		 jmp	 SHORT $LN1@UpdateWorl
$LN2@UpdateWorl:

; 160  : 		{
; 161  : 			m_WorldAttackBox.Transform( GetPosition(), ioMath::UNIT_ALL, GetOrientation() );

  00190	8b cb		 mov	 ecx, ebx
  00192	e8 00 00 00 00	 call	 ?GetOrientation@ioWeapon@@QBEABUD3DXQUATERNION@@XZ ; ioWeapon::GetOrientation
  00197	50		 push	 eax
  00198	ff 35 00 00 00
	00		 push	 DWORD PTR __imp_?UNIT_ALL@ioMath@@2UD3DXVECTOR3@@A
  0019e	8b 03		 mov	 eax, DWORD PTR [ebx]
  001a0	8b cb		 mov	 ecx, ebx
  001a2	ff 50 70	 call	 DWORD PTR [eax+112]
  001a5	8b 35 00 00 00
	00		 mov	 esi, DWORD PTR __imp_?Transform@ioOrientBox@@QAEXABUD3DXVECTOR3@@0ABUD3DXQUATERNION@@@Z
  001ab	50		 push	 eax
  001ac	8d 8b e8 04 00
	00		 lea	 ecx, DWORD PTR [ebx+1256]
  001b2	ff d6		 call	 esi

; 162  : 			m_WorldAttackBoxForMap.Transform( GetPosition(), ioMath::UNIT_ALL, GetOrientation() );

  001b4	8b cb		 mov	 ecx, ebx
  001b6	e8 00 00 00 00	 call	 ?GetOrientation@ioWeapon@@QBEABUD3DXQUATERNION@@XZ ; ioWeapon::GetOrientation
  001bb	50		 push	 eax
  001bc	ff 35 00 00 00
	00		 push	 DWORD PTR __imp_?UNIT_ALL@ioMath@@2UD3DXVECTOR3@@A
  001c2	eb bd		 jmp	 SHORT $LN23@UpdateWorl
$LN4@UpdateWorl:

; 137  : 	{
; 138  : 		m_WorldAttackBox.SetNull();

  001c4	8b 35 00 00 00
	00		 mov	 esi, DWORD PTR __imp_?SetNull@ioOrientBox@@QAEXXZ
  001ca	8d 8b e8 04 00
	00		 lea	 ecx, DWORD PTR [ebx+1256]
  001d0	ff d6		 call	 esi

; 139  : 		m_WorldAttackBoxForMap.SetNull();

  001d2	8d 8b 2c 05 00
	00		 lea	 ecx, DWORD PTR [ebx+1324]
  001d8	ff d6		 call	 esi
$LN1@UpdateWorl:

; 163  : 		}
; 164  : 	}
; 165  : }

  001da	8b 4d fc	 mov	 ecx, DWORD PTR __$ArrayPad$[ebp]
  001dd	5f		 pop	 edi
  001de	5e		 pop	 esi
  001df	33 cd		 xor	 ecx, ebp
  001e1	5b		 pop	 ebx
  001e2	e8 00 00 00 00	 call	 @__security_check_cookie@4
  001e7	c9		 leave
  001e8	c2 08 00	 ret	 8
?UpdateWorldAttackBox@ioRotateReturnWeapon@@MAEXM_N@Z ENDP ; ioRotateReturnWeapon::UpdateWorldAttackBox
_TEXT	ENDS
PUBLIC	__$ArrayPad$
; Function compile flags: /Ogsp
;	COMDAT ?SetOwnerChargeScaleRate@ioRotateReturnWeapon@@MAEXM@Z
_TEXT	SEGMENT
_value$534001 = -28					; size = 4
_value$534006 = -24					; size = 4
_value$534011 = -20					; size = 4
_value$533997 = -20					; size = 4
_value$533989 = -20					; size = 4
_vScale$530684 = -16					; size = 12
__$ArrayPad$ = -4					; size = 4
_fRate$ = 8						; size = 4
?SetOwnerChargeScaleRate@ioRotateReturnWeapon@@MAEXM@Z PROC ; ioRotateReturnWeapon::SetOwnerChargeScaleRate, COMDAT
; _this$ = ecx

; 178  : {

  00000	55		 push	 ebp
  00001	8b ec		 mov	 ebp, esp
  00003	83 ec 1c	 sub	 esp, 28			; 0000001cH
  00006	a1 00 00 00 00	 mov	 eax, DWORD PTR ___security_cookie
  0000b	33 c5		 xor	 eax, ebp
  0000d	89 45 fc	 mov	 DWORD PTR __$ArrayPad$[ebp], eax

; 179  : 	m_fOwnerChargeScaleRate = fRate;

  00010	f3 0f 10 45 08	 movss	 xmm0, DWORD PTR _fRate$[ebp]
  00015	56		 push	 esi
  00016	57		 push	 edi
  00017	8b f9		 mov	 edi, ecx
  00019	8d 45 ec	 lea	 eax, DWORD PTR _value$533989[ebp]
  0001c	50		 push	 eax
  0001d	8d 8f b0 01 00
	00		 lea	 ecx, DWORD PTR [edi+432]
  00023	f3 0f 11 45 ec	 movss	 DWORD PTR _value$533989[ebp], xmm0
  00028	e8 00 00 00 00	 call	 ?EncryptValueToPool@?$CEncrypt@M@@AAEXPBD@Z ; CEncrypt<float>::EncryptValueToPool

; 180  : 	if( m_fOwnerChargeScaleRate > 1.0f )

  0002d	8d 45 ec	 lea	 eax, DWORD PTR _value$533997[ebp]
  00030	50		 push	 eax
  00031	8d 8f b0 01 00
	00		 lea	 ecx, DWORD PTR [edi+432]
  00037	e8 00 00 00 00	 call	 ?DecryptValueToPool@?$CEncrypt@M@@QAEXPAM@Z ; CEncrypt<float>::DecryptValueToPool
  0003c	f3 0f 10 45 ec	 movss	 xmm0, DWORD PTR _value$533997[ebp]
  00041	0f 2f 05 00 00
	00 00		 comiss	 xmm0, DWORD PTR __real@3f800000
  00048	76 57		 jbe	 SHORT $LN1@SetOwnerCh

; 181  : 	{
; 182  : 		D3DXVECTOR3 vScale( m_fOwnerChargeScaleRate, m_fOwnerChargeScaleRate, m_fOwnerChargeScaleRate );

  0004a	8d 45 e4	 lea	 eax, DWORD PTR _value$534001[ebp]
  0004d	50		 push	 eax
  0004e	8d 8f b0 01 00
	00		 lea	 ecx, DWORD PTR [edi+432]
  00054	e8 00 00 00 00	 call	 ?DecryptValueToPool@?$CEncrypt@M@@QAEXPAM@Z ; CEncrypt<float>::DecryptValueToPool
  00059	8d 45 e8	 lea	 eax, DWORD PTR _value$534006[ebp]
  0005c	50		 push	 eax
  0005d	8d 8f b0 01 00
	00		 lea	 ecx, DWORD PTR [edi+432]
  00063	e8 00 00 00 00	 call	 ?DecryptValueToPool@?$CEncrypt@M@@QAEXPAM@Z ; CEncrypt<float>::DecryptValueToPool
  00068	8d 45 ec	 lea	 eax, DWORD PTR _value$534011[ebp]
  0006b	50		 push	 eax
  0006c	8d 8f b0 01 00
	00		 lea	 ecx, DWORD PTR [edi+432]
  00072	e8 00 00 00 00	 call	 ?DecryptValueToPool@?$CEncrypt@M@@QAEXPAM@Z ; CEncrypt<float>::DecryptValueToPool
  00077	f3 0f 10 45 ec	 movss	 xmm0, DWORD PTR _value$534011[ebp]

; 183  : 		GetParentSceneNode()->SetScale( vScale );

  0007c	8b 4f 04	 mov	 ecx, DWORD PTR [edi+4]
  0007f	f3 0f 11 45 f0	 movss	 DWORD PTR _vScale$530684[ebp], xmm0
  00084	f3 0f 10 45 e8	 movss	 xmm0, DWORD PTR _value$534006[ebp]
  00089	f3 0f 11 45 f4	 movss	 DWORD PTR _vScale$530684[ebp+4], xmm0
  0008e	f3 0f 10 45 e4	 movss	 xmm0, DWORD PTR _value$534001[ebp]
  00093	8d 55 f0	 lea	 edx, DWORD PTR _vScale$530684[ebp]
  00096	f3 0f 11 45 f8	 movss	 DWORD PTR _vScale$530684[ebp+8], xmm0
  0009b	8b 01		 mov	 eax, DWORD PTR [ecx]
  0009d	52		 push	 edx
  0009e	ff 50 20	 call	 DWORD PTR [eax+32]
$LN1@SetOwnerCh:

; 184  : 	}
; 185  : }

  000a1	8b 4d fc	 mov	 ecx, DWORD PTR __$ArrayPad$[ebp]
  000a4	5f		 pop	 edi
  000a5	33 cd		 xor	 ecx, ebp
  000a7	5e		 pop	 esi
  000a8	e8 00 00 00 00	 call	 @__security_check_cookie@4
  000ad	c9		 leave
  000ae	c2 04 00	 ret	 4
?SetOwnerChargeScaleRate@ioRotateReturnWeapon@@MAEXM@Z ENDP ; ioRotateReturnWeapon::SetOwnerChargeScaleRate
_TEXT	ENDS
PUBLIC	?GetMoveSpeed@ioRotateReturnWeapon@@IAEMXZ	; ioRotateReturnWeapon::GetMoveSpeed
; Function compile flags: /Ogsp
;	COMDAT ?GetMoveSpeed@ioRotateReturnWeapon@@IAEMXZ
_TEXT	SEGMENT
tv136 = -4						; size = 4
_value$534027 = -4					; size = 4
?GetMoveSpeed@ioRotateReturnWeapon@@IAEMXZ PROC		; ioRotateReturnWeapon::GetMoveSpeed, COMDAT
; _this$ = ecx

; 188  : {

  00000	55		 push	 ebp
  00001	8b ec		 mov	 ebp, esp
  00003	51		 push	 ecx
  00004	56		 push	 esi
  00005	8b f1		 mov	 esi, ecx

; 189  : 	return GetAttribute()->m_fMoveSpeed * m_fOwnerChargeSpeedRate;

  00007	8d 45 fc	 lea	 eax, DWORD PTR _value$534027[ebp]
  0000a	50		 push	 eax
  0000b	8d 8e 20 01 00
	00		 lea	 ecx, DWORD PTR [esi+288]
  00011	e8 00 00 00 00	 call	 ?DecryptValueToPool@?$CEncrypt@M@@QAEXPAM@Z ; CEncrypt<float>::DecryptValueToPool
  00016	8b 06		 mov	 eax, DWORD PTR [esi]
  00018	8b ce		 mov	 ecx, esi
  0001a	ff 90 3c 01 00
	00		 call	 DWORD PTR [eax+316]
  00020	d9 80 98 01 00
	00		 fld	 DWORD PTR [eax+408]
  00026	d8 4d fc	 fmul	 DWORD PTR _value$534027[ebp]
  00029	5e		 pop	 esi
  0002a	d9 5d fc	 fstp	 DWORD PTR tv136[ebp]
  0002d	d9 45 fc	 fld	 DWORD PTR tv136[ebp]

; 190  : }

  00030	c9		 leave
  00031	c3		 ret	 0
?GetMoveSpeed@ioRotateReturnWeapon@@IAEMXZ ENDP		; ioRotateReturnWeapon::GetMoveSpeed
_TEXT	ENDS
PUBLIC	__$ArrayPad$
PUBLIC	?ProcessMove@ioRotateReturnWeapon@@IAEXPAVioPlayStage@@PAVioBaseChar@@M@Z ; ioRotateReturnWeapon::ProcessMove
; Function compile flags: /Ogsp
;	COMDAT ?ProcessMove@ioRotateReturnWeapon@@IAEXPAVioPlayStage@@PAVioBaseChar@@M@Z
_TEXT	SEGMENT
_fMoveDist$ = -20					; size = 4
$T530710 = -16						; size = 12
__$ArrayPad$ = -4					; size = 4
_pStage$ = 8						; size = 4
_pOwner$ = 12						; size = 4
_fTimePerSec$ = 16					; size = 4
?ProcessMove@ioRotateReturnWeapon@@IAEXPAVioPlayStage@@PAVioBaseChar@@M@Z PROC ; ioRotateReturnWeapon::ProcessMove, COMDAT
; _this$ = ecx

; 225  : {

  00000	55		 push	 ebp
  00001	8b ec		 mov	 ebp, esp
  00003	83 ec 14	 sub	 esp, 20			; 00000014H
  00006	a1 00 00 00 00	 mov	 eax, DWORD PTR ___security_cookie
  0000b	33 c5		 xor	 eax, ebp
  0000d	89 45 fc	 mov	 DWORD PTR __$ArrayPad$[ebp], eax
  00010	56		 push	 esi
  00011	8b f1		 mov	 esi, ecx

; 226  : 	float fMoveDist = GetMoveSpeed() * fTimePerSec;

  00013	e8 00 00 00 00	 call	 ?GetMoveSpeed@ioRotateReturnWeapon@@IAEMXZ ; ioRotateReturnWeapon::GetMoveSpeed
  00018	d8 4d 10	 fmul	 DWORD PTR _fTimePerSec$[ebp]

; 227  : 	m_fCurMoveRange += fMoveDist;
; 228  : 
; 229  : 	GetParentSceneNode()->Translate( m_vMoveDir * fMoveDist );

  0001b	8b 4e 04	 mov	 ecx, DWORD PTR [esi+4]
  0001e	6a 01		 push	 1
  00020	d9 5d ec	 fstp	 DWORD PTR _fMoveDist$[ebp]
  00023	8d 55 f0	 lea	 edx, DWORD PTR $T530710[ebp]
  00026	d9 45 ec	 fld	 DWORD PTR _fMoveDist$[ebp]
  00029	52		 push	 edx
  0002a	d9 c0		 fld	 ST(0)
  0002c	d8 86 fc 08 00
	00		 fadd	 DWORD PTR [esi+2300]
  00032	d9 9e fc 08 00
	00		 fstp	 DWORD PTR [esi+2300]
  00038	d9 86 0c 09 00
	00		 fld	 DWORD PTR [esi+2316]
  0003e	d9 c1		 fld	 ST(1)
  00040	de c9		 fmulp	 ST(1), ST(0)
  00042	d9 5d f0	 fstp	 DWORD PTR $T530710[ebp]
  00045	d9 86 10 09 00
	00		 fld	 DWORD PTR [esi+2320]
  0004b	d9 c1		 fld	 ST(1)
  0004d	de c9		 fmulp	 ST(1), ST(0)
  0004f	d9 5d f4	 fstp	 DWORD PTR $T530710[ebp+4]
  00052	d8 8e 14 09 00
	00		 fmul	 DWORD PTR [esi+2324]
  00058	d9 5d f8	 fstp	 DWORD PTR $T530710[ebp+8]
  0005b	8b 01		 mov	 eax, DWORD PTR [ecx]
  0005d	ff 50 3c	 call	 DWORD PTR [eax+60]

; 230  : }

  00060	8b 4d fc	 mov	 ecx, DWORD PTR __$ArrayPad$[ebp]
  00063	33 cd		 xor	 ecx, ebp
  00065	5e		 pop	 esi
  00066	e8 00 00 00 00	 call	 @__security_check_cookie@4
  0006b	c9		 leave
  0006c	c2 0c 00	 ret	 12			; 0000000cH
?ProcessMove@ioRotateReturnWeapon@@IAEXPAVioPlayStage@@PAVioBaseChar@@M@Z ENDP ; ioRotateReturnWeapon::ProcessMove
_TEXT	ENDS
PUBLIC	?OnMoveState@ioRotateReturnWeapon@@IAEXPAVioPlayStage@@PAVioBaseChar@@M@Z ; ioRotateReturnWeapon::OnMoveState
; Function compile flags: /Ogsp
;	COMDAT ?OnMoveState@ioRotateReturnWeapon@@IAEXPAVioPlayStage@@PAVioBaseChar@@M@Z
_TEXT	SEGMENT
_pStage$ = 8						; size = 4
_pOwner$ = 12						; size = 4
_fTimePerSec$ = 16					; size = 4
?OnMoveState@ioRotateReturnWeapon@@IAEXPAVioPlayStage@@PAVioBaseChar@@M@Z PROC ; ioRotateReturnWeapon::OnMoveState, COMDAT
; _this$ = ecx

; 233  : {

  00000	55		 push	 ebp
  00001	8b ec		 mov	 ebp, esp

; 234  : 	if( m_fMaxMoveRange <= m_fCurMoveRange )

  00003	f3 0f 10 81 e8
	08 00 00	 movss	 xmm0, DWORD PTR [ecx+2280]
  0000b	f3 0f 10 89 fc
	08 00 00	 movss	 xmm1, DWORD PTR [ecx+2300]
  00013	0f 5a c0	 cvtps2pd xmm0, xmm0
  00016	0f 5a c9	 cvtps2pd xmm1, xmm1
  00019	66 0f 2f c8	 comisd	 xmm1, xmm0
  0001d	72 17		 jb	 SHORT $LN2@OnMoveStat

; 235  : 	{
; 236  : 		m_State			= WS_RETURN;
; 237  : 		m_fCurMoveRange	= 0.0f;

  0001f	0f 57 c0	 xorps	 xmm0, xmm0
  00022	c7 81 dc 08 00
	00 02 00 00 00	 mov	 DWORD PTR [ecx+2268], 2
  0002c	f3 0f 11 81 fc
	08 00 00	 movss	 DWORD PTR [ecx+2300], xmm0

; 238  : 	}
; 239  : 	else

  00034	eb 16		 jmp	 SHORT $LN1@OnMoveStat
$LN2@OnMoveStat:

; 240  : 	{
; 241  : 		ProcessMove( pStage, pOwner, fTimePerSec );

  00036	f3 0f 10 45 10	 movss	 xmm0, DWORD PTR _fTimePerSec$[ebp]
  0003b	51		 push	 ecx
  0003c	f3 0f 11 04 24	 movss	 DWORD PTR [esp], xmm0
  00041	ff 75 0c	 push	 DWORD PTR _pOwner$[ebp]
  00044	ff 75 08	 push	 DWORD PTR _pStage$[ebp]
  00047	e8 00 00 00 00	 call	 ?ProcessMove@ioRotateReturnWeapon@@IAEXPAVioPlayStage@@PAVioBaseChar@@M@Z ; ioRotateReturnWeapon::ProcessMove
$LN1@OnMoveStat:

; 242  : 	}
; 243  : }

  0004c	5d		 pop	 ebp
  0004d	c2 0c 00	 ret	 12			; 0000000cH
?OnMoveState@ioRotateReturnWeapon@@IAEXPAVioPlayStage@@PAVioBaseChar@@M@Z ENDP ; ioRotateReturnWeapon::OnMoveState
_TEXT	ENDS
PUBLIC	__real@bf800000
PUBLIC	__real@4f800000
PUBLIC	__real@38d1b717
PUBLIC	_fTimePerSec$GSCopy$
PUBLIC	_this$GSCopy$
PUBLIC	__$ArrayPad$
PUBLIC	?ProcessRotate@ioRotateReturnWeapon@@IAEXPAVioPlayStage@@PAVioBaseChar@@M@Z ; ioRotateReturnWeapon::ProcessRotate
EXTRN	__imp_?UNIT_X@ioMath@@2UD3DXVECTOR3@@A:BYTE
EXTRN	__imp_?UNIT_Y@ioMath@@2UD3DXVECTOR3@@A:BYTE
EXTRN	?GetMidPositionByRate@ioGameEntity@@QBE?AUD3DXVECTOR3@@M@Z:PROC ; ioGameEntity::GetMidPositionByRate
;	COMDAT __real@bf800000
; File d:\lost saga for developer\youtube\tutorial\source\src\lsclient\ioweapon.h
CONST	SEGMENT
__real@bf800000 DD 0bf800000r			; -1
CONST	ENDS
;	COMDAT __real@4f800000
CONST	SEGMENT
__real@4f800000 DD 04f800000r			; 4.29497e+009
CONST	ENDS
;	COMDAT __real@38d1b717
CONST	SEGMENT
__real@38d1b717 DD 038d1b717r			; 0.0001
; Function compile flags: /Ogsp
; File d:\lost saga for developer\youtube\tutorial\source\src\lsclient\iorotatereturnweapon.cpp
CONST	ENDS
;	COMDAT ?ProcessRotate@ioRotateReturnWeapon@@IAEXPAVioPlayStage@@PAVioBaseChar@@M@Z
_TEXT	SEGMENT
_fTimePerSec$GSCopy$ = -76				; size = 4
_this$GSCopy$ = -72					; size = 4
tv1913 = -68						; size = 4
tv1909 = -68						; size = 4
tv1905 = -68						; size = 4
tv1720 = -68						; size = 4
_fGapAngle$530749 = -68					; size = 4
_fCos$ = -68						; size = 4
_vAxis$530754 = -64					; size = 12
_vAxis2$530742 = -64					; size = 12
_vPos$ = -52						; size = 12
_vAxis1$530741 = -40					; size = 12
$T530736 = -40						; size = 12
_vCurDir$ = -28						; size = 12
_v$534245 = -16						; size = 12
_v$534206 = -16						; size = 12
_v$534183 = -16						; size = 12
$T530755 = -16						; size = 12
$T530747 = -16						; size = 12
$T530746 = -16						; size = 12
_vPreDir$ = -16						; size = 12
__$ArrayPad$ = -4					; size = 4
_pStage$ = 8						; size = 4
_pOwner$ = 12						; size = 4
_fTimePerSec$ = 16					; size = 4
?ProcessRotate@ioRotateReturnWeapon@@IAEXPAVioPlayStage@@PAVioBaseChar@@M@Z PROC ; ioRotateReturnWeapon::ProcessRotate, COMDAT
; _this$ = ecx

; 246  : {

  00000	55		 push	 ebp
  00001	8b ec		 mov	 ebp, esp
  00003	83 ec 4c	 sub	 esp, 76			; 0000004cH
  00006	a1 00 00 00 00	 mov	 eax, DWORD PTR ___security_cookie
  0000b	33 c5		 xor	 eax, ebp
  0000d	89 45 fc	 mov	 DWORD PTR __$ArrayPad$[ebp], eax
  00010	f3 0f 10 45 10	 movss	 xmm0, DWORD PTR _fTimePerSec$[ebp]

; 247  : 	if( fTimePerSec <= 0.0f )

  00015	0f 57 c9	 xorps	 xmm1, xmm1
  00018	0f 2f c8	 comiss	 xmm1, xmm0
  0001b	53		 push	 ebx
  0001c	8b d9		 mov	 ebx, ecx
  0001e	8b 4d 0c	 mov	 ecx, DWORD PTR _pOwner$[ebp]
  00021	56		 push	 esi
  00022	57		 push	 edi

; 288  : 	{
; 289  : 		float fGapAngle = RADtoDEG( acos( fCos ) );

  00023	89 5d b8	 mov	 DWORD PTR _this$GSCopy$[ebp], ebx
  00026	f3 0f 11 45 b4	 movss	 DWORD PTR _fTimePerSec$GSCopy$[ebp], xmm0
  0002b	72 0d		 jb	 SHORT $LN7@ProcessRot

; 248  : 		fTimePerSec = 0.0001f;

  0002d	f3 0f 10 05 00
	00 00 00	 movss	 xmm0, DWORD PTR __real@38d1b717
  00035	f3 0f 11 45 b4	 movss	 DWORD PTR _fTimePerSec$GSCopy$[ebp], xmm0
$LN7@ProcessRot:

; 249  : 
; 250  : 	D3DXVECTOR3 vPos = pOwner->GetMidPositionByRate();

  0003a	b8 05 00 00 00	 mov	 eax, 5
  0003f	8b d0		 mov	 edx, eax
  00041	b8 0a 00 00 00	 mov	 eax, 10			; 0000000aH
  00046	89 55 bc	 mov	 DWORD PTR tv1913[ebp], edx
  00049	db 45 bc	 fild	 DWORD PTR tv1913[ebp]
  0004c	85 d2		 test	 edx, edx
  0004e	79 06		 jns	 SHORT $LN90@ProcessRot
  00050	d8 05 00 00 00
	00		 fadd	 DWORD PTR __real@4f800000
$LN90@ProcessRot:
  00056	89 45 bc	 mov	 DWORD PTR tv1909[ebp], eax
  00059	db 45 bc	 fild	 DWORD PTR tv1909[ebp]
  0005c	85 c0		 test	 eax, eax
  0005e	79 06		 jns	 SHORT $LN91@ProcessRot
  00060	d8 05 00 00 00
	00		 fadd	 DWORD PTR __real@4f800000
$LN91@ProcessRot:
  00066	de f9		 fdivp	 ST(1), ST(0)
  00068	51		 push	 ecx
  00069	8d 45 cc	 lea	 eax, DWORD PTR _vPos$[ebp]
  0006c	d9 5d bc	 fstp	 DWORD PTR tv1905[ebp]
  0006f	d9 45 bc	 fld	 DWORD PTR tv1905[ebp]
  00072	d9 1c 24	 fstp	 DWORD PTR [esp]
  00075	50		 push	 eax
  00076	e8 00 00 00 00	 call	 ?GetMidPositionByRate@ioGameEntity@@QBE?AUD3DXVECTOR3@@M@Z ; ioGameEntity::GetMidPositionByRate

; 251  : 	vPos.y += m_fMaxEndRangeOffset;

  0007b	f3 0f 10 83 f0
	08 00 00	 movss	 xmm0, DWORD PTR [ebx+2288]
  00083	f3 0f 10 4d d0	 movss	 xmm1, DWORD PTR _vPos$[ebp+4]

; 252  : 
; 253  : 	D3DXVECTOR3 vPreDir = m_vMoveDir;

  00088	81 c3 0c 09 00
	00		 add	 ebx, 2316		; 0000090cH
  0008e	8b f3		 mov	 esi, ebx
  00090	8d 7d f0	 lea	 edi, DWORD PTR _vPreDir$[ebp]
  00093	a5		 movsd
  00094	a5		 movsd
  00095	0f 5a c0	 cvtps2pd xmm0, xmm0
  00098	a5		 movsd

; 254  : 	D3DXVECTOR3	vCurDir = vPos - GetPosition();

  00099	8b 75 b8	 mov	 esi, DWORD PTR _this$GSCopy$[ebp]
  0009c	8b 06		 mov	 eax, DWORD PTR [esi]
  0009e	0f 5a c9	 cvtps2pd xmm1, xmm1
  000a1	f2 0f 58 c1	 addsd	 xmm0, xmm1
  000a5	66 0f 5a c0	 cvtpd2ps xmm0, xmm0
  000a9	8b ce		 mov	 ecx, esi
  000ab	f3 0f 11 45 d0	 movss	 DWORD PTR _vPos$[ebp+4], xmm0
  000b0	ff 50 70	 call	 DWORD PTR [eax+112]
  000b3	f3 0f 10 48 04	 movss	 xmm1, DWORD PTR [eax+4]
  000b8	f3 0f 10 50 08	 movss	 xmm2, DWORD PTR [eax+8]
  000bd	f3 0f 10 45 d0	 movss	 xmm0, DWORD PTR _vPos$[ebp+4]
  000c2	f3 0f 10 18	 movss	 xmm3, DWORD PTR [eax]
  000c6	0f 5a c9	 cvtps2pd xmm1, xmm1
  000c9	0f 5a c0	 cvtps2pd xmm0, xmm0
  000cc	f2 0f 5c c1	 subsd	 xmm0, xmm1
  000d0	f3 0f 10 4d d4	 movss	 xmm1, DWORD PTR _vPos$[ebp+8]
  000d5	0f 5a d2	 cvtps2pd xmm2, xmm2
  000d8	0f 5a c9	 cvtps2pd xmm1, xmm1
  000db	f2 0f 5c ca	 subsd	 xmm1, xmm2
  000df	f3 0f 10 55 cc	 movss	 xmm2, DWORD PTR _vPos$[ebp]

; 255  : 	D3DXVec3Normalize( &vCurDir, &vCurDir );

  000e4	8d 45 e4	 lea	 eax, DWORD PTR _vCurDir$[ebp]
  000e7	0f 5a d2	 cvtps2pd xmm2, xmm2
  000ea	0f 5a db	 cvtps2pd xmm3, xmm3
  000ed	50		 push	 eax
  000ee	f2 0f 5c d3	 subsd	 xmm2, xmm3
  000f2	66 0f 5a c0	 cvtpd2ps xmm0, xmm0
  000f6	66 0f 5a c9	 cvtpd2ps xmm1, xmm1
  000fa	66 0f 5a d2	 cvtpd2ps xmm2, xmm2
  000fe	50		 push	 eax
  000ff	f3 0f 11 55 e4	 movss	 DWORD PTR _vCurDir$[ebp], xmm2
  00104	f3 0f 11 45 e8	 movss	 DWORD PTR _vCurDir$[ebp+4], xmm0
  00109	f3 0f 11 4d ec	 movss	 DWORD PTR _vCurDir$[ebp+8], xmm1
  0010e	e8 00 00 00 00	 call	 _D3DXVec3Normalize@8

; 256  : 
; 257  : 	D3DXVECTOR3 vCurForce = m_vMoveDir * m_fReturnMovSpeed * fTimePerSec;

  00113	f3 0f 10 86 f4
	08 00 00	 movss	 xmm0, DWORD PTR [esi+2292]
  0011b	f3 0f 10 0b	 movss	 xmm1, DWORD PTR [ebx]
  0011f	f3 0f 10 5b 04	 movss	 xmm3, DWORD PTR [ebx+4]
  00124	0f 5a d0	 cvtps2pd xmm2, xmm0
  00127	0f 5a c9	 cvtps2pd xmm1, xmm1
  0012a	f2 0f 59 ca	 mulsd	 xmm1, xmm2
  0012e	0f 57 d2	 xorps	 xmm2, xmm2
  00131	66 0f 5a d1	 cvtpd2ps xmm2, xmm1
  00135	0f 5a db	 cvtps2pd xmm3, xmm3
  00138	0f 5a d2	 cvtps2pd xmm2, xmm2
  0013b	0f 5a c8	 cvtps2pd xmm1, xmm0
  0013e	f2 0f 59 cb	 mulsd	 xmm1, xmm3
  00142	0f 57 db	 xorps	 xmm3, xmm3
  00145	66 0f 5a d9	 cvtpd2ps xmm3, xmm1
  00149	f3 0f 10 4b 08	 movss	 xmm1, DWORD PTR [ebx+8]
  0014e	0f 5a c0	 cvtps2pd xmm0, xmm0
  00151	0f 5a c9	 cvtps2pd xmm1, xmm1
  00154	f2 0f 59 c1	 mulsd	 xmm0, xmm1
  00158	f3 0f 10 4d b4	 movss	 xmm1, DWORD PTR _fTimePerSec$GSCopy$[ebp]
  0015d	0f 5a e1	 cvtps2pd xmm4, xmm1
  00160	f2 0f 59 e2	 mulsd	 xmm4, xmm2
  00164	0f 57 d2	 xorps	 xmm2, xmm2
  00167	66 0f 5a d4	 cvtpd2ps xmm2, xmm4
  0016b	0f 5a db	 cvtps2pd xmm3, xmm3
  0016e	66 0f 5a c0	 cvtpd2ps xmm0, xmm0
  00172	f3 0f 5a c0	 cvtss2sd xmm0, xmm0
  00176	0f 5a e1	 cvtps2pd xmm4, xmm1
  00179	f2 0f 59 dc	 mulsd	 xmm3, xmm4
  0017d	66 0f 5a db	 cvtpd2ps xmm3, xmm3
  00181	0f 5a e1	 cvtps2pd xmm4, xmm1
  00184	f2 0f 59 c4	 mulsd	 xmm0, xmm4

; 258  : 	m_vMoveDir = vCurForce + (vCurDir * m_fReturnRotSpeed * fTimePerSec);

  00188	f3 0f 10 75 e4	 movss	 xmm6, DWORD PTR _vCurDir$[ebp]
  0018d	0f 5a f6	 cvtps2pd xmm6, xmm6
  00190	0f 57 e4	 xorps	 xmm4, xmm4
  00193	66 0f 5a e0	 cvtpd2ps xmm4, xmm0
  00197	f3 0f 10 86 f8
	08 00 00	 movss	 xmm0, DWORD PTR [esi+2296]
  0019f	0f 5a e8	 cvtps2pd xmm5, xmm0
  001a2	0f 5a f8	 cvtps2pd xmm7, xmm0
  001a5	f2 0f 59 ee	 mulsd	 xmm5, xmm6
  001a9	f3 0f 10 75 e8	 movss	 xmm6, DWORD PTR _vCurDir$[ebp+4]
  001ae	0f 5a c0	 cvtps2pd xmm0, xmm0
  001b1	0f 5a f6	 cvtps2pd xmm6, xmm6
  001b4	f2 0f 59 f7	 mulsd	 xmm6, xmm7
  001b8	f3 0f 10 7d ec	 movss	 xmm7, DWORD PTR _vCurDir$[ebp+8]
  001bd	0f 5a ff	 cvtps2pd xmm7, xmm7
  001c0	f2 0f 59 f8	 mulsd	 xmm7, xmm0
  001c4	0f 57 c0	 xorps	 xmm0, xmm0
  001c7	66 0f 5a c7	 cvtpd2ps xmm0, xmm7
  001cb	66 0f 5a ed	 cvtpd2ps xmm5, xmm5
  001cf	f3 0f 5a ed	 cvtss2sd xmm5, xmm5
  001d3	0f 5a c0	 cvtps2pd xmm0, xmm0
  001d6	0f 5a f9	 cvtps2pd xmm7, xmm1
  001d9	f2 0f 59 fd	 mulsd	 xmm7, xmm5
  001dd	0f 57 ed	 xorps	 xmm5, xmm5
  001e0	66 0f 5a ef	 cvtpd2ps xmm5, xmm7
  001e4	0f 5a d2	 cvtps2pd xmm2, xmm2
  001e7	66 0f 5a f6	 cvtpd2ps xmm6, xmm6
  001eb	f3 0f 5a f6	 cvtss2sd xmm6, xmm6
  001ef	0f 5a f9	 cvtps2pd xmm7, xmm1
  001f2	0f 5a c9	 cvtps2pd xmm1, xmm1
  001f5	f2 0f 59 c1	 mulsd	 xmm0, xmm1
  001f9	f2 0f 59 f7	 mulsd	 xmm6, xmm7
  001fd	66 0f 5a f6	 cvtpd2ps xmm6, xmm6
  00201	66 0f 5a c0	 cvtpd2ps xmm0, xmm0
  00205	f3 0f 5a c0	 cvtss2sd xmm0, xmm0
  00209	0f 5a cd	 cvtps2pd xmm1, xmm5
  0020c	f2 0f 58 ca	 addsd	 xmm1, xmm2
  00210	66 0f 5a c9	 cvtpd2ps xmm1, xmm1
  00214	f3 0f 11 4d d8	 movss	 DWORD PTR $T530736[ebp], xmm1
  00219	0f 57 c9	 xorps	 xmm1, xmm1
  0021c	f3 0f 5a ce	 cvtss2sd xmm1, xmm6
  00220	0f 57 d2	 xorps	 xmm2, xmm2
  00223	f3 0f 5a d3	 cvtss2sd xmm2, xmm3
  00227	f2 0f 58 ca	 addsd	 xmm1, xmm2
  0022b	66 0f 5a c9	 cvtpd2ps xmm1, xmm1
  0022f	f3 0f 11 4d dc	 movss	 DWORD PTR $T530736[ebp+4], xmm1
  00234	8d 75 d8	 lea	 esi, DWORD PTR $T530736[ebp]
  00237	8b fb		 mov	 edi, ebx

; 259  : 	D3DXVec3Normalize( &m_vMoveDir, &m_vMoveDir );

  00239	53		 push	 ebx
  0023a	53		 push	 ebx
  0023b	0f 5a cc	 cvtps2pd xmm1, xmm4
  0023e	f2 0f 58 c1	 addsd	 xmm0, xmm1
  00242	66 0f 5a c0	 cvtpd2ps xmm0, xmm0
  00246	f3 0f 11 45 e0	 movss	 DWORD PTR $T530736[ebp+8], xmm0
  0024b	a5		 movsd
  0024c	a5		 movsd
  0024d	a5		 movsd
  0024e	e8 00 00 00 00	 call	 _D3DXVec3Normalize@8

; 260  : 
; 261  : 	float fCos = D3DXVec3Dot( &vPreDir, &m_vMoveDir );

  00253	f3 0f 10 65 f4	 movss	 xmm4, DWORD PTR _vPreDir$[ebp+4]
  00258	f3 0f 10 53 04	 movss	 xmm2, DWORD PTR [ebx+4]
  0025d	f3 0f 10 0b	 movss	 xmm1, DWORD PTR [ebx]
  00261	f3 0f 10 6d f0	 movss	 xmm5, DWORD PTR _vPreDir$[ebp]
  00266	f3 0f 10 5b 08	 movss	 xmm3, DWORD PTR [ebx+8]
  0026b	0f 5a e4	 cvtps2pd xmm4, xmm4
  0026e	0f 5a c2	 cvtps2pd xmm0, xmm2
  00271	f2 0f 59 c4	 mulsd	 xmm0, xmm4
  00275	0f 5a ed	 cvtps2pd xmm5, xmm5
  00278	0f 5a e1	 cvtps2pd xmm4, xmm1
  0027b	f2 0f 59 e5	 mulsd	 xmm4, xmm5
  0027f	f3 0f 10 6d f8	 movss	 xmm5, DWORD PTR _vPreDir$[ebp+8]
  00284	f2 0f 58 c4	 addsd	 xmm0, xmm4
  00288	0f 5a ed	 cvtps2pd xmm5, xmm5
  0028b	0f 5a e3	 cvtps2pd xmm4, xmm3
  0028e	f2 0f 59 e5	 mulsd	 xmm4, xmm5
  00292	f2 0f 58 c4	 addsd	 xmm0, xmm4
  00296	66 0f 5a c0	 cvtpd2ps xmm0, xmm0

; 262  : 
; 263  : 	// 0 
; 264  : 	if( fCos >= 1.0f )

  0029a	0f 2f 05 00 00
	00 00		 comiss	 xmm0, DWORD PTR __real@3f800000
  002a1	f3 0f 11 45 bc	 movss	 DWORD PTR _fCos$[ebp], xmm0
  002a6	0f 83 3d 03 00
	00		 jae	 $LN1@ProcessRot

; 265  : 	{
; 266  : 		//  
; 267  : 	}
; 268  : 	else if( fCos <= -1.0f ) // 180 

  002ac	f3 0f 10 25 00
	00 00 00	 movss	 xmm4, DWORD PTR __real@bf800000
  002b4	0f 2f e0	 comiss	 xmm4, xmm0
  002b7	0f 82 30 02 00
	00		 jb	 $LN4@ProcessRot

; 269  : 	{
; 270  : 		D3DXVECTOR3 vAxis1, vAxis2;
; 271  : 		if( m_vMoveDir != ioMath::UNIT_Y )

  002bd	8b 0d 00 00 00
	00		 mov	 ecx, DWORD PTR __imp_?UNIT_Y@ioMath@@2UD3DXVECTOR3@@A
  002c3	f3 0f 10 01	 movss	 xmm0, DWORD PTR [ecx]
  002c7	0f 57 e4	 xorps	 xmm4, xmm4
  002ca	0f 5a e1	 cvtps2pd xmm4, xmm1
  002cd	0f 5a c0	 cvtps2pd xmm0, xmm0
  002d0	66 0f 2e e0	 ucomisd xmm4, xmm0
  002d4	9f		 lahf
  002d5	f6 c4 44	 test	 ah, 68			; 00000044H
  002d8	7a 30		 jp	 SHORT $LN46@ProcessRot
  002da	0f 57 c0	 xorps	 xmm0, xmm0
  002dd	0f 5a c2	 cvtps2pd xmm0, xmm2
  002e0	f3 0f 10 51 04	 movss	 xmm2, DWORD PTR [ecx+4]
  002e5	0f 5a d2	 cvtps2pd xmm2, xmm2
  002e8	66 0f 2e c2	 ucomisd xmm0, xmm2
  002ec	9f		 lahf
  002ed	f6 c4 44	 test	 ah, 68			; 00000044H
  002f0	7a 18		 jp	 SHORT $LN46@ProcessRot
  002f2	f3 0f 10 51 08	 movss	 xmm2, DWORD PTR [ecx+8]
  002f7	0f 57 c0	 xorps	 xmm0, xmm0
  002fa	0f 5a c3	 cvtps2pd xmm0, xmm3
  002fd	0f 5a d2	 cvtps2pd xmm2, xmm2
  00300	66 0f 2e c2	 ucomisd xmm0, xmm2
  00304	9f		 lahf
  00305	f6 c4 44	 test	 ah, 68			; 00000044H
  00308	7b 5b		 jnp	 SHORT $LN3@ProcessRot
$LN46@ProcessRot:

; 272  : 		{
; 273  : 			D3DXVec3Cross( &vAxis1, &m_vMoveDir, &ioMath::UNIT_Y );

  0030a	f3 0f 10 59 08	 movss	 xmm3, DWORD PTR [ecx+8]
  0030f	f3 0f 10 63 08	 movss	 xmm4, DWORD PTR [ebx+8]
  00314	f3 0f 10 43 04	 movss	 xmm0, DWORD PTR [ebx+4]
  00319	f3 0f 10 69 04	 movss	 xmm5, DWORD PTR [ecx+4]
  0031e	0f 5a f3	 cvtps2pd xmm6, xmm3
  00321	0f 5a fd	 cvtps2pd xmm7, xmm5
  00324	0f 5a d0	 cvtps2pd xmm2, xmm0
  00327	f2 0f 59 d6	 mulsd	 xmm2, xmm6
  0032b	0f 5a db	 cvtps2pd xmm3, xmm3
  0032e	0f 5a ed	 cvtps2pd xmm5, xmm5
  00331	0f 5a f4	 cvtps2pd xmm6, xmm4
  00334	f2 0f 59 f7	 mulsd	 xmm6, xmm7
  00338	f2 0f 5c d6	 subsd	 xmm2, xmm6
  0033c	0f 5a f4	 cvtps2pd xmm6, xmm4
  0033f	f3 0f 10 21	 movss	 xmm4, DWORD PTR [ecx]
  00343	0f 5a fc	 cvtps2pd xmm7, xmm4
  00346	f2 0f 59 f7	 mulsd	 xmm6, xmm7
  0034a	0f 5a e4	 cvtps2pd xmm4, xmm4
  0034d	0f 5a f9	 cvtps2pd xmm7, xmm1
  00350	f2 0f 59 fb	 mulsd	 xmm7, xmm3
  00354	f2 0f 5c f7	 subsd	 xmm6, xmm7
  00358	0f 5a c9	 cvtps2pd xmm1, xmm1
  0035b	66 0f 5a de	 cvtpd2ps xmm3, xmm6
  0035f	f2 0f 59 cd	 mulsd	 xmm1, xmm5

; 274  : 			D3DXVec3Normalize( &vAxis1, &-vAxis1 );
; 275  : 		}
; 276  : 		else

  00363	eb 5e		 jmp	 SHORT $LN93@ProcessRot
$LN3@ProcessRot:

; 277  : 		{
; 278  : 			D3DXVec3Cross( &vAxis1, &m_vMoveDir, &ioMath::UNIT_X );

  00365	a1 00 00 00 00	 mov	 eax, DWORD PTR __imp_?UNIT_X@ioMath@@2UD3DXVECTOR3@@A
  0036a	f3 0f 10 58 08	 movss	 xmm3, DWORD PTR [eax+8]
  0036f	f3 0f 10 68 04	 movss	 xmm5, DWORD PTR [eax+4]
  00374	f3 0f 10 63 08	 movss	 xmm4, DWORD PTR [ebx+8]
  00379	f3 0f 10 43 04	 movss	 xmm0, DWORD PTR [ebx+4]
  0037e	0f 5a f3	 cvtps2pd xmm6, xmm3
  00381	0f 5a fd	 cvtps2pd xmm7, xmm5
  00384	0f 5a d0	 cvtps2pd xmm2, xmm0
  00387	f2 0f 59 d6	 mulsd	 xmm2, xmm6
  0038b	0f 5a db	 cvtps2pd xmm3, xmm3
  0038e	0f 5a f4	 cvtps2pd xmm6, xmm4
  00391	f2 0f 59 f7	 mulsd	 xmm6, xmm7
  00395	f2 0f 5c d6	 subsd	 xmm2, xmm6
  00399	f3 0f 10 30	 movss	 xmm6, DWORD PTR [eax]
  0039d	0f 5a fe	 cvtps2pd xmm7, xmm6
  003a0	0f 5a e4	 cvtps2pd xmm4, xmm4
  003a3	f2 0f 59 e7	 mulsd	 xmm4, xmm7
  003a7	0f 5a f9	 cvtps2pd xmm7, xmm1
  003aa	f2 0f 59 fb	 mulsd	 xmm7, xmm3
  003ae	f2 0f 5c e7	 subsd	 xmm4, xmm7
  003b2	66 0f 5a dc	 cvtpd2ps xmm3, xmm4
  003b6	0f 5a c9	 cvtps2pd xmm1, xmm1
  003b9	0f 5a e5	 cvtps2pd xmm4, xmm5
  003bc	f2 0f 59 cc	 mulsd	 xmm1, xmm4
  003c0	0f 5a e6	 cvtps2pd xmm4, xmm6
$LN93@ProcessRot:
  003c3	0f 5a c0	 cvtps2pd xmm0, xmm0
  003c6	f2 0f 59 c4	 mulsd	 xmm0, xmm4
  003ca	f2 0f 5c c8	 subsd	 xmm1, xmm0

; 279  : 			D3DXVec3Normalize( &vAxis1, &-vAxis1 );

  003ce	f3 0f 10 05 00
	00 00 00	 movss	 xmm0, DWORD PTR __mask@@NegFloat@
  003d6	f3 0f 11 5d f4	 movss	 DWORD PTR _v$534183[ebp+4], xmm3
  003db	66 0f 5a d2	 cvtpd2ps xmm2, xmm2
  003df	f3 0f 11 55 f0	 movss	 DWORD PTR _v$534183[ebp], xmm2
  003e4	66 0f 5a c9	 cvtpd2ps xmm1, xmm1
  003e8	f3 0f 11 4d f8	 movss	 DWORD PTR _v$534183[ebp+8], xmm1
  003ed	8d 7d d8	 lea	 edi, DWORD PTR _vAxis1$530741[ebp]
  003f0	8d 75 f0	 lea	 esi, DWORD PTR _v$534183[ebp]
  003f3	a5		 movsd
  003f4	a5		 movsd
  003f5	8d 45 f0	 lea	 eax, DWORD PTR $T530746[ebp]
  003f8	50		 push	 eax
  003f9	8d 45 d8	 lea	 eax, DWORD PTR _vAxis1$530741[ebp]
  003fc	a5		 movsd
  003fd	0f 57 d0	 xorps	 xmm2, xmm0
  00400	0f 57 d8	 xorps	 xmm3, xmm0
  00403	0f 57 c8	 xorps	 xmm1, xmm0
  00406	50		 push	 eax
  00407	f3 0f 11 55 f0	 movss	 DWORD PTR $T530746[ebp], xmm2
  0040c	f3 0f 11 5d f4	 movss	 DWORD PTR $T530746[ebp+4], xmm3
  00411	f3 0f 11 4d f8	 movss	 DWORD PTR $T530746[ebp+8], xmm1
  00416	e8 00 00 00 00	 call	 _D3DXVec3Normalize@8

; 280  : 		}
; 281  : 
; 282  : 		D3DXVec3Cross( &vAxis2, &m_vMoveDir, &vAxis1 );

  0041b	f3 0f 10 5d e0	 movss	 xmm3, DWORD PTR _vAxis1$530741[ebp+8]
  00420	f3 0f 10 43 04	 movss	 xmm0, DWORD PTR [ebx+4]
  00425	f3 0f 10 53 08	 movss	 xmm2, DWORD PTR [ebx+8]
  0042a	f3 0f 10 65 dc	 movss	 xmm4, DWORD PTR _vAxis1$530741[ebp+4]
  0042f	f3 0f 10 6d e0	 movss	 xmm5, DWORD PTR _vAxis1$530741[ebp+8]
  00434	0f 5a db	 cvtps2pd xmm3, xmm3
  00437	0f 5a c8	 cvtps2pd xmm1, xmm0
  0043a	f2 0f 59 cb	 mulsd	 xmm1, xmm3
  0043e	0f 5a e4	 cvtps2pd xmm4, xmm4
  00441	0f 5a ed	 cvtps2pd xmm5, xmm5
  00444	0f 5a c0	 cvtps2pd xmm0, xmm0
  00447	0f 5a da	 cvtps2pd xmm3, xmm2
  0044a	f2 0f 59 dc	 mulsd	 xmm3, xmm4
  0044e	f3 0f 10 65 d8	 movss	 xmm4, DWORD PTR _vAxis1$530741[ebp]
  00453	0f 5a e4	 cvtps2pd xmm4, xmm4
  00456	f2 0f 5c cb	 subsd	 xmm1, xmm3
  0045a	f3 0f 10 1b	 movss	 xmm3, DWORD PTR [ebx]
  0045e	0f 5a d2	 cvtps2pd xmm2, xmm2
  00461	f2 0f 59 d4	 mulsd	 xmm2, xmm4
  00465	66 0f 5a c9	 cvtpd2ps xmm1, xmm1
  00469	0f 5a e3	 cvtps2pd xmm4, xmm3
  0046c	f2 0f 59 e5	 mulsd	 xmm4, xmm5
  00470	f2 0f 5c d4	 subsd	 xmm2, xmm4
  00474	f3 0f 10 65 dc	 movss	 xmm4, DWORD PTR _vAxis1$530741[ebp+4]
  00479	0f 5a db	 cvtps2pd xmm3, xmm3
  0047c	0f 5a e4	 cvtps2pd xmm4, xmm4
  0047f	f2 0f 59 dc	 mulsd	 xmm3, xmm4
  00483	f3 0f 10 65 d8	 movss	 xmm4, DWORD PTR _vAxis1$530741[ebp]
  00488	f3 0f 11 4d f0	 movss	 DWORD PTR _v$534206[ebp], xmm1
  0048d	0f 5a e4	 cvtps2pd xmm4, xmm4
  00490	f2 0f 59 c4	 mulsd	 xmm0, xmm4
  00494	f2 0f 5c d8	 subsd	 xmm3, xmm0

; 283  : 		D3DXVec3Normalize( &vAxis2, &-vAxis2 );

  00498	f3 0f 10 05 00
	00 00 00	 movss	 xmm0, DWORD PTR __mask@@NegFloat@
  004a0	66 0f 5a d2	 cvtpd2ps xmm2, xmm2
  004a4	f3 0f 11 55 f4	 movss	 DWORD PTR _v$534206[ebp+4], xmm2
  004a9	66 0f 5a db	 cvtpd2ps xmm3, xmm3
  004ad	f3 0f 11 5d f8	 movss	 DWORD PTR _v$534206[ebp+8], xmm3
  004b2	8d 75 f0	 lea	 esi, DWORD PTR _v$534206[ebp]
  004b5	8d 7d c0	 lea	 edi, DWORD PTR _vAxis2$530742[ebp]
  004b8	a5		 movsd
  004b9	a5		 movsd
  004ba	8d 45 f0	 lea	 eax, DWORD PTR $T530747[ebp]
  004bd	50		 push	 eax
  004be	a5		 movsd
  004bf	8d 45 c0	 lea	 eax, DWORD PTR _vAxis2$530742[ebp]
  004c2	0f 57 c8	 xorps	 xmm1, xmm0
  004c5	0f 57 d0	 xorps	 xmm2, xmm0
  004c8	0f 57 d8	 xorps	 xmm3, xmm0
  004cb	50		 push	 eax
  004cc	f3 0f 11 4d f0	 movss	 DWORD PTR $T530747[ebp], xmm1
  004d1	f3 0f 11 55 f4	 movss	 DWORD PTR $T530747[ebp+4], xmm2
  004d6	f3 0f 11 5d f8	 movss	 DWORD PTR $T530747[ebp+8], xmm3
  004db	e8 00 00 00 00	 call	 _D3DXVec3Normalize@8

; 284  : 
; 285  : 		GetParentSceneNode()->Rotate( vAxis2, 1.0f );

  004e0	f3 0f 10 05 00
	00 00 00	 movss	 xmm0, DWORD PTR __real@3f800000

; 286  : 	}
; 287  : 	else // 

  004e8	e9 e5 00 00 00	 jmp	 $LN94@ProcessRot
$LN4@ProcessRot:

; 288  : 	{
; 289  : 		float fGapAngle = RADtoDEG( acos( fCos ) );

  004ed	d9 45 bc	 fld	 DWORD PTR _fCos$[ebp]
  004f0	e8 00 00 00 00	 call	 __CIacos
  004f5	d9 5d bc	 fstp	 DWORD PTR tv1720[ebp]
  004f8	d9 45 bc	 fld	 DWORD PTR tv1720[ebp]
  004fb	51		 push	 ecx
  004fc	d9 1c 24	 fstp	 DWORD PTR [esp]
  004ff	e8 00 00 00 00	 call	 ??$RADtoDEG@M@@YAMM@Z	; RADtoDEG<float>

; 290  : 
; 291  : 		D3DXVECTOR3 vAxis;
; 292  : 		D3DXVec3Cross( &vAxis, &vCurDir, &m_vMoveDir );

  00504	f3 0f 10 55 e8	 movss	 xmm2, DWORD PTR _vCurDir$[ebp+4]
  00509	d9 5d bc	 fstp	 DWORD PTR _fGapAngle$530749[ebp]
  0050c	f3 0f 10 43 08	 movss	 xmm0, DWORD PTR [ebx+8]
  00511	f3 0f 10 5b 04	 movss	 xmm3, DWORD PTR [ebx+4]
  00516	f3 0f 10 65 ec	 movss	 xmm4, DWORD PTR _vCurDir$[ebp+8]
  0051b	f3 0f 10 6d ec	 movss	 xmm5, DWORD PTR _vCurDir$[ebp+8]
  00520	0f 5a d2	 cvtps2pd xmm2, xmm2
  00523	0f 5a c8	 cvtps2pd xmm1, xmm0
  00526	f2 0f 59 ca	 mulsd	 xmm1, xmm2
  0052a	0f 5a e4	 cvtps2pd xmm4, xmm4
  0052d	0f 5a ed	 cvtps2pd xmm5, xmm5
  00530	0f 5a c0	 cvtps2pd xmm0, xmm0
  00533	0f 5a d3	 cvtps2pd xmm2, xmm3
  00536	f2 0f 59 d4	 mulsd	 xmm2, xmm4
  0053a	f3 0f 10 23	 movss	 xmm4, DWORD PTR [ebx]
  0053e	f2 0f 5c ca	 subsd	 xmm1, xmm2
  00542	66 0f 5a c9	 cvtpd2ps xmm1, xmm1
  00546	f3 0f 11 4d f0	 movss	 DWORD PTR _v$534245[ebp], xmm1
  0054b	8d 75 f0	 lea	 esi, DWORD PTR _v$534245[ebp]
  0054e	0f 5a d4	 cvtps2pd xmm2, xmm4
  00551	f2 0f 59 d5	 mulsd	 xmm2, xmm5
  00555	f3 0f 10 6d e4	 movss	 xmm5, DWORD PTR _vCurDir$[ebp]
  0055a	0f 5a ed	 cvtps2pd xmm5, xmm5
  0055d	f2 0f 59 c5	 mulsd	 xmm0, xmm5
  00561	f2 0f 5c d0	 subsd	 xmm2, xmm0
  00565	66 0f 5a d2	 cvtpd2ps xmm2, xmm2
  00569	f3 0f 11 55 f4	 movss	 DWORD PTR _v$534245[ebp+4], xmm2
  0056e	8d 7d c0	 lea	 edi, DWORD PTR _vAxis$530754[ebp]
  00571	59		 pop	 ecx
  00572	0f 5a c3	 cvtps2pd xmm0, xmm3
  00575	f3 0f 10 5d e4	 movss	 xmm3, DWORD PTR _vCurDir$[ebp]
  0057a	0f 5a db	 cvtps2pd xmm3, xmm3
  0057d	f2 0f 59 c3	 mulsd	 xmm0, xmm3

; 293  : 		D3DXVec3Normalize( &vAxis, &-vAxis );

  00581	8d 45 f0	 lea	 eax, DWORD PTR $T530755[ebp]
  00584	50		 push	 eax
  00585	8d 45 c0	 lea	 eax, DWORD PTR _vAxis$530754[ebp]
  00588	50		 push	 eax
  00589	0f 5a dc	 cvtps2pd xmm3, xmm4
  0058c	f3 0f 10 65 e8	 movss	 xmm4, DWORD PTR _vCurDir$[ebp+4]
  00591	0f 5a e4	 cvtps2pd xmm4, xmm4
  00594	f2 0f 59 dc	 mulsd	 xmm3, xmm4
  00598	f2 0f 5c c3	 subsd	 xmm0, xmm3
  0059c	66 0f 5a d8	 cvtpd2ps xmm3, xmm0
  005a0	f3 0f 10 05 00
	00 00 00	 movss	 xmm0, DWORD PTR __mask@@NegFloat@
  005a8	f3 0f 11 5d f8	 movss	 DWORD PTR _v$534245[ebp+8], xmm3
  005ad	a5		 movsd
  005ae	a5		 movsd
  005af	a5		 movsd
  005b0	0f 57 c8	 xorps	 xmm1, xmm0
  005b3	0f 57 d0	 xorps	 xmm2, xmm0
  005b6	0f 57 d8	 xorps	 xmm3, xmm0
  005b9	f3 0f 11 4d f0	 movss	 DWORD PTR $T530755[ebp], xmm1
  005be	f3 0f 11 55 f4	 movss	 DWORD PTR $T530755[ebp+4], xmm2
  005c3	f3 0f 11 5d f8	 movss	 DWORD PTR $T530755[ebp+8], xmm3
  005c8	e8 00 00 00 00	 call	 _D3DXVec3Normalize@8

; 294  : 
; 295  : 		GetParentSceneNode()->Rotate( vAxis, fGapAngle );

  005cd	f3 0f 10 45 bc	 movss	 xmm0, DWORD PTR _fGapAngle$530749[ebp]
$LN94@ProcessRot:
  005d2	8b 45 b8	 mov	 eax, DWORD PTR _this$GSCopy$[ebp]
  005d5	8b 48 04	 mov	 ecx, DWORD PTR [eax+4]
  005d8	8b 01		 mov	 eax, DWORD PTR [ecx]
  005da	6a 01		 push	 1
  005dc	51		 push	 ecx
  005dd	8d 55 c0	 lea	 edx, DWORD PTR _vAxis$530754[ebp]
  005e0	f3 0f 11 04 24	 movss	 DWORD PTR [esp], xmm0
  005e5	52		 push	 edx
  005e6	ff 50 50	 call	 DWORD PTR [eax+80]
$LN1@ProcessRot:

; 296  : 	}
; 297  : }

  005e9	8b 4d fc	 mov	 ecx, DWORD PTR __$ArrayPad$[ebp]
  005ec	5f		 pop	 edi
  005ed	5e		 pop	 esi
  005ee	33 cd		 xor	 ecx, ebp
  005f0	5b		 pop	 ebx
  005f1	e8 00 00 00 00	 call	 @__security_check_cookie@4
  005f6	c9		 leave
  005f7	c2 0c 00	 ret	 12			; 0000000cH
?ProcessRotate@ioRotateReturnWeapon@@IAEXPAVioPlayStage@@PAVioBaseChar@@M@Z ENDP ; ioRotateReturnWeapon::ProcessRotate
_TEXT	ENDS
PUBLIC	__$ArrayPad$
PUBLIC	?OnReturnState@ioRotateReturnWeapon@@IAEXPAVioPlayStage@@PAVioBaseChar@@M@Z ; ioRotateReturnWeapon::OnReturnState
; Function compile flags: /Ogsp
;	COMDAT ?OnReturnState@ioRotateReturnWeapon@@IAEXPAVioPlayStage@@PAVioBaseChar@@M@Z
_TEXT	SEGMENT
tv361 = -36						; size = 4
tv351 = -36						; size = 4
$T534290 = -36						; size = 4
tv369 = -32						; size = 4
tv365 = -32						; size = 4
tv347 = -32						; size = 4
tv343 = -32						; size = 4
$T534294 = -32						; size = 4
$T530765 = -28						; size = 12
_vPos$ = -16						; size = 12
__$ArrayPad$ = -4					; size = 4
_pStage$ = 8						; size = 4
_pOwner$ = 12						; size = 4
_fTimePerSec$ = 16					; size = 4
?OnReturnState@ioRotateReturnWeapon@@IAEXPAVioPlayStage@@PAVioBaseChar@@M@Z PROC ; ioRotateReturnWeapon::OnReturnState, COMDAT
; _this$ = ecx

; 300  : {

  00000	55		 push	 ebp
  00001	8b ec		 mov	 ebp, esp
  00003	83 ec 24	 sub	 esp, 36			; 00000024H
  00006	a1 00 00 00 00	 mov	 eax, DWORD PTR ___security_cookie
  0000b	33 c5		 xor	 eax, ebp
  0000d	89 45 fc	 mov	 DWORD PTR __$ArrayPad$[ebp], eax
  00010	53		 push	 ebx
  00011	56		 push	 esi
  00012	57		 push	 edi
  00013	8b f1		 mov	 esi, ecx

; 301  : 	D3DXVECTOR3 vPos = pOwner->GetMidPositionByRate();

  00015	b8 05 00 00 00	 mov	 eax, 5
  0001a	8b c8		 mov	 ecx, eax
  0001c	b8 0a 00 00 00	 mov	 eax, 10			; 0000000aH
  00021	89 4d e0	 mov	 DWORD PTR tv369[ebp], ecx
  00024	db 45 e0	 fild	 DWORD PTR tv369[ebp]
  00027	85 c9		 test	 ecx, ecx
  00029	79 06		 jns	 SHORT $LN19@OnReturnSt
  0002b	d8 05 00 00 00
	00		 fadd	 DWORD PTR __real@4f800000
$LN19@OnReturnSt:
  00031	89 45 e0	 mov	 DWORD PTR tv365[ebp], eax
  00034	db 45 e0	 fild	 DWORD PTR tv365[ebp]
  00037	85 c0		 test	 eax, eax
  00039	79 06		 jns	 SHORT $LN20@OnReturnSt
  0003b	d8 05 00 00 00
	00		 fadd	 DWORD PTR __real@4f800000
$LN20@OnReturnSt:
  00041	de f9		 fdivp	 ST(1), ST(0)
  00043	8b 5d 0c	 mov	 ebx, DWORD PTR _pOwner$[ebp]
  00046	51		 push	 ecx
  00047	8d 45 f0	 lea	 eax, DWORD PTR _vPos$[ebp]
  0004a	8b cb		 mov	 ecx, ebx
  0004c	d9 5d dc	 fstp	 DWORD PTR tv361[ebp]
  0004f	d9 45 dc	 fld	 DWORD PTR tv361[ebp]
  00052	d9 1c 24	 fstp	 DWORD PTR [esp]
  00055	50		 push	 eax
  00056	e8 00 00 00 00	 call	 ?GetMidPositionByRate@ioGameEntity@@QBE?AUD3DXVECTOR3@@M@Z ; ioGameEntity::GetMidPositionByRate

; 302  : 	vPos.y += m_fMaxEndRangeOffset;

  0005b	f3 0f 10 4d f4	 movss	 xmm1, DWORD PTR _vPos$[ebp+4]
  00060	f3 0f 10 86 f0
	08 00 00	 movss	 xmm0, DWORD PTR [esi+2288]
  00068	0f 5a c0	 cvtps2pd xmm0, xmm0
  0006b	0f 5a c9	 cvtps2pd xmm1, xmm1
  0006e	f2 0f 58 c1	 addsd	 xmm0, xmm1
  00072	66 0f 5a c0	 cvtpd2ps xmm0, xmm0
  00076	f3 0f 11 45 f4	 movss	 DWORD PTR _vPos$[ebp+4], xmm0

; 303  : 
; 304  : 	D3DXVECTOR3	vDiff = pOwner->GetMidPositionByRate() - GetPosition();

  0007b	b8 05 00 00 00	 mov	 eax, 5
  00080	89 45 dc	 mov	 DWORD PTR $T534290[ebp], eax
  00083	b8 0a 00 00 00	 mov	 eax, 10			; 0000000aH
  00088	89 45 e0	 mov	 DWORD PTR $T534294[ebp], eax
  0008b	8b 06		 mov	 eax, DWORD PTR [esi]
  0008d	8b ce		 mov	 ecx, esi
  0008f	ff 50 70	 call	 DWORD PTR [eax+112]
  00092	db 45 dc	 fild	 DWORD PTR $T534290[ebp]
  00095	8b f8		 mov	 edi, eax
  00097	8b 45 dc	 mov	 eax, DWORD PTR $T534290[ebp]
  0009a	85 c0		 test	 eax, eax
  0009c	79 06		 jns	 SHORT $LN21@OnReturnSt
  0009e	d8 05 00 00 00
	00		 fadd	 DWORD PTR __real@4f800000
$LN21@OnReturnSt:
  000a4	8b 45 e0	 mov	 eax, DWORD PTR $T534294[ebp]
  000a7	db 45 e0	 fild	 DWORD PTR $T534294[ebp]
  000aa	85 c0		 test	 eax, eax
  000ac	79 06		 jns	 SHORT $LN22@OnReturnSt
  000ae	d8 05 00 00 00
	00		 fadd	 DWORD PTR __real@4f800000
$LN22@OnReturnSt:
  000b4	de f9		 fdivp	 ST(1), ST(0)
  000b6	51		 push	 ecx
  000b7	8d 45 e4	 lea	 eax, DWORD PTR $T530765[ebp]
  000ba	8b cb		 mov	 ecx, ebx
  000bc	d9 5d e0	 fstp	 DWORD PTR tv343[ebp]
  000bf	d9 45 e0	 fld	 DWORD PTR tv343[ebp]
  000c2	d9 1c 24	 fstp	 DWORD PTR [esp]
  000c5	50		 push	 eax
  000c6	e8 00 00 00 00	 call	 ?GetMidPositionByRate@ioGameEntity@@QBE?AUD3DXVECTOR3@@M@Z ; ioGameEntity::GetMidPositionByRate
  000cb	f3 0f 10 00	 movss	 xmm0, DWORD PTR [eax]
  000cf	f3 0f 10 0f	 movss	 xmm1, DWORD PTR [edi]
  000d3	f3 0f 10 57 04	 movss	 xmm2, DWORD PTR [edi+4]
  000d8	f3 0f 10 5f 08	 movss	 xmm3, DWORD PTR [edi+8]
  000dd	0f 5a c9	 cvtps2pd xmm1, xmm1
  000e0	0f 5a c0	 cvtps2pd xmm0, xmm0
  000e3	f2 0f 5c c1	 subsd	 xmm0, xmm1
  000e7	f3 0f 10 48 04	 movss	 xmm1, DWORD PTR [eax+4]
  000ec	0f 5a d2	 cvtps2pd xmm2, xmm2
  000ef	0f 5a c9	 cvtps2pd xmm1, xmm1
  000f2	f2 0f 5c ca	 subsd	 xmm1, xmm2
  000f6	f3 0f 10 50 08	 movss	 xmm2, DWORD PTR [eax+8]
  000fb	66 0f 5a c0	 cvtpd2ps xmm0, xmm0
  000ff	0f 5a d2	 cvtps2pd xmm2, xmm2
  00102	0f 5a db	 cvtps2pd xmm3, xmm3
  00105	f2 0f 5c d3	 subsd	 xmm2, xmm3

; 305  : 	if( D3DXVec3LengthSq( &vDiff ) < m_fMaxEndRange * m_fMaxEndRange )

  00109	f3 0f 10 9e ec
	08 00 00	 movss	 xmm3, DWORD PTR [esi+2284]
  00111	66 0f 5a c9	 cvtpd2ps xmm1, xmm1
  00115	f3 0f 5a c0	 cvtss2sd xmm0, xmm0
  00119	f3 0f 5a c9	 cvtss2sd xmm1, xmm1
  0011d	f2 0f 59 c0	 mulsd	 xmm0, xmm0
  00121	66 0f 5a d2	 cvtpd2ps xmm2, xmm2
  00125	f2 0f 59 c9	 mulsd	 xmm1, xmm1
  00129	f2 0f 58 c8	 addsd	 xmm1, xmm0
  0012d	f3 0f 5a d2	 cvtss2sd xmm2, xmm2
  00131	f2 0f 59 d2	 mulsd	 xmm2, xmm2
  00135	0f 57 c0	 xorps	 xmm0, xmm0
  00138	f2 0f 58 ca	 addsd	 xmm1, xmm2
  0013c	0f 5a db	 cvtps2pd xmm3, xmm3
  0013f	66 0f 5a c1	 cvtpd2ps xmm0, xmm1
  00143	0f 5a c0	 cvtps2pd xmm0, xmm0
  00146	f2 0f 59 db	 mulsd	 xmm3, xmm3
  0014a	66 0f 2f d8	 comisd	 xmm3, xmm0
  0014e	76 17		 jbe	 SHORT $LN2@OnReturnSt

; 306  : 	{
; 307  : 		m_State			= WS_END;
; 308  : 		m_fCurMoveRange	= 0.0f;

  00150	0f 57 c0	 xorps	 xmm0, xmm0
  00153	c7 86 dc 08 00
	00 03 00 00 00	 mov	 DWORD PTR [esi+2268], 3
  0015d	f3 0f 11 86 fc
	08 00 00	 movss	 DWORD PTR [esi+2300], xmm0

; 309  : 	}
; 310  : 	else

  00165	eb 2c		 jmp	 SHORT $LN1@OnReturnSt
$LN2@OnReturnSt:

; 311  : 	{
; 312  : 		ProcessRotate( pStage, pOwner, fTimePerSec );

  00167	f3 0f 10 45 10	 movss	 xmm0, DWORD PTR _fTimePerSec$[ebp]
  0016c	51		 push	 ecx
  0016d	f3 0f 11 04 24	 movss	 DWORD PTR [esp], xmm0
  00172	53		 push	 ebx
  00173	ff 75 08	 push	 DWORD PTR _pStage$[ebp]
  00176	8b ce		 mov	 ecx, esi
  00178	e8 00 00 00 00	 call	 ?ProcessRotate@ioRotateReturnWeapon@@IAEXPAVioPlayStage@@PAVioBaseChar@@M@Z ; ioRotateReturnWeapon::ProcessRotate

; 313  : 		ProcessMove( pStage, pOwner, fTimePerSec );

  0017d	f3 0f 10 45 10	 movss	 xmm0, DWORD PTR _fTimePerSec$[ebp]
  00182	51		 push	 ecx
  00183	f3 0f 11 04 24	 movss	 DWORD PTR [esp], xmm0
  00188	53		 push	 ebx
  00189	ff 75 08	 push	 DWORD PTR _pStage$[ebp]
  0018c	8b ce		 mov	 ecx, esi
  0018e	e8 00 00 00 00	 call	 ?ProcessMove@ioRotateReturnWeapon@@IAEXPAVioPlayStage@@PAVioBaseChar@@M@Z ; ioRotateReturnWeapon::ProcessMove
$LN1@OnReturnSt:

; 314  : 	}
; 315  : }

  00193	8b 4d fc	 mov	 ecx, DWORD PTR __$ArrayPad$[ebp]
  00196	5f		 pop	 edi
  00197	5e		 pop	 esi
  00198	33 cd		 xor	 ecx, ebp
  0019a	5b		 pop	 ebx
  0019b	e8 00 00 00 00	 call	 @__security_check_cookie@4
  001a0	c9		 leave
  001a1	c2 0c 00	 ret	 12			; 0000000cH
?OnReturnState@ioRotateReturnWeapon@@IAEXPAVioPlayStage@@PAVioBaseChar@@M@Z ENDP ; ioRotateReturnWeapon::OnReturnState
_TEXT	ENDS
PUBLIC	__real@408f400000000000
;	COMDAT __real@408f400000000000
CONST	SEGMENT
__real@408f400000000000 DQ 0408f400000000000r	; 1000
; Function compile flags: /Ogsp
CONST	ENDS
;	COMDAT ?Process@ioRotateReturnWeapon@@MAEXMPAVioPlayStage@@@Z
_TEXT	SEGMENT
_fTimePerSec$ = 8					; size = 4
_pStage$ = 12						; size = 4
?Process@ioRotateReturnWeapon@@MAEXMPAVioPlayStage@@@Z PROC ; ioRotateReturnWeapon::Process, COMDAT
; _this$ = ecx

; 194  : {

  00000	55		 push	 ebp
  00001	8b ec		 mov	 ebp, esp
  00003	53		 push	 ebx
  00004	56		 push	 esi
  00005	8b d9		 mov	 ebx, ecx

; 195  : 	ioBaseChar* pOwner = GetOwner();

  00007	e8 00 00 00 00	 call	 ?GetOwner@ioWeapon@@QBEPAVioBaseChar@@XZ ; ioWeapon::GetOwner
  0000c	8b f0		 mov	 esi, eax

; 196  : 	if( !CheckWeaponDead( pOwner ) )

  0000e	56		 push	 esi
  0000f	8b cb		 mov	 ecx, ebx
  00011	e8 00 00 00 00	 call	 ?CheckWeaponDead@ioRotateReturnWeapon@@QAE_NPAVioBaseChar@@@Z ; ioRotateReturnWeapon::CheckWeaponDead
  00016	84 c0		 test	 al, al
  00018	0f 84 9d 00 00
	00		 je	 $LN1@Process

; 197  : 		return;
; 198  : 
; 199  : 	switch( m_State )

  0001e	8b 83 dc 08 00
	00		 mov	 eax, DWORD PTR [ebx+2268]
  00024	83 e8 00	 sub	 eax, 0
  00027	f3 0f 10 45 08	 movss	 xmm0, DWORD PTR _fTimePerSec$[ebp]
  0002c	74 2c		 je	 SHORT $LN4@Process
  0002e	48		 dec	 eax
  0002f	74 16		 je	 SHORT $LN3@Process
  00031	48		 dec	 eax
  00032	75 44		 jne	 SHORT $LN5@Process

; 212  : 	case WS_RETURN:
; 213  : 		{
; 214  : 			OnReturnState( pStage, pOwner, fTimePerSec );

  00034	51		 push	 ecx
  00035	f3 0f 11 04 24	 movss	 DWORD PTR [esp], xmm0
  0003a	56		 push	 esi
  0003b	ff 75 0c	 push	 DWORD PTR _pStage$[ebp]
  0003e	8b cb		 mov	 ecx, ebx
  00040	e8 00 00 00 00	 call	 ?OnReturnState@ioRotateReturnWeapon@@IAEXPAVioPlayStage@@PAVioBaseChar@@M@Z ; ioRotateReturnWeapon::OnReturnState

; 215  : 		}
; 216  : 		break;

  00045	eb 31		 jmp	 SHORT $LN5@Process
$LN3@Process:

; 205  : 		}
; 206  : 		break;
; 207  : 	case WS_MOVE:
; 208  : 		{
; 209  : 			OnMoveState( pStage, pOwner, fTimePerSec );

  00047	51		 push	 ecx
  00048	f3 0f 11 04 24	 movss	 DWORD PTR [esp], xmm0
  0004d	56		 push	 esi
  0004e	ff 75 0c	 push	 DWORD PTR _pStage$[ebp]
  00051	8b cb		 mov	 ecx, ebx
  00053	e8 00 00 00 00	 call	 ?OnMoveState@ioRotateReturnWeapon@@IAEXPAVioPlayStage@@PAVioBaseChar@@M@Z ; ioRotateReturnWeapon::OnMoveState

; 210  : 		}
; 211  : 		break;

  00058	eb 1e		 jmp	 SHORT $LN5@Process
$LN4@Process:

; 200  : 	{
; 201  : 	case WS_INIT:
; 202  : 		{
; 203  : 			m_vStartPos = GetPosition();

  0005a	8b 03		 mov	 eax, DWORD PTR [ebx]
  0005c	57		 push	 edi
  0005d	8b cb		 mov	 ecx, ebx
  0005f	ff 50 70	 call	 DWORD PTR [eax+112]
  00062	8d bb 00 09 00
	00		 lea	 edi, DWORD PTR [ebx+2304]
  00068	8b f0		 mov	 esi, eax
  0006a	a5		 movsd
  0006b	a5		 movsd
  0006c	a5		 movsd

; 204  : 			m_State		= WS_MOVE;

  0006d	c7 83 dc 08 00
	00 01 00 00 00	 mov	 DWORD PTR [ebx+2268], 1
  00077	5f		 pop	 edi
$LN5@Process:

; 217  : 	}
; 218  : 
; 219  : 	UpdateWorldAttackBox( fTimePerSec, false );

  00078	f3 0f 10 45 08	 movss	 xmm0, DWORD PTR _fTimePerSec$[ebp]
  0007d	8b 03		 mov	 eax, DWORD PTR [ebx]
  0007f	6a 00		 push	 0
  00081	51		 push	 ecx
  00082	8b cb		 mov	 ecx, ebx
  00084	f3 0f 11 04 24	 movss	 DWORD PTR [esp], xmm0
  00089	ff 90 38 01 00
	00		 call	 DWORD PTR [eax+312]

; 220  : 	if( m_pFireBall )

  0008f	8b 9b 94 08 00
	00		 mov	 ebx, DWORD PTR [ebx+2196]
  00095	85 db		 test	 ebx, ebx
  00097	74 22		 je	 SHORT $LN1@Process

; 221  : 		m_pFireBall->Update( fTimePerSec * 1000.0f );

  00099	f3 0f 10 45 08	 movss	 xmm0, DWORD PTR _fTimePerSec$[ebp]
  0009e	8d 4b 14	 lea	 ecx, DWORD PTR [ebx+20]
  000a1	8b 01		 mov	 eax, DWORD PTR [ecx]
  000a3	0f 5a c0	 cvtps2pd xmm0, xmm0
  000a6	f2 0f 59 05 00
	00 00 00	 mulsd	 xmm0, QWORD PTR __real@408f400000000000
  000ae	51		 push	 ecx
  000af	f2 0f 5a c0	 cvtsd2ss xmm0, xmm0
  000b3	f3 0f 11 04 24	 movss	 DWORD PTR [esp], xmm0
  000b8	ff 50 40	 call	 DWORD PTR [eax+64]
$LN1@Process:
  000bb	5e		 pop	 esi
  000bc	5b		 pop	 ebx

; 222  : }

  000bd	5d		 pop	 ebp
  000be	c2 08 00	 ret	 8
?Process@ioRotateReturnWeapon@@MAEXMPAVioPlayStage@@@Z ENDP ; ioRotateReturnWeapon::Process
_TEXT	ENDS
END
