; Listing generated by Microsoft (R) Optimizing Compiler Version 16.00.30319.01 

	TITLE	D:\Lost Saga For Developer\Youtube\Tutorial\Source\src\LSClient\ioRunningAttackSkill9.cpp
	.686P
	.XMM
	include listing.inc
	.model	flat

INCLUDELIB MSVCRT
INCLUDELIB OLDNAMES

PUBLIC	?_EEM_DS@?$deque@UD3DXVECTOR3@@V?$allocator@UD3DXVECTOR3@@@std@@@std@@2HB ; std::deque<D3DXVECTOR3,std::allocator<D3DXVECTOR3> >::_EEM_DS
;	COMDAT ?_EEM_DS@?$deque@UD3DXVECTOR3@@V?$allocator@UD3DXVECTOR3@@@std@@@std@@2HB
CONST	SEGMENT
?_EEM_DS@?$deque@UD3DXVECTOR3@@V?$allocator@UD3DXVECTOR3@@@std@@@std@@2HB DD 01H ; std::deque<D3DXVECTOR3,std::allocator<D3DXVECTOR3> >::_EEM_DS
CONST	ENDS
PUBLIC	?GetCharName@ioBaseChar@@QBEABVioHashString@@XZ	; ioBaseChar::GetCharName
; Function compile flags: /Ogsp
; File d:\lost saga for developer\youtube\tutorial\source\src\lsclient\iobasechar.h
;	COMDAT ?GetCharName@ioBaseChar@@QBEABVioHashString@@XZ
_TEXT	SEGMENT
?GetCharName@ioBaseChar@@QBEABVioHashString@@XZ PROC	; ioBaseChar::GetCharName, COMDAT
; _this$ = ecx

; 2594 : 	inline const ioHashString& GetCharName() const { return m_Name; }

  00000	8d 81 d4 02 00
	00		 lea	 eax, DWORD PTR [ecx+724]
  00006	c3		 ret	 0
?GetCharName@ioBaseChar@@QBEABVioHashString@@XZ ENDP	; ioBaseChar::GetCharName
_TEXT	ENDS
PUBLIC	?GetMoveDir@ioBaseChar@@QBEABUD3DXVECTOR3@@XZ	; ioBaseChar::GetMoveDir
; Function compile flags: /Ogsp
;	COMDAT ?GetMoveDir@ioBaseChar@@QBEABUD3DXVECTOR3@@XZ
_TEXT	SEGMENT
?GetMoveDir@ioBaseChar@@QBEABUD3DXVECTOR3@@XZ PROC	; ioBaseChar::GetMoveDir, COMDAT
; _this$ = ecx

; 2596 : 	inline const D3DXVECTOR3& GetMoveDir() const { return m_vMoveDir; }

  00000	8d 81 b4 06 00
	00		 lea	 eax, DWORD PTR [ecx+1716]
  00006	c3		 ret	 0
?GetMoveDir@ioBaseChar@@QBEABUD3DXVECTOR3@@XZ ENDP	; ioBaseChar::GetMoveDir
_TEXT	ENDS
PUBLIC	?GetTargetRot@ioBaseChar@@QBEABUD3DXQUATERNION@@XZ ; ioBaseChar::GetTargetRot
; Function compile flags: /Ogsp
;	COMDAT ?GetTargetRot@ioBaseChar@@QBEABUD3DXQUATERNION@@XZ
_TEXT	SEGMENT
?GetTargetRot@ioBaseChar@@QBEABUD3DXQUATERNION@@XZ PROC	; ioBaseChar::GetTargetRot, COMDAT
; _this$ = ecx

; 2599 : 	inline const D3DXQUATERNION& GetTargetRot() const { return m_qtTargetRot; }

  00000	8d 81 a4 06 00
	00		 lea	 eax, DWORD PTR [ecx+1700]
  00006	c3		 ret	 0
?GetTargetRot@ioBaseChar@@QBEABUD3DXQUATERNION@@XZ ENDP	; ioBaseChar::GetTargetRot
_TEXT	ENDS
PUBLIC	_fabsf
EXTRN	__fltused:DWORD
; Function compile flags: /Ogsp
; File c:\program files (x86)\microsoft visual studio 10.0\vc\include\math.h
;	COMDAT _fabsf
_TEXT	SEGMENT
tv129 = 8						; size = 4
__X$ = 8						; size = 4
_fabsf	PROC						; COMDAT

; 395  :         {return ((float)fabs((double)_X)); }

  00000	55		 push	 ebp
  00001	8b ec		 mov	 ebp, esp
  00003	d9 45 08	 fld	 DWORD PTR __X$[ebp]
  00006	d9 e1		 fabs
  00008	d9 5d 08	 fstp	 DWORD PTR tv129[ebp]
  0000b	d9 45 08	 fld	 DWORD PTR tv129[ebp]
  0000e	5d		 pop	 ebp
  0000f	c3		 ret	 0
_fabsf	ENDP
_TEXT	ENDS
PUBLIC	?SetCurJumpPowerAmt@ioBaseChar@@QAEXM@Z		; ioBaseChar::SetCurJumpPowerAmt
; Function compile flags: /Ogsp
; File d:\lost saga for developer\youtube\tutorial\source\src\lsclient\iobasechar.h
;	COMDAT ?SetCurJumpPowerAmt@ioBaseChar@@QAEXM@Z
_TEXT	SEGMENT
_fAmt$ = 8						; size = 4
?SetCurJumpPowerAmt@ioBaseChar@@QAEXM@Z PROC		; ioBaseChar::SetCurJumpPowerAmt, COMDAT
; _this$ = ecx

; 2628 : 	inline void SetCurJumpPowerAmt( float fAmt ) { m_fCurJumpPowerAmt = fAmt; }

  00000	55		 push	 ebp
  00001	8b ec		 mov	 ebp, esp
  00003	f3 0f 10 45 08	 movss	 xmm0, DWORD PTR _fAmt$[ebp]
  00008	f3 0f 11 81 90
	0e 00 00	 movss	 DWORD PTR [ecx+3728], xmm0
  00010	5d		 pop	 ebp
  00011	c2 04 00	 ret	 4
?SetCurJumpPowerAmt@ioBaseChar@@QAEXM@Z ENDP		; ioBaseChar::SetCurJumpPowerAmt
_TEXT	ENDS
PUBLIC	?fabs@@YAMM@Z					; fabs
; Function compile flags: /Ogsp
; File c:\program files (x86)\microsoft visual studio 10.0\vc\include\math.h
;	COMDAT ?fabs@@YAMM@Z
_TEXT	SEGMENT
tv131 = 8						; size = 4
__X$ = 8						; size = 4
?fabs@@YAMM@Z PROC					; fabs, COMDAT

; 518  :         {return (fabsf(_X)); }

  00000	55		 push	 ebp
  00001	8b ec		 mov	 ebp, esp
  00003	d9 45 08	 fld	 DWORD PTR __X$[ebp]
  00006	d9 e1		 fabs
  00008	d9 5d 08	 fstp	 DWORD PTR tv131[ebp]
  0000b	d9 45 08	 fld	 DWORD PTR tv131[ebp]
  0000e	5d		 pop	 ebp
  0000f	c3		 ret	 0
?fabs@@YAMM@Z ENDP					; fabs
_TEXT	ENDS
PUBLIC	??_7bad_alloc@std@@6B@				; std::bad_alloc::`vftable'
PUBLIC	??0bad_alloc@std@@QAE@PBD@Z			; std::bad_alloc::bad_alloc
PUBLIC	??_R4bad_alloc@std@@6B@				; std::bad_alloc::`RTTI Complete Object Locator'
PUBLIC	??_R0?AVbad_alloc@std@@@8			; std::bad_alloc `RTTI Type Descriptor'
PUBLIC	??_R3bad_alloc@std@@8				; std::bad_alloc::`RTTI Class Hierarchy Descriptor'
PUBLIC	??_R2bad_alloc@std@@8				; std::bad_alloc::`RTTI Base Class Array'
PUBLIC	??_R1A@?0A@EA@bad_alloc@std@@8			; std::bad_alloc::`RTTI Base Class Descriptor at (0,-1,0,64)'
PUBLIC	??_R1A@?0A@EA@exception@std@@8			; std::exception::`RTTI Base Class Descriptor at (0,-1,0,64)'
PUBLIC	??_R0?AVexception@std@@@8			; std::exception `RTTI Type Descriptor'
PUBLIC	??_R3exception@std@@8				; std::exception::`RTTI Class Hierarchy Descriptor'
PUBLIC	??_R2exception@std@@8				; std::exception::`RTTI Base Class Array'
EXTRN	__imp_??0exception@std@@QAE@ABQBD@Z:PROC
EXTRN	??_7type_info@@6B@:QWORD			; type_info::`vftable'
EXTRN	??_Ebad_alloc@std@@UAEPAXI@Z:PROC		; std::bad_alloc::`vector deleting destructor'
EXTRN	?what@exception@std@@UBEPBDXZ:PROC		; std::exception::what
;	COMDAT ??_R2exception@std@@8
; File c:\program files (x86)\microsoft visual studio 10.0\vc\include\exception
rdata$r	SEGMENT
??_R2exception@std@@8 DD FLAT:??_R1A@?0A@EA@exception@std@@8 ; std::exception::`RTTI Base Class Array'
rdata$r	ENDS
;	COMDAT ??_R3exception@std@@8
rdata$r	SEGMENT
??_R3exception@std@@8 DD 00H				; std::exception::`RTTI Class Hierarchy Descriptor'
	DD	00H
	DD	01H
	DD	FLAT:??_R2exception@std@@8
rdata$r	ENDS
;	COMDAT ??_R0?AVexception@std@@@8
_DATA	SEGMENT
??_R0?AVexception@std@@@8 DD FLAT:??_7type_info@@6B@	; std::exception `RTTI Type Descriptor'
	DD	00H
	DB	'.?AVexception@std@@', 00H
_DATA	ENDS
;	COMDAT ??_R1A@?0A@EA@exception@std@@8
rdata$r	SEGMENT
??_R1A@?0A@EA@exception@std@@8 DD FLAT:??_R0?AVexception@std@@@8 ; std::exception::`RTTI Base Class Descriptor at (0,-1,0,64)'
	DD	00H
	DD	00H
	DD	0ffffffffH
	DD	00H
	DD	040H
	DD	FLAT:??_R3exception@std@@8
rdata$r	ENDS
;	COMDAT ??_R1A@?0A@EA@bad_alloc@std@@8
rdata$r	SEGMENT
??_R1A@?0A@EA@bad_alloc@std@@8 DD FLAT:??_R0?AVbad_alloc@std@@@8 ; std::bad_alloc::`RTTI Base Class Descriptor at (0,-1,0,64)'
	DD	01H
	DD	00H
	DD	0ffffffffH
	DD	00H
	DD	040H
	DD	FLAT:??_R3bad_alloc@std@@8
rdata$r	ENDS
;	COMDAT ??_R2bad_alloc@std@@8
rdata$r	SEGMENT
??_R2bad_alloc@std@@8 DD FLAT:??_R1A@?0A@EA@bad_alloc@std@@8 ; std::bad_alloc::`RTTI Base Class Array'
	DD	FLAT:??_R1A@?0A@EA@exception@std@@8
rdata$r	ENDS
;	COMDAT ??_R3bad_alloc@std@@8
rdata$r	SEGMENT
??_R3bad_alloc@std@@8 DD 00H				; std::bad_alloc::`RTTI Class Hierarchy Descriptor'
	DD	00H
	DD	02H
	DD	FLAT:??_R2bad_alloc@std@@8
rdata$r	ENDS
;	COMDAT ??_R0?AVbad_alloc@std@@@8
_DATA	SEGMENT
??_R0?AVbad_alloc@std@@@8 DD FLAT:??_7type_info@@6B@	; std::bad_alloc `RTTI Type Descriptor'
	DD	00H
	DB	'.?AVbad_alloc@std@@', 00H
_DATA	ENDS
;	COMDAT ??_R4bad_alloc@std@@6B@
rdata$r	SEGMENT
??_R4bad_alloc@std@@6B@ DD 00H				; std::bad_alloc::`RTTI Complete Object Locator'
	DD	00H
	DD	00H
	DD	FLAT:??_R0?AVbad_alloc@std@@@8
	DD	FLAT:??_R3bad_alloc@std@@8
rdata$r	ENDS
;	COMDAT ??_7bad_alloc@std@@6B@
CONST	SEGMENT
??_7bad_alloc@std@@6B@ DD FLAT:??_R4bad_alloc@std@@6B@	; std::bad_alloc::`vftable'
	DD	FLAT:??_Ebad_alloc@std@@UAEPAXI@Z
	DD	FLAT:?what@exception@std@@UBEPBDXZ
; Function compile flags: /Ogsp
CONST	ENDS
;	COMDAT ??0bad_alloc@std@@QAE@PBD@Z
_TEXT	SEGMENT
__Message$ = 8						; size = 4
??0bad_alloc@std@@QAE@PBD@Z PROC			; std::bad_alloc::bad_alloc, COMDAT
; _this$ = ecx

; 345  : 		{	// construct from message string

  00000	55		 push	 ebp
  00001	8b ec		 mov	 ebp, esp
  00003	56		 push	 esi
  00004	8d 45 08	 lea	 eax, DWORD PTR __Message$[ebp]
  00007	50		 push	 eax
  00008	8b f1		 mov	 esi, ecx
  0000a	ff 15 00 00 00
	00		 call	 DWORD PTR __imp_??0exception@std@@QAE@ABQBD@Z
  00010	c7 06 00 00 00
	00		 mov	 DWORD PTR [esi], OFFSET ??_7bad_alloc@std@@6B@

; 346  : 		}

  00016	8b c6		 mov	 eax, esi
  00018	5e		 pop	 esi
  00019	5d		 pop	 ebp
  0001a	c2 04 00	 ret	 4
??0bad_alloc@std@@QAE@PBD@Z ENDP			; std::bad_alloc::bad_alloc
_TEXT	ENDS
PUBLIC	??1bad_alloc@std@@UAE@XZ			; std::bad_alloc::~bad_alloc
EXTRN	__imp_??1exception@std@@UAE@XZ:PROC
; Function compile flags: /Ogsp
;	COMDAT ??1bad_alloc@std@@UAE@XZ
_TEXT	SEGMENT
??1bad_alloc@std@@UAE@XZ PROC				; std::bad_alloc::~bad_alloc, COMDAT
; _this$ = ecx

; 354  : 		{	// destroy the object

  00000	c7 01 00 00 00
	00		 mov	 DWORD PTR [ecx], OFFSET ??_7bad_alloc@std@@6B@

; 355  : 		}

  00006	ff 25 00 00 00
	00		 jmp	 DWORD PTR __imp_??1exception@std@@UAE@XZ
??1bad_alloc@std@@UAE@XZ ENDP				; std::bad_alloc::~bad_alloc
_TEXT	ENDS
EXTRN	??3@YAXPAX@Z:PROC				; operator delete
; Function compile flags: /Ogsp
;	COMDAT ??_Gbad_alloc@std@@UAEPAXI@Z
_TEXT	SEGMENT
___flags$ = 8						; size = 4
??_Gbad_alloc@std@@UAEPAXI@Z PROC			; std::bad_alloc::`scalar deleting destructor', COMDAT
; _this$ = ecx
  00000	55		 push	 ebp
  00001	8b ec		 mov	 ebp, esp
  00003	56		 push	 esi
  00004	8b f1		 mov	 esi, ecx
  00006	c7 06 00 00 00
	00		 mov	 DWORD PTR [esi], OFFSET ??_7bad_alloc@std@@6B@
  0000c	ff 15 00 00 00
	00		 call	 DWORD PTR __imp_??1exception@std@@UAE@XZ
  00012	f6 45 08 01	 test	 BYTE PTR ___flags$[ebp], 1
  00016	74 07		 je	 SHORT $LN1@scalar
  00018	56		 push	 esi
  00019	e8 00 00 00 00	 call	 ??3@YAXPAX@Z		; operator delete
  0001e	59		 pop	 ecx
$LN1@scalar:
  0001f	8b c6		 mov	 eax, esi
  00021	5e		 pop	 esi
  00022	5d		 pop	 ebp
  00023	c2 04 00	 ret	 4
??_Gbad_alloc@std@@UAEPAXI@Z ENDP			; std::bad_alloc::`scalar deleting destructor'
_TEXT	ENDS
PUBLIC	??2@YAPAXIPAX@Z					; operator new
; Function compile flags: /Ogsp
; File c:\program files (x86)\microsoft visual studio 10.0\vc\include\new
;	COMDAT ??2@YAPAXIPAX@Z
_TEXT	SEGMENT
___formal$ = 8						; size = 4
__Where$ = 12						; size = 4
??2@YAPAXIPAX@Z PROC					; operator new, COMDAT

; 56   : 	{	// construct array with placement at _Where

  00000	55		 push	 ebp
  00001	8b ec		 mov	 ebp, esp

; 57   : 	return (_Where);

  00003	8b 45 0c	 mov	 eax, DWORD PTR __Where$[ebp]

; 58   : 	}

  00006	5d		 pop	 ebp
  00007	c3		 ret	 0
??2@YAPAXIPAX@Z ENDP					; operator new
_TEXT	ENDS
PUBLIC	??3@YAXPAX0@Z					; operator delete
; Function compile flags: /Ogsp
;	COMDAT ??3@YAXPAX0@Z
_TEXT	SEGMENT
___formal$ = 8						; size = 4
___formal$ = 12						; size = 4
??3@YAXPAX0@Z PROC					; operator delete, COMDAT

; 62   : 	}

  00000	c3		 ret	 0
??3@YAXPAX0@Z ENDP					; operator delete
_TEXT	ENDS
PUBLIC	?GetCreator@ioBaseChar@@QAEPAVioPlayStage@@XZ	; ioBaseChar::GetCreator
; Function compile flags: /Ogsp
; File d:\lost saga for developer\youtube\tutorial\source\src\lsclient\iobasechar.h
;	COMDAT ?GetCreator@ioBaseChar@@QAEPAVioPlayStage@@XZ
_TEXT	SEGMENT
?GetCreator@ioBaseChar@@QAEPAVioPlayStage@@XZ PROC	; ioBaseChar::GetCreator, COMDAT
; _this$ = ecx

; 4013 : 	inline ioPlayStage* GetCreator() { return m_pCreator; }

  00000	8b 81 44 03 00
	00		 mov	 eax, DWORD PTR [ecx+836]
  00006	c3		 ret	 0
?GetCreator@ioBaseChar@@QAEPAVioPlayStage@@XZ ENDP	; ioBaseChar::GetCreator
_TEXT	ENDS
PUBLIC	??_R0?AVioWeapon@@@8				; ioWeapon `RTTI Type Descriptor'
PUBLIC	??_R0?AVioZoneEffectWeapon@@@8			; ioZoneEffectWeapon `RTTI Type Descriptor'
PUBLIC	?ToZoneEffectWeapon@@YAPAVioZoneEffectWeapon@@PAVioWeapon@@@Z ; ToZoneEffectWeapon
EXTRN	___RTDynamicCast:PROC
;	COMDAT ??_R0?AVioWeapon@@@8
; File d:\lost saga for developer\youtube\tutorial\source\src\lsclient\iozoneeffectweapon.h
_DATA	SEGMENT
??_R0?AVioWeapon@@@8 DD FLAT:??_7type_info@@6B@		; ioWeapon `RTTI Type Descriptor'
	DD	00H
	DB	'.?AVioWeapon@@', 00H
_DATA	ENDS
;	COMDAT ??_R0?AVioZoneEffectWeapon@@@8
_DATA	SEGMENT
??_R0?AVioZoneEffectWeapon@@@8 DD FLAT:??_7type_info@@6B@ ; ioZoneEffectWeapon `RTTI Type Descriptor'
	DD	00H
	DB	'.?AVioZoneEffectWeapon@@', 00H
; Function compile flags: /Ogsp
_DATA	ENDS
;	COMDAT ?ToZoneEffectWeapon@@YAPAVioZoneEffectWeapon@@PAVioWeapon@@@Z
_TEXT	SEGMENT
_pWeapon$ = 8						; size = 4
?ToZoneEffectWeapon@@YAPAVioZoneEffectWeapon@@PAVioWeapon@@@Z PROC ; ToZoneEffectWeapon, COMDAT

; 217  : {

  00000	55		 push	 ebp
  00001	8b ec		 mov	 ebp, esp
  00003	56		 push	 esi

; 218  : 	if( !pWeapon || pWeapon->GetType() != ioWeapon::WT_ZONE_EFFECT )

  00004	8b 75 08	 mov	 esi, DWORD PTR _pWeapon$[ebp]
  00007	85 f6		 test	 esi, esi
  00009	74 28		 je	 SHORT $LN1@ToZoneEffe
  0000b	8b 06		 mov	 eax, DWORD PTR [esi]
  0000d	8b ce		 mov	 ecx, esi
  0000f	ff 90 10 01 00
	00		 call	 DWORD PTR [eax+272]
  00015	83 f8 08	 cmp	 eax, 8
  00018	75 19		 jne	 SHORT $LN1@ToZoneEffe

; 220  : 
; 221  : 	return dynamic_cast< ioZoneEffectWeapon* >( pWeapon );

  0001a	6a 00		 push	 0
  0001c	68 00 00 00 00	 push	 OFFSET ??_R0?AVioZoneEffectWeapon@@@8
  00021	68 00 00 00 00	 push	 OFFSET ??_R0?AVioWeapon@@@8
  00026	6a 00		 push	 0
  00028	56		 push	 esi
  00029	e8 00 00 00 00	 call	 ___RTDynamicCast
  0002e	83 c4 14	 add	 esp, 20			; 00000014H
  00031	eb 02		 jmp	 SHORT $LN3@ToZoneEffe
$LN1@ToZoneEffe:

; 219  : 		return NULL;

  00033	33 c0		 xor	 eax, eax
$LN3@ToZoneEffe:
  00035	5e		 pop	 esi

; 222  : }

  00036	5d		 pop	 ebp
  00037	c3		 ret	 0
?ToZoneEffectWeapon@@YAPAVioZoneEffectWeapon@@PAVioWeapon@@@Z ENDP ; ToZoneEffectWeapon
_TEXT	ENDS
PUBLIC	?_Adopt@_Iterator_base0@std@@QAEXPBX@Z		; std::_Iterator_base0::_Adopt
; Function compile flags: /Ogsp
; File c:\program files (x86)\microsoft visual studio 10.0\vc\include\xutility
;	COMDAT ?_Adopt@_Iterator_base0@std@@QAEXPBX@Z
_TEXT	SEGMENT
___formal$ = 8						; size = 4
?_Adopt@_Iterator_base0@std@@QAEXPBX@Z PROC		; std::_Iterator_base0::_Adopt, COMDAT
; _this$ = ecx

; 49   : 		}

  00000	c2 04 00	 ret	 4
?_Adopt@_Iterator_base0@std@@QAEXPBX@Z ENDP		; std::_Iterator_base0::_Adopt
_TEXT	ENDS
PUBLIC	?OnSkillEnd@ioRunningAttackSkill9@@UAEXPAVioBaseChar@@@Z ; ioRunningAttackSkill9::OnSkillEnd
EXTRN	?RestoreSkillWeaponMesh@ioBaseChar@@QAE_NPAVioSkill@@ABVioHashString@@_N2@Z:PROC ; ioBaseChar::RestoreSkillWeaponMesh
EXTRN	__imp_?IsEmpty@ioHashString@@QBE_NXZ:PROC
EXTRN	?ShowWeaponItemMesh@ioBaseChar@@QAEX_N0@Z:PROC	; ioBaseChar::ShowWeaponItemMesh
EXTRN	?DestroyAreaWeapon@ioAreaWeaponManager@@QAEXK@Z:PROC ; ioAreaWeaponManager::DestroyAreaWeapon
EXTRN	?GetSingleton@ioAreaWeaponManager@@SAAAV1@XZ:PROC ; ioAreaWeaponManager::GetSingleton
EXTRN	?EndCameraBuff@ioSkill@@IAEXPAVioBaseChar@@@Z:PROC ; ioSkill::EndCameraBuff
EXTRN	?OnSkillEnd@ioAttackSkill@@UAEXPAVioBaseChar@@@Z:PROC ; ioAttackSkill::OnSkillEnd
; Function compile flags: /Ogsp
; File d:\lost saga for developer\youtube\tutorial\source\src\lsclient\iorunningattackskill9.cpp
;	COMDAT ?OnSkillEnd@ioRunningAttackSkill9@@UAEXPAVioBaseChar@@@Z
_TEXT	SEGMENT
_pChar$ = 8						; size = 4
?OnSkillEnd@ioRunningAttackSkill9@@UAEXPAVioBaseChar@@@Z PROC ; ioRunningAttackSkill9::OnSkillEnd, COMDAT
; _this$ = ecx

; 231  : {

  00000	55		 push	 ebp
  00001	8b ec		 mov	 ebp, esp
  00003	56		 push	 esi
  00004	57		 push	 edi

; 232  : 	ioAttackSkill::OnSkillEnd( pChar );

  00005	ff 75 08	 push	 DWORD PTR _pChar$[ebp]
  00008	8b f1		 mov	 esi, ecx
  0000a	e8 00 00 00 00	 call	 ?OnSkillEnd@ioAttackSkill@@UAEXPAVioBaseChar@@@Z ; ioAttackSkill::OnSkillEnd

; 233  : 
; 234  : 	EndCameraBuff( pChar );

  0000f	ff 75 08	 push	 DWORD PTR _pChar$[ebp]
  00012	8b ce		 mov	 ecx, esi
  00014	e8 00 00 00 00	 call	 ?EndCameraBuff@ioSkill@@IAEXPAVioBaseChar@@@Z ; ioSkill::EndCameraBuff

; 235  : 
; 236  : 	if ( m_dwAreaWeaponIndex != -1 )

  00019	8b 86 a8 11 00
	00		 mov	 eax, DWORD PTR [esi+4520]
  0001f	83 f8 ff	 cmp	 eax, -1
  00022	74 14		 je	 SHORT $LN3@OnSkillEnd

; 237  : 	{
; 238  : 		g_AreaWeaponMgr.DestroyAreaWeapon( m_dwAreaWeaponIndex );

  00024	50		 push	 eax
  00025	e8 00 00 00 00	 call	 ?GetSingleton@ioAreaWeaponManager@@SAAAV1@XZ ; ioAreaWeaponManager::GetSingleton
  0002a	8b c8		 mov	 ecx, eax
  0002c	e8 00 00 00 00	 call	 ?DestroyAreaWeapon@ioAreaWeaponManager@@QAEXK@Z ; ioAreaWeaponManager::DestroyAreaWeapon

; 239  : 		m_dwAreaWeaponIndex = -1;

  00031	83 8e a8 11 00
	00 ff		 or	 DWORD PTR [esi+4520], -1
$LN3@OnSkillEnd:

; 240  : 	}
; 241  : 
; 242  : 	if( m_bUseItemMesh )

  00038	80 be 08 0f 00
	00 00		 cmp	 BYTE PTR [esi+3848], 0
  0003f	74 0c		 je	 SHORT $LN2@OnSkillEnd

; 243  : 		pChar->ShowWeaponItemMesh( true );

  00041	8b 4d 08	 mov	 ecx, DWORD PTR _pChar$[ebp]
  00044	6a 00		 push	 0
  00046	6a 01		 push	 1
  00048	e8 00 00 00 00	 call	 ?ShowWeaponItemMesh@ioBaseChar@@QAEX_N0@Z ; ioBaseChar::ShowWeaponItemMesh
$LN2@OnSkillEnd:

; 244  : 
; 245  : 	m_bSetHandMesh = false;
; 246  : 	if( !m_HandMesh.IsEmpty() )

  0004d	8d be f8 0e 00
	00		 lea	 edi, DWORD PTR [esi+3832]
  00053	8b cf		 mov	 ecx, edi
  00055	c6 86 0a 0f 00
	00 00		 mov	 BYTE PTR [esi+3850], 0
  0005c	ff 15 00 00 00
	00		 call	 DWORD PTR __imp_?IsEmpty@ioHashString@@QBE_NXZ
  00062	84 c0		 test	 al, al
  00064	75 14		 jne	 SHORT $LN1@OnSkillEnd

; 247  : 		pChar->RestoreSkillWeaponMesh( this, m_HandMesh, m_bVisibleEquipMesh );

  00066	0f b6 86 09 0f
	00 00		 movzx	 eax, BYTE PTR [esi+3849]
  0006d	8b 4d 08	 mov	 ecx, DWORD PTR _pChar$[ebp]
  00070	6a 00		 push	 0
  00072	50		 push	 eax
  00073	57		 push	 edi
  00074	56		 push	 esi
  00075	e8 00 00 00 00	 call	 ?RestoreSkillWeaponMesh@ioBaseChar@@QAE_NPAVioSkill@@ABVioHashString@@_N2@Z ; ioBaseChar::RestoreSkillWeaponMesh
$LN1@OnSkillEnd:
  0007a	5f		 pop	 edi
  0007b	5e		 pop	 esi

; 248  : }

  0007c	5d		 pop	 ebp
  0007d	c2 04 00	 ret	 4
?OnSkillEnd@ioRunningAttackSkill9@@UAEXPAVioBaseChar@@@Z ENDP ; ioRunningAttackSkill9::OnSkillEnd
_TEXT	ENDS
PUBLIC	__real@41200000
PUBLIC	__real@00000000
PUBLIC	?IsSkillMotionEnd@ioRunningAttackSkill9@@UBE_NKPAVioBaseChar@@@Z ; ioRunningAttackSkill9::IsSkillMotionEnd
EXTRN	__imp_?GetLoopSec@ioFrameTimer@@QBEKXZ:PROC
EXTRN	__imp_?GetSingleton@ioFrameTimer@@SAAAV1@XZ:PROC
EXTRN	?GetBottomHeight@ioGameEntity@@QBEMXZ:PROC	; ioGameEntity::GetBottomHeight
;	COMDAT __real@41200000
CONST	SEGMENT
__real@41200000 DD 041200000r			; 10
CONST	ENDS
;	COMDAT __real@00000000
CONST	SEGMENT
__real@00000000 DD 000000000r			; 0
; Function compile flags: /Ogsp
CONST	ENDS
;	COMDAT ?IsSkillMotionEnd@ioRunningAttackSkill9@@UBE_NKPAVioBaseChar@@@Z
_TEXT	SEGMENT
tv131 = -8						; size = 8
_dwActionStop$ = 8					; size = 4
_fHeightGap$549624 = 12					; size = 4
_pOwner$ = 12						; size = 4
?IsSkillMotionEnd@ioRunningAttackSkill9@@UBE_NKPAVioBaseChar@@@Z PROC ; ioRunningAttackSkill9::IsSkillMotionEnd, COMDAT
; _this$ = ecx

; 325  : {

  00000	55		 push	 ebp
  00001	8b ec		 mov	 ebp, esp
  00003	51		 push	 ecx
  00004	51		 push	 ecx
  00005	56		 push	 esi
  00006	8b f1		 mov	 esi, ecx

; 326  : 	if( m_dwPreDelayStartTime > 0 )

  00008	83 be 20 02 00
	00 00		 cmp	 DWORD PTR [esi+544], 0
  0000f	76 07		 jbe	 SHORT $LN10@IsSkillMot
$LN7@IsSkillMot:

; 327  : 		return false;

  00011	32 c0		 xor	 al, al
  00013	e9 8c 00 00 00	 jmp	 $LN1@IsSkillMot
$LN10@IsSkillMot:

; 328  : 
; 329  : 	switch( m_SkillState )

  00018	8b 86 88 11 00
	00		 mov	 eax, DWORD PTR [esi+4488]
  0001e	85 c0		 test	 eax, eax
  00020	78 66		 js	 SHORT $LN2@IsSkillMot
  00022	83 f8 04	 cmp	 eax, 4
  00025	7e ea		 jle	 SHORT $LN7@IsSkillMot
  00027	83 f8 06	 cmp	 eax, 6
  0002a	74 e5		 je	 SHORT $LN7@IsSkillMot
  0002c	83 f8 07	 cmp	 eax, 7
  0002f	75 57		 jne	 SHORT $LN2@IsSkillMot

; 330  : 	{
; 331  : 	case SS_None:
; 332  : 	case SS_Run_Ready:
; 333  : 	case SS_Run_Normal_Loop:
; 334  : 	case SS_Run_Charge_Loop:
; 335  : 	case SS_Run_Charge_End:
; 336  : 	case SS_Run_End:
; 337  : 		return false;
; 338  : 	case SS_End:
; 339  : 		if( m_fSkillEndNextJumpAmt == 0.0f )

  00031	f3 0f 10 86 4c
	05 00 00	 movss	 xmm0, DWORD PTR [esi+1356]
  00039	0f 2e 05 00 00
	00 00		 ucomiss xmm0, DWORD PTR __real@00000000
  00040	9f		 lahf
  00041	f6 c4 44	 test	 ah, 68			; 00000044H
  00044	7a 04		 jp	 SHORT $LN5@IsSkillMot

; 340  : 		{
; 341  : 			return true;

  00046	b0 01		 mov	 al, 1
  00048	eb 5a		 jmp	 SHORT $LN1@IsSkillMot
$LN5@IsSkillMot:
  0004a	57		 push	 edi

; 342  : 		}
; 343  : 		else
; 344  : 		{
; 345  : 			float fHeightGap = pOwner->GetWorldPosition().y - pOwner->GetBottomHeight();

  0004b	8b 7d 0c	 mov	 edi, DWORD PTR _pOwner$[ebp]
  0004e	8b 07		 mov	 eax, DWORD PTR [edi]
  00050	8b cf		 mov	 ecx, edi
  00052	ff 50 70	 call	 DWORD PTR [eax+112]
  00055	d9 40 04	 fld	 DWORD PTR [eax+4]
  00058	8b cf		 mov	 ecx, edi
  0005a	dd 5d f8	 fstp	 QWORD PTR tv131[ebp]
  0005d	e8 00 00 00 00	 call	 ?GetBottomHeight@ioGameEntity@@QBEMXZ ; ioGameEntity::GetBottomHeight
  00062	dc 6d f8	 fsubr	 QWORD PTR tv131[ebp]

; 346  : 
; 347  : 			if( m_fSkillEndNextJumpAmt > 0.0f )

  00065	f3 0f 10 86 4c
	05 00 00	 movss	 xmm0, DWORD PTR [esi+1356]
  0006d	0f 2f 05 00 00
	00 00		 comiss	 xmm0, DWORD PTR __real@00000000
  00074	d9 5d 0c	 fstp	 DWORD PTR _fHeightGap$549624[ebp]
  00077	5f		 pop	 edi
  00078	76 0e		 jbe	 SHORT $LN2@IsSkillMot

; 348  : 			{
; 349  : 				if( fHeightGap > 10.f )

  0007a	f3 0f 10 45 0c	 movss	 xmm0, DWORD PTR _fHeightGap$549624[ebp]
  0007f	0f 2f 05 00 00
	00 00		 comiss	 xmm0, DWORD PTR __real@41200000

; 350  : 					return false;

  00086	77 89		 ja	 SHORT $LN7@IsSkillMot
$LN2@IsSkillMot:

; 351  : 			}
; 352  : 		}
; 353  : 	}
; 354  : 
; 355  : 	if( m_dwMotionEndTime + dwActionStop >= FRAMEGETTIME() )

  00088	ff 15 00 00 00
	00		 call	 DWORD PTR __imp_?GetSingleton@ioFrameTimer@@SAAAV1@XZ
  0008e	8b c8		 mov	 ecx, eax
  00090	ff 15 00 00 00
	00		 call	 DWORD PTR __imp_?GetLoopSec@ioFrameTimer@@QBEKXZ
  00096	8b 8e d8 02 00
	00		 mov	 ecx, DWORD PTR [esi+728]
  0009c	03 4d 08	 add	 ecx, DWORD PTR _dwActionStop$[ebp]
  0009f	3b c8		 cmp	 ecx, eax
  000a1	0f 92 c0	 setb	 al
$LN1@IsSkillMot:
  000a4	5e		 pop	 esi

; 356  : 		return false;
; 357  : 
; 358  : 	return true;
; 359  : }

  000a5	c9		 leave
  000a6	c2 08 00	 ret	 8
?IsSkillMotionEnd@ioRunningAttackSkill9@@UBE_NKPAVioBaseChar@@@Z ENDP ; ioRunningAttackSkill9::IsSkillMotionEnd
_TEXT	ENDS
PUBLIC	?IsAttackEndState@ioRunningAttackSkill9@@UBE_NXZ ; ioRunningAttackSkill9::IsAttackEndState
; Function compile flags: /Ogsp
;	COMDAT ?IsAttackEndState@ioRunningAttackSkill9@@UBE_NXZ
_TEXT	SEGMENT
?IsAttackEndState@ioRunningAttackSkill9@@UBE_NXZ PROC	; ioRunningAttackSkill9::IsAttackEndState, COMDAT
; _this$ = ecx

; 363  : 	if( m_SkillState == SS_End )

  00000	83 b9 88 11 00
	00 07		 cmp	 DWORD PTR [ecx+4488], 7
  00007	0f 94 c0	 sete	 al

; 364  : 		return true;
; 365  : 
; 366  : 	return false;
; 367  : }

  0000a	c3		 ret	 0
?IsAttackEndState@ioRunningAttackSkill9@@UBE_NXZ ENDP	; ioRunningAttackSkill9::IsAttackEndState
_TEXT	ENDS
PUBLIC	?IsCharSkipState@ioRunningAttackSkill9@@UBE?AW4SkillCharColType@@XZ ; ioRunningAttackSkill9::IsCharSkipState
; Function compile flags: /Ogsp
;	COMDAT ?IsCharSkipState@ioRunningAttackSkill9@@UBE?AW4SkillCharColType@@XZ
_TEXT	SEGMENT
?IsCharSkipState@ioRunningAttackSkill9@@UBE?AW4SkillCharColType@@XZ PROC ; ioRunningAttackSkill9::IsCharSkipState, COMDAT
; _this$ = ecx

; 399  : 	switch( m_SkillState )

  00000	8b 81 88 11 00
	00		 mov	 eax, DWORD PTR [ecx+4488]
  00006	33 c9		 xor	 ecx, ecx
  00008	83 c0 fd	 add	 eax, -3			; fffffffdH
  0000b	41		 inc	 ecx
  0000c	3b c8		 cmp	 ecx, eax
  0000e	1b c0		 sbb	 eax, eax
  00010	40		 inc	 eax

; 400  : 	{
; 401  : 	case SS_Run_Charge_Loop:
; 402  : 	case SS_Run_Charge_End:
; 403  : 		return SCCT_ALL;
; 404  : 	}
; 405  : 
; 406  : 	return SCCT_NONE;
; 407  : }

  00011	c3		 ret	 0
?IsCharSkipState@ioRunningAttackSkill9@@UBE?AW4SkillCharColType@@XZ ENDP ; ioRunningAttackSkill9::IsCharSkipState
_TEXT	ENDS
PUBLIC	?IsEntityCollisionSkipState@ioRunningAttackSkill9@@UBE_NXZ ; ioRunningAttackSkill9::IsEntityCollisionSkipState
; Function compile flags: /Ogsp
;	COMDAT ?IsEntityCollisionSkipState@ioRunningAttackSkill9@@UBE_NXZ
_TEXT	SEGMENT
?IsEntityCollisionSkipState@ioRunningAttackSkill9@@UBE_NXZ PROC ; ioRunningAttackSkill9::IsEntityCollisionSkipState, COMDAT
; _this$ = ecx

; 411  : 	switch( m_SkillState )

  00000	8b 81 88 11 00
	00		 mov	 eax, DWORD PTR [ecx+4488]
  00006	33 c9		 xor	 ecx, ecx
  00008	83 c0 fd	 add	 eax, -3			; fffffffdH
  0000b	41		 inc	 ecx
  0000c	3b c8		 cmp	 ecx, eax
  0000e	1a c0		 sbb	 al, al
  00010	fe c0		 inc	 al

; 412  : 	{
; 413  : 	case SS_Run_Charge_Loop:
; 414  : 	case SS_Run_Charge_End:
; 415  : 		return true;
; 416  : 	}
; 417  : 
; 418  : 	return false;
; 419  : }

  00012	c3		 ret	 0
?IsEntityCollisionSkipState@ioRunningAttackSkill9@@UBE_NXZ ENDP ; ioRunningAttackSkill9::IsEntityCollisionSkipState
_TEXT	ENDS
PUBLIC	?IsNoFallDropZone@ioRunningAttackSkill9@@QBE_NXZ ; ioRunningAttackSkill9::IsNoFallDropZone
; Function compile flags: /Ogsp
;	COMDAT ?IsNoFallDropZone@ioRunningAttackSkill9@@QBE_NXZ
_TEXT	SEGMENT
?IsNoFallDropZone@ioRunningAttackSkill9@@QBE_NXZ PROC	; ioRunningAttackSkill9::IsNoFallDropZone, COMDAT
; _this$ = ecx

; 423  : 	return m_bNoDropState;

  00000	8a 81 84 11 00
	00		 mov	 al, BYTE PTR [ecx+4484]

; 424  : }

  00006	c3		 ret	 0
?IsNoFallDropZone@ioRunningAttackSkill9@@QBE_NXZ ENDP	; ioRunningAttackSkill9::IsNoFallDropZone
_TEXT	ENDS
PUBLIC	?IsCanSendControl@ioRunningAttackSkill9@@UBE_NXZ ; ioRunningAttackSkill9::IsCanSendControl
; Function compile flags: /Ogsp
;	COMDAT ?IsCanSendControl@ioRunningAttackSkill9@@UBE_NXZ
_TEXT	SEGMENT
?IsCanSendControl@ioRunningAttackSkill9@@UBE_NXZ PROC	; ioRunningAttackSkill9::IsCanSendControl, COMDAT
; _this$ = ecx

; 428  : 	switch ( m_SkillState )

  00000	8b 81 88 11 00
	00		 mov	 eax, DWORD PTR [ecx+4488]
  00006	83 c0 fd	 add	 eax, -3			; fffffffdH
  00009	83 f8 01	 cmp	 eax, 1
  0000c	0f 97 c0	 seta	 al

; 429  : 	{
; 430  : 	case SS_Run_Charge_Loop:
; 431  : 	case SS_Run_Charge_End:
; 432  : 		return false;
; 433  : 	}
; 434  : 
; 435  : 	return true;
; 436  : }

  0000f	c3		 ret	 0
?IsCanSendControl@ioRunningAttackSkill9@@UBE_NXZ ENDP	; ioRunningAttackSkill9::IsCanSendControl
_TEXT	ENDS
PUBLIC	?Init@ioRunningAttackSkill9@@IAEXXZ		; ioRunningAttackSkill9::Init
; Function compile flags: /Ogsp
;	COMDAT ?Init@ioRunningAttackSkill9@@IAEXXZ
_TEXT	SEGMENT
?Init@ioRunningAttackSkill9@@IAEXXZ PROC		; ioRunningAttackSkill9::Init, COMDAT
; _this$ = ecx

; 442  : 	m_SkillState = SS_None;
; 443  : 
; 444  : 	m_dwCurSkillProtectTime = 0;
; 445  : 	m_dwCheckMaxRunLoopTime = 0;
; 446  : 	m_dwCheckMaxChargeRunLoopTime = 0;
; 447  : 	m_dwCheckJumpTime = 0;
; 448  : 	m_dwCheckAreaWeaponTime = 0;
; 449  : 
; 450  : 	m_bTargetRot = false;
; 451  : 	m_bLeftRot = false;
; 452  : 	m_CurDirKey = ioUserKeyInput::DKI_NONE;
; 453  : 
; 454  : 	m_dwAreaWeaponIndex = -1;

  00000	83 89 a8 11 00
	00 ff		 or	 DWORD PTR [ecx+4520], -1
  00007	33 c0		 xor	 eax, eax
  00009	89 81 88 11 00
	00		 mov	 DWORD PTR [ecx+4488], eax
  0000f	89 81 8c 11 00
	00		 mov	 DWORD PTR [ecx+4492], eax
  00015	89 81 90 11 00
	00		 mov	 DWORD PTR [ecx+4496], eax
  0001b	89 81 94 11 00
	00		 mov	 DWORD PTR [ecx+4500], eax
  00021	89 81 9c 11 00
	00		 mov	 DWORD PTR [ecx+4508], eax
  00027	89 81 ac 11 00
	00		 mov	 DWORD PTR [ecx+4524], eax
  0002d	66 89 81 a0 11
	00 00		 mov	 WORD PTR [ecx+4512], ax
  00034	89 81 a4 11 00
	00		 mov	 DWORD PTR [ecx+4516], eax

; 455  : 	m_nAreaWeaponCnt = 0;

  0003a	89 81 b0 11 00
	00		 mov	 DWORD PTR [ecx+4528], eax

; 456  : }

  00040	c3		 ret	 0
?Init@ioRunningAttackSkill9@@IAEXXZ ENDP		; ioRunningAttackSkill9::Init
_TEXT	ENDS
PUBLIC	?CheckAttackInput@ioRunningAttackSkill9@@IAE_NPAVioBaseChar@@@Z ; ioRunningAttackSkill9::CheckAttackInput
EXTRN	?IsAttackKey@ioBaseChar@@QBE_NXZ:PROC		; ioBaseChar::IsAttackKey
; Function compile flags: /Ogsp
;	COMDAT ?CheckAttackInput@ioRunningAttackSkill9@@IAE_NPAVioBaseChar@@@Z
_TEXT	SEGMENT
_pChar$ = 8						; size = 4
?CheckAttackInput@ioRunningAttackSkill9@@IAE_NPAVioBaseChar@@@Z PROC ; ioRunningAttackSkill9::CheckAttackInput, COMDAT
; _this$ = ecx

; 745  : {

  00000	55		 push	 ebp
  00001	8b ec		 mov	 ebp, esp
  00003	56		 push	 esi

; 746  : 	if ( !pChar || !pChar->IsNeedProcess() )

  00004	8b 75 08	 mov	 esi, DWORD PTR _pChar$[ebp]
  00007	85 f6		 test	 esi, esi
  00009	74 1c		 je	 SHORT $LN2@CheckAttac
  0000b	8b 06		 mov	 eax, DWORD PTR [esi]
  0000d	8b ce		 mov	 ecx, esi
  0000f	ff 90 00 01 00
	00		 call	 DWORD PTR [eax+256]
  00015	84 c0		 test	 al, al
  00017	74 0e		 je	 SHORT $LN2@CheckAttac

; 748  : 
; 749  : 	if ( pChar->IsAttackKey() )

  00019	8b ce		 mov	 ecx, esi
  0001b	e8 00 00 00 00	 call	 ?IsAttackKey@ioBaseChar@@QBE_NXZ ; ioBaseChar::IsAttackKey
  00020	84 c0		 test	 al, al
  00022	0f 95 c0	 setne	 al

; 750  : 		return true;
; 751  : 
; 752  : 	return false;

  00025	eb 02		 jmp	 SHORT $LN4@CheckAttac
$LN2@CheckAttac:

; 747  : 		return false;

  00027	32 c0		 xor	 al, al
$LN4@CheckAttac:
  00029	5e		 pop	 esi

; 753  : }

  0002a	5d		 pop	 ebp
  0002b	c2 04 00	 ret	 4
?CheckAttackInput@ioRunningAttackSkill9@@IAE_NPAVioBaseChar@@@Z ENDP ; ioRunningAttackSkill9::CheckAttackInput
_TEXT	ENDS
PUBLIC	?CheckAttackRelease@ioRunningAttackSkill9@@IAE_NPAVioBaseChar@@@Z ; ioRunningAttackSkill9::CheckAttackRelease
EXTRN	?IsAttackKeyDown@ioBaseChar@@QBE_NXZ:PROC	; ioBaseChar::IsAttackKeyDown
; Function compile flags: /Ogsp
;	COMDAT ?CheckAttackRelease@ioRunningAttackSkill9@@IAE_NPAVioBaseChar@@@Z
_TEXT	SEGMENT
_pChar$ = 8						; size = 4
?CheckAttackRelease@ioRunningAttackSkill9@@IAE_NPAVioBaseChar@@@Z PROC ; ioRunningAttackSkill9::CheckAttackRelease, COMDAT
; _this$ = ecx

; 756  : {

  00000	55		 push	 ebp
  00001	8b ec		 mov	 ebp, esp
  00003	56		 push	 esi

; 757  : 	if ( !pChar || !pChar->IsNeedProcess() )

  00004	8b 75 08	 mov	 esi, DWORD PTR _pChar$[ebp]
  00007	85 f6		 test	 esi, esi
  00009	74 1d		 je	 SHORT $LN2@CheckAttac@2
  0000b	8b 06		 mov	 eax, DWORD PTR [esi]
  0000d	8b ce		 mov	 ecx, esi
  0000f	ff 90 00 01 00
	00		 call	 DWORD PTR [eax+256]
  00015	84 c0		 test	 al, al
  00017	74 0f		 je	 SHORT $LN2@CheckAttac@2

; 759  : 
; 760  : 	if ( !pChar->IsAttackKeyDown() )

  00019	8b ce		 mov	 ecx, esi
  0001b	e8 00 00 00 00	 call	 ?IsAttackKeyDown@ioBaseChar@@QBE_NXZ ; ioBaseChar::IsAttackKeyDown
  00020	f6 d8		 neg	 al
  00022	1a c0		 sbb	 al, al
  00024	fe c0		 inc	 al

; 761  : 		return true;
; 762  : 
; 763  : 	return false;

  00026	eb 02		 jmp	 SHORT $LN4@CheckAttac@2
$LN2@CheckAttac@2:

; 758  : 		return false;

  00028	32 c0		 xor	 al, al
$LN4@CheckAttac@2:
  0002a	5e		 pop	 esi

; 764  : }

  0002b	5d		 pop	 ebp
  0002c	c2 04 00	 ret	 4
?CheckAttackRelease@ioRunningAttackSkill9@@IAE_NPAVioBaseChar@@@Z ENDP ; ioRunningAttackSkill9::CheckAttackRelease
_TEXT	ENDS
PUBLIC	?CheckChargeJump@ioRunningAttackSkill9@@IAEXPAVioBaseChar@@@Z ; ioRunningAttackSkill9::CheckChargeJump
EXTRN	?SetJumpPower@ioBaseChar@@QAEXM@Z:PROC		; ioBaseChar::SetJumpPower
; Function compile flags: /Ogsp
;	COMDAT ?CheckChargeJump@ioRunningAttackSkill9@@IAEXPAVioBaseChar@@@Z
_TEXT	SEGMENT
_pChar$ = 8						; size = 4
?CheckChargeJump@ioRunningAttackSkill9@@IAEXPAVioBaseChar@@@Z PROC ; ioRunningAttackSkill9::CheckChargeJump, COMDAT
; _this$ = ecx

; 769  : {

  00000	55		 push	 ebp
  00001	8b ec		 mov	 ebp, esp

; 770  : 	if ( !pChar )

  00003	83 7d 08 00	 cmp	 DWORD PTR _pChar$[ebp], 0
  00007	56		 push	 esi
  00008	8b f1		 mov	 esi, ecx
  0000a	74 38		 je	 SHORT $LN1@CheckCharg

; 771  : 		return;
; 772  : 
; 773  : 	DWORD dwCurTime = FRAMEGETTIME();

  0000c	ff 15 00 00 00
	00		 call	 DWORD PTR __imp_?GetSingleton@ioFrameTimer@@SAAAV1@XZ
  00012	8b c8		 mov	 ecx, eax
  00014	ff 15 00 00 00
	00		 call	 DWORD PTR __imp_?GetLoopSec@ioFrameTimer@@QBEKXZ

; 774  : 	if ( m_dwCheckJumpTime + m_dwJumpTime < dwCurTime )

  0001a	8b 96 68 11 00
	00		 mov	 edx, DWORD PTR [esi+4456]
  00020	8d 8e 9c 11 00
	00		 lea	 ecx, DWORD PTR [esi+4508]
  00026	03 11		 add	 edx, DWORD PTR [ecx]
  00028	3b d0		 cmp	 edx, eax
  0002a	73 18		 jae	 SHORT $LN1@CheckCharg

; 775  : 	{
; 776  : 		m_dwCheckJumpTime = dwCurTime;
; 777  : 		pChar->SetJumpPower( m_fJumpPower );

  0002c	f3 0f 10 86 64
	11 00 00	 movss	 xmm0, DWORD PTR [esi+4452]
  00034	51		 push	 ecx
  00035	89 01		 mov	 DWORD PTR [ecx], eax
  00037	8b 4d 08	 mov	 ecx, DWORD PTR _pChar$[ebp]
  0003a	f3 0f 11 04 24	 movss	 DWORD PTR [esp], xmm0
  0003f	e8 00 00 00 00	 call	 ?SetJumpPower@ioBaseChar@@QAEXM@Z ; ioBaseChar::SetJumpPower
$LN1@CheckCharg:
  00044	5e		 pop	 esi

; 778  : 	}
; 779  : }

  00045	5d		 pop	 ebp
  00046	c2 04 00	 ret	 4
?CheckChargeJump@ioRunningAttackSkill9@@IAEXPAVioBaseChar@@@Z ENDP ; ioRunningAttackSkill9::CheckChargeJump
_TEXT	ENDS
PUBLIC	?IsFloatState@ioRunningAttackSkill9@@IAE_NPAVioBaseChar@@@Z ; ioRunningAttackSkill9::IsFloatState
EXTRN	?GetMapHeightOnlyTerrain@ioPlayStage@@QAEMMMM@Z:PROC ; ioPlayStage::GetMapHeightOnlyTerrain
; Function compile flags: /Ogsp
;	COMDAT ?IsFloatState@ioRunningAttackSkill9@@IAE_NPAVioBaseChar@@@Z
_TEXT	SEGMENT
_vPos$ = -16						; size = 12
_this$ = -4						; size = 4
tv169 = 8						; size = 4
tv166 = 8						; size = 4
_fMapHeight$ = 8					; size = 4
_pChar$ = 8						; size = 4
?IsFloatState@ioRunningAttackSkill9@@IAE_NPAVioBaseChar@@@Z PROC ; ioRunningAttackSkill9::IsFloatState, COMDAT
; _this$ = ecx

; 809  : {	

  00000	55		 push	 ebp
  00001	8b ec		 mov	 ebp, esp
  00003	83 ec 10	 sub	 esp, 16			; 00000010H
  00006	89 4d fc	 mov	 DWORD PTR _this$[ebp], ecx

; 810  : 	if ( !pChar )

  00009	8b 4d 08	 mov	 ecx, DWORD PTR _pChar$[ebp]
  0000c	85 c9		 test	 ecx, ecx
  0000e	75 04		 jne	 SHORT $LN3@IsFloatSta

; 811  : 		return false;

  00010	32 c0		 xor	 al, al
  00012	eb 73		 jmp	 SHORT $LN4@IsFloatSta
$LN3@IsFloatSta:
  00014	53		 push	 ebx

; 812  : 
; 813  : 	ioPlayStage *pStage = pChar->GetCreator();

  00015	8b 99 44 03 00
	00		 mov	 ebx, DWORD PTR [ecx+836]

; 814  : 	if ( !pStage )

  0001b	85 db		 test	 ebx, ebx

; 815  : 		return false;

  0001d	74 65		 je	 SHORT $LN1@IsFloatSta

; 816  : 
; 817  : 	D3DXVECTOR3 vPos = pChar->GetWorldPosition();

  0001f	8b 01		 mov	 eax, DWORD PTR [ecx]
  00021	56		 push	 esi
  00022	57		 push	 edi
  00023	ff 50 70	 call	 DWORD PTR [eax+112]

; 818  : 	float fMapHeight = pStage->GetMapHeightOnlyTerrain( vPos.x, vPos.z );

  00026	0f 57 c0	 xorps	 xmm0, xmm0
  00029	8b f0		 mov	 esi, eax
  0002b	8d 7d f0	 lea	 edi, DWORD PTR _vPos$[ebp]
  0002e	a5		 movsd
  0002f	a5		 movsd
  00030	83 ec 0c	 sub	 esp, 12			; 0000000cH
  00033	f3 0f 11 44 24
	08		 movss	 DWORD PTR [esp+8], xmm0
  00039	a5		 movsd
  0003a	f3 0f 10 45 f8	 movss	 xmm0, DWORD PTR _vPos$[ebp+8]
  0003f	f3 0f 11 44 24
	04		 movss	 DWORD PTR [esp+4], xmm0
  00045	f3 0f 10 45 f0	 movss	 xmm0, DWORD PTR _vPos$[ebp]
  0004a	8b cb		 mov	 ecx, ebx
  0004c	f3 0f 11 04 24	 movss	 DWORD PTR [esp], xmm0
  00051	e8 00 00 00 00	 call	 ?GetMapHeightOnlyTerrain@ioPlayStage@@QAEMMMM@Z ; ioPlayStage::GetMapHeightOnlyTerrain
  00056	d9 5d 08	 fstp	 DWORD PTR _fMapHeight$[ebp]

; 819  : 
; 820  : 	if ( fabs( fMapHeight - vPos.y ) >= m_fJumpHeightGap )

  00059	d9 45 08	 fld	 DWORD PTR _fMapHeight$[ebp]
  0005c	8b 45 fc	 mov	 eax, DWORD PTR _this$[ebp]
  0005f	d8 65 f4	 fsub	 DWORD PTR _vPos$[ebp+4]
  00062	5f		 pop	 edi
  00063	5e		 pop	 esi
  00064	d9 5d 08	 fstp	 DWORD PTR tv169[ebp]
  00067	d9 45 08	 fld	 DWORD PTR tv169[ebp]
  0006a	d9 e1		 fabs
  0006c	d9 5d 08	 fstp	 DWORD PTR tv166[ebp]
  0006f	d9 45 08	 fld	 DWORD PTR tv166[ebp]
  00072	d9 80 6c 11 00
	00		 fld	 DWORD PTR [eax+4460]
  00078	d9 c9		 fxch	 ST(1)
  0007a	df f1		 fcomip	 ST(1)
  0007c	dd d8		 fstp	 ST(0)
  0007e	72 04		 jb	 SHORT $LN1@IsFloatSta

; 821  : 		return true;

  00080	b0 01		 mov	 al, 1
  00082	eb 02		 jmp	 SHORT $LN12@IsFloatSta
$LN1@IsFloatSta:

; 822  : 
; 823  : 	return false;

  00084	32 c0		 xor	 al, al
$LN12@IsFloatSta:
  00086	5b		 pop	 ebx
$LN4@IsFloatSta:

; 824  : }

  00087	c9		 leave
  00088	c2 04 00	 ret	 4
?IsFloatState@ioRunningAttackSkill9@@IAE_NPAVioBaseChar@@@Z ENDP ; ioRunningAttackSkill9::IsFloatState
_TEXT	ENDS
PUBLIC	??A?$vector@VioHashString@@V?$allocator@VioHashString@@@std@@@std@@QAEAAVioHashString@@I@Z ; std::vector<ioHashString,std::allocator<ioHashString> >::operator[]
; Function compile flags: /Ogsp
; File c:\program files (x86)\microsoft visual studio 10.0\vc\include\vector
;	COMDAT ??A?$vector@VioHashString@@V?$allocator@VioHashString@@@std@@@std@@QAEAAVioHashString@@I@Z
_TEXT	SEGMENT
__Pos$ = 8						; size = 4
??A?$vector@VioHashString@@V?$allocator@VioHashString@@@std@@@std@@QAEAAVioHashString@@I@Z PROC ; std::vector<ioHashString,std::allocator<ioHashString> >::operator[], COMDAT
; _this$ = ecx

; 928  : 		{	// subscript mutable sequence

  00000	55		 push	 ebp
  00001	8b ec		 mov	 ebp, esp

; 929  :  #if _ITERATOR_DEBUG_LEVEL == 2
; 930  : 		if (size() <= _Pos)
; 931  : 			{	// report error
; 932  : 			_DEBUG_ERROR("vector subscript out of range");
; 933  : 			_SCL_SECURE_OUT_OF_RANGE;
; 934  : 			}
; 935  : 
; 936  :  #elif _ITERATOR_DEBUG_LEVEL == 1
; 937  : 		_SCL_SECURE_VALIDATE_RANGE(_Pos < size());
; 938  :  #endif /* _ITERATOR_DEBUG_LEVEL */
; 939  : 
; 940  : 		return (*(this->_Myfirst + _Pos));

  00003	8b 45 08	 mov	 eax, DWORD PTR __Pos$[ebp]
  00006	c1 e0 04	 shl	 eax, 4
  00009	03 01		 add	 eax, DWORD PTR [ecx]

; 941  : 		}

  0000b	5d		 pop	 ebp
  0000c	c2 04 00	 ret	 4
??A?$vector@VioHashString@@V?$allocator@VioHashString@@@std@@@std@@QAEAAVioHashString@@I@Z ENDP ; std::vector<ioHashString,std::allocator<ioHashString> >::operator[]
_TEXT	ENDS
PUBLIC	?capacity@?$vector@VioHashString@@V?$allocator@VioHashString@@@std@@@std@@QBEIXZ ; std::vector<ioHashString,std::allocator<ioHashString> >::capacity
; Function compile flags: /Ogsp
;	COMDAT ?capacity@?$vector@VioHashString@@V?$allocator@VioHashString@@@std@@@std@@QBEIXZ
_TEXT	SEGMENT
?capacity@?$vector@VioHashString@@V?$allocator@VioHashString@@@std@@@std@@QBEIXZ PROC ; std::vector<ioHashString,std::allocator<ioHashString> >::capacity, COMDAT
; _this$ = ecx

; 777  : 		return (this->_Myend - this->_Myfirst);

  00000	8b 41 08	 mov	 eax, DWORD PTR [ecx+8]
  00003	2b 01		 sub	 eax, DWORD PTR [ecx]
  00005	c1 f8 04	 sar	 eax, 4

; 778  : 		}

  00008	c3		 ret	 0
?capacity@?$vector@VioHashString@@V?$allocator@VioHashString@@@std@@@std@@QBEIXZ ENDP ; std::vector<ioHashString,std::allocator<ioHashString> >::capacity
_TEXT	ENDS
PUBLIC	?_Inside@?$vector@VioHashString@@V?$allocator@VioHashString@@@std@@@std@@IBE_NPBVioHashString@@@Z ; std::vector<ioHashString,std::allocator<ioHashString> >::_Inside
; Function compile flags: /Ogsp
;	COMDAT ?_Inside@?$vector@VioHashString@@V?$allocator@VioHashString@@@std@@@std@@IBE_NPBVioHashString@@@Z
_TEXT	SEGMENT
__Ptr$ = 8						; size = 4
?_Inside@?$vector@VioHashString@@V?$allocator@VioHashString@@@std@@@std@@IBE_NPBVioHashString@@@Z PROC ; std::vector<ioHashString,std::allocator<ioHashString> >::_Inside, COMDAT
; _this$ = ecx

; 1285 : 		{	// test if _Ptr points inside vector

  00000	55		 push	 ebp
  00001	8b ec		 mov	 ebp, esp

; 1286 : 		return (_Ptr < this->_Mylast && this->_Myfirst <= _Ptr);

  00003	8b 45 08	 mov	 eax, DWORD PTR __Ptr$[ebp]
  00006	3b 41 04	 cmp	 eax, DWORD PTR [ecx+4]
  00009	73 09		 jae	 SHORT $LN3@Inside
  0000b	39 01		 cmp	 DWORD PTR [ecx], eax
  0000d	77 05		 ja	 SHORT $LN3@Inside
  0000f	33 c0		 xor	 eax, eax
  00011	40		 inc	 eax
  00012	eb 02		 jmp	 SHORT $LN4@Inside
$LN3@Inside:
  00014	33 c0		 xor	 eax, eax
$LN4@Inside:

; 1287 : 		}

  00016	5d		 pop	 ebp
  00017	c2 04 00	 ret	 4
?_Inside@?$vector@VioHashString@@V?$allocator@VioHashString@@@std@@@std@@IBE_NPBVioHashString@@@Z ENDP ; std::vector<ioHashString,std::allocator<ioHashString> >::_Inside
_TEXT	ENDS
PUBLIC	?_Orphan_range@?$vector@VioHashString@@V?$allocator@VioHashString@@@std@@@std@@IBEXPAVioHashString@@0@Z ; std::vector<ioHashString,std::allocator<ioHashString> >::_Orphan_range
; Function compile flags: /Ogsp
;	COMDAT ?_Orphan_range@?$vector@VioHashString@@V?$allocator@VioHashString@@@std@@@std@@IBEXPAVioHashString@@0@Z
_TEXT	SEGMENT
___formal$ = 8						; size = 4
___formal$ = 12						; size = 4
?_Orphan_range@?$vector@VioHashString@@V?$allocator@VioHashString@@@std@@@std@@IBEXPAVioHashString@@0@Z PROC ; std::vector<ioHashString,std::allocator<ioHashString> >::_Orphan_range, COMDAT
; _this$ = ecx

; 1454 : 		}

  00000	c2 08 00	 ret	 8
?_Orphan_range@?$vector@VioHashString@@V?$allocator@VioHashString@@@std@@@std@@IBEXPAVioHashString@@0@Z ENDP ; std::vector<ioHashString,std::allocator<ioHashString> >::_Orphan_range
_TEXT	ENDS
PUBLIC	??0D3DXVECTOR3@@QAE@XZ				; D3DXVECTOR3::D3DXVECTOR3
; Function compile flags: /Ogsp
; File c:\program files (x86)\microsoft directx sdk (june 2010)\include\d3dx9math.h
;	COMDAT ??0D3DXVECTOR3@@QAE@XZ
_TEXT	SEGMENT
??0D3DXVECTOR3@@QAE@XZ PROC				; D3DXVECTOR3::D3DXVECTOR3, COMDAT
; _this$ = ecx

; 165  :     D3DXVECTOR3() {};

  00000	8b c1		 mov	 eax, ecx
  00002	c3		 ret	 0
??0D3DXVECTOR3@@QAE@XZ ENDP				; D3DXVECTOR3::D3DXVECTOR3
_TEXT	ENDS
PUBLIC	??0D3DXQUATERNION@@QAE@XZ			; D3DXQUATERNION::D3DXQUATERNION
; Function compile flags: /Ogsp
;	COMDAT ??0D3DXQUATERNION@@QAE@XZ
_TEXT	SEGMENT
??0D3DXQUATERNION@@QAE@XZ PROC				; D3DXQUATERNION::D3DXQUATERNION, COMDAT
; _this$ = ecx

; 429  :     D3DXQUATERNION() {}

  00000	8b c1		 mov	 eax, ecx
  00002	c3		 ret	 0
??0D3DXQUATERNION@@QAE@XZ ENDP				; D3DXQUATERNION::D3DXQUATERNION
_TEXT	ENDS
PUBLIC	??0D3DXVECTOR3@@QAE@MMM@Z			; D3DXVECTOR3::D3DXVECTOR3
; Function compile flags: /Ogsp
; File c:\program files (x86)\microsoft directx sdk (june 2010)\include\d3dx9math.inl
;	COMDAT ??0D3DXVECTOR3@@QAE@MMM@Z
_TEXT	SEGMENT
_fx$ = 8						; size = 4
_fy$ = 12						; size = 4
_fz$ = 16						; size = 4
??0D3DXVECTOR3@@QAE@MMM@Z PROC				; D3DXVECTOR3::D3DXVECTOR3, COMDAT
; _this$ = ecx

; 303  : {

  00000	55		 push	 ebp
  00001	8b ec		 mov	 ebp, esp

; 304  :     x = fx;

  00003	f3 0f 10 45 08	 movss	 xmm0, DWORD PTR _fx$[ebp]
  00008	8b c1		 mov	 eax, ecx
  0000a	f3 0f 11 00	 movss	 DWORD PTR [eax], xmm0

; 305  :     y = fy;

  0000e	f3 0f 10 45 0c	 movss	 xmm0, DWORD PTR _fy$[ebp]
  00013	f3 0f 11 40 04	 movss	 DWORD PTR [eax+4], xmm0

; 306  :     z = fz;

  00018	f3 0f 10 45 10	 movss	 xmm0, DWORD PTR _fz$[ebp]
  0001d	f3 0f 11 40 08	 movss	 DWORD PTR [eax+8], xmm0

; 307  : }

  00022	5d		 pop	 ebp
  00023	c2 0c 00	 ret	 12			; 0000000cH
??0D3DXVECTOR3@@QAE@MMM@Z ENDP				; D3DXVECTOR3::D3DXVECTOR3
_TEXT	ENDS
PUBLIC	__mask@@NegFloat@
PUBLIC	??GD3DXVECTOR3@@QBE?AU0@XZ			; D3DXVECTOR3::operator-
;	COMDAT __mask@@NegFloat@
CONST	SEGMENT
__mask@@NegFloat@ DB 00H, 00H, 00H, 080H, 00H, 00H, 00H, 080H, 00H, 00H, 00H
	DB	080H, 00H, 00H, 00H, 080H
; Function compile flags: /Ogsp
CONST	ENDS
;	COMDAT ??GD3DXVECTOR3@@QBE?AU0@XZ
_TEXT	SEGMENT
___$ReturnUdt$ = 8					; size = 4
??GD3DXVECTOR3@@QBE?AU0@XZ PROC				; D3DXVECTOR3::operator-, COMDAT
; _this$ = ecx

; 372  : {

  00000	55		 push	 ebp
  00001	8b ec		 mov	 ebp, esp

; 373  :     return D3DXVECTOR3(-x, -y, -z);

  00003	f3 0f 10 05 00
	00 00 00	 movss	 xmm0, DWORD PTR __mask@@NegFloat@
  0000b	8b 45 08	 mov	 eax, DWORD PTR ___$ReturnUdt$[ebp]
  0000e	f3 0f 10 09	 movss	 xmm1, DWORD PTR [ecx]
  00012	0f 57 c8	 xorps	 xmm1, xmm0
  00015	f3 0f 11 08	 movss	 DWORD PTR [eax], xmm1
  00019	f3 0f 10 49 04	 movss	 xmm1, DWORD PTR [ecx+4]
  0001e	0f 57 c8	 xorps	 xmm1, xmm0
  00021	f3 0f 11 48 04	 movss	 DWORD PTR [eax+4], xmm1
  00026	f3 0f 10 49 08	 movss	 xmm1, DWORD PTR [ecx+8]
  0002b	0f 57 c8	 xorps	 xmm1, xmm0
  0002e	f3 0f 11 48 08	 movss	 DWORD PTR [eax+8], xmm1

; 374  : }

  00033	5d		 pop	 ebp
  00034	c2 04 00	 ret	 4
??GD3DXVECTOR3@@QBE?AU0@XZ ENDP				; D3DXVECTOR3::operator-
_TEXT	ENDS
PUBLIC	?D3DXVec3Dot@@YAMPBUD3DXVECTOR3@@0@Z		; D3DXVec3Dot
; Function compile flags: /Ogsp
;	COMDAT ?D3DXVec3Dot@@YAMPBUD3DXVECTOR3@@0@Z
_TEXT	SEGMENT
tv188 = 8						; size = 4
_pV1$ = 8						; size = 4
_pV2$ = 12						; size = 4
?D3DXVec3Dot@@YAMPBUD3DXVECTOR3@@0@Z PROC		; D3DXVec3Dot, COMDAT

; 1736 : {

  00000	55		 push	 ebp
  00001	8b ec		 mov	 ebp, esp

; 1737 : #ifdef D3DX_DEBUG
; 1738 :     if(!pV1 || !pV2)
; 1739 :         return 0.0f;
; 1740 : #endif
; 1741 : 
; 1742 :     return pV1->x * pV2->x + pV1->y * pV2->y + pV1->z * pV2->z;

  00003	8b 45 08	 mov	 eax, DWORD PTR _pV1$[ebp]
  00006	8b 4d 0c	 mov	 ecx, DWORD PTR _pV2$[ebp]
  00009	d9 40 04	 fld	 DWORD PTR [eax+4]
  0000c	d8 49 04	 fmul	 DWORD PTR [ecx+4]
  0000f	d9 00		 fld	 DWORD PTR [eax]
  00011	d8 09		 fmul	 DWORD PTR [ecx]
  00013	de c1		 faddp	 ST(1), ST(0)
  00015	d9 40 08	 fld	 DWORD PTR [eax+8]
  00018	d8 49 08	 fmul	 DWORD PTR [ecx+8]
  0001b	de c1		 faddp	 ST(1), ST(0)
  0001d	d9 5d 08	 fstp	 DWORD PTR tv188[ebp]
  00020	d9 45 08	 fld	 DWORD PTR tv188[ebp]

; 1743 : }

  00023	5d		 pop	 ebp
  00024	c3		 ret	 0
?D3DXVec3Dot@@YAMPBUD3DXVECTOR3@@0@Z ENDP		; D3DXVec3Dot
_TEXT	ENDS
PUBLIC	__real@3f91df46a2526c7a
PUBLIC	??$DEGtoRAD@M@@YAMM@Z				; DEGtoRAD<float>
;	COMDAT __real@3f91df46a2526c7a
; File d:\lost saga for developer\youtube\tutorial\source\src\lsclient\veryoftenusedefine.h
CONST	SEGMENT
__real@3f91df46a2526c7a DQ 03f91df46a2526c7ar	; 0.0174533
; Function compile flags: /Ogsp
CONST	ENDS
;	COMDAT ??$DEGtoRAD@M@@YAMM@Z
_TEXT	SEGMENT
tv129 = 8						; size = 4
_val$ = 8						; size = 4
??$DEGtoRAD@M@@YAMM@Z PROC				; DEGtoRAD<float>, COMDAT

; 20   : type  DEGtoRAD (type val) {return (type) (val * 0.0174532925199);}

  00000	55		 push	 ebp
  00001	8b ec		 mov	 ebp, esp
  00003	d9 45 08	 fld	 DWORD PTR _val$[ebp]
  00006	dc 0d 00 00 00
	00		 fmul	 QWORD PTR __real@3f91df46a2526c7a
  0000c	d9 5d 08	 fstp	 DWORD PTR tv129[ebp]
  0000f	d9 45 08	 fld	 DWORD PTR tv129[ebp]
  00012	5d		 pop	 ebp
  00013	c3		 ret	 0
??$DEGtoRAD@M@@YAMM@Z ENDP				; DEGtoRAD<float>
_TEXT	ENDS
PUBLIC	??$addressof@$$CBVioHashString@@@std@@YAPBVioHashString@@ABV1@@Z ; std::addressof<ioHashString const >
; Function compile flags: /Ogsp
; File c:\program files (x86)\microsoft visual studio 10.0\vc\include\xmemory
;	COMDAT ??$addressof@$$CBVioHashString@@@std@@YAPBVioHashString@@ABV1@@Z
_TEXT	SEGMENT
__Val$ = 8						; size = 4
??$addressof@$$CBVioHashString@@@std@@YAPBVioHashString@@ABV1@@Z PROC ; std::addressof<ioHashString const >, COMDAT

; 110  : 	{	// return address of _Val

  00000	55		 push	 ebp
  00001	8b ec		 mov	 ebp, esp

; 111  : 	return ((_Ty *) &(char&)_Val);

  00003	8b 45 08	 mov	 eax, DWORD PTR __Val$[ebp]

; 112  : 	}

  00006	5d		 pop	 ebp
  00007	c3		 ret	 0
??$addressof@$$CBVioHashString@@@std@@YAPBVioHashString@@ABV1@@Z ENDP ; std::addressof<ioHashString const >
_TEXT	ENDS
PUBLIC	??$_Val_type@PAVioHashString@@@std@@YAPAVioHashString@@PAV1@@Z ; std::_Val_type<ioHashString *>
; Function compile flags: /Ogsp
; File c:\program files (x86)\microsoft visual studio 10.0\vc\include\xutility
;	COMDAT ??$_Val_type@PAVioHashString@@@std@@YAPAVioHashString@@PAV1@@Z
_TEXT	SEGMENT
___formal$ = 8						; size = 4
??$_Val_type@PAVioHashString@@@std@@YAPAVioHashString@@PAV1@@Z PROC ; std::_Val_type<ioHashString *>, COMDAT

; 790  : 	return (0);

  00000	33 c0		 xor	 eax, eax

; 791  : 	}

  00002	c3		 ret	 0
??$_Val_type@PAVioHashString@@@std@@YAPAVioHashString@@PAV1@@Z ENDP ; std::_Val_type<ioHashString *>
_TEXT	ENDS
PUBLIC	??$forward@VioHashString@@@std@@YA$$QAVioHashString@@AAV1@@Z ; std::forward<ioHashString>
; Function compile flags: /Ogsp
; File c:\program files (x86)\microsoft visual studio 10.0\vc\include\utility
;	COMDAT ??$forward@VioHashString@@@std@@YA$$QAVioHashString@@AAV1@@Z
_TEXT	SEGMENT
__Arg$ = 8						; size = 4
??$forward@VioHashString@@@std@@YA$$QAVioHashString@@AAV1@@Z PROC ; std::forward<ioHashString>, COMDAT

; 78   : 	{	// forward _Arg, given explicitly specified type parameter

  00000	55		 push	 ebp
  00001	8b ec		 mov	 ebp, esp

; 79   : 	return ((_Ty&&)_Arg);

  00003	8b 45 08	 mov	 eax, DWORD PTR __Arg$[ebp]

; 80   : 	}

  00006	5d		 pop	 ebp
  00007	c3		 ret	 0
??$forward@VioHashString@@@std@@YA$$QAVioHashString@@AAV1@@Z ENDP ; std::forward<ioHashString>
_TEXT	ENDS
PUBLIC	?_DECSTR@@YAXPADH@Z				; _DECSTR
; Function compile flags: /Ogsp
; File d:\lost saga for developer\youtube\tutorial\source\src\lsclient\stringprotect.h
;	COMDAT ?_DECSTR@@YAXPADH@Z
_TEXT	SEGMENT
_s$ = 8							; size = 4
_l$ = 12						; size = 4
?_DECSTR@@YAXPADH@Z PROC				; _DECSTR, COMDAT

; 40   : __forceinline void _DECSTR(char* s, int l){int i=0,l4=(l-1)/4,*p=(int*)s;s[l-1]=0;for(;i<l4;++i)*(p++)^=0xEAEBECED;for(i=l4*4;i<l-1;++i)s[i]^=0xED-i%4;}

  00000	55		 push	 ebp
  00001	8b ec		 mov	 ebp, esp
  00003	8b 4d 0c	 mov	 ecx, DWORD PTR _l$[ebp]
  00006	56		 push	 esi
  00007	8b 75 08	 mov	 esi, DWORD PTR _s$[ebp]
  0000a	57		 push	 edi
  0000b	8d 79 ff	 lea	 edi, DWORD PTR [ecx-1]
  0000e	8b c7		 mov	 eax, edi
  00010	99		 cdq
  00011	83 e2 03	 and	 edx, 3
  00014	03 c2		 add	 eax, edx
  00016	c1 f8 02	 sar	 eax, 2
  00019	8b d6		 mov	 edx, esi
  0001b	c6 44 0e ff 00	 mov	 BYTE PTR [esi+ecx-1], 0
  00020	85 c0		 test	 eax, eax
  00022	7e 0e		 jle	 SHORT $LN4@DECSTR
  00024	8b c8		 mov	 ecx, eax
$LL6@DECSTR:
  00026	81 32 ed ec eb
	ea		 xor	 DWORD PTR [edx], -353637139 ; eaebecedH
  0002c	83 c2 04	 add	 edx, 4
  0002f	49		 dec	 ecx
  00030	75 f4		 jne	 SHORT $LL6@DECSTR
$LN4@DECSTR:
  00032	c1 e0 02	 shl	 eax, 2
  00035	eb 17		 jmp	 SHORT $LN14@DECSTR
$LL3@DECSTR:
  00037	8b c8		 mov	 ecx, eax
  00039	81 e1 03 00 00
	80		 and	 ecx, -2147483645	; 80000003H
  0003f	79 05		 jns	 SHORT $LN13@DECSTR
  00041	49		 dec	 ecx
  00042	83 c9 fc	 or	 ecx, -4			; fffffffcH
  00045	41		 inc	 ecx
$LN13@DECSTR:
  00046	b2 ed		 mov	 dl, -19			; ffffffedH
  00048	2a d1		 sub	 dl, cl
  0004a	30 14 30	 xor	 BYTE PTR [eax+esi], dl
  0004d	40		 inc	 eax
$LN14@DECSTR:
  0004e	3b c7		 cmp	 eax, edi
  00050	7c e5		 jl	 SHORT $LL3@DECSTR
  00052	5f		 pop	 edi
  00053	5e		 pop	 esi
  00054	5d		 pop	 ebp
  00055	c3		 ret	 0
?_DECSTR@@YAXPADH@Z ENDP				; _DECSTR
_TEXT	ENDS
PUBLIC	?return57@@YAIXZ				; return57
; Function compile flags: /Ogsp
; File d:\lost saga for developer\youtube\tutorial\source\src\lsclient\veryoftenusedefine.h
;	COMDAT ?return57@@YAIXZ
_TEXT	SEGMENT
?return57@@YAIXZ PROC					; return57, COMDAT

; 15   : __forceinline unsigned int return57() { __asm mov eax, 57 };

  00000	b8 39 00 00 00	 mov	 eax, 57			; 00000039H
  00005	c3		 ret	 0
?return57@@YAIXZ ENDP					; return57
_TEXT	ENDS
PUBLIC	?GetGroup@ioGameEntity@@QBEPAVioEntityGroup@@XZ	; ioGameEntity::GetGroup
; Function compile flags: /Ogsp
; File d:\lost saga for developer\youtube\tutorial\source\src\lsclient\iogameentity.h
;	COMDAT ?GetGroup@ioGameEntity@@QBEPAVioEntityGroup@@XZ
_TEXT	SEGMENT
?GetGroup@ioGameEntity@@QBEPAVioEntityGroup@@XZ PROC	; ioGameEntity::GetGroup, COMDAT
; _this$ = ecx

; 166  : 	inline ioEntityGroup* GetGroup() const { return m_pGroup; }

  00000	8b 41 04	 mov	 eax, DWORD PTR [ecx+4]
  00003	c3		 ret	 0
?GetGroup@ioGameEntity@@QBEPAVioEntityGroup@@XZ ENDP	; ioGameEntity::GetGroup
_TEXT	ENDS
PUBLIC	?GetAreaWeaponIndex@ioAreaWeapon@@QBEKXZ	; ioAreaWeapon::GetAreaWeaponIndex
; Function compile flags: /Ogsp
; File d:\lost saga for developer\youtube\tutorial\source\src\lsclient\ioareaweapon.h
;	COMDAT ?GetAreaWeaponIndex@ioAreaWeapon@@QBEKXZ
_TEXT	SEGMENT
?GetAreaWeaponIndex@ioAreaWeapon@@QBEKXZ PROC		; ioAreaWeapon::GetAreaWeaponIndex, COMDAT
; _this$ = ecx

; 431  : 	inline DWORD GetAreaWeaponIndex() const { return m_dwAreaWeaponIndex; }

  00000	8b 41 14	 mov	 eax, DWORD PTR [ecx+20]
  00003	c3		 ret	 0
?GetAreaWeaponIndex@ioAreaWeapon@@QBEKXZ ENDP		; ioAreaWeapon::GetAreaWeaponIndex
_TEXT	ENDS
PUBLIC	?GetName@ioSkill@@QBEABVioHashString@@XZ	; ioSkill::GetName
; Function compile flags: /Ogsp
; File d:\lost saga for developer\youtube\tutorial\source\src\lsclient\ioskill.h
;	COMDAT ?GetName@ioSkill@@QBEABVioHashString@@XZ
_TEXT	SEGMENT
?GetName@ioSkill@@QBEABVioHashString@@XZ PROC		; ioSkill::GetName, COMDAT
; _this$ = ecx

; 414  : 	inline const ioHashString& GetName() const { return m_Name; }

  00000	8d 41 24	 lea	 eax, DWORD PTR [ecx+36]
  00003	c3		 ret	 0
?GetName@ioSkill@@QBEABVioHashString@@XZ ENDP		; ioSkill::GetName
_TEXT	ENDS
PUBLIC	?size@?$vector@VioHashString@@V?$allocator@VioHashString@@@std@@@std@@QBEIXZ ; std::vector<ioHashString,std::allocator<ioHashString> >::size
; Function compile flags: /Ogsp
; File c:\program files (x86)\microsoft visual studio 10.0\vc\include\vector
;	COMDAT ?size@?$vector@VioHashString@@V?$allocator@VioHashString@@@std@@@std@@QBEIXZ
_TEXT	SEGMENT
?size@?$vector@VioHashString@@V?$allocator@VioHashString@@@std@@@std@@QBEIXZ PROC ; std::vector<ioHashString,std::allocator<ioHashString> >::size, COMDAT
; _this$ = ecx

; 879  : 		return (this->_Mylast - this->_Myfirst);

  00000	8b 41 04	 mov	 eax, DWORD PTR [ecx+4]
  00003	2b 01		 sub	 eax, DWORD PTR [ecx]
  00005	c1 f8 04	 sar	 eax, 4

; 880  : 		}

  00008	c3		 ret	 0
?size@?$vector@VioHashString@@V?$allocator@VioHashString@@@std@@@std@@QBEIXZ ENDP ; std::vector<ioHashString,std::allocator<ioHashString> >::size
_TEXT	ENDS
PUBLIC	??1?$_Vector_val@VioHashString@@V?$allocator@VioHashString@@@std@@@std@@QAE@XZ ; std::_Vector_val<ioHashString,std::allocator<ioHashString> >::~_Vector_val<ioHashString,std::allocator<ioHashString> >
; Function compile flags: /Ogsp
;	COMDAT ??1?$_Vector_val@VioHashString@@V?$allocator@VioHashString@@@std@@@std@@QAE@XZ
_TEXT	SEGMENT
??1?$_Vector_val@VioHashString@@V?$allocator@VioHashString@@@std@@@std@@QAE@XZ PROC ; std::_Vector_val<ioHashString,std::allocator<ioHashString> >::~_Vector_val<ioHashString,std::allocator<ioHashString> >, COMDAT
; _this$ = ecx

; 434  : 		}

  00000	c3		 ret	 0
??1?$_Vector_val@VioHashString@@V?$allocator@VioHashString@@@std@@@std@@QAE@XZ ENDP ; std::_Vector_val<ioHashString,std::allocator<ioHashString> >::~_Vector_val<ioHashString,std::allocator<ioHashString> >
_TEXT	ENDS
PUBLIC	??0?$allocator@VioHashString@@@std@@QAE@XZ	; std::allocator<ioHashString>::allocator<ioHashString>
; Function compile flags: /Ogsp
; File c:\program files (x86)\microsoft visual studio 10.0\vc\include\xmemory
;	COMDAT ??0?$allocator@VioHashString@@@std@@QAE@XZ
_TEXT	SEGMENT
??0?$allocator@VioHashString@@@std@@QAE@XZ PROC		; std::allocator<ioHashString>::allocator<ioHashString>, COMDAT
; _this$ = ecx

; 161  : 	_ALLOCATOR() _THROW0()

  00000	8b c1		 mov	 eax, ecx

; 162  : 		{	// construct default allocator (do nothing)
; 163  : 		}

  00002	c3		 ret	 0
??0?$allocator@VioHashString@@@std@@QAE@XZ ENDP		; std::allocator<ioHashString>::allocator<ioHashString>
_TEXT	ENDS
PUBLIC	??0?$allocator@VioHashString@@@std@@QAE@ABV01@@Z ; std::allocator<ioHashString>::allocator<ioHashString>
; Function compile flags: /Ogsp
;	COMDAT ??0?$allocator@VioHashString@@@std@@QAE@ABV01@@Z
_TEXT	SEGMENT
___formal$ = 8						; size = 4
??0?$allocator@VioHashString@@@std@@QAE@ABV01@@Z PROC	; std::allocator<ioHashString>::allocator<ioHashString>, COMDAT
; _this$ = ecx

; 165  : 	_ALLOCATOR(const _ALLOCATOR<_Ty>&) _THROW0()

  00000	8b c1		 mov	 eax, ecx

; 166  : 		{	// construct by copying (do nothing)
; 167  : 		}

  00002	c2 04 00	 ret	 4
??0?$allocator@VioHashString@@@std@@QAE@ABV01@@Z ENDP	; std::allocator<ioHashString>::allocator<ioHashString>
_TEXT	ENDS
PUBLIC	?EncryptValueToPool@?$CEncrypt@M@@AAEXPBD@Z	; CEncrypt<float>::EncryptValueToPool
EXTRN	?EncryptByte@ccddaabb@@QAEXPBDPADH@Z:PROC	; ccddaabb::EncryptByte
; Function compile flags: /Ogsp
; File d:\lost saga for developer\youtube\tutorial\source\src\lsclient\encryptvalue.h
;	COMDAT ?EncryptValueToPool@?$CEncrypt@M@@AAEXPBD@Z
_TEXT	SEGMENT
_value$ = 8						; size = 4
?EncryptValueToPool@?$CEncrypt@M@@AAEXPBD@Z PROC	; CEncrypt<float>::EncryptValueToPool, COMDAT
; _this$ = ecx

; 67   : 	{

  00000	55		 push	 ebp
  00001	8b ec		 mov	 ebp, esp

; 68   : 		m_RC5.EncryptByte( value, m_MemPool, max(m_ValueSize, DEFAULT_ENCRYPT) );

  00003	0f b7 41 06	 movzx	 eax, WORD PTR [ecx+6]
  00007	83 f8 04	 cmp	 eax, 4
  0000a	77 03		 ja	 SHORT $LN4@EncryptVal
  0000c	6a 04		 push	 4
  0000e	58		 pop	 eax
$LN4@EncryptVal:
  0000f	50		 push	 eax
  00010	8d 41 1c	 lea	 eax, DWORD PTR [ecx+28]
  00013	50		 push	 eax
  00014	ff 75 08	 push	 DWORD PTR _value$[ebp]
  00017	83 c1 0c	 add	 ecx, 12			; 0000000cH
  0001a	e8 00 00 00 00	 call	 ?EncryptByte@ccddaabb@@QAEXPBDPADH@Z ; ccddaabb::EncryptByte

; 69   : 		
; 70   : 	}

  0001f	5d		 pop	 ebp
  00020	c2 04 00	 ret	 4
?EncryptValueToPool@?$CEncrypt@M@@AAEXPBD@Z ENDP	; CEncrypt<float>::EncryptValueToPool
_TEXT	ENDS
PUBLIC	?DecryptValueToPool@?$CEncrypt@_N@@QAEXPA_N@Z	; CEncrypt<bool>::DecryptValueToPool
EXTRN	?DecryptByte@ccddaabb@@QBEXPBDPADH@Z:PROC	; ccddaabb::DecryptByte
; Function compile flags: /Ogsp
;	COMDAT ?DecryptValueToPool@?$CEncrypt@_N@@QAEXPA_N@Z
_TEXT	SEGMENT
_value$ = 8						; size = 4
?DecryptValueToPool@?$CEncrypt@_N@@QAEXPA_N@Z PROC	; CEncrypt<bool>::DecryptValueToPool, COMDAT
; _this$ = ecx

; 219  : 	{

  00000	55		 push	 ebp
  00001	8b ec		 mov	 ebp, esp
  00003	56		 push	 esi

; 220  : 		m_RC5.DecryptByte( m_MemPool, m_TempMem, 4 );

  00004	8d 71 28	 lea	 esi, DWORD PTR [ecx+40]
  00007	6a 04		 push	 4
  00009	8d 41 1c	 lea	 eax, DWORD PTR [ecx+28]
  0000c	56		 push	 esi
  0000d	50		 push	 eax
  0000e	83 c1 0c	 add	 ecx, 12			; 0000000cH
  00011	e8 00 00 00 00	 call	 ?DecryptByte@ccddaabb@@QBEXPBDPADH@Z ; ccddaabb::DecryptByte

; 221  : 		*value = *((bool*)m_TempMem);

  00016	8a 06		 mov	 al, BYTE PTR [esi]
  00018	8b 4d 08	 mov	 ecx, DWORD PTR _value$[ebp]
  0001b	88 01		 mov	 BYTE PTR [ecx], al
  0001d	5e		 pop	 esi

; 222  : 	}

  0001e	5d		 pop	 ebp
  0001f	c2 04 00	 ret	 4
?DecryptValueToPool@?$CEncrypt@_N@@QAEXPA_N@Z ENDP	; CEncrypt<bool>::DecryptValueToPool
_TEXT	ENDS
PUBLIC	??_C@_0BD@OLBABOEK@vector?$DMT?$DO?5too?5long?$AA@ ; `string'
PUBLIC	?_Xlen@?$vector@VioHashString@@V?$allocator@VioHashString@@@std@@@std@@IBEXXZ ; std::vector<ioHashString,std::allocator<ioHashString> >::_Xlen
EXTRN	__imp_?_Xlength_error@std@@YAXPBD@Z:PROC
;	COMDAT ??_C@_0BD@OLBABOEK@vector?$DMT?$DO?5too?5long?$AA@
; File c:\program files (x86)\microsoft visual studio 10.0\vc\include\vector
CONST	SEGMENT
??_C@_0BD@OLBABOEK@vector?$DMT?$DO?5too?5long?$AA@ DB 'vector<T> too long'
	DB	00H						; `string'
; Function compile flags: /Ogsp
CONST	ENDS
;	COMDAT ?_Xlen@?$vector@VioHashString@@V?$allocator@VioHashString@@@std@@@std@@IBEXXZ
_TEXT	SEGMENT
?_Xlen@?$vector@VioHashString@@V?$allocator@VioHashString@@@std@@@std@@IBEXXZ PROC ; std::vector<ioHashString,std::allocator<ioHashString> >::_Xlen, COMDAT
; _this$ = ecx

; 1427 : 		_Xlength_error("vector<T> too long");

  00000	68 00 00 00 00	 push	 OFFSET ??_C@_0BD@OLBABOEK@vector?$DMT?$DO?5too?5long?$AA@
  00005	ff 15 00 00 00
	00		 call	 DWORD PTR __imp_?_Xlength_error@std@@YAXPBD@Z
$LN4@Xlen:
$LN3@Xlen:
  0000b	cc		 int	 3
?_Xlen@?$vector@VioHashString@@V?$allocator@VioHashString@@@std@@@std@@IBEXXZ ENDP ; std::vector<ioHashString,std::allocator<ioHashString> >::_Xlen
_TEXT	ENDS
PUBLIC	?deallocate@?$allocator@VioHashString@@@std@@QAEXPAVioHashString@@I@Z ; std::allocator<ioHashString>::deallocate
; Function compile flags: /Ogsp
; File c:\program files (x86)\microsoft visual studio 10.0\vc\include\xmemory
;	COMDAT ?deallocate@?$allocator@VioHashString@@@std@@QAEXPAVioHashString@@I@Z
_TEXT	SEGMENT
__Ptr$ = 8						; size = 4
___formal$ = 12						; size = 4
?deallocate@?$allocator@VioHashString@@@std@@QAEXPAVioHashString@@I@Z PROC ; std::allocator<ioHashString>::deallocate, COMDAT
; _this$ = ecx

; 181  : 		{	// deallocate object at _Ptr, ignore size

  00000	55		 push	 ebp
  00001	8b ec		 mov	 ebp, esp

; 182  : 		::operator delete(_Ptr);

  00003	ff 75 08	 push	 DWORD PTR __Ptr$[ebp]
  00006	e8 00 00 00 00	 call	 ??3@YAXPAX@Z		; operator delete
  0000b	59		 pop	 ecx

; 183  : 		}

  0000c	5d		 pop	 ebp
  0000d	c2 08 00	 ret	 8
?deallocate@?$allocator@VioHashString@@@std@@QAEXPAVioHashString@@I@Z ENDP ; std::allocator<ioHashString>::deallocate
_TEXT	ENDS
PUBLIC	??0?$_Vector_const_iterator@V?$_Vector_val@VioHashString@@V?$allocator@VioHashString@@@std@@@std@@@std@@QAE@PAVioHashString@@PBU_Container_base0@1@@Z ; std::_Vector_const_iterator<std::_Vector_val<ioHashString,std::allocator<ioHashString> > >::_Vector_const_iterator<std::_Vector_val<ioHashString,std::allocator<ioHashString> > >
; Function compile flags: /Ogsp
; File c:\program files (x86)\microsoft visual studio 10.0\vc\include\vector
;	COMDAT ??0?$_Vector_const_iterator@V?$_Vector_val@VioHashString@@V?$allocator@VioHashString@@@std@@@std@@@std@@QAE@PAVioHashString@@PBU_Container_base0@1@@Z
_TEXT	SEGMENT
__Parg$ = 8						; size = 4
__Pvector$ = 12						; size = 4
??0?$_Vector_const_iterator@V?$_Vector_val@VioHashString@@V?$allocator@VioHashString@@@std@@@std@@@std@@QAE@PAVioHashString@@PBU_Container_base0@1@@Z PROC ; std::_Vector_const_iterator<std::_Vector_val<ioHashString,std::allocator<ioHashString> > >::_Vector_const_iterator<std::_Vector_val<ioHashString,std::allocator<ioHashString> > >, COMDAT
; _this$ = ecx

; 45   : 		{	// construct with pointer _Parg

  00000	55		 push	 ebp
  00001	8b ec		 mov	 ebp, esp
  00003	8b c1		 mov	 eax, ecx
  00005	8b 4d 08	 mov	 ecx, DWORD PTR __Parg$[ebp]
  00008	89 08		 mov	 DWORD PTR [eax], ecx

; 46   : 		this->_Adopt(_Pvector);
; 47   : 		}

  0000a	5d		 pop	 ebp
  0000b	c2 08 00	 ret	 8
??0?$_Vector_const_iterator@V?$_Vector_val@VioHashString@@V?$allocator@VioHashString@@@std@@@std@@@std@@QAE@PAVioHashString@@PBU_Container_base0@1@@Z ENDP ; std::_Vector_const_iterator<std::_Vector_val<ioHashString,std::allocator<ioHashString> > >::_Vector_const_iterator<std::_Vector_val<ioHashString,std::allocator<ioHashString> > >
_TEXT	ENDS
PUBLIC	?max_size@?$allocator@VioHashString@@@std@@QBEIXZ ; std::allocator<ioHashString>::max_size
; Function compile flags: /Ogsp
; File c:\program files (x86)\microsoft visual studio 10.0\vc\include\xmemory
;	COMDAT ?max_size@?$allocator@VioHashString@@@std@@QBEIXZ
_TEXT	SEGMENT
?max_size@?$allocator@VioHashString@@@std@@QBEIXZ PROC	; std::allocator<ioHashString>::max_size, COMDAT
; _this$ = ecx

; 218  : 		_SIZT _Count = (_SIZT)(-1) / sizeof (_Ty);
; 219  : 		return (0 < _Count ? _Count : 1);

  00000	b8 ff ff ff 0f	 mov	 eax, 268435455		; 0fffffffH

; 220  : 		}

  00005	c3		 ret	 0
?max_size@?$allocator@VioHashString@@@std@@QBEIXZ ENDP	; std::allocator<ioHashString>::max_size
_TEXT	ENDS
PUBLIC	?_Compat@?$_Vector_const_iterator@V?$_Vector_val@VioHashString@@V?$allocator@VioHashString@@@std@@@std@@@std@@QBEXABV12@@Z ; std::_Vector_const_iterator<std::_Vector_val<ioHashString,std::allocator<ioHashString> > >::_Compat
; Function compile flags: /Ogsp
; File c:\program files (x86)\microsoft visual studio 10.0\vc\include\vector
;	COMDAT ?_Compat@?$_Vector_const_iterator@V?$_Vector_val@VioHashString@@V?$allocator@VioHashString@@@std@@@std@@@std@@QBEXABV12@@Z
_TEXT	SEGMENT
___formal$ = 8						; size = 4
?_Compat@?$_Vector_const_iterator@V?$_Vector_val@VioHashString@@V?$allocator@VioHashString@@@std@@@std@@@std@@QBEXABV12@@Z PROC ; std::_Vector_const_iterator<std::_Vector_val<ioHashString,std::allocator<ioHashString> > >::_Compat, COMDAT
; _this$ = ecx

; 253  : 		}

  00000	c2 04 00	 ret	 4
?_Compat@?$_Vector_const_iterator@V?$_Vector_val@VioHashString@@V?$allocator@VioHashString@@@std@@@std@@@std@@QBEXABV12@@Z ENDP ; std::_Vector_const_iterator<std::_Vector_val<ioHashString,std::allocator<ioHashString> > >::_Compat
_TEXT	ENDS
PUBLIC	__TI2?AVbad_alloc@std@@
PUBLIC	??$_Allocate@VioHashString@@@std@@YAPAVioHashString@@IPAV1@@Z ; std::_Allocate<ioHashString>
PUBLIC	__CTA2?AVbad_alloc@std@@
PUBLIC	__CT??_R0?AVbad_alloc@std@@@8??0bad_alloc@std@@QAE@ABV01@@Z12
PUBLIC	??0bad_alloc@std@@QAE@ABV01@@Z			; std::bad_alloc::bad_alloc
PUBLIC	__CT??_R0?AVexception@std@@@8??0exception@std@@QAE@ABV01@@Z12
EXTRN	??2@YAPAXI@Z:PROC				; operator new
EXTRN	__CxxThrowException@8:PROC
EXTRN	??0exception@std@@QAE@ABV01@@Z:PROC		; std::exception::exception
;	COMDAT __CT??_R0?AVexception@std@@@8??0exception@std@@QAE@ABV01@@Z12
; File c:\program files (x86)\microsoft visual studio 10.0\vc\include\exception
xdata$x	SEGMENT
__CT??_R0?AVexception@std@@@8??0exception@std@@QAE@ABV01@@Z12 DD 00H
	DD	FLAT:??_R0?AVexception@std@@@8
	DD	00H
	DD	0ffffffffH
	ORG $+4
	DD	0cH
	DD	FLAT:??0exception@std@@QAE@ABV01@@Z
xdata$x	ENDS
;	COMDAT __CT??_R0?AVbad_alloc@std@@@8??0bad_alloc@std@@QAE@ABV01@@Z12
xdata$x	SEGMENT
__CT??_R0?AVbad_alloc@std@@@8??0bad_alloc@std@@QAE@ABV01@@Z12 DD 00H
	DD	FLAT:??_R0?AVbad_alloc@std@@@8
	DD	00H
	DD	0ffffffffH
	ORG $+4
	DD	0cH
	DD	FLAT:??0bad_alloc@std@@QAE@ABV01@@Z
xdata$x	ENDS
;	COMDAT __CTA2?AVbad_alloc@std@@
xdata$x	SEGMENT
__CTA2?AVbad_alloc@std@@ DD 02H
	DD	FLAT:__CT??_R0?AVbad_alloc@std@@@8??0bad_alloc@std@@QAE@ABV01@@Z12
	DD	FLAT:__CT??_R0?AVexception@std@@@8??0exception@std@@QAE@ABV01@@Z12
xdata$x	ENDS
;	COMDAT __TI2?AVbad_alloc@std@@
xdata$x	SEGMENT
__TI2?AVbad_alloc@std@@ DD 00H
	DD	FLAT:??1bad_alloc@std@@UAE@XZ
	DD	00H
	DD	FLAT:__CTA2?AVbad_alloc@std@@
; Function compile flags: /Ogsp
; File c:\program files (x86)\microsoft visual studio 10.0\vc\include\xmemory
xdata$x	ENDS
;	COMDAT ??$_Allocate@VioHashString@@@std@@YAPAVioHashString@@IPAV1@@Z
_TEXT	SEGMENT
$T554173 = -12						; size = 12
$T554178 = 8						; size = 4
__Count$ = 8						; size = 4
___formal$ = 12						; size = 4
??$_Allocate@VioHashString@@@std@@YAPAVioHashString@@IPAV1@@Z PROC ; std::_Allocate<ioHashString>, COMDAT

; 30   : 	{	// allocate storage for _Count elements of type _Ty

  00000	55		 push	 ebp
  00001	8b ec		 mov	 ebp, esp

; 31   : 	void *_Ptr = 0;
; 32   : 
; 33   : 	if (_Count <= 0)

  00003	8b 4d 08	 mov	 ecx, DWORD PTR __Count$[ebp]
  00006	83 ec 0c	 sub	 esp, 12			; 0000000cH
  00009	33 c0		 xor	 eax, eax
  0000b	85 c9		 test	 ecx, ecx

; 34   : 		_Count = 0;
; 35   : 	else if (((_SIZT)(-1) / sizeof (_Ty) < _Count)

  0000d	74 3c		 je	 SHORT $LN5@Allocate

; 36   : 		|| (_Ptr = ::operator new(_Count * sizeof (_Ty))) == 0)

  0000f	81 f9 ff ff ff
	0f		 cmp	 ecx, 268435455		; 0fffffffH
  00015	77 0e		 ja	 SHORT $LN1@Allocate
  00017	c1 e1 04	 shl	 ecx, 4
  0001a	51		 push	 ecx
  0001b	e8 00 00 00 00	 call	 ??2@YAPAXI@Z		; operator new
  00020	59		 pop	 ecx
  00021	85 c0		 test	 eax, eax

; 38   : 
; 39   : 	return ((_Ty _FARQ *)_Ptr);

  00023	75 26		 jne	 SHORT $LN5@Allocate
$LN1@Allocate:

; 37   : 		_THROW_NCEE(bad_alloc, 0);

  00025	83 65 08 00	 and	 DWORD PTR $T554178[ebp], 0
  00029	8d 45 08	 lea	 eax, DWORD PTR $T554178[ebp]
  0002c	50		 push	 eax
  0002d	8d 4d f4	 lea	 ecx, DWORD PTR $T554173[ebp]
  00030	ff 15 00 00 00
	00		 call	 DWORD PTR __imp_??0exception@std@@QAE@ABQBD@Z
  00036	68 00 00 00 00	 push	 OFFSET __TI2?AVbad_alloc@std@@
  0003b	8d 45 f4	 lea	 eax, DWORD PTR $T554173[ebp]
  0003e	50		 push	 eax
  0003f	c7 45 f4 00 00
	00 00		 mov	 DWORD PTR $T554173[ebp], OFFSET ??_7bad_alloc@std@@6B@
  00046	e8 00 00 00 00	 call	 __CxxThrowException@8
$LN10@Allocate:
$LN5@Allocate:

; 40   : 	}

  0004b	c9		 leave
  0004c	c3		 ret	 0
$LN9@Allocate:
??$_Allocate@VioHashString@@@std@@YAPAVioHashString@@IPAV1@@Z ENDP ; std::_Allocate<ioHashString>
_TEXT	ENDS
EXTRN	__imp_??0exception@std@@QAE@ABV01@@Z:PROC
; Function compile flags: /Ogsp
;	COMDAT ??0bad_alloc@std@@QAE@ABV01@@Z
_TEXT	SEGMENT
___that$ = 8						; size = 4
??0bad_alloc@std@@QAE@ABV01@@Z PROC			; std::bad_alloc::bad_alloc, COMDAT
; _this$ = ecx
  00000	55		 push	 ebp
  00001	8b ec		 mov	 ebp, esp
  00003	56		 push	 esi
  00004	ff 75 08	 push	 DWORD PTR ___that$[ebp]
  00007	8b f1		 mov	 esi, ecx
  00009	ff 15 00 00 00
	00		 call	 DWORD PTR __imp_??0exception@std@@QAE@ABV01@@Z
  0000f	c7 06 00 00 00
	00		 mov	 DWORD PTR [esi], OFFSET ??_7bad_alloc@std@@6B@
  00015	8b c6		 mov	 eax, esi
  00017	5e		 pop	 esi
  00018	5d		 pop	 ebp
  00019	c2 04 00	 ret	 4
??0bad_alloc@std@@QAE@ABV01@@Z ENDP			; std::bad_alloc::bad_alloc
_TEXT	ENDS
PUBLIC	??$forward@ABVioHashString@@@std@@YAABVioHashString@@ABV1@@Z ; std::forward<ioHashString const &>
; Function compile flags: /Ogsp
; File c:\program files (x86)\microsoft visual studio 10.0\vc\include\utility
;	COMDAT ??$forward@ABVioHashString@@@std@@YAABVioHashString@@ABV1@@Z
_TEXT	SEGMENT
__Arg$ = 8						; size = 4
??$forward@ABVioHashString@@@std@@YAABVioHashString@@ABV1@@Z PROC ; std::forward<ioHashString const &>, COMDAT

; 78   : 	{	// forward _Arg, given explicitly specified type parameter

  00000	55		 push	 ebp
  00001	8b ec		 mov	 ebp, esp

; 79   : 	return ((_Ty&&)_Arg);

  00003	8b 45 08	 mov	 eax, DWORD PTR __Arg$[ebp]

; 80   : 	}

  00006	5d		 pop	 ebp
  00007	c3		 ret	 0
??$forward@ABVioHashString@@@std@@YAABVioHashString@@ABV1@@Z ENDP ; std::forward<ioHashString const &>
_TEXT	ENDS
PUBLIC	??$forward@AAVioHashString@@@std@@YAAAVioHashString@@AAV1@@Z ; std::forward<ioHashString &>
; Function compile flags: /Ogsp
;	COMDAT ??$forward@AAVioHashString@@@std@@YAAAVioHashString@@AAV1@@Z
_TEXT	SEGMENT
__Arg$ = 8						; size = 4
??$forward@AAVioHashString@@@std@@YAAAVioHashString@@AAV1@@Z PROC ; std::forward<ioHashString &>, COMDAT

; 78   : 	{	// forward _Arg, given explicitly specified type parameter

  00000	55		 push	 ebp
  00001	8b ec		 mov	 ebp, esp

; 79   : 	return ((_Ty&&)_Arg);

  00003	8b 45 08	 mov	 eax, DWORD PTR __Arg$[ebp]

; 80   : 	}

  00006	5d		 pop	 ebp
  00007	c3		 ret	 0
??$forward@AAVioHashString@@@std@@YAAAVioHashString@@AAV1@@Z ENDP ; std::forward<ioHashString &>
_TEXT	ENDS
PUBLIC	??$_Ptr_cat@VioHashString@@V1@@std@@YA?AU_Nonscalar_ptr_iterator_tag@0@PAVioHashString@@0@Z ; std::_Ptr_cat<ioHashString,ioHashString>
; Function compile flags: /Ogsp
; File c:\program files (x86)\microsoft visual studio 10.0\vc\include\xutility
;	COMDAT ??$_Ptr_cat@VioHashString@@V1@@std@@YA?AU_Nonscalar_ptr_iterator_tag@0@PAVioHashString@@0@Z
_TEXT	SEGMENT
__Cat$ = -1						; size = 1
___formal$ = 8						; size = 4
___formal$ = 12						; size = 4
??$_Ptr_cat@VioHashString@@V1@@std@@YA?AU_Nonscalar_ptr_iterator_tag@0@PAVioHashString@@0@Z PROC ; std::_Ptr_cat<ioHashString,ioHashString>, COMDAT

; 516  : 	{	// return pointer category from pointers

  00000	55		 push	 ebp
  00001	8b ec		 mov	 ebp, esp
  00003	51		 push	 ecx

; 517  : 	typename _Ptr_cat_helper<_Elem1, _Elem2>::_Type _Cat;
; 518  : 	return (_Cat);

  00004	8a 45 ff	 mov	 al, BYTE PTR __Cat$[ebp]

; 519  : 	}

  00007	c9		 leave
  00008	c3		 ret	 0
??$_Ptr_cat@VioHashString@@V1@@std@@YA?AU_Nonscalar_ptr_iterator_tag@0@PAVioHashString@@0@Z ENDP ; std::_Ptr_cat<ioHashString,ioHashString>
_TEXT	ENDS
PUBLIC	??$_Ptr_cat@V?$_Vector_const_iterator@V?$_Vector_val@VioHashString@@V?$allocator@VioHashString@@@std@@@std@@@std@@PAVioHashString@@@std@@YA?AU_Nonscalar_ptr_iterator_tag@0@AAV?$_Vector_const_iterator@V?$_Vector_val@VioHashString@@V?$allocator@VioHashString@@@std@@@std@@@0@AAPAVioHashString@@@Z ; std::_Ptr_cat<std::_Vector_const_iterator<std::_Vector_val<ioHashString,std::allocator<ioHashString> > >,ioHashString *>
; Function compile flags: /Ogsp
;	COMDAT ??$_Ptr_cat@V?$_Vector_const_iterator@V?$_Vector_val@VioHashString@@V?$allocator@VioHashString@@@std@@@std@@@std@@PAVioHashString@@@std@@YA?AU_Nonscalar_ptr_iterator_tag@0@AAV?$_Vector_const_iterator@V?$_Vector_val@VioHashString@@V?$allocator@VioHashString@@@std@@@std@@@0@AAPAVioHashString@@@Z
_TEXT	SEGMENT
__Cat$ = -1						; size = 1
___formal$ = 8						; size = 4
___formal$ = 12						; size = 4
??$_Ptr_cat@V?$_Vector_const_iterator@V?$_Vector_val@VioHashString@@V?$allocator@VioHashString@@@std@@@std@@@std@@PAVioHashString@@@std@@YA?AU_Nonscalar_ptr_iterator_tag@0@AAV?$_Vector_const_iterator@V?$_Vector_val@VioHashString@@V?$allocator@VioHashString@@@std@@@std@@@0@AAPAVioHashString@@@Z PROC ; std::_Ptr_cat<std::_Vector_const_iterator<std::_Vector_val<ioHashString,std::allocator<ioHashString> > >,ioHashString *>, COMDAT

; 485  : 	{	// return pointer category from arbitrary arguments

  00000	55		 push	 ebp
  00001	8b ec		 mov	 ebp, esp
  00003	51		 push	 ecx

; 486  : 	_Nonscalar_ptr_iterator_tag _Cat;
; 487  : 	return (_Cat);

  00004	8a 45 ff	 mov	 al, BYTE PTR __Cat$[ebp]

; 488  : 	}

  00007	c9		 leave
  00008	c3		 ret	 0
??$_Ptr_cat@V?$_Vector_const_iterator@V?$_Vector_val@VioHashString@@V?$allocator@VioHashString@@@std@@@std@@@std@@PAVioHashString@@@std@@YA?AU_Nonscalar_ptr_iterator_tag@0@AAV?$_Vector_const_iterator@V?$_Vector_val@VioHashString@@V?$allocator@VioHashString@@@std@@@std@@@0@AAPAVioHashString@@@Z ENDP ; std::_Ptr_cat<std::_Vector_const_iterator<std::_Vector_val<ioHashString,std::allocator<ioHashString> > >,ioHashString *>
_TEXT	ENDS
PUBLIC	??D?$_Vector_const_iterator@V?$_Vector_val@VioHashString@@V?$allocator@VioHashString@@@std@@@std@@@std@@QBEABVioHashString@@XZ ; std::_Vector_const_iterator<std::_Vector_val<ioHashString,std::allocator<ioHashString> > >::operator*
; Function compile flags: /Ogsp
; File c:\program files (x86)\microsoft visual studio 10.0\vc\include\vector
;	COMDAT ??D?$_Vector_const_iterator@V?$_Vector_val@VioHashString@@V?$allocator@VioHashString@@@std@@@std@@@std@@QBEABVioHashString@@XZ
_TEXT	SEGMENT
??D?$_Vector_const_iterator@V?$_Vector_val@VioHashString@@V?$allocator@VioHashString@@@std@@@std@@@std@@QBEABVioHashString@@XZ PROC ; std::_Vector_const_iterator<std::_Vector_val<ioHashString,std::allocator<ioHashString> > >::operator*, COMDAT
; _this$ = ecx

; 64   :  #if _ITERATOR_DEBUG_LEVEL == 2
; 65   : 		if (this->_Getcont() == 0
; 66   : 			|| this->_Ptr == 0
; 67   : 			|| this->_Ptr < ((_Myvec *)this->_Getcont())->_Myfirst
; 68   : 			|| ((_Myvec *)this->_Getcont())->_Mylast <= this->_Ptr)
; 69   : 			{	// report error
; 70   : 			_DEBUG_ERROR("vector iterator not dereferencable");
; 71   : 			_SCL_SECURE_OUT_OF_RANGE;
; 72   : 			}
; 73   : 
; 74   :  #elif _ITERATOR_DEBUG_LEVEL == 1
; 75   : 		_SCL_SECURE_VALIDATE(this->_Getcont() != 0);
; 76   : 		_SCL_SECURE_VALIDATE_RANGE(
; 77   : 			this->_Ptr != 0
; 78   : 			&& ((_Myvec *)this->_Getcont())->_Myfirst <= this->_Ptr
; 79   : 			&& this->_Ptr < ((_Myvec *)this->_Getcont())->_Mylast);
; 80   :  #endif /* _ITERATOR_DEBUG_LEVEL */
; 81   : 
; 82   : 		__analysis_assume(this->_Ptr != 0);
; 83   : 
; 84   : 		return (*this->_Ptr);

  00000	8b 01		 mov	 eax, DWORD PTR [ecx]

; 85   : 		}

  00002	c3		 ret	 0
??D?$_Vector_const_iterator@V?$_Vector_val@VioHashString@@V?$allocator@VioHashString@@@std@@@std@@@std@@QBEABVioHashString@@XZ ENDP ; std::_Vector_const_iterator<std::_Vector_val<ioHashString,std::allocator<ioHashString> > >::operator*
_TEXT	ENDS
PUBLIC	??E?$_Vector_const_iterator@V?$_Vector_val@VioHashString@@V?$allocator@VioHashString@@@std@@@std@@@std@@QAEAAV01@XZ ; std::_Vector_const_iterator<std::_Vector_val<ioHashString,std::allocator<ioHashString> > >::operator++
; Function compile flags: /Ogsp
;	COMDAT ??E?$_Vector_const_iterator@V?$_Vector_val@VioHashString@@V?$allocator@VioHashString@@@std@@@std@@@std@@QAEAAV01@XZ
_TEXT	SEGMENT
??E?$_Vector_const_iterator@V?$_Vector_val@VioHashString@@V?$allocator@VioHashString@@@std@@@std@@@std@@QAEAAV01@XZ PROC ; std::_Vector_const_iterator<std::_Vector_val<ioHashString,std::allocator<ioHashString> > >::operator++, COMDAT
; _this$ = ecx

; 93   : 		{	// preincrement

  00000	8b c1		 mov	 eax, ecx

; 94   :  #if _ITERATOR_DEBUG_LEVEL == 2
; 95   : 		if (this->_Getcont() == 0
; 96   : 			|| this->_Ptr == 0
; 97   : 			|| ((_Myvec *)this->_Getcont())->_Mylast <= this->_Ptr)
; 98   : 			{	// report error
; 99   : 			_DEBUG_ERROR("vector iterator not incrementable");
; 100  : 			_SCL_SECURE_OUT_OF_RANGE;
; 101  : 			}
; 102  : 
; 103  :  #elif _ITERATOR_DEBUG_LEVEL == 1
; 104  : 		_SCL_SECURE_VALIDATE(this->_Getcont() != 0);
; 105  : 		_SCL_SECURE_VALIDATE_RANGE(
; 106  : 			this->_Ptr != 0
; 107  : 			&& this->_Ptr < ((_Myvec *)this->_Getcont())->_Mylast);
; 108  :  #endif /* _ITERATOR_DEBUG_LEVEL */
; 109  : 
; 110  : 		++this->_Ptr;

  00002	83 00 10	 add	 DWORD PTR [eax], 16	; 00000010H

; 111  : 		return (*this);
; 112  : 		}

  00005	c3		 ret	 0
??E?$_Vector_const_iterator@V?$_Vector_val@VioHashString@@V?$allocator@VioHashString@@@std@@@std@@@std@@QAEAAV01@XZ ENDP ; std::_Vector_const_iterator<std::_Vector_val<ioHashString,std::allocator<ioHashString> > >::operator++
_TEXT	ENDS
PUBLIC	??_GioHashString@@QAEPAXI@Z			; ioHashString::`scalar deleting destructor'
EXTRN	__imp_??1ioHashString@@QAE@XZ:PROC
; Function compile flags: /Ogsp
;	COMDAT ??_GioHashString@@QAEPAXI@Z
_TEXT	SEGMENT
___flags$ = 8						; size = 4
??_GioHashString@@QAEPAXI@Z PROC			; ioHashString::`scalar deleting destructor', COMDAT
; _this$ = ecx
  00000	55		 push	 ebp
  00001	8b ec		 mov	 ebp, esp
  00003	56		 push	 esi
  00004	8b f1		 mov	 esi, ecx
  00006	ff 15 00 00 00
	00		 call	 DWORD PTR __imp_??1ioHashString@@QAE@XZ
  0000c	f6 45 08 01	 test	 BYTE PTR ___flags$[ebp], 1
  00010	74 07		 je	 SHORT $LN1@scalar@2
  00012	56		 push	 esi
  00013	e8 00 00 00 00	 call	 ??3@YAXPAX@Z		; operator delete
  00018	59		 pop	 ecx
$LN1@scalar@2:
  00019	8b c6		 mov	 eax, esi
  0001b	5e		 pop	 esi
  0001c	5d		 pop	 ebp
  0001d	c2 04 00	 ret	 4
??_GioHashString@@QAEPAXI@Z ENDP			; ioHashString::`scalar deleting destructor'
_TEXT	ENDS
PUBLIC	??$_Construct@VioHashString@@ABV1@@std@@YAXPAVioHashString@@ABV1@@Z ; std::_Construct<ioHashString,ioHashString const &>
EXTRN	__imp_??0ioHashString@@QAE@ABV0@@Z:PROC
EXTRN	___CxxFrameHandler3:PROC
EXTRN	@__security_check_cookie@4:PROC
EXTRN	__EH_epilog3:PROC
EXTRN	__EH_prolog3:PROC
;	COMDAT xdata$x
; File c:\program files (x86)\microsoft visual studio 10.0\vc\include\utility
xdata$x	SEGMENT
__unwindtable$??$_Construct@VioHashString@@ABV1@@std@@YAXPAVioHashString@@ABV1@@Z DD 0ffffffffH
	DD	FLAT:__unwindfunclet$??$_Construct@VioHashString@@ABV1@@std@@YAXPAVioHashString@@ABV1@@Z$0
__ehfuncinfo$??$_Construct@VioHashString@@ABV1@@std@@YAXPAVioHashString@@ABV1@@Z DD 019930522H
	DD	01H
	DD	FLAT:__unwindtable$??$_Construct@VioHashString@@ABV1@@std@@YAXPAVioHashString@@ABV1@@Z
	DD	2 DUP(00H)
	DD	2 DUP(00H)
	DD	00H
	DD	01H
; Function compile flags: /Ogsp
; File c:\program files (x86)\microsoft visual studio 10.0\vc\include\xmemory
xdata$x	ENDS
;	COMDAT ??$_Construct@VioHashString@@ABV1@@std@@YAXPAVioHashString@@ABV1@@Z
_TEXT	SEGMENT
$T554203 = -16						; size = 4
__$EHRec$ = -12						; size = 12
__Vptr$ = 8						; size = 4
__Ptr$ = 8						; size = 4
__Val$ = 12						; size = 4
??$_Construct@VioHashString@@ABV1@@std@@YAXPAVioHashString@@ABV1@@Z PROC ; std::_Construct<ioHashString,ioHashString const &>, COMDAT

; 46   : 	{	// construct object at _Ptr with value _Val

  00000	6a 04		 push	 4
  00002	b8 00 00 00 00	 mov	 eax, __ehhandler$??$_Construct@VioHashString@@ABV1@@std@@YAXPAVioHashString@@ABV1@@Z
  00007	e8 00 00 00 00	 call	 __EH_prolog3

; 47   : 	void _FARQ *_Vptr = _Ptr;

  0000c	8b 4d 08	 mov	 ecx, DWORD PTR __Ptr$[ebp]
  0000f	89 4d 08	 mov	 DWORD PTR __Vptr$[ebp], ecx

; 48   : 	::new (_Vptr) _Ty1(_STD forward<_Ty2>(_Val));

  00012	89 4d f0	 mov	 DWORD PTR $T554203[ebp], ecx
  00015	83 65 fc 00	 and	 DWORD PTR __$EHRec$[ebp+8], 0
  00019	85 c9		 test	 ecx, ecx
  0001b	74 09		 je	 SHORT $LN3@Construct
  0001d	ff 75 0c	 push	 DWORD PTR __Val$[ebp]
  00020	ff 15 00 00 00
	00		 call	 DWORD PTR __imp_??0ioHashString@@QAE@ABV0@@Z
$LN3@Construct:

; 49   : 	}

  00026	e8 00 00 00 00	 call	 __EH_epilog3
  0002b	c3		 ret	 0
_TEXT	ENDS
;	COMDAT text$x
text$x	SEGMENT
__unwindfunclet$??$_Construct@VioHashString@@ABV1@@std@@YAXPAVioHashString@@ABV1@@Z$0:
  00000	ff 75 08	 push	 DWORD PTR __Vptr$[ebp]
  00003	ff 75 f0	 push	 DWORD PTR $T554203[ebp]
  00006	e8 00 00 00 00	 call	 ??3@YAXPAX0@Z		; operator delete
  0000b	59		 pop	 ecx
  0000c	59		 pop	 ecx
  0000d	c3		 ret	 0
__ehhandler$??$_Construct@VioHashString@@ABV1@@std@@YAXPAVioHashString@@ABV1@@Z:
  0000e	8b 54 24 08	 mov	 edx, DWORD PTR [esp+8]
  00012	8d 42 0c	 lea	 eax, DWORD PTR [edx+12]
  00015	8b 4a ec	 mov	 ecx, DWORD PTR [edx-20]
  00018	33 c8		 xor	 ecx, eax
  0001a	e8 00 00 00 00	 call	 @__security_check_cookie@4
  0001f	b8 00 00 00 00	 mov	 eax, OFFSET __ehfuncinfo$??$_Construct@VioHashString@@ABV1@@std@@YAXPAVioHashString@@ABV1@@Z
  00024	e9 00 00 00 00	 jmp	 ___CxxFrameHandler3
text$x	ENDS
??$_Construct@VioHashString@@ABV1@@std@@YAXPAVioHashString@@ABV1@@Z ENDP ; std::_Construct<ioHashString,ioHashString const &>
PUBLIC	?OnSkillStart@ioRunningAttackSkill9@@UAE_NPAVioBaseChar@@@Z ; ioRunningAttackSkill9::OnSkillStart
EXTRN	?SetCameraBuff@ioSkill@@IAEXPAVioBaseChar@@@Z:PROC ; ioSkill::SetCameraBuff
EXTRN	?OnSkillStart@ioAttackSkill@@UAE_NPAVioBaseChar@@@Z:PROC ; ioAttackSkill::OnSkillStart
; Function compile flags: /Ogsp
; File d:\lost saga for developer\youtube\tutorial\source\src\lsclient\iorunningattackskill9.cpp
;	COMDAT ?OnSkillStart@ioRunningAttackSkill9@@UAE_NPAVioBaseChar@@@Z
_TEXT	SEGMENT
_pChar$ = 8						; size = 4
?OnSkillStart@ioRunningAttackSkill9@@UAE_NPAVioBaseChar@@@Z PROC ; ioRunningAttackSkill9::OnSkillStart, COMDAT
; _this$ = ecx

; 116  : {

  00000	55		 push	 ebp
  00001	8b ec		 mov	 ebp, esp
  00003	53		 push	 ebx
  00004	56		 push	 esi
  00005	8b f1		 mov	 esi, ecx

; 117  : 	m_bSetHandMesh = false;

  00007	33 db		 xor	 ebx, ebx
  00009	57		 push	 edi
  0000a	88 9e 0a 0f 00
	00		 mov	 BYTE PTR [esi+3850], bl

; 118  : 
; 119  : 	Init();

  00010	e8 00 00 00 00	 call	 ?Init@ioRunningAttackSkill9@@IAEXXZ ; ioRunningAttackSkill9::Init

; 120  : 
; 121  : 	if( m_dwSkillProtectTime > 0 )

  00015	39 9e e4 10 00
	00		 cmp	 DWORD PTR [esi+4324], ebx
  0001b	76 1a		 jbe	 SHORT $LN3@OnSkillSta

; 122  : 		m_dwCurSkillProtectTime = FRAMEGETTIME() + m_dwSkillProtectTime;

  0001d	ff 15 00 00 00
	00		 call	 DWORD PTR __imp_?GetSingleton@ioFrameTimer@@SAAAV1@XZ
  00023	8b c8		 mov	 ecx, eax
  00025	ff 15 00 00 00
	00		 call	 DWORD PTR __imp_?GetLoopSec@ioFrameTimer@@QBEKXZ
  0002b	03 86 e4 10 00
	00		 add	 eax, DWORD PTR [esi+4324]
  00031	89 86 8c 11 00
	00		 mov	 DWORD PTR [esi+4492], eax
$LN3@OnSkillSta:

; 123  : 
; 124  : 	if( !ioAttackSkill::OnSkillStart( pChar ) )

  00037	ff 75 08	 push	 DWORD PTR _pChar$[ebp]
  0003a	8b ce		 mov	 ecx, esi
  0003c	e8 00 00 00 00	 call	 ?OnSkillStart@ioAttackSkill@@UAE_NPAVioBaseChar@@@Z ; ioAttackSkill::OnSkillStart
  00041	84 c0		 test	 al, al
  00043	74 1e		 je	 SHORT $LN4@OnSkillSta
$LN2@OnSkillSta:

; 125  : 		return false;
; 126  : 	
; 127  : 	if( m_bUseItemMesh )

  00045	38 9e 08 0f 00
	00		 cmp	 BYTE PTR [esi+3848], bl
  0004b	74 0a		 je	 SHORT $LN1@OnSkillSta

; 128  : 		pChar->ShowWeaponItemMesh( false );

  0004d	8b 4d 08	 mov	 ecx, DWORD PTR _pChar$[ebp]
  00050	53		 push	 ebx
  00051	53		 push	 ebx
  00052	e8 00 00 00 00	 call	 ?ShowWeaponItemMesh@ioBaseChar@@QAEX_N0@Z ; ioBaseChar::ShowWeaponItemMesh
$LN1@OnSkillSta:

; 129  : 	
; 130  : 	SetCameraBuff( pChar );

  00057	ff 75 08	 push	 DWORD PTR _pChar$[ebp]
  0005a	8b ce		 mov	 ecx, esi
  0005c	e8 00 00 00 00	 call	 ?SetCameraBuff@ioSkill@@IAEXPAVioBaseChar@@@Z ; ioSkill::SetCameraBuff

; 131  : 
; 132  : 	return true;

  00061	b0 01		 mov	 al, 1
$LN4@OnSkillSta:
  00063	5f		 pop	 edi
  00064	5e		 pop	 esi
  00065	5b		 pop	 ebx

; 133  : }

  00066	5d		 pop	 ebp
  00067	c2 04 00	 ret	 4
?OnSkillStart@ioRunningAttackSkill9@@UAE_NPAVioBaseChar@@@Z ENDP ; ioRunningAttackSkill9::OnSkillStart
_TEXT	ENDS
PUBLIC	__real@bf800000
PUBLIC	__$ArrayPad$
PUBLIC	?ApplyAttributeToWeapon@ioRunningAttackSkill9@@UAEXPAVioWeapon@@PAVioPlayStage@@@Z ; ioRunningAttackSkill9::ApplyAttributeToWeapon
EXTRN	?SetZoneValue@ioZoneEffectWeapon@@QAEX_N0@Z:PROC ; ioZoneEffectWeapon::SetZoneValue
EXTRN	?SetCollisionDir@ioZoneEffectWeapon@@QAEXAAUD3DXVECTOR3@@@Z:PROC ; ioZoneEffectWeapon::SetCollisionDir
EXTRN	__imp_??D@YA?AUD3DXVECTOR3@@ABUD3DXQUATERNION@@ABU0@@Z:PROC
EXTRN	?GetOwner@ioWeapon@@QBEPAVioBaseChar@@XZ:PROC	; ioWeapon::GetOwner
EXTRN	?ApplyAttributeToWeapon@ioSkill@@UAEXPAVioWeapon@@PAVioPlayStage@@@Z:PROC ; ioSkill::ApplyAttributeToWeapon
EXTRN	___security_cookie:DWORD
;	COMDAT __real@bf800000
; File d:\lost saga for developer\youtube\tutorial\source\src\lsclient\iobasechar.h
CONST	SEGMENT
__real@bf800000 DD 0bf800000r			; -1
; Function compile flags: /Ogsp
; File d:\lost saga for developer\youtube\tutorial\source\src\lsclient\iorunningattackskill9.cpp
CONST	ENDS
;	COMDAT ?ApplyAttributeToWeapon@ioRunningAttackSkill9@@UAEXPAVioWeapon@@PAVioPlayStage@@@Z
_TEXT	SEGMENT
_vDir$549607 = -28					; size = 12
$T549608 = -16						; size = 12
__$ArrayPad$ = -4					; size = 4
_pWeapon$ = 8						; size = 4
_pStage$ = 12						; size = 4
?ApplyAttributeToWeapon@ioRunningAttackSkill9@@UAEXPAVioWeapon@@PAVioPlayStage@@@Z PROC ; ioRunningAttackSkill9::ApplyAttributeToWeapon, COMDAT
; _this$ = ecx

; 308  : {

  00000	55		 push	 ebp
  00001	8b ec		 mov	 ebp, esp
  00003	83 ec 1c	 sub	 esp, 28			; 0000001cH
  00006	a1 00 00 00 00	 mov	 eax, DWORD PTR ___security_cookie
  0000b	33 c5		 xor	 eax, ebp
  0000d	89 45 fc	 mov	 DWORD PTR __$ArrayPad$[ebp], eax
  00010	8b 45 0c	 mov	 eax, DWORD PTR _pStage$[ebp]
  00013	56		 push	 esi
  00014	8b 75 08	 mov	 esi, DWORD PTR _pWeapon$[ebp]

; 309  : 	ioSkill::ApplyAttributeToWeapon( pWeapon, pStage );

  00017	50		 push	 eax
  00018	56		 push	 esi
  00019	e8 00 00 00 00	 call	 ?ApplyAttributeToWeapon@ioSkill@@UAEXPAVioWeapon@@PAVioPlayStage@@@Z ; ioSkill::ApplyAttributeToWeapon

; 310  : 
; 311  : 	ioZoneEffectWeapon *pZone = ToZoneEffectWeapon( pWeapon );

  0001e	56		 push	 esi
  0001f	e8 00 00 00 00	 call	 ?ToZoneEffectWeapon@@YAPAVioZoneEffectWeapon@@PAVioWeapon@@@Z ; ToZoneEffectWeapon
  00024	8b f0		 mov	 esi, eax
  00026	59		 pop	 ecx

; 312  : 	if( pZone )

  00027	85 f6		 test	 esi, esi
  00029	74 52		 je	 SHORT $LN1@ApplyAttri

; 313  : 	{
; 314  : 		ioBaseChar *pChar = pZone->GetOwner();

  0002b	8b ce		 mov	 ecx, esi
  0002d	e8 00 00 00 00	 call	 ?GetOwner@ioWeapon@@QBEPAVioBaseChar@@XZ ; ioWeapon::GetOwner

; 315  : 		if( pChar )

  00032	85 c0		 test	 eax, eax
  00034	74 47		 je	 SHORT $LN1@ApplyAttri

; 316  : 		{
; 317  : 			D3DXVECTOR3 vDir = pChar->GetTargetRot() * D3DXVECTOR3( 0.0f, 0.0f, -1.0f );

  00036	0f 57 c0	 xorps	 xmm0, xmm0
  00039	8d 4d f0	 lea	 ecx, DWORD PTR $T549608[ebp]
  0003c	51		 push	 ecx
  0003d	05 a4 06 00 00	 add	 eax, 1700		; 000006a4H
  00042	50		 push	 eax
  00043	8d 45 e4	 lea	 eax, DWORD PTR _vDir$549607[ebp]
  00046	f3 0f 11 45 f0	 movss	 DWORD PTR $T549608[ebp], xmm0
  0004b	f3 0f 11 45 f4	 movss	 DWORD PTR $T549608[ebp+4], xmm0
  00050	f3 0f 10 05 00
	00 00 00	 movss	 xmm0, DWORD PTR __real@bf800000
  00058	50		 push	 eax
  00059	f3 0f 11 45 f8	 movss	 DWORD PTR $T549608[ebp+8], xmm0
  0005e	ff 15 00 00 00
	00		 call	 DWORD PTR __imp_??D@YA?AUD3DXVECTOR3@@ABUD3DXQUATERNION@@ABU0@@Z
  00064	83 c4 0c	 add	 esp, 12			; 0000000cH

; 318  : 			pZone->SetCollisionDir( vDir );

  00067	8d 45 e4	 lea	 eax, DWORD PTR _vDir$549607[ebp]
  0006a	50		 push	 eax
  0006b	8b ce		 mov	 ecx, esi
  0006d	e8 00 00 00 00	 call	 ?SetCollisionDir@ioZoneEffectWeapon@@QAEXAAUD3DXVECTOR3@@@Z ; ioZoneEffectWeapon::SetCollisionDir

; 319  : 			pZone->SetZoneValue( false, true );

  00072	6a 01		 push	 1
  00074	6a 00		 push	 0
  00076	8b ce		 mov	 ecx, esi
  00078	e8 00 00 00 00	 call	 ?SetZoneValue@ioZoneEffectWeapon@@QAEX_N0@Z ; ioZoneEffectWeapon::SetZoneValue
$LN1@ApplyAttri:

; 320  : 		}
; 321  : 	}
; 322  : }

  0007d	8b 4d fc	 mov	 ecx, DWORD PTR __$ArrayPad$[ebp]
  00080	33 cd		 xor	 ecx, ebp
  00082	5e		 pop	 esi
  00083	e8 00 00 00 00	 call	 @__security_check_cookie@4
  00088	c9		 leave
  00089	c2 08 00	 ret	 8
?ApplyAttributeToWeapon@ioRunningAttackSkill9@@UAEXPAVioWeapon@@PAVioPlayStage@@@Z ENDP ; ioRunningAttackSkill9::ApplyAttributeToWeapon
_TEXT	ENDS
PUBLIC	__real@3f800000
PUBLIC	__real@3ff0000000000000
PUBLIC	__real@42c80000
PUBLIC	?SetRunningNormalLoopState@ioRunningAttackSkill9@@IAEXPAVioBaseChar@@@Z ; ioRunningAttackSkill9::SetRunningNormalLoopState
EXTRN	__imp_?SetLoopAni@ioEntityGroup@@QAE_NHMMMM@Z:PROC
EXTRN	__imp_?ClearAllLoopAni@ioEntityGroup@@QAEXM_N@Z:PROC
EXTRN	__imp_?ClearAllActionAni@ioEntityGroup@@QAEXM_N@Z:PROC
EXTRN	__imp_?GetAnimationIdx@ioEntityGroup@@QAEHABVioHashString@@@Z:PROC
;	COMDAT __real@3f800000
; File d:\lost saga for developer\youtube\tutorial\source\src\lsclient\iogameentity.h
CONST	SEGMENT
__real@3f800000 DD 03f800000r			; 1
CONST	ENDS
;	COMDAT __real@3ff0000000000000
CONST	SEGMENT
__real@3ff0000000000000 DQ 03ff0000000000000r	; 1
CONST	ENDS
;	COMDAT __real@42c80000
CONST	SEGMENT
__real@42c80000 DD 042c80000r			; 100
; Function compile flags: /Ogsp
; File d:\lost saga for developer\youtube\tutorial\source\src\lsclient\iorunningattackskill9.cpp
CONST	ENDS
;	COMDAT ?SetRunningNormalLoopState@ioRunningAttackSkill9@@IAEXPAVioBaseChar@@@Z
_TEXT	SEGMENT
_fTimeRate$ = 8						; size = 4
_pChar$ = 8						; size = 4
?SetRunningNormalLoopState@ioRunningAttackSkill9@@IAEXPAVioBaseChar@@@Z PROC ; ioRunningAttackSkill9::SetRunningNormalLoopState, COMDAT
; _this$ = ecx

; 496  : {

  00000	55		 push	 ebp
  00001	8b ec		 mov	 ebp, esp

; 497  : 	if ( !pChar )

  00003	8b 45 08	 mov	 eax, DWORD PTR _pChar$[ebp]
  00006	56		 push	 esi
  00007	8b f1		 mov	 esi, ecx
  00009	85 c0		 test	 eax, eax
  0000b	0f 84 b6 00 00
	00		 je	 $LN3@SetRunning

; 498  : 		return;
; 499  : 	
; 500  : 	ioEntityGroup *pGrp = pChar->GetGroup();

  00011	53		 push	 ebx
  00012	57		 push	 edi
  00013	8b 78 04	 mov	 edi, DWORD PTR [eax+4]

; 501  : 	int iAniID = pGrp->GetAnimationIdx( m_szRunLoopAni );

  00016	8d 86 fc 10 00
	00		 lea	 eax, DWORD PTR [esi+4348]
  0001c	50		 push	 eax
  0001d	8b cf		 mov	 ecx, edi
  0001f	ff 15 00 00 00
	00		 call	 DWORD PTR __imp_?GetAnimationIdx@ioEntityGroup@@QAEHABVioHashString@@@Z
  00025	8b d8		 mov	 ebx, eax

; 502  : 	if ( iAniID == -1 )

  00027	83 fb ff	 cmp	 ebx, -1
  0002a	0f 84 95 00 00
	00		 je	 $LN7@SetRunning

; 503  : 		return;
; 504  : 
; 505  : 	float fTimeRate = m_fRunLoopAniRate;

  00030	f3 0f 10 86 0c
	11 00 00	 movss	 xmm0, DWORD PTR [esi+4364]

; 506  : 
; 507  : 	pGrp->ClearAllActionAni( 100.0f, true );

  00038	6a 01		 push	 1
  0003a	51		 push	 ecx
  0003b	f3 0f 11 45 08	 movss	 DWORD PTR _fTimeRate$[ebp], xmm0
  00040	f3 0f 10 05 00
	00 00 00	 movss	 xmm0, DWORD PTR __real@42c80000
  00048	8b cf		 mov	 ecx, edi
  0004a	f3 0f 11 04 24	 movss	 DWORD PTR [esp], xmm0
  0004f	ff 15 00 00 00
	00		 call	 DWORD PTR __imp_?ClearAllActionAni@ioEntityGroup@@QAEXM_N@Z

; 508  : 	pGrp->ClearAllLoopAni( 100.0f, true );

  00055	f3 0f 10 05 00
	00 00 00	 movss	 xmm0, DWORD PTR __real@42c80000
  0005d	6a 01		 push	 1
  0005f	51		 push	 ecx
  00060	8b cf		 mov	 ecx, edi
  00062	f3 0f 11 04 24	 movss	 DWORD PTR [esp], xmm0
  00067	ff 15 00 00 00
	00		 call	 DWORD PTR __imp_?ClearAllLoopAni@ioEntityGroup@@QAEXM_N@Z

; 509  : 
; 510  : 	pGrp->SetLoopAni( iAniID, 100.0f, 1.0f, 1.0f/fTimeRate );

  0006d	0f 57 c0	 xorps	 xmm0, xmm0
  00070	f2 0f 10 0d 00
	00 00 00	 movsd	 xmm1, QWORD PTR __real@3ff0000000000000
  00078	83 ec 10	 sub	 esp, 16			; 00000010H
  0007b	f3 0f 11 44 24
	0c		 movss	 DWORD PTR [esp+12], xmm0
  00081	f3 0f 10 45 08	 movss	 xmm0, DWORD PTR _fTimeRate$[ebp]
  00086	0f 5a c0	 cvtps2pd xmm0, xmm0
  00089	f2 0f 5e c8	 divsd	 xmm1, xmm0
  0008d	8b cf		 mov	 ecx, edi
  0008f	66 0f 5a c1	 cvtpd2ps xmm0, xmm1
  00093	f3 0f 11 44 24
	08		 movss	 DWORD PTR [esp+8], xmm0
  00099	f3 0f 10 05 00
	00 00 00	 movss	 xmm0, DWORD PTR __real@3f800000
  000a1	f3 0f 11 44 24
	04		 movss	 DWORD PTR [esp+4], xmm0
  000a7	f3 0f 10 05 00
	00 00 00	 movss	 xmm0, DWORD PTR __real@42c80000
  000af	f3 0f 11 04 24	 movss	 DWORD PTR [esp], xmm0
  000b4	53		 push	 ebx
  000b5	ff 15 00 00 00
	00		 call	 DWORD PTR __imp_?SetLoopAni@ioEntityGroup@@QAE_NHMMMM@Z

; 511  : 	
; 512  : 	m_SkillState = SS_Run_Normal_Loop;

  000bb	c7 86 88 11 00
	00 02 00 00 00	 mov	 DWORD PTR [esi+4488], 2
$LN7@SetRunning:
  000c5	5f		 pop	 edi
  000c6	5b		 pop	 ebx
$LN3@SetRunning:
  000c7	5e		 pop	 esi

; 513  : }

  000c8	5d		 pop	 ebp
  000c9	c2 04 00	 ret	 4
?SetRunningNormalLoopState@ioRunningAttackSkill9@@IAEXPAVioBaseChar@@@Z ENDP ; ioRunningAttackSkill9::SetRunningNormalLoopState
_TEXT	ENDS
PUBLIC	__$ArrayPad$
PUBLIC	?SetRunningChargeLoopState@ioRunningAttackSkill9@@IAEXPAVioBaseChar@@@Z ; ioRunningAttackSkill9::SetRunningChargeLoopState
EXTRN	??1SP2Packet@@UAE@XZ:PROC			; SP2Packet::~SP2Packet
EXTRN	?SendToAllPlayingUser@P2PNetwork@@YAXAAVSP2Packet@@PAVioBaseChar@@@Z:PROC ; P2PNetwork::SendToAllPlayingUser
EXTRN	??6SP2Packet@@QAEAAV0@ABUD3DXVECTOR3@@@Z:PROC	; SP2Packet::operator<<
EXTRN	??6SP2Packet@@QAEAAV0@ABUD3DXQUATERNION@@@Z:PROC ; SP2Packet::operator<<
EXTRN	??6SP2Packet@@QAEAAV0@H@Z:PROC			; SP2Packet::operator<<
EXTRN	??6SP2Packet@@QAEAAV0@ABVioHashString@@@Z:PROC	; SP2Packet::operator<<
EXTRN	??0SP2Packet@@QAE@K@Z:PROC			; SP2Packet::SP2Packet
EXTRN	__chkstk:PROC
;	COMDAT xdata$x
; File d:\lost saga for developer\youtube\tutorial\source\src\lsclient\ioskill.h
xdata$x	SEGMENT
__unwindtable$?SetRunningChargeLoopState@ioRunningAttackSkill9@@IAEXPAVioBaseChar@@@Z DD 0ffffffffH
	DD	FLAT:__unwindfunclet$?SetRunningChargeLoopState@ioRunningAttackSkill9@@IAEXPAVioBaseChar@@@Z$0
__ehfuncinfo$?SetRunningChargeLoopState@ioRunningAttackSkill9@@IAEXPAVioBaseChar@@@Z DD 019930522H
	DD	01H
	DD	FLAT:__unwindtable$?SetRunningChargeLoopState@ioRunningAttackSkill9@@IAEXPAVioBaseChar@@@Z
	DD	2 DUP(00H)
	DD	2 DUP(00H)
	DD	00H
	DD	01H
; Function compile flags: /Ogsp
; File d:\lost saga for developer\youtube\tutorial\source\src\lsclient\iorunningattackskill9.cpp
xdata$x	ENDS
;	COMDAT ?SetRunningChargeLoopState@ioRunningAttackSkill9@@IAEXPAVioBaseChar@@@Z
_TEXT	SEGMENT
_kPacket$549702 = -32808				; size = 32792
__$ArrayPad$ = -16					; size = 4
__$EHRec$ = -12						; size = 12
_pChar$ = 8						; size = 4
?SetRunningChargeLoopState@ioRunningAttackSkill9@@IAEXPAVioBaseChar@@@Z PROC ; ioRunningAttackSkill9::SetRunningChargeLoopState, COMDAT
; _this$ = ecx

; 516  : {

  00000	55		 push	 ebp
  00001	8b ec		 mov	 ebp, esp
  00003	6a ff		 push	 -1
  00005	68 00 00 00 00	 push	 __ehhandler$?SetRunningChargeLoopState@ioRunningAttackSkill9@@IAEXPAVioBaseChar@@@Z
  0000a	64 a1 00 00 00
	00		 mov	 eax, DWORD PTR fs:0
  00010	50		 push	 eax
  00011	b8 1c 80 00 00	 mov	 eax, 32796		; 0000801cH
  00016	e8 00 00 00 00	 call	 __chkstk
  0001b	a1 00 00 00 00	 mov	 eax, DWORD PTR ___security_cookie
  00020	33 c5		 xor	 eax, ebp
  00022	89 45 f0	 mov	 DWORD PTR __$ArrayPad$[ebp], eax
  00025	56		 push	 esi
  00026	57		 push	 edi
  00027	50		 push	 eax
  00028	8d 45 f4	 lea	 eax, DWORD PTR __$EHRec$[ebp]
  0002b	64 a3 00 00 00
	00		 mov	 DWORD PTR fs:0, eax
  00031	8b 75 08	 mov	 esi, DWORD PTR _pChar$[ebp]
  00034	8b f9		 mov	 edi, ecx

; 517  : 	if ( !pChar )

  00036	85 f6		 test	 esi, esi
  00038	0f 84 c5 00 00
	00		 je	 $LN1@SetRunning@2

; 518  : 		return;
; 519  : 	
; 520  : 	DWORD dwCurTime = FRAMEGETTIME();

  0003e	ff 15 00 00 00
	00		 call	 DWORD PTR __imp_?GetSingleton@ioFrameTimer@@SAAAV1@XZ
  00044	8b c8		 mov	 ecx, eax
  00046	ff 15 00 00 00
	00		 call	 DWORD PTR __imp_?GetLoopSec@ioFrameTimer@@QBEKXZ

; 521  : 	m_SkillState = SS_Run_Charge_Loop;
; 522  : 	m_dwCheckJumpTime = 0;

  0004c	83 a7 9c 11 00
	00 00		 and	 DWORD PTR [edi+4508], 0

; 523  : 	m_dwCheckAreaWeaponTime = 0;

  00053	83 a7 ac 11 00
	00 00		 and	 DWORD PTR [edi+4524], 0
  0005a	c7 87 88 11 00
	00 03 00 00 00	 mov	 DWORD PTR [edi+4488], 3

; 524  : 	m_dwCheckMaxChargeTime = dwCurTime;

  00064	89 87 98 11 00
	00		 mov	 DWORD PTR [edi+4504], eax

; 525  : 
; 526  : 	if( pChar->IsNeedSendNetwork() )

  0006a	8b 06		 mov	 eax, DWORD PTR [esi]
  0006c	8b ce		 mov	 ecx, esi
  0006e	ff 90 04 01 00
	00		 call	 DWORD PTR [eax+260]
  00074	84 c0		 test	 al, al
  00076	0f 84 87 00 00
	00		 je	 $LN1@SetRunning@2

; 527  : 	{
; 528  : 		SP2Packet kPacket( CUPK_SKILL_EXTRA_INFO );

  0007c	68 39 41 00 00	 push	 16697			; 00004139H
  00081	8d 8d d8 7f ff
	ff		 lea	 ecx, DWORD PTR _kPacket$549702[ebp]
  00087	e8 00 00 00 00	 call	 ??0SP2Packet@@QAE@K@Z	; SP2Packet::SP2Packet
  0008c	83 65 fc 00	 and	 DWORD PTR __$EHRec$[ebp+8], 0

; 529  : 		kPacket << pChar->GetCharName();

  00090	8d 86 d4 02 00
	00		 lea	 eax, DWORD PTR [esi+724]
  00096	50		 push	 eax
  00097	8d 8d d8 7f ff
	ff		 lea	 ecx, DWORD PTR _kPacket$549702[ebp]
  0009d	e8 00 00 00 00	 call	 ??6SP2Packet@@QAEAAV0@ABVioHashString@@@Z ; SP2Packet::operator<<

; 530  : 		kPacket << GetName();

  000a2	83 c7 24	 add	 edi, 36			; 00000024H
  000a5	57		 push	 edi
  000a6	8d 8d d8 7f ff
	ff		 lea	 ecx, DWORD PTR _kPacket$549702[ebp]
  000ac	e8 00 00 00 00	 call	 ??6SP2Packet@@QAEAAV0@ABVioHashString@@@Z ; SP2Packet::operator<<

; 531  : 		kPacket << SS_Run_Charge_Loop;

  000b1	6a 03		 push	 3
  000b3	8d 8d d8 7f ff
	ff		 lea	 ecx, DWORD PTR _kPacket$549702[ebp]
  000b9	e8 00 00 00 00	 call	 ??6SP2Packet@@QAEAAV0@H@Z ; SP2Packet::operator<<

; 532  : 		kPacket << pChar->GetWorldOrientation();

  000be	8b 06		 mov	 eax, DWORD PTR [esi]
  000c0	8b ce		 mov	 ecx, esi
  000c2	ff 50 74	 call	 DWORD PTR [eax+116]
  000c5	50		 push	 eax
  000c6	8d 8d d8 7f ff
	ff		 lea	 ecx, DWORD PTR _kPacket$549702[ebp]
  000cc	e8 00 00 00 00	 call	 ??6SP2Packet@@QAEAAV0@ABUD3DXQUATERNION@@@Z ; SP2Packet::operator<<

; 533  : 		kPacket << pChar->GetWorldPosition();

  000d1	8b 06		 mov	 eax, DWORD PTR [esi]
  000d3	8b ce		 mov	 ecx, esi
  000d5	ff 50 70	 call	 DWORD PTR [eax+112]
  000d8	50		 push	 eax
  000d9	8d 8d d8 7f ff
	ff		 lea	 ecx, DWORD PTR _kPacket$549702[ebp]
  000df	e8 00 00 00 00	 call	 ??6SP2Packet@@QAEAAV0@ABUD3DXVECTOR3@@@Z ; SP2Packet::operator<<

; 534  : 		P2PNetwork::SendToAllPlayingUser( kPacket );

  000e4	8d 85 d8 7f ff
	ff		 lea	 eax, DWORD PTR _kPacket$549702[ebp]
  000ea	6a 00		 push	 0
  000ec	50		 push	 eax
  000ed	e8 00 00 00 00	 call	 ?SendToAllPlayingUser@P2PNetwork@@YAXAAVSP2Packet@@PAVioBaseChar@@@Z ; P2PNetwork::SendToAllPlayingUser

; 535  : 	}

  000f2	83 4d fc ff	 or	 DWORD PTR __$EHRec$[ebp+8], -1
  000f6	59		 pop	 ecx
  000f7	59		 pop	 ecx
  000f8	8d 8d d8 7f ff
	ff		 lea	 ecx, DWORD PTR _kPacket$549702[ebp]
  000fe	e8 00 00 00 00	 call	 ??1SP2Packet@@UAE@XZ	; SP2Packet::~SP2Packet
$LN1@SetRunning@2:

; 536  : }

  00103	8b 4d f4	 mov	 ecx, DWORD PTR __$EHRec$[ebp]
  00106	64 89 0d 00 00
	00 00		 mov	 DWORD PTR fs:0, ecx
  0010d	59		 pop	 ecx
  0010e	5f		 pop	 edi
  0010f	5e		 pop	 esi
  00110	8b 4d f0	 mov	 ecx, DWORD PTR __$ArrayPad$[ebp]
  00113	33 cd		 xor	 ecx, ebp
  00115	e8 00 00 00 00	 call	 @__security_check_cookie@4
  0011a	c9		 leave
  0011b	c2 04 00	 ret	 4
_TEXT	ENDS
;	COMDAT text$x
text$x	SEGMENT
__unwindfunclet$?SetRunningChargeLoopState@ioRunningAttackSkill9@@IAEXPAVioBaseChar@@@Z$0:
  00000	8d 8d d8 7f ff
	ff		 lea	 ecx, DWORD PTR _kPacket$549702[ebp]
  00006	e9 00 00 00 00	 jmp	 ??1SP2Packet@@UAE@XZ	; SP2Packet::~SP2Packet
__ehhandler$?SetRunningChargeLoopState@ioRunningAttackSkill9@@IAEXPAVioBaseChar@@@Z:
  0000b	8b 54 24 08	 mov	 edx, DWORD PTR [esp+8]
  0000f	8d 42 0c	 lea	 eax, DWORD PTR [edx+12]
  00012	8b 8a d8 7f ff
	ff		 mov	 ecx, DWORD PTR [edx-32808]
  00018	33 c8		 xor	 ecx, eax
  0001a	e8 00 00 00 00	 call	 @__security_check_cookie@4
  0001f	8b 4a fc	 mov	 ecx, DWORD PTR [edx-4]
  00022	33 c8		 xor	 ecx, eax
  00024	e8 00 00 00 00	 call	 @__security_check_cookie@4
  00029	b8 00 00 00 00	 mov	 eax, OFFSET __ehfuncinfo$?SetRunningChargeLoopState@ioRunningAttackSkill9@@IAEXPAVioBaseChar@@@Z
  0002e	e9 00 00 00 00	 jmp	 ___CxxFrameHandler3
text$x	ENDS
?SetRunningChargeLoopState@ioRunningAttackSkill9@@IAEXPAVioBaseChar@@@Z ENDP ; ioRunningAttackSkill9::SetRunningChargeLoopState
PUBLIC	__$ArrayPad$
PUBLIC	?SetRunningChargeEndState@ioRunningAttackSkill9@@IAEXPAVioBaseChar@@@Z ; ioRunningAttackSkill9::SetRunningChargeEndState
;	COMDAT xdata$x
; File d:\lost saga for developer\youtube\tutorial\source\src\lsclient\ioskill.h
xdata$x	SEGMENT
__unwindtable$?SetRunningChargeEndState@ioRunningAttackSkill9@@IAEXPAVioBaseChar@@@Z DD 0ffffffffH
	DD	FLAT:__unwindfunclet$?SetRunningChargeEndState@ioRunningAttackSkill9@@IAEXPAVioBaseChar@@@Z$0
__ehfuncinfo$?SetRunningChargeEndState@ioRunningAttackSkill9@@IAEXPAVioBaseChar@@@Z DD 019930522H
	DD	01H
	DD	FLAT:__unwindtable$?SetRunningChargeEndState@ioRunningAttackSkill9@@IAEXPAVioBaseChar@@@Z
	DD	2 DUP(00H)
	DD	2 DUP(00H)
	DD	00H
	DD	01H
; Function compile flags: /Ogsp
; File d:\lost saga for developer\youtube\tutorial\source\src\lsclient\iorunningattackskill9.cpp
xdata$x	ENDS
;	COMDAT ?SetRunningChargeEndState@ioRunningAttackSkill9@@IAEXPAVioBaseChar@@@Z
_TEXT	SEGMENT
_fTimeRate$ = -32816					; size = 4
_iAniID$ = -32812					; size = 4
_kPacket$549713 = -32808				; size = 32792
__$ArrayPad$ = -16					; size = 4
__$EHRec$ = -12						; size = 12
_pChar$ = 8						; size = 4
?SetRunningChargeEndState@ioRunningAttackSkill9@@IAEXPAVioBaseChar@@@Z PROC ; ioRunningAttackSkill9::SetRunningChargeEndState, COMDAT
; _this$ = ecx

; 539  : {

  00000	55		 push	 ebp
  00001	8b ec		 mov	 ebp, esp
  00003	6a ff		 push	 -1
  00005	68 00 00 00 00	 push	 __ehhandler$?SetRunningChargeEndState@ioRunningAttackSkill9@@IAEXPAVioBaseChar@@@Z
  0000a	64 a1 00 00 00
	00		 mov	 eax, DWORD PTR fs:0
  00010	50		 push	 eax
  00011	b8 24 80 00 00	 mov	 eax, 32804		; 00008024H
  00016	e8 00 00 00 00	 call	 __chkstk
  0001b	a1 00 00 00 00	 mov	 eax, DWORD PTR ___security_cookie
  00020	33 c5		 xor	 eax, ebp
  00022	89 45 f0	 mov	 DWORD PTR __$ArrayPad$[ebp], eax
  00025	53		 push	 ebx
  00026	56		 push	 esi
  00027	57		 push	 edi
  00028	50		 push	 eax
  00029	8d 45 f4	 lea	 eax, DWORD PTR __$EHRec$[ebp]
  0002c	64 a3 00 00 00
	00		 mov	 DWORD PTR fs:0, eax
  00032	8b 75 08	 mov	 esi, DWORD PTR _pChar$[ebp]
  00035	8b f9		 mov	 edi, ecx

; 540  : 	if ( !pChar )

  00037	85 f6		 test	 esi, esi
  00039	0f 84 6c 01 00
	00		 je	 $LN1@SetRunning@3

; 541  : 		return;
; 542  : 
; 543  : 	ioEntityGroup *pGrp = pChar->GetGroup();

  0003f	8b 5e 04	 mov	 ebx, DWORD PTR [esi+4]

; 544  : 	int iAniID = pGrp->GetAnimationIdx( m_szRunChargeEndLoopAni );

  00042	8d 87 10 11 00
	00		 lea	 eax, DWORD PTR [edi+4368]
  00048	50		 push	 eax
  00049	8b cb		 mov	 ecx, ebx
  0004b	ff 15 00 00 00
	00		 call	 DWORD PTR __imp_?GetAnimationIdx@ioEntityGroup@@QAEHABVioHashString@@@Z
  00051	89 85 d4 7f ff
	ff		 mov	 DWORD PTR _iAniID$[ebp], eax

; 545  : 	if ( iAniID == -1 )

  00057	83 f8 ff	 cmp	 eax, -1
  0005a	0f 84 4b 01 00
	00		 je	 $LN1@SetRunning@3

; 546  : 		return;
; 547  : 
; 548  : 	float fTimeRate = m_fRunChargeEndLoopAniRate;

  00060	f3 0f 10 87 20
	11 00 00	 movss	 xmm0, DWORD PTR [edi+4384]

; 549  : 
; 550  : 	pGrp->ClearAllActionAni( 100.0f, true );

  00068	6a 01		 push	 1
  0006a	51		 push	 ecx
  0006b	f3 0f 11 85 d0
	7f ff ff	 movss	 DWORD PTR _fTimeRate$[ebp], xmm0
  00073	f3 0f 10 05 00
	00 00 00	 movss	 xmm0, DWORD PTR __real@42c80000
  0007b	8b cb		 mov	 ecx, ebx
  0007d	f3 0f 11 04 24	 movss	 DWORD PTR [esp], xmm0
  00082	ff 15 00 00 00
	00		 call	 DWORD PTR __imp_?ClearAllActionAni@ioEntityGroup@@QAEXM_N@Z

; 551  : 	pGrp->ClearAllLoopAni( 100.0f, true );

  00088	f3 0f 10 05 00
	00 00 00	 movss	 xmm0, DWORD PTR __real@42c80000
  00090	6a 01		 push	 1
  00092	51		 push	 ecx
  00093	8b cb		 mov	 ecx, ebx
  00095	f3 0f 11 04 24	 movss	 DWORD PTR [esp], xmm0
  0009a	ff 15 00 00 00
	00		 call	 DWORD PTR __imp_?ClearAllLoopAni@ioEntityGroup@@QAEXM_N@Z

; 552  : 
; 553  : 	pGrp->SetLoopAni( iAniID, 100.0f, 1.0f, 1.0f/fTimeRate );

  000a0	0f 57 c0	 xorps	 xmm0, xmm0
  000a3	f2 0f 10 0d 00
	00 00 00	 movsd	 xmm1, QWORD PTR __real@3ff0000000000000
  000ab	83 ec 10	 sub	 esp, 16			; 00000010H
  000ae	f3 0f 11 44 24
	0c		 movss	 DWORD PTR [esp+12], xmm0
  000b4	f3 0f 10 85 d0
	7f ff ff	 movss	 xmm0, DWORD PTR _fTimeRate$[ebp]
  000bc	0f 5a c0	 cvtps2pd xmm0, xmm0
  000bf	f2 0f 5e c8	 divsd	 xmm1, xmm0
  000c3	8b cb		 mov	 ecx, ebx
  000c5	66 0f 5a c1	 cvtpd2ps xmm0, xmm1
  000c9	f3 0f 11 44 24
	08		 movss	 DWORD PTR [esp+8], xmm0
  000cf	f3 0f 10 05 00
	00 00 00	 movss	 xmm0, DWORD PTR __real@3f800000
  000d7	f3 0f 11 44 24
	04		 movss	 DWORD PTR [esp+4], xmm0
  000dd	f3 0f 10 05 00
	00 00 00	 movss	 xmm0, DWORD PTR __real@42c80000
  000e5	f3 0f 11 04 24	 movss	 DWORD PTR [esp], xmm0
  000ea	ff b5 d4 7f ff
	ff		 push	 DWORD PTR _iAniID$[ebp]
  000f0	ff 15 00 00 00
	00		 call	 DWORD PTR __imp_?SetLoopAni@ioEntityGroup@@QAE_NHMMMM@Z

; 554  : 	
; 555  : 	m_SkillState = SS_Run_Charge_End;

  000f6	6a 04		 push	 4
  000f8	5b		 pop	 ebx
  000f9	89 9f 88 11 00
	00		 mov	 DWORD PTR [edi+4488], ebx

; 556  : 	
; 557  : 	m_dwCheckMaxChargeRunLoopTime = FRAMEGETTIME();

  000ff	ff 15 00 00 00
	00		 call	 DWORD PTR __imp_?GetSingleton@ioFrameTimer@@SAAAV1@XZ
  00105	8b c8		 mov	 ecx, eax
  00107	ff 15 00 00 00
	00		 call	 DWORD PTR __imp_?GetLoopSec@ioFrameTimer@@QBEKXZ
  0010d	89 87 94 11 00
	00		 mov	 DWORD PTR [edi+4500], eax

; 558  : 
; 559  : 	if( pChar->IsNeedSendNetwork() )

  00113	8b 06		 mov	 eax, DWORD PTR [esi]
  00115	8b ce		 mov	 ecx, esi
  00117	ff 90 04 01 00
	00		 call	 DWORD PTR [eax+260]
  0011d	84 c0		 test	 al, al
  0011f	0f 84 86 00 00
	00		 je	 $LN1@SetRunning@3

; 560  : 	{
; 561  : 		SP2Packet kPacket( CUPK_SKILL_EXTRA_INFO );

  00125	68 39 41 00 00	 push	 16697			; 00004139H
  0012a	8d 8d d8 7f ff
	ff		 lea	 ecx, DWORD PTR _kPacket$549713[ebp]
  00130	e8 00 00 00 00	 call	 ??0SP2Packet@@QAE@K@Z	; SP2Packet::SP2Packet
  00135	83 65 fc 00	 and	 DWORD PTR __$EHRec$[ebp+8], 0

; 562  : 		kPacket << pChar->GetCharName();

  00139	8d 86 d4 02 00
	00		 lea	 eax, DWORD PTR [esi+724]
  0013f	50		 push	 eax
  00140	8d 8d d8 7f ff
	ff		 lea	 ecx, DWORD PTR _kPacket$549713[ebp]
  00146	e8 00 00 00 00	 call	 ??6SP2Packet@@QAEAAV0@ABVioHashString@@@Z ; SP2Packet::operator<<

; 563  : 		kPacket << GetName();

  0014b	83 c7 24	 add	 edi, 36			; 00000024H
  0014e	57		 push	 edi
  0014f	8d 8d d8 7f ff
	ff		 lea	 ecx, DWORD PTR _kPacket$549713[ebp]
  00155	e8 00 00 00 00	 call	 ??6SP2Packet@@QAEAAV0@ABVioHashString@@@Z ; SP2Packet::operator<<

; 564  : 		kPacket << SS_Run_Charge_End;

  0015a	53		 push	 ebx
  0015b	8d 8d d8 7f ff
	ff		 lea	 ecx, DWORD PTR _kPacket$549713[ebp]
  00161	e8 00 00 00 00	 call	 ??6SP2Packet@@QAEAAV0@H@Z ; SP2Packet::operator<<

; 565  : 		kPacket << pChar->GetWorldOrientation();

  00166	8b 06		 mov	 eax, DWORD PTR [esi]
  00168	8b ce		 mov	 ecx, esi
  0016a	ff 50 74	 call	 DWORD PTR [eax+116]
  0016d	50		 push	 eax
  0016e	8d 8d d8 7f ff
	ff		 lea	 ecx, DWORD PTR _kPacket$549713[ebp]
  00174	e8 00 00 00 00	 call	 ??6SP2Packet@@QAEAAV0@ABUD3DXQUATERNION@@@Z ; SP2Packet::operator<<

; 566  : 		kPacket << pChar->GetWorldPosition();

  00179	8b 06		 mov	 eax, DWORD PTR [esi]
  0017b	8b ce		 mov	 ecx, esi
  0017d	ff 50 70	 call	 DWORD PTR [eax+112]
  00180	50		 push	 eax
  00181	8d 8d d8 7f ff
	ff		 lea	 ecx, DWORD PTR _kPacket$549713[ebp]
  00187	e8 00 00 00 00	 call	 ??6SP2Packet@@QAEAAV0@ABUD3DXVECTOR3@@@Z ; SP2Packet::operator<<

; 567  : 		P2PNetwork::SendToAllPlayingUser( kPacket );

  0018c	8d 85 d8 7f ff
	ff		 lea	 eax, DWORD PTR _kPacket$549713[ebp]
  00192	6a 00		 push	 0
  00194	50		 push	 eax
  00195	e8 00 00 00 00	 call	 ?SendToAllPlayingUser@P2PNetwork@@YAXAAVSP2Packet@@PAVioBaseChar@@@Z ; P2PNetwork::SendToAllPlayingUser

; 568  : 	}

  0019a	83 4d fc ff	 or	 DWORD PTR __$EHRec$[ebp+8], -1
  0019e	59		 pop	 ecx
  0019f	59		 pop	 ecx
  001a0	8d 8d d8 7f ff
	ff		 lea	 ecx, DWORD PTR _kPacket$549713[ebp]
  001a6	e8 00 00 00 00	 call	 ??1SP2Packet@@UAE@XZ	; SP2Packet::~SP2Packet
$LN1@SetRunning@3:

; 569  : }

  001ab	8b 4d f4	 mov	 ecx, DWORD PTR __$EHRec$[ebp]
  001ae	64 89 0d 00 00
	00 00		 mov	 DWORD PTR fs:0, ecx
  001b5	59		 pop	 ecx
  001b6	5f		 pop	 edi
  001b7	5e		 pop	 esi
  001b8	5b		 pop	 ebx
  001b9	8b 4d f0	 mov	 ecx, DWORD PTR __$ArrayPad$[ebp]
  001bc	33 cd		 xor	 ecx, ebp
  001be	e8 00 00 00 00	 call	 @__security_check_cookie@4
  001c3	c9		 leave
  001c4	c2 04 00	 ret	 4
_TEXT	ENDS
;	COMDAT text$x
text$x	SEGMENT
__unwindfunclet$?SetRunningChargeEndState@ioRunningAttackSkill9@@IAEXPAVioBaseChar@@@Z$0:
  00000	8d 8d d8 7f ff
	ff		 lea	 ecx, DWORD PTR _kPacket$549713[ebp]
  00006	e9 00 00 00 00	 jmp	 ??1SP2Packet@@UAE@XZ	; SP2Packet::~SP2Packet
__ehhandler$?SetRunningChargeEndState@ioRunningAttackSkill9@@IAEXPAVioBaseChar@@@Z:
  0000b	8b 54 24 08	 mov	 edx, DWORD PTR [esp+8]
  0000f	8d 42 0c	 lea	 eax, DWORD PTR [edx+12]
  00012	8b 8a cc 7f ff
	ff		 mov	 ecx, DWORD PTR [edx-32820]
  00018	33 c8		 xor	 ecx, eax
  0001a	e8 00 00 00 00	 call	 @__security_check_cookie@4
  0001f	8b 4a fc	 mov	 ecx, DWORD PTR [edx-4]
  00022	33 c8		 xor	 ecx, eax
  00024	e8 00 00 00 00	 call	 @__security_check_cookie@4
  00029	b8 00 00 00 00	 mov	 eax, OFFSET __ehfuncinfo$?SetRunningChargeEndState@ioRunningAttackSkill9@@IAEXPAVioBaseChar@@@Z
  0002e	e9 00 00 00 00	 jmp	 ___CxxFrameHandler3
text$x	ENDS
?SetRunningChargeEndState@ioRunningAttackSkill9@@IAEXPAVioBaseChar@@@Z ENDP ; ioRunningAttackSkill9::SetRunningChargeEndState
PUBLIC	??_C@_00CNPNBAHC@?$AA@				; `string'
PUBLIC	?CheckChargeAreaWeapon@ioRunningAttackSkill9@@IAEXPAVioBaseChar@@@Z ; ioRunningAttackSkill9::CheckChargeAreaWeapon
EXTRN	?CreateAreaWeapon@ioAreaWeaponManager@@QAEPAVioAreaWeapon@@ABVioHashString@@000ABUD3DXVECTOR3@@ABUD3DXQUATERNION@@H@Z:PROC ; ioAreaWeaponManager::CreateAreaWeapon
EXTRN	__imp_??0ioHashString@@QAE@PBD@Z:PROC
;	COMDAT ??_C@_00CNPNBAHC@?$AA@
; File d:\lost saga for developer\youtube\tutorial\source\src\lsclient\ioareaweapon.h
CONST	SEGMENT
??_C@_00CNPNBAHC@?$AA@ DB 00H				; `string'
CONST	ENDS
;	COMDAT xdata$x
xdata$x	SEGMENT
__unwindtable$?CheckChargeAreaWeapon@ioRunningAttackSkill9@@IAEXPAVioBaseChar@@@Z DD 0ffffffffH
	DD	FLAT:__unwindfunclet$?CheckChargeAreaWeapon@ioRunningAttackSkill9@@IAEXPAVioBaseChar@@@Z$0
__ehfuncinfo$?CheckChargeAreaWeapon@ioRunningAttackSkill9@@IAEXPAVioBaseChar@@@Z DD 019930522H
	DD	01H
	DD	FLAT:__unwindtable$?CheckChargeAreaWeapon@ioRunningAttackSkill9@@IAEXPAVioBaseChar@@@Z
	DD	2 DUP(00H)
	DD	2 DUP(00H)
	DD	00H
	DD	01H
; Function compile flags: /Ogsp
; File d:\lost saga for developer\youtube\tutorial\source\src\lsclient\iorunningattackskill9.cpp
xdata$x	ENDS
;	COMDAT ?CheckChargeAreaWeapon@ioRunningAttackSkill9@@IAEXPAVioBaseChar@@@Z
_TEXT	SEGMENT
$T554297 = -28						; size = 16
__$EHRec$ = -12						; size = 12
tv230 = 8						; size = 4
_pChar$ = 8						; size = 4
?CheckChargeAreaWeapon@ioRunningAttackSkill9@@IAEXPAVioBaseChar@@@Z PROC ; ioRunningAttackSkill9::CheckChargeAreaWeapon, COMDAT
; _this$ = ecx

; 782  : {

  00000	6a 10		 push	 16			; 00000010H
  00002	b8 00 00 00 00	 mov	 eax, __ehhandler$?CheckChargeAreaWeapon@ioRunningAttackSkill9@@IAEXPAVioBaseChar@@@Z
  00007	e8 00 00 00 00	 call	 __EH_prolog3
  0000c	8b f1		 mov	 esi, ecx

; 783  : 	if ( !pChar )

  0000e	8b 5d 08	 mov	 ebx, DWORD PTR _pChar$[ebp]
  00011	85 db		 test	 ebx, ebx
  00013	0f 84 e1 00 00
	00		 je	 $LN3@CheckCharg@2

; 784  : 		return;
; 785  : 
; 786  : 	DWORD dwCurTime = FRAMEGETTIME();

  00019	ff 15 00 00 00
	00		 call	 DWORD PTR __imp_?GetSingleton@ioFrameTimer@@SAAAV1@XZ
  0001f	8b c8		 mov	 ecx, eax
  00021	ff 15 00 00 00
	00		 call	 DWORD PTR __imp_?GetLoopSec@ioFrameTimer@@QBEKXZ

; 787  : 	if ( m_dwCheckAreaWeaponTime + m_dwCreateAreaTime > dwCurTime )

  00027	8b 96 80 11 00
	00		 mov	 edx, DWORD PTR [esi+4480]
  0002d	03 96 ac 11 00
	00		 add	 edx, DWORD PTR [esi+4524]
  00033	3b d0		 cmp	 edx, eax
  00035	0f 87 bf 00 00
	00		 ja	 $LN3@CheckCharg@2

; 788  : 		return;
; 789  : 
; 790  : 	m_dwCheckAreaWeaponTime = dwCurTime;

  0003b	89 86 ac 11 00
	00		 mov	 DWORD PTR [esi+4524], eax

; 791  : 
; 792  : 	if ( COMPARE( m_nAreaWeaponCnt, 0, (int)m_AreaWeaponList.size() ) )

  00041	8b 86 b0 11 00
	00		 mov	 eax, DWORD PTR [esi+4528]
  00047	85 c0		 test	 eax, eax
  00049	0f 88 ab 00 00
	00		 js	 $LN3@CheckCharg@2
  0004f	8b 8e 74 11 00
	00		 mov	 ecx, DWORD PTR [esi+4468]
  00055	2b 8e 70 11 00
	00		 sub	 ecx, DWORD PTR [esi+4464]
  0005b	c1 f9 04	 sar	 ecx, 4
  0005e	3b c1		 cmp	 eax, ecx
  00060	0f 8d 94 00 00
	00		 jge	 $LN3@CheckCharg@2

; 793  : 	{
; 794  : 		if ( m_dwAreaWeaponIndex != -1 )

  00066	8b 86 a8 11 00
	00		 mov	 eax, DWORD PTR [esi+4520]
  0006c	83 f8 ff	 cmp	 eax, -1
  0006f	74 14		 je	 SHORT $LN2@CheckCharg@2

; 795  : 		{
; 796  : 			g_AreaWeaponMgr.DestroyAreaWeapon( m_dwAreaWeaponIndex );

  00071	50		 push	 eax
  00072	e8 00 00 00 00	 call	 ?GetSingleton@ioAreaWeaponManager@@SAAAV1@XZ ; ioAreaWeaponManager::GetSingleton
  00077	8b c8		 mov	 ecx, eax
  00079	e8 00 00 00 00	 call	 ?DestroyAreaWeapon@ioAreaWeaponManager@@QAEXK@Z ; ioAreaWeaponManager::DestroyAreaWeapon

; 797  : 			m_dwAreaWeaponIndex = -1;

  0007e	83 8e a8 11 00
	00 ff		 or	 DWORD PTR [esi+4520], -1
$LN2@CheckCharg@2:

; 798  : 		}
; 799  : 
; 800  : 		ioAreaWeapon *pAreaWeapon = g_AreaWeaponMgr.CreateAreaWeapon( pChar->GetCharName(),	pChar->GetCharName(), "", m_AreaWeaponList[m_nAreaWeaponCnt], pChar->GetWorldPosition(), pChar->GetWorldOrientation(), ioAreaWeapon::CT_TARGET_ATTACHED );

  00085	68 00 00 00 00	 push	 OFFSET ??_C@_00CNPNBAHC@?$AA@
  0008a	8d 4d e4	 lea	 ecx, DWORD PTR $T554297[ebp]
  0008d	ff 15 00 00 00
	00		 call	 DWORD PTR __imp_??0ioHashString@@QAE@PBD@Z
  00093	8b be b0 11 00
	00		 mov	 edi, DWORD PTR [esi+4528]
  00099	83 65 fc 00	 and	 DWORD PTR __$EHRec$[ebp+8], 0
  0009d	8d 83 d4 02 00
	00		 lea	 eax, DWORD PTR [ebx+724]
  000a3	89 45 08	 mov	 DWORD PTR tv230[ebp], eax
  000a6	8b 03		 mov	 eax, DWORD PTR [ebx]
  000a8	c1 e7 04	 shl	 edi, 4
  000ab	03 be 70 11 00
	00		 add	 edi, DWORD PTR [esi+4464]
  000b1	6a 03		 push	 3
  000b3	8b cb		 mov	 ecx, ebx
  000b5	ff 50 74	 call	 DWORD PTR [eax+116]
  000b8	50		 push	 eax
  000b9	8b 03		 mov	 eax, DWORD PTR [ebx]
  000bb	8b cb		 mov	 ecx, ebx
  000bd	ff 50 70	 call	 DWORD PTR [eax+112]
  000c0	50		 push	 eax
  000c1	57		 push	 edi
  000c2	8d 45 e4	 lea	 eax, DWORD PTR $T554297[ebp]
  000c5	50		 push	 eax
  000c6	ff 75 08	 push	 DWORD PTR tv230[ebp]
  000c9	ff 75 08	 push	 DWORD PTR tv230[ebp]
  000cc	e8 00 00 00 00	 call	 ?GetSingleton@ioAreaWeaponManager@@SAAAV1@XZ ; ioAreaWeaponManager::GetSingleton
  000d1	8b c8		 mov	 ecx, eax
  000d3	e8 00 00 00 00	 call	 ?CreateAreaWeapon@ioAreaWeaponManager@@QAEPAVioAreaWeapon@@ABVioHashString@@000ABUD3DXVECTOR3@@ABUD3DXQUATERNION@@H@Z ; ioAreaWeaponManager::CreateAreaWeapon
  000d8	83 4d fc ff	 or	 DWORD PTR __$EHRec$[ebp+8], -1
  000dc	8d 4d e4	 lea	 ecx, DWORD PTR $T554297[ebp]
  000df	8b f8		 mov	 edi, eax
  000e1	ff 15 00 00 00
	00		 call	 DWORD PTR __imp_??1ioHashString@@QAE@XZ

; 801  : 		if( pAreaWeapon )

  000e7	85 ff		 test	 edi, edi
  000e9	74 09		 je	 SHORT $LN1@CheckCharg@2

; 802  : 			m_dwAreaWeaponIndex = pAreaWeapon->GetAreaWeaponIndex();

  000eb	8b 47 14	 mov	 eax, DWORD PTR [edi+20]
  000ee	89 86 a8 11 00
	00		 mov	 DWORD PTR [esi+4520], eax
$LN1@CheckCharg@2:

; 803  : 		
; 804  : 		m_nAreaWeaponCnt++;

  000f4	ff 86 b0 11 00
	00		 inc	 DWORD PTR [esi+4528]
$LN3@CheckCharg@2:

; 805  : 	}
; 806  : }

  000fa	e8 00 00 00 00	 call	 __EH_epilog3
  000ff	c2 04 00	 ret	 4
_TEXT	ENDS
;	COMDAT text$x
text$x	SEGMENT
__unwindfunclet$?CheckChargeAreaWeapon@ioRunningAttackSkill9@@IAEXPAVioBaseChar@@@Z$0:
  00000	8d 4d e4	 lea	 ecx, DWORD PTR $T554297[ebp]
  00003	ff 25 00 00 00
	00		 jmp	 DWORD PTR __imp_??1ioHashString@@QAE@XZ
__ehhandler$?CheckChargeAreaWeapon@ioRunningAttackSkill9@@IAEXPAVioBaseChar@@@Z:
  00009	8b 54 24 08	 mov	 edx, DWORD PTR [esp+8]
  0000d	8d 42 0c	 lea	 eax, DWORD PTR [edx+12]
  00010	8b 4a e0	 mov	 ecx, DWORD PTR [edx-32]
  00013	33 c8		 xor	 ecx, eax
  00015	e8 00 00 00 00	 call	 @__security_check_cookie@4
  0001a	b8 00 00 00 00	 mov	 eax, OFFSET __ehfuncinfo$?CheckChargeAreaWeapon@ioRunningAttackSkill9@@IAEXPAVioBaseChar@@@Z
  0001f	e9 00 00 00 00	 jmp	 ___CxxFrameHandler3
text$x	ENDS
?CheckChargeAreaWeapon@ioRunningAttackSkill9@@IAEXPAVioBaseChar@@@Z ENDP ; ioRunningAttackSkill9::CheckChargeAreaWeapon
PUBLIC	__$ArrayPad$
PUBLIC	??$LoadInt_e@$0BD@@ioINILoader@@QAEHAAY0BD@$$CBDH@Z ; ioINILoader::LoadInt_e<19>
EXTRN	__imp_?LoadInt@ioINILoader@@QAEHPBDH@Z:PROC
; Function compile flags: /Ogsp
; File d:\lost saga for developer\youtube\tutorial\source\src\io3dengine\ioiniloader.h
;	COMDAT ??$LoadInt_e@$0BD@@ioINILoader@@QAEHAAY0BD@$$CBDH@Z
_TEXT	SEGMENT
__k$ = -28						; size = 19
__$ArrayPad$ = -4					; size = 4
_k$ = 8							; size = 4
_i$ = 12						; size = 4
??$LoadInt_e@$0BD@@ioINILoader@@QAEHAAY0BD@$$CBDH@Z PROC ; ioINILoader::LoadInt_e<19>, COMDAT
; _this$ = ecx

; 118  : 	{

  00000	55		 push	 ebp
  00001	8b ec		 mov	 ebp, esp
  00003	83 ec 1c	 sub	 esp, 28			; 0000001cH
  00006	a1 00 00 00 00	 mov	 eax, DWORD PTR ___security_cookie
  0000b	33 c5		 xor	 eax, ebp
  0000d	89 45 fc	 mov	 DWORD PTR __$ArrayPad$[ebp], eax
  00010	8b 45 08	 mov	 eax, DWORD PTR _k$[ebp]

; 119  : 		_ENCSTR(k, _k);

  00013	8a 10		 mov	 dl, BYTE PTR [eax]
  00015	56		 push	 esi
  00016	8b f1		 mov	 esi, ecx
  00018	84 d2		 test	 dl, dl
  0001a	0f 84 cf 01 00
	00		 je	 $LN96@LoadInt_e
  00020	80 f2 ed	 xor	 dl, -19			; ffffffedH
  00023	88 55 e4	 mov	 BYTE PTR __k$[ebp], dl
  00026	8a 50 01	 mov	 dl, BYTE PTR [eax+1]
  00029	84 d2		 test	 dl, dl
  0002b	0f 84 b8 01 00
	00		 je	 $LN95@LoadInt_e
  00031	b1 ec		 mov	 cl, -20			; ffffffecH
  00033	32 d1		 xor	 dl, cl
  00035	88 55 e5	 mov	 BYTE PTR __k$[ebp+1], dl
  00038	8a 50 02	 mov	 dl, BYTE PTR [eax+2]
  0003b	84 d2		 test	 dl, dl
  0003d	0f 84 a0 01 00
	00		 je	 $LN94@LoadInt_e
  00043	80 f2 eb	 xor	 dl, -21			; ffffffebH
  00046	88 55 e6	 mov	 BYTE PTR __k$[ebp+2], dl
  00049	8a 50 03	 mov	 dl, BYTE PTR [eax+3]
  0004c	84 d2		 test	 dl, dl
  0004e	0f 84 89 01 00
	00		 je	 $LN93@LoadInt_e
  00054	80 f2 ea	 xor	 dl, -22			; ffffffeaH
  00057	88 55 e7	 mov	 BYTE PTR __k$[ebp+3], dl
  0005a	8a 50 04	 mov	 dl, BYTE PTR [eax+4]
  0005d	84 d2		 test	 dl, dl
  0005f	0f 84 72 01 00
	00		 je	 $LN92@LoadInt_e
  00065	80 f2 ed	 xor	 dl, -19			; ffffffedH
  00068	88 55 e8	 mov	 BYTE PTR __k$[ebp+4], dl
  0006b	8a 50 05	 mov	 dl, BYTE PTR [eax+5]
  0006e	84 d2		 test	 dl, dl
  00070	0f 84 5c 01 00
	00		 je	 $LN91@LoadInt_e
  00076	32 d1		 xor	 dl, cl
  00078	88 55 e9	 mov	 BYTE PTR __k$[ebp+5], dl
  0007b	8a 50 06	 mov	 dl, BYTE PTR [eax+6]
  0007e	84 d2		 test	 dl, dl
  00080	0f 84 46 01 00
	00		 je	 $LN90@LoadInt_e
  00086	80 f2 eb	 xor	 dl, -21			; ffffffebH
  00089	88 55 ea	 mov	 BYTE PTR __k$[ebp+6], dl
  0008c	8a 50 07	 mov	 dl, BYTE PTR [eax+7]
  0008f	84 d2		 test	 dl, dl
  00091	0f 84 2f 01 00
	00		 je	 $LN89@LoadInt_e
  00097	80 f2 ea	 xor	 dl, -22			; ffffffeaH
  0009a	88 55 eb	 mov	 BYTE PTR __k$[ebp+7], dl
  0009d	8a 50 08	 mov	 dl, BYTE PTR [eax+8]
  000a0	84 d2		 test	 dl, dl
  000a2	0f 84 18 01 00
	00		 je	 $LN88@LoadInt_e
  000a8	80 f2 ed	 xor	 dl, -19			; ffffffedH
  000ab	88 55 ec	 mov	 BYTE PTR __k$[ebp+8], dl
  000ae	8a 50 09	 mov	 dl, BYTE PTR [eax+9]
  000b1	84 d2		 test	 dl, dl
  000b3	0f 84 02 01 00
	00		 je	 $LN87@LoadInt_e
  000b9	32 d1		 xor	 dl, cl
  000bb	88 55 ed	 mov	 BYTE PTR __k$[ebp+9], dl
  000be	8a 50 0a	 mov	 dl, BYTE PTR [eax+10]
  000c1	84 d2		 test	 dl, dl
  000c3	0f 84 ec 00 00
	00		 je	 $LN86@LoadInt_e
  000c9	80 f2 eb	 xor	 dl, -21			; ffffffebH
  000cc	88 55 ee	 mov	 BYTE PTR __k$[ebp+10], dl
  000cf	8a 50 0b	 mov	 dl, BYTE PTR [eax+11]
  000d2	84 d2		 test	 dl, dl
  000d4	0f 84 d5 00 00
	00		 je	 $LN85@LoadInt_e
  000da	80 f2 ea	 xor	 dl, -22			; ffffffeaH
  000dd	88 55 ef	 mov	 BYTE PTR __k$[ebp+11], dl
  000e0	8a 50 0c	 mov	 dl, BYTE PTR [eax+12]
  000e3	84 d2		 test	 dl, dl
  000e5	0f 84 be 00 00
	00		 je	 $LN84@LoadInt_e
  000eb	80 f2 ed	 xor	 dl, -19			; ffffffedH
  000ee	88 55 f0	 mov	 BYTE PTR __k$[ebp+12], dl
  000f1	8a 50 0d	 mov	 dl, BYTE PTR [eax+13]
  000f4	84 d2		 test	 dl, dl
  000f6	0f 84 a8 00 00
	00		 je	 $LN83@LoadInt_e
  000fc	32 d1		 xor	 dl, cl
  000fe	88 55 f1	 mov	 BYTE PTR __k$[ebp+13], dl
  00101	8a 50 0e	 mov	 dl, BYTE PTR [eax+14]
  00104	84 d2		 test	 dl, dl
  00106	0f 84 92 00 00
	00		 je	 $LN82@LoadInt_e
  0010c	80 f2 eb	 xor	 dl, -21			; ffffffebH
  0010f	88 55 f2	 mov	 BYTE PTR __k$[ebp+14], dl
  00112	8a 50 0f	 mov	 dl, BYTE PTR [eax+15]
  00115	84 d2		 test	 dl, dl
  00117	74 7f		 je	 SHORT $LN81@LoadInt_e
  00119	80 f2 ea	 xor	 dl, -22			; ffffffeaH
  0011c	88 55 f3	 mov	 BYTE PTR __k$[ebp+15], dl
  0011f	8a 50 10	 mov	 dl, BYTE PTR [eax+16]
  00122	84 d2		 test	 dl, dl
  00124	74 6c		 je	 SHORT $LN80@LoadInt_e
  00126	80 f2 ed	 xor	 dl, -19			; ffffffedH
  00129	88 55 f4	 mov	 BYTE PTR __k$[ebp+16], dl
  0012c	8a 50 11	 mov	 dl, BYTE PTR [eax+17]
  0012f	84 d2		 test	 dl, dl
  00131	74 5a		 je	 SHORT $LN79@LoadInt_e
  00133	32 d1		 xor	 dl, cl
  00135	80 78 12 00	 cmp	 BYTE PTR [eax+18], 0
  00139	88 55 f5	 mov	 BYTE PTR __k$[ebp+17], dl
  0013c	0f 84 b1 00 00
	00		 je	 $LN1@LoadInt_e
  00142	8a 50 13	 mov	 dl, BYTE PTR [eax+19]
  00145	84 d2		 test	 dl, dl
  00147	74 3e		 je	 SHORT $LN77@LoadInt_e
  00149	80 f2 ea	 xor	 dl, -22			; ffffffeaH
  0014c	88 55 f7	 mov	 BYTE PTR __k$[ebp+19], dl
  0014f	8a 50 14	 mov	 dl, BYTE PTR [eax+20]
  00152	84 d2		 test	 dl, dl
  00154	74 2b		 je	 SHORT $LN76@LoadInt_e
  00156	80 f2 ed	 xor	 dl, -19			; ffffffedH
  00159	88 55 f8	 mov	 BYTE PTR __k$[ebp+20], dl
  0015c	8a 50 15	 mov	 dl, BYTE PTR [eax+21]
  0015f	84 d2		 test	 dl, dl
  00161	74 19		 je	 SHORT $LN75@LoadInt_e
  00163	8a 40 16	 mov	 al, BYTE PTR [eax+22]
  00166	32 d1		 xor	 dl, cl
  00168	88 55 f9	 mov	 BYTE PTR __k$[ebp+21], dl
  0016b	84 c0		 test	 al, al
  0016d	74 07		 je	 SHORT $LN74@LoadInt_e
  0016f	34 eb		 xor	 al, -21			; ffffffebH
  00171	88 45 fa	 mov	 BYTE PTR __k$[ebp+22], al
  00174	eb 7d		 jmp	 SHORT $LN1@LoadInt_e
$LN74@LoadInt_e:
  00176	c6 45 fa eb	 mov	 BYTE PTR __k$[ebp+22], -21 ; ffffffebH
  0017a	eb 77		 jmp	 SHORT $LN1@LoadInt_e
$LN75@LoadInt_e:
  0017c	88 4d f9	 mov	 BYTE PTR __k$[ebp+21], cl
  0017f	eb 72		 jmp	 SHORT $LN1@LoadInt_e
$LN76@LoadInt_e:
  00181	c6 45 f8 ed	 mov	 BYTE PTR __k$[ebp+20], -19 ; ffffffedH
  00185	eb 6c		 jmp	 SHORT $LN1@LoadInt_e
$LN77@LoadInt_e:
  00187	c6 45 f7 ea	 mov	 BYTE PTR __k$[ebp+19], -22 ; ffffffeaH
  0018b	eb 66		 jmp	 SHORT $LN1@LoadInt_e
$LN79@LoadInt_e:
  0018d	88 4d f5	 mov	 BYTE PTR __k$[ebp+17], cl
  00190	eb 61		 jmp	 SHORT $LN1@LoadInt_e
$LN80@LoadInt_e:
  00192	c6 45 f4 ed	 mov	 BYTE PTR __k$[ebp+16], -19 ; ffffffedH
  00196	eb 5b		 jmp	 SHORT $LN1@LoadInt_e
$LN81@LoadInt_e:
  00198	c6 45 f3 ea	 mov	 BYTE PTR __k$[ebp+15], -22 ; ffffffeaH
  0019c	eb 55		 jmp	 SHORT $LN1@LoadInt_e
$LN82@LoadInt_e:
  0019e	c6 45 f2 eb	 mov	 BYTE PTR __k$[ebp+14], -21 ; ffffffebH
  001a2	eb 4f		 jmp	 SHORT $LN1@LoadInt_e
$LN83@LoadInt_e:
  001a4	88 4d f1	 mov	 BYTE PTR __k$[ebp+13], cl
  001a7	eb 4a		 jmp	 SHORT $LN1@LoadInt_e
$LN84@LoadInt_e:
  001a9	c6 45 f0 ed	 mov	 BYTE PTR __k$[ebp+12], -19 ; ffffffedH
  001ad	eb 44		 jmp	 SHORT $LN1@LoadInt_e
$LN85@LoadInt_e:
  001af	c6 45 ef ea	 mov	 BYTE PTR __k$[ebp+11], -22 ; ffffffeaH
  001b3	eb 3e		 jmp	 SHORT $LN1@LoadInt_e
$LN86@LoadInt_e:
  001b5	c6 45 ee eb	 mov	 BYTE PTR __k$[ebp+10], -21 ; ffffffebH
  001b9	eb 38		 jmp	 SHORT $LN1@LoadInt_e
$LN87@LoadInt_e:
  001bb	88 4d ed	 mov	 BYTE PTR __k$[ebp+9], cl
  001be	eb 33		 jmp	 SHORT $LN1@LoadInt_e
$LN88@LoadInt_e:
  001c0	c6 45 ec ed	 mov	 BYTE PTR __k$[ebp+8], -19 ; ffffffedH
  001c4	eb 2d		 jmp	 SHORT $LN1@LoadInt_e
$LN89@LoadInt_e:
  001c6	c6 45 eb ea	 mov	 BYTE PTR __k$[ebp+7], -22 ; ffffffeaH
  001ca	eb 27		 jmp	 SHORT $LN1@LoadInt_e
$LN90@LoadInt_e:
  001cc	c6 45 ea eb	 mov	 BYTE PTR __k$[ebp+6], -21 ; ffffffebH
  001d0	eb 21		 jmp	 SHORT $LN1@LoadInt_e
$LN91@LoadInt_e:
  001d2	88 4d e9	 mov	 BYTE PTR __k$[ebp+5], cl
  001d5	eb 1c		 jmp	 SHORT $LN1@LoadInt_e
$LN92@LoadInt_e:
  001d7	c6 45 e8 ed	 mov	 BYTE PTR __k$[ebp+4], -19 ; ffffffedH
  001db	eb 16		 jmp	 SHORT $LN1@LoadInt_e
$LN93@LoadInt_e:
  001dd	c6 45 e7 ea	 mov	 BYTE PTR __k$[ebp+3], -22 ; ffffffeaH
  001e1	eb 10		 jmp	 SHORT $LN1@LoadInt_e
$LN94@LoadInt_e:
  001e3	c6 45 e6 eb	 mov	 BYTE PTR __k$[ebp+2], -21 ; ffffffebH
  001e7	eb 0a		 jmp	 SHORT $LN1@LoadInt_e
$LN95@LoadInt_e:
  001e9	c6 45 e5 ec	 mov	 BYTE PTR __k$[ebp+1], -20 ; ffffffecH
  001ed	eb 04		 jmp	 SHORT $LN1@LoadInt_e
$LN96@LoadInt_e:
  001ef	c6 45 e4 ed	 mov	 BYTE PTR __k$[ebp], -19	; ffffffedH
$LN1@LoadInt_e:
  001f3	6a 04		 push	 4
  001f5	8d 45 e4	 lea	 eax, DWORD PTR __k$[ebp]
  001f8	c6 45 f6 00	 mov	 BYTE PTR __k$[ebp+18], 0
  001fc	5a		 pop	 edx
$LL104@LoadInt_e:
  001fd	81 30 ed ec eb
	ea		 xor	 DWORD PTR [eax], -353637139 ; eaebecedH
  00203	83 c0 04	 add	 eax, 4
  00206	4a		 dec	 edx
  00207	75 f4		 jne	 SHORT $LL104@LoadInt_e
  00209	6a 10		 push	 16			; 00000010H
  0020b	58		 pop	 eax
$LL101@LoadInt_e:
  0020c	8b c8		 mov	 ecx, eax
  0020e	81 e1 03 00 00
	80		 and	 ecx, -2147483645	; 80000003H
  00214	79 05		 jns	 SHORT $LN111@LoadInt_e
  00216	49		 dec	 ecx
  00217	83 c9 fc	 or	 ecx, -4			; fffffffcH
  0021a	41		 inc	 ecx
$LN111@LoadInt_e:
  0021b	b2 ed		 mov	 dl, -19			; ffffffedH
  0021d	2a d1		 sub	 dl, cl
  0021f	30 54 05 e4	 xor	 BYTE PTR __k$[ebp+eax], dl
  00223	40		 inc	 eax
  00224	83 f8 12	 cmp	 eax, 18			; 00000012H
  00227	7c e3		 jl	 SHORT $LL101@LoadInt_e

; 120  : 		return LoadInt(_k, i);

  00229	ff 75 0c	 push	 DWORD PTR _i$[ebp]
  0022c	8d 45 e4	 lea	 eax, DWORD PTR __k$[ebp]
  0022f	50		 push	 eax
  00230	8b ce		 mov	 ecx, esi
  00232	ff 15 00 00 00
	00		 call	 DWORD PTR __imp_?LoadInt@ioINILoader@@QAEHPBDH@Z

; 121  : 	}

  00238	8b 4d fc	 mov	 ecx, DWORD PTR __$ArrayPad$[ebp]
  0023b	33 cd		 xor	 ecx, ebp
  0023d	5e		 pop	 esi
  0023e	e8 00 00 00 00	 call	 @__security_check_cookie@4
  00243	c9		 leave
  00244	c2 08 00	 ret	 8
??$LoadInt_e@$0BD@@ioINILoader@@QAEHAAY0BD@$$CBDH@Z ENDP ; ioINILoader::LoadInt_e<19>
_TEXT	ENDS
PUBLIC	_this$GSCopy$
PUBLIC	__$ArrayPad$
PUBLIC	??$LoadString_e@$0O@@ioINILoader@@QAEXAAY0O@$$CBDAAY00$$CBDPADH@Z ; ioINILoader::LoadString_e<14>
EXTRN	__imp_?LoadStringA@ioINILoader@@QAEXPBD0PADH@Z:PROC
; Function compile flags: /Ogsp
;	COMDAT ??$LoadString_e@$0O@@ioINILoader@@QAEXAAY0O@$$CBDAAY00$$CBDPADH@Z
_TEXT	SEGMENT
_this$GSCopy$ = -28					; size = 4
__k$ = -24						; size = 14
__$ArrayPad$ = -4					; size = 4
_k$ = 8							; size = 4
_d$ = 12						; size = 4
_b$ = 16						; size = 4
_i$ = 20						; size = 4
??$LoadString_e@$0O@@ioINILoader@@QAEXAAY0O@$$CBDAAY00$$CBDPADH@Z PROC ; ioINILoader::LoadString_e<14>, COMDAT
; _this$ = ecx

; 161  : 	{

  00000	55		 push	 ebp
  00001	8b ec		 mov	 ebp, esp
  00003	83 ec 1c	 sub	 esp, 28			; 0000001cH
  00006	a1 00 00 00 00	 mov	 eax, DWORD PTR ___security_cookie
  0000b	33 c5		 xor	 eax, ebp
  0000d	89 45 fc	 mov	 DWORD PTR __$ArrayPad$[ebp], eax
  00010	8b 45 08	 mov	 eax, DWORD PTR _k$[ebp]

; 162  : 		_ENCSTR(k, _k);

  00013	8a 10		 mov	 dl, BYTE PTR [eax]
  00015	56		 push	 esi
  00016	8b 75 0c	 mov	 esi, DWORD PTR _d$[ebp]
  00019	57		 push	 edi
  0001a	8b 7d 10	 mov	 edi, DWORD PTR _b$[ebp]
  0001d	89 4d e4	 mov	 DWORD PTR _this$GSCopy$[ebp], ecx
  00020	84 d2		 test	 dl, dl
  00022	0f 84 64 01 00
	00		 je	 $LN96@LoadString
  00028	80 f2 ed	 xor	 dl, -19			; ffffffedH
  0002b	88 55 e8	 mov	 BYTE PTR __k$[ebp], dl
  0002e	8a 50 01	 mov	 dl, BYTE PTR [eax+1]
  00031	84 d2		 test	 dl, dl
  00033	0f 84 4d 01 00
	00		 je	 $LN95@LoadString
  00039	80 f2 ec	 xor	 dl, -20			; ffffffecH
  0003c	88 55 e9	 mov	 BYTE PTR __k$[ebp+1], dl
  0003f	8a 50 02	 mov	 dl, BYTE PTR [eax+2]
  00042	84 d2		 test	 dl, dl
  00044	0f 84 36 01 00
	00		 je	 $LN94@LoadString
  0004a	b1 eb		 mov	 cl, -21			; ffffffebH
  0004c	32 d1		 xor	 dl, cl
  0004e	88 55 ea	 mov	 BYTE PTR __k$[ebp+2], dl
  00051	8a 50 03	 mov	 dl, BYTE PTR [eax+3]
  00054	84 d2		 test	 dl, dl
  00056	0f 84 1e 01 00
	00		 je	 $LN93@LoadString
  0005c	80 f2 ea	 xor	 dl, -22			; ffffffeaH
  0005f	88 55 eb	 mov	 BYTE PTR __k$[ebp+3], dl
  00062	8a 50 04	 mov	 dl, BYTE PTR [eax+4]
  00065	84 d2		 test	 dl, dl
  00067	0f 84 07 01 00
	00		 je	 $LN92@LoadString
  0006d	80 f2 ed	 xor	 dl, -19			; ffffffedH
  00070	88 55 ec	 mov	 BYTE PTR __k$[ebp+4], dl
  00073	8a 50 05	 mov	 dl, BYTE PTR [eax+5]
  00076	84 d2		 test	 dl, dl
  00078	0f 84 f0 00 00
	00		 je	 $LN91@LoadString
  0007e	80 f2 ec	 xor	 dl, -20			; ffffffecH
  00081	88 55 ed	 mov	 BYTE PTR __k$[ebp+5], dl
  00084	8a 50 06	 mov	 dl, BYTE PTR [eax+6]
  00087	84 d2		 test	 dl, dl
  00089	0f 84 da 00 00
	00		 je	 $LN90@LoadString
  0008f	32 d1		 xor	 dl, cl
  00091	88 55 ee	 mov	 BYTE PTR __k$[ebp+6], dl
  00094	8a 50 07	 mov	 dl, BYTE PTR [eax+7]
  00097	84 d2		 test	 dl, dl
  00099	0f 84 c4 00 00
	00		 je	 $LN89@LoadString
  0009f	80 f2 ea	 xor	 dl, -22			; ffffffeaH
  000a2	88 55 ef	 mov	 BYTE PTR __k$[ebp+7], dl
  000a5	8a 50 08	 mov	 dl, BYTE PTR [eax+8]
  000a8	84 d2		 test	 dl, dl
  000aa	0f 84 ad 00 00
	00		 je	 $LN88@LoadString
  000b0	80 f2 ed	 xor	 dl, -19			; ffffffedH
  000b3	88 55 f0	 mov	 BYTE PTR __k$[ebp+8], dl
  000b6	8a 50 09	 mov	 dl, BYTE PTR [eax+9]
  000b9	84 d2		 test	 dl, dl
  000bb	0f 84 96 00 00
	00		 je	 $LN87@LoadString
  000c1	80 f2 ec	 xor	 dl, -20			; ffffffecH
  000c4	88 55 f1	 mov	 BYTE PTR __k$[ebp+9], dl
  000c7	8a 50 0a	 mov	 dl, BYTE PTR [eax+10]
  000ca	84 d2		 test	 dl, dl
  000cc	0f 84 80 00 00
	00		 je	 $LN86@LoadString
  000d2	32 d1		 xor	 dl, cl
  000d4	88 55 f2	 mov	 BYTE PTR __k$[ebp+10], dl
  000d7	8a 50 0b	 mov	 dl, BYTE PTR [eax+11]
  000da	84 d2		 test	 dl, dl
  000dc	74 6e		 je	 SHORT $LN85@LoadString
  000de	80 f2 ea	 xor	 dl, -22			; ffffffeaH
  000e1	88 55 f3	 mov	 BYTE PTR __k$[ebp+11], dl
  000e4	8a 50 0c	 mov	 dl, BYTE PTR [eax+12]
  000e7	84 d2		 test	 dl, dl
  000e9	74 5b		 je	 SHORT $LN84@LoadString
  000eb	80 f2 ed	 xor	 dl, -19			; ffffffedH
  000ee	80 78 0d 00	 cmp	 BYTE PTR [eax+13], 0
  000f2	88 55 f4	 mov	 BYTE PTR __k$[ebp+12], dl
  000f5	0f 84 95 00 00
	00		 je	 $LN111@LoadString
  000fb	8a 50 0e	 mov	 dl, BYTE PTR [eax+14]
  000fe	84 d2		 test	 dl, dl
  00100	74 3f		 je	 SHORT $LN82@LoadString
  00102	32 d1		 xor	 dl, cl
  00104	88 55 f6	 mov	 BYTE PTR __k$[ebp+14], dl
  00107	8a 50 0f	 mov	 dl, BYTE PTR [eax+15]
  0010a	84 d2		 test	 dl, dl
  0010c	74 2d		 je	 SHORT $LN81@LoadString
  0010e	80 f2 ea	 xor	 dl, -22			; ffffffeaH
  00111	88 55 f7	 mov	 BYTE PTR __k$[ebp+15], dl
  00114	8a 50 10	 mov	 dl, BYTE PTR [eax+16]
  00117	84 d2		 test	 dl, dl
  00119	74 1a		 je	 SHORT $LN80@LoadString
  0011b	8a 40 11	 mov	 al, BYTE PTR [eax+17]
  0011e	80 f2 ed	 xor	 dl, -19			; ffffffedH
  00121	88 55 f8	 mov	 BYTE PTR __k$[ebp+16], dl
  00124	84 c0		 test	 al, al
  00126	74 07		 je	 SHORT $LN79@LoadString
  00128	34 ec		 xor	 al, -20			; ffffffecH
  0012a	88 45 f9	 mov	 BYTE PTR __k$[ebp+17], al
  0012d	eb 61		 jmp	 SHORT $LN111@LoadString
$LN79@LoadString:
  0012f	c6 45 f9 ec	 mov	 BYTE PTR __k$[ebp+17], -20 ; ffffffecH
  00133	eb 5b		 jmp	 SHORT $LN111@LoadString
$LN80@LoadString:
  00135	c6 45 f8 ed	 mov	 BYTE PTR __k$[ebp+16], -19 ; ffffffedH
  00139	eb 55		 jmp	 SHORT $LN111@LoadString
$LN81@LoadString:
  0013b	c6 45 f7 ea	 mov	 BYTE PTR __k$[ebp+15], -22 ; ffffffeaH
  0013f	eb 4f		 jmp	 SHORT $LN111@LoadString
$LN82@LoadString:
  00141	88 4d f6	 mov	 BYTE PTR __k$[ebp+14], cl
  00144	eb 4a		 jmp	 SHORT $LN111@LoadString
$LN84@LoadString:
  00146	c6 45 f4 ed	 mov	 BYTE PTR __k$[ebp+12], -19 ; ffffffedH
  0014a	eb 44		 jmp	 SHORT $LN111@LoadString
$LN85@LoadString:
  0014c	c6 45 f3 ea	 mov	 BYTE PTR __k$[ebp+11], -22 ; ffffffeaH
  00150	eb 3e		 jmp	 SHORT $LN111@LoadString
$LN86@LoadString:
  00152	88 4d f2	 mov	 BYTE PTR __k$[ebp+10], cl
  00155	eb 39		 jmp	 SHORT $LN111@LoadString
$LN87@LoadString:
  00157	c6 45 f1 ec	 mov	 BYTE PTR __k$[ebp+9], -20 ; ffffffecH
  0015b	eb 33		 jmp	 SHORT $LN111@LoadString
$LN88@LoadString:
  0015d	c6 45 f0 ed	 mov	 BYTE PTR __k$[ebp+8], -19 ; ffffffedH
  00161	eb 2d		 jmp	 SHORT $LN111@LoadString
$LN89@LoadString:
  00163	c6 45 ef ea	 mov	 BYTE PTR __k$[ebp+7], -22 ; ffffffeaH
  00167	eb 27		 jmp	 SHORT $LN111@LoadString
$LN90@LoadString:
  00169	88 4d ee	 mov	 BYTE PTR __k$[ebp+6], cl
  0016c	eb 22		 jmp	 SHORT $LN111@LoadString
$LN91@LoadString:
  0016e	c6 45 ed ec	 mov	 BYTE PTR __k$[ebp+5], -20 ; ffffffecH
  00172	eb 1c		 jmp	 SHORT $LN111@LoadString
$LN92@LoadString:
  00174	c6 45 ec ed	 mov	 BYTE PTR __k$[ebp+4], -19 ; ffffffedH
  00178	eb 16		 jmp	 SHORT $LN111@LoadString
$LN93@LoadString:
  0017a	c6 45 eb ea	 mov	 BYTE PTR __k$[ebp+3], -22 ; ffffffeaH
  0017e	eb 10		 jmp	 SHORT $LN111@LoadString
$LN94@LoadString:
  00180	c6 45 ea eb	 mov	 BYTE PTR __k$[ebp+2], -21 ; ffffffebH
  00184	eb 0a		 jmp	 SHORT $LN111@LoadString
$LN95@LoadString:
  00186	c6 45 e9 ec	 mov	 BYTE PTR __k$[ebp+1], -20 ; ffffffecH
  0018a	eb 04		 jmp	 SHORT $LN111@LoadString
$LN96@LoadString:
  0018c	c6 45 e8 ed	 mov	 BYTE PTR __k$[ebp], -19	; ffffffedH
$LN111@LoadString:
  00190	6a 03		 push	 3
  00192	8d 45 e8	 lea	 eax, DWORD PTR __k$[ebp]
  00195	c6 45 f5 00	 mov	 BYTE PTR __k$[ebp+13], 0
  00199	5a		 pop	 edx
$LL104@LoadString:
  0019a	81 30 ed ec eb
	ea		 xor	 DWORD PTR [eax], -353637139 ; eaebecedH
  001a0	83 c0 04	 add	 eax, 4
  001a3	4a		 dec	 edx
  001a4	75 f4		 jne	 SHORT $LL104@LoadString

; 163  : 		LoadString(_k, d, b, i);

  001a6	ff 75 14	 push	 DWORD PTR _i$[ebp]
  001a9	8b 4d e4	 mov	 ecx, DWORD PTR _this$GSCopy$[ebp]
  001ac	80 75 f4 ed	 xor	 BYTE PTR __k$[ebp+12], -19 ; ffffffedH
  001b0	57		 push	 edi
  001b1	56		 push	 esi
  001b2	8d 45 e8	 lea	 eax, DWORD PTR __k$[ebp]
  001b5	50		 push	 eax
  001b6	ff 15 00 00 00
	00		 call	 DWORD PTR __imp_?LoadStringA@ioINILoader@@QAEXPBD0PADH@Z

; 164  : 	}

  001bc	8b 4d fc	 mov	 ecx, DWORD PTR __$ArrayPad$[ebp]
  001bf	5f		 pop	 edi
  001c0	33 cd		 xor	 ecx, ebp
  001c2	5e		 pop	 esi
  001c3	e8 00 00 00 00	 call	 @__security_check_cookie@4
  001c8	c9		 leave
  001c9	c2 10 00	 ret	 16			; 00000010H
??$LoadString_e@$0O@@ioINILoader@@QAEXAAY0O@$$CBDAAY00$$CBDPADH@Z ENDP ; ioINILoader::LoadString_e<14>
_TEXT	ENDS
PUBLIC	__$ArrayPad$
PUBLIC	??$LoadFloat_e@$0BD@@ioINILoader@@QAEMAAY0BD@$$CBDM@Z ; ioINILoader::LoadFloat_e<19>
EXTRN	__imp_?LoadFloat@ioINILoader@@QAEMPBDM@Z:PROC
; Function compile flags: /Ogsp
;	COMDAT ??$LoadFloat_e@$0BD@@ioINILoader@@QAEMAAY0BD@$$CBDM@Z
_TEXT	SEGMENT
__k$ = -28						; size = 19
__$ArrayPad$ = -4					; size = 4
_k$ = 8							; size = 4
_f$ = 12						; size = 4
??$LoadFloat_e@$0BD@@ioINILoader@@QAEMAAY0BD@$$CBDM@Z PROC ; ioINILoader::LoadFloat_e<19>, COMDAT
; _this$ = ecx

; 135  : 	{

  00000	55		 push	 ebp
  00001	8b ec		 mov	 ebp, esp
  00003	83 ec 1c	 sub	 esp, 28			; 0000001cH
  00006	a1 00 00 00 00	 mov	 eax, DWORD PTR ___security_cookie
  0000b	33 c5		 xor	 eax, ebp
  0000d	89 45 fc	 mov	 DWORD PTR __$ArrayPad$[ebp], eax
  00010	8b 45 08	 mov	 eax, DWORD PTR _k$[ebp]

; 136  : 		_ENCSTR(k, _k);

  00013	8a 10		 mov	 dl, BYTE PTR [eax]
  00015	56		 push	 esi
  00016	8b f1		 mov	 esi, ecx
  00018	84 d2		 test	 dl, dl
  0001a	0f 84 cf 01 00
	00		 je	 $LN96@LoadFloat_
  00020	80 f2 ed	 xor	 dl, -19			; ffffffedH
  00023	88 55 e4	 mov	 BYTE PTR __k$[ebp], dl
  00026	8a 50 01	 mov	 dl, BYTE PTR [eax+1]
  00029	84 d2		 test	 dl, dl
  0002b	0f 84 b8 01 00
	00		 je	 $LN95@LoadFloat_
  00031	b1 ec		 mov	 cl, -20			; ffffffecH
  00033	32 d1		 xor	 dl, cl
  00035	88 55 e5	 mov	 BYTE PTR __k$[ebp+1], dl
  00038	8a 50 02	 mov	 dl, BYTE PTR [eax+2]
  0003b	84 d2		 test	 dl, dl
  0003d	0f 84 a0 01 00
	00		 je	 $LN94@LoadFloat_
  00043	80 f2 eb	 xor	 dl, -21			; ffffffebH
  00046	88 55 e6	 mov	 BYTE PTR __k$[ebp+2], dl
  00049	8a 50 03	 mov	 dl, BYTE PTR [eax+3]
  0004c	84 d2		 test	 dl, dl
  0004e	0f 84 89 01 00
	00		 je	 $LN93@LoadFloat_
  00054	80 f2 ea	 xor	 dl, -22			; ffffffeaH
  00057	88 55 e7	 mov	 BYTE PTR __k$[ebp+3], dl
  0005a	8a 50 04	 mov	 dl, BYTE PTR [eax+4]
  0005d	84 d2		 test	 dl, dl
  0005f	0f 84 72 01 00
	00		 je	 $LN92@LoadFloat_
  00065	80 f2 ed	 xor	 dl, -19			; ffffffedH
  00068	88 55 e8	 mov	 BYTE PTR __k$[ebp+4], dl
  0006b	8a 50 05	 mov	 dl, BYTE PTR [eax+5]
  0006e	84 d2		 test	 dl, dl
  00070	0f 84 5c 01 00
	00		 je	 $LN91@LoadFloat_
  00076	32 d1		 xor	 dl, cl
  00078	88 55 e9	 mov	 BYTE PTR __k$[ebp+5], dl
  0007b	8a 50 06	 mov	 dl, BYTE PTR [eax+6]
  0007e	84 d2		 test	 dl, dl
  00080	0f 84 46 01 00
	00		 je	 $LN90@LoadFloat_
  00086	80 f2 eb	 xor	 dl, -21			; ffffffebH
  00089	88 55 ea	 mov	 BYTE PTR __k$[ebp+6], dl
  0008c	8a 50 07	 mov	 dl, BYTE PTR [eax+7]
  0008f	84 d2		 test	 dl, dl
  00091	0f 84 2f 01 00
	00		 je	 $LN89@LoadFloat_
  00097	80 f2 ea	 xor	 dl, -22			; ffffffeaH
  0009a	88 55 eb	 mov	 BYTE PTR __k$[ebp+7], dl
  0009d	8a 50 08	 mov	 dl, BYTE PTR [eax+8]
  000a0	84 d2		 test	 dl, dl
  000a2	0f 84 18 01 00
	00		 je	 $LN88@LoadFloat_
  000a8	80 f2 ed	 xor	 dl, -19			; ffffffedH
  000ab	88 55 ec	 mov	 BYTE PTR __k$[ebp+8], dl
  000ae	8a 50 09	 mov	 dl, BYTE PTR [eax+9]
  000b1	84 d2		 test	 dl, dl
  000b3	0f 84 02 01 00
	00		 je	 $LN87@LoadFloat_
  000b9	32 d1		 xor	 dl, cl
  000bb	88 55 ed	 mov	 BYTE PTR __k$[ebp+9], dl
  000be	8a 50 0a	 mov	 dl, BYTE PTR [eax+10]
  000c1	84 d2		 test	 dl, dl
  000c3	0f 84 ec 00 00
	00		 je	 $LN86@LoadFloat_
  000c9	80 f2 eb	 xor	 dl, -21			; ffffffebH
  000cc	88 55 ee	 mov	 BYTE PTR __k$[ebp+10], dl
  000cf	8a 50 0b	 mov	 dl, BYTE PTR [eax+11]
  000d2	84 d2		 test	 dl, dl
  000d4	0f 84 d5 00 00
	00		 je	 $LN85@LoadFloat_
  000da	80 f2 ea	 xor	 dl, -22			; ffffffeaH
  000dd	88 55 ef	 mov	 BYTE PTR __k$[ebp+11], dl
  000e0	8a 50 0c	 mov	 dl, BYTE PTR [eax+12]
  000e3	84 d2		 test	 dl, dl
  000e5	0f 84 be 00 00
	00		 je	 $LN84@LoadFloat_
  000eb	80 f2 ed	 xor	 dl, -19			; ffffffedH
  000ee	88 55 f0	 mov	 BYTE PTR __k$[ebp+12], dl
  000f1	8a 50 0d	 mov	 dl, BYTE PTR [eax+13]
  000f4	84 d2		 test	 dl, dl
  000f6	0f 84 a8 00 00
	00		 je	 $LN83@LoadFloat_
  000fc	32 d1		 xor	 dl, cl
  000fe	88 55 f1	 mov	 BYTE PTR __k$[ebp+13], dl
  00101	8a 50 0e	 mov	 dl, BYTE PTR [eax+14]
  00104	84 d2		 test	 dl, dl
  00106	0f 84 92 00 00
	00		 je	 $LN82@LoadFloat_
  0010c	80 f2 eb	 xor	 dl, -21			; ffffffebH
  0010f	88 55 f2	 mov	 BYTE PTR __k$[ebp+14], dl
  00112	8a 50 0f	 mov	 dl, BYTE PTR [eax+15]
  00115	84 d2		 test	 dl, dl
  00117	74 7f		 je	 SHORT $LN81@LoadFloat_
  00119	80 f2 ea	 xor	 dl, -22			; ffffffeaH
  0011c	88 55 f3	 mov	 BYTE PTR __k$[ebp+15], dl
  0011f	8a 50 10	 mov	 dl, BYTE PTR [eax+16]
  00122	84 d2		 test	 dl, dl
  00124	74 6c		 je	 SHORT $LN80@LoadFloat_
  00126	80 f2 ed	 xor	 dl, -19			; ffffffedH
  00129	88 55 f4	 mov	 BYTE PTR __k$[ebp+16], dl
  0012c	8a 50 11	 mov	 dl, BYTE PTR [eax+17]
  0012f	84 d2		 test	 dl, dl
  00131	74 5a		 je	 SHORT $LN79@LoadFloat_
  00133	32 d1		 xor	 dl, cl
  00135	80 78 12 00	 cmp	 BYTE PTR [eax+18], 0
  00139	88 55 f5	 mov	 BYTE PTR __k$[ebp+17], dl
  0013c	0f 84 b1 00 00
	00		 je	 $LN1@LoadFloat_
  00142	8a 50 13	 mov	 dl, BYTE PTR [eax+19]
  00145	84 d2		 test	 dl, dl
  00147	74 3e		 je	 SHORT $LN77@LoadFloat_
  00149	80 f2 ea	 xor	 dl, -22			; ffffffeaH
  0014c	88 55 f7	 mov	 BYTE PTR __k$[ebp+19], dl
  0014f	8a 50 14	 mov	 dl, BYTE PTR [eax+20]
  00152	84 d2		 test	 dl, dl
  00154	74 2b		 je	 SHORT $LN76@LoadFloat_
  00156	80 f2 ed	 xor	 dl, -19			; ffffffedH
  00159	88 55 f8	 mov	 BYTE PTR __k$[ebp+20], dl
  0015c	8a 50 15	 mov	 dl, BYTE PTR [eax+21]
  0015f	84 d2		 test	 dl, dl
  00161	74 19		 je	 SHORT $LN75@LoadFloat_
  00163	8a 40 16	 mov	 al, BYTE PTR [eax+22]
  00166	32 d1		 xor	 dl, cl
  00168	88 55 f9	 mov	 BYTE PTR __k$[ebp+21], dl
  0016b	84 c0		 test	 al, al
  0016d	74 07		 je	 SHORT $LN74@LoadFloat_
  0016f	34 eb		 xor	 al, -21			; ffffffebH
  00171	88 45 fa	 mov	 BYTE PTR __k$[ebp+22], al
  00174	eb 7d		 jmp	 SHORT $LN1@LoadFloat_
$LN74@LoadFloat_:
  00176	c6 45 fa eb	 mov	 BYTE PTR __k$[ebp+22], -21 ; ffffffebH
  0017a	eb 77		 jmp	 SHORT $LN1@LoadFloat_
$LN75@LoadFloat_:
  0017c	88 4d f9	 mov	 BYTE PTR __k$[ebp+21], cl
  0017f	eb 72		 jmp	 SHORT $LN1@LoadFloat_
$LN76@LoadFloat_:
  00181	c6 45 f8 ed	 mov	 BYTE PTR __k$[ebp+20], -19 ; ffffffedH
  00185	eb 6c		 jmp	 SHORT $LN1@LoadFloat_
$LN77@LoadFloat_:
  00187	c6 45 f7 ea	 mov	 BYTE PTR __k$[ebp+19], -22 ; ffffffeaH
  0018b	eb 66		 jmp	 SHORT $LN1@LoadFloat_
$LN79@LoadFloat_:
  0018d	88 4d f5	 mov	 BYTE PTR __k$[ebp+17], cl
  00190	eb 61		 jmp	 SHORT $LN1@LoadFloat_
$LN80@LoadFloat_:
  00192	c6 45 f4 ed	 mov	 BYTE PTR __k$[ebp+16], -19 ; ffffffedH
  00196	eb 5b		 jmp	 SHORT $LN1@LoadFloat_
$LN81@LoadFloat_:
  00198	c6 45 f3 ea	 mov	 BYTE PTR __k$[ebp+15], -22 ; ffffffeaH
  0019c	eb 55		 jmp	 SHORT $LN1@LoadFloat_
$LN82@LoadFloat_:
  0019e	c6 45 f2 eb	 mov	 BYTE PTR __k$[ebp+14], -21 ; ffffffebH
  001a2	eb 4f		 jmp	 SHORT $LN1@LoadFloat_
$LN83@LoadFloat_:
  001a4	88 4d f1	 mov	 BYTE PTR __k$[ebp+13], cl
  001a7	eb 4a		 jmp	 SHORT $LN1@LoadFloat_
$LN84@LoadFloat_:
  001a9	c6 45 f0 ed	 mov	 BYTE PTR __k$[ebp+12], -19 ; ffffffedH
  001ad	eb 44		 jmp	 SHORT $LN1@LoadFloat_
$LN85@LoadFloat_:
  001af	c6 45 ef ea	 mov	 BYTE PTR __k$[ebp+11], -22 ; ffffffeaH
  001b3	eb 3e		 jmp	 SHORT $LN1@LoadFloat_
$LN86@LoadFloat_:
  001b5	c6 45 ee eb	 mov	 BYTE PTR __k$[ebp+10], -21 ; ffffffebH
  001b9	eb 38		 jmp	 SHORT $LN1@LoadFloat_
$LN87@LoadFloat_:
  001bb	88 4d ed	 mov	 BYTE PTR __k$[ebp+9], cl
  001be	eb 33		 jmp	 SHORT $LN1@LoadFloat_
$LN88@LoadFloat_:
  001c0	c6 45 ec ed	 mov	 BYTE PTR __k$[ebp+8], -19 ; ffffffedH
  001c4	eb 2d		 jmp	 SHORT $LN1@LoadFloat_
$LN89@LoadFloat_:
  001c6	c6 45 eb ea	 mov	 BYTE PTR __k$[ebp+7], -22 ; ffffffeaH
  001ca	eb 27		 jmp	 SHORT $LN1@LoadFloat_
$LN90@LoadFloat_:
  001cc	c6 45 ea eb	 mov	 BYTE PTR __k$[ebp+6], -21 ; ffffffebH
  001d0	eb 21		 jmp	 SHORT $LN1@LoadFloat_
$LN91@LoadFloat_:
  001d2	88 4d e9	 mov	 BYTE PTR __k$[ebp+5], cl
  001d5	eb 1c		 jmp	 SHORT $LN1@LoadFloat_
$LN92@LoadFloat_:
  001d7	c6 45 e8 ed	 mov	 BYTE PTR __k$[ebp+4], -19 ; ffffffedH
  001db	eb 16		 jmp	 SHORT $LN1@LoadFloat_
$LN93@LoadFloat_:
  001dd	c6 45 e7 ea	 mov	 BYTE PTR __k$[ebp+3], -22 ; ffffffeaH
  001e1	eb 10		 jmp	 SHORT $LN1@LoadFloat_
$LN94@LoadFloat_:
  001e3	c6 45 e6 eb	 mov	 BYTE PTR __k$[ebp+2], -21 ; ffffffebH
  001e7	eb 0a		 jmp	 SHORT $LN1@LoadFloat_
$LN95@LoadFloat_:
  001e9	c6 45 e5 ec	 mov	 BYTE PTR __k$[ebp+1], -20 ; ffffffecH
  001ed	eb 04		 jmp	 SHORT $LN1@LoadFloat_
$LN96@LoadFloat_:
  001ef	c6 45 e4 ed	 mov	 BYTE PTR __k$[ebp], -19	; ffffffedH
$LN1@LoadFloat_:
  001f3	6a 04		 push	 4
  001f5	8d 45 e4	 lea	 eax, DWORD PTR __k$[ebp]
  001f8	c6 45 f6 00	 mov	 BYTE PTR __k$[ebp+18], 0
  001fc	5a		 pop	 edx
$LL104@LoadFloat_:
  001fd	81 30 ed ec eb
	ea		 xor	 DWORD PTR [eax], -353637139 ; eaebecedH
  00203	83 c0 04	 add	 eax, 4
  00206	4a		 dec	 edx
  00207	75 f4		 jne	 SHORT $LL104@LoadFloat_
  00209	6a 10		 push	 16			; 00000010H
  0020b	58		 pop	 eax
$LL101@LoadFloat_:
  0020c	8b c8		 mov	 ecx, eax
  0020e	81 e1 03 00 00
	80		 and	 ecx, -2147483645	; 80000003H
  00214	79 05		 jns	 SHORT $LN111@LoadFloat_
  00216	49		 dec	 ecx
  00217	83 c9 fc	 or	 ecx, -4			; fffffffcH
  0021a	41		 inc	 ecx
$LN111@LoadFloat_:
  0021b	b2 ed		 mov	 dl, -19			; ffffffedH
  0021d	2a d1		 sub	 dl, cl
  0021f	30 54 05 e4	 xor	 BYTE PTR __k$[ebp+eax], dl
  00223	40		 inc	 eax
  00224	83 f8 12	 cmp	 eax, 18			; 00000012H
  00227	7c e3		 jl	 SHORT $LL101@LoadFloat_

; 137  : 		return LoadFloat(_k, f);

  00229	f3 0f 10 45 0c	 movss	 xmm0, DWORD PTR _f$[ebp]
  0022e	51		 push	 ecx
  0022f	8d 45 e4	 lea	 eax, DWORD PTR __k$[ebp]
  00232	f3 0f 11 04 24	 movss	 DWORD PTR [esp], xmm0
  00237	50		 push	 eax
  00238	8b ce		 mov	 ecx, esi
  0023a	ff 15 00 00 00
	00		 call	 DWORD PTR __imp_?LoadFloat@ioINILoader@@QAEMPBDM@Z

; 138  : 	}

  00240	8b 4d fc	 mov	 ecx, DWORD PTR __$ArrayPad$[ebp]
  00243	33 cd		 xor	 ecx, ebp
  00245	5e		 pop	 esi
  00246	e8 00 00 00 00	 call	 @__security_check_cookie@4
  0024b	c9		 leave
  0024c	c2 08 00	 ret	 8
??$LoadFloat_e@$0BD@@ioINILoader@@QAEMAAY0BD@$$CBDM@Z ENDP ; ioINILoader::LoadFloat_e<19>
_TEXT	ENDS
PUBLIC	_this$GSCopy$
PUBLIC	__$ArrayPad$
PUBLIC	??$LoadString_e@$0N@@ioINILoader@@QAEXAAY0N@$$CBDAAY00$$CBDPADH@Z ; ioINILoader::LoadString_e<13>
; Function compile flags: /Ogsp
;	COMDAT ??$LoadString_e@$0N@@ioINILoader@@QAEXAAY0N@$$CBDAAY00$$CBDPADH@Z
_TEXT	SEGMENT
_this$GSCopy$ = -28					; size = 4
__k$ = -24						; size = 13
__$ArrayPad$ = -4					; size = 4
_k$ = 8							; size = 4
_d$ = 12						; size = 4
_b$ = 16						; size = 4
_i$ = 20						; size = 4
??$LoadString_e@$0N@@ioINILoader@@QAEXAAY0N@$$CBDAAY00$$CBDPADH@Z PROC ; ioINILoader::LoadString_e<13>, COMDAT
; _this$ = ecx

; 161  : 	{

  00000	55		 push	 ebp
  00001	8b ec		 mov	 ebp, esp
  00003	83 ec 1c	 sub	 esp, 28			; 0000001cH
  00006	a1 00 00 00 00	 mov	 eax, DWORD PTR ___security_cookie
  0000b	33 c5		 xor	 eax, ebp
  0000d	89 45 fc	 mov	 DWORD PTR __$ArrayPad$[ebp], eax
  00010	8b 45 08	 mov	 eax, DWORD PTR _k$[ebp]

; 162  : 		_ENCSTR(k, _k);

  00013	8a 10		 mov	 dl, BYTE PTR [eax]
  00015	56		 push	 esi
  00016	8b 75 0c	 mov	 esi, DWORD PTR _d$[ebp]
  00019	57		 push	 edi
  0001a	8b 7d 10	 mov	 edi, DWORD PTR _b$[ebp]
  0001d	89 4d e4	 mov	 DWORD PTR _this$GSCopy$[ebp], ecx
  00020	84 d2		 test	 dl, dl
  00022	0f 84 4d 01 00
	00		 je	 $LN96@LoadString@2
  00028	80 f2 ed	 xor	 dl, -19			; ffffffedH
  0002b	88 55 e8	 mov	 BYTE PTR __k$[ebp], dl
  0002e	8a 50 01	 mov	 dl, BYTE PTR [eax+1]
  00031	84 d2		 test	 dl, dl
  00033	0f 84 36 01 00
	00		 je	 $LN95@LoadString@2
  00039	b1 ec		 mov	 cl, -20			; ffffffecH
  0003b	32 d1		 xor	 dl, cl
  0003d	88 55 e9	 mov	 BYTE PTR __k$[ebp+1], dl
  00040	8a 50 02	 mov	 dl, BYTE PTR [eax+2]
  00043	84 d2		 test	 dl, dl
  00045	0f 84 1e 01 00
	00		 je	 $LN94@LoadString@2
  0004b	80 f2 eb	 xor	 dl, -21			; ffffffebH
  0004e	88 55 ea	 mov	 BYTE PTR __k$[ebp+2], dl
  00051	8a 50 03	 mov	 dl, BYTE PTR [eax+3]
  00054	84 d2		 test	 dl, dl
  00056	0f 84 07 01 00
	00		 je	 $LN93@LoadString@2
  0005c	80 f2 ea	 xor	 dl, -22			; ffffffeaH
  0005f	88 55 eb	 mov	 BYTE PTR __k$[ebp+3], dl
  00062	8a 50 04	 mov	 dl, BYTE PTR [eax+4]
  00065	84 d2		 test	 dl, dl
  00067	0f 84 f0 00 00
	00		 je	 $LN92@LoadString@2
  0006d	80 f2 ed	 xor	 dl, -19			; ffffffedH
  00070	88 55 ec	 mov	 BYTE PTR __k$[ebp+4], dl
  00073	8a 50 05	 mov	 dl, BYTE PTR [eax+5]
  00076	84 d2		 test	 dl, dl
  00078	0f 84 da 00 00
	00		 je	 $LN91@LoadString@2
  0007e	32 d1		 xor	 dl, cl
  00080	88 55 ed	 mov	 BYTE PTR __k$[ebp+5], dl
  00083	8a 50 06	 mov	 dl, BYTE PTR [eax+6]
  00086	84 d2		 test	 dl, dl
  00088	0f 84 c4 00 00
	00		 je	 $LN90@LoadString@2
  0008e	80 f2 eb	 xor	 dl, -21			; ffffffebH
  00091	88 55 ee	 mov	 BYTE PTR __k$[ebp+6], dl
  00094	8a 50 07	 mov	 dl, BYTE PTR [eax+7]
  00097	84 d2		 test	 dl, dl
  00099	0f 84 ad 00 00
	00		 je	 $LN89@LoadString@2
  0009f	80 f2 ea	 xor	 dl, -22			; ffffffeaH
  000a2	88 55 ef	 mov	 BYTE PTR __k$[ebp+7], dl
  000a5	8a 50 08	 mov	 dl, BYTE PTR [eax+8]
  000a8	84 d2		 test	 dl, dl
  000aa	0f 84 96 00 00
	00		 je	 $LN88@LoadString@2
  000b0	80 f2 ed	 xor	 dl, -19			; ffffffedH
  000b3	88 55 f0	 mov	 BYTE PTR __k$[ebp+8], dl
  000b6	8a 50 09	 mov	 dl, BYTE PTR [eax+9]
  000b9	84 d2		 test	 dl, dl
  000bb	0f 84 80 00 00
	00		 je	 $LN87@LoadString@2
  000c1	32 d1		 xor	 dl, cl
  000c3	88 55 f1	 mov	 BYTE PTR __k$[ebp+9], dl
  000c6	8a 50 0a	 mov	 dl, BYTE PTR [eax+10]
  000c9	84 d2		 test	 dl, dl
  000cb	74 6e		 je	 SHORT $LN86@LoadString@2
  000cd	80 f2 eb	 xor	 dl, -21			; ffffffebH
  000d0	88 55 f2	 mov	 BYTE PTR __k$[ebp+10], dl
  000d3	8a 50 0b	 mov	 dl, BYTE PTR [eax+11]
  000d6	84 d2		 test	 dl, dl
  000d8	74 5b		 je	 SHORT $LN85@LoadString@2
  000da	80 f2 ea	 xor	 dl, -22			; ffffffeaH
  000dd	80 78 0c 00	 cmp	 BYTE PTR [eax+12], 0
  000e1	88 55 f3	 mov	 BYTE PTR __k$[ebp+11], dl
  000e4	0f 84 8f 00 00
	00		 je	 $LN111@LoadString@2
  000ea	8a 50 0d	 mov	 dl, BYTE PTR [eax+13]
  000ed	84 d2		 test	 dl, dl
  000ef	74 3f		 je	 SHORT $LN83@LoadString@2
  000f1	32 d1		 xor	 dl, cl
  000f3	88 55 f5	 mov	 BYTE PTR __k$[ebp+13], dl
  000f6	8a 50 0e	 mov	 dl, BYTE PTR [eax+14]
  000f9	84 d2		 test	 dl, dl
  000fb	74 2d		 je	 SHORT $LN82@LoadString@2
  000fd	80 f2 eb	 xor	 dl, -21			; ffffffebH
  00100	88 55 f6	 mov	 BYTE PTR __k$[ebp+14], dl
  00103	8a 50 0f	 mov	 dl, BYTE PTR [eax+15]
  00106	84 d2		 test	 dl, dl
  00108	74 1a		 je	 SHORT $LN81@LoadString@2
  0010a	8a 40 10	 mov	 al, BYTE PTR [eax+16]
  0010d	80 f2 ea	 xor	 dl, -22			; ffffffeaH
  00110	88 55 f7	 mov	 BYTE PTR __k$[ebp+15], dl
  00113	84 c0		 test	 al, al
  00115	74 07		 je	 SHORT $LN80@LoadString@2
  00117	34 ed		 xor	 al, -19			; ffffffedH
  00119	88 45 f8	 mov	 BYTE PTR __k$[ebp+16], al
  0011c	eb 5b		 jmp	 SHORT $LN111@LoadString@2
$LN80@LoadString@2:
  0011e	c6 45 f8 ed	 mov	 BYTE PTR __k$[ebp+16], -19 ; ffffffedH
  00122	eb 55		 jmp	 SHORT $LN111@LoadString@2
$LN81@LoadString@2:
  00124	c6 45 f7 ea	 mov	 BYTE PTR __k$[ebp+15], -22 ; ffffffeaH
  00128	eb 4f		 jmp	 SHORT $LN111@LoadString@2
$LN82@LoadString@2:
  0012a	c6 45 f6 eb	 mov	 BYTE PTR __k$[ebp+14], -21 ; ffffffebH
  0012e	eb 49		 jmp	 SHORT $LN111@LoadString@2
$LN83@LoadString@2:
  00130	88 4d f5	 mov	 BYTE PTR __k$[ebp+13], cl
  00133	eb 44		 jmp	 SHORT $LN111@LoadString@2
$LN85@LoadString@2:
  00135	c6 45 f3 ea	 mov	 BYTE PTR __k$[ebp+11], -22 ; ffffffeaH
  00139	eb 3e		 jmp	 SHORT $LN111@LoadString@2
$LN86@LoadString@2:
  0013b	c6 45 f2 eb	 mov	 BYTE PTR __k$[ebp+10], -21 ; ffffffebH
  0013f	eb 38		 jmp	 SHORT $LN111@LoadString@2
$LN87@LoadString@2:
  00141	88 4d f1	 mov	 BYTE PTR __k$[ebp+9], cl
  00144	eb 33		 jmp	 SHORT $LN111@LoadString@2
$LN88@LoadString@2:
  00146	c6 45 f0 ed	 mov	 BYTE PTR __k$[ebp+8], -19 ; ffffffedH
  0014a	eb 2d		 jmp	 SHORT $LN111@LoadString@2
$LN89@LoadString@2:
  0014c	c6 45 ef ea	 mov	 BYTE PTR __k$[ebp+7], -22 ; ffffffeaH
  00150	eb 27		 jmp	 SHORT $LN111@LoadString@2
$LN90@LoadString@2:
  00152	c6 45 ee eb	 mov	 BYTE PTR __k$[ebp+6], -21 ; ffffffebH
  00156	eb 21		 jmp	 SHORT $LN111@LoadString@2
$LN91@LoadString@2:
  00158	88 4d ed	 mov	 BYTE PTR __k$[ebp+5], cl
  0015b	eb 1c		 jmp	 SHORT $LN111@LoadString@2
$LN92@LoadString@2:
  0015d	c6 45 ec ed	 mov	 BYTE PTR __k$[ebp+4], -19 ; ffffffedH
  00161	eb 16		 jmp	 SHORT $LN111@LoadString@2
$LN93@LoadString@2:
  00163	c6 45 eb ea	 mov	 BYTE PTR __k$[ebp+3], -22 ; ffffffeaH
  00167	eb 10		 jmp	 SHORT $LN111@LoadString@2
$LN94@LoadString@2:
  00169	c6 45 ea eb	 mov	 BYTE PTR __k$[ebp+2], -21 ; ffffffebH
  0016d	eb 0a		 jmp	 SHORT $LN111@LoadString@2
$LN95@LoadString@2:
  0016f	c6 45 e9 ec	 mov	 BYTE PTR __k$[ebp+1], -20 ; ffffffecH
  00173	eb 04		 jmp	 SHORT $LN111@LoadString@2
$LN96@LoadString@2:
  00175	c6 45 e8 ed	 mov	 BYTE PTR __k$[ebp], -19	; ffffffedH
$LN111@LoadString@2:
  00179	6a 03		 push	 3
  0017b	8d 45 e8	 lea	 eax, DWORD PTR __k$[ebp]
  0017e	c6 45 f4 00	 mov	 BYTE PTR __k$[ebp+12], 0
  00182	5a		 pop	 edx
$LL104@LoadString@2:
  00183	81 30 ed ec eb
	ea		 xor	 DWORD PTR [eax], -353637139 ; eaebecedH
  00189	83 c0 04	 add	 eax, 4
  0018c	4a		 dec	 edx
  0018d	75 f4		 jne	 SHORT $LL104@LoadString@2

; 163  : 		LoadString(_k, d, b, i);

  0018f	ff 75 14	 push	 DWORD PTR _i$[ebp]
  00192	8b 4d e4	 mov	 ecx, DWORD PTR _this$GSCopy$[ebp]
  00195	57		 push	 edi
  00196	56		 push	 esi
  00197	8d 45 e8	 lea	 eax, DWORD PTR __k$[ebp]
  0019a	50		 push	 eax
  0019b	ff 15 00 00 00
	00		 call	 DWORD PTR __imp_?LoadStringA@ioINILoader@@QAEXPBD0PADH@Z

; 164  : 	}

  001a1	8b 4d fc	 mov	 ecx, DWORD PTR __$ArrayPad$[ebp]
  001a4	5f		 pop	 edi
  001a5	33 cd		 xor	 ecx, ebp
  001a7	5e		 pop	 esi
  001a8	e8 00 00 00 00	 call	 @__security_check_cookie@4
  001ad	c9		 leave
  001ae	c2 10 00	 ret	 16			; 00000010H
??$LoadString_e@$0N@@ioINILoader@@QAEXAAY0N@$$CBDAAY00$$CBDPADH@Z ENDP ; ioINILoader::LoadString_e<13>
_TEXT	ENDS
PUBLIC	__$ArrayPad$
PUBLIC	??$LoadFloat_e@$0BC@@ioINILoader@@QAEMAAY0BC@$$CBDM@Z ; ioINILoader::LoadFloat_e<18>
; Function compile flags: /Ogsp
;	COMDAT ??$LoadFloat_e@$0BC@@ioINILoader@@QAEMAAY0BC@$$CBDM@Z
_TEXT	SEGMENT
__k$ = -28						; size = 18
__$ArrayPad$ = -4					; size = 4
_k$ = 8							; size = 4
_f$ = 12						; size = 4
??$LoadFloat_e@$0BC@@ioINILoader@@QAEMAAY0BC@$$CBDM@Z PROC ; ioINILoader::LoadFloat_e<18>, COMDAT
; _this$ = ecx

; 135  : 	{

  00000	55		 push	 ebp
  00001	8b ec		 mov	 ebp, esp
  00003	83 ec 1c	 sub	 esp, 28			; 0000001cH
  00006	a1 00 00 00 00	 mov	 eax, DWORD PTR ___security_cookie
  0000b	33 c5		 xor	 eax, ebp
  0000d	89 45 fc	 mov	 DWORD PTR __$ArrayPad$[ebp], eax
  00010	8b 45 08	 mov	 eax, DWORD PTR _k$[ebp]

; 136  : 		_ENCSTR(k, _k);

  00013	8a 10		 mov	 dl, BYTE PTR [eax]
  00015	56		 push	 esi
  00016	8b f1		 mov	 esi, ecx
  00018	84 d2		 test	 dl, dl
  0001a	0f 84 be 01 00
	00		 je	 $LN96@LoadFloat_@2
  00020	80 f2 ed	 xor	 dl, -19			; ffffffedH
  00023	88 55 e4	 mov	 BYTE PTR __k$[ebp], dl
  00026	8a 50 01	 mov	 dl, BYTE PTR [eax+1]
  00029	84 d2		 test	 dl, dl
  0002b	0f 84 a7 01 00
	00		 je	 $LN95@LoadFloat_@2
  00031	80 f2 ec	 xor	 dl, -20			; ffffffecH
  00034	88 55 e5	 mov	 BYTE PTR __k$[ebp+1], dl
  00037	8a 50 02	 mov	 dl, BYTE PTR [eax+2]
  0003a	84 d2		 test	 dl, dl
  0003c	0f 84 90 01 00
	00		 je	 $LN94@LoadFloat_@2
  00042	b1 eb		 mov	 cl, -21			; ffffffebH
  00044	32 d1		 xor	 dl, cl
  00046	88 55 e6	 mov	 BYTE PTR __k$[ebp+2], dl
  00049	8a 50 03	 mov	 dl, BYTE PTR [eax+3]
  0004c	84 d2		 test	 dl, dl
  0004e	0f 84 78 01 00
	00		 je	 $LN93@LoadFloat_@2
  00054	80 f2 ea	 xor	 dl, -22			; ffffffeaH
  00057	88 55 e7	 mov	 BYTE PTR __k$[ebp+3], dl
  0005a	8a 50 04	 mov	 dl, BYTE PTR [eax+4]
  0005d	84 d2		 test	 dl, dl
  0005f	0f 84 61 01 00
	00		 je	 $LN92@LoadFloat_@2
  00065	80 f2 ed	 xor	 dl, -19			; ffffffedH
  00068	88 55 e8	 mov	 BYTE PTR __k$[ebp+4], dl
  0006b	8a 50 05	 mov	 dl, BYTE PTR [eax+5]
  0006e	84 d2		 test	 dl, dl
  00070	0f 84 4a 01 00
	00		 je	 $LN91@LoadFloat_@2
  00076	80 f2 ec	 xor	 dl, -20			; ffffffecH
  00079	88 55 e9	 mov	 BYTE PTR __k$[ebp+5], dl
  0007c	8a 50 06	 mov	 dl, BYTE PTR [eax+6]
  0007f	84 d2		 test	 dl, dl
  00081	0f 84 34 01 00
	00		 je	 $LN90@LoadFloat_@2
  00087	32 d1		 xor	 dl, cl
  00089	88 55 ea	 mov	 BYTE PTR __k$[ebp+6], dl
  0008c	8a 50 07	 mov	 dl, BYTE PTR [eax+7]
  0008f	84 d2		 test	 dl, dl
  00091	0f 84 1e 01 00
	00		 je	 $LN89@LoadFloat_@2
  00097	80 f2 ea	 xor	 dl, -22			; ffffffeaH
  0009a	88 55 eb	 mov	 BYTE PTR __k$[ebp+7], dl
  0009d	8a 50 08	 mov	 dl, BYTE PTR [eax+8]
  000a0	84 d2		 test	 dl, dl
  000a2	0f 84 07 01 00
	00		 je	 $LN88@LoadFloat_@2
  000a8	80 f2 ed	 xor	 dl, -19			; ffffffedH
  000ab	88 55 ec	 mov	 BYTE PTR __k$[ebp+8], dl
  000ae	8a 50 09	 mov	 dl, BYTE PTR [eax+9]
  000b1	84 d2		 test	 dl, dl
  000b3	0f 84 f0 00 00
	00		 je	 $LN87@LoadFloat_@2
  000b9	80 f2 ec	 xor	 dl, -20			; ffffffecH
  000bc	88 55 ed	 mov	 BYTE PTR __k$[ebp+9], dl
  000bf	8a 50 0a	 mov	 dl, BYTE PTR [eax+10]
  000c2	84 d2		 test	 dl, dl
  000c4	0f 84 da 00 00
	00		 je	 $LN86@LoadFloat_@2
  000ca	32 d1		 xor	 dl, cl
  000cc	88 55 ee	 mov	 BYTE PTR __k$[ebp+10], dl
  000cf	8a 50 0b	 mov	 dl, BYTE PTR [eax+11]
  000d2	84 d2		 test	 dl, dl
  000d4	0f 84 c4 00 00
	00		 je	 $LN85@LoadFloat_@2
  000da	80 f2 ea	 xor	 dl, -22			; ffffffeaH
  000dd	88 55 ef	 mov	 BYTE PTR __k$[ebp+11], dl
  000e0	8a 50 0c	 mov	 dl, BYTE PTR [eax+12]
  000e3	84 d2		 test	 dl, dl
  000e5	0f 84 ad 00 00
	00		 je	 $LN84@LoadFloat_@2
  000eb	80 f2 ed	 xor	 dl, -19			; ffffffedH
  000ee	88 55 f0	 mov	 BYTE PTR __k$[ebp+12], dl
  000f1	8a 50 0d	 mov	 dl, BYTE PTR [eax+13]
  000f4	84 d2		 test	 dl, dl
  000f6	0f 84 96 00 00
	00		 je	 $LN83@LoadFloat_@2
  000fc	80 f2 ec	 xor	 dl, -20			; ffffffecH
  000ff	88 55 f1	 mov	 BYTE PTR __k$[ebp+13], dl
  00102	8a 50 0e	 mov	 dl, BYTE PTR [eax+14]
  00105	84 d2		 test	 dl, dl
  00107	0f 84 80 00 00
	00		 je	 $LN82@LoadFloat_@2
  0010d	32 d1		 xor	 dl, cl
  0010f	88 55 f2	 mov	 BYTE PTR __k$[ebp+14], dl
  00112	8a 50 0f	 mov	 dl, BYTE PTR [eax+15]
  00115	84 d2		 test	 dl, dl
  00117	74 6e		 je	 SHORT $LN81@LoadFloat_@2
  00119	80 f2 ea	 xor	 dl, -22			; ffffffeaH
  0011c	88 55 f3	 mov	 BYTE PTR __k$[ebp+15], dl
  0011f	8a 50 10	 mov	 dl, BYTE PTR [eax+16]
  00122	84 d2		 test	 dl, dl
  00124	74 5b		 je	 SHORT $LN80@LoadFloat_@2
  00126	80 f2 ed	 xor	 dl, -19			; ffffffedH
  00129	80 78 11 00	 cmp	 BYTE PTR [eax+17], 0
  0012d	88 55 f4	 mov	 BYTE PTR __k$[ebp+16], dl
  00130	0f 84 ac 00 00
	00		 je	 $LN1@LoadFloat_@2
  00136	8a 50 12	 mov	 dl, BYTE PTR [eax+18]
  00139	84 d2		 test	 dl, dl
  0013b	74 3f		 je	 SHORT $LN78@LoadFloat_@2
  0013d	32 d1		 xor	 dl, cl
  0013f	88 55 f6	 mov	 BYTE PTR __k$[ebp+18], dl
  00142	8a 50 13	 mov	 dl, BYTE PTR [eax+19]
  00145	84 d2		 test	 dl, dl
  00147	74 2d		 je	 SHORT $LN77@LoadFloat_@2
  00149	80 f2 ea	 xor	 dl, -22			; ffffffeaH
  0014c	88 55 f7	 mov	 BYTE PTR __k$[ebp+19], dl
  0014f	8a 50 14	 mov	 dl, BYTE PTR [eax+20]
  00152	84 d2		 test	 dl, dl
  00154	74 1a		 je	 SHORT $LN76@LoadFloat_@2
  00156	8a 40 15	 mov	 al, BYTE PTR [eax+21]
  00159	80 f2 ed	 xor	 dl, -19			; ffffffedH
  0015c	88 55 f8	 mov	 BYTE PTR __k$[ebp+20], dl
  0015f	84 c0		 test	 al, al
  00161	74 07		 je	 SHORT $LN75@LoadFloat_@2
  00163	34 ec		 xor	 al, -20			; ffffffecH
  00165	88 45 f9	 mov	 BYTE PTR __k$[ebp+21], al
  00168	eb 78		 jmp	 SHORT $LN1@LoadFloat_@2
$LN75@LoadFloat_@2:
  0016a	c6 45 f9 ec	 mov	 BYTE PTR __k$[ebp+21], -20 ; ffffffecH
  0016e	eb 72		 jmp	 SHORT $LN1@LoadFloat_@2
$LN76@LoadFloat_@2:
  00170	c6 45 f8 ed	 mov	 BYTE PTR __k$[ebp+20], -19 ; ffffffedH
  00174	eb 6c		 jmp	 SHORT $LN1@LoadFloat_@2
$LN77@LoadFloat_@2:
  00176	c6 45 f7 ea	 mov	 BYTE PTR __k$[ebp+19], -22 ; ffffffeaH
  0017a	eb 66		 jmp	 SHORT $LN1@LoadFloat_@2
$LN78@LoadFloat_@2:
  0017c	88 4d f6	 mov	 BYTE PTR __k$[ebp+18], cl
  0017f	eb 61		 jmp	 SHORT $LN1@LoadFloat_@2
$LN80@LoadFloat_@2:
  00181	c6 45 f4 ed	 mov	 BYTE PTR __k$[ebp+16], -19 ; ffffffedH
  00185	eb 5b		 jmp	 SHORT $LN1@LoadFloat_@2
$LN81@LoadFloat_@2:
  00187	c6 45 f3 ea	 mov	 BYTE PTR __k$[ebp+15], -22 ; ffffffeaH
  0018b	eb 55		 jmp	 SHORT $LN1@LoadFloat_@2
$LN82@LoadFloat_@2:
  0018d	88 4d f2	 mov	 BYTE PTR __k$[ebp+14], cl
  00190	eb 50		 jmp	 SHORT $LN1@LoadFloat_@2
$LN83@LoadFloat_@2:
  00192	c6 45 f1 ec	 mov	 BYTE PTR __k$[ebp+13], -20 ; ffffffecH
  00196	eb 4a		 jmp	 SHORT $LN1@LoadFloat_@2
$LN84@LoadFloat_@2:
  00198	c6 45 f0 ed	 mov	 BYTE PTR __k$[ebp+12], -19 ; ffffffedH
  0019c	eb 44		 jmp	 SHORT $LN1@LoadFloat_@2
$LN85@LoadFloat_@2:
  0019e	c6 45 ef ea	 mov	 BYTE PTR __k$[ebp+11], -22 ; ffffffeaH
  001a2	eb 3e		 jmp	 SHORT $LN1@LoadFloat_@2
$LN86@LoadFloat_@2:
  001a4	88 4d ee	 mov	 BYTE PTR __k$[ebp+10], cl
  001a7	eb 39		 jmp	 SHORT $LN1@LoadFloat_@2
$LN87@LoadFloat_@2:
  001a9	c6 45 ed ec	 mov	 BYTE PTR __k$[ebp+9], -20 ; ffffffecH
  001ad	eb 33		 jmp	 SHORT $LN1@LoadFloat_@2
$LN88@LoadFloat_@2:
  001af	c6 45 ec ed	 mov	 BYTE PTR __k$[ebp+8], -19 ; ffffffedH
  001b3	eb 2d		 jmp	 SHORT $LN1@LoadFloat_@2
$LN89@LoadFloat_@2:
  001b5	c6 45 eb ea	 mov	 BYTE PTR __k$[ebp+7], -22 ; ffffffeaH
  001b9	eb 27		 jmp	 SHORT $LN1@LoadFloat_@2
$LN90@LoadFloat_@2:
  001bb	88 4d ea	 mov	 BYTE PTR __k$[ebp+6], cl
  001be	eb 22		 jmp	 SHORT $LN1@LoadFloat_@2
$LN91@LoadFloat_@2:
  001c0	c6 45 e9 ec	 mov	 BYTE PTR __k$[ebp+5], -20 ; ffffffecH
  001c4	eb 1c		 jmp	 SHORT $LN1@LoadFloat_@2
$LN92@LoadFloat_@2:
  001c6	c6 45 e8 ed	 mov	 BYTE PTR __k$[ebp+4], -19 ; ffffffedH
  001ca	eb 16		 jmp	 SHORT $LN1@LoadFloat_@2
$LN93@LoadFloat_@2:
  001cc	c6 45 e7 ea	 mov	 BYTE PTR __k$[ebp+3], -22 ; ffffffeaH
  001d0	eb 10		 jmp	 SHORT $LN1@LoadFloat_@2
$LN94@LoadFloat_@2:
  001d2	c6 45 e6 eb	 mov	 BYTE PTR __k$[ebp+2], -21 ; ffffffebH
  001d6	eb 0a		 jmp	 SHORT $LN1@LoadFloat_@2
$LN95@LoadFloat_@2:
  001d8	c6 45 e5 ec	 mov	 BYTE PTR __k$[ebp+1], -20 ; ffffffecH
  001dc	eb 04		 jmp	 SHORT $LN1@LoadFloat_@2
$LN96@LoadFloat_@2:
  001de	c6 45 e4 ed	 mov	 BYTE PTR __k$[ebp], -19	; ffffffedH
$LN1@LoadFloat_@2:
  001e2	6a 04		 push	 4
  001e4	8d 45 e4	 lea	 eax, DWORD PTR __k$[ebp]
  001e7	c6 45 f5 00	 mov	 BYTE PTR __k$[ebp+17], 0
  001eb	5a		 pop	 edx
$LL104@LoadFloat_@2:
  001ec	81 30 ed ec eb
	ea		 xor	 DWORD PTR [eax], -353637139 ; eaebecedH
  001f2	83 c0 04	 add	 eax, 4
  001f5	4a		 dec	 edx
  001f6	75 f4		 jne	 SHORT $LL104@LoadFloat_@2

; 137  : 		return LoadFloat(_k, f);

  001f8	f3 0f 10 45 0c	 movss	 xmm0, DWORD PTR _f$[ebp]
  001fd	80 75 f4 ed	 xor	 BYTE PTR __k$[ebp+16], -19 ; ffffffedH
  00201	51		 push	 ecx
  00202	8d 45 e4	 lea	 eax, DWORD PTR __k$[ebp]
  00205	f3 0f 11 04 24	 movss	 DWORD PTR [esp], xmm0
  0020a	50		 push	 eax
  0020b	8b ce		 mov	 ecx, esi
  0020d	ff 15 00 00 00
	00		 call	 DWORD PTR __imp_?LoadFloat@ioINILoader@@QAEMPBDM@Z

; 138  : 	}

  00213	8b 4d fc	 mov	 ecx, DWORD PTR __$ArrayPad$[ebp]
  00216	33 cd		 xor	 ecx, ebp
  00218	5e		 pop	 esi
  00219	e8 00 00 00 00	 call	 @__security_check_cookie@4
  0021e	c9		 leave
  0021f	c2 08 00	 ret	 8
??$LoadFloat_e@$0BC@@ioINILoader@@QAEMAAY0BC@$$CBDM@Z ENDP ; ioINILoader::LoadFloat_e<18>
_TEXT	ENDS
PUBLIC	_this$GSCopy$
PUBLIC	__$ArrayPad$
PUBLIC	??$LoadString_e@$0BD@@ioINILoader@@QAEXAAY0BD@$$CBDAAY00$$CBDPADH@Z ; ioINILoader::LoadString_e<19>
; Function compile flags: /Ogsp
;	COMDAT ??$LoadString_e@$0BD@@ioINILoader@@QAEXAAY0BD@$$CBDAAY00$$CBDPADH@Z
_TEXT	SEGMENT
_this$GSCopy$ = -32					; size = 4
__k$ = -28						; size = 19
__$ArrayPad$ = -4					; size = 4
_k$ = 8							; size = 4
_d$ = 12						; size = 4
_b$ = 16						; size = 4
_i$ = 20						; size = 4
??$LoadString_e@$0BD@@ioINILoader@@QAEXAAY0BD@$$CBDAAY00$$CBDPADH@Z PROC ; ioINILoader::LoadString_e<19>, COMDAT
; _this$ = ecx

; 161  : 	{

  00000	55		 push	 ebp
  00001	8b ec		 mov	 ebp, esp
  00003	83 ec 20	 sub	 esp, 32			; 00000020H
  00006	a1 00 00 00 00	 mov	 eax, DWORD PTR ___security_cookie
  0000b	33 c5		 xor	 eax, ebp
  0000d	89 45 fc	 mov	 DWORD PTR __$ArrayPad$[ebp], eax
  00010	8b 45 08	 mov	 eax, DWORD PTR _k$[ebp]

; 162  : 		_ENCSTR(k, _k);

  00013	8a 10		 mov	 dl, BYTE PTR [eax]
  00015	56		 push	 esi
  00016	8b 75 0c	 mov	 esi, DWORD PTR _d$[ebp]
  00019	57		 push	 edi
  0001a	8b 7d 10	 mov	 edi, DWORD PTR _b$[ebp]
  0001d	89 4d e0	 mov	 DWORD PTR _this$GSCopy$[ebp], ecx
  00020	84 d2		 test	 dl, dl
  00022	0f 84 cf 01 00
	00		 je	 $LN96@LoadString@3
  00028	80 f2 ed	 xor	 dl, -19			; ffffffedH
  0002b	88 55 e4	 mov	 BYTE PTR __k$[ebp], dl
  0002e	8a 50 01	 mov	 dl, BYTE PTR [eax+1]
  00031	84 d2		 test	 dl, dl
  00033	0f 84 b8 01 00
	00		 je	 $LN95@LoadString@3
  00039	b1 ec		 mov	 cl, -20			; ffffffecH
  0003b	32 d1		 xor	 dl, cl
  0003d	88 55 e5	 mov	 BYTE PTR __k$[ebp+1], dl
  00040	8a 50 02	 mov	 dl, BYTE PTR [eax+2]
  00043	84 d2		 test	 dl, dl
  00045	0f 84 a0 01 00
	00		 je	 $LN94@LoadString@3
  0004b	80 f2 eb	 xor	 dl, -21			; ffffffebH
  0004e	88 55 e6	 mov	 BYTE PTR __k$[ebp+2], dl
  00051	8a 50 03	 mov	 dl, BYTE PTR [eax+3]
  00054	84 d2		 test	 dl, dl
  00056	0f 84 89 01 00
	00		 je	 $LN93@LoadString@3
  0005c	80 f2 ea	 xor	 dl, -22			; ffffffeaH
  0005f	88 55 e7	 mov	 BYTE PTR __k$[ebp+3], dl
  00062	8a 50 04	 mov	 dl, BYTE PTR [eax+4]
  00065	84 d2		 test	 dl, dl
  00067	0f 84 72 01 00
	00		 je	 $LN92@LoadString@3
  0006d	80 f2 ed	 xor	 dl, -19			; ffffffedH
  00070	88 55 e8	 mov	 BYTE PTR __k$[ebp+4], dl
  00073	8a 50 05	 mov	 dl, BYTE PTR [eax+5]
  00076	84 d2		 test	 dl, dl
  00078	0f 84 5c 01 00
	00		 je	 $LN91@LoadString@3
  0007e	32 d1		 xor	 dl, cl
  00080	88 55 e9	 mov	 BYTE PTR __k$[ebp+5], dl
  00083	8a 50 06	 mov	 dl, BYTE PTR [eax+6]
  00086	84 d2		 test	 dl, dl
  00088	0f 84 46 01 00
	00		 je	 $LN90@LoadString@3
  0008e	80 f2 eb	 xor	 dl, -21			; ffffffebH
  00091	88 55 ea	 mov	 BYTE PTR __k$[ebp+6], dl
  00094	8a 50 07	 mov	 dl, BYTE PTR [eax+7]
  00097	84 d2		 test	 dl, dl
  00099	0f 84 2f 01 00
	00		 je	 $LN89@LoadString@3
  0009f	80 f2 ea	 xor	 dl, -22			; ffffffeaH
  000a2	88 55 eb	 mov	 BYTE PTR __k$[ebp+7], dl
  000a5	8a 50 08	 mov	 dl, BYTE PTR [eax+8]
  000a8	84 d2		 test	 dl, dl
  000aa	0f 84 18 01 00
	00		 je	 $LN88@LoadString@3
  000b0	80 f2 ed	 xor	 dl, -19			; ffffffedH
  000b3	88 55 ec	 mov	 BYTE PTR __k$[ebp+8], dl
  000b6	8a 50 09	 mov	 dl, BYTE PTR [eax+9]
  000b9	84 d2		 test	 dl, dl
  000bb	0f 84 02 01 00
	00		 je	 $LN87@LoadString@3
  000c1	32 d1		 xor	 dl, cl
  000c3	88 55 ed	 mov	 BYTE PTR __k$[ebp+9], dl
  000c6	8a 50 0a	 mov	 dl, BYTE PTR [eax+10]
  000c9	84 d2		 test	 dl, dl
  000cb	0f 84 ec 00 00
	00		 je	 $LN86@LoadString@3
  000d1	80 f2 eb	 xor	 dl, -21			; ffffffebH
  000d4	88 55 ee	 mov	 BYTE PTR __k$[ebp+10], dl
  000d7	8a 50 0b	 mov	 dl, BYTE PTR [eax+11]
  000da	84 d2		 test	 dl, dl
  000dc	0f 84 d5 00 00
	00		 je	 $LN85@LoadString@3
  000e2	80 f2 ea	 xor	 dl, -22			; ffffffeaH
  000e5	88 55 ef	 mov	 BYTE PTR __k$[ebp+11], dl
  000e8	8a 50 0c	 mov	 dl, BYTE PTR [eax+12]
  000eb	84 d2		 test	 dl, dl
  000ed	0f 84 be 00 00
	00		 je	 $LN84@LoadString@3
  000f3	80 f2 ed	 xor	 dl, -19			; ffffffedH
  000f6	88 55 f0	 mov	 BYTE PTR __k$[ebp+12], dl
  000f9	8a 50 0d	 mov	 dl, BYTE PTR [eax+13]
  000fc	84 d2		 test	 dl, dl
  000fe	0f 84 a8 00 00
	00		 je	 $LN83@LoadString@3
  00104	32 d1		 xor	 dl, cl
  00106	88 55 f1	 mov	 BYTE PTR __k$[ebp+13], dl
  00109	8a 50 0e	 mov	 dl, BYTE PTR [eax+14]
  0010c	84 d2		 test	 dl, dl
  0010e	0f 84 92 00 00
	00		 je	 $LN82@LoadString@3
  00114	80 f2 eb	 xor	 dl, -21			; ffffffebH
  00117	88 55 f2	 mov	 BYTE PTR __k$[ebp+14], dl
  0011a	8a 50 0f	 mov	 dl, BYTE PTR [eax+15]
  0011d	84 d2		 test	 dl, dl
  0011f	74 7f		 je	 SHORT $LN81@LoadString@3
  00121	80 f2 ea	 xor	 dl, -22			; ffffffeaH
  00124	88 55 f3	 mov	 BYTE PTR __k$[ebp+15], dl
  00127	8a 50 10	 mov	 dl, BYTE PTR [eax+16]
  0012a	84 d2		 test	 dl, dl
  0012c	74 6c		 je	 SHORT $LN80@LoadString@3
  0012e	80 f2 ed	 xor	 dl, -19			; ffffffedH
  00131	88 55 f4	 mov	 BYTE PTR __k$[ebp+16], dl
  00134	8a 50 11	 mov	 dl, BYTE PTR [eax+17]
  00137	84 d2		 test	 dl, dl
  00139	74 5a		 je	 SHORT $LN79@LoadString@3
  0013b	32 d1		 xor	 dl, cl
  0013d	80 78 12 00	 cmp	 BYTE PTR [eax+18], 0
  00141	88 55 f5	 mov	 BYTE PTR __k$[ebp+17], dl
  00144	0f 84 b1 00 00
	00		 je	 $LN111@LoadString@3
  0014a	8a 50 13	 mov	 dl, BYTE PTR [eax+19]
  0014d	84 d2		 test	 dl, dl
  0014f	74 3e		 je	 SHORT $LN77@LoadString@3
  00151	80 f2 ea	 xor	 dl, -22			; ffffffeaH
  00154	88 55 f7	 mov	 BYTE PTR __k$[ebp+19], dl
  00157	8a 50 14	 mov	 dl, BYTE PTR [eax+20]
  0015a	84 d2		 test	 dl, dl
  0015c	74 2b		 je	 SHORT $LN76@LoadString@3
  0015e	80 f2 ed	 xor	 dl, -19			; ffffffedH
  00161	88 55 f8	 mov	 BYTE PTR __k$[ebp+20], dl
  00164	8a 50 15	 mov	 dl, BYTE PTR [eax+21]
  00167	84 d2		 test	 dl, dl
  00169	74 19		 je	 SHORT $LN75@LoadString@3
  0016b	8a 40 16	 mov	 al, BYTE PTR [eax+22]
  0016e	32 d1		 xor	 dl, cl
  00170	88 55 f9	 mov	 BYTE PTR __k$[ebp+21], dl
  00173	84 c0		 test	 al, al
  00175	74 07		 je	 SHORT $LN74@LoadString@3
  00177	34 eb		 xor	 al, -21			; ffffffebH
  00179	88 45 fa	 mov	 BYTE PTR __k$[ebp+22], al
  0017c	eb 7d		 jmp	 SHORT $LN111@LoadString@3
$LN74@LoadString@3:
  0017e	c6 45 fa eb	 mov	 BYTE PTR __k$[ebp+22], -21 ; ffffffebH
  00182	eb 77		 jmp	 SHORT $LN111@LoadString@3
$LN75@LoadString@3:
  00184	88 4d f9	 mov	 BYTE PTR __k$[ebp+21], cl
  00187	eb 72		 jmp	 SHORT $LN111@LoadString@3
$LN76@LoadString@3:
  00189	c6 45 f8 ed	 mov	 BYTE PTR __k$[ebp+20], -19 ; ffffffedH
  0018d	eb 6c		 jmp	 SHORT $LN111@LoadString@3
$LN77@LoadString@3:
  0018f	c6 45 f7 ea	 mov	 BYTE PTR __k$[ebp+19], -22 ; ffffffeaH
  00193	eb 66		 jmp	 SHORT $LN111@LoadString@3
$LN79@LoadString@3:
  00195	88 4d f5	 mov	 BYTE PTR __k$[ebp+17], cl
  00198	eb 61		 jmp	 SHORT $LN111@LoadString@3
$LN80@LoadString@3:
  0019a	c6 45 f4 ed	 mov	 BYTE PTR __k$[ebp+16], -19 ; ffffffedH
  0019e	eb 5b		 jmp	 SHORT $LN111@LoadString@3
$LN81@LoadString@3:
  001a0	c6 45 f3 ea	 mov	 BYTE PTR __k$[ebp+15], -22 ; ffffffeaH
  001a4	eb 55		 jmp	 SHORT $LN111@LoadString@3
$LN82@LoadString@3:
  001a6	c6 45 f2 eb	 mov	 BYTE PTR __k$[ebp+14], -21 ; ffffffebH
  001aa	eb 4f		 jmp	 SHORT $LN111@LoadString@3
$LN83@LoadString@3:
  001ac	88 4d f1	 mov	 BYTE PTR __k$[ebp+13], cl
  001af	eb 4a		 jmp	 SHORT $LN111@LoadString@3
$LN84@LoadString@3:
  001b1	c6 45 f0 ed	 mov	 BYTE PTR __k$[ebp+12], -19 ; ffffffedH
  001b5	eb 44		 jmp	 SHORT $LN111@LoadString@3
$LN85@LoadString@3:
  001b7	c6 45 ef ea	 mov	 BYTE PTR __k$[ebp+11], -22 ; ffffffeaH
  001bb	eb 3e		 jmp	 SHORT $LN111@LoadString@3
$LN86@LoadString@3:
  001bd	c6 45 ee eb	 mov	 BYTE PTR __k$[ebp+10], -21 ; ffffffebH
  001c1	eb 38		 jmp	 SHORT $LN111@LoadString@3
$LN87@LoadString@3:
  001c3	88 4d ed	 mov	 BYTE PTR __k$[ebp+9], cl
  001c6	eb 33		 jmp	 SHORT $LN111@LoadString@3
$LN88@LoadString@3:
  001c8	c6 45 ec ed	 mov	 BYTE PTR __k$[ebp+8], -19 ; ffffffedH
  001cc	eb 2d		 jmp	 SHORT $LN111@LoadString@3
$LN89@LoadString@3:
  001ce	c6 45 eb ea	 mov	 BYTE PTR __k$[ebp+7], -22 ; ffffffeaH
  001d2	eb 27		 jmp	 SHORT $LN111@LoadString@3
$LN90@LoadString@3:
  001d4	c6 45 ea eb	 mov	 BYTE PTR __k$[ebp+6], -21 ; ffffffebH
  001d8	eb 21		 jmp	 SHORT $LN111@LoadString@3
$LN91@LoadString@3:
  001da	88 4d e9	 mov	 BYTE PTR __k$[ebp+5], cl
  001dd	eb 1c		 jmp	 SHORT $LN111@LoadString@3
$LN92@LoadString@3:
  001df	c6 45 e8 ed	 mov	 BYTE PTR __k$[ebp+4], -19 ; ffffffedH
  001e3	eb 16		 jmp	 SHORT $LN111@LoadString@3
$LN93@LoadString@3:
  001e5	c6 45 e7 ea	 mov	 BYTE PTR __k$[ebp+3], -22 ; ffffffeaH
  001e9	eb 10		 jmp	 SHORT $LN111@LoadString@3
$LN94@LoadString@3:
  001eb	c6 45 e6 eb	 mov	 BYTE PTR __k$[ebp+2], -21 ; ffffffebH
  001ef	eb 0a		 jmp	 SHORT $LN111@LoadString@3
$LN95@LoadString@3:
  001f1	c6 45 e5 ec	 mov	 BYTE PTR __k$[ebp+1], -20 ; ffffffecH
  001f5	eb 04		 jmp	 SHORT $LN111@LoadString@3
$LN96@LoadString@3:
  001f7	c6 45 e4 ed	 mov	 BYTE PTR __k$[ebp], -19	; ffffffedH
$LN111@LoadString@3:
  001fb	6a 04		 push	 4
  001fd	8d 45 e4	 lea	 eax, DWORD PTR __k$[ebp]
  00200	c6 45 f6 00	 mov	 BYTE PTR __k$[ebp+18], 0
  00204	5a		 pop	 edx
$LL104@LoadString@3:
  00205	81 30 ed ec eb
	ea		 xor	 DWORD PTR [eax], -353637139 ; eaebecedH
  0020b	83 c0 04	 add	 eax, 4
  0020e	4a		 dec	 edx
  0020f	75 f4		 jne	 SHORT $LL104@LoadString@3
  00211	6a 10		 push	 16			; 00000010H
  00213	58		 pop	 eax
$LL101@LoadString@3:
  00214	8b c8		 mov	 ecx, eax
  00216	81 e1 03 00 00
	80		 and	 ecx, -2147483645	; 80000003H
  0021c	79 05		 jns	 SHORT $LN112@LoadString@3
  0021e	49		 dec	 ecx
  0021f	83 c9 fc	 or	 ecx, -4			; fffffffcH
  00222	41		 inc	 ecx
$LN112@LoadString@3:
  00223	b2 ed		 mov	 dl, -19			; ffffffedH
  00225	2a d1		 sub	 dl, cl
  00227	30 54 05 e4	 xor	 BYTE PTR __k$[ebp+eax], dl
  0022b	40		 inc	 eax
  0022c	83 f8 12	 cmp	 eax, 18			; 00000012H
  0022f	7c e3		 jl	 SHORT $LL101@LoadString@3

; 163  : 		LoadString(_k, d, b, i);

  00231	ff 75 14	 push	 DWORD PTR _i$[ebp]
  00234	8b 4d e0	 mov	 ecx, DWORD PTR _this$GSCopy$[ebp]
  00237	57		 push	 edi
  00238	56		 push	 esi
  00239	8d 45 e4	 lea	 eax, DWORD PTR __k$[ebp]
  0023c	50		 push	 eax
  0023d	ff 15 00 00 00
	00		 call	 DWORD PTR __imp_?LoadStringA@ioINILoader@@QAEXPBD0PADH@Z

; 164  : 	}

  00243	8b 4d fc	 mov	 ecx, DWORD PTR __$ArrayPad$[ebp]
  00246	5f		 pop	 edi
  00247	33 cd		 xor	 ecx, ebp
  00249	5e		 pop	 esi
  0024a	e8 00 00 00 00	 call	 @__security_check_cookie@4
  0024f	c9		 leave
  00250	c2 10 00	 ret	 16			; 00000010H
??$LoadString_e@$0BD@@ioINILoader@@QAEXAAY0BD@$$CBDAAY00$$CBDPADH@Z ENDP ; ioINILoader::LoadString_e<19>
_TEXT	ENDS
PUBLIC	__$ArrayPad$
PUBLIC	??$LoadFloat_e@$0BI@@ioINILoader@@QAEMAAY0BI@$$CBDM@Z ; ioINILoader::LoadFloat_e<24>
; Function compile flags: /Ogsp
;	COMDAT ??$LoadFloat_e@$0BI@@ioINILoader@@QAEMAAY0BI@$$CBDM@Z
_TEXT	SEGMENT
__k$ = -32						; size = 24
__$ArrayPad$ = -4					; size = 4
_k$ = 8							; size = 4
_f$ = 12						; size = 4
??$LoadFloat_e@$0BI@@ioINILoader@@QAEMAAY0BI@$$CBDM@Z PROC ; ioINILoader::LoadFloat_e<24>, COMDAT
; _this$ = ecx

; 135  : 	{

  00000	55		 push	 ebp
  00001	8b ec		 mov	 ebp, esp
  00003	83 ec 20	 sub	 esp, 32			; 00000020H
  00006	a1 00 00 00 00	 mov	 eax, DWORD PTR ___security_cookie
  0000b	33 c5		 xor	 eax, ebp
  0000d	89 45 fc	 mov	 DWORD PTR __$ArrayPad$[ebp], eax
  00010	8b 45 08	 mov	 eax, DWORD PTR _k$[ebp]

; 136  : 		_ENCSTR(k, _k);

  00013	8a 10		 mov	 dl, BYTE PTR [eax]
  00015	53		 push	 ebx
  00016	56		 push	 esi
  00017	8b f1		 mov	 esi, ecx
  00019	84 d2		 test	 dl, dl
  0001b	0f 84 45 02 00
	00		 je	 $LN96@LoadFloat_@3
  00021	80 f2 ed	 xor	 dl, -19			; ffffffedH
  00024	88 55 e0	 mov	 BYTE PTR __k$[ebp], dl
  00027	8a 50 01	 mov	 dl, BYTE PTR [eax+1]
  0002a	84 d2		 test	 dl, dl
  0002c	0f 84 2e 02 00
	00		 je	 $LN95@LoadFloat_@3
  00032	b3 ec		 mov	 bl, -20			; ffffffecH
  00034	32 d3		 xor	 dl, bl
  00036	88 55 e1	 mov	 BYTE PTR __k$[ebp+1], dl
  00039	8a 50 02	 mov	 dl, BYTE PTR [eax+2]
  0003c	84 d2		 test	 dl, dl
  0003e	0f 84 16 02 00
	00		 je	 $LN94@LoadFloat_@3
  00044	b1 eb		 mov	 cl, -21			; ffffffebH
  00046	32 d1		 xor	 dl, cl
  00048	88 55 e2	 mov	 BYTE PTR __k$[ebp+2], dl
  0004b	8a 50 03	 mov	 dl, BYTE PTR [eax+3]
  0004e	84 d2		 test	 dl, dl
  00050	0f 84 fe 01 00
	00		 je	 $LN93@LoadFloat_@3
  00056	80 f2 ea	 xor	 dl, -22			; ffffffeaH
  00059	88 55 e3	 mov	 BYTE PTR __k$[ebp+3], dl
  0005c	8a 50 04	 mov	 dl, BYTE PTR [eax+4]
  0005f	84 d2		 test	 dl, dl
  00061	0f 84 e7 01 00
	00		 je	 $LN92@LoadFloat_@3
  00067	80 f2 ed	 xor	 dl, -19			; ffffffedH
  0006a	88 55 e4	 mov	 BYTE PTR __k$[ebp+4], dl
  0006d	8a 50 05	 mov	 dl, BYTE PTR [eax+5]
  00070	84 d2		 test	 dl, dl
  00072	0f 84 d1 01 00
	00		 je	 $LN91@LoadFloat_@3
  00078	32 d3		 xor	 dl, bl
  0007a	88 55 e5	 mov	 BYTE PTR __k$[ebp+5], dl
  0007d	8a 50 06	 mov	 dl, BYTE PTR [eax+6]
  00080	84 d2		 test	 dl, dl
  00082	0f 84 bc 01 00
	00		 je	 $LN90@LoadFloat_@3
  00088	32 d1		 xor	 dl, cl
  0008a	88 55 e6	 mov	 BYTE PTR __k$[ebp+6], dl
  0008d	8a 50 07	 mov	 dl, BYTE PTR [eax+7]
  00090	84 d2		 test	 dl, dl
  00092	0f 84 a6 01 00
	00		 je	 $LN89@LoadFloat_@3
  00098	80 f2 ea	 xor	 dl, -22			; ffffffeaH
  0009b	88 55 e7	 mov	 BYTE PTR __k$[ebp+7], dl
  0009e	8a 50 08	 mov	 dl, BYTE PTR [eax+8]
  000a1	84 d2		 test	 dl, dl
  000a3	0f 84 8f 01 00
	00		 je	 $LN88@LoadFloat_@3
  000a9	80 f2 ed	 xor	 dl, -19			; ffffffedH
  000ac	88 55 e8	 mov	 BYTE PTR __k$[ebp+8], dl
  000af	8a 50 09	 mov	 dl, BYTE PTR [eax+9]
  000b2	84 d2		 test	 dl, dl
  000b4	0f 84 79 01 00
	00		 je	 $LN87@LoadFloat_@3
  000ba	32 d3		 xor	 dl, bl
  000bc	88 55 e9	 mov	 BYTE PTR __k$[ebp+9], dl
  000bf	8a 50 0a	 mov	 dl, BYTE PTR [eax+10]
  000c2	84 d2		 test	 dl, dl
  000c4	0f 84 64 01 00
	00		 je	 $LN86@LoadFloat_@3
  000ca	32 d1		 xor	 dl, cl
  000cc	88 55 ea	 mov	 BYTE PTR __k$[ebp+10], dl
  000cf	8a 50 0b	 mov	 dl, BYTE PTR [eax+11]
  000d2	84 d2		 test	 dl, dl
  000d4	0f 84 4e 01 00
	00		 je	 $LN85@LoadFloat_@3
  000da	80 f2 ea	 xor	 dl, -22			; ffffffeaH
  000dd	88 55 eb	 mov	 BYTE PTR __k$[ebp+11], dl
  000e0	8a 50 0c	 mov	 dl, BYTE PTR [eax+12]
  000e3	84 d2		 test	 dl, dl
  000e5	0f 84 37 01 00
	00		 je	 $LN84@LoadFloat_@3
  000eb	80 f2 ed	 xor	 dl, -19			; ffffffedH
  000ee	88 55 ec	 mov	 BYTE PTR __k$[ebp+12], dl
  000f1	8a 50 0d	 mov	 dl, BYTE PTR [eax+13]
  000f4	84 d2		 test	 dl, dl
  000f6	0f 84 21 01 00
	00		 je	 $LN83@LoadFloat_@3
  000fc	32 d3		 xor	 dl, bl
  000fe	88 55 ed	 mov	 BYTE PTR __k$[ebp+13], dl
  00101	8a 50 0e	 mov	 dl, BYTE PTR [eax+14]
  00104	84 d2		 test	 dl, dl
  00106	0f 84 0c 01 00
	00		 je	 $LN82@LoadFloat_@3
  0010c	32 d1		 xor	 dl, cl
  0010e	88 55 ee	 mov	 BYTE PTR __k$[ebp+14], dl
  00111	8a 50 0f	 mov	 dl, BYTE PTR [eax+15]
  00114	84 d2		 test	 dl, dl
  00116	0f 84 f6 00 00
	00		 je	 $LN81@LoadFloat_@3
  0011c	80 f2 ea	 xor	 dl, -22			; ffffffeaH
  0011f	88 55 ef	 mov	 BYTE PTR __k$[ebp+15], dl
  00122	8a 50 10	 mov	 dl, BYTE PTR [eax+16]
  00125	84 d2		 test	 dl, dl
  00127	0f 84 df 00 00
	00		 je	 $LN80@LoadFloat_@3
  0012d	80 f2 ed	 xor	 dl, -19			; ffffffedH
  00130	88 55 f0	 mov	 BYTE PTR __k$[ebp+16], dl
  00133	8a 50 11	 mov	 dl, BYTE PTR [eax+17]
  00136	84 d2		 test	 dl, dl
  00138	0f 84 c9 00 00
	00		 je	 $LN79@LoadFloat_@3
  0013e	32 d3		 xor	 dl, bl
  00140	88 55 f1	 mov	 BYTE PTR __k$[ebp+17], dl
  00143	8a 50 12	 mov	 dl, BYTE PTR [eax+18]
  00146	84 d2		 test	 dl, dl
  00148	0f 84 b4 00 00
	00		 je	 $LN78@LoadFloat_@3
  0014e	32 d1		 xor	 dl, cl
  00150	88 55 f2	 mov	 BYTE PTR __k$[ebp+18], dl
  00153	8a 50 13	 mov	 dl, BYTE PTR [eax+19]
  00156	84 d2		 test	 dl, dl
  00158	0f 84 9e 00 00
	00		 je	 $LN77@LoadFloat_@3
  0015e	80 f2 ea	 xor	 dl, -22			; ffffffeaH
  00161	88 55 f3	 mov	 BYTE PTR __k$[ebp+19], dl
  00164	8a 50 14	 mov	 dl, BYTE PTR [eax+20]
  00167	84 d2		 test	 dl, dl
  00169	0f 84 87 00 00
	00		 je	 $LN76@LoadFloat_@3
  0016f	80 f2 ed	 xor	 dl, -19			; ffffffedH
  00172	88 55 f4	 mov	 BYTE PTR __k$[ebp+20], dl
  00175	8a 50 15	 mov	 dl, BYTE PTR [eax+21]
  00178	84 d2		 test	 dl, dl
  0017a	74 75		 je	 SHORT $LN75@LoadFloat_@3
  0017c	32 d3		 xor	 dl, bl
  0017e	88 55 f5	 mov	 BYTE PTR __k$[ebp+21], dl
  00181	8a 50 16	 mov	 dl, BYTE PTR [eax+22]
  00184	84 d2		 test	 dl, dl
  00186	74 64		 je	 SHORT $LN74@LoadFloat_@3
  00188	32 d1		 xor	 dl, cl
  0018a	80 78 17 00	 cmp	 BYTE PTR [eax+23], 0
  0018e	88 55 f6	 mov	 BYTE PTR __k$[ebp+22], dl
  00191	0f 84 d3 00 00
	00		 je	 $LN1@LoadFloat_@3
  00197	8a 50 18	 mov	 dl, BYTE PTR [eax+24]
  0019a	84 d2		 test	 dl, dl
  0019c	74 48		 je	 SHORT $LN72@LoadFloat_@3
  0019e	80 f2 ed	 xor	 dl, -19			; ffffffedH
  001a1	88 55 f8	 mov	 BYTE PTR __k$[ebp+24], dl
  001a4	8a 50 19	 mov	 dl, BYTE PTR [eax+25]
  001a7	84 d2		 test	 dl, dl
  001a9	74 33		 je	 SHORT $LN71@LoadFloat_@3
  001ab	32 d3		 xor	 dl, bl
  001ad	88 55 f9	 mov	 BYTE PTR __k$[ebp+25], dl
  001b0	8a 50 1a	 mov	 dl, BYTE PTR [eax+26]
  001b3	84 d2		 test	 dl, dl
  001b5	74 1f		 je	 SHORT $LN70@LoadFloat_@3
  001b7	8a 40 1b	 mov	 al, BYTE PTR [eax+27]
  001ba	32 d1		 xor	 dl, cl
  001bc	88 55 fa	 mov	 BYTE PTR __k$[ebp+26], dl
  001bf	84 c0		 test	 al, al
  001c1	74 0a		 je	 SHORT $LN69@LoadFloat_@3
  001c3	34 ea		 xor	 al, -22			; ffffffeaH
  001c5	88 45 fb	 mov	 BYTE PTR __k$[ebp+27], al
  001c8	e9 9d 00 00 00	 jmp	 $LN1@LoadFloat_@3
$LN69@LoadFloat_@3:
  001cd	c6 45 fb ea	 mov	 BYTE PTR __k$[ebp+27], -22 ; ffffffeaH
  001d1	e9 94 00 00 00	 jmp	 $LN1@LoadFloat_@3
$LN70@LoadFloat_@3:
  001d6	88 4d fa	 mov	 BYTE PTR __k$[ebp+26], cl
  001d9	e9 8c 00 00 00	 jmp	 $LN1@LoadFloat_@3
$LN71@LoadFloat_@3:
  001de	88 5d f9	 mov	 BYTE PTR __k$[ebp+25], bl
  001e1	e9 84 00 00 00	 jmp	 $LN1@LoadFloat_@3
$LN72@LoadFloat_@3:
  001e6	c6 45 f8 ed	 mov	 BYTE PTR __k$[ebp+24], -19 ; ffffffedH
  001ea	eb 7e		 jmp	 SHORT $LN1@LoadFloat_@3
$LN74@LoadFloat_@3:
  001ec	88 4d f6	 mov	 BYTE PTR __k$[ebp+22], cl
  001ef	eb 79		 jmp	 SHORT $LN1@LoadFloat_@3
$LN75@LoadFloat_@3:
  001f1	88 5d f5	 mov	 BYTE PTR __k$[ebp+21], bl
  001f4	eb 74		 jmp	 SHORT $LN1@LoadFloat_@3
$LN76@LoadFloat_@3:
  001f6	c6 45 f4 ed	 mov	 BYTE PTR __k$[ebp+20], -19 ; ffffffedH
  001fa	eb 6e		 jmp	 SHORT $LN1@LoadFloat_@3
$LN77@LoadFloat_@3:
  001fc	c6 45 f3 ea	 mov	 BYTE PTR __k$[ebp+19], -22 ; ffffffeaH
  00200	eb 68		 jmp	 SHORT $LN1@LoadFloat_@3
$LN78@LoadFloat_@3:
  00202	88 4d f2	 mov	 BYTE PTR __k$[ebp+18], cl
  00205	eb 63		 jmp	 SHORT $LN1@LoadFloat_@3
$LN79@LoadFloat_@3:
  00207	88 5d f1	 mov	 BYTE PTR __k$[ebp+17], bl
  0020a	eb 5e		 jmp	 SHORT $LN1@LoadFloat_@3
$LN80@LoadFloat_@3:
  0020c	c6 45 f0 ed	 mov	 BYTE PTR __k$[ebp+16], -19 ; ffffffedH
  00210	eb 58		 jmp	 SHORT $LN1@LoadFloat_@3
$LN81@LoadFloat_@3:
  00212	c6 45 ef ea	 mov	 BYTE PTR __k$[ebp+15], -22 ; ffffffeaH
  00216	eb 52		 jmp	 SHORT $LN1@LoadFloat_@3
$LN82@LoadFloat_@3:
  00218	88 4d ee	 mov	 BYTE PTR __k$[ebp+14], cl
  0021b	eb 4d		 jmp	 SHORT $LN1@LoadFloat_@3
$LN83@LoadFloat_@3:
  0021d	88 5d ed	 mov	 BYTE PTR __k$[ebp+13], bl
  00220	eb 48		 jmp	 SHORT $LN1@LoadFloat_@3
$LN84@LoadFloat_@3:
  00222	c6 45 ec ed	 mov	 BYTE PTR __k$[ebp+12], -19 ; ffffffedH
  00226	eb 42		 jmp	 SHORT $LN1@LoadFloat_@3
$LN85@LoadFloat_@3:
  00228	c6 45 eb ea	 mov	 BYTE PTR __k$[ebp+11], -22 ; ffffffeaH
  0022c	eb 3c		 jmp	 SHORT $LN1@LoadFloat_@3
$LN86@LoadFloat_@3:
  0022e	88 4d ea	 mov	 BYTE PTR __k$[ebp+10], cl
  00231	eb 37		 jmp	 SHORT $LN1@LoadFloat_@3
$LN87@LoadFloat_@3:
  00233	88 5d e9	 mov	 BYTE PTR __k$[ebp+9], bl
  00236	eb 32		 jmp	 SHORT $LN1@LoadFloat_@3
$LN88@LoadFloat_@3:
  00238	c6 45 e8 ed	 mov	 BYTE PTR __k$[ebp+8], -19 ; ffffffedH
  0023c	eb 2c		 jmp	 SHORT $LN1@LoadFloat_@3
$LN89@LoadFloat_@3:
  0023e	c6 45 e7 ea	 mov	 BYTE PTR __k$[ebp+7], -22 ; ffffffeaH
  00242	eb 26		 jmp	 SHORT $LN1@LoadFloat_@3
$LN90@LoadFloat_@3:
  00244	88 4d e6	 mov	 BYTE PTR __k$[ebp+6], cl
  00247	eb 21		 jmp	 SHORT $LN1@LoadFloat_@3
$LN91@LoadFloat_@3:
  00249	88 5d e5	 mov	 BYTE PTR __k$[ebp+5], bl
  0024c	eb 1c		 jmp	 SHORT $LN1@LoadFloat_@3
$LN92@LoadFloat_@3:
  0024e	c6 45 e4 ed	 mov	 BYTE PTR __k$[ebp+4], -19 ; ffffffedH
  00252	eb 16		 jmp	 SHORT $LN1@LoadFloat_@3
$LN93@LoadFloat_@3:
  00254	c6 45 e3 ea	 mov	 BYTE PTR __k$[ebp+3], -22 ; ffffffeaH
  00258	eb 10		 jmp	 SHORT $LN1@LoadFloat_@3
$LN94@LoadFloat_@3:
  0025a	c6 45 e2 eb	 mov	 BYTE PTR __k$[ebp+2], -21 ; ffffffebH
  0025e	eb 0a		 jmp	 SHORT $LN1@LoadFloat_@3
$LN95@LoadFloat_@3:
  00260	c6 45 e1 ec	 mov	 BYTE PTR __k$[ebp+1], -20 ; ffffffecH
  00264	eb 04		 jmp	 SHORT $LN1@LoadFloat_@3
$LN96@LoadFloat_@3:
  00266	c6 45 e0 ed	 mov	 BYTE PTR __k$[ebp], -19	; ffffffedH
$LN1@LoadFloat_@3:
  0026a	6a 05		 push	 5
  0026c	8d 45 e0	 lea	 eax, DWORD PTR __k$[ebp]
  0026f	c6 45 f7 00	 mov	 BYTE PTR __k$[ebp+23], 0
  00273	5a		 pop	 edx
$LL104@LoadFloat_@3:
  00274	81 30 ed ec eb
	ea		 xor	 DWORD PTR [eax], -353637139 ; eaebecedH
  0027a	83 c0 04	 add	 eax, 4
  0027d	4a		 dec	 edx
  0027e	75 f4		 jne	 SHORT $LL104@LoadFloat_@3
  00280	6a 14		 push	 20			; 00000014H
  00282	58		 pop	 eax
$LL101@LoadFloat_@3:
  00283	8b c8		 mov	 ecx, eax
  00285	81 e1 03 00 00
	80		 and	 ecx, -2147483645	; 80000003H
  0028b	79 05		 jns	 SHORT $LN111@LoadFloat_@3
  0028d	49		 dec	 ecx
  0028e	83 c9 fc	 or	 ecx, -4			; fffffffcH
  00291	41		 inc	 ecx
$LN111@LoadFloat_@3:
  00292	b2 ed		 mov	 dl, -19			; ffffffedH
  00294	2a d1		 sub	 dl, cl
  00296	30 54 05 e0	 xor	 BYTE PTR __k$[ebp+eax], dl
  0029a	40		 inc	 eax
  0029b	83 f8 17	 cmp	 eax, 23			; 00000017H
  0029e	7c e3		 jl	 SHORT $LL101@LoadFloat_@3

; 137  : 		return LoadFloat(_k, f);

  002a0	f3 0f 10 45 0c	 movss	 xmm0, DWORD PTR _f$[ebp]
  002a5	51		 push	 ecx
  002a6	8d 45 e0	 lea	 eax, DWORD PTR __k$[ebp]
  002a9	f3 0f 11 04 24	 movss	 DWORD PTR [esp], xmm0
  002ae	50		 push	 eax
  002af	8b ce		 mov	 ecx, esi
  002b1	ff 15 00 00 00
	00		 call	 DWORD PTR __imp_?LoadFloat@ioINILoader@@QAEMPBDM@Z

; 138  : 	}

  002b7	8b 4d fc	 mov	 ecx, DWORD PTR __$ArrayPad$[ebp]
  002ba	5e		 pop	 esi
  002bb	33 cd		 xor	 ecx, ebp
  002bd	5b		 pop	 ebx
  002be	e8 00 00 00 00	 call	 @__security_check_cookie@4
  002c3	c9		 leave
  002c4	c2 08 00	 ret	 8
??$LoadFloat_e@$0BI@@ioINILoader@@QAEMAAY0BI@$$CBDM@Z ENDP ; ioINILoader::LoadFloat_e<24>
_TEXT	ENDS
PUBLIC	_this$GSCopy$
PUBLIC	__$ArrayPad$
PUBLIC	??$LoadString_e@$0M@@ioINILoader@@QAEXAAY0M@$$CBDAAY00$$CBDPADH@Z ; ioINILoader::LoadString_e<12>
; Function compile flags: /Ogsp
;	COMDAT ??$LoadString_e@$0M@@ioINILoader@@QAEXAAY0M@$$CBDAAY00$$CBDPADH@Z
_TEXT	SEGMENT
_this$GSCopy$ = -24					; size = 4
__k$ = -20						; size = 12
__$ArrayPad$ = -4					; size = 4
_k$ = 8							; size = 4
_d$ = 12						; size = 4
_b$ = 16						; size = 4
_i$ = 20						; size = 4
??$LoadString_e@$0M@@ioINILoader@@QAEXAAY0M@$$CBDAAY00$$CBDPADH@Z PROC ; ioINILoader::LoadString_e<12>, COMDAT
; _this$ = ecx

; 161  : 	{

  00000	55		 push	 ebp
  00001	8b ec		 mov	 ebp, esp
  00003	83 ec 18	 sub	 esp, 24			; 00000018H
  00006	a1 00 00 00 00	 mov	 eax, DWORD PTR ___security_cookie
  0000b	33 c5		 xor	 eax, ebp
  0000d	89 45 fc	 mov	 DWORD PTR __$ArrayPad$[ebp], eax
  00010	8b 45 08	 mov	 eax, DWORD PTR _k$[ebp]

; 162  : 		_ENCSTR(k, _k);

  00013	8a 10		 mov	 dl, BYTE PTR [eax]
  00015	56		 push	 esi
  00016	8b 75 0c	 mov	 esi, DWORD PTR _d$[ebp]
  00019	57		 push	 edi
  0001a	8b 7d 10	 mov	 edi, DWORD PTR _b$[ebp]
  0001d	89 4d e8	 mov	 DWORD PTR _this$GSCopy$[ebp], ecx
  00020	84 d2		 test	 dl, dl
  00022	0f 84 32 01 00
	00		 je	 $LN96@LoadString@4
  00028	80 f2 ed	 xor	 dl, -19			; ffffffedH
  0002b	88 55 ec	 mov	 BYTE PTR __k$[ebp], dl
  0002e	8a 50 01	 mov	 dl, BYTE PTR [eax+1]
  00031	84 d2		 test	 dl, dl
  00033	0f 84 1b 01 00
	00		 je	 $LN95@LoadString@4
  00039	80 f2 ec	 xor	 dl, -20			; ffffffecH
  0003c	88 55 ed	 mov	 BYTE PTR __k$[ebp+1], dl
  0003f	8a 50 02	 mov	 dl, BYTE PTR [eax+2]
  00042	84 d2		 test	 dl, dl
  00044	0f 84 04 01 00
	00		 je	 $LN94@LoadString@4
  0004a	b1 eb		 mov	 cl, -21			; ffffffebH
  0004c	32 d1		 xor	 dl, cl
  0004e	88 55 ee	 mov	 BYTE PTR __k$[ebp+2], dl
  00051	8a 50 03	 mov	 dl, BYTE PTR [eax+3]
  00054	84 d2		 test	 dl, dl
  00056	0f 84 ec 00 00
	00		 je	 $LN93@LoadString@4
  0005c	80 f2 ea	 xor	 dl, -22			; ffffffeaH
  0005f	88 55 ef	 mov	 BYTE PTR __k$[ebp+3], dl
  00062	8a 50 04	 mov	 dl, BYTE PTR [eax+4]
  00065	84 d2		 test	 dl, dl
  00067	0f 84 d5 00 00
	00		 je	 $LN92@LoadString@4
  0006d	80 f2 ed	 xor	 dl, -19			; ffffffedH
  00070	88 55 f0	 mov	 BYTE PTR __k$[ebp+4], dl
  00073	8a 50 05	 mov	 dl, BYTE PTR [eax+5]
  00076	84 d2		 test	 dl, dl
  00078	0f 84 be 00 00
	00		 je	 $LN91@LoadString@4
  0007e	80 f2 ec	 xor	 dl, -20			; ffffffecH
  00081	88 55 f1	 mov	 BYTE PTR __k$[ebp+5], dl
  00084	8a 50 06	 mov	 dl, BYTE PTR [eax+6]
  00087	84 d2		 test	 dl, dl
  00089	0f 84 a8 00 00
	00		 je	 $LN90@LoadString@4
  0008f	32 d1		 xor	 dl, cl
  00091	88 55 f2	 mov	 BYTE PTR __k$[ebp+6], dl
  00094	8a 50 07	 mov	 dl, BYTE PTR [eax+7]
  00097	84 d2		 test	 dl, dl
  00099	0f 84 92 00 00
	00		 je	 $LN89@LoadString@4
  0009f	80 f2 ea	 xor	 dl, -22			; ffffffeaH
  000a2	88 55 f3	 mov	 BYTE PTR __k$[ebp+7], dl
  000a5	8a 50 08	 mov	 dl, BYTE PTR [eax+8]
  000a8	84 d2		 test	 dl, dl
  000aa	74 7f		 je	 SHORT $LN88@LoadString@4
  000ac	80 f2 ed	 xor	 dl, -19			; ffffffedH
  000af	88 55 f4	 mov	 BYTE PTR __k$[ebp+8], dl
  000b2	8a 50 09	 mov	 dl, BYTE PTR [eax+9]
  000b5	84 d2		 test	 dl, dl
  000b7	74 6c		 je	 SHORT $LN87@LoadString@4
  000b9	80 f2 ec	 xor	 dl, -20			; ffffffecH
  000bc	88 55 f5	 mov	 BYTE PTR __k$[ebp+9], dl
  000bf	8a 50 0a	 mov	 dl, BYTE PTR [eax+10]
  000c2	84 d2		 test	 dl, dl
  000c4	74 5a		 je	 SHORT $LN86@LoadString@4
  000c6	32 d1		 xor	 dl, cl
  000c8	80 78 0b 00	 cmp	 BYTE PTR [eax+11], 0
  000cc	88 55 f6	 mov	 BYTE PTR __k$[ebp+10], dl
  000cf	0f 84 89 00 00
	00		 je	 $LN111@LoadString@4
  000d5	8a 50 0c	 mov	 dl, BYTE PTR [eax+12]
  000d8	84 d2		 test	 dl, dl
  000da	74 3e		 je	 SHORT $LN84@LoadString@4
  000dc	80 f2 ed	 xor	 dl, -19			; ffffffedH
  000df	88 55 f8	 mov	 BYTE PTR __k$[ebp+12], dl
  000e2	8a 50 0d	 mov	 dl, BYTE PTR [eax+13]
  000e5	84 d2		 test	 dl, dl
  000e7	74 2b		 je	 SHORT $LN83@LoadString@4
  000e9	80 f2 ec	 xor	 dl, -20			; ffffffecH
  000ec	88 55 f9	 mov	 BYTE PTR __k$[ebp+13], dl
  000ef	8a 50 0e	 mov	 dl, BYTE PTR [eax+14]
  000f2	84 d2		 test	 dl, dl
  000f4	74 19		 je	 SHORT $LN82@LoadString@4
  000f6	8a 40 0f	 mov	 al, BYTE PTR [eax+15]
  000f9	32 d1		 xor	 dl, cl
  000fb	88 55 fa	 mov	 BYTE PTR __k$[ebp+14], dl
  000fe	84 c0		 test	 al, al
  00100	74 07		 je	 SHORT $LN81@LoadString@4
  00102	34 ea		 xor	 al, -22			; ffffffeaH
  00104	88 45 fb	 mov	 BYTE PTR __k$[ebp+15], al
  00107	eb 55		 jmp	 SHORT $LN111@LoadString@4
$LN81@LoadString@4:
  00109	c6 45 fb ea	 mov	 BYTE PTR __k$[ebp+15], -22 ; ffffffeaH
  0010d	eb 4f		 jmp	 SHORT $LN111@LoadString@4
$LN82@LoadString@4:
  0010f	88 4d fa	 mov	 BYTE PTR __k$[ebp+14], cl
  00112	eb 4a		 jmp	 SHORT $LN111@LoadString@4
$LN83@LoadString@4:
  00114	c6 45 f9 ec	 mov	 BYTE PTR __k$[ebp+13], -20 ; ffffffecH
  00118	eb 44		 jmp	 SHORT $LN111@LoadString@4
$LN84@LoadString@4:
  0011a	c6 45 f8 ed	 mov	 BYTE PTR __k$[ebp+12], -19 ; ffffffedH
  0011e	eb 3e		 jmp	 SHORT $LN111@LoadString@4
$LN86@LoadString@4:
  00120	88 4d f6	 mov	 BYTE PTR __k$[ebp+10], cl
  00123	eb 39		 jmp	 SHORT $LN111@LoadString@4
$LN87@LoadString@4:
  00125	c6 45 f5 ec	 mov	 BYTE PTR __k$[ebp+9], -20 ; ffffffecH
  00129	eb 33		 jmp	 SHORT $LN111@LoadString@4
$LN88@LoadString@4:
  0012b	c6 45 f4 ed	 mov	 BYTE PTR __k$[ebp+8], -19 ; ffffffedH
  0012f	eb 2d		 jmp	 SHORT $LN111@LoadString@4
$LN89@LoadString@4:
  00131	c6 45 f3 ea	 mov	 BYTE PTR __k$[ebp+7], -22 ; ffffffeaH
  00135	eb 27		 jmp	 SHORT $LN111@LoadString@4
$LN90@LoadString@4:
  00137	88 4d f2	 mov	 BYTE PTR __k$[ebp+6], cl
  0013a	eb 22		 jmp	 SHORT $LN111@LoadString@4
$LN91@LoadString@4:
  0013c	c6 45 f1 ec	 mov	 BYTE PTR __k$[ebp+5], -20 ; ffffffecH
  00140	eb 1c		 jmp	 SHORT $LN111@LoadString@4
$LN92@LoadString@4:
  00142	c6 45 f0 ed	 mov	 BYTE PTR __k$[ebp+4], -19 ; ffffffedH
  00146	eb 16		 jmp	 SHORT $LN111@LoadString@4
$LN93@LoadString@4:
  00148	c6 45 ef ea	 mov	 BYTE PTR __k$[ebp+3], -22 ; ffffffeaH
  0014c	eb 10		 jmp	 SHORT $LN111@LoadString@4
$LN94@LoadString@4:
  0014e	c6 45 ee eb	 mov	 BYTE PTR __k$[ebp+2], -21 ; ffffffebH
  00152	eb 0a		 jmp	 SHORT $LN111@LoadString@4
$LN95@LoadString@4:
  00154	c6 45 ed ec	 mov	 BYTE PTR __k$[ebp+1], -20 ; ffffffecH
  00158	eb 04		 jmp	 SHORT $LN111@LoadString@4
$LN96@LoadString@4:
  0015a	c6 45 ec ed	 mov	 BYTE PTR __k$[ebp], -19	; ffffffedH
$LN111@LoadString@4:
  0015e	6a 02		 push	 2
  00160	8d 45 ec	 lea	 eax, DWORD PTR __k$[ebp]
  00163	c6 45 f7 00	 mov	 BYTE PTR __k$[ebp+11], 0
  00167	5a		 pop	 edx
$LL104@LoadString@4:
  00168	81 30 ed ec eb
	ea		 xor	 DWORD PTR [eax], -353637139 ; eaebecedH
  0016e	83 c0 04	 add	 eax, 4
  00171	4a		 dec	 edx
  00172	75 f4		 jne	 SHORT $LL104@LoadString@4
  00174	6a 08		 push	 8
  00176	58		 pop	 eax
$LL101@LoadString@4:
  00177	8b c8		 mov	 ecx, eax
  00179	81 e1 03 00 00
	80		 and	 ecx, -2147483645	; 80000003H
  0017f	79 05		 jns	 SHORT $LN112@LoadString@4
  00181	49		 dec	 ecx
  00182	83 c9 fc	 or	 ecx, -4			; fffffffcH
  00185	41		 inc	 ecx
$LN112@LoadString@4:
  00186	b2 ed		 mov	 dl, -19			; ffffffedH
  00188	2a d1		 sub	 dl, cl
  0018a	30 54 05 ec	 xor	 BYTE PTR __k$[ebp+eax], dl
  0018e	40		 inc	 eax
  0018f	83 f8 0b	 cmp	 eax, 11			; 0000000bH
  00192	7c e3		 jl	 SHORT $LL101@LoadString@4

; 163  : 		LoadString(_k, d, b, i);

  00194	ff 75 14	 push	 DWORD PTR _i$[ebp]
  00197	8b 4d e8	 mov	 ecx, DWORD PTR _this$GSCopy$[ebp]
  0019a	57		 push	 edi
  0019b	56		 push	 esi
  0019c	8d 45 ec	 lea	 eax, DWORD PTR __k$[ebp]
  0019f	50		 push	 eax
  001a0	ff 15 00 00 00
	00		 call	 DWORD PTR __imp_?LoadStringA@ioINILoader@@QAEXPBD0PADH@Z

; 164  : 	}

  001a6	8b 4d fc	 mov	 ecx, DWORD PTR __$ArrayPad$[ebp]
  001a9	5f		 pop	 edi
  001aa	33 cd		 xor	 ecx, ebp
  001ac	5e		 pop	 esi
  001ad	e8 00 00 00 00	 call	 @__security_check_cookie@4
  001b2	c9		 leave
  001b3	c2 10 00	 ret	 16			; 00000010H
??$LoadString_e@$0M@@ioINILoader@@QAEXAAY0M@$$CBDAAY00$$CBDPADH@Z ENDP ; ioINILoader::LoadString_e<12>
_TEXT	ENDS
PUBLIC	__$ArrayPad$
PUBLIC	??$LoadFloat_e@$0BB@@ioINILoader@@QAEMAAY0BB@$$CBDM@Z ; ioINILoader::LoadFloat_e<17>
; Function compile flags: /Ogsp
;	COMDAT ??$LoadFloat_e@$0BB@@ioINILoader@@QAEMAAY0BB@$$CBDM@Z
_TEXT	SEGMENT
__k$ = -28						; size = 17
__$ArrayPad$ = -4					; size = 4
_k$ = 8							; size = 4
_f$ = 12						; size = 4
??$LoadFloat_e@$0BB@@ioINILoader@@QAEMAAY0BB@$$CBDM@Z PROC ; ioINILoader::LoadFloat_e<17>, COMDAT
; _this$ = ecx

; 135  : 	{

  00000	55		 push	 ebp
  00001	8b ec		 mov	 ebp, esp
  00003	83 ec 1c	 sub	 esp, 28			; 0000001cH
  00006	a1 00 00 00 00	 mov	 eax, DWORD PTR ___security_cookie
  0000b	33 c5		 xor	 eax, ebp
  0000d	89 45 fc	 mov	 DWORD PTR __$ArrayPad$[ebp], eax
  00010	8b 45 08	 mov	 eax, DWORD PTR _k$[ebp]

; 136  : 		_ENCSTR(k, _k);

  00013	8a 10		 mov	 dl, BYTE PTR [eax]
  00015	56		 push	 esi
  00016	8b f1		 mov	 esi, ecx
  00018	84 d2		 test	 dl, dl
  0001a	0f 84 a7 01 00
	00		 je	 $LN96@LoadFloat_@4
  00020	80 f2 ed	 xor	 dl, -19			; ffffffedH
  00023	88 55 e4	 mov	 BYTE PTR __k$[ebp], dl
  00026	8a 50 01	 mov	 dl, BYTE PTR [eax+1]
  00029	84 d2		 test	 dl, dl
  0002b	0f 84 90 01 00
	00		 je	 $LN95@LoadFloat_@4
  00031	b1 ec		 mov	 cl, -20			; ffffffecH
  00033	32 d1		 xor	 dl, cl
  00035	88 55 e5	 mov	 BYTE PTR __k$[ebp+1], dl
  00038	8a 50 02	 mov	 dl, BYTE PTR [eax+2]
  0003b	84 d2		 test	 dl, dl
  0003d	0f 84 78 01 00
	00		 je	 $LN94@LoadFloat_@4
  00043	80 f2 eb	 xor	 dl, -21			; ffffffebH
  00046	88 55 e6	 mov	 BYTE PTR __k$[ebp+2], dl
  00049	8a 50 03	 mov	 dl, BYTE PTR [eax+3]
  0004c	84 d2		 test	 dl, dl
  0004e	0f 84 61 01 00
	00		 je	 $LN93@LoadFloat_@4
  00054	80 f2 ea	 xor	 dl, -22			; ffffffeaH
  00057	88 55 e7	 mov	 BYTE PTR __k$[ebp+3], dl
  0005a	8a 50 04	 mov	 dl, BYTE PTR [eax+4]
  0005d	84 d2		 test	 dl, dl
  0005f	0f 84 4a 01 00
	00		 je	 $LN92@LoadFloat_@4
  00065	80 f2 ed	 xor	 dl, -19			; ffffffedH
  00068	88 55 e8	 mov	 BYTE PTR __k$[ebp+4], dl
  0006b	8a 50 05	 mov	 dl, BYTE PTR [eax+5]
  0006e	84 d2		 test	 dl, dl
  00070	0f 84 34 01 00
	00		 je	 $LN91@LoadFloat_@4
  00076	32 d1		 xor	 dl, cl
  00078	88 55 e9	 mov	 BYTE PTR __k$[ebp+5], dl
  0007b	8a 50 06	 mov	 dl, BYTE PTR [eax+6]
  0007e	84 d2		 test	 dl, dl
  00080	0f 84 1e 01 00
	00		 je	 $LN90@LoadFloat_@4
  00086	80 f2 eb	 xor	 dl, -21			; ffffffebH
  00089	88 55 ea	 mov	 BYTE PTR __k$[ebp+6], dl
  0008c	8a 50 07	 mov	 dl, BYTE PTR [eax+7]
  0008f	84 d2		 test	 dl, dl
  00091	0f 84 07 01 00
	00		 je	 $LN89@LoadFloat_@4
  00097	80 f2 ea	 xor	 dl, -22			; ffffffeaH
  0009a	88 55 eb	 mov	 BYTE PTR __k$[ebp+7], dl
  0009d	8a 50 08	 mov	 dl, BYTE PTR [eax+8]
  000a0	84 d2		 test	 dl, dl
  000a2	0f 84 f0 00 00
	00		 je	 $LN88@LoadFloat_@4
  000a8	80 f2 ed	 xor	 dl, -19			; ffffffedH
  000ab	88 55 ec	 mov	 BYTE PTR __k$[ebp+8], dl
  000ae	8a 50 09	 mov	 dl, BYTE PTR [eax+9]
  000b1	84 d2		 test	 dl, dl
  000b3	0f 84 da 00 00
	00		 je	 $LN87@LoadFloat_@4
  000b9	32 d1		 xor	 dl, cl
  000bb	88 55 ed	 mov	 BYTE PTR __k$[ebp+9], dl
  000be	8a 50 0a	 mov	 dl, BYTE PTR [eax+10]
  000c1	84 d2		 test	 dl, dl
  000c3	0f 84 c4 00 00
	00		 je	 $LN86@LoadFloat_@4
  000c9	80 f2 eb	 xor	 dl, -21			; ffffffebH
  000cc	88 55 ee	 mov	 BYTE PTR __k$[ebp+10], dl
  000cf	8a 50 0b	 mov	 dl, BYTE PTR [eax+11]
  000d2	84 d2		 test	 dl, dl
  000d4	0f 84 ad 00 00
	00		 je	 $LN85@LoadFloat_@4
  000da	80 f2 ea	 xor	 dl, -22			; ffffffeaH
  000dd	88 55 ef	 mov	 BYTE PTR __k$[ebp+11], dl
  000e0	8a 50 0c	 mov	 dl, BYTE PTR [eax+12]
  000e3	84 d2		 test	 dl, dl
  000e5	0f 84 96 00 00
	00		 je	 $LN84@LoadFloat_@4
  000eb	80 f2 ed	 xor	 dl, -19			; ffffffedH
  000ee	88 55 f0	 mov	 BYTE PTR __k$[ebp+12], dl
  000f1	8a 50 0d	 mov	 dl, BYTE PTR [eax+13]
  000f4	84 d2		 test	 dl, dl
  000f6	0f 84 80 00 00
	00		 je	 $LN83@LoadFloat_@4
  000fc	32 d1		 xor	 dl, cl
  000fe	88 55 f1	 mov	 BYTE PTR __k$[ebp+13], dl
  00101	8a 50 0e	 mov	 dl, BYTE PTR [eax+14]
  00104	84 d2		 test	 dl, dl
  00106	74 6e		 je	 SHORT $LN82@LoadFloat_@4
  00108	80 f2 eb	 xor	 dl, -21			; ffffffebH
  0010b	88 55 f2	 mov	 BYTE PTR __k$[ebp+14], dl
  0010e	8a 50 0f	 mov	 dl, BYTE PTR [eax+15]
  00111	84 d2		 test	 dl, dl
  00113	74 5b		 je	 SHORT $LN81@LoadFloat_@4
  00115	80 f2 ea	 xor	 dl, -22			; ffffffeaH
  00118	80 78 10 00	 cmp	 BYTE PTR [eax+16], 0
  0011c	88 55 f3	 mov	 BYTE PTR __k$[ebp+15], dl
  0011f	0f 84 a6 00 00
	00		 je	 $LN1@LoadFloat_@4
  00125	8a 50 11	 mov	 dl, BYTE PTR [eax+17]
  00128	84 d2		 test	 dl, dl
  0012a	74 3f		 je	 SHORT $LN79@LoadFloat_@4
  0012c	32 d1		 xor	 dl, cl
  0012e	88 55 f5	 mov	 BYTE PTR __k$[ebp+17], dl
  00131	8a 50 12	 mov	 dl, BYTE PTR [eax+18]
  00134	84 d2		 test	 dl, dl
  00136	74 2d		 je	 SHORT $LN78@LoadFloat_@4
  00138	80 f2 eb	 xor	 dl, -21			; ffffffebH
  0013b	88 55 f6	 mov	 BYTE PTR __k$[ebp+18], dl
  0013e	8a 50 13	 mov	 dl, BYTE PTR [eax+19]
  00141	84 d2		 test	 dl, dl
  00143	74 1a		 je	 SHORT $LN77@LoadFloat_@4
  00145	8a 40 14	 mov	 al, BYTE PTR [eax+20]
  00148	80 f2 ea	 xor	 dl, -22			; ffffffeaH
  0014b	88 55 f7	 mov	 BYTE PTR __k$[ebp+19], dl
  0014e	84 c0		 test	 al, al
  00150	74 07		 je	 SHORT $LN76@LoadFloat_@4
  00152	34 ed		 xor	 al, -19			; ffffffedH
  00154	88 45 f8	 mov	 BYTE PTR __k$[ebp+20], al
  00157	eb 72		 jmp	 SHORT $LN1@LoadFloat_@4
$LN76@LoadFloat_@4:
  00159	c6 45 f8 ed	 mov	 BYTE PTR __k$[ebp+20], -19 ; ffffffedH
  0015d	eb 6c		 jmp	 SHORT $LN1@LoadFloat_@4
$LN77@LoadFloat_@4:
  0015f	c6 45 f7 ea	 mov	 BYTE PTR __k$[ebp+19], -22 ; ffffffeaH
  00163	eb 66		 jmp	 SHORT $LN1@LoadFloat_@4
$LN78@LoadFloat_@4:
  00165	c6 45 f6 eb	 mov	 BYTE PTR __k$[ebp+18], -21 ; ffffffebH
  00169	eb 60		 jmp	 SHORT $LN1@LoadFloat_@4
$LN79@LoadFloat_@4:
  0016b	88 4d f5	 mov	 BYTE PTR __k$[ebp+17], cl
  0016e	eb 5b		 jmp	 SHORT $LN1@LoadFloat_@4
$LN81@LoadFloat_@4:
  00170	c6 45 f3 ea	 mov	 BYTE PTR __k$[ebp+15], -22 ; ffffffeaH
  00174	eb 55		 jmp	 SHORT $LN1@LoadFloat_@4
$LN82@LoadFloat_@4:
  00176	c6 45 f2 eb	 mov	 BYTE PTR __k$[ebp+14], -21 ; ffffffebH
  0017a	eb 4f		 jmp	 SHORT $LN1@LoadFloat_@4
$LN83@LoadFloat_@4:
  0017c	88 4d f1	 mov	 BYTE PTR __k$[ebp+13], cl
  0017f	eb 4a		 jmp	 SHORT $LN1@LoadFloat_@4
$LN84@LoadFloat_@4:
  00181	c6 45 f0 ed	 mov	 BYTE PTR __k$[ebp+12], -19 ; ffffffedH
  00185	eb 44		 jmp	 SHORT $LN1@LoadFloat_@4
$LN85@LoadFloat_@4:
  00187	c6 45 ef ea	 mov	 BYTE PTR __k$[ebp+11], -22 ; ffffffeaH
  0018b	eb 3e		 jmp	 SHORT $LN1@LoadFloat_@4
$LN86@LoadFloat_@4:
  0018d	c6 45 ee eb	 mov	 BYTE PTR __k$[ebp+10], -21 ; ffffffebH
  00191	eb 38		 jmp	 SHORT $LN1@LoadFloat_@4
$LN87@LoadFloat_@4:
  00193	88 4d ed	 mov	 BYTE PTR __k$[ebp+9], cl
  00196	eb 33		 jmp	 SHORT $LN1@LoadFloat_@4
$LN88@LoadFloat_@4:
  00198	c6 45 ec ed	 mov	 BYTE PTR __k$[ebp+8], -19 ; ffffffedH
  0019c	eb 2d		 jmp	 SHORT $LN1@LoadFloat_@4
$LN89@LoadFloat_@4:
  0019e	c6 45 eb ea	 mov	 BYTE PTR __k$[ebp+7], -22 ; ffffffeaH
  001a2	eb 27		 jmp	 SHORT $LN1@LoadFloat_@4
$LN90@LoadFloat_@4:
  001a4	c6 45 ea eb	 mov	 BYTE PTR __k$[ebp+6], -21 ; ffffffebH
  001a8	eb 21		 jmp	 SHORT $LN1@LoadFloat_@4
$LN91@LoadFloat_@4:
  001aa	88 4d e9	 mov	 BYTE PTR __k$[ebp+5], cl
  001ad	eb 1c		 jmp	 SHORT $LN1@LoadFloat_@4
$LN92@LoadFloat_@4:
  001af	c6 45 e8 ed	 mov	 BYTE PTR __k$[ebp+4], -19 ; ffffffedH
  001b3	eb 16		 jmp	 SHORT $LN1@LoadFloat_@4
$LN93@LoadFloat_@4:
  001b5	c6 45 e7 ea	 mov	 BYTE PTR __k$[ebp+3], -22 ; ffffffeaH
  001b9	eb 10		 jmp	 SHORT $LN1@LoadFloat_@4
$LN94@LoadFloat_@4:
  001bb	c6 45 e6 eb	 mov	 BYTE PTR __k$[ebp+2], -21 ; ffffffebH
  001bf	eb 0a		 jmp	 SHORT $LN1@LoadFloat_@4
$LN95@LoadFloat_@4:
  001c1	c6 45 e5 ec	 mov	 BYTE PTR __k$[ebp+1], -20 ; ffffffecH
  001c5	eb 04		 jmp	 SHORT $LN1@LoadFloat_@4
$LN96@LoadFloat_@4:
  001c7	c6 45 e4 ed	 mov	 BYTE PTR __k$[ebp], -19	; ffffffedH
$LN1@LoadFloat_@4:
  001cb	6a 04		 push	 4
  001cd	8d 45 e4	 lea	 eax, DWORD PTR __k$[ebp]
  001d0	c6 45 f4 00	 mov	 BYTE PTR __k$[ebp+16], 0
  001d4	5a		 pop	 edx
$LL104@LoadFloat_@4:
  001d5	81 30 ed ec eb
	ea		 xor	 DWORD PTR [eax], -353637139 ; eaebecedH
  001db	83 c0 04	 add	 eax, 4
  001de	4a		 dec	 edx
  001df	75 f4		 jne	 SHORT $LL104@LoadFloat_@4

; 137  : 		return LoadFloat(_k, f);

  001e1	f3 0f 10 45 0c	 movss	 xmm0, DWORD PTR _f$[ebp]
  001e6	51		 push	 ecx
  001e7	8d 45 e4	 lea	 eax, DWORD PTR __k$[ebp]
  001ea	f3 0f 11 04 24	 movss	 DWORD PTR [esp], xmm0
  001ef	50		 push	 eax
  001f0	8b ce		 mov	 ecx, esi
  001f2	ff 15 00 00 00
	00		 call	 DWORD PTR __imp_?LoadFloat@ioINILoader@@QAEMPBDM@Z

; 138  : 	}

  001f8	8b 4d fc	 mov	 ecx, DWORD PTR __$ArrayPad$[ebp]
  001fb	33 cd		 xor	 ecx, ebp
  001fd	5e		 pop	 esi
  001fe	e8 00 00 00 00	 call	 @__security_check_cookie@4
  00203	c9		 leave
  00204	c2 08 00	 ret	 8
??$LoadFloat_e@$0BB@@ioINILoader@@QAEMAAY0BB@$$CBDM@Z ENDP ; ioINILoader::LoadFloat_e<17>
_TEXT	ENDS
PUBLIC	__$ArrayPad$
PUBLIC	??$LoadFloat_e@$0BG@@ioINILoader@@QAEMAAY0BG@$$CBDM@Z ; ioINILoader::LoadFloat_e<22>
; Function compile flags: /Ogsp
;	COMDAT ??$LoadFloat_e@$0BG@@ioINILoader@@QAEMAAY0BG@$$CBDM@Z
_TEXT	SEGMENT
__k$ = -32						; size = 22
__$ArrayPad$ = -4					; size = 4
_k$ = 8							; size = 4
_f$ = 12						; size = 4
??$LoadFloat_e@$0BG@@ioINILoader@@QAEMAAY0BG@$$CBDM@Z PROC ; ioINILoader::LoadFloat_e<22>, COMDAT
; _this$ = ecx

; 135  : 	{

  00000	55		 push	 ebp
  00001	8b ec		 mov	 ebp, esp
  00003	83 ec 20	 sub	 esp, 32			; 00000020H
  00006	a1 00 00 00 00	 mov	 eax, DWORD PTR ___security_cookie
  0000b	33 c5		 xor	 eax, ebp
  0000d	89 45 fc	 mov	 DWORD PTR __$ArrayPad$[ebp], eax
  00010	8b 45 08	 mov	 eax, DWORD PTR _k$[ebp]

; 136  : 		_ENCSTR(k, _k);

  00013	8a 10		 mov	 dl, BYTE PTR [eax]
  00015	53		 push	 ebx
  00016	56		 push	 esi
  00017	8b f1		 mov	 esi, ecx
  00019	84 d2		 test	 dl, dl
  0001b	0f 84 15 02 00
	00		 je	 $LN96@LoadFloat_@5
  00021	80 f2 ed	 xor	 dl, -19			; ffffffedH
  00024	88 55 e0	 mov	 BYTE PTR __k$[ebp], dl
  00027	8a 50 01	 mov	 dl, BYTE PTR [eax+1]
  0002a	84 d2		 test	 dl, dl
  0002c	0f 84 fe 01 00
	00		 je	 $LN95@LoadFloat_@5
  00032	80 f2 ec	 xor	 dl, -20			; ffffffecH
  00035	88 55 e1	 mov	 BYTE PTR __k$[ebp+1], dl
  00038	8a 50 02	 mov	 dl, BYTE PTR [eax+2]
  0003b	84 d2		 test	 dl, dl
  0003d	0f 84 e7 01 00
	00		 je	 $LN94@LoadFloat_@5
  00043	b1 eb		 mov	 cl, -21			; ffffffebH
  00045	32 d1		 xor	 dl, cl
  00047	88 55 e2	 mov	 BYTE PTR __k$[ebp+2], dl
  0004a	8a 50 03	 mov	 dl, BYTE PTR [eax+3]
  0004d	84 d2		 test	 dl, dl
  0004f	0f 84 cf 01 00
	00		 je	 $LN93@LoadFloat_@5
  00055	b3 ea		 mov	 bl, -22			; ffffffeaH
  00057	32 d3		 xor	 dl, bl
  00059	88 55 e3	 mov	 BYTE PTR __k$[ebp+3], dl
  0005c	8a 50 04	 mov	 dl, BYTE PTR [eax+4]
  0005f	84 d2		 test	 dl, dl
  00061	0f 84 b7 01 00
	00		 je	 $LN92@LoadFloat_@5
  00067	80 f2 ed	 xor	 dl, -19			; ffffffedH
  0006a	88 55 e4	 mov	 BYTE PTR __k$[ebp+4], dl
  0006d	8a 50 05	 mov	 dl, BYTE PTR [eax+5]
  00070	84 d2		 test	 dl, dl
  00072	0f 84 a0 01 00
	00		 je	 $LN91@LoadFloat_@5
  00078	80 f2 ec	 xor	 dl, -20			; ffffffecH
  0007b	88 55 e5	 mov	 BYTE PTR __k$[ebp+5], dl
  0007e	8a 50 06	 mov	 dl, BYTE PTR [eax+6]
  00081	84 d2		 test	 dl, dl
  00083	0f 84 8a 01 00
	00		 je	 $LN90@LoadFloat_@5
  00089	32 d1		 xor	 dl, cl
  0008b	88 55 e6	 mov	 BYTE PTR __k$[ebp+6], dl
  0008e	8a 50 07	 mov	 dl, BYTE PTR [eax+7]
  00091	84 d2		 test	 dl, dl
  00093	0f 84 75 01 00
	00		 je	 $LN89@LoadFloat_@5
  00099	32 d3		 xor	 dl, bl
  0009b	88 55 e7	 mov	 BYTE PTR __k$[ebp+7], dl
  0009e	8a 50 08	 mov	 dl, BYTE PTR [eax+8]
  000a1	84 d2		 test	 dl, dl
  000a3	0f 84 5f 01 00
	00		 je	 $LN88@LoadFloat_@5
  000a9	80 f2 ed	 xor	 dl, -19			; ffffffedH
  000ac	88 55 e8	 mov	 BYTE PTR __k$[ebp+8], dl
  000af	8a 50 09	 mov	 dl, BYTE PTR [eax+9]
  000b2	84 d2		 test	 dl, dl
  000b4	0f 84 48 01 00
	00		 je	 $LN87@LoadFloat_@5
  000ba	80 f2 ec	 xor	 dl, -20			; ffffffecH
  000bd	88 55 e9	 mov	 BYTE PTR __k$[ebp+9], dl
  000c0	8a 50 0a	 mov	 dl, BYTE PTR [eax+10]
  000c3	84 d2		 test	 dl, dl
  000c5	0f 84 32 01 00
	00		 je	 $LN86@LoadFloat_@5
  000cb	32 d1		 xor	 dl, cl
  000cd	88 55 ea	 mov	 BYTE PTR __k$[ebp+10], dl
  000d0	8a 50 0b	 mov	 dl, BYTE PTR [eax+11]
  000d3	84 d2		 test	 dl, dl
  000d5	0f 84 1d 01 00
	00		 je	 $LN85@LoadFloat_@5
  000db	32 d3		 xor	 dl, bl
  000dd	88 55 eb	 mov	 BYTE PTR __k$[ebp+11], dl
  000e0	8a 50 0c	 mov	 dl, BYTE PTR [eax+12]
  000e3	84 d2		 test	 dl, dl
  000e5	0f 84 07 01 00
	00		 je	 $LN84@LoadFloat_@5
  000eb	80 f2 ed	 xor	 dl, -19			; ffffffedH
  000ee	88 55 ec	 mov	 BYTE PTR __k$[ebp+12], dl
  000f1	8a 50 0d	 mov	 dl, BYTE PTR [eax+13]
  000f4	84 d2		 test	 dl, dl
  000f6	0f 84 f0 00 00
	00		 je	 $LN83@LoadFloat_@5
  000fc	80 f2 ec	 xor	 dl, -20			; ffffffecH
  000ff	88 55 ed	 mov	 BYTE PTR __k$[ebp+13], dl
  00102	8a 50 0e	 mov	 dl, BYTE PTR [eax+14]
  00105	84 d2		 test	 dl, dl
  00107	0f 84 da 00 00
	00		 je	 $LN82@LoadFloat_@5
  0010d	32 d1		 xor	 dl, cl
  0010f	88 55 ee	 mov	 BYTE PTR __k$[ebp+14], dl
  00112	8a 50 0f	 mov	 dl, BYTE PTR [eax+15]
  00115	84 d2		 test	 dl, dl
  00117	0f 84 c5 00 00
	00		 je	 $LN81@LoadFloat_@5
  0011d	32 d3		 xor	 dl, bl
  0011f	88 55 ef	 mov	 BYTE PTR __k$[ebp+15], dl
  00122	8a 50 10	 mov	 dl, BYTE PTR [eax+16]
  00125	84 d2		 test	 dl, dl
  00127	0f 84 af 00 00
	00		 je	 $LN80@LoadFloat_@5
  0012d	80 f2 ed	 xor	 dl, -19			; ffffffedH
  00130	88 55 f0	 mov	 BYTE PTR __k$[ebp+16], dl
  00133	8a 50 11	 mov	 dl, BYTE PTR [eax+17]
  00136	84 d2		 test	 dl, dl
  00138	0f 84 98 00 00
	00		 je	 $LN79@LoadFloat_@5
  0013e	80 f2 ec	 xor	 dl, -20			; ffffffecH
  00141	88 55 f1	 mov	 BYTE PTR __k$[ebp+17], dl
  00144	8a 50 12	 mov	 dl, BYTE PTR [eax+18]
  00147	84 d2		 test	 dl, dl
  00149	0f 84 82 00 00
	00		 je	 $LN78@LoadFloat_@5
  0014f	32 d1		 xor	 dl, cl
  00151	88 55 f2	 mov	 BYTE PTR __k$[ebp+18], dl
  00154	8a 50 13	 mov	 dl, BYTE PTR [eax+19]
  00157	84 d2		 test	 dl, dl
  00159	74 71		 je	 SHORT $LN77@LoadFloat_@5
  0015b	32 d3		 xor	 dl, bl
  0015d	88 55 f3	 mov	 BYTE PTR __k$[ebp+19], dl
  00160	8a 50 14	 mov	 dl, BYTE PTR [eax+20]
  00163	84 d2		 test	 dl, dl
  00165	74 5f		 je	 SHORT $LN76@LoadFloat_@5
  00167	80 f2 ed	 xor	 dl, -19			; ffffffedH
  0016a	80 78 15 00	 cmp	 BYTE PTR [eax+21], 0
  0016e	88 55 f4	 mov	 BYTE PTR __k$[ebp+20], dl
  00171	0f 84 c3 00 00
	00		 je	 $LN1@LoadFloat_@5
  00177	8a 50 16	 mov	 dl, BYTE PTR [eax+22]
  0017a	84 d2		 test	 dl, dl
  0017c	74 43		 je	 SHORT $LN74@LoadFloat_@5
  0017e	32 d1		 xor	 dl, cl
  00180	88 55 f6	 mov	 BYTE PTR __k$[ebp+22], dl
  00183	8a 50 17	 mov	 dl, BYTE PTR [eax+23]
  00186	84 d2		 test	 dl, dl
  00188	74 32		 je	 SHORT $LN73@LoadFloat_@5
  0018a	32 d3		 xor	 dl, bl
  0018c	88 55 f7	 mov	 BYTE PTR __k$[ebp+23], dl
  0018f	8a 50 18	 mov	 dl, BYTE PTR [eax+24]
  00192	84 d2		 test	 dl, dl
  00194	74 20		 je	 SHORT $LN72@LoadFloat_@5
  00196	8a 40 19	 mov	 al, BYTE PTR [eax+25]
  00199	80 f2 ed	 xor	 dl, -19			; ffffffedH
  0019c	88 55 f8	 mov	 BYTE PTR __k$[ebp+24], dl
  0019f	84 c0		 test	 al, al
  001a1	74 0a		 je	 SHORT $LN71@LoadFloat_@5
  001a3	34 ec		 xor	 al, -20			; ffffffecH
  001a5	88 45 f9	 mov	 BYTE PTR __k$[ebp+25], al
  001a8	e9 8d 00 00 00	 jmp	 $LN1@LoadFloat_@5
$LN71@LoadFloat_@5:
  001ad	c6 45 f9 ec	 mov	 BYTE PTR __k$[ebp+25], -20 ; ffffffecH
  001b1	e9 84 00 00 00	 jmp	 $LN1@LoadFloat_@5
$LN72@LoadFloat_@5:
  001b6	c6 45 f8 ed	 mov	 BYTE PTR __k$[ebp+24], -19 ; ffffffedH
  001ba	eb 7e		 jmp	 SHORT $LN1@LoadFloat_@5
$LN73@LoadFloat_@5:
  001bc	88 5d f7	 mov	 BYTE PTR __k$[ebp+23], bl
  001bf	eb 79		 jmp	 SHORT $LN1@LoadFloat_@5
$LN74@LoadFloat_@5:
  001c1	88 4d f6	 mov	 BYTE PTR __k$[ebp+22], cl
  001c4	eb 74		 jmp	 SHORT $LN1@LoadFloat_@5
$LN76@LoadFloat_@5:
  001c6	c6 45 f4 ed	 mov	 BYTE PTR __k$[ebp+20], -19 ; ffffffedH
  001ca	eb 6e		 jmp	 SHORT $LN1@LoadFloat_@5
$LN77@LoadFloat_@5:
  001cc	88 5d f3	 mov	 BYTE PTR __k$[ebp+19], bl
  001cf	eb 69		 jmp	 SHORT $LN1@LoadFloat_@5
$LN78@LoadFloat_@5:
  001d1	88 4d f2	 mov	 BYTE PTR __k$[ebp+18], cl
  001d4	eb 64		 jmp	 SHORT $LN1@LoadFloat_@5
$LN79@LoadFloat_@5:
  001d6	c6 45 f1 ec	 mov	 BYTE PTR __k$[ebp+17], -20 ; ffffffecH
  001da	eb 5e		 jmp	 SHORT $LN1@LoadFloat_@5
$LN80@LoadFloat_@5:
  001dc	c6 45 f0 ed	 mov	 BYTE PTR __k$[ebp+16], -19 ; ffffffedH
  001e0	eb 58		 jmp	 SHORT $LN1@LoadFloat_@5
$LN81@LoadFloat_@5:
  001e2	88 5d ef	 mov	 BYTE PTR __k$[ebp+15], bl
  001e5	eb 53		 jmp	 SHORT $LN1@LoadFloat_@5
$LN82@LoadFloat_@5:
  001e7	88 4d ee	 mov	 BYTE PTR __k$[ebp+14], cl
  001ea	eb 4e		 jmp	 SHORT $LN1@LoadFloat_@5
$LN83@LoadFloat_@5:
  001ec	c6 45 ed ec	 mov	 BYTE PTR __k$[ebp+13], -20 ; ffffffecH
  001f0	eb 48		 jmp	 SHORT $LN1@LoadFloat_@5
$LN84@LoadFloat_@5:
  001f2	c6 45 ec ed	 mov	 BYTE PTR __k$[ebp+12], -19 ; ffffffedH
  001f6	eb 42		 jmp	 SHORT $LN1@LoadFloat_@5
$LN85@LoadFloat_@5:
  001f8	88 5d eb	 mov	 BYTE PTR __k$[ebp+11], bl
  001fb	eb 3d		 jmp	 SHORT $LN1@LoadFloat_@5
$LN86@LoadFloat_@5:
  001fd	88 4d ea	 mov	 BYTE PTR __k$[ebp+10], cl
  00200	eb 38		 jmp	 SHORT $LN1@LoadFloat_@5
$LN87@LoadFloat_@5:
  00202	c6 45 e9 ec	 mov	 BYTE PTR __k$[ebp+9], -20 ; ffffffecH
  00206	eb 32		 jmp	 SHORT $LN1@LoadFloat_@5
$LN88@LoadFloat_@5:
  00208	c6 45 e8 ed	 mov	 BYTE PTR __k$[ebp+8], -19 ; ffffffedH
  0020c	eb 2c		 jmp	 SHORT $LN1@LoadFloat_@5
$LN89@LoadFloat_@5:
  0020e	88 5d e7	 mov	 BYTE PTR __k$[ebp+7], bl
  00211	eb 27		 jmp	 SHORT $LN1@LoadFloat_@5
$LN90@LoadFloat_@5:
  00213	88 4d e6	 mov	 BYTE PTR __k$[ebp+6], cl
  00216	eb 22		 jmp	 SHORT $LN1@LoadFloat_@5
$LN91@LoadFloat_@5:
  00218	c6 45 e5 ec	 mov	 BYTE PTR __k$[ebp+5], -20 ; ffffffecH
  0021c	eb 1c		 jmp	 SHORT $LN1@LoadFloat_@5
$LN92@LoadFloat_@5:
  0021e	c6 45 e4 ed	 mov	 BYTE PTR __k$[ebp+4], -19 ; ffffffedH
  00222	eb 16		 jmp	 SHORT $LN1@LoadFloat_@5
$LN93@LoadFloat_@5:
  00224	c6 45 e3 ea	 mov	 BYTE PTR __k$[ebp+3], -22 ; ffffffeaH
  00228	eb 10		 jmp	 SHORT $LN1@LoadFloat_@5
$LN94@LoadFloat_@5:
  0022a	c6 45 e2 eb	 mov	 BYTE PTR __k$[ebp+2], -21 ; ffffffebH
  0022e	eb 0a		 jmp	 SHORT $LN1@LoadFloat_@5
$LN95@LoadFloat_@5:
  00230	c6 45 e1 ec	 mov	 BYTE PTR __k$[ebp+1], -20 ; ffffffecH
  00234	eb 04		 jmp	 SHORT $LN1@LoadFloat_@5
$LN96@LoadFloat_@5:
  00236	c6 45 e0 ed	 mov	 BYTE PTR __k$[ebp], -19	; ffffffedH
$LN1@LoadFloat_@5:
  0023a	6a 05		 push	 5
  0023c	8d 45 e0	 lea	 eax, DWORD PTR __k$[ebp]
  0023f	c6 45 f5 00	 mov	 BYTE PTR __k$[ebp+21], 0
  00243	5a		 pop	 edx
$LL104@LoadFloat_@5:
  00244	81 30 ed ec eb
	ea		 xor	 DWORD PTR [eax], -353637139 ; eaebecedH
  0024a	83 c0 04	 add	 eax, 4
  0024d	4a		 dec	 edx
  0024e	75 f4		 jne	 SHORT $LL104@LoadFloat_@5

; 137  : 		return LoadFloat(_k, f);

  00250	f3 0f 10 45 0c	 movss	 xmm0, DWORD PTR _f$[ebp]
  00255	80 75 f4 ed	 xor	 BYTE PTR __k$[ebp+20], -19 ; ffffffedH
  00259	51		 push	 ecx
  0025a	8d 45 e0	 lea	 eax, DWORD PTR __k$[ebp]
  0025d	f3 0f 11 04 24	 movss	 DWORD PTR [esp], xmm0
  00262	50		 push	 eax
  00263	8b ce		 mov	 ecx, esi
  00265	ff 15 00 00 00
	00		 call	 DWORD PTR __imp_?LoadFloat@ioINILoader@@QAEMPBDM@Z

; 138  : 	}

  0026b	8b 4d fc	 mov	 ecx, DWORD PTR __$ArrayPad$[ebp]
  0026e	5e		 pop	 esi
  0026f	33 cd		 xor	 ecx, ebp
  00271	5b		 pop	 ebx
  00272	e8 00 00 00 00	 call	 @__security_check_cookie@4
  00277	c9		 leave
  00278	c2 08 00	 ret	 8
??$LoadFloat_e@$0BG@@ioINILoader@@QAEMAAY0BG@$$CBDM@Z ENDP ; ioINILoader::LoadFloat_e<22>
_TEXT	ENDS
PUBLIC	__$ArrayPad$
PUBLIC	??$LoadFloat_e@$0BE@@ioINILoader@@QAEMAAY0BE@$$CBDM@Z ; ioINILoader::LoadFloat_e<20>
; Function compile flags: /Ogsp
;	COMDAT ??$LoadFloat_e@$0BE@@ioINILoader@@QAEMAAY0BE@$$CBDM@Z
_TEXT	SEGMENT
__k$ = -28						; size = 20
__$ArrayPad$ = -4					; size = 4
_k$ = 8							; size = 4
_f$ = 12						; size = 4
??$LoadFloat_e@$0BE@@ioINILoader@@QAEMAAY0BE@$$CBDM@Z PROC ; ioINILoader::LoadFloat_e<20>, COMDAT
; _this$ = ecx

; 135  : 	{

  00000	55		 push	 ebp
  00001	8b ec		 mov	 ebp, esp
  00003	83 ec 1c	 sub	 esp, 28			; 0000001cH
  00006	a1 00 00 00 00	 mov	 eax, DWORD PTR ___security_cookie
  0000b	33 c5		 xor	 eax, ebp
  0000d	89 45 fc	 mov	 DWORD PTR __$ArrayPad$[ebp], eax
  00010	8b 45 08	 mov	 eax, DWORD PTR _k$[ebp]

; 136  : 		_ENCSTR(k, _k);

  00013	8a 10		 mov	 dl, BYTE PTR [eax]
  00015	53		 push	 ebx
  00016	56		 push	 esi
  00017	8b f1		 mov	 esi, ecx
  00019	84 d2		 test	 dl, dl
  0001b	0f 84 dd 01 00
	00		 je	 $LN96@LoadFloat_@6
  00021	80 f2 ed	 xor	 dl, -19			; ffffffedH
  00024	88 55 e4	 mov	 BYTE PTR __k$[ebp], dl
  00027	8a 50 01	 mov	 dl, BYTE PTR [eax+1]
  0002a	84 d2		 test	 dl, dl
  0002c	0f 84 c6 01 00
	00		 je	 $LN95@LoadFloat_@6
  00032	b3 ec		 mov	 bl, -20			; ffffffecH
  00034	32 d3		 xor	 dl, bl
  00036	88 55 e5	 mov	 BYTE PTR __k$[ebp+1], dl
  00039	8a 50 02	 mov	 dl, BYTE PTR [eax+2]
  0003c	84 d2		 test	 dl, dl
  0003e	0f 84 ae 01 00
	00		 je	 $LN94@LoadFloat_@6
  00044	b1 eb		 mov	 cl, -21			; ffffffebH
  00046	32 d1		 xor	 dl, cl
  00048	88 55 e6	 mov	 BYTE PTR __k$[ebp+2], dl
  0004b	8a 50 03	 mov	 dl, BYTE PTR [eax+3]
  0004e	84 d2		 test	 dl, dl
  00050	0f 84 96 01 00
	00		 je	 $LN93@LoadFloat_@6
  00056	80 f2 ea	 xor	 dl, -22			; ffffffeaH
  00059	88 55 e7	 mov	 BYTE PTR __k$[ebp+3], dl
  0005c	8a 50 04	 mov	 dl, BYTE PTR [eax+4]
  0005f	84 d2		 test	 dl, dl
  00061	0f 84 7f 01 00
	00		 je	 $LN92@LoadFloat_@6
  00067	80 f2 ed	 xor	 dl, -19			; ffffffedH
  0006a	88 55 e8	 mov	 BYTE PTR __k$[ebp+4], dl
  0006d	8a 50 05	 mov	 dl, BYTE PTR [eax+5]
  00070	84 d2		 test	 dl, dl
  00072	0f 84 69 01 00
	00		 je	 $LN91@LoadFloat_@6
  00078	32 d3		 xor	 dl, bl
  0007a	88 55 e9	 mov	 BYTE PTR __k$[ebp+5], dl
  0007d	8a 50 06	 mov	 dl, BYTE PTR [eax+6]
  00080	84 d2		 test	 dl, dl
  00082	0f 84 54 01 00
	00		 je	 $LN90@LoadFloat_@6
  00088	32 d1		 xor	 dl, cl
  0008a	88 55 ea	 mov	 BYTE PTR __k$[ebp+6], dl
  0008d	8a 50 07	 mov	 dl, BYTE PTR [eax+7]
  00090	84 d2		 test	 dl, dl
  00092	0f 84 3e 01 00
	00		 je	 $LN89@LoadFloat_@6
  00098	80 f2 ea	 xor	 dl, -22			; ffffffeaH
  0009b	88 55 eb	 mov	 BYTE PTR __k$[ebp+7], dl
  0009e	8a 50 08	 mov	 dl, BYTE PTR [eax+8]
  000a1	84 d2		 test	 dl, dl
  000a3	0f 84 27 01 00
	00		 je	 $LN88@LoadFloat_@6
  000a9	80 f2 ed	 xor	 dl, -19			; ffffffedH
  000ac	88 55 ec	 mov	 BYTE PTR __k$[ebp+8], dl
  000af	8a 50 09	 mov	 dl, BYTE PTR [eax+9]
  000b2	84 d2		 test	 dl, dl
  000b4	0f 84 11 01 00
	00		 je	 $LN87@LoadFloat_@6
  000ba	32 d3		 xor	 dl, bl
  000bc	88 55 ed	 mov	 BYTE PTR __k$[ebp+9], dl
  000bf	8a 50 0a	 mov	 dl, BYTE PTR [eax+10]
  000c2	84 d2		 test	 dl, dl
  000c4	0f 84 fc 00 00
	00		 je	 $LN86@LoadFloat_@6
  000ca	32 d1		 xor	 dl, cl
  000cc	88 55 ee	 mov	 BYTE PTR __k$[ebp+10], dl
  000cf	8a 50 0b	 mov	 dl, BYTE PTR [eax+11]
  000d2	84 d2		 test	 dl, dl
  000d4	0f 84 e6 00 00
	00		 je	 $LN85@LoadFloat_@6
  000da	80 f2 ea	 xor	 dl, -22			; ffffffeaH
  000dd	88 55 ef	 mov	 BYTE PTR __k$[ebp+11], dl
  000e0	8a 50 0c	 mov	 dl, BYTE PTR [eax+12]
  000e3	84 d2		 test	 dl, dl
  000e5	0f 84 cf 00 00
	00		 je	 $LN84@LoadFloat_@6
  000eb	80 f2 ed	 xor	 dl, -19			; ffffffedH
  000ee	88 55 f0	 mov	 BYTE PTR __k$[ebp+12], dl
  000f1	8a 50 0d	 mov	 dl, BYTE PTR [eax+13]
  000f4	84 d2		 test	 dl, dl
  000f6	0f 84 b9 00 00
	00		 je	 $LN83@LoadFloat_@6
  000fc	32 d3		 xor	 dl, bl
  000fe	88 55 f1	 mov	 BYTE PTR __k$[ebp+13], dl
  00101	8a 50 0e	 mov	 dl, BYTE PTR [eax+14]
  00104	84 d2		 test	 dl, dl
  00106	0f 84 a4 00 00
	00		 je	 $LN82@LoadFloat_@6
  0010c	32 d1		 xor	 dl, cl
  0010e	88 55 f2	 mov	 BYTE PTR __k$[ebp+14], dl
  00111	8a 50 0f	 mov	 dl, BYTE PTR [eax+15]
  00114	84 d2		 test	 dl, dl
  00116	0f 84 8e 00 00
	00		 je	 $LN81@LoadFloat_@6
  0011c	80 f2 ea	 xor	 dl, -22			; ffffffeaH
  0011f	88 55 f3	 mov	 BYTE PTR __k$[ebp+15], dl
  00122	8a 50 10	 mov	 dl, BYTE PTR [eax+16]
  00125	84 d2		 test	 dl, dl
  00127	74 7b		 je	 SHORT $LN80@LoadFloat_@6
  00129	80 f2 ed	 xor	 dl, -19			; ffffffedH
  0012c	88 55 f4	 mov	 BYTE PTR __k$[ebp+16], dl
  0012f	8a 50 11	 mov	 dl, BYTE PTR [eax+17]
  00132	84 d2		 test	 dl, dl
  00134	74 69		 je	 SHORT $LN79@LoadFloat_@6
  00136	32 d3		 xor	 dl, bl
  00138	88 55 f5	 mov	 BYTE PTR __k$[ebp+17], dl
  0013b	8a 50 12	 mov	 dl, BYTE PTR [eax+18]
  0013e	84 d2		 test	 dl, dl
  00140	74 58		 je	 SHORT $LN78@LoadFloat_@6
  00142	32 d1		 xor	 dl, cl
  00144	80 78 13 00	 cmp	 BYTE PTR [eax+19], 0
  00148	88 55 f6	 mov	 BYTE PTR __k$[ebp+18], dl
  0014b	0f 84 b1 00 00
	00		 je	 $LN1@LoadFloat_@6
  00151	8a 50 14	 mov	 dl, BYTE PTR [eax+20]
  00154	84 d2		 test	 dl, dl
  00156	74 3c		 je	 SHORT $LN76@LoadFloat_@6
  00158	80 f2 ed	 xor	 dl, -19			; ffffffedH
  0015b	88 55 f8	 mov	 BYTE PTR __k$[ebp+20], dl
  0015e	8a 50 15	 mov	 dl, BYTE PTR [eax+21]
  00161	84 d2		 test	 dl, dl
  00163	74 2a		 je	 SHORT $LN75@LoadFloat_@6
  00165	32 d3		 xor	 dl, bl
  00167	88 55 f9	 mov	 BYTE PTR __k$[ebp+21], dl
  0016a	8a 50 16	 mov	 dl, BYTE PTR [eax+22]
  0016d	84 d2		 test	 dl, dl
  0016f	74 19		 je	 SHORT $LN74@LoadFloat_@6
  00171	8a 40 17	 mov	 al, BYTE PTR [eax+23]
  00174	32 d1		 xor	 dl, cl
  00176	88 55 fa	 mov	 BYTE PTR __k$[ebp+22], dl
  00179	84 c0		 test	 al, al
  0017b	74 07		 je	 SHORT $LN73@LoadFloat_@6
  0017d	34 ea		 xor	 al, -22			; ffffffeaH
  0017f	88 45 fb	 mov	 BYTE PTR __k$[ebp+23], al
  00182	eb 7e		 jmp	 SHORT $LN1@LoadFloat_@6
$LN73@LoadFloat_@6:
  00184	c6 45 fb ea	 mov	 BYTE PTR __k$[ebp+23], -22 ; ffffffeaH
  00188	eb 78		 jmp	 SHORT $LN1@LoadFloat_@6
$LN74@LoadFloat_@6:
  0018a	88 4d fa	 mov	 BYTE PTR __k$[ebp+22], cl
  0018d	eb 73		 jmp	 SHORT $LN1@LoadFloat_@6
$LN75@LoadFloat_@6:
  0018f	88 5d f9	 mov	 BYTE PTR __k$[ebp+21], bl
  00192	eb 6e		 jmp	 SHORT $LN1@LoadFloat_@6
$LN76@LoadFloat_@6:
  00194	c6 45 f8 ed	 mov	 BYTE PTR __k$[ebp+20], -19 ; ffffffedH
  00198	eb 68		 jmp	 SHORT $LN1@LoadFloat_@6
$LN78@LoadFloat_@6:
  0019a	88 4d f6	 mov	 BYTE PTR __k$[ebp+18], cl
  0019d	eb 63		 jmp	 SHORT $LN1@LoadFloat_@6
$LN79@LoadFloat_@6:
  0019f	88 5d f5	 mov	 BYTE PTR __k$[ebp+17], bl
  001a2	eb 5e		 jmp	 SHORT $LN1@LoadFloat_@6
$LN80@LoadFloat_@6:
  001a4	c6 45 f4 ed	 mov	 BYTE PTR __k$[ebp+16], -19 ; ffffffedH
  001a8	eb 58		 jmp	 SHORT $LN1@LoadFloat_@6
$LN81@LoadFloat_@6:
  001aa	c6 45 f3 ea	 mov	 BYTE PTR __k$[ebp+15], -22 ; ffffffeaH
  001ae	eb 52		 jmp	 SHORT $LN1@LoadFloat_@6
$LN82@LoadFloat_@6:
  001b0	88 4d f2	 mov	 BYTE PTR __k$[ebp+14], cl
  001b3	eb 4d		 jmp	 SHORT $LN1@LoadFloat_@6
$LN83@LoadFloat_@6:
  001b5	88 5d f1	 mov	 BYTE PTR __k$[ebp+13], bl
  001b8	eb 48		 jmp	 SHORT $LN1@LoadFloat_@6
$LN84@LoadFloat_@6:
  001ba	c6 45 f0 ed	 mov	 BYTE PTR __k$[ebp+12], -19 ; ffffffedH
  001be	eb 42		 jmp	 SHORT $LN1@LoadFloat_@6
$LN85@LoadFloat_@6:
  001c0	c6 45 ef ea	 mov	 BYTE PTR __k$[ebp+11], -22 ; ffffffeaH
  001c4	eb 3c		 jmp	 SHORT $LN1@LoadFloat_@6
$LN86@LoadFloat_@6:
  001c6	88 4d ee	 mov	 BYTE PTR __k$[ebp+10], cl
  001c9	eb 37		 jmp	 SHORT $LN1@LoadFloat_@6
$LN87@LoadFloat_@6:
  001cb	88 5d ed	 mov	 BYTE PTR __k$[ebp+9], bl
  001ce	eb 32		 jmp	 SHORT $LN1@LoadFloat_@6
$LN88@LoadFloat_@6:
  001d0	c6 45 ec ed	 mov	 BYTE PTR __k$[ebp+8], -19 ; ffffffedH
  001d4	eb 2c		 jmp	 SHORT $LN1@LoadFloat_@6
$LN89@LoadFloat_@6:
  001d6	c6 45 eb ea	 mov	 BYTE PTR __k$[ebp+7], -22 ; ffffffeaH
  001da	eb 26		 jmp	 SHORT $LN1@LoadFloat_@6
$LN90@LoadFloat_@6:
  001dc	88 4d ea	 mov	 BYTE PTR __k$[ebp+6], cl
  001df	eb 21		 jmp	 SHORT $LN1@LoadFloat_@6
$LN91@LoadFloat_@6:
  001e1	88 5d e9	 mov	 BYTE PTR __k$[ebp+5], bl
  001e4	eb 1c		 jmp	 SHORT $LN1@LoadFloat_@6
$LN92@LoadFloat_@6:
  001e6	c6 45 e8 ed	 mov	 BYTE PTR __k$[ebp+4], -19 ; ffffffedH
  001ea	eb 16		 jmp	 SHORT $LN1@LoadFloat_@6
$LN93@LoadFloat_@6:
  001ec	c6 45 e7 ea	 mov	 BYTE PTR __k$[ebp+3], -22 ; ffffffeaH
  001f0	eb 10		 jmp	 SHORT $LN1@LoadFloat_@6
$LN94@LoadFloat_@6:
  001f2	c6 45 e6 eb	 mov	 BYTE PTR __k$[ebp+2], -21 ; ffffffebH
  001f6	eb 0a		 jmp	 SHORT $LN1@LoadFloat_@6
$LN95@LoadFloat_@6:
  001f8	c6 45 e5 ec	 mov	 BYTE PTR __k$[ebp+1], -20 ; ffffffecH
  001fc	eb 04		 jmp	 SHORT $LN1@LoadFloat_@6
$LN96@LoadFloat_@6:
  001fe	c6 45 e4 ed	 mov	 BYTE PTR __k$[ebp], -19	; ffffffedH
$LN1@LoadFloat_@6:
  00202	6a 04		 push	 4
  00204	8d 45 e4	 lea	 eax, DWORD PTR __k$[ebp]
  00207	c6 45 f7 00	 mov	 BYTE PTR __k$[ebp+19], 0
  0020b	5a		 pop	 edx
$LL104@LoadFloat_@6:
  0020c	81 30 ed ec eb
	ea		 xor	 DWORD PTR [eax], -353637139 ; eaebecedH
  00212	83 c0 04	 add	 eax, 4
  00215	4a		 dec	 edx
  00216	75 f4		 jne	 SHORT $LL104@LoadFloat_@6
  00218	6a 10		 push	 16			; 00000010H
  0021a	58		 pop	 eax
$LL101@LoadFloat_@6:
  0021b	8b c8		 mov	 ecx, eax
  0021d	81 e1 03 00 00
	80		 and	 ecx, -2147483645	; 80000003H
  00223	79 05		 jns	 SHORT $LN111@LoadFloat_@6
  00225	49		 dec	 ecx
  00226	83 c9 fc	 or	 ecx, -4			; fffffffcH
  00229	41		 inc	 ecx
$LN111@LoadFloat_@6:
  0022a	b2 ed		 mov	 dl, -19			; ffffffedH
  0022c	2a d1		 sub	 dl, cl
  0022e	30 54 05 e4	 xor	 BYTE PTR __k$[ebp+eax], dl
  00232	40		 inc	 eax
  00233	83 f8 13	 cmp	 eax, 19			; 00000013H
  00236	7c e3		 jl	 SHORT $LL101@LoadFloat_@6

; 137  : 		return LoadFloat(_k, f);

  00238	f3 0f 10 45 0c	 movss	 xmm0, DWORD PTR _f$[ebp]
  0023d	51		 push	 ecx
  0023e	8d 45 e4	 lea	 eax, DWORD PTR __k$[ebp]
  00241	f3 0f 11 04 24	 movss	 DWORD PTR [esp], xmm0
  00246	50		 push	 eax
  00247	8b ce		 mov	 ecx, esi
  00249	ff 15 00 00 00
	00		 call	 DWORD PTR __imp_?LoadFloat@ioINILoader@@QAEMPBDM@Z

; 138  : 	}

  0024f	8b 4d fc	 mov	 ecx, DWORD PTR __$ArrayPad$[ebp]
  00252	5e		 pop	 esi
  00253	33 cd		 xor	 ecx, ebp
  00255	5b		 pop	 ebx
  00256	e8 00 00 00 00	 call	 @__security_check_cookie@4
  0025b	c9		 leave
  0025c	c2 08 00	 ret	 8
??$LoadFloat_e@$0BE@@ioINILoader@@QAEMAAY0BE@$$CBDM@Z ENDP ; ioINILoader::LoadFloat_e<20>
_TEXT	ENDS
PUBLIC	__$ArrayPad$
PUBLIC	??$LoadInt_e@$0BI@@ioINILoader@@QAEHAAY0BI@$$CBDH@Z ; ioINILoader::LoadInt_e<24>
; Function compile flags: /Ogsp
;	COMDAT ??$LoadInt_e@$0BI@@ioINILoader@@QAEHAAY0BI@$$CBDH@Z
_TEXT	SEGMENT
__k$ = -32						; size = 24
__$ArrayPad$ = -4					; size = 4
_k$ = 8							; size = 4
_i$ = 12						; size = 4
??$LoadInt_e@$0BI@@ioINILoader@@QAEHAAY0BI@$$CBDH@Z PROC ; ioINILoader::LoadInt_e<24>, COMDAT
; _this$ = ecx

; 118  : 	{

  00000	55		 push	 ebp
  00001	8b ec		 mov	 ebp, esp
  00003	83 ec 20	 sub	 esp, 32			; 00000020H
  00006	a1 00 00 00 00	 mov	 eax, DWORD PTR ___security_cookie
  0000b	33 c5		 xor	 eax, ebp
  0000d	89 45 fc	 mov	 DWORD PTR __$ArrayPad$[ebp], eax
  00010	8b 45 08	 mov	 eax, DWORD PTR _k$[ebp]

; 119  : 		_ENCSTR(k, _k);

  00013	8a 10		 mov	 dl, BYTE PTR [eax]
  00015	53		 push	 ebx
  00016	56		 push	 esi
  00017	8b f1		 mov	 esi, ecx
  00019	84 d2		 test	 dl, dl
  0001b	0f 84 45 02 00
	00		 je	 $LN96@LoadInt_e@2
  00021	80 f2 ed	 xor	 dl, -19			; ffffffedH
  00024	88 55 e0	 mov	 BYTE PTR __k$[ebp], dl
  00027	8a 50 01	 mov	 dl, BYTE PTR [eax+1]
  0002a	84 d2		 test	 dl, dl
  0002c	0f 84 2e 02 00
	00		 je	 $LN95@LoadInt_e@2
  00032	b3 ec		 mov	 bl, -20			; ffffffecH
  00034	32 d3		 xor	 dl, bl
  00036	88 55 e1	 mov	 BYTE PTR __k$[ebp+1], dl
  00039	8a 50 02	 mov	 dl, BYTE PTR [eax+2]
  0003c	84 d2		 test	 dl, dl
  0003e	0f 84 16 02 00
	00		 je	 $LN94@LoadInt_e@2
  00044	b1 eb		 mov	 cl, -21			; ffffffebH
  00046	32 d1		 xor	 dl, cl
  00048	88 55 e2	 mov	 BYTE PTR __k$[ebp+2], dl
  0004b	8a 50 03	 mov	 dl, BYTE PTR [eax+3]
  0004e	84 d2		 test	 dl, dl
  00050	0f 84 fe 01 00
	00		 je	 $LN93@LoadInt_e@2
  00056	80 f2 ea	 xor	 dl, -22			; ffffffeaH
  00059	88 55 e3	 mov	 BYTE PTR __k$[ebp+3], dl
  0005c	8a 50 04	 mov	 dl, BYTE PTR [eax+4]
  0005f	84 d2		 test	 dl, dl
  00061	0f 84 e7 01 00
	00		 je	 $LN92@LoadInt_e@2
  00067	80 f2 ed	 xor	 dl, -19			; ffffffedH
  0006a	88 55 e4	 mov	 BYTE PTR __k$[ebp+4], dl
  0006d	8a 50 05	 mov	 dl, BYTE PTR [eax+5]
  00070	84 d2		 test	 dl, dl
  00072	0f 84 d1 01 00
	00		 je	 $LN91@LoadInt_e@2
  00078	32 d3		 xor	 dl, bl
  0007a	88 55 e5	 mov	 BYTE PTR __k$[ebp+5], dl
  0007d	8a 50 06	 mov	 dl, BYTE PTR [eax+6]
  00080	84 d2		 test	 dl, dl
  00082	0f 84 bc 01 00
	00		 je	 $LN90@LoadInt_e@2
  00088	32 d1		 xor	 dl, cl
  0008a	88 55 e6	 mov	 BYTE PTR __k$[ebp+6], dl
  0008d	8a 50 07	 mov	 dl, BYTE PTR [eax+7]
  00090	84 d2		 test	 dl, dl
  00092	0f 84 a6 01 00
	00		 je	 $LN89@LoadInt_e@2
  00098	80 f2 ea	 xor	 dl, -22			; ffffffeaH
  0009b	88 55 e7	 mov	 BYTE PTR __k$[ebp+7], dl
  0009e	8a 50 08	 mov	 dl, BYTE PTR [eax+8]
  000a1	84 d2		 test	 dl, dl
  000a3	0f 84 8f 01 00
	00		 je	 $LN88@LoadInt_e@2
  000a9	80 f2 ed	 xor	 dl, -19			; ffffffedH
  000ac	88 55 e8	 mov	 BYTE PTR __k$[ebp+8], dl
  000af	8a 50 09	 mov	 dl, BYTE PTR [eax+9]
  000b2	84 d2		 test	 dl, dl
  000b4	0f 84 79 01 00
	00		 je	 $LN87@LoadInt_e@2
  000ba	32 d3		 xor	 dl, bl
  000bc	88 55 e9	 mov	 BYTE PTR __k$[ebp+9], dl
  000bf	8a 50 0a	 mov	 dl, BYTE PTR [eax+10]
  000c2	84 d2		 test	 dl, dl
  000c4	0f 84 64 01 00
	00		 je	 $LN86@LoadInt_e@2
  000ca	32 d1		 xor	 dl, cl
  000cc	88 55 ea	 mov	 BYTE PTR __k$[ebp+10], dl
  000cf	8a 50 0b	 mov	 dl, BYTE PTR [eax+11]
  000d2	84 d2		 test	 dl, dl
  000d4	0f 84 4e 01 00
	00		 je	 $LN85@LoadInt_e@2
  000da	80 f2 ea	 xor	 dl, -22			; ffffffeaH
  000dd	88 55 eb	 mov	 BYTE PTR __k$[ebp+11], dl
  000e0	8a 50 0c	 mov	 dl, BYTE PTR [eax+12]
  000e3	84 d2		 test	 dl, dl
  000e5	0f 84 37 01 00
	00		 je	 $LN84@LoadInt_e@2
  000eb	80 f2 ed	 xor	 dl, -19			; ffffffedH
  000ee	88 55 ec	 mov	 BYTE PTR __k$[ebp+12], dl
  000f1	8a 50 0d	 mov	 dl, BYTE PTR [eax+13]
  000f4	84 d2		 test	 dl, dl
  000f6	0f 84 21 01 00
	00		 je	 $LN83@LoadInt_e@2
  000fc	32 d3		 xor	 dl, bl
  000fe	88 55 ed	 mov	 BYTE PTR __k$[ebp+13], dl
  00101	8a 50 0e	 mov	 dl, BYTE PTR [eax+14]
  00104	84 d2		 test	 dl, dl
  00106	0f 84 0c 01 00
	00		 je	 $LN82@LoadInt_e@2
  0010c	32 d1		 xor	 dl, cl
  0010e	88 55 ee	 mov	 BYTE PTR __k$[ebp+14], dl
  00111	8a 50 0f	 mov	 dl, BYTE PTR [eax+15]
  00114	84 d2		 test	 dl, dl
  00116	0f 84 f6 00 00
	00		 je	 $LN81@LoadInt_e@2
  0011c	80 f2 ea	 xor	 dl, -22			; ffffffeaH
  0011f	88 55 ef	 mov	 BYTE PTR __k$[ebp+15], dl
  00122	8a 50 10	 mov	 dl, BYTE PTR [eax+16]
  00125	84 d2		 test	 dl, dl
  00127	0f 84 df 00 00
	00		 je	 $LN80@LoadInt_e@2
  0012d	80 f2 ed	 xor	 dl, -19			; ffffffedH
  00130	88 55 f0	 mov	 BYTE PTR __k$[ebp+16], dl
  00133	8a 50 11	 mov	 dl, BYTE PTR [eax+17]
  00136	84 d2		 test	 dl, dl
  00138	0f 84 c9 00 00
	00		 je	 $LN79@LoadInt_e@2
  0013e	32 d3		 xor	 dl, bl
  00140	88 55 f1	 mov	 BYTE PTR __k$[ebp+17], dl
  00143	8a 50 12	 mov	 dl, BYTE PTR [eax+18]
  00146	84 d2		 test	 dl, dl
  00148	0f 84 b4 00 00
	00		 je	 $LN78@LoadInt_e@2
  0014e	32 d1		 xor	 dl, cl
  00150	88 55 f2	 mov	 BYTE PTR __k$[ebp+18], dl
  00153	8a 50 13	 mov	 dl, BYTE PTR [eax+19]
  00156	84 d2		 test	 dl, dl
  00158	0f 84 9e 00 00
	00		 je	 $LN77@LoadInt_e@2
  0015e	80 f2 ea	 xor	 dl, -22			; ffffffeaH
  00161	88 55 f3	 mov	 BYTE PTR __k$[ebp+19], dl
  00164	8a 50 14	 mov	 dl, BYTE PTR [eax+20]
  00167	84 d2		 test	 dl, dl
  00169	0f 84 87 00 00
	00		 je	 $LN76@LoadInt_e@2
  0016f	80 f2 ed	 xor	 dl, -19			; ffffffedH
  00172	88 55 f4	 mov	 BYTE PTR __k$[ebp+20], dl
  00175	8a 50 15	 mov	 dl, BYTE PTR [eax+21]
  00178	84 d2		 test	 dl, dl
  0017a	74 75		 je	 SHORT $LN75@LoadInt_e@2
  0017c	32 d3		 xor	 dl, bl
  0017e	88 55 f5	 mov	 BYTE PTR __k$[ebp+21], dl
  00181	8a 50 16	 mov	 dl, BYTE PTR [eax+22]
  00184	84 d2		 test	 dl, dl
  00186	74 64		 je	 SHORT $LN74@LoadInt_e@2
  00188	32 d1		 xor	 dl, cl
  0018a	80 78 17 00	 cmp	 BYTE PTR [eax+23], 0
  0018e	88 55 f6	 mov	 BYTE PTR __k$[ebp+22], dl
  00191	0f 84 d3 00 00
	00		 je	 $LN1@LoadInt_e@2
  00197	8a 50 18	 mov	 dl, BYTE PTR [eax+24]
  0019a	84 d2		 test	 dl, dl
  0019c	74 48		 je	 SHORT $LN72@LoadInt_e@2
  0019e	80 f2 ed	 xor	 dl, -19			; ffffffedH
  001a1	88 55 f8	 mov	 BYTE PTR __k$[ebp+24], dl
  001a4	8a 50 19	 mov	 dl, BYTE PTR [eax+25]
  001a7	84 d2		 test	 dl, dl
  001a9	74 33		 je	 SHORT $LN71@LoadInt_e@2
  001ab	32 d3		 xor	 dl, bl
  001ad	88 55 f9	 mov	 BYTE PTR __k$[ebp+25], dl
  001b0	8a 50 1a	 mov	 dl, BYTE PTR [eax+26]
  001b3	84 d2		 test	 dl, dl
  001b5	74 1f		 je	 SHORT $LN70@LoadInt_e@2
  001b7	8a 40 1b	 mov	 al, BYTE PTR [eax+27]
  001ba	32 d1		 xor	 dl, cl
  001bc	88 55 fa	 mov	 BYTE PTR __k$[ebp+26], dl
  001bf	84 c0		 test	 al, al
  001c1	74 0a		 je	 SHORT $LN69@LoadInt_e@2
  001c3	34 ea		 xor	 al, -22			; ffffffeaH
  001c5	88 45 fb	 mov	 BYTE PTR __k$[ebp+27], al
  001c8	e9 9d 00 00 00	 jmp	 $LN1@LoadInt_e@2
$LN69@LoadInt_e@2:
  001cd	c6 45 fb ea	 mov	 BYTE PTR __k$[ebp+27], -22 ; ffffffeaH
  001d1	e9 94 00 00 00	 jmp	 $LN1@LoadInt_e@2
$LN70@LoadInt_e@2:
  001d6	88 4d fa	 mov	 BYTE PTR __k$[ebp+26], cl
  001d9	e9 8c 00 00 00	 jmp	 $LN1@LoadInt_e@2
$LN71@LoadInt_e@2:
  001de	88 5d f9	 mov	 BYTE PTR __k$[ebp+25], bl
  001e1	e9 84 00 00 00	 jmp	 $LN1@LoadInt_e@2
$LN72@LoadInt_e@2:
  001e6	c6 45 f8 ed	 mov	 BYTE PTR __k$[ebp+24], -19 ; ffffffedH
  001ea	eb 7e		 jmp	 SHORT $LN1@LoadInt_e@2
$LN74@LoadInt_e@2:
  001ec	88 4d f6	 mov	 BYTE PTR __k$[ebp+22], cl
  001ef	eb 79		 jmp	 SHORT $LN1@LoadInt_e@2
$LN75@LoadInt_e@2:
  001f1	88 5d f5	 mov	 BYTE PTR __k$[ebp+21], bl
  001f4	eb 74		 jmp	 SHORT $LN1@LoadInt_e@2
$LN76@LoadInt_e@2:
  001f6	c6 45 f4 ed	 mov	 BYTE PTR __k$[ebp+20], -19 ; ffffffedH
  001fa	eb 6e		 jmp	 SHORT $LN1@LoadInt_e@2
$LN77@LoadInt_e@2:
  001fc	c6 45 f3 ea	 mov	 BYTE PTR __k$[ebp+19], -22 ; ffffffeaH
  00200	eb 68		 jmp	 SHORT $LN1@LoadInt_e@2
$LN78@LoadInt_e@2:
  00202	88 4d f2	 mov	 BYTE PTR __k$[ebp+18], cl
  00205	eb 63		 jmp	 SHORT $LN1@LoadInt_e@2
$LN79@LoadInt_e@2:
  00207	88 5d f1	 mov	 BYTE PTR __k$[ebp+17], bl
  0020a	eb 5e		 jmp	 SHORT $LN1@LoadInt_e@2
$LN80@LoadInt_e@2:
  0020c	c6 45 f0 ed	 mov	 BYTE PTR __k$[ebp+16], -19 ; ffffffedH
  00210	eb 58		 jmp	 SHORT $LN1@LoadInt_e@2
$LN81@LoadInt_e@2:
  00212	c6 45 ef ea	 mov	 BYTE PTR __k$[ebp+15], -22 ; ffffffeaH
  00216	eb 52		 jmp	 SHORT $LN1@LoadInt_e@2
$LN82@LoadInt_e@2:
  00218	88 4d ee	 mov	 BYTE PTR __k$[ebp+14], cl
  0021b	eb 4d		 jmp	 SHORT $LN1@LoadInt_e@2
$LN83@LoadInt_e@2:
  0021d	88 5d ed	 mov	 BYTE PTR __k$[ebp+13], bl
  00220	eb 48		 jmp	 SHORT $LN1@LoadInt_e@2
$LN84@LoadInt_e@2:
  00222	c6 45 ec ed	 mov	 BYTE PTR __k$[ebp+12], -19 ; ffffffedH
  00226	eb 42		 jmp	 SHORT $LN1@LoadInt_e@2
$LN85@LoadInt_e@2:
  00228	c6 45 eb ea	 mov	 BYTE PTR __k$[ebp+11], -22 ; ffffffeaH
  0022c	eb 3c		 jmp	 SHORT $LN1@LoadInt_e@2
$LN86@LoadInt_e@2:
  0022e	88 4d ea	 mov	 BYTE PTR __k$[ebp+10], cl
  00231	eb 37		 jmp	 SHORT $LN1@LoadInt_e@2
$LN87@LoadInt_e@2:
  00233	88 5d e9	 mov	 BYTE PTR __k$[ebp+9], bl
  00236	eb 32		 jmp	 SHORT $LN1@LoadInt_e@2
$LN88@LoadInt_e@2:
  00238	c6 45 e8 ed	 mov	 BYTE PTR __k$[ebp+8], -19 ; ffffffedH
  0023c	eb 2c		 jmp	 SHORT $LN1@LoadInt_e@2
$LN89@LoadInt_e@2:
  0023e	c6 45 e7 ea	 mov	 BYTE PTR __k$[ebp+7], -22 ; ffffffeaH
  00242	eb 26		 jmp	 SHORT $LN1@LoadInt_e@2
$LN90@LoadInt_e@2:
  00244	88 4d e6	 mov	 BYTE PTR __k$[ebp+6], cl
  00247	eb 21		 jmp	 SHORT $LN1@LoadInt_e@2
$LN91@LoadInt_e@2:
  00249	88 5d e5	 mov	 BYTE PTR __k$[ebp+5], bl
  0024c	eb 1c		 jmp	 SHORT $LN1@LoadInt_e@2
$LN92@LoadInt_e@2:
  0024e	c6 45 e4 ed	 mov	 BYTE PTR __k$[ebp+4], -19 ; ffffffedH
  00252	eb 16		 jmp	 SHORT $LN1@LoadInt_e@2
$LN93@LoadInt_e@2:
  00254	c6 45 e3 ea	 mov	 BYTE PTR __k$[ebp+3], -22 ; ffffffeaH
  00258	eb 10		 jmp	 SHORT $LN1@LoadInt_e@2
$LN94@LoadInt_e@2:
  0025a	c6 45 e2 eb	 mov	 BYTE PTR __k$[ebp+2], -21 ; ffffffebH
  0025e	eb 0a		 jmp	 SHORT $LN1@LoadInt_e@2
$LN95@LoadInt_e@2:
  00260	c6 45 e1 ec	 mov	 BYTE PTR __k$[ebp+1], -20 ; ffffffecH
  00264	eb 04		 jmp	 SHORT $LN1@LoadInt_e@2
$LN96@LoadInt_e@2:
  00266	c6 45 e0 ed	 mov	 BYTE PTR __k$[ebp], -19	; ffffffedH
$LN1@LoadInt_e@2:
  0026a	6a 05		 push	 5
  0026c	8d 45 e0	 lea	 eax, DWORD PTR __k$[ebp]
  0026f	c6 45 f7 00	 mov	 BYTE PTR __k$[ebp+23], 0
  00273	5a		 pop	 edx
$LL104@LoadInt_e@2:
  00274	81 30 ed ec eb
	ea		 xor	 DWORD PTR [eax], -353637139 ; eaebecedH
  0027a	83 c0 04	 add	 eax, 4
  0027d	4a		 dec	 edx
  0027e	75 f4		 jne	 SHORT $LL104@LoadInt_e@2
  00280	6a 14		 push	 20			; 00000014H
  00282	58		 pop	 eax
$LL101@LoadInt_e@2:
  00283	8b c8		 mov	 ecx, eax
  00285	81 e1 03 00 00
	80		 and	 ecx, -2147483645	; 80000003H
  0028b	79 05		 jns	 SHORT $LN111@LoadInt_e@2
  0028d	49		 dec	 ecx
  0028e	83 c9 fc	 or	 ecx, -4			; fffffffcH
  00291	41		 inc	 ecx
$LN111@LoadInt_e@2:
  00292	b2 ed		 mov	 dl, -19			; ffffffedH
  00294	2a d1		 sub	 dl, cl
  00296	30 54 05 e0	 xor	 BYTE PTR __k$[ebp+eax], dl
  0029a	40		 inc	 eax
  0029b	83 f8 17	 cmp	 eax, 23			; 00000017H
  0029e	7c e3		 jl	 SHORT $LL101@LoadInt_e@2

; 120  : 		return LoadInt(_k, i);

  002a0	ff 75 0c	 push	 DWORD PTR _i$[ebp]
  002a3	8d 45 e0	 lea	 eax, DWORD PTR __k$[ebp]
  002a6	50		 push	 eax
  002a7	8b ce		 mov	 ecx, esi
  002a9	ff 15 00 00 00
	00		 call	 DWORD PTR __imp_?LoadInt@ioINILoader@@QAEHPBDH@Z

; 121  : 	}

  002af	8b 4d fc	 mov	 ecx, DWORD PTR __$ArrayPad$[ebp]
  002b2	5e		 pop	 esi
  002b3	33 cd		 xor	 ecx, ebp
  002b5	5b		 pop	 ebx
  002b6	e8 00 00 00 00	 call	 @__security_check_cookie@4
  002bb	c9		 leave
  002bc	c2 08 00	 ret	 8
??$LoadInt_e@$0BI@@ioINILoader@@QAEHAAY0BI@$$CBDH@Z ENDP ; ioINILoader::LoadInt_e<24>
_TEXT	ENDS
PUBLIC	__$ArrayPad$
PUBLIC	??$LoadInt_e@$0BF@@ioINILoader@@QAEHAAY0BF@$$CBDH@Z ; ioINILoader::LoadInt_e<21>
; Function compile flags: /Ogsp
;	COMDAT ??$LoadInt_e@$0BF@@ioINILoader@@QAEHAAY0BF@$$CBDH@Z
_TEXT	SEGMENT
__k$ = -32						; size = 21
__$ArrayPad$ = -4					; size = 4
_k$ = 8							; size = 4
_i$ = 12						; size = 4
??$LoadInt_e@$0BF@@ioINILoader@@QAEHAAY0BF@$$CBDH@Z PROC ; ioINILoader::LoadInt_e<21>, COMDAT
; _this$ = ecx

; 118  : 	{

  00000	55		 push	 ebp
  00001	8b ec		 mov	 ebp, esp
  00003	83 ec 20	 sub	 esp, 32			; 00000020H
  00006	a1 00 00 00 00	 mov	 eax, DWORD PTR ___security_cookie
  0000b	33 c5		 xor	 eax, ebp
  0000d	89 45 fc	 mov	 DWORD PTR __$ArrayPad$[ebp], eax
  00010	8b 45 08	 mov	 eax, DWORD PTR _k$[ebp]

; 119  : 		_ENCSTR(k, _k);

  00013	8a 10		 mov	 dl, BYTE PTR [eax]
  00015	53		 push	 ebx
  00016	56		 push	 esi
  00017	8b f1		 mov	 esi, ecx
  00019	84 d2		 test	 dl, dl
  0001b	0f 84 f7 01 00
	00		 je	 $LN96@LoadInt_e@3
  00021	80 f2 ed	 xor	 dl, -19			; ffffffedH
  00024	88 55 e0	 mov	 BYTE PTR __k$[ebp], dl
  00027	8a 50 01	 mov	 dl, BYTE PTR [eax+1]
  0002a	84 d2		 test	 dl, dl
  0002c	0f 84 e0 01 00
	00		 je	 $LN95@LoadInt_e@3
  00032	b1 ec		 mov	 cl, -20			; ffffffecH
  00034	32 d1		 xor	 dl, cl
  00036	88 55 e1	 mov	 BYTE PTR __k$[ebp+1], dl
  00039	8a 50 02	 mov	 dl, BYTE PTR [eax+2]
  0003c	84 d2		 test	 dl, dl
  0003e	0f 84 c8 01 00
	00		 je	 $LN94@LoadInt_e@3
  00044	b3 eb		 mov	 bl, -21			; ffffffebH
  00046	32 d3		 xor	 dl, bl
  00048	88 55 e2	 mov	 BYTE PTR __k$[ebp+2], dl
  0004b	8a 50 03	 mov	 dl, BYTE PTR [eax+3]
  0004e	84 d2		 test	 dl, dl
  00050	0f 84 b0 01 00
	00		 je	 $LN93@LoadInt_e@3
  00056	80 f2 ea	 xor	 dl, -22			; ffffffeaH
  00059	88 55 e3	 mov	 BYTE PTR __k$[ebp+3], dl
  0005c	8a 50 04	 mov	 dl, BYTE PTR [eax+4]
  0005f	84 d2		 test	 dl, dl
  00061	0f 84 99 01 00
	00		 je	 $LN92@LoadInt_e@3
  00067	80 f2 ed	 xor	 dl, -19			; ffffffedH
  0006a	88 55 e4	 mov	 BYTE PTR __k$[ebp+4], dl
  0006d	8a 50 05	 mov	 dl, BYTE PTR [eax+5]
  00070	84 d2		 test	 dl, dl
  00072	0f 84 83 01 00
	00		 je	 $LN91@LoadInt_e@3
  00078	32 d1		 xor	 dl, cl
  0007a	88 55 e5	 mov	 BYTE PTR __k$[ebp+5], dl
  0007d	8a 50 06	 mov	 dl, BYTE PTR [eax+6]
  00080	84 d2		 test	 dl, dl
  00082	0f 84 6e 01 00
	00		 je	 $LN90@LoadInt_e@3
  00088	32 d3		 xor	 dl, bl
  0008a	88 55 e6	 mov	 BYTE PTR __k$[ebp+6], dl
  0008d	8a 50 07	 mov	 dl, BYTE PTR [eax+7]
  00090	84 d2		 test	 dl, dl
  00092	0f 84 58 01 00
	00		 je	 $LN89@LoadInt_e@3
  00098	80 f2 ea	 xor	 dl, -22			; ffffffeaH
  0009b	88 55 e7	 mov	 BYTE PTR __k$[ebp+7], dl
  0009e	8a 50 08	 mov	 dl, BYTE PTR [eax+8]
  000a1	84 d2		 test	 dl, dl
  000a3	0f 84 41 01 00
	00		 je	 $LN88@LoadInt_e@3
  000a9	80 f2 ed	 xor	 dl, -19			; ffffffedH
  000ac	88 55 e8	 mov	 BYTE PTR __k$[ebp+8], dl
  000af	8a 50 09	 mov	 dl, BYTE PTR [eax+9]
  000b2	84 d2		 test	 dl, dl
  000b4	0f 84 2b 01 00
	00		 je	 $LN87@LoadInt_e@3
  000ba	32 d1		 xor	 dl, cl
  000bc	88 55 e9	 mov	 BYTE PTR __k$[ebp+9], dl
  000bf	8a 50 0a	 mov	 dl, BYTE PTR [eax+10]
  000c2	84 d2		 test	 dl, dl
  000c4	0f 84 16 01 00
	00		 je	 $LN86@LoadInt_e@3
  000ca	32 d3		 xor	 dl, bl
  000cc	88 55 ea	 mov	 BYTE PTR __k$[ebp+10], dl
  000cf	8a 50 0b	 mov	 dl, BYTE PTR [eax+11]
  000d2	84 d2		 test	 dl, dl
  000d4	0f 84 00 01 00
	00		 je	 $LN85@LoadInt_e@3
  000da	80 f2 ea	 xor	 dl, -22			; ffffffeaH
  000dd	88 55 eb	 mov	 BYTE PTR __k$[ebp+11], dl
  000e0	8a 50 0c	 mov	 dl, BYTE PTR [eax+12]
  000e3	84 d2		 test	 dl, dl
  000e5	0f 84 e9 00 00
	00		 je	 $LN84@LoadInt_e@3
  000eb	80 f2 ed	 xor	 dl, -19			; ffffffedH
  000ee	88 55 ec	 mov	 BYTE PTR __k$[ebp+12], dl
  000f1	8a 50 0d	 mov	 dl, BYTE PTR [eax+13]
  000f4	84 d2		 test	 dl, dl
  000f6	0f 84 d3 00 00
	00		 je	 $LN83@LoadInt_e@3
  000fc	32 d1		 xor	 dl, cl
  000fe	88 55 ed	 mov	 BYTE PTR __k$[ebp+13], dl
  00101	8a 50 0e	 mov	 dl, BYTE PTR [eax+14]
  00104	84 d2		 test	 dl, dl
  00106	0f 84 be 00 00
	00		 je	 $LN82@LoadInt_e@3
  0010c	32 d3		 xor	 dl, bl
  0010e	88 55 ee	 mov	 BYTE PTR __k$[ebp+14], dl
  00111	8a 50 0f	 mov	 dl, BYTE PTR [eax+15]
  00114	84 d2		 test	 dl, dl
  00116	0f 84 a8 00 00
	00		 je	 $LN81@LoadInt_e@3
  0011c	80 f2 ea	 xor	 dl, -22			; ffffffeaH
  0011f	88 55 ef	 mov	 BYTE PTR __k$[ebp+15], dl
  00122	8a 50 10	 mov	 dl, BYTE PTR [eax+16]
  00125	84 d2		 test	 dl, dl
  00127	0f 84 91 00 00
	00		 je	 $LN80@LoadInt_e@3
  0012d	80 f2 ed	 xor	 dl, -19			; ffffffedH
  00130	88 55 f0	 mov	 BYTE PTR __k$[ebp+16], dl
  00133	8a 50 11	 mov	 dl, BYTE PTR [eax+17]
  00136	84 d2		 test	 dl, dl
  00138	74 7f		 je	 SHORT $LN79@LoadInt_e@3
  0013a	32 d1		 xor	 dl, cl
  0013c	88 55 f1	 mov	 BYTE PTR __k$[ebp+17], dl
  0013f	8a 50 12	 mov	 dl, BYTE PTR [eax+18]
  00142	84 d2		 test	 dl, dl
  00144	74 6e		 je	 SHORT $LN78@LoadInt_e@3
  00146	32 d3		 xor	 dl, bl
  00148	88 55 f2	 mov	 BYTE PTR __k$[ebp+18], dl
  0014b	8a 50 13	 mov	 dl, BYTE PTR [eax+19]
  0014e	84 d2		 test	 dl, dl
  00150	74 5c		 je	 SHORT $LN77@LoadInt_e@3
  00152	80 f2 ea	 xor	 dl, -22			; ffffffeaH
  00155	80 78 14 00	 cmp	 BYTE PTR [eax+20], 0
  00159	88 55 f3	 mov	 BYTE PTR __k$[ebp+19], dl
  0015c	0f 84 ba 00 00
	00		 je	 $LN1@LoadInt_e@3
  00162	8a 50 15	 mov	 dl, BYTE PTR [eax+21]
  00165	84 d2		 test	 dl, dl
  00167	74 40		 je	 SHORT $LN75@LoadInt_e@3
  00169	32 d1		 xor	 dl, cl
  0016b	88 55 f5	 mov	 BYTE PTR __k$[ebp+21], dl
  0016e	8a 50 16	 mov	 dl, BYTE PTR [eax+22]
  00171	84 d2		 test	 dl, dl
  00173	74 2f		 je	 SHORT $LN74@LoadInt_e@3
  00175	32 d3		 xor	 dl, bl
  00177	88 55 f6	 mov	 BYTE PTR __k$[ebp+22], dl
  0017a	8a 50 17	 mov	 dl, BYTE PTR [eax+23]
  0017d	84 d2		 test	 dl, dl
  0017f	74 1d		 je	 SHORT $LN73@LoadInt_e@3
  00181	8a 40 18	 mov	 al, BYTE PTR [eax+24]
  00184	80 f2 ea	 xor	 dl, -22			; ffffffeaH
  00187	88 55 f7	 mov	 BYTE PTR __k$[ebp+23], dl
  0018a	84 c0		 test	 al, al
  0018c	74 0a		 je	 SHORT $LN72@LoadInt_e@3
  0018e	34 ed		 xor	 al, -19			; ffffffedH
  00190	88 45 f8	 mov	 BYTE PTR __k$[ebp+24], al
  00193	e9 84 00 00 00	 jmp	 $LN1@LoadInt_e@3
$LN72@LoadInt_e@3:
  00198	c6 45 f8 ed	 mov	 BYTE PTR __k$[ebp+24], -19 ; ffffffedH
  0019c	eb 7e		 jmp	 SHORT $LN1@LoadInt_e@3
$LN73@LoadInt_e@3:
  0019e	c6 45 f7 ea	 mov	 BYTE PTR __k$[ebp+23], -22 ; ffffffeaH
  001a2	eb 78		 jmp	 SHORT $LN1@LoadInt_e@3
$LN74@LoadInt_e@3:
  001a4	88 5d f6	 mov	 BYTE PTR __k$[ebp+22], bl
  001a7	eb 73		 jmp	 SHORT $LN1@LoadInt_e@3
$LN75@LoadInt_e@3:
  001a9	88 4d f5	 mov	 BYTE PTR __k$[ebp+21], cl
  001ac	eb 6e		 jmp	 SHORT $LN1@LoadInt_e@3
$LN77@LoadInt_e@3:
  001ae	c6 45 f3 ea	 mov	 BYTE PTR __k$[ebp+19], -22 ; ffffffeaH
  001b2	eb 68		 jmp	 SHORT $LN1@LoadInt_e@3
$LN78@LoadInt_e@3:
  001b4	88 5d f2	 mov	 BYTE PTR __k$[ebp+18], bl
  001b7	eb 63		 jmp	 SHORT $LN1@LoadInt_e@3
$LN79@LoadInt_e@3:
  001b9	88 4d f1	 mov	 BYTE PTR __k$[ebp+17], cl
  001bc	eb 5e		 jmp	 SHORT $LN1@LoadInt_e@3
$LN80@LoadInt_e@3:
  001be	c6 45 f0 ed	 mov	 BYTE PTR __k$[ebp+16], -19 ; ffffffedH
  001c2	eb 58		 jmp	 SHORT $LN1@LoadInt_e@3
$LN81@LoadInt_e@3:
  001c4	c6 45 ef ea	 mov	 BYTE PTR __k$[ebp+15], -22 ; ffffffeaH
  001c8	eb 52		 jmp	 SHORT $LN1@LoadInt_e@3
$LN82@LoadInt_e@3:
  001ca	88 5d ee	 mov	 BYTE PTR __k$[ebp+14], bl
  001cd	eb 4d		 jmp	 SHORT $LN1@LoadInt_e@3
$LN83@LoadInt_e@3:
  001cf	88 4d ed	 mov	 BYTE PTR __k$[ebp+13], cl
  001d2	eb 48		 jmp	 SHORT $LN1@LoadInt_e@3
$LN84@LoadInt_e@3:
  001d4	c6 45 ec ed	 mov	 BYTE PTR __k$[ebp+12], -19 ; ffffffedH
  001d8	eb 42		 jmp	 SHORT $LN1@LoadInt_e@3
$LN85@LoadInt_e@3:
  001da	c6 45 eb ea	 mov	 BYTE PTR __k$[ebp+11], -22 ; ffffffeaH
  001de	eb 3c		 jmp	 SHORT $LN1@LoadInt_e@3
$LN86@LoadInt_e@3:
  001e0	88 5d ea	 mov	 BYTE PTR __k$[ebp+10], bl
  001e3	eb 37		 jmp	 SHORT $LN1@LoadInt_e@3
$LN87@LoadInt_e@3:
  001e5	88 4d e9	 mov	 BYTE PTR __k$[ebp+9], cl
  001e8	eb 32		 jmp	 SHORT $LN1@LoadInt_e@3
$LN88@LoadInt_e@3:
  001ea	c6 45 e8 ed	 mov	 BYTE PTR __k$[ebp+8], -19 ; ffffffedH
  001ee	eb 2c		 jmp	 SHORT $LN1@LoadInt_e@3
$LN89@LoadInt_e@3:
  001f0	c6 45 e7 ea	 mov	 BYTE PTR __k$[ebp+7], -22 ; ffffffeaH
  001f4	eb 26		 jmp	 SHORT $LN1@LoadInt_e@3
$LN90@LoadInt_e@3:
  001f6	88 5d e6	 mov	 BYTE PTR __k$[ebp+6], bl
  001f9	eb 21		 jmp	 SHORT $LN1@LoadInt_e@3
$LN91@LoadInt_e@3:
  001fb	88 4d e5	 mov	 BYTE PTR __k$[ebp+5], cl
  001fe	eb 1c		 jmp	 SHORT $LN1@LoadInt_e@3
$LN92@LoadInt_e@3:
  00200	c6 45 e4 ed	 mov	 BYTE PTR __k$[ebp+4], -19 ; ffffffedH
  00204	eb 16		 jmp	 SHORT $LN1@LoadInt_e@3
$LN93@LoadInt_e@3:
  00206	c6 45 e3 ea	 mov	 BYTE PTR __k$[ebp+3], -22 ; ffffffeaH
  0020a	eb 10		 jmp	 SHORT $LN1@LoadInt_e@3
$LN94@LoadInt_e@3:
  0020c	c6 45 e2 eb	 mov	 BYTE PTR __k$[ebp+2], -21 ; ffffffebH
  00210	eb 0a		 jmp	 SHORT $LN1@LoadInt_e@3
$LN95@LoadInt_e@3:
  00212	c6 45 e1 ec	 mov	 BYTE PTR __k$[ebp+1], -20 ; ffffffecH
  00216	eb 04		 jmp	 SHORT $LN1@LoadInt_e@3
$LN96@LoadInt_e@3:
  00218	c6 45 e0 ed	 mov	 BYTE PTR __k$[ebp], -19	; ffffffedH
$LN1@LoadInt_e@3:
  0021c	6a 05		 push	 5
  0021e	8d 45 e0	 lea	 eax, DWORD PTR __k$[ebp]
  00221	c6 45 f4 00	 mov	 BYTE PTR __k$[ebp+20], 0
  00225	5a		 pop	 edx
$LL104@LoadInt_e@3:
  00226	81 30 ed ec eb
	ea		 xor	 DWORD PTR [eax], -353637139 ; eaebecedH
  0022c	83 c0 04	 add	 eax, 4
  0022f	4a		 dec	 edx
  00230	75 f4		 jne	 SHORT $LL104@LoadInt_e@3

; 120  : 		return LoadInt(_k, i);

  00232	ff 75 0c	 push	 DWORD PTR _i$[ebp]
  00235	8d 45 e0	 lea	 eax, DWORD PTR __k$[ebp]
  00238	50		 push	 eax
  00239	8b ce		 mov	 ecx, esi
  0023b	ff 15 00 00 00
	00		 call	 DWORD PTR __imp_?LoadInt@ioINILoader@@QAEHPBDH@Z

; 121  : 	}

  00241	8b 4d fc	 mov	 ecx, DWORD PTR __$ArrayPad$[ebp]
  00244	5e		 pop	 esi
  00245	33 cd		 xor	 ecx, ebp
  00247	5b		 pop	 ebx
  00248	e8 00 00 00 00	 call	 @__security_check_cookie@4
  0024d	c9		 leave
  0024e	c2 08 00	 ret	 8
??$LoadInt_e@$0BF@@ioINILoader@@QAEHAAY0BF@$$CBDH@Z ENDP ; ioINILoader::LoadInt_e<21>
_TEXT	ENDS
PUBLIC	__$ArrayPad$
PUBLIC	??$LoadInt_e@$0BG@@ioINILoader@@QAEHAAY0BG@$$CBDH@Z ; ioINILoader::LoadInt_e<22>
; Function compile flags: /Ogsp
;	COMDAT ??$LoadInt_e@$0BG@@ioINILoader@@QAEHAAY0BG@$$CBDH@Z
_TEXT	SEGMENT
__k$ = -32						; size = 22
__$ArrayPad$ = -4					; size = 4
_k$ = 8							; size = 4
_i$ = 12						; size = 4
??$LoadInt_e@$0BG@@ioINILoader@@QAEHAAY0BG@$$CBDH@Z PROC ; ioINILoader::LoadInt_e<22>, COMDAT
; _this$ = ecx

; 118  : 	{

  00000	55		 push	 ebp
  00001	8b ec		 mov	 ebp, esp
  00003	83 ec 20	 sub	 esp, 32			; 00000020H
  00006	a1 00 00 00 00	 mov	 eax, DWORD PTR ___security_cookie
  0000b	33 c5		 xor	 eax, ebp
  0000d	89 45 fc	 mov	 DWORD PTR __$ArrayPad$[ebp], eax
  00010	8b 45 08	 mov	 eax, DWORD PTR _k$[ebp]

; 119  : 		_ENCSTR(k, _k);

  00013	8a 10		 mov	 dl, BYTE PTR [eax]
  00015	53		 push	 ebx
  00016	56		 push	 esi
  00017	8b f1		 mov	 esi, ecx
  00019	84 d2		 test	 dl, dl
  0001b	0f 84 15 02 00
	00		 je	 $LN96@LoadInt_e@4
  00021	80 f2 ed	 xor	 dl, -19			; ffffffedH
  00024	88 55 e0	 mov	 BYTE PTR __k$[ebp], dl
  00027	8a 50 01	 mov	 dl, BYTE PTR [eax+1]
  0002a	84 d2		 test	 dl, dl
  0002c	0f 84 fe 01 00
	00		 je	 $LN95@LoadInt_e@4
  00032	80 f2 ec	 xor	 dl, -20			; ffffffecH
  00035	88 55 e1	 mov	 BYTE PTR __k$[ebp+1], dl
  00038	8a 50 02	 mov	 dl, BYTE PTR [eax+2]
  0003b	84 d2		 test	 dl, dl
  0003d	0f 84 e7 01 00
	00		 je	 $LN94@LoadInt_e@4
  00043	b1 eb		 mov	 cl, -21			; ffffffebH
  00045	32 d1		 xor	 dl, cl
  00047	88 55 e2	 mov	 BYTE PTR __k$[ebp+2], dl
  0004a	8a 50 03	 mov	 dl, BYTE PTR [eax+3]
  0004d	84 d2		 test	 dl, dl
  0004f	0f 84 cf 01 00
	00		 je	 $LN93@LoadInt_e@4
  00055	b3 ea		 mov	 bl, -22			; ffffffeaH
  00057	32 d3		 xor	 dl, bl
  00059	88 55 e3	 mov	 BYTE PTR __k$[ebp+3], dl
  0005c	8a 50 04	 mov	 dl, BYTE PTR [eax+4]
  0005f	84 d2		 test	 dl, dl
  00061	0f 84 b7 01 00
	00		 je	 $LN92@LoadInt_e@4
  00067	80 f2 ed	 xor	 dl, -19			; ffffffedH
  0006a	88 55 e4	 mov	 BYTE PTR __k$[ebp+4], dl
  0006d	8a 50 05	 mov	 dl, BYTE PTR [eax+5]
  00070	84 d2		 test	 dl, dl
  00072	0f 84 a0 01 00
	00		 je	 $LN91@LoadInt_e@4
  00078	80 f2 ec	 xor	 dl, -20			; ffffffecH
  0007b	88 55 e5	 mov	 BYTE PTR __k$[ebp+5], dl
  0007e	8a 50 06	 mov	 dl, BYTE PTR [eax+6]
  00081	84 d2		 test	 dl, dl
  00083	0f 84 8a 01 00
	00		 je	 $LN90@LoadInt_e@4
  00089	32 d1		 xor	 dl, cl
  0008b	88 55 e6	 mov	 BYTE PTR __k$[ebp+6], dl
  0008e	8a 50 07	 mov	 dl, BYTE PTR [eax+7]
  00091	84 d2		 test	 dl, dl
  00093	0f 84 75 01 00
	00		 je	 $LN89@LoadInt_e@4
  00099	32 d3		 xor	 dl, bl
  0009b	88 55 e7	 mov	 BYTE PTR __k$[ebp+7], dl
  0009e	8a 50 08	 mov	 dl, BYTE PTR [eax+8]
  000a1	84 d2		 test	 dl, dl
  000a3	0f 84 5f 01 00
	00		 je	 $LN88@LoadInt_e@4
  000a9	80 f2 ed	 xor	 dl, -19			; ffffffedH
  000ac	88 55 e8	 mov	 BYTE PTR __k$[ebp+8], dl
  000af	8a 50 09	 mov	 dl, BYTE PTR [eax+9]
  000b2	84 d2		 test	 dl, dl
  000b4	0f 84 48 01 00
	00		 je	 $LN87@LoadInt_e@4
  000ba	80 f2 ec	 xor	 dl, -20			; ffffffecH
  000bd	88 55 e9	 mov	 BYTE PTR __k$[ebp+9], dl
  000c0	8a 50 0a	 mov	 dl, BYTE PTR [eax+10]
  000c3	84 d2		 test	 dl, dl
  000c5	0f 84 32 01 00
	00		 je	 $LN86@LoadInt_e@4
  000cb	32 d1		 xor	 dl, cl
  000cd	88 55 ea	 mov	 BYTE PTR __k$[ebp+10], dl
  000d0	8a 50 0b	 mov	 dl, BYTE PTR [eax+11]
  000d3	84 d2		 test	 dl, dl
  000d5	0f 84 1d 01 00
	00		 je	 $LN85@LoadInt_e@4
  000db	32 d3		 xor	 dl, bl
  000dd	88 55 eb	 mov	 BYTE PTR __k$[ebp+11], dl
  000e0	8a 50 0c	 mov	 dl, BYTE PTR [eax+12]
  000e3	84 d2		 test	 dl, dl
  000e5	0f 84 07 01 00
	00		 je	 $LN84@LoadInt_e@4
  000eb	80 f2 ed	 xor	 dl, -19			; ffffffedH
  000ee	88 55 ec	 mov	 BYTE PTR __k$[ebp+12], dl
  000f1	8a 50 0d	 mov	 dl, BYTE PTR [eax+13]
  000f4	84 d2		 test	 dl, dl
  000f6	0f 84 f0 00 00
	00		 je	 $LN83@LoadInt_e@4
  000fc	80 f2 ec	 xor	 dl, -20			; ffffffecH
  000ff	88 55 ed	 mov	 BYTE PTR __k$[ebp+13], dl
  00102	8a 50 0e	 mov	 dl, BYTE PTR [eax+14]
  00105	84 d2		 test	 dl, dl
  00107	0f 84 da 00 00
	00		 je	 $LN82@LoadInt_e@4
  0010d	32 d1		 xor	 dl, cl
  0010f	88 55 ee	 mov	 BYTE PTR __k$[ebp+14], dl
  00112	8a 50 0f	 mov	 dl, BYTE PTR [eax+15]
  00115	84 d2		 test	 dl, dl
  00117	0f 84 c5 00 00
	00		 je	 $LN81@LoadInt_e@4
  0011d	32 d3		 xor	 dl, bl
  0011f	88 55 ef	 mov	 BYTE PTR __k$[ebp+15], dl
  00122	8a 50 10	 mov	 dl, BYTE PTR [eax+16]
  00125	84 d2		 test	 dl, dl
  00127	0f 84 af 00 00
	00		 je	 $LN80@LoadInt_e@4
  0012d	80 f2 ed	 xor	 dl, -19			; ffffffedH
  00130	88 55 f0	 mov	 BYTE PTR __k$[ebp+16], dl
  00133	8a 50 11	 mov	 dl, BYTE PTR [eax+17]
  00136	84 d2		 test	 dl, dl
  00138	0f 84 98 00 00
	00		 je	 $LN79@LoadInt_e@4
  0013e	80 f2 ec	 xor	 dl, -20			; ffffffecH
  00141	88 55 f1	 mov	 BYTE PTR __k$[ebp+17], dl
  00144	8a 50 12	 mov	 dl, BYTE PTR [eax+18]
  00147	84 d2		 test	 dl, dl
  00149	0f 84 82 00 00
	00		 je	 $LN78@LoadInt_e@4
  0014f	32 d1		 xor	 dl, cl
  00151	88 55 f2	 mov	 BYTE PTR __k$[ebp+18], dl
  00154	8a 50 13	 mov	 dl, BYTE PTR [eax+19]
  00157	84 d2		 test	 dl, dl
  00159	74 71		 je	 SHORT $LN77@LoadInt_e@4
  0015b	32 d3		 xor	 dl, bl
  0015d	88 55 f3	 mov	 BYTE PTR __k$[ebp+19], dl
  00160	8a 50 14	 mov	 dl, BYTE PTR [eax+20]
  00163	84 d2		 test	 dl, dl
  00165	74 5f		 je	 SHORT $LN76@LoadInt_e@4
  00167	80 f2 ed	 xor	 dl, -19			; ffffffedH
  0016a	80 78 15 00	 cmp	 BYTE PTR [eax+21], 0
  0016e	88 55 f4	 mov	 BYTE PTR __k$[ebp+20], dl
  00171	0f 84 c3 00 00
	00		 je	 $LN1@LoadInt_e@4
  00177	8a 50 16	 mov	 dl, BYTE PTR [eax+22]
  0017a	84 d2		 test	 dl, dl
  0017c	74 43		 je	 SHORT $LN74@LoadInt_e@4
  0017e	32 d1		 xor	 dl, cl
  00180	88 55 f6	 mov	 BYTE PTR __k$[ebp+22], dl
  00183	8a 50 17	 mov	 dl, BYTE PTR [eax+23]
  00186	84 d2		 test	 dl, dl
  00188	74 32		 je	 SHORT $LN73@LoadInt_e@4
  0018a	32 d3		 xor	 dl, bl
  0018c	88 55 f7	 mov	 BYTE PTR __k$[ebp+23], dl
  0018f	8a 50 18	 mov	 dl, BYTE PTR [eax+24]
  00192	84 d2		 test	 dl, dl
  00194	74 20		 je	 SHORT $LN72@LoadInt_e@4
  00196	8a 40 19	 mov	 al, BYTE PTR [eax+25]
  00199	80 f2 ed	 xor	 dl, -19			; ffffffedH
  0019c	88 55 f8	 mov	 BYTE PTR __k$[ebp+24], dl
  0019f	84 c0		 test	 al, al
  001a1	74 0a		 je	 SHORT $LN71@LoadInt_e@4
  001a3	34 ec		 xor	 al, -20			; ffffffecH
  001a5	88 45 f9	 mov	 BYTE PTR __k$[ebp+25], al
  001a8	e9 8d 00 00 00	 jmp	 $LN1@LoadInt_e@4
$LN71@LoadInt_e@4:
  001ad	c6 45 f9 ec	 mov	 BYTE PTR __k$[ebp+25], -20 ; ffffffecH
  001b1	e9 84 00 00 00	 jmp	 $LN1@LoadInt_e@4
$LN72@LoadInt_e@4:
  001b6	c6 45 f8 ed	 mov	 BYTE PTR __k$[ebp+24], -19 ; ffffffedH
  001ba	eb 7e		 jmp	 SHORT $LN1@LoadInt_e@4
$LN73@LoadInt_e@4:
  001bc	88 5d f7	 mov	 BYTE PTR __k$[ebp+23], bl
  001bf	eb 79		 jmp	 SHORT $LN1@LoadInt_e@4
$LN74@LoadInt_e@4:
  001c1	88 4d f6	 mov	 BYTE PTR __k$[ebp+22], cl
  001c4	eb 74		 jmp	 SHORT $LN1@LoadInt_e@4
$LN76@LoadInt_e@4:
  001c6	c6 45 f4 ed	 mov	 BYTE PTR __k$[ebp+20], -19 ; ffffffedH
  001ca	eb 6e		 jmp	 SHORT $LN1@LoadInt_e@4
$LN77@LoadInt_e@4:
  001cc	88 5d f3	 mov	 BYTE PTR __k$[ebp+19], bl
  001cf	eb 69		 jmp	 SHORT $LN1@LoadInt_e@4
$LN78@LoadInt_e@4:
  001d1	88 4d f2	 mov	 BYTE PTR __k$[ebp+18], cl
  001d4	eb 64		 jmp	 SHORT $LN1@LoadInt_e@4
$LN79@LoadInt_e@4:
  001d6	c6 45 f1 ec	 mov	 BYTE PTR __k$[ebp+17], -20 ; ffffffecH
  001da	eb 5e		 jmp	 SHORT $LN1@LoadInt_e@4
$LN80@LoadInt_e@4:
  001dc	c6 45 f0 ed	 mov	 BYTE PTR __k$[ebp+16], -19 ; ffffffedH
  001e0	eb 58		 jmp	 SHORT $LN1@LoadInt_e@4
$LN81@LoadInt_e@4:
  001e2	88 5d ef	 mov	 BYTE PTR __k$[ebp+15], bl
  001e5	eb 53		 jmp	 SHORT $LN1@LoadInt_e@4
$LN82@LoadInt_e@4:
  001e7	88 4d ee	 mov	 BYTE PTR __k$[ebp+14], cl
  001ea	eb 4e		 jmp	 SHORT $LN1@LoadInt_e@4
$LN83@LoadInt_e@4:
  001ec	c6 45 ed ec	 mov	 BYTE PTR __k$[ebp+13], -20 ; ffffffecH
  001f0	eb 48		 jmp	 SHORT $LN1@LoadInt_e@4
$LN84@LoadInt_e@4:
  001f2	c6 45 ec ed	 mov	 BYTE PTR __k$[ebp+12], -19 ; ffffffedH
  001f6	eb 42		 jmp	 SHORT $LN1@LoadInt_e@4
$LN85@LoadInt_e@4:
  001f8	88 5d eb	 mov	 BYTE PTR __k$[ebp+11], bl
  001fb	eb 3d		 jmp	 SHORT $LN1@LoadInt_e@4
$LN86@LoadInt_e@4:
  001fd	88 4d ea	 mov	 BYTE PTR __k$[ebp+10], cl
  00200	eb 38		 jmp	 SHORT $LN1@LoadInt_e@4
$LN87@LoadInt_e@4:
  00202	c6 45 e9 ec	 mov	 BYTE PTR __k$[ebp+9], -20 ; ffffffecH
  00206	eb 32		 jmp	 SHORT $LN1@LoadInt_e@4
$LN88@LoadInt_e@4:
  00208	c6 45 e8 ed	 mov	 BYTE PTR __k$[ebp+8], -19 ; ffffffedH
  0020c	eb 2c		 jmp	 SHORT $LN1@LoadInt_e@4
$LN89@LoadInt_e@4:
  0020e	88 5d e7	 mov	 BYTE PTR __k$[ebp+7], bl
  00211	eb 27		 jmp	 SHORT $LN1@LoadInt_e@4
$LN90@LoadInt_e@4:
  00213	88 4d e6	 mov	 BYTE PTR __k$[ebp+6], cl
  00216	eb 22		 jmp	 SHORT $LN1@LoadInt_e@4
$LN91@LoadInt_e@4:
