; Listing generated by Microsoft (R) Optimizing Compiler Version 16.00.30319.01 

	TITLE	D:\Lost Saga For Developer\Youtube\Tutorial\Source\src\LSClient\ioRunContactWeapon.cpp
	.686P
	.XMM
	include listing.inc
	.model	flat

INCLUDELIB MSVCRT
INCLUDELIB OLDNAMES

PUBLIC	?m_ActionStopType@ioRunContactWeapon@@2W4ActionStopType@@A ; ioRunContactWeapon::m_ActionStopType
PUBLIC	?m_DieActionStopType@ioRunContactWeapon@@2W4ActionStopType@@A ; ioRunContactWeapon::m_DieActionStopType
_BSS	SEGMENT
?m_ActionStopType@ioRunContactWeapon@@2W4ActionStopType@@A DD 01H DUP (?) ; ioRunContactWeapon::m_ActionStopType
?m_DieActionStopType@ioRunContactWeapon@@2W4ActionStopType@@A DD 01H DUP (?) ; ioRunContactWeapon::m_DieActionStopType
_BSS	ENDS
PUBLIC	?return1@@YAIXZ					; return1
; Function compile flags: /Ogsp
; File d:\lost saga for developer\youtube\tutorial\source\src\lsclient\stdafx.h
;	COMDAT ?return1@@YAIXZ
_TEXT	SEGMENT
?return1@@YAIXZ PROC					; return1, COMDAT

; 17   : 	__forceinline unsigned int return1() { __asm mov eax, 1 };

  00000	b8 01 00 00 00	 mov	 eax, 1
  00005	c3		 ret	 0
?return1@@YAIXZ ENDP					; return1
_TEXT	ENDS
PUBLIC	?return5@@YAIXZ					; return5
; Function compile flags: /Ogsp
;	COMDAT ?return5@@YAIXZ
_TEXT	SEGMENT
?return5@@YAIXZ PROC					; return5, COMDAT

; 18   : 	__forceinline unsigned int return5() { __asm mov eax, 5 };

  00000	b8 05 00 00 00	 mov	 eax, 5
  00005	c3		 ret	 0
?return5@@YAIXZ ENDP					; return5
_TEXT	ENDS
PUBLIC	?return10@@YAIXZ				; return10
; Function compile flags: /Ogsp
;	COMDAT ?return10@@YAIXZ
_TEXT	SEGMENT
?return10@@YAIXZ PROC					; return10, COMDAT

; 21   : 	__forceinline unsigned int return10() { __asm mov eax, 10 };

  00000	b8 0a 00 00 00	 mov	 eax, 10			; 0000000aH
  00005	c3		 ret	 0
?return10@@YAIXZ ENDP					; return10
_TEXT	ENDS
PUBLIC	?return1000@@YAIXZ				; return1000
; Function compile flags: /Ogsp
;	COMDAT ?return1000@@YAIXZ
_TEXT	SEGMENT
?return1000@@YAIXZ PROC					; return1000, COMDAT

; 29   : 	__forceinline unsigned int return1000() { __asm mov eax, 1000 };

  00000	b8 e8 03 00 00	 mov	 eax, 1000		; 000003e8H
  00005	c3		 ret	 0
?return1000@@YAIXZ ENDP					; return1000
_TEXT	ENDS
PUBLIC	?GetActionStopCurAdd@ioBaseChar@@QBEKXZ		; ioBaseChar::GetActionStopCurAdd
; Function compile flags: /Ogsp
; File d:\lost saga for developer\youtube\tutorial\source\src\lsclient\iobasechar.h
;	COMDAT ?GetActionStopCurAdd@ioBaseChar@@QBEKXZ
_TEXT	SEGMENT
?GetActionStopCurAdd@ioBaseChar@@QBEKXZ PROC		; ioBaseChar::GetActionStopCurAdd, COMDAT
; _this$ = ecx

; 2398 : 	DWORD GetActionStopCurAdd() const { return m_dwActionStopCurAdd; }

  00000	8b 81 b0 15 00
	00		 mov	 eax, DWORD PTR [ecx+5552]
  00006	c3		 ret	 0
?GetActionStopCurAdd@ioBaseChar@@QBEKXZ ENDP		; ioBaseChar::GetActionStopCurAdd
_TEXT	ENDS
PUBLIC	?GetTargetRot@ioBaseChar@@QBEABUD3DXQUATERNION@@XZ ; ioBaseChar::GetTargetRot
; Function compile flags: /Ogsp
;	COMDAT ?GetTargetRot@ioBaseChar@@QBEABUD3DXQUATERNION@@XZ
_TEXT	SEGMENT
?GetTargetRot@ioBaseChar@@QBEABUD3DXQUATERNION@@XZ PROC	; ioBaseChar::GetTargetRot, COMDAT
; _this$ = ecx

; 2599 : 	inline const D3DXQUATERNION& GetTargetRot() const { return m_qtTargetRot; }

  00000	8d 81 a4 06 00
	00		 lea	 eax, DWORD PTR [ecx+1700]
  00006	c3		 ret	 0
?GetTargetRot@ioBaseChar@@QBEABUD3DXQUATERNION@@XZ ENDP	; ioBaseChar::GetTargetRot
_TEXT	ENDS
PUBLIC	??_7bad_alloc@std@@6B@				; std::bad_alloc::`vftable'
PUBLIC	??0bad_alloc@std@@QAE@PBD@Z			; std::bad_alloc::bad_alloc
PUBLIC	??_R4bad_alloc@std@@6B@				; std::bad_alloc::`RTTI Complete Object Locator'
PUBLIC	??_R0?AVbad_alloc@std@@@8			; std::bad_alloc `RTTI Type Descriptor'
PUBLIC	??_R3bad_alloc@std@@8				; std::bad_alloc::`RTTI Class Hierarchy Descriptor'
PUBLIC	??_R2bad_alloc@std@@8				; std::bad_alloc::`RTTI Base Class Array'
PUBLIC	??_R1A@?0A@EA@bad_alloc@std@@8			; std::bad_alloc::`RTTI Base Class Descriptor at (0,-1,0,64)'
PUBLIC	??_R1A@?0A@EA@exception@std@@8			; std::exception::`RTTI Base Class Descriptor at (0,-1,0,64)'
PUBLIC	??_R0?AVexception@std@@@8			; std::exception `RTTI Type Descriptor'
PUBLIC	??_R3exception@std@@8				; std::exception::`RTTI Class Hierarchy Descriptor'
PUBLIC	??_R2exception@std@@8				; std::exception::`RTTI Base Class Array'
EXTRN	__imp_??0exception@std@@QAE@ABQBD@Z:PROC
EXTRN	??_7type_info@@6B@:QWORD			; type_info::`vftable'
EXTRN	??_Ebad_alloc@std@@UAEPAXI@Z:PROC		; std::bad_alloc::`vector deleting destructor'
EXTRN	?what@exception@std@@UBEPBDXZ:PROC		; std::exception::what
;	COMDAT ??_R2exception@std@@8
; File c:\program files (x86)\microsoft visual studio 10.0\vc\include\exception
rdata$r	SEGMENT
??_R2exception@std@@8 DD FLAT:??_R1A@?0A@EA@exception@std@@8 ; std::exception::`RTTI Base Class Array'
rdata$r	ENDS
;	COMDAT ??_R3exception@std@@8
rdata$r	SEGMENT
??_R3exception@std@@8 DD 00H				; std::exception::`RTTI Class Hierarchy Descriptor'
	DD	00H
	DD	01H
	DD	FLAT:??_R2exception@std@@8
rdata$r	ENDS
;	COMDAT ??_R0?AVexception@std@@@8
_DATA	SEGMENT
??_R0?AVexception@std@@@8 DD FLAT:??_7type_info@@6B@	; std::exception `RTTI Type Descriptor'
	DD	00H
	DB	'.?AVexception@std@@', 00H
_DATA	ENDS
;	COMDAT ??_R1A@?0A@EA@exception@std@@8
rdata$r	SEGMENT
??_R1A@?0A@EA@exception@std@@8 DD FLAT:??_R0?AVexception@std@@@8 ; std::exception::`RTTI Base Class Descriptor at (0,-1,0,64)'
	DD	00H
	DD	00H
	DD	0ffffffffH
	DD	00H
	DD	040H
	DD	FLAT:??_R3exception@std@@8
rdata$r	ENDS
;	COMDAT ??_R1A@?0A@EA@bad_alloc@std@@8
rdata$r	SEGMENT
??_R1A@?0A@EA@bad_alloc@std@@8 DD FLAT:??_R0?AVbad_alloc@std@@@8 ; std::bad_alloc::`RTTI Base Class Descriptor at (0,-1,0,64)'
	DD	01H
	DD	00H
	DD	0ffffffffH
	DD	00H
	DD	040H
	DD	FLAT:??_R3bad_alloc@std@@8
rdata$r	ENDS
;	COMDAT ??_R2bad_alloc@std@@8
rdata$r	SEGMENT
??_R2bad_alloc@std@@8 DD FLAT:??_R1A@?0A@EA@bad_alloc@std@@8 ; std::bad_alloc::`RTTI Base Class Array'
	DD	FLAT:??_R1A@?0A@EA@exception@std@@8
rdata$r	ENDS
;	COMDAT ??_R3bad_alloc@std@@8
rdata$r	SEGMENT
??_R3bad_alloc@std@@8 DD 00H				; std::bad_alloc::`RTTI Class Hierarchy Descriptor'
	DD	00H
	DD	02H
	DD	FLAT:??_R2bad_alloc@std@@8
rdata$r	ENDS
;	COMDAT ??_R0?AVbad_alloc@std@@@8
_DATA	SEGMENT
??_R0?AVbad_alloc@std@@@8 DD FLAT:??_7type_info@@6B@	; std::bad_alloc `RTTI Type Descriptor'
	DD	00H
	DB	'.?AVbad_alloc@std@@', 00H
_DATA	ENDS
;	COMDAT ??_R4bad_alloc@std@@6B@
rdata$r	SEGMENT
??_R4bad_alloc@std@@6B@ DD 00H				; std::bad_alloc::`RTTI Complete Object Locator'
	DD	00H
	DD	00H
	DD	FLAT:??_R0?AVbad_alloc@std@@@8
	DD	FLAT:??_R3bad_alloc@std@@8
rdata$r	ENDS
;	COMDAT ??_7bad_alloc@std@@6B@
CONST	SEGMENT
??_7bad_alloc@std@@6B@ DD FLAT:??_R4bad_alloc@std@@6B@	; std::bad_alloc::`vftable'
	DD	FLAT:??_Ebad_alloc@std@@UAEPAXI@Z
	DD	FLAT:?what@exception@std@@UBEPBDXZ
; Function compile flags: /Ogsp
CONST	ENDS
;	COMDAT ??0bad_alloc@std@@QAE@PBD@Z
_TEXT	SEGMENT
__Message$ = 8						; size = 4
??0bad_alloc@std@@QAE@PBD@Z PROC			; std::bad_alloc::bad_alloc, COMDAT
; _this$ = ecx

; 345  : 		{	// construct from message string

  00000	55		 push	 ebp
  00001	8b ec		 mov	 ebp, esp
  00003	56		 push	 esi
  00004	8d 45 08	 lea	 eax, DWORD PTR __Message$[ebp]
  00007	50		 push	 eax
  00008	8b f1		 mov	 esi, ecx
  0000a	ff 15 00 00 00
	00		 call	 DWORD PTR __imp_??0exception@std@@QAE@ABQBD@Z
  00010	c7 06 00 00 00
	00		 mov	 DWORD PTR [esi], OFFSET ??_7bad_alloc@std@@6B@

; 346  : 		}

  00016	8b c6		 mov	 eax, esi
  00018	5e		 pop	 esi
  00019	5d		 pop	 ebp
  0001a	c2 04 00	 ret	 4
??0bad_alloc@std@@QAE@PBD@Z ENDP			; std::bad_alloc::bad_alloc
_TEXT	ENDS
PUBLIC	??1bad_alloc@std@@UAE@XZ			; std::bad_alloc::~bad_alloc
EXTRN	__imp_??1exception@std@@UAE@XZ:PROC
; Function compile flags: /Ogsp
;	COMDAT ??1bad_alloc@std@@UAE@XZ
_TEXT	SEGMENT
??1bad_alloc@std@@UAE@XZ PROC				; std::bad_alloc::~bad_alloc, COMDAT
; _this$ = ecx

; 354  : 		{	// destroy the object

  00000	c7 01 00 00 00
	00		 mov	 DWORD PTR [ecx], OFFSET ??_7bad_alloc@std@@6B@

; 355  : 		}

  00006	ff 25 00 00 00
	00		 jmp	 DWORD PTR __imp_??1exception@std@@UAE@XZ
??1bad_alloc@std@@UAE@XZ ENDP				; std::bad_alloc::~bad_alloc
_TEXT	ENDS
EXTRN	??3@YAXPAX@Z:PROC				; operator delete
; Function compile flags: /Ogsp
;	COMDAT ??_Gbad_alloc@std@@UAEPAXI@Z
_TEXT	SEGMENT
___flags$ = 8						; size = 4
??_Gbad_alloc@std@@UAEPAXI@Z PROC			; std::bad_alloc::`scalar deleting destructor', COMDAT
; _this$ = ecx
  00000	55		 push	 ebp
  00001	8b ec		 mov	 ebp, esp
  00003	56		 push	 esi
  00004	8b f1		 mov	 esi, ecx
  00006	c7 06 00 00 00
	00		 mov	 DWORD PTR [esi], OFFSET ??_7bad_alloc@std@@6B@
  0000c	ff 15 00 00 00
	00		 call	 DWORD PTR __imp_??1exception@std@@UAE@XZ
  00012	f6 45 08 01	 test	 BYTE PTR ___flags$[ebp], 1
  00016	74 07		 je	 SHORT $LN1@scalar
  00018	56		 push	 esi
  00019	e8 00 00 00 00	 call	 ??3@YAXPAX@Z		; operator delete
  0001e	59		 pop	 ecx
$LN1@scalar:
  0001f	8b c6		 mov	 eax, esi
  00021	5e		 pop	 esi
  00022	5d		 pop	 ebp
  00023	c2 04 00	 ret	 4
??_Gbad_alloc@std@@UAEPAXI@Z ENDP			; std::bad_alloc::`scalar deleting destructor'
_TEXT	ENDS
PUBLIC	??2@YAPAXIPAX@Z					; operator new
; Function compile flags: /Ogsp
; File c:\program files (x86)\microsoft visual studio 10.0\vc\include\new
;	COMDAT ??2@YAPAXIPAX@Z
_TEXT	SEGMENT
___formal$ = 8						; size = 4
__Where$ = 12						; size = 4
??2@YAPAXIPAX@Z PROC					; operator new, COMDAT

; 56   : 	{	// construct array with placement at _Where

  00000	55		 push	 ebp
  00001	8b ec		 mov	 ebp, esp

; 57   : 	return (_Where);

  00003	8b 45 0c	 mov	 eax, DWORD PTR __Where$[ebp]

; 58   : 	}

  00006	5d		 pop	 ebp
  00007	c3		 ret	 0
??2@YAPAXIPAX@Z ENDP					; operator new
_TEXT	ENDS
PUBLIC	??3@YAXPAX0@Z					; operator delete
; Function compile flags: /Ogsp
;	COMDAT ??3@YAXPAX0@Z
_TEXT	SEGMENT
___formal$ = 8						; size = 4
___formal$ = 12						; size = 4
??3@YAXPAX0@Z PROC					; operator delete, COMDAT

; 62   : 	}

  00000	c3		 ret	 0
??3@YAXPAX0@Z ENDP					; operator delete
_TEXT	ENDS
PUBLIC	??_7ioRunContactWeapon@@6B@			; ioRunContactWeapon::`vftable'
PUBLIC	??0ioRunContactWeapon@@QAE@PAVioBaseChar@@PBUWeaponAttribute@@@Z ; ioRunContactWeapon::ioRunContactWeapon
PUBLIC	??_R4ioRunContactWeapon@@6B@			; ioRunContactWeapon::`RTTI Complete Object Locator'
PUBLIC	??_R0?AVioRunContactWeapon@@@8			; ioRunContactWeapon `RTTI Type Descriptor'
PUBLIC	??_R3ioRunContactWeapon@@8			; ioRunContactWeapon::`RTTI Class Hierarchy Descriptor'
PUBLIC	??_R2ioRunContactWeapon@@8			; ioRunContactWeapon::`RTTI Base Class Array'
PUBLIC	??_R1A@?0A@EA@ioRunContactWeapon@@8		; ioRunContactWeapon::`RTTI Base Class Descriptor at (0,-1,0,64)'
PUBLIC	??_R1A@?0A@EA@ioWeapon@@8			; ioWeapon::`RTTI Base Class Descriptor at (0,-1,0,64)'
PUBLIC	??_R0?AVioWeapon@@@8				; ioWeapon `RTTI Type Descriptor'
PUBLIC	??_R3ioWeapon@@8				; ioWeapon::`RTTI Class Hierarchy Descriptor'
PUBLIC	??_R2ioWeapon@@8				; ioWeapon::`RTTI Base Class Array'
PUBLIC	?SetStartCollisionBox@ioRunContactWeapon@@UAEXXZ ; ioRunContactWeapon::SetStartCollisionBox
PUBLIC	?IsCollision@ioRunContactWeapon@@UAE_NPAVioPlayEntity@@_N@Z ; ioRunContactWeapon::IsCollision
PUBLIC	?GetWorldAttackBoxList@ioRunContactWeapon@@UAEXAAV?$vector@VioOrientBox@@V?$allocator@VioOrientBox@@@std@@@std@@@Z ; ioRunContactWeapon::GetWorldAttackBoxList
PUBLIC	?GetAttackDir@ioRunContactWeapon@@UBE?AUD3DXVECTOR3@@PBVioPlayEntity@@@Z ; ioRunContactWeapon::GetAttackDir
PUBLIC	?GetType@ioRunContactWeapon@@UBE?AW4WeaponType@ioWeapon@@XZ ; ioRunContactWeapon::GetType
PUBLIC	?GetActionStopType@ioRunContactWeapon@@UBE?AW4ActionStopType@@XZ ; ioRunContactWeapon::GetActionStopType
PUBLIC	?GetDieActionStopType@ioRunContactWeapon@@UBE?AW4ActionStopType@@XZ ; ioRunContactWeapon::GetDieActionStopType
PUBLIC	?UpdateWorldAttackBox@ioRunContactWeapon@@MAEXM_N@Z ; ioRunContactWeapon::UpdateWorldAttackBox
EXTRN	__imp_??1ioOrientBox@@QAE@XZ:PROC
EXTRN	??1ioWeapon@@UAE@XZ:PROC			; ioWeapon::~ioWeapon
EXTRN	?SetPeculiarity@ioWeapon@@QAEXK@Z:PROC		; ioWeapon::SetPeculiarity
EXTRN	__imp_??0ioOrientBox@@QAE@XZ:PROC
EXTRN	??0ioWeapon@@QAE@PAVioBaseChar@@PBUWeaponAttribute@@@Z:PROC ; ioWeapon::ioWeapon
EXTRN	___CxxFrameHandler3:PROC
EXTRN	@__security_check_cookie@4:PROC
EXTRN	__EH_epilog3:PROC
EXTRN	__EH_prolog3:PROC
EXTRN	?IsAlreadyCollisioned@ioWeapon@@UAE_NPAVioPlayEntity@@@Z:PROC ; ioWeapon::IsAlreadyCollisioned
EXTRN	?AddCollisionEntity@ioWeapon@@UAEXPAVioPlayEntity@@@Z:PROC ; ioWeapon::AddCollisionEntity
EXTRN	?SetOwnerDamageRate@ioWeapon@@UAEXM@Z:PROC	; ioWeapon::SetOwnerDamageRate
EXTRN	?SetOwnerChargeDamageRate@ioWeapon@@UAEXM@Z:PROC ; ioWeapon::SetOwnerChargeDamageRate
EXTRN	?SetOwnerChargeForceRate@ioWeapon@@UAEXM@Z:PROC	; ioWeapon::SetOwnerChargeForceRate
EXTRN	?SetOwnerChargeRangeRate@ioWeapon@@UAEXM@Z:PROC	; ioWeapon::SetOwnerChargeRangeRate
EXTRN	?SetOwnerChargeSpeedRate@ioWeapon@@UAEXM@Z:PROC	; ioWeapon::SetOwnerChargeSpeedRate
EXTRN	?SetOwnerChargeBlowRate@ioWeapon@@UAEXM@Z:PROC	; ioWeapon::SetOwnerChargeBlowRate
EXTRN	?SetOwnerChargeFloatRate@ioWeapon@@UAEXM@Z:PROC	; ioWeapon::SetOwnerChargeFloatRate
EXTRN	?SetOwnerChargeScaleRate@ioWeapon@@UAEXM@Z:PROC	; ioWeapon::SetOwnerChargeScaleRate
EXTRN	?SetOwnerChargeExplosionRate@ioWeapon@@UAEXM@Z:PROC ; ioWeapon::SetOwnerChargeExplosionRate
EXTRN	?SetOwnerChargeWoundedTimeRate@ioWeapon@@UAEXM@Z:PROC ; ioWeapon::SetOwnerChargeWoundedTimeRate
EXTRN	?SetOwnerChargeLiveTimeRate@ioWeapon@@UAEXM@Z:PROC ; ioWeapon::SetOwnerChargeLiveTimeRate
EXTRN	?SetOwnerChargeBuffLiveTimeRate@ioWeapon@@UAEXM@Z:PROC ; ioWeapon::SetOwnerChargeBuffLiveTimeRate
EXTRN	?SetWeaponIndex@ioWeapon@@UAEXK@Z:PROC		; ioWeapon::SetWeaponIndex
EXTRN	?SetGrapplingTargetName@ioWeapon@@UAEXABVioHashString@@@Z:PROC ; ioWeapon::SetGrapplingTargetName
EXTRN	?SetCreateItem@ioWeapon@@UAEXABVioHashString@@@Z:PROC ; ioWeapon::SetCreateItem
EXTRN	?SetTeam@ioWeapon@@UAEXPAVioPlayStage@@W4TeamType@@@Z:PROC ; ioWeapon::SetTeam
EXTRN	?CallReserveAreaWeapon@ioWeapon@@UAEXXZ:PROC	; ioWeapon::CallReserveAreaWeapon
EXTRN	?SetWeaponDead@ioWeapon@@UAEXXZ:PROC		; ioWeapon::SetWeaponDead
EXTRN	?PlayExplosionSound@ioWeapon@@UAEXXZ:PROC	; ioWeapon::PlayExplosionSound
EXTRN	?PlayWoundedSound@ioWeapon@@UAEXPAVioPlayEntity@@@Z:PROC ; ioWeapon::PlayWoundedSound
EXTRN	?PlayDefensedSound@ioWeapon@@UAEXPAVioPlayEntity@@@Z:PROC ; ioWeapon::PlayDefensedSound
EXTRN	?PlayLoopSound@ioWeapon@@UAEXXZ:PROC		; ioWeapon::PlayLoopSound
EXTRN	?StopLoopSound@ioWeapon@@UAEXXZ:PROC		; ioWeapon::StopLoopSound
EXTRN	?GetTargetAirBuffList@ioWeapon@@UBEABV?$vector@UBuffInfoStruct@@V?$allocator@UBuffInfoStruct@@@std@@@std@@XZ:PROC ; ioWeapon::GetTargetAirBuffList
EXTRN	?GetTargetBuffList@ioWeapon@@UBEABV?$vector@UBuffInfoStruct@@V?$allocator@UBuffInfoStruct@@@std@@@std@@XZ:PROC ; ioWeapon::GetTargetBuffList
EXTRN	?GetTargetDownBuffList@ioWeapon@@UBEABV?$vector@UBuffInfoStruct@@V?$allocator@UBuffInfoStruct@@@std@@@std@@XZ:PROC ; ioWeapon::GetTargetDownBuffList
EXTRN	?GetPosition@ioWeapon@@UBEABUD3DXVECTOR3@@XZ:PROC ; ioWeapon::GetPosition
EXTRN	?GetBlowType@ioWeapon@@UBE?AW4BlowTargetType@@XZ:PROC ; ioWeapon::GetBlowType
EXTRN	?GetPushPower@ioWeapon@@UBEMM@Z:PROC		; ioWeapon::GetPushPower
EXTRN	?GetBlowPower@ioWeapon@@UBEMM@Z:PROC		; ioWeapon::GetBlowPower
EXTRN	?GetAirPushPower@ioWeapon@@UBEMM@Z:PROC		; ioWeapon::GetAirPushPower
EXTRN	?GetAirBlowPower@ioWeapon@@UBEMM@Z:PROC		; ioWeapon::GetAirBlowPower
EXTRN	?GetDefensePushPower@ioWeapon@@UBEMM@Z:PROC	; ioWeapon::GetDefensePushPower
EXTRN	?GetCollisionEnableTime@ioWeapon@@UBEKXZ:PROC	; ioWeapon::GetCollisionEnableTime
EXTRN	?SetSylphid@ioWeapon@@UAEHXZ:PROC		; ioWeapon::SetSylphid
EXTRN	?ApplyExtraReserveWeaponByWeaponInfo@ioWeapon@@UAEXPAV1@@Z:PROC ; ioWeapon::ApplyExtraReserveWeaponByWeaponInfo
EXTRN	?InitResource@ioWeapon@@UAE_NXZ:PROC		; ioWeapon::InitResource
EXTRN	?DestroyResource@ioWeapon@@UAEXPAVioPlayStage@@@Z:PROC ; ioWeapon::DestroyResource
EXTRN	?LoadProperty@ioWeapon@@UAEXAAVioINILoader@@@Z:PROC ; ioWeapon::LoadProperty
EXTRN	?SetResistanceAttr@ioWeapon@@UAEXH@Z:PROC	; ioWeapon::SetResistanceAttr
EXTRN	?SetLiveTime@ioWeapon@@UAEXK@Z:PROC		; ioWeapon::SetLiveTime
EXTRN	?SetMoveDir@ioWeapon@@UAEXABUD3DXVECTOR3@@@Z:PROC ; ioWeapon::SetMoveDir
EXTRN	?SetMoveSpeed@ioWeapon@@UAEXM@Z:PROC		; ioWeapon::SetMoveSpeed
EXTRN	?SetFloatPower@ioWeapon@@UAEXM@Z:PROC		; ioWeapon::SetFloatPower
EXTRN	?SetStartPosition@ioWeapon@@UAEXABUD3DXVECTOR3@@PAVioPlayStage@@@Z:PROC ; ioWeapon::SetStartPosition
EXTRN	?Process@ioWeapon@@UAEXMPAVioPlayStage@@@Z:PROC	; ioWeapon::Process
EXTRN	?TestMapCollision@ioWeapon@@UAE_NPAVioOpcodeShape@@PAVioPlayStage@@PBUD3DXMATRIX@@@Z:PROC ; ioWeapon::TestMapCollision
EXTRN	?CheckPreCollision@ioWeapon@@UAEXPAVioPlayEntity@@PAVioPlayStage@@@Z:PROC ; ioWeapon::CheckPreCollision
EXTRN	?CheckStructAndDummy@ioWeapon@@UAEXPAVioPlayEntity@@PAVioPlayStage@@@Z:PROC ; ioWeapon::CheckStructAndDummy
EXTRN	?GetDamage@ioWeapon@@UAEMPAVioPlayEntity@@@Z:PROC ; ioWeapon::GetDamage
EXTRN	?GetBaseDamage@ioWeapon@@UAEMPAVioPlayEntity@@@Z:PROC ; ioWeapon::GetBaseDamage
EXTRN	?GetPushAngle@ioWeapon@@UBEMXZ:PROC		; ioWeapon::GetPushAngle
EXTRN	?IsResistanceMagic@ioWeapon@@UAEHPAVioBaseChar@@@Z:PROC ; ioWeapon::IsResistanceMagic
EXTRN	?IsResistanceBomb@ioWeapon@@UAEHPAVioBaseChar@@@Z:PROC ; ioWeapon::IsResistanceBomb
EXTRN	?IsCanMineExplosion@ioWeapon@@UAE_NXZ:PROC	; ioWeapon::IsCanMineExplosion
EXTRN	?CheckGrapplingState@ioWeapon@@UAE?AW4GrapplingType@@XZ:PROC ; ioWeapon::CheckGrapplingState
EXTRN	?CheckCurAttribute@ioWeapon@@UAEXPBVioPlayEntity@@@Z:PROC ; ioWeapon::CheckCurAttribute
EXTRN	?CheckItemNotDrop@ioWeapon@@UAE_NPAVioBaseChar@@@Z:PROC ; ioWeapon::CheckItemNotDrop
EXTRN	?GetLocalAttackBox@ioWeapon@@UBEABVioOrientBox@@XZ:PROC ; ioWeapon::GetLocalAttackBox
EXTRN	?GetLiveTime@ioWeapon@@UAEKXZ:PROC		; ioWeapon::GetLiveTime
EXTRN	?GetMoveDir@ioWeapon@@UAE?AUD3DXVECTOR3@@XZ:PROC ; ioWeapon::GetMoveDir
EXTRN	?CheckWeaponCollision@ioWeapon@@UAEXXZ:PROC	; ioWeapon::CheckWeaponCollision
EXTRN	?GetRefreshDuration@ioWeapon@@UAEKXZ:PROC	; ioWeapon::GetRefreshDuration
EXTRN	?GetIgnoreDuration@ioWeapon@@UAEKXZ:PROC	; ioWeapon::GetIgnoreDuration
EXTRN	?GetIgnoreTimeTypeDuration@ioWeapon@@UAEKXZ:PROC ; ioWeapon::GetIgnoreTimeTypeDuration
EXTRN	?GetIgnoreTimeType@ioWeapon@@UAEKXZ:PROC	; ioWeapon::GetIgnoreTimeType
EXTRN	?ApplyWeaponSync@ioWeapon@@UAEXAAVSP2Packet@@PAVioPlayStage@@@Z:PROC ; ioWeapon::ApplyWeaponSync
EXTRN	?IsSkillDependency@ioWeapon@@UAE_NABVioHashString@@@Z:PROC ; ioWeapon::IsSkillDependency
EXTRN	?SetSkillDependencyAction@ioWeapon@@UAEXXZ:PROC	; ioWeapon::SetSkillDependencyAction
EXTRN	?GetAttribute@ioWeapon@@MBEPBUWeaponAttribute@@XZ:PROC ; ioWeapon::GetAttribute
EXTRN	?CalcFinalDamage@ioWeapon@@MAEMXZ:PROC		; ioWeapon::CalcFinalDamage
EXTRN	?CalcFinalBoundDamage@ioWeapon@@MAEMXZ:PROC	; ioWeapon::CalcFinalBoundDamage
EXTRN	?CheckPiercing@ioWeapon@@MAE_N_N@Z:PROC		; ioWeapon::CheckPiercing
EXTRN	?ClearCollisionList@ioWeapon@@MAEXXZ:PROC	; ioWeapon::ClearCollisionList
EXTRN	?CheckCreateWeaponList@ioWeapon@@MAEXXZ:PROC	; ioWeapon::CheckCreateWeaponList
EXTRN	?CreateCollisionAreaWeapon@ioWeapon@@MAEXXZ:PROC ; ioWeapon::CreateCollisionAreaWeapon
EXTRN	?SetMapCollision@ioWeapon@@UAEXXZ:PROC		; ioWeapon::SetMapCollision
EXTRN	?IsIgnoreMapCollision@ioWeapon@@UBE_NXZ:PROC	; ioWeapon::IsIgnoreMapCollision
EXTRN	?IsIgnoreTestMapCollision@ioWeapon@@UBE_NXZ:PROC ; ioWeapon::IsIgnoreTestMapCollision
EXTRN	?IsIgnoreMapCollisionEffect@ioWeapon@@UBE_NXZ:PROC ; ioWeapon::IsIgnoreMapCollisionEffect
EXTRN	?AddEffectEvent@ioWeapon@@MAEXPAVioEffect@@@Z:PROC ; ioWeapon::AddEffectEvent
EXTRN	??_EioRunContactWeapon@@UAEPAXI@Z:PROC		; ioRunContactWeapon::`vector deleting destructor'
;	COMDAT ??_R2ioWeapon@@8
; File d:\lost saga for developer\youtube\tutorial\source\src\lsclient\ioruncontactweapon.cpp
rdata$r	SEGMENT
??_R2ioWeapon@@8 DD FLAT:??_R1A@?0A@EA@ioWeapon@@8	; ioWeapon::`RTTI Base Class Array'
rdata$r	ENDS
;	COMDAT ??_R3ioWeapon@@8
rdata$r	SEGMENT
??_R3ioWeapon@@8 DD 00H					; ioWeapon::`RTTI Class Hierarchy Descriptor'
	DD	00H
	DD	01H
	DD	FLAT:??_R2ioWeapon@@8
rdata$r	ENDS
;	COMDAT ??_R0?AVioWeapon@@@8
_DATA	SEGMENT
??_R0?AVioWeapon@@@8 DD FLAT:??_7type_info@@6B@		; ioWeapon `RTTI Type Descriptor'
	DD	00H
	DB	'.?AVioWeapon@@', 00H
_DATA	ENDS
;	COMDAT ??_R1A@?0A@EA@ioWeapon@@8
rdata$r	SEGMENT
??_R1A@?0A@EA@ioWeapon@@8 DD FLAT:??_R0?AVioWeapon@@@8	; ioWeapon::`RTTI Base Class Descriptor at (0,-1,0,64)'
	DD	00H
	DD	00H
	DD	0ffffffffH
	DD	00H
	DD	040H
	DD	FLAT:??_R3ioWeapon@@8
rdata$r	ENDS
;	COMDAT ??_R1A@?0A@EA@ioRunContactWeapon@@8
rdata$r	SEGMENT
??_R1A@?0A@EA@ioRunContactWeapon@@8 DD FLAT:??_R0?AVioRunContactWeapon@@@8 ; ioRunContactWeapon::`RTTI Base Class Descriptor at (0,-1,0,64)'
	DD	01H
	DD	00H
	DD	0ffffffffH
	DD	00H
	DD	040H
	DD	FLAT:??_R3ioRunContactWeapon@@8
rdata$r	ENDS
;	COMDAT ??_R2ioRunContactWeapon@@8
rdata$r	SEGMENT
??_R2ioRunContactWeapon@@8 DD FLAT:??_R1A@?0A@EA@ioRunContactWeapon@@8 ; ioRunContactWeapon::`RTTI Base Class Array'
	DD	FLAT:??_R1A@?0A@EA@ioWeapon@@8
rdata$r	ENDS
;	COMDAT ??_R3ioRunContactWeapon@@8
rdata$r	SEGMENT
??_R3ioRunContactWeapon@@8 DD 00H			; ioRunContactWeapon::`RTTI Class Hierarchy Descriptor'
	DD	00H
	DD	02H
	DD	FLAT:??_R2ioRunContactWeapon@@8
rdata$r	ENDS
;	COMDAT ??_R0?AVioRunContactWeapon@@@8
_DATA	SEGMENT
??_R0?AVioRunContactWeapon@@@8 DD FLAT:??_7type_info@@6B@ ; ioRunContactWeapon `RTTI Type Descriptor'
	DD	00H
	DB	'.?AVioRunContactWeapon@@', 00H
_DATA	ENDS
;	COMDAT ??_R4ioRunContactWeapon@@6B@
rdata$r	SEGMENT
??_R4ioRunContactWeapon@@6B@ DD 00H			; ioRunContactWeapon::`RTTI Complete Object Locator'
	DD	00H
	DD	00H
	DD	FLAT:??_R0?AVioRunContactWeapon@@@8
	DD	FLAT:??_R3ioRunContactWeapon@@8
rdata$r	ENDS
;	COMDAT ??_7ioRunContactWeapon@@6B@
CONST	SEGMENT
??_7ioRunContactWeapon@@6B@ DD FLAT:??_R4ioRunContactWeapon@@6B@ ; ioRunContactWeapon::`vftable'
	DD	FLAT:?IsAlreadyCollisioned@ioWeapon@@UAE_NPAVioPlayEntity@@@Z
	DD	FLAT:?AddCollisionEntity@ioWeapon@@UAEXPAVioPlayEntity@@@Z
	DD	FLAT:?SetOwnerDamageRate@ioWeapon@@UAEXM@Z
	DD	FLAT:?SetOwnerChargeDamageRate@ioWeapon@@UAEXM@Z
	DD	FLAT:?SetOwnerChargeForceRate@ioWeapon@@UAEXM@Z
	DD	FLAT:?SetOwnerChargeRangeRate@ioWeapon@@UAEXM@Z
	DD	FLAT:?SetOwnerChargeSpeedRate@ioWeapon@@UAEXM@Z
	DD	FLAT:?SetOwnerChargeBlowRate@ioWeapon@@UAEXM@Z
	DD	FLAT:?SetOwnerChargeFloatRate@ioWeapon@@UAEXM@Z
	DD	FLAT:?SetOwnerChargeScaleRate@ioWeapon@@UAEXM@Z
	DD	FLAT:?SetOwnerChargeExplosionRate@ioWeapon@@UAEXM@Z
	DD	FLAT:?SetOwnerChargeWoundedTimeRate@ioWeapon@@UAEXM@Z
	DD	FLAT:?SetOwnerChargeLiveTimeRate@ioWeapon@@UAEXM@Z
	DD	FLAT:?SetOwnerChargeBuffLiveTimeRate@ioWeapon@@UAEXM@Z
	DD	FLAT:?SetWeaponIndex@ioWeapon@@UAEXK@Z
	DD	FLAT:?SetGrapplingTargetName@ioWeapon@@UAEXABVioHashString@@@Z
	DD	FLAT:?SetCreateItem@ioWeapon@@UAEXABVioHashString@@@Z
	DD	FLAT:?SetTeam@ioWeapon@@UAEXPAVioPlayStage@@W4TeamType@@@Z
	DD	FLAT:?CallReserveAreaWeapon@ioWeapon@@UAEXXZ
	DD	FLAT:?SetWeaponDead@ioWeapon@@UAEXXZ
	DD	FLAT:?PlayExplosionSound@ioWeapon@@UAEXXZ
	DD	FLAT:?PlayWoundedSound@ioWeapon@@UAEXPAVioPlayEntity@@@Z
	DD	FLAT:?PlayDefensedSound@ioWeapon@@UAEXPAVioPlayEntity@@@Z
	DD	FLAT:?PlayLoopSound@ioWeapon@@UAEXXZ
	DD	FLAT:?StopLoopSound@ioWeapon@@UAEXXZ
	DD	FLAT:?GetTargetAirBuffList@ioWeapon@@UBEABV?$vector@UBuffInfoStruct@@V?$allocator@UBuffInfoStruct@@@std@@@std@@XZ
	DD	FLAT:?GetTargetBuffList@ioWeapon@@UBEABV?$vector@UBuffInfoStruct@@V?$allocator@UBuffInfoStruct@@@std@@@std@@XZ
	DD	FLAT:?GetTargetDownBuffList@ioWeapon@@UBEABV?$vector@UBuffInfoStruct@@V?$allocator@UBuffInfoStruct@@@std@@@std@@XZ
	DD	FLAT:?GetPosition@ioWeapon@@UBEABUD3DXVECTOR3@@XZ
	DD	FLAT:?GetBlowType@ioWeapon@@UBE?AW4BlowTargetType@@XZ
	DD	FLAT:?GetPushPower@ioWeapon@@UBEMM@Z
	DD	FLAT:?GetBlowPower@ioWeapon@@UBEMM@Z
	DD	FLAT:?GetAirPushPower@ioWeapon@@UBEMM@Z
	DD	FLAT:?GetAirBlowPower@ioWeapon@@UBEMM@Z
	DD	FLAT:?GetDefensePushPower@ioWeapon@@UBEMM@Z
	DD	FLAT:?GetCollisionEnableTime@ioWeapon@@UBEKXZ
	DD	FLAT:?SetSylphid@ioWeapon@@UAEHXZ
	DD	FLAT:?ApplyExtraReserveWeaponByWeaponInfo@ioWeapon@@UAEXPAV1@@Z
	DD	FLAT:?InitResource@ioWeapon@@UAE_NXZ
	DD	FLAT:?DestroyResource@ioWeapon@@UAEXPAVioPlayStage@@@Z
	DD	FLAT:?LoadProperty@ioWeapon@@UAEXAAVioINILoader@@@Z
	DD	FLAT:?SetResistanceAttr@ioWeapon@@UAEXH@Z
	DD	FLAT:?SetStartCollisionBox@ioRunContactWeapon@@UAEXXZ
	DD	FLAT:?SetLiveTime@ioWeapon@@UAEXK@Z
	DD	FLAT:?SetMoveDir@ioWeapon@@UAEXABUD3DXVECTOR3@@@Z
	DD	FLAT:?SetMoveSpeed@ioWeapon@@UAEXM@Z
	DD	FLAT:?SetFloatPower@ioWeapon@@UAEXM@Z
	DD	FLAT:?SetStartPosition@ioWeapon@@UAEXABUD3DXVECTOR3@@PAVioPlayStage@@@Z
	DD	FLAT:?Process@ioWeapon@@UAEXMPAVioPlayStage@@@Z
	DD	FLAT:?IsCollision@ioRunContactWeapon@@UAE_NPAVioPlayEntity@@_N@Z
	DD	FLAT:?TestMapCollision@ioWeapon@@UAE_NPAVioOpcodeShape@@PAVioPlayStage@@PBUD3DXMATRIX@@@Z
	DD	FLAT:?CheckPreCollision@ioWeapon@@UAEXPAVioPlayEntity@@PAVioPlayStage@@@Z
	DD	FLAT:?CheckStructAndDummy@ioWeapon@@UAEXPAVioPlayEntity@@PAVioPlayStage@@@Z
	DD	FLAT:?GetDamage@ioWeapon@@UAEMPAVioPlayEntity@@@Z
	DD	FLAT:?GetBaseDamage@ioWeapon@@UAEMPAVioPlayEntity@@@Z
	DD	FLAT:?GetPushAngle@ioWeapon@@UBEMXZ
	DD	FLAT:?IsResistanceMagic@ioWeapon@@UAEHPAVioBaseChar@@@Z
	DD	FLAT:?IsResistanceBomb@ioWeapon@@UAEHPAVioBaseChar@@@Z
	DD	FLAT:?IsCanMineExplosion@ioWeapon@@UAE_NXZ
	DD	FLAT:?CheckGrapplingState@ioWeapon@@UAE?AW4GrapplingType@@XZ
	DD	FLAT:?CheckCurAttribute@ioWeapon@@UAEXPBVioPlayEntity@@@Z
	DD	FLAT:?CheckItemNotDrop@ioWeapon@@UAE_NPAVioBaseChar@@@Z
	DD	FLAT:?GetWorldAttackBoxList@ioRunContactWeapon@@UAEXAAV?$vector@VioOrientBox@@V?$allocator@VioOrientBox@@@std@@@std@@@Z
	DD	FLAT:?GetAttackDir@ioRunContactWeapon@@UBE?AUD3DXVECTOR3@@PBVioPlayEntity@@@Z
	DD	FLAT:?GetLocalAttackBox@ioWeapon@@UBEABVioOrientBox@@XZ
	DD	FLAT:?GetLiveTime@ioWeapon@@UAEKXZ
	DD	FLAT:?GetMoveDir@ioWeapon@@UAE?AUD3DXVECTOR3@@XZ
	DD	FLAT:?CheckWeaponCollision@ioWeapon@@UAEXXZ
	DD	FLAT:?GetType@ioRunContactWeapon@@UBE?AW4WeaponType@ioWeapon@@XZ
	DD	FLAT:?GetActionStopType@ioRunContactWeapon@@UBE?AW4ActionStopType@@XZ
	DD	FLAT:?GetDieActionStopType@ioRunContactWeapon@@UBE?AW4ActionStopType@@XZ
	DD	FLAT:?GetRefreshDuration@ioWeapon@@UAEKXZ
	DD	FLAT:?GetIgnoreDuration@ioWeapon@@UAEKXZ
	DD	FLAT:?GetIgnoreTimeTypeDuration@ioWeapon@@UAEKXZ
	DD	FLAT:?GetIgnoreTimeType@ioWeapon@@UAEKXZ
	DD	FLAT:?ApplyWeaponSync@ioWeapon@@UAEXAAVSP2Packet@@PAVioPlayStage@@@Z
	DD	FLAT:?IsSkillDependency@ioWeapon@@UAE_NABVioHashString@@@Z
	DD	FLAT:?SetSkillDependencyAction@ioWeapon@@UAEXXZ
	DD	FLAT:?UpdateWorldAttackBox@ioRunContactWeapon@@MAEXM_N@Z
	DD	FLAT:?GetAttribute@ioWeapon@@MBEPBUWeaponAttribute@@XZ
	DD	FLAT:?CalcFinalDamage@ioWeapon@@MAEMXZ
	DD	FLAT:?CalcFinalBoundDamage@ioWeapon@@MAEMXZ
	DD	FLAT:?CheckPiercing@ioWeapon@@MAE_N_N@Z
	DD	FLAT:?ClearCollisionList@ioWeapon@@MAEXXZ
	DD	FLAT:?CheckCreateWeaponList@ioWeapon@@MAEXXZ
	DD	FLAT:?CreateCollisionAreaWeapon@ioWeapon@@MAEXXZ
	DD	FLAT:?SetMapCollision@ioWeapon@@UAEXXZ
	DD	FLAT:?IsIgnoreMapCollision@ioWeapon@@UBE_NXZ
	DD	FLAT:?IsIgnoreTestMapCollision@ioWeapon@@UBE_NXZ
	DD	FLAT:?IsIgnoreMapCollisionEffect@ioWeapon@@UBE_NXZ
	DD	FLAT:?AddEffectEvent@ioWeapon@@MAEXPAVioEffect@@@Z
	DD	FLAT:??_EioRunContactWeapon@@UAEPAXI@Z
CONST	ENDS
;	COMDAT xdata$x
xdata$x	SEGMENT
__unwindtable$??0ioRunContactWeapon@@QAE@PAVioBaseChar@@PBUWeaponAttribute@@@Z DD 0ffffffffH
	DD	FLAT:__unwindfunclet$??0ioRunContactWeapon@@QAE@PAVioBaseChar@@PBUWeaponAttribute@@@Z$0
	DD	00H
	DD	FLAT:__unwindfunclet$??0ioRunContactWeapon@@QAE@PAVioBaseChar@@PBUWeaponAttribute@@@Z$1
	DD	01H
	DD	FLAT:__unwindfunclet$??0ioRunContactWeapon@@QAE@PAVioBaseChar@@PBUWeaponAttribute@@@Z$2
__ehfuncinfo$??0ioRunContactWeapon@@QAE@PAVioBaseChar@@PBUWeaponAttribute@@@Z DD 019930522H
	DD	03H
	DD	FLAT:__unwindtable$??0ioRunContactWeapon@@QAE@PAVioBaseChar@@PBUWeaponAttribute@@@Z
	DD	2 DUP(00H)
	DD	2 DUP(00H)
	DD	00H
	DD	01H
; Function compile flags: /Ogsp
xdata$x	ENDS
;	COMDAT ??0ioRunContactWeapon@@QAE@PAVioBaseChar@@PBUWeaponAttribute@@@Z
_TEXT	SEGMENT
_this$ = -16						; size = 4
__$EHRec$ = -12						; size = 12
_pOwner$ = 8						; size = 4
_pAttr$ = 12						; size = 4
??0ioRunContactWeapon@@QAE@PAVioBaseChar@@PBUWeaponAttribute@@@Z PROC ; ioRunContactWeapon::ioRunContactWeapon, COMDAT
; _this$ = ecx

; 13   : {

  00000	6a 04		 push	 4
  00002	b8 00 00 00 00	 mov	 eax, __ehhandler$??0ioRunContactWeapon@@QAE@PAVioBaseChar@@PBUWeaponAttribute@@@Z
  00007	e8 00 00 00 00	 call	 __EH_prolog3
  0000c	8b f1		 mov	 esi, ecx
  0000e	89 75 f0	 mov	 DWORD PTR _this$[ebp], esi
  00011	ff 75 0c	 push	 DWORD PTR _pAttr$[ebp]
  00014	ff 75 08	 push	 DWORD PTR _pOwner$[ebp]
  00017	e8 00 00 00 00	 call	 ??0ioWeapon@@QAE@PAVioBaseChar@@PBUWeaponAttribute@@@Z ; ioWeapon::ioWeapon
  0001c	8b 3d 00 00 00
	00		 mov	 edi, DWORD PTR __imp_??0ioOrientBox@@QAE@XZ
  00022	83 65 fc 00	 and	 DWORD PTR __$EHRec$[ebp+8], 0
  00026	8d 8e 94 08 00
	00		 lea	 ecx, DWORD PTR [esi+2196]
  0002c	c7 06 00 00 00
	00		 mov	 DWORD PTR [esi], OFFSET ??_7ioRunContactWeapon@@6B@
  00032	ff d7		 call	 edi
  00034	8d 8e d8 08 00
	00		 lea	 ecx, DWORD PTR [esi+2264]
  0003a	c6 45 fc 01	 mov	 BYTE PTR __$EHRec$[ebp+8], 1
  0003e	ff d7		 call	 edi

; 14   : 	SetPeculiarity( WP_DIVIDE_ACTION );

  00040	68 00 01 00 00	 push	 256			; 00000100H
  00045	8b ce		 mov	 ecx, esi
  00047	c6 45 fc 02	 mov	 BYTE PTR __$EHRec$[ebp+8], 2
  0004b	e8 00 00 00 00	 call	 ?SetPeculiarity@ioWeapon@@QAEXK@Z ; ioWeapon::SetPeculiarity

; 15   : 	m_UpdateState = CONTACT_CREATED;

  00050	83 a6 20 09 00
	00 00		 and	 DWORD PTR [esi+2336], 0

; 16   : 	m_bFirstCheck = true;

  00057	c6 86 1c 09 00
	00 01		 mov	 BYTE PTR [esi+2332], 1

; 17   : }

  0005e	8b c6		 mov	 eax, esi
  00060	e8 00 00 00 00	 call	 __EH_epilog3
  00065	c2 08 00	 ret	 8
_TEXT	ENDS
;	COMDAT text$x
text$x	SEGMENT
__unwindfunclet$??0ioRunContactWeapon@@QAE@PAVioBaseChar@@PBUWeaponAttribute@@@Z$0:
  00000	8b 4d f0	 mov	 ecx, DWORD PTR _this$[ebp]
  00003	e9 00 00 00 00	 jmp	 ??1ioWeapon@@UAE@XZ	; ioWeapon::~ioWeapon
__unwindfunclet$??0ioRunContactWeapon@@QAE@PAVioBaseChar@@PBUWeaponAttribute@@@Z$1:
  00008	8b 4d f0	 mov	 ecx, DWORD PTR _this$[ebp]
  0000b	81 c1 94 08 00
	00		 add	 ecx, 2196		; 00000894H
  00011	ff 25 00 00 00
	00		 jmp	 DWORD PTR __imp_??1ioOrientBox@@QAE@XZ
__unwindfunclet$??0ioRunContactWeapon@@QAE@PAVioBaseChar@@PBUWeaponAttribute@@@Z$2:
  00017	8b 4d f0	 mov	 ecx, DWORD PTR _this$[ebp]
  0001a	81 c1 d8 08 00
	00		 add	 ecx, 2264		; 000008d8H
  00020	ff 25 00 00 00
	00		 jmp	 DWORD PTR __imp_??1ioOrientBox@@QAE@XZ
__ehhandler$??0ioRunContactWeapon@@QAE@PAVioBaseChar@@PBUWeaponAttribute@@@Z:
  00026	8b 54 24 08	 mov	 edx, DWORD PTR [esp+8]
  0002a	8d 42 0c	 lea	 eax, DWORD PTR [edx+12]
  0002d	8b 4a ec	 mov	 ecx, DWORD PTR [edx-20]
  00030	33 c8		 xor	 ecx, eax
  00032	e8 00 00 00 00	 call	 @__security_check_cookie@4
  00037	b8 00 00 00 00	 mov	 eax, OFFSET __ehfuncinfo$??0ioRunContactWeapon@@QAE@PAVioBaseChar@@PBUWeaponAttribute@@@Z
  0003c	e9 00 00 00 00	 jmp	 ___CxxFrameHandler3
text$x	ENDS
??0ioRunContactWeapon@@QAE@PAVioBaseChar@@PBUWeaponAttribute@@@Z ENDP ; ioRunContactWeapon::ioRunContactWeapon
PUBLIC	??1ioRunContactWeapon@@UAE@XZ			; ioRunContactWeapon::~ioRunContactWeapon
;	COMDAT xdata$x
xdata$x	SEGMENT
__unwindtable$??1ioRunContactWeapon@@UAE@XZ DD 0ffffffffH
	DD	FLAT:__unwindfunclet$??1ioRunContactWeapon@@UAE@XZ$0
	DD	00H
	DD	FLAT:__unwindfunclet$??1ioRunContactWeapon@@UAE@XZ$1
__ehfuncinfo$??1ioRunContactWeapon@@UAE@XZ DD 019930522H
	DD	02H
	DD	FLAT:__unwindtable$??1ioRunContactWeapon@@UAE@XZ
	DD	2 DUP(00H)
	DD	2 DUP(00H)
	DD	00H
	DD	01H
; Function compile flags: /Ogsp
xdata$x	ENDS
;	COMDAT ??1ioRunContactWeapon@@UAE@XZ
_TEXT	SEGMENT
_this$ = -16						; size = 4
__$EHRec$ = -12						; size = 12
??1ioRunContactWeapon@@UAE@XZ PROC			; ioRunContactWeapon::~ioRunContactWeapon, COMDAT
; _this$ = ecx

; 20   : {

  00000	6a 04		 push	 4
  00002	b8 00 00 00 00	 mov	 eax, __ehhandler$??1ioRunContactWeapon@@UAE@XZ
  00007	e8 00 00 00 00	 call	 __EH_prolog3
  0000c	8b f1		 mov	 esi, ecx
  0000e	89 75 f0	 mov	 DWORD PTR _this$[ebp], esi
  00011	c7 06 00 00 00
	00		 mov	 DWORD PTR [esi], OFFSET ??_7ioRunContactWeapon@@6B@

; 21   : }

  00017	8b 3d 00 00 00
	00		 mov	 edi, DWORD PTR __imp_??1ioOrientBox@@QAE@XZ
  0001d	8d 8e d8 08 00
	00		 lea	 ecx, DWORD PTR [esi+2264]
  00023	c7 45 fc 01 00
	00 00		 mov	 DWORD PTR __$EHRec$[ebp+8], 1
  0002a	ff d7		 call	 edi
  0002c	8d 8e 94 08 00
	00		 lea	 ecx, DWORD PTR [esi+2196]
  00032	c6 45 fc 00	 mov	 BYTE PTR __$EHRec$[ebp+8], 0
  00036	ff d7		 call	 edi
  00038	83 4d fc ff	 or	 DWORD PTR __$EHRec$[ebp+8], -1
  0003c	8b ce		 mov	 ecx, esi
  0003e	e8 00 00 00 00	 call	 ??1ioWeapon@@UAE@XZ	; ioWeapon::~ioWeapon
  00043	e8 00 00 00 00	 call	 __EH_epilog3
  00048	c3		 ret	 0
_TEXT	ENDS
;	COMDAT text$x
text$x	SEGMENT
__unwindfunclet$??1ioRunContactWeapon@@UAE@XZ$0:
  00000	8b 4d f0	 mov	 ecx, DWORD PTR _this$[ebp]
  00003	e9 00 00 00 00	 jmp	 ??1ioWeapon@@UAE@XZ	; ioWeapon::~ioWeapon
__unwindfunclet$??1ioRunContactWeapon@@UAE@XZ$1:
  00008	8b 4d f0	 mov	 ecx, DWORD PTR _this$[ebp]
  0000b	81 c1 94 08 00
	00		 add	 ecx, 2196		; 00000894H
  00011	ff 25 00 00 00
	00		 jmp	 DWORD PTR __imp_??1ioOrientBox@@QAE@XZ
__ehhandler$??1ioRunContactWeapon@@UAE@XZ:
  00017	8b 54 24 08	 mov	 edx, DWORD PTR [esp+8]
  0001b	8d 42 0c	 lea	 eax, DWORD PTR [edx+12]
  0001e	8b 4a ec	 mov	 ecx, DWORD PTR [edx-20]
  00021	33 c8		 xor	 ecx, eax
  00023	e8 00 00 00 00	 call	 @__security_check_cookie@4
  00028	b8 00 00 00 00	 mov	 eax, OFFSET __ehfuncinfo$??1ioRunContactWeapon@@UAE@XZ
  0002d	e9 00 00 00 00	 jmp	 ___CxxFrameHandler3
text$x	ENDS
??1ioRunContactWeapon@@UAE@XZ ENDP			; ioRunContactWeapon::~ioRunContactWeapon
PUBLIC	??_C@_0BP@JECFLLGK@ioContactWeapon?5?9?5?$CFs?5Not?5Exist?$AA@ ; `string'
PUBLIC	__real@3f800000
PUBLIC	__$ArrayPad$
EXTRN	__imp_?PrintTimeAndLog@CLog@@QAAXHPADZZ:PROC
EXTRN	__imp_?LOG@@3VCLog@@A:BYTE
EXTRN	__imp_?c_str@ioHashString@@QBEPBDXZ:PROC
EXTRN	__imp_?SetNull@ioOrientBox@@QAEXXZ:PROC
EXTRN	?GetOwner@ioWeapon@@QBEPAVioBaseChar@@XZ:PROC	; ioWeapon::GetOwner
EXTRN	___security_cookie:DWORD
EXTRN	__fltused:DWORD
;	COMDAT ??_C@_0BP@JECFLLGK@ioContactWeapon?5?9?5?$CFs?5Not?5Exist?$AA@
CONST	SEGMENT
??_C@_0BP@JECFLLGK@ioContactWeapon?5?9?5?$CFs?5Not?5Exist?$AA@ DB 'ioCont'
	DB	'actWeapon - %s Not Exist', 00H		; `string'
CONST	ENDS
;	COMDAT __real@3f800000
CONST	SEGMENT
__real@3f800000 DD 03f800000r			; 1
; Function compile flags: /Ogsp
CONST	ENDS
;	COMDAT ?SetStartCollisionBox@ioRunContactWeapon@@UAEXXZ
_TEXT	SEGMENT
$T523773 = -72						; size = 68
__$ArrayPad$ = -4					; size = 4
?SetStartCollisionBox@ioRunContactWeapon@@UAEXXZ PROC	; ioRunContactWeapon::SetStartCollisionBox, COMDAT
; _this$ = ecx

; 24   : {

  00000	55		 push	 ebp
  00001	8b ec		 mov	 ebp, esp
  00003	83 ec 48	 sub	 esp, 72			; 00000048H
  00006	a1 00 00 00 00	 mov	 eax, DWORD PTR ___security_cookie
  0000b	33 c5		 xor	 eax, ebp
  0000d	89 45 fc	 mov	 DWORD PTR __$ArrayPad$[ebp], eax
  00010	53		 push	 ebx
  00011	8b d9		 mov	 ebx, ecx

; 25   : 	ioBaseChar *pOwner = GetOwner();

  00013	e8 00 00 00 00	 call	 ?GetOwner@ioWeapon@@QBEPAVioBaseChar@@XZ ; ioWeapon::GetOwner

; 26   : 	if( pOwner )

  00018	85 c0		 test	 eax, eax
  0001a	74 40		 je	 SHORT $LN2@SetStartCo

; 27   : 	{
; 28   : 		m_WorldAttackBox = pOwner->GetAttackCollisionBox( m_CollisionType );

  0001c	f3 0f 10 05 00
	00 00 00	 movss	 xmm0, DWORD PTR __real@3f800000
  00024	8b 10		 mov	 edx, DWORD PTR [eax]
  00026	56		 push	 esi
  00027	57		 push	 edi
  00028	51		 push	 ecx
  00029	f3 0f 11 04 24	 movss	 DWORD PTR [esp], xmm0
  0002e	6a 00		 push	 0
  00030	ff b3 b0 04 00
	00		 push	 DWORD PTR [ebx+1200]
  00036	8d 4d b8	 lea	 ecx, DWORD PTR $T523773[ebp]
  00039	51		 push	 ecx
  0003a	8b c8		 mov	 ecx, eax
  0003c	ff 92 e0 00 00
	00		 call	 DWORD PTR [edx+224]
  00042	6a 11		 push	 17			; 00000011H
  00044	59		 pop	 ecx
  00045	8b f0		 mov	 esi, eax
  00047	8d bb e8 04 00
	00		 lea	 edi, DWORD PTR [ebx+1256]
  0004d	f3 a5		 rep movsd
  0004f	8d 4d b8	 lea	 ecx, DWORD PTR $T523773[ebp]
  00052	ff 15 00 00 00
	00		 call	 DWORD PTR __imp_??1ioOrientBox@@QAE@XZ
  00058	5f		 pop	 edi
  00059	5e		 pop	 esi

; 29   : 	}
; 30   : 	else

  0005a	eb 2c		 jmp	 SHORT $LN1@SetStartCo
$LN2@SetStartCo:

; 31   : 	{
; 32   : 		m_WorldAttackBox.SetNull();

  0005c	8d 8b e8 04 00
	00		 lea	 ecx, DWORD PTR [ebx+1256]
  00062	ff 15 00 00 00
	00		 call	 DWORD PTR __imp_?SetNull@ioOrientBox@@QAEXXZ

; 33   : 		LOG.PrintTimeAndLog( 0, "ioContactWeapon - %s Not Exist", m_OwnerName.c_str() );

  00068	8d 4b 10	 lea	 ecx, DWORD PTR [ebx+16]
  0006b	ff 15 00 00 00
	00		 call	 DWORD PTR __imp_?c_str@ioHashString@@QBEPBDXZ
  00071	50		 push	 eax
  00072	68 00 00 00 00	 push	 OFFSET ??_C@_0BP@JECFLLGK@ioContactWeapon?5?9?5?$CFs?5Not?5Exist?$AA@
  00077	6a 00		 push	 0
  00079	ff 35 00 00 00
	00		 push	 DWORD PTR __imp_?LOG@@3VCLog@@A
  0007f	ff 15 00 00 00
	00		 call	 DWORD PTR __imp_?PrintTimeAndLog@CLog@@QAAXHPADZZ
  00085	83 c4 10	 add	 esp, 16			; 00000010H
$LN1@SetStartCo:

; 34   : 	}
; 35   : 
; 36   : 	m_UpdateState = CONTACT_CREATED;
; 37   : }

  00088	8b 4d fc	 mov	 ecx, DWORD PTR __$ArrayPad$[ebp]
  0008b	83 a3 20 09 00
	00 00		 and	 DWORD PTR [ebx+2336], 0
  00092	33 cd		 xor	 ecx, ebp
  00094	5b		 pop	 ebx
  00095	e8 00 00 00 00	 call	 @__security_check_cookie@4
  0009a	c9		 leave
  0009b	c3		 ret	 0
?SetStartCollisionBox@ioRunContactWeapon@@UAEXXZ ENDP	; ioRunContactWeapon::SetStartCollisionBox
; Function compile flags: /Ogsp
_TEXT	ENDS
;	COMDAT ?GetType@ioRunContactWeapon@@UBE?AW4WeaponType@ioWeapon@@XZ
_TEXT	SEGMENT
?GetType@ioRunContactWeapon@@UBE?AW4WeaponType@ioWeapon@@XZ PROC ; ioRunContactWeapon::GetType, COMDAT
; _this$ = ecx

; 81   : 	return WT_RUN_CONTACT;

  00000	6a 1e		 push	 30			; 0000001eH
  00002	58		 pop	 eax

; 82   : }

  00003	c3		 ret	 0
?GetType@ioRunContactWeapon@@UBE?AW4WeaponType@ioWeapon@@XZ ENDP ; ioRunContactWeapon::GetType
; Function compile flags: /Ogsp
_TEXT	ENDS
;	COMDAT ?GetActionStopType@ioRunContactWeapon@@UBE?AW4ActionStopType@@XZ
_TEXT	SEGMENT
?GetActionStopType@ioRunContactWeapon@@UBE?AW4ActionStopType@@XZ PROC ; ioRunContactWeapon::GetActionStopType, COMDAT
; _this$ = ecx

; 86   : 	return m_ActionStopType;

  00000	a1 00 00 00 00	 mov	 eax, DWORD PTR ?m_ActionStopType@ioRunContactWeapon@@2W4ActionStopType@@A ; ioRunContactWeapon::m_ActionStopType

; 87   : }

  00005	c3		 ret	 0
?GetActionStopType@ioRunContactWeapon@@UBE?AW4ActionStopType@@XZ ENDP ; ioRunContactWeapon::GetActionStopType
; Function compile flags: /Ogsp
_TEXT	ENDS
;	COMDAT ?GetDieActionStopType@ioRunContactWeapon@@UBE?AW4ActionStopType@@XZ
_TEXT	SEGMENT
?GetDieActionStopType@ioRunContactWeapon@@UBE?AW4ActionStopType@@XZ PROC ; ioRunContactWeapon::GetDieActionStopType, COMDAT
; _this$ = ecx

; 91   : 	return m_DieActionStopType;

  00000	a1 00 00 00 00	 mov	 eax, DWORD PTR ?m_DieActionStopType@ioRunContactWeapon@@2W4ActionStopType@@A ; ioRunContactWeapon::m_DieActionStopType

; 92   : }

  00005	c3		 ret	 0
?GetDieActionStopType@ioRunContactWeapon@@UBE?AW4ActionStopType@@XZ ENDP ; ioRunContactWeapon::GetDieActionStopType
_TEXT	ENDS
PUBLIC	?capacity@?$vector@VioOrientBox@@V?$allocator@VioOrientBox@@@std@@@std@@QBEIXZ ; std::vector<ioOrientBox,std::allocator<ioOrientBox> >::capacity
; Function compile flags: /Ogsp
; File c:\program files (x86)\microsoft visual studio 10.0\vc\include\vector
;	COMDAT ?capacity@?$vector@VioOrientBox@@V?$allocator@VioOrientBox@@@std@@@std@@QBEIXZ
_TEXT	SEGMENT
?capacity@?$vector@VioOrientBox@@V?$allocator@VioOrientBox@@@std@@@std@@QBEIXZ PROC ; std::vector<ioOrientBox,std::allocator<ioOrientBox> >::capacity, COMDAT
; _this$ = ecx

; 777  : 		return (this->_Myend - this->_Myfirst);

  00000	8b 41 08	 mov	 eax, DWORD PTR [ecx+8]
  00003	2b 01		 sub	 eax, DWORD PTR [ecx]
  00005	6a 44		 push	 68			; 00000044H
  00007	99		 cdq
  00008	59		 pop	 ecx
  00009	f7 f9		 idiv	 ecx

; 778  : 		}

  0000b	c3		 ret	 0
?capacity@?$vector@VioOrientBox@@V?$allocator@VioOrientBox@@@std@@@std@@QBEIXZ ENDP ; std::vector<ioOrientBox,std::allocator<ioOrientBox> >::capacity
_TEXT	ENDS
PUBLIC	?size@?$vector@VioOrientBox@@V?$allocator@VioOrientBox@@@std@@@std@@QBEIXZ ; std::vector<ioOrientBox,std::allocator<ioOrientBox> >::size
; Function compile flags: /Ogsp
;	COMDAT ?size@?$vector@VioOrientBox@@V?$allocator@VioOrientBox@@@std@@@std@@QBEIXZ
_TEXT	SEGMENT
?size@?$vector@VioOrientBox@@V?$allocator@VioOrientBox@@@std@@@std@@QBEIXZ PROC ; std::vector<ioOrientBox,std::allocator<ioOrientBox> >::size, COMDAT
; _this$ = ecx

; 879  : 		return (this->_Mylast - this->_Myfirst);

  00000	8b 41 04	 mov	 eax, DWORD PTR [ecx+4]
  00003	2b 01		 sub	 eax, DWORD PTR [ecx]
  00005	6a 44		 push	 68			; 00000044H
  00007	99		 cdq
  00008	59		 pop	 ecx
  00009	f7 f9		 idiv	 ecx

; 880  : 		}

  0000b	c3		 ret	 0
?size@?$vector@VioOrientBox@@V?$allocator@VioOrientBox@@@std@@@std@@QBEIXZ ENDP ; std::vector<ioOrientBox,std::allocator<ioOrientBox> >::size
_TEXT	ENDS
PUBLIC	?_Inside@?$vector@VioOrientBox@@V?$allocator@VioOrientBox@@@std@@@std@@IBE_NPBVioOrientBox@@@Z ; std::vector<ioOrientBox,std::allocator<ioOrientBox> >::_Inside
; Function compile flags: /Ogsp
;	COMDAT ?_Inside@?$vector@VioOrientBox@@V?$allocator@VioOrientBox@@@std@@@std@@IBE_NPBVioOrientBox@@@Z
_TEXT	SEGMENT
__Ptr$ = 8						; size = 4
?_Inside@?$vector@VioOrientBox@@V?$allocator@VioOrientBox@@@std@@@std@@IBE_NPBVioOrientBox@@@Z PROC ; std::vector<ioOrientBox,std::allocator<ioOrientBox> >::_Inside, COMDAT
; _this$ = ecx

; 1285 : 		{	// test if _Ptr points inside vector

  00000	55		 push	 ebp
  00001	8b ec		 mov	 ebp, esp

; 1286 : 		return (_Ptr < this->_Mylast && this->_Myfirst <= _Ptr);

  00003	8b 45 08	 mov	 eax, DWORD PTR __Ptr$[ebp]
  00006	3b 41 04	 cmp	 eax, DWORD PTR [ecx+4]
  00009	73 09		 jae	 SHORT $LN3@Inside
  0000b	39 01		 cmp	 DWORD PTR [ecx], eax
  0000d	77 05		 ja	 SHORT $LN3@Inside
  0000f	33 c0		 xor	 eax, eax
  00011	40		 inc	 eax
  00012	eb 02		 jmp	 SHORT $LN4@Inside
$LN3@Inside:
  00014	33 c0		 xor	 eax, eax
$LN4@Inside:

; 1287 : 		}

  00016	5d		 pop	 ebp
  00017	c2 04 00	 ret	 4
?_Inside@?$vector@VioOrientBox@@V?$allocator@VioOrientBox@@@std@@@std@@IBE_NPBVioOrientBox@@@Z ENDP ; std::vector<ioOrientBox,std::allocator<ioOrientBox> >::_Inside
_TEXT	ENDS
PUBLIC	??_C@_0BD@OLBABOEK@vector?$DMT?$DO?5too?5long?$AA@ ; `string'
PUBLIC	?_Xlen@?$vector@VioOrientBox@@V?$allocator@VioOrientBox@@@std@@@std@@IBEXXZ ; std::vector<ioOrientBox,std::allocator<ioOrientBox> >::_Xlen
EXTRN	__imp_?_Xlength_error@std@@YAXPBD@Z:PROC
;	COMDAT ??_C@_0BD@OLBABOEK@vector?$DMT?$DO?5too?5long?$AA@
CONST	SEGMENT
??_C@_0BD@OLBABOEK@vector?$DMT?$DO?5too?5long?$AA@ DB 'vector<T> too long'
	DB	00H						; `string'
; Function compile flags: /Ogsp
CONST	ENDS
;	COMDAT ?_Xlen@?$vector@VioOrientBox@@V?$allocator@VioOrientBox@@@std@@@std@@IBEXXZ
_TEXT	SEGMENT
?_Xlen@?$vector@VioOrientBox@@V?$allocator@VioOrientBox@@@std@@@std@@IBEXXZ PROC ; std::vector<ioOrientBox,std::allocator<ioOrientBox> >::_Xlen, COMDAT
; _this$ = ecx

; 1427 : 		_Xlength_error("vector<T> too long");

  00000	68 00 00 00 00	 push	 OFFSET ??_C@_0BD@OLBABOEK@vector?$DMT?$DO?5too?5long?$AA@
  00005	ff 15 00 00 00
	00		 call	 DWORD PTR __imp_?_Xlength_error@std@@YAXPBD@Z
$LN4@Xlen:
$LN3@Xlen:
  0000b	cc		 int	 3
?_Xlen@?$vector@VioOrientBox@@V?$allocator@VioOrientBox@@@std@@@std@@IBEXXZ ENDP ; std::vector<ioOrientBox,std::allocator<ioOrientBox> >::_Xlen
_TEXT	ENDS
PUBLIC	?_Orphan_range@?$vector@VioOrientBox@@V?$allocator@VioOrientBox@@@std@@@std@@IBEXPAVioOrientBox@@0@Z ; std::vector<ioOrientBox,std::allocator<ioOrientBox> >::_Orphan_range
; Function compile flags: /Ogsp
;	COMDAT ?_Orphan_range@?$vector@VioOrientBox@@V?$allocator@VioOrientBox@@@std@@@std@@IBEXPAVioOrientBox@@0@Z
_TEXT	SEGMENT
___formal$ = 8						; size = 4
___formal$ = 12						; size = 4
?_Orphan_range@?$vector@VioOrientBox@@V?$allocator@VioOrientBox@@@std@@@std@@IBEXPAVioOrientBox@@0@Z PROC ; std::vector<ioOrientBox,std::allocator<ioOrientBox> >::_Orphan_range, COMDAT
; _this$ = ecx

; 1454 : 		}

  00000	c2 08 00	 ret	 8
?_Orphan_range@?$vector@VioOrientBox@@V?$allocator@VioOrientBox@@@std@@@std@@IBEXPAVioOrientBox@@0@Z ENDP ; std::vector<ioOrientBox,std::allocator<ioOrientBox> >::_Orphan_range
_TEXT	ENDS
PUBLIC	?deallocate@?$allocator@VioOrientBox@@@std@@QAEXPAVioOrientBox@@I@Z ; std::allocator<ioOrientBox>::deallocate
; Function compile flags: /Ogsp
; File c:\program files (x86)\microsoft visual studio 10.0\vc\include\xmemory
;	COMDAT ?deallocate@?$allocator@VioOrientBox@@@std@@QAEXPAVioOrientBox@@I@Z
_TEXT	SEGMENT
__Ptr$ = 8						; size = 4
___formal$ = 12						; size = 4
?deallocate@?$allocator@VioOrientBox@@@std@@QAEXPAVioOrientBox@@I@Z PROC ; std::allocator<ioOrientBox>::deallocate, COMDAT
; _this$ = ecx

; 181  : 		{	// deallocate object at _Ptr, ignore size

  00000	55		 push	 ebp
  00001	8b ec		 mov	 ebp, esp

; 182  : 		::operator delete(_Ptr);

  00003	ff 75 08	 push	 DWORD PTR __Ptr$[ebp]
  00006	e8 00 00 00 00	 call	 ??3@YAXPAX@Z		; operator delete
  0000b	59		 pop	 ecx

; 183  : 		}

  0000c	5d		 pop	 ebp
  0000d	c2 08 00	 ret	 8
?deallocate@?$allocator@VioOrientBox@@@std@@QAEXPAVioOrientBox@@I@Z ENDP ; std::allocator<ioOrientBox>::deallocate
_TEXT	ENDS
PUBLIC	?max_size@?$allocator@VioOrientBox@@@std@@QBEIXZ ; std::allocator<ioOrientBox>::max_size
; Function compile flags: /Ogsp
;	COMDAT ?max_size@?$allocator@VioOrientBox@@@std@@QBEIXZ
_TEXT	SEGMENT
?max_size@?$allocator@VioOrientBox@@@std@@QBEIXZ PROC	; std::allocator<ioOrientBox>::max_size, COMDAT
; _this$ = ecx

; 218  : 		_SIZT _Count = (_SIZT)(-1) / sizeof (_Ty);
; 219  : 		return (0 < _Count ? _Count : 1);

  00000	b8 c3 c3 c3 03	 mov	 eax, 63161283		; 03c3c3c3H

; 220  : 		}

  00005	c3		 ret	 0
?max_size@?$allocator@VioOrientBox@@@std@@QBEIXZ ENDP	; std::allocator<ioOrientBox>::max_size
_TEXT	ENDS
PUBLIC	??$addressof@$$CBVioOrientBox@@@std@@YAPBVioOrientBox@@ABV1@@Z ; std::addressof<ioOrientBox const >
; Function compile flags: /Ogsp
;	COMDAT ??$addressof@$$CBVioOrientBox@@@std@@YAPBVioOrientBox@@ABV1@@Z
_TEXT	SEGMENT
__Val$ = 8						; size = 4
??$addressof@$$CBVioOrientBox@@@std@@YAPBVioOrientBox@@ABV1@@Z PROC ; std::addressof<ioOrientBox const >, COMDAT

; 110  : 	{	// return address of _Val

  00000	55		 push	 ebp
  00001	8b ec		 mov	 ebp, esp

; 111  : 	return ((_Ty *) &(char&)_Val);

  00003	8b 45 08	 mov	 eax, DWORD PTR __Val$[ebp]

; 112  : 	}

  00006	5d		 pop	 ebp
  00007	c3		 ret	 0
??$addressof@$$CBVioOrientBox@@@std@@YAPBVioOrientBox@@ABV1@@Z ENDP ; std::addressof<ioOrientBox const >
_TEXT	ENDS
PUBLIC	__TI2?AVbad_alloc@std@@
PUBLIC	??$_Allocate@VioOrientBox@@@std@@YAPAVioOrientBox@@IPAV1@@Z ; std::_Allocate<ioOrientBox>
PUBLIC	__CTA2?AVbad_alloc@std@@
PUBLIC	__CT??_R0?AVbad_alloc@std@@@8??0bad_alloc@std@@QAE@ABV01@@Z12
PUBLIC	??0bad_alloc@std@@QAE@ABV01@@Z			; std::bad_alloc::bad_alloc
PUBLIC	__CT??_R0?AVexception@std@@@8??0exception@std@@QAE@ABV01@@Z12
EXTRN	??2@YAPAXI@Z:PROC				; operator new
EXTRN	__CxxThrowException@8:PROC
EXTRN	??0exception@std@@QAE@ABV01@@Z:PROC		; std::exception::exception
;	COMDAT __CT??_R0?AVexception@std@@@8??0exception@std@@QAE@ABV01@@Z12
; File c:\program files (x86)\microsoft visual studio 10.0\vc\include\exception
xdata$x	SEGMENT
__CT??_R0?AVexception@std@@@8??0exception@std@@QAE@ABV01@@Z12 DD 00H
	DD	FLAT:??_R0?AVexception@std@@@8
	DD	00H
	DD	0ffffffffH
	ORG $+4
	DD	0cH
	DD	FLAT:??0exception@std@@QAE@ABV01@@Z
xdata$x	ENDS
;	COMDAT __CT??_R0?AVbad_alloc@std@@@8??0bad_alloc@std@@QAE@ABV01@@Z12
xdata$x	SEGMENT
__CT??_R0?AVbad_alloc@std@@@8??0bad_alloc@std@@QAE@ABV01@@Z12 DD 00H
	DD	FLAT:??_R0?AVbad_alloc@std@@@8
	DD	00H
	DD	0ffffffffH
	ORG $+4
	DD	0cH
	DD	FLAT:??0bad_alloc@std@@QAE@ABV01@@Z
xdata$x	ENDS
;	COMDAT __CTA2?AVbad_alloc@std@@
xdata$x	SEGMENT
__CTA2?AVbad_alloc@std@@ DD 02H
	DD	FLAT:__CT??_R0?AVbad_alloc@std@@@8??0bad_alloc@std@@QAE@ABV01@@Z12
	DD	FLAT:__CT??_R0?AVexception@std@@@8??0exception@std@@QAE@ABV01@@Z12
xdata$x	ENDS
;	COMDAT __TI2?AVbad_alloc@std@@
xdata$x	SEGMENT
__TI2?AVbad_alloc@std@@ DD 00H
	DD	FLAT:??1bad_alloc@std@@UAE@XZ
	DD	00H
	DD	FLAT:__CTA2?AVbad_alloc@std@@
; Function compile flags: /Ogsp
; File c:\program files (x86)\microsoft visual studio 10.0\vc\include\xmemory
xdata$x	ENDS
;	COMDAT ??$_Allocate@VioOrientBox@@@std@@YAPAVioOrientBox@@IPAV1@@Z
_TEXT	SEGMENT
$T525213 = -12						; size = 12
$T525218 = 8						; size = 4
__Count$ = 8						; size = 4
___formal$ = 12						; size = 4
??$_Allocate@VioOrientBox@@@std@@YAPAVioOrientBox@@IPAV1@@Z PROC ; std::_Allocate<ioOrientBox>, COMDAT

; 30   : 	{	// allocate storage for _Count elements of type _Ty

  00000	55		 push	 ebp
  00001	8b ec		 mov	 ebp, esp

; 31   : 	void *_Ptr = 0;
; 32   : 
; 33   : 	if (_Count <= 0)

  00003	8b 4d 08	 mov	 ecx, DWORD PTR __Count$[ebp]
  00006	83 ec 0c	 sub	 esp, 12			; 0000000cH
  00009	33 c0		 xor	 eax, eax
  0000b	85 c9		 test	 ecx, ecx

; 34   : 		_Count = 0;
; 35   : 	else if (((_SIZT)(-1) / sizeof (_Ty) < _Count)

  0000d	74 3c		 je	 SHORT $LN5@Allocate

; 36   : 		|| (_Ptr = ::operator new(_Count * sizeof (_Ty))) == 0)

  0000f	81 f9 c3 c3 c3
	03		 cmp	 ecx, 63161283		; 03c3c3c3H
  00015	77 0e		 ja	 SHORT $LN1@Allocate
  00017	6b c9 44	 imul	 ecx, 68			; 00000044H
  0001a	51		 push	 ecx
  0001b	e8 00 00 00 00	 call	 ??2@YAPAXI@Z		; operator new
  00020	59		 pop	 ecx
  00021	85 c0		 test	 eax, eax

; 38   : 
; 39   : 	return ((_Ty _FARQ *)_Ptr);

  00023	75 26		 jne	 SHORT $LN5@Allocate
$LN1@Allocate:

; 37   : 		_THROW_NCEE(bad_alloc, 0);

  00025	83 65 08 00	 and	 DWORD PTR $T525218[ebp], 0
  00029	8d 45 08	 lea	 eax, DWORD PTR $T525218[ebp]
  0002c	50		 push	 eax
  0002d	8d 4d f4	 lea	 ecx, DWORD PTR $T525213[ebp]
  00030	ff 15 00 00 00
	00		 call	 DWORD PTR __imp_??0exception@std@@QAE@ABQBD@Z
  00036	68 00 00 00 00	 push	 OFFSET __TI2?AVbad_alloc@std@@
  0003b	8d 45 f4	 lea	 eax, DWORD PTR $T525213[ebp]
  0003e	50		 push	 eax
  0003f	c7 45 f4 00 00
	00 00		 mov	 DWORD PTR $T525213[ebp], OFFSET ??_7bad_alloc@std@@6B@
  00046	e8 00 00 00 00	 call	 __CxxThrowException@8
$LN10@Allocate:
$LN5@Allocate:

; 40   : 	}

  0004b	c9		 leave
  0004c	c3		 ret	 0
$LN9@Allocate:
??$_Allocate@VioOrientBox@@@std@@YAPAVioOrientBox@@IPAV1@@Z ENDP ; std::_Allocate<ioOrientBox>
_TEXT	ENDS
PUBLIC	??$forward@AAVioOrientBox@@@std@@YAAAVioOrientBox@@AAV1@@Z ; std::forward<ioOrientBox &>
; Function compile flags: /Ogsp
; File c:\program files (x86)\microsoft visual studio 10.0\vc\include\utility
;	COMDAT ??$forward@AAVioOrientBox@@@std@@YAAAVioOrientBox@@AAV1@@Z
_TEXT	SEGMENT
__Arg$ = 8						; size = 4
??$forward@AAVioOrientBox@@@std@@YAAAVioOrientBox@@AAV1@@Z PROC ; std::forward<ioOrientBox &>, COMDAT

; 78   : 	{	// forward _Arg, given explicitly specified type parameter

  00000	55		 push	 ebp
  00001	8b ec		 mov	 ebp, esp

; 79   : 	return ((_Ty&&)_Arg);

  00003	8b 45 08	 mov	 eax, DWORD PTR __Arg$[ebp]

; 80   : 	}

  00006	5d		 pop	 ebp
  00007	c3		 ret	 0
??$forward@AAVioOrientBox@@@std@@YAAAVioOrientBox@@AAV1@@Z ENDP ; std::forward<ioOrientBox &>
_TEXT	ENDS
PUBLIC	??$construct@AAVioOrientBox@@@?$allocator@VioOrientBox@@@std@@QAEXPAVioOrientBox@@AAV2@@Z ; std::allocator<ioOrientBox>::construct<ioOrientBox &>
; Function compile flags: /Ogsp
; File c:\program files (x86)\microsoft visual studio 10.0\vc\include\xmemory
;	COMDAT ??$construct@AAVioOrientBox@@@?$allocator@VioOrientBox@@@std@@QAEXPAVioOrientBox@@AAV2@@Z
_TEXT	SEGMENT
__Ptr$ = 8						; size = 4
__Val$ = 12						; size = 4
??$construct@AAVioOrientBox@@@?$allocator@VioOrientBox@@@std@@QAEXPAVioOrientBox@@AAV2@@Z PROC ; std::allocator<ioOrientBox>::construct<ioOrientBox &>, COMDAT
; _this$ = ecx

; 206  : 		void construct(pointer _Ptr, _Other&& _Val)

  00000	55		 push	 ebp
  00001	8b ec		 mov	 ebp, esp
  00003	57		 push	 edi

; 207  : 		{	// construct object at _Ptr with value _Val
; 208  : 		::new ((void _FARQ *)_Ptr) _Ty(_STD forward<_Other>(_Val));

  00004	8b 7d 08	 mov	 edi, DWORD PTR __Ptr$[ebp]
  00007	85 ff		 test	 edi, edi
  00009	74 0a		 je	 SHORT $LN3@construct
  0000b	56		 push	 esi
  0000c	8b 75 0c	 mov	 esi, DWORD PTR __Val$[ebp]
  0000f	6a 11		 push	 17			; 00000011H
  00011	59		 pop	 ecx
  00012	f3 a5		 rep movsd
  00014	5e		 pop	 esi
$LN3@construct:
  00015	5f		 pop	 edi

; 209  : 		}

  00016	5d		 pop	 ebp
  00017	c2 08 00	 ret	 8
??$construct@AAVioOrientBox@@@?$allocator@VioOrientBox@@@std@@QAEXPAVioOrientBox@@AAV2@@Z ENDP ; std::allocator<ioOrientBox>::construct<ioOrientBox &>
_TEXT	ENDS
PUBLIC	??$forward@ABVioOrientBox@@@std@@YAABVioOrientBox@@ABV1@@Z ; std::forward<ioOrientBox const &>
; Function compile flags: /Ogsp
; File c:\program files (x86)\microsoft visual studio 10.0\vc\include\utility
;	COMDAT ??$forward@ABVioOrientBox@@@std@@YAABVioOrientBox@@ABV1@@Z
_TEXT	SEGMENT
__Arg$ = 8						; size = 4
??$forward@ABVioOrientBox@@@std@@YAABVioOrientBox@@ABV1@@Z PROC ; std::forward<ioOrientBox const &>, COMDAT

; 78   : 	{	// forward _Arg, given explicitly specified type parameter

  00000	55		 push	 ebp
  00001	8b ec		 mov	 ebp, esp

; 79   : 	return ((_Ty&&)_Arg);

  00003	8b 45 08	 mov	 eax, DWORD PTR __Arg$[ebp]

; 80   : 	}

  00006	5d		 pop	 ebp
  00007	c3		 ret	 0
??$forward@ABVioOrientBox@@@std@@YAABVioOrientBox@@ABV1@@Z ENDP ; std::forward<ioOrientBox const &>
_TEXT	ENDS
PUBLIC	??$_Ptr_cat@VioOrientBox@@V1@@std@@YA?AU_Nonscalar_ptr_iterator_tag@0@PAVioOrientBox@@0@Z ; std::_Ptr_cat<ioOrientBox,ioOrientBox>
; Function compile flags: /Ogsp
; File c:\program files (x86)\microsoft visual studio 10.0\vc\include\xutility
;	COMDAT ??$_Ptr_cat@VioOrientBox@@V1@@std@@YA?AU_Nonscalar_ptr_iterator_tag@0@PAVioOrientBox@@0@Z
_TEXT	SEGMENT
__Cat$ = -1						; size = 1
___formal$ = 8						; size = 4
___formal$ = 12						; size = 4
??$_Ptr_cat@VioOrientBox@@V1@@std@@YA?AU_Nonscalar_ptr_iterator_tag@0@PAVioOrientBox@@0@Z PROC ; std::_Ptr_cat<ioOrientBox,ioOrientBox>, COMDAT

; 516  : 	{	// return pointer category from pointers

  00000	55		 push	 ebp
  00001	8b ec		 mov	 ebp, esp
  00003	51		 push	 ecx

; 517  : 	typename _Ptr_cat_helper<_Elem1, _Elem2>::_Type _Cat;
; 518  : 	return (_Cat);

  00004	8a 45 ff	 mov	 al, BYTE PTR __Cat$[ebp]

; 519  : 	}

  00007	c9		 leave
  00008	c3		 ret	 0
??$_Ptr_cat@VioOrientBox@@V1@@std@@YA?AU_Nonscalar_ptr_iterator_tag@0@PAVioOrientBox@@0@Z ENDP ; std::_Ptr_cat<ioOrientBox,ioOrientBox>
_TEXT	ENDS
PUBLIC	??$_Construct@VioOrientBox@@ABV1@@std@@YAXPAVioOrientBox@@ABV1@@Z ; std::_Construct<ioOrientBox,ioOrientBox const &>
; Function compile flags: /Ogsp
; File c:\program files (x86)\microsoft visual studio 10.0\vc\include\xmemory
;	COMDAT ??$_Construct@VioOrientBox@@ABV1@@std@@YAXPAVioOrientBox@@ABV1@@Z
_TEXT	SEGMENT
__Ptr$ = 8						; size = 4
__Val$ = 12						; size = 4
??$_Construct@VioOrientBox@@ABV1@@std@@YAXPAVioOrientBox@@ABV1@@Z PROC ; std::_Construct<ioOrientBox,ioOrientBox const &>, COMDAT

; 46   : 	{	// construct object at _Ptr with value _Val

  00000	55		 push	 ebp
  00001	8b ec		 mov	 ebp, esp
  00003	57		 push	 edi

; 47   : 	void _FARQ *_Vptr = _Ptr;
; 48   : 	::new (_Vptr) _Ty1(_STD forward<_Ty2>(_Val));

  00004	8b 7d 08	 mov	 edi, DWORD PTR __Ptr$[ebp]
  00007	85 ff		 test	 edi, edi
  00009	74 0a		 je	 SHORT $LN3@Construct
  0000b	56		 push	 esi
  0000c	8b 75 0c	 mov	 esi, DWORD PTR __Val$[ebp]
  0000f	6a 11		 push	 17			; 00000011H
  00011	59		 pop	 ecx
  00012	f3 a5		 rep movsd
  00014	5e		 pop	 esi
$LN3@Construct:
  00015	5f		 pop	 edi

; 49   : 	}

  00016	5d		 pop	 ebp
  00017	c3		 ret	 0
??$_Construct@VioOrientBox@@ABV1@@std@@YAXPAVioOrientBox@@ABV1@@Z ENDP ; std::_Construct<ioOrientBox,ioOrientBox const &>
_TEXT	ENDS
PUBLIC	??$_Val_type@PAVioOrientBox@@@std@@YAPAVioOrientBox@@PAV1@@Z ; std::_Val_type<ioOrientBox *>
; Function compile flags: /Ogsp
; File c:\program files (x86)\microsoft visual studio 10.0\vc\include\xutility
;	COMDAT ??$_Val_type@PAVioOrientBox@@@std@@YAPAVioOrientBox@@PAV1@@Z
_TEXT	SEGMENT
___formal$ = 8						; size = 4
??$_Val_type@PAVioOrientBox@@@std@@YAPAVioOrientBox@@PAV1@@Z PROC ; std::_Val_type<ioOrientBox *>, COMDAT

; 790  : 	return (0);

  00000	33 c0		 xor	 eax, eax

; 791  : 	}

  00002	c3		 ret	 0
??$_Val_type@PAVioOrientBox@@@std@@YAPAVioOrientBox@@PAV1@@Z ENDP ; std::_Val_type<ioOrientBox *>
_TEXT	ENDS
PUBLIC	??_GioOrientBox@@QAEPAXI@Z			; ioOrientBox::`scalar deleting destructor'
; Function compile flags: /Ogsp
;	COMDAT ??_GioOrientBox@@QAEPAXI@Z
_TEXT	SEGMENT
___flags$ = 8						; size = 4
??_GioOrientBox@@QAEPAXI@Z PROC				; ioOrientBox::`scalar deleting destructor', COMDAT
; _this$ = ecx
  00000	55		 push	 ebp
  00001	8b ec		 mov	 ebp, esp
  00003	56		 push	 esi
  00004	8b f1		 mov	 esi, ecx
  00006	ff 15 00 00 00
	00		 call	 DWORD PTR __imp_??1ioOrientBox@@QAE@XZ
  0000c	f6 45 08 01	 test	 BYTE PTR ___flags$[ebp], 1
  00010	74 07		 je	 SHORT $LN1@scalar@2
  00012	56		 push	 esi
  00013	e8 00 00 00 00	 call	 ??3@YAXPAX@Z		; operator delete
  00018	59		 pop	 ecx
$LN1@scalar@2:
  00019	8b c6		 mov	 eax, esi
  0001b	5e		 pop	 esi
  0001c	5d		 pop	 ebp
  0001d	c2 04 00	 ret	 4
??_GioOrientBox@@QAEPAXI@Z ENDP				; ioOrientBox::`scalar deleting destructor'
_TEXT	ENDS
PUBLIC	??$forward@VioOrientBox@@@std@@YA$$QAVioOrientBox@@AAV1@@Z ; std::forward<ioOrientBox>
; Function compile flags: /Ogsp
; File c:\program files (x86)\microsoft visual studio 10.0\vc\include\utility
;	COMDAT ??$forward@VioOrientBox@@@std@@YA$$QAVioOrientBox@@AAV1@@Z
_TEXT	SEGMENT
__Arg$ = 8						; size = 4
??$forward@VioOrientBox@@@std@@YA$$QAVioOrientBox@@AAV1@@Z PROC ; std::forward<ioOrientBox>, COMDAT

; 78   : 	{	// forward _Arg, given explicitly specified type parameter

  00000	55		 push	 ebp
  00001	8b ec		 mov	 ebp, esp

; 79   : 	return ((_Ty&&)_Arg);

  00003	8b 45 08	 mov	 eax, DWORD PTR __Arg$[ebp]

; 80   : 	}

  00006	5d		 pop	 ebp
  00007	c3		 ret	 0
??$forward@VioOrientBox@@@std@@YA$$QAVioOrientBox@@AAV1@@Z ENDP ; std::forward<ioOrientBox>
_TEXT	ENDS
PUBLIC	??0D3DXVECTOR3@@QAE@XZ				; D3DXVECTOR3::D3DXVECTOR3
; Function compile flags: /Ogsp
; File c:\program files (x86)\microsoft directx sdk (june 2010)\include\d3dx9math.h
;	COMDAT ??0D3DXVECTOR3@@QAE@XZ
_TEXT	SEGMENT
??0D3DXVECTOR3@@QAE@XZ PROC				; D3DXVECTOR3::D3DXVECTOR3, COMDAT
; _this$ = ecx

; 165  :     D3DXVECTOR3() {};

  00000	8b c1		 mov	 eax, ecx
  00002	c3		 ret	 0
??0D3DXVECTOR3@@QAE@XZ ENDP				; D3DXVECTOR3::D3DXVECTOR3
_TEXT	ENDS
PUBLIC	??0D3DXVECTOR3@@QAE@MMM@Z			; D3DXVECTOR3::D3DXVECTOR3
; Function compile flags: /Ogsp
; File c:\program files (x86)\microsoft directx sdk (june 2010)\include\d3dx9math.inl
;	COMDAT ??0D3DXVECTOR3@@QAE@MMM@Z
_TEXT	SEGMENT
_fx$ = 8						; size = 4
_fy$ = 12						; size = 4
_fz$ = 16						; size = 4
??0D3DXVECTOR3@@QAE@MMM@Z PROC				; D3DXVECTOR3::D3DXVECTOR3, COMDAT
; _this$ = ecx

; 303  : {

  00000	55		 push	 ebp
  00001	8b ec		 mov	 ebp, esp

; 304  :     x = fx;

  00003	f3 0f 10 45 08	 movss	 xmm0, DWORD PTR _fx$[ebp]
  00008	8b c1		 mov	 eax, ecx
  0000a	f3 0f 11 00	 movss	 DWORD PTR [eax], xmm0

; 305  :     y = fy;

  0000e	f3 0f 10 45 0c	 movss	 xmm0, DWORD PTR _fy$[ebp]
  00013	f3 0f 11 40 04	 movss	 DWORD PTR [eax+4], xmm0

; 306  :     z = fz;

  00018	f3 0f 10 45 10	 movss	 xmm0, DWORD PTR _fz$[ebp]
  0001d	f3 0f 11 40 08	 movss	 DWORD PTR [eax+8], xmm0

; 307  : }

  00022	5d		 pop	 ebp
  00023	c2 0c 00	 ret	 12			; 0000000cH
??0D3DXVECTOR3@@QAE@MMM@Z ENDP				; D3DXVECTOR3::D3DXVECTOR3
_TEXT	ENDS
PUBLIC	??GD3DXVECTOR3@@QBE?AU0@ABU0@@Z			; D3DXVECTOR3::operator-
; Function compile flags: /Ogsp
;	COMDAT ??GD3DXVECTOR3@@QBE?AU0@ABU0@@Z
_TEXT	SEGMENT
___$ReturnUdt$ = 8					; size = 4
_v$ = 12						; size = 4
??GD3DXVECTOR3@@QBE?AU0@ABU0@@Z PROC			; D3DXVECTOR3::operator-, COMDAT
; _this$ = ecx

; 386  : {

  00000	55		 push	 ebp
  00001	8b ec		 mov	 ebp, esp

; 387  :     return D3DXVECTOR3(x - v.x, y - v.y, z - v.z);

  00003	8b 55 0c	 mov	 edx, DWORD PTR _v$[ebp]
  00006	f3 0f 10 01	 movss	 xmm0, DWORD PTR [ecx]
  0000a	f3 0f 10 0a	 movss	 xmm1, DWORD PTR [edx]
  0000e	8b 45 08	 mov	 eax, DWORD PTR ___$ReturnUdt$[ebp]
  00011	0f 5a c0	 cvtps2pd xmm0, xmm0
  00014	0f 5a c9	 cvtps2pd xmm1, xmm1
  00017	f2 0f 5c c1	 subsd	 xmm0, xmm1
  0001b	f3 0f 10 4a 04	 movss	 xmm1, DWORD PTR [edx+4]
  00020	66 0f 5a c0	 cvtpd2ps xmm0, xmm0
  00024	f3 0f 11 00	 movss	 DWORD PTR [eax], xmm0
  00028	f3 0f 10 41 04	 movss	 xmm0, DWORD PTR [ecx+4]
  0002d	0f 5a c0	 cvtps2pd xmm0, xmm0
  00030	0f 5a c9	 cvtps2pd xmm1, xmm1
  00033	f2 0f 5c c1	 subsd	 xmm0, xmm1
  00037	f3 0f 10 4a 08	 movss	 xmm1, DWORD PTR [edx+8]
  0003c	66 0f 5a c0	 cvtpd2ps xmm0, xmm0
  00040	f3 0f 11 40 04	 movss	 DWORD PTR [eax+4], xmm0
  00045	f3 0f 10 41 08	 movss	 xmm0, DWORD PTR [ecx+8]
  0004a	0f 5a c0	 cvtps2pd xmm0, xmm0
  0004d	0f 5a c9	 cvtps2pd xmm1, xmm1
  00050	f2 0f 5c c1	 subsd	 xmm0, xmm1
  00054	66 0f 5a c0	 cvtpd2ps xmm0, xmm0
  00058	f3 0f 11 40 08	 movss	 DWORD PTR [eax+8], xmm0

; 388  : }

  0005d	5d		 pop	 ebp
  0005e	c2 08 00	 ret	 8
??GD3DXVECTOR3@@QBE?AU0@ABU0@@Z ENDP			; D3DXVECTOR3::operator-
_TEXT	ENDS
PUBLIC	?D3DXVec3Lerp@@YAPAUD3DXVECTOR3@@PAU1@PBU1@1M@Z	; D3DXVec3Lerp
; Function compile flags: /Ogsp
;	COMDAT ?D3DXVec3Lerp@@YAPAUD3DXVECTOR3@@PAU1@PBU1@1M@Z
_TEXT	SEGMENT
_pOut$ = 8						; size = 4
_pV1$ = 12						; size = 4
_pV2$ = 16						; size = 4
_s$ = 20						; size = 4
?D3DXVec3Lerp@@YAPAUD3DXVECTOR3@@PAU1@PBU1@1M@Z PROC	; D3DXVec3Lerp, COMDAT

; 1836 : {

  00000	55		 push	 ebp
  00001	8b ec		 mov	 ebp, esp

; 1837 : #ifdef D3DX_DEBUG
; 1838 :     if(!pOut || !pV1 || !pV2)
; 1839 :         return NULL;
; 1840 : #endif
; 1841 : 
; 1842 :     pOut->x = pV1->x + s * (pV2->x - pV1->x);

  00003	8b 4d 0c	 mov	 ecx, DWORD PTR _pV1$[ebp]
  00006	f3 0f 10 01	 movss	 xmm0, DWORD PTR [ecx]
  0000a	8b 55 10	 mov	 edx, DWORD PTR _pV2$[ebp]
  0000d	f3 0f 10 0a	 movss	 xmm1, DWORD PTR [edx]
  00011	8b 45 08	 mov	 eax, DWORD PTR _pOut$[ebp]
  00014	0f 5a d0	 cvtps2pd xmm2, xmm0
  00017	0f 5a c9	 cvtps2pd xmm1, xmm1
  0001a	f2 0f 5c ca	 subsd	 xmm1, xmm2
  0001e	f3 0f 10 55 14	 movss	 xmm2, DWORD PTR _s$[ebp]
  00023	0f 5a c0	 cvtps2pd xmm0, xmm0
  00026	0f 5a d2	 cvtps2pd xmm2, xmm2
  00029	f2 0f 59 ca	 mulsd	 xmm1, xmm2
  0002d	f2 0f 58 c8	 addsd	 xmm1, xmm0
  00031	0f 57 c0	 xorps	 xmm0, xmm0
  00034	66 0f 5a c1	 cvtpd2ps xmm0, xmm1
  00038	f3 0f 11 00	 movss	 DWORD PTR [eax], xmm0

; 1843 :     pOut->y = pV1->y + s * (pV2->y - pV1->y);

  0003c	f3 0f 10 41 04	 movss	 xmm0, DWORD PTR [ecx+4]
  00041	f3 0f 10 4a 04	 movss	 xmm1, DWORD PTR [edx+4]
  00046	0f 5a d0	 cvtps2pd xmm2, xmm0
  00049	0f 5a c9	 cvtps2pd xmm1, xmm1
  0004c	f2 0f 5c ca	 subsd	 xmm1, xmm2
  00050	f3 0f 10 55 14	 movss	 xmm2, DWORD PTR _s$[ebp]
  00055	0f 5a c0	 cvtps2pd xmm0, xmm0
  00058	0f 5a d2	 cvtps2pd xmm2, xmm2
  0005b	f2 0f 59 ca	 mulsd	 xmm1, xmm2
  0005f	f2 0f 58 c8	 addsd	 xmm1, xmm0
  00063	0f 57 c0	 xorps	 xmm0, xmm0
  00066	66 0f 5a c1	 cvtpd2ps xmm0, xmm1
  0006a	f3 0f 11 40 04	 movss	 DWORD PTR [eax+4], xmm0

; 1844 :     pOut->z = pV1->z + s * (pV2->z - pV1->z);

  0006f	f3 0f 10 41 08	 movss	 xmm0, DWORD PTR [ecx+8]
  00074	f3 0f 10 4a 08	 movss	 xmm1, DWORD PTR [edx+8]
  00079	0f 5a d0	 cvtps2pd xmm2, xmm0
  0007c	0f 5a c9	 cvtps2pd xmm1, xmm1
  0007f	f2 0f 5c ca	 subsd	 xmm1, xmm2
  00083	f3 0f 10 55 14	 movss	 xmm2, DWORD PTR _s$[ebp]
  00088	0f 5a c0	 cvtps2pd xmm0, xmm0
  0008b	0f 5a d2	 cvtps2pd xmm2, xmm2
  0008e	f2 0f 59 ca	 mulsd	 xmm1, xmm2
  00092	f2 0f 58 c8	 addsd	 xmm1, xmm0
  00096	66 0f 5a c1	 cvtpd2ps xmm0, xmm1
  0009a	f3 0f 11 40 08	 movss	 DWORD PTR [eax+8], xmm0

; 1845 :     return pOut;
; 1846 : }

  0009f	5d		 pop	 ebp
  000a0	c3		 ret	 0
?D3DXVec3Lerp@@YAPAUD3DXVECTOR3@@PAU1@PBU1@1M@Z ENDP	; D3DXVec3Lerp
_TEXT	ENDS
PUBLIC	??_R0?AVioGameEntity@@@8			; ioGameEntity `RTTI Type Descriptor'
PUBLIC	??_R0?AVioPlayEntity@@@8			; ioPlayEntity `RTTI Type Descriptor'
PUBLIC	?ToPlayEntity@@YAPAVioPlayEntity@@PAVioGameEntity@@@Z ; ToPlayEntity
EXTRN	___RTDynamicCast:PROC
;	COMDAT ??_R0?AVioGameEntity@@@8
; File d:\lost saga for developer\youtube\tutorial\source\src\lsclient\ioplayentity.h
_DATA	SEGMENT
??_R0?AVioGameEntity@@@8 DD FLAT:??_7type_info@@6B@	; ioGameEntity `RTTI Type Descriptor'
	DD	00H
	DB	'.?AVioGameEntity@@', 00H
_DATA	ENDS
;	COMDAT ??_R0?AVioPlayEntity@@@8
_DATA	SEGMENT
??_R0?AVioPlayEntity@@@8 DD FLAT:??_7type_info@@6B@	; ioPlayEntity `RTTI Type Descriptor'
	DD	00H
	DB	'.?AVioPlayEntity@@', 00H
; Function compile flags: /Ogsp
_DATA	ENDS
;	COMDAT ?ToPlayEntity@@YAPAVioPlayEntity@@PAVioGameEntity@@@Z
_TEXT	SEGMENT
_pObj$ = 8						; size = 4
?ToPlayEntity@@YAPAVioPlayEntity@@PAVioGameEntity@@@Z PROC ; ToPlayEntity, COMDAT

; 121  : {

  00000	55		 push	 ebp
  00001	8b ec		 mov	 ebp, esp
  00003	56		 push	 esi

; 122  : 	if( !pObj || pObj->GetTypeID() != ioGameEntity::GET_PLAY_ENTITY )

  00004	8b 75 08	 mov	 esi, DWORD PTR _pObj$[ebp]
  00007	85 f6		 test	 esi, esi
  00009	74 25		 je	 SHORT $LN1@ToPlayEnti
  0000b	8b 06		 mov	 eax, DWORD PTR [esi]
  0000d	8b ce		 mov	 ecx, esi
  0000f	ff 50 10	 call	 DWORD PTR [eax+16]
  00012	83 f8 01	 cmp	 eax, 1
  00015	75 19		 jne	 SHORT $LN1@ToPlayEnti

; 124  : 
; 125  : 	return dynamic_cast< ioPlayEntity* >( pObj );

  00017	6a 00		 push	 0
  00019	68 00 00 00 00	 push	 OFFSET ??_R0?AVioPlayEntity@@@8
  0001e	68 00 00 00 00	 push	 OFFSET ??_R0?AVioGameEntity@@@8
  00023	6a 00		 push	 0
  00025	56		 push	 esi
  00026	e8 00 00 00 00	 call	 ___RTDynamicCast
  0002b	83 c4 14	 add	 esp, 20			; 00000014H
  0002e	eb 02		 jmp	 SHORT $LN3@ToPlayEnti
$LN1@ToPlayEnti:

; 123  : 		return NULL;

  00030	33 c0		 xor	 eax, eax
$LN3@ToPlayEnti:
  00032	5e		 pop	 esi

; 126  : }

  00033	5d		 pop	 ebp
  00034	c3		 ret	 0
?ToPlayEntity@@YAPAVioPlayEntity@@PAVioGameEntity@@@Z ENDP ; ToPlayEntity
_TEXT	ENDS
PUBLIC	?IsLive@ioWeapon@@QBE_NXZ			; ioWeapon::IsLive
; Function compile flags: /Ogsp
; File d:\lost saga for developer\youtube\tutorial\source\src\lsclient\ioweapon.h
;	COMDAT ?IsLive@ioWeapon@@QBE_NXZ
_TEXT	SEGMENT
?IsLive@ioWeapon@@QBE_NXZ PROC				; ioWeapon::IsLive, COMDAT
; _this$ = ecx

; 533  : 	inline bool IsLive() const { return m_bLive; }

  00000	8a 81 82 05 00
	00		 mov	 al, BYTE PTR [ecx+1410]
  00006	c3		 ret	 0
?IsLive@ioWeapon@@QBE_NXZ ENDP				; ioWeapon::IsLive
_TEXT	ENDS
EXTRN	__imp_??0exception@std@@QAE@ABV01@@Z:PROC
; Function compile flags: /Ogsp
;	COMDAT ??0bad_alloc@std@@QAE@ABV01@@Z
_TEXT	SEGMENT
___that$ = 8						; size = 4
??0bad_alloc@std@@QAE@ABV01@@Z PROC			; std::bad_alloc::bad_alloc, COMDAT
; _this$ = ecx
  00000	55		 push	 ebp
  00001	8b ec		 mov	 ebp, esp
  00003	56		 push	 esi
  00004	ff 75 08	 push	 DWORD PTR ___that$[ebp]
  00007	8b f1		 mov	 esi, ecx
  00009	ff 15 00 00 00
	00		 call	 DWORD PTR __imp_??0exception@std@@QAE@ABV01@@Z
  0000f	c7 06 00 00 00
	00		 mov	 DWORD PTR [esi], OFFSET ??_7bad_alloc@std@@6B@
  00015	8b c6		 mov	 eax, esi
  00017	5e		 pop	 esi
  00018	5d		 pop	 ebp
  00019	c2 04 00	 ret	 4
??0bad_alloc@std@@QAE@ABV01@@Z ENDP			; std::bad_alloc::bad_alloc
_TEXT	ENDS
PUBLIC	??_R0?AVioBaseChar@@@8				; ioBaseChar `RTTI Type Descriptor'
PUBLIC	?ToBaseChar@@YAPAVioBaseChar@@PAVioGameEntity@@@Z ; ToBaseChar
;	COMDAT ??_R0?AVioBaseChar@@@8
; File d:\lost saga for developer\youtube\tutorial\source\src\lsclient\iobasechar.h
_DATA	SEGMENT
??_R0?AVioBaseChar@@@8 DD FLAT:??_7type_info@@6B@	; ioBaseChar `RTTI Type Descriptor'
	DD	00H
	DB	'.?AVioBaseChar@@', 00H
; Function compile flags: /Ogsp
_DATA	ENDS
;	COMDAT ?ToBaseChar@@YAPAVioBaseChar@@PAVioGameEntity@@@Z
_TEXT	SEGMENT
_pObj$ = 8						; size = 4
?ToBaseChar@@YAPAVioBaseChar@@PAVioGameEntity@@@Z PROC	; ToBaseChar, COMDAT

; 4326 : {

  00000	55		 push	 ebp
  00001	8b ec		 mov	 ebp, esp
  00003	56		 push	 esi

; 4327 : 	ioPlayEntity *pPlay = ToPlayEntity( pObj );

  00004	ff 75 08	 push	 DWORD PTR _pObj$[ebp]
  00007	e8 00 00 00 00	 call	 ?ToPlayEntity@@YAPAVioPlayEntity@@PAVioGameEntity@@@Z ; ToPlayEntity
  0000c	8b f0		 mov	 esi, eax
  0000e	59		 pop	 ecx

; 4328 : 	if( !pPlay || pPlay->GetSubType() != ioPlayEntity::PST_CHAR )

  0000f	85 f6		 test	 esi, esi
  00011	74 25		 je	 SHORT $LN1@ToBaseChar
  00013	8b 06		 mov	 eax, DWORD PTR [esi]
  00015	8b ce		 mov	 ecx, esi
  00017	ff 90 a4 00 00
	00		 call	 DWORD PTR [eax+164]
  0001d	85 c0		 test	 eax, eax
  0001f	75 17		 jne	 SHORT $LN1@ToBaseChar

; 4330 : 
; 4331 : 	return dynamic_cast< ioBaseChar* >( pPlay );

  00021	50		 push	 eax
  00022	68 00 00 00 00	 push	 OFFSET ??_R0?AVioBaseChar@@@8
  00027	68 00 00 00 00	 push	 OFFSET ??_R0?AVioPlayEntity@@@8
  0002c	50		 push	 eax
  0002d	56		 push	 esi
  0002e	e8 00 00 00 00	 call	 ___RTDynamicCast
  00033	83 c4 14	 add	 esp, 20			; 00000014H
  00036	eb 02		 jmp	 SHORT $LN3@ToBaseChar
$LN1@ToBaseChar:

; 4329 : 		return NULL;

  00038	33 c0		 xor	 eax, eax
$LN3@ToBaseChar:
  0003a	5e		 pop	 esi

; 4332 : }

  0003b	5d		 pop	 ebp
  0003c	c3		 ret	 0
?ToBaseChar@@YAPAVioBaseChar@@PAVioGameEntity@@@Z ENDP	; ToBaseChar
; Function compile flags: /Ogsp
_TEXT	ENDS
;	COMDAT ??_GioRunContactWeapon@@UAEPAXI@Z
_TEXT	SEGMENT
___flags$ = 8						; size = 4
??_GioRunContactWeapon@@UAEPAXI@Z PROC			; ioRunContactWeapon::`scalar deleting destructor', COMDAT
; _this$ = ecx
  00000	55		 push	 ebp
  00001	8b ec		 mov	 ebp, esp
  00003	56		 push	 esi
  00004	8b f1		 mov	 esi, ecx
  00006	e8 00 00 00 00	 call	 ??1ioRunContactWeapon@@UAE@XZ ; ioRunContactWeapon::~ioRunContactWeapon
  0000b	f6 45 08 01	 test	 BYTE PTR ___flags$[ebp], 1
  0000f	74 07		 je	 SHORT $LN1@scalar@3
  00011	56		 push	 esi
  00012	e8 00 00 00 00	 call	 ??3@YAXPAX@Z		; operator delete
  00017	59		 pop	 ecx
$LN1@scalar@3:
  00018	8b c6		 mov	 eax, esi
  0001a	5e		 pop	 esi
  0001b	5d		 pop	 ebp
  0001c	c2 04 00	 ret	 4
??_GioRunContactWeapon@@UAEPAXI@Z ENDP			; ioRunContactWeapon::`scalar deleting destructor'
_TEXT	ENDS
PUBLIC	?CheckCollisionLine@ioRunContactWeapon@@IAE_NPAVioPlayEntity@@ABUD3DXVECTOR3@@@Z ; ioRunContactWeapon::CheckCollisionLine
EXTRN	?CheckCollisionLine@ioBaseChar@@QAE_NABUD3DXVECTOR3@@_N@Z:PROC ; ioBaseChar::CheckCollisionLine
; Function compile flags: /Ogsp
; File d:\lost saga for developer\youtube\tutorial\source\src\lsclient\ioruncontactweapon.cpp
;	COMDAT ?CheckCollisionLine@ioRunContactWeapon@@IAE_NPAVioPlayEntity@@ABUD3DXVECTOR3@@@Z
_TEXT	SEGMENT
_pTarget$ = 8						; size = 4
_vColPoint$ = 12					; size = 4
?CheckCollisionLine@ioRunContactWeapon@@IAE_NPAVioPlayEntity@@ABUD3DXVECTOR3@@@Z PROC ; ioRunContactWeapon::CheckCollisionLine, COMDAT
; _this$ = ecx

; 67   : {

  00000	55		 push	 ebp
  00001	8b ec		 mov	 ebp, esp
  00003	56		 push	 esi

; 68   : 	//     
; 69   : 	ioBaseChar *pTargetChar = ToBaseChar( pTarget );

  00004	ff 75 08	 push	 DWORD PTR _pTarget$[ebp]
  00007	8b f1		 mov	 esi, ecx
  00009	e8 00 00 00 00	 call	 ?ToBaseChar@@YAPAVioBaseChar@@PAVioGameEntity@@@Z ; ToBaseChar
  0000e	59		 pop	 ecx

; 70   : 	if( !pTargetChar )	return true;

  0000f	85 c0		 test	 eax, eax
  00011	75 04		 jne	 SHORT $LN2@CheckColli
  00013	b0 01		 mov	 al, 1
  00015	eb 1b		 jmp	 SHORT $LN3@CheckColli
$LN2@CheckColli:

; 71   : 
; 72   : 	ioBaseChar *pOwner = GetOwner();

  00017	8b ce		 mov	 ecx, esi
  00019	e8 00 00 00 00	 call	 ?GetOwner@ioWeapon@@QBEPAVioBaseChar@@XZ ; ioWeapon::GetOwner

; 73   : 	if( pOwner )

  0001e	85 c0		 test	 eax, eax
  00020	74 0e		 je	 SHORT $LN1@CheckColli

; 74   : 		return pOwner->CheckCollisionLine( vColPoint );

  00022	6a 01		 push	 1
  00024	ff 75 0c	 push	 DWORD PTR _vColPoint$[ebp]
  00027	8b c8		 mov	 ecx, eax
  00029	e8 00 00 00 00	 call	 ?CheckCollisionLine@ioBaseChar@@QAE_NABUD3DXVECTOR3@@_N@Z ; ioBaseChar::CheckCollisionLine
  0002e	eb 02		 jmp	 SHORT $LN3@CheckColli
$LN1@CheckColli:

; 75   : 
; 76   : 	return false;	//     

  00030	32 c0		 xor	 al, al
$LN3@CheckColli:
  00032	5e		 pop	 esi

; 77   : }

  00033	5d		 pop	 ebp
  00034	c2 08 00	 ret	 8
?CheckCollisionLine@ioRunContactWeapon@@IAE_NPAVioPlayEntity@@ABUD3DXVECTOR3@@@Z ENDP ; ioRunContactWeapon::CheckCollisionLine
_TEXT	ENDS
PUBLIC	__real@4f800000
EXTRN	?SetPosition@ioWeapon@@QAEXABUD3DXVECTOR3@@@Z:PROC ; ioWeapon::SetPosition
EXTRN	__imp_?SetExtents@ioOrientBox@@QAEXHM@Z:PROC
EXTRN	__imp_?GetExtents@ioOrientBox@@QBEMH@Z:PROC
EXTRN	__imp_?SetCenter@ioOrientBox@@QAEXABUD3DXVECTOR3@@@Z:PROC
EXTRN	__imp_?GetCenter@ioOrientBox@@QBEABUD3DXVECTOR3@@XZ:PROC
EXTRN	__imp_?SetAxis@ioOrientBox@@QAEXHABUD3DXVECTOR3@@@Z:PROC
EXTRN	_D3DXVec3Normalize@8:PROC
EXTRN	__imp_?GetAxis@ioOrientBox@@QBEABUD3DXVECTOR3@@H@Z:PROC
EXTRN	__imp_?GetLoopSec@ioFrameTimer@@QBEKXZ:PROC
EXTRN	__imp_?GetSingleton@ioFrameTimer@@SAAAV1@XZ:PROC
EXTRN	__EH_epilog3_GS:PROC
EXTRN	__EH_prolog3_GS:PROC
EXTRN	__ftol2:PROC
;	COMDAT __real@4f800000
; File c:\program files (x86)\microsoft directx sdk (june 2010)\include\d3dx9math.inl
CONST	SEGMENT
__real@4f800000 DD 04f800000r			; 4.29497e+009
CONST	ENDS
;	COMDAT xdata$x
xdata$x	SEGMENT
__unwindtable$?UpdateWorldAttackBox@ioRunContactWeapon@@MAEXM_N@Z DD 0ffffffffH
	DD	FLAT:__unwindfunclet$?UpdateWorldAttackBox@ioRunContactWeapon@@MAEXM_N@Z$1
__ehfuncinfo$?UpdateWorldAttackBox@ioRunContactWeapon@@MAEXM_N@Z DD 019930522H
	DD	01H
	DD	FLAT:__unwindtable$?UpdateWorldAttackBox@ioRunContactWeapon@@MAEXM_N@Z
	DD	2 DUP(00H)
	DD	2 DUP(00H)
	DD	00H
	DD	01H
; Function compile flags: /Ogsp
; File d:\lost saga for developer\youtube\tutorial\source\src\lsclient\ioruncontactweapon.cpp
xdata$x	ENDS
;	COMDAT ?UpdateWorldAttackBox@ioRunContactWeapon@@MAEXM_N@Z
_TEXT	SEGMENT
_pOwner$ = -176						; size = 4
tv1103 = -172						; size = 4
tv1088 = -172						; size = 4
tv1085 = -172						; size = 4
tv1081 = -172						; size = 4
tv1077 = -172						; size = 4
tv1072 = -172						; size = 4
tv1062 = -172						; size = 4
tv1053 = -172						; size = 4
tv1044 = -172						; size = 4
tv993 = -172						; size = 4
tv988 = -172						; size = 4
tv984 = -172						; size = 4
tv954 = -172						; size = 4
tv950 = -172						; size = 4
tv946 = -172						; size = 4
tv229 = -172						; size = 4
$T525368 = -168						; size = 4
$T525354 = -168						; size = 4
_fLerpRate$524149 = -168				; size = 4
_dwCurTime$ = -168					; size = 4
$T524147 = -164						; size = 68
_kCurAttackBox$524160 = -96				; size = 68
_vAxis$ = -28						; size = 12
__$EHRec$ = -12						; size = 12
_fTimePerSec$ = 8					; size = 4
_bSetNull$ = 12						; size = 1
?UpdateWorldAttackBox@ioRunContactWeapon@@MAEXM_N@Z PROC ; ioRunContactWeapon::UpdateWorldAttackBox, COMDAT
; _this$ = ecx

; 95   : {

  00000	68 a4 00 00 00	 push	 164			; 000000a4H
  00005	b8 00 00 00 00	 mov	 eax, __ehhandler$?UpdateWorldAttackBox@ioRunContactWeapon@@MAEXM_N@Z
  0000a	e8 00 00 00 00	 call	 __EH_prolog3_GS
  0000f	8b d9		 mov	 ebx, ecx

; 96   : 	ioBaseChar *pOwner = GetOwner();

  00011	e8 00 00 00 00	 call	 ?GetOwner@ioWeapon@@QBEPAVioBaseChar@@XZ ; ioWeapon::GetOwner

; 97   : 
; 98   : 	if( bSetNull || !pOwner || !IsLive() )

  00016	80 7d 0c 00	 cmp	 BYTE PTR _bSetNull$[ebp], 0
  0001a	89 85 50 ff ff
	ff		 mov	 DWORD PTR _pOwner$[ebp], eax
  00020	0f 85 68 06 00
	00		 jne	 $LN15@UpdateWorl
  00026	85 c0		 test	 eax, eax
  00028	0f 84 60 06 00
	00		 je	 $LN15@UpdateWorl
  0002e	80 bb 82 05 00
	00 00		 cmp	 BYTE PTR [ebx+1410], 0
  00035	0f 84 53 06 00
	00		 je	 $LN15@UpdateWorl

; 104  : 		return;
; 105  : 	}
; 106  : 
; 107  : 	m_PreAttackBox = m_WorldAttackBox;

  0003b	6a 11		 push	 17			; 00000011H
  0003d	59		 pop	 ecx
  0003e	8d b3 e8 04 00
	00		 lea	 esi, DWORD PTR [ebx+1256]
  00044	8d bb 94 08 00
	00		 lea	 edi, DWORD PTR [ebx+2196]
  0004a	f3 a5		 rep movsd

; 108  : 
; 109  : 	DWORD dwLooseTime = 0;
; 110  : 	if( pOwner )
; 111  : 	{
; 112  : 		dwLooseTime = pOwner->GetActionStopCurAdd();

  0004c	8b b8 b0 15 00
	00		 mov	 edi, DWORD PTR [eax+5552]

; 113  : 	}
; 114  : 
; 115  : 	DWORD dwCurTime = FRAMEGETTIME();

  00052	ff 15 00 00 00
	00		 call	 DWORD PTR __imp_?GetSingleton@ioFrameTimer@@SAAAV1@XZ
  00058	8b c8		 mov	 ecx, eax
  0005a	ff 15 00 00 00
	00		 call	 DWORD PTR __imp_?GetLoopSec@ioFrameTimer@@QBEKXZ

; 116  : 	DWORD dwLiveEndTime = m_dwCreatedTime + m_dwLiveTime + dwLooseTime;

  00060	8b b3 d4 04 00
	00		 mov	 esi, DWORD PTR [ebx+1236]
  00066	03 b3 d8 04 00
	00		 add	 esi, DWORD PTR [ebx+1240]
  0006c	89 85 58 ff ff
	ff		 mov	 DWORD PTR _dwCurTime$[ebp], eax
  00072	03 f7		 add	 esi, edi

; 117  : 	DWORD dwFrameEndTime = dwCurTime + (DWORD)( fTimePerSec * FLOAT1000 );

  00074	b8 e8 03 00 00	 mov	 eax, 1000		; 000003e8H
  00079	89 85 54 ff ff
	ff		 mov	 DWORD PTR tv1103[ebp], eax
  0007f	db 85 54 ff ff
	ff		 fild	 DWORD PTR tv1103[ebp]
  00085	85 c0		 test	 eax, eax
  00087	79 06		 jns	 SHORT $LN64@UpdateWorl
  00089	d8 05 00 00 00
	00		 fadd	 DWORD PTR __real@4f800000
$LN64@UpdateWorl:
  0008f	d8 4d 08	 fmul	 DWORD PTR _fTimePerSec$[ebp]
  00092	e8 00 00 00 00	 call	 __ftol2
  00097	8b 8d 58 ff ff
	ff		 mov	 ecx, DWORD PTR _dwCurTime$[ebp]
  0009d	03 c1		 add	 eax, ecx

; 118  : 	D3DXVECTOR3 vAxis;
; 119  : 
; 120  : 	if( dwLiveEndTime >= dwFrameEndTime )

  0009f	3b f0		 cmp	 esi, eax
  000a1	72 43		 jb	 SHORT $LN13@UpdateWorl

; 121  : 	{
; 122  : 		m_WorldAttackBox = pOwner->GetAttackCollisionBox( m_CollisionType );

  000a3	8b 8d 50 ff ff
	ff		 mov	 ecx, DWORD PTR _pOwner$[ebp]
  000a9	f3 0f 10 05 00
	00 00 00	 movss	 xmm0, DWORD PTR __real@3f800000
  000b1	8b 01		 mov	 eax, DWORD PTR [ecx]
  000b3	51		 push	 ecx
  000b4	f3 0f 11 04 24	 movss	 DWORD PTR [esp], xmm0
  000b9	6a 00		 push	 0
  000bb	ff b3 b0 04 00
	00		 push	 DWORD PTR [ebx+1200]
  000c1	8d 95 5c ff ff
	ff		 lea	 edx, DWORD PTR $T524147[ebp]
  000c7	52		 push	 edx
  000c8	ff 90 e0 00 00
	00		 call	 DWORD PTR [eax+224]
  000ce	6a 11		 push	 17			; 00000011H
  000d0	59		 pop	 ecx
  000d1	8b f0		 mov	 esi, eax
  000d3	8d bb e8 04 00
	00		 lea	 edi, DWORD PTR [ebx+1256]
  000d9	f3 a5		 rep movsd
  000db	8d 8d 5c ff ff
	ff		 lea	 ecx, DWORD PTR $T524147[ebp]

; 123  : 	}
; 124  : 	else	//    .

  000e1	e9 fd 02 00 00	 jmp	 $LN77@UpdateWorl
$LN13@UpdateWorl:

; 125  : 	{
; 126  : 		float fLerpRate = 0.0f;
; 127  : 		if( m_dwCreatedTime >= dwCurTime )	//   . 1  .

  000e6	8b 93 d4 04 00
	00		 mov	 edx, DWORD PTR [ebx+1236]
  000ec	3b d1		 cmp	 edx, ecx
  000ee	72 2c		 jb	 SHORT $LN11@UpdateWorl

; 128  : 		{
; 129  : 			fLerpRate = (float)(m_dwLiveTime+dwLooseTime) / (float)( dwFrameEndTime - m_dwCreatedTime );

  000f0	8b 8b d8 04 00
	00		 mov	 ecx, DWORD PTR [ebx+1240]
  000f6	03 cf		 add	 ecx, edi
  000f8	89 8d 54 ff ff
	ff		 mov	 DWORD PTR tv1088[ebp], ecx
  000fe	db 85 54 ff ff
	ff		 fild	 DWORD PTR tv1088[ebp]
  00104	79 06		 jns	 SHORT $LN65@UpdateWorl
  00106	d8 05 00 00 00
	00		 fadd	 DWORD PTR __real@4f800000
$LN65@UpdateWorl:
  0010c	2b c2		 sub	 eax, edx
  0010e	89 85 54 ff ff
	ff		 mov	 DWORD PTR tv1085[ebp], eax
  00114	db 85 54 ff ff
	ff		 fild	 DWORD PTR tv1085[ebp]

; 130  : 		}
; 131  : 		else	//  .

  0011a	eb 24		 jmp	 SHORT $LN79@UpdateWorl
$LN11@UpdateWorl:

; 132  : 		{
; 133  : 			fLerpRate = (float)(dwLiveEndTime - dwCurTime)/(float)( dwFrameEndTime - dwCurTime );

  0011c	2b f1		 sub	 esi, ecx
  0011e	89 b5 54 ff ff
	ff		 mov	 DWORD PTR tv1081[ebp], esi
  00124	db 85 54 ff ff
	ff		 fild	 DWORD PTR tv1081[ebp]
  0012a	79 06		 jns	 SHORT $LN67@UpdateWorl
  0012c	d8 05 00 00 00
	00		 fadd	 DWORD PTR __real@4f800000
$LN67@UpdateWorl:
  00132	2b c1		 sub	 eax, ecx
  00134	89 85 54 ff ff
	ff		 mov	 DWORD PTR tv1077[ebp], eax
  0013a	db 85 54 ff ff
	ff		 fild	 DWORD PTR tv1077[ebp]
$LN79@UpdateWorl:
  00140	79 06		 jns	 SHORT $LN68@UpdateWorl
  00142	d8 05 00 00 00
	00		 fadd	 DWORD PTR __real@4f800000
$LN68@UpdateWorl:
  00148	de f9		 fdivp	 ST(1), ST(0)
  0014a	d9 9d 58 ff ff
	ff		 fstp	 DWORD PTR _fLerpRate$524149[ebp]

; 134  : 		}
; 135  : 
; 136  : 		fLerpRate = max( 0.0f, min( FLOAT1, fLerpRate ) );

  00150	b8 01 00 00 00	 mov	 eax, 1
  00155	89 85 54 ff ff
	ff		 mov	 DWORD PTR tv1072[ebp], eax
  0015b	db 85 54 ff ff
	ff		 fild	 DWORD PTR tv1072[ebp]
  00161	85 c0		 test	 eax, eax
  00163	79 06		 jns	 SHORT $LN69@UpdateWorl
  00165	d8 05 00 00 00
	00		 fadd	 DWORD PTR __real@4f800000
$LN69@UpdateWorl:
  0016b	d9 85 58 ff ff
	ff		 fld	 DWORD PTR _fLerpRate$524149[ebp]
  00171	df f1		 fcomip	 ST(1)
  00173	dd d8		 fstp	 ST(0)
  00175	76 2b		 jbe	 SHORT $LN19@UpdateWorl
  00177	b8 01 00 00 00	 mov	 eax, 1
  0017c	89 85 54 ff ff
	ff		 mov	 DWORD PTR tv1062[ebp], eax
  00182	db 85 54 ff ff
	ff		 fild	 DWORD PTR tv1062[ebp]
  00188	85 c0		 test	 eax, eax
  0018a	79 06		 jns	 SHORT $LN70@UpdateWorl
  0018c	d8 05 00 00 00
	00		 fadd	 DWORD PTR __real@4f800000
$LN70@UpdateWorl:
  00192	d9 9d 54 ff ff
	ff		 fstp	 DWORD PTR tv229[ebp]
  00198	f3 0f 10 85 54
	ff ff ff	 movss	 xmm0, DWORD PTR tv229[ebp]
  001a0	eb 08		 jmp	 SHORT $LN20@UpdateWorl
$LN19@UpdateWorl:
  001a2	f3 0f 10 85 58
	ff ff ff	 movss	 xmm0, DWORD PTR _fLerpRate$524149[ebp]
$LN20@UpdateWorl:
  001aa	0f 57 c9	 xorps	 xmm1, xmm1
  001ad	0f 5a c0	 cvtps2pd xmm0, xmm0
  001b0	66 0f 2f c8	 comisd	 xmm1, xmm0
  001b4	76 0d		 jbe	 SHORT $LN23@UpdateWorl
  001b6	0f 57 c0	 xorps	 xmm0, xmm0
  001b9	f3 0f 11 85 58
	ff ff ff	 movss	 DWORD PTR _fLerpRate$524149[ebp], xmm0
  001c1	eb 48		 jmp	 SHORT $LN21@UpdateWorl
$LN23@UpdateWorl:
  001c3	b8 01 00 00 00	 mov	 eax, 1
  001c8	89 85 54 ff ff
	ff		 mov	 DWORD PTR tv1053[ebp], eax
  001ce	db 85 54 ff ff
	ff		 fild	 DWORD PTR tv1053[ebp]
  001d4	85 c0		 test	 eax, eax
  001d6	79 06		 jns	 SHORT $LN71@UpdateWorl
  001d8	d8 05 00 00 00
	00		 fadd	 DWORD PTR __real@4f800000
$LN71@UpdateWorl:
  001de	d9 85 58 ff ff
	ff		 fld	 DWORD PTR _fLerpRate$524149[ebp]
  001e4	df f1		 fcomip	 ST(1)
  001e6	dd d8		 fstp	 ST(0)
  001e8	76 21		 jbe	 SHORT $LN21@UpdateWorl
  001ea	b8 01 00 00 00	 mov	 eax, 1
  001ef	89 85 54 ff ff
	ff		 mov	 DWORD PTR tv1044[ebp], eax
  001f5	db 85 54 ff ff
	ff		 fild	 DWORD PTR tv1044[ebp]
  001fb	85 c0		 test	 eax, eax
  001fd	79 06		 jns	 SHORT $LN72@UpdateWorl
  001ff	d8 05 00 00 00
	00		 fadd	 DWORD PTR __real@4f800000
$LN72@UpdateWorl:
  00205	d9 9d 58 ff ff
	ff		 fstp	 DWORD PTR _fLerpRate$524149[ebp]
$LN21@UpdateWorl:

; 137  : 
; 138  : 		ioOrientBox kCurAttackBox = pOwner->GetAttackCollisionBox( m_CollisionType );

  0020b	8b 8d 50 ff ff
	ff		 mov	 ecx, DWORD PTR _pOwner$[ebp]
  00211	f3 0f 10 05 00
	00 00 00	 movss	 xmm0, DWORD PTR __real@3f800000
  00219	8b 01		 mov	 eax, DWORD PTR [ecx]
  0021b	51		 push	 ecx
  0021c	f3 0f 11 04 24	 movss	 DWORD PTR [esp], xmm0
  00221	33 ff		 xor	 edi, edi
  00223	57		 push	 edi
  00224	ff b3 b0 04 00
	00		 push	 DWORD PTR [ebx+1200]
  0022a	8d 55 a0	 lea	 edx, DWORD PTR _kCurAttackBox$524160[ebp]
  0022d	52		 push	 edx
  0022e	ff 90 e0 00 00
	00		 call	 DWORD PTR [eax+224]
  00234	89 7d fc	 mov	 DWORD PTR __$EHRec$[ebp+8], edi
$LL9@UpdateWorl:

; 139  : 
; 140  : 		for( int i=0 ; i<3 ; i++ )
; 141  : 		{
; 142  : 			D3DXVec3Lerp( &vAxis, &m_PreAttackBox.GetAxis(i), &kCurAttackBox.GetAxis(i), fLerpRate );

  00237	57		 push	 edi
  00238	8d 4d a0	 lea	 ecx, DWORD PTR _kCurAttackBox$524160[ebp]
  0023b	ff 15 00 00 00
	00		 call	 DWORD PTR __imp_?GetAxis@ioOrientBox@@QBEABUD3DXVECTOR3@@H@Z
  00241	57		 push	 edi
  00242	8d 8b 94 08 00
	00		 lea	 ecx, DWORD PTR [ebx+2196]
  00248	8b f0		 mov	 esi, eax
  0024a	ff 15 00 00 00
	00		 call	 DWORD PTR __imp_?GetAxis@ioOrientBox@@QBEABUD3DXVECTOR3@@H@Z
  00250	f3 0f 10 00	 movss	 xmm0, DWORD PTR [eax]
  00254	f3 0f 10 0e	 movss	 xmm1, DWORD PTR [esi]
  00258	0f 5a d0	 cvtps2pd xmm2, xmm0
  0025b	0f 5a c9	 cvtps2pd xmm1, xmm1
  0025e	f2 0f 5c ca	 subsd	 xmm1, xmm2
  00262	f3 0f 10 95 58
	ff ff ff	 movss	 xmm2, DWORD PTR _fLerpRate$524149[ebp]
  0026a	0f 5a c0	 cvtps2pd xmm0, xmm0
  0026d	0f 5a d2	 cvtps2pd xmm2, xmm2
  00270	f2 0f 59 ca	 mulsd	 xmm1, xmm2
  00274	f2 0f 58 c8	 addsd	 xmm1, xmm0
  00278	0f 57 c0	 xorps	 xmm0, xmm0
  0027b	66 0f 5a c1	 cvtpd2ps xmm0, xmm1
  0027f	f3 0f 11 45 e4	 movss	 DWORD PTR _vAxis$[ebp], xmm0
  00284	f3 0f 10 40 04	 movss	 xmm0, DWORD PTR [eax+4]
  00289	f3 0f 10 4e 04	 movss	 xmm1, DWORD PTR [esi+4]
  0028e	0f 5a d0	 cvtps2pd xmm2, xmm0
  00291	0f 5a c9	 cvtps2pd xmm1, xmm1
  00294	f2 0f 5c ca	 subsd	 xmm1, xmm2
  00298	f3 0f 10 95 58
	ff ff ff	 movss	 xmm2, DWORD PTR _fLerpRate$524149[ebp]
  002a0	0f 5a c0	 cvtps2pd xmm0, xmm0
  002a3	0f 5a d2	 cvtps2pd xmm2, xmm2
  002a6	f2 0f 59 ca	 mulsd	 xmm1, xmm2
  002aa	f2 0f 58 c8	 addsd	 xmm1, xmm0
  002ae	0f 57 c0	 xorps	 xmm0, xmm0
  002b1	66 0f 5a c1	 cvtpd2ps xmm0, xmm1
  002b5	f3 0f 11 45 e8	 movss	 DWORD PTR _vAxis$[ebp+4], xmm0
  002ba	f3 0f 10 40 08	 movss	 xmm0, DWORD PTR [eax+8]
  002bf	f3 0f 10 4e 08	 movss	 xmm1, DWORD PTR [esi+8]
  002c4	0f 5a d0	 cvtps2pd xmm2, xmm0
  002c7	0f 5a c9	 cvtps2pd xmm1, xmm1
  002ca	f2 0f 5c ca	 subsd	 xmm1, xmm2
  002ce	f3 0f 10 95 58
	ff ff ff	 movss	 xmm2, DWORD PTR _fLerpRate$524149[ebp]
  002d6	0f 5a c0	 cvtps2pd xmm0, xmm0

; 143  : 			D3DXVec3Normalize( &vAxis, &vAxis );

  002d9	8d 45 e4	 lea	 eax, DWORD PTR _vAxis$[ebp]
  002dc	0f 5a d2	 cvtps2pd xmm2, xmm2
  002df	f2 0f 59 ca	 mulsd	 xmm1, xmm2
  002e3	f2 0f 58 c8	 addsd	 xmm1, xmm0
  002e7	50		 push	 eax
  002e8	0f 57 c0	 xorps	 xmm0, xmm0
  002eb	66 0f 5a c1	 cvtpd2ps xmm0, xmm1
  002ef	50		 push	 eax
  002f0	f3 0f 11 45 ec	 movss	 DWORD PTR _vAxis$[ebp+8], xmm0
  002f5	e8 00 00 00 00	 call	 _D3DXVec3Normalize@8

; 144  : 			m_WorldAttackBox.SetAxis( i, vAxis );

  002fa	8d 45 e4	 lea	 eax, DWORD PTR _vAxis$[ebp]
  002fd	50		 push	 eax
  002fe	57		 push	 edi
  002ff	8d 8b e8 04 00
	00		 lea	 ecx, DWORD PTR [ebx+1256]
  00305	ff 15 00 00 00
	00		 call	 DWORD PTR __imp_?SetAxis@ioOrientBox@@QAEXHABUD3DXVECTOR3@@@Z
  0030b	47		 inc	 edi
  0030c	83 ff 03	 cmp	 edi, 3
  0030f	0f 8c 22 ff ff
	ff		 jl	 $LL9@UpdateWorl

; 145  : 		}
; 146  : 
; 147  : 		D3DXVec3Lerp( &vAxis, &m_PreAttackBox.GetCenter(), &kCurAttackBox.GetCenter(), fLerpRate );

  00315	8d 4d a0	 lea	 ecx, DWORD PTR _kCurAttackBox$524160[ebp]
  00318	ff 15 00 00 00
	00		 call	 DWORD PTR __imp_?GetCenter@ioOrientBox@@QBEABUD3DXVECTOR3@@XZ
  0031e	8d 8b 94 08 00
	00		 lea	 ecx, DWORD PTR [ebx+2196]
  00324	8b f0		 mov	 esi, eax
  00326	ff 15 00 00 00
	00		 call	 DWORD PTR __imp_?GetCenter@ioOrientBox@@QBEABUD3DXVECTOR3@@XZ
  0032c	f3 0f 10 00	 movss	 xmm0, DWORD PTR [eax]
  00330	f3 0f 10 0e	 movss	 xmm1, DWORD PTR [esi]
  00334	0f 5a d0	 cvtps2pd xmm2, xmm0
  00337	0f 5a c9	 cvtps2pd xmm1, xmm1
  0033a	f2 0f 5c ca	 subsd	 xmm1, xmm2
  0033e	f3 0f 10 95 58
	ff ff ff	 movss	 xmm2, DWORD PTR _fLerpRate$524149[ebp]
  00346	0f 5a c0	 cvtps2pd xmm0, xmm0
  00349	0f 5a d2	 cvtps2pd xmm2, xmm2
  0034c	f2 0f 59 ca	 mulsd	 xmm1, xmm2
  00350	f2 0f 58 c8	 addsd	 xmm1, xmm0
  00354	0f 57 c0	 xorps	 xmm0, xmm0
  00357	66 0f 5a c1	 cvtpd2ps xmm0, xmm1
  0035b	f3 0f 11 45 e4	 movss	 DWORD PTR _vAxis$[ebp], xmm0
  00360	f3 0f 10 40 04	 movss	 xmm0, DWORD PTR [eax+4]
  00365	f3 0f 10 4e 04	 movss	 xmm1, DWORD PTR [esi+4]
  0036a	0f 5a d0	 cvtps2pd xmm2, xmm0
  0036d	0f 5a c9	 cvtps2pd xmm1, xmm1
  00370	f2 0f 5c ca	 subsd	 xmm1, xmm2
  00374	f3 0f 10 95 58
	ff ff ff	 movss	 xmm2, DWORD PTR _fLerpRate$524149[ebp]
  0037c	0f 5a c0	 cvtps2pd xmm0, xmm0
  0037f	0f 5a d2	 cvtps2pd xmm2, xmm2
  00382	f2 0f 59 ca	 mulsd	 xmm1, xmm2
  00386	f2 0f 58 c8	 addsd	 xmm1, xmm0
  0038a	0f 57 c0	 xorps	 xmm0, xmm0
  0038d	66 0f 5a c1	 cvtpd2ps xmm0, xmm1
  00391	f3 0f 11 45 e8	 movss	 DWORD PTR _vAxis$[ebp+4], xmm0
  00396	f3 0f 10 40 08	 movss	 xmm0, DWORD PTR [eax+8]
  0039b	f3 0f 10 4e 08	 movss	 xmm1, DWORD PTR [esi+8]
  003a0	0f 5a d0	 cvtps2pd xmm2, xmm0
  003a3	0f 5a c9	 cvtps2pd xmm1, xmm1
  003a6	f2 0f 5c ca	 subsd	 xmm1, xmm2
  003aa	f3 0f 10 95 58
	ff ff ff	 movss	 xmm2, DWORD PTR _fLerpRate$524149[ebp]
  003b2	0f 5a c0	 cvtps2pd xmm0, xmm0
  003b5	0f 5a d2	 cvtps2pd xmm2, xmm2
  003b8	f2 0f 59 ca	 mulsd	 xmm1, xmm2
  003bc	f2 0f 58 c8	 addsd	 xmm1, xmm0

; 148  : 		m_WorldAttackBox.SetCenter( vAxis );

  003c0	8d 45 e4	 lea	 eax, DWORD PTR _vAxis$[ebp]
  003c3	0f 57 c0	 xorps	 xmm0, xmm0
  003c6	66 0f 5a c1	 cvtpd2ps xmm0, xmm1
  003ca	50		 push	 eax
  003cb	8d 8b e8 04 00
	00		 lea	 ecx, DWORD PTR [ebx+1256]
  003d1	f3 0f 11 45 ec	 movss	 DWORD PTR _vAxis$[ebp+8], xmm0
  003d6	ff 15 00 00 00
	00		 call	 DWORD PTR __imp_?SetCenter@ioOrientBox@@QAEXABUD3DXVECTOR3@@@Z

; 149  : 	}

  003dc	83 4d fc ff	 or	 DWORD PTR __$EHRec$[ebp+8], -1
  003e0	8d 4d a0	 lea	 ecx, DWORD PTR _kCurAttackBox$524160[ebp]
$LN77@UpdateWorl:
  003e3	ff 15 00 00 00
	00		 call	 DWORD PTR __imp_??1ioOrientBox@@QAE@XZ

; 150  : 
; 151  : 	for( int i=0 ; i<3 ; i++ )

  003e9	33 f6		 xor	 esi, esi
$LL6@UpdateWorl:

; 152  : 	{
; 153  : 		D3DXVec3Lerp( &vAxis, &m_PreAttackBox.GetAxis(i), &m_WorldAttackBox.GetAxis(i), FLOAT05 );

  003eb	b8 05 00 00 00	 mov	 eax, 5
  003f0	8b c8		 mov	 ecx, eax
  003f2	b8 0a 00 00 00	 mov	 eax, 10			; 0000000aH
  003f7	89 8d 54 ff ff
	ff		 mov	 DWORD PTR tv993[ebp], ecx
  003fd	db 85 54 ff ff
	ff		 fild	 DWORD PTR tv993[ebp]
  00403	85 c9		 test	 ecx, ecx
  00405	79 06		 jns	 SHORT $LN73@UpdateWorl
  00407	d8 05 00 00 00
	00		 fadd	 DWORD PTR __real@4f800000
$LN73@UpdateWorl:
  0040d	89 85 54 ff ff
	ff		 mov	 DWORD PTR tv988[ebp], eax
  00413	db 85 54 ff ff
	ff		 fild	 DWORD PTR tv988[ebp]
  00419	85 c0		 test	 eax, eax
  0041b	79 06		 jns	 SHORT $LN74@UpdateWorl
  0041d	d8 05 00 00 00
	00		 fadd	 DWORD PTR __real@4f800000
$LN74@UpdateWorl:
  00423	de f9		 fdivp	 ST(1), ST(0)
  00425	56		 push	 esi
  00426	8d 8b e8 04 00
	00		 lea	 ecx, DWORD PTR [ebx+1256]
  0042c	d9 9d 54 ff ff
	ff		 fstp	 DWORD PTR tv984[ebp]
  00432	d9 85 54 ff ff
	ff		 fld	 DWORD PTR tv984[ebp]
  00438	d9 9d 58 ff ff
	ff		 fstp	 DWORD PTR $T525354[ebp]
  0043e	ff 15 00 00 00
	00		 call	 DWORD PTR __imp_?GetAxis@ioOrientBox@@QBEABUD3DXVECTOR3@@H@Z
  00444	56		 push	 esi
  00445	8d 8b 94 08 00
	00		 lea	 ecx, DWORD PTR [ebx+2196]
  0044b	8b f8		 mov	 edi, eax
  0044d	ff 15 00 00 00
	00		 call	 DWORD PTR __imp_?GetAxis@ioOrientBox@@QBEABUD3DXVECTOR3@@H@Z
  00453	f3 0f 10 00	 movss	 xmm0, DWORD PTR [eax]
  00457	f3 0f 10 0f	 movss	 xmm1, DWORD PTR [edi]
  0045b	0f 5a d0	 cvtps2pd xmm2, xmm0
  0045e	0f 5a c9	 cvtps2pd xmm1, xmm1
  00461	f2 0f 5c ca	 subsd	 xmm1, xmm2
  00465	f3 0f 10 95 58
	ff ff ff	 movss	 xmm2, DWORD PTR $T525354[ebp]
  0046d	0f 5a c0	 cvtps2pd xmm0, xmm0
  00470	0f 5a d2	 cvtps2pd xmm2, xmm2
  00473	f2 0f 59 ca	 mulsd	 xmm1, xmm2
  00477	f2 0f 58 c8	 addsd	 xmm1, xmm0
  0047b	0f 57 c0	 xorps	 xmm0, xmm0
  0047e	66 0f 5a c1	 cvtpd2ps xmm0, xmm1
  00482	f3 0f 11 45 e4	 movss	 DWORD PTR _vAxis$[ebp], xmm0
  00487	f3 0f 10 40 04	 movss	 xmm0, DWORD PTR [eax+4]
  0048c	f3 0f 10 4f 04	 movss	 xmm1, DWORD PTR [edi+4]
  00491	0f 5a d0	 cvtps2pd xmm2, xmm0
  00494	0f 5a c9	 cvtps2pd xmm1, xmm1
  00497	f2 0f 5c ca	 subsd	 xmm1, xmm2
  0049b	f3 0f 10 95 58
	ff ff ff	 movss	 xmm2, DWORD PTR $T525354[ebp]
  004a3	0f 5a c0	 cvtps2pd xmm0, xmm0
  004a6	0f 5a d2	 cvtps2pd xmm2, xmm2
  004a9	f2 0f 59 ca	 mulsd	 xmm1, xmm2
  004ad	f2 0f 58 c8	 addsd	 xmm1, xmm0
  004b1	0f 57 c0	 xorps	 xmm0, xmm0
  004b4	66 0f 5a c1	 cvtpd2ps xmm0, xmm1
  004b8	f3 0f 11 45 e8	 movss	 DWORD PTR _vAxis$[ebp+4], xmm0
  004bd	f3 0f 10 40 08	 movss	 xmm0, DWORD PTR [eax+8]
  004c2	f3 0f 10 4f 08	 movss	 xmm1, DWORD PTR [edi+8]
  004c7	0f 5a d0	 cvtps2pd xmm2, xmm0
  004ca	0f 5a c9	 cvtps2pd xmm1, xmm1
  004cd	f2 0f 5c ca	 subsd	 xmm1, xmm2
  004d1	f3 0f 10 95 58
	ff ff ff	 movss	 xmm2, DWORD PTR $T525354[ebp]
  004d9	0f 5a c0	 cvtps2pd xmm0, xmm0

; 154  : 		D3DXVec3Normalize( &vAxis, &vAxis );

  004dc	8d 45 e4	 lea	 eax, DWORD PTR _vAxis$[ebp]
  004df	0f 5a d2	 cvtps2pd xmm2, xmm2
  004e2	f2 0f 59 ca	 mulsd	 xmm1, xmm2
  004e6	f2 0f 58 c8	 addsd	 xmm1, xmm0
  004ea	50		 push	 eax
  004eb	0f 57 c0	 xorps	 xmm0, xmm0
  004ee	66 0f 5a c1	 cvtpd2ps xmm0, xmm1
  004f2	50		 push	 eax
  004f3	f3 0f 11 45 ec	 movss	 DWORD PTR _vAxis$[ebp+8], xmm0
  004f8	e8 00 00 00 00	 call	 _D3DXVec3Normalize@8

; 155  : 		m_MidAttackBox.SetAxis( i, vAxis );

  004fd	8d 45 e4	 lea	 eax, DWORD PTR _vAxis$[ebp]
  00500	50		 push	 eax
  00501	56		 push	 esi
  00502	8d 8b d8 08 00
	00		 lea	 ecx, DWORD PTR [ebx+2264]
  00508	ff 15 00 00 00
	00		 call	 DWORD PTR __imp_?SetAxis@ioOrientBox@@QAEXHABUD3DXVECTOR3@@@Z

; 156  : 		m_MidAttackBox.SetExtents( i, m_WorldAttackBox.GetExtents(i) );

  0050e	56		 push	 esi
  0050f	8d 8b e8 04 00
	00		 lea	 ecx, DWORD PTR [ebx+1256]
  00515	ff 15 00 00 00
	00		 call	 DWORD PTR __imp_?GetExtents@ioOrientBox@@QBEMH@Z
  0051b	51		 push	 ecx
  0051c	d9 1c 24	 fstp	 DWORD PTR [esp]
  0051f	56		 push	 esi
  00520	8d 8b d8 08 00
	00		 lea	 ecx, DWORD PTR [ebx+2264]
  00526	ff 15 00 00 00
	00		 call	 DWORD PTR __imp_?SetExtents@ioOrientBox@@QAEXHM@Z
  0052c	46		 inc	 esi
  0052d	83 fe 03	 cmp	 esi, 3
  00530	0f 8c b5 fe ff
	ff		 jl	 $LL6@UpdateWorl

; 157  : 	}
; 158  : 
; 159  : 	D3DXVec3Lerp( &vAxis, &m_PreAttackBox.GetCenter(), &m_WorldAttackBox.GetCenter(), FLOAT05 );

  00536	b8 05 00 00 00	 mov	 eax, 5
  0053b	8b c8		 mov	 ecx, eax
  0053d	b8 0a 00 00 00	 mov	 eax, 10			; 0000000aH
  00542	89 8d 54 ff ff
	ff		 mov	 DWORD PTR tv954[ebp], ecx
  00548	db 85 54 ff ff
	ff		 fild	 DWORD PTR tv954[ebp]
  0054e	85 c9		 test	 ecx, ecx
  00550	79 06		 jns	 SHORT $LN75@UpdateWorl
  00552	d8 05 00 00 00
	00		 fadd	 DWORD PTR __real@4f800000
$LN75@UpdateWorl:
  00558	89 85 54 ff ff
	ff		 mov	 DWORD PTR tv950[ebp], eax
  0055e	db 85 54 ff ff
	ff		 fild	 DWORD PTR tv950[ebp]
  00564	85 c0		 test	 eax, eax
  00566	79 06		 jns	 SHORT $LN76@UpdateWorl
  00568	d8 05 00 00 00
	00		 fadd	 DWORD PTR __real@4f800000
$LN76@UpdateWorl:
  0056e	de f9		 fdivp	 ST(1), ST(0)
  00570	8d b3 e8 04 00
	00		 lea	 esi, DWORD PTR [ebx+1256]
  00576	8b ce		 mov	 ecx, esi
  00578	d9 9d 54 ff ff
	ff		 fstp	 DWORD PTR tv946[ebp]
  0057e	d9 85 54 ff ff
	ff		 fld	 DWORD PTR tv946[ebp]
  00584	d9 9d 58 ff ff
	ff		 fstp	 DWORD PTR $T525368[ebp]
  0058a	ff 15 00 00 00
	00		 call	 DWORD PTR __imp_?GetCenter@ioOrientBox@@QBEABUD3DXVECTOR3@@XZ
  00590	8d 8b 94 08 00
	00		 lea	 ecx, DWORD PTR [ebx+2196]
  00596	8b f8		 mov	 edi, eax
  00598	ff 15 00 00 00
	00		 call	 DWORD PTR __imp_?GetCenter@ioOrientBox@@QBEABUD3DXVECTOR3@@XZ
  0059e	f3 0f 10 00	 movss	 xmm0, DWORD PTR [eax]
  005a2	f3 0f 10 0f	 movss	 xmm1, DWORD PTR [edi]
  005a6	0f 5a d0	 cvtps2pd xmm2, xmm0
  005a9	0f 5a c9	 cvtps2pd xmm1, xmm1
  005ac	f2 0f 5c ca	 subsd	 xmm1, xmm2
  005b0	f3 0f 10 95 58
	ff ff ff	 movss	 xmm2, DWORD PTR $T525368[ebp]
  005b8	0f 5a c0	 cvtps2pd xmm0, xmm0
  005bb	0f 5a d2	 cvtps2pd xmm2, xmm2
  005be	f2 0f 59 ca	 mulsd	 xmm1, xmm2
  005c2	f2 0f 58 c8	 addsd	 xmm1, xmm0
  005c6	0f 57 c0	 xorps	 xmm0, xmm0
  005c9	66 0f 5a c1	 cvtpd2ps xmm0, xmm1
  005cd	f3 0f 11 45 e4	 movss	 DWORD PTR _vAxis$[ebp], xmm0
  005d2	f3 0f 10 40 04	 movss	 xmm0, DWORD PTR [eax+4]
  005d7	f3 0f 10 4f 04	 movss	 xmm1, DWORD PTR [edi+4]
  005dc	0f 5a d0	 cvtps2pd xmm2, xmm0
  005df	0f 5a c9	 cvtps2pd xmm1, xmm1
  005e2	f2 0f 5c ca	 subsd	 xmm1, xmm2
  005e6	f3 0f 10 95 58
	ff ff ff	 movss	 xmm2, DWORD PTR $T525368[ebp]
  005ee	0f 5a c0	 cvtps2pd xmm0, xmm0
  005f1	0f 5a d2	 cvtps2pd xmm2, xmm2
  005f4	f2 0f 59 ca	 mulsd	 xmm1, xmm2
  005f8	f2 0f 58 c8	 addsd	 xmm1, xmm0
  005fc	0f 57 c0	 xorps	 xmm0, xmm0
  005ff	66 0f 5a c1	 cvtpd2ps xmm0, xmm1
  00603	f3 0f 11 45 e8	 movss	 DWORD PTR _vAxis$[ebp+4], xmm0
  00608	f3 0f 10 40 08	 movss	 xmm0, DWORD PTR [eax+8]
  0060d	f3 0f 10 4f 08	 movss	 xmm1, DWORD PTR [edi+8]
  00612	0f 5a d0	 cvtps2pd xmm2, xmm0
  00615	0f 5a c9	 cvtps2pd xmm1, xmm1
  00618	f2 0f 5c ca	 subsd	 xmm1, xmm2
  0061c	f3 0f 10 95 58
	ff ff ff	 movss	 xmm2, DWORD PTR $T525368[ebp]
  00624	0f 5a c0	 cvtps2pd xmm0, xmm0
  00627	0f 5a d2	 cvtps2pd xmm2, xmm2
  0062a	f2 0f 59 ca	 mulsd	 xmm1, xmm2

; 160  : 	m_MidAttackBox.SetCenter( vAxis );

  0062e	8d 45 e4	 lea	 eax, DWORD PTR _vAxis$[ebp]
  00631	f2 0f 58 c8	 addsd	 xmm1, xmm0
  00635	50		 push	 eax
  00636	66 0f 5a c1	 cvtpd2ps xmm0, xmm1
  0063a	8d 8b d8 08 00
	00		 lea	 ecx, DWORD PTR [ebx+2264]
  00640	f3 0f 11 45 ec	 movss	 DWORD PTR _vAxis$[ebp+8], xmm0
  00645	ff 15 00 00 00
	00		 call	 DWORD PTR __imp_?SetCenter@ioOrientBox@@QAEXABUD3DXVECTOR3@@@Z

; 161  : 
; 162  : 	if( m_UpdateState == CONTACT_CREATED )

  0064b	33 c9		 xor	 ecx, ecx
  0064d	39 8b 20 09 00
	00		 cmp	 DWORD PTR [ebx+2336], ecx

; 163  : 		m_UpdateState = CONTACT_FIRST;
; 164  : 	else
; 165  : 		m_UpdateState = CONTACT_NORMAL;
; 166  : 
; 167  : 	m_WorldAttackBoxForMap = m_WorldAttackBox;

  00653	6a 11		 push	 17			; 00000011H
  00655	0f 95 c1	 setne	 cl
  00658	8d bb 2c 05 00
	00		 lea	 edi, DWORD PTR [ebx+1324]
  0065e	41		 inc	 ecx
  0065f	89 8b 20 09 00
	00		 mov	 DWORD PTR [ebx+2336], ecx
  00665	59		 pop	 ecx
  00666	f3 a5		 rep movsd

; 168  : 
; 169  : 	SetPosition( m_WorldAttackBox.GetCenter() );

  00668	8d 8b e8 04 00
	00		 lea	 ecx, DWORD PTR [ebx+1256]
  0066e	ff 15 00 00 00
	00		 call	 DWORD PTR __imp_?GetCenter@ioOrientBox@@QBEABUD3DXVECTOR3@@XZ
  00674	50		 push	 eax
  00675	8b cb		 mov	 ecx, ebx
  00677	e8 00 00 00 00	 call	 ?SetPosition@ioWeapon@@QAEXABUD3DXVECTOR3@@@Z ; ioWeapon::SetPosition

; 170  : 
; 171  : 	if( m_bFirstCheck )

  0067c	80 bb 1c 09 00
	00 00		 cmp	 BYTE PTR [ebx+2332], 0
  00683	74 2f		 je	 SHORT $LN1@UpdateWorl

; 172  : 	{
; 173  : 		m_bFirstCheck = false;

  00685	c6 83 1c 09 00
	00 00		 mov	 BYTE PTR [ebx+2332], 0
  0068c	eb 26		 jmp	 SHORT $LN1@UpdateWorl
$LN15@UpdateWorl:

; 99   : 	{
; 100  : 		m_PreAttackBox.SetNull();

  0068e	8b 35 00 00 00
	00		 mov	 esi, DWORD PTR __imp_?SetNull@ioOrientBox@@QAEXXZ
  00694	8d 8b 94 08 00
	00		 lea	 ecx, DWORD PTR [ebx+2196]
  0069a	ff d6		 call	 esi

; 101  : 		m_MidAttackBox.SetNull();

  0069c	8d 8b d8 08 00
	00		 lea	 ecx, DWORD PTR [ebx+2264]
  006a2	ff d6		 call	 esi

; 102  : 		m_WorldAttackBox.SetNull();

  006a4	8d 8b e8 04 00
	00		 lea	 ecx, DWORD PTR [ebx+1256]
  006aa	ff d6		 call	 esi

; 103  : 		m_WorldAttackBoxForMap.SetNull();

  006ac	8d 8b 2c 05 00
	00		 lea	 ecx, DWORD PTR [ebx+1324]
  006b2	ff d6		 call	 esi
$LN1@UpdateWorl:

; 174  : 	}
; 175  : }

  006b4	e8 00 00 00 00	 call	 __EH_epilog3_GS
  006b9	c2 08 00	 ret	 8
_TEXT	ENDS
;	COMDAT text$x
text$x	SEGMENT
__unwindfunclet$?UpdateWorldAttackBox@ioRunContactWeapon@@MAEXM_N@Z$1:
  00000	8d 4d a0	 lea	 ecx, DWORD PTR _kCurAttackBox$524160[ebp]
  00003	ff 25 00 00 00
	00		 jmp	 DWORD PTR __imp_??1ioOrientBox@@QAE@XZ
__ehhandler$?UpdateWorldAttackBox@ioRunContactWeapon@@MAEXM_N@Z:
  00009	8b 54 24 08	 mov	 edx, DWORD PTR [esp+8]
  0000d	8d 42 0c	 lea	 eax, DWORD PTR [edx+12]
  00010	8b 8a 4c ff ff
	ff		 mov	 ecx, DWORD PTR [edx-180]
  00016	33 c8		 xor	 ecx, eax
  00018	e8 00 00 00 00	 call	 @__security_check_cookie@4
  0001d	8b 4a fc	 mov	 ecx, DWORD PTR [edx-4]
  00020	33 c8		 xor	 ecx, eax
  00022	e8 00 00 00 00	 call	 @__security_check_cookie@4
  00027	b8 00 00 00 00	 mov	 eax, OFFSET __ehfuncinfo$?UpdateWorldAttackBox@ioRunContactWeapon@@MAEXM_N@Z
  0002c	e9 00 00 00 00	 jmp	 ___CxxFrameHandler3
text$x	ENDS
?UpdateWorldAttackBox@ioRunContactWeapon@@MAEXM_N@Z ENDP ; ioRunContactWeapon::UpdateWorldAttackBox
PUBLIC	__$ArrayPad$
EXTRN	__imp_??D@YA?AUD3DXVECTOR3@@ABUD3DXQUATERNION@@ABU0@@Z:PROC
EXTRN	?HasFeature@ioWeapon@@QBE_NK@Z:PROC		; ioWeapon::HasFeature
; Function compile flags: /Ogsp
;	COMDAT ?GetAttackDir@ioRunContactWeapon@@UBE?AUD3DXVECTOR3@@PBVioPlayEntity@@@Z
_TEXT	SEGMENT
tv303 = -32						; size = 4
tv268 = -32						; size = 4
$T524189 = -28						; size = 12
_vMoveDir$524193 = -16					; size = 12
_vMoveDir$524187 = -16					; size = 12
__$ArrayPad$ = -4					; size = 4
___$ReturnUdt$ = 8					; size = 4
_pEntity$ = 12						; size = 4
?GetAttackDir@ioRunContactWeapon@@UBE?AUD3DXVECTOR3@@PBVioPlayEntity@@@Z PROC ; ioRunContactWeapon::GetAttackDir, COMDAT
; _this$ = ecx

; 178  : {

  00000	55		 push	 ebp
  00001	8b ec		 mov	 ebp, esp
  00003	83 ec 20	 sub	 esp, 32			; 00000020H
  00006	a1 00 00 00 00	 mov	 eax, DWORD PTR ___security_cookie
  0000b	33 c5		 xor	 eax, ebp
  0000d	89 45 fc	 mov	 DWORD PTR __$ArrayPad$[ebp], eax
  00010	53		 push	 ebx
  00011	8b 5d 08	 mov	 ebx, DWORD PTR ___$ReturnUdt$[ebp]
  00014	56		 push	 esi
  00015	57		 push	 edi
  00016	8b 7d 0c	 mov	 edi, DWORD PTR _pEntity$[ebp]

; 179  : 	if( HasFeature( WF_ATTACK_DIRECTION_STRAIGHT ))

  00019	6a 04		 push	 4
  0001b	8b f1		 mov	 esi, ecx
  0001d	e8 00 00 00 00	 call	 ?HasFeature@ioWeapon@@QBE_NK@Z ; ioWeapon::HasFeature
  00022	84 c0		 test	 al, al
  00024	74 64		 je	 SHORT $LN4@GetAttackD

; 180  : 	{
; 181  : 		ioBaseChar *pOwner = GetOwner();

  00026	8b ce		 mov	 ecx, esi
  00028	e8 00 00 00 00	 call	 ?GetOwner@ioWeapon@@QBEPAVioBaseChar@@XZ ; ioWeapon::GetOwner
  0002d	8b c8		 mov	 ecx, eax

; 182  : 		if( pOwner )

  0002f	85 c9		 test	 ecx, ecx
  00031	0f 84 ae 00 00
	00		 je	 $LN1@GetAttackD

; 183  : 		{
; 184  : 			D3DXVECTOR3	vMoveDir = pOwner->GetTargetRot() * D3DXVECTOR3( 0.0f, 0.0f, -FLOAT1 );

  00037	b8 01 00 00 00	 mov	 eax, 1
  0003c	0f 57 c0	 xorps	 xmm0, xmm0
  0003f	89 45 e0	 mov	 DWORD PTR tv303[ebp], eax
  00042	db 45 e0	 fild	 DWORD PTR tv303[ebp]
  00045	f3 0f 11 45 e4	 movss	 DWORD PTR $T524189[ebp], xmm0
  0004a	f3 0f 11 45 e8	 movss	 DWORD PTR $T524189[ebp+4], xmm0
  0004f	85 c0		 test	 eax, eax
  00051	79 06		 jns	 SHORT $LN21@GetAttackD
  00053	d8 05 00 00 00
	00		 fadd	 DWORD PTR __real@4f800000
$LN21@GetAttackD:
  00059	8d 45 e4	 lea	 eax, DWORD PTR $T524189[ebp]
  0005c	d9 e0		 fchs
  0005e	50		 push	 eax
  0005f	d9 5d ec	 fstp	 DWORD PTR $T524189[ebp+8]
  00062	81 c1 a4 06 00
	00		 add	 ecx, 1700		; 000006a4H
  00068	51		 push	 ecx
  00069	8d 45 f0	 lea	 eax, DWORD PTR _vMoveDir$524187[ebp]
  0006c	50		 push	 eax
  0006d	ff 15 00 00 00
	00		 call	 DWORD PTR __imp_??D@YA?AUD3DXVECTOR3@@ABUD3DXQUATERNION@@ABU0@@Z
  00073	83 c4 0c	 add	 esp, 12			; 0000000cH
$LN24@GetAttackD:

; 185  : 			D3DXVec3Normalize(&vMoveDir,&vMoveDir);

  00076	8d 45 f0	 lea	 eax, DWORD PTR _vMoveDir$524187[ebp]
  00079	50		 push	 eax
  0007a	50		 push	 eax
  0007b	e8 00 00 00 00	 call	 _D3DXVec3Normalize@8

; 186  : 			return vMoveDir;

  00080	8d 75 f0	 lea	 esi, DWORD PTR _vMoveDir$524187[ebp]
  00083	8b fb		 mov	 edi, ebx
  00085	a5		 movsd
  00086	a5		 movsd
  00087	a5		 movsd
  00088	eb 7f		 jmp	 SHORT $LN23@GetAttackD
$LN4@GetAttackD:

; 187  : 		}
; 188  : 	}
; 189  : 	else
; 190  : 	{
; 191  : 		if( pEntity )

  0008a	85 ff		 test	 edi, edi
  0008c	74 57		 je	 SHORT $LN1@GetAttackD

; 192  : 		{
; 193  : 			D3DXVECTOR3 vMoveDir = pEntity->GetWorldPosition() - m_WorldAttackBox.GetCenter();

  0008e	8d 8e e8 04 00
	00		 lea	 ecx, DWORD PTR [esi+1256]
  00094	ff 15 00 00 00
	00		 call	 DWORD PTR __imp_?GetCenter@ioOrientBox@@QBEABUD3DXVECTOR3@@XZ
  0009a	8b f0		 mov	 esi, eax
  0009c	8b 07		 mov	 eax, DWORD PTR [edi]
  0009e	8b cf		 mov	 ecx, edi
  000a0	ff 50 70	 call	 DWORD PTR [eax+112]
  000a3	f3 0f 10 40 08	 movss	 xmm0, DWORD PTR [eax+8]
  000a8	f3 0f 10 4e 08	 movss	 xmm1, DWORD PTR [esi+8]
  000ad	f3 0f 10 16	 movss	 xmm2, DWORD PTR [esi]
  000b1	0f 5a c9	 cvtps2pd xmm1, xmm1
  000b4	0f 5a c0	 cvtps2pd xmm0, xmm0
  000b7	f2 0f 5c c1	 subsd	 xmm0, xmm1
  000bb	f3 0f 10 08	 movss	 xmm1, DWORD PTR [eax]
  000bf	66 0f 5a c0	 cvtpd2ps xmm0, xmm0
  000c3	0f 5a c9	 cvtps2pd xmm1, xmm1
  000c6	0f 5a d2	 cvtps2pd xmm2, xmm2
  000c9	f2 0f 5c ca	 subsd	 xmm1, xmm2
  000cd	f3 0f 11 45 f8	 movss	 DWORD PTR _vMoveDir$524193[ebp+8], xmm0

; 194  : 			vMoveDir.y = 0.0f;

  000d2	0f 57 c0	 xorps	 xmm0, xmm0
  000d5	66 0f 5a c9	 cvtpd2ps xmm1, xmm1
  000d9	f3 0f 11 4d f0	 movss	 DWORD PTR _vMoveDir$524193[ebp], xmm1
  000de	f3 0f 11 45 f4	 movss	 DWORD PTR _vMoveDir$524193[ebp+4], xmm0

; 195  : 			D3DXVec3Normalize( &vMoveDir, &vMoveDir );
; 196  : 			return vMoveDir;

  000e3	eb 91		 jmp	 SHORT $LN24@GetAttackD
$LN1@GetAttackD:

; 197  : 		}		
; 198  : 	}
; 199  : 
; 200  : 	return D3DXVECTOR3( 0.0f, FLOAT1, 0.0f );

  000e5	b8 01 00 00 00	 mov	 eax, 1
  000ea	0f 57 c0	 xorps	 xmm0, xmm0
  000ed	89 45 e0	 mov	 DWORD PTR tv268[ebp], eax
  000f0	db 45 e0	 fild	 DWORD PTR tv268[ebp]
  000f3	f3 0f 11 03	 movss	 DWORD PTR [ebx], xmm0
  000f7	85 c0		 test	 eax, eax
  000f9	79 06		 jns	 SHORT $LN22@GetAttackD
  000fb	d8 05 00 00 00
	00		 fadd	 DWORD PTR __real@4f800000
$LN22@GetAttackD:
  00101	d9 5b 04	 fstp	 DWORD PTR [ebx+4]
  00104	f3 0f 11 43 08	 movss	 DWORD PTR [ebx+8], xmm0
$LN23@GetAttackD:

; 201  : }

  00109	8b 4d fc	 mov	 ecx, DWORD PTR __$ArrayPad$[ebp]
  0010c	5f		 pop	 edi
  0010d	5e		 pop	 esi
  0010e	8b c3		 mov	 eax, ebx
  00110	33 cd		 xor	 ecx, ebp
  00112	5b		 pop	 ebx
  00113	e8 00 00 00 00	 call	 @__security_check_cookie@4
  00118	c9		 leave
  00119	c2 08 00	 ret	 8
?GetAttackDir@ioRunContactWeapon@@UBE?AUD3DXVECTOR3@@PBVioPlayEntity@@@Z ENDP ; ioRunContactWeapon::GetAttackDir
_TEXT	ENDS
PUBLIC	?max_size@?$vector@VioOrientBox@@V?$allocator@VioOrientBox@@@std@@@std@@QBEIXZ ; std::vector<ioOrientBox,std::allocator<ioOrientBox> >::max_size
; Function compile flags: /Ogsp
; File c:\program files (x86)\microsoft visual studio 10.0\vc\include\vector
;	COMDAT ?max_size@?$vector@VioOrientBox@@V?$allocator@VioOrientBox@@@std@@@std@@QBEIXZ
_TEXT	SEGMENT
?max_size@?$vector@VioOrientBox@@V?$allocator@VioOrientBox@@@std@@@std@@QBEIXZ PROC ; std::vector<ioOrientBox,std::allocator<ioOrientBox> >::max_size, COMDAT
; _this$ = ecx

; 884  : 		return (this->_Alval.max_size());

  00000	b8 c3 c3 c3 03	 mov	 eax, 63161283		; 03c3c3c3H

; 885  : 		}

  00005	c3		 ret	 0
?max_size@?$vector@VioOrientBox@@V?$allocator@VioOrientBox@@@std@@@std@@QBEIXZ ENDP ; std::vector<ioOrientBox,std::allocator<ioOrientBox> >::max_size
_TEXT	ENDS
PUBLIC	?allocate@?$allocator@VioOrientBox@@@std@@QAEPAVioOrientBox@@I@Z ; std::allocator<ioOrientBox>::allocate
; Function compile flags: /Ogsp
; File c:\program files (x86)\microsoft visual studio 10.0\vc\include\xmemory
;	COMDAT ?allocate@?$allocator@VioOrientBox@@@std@@QAEPAVioOrientBox@@I@Z
_TEXT	SEGMENT
__Count$ = 8						; size = 4
?allocate@?$allocator@VioOrientBox@@@std@@QAEPAVioOrientBox@@I@Z PROC ; std::allocator<ioOrientBox>::allocate, COMDAT
; _this$ = ecx

; 186  : 		{	// allocate array of _Count elements

  00000	55		 push	 ebp
  00001	8b ec		 mov	 ebp, esp

; 187  : 		return (_Allocate(_Count, (pointer)0));

  00003	6a 00		 push	 0
  00005	ff 75 08	 push	 DWORD PTR __Count$[ebp]
  00008	e8 00 00 00 00	 call	 ??$_Allocate@VioOrientBox@@@std@@YAPAVioOrientBox@@IPAV1@@Z ; std::_Allocate<ioOrientBox>
  0000d	59		 pop	 ecx
  0000e	59		 pop	 ecx

; 188  : 		}

  0000f	5d		 pop	 ebp
  00010	c2 04 00	 ret	 4
?allocate@?$allocator@VioOrientBox@@@std@@QAEPAVioOrientBox@@I@Z ENDP ; std::allocator<ioOrientBox>::allocate
_TEXT	ENDS
PUBLIC	?_Grow_to@?$vector@VioOrientBox@@V?$allocator@VioOrientBox@@@std@@@std@@IBEII@Z ; std::vector<ioOrientBox,std::allocator<ioOrientBox> >::_Grow_to
; Function compile flags: /Ogsp
; File c:\program files (x86)\microsoft visual studio 10.0\vc\include\vector
;	COMDAT ?_Grow_to@?$vector@VioOrientBox@@V?$allocator@VioOrientBox@@@std@@@std@@IBEII@Z
_TEXT	SEGMENT
__Count$ = 8						; size = 4
?_Grow_to@?$vector@VioOrientBox@@V?$allocator@VioOrientBox@@@std@@@std@@IBEII@Z PROC ; std::vector<ioOrientBox,std::allocator<ioOrientBox> >::_Grow_to, COMDAT
; _this$ = ecx

; 1274 : 		{	// grow by 50% or at least to _Count

  00000	55		 push	 ebp
  00001	8b ec		 mov	 ebp, esp

; 1275 : 		size_type _Capacity = capacity();

  00003	8b 41 08	 mov	 eax, DWORD PTR [ecx+8]
  00006	2b 01		 sub	 eax, DWORD PTR [ecx]
  00008	6a 44		 push	 68			; 00000044H
  0000a	99		 cdq
  0000b	59		 pop	 ecx
  0000c	f7 f9		 idiv	 ecx

; 1276 : 
; 1277 : 		_Capacity = max_size() - _Capacity / 2 < _Capacity
; 1278 : 			? 0 : _Capacity + _Capacity / 2;	// try to grow by 50%

  0000e	ba c3 c3 c3 03	 mov	 edx, 63161283		; 03c3c3c3H
  00013	8b c8		 mov	 ecx, eax
  00015	d1 e9		 shr	 ecx, 1
  00017	2b d1		 sub	 edx, ecx
  00019	3b d0		 cmp	 edx, eax
  0001b	73 04		 jae	 SHORT $LN4@Grow_to
  0001d	33 c0		 xor	 eax, eax
  0001f	eb 02		 jmp	 SHORT $LN5@Grow_to
$LN4@Grow_to:
  00021	03 c1		 add	 eax, ecx
$LN5@Grow_to:

; 1279 : 		if (_Capacity < _Count)

  00023	3b 45 08	 cmp	 eax, DWORD PTR __Count$[ebp]

; 1280 : 			_Capacity = _Count;

  00026	0f 42 45 08	 cmovb	 eax, DWORD PTR __Count$[ebp]

; 1281 : 		return (_Capacity);
; 1282 : 		}

  0002a	5d		 pop	 ebp
  0002b	c2 04 00	 ret	 4
?_Grow_to@?$vector@VioOrientBox@@V?$allocator@VioOrientBox@@@std@@@std@@IBEII@Z ENDP ; std::vector<ioOrientBox,std::allocator<ioOrientBox> >::_Grow_to
_TEXT	ENDS
PUBLIC	??$_Cons_val@V?$allocator@VioOrientBox@@@std@@VioOrientBox@@AAV3@@std@@YAXAAV?$allocator@VioOrientBox@@@0@PAVioOrientBox@@AAV2@@Z ; std::_Cons_val<std::allocator<ioOrientBox>,ioOrientBox,ioOrientBox &>
; Function compile flags: /Ogsp
; File c:\program files (x86)\microsoft visual studio 10.0\vc\include\xmemory
;	COMDAT ??$_Cons_val@V?$allocator@VioOrientBox@@@std@@VioOrientBox@@AAV3@@std@@YAXAAV?$allocator@VioOrientBox@@@0@PAVioOrientBox@@AAV2@@Z
_TEXT	SEGMENT
__Alval$ = 8						; size = 4
__Pdest$ = 12						; size = 4
__Src$ = 16						; size = 4
??$_Cons_val@V?$allocator@VioOrientBox@@@std@@VioOrientBox@@AAV3@@std@@YAXAAV?$allocator@VioOrientBox@@@0@PAVioOrientBox@@AAV2@@Z PROC ; std::_Cons_val<std::allocator<ioOrientBox>,ioOrientBox,ioOrientBox &>, COMDAT

; 279  : 	{	// construct using allocator

  00000	55		 push	 ebp
  00001	8b ec		 mov	 ebp, esp
  00003	57		 push	 edi

; 280  : 	_Alval.construct(_Pdest, _STD forward<_Ty2>(_Src));

  00004	8b 7d 0c	 mov	 edi, DWORD PTR __Pdest$[ebp]
  00007	85 ff		 test	 edi, edi
  00009	74 0a		 je	 SHORT $LN7@Cons_val
  0000b	56		 push	 esi
  0000c	8b 75 10	 mov	 esi, DWORD PTR __Src$[ebp]
  0000f	6a 11		 push	 17			; 00000011H
  00011	59		 pop	 ecx
  00012	f3 a5		 rep movsd
  00014	5e		 pop	 esi
$LN7@Cons_val:
  00015	5f		 pop	 edi

; 281  : 	}

  00016	5d		 pop	 ebp
  00017	c3		 ret	 0
??$_Cons_val@V?$allocator@VioOrientBox@@@std@@VioOrientBox@@AAV3@@std@@YAXAAV?$allocator@VioOrientBox@@@0@PAVioOrientBox@@AAV2@@Z ENDP ; std::_Cons_val<std::allocator<ioOrientBox>,ioOrientBox,ioOrientBox &>
_TEXT	ENDS
PUBLIC	?construct@?$allocator@VioOrientBox@@@std@@QAEXPAVioOrientBox@@ABV3@@Z ; std::allocator<ioOrientBox>::construct
; Function compile flags: /Ogsp
;	COMDAT ?construct@?$allocator@VioOrientBox@@@std@@QAEXPAVioOrientBox@@ABV3@@Z
_TEXT	SEGMENT
__Ptr$ = 8						; size = 4
__Val$ = 12						; size = 4
?construct@?$allocator@VioOrientBox@@@std@@QAEXPAVioOrientBox@@ABV3@@Z PROC ; std::allocator<ioOrientBox>::construct, COMDAT
; _this$ = ecx

; 196  : 		{	// construct object at _Ptr with value _Val

  00000	55		 push	 ebp
  00001	8b ec		 mov	 ebp, esp
  00003	57		 push	 edi

; 197  : 		_Construct(_Ptr, _Val);

  00004	8b 7d 08	 mov	 edi, DWORD PTR __Ptr$[ebp]
  00007	85 ff		 test	 edi, edi
  00009	74 0a		 je	 SHORT $LN5@construct@2
  0000b	56		 push	 esi
  0000c	8b 75 0c	 mov	 esi, DWORD PTR __Val$[ebp]
  0000f	6a 11		 push	 17			; 00000011H
  00011	59		 pop	 ecx
  00012	f3 a5		 rep movsd
  00014	5e		 pop	 esi
$LN5@construct@2:
  00015	5f		 pop	 edi

; 198  : 		}

  00016	5d		 pop	 ebp
  00017	c2 08 00	 ret	 8
?construct@?$allocator@VioOrientBox@@@std@@QAEXPAVioOrientBox@@ABV3@@Z ENDP ; std::allocator<ioOrientBox>::construct
_TEXT	ENDS
PUBLIC	??$_Destroy@VioOrientBox@@@std@@YAXPAVioOrientBox@@@Z ; std::_Destroy<ioOrientBox>
; Function compile flags: /Ogsp
;	COMDAT ??$_Destroy@VioOrientBox@@@std@@YAXPAVioOrientBox@@@Z
_TEXT	SEGMENT
__Ptr$ = 8						; size = 4
??$_Destroy@VioOrientBox@@@std@@YAXPAVioOrientBox@@@Z PROC ; std::_Destroy<ioOrientBox>, COMDAT

; 62   : 	{	// destroy object at _Ptr

  00000	55		 push	 ebp
  00001	8b ec		 mov	 ebp, esp

; 63   : 	_Ptr->~_Ty();

  00003	8b 4d 08	 mov	 ecx, DWORD PTR __Ptr$[ebp]

; 64   : 	}

  00006	5d		 pop	 ebp

; 63   : 	_Ptr->~_Ty();

  00007	ff 25 00 00 00
	00		 jmp	 DWORD PTR __imp_??1ioOrientBox@@QAE@XZ
??$_Destroy@VioOrientBox@@@std@@YAXPAVioOrientBox@@@Z ENDP ; std::_Destroy<ioOrientBox>
_TEXT	ENDS
PUBLIC	?construct@?$allocator@VioOrientBox@@@std@@QAEXPAVioOrientBox@@$$QAV3@@Z ; std::allocator<ioOrientBox>::construct
; Function compile flags: /Ogsp
;	COMDAT ?construct@?$allocator@VioOrientBox@@@std@@QAEXPAVioOrientBox@@$$QAV3@@Z
_TEXT	SEGMENT
__Ptr$ = 8						; size = 4
__Val$ = 12						; size = 4
?construct@?$allocator@VioOrientBox@@@std@@QAEXPAVioOrientBox@@$$QAV3@@Z PROC ; std::allocator<ioOrientBox>::construct, COMDAT
; _this$ = ecx

; 201  : 		{	// construct object at _Ptr with value _Val

  00000	55		 push	 ebp
  00001	8b ec		 mov	 ebp, esp
  00003	57		 push	 edi

; 202  : 		::new ((void _FARQ *)_Ptr) _Ty(_STD forward<_Ty>(_Val));

  00004	8b 7d 08	 mov	 edi, DWORD PTR __Ptr$[ebp]
  00007	85 ff		 test	 edi, edi
  00009	74 0a		 je	 SHORT $LN3@construct@3
  0000b	56		 push	 esi
  0000c	8b 75 0c	 mov	 esi, DWORD PTR __Val$[ebp]
  0000f	6a 11		 push	 17			; 00000011H
  00011	59		 pop	 ecx
  00012	f3 a5		 rep movsd
  00014	5e		 pop	 esi
$LN3@construct@3:
  00015	5f		 pop	 edi

; 203  : 		}

  00016	5d		 pop	 ebp
  00017	c2 08 00	 ret	 8
?construct@?$allocator@VioOrientBox@@@std@@QAEXPAVioOrientBox@@$$QAV3@@Z ENDP ; std::allocator<ioOrientBox>::construct
_TEXT	ENDS
PUBLIC	__$ArrayPad$
; Function compile flags: /Ogsp
; File d:\lost saga for developer\youtube\tutorial\source\src\lsclient\ioruncontactweapon.cpp
;	COMDAT ?IsCollision@ioRunContactWeapon@@UAE_NPAVioPlayEntity@@_N@Z
_TEXT	SEGMENT
_vColPoint$ = -16					; size = 12
__$ArrayPad$ = -4					; size = 4
_pEntity$ = 8						; size = 4
_bMapCollision$ = 12					; size = 1
?IsCollision@ioRunContactWeapon@@UAE_NPAVioPlayEntity@@_N@Z PROC ; ioRunContactWeapon::IsCollision, COMDAT
; _this$ = ecx

; 48   : {

  00000	55		 push	 ebp
  00001	8b ec		 mov	 ebp, esp
  00003	83 ec 10	 sub	 esp, 16			; 00000010H
  00006	a1 00 00 00 00	 mov	 eax, DWORD PTR ___security_cookie
  0000b	33 c5		 xor	 eax, ebp
  0000d	89 45 fc	 mov	 DWORD PTR __$ArrayPad$[ebp], eax

; 49   : 	D3DXVECTOR3 vColPoint( 0.0f, 0.0f, 0.0f );

  00010	0f 57 c0	 xorps	 xmm0, xmm0
  00013	56		 push	 esi
  00014	8b 75 08	 mov	 esi, DWORD PTR _pEntity$[ebp]
  00017	57		 push	 edi
  00018	8b f9		 mov	 edi, ecx

; 50   : 
; 51   : 	if( m_UpdateState == CONTACT_FIRST )

  0001a	83 bf 20 09 00
	00 01		 cmp	 DWORD PTR [edi+2336], 1
  00021	f3 0f 11 45 f0	 movss	 DWORD PTR _vColPoint$[ebp], xmm0
  00026	f3 0f 11 45 f4	 movss	 DWORD PTR _vColPoint$[ebp+4], xmm0
  0002b	f3 0f 11 45 f8	 movss	 DWORD PTR _vColPoint$[ebp+8], xmm0
  00030	75 27		 jne	 SHORT $LN3@IsCollisio

; 52   : 	{
; 53   : 		if( pEntity->IsWoundedCollision( m_PreAttackBox, &vColPoint ) )

  00032	8b 06		 mov	 eax, DWORD PTR [esi]
  00034	8d 4d f0	 lea	 ecx, DWORD PTR _vColPoint$[ebp]
  00037	51		 push	 ecx
  00038	8d 8f 94 08 00
	00		 lea	 ecx, DWORD PTR [edi+2196]
  0003e	51		 push	 ecx
  0003f	8b ce		 mov	 ecx, esi
  00041	ff 90 90 00 00
	00		 call	 DWORD PTR [eax+144]
  00047	84 c0		 test	 al, al
  00049	74 0e		 je	 SHORT $LN3@IsCollisio
$LN9@IsCollisio:

; 54   : 			return CheckCollisionLine( pEntity, vColPoint );

  0004b	8d 45 f0	 lea	 eax, DWORD PTR _vColPoint$[ebp]
  0004e	50		 push	 eax
  0004f	56		 push	 esi
  00050	8b cf		 mov	 ecx, edi
  00052	e8 00 00 00 00	 call	 ?CheckCollisionLine@ioRunContactWeapon@@IAE_NPAVioPlayEntity@@ABUD3DXVECTOR3@@@Z ; ioRunContactWeapon::CheckCollisionLine
  00057	eb 32		 jmp	 SHORT $LN5@IsCollisio
$LN3@IsCollisio:

; 55   : 	}
; 56   : 
; 57   : 	if( pEntity->IsWoundedCollision( m_MidAttackBox, &vColPoint ) )

  00059	8b 06		 mov	 eax, DWORD PTR [esi]
  0005b	8d 4d f0	 lea	 ecx, DWORD PTR _vColPoint$[ebp]
  0005e	51		 push	 ecx
  0005f	8d 8f d8 08 00
	00		 lea	 ecx, DWORD PTR [edi+2264]
  00065	51		 push	 ecx
  00066	8b ce		 mov	 ecx, esi
  00068	ff 90 90 00 00
	00		 call	 DWORD PTR [eax+144]
  0006e	84 c0		 test	 al, al

; 58   : 		return CheckCollisionLine( pEntity, vColPoint );

  00070	75 d9		 jne	 SHORT $LN9@IsCollisio

; 59   : 
; 60   : 	if( pEntity->IsWoundedCollision( m_WorldAttackBox, &vColPoint ) )

  00072	8b 06		 mov	 eax, DWORD PTR [esi]
  00074	8d 4d f0	 lea	 ecx, DWORD PTR _vColPoint$[ebp]
  00077	51		 push	 ecx
  00078	8d 8f e8 04 00
	00		 lea	 ecx, DWORD PTR [edi+1256]
  0007e	51		 push	 ecx
  0007f	8b ce		 mov	 ecx, esi
  00081	ff 90 90 00 00
	00		 call	 DWORD PTR [eax+144]
  00087	84 c0		 test	 al, al

; 61   : 		return CheckCollisionLine( pEntity, vColPoint );

  00089	75 c0		 jne	 SHORT $LN9@IsCollisio
$LN5@IsCollisio:

; 62   : 
; 63   : 	return false;
; 64   : }

  0008b	8b 4d fc	 mov	 ecx, DWORD PTR __$ArrayPad$[ebp]
  0008e	5f		 pop	 edi
  0008f	33 cd		 xor	 ecx, ebp
  00091	5e		 pop	 esi
  00092	e8 00 00 00 00	 call	 @__security_check_cookie@4
  00097	c9		 leave
  00098	c2 08 00	 ret	 8
?IsCollision@ioRunContactWeapon@@UAE_NPAVioPlayEntity@@_N@Z ENDP ; ioRunContactWeapon::IsCollision
_TEXT	ENDS
PUBLIC	??$_Cons_val@V?$allocator@VioOrientBox@@@std@@VioOrientBox@@ABV3@@std@@YAXAAV?$allocator@VioOrientBox@@@0@PAVioOrientBox@@ABV2@@Z ; std::_Cons_val<std::allocator<ioOrientBox>,ioOrientBox,ioOrientBox const &>
; Function compile flags: /Ogsp
; File c:\program files (x86)\microsoft visual studio 10.0\vc\include\xmemory
;	COMDAT ??$_Cons_val@V?$allocator@VioOrientBox@@@std@@VioOrientBox@@ABV3@@std@@YAXAAV?$allocator@VioOrientBox@@@0@PAVioOrientBox@@ABV2@@Z
_TEXT	SEGMENT
__Alval$ = 8						; size = 4
__Pdest$ = 12						; size = 4
__Src$ = 16						; size = 4
??$_Cons_val@V?$allocator@VioOrientBox@@@std@@VioOrientBox@@ABV3@@std@@YAXAAV?$allocator@VioOrientBox@@@0@PAVioOrientBox@@ABV2@@Z PROC ; std::_Cons_val<std::allocator<ioOrientBox>,ioOrientBox,ioOrientBox const &>, COMDAT

; 279  : 	{	// construct using allocator

  00000	55		 push	 ebp
  00001	8b ec		 mov	 ebp, esp
  00003	57		 push	 edi

; 280  : 	_Alval.construct(_Pdest, _STD forward<_Ty2>(_Src));

  00004	8b 7d 0c	 mov	 edi, DWORD PTR __Pdest$[ebp]
  00007	85 ff		 test	 edi, edi
  00009	74 0a		 je	 SHORT $LN9@Cons_val@2
  0000b	56		 push	 esi
  0000c	8b 75 10	 mov	 esi, DWORD PTR __Src$[ebp]
  0000f	6a 11		 push	 17			; 00000011H
  00011	59		 pop	 ecx
  00012	f3 a5		 rep movsd
  00014	5e		 pop	 esi
$LN9@Cons_val@2:
  00015	5f		 pop	 edi

; 281  : 	}

  00016	5d		 pop	 ebp
  00017	c3		 ret	 0
??$_Cons_val@V?$allocator@VioOrientBox@@@std@@VioOrientBox@@ABV3@@std@@YAXAAV?$allocator@VioOrientBox@@@0@PAVioOrientBox@@ABV2@@Z ENDP ; std::_Cons_val<std::allocator<ioOrientBox>,ioOrientBox,ioOrientBox const &>
_TEXT	ENDS
PUBLIC	?destroy@?$allocator@VioOrientBox@@@std@@QAEXPAVioOrientBox@@@Z ; std::allocator<ioOrientBox>::destroy
; Function compile flags: /Ogsp
;	COMDAT ?destroy@?$allocator@VioOrientBox@@@std@@QAEXPAVioOrientBox@@@Z
_TEXT	SEGMENT
__Ptr$ = 8						; size = 4
?destroy@?$allocator@VioOrientBox@@@std@@QAEXPAVioOrientBox@@@Z PROC ; std::allocator<ioOrientBox>::destroy, COMDAT
; _this$ = ecx

; 212  : 		{	// destroy object at _Ptr

  00000	55		 push	 ebp
  00001	8b ec		 mov	 ebp, esp

; 213  : 		_Destroy(_Ptr);

  00003	8b 4d 08	 mov	 ecx, DWORD PTR __Ptr$[ebp]
  00006	ff 15 00 00 00
	00		 call	 DWORD PTR __imp_??1ioOrientBox@@QAE@XZ

; 214  : 		}

  0000c	5d		 pop	 ebp
  0000d	c2 04 00	 ret	 4
?destroy@?$allocator@VioOrientBox@@@std@@QAEXPAVioOrientBox@@@Z ENDP ; std::allocator<ioOrientBox>::destroy
_TEXT	ENDS
PUBLIC	??$_Cons_val@V?$allocator@VioOrientBox@@@std@@VioOrientBox@@V3@@std@@YAXAAV?$allocator@VioOrientBox@@@0@PAVioOrientBox@@$$QAV2@@Z ; std::_Cons_val<std::allocator<ioOrientBox>,ioOrientBox,ioOrientBox>
; Function compile flags: /Ogsp
;	COMDAT ??$_Cons_val@V?$allocator@VioOrientBox@@@std@@VioOrientBox@@V3@@std@@YAXAAV?$allocator@VioOrientBox@@@0@PAVioOrientBox@@$$QAV2@@Z
_TEXT	SEGMENT
__Alval$ = 8						; size = 4
__Pdest$ = 12						; size = 4
__Src$ = 16						; size = 4
??$_Cons_val@V?$allocator@VioOrientBox@@@std@@VioOrientBox@@V3@@std@@YAXAAV?$allocator@VioOrientBox@@@0@PAVioOrientBox@@$$QAV2@@Z PROC ; std::_Cons_val<std::allocator<ioOrientBox>,ioOrientBox,ioOrientBox>, COMDAT

; 279  : 	{	// construct using allocator

  00000	55		 push	 ebp
  00001	8b ec		 mov	 ebp, esp
  00003	57		 push	 edi

; 280  : 	_Alval.construct(_Pdest, _STD forward<_Ty2>(_Src));

  00004	8b 7d 0c	 mov	 edi, DWORD PTR __Pdest$[ebp]
  00007	85 ff		 test	 edi, edi
  00009	74 0a		 je	 SHORT $LN7@Cons_val@3
  0000b	56		 push	 esi
  0000c	8b 75 10	 mov	 esi, DWORD PTR __Src$[ebp]
  0000f	6a 11		 push	 17			; 00000011H
  00011	59		 pop	 ecx
  00012	f3 a5		 rep movsd
  00014	5e		 pop	 esi
$LN7@Cons_val@3:
  00015	5f		 pop	 edi

; 281  : 	}

  00016	5d		 pop	 ebp
  00017	c3		 ret	 0
??$_Cons_val@V?$allocator@VioOrientBox@@@std@@VioOrientBox@@V3@@std@@YAXAAV?$allocator@VioOrientBox@@@0@PAVioOrientBox@@$$QAV2@@Z ENDP ; std::_Cons_val<std::allocator<ioOrientBox>,ioOrientBox,ioOrientBox>
_TEXT	ENDS
PUBLIC	??$_Dest_val@V?$allocator@VioOrientBox@@@std@@VioOrientBox@@@std@@YAXAAV?$allocator@VioOrientBox@@@0@PAVioOrientBox@@@Z ; std::_Dest_val<std::allocator<ioOrientBox>,ioOrientBox>
; Function compile flags: /Ogsp
;	COMDAT ??$_Dest_val@V?$allocator@VioOrientBox@@@std@@VioOrientBox@@@std@@YAXAAV?$allocator@VioOrientBox@@@0@PAVioOrientBox@@@Z
_TEXT	SEGMENT
__Alval$ = 8						; size = 4
__Pdest$ = 12						; size = 4
??$_Dest_val@V?$allocator@VioOrientBox@@@std@@VioOrientBox@@@std@@YAXAAV?$allocator@VioOrientBox@@@0@PAVioOrientBox@@@Z PROC ; std::_Dest_val<std::allocator<ioOrientBox>,ioOrientBox>, COMDAT

; 286  : 	{	// destroy using allocator

  00000	55		 push	 ebp
  00001	8b ec		 mov	 ebp, esp

; 287  : 	_Alval.destroy(_Pdest);

  00003	8b 4d 0c	 mov	 ecx, DWORD PTR __Pdest$[ebp]

; 288  : 	}

  00006	5d		 pop	 ebp

; 287  : 	_Alval.destroy(_Pdest);

  00007	ff 25 00 00 00
	00		 jmp	 DWORD PTR __imp_??1ioOrientBox@@QAE@XZ
??$_Dest_val@V?$allocator@VioOrientBox@@@std@@VioOrientBox@@@std@@YAXAAV?$allocator@VioOrientBox@@@0@PAVioOrientBox@@@Z ENDP ; std::_Dest_val<std::allocator<ioOrientBox>,ioOrientBox>
_TEXT	ENDS
PUBLIC	??$_Destroy_range@V?$allocator@VioOrientBox@@@std@@@std@@YAXPAVioOrientBox@@0AAV?$allocator@VioOrientBox@@@0@U_Nonscalar_ptr_iterator_tag@0@@Z ; std::_Destroy_range<std::allocator<ioOrientBox> >
; Function compile flags: /Ogsp
;	COMDAT ??$_Destroy_range@V?$allocator@VioOrientBox@@@std@@@std@@YAXPAVioOrientBox@@0AAV?$allocator@VioOrientBox@@@0@U_Nonscalar_ptr_iterator_tag@0@@Z
_TEXT	SEGMENT
__First$ = 8						; size = 4
__Last$ = 12						; size = 4
__Al$ = 16						; size = 4
___formal$ = 20						; size = 1
??$_Destroy_range@V?$allocator@VioOrientBox@@@std@@@std@@YAXPAVioOrientBox@@0AAV?$allocator@VioOrientBox@@@0@U_Nonscalar_ptr_iterator_tag@0@@Z PROC ; std::_Destroy_range<std::allocator<ioOrientBox> >, COMDAT

; 95   : 	{	// destroy [_First, _Last), arbitrary type

  00000	55		 push	 ebp
  00001	8b ec		 mov	 ebp, esp
  00003	56		 push	 esi

; 96   : 	for (; _First != _Last; ++_First)

  00004	8b 75 08	 mov	 esi, DWORD PTR __First$[ebp]
  00007	eb 0b		 jmp	 SHORT $LN17@Destroy_ra
$LL3@Destroy_ra:

; 97   : 		_Dest_val(_Al, _First);

  00009	8b ce		 mov	 ecx, esi
  0000b	ff 15 00 00 00
	00		 call	 DWORD PTR __imp_??1ioOrientBox@@QAE@XZ
  00011	83 c6 44	 add	 esi, 68			; 00000044H
$LN17@Destroy_ra:

; 96   : 	for (; _First != _Last; ++_First)

  00014	3b 75 0c	 cmp	 esi, DWORD PTR __Last$[ebp]
  00017	75 f0		 jne	 SHORT $LL3@Destroy_ra
  00019	5e		 pop	 esi

; 98   : 	}

  0001a	5d		 pop	 ebp
  0001b	c3		 ret	 0
??$_Destroy_range@V?$allocator@VioOrientBox@@@std@@@std@@YAXPAVioOrientBox@@0AAV?$allocator@VioOrientBox@@@0@U_Nonscalar_ptr_iterator_tag@0@@Z ENDP ; std::_Destroy_range<std::allocator<ioOrientBox> >
_TEXT	ENDS
PUBLIC	??$_Uninit_move@PAVioOrientBox@@PAV1@V?$allocator@VioOrientBox@@@std@@V1@@std@@YAPAVioOrientBox@@PAV1@00AAV?$allocator@VioOrientBox@@@0@0U_Nonscalar_ptr_iterator_tag@0@@Z ; std::_Uninit_move<ioOrientBox *,ioOrientBox *,std::allocator<ioOrientBox>,ioOrientBox>
; Function compile flags: /Ogsp
; File c:\program files (x86)\microsoft visual studio 10.0\vc\include\memory
;	COMDAT ??$_Uninit_move@PAVioOrientBox@@PAV1@V?$allocator@VioOrientBox@@@std@@V1@@std@@YAPAVioOrientBox@@PAV1@00AAV?$allocator@VioOrientBox@@@0@0U_Nonscalar_ptr_iterator_tag@0@@Z
_TEXT	SEGMENT
__First$ = 8						; size = 4
__Last$ = 12						; size = 4
__Dest$ = 16						; size = 4
__Al$ = 20						; size = 4
___formal$ = 24						; size = 4
___formal$ = 28						; size = 1
??$_Uninit_move@PAVioOrientBox@@PAV1@V?$allocator@VioOrientBox@@@std@@V1@@std@@YAPAVioOrientBox@@PAV1@00AAV?$allocator@VioOrientBox@@@0@0U_Nonscalar_ptr_iterator_tag@0@@Z PROC ; std::_Uninit_move<ioOrientBox *,ioOrientBox *,std::allocator<ioOrientBox>,ioOrientBox>, COMDAT

; 424  : 	{	// move [_First, _Last) to raw _Dest, using _Al, arbitrary type

  00000	55		 push	 ebp
  00001	8b ec		 mov	 ebp, esp
  00003	56		 push	 esi

; 425  : 	_DEBUG_RANGE(_First, _Last);
; 426  : 	_DEBUG_POINTER(_Dest);
; 427  : 	_FwdIt _Next = _Dest;
; 428  : 
; 429  : 	_TRY_BEGIN
; 430  : 	for (; _First != _Last; ++_Dest, ++_First)

  00004	8b 75 08	 mov	 esi, DWORD PTR __First$[ebp]
  00007	eb 16		 jmp	 SHORT $LN27@Uninit_mov
$LL6@Uninit_mov:

; 431  : 		_Cons_val(_Al, _Dest, (_Valty &&)*_First);

  00009	56		 push	 esi
  0000a	ff 75 10	 push	 DWORD PTR __Dest$[ebp]
  0000d	ff 75 14	 push	 DWORD PTR __Al$[ebp]
  00010	e8 00 00 00 00	 call	 ??$_Cons_val@V?$allocator@VioOrientBox@@@std@@VioOrientBox@@V3@@std@@YAXAAV?$allocator@VioOrientBox@@@0@PAVioOrientBox@@$$QAV2@@Z ; std::_Cons_val<std::allocator<ioOrientBox>,ioOrientBox,ioOrientBox>
  00015	83 45 10 44	 add	 DWORD PTR __Dest$[ebp], 68 ; 00000044H
  00019	83 c4 0c	 add	 esp, 12			; 0000000cH
  0001c	83 c6 44	 add	 esi, 68			; 00000044H
$LN27@Uninit_mov:

; 425  : 	_DEBUG_RANGE(_First, _Last);
; 426  : 	_DEBUG_POINTER(_Dest);
; 427  : 	_FwdIt _Next = _Dest;
; 428  : 
; 429  : 	_TRY_BEGIN
; 430  : 	for (; _First != _Last; ++_Dest, ++_First)

  0001f	3b 75 0c	 cmp	 esi, DWORD PTR __Last$[ebp]
  00022	75 e5		 jne	 SHORT $LL6@Uninit_mov

; 432  : 	_CATCH_ALL
; 433  : 	for (; _Next != _Dest; ++_Next)
; 434  : 		_Dest_val(_Al, _Next);
; 435  : 	_RERAISE;
; 436  : 	_CATCH_END
; 437  : 	return (_Dest);

  00024	8b 45 10	 mov	 eax, DWORD PTR __Dest$[ebp]
  00027	5e		 pop	 esi

; 438  : 	}

  00028	5d		 pop	 ebp
  00029	c3		 ret	 0
??$_Uninit_move@PAVioOrientBox@@PAV1@V?$allocator@VioOrientBox@@@std@@V1@@std@@YAPAVioOrientBox@@PAV1@00AAV?$allocator@VioOrientBox@@@0@0U_Nonscalar_ptr_iterator_tag@0@@Z ENDP ; std::_Uninit_move<ioOrientBox *,ioOrientBox *,std::allocator<ioOrientBox>,ioOrientBox>
_TEXT	ENDS
PUBLIC	??$_Destroy_range@V?$allocator@VioOrientBox@@@std@@@std@@YAXPAVioOrientBox@@0AAV?$allocator@VioOrientBox@@@0@@Z ; std::_Destroy_range<std::allocator<ioOrientBox> >
; Function compile flags: /Ogsp
; File c:\program files (x86)\microsoft visual studio 10.0\vc\include\xmemory
;	COMDAT ??$_Destroy_range@V?$allocator@VioOrientBox@@@std@@@std@@YAXPAVioOrientBox@@0AAV?$allocator@VioOrientBox@@@0@@Z
_TEXT	SEGMENT
__First$ = 8						; size = 4
__Last$ = 12						; size = 4
__Al$ = 16						; size = 4
??$_Destroy_range@V?$allocator@VioOrientBox@@@std@@@std@@YAXPAVioOrientBox@@0AAV?$allocator@VioOrientBox@@@0@@Z PROC ; std::_Destroy_range<std::allocator<ioOrientBox> >, COMDAT

; 87   : 	{	// destroy [_First, _Last)

  00000	55		 push	 ebp
  00001	8b ec		 mov	 ebp, esp
  00003	56		 push	 esi

; 88   : 	_Destroy_range(_First, _Last, _Al, _Ptr_cat(_First, _Last));

  00004	8b 75 08	 mov	 esi, DWORD PTR __First$[ebp]
  00007	eb 0b		 jmp	 SHORT $LN21@Destroy_ra@2
$LL7@Destroy_ra@2:
  00009	8b ce		 mov	 ecx, esi
  0000b	ff 15 00 00 00
	00		 call	 DWORD PTR __imp_??1ioOrientBox@@QAE@XZ
  00011	83 c6 44	 add	 esi, 68			; 00000044H
$LN21@Destroy_ra@2:
  00014	3b 75 0c	 cmp	 esi, DWORD PTR __Last$[ebp]
  00017	75 f0		 jne	 SHORT $LL7@Destroy_ra@2
  00019	5e		 pop	 esi

; 89   : 	}

  0001a	5d		 pop	 ebp
  0001b	c3		 ret	 0
??$_Destroy_range@V?$allocator@VioOrientBox@@@std@@@std@@YAXPAVioOrientBox@@0AAV?$allocator@VioOrientBox@@@0@@Z ENDP ; std::_Destroy_range<std::allocator<ioOrientBox> >
_TEXT	ENDS
PUBLIC	??$_Uninitialized_move@PAVioOrientBox@@PAV1@V?$allocator@VioOrientBox@@@std@@@std@@YAPAVioOrientBox@@PAV1@00AAV?$allocator@VioOrientBox@@@0@@Z ; std::_Uninitialized_move<ioOrientBox *,ioOrientBox *,std::allocator<ioOrientBox> >
; Function compile flags: /Ogsp
; File c:\program files (x86)\microsoft visual studio 10.0\vc\include\memory
;	COMDAT ??$_Uninitialized_move@PAVioOrientBox@@PAV1@V?$allocator@VioOrientBox@@@std@@@std@@YAPAVioOrientBox@@PAV1@00AAV?$allocator@VioOrientBox@@@0@@Z
_TEXT	SEGMENT
__Cat$525793 = -4					; size = 1
__First$ = 8						; size = 4
__Last$ = 12						; size = 4
__Dest$ = 16						; size = 4
__Al$ = 20						; size = 4
??$_Uninitialized_move@PAVioOrientBox@@PAV1@V?$allocator@VioOrientBox@@@std@@@std@@YAPAVioOrientBox@@PAV1@00AAV?$allocator@VioOrientBox@@@0@@Z PROC ; std::_Uninitialized_move<ioOrientBox *,ioOrientBox *,std::allocator<ioOrientBox> >, COMDAT

; 469  : 	{	// move [_First, _Last) to raw _Dest, using _Al

  00000	55		 push	 ebp
  00001	8b ec		 mov	 ebp, esp
  00003	51		 push	 ecx

; 470  : 	return (_Uninit_move(_First, _Last, _Dest, _Al,
; 471  : 		_Val_type(_First), _Ptr_cat(_First, _Dest)));

  00004	ff 75 fc	 push	 DWORD PTR __Cat$525793[ebp]
  00007	6a 00		 push	 0
  00009	ff 75 14	 push	 DWORD PTR __Al$[ebp]
  0000c	ff 75 10	 push	 DWORD PTR __Dest$[ebp]
  0000f	ff 75 0c	 push	 DWORD PTR __Last$[ebp]
  00012	ff 75 08	 push	 DWORD PTR __First$[ebp]
  00015	e8 00 00 00 00	 call	 ??$_Uninit_move@PAVioOrientBox@@PAV1@V?$allocator@VioOrientBox@@@std@@V1@@std@@YAPAVioOrientBox@@PAV1@00AAV?$allocator@VioOrientBox@@@0@0U_Nonscalar_ptr_iterator_tag@0@@Z ; std::_Uninit_move<ioOrientBox *,ioOrientBox *,std::allocator<ioOrientBox>,ioOrientBox>
  0001a	83 c4 18	 add	 esp, 24			; 00000018H

; 472  : 	}

  0001d	c9		 leave
  0001e	c3		 ret	 0
??$_Uninitialized_move@PAVioOrientBox@@PAV1@V?$allocator@VioOrientBox@@@std@@@std@@YAPAVioOrientBox@@PAV1@00AAV?$allocator@VioOrientBox@@@0@@Z ENDP ; std::_Uninitialized_move<ioOrientBox *,ioOrientBox *,std::allocator<ioOrientBox> >
_TEXT	ENDS
PUBLIC	?_Destroy@?$vector@VioOrientBox@@V?$allocator@VioOrientBox@@@std@@@std@@IAEXPAVioOrientBox@@0@Z ; std::vector<ioOrientBox,std::allocator<ioOrientBox> >::_Destroy
; Function compile flags: /Ogsp
; File c:\program files (x86)\microsoft visual studio 10.0\vc\include\vector
;	COMDAT ?_Destroy@?$vector@VioOrientBox@@V?$allocator@VioOrientBox@@@std@@@std@@IAEXPAVioOrientBox@@0@Z
_TEXT	SEGMENT
__First$ = 8						; size = 4
__Last$ = 12						; size = 4
?_Destroy@?$vector@VioOrientBox@@V?$allocator@VioOrientBox@@@std@@@std@@IAEXPAVioOrientBox@@0@Z PROC ; std::vector<ioOrientBox,std::allocator<ioOrientBox> >::_Destroy, COMDAT
; _this$ = ecx

; 1269 : 		{	// destroy [_First, _Last) using allocator

  00000	55		 push	 ebp
  00001	8b ec		 mov	 ebp, esp
  00003	56		 push	 esi

; 1270 : 		_Destroy_range(_First, _Last, this->_Alval);

  00004	8b 75 08	 mov	 esi, DWORD PTR __First$[ebp]
  00007	eb 0b		 jmp	 SHORT $LN23@Destroy
$LL9@Destroy:
  00009	8b ce		 mov	 ecx, esi
  0000b	ff 15 00 00 00
	00		 call	 DWORD PTR __imp_??1ioOrientBox@@QAE@XZ
  00011	83 c6 44	 add	 esi, 68			; 00000044H
$LN23@Destroy:
  00014	3b 75 0c	 cmp	 esi, DWORD PTR __Last$[ebp]
  00017	75 f0		 jne	 SHORT $LL9@Destroy
  00019	5e		 pop	 esi

; 1271 : 		}

  0001a	5d		 pop	 ebp
  0001b	c2 08 00	 ret	 8
?_Destroy@?$vector@VioOrientBox@@V?$allocator@VioOrientBox@@@std@@@std@@IAEXPAVioOrientBox@@0@Z ENDP ; std::vector<ioOrientBox,std::allocator<ioOrientBox> >::_Destroy
_TEXT	ENDS
PUBLIC	??$_Umove@PAVioOrientBox@@@?$vector@VioOrientBox@@V?$allocator@VioOrientBox@@@std@@@std@@IAEPAVioOrientBox@@PAV2@00@Z ; std::vector<ioOrientBox,std::allocator<ioOrientBox> >::_Umove<ioOrientBox *>
; Function compile flags: /Ogsp
;	COMDAT ??$_Umove@PAVioOrientBox@@@?$vector@VioOrientBox@@V?$allocator@VioOrientBox@@@std@@@std@@IAEPAVioOrientBox@@PAV2@00@Z
_TEXT	SEGMENT
__First$ = 8						; size = 4
__Last$ = 12						; size = 4
__Ptr$ = 16						; size = 4
??$_Umove@PAVioOrientBox@@@?$vector@VioOrientBox@@V?$allocator@VioOrientBox@@@std@@@std@@IAEPAVioOrientBox@@PAV2@00@Z PROC ; std::vector<ioOrientBox,std::allocator<ioOrientBox> >::_Umove<ioOrientBox *>, COMDAT
; _this$ = ecx

; 1322 : 		pointer _Umove(_Iter _First, _Iter _Last, pointer _Ptr)

  00000	55		 push	 ebp
  00001	8b ec		 mov	 ebp, esp

; 1323 : 		{	// move initializing [_First, _Last), using allocator
; 1324 : 		return (_Uninitialized_move(_First, _Last,
; 1325 : 			_Ptr, this->_Alval));

  00003	83 c1 0c	 add	 ecx, 12			; 0000000cH
  00006	51		 push	 ecx
  00007	ff 75 10	 push	 DWORD PTR __Ptr$[ebp]
  0000a	ff 75 0c	 push	 DWORD PTR __Last$[ebp]
  0000d	ff 75 08	 push	 DWORD PTR __First$[ebp]
  00010	e8 00 00 00 00	 call	 ??$_Uninitialized_move@PAVioOrientBox@@PAV1@V?$allocator@VioOrientBox@@@std@@@std@@YAPAVioOrientBox@@PAV1@00AAV?$allocator@VioOrientBox@@@0@@Z ; std::_Uninitialized_move<ioOrientBox *,ioOrientBox *,std::allocator<ioOrientBox> >
  00015	83 c4 10	 add	 esp, 16			; 00000010H

; 1326 : 		}

  00018	5d		 pop	 ebp
  00019	c2 0c 00	 ret	 12			; 0000000cH
??$_Umove@PAVioOrientBox@@@?$vector@VioOrientBox@@V?$allocator@VioOrientBox@@@std@@@std@@IAEPAVioOrientBox@@PAV2@00@Z ENDP ; std::vector<ioOrientBox,std::allocator<ioOrientBox> >::_Umove<ioOrientBox *>
_TEXT	ENDS
PUBLIC	?reserve@?$vector@VioOrientBox@@V?$allocator@VioOrientBox@@@std@@@std@@QAEXI@Z ; std::vector<ioOrientBox,std::allocator<ioOrientBox> >::reserve
EXTRN	__imp_?_Orphan_all@_Container_base0@std@@QAEXXZ:PROC
EXTRN	__EH_prolog3_catch:PROC
;	COMDAT xdata$x
; File c:\program files (x86)\microsoft visual studio 10.0\vc\include\xmemory
xdata$x	SEGMENT
__catchsym$?reserve@?$vector@VioOrientBox@@V?$allocator@VioOrientBox@@@std@@@std@@QAEXI@Z$2 DD 040H
	DD	00H
	DD	00H
	DD	FLAT:__catch$?reserve@?$vector@VioOrientBox@@V?$allocator@VioOrientBox@@@std@@@std@@QAEXI@Z$0
__unwindtable$?reserve@?$vector@VioOrientBox@@V?$allocator@VioOrientBox@@@std@@@std@@QAEXI@Z DD 0ffffffffH
	DD	00H
	DD	0ffffffffH
	DD	00H
__tryblocktable$?reserve@?$vector@VioOrientBox@@V?$allocator@VioOrientBox@@@std@@@std@@QAEXI@Z DD 00H
	DD	00H
	DD	01H
	DD	01H
	DD	FLAT:__catchsym$?reserve@?$vector@VioOrientBox@@V?$allocator@VioOrientBox@@@std@@@std@@QAEXI@Z$2
__ehfuncinfo$?reserve@?$vector@VioOrientBox@@V?$allocator@VioOrientBox@@@std@@@std@@QAEXI@Z DD 019930522H
	DD	02H
	DD	FLAT:__unwindtable$?reserve@?$vector@VioOrientBox@@V?$allocator@VioOrientBox@@@std@@@std@@QAEXI@Z
	DD	01H
	DD	FLAT:__tryblocktable$?reserve@?$vector@VioOrientBox@@V?$allocator@VioOrientBox@@@std@@@std@@QAEXI@Z
	DD	2 DUP(00H)
	DD	00H
	DD	01H
; Function compile flags: /Ogsp
; File c:\program files (x86)\microsoft visual studio 10.0\vc\include\vector
xdata$x	ENDS
;	COMDAT ?reserve@?$vector@VioOrientBox@@V?$allocator@VioOrientBox@@@std@@@std@@QAEXI@Z
_TEXT	SEGMENT
__Ptr$524247 = -24					; size = 4
$T525968 = -20						; size = 4
__$EHRec$ = -16						; size = 16
__Count$ = 8						; size = 4
?reserve@?$vector@VioOrientBox@@V?$allocator@VioOrientBox@@@std@@@std@@QAEXI@Z PROC ; std::vector<ioOrientBox,std::allocator<ioOrientBox> >::reserve, COMDAT
; _this$ = ecx

; 746  : 		{	// determine new minimum length of allocated storage

  00000	6a 0c		 push	 12			; 0000000cH
  00002	b8 00 00 00 00	 mov	 eax, __ehhandler$?reserve@?$vector@VioOrientBox@@V?$allocator@VioOrientBox@@@std@@@std@@QAEXI@Z
  00007	e8 00 00 00 00	 call	 __EH_prolog3_catch
  0000c	8b f1		 mov	 esi, ecx

; 747  : 		if (max_size() < _Count)

  0000e	81 7d 08 c3 c3
	c3 03		 cmp	 DWORD PTR __Count$[ebp], 63161283 ; 03c3c3c3H
  00015	76 0b		 jbe	 SHORT $LN5@reserve

; 748  : 			_Xlen();	// result too long

  00017	68 00 00 00 00	 push	 OFFSET ??_C@_0BD@OLBABOEK@vector?$DMT?$DO?5too?5long?$AA@
  0001c	ff 15 00 00 00
	00		 call	 DWORD PTR __imp_?_Xlength_error@std@@YAXPBD@Z
$LN59@reserve:
$LN5@reserve:

; 749  : 		else if (capacity() < _Count)

  00022	8b 46 08	 mov	 eax, DWORD PTR [esi+8]
  00025	2b 06		 sub	 eax, DWORD PTR [esi]
  00027	6a 44		 push	 68			; 00000044H
  00029	99		 cdq
  0002a	59		 pop	 ecx
  0002b	f7 f9		 idiv	 ecx
  0002d	3b 45 08	 cmp	 eax, DWORD PTR __Count$[ebp]
  00030	0f 83 81 00 00
	00		 jae	 $LN3@reserve

; 750  : 			{	// not enough room, reallocate
; 751  : 			pointer _Ptr = this->_Alval.allocate(_Count);

  00036	6a 00		 push	 0
  00038	ff 75 08	 push	 DWORD PTR __Count$[ebp]
  0003b	e8 00 00 00 00	 call	 ??$_Allocate@VioOrientBox@@@std@@YAPAVioOrientBox@@IPAV1@@Z ; std::_Allocate<ioOrientBox>

; 752  : 
; 753  : 			_TRY_BEGIN
; 754  : 			_Umove(this->_Myfirst, this->_Mylast, _Ptr);

  00040	8b 0e		 mov	 ecx, DWORD PTR [esi]
  00042	83 65 fc 00	 and	 DWORD PTR __$EHRec$[ebp+12], 0
  00046	8d 56 0c	 lea	 edx, DWORD PTR [esi+12]
  00049	52		 push	 edx
  0004a	89 45 e8	 mov	 DWORD PTR __Ptr$524247[ebp], eax
  0004d	ff 75 e8	 push	 DWORD PTR __Ptr$524247[ebp]
  00050	8b 46 04	 mov	 eax, DWORD PTR [esi+4]
  00053	50		 push	 eax
  00054	51		 push	 ecx
  00055	e8 00 00 00 00	 call	 ??$_Uninitialized_move@PAVioOrientBox@@PAV1@V?$allocator@VioOrientBox@@@std@@@std@@YAPAVioOrientBox@@PAV1@00AAV?$allocator@VioOrientBox@@@0@@Z ; std::_Uninitialized_move<ioOrientBox *,ioOrientBox *,std::allocator<ioOrientBox> >

; 758  : 			_CATCH_END
; 759  : 
; 760  : 			size_type _Size = size();

  0005a	8b 5e 04	 mov	 ebx, DWORD PTR [esi+4]
  0005d	8b 0e		 mov	 ecx, DWORD PTR [esi]
  0005f	83 c4 18	 add	 esp, 24			; 00000018H
  00062	8b c3		 mov	 eax, ebx
  00064	2b c1		 sub	 eax, ecx
  00066	6a 44		 push	 68			; 00000044H
  00068	99		 cdq
  00069	5f		 pop	 edi
  0006a	f7 ff		 idiv	 edi
  0006c	83 4d fc ff	 or	 DWORD PTR __$EHRec$[ebp+12], -1
  00070	8b f8		 mov	 edi, eax
  00072	85 c9		 test	 ecx, ecx
  00074	74 21		 je	 SHORT $LN51@reserve

; 761  : 			if (this->_Myfirst != 0)
; 762  : 				{	// destroy and deallocate old array
; 763  : 				_Destroy(this->_Myfirst, this->_Mylast);

  00076	89 4d ec	 mov	 DWORD PTR $T525968[ebp], ecx
  00079	3b cb		 cmp	 ecx, ebx
  0007b	74 12		 je	 SHORT $LN37@reserve
$LN39@reserve:
  0007d	8b 4d ec	 mov	 ecx, DWORD PTR $T525968[ebp]
  00080	ff 15 00 00 00
	00		 call	 DWORD PTR __imp_??1ioOrientBox@@QAE@XZ
  00086	83 45 ec 44	 add	 DWORD PTR $T525968[ebp], 68 ; 00000044H
  0008a	39 5d ec	 cmp	 DWORD PTR $T525968[ebp], ebx
  0008d	75 ee		 jne	 SHORT $LN39@reserve
$LN37@reserve:

; 764  : 				this->_Alval.deallocate(this->_Myfirst,
; 765  : 					this->_Myend - this->_Myfirst);

  0008f	ff 36		 push	 DWORD PTR [esi]
  00091	e8 00 00 00 00	 call	 ??3@YAXPAX@Z		; operator delete
  00096	59		 pop	 ecx
$LN51@reserve:

; 766  : 				}
; 767  : 
; 768  : 			this->_Orphan_all();

  00097	8b ce		 mov	 ecx, esi
  00099	ff 15 00 00 00
	00		 call	 DWORD PTR __imp_?_Orphan_all@_Container_base0@std@@QAEXXZ

; 769  : 			this->_Myend = _Ptr + _Count;
; 770  : 			this->_Mylast = _Ptr + _Size;

  0009f	6b ff 44	 imul	 edi, 68			; 00000044H
  000a2	8b 45 08	 mov	 eax, DWORD PTR __Count$[ebp]
  000a5	8b 4d e8	 mov	 ecx, DWORD PTR __Ptr$524247[ebp]
  000a8	6b c0 44	 imul	 eax, 68			; 00000044H
  000ab	03 c1		 add	 eax, ecx
  000ad	03 f9		 add	 edi, ecx
  000af	89 46 08	 mov	 DWORD PTR [esi+8], eax
  000b2	89 7e 04	 mov	 DWORD PTR [esi+4], edi

; 771  : 			this->_Myfirst = _Ptr;

  000b5	89 0e		 mov	 DWORD PTR [esi], ecx
$LN3@reserve:

; 772  : 			}
; 773  : 		}

  000b7	e8 00 00 00 00	 call	 __EH_epilog3
  000bc	c2 04 00	 ret	 4
__catch$?reserve@?$vector@VioOrientBox@@V?$allocator@VioOrientBox@@@std@@@std@@QAEXI@Z$0:

; 755  : 			_CATCH_ALL
; 756  : 			this->_Alval.deallocate(_Ptr, _Count);

  000bf	ff 75 e8	 push	 DWORD PTR __Ptr$524247[ebp]
  000c2	e8 00 00 00 00	 call	 ??3@YAXPAX@Z		; operator delete
  000c7	59		 pop	 ecx

; 757  : 			_RERAISE;

  000c8	6a 00		 push	 0
  000ca	6a 00		 push	 0
  000cc	e8 00 00 00 00	 call	 __CxxThrowException@8
$LN60@reserve:
$LN58@reserve:
  000d1	cc		 int	 3
_TEXT	ENDS
;	COMDAT text$x
text$x	SEGMENT
__ehhandler$?reserve@?$vector@VioOrientBox@@V?$allocator@VioOrientBox@@@std@@@std@@QAEXI@Z:
  00000	8b 54 24 08	 mov	 edx, DWORD PTR [esp+8]
  00004	8d 42 0c	 lea	 eax, DWORD PTR [edx+12]
  00007	8b 4a e4	 mov	 ecx, DWORD PTR [edx-28]
  0000a	33 c8		 xor	 ecx, eax
  0000c	e8 00 00 00 00	 call	 @__security_check_cookie@4
  00011	b8 00 00 00 00	 mov	 eax, OFFSET __ehfuncinfo$?reserve@?$vector@VioOrientBox@@V?$allocator@VioOrientBox@@@std@@@std@@QAEXI@Z
  00016	e9 00 00 00 00	 jmp	 ___CxxFrameHandler3
text$x	ENDS
?reserve@?$vector@VioOrientBox@@V?$allocator@VioOrientBox@@@std@@@std@@QAEXI@Z ENDP ; std::vector<ioOrientBox,std::allocator<ioOrientBox> >::reserve
PUBLIC	?_Reserve@?$vector@VioOrientBox@@V?$allocator@VioOrientBox@@@std@@@std@@IAEXI@Z ; std::vector<ioOrientBox,std::allocator<ioOrientBox> >::_Reserve
; Function compile flags: /Ogsp
;	COMDAT ?_Reserve@?$vector@VioOrientBox@@V?$allocator@VioOrientBox@@@std@@@std@@IAEXI@Z
_TEXT	SEGMENT
__Count$ = 8						; size = 4
?_Reserve@?$vector@VioOrientBox@@V?$allocator@VioOrientBox@@@std@@@std@@IAEXI@Z PROC ; std::vector<ioOrientBox,std::allocator<ioOrientBox> >::_Reserve, COMDAT
; _this$ = ecx

; 1290 : 		{	// ensure room for _Count new elements, grow exponentially

  00000	55		 push	 ebp
  00001	8b ec		 mov	 ebp, esp
  00003	56		 push	 esi
  00004	8b f1		 mov	 esi, ecx

; 1291 : 		size_type _Size = size();

  00006	8b 0e		 mov	 ecx, DWORD PTR [esi]
  00008	8b 46 04	 mov	 eax, DWORD PTR [esi+4]
  0000b	2b c1		 sub	 eax, ecx
  0000d	57		 push	 edi
  0000e	99		 cdq
  0000f	6a 44		 push	 68			; 00000044H
  00011	5f		 pop	 edi
  00012	f7 ff		 idiv	 edi
  00014	8b f8		 mov	 edi, eax

; 1292 : 		if (max_size() - _Count < _Size)

  00016	b8 c3 c3 c3 03	 mov	 eax, 63161283		; 03c3c3c3H
  0001b	2b 45 08	 sub	 eax, DWORD PTR __Count$[ebp]
  0001e	3b c7		 cmp	 eax, edi
  00020	73 0b		 jae	 SHORT $LN4@Reserve

; 1293 : 			_Xlen();

  00022	68 00 00 00 00	 push	 OFFSET ??_C@_0BD@OLBABOEK@vector?$DMT?$DO?5too?5long?$AA@
  00027	ff 15 00 00 00
	00		 call	 DWORD PTR __imp_?_Xlength_error@std@@YAXPBD@Z
$LN21@Reserve:
$LN4@Reserve:

; 1294 : 		else if ((_Size += _Count) <= capacity())

  0002d	8b 46 08	 mov	 eax, DWORD PTR [esi+8]
  00030	2b c1		 sub	 eax, ecx
  00032	6a 44		 push	 68			; 00000044H
  00034	99		 cdq
  00035	59		 pop	 ecx
  00036	f7 f9		 idiv	 ecx
  00038	03 7d 08	 add	 edi, DWORD PTR __Count$[ebp]
  0003b	3b f8		 cmp	 edi, eax
  0003d	76 10		 jbe	 SHORT $LN1@Reserve

; 1295 : 			;
; 1296 : 		else
; 1297 : 			reserve(_Grow_to(_Size));

  0003f	57		 push	 edi
  00040	8b ce		 mov	 ecx, esi
  00042	e8 00 00 00 00	 call	 ?_Grow_to@?$vector@VioOrientBox@@V?$allocator@VioOrientBox@@@std@@@std@@IBEII@Z ; std::vector<ioOrientBox,std::allocator<ioOrientBox> >::_Grow_to
  00047	50		 push	 eax
  00048	8b ce		 mov	 ecx, esi
  0004a	e8 00 00 00 00	 call	 ?reserve@?$vector@VioOrientBox@@V?$allocator@VioOrientBox@@@std@@@std@@QAEXI@Z ; std::vector<ioOrientBox,std::allocator<ioOrientBox> >::reserve
$LN1@Reserve:
  0004f	5f		 pop	 edi
  00050	5e		 pop	 esi

; 1298 : 		}

  00051	5d		 pop	 ebp
  00052	c2 04 00	 ret	 4
$LN20@Reserve:
?_Reserve@?$vector@VioOrientBox@@V?$allocator@VioOrientBox@@@std@@@std@@IAEXI@Z ENDP ; std::vector<ioOrientBox,std::allocator<ioOrientBox> >::_Reserve
_TEXT	ENDS
PUBLIC	?push_back@?$vector@VioOrientBox@@V?$allocator@VioOrientBox@@@std@@@std@@QAEXABVioOrientBox@@@Z ; std::vector<ioOrientBox,std::allocator<ioOrientBox> >::push_back
; Function compile flags: /Ogsp
;	COMDAT ?push_back@?$vector@VioOrientBox@@V?$allocator@VioOrientBox@@@std@@@std@@QAEXABVioOrientBox@@@Z
_TEXT	SEGMENT
__Val$ = 8						; size = 4
?push_back@?$vector@VioOrientBox@@V?$allocator@VioOrientBox@@@std@@@std@@QAEXABVioOrientBox@@@Z PROC ; std::vector<ioOrientBox,std::allocator<ioOrientBox> >::push_back, COMDAT
; _this$ = ecx

; 976  : 		{	// insert element at end

  00000	55		 push	 ebp
  00001	8b ec		 mov	 ebp, esp
  00003	56		 push	 esi
  00004	8b f1		 mov	 esi, ecx

; 977  : 		if (_Inside(_STD addressof(_Val)))

  00006	8b 4e 04	 mov	 ecx, DWORD PTR [esi+4]
  00009	57		 push	 edi
  0000a	8b 7d 08	 mov	 edi, DWORD PTR __Val$[ebp]
  0000d	3b f9		 cmp	 edi, ecx
  0000f	73 34		 jae	 SHORT $LN4@push_back
  00011	8b 16		 mov	 edx, DWORD PTR [esi]
  00013	3b d7		 cmp	 edx, edi
  00015	77 2e		 ja	 SHORT $LN4@push_back

; 978  : 			{	// push back an element
; 979  : 			size_type _Idx = _STD addressof(_Val) - this->_Myfirst;

  00017	8b c7		 mov	 eax, edi
  00019	2b c2		 sub	 eax, edx
  0001b	6a 44		 push	 68			; 00000044H
  0001d	99		 cdq
  0001e	5f		 pop	 edi
  0001f	f7 ff		 idiv	 edi
  00021	8b f8		 mov	 edi, eax

; 980  : 			if (this->_Mylast == this->_Myend)

  00023	3b 4e 08	 cmp	 ecx, DWORD PTR [esi+8]
  00026	75 09		 jne	 SHORT $LN3@push_back

; 981  : 				_Reserve(1);

  00028	6a 01		 push	 1
  0002a	8b ce		 mov	 ecx, esi
  0002c	e8 00 00 00 00	 call	 ?_Reserve@?$vector@VioOrientBox@@V?$allocator@VioOrientBox@@@std@@@std@@IAEXI@Z ; std::vector<ioOrientBox,std::allocator<ioOrientBox> >::_Reserve
$LN3@push_back:

; 982  : 			_Orphan_range(this->_Mylast, this->_Mylast);
; 983  : 			_Cons_val(this->_Alval,
; 984  : 				this->_Mylast,
; 985  : 				this->_Myfirst[_Idx]);

  00031	6b ff 44	 imul	 edi, 68			; 00000044H
  00034	03 3e		 add	 edi, DWORD PTR [esi]
  00036	8d 46 0c	 lea	 eax, DWORD PTR [esi+12]
  00039	57		 push	 edi
  0003a	ff 76 04	 push	 DWORD PTR [esi+4]
  0003d	50		 push	 eax
  0003e	e8 00 00 00 00	 call	 ??$_Cons_val@V?$allocator@VioOrientBox@@@std@@VioOrientBox@@AAV3@@std@@YAXAAV?$allocator@VioOrientBox@@@0@PAVioOrientBox@@AAV2@@Z ; std::_Cons_val<std::allocator<ioOrientBox>,ioOrientBox,ioOrientBox &>

; 986  : 			++this->_Mylast;
; 987  : 			}
; 988  : 		else

  00043	eb 1b		 jmp	 SHORT $LN20@push_back
$LN4@push_back:

; 989  : 			{	// push back a non-element
; 990  : 			if (this->_Mylast == this->_Myend)

  00045	3b 4e 08	 cmp	 ecx, DWORD PTR [esi+8]
  00048	75 09		 jne	 SHORT $LN1@push_back

; 991  : 				_Reserve(1);

  0004a	6a 01		 push	 1
  0004c	8b ce		 mov	 ecx, esi
  0004e	e8 00 00 00 00	 call	 ?_Reserve@?$vector@VioOrientBox@@V?$allocator@VioOrientBox@@@std@@@std@@IAEXI@Z ; std::vector<ioOrientBox,std::allocator<ioOrientBox> >::_Reserve
$LN1@push_back:

; 992  : 			_Orphan_range(this->_Mylast, this->_Mylast);
; 993  : 			_Cons_val(this->_Alval,
; 994  : 				this->_Mylast,
; 995  : 				_Val);

  00053	57		 push	 edi
  00054	ff 76 04	 push	 DWORD PTR [esi+4]
  00057	8d 46 0c	 lea	 eax, DWORD PTR [esi+12]
  0005a	50		 push	 eax
  0005b	e8 00 00 00 00	 call	 ??$_Cons_val@V?$allocator@VioOrientBox@@@std@@VioOrientBox@@ABV3@@std@@YAXAAV?$allocator@VioOrientBox@@@0@PAVioOrientBox@@ABV2@@Z ; std::_Cons_val<std::allocator<ioOrientBox>,ioOrientBox,ioOrientBox const &>
$LN20@push_back:
  00060	83 c4 0c	 add	 esp, 12			; 0000000cH

; 996  : 			++this->_Mylast;

  00063	83 46 04 44	 add	 DWORD PTR [esi+4], 68	; 00000044H
  00067	5f		 pop	 edi
  00068	5e		 pop	 esi

; 997  : 			}
; 998  : 		}

  00069	5d		 pop	 ebp
  0006a	c2 04 00	 ret	 4
?push_back@?$vector@VioOrientBox@@V?$allocator@VioOrientBox@@@std@@@std@@QAEXABVioOrientBox@@@Z ENDP ; std::vector<ioOrientBox,std::allocator<ioOrientBox> >::push_back
; Function compile flags: /Ogsp
; File d:\lost saga for developer\youtube\tutorial\source\src\lsclient\ioruncontactweapon.cpp
_TEXT	ENDS
;	COMDAT ?GetWorldAttackBoxList@ioRunContactWeapon@@UAEXAAV?$vector@VioOrientBox@@V?$allocator@VioOrientBox@@@std@@@std@@@Z
_TEXT	SEGMENT
_vBoxList$ = 8						; size = 4
?GetWorldAttackBoxList@ioRunContactWeapon@@UAEXAAV?$vector@VioOrientBox@@V?$allocator@VioOrientBox@@@std@@@std@@@Z PROC ; ioRunContactWeapon::GetWorldAttackBoxList, COMDAT
; _this$ = ecx

; 40   : {

  00000	55		 push	 ebp
  00001	8b ec		 mov	 ebp, esp
  00003	56		 push	 esi
  00004	57		 push	 edi

; 41   : 	vBoxList.reserve( 3 );

  00005	8b 7d 08	 mov	 edi, DWORD PTR _vBoxList$[ebp]
  00008	8b f1		 mov	 esi, ecx
  0000a	6a 03		 push	 3
  0000c	8b cf		 mov	 ecx, edi
  0000e	e8 00 00 00 00	 call	 ?reserve@?$vector@VioOrientBox@@V?$allocator@VioOrientBox@@@std@@@std@@QAEXI@Z ; std::vector<ioOrientBox,std::allocator<ioOrientBox> >::reserve

; 42   : 	vBoxList.push_back( m_PreAttackBox );

  00013	8d 86 94 08 00
	00		 lea	 eax, DWORD PTR [esi+2196]
  00019	50		 push	 eax
  0001a	8b cf		 mov	 ecx, edi
  0001c	e8 00 00 00 00	 call	 ?push_back@?$vector@VioOrientBox@@V?$allocator@VioOrientBox@@@std@@@std@@QAEXABVioOrientBox@@@Z ; std::vector<ioOrientBox,std::allocator<ioOrientBox> >::push_back

; 43   : 	vBoxList.push_back( m_MidAttackBox );

  00021	8d 86 d8 08 00
	00		 lea	 eax, DWORD PTR [esi+2264]
  00027	50		 push	 eax
  00028	8b cf		 mov	 ecx, edi
  0002a	e8 00 00 00 00	 call	 ?push_back@?$vector@VioOrientBox@@V?$allocator@VioOrientBox@@@std@@@std@@QAEXABVioOrientBox@@@Z ; std::vector<ioOrientBox,std::allocator<ioOrientBox> >::push_back

; 44   : 	vBoxList.push_back( m_WorldAttackBox );

  0002f	81 c6 e8 04 00
	00		 add	 esi, 1256		; 000004e8H
  00035	56		 push	 esi
  00036	8b cf		 mov	 ecx, edi
  00038	e8 00 00 00 00	 call	 ?push_back@?$vector@VioOrientBox@@V?$allocator@VioOrientBox@@@std@@@std@@QAEXABVioOrientBox@@@Z ; std::vector<ioOrientBox,std::allocator<ioOrientBox> >::push_back
  0003d	5f		 pop	 edi
  0003e	5e		 pop	 esi

; 45   : }

  0003f	5d		 pop	 ebp
  00040	c2 04 00	 ret	 4
?GetWorldAttackBoxList@ioRunContactWeapon@@UAEXAAV?$vector@VioOrientBox@@V?$allocator@VioOrientBox@@@std@@@std@@@Z ENDP ; ioRunContactWeapon::GetWorldAttackBoxList
_TEXT	ENDS
END
