; Listing generated by Microsoft (R) Optimizing Compiler Version 16.00.30319.01 

	TITLE	D:\Lost Saga For Developer\Youtube\Tutorial\Source\src\LSClient\ioRunChargeItem2.cpp
	.686P
	.XMM
	include listing.inc
	.model	flat

INCLUDELIB MSVCRT
INCLUDELIB OLDNAMES

PUBLIC	?_EEM_DS@?$deque@UD3DXVECTOR3@@V?$allocator@UD3DXVECTOR3@@@std@@@std@@2HB ; std::deque<D3DXVECTOR3,std::allocator<D3DXVECTOR3> >::_EEM_DS
;	COMDAT ?_EEM_DS@?$deque@UD3DXVECTOR3@@V?$allocator@UD3DXVECTOR3@@@std@@@std@@2HB
CONST	SEGMENT
?_EEM_DS@?$deque@UD3DXVECTOR3@@V?$allocator@UD3DXVECTOR3@@@std@@@std@@2HB DD 01H ; std::deque<D3DXVECTOR3,std::allocator<D3DXVECTOR3> >::_EEM_DS
CONST	ENDS
PUBLIC	?return1@@YAIXZ					; return1
; Function compile flags: /Ogsp
; File d:\lost saga for developer\youtube\tutorial\source\src\lsclient\stdafx.h
;	COMDAT ?return1@@YAIXZ
_TEXT	SEGMENT
?return1@@YAIXZ PROC					; return1, COMDAT

; 17   : 	__forceinline unsigned int return1() { __asm mov eax, 1 };

  00000	b8 01 00 00 00	 mov	 eax, 1
  00005	c3		 ret	 0
?return1@@YAIXZ ENDP					; return1
_TEXT	ENDS
PUBLIC	?return100@@YAIXZ				; return100
; Function compile flags: /Ogsp
;	COMDAT ?return100@@YAIXZ
_TEXT	SEGMENT
?return100@@YAIXZ PROC					; return100, COMDAT

; 25   : 	__forceinline unsigned int return100() { __asm mov eax, 100 };

  00000	b8 64 00 00 00	 mov	 eax, 100		; 00000064H
  00005	c3		 ret	 0
?return100@@YAIXZ ENDP					; return100
_TEXT	ENDS
PUBLIC	?return360@@YAIXZ				; return360
; Function compile flags: /Ogsp
;	COMDAT ?return360@@YAIXZ
_TEXT	SEGMENT
?return360@@YAIXZ PROC					; return360, COMDAT

; 27   : 	__forceinline unsigned int return360() { __asm mov eax, 360 };

  00000	b8 68 01 00 00	 mov	 eax, 360		; 00000168H
  00005	c3		 ret	 0
?return360@@YAIXZ ENDP					; return360
_TEXT	ENDS
PUBLIC	?GetState@ioBaseChar@@QBE?AW4CharState@@XZ	; ioBaseChar::GetState
; Function compile flags: /Ogsp
; File d:\lost saga for developer\youtube\tutorial\source\src\lsclient\iobasechar.h
;	COMDAT ?GetState@ioBaseChar@@QBE?AW4CharState@@XZ
_TEXT	SEGMENT
?GetState@ioBaseChar@@QBE?AW4CharState@@XZ PROC		; ioBaseChar::GetState, COMDAT
; _this$ = ecx

; 2156 : 	inline CharState GetState() const { return m_CharState; }	

  00000	8a 81 10 03 00
	00		 mov	 al, BYTE PTR [ecx+784]
  00006	c3		 ret	 0
?GetState@ioBaseChar@@QBE?AW4CharState@@XZ ENDP		; ioBaseChar::GetState
_TEXT	ENDS
PUBLIC	_fabsf
EXTRN	__fltused:DWORD
; Function compile flags: /Ogsp
; File c:\program files (x86)\microsoft visual studio 10.0\vc\include\math.h
;	COMDAT _fabsf
_TEXT	SEGMENT
tv129 = 8						; size = 4
__X$ = 8						; size = 4
_fabsf	PROC						; COMDAT

; 395  :         {return ((float)fabs((double)_X)); }

  00000	55		 push	 ebp
  00001	8b ec		 mov	 ebp, esp
  00003	d9 45 08	 fld	 DWORD PTR __X$[ebp]
  00006	d9 e1		 fabs
  00008	d9 5d 08	 fstp	 DWORD PTR tv129[ebp]
  0000b	d9 45 08	 fld	 DWORD PTR tv129[ebp]
  0000e	5d		 pop	 ebp
  0000f	c3		 ret	 0
_fabsf	ENDP
_TEXT	ENDS
PUBLIC	?GetMoveDir@ioBaseChar@@QBEABUD3DXVECTOR3@@XZ	; ioBaseChar::GetMoveDir
; Function compile flags: /Ogsp
; File d:\lost saga for developer\youtube\tutorial\source\src\lsclient\iobasechar.h
;	COMDAT ?GetMoveDir@ioBaseChar@@QBEABUD3DXVECTOR3@@XZ
_TEXT	SEGMENT
?GetMoveDir@ioBaseChar@@QBEABUD3DXVECTOR3@@XZ PROC	; ioBaseChar::GetMoveDir, COMDAT
; _this$ = ecx

; 2596 : 	inline const D3DXVECTOR3& GetMoveDir() const { return m_vMoveDir; }

  00000	8d 81 b4 06 00
	00		 lea	 eax, DWORD PTR [ecx+1716]
  00006	c3		 ret	 0
?GetMoveDir@ioBaseChar@@QBEABUD3DXVECTOR3@@XZ ENDP	; ioBaseChar::GetMoveDir
_TEXT	ENDS
PUBLIC	?GetTargetRot@ioBaseChar@@QBEABUD3DXQUATERNION@@XZ ; ioBaseChar::GetTargetRot
; Function compile flags: /Ogsp
;	COMDAT ?GetTargetRot@ioBaseChar@@QBEABUD3DXQUATERNION@@XZ
_TEXT	SEGMENT
?GetTargetRot@ioBaseChar@@QBEABUD3DXQUATERNION@@XZ PROC	; ioBaseChar::GetTargetRot, COMDAT
; _this$ = ecx

; 2599 : 	inline const D3DXQUATERNION& GetTargetRot() const { return m_qtTargetRot; }

  00000	8d 81 a4 06 00
	00		 lea	 eax, DWORD PTR [ecx+1700]
  00006	c3		 ret	 0
?GetTargetRot@ioBaseChar@@QBEABUD3DXQUATERNION@@XZ ENDP	; ioBaseChar::GetTargetRot
_TEXT	ENDS
PUBLIC	?fabs@@YAMM@Z					; fabs
; Function compile flags: /Ogsp
; File c:\program files (x86)\microsoft visual studio 10.0\vc\include\math.h
;	COMDAT ?fabs@@YAMM@Z
_TEXT	SEGMENT
tv131 = 8						; size = 4
__X$ = 8						; size = 4
?fabs@@YAMM@Z PROC					; fabs, COMDAT

; 518  :         {return (fabsf(_X)); }

  00000	55		 push	 ebp
  00001	8b ec		 mov	 ebp, esp
  00003	d9 45 08	 fld	 DWORD PTR __X$[ebp]
  00006	d9 e1		 fabs
  00008	d9 5d 08	 fstp	 DWORD PTR tv131[ebp]
  0000b	d9 45 08	 fld	 DWORD PTR tv131[ebp]
  0000e	5d		 pop	 ebp
  0000f	c3		 ret	 0
?fabs@@YAMM@Z ENDP					; fabs
_TEXT	ENDS
PUBLIC	?SetChargingState@ioBaseChar@@QAEX_N@Z		; ioBaseChar::SetChargingState
; Function compile flags: /Ogsp
; File d:\lost saga for developer\youtube\tutorial\source\src\lsclient\iobasechar.h
;	COMDAT ?SetChargingState@ioBaseChar@@QAEX_N@Z
_TEXT	SEGMENT
_bState$ = 8						; size = 1
?SetChargingState@ioBaseChar@@QAEX_N@Z PROC		; ioBaseChar::SetChargingState, COMDAT
; _this$ = ecx

; 2937 : 	inline void SetChargingState( bool bState ) { m_bChargingState = bState; }

  00000	55		 push	 ebp
  00001	8b ec		 mov	 ebp, esp
  00003	8a 45 08	 mov	 al, BYTE PTR _bState$[ebp]
  00006	88 81 54 20 00
	00		 mov	 BYTE PTR [ecx+8276], al
  0000c	5d		 pop	 ebp
  0000d	c2 04 00	 ret	 4
?SetChargingState@ioBaseChar@@QAEX_N@Z ENDP		; ioBaseChar::SetChargingState
_TEXT	ENDS
PUBLIC	??_7bad_alloc@std@@6B@				; std::bad_alloc::`vftable'
PUBLIC	??0bad_alloc@std@@QAE@PBD@Z			; std::bad_alloc::bad_alloc
PUBLIC	??_R4bad_alloc@std@@6B@				; std::bad_alloc::`RTTI Complete Object Locator'
PUBLIC	??_R0?AVbad_alloc@std@@@8			; std::bad_alloc `RTTI Type Descriptor'
PUBLIC	??_R3bad_alloc@std@@8				; std::bad_alloc::`RTTI Class Hierarchy Descriptor'
PUBLIC	??_R2bad_alloc@std@@8				; std::bad_alloc::`RTTI Base Class Array'
PUBLIC	??_R1A@?0A@EA@bad_alloc@std@@8			; std::bad_alloc::`RTTI Base Class Descriptor at (0,-1,0,64)'
PUBLIC	??_R1A@?0A@EA@exception@std@@8			; std::exception::`RTTI Base Class Descriptor at (0,-1,0,64)'
PUBLIC	??_R0?AVexception@std@@@8			; std::exception `RTTI Type Descriptor'
PUBLIC	??_R3exception@std@@8				; std::exception::`RTTI Class Hierarchy Descriptor'
PUBLIC	??_R2exception@std@@8				; std::exception::`RTTI Base Class Array'
EXTRN	__imp_??0exception@std@@QAE@ABQBD@Z:PROC
EXTRN	??_7type_info@@6B@:QWORD			; type_info::`vftable'
EXTRN	??_Ebad_alloc@std@@UAEPAXI@Z:PROC		; std::bad_alloc::`vector deleting destructor'
EXTRN	?what@exception@std@@UBEPBDXZ:PROC		; std::exception::what
;	COMDAT ??_R2exception@std@@8
; File c:\program files (x86)\microsoft visual studio 10.0\vc\include\exception
rdata$r	SEGMENT
??_R2exception@std@@8 DD FLAT:??_R1A@?0A@EA@exception@std@@8 ; std::exception::`RTTI Base Class Array'
rdata$r	ENDS
;	COMDAT ??_R3exception@std@@8
rdata$r	SEGMENT
??_R3exception@std@@8 DD 00H				; std::exception::`RTTI Class Hierarchy Descriptor'
	DD	00H
	DD	01H
	DD	FLAT:??_R2exception@std@@8
rdata$r	ENDS
;	COMDAT ??_R0?AVexception@std@@@8
_DATA	SEGMENT
??_R0?AVexception@std@@@8 DD FLAT:??_7type_info@@6B@	; std::exception `RTTI Type Descriptor'
	DD	00H
	DB	'.?AVexception@std@@', 00H
_DATA	ENDS
;	COMDAT ??_R1A@?0A@EA@exception@std@@8
rdata$r	SEGMENT
??_R1A@?0A@EA@exception@std@@8 DD FLAT:??_R0?AVexception@std@@@8 ; std::exception::`RTTI Base Class Descriptor at (0,-1,0,64)'
	DD	00H
	DD	00H
	DD	0ffffffffH
	DD	00H
	DD	040H
	DD	FLAT:??_R3exception@std@@8
rdata$r	ENDS
;	COMDAT ??_R1A@?0A@EA@bad_alloc@std@@8
rdata$r	SEGMENT
??_R1A@?0A@EA@bad_alloc@std@@8 DD FLAT:??_R0?AVbad_alloc@std@@@8 ; std::bad_alloc::`RTTI Base Class Descriptor at (0,-1,0,64)'
	DD	01H
	DD	00H
	DD	0ffffffffH
	DD	00H
	DD	040H
	DD	FLAT:??_R3bad_alloc@std@@8
rdata$r	ENDS
;	COMDAT ??_R2bad_alloc@std@@8
rdata$r	SEGMENT
??_R2bad_alloc@std@@8 DD FLAT:??_R1A@?0A@EA@bad_alloc@std@@8 ; std::bad_alloc::`RTTI Base Class Array'
	DD	FLAT:??_R1A@?0A@EA@exception@std@@8
rdata$r	ENDS
;	COMDAT ??_R3bad_alloc@std@@8
rdata$r	SEGMENT
??_R3bad_alloc@std@@8 DD 00H				; std::bad_alloc::`RTTI Class Hierarchy Descriptor'
	DD	00H
	DD	02H
	DD	FLAT:??_R2bad_alloc@std@@8
rdata$r	ENDS
;	COMDAT ??_R0?AVbad_alloc@std@@@8
_DATA	SEGMENT
??_R0?AVbad_alloc@std@@@8 DD FLAT:??_7type_info@@6B@	; std::bad_alloc `RTTI Type Descriptor'
	DD	00H
	DB	'.?AVbad_alloc@std@@', 00H
_DATA	ENDS
;	COMDAT ??_R4bad_alloc@std@@6B@
rdata$r	SEGMENT
??_R4bad_alloc@std@@6B@ DD 00H				; std::bad_alloc::`RTTI Complete Object Locator'
	DD	00H
	DD	00H
	DD	FLAT:??_R0?AVbad_alloc@std@@@8
	DD	FLAT:??_R3bad_alloc@std@@8
rdata$r	ENDS
;	COMDAT ??_7bad_alloc@std@@6B@
CONST	SEGMENT
??_7bad_alloc@std@@6B@ DD FLAT:??_R4bad_alloc@std@@6B@	; std::bad_alloc::`vftable'
	DD	FLAT:??_Ebad_alloc@std@@UAEPAXI@Z
	DD	FLAT:?what@exception@std@@UBEPBDXZ
; Function compile flags: /Ogsp
CONST	ENDS
;	COMDAT ??0bad_alloc@std@@QAE@PBD@Z
_TEXT	SEGMENT
__Message$ = 8						; size = 4
??0bad_alloc@std@@QAE@PBD@Z PROC			; std::bad_alloc::bad_alloc, COMDAT
; _this$ = ecx

; 345  : 		{	// construct from message string

  00000	55		 push	 ebp
  00001	8b ec		 mov	 ebp, esp
  00003	56		 push	 esi
  00004	8d 45 08	 lea	 eax, DWORD PTR __Message$[ebp]
  00007	50		 push	 eax
  00008	8b f1		 mov	 esi, ecx
  0000a	ff 15 00 00 00
	00		 call	 DWORD PTR __imp_??0exception@std@@QAE@ABQBD@Z
  00010	c7 06 00 00 00
	00		 mov	 DWORD PTR [esi], OFFSET ??_7bad_alloc@std@@6B@

; 346  : 		}

  00016	8b c6		 mov	 eax, esi
  00018	5e		 pop	 esi
  00019	5d		 pop	 ebp
  0001a	c2 04 00	 ret	 4
??0bad_alloc@std@@QAE@PBD@Z ENDP			; std::bad_alloc::bad_alloc
_TEXT	ENDS
PUBLIC	??1bad_alloc@std@@UAE@XZ			; std::bad_alloc::~bad_alloc
EXTRN	__imp_??1exception@std@@UAE@XZ:PROC
; Function compile flags: /Ogsp
;	COMDAT ??1bad_alloc@std@@UAE@XZ
_TEXT	SEGMENT
??1bad_alloc@std@@UAE@XZ PROC				; std::bad_alloc::~bad_alloc, COMDAT
; _this$ = ecx

; 354  : 		{	// destroy the object

  00000	c7 01 00 00 00
	00		 mov	 DWORD PTR [ecx], OFFSET ??_7bad_alloc@std@@6B@

; 355  : 		}

  00006	ff 25 00 00 00
	00		 jmp	 DWORD PTR __imp_??1exception@std@@UAE@XZ
??1bad_alloc@std@@UAE@XZ ENDP				; std::bad_alloc::~bad_alloc
_TEXT	ENDS
EXTRN	??3@YAXPAX@Z:PROC				; operator delete
; Function compile flags: /Ogsp
;	COMDAT ??_Gbad_alloc@std@@UAEPAXI@Z
_TEXT	SEGMENT
___flags$ = 8						; size = 4
??_Gbad_alloc@std@@UAEPAXI@Z PROC			; std::bad_alloc::`scalar deleting destructor', COMDAT
; _this$ = ecx
  00000	55		 push	 ebp
  00001	8b ec		 mov	 ebp, esp
  00003	56		 push	 esi
  00004	8b f1		 mov	 esi, ecx
  00006	c7 06 00 00 00
	00		 mov	 DWORD PTR [esi], OFFSET ??_7bad_alloc@std@@6B@
  0000c	ff 15 00 00 00
	00		 call	 DWORD PTR __imp_??1exception@std@@UAE@XZ
  00012	f6 45 08 01	 test	 BYTE PTR ___flags$[ebp], 1
  00016	74 07		 je	 SHORT $LN1@scalar
  00018	56		 push	 esi
  00019	e8 00 00 00 00	 call	 ??3@YAXPAX@Z		; operator delete
  0001e	59		 pop	 ecx
$LN1@scalar:
  0001f	8b c6		 mov	 eax, esi
  00021	5e		 pop	 esi
  00022	5d		 pop	 ebp
  00023	c2 04 00	 ret	 4
??_Gbad_alloc@std@@UAEPAXI@Z ENDP			; std::bad_alloc::`scalar deleting destructor'
_TEXT	ENDS
PUBLIC	??2@YAPAXIPAX@Z					; operator new
; Function compile flags: /Ogsp
; File c:\program files (x86)\microsoft visual studio 10.0\vc\include\new
;	COMDAT ??2@YAPAXIPAX@Z
_TEXT	SEGMENT
___formal$ = 8						; size = 4
__Where$ = 12						; size = 4
??2@YAPAXIPAX@Z PROC					; operator new, COMDAT

; 56   : 	{	// construct array with placement at _Where

  00000	55		 push	 ebp
  00001	8b ec		 mov	 ebp, esp

; 57   : 	return (_Where);

  00003	8b 45 0c	 mov	 eax, DWORD PTR __Where$[ebp]

; 58   : 	}

  00006	5d		 pop	 ebp
  00007	c3		 ret	 0
??2@YAPAXIPAX@Z ENDP					; operator new
_TEXT	ENDS
PUBLIC	??3@YAXPAX0@Z					; operator delete
; Function compile flags: /Ogsp
;	COMDAT ??3@YAXPAX0@Z
_TEXT	SEGMENT
___formal$ = 8						; size = 4
___formal$ = 12						; size = 4
??3@YAXPAX0@Z PROC					; operator delete, COMDAT

; 62   : 	}

  00000	c3		 ret	 0
??3@YAXPAX0@Z ENDP					; operator delete
_TEXT	ENDS
PUBLIC	??_R0?AVioWeapon@@@8				; ioWeapon `RTTI Type Descriptor'
PUBLIC	??_R0?AVioZoneEffectWeapon@@@8			; ioZoneEffectWeapon `RTTI Type Descriptor'
PUBLIC	?ToZoneEffectWeapon@@YAPAVioZoneEffectWeapon@@PAVioWeapon@@@Z ; ToZoneEffectWeapon
EXTRN	___RTDynamicCast:PROC
;	COMDAT ??_R0?AVioWeapon@@@8
; File d:\lost saga for developer\youtube\tutorial\source\src\lsclient\iozoneeffectweapon.h
_DATA	SEGMENT
??_R0?AVioWeapon@@@8 DD FLAT:??_7type_info@@6B@		; ioWeapon `RTTI Type Descriptor'
	DD	00H
	DB	'.?AVioWeapon@@', 00H
_DATA	ENDS
;	COMDAT ??_R0?AVioZoneEffectWeapon@@@8
_DATA	SEGMENT
??_R0?AVioZoneEffectWeapon@@@8 DD FLAT:??_7type_info@@6B@ ; ioZoneEffectWeapon `RTTI Type Descriptor'
	DD	00H
	DB	'.?AVioZoneEffectWeapon@@', 00H
; Function compile flags: /Ogsp
_DATA	ENDS
;	COMDAT ?ToZoneEffectWeapon@@YAPAVioZoneEffectWeapon@@PAVioWeapon@@@Z
_TEXT	SEGMENT
_pWeapon$ = 8						; size = 4
?ToZoneEffectWeapon@@YAPAVioZoneEffectWeapon@@PAVioWeapon@@@Z PROC ; ToZoneEffectWeapon, COMDAT

; 217  : {

  00000	55		 push	 ebp
  00001	8b ec		 mov	 ebp, esp
  00003	56		 push	 esi

; 218  : 	if( !pWeapon || pWeapon->GetType() != ioWeapon::WT_ZONE_EFFECT )

  00004	8b 75 08	 mov	 esi, DWORD PTR _pWeapon$[ebp]
  00007	85 f6		 test	 esi, esi
  00009	74 28		 je	 SHORT $LN1@ToZoneEffe
  0000b	8b 06		 mov	 eax, DWORD PTR [esi]
  0000d	8b ce		 mov	 ecx, esi
  0000f	ff 90 10 01 00
	00		 call	 DWORD PTR [eax+272]
  00015	83 f8 08	 cmp	 eax, 8
  00018	75 19		 jne	 SHORT $LN1@ToZoneEffe

; 220  : 
; 221  : 	return dynamic_cast< ioZoneEffectWeapon* >( pWeapon );

  0001a	6a 00		 push	 0
  0001c	68 00 00 00 00	 push	 OFFSET ??_R0?AVioZoneEffectWeapon@@@8
  00021	68 00 00 00 00	 push	 OFFSET ??_R0?AVioWeapon@@@8
  00026	6a 00		 push	 0
  00028	56		 push	 esi
  00029	e8 00 00 00 00	 call	 ___RTDynamicCast
  0002e	83 c4 14	 add	 esp, 20			; 00000014H
  00031	eb 02		 jmp	 SHORT $LN3@ToZoneEffe
$LN1@ToZoneEffe:

; 219  : 		return NULL;

  00033	33 c0		 xor	 eax, eax
$LN3@ToZoneEffe:
  00035	5e		 pop	 esi

; 222  : }

  00036	5d		 pop	 ebp
  00037	c3		 ret	 0
?ToZoneEffectWeapon@@YAPAVioZoneEffectWeapon@@PAVioWeapon@@@Z ENDP ; ToZoneEffectWeapon
_TEXT	ENDS
PUBLIC	?_Adopt@_Iterator_base0@std@@QAEXPBX@Z		; std::_Iterator_base0::_Adopt
; Function compile flags: /Ogsp
; File c:\program files (x86)\microsoft visual studio 10.0\vc\include\xutility
;	COMDAT ?_Adopt@_Iterator_base0@std@@QAEXPBX@Z
_TEXT	SEGMENT
___formal$ = 8						; size = 4
?_Adopt@_Iterator_base0@std@@QAEXPBX@Z PROC		; std::_Iterator_base0::_Adopt, COMDAT
; _this$ = ecx

; 49   : 		}

  00000	c2 04 00	 ret	 4
?_Adopt@_Iterator_base0@std@@QAEXPBX@Z ENDP		; std::_Iterator_base0::_Adopt
_TEXT	ENDS
PUBLIC	??_R0?AVioObjectItem@@@8			; ioObjectItem `RTTI Type Descriptor'
PUBLIC	??_R0?AVioDrinkItem@@@8				; ioDrinkItem `RTTI Type Descriptor'
PUBLIC	?ToDrinkItem@@YAPAVioDrinkItem@@PAVioObjectItem@@@Z ; ToDrinkItem
;	COMDAT ??_R0?AVioObjectItem@@@8
; File d:\lost saga for developer\youtube\tutorial\source\src\lsclient\iodrinkitem.h
_DATA	SEGMENT
??_R0?AVioObjectItem@@@8 DD FLAT:??_7type_info@@6B@	; ioObjectItem `RTTI Type Descriptor'
	DD	00H
	DB	'.?AVioObjectItem@@', 00H
_DATA	ENDS
;	COMDAT ??_R0?AVioDrinkItem@@@8
_DATA	SEGMENT
??_R0?AVioDrinkItem@@@8 DD FLAT:??_7type_info@@6B@	; ioDrinkItem `RTTI Type Descriptor'
	DD	00H
	DB	'.?AVioDrinkItem@@', 00H
; Function compile flags: /Ogsp
_DATA	ENDS
;	COMDAT ?ToDrinkItem@@YAPAVioDrinkItem@@PAVioObjectItem@@@Z
_TEXT	SEGMENT
_pObject$ = 8						; size = 4
?ToDrinkItem@@YAPAVioDrinkItem@@PAVioObjectItem@@@Z PROC ; ToDrinkItem, COMDAT

; 48   : {

  00000	55		 push	 ebp
  00001	8b ec		 mov	 ebp, esp
  00003	56		 push	 esi

; 49   : 	if( !pObject || pObject->GetObjectSubType() != ioObjectItem::OST_DRINK )

  00004	8b 75 08	 mov	 esi, DWORD PTR _pObject$[ebp]
  00007	85 f6		 test	 esi, esi
  00009	74 28		 je	 SHORT $LN1@ToDrinkIte
  0000b	8b 06		 mov	 eax, DWORD PTR [esi]
  0000d	8b ce		 mov	 ecx, esi
  0000f	ff 90 04 03 00
	00		 call	 DWORD PTR [eax+772]
  00015	83 f8 02	 cmp	 eax, 2
  00018	75 19		 jne	 SHORT $LN1@ToDrinkIte

; 51   : 
; 52   : 	return dynamic_cast< ioDrinkItem* >( pObject );

  0001a	6a 00		 push	 0
  0001c	68 00 00 00 00	 push	 OFFSET ??_R0?AVioDrinkItem@@@8
  00021	68 00 00 00 00	 push	 OFFSET ??_R0?AVioObjectItem@@@8
  00026	6a 00		 push	 0
  00028	56		 push	 esi
  00029	e8 00 00 00 00	 call	 ___RTDynamicCast
  0002e	83 c4 14	 add	 esp, 20			; 00000014H
  00031	eb 02		 jmp	 SHORT $LN3@ToDrinkIte
$LN1@ToDrinkIte:

; 50   : 		return NULL;

  00033	33 c0		 xor	 eax, eax
$LN3@ToDrinkIte:
  00035	5e		 pop	 esi

; 53   : }

  00036	5d		 pop	 ebp
  00037	c3		 ret	 0
?ToDrinkItem@@YAPAVioDrinkItem@@PAVioObjectItem@@@Z ENDP ; ToDrinkItem
_TEXT	ENDS
PUBLIC	??0D3DXVECTOR3@@QAE@XZ				; D3DXVECTOR3::D3DXVECTOR3
; Function compile flags: /Ogsp
; File c:\program files (x86)\microsoft directx sdk (june 2010)\include\d3dx9math.h
;	COMDAT ??0D3DXVECTOR3@@QAE@XZ
_TEXT	SEGMENT
??0D3DXVECTOR3@@QAE@XZ PROC				; D3DXVECTOR3::D3DXVECTOR3, COMDAT
; _this$ = ecx

; 165  :     D3DXVECTOR3() {};

  00000	8b c1		 mov	 eax, ecx
  00002	c3		 ret	 0
??0D3DXVECTOR3@@QAE@XZ ENDP				; D3DXVECTOR3::D3DXVECTOR3
_TEXT	ENDS
PUBLIC	??0D3DXQUATERNION@@QAE@XZ			; D3DXQUATERNION::D3DXQUATERNION
; Function compile flags: /Ogsp
;	COMDAT ??0D3DXQUATERNION@@QAE@XZ
_TEXT	SEGMENT
??0D3DXQUATERNION@@QAE@XZ PROC				; D3DXQUATERNION::D3DXQUATERNION, COMDAT
; _this$ = ecx

; 429  :     D3DXQUATERNION() {}

  00000	8b c1		 mov	 eax, ecx
  00002	c3		 ret	 0
??0D3DXQUATERNION@@QAE@XZ ENDP				; D3DXQUATERNION::D3DXQUATERNION
_TEXT	ENDS
PUBLIC	??0D3DXVECTOR3@@QAE@MMM@Z			; D3DXVECTOR3::D3DXVECTOR3
; Function compile flags: /Ogsp
; File c:\program files (x86)\microsoft directx sdk (june 2010)\include\d3dx9math.inl
;	COMDAT ??0D3DXVECTOR3@@QAE@MMM@Z
_TEXT	SEGMENT
_fx$ = 8						; size = 4
_fy$ = 12						; size = 4
_fz$ = 16						; size = 4
??0D3DXVECTOR3@@QAE@MMM@Z PROC				; D3DXVECTOR3::D3DXVECTOR3, COMDAT
; _this$ = ecx

; 303  : {

  00000	55		 push	 ebp
  00001	8b ec		 mov	 ebp, esp

; 304  :     x = fx;

  00003	f3 0f 10 45 08	 movss	 xmm0, DWORD PTR _fx$[ebp]
  00008	8b c1		 mov	 eax, ecx
  0000a	f3 0f 11 00	 movss	 DWORD PTR [eax], xmm0

; 305  :     y = fy;

  0000e	f3 0f 10 45 0c	 movss	 xmm0, DWORD PTR _fy$[ebp]
  00013	f3 0f 11 40 04	 movss	 DWORD PTR [eax+4], xmm0

; 306  :     z = fz;

  00018	f3 0f 10 45 10	 movss	 xmm0, DWORD PTR _fz$[ebp]
  0001d	f3 0f 11 40 08	 movss	 DWORD PTR [eax+8], xmm0

; 307  : }

  00022	5d		 pop	 ebp
  00023	c2 0c 00	 ret	 12			; 0000000cH
??0D3DXVECTOR3@@QAE@MMM@Z ENDP				; D3DXVECTOR3::D3DXVECTOR3
_TEXT	ENDS
PUBLIC	__mask@@NegFloat@
PUBLIC	??GD3DXVECTOR3@@QBE?AU0@XZ			; D3DXVECTOR3::operator-
;	COMDAT __mask@@NegFloat@
CONST	SEGMENT
__mask@@NegFloat@ DB 00H, 00H, 00H, 080H, 00H, 00H, 00H, 080H, 00H, 00H, 00H
	DB	080H, 00H, 00H, 00H, 080H
; Function compile flags: /Ogsp
CONST	ENDS
;	COMDAT ??GD3DXVECTOR3@@QBE?AU0@XZ
_TEXT	SEGMENT
___$ReturnUdt$ = 8					; size = 4
??GD3DXVECTOR3@@QBE?AU0@XZ PROC				; D3DXVECTOR3::operator-, COMDAT
; _this$ = ecx

; 372  : {

  00000	55		 push	 ebp
  00001	8b ec		 mov	 ebp, esp

; 373  :     return D3DXVECTOR3(-x, -y, -z);

  00003	f3 0f 10 05 00
	00 00 00	 movss	 xmm0, DWORD PTR __mask@@NegFloat@
  0000b	8b 45 08	 mov	 eax, DWORD PTR ___$ReturnUdt$[ebp]
  0000e	f3 0f 10 09	 movss	 xmm1, DWORD PTR [ecx]
  00012	0f 57 c8	 xorps	 xmm1, xmm0
  00015	f3 0f 11 08	 movss	 DWORD PTR [eax], xmm1
  00019	f3 0f 10 49 04	 movss	 xmm1, DWORD PTR [ecx+4]
  0001e	0f 57 c8	 xorps	 xmm1, xmm0
  00021	f3 0f 11 48 04	 movss	 DWORD PTR [eax+4], xmm1
  00026	f3 0f 10 49 08	 movss	 xmm1, DWORD PTR [ecx+8]
  0002b	0f 57 c8	 xorps	 xmm1, xmm0
  0002e	f3 0f 11 48 08	 movss	 DWORD PTR [eax+8], xmm1

; 374  : }

  00033	5d		 pop	 ebp
  00034	c2 04 00	 ret	 4
??GD3DXVECTOR3@@QBE?AU0@XZ ENDP				; D3DXVECTOR3::operator-
_TEXT	ENDS
PUBLIC	?D3DXVec3Dot@@YAMPBUD3DXVECTOR3@@0@Z		; D3DXVec3Dot
; Function compile flags: /Ogsp
;	COMDAT ?D3DXVec3Dot@@YAMPBUD3DXVECTOR3@@0@Z
_TEXT	SEGMENT
tv188 = 8						; size = 4
_pV1$ = 8						; size = 4
_pV2$ = 12						; size = 4
?D3DXVec3Dot@@YAMPBUD3DXVECTOR3@@0@Z PROC		; D3DXVec3Dot, COMDAT

; 1736 : {

  00000	55		 push	 ebp
  00001	8b ec		 mov	 ebp, esp

; 1737 : #ifdef D3DX_DEBUG
; 1738 :     if(!pV1 || !pV2)
; 1739 :         return 0.0f;
; 1740 : #endif
; 1741 : 
; 1742 :     return pV1->x * pV2->x + pV1->y * pV2->y + pV1->z * pV2->z;

  00003	8b 45 08	 mov	 eax, DWORD PTR _pV1$[ebp]
  00006	8b 4d 0c	 mov	 ecx, DWORD PTR _pV2$[ebp]
  00009	d9 40 04	 fld	 DWORD PTR [eax+4]
  0000c	d8 49 04	 fmul	 DWORD PTR [ecx+4]
  0000f	d9 00		 fld	 DWORD PTR [eax]
  00011	d8 09		 fmul	 DWORD PTR [ecx]
  00013	de c1		 faddp	 ST(1), ST(0)
  00015	d9 40 08	 fld	 DWORD PTR [eax+8]
  00018	d8 49 08	 fmul	 DWORD PTR [ecx+8]
  0001b	de c1		 faddp	 ST(1), ST(0)
  0001d	d9 5d 08	 fstp	 DWORD PTR tv188[ebp]
  00020	d9 45 08	 fld	 DWORD PTR tv188[ebp]

; 1743 : }

  00023	5d		 pop	 ebp
  00024	c3		 ret	 0
?D3DXVec3Dot@@YAMPBUD3DXVECTOR3@@0@Z ENDP		; D3DXVec3Dot
_TEXT	ENDS
PUBLIC	?D3DXVec3Cross@@YAPAUD3DXVECTOR3@@PAU1@PBU1@1@Z	; D3DXVec3Cross
; Function compile flags: /Ogsp
;	COMDAT ?D3DXVec3Cross@@YAPAUD3DXVECTOR3@@PAU1@PBU1@1@Z
_TEXT	SEGMENT
_v$ = -12						; size = 12
_pOut$ = 8						; size = 4
_pV1$ = 12						; size = 4
_pV2$ = 16						; size = 4
?D3DXVec3Cross@@YAPAUD3DXVECTOR3@@PAU1@PBU1@1@Z PROC	; D3DXVec3Cross, COMDAT

; 1747 : {

  00000	55		 push	 ebp
  00001	8b ec		 mov	 ebp, esp
  00003	83 ec 0c	 sub	 esp, 12			; 0000000cH

; 1757 :     v.z = pV1->x * pV2->y - pV1->y * pV2->x;
; 1758 : 
; 1759 :     *pOut = v;

  00006	56		 push	 esi
  00007	57		 push	 edi

; 1748 :     D3DXVECTOR3 v;
; 1749 : 
; 1750 : #ifdef D3DX_DEBUG
; 1751 :     if(!pOut || !pV1 || !pV2)
; 1752 :         return NULL;
; 1753 : #endif
; 1754 : 
; 1755 :     v.x = pV1->y * pV2->z - pV1->z * pV2->y;

  00008	8b 45 0c	 mov	 eax, DWORD PTR _pV1$[ebp]
  0000b	f3 0f 10 40 04	 movss	 xmm0, DWORD PTR [eax+4]
  00010	f3 0f 10 50 08	 movss	 xmm2, DWORD PTR [eax+8]
  00015	8b 4d 10	 mov	 ecx, DWORD PTR _pV2$[ebp]
  00018	f3 0f 10 49 08	 movss	 xmm1, DWORD PTR [ecx+8]
  0001d	f3 0f 10 59 04	 movss	 xmm3, DWORD PTR [ecx+4]
  00022	0f 5a e8	 cvtps2pd xmm5, xmm0
  00025	0f 5a e1	 cvtps2pd xmm4, xmm1
  00028	0f 5a f2	 cvtps2pd xmm6, xmm2
  0002b	f2 0f 59 e5	 mulsd	 xmm4, xmm5

; 1756 :     v.y = pV1->z * pV2->x - pV1->x * pV2->z;

  0002f	0f 5a d2	 cvtps2pd xmm2, xmm2
  00032	0f 5a c9	 cvtps2pd xmm1, xmm1
  00035	0f 5a eb	 cvtps2pd xmm5, xmm3
  00038	f2 0f 59 ee	 mulsd	 xmm5, xmm6
  0003c	f2 0f 5c e5	 subsd	 xmm4, xmm5
  00040	f3 0f 10 28	 movss	 xmm5, DWORD PTR [eax]

; 1757 :     v.z = pV1->x * pV2->y - pV1->y * pV2->x;
; 1758 : 
; 1759 :     *pOut = v;

  00044	8b 45 08	 mov	 eax, DWORD PTR _pOut$[ebp]
  00047	66 0f 5a e4	 cvtpd2ps xmm4, xmm4
  0004b	f3 0f 11 65 f4	 movss	 DWORD PTR _v$[ebp], xmm4
  00050	f3 0f 10 21	 movss	 xmm4, DWORD PTR [ecx]
  00054	0f 5a f4	 cvtps2pd xmm6, xmm4
  00057	f2 0f 59 f2	 mulsd	 xmm6, xmm2
  0005b	0f 5a d5	 cvtps2pd xmm2, xmm5
  0005e	f2 0f 59 d1	 mulsd	 xmm2, xmm1
  00062	f2 0f 5c f2	 subsd	 xmm6, xmm2
  00066	66 0f 5a ce	 cvtpd2ps xmm1, xmm6
  0006a	f3 0f 11 4d f8	 movss	 DWORD PTR _v$[ebp+4], xmm1
  0006f	0f 5a c0	 cvtps2pd xmm0, xmm0
  00072	0f 5a d3	 cvtps2pd xmm2, xmm3
  00075	0f 5a cd	 cvtps2pd xmm1, xmm5
  00078	f2 0f 59 ca	 mulsd	 xmm1, xmm2
  0007c	8d 75 f4	 lea	 esi, DWORD PTR _v$[ebp]
  0007f	8b f8		 mov	 edi, eax
  00081	0f 5a d4	 cvtps2pd xmm2, xmm4
  00084	f2 0f 59 d0	 mulsd	 xmm2, xmm0
  00088	f2 0f 5c ca	 subsd	 xmm1, xmm2
  0008c	66 0f 5a c1	 cvtpd2ps xmm0, xmm1
  00090	f3 0f 11 45 fc	 movss	 DWORD PTR _v$[ebp+8], xmm0
  00095	a5		 movsd
  00096	a5		 movsd
  00097	a5		 movsd
  00098	5f		 pop	 edi
  00099	5e		 pop	 esi

; 1760 :     return pOut;
; 1761 : }

  0009a	c9		 leave
  0009b	c3		 ret	 0
?D3DXVec3Cross@@YAPAUD3DXVECTOR3@@PAU1@PBU1@1@Z ENDP	; D3DXVec3Cross
_TEXT	ENDS
PUBLIC	?GetSubType@ioRunChargeItem2@@UBE?AW4WeaponSubType@ioWeaponItem@@XZ ; ioRunChargeItem2::GetSubType
; Function compile flags: /Ogsp
; File d:\lost saga for developer\youtube\tutorial\source\src\lsclient\iorunchargeitem2.cpp
;	COMDAT ?GetSubType@ioRunChargeItem2@@UBE?AW4WeaponSubType@ioWeaponItem@@XZ
_TEXT	SEGMENT
?GetSubType@ioRunChargeItem2@@UBE?AW4WeaponSubType@ioWeaponItem@@XZ PROC ; ioRunChargeItem2::GetSubType, COMDAT
; _this$ = ecx

; 126  : 	return WST_RUN_CHARGE2;

  00000	6a 24		 push	 36			; 00000024H
  00002	58		 pop	 eax

; 127  : }

  00003	c3		 ret	 0
?GetSubType@ioRunChargeItem2@@UBE?AW4WeaponSubType@ioWeaponItem@@XZ ENDP ; ioRunChargeItem2::GetSubType
_TEXT	ENDS
PUBLIC	?ClearState@ioRunChargeItem2@@IAEXXZ		; ioRunChargeItem2::ClearState
; Function compile flags: /Ogsp
;	COMDAT ?ClearState@ioRunChargeItem2@@IAEXXZ
_TEXT	SEGMENT
?ClearState@ioRunChargeItem2@@IAEXXZ PROC		; ioRunChargeItem2::ClearState, COMDAT
; _this$ = ecx

; 186  : 	m_ChargeState = CS_NONE;
; 187  : 	m_RunState = RS_NONE;
; 188  : 
; 189  : 	m_iSkillInput = -1;

  00000	83 89 fc 0e 00
	00 ff		 or	 DWORD PTR [ecx+3836], -1
  00007	33 c0		 xor	 eax, eax
  00009	89 81 54 19 00
	00		 mov	 DWORD PTR [ecx+6484], eax
  0000f	89 81 58 19 00
	00		 mov	 DWORD PTR [ecx+6488], eax

; 190  : 	m_bEnableDefenseState = false;

  00015	66 89 81 00 0f
	00 00		 mov	 WORD PTR [ecx+3840], ax

; 191  : 	m_bEnableAttackState = false;
; 192  : 	m_bEnableJumpState = false;

  0001c	88 81 02 0f 00
	00		 mov	 BYTE PTR [ecx+3842], al

; 193  : 
; 194  : 	m_CurDirKey = ioUserKeyInput::DKI_NONE;

  00022	89 81 c8 1a 00
	00		 mov	 DWORD PTR [ecx+6856], eax

; 195  : }

  00028	c3		 ret	 0
?ClearState@ioRunChargeItem2@@IAEXXZ ENDP		; ioRunChargeItem2::ClearState
_TEXT	ENDS
PUBLIC	?OnRetreatState@ioRunChargeItem2@@IAEXPAVioBaseChar@@@Z ; ioRunChargeItem2::OnRetreatState
EXTRN	?SetForcePower@ioBaseChar@@QAEXABUD3DXVECTOR3@@MM_N@Z:PROC ; ioBaseChar::SetForcePower
EXTRN	?SetState@ioBaseChar@@QAEXH_N@Z:PROC		; ioBaseChar::SetState
EXTRN	?SetJumpState@ioBaseChar@@QAEX_N@Z:PROC		; ioBaseChar::SetJumpState
EXTRN	?IsBuffLimitJump@ioBaseChar@@QBE_NXZ:PROC	; ioBaseChar::IsBuffLimitJump
EXTRN	?IsCanJumpState@ioBaseChar@@QAE_NXZ:PROC	; ioBaseChar::IsCanJumpState
EXTRN	?SetDefenseState@ioBaseChar@@QAEXXZ:PROC	; ioBaseChar::SetDefenseState
EXTRN	?IsBuffLimitDefense@ioBaseChar@@QBE_NXZ:PROC	; ioBaseChar::IsBuffLimitDefense
EXTRN	?IsEnableDefenseByObject@ioBaseChar@@QAE_NXZ:PROC ; ioBaseChar::IsEnableDefenseByObject
EXTRN	?SetUseSkill@ioBaseChar@@QAE_NHW4SkillUseType@@_N1@Z:PROC ; ioBaseChar::SetUseSkill
EXTRN	?IsBuffLimitSkill@ioBaseChar@@QBE_NXZ:PROC	; ioBaseChar::IsBuffLimitSkill
EXTRN	?SetNormalAttack@ioBaseChar@@QAEXH@Z:PROC	; ioBaseChar::SetNormalAttack
EXTRN	?IsBuffLimitAttack@ioBaseChar@@QBE_NXZ:PROC	; ioBaseChar::IsBuffLimitAttack
EXTRN	?IsCanNormalAttack@ioBaseChar@@QBE_NXZ:PROC	; ioBaseChar::IsCanNormalAttack
EXTRN	?SetDrinkState@ioBaseChar@@QAEXXZ:PROC		; ioBaseChar::SetDrinkState
EXTRN	?GetObjectA@ioBaseChar@@QBEPAVioObjectItem@@XZ:PROC ; ioBaseChar::GetObjectA
EXTRN	?IsChatModeState@ioBaseChar@@QBE_N_N@Z:PROC	; ioBaseChar::IsChatModeState
EXTRN	?IsDefenseKeyDown@ioBaseChar@@QBE_NXZ:PROC	; ioBaseChar::IsDefenseKeyDown
EXTRN	?IsJumpKeyDown@ioBaseChar@@QBE_NXZ:PROC		; ioBaseChar::IsJumpKeyDown
EXTRN	?IsAttackKeyDown@ioBaseChar@@QBE_NXZ:PROC	; ioBaseChar::IsAttackKeyDown
EXTRN	?NormalAttackOver@ioBaseChar@@QAEX_N@Z:PROC	; ioBaseChar::NormalAttackOver
EXTRN	__imp_?GetLoopSec@ioFrameTimer@@QBEKXZ:PROC
EXTRN	__imp_?GetSingleton@ioFrameTimer@@SAAAV1@XZ:PROC
; Function compile flags: /Ogsp
;	COMDAT ?OnRetreatState@ioRunChargeItem2@@IAEXPAVioBaseChar@@@Z
_TEXT	SEGMENT
_pOwner$ = 8						; size = 4
?OnRetreatState@ioRunChargeItem2@@IAEXPAVioBaseChar@@@Z PROC ; ioRunChargeItem2::OnRetreatState, COMDAT
; _this$ = ecx

; 237  : {

  00000	55		 push	 ebp
  00001	8b ec		 mov	 ebp, esp
  00003	53		 push	 ebx
  00004	56		 push	 esi
  00005	57		 push	 edi
  00006	8b f1		 mov	 esi, ecx

; 238  : 	DWORD dwCurTime = FRAMEGETTIME();

  00008	ff 15 00 00 00
	00		 call	 DWORD PTR __imp_?GetSingleton@ioFrameTimer@@SAAAV1@XZ
  0000e	8b c8		 mov	 ecx, eax
  00010	ff 15 00 00 00
	00		 call	 DWORD PTR __imp_?GetLoopSec@ioFrameTimer@@QBEKXZ
  00016	8b f8		 mov	 edi, eax

; 239  : 
; 240  : 	if( m_dwRetreatEndTime > 0 && m_dwRetreatEndTime < dwCurTime )

  00018	8b 86 44 1b 00
	00		 mov	 eax, DWORD PTR [esi+6980]
  0001e	33 db		 xor	 ebx, ebx
  00020	3b c3		 cmp	 eax, ebx
  00022	0f 86 4a 01 00
	00		 jbe	 $LN15@OnRetreatS
  00028	3b c7		 cmp	 eax, edi
  0002a	0f 83 42 01 00
	00		 jae	 $LN15@OnRetreatS

; 241  : 	{
; 242  : 		pOwner->NormalAttackOver();

  00030	8b 7d 08	 mov	 edi, DWORD PTR _pOwner$[ebp]
  00033	6a 01		 push	 1
  00035	8b cf		 mov	 ecx, edi
  00037	e8 00 00 00 00	 call	 ?NormalAttackOver@ioBaseChar@@QAEX_N@Z ; ioBaseChar::NormalAttackOver

; 243  : 
; 244  : 		// 공격키가 눌러져 있으면 공격 상태 처리
; 245  : 		if( pOwner->IsAttackKeyDown() && 
; 246  : 			!pOwner->IsJumpKeyDown() &&
; 247  : 			!pOwner->IsDefenseKeyDown() &&
; 248  : 			!pOwner->IsChatModeState(true) )

  0003c	8b cf		 mov	 ecx, edi
  0003e	e8 00 00 00 00	 call	 ?IsAttackKeyDown@ioBaseChar@@QBE_NXZ ; ioBaseChar::IsAttackKeyDown
  00043	84 c0		 test	 al, al
  00045	74 71		 je	 SHORT $LN14@OnRetreatS
  00047	8b cf		 mov	 ecx, edi
  00049	e8 00 00 00 00	 call	 ?IsJumpKeyDown@ioBaseChar@@QBE_NXZ ; ioBaseChar::IsJumpKeyDown
  0004e	84 c0		 test	 al, al
  00050	75 66		 jne	 SHORT $LN14@OnRetreatS
  00052	8b cf		 mov	 ecx, edi
  00054	e8 00 00 00 00	 call	 ?IsDefenseKeyDown@ioBaseChar@@QBE_NXZ ; ioBaseChar::IsDefenseKeyDown
  00059	84 c0		 test	 al, al
  0005b	75 5b		 jne	 SHORT $LN14@OnRetreatS
  0005d	6a 01		 push	 1
  0005f	8b cf		 mov	 ecx, edi
  00061	e8 00 00 00 00	 call	 ?IsChatModeState@ioBaseChar@@QBE_N_N@Z ; ioBaseChar::IsChatModeState
  00066	84 c0		 test	 al, al
  00068	75 4e		 jne	 SHORT $LN14@OnRetreatS

; 249  : 		{
; 250  : 			ClearState();

  0006a	8b ce		 mov	 ecx, esi
$LN18@OnRetreatS:
  0006c	e8 00 00 00 00	 call	 ?ClearState@ioRunChargeItem2@@IAEXXZ ; ioRunChargeItem2::ClearState

; 251  : 
; 252  : 			ioObjectItem *pItem = pOwner->GetObject();

  00071	8b cf		 mov	 ecx, edi
  00073	e8 00 00 00 00	 call	 ?GetObjectA@ioBaseChar@@QBEPAVioObjectItem@@XZ ; ioBaseChar::GetObjectA

; 253  : 			if( ToDrinkItem( pItem ) )

  00078	50		 push	 eax
  00079	e8 00 00 00 00	 call	 ?ToDrinkItem@@YAPAVioDrinkItem@@PAVioObjectItem@@@Z ; ToDrinkItem
  0007e	59		 pop	 ecx

; 254  : 			{
; 255  : 				pOwner->SetDrinkState();

  0007f	8b cf		 mov	 ecx, edi
  00081	85 c0		 test	 eax, eax
  00083	74 0a		 je	 SHORT $LN13@OnRetreatS
  00085	e8 00 00 00 00	 call	 ?SetDrinkState@ioBaseChar@@QAEXXZ ; ioBaseChar::SetDrinkState

; 256  : 			}
; 257  : 			else

  0008a	e9 3f 01 00 00	 jmp	 $LN1@OnRetreatS
$LN13@OnRetreatS:

; 258  : 			{
; 259  : 				if( pOwner->IsCanNormalAttack() && !pOwner->IsBuffLimitAttack() )

  0008f	e8 00 00 00 00	 call	 ?IsCanNormalAttack@ioBaseChar@@QBE_NXZ ; ioBaseChar::IsCanNormalAttack
  00094	84 c0		 test	 al, al
  00096	0f 84 32 01 00
	00		 je	 $LN1@OnRetreatS
  0009c	8b cf		 mov	 ecx, edi
  0009e	e8 00 00 00 00	 call	 ?IsBuffLimitAttack@ioBaseChar@@QBE_NXZ ; ioBaseChar::IsBuffLimitAttack
  000a3	84 c0		 test	 al, al
  000a5	0f 85 23 01 00
	00		 jne	 $LN1@OnRetreatS

; 260  : 				{
; 261  : 					pOwner->SetNormalAttack( 0 );

  000ab	53		 push	 ebx
  000ac	8b cf		 mov	 ecx, edi
  000ae	e8 00 00 00 00	 call	 ?SetNormalAttack@ioBaseChar@@QAEXH@Z ; ioBaseChar::SetNormalAttack

; 262  : 				}
; 263  : 			}
; 264  : 
; 265  : 			return;

  000b3	e9 16 01 00 00	 jmp	 $LN1@OnRetreatS
$LN14@OnRetreatS:

; 266  : 		}
; 267  : 
; 268  : 		// 필살기 예약되었으면 필살기 발동
; 269  : 		if( m_iSkillInput >= 0 && !pOwner->IsBuffLimitSkill() && pOwner->SetUseSkill( m_iSkillInput, SUT_NORMAL ) )

  000b8	39 9e fc 0e 00
	00		 cmp	 DWORD PTR [esi+3836], ebx
  000be	7c 32		 jl	 SHORT $LN10@OnRetreatS
  000c0	8b cf		 mov	 ecx, edi
  000c2	e8 00 00 00 00	 call	 ?IsBuffLimitSkill@ioBaseChar@@QBE_NXZ ; ioBaseChar::IsBuffLimitSkill
  000c7	84 c0		 test	 al, al
  000c9	75 27		 jne	 SHORT $LN10@OnRetreatS
  000cb	53		 push	 ebx
  000cc	53		 push	 ebx
  000cd	53		 push	 ebx
  000ce	ff b6 fc 0e 00
	00		 push	 DWORD PTR [esi+3836]
  000d4	8b cf		 mov	 ecx, edi
  000d6	e8 00 00 00 00	 call	 ?SetUseSkill@ioBaseChar@@QAE_NHW4SkillUseType@@_N1@Z ; ioBaseChar::SetUseSkill
  000db	84 c0		 test	 al, al
  000dd	74 13		 je	 SHORT $LN10@OnRetreatS

; 270  : 		{
; 271  : 			ClearState();

  000df	8b ce		 mov	 ecx, esi
  000e1	e8 00 00 00 00	 call	 ?ClearState@ioRunChargeItem2@@IAEXXZ ; ioRunChargeItem2::ClearState

; 272  : 			m_iSkillInput = -1;

  000e6	83 8e fc 0e 00
	00 ff		 or	 DWORD PTR [esi+3836], -1

; 273  : 			return;

  000ed	e9 dc 00 00 00	 jmp	 $LN1@OnRetreatS
$LN10@OnRetreatS:

; 274  : 		}
; 275  : 
; 276  : 		// 방어
; 277  : 		if( m_bEnableDefenseState && pOwner->IsEnableDefenseByObject() && !pOwner->IsBuffLimitDefense() )

  000f2	38 9e 00 0f 00
	00		 cmp	 BYTE PTR [esi+3840], bl
  000f8	74 29		 je	 SHORT $LN9@OnRetreatS
  000fa	8b cf		 mov	 ecx, edi
  000fc	e8 00 00 00 00	 call	 ?IsEnableDefenseByObject@ioBaseChar@@QAE_NXZ ; ioBaseChar::IsEnableDefenseByObject
  00101	84 c0		 test	 al, al
  00103	74 1e		 je	 SHORT $LN9@OnRetreatS
  00105	8b cf		 mov	 ecx, edi
  00107	e8 00 00 00 00	 call	 ?IsBuffLimitDefense@ioBaseChar@@QBE_NXZ ; ioBaseChar::IsBuffLimitDefense
  0010c	84 c0		 test	 al, al
  0010e	75 13		 jne	 SHORT $LN9@OnRetreatS

; 278  : 		{
; 279  : 			ClearState();

  00110	8b ce		 mov	 ecx, esi
  00112	e8 00 00 00 00	 call	 ?ClearState@ioRunChargeItem2@@IAEXXZ ; ioRunChargeItem2::ClearState

; 280  : 			pOwner->SetDefenseState();

  00117	8b cf		 mov	 ecx, edi
  00119	e8 00 00 00 00	 call	 ?SetDefenseState@ioBaseChar@@QAEXXZ ; ioBaseChar::SetDefenseState

; 281  : 			return;

  0011e	e9 ab 00 00 00	 jmp	 $LN1@OnRetreatS
$LN9@OnRetreatS:

; 282  : 		}
; 283  : 
; 284  : 		// 점프
; 285  : 		if( m_bEnableJumpState && pOwner->IsCanJumpState() && !pOwner->IsBuffLimitJump() )

  00123	38 9e 02 0f 00
	00		 cmp	 BYTE PTR [esi+3842], bl
  00129	74 28		 je	 SHORT $LN8@OnRetreatS
  0012b	8b cf		 mov	 ecx, edi
  0012d	e8 00 00 00 00	 call	 ?IsCanJumpState@ioBaseChar@@QAE_NXZ ; ioBaseChar::IsCanJumpState
  00132	84 c0		 test	 al, al
  00134	74 1d		 je	 SHORT $LN8@OnRetreatS
  00136	8b cf		 mov	 ecx, edi
  00138	e8 00 00 00 00	 call	 ?IsBuffLimitJump@ioBaseChar@@QBE_NXZ ; ioBaseChar::IsBuffLimitJump
  0013d	84 c0		 test	 al, al
  0013f	75 12		 jne	 SHORT $LN8@OnRetreatS

; 286  : 		{
; 287  : 			ClearState();

  00141	8b ce		 mov	 ecx, esi
  00143	e8 00 00 00 00	 call	 ?ClearState@ioRunChargeItem2@@IAEXXZ ; ioRunChargeItem2::ClearState

; 288  : 			pOwner->SetJumpState();

  00148	6a 01		 push	 1
  0014a	8b cf		 mov	 ecx, edi
  0014c	e8 00 00 00 00	 call	 ?SetJumpState@ioBaseChar@@QAEX_N@Z ; ioBaseChar::SetJumpState

; 289  : 			return;

  00151	eb 7b		 jmp	 SHORT $LN1@OnRetreatS
$LN8@OnRetreatS:

; 290  : 		}
; 291  : 
; 292  : 		// 공격
; 293  : 		if( m_bEnableAttackState )
; 294  : 		{
; 295  : 			ClearState();

  00153	8b ce		 mov	 ecx, esi
  00155	38 9e 01 0f 00
	00		 cmp	 BYTE PTR [esi+3841], bl

; 296  : 			ioObjectItem *pItem = pOwner->GetObject();
; 297  : 			if( ToDrinkItem( pItem ) )
; 298  : 			{
; 299  : 				pOwner->SetDrinkState();
; 300  : 			}
; 301  : 			else

  0015b	0f 85 0b ff ff
	ff		 jne	 $LN18@OnRetreatS

; 302  : 			{
; 303  : 				if( pOwner->IsCanNormalAttack() && !pOwner->IsBuffLimitAttack() )
; 304  : 				{
; 305  : 					pOwner->SetNormalAttack( 0 );
; 306  : 				}
; 307  : 			}
; 308  : 			return;
; 309  : 		}
; 310  : 
; 311  : 		ClearState();

  00161	e8 00 00 00 00	 call	 ?ClearState@ioRunChargeItem2@@IAEXXZ ; ioRunChargeItem2::ClearState

; 312  : 		pOwner->SetState( CS_DELAY );

  00166	6a 01		 push	 1
  00168	53		 push	 ebx
  00169	8b cf		 mov	 ecx, edi
  0016b	e8 00 00 00 00	 call	 ?SetState@ioBaseChar@@QAEXH_N@Z ; ioBaseChar::SetState

; 313  : 		return;

  00170	eb 5c		 jmp	 SHORT $LN1@OnRetreatS
$LN15@OnRetreatS:

; 314  : 	}
; 315  : 	else
; 316  : 	{
; 317  : 		if( m_dwKeyReserveTime > 0 && m_dwKeyReserveTime < dwCurTime )

  00172	8b 86 f8 0e 00
	00		 mov	 eax, DWORD PTR [esi+3832]
  00178	3b c3		 cmp	 eax, ebx
  0017a	76 11		 jbe	 SHORT $LN2@OnRetreatS
  0017c	3b c7		 cmp	 eax, edi
  0017e	73 0d		 jae	 SHORT $LN2@OnRetreatS

; 318  : 		{
; 319  : 			CheckReserve( pOwner );

  00180	ff 75 08	 push	 DWORD PTR _pOwner$[ebp]
  00183	8b 06		 mov	 eax, DWORD PTR [esi]
  00185	8b ce		 mov	 ecx, esi
  00187	ff 90 ac 01 00
	00		 call	 DWORD PTR [eax+428]
$LN2@OnRetreatS:

; 320  : 		}
; 321  : 
; 322  : 		if( m_dwRetreatForceTime > 0 && m_dwRetreatForceTime < dwCurTime )

  0018d	8b 8e 5c 1b 00
	00		 mov	 ecx, DWORD PTR [esi+7004]
  00193	3b cb		 cmp	 ecx, ebx
  00195	76 37		 jbe	 SHORT $LN1@OnRetreatS
  00197	3b cf		 cmp	 ecx, edi
  00199	73 33		 jae	 SHORT $LN1@OnRetreatS

; 323  : 		{
; 324  : 			m_dwRetreatForceTime = 0;
; 325  : 			pOwner->SetForcePower( m_vForceDir, m_fRetreatForceAmt, m_fRetreatForceFric );

  0019b	f3 0f 10 86 58
	1b 00 00	 movss	 xmm0, DWORD PTR [esi+7000]
  001a3	53		 push	 ebx
  001a4	51		 push	 ecx
  001a5	51		 push	 ecx
  001a6	8b 4d 08	 mov	 ecx, DWORD PTR _pOwner$[ebp]
  001a9	f3 0f 11 44 24
	04		 movss	 DWORD PTR [esp+4], xmm0
  001af	f3 0f 10 86 54
	1b 00 00	 movss	 xmm0, DWORD PTR [esi+6996]
  001b7	89 9e 5c 1b 00
	00		 mov	 DWORD PTR [esi+7004], ebx
  001bd	81 c6 48 1b 00
	00		 add	 esi, 6984		; 00001b48H
  001c3	f3 0f 11 04 24	 movss	 DWORD PTR [esp], xmm0
  001c8	56		 push	 esi
  001c9	e8 00 00 00 00	 call	 ?SetForcePower@ioBaseChar@@QAEXABUD3DXVECTOR3@@MM_N@Z ; ioBaseChar::SetForcePower
$LN1@OnRetreatS:
  001ce	5f		 pop	 edi
  001cf	5e		 pop	 esi
  001d0	5b		 pop	 ebx

; 326  : 		}
; 327  : 	}
; 328  : }

  001d1	5d		 pop	 ebp
  001d2	c2 04 00	 ret	 4
?OnRetreatState@ioRunChargeItem2@@IAEXPAVioBaseChar@@@Z ENDP ; ioRunChargeItem2::OnRetreatState
_TEXT	ENDS
PUBLIC	__real@3f800000
PUBLIC	__$ArrayPad$
PUBLIC	?ChangeToNormalAttack@ioRunChargeItem2@@IAEXPAVioBaseChar@@@Z ; ioRunChargeItem2::ChangeToNormalAttack
EXTRN	??1SP2Packet@@UAE@XZ:PROC			; SP2Packet::~SP2Packet
EXTRN	?SendToAllPlayingUser@P2PNetwork@@YAXAAVSP2Packet@@PAVioBaseChar@@@Z:PROC ; P2PNetwork::SendToAllPlayingUser
EXTRN	??6SP2Packet@@QAEAAV0@H@Z:PROC			; SP2Packet::operator<<
EXTRN	?FillItemGaugePacketHeader@ioAttackableItem@@QAEXPAVioBaseChar@@AAVSP2Packet@@@Z:PROC ; ioAttackableItem::FillItemGaugePacketHeader
EXTRN	??0SP2Packet@@QAE@K@Z:PROC			; SP2Packet::SP2Packet
EXTRN	?ApplyNormalAttackResult@ioBaseChar@@QAEXH_N@Z:PROC ; ioBaseChar::ApplyNormalAttackResult
EXTRN	?SetNormalAttackByAttribute@ioBaseChar@@QAEKABUAttackAttribute@@_NMM@Z:PROC ; ioBaseChar::SetNormalAttackByAttribute
EXTRN	?GetAttribute@ioFormalAttackGrp@@QBEPBUAttackAttribute@@W4AttackType@@H@Z:PROC ; ioFormalAttackGrp::GetAttribute
EXTRN	?SetAttackMoveEnable@ioBaseChar@@QAEX_N@Z:PROC	; ioBaseChar::SetAttackMoveEnable
EXTRN	___security_cookie:DWORD
EXTRN	___CxxFrameHandler3:PROC
EXTRN	@__security_check_cookie@4:PROC
EXTRN	__chkstk:PROC
;	COMDAT __real@3f800000
; File d:\lost saga for developer\youtube\tutorial\source\src\lsclient\iobasechar.h
CONST	SEGMENT
__real@3f800000 DD 03f800000r			; 1
CONST	ENDS
;	COMDAT xdata$x
xdata$x	SEGMENT
__unwindtable$?ChangeToNormalAttack@ioRunChargeItem2@@IAEXPAVioBaseChar@@@Z DD 0ffffffffH
	DD	FLAT:__unwindfunclet$?ChangeToNormalAttack@ioRunChargeItem2@@IAEXPAVioBaseChar@@@Z$0
__ehfuncinfo$?ChangeToNormalAttack@ioRunChargeItem2@@IAEXPAVioBaseChar@@@Z DD 019930522H
	DD	01H
	DD	FLAT:__unwindtable$?ChangeToNormalAttack@ioRunChargeItem2@@IAEXPAVioBaseChar@@@Z
	DD	2 DUP(00H)
	DD	2 DUP(00H)
	DD	00H
	DD	01H
; Function compile flags: /Ogsp
; File d:\lost saga for developer\youtube\tutorial\source\src\lsclient\iorunchargeitem2.cpp
xdata$x	ENDS
;	COMDAT ?ChangeToNormalAttack@ioRunChargeItem2@@IAEXPAVioBaseChar@@@Z
_TEXT	SEGMENT
_kPacket$608145 = -32808				; size = 32792
__$ArrayPad$ = -16					; size = 4
__$EHRec$ = -12						; size = 12
_pOwner$ = 8						; size = 4
?ChangeToNormalAttack@ioRunChargeItem2@@IAEXPAVioBaseChar@@@Z PROC ; ioRunChargeItem2::ChangeToNormalAttack, COMDAT
; _this$ = ecx

; 347  : {

  00000	55		 push	 ebp
  00001	8b ec		 mov	 ebp, esp
  00003	6a ff		 push	 -1
  00005	68 00 00 00 00	 push	 __ehhandler$?ChangeToNormalAttack@ioRunChargeItem2@@IAEXPAVioBaseChar@@@Z
  0000a	64 a1 00 00 00
	00		 mov	 eax, DWORD PTR fs:0
  00010	50		 push	 eax
  00011	b8 1c 80 00 00	 mov	 eax, 32796		; 0000801cH
  00016	e8 00 00 00 00	 call	 __chkstk
  0001b	a1 00 00 00 00	 mov	 eax, DWORD PTR ___security_cookie
  00020	33 c5		 xor	 eax, ebp
  00022	89 45 f0	 mov	 DWORD PTR __$ArrayPad$[ebp], eax
  00025	53		 push	 ebx
  00026	56		 push	 esi
  00027	57		 push	 edi
  00028	50		 push	 eax
  00029	8d 45 f4	 lea	 eax, DWORD PTR __$EHRec$[ebp]
  0002c	64 a3 00 00 00
	00		 mov	 DWORD PTR fs:0, eax
  00032	8b 7d 08	 mov	 edi, DWORD PTR _pOwner$[ebp]
  00035	8b f1		 mov	 esi, ecx

; 348  : 	DWORD dwCurTime = FRAMEGETTIME();

  00037	ff 15 00 00 00
	00		 call	 DWORD PTR __imp_?GetSingleton@ioFrameTimer@@SAAAV1@XZ
  0003d	8b c8		 mov	 ecx, eax
  0003f	ff 15 00 00 00
	00		 call	 DWORD PTR __imp_?GetLoopSec@ioFrameTimer@@QBEKXZ

; 349  : 
; 350  : 	pOwner->SetAttackMoveEnable( false );

  00045	33 db		 xor	 ebx, ebx
  00047	53		 push	 ebx
  00048	8b cf		 mov	 ecx, edi
  0004a	e8 00 00 00 00	 call	 ?SetAttackMoveEnable@ioBaseChar@@QAEX_N@Z ; ioBaseChar::SetAttackMoveEnable

; 351  : 	pOwner->SetChargingState( false );

  0004f	88 9f 54 20 00
	00		 mov	 BYTE PTR [edi+8276], bl

; 352  : 
; 353  : 	const AttackAttribute *pAttribute = m_FormalAttack.GetAttribute( AT_NORMAL, m_iCurCombo );

  00055	ff b6 70 19 00
	00		 push	 DWORD PTR [esi+6512]
  0005b	8d 8e 2c 06 00
	00		 lea	 ecx, DWORD PTR [esi+1580]
  00061	53		 push	 ebx
  00062	e8 00 00 00 00	 call	 ?GetAttribute@ioFormalAttackGrp@@QBEPBUAttackAttribute@@W4AttackType@@H@Z ; ioFormalAttackGrp::GetAttribute

; 354  : 	if( pAttribute )

  00067	3b c3		 cmp	 eax, ebx
  00069	74 1f		 je	 SHORT $LN2@ChangeToNo

; 355  : 	{
; 356  : 		pOwner->SetNormalAttackByAttribute( *pAttribute );

  0006b	f3 0f 10 05 00
	00 00 00	 movss	 xmm0, DWORD PTR __real@3f800000
  00073	51		 push	 ecx
  00074	51		 push	 ecx
  00075	f3 0f 11 44 24
	04		 movss	 DWORD PTR [esp+4], xmm0
  0007b	f3 0f 11 04 24	 movss	 DWORD PTR [esp], xmm0
  00080	6a 01		 push	 1
  00082	50		 push	 eax
  00083	8b cf		 mov	 ecx, edi
  00085	e8 00 00 00 00	 call	 ?SetNormalAttackByAttribute@ioBaseChar@@QAEKABUAttackAttribute@@_NMM@Z ; ioBaseChar::SetNormalAttackByAttribute
$LN2@ChangeToNo:

; 357  : 	}
; 358  : 
; 359  : 	pOwner->ApplyNormalAttackResult( m_iCurCombo );

  0008a	53		 push	 ebx
  0008b	ff b6 70 19 00
	00		 push	 DWORD PTR [esi+6512]
  00091	8b cf		 mov	 ecx, edi
  00093	e8 00 00 00 00	 call	 ?ApplyNormalAttackResult@ioBaseChar@@QAEXH_N@Z ; ioBaseChar::ApplyNormalAttackResult

; 360  : 
; 361  : 	m_ChargeState = CS_NORMAL_ATTACK;

  00098	c7 86 54 19 00
	00 01 00 00 00	 mov	 DWORD PTR [esi+6484], 1

; 362  : 
; 363  : 	if( pOwner->IsNeedSendNetwork() )

  000a2	8b 07		 mov	 eax, DWORD PTR [edi]
  000a4	8b cf		 mov	 ecx, edi
  000a6	ff 90 04 01 00
	00		 call	 DWORD PTR [eax+260]
  000ac	84 c0		 test	 al, al
  000ae	74 62		 je	 SHORT $LN1@ChangeToNo

; 364  : 	{
; 365  : 		SP2Packet kPacket( CUPK_ITEM_GAUGE_OK );

  000b0	68 27 41 00 00	 push	 16679			; 00004127H
  000b5	8d 8d d8 7f ff
	ff		 lea	 ecx, DWORD PTR _kPacket$608145[ebp]
  000bb	e8 00 00 00 00	 call	 ??0SP2Packet@@QAE@K@Z	; SP2Packet::SP2Packet

; 366  : 		FillItemGaugePacketHeader( pOwner, kPacket );

  000c0	8d 85 d8 7f ff
	ff		 lea	 eax, DWORD PTR _kPacket$608145[ebp]
  000c6	50		 push	 eax
  000c7	57		 push	 edi
  000c8	8b ce		 mov	 ecx, esi
  000ca	89 5d fc	 mov	 DWORD PTR __$EHRec$[ebp+8], ebx
  000cd	e8 00 00 00 00	 call	 ?FillItemGaugePacketHeader@ioAttackableItem@@QAEXPAVioBaseChar@@AAVSP2Packet@@@Z ; ioAttackableItem::FillItemGaugePacketHeader

; 367  : 		kPacket << m_ChargeState;

  000d2	ff b6 54 19 00
	00		 push	 DWORD PTR [esi+6484]
  000d8	8d 8d d8 7f ff
	ff		 lea	 ecx, DWORD PTR _kPacket$608145[ebp]
  000de	e8 00 00 00 00	 call	 ??6SP2Packet@@QAEAAV0@H@Z ; SP2Packet::operator<<

; 368  : 		kPacket << m_iCurCombo;

  000e3	ff b6 70 19 00
	00		 push	 DWORD PTR [esi+6512]
  000e9	8d 8d d8 7f ff
	ff		 lea	 ecx, DWORD PTR _kPacket$608145[ebp]
  000ef	e8 00 00 00 00	 call	 ??6SP2Packet@@QAEAAV0@H@Z ; SP2Packet::operator<<

; 369  : 		P2PNetwork::SendToAllPlayingUser( kPacket );

  000f4	8d 85 d8 7f ff
	ff		 lea	 eax, DWORD PTR _kPacket$608145[ebp]
  000fa	53		 push	 ebx
  000fb	50		 push	 eax
  000fc	e8 00 00 00 00	 call	 ?SendToAllPlayingUser@P2PNetwork@@YAXAAVSP2Packet@@PAVioBaseChar@@@Z ; P2PNetwork::SendToAllPlayingUser

; 370  : 	}

  00101	83 4d fc ff	 or	 DWORD PTR __$EHRec$[ebp+8], -1
  00105	59		 pop	 ecx
  00106	59		 pop	 ecx
  00107	8d 8d d8 7f ff
	ff		 lea	 ecx, DWORD PTR _kPacket$608145[ebp]
  0010d	e8 00 00 00 00	 call	 ??1SP2Packet@@UAE@XZ	; SP2Packet::~SP2Packet
$LN1@ChangeToNo:

; 371  : }

  00112	8b 4d f4	 mov	 ecx, DWORD PTR __$EHRec$[ebp]
  00115	64 89 0d 00 00
	00 00		 mov	 DWORD PTR fs:0, ecx
  0011c	59		 pop	 ecx
  0011d	5f		 pop	 edi
  0011e	5e		 pop	 esi
  0011f	5b		 pop	 ebx
  00120	8b 4d f0	 mov	 ecx, DWORD PTR __$ArrayPad$[ebp]
  00123	33 cd		 xor	 ecx, ebp
  00125	e8 00 00 00 00	 call	 @__security_check_cookie@4
  0012a	c9		 leave
  0012b	c2 04 00	 ret	 4
_TEXT	ENDS
;	COMDAT text$x
text$x	SEGMENT
__unwindfunclet$?ChangeToNormalAttack@ioRunChargeItem2@@IAEXPAVioBaseChar@@@Z$0:
  00000	8d 8d d8 7f ff
	ff		 lea	 ecx, DWORD PTR _kPacket$608145[ebp]
  00006	e9 00 00 00 00	 jmp	 ??1SP2Packet@@UAE@XZ	; SP2Packet::~SP2Packet
__ehhandler$?ChangeToNormalAttack@ioRunChargeItem2@@IAEXPAVioBaseChar@@@Z:
  0000b	8b 54 24 08	 mov	 edx, DWORD PTR [esp+8]
  0000f	8d 42 0c	 lea	 eax, DWORD PTR [edx+12]
  00012	8b 8a d4 7f ff
	ff		 mov	 ecx, DWORD PTR [edx-32812]
  00018	33 c8		 xor	 ecx, eax
  0001a	e8 00 00 00 00	 call	 @__security_check_cookie@4
  0001f	8b 4a fc	 mov	 ecx, DWORD PTR [edx-4]
  00022	33 c8		 xor	 ecx, eax
  00024	e8 00 00 00 00	 call	 @__security_check_cookie@4
  00029	b8 00 00 00 00	 mov	 eax, OFFSET __ehfuncinfo$?ChangeToNormalAttack@ioRunChargeItem2@@IAEXPAVioBaseChar@@@Z
  0002e	e9 00 00 00 00	 jmp	 ___CxxFrameHandler3
text$x	ENDS
?ChangeToNormalAttack@ioRunChargeItem2@@IAEXPAVioBaseChar@@@Z ENDP ; ioRunChargeItem2::ChangeToNormalAttack
PUBLIC	?OnItemGaugeCancel@ioRunChargeItem2@@UAEXPAVioBaseChar@@AAVSP2Packet@@@Z ; ioRunChargeItem2::OnItemGaugeCancel
EXTRN	??5SP2Packet@@QAEAAV0@AAH@Z:PROC		; SP2Packet::operator>>
; Function compile flags: /Ogsp
;	COMDAT ?OnItemGaugeCancel@ioRunChargeItem2@@UAEXPAVioBaseChar@@AAVSP2Packet@@@Z
_TEXT	SEGMENT
_iType$ = -4						; size = 4
_pOwner$ = 8						; size = 4
_iDir$608226 = 12					; size = 4
_rkPacket$ = 12						; size = 4
?OnItemGaugeCancel@ioRunChargeItem2@@UAEXPAVioBaseChar@@AAVSP2Packet@@@Z PROC ; ioRunChargeItem2::OnItemGaugeCancel, COMDAT
; _this$ = ecx

; 506  : {

  00000	55		 push	 ebp
  00001	8b ec		 mov	 ebp, esp
  00003	51		 push	 ecx
  00004	56		 push	 esi

; 507  : 	int iType;
; 508  : 	rkPacket >> iType;

  00005	8d 45 fc	 lea	 eax, DWORD PTR _iType$[ebp]
  00008	8b f1		 mov	 esi, ecx
  0000a	8b 4d 0c	 mov	 ecx, DWORD PTR _rkPacket$[ebp]
  0000d	50		 push	 eax
  0000e	e8 00 00 00 00	 call	 ??5SP2Packet@@QAEAAV0@AAH@Z ; SP2Packet::operator>>

; 509  : 
; 510  : 	switch( iType )

  00013	83 7d fc 00	 cmp	 DWORD PTR _iType$[ebp], 0
  00017	75 36		 jne	 SHORT $LN1@OnItemGaug

; 511  : 	{
; 512  : 	case SST_ROTATE:
; 513  : 		{
; 514  : 			int iDir;
; 515  : 			rkPacket >> iDir;

  00019	8b 4d 0c	 mov	 ecx, DWORD PTR _rkPacket$[ebp]
  0001c	8d 45 0c	 lea	 eax, DWORD PTR _iDir$608226[ebp]
  0001f	50		 push	 eax
  00020	e8 00 00 00 00	 call	 ??5SP2Packet@@QAEAAV0@AAH@Z ; SP2Packet::operator>>

; 516  : 
; 517  : 			DWORD dwCurTime = FRAMEGETTIME();

  00025	ff 15 00 00 00
	00		 call	 DWORD PTR __imp_?GetSingleton@ioFrameTimer@@SAAAV1@XZ
  0002b	8b c8		 mov	 ecx, eax
  0002d	ff 15 00 00 00
	00		 call	 DWORD PTR __imp_?GetLoopSec@ioFrameTimer@@QBEKXZ

; 518  : 			int iAniID = 0;
; 519  : 
; 520  : 			if( iDir == ioUserKeyInput::DKI_NONE )

  00033	8b 45 0c	 mov	 eax, DWORD PTR _iDir$608226[ebp]
  00036	85 c0		 test	 eax, eax
  00038	75 08		 jne	 SHORT $LN2@OnItemGaug

; 521  : 			{
; 522  : 				m_CurDirKey = ioUserKeyInput::DKI_NONE;

  0003a	21 86 c8 1a 00
	00		 and	 DWORD PTR [esi+6856], eax

; 523  : 			}
; 524  : 			else

  00040	eb 0d		 jmp	 SHORT $LN1@OnItemGaug
$LN2@OnItemGaug:

; 525  : 			{
; 526  : 				m_bTargetRot = false;

  00042	c6 86 c0 1a 00
	00 00		 mov	 BYTE PTR [esi+6848], 0

; 527  : 				m_CurDirKey = (ioUserKeyInput::DirKeyInput)iDir;

  00049	89 86 c8 1a 00
	00		 mov	 DWORD PTR [esi+6856], eax
$LN1@OnItemGaug:
  0004f	5e		 pop	 esi

; 528  : 			}
; 529  : 		}
; 530  : 		break;
; 531  : 	}
; 532  : }

  00050	c9		 leave
  00051	c2 08 00	 ret	 8
?OnItemGaugeCancel@ioRunChargeItem2@@UAEXPAVioBaseChar@@AAVSP2Packet@@@Z ENDP ; ioRunChargeItem2::OnItemGaugeCancel
_TEXT	ENDS
PUBLIC	?IsChargeAttackState@ioRunChargeItem2@@UAE_NPAVioBaseChar@@@Z ; ioRunChargeItem2::IsChargeAttackState
; Function compile flags: /Ogsp
;	COMDAT ?IsChargeAttackState@ioRunChargeItem2@@UAE_NPAVioBaseChar@@@Z
_TEXT	SEGMENT
_pOwner$ = 8						; size = 4
?IsChargeAttackState@ioRunChargeItem2@@UAE_NPAVioBaseChar@@@Z PROC ; ioRunChargeItem2::IsChargeAttackState, COMDAT
; _this$ = ecx

; 562  : {

  00000	55		 push	 ebp
  00001	8b ec		 mov	 ebp, esp

; 563  : 	if( pOwner->GetState() == CS_ATTACK )

  00003	8b 45 08	 mov	 eax, DWORD PTR _pOwner$[ebp]
  00006	80 b8 10 03 00
	00 05		 cmp	 BYTE PTR [eax+784], 5
  0000d	75 12		 jne	 SHORT $LN2@IsChargeAt

; 564  : 	{
; 565  : 		switch( m_ChargeState )

  0000f	8b 81 54 19 00
	00		 mov	 eax, DWORD PTR [ecx+6484]
  00015	83 c0 fe	 add	 eax, -2			; fffffffeH
  00018	83 f8 02	 cmp	 eax, 2
  0001b	77 04		 ja	 SHORT $LN2@IsChargeAt

; 566  : 		{
; 567  : 		case CS_CHARGING:
; 568  : 		case CS_RUN:
; 569  : 		case CS_FINISH_ATTACK:
; 570  : 			return true;

  0001d	b0 01		 mov	 al, 1
  0001f	eb 02		 jmp	 SHORT $LN5@IsChargeAt
$LN2@IsChargeAt:

; 571  : 		}
; 572  : 	}
; 573  : 
; 574  : 	return false;

  00021	32 c0		 xor	 al, al
$LN5@IsChargeAt:

; 575  : }

  00023	5d		 pop	 ebp
  00024	c2 04 00	 ret	 4
?IsChargeAttackState@ioRunChargeItem2@@UAE_NPAVioBaseChar@@@Z ENDP ; ioRunChargeItem2::IsChargeAttackState
_TEXT	ENDS
PUBLIC	?IsMoveAttackState@ioRunChargeItem2@@UAE_NPAVioBaseChar@@@Z ; ioRunChargeItem2::IsMoveAttackState
; Function compile flags: /Ogsp
;	COMDAT ?IsMoveAttackState@ioRunChargeItem2@@UAE_NPAVioBaseChar@@@Z
_TEXT	SEGMENT
_pOwner$ = 8						; size = 4
?IsMoveAttackState@ioRunChargeItem2@@UAE_NPAVioBaseChar@@@Z PROC ; ioRunChargeItem2::IsMoveAttackState, COMDAT
; _this$ = ecx

; 578  : {

  00000	55		 push	 ebp
  00001	8b ec		 mov	 ebp, esp

; 579  : 	if( pOwner->GetState() == CS_ATTACK )

  00003	8b 45 08	 mov	 eax, DWORD PTR _pOwner$[ebp]
  00006	80 b8 10 03 00
	00 05		 cmp	 BYTE PTR [eax+784], 5
  0000d	75 14		 jne	 SHORT $LN1@IsMoveAtta

; 580  : 	{
; 581  : 		switch( m_ChargeState )

  0000f	83 b9 54 19 00
	00 03		 cmp	 DWORD PTR [ecx+6484], 3
  00016	75 0b		 jne	 SHORT $LN1@IsMoveAtta

; 582  : 		{
; 583  : 		case CS_RUN:
; 584  : 			{
; 585  : 				if( m_RunState == RS_RUN )

  00018	33 c0		 xor	 eax, eax
  0001a	40		 inc	 eax
  0001b	39 81 58 19 00
	00		 cmp	 DWORD PTR [ecx+6488], eax

; 586  : 					return true;

  00021	74 02		 je	 SHORT $LN6@IsMoveAtta
$LN1@IsMoveAtta:

; 587  : 			}
; 588  : 			break;
; 589  : 		}
; 590  : 	}
; 591  : 
; 592  : 	return false;

  00023	32 c0		 xor	 al, al
$LN6@IsMoveAtta:

; 593  : }

  00025	5d		 pop	 ebp
  00026	c2 04 00	 ret	 4
?IsMoveAttackState@ioRunChargeItem2@@UAE_NPAVioBaseChar@@@Z ENDP ; ioRunChargeItem2::IsMoveAttackState
_TEXT	ENDS
PUBLIC	?OnFinishAttackState@ioRunChargeItem2@@IAEXPAVioBaseChar@@@Z ; ioRunChargeItem2::OnFinishAttackState
; Function compile flags: /Ogsp
;	COMDAT ?OnFinishAttackState@ioRunChargeItem2@@IAEXPAVioBaseChar@@@Z
_TEXT	SEGMENT
_pOwner$ = 8						; size = 4
?OnFinishAttackState@ioRunChargeItem2@@IAEXPAVioBaseChar@@@Z PROC ; ioRunChargeItem2::OnFinishAttackState, COMDAT
; _this$ = ecx

; 778  : {

  00000	55		 push	 ebp
  00001	8b ec		 mov	 ebp, esp
  00003	53		 push	 ebx
  00004	56		 push	 esi
  00005	57		 push	 edi
  00006	8b f1		 mov	 esi, ecx

; 779  : 	DWORD dwCurTime = FRAMEGETTIME();

  00008	ff 15 00 00 00
	00		 call	 DWORD PTR __imp_?GetSingleton@ioFrameTimer@@SAAAV1@XZ
  0000e	8b c8		 mov	 ecx, eax
  00010	ff 15 00 00 00
	00		 call	 DWORD PTR __imp_?GetLoopSec@ioFrameTimer@@QBEKXZ

; 780  : 
; 781  : 	if( m_dwFinishAttackEndTime > 0 && m_dwFinishAttackEndTime < dwCurTime )

  00016	8b 96 bc 1a 00
	00		 mov	 edx, DWORD PTR [esi+6844]
  0001c	33 db		 xor	 ebx, ebx
  0001e	3b d3		 cmp	 edx, ebx
  00020	0f 86 4d 01 00
	00		 jbe	 $LN14@OnFinishAt
  00026	3b d0		 cmp	 edx, eax
  00028	0f 83 45 01 00
	00		 jae	 $LN14@OnFinishAt

; 782  : 	{
; 783  : 		m_dwFinishAttackEndTime = 0;
; 784  : 
; 785  : 		// 예약처리
; 786  : 		pOwner->NormalAttackOver();

  0002e	8b 7d 08	 mov	 edi, DWORD PTR _pOwner$[ebp]
  00031	6a 01		 push	 1
  00033	8b cf		 mov	 ecx, edi
  00035	89 9e bc 1a 00
	00		 mov	 DWORD PTR [esi+6844], ebx
  0003b	e8 00 00 00 00	 call	 ?NormalAttackOver@ioBaseChar@@QAEX_N@Z ; ioBaseChar::NormalAttackOver

; 787  : 
; 788  : 		// 공격키가 눌러져 있으면 공격 상태 처리
; 789  : 		if( pOwner->IsAttackKeyDown() && 
; 790  : 			!pOwner->IsJumpKeyDown() &&
; 791  : 			!pOwner->IsDefenseKeyDown() &&
; 792  : 			!pOwner->IsChatModeState(true) )

  00040	8b cf		 mov	 ecx, edi
  00042	e8 00 00 00 00	 call	 ?IsAttackKeyDown@ioBaseChar@@QBE_NXZ ; ioBaseChar::IsAttackKeyDown
  00047	84 c0		 test	 al, al
  00049	74 71		 je	 SHORT $LN13@OnFinishAt
  0004b	8b cf		 mov	 ecx, edi
  0004d	e8 00 00 00 00	 call	 ?IsJumpKeyDown@ioBaseChar@@QBE_NXZ ; ioBaseChar::IsJumpKeyDown
  00052	84 c0		 test	 al, al
  00054	75 66		 jne	 SHORT $LN13@OnFinishAt
  00056	8b cf		 mov	 ecx, edi
  00058	e8 00 00 00 00	 call	 ?IsDefenseKeyDown@ioBaseChar@@QBE_NXZ ; ioBaseChar::IsDefenseKeyDown
  0005d	84 c0		 test	 al, al
  0005f	75 5b		 jne	 SHORT $LN13@OnFinishAt
  00061	6a 01		 push	 1
  00063	8b cf		 mov	 ecx, edi
  00065	e8 00 00 00 00	 call	 ?IsChatModeState@ioBaseChar@@QBE_N_N@Z ; ioBaseChar::IsChatModeState
  0006a	84 c0		 test	 al, al
  0006c	75 4e		 jne	 SHORT $LN13@OnFinishAt

; 793  : 		{
; 794  : 			ClearState();

  0006e	8b ce		 mov	 ecx, esi
$LN17@OnFinishAt:
  00070	e8 00 00 00 00	 call	 ?ClearState@ioRunChargeItem2@@IAEXXZ ; ioRunChargeItem2::ClearState

; 795  : 
; 796  : 			ioObjectItem *pItem = pOwner->GetObject();

  00075	8b cf		 mov	 ecx, edi
  00077	e8 00 00 00 00	 call	 ?GetObjectA@ioBaseChar@@QBEPAVioObjectItem@@XZ ; ioBaseChar::GetObjectA

; 797  : 			if( ToDrinkItem( pItem ) )

  0007c	50		 push	 eax
  0007d	e8 00 00 00 00	 call	 ?ToDrinkItem@@YAPAVioDrinkItem@@PAVioObjectItem@@@Z ; ToDrinkItem
  00082	59		 pop	 ecx

; 798  : 			{
; 799  : 				pOwner->SetDrinkState();

  00083	8b cf		 mov	 ecx, edi
  00085	85 c0		 test	 eax, eax
  00087	74 0a		 je	 SHORT $LN12@OnFinishAt
  00089	e8 00 00 00 00	 call	 ?SetDrinkState@ioBaseChar@@QAEXXZ ; ioBaseChar::SetDrinkState

; 800  : 			}
; 801  : 			else

  0008e	e9 fb 00 00 00	 jmp	 $LN1@OnFinishAt
$LN12@OnFinishAt:

; 802  : 			{
; 803  : 				if( pOwner->IsCanNormalAttack() && !pOwner->IsBuffLimitAttack() )

  00093	e8 00 00 00 00	 call	 ?IsCanNormalAttack@ioBaseChar@@QBE_NXZ ; ioBaseChar::IsCanNormalAttack
  00098	84 c0		 test	 al, al
  0009a	0f 84 ee 00 00
	00		 je	 $LN1@OnFinishAt
  000a0	8b cf		 mov	 ecx, edi
  000a2	e8 00 00 00 00	 call	 ?IsBuffLimitAttack@ioBaseChar@@QBE_NXZ ; ioBaseChar::IsBuffLimitAttack
  000a7	84 c0		 test	 al, al
  000a9	0f 85 df 00 00
	00		 jne	 $LN1@OnFinishAt

; 804  : 				{
; 805  : 					pOwner->SetNormalAttack( 0 );

  000af	53		 push	 ebx
  000b0	8b cf		 mov	 ecx, edi
  000b2	e8 00 00 00 00	 call	 ?SetNormalAttack@ioBaseChar@@QAEXH@Z ; ioBaseChar::SetNormalAttack

; 806  : 				}
; 807  : 			}
; 808  : 
; 809  : 			return;

  000b7	e9 d2 00 00 00	 jmp	 $LN1@OnFinishAt
$LN13@OnFinishAt:

; 810  : 		}
; 811  : 
; 812  : 		// 필살기 예약되었으면 필살기 발동
; 813  : 		if( m_iSkillInput >= 0 && !pOwner->IsBuffLimitSkill() && pOwner->SetUseSkill( m_iSkillInput, SUT_NORMAL ) )

  000bc	39 9e fc 0e 00
	00		 cmp	 DWORD PTR [esi+3836], ebx
  000c2	7c 32		 jl	 SHORT $LN9@OnFinishAt
  000c4	8b cf		 mov	 ecx, edi
  000c6	e8 00 00 00 00	 call	 ?IsBuffLimitSkill@ioBaseChar@@QBE_NXZ ; ioBaseChar::IsBuffLimitSkill
  000cb	84 c0		 test	 al, al
  000cd	75 27		 jne	 SHORT $LN9@OnFinishAt
  000cf	53		 push	 ebx
  000d0	53		 push	 ebx
  000d1	53		 push	 ebx
  000d2	ff b6 fc 0e 00
	00		 push	 DWORD PTR [esi+3836]
  000d8	8b cf		 mov	 ecx, edi
  000da	e8 00 00 00 00	 call	 ?SetUseSkill@ioBaseChar@@QAE_NHW4SkillUseType@@_N1@Z ; ioBaseChar::SetUseSkill
  000df	84 c0		 test	 al, al
  000e1	74 13		 je	 SHORT $LN9@OnFinishAt

; 814  : 		{
; 815  : 			ClearState();

  000e3	8b ce		 mov	 ecx, esi
  000e5	e8 00 00 00 00	 call	 ?ClearState@ioRunChargeItem2@@IAEXXZ ; ioRunChargeItem2::ClearState

; 816  : 			m_iSkillInput = -1;

  000ea	83 8e fc 0e 00
	00 ff		 or	 DWORD PTR [esi+3836], -1

; 817  : 			return;

  000f1	e9 98 00 00 00	 jmp	 $LN1@OnFinishAt
$LN9@OnFinishAt:

; 818  : 		}
; 819  : 
; 820  : 		// 방어
; 821  : 		if( m_bEnableDefenseState && pOwner->IsEnableDefenseByObject() && !pOwner->IsBuffLimitDefense() )

  000f6	38 9e 00 0f 00
	00		 cmp	 BYTE PTR [esi+3840], bl
  000fc	74 26		 je	 SHORT $LN8@OnFinishAt
  000fe	8b cf		 mov	 ecx, edi
  00100	e8 00 00 00 00	 call	 ?IsEnableDefenseByObject@ioBaseChar@@QAE_NXZ ; ioBaseChar::IsEnableDefenseByObject
  00105	84 c0		 test	 al, al
  00107	74 1b		 je	 SHORT $LN8@OnFinishAt
  00109	8b cf		 mov	 ecx, edi
  0010b	e8 00 00 00 00	 call	 ?IsBuffLimitDefense@ioBaseChar@@QBE_NXZ ; ioBaseChar::IsBuffLimitDefense
  00110	84 c0		 test	 al, al
  00112	75 10		 jne	 SHORT $LN8@OnFinishAt

; 822  : 		{
; 823  : 			ClearState();

  00114	8b ce		 mov	 ecx, esi
  00116	e8 00 00 00 00	 call	 ?ClearState@ioRunChargeItem2@@IAEXXZ ; ioRunChargeItem2::ClearState

; 824  : 			pOwner->SetDefenseState();

  0011b	8b cf		 mov	 ecx, edi
  0011d	e8 00 00 00 00	 call	 ?SetDefenseState@ioBaseChar@@QAEXXZ ; ioBaseChar::SetDefenseState

; 825  : 			return;

  00122	eb 6a		 jmp	 SHORT $LN1@OnFinishAt
$LN8@OnFinishAt:

; 826  : 		}
; 827  : 
; 828  : 		// 점프
; 829  : 		if( m_bEnableJumpState && pOwner->IsCanJumpState() && !pOwner->IsBuffLimitJump() )

  00124	38 9e 02 0f 00
	00		 cmp	 BYTE PTR [esi+3842], bl
  0012a	74 28		 je	 SHORT $LN7@OnFinishAt
  0012c	8b cf		 mov	 ecx, edi
  0012e	e8 00 00 00 00	 call	 ?IsCanJumpState@ioBaseChar@@QAE_NXZ ; ioBaseChar::IsCanJumpState
  00133	84 c0		 test	 al, al
  00135	74 1d		 je	 SHORT $LN7@OnFinishAt
  00137	8b cf		 mov	 ecx, edi
  00139	e8 00 00 00 00	 call	 ?IsBuffLimitJump@ioBaseChar@@QBE_NXZ ; ioBaseChar::IsBuffLimitJump
  0013e	84 c0		 test	 al, al
  00140	75 12		 jne	 SHORT $LN7@OnFinishAt

; 830  : 		{
; 831  : 			ClearState();

  00142	8b ce		 mov	 ecx, esi
  00144	e8 00 00 00 00	 call	 ?ClearState@ioRunChargeItem2@@IAEXXZ ; ioRunChargeItem2::ClearState

; 832  : 			pOwner->SetJumpState();

  00149	6a 01		 push	 1
  0014b	8b cf		 mov	 ecx, edi
  0014d	e8 00 00 00 00	 call	 ?SetJumpState@ioBaseChar@@QAEX_N@Z ; ioBaseChar::SetJumpState

; 833  : 			return;

  00152	eb 3a		 jmp	 SHORT $LN1@OnFinishAt
$LN7@OnFinishAt:

; 834  : 		}
; 835  : 
; 836  : 		// 공격
; 837  : 		if( m_bEnableAttackState )
; 838  : 		{
; 839  : 			ClearState();

  00154	8b ce		 mov	 ecx, esi
  00156	38 9e 01 0f 00
	00		 cmp	 BYTE PTR [esi+3841], bl

; 840  : 			ioObjectItem *pItem = pOwner->GetObject();
; 841  : 
; 842  : 			if( ToDrinkItem( pItem ) )
; 843  : 			{
; 844  : 				pOwner->SetDrinkState();
; 845  : 			}
; 846  : 			else

  0015c	0f 85 0e ff ff
	ff		 jne	 $LN17@OnFinishAt

; 847  : 			{
; 848  : 				if( pOwner->IsCanNormalAttack() && !pOwner->IsBuffLimitAttack() )
; 849  : 				{
; 850  : 					pOwner->SetNormalAttack( 0 );
; 851  : 				}
; 852  : 			}
; 853  : 			return;
; 854  : 		}
; 855  : 
; 856  : 		ClearState();

  00162	e8 00 00 00 00	 call	 ?ClearState@ioRunChargeItem2@@IAEXXZ ; ioRunChargeItem2::ClearState

; 857  : 		pOwner->SetState( CS_DELAY );

  00167	6a 01		 push	 1
  00169	53		 push	 ebx
  0016a	8b cf		 mov	 ecx, edi
  0016c	e8 00 00 00 00	 call	 ?SetState@ioBaseChar@@QAEXH_N@Z ; ioBaseChar::SetState

; 858  : 		return;

  00171	eb 1b		 jmp	 SHORT $LN1@OnFinishAt
$LN14@OnFinishAt:

; 859  : 	}
; 860  : 	else if( m_dwKeyReserveTime > 0 && m_dwKeyReserveTime < dwCurTime )

  00173	8b 8e f8 0e 00
	00		 mov	 ecx, DWORD PTR [esi+3832]
  00179	3b cb		 cmp	 ecx, ebx
  0017b	76 11		 jbe	 SHORT $LN1@OnFinishAt
  0017d	3b c8		 cmp	 ecx, eax
  0017f	73 0d		 jae	 SHORT $LN1@OnFinishAt

; 861  : 	{
; 862  : 		// 예약체크
; 863  : 		CheckReserve( pOwner );

  00181	ff 75 08	 push	 DWORD PTR _pOwner$[ebp]
  00184	8b 06		 mov	 eax, DWORD PTR [esi]
  00186	8b ce		 mov	 ecx, esi
  00188	ff 90 ac 01 00
	00		 call	 DWORD PTR [eax+428]
$LN1@OnFinishAt:
  0018e	5f		 pop	 edi
  0018f	5e		 pop	 esi
  00190	5b		 pop	 ebx

; 864  : 	}
; 865  : }

  00191	5d		 pop	 ebp
  00192	c2 04 00	 ret	 4
?OnFinishAttackState@ioRunChargeItem2@@IAEXPAVioBaseChar@@@Z ENDP ; ioRunChargeItem2::OnFinishAttackState
_TEXT	ENDS
PUBLIC	__$ArrayPad$
PUBLIC	?CheckKeyInput@ioRunChargeItem2@@IAEXPAVioBaseChar@@@Z ; ioRunChargeItem2::CheckKeyInput
EXTRN	?CheckCurDirKey@ioBaseChar@@QAE?AW4DirKeyInput@ioUserKeyInput@@XZ:PROC ; ioBaseChar::CheckCurDirKey
EXTRN	?IsSettedDirection@ioBaseChar@@QBE_NXZ:PROC	; ioBaseChar::IsSettedDirection
;	COMDAT xdata$x
xdata$x	SEGMENT
__unwindtable$?CheckKeyInput@ioRunChargeItem2@@IAEXPAVioBaseChar@@@Z DD 0ffffffffH
	DD	FLAT:__unwindfunclet$?CheckKeyInput@ioRunChargeItem2@@IAEXPAVioBaseChar@@@Z$0
	DD	0ffffffffH
	DD	FLAT:__unwindfunclet$?CheckKeyInput@ioRunChargeItem2@@IAEXPAVioBaseChar@@@Z$1
__ehfuncinfo$?CheckKeyInput@ioRunChargeItem2@@IAEXPAVioBaseChar@@@Z DD 019930522H
	DD	02H
	DD	FLAT:__unwindtable$?CheckKeyInput@ioRunChargeItem2@@IAEXPAVioBaseChar@@@Z
	DD	2 DUP(00H)
	DD	2 DUP(00H)
	DD	00H
	DD	01H
; Function compile flags: /Ogsp
xdata$x	ENDS
;	COMDAT ?CheckKeyInput@ioRunChargeItem2@@IAEXPAVioBaseChar@@@Z
_TEXT	SEGMENT
_kPacket$608466 = -65600				; size = 32792
_kPacket$608461 = -32808				; size = 32812
__$ArrayPad$ = -16					; size = 4
__$EHRec$ = -12						; size = 12
_pOwner$ = 8						; size = 4
?CheckKeyInput@ioRunChargeItem2@@IAEXPAVioBaseChar@@@Z PROC ; ioRunChargeItem2::CheckKeyInput, COMDAT
; _this$ = ecx

; 1036 : {

  00000	55		 push	 ebp
  00001	8b ec		 mov	 ebp, esp
  00003	6a ff		 push	 -1
  00005	68 00 00 00 00	 push	 __ehhandler$?CheckKeyInput@ioRunChargeItem2@@IAEXPAVioBaseChar@@@Z
  0000a	64 a1 00 00 00
	00		 mov	 eax, DWORD PTR fs:0
  00010	50		 push	 eax
  00011	b8 34 00 01 00	 mov	 eax, 65588		; 00010034H
  00016	e8 00 00 00 00	 call	 __chkstk
  0001b	a1 00 00 00 00	 mov	 eax, DWORD PTR ___security_cookie
  00020	33 c5		 xor	 eax, ebp
  00022	89 45 f0	 mov	 DWORD PTR __$ArrayPad$[ebp], eax
  00025	53		 push	 ebx
  00026	56		 push	 esi
  00027	57		 push	 edi
  00028	50		 push	 eax
  00029	8d 45 f4	 lea	 eax, DWORD PTR __$EHRec$[ebp]
  0002c	64 a3 00 00 00
	00		 mov	 DWORD PTR fs:0, eax
  00032	8b 7d 08	 mov	 edi, DWORD PTR _pOwner$[ebp]

; 1037 : 	if( !pOwner ) return;

  00035	33 db		 xor	 ebx, ebx
  00037	8b f1		 mov	 esi, ecx
  00039	3b fb		 cmp	 edi, ebx
  0003b	0f 84 25 01 00
	00		 je	 $LN1@CheckKeyIn

; 1038 : 	if( !pOwner->IsNeedProcess() ) return;

  00041	8b 07		 mov	 eax, DWORD PTR [edi]
  00043	8b cf		 mov	 ecx, edi
  00045	ff 90 00 01 00
	00		 call	 DWORD PTR [eax+256]
  0004b	84 c0		 test	 al, al
  0004d	0f 84 13 01 00
	00		 je	 $LN1@CheckKeyIn

; 1039 : 
; 1040 : 	if( pOwner->IsSettedDirection() )

  00053	8b cf		 mov	 ecx, edi
  00055	e8 00 00 00 00	 call	 ?IsSettedDirection@ioBaseChar@@QBE_NXZ ; ioBaseChar::IsSettedDirection
  0005a	84 c0		 test	 al, al
  0005c	0f 84 87 00 00
	00		 je	 $LN6@CheckKeyIn

; 1041 : 	{
; 1042 : 		ioUserKeyInput::DirKeyInput eNewDirKey = pOwner->CheckCurDirKey();

  00062	8b cf		 mov	 ecx, edi
  00064	e8 00 00 00 00	 call	 ?CheckCurDirKey@ioBaseChar@@QAE?AW4DirKeyInput@ioUserKeyInput@@XZ ; ioBaseChar::CheckCurDirKey

; 1043 : 		if( eNewDirKey != m_CurDirKey )

  00069	3b 86 c8 1a 00
	00		 cmp	 eax, DWORD PTR [esi+6856]
  0006f	0f 84 f1 00 00
	00		 je	 $LN1@CheckKeyIn

; 1044 : 		{
; 1045 : 			m_bTargetRot = false;

  00075	88 9e c0 1a 00
	00		 mov	 BYTE PTR [esi+6848], bl

; 1046 : 			m_CurDirKey = eNewDirKey;

  0007b	89 86 c8 1a 00
	00		 mov	 DWORD PTR [esi+6856], eax

; 1047 : 
; 1048 : 			if( pOwner->IsNeedSendNetwork() )

  00081	8b 07		 mov	 eax, DWORD PTR [edi]
  00083	8b cf		 mov	 ecx, edi
  00085	ff 90 04 01 00
	00		 call	 DWORD PTR [eax+260]
  0008b	84 c0		 test	 al, al
  0008d	0f 84 d3 00 00
	00		 je	 $LN1@CheckKeyIn

; 1049 : 			{
; 1050 : 				SP2Packet kPacket( CUPK_ITEM_GAUGE_CANCEL );

  00093	68 28 41 00 00	 push	 16680			; 00004128H
  00098	8d 8d d8 7f ff
	ff		 lea	 ecx, DWORD PTR _kPacket$608461[ebp]
  0009e	e8 00 00 00 00	 call	 ??0SP2Packet@@QAE@K@Z	; SP2Packet::SP2Packet

; 1051 : 				FillItemGaugePacketHeader( pOwner, kPacket );

  000a3	8d 85 d8 7f ff
	ff		 lea	 eax, DWORD PTR _kPacket$608461[ebp]
  000a9	50		 push	 eax
  000aa	57		 push	 edi
  000ab	8b ce		 mov	 ecx, esi
  000ad	89 5d fc	 mov	 DWORD PTR __$EHRec$[ebp+8], ebx
  000b0	e8 00 00 00 00	 call	 ?FillItemGaugePacketHeader@ioAttackableItem@@QAEXPAVioBaseChar@@AAVSP2Packet@@@Z ; ioAttackableItem::FillItemGaugePacketHeader

; 1052 : 				kPacket << SST_ROTATE;

  000b5	53		 push	 ebx
  000b6	8d 8d d8 7f ff
	ff		 lea	 ecx, DWORD PTR _kPacket$608461[ebp]
  000bc	e8 00 00 00 00	 call	 ??6SP2Packet@@QAEAAV0@H@Z ; SP2Packet::operator<<

; 1053 : 				kPacket << (int)m_CurDirKey;

  000c1	ff b6 c8 1a 00
	00		 push	 DWORD PTR [esi+6856]
  000c7	8d 8d d8 7f ff
	ff		 lea	 ecx, DWORD PTR _kPacket$608461[ebp]
  000cd	e8 00 00 00 00	 call	 ??6SP2Packet@@QAEAAV0@H@Z ; SP2Packet::operator<<

; 1054 : 				P2PNetwork::SendToAllPlayingUser( kPacket );

  000d2	8d 85 d8 7f ff
	ff		 lea	 eax, DWORD PTR _kPacket$608461[ebp]
  000d8	53		 push	 ebx
  000d9	50		 push	 eax
  000da	e8 00 00 00 00	 call	 ?SendToAllPlayingUser@P2PNetwork@@YAXAAVSP2Packet@@PAVioBaseChar@@@Z ; P2PNetwork::SendToAllPlayingUser
  000df	59		 pop	 ecx
  000e0	59		 pop	 ecx

; 1055 : 			}

  000e1	8d 8d d8 7f ff
	ff		 lea	 ecx, DWORD PTR _kPacket$608461[ebp]

; 1056 : 		}
; 1057 : 	}
; 1058 : 	else

  000e7	eb 74		 jmp	 SHORT $LN14@CheckKeyIn
$LN6@CheckKeyIn:

; 1059 : 	{
; 1060 : 		if( m_CurDirKey != ioUserKeyInput::DKI_NONE )

  000e9	39 9e c8 1a 00
	00		 cmp	 DWORD PTR [esi+6856], ebx
  000ef	74 75		 je	 SHORT $LN1@CheckKeyIn

; 1061 : 		{
; 1062 : 			m_CurDirKey = ioUserKeyInput::DKI_NONE;

  000f1	89 9e c8 1a 00
	00		 mov	 DWORD PTR [esi+6856], ebx

; 1063 : 
; 1064 : 			if( pOwner->IsNeedSendNetwork() )

  000f7	8b 07		 mov	 eax, DWORD PTR [edi]
  000f9	8b cf		 mov	 ecx, edi
  000fb	ff 90 04 01 00
	00		 call	 DWORD PTR [eax+260]
  00101	84 c0		 test	 al, al
  00103	74 61		 je	 SHORT $LN1@CheckKeyIn

; 1065 : 			{
; 1066 : 				SP2Packet kPacket( CUPK_ITEM_GAUGE_CANCEL );

  00105	68 28 41 00 00	 push	 16680			; 00004128H
  0010a	8d 8d c0 ff fe
	ff		 lea	 ecx, DWORD PTR _kPacket$608466[ebp]
  00110	e8 00 00 00 00	 call	 ??0SP2Packet@@QAE@K@Z	; SP2Packet::SP2Packet

; 1067 : 				FillItemGaugePacketHeader( pOwner, kPacket );

  00115	8d 85 c0 ff fe
	ff		 lea	 eax, DWORD PTR _kPacket$608466[ebp]
  0011b	50		 push	 eax
  0011c	57		 push	 edi
  0011d	8b ce		 mov	 ecx, esi
  0011f	c7 45 fc 01 00
	00 00		 mov	 DWORD PTR __$EHRec$[ebp+8], 1
  00126	e8 00 00 00 00	 call	 ?FillItemGaugePacketHeader@ioAttackableItem@@QAEXPAVioBaseChar@@AAVSP2Packet@@@Z ; ioAttackableItem::FillItemGaugePacketHeader

; 1068 : 				kPacket << SST_ROTATE;

  0012b	53		 push	 ebx
  0012c	8d 8d c0 ff fe
	ff		 lea	 ecx, DWORD PTR _kPacket$608466[ebp]
  00132	e8 00 00 00 00	 call	 ??6SP2Packet@@QAEAAV0@H@Z ; SP2Packet::operator<<

; 1069 : 				kPacket << (int)m_CurDirKey;

  00137	ff b6 c8 1a 00
	00		 push	 DWORD PTR [esi+6856]
  0013d	8d 8d c0 ff fe
	ff		 lea	 ecx, DWORD PTR _kPacket$608466[ebp]
  00143	e8 00 00 00 00	 call	 ??6SP2Packet@@QAEAAV0@H@Z ; SP2Packet::operator<<

; 1070 : 				P2PNetwork::SendToAllPlayingUser( kPacket );

  00148	8d 85 c0 ff fe
	ff		 lea	 eax, DWORD PTR _kPacket$608466[ebp]
  0014e	53		 push	 ebx
  0014f	50		 push	 eax
  00150	e8 00 00 00 00	 call	 ?SendToAllPlayingUser@P2PNetwork@@YAXAAVSP2Packet@@PAVioBaseChar@@@Z ; P2PNetwork::SendToAllPlayingUser
  00155	59		 pop	 ecx
  00156	59		 pop	 ecx

; 1071 : 			}

  00157	8d 8d c0 ff fe
	ff		 lea	 ecx, DWORD PTR _kPacket$608466[ebp]
$LN14@CheckKeyIn:
  0015d	83 4d fc ff	 or	 DWORD PTR __$EHRec$[ebp+8], -1
  00161	e8 00 00 00 00	 call	 ??1SP2Packet@@UAE@XZ	; SP2Packet::~SP2Packet
$LN1@CheckKeyIn:

; 1072 : 		}
; 1073 : 	}
; 1074 : }

  00166	8b 4d f4	 mov	 ecx, DWORD PTR __$EHRec$[ebp]
  00169	64 89 0d 00 00
	00 00		 mov	 DWORD PTR fs:0, ecx
  00170	59		 pop	 ecx
  00171	5f		 pop	 edi
  00172	5e		 pop	 esi
  00173	5b		 pop	 ebx
  00174	8b 4d f0	 mov	 ecx, DWORD PTR __$ArrayPad$[ebp]
  00177	33 cd		 xor	 ecx, ebp
  00179	e8 00 00 00 00	 call	 @__security_check_cookie@4
  0017e	c9		 leave
  0017f	c2 04 00	 ret	 4
_TEXT	ENDS
;	COMDAT text$x
text$x	SEGMENT
__unwindfunclet$?CheckKeyInput@ioRunChargeItem2@@IAEXPAVioBaseChar@@@Z$0:
  00000	8d 8d d8 7f ff
	ff		 lea	 ecx, DWORD PTR _kPacket$608461[ebp]
  00006	e9 00 00 00 00	 jmp	 ??1SP2Packet@@UAE@XZ	; SP2Packet::~SP2Packet
__unwindfunclet$?CheckKeyInput@ioRunChargeItem2@@IAEXPAVioBaseChar@@@Z$1:
  0000b	8d 8d c0 ff fe
	ff		 lea	 ecx, DWORD PTR _kPacket$608466[ebp]
  00011	e9 00 00 00 00	 jmp	 ??1SP2Packet@@UAE@XZ	; SP2Packet::~SP2Packet
__ehhandler$?CheckKeyInput@ioRunChargeItem2@@IAEXPAVioBaseChar@@@Z:
  00016	8b 54 24 08	 mov	 edx, DWORD PTR [esp+8]
  0001a	8d 42 0c	 lea	 eax, DWORD PTR [edx+12]
  0001d	8b 8a bc ff fe
	ff		 mov	 ecx, DWORD PTR [edx-65604]
  00023	33 c8		 xor	 ecx, eax
  00025	e8 00 00 00 00	 call	 @__security_check_cookie@4
  0002a	8b 4a fc	 mov	 ecx, DWORD PTR [edx-4]
  0002d	33 c8		 xor	 ecx, eax
  0002f	e8 00 00 00 00	 call	 @__security_check_cookie@4
  00034	b8 00 00 00 00	 mov	 eax, OFFSET __ehfuncinfo$?CheckKeyInput@ioRunChargeItem2@@IAEXPAVioBaseChar@@@Z
  00039	e9 00 00 00 00	 jmp	 ___CxxFrameHandler3
text$x	ENDS
?CheckKeyInput@ioRunChargeItem2@@IAEXPAVioBaseChar@@@Z ENDP ; ioRunChargeItem2::CheckKeyInput
PUBLIC	?CheckReserve@ioRunChargeItem2@@MAEXPAVioBaseChar@@@Z ; ioRunChargeItem2::CheckReserve
EXTRN	?IsJumpKey@ioBaseChar@@QBE_NXZ:PROC		; ioBaseChar::IsJumpKey
EXTRN	?IsAttackKey@ioBaseChar@@QBE_NXZ:PROC		; ioBaseChar::IsAttackKey
EXTRN	?GetSkillKeyInput@ioBaseChar@@QAEHXZ:PROC	; ioBaseChar::GetSkillKeyInput
; Function compile flags: /Ogsp
;	COMDAT ?CheckReserve@ioRunChargeItem2@@MAEXPAVioBaseChar@@@Z
_TEXT	SEGMENT
_bReserveSkill$ = -1					; size = 1
_pOwner$ = 8						; size = 4
?CheckReserve@ioRunChargeItem2@@MAEXPAVioBaseChar@@@Z PROC ; ioRunChargeItem2::CheckReserve, COMDAT
; _this$ = ecx

; 1137 : {

  00000	55		 push	 ebp
  00001	8b ec		 mov	 ebp, esp
  00003	51		 push	 ecx
  00004	53		 push	 ebx
  00005	56		 push	 esi
  00006	57		 push	 edi

; 1138 : 	bool bReserveSkill = false;
; 1139 : 	int iSkillNum = pOwner->GetSkillKeyInput();

  00007	8b 7d 08	 mov	 edi, DWORD PTR _pOwner$[ebp]
  0000a	8b f1		 mov	 esi, ecx
  0000c	33 db		 xor	 ebx, ebx
  0000e	8b cf		 mov	 ecx, edi
  00010	88 5d ff	 mov	 BYTE PTR _bReserveSkill$[ebp], bl
  00013	e8 00 00 00 00	 call	 ?GetSkillKeyInput@ioBaseChar@@QAEHXZ ; ioBaseChar::GetSkillKeyInput

; 1140 : 	if( iSkillNum >= 0 )

  00018	3b c3		 cmp	 eax, ebx
  0001a	7c 0a		 jl	 SHORT $LN6@CheckReser

; 1141 : 	{
; 1142 : 		m_iSkillInput = iSkillNum;

  0001c	89 86 fc 0e 00
	00		 mov	 DWORD PTR [esi+3836], eax

; 1143 : 		bReserveSkill = true;

  00022	c6 45 ff 01	 mov	 BYTE PTR _bReserveSkill$[ebp], 1
$LN6@CheckReser:

; 1144 : 	}
; 1145 : 
; 1146 : 	if( pOwner->IsDefenseKeyDown() && !m_bEnableDefenseState && !bReserveSkill )

  00026	8b cf		 mov	 ecx, edi
  00028	e8 00 00 00 00	 call	 ?IsDefenseKeyDown@ioBaseChar@@QBE_NXZ ; ioBaseChar::IsDefenseKeyDown
  0002d	84 c0		 test	 al, al
  0002f	74 1e		 je	 SHORT $LN5@CheckReser
  00031	38 9e 00 0f 00
	00		 cmp	 BYTE PTR [esi+3840], bl
  00037	75 16		 jne	 SHORT $LN5@CheckReser
  00039	38 5d ff	 cmp	 BYTE PTR _bReserveSkill$[ebp], bl
  0003c	75 11		 jne	 SHORT $LN5@CheckReser

; 1147 : 	{
; 1148 : 		m_bEnableDefenseState = true;

  0003e	66 c7 86 00 0f
	00 00 01 00	 mov	 WORD PTR [esi+3840], 1
$LN10@CheckReser:

; 1149 : 		m_bEnableAttackState = false;
; 1150 : 		m_bEnableJumpState = false;

  00047	88 9e 02 0f 00
	00		 mov	 BYTE PTR [esi+3842], bl

; 1151 : 
; 1152 : 		m_iSkillInput = -1;

  0004d	eb 4a		 jmp	 SHORT $LN9@CheckReser
$LN5@CheckReser:

; 1153 : 	}
; 1154 : 	else if( pOwner->IsAttackKey() && !m_bEnableAttackState && !bReserveSkill )

  0004f	8b cf		 mov	 ecx, edi
  00051	e8 00 00 00 00	 call	 ?IsAttackKey@ioBaseChar@@QBE_NXZ ; ioBaseChar::IsAttackKey
  00056	84 c0		 test	 al, al
  00058	74 18		 je	 SHORT $LN3@CheckReser
  0005a	38 9e 01 0f 00
	00		 cmp	 BYTE PTR [esi+3841], bl
  00060	75 10		 jne	 SHORT $LN3@CheckReser
  00062	38 5d ff	 cmp	 BYTE PTR _bReserveSkill$[ebp], bl
  00065	75 0b		 jne	 SHORT $LN3@CheckReser

; 1155 : 	{
; 1156 : 		m_bEnableAttackState = true;

  00067	66 c7 86 00 0f
	00 00 00 01	 mov	 WORD PTR [esi+3840], 256 ; 00000100H

; 1157 : 		m_bEnableDefenseState = false;
; 1158 : 		m_bEnableJumpState = false;
; 1159 : 
; 1160 : 		m_iSkillInput = -1;

  00070	eb d5		 jmp	 SHORT $LN10@CheckReser
$LN3@CheckReser:

; 1161 : 	}
; 1162 : 	else if( pOwner->IsJumpKey() && !m_bEnableJumpState && !bReserveSkill )

  00072	8b cf		 mov	 ecx, edi
  00074	e8 00 00 00 00	 call	 ?IsJumpKey@ioBaseChar@@QBE_NXZ ; ioBaseChar::IsJumpKey
  00079	84 c0		 test	 al, al
  0007b	74 23		 je	 SHORT $LN1@CheckReser
  0007d	38 9e 02 0f 00
	00		 cmp	 BYTE PTR [esi+3842], bl
  00083	75 1b		 jne	 SHORT $LN1@CheckReser
  00085	38 5d ff	 cmp	 BYTE PTR _bReserveSkill$[ebp], bl
  00088	75 16		 jne	 SHORT $LN1@CheckReser

; 1163 : 	{
; 1164 : 		m_bEnableJumpState = true;

  0008a	66 c7 86 01 0f
	00 00 00 01	 mov	 WORD PTR [esi+3841], 256 ; 00000100H

; 1165 : 		m_bEnableAttackState = false;
; 1166 : 		m_bEnableDefenseState = false;

  00093	88 9e 00 0f 00
	00		 mov	 BYTE PTR [esi+3840], bl
$LN9@CheckReser:

; 1167 : 		m_iSkillInput = -1;

  00099	83 8e fc 0e 00
	00 ff		 or	 DWORD PTR [esi+3836], -1
$LN1@CheckReser:
  000a0	5f		 pop	 edi
  000a1	5e		 pop	 esi
  000a2	5b		 pop	 ebx

; 1168 : 	}
; 1169 : }

  000a3	c9		 leave
  000a4	c2 04 00	 ret	 4
?CheckReserve@ioRunChargeItem2@@MAEXPAVioBaseChar@@@Z ENDP ; ioRunChargeItem2::CheckReserve
_TEXT	ENDS
PUBLIC	__real@3f91df46a2526c7a
PUBLIC	??$DEGtoRAD@M@@YAMM@Z				; DEGtoRAD<float>
;	COMDAT __real@3f91df46a2526c7a
; File d:\lost saga for developer\youtube\tutorial\source\src\lsclient\veryoftenusedefine.h
CONST	SEGMENT
__real@3f91df46a2526c7a DQ 03f91df46a2526c7ar	; 0.0174533
; Function compile flags: /Ogsp
CONST	ENDS
;	COMDAT ??$DEGtoRAD@M@@YAMM@Z
_TEXT	SEGMENT
tv129 = 8						; size = 4
_val$ = 8						; size = 4
??$DEGtoRAD@M@@YAMM@Z PROC				; DEGtoRAD<float>, COMDAT

; 20   : type  DEGtoRAD (type val) {return (type) (val * 0.0174532925199);}

  00000	55		 push	 ebp
  00001	8b ec		 mov	 ebp, esp
  00003	d9 45 08	 fld	 DWORD PTR _val$[ebp]
  00006	dc 0d 00 00 00
	00		 fmul	 QWORD PTR __real@3f91df46a2526c7a
  0000c	d9 5d 08	 fstp	 DWORD PTR tv129[ebp]
  0000f	d9 45 08	 fld	 DWORD PTR tv129[ebp]
  00012	5d		 pop	 ebp
  00013	c3		 ret	 0
??$DEGtoRAD@M@@YAMM@Z ENDP				; DEGtoRAD<float>
_TEXT	ENDS
PUBLIC	??$_Ptr_cat@V?$_Vector_const_iterator@V?$_Vector_val@UWeaponInfo@@V?$allocator@UWeaponInfo@@@std@@@std@@@std@@PAUWeaponInfo@@@std@@YA?AU_Nonscalar_ptr_iterator_tag@0@AAV?$_Vector_const_iterator@V?$_Vector_val@UWeaponInfo@@V?$allocator@UWeaponInfo@@@std@@@std@@@0@AAPAUWeaponInfo@@@Z ; std::_Ptr_cat<std::_Vector_const_iterator<std::_Vector_val<WeaponInfo,std::allocator<WeaponInfo> > >,WeaponInfo *>
; Function compile flags: /Ogsp
; File c:\program files (x86)\microsoft visual studio 10.0\vc\include\xutility
;	COMDAT ??$_Ptr_cat@V?$_Vector_const_iterator@V?$_Vector_val@UWeaponInfo@@V?$allocator@UWeaponInfo@@@std@@@std@@@std@@PAUWeaponInfo@@@std@@YA?AU_Nonscalar_ptr_iterator_tag@0@AAV?$_Vector_const_iterator@V?$_Vector_val@UWeaponInfo@@V?$allocator@UWeaponInfo@@@std@@@std@@@0@AAPAUWeaponInfo@@@Z
_TEXT	SEGMENT
__Cat$ = -1						; size = 1
___formal$ = 8						; size = 4
___formal$ = 12						; size = 4
??$_Ptr_cat@V?$_Vector_const_iterator@V?$_Vector_val@UWeaponInfo@@V?$allocator@UWeaponInfo@@@std@@@std@@@std@@PAUWeaponInfo@@@std@@YA?AU_Nonscalar_ptr_iterator_tag@0@AAV?$_Vector_const_iterator@V?$_Vector_val@UWeaponInfo@@V?$allocator@UWeaponInfo@@@std@@@std@@@0@AAPAUWeaponInfo@@@Z PROC ; std::_Ptr_cat<std::_Vector_const_iterator<std::_Vector_val<WeaponInfo,std::allocator<WeaponInfo> > >,WeaponInfo *>, COMDAT

; 485  : 	{	// return pointer category from arbitrary arguments

  00000	55		 push	 ebp
  00001	8b ec		 mov	 ebp, esp
  00003	51		 push	 ecx

; 486  : 	_Nonscalar_ptr_iterator_tag _Cat;
; 487  : 	return (_Cat);

  00004	8a 45 ff	 mov	 al, BYTE PTR __Cat$[ebp]

; 488  : 	}

  00007	c9		 leave
  00008	c3		 ret	 0
??$_Ptr_cat@V?$_Vector_const_iterator@V?$_Vector_val@UWeaponInfo@@V?$allocator@UWeaponInfo@@@std@@@std@@@std@@PAUWeaponInfo@@@std@@YA?AU_Nonscalar_ptr_iterator_tag@0@AAV?$_Vector_const_iterator@V?$_Vector_val@UWeaponInfo@@V?$allocator@UWeaponInfo@@@std@@@std@@@0@AAPAUWeaponInfo@@@Z ENDP ; std::_Ptr_cat<std::_Vector_const_iterator<std::_Vector_val<WeaponInfo,std::allocator<WeaponInfo> > >,WeaponInfo *>
_TEXT	ENDS
PUBLIC	??$_Ptr_cat@V?$_Vector_const_iterator@V?$_Vector_val@UForceInfo@@V?$allocator@UForceInfo@@@std@@@std@@@std@@PAUForceInfo@@@std@@YA?AU_Nonscalar_ptr_iterator_tag@0@AAV?$_Vector_const_iterator@V?$_Vector_val@UForceInfo@@V?$allocator@UForceInfo@@@std@@@std@@@0@AAPAUForceInfo@@@Z ; std::_Ptr_cat<std::_Vector_const_iterator<std::_Vector_val<ForceInfo,std::allocator<ForceInfo> > >,ForceInfo *>
; Function compile flags: /Ogsp
;	COMDAT ??$_Ptr_cat@V?$_Vector_const_iterator@V?$_Vector_val@UForceInfo@@V?$allocator@UForceInfo@@@std@@@std@@@std@@PAUForceInfo@@@std@@YA?AU_Nonscalar_ptr_iterator_tag@0@AAV?$_Vector_const_iterator@V?$_Vector_val@UForceInfo@@V?$allocator@UForceInfo@@@std@@@std@@@0@AAPAUForceInfo@@@Z
_TEXT	SEGMENT
__Cat$ = -1						; size = 1
___formal$ = 8						; size = 4
___formal$ = 12						; size = 4
??$_Ptr_cat@V?$_Vector_const_iterator@V?$_Vector_val@UForceInfo@@V?$allocator@UForceInfo@@@std@@@std@@@std@@PAUForceInfo@@@std@@YA?AU_Nonscalar_ptr_iterator_tag@0@AAV?$_Vector_const_iterator@V?$_Vector_val@UForceInfo@@V?$allocator@UForceInfo@@@std@@@std@@@0@AAPAUForceInfo@@@Z PROC ; std::_Ptr_cat<std::_Vector_const_iterator<std::_Vector_val<ForceInfo,std::allocator<ForceInfo> > >,ForceInfo *>, COMDAT

; 485  : 	{	// return pointer category from arbitrary arguments

  00000	55		 push	 ebp
  00001	8b ec		 mov	 ebp, esp
  00003	51		 push	 ecx

; 486  : 	_Nonscalar_ptr_iterator_tag _Cat;
; 487  : 	return (_Cat);

  00004	8a 45 ff	 mov	 al, BYTE PTR __Cat$[ebp]

; 488  : 	}

  00007	c9		 leave
  00008	c3		 ret	 0
??$_Ptr_cat@V?$_Vector_const_iterator@V?$_Vector_val@UForceInfo@@V?$allocator@UForceInfo@@@std@@@std@@@std@@PAUForceInfo@@@std@@YA?AU_Nonscalar_ptr_iterator_tag@0@AAV?$_Vector_const_iterator@V?$_Vector_val@UForceInfo@@V?$allocator@UForceInfo@@@std@@@std@@@0@AAPAUForceInfo@@@Z ENDP ; std::_Ptr_cat<std::_Vector_const_iterator<std::_Vector_val<ForceInfo,std::allocator<ForceInfo> > >,ForceInfo *>
_TEXT	ENDS
PUBLIC	??D?$_Vector_const_iterator@V?$_Vector_val@UWeaponInfo@@V?$allocator@UWeaponInfo@@@std@@@std@@@std@@QBEABUWeaponInfo@@XZ ; std::_Vector_const_iterator<std::_Vector_val<WeaponInfo,std::allocator<WeaponInfo> > >::operator*
; Function compile flags: /Ogsp
; File c:\program files (x86)\microsoft visual studio 10.0\vc\include\vector
;	COMDAT ??D?$_Vector_const_iterator@V?$_Vector_val@UWeaponInfo@@V?$allocator@UWeaponInfo@@@std@@@std@@@std@@QBEABUWeaponInfo@@XZ
_TEXT	SEGMENT
??D?$_Vector_const_iterator@V?$_Vector_val@UWeaponInfo@@V?$allocator@UWeaponInfo@@@std@@@std@@@std@@QBEABUWeaponInfo@@XZ PROC ; std::_Vector_const_iterator<std::_Vector_val<WeaponInfo,std::allocator<WeaponInfo> > >::operator*, COMDAT
; _this$ = ecx

; 64   :  #if _ITERATOR_DEBUG_LEVEL == 2
; 65   : 		if (this->_Getcont() == 0
; 66   : 			|| this->_Ptr == 0
; 67   : 			|| this->_Ptr < ((_Myvec *)this->_Getcont())->_Myfirst
; 68   : 			|| ((_Myvec *)this->_Getcont())->_Mylast <= this->_Ptr)
; 69   : 			{	// report error
; 70   : 			_DEBUG_ERROR("vector iterator not dereferencable");
; 71   : 			_SCL_SECURE_OUT_OF_RANGE;
; 72   : 			}
; 73   : 
; 74   :  #elif _ITERATOR_DEBUG_LEVEL == 1
; 75   : 		_SCL_SECURE_VALIDATE(this->_Getcont() != 0);
; 76   : 		_SCL_SECURE_VALIDATE_RANGE(
; 77   : 			this->_Ptr != 0
; 78   : 			&& ((_Myvec *)this->_Getcont())->_Myfirst <= this->_Ptr
; 79   : 			&& this->_Ptr < ((_Myvec *)this->_Getcont())->_Mylast);
; 80   :  #endif /* _ITERATOR_DEBUG_LEVEL */
; 81   : 
; 82   : 		__analysis_assume(this->_Ptr != 0);
; 83   : 
; 84   : 		return (*this->_Ptr);

  00000	8b 01		 mov	 eax, DWORD PTR [ecx]

; 85   : 		}

  00002	c3		 ret	 0
??D?$_Vector_const_iterator@V?$_Vector_val@UWeaponInfo@@V?$allocator@UWeaponInfo@@@std@@@std@@@std@@QBEABUWeaponInfo@@XZ ENDP ; std::_Vector_const_iterator<std::_Vector_val<WeaponInfo,std::allocator<WeaponInfo> > >::operator*
_TEXT	ENDS
PUBLIC	??E?$_Vector_const_iterator@V?$_Vector_val@UWeaponInfo@@V?$allocator@UWeaponInfo@@@std@@@std@@@std@@QAEAAV01@XZ ; std::_Vector_const_iterator<std::_Vector_val<WeaponInfo,std::allocator<WeaponInfo> > >::operator++
; Function compile flags: /Ogsp
;	COMDAT ??E?$_Vector_const_iterator@V?$_Vector_val@UWeaponInfo@@V?$allocator@UWeaponInfo@@@std@@@std@@@std@@QAEAAV01@XZ
_TEXT	SEGMENT
??E?$_Vector_const_iterator@V?$_Vector_val@UWeaponInfo@@V?$allocator@UWeaponInfo@@@std@@@std@@@std@@QAEAAV01@XZ PROC ; std::_Vector_const_iterator<std::_Vector_val<WeaponInfo,std::allocator<WeaponInfo> > >::operator++, COMDAT
; _this$ = ecx

; 93   : 		{	// preincrement

  00000	8b c1		 mov	 eax, ecx

; 94   :  #if _ITERATOR_DEBUG_LEVEL == 2
; 95   : 		if (this->_Getcont() == 0
; 96   : 			|| this->_Ptr == 0
; 97   : 			|| ((_Myvec *)this->_Getcont())->_Mylast <= this->_Ptr)
; 98   : 			{	// report error
; 99   : 			_DEBUG_ERROR("vector iterator not incrementable");
; 100  : 			_SCL_SECURE_OUT_OF_RANGE;
; 101  : 			}
; 102  : 
; 103  :  #elif _ITERATOR_DEBUG_LEVEL == 1
; 104  : 		_SCL_SECURE_VALIDATE(this->_Getcont() != 0);
; 105  : 		_SCL_SECURE_VALIDATE_RANGE(
; 106  : 			this->_Ptr != 0
; 107  : 			&& this->_Ptr < ((_Myvec *)this->_Getcont())->_Mylast);
; 108  :  #endif /* _ITERATOR_DEBUG_LEVEL */
; 109  : 
; 110  : 		++this->_Ptr;

  00002	83 00 28	 add	 DWORD PTR [eax], 40	; 00000028H

; 111  : 		return (*this);
; 112  : 		}

  00005	c3		 ret	 0
??E?$_Vector_const_iterator@V?$_Vector_val@UWeaponInfo@@V?$allocator@UWeaponInfo@@@std@@@std@@@std@@QAEAAV01@XZ ENDP ; std::_Vector_const_iterator<std::_Vector_val<WeaponInfo,std::allocator<WeaponInfo> > >::operator++
_TEXT	ENDS
PUBLIC	??D?$_Vector_const_iterator@V?$_Vector_val@UForceInfo@@V?$allocator@UForceInfo@@@std@@@std@@@std@@QBEABUForceInfo@@XZ ; std::_Vector_const_iterator<std::_Vector_val<ForceInfo,std::allocator<ForceInfo> > >::operator*
; Function compile flags: /Ogsp
;	COMDAT ??D?$_Vector_const_iterator@V?$_Vector_val@UForceInfo@@V?$allocator@UForceInfo@@@std@@@std@@@std@@QBEABUForceInfo@@XZ
_TEXT	SEGMENT
??D?$_Vector_const_iterator@V?$_Vector_val@UForceInfo@@V?$allocator@UForceInfo@@@std@@@std@@@std@@QBEABUForceInfo@@XZ PROC ; std::_Vector_const_iterator<std::_Vector_val<ForceInfo,std::allocator<ForceInfo> > >::operator*, COMDAT
; _this$ = ecx

; 64   :  #if _ITERATOR_DEBUG_LEVEL == 2
; 65   : 		if (this->_Getcont() == 0
; 66   : 			|| this->_Ptr == 0
; 67   : 			|| this->_Ptr < ((_Myvec *)this->_Getcont())->_Myfirst
; 68   : 			|| ((_Myvec *)this->_Getcont())->_Mylast <= this->_Ptr)
; 69   : 			{	// report error
; 70   : 			_DEBUG_ERROR("vector iterator not dereferencable");
; 71   : 			_SCL_SECURE_OUT_OF_RANGE;
; 72   : 			}
; 73   : 
; 74   :  #elif _ITERATOR_DEBUG_LEVEL == 1
; 75   : 		_SCL_SECURE_VALIDATE(this->_Getcont() != 0);
; 76   : 		_SCL_SECURE_VALIDATE_RANGE(
; 77   : 			this->_Ptr != 0
; 78   : 			&& ((_Myvec *)this->_Getcont())->_Myfirst <= this->_Ptr
; 79   : 			&& this->_Ptr < ((_Myvec *)this->_Getcont())->_Mylast);
; 80   :  #endif /* _ITERATOR_DEBUG_LEVEL */
; 81   : 
; 82   : 		__analysis_assume(this->_Ptr != 0);
; 83   : 
; 84   : 		return (*this->_Ptr);

  00000	8b 01		 mov	 eax, DWORD PTR [ecx]

; 85   : 		}

  00002	c3		 ret	 0
??D?$_Vector_const_iterator@V?$_Vector_val@UForceInfo@@V?$allocator@UForceInfo@@@std@@@std@@@std@@QBEABUForceInfo@@XZ ENDP ; std::_Vector_const_iterator<std::_Vector_val<ForceInfo,std::allocator<ForceInfo> > >::operator*
_TEXT	ENDS
PUBLIC	??E?$_Vector_const_iterator@V?$_Vector_val@UForceInfo@@V?$allocator@UForceInfo@@@std@@@std@@@std@@QAEAAV01@XZ ; std::_Vector_const_iterator<std::_Vector_val<ForceInfo,std::allocator<ForceInfo> > >::operator++
; Function compile flags: /Ogsp
;	COMDAT ??E?$_Vector_const_iterator@V?$_Vector_val@UForceInfo@@V?$allocator@UForceInfo@@@std@@@std@@@std@@QAEAAV01@XZ
_TEXT	SEGMENT
??E?$_Vector_const_iterator@V?$_Vector_val@UForceInfo@@V?$allocator@UForceInfo@@@std@@@std@@@std@@QAEAAV01@XZ PROC ; std::_Vector_const_iterator<std::_Vector_val<ForceInfo,std::allocator<ForceInfo> > >::operator++, COMDAT
; _this$ = ecx

; 93   : 		{	// preincrement

  00000	8b c1		 mov	 eax, ecx

; 94   :  #if _ITERATOR_DEBUG_LEVEL == 2
; 95   : 		if (this->_Getcont() == 0
; 96   : 			|| this->_Ptr == 0
; 97   : 			|| ((_Myvec *)this->_Getcont())->_Mylast <= this->_Ptr)
; 98   : 			{	// report error
; 99   : 			_DEBUG_ERROR("vector iterator not incrementable");
; 100  : 			_SCL_SECURE_OUT_OF_RANGE;
; 101  : 			}
; 102  : 
; 103  :  #elif _ITERATOR_DEBUG_LEVEL == 1
; 104  : 		_SCL_SECURE_VALIDATE(this->_Getcont() != 0);
; 105  : 		_SCL_SECURE_VALIDATE_RANGE(
; 106  : 			this->_Ptr != 0
; 107  : 			&& this->_Ptr < ((_Myvec *)this->_Getcont())->_Mylast);
; 108  :  #endif /* _ITERATOR_DEBUG_LEVEL */
; 109  : 
; 110  : 		++this->_Ptr;

  00002	83 00 0c	 add	 DWORD PTR [eax], 12	; 0000000cH

; 111  : 		return (*this);
; 112  : 		}

  00005	c3		 ret	 0
??E?$_Vector_const_iterator@V?$_Vector_val@UForceInfo@@V?$allocator@UForceInfo@@@std@@@std@@@std@@QAEAAV01@XZ ENDP ; std::_Vector_const_iterator<std::_Vector_val<ForceInfo,std::allocator<ForceInfo> > >::operator++
_TEXT	ENDS
PUBLIC	??$forward@ABUWeaponInfo@@@std@@YAABUWeaponInfo@@ABU1@@Z ; std::forward<WeaponInfo const &>
; Function compile flags: /Ogsp
; File c:\program files (x86)\microsoft visual studio 10.0\vc\include\utility
;	COMDAT ??$forward@ABUWeaponInfo@@@std@@YAABUWeaponInfo@@ABU1@@Z
_TEXT	SEGMENT
__Arg$ = 8						; size = 4
??$forward@ABUWeaponInfo@@@std@@YAABUWeaponInfo@@ABU1@@Z PROC ; std::forward<WeaponInfo const &>, COMDAT

; 78   : 	{	// forward _Arg, given explicitly specified type parameter

  00000	55		 push	 ebp
  00001	8b ec		 mov	 ebp, esp

; 79   : 	return ((_Ty&&)_Arg);

  00003	8b 45 08	 mov	 eax, DWORD PTR __Arg$[ebp]

; 80   : 	}

  00006	5d		 pop	 ebp
  00007	c3		 ret	 0
??$forward@ABUWeaponInfo@@@std@@YAABUWeaponInfo@@ABU1@@Z ENDP ; std::forward<WeaponInfo const &>
_TEXT	ENDS
PUBLIC	??$forward@ABUForceInfo@@@std@@YAABUForceInfo@@ABU1@@Z ; std::forward<ForceInfo const &>
; Function compile flags: /Ogsp
;	COMDAT ??$forward@ABUForceInfo@@@std@@YAABUForceInfo@@ABU1@@Z
_TEXT	SEGMENT
__Arg$ = 8						; size = 4
??$forward@ABUForceInfo@@@std@@YAABUForceInfo@@ABU1@@Z PROC ; std::forward<ForceInfo const &>, COMDAT

; 78   : 	{	// forward _Arg, given explicitly specified type parameter

  00000	55		 push	 ebp
  00001	8b ec		 mov	 ebp, esp

; 79   : 	return ((_Ty&&)_Arg);

  00003	8b 45 08	 mov	 eax, DWORD PTR __Arg$[ebp]

; 80   : 	}

  00006	5d		 pop	 ebp
  00007	c3		 ret	 0
??$forward@ABUForceInfo@@@std@@YAABUForceInfo@@ABU1@@Z ENDP ; std::forward<ForceInfo const &>
_TEXT	ENDS
PUBLIC	??$_Construct@UForceInfo@@ABU1@@std@@YAXPAUForceInfo@@ABU1@@Z ; std::_Construct<ForceInfo,ForceInfo const &>
; Function compile flags: /Ogsp
; File c:\program files (x86)\microsoft visual studio 10.0\vc\include\xmemory
;	COMDAT ??$_Construct@UForceInfo@@ABU1@@std@@YAXPAUForceInfo@@ABU1@@Z
_TEXT	SEGMENT
__Ptr$ = 8						; size = 4
__Val$ = 12						; size = 4
??$_Construct@UForceInfo@@ABU1@@std@@YAXPAUForceInfo@@ABU1@@Z PROC ; std::_Construct<ForceInfo,ForceInfo const &>, COMDAT

; 46   : 	{	// construct object at _Ptr with value _Val

  00000	55		 push	 ebp
  00001	8b ec		 mov	 ebp, esp
  00003	57		 push	 edi

; 47   : 	void _FARQ *_Vptr = _Ptr;
; 48   : 	::new (_Vptr) _Ty1(_STD forward<_Ty2>(_Val));

  00004	8b 7d 08	 mov	 edi, DWORD PTR __Ptr$[ebp]
  00007	85 ff		 test	 edi, edi
  00009	74 08		 je	 SHORT $LN3@Construct
  0000b	56		 push	 esi
  0000c	8b 75 0c	 mov	 esi, DWORD PTR __Val$[ebp]
  0000f	a5		 movsd
  00010	a5		 movsd
  00011	a5		 movsd
  00012	5e		 pop	 esi
$LN3@Construct:
  00013	5f		 pop	 edi

; 49   : 	}

  00014	5d		 pop	 ebp
  00015	c3		 ret	 0
??$_Construct@UForceInfo@@ABU1@@std@@YAXPAUForceInfo@@ABU1@@Z ENDP ; std::_Construct<ForceInfo,ForceInfo const &>
_TEXT	ENDS
PUBLIC	?_DECSTR@@YAXPADH@Z				; _DECSTR
; Function compile flags: /Ogsp
; File d:\lost saga for developer\youtube\tutorial\source\src\lsclient\stringprotect.h
;	COMDAT ?_DECSTR@@YAXPADH@Z
_TEXT	SEGMENT
_s$ = 8							; size = 4
_l$ = 12						; size = 4
?_DECSTR@@YAXPADH@Z PROC				; _DECSTR, COMDAT

; 40   : __forceinline void _DECSTR(char* s, int l){int i=0,l4=(l-1)/4,*p=(int*)s;s[l-1]=0;for(;i<l4;++i)*(p++)^=0xEAEBECED;for(i=l4*4;i<l-1;++i)s[i]^=0xED-i%4;}

  00000	55		 push	 ebp
  00001	8b ec		 mov	 ebp, esp
  00003	8b 4d 0c	 mov	 ecx, DWORD PTR _l$[ebp]
  00006	56		 push	 esi
  00007	8b 75 08	 mov	 esi, DWORD PTR _s$[ebp]
  0000a	57		 push	 edi
  0000b	8d 79 ff	 lea	 edi, DWORD PTR [ecx-1]
  0000e	8b c7		 mov	 eax, edi
  00010	99		 cdq
  00011	83 e2 03	 and	 edx, 3
  00014	03 c2		 add	 eax, edx
  00016	c1 f8 02	 sar	 eax, 2
  00019	8b d6		 mov	 edx, esi
  0001b	c6 44 0e ff 00	 mov	 BYTE PTR [esi+ecx-1], 0
  00020	85 c0		 test	 eax, eax
  00022	7e 0e		 jle	 SHORT $LN4@DECSTR
  00024	8b c8		 mov	 ecx, eax
$LL6@DECSTR:
  00026	81 32 ed ec eb
	ea		 xor	 DWORD PTR [edx], -353637139 ; eaebecedH
  0002c	83 c2 04	 add	 edx, 4
  0002f	49		 dec	 ecx
  00030	75 f4		 jne	 SHORT $LL6@DECSTR
$LN4@DECSTR:
  00032	c1 e0 02	 shl	 eax, 2
  00035	eb 17		 jmp	 SHORT $LN14@DECSTR
$LL3@DECSTR:
  00037	8b c8		 mov	 ecx, eax
  00039	81 e1 03 00 00
	80		 and	 ecx, -2147483645	; 80000003H
  0003f	79 05		 jns	 SHORT $LN13@DECSTR
  00041	49		 dec	 ecx
  00042	83 c9 fc	 or	 ecx, -4			; fffffffcH
  00045	41		 inc	 ecx
$LN13@DECSTR:
  00046	b2 ed		 mov	 dl, -19			; ffffffedH
  00048	2a d1		 sub	 dl, cl
  0004a	30 14 30	 xor	 BYTE PTR [eax+esi], dl
  0004d	40		 inc	 eax
$LN14@DECSTR:
  0004e	3b c7		 cmp	 eax, edi
  00050	7c e5		 jl	 SHORT $LL3@DECSTR
  00052	5f		 pop	 edi
  00053	5e		 pop	 esi
  00054	5d		 pop	 ebp
  00055	c3		 ret	 0
?_DECSTR@@YAXPADH@Z ENDP				; _DECSTR
_TEXT	ENDS
PUBLIC	?return57@@YAIXZ				; return57
; Function compile flags: /Ogsp
; File d:\lost saga for developer\youtube\tutorial\source\src\lsclient\veryoftenusedefine.h
;	COMDAT ?return57@@YAIXZ
_TEXT	SEGMENT
?return57@@YAIXZ PROC					; return57, COMDAT

; 15   : __forceinline unsigned int return57() { __asm mov eax, 57 };

  00000	b8 39 00 00 00	 mov	 eax, 57			; 00000039H
  00005	c3		 ret	 0
?return57@@YAIXZ ENDP					; return57
_TEXT	ENDS
PUBLIC	?GetGroup@ioGameEntity@@QBEPAVioEntityGroup@@XZ	; ioGameEntity::GetGroup
; Function compile flags: /Ogsp
; File d:\lost saga for developer\youtube\tutorial\source\src\lsclient\iogameentity.h
;	COMDAT ?GetGroup@ioGameEntity@@QBEPAVioEntityGroup@@XZ
_TEXT	SEGMENT
?GetGroup@ioGameEntity@@QBEPAVioEntityGroup@@XZ PROC	; ioGameEntity::GetGroup, COMDAT
; _this$ = ecx

; 166  : 	inline ioEntityGroup* GetGroup() const { return m_pGroup; }

  00000	8b 41 04	 mov	 eax, DWORD PTR [ecx+4]
  00003	c3		 ret	 0
?GetGroup@ioGameEntity@@QBEPAVioEntityGroup@@XZ ENDP	; ioGameEntity::GetGroup
_TEXT	ENDS
PUBLIC	??1WeaponInfo@@QAE@XZ				; WeaponInfo::~WeaponInfo
EXTRN	__imp_??1ioHashString@@QAE@XZ:PROC
; Function compile flags: /Ogsp
;	COMDAT ??1WeaponInfo@@QAE@XZ
_TEXT	SEGMENT
??1WeaponInfo@@QAE@XZ PROC				; WeaponInfo::~WeaponInfo, COMDAT
; _this$ = ecx
  00000	83 c1 08	 add	 ecx, 8
  00003	ff 25 00 00 00
	00		 jmp	 DWORD PTR __imp_??1ioHashString@@QAE@XZ
??1WeaponInfo@@QAE@XZ ENDP				; WeaponInfo::~WeaponInfo
_TEXT	ENDS
PUBLIC	??_7?$CEncrypt@M@@6B@				; CEncrypt<float>::`vftable'
PUBLIC	??1?$CEncrypt@M@@UAE@XZ				; CEncrypt<float>::~CEncrypt<float>
PUBLIC	??_R4?$CEncrypt@M@@6B@				; CEncrypt<float>::`RTTI Complete Object Locator'
PUBLIC	??_R0?AV?$CEncrypt@M@@@8			; CEncrypt<float> `RTTI Type Descriptor'
PUBLIC	??_R3?$CEncrypt@M@@8				; CEncrypt<float>::`RTTI Class Hierarchy Descriptor'
PUBLIC	??_R2?$CEncrypt@M@@8				; CEncrypt<float>::`RTTI Base Class Array'
PUBLIC	??_R1A@?0A@EA@?$CEncrypt@M@@8			; CEncrypt<float>::`RTTI Base Class Descriptor at (0,-1,0,64)'
EXTRN	??1ccddaabb@@UAE@XZ:PROC			; ccddaabb::~ccddaabb
EXTRN	??_E?$CEncrypt@M@@UAEPAXI@Z:PROC		; CEncrypt<float>::`vector deleting destructor'
;	COMDAT ??_R1A@?0A@EA@?$CEncrypt@M@@8
; File d:\lost saga for developer\youtube\tutorial\source\src\lsclient\encryptvalue.h
rdata$r	SEGMENT
??_R1A@?0A@EA@?$CEncrypt@M@@8 DD FLAT:??_R0?AV?$CEncrypt@M@@@8 ; CEncrypt<float>::`RTTI Base Class Descriptor at (0,-1,0,64)'
	DD	00H
	DD	00H
	DD	0ffffffffH
	DD	00H
	DD	040H
	DD	FLAT:??_R3?$CEncrypt@M@@8
rdata$r	ENDS
;	COMDAT ??_R2?$CEncrypt@M@@8
rdata$r	SEGMENT
??_R2?$CEncrypt@M@@8 DD FLAT:??_R1A@?0A@EA@?$CEncrypt@M@@8 ; CEncrypt<float>::`RTTI Base Class Array'
rdata$r	ENDS
;	COMDAT ??_R3?$CEncrypt@M@@8
rdata$r	SEGMENT
??_R3?$CEncrypt@M@@8 DD 00H				; CEncrypt<float>::`RTTI Class Hierarchy Descriptor'
	DD	00H
	DD	01H
	DD	FLAT:??_R2?$CEncrypt@M@@8
rdata$r	ENDS
;	COMDAT ??_R0?AV?$CEncrypt@M@@@8
_DATA	SEGMENT
??_R0?AV?$CEncrypt@M@@@8 DD FLAT:??_7type_info@@6B@	; CEncrypt<float> `RTTI Type Descriptor'
	DD	00H
	DB	'.?AV?$CEncrypt@M@@', 00H
_DATA	ENDS
;	COMDAT ??_R4?$CEncrypt@M@@6B@
rdata$r	SEGMENT
??_R4?$CEncrypt@M@@6B@ DD 00H				; CEncrypt<float>::`RTTI Complete Object Locator'
	DD	00H
	DD	00H
	DD	FLAT:??_R0?AV?$CEncrypt@M@@@8
	DD	FLAT:??_R3?$CEncrypt@M@@8
rdata$r	ENDS
;	COMDAT ??_7?$CEncrypt@M@@6B@
CONST	SEGMENT
??_7?$CEncrypt@M@@6B@ DD FLAT:??_R4?$CEncrypt@M@@6B@	; CEncrypt<float>::`vftable'
	DD	FLAT:??_E?$CEncrypt@M@@UAEPAXI@Z
; Function compile flags: /Ogsp
CONST	ENDS
;	COMDAT ??1?$CEncrypt@M@@UAE@XZ
_TEXT	SEGMENT
??1?$CEncrypt@M@@UAE@XZ PROC				; CEncrypt<float>::~CEncrypt<float>, COMDAT
; _this$ = ecx

; 127  : 	{

  00000	c7 01 00 00 00
	00		 mov	 DWORD PTR [ecx], OFFSET ??_7?$CEncrypt@M@@6B@

; 128  : 	}

  00006	83 c1 0c	 add	 ecx, 12			; 0000000cH
  00009	e9 00 00 00 00	 jmp	 ??1ccddaabb@@UAE@XZ	; ccddaabb::~ccddaabb
??1?$CEncrypt@M@@UAE@XZ ENDP				; CEncrypt<float>::~CEncrypt<float>
_TEXT	ENDS
PUBLIC	??_7?$CEncrypt@K@@6B@				; CEncrypt<unsigned long>::`vftable'
PUBLIC	??1?$CEncrypt@K@@UAE@XZ				; CEncrypt<unsigned long>::~CEncrypt<unsigned long>
PUBLIC	??_R4?$CEncrypt@K@@6B@				; CEncrypt<unsigned long>::`RTTI Complete Object Locator'
PUBLIC	??_R0?AV?$CEncrypt@K@@@8			; CEncrypt<unsigned long> `RTTI Type Descriptor'
PUBLIC	??_R3?$CEncrypt@K@@8				; CEncrypt<unsigned long>::`RTTI Class Hierarchy Descriptor'
PUBLIC	??_R2?$CEncrypt@K@@8				; CEncrypt<unsigned long>::`RTTI Base Class Array'
PUBLIC	??_R1A@?0A@EA@?$CEncrypt@K@@8			; CEncrypt<unsigned long>::`RTTI Base Class Descriptor at (0,-1,0,64)'
EXTRN	??_E?$CEncrypt@K@@UAEPAXI@Z:PROC		; CEncrypt<unsigned long>::`vector deleting destructor'
;	COMDAT ??_R1A@?0A@EA@?$CEncrypt@K@@8
rdata$r	SEGMENT
??_R1A@?0A@EA@?$CEncrypt@K@@8 DD FLAT:??_R0?AV?$CEncrypt@K@@@8 ; CEncrypt<unsigned long>::`RTTI Base Class Descriptor at (0,-1,0,64)'
	DD	00H
	DD	00H
	DD	0ffffffffH
	DD	00H
	DD	040H
	DD	FLAT:??_R3?$CEncrypt@K@@8
rdata$r	ENDS
;	COMDAT ??_R2?$CEncrypt@K@@8
rdata$r	SEGMENT
??_R2?$CEncrypt@K@@8 DD FLAT:??_R1A@?0A@EA@?$CEncrypt@K@@8 ; CEncrypt<unsigned long>::`RTTI Base Class Array'
rdata$r	ENDS
;	COMDAT ??_R3?$CEncrypt@K@@8
rdata$r	SEGMENT
??_R3?$CEncrypt@K@@8 DD 00H				; CEncrypt<unsigned long>::`RTTI Class Hierarchy Descriptor'
	DD	00H
	DD	01H
	DD	FLAT:??_R2?$CEncrypt@K@@8
rdata$r	ENDS
;	COMDAT ??_R0?AV?$CEncrypt@K@@@8
_DATA	SEGMENT
??_R0?AV?$CEncrypt@K@@@8 DD FLAT:??_7type_info@@6B@	; CEncrypt<unsigned long> `RTTI Type Descriptor'
	DD	00H
	DB	'.?AV?$CEncrypt@K@@', 00H
_DATA	ENDS
;	COMDAT ??_R4?$CEncrypt@K@@6B@
rdata$r	SEGMENT
??_R4?$CEncrypt@K@@6B@ DD 00H				; CEncrypt<unsigned long>::`RTTI Complete Object Locator'
	DD	00H
	DD	00H
	DD	FLAT:??_R0?AV?$CEncrypt@K@@@8
	DD	FLAT:??_R3?$CEncrypt@K@@8
rdata$r	ENDS
;	COMDAT ??_7?$CEncrypt@K@@6B@
CONST	SEGMENT
??_7?$CEncrypt@K@@6B@ DD FLAT:??_R4?$CEncrypt@K@@6B@	; CEncrypt<unsigned long>::`vftable'
	DD	FLAT:??_E?$CEncrypt@K@@UAEPAXI@Z
; Function compile flags: /Ogsp
CONST	ENDS
;	COMDAT ??1?$CEncrypt@K@@UAE@XZ
_TEXT	SEGMENT
??1?$CEncrypt@K@@UAE@XZ PROC				; CEncrypt<unsigned long>::~CEncrypt<unsigned long>, COMDAT
; _this$ = ecx

; 127  : 	{

  00000	c7 01 00 00 00
	00		 mov	 DWORD PTR [ecx], OFFSET ??_7?$CEncrypt@K@@6B@

; 128  : 	}

  00006	83 c1 0c	 add	 ecx, 12			; 0000000cH
  00009	e9 00 00 00 00	 jmp	 ??1ccddaabb@@UAE@XZ	; ccddaabb::~ccddaabb
??1?$CEncrypt@K@@UAE@XZ ENDP				; CEncrypt<unsigned long>::~CEncrypt<unsigned long>
_TEXT	ENDS
PUBLIC	??_7?$CEncrypt@_N@@6B@				; CEncrypt<bool>::`vftable'
PUBLIC	??1?$CEncrypt@_N@@UAE@XZ			; CEncrypt<bool>::~CEncrypt<bool>
PUBLIC	??_R4?$CEncrypt@_N@@6B@				; CEncrypt<bool>::`RTTI Complete Object Locator'
PUBLIC	??_R0?AV?$CEncrypt@_N@@@8			; CEncrypt<bool> `RTTI Type Descriptor'
PUBLIC	??_R3?$CEncrypt@_N@@8				; CEncrypt<bool>::`RTTI Class Hierarchy Descriptor'
PUBLIC	??_R2?$CEncrypt@_N@@8				; CEncrypt<bool>::`RTTI Base Class Array'
PUBLIC	??_R1A@?0A@EA@?$CEncrypt@_N@@8			; CEncrypt<bool>::`RTTI Base Class Descriptor at (0,-1,0,64)'
EXTRN	??_E?$CEncrypt@_N@@UAEPAXI@Z:PROC		; CEncrypt<bool>::`vector deleting destructor'
;	COMDAT ??_R1A@?0A@EA@?$CEncrypt@_N@@8
rdata$r	SEGMENT
??_R1A@?0A@EA@?$CEncrypt@_N@@8 DD FLAT:??_R0?AV?$CEncrypt@_N@@@8 ; CEncrypt<bool>::`RTTI Base Class Descriptor at (0,-1,0,64)'
	DD	00H
	DD	00H
	DD	0ffffffffH
	DD	00H
	DD	040H
	DD	FLAT:??_R3?$CEncrypt@_N@@8
rdata$r	ENDS
;	COMDAT ??_R2?$CEncrypt@_N@@8
rdata$r	SEGMENT
??_R2?$CEncrypt@_N@@8 DD FLAT:??_R1A@?0A@EA@?$CEncrypt@_N@@8 ; CEncrypt<bool>::`RTTI Base Class Array'
rdata$r	ENDS
;	COMDAT ??_R3?$CEncrypt@_N@@8
rdata$r	SEGMENT
??_R3?$CEncrypt@_N@@8 DD 00H				; CEncrypt<bool>::`RTTI Class Hierarchy Descriptor'
	DD	00H
	DD	01H
	DD	FLAT:??_R2?$CEncrypt@_N@@8
rdata$r	ENDS
;	COMDAT ??_R0?AV?$CEncrypt@_N@@@8
_DATA	SEGMENT
??_R0?AV?$CEncrypt@_N@@@8 DD FLAT:??_7type_info@@6B@	; CEncrypt<bool> `RTTI Type Descriptor'
	DD	00H
	DB	'.?AV?$CEncrypt@_N@@', 00H
_DATA	ENDS
;	COMDAT ??_R4?$CEncrypt@_N@@6B@
rdata$r	SEGMENT
??_R4?$CEncrypt@_N@@6B@ DD 00H				; CEncrypt<bool>::`RTTI Complete Object Locator'
	DD	00H
	DD	00H
	DD	FLAT:??_R0?AV?$CEncrypt@_N@@@8
	DD	FLAT:??_R3?$CEncrypt@_N@@8
rdata$r	ENDS
;	COMDAT ??_7?$CEncrypt@_N@@6B@
CONST	SEGMENT
??_7?$CEncrypt@_N@@6B@ DD FLAT:??_R4?$CEncrypt@_N@@6B@	; CEncrypt<bool>::`vftable'
	DD	FLAT:??_E?$CEncrypt@_N@@UAEPAXI@Z
; Function compile flags: /Ogsp
CONST	ENDS
;	COMDAT ??1?$CEncrypt@_N@@UAE@XZ
_TEXT	SEGMENT
??1?$CEncrypt@_N@@UAE@XZ PROC				; CEncrypt<bool>::~CEncrypt<bool>, COMDAT
; _this$ = ecx

; 127  : 	{

  00000	c7 01 00 00 00
	00		 mov	 DWORD PTR [ecx], OFFSET ??_7?$CEncrypt@_N@@6B@

; 128  : 	}

  00006	83 c1 0c	 add	 ecx, 12			; 0000000cH
  00009	e9 00 00 00 00	 jmp	 ??1ccddaabb@@UAE@XZ	; ccddaabb::~ccddaabb
??1?$CEncrypt@_N@@UAE@XZ ENDP				; CEncrypt<bool>::~CEncrypt<bool>
; Function compile flags: /Ogsp
_TEXT	ENDS
;	COMDAT ??_G?$CEncrypt@M@@UAEPAXI@Z
_TEXT	SEGMENT
___flags$ = 8						; size = 4
??_G?$CEncrypt@M@@UAEPAXI@Z PROC			; CEncrypt<float>::`scalar deleting destructor', COMDAT
; _this$ = ecx
  00000	55		 push	 ebp
  00001	8b ec		 mov	 ebp, esp
  00003	56		 push	 esi
  00004	8b f1		 mov	 esi, ecx
  00006	8d 4e 0c	 lea	 ecx, DWORD PTR [esi+12]
  00009	c7 06 00 00 00
	00		 mov	 DWORD PTR [esi], OFFSET ??_7?$CEncrypt@M@@6B@
  0000f	e8 00 00 00 00	 call	 ??1ccddaabb@@UAE@XZ	; ccddaabb::~ccddaabb
  00014	f6 45 08 01	 test	 BYTE PTR ___flags$[ebp], 1
  00018	74 07		 je	 SHORT $LN1@scalar@2
  0001a	56		 push	 esi
  0001b	e8 00 00 00 00	 call	 ??3@YAXPAX@Z		; operator delete
  00020	59		 pop	 ecx
$LN1@scalar@2:
  00021	8b c6		 mov	 eax, esi
  00023	5e		 pop	 esi
  00024	5d		 pop	 ebp
  00025	c2 04 00	 ret	 4
??_G?$CEncrypt@M@@UAEPAXI@Z ENDP			; CEncrypt<float>::`scalar deleting destructor'
; Function compile flags: /Ogsp
_TEXT	ENDS
;	COMDAT ??_G?$CEncrypt@K@@UAEPAXI@Z
_TEXT	SEGMENT
___flags$ = 8						; size = 4
??_G?$CEncrypt@K@@UAEPAXI@Z PROC			; CEncrypt<unsigned long>::`scalar deleting destructor', COMDAT
; _this$ = ecx
  00000	55		 push	 ebp
  00001	8b ec		 mov	 ebp, esp
  00003	56		 push	 esi
  00004	8b f1		 mov	 esi, ecx
  00006	8d 4e 0c	 lea	 ecx, DWORD PTR [esi+12]
  00009	c7 06 00 00 00
	00		 mov	 DWORD PTR [esi], OFFSET ??_7?$CEncrypt@K@@6B@
  0000f	e8 00 00 00 00	 call	 ??1ccddaabb@@UAE@XZ	; ccddaabb::~ccddaabb
  00014	f6 45 08 01	 test	 BYTE PTR ___flags$[ebp], 1
  00018	74 07		 je	 SHORT $LN1@scalar@3
  0001a	56		 push	 esi
  0001b	e8 00 00 00 00	 call	 ??3@YAXPAX@Z		; operator delete
  00020	59		 pop	 ecx
$LN1@scalar@3:
  00021	8b c6		 mov	 eax, esi
  00023	5e		 pop	 esi
  00024	5d		 pop	 ebp
  00025	c2 04 00	 ret	 4
??_G?$CEncrypt@K@@UAEPAXI@Z ENDP			; CEncrypt<unsigned long>::`scalar deleting destructor'
; Function compile flags: /Ogsp
_TEXT	ENDS
;	COMDAT ??_G?$CEncrypt@_N@@UAEPAXI@Z
_TEXT	SEGMENT
___flags$ = 8						; size = 4
??_G?$CEncrypt@_N@@UAEPAXI@Z PROC			; CEncrypt<bool>::`scalar deleting destructor', COMDAT
; _this$ = ecx
  00000	55		 push	 ebp
  00001	8b ec		 mov	 ebp, esp
  00003	56		 push	 esi
  00004	8b f1		 mov	 esi, ecx
  00006	8d 4e 0c	 lea	 ecx, DWORD PTR [esi+12]
  00009	c7 06 00 00 00
	00		 mov	 DWORD PTR [esi], OFFSET ??_7?$CEncrypt@_N@@6B@
  0000f	e8 00 00 00 00	 call	 ??1ccddaabb@@UAE@XZ	; ccddaabb::~ccddaabb
  00014	f6 45 08 01	 test	 BYTE PTR ___flags$[ebp], 1
  00018	74 07		 je	 SHORT $LN1@scalar@4
  0001a	56		 push	 esi
  0001b	e8 00 00 00 00	 call	 ??3@YAXPAX@Z		; operator delete
  00020	59		 pop	 ecx
$LN1@scalar@4:
  00021	8b c6		 mov	 eax, esi
  00023	5e		 pop	 esi
  00024	5d		 pop	 ebp
  00025	c2 04 00	 ret	 4
??_G?$CEncrypt@_N@@UAEPAXI@Z ENDP			; CEncrypt<bool>::`scalar deleting destructor'
_TEXT	ENDS
PUBLIC	??1?$_Vector_val@UWeaponInfo@@V?$allocator@UWeaponInfo@@@std@@@std@@QAE@XZ ; std::_Vector_val<WeaponInfo,std::allocator<WeaponInfo> >::~_Vector_val<WeaponInfo,std::allocator<WeaponInfo> >
; Function compile flags: /Ogsp
; File c:\program files (x86)\microsoft visual studio 10.0\vc\include\vector
;	COMDAT ??1?$_Vector_val@UWeaponInfo@@V?$allocator@UWeaponInfo@@@std@@@std@@QAE@XZ
_TEXT	SEGMENT
??1?$_Vector_val@UWeaponInfo@@V?$allocator@UWeaponInfo@@@std@@@std@@QAE@XZ PROC ; std::_Vector_val<WeaponInfo,std::allocator<WeaponInfo> >::~_Vector_val<WeaponInfo,std::allocator<WeaponInfo> >, COMDAT
; _this$ = ecx

; 434  : 		}

  00000	c3		 ret	 0
??1?$_Vector_val@UWeaponInfo@@V?$allocator@UWeaponInfo@@@std@@@std@@QAE@XZ ENDP ; std::_Vector_val<WeaponInfo,std::allocator<WeaponInfo> >::~_Vector_val<WeaponInfo,std::allocator<WeaponInfo> >
_TEXT	ENDS
PUBLIC	??0?$allocator@UWeaponInfo@@@std@@QAE@XZ	; std::allocator<WeaponInfo>::allocator<WeaponInfo>
; Function compile flags: /Ogsp
; File c:\program files (x86)\microsoft visual studio 10.0\vc\include\xmemory
;	COMDAT ??0?$allocator@UWeaponInfo@@@std@@QAE@XZ
_TEXT	SEGMENT
??0?$allocator@UWeaponInfo@@@std@@QAE@XZ PROC		; std::allocator<WeaponInfo>::allocator<WeaponInfo>, COMDAT
; _this$ = ecx

; 161  : 	_ALLOCATOR() _THROW0()

  00000	8b c1		 mov	 eax, ecx

; 162  : 		{	// construct default allocator (do nothing)
; 163  : 		}

  00002	c3		 ret	 0
??0?$allocator@UWeaponInfo@@@std@@QAE@XZ ENDP		; std::allocator<WeaponInfo>::allocator<WeaponInfo>
_TEXT	ENDS
PUBLIC	??1?$_Vector_val@UForceInfo@@V?$allocator@UForceInfo@@@std@@@std@@QAE@XZ ; std::_Vector_val<ForceInfo,std::allocator<ForceInfo> >::~_Vector_val<ForceInfo,std::allocator<ForceInfo> >
; Function compile flags: /Ogsp
; File c:\program files (x86)\microsoft visual studio 10.0\vc\include\vector
;	COMDAT ??1?$_Vector_val@UForceInfo@@V?$allocator@UForceInfo@@@std@@@std@@QAE@XZ
_TEXT	SEGMENT
??1?$_Vector_val@UForceInfo@@V?$allocator@UForceInfo@@@std@@@std@@QAE@XZ PROC ; std::_Vector_val<ForceInfo,std::allocator<ForceInfo> >::~_Vector_val<ForceInfo,std::allocator<ForceInfo> >, COMDAT
; _this$ = ecx

; 434  : 		}

  00000	c3		 ret	 0
??1?$_Vector_val@UForceInfo@@V?$allocator@UForceInfo@@@std@@@std@@QAE@XZ ENDP ; std::_Vector_val<ForceInfo,std::allocator<ForceInfo> >::~_Vector_val<ForceInfo,std::allocator<ForceInfo> >
_TEXT	ENDS
PUBLIC	??0?$allocator@UForceInfo@@@std@@QAE@XZ		; std::allocator<ForceInfo>::allocator<ForceInfo>
; Function compile flags: /Ogsp
; File c:\program files (x86)\microsoft visual studio 10.0\vc\include\xmemory
;	COMDAT ??0?$allocator@UForceInfo@@@std@@QAE@XZ
_TEXT	SEGMENT
??0?$allocator@UForceInfo@@@std@@QAE@XZ PROC		; std::allocator<ForceInfo>::allocator<ForceInfo>, COMDAT
; _this$ = ecx

; 161  : 	_ALLOCATOR() _THROW0()

  00000	8b c1		 mov	 eax, ecx

; 162  : 		{	// construct default allocator (do nothing)
; 163  : 		}

  00002	c3		 ret	 0
??0?$allocator@UForceInfo@@@std@@QAE@XZ ENDP		; std::allocator<ForceInfo>::allocator<ForceInfo>
_TEXT	ENDS
PUBLIC	?EncryptValueToPool@?$CEncrypt@M@@AAEXPBD@Z	; CEncrypt<float>::EncryptValueToPool
EXTRN	?EncryptByte@ccddaabb@@QAEXPBDPADH@Z:PROC	; ccddaabb::EncryptByte
; Function compile flags: /Ogsp
; File d:\lost saga for developer\youtube\tutorial\source\src\lsclient\encryptvalue.h
;	COMDAT ?EncryptValueToPool@?$CEncrypt@M@@AAEXPBD@Z
_TEXT	SEGMENT
_value$ = 8						; size = 4
?EncryptValueToPool@?$CEncrypt@M@@AAEXPBD@Z PROC	; CEncrypt<float>::EncryptValueToPool, COMDAT
; _this$ = ecx

; 67   : 	{

  00000	55		 push	 ebp
  00001	8b ec		 mov	 ebp, esp

; 68   : 		m_RC5.EncryptByte( value, m_MemPool, max(m_ValueSize, DEFAULT_ENCRYPT) );

  00003	0f b7 41 06	 movzx	 eax, WORD PTR [ecx+6]
  00007	83 f8 04	 cmp	 eax, 4
  0000a	77 03		 ja	 SHORT $LN4@EncryptVal
  0000c	6a 04		 push	 4
  0000e	58		 pop	 eax
$LN4@EncryptVal:
  0000f	50		 push	 eax
  00010	8d 41 1c	 lea	 eax, DWORD PTR [ecx+28]
  00013	50		 push	 eax
  00014	ff 75 08	 push	 DWORD PTR _value$[ebp]
  00017	83 c1 0c	 add	 ecx, 12			; 0000000cH
  0001a	e8 00 00 00 00	 call	 ?EncryptByte@ccddaabb@@QAEXPBDPADH@Z ; ccddaabb::EncryptByte

; 69   : 		
; 70   : 	}

  0001f	5d		 pop	 ebp
  00020	c2 04 00	 ret	 4
?EncryptValueToPool@?$CEncrypt@M@@AAEXPBD@Z ENDP	; CEncrypt<float>::EncryptValueToPool
_TEXT	ENDS
PUBLIC	?Init@?$CEncrypt@M@@AAEXXZ			; CEncrypt<float>::Init
EXTRN	?Setup@ccddaabb@@QAEXPBDHH@Z:PROC		; ccddaabb::Setup
EXTRN	__imp__rand:PROC
EXTRN	__imp__timeGetTime@0:PROC
EXTRN	__imp__GetCurrentProcessId@0:PROC
; Function compile flags: /Ogsp
;	COMDAT ?Init@?$CEncrypt@M@@AAEXXZ
_TEXT	SEGMENT
_pid$ = -8						; size = 4
_tick$ = -4						; size = 4
?Init@?$CEncrypt@M@@AAEXXZ PROC				; CEncrypt<float>::Init, COMDAT
; _this$ = ecx

; 73   : 	{

  00000	55		 push	 ebp
  00001	8b ec		 mov	 ebp, esp
  00003	51		 push	 ecx
  00004	51		 push	 ecx
  00005	53		 push	 ebx
  00006	56		 push	 esi
  00007	57		 push	 edi
  00008	8b f1		 mov	 esi, ecx

; 74   : 		DWORD pid = GetCurrentProcessId();

  0000a	ff 15 00 00 00
	00		 call	 DWORD PTR __imp__GetCurrentProcessId@0
  00010	89 45 f8	 mov	 DWORD PTR _pid$[ebp], eax

; 75   : 		DWORD tick = timeGetTime();

  00013	ff 15 00 00 00
	00		 call	 DWORD PTR __imp__timeGetTime@0

; 76   : 		m_ValueSize    = sizeof(type);
; 77   : 		m_MemPoolPos   = (unsigned short)( rand()+pid+tick )%(MAX_MEM_POOL-m_ValueSize);

  00019	8b 3d 00 00 00
	00		 mov	 edi, DWORD PTR __imp__rand
  0001f	89 45 fc	 mov	 DWORD PTR _tick$[ebp], eax
  00022	6a 04		 push	 4
  00024	58		 pop	 eax
  00025	66 89 46 06	 mov	 WORD PTR [esi+6], ax
  00029	ff d7		 call	 edi
  0002b	03 45 f8	 add	 eax, DWORD PTR _pid$[ebp]
  0002e	0f b7 4e 06	 movzx	 ecx, WORD PTR [esi+6]
  00032	03 45 fc	 add	 eax, DWORD PTR _tick$[ebp]
  00035	6a 0c		 push	 12			; 0000000cH
  00037	0f b7 c0	 movzx	 eax, ax
  0003a	5b		 pop	 ebx
  0003b	99		 cdq
  0003c	2b d9		 sub	 ebx, ecx
  0003e	f7 fb		 idiv	 ebx
  00040	66 89 56 04	 mov	 WORD PTR [esi+4], dx

; 78   : 		m_EncryptSeed  = (char)( rand()+pid+tick )%256;

  00044	ff d7		 call	 edi
  00046	02 45 f8	 add	 al, BYTE PTR _pid$[ebp]
  00049	02 45 fc	 add	 al, BYTE PTR _tick$[ebp]
  0004c	0f be c0	 movsx	 eax, al
  0004f	25 ff 00 00 80	 and	 eax, -2147483393	; 800000ffH
  00054	79 07		 jns	 SHORT $LN8@Init
  00056	48		 dec	 eax
  00057	0d 00 ff ff ff	 or	 eax, -256		; ffffff00H
  0005c	40		 inc	 eax
$LN8@Init:
  0005d	88 46 08	 mov	 BYTE PTR [esi+8], al

; 79   : 
; 80   : 		for (int i = 0; i < MAX_MEM_POOL ; i++)

  00060	33 db		 xor	 ebx, ebx
$LL3@Init:

; 81   : 			m_MemPool[i] = (char)( rand()+pid+tick )%256; // 더미

  00062	ff d7		 call	 edi
  00064	02 45 f8	 add	 al, BYTE PTR _pid$[ebp]
  00067	02 45 fc	 add	 al, BYTE PTR _tick$[ebp]
  0006a	0f be c0	 movsx	 eax, al
  0006d	25 ff 00 00 80	 and	 eax, -2147483393	; 800000ffH
  00072	79 07		 jns	 SHORT $LN9@Init
  00074	48		 dec	 eax
  00075	0d 00 ff ff ff	 or	 eax, -256		; ffffff00H
  0007a	40		 inc	 eax
$LN9@Init:
  0007b	88 44 1e 1c	 mov	 BYTE PTR [esi+ebx+28], al
  0007f	43		 inc	 ebx
  00080	83 fb 0c	 cmp	 ebx, 12			; 0000000cH
  00083	7c dd		 jl	 SHORT $LL3@Init

; 82   : 
; 83   : 		//UJ 130913, 최적화: szKey 사용안하도록 간략화
; 84   : 		//char szKey[ccddaabb::KEY_SIZE];//="";
; 85   : 		//for (int i = 0; i < ccddaabb::KEY_SIZE  ; i++)
; 86   : 		//	szKey[i] = (char)( rand()+pid+tick )%256; // 더미
; 87   : 		m_RC5.Setup( NULL, pid, tick );

  00085	ff 75 fc	 push	 DWORD PTR _tick$[ebp]
  00088	8d 4e 0c	 lea	 ecx, DWORD PTR [esi+12]
  0008b	ff 75 f8	 push	 DWORD PTR _pid$[ebp]
  0008e	6a 00		 push	 0
  00090	e8 00 00 00 00	 call	 ?Setup@ccddaabb@@QAEXPBDHH@Z ; ccddaabb::Setup
  00095	5f		 pop	 edi
  00096	5e		 pop	 esi
  00097	5b		 pop	 ebx

; 88   : 
; 89   : #ifdef _NOTUSE
; 90   : 		m_value        = 0;
; 91   : 		EncryptValueToPool((char*)&m_value);
; 92   : 		Debug();
; 93   : #endif
; 94   : 	}

  00098	c9		 leave
  00099	c3		 ret	 0
?Init@?$CEncrypt@M@@AAEXXZ ENDP				; CEncrypt<float>::Init
_TEXT	ENDS
PUBLIC	?DecryptValueToPool@?$CEncrypt@M@@QAEXPAM@Z	; CEncrypt<float>::DecryptValueToPool
EXTRN	?DecryptByte@ccddaabb@@QBEXPBDPADH@Z:PROC	; ccddaabb::DecryptByte
; Function compile flags: /Ogsp
;	COMDAT ?DecryptValueToPool@?$CEncrypt@M@@QAEXPAM@Z
_TEXT	SEGMENT
_value$ = 8						; size = 4
?DecryptValueToPool@?$CEncrypt@M@@QAEXPAM@Z PROC	; CEncrypt<float>::DecryptValueToPool, COMDAT
; _this$ = ecx

; 1648 : 	{

  00000	55		 push	 ebp
  00001	8b ec		 mov	 ebp, esp
  00003	56		 push	 esi

; 1649 : 		m_RC5.DecryptByte( m_MemPool, m_TempMem, 4 );

  00004	8d 71 28	 lea	 esi, DWORD PTR [ecx+40]
  00007	6a 04		 push	 4
  00009	8d 41 1c	 lea	 eax, DWORD PTR [ecx+28]
  0000c	56		 push	 esi
  0000d	50		 push	 eax
  0000e	83 c1 0c	 add	 ecx, 12			; 0000000cH
  00011	e8 00 00 00 00	 call	 ?DecryptByte@ccddaabb@@QBEXPBDPADH@Z ; ccddaabb::DecryptByte

; 1650 : 		*value = *((float*)m_TempMem);

  00016	d9 06		 fld	 DWORD PTR [esi]
  00018	8b 45 08	 mov	 eax, DWORD PTR _value$[ebp]
  0001b	d9 18		 fstp	 DWORD PTR [eax]
  0001d	5e		 pop	 esi

; 1651 : 	}

  0001e	5d		 pop	 ebp
  0001f	c2 04 00	 ret	 4
?DecryptValueToPool@?$CEncrypt@M@@QAEXPAM@Z ENDP	; CEncrypt<float>::DecryptValueToPool
_TEXT	ENDS
PUBLIC	?EncryptValueToPool@?$CEncrypt@K@@AAEXPBD@Z	; CEncrypt<unsigned long>::EncryptValueToPool
; Function compile flags: /Ogsp
;	COMDAT ?EncryptValueToPool@?$CEncrypt@K@@AAEXPBD@Z
_TEXT	SEGMENT
_value$ = 8						; size = 4
?EncryptValueToPool@?$CEncrypt@K@@AAEXPBD@Z PROC	; CEncrypt<unsigned long>::EncryptValueToPool, COMDAT
; _this$ = ecx

; 67   : 	{

  00000	55		 push	 ebp
  00001	8b ec		 mov	 ebp, esp

; 68   : 		m_RC5.EncryptByte( value, m_MemPool, max(m_ValueSize, DEFAULT_ENCRYPT) );

  00003	0f b7 41 06	 movzx	 eax, WORD PTR [ecx+6]
  00007	83 f8 04	 cmp	 eax, 4
  0000a	77 03		 ja	 SHORT $LN4@EncryptVal@2
  0000c	6a 04		 push	 4
  0000e	58		 pop	 eax
$LN4@EncryptVal@2:
  0000f	50		 push	 eax
  00010	8d 41 1c	 lea	 eax, DWORD PTR [ecx+28]
  00013	50		 push	 eax
  00014	ff 75 08	 push	 DWORD PTR _value$[ebp]
  00017	83 c1 0c	 add	 ecx, 12			; 0000000cH
  0001a	e8 00 00 00 00	 call	 ?EncryptByte@ccddaabb@@QAEXPBDPADH@Z ; ccddaabb::EncryptByte

; 69   : 		
; 70   : 	}

  0001f	5d		 pop	 ebp
  00020	c2 04 00	 ret	 4
?EncryptValueToPool@?$CEncrypt@K@@AAEXPBD@Z ENDP	; CEncrypt<unsigned long>::EncryptValueToPool
_TEXT	ENDS
PUBLIC	?Init@?$CEncrypt@K@@AAEXXZ			; CEncrypt<unsigned long>::Init
; Function compile flags: /Ogsp
;	COMDAT ?Init@?$CEncrypt@K@@AAEXXZ
_TEXT	SEGMENT
_pid$ = -8						; size = 4
_tick$ = -4						; size = 4
?Init@?$CEncrypt@K@@AAEXXZ PROC				; CEncrypt<unsigned long>::Init, COMDAT
; _this$ = ecx

; 73   : 	{

  00000	55		 push	 ebp
  00001	8b ec		 mov	 ebp, esp
  00003	51		 push	 ecx
  00004	51		 push	 ecx
  00005	53		 push	 ebx
  00006	56		 push	 esi
  00007	57		 push	 edi
  00008	8b f1		 mov	 esi, ecx

; 74   : 		DWORD pid = GetCurrentProcessId();

  0000a	ff 15 00 00 00
	00		 call	 DWORD PTR __imp__GetCurrentProcessId@0
  00010	89 45 f8	 mov	 DWORD PTR _pid$[ebp], eax

; 75   : 		DWORD tick = timeGetTime();

  00013	ff 15 00 00 00
	00		 call	 DWORD PTR __imp__timeGetTime@0

; 76   : 		m_ValueSize    = sizeof(type);
; 77   : 		m_MemPoolPos   = (unsigned short)( rand()+pid+tick )%(MAX_MEM_POOL-m_ValueSize);

  00019	8b 3d 00 00 00
	00		 mov	 edi, DWORD PTR __imp__rand
  0001f	89 45 fc	 mov	 DWORD PTR _tick$[ebp], eax
  00022	6a 04		 push	 4
  00024	58		 pop	 eax
  00025	66 89 46 06	 mov	 WORD PTR [esi+6], ax
  00029	ff d7		 call	 edi
  0002b	03 45 f8	 add	 eax, DWORD PTR _pid$[ebp]
  0002e	0f b7 4e 06	 movzx	 ecx, WORD PTR [esi+6]
  00032	03 45 fc	 add	 eax, DWORD PTR _tick$[ebp]
  00035	6a 0c		 push	 12			; 0000000cH
  00037	0f b7 c0	 movzx	 eax, ax
  0003a	5b		 pop	 ebx
  0003b	99		 cdq
  0003c	2b d9		 sub	 ebx, ecx
  0003e	f7 fb		 idiv	 ebx
  00040	66 89 56 04	 mov	 WORD PTR [esi+4], dx

; 78   : 		m_EncryptSeed  = (char)( rand()+pid+tick )%256;

  00044	ff d7		 call	 edi
  00046	02 45 f8	 add	 al, BYTE PTR _pid$[ebp]
  00049	02 45 fc	 add	 al, BYTE PTR _tick$[ebp]
  0004c	0f be c0	 movsx	 eax, al
  0004f	25 ff 00 00 80	 and	 eax, -2147483393	; 800000ffH
  00054	79 07		 jns	 SHORT $LN8@Init@2
  00056	48		 dec	 eax
  00057	0d 00 ff ff ff	 or	 eax, -256		; ffffff00H
  0005c	40		 inc	 eax
$LN8@Init@2:
  0005d	88 46 08	 mov	 BYTE PTR [esi+8], al

; 79   : 
; 80   : 		for (int i = 0; i < MAX_MEM_POOL ; i++)

  00060	33 db		 xor	 ebx, ebx
$LL3@Init@2:

; 81   : 			m_MemPool[i] = (char)( rand()+pid+tick )%256; // 더미

  00062	ff d7		 call	 edi
  00064	02 45 f8	 add	 al, BYTE PTR _pid$[ebp]
  00067	02 45 fc	 add	 al, BYTE PTR _tick$[ebp]
  0006a	0f be c0	 movsx	 eax, al
  0006d	25 ff 00 00 80	 and	 eax, -2147483393	; 800000ffH
  00072	79 07		 jns	 SHORT $LN9@Init@2
  00074	48		 dec	 eax
  00075	0d 00 ff ff ff	 or	 eax, -256		; ffffff00H
  0007a	40		 inc	 eax
$LN9@Init@2:
  0007b	88 44 1e 1c	 mov	 BYTE PTR [esi+ebx+28], al
  0007f	43		 inc	 ebx
  00080	83 fb 0c	 cmp	 ebx, 12			; 0000000cH
  00083	7c dd		 jl	 SHORT $LL3@Init@2

; 82   : 
; 83   : 		//UJ 130913, 최적화: szKey 사용안하도록 간략화
; 84   : 		//char szKey[ccddaabb::KEY_SIZE];//="";
; 85   : 		//for (int i = 0; i < ccddaabb::KEY_SIZE  ; i++)
; 86   : 		//	szKey[i] = (char)( rand()+pid+tick )%256; // 더미
; 87   : 		m_RC5.Setup( NULL, pid, tick );

  00085	ff 75 fc	 push	 DWORD PTR _tick$[ebp]
  00088	8d 4e 0c	 lea	 ecx, DWORD PTR [esi+12]
  0008b	ff 75 f8	 push	 DWORD PTR _pid$[ebp]
  0008e	6a 00		 push	 0
  00090	e8 00 00 00 00	 call	 ?Setup@ccddaabb@@QAEXPBDHH@Z ; ccddaabb::Setup
  00095	5f		 pop	 edi
  00096	5e		 pop	 esi
  00097	5b		 pop	 ebx

; 88   : 
; 89   : #ifdef _NOTUSE
; 90   : 		m_value        = 0;
; 91   : 		EncryptValueToPool((char*)&m_value);
; 92   : 		Debug();
; 93   : #endif
; 94   : 	}

  00098	c9		 leave
  00099	c3		 ret	 0
?Init@?$CEncrypt@K@@AAEXXZ ENDP				; CEncrypt<unsigned long>::Init
_TEXT	ENDS
PUBLIC	?DecryptValueToPool@?$CEncrypt@K@@QAEXPAK@Z	; CEncrypt<unsigned long>::DecryptValueToPool
; Function compile flags: /Ogsp
;	COMDAT ?DecryptValueToPool@?$CEncrypt@K@@QAEXPAK@Z
_TEXT	SEGMENT
_value$ = 8						; size = 4
?DecryptValueToPool@?$CEncrypt@K@@QAEXPAK@Z PROC	; CEncrypt<unsigned long>::DecryptValueToPool, COMDAT
; _this$ = ecx

; 1256 : 	{

  00000	55		 push	 ebp
  00001	8b ec		 mov	 ebp, esp
  00003	56		 push	 esi

; 1257 : 		m_RC5.DecryptByte( m_MemPool, m_TempMem, 4 );

  00004	8d 71 28	 lea	 esi, DWORD PTR [ecx+40]
  00007	6a 04		 push	 4
  00009	8d 41 1c	 lea	 eax, DWORD PTR [ecx+28]
  0000c	56		 push	 esi
  0000d	50		 push	 eax
  0000e	83 c1 0c	 add	 ecx, 12			; 0000000cH
  00011	e8 00 00 00 00	 call	 ?DecryptByte@ccddaabb@@QBEXPBDPADH@Z ; ccddaabb::DecryptByte

; 1258 : 		*value = *((DWORD*)m_TempMem);

  00016	8b 06		 mov	 eax, DWORD PTR [esi]
  00018	8b 4d 08	 mov	 ecx, DWORD PTR _value$[ebp]
  0001b	89 01		 mov	 DWORD PTR [ecx], eax
  0001d	5e		 pop	 esi

; 1259 : 	}

  0001e	5d		 pop	 ebp
  0001f	c2 04 00	 ret	 4
?DecryptValueToPool@?$CEncrypt@K@@QAEXPAK@Z ENDP	; CEncrypt<unsigned long>::DecryptValueToPool
_TEXT	ENDS
PUBLIC	?EncryptValueToPool@?$CEncrypt@_N@@AAEXPBD@Z	; CEncrypt<bool>::EncryptValueToPool
; Function compile flags: /Ogsp
;	COMDAT ?EncryptValueToPool@?$CEncrypt@_N@@AAEXPBD@Z
_TEXT	SEGMENT
_value$ = 8						; size = 4
?EncryptValueToPool@?$CEncrypt@_N@@AAEXPBD@Z PROC	; CEncrypt<bool>::EncryptValueToPool, COMDAT
; _this$ = ecx

; 67   : 	{

  00000	55		 push	 ebp
  00001	8b ec		 mov	 ebp, esp

; 68   : 		m_RC5.EncryptByte( value, m_MemPool, max(m_ValueSize, DEFAULT_ENCRYPT) );

  00003	0f b7 41 06	 movzx	 eax, WORD PTR [ecx+6]
  00007	83 f8 04	 cmp	 eax, 4
  0000a	77 03		 ja	 SHORT $LN4@EncryptVal@3
  0000c	6a 04		 push	 4
  0000e	58		 pop	 eax
$LN4@EncryptVal@3:
  0000f	50		 push	 eax
  00010	8d 41 1c	 lea	 eax, DWORD PTR [ecx+28]
  00013	50		 push	 eax
  00014	ff 75 08	 push	 DWORD PTR _value$[ebp]
  00017	83 c1 0c	 add	 ecx, 12			; 0000000cH
  0001a	e8 00 00 00 00	 call	 ?EncryptByte@ccddaabb@@QAEXPBDPADH@Z ; ccddaabb::EncryptByte

; 69   : 		
; 70   : 	}

  0001f	5d		 pop	 ebp
  00020	c2 04 00	 ret	 4
?EncryptValueToPool@?$CEncrypt@_N@@AAEXPBD@Z ENDP	; CEncrypt<bool>::EncryptValueToPool
_TEXT	ENDS
PUBLIC	?Init@?$CEncrypt@_N@@AAEXXZ			; CEncrypt<bool>::Init
; Function compile flags: /Ogsp
;	COMDAT ?Init@?$CEncrypt@_N@@AAEXXZ
_TEXT	SEGMENT
_pid$ = -8						; size = 4
_tick$ = -4						; size = 4
?Init@?$CEncrypt@_N@@AAEXXZ PROC			; CEncrypt<bool>::Init, COMDAT
; _this$ = ecx

; 73   : 	{

  00000	55		 push	 ebp
  00001	8b ec		 mov	 ebp, esp
  00003	51		 push	 ecx
  00004	51		 push	 ecx
  00005	53		 push	 ebx
  00006	56		 push	 esi
  00007	57		 push	 edi
  00008	8b f1		 mov	 esi, ecx

; 74   : 		DWORD pid = GetCurrentProcessId();

  0000a	ff 15 00 00 00
	00		 call	 DWORD PTR __imp__GetCurrentProcessId@0
  00010	89 45 f8	 mov	 DWORD PTR _pid$[ebp], eax

; 75   : 		DWORD tick = timeGetTime();

  00013	ff 15 00 00 00
	00		 call	 DWORD PTR __imp__timeGetTime@0

; 76   : 		m_ValueSize    = sizeof(type);
; 77   : 		m_MemPoolPos   = (unsigned short)( rand()+pid+tick )%(MAX_MEM_POOL-m_ValueSize);

  00019	8b 3d 00 00 00
	00		 mov	 edi, DWORD PTR __imp__rand
  0001f	89 45 fc	 mov	 DWORD PTR _tick$[ebp], eax
  00022	33 c0		 xor	 eax, eax
  00024	40		 inc	 eax
  00025	66 89 46 06	 mov	 WORD PTR [esi+6], ax
  00029	ff d7		 call	 edi
  0002b	03 45 f8	 add	 eax, DWORD PTR _pid$[ebp]
  0002e	0f b7 4e 06	 movzx	 ecx, WORD PTR [esi+6]
  00032	03 45 fc	 add	 eax, DWORD PTR _tick$[ebp]
  00035	6a 0c		 push	 12			; 0000000cH
  00037	0f b7 c0	 movzx	 eax, ax
  0003a	5b		 pop	 ebx
  0003b	99		 cdq
  0003c	2b d9		 sub	 ebx, ecx
  0003e	f7 fb		 idiv	 ebx
  00040	66 89 56 04	 mov	 WORD PTR [esi+4], dx

; 78   : 		m_EncryptSeed  = (char)( rand()+pid+tick )%256;

  00044	ff d7		 call	 edi
  00046	02 45 f8	 add	 al, BYTE PTR _pid$[ebp]
  00049	02 45 fc	 add	 al, BYTE PTR _tick$[ebp]
  0004c	0f be c0	 movsx	 eax, al
  0004f	25 ff 00 00 80	 and	 eax, -2147483393	; 800000ffH
  00054	79 07		 jns	 SHORT $LN8@Init@3
  00056	48		 dec	 eax
  00057	0d 00 ff ff ff	 or	 eax, -256		; ffffff00H
  0005c	40		 inc	 eax
$LN8@Init@3:
  0005d	88 46 08	 mov	 BYTE PTR [esi+8], al

; 79   : 
; 80   : 		for (int i = 0; i < MAX_MEM_POOL ; i++)

  00060	33 db		 xor	 ebx, ebx
$LL3@Init@3:

; 81   : 			m_MemPool[i] = (char)( rand()+pid+tick )%256; // 더미

  00062	ff d7		 call	 edi
  00064	02 45 f8	 add	 al, BYTE PTR _pid$[ebp]
  00067	02 45 fc	 add	 al, BYTE PTR _tick$[ebp]
  0006a	0f be c0	 movsx	 eax, al
  0006d	25 ff 00 00 80	 and	 eax, -2147483393	; 800000ffH
  00072	79 07		 jns	 SHORT $LN9@Init@3
  00074	48		 dec	 eax
  00075	0d 00 ff ff ff	 or	 eax, -256		; ffffff00H
  0007a	40		 inc	 eax
$LN9@Init@3:
  0007b	88 44 1e 1c	 mov	 BYTE PTR [esi+ebx+28], al
  0007f	43		 inc	 ebx
  00080	83 fb 0c	 cmp	 ebx, 12			; 0000000cH
  00083	7c dd		 jl	 SHORT $LL3@Init@3

; 82   : 
; 83   : 		//UJ 130913, 최적화: szKey 사용안하도록 간략화
; 84   : 		//char szKey[ccddaabb::KEY_SIZE];//="";
; 85   : 		//for (int i = 0; i < ccddaabb::KEY_SIZE  ; i++)
; 86   : 		//	szKey[i] = (char)( rand()+pid+tick )%256; // 더미
; 87   : 		m_RC5.Setup( NULL, pid, tick );

  00085	ff 75 fc	 push	 DWORD PTR _tick$[ebp]
  00088	8d 4e 0c	 lea	 ecx, DWORD PTR [esi+12]
  0008b	ff 75 f8	 push	 DWORD PTR _pid$[ebp]
  0008e	6a 00		 push	 0
  00090	e8 00 00 00 00	 call	 ?Setup@ccddaabb@@QAEXPBDHH@Z ; ccddaabb::Setup
  00095	5f		 pop	 edi
  00096	5e		 pop	 esi
  00097	5b		 pop	 ebx

; 88   : 
; 89   : #ifdef _NOTUSE
; 90   : 		m_value        = 0;
; 91   : 		EncryptValueToPool((char*)&m_value);
; 92   : 		Debug();
; 93   : #endif
; 94   : 	}

  00098	c9		 leave
  00099	c3		 ret	 0
?Init@?$CEncrypt@_N@@AAEXXZ ENDP			; CEncrypt<bool>::Init
_TEXT	ENDS
PUBLIC	?DecryptValueToPool@?$CEncrypt@_N@@QAEXPA_N@Z	; CEncrypt<bool>::DecryptValueToPool
; Function compile flags: /Ogsp
;	COMDAT ?DecryptValueToPool@?$CEncrypt@_N@@QAEXPA_N@Z
_TEXT	SEGMENT
_value$ = 8						; size = 4
?DecryptValueToPool@?$CEncrypt@_N@@QAEXPA_N@Z PROC	; CEncrypt<bool>::DecryptValueToPool, COMDAT
; _this$ = ecx

; 219  : 	{

  00000	55		 push	 ebp
  00001	8b ec		 mov	 ebp, esp
  00003	56		 push	 esi

; 220  : 		m_RC5.DecryptByte( m_MemPool, m_TempMem, 4 );

  00004	8d 71 28	 lea	 esi, DWORD PTR [ecx+40]
  00007	6a 04		 push	 4
  00009	8d 41 1c	 lea	 eax, DWORD PTR [ecx+28]
  0000c	56		 push	 esi
  0000d	50		 push	 eax
  0000e	83 c1 0c	 add	 ecx, 12			; 0000000cH
  00011	e8 00 00 00 00	 call	 ?DecryptByte@ccddaabb@@QBEXPBDPADH@Z ; ccddaabb::DecryptByte

; 221  : 		*value = *((bool*)m_TempMem);

  00016	8a 06		 mov	 al, BYTE PTR [esi]
  00018	8b 4d 08	 mov	 ecx, DWORD PTR _value$[ebp]
  0001b	88 01		 mov	 BYTE PTR [ecx], al
  0001d	5e		 pop	 esi

; 222  : 	}

  0001e	5d		 pop	 ebp
  0001f	c2 04 00	 ret	 4
?DecryptValueToPool@?$CEncrypt@_N@@QAEXPA_N@Z ENDP	; CEncrypt<bool>::DecryptValueToPool
_TEXT	ENDS
PUBLIC	??0?$allocator@UWeaponInfo@@@std@@QAE@ABV01@@Z	; std::allocator<WeaponInfo>::allocator<WeaponInfo>
; Function compile flags: /Ogsp
; File c:\program files (x86)\microsoft visual studio 10.0\vc\include\xmemory
;	COMDAT ??0?$allocator@UWeaponInfo@@@std@@QAE@ABV01@@Z
_TEXT	SEGMENT
___formal$ = 8						; size = 4
??0?$allocator@UWeaponInfo@@@std@@QAE@ABV01@@Z PROC	; std::allocator<WeaponInfo>::allocator<WeaponInfo>, COMDAT
; _this$ = ecx

; 165  : 	_ALLOCATOR(const _ALLOCATOR<_Ty>&) _THROW0()

  00000	8b c1		 mov	 eax, ecx

; 166  : 		{	// construct by copying (do nothing)
; 167  : 		}

  00002	c2 04 00	 ret	 4
??0?$allocator@UWeaponInfo@@@std@@QAE@ABV01@@Z ENDP	; std::allocator<WeaponInfo>::allocator<WeaponInfo>
_TEXT	ENDS
PUBLIC	?deallocate@?$allocator@UWeaponInfo@@@std@@QAEXPAUWeaponInfo@@I@Z ; std::allocator<WeaponInfo>::deallocate
; Function compile flags: /Ogsp
;	COMDAT ?deallocate@?$allocator@UWeaponInfo@@@std@@QAEXPAUWeaponInfo@@I@Z
_TEXT	SEGMENT
__Ptr$ = 8						; size = 4
___formal$ = 12						; size = 4
?deallocate@?$allocator@UWeaponInfo@@@std@@QAEXPAUWeaponInfo@@I@Z PROC ; std::allocator<WeaponInfo>::deallocate, COMDAT
; _this$ = ecx

; 181  : 		{	// deallocate object at _Ptr, ignore size

  00000	55		 push	 ebp
  00001	8b ec		 mov	 ebp, esp

; 182  : 		::operator delete(_Ptr);

  00003	ff 75 08	 push	 DWORD PTR __Ptr$[ebp]
  00006	e8 00 00 00 00	 call	 ??3@YAXPAX@Z		; operator delete
  0000b	59		 pop	 ecx

; 183  : 		}

  0000c	5d		 pop	 ebp
  0000d	c2 08 00	 ret	 8
?deallocate@?$allocator@UWeaponInfo@@@std@@QAEXPAUWeaponInfo@@I@Z ENDP ; std::allocator<WeaponInfo>::deallocate
_TEXT	ENDS
PUBLIC	??0?$allocator@UForceInfo@@@std@@QAE@ABV01@@Z	; std::allocator<ForceInfo>::allocator<ForceInfo>
; Function compile flags: /Ogsp
;	COMDAT ??0?$allocator@UForceInfo@@@std@@QAE@ABV01@@Z
_TEXT	SEGMENT
___formal$ = 8						; size = 4
??0?$allocator@UForceInfo@@@std@@QAE@ABV01@@Z PROC	; std::allocator<ForceInfo>::allocator<ForceInfo>, COMDAT
; _this$ = ecx

; 165  : 	_ALLOCATOR(const _ALLOCATOR<_Ty>&) _THROW0()

  00000	8b c1		 mov	 eax, ecx

; 166  : 		{	// construct by copying (do nothing)
; 167  : 		}

  00002	c2 04 00	 ret	 4
??0?$allocator@UForceInfo@@@std@@QAE@ABV01@@Z ENDP	; std::allocator<ForceInfo>::allocator<ForceInfo>
_TEXT	ENDS
PUBLIC	?deallocate@?$allocator@UForceInfo@@@std@@QAEXPAUForceInfo@@I@Z ; std::allocator<ForceInfo>::deallocate
; Function compile flags: /Ogsp
;	COMDAT ?deallocate@?$allocator@UForceInfo@@@std@@QAEXPAUForceInfo@@I@Z
_TEXT	SEGMENT
__Ptr$ = 8						; size = 4
___formal$ = 12						; size = 4
?deallocate@?$allocator@UForceInfo@@@std@@QAEXPAUForceInfo@@I@Z PROC ; std::allocator<ForceInfo>::deallocate, COMDAT
; _this$ = ecx

; 181  : 		{	// deallocate object at _Ptr, ignore size

  00000	55		 push	 ebp
  00001	8b ec		 mov	 ebp, esp

; 182  : 		::operator delete(_Ptr);

  00003	ff 75 08	 push	 DWORD PTR __Ptr$[ebp]
  00006	e8 00 00 00 00	 call	 ??3@YAXPAX@Z		; operator delete
  0000b	59		 pop	 ecx

; 183  : 		}

  0000c	5d		 pop	 ebp
  0000d	c2 08 00	 ret	 8
?deallocate@?$allocator@UForceInfo@@@std@@QAEXPAUForceInfo@@I@Z ENDP ; std::allocator<ForceInfo>::deallocate
_TEXT	ENDS
PUBLIC	??$_Ptr_cat@UWeaponInfo@@U1@@std@@YA?AU_Nonscalar_ptr_iterator_tag@0@PAUWeaponInfo@@0@Z ; std::_Ptr_cat<WeaponInfo,WeaponInfo>
; Function compile flags: /Ogsp
; File c:\program files (x86)\microsoft visual studio 10.0\vc\include\xutility
;	COMDAT ??$_Ptr_cat@UWeaponInfo@@U1@@std@@YA?AU_Nonscalar_ptr_iterator_tag@0@PAUWeaponInfo@@0@Z
_TEXT	SEGMENT
__Cat$ = -1						; size = 1
___formal$ = 8						; size = 4
___formal$ = 12						; size = 4
??$_Ptr_cat@UWeaponInfo@@U1@@std@@YA?AU_Nonscalar_ptr_iterator_tag@0@PAUWeaponInfo@@0@Z PROC ; std::_Ptr_cat<WeaponInfo,WeaponInfo>, COMDAT

; 516  : 	{	// return pointer category from pointers

  00000	55		 push	 ebp
  00001	8b ec		 mov	 ebp, esp
  00003	51		 push	 ecx

; 517  : 	typename _Ptr_cat_helper<_Elem1, _Elem2>::_Type _Cat;
; 518  : 	return (_Cat);

  00004	8a 45 ff	 mov	 al, BYTE PTR __Cat$[ebp]

; 519  : 	}

  00007	c9		 leave
  00008	c3		 ret	 0
??$_Ptr_cat@UWeaponInfo@@U1@@std@@YA?AU_Nonscalar_ptr_iterator_tag@0@PAUWeaponInfo@@0@Z ENDP ; std::_Ptr_cat<WeaponInfo,WeaponInfo>
_TEXT	ENDS
PUBLIC	??$_Ptr_cat@UForceInfo@@U1@@std@@YA?AU_Nonscalar_ptr_iterator_tag@0@PAUForceInfo@@0@Z ; std::_Ptr_cat<ForceInfo,ForceInfo>
; Function compile flags: /Ogsp
;	COMDAT ??$_Ptr_cat@UForceInfo@@U1@@std@@YA?AU_Nonscalar_ptr_iterator_tag@0@PAUForceInfo@@0@Z
_TEXT	SEGMENT
__Cat$ = -1						; size = 1
___formal$ = 8						; size = 4
___formal$ = 12						; size = 4
??$_Ptr_cat@UForceInfo@@U1@@std@@YA?AU_Nonscalar_ptr_iterator_tag@0@PAUForceInfo@@0@Z PROC ; std::_Ptr_cat<ForceInfo,ForceInfo>, COMDAT

; 516  : 	{	// return pointer category from pointers

  00000	55		 push	 ebp
  00001	8b ec		 mov	 ebp, esp
  00003	51		 push	 ecx

; 517  : 	typename _Ptr_cat_helper<_Elem1, _Elem2>::_Type _Cat;
; 518  : 	return (_Cat);

  00004	8a 45 ff	 mov	 al, BYTE PTR __Cat$[ebp]

; 519  : 	}

  00007	c9		 leave
  00008	c3		 ret	 0
??$_Ptr_cat@UForceInfo@@U1@@std@@YA?AU_Nonscalar_ptr_iterator_tag@0@PAUForceInfo@@0@Z ENDP ; std::_Ptr_cat<ForceInfo,ForceInfo>
_TEXT	ENDS
PUBLIC	?size@?$vector@UWeaponInfo@@V?$allocator@UWeaponInfo@@@std@@@std@@QBEIXZ ; std::vector<WeaponInfo,std::allocator<WeaponInfo> >::size
; Function compile flags: /Ogsp
; File c:\program files (x86)\microsoft visual studio 10.0\vc\include\vector
;	COMDAT ?size@?$vector@UWeaponInfo@@V?$allocator@UWeaponInfo@@@std@@@std@@QBEIXZ
_TEXT	SEGMENT
?size@?$vector@UWeaponInfo@@V?$allocator@UWeaponInfo@@@std@@@std@@QBEIXZ PROC ; std::vector<WeaponInfo,std::allocator<WeaponInfo> >::size, COMDAT
; _this$ = ecx

; 879  : 		return (this->_Mylast - this->_Myfirst);

  00000	8b 41 04	 mov	 eax, DWORD PTR [ecx+4]
  00003	2b 01		 sub	 eax, DWORD PTR [ecx]
  00005	6a 28		 push	 40			; 00000028H
  00007	99		 cdq
  00008	59		 pop	 ecx
  00009	f7 f9		 idiv	 ecx

; 880  : 		}

  0000b	c3		 ret	 0
?size@?$vector@UWeaponInfo@@V?$allocator@UWeaponInfo@@@std@@@std@@QBEIXZ ENDP ; std::vector<WeaponInfo,std::allocator<WeaponInfo> >::size
_TEXT	ENDS
PUBLIC	?size@?$vector@UForceInfo@@V?$allocator@UForceInfo@@@std@@@std@@QBEIXZ ; std::vector<ForceInfo,std::allocator<ForceInfo> >::size
; Function compile flags: /Ogsp
;	COMDAT ?size@?$vector@UForceInfo@@V?$allocator@UForceInfo@@@std@@@std@@QBEIXZ
_TEXT	SEGMENT
?size@?$vector@UForceInfo@@V?$allocator@UForceInfo@@@std@@@std@@QBEIXZ PROC ; std::vector<ForceInfo,std::allocator<ForceInfo> >::size, COMDAT
; _this$ = ecx

; 879  : 		return (this->_Mylast - this->_Myfirst);

  00000	8b 41 04	 mov	 eax, DWORD PTR [ecx+4]
  00003	2b 01		 sub	 eax, DWORD PTR [ecx]
  00005	6a 0c		 push	 12			; 0000000cH
  00007	99		 cdq
  00008	59		 pop	 ecx
  00009	f7 f9		 idiv	 ecx

; 880  : 		}

  0000b	c3		 ret	 0
?size@?$vector@UForceInfo@@V?$allocator@UForceInfo@@@std@@@std@@QBEIXZ ENDP ; std::vector<ForceInfo,std::allocator<ForceInfo> >::size
_TEXT	ENDS
PUBLIC	??_C@_0BD@OLBABOEK@vector?$DMT?$DO?5too?5long?$AA@ ; `string'
PUBLIC	?_Xlen@?$vector@UWeaponInfo@@V?$allocator@UWeaponInfo@@@std@@@std@@IBEXXZ ; std::vector<WeaponInfo,std::allocator<WeaponInfo> >::_Xlen
EXTRN	__imp_?_Xlength_error@std@@YAXPBD@Z:PROC
;	COMDAT ??_C@_0BD@OLBABOEK@vector?$DMT?$DO?5too?5long?$AA@
CONST	SEGMENT
??_C@_0BD@OLBABOEK@vector?$DMT?$DO?5too?5long?$AA@ DB 'vector<T> too long'
	DB	00H						; `string'
; Function compile flags: /Ogsp
CONST	ENDS
;	COMDAT ?_Xlen@?$vector@UWeaponInfo@@V?$allocator@UWeaponInfo@@@std@@@std@@IBEXXZ
_TEXT	SEGMENT
?_Xlen@?$vector@UWeaponInfo@@V?$allocator@UWeaponInfo@@@std@@@std@@IBEXXZ PROC ; std::vector<WeaponInfo,std::allocator<WeaponInfo> >::_Xlen, COMDAT
; _this$ = ecx

; 1427 : 		_Xlength_error("vector<T> too long");

  00000	68 00 00 00 00	 push	 OFFSET ??_C@_0BD@OLBABOEK@vector?$DMT?$DO?5too?5long?$AA@
  00005	ff 15 00 00 00
	00		 call	 DWORD PTR __imp_?_Xlength_error@std@@YAXPBD@Z
$LN4@Xlen:
$LN3@Xlen:
  0000b	cc		 int	 3
?_Xlen@?$vector@UWeaponInfo@@V?$allocator@UWeaponInfo@@@std@@@std@@IBEXXZ ENDP ; std::vector<WeaponInfo,std::allocator<WeaponInfo> >::_Xlen
_TEXT	ENDS
PUBLIC	?_Xlen@?$vector@UForceInfo@@V?$allocator@UForceInfo@@@std@@@std@@IBEXXZ ; std::vector<ForceInfo,std::allocator<ForceInfo> >::_Xlen
; Function compile flags: /Ogsp
;	COMDAT ?_Xlen@?$vector@UForceInfo@@V?$allocator@UForceInfo@@@std@@@std@@IBEXXZ
_TEXT	SEGMENT
?_Xlen@?$vector@UForceInfo@@V?$allocator@UForceInfo@@@std@@@std@@IBEXXZ PROC ; std::vector<ForceInfo,std::allocator<ForceInfo> >::_Xlen, COMDAT
; _this$ = ecx

; 1427 : 		_Xlength_error("vector<T> too long");

  00000	68 00 00 00 00	 push	 OFFSET ??_C@_0BD@OLBABOEK@vector?$DMT?$DO?5too?5long?$AA@
  00005	ff 15 00 00 00
	00		 call	 DWORD PTR __imp_?_Xlength_error@std@@YAXPBD@Z
$LN4@Xlen@2:
$LN3@Xlen@2:
  0000b	cc		 int	 3
?_Xlen@?$vector@UForceInfo@@V?$allocator@UForceInfo@@@std@@@std@@IBEXXZ ENDP ; std::vector<ForceInfo,std::allocator<ForceInfo> >::_Xlen
_TEXT	ENDS
PUBLIC	?max_size@?$allocator@UWeaponInfo@@@std@@QBEIXZ	; std::allocator<WeaponInfo>::max_size
; Function compile flags: /Ogsp
; File c:\program files (x86)\microsoft visual studio 10.0\vc\include\xmemory
;	COMDAT ?max_size@?$allocator@UWeaponInfo@@@std@@QBEIXZ
_TEXT	SEGMENT
?max_size@?$allocator@UWeaponInfo@@@std@@QBEIXZ PROC	; std::allocator<WeaponInfo>::max_size, COMDAT
; _this$ = ecx

; 218  : 		_SIZT _Count = (_SIZT)(-1) / sizeof (_Ty);
; 219  : 		return (0 < _Count ? _Count : 1);

  00000	b8 66 66 66 06	 mov	 eax, 107374182		; 06666666H

; 220  : 		}

  00005	c3		 ret	 0
?max_size@?$allocator@UWeaponInfo@@@std@@QBEIXZ ENDP	; std::allocator<WeaponInfo>::max_size
_TEXT	ENDS
PUBLIC	?max_size@?$allocator@UForceInfo@@@std@@QBEIXZ	; std::allocator<ForceInfo>::max_size
; Function compile flags: /Ogsp
;	COMDAT ?max_size@?$allocator@UForceInfo@@@std@@QBEIXZ
_TEXT	SEGMENT
?max_size@?$allocator@UForceInfo@@@std@@QBEIXZ PROC	; std::allocator<ForceInfo>::max_size, COMDAT
; _this$ = ecx

; 218  : 		_SIZT _Count = (_SIZT)(-1) / sizeof (_Ty);
; 219  : 		return (0 < _Count ? _Count : 1);

  00000	b8 55 55 55 15	 mov	 eax, 357913941		; 15555555H

; 220  : 		}

  00005	c3		 ret	 0
?max_size@?$allocator@UForceInfo@@@std@@QBEIXZ ENDP	; std::allocator<ForceInfo>::max_size
_TEXT	ENDS
PUBLIC	??0?$_Vector_const_iterator@V?$_Vector_val@UWeaponInfo@@V?$allocator@UWeaponInfo@@@std@@@std@@@std@@QAE@PAUWeaponInfo@@PBU_Container_base0@1@@Z ; std::_Vector_const_iterator<std::_Vector_val<WeaponInfo,std::allocator<WeaponInfo> > >::_Vector_const_iterator<std::_Vector_val<WeaponInfo,std::allocator<WeaponInfo> > >
; Function compile flags: /Ogsp
; File c:\program files (x86)\microsoft visual studio 10.0\vc\include\vector
;	COMDAT ??0?$_Vector_const_iterator@V?$_Vector_val@UWeaponInfo@@V?$allocator@UWeaponInfo@@@std@@@std@@@std@@QAE@PAUWeaponInfo@@PBU_Container_base0@1@@Z
_TEXT	SEGMENT
__Parg$ = 8						; size = 4
__Pvector$ = 12						; size = 4
??0?$_Vector_const_iterator@V?$_Vector_val@UWeaponInfo@@V?$allocator@UWeaponInfo@@@std@@@std@@@std@@QAE@PAUWeaponInfo@@PBU_Container_base0@1@@Z PROC ; std::_Vector_const_iterator<std::_Vector_val<WeaponInfo,std::allocator<WeaponInfo> > >::_Vector_const_iterator<std::_Vector_val<WeaponInfo,std::allocator<WeaponInfo> > >, COMDAT
; _this$ = ecx

; 45   : 		{	// construct with pointer _Parg

  00000	55		 push	 ebp
  00001	8b ec		 mov	 ebp, esp
  00003	8b c1		 mov	 eax, ecx
  00005	8b 4d 08	 mov	 ecx, DWORD PTR __Parg$[ebp]
  00008	89 08		 mov	 DWORD PTR [eax], ecx

; 46   : 		this->_Adopt(_Pvector);
; 47   : 		}

  0000a	5d		 pop	 ebp
  0000b	c2 08 00	 ret	 8
??0?$_Vector_const_iterator@V?$_Vector_val@UWeaponInfo@@V?$allocator@UWeaponInfo@@@std@@@std@@@std@@QAE@PAUWeaponInfo@@PBU_Container_base0@1@@Z ENDP ; std::_Vector_const_iterator<std::_Vector_val<WeaponInfo,std::allocator<WeaponInfo> > >::_Vector_const_iterator<std::_Vector_val<WeaponInfo,std::allocator<WeaponInfo> > >
_TEXT	ENDS
PUBLIC	??0?$_Vector_const_iterator@V?$_Vector_val@UForceInfo@@V?$allocator@UForceInfo@@@std@@@std@@@std@@QAE@PAUForceInfo@@PBU_Container_base0@1@@Z ; std::_Vector_const_iterator<std::_Vector_val<ForceInfo,std::allocator<ForceInfo> > >::_Vector_const_iterator<std::_Vector_val<ForceInfo,std::allocator<ForceInfo> > >
; Function compile flags: /Ogsp
;	COMDAT ??0?$_Vector_const_iterator@V?$_Vector_val@UForceInfo@@V?$allocator@UForceInfo@@@std@@@std@@@std@@QAE@PAUForceInfo@@PBU_Container_base0@1@@Z
_TEXT	SEGMENT
__Parg$ = 8						; size = 4
__Pvector$ = 12						; size = 4
??0?$_Vector_const_iterator@V?$_Vector_val@UForceInfo@@V?$allocator@UForceInfo@@@std@@@std@@@std@@QAE@PAUForceInfo@@PBU_Container_base0@1@@Z PROC ; std::_Vector_const_iterator<std::_Vector_val<ForceInfo,std::allocator<ForceInfo> > >::_Vector_const_iterator<std::_Vector_val<ForceInfo,std::allocator<ForceInfo> > >, COMDAT
; _this$ = ecx

; 45   : 		{	// construct with pointer _Parg

  00000	55		 push	 ebp
  00001	8b ec		 mov	 ebp, esp
  00003	8b c1		 mov	 eax, ecx
  00005	8b 4d 08	 mov	 ecx, DWORD PTR __Parg$[ebp]
  00008	89 08		 mov	 DWORD PTR [eax], ecx

; 46   : 		this->_Adopt(_Pvector);
; 47   : 		}

  0000a	5d		 pop	 ebp
  0000b	c2 08 00	 ret	 8
??0?$_Vector_const_iterator@V?$_Vector_val@UForceInfo@@V?$allocator@UForceInfo@@@std@@@std@@@std@@QAE@PAUForceInfo@@PBU_Container_base0@1@@Z ENDP ; std::_Vector_const_iterator<std::_Vector_val<ForceInfo,std::allocator<ForceInfo> > >::_Vector_const_iterator<std::_Vector_val<ForceInfo,std::allocator<ForceInfo> > >
_TEXT	ENDS
PUBLIC	?_Compat@?$_Vector_const_iterator@V?$_Vector_val@UWeaponInfo@@V?$allocator@UWeaponInfo@@@std@@@std@@@std@@QBEXABV12@@Z ; std::_Vector_const_iterator<std::_Vector_val<WeaponInfo,std::allocator<WeaponInfo> > >::_Compat
; Function compile flags: /Ogsp
;	COMDAT ?_Compat@?$_Vector_const_iterator@V?$_Vector_val@UWeaponInfo@@V?$allocator@UWeaponInfo@@@std@@@std@@@std@@QBEXABV12@@Z
_TEXT	SEGMENT
___formal$ = 8						; size = 4
?_Compat@?$_Vector_const_iterator@V?$_Vector_val@UWeaponInfo@@V?$allocator@UWeaponInfo@@@std@@@std@@@std@@QBEXABV12@@Z PROC ; std::_Vector_const_iterator<std::_Vector_val<WeaponInfo,std::allocator<WeaponInfo> > >::_Compat, COMDAT
; _this$ = ecx

; 253  : 		}

  00000	c2 04 00	 ret	 4
?_Compat@?$_Vector_const_iterator@V?$_Vector_val@UWeaponInfo@@V?$allocator@UWeaponInfo@@@std@@@std@@@std@@QBEXABV12@@Z ENDP ; std::_Vector_const_iterator<std::_Vector_val<WeaponInfo,std::allocator<WeaponInfo> > >::_Compat
_TEXT	ENDS
PUBLIC	?_Compat@?$_Vector_const_iterator@V?$_Vector_val@UForceInfo@@V?$allocator@UForceInfo@@@std@@@std@@@std@@QBEXABV12@@Z ; std::_Vector_const_iterator<std::_Vector_val<ForceInfo,std::allocator<ForceInfo> > >::_Compat
; Function compile flags: /Ogsp
;	COMDAT ?_Compat@?$_Vector_const_iterator@V?$_Vector_val@UForceInfo@@V?$allocator@UForceInfo@@@std@@@std@@@std@@QBEXABV12@@Z
_TEXT	SEGMENT
___formal$ = 8						; size = 4
?_Compat@?$_Vector_const_iterator@V?$_Vector_val@UForceInfo@@V?$allocator@UForceInfo@@@std@@@std@@@std@@QBEXABV12@@Z PROC ; std::_Vector_const_iterator<std::_Vector_val<ForceInfo,std::allocator<ForceInfo> > >::_Compat, COMDAT
; _this$ = ecx

; 253  : 		}

  00000	c2 04 00	 ret	 4
?_Compat@?$_Vector_const_iterator@V?$_Vector_val@UForceInfo@@V?$allocator@UForceInfo@@@std@@@std@@@std@@QBEXABV12@@Z ENDP ; std::_Vector_const_iterator<std::_Vector_val<ForceInfo,std::allocator<ForceInfo> > >::_Compat
_TEXT	ENDS
PUBLIC	__TI2?AVbad_alloc@std@@
PUBLIC	??$_Allocate@UWeaponInfo@@@std@@YAPAUWeaponInfo@@IPAU1@@Z ; std::_Allocate<WeaponInfo>
PUBLIC	__CTA2?AVbad_alloc@std@@
PUBLIC	__CT??_R0?AVbad_alloc@std@@@8??0bad_alloc@std@@QAE@ABV01@@Z12
PUBLIC	??0bad_alloc@std@@QAE@ABV01@@Z			; std::bad_alloc::bad_alloc
PUBLIC	__CT??_R0?AVexception@std@@@8??0exception@std@@QAE@ABV01@@Z12
EXTRN	??2@YAPAXI@Z:PROC				; operator new
EXTRN	__CxxThrowException@8:PROC
EXTRN	??0exception@std@@QAE@ABV01@@Z:PROC		; std::exception::exception
;	COMDAT __CT??_R0?AVexception@std@@@8??0exception@std@@QAE@ABV01@@Z12
; File c:\program files (x86)\microsoft visual studio 10.0\vc\include\exception
xdata$x	SEGMENT
__CT??_R0?AVexception@std@@@8??0exception@std@@QAE@ABV01@@Z12 DD 00H
	DD	FLAT:??_R0?AVexception@std@@@8
	DD	00H
	DD	0ffffffffH
	ORG $+4
	DD	0cH
	DD	FLAT:??0exception@std@@QAE@ABV01@@Z
xdata$x	ENDS
;	COMDAT __CT??_R0?AVbad_alloc@std@@@8??0bad_alloc@std@@QAE@ABV01@@Z12
xdata$x	SEGMENT
__CT??_R0?AVbad_alloc@std@@@8??0bad_alloc@std@@QAE@ABV01@@Z12 DD 00H
	DD	FLAT:??_R0?AVbad_alloc@std@@@8
	DD	00H
	DD	0ffffffffH
	ORG $+4
	DD	0cH
	DD	FLAT:??0bad_alloc@std@@QAE@ABV01@@Z
xdata$x	ENDS
;	COMDAT __CTA2?AVbad_alloc@std@@
xdata$x	SEGMENT
__CTA2?AVbad_alloc@std@@ DD 02H
	DD	FLAT:__CT??_R0?AVbad_alloc@std@@@8??0bad_alloc@std@@QAE@ABV01@@Z12
	DD	FLAT:__CT??_R0?AVexception@std@@@8??0exception@std@@QAE@ABV01@@Z12
xdata$x	ENDS
;	COMDAT __TI2?AVbad_alloc@std@@
xdata$x	SEGMENT
__TI2?AVbad_alloc@std@@ DD 00H
	DD	FLAT:??1bad_alloc@std@@UAE@XZ
	DD	00H
	DD	FLAT:__CTA2?AVbad_alloc@std@@
; Function compile flags: /Ogsp
; File c:\program files (x86)\microsoft visual studio 10.0\vc\include\xmemory
xdata$x	ENDS
;	COMDAT ??$_Allocate@UWeaponInfo@@@std@@YAPAUWeaponInfo@@IPAU1@@Z
_TEXT	SEGMENT
$T613902 = -12						; size = 12
$T613907 = 8						; size = 4
__Count$ = 8						; size = 4
___formal$ = 12						; size = 4
??$_Allocate@UWeaponInfo@@@std@@YAPAUWeaponInfo@@IPAU1@@Z PROC ; std::_Allocate<WeaponInfo>, COMDAT

; 30   : 	{	// allocate storage for _Count elements of type _Ty

  00000	55		 push	 ebp
  00001	8b ec		 mov	 ebp, esp

; 31   : 	void *_Ptr = 0;
; 32   : 
; 33   : 	if (_Count <= 0)

  00003	8b 4d 08	 mov	 ecx, DWORD PTR __Count$[ebp]
  00006	83 ec 0c	 sub	 esp, 12			; 0000000cH
  00009	33 c0		 xor	 eax, eax
  0000b	85 c9		 test	 ecx, ecx

; 34   : 		_Count = 0;
; 35   : 	else if (((_SIZT)(-1) / sizeof (_Ty) < _Count)

  0000d	74 3c		 je	 SHORT $LN5@Allocate

; 36   : 		|| (_Ptr = ::operator new(_Count * sizeof (_Ty))) == 0)

  0000f	81 f9 66 66 66
	06		 cmp	 ecx, 107374182		; 06666666H
  00015	77 0e		 ja	 SHORT $LN1@Allocate
  00017	6b c9 28	 imul	 ecx, 40			; 00000028H
  0001a	51		 push	 ecx
  0001b	e8 00 00 00 00	 call	 ??2@YAPAXI@Z		; operator new
  00020	59		 pop	 ecx
  00021	85 c0		 test	 eax, eax

; 38   : 
; 39   : 	return ((_Ty _FARQ *)_Ptr);

  00023	75 26		 jne	 SHORT $LN5@Allocate
$LN1@Allocate:

; 37   : 		_THROW_NCEE(bad_alloc, 0);

  00025	83 65 08 00	 and	 DWORD PTR $T613907[ebp], 0
  00029	8d 45 08	 lea	 eax, DWORD PTR $T613907[ebp]
  0002c	50		 push	 eax
  0002d	8d 4d f4	 lea	 ecx, DWORD PTR $T613902[ebp]
  00030	ff 15 00 00 00
	00		 call	 DWORD PTR __imp_??0exception@std@@QAE@ABQBD@Z
  00036	68 00 00 00 00	 push	 OFFSET __TI2?AVbad_alloc@std@@
  0003b	8d 45 f4	 lea	 eax, DWORD PTR $T613902[ebp]
  0003e	50		 push	 eax
  0003f	c7 45 f4 00 00
	00 00		 mov	 DWORD PTR $T613902[ebp], OFFSET ??_7bad_alloc@std@@6B@
  00046	e8 00 00 00 00	 call	 __CxxThrowException@8
$LN10@Allocate:
$LN5@Allocate:

; 40   : 	}

  0004b	c9		 leave
  0004c	c3		 ret	 0
$LN9@Allocate:
??$_Allocate@UWeaponInfo@@@std@@YAPAUWeaponInfo@@IPAU1@@Z ENDP ; std::_Allocate<WeaponInfo>
_TEXT	ENDS
EXTRN	__imp_??0exception@std@@QAE@ABV01@@Z:PROC
; Function compile flags: /Ogsp
;	COMDAT ??0bad_alloc@std@@QAE@ABV01@@Z
_TEXT	SEGMENT
___that$ = 8						; size = 4
??0bad_alloc@std@@QAE@ABV01@@Z PROC			; std::bad_alloc::bad_alloc, COMDAT
; _this$ = ecx
  00000	55		 push	 ebp
  00001	8b ec		 mov	 ebp, esp
  00003	56		 push	 esi
  00004	ff 75 08	 push	 DWORD PTR ___that$[ebp]
  00007	8b f1		 mov	 esi, ecx
  00009	ff 15 00 00 00
	00		 call	 DWORD PTR __imp_??0exception@std@@QAE@ABV01@@Z
  0000f	c7 06 00 00 00
	00		 mov	 DWORD PTR [esi], OFFSET ??_7bad_alloc@std@@6B@
  00015	8b c6		 mov	 eax, esi
  00017	5e		 pop	 esi
  00018	5d		 pop	 ebp
  00019	c2 04 00	 ret	 4
??0bad_alloc@std@@QAE@ABV01@@Z ENDP			; std::bad_alloc::bad_alloc
_TEXT	ENDS
PUBLIC	??$_Allocate@UForceInfo@@@std@@YAPAUForceInfo@@IPAU1@@Z ; std::_Allocate<ForceInfo>
; Function compile flags: /Ogsp
;	COMDAT ??$_Allocate@UForceInfo@@@std@@YAPAUForceInfo@@IPAU1@@Z
_TEXT	SEGMENT
$T613915 = -12						; size = 12
$T613919 = 8						; size = 4
__Count$ = 8						; size = 4
___formal$ = 12						; size = 4
??$_Allocate@UForceInfo@@@std@@YAPAUForceInfo@@IPAU1@@Z PROC ; std::_Allocate<ForceInfo>, COMDAT

; 30   : 	{	// allocate storage for _Count elements of type _Ty

  00000	55		 push	 ebp
  00001	8b ec		 mov	 ebp, esp

; 31   : 	void *_Ptr = 0;
; 32   : 
; 33   : 	if (_Count <= 0)

  00003	8b 4d 08	 mov	 ecx, DWORD PTR __Count$[ebp]
  00006	83 ec 0c	 sub	 esp, 12			; 0000000cH
  00009	33 c0		 xor	 eax, eax
  0000b	85 c9		 test	 ecx, ecx

; 34   : 		_Count = 0;
; 35   : 	else if (((_SIZT)(-1) / sizeof (_Ty) < _Count)

  0000d	74 3c		 je	 SHORT $LN5@Allocate@2

; 36   : 		|| (_Ptr = ::operator new(_Count * sizeof (_Ty))) == 0)

  0000f	81 f9 55 55 55
	15		 cmp	 ecx, 357913941		; 15555555H
  00015	77 0e		 ja	 SHORT $LN1@Allocate@2
  00017	6b c9 0c	 imul	 ecx, 12			; 0000000cH
  0001a	51		 push	 ecx
  0001b	e8 00 00 00 00	 call	 ??2@YAPAXI@Z		; operator new
  00020	59		 pop	 ecx
  00021	85 c0		 test	 eax, eax

; 38   : 
; 39   : 	return ((_Ty _FARQ *)_Ptr);

  00023	75 26		 jne	 SHORT $LN5@Allocate@2
$LN1@Allocate@2:

; 37   : 		_THROW_NCEE(bad_alloc, 0);

  00025	83 65 08 00	 and	 DWORD PTR $T613919[ebp], 0
  00029	8d 45 08	 lea	 eax, DWORD PTR $T613919[ebp]
  0002c	50		 push	 eax
  0002d	8d 4d f4	 lea	 ecx, DWORD PTR $T613915[ebp]
  00030	ff 15 00 00 00
	00		 call	 DWORD PTR __imp_??0exception@std@@QAE@ABQBD@Z
  00036	68 00 00 00 00	 push	 OFFSET __TI2?AVbad_alloc@std@@
  0003b	8d 45 f4	 lea	 eax, DWORD PTR $T613915[ebp]
  0003e	50		 push	 eax
  0003f	c7 45 f4 00 00
	00 00		 mov	 DWORD PTR $T613915[ebp], OFFSET ??_7bad_alloc@std@@6B@
  00046	e8 00 00 00 00	 call	 __CxxThrowException@8
$LN10@Allocate@2:
$LN5@Allocate@2:

; 40   : 	}

  0004b	c9		 leave
  0004c	c3		 ret	 0
$LN9@Allocate@2:
??$_Allocate@UForceInfo@@@std@@YAPAUForceInfo@@IPAU1@@Z ENDP ; std::_Allocate<ForceInfo>
_TEXT	ENDS
PUBLIC	??$_Destroy@UForceInfo@@@std@@YAXPAUForceInfo@@@Z ; std::_Destroy<ForceInfo>
; Function compile flags: /Ogsp
;	COMDAT ??$_Destroy@UForceInfo@@@std@@YAXPAUForceInfo@@@Z
_TEXT	SEGMENT
__Ptr$ = 8						; size = 4
??$_Destroy@UForceInfo@@@std@@YAXPAUForceInfo@@@Z PROC	; std::_Destroy<ForceInfo>, COMDAT

; 63   : 	_Ptr->~_Ty();
; 64   : 	}

  00000	c3		 ret	 0
??$_Destroy@UForceInfo@@@std@@YAXPAUForceInfo@@@Z ENDP	; std::_Destroy<ForceInfo>
_TEXT	ENDS
PUBLIC	??_GWeaponInfo@@QAEPAXI@Z			; WeaponInfo::`scalar deleting destructor'
; Function compile flags: /Ogsp
;	COMDAT ??_GWeaponInfo@@QAEPAXI@Z
_TEXT	SEGMENT
___flags$ = 8						; size = 4
??_GWeaponInfo@@QAEPAXI@Z PROC				; WeaponInfo::`scalar deleting destructor', COMDAT
; _this$ = ecx
  00000	55		 push	 ebp
  00001	8b ec		 mov	 ebp, esp
  00003	56		 push	 esi
  00004	8b f1		 mov	 esi, ecx
  00006	8d 4e 08	 lea	 ecx, DWORD PTR [esi+8]
  00009	ff 15 00 00 00
	00		 call	 DWORD PTR __imp_??1ioHashString@@QAE@XZ
  0000f	f6 45 08 01	 test	 BYTE PTR ___flags$[ebp], 1
  00013	74 07		 je	 SHORT $LN1@scalar@5
  00015	56		 push	 esi
  00016	e8 00 00 00 00	 call	 ??3@YAXPAX@Z		; operator delete
  0001b	59		 pop	 ecx
$LN1@scalar@5:
  0001c	8b c6		 mov	 eax, esi
  0001e	5e		 pop	 esi
  0001f	5d		 pop	 ebp
  00020	c2 04 00	 ret	 4
??_GWeaponInfo@@QAEPAXI@Z ENDP				; WeaponInfo::`scalar deleting destructor'
_TEXT	ENDS
PUBLIC	??0WeaponInfo@@QAE@ABU0@@Z			; WeaponInfo::WeaponInfo
EXTRN	__imp_??0ioHashString@@QAE@ABV0@@Z:PROC
; Function compile flags: /Ogsp
;	COMDAT ??0WeaponInfo@@QAE@ABU0@@Z
_TEXT	SEGMENT
___that$ = 8						; size = 4
??0WeaponInfo@@QAE@ABU0@@Z PROC				; WeaponInfo::WeaponInfo, COMDAT
; _this$ = ecx
  00000	55		 push	 ebp
  00001	8b ec		 mov	 ebp, esp
  00003	56		 push	 esi
  00004	57		 push	 edi
  00005	8b 7d 08	 mov	 edi, DWORD PTR ___that$[ebp]
  00008	8b 07		 mov	 eax, DWORD PTR [edi]
  0000a	8b f1		 mov	 esi, ecx
  0000c	89 06		 mov	 DWORD PTR [esi], eax
  0000e	8b 47 04	 mov	 eax, DWORD PTR [edi+4]
  00011	89 46 04	 mov	 DWORD PTR [esi+4], eax
  00014	8d 47 08	 lea	 eax, DWORD PTR [edi+8]
  00017	50		 push	 eax
  00018	8d 4e 08	 lea	 ecx, DWORD PTR [esi+8]
  0001b	ff 15 00 00 00
	00		 call	 DWORD PTR __imp_??0ioHashString@@QAE@ABV0@@Z
  00021	8b 47 18	 mov	 eax, DWORD PTR [edi+24]
  00024	89 46 18	 mov	 DWORD PTR [esi+24], eax
  00027	8b 47 1c	 mov	 eax, DWORD PTR [edi+28]
  0002a	89 46 1c	 mov	 DWORD PTR [esi+28], eax
  0002d	8a 47 20	 mov	 al, BYTE PTR [edi+32]
  00030	88 46 20	 mov	 BYTE PTR [esi+32], al
  00033	8b 47 24	 mov	 eax, DWORD PTR [edi+36]
  00036	89 46 24	 mov	 DWORD PTR [esi+36], eax
  00039	5f		 pop	 edi
  0003a	8b c6		 mov	 eax, esi
  0003c	5e		 pop	 esi
  0003d	5d		 pop	 ebp
  0003e	c2 04 00	 ret	 4
??0WeaponInfo@@QAE@ABU0@@Z ENDP				; WeaponInfo::WeaponInfo
_TEXT	ENDS
PUBLIC	??8?$CEncrypt@M@@QAE_NABM@Z			; CEncrypt<float>::operator==
; Function compile flags: /Ogsp
; File d:\lost saga for developer\youtube\tutorial\source\src\lsclient\encryptvalue.h
;	COMDAT ??8?$CEncrypt@M@@QAE_NABM@Z
_TEXT	SEGMENT
_value$ = -4						; size = 4
_inValue$ = 8						; size = 4
??8?$CEncrypt@M@@QAE_NABM@Z PROC			; CEncrypt<float>::operator==, COMDAT
; _this$ = ecx

; 1781 : 	{

  00000	55		 push	 ebp
  00001	8b ec		 mov	 ebp, esp
  00003	51		 push	 ecx

; 1782 : 		type value;
; 1783 : 		DecryptValueToPool(&value);

  00004	8d 45 fc	 lea	 eax, DWORD PTR _value$[ebp]
  00007	50		 push	 eax
  00008	e8 00 00 00 00	 call	 ?DecryptValueToPool@?$CEncrypt@M@@QAEXPAM@Z ; CEncrypt<float>::DecryptValueToPool

; 1784 : #ifdef _NOTUSE
; 1785 : 		Debug();
; 1786 : #endif
; 1787 : 		return (value == inValue);

  0000d	8b 45 08	 mov	 eax, DWORD PTR _inValue$[ebp]
  00010	f3 0f 10 08	 movss	 xmm1, DWORD PTR [eax]
  00014	f3 0f 10 45 fc	 movss	 xmm0, DWORD PTR _value$[ebp]
  00019	0f 5a c0	 cvtps2pd xmm0, xmm0
  0001c	0f 5a c9	 cvtps2pd xmm1, xmm1
  0001f	66 0f 2e c1	 ucomisd xmm0, xmm1
  00023	9f		 lahf
  00024	f6 c4 44	 test	 ah, 68			; 00000044H
  00027	7a 05		 jp	 SHORT $LN3@operator
  00029	33 c0		 xor	 eax, eax
  0002b	40		 inc	 eax
  0002c	eb 02		 jmp	 SHORT $LN4@operator
$LN3@operator:
  0002e	33 c0		 xor	 eax, eax
$LN4@operator:

; 1788 : 	} 

  00030	c9		 leave
  00031	c2 04 00	 ret	 4
??8?$CEncrypt@M@@QAE_NABM@Z ENDP			; CEncrypt<float>::operator==
_TEXT	ENDS
PUBLIC	??N?$CEncrypt@K@@QAE_NABH@Z			; CEncrypt<unsigned long>::operator<=
; Function compile flags: /Ogsp
;	COMDAT ??N?$CEncrypt@K@@QAE_NABH@Z
_TEXT	SEGMENT
_value$ = -4						; size = 4
_inValue$ = 8						; size = 4
??N?$CEncrypt@K@@QAE_NABH@Z PROC			; CEncrypt<unsigned long>::operator<=, COMDAT
; _this$ = ecx

; 1020 : 	{

  00000	55		 push	 ebp
  00001	8b ec		 mov	 ebp, esp
  00003	51		 push	 ecx

; 1021 : 		
; 1022 : 		type value;
; 1023 : 		DecryptValueToPool(&value);

  00004	8d 45 fc	 lea	 eax, DWORD PTR _value$[ebp]
  00007	50		 push	 eax
  00008	e8 00 00 00 00	 call	 ?DecryptValueToPool@?$CEncrypt@K@@QAEXPAK@Z ; CEncrypt<unsigned long>::DecryptValueToPool

; 1024 : #ifdef _NOTUSE
; 1025 : 		Debug();
; 1026 : #endif
; 1027 : 		return (value <= inValue);

  0000d	8b 45 08	 mov	 eax, DWORD PTR _inValue$[ebp]
  00010	8b 00		 mov	 eax, DWORD PTR [eax]
  00012	3b 45 fc	 cmp	 eax, DWORD PTR _value$[ebp]
  00015	1b c0		 sbb	 eax, eax
  00017	40		 inc	 eax

; 1028 : 	}		

  00018	c9		 leave
  00019	c2 04 00	 ret	 4
??N?$CEncrypt@K@@QAE_NABH@Z ENDP			; CEncrypt<unsigned long>::operator<=
_TEXT	ENDS
PUBLIC	?begin@?$vector@UWeaponInfo@@V?$allocator@UWeaponInfo@@@std@@@std@@QBE?AV?$_Vector_const_iterator@V?$_Vector_val@UWeaponInfo@@V?$allocator@UWeaponInfo@@@std@@@std@@@2@XZ ; std::vector<WeaponInfo,std::allocator<WeaponInfo> >::begin
; Function compile flags: /Ogsp
; File c:\program files (x86)\microsoft visual studio 10.0\vc\include\vector
;	COMDAT ?begin@?$vector@UWeaponInfo@@V?$allocator@UWeaponInfo@@@std@@@std@@QBE?AV?$_Vector_const_iterator@V?$_Vector_val@UWeaponInfo@@V?$allocator@UWeaponInfo@@@std@@@std@@@2@XZ
_TEXT	SEGMENT
___$ReturnUdt$ = 8					; size = 4
?begin@?$vector@UWeaponInfo@@V?$allocator@UWeaponInfo@@@std@@@std@@QBE?AV?$_Vector_const_iterator@V?$_Vector_val@UWeaponInfo@@V?$allocator@UWeaponInfo@@@std@@@std@@@2@XZ PROC ; std::vector<WeaponInfo,std::allocator<WeaponInfo> >::begin, COMDAT
; _this$ = ecx

; 786  : 		{	// return iterator for beginning of nonmutable sequence

  00000	55		 push	 ebp
  00001	8b ec		 mov	 ebp, esp

; 787  : 		return (const_iterator(this->_Myfirst, this));

  00003	8b 09		 mov	 ecx, DWORD PTR [ecx]
  00005	8b 45 08	 mov	 eax, DWORD PTR ___$ReturnUdt$[ebp]
  00008	89 08		 mov	 DWORD PTR [eax], ecx

; 788  : 		}

  0000a	5d		 pop	 ebp
  0000b	c2 04 00	 ret	 4
?begin@?$vector@UWeaponInfo@@V?$allocator@UWeaponInfo@@@std@@@std@@QBE?AV?$_Vector_const_iterator@V?$_Vector_val@UWeaponInfo@@V?$allocator@UWeaponInfo@@@std@@@std@@@2@XZ ENDP ; std::vector<WeaponInfo,std::allocator<WeaponInfo> >::begin
_TEXT	ENDS
PUBLIC	?end@?$vector@UWeaponInfo@@V?$allocator@UWeaponInfo@@@std@@@std@@QBE?AV?$_Vector_const_iterator@V?$_Vector_val@UWeaponInfo@@V?$allocator@UWeaponInfo@@@std@@@std@@@2@XZ ; std::vector<WeaponInfo,std::allocator<WeaponInfo> >::end
; Function compile flags: /Ogsp
;	COMDAT ?end@?$vector@UWeaponInfo@@V?$allocator@UWeaponInfo@@@std@@@std@@QBE?AV?$_Vector_const_iterator@V?$_Vector_val@UWeaponInfo@@V?$allocator@UWeaponInfo@@@std@@@std@@@2@XZ
_TEXT	SEGMENT
___$ReturnUdt$ = 8					; size = 4
?end@?$vector@UWeaponInfo@@V?$allocator@UWeaponInfo@@@std@@@std@@QBE?AV?$_Vector_const_iterator@V?$_Vector_val@UWeaponInfo@@V?$allocator@UWeaponInfo@@@std@@@std@@@2@XZ PROC ; std::vector<WeaponInfo,std::allocator<WeaponInfo> >::end, COMDAT
; _this$ = ecx

; 796  : 		{	// return iterator for end of nonmutable sequence

  00000	55		 push	 ebp
  00001	8b ec		 mov	 ebp, esp

; 797  : 		return (const_iterator(this->_Mylast, this));

  00003	8b 49 04	 mov	 ecx, DWORD PTR [ecx+4]
  00006	8b 45 08	 mov	 eax, DWORD PTR ___$ReturnUdt$[ebp]
  00009	89 08		 mov	 DWORD PTR [eax], ecx

; 798  : 		}

  0000b	5d		 pop	 ebp
  0000c	c2 04 00	 ret	 4
?end@?$vector@UWeaponInfo@@V?$allocator@UWeaponInfo@@@std@@@std@@QBE?AV?$_Vector_const_iterator@V?$_Vector_val@UWeaponInfo@@V?$allocator@UWeaponInfo@@@std@@@std@@@2@XZ ENDP ; std::vector<WeaponInfo,std::allocator<WeaponInfo> >::end
_TEXT	ENDS
PUBLIC	?begin@?$vector@UForceInfo@@V?$allocator@UForceInfo@@@std@@@std@@QBE?AV?$_Vector_const_iterator@V?$_Vector_val@UForceInfo@@V?$allocator@UForceInfo@@@std@@@std@@@2@XZ ; std::vector<ForceInfo,std::allocator<ForceInfo> >::begin
; Function compile flags: /Ogsp
;	COMDAT ?begin@?$vector@UForceInfo@@V?$allocator@UForceInfo@@@std@@@std@@QBE?AV?$_Vector_const_iterator@V?$_Vector_val@UForceInfo@@V?$allocator@UForceInfo@@@std@@@std@@@2@XZ
_TEXT	SEGMENT
___$ReturnUdt$ = 8					; size = 4
?begin@?$vector@UForceInfo@@V?$allocator@UForceInfo@@@std@@@std@@QBE?AV?$_Vector_const_iterator@V?$_Vector_val@UForceInfo@@V?$allocator@UForceInfo@@@std@@@std@@@2@XZ PROC ; std::vector<ForceInfo,std::allocator<ForceInfo> >::begin, COMDAT
; _this$ = ecx

; 786  : 		{	// return iterator for beginning of nonmutable sequence

  00000	55		 push	 ebp
  00001	8b ec		 mov	 ebp, esp

; 787  : 		return (const_iterator(this->_Myfirst, this));

  00003	8b 09		 mov	 ecx, DWORD PTR [ecx]
  00005	8b 45 08	 mov	 eax, DWORD PTR ___$ReturnUdt$[ebp]
  00008	89 08		 mov	 DWORD PTR [eax], ecx

; 788  : 		}

  0000a	5d		 pop	 ebp
  0000b	c2 04 00	 ret	 4
?begin@?$vector@UForceInfo@@V?$allocator@UForceInfo@@@std@@@std@@QBE?AV?$_Vector_const_iterator@V?$_Vector_val@UForceInfo@@V?$allocator@UForceInfo@@@std@@@std@@@2@XZ ENDP ; std::vector<ForceInfo,std::allocator<ForceInfo> >::begin
_TEXT	ENDS
PUBLIC	?end@?$vector@UForceInfo@@V?$allocator@UForceInfo@@@std@@@std@@QBE?AV?$_Vector_const_iterator@V?$_Vector_val@UForceInfo@@V?$allocator@UForceInfo@@@std@@@std@@@2@XZ ; std::vector<ForceInfo,std::allocator<ForceInfo> >::end
; Function compile flags: /Ogsp
;	COMDAT ?end@?$vector@UForceInfo@@V?$allocator@UForceInfo@@@std@@@std@@QBE?AV?$_Vector_const_iterator@V?$_Vector_val@UForceInfo@@V?$allocator@UForceInfo@@@std@@@std@@@2@XZ
_TEXT	SEGMENT
___$ReturnUdt$ = 8					; size = 4
?end@?$vector@UForceInfo@@V?$allocator@UForceInfo@@@std@@@std@@QBE?AV?$_Vector_const_iterator@V?$_Vector_val@UForceInfo@@V?$allocator@UForceInfo@@@std@@@std@@@2@XZ PROC ; std::vector<ForceInfo,std::allocator<ForceInfo> >::end, COMDAT
; _this$ = ecx

; 796  : 		{	// return iterator for end of nonmutable sequence

  00000	55		 push	 ebp
  00001	8b ec		 mov	 ebp, esp

; 797  : 		return (const_iterator(this->_Mylast, this));

  00003	8b 49 04	 mov	 ecx, DWORD PTR [ecx+4]
  00006	8b 45 08	 mov	 eax, DWORD PTR ___$ReturnUdt$[ebp]
  00009	89 08		 mov	 DWORD PTR [eax], ecx

; 798  : 		}

  0000b	5d		 pop	 ebp
  0000c	c2 04 00	 ret	 4
?end@?$vector@UForceInfo@@V?$allocator@UForceInfo@@@std@@@std@@QBE?AV?$_Vector_const_iterator@V?$_Vector_val@UForceInfo@@V?$allocator@UForceInfo@@@std@@@std@@@2@XZ ENDP ; std::vector<ForceInfo,std::allocator<ForceInfo> >::end
_TEXT	ENDS
PUBLIC	_this$GSCopy$
PUBLIC	__$ArrayPad$
PUBLIC	??$LoadString_e@$0O@@ioINILoader@@QAEXAAY0O@$$CBDAAY00$$CBDPADH@Z ; ioINILoader::LoadString_e<14>
EXTRN	__imp_?LoadStringA@ioINILoader@@QAEXPBD0PADH@Z:PROC
; Function compile flags: /Ogsp
; File d:\lost saga for developer\youtube\tutorial\source\src\io3dengine\ioiniloader.h
;	COMDAT ??$LoadString_e@$0O@@ioINILoader@@QAEXAAY0O@$$CBDAAY00$$CBDPADH@Z
_TEXT	SEGMENT
_this$GSCopy$ = -28					; size = 4
__k$ = -24						; size = 14
__$ArrayPad$ = -4					; size = 4
_k$ = 8							; size = 4
_d$ = 12						; size = 4
_b$ = 16						; size = 4
_i$ = 20						; size = 4
??$LoadString_e@$0O@@ioINILoader@@QAEXAAY0O@$$CBDAAY00$$CBDPADH@Z PROC ; ioINILoader::LoadString_e<14>, COMDAT
; _this$ = ecx

; 161  : 	{

  00000	55		 push	 ebp
  00001	8b ec		 mov	 ebp, esp
  00003	83 ec 1c	 sub	 esp, 28			; 0000001cH
  00006	a1 00 00 00 00	 mov	 eax, DWORD PTR ___security_cookie
  0000b	33 c5		 xor	 eax, ebp
  0000d	89 45 fc	 mov	 DWORD PTR __$ArrayPad$[ebp], eax
  00010	8b 45 08	 mov	 eax, DWORD PTR _k$[ebp]

; 162  : 		_ENCSTR(k, _k);

  00013	8a 10		 mov	 dl, BYTE PTR [eax]
  00015	56		 push	 esi
  00016	8b 75 0c	 mov	 esi, DWORD PTR _d$[ebp]
  00019	57		 push	 edi
  0001a	8b 7d 10	 mov	 edi, DWORD PTR _b$[ebp]
  0001d	89 4d e4	 mov	 DWORD PTR _this$GSCopy$[ebp], ecx
  00020	84 d2		 test	 dl, dl
  00022	0f 84 64 01 00
	00		 je	 $LN96@LoadString
  00028	80 f2 ed	 xor	 dl, -19			; ffffffedH
  0002b	88 55 e8	 mov	 BYTE PTR __k$[ebp], dl
  0002e	8a 50 01	 mov	 dl, BYTE PTR [eax+1]
  00031	84 d2		 test	 dl, dl
  00033	0f 84 4d 01 00
	00		 je	 $LN95@LoadString
  00039	80 f2 ec	 xor	 dl, -20			; ffffffecH
  0003c	88 55 e9	 mov	 BYTE PTR __k$[ebp+1], dl
  0003f	8a 50 02	 mov	 dl, BYTE PTR [eax+2]
  00042	84 d2		 test	 dl, dl
  00044	0f 84 36 01 00
	00		 je	 $LN94@LoadString
  0004a	b1 eb		 mov	 cl, -21			; ffffffebH
  0004c	32 d1		 xor	 dl, cl
  0004e	88 55 ea	 mov	 BYTE PTR __k$[ebp+2], dl
  00051	8a 50 03	 mov	 dl, BYTE PTR [eax+3]
  00054	84 d2		 test	 dl, dl
  00056	0f 84 1e 01 00
	00		 je	 $LN93@LoadString
  0005c	80 f2 ea	 xor	 dl, -22			; ffffffeaH
  0005f	88 55 eb	 mov	 BYTE PTR __k$[ebp+3], dl
  00062	8a 50 04	 mov	 dl, BYTE PTR [eax+4]
  00065	84 d2		 test	 dl, dl
  00067	0f 84 07 01 00
	00		 je	 $LN92@LoadString
  0006d	80 f2 ed	 xor	 dl, -19			; ffffffedH
  00070	88 55 ec	 mov	 BYTE PTR __k$[ebp+4], dl
  00073	8a 50 05	 mov	 dl, BYTE PTR [eax+5]
  00076	84 d2		 test	 dl, dl
  00078	0f 84 f0 00 00
	00		 je	 $LN91@LoadString
  0007e	80 f2 ec	 xor	 dl, -20			; ffffffecH
  00081	88 55 ed	 mov	 BYTE PTR __k$[ebp+5], dl
  00084	8a 50 06	 mov	 dl, BYTE PTR [eax+6]
  00087	84 d2		 test	 dl, dl
  00089	0f 84 da 00 00
	00		 je	 $LN90@LoadString
  0008f	32 d1		 xor	 dl, cl
  00091	88 55 ee	 mov	 BYTE PTR __k$[ebp+6], dl
  00094	8a 50 07	 mov	 dl, BYTE PTR [eax+7]
  00097	84 d2		 test	 dl, dl
  00099	0f 84 c4 00 00
	00		 je	 $LN89@LoadString
  0009f	80 f2 ea	 xor	 dl, -22			; ffffffeaH
  000a2	88 55 ef	 mov	 BYTE PTR __k$[ebp+7], dl
  000a5	8a 50 08	 mov	 dl, BYTE PTR [eax+8]
  000a8	84 d2		 test	 dl, dl
  000aa	0f 84 ad 00 00
	00		 je	 $LN88@LoadString
  000b0	80 f2 ed	 xor	 dl, -19			; ffffffedH
  000b3	88 55 f0	 mov	 BYTE PTR __k$[ebp+8], dl
  000b6	8a 50 09	 mov	 dl, BYTE PTR [eax+9]
  000b9	84 d2		 test	 dl, dl
  000bb	0f 84 96 00 00
	00		 je	 $LN87@LoadString
  000c1	80 f2 ec	 xor	 dl, -20			; ffffffecH
  000c4	88 55 f1	 mov	 BYTE PTR __k$[ebp+9], dl
  000c7	8a 50 0a	 mov	 dl, BYTE PTR [eax+10]
  000ca	84 d2		 test	 dl, dl
  000cc	0f 84 80 00 00
	00		 je	 $LN86@LoadString
  000d2	32 d1		 xor	 dl, cl
  000d4	88 55 f2	 mov	 BYTE PTR __k$[ebp+10], dl
  000d7	8a 50 0b	 mov	 dl, BYTE PTR [eax+11]
  000da	84 d2		 test	 dl, dl
  000dc	74 6e		 je	 SHORT $LN85@LoadString
  000de	80 f2 ea	 xor	 dl, -22			; ffffffeaH
  000e1	88 55 f3	 mov	 BYTE PTR __k$[ebp+11], dl
  000e4	8a 50 0c	 mov	 dl, BYTE PTR [eax+12]
  000e7	84 d2		 test	 dl, dl
  000e9	74 5b		 je	 SHORT $LN84@LoadString
  000eb	80 f2 ed	 xor	 dl, -19			; ffffffedH
  000ee	80 78 0d 00	 cmp	 BYTE PTR [eax+13], 0
  000f2	88 55 f4	 mov	 BYTE PTR __k$[ebp+12], dl
  000f5	0f 84 95 00 00
	00		 je	 $LN111@LoadString
  000fb	8a 50 0e	 mov	 dl, BYTE PTR [eax+14]
  000fe	84 d2		 test	 dl, dl
  00100	74 3f		 je	 SHORT $LN82@LoadString
  00102	32 d1		 xor	 dl, cl
  00104	88 55 f6	 mov	 BYTE PTR __k$[ebp+14], dl
  00107	8a 50 0f	 mov	 dl, BYTE PTR [eax+15]
  0010a	84 d2		 test	 dl, dl
  0010c	74 2d		 je	 SHORT $LN81@LoadString
  0010e	80 f2 ea	 xor	 dl, -22			; ffffffeaH
  00111	88 55 f7	 mov	 BYTE PTR __k$[ebp+15], dl
  00114	8a 50 10	 mov	 dl, BYTE PTR [eax+16]
  00117	84 d2		 test	 dl, dl
  00119	74 1a		 je	 SHORT $LN80@LoadString
  0011b	8a 40 11	 mov	 al, BYTE PTR [eax+17]
  0011e	80 f2 ed	 xor	 dl, -19			; ffffffedH
  00121	88 55 f8	 mov	 BYTE PTR __k$[ebp+16], dl
  00124	84 c0		 test	 al, al
  00126	74 07		 je	 SHORT $LN79@LoadString
  00128	34 ec		 xor	 al, -20			; ffffffecH
  0012a	88 45 f9	 mov	 BYTE PTR __k$[ebp+17], al
  0012d	eb 61		 jmp	 SHORT $LN111@LoadString
$LN79@LoadString:
  0012f	c6 45 f9 ec	 mov	 BYTE PTR __k$[ebp+17], -20 ; ffffffecH
  00133	eb 5b		 jmp	 SHORT $LN111@LoadString
$LN80@LoadString:
  00135	c6 45 f8 ed	 mov	 BYTE PTR __k$[ebp+16], -19 ; ffffffedH
  00139	eb 55		 jmp	 SHORT $LN111@LoadString
$LN81@LoadString:
  0013b	c6 45 f7 ea	 mov	 BYTE PTR __k$[ebp+15], -22 ; ffffffeaH
  0013f	eb 4f		 jmp	 SHORT $LN111@LoadString
$LN82@LoadString:
  00141	88 4d f6	 mov	 BYTE PTR __k$[ebp+14], cl
  00144	eb 4a		 jmp	 SHORT $LN111@LoadString
$LN84@LoadString:
  00146	c6 45 f4 ed	 mov	 BYTE PTR __k$[ebp+12], -19 ; ffffffedH
  0014a	eb 44		 jmp	 SHORT $LN111@LoadString
$LN85@LoadString:
  0014c	c6 45 f3 ea	 mov	 BYTE PTR __k$[ebp+11], -22 ; ffffffeaH
  00150	eb 3e		 jmp	 SHORT $LN111@LoadString
$LN86@LoadString:
  00152	88 4d f2	 mov	 BYTE PTR __k$[ebp+10], cl
  00155	eb 39		 jmp	 SHORT $LN111@LoadString
$LN87@LoadString:
  00157	c6 45 f1 ec	 mov	 BYTE PTR __k$[ebp+9], -20 ; ffffffecH
  0015b	eb 33		 jmp	 SHORT $LN111@LoadString
$LN88@LoadString:
  0015d	c6 45 f0 ed	 mov	 BYTE PTR __k$[ebp+8], -19 ; ffffffedH
  00161	eb 2d		 jmp	 SHORT $LN111@LoadString
$LN89@LoadString:
  00163	c6 45 ef ea	 mov	 BYTE PTR __k$[ebp+7], -22 ; ffffffeaH
  00167	eb 27		 jmp	 SHORT $LN111@LoadString
$LN90@LoadString:
  00169	88 4d ee	 mov	 BYTE PTR __k$[ebp+6], cl
  0016c	eb 22		 jmp	 SHORT $LN111@LoadString
$LN91@LoadString:
  0016e	c6 45 ed ec	 mov	 BYTE PTR __k$[ebp+5], -20 ; ffffffecH
  00172	eb 1c		 jmp	 SHORT $LN111@LoadString
$LN92@LoadString:
  00174	c6 45 ec ed	 mov	 BYTE PTR __k$[ebp+4], -19 ; ffffffedH
  00178	eb 16		 jmp	 SHORT $LN111@LoadString
$LN93@LoadString:
  0017a	c6 45 eb ea	 mov	 BYTE PTR __k$[ebp+3], -22 ; ffffffeaH
  0017e	eb 10		 jmp	 SHORT $LN111@LoadString
$LN94@LoadString:
  00180	c6 45 ea eb	 mov	 BYTE PTR __k$[ebp+2], -21 ; ffffffebH
  00184	eb 0a		 jmp	 SHORT $LN111@LoadString
$LN95@LoadString:
  00186	c6 45 e9 ec	 mov	 BYTE PTR __k$[ebp+1], -20 ; ffffffecH
  0018a	eb 04		 jmp	 SHORT $LN111@LoadString
$LN96@LoadString:
  0018c	c6 45 e8 ed	 mov	 BYTE PTR __k$[ebp], -19	; ffffffedH
$LN111@LoadString:
  00190	6a 03		 push	 3
  00192	8d 45 e8	 lea	 eax, DWORD PTR __k$[ebp]
  00195	c6 45 f5 00	 mov	 BYTE PTR __k$[ebp+13], 0
  00199	5a		 pop	 edx
$LL104@LoadString:
  0019a	81 30 ed ec eb
	ea		 xor	 DWORD PTR [eax], -353637139 ; eaebecedH
  001a0	83 c0 04	 add	 eax, 4
  001a3	4a		 dec	 edx
  001a4	75 f4		 jne	 SHORT $LL104@LoadString

; 163  : 		LoadString(_k, d, b, i);

  001a6	ff 75 14	 push	 DWORD PTR _i$[ebp]
  001a9	8b 4d e4	 mov	 ecx, DWORD PTR _this$GSCopy$[ebp]
  001ac	80 75 f4 ed	 xor	 BYTE PTR __k$[ebp+12], -19 ; ffffffedH
  001b0	57		 push	 edi
  001b1	56		 push	 esi
  001b2	8d 45 e8	 lea	 eax, DWORD PTR __k$[ebp]
  001b5	50		 push	 eax
  001b6	ff 15 00 00 00
	00		 call	 DWORD PTR __imp_?LoadStringA@ioINILoader@@QAEXPBD0PADH@Z

; 164  : 	}

  001bc	8b 4d fc	 mov	 ecx, DWORD PTR __$ArrayPad$[ebp]
  001bf	5f		 pop	 edi
  001c0	33 cd		 xor	 ecx, ebp
  001c2	5e		 pop	 esi
  001c3	e8 00 00 00 00	 call	 @__security_check_cookie@4
  001c8	c9		 leave
  001c9	c2 10 00	 ret	 16			; 00000010H
??$LoadString_e@$0O@@ioINILoader@@QAEXAAY0O@$$CBDAAY00$$CBDPADH@Z ENDP ; ioINILoader::LoadString_e<14>
_TEXT	ENDS
PUBLIC	_this$GSCopy$
PUBLIC	__$ArrayPad$
PUBLIC	??$LoadString_e@$0BD@@ioINILoader@@QAEXAAY0BD@$$CBDAAY00$$CBDPADH@Z ; ioINILoader::LoadString_e<19>
; Function compile flags: /Ogsp
;	COMDAT ??$LoadString_e@$0BD@@ioINILoader@@QAEXAAY0BD@$$CBDAAY00$$CBDPADH@Z
_TEXT	SEGMENT
_this$GSCopy$ = -32					; size = 4
__k$ = -28						; size = 19
__$ArrayPad$ = -4					; size = 4
_k$ = 8							; size = 4
_d$ = 12						; size = 4
_b$ = 16						; size = 4
_i$ = 20						; size = 4
??$LoadString_e@$0BD@@ioINILoader@@QAEXAAY0BD@$$CBDAAY00$$CBDPADH@Z PROC ; ioINILoader::LoadString_e<19>, COMDAT
; _this$ = ecx

; 161  : 	{

  00000	55		 push	 ebp
  00001	8b ec		 mov	 ebp, esp
  00003	83 ec 20	 sub	 esp, 32			; 00000020H
  00006	a1 00 00 00 00	 mov	 eax, DWORD PTR ___security_cookie
  0000b	33 c5		 xor	 eax, ebp
  0000d	89 45 fc	 mov	 DWORD PTR __$ArrayPad$[ebp], eax
  00010	8b 45 08	 mov	 eax, DWORD PTR _k$[ebp]

; 162  : 		_ENCSTR(k, _k);

  00013	8a 10		 mov	 dl, BYTE PTR [eax]
  00015	56		 push	 esi
  00016	8b 75 0c	 mov	 esi, DWORD PTR _d$[ebp]
  00019	57		 push	 edi
  0001a	8b 7d 10	 mov	 edi, DWORD PTR _b$[ebp]
  0001d	89 4d e0	 mov	 DWORD PTR _this$GSCopy$[ebp], ecx
  00020	84 d2		 test	 dl, dl
  00022	0f 84 cf 01 00
	00		 je	 $LN96@LoadString@2
  00028	80 f2 ed	 xor	 dl, -19			; ffffffedH
  0002b	88 55 e4	 mov	 BYTE PTR __k$[ebp], dl
  0002e	8a 50 01	 mov	 dl, BYTE PTR [eax+1]
  00031	84 d2		 test	 dl, dl
  00033	0f 84 b8 01 00
	00		 je	 $LN95@LoadString@2
  00039	b1 ec		 mov	 cl, -20			; ffffffecH
  0003b	32 d1		 xor	 dl, cl
  0003d	88 55 e5	 mov	 BYTE PTR __k$[ebp+1], dl
  00040	8a 50 02	 mov	 dl, BYTE PTR [eax+2]
  00043	84 d2		 test	 dl, dl
  00045	0f 84 a0 01 00
	00		 je	 $LN94@LoadString@2
  0004b	80 f2 eb	 xor	 dl, -21			; ffffffebH
  0004e	88 55 e6	 mov	 BYTE PTR __k$[ebp+2], dl
  00051	8a 50 03	 mov	 dl, BYTE PTR [eax+3]
  00054	84 d2		 test	 dl, dl
  00056	0f 84 89 01 00
	00		 je	 $LN93@LoadString@2
  0005c	80 f2 ea	 xor	 dl, -22			; ffffffeaH
  0005f	88 55 e7	 mov	 BYTE PTR __k$[ebp+3], dl
  00062	8a 50 04	 mov	 dl, BYTE PTR [eax+4]
  00065	84 d2		 test	 dl, dl
  00067	0f 84 72 01 00
	00		 je	 $LN92@LoadString@2
  0006d	80 f2 ed	 xor	 dl, -19			; ffffffedH
  00070	88 55 e8	 mov	 BYTE PTR __k$[ebp+4], dl
  00073	8a 50 05	 mov	 dl, BYTE PTR [eax+5]
  00076	84 d2		 test	 dl, dl
  00078	0f 84 5c 01 00
	00		 je	 $LN91@LoadString@2
  0007e	32 d1		 xor	 dl, cl
  00080	88 55 e9	 mov	 BYTE PTR __k$[ebp+5], dl
  00083	8a 50 06	 mov	 dl, BYTE PTR [eax+6]
  00086	84 d2		 test	 dl, dl
  00088	0f 84 46 01 00
	00		 je	 $LN90@LoadString@2
  0008e	80 f2 eb	 xor	 dl, -21			; ffffffebH
  00091	88 55 ea	 mov	 BYTE PTR __k$[ebp+6], dl
  00094	8a 50 07	 mov	 dl, BYTE PTR [eax+7]
  00097	84 d2		 test	 dl, dl
  00099	0f 84 2f 01 00
	00		 je	 $LN89@LoadString@2
  0009f	80 f2 ea	 xor	 dl, -22			; ffffffeaH
  000a2	88 55 eb	 mov	 BYTE PTR __k$[ebp+7], dl
  000a5	8a 50 08	 mov	 dl, BYTE PTR [eax+8]
  000a8	84 d2		 test	 dl, dl
  000aa	0f 84 18 01 00
	00		 je	 $LN88@LoadString@2
  000b0	80 f2 ed	 xor	 dl, -19			; ffffffedH
  000b3	88 55 ec	 mov	 BYTE PTR __k$[ebp+8], dl
  000b6	8a 50 09	 mov	 dl, BYTE PTR [eax+9]
  000b9	84 d2		 test	 dl, dl
  000bb	0f 84 02 01 00
	00		 je	 $LN87@LoadString@2
  000c1	32 d1		 xor	 dl, cl
  000c3	88 55 ed	 mov	 BYTE PTR __k$[ebp+9], dl
  000c6	8a 50 0a	 mov	 dl, BYTE PTR [eax+10]
  000c9	84 d2		 test	 dl, dl
  000cb	0f 84 ec 00 00
	00		 je	 $LN86@LoadString@2
  000d1	80 f2 eb	 xor	 dl, -21			; ffffffebH
  000d4	88 55 ee	 mov	 BYTE PTR __k$[ebp+10], dl
  000d7	8a 50 0b	 mov	 dl, BYTE PTR [eax+11]
  000da	84 d2		 test	 dl, dl
  000dc	0f 84 d5 00 00
	00		 je	 $LN85@LoadString@2
  000e2	80 f2 ea	 xor	 dl, -22			; ffffffeaH
  000e5	88 55 ef	 mov	 BYTE PTR __k$[ebp+11], dl
  000e8	8a 50 0c	 mov	 dl, BYTE PTR [eax+12]
  000eb	84 d2		 test	 dl, dl
  000ed	0f 84 be 00 00
	00		 je	 $LN84@LoadString@2
  000f3	80 f2 ed	 xor	 dl, -19			; ffffffedH
  000f6	88 55 f0	 mov	 BYTE PTR __k$[ebp+12], dl
  000f9	8a 50 0d	 mov	 dl, BYTE PTR [eax+13]
  000fc	84 d2		 test	 dl, dl
  000fe	0f 84 a8 00 00
	00		 je	 $LN83@LoadString@2
  00104	32 d1		 xor	 dl, cl
  00106	88 55 f1	 mov	 BYTE PTR __k$[ebp+13], dl
  00109	8a 50 0e	 mov	 dl, BYTE PTR [eax+14]
  0010c	84 d2		 test	 dl, dl
  0010e	0f 84 92 00 00
	00		 je	 $LN82@LoadString@2
  00114	80 f2 eb	 xor	 dl, -21			; ffffffebH
  00117	88 55 f2	 mov	 BYTE PTR __k$[ebp+14], dl
  0011a	8a 50 0f	 mov	 dl, BYTE PTR [eax+15]
  0011d	84 d2		 test	 dl, dl
  0011f	74 7f		 je	 SHORT $LN81@LoadString@2
  00121	80 f2 ea	 xor	 dl, -22			; ffffffeaH
  00124	88 55 f3	 mov	 BYTE PTR __k$[ebp+15], dl
  00127	8a 50 10	 mov	 dl, BYTE PTR [eax+16]
  0012a	84 d2		 test	 dl, dl
  0012c	74 6c		 je	 SHORT $LN80@LoadString@2
  0012e	80 f2 ed	 xor	 dl, -19			; ffffffedH
  00131	88 55 f4	 mov	 BYTE PTR __k$[ebp+16], dl
  00134	8a 50 11	 mov	 dl, BYTE PTR [eax+17]
  00137	84 d2		 test	 dl, dl
  00139	74 5a		 je	 SHORT $LN79@LoadString@2
  0013b	32 d1		 xor	 dl, cl
  0013d	80 78 12 00	 cmp	 BYTE PTR [eax+18], 0
  00141	88 55 f5	 mov	 BYTE PTR __k$[ebp+17], dl
  00144	0f 84 b1 00 00
	00		 je	 $LN111@LoadString@2
  0014a	8a 50 13	 mov	 dl, BYTE PTR [eax+19]
  0014d	84 d2		 test	 dl, dl
  0014f	74 3e		 je	 SHORT $LN77@LoadString@2
  00151	80 f2 ea	 xor	 dl, -22			; ffffffeaH
  00154	88 55 f7	 mov	 BYTE PTR __k$[ebp+19], dl
  00157	8a 50 14	 mov	 dl, BYTE PTR [eax+20]
  0015a	84 d2		 test	 dl, dl
  0015c	74 2b		 je	 SHORT $LN76@LoadString@2
  0015e	80 f2 ed	 xor	 dl, -19			; ffffffedH
  00161	88 55 f8	 mov	 BYTE PTR __k$[ebp+20], dl
  00164	8a 50 15	 mov	 dl, BYTE PTR [eax+21]
  00167	84 d2		 test	 dl, dl
  00169	74 19		 je	 SHORT $LN75@LoadString@2
  0016b	8a 40 16	 mov	 al, BYTE PTR [eax+22]
  0016e	32 d1		 xor	 dl, cl
  00170	88 55 f9	 mov	 BYTE PTR __k$[ebp+21], dl
  00173	84 c0		 test	 al, al
  00175	74 07		 je	 SHORT $LN74@LoadString@2
  00177	34 eb		 xor	 al, -21			; ffffffebH
  00179	88 45 fa	 mov	 BYTE PTR __k$[ebp+22], al
  0017c	eb 7d		 jmp	 SHORT $LN111@LoadString@2
$LN74@LoadString@2:
  0017e	c6 45 fa eb	 mov	 BYTE PTR __k$[ebp+22], -21 ; ffffffebH
  00182	eb 77		 jmp	 SHORT $LN111@LoadString@2
$LN75@LoadString@2:
  00184	88 4d f9	 mov	 BYTE PTR __k$[ebp+21], cl
  00187	eb 72		 jmp	 SHORT $LN111@LoadString@2
$LN76@LoadString@2:
  00189	c6 45 f8 ed	 mov	 BYTE PTR __k$[ebp+20], -19 ; ffffffedH
  0018d	eb 6c		 jmp	 SHORT $LN111@LoadString@2
$LN77@LoadString@2:
  0018f	c6 45 f7 ea	 mov	 BYTE PTR __k$[ebp+19], -22 ; ffffffeaH
  00193	eb 66		 jmp	 SHORT $LN111@LoadString@2
$LN79@LoadString@2:
  00195	88 4d f5	 mov	 BYTE PTR __k$[ebp+17], cl
  00198	eb 61		 jmp	 SHORT $LN111@LoadString@2
$LN80@LoadString@2:
  0019a	c6 45 f4 ed	 mov	 BYTE PTR __k$[ebp+16], -19 ; ffffffedH
  0019e	eb 5b		 jmp	 SHORT $LN111@LoadString@2
$LN81@LoadString@2:
  001a0	c6 45 f3 ea	 mov	 BYTE PTR __k$[ebp+15], -22 ; ffffffeaH
  001a4	eb 55		 jmp	 SHORT $LN111@LoadString@2
$LN82@LoadString@2:
  001a6	c6 45 f2 eb	 mov	 BYTE PTR __k$[ebp+14], -21 ; ffffffebH
  001aa	eb 4f		 jmp	 SHORT $LN111@LoadString@2
$LN83@LoadString@2:
  001ac	88 4d f1	 mov	 BYTE PTR __k$[ebp+13], cl
  001af	eb 4a		 jmp	 SHORT $LN111@LoadString@2
$LN84@LoadString@2:
  001b1	c6 45 f0 ed	 mov	 BYTE PTR __k$[ebp+12], -19 ; ffffffedH
  001b5	eb 44		 jmp	 SHORT $LN111@LoadString@2
$LN85@LoadString@2:
  001b7	c6 45 ef ea	 mov	 BYTE PTR __k$[ebp+11], -22 ; ffffffeaH
  001bb	eb 3e		 jmp	 SHORT $LN111@LoadString@2
$LN86@LoadString@2:
  001bd	c6 45 ee eb	 mov	 BYTE PTR __k$[ebp+10], -21 ; ffffffebH
  001c1	eb 38		 jmp	 SHORT $LN111@LoadString@2
$LN87@LoadString@2:
  001c3	88 4d ed	 mov	 BYTE PTR __k$[ebp+9], cl
  001c6	eb 33		 jmp	 SHORT $LN111@LoadString@2
$LN88@LoadString@2:
  001c8	c6 45 ec ed	 mov	 BYTE PTR __k$[ebp+8], -19 ; ffffffedH
  001cc	eb 2d		 jmp	 SHORT $LN111@LoadString@2
$LN89@LoadString@2:
  001ce	c6 45 eb ea	 mov	 BYTE PTR __k$[ebp+7], -22 ; ffffffeaH
  001d2	eb 27		 jmp	 SHORT $LN111@LoadString@2
$LN90@LoadString@2:
  001d4	c6 45 ea eb	 mov	 BYTE PTR __k$[ebp+6], -21 ; ffffffebH
  001d8	eb 21		 jmp	 SHORT $LN111@LoadString@2
$LN91@LoadString@2:
  001da	88 4d e9	 mov	 BYTE PTR __k$[ebp+5], cl
  001dd	eb 1c		 jmp	 SHORT $LN111@LoadString@2
$LN92@LoadString@2:
  001df	c6 45 e8 ed	 mov	 BYTE PTR __k$[ebp+4], -19 ; ffffffedH
  001e3	eb 16		 jmp	 SHORT $LN111@LoadString@2
$LN93@LoadString@2:
  001e5	c6 45 e7 ea	 mov	 BYTE PTR __k$[ebp+3], -22 ; ffffffeaH
  001e9	eb 10		 jmp	 SHORT $LN111@LoadString@2
$LN94@LoadString@2:
  001eb	c6 45 e6 eb	 mov	 BYTE PTR __k$[ebp+2], -21 ; ffffffebH
  001ef	eb 0a		 jmp	 SHORT $LN111@LoadString@2
$LN95@LoadString@2:
  001f1	c6 45 e5 ec	 mov	 BYTE PTR __k$[ebp+1], -20 ; ffffffecH
  001f5	eb 04		 jmp	 SHORT $LN111@LoadString@2
$LN96@LoadString@2:
  001f7	c6 45 e4 ed	 mov	 BYTE PTR __k$[ebp], -19	; ffffffedH
$LN111@LoadString@2:
  001fb	6a 04		 push	 4
  001fd	8d 45 e4	 lea	 eax, DWORD PTR __k$[ebp]
  00200	c6 45 f6 00	 mov	 BYTE PTR __k$[ebp+18], 0
  00204	5a		 pop	 edx
$LL104@LoadString@2:
  00205	81 30 ed ec eb
	ea		 xor	 DWORD PTR [eax], -353637139 ; eaebecedH
  0020b	83 c0 04	 add	 eax, 4
  0020e	4a		 dec	 edx
  0020f	75 f4		 jne	 SHORT $LL104@LoadString@2
  00211	6a 10		 push	 16			; 00000010H
  00213	58		 pop	 eax
$LL101@LoadString@2:
  00214	8b c8		 mov	 ecx, eax
  00216	81 e1 03 00 00
	80		 and	 ecx, -2147483645	; 80000003H
  0021c	79 05		 jns	 SHORT $LN112@LoadString@2
  0021e	49		 dec	 ecx
  0021f	83 c9 fc	 or	 ecx, -4			; fffffffcH
  00222	41		 inc	 ecx
$LN112@LoadString@2:
  00223	b2 ed		 mov	 dl, -19			; ffffffedH
  00225	2a d1		 sub	 dl, cl
  00227	30 54 05 e4	 xor	 BYTE PTR __k$[ebp+eax], dl
  0022b	40		 inc	 eax
  0022c	83 f8 12	 cmp	 eax, 18			; 00000012H
  0022f	7c e3		 jl	 SHORT $LL101@LoadString@2

; 163  : 		LoadString(_k, d, b, i);

  00231	ff 75 14	 push	 DWORD PTR _i$[ebp]
  00234	8b 4d e0	 mov	 ecx, DWORD PTR _this$GSCopy$[ebp]
  00237	57		 push	 edi
  00238	56		 push	 esi
  00239	8d 45 e4	 lea	 eax, DWORD PTR __k$[ebp]
  0023c	50		 push	 eax
  0023d	ff 15 00 00 00
	00		 call	 DWORD PTR __imp_?LoadStringA@ioINILoader@@QAEXPBD0PADH@Z

; 164  : 	}

  00243	8b 4d fc	 mov	 ecx, DWORD PTR __$ArrayPad$[ebp]
  00246	5f		 pop	 edi
  00247	33 cd		 xor	 ecx, ebp
  00249	5e		 pop	 esi
  0024a	e8 00 00 00 00	 call	 @__security_check_cookie@4
  0024f	c9		 leave
  00250	c2 10 00	 ret	 16			; 00000010H
??$LoadString_e@$0BD@@ioINILoader@@QAEXAAY0BD@$$CBDAAY00$$CBDPADH@Z ENDP ; ioINILoader::LoadString_e<19>
_TEXT	ENDS
PUBLIC	__$ArrayPad$
PUBLIC	??$LoadFloat_e@$0BI@@ioINILoader@@QAEMAAY0BI@$$CBDM@Z ; ioINILoader::LoadFloat_e<24>
EXTRN	__imp_?LoadFloat@ioINILoader@@QAEMPBDM@Z:PROC
; Function compile flags: /Ogsp
;	COMDAT ??$LoadFloat_e@$0BI@@ioINILoader@@QAEMAAY0BI@$$CBDM@Z
_TEXT	SEGMENT
__k$ = -32						; size = 24
__$ArrayPad$ = -4					; size = 4
_k$ = 8							; size = 4
_f$ = 12						; size = 4
??$LoadFloat_e@$0BI@@ioINILoader@@QAEMAAY0BI@$$CBDM@Z PROC ; ioINILoader::LoadFloat_e<24>, COMDAT
; _this$ = ecx

; 135  : 	{

  00000	55		 push	 ebp
  00001	8b ec		 mov	 ebp, esp
  00003	83 ec 20	 sub	 esp, 32			; 00000020H
  00006	a1 00 00 00 00	 mov	 eax, DWORD PTR ___security_cookie
  0000b	33 c5		 xor	 eax, ebp
  0000d	89 45 fc	 mov	 DWORD PTR __$ArrayPad$[ebp], eax
  00010	8b 45 08	 mov	 eax, DWORD PTR _k$[ebp]

; 136  : 		_ENCSTR(k, _k);

  00013	8a 10		 mov	 dl, BYTE PTR [eax]
  00015	53		 push	 ebx
  00016	56		 push	 esi
  00017	8b f1		 mov	 esi, ecx
  00019	84 d2		 test	 dl, dl
  0001b	0f 84 45 02 00
	00		 je	 $LN96@LoadFloat_
  00021	80 f2 ed	 xor	 dl, -19			; ffffffedH
  00024	88 55 e0	 mov	 BYTE PTR __k$[ebp], dl
  00027	8a 50 01	 mov	 dl, BYTE PTR [eax+1]
  0002a	84 d2		 test	 dl, dl
  0002c	0f 84 2e 02 00
	00		 je	 $LN95@LoadFloat_
  00032	b3 ec		 mov	 bl, -20			; ffffffecH
  00034	32 d3		 xor	 dl, bl
  00036	88 55 e1	 mov	 BYTE PTR __k$[ebp+1], dl
  00039	8a 50 02	 mov	 dl, BYTE PTR [eax+2]
  0003c	84 d2		 test	 dl, dl
  0003e	0f 84 16 02 00
	00		 je	 $LN94@LoadFloat_
  00044	b1 eb		 mov	 cl, -21			; ffffffebH
  00046	32 d1		 xor	 dl, cl
  00048	88 55 e2	 mov	 BYTE PTR __k$[ebp+2], dl
  0004b	8a 50 03	 mov	 dl, BYTE PTR [eax+3]
  0004e	84 d2		 test	 dl, dl
  00050	0f 84 fe 01 00
	00		 je	 $LN93@LoadFloat_
  00056	80 f2 ea	 xor	 dl, -22			; ffffffeaH
  00059	88 55 e3	 mov	 BYTE PTR __k$[ebp+3], dl
  0005c	8a 50 04	 mov	 dl, BYTE PTR [eax+4]
  0005f	84 d2		 test	 dl, dl
  00061	0f 84 e7 01 00
	00		 je	 $LN92@LoadFloat_
  00067	80 f2 ed	 xor	 dl, -19			; ffffffedH
  0006a	88 55 e4	 mov	 BYTE PTR __k$[ebp+4], dl
  0006d	8a 50 05	 mov	 dl, BYTE PTR [eax+5]
  00070	84 d2		 test	 dl, dl
  00072	0f 84 d1 01 00
	00		 je	 $LN91@LoadFloat_
  00078	32 d3		 xor	 dl, bl
  0007a	88 55 e5	 mov	 BYTE PTR __k$[ebp+5], dl
  0007d	8a 50 06	 mov	 dl, BYTE PTR [eax+6]
  00080	84 d2		 test	 dl, dl
  00082	0f 84 bc 01 00
	00		 je	 $LN90@LoadFloat_
  00088	32 d1		 xor	 dl, cl
  0008a	88 55 e6	 mov	 BYTE PTR __k$[ebp+6], dl
  0008d	8a 50 07	 mov	 dl, BYTE PTR [eax+7]
  00090	84 d2		 test	 dl, dl
  00092	0f 84 a6 01 00
	00		 je	 $LN89@LoadFloat_
  00098	80 f2 ea	 xor	 dl, -22			; ffffffeaH
  0009b	88 55 e7	 mov	 BYTE PTR __k$[ebp+7], dl
  0009e	8a 50 08	 mov	 dl, BYTE PTR [eax+8]
  000a1	84 d2		 test	 dl, dl
  000a3	0f 84 8f 01 00
	00		 je	 $LN88@LoadFloat_
  000a9	80 f2 ed	 xor	 dl, -19			; ffffffedH
  000ac	88 55 e8	 mov	 BYTE PTR __k$[ebp+8], dl
  000af	8a 50 09	 mov	 dl, BYTE PTR [eax+9]
  000b2	84 d2		 test	 dl, dl
  000b4	0f 84 79 01 00
	00		 je	 $LN87@LoadFloat_
  000ba	32 d3		 xor	 dl, bl
  000bc	88 55 e9	 mov	 BYTE PTR __k$[ebp+9], dl
  000bf	8a 50 0a	 mov	 dl, BYTE PTR [eax+10]
  000c2	84 d2		 test	 dl, dl
  000c4	0f 84 64 01 00
	00		 je	 $LN86@LoadFloat_
  000ca	32 d1		 xor	 dl, cl
  000cc	88 55 ea	 mov	 BYTE PTR __k$[ebp+10], dl
  000cf	8a 50 0b	 mov	 dl, BYTE PTR [eax+11]
  000d2	84 d2		 test	 dl, dl
  000d4	0f 84 4e 01 00
	00		 je	 $LN85@LoadFloat_
  000da	80 f2 ea	 xor	 dl, -22			; ffffffeaH
  000dd	88 55 eb	 mov	 BYTE PTR __k$[ebp+11], dl
  000e0	8a 50 0c	 mov	 dl, BYTE PTR [eax+12]
  000e3	84 d2		 test	 dl, dl
  000e5	0f 84 37 01 00
	00		 je	 $LN84@LoadFloat_
  000eb	80 f2 ed	 xor	 dl, -19			; ffffffedH
  000ee	88 55 ec	 mov	 BYTE PTR __k$[ebp+12], dl
  000f1	8a 50 0d	 mov	 dl, BYTE PTR [eax+13]
  000f4	84 d2		 test	 dl, dl
  000f6	0f 84 21 01 00
	00		 je	 $LN83@LoadFloat_
  000fc	32 d3		 xor	 dl, bl
  000fe	88 55 ed	 mov	 BYTE PTR __k$[ebp+13], dl
  00101	8a 50 0e	 mov	 dl, BYTE PTR [eax+14]
  00104	84 d2		 test	 dl, dl
  00106	0f 84 0c 01 00
	00		 je	 $LN82@LoadFloat_
  0010c	32 d1		 xor	 dl, cl
  0010e	88 55 ee	 mov	 BYTE PTR __k$[ebp+14], dl
  00111	8a 50 0f	 mov	 dl, BYTE PTR [eax+15]
  00114	84 d2		 test	 dl, dl
  00116	0f 84 f6 00 00
	00		 je	 $LN81@LoadFloat_
  0011c	80 f2 ea	 xor	 dl, -22			; ffffffeaH
  0011f	88 55 ef	 mov	 BYTE PTR __k$[ebp+15], dl
  00122	8a 50 10	 mov	 dl, BYTE PTR [eax+16]
  00125	84 d2		 test	 dl, dl
  00127	0f 84 df 00 00
	00		 je	 $LN80@LoadFloat_
  0012d	80 f2 ed	 xor	 dl, -19			; ffffffedH
  00130	88 55 f0	 mov	 BYTE PTR __k$[ebp+16], dl
  00133	8a 50 11	 mov	 dl, BYTE PTR [eax+17]
  00136	84 d2		 test	 dl, dl
  00138	0f 84 c9 00 00
	00		 je	 $LN79@LoadFloat_
  0013e	32 d3		 xor	 dl, bl
  00140	88 55 f1	 mov	 BYTE PTR __k$[ebp+17], dl
  00143	8a 50 12	 mov	 dl, BYTE PTR [eax+18]
  00146	84 d2		 test	 dl, dl
  00148	0f 84 b4 00 00
	00		 je	 $LN78@LoadFloat_
  0014e	32 d1		 xor	 dl, cl
  00150	88 55 f2	 mov	 BYTE PTR __k$[ebp+18], dl
  00153	8a 50 13	 mov	 dl, BYTE PTR [eax+19]
  00156	84 d2		 test	 dl, dl
  00158	0f 84 9e 00 00
	00		 je	 $LN77@LoadFloat_
  0015e	80 f2 ea	 xor	 dl, -22			; ffffffeaH
  00161	88 55 f3	 mov	 BYTE PTR __k$[ebp+19], dl
  00164	8a 50 14	 mov	 dl, BYTE PTR [eax+20]
  00167	84 d2		 test	 dl, dl
  00169	0f 84 87 00 00
	00		 je	 $LN76@LoadFloat_
  0016f	80 f2 ed	 xor	 dl, -19			; ffffffedH
  00172	88 55 f4	 mov	 BYTE PTR __k$[ebp+20], dl
  00175	8a 50 15	 mov	 dl, BYTE PTR [eax+21]
  00178	84 d2		 test	 dl, dl
  0017a	74 75		 je	 SHORT $LN75@LoadFloat_
  0017c	32 d3		 xor	 dl, bl
  0017e	88 55 f5	 mov	 BYTE PTR __k$[ebp+21], dl
  00181	8a 50 16	 mov	 dl, BYTE PTR [eax+22]
  00184	84 d2		 test	 dl, dl
  00186	74 64		 je	 SHORT $LN74@LoadFloat_
  00188	32 d1		 xor	 dl, cl
  0018a	80 78 17 00	 cmp	 BYTE PTR [eax+23], 0
  0018e	88 55 f6	 mov	 BYTE PTR __k$[ebp+22], dl
  00191	0f 84 d3 00 00
	00		 je	 $LN1@LoadFloat_
  00197	8a 50 18	 mov	 dl, BYTE PTR [eax+24]
  0019a	84 d2		 test	 dl, dl
  0019c	74 48		 je	 SHORT $LN72@LoadFloat_
  0019e	80 f2 ed	 xor	 dl, -19			; ffffffedH
  001a1	88 55 f8	 mov	 BYTE PTR __k$[ebp+24], dl
  001a4	8a 50 19	 mov	 dl, BYTE PTR [eax+25]
  001a7	84 d2		 test	 dl, dl
  001a9	74 33		 je	 SHORT $LN71@LoadFloat_
  001ab	32 d3		 xor	 dl, bl
  001ad	88 55 f9	 mov	 BYTE PTR __k$[ebp+25], dl
  001b0	8a 50 1a	 mov	 dl, BYTE PTR [eax+26]
  001b3	84 d2		 test	 dl, dl
  001b5	74 1f		 je	 SHORT $LN70@LoadFloat_
  001b7	8a 40 1b	 mov	 al, BYTE PTR [eax+27]
  001ba	32 d1		 xor	 dl, cl
  001bc	88 55 fa	 mov	 BYTE PTR __k$[ebp+26], dl
  001bf	84 c0		 test	 al, al
  001c1	74 0a		 je	 SHORT $LN69@LoadFloat_
  001c3	34 ea		 xor	 al, -22			; ffffffeaH
  001c5	88 45 fb	 mov	 BYTE PTR __k$[ebp+27], al
  001c8	e9 9d 00 00 00	 jmp	 $LN1@LoadFloat_
$LN69@LoadFloat_:
  001cd	c6 45 fb ea	 mov	 BYTE PTR __k$[ebp+27], -22 ; ffffffeaH
  001d1	e9 94 00 00 00	 jmp	 $LN1@LoadFloat_
$LN70@LoadFloat_:
  001d6	88 4d fa	 mov	 BYTE PTR __k$[ebp+26], cl
  001d9	e9 8c 00 00 00	 jmp	 $LN1@LoadFloat_
$LN71@LoadFloat_:
  001de	88 5d f9	 mov	 BYTE PTR __k$[ebp+25], bl
  001e1	e9 84 00 00 00	 jmp	 $LN1@LoadFloat_
$LN72@LoadFloat_:
  001e6	c6 45 f8 ed	 mov	 BYTE PTR __k$[ebp+24], -19 ; ffffffedH
  001ea	eb 7e		 jmp	 SHORT $LN1@LoadFloat_
$LN74@LoadFloat_:
  001ec	88 4d f6	 mov	 BYTE PTR __k$[ebp+22], cl
  001ef	eb 79		 jmp	 SHORT $LN1@LoadFloat_
$LN75@LoadFloat_:
  001f1	88 5d f5	 mov	 BYTE PTR __k$[ebp+21], bl
  001f4	eb 74		 jmp	 SHORT $LN1@LoadFloat_
$LN76@LoadFloat_:
  001f6	c6 45 f4 ed	 mov	 BYTE PTR __k$[ebp+20], -19 ; ffffffedH
  001fa	eb 6e		 jmp	 SHORT $LN1@LoadFloat_
$LN77@LoadFloat_:
  001fc	c6 45 f3 ea	 mov	 BYTE PTR __k$[ebp+19], -22 ; ffffffeaH
  00200	eb 68		 jmp	 SHORT $LN1@LoadFloat_
$LN78@LoadFloat_:
  00202	88 4d f2	 mov	 BYTE PTR __k$[ebp+18], cl
  00205	eb 63		 jmp	 SHORT $LN1@LoadFloat_
$LN79@LoadFloat_:
  00207	88 5d f1	 mov	 BYTE PTR __k$[ebp+17], bl
  0020a	eb 5e		 jmp	 SHORT $LN1@LoadFloat_
$LN80@LoadFloat_:
  0020c	c6 45 f0 ed	 mov	 BYTE PTR __k$[ebp+16], -19 ; ffffffedH
  00210	eb 58		 jmp	 SHORT $LN1@LoadFloat_
$LN81@LoadFloat_:
  00212	c6 45 ef ea	 mov	 BYTE PTR __k$[ebp+15], -22 ; ffffffeaH
  00216	eb 52		 jmp	 SHORT $LN1@LoadFloat_
$LN82@LoadFloat_:
  00218	88 4d ee	 mov	 BYTE PTR __k$[ebp+14], cl
  0021b	eb 4d		 jmp	 SHORT $LN1@LoadFloat_
$LN83@LoadFloat_:
  0021d	88 5d ed	 mov	 BYTE PTR __k$[ebp+13], bl
  00220	eb 48		 jmp	 SHORT $LN1@LoadFloat_
$LN84@LoadFloat_:
  00222	c6 45 ec ed	 mov	 BYTE PTR __k$[ebp+12], -19 ; ffffffedH
  00226	eb 42		 jmp	 SHORT $LN1@LoadFloat_
$LN85@LoadFloat_:
  00228	c6 45 eb ea	 mov	 BYTE PTR __k$[ebp+11], -22 ; ffffffeaH
  0022c	eb 3c		 jmp	 SHORT $LN1@LoadFloat_
$LN86@LoadFloat_:
  0022e	88 4d ea	 mov	 BYTE PTR __k$[ebp+10], cl
  00231	eb 37		 jmp	 SHORT $LN1@LoadFloat_
$LN87@LoadFloat_:
  00233	88 5d e9	 mov	 BYTE PTR __k$[ebp+9], bl
  00236	eb 32		 jmp	 SHORT $LN1@LoadFloat_
$LN88@LoadFloat_:
  00238	c6 45 e8 ed	 mov	 BYTE PTR __k$[ebp+8], -19 ; ffffffedH
  0023c	eb 2c		 jmp	 SHORT $LN1@LoadFloat_
$LN89@LoadFloat_:
  0023e	c6 45 e7 ea	 mov	 BYTE PTR __k$[ebp+7], -22 ; ffffffeaH
  00242	eb 26		 jmp	 SHORT $LN1@LoadFloat_
$LN90@LoadFloat_:
  00244	88 4d e6	 mov	 BYTE PTR __k$[ebp+6], cl
  00247	eb 21		 jmp	 SHORT $LN1@LoadFloat_
$LN91@LoadFloat_:
  00249	88 5d e5	 mov	 BYTE PTR __k$[ebp+5], bl
  0024c	eb 1c		 jmp	 SHORT $LN1@LoadFloat_
$LN92@LoadFloat_:
  0024e	c6 45 e4 ed	 mov	 BYTE PTR __k$[ebp+4], -19 ; ffffffedH
  00252	eb 16		 jmp	 SHORT $LN1@LoadFloat_
$LN93@LoadFloat_:
  00254	c6 45 e3 ea	 mov	 BYTE PTR __k$[ebp+3], -22 ; ffffffeaH
  00258	eb 10		 jmp	 SHORT $LN1@LoadFloat_
$LN94@LoadFloat_:
  0025a	c6 45 e2 eb	 mov	 BYTE PTR __k$[ebp+2], -21 ; ffffffebH
  0025e	eb 0a		 jmp	 SHORT $LN1@LoadFloat_
$LN95@LoadFloat_:
  00260	c6 45 e1 ec	 mov	 BYTE PTR __k$[ebp+1], -20 ; ffffffecH
  00264	eb 04		 jmp	 SHORT $LN1@LoadFloat_
$LN96@LoadFloat_:
  00266	c6 45 e0 ed	 mov	 BYTE PTR __k$[ebp], -19	; ffffffedH
$LN1@LoadFloat_:
  0026a	6a 05		 push	 5
  0026c	8d 45 e0	 lea	 eax, DWORD PTR __k$[ebp]
  0026f	c6 45 f7 00	 mov	 BYTE PTR __k$[ebp+23], 0
  00273	5a		 pop	 edx
$LL104@LoadFloat_:
  00274	81 30 ed ec eb
	ea		 xor	 DWORD PTR [eax], -353637139 ; eaebecedH
  0027a	83 c0 04	 add	 eax, 4
  0027d	4a		 dec	 edx
  0027e	75 f4		 jne	 SHORT $LL104@LoadFloat_
  00280	6a 14		 push	 20			; 00000014H
  00282	58		 pop	 eax
$LL101@LoadFloat_:
  00283	8b c8		 mov	 ecx, eax
  00285	81 e1 03 00 00
	80		 and	 ecx, -2147483645	; 80000003H
  0028b	79 05		 jns	 SHORT $LN111@LoadFloat_
  0028d	49		 dec	 ecx
  0028e	83 c9 fc	 or	 ecx, -4			; fffffffcH
  00291	41		 inc	 ecx
$LN111@LoadFloat_:
  00292	b2 ed		 mov	 dl, -19			; ffffffedH
  00294	2a d1		 sub	 dl, cl
  00296	30 54 05 e0	 xor	 BYTE PTR __k$[ebp+eax], dl
  0029a	40		 inc	 eax
  0029b	83 f8 17	 cmp	 eax, 23			; 00000017H
  0029e	7c e3		 jl	 SHORT $LL101@LoadFloat_

; 137  : 		return LoadFloat(_k, f);

  002a0	f3 0f 10 45 0c	 movss	 xmm0, DWORD PTR _f$[ebp]
  002a5	51		 push	 ecx
  002a6	8d 45 e0	 lea	 eax, DWORD PTR __k$[ebp]
  002a9	f3 0f 11 04 24	 movss	 DWORD PTR [esp], xmm0
  002ae	50		 push	 eax
  002af	8b ce		 mov	 ecx, esi
  002b1	ff 15 00 00 00
	00		 call	 DWORD PTR __imp_?LoadFloat@ioINILoader@@QAEMPBDM@Z

; 138  : 	}

  002b7	8b 4d fc	 mov	 ecx, DWORD PTR __$ArrayPad$[ebp]
  002ba	5e		 pop	 esi
  002bb	33 cd		 xor	 ecx, ebp
  002bd	5b		 pop	 ebx
  002be	e8 00 00 00 00	 call	 @__security_check_cookie@4
  002c3	c9		 leave
  002c4	c2 08 00	 ret	 8
??$LoadFloat_e@$0BI@@ioINILoader@@QAEMAAY0BI@$$CBDM@Z ENDP ; ioINILoader::LoadFloat_e<24>
_TEXT	ENDS
PUBLIC	__$ArrayPad$
PUBLIC	??$LoadInt_e@$0BI@@ioINILoader@@QAEHAAY0BI@$$CBDH@Z ; ioINILoader::LoadInt_e<24>
EXTRN	__imp_?LoadInt@ioINILoader@@QAEHPBDH@Z:PROC
; Function compile flags: /Ogsp
;	COMDAT ??$LoadInt_e@$0BI@@ioINILoader@@QAEHAAY0BI@$$CBDH@Z
_TEXT	SEGMENT
__k$ = -32						; size = 24
__$ArrayPad$ = -4					; size = 4
_k$ = 8							; size = 4
_i$ = 12						; size = 4
??$LoadInt_e@$0BI@@ioINILoader@@QAEHAAY0BI@$$CBDH@Z PROC ; ioINILoader::LoadInt_e<24>, COMDAT
; _this$ = ecx

; 118  : 	{

  00000	55		 push	 ebp
  00001	8b ec		 mov	 ebp, esp
  00003	83 ec 20	 sub	 esp, 32			; 00000020H
  00006	a1 00 00 00 00	 mov	 eax, DWORD PTR ___security_cookie
  0000b	33 c5		 xor	 eax, ebp
  0000d	89 45 fc	 mov	 DWORD PTR __$ArrayPad$[ebp], eax
  00010	8b 45 08	 mov	 eax, DWORD PTR _k$[ebp]

; 119  : 		_ENCSTR(k, _k);

  00013	8a 10		 mov	 dl, BYTE PTR [eax]
  00015	53		 push	 ebx
  00016	56		 push	 esi
  00017	8b f1		 mov	 esi, ecx
  00019	84 d2		 test	 dl, dl
  0001b	0f 84 45 02 00
	00		 je	 $LN96@LoadInt_e
  00021	80 f2 ed	 xor	 dl, -19			; ffffffedH
  00024	88 55 e0	 mov	 BYTE PTR __k$[ebp], dl
  00027	8a 50 01	 mov	 dl, BYTE PTR [eax+1]
  0002a	84 d2		 test	 dl, dl
  0002c	0f 84 2e 02 00
	00		 je	 $LN95@LoadInt_e
  00032	b3 ec		 mov	 bl, -20			; ffffffecH
  00034	32 d3		 xor	 dl, bl
  00036	88 55 e1	 mov	 BYTE PTR __k$[ebp+1], dl
  00039	8a 50 02	 mov	 dl, BYTE PTR [eax+2]
  0003c	84 d2		 test	 dl, dl
  0003e	0f 84 16 02 00
	00		 je	 $LN94@LoadInt_e
  00044	b1 eb		 mov	 cl, -21			; ffffffebH
  00046	32 d1		 xor	 dl, cl
  00048	88 55 e2	 mov	 BYTE PTR __k$[ebp+2], dl
  0004b	8a 50 03	 mov	 dl, BYTE PTR [eax+3]
  0004e	84 d2		 test	 dl, dl
  00050	0f 84 fe 01 00
	00		 je	 $LN93@LoadInt_e
  00056	80 f2 ea	 xor	 dl, -22			; ffffffeaH
  00059	88 55 e3	 mov	 BYTE PTR __k$[ebp+3], dl
  0005c	8a 50 04	 mov	 dl, BYTE PTR [eax+4]
  0005f	84 d2		 test	 dl, dl
  00061	0f 84 e7 01 00
	00		 je	 $LN92@LoadInt_e
  00067	80 f2 ed	 xor	 dl, -19			; ffffffedH
  0006a	88 55 e4	 mov	 BYTE PTR __k$[ebp+4], dl
  0006d	8a 50 05	 mov	 dl, BYTE PTR [eax+5]
  00070	84 d2		 test	 dl, dl
  00072	0f 84 d1 01 00
	00		 je	 $LN91@LoadInt_e
  00078	32 d3		 xor	 dl, bl
  0007a	88 55 e5	 mov	 BYTE PTR __k$[ebp+5], dl
  0007d	8a 50 06	 mov	 dl, BYTE PTR [eax+6]
  00080	84 d2		 test	 dl, dl
  00082	0f 84 bc 01 00
	00		 je	 $LN90@LoadInt_e
  00088	32 d1		 xor	 dl, cl
  0008a	88 55 e6	 mov	 BYTE PTR __k$[ebp+6], dl
  0008d	8a 50 07	 mov	 dl, BYTE PTR [eax+7]
  00090	84 d2		 test	 dl, dl
  00092	0f 84 a6 01 00
	00		 je	 $LN89@LoadInt_e
  00098	80 f2 ea	 xor	 dl, -22			; ffffffeaH
  0009b	88 55 e7	 mov	 BYTE PTR __k$[ebp+7], dl
  0009e	8a 50 08	 mov	 dl, BYTE PTR [eax+8]
  000a1	84 d2		 test	 dl, dl
  000a3	0f 84 8f 01 00
	00		 je	 $LN88@LoadInt_e
  000a9	80 f2 ed	 xor	 dl, -19			; ffffffedH
  000ac	88 55 e8	 mov	 BYTE PTR __k$[ebp+8], dl
  000af	8a 50 09	 mov	 dl, BYTE PTR [eax+9]
  000b2	84 d2		 test	 dl, dl
  000b4	0f 84 79 01 00
	00		 je	 $LN87@LoadInt_e
  000ba	32 d3		 xor	 dl, bl
  000bc	88 55 e9	 mov	 BYTE PTR __k$[ebp+9], dl
  000bf	8a 50 0a	 mov	 dl, BYTE PTR [eax+10]
  000c2	84 d2		 test	 dl, dl
  000c4	0f 84 64 01 00
	00		 je	 $LN86@LoadInt_e
  000ca	32 d1		 xor	 dl, cl
  000cc	88 55 ea	 mov	 BYTE PTR __k$[ebp+10], dl
  000cf	8a 50 0b	 mov	 dl, BYTE PTR [eax+11]
  000d2	84 d2		 test	 dl, dl
  000d4	0f 84 4e 01 00
	00		 je	 $LN85@LoadInt_e
  000da	80 f2 ea	 xor	 dl, -22			; ffffffeaH
  000dd	88 55 eb	 mov	 BYTE PTR __k$[ebp+11], dl
  000e0	8a 50 0c	 mov	 dl, BYTE PTR [eax+12]
  000e3	84 d2		 test	 dl, dl
  000e5	0f 84 37 01 00
	00		 je	 $LN84@LoadInt_e
  000eb	80 f2 ed	 xor	 dl, -19			; ffffffedH
  000ee	88 55 ec	 mov	 BYTE PTR __k$[ebp+12], dl
  000f1	8a 50 0d	 mov	 dl, BYTE PTR [eax+13]
  000f4	84 d2		 test	 dl, dl
  000f6	0f 84 21 01 00
	00		 je	 $LN83@LoadInt_e
  000fc	32 d3		 xor	 dl, bl
  000fe	88 55 ed	 mov	 BYTE PTR __k$[ebp+13], dl
  00101	8a 50 0e	 mov	 dl, BYTE PTR [eax+14]
  00104	84 d2		 test	 dl, dl
  00106	0f 84 0c 01 00
	00		 je	 $LN82@LoadInt_e
  0010c	32 d1		 xor	 dl, cl
  0010e	88 55 ee	 mov	 BYTE PTR __k$[ebp+14], dl
  00111	8a 50 0f	 mov	 dl, BYTE PTR [eax+15]
  00114	84 d2		 test	 dl, dl
  00116	0f 84 f6 00 00
	00		 je	 $LN81@LoadInt_e
  0011c	80 f2 ea	 xor	 dl, -22			; ffffffeaH
  0011f	88 55 ef	 mov	 BYTE PTR __k$[ebp+15], dl
  00122	8a 50 10	 mov	 dl, BYTE PTR [eax+16]
  00125	84 d2		 test	 dl, dl
  00127	0f 84 df 00 00
	00		 je	 $LN80@LoadInt_e
  0012d	80 f2 ed	 xor	 dl, -19			; ffffffedH
  00130	88 55 f0	 mov	 BYTE PTR __k$[ebp+16], dl
  00133	8a 50 11	 mov	 dl, BYTE PTR [eax+17]
  00136	84 d2		 test	 dl, dl
  00138	0f 84 c9 00 00
	00		 je	 $LN79@LoadInt_e
  0013e	32 d3		 xor	 dl, bl
  00140	88 55 f1	 mov	 BYTE PTR __k$[ebp+17], dl
  00143	8a 50 12	 mov	 dl, BYTE PTR [eax+18]
  00146	84 d2		 test	 dl, dl
  00148	0f 84 b4 00 00
	00		 je	 $LN78@LoadInt_e
  0014e	32 d1		 xor	 dl, cl
  00150	88 55 f2	 mov	 BYTE PTR __k$[ebp+18], dl
  00153	8a 50 13	 mov	 dl, BYTE PTR [eax+19]
  00156	84 d2		 test	 dl, dl
  00158	0f 84 9e 00 00
	00		 je	 $LN77@LoadInt_e
  0015e	80 f2 ea	 xor	 dl, -22			; ffffffeaH
  00161	88 55 f3	 mov	 BYTE PTR __k$[ebp+19], dl
  00164	8a 50 14	 mov	 dl, BYTE PTR [eax+20]
  00167	84 d2		 test	 dl, dl
  00169	0f 84 87 00 00
	00		 je	 $LN76@LoadInt_e
  0016f	80 f2 ed	 xor	 dl, -19			; ffffffedH
  00172	88 55 f4	 mov	 BYTE PTR __k$[ebp+20], dl
  00175	8a 50 15	 mov	 dl, BYTE PTR [eax+21]
  00178	84 d2		 test	 dl, dl
  0017a	74 75		 je	 SHORT $LN75@LoadInt_e
  0017c	32 d3		 xor	 dl, bl
  0017e	88 55 f5	 mov	 BYTE PTR __k$[ebp+21], dl
  00181	8a 50 16	 mov	 dl, BYTE PTR [eax+22]
  00184	84 d2		 test	 dl, dl
  00186	74 64		 je	 SHORT $LN74@LoadInt_e
  00188	32 d1		 xor	 dl, cl
  0018a	80 78 17 00	 cmp	 BYTE PTR [eax+23], 0
  0018e	88 55 f6	 mov	 BYTE PTR __k$[ebp+22], dl
  00191	0f 84 d3 00 00
	00		 je	 $LN1@LoadInt_e
  00197	8a 50 18	 mov	 dl, BYTE PTR [eax+24]
  0019a	84 d2		 test	 dl, dl
  0019c	74 48		 je	 SHORT $LN72@LoadInt_e
  0019e	80 f2 ed	 xor	 dl, -19			; ffffffedH
  001a1	88 55 f8	 mov	 BYTE PTR __k$[ebp+24], dl
  001a4	8a 50 19	 mov	 dl, BYTE PTR [eax+25]
  001a7	84 d2		 test	 dl, dl
  001a9	74 33		 je	 SHORT $LN71@LoadInt_e
  001ab	32 d3		 xor	 dl, bl
  001ad	88 55 f9	 mov	 BYTE PTR __k$[ebp+25], dl
  001b0	8a 50 1a	 mov	 dl, BYTE PTR [eax+26]
  001b3	84 d2		 test	 dl, dl
  001b5	74 1f		 je	 SHORT $LN70@LoadInt_e
  001b7	8a 40 1b	 mov	 al, BYTE PTR [eax+27]
  001ba	32 d1		 xor	 dl, cl
  001bc	88 55 fa	 mov	 BYTE PTR __k$[ebp+26], dl
  001bf	84 c0		 test	 al, al
  001c1	74 0a		 je	 SHORT $LN69@LoadInt_e
  001c3	34 ea		 xor	 al, -22			; ffffffeaH
  001c5	88 45 fb	 mov	 BYTE PTR __k$[ebp+27], al
  001c8	e9 9d 00 00 00	 jmp	 $LN1@LoadInt_e
$LN69@LoadInt_e:
  001cd	c6 45 fb ea	 mov	 BYTE PTR __k$[ebp+27], -22 ; ffffffeaH
  001d1	e9 94 00 00 00	 jmp	 $LN1@LoadInt_e
$LN70@LoadInt_e:
  001d6	88 4d fa	 mov	 BYTE PTR __k$[ebp+26], cl
  001d9	e9 8c 00 00 00	 jmp	 $LN1@LoadInt_e
$LN71@LoadInt_e:
  001de	88 5d f9	 mov	 BYTE PTR __k$[ebp+25], bl
  001e1	e9 84 00 00 00	 jmp	 $LN1@LoadInt_e
$LN72@LoadInt_e:
  001e6	c6 45 f8 ed	 mov	 BYTE PTR __k$[ebp+24], -19 ; ffffffedH
  001ea	eb 7e		 jmp	 SHORT $LN1@LoadInt_e
$LN74@LoadInt_e:
  001ec	88 4d f6	 mov	 BYTE PTR __k$[ebp+22], cl
  001ef	eb 79		 jmp	 SHORT $LN1@LoadInt_e
$LN75@LoadInt_e:
  001f1	88 5d f5	 mov	 BYTE PTR __k$[ebp+21], bl
  001f4	eb 74		 jmp	 SHORT $LN1@LoadInt_e
$LN76@LoadInt_e:
  001f6	c6 45 f4 ed	 mov	 BYTE PTR __k$[ebp+20], -19 ; ffffffedH
  001fa	eb 6e		 jmp	 SHORT $LN1@LoadInt_e
$LN77@LoadInt_e:
  001fc	c6 45 f3 ea	 mov	 BYTE PTR __k$[ebp+19], -22 ; ffffffeaH
  00200	eb 68		 jmp	 SHORT $LN1@LoadInt_e
$LN78@LoadInt_e:
  00202	88 4d f2	 mov	 BYTE PTR __k$[ebp+18], cl
  00205	eb 63		 jmp	 SHORT $LN1@LoadInt_e
$LN79@LoadInt_e:
  00207	88 5d f1	 mov	 BYTE PTR __k$[ebp+17], bl
  0020a	eb 5e		 jmp	 SHORT $LN1@LoadInt_e
$LN80@LoadInt_e:
  0020c	c6 45 f0 ed	 mov	 BYTE PTR __k$[ebp+16], -19 ; ffffffedH
  00210	eb 58		 jmp	 SHORT $LN1@LoadInt_e
$LN81@LoadInt_e:
  00212	c6 45 ef ea	 mov	 BYTE PTR __k$[ebp+15], -22 ; ffffffeaH
  00216	eb 52		 jmp	 SHORT $LN1@LoadInt_e
$LN82@LoadInt_e:
  00218	88 4d ee	 mov	 BYTE PTR __k$[ebp+14], cl
  0021b	eb 4d		 jmp	 SHORT $LN1@LoadInt_e
$LN83@LoadInt_e:
  0021d	88 5d ed	 mov	 BYTE PTR __k$[ebp+13], bl
  00220	eb 48		 jmp	 SHORT $LN1@LoadInt_e
$LN84@LoadInt_e:
  00222	c6 45 ec ed	 mov	 BYTE PTR __k$[ebp+12], -19 ; ffffffedH
  00226	eb 42		 jmp	 SHORT $LN1@LoadInt_e
$LN85@LoadInt_e:
  00228	c6 45 eb ea	 mov	 BYTE PTR __k$[ebp+11], -22 ; ffffffeaH
  0022c	eb 3c		 jmp	 SHORT $LN1@LoadInt_e
$LN86@LoadInt_e:
  0022e	88 4d ea	 mov	 BYTE PTR __k$[ebp+10], cl
  00231	eb 37		 jmp	 SHORT $LN1@LoadInt_e
$LN87@LoadInt_e:
  00233	88 5d e9	 mov	 BYTE PTR __k$[ebp+9], bl
  00236	eb 32		 jmp	 SHORT $LN1@LoadInt_e
$LN88@LoadInt_e:
  00238	c6 45 e8 ed	 mov	 BYTE PTR __k$[ebp+8], -19 ; ffffffedH
  0023c	eb 2c		 jmp	 SHORT $LN1@LoadInt_e
$LN89@LoadInt_e:
  0023e	c6 45 e7 ea	 mov	 BYTE PTR __k$[ebp+7], -22 ; ffffffeaH
  00242	eb 26		 jmp	 SHORT $LN1@LoadInt_e
$LN90@LoadInt_e:
  00244	88 4d e6	 mov	 BYTE PTR __k$[ebp+6], cl
  00247	eb 21		 jmp	 SHORT $LN1@LoadInt_e
$LN91@LoadInt_e:
  00249	88 5d e5	 mov	 BYTE PTR __k$[ebp+5], bl
  0024c	eb 1c		 jmp	 SHORT $LN1@LoadInt_e
$LN92@LoadInt_e:
  0024e	c6 45 e4 ed	 mov	 BYTE PTR __k$[ebp+4], -19 ; ffffffedH
  00252	eb 16		 jmp	 SHORT $LN1@LoadInt_e
$LN93@LoadInt_e:
  00254	c6 45 e3 ea	 mov	 BYTE PTR __k$[ebp+3], -22 ; ffffffeaH
  00258	eb 10		 jmp	 SHORT $LN1@LoadInt_e
$LN94@LoadInt_e:
  0025a	c6 45 e2 eb	 mov	 BYTE PTR __k$[ebp+2], -21 ; ffffffebH
  0025e	eb 0a		 jmp	 SHORT $LN1@LoadInt_e
$LN95@LoadInt_e:
  00260	c6 45 e1 ec	 mov	 BYTE PTR __k$[ebp+1], -20 ; ffffffecH
  00264	eb 04		 jmp	 SHORT $LN1@LoadInt_e
$LN96@LoadInt_e:
  00266	c6 45 e0 ed	 mov	 BYTE PTR __k$[ebp], -19	; ffffffedH
$LN1@LoadInt_e:
  0026a	6a 05		 push	 5
  0026c	8d 45 e0	 lea	 eax, DWORD PTR __k$[ebp]
  0026f	c6 45 f7 00	 mov	 BYTE PTR __k$[ebp+23], 0
  00273	5a		 pop	 edx
$LL104@LoadInt_e:
  00274	81 30 ed ec eb
	ea		 xor	 DWORD PTR [eax], -353637139 ; eaebecedH
  0027a	83 c0 04	 add	 eax, 4
  0027d	4a		 dec	 edx
  0027e	75 f4		 jne	 SHORT $LL104@LoadInt_e
  00280	6a 14		 push	 20			; 00000014H
  00282	58		 pop	 eax
$LL101@LoadInt_e:
  00283	8b c8		 mov	 ecx, eax
  00285	81 e1 03 00 00
	80		 and	 ecx, -2147483645	; 80000003H
  0028b	79 05		 jns	 SHORT $LN111@LoadInt_e
  0028d	49		 dec	 ecx
  0028e	83 c9 fc	 or	 ecx, -4			; fffffffcH
  00291	41		 inc	 ecx
$LN111@LoadInt_e:
  00292	b2 ed		 mov	 dl, -19			; ffffffedH
  00294	2a d1		 sub	 dl, cl
  00296	30 54 05 e0	 xor	 BYTE PTR __k$[ebp+eax], dl
  0029a	40		 inc	 eax
  0029b	83 f8 17	 cmp	 eax, 23			; 00000017H
  0029e	7c e3		 jl	 SHORT $LL101@LoadInt_e

; 120  : 		return LoadInt(_k, i);

  002a0	ff 75 0c	 push	 DWORD PTR _i$[ebp]
  002a3	8d 45 e0	 lea	 eax, DWORD PTR __k$[ebp]
  002a6	50		 push	 eax
  002a7	8b ce		 mov	 ecx, esi
  002a9	ff 15 00 00 00
	00		 call	 DWORD PTR __imp_?LoadInt@ioINILoader@@QAEHPBDH@Z

; 121  : 	}

  002af	8b 4d fc	 mov	 ecx, DWORD PTR __$ArrayPad$[ebp]
  002b2	5e		 pop	 esi
  002b3	33 cd		 xor	 ecx, ebp
  002b5	5b		 pop	 ebx
  002b6	e8 00 00 00 00	 call	 @__security_check_cookie@4
  002bb	c9		 leave
  002bc	c2 08 00	 ret	 8
??$LoadInt_e@$0BI@@ioINILoader@@QAEHAAY0BI@$$CBDH@Z ENDP ; ioINILoader::LoadInt_e<24>
_TEXT	ENDS
PUBLIC	__$ArrayPad$
PUBLIC	??$LoadFloat_e@$0BB@@ioINILoader@@QAEMAAY0BB@$$CBDM@Z ; ioINILoader::LoadFloat_e<17>
; Function compile flags: /Ogsp
;	COMDAT ??$LoadFloat_e@$0BB@@ioINILoader@@QAEMAAY0BB@$$CBDM@Z
_TEXT	SEGMENT
__k$ = -28						; size = 17
__$ArrayPad$ = -4					; size = 4
_k$ = 8							; size = 4
_f$ = 12						; size = 4
??$LoadFloat_e@$0BB@@ioINILoader@@QAEMAAY0BB@$$CBDM@Z PROC ; ioINILoader::LoadFloat_e<17>, COMDAT
; _this$ = ecx

; 135  : 	{

  00000	55		 push	 ebp
  00001	8b ec		 mov	 ebp, esp
  00003	83 ec 1c	 sub	 esp, 28			; 0000001cH
  00006	a1 00 00 00 00	 mov	 eax, DWORD PTR ___security_cookie
  0000b	33 c5		 xor	 eax, ebp
  0000d	89 45 fc	 mov	 DWORD PTR __$ArrayPad$[ebp], eax
  00010	8b 45 08	 mov	 eax, DWORD PTR _k$[ebp]

; 136  : 		_ENCSTR(k, _k);

  00013	8a 10		 mov	 dl, BYTE PTR [eax]
  00015	56		 push	 esi
  00016	8b f1		 mov	 esi, ecx
  00018	84 d2		 test	 dl, dl
  0001a	0f 84 a7 01 00
	00		 je	 $LN96@LoadFloat_@2
  00020	80 f2 ed	 xor	 dl, -19			; ffffffedH
  00023	88 55 e4	 mov	 BYTE PTR __k$[ebp], dl
  00026	8a 50 01	 mov	 dl, BYTE PTR [eax+1]
  00029	84 d2		 test	 dl, dl
  0002b	0f 84 90 01 00
	00		 je	 $LN95@LoadFloat_@2
  00031	b1 ec		 mov	 cl, -20			; ffffffecH
  00033	32 d1		 xor	 dl, cl
  00035	88 55 e5	 mov	 BYTE PTR __k$[ebp+1], dl
  00038	8a 50 02	 mov	 dl, BYTE PTR [eax+2]
  0003b	84 d2		 test	 dl, dl
  0003d	0f 84 78 01 00
	00		 je	 $LN94@LoadFloat_@2
  00043	80 f2 eb	 xor	 dl, -21			; ffffffebH
  00046	88 55 e6	 mov	 BYTE PTR __k$[ebp+2], dl
  00049	8a 50 03	 mov	 dl, BYTE PTR [eax+3]
  0004c	84 d2		 test	 dl, dl
  0004e	0f 84 61 01 00
	00		 je	 $LN93@LoadFloat_@2
  00054	80 f2 ea	 xor	 dl, -22			; ffffffeaH
  00057	88 55 e7	 mov	 BYTE PTR __k$[ebp+3], dl
  0005a	8a 50 04	 mov	 dl, BYTE PTR [eax+4]
  0005d	84 d2		 test	 dl, dl
  0005f	0f 84 4a 01 00
	00		 je	 $LN92@LoadFloat_@2
  00065	80 f2 ed	 xor	 dl, -19			; ffffffedH
  00068	88 55 e8	 mov	 BYTE PTR __k$[ebp+4], dl
  0006b	8a 50 05	 mov	 dl, BYTE PTR [eax+5]
  0006e	84 d2		 test	 dl, dl
  00070	0f 84 34 01 00
	00		 je	 $LN91@LoadFloat_@2
  00076	32 d1		 xor	 dl, cl
  00078	88 55 e9	 mov	 BYTE PTR __k$[ebp+5], dl
  0007b	8a 50 06	 mov	 dl, BYTE PTR [eax+6]
  0007e	84 d2		 test	 dl, dl
  00080	0f 84 1e 01 00
	00		 je	 $LN90@LoadFloat_@2
  00086	80 f2 eb	 xor	 dl, -21			; ffffffebH
  00089	88 55 ea	 mov	 BYTE PTR __k$[ebp+6], dl
  0008c	8a 50 07	 mov	 dl, BYTE PTR [eax+7]
  0008f	84 d2		 test	 dl, dl
  00091	0f 84 07 01 00
	00		 je	 $LN89@LoadFloat_@2
  00097	80 f2 ea	 xor	 dl, -22			; ffffffeaH
  0009a	88 55 eb	 mov	 BYTE PTR __k$[ebp+7], dl
  0009d	8a 50 08	 mov	 dl, BYTE PTR [eax+8]
  000a0	84 d2		 test	 dl, dl
  000a2	0f 84 f0 00 00
	00		 je	 $LN88@LoadFloat_@2
  000a8	80 f2 ed	 xor	 dl, -19			; ffffffedH
  000ab	88 55 ec	 mov	 BYTE PTR __k$[ebp+8], dl
  000ae	8a 50 09	 mov	 dl, BYTE PTR [eax+9]
  000b1	84 d2		 test	 dl, dl
  000b3	0f 84 da 00 00
	00		 je	 $LN87@LoadFloat_@2
  000b9	32 d1		 xor	 dl, cl
  000bb	88 55 ed	 mov	 BYTE PTR __k$[ebp+9], dl
  000be	8a 50 0a	 mov	 dl, BYTE PTR [eax+10]
  000c1	84 d2		 test	 dl, dl
  000c3	0f 84 c4 00 00
	00		 je	 $LN86@LoadFloat_@2
  000c9	80 f2 eb	 xor	 dl, -21			; ffffffebH
  000cc	88 55 ee	 mov	 BYTE PTR __k$[ebp+10], dl
  000cf	8a 50 0b	 mov	 dl, BYTE PTR [eax+11]
  000d2	84 d2		 test	 dl, dl
  000d4	0f 84 ad 00 00
	00		 je	 $LN85@LoadFloat_@2
  000da	80 f2 ea	 xor	 dl, -22			; ffffffeaH
  000dd	88 55 ef	 mov	 BYTE PTR __k$[ebp+11], dl
  000e0	8a 50 0c	 mov	 dl, BYTE PTR [eax+12]
  000e3	84 d2		 test	 dl, dl
  000e5	0f 84 96 00 00
	00		 je	 $LN84@LoadFloat_@2
  000eb	80 f2 ed	 xor	 dl, -19			; ffffffedH
  000ee	88 55 f0	 mov	 BYTE PTR __k$[ebp+12], dl
  000f1	8a 50 0d	 mov	 dl, BYTE PTR [eax+13]
  000f4	84 d2		 test	 dl, dl
  000f6	0f 84 80 00 00
	00		 je	 $LN83@LoadFloat_@2
  000fc	32 d1		 xor	 dl, cl
  000fe	88 55 f1	 mov	 BYTE PTR __k$[ebp+13], dl
  00101	8a 50 0e	 mov	 dl, BYTE PTR [eax+14]
  00104	84 d2		 test	 dl, dl
  00106	74 6e		 je	 SHORT $LN82@LoadFloat_@2
  00108	80 f2 eb	 xor	 dl, -21			; ffffffebH
  0010b	88 55 f2	 mov	 BYTE PTR __k$[ebp+14], dl
  0010e	8a 50 0f	 mov	 dl, BYTE PTR [eax+15]
  00111	84 d2		 test	 dl, dl
  00113	74 5b		 je	 SHORT $LN81@LoadFloat_@2
  00115	80 f2 ea	 xor	 dl, -22			; ffffffeaH
  00118	80 78 10 00	 cmp	 BYTE PTR [eax+16], 0
  0011c	88 55 f3	 mov	 BYTE PTR __k$[ebp+15], dl
  0011f	0f 84 a6 00 00
	00		 je	 $LN1@LoadFloat_@2
  00125	8a 50 11	 mov	 dl, BYTE PTR [eax+17]
  00128	84 d2		 test	 dl, dl
  0012a	74 3f		 je	 SHORT $LN79@LoadFloat_@2
  0012c	32 d1		 xor	 dl, cl
  0012e	88 55 f5	 mov	 BYTE PTR __k$[ebp+17], dl
  00131	8a 50 12	 mov	 dl, BYTE PTR [eax+18]
  00134	84 d2		 test	 dl, dl
  00136	74 2d		 je	 SHORT $LN78@LoadFloat_@2
  00138	80 f2 eb	 xor	 dl, -21			; ffffffebH
  0013b	88 55 f6	 mov	 BYTE PTR __k$[ebp+18], dl
  0013e	8a 50 13	 mov	 dl, BYTE PTR [eax+19]
  00141	84 d2		 test	 dl, dl
  00143	74 1a		 je	 SHORT $LN77@LoadFloat_@2
  00145	8a 40 14	 mov	 al, BYTE PTR [eax+20]
  00148	80 f2 ea	 xor	 dl, -22			; ffffffeaH
  0014b	88 55 f7	 mov	 BYTE PTR __k$[ebp+19], dl
  0014e	84 c0		 test	 al, al
  00150	74 07		 je	 SHORT $LN76@LoadFloat_@2
  00152	34 ed		 xor	 al, -19			; ffffffedH
  00154	88 45 f8	 mov	 BYTE PTR __k$[ebp+20], al
  00157	eb 72		 jmp	 SHORT $LN1@LoadFloat_@2
$LN76@LoadFloat_@2:
  00159	c6 45 f8 ed	 mov	 BYTE PTR __k$[ebp+20], -19 ; ffffffedH
  0015d	eb 6c		 jmp	 SHORT $LN1@LoadFloat_@2
$LN77@LoadFloat_@2:
  0015f	c6 45 f7 ea	 mov	 BYTE PTR __k$[ebp+19], -22 ; ffffffeaH
  00163	eb 66		 jmp	 SHORT $LN1@LoadFloat_@2
$LN78@LoadFloat_@2:
  00165	c6 45 f6 eb	 mov	 BYTE PTR __k$[ebp+18], -21 ; ffffffebH
  00169	eb 60		 jmp	 SHORT $LN1@LoadFloat_@2
$LN79@LoadFloat_@2:
  0016b	88 4d f5	 mov	 BYTE PTR __k$[ebp+17], cl
  0016e	eb 5b		 jmp	 SHORT $LN1@LoadFloat_@2
$LN81@LoadFloat_@2:
  00170	c6 45 f3 ea	 mov	 BYTE PTR __k$[ebp+15], -22 ; ffffffeaH
  00174	eb 55		 jmp	 SHORT $LN1@LoadFloat_@2
$LN82@LoadFloat_@2:
  00176	c6 45 f2 eb	 mov	 BYTE PTR __k$[ebp+14], -21 ; ffffffebH
  0017a	eb 4f		 jmp	 SHORT $LN1@LoadFloat_@2
$LN83@LoadFloat_@2:
  0017c	88 4d f1	 mov	 BYTE PTR __k$[ebp+13], cl
  0017f	eb 4a		 jmp	 SHORT $LN1@LoadFloat_@2
$LN84@LoadFloat_@2:
  00181	c6 45 f0 ed	 mov	 BYTE PTR __k$[ebp+12], -19 ; ffffffedH
  00185	eb 44		 jmp	 SHORT $LN1@LoadFloat_@2
$LN85@LoadFloat_@2:
  00187	c6 45 ef ea	 mov	 BYTE PTR __k$[ebp+11], -22 ; ffffffeaH
  0018b	eb 3e		 jmp	 SHORT $LN1@LoadFloat_@2
$LN86@LoadFloat_@2:
  0018d	c6 45 ee eb	 mov	 BYTE PTR __k$[ebp+10], -21 ; ffffffebH
  00191	eb 38		 jmp	 SHORT $LN1@LoadFloat_@2
$LN87@LoadFloat_@2:
  00193	88 4d ed	 mov	 BYTE PTR __k$[ebp+9], cl
  00196	eb 33		 jmp	 SHORT $LN1@LoadFloat_@2
$LN88@LoadFloat_@2:
  00198	c6 45 ec ed	 mov	 BYTE PTR __k$[ebp+8], -19 ; ffffffedH
  0019c	eb 2d		 jmp	 SHORT $LN1@LoadFloat_@2
$LN89@LoadFloat_@2:
  0019e	c6 45 eb ea	 mov	 BYTE PTR __k$[ebp+7], -22 ; ffffffeaH
  001a2	eb 27		 jmp	 SHORT $LN1@LoadFloat_@2
$LN90@LoadFloat_@2:
  001a4	c6 45 ea eb	 mov	 BYTE PTR __k$[ebp+6], -21 ; ffffffebH
  001a8	eb 21		 jmp	 SHORT $LN1@LoadFloat_@2
$LN91@LoadFloat_@2:
  001aa	88 4d e9	 mov	 BYTE PTR __k$[ebp+5], cl
  001ad	eb 1c		 jmp	 SHORT $LN1@LoadFloat_@2
$LN92@LoadFloat_@2:
  001af	c6 45 e8 ed	 mov	 BYTE PTR __k$[ebp+4], -19 ; ffffffedH
  001b3	eb 16		 jmp	 SHORT $LN1@LoadFloat_@2
$LN93@LoadFloat_@2:
  001b5	c6 45 e7 ea	 mov	 BYTE PTR __k$[ebp+3], -22 ; ffffffeaH
  001b9	eb 10		 jmp	 SHORT $LN1@LoadFloat_@2
$LN94@LoadFloat_@2:
  001bb	c6 45 e6 eb	 mov	 BYTE PTR __k$[ebp+2], -21 ; ffffffebH
  001bf	eb 0a		 jmp	 SHORT $LN1@LoadFloat_@2
$LN95@LoadFloat_@2:
  001c1	c6 45 e5 ec	 mov	 BYTE PTR __k$[ebp+1], -20 ; ffffffecH
  001c5	eb 04		 jmp	 SHORT $LN1@LoadFloat_@2
$LN96@LoadFloat_@2:
  001c7	c6 45 e4 ed	 mov	 BYTE PTR __k$[ebp], -19	; ffffffedH
$LN1@LoadFloat_@2:
  001cb	6a 04		 push	 4
  001cd	8d 45 e4	 lea	 eax, DWORD PTR __k$[ebp]
  001d0	c6 45 f4 00	 mov	 BYTE PTR __k$[ebp+16], 0
  001d4	5a		 pop	 edx
$LL104@LoadFloat_@2:
  001d5	81 30 ed ec eb
	ea		 xor	 DWORD PTR [eax], -353637139 ; eaebecedH
  001db	83 c0 04	 add	 eax, 4
  001de	4a		 dec	 edx
  001df	75 f4		 jne	 SHORT $LL104@LoadFloat_@2

; 137  : 		return LoadFloat(_k, f);

  001e1	f3 0f 10 45 0c	 movss	 xmm0, DWORD PTR _f$[ebp]
  001e6	51		 push	 ecx
  001e7	8d 45 e4	 lea	 eax, DWORD PTR __k$[ebp]
  001ea	f3 0f 11 04 24	 movss	 DWORD PTR [esp], xmm0
  001ef	50		 push	 eax
  001f0	8b ce		 mov	 ecx, esi
  001f2	ff 15 00 00 00
	00		 call	 DWORD PTR __imp_?LoadFloat@ioINILoader@@QAEMPBDM@Z

; 138  : 	}

  001f8	8b 4d fc	 mov	 ecx, DWORD PTR __$ArrayPad$[ebp]
  001fb	33 cd		 xor	 ecx, ebp
  001fd	5e		 pop	 esi
  001fe	e8 00 00 00 00	 call	 @__security_check_cookie@4
  00203	c9		 leave
  00204	c2 08 00	 ret	 8
??$LoadFloat_e@$0BB@@ioINILoader@@QAEMAAY0BB@$$CBDM@Z ENDP ; ioINILoader::LoadFloat_e<17>
_TEXT	ENDS
PUBLIC	__$ArrayPad$
PUBLIC	??$LoadBool_e@$0BI@@ioINILoader@@QAE_NAAY0BI@$$CBD_N@Z ; ioINILoader::LoadBool_e<24>
EXTRN	__imp_?LoadBool@ioINILoader@@QAE_NPBD_N@Z:PROC
; Function compile flags: /Ogsp
;	COMDAT ??$LoadBool_e@$0BI@@ioINILoader@@QAE_NAAY0BI@$$CBD_N@Z
_TEXT	SEGMENT
__k$ = -32						; size = 24
__$ArrayPad$ = -4					; size = 4
_k$ = 8							; size = 4
_b$ = 12						; size = 1
??$LoadBool_e@$0BI@@ioINILoader@@QAE_NAAY0BI@$$CBD_N@Z PROC ; ioINILoader::LoadBool_e<24>, COMDAT
; _this$ = ecx

; 101  : 	{

  00000	55		 push	 ebp
  00001	8b ec		 mov	 ebp, esp
  00003	83 ec 20	 sub	 esp, 32			; 00000020H
  00006	a1 00 00 00 00	 mov	 eax, DWORD PTR ___security_cookie
  0000b	33 c5		 xor	 eax, ebp
  0000d	89 45 fc	 mov	 DWORD PTR __$ArrayPad$[ebp], eax
  00010	8b 45 08	 mov	 eax, DWORD PTR _k$[ebp]

; 102  : 		_ENCSTR(k, _k);

  00013	8a 10		 mov	 dl, BYTE PTR [eax]
  00015	53		 push	 ebx
  00016	56		 push	 esi
  00017	8b f1		 mov	 esi, ecx
  00019	84 d2		 test	 dl, dl
  0001b	0f 84 45 02 00
	00		 je	 $LN96@LoadBool_e
  00021	80 f2 ed	 xor	 dl, -19			; ffffffedH
  00024	88 55 e0	 mov	 BYTE PTR __k$[ebp], dl
  00027	8a 50 01	 mov	 dl, BYTE PTR [eax+1]
  0002a	84 d2		 test	 dl, dl
  0002c	0f 84 2e 02 00
	00		 je	 $LN95@LoadBool_e
  00032	b3 ec		 mov	 bl, -20			; ffffffecH
  00034	32 d3		 xor	 dl, bl
  00036	88 55 e1	 mov	 BYTE PTR __k$[ebp+1], dl
  00039	8a 50 02	 mov	 dl, BYTE PTR [eax+2]
  0003c	84 d2		 test	 dl, dl
  0003e	0f 84 16 02 00
	00		 je	 $LN94@LoadBool_e
  00044	b1 eb		 mov	 cl, -21			; ffffffebH
  00046	32 d1		 xor	 dl, cl
  00048	88 55 e2	 mov	 BYTE PTR __k$[ebp+2], dl
  0004b	8a 50 03	 mov	 dl, BYTE PTR [eax+3]
  0004e	84 d2		 test	 dl, dl
  00050	0f 84 fe 01 00
	00		 je	 $LN93@LoadBool_e
  00056	80 f2 ea	 xor	 dl, -22			; ffffffeaH
  00059	88 55 e3	 mov	 BYTE PTR __k$[ebp+3], dl
  0005c	8a 50 04	 mov	 dl, BYTE PTR [eax+4]
  0005f	84 d2		 test	 dl, dl
  00061	0f 84 e7 01 00
	00		 je	 $LN92@LoadBool_e
  00067	80 f2 ed	 xor	 dl, -19			; ffffffedH
  0006a	88 55 e4	 mov	 BYTE PTR __k$[ebp+4], dl
  0006d	8a 50 05	 mov	 dl, BYTE PTR [eax+5]
  00070	84 d2		 test	 dl, dl
  00072	0f 84 d1 01 00
	00		 je	 $LN91@LoadBool_e
  00078	32 d3		 xor	 dl, bl
  0007a	88 55 e5	 mov	 BYTE PTR __k$[ebp+5], dl
  0007d	8a 50 06	 mov	 dl, BYTE PTR [eax+6]
  00080	84 d2		 test	 dl, dl
  00082	0f 84 bc 01 00
	00		 je	 $LN90@LoadBool_e
  00088	32 d1		 xor	 dl, cl
  0008a	88 55 e6	 mov	 BYTE PTR __k$[ebp+6], dl
  0008d	8a 50 07	 mov	 dl, BYTE PTR [eax+7]
  00090	84 d2		 test	 dl, dl
  00092	0f 84 a6 01 00
	00		 je	 $LN89@LoadBool_e
  00098	80 f2 ea	 xor	 dl, -22			; ffffffeaH
  0009b	88 55 e7	 mov	 BYTE PTR __k$[ebp+7], dl
  0009e	8a 50 08	 mov	 dl, BYTE PTR [eax+8]
  000a1	84 d2		 test	 dl, dl
  000a3	0f 84 8f 01 00
	00		 je	 $LN88@LoadBool_e
  000a9	80 f2 ed	 xor	 dl, -19			; ffffffedH
  000ac	88 55 e8	 mov	 BYTE PTR __k$[ebp+8], dl
  000af	8a 50 09	 mov	 dl, BYTE PTR [eax+9]
  000b2	84 d2		 test	 dl, dl
  000b4	0f 84 79 01 00
	00		 je	 $LN87@LoadBool_e
  000ba	32 d3		 xor	 dl, bl
  000bc	88 55 e9	 mov	 BYTE PTR __k$[ebp+9], dl
  000bf	8a 50 0a	 mov	 dl, BYTE PTR [eax+10]
  000c2	84 d2		 test	 dl, dl
  000c4	0f 84 64 01 00
	00		 je	 $LN86@LoadBool_e
  000ca	32 d1		 xor	 dl, cl
  000cc	88 55 ea	 mov	 BYTE PTR __k$[ebp+10], dl
  000cf	8a 50 0b	 mov	 dl, BYTE PTR [eax+11]
  000d2	84 d2		 test	 dl, dl
  000d4	0f 84 4e 01 00
	00		 je	 $LN85@LoadBool_e
  000da	80 f2 ea	 xor	 dl, -22			; ffffffeaH
  000dd	88 55 eb	 mov	 BYTE PTR __k$[ebp+11], dl
  000e0	8a 50 0c	 mov	 dl, BYTE PTR [eax+12]
  000e3	84 d2		 test	 dl, dl
  000e5	0f 84 37 01 00
	00		 je	 $LN84@LoadBool_e
  000eb	80 f2 ed	 xor	 dl, -19			; ffffffedH
  000ee	88 55 ec	 mov	 BYTE PTR __k$[ebp+12], dl
  000f1	8a 50 0d	 mov	 dl, BYTE PTR [eax+13]
  000f4	84 d2		 test	 dl, dl
  000f6	0f 84 21 01 00
	00		 je	 $LN83@LoadBool_e
  000fc	32 d3		 xor	 dl, bl
  000fe	88 55 ed	 mov	 BYTE PTR __k$[ebp+13], dl
  00101	8a 50 0e	 mov	 dl, BYTE PTR [eax+14]
  00104	84 d2		 test	 dl, dl
  00106	0f 84 0c 01 00
	00		 je	 $LN82@LoadBool_e
  0010c	32 d1		 xor	 dl, cl
  0010e	88 55 ee	 mov	 BYTE PTR __k$[ebp+14], dl
  00111	8a 50 0f	 mov	 dl, BYTE PTR [eax+15]
  00114	84 d2		 test	 dl, dl
  00116	0f 84 f6 00 00
	00		 je	 $LN81@LoadBool_e
  0011c	80 f2 ea	 xor	 dl, -22			; ffffffeaH
  0011f	88 55 ef	 mov	 BYTE PTR __k$[ebp+15], dl
  00122	8a 50 10	 mov	 dl, BYTE PTR [eax+16]
  00125	84 d2		 test	 dl, dl
  00127	0f 84 df 00 00
	00		 je	 $LN80@LoadBool_e
  0012d	80 f2 ed	 xor	 dl, -19			; ffffffedH
  00130	88 55 f0	 mov	 BYTE PTR __k$[ebp+16], dl
  00133	8a 50 11	 mov	 dl, BYTE PTR [eax+17]
  00136	84 d2		 test	 dl, dl
  00138	0f 84 c9 00 00
	00		 je	 $LN79@LoadBool_e
  0013e	32 d3		 xor	 dl, bl
  00140	88 55 f1	 mov	 BYTE PTR __k$[ebp+17], dl
  00143	8a 50 12	 mov	 dl, BYTE PTR [eax+18]
  00146	84 d2		 test	 dl, dl
  00148	0f 84 b4 00 00
	00		 je	 $LN78@LoadBool_e
  0014e	32 d1		 xor	 dl, cl
  00150	88 55 f2	 mov	 BYTE PTR __k$[ebp+18], dl
  00153	8a 50 13	 mov	 dl, BYTE PTR [eax+19]
  00156	84 d2		 test	 dl, dl
  00158	0f 84 9e 00 00
	00		 je	 $LN77@LoadBool_e
  0015e	80 f2 ea	 xor	 dl, -22			; ffffffeaH
  00161	88 55 f3	 mov	 BYTE PTR __k$[ebp+19], dl
  00164	8a 50 14	 mov	 dl, BYTE PTR [eax+20]
  00167	84 d2		 test	 dl, dl
  00169	0f 84 87 00 00
	00		 je	 $LN76@LoadBool_e
  0016f	80 f2 ed	 xor	 dl, -19			; ffffffedH
  00172	88 55 f4	 mov	 BYTE PTR __k$[ebp+20], dl
  00175	8a 50 15	 mov	 dl, BYTE PTR [eax+21]
  00178	84 d2		 test	 dl, dl
  0017a	74 75		 je	 SHORT $LN75@LoadBool_e
  0017c	32 d3		 xor	 dl, bl
  0017e	88 55 f5	 mov	 BYTE PTR __k$[ebp+21], dl
  00181	8a 50 16	 mov	 dl, BYTE PTR [eax+22]
  00184	84 d2		 test	 dl, dl
  00186	74 64		 je	 SHORT $LN74@LoadBool_e
  00188	32 d1		 xor	 dl, cl
  0018a	80 78 17 00	 cmp	 BYTE PTR [eax+23], 0
  0018e	88 55 f6	 mov	 BYTE PTR __k$[ebp+22], dl
  00191	0f 84 d3 00 00
	00		 je	 $LN1@LoadBool_e
  00197	8a 50 18	 mov	 dl, BYTE PTR [eax+24]
  0019a	84 d2		 test	 dl, dl
  0019c	74 48		 je	 SHORT $LN72@LoadBool_e
  0019e	80 f2 ed	 xor	 dl, -19			; ffffffedH
  001a1	88 55 f8	 mov	 BYTE PTR __k$[ebp+24], dl
  001a4	8a 50 19	 mov	 dl, BYTE PTR [eax+25]
  001a7	84 d2		 test	 dl, dl
  001a9	74 33		 je	 SHORT $LN71@LoadBool_e
  001ab	32 d3		 xor	 dl, bl
  001ad	88 55 f9	 mov	 BYTE PTR __k$[ebp+25], dl
  001b0	8a 50 1a	 mov	 dl, BYTE PTR [eax+26]
  001b3	84 d2		 test	 dl, dl
  001b5	74 1f		 je	 SHORT $LN70@LoadBool_e
  001b7	8a 40 1b	 mov	 al, BYTE PTR [eax+27]
  001ba	32 d1		 xor	 dl, cl
  001bc	88 55 fa	 mov	 BYTE PTR __k$[ebp+26], dl
  001bf	84 c0		 test	 al, al
  001c1	74 0a		 je	 SHORT $LN69@LoadBool_e
  001c3	34 ea		 xor	 al, -22			; ffffffeaH
  001c5	88 45 fb	 mov	 BYTE PTR __k$[ebp+27], al
  001c8	e9 9d 00 00 00	 jmp	 $LN1@LoadBool_e
$LN69@LoadBool_e:
  001cd	c6 45 fb ea	 mov	 BYTE PTR __k$[ebp+27], -22 ; ffffffeaH
  001d1	e9 94 00 00 00	 jmp	 $LN1@LoadBool_e
$LN70@LoadBool_e:
  001d6	88 4d fa	 mov	 BYTE PTR __k$[ebp+26], cl
  001d9	e9 8c 00 00 00	 jmp	 $LN1@LoadBool_e
$LN71@LoadBool_e:
  001de	88 5d f9	 mov	 BYTE PTR __k$[ebp+25], bl
  001e1	e9 84 00 00 00	 jmp	 $LN1@LoadBool_e
$LN72@LoadBool_e:
  001e6	c6 45 f8 ed	 mov	 BYTE PTR __k$[ebp+24], -19 ; ffffffedH
  001ea	eb 7e		 jmp	 SHORT $LN1@LoadBool_e
$LN74@LoadBool_e:
  001ec	88 4d f6	 mov	 BYTE PTR __k$[ebp+22], cl
  001ef	eb 79		 jmp	 SHORT $LN1@LoadBool_e
$LN75@LoadBool_e:
  001f1	88 5d f5	 mov	 BYTE PTR __k$[ebp+21], bl
  001f4	eb 74		 jmp	 SHORT $LN1@LoadBool_e
$LN76@LoadBool_e:
  001f6	c6 45 f4 ed	 mov	 BYTE PTR __k$[ebp+20], -19 ; ffffffedH
  001fa	eb 6e		 jmp	 SHORT $LN1@LoadBool_e
$LN77@LoadBool_e:
  001fc	c6 45 f3 ea	 mov	 BYTE PTR __k$[ebp+19], -22 ; ffffffeaH
  00200	eb 68		 jmp	 SHORT $LN1@LoadBool_e
$LN78@LoadBool_e:
  00202	88 4d f2	 mov	 BYTE PTR __k$[ebp+18], cl
  00205	eb 63		 jmp	 SHORT $LN1@LoadBool_e
$LN79@LoadBool_e:
  00207	88 5d f1	 mov	 BYTE PTR __k$[ebp+17], bl
  0020a	eb 5e		 jmp	 SHORT $LN1@LoadBool_e
$LN80@LoadBool_e:
  0020c	c6 45 f0 ed	 mov	 BYTE PTR __k$[ebp+16], -19 ; ffffffedH
  00210	eb 58		 jmp	 SHORT $LN1@LoadBool_e
$LN81@LoadBool_e:
  00212	c6 45 ef ea	 mov	 BYTE PTR __k$[ebp+15], -22 ; ffffffeaH
  00216	eb 52		 jmp	 SHORT $LN1@LoadBool_e
$LN82@LoadBool_e:
  00218	88 4d ee	 mov	 BYTE PTR __k$[ebp+14], cl
  0021b	eb 4d		 jmp	 SHORT $LN1@LoadBool_e
$LN83@LoadBool_e:
  0021d	88 5d ed	 mov	 BYTE PTR __k$[ebp+13], bl
  00220	eb 48		 jmp	 SHORT $LN1@LoadBool_e
$LN84@LoadBool_e:
  00222	c6 45 ec ed	 mov	 BYTE PTR __k$[ebp+12], -19 ; ffffffedH
  00226	eb 42		 jmp	 SHORT $LN1@LoadBool_e
$LN85@LoadBool_e:
  00228	c6 45 eb ea	 mov	 BYTE PTR __k$[ebp+11], -22 ; ffffffeaH
  0022c	eb 3c		 jmp	 SHORT $LN1@LoadBool_e
$LN86@LoadBool_e:
  0022e	88 4d ea	 mov	 BYTE PTR __k$[ebp+10], cl
  00231	eb 37		 jmp	 SHORT $LN1@LoadBool_e
$LN87@LoadBool_e:
  00233	88 5d e9	 mov	 BYTE PTR __k$[ebp+9], bl
  00236	eb 32		 jmp	 SHORT $LN1@LoadBool_e
$LN88@LoadBool_e:
  00238	c6 45 e8 ed	 mov	 BYTE PTR __k$[ebp+8], -19 ; ffffffedH
  0023c	eb 2c		 jmp	 SHORT $LN1@LoadBool_e
$LN89@LoadBool_e:
  0023e	c6 45 e7 ea	 mov	 BYTE PTR __k$[ebp+7], -22 ; ffffffeaH
  00242	eb 26		 jmp	 SHORT $LN1@LoadBool_e
$LN90@LoadBool_e:
  00244	88 4d e6	 mov	 BYTE PTR __k$[ebp+6], cl
  00247	eb 21		 jmp	 SHORT $LN1@LoadBool_e
$LN91@LoadBool_e:
  00249	88 5d e5	 mov	 BYTE PTR __k$[ebp+5], bl
  0024c	eb 1c		 jmp	 SHORT $LN1@LoadBool_e
$LN92@LoadBool_e:
  0024e	c6 45 e4 ed	 mov	 BYTE PTR __k$[ebp+4], -19 ; ffffffedH
  00252	eb 16		 jmp	 SHORT $LN1@LoadBool_e
$LN93@LoadBool_e:
  00254	c6 45 e3 ea	 mov	 BYTE PTR __k$[ebp+3], -22 ; ffffffeaH
  00258	eb 10		 jmp	 SHORT $LN1@LoadBool_e
$LN94@LoadBool_e:
  0025a	c6 45 e2 eb	 mov	 BYTE PTR __k$[ebp+2], -21 ; ffffffebH
  0025e	eb 0a		 jmp	 SHORT $LN1@LoadBool_e
$LN95@LoadBool_e:
  00260	c6 45 e1 ec	 mov	 BYTE PTR __k$[ebp+1], -20 ; ffffffecH
  00264	eb 04		 jmp	 SHORT $LN1@LoadBool_e
$LN96@LoadBool_e:
  00266	c6 45 e0 ed	 mov	 BYTE PTR __k$[ebp], -19	; ffffffedH
$LN1@LoadBool_e:
  0026a	6a 05		 push	 5
  0026c	8d 45 e0	 lea	 eax, DWORD PTR __k$[ebp]
  0026f	c6 45 f7 00	 mov	 BYTE PTR __k$[ebp+23], 0
  00273	5a		 pop	 edx
$LL104@LoadBool_e:
  00274	81 30 ed ec eb
	ea		 xor	 DWORD PTR [eax], -353637139 ; eaebecedH
  0027a	83 c0 04	 add	 eax, 4
  0027d	4a		 dec	 edx
  0027e	75 f4		 jne	 SHORT $LL104@LoadBool_e
  00280	6a 14		 push	 20			; 00000014H
  00282	58		 pop	 eax
$LL101@LoadBool_e:
  00283	8b c8		 mov	 ecx, eax
  00285	81 e1 03 00 00
	80		 and	 ecx, -2147483645	; 80000003H
  0028b	79 05		 jns	 SHORT $LN111@LoadBool_e
  0028d	49		 dec	 ecx
  0028e	83 c9 fc	 or	 ecx, -4			; fffffffcH
  00291	41		 inc	 ecx
$LN111@LoadBool_e:
  00292	b2 ed		 mov	 dl, -19			; ffffffedH
  00294	2a d1		 sub	 dl, cl
  00296	30 54 05 e0	 xor	 BYTE PTR __k$[ebp+eax], dl
  0029a	40		 inc	 eax
  0029b	83 f8 17	 cmp	 eax, 23			; 00000017H
  0029e	7c e3		 jl	 SHORT $LL101@LoadBool_e

; 103  : 		return LoadBool(_k, b);

  002a0	ff 75 0c	 push	 DWORD PTR _b$[ebp]
  002a3	8d 45 e0	 lea	 eax, DWORD PTR __k$[ebp]
  002a6	50		 push	 eax
  002a7	8b ce		 mov	 ecx, esi
  002a9	ff 15 00 00 00
	00		 call	 DWORD PTR __imp_?LoadBool@ioINILoader@@QAE_NPBD_N@Z

; 104  : 	}

  002af	8b 4d fc	 mov	 ecx, DWORD PTR __$ArrayPad$[ebp]
  002b2	5e		 pop	 esi
  002b3	33 cd		 xor	 ecx, ebp
  002b5	5b		 pop	 ebx
  002b6	e8 00 00 00 00	 call	 @__security_check_cookie@4
  002bb	c9		 leave
  002bc	c2 08 00	 ret	 8
??$LoadBool_e@$0BI@@ioINILoader@@QAE_NAAY0BI@$$CBD_N@Z ENDP ; ioINILoader::LoadBool_e<24>
_TEXT	ENDS
PUBLIC	_this$GSCopy$
PUBLIC	__$ArrayPad$
PUBLIC	??$LoadString_e@$0BI@@ioINILoader@@QAEXAAY0BI@$$CBDAAY00$$CBDPADH@Z ; ioINILoader::LoadString_e<24>
; Function compile flags: /Ogsp
;	COMDAT ??$LoadString_e@$0BI@@ioINILoader@@QAEXAAY0BI@$$CBDAAY00$$CBDPADH@Z
_TEXT	SEGMENT
_this$GSCopy$ = -36					; size = 4
__k$ = -32						; size = 24
__$ArrayPad$ = -4					; size = 4
_k$ = 8							; size = 4
_d$ = 12						; size = 4
_b$ = 16						; size = 4
_i$ = 20						; size = 4
??$LoadString_e@$0BI@@ioINILoader@@QAEXAAY0BI@$$CBDAAY00$$CBDPADH@Z PROC ; ioINILoader::LoadString_e<24>, COMDAT
; _this$ = ecx

; 161  : 	{

  00000	55		 push	 ebp
  00001	8b ec		 mov	 ebp, esp
  00003	83 ec 24	 sub	 esp, 36			; 00000024H
  00006	a1 00 00 00 00	 mov	 eax, DWORD PTR ___security_cookie
  0000b	33 c5		 xor	 eax, ebp
  0000d	89 45 fc	 mov	 DWORD PTR __$ArrayPad$[ebp], eax
  00010	8b 45 08	 mov	 eax, DWORD PTR _k$[ebp]

; 162  : 		_ENCSTR(k, _k);

  00013	8a 10		 mov	 dl, BYTE PTR [eax]
  00015	53		 push	 ebx
  00016	56		 push	 esi
  00017	8b 75 0c	 mov	 esi, DWORD PTR _d$[ebp]
  0001a	57		 push	 edi
  0001b	8b 7d 10	 mov	 edi, DWORD PTR _b$[ebp]
  0001e	89 4d dc	 mov	 DWORD PTR _this$GSCopy$[ebp], ecx
  00021	84 d2		 test	 dl, dl
  00023	0f 84 45 02 00
	00		 je	 $LN96@LoadString@3
  00029	80 f2 ed	 xor	 dl, -19			; ffffffedH
  0002c	88 55 e0	 mov	 BYTE PTR __k$[ebp], dl
  0002f	8a 50 01	 mov	 dl, BYTE PTR [eax+1]
  00032	84 d2		 test	 dl, dl
  00034	0f 84 2e 02 00
	00		 je	 $LN95@LoadString@3
  0003a	b3 ec		 mov	 bl, -20			; ffffffecH
  0003c	32 d3		 xor	 dl, bl
  0003e	88 55 e1	 mov	 BYTE PTR __k$[ebp+1], dl
  00041	8a 50 02	 mov	 dl, BYTE PTR [eax+2]
  00044	84 d2		 test	 dl, dl
  00046	0f 84 16 02 00
	00		 je	 $LN94@LoadString@3
  0004c	b1 eb		 mov	 cl, -21			; ffffffebH
  0004e	32 d1		 xor	 dl, cl
  00050	88 55 e2	 mov	 BYTE PTR __k$[ebp+2], dl
  00053	8a 50 03	 mov	 dl, BYTE PTR [eax+3]
  00056	84 d2		 test	 dl, dl
  00058	0f 84 fe 01 00
	00		 je	 $LN93@LoadString@3
  0005e	80 f2 ea	 xor	 dl, -22			; ffffffeaH
  00061	88 55 e3	 mov	 BYTE PTR __k$[ebp+3], dl
  00064	8a 50 04	 mov	 dl, BYTE PTR [eax+4]
  00067	84 d2		 test	 dl, dl
  00069	0f 84 e7 01 00
	00		 je	 $LN92@LoadString@3
  0006f	80 f2 ed	 xor	 dl, -19			; ffffffedH
  00072	88 55 e4	 mov	 BYTE PTR __k$[ebp+4], dl
  00075	8a 50 05	 mov	 dl, BYTE PTR [eax+5]
  00078	84 d2		 test	 dl, dl
  0007a	0f 84 d1 01 00
	00		 je	 $LN91@LoadString@3
  00080	32 d3		 xor	 dl, bl
  00082	88 55 e5	 mov	 BYTE PTR __k$[ebp+5], dl
  00085	8a 50 06	 mov	 dl, BYTE PTR [eax+6]
  00088	84 d2		 test	 dl, dl
  0008a	0f 84 bc 01 00
	00		 je	 $LN90@LoadString@3
  00090	32 d1		 xor	 dl, cl
  00092	88 55 e6	 mov	 BYTE PTR __k$[ebp+6], dl
  00095	8a 50 07	 mov	 dl, BYTE PTR [eax+7]
  00098	84 d2		 test	 dl, dl
  0009a	0f 84 a6 01 00
	00		 je	 $LN89@LoadString@3
  000a0	80 f2 ea	 xor	 dl, -22			; ffffffeaH
  000a3	88 55 e7	 mov	 BYTE PTR __k$[ebp+7], dl
  000a6	8a 50 08	 mov	 dl, BYTE PTR [eax+8]
  000a9	84 d2		 test	 dl, dl
  000ab	0f 84 8f 01 00
	00		 je	 $LN88@LoadString@3
  000b1	80 f2 ed	 xor	 dl, -19			; ffffffedH
  000b4	88 55 e8	 mov	 BYTE PTR __k$[ebp+8], dl
  000b7	8a 50 09	 mov	 dl, BYTE PTR [eax+9]
  000ba	84 d2		 test	 dl, dl
  000bc	0f 84 79 01 00
	00		 je	 $LN87@LoadString@3
  000c2	32 d3		 xor	 dl, bl
  000c4	88 55 e9	 mov	 BYTE PTR __k$[ebp+9], dl
  000c7	8a 50 0a	 mov	 dl, BYTE PTR [eax+10]
  000ca	84 d2		 test	 dl, dl
  000cc	0f 84 64 01 00
	00		 je	 $LN86@LoadString@3
  000d2	32 d1		 xor	 dl, cl
  000d4	88 55 ea	 mov	 BYTE PTR __k$[ebp+10], dl
  000d7	8a 50 0b	 mov	 dl, BYTE PTR [eax+11]
  000da	84 d2		 test	 dl, dl
  000dc	0f 84 4e 01 00
	00		 je	 $LN85@LoadString@3
  000e2	80 f2 ea	 xor	 dl, -22			; ffffffeaH
  000e5	88 55 eb	 mov	 BYTE PTR __k$[ebp+11], dl
  000e8	8a 50 0c	 mov	 dl, BYTE PTR [eax+12]
  000eb	84 d2		 test	 dl, dl
  000ed	0f 84 37 01 00
	00		 je	 $LN84@LoadString@3
  000f3	80 f2 ed	 xor	 dl, -19			; ffffffedH
  000f6	88 55 ec	 mov	 BYTE PTR __k$[ebp+12], dl
  000f9	8a 50 0d	 mov	 dl, BYTE PTR [eax+13]
  000fc	84 d2		 test	 dl, dl
  000fe	0f 84 21 01 00
	00		 je	 $LN83@LoadString@3
  00104	32 d3		 xor	 dl, bl
  00106	88 55 ed	 mov	 BYTE PTR __k$[ebp+13], dl
  00109	8a 50 0e	 mov	 dl, BYTE PTR [eax+14]
  0010c	84 d2		 test	 dl, dl
  0010e	0f 84 0c 01 00
	00		 je	 $LN82@LoadString@3
  00114	32 d1		 xor	 dl, cl
  00116	88 55 ee	 mov	 BYTE PTR __k$[ebp+14], dl
  00119	8a 50 0f	 mov	 dl, BYTE PTR [eax+15]
  0011c	84 d2		 test	 dl, dl
  0011e	0f 84 f6 00 00
	00		 je	 $LN81@LoadString@3
  00124	80 f2 ea	 xor	 dl, -22			; ffffffeaH
  00127	88 55 ef	 mov	 BYTE PTR __k$[ebp+15], dl
  0012a	8a 50 10	 mov	 dl, BYTE PTR [eax+16]
  0012d	84 d2		 test	 dl, dl
  0012f	0f 84 df 00 00
	00		 je	 $LN80@LoadString@3
  00135	80 f2 ed	 xor	 dl, -19			; ffffffedH
  00138	88 55 f0	 mov	 BYTE PTR __k$[ebp+16], dl
  0013b	8a 50 11	 mov	 dl, BYTE PTR [eax+17]
  0013e	84 d2		 test	 dl, dl
  00140	0f 84 c9 00 00
	00		 je	 $LN79@LoadString@3
  00146	32 d3		 xor	 dl, bl
  00148	88 55 f1	 mov	 BYTE PTR __k$[ebp+17], dl
  0014b	8a 50 12	 mov	 dl, BYTE PTR [eax+18]
  0014e	84 d2		 test	 dl, dl
  00150	0f 84 b4 00 00
	00		 je	 $LN78@LoadString@3
  00156	32 d1		 xor	 dl, cl
  00158	88 55 f2	 mov	 BYTE PTR __k$[ebp+18], dl
  0015b	8a 50 13	 mov	 dl, BYTE PTR [eax+19]
  0015e	84 d2		 test	 dl, dl
  00160	0f 84 9e 00 00
	00		 je	 $LN77@LoadString@3
  00166	80 f2 ea	 xor	 dl, -22			; ffffffeaH
  00169	88 55 f3	 mov	 BYTE PTR __k$[ebp+19], dl
  0016c	8a 50 14	 mov	 dl, BYTE PTR [eax+20]
  0016f	84 d2		 test	 dl, dl
  00171	0f 84 87 00 00
	00		 je	 $LN76@LoadString@3
  00177	80 f2 ed	 xor	 dl, -19			; ffffffedH
  0017a	88 55 f4	 mov	 BYTE PTR __k$[ebp+20], dl
  0017d	8a 50 15	 mov	 dl, BYTE PTR [eax+21]
  00180	84 d2		 test	 dl, dl
  00182	74 75		 je	 SHORT $LN75@LoadString@3
  00184	32 d3		 xor	 dl, bl
  00186	88 55 f5	 mov	 BYTE PTR __k$[ebp+21], dl
  00189	8a 50 16	 mov	 dl, BYTE PTR [eax+22]
  0018c	84 d2		 test	 dl, dl
  0018e	74 64		 je	 SHORT $LN74@LoadString@3
  00190	32 d1		 xor	 dl, cl
  00192	80 78 17 00	 cmp	 BYTE PTR [eax+23], 0
  00196	88 55 f6	 mov	 BYTE PTR __k$[ebp+22], dl
  00199	0f 84 d3 00 00
	00		 je	 $LN111@LoadString@3
  0019f	8a 50 18	 mov	 dl, BYTE PTR [eax+24]
  001a2	84 d2		 test	 dl, dl
  001a4	74 48		 je	 SHORT $LN72@LoadString@3
  001a6	80 f2 ed	 xor	 dl, -19			; ffffffedH
  001a9	88 55 f8	 mov	 BYTE PTR __k$[ebp+24], dl
  001ac	8a 50 19	 mov	 dl, BYTE PTR [eax+25]
  001af	84 d2		 test	 dl, dl
  001b1	74 33		 je	 SHORT $LN71@LoadString@3
  001b3	32 d3		 xor	 dl, bl
  001b5	88 55 f9	 mov	 BYTE PTR __k$[ebp+25], dl
  001b8	8a 50 1a	 mov	 dl, BYTE PTR [eax+26]
  001bb	84 d2		 test	 dl, dl
  001bd	74 1f		 je	 SHORT $LN70@LoadString@3
  001bf	8a 40 1b	 mov	 al, BYTE PTR [eax+27]
  001c2	32 d1		 xor	 dl, cl
  001c4	88 55 fa	 mov	 BYTE PTR __k$[ebp+26], dl
  001c7	84 c0		 test	 al, al
  001c9	74 0a		 je	 SHORT $LN69@LoadString@3
  001cb	34 ea		 xor	 al, -22			; ffffffeaH
  001cd	88 45 fb	 mov	 BYTE PTR __k$[ebp+27], al
  001d0	e9 9d 00 00 00	 jmp	 $LN111@LoadString@3
$LN69@LoadString@3:
  001d5	c6 45 fb ea	 mov	 BYTE PTR __k$[ebp+27], -22 ; ffffffeaH
  001d9	e9 94 00 00 00	 jmp	 $LN111@LoadString@3
$LN70@LoadString@3:
  001de	88 4d fa	 mov	 BYTE PTR __k$[ebp+26], cl
  001e1	e9 8c 00 00 00	 jmp	 $LN111@LoadString@3
$LN71@LoadString@3:
  001e6	88 5d f9	 mov	 BYTE PTR __k$[ebp+25], bl
  001e9	e9 84 00 00 00	 jmp	 $LN111@LoadString@3
$LN72@LoadString@3:
  001ee	c6 45 f8 ed	 mov	 BYTE PTR __k$[ebp+24], -19 ; ffffffedH
  001f2	eb 7e		 jmp	 SHORT $LN111@LoadString@3
$LN74@LoadString@3:
  001f4	88 4d f6	 mov	 BYTE PTR __k$[ebp+22], cl
  001f7	eb 79		 jmp	 SHORT $LN111@LoadString@3
$LN75@LoadString@3:
  001f9	88 5d f5	 mov	 BYTE PTR __k$[ebp+21], bl
  001fc	eb 74		 jmp	 SHORT $LN111@LoadString@3
$LN76@LoadString@3:
  001fe	c6 45 f4 ed	 mov	 BYTE PTR __k$[ebp+20], -19 ; ffffffedH
  00202	eb 6e		 jmp	 SHORT $LN111@LoadString@3
$LN77@LoadString@3:
  00204	c6 45 f3 ea	 mov	 BYTE PTR __k$[ebp+19], -22 ; ffffffeaH
  00208	eb 68		 jmp	 SHORT $LN111@LoadString@3
$LN78@LoadString@3:
  0020a	88 4d f2	 mov	 BYTE PTR __k$[ebp+18], cl
  0020d	eb 63		 jmp	 SHORT $LN111@LoadString@3
$LN79@LoadString@3:
  0020f	88 5d f1	 mov	 BYTE PTR __k$[ebp+17], bl
  00212	eb 5e		 jmp	 SHORT $LN111@LoadString@3
$LN80@LoadString@3:
  00214	c6 45 f0 ed	 mov	 BYTE PTR __k$[ebp+16], -19 ; ffffffedH
  00218	eb 58		 jmp	 SHORT $LN111@LoadString@3
$LN81@LoadString@3:
  0021a	c6 45 ef ea	 mov	 BYTE PTR __k$[ebp+15], -22 ; ffffffeaH
  0021e	eb 52		 jmp	 SHORT $LN111@LoadString@3
$LN82@LoadString@3:
  00220	88 4d ee	 mov	 BYTE PTR __k$[ebp+14], cl
  00223	eb 4d		 jmp	 SHORT $LN111@LoadString@3
$LN83@LoadString@3:
  00225	88 5d ed	 mov	 BYTE PTR __k$[ebp+13], bl
  00228	eb 48		 jmp	 SHORT $LN111@LoadString@3
$LN84@LoadString@3:
  0022a	c6 45 ec ed	 mov	 BYTE PTR __k$[ebp+12], -19 ; ffffffedH
  0022e	eb 42		 jmp	 SHORT $LN111@LoadString@3
$LN85@LoadString@3:
  00230	c6 45 eb ea	 mov	 BYTE PTR __k$[ebp+11], -22 ; ffffffeaH
  00234	eb 3c		 jmp	 SHORT $LN111@LoadString@3
$LN86@LoadString@3:
  00236	88 4d ea	 mov	 BYTE PTR __k$[ebp+10], cl
  00239	eb 37		 jmp	 SHORT $LN111@LoadString@3
$LN87@LoadString@3:
  0023b	88 5d e9	 mov	 BYTE PTR __k$[ebp+9], bl
  0023e	eb 32		 jmp	 SHORT $LN111@LoadString@3
$LN88@LoadString@3:
  00240	c6 45 e8 ed	 mov	 BYTE PTR __k$[ebp+8], -19 ; ffffffedH
  00244	eb 2c		 jmp	 SHORT $LN111@LoadString@3
$LN89@LoadString@3:
  00246	c6 45 e7 ea	 mov	 BYTE PTR __k$[ebp+7], -22 ; ffffffeaH
  0024a	eb 26		 jmp	 SHORT $LN111@LoadString@3
$LN90@LoadString@3:
  0024c	88 4d e6	 mov	 BYTE PTR __k$[ebp+6], cl
  0024f	eb 21		 jmp	 SHORT $LN111@LoadString@3
$LN91@LoadString@3:
  00251	88 5d e5	 mov	 BYTE PTR __k$[ebp+5], bl
  00254	eb 1c		 jmp	 SHORT $LN111@LoadString@3
$LN92@LoadString@3:
  00256	c6 45 e4 ed	 mov	 BYTE PTR __k$[ebp+4], -19 ; ffffffedH
  0025a	eb 16		 jmp	 SHORT $LN111@LoadString@3
$LN93@LoadString@3:
  0025c	c6 45 e3 ea	 mov	 BYTE PTR __k$[ebp+3], -22 ; ffffffeaH
  00260	eb 10		 jmp	 SHORT $LN111@LoadString@3
$LN94@LoadString@3:
  00262	c6 45 e2 eb	 mov	 BYTE PTR __k$[ebp+2], -21 ; ffffffebH
  00266	eb 0a		 jmp	 SHORT $LN111@LoadString@3
$LN95@LoadString@3:
  00268	c6 45 e1 ec	 mov	 BYTE PTR __k$[ebp+1], -20 ; ffffffecH
  0026c	eb 04		 jmp	 SHORT $LN111@LoadString@3
$LN96@LoadString@3:
  0026e	c6 45 e0 ed	 mov	 BYTE PTR __k$[ebp], -19	; ffffffedH
$LN111@LoadString@3:
  00272	6a 05		 push	 5
  00274	8d 45 e0	 lea	 eax, DWORD PTR __k$[ebp]
  00277	c6 45 f7 00	 mov	 BYTE PTR __k$[ebp+23], 0
  0027b	5a		 pop	 edx
$LL104@LoadString@3:
  0027c	81 30 ed ec eb
	ea		 xor	 DWORD PTR [eax], -353637139 ; eaebecedH
  00282	83 c0 04	 add	 eax, 4
  00285	4a		 dec	 edx
  00286	75 f4		 jne	 SHORT $LL104@LoadString@3
  00288	6a 14		 push	 20			; 00000014H
  0028a	58		 pop	 eax
$LL101@LoadString@3:
  0028b	8b c8		 mov	 ecx, eax
  0028d	81 e1 03 00 00
	80		 and	 ecx, -2147483645	; 80000003H
  00293	79 05		 jns	 SHORT $LN112@LoadString@3
  00295	49		 dec	 ecx
  00296	83 c9 fc	 or	 ecx, -4			; fffffffcH
  00299	41		 inc	 ecx
$LN112@LoadString@3:
  0029a	b2 ed		 mov	 dl, -19			; ffffffedH
  0029c	2a d1		 sub	 dl, cl
  0029e	30 54 05 e0	 xor	 BYTE PTR __k$[ebp+eax], dl
  002a2	40		 inc	 eax
  002a3	83 f8 17	 cmp	 eax, 23			; 00000017H
  002a6	7c e3		 jl	 SHORT $LL101@LoadString@3

; 163  : 		LoadString(_k, d, b, i);

  002a8	ff 75 14	 push	 DWORD PTR _i$[ebp]
  002ab	8b 4d dc	 mov	 ecx, DWORD PTR _this$GSCopy$[ebp]
  002ae	57		 push	 edi
  002af	56		 push	 esi
  002b0	8d 45 e0	 lea	 eax, DWORD PTR __k$[ebp]
  002b3	50		 push	 eax
  002b4	ff 15 00 00 00
	00		 call	 DWORD PTR __imp_?LoadStringA@ioINILoader@@QAEXPBD0PADH@Z

; 164  : 	}

  002ba	8b 4d fc	 mov	 ecx, DWORD PTR __$ArrayPad$[ebp]
  002bd	5f		 pop	 edi
  002be	5e		 pop	 esi
  002bf	33 cd		 xor	 ecx, ebp
  002c1	5b		 pop	 ebx
  002c2	e8 00 00 00 00	 call	 @__security_check_cookie@4
  002c7	c9		 leave
  002c8	c2 10 00	 ret	 16			; 00000010H
??$LoadString_e@$0BI@@ioINILoader@@QAEXAAY0BI@$$CBDAAY00$$CBDPADH@Z ENDP ; ioINILoader::LoadString_e<24>
_TEXT	ENDS
PUBLIC	__$ArrayPad$
PUBLIC	??$LoadFloat_e@$0BN@@ioINILoader@@QAEMAAY0BN@$$CBDM@Z ; ioINILoader::LoadFloat_e<29>
; Function compile flags: /Ogsp
;	COMDAT ??$LoadFloat_e@$0BN@@ioINILoader@@QAEMAAY0BN@$$CBDM@Z
_TEXT	SEGMENT
__k$ = -40						; size = 29
__$ArrayPad$ = -4					; size = 4
_k$ = 8							; size = 4
_f$ = 12						; size = 4
??$LoadFloat_e@$0BN@@ioINILoader@@QAEMAAY0BN@$$CBDM@Z PROC ; ioINILoader::LoadFloat_e<29>, COMDAT
; _this$ = ecx

; 135  : 	{

  00000	55		 push	 ebp
  00001	8b ec		 mov	 ebp, esp
  00003	83 ec 28	 sub	 esp, 40			; 00000028H
  00006	a1 00 00 00 00	 mov	 eax, DWORD PTR ___security_cookie
  0000b	33 c5		 xor	 eax, ebp
  0000d	89 45 fc	 mov	 DWORD PTR __$ArrayPad$[ebp], eax
  00010	8b 45 08	 mov	 eax, DWORD PTR _k$[ebp]

; 136  : 		_ENCSTR(k, _k);

  00013	8a 10		 mov	 dl, BYTE PTR [eax]
  00015	53		 push	 ebx
  00016	56		 push	 esi
  00017	8b f1		 mov	 esi, ecx
  00019	84 d2		 test	 dl, dl
  0001b	0f 84 c3 02 00
	00		 je	 $LN96@LoadFloat_@3
  00021	80 f2 ed	 xor	 dl, -19			; ffffffedH
  00024	88 55 d8	 mov	 BYTE PTR __k$[ebp], dl
  00027	8a 50 01	 mov	 dl, BYTE PTR [eax+1]
  0002a	84 d2		 test	 dl, dl
  0002c	0f 84 ac 02 00
	00		 je	 $LN95@LoadFloat_@3
  00032	b1 ec		 mov	 cl, -20			; ffffffecH
  00034	32 d1		 xor	 dl, cl
  00036	88 55 d9	 mov	 BYTE PTR __k$[ebp+1], dl
  00039	8a 50 02	 mov	 dl, BYTE PTR [eax+2]
  0003c	84 d2		 test	 dl, dl
  0003e	0f 84 94 02 00
	00		 je	 $LN94@LoadFloat_@3
  00044	b3 eb		 mov	 bl, -21			; ffffffebH
  00046	32 d3		 xor	 dl, bl
  00048	88 55 da	 mov	 BYTE PTR __k$[ebp+2], dl
  0004b	8a 50 03	 mov	 dl, BYTE PTR [eax+3]
  0004e	84 d2		 test	 dl, dl
  00050	0f 84 7c 02 00
	00		 je	 $LN93@LoadFloat_@3
  00056	80 f2 ea	 xor	 dl, -22			; ffffffeaH
  00059	88 55 db	 mov	 BYTE PTR __k$[ebp+3], dl
  0005c	8a 50 04	 mov	 dl, BYTE PTR [eax+4]
  0005f	84 d2		 test	 dl, dl
  00061	0f 84 65 02 00
	00		 je	 $LN92@LoadFloat_@3
  00067	80 f2 ed	 xor	 dl, -19			; ffffffedH
  0006a	88 55 dc	 mov	 BYTE PTR __k$[ebp+4], dl
  0006d	8a 50 05	 mov	 dl, BYTE PTR [eax+5]
  00070	84 d2		 test	 dl, dl
  00072	0f 84 4f 02 00
	00		 je	 $LN91@LoadFloat_@3
  00078	32 d1		 xor	 dl, cl
  0007a	88 55 dd	 mov	 BYTE PTR __k$[ebp+5], dl
  0007d	8a 50 06	 mov	 dl, BYTE PTR [eax+6]
  00080	84 d2		 test	 dl, dl
  00082	0f 84 3a 02 00
	00		 je	 $LN90@LoadFloat_@3
  00088	32 d3		 xor	 dl, bl
  0008a	88 55 de	 mov	 BYTE PTR __k$[ebp+6], dl
  0008d	8a 50 07	 mov	 dl, BYTE PTR [eax+7]
  00090	84 d2		 test	 dl, dl
  00092	0f 84 24 02 00
	00		 je	 $LN89@LoadFloat_@3
  00098	80 f2 ea	 xor	 dl, -22			; ffffffeaH
  0009b	88 55 df	 mov	 BYTE PTR __k$[ebp+7], dl
  0009e	8a 50 08	 mov	 dl, BYTE PTR [eax+8]
  000a1	84 d2		 test	 dl, dl
  000a3	0f 84 0d 02 00
	00		 je	 $LN88@LoadFloat_@3
  000a9	80 f2 ed	 xor	 dl, -19			; ffffffedH
  000ac	88 55 e0	 mov	 BYTE PTR __k$[ebp+8], dl
  000af	8a 50 09	 mov	 dl, BYTE PTR [eax+9]
  000b2	84 d2		 test	 dl, dl
  000b4	0f 84 f7 01 00
	00		 je	 $LN87@LoadFloat_@3
  000ba	32 d1		 xor	 dl, cl
  000bc	88 55 e1	 mov	 BYTE PTR __k$[ebp+9], dl
  000bf	8a 50 0a	 mov	 dl, BYTE PTR [eax+10]
  000c2	84 d2		 test	 dl, dl
  000c4	0f 84 e2 01 00
	00		 je	 $LN86@LoadFloat_@3
  000ca	32 d3		 xor	 dl, bl
  000cc	88 55 e2	 mov	 BYTE PTR __k$[ebp+10], dl
  000cf	8a 50 0b	 mov	 dl, BYTE PTR [eax+11]
  000d2	84 d2		 test	 dl, dl
  000d4	0f 84 cc 01 00
	00		 je	 $LN85@LoadFloat_@3
  000da	80 f2 ea	 xor	 dl, -22			; ffffffeaH
  000dd	88 55 e3	 mov	 BYTE PTR __k$[ebp+11], dl
  000e0	8a 50 0c	 mov	 dl, BYTE PTR [eax+12]
  000e3	84 d2		 test	 dl, dl
  000e5	0f 84 b5 01 00
	00		 je	 $LN84@LoadFloat_@3
  000eb	80 f2 ed	 xor	 dl, -19			; ffffffedH
  000ee	88 55 e4	 mov	 BYTE PTR __k$[ebp+12], dl
  000f1	8a 50 0d	 mov	 dl, BYTE PTR [eax+13]
  000f4	84 d2		 test	 dl, dl
  000f6	0f 84 9f 01 00
	00		 je	 $LN83@LoadFloat_@3
  000fc	32 d1		 xor	 dl, cl
  000fe	88 55 e5	 mov	 BYTE PTR __k$[ebp+13], dl
  00101	8a 50 0e	 mov	 dl, BYTE PTR [eax+14]
  00104	84 d2		 test	 dl, dl
  00106	0f 84 8a 01 00
	00		 je	 $LN82@LoadFloat_@3
  0010c	32 d3		 xor	 dl, bl
  0010e	88 55 e6	 mov	 BYTE PTR __k$[ebp+14], dl
  00111	8a 50 0f	 mov	 dl, BYTE PTR [eax+15]
  00114	84 d2		 test	 dl, dl
  00116	0f 84 74 01 00
	00		 je	 $LN81@LoadFloat_@3
  0011c	80 f2 ea	 xor	 dl, -22			; ffffffeaH
  0011f	88 55 e7	 mov	 BYTE PTR __k$[ebp+15], dl
  00122	8a 50 10	 mov	 dl, BYTE PTR [eax+16]
  00125	84 d2		 test	 dl, dl
  00127	0f 84 5d 01 00
	00		 je	 $LN80@LoadFloat_@3
  0012d	80 f2 ed	 xor	 dl, -19			; ffffffedH
  00130	88 55 e8	 mov	 BYTE PTR __k$[ebp+16], dl
  00133	8a 50 11	 mov	 dl, BYTE PTR [eax+17]
  00136	84 d2		 test	 dl, dl
  00138	0f 84 47 01 00
	00		 je	 $LN79@LoadFloat_@3
  0013e	32 d1		 xor	 dl, cl
  00140	88 55 e9	 mov	 BYTE PTR __k$[ebp+17], dl
  00143	8a 50 12	 mov	 dl, BYTE PTR [eax+18]
  00146	84 d2		 test	 dl, dl
  00148	0f 84 32 01 00
	00		 je	 $LN78@LoadFloat_@3
  0014e	32 d3		 xor	 dl, bl
  00150	88 55 ea	 mov	 BYTE PTR __k$[ebp+18], dl
  00153	8a 50 13	 mov	 dl, BYTE PTR [eax+19]
  00156	84 d2		 test	 dl, dl
  00158	0f 84 1c 01 00
	00		 je	 $LN77@LoadFloat_@3
  0015e	80 f2 ea	 xor	 dl, -22			; ffffffeaH
  00161	88 55 eb	 mov	 BYTE PTR __k$[ebp+19], dl
  00164	8a 50 14	 mov	 dl, BYTE PTR [eax+20]
  00167	84 d2		 test	 dl, dl
  00169	0f 84 05 01 00
	00		 je	 $LN76@LoadFloat_@3
  0016f	80 f2 ed	 xor	 dl, -19			; ffffffedH
  00172	88 55 ec	 mov	 BYTE PTR __k$[ebp+20], dl
  00175	8a 50 15	 mov	 dl, BYTE PTR [eax+21]
  00178	84 d2		 test	 dl, dl
  0017a	0f 84 ef 00 00
	00		 je	 $LN75@LoadFloat_@3
  00180	32 d1		 xor	 dl, cl
  00182	88 55 ed	 mov	 BYTE PTR __k$[ebp+21], dl
  00185	8a 50 16	 mov	 dl, BYTE PTR [eax+22]
  00188	84 d2		 test	 dl, dl
  0018a	0f 84 da 00 00
	00		 je	 $LN74@LoadFloat_@3
  00190	32 d3		 xor	 dl, bl
  00192	88 55 ee	 mov	 BYTE PTR __k$[ebp+22], dl
  00195	8a 50 17	 mov	 dl, BYTE PTR [eax+23]
  00198	84 d2		 test	 dl, dl
  0019a	0f 84 c4 00 00
	00		 je	 $LN73@LoadFloat_@3
  001a0	80 f2 ea	 xor	 dl, -22			; ffffffeaH
  001a3	88 55 ef	 mov	 BYTE PTR __k$[ebp+23], dl
  001a6	8a 50 18	 mov	 dl, BYTE PTR [eax+24]
  001a9	84 d2		 test	 dl, dl
  001ab	0f 84 aa 00 00
	00		 je	 $LN72@LoadFloat_@3
  001b1	80 f2 ed	 xor	 dl, -19			; ffffffedH
  001b4	88 55 f0	 mov	 BYTE PTR __k$[ebp+24], dl
  001b7	8a 50 19	 mov	 dl, BYTE PTR [eax+25]
  001ba	84 d2		 test	 dl, dl
  001bc	0f 84 91 00 00
	00		 je	 $LN71@LoadFloat_@3
  001c2	32 d1		 xor	 dl, cl
  001c4	88 55 f1	 mov	 BYTE PTR __k$[ebp+25], dl
  001c7	8a 50 1a	 mov	 dl, BYTE PTR [eax+26]
  001ca	84 d2		 test	 dl, dl
  001cc	74 7d		 je	 SHORT $LN70@LoadFloat_@3
  001ce	32 d3		 xor	 dl, bl
  001d0	88 55 f2	 mov	 BYTE PTR __k$[ebp+26], dl
  001d3	8a 50 1b	 mov	 dl, BYTE PTR [eax+27]
  001d6	84 d2		 test	 dl, dl
  001d8	74 68		 je	 SHORT $LN69@LoadFloat_@3
  001da	80 f2 ea	 xor	 dl, -22			; ffffffeaH
  001dd	80 78 1c 00	 cmp	 BYTE PTR [eax+28], 0
  001e1	88 55 f3	 mov	 BYTE PTR __k$[ebp+27], dl
  001e4	0f 84 fe 00 00
	00		 je	 $LN1@LoadFloat_@3
  001ea	8a 50 1d	 mov	 dl, BYTE PTR [eax+29]
  001ed	84 d2		 test	 dl, dl
  001ef	74 49		 je	 SHORT $LN67@LoadFloat_@3
  001f1	32 d1		 xor	 dl, cl
  001f3	88 55 f5	 mov	 BYTE PTR __k$[ebp+29], dl
  001f6	8a 50 1e	 mov	 dl, BYTE PTR [eax+30]
  001f9	84 d2		 test	 dl, dl
  001fb	74 35		 je	 SHORT $LN66@LoadFloat_@3
  001fd	32 d3		 xor	 dl, bl
  001ff	88 55 f6	 mov	 BYTE PTR __k$[ebp+30], dl
  00202	8a 50 1f	 mov	 dl, BYTE PTR [eax+31]
  00205	84 d2		 test	 dl, dl
  00207	74 20		 je	 SHORT $LN65@LoadFloat_@3
  00209	8a 40 20	 mov	 al, BYTE PTR [eax+32]
  0020c	80 f2 ea	 xor	 dl, -22			; ffffffeaH
  0020f	88 55 f7	 mov	 BYTE PTR __k$[ebp+31], dl
  00212	84 c0		 test	 al, al
  00214	74 0a		 je	 SHORT $LN64@LoadFloat_@3
  00216	34 ed		 xor	 al, -19			; ffffffedH
  00218	88 45 f8	 mov	 BYTE PTR __k$[ebp+32], al
  0021b	e9 c8 00 00 00	 jmp	 $LN1@LoadFloat_@3
$LN64@LoadFloat_@3:
  00220	c6 45 f8 ed	 mov	 BYTE PTR __k$[ebp+32], -19 ; ffffffedH
  00224	e9 bf 00 00 00	 jmp	 $LN1@LoadFloat_@3
$LN65@LoadFloat_@3:
  00229	c6 45 f7 ea	 mov	 BYTE PTR __k$[ebp+31], -22 ; ffffffeaH
  0022d	e9 b6 00 00 00	 jmp	 $LN1@LoadFloat_@3
$LN66@LoadFloat_@3:
  00232	88 5d f6	 mov	 BYTE PTR __k$[ebp+30], bl
  00235	e9 ae 00 00 00	 jmp	 $LN1@LoadFloat_@3
$LN67@LoadFloat_@3:
  0023a	88 4d f5	 mov	 BYTE PTR __k$[ebp+29], cl
  0023d	e9 a6 00 00 00	 jmp	 $LN1@LoadFloat_@3
$LN69@LoadFloat_@3:
  00242	c6 45 f3 ea	 mov	 BYTE PTR __k$[ebp+27], -22 ; ffffffeaH
  00246	e9 9d 00 00 00	 jmp	 $LN1@LoadFloat_@3
$LN70@LoadFloat_@3:
  0024b	88 5d f2	 mov	 BYTE PTR __k$[ebp+26], bl
  0024e	e9 95 00 00 00	 jmp	 $LN1@LoadFloat_@3
$LN71@LoadFloat_@3:
  00253	88 4d f1	 mov	 BYTE PTR __k$[ebp+25], cl
  00256	e9 8d 00 00 00	 jmp	 $LN1@LoadFloat_@3
$LN72@LoadFloat_@3:
  0025b	c6 45 f0 ed	 mov	 BYTE PTR __k$[ebp+24], -19 ; ffffffedH
  0025f	e9 84 00 00 00	 jmp	 $LN1@LoadFloat_@3
$LN73@LoadFloat_@3:
  00264	c6 45 ef ea	 mov	 BYTE PTR __k$[ebp+23], -22 ; ffffffeaH
  00268	eb 7e		 jmp	 SHORT $LN1@LoadFloat_@3
$LN74@LoadFloat_@3:
  0026a	88 5d ee	 mov	 BYTE PTR __k$[ebp+22], bl
  0026d	eb 79		 jmp	 SHORT $LN1@LoadFloat_@3
$LN75@LoadFloat_@3:
  0026f	88 4d ed	 mov	 BYTE PTR __k$[ebp+21], cl
  00272	eb 74		 jmp	 SHORT $LN1@LoadFloat_@3
$LN76@LoadFloat_@3:
  00274	c6 45 ec ed	 mov	 BYTE PTR __k$[ebp+20], -19 ; ffffffedH
  00278	eb 6e		 jmp	 SHORT $LN1@LoadFloat_@3
$LN77@LoadFloat_@3:
  0027a	c6 45 eb ea	 mov	 BYTE PTR __k$[ebp+19], -22 ; ffffffeaH
  0027e	eb 68		 jmp	 SHORT $LN1@LoadFloat_@3
$LN78@LoadFloat_@3:
  00280	88 5d ea	 mov	 BYTE PTR __k$[ebp+18], bl
  00283	eb 63		 jmp	 SHORT $LN1@LoadFloat_@3
$LN79@LoadFloat_@3:
  00285	88 4d e9	 mov	 BYTE PTR __k$[ebp+17], cl
  00288	eb 5e		 jmp	 SHORT $LN1@LoadFloat_@3
$LN80@LoadFloat_@3:
  0028a	c6 45 e8 ed	 mov	 BYTE PTR __k$[ebp+16], -19 ; ffffffedH
  0028e	eb 58		 jmp	 SHORT $LN1@LoadFloat_@3
$LN81@LoadFloat_@3:
  00290	c6 45 e7 ea	 mov	 BYTE PTR __k$[ebp+15], -22 ; ffffffeaH
  00294	eb 52		 jmp	 SHORT $LN1@LoadFloat_@3
$LN82@LoadFloat_@3:
  00296	88 5d e6	 mov	 BYTE PTR __k$[ebp+14], bl
  00299	eb 4d		 jmp	 SHORT $LN1@LoadFloat_@3
$LN83@LoadFloat_@3:
  0029b	88 4d e5	 mov	 BYTE PTR __k$[ebp+13], cl
  0029e	eb 48		 jmp	 SHORT $LN1@LoadFloat_@3
$LN84@LoadFloat_@3:
  002a0	c6 45 e4 ed	 mov	 BYTE PTR __k$[ebp+12], -19 ; ffffffedH
  002a4	eb 42		 jmp	 SHORT $LN1@LoadFloat_@3
$LN85@LoadFloat_@3:
  002a6	c6 45 e3 ea	 mov	 BYTE PTR __k$[ebp+11], -22 ; ffffffeaH
  002aa	eb 3c		 jmp	 SHORT $LN1@LoadFloat_@3
$LN86@LoadFloat_@3:
  002ac	88 5d e2	 mov	 BYTE PTR __k$[ebp+10], bl
  002af	eb 37		 jmp	 SHORT $LN1@LoadFloat_@3
$LN87@LoadFloat_@3:
  002b1	88 4d e1	 mov	 BYTE PTR __k$[ebp+9], cl
  002b4	eb 32		 jmp	 SHORT $LN1@LoadFloat_@3
$LN88@LoadFloat_@3:
  002b6	c6 45 e0 ed	 mov	 BYTE PTR __k$[ebp+8], -19 ; ffffffedH
  002ba	eb 2c		 jmp	 SHORT $LN1@LoadFloat_@3
$LN89@LoadFloat_@3:
  002bc	c6 45 df ea	 mov	 BYTE PTR __k$[ebp+7], -22 ; ffffffeaH
  002c0	eb 26		 jmp	 SHORT $LN1@LoadFloat_@3
$LN90@LoadFloat_@3:
  002c2	88 5d de	 mov	 BYTE PTR __k$[ebp+6], bl
  002c5	eb 21		 jmp	 SHORT $LN1@LoadFloat_@3
$LN91@LoadFloat_@3:
  002c7	88 4d dd	 mov	 BYTE PTR __k$[ebp+5], cl
  002ca	eb 1c		 jmp	 SHORT $LN1@LoadFloat_@3
$LN92@LoadFloat_@3:
  002cc	c6 45 dc ed	 mov	 BYTE PTR __k$[ebp+4], -19 ; ffffffedH
  002d0	eb 16		 jmp	 SHORT $LN1@LoadFloat_@3
$LN93@LoadFloat_@3:
  002d2	c6 45 db ea	 mov	 BYTE PTR __k$[ebp+3], -22 ; ffffffeaH
  002d6	eb 10		 jmp	 SHORT $LN1@LoadFloat_@3
$LN94@LoadFloat_@3:
  002d8	c6 45 da eb	 mov	 BYTE PTR __k$[ebp+2], -21 ; ffffffebH
  002dc	eb 0a		 jmp	 SHORT $LN1@LoadFloat_@3
$LN95@LoadFloat_@3:
  002de	c6 45 d9 ec	 mov	 BYTE PTR __k$[ebp+1], -20 ; ffffffecH
  002e2	eb 04		 jmp	 SHORT $LN1@LoadFloat_@3
$LN96@LoadFloat_@3:
  002e4	c6 45 d8 ed	 mov	 BYTE PTR __k$[ebp], -19	; ffffffedH
$LN1@LoadFloat_@3:
  002e8	6a 07		 push	 7
  002ea	8d 45 d8	 lea	 eax, DWORD PTR __k$[ebp]
  002ed	c6 45 f4 00	 mov	 BYTE PTR __k$[ebp+28], 0
  002f1	5a		 pop	 edx
$LL104@LoadFloat_@3:
  002f2	81 30 ed ec eb
	ea		 xor	 DWORD PTR [eax], -353637139 ; eaebecedH
  002f8	83 c0 04	 add	 eax, 4
  002fb	4a		 dec	 edx
  002fc	75 f4		 jne	 SHORT $LL104@LoadFloat_@3

; 137  : 		return LoadFloat(_k, f);

  002fe	f3 0f 10 45 0c	 movss	 xmm0, DWORD PTR _f$[ebp]
  00303	51		 push	 ecx
  00304	8d 45 d8	 lea	 eax, DWORD PTR __k$[ebp]
  00307	f3 0f 11 04 24	 movss	 DWORD PTR [esp], xmm0
  0030c	50		 push	 eax
  0030d	8b ce		 mov	 ecx, esi
  0030f	ff 15 00 00 00
	00		 call	 DWORD PTR __imp_?LoadFloat@ioINILoader@@QAEMPBDM@Z

; 138  : 	}

  00315	8b 4d fc	 mov	 ecx, DWORD PTR __$ArrayPad$[ebp]
  00318	5e		 pop	 esi
  00319	33 cd		 xor	 ecx, ebp
  0031b	5b		 pop	 ebx
  0031c	e8 00 00 00 00	 call	 @__security_check_cookie@4
  00321	c9		 leave
  00322	c2 08 00	 ret	 8
??$LoadFloat_e@$0BN@@ioINILoader@@QAEMAAY0BN@$$CBDM@Z ENDP ; ioINILoader::LoadFloat_e<29>
_TEXT	ENDS
PUBLIC	__$ArrayPad$
PUBLIC	??$LoadFloat_e@$0BC@@ioINILoader@@QAEMAAY0BC@$$CBDM@Z ; ioINILoader::LoadFloat_e<18>
; Function compile flags: /Ogsp
;	COMDAT ??$LoadFloat_e@$0BC@@ioINILoader@@QAEMAAY0BC@$$CBDM@Z
_TEXT	SEGMENT
__k$ = -28						; size = 18
__$ArrayPad$ = -4					; size = 4
_k$ = 8							; size = 4
_f$ = 12						; size = 4
??$LoadFloat_e@$0BC@@ioINILoader@@QAEMAAY0BC@$$CBDM@Z PROC ; ioINILoader::LoadFloat_e<18>, COMDAT
; _this$ = ecx

; 135  : 	{

  00000	55		 push	 ebp
  00001	8b ec		 mov	 ebp, esp
  00003	83 ec 1c	 sub	 esp, 28			; 0000001cH
  00006	a1 00 00 00 00	 mov	 eax, DWORD PTR ___security_cookie
  0000b	33 c5		 xor	 eax, ebp
  0000d	89 45 fc	 mov	 DWORD PTR __$ArrayPad$[ebp], eax
  00010	8b 45 08	 mov	 eax, DWORD PTR _k$[ebp]

; 136  : 		_ENCSTR(k, _k);

  00013	8a 10		 mov	 dl, BYTE PTR [eax]
  00015	56		 push	 esi
  00016	8b f1		 mov	 esi, ecx
  00018	84 d2		 test	 dl, dl
  0001a	0f 84 be 01 00
	00		 je	 $LN96@LoadFloat_@4
  00020	80 f2 ed	 xor	 dl, -19			; ffffffedH
  00023	88 55 e4	 mov	 BYTE PTR __k$[ebp], dl
  00026	8a 50 01	 mov	 dl, BYTE PTR [eax+1]
  00029	84 d2		 test	 dl, dl
  0002b	0f 84 a7 01 00
	00		 je	 $LN95@LoadFloat_@4
  00031	80 f2 ec	 xor	 dl, -20			; ffffffecH
  00034	88 55 e5	 mov	 BYTE PTR __k$[ebp+1], dl
  00037	8a 50 02	 mov	 dl, BYTE PTR [eax+2]
  0003a	84 d2		 test	 dl, dl
  0003c	0f 84 90 01 00
	00		 je	 $LN94@LoadFloat_@4
  00042	b1 eb		 mov	 cl, -21			; ffffffebH
  00044	32 d1		 xor	 dl, cl
  00046	88 55 e6	 mov	 BYTE PTR __k$[ebp+2], dl
  00049	8a 50 03	 mov	 dl, BYTE PTR [eax+3]
  0004c	84 d2		 test	 dl, dl
  0004e	0f 84 78 01 00
	00		 je	 $LN93@LoadFloat_@4
  00054	80 f2 ea	 xor	 dl, -22			; ffffffeaH
  00057	88 55 e7	 mov	 BYTE PTR __k$[ebp+3], dl
  0005a	8a 50 04	 mov	 dl, BYTE PTR [eax+4]
  0005d	84 d2		 test	 dl, dl
  0005f	0f 84 61 01 00
	00		 je	 $LN92@LoadFloat_@4
  00065	80 f2 ed	 xor	 dl, -19			; ffffffedH
  00068	88 55 e8	 mov	 BYTE PTR __k$[ebp+4], dl
  0006b	8a 50 05	 mov	 dl, BYTE PTR [eax+5]
  0006e	84 d2		 test	 dl, dl
  00070	0f 84 4a 01 00
	00		 je	 $LN91@LoadFloat_@4
  00076	80 f2 ec	 xor	 dl, -20			; ffffffecH
  00079	88 55 e9	 mov	 BYTE PTR __k$[ebp+5], dl
  0007c	8a 50 06	 mov	 dl, BYTE PTR [eax+6]
  0007f	84 d2		 test	 dl, dl
  00081	0f 84 34 01 00
	00		 je	 $LN90@LoadFloat_@4
  00087	32 d1		 xor	 dl, cl
  00089	88 55 ea	 mov	 BYTE PTR __k$[ebp+6], dl
  0008c	8a 50 07	 mov	 dl, BYTE PTR [eax+7]
  0008f	84 d2		 test	 dl, dl
  00091	0f 84 1e 01 00
	00		 je	 $LN89@LoadFloat_@4
  00097	80 f2 ea	 xor	 dl, -22			; ffffffeaH
  0009a	88 55 eb	 mov	 BYTE PTR __k$[ebp+7], dl
  0009d	8a 50 08	 mov	 dl, BYTE PTR [eax+8]
  000a0	84 d2		 test	 dl, dl
  000a2	0f 84 07 01 00
	00		 je	 $LN88@LoadFloat_@4
  000a8	80 f2 ed	 xor	 dl, -19			; ffffffedH
  000ab	88 55 ec	 mov	 BYTE PTR __k$[ebp+8], dl
  000ae	8a 50 09	 mov	 dl, BYTE PTR [eax+9]
  000b1	84 d2		 test	 dl, dl
  000b3	0f 84 f0 00 00
	00		 je	 $LN87@LoadFloat_@4
  000b9	80 f2 ec	 xor	 dl, -20			; ffffffecH
  000bc	88 55 ed	 mov	 BYTE PTR __k$[ebp+9], dl
  000bf	8a 50 0a	 mov	 dl, BYTE PTR [eax+10]
  000c2	84 d2		 test	 dl, dl
  000c4	0f 84 da 00 00
	00		 je	 $LN86@LoadFloat_@4
  000ca	32 d1		 xor	 dl, cl
  000cc	88 55 ee	 mov	 BYTE PTR __k$[ebp+10], dl
  000cf	8a 50 0b	 mov	 dl, BYTE PTR [eax+11]
  000d2	84 d2		 test	 dl, dl
  000d4	0f 84 c4 00 00
	00		 je	 $LN85@LoadFloat_@4
  000da	80 f2 ea	 xor	 dl, -22			; ffffffeaH
  000dd	88 55 ef	 mov	 BYTE PTR __k$[ebp+11], dl
  000e0	8a 50 0c	 mov	 dl, BYTE PTR [eax+12]
  000e3	84 d2		 test	 dl, dl
  000e5	0f 84 ad 00 00
	00		 je	 $LN84@LoadFloat_@4
  000eb	80 f2 ed	 xor	 dl, -19			; ffffffedH
  000ee	88 55 f0	 mov	 BYTE PTR __k$[ebp+12], dl
  000f1	8a 50 0d	 mov	 dl, BYTE PTR [eax+13]
  000f4	84 d2		 test	 dl, dl
  000f6	0f 84 96 00 00
	00		 je	 $LN83@LoadFloat_@4
  000fc	80 f2 ec	 xor	 dl, -20			; ffffffecH
  000ff	88 55 f1	 mov	 BYTE PTR __k$[ebp+13], dl
  00102	8a 50 0e	 mov	 dl, BYTE PTR [eax+14]
  00105	84 d2		 test	 dl, dl
  00107	0f 84 80 00 00
	00		 je	 $LN82@LoadFloat_@4
  0010d	32 d1		 xor	 dl, cl
  0010f	88 55 f2	 mov	 BYTE PTR __k$[ebp+14], dl
  00112	8a 50 0f	 mov	 dl, BYTE PTR [eax+15]
  00115	84 d2		 test	 dl, dl
  00117	74 6e		 je	 SHORT $LN81@LoadFloat_@4
  00119	80 f2 ea	 xor	 dl, -22			; ffffffeaH
  0011c	88 55 f3	 mov	 BYTE PTR __k$[ebp+15], dl
  0011f	8a 50 10	 mov	 dl, BYTE PTR [eax+16]
  00122	84 d2		 test	 dl, dl
  00124	74 5b		 je	 SHORT $LN80@LoadFloat_@4
  00126	80 f2 ed	 xor	 dl, -19			; ffffffedH
  00129	80 78 11 00	 cmp	 BYTE PTR [eax+17], 0
  0012d	88 55 f4	 mov	 BYTE PTR __k$[ebp+16], dl
  00130	0f 84 ac 00 00
	00		 je	 $LN1@LoadFloat_@4
  00136	8a 50 12	 mov	 dl, BYTE PTR [eax+18]
  00139	84 d2		 test	 dl, dl
  0013b	74 3f		 je	 SHORT $LN78@LoadFloat_@4
  0013d	32 d1		 xor	 dl, cl
  0013f	88 55 f6	 mov	 BYTE PTR __k$[ebp+18], dl
  00142	8a 50 13	 mov	 dl, BYTE PTR [eax+19]
  00145	84 d2		 test	 dl, dl
  00147	74 2d		 je	 SHORT $LN77@LoadFloat_@4
  00149	80 f2 ea	 xor	 dl, -22			; ffffffeaH
  0014c	88 55 f7	 mov	 BYTE PTR __k$[ebp+19], dl
  0014f	8a 50 14	 mov	 dl, BYTE PTR [eax+20]
  00152	84 d2		 test	 dl, dl
  00154	74 1a		 je	 SHORT $LN76@LoadFloat_@4
  00156	8a 40 15	 mov	 al, BYTE PTR [eax+21]
  00159	80 f2 ed	 xor	 dl, -19			; ffffffedH
  0015c	88 55 f8	 mov	 BYTE PTR __k$[ebp+20], dl
  0015f	84 c0		 test	 al, al
  00161	74 07		 je	 SHORT $LN75@LoadFloat_@4
  00163	34 ec		 xor	 al, -20			; ffffffecH
  00165	88 45 f9	 mov	 BYTE PTR __k$[ebp+21], al
  00168	eb 78		 jmp	 SHORT $LN1@LoadFloat_@4
$LN75@LoadFloat_@4:
  0016a	c6 45 f9 ec	 mov	 BYTE PTR __k$[ebp+21], -20 ; ffffffecH
  0016e	eb 72		 jmp	 SHORT $LN1@LoadFloat_@4
$LN76@LoadFloat_@4:
  00170	c6 45 f8 ed	 mov	 BYTE PTR __k$[ebp+20], -19 ; ffffffedH
  00174	eb 6c		 jmp	 SHORT $LN1@LoadFloat_@4
$LN77@LoadFloat_@4:
  00176	c6 45 f7 ea	 mov	 BYTE PTR __k$[ebp+19], -22 ; ffffffeaH
  0017a	eb 66		 jmp	 SHORT $LN1@LoadFloat_@4
$LN78@LoadFloat_@4:
  0017c	88 4d f6	 mov	 BYTE PTR __k$[ebp+18], cl
  0017f	eb 61		 jmp	 SHORT $LN1@LoadFloat_@4
$LN80@LoadFloat_@4:
  00181	c6 45 f4 ed	 mov	 BYTE PTR __k$[ebp+16], -19 ; ffffffedH
  00185	eb 5b		 jmp	 SHORT $LN1@LoadFloat_@4
$LN81@LoadFloat_@4:
  00187	c6 45 f3 ea	 mov	 BYTE PTR __k$[ebp+15], -22 ; ffffffeaH
  0018b	eb 55		 jmp	 SHORT $LN1@LoadFloat_@4
$LN82@LoadFloat_@4:
  0018d	88 4d f2	 mov	 BYTE PTR __k$[ebp+14], cl
  00190	eb 50		 jmp	 SHORT $LN1@LoadFloat_@4
$LN83@LoadFloat_@4:
  00192	c6 45 f1 ec	 mov	 BYTE PTR __k$[ebp+13], -20 ; ffffffecH
  00196	eb 4a		 jmp	 SHORT $LN1@LoadFloat_@4
$LN84@LoadFloat_@4:
  00198	c6 45 f0 ed	 mov	 BYTE PTR __k$[ebp+12], -19 ; ffffffedH
  0019c	eb 44		 jmp	 SHORT $LN1@LoadFloat_@4
$LN85@LoadFloat_@4:
  0019e	c6 45 ef ea	 mov	 BYTE PTR __k$[ebp+11], -22 ; ffffffeaH
  001a2	eb 3e		 jmp	 SHORT $LN1@LoadFloat_@4
$LN86@LoadFloat_@4:
  001a4	88 4d ee	 mov	 BYTE PTR __k$[ebp+10], cl
  001a7	eb 39		 jmp	 SHORT $LN1@LoadFloat_@4
$LN87@LoadFloat_@4:
  001a9	c6 45 ed ec	 mov	 BYTE PTR __k$[ebp+9], -20 ; ffffffecH
  001ad	eb 33		 jmp	 SHORT $LN1@LoadFloat_@4
$LN88@LoadFloat_@4:
  001af	c6 45 ec ed	 mov	 BYTE PTR __k$[ebp+8], -19 ; ffffffedH
  001b3	eb 2d		 jmp	 SHORT $LN1@LoadFloat_@4
$LN89@LoadFloat_@4:
  001b5	c6 45 eb ea	 mov	 BYTE PTR __k$[ebp+7], -22 ; ffffffeaH
  001b9	eb 27		 jmp	 SHORT $LN1@LoadFloat_@4
$LN90@LoadFloat_@4:
  001bb	88 4d ea	 mov	 BYTE PTR __k$[ebp+6], cl
  001be	eb 22		 jmp	 SHORT $LN1@LoadFloat_@4
$LN91@LoadFloat_@4:
  001c0	c6 45 e9 ec	 mov	 BYTE PTR __k$[ebp+5], -20 ; ffffffecH
  001c4	eb 1c		 jmp	 SHORT $LN1@LoadFloat_@4
$LN92@LoadFloat_@4:
  001c6	c6 45 e8 ed	 mov	 BYTE PTR __k$[ebp+4], -19 ; ffffffedH
  001ca	eb 16		 jmp	 SHORT $LN1@LoadFloat_@4
$LN93@LoadFloat_@4:
  001cc	c6 45 e7 ea	 mov	 BYTE PTR __k$[ebp+3], -22 ; ffffffeaH
  001d0	eb 10		 jmp	 SHORT $LN1@LoadFloat_@4
$LN94@LoadFloat_@4:
  001d2	c6 45 e6 eb	 mov	 BYTE PTR __k$[ebp+2], -21 ; ffffffebH
  001d6	eb 0a		 jmp	 SHORT $LN1@LoadFloat_@4
$LN95@LoadFloat_@4:
  001d8	c6 45 e5 ec	 mov	 BYTE PTR __k$[ebp+1], -20 ; ffffffecH
  001dc	eb 04		 jmp	 SHORT $LN1@LoadFloat_@4
$LN96@LoadFloat_@4:
  001de	c6 45 e4 ed	 mov	 BYTE PTR __k$[ebp], -19	; ffffffedH
$LN1@LoadFloat_@4:
  001e2	6a 04		 push	 4
  001e4	8d 45 e4	 lea	 eax, DWORD PTR __k$[ebp]
  001e7	c6 45 f5 00	 mov	 BYTE PTR __k$[ebp+17], 0
  001eb	5a		 pop	 edx
$LL104@LoadFloat_@4:
  001ec	81 30 ed ec eb
	ea		 xor	 DWORD PTR [eax], -353637139 ; eaebecedH
  001f2	83 c0 04	 add	 eax, 4
  001f5	4a		 dec	 edx
  001f6	75 f4		 jne	 SHORT $LL104@LoadFloat_@4

; 137  : 		return LoadFloat(_k, f);

  001f8	f3 0f 10 45 0c	 movss	 xmm0, DWORD PTR _f$[ebp]
  001fd	80 75 f4 ed	 xor	 BYTE PTR __k$[ebp+16], -19 ; ffffffedH
  00201	51		 push	 ecx
  00202	8d 45 e4	 lea	 eax, DWORD PTR __k$[ebp]
  00205	f3 0f 11 04 24	 movss	 DWORD PTR [esp], xmm0
  0020a	50		 push	 eax
  0020b	8b ce		 mov	 ecx, esi
  0020d	ff 15 00 00 00
	00		 call	 DWORD PTR __imp_?LoadFloat@ioINILoader@@QAEMPBDM@Z

; 138  : 	}

  00213	8b 4d fc	 mov	 ecx, DWORD PTR __$ArrayPad$[ebp]
  00216	33 cd		 xor	 ecx, ebp
  00218	5e		 pop	 esi
  00219	e8 00 00 00 00	 call	 @__security_check_cookie@4
  0021e	c9		 leave
  0021f	c2 08 00	 ret	 8
??$LoadFloat_e@$0BC@@ioINILoader@@QAEMAAY0BC@$$CBDM@Z ENDP ; ioINILoader::LoadFloat_e<18>
_TEXT	ENDS
PUBLIC	__$ArrayPad$
PUBLIC	??$LoadFloat_e@$0BH@@ioINILoader@@QAEMAAY0BH@$$CBDM@Z ; ioINILoader::LoadFloat_e<23>
; Function compile flags: /Ogsp
;	COMDAT ??$LoadFloat_e@$0BH@@ioINILoader@@QAEMAAY0BH@$$CBDM@Z
_TEXT	SEGMENT
__k$ = -32						; size = 23
__$ArrayPad$ = -4					; size = 4
_k$ = 8							; size = 4
_f$ = 12						; size = 4
??$LoadFloat_e@$0BH@@ioINILoader@@QAEMAAY0BH@$$CBDM@Z PROC ; ioINILoader::LoadFloat_e<23>, COMDAT
; _this$ = ecx

; 135  : 	{

  00000	55		 push	 ebp
  00001	8b ec		 mov	 ebp, esp
  00003	83 ec 20	 sub	 esp, 32			; 00000020H
  00006	a1 00 00 00 00	 mov	 eax, DWORD PTR ___security_cookie
  0000b	33 c5		 xor	 eax, ebp
  0000d	89 45 fc	 mov	 DWORD PTR __$ArrayPad$[ebp], eax
  00010	8b 45 08	 mov	 eax, DWORD PTR _k$[ebp]

; 136  : 		_ENCSTR(k, _k);

  00013	8a 10		 mov	 dl, BYTE PTR [eax]
  00015	53		 push	 ebx
  00016	56		 push	 esi
  00017	8b f1		 mov	 esi, ecx
  00019	84 d2		 test	 dl, dl
  0001b	0f 84 2d 02 00
	00		 je	 $LN96@LoadFloat_@5
  00021	80 f2 ed	 xor	 dl, -19			; ffffffedH
  00024	88 55 e0	 mov	 BYTE PTR __k$[ebp], dl
  00027	8a 50 01	 mov	 dl, BYTE PTR [eax+1]
  0002a	84 d2		 test	 dl, dl
  0002c	0f 84 16 02 00
	00		 je	 $LN95@LoadFloat_@5
  00032	b1 ec		 mov	 cl, -20			; ffffffecH
  00034	32 d1		 xor	 dl, cl
  00036	88 55 e1	 mov	 BYTE PTR __k$[ebp+1], dl
  00039	8a 50 02	 mov	 dl, BYTE PTR [eax+2]
  0003c	84 d2		 test	 dl, dl
  0003e	0f 84 fe 01 00
	00		 je	 $LN94@LoadFloat_@5
  00044	80 f2 eb	 xor	 dl, -21			; ffffffebH
  00047	88 55 e2	 mov	 BYTE PTR __k$[ebp+2], dl
  0004a	8a 50 03	 mov	 dl, BYTE PTR [eax+3]
  0004d	84 d2		 test	 dl, dl
  0004f	0f 84 e7 01 00
	00		 je	 $LN93@LoadFloat_@5
  00055	b3 ea		 mov	 bl, -22			; ffffffeaH
  00057	32 d3		 xor	 dl, bl
  00059	88 55 e3	 mov	 BYTE PTR __k$[ebp+3], dl
  0005c	8a 50 04	 mov	 dl, BYTE PTR [eax+4]
  0005f	84 d2		 test	 dl, dl
  00061	0f 84 cf 01 00
	00		 je	 $LN92@LoadFloat_@5
  00067	80 f2 ed	 xor	 dl, -19			; ffffffedH
  0006a	88 55 e4	 mov	 BYTE PTR __k$[ebp+4], dl
  0006d	8a 50 05	 mov	 dl, BYTE PTR [eax+5]
  00070	84 d2		 test	 dl, dl
  00072	0f 84 b9 01 00
	00		 je	 $LN91@LoadFloat_@5
  00078	32 d1		 xor	 dl, cl
  0007a	88 55 e5	 mov	 BYTE PTR __k$[ebp+5], dl
  0007d	8a 50 06	 mov	 dl, BYTE PTR [eax+6]
  00080	84 d2		 test	 dl, dl
  00082	0f 84 a3 01 00
	00		 je	 $LN90@LoadFloat_@5
  00088	80 f2 eb	 xor	 dl, -21			; ffffffebH
  0008b	88 55 e6	 mov	 BYTE PTR __k$[ebp+6], dl
  0008e	8a 50 07	 mov	 dl, BYTE PTR [eax+7]
  00091	84 d2		 test	 dl, dl
  00093	0f 84 8d 01 00
	00		 je	 $LN89@LoadFloat_@5
  00099	32 d3		 xor	 dl, bl
  0009b	88 55 e7	 mov	 BYTE PTR __k$[ebp+7], dl
  0009e	8a 50 08	 mov	 dl, BYTE PTR [eax+8]
  000a1	84 d2		 test	 dl, dl
  000a3	0f 84 77 01 00
	00		 je	 $LN88@LoadFloat_@5
  000a9	80 f2 ed	 xor	 dl, -19			; ffffffedH
  000ac	88 55 e8	 mov	 BYTE PTR __k$[ebp+8], dl
  000af	8a 50 09	 mov	 dl, BYTE PTR [eax+9]
  000b2	84 d2		 test	 dl, dl
  000b4	0f 84 61 01 00
	00		 je	 $LN87@LoadFloat_@5
  000ba	32 d1		 xor	 dl, cl
  000bc	88 55 e9	 mov	 BYTE PTR __k$[ebp+9], dl
  000bf	8a 50 0a	 mov	 dl, BYTE PTR [eax+10]
  000c2	84 d2		 test	 dl, dl
  000c4	0f 84 4b 01 00
	00		 je	 $LN86@LoadFloat_@5
  000ca	80 f2 eb	 xor	 dl, -21			; ffffffebH
  000cd	88 55 ea	 mov	 BYTE PTR __k$[ebp+10], dl
  000d0	8a 50 0b	 mov	 dl, BYTE PTR [eax+11]
  000d3	84 d2		 test	 dl, dl
  000d5	0f 84 35 01 00
	00		 je	 $LN85@LoadFloat_@5
  000db	32 d3		 xor	 dl, bl
  000dd	88 55 eb	 mov	 BYTE PTR __k$[ebp+11], dl
  000e0	8a 50 0c	 mov	 dl, BYTE PTR [eax+12]
  000e3	84 d2		 test	 dl, dl
  000e5	0f 84 1f 01 00
	00		 je	 $LN84@LoadFloat_@5
  000eb	80 f2 ed	 xor	 dl, -19			; ffffffedH
  000ee	88 55 ec	 mov	 BYTE PTR __k$[ebp+12], dl
  000f1	8a 50 0d	 mov	 dl, BYTE PTR [eax+13]
  000f4	84 d2		 test	 dl, dl
  000f6	0f 84 09 01 00
	00		 je	 $LN83@LoadFloat_@5
  000fc	32 d1		 xor	 dl, cl
  000fe	88 55 ed	 mov	 BYTE PTR __k$[ebp+13], dl
  00101	8a 50 0e	 mov	 dl, BYTE PTR [eax+14]
  00104	84 d2		 test	 dl, dl
  00106	0f 84 f3 00 00
	00		 je	 $LN82@LoadFloat_@5
  0010c	80 f2 eb	 xor	 dl, -21			; ffffffebH
  0010f	88 55 ee	 mov	 BYTE PTR __k$[ebp+14], dl
  00112	8a 50 0f	 mov	 dl, BYTE PTR [eax+15]
  00115	84 d2		 test	 dl, dl
  00117	0f 84 dd 00 00
	00		 je	 $LN81@LoadFloat_@5
  0011d	32 d3		 xor	 dl, bl
  0011f	88 55 ef	 mov	 BYTE PTR __k$[ebp+15], dl
  00122	8a 50 10	 mov	 dl, BYTE PTR [eax+16]
  00125	84 d2		 test	 dl, dl
  00127	0f 84 c7 00 00
	00		 je	 $LN80@LoadFloat_@5
  0012d	80 f2 ed	 xor	 dl, -19			; ffffffedH
  00130	88 55 f0	 mov	 BYTE PTR __k$[ebp+16], dl
  00133	8a 50 11	 mov	 dl, BYTE PTR [eax+17]
  00136	84 d2		 test	 dl, dl
  00138	0f 84 b1 00 00
	00		 je	 $LN79@LoadFloat_@5
  0013e	32 d1		 xor	 dl, cl
  00140	88 55 f1	 mov	 BYTE PTR __k$[ebp+17], dl
  00143	8a 50 12	 mov	 dl, BYTE PTR [eax+18]
  00146	84 d2		 test	 dl, dl
  00148	0f 84 9b 00 00
	00		 je	 $LN78@LoadFloat_@5
  0014e	80 f2 eb	 xor	 dl, -21			; ffffffebH
  00151	88 55 f2	 mov	 BYTE PTR __k$[ebp+18], dl
  00154	8a 50 13	 mov	 dl, BYTE PTR [eax+19]
  00157	84 d2		 test	 dl, dl
  00159	0f 84 85 00 00
	00		 je	 $LN77@LoadFloat_@5
  0015f	32 d3		 xor	 dl, bl
  00161	88 55 f3	 mov	 BYTE PTR __k$[ebp+19], dl
  00164	8a 50 14	 mov	 dl, BYTE PTR [eax+20]
  00167	84 d2		 test	 dl, dl
  00169	74 73		 je	 SHORT $LN76@LoadFloat_@5
  0016b	80 f2 ed	 xor	 dl, -19			; ffffffedH
  0016e	88 55 f4	 mov	 BYTE PTR __k$[ebp+20], dl
  00171	8a 50 15	 mov	 dl, BYTE PTR [eax+21]
  00174	84 d2		 test	 dl, dl
  00176	74 61		 je	 SHORT $LN75@LoadFloat_@5
  00178	32 d1		 xor	 dl, cl
  0017a	80 78 16 00	 cmp	 BYTE PTR [eax+22], 0
  0017e	88 55 f5	 mov	 BYTE PTR __k$[ebp+21], dl
  00181	0f 84 cb 00 00
	00		 je	 $LN1@LoadFloat_@5
  00187	8a 50 17	 mov	 dl, BYTE PTR [eax+23]
  0018a	84 d2		 test	 dl, dl
  0018c	74 46		 je	 SHORT $LN73@LoadFloat_@5
  0018e	32 d3		 xor	 dl, bl
  00190	88 55 f7	 mov	 BYTE PTR __k$[ebp+23], dl
  00193	8a 50 18	 mov	 dl, BYTE PTR [eax+24]
  00196	84 d2		 test	 dl, dl
  00198	74 34		 je	 SHORT $LN72@LoadFloat_@5
  0019a	80 f2 ed	 xor	 dl, -19			; ffffffedH
  0019d	88 55 f8	 mov	 BYTE PTR __k$[ebp+24], dl
  001a0	8a 50 19	 mov	 dl, BYTE PTR [eax+25]
  001a3	84 d2		 test	 dl, dl
  001a5	74 1f		 je	 SHORT $LN71@LoadFloat_@5
  001a7	8a 40 1a	 mov	 al, BYTE PTR [eax+26]
  001aa	32 d1		 xor	 dl, cl
  001ac	88 55 f9	 mov	 BYTE PTR __k$[ebp+25], dl
  001af	84 c0		 test	 al, al
  001b1	74 0a		 je	 SHORT $LN70@LoadFloat_@5
  001b3	34 eb		 xor	 al, -21			; ffffffebH
  001b5	88 45 fa	 mov	 BYTE PTR __k$[ebp+26], al
  001b8	e9 95 00 00 00	 jmp	 $LN1@LoadFloat_@5
$LN70@LoadFloat_@5:
  001bd	c6 45 fa eb	 mov	 BYTE PTR __k$[ebp+26], -21 ; ffffffebH
  001c1	e9 8c 00 00 00	 jmp	 $LN1@LoadFloat_@5
$LN71@LoadFloat_@5:
  001c6	88 4d f9	 mov	 BYTE PTR __k$[ebp+25], cl
  001c9	e9 84 00 00 00	 jmp	 $LN1@LoadFloat_@5
$LN72@LoadFloat_@5:
  001ce	c6 45 f8 ed	 mov	 BYTE PTR __k$[ebp+24], -19 ; ffffffedH
  001d2	eb 7e		 jmp	 SHORT $LN1@LoadFloat_@5
$LN73@LoadFloat_@5:
  001d4	88 5d f7	 mov	 BYTE PTR __k$[ebp+23], bl
  001d7	eb 79		 jmp	 SHORT $LN1@LoadFloat_@5
$LN75@LoadFloat_@5:
  001d9	88 4d f5	 mov	 BYTE PTR __k$[ebp+21], cl
  001dc	eb 74		 jmp	 SHORT $LN1@LoadFloat_@5
$LN76@LoadFloat_@5:
  001de	c6 45 f4 ed	 mov	 BYTE PTR __k$[ebp+20], -19 ; ffffffedH
  001e2	eb 6e		 jmp	 SHORT $LN1@LoadFloat_@5
$LN77@LoadFloat_@5:
  001e4	88 5d f3	 mov	 BYTE PTR __k$[ebp+19], bl
  001e7	eb 69		 jmp	 SHORT $LN1@LoadFloat_@5
$LN78@LoadFloat_@5:
  001e9	c6 45 f2 eb	 mov	 BYTE PTR __k$[ebp+18], -21 ; ffffffebH
  001ed	eb 63		 jmp	 SHORT $LN1@LoadFloat_@5
$LN79@LoadFloat_@5:
  001ef	88 4d f1	 mov	 BYTE PTR __k$[ebp+17], cl
  001f2	eb 5e		 jmp	 SHORT $LN1@LoadFloat_@5
$LN80@LoadFloat_@5:
  001f4	c6 45 f0 ed	 mov	 BYTE PTR __k$[ebp+16], -19 ; ffffffedH
  001f8	eb 58		 jmp	 SHORT $LN1@LoadFloat_@5
$LN81@LoadFloat_@5:
  001fa	88 5d ef	 mov	 BYTE PTR __k$[ebp+15], bl
  001fd	eb 53		 jmp	 SHORT $LN1@LoadFloat_@5
$LN82@LoadFloat_@5:
  001ff	c6 45 ee eb	 mov	 BYTE PTR __k$[ebp+14], -21 ; ffffffebH
  00203	eb 4d		 jmp	 SHORT $LN1@LoadFloat_@5
$LN83@LoadFloat_@5:
  00205	88 4d ed	 mov	 BYTE PTR __k$[ebp+13], cl
  00208	eb 48		 jmp	 SHORT $LN1@LoadFloat_@5
$LN84@LoadFloat_@5:
  0020a	c6 45 ec ed	 mov	 BYTE PTR __k$[ebp+12], -19 ; ffffffedH
  0020e	eb 42		 jmp	 SHORT $LN1@LoadFloat_@5
$LN85@LoadFloat_@5:
  00210	88 5d eb	 mov	 BYTE PTR __k$[ebp+11], bl
  00213	eb 3d		 jmp	 SHORT $LN1@LoadFloat_@5
$LN86@LoadFloat_@5:
  00215	c6 45 ea eb	 mov	 BYTE PTR __k$[ebp+10], -21 ; ffffffebH
  00219	eb 37		 jmp	 SHORT $LN1@LoadFloat_@5
$LN87@LoadFloat_@5:
  0021b	88 4d e9	 mov	 BYTE PTR __k$[ebp+9], cl
  0021e	eb 32		 jmp	 SHORT $LN1@LoadFloat_@5
$LN88@LoadFloat_@5:
  00220	c6 45 e8 ed	 mov	 BYTE PTR __k$[ebp+8], -19 ; ffffffedH
  00224	eb 2c		 jmp	 SHORT $LN1@LoadFloat_@5
$LN89@LoadFloat_@5:
  00226	88 5d e7	 mov	 BYTE PTR __k$[ebp+7], bl
  00229	eb 27		 jmp	 SHORT $LN1@LoadFloat_@5
$LN90@LoadFloat_@5:
  0022b	c6 45 e6 eb	 mov	 BYTE PTR __k$[ebp+6], -21 ; ffffffebH
  0022f	eb 21		 jmp	 SHORT $LN1@LoadFloat_@5
$LN91@LoadFloat_@5:
  00231	88 4d e5	 mov	 BYTE PTR __k$[ebp+5], cl
  00234	eb 1c		 jmp	 SHORT $LN1@LoadFloat_@5
$LN92@LoadFloat_@5:
  00236	c6 45 e4 ed	 mov	 BYTE PTR __k$[ebp+4], -19 ; ffffffedH
  0023a	eb 16		 jmp	 SHORT $LN1@LoadFloat_@5
$LN93@LoadFloat_@5:
  0023c	c6 45 e3 ea	 mov	 BYTE PTR __k$[ebp+3], -22 ; ffffffeaH
  00240	eb 10		 jmp	 SHORT $LN1@LoadFloat_@5
$LN94@LoadFloat_@5:
  00242	c6 45 e2 eb	 mov	 BYTE PTR __k$[ebp+2], -21 ; ffffffebH
  00246	eb 0a		 jmp	 SHORT $LN1@LoadFloat_@5
$LN95@LoadFloat_@5:
  00248	c6 45 e1 ec	 mov	 BYTE PTR __k$[ebp+1], -20 ; ffffffecH
  0024c	eb 04		 jmp	 SHORT $LN1@LoadFloat_@5
$LN96@LoadFloat_@5:
  0024e	c6 45 e0 ed	 mov	 BYTE PTR __k$[ebp], -19	; ffffffedH
$LN1@LoadFloat_@5:
  00252	6a 05		 push	 5
  00254	8d 45 e0	 lea	 eax, DWORD PTR __k$[ebp]
  00257	c6 45 f6 00	 mov	 BYTE PTR __k$[ebp+22], 0
  0025b	5a		 pop	 edx
$LL104@LoadFloat_@5:
  0025c	81 30 ed ec eb
	ea		 xor	 DWORD PTR [eax], -353637139 ; eaebecedH
  00262	83 c0 04	 add	 eax, 4
  00265	4a		 dec	 edx
  00266	75 f4		 jne	 SHORT $LL104@LoadFloat_@5
  00268	6a 14		 push	 20			; 00000014H
  0026a	58		 pop	 eax
$LL101@LoadFloat_@5:
  0026b	8b c8		 mov	 ecx, eax
  0026d	81 e1 03 00 00
	80		 and	 ecx, -2147483645	; 80000003H
  00273	79 05		 jns	 SHORT $LN111@LoadFloat_@5
  00275	49		 dec	 ecx
  00276	83 c9 fc	 or	 ecx, -4			; fffffffcH
  00279	41		 inc	 ecx
$LN111@LoadFloat_@5:
  0027a	b2 ed		 mov	 dl, -19			; ffffffedH
  0027c	2a d1		 sub	 dl, cl
  0027e	30 54 05 e0	 xor	 BYTE PTR __k$[ebp+eax], dl
  00282	40		 inc	 eax
  00283	83 f8 16	 cmp	 eax, 22			; 00000016H
  00286	7c e3		 jl	 SHORT $LL101@LoadFloat_@5

; 137  : 		return LoadFloat(_k, f);

  00288	f3 0f 10 45 0c	 movss	 xmm0, DWORD PTR _f$[ebp]
  0028d	51		 push	 ecx
  0028e	8d 45 e0	 lea	 eax, DWORD PTR __k$[ebp]
  00291	f3 0f 11 04 24	 movss	 DWORD PTR [esp], xmm0
  00296	50		 push	 eax
  00297	8b ce		 mov	 ecx, esi
  00299	ff 15 00 00 00
	00		 call	 DWORD PTR __imp_?LoadFloat@ioINILoader@@QAEMPBDM@Z

; 138  : 	}

  0029f	8b 4d fc	 mov	 ecx, DWORD PTR __$ArrayPad$[ebp]
  002a2	5e		 pop	 esi
  002a3	33 cd		 xor	 ecx, ebp
  002a5	5b		 pop	 ebx
  002a6	e8 00 00 00 00	 call	 @__security_check_cookie@4
  002ab	c9		 leave
  002ac	c2 08 00	 ret	 8
??$LoadFloat_e@$0BH@@ioINILoader@@QAEMAAY0BH@$$CBDM@Z ENDP ; ioINILoader::LoadFloat_e<23>
_TEXT	ENDS
PUBLIC	??$GetAnimationEventTime_e@$0L@@ioEntityGroup@@QAEMHAAY0L@$$CBD@Z ; ioEntityGroup::GetAnimationEventTime_e<11>
EXTRN	__imp_?GetAnimationEventTime@ioEntityGroup@@QAEMHABVioHashString@@@Z:PROC
EXTRN	__imp_??0ioHashString@@QAE@PBD@Z:PROC
EXTRN	__EH_epilog3_GS:PROC
EXTRN	__EH_prolog3_GS:PROC
;	COMDAT xdata$x
; File d:\lost saga for developer\youtube\tutorial\source\src\lsclient\stringprotect.h
xdata$x	SEGMENT
__unwindtable$??$GetAnimationEventTime_e@$0L@@ioEntityGroup@@QAEMHAAY0L@$$CBD@Z DD 0ffffffffH
	DD	FLAT:__unwindfunclet$??$GetAnimationEventTime_e@$0L@@ioEntityGroup@@QAEMHAAY0L@$$CBD@Z$0
__ehfuncinfo$??$GetAnimationEventTime_e@$0L@@ioEntityGroup@@QAEMHAAY0L@$$CBD@Z DD 019930522H
	DD	01H
	DD	FLAT:__unwindtable$??$GetAnimationEventTime_e@$0L@@ioEntityGroup@@QAEMHAAY0L@$$CBD@Z
	DD	2 DUP(00H)
	DD	2 DUP(00H)
	DD	00H
	DD	01H
; Function compile flags: /Ogsp
; File d:\lost saga for developer\youtube\tutorial\source\src\io3dengine\ioentitygroup.h
xdata$x	ENDS
;	COMDAT ??$GetAnimationEventTime_e@$0L@@ioEntityGroup@@QAEMHAAY0L@$$CBD@Z
_TEXT	SEGMENT
$T614213 = -52						; size = 16
$T614212 = -36						; size = 4
_szEncEventType$ = -32					; size = 11
__$EHRec$ = -12						; size = 12
_id$ = 8						; size = 4
_szEventType$ = 12					; size = 4
??$GetAnimationEventTime_e@$0L@@ioEntityGroup@@QAEMHAAY0L@$$CBD@Z PROC ; ioEntityGroup::GetAnimationEventTime_e<11>, COMDAT
; _this$ = ecx

; 414  : 	{

  00000	6a 28		 push	 40			; 00000028H
  00002	b8 00 00 00 00	 mov	 eax, __ehhandler$??$GetAnimationEventTime_e@$0L@@ioEntityGroup@@QAEMHAAY0L@$$CBD@Z
  00007	e8 00 00 00 00	 call	 __EH_prolog3_GS
  0000c	8b 45 0c	 mov	 eax, DWORD PTR _szEventType$[ebp]
  0000f	8b f1		 mov	 esi, ecx

; 415  : 		_ENCSTR(szEventType, szEncEventType);

  00011	8a 08		 mov	 cl, BYTE PTR [eax]
  00013	84 c9		 test	 cl, cl
  00015	0f 84 1b 01 00
	00		 je	 $LN96@GetAnimati
  0001b	b2 ed		 mov	 dl, -19			; ffffffedH
  0001d	32 ca		 xor	 cl, dl
  0001f	88 4d e0	 mov	 BYTE PTR _szEncEventType$[ebp], cl
  00022	8a 48 01	 mov	 cl, BYTE PTR [eax+1]
  00025	84 c9		 test	 cl, cl
  00027	0f 84 03 01 00
	00		 je	 $LN95@GetAnimati
  0002d	80 f1 ec	 xor	 cl, -20			; ffffffecH
  00030	88 4d e1	 mov	 BYTE PTR _szEncEventType$[ebp+1], cl
  00033	8a 48 02	 mov	 cl, BYTE PTR [eax+2]
  00036	84 c9		 test	 cl, cl
  00038	0f 84 ec 00 00
	00		 je	 $LN94@GetAnimati
  0003e	80 f1 eb	 xor	 cl, -21			; ffffffebH
  00041	88 4d e2	 mov	 BYTE PTR _szEncEventType$[ebp+2], cl
  00044	8a 48 03	 mov	 cl, BYTE PTR [eax+3]
  00047	84 c9		 test	 cl, cl
  00049	0f 84 d5 00 00
	00		 je	 $LN93@GetAnimati
  0004f	80 f1 ea	 xor	 cl, -22			; ffffffeaH
  00052	88 4d e3	 mov	 BYTE PTR _szEncEventType$[ebp+3], cl
  00055	8a 48 04	 mov	 cl, BYTE PTR [eax+4]
  00058	84 c9		 test	 cl, cl
  0005a	0f 84 bf 00 00
	00		 je	 $LN92@GetAnimati
  00060	32 ca		 xor	 cl, dl
  00062	88 4d e4	 mov	 BYTE PTR _szEncEventType$[ebp+4], cl
  00065	8a 48 05	 mov	 cl, BYTE PTR [eax+5]
  00068	84 c9		 test	 cl, cl
  0006a	0f 84 a9 00 00
	00		 je	 $LN91@GetAnimati
  00070	80 f1 ec	 xor	 cl, -20			; ffffffecH
  00073	88 4d e5	 mov	 BYTE PTR _szEncEventType$[ebp+5], cl
  00076	8a 48 06	 mov	 cl, BYTE PTR [eax+6]
  00079	84 c9		 test	 cl, cl
  0007b	0f 84 92 00 00
	00		 je	 $LN90@GetAnimati
  00081	80 f1 eb	 xor	 cl, -21			; ffffffebH
  00084	88 4d e6	 mov	 BYTE PTR _szEncEventType$[ebp+6], cl
  00087	8a 48 07	 mov	 cl, BYTE PTR [eax+7]
  0008a	84 c9		 test	 cl, cl
  0008c	74 7f		 je	 SHORT $LN89@GetAnimati
  0008e	80 f1 ea	 xor	 cl, -22			; ffffffeaH
  00091	88 4d e7	 mov	 BYTE PTR _szEncEventType$[ebp+7], cl
  00094	8a 48 08	 mov	 cl, BYTE PTR [eax+8]
  00097	84 c9		 test	 cl, cl
  00099	74 6d		 je	 SHORT $LN88@GetAnimati
  0009b	32 ca		 xor	 cl, dl
  0009d	88 4d e8	 mov	 BYTE PTR _szEncEventType$[ebp+8], cl
  000a0	8a 48 09	 mov	 cl, BYTE PTR [eax+9]
  000a3	84 c9		 test	 cl, cl
  000a5	74 5b		 je	 SHORT $LN87@GetAnimati
  000a7	80 f1 ec	 xor	 cl, -20			; ffffffecH
  000aa	80 78 0a 00	 cmp	 BYTE PTR [eax+10], 0
  000ae	88 4d e9	 mov	 BYTE PTR _szEncEventType$[ebp+9], cl
  000b1	0f 84 83 00 00
	00		 je	 $LN1@GetAnimati
  000b7	8a 48 0b	 mov	 cl, BYTE PTR [eax+11]
  000ba	84 c9		 test	 cl, cl
  000bc	74 3e		 je	 SHORT $LN85@GetAnimati
  000be	80 f1 ea	 xor	 cl, -22			; ffffffeaH
  000c1	88 4d eb	 mov	 BYTE PTR _szEncEventType$[ebp+11], cl
  000c4	8a 48 0c	 mov	 cl, BYTE PTR [eax+12]
  000c7	84 c9		 test	 cl, cl
  000c9	74 2c		 je	 SHORT $LN84@GetAnimati
  000cb	32 ca		 xor	 cl, dl
  000cd	88 4d ec	 mov	 BYTE PTR _szEncEventType$[ebp+12], cl
  000d0	8a 48 0d	 mov	 cl, BYTE PTR [eax+13]
  000d3	84 c9		 test	 cl, cl
  000d5	74 1a		 je	 SHORT $LN83@GetAnimati
  000d7	8a 40 0e	 mov	 al, BYTE PTR [eax+14]
  000da	80 f1 ec	 xor	 cl, -20			; ffffffecH
  000dd	88 4d ed	 mov	 BYTE PTR _szEncEventType$[ebp+13], cl
  000e0	84 c0		 test	 al, al
  000e2	74 07		 je	 SHORT $LN82@GetAnimati
  000e4	34 eb		 xor	 al, -21			; ffffffebH
  000e6	88 45 ee	 mov	 BYTE PTR _szEncEventType$[ebp+14], al
  000e9	eb 4f		 jmp	 SHORT $LN1@GetAnimati
$LN82@GetAnimati:
  000eb	c6 45 ee eb	 mov	 BYTE PTR _szEncEventType$[ebp+14], -21 ; ffffffebH
  000ef	eb 49		 jmp	 SHORT $LN1@GetAnimati
$LN83@GetAnimati:
  000f1	c6 45 ed ec	 mov	 BYTE PTR _szEncEventType$[ebp+13], -20 ; ffffffecH
  000f5	eb 43		 jmp	 SHORT $LN1@GetAnimati
$LN84@GetAnimati:
  000f7	88 55 ec	 mov	 BYTE PTR _szEncEventType$[ebp+12], dl
  000fa	eb 3e		 jmp	 SHORT $LN1@GetAnimati
$LN85@GetAnimati:
  000fc	c6 45 eb ea	 mov	 BYTE PTR _szEncEventType$[ebp+11], -22 ; ffffffeaH
  00100	eb 38		 jmp	 SHORT $LN1@GetAnimati
$LN87@GetAnimati:
  00102	c6 45 e9 ec	 mov	 BYTE PTR _szEncEventType$[ebp+9], -20 ; ffffffecH
  00106	eb 32		 jmp	 SHORT $LN1@GetAnimati
$LN88@GetAnimati:
  00108	88 55 e8	 mov	 BYTE PTR _szEncEventType$[ebp+8], dl
  0010b	eb 2d		 jmp	 SHORT $LN1@GetAnimati
$LN89@GetAnimati:
  0010d	c6 45 e7 ea	 mov	 BYTE PTR _szEncEventType$[ebp+7], -22 ; ffffffeaH
  00111	eb 27		 jmp	 SHORT $LN1@GetAnimati
$LN90@GetAnimati:
  00113	c6 45 e6 eb	 mov	 BYTE PTR _szEncEventType$[ebp+6], -21 ; ffffffebH
  00117	eb 21		 jmp	 SHORT $LN1@GetAnimati
$LN91@GetAnimati:
  00119	c6 45 e5 ec	 mov	 BYTE PTR _szEncEventType$[ebp+5], -20 ; ffffffecH
  0011d	eb 1b		 jmp	 SHORT $LN1@GetAnimati
$LN92@GetAnimati:
  0011f	88 55 e4	 mov	 BYTE PTR _szEncEventType$[ebp+4], dl
  00122	eb 16		 jmp	 SHORT $LN1@GetAnimati
$LN93@GetAnimati:
  00124	c6 45 e3 ea	 mov	 BYTE PTR _szEncEventType$[ebp+3], -22 ; ffffffeaH
  00128	eb 10		 jmp	 SHORT $LN1@GetAnimati
$LN94@GetAnimati:
  0012a	c6 45 e2 eb	 mov	 BYTE PTR _szEncEventType$[ebp+2], -21 ; ffffffebH
  0012e	eb 0a		 jmp	 SHORT $LN1@GetAnimati
$LN95@GetAnimati:
  00130	c6 45 e1 ec	 mov	 BYTE PTR _szEncEventType$[ebp+1], -20 ; ffffffecH
  00134	eb 04		 jmp	 SHORT $LN1@GetAnimati
$LN96@GetAnimati:
  00136	c6 45 e0 ed	 mov	 BYTE PTR _szEncEventType$[ebp], -19 ; ffffffedH
$LN1@GetAnimati:
  0013a	6a 02		 push	 2
  0013c	8d 45 e0	 lea	 eax, DWORD PTR _szEncEventType$[ebp]
  0013f	c6 45 ea 00	 mov	 BYTE PTR _szEncEventType$[ebp+10], 0
  00143	59		 pop	 ecx
$LL105@GetAnimati:
  00144	81 30 ed ec eb
	ea		 xor	 DWORD PTR [eax], -353637139 ; eaebecedH
  0014a	83 c0 04	 add	 eax, 4
  0014d	49		 dec	 ecx
  0014e	75 f4		 jne	 SHORT $LL105@GetAnimati
  00150	6a 08		 push	 8
  00152	58		 pop	 eax
$LL102@GetAnimati:
  00153	8b c8		 mov	 ecx, eax
  00155	81 e1 03 00 00
	80		 and	 ecx, -2147483645	; 80000003H
  0015b	79 05		 jns	 SHORT $LN113@GetAnimati
  0015d	49		 dec	 ecx
  0015e	83 c9 fc	 or	 ecx, -4			; fffffffcH
  00161	41		 inc	 ecx
$LN113@GetAnimati:
  00162	b2 ed		 mov	 dl, -19			; ffffffedH
  00164	2a d1		 sub	 dl, cl
  00166	30 54 05 e0	 xor	 BYTE PTR _szEncEventType$[ebp+eax], dl
  0016a	40		 inc	 eax
  0016b	83 f8 0a	 cmp	 eax, 10			; 0000000aH
  0016e	7c e3		 jl	 SHORT $LL102@GetAnimati

; 416  : 		return GetAnimationEventTime(id, szEncEventType);

  00170	8d 45 e0	 lea	 eax, DWORD PTR _szEncEventType$[ebp]
  00173	50		 push	 eax
  00174	8d 4d cc	 lea	 ecx, DWORD PTR $T614213[ebp]
  00177	ff 15 00 00 00
	00		 call	 DWORD PTR __imp_??0ioHashString@@QAE@PBD@Z
  0017d	83 65 fc 00	 and	 DWORD PTR __$EHRec$[ebp+8], 0
  00181	8d 45 cc	 lea	 eax, DWORD PTR $T614213[ebp]
  00184	50		 push	 eax
  00185	ff 75 08	 push	 DWORD PTR _id$[ebp]
  00188	8b ce		 mov	 ecx, esi
  0018a	ff 15 00 00 00
	00		 call	 DWORD PTR __imp_?GetAnimationEventTime@ioEntityGroup@@QAEMHABVioHashString@@@Z
  00190	d9 5d dc	 fstp	 DWORD PTR $T614212[ebp]
  00193	83 4d fc ff	 or	 DWORD PTR __$EHRec$[ebp+8], -1
  00197	8d 4d cc	 lea	 ecx, DWORD PTR $T614213[ebp]
  0019a	ff 15 00 00 00
	00		 call	 DWORD PTR __imp_??1ioHashString@@QAE@XZ
  001a0	d9 45 dc	 fld	 DWORD PTR $T614212[ebp]

; 417  : 	}

  001a3	e8 00 00 00 00	 call	 __EH_epilog3_GS
  001a8	c2 08 00	 ret	 8
_TEXT	ENDS
;	COMDAT text$x
text$x	SEGMENT
__unwindfunclet$??$GetAnimationEventTime_e@$0L@@ioEntityGroup@@QAEMHAAY0L@$$CBD@Z$0:
  00000	8d 4d cc	 lea	 ecx, DWORD PTR $T614213[ebp]
  00003	ff 25 00 00 00
	00		 jmp	 DWORD PTR __imp_??1ioHashString@@QAE@XZ
__ehhandler$??$GetAnimationEventTime_e@$0L@@ioEntityGroup@@QAEMHAAY0L@$$CBD@Z:
  00009	8b 54 24 08	 mov	 edx, DWORD PTR [esp+8]
  0000d	8d 42 0c	 lea	 eax, DWORD PTR [edx+12]
  00010	8b 4a c8	 mov	 ecx, DWORD PTR [edx-56]
  00013	33 c8		 xor	 ecx, eax
  00015	e8 00 00 00 00	 call	 @__security_check_cookie@4
  0001a	8b 4a fc	 mov	 ecx, DWORD PTR [edx-4]
  0001d	33 c8		 xor	 ecx, eax
  0001f	e8 00 00 00 00	 call	 @__security_check_cookie@4
  00024	b8 00 00 00 00	 mov	 eax, OFFSET __ehfuncinfo$??$GetAnimationEventTime_e@$0L@@ioEntityGroup@@QAEMHAAY0L@$$CBD@Z
  00029	e9 00 00 00 00	 jmp	 ___CxxFrameHandler3
text$x	ENDS
??$GetAnimationEventTime_e@$0L@@ioEntityGroup@@QAEMHAAY0L@$$CBD@Z ENDP ; ioEntityGroup::GetAnimationEventTime_e<11>
PUBLIC	??$GetAnimationEventTime_e@$0N@@ioEntityGroup@@QAEMHAAY0N@$$CBD@Z ; ioEntityGroup::GetAnimationEventTime_e<13>
;	COMDAT xdata$x
; File d:\lost saga for developer\youtube\tutorial\source\src\lsclient\stringprotect.h
xdata$x	SEGMENT
__unwindtable$??$GetAnimationEventTime_e@$0N@@ioEntityGroup@@QAEMHAAY0N@$$CBD@Z DD 0ffffffffH
	DD	FLAT:__unwindfunclet$??$GetAnimationEventTime_e@$0N@@ioEntityGroup@@QAEMHAAY0N@$$CBD@Z$0
__ehfuncinfo$??$GetAnimationEventTime_e@$0N@@ioEntityGroup@@QAEMHAAY0N@$$CBD@Z DD 019930522H
	DD	01H
	DD	FLAT:__unwindtable$??$GetAnimationEventTime_e@$0N@@ioEntityGroup@@QAEMHAAY0N@$$CBD@Z
	DD	2 DUP(00H)
	DD	2 DUP(00H)
	DD	00H
	DD	01H
; Function compile flags: /Ogsp
; File d:\lost saga for developer\youtube\tutorial\source\src\io3dengine\ioentitygroup.h
xdata$x	ENDS
;	COMDAT ??$GetAnimationEventTime_e@$0N@@ioEntityGroup@@QAEMHAAY0N@$$CBD@Z
_TEXT	SEGMENT
$T614246 = -56						; size = 16
$T614245 = -40						; size = 4
_szEncEventType$ = -36					; size = 13
__$EHRec$ = -12						; size = 12
_id$ = 8						; size = 4
_szEventType$ = 12					; size = 4
??$GetAnimationEventTime_e@$0N@@ioEntityGroup@@QAEMHAAY0N@$$CBD@Z PROC ; ioEntityGroup::GetAnimationEventTime_e<13>, COMDAT
; _this$ = ecx

; 414  : 	{

  00000	6a 2c		 push	 44			; 0000002cH
  00002	b8 00 00 00 00	 mov	 eax, __ehhandler$??$GetAnimationEventTime_e@$0N@@ioEntityGroup@@QAEMHAAY0N@$$CBD@Z
  00007	e8 00 00 00 00	 call	 __EH_prolog3_GS
  0000c	8b 45 0c	 mov	 eax, DWORD PTR _szEventType$[ebp]
  0000f	8b f1		 mov	 esi, ecx

; 415  : 		_ENCSTR(szEventType, szEncEventType);

  00011	8a 08		 mov	 cl, BYTE PTR [eax]
  00013	84 c9		 test	 cl, cl
  00015	0f 84 49 01 00
	00		 je	 $LN96@GetAnimati@2
  0001b	80 f1 ed	 xor	 cl, -19			; ffffffedH
  0001e	88 4d dc	 mov	 BYTE PTR _szEncEventType$[ebp], cl
  00021	8a 48 01	 mov	 cl, BYTE PTR [eax+1]
  00024	84 c9		 test	 cl, cl
  00026	0f 84 32 01 00
	00		 je	 $LN95@GetAnimati@2
  0002c	80 f1 ec	 xor	 cl, -20			; ffffffecH
  0002f	88 4d dd	 mov	 BYTE PTR _szEncEventType$[ebp+1], cl
  00032	8a 48 02	 mov	 cl, BYTE PTR [eax+2]
  00035	84 c9		 test	 cl, cl
  00037	0f 84 1b 01 00
	00		 je	 $LN94@GetAnimati@2
  0003d	b2 eb		 mov	 dl, -21			; ffffffebH
  0003f	32 ca		 xor	 cl, dl
  00041	88 4d de	 mov	 BYTE PTR _szEncEventType$[ebp+2], cl
  00044	8a 48 03	 mov	 cl, BYTE PTR [eax+3]
  00047	84 c9		 test	 cl, cl
  00049	0f 84 03 01 00
	00		 je	 $LN93@GetAnimati@2
  0004f	80 f1 ea	 xor	 cl, -22			; ffffffeaH
  00052	88 4d df	 mov	 BYTE PTR _szEncEventType$[ebp+3], cl
  00055	8a 48 04	 mov	 cl, BYTE PTR [eax+4]
  00058	84 c9		 test	 cl, cl
  0005a	0f 84 ec 00 00
	00		 je	 $LN92@GetAnimati@2
  00060	80 f1 ed	 xor	 cl, -19			; ffffffedH
  00063	88 4d e0	 mov	 BYTE PTR _szEncEventType$[ebp+4], cl
  00066	8a 48 05	 mov	 cl, BYTE PTR [eax+5]
  00069	84 c9		 test	 cl, cl
  0006b	0f 84 d5 00 00
	00		 je	 $LN91@GetAnimati@2
  00071	80 f1 ec	 xor	 cl, -20			; ffffffecH
  00074	88 4d e1	 mov	 BYTE PTR _szEncEventType$[ebp+5], cl
  00077	8a 48 06	 mov	 cl, BYTE PTR [eax+6]
  0007a	84 c9		 test	 cl, cl
  0007c	0f 84 bf 00 00
	00		 je	 $LN90@GetAnimati@2
  00082	32 ca		 xor	 cl, dl
  00084	88 4d e2	 mov	 BYTE PTR _szEncEventType$[ebp+6], cl
  00087	8a 48 07	 mov	 cl, BYTE PTR [eax+7]
  0008a	84 c9		 test	 cl, cl
  0008c	0f 84 a9 00 00
	00		 je	 $LN89@GetAnimati@2
  00092	80 f1 ea	 xor	 cl, -22			; ffffffeaH
  00095	88 4d e3	 mov	 BYTE PTR _szEncEventType$[ebp+7], cl
  00098	8a 48 08	 mov	 cl, BYTE PTR [eax+8]
  0009b	84 c9		 test	 cl, cl
  0009d	0f 84 92 00 00
	00		 je	 $LN88@GetAnimati@2
  000a3	80 f1 ed	 xor	 cl, -19			; ffffffedH
  000a6	88 4d e4	 mov	 BYTE PTR _szEncEventType$[ebp+8], cl
  000a9	8a 48 09	 mov	 cl, BYTE PTR [eax+9]
  000ac	84 c9		 test	 cl, cl
  000ae	74 7f		 je	 SHORT $LN87@GetAnimati@2
  000b0	80 f1 ec	 xor	 cl, -20			; ffffffecH
  000b3	88 4d e5	 mov	 BYTE PTR _szEncEventType$[ebp+9], cl
  000b6	8a 48 0a	 mov	 cl, BYTE PTR [eax+10]
  000b9	84 c9		 test	 cl, cl
  000bb	74 6d		 je	 SHORT $LN86@GetAnimati@2
  000bd	32 ca		 xor	 cl, dl
  000bf	88 4d e6	 mov	 BYTE PTR _szEncEventType$[ebp+10], cl
  000c2	8a 48 0b	 mov	 cl, BYTE PTR [eax+11]
  000c5	84 c9		 test	 cl, cl
  000c7	74 5b		 je	 SHORT $LN85@GetAnimati@2
  000c9	80 f1 ea	 xor	 cl, -22			; ffffffeaH
  000cc	80 78 0c 00	 cmp	 BYTE PTR [eax+12], 0
  000d0	88 4d e7	 mov	 BYTE PTR _szEncEventType$[ebp+11], cl
  000d3	0f 84 8f 00 00
	00		 je	 $LN1@GetAnimati@2
  000d9	8a 48 0d	 mov	 cl, BYTE PTR [eax+13]
  000dc	84 c9		 test	 cl, cl
  000de	74 3e		 je	 SHORT $LN83@GetAnimati@2
  000e0	80 f1 ec	 xor	 cl, -20			; ffffffecH
  000e3	88 4d e9	 mov	 BYTE PTR _szEncEventType$[ebp+13], cl
  000e6	8a 48 0e	 mov	 cl, BYTE PTR [eax+14]
  000e9	84 c9		 test	 cl, cl
  000eb	74 2c		 je	 SHORT $LN82@GetAnimati@2
  000ed	32 ca		 xor	 cl, dl
  000ef	88 4d ea	 mov	 BYTE PTR _szEncEventType$[ebp+14], cl
  000f2	8a 48 0f	 mov	 cl, BYTE PTR [eax+15]
  000f5	84 c9		 test	 cl, cl
  000f7	74 1a		 je	 SHORT $LN81@GetAnimati@2
  000f9	8a 40 10	 mov	 al, BYTE PTR [eax+16]
  000fc	80 f1 ea	 xor	 cl, -22			; ffffffeaH
  000ff	88 4d eb	 mov	 BYTE PTR _szEncEventType$[ebp+15], cl
  00102	84 c0		 test	 al, al
  00104	74 07		 je	 SHORT $LN80@GetAnimati@2
  00106	34 ed		 xor	 al, -19			; ffffffedH
  00108	88 45 ec	 mov	 BYTE PTR _szEncEventType$[ebp+16], al
  0010b	eb 5b		 jmp	 SHORT $LN1@GetAnimati@2
$LN80@GetAnimati@2:
  0010d	c6 45 ec ed	 mov	 BYTE PTR _szEncEventType$[ebp+16], -19 ; ffffffedH
  00111	eb 55		 jmp	 SHORT $LN1@GetAnimati@2
$LN81@GetAnimati@2:
  00113	c6 45 eb ea	 mov	 BYTE PTR _szEncEventType$[ebp+15], -22 ; ffffffeaH
  00117	eb 4f		 jmp	 SHORT $LN1@GetAnimati@2
$LN82@GetAnimati@2:
  00119	88 55 ea	 mov	 BYTE PTR _szEncEventType$[ebp+14], dl
  0011c	eb 4a		 jmp	 SHORT $LN1@GetAnimati@2
$LN83@GetAnimati@2:
  0011e	c6 45 e9 ec	 mov	 BYTE PTR _szEncEventType$[ebp+13], -20 ; ffffffecH
  00122	eb 44		 jmp	 SHORT $LN1@GetAnimati@2
$LN85@GetAnimati@2:
  00124	c6 45 e7 ea	 mov	 BYTE PTR _szEncEventType$[ebp+11], -22 ; ffffffeaH
  00128	eb 3e		 jmp	 SHORT $LN1@GetAnimati@2
$LN86@GetAnimati@2:
  0012a	88 55 e6	 mov	 BYTE PTR _szEncEventType$[ebp+10], dl
  0012d	eb 39		 jmp	 SHORT $LN1@GetAnimati@2
$LN87@GetAnimati@2:
  0012f	c6 45 e5 ec	 mov	 BYTE PTR _szEncEventType$[ebp+9], -20 ; ffffffecH
  00133	eb 33		 jmp	 SHORT $LN1@GetAnimati@2
$LN88@GetAnimati@2:
  00135	c6 45 e4 ed	 mov	 BYTE PTR _szEncEventType$[ebp+8], -19 ; ffffffedH
  00139	eb 2d		 jmp	 SHORT $LN1@GetAnimati@2
$LN89@GetAnimati@2:
  0013b	c6 45 e3 ea	 mov	 BYTE PTR _szEncEventType$[ebp+7], -22 ; ffffffeaH
  0013f	eb 27		 jmp	 SHORT $LN1@GetAnimati@2
$LN90@GetAnimati@2:
  00141	88 55 e2	 mov	 BYTE PTR _szEncEventType$[ebp+6], dl
  00144	eb 22		 jmp	 SHORT $LN1@GetAnimati@2
$LN91@GetAnimati@2:
  00146	c6 45 e1 ec	 mov	 BYTE PTR _szEncEventType$[ebp+5], -20 ; ffffffecH
  0014a	eb 1c		 jmp	 SHORT $LN1@GetAnimati@2
$LN92@GetAnimati@2:
  0014c	c6 45 e0 ed	 mov	 BYTE PTR _szEncEventType$[ebp+4], -19 ; ffffffedH
  00150	eb 16		 jmp	 SHORT $LN1@GetAnimati@2
$LN93@GetAnimati@2:
  00152	c6 45 df ea	 mov	 BYTE PTR _szEncEventType$[ebp+3], -22 ; ffffffeaH
  00156	eb 10		 jmp	 SHORT $LN1@GetAnimati@2
$LN94@GetAnimati@2:
  00158	c6 45 de eb	 mov	 BYTE PTR _szEncEventType$[ebp+2], -21 ; ffffffebH
  0015c	eb 0a		 jmp	 SHORT $LN1@GetAnimati@2
$LN95@GetAnimati@2:
  0015e	c6 45 dd ec	 mov	 BYTE PTR _szEncEventType$[ebp+1], -20 ; ffffffecH
  00162	eb 04		 jmp	 SHORT $LN1@GetAnimati@2
$LN96@GetAnimati@2:
  00164	c6 45 dc ed	 mov	 BYTE PTR _szEncEventType$[ebp], -19 ; ffffffedH
$LN1@GetAnimati@2:
  00168	6a 03		 push	 3
  0016a	8d 45 dc	 lea	 eax, DWORD PTR _szEncEventType$[ebp]
  0016d	c6 45 e8 00	 mov	 BYTE PTR _szEncEventType$[ebp+12], 0
  00171	59		 pop	 ecx
$LL105@GetAnimati@2:
  00172	81 30 ed ec eb
	ea		 xor	 DWORD PTR [eax], -353637139 ; eaebecedH
  00178	83 c0 04	 add	 eax, 4
  0017b	49		 dec	 ecx
  0017c	75 f4		 jne	 SHORT $LL105@GetAnimati@2

; 416  : 		return GetAnimationEventTime(id, szEncEventType);

  0017e	8d 45 dc	 lea	 eax, DWORD PTR _szEncEventType$[ebp]
  00181	50		 push	 eax
  00182	8d 4d c8	 lea	 ecx, DWORD PTR $T614246[ebp]
  00185	ff 15 00 00 00
	00		 call	 DWORD PTR __imp_??0ioHashString@@QAE@PBD@Z
  0018b	83 65 fc 00	 and	 DWORD PTR __$EHRec$[ebp+8], 0
  0018f	8d 45 c8	 lea	 eax, DWORD PTR $T614246[ebp]
  00192	50		 push	 eax
  00193	ff 75 08	 push	 DWORD PTR _id$[ebp]
  00196	8b ce		 mov	 ecx, esi
  00198	ff 15 00 00 00
	00		 call	 DWORD PTR __imp_?GetAnimationEventTime@ioEntityGroup@@QAEMHABVioHashString@@@Z
  0019e	d9 5d d8	 fstp	 DWORD PTR $T614245[ebp]
  001a1	83 4d fc ff	 or	 DWORD PTR __$EHRec$[ebp+8], -1
  001a5	8d 4d c8	 lea	 ecx, DWORD PTR $T614246[ebp]
  001a8	ff 15 00 00 00
	00		 call	 DWORD PTR __imp_??1ioHashString@@QAE@XZ
  001ae	d9 45 d8	 fld	 DWORD PTR $T614245[ebp]

; 417  : 	}

  001b1	e8 00 00 00 00	 call	 __EH_epilog3_GS
  001b6	c2 08 00	 ret	 8
_TEXT	ENDS
;	COMDAT text$x
text$x	SEGMENT
__unwindfunclet$??$GetAnimationEventTime_e@$0N@@ioEntityGroup@@QAEMHAAY0N@$$CBD@Z$0:
  00000	8d 4d c8	 lea	 ecx, DWORD PTR $T614246[ebp]
  00003	ff 25 00 00 00
	00		 jmp	 DWORD PTR __imp_??1ioHashString@@QAE@XZ
__ehhandler$??$GetAnimationEventTime_e@$0N@@ioEntityGroup@@QAEMHAAY0N@$$CBD@Z:
  00009	8b 54 24 08	 mov	 edx, DWORD PTR [esp+8]
  0000d	8d 42 0c	 lea	 eax, DWORD PTR [edx+12]
  00010	8b 4a c4	 mov	 ecx, DWORD PTR [edx-60]
  00013	33 c8		 xor	 ecx, eax
  00015	e8 00 00 00 00	 call	 @__security_check_cookie@4
  0001a	8b 4a fc	 mov	 ecx, DWORD PTR [edx-4]
  0001d	33 c8		 xor	 ecx, eax
  0001f	e8 00 00 00 00	 call	 @__security_check_cookie@4
  00024	b8 00 00 00 00	 mov	 eax, OFFSET __ehfuncinfo$??$GetAnimationEventTime_e@$0N@@ioEntityGroup@@QAEMHAAY0N@$$CBD@Z
  00029	e9 00 00 00 00	 jmp	 ___CxxFrameHandler3
text$x	ENDS
??$GetAnimationEventTime_e@$0N@@ioEntityGroup@@QAEMHAAY0N@$$CBD@Z ENDP ; ioEntityGroup::GetAnimationEventTime_e<13>
PUBLIC	??$GetAnimationEventTime_e@$0M@@ioEntityGroup@@QAEMHAAY0M@$$CBD@Z ; ioEntityGroup::GetAnimationEventTime_e<12>
;	COMDAT xdata$x
; File d:\lost saga for developer\youtube\tutorial\source\src\lsclient\stringprotect.h
xdata$x	SEGMENT
__unwindtable$??$GetAnimationEventTime_e@$0M@@ioEntityGroup@@QAEMHAAY0M@$$CBD@Z DD 0ffffffffH
	DD	FLAT:__unwindfunclet$??$GetAnimationEventTime_e@$0M@@ioEntityGroup@@QAEMHAAY0M@$$CBD@Z$0
__ehfuncinfo$??$GetAnimationEventTime_e@$0M@@ioEntityGroup@@QAEMHAAY0M@$$CBD@Z DD 019930522H
	DD	01H
	DD	FLAT:__unwindtable$??$GetAnimationEventTime_e@$0M@@ioEntityGroup@@QAEMHAAY0M@$$CBD@Z
	DD	2 DUP(00H)
	DD	2 DUP(00H)
	DD	00H
	DD	01H
; Function compile flags: /Ogsp
; File d:\lost saga for developer\youtube\tutorial\source\src\io3dengine\ioentitygroup.h
xdata$x	ENDS
;	COMDAT ??$GetAnimationEventTime_e@$0M@@ioEntityGroup@@QAEMHAAY0M@$$CBD@Z
_TEXT	SEGMENT
$T614276 = -52						; size = 16
$T614275 = -36						; size = 4
_szEncEventType$ = -32					; size = 12
__$EHRec$ = -12						; size = 12
_id$ = 8						; size = 4
_szEventType$ = 12					; size = 4
??$GetAnimationEventTime_e@$0M@@ioEntityGroup@@QAEMHAAY0M@$$CBD@Z PROC ; ioEntityGroup::GetAnimationEventTime_e<12>, COMDAT
; _this$ = ecx

; 414  : 	{

  00000	6a 28		 push	 40			; 00000028H
  00002	b8 00 00 00 00	 mov	 eax, __ehhandler$??$GetAnimationEventTime_e@$0M@@ioEntityGroup@@QAEMHAAY0M@$$CBD@Z
  00007	e8 00 00 00 00	 call	 __EH_prolog3_GS
  0000c	8b 45 0c	 mov	 eax, DWORD PTR _szEventType$[ebp]
  0000f	8b f1		 mov	 esi, ecx

; 415  : 		_ENCSTR(szEventType, szEncEventType);

  00011	8a 08		 mov	 cl, BYTE PTR [eax]
  00013	84 c9		 test	 cl, cl
  00015	0f 84 36 01 00
	00		 je	 $LN96@GetAnimati@3
  0001b	b2 ed		 mov	 dl, -19			; ffffffedH
  0001d	32 ca		 xor	 cl, dl
  0001f	88 4d e0	 mov	 BYTE PTR _szEncEventType$[ebp], cl
  00022	8a 48 01	 mov	 cl, BYTE PTR [eax+1]
  00025	84 c9		 test	 cl, cl
  00027	0f 84 1e 01 00
	00		 je	 $LN95@GetAnimati@3
  0002d	80 f1 ec	 xor	 cl, -20			; ffffffecH
  00030	88 4d e1	 mov	 BYTE PTR _szEncEventType$[ebp+1], cl
  00033	8a 48 02	 mov	 cl, BYTE PTR [eax+2]
  00036	84 c9		 test	 cl, cl
  00038	0f 84 07 01 00
	00		 je	 $LN94@GetAnimati@3
  0003e	80 f1 eb	 xor	 cl, -21			; ffffffebH
  00041	88 4d e2	 mov	 BYTE PTR _szEncEventType$[ebp+2], cl
  00044	8a 48 03	 mov	 cl, BYTE PTR [eax+3]
  00047	84 c9		 test	 cl, cl
  00049	0f 84 f0 00 00
	00		 je	 $LN93@GetAnimati@3
  0004f	80 f1 ea	 xor	 cl, -22			; ffffffeaH
  00052	88 4d e3	 mov	 BYTE PTR _szEncEventType$[ebp+3], cl
  00055	8a 48 04	 mov	 cl, BYTE PTR [eax+4]
  00058	84 c9		 test	 cl, cl
  0005a	0f 84 da 00 00
	00		 je	 $LN92@GetAnimati@3
  00060	32 ca		 xor	 cl, dl
  00062	88 4d e4	 mov	 BYTE PTR _szEncEventType$[ebp+4], cl
  00065	8a 48 05	 mov	 cl, BYTE PTR [eax+5]
  00068	84 c9		 test	 cl, cl
  0006a	0f 84 c4 00 00
	00		 je	 $LN91@GetAnimati@3
  00070	80 f1 ec	 xor	 cl, -20			; ffffffecH
  00073	88 4d e5	 mov	 BYTE PTR _szEncEventType$[ebp+5], cl
  00076	8a 48 06	 mov	 cl, BYTE PTR [eax+6]
  00079	84 c9		 test	 cl, cl
  0007b	0f 84 ad 00 00
	00		 je	 $LN90@GetAnimati@3
  00081	80 f1 eb	 xor	 cl, -21			; ffffffebH
  00084	88 4d e6	 mov	 BYTE PTR _szEncEventType$[ebp+6], cl
  00087	8a 48 07	 mov	 cl, BYTE PTR [eax+7]
  0008a	84 c9		 test	 cl, cl
  0008c	0f 84 96 00 00
	00		 je	 $LN89@GetAnimati@3
  00092	80 f1 ea	 xor	 cl, -22			; ffffffeaH
  00095	88 4d e7	 mov	 BYTE PTR _szEncEventType$[ebp+7], cl
  00098	8a 48 08	 mov	 cl, BYTE PTR [eax+8]
  0009b	84 c9		 test	 cl, cl
  0009d	0f 84 80 00 00
	00		 je	 $LN88@GetAnimati@3
  000a3	32 ca		 xor	 cl, dl
  000a5	88 4d e8	 mov	 BYTE PTR _szEncEventType$[ebp+8], cl
  000a8	8a 48 09	 mov	 cl, BYTE PTR [eax+9]
  000ab	84 c9		 test	 cl, cl
  000ad	74 6e		 je	 SHORT $LN87@GetAnimati@3
  000af	80 f1 ec	 xor	 cl, -20			; ffffffecH
  000b2	88 4d e9	 mov	 BYTE PTR _szEncEventType$[ebp+9], cl
  000b5	8a 48 0a	 mov	 cl, BYTE PTR [eax+10]
  000b8	84 c9		 test	 cl, cl
  000ba	74 5b		 je	 SHORT $LN86@GetAnimati@3
  000bc	80 f1 eb	 xor	 cl, -21			; ffffffebH
  000bf	80 78 0b 00	 cmp	 BYTE PTR [eax+11], 0
  000c3	88 4d ea	 mov	 BYTE PTR _szEncEventType$[ebp+10], cl
  000c6	0f 84 89 00 00
	00		 je	 $LN1@GetAnimati@3
  000cc	8a 48 0c	 mov	 cl, BYTE PTR [eax+12]
  000cf	84 c9		 test	 cl, cl
  000d1	74 3f		 je	 SHORT $LN84@GetAnimati@3
  000d3	32 ca		 xor	 cl, dl
  000d5	88 4d ec	 mov	 BYTE PTR _szEncEventType$[ebp+12], cl
  000d8	8a 48 0d	 mov	 cl, BYTE PTR [eax+13]
  000db	84 c9		 test	 cl, cl
  000dd	74 2d		 je	 SHORT $LN83@GetAnimati@3
  000df	80 f1 ec	 xor	 cl, -20			; ffffffecH
  000e2	88 4d ed	 mov	 BYTE PTR _szEncEventType$[ebp+13], cl
  000e5	8a 48 0e	 mov	 cl, BYTE PTR [eax+14]
  000e8	84 c9		 test	 cl, cl
  000ea	74 1a		 je	 SHORT $LN82@GetAnimati@3
  000ec	8a 40 0f	 mov	 al, BYTE PTR [eax+15]
  000ef	80 f1 eb	 xor	 cl, -21			; ffffffebH
  000f2	88 4d ee	 mov	 BYTE PTR _szEncEventType$[ebp+14], cl
  000f5	84 c0		 test	 al, al
  000f7	74 07		 je	 SHORT $LN81@GetAnimati@3
  000f9	34 ea		 xor	 al, -22			; ffffffeaH
  000fb	88 45 ef	 mov	 BYTE PTR _szEncEventType$[ebp+15], al
  000fe	eb 55		 jmp	 SHORT $LN1@GetAnimati@3
$LN81@GetAnimati@3:
  00100	c6 45 ef ea	 mov	 BYTE PTR _szEncEventType$[ebp+15], -22 ; ffffffeaH
  00104	eb 4f		 jmp	 SHORT $LN1@GetAnimati@3
$LN82@GetAnimati@3:
  00106	c6 45 ee eb	 mov	 BYTE PTR _szEncEventType$[ebp+14], -21 ; ffffffebH
  0010a	eb 49		 jmp	 SHORT $LN1@GetAnimati@3
$LN83@GetAnimati@3:
  0010c	c6 45 ed ec	 mov	 BYTE PTR _szEncEventType$[ebp+13], -20 ; ffffffecH
  00110	eb 43		 jmp	 SHORT $LN1@GetAnimati@3
$LN84@GetAnimati@3:
  00112	88 55 ec	 mov	 BYTE PTR _szEncEventType$[ebp+12], dl
  00115	eb 3e		 jmp	 SHORT $LN1@GetAnimati@3
$LN86@GetAnimati@3:
  00117	c6 45 ea eb	 mov	 BYTE PTR _szEncEventType$[ebp+10], -21 ; ffffffebH
  0011b	eb 38		 jmp	 SHORT $LN1@GetAnimati@3
$LN87@GetAnimati@3:
  0011d	c6 45 e9 ec	 mov	 BYTE PTR _szEncEventType$[ebp+9], -20 ; ffffffecH
  00121	eb 32		 jmp	 SHORT $LN1@GetAnimati@3
$LN88@GetAnimati@3:
  00123	88 55 e8	 mov	 BYTE PTR _szEncEventType$[ebp+8], dl
  00126	eb 2d		 jmp	 SHORT $LN1@GetAnimati@3
$LN89@GetAnimati@3:
  00128	c6 45 e7 ea	 mov	 BYTE PTR _szEncEventType$[ebp+7], -22 ; ffffffeaH
  0012c	eb 27		 jmp	 SHORT $LN1@GetAnimati@3
$LN90@GetAnimati@3:
  0012e	c6 45 e6 eb	 mov	 BYTE PTR _szEncEventType$[ebp+6], -21 ; ffffffebH
  00132	eb 21		 jmp	 SHORT $LN1@GetAnimati@3
$LN91@GetAnimati@3:
  00134	c6 45 e5 ec	 mov	 BYTE PTR _szEncEventType$[ebp+5], -20 ; ffffffecH
  00138	eb 1b		 jmp	 SHORT $LN1@GetAnimati@3
$LN92@GetAnimati@3:
  0013a	88 55 e4	 mov	 BYTE PTR _szEncEventType$[ebp+4], dl
  0013d	eb 16		 jmp	 SHORT $LN1@GetAnimati@3
$LN93@GetAnimati@3:
  0013f	c6 45 e3 ea	 mov	 BYTE PTR _szEncEventType$[ebp+3], -22 ; ffffffeaH
  00143	eb 10		 jmp	 SHORT $LN1@GetAnimati@3
$LN94@GetAnimati@3:
  00145	c6 45 e2 eb	 mov	 BYTE PTR _szEncEventType$[ebp+2], -21 ; ffffffebH
  00149	eb 0a		 jmp	 SHORT $LN1@GetAnimati@3
$LN95@GetAnimati@3:
  0014b	c6 45 e1 ec	 mov	 BYTE PTR _szEncEventType$[ebp+1], -20 ; ffffffecH
  0014f	eb 04		 jmp	 SHORT $LN1@GetAnimati@3
$LN96@GetAnimati@3:
  00151	c6 45 e0 ed	 mov	 BYTE PTR _szEncEventType$[ebp], -19 ; ffffffedH
$LN1@GetAnimati@3:
  00155	6a 02		 push	 2
  00157	8d 45 e0	 lea	 eax, DWORD PTR _szEncEventType$[ebp]
  0015a	c6 45 eb 00	 mov	 BYTE PTR _szEncEventType$[ebp+11], 0
  0015e	59		 pop	 ecx
$LL105@GetAnimati@3:
  0015f	81 30 ed ec eb
	ea		 xor	 DWORD PTR [eax], -353637139 ; eaebecedH
  00165	83 c0 04	 add	 eax, 4
  00168	49		 dec	 ecx
  00169	75 f4		 jne	 SHORT $LL105@GetAnimati@3
  0016b	6a 08		 push	 8
  0016d	58		 pop	 eax
$LL102@GetAnimati@3:
  0016e	8b c8		 mov	 ecx, eax
  00170	81 e1 03 00 00
	80		 and	 ecx, -2147483645	; 80000003H
  00176	79 05		 jns	 SHORT $LN113@GetAnimati@3
  00178	49		 dec	 ecx
  00179	83 c9 fc	 or	 ecx, -4			; fffffffcH
  0017c	41		 inc	 ecx
$LN113@GetAnimati@3:
  0017d	b2 ed		 mov	 dl, -19			; ffffffedH
  0017f	2a d1		 sub	 dl, cl
  00181	30 54 05 e0	 xor	 BYTE PTR _szEncEventType$[ebp+eax], dl
  00185	40		 inc	 eax
  00186	83 f8 0b	 cmp	 eax, 11			; 0000000bH
  00189	7c e3		 jl	 SHORT $LL102@GetAnimati@3

; 416  : 		return GetAnimationEventTime(id, szEncEventType);

  0018b	8d 45 e0	 lea	 eax, DWORD PTR _szEncEventType$[ebp]
  0018e	50		 push	 eax
  0018f	8d 4d cc	 lea	 ecx, DWORD PTR $T614276[ebp]
  00192	ff 15 00 00 00
	00		 call	 DWORD PTR __imp_??0ioHashString@@QAE@PBD@Z
  00198	83 65 fc 00	 and	 DWORD PTR __$EHRec$[ebp+8], 0
  0019c	8d 45 cc	 lea	 eax, DWORD PTR $T614276[ebp]
  0019f	50		 push	 eax
  001a0	ff 75 08	 push	 DWORD PTR _id$[ebp]
  001a3	8b ce		 mov	 ecx, esi
  001a5	ff 15 00 00 00
	00		 call	 DWORD PTR __imp_?GetAnimationEventTime@ioEntityGroup@@QAEMHABVioHashString@@@Z
  001ab	d9 5d dc	 fstp	 DWORD PTR $T614275[ebp]
  001ae	83 4d fc ff	 or	 DWORD PTR __$EHRec$[ebp+8], -1
  001b2	8d 4d cc	 lea	 ecx, DWORD PTR $T614276[ebp]
  001b5	ff 15 00 00 00
	00		 call	 DWORD PTR __imp_??1ioHashString@@QAE@XZ
  001bb	d9 45 dc	 fld	 DWORD PTR $T614275[ebp]

; 417  : 	}

  001be	e8 00 00 00 00	 call	 __EH_epilog3_GS
  001c3	c2 08 00	 ret	 8
_TEXT	ENDS
;	COMDAT text$x
text$x	SEGMENT
__unwindfunclet$??$GetAnimationEventTime_e@$0M@@ioEntityGroup@@QAEMHAAY0M@$$CBD@Z$0:
  00000	8d 4d cc	 lea	 ecx, DWORD PTR $T614276[ebp]
  00003	ff 25 00 00 00
	00		 jmp	 DWORD PTR __imp_??1ioHashString@@QAE@XZ
__ehhandler$??$GetAnimationEventTime_e@$0M@@ioEntityGroup@@QAEMHAAY0M@$$CBD@Z:
  00009	8b 54 24 08	 mov	 edx, DWORD PTR [esp+8]
  0000d	8d 42 0c	 lea	 eax, DWORD PTR [edx+12]
  00010	8b 4a c8	 mov	 ecx, DWORD PTR [edx-56]
  00013	33 c8		 xor	 ecx, eax
  00015	e8 00 00 00 00	 call	 @__security_check_cookie@4
  0001a	8b 4a fc	 mov	 ecx, DWORD PTR [edx-4]
  0001d	33 c8		 xor	 ecx, eax
  0001f	e8 00 00 00 00	 call	 @__security_check_cookie@4
  00024	b8 00 00 00 00	 mov	 eax, OFFSET __ehfuncinfo$??$GetAnimationEventTime_e@$0M@@ioEntityGroup@@QAEMHAAY0M@$$CBD@Z
  00029	e9 00 00 00 00	 jmp	 ___CxxFrameHandler3
text$x	ENDS
??$GetAnimationEventTime_e@$0M@@ioEntityGroup@@QAEMHAAY0M@$$CBD@Z ENDP ; ioEntityGroup::GetAnimationEventTime_e<12>
PUBLIC	__real@3fd2ee0d320154cb
PUBLIC	__real@41f0000000000000
PUBLIC	??$RADtoDEG@M@@YAMM@Z				; RADtoDEG<float>
;	COMDAT __real@3fd2ee0d320154cb
; File d:\lost saga for developer\youtube\tutorial\source\src\lsclient\veryoftenusedefine.h
CONST	SEGMENT
__real@3fd2ee0d320154cb DQ 03fd2ee0d320154cbr	; 0.29578
CONST	ENDS
;	COMDAT __real@41f0000000000000
CONST	SEGMENT
__real@41f0000000000000 DQ 041f0000000000000r	; 4.29497e+009
; Function compile flags: /Ogsp
CONST	ENDS
;	COMDAT ??$RADtoDEG@M@@YAMM@Z
_TEXT	SEGMENT
tv130 = -4						; size = 4
tv75 = 8						; size = 4
_val$ = 8						; size = 4
??$RADtoDEG@M@@YAMM@Z PROC				; RADtoDEG<float>, COMDAT

; 18   : type  RADtoDEG (type val) {return (type) (val * (return57() + 0.2957795132)); }

  00000	55		 push	 ebp
  00001	8b ec		 mov	 ebp, esp
  00003	51		 push	 ecx
  00004	b8 39 00 00 00	 mov	 eax, 57			; 00000039H
  00009	89 45 fc	 mov	 DWORD PTR tv130[ebp], eax
  0000c	db 45 fc	 fild	 DWORD PTR tv130[ebp]
  0000f	85 c0		 test	 eax, eax
  00011	79 06		 jns	 SHORT $LN5@RADtoDEG
  00013	dc 05 00 00 00
	00		 fadd	 QWORD PTR __real@41f0000000000000
$LN5@RADtoDEG:
  00019	dc 05 00 00 00
	00		 fadd	 QWORD PTR __real@3fd2ee0d320154cb
  0001f	d8 4d 08	 fmul	 DWORD PTR _val$[ebp]
  00022	d9 5d 08	 fstp	 DWORD PTR tv75[ebp]
  00025	d9 45 08	 fld	 DWORD PTR tv75[ebp]
  00028	c9		 leave
  00029	c3		 ret	 0
??$RADtoDEG@M@@YAMM@Z ENDP				; RADtoDEG<float>
_TEXT	ENDS
PUBLIC	?construct@?$allocator@UForceInfo@@@std@@QAEXPAUForceInfo@@ABU3@@Z ; std::allocator<ForceInfo>::construct
; Function compile flags: /Ogsp
; File c:\program files (x86)\microsoft visual studio 10.0\vc\include\xmemory
;	COMDAT ?construct@?$allocator@UForceInfo@@@std@@QAEXPAUForceInfo@@ABU3@@Z
_TEXT	SEGMENT
__Ptr$ = 8						; size = 4
__Val$ = 12						; size = 4
?construct@?$allocator@UForceInfo@@@std@@QAEXPAUForceInfo@@ABU3@@Z PROC ; std::allocator<ForceInfo>::construct, COMDAT
; _this$ = ecx

; 196  : 		{	// construct object at _Ptr with value _Val

  00000	55		 push	 ebp
  00001	8b ec		 mov	 ebp, esp
  00003	57		 push	 edi

; 197  : 		_Construct(_Ptr, _Val);

  00004	8b 7d 08	 mov	 edi, DWORD PTR __Ptr$[ebp]
  00007	85 ff		 test	 edi, edi
  00009	74 08		 je	 SHORT $LN5@construct
  0000b	56		 push	 esi
  0000c	8b 75 0c	 mov	 esi, DWORD PTR __Val$[ebp]
  0000f	a5		 movsd
  00010	a5		 movsd
  00011	a5		 movsd
  00012	5e		 pop	 esi
$LN5@construct:
  00013	5f		 pop	 edi

; 198  : 		}

  00014	5d		 pop	 ebp
  00015	c2 08 00	 ret	 8
?construct@?$allocator@UForceInfo@@@std@@QAEXPAUForceInfo@@ABU3@@Z ENDP ; std::allocator<ForceInfo>::construct
_TEXT	ENDS
PUBLIC	??$_Construct@UWeaponInfo@@ABU1@@std@@YAXPAUWeaponInfo@@ABU1@@Z ; std::_Construct<WeaponInfo,WeaponInfo const &>
EXTRN	__EH_epilog3:PROC
EXTRN	__EH_prolog3:PROC
;	COMDAT xdata$x
; File c:\program files (x86)\microsoft visual studio 10.0\vc\include\utility
xdata$x	SEGMENT
__unwindtable$??$_Construct@UWeaponInfo@@ABU1@@std@@YAXPAUWeaponInfo@@ABU1@@Z DD 0ffffffffH
	DD	FLAT:__unwindfunclet$??$_Construct@UWeaponInfo@@ABU1@@std@@YAXPAUWeaponInfo@@ABU1@@Z$0
__ehfuncinfo$??$_Construct@UWeaponInfo@@ABU1@@std@@YAXPAUWeaponInfo@@ABU1@@Z DD 019930522H
	DD	01H
	DD	FLAT:__unwindtable$??$_Construct@UWeaponInfo@@ABU1@@std@@YAXPAUWeaponInfo@@ABU1@@Z
	DD	2 DUP(00H)
	DD	2 DUP(00H)
	DD	00H
	DD	01H
; Function compile flags: /Ogsp
; File c:\program files (x86)\microsoft visual studio 10.0\vc\include\xmemory
xdata$x	ENDS
;	COMDAT ??$_Construct@UWeaponInfo@@ABU1@@std@@YAXPAUWeaponInfo@@ABU1@@Z
_TEXT	SEGMENT
$T614341 = -16						; size = 4
__$EHRec$ = -12						; size = 12
__Vptr$ = 8						; size = 4
__Ptr$ = 8						; size = 4
__Val$ = 12						; size = 4
??$_Construct@UWeaponInfo@@ABU1@@std@@YAXPAUWeaponInfo@@ABU1@@Z PROC ; std::_Construct<WeaponInfo,WeaponInfo const &>, COMDAT

; 46   : 	{	// construct object at _Ptr with value _Val

  00000	6a 04		 push	 4
  00002	b8 00 00 00 00	 mov	 eax, __ehhandler$??$_Construct@UWeaponInfo@@ABU1@@std@@YAXPAUWeaponInfo@@ABU1@@Z
  00007	e8 00 00 00 00	 call	 __EH_prolog3

; 47   : 	void _FARQ *_Vptr = _Ptr;

  0000c	8b 4d 08	 mov	 ecx, DWORD PTR __Ptr$[ebp]
  0000f	89 4d 08	 mov	 DWORD PTR __Vptr$[ebp], ecx

; 48   : 	::new (_Vptr) _Ty1(_STD forward<_Ty2>(_Val));

  00012	89 4d f0	 mov	 DWORD PTR $T614341[ebp], ecx
  00015	83 65 fc 00	 and	 DWORD PTR __$EHRec$[ebp+8], 0
  00019	85 c9		 test	 ecx, ecx
  0001b	74 08		 je	 SHORT $LN3@Construct@2
  0001d	ff 75 0c	 push	 DWORD PTR __Val$[ebp]
  00020	e8 00 00 00 00	 call	 ??0WeaponInfo@@QAE@ABU0@@Z
$LN3@Construct@2:

; 49   : 	}

  00025	e8 00 00 00 00	 call	 __EH_epilog3
  0002a	c3		 ret	 0
_TEXT	ENDS
;	COMDAT text$x
text$x	SEGMENT
__unwindfunclet$??$_Construct@UWeaponInfo@@ABU1@@std@@YAXPAUWeaponInfo@@ABU1@@Z$0:
  00000	ff 75 08	 push	 DWORD PTR __Vptr$[ebp]
  00003	ff 75 f0	 push	 DWORD PTR $T614341[ebp]
  00006	e8 00 00 00 00	 call	 ??3@YAXPAX0@Z		; operator delete
  0000b	59		 pop	 ecx
  0000c	59		 pop	 ecx
  0000d	c3		 ret	 0
__ehhandler$??$_Construct@UWeaponInfo@@ABU1@@std@@YAXPAUWeaponInfo@@ABU1@@Z:
  0000e	8b 54 24 08	 mov	 edx, DWORD PTR [esp+8]
  00012	8d 42 0c	 lea	 eax, DWORD PTR [edx+12]
  00015	8b 4a ec	 mov	 ecx, DWORD PTR [edx-20]
  00018	33 c8		 xor	 ecx, eax
  0001a	e8 00 00 00 00	 call	 @__security_check_cookie@4
  0001f	b8 00 00 00 00	 mov	 eax, OFFSET __ehfuncinfo$??$_Construct@UWeaponInfo@@ABU1@@std@@YAXPAUWeaponInfo@@ABU1@@Z
  00024	e9 00 00 00 00	 jmp	 ___CxxFrameHandler3
text$x	ENDS
??$_Construct@UWeaponInfo@@ABU1@@std@@YAXPAUWeaponInfo@@ABU1@@Z ENDP ; std::_Construct<WeaponInfo,WeaponInfo const &>
PUBLIC	??0?$CEncrypt@M@@QAE@XZ				; CEncrypt<float>::CEncrypt<float>
EXTRN	??0ccddaabb@@QAE@XZ:PROC			; ccddaabb::ccddaabb
;	COMDAT xdata$x
; File d:\lost saga for developer\youtube\tutorial\source\src\lsclient\encryptvalue.h
xdata$x	SEGMENT
__unwindtable$??0?$CEncrypt@M@@QAE@XZ DD 0ffffffffH
	DD	FLAT:__unwindfunclet$??0?$CEncrypt@M@@QAE@XZ$0
__ehfuncinfo$??0?$CEncrypt@M@@QAE@XZ DD 019930522H
	DD	01H
	DD	FLAT:__unwindtable$??0?$CEncrypt@M@@QAE@XZ
	DD	2 DUP(00H)
	DD	2 DUP(00H)
	DD	00H
	DD	01H
; Function compile flags: /Ogsp
xdata$x	ENDS
;	COMDAT ??0?$CEncrypt@M@@QAE@XZ
_TEXT	SEGMENT
_this$ = -16						; size = 4
__$EHRec$ = -12						; size = 12
??0?$CEncrypt@M@@QAE@XZ PROC				; CEncrypt<float>::CEncrypt<float>, COMDAT
; _this$ = ecx

; 109  : 	CEncrypt()

  00000	6a 04		 push	 4
  00002	b8 00 00 00 00	 mov	 eax, __ehhandler$??0?$CEncrypt@M@@QAE@XZ
  00007	e8 00 00 00 00	 call	 __EH_prolog3
  0000c	8b f1		 mov	 esi, ecx
  0000e	89 75 f0	 mov	 DWORD PTR _this$[ebp], esi
  00011	8d 4e 0c	 lea	 ecx, DWORD PTR [esi+12]
  00014	c7 06 00 00 00
	00		 mov	 DWORD PTR [esi], OFFSET ??_7?$CEncrypt@M@@6B@
  0001a	e8 00 00 00 00	 call	 ??0ccddaabb@@QAE@XZ	; ccddaabb::ccddaabb
  0001f	83 65 fc 00	 and	 DWORD PTR __$EHRec$[ebp+8], 0

; 110  : 	{
; 111  : 		Init();

  00023	8b ce		 mov	 ecx, esi
  00025	e8 00 00 00 00	 call	 ?Init@?$CEncrypt@M@@AAEXXZ ; CEncrypt<float>::Init

; 112  : 	}

  0002a	8b c6		 mov	 eax, esi
  0002c	e8 00 00 00 00	 call	 __EH_epilog3
  00031	c3		 ret	 0
_TEXT	ENDS
;	COMDAT text$x
text$x	SEGMENT
__unwindfunclet$??0?$CEncrypt@M@@QAE@XZ$0:
  00000	8b 4d f0	 mov	 ecx, DWORD PTR _this$[ebp]
  00003	83 c1 0c	 add	 ecx, 12			; 0000000cH
  00006	e9 00 00 00 00	 jmp	 ??1ccddaabb@@UAE@XZ	; ccddaabb::~ccddaabb
__ehhandler$??0?$CEncrypt@M@@QAE@XZ:
  0000b	8b 54 24 08	 mov	 edx, DWORD PTR [esp+8]
  0000f	8d 42 0c	 lea	 eax, DWORD PTR [edx+12]
  00012	8b 4a ec	 mov	 ecx, DWORD PTR [edx-20]
  00015	33 c8		 xor	 ecx, eax
  00017	e8 00 00 00 00	 call	 @__security_check_cookie@4
  0001c	b8 00 00 00 00	 mov	 eax, OFFSET __ehfuncinfo$??0?$CEncrypt@M@@QAE@XZ
  00021	e9 00 00 00 00	 jmp	 ___CxxFrameHandler3
text$x	ENDS
??0?$CEncrypt@M@@QAE@XZ ENDP				; CEncrypt<float>::CEncrypt<float>
PUBLIC	??B?$CEncrypt@M@@QAEMXZ				; CEncrypt<float>::operator float
; Function compile flags: /Ogsp
;	COMDAT ??B?$CEncrypt@M@@QAEMXZ
_TEXT	SEGMENT
_value$ = -4						; size = 4
??B?$CEncrypt@M@@QAEMXZ PROC				; CEncrypt<float>::operator float, COMDAT
; _this$ = ecx

; 134  : 	{

  00000	55		 push	 ebp
  00001	8b ec		 mov	 ebp, esp
  00003	51		 push	 ecx

; 135  : 		type value;
; 136  : 		DecryptValueToPool(&value);

  00004	8d 45 fc	 lea	 eax, DWORD PTR _value$[ebp]
  00007	50		 push	 eax
  00008	e8 00 00 00 00	 call	 ?DecryptValueToPool@?$CEncrypt@M@@QAEXPAM@Z ; CEncrypt<float>::DecryptValueToPool

; 137  : 
; 138  : #ifdef _NOTUSE
; 139  : 		Debug();
; 140  : #endif
; 141  : 		return value;

  0000d	d9 45 fc	 fld	 DWORD PTR _value$[ebp]

; 142  : 	}

  00010	c9		 leave
  00011	c3		 ret	 0
??B?$CEncrypt@M@@QAEMXZ ENDP				; CEncrypt<float>::operator float
_TEXT	ENDS
PUBLIC	??B?$CEncrypt@M@@QBEMXZ				; CEncrypt<float>::operator float
; Function compile flags: /Ogsp
;	COMDAT ??B?$CEncrypt@M@@QBEMXZ
_TEXT	SEGMENT
_value$ = -4						; size = 4
??B?$CEncrypt@M@@QBEMXZ PROC				; CEncrypt<float>::operator float, COMDAT
; _this$ = ecx

; 145  : 	{

  00000	55		 push	 ebp
  00001	8b ec		 mov	 ebp, esp
  00003	51		 push	 ecx

; 146  : 		//UJ 130829, const도 똑같이 하면 된다 --start
; 147  : 		type value;
; 148  : 		CEncrypt<type>* pThis = const_cast<CEncrypt<type>*>(this);
; 149  : 		pThis->DecryptValueToPool(&value);

  00004	8d 45 fc	 lea	 eax, DWORD PTR _value$[ebp]
  00007	50		 push	 eax
  00008	e8 00 00 00 00	 call	 ?DecryptValueToPool@?$CEncrypt@M@@QAEXPAM@Z ; CEncrypt<float>::DecryptValueToPool

; 150  : 		//// const에서 DecryptValueToPool 사용할 수 없으므로 아래와 같이함.
; 151  :  		//type value;
; 152  : 		//char szTempMem[MAX_ENCRYPT];
; 153  : 		//m_RC5.DecryptByte( m_MemPool, szTempMem, max(m_ValueSize, DEFAULT_ENCRYPT) );
; 154  : 		//memcpy( &value, szTempMem, m_ValueSize );
; 155  : 		//UJ --end
; 156  : 
; 157  : #ifdef _NOTUSE
; 158  : 		Debug();
; 159  : #endif
; 160  : 		return value;

  0000d	d9 45 fc	 fld	 DWORD PTR _value$[ebp]

; 161  : 	}

  00010	c9		 leave
  00011	c3		 ret	 0
??B?$CEncrypt@M@@QBEMXZ ENDP				; CEncrypt<float>::operator float
_TEXT	ENDS
PUBLIC	??4?$CEncrypt@M@@QAEMM@Z			; CEncrypt<float>::operator=
; Function compile flags: /Ogsp
;	COMDAT ??4?$CEncrypt@M@@QAEMM@Z
_TEXT	SEGMENT
_value$ = 8						; size = 4
_inValue$ = 8						; size = 4
??4?$CEncrypt@M@@QAEMM@Z PROC				; CEncrypt<float>::operator=, COMDAT
; _this$ = ecx

; 1654 : 	{	

  00000	55		 push	 ebp
  00001	8b ec		 mov	 ebp, esp

; 1655 : 		type value = inValue;

  00003	d9 45 08	 fld	 DWORD PTR _inValue$[ebp]

; 1656 : 		EncryptValueToPool((char*)&value);

  00006	8d 45 08	 lea	 eax, DWORD PTR _value$[ebp]
  00009	50		 push	 eax
  0000a	d9 5d 08	 fstp	 DWORD PTR _value$[ebp]
  0000d	e8 00 00 00 00	 call	 ?EncryptValueToPool@?$CEncrypt@M@@AAEXPBD@Z ; CEncrypt<float>::EncryptValueToPool

; 1657 : #ifdef _NOTUSE
; 1658 : 		m_value = inValue;
; 1659 : 		Debug();
; 1660 : #endif
; 1661 : 		return value;

  00012	d9 45 08	 fld	 DWORD PTR _value$[ebp]

; 1662 : 	}

  00015	5d		 pop	 ebp
  00016	c2 04 00	 ret	 4
??4?$CEncrypt@M@@QAEMM@Z ENDP				; CEncrypt<float>::operator=
_TEXT	ENDS
PUBLIC	??0?$CEncrypt@K@@QAE@XZ				; CEncrypt<unsigned long>::CEncrypt<unsigned long>
;	COMDAT xdata$x
xdata$x	SEGMENT
__unwindtable$??0?$CEncrypt@K@@QAE@XZ DD 0ffffffffH
	DD	FLAT:__unwindfunclet$??0?$CEncrypt@K@@QAE@XZ$0
__ehfuncinfo$??0?$CEncrypt@K@@QAE@XZ DD 019930522H
	DD	01H
	DD	FLAT:__unwindtable$??0?$CEncrypt@K@@QAE@XZ
	DD	2 DUP(00H)
	DD	2 DUP(00H)
	DD	00H
	DD	01H
; Function compile flags: /Ogsp
xdata$x	ENDS
;	COMDAT ??0?$CEncrypt@K@@QAE@XZ
_TEXT	SEGMENT
_this$ = -16						; size = 4
__$EHRec$ = -12						; size = 12
??0?$CEncrypt@K@@QAE@XZ PROC				; CEncrypt<unsigned long>::CEncrypt<unsigned long>, COMDAT
; _this$ = ecx

; 109  : 	CEncrypt()

  00000	6a 04		 push	 4
  00002	b8 00 00 00 00	 mov	 eax, __ehhandler$??0?$CEncrypt@K@@QAE@XZ
  00007	e8 00 00 00 00	 call	 __EH_prolog3
  0000c	8b f1		 mov	 esi, ecx
  0000e	89 75 f0	 mov	 DWORD PTR _this$[ebp], esi
  00011	8d 4e 0c	 lea	 ecx, DWORD PTR [esi+12]
  00014	c7 06 00 00 00
	00		 mov	 DWORD PTR [esi], OFFSET ??_7?$CEncrypt@K@@6B@
  0001a	e8 00 00 00 00	 call	 ??0ccddaabb@@QAE@XZ	; ccddaabb::ccddaabb
  0001f	83 65 fc 00	 and	 DWORD PTR __$EHRec$[ebp+8], 0

; 110  : 	{
; 111  : 		Init();

  00023	8b ce		 mov	 ecx, esi
  00025	e8 00 00 00 00	 call	 ?Init@?$CEncrypt@K@@AAEXXZ ; CEncrypt<unsigned long>::Init

; 112  : 	}

  0002a	8b c6		 mov	 eax, esi
  0002c	e8 00 00 00 00	 call	 __EH_epilog3
  00031	c3		 ret	 0
_TEXT	ENDS
;	COMDAT text$x
text$x	SEGMENT
__unwindfunclet$??0?$CEncrypt@K@@QAE@XZ$0:
  00000	8b 4d f0	 mov	 ecx, DWORD PTR _this$[ebp]
  00003	83 c1 0c	 add	 ecx, 12			; 0000000cH
  00006	e9 00 00 00 00	 jmp	 ??1ccddaabb@@UAE@XZ	; ccddaabb::~ccddaabb
__ehhandler$??0?$CEncrypt@K@@QAE@XZ:
  0000b	8b 54 24 08	 mov	 edx, DWORD PTR [esp+8]
  0000f	8d 42 0c	 lea	 eax, DWORD PTR [edx+12]
  00012	8b 4a ec	 mov	 ecx, DWORD PTR [edx-20]
  00015	33 c8		 xor	 ecx, eax
  00017	e8 00 00 00 00	 call	 @__security_check_cookie@4
  0001c	b8 00 00 00 00	 mov	 eax, OFFSET __ehfuncinfo$??0?$CEncrypt@K@@QAE@XZ
  00021	e9 00 00 00 00	 jmp	 ___CxxFrameHandler3
text$x	ENDS
??0?$CEncrypt@K@@QAE@XZ ENDP				; CEncrypt<unsigned long>::CEncrypt<unsigned long>
PUBLIC	??B?$CEncrypt@K@@QAEKXZ				; CEncrypt<unsigned long>::operator unsigned long
; Function compile flags: /Ogsp
;	COMDAT ??B?$CEncrypt@K@@QAEKXZ
_TEXT	SEGMENT
_value$ = -4						; size = 4
??B?$CEncrypt@K@@QAEKXZ PROC				; CEncrypt<unsigned long>::operator unsigned long, COMDAT
; _this$ = ecx

; 134  : 	{

  00000	55		 push	 ebp
  00001	8b ec		 mov	 ebp, esp
  00003	51		 push	 ecx

; 135  : 		type value;
; 136  : 		DecryptValueToPool(&value);

  00004	8d 45 fc	 lea	 eax, DWORD PTR _value$[ebp]
  00007	50		 push	 eax
  00008	e8 00 00 00 00	 call	 ?DecryptValueToPool@?$CEncrypt@K@@QAEXPAK@Z ; CEncrypt<unsigned long>::DecryptValueToPool

; 137  : 
; 138  : #ifdef _NOTUSE
; 139  : 		Debug();
; 140  : #endif
; 141  : 		return value;

  0000d	8b 45 fc	 mov	 eax, DWORD PTR _value$[ebp]

; 142  : 	}

  00010	c9		 leave
  00011	c3		 ret	 0
??B?$CEncrypt@K@@QAEKXZ ENDP				; CEncrypt<unsigned long>::operator unsigned long
_TEXT	ENDS
PUBLIC	??B?$CEncrypt@K@@QBEKXZ				; CEncrypt<unsigned long>::operator unsigned long
; Function compile flags: /Ogsp
;	COMDAT ??B?$CEncrypt@K@@QBEKXZ
_TEXT	SEGMENT
_value$ = -4						; size = 4
??B?$CEncrypt@K@@QBEKXZ PROC				; CEncrypt<unsigned long>::operator unsigned long, COMDAT
; _this$ = ecx

; 145  : 	{

  00000	55		 push	 ebp
  00001	8b ec		 mov	 ebp, esp
  00003	51		 push	 ecx

; 146  : 		//UJ 130829, const도 똑같이 하면 된다 --start
; 147  : 		type value;
; 148  : 		CEncrypt<type>* pThis = const_cast<CEncrypt<type>*>(this);
; 149  : 		pThis->DecryptValueToPool(&value);

  00004	8d 45 fc	 lea	 eax, DWORD PTR _value$[ebp]
  00007	50		 push	 eax
  00008	e8 00 00 00 00	 call	 ?DecryptValueToPool@?$CEncrypt@K@@QAEXPAK@Z ; CEncrypt<unsigned long>::DecryptValueToPool

; 150  : 		//// const에서 DecryptValueToPool 사용할 수 없으므로 아래와 같이함.
; 151  :  		//type value;
; 152  : 		//char szTempMem[MAX_ENCRYPT];
; 153  : 		//m_RC5.DecryptByte( m_MemPool, szTempMem, max(m_ValueSize, DEFAULT_ENCRYPT) );
; 154  : 		//memcpy( &value, szTempMem, m_ValueSize );
; 155  : 		//UJ --end
; 156  : 
; 157  : #ifdef _NOTUSE
; 158  : 		Debug();
; 159  : #endif
; 160  : 		return value;

  0000d	8b 45 fc	 mov	 eax, DWORD PTR _value$[ebp]

; 161  : 	}

  00010	c9		 leave
  00011	c3		 ret	 0
??B?$CEncrypt@K@@QBEKXZ ENDP				; CEncrypt<unsigned long>::operator unsigned long
_TEXT	ENDS
PUBLIC	??4?$CEncrypt@K@@QAEKK@Z			; CEncrypt<unsigned long>::operator=
; Function compile flags: /Ogsp
;	COMDAT ??4?$CEncrypt@K@@QAEKK@Z
_TEXT	SEGMENT
_value$ = 8						; size = 4
_inValue$ = 8						; size = 4
??4?$CEncrypt@K@@QAEKK@Z PROC				; CEncrypt<unsigned long>::operator=, COMDAT
; _this$ = ecx

; 1262 : 	{

  00000	55		 push	 ebp
  00001	8b ec		 mov	 ebp, esp

; 1263 : 		
; 1264 : 		type value = inValue;

  00003	8b 45 08	 mov	 eax, DWORD PTR _inValue$[ebp]
  00006	89 45 08	 mov	 DWORD PTR _value$[ebp], eax

; 1265 : 		EncryptValueToPool((char*)&value);

  00009	8d 45 08	 lea	 eax, DWORD PTR _value$[ebp]
  0000c	50		 push	 eax
  0000d	e8 00 00 00 00	 call	 ?EncryptValueToPool@?$CEncrypt@K@@AAEXPBD@Z ; CEncrypt<unsigned long>::EncryptValueToPool

; 1266 : #ifdef _NOTUSE
; 1267 : 		m_value = inValue;
; 1268 : 		Debug();
; 1269 : #endif
; 1270 : 		return value;

  00012	8b 45 08	 mov	 eax, DWORD PTR _value$[ebp]

; 1271 : 	}

  00015	5d		 pop	 ebp
  00016	c2 04 00	 ret	 4
??4?$CEncrypt@K@@QAEKK@Z ENDP				; CEncrypt<unsigned long>::operator=
_TEXT	ENDS
PUBLIC	??0?$CEncrypt@_N@@QAE@XZ			; CEncrypt<bool>::CEncrypt<bool>
;	COMDAT xdata$x
xdata$x	SEGMENT
__unwindtable$??0?$CEncrypt@_N@@QAE@XZ DD 0ffffffffH
	DD	FLAT:__unwindfunclet$??0?$CEncrypt@_N@@QAE@XZ$0
__ehfuncinfo$??0?$CEncrypt@_N@@QAE@XZ DD 019930522H
	DD	01H
	DD	FLAT:__unwindtable$??0?$CEncrypt@_N@@QAE@XZ
	DD	2 DUP(00H)
	DD	2 DUP(00H)
	DD	00H
	DD	01H
; Function compile flags: /Ogsp
xdata$x	ENDS
;	COMDAT ??0?$CEncrypt@_N@@QAE@XZ
_TEXT	SEGMENT
_this$ = -16						; size = 4
__$EHRec$ = -12						; size = 12
??0?$CEncrypt@_N@@QAE@XZ PROC				; CEncrypt<bool>::CEncrypt<bool>, COMDAT
; _this$ = ecx

; 109  : 	CEncrypt()

  00000	6a 04		 push	 4
  00002	b8 00 00 00 00	 mov	 eax, __ehhandler$??0?$CEncrypt@_N@@QAE@XZ
  00007	e8 00 00 00 00	 call	 __EH_prolog3
  0000c	8b f1		 mov	 esi, ecx
  0000e	89 75 f0	 mov	 DWORD PTR _this$[ebp], esi
  00011	8d 4e 0c	 lea	 ecx, DWORD PTR [esi+12]
  00014	c7 06 00 00 00
	00		 mov	 DWORD PTR [esi], OFFSET ??_7?$CEncrypt@_N@@6B@
  0001a	e8 00 00 00 00	 call	 ??0ccddaabb@@QAE@XZ	; ccddaabb::ccddaabb
  0001f	83 65 fc 00	 and	 DWORD PTR __$EHRec$[ebp+8], 0

; 110  : 	{
; 111  : 		Init();

  00023	8b ce		 mov	 ecx, esi
  00025	e8 00 00 00 00	 call	 ?Init@?$CEncrypt@_N@@AAEXXZ ; CEncrypt<bool>::Init

; 112  : 	}

  0002a	8b c6		 mov	 eax, esi
  0002c	e8 00 00 00 00	 call	 __EH_epilog3
  00031	c3		 ret	 0
_TEXT	ENDS
;	COMDAT text$x
text$x	SEGMENT
__unwindfunclet$??0?$CEncrypt@_N@@QAE@XZ$0:
  00000	8b 4d f0	 mov	 ecx, DWORD PTR _this$[ebp]
  00003	83 c1 0c	 add	 ecx, 12			; 0000000cH
  00006	e9 00 00 00 00	 jmp	 ??1ccddaabb@@UAE@XZ	; ccddaabb::~ccddaabb
__ehhandler$??0?$CEncrypt@_N@@QAE@XZ:
  0000b	8b 54 24 08	 mov	 edx, DWORD PTR [esp+8]
  0000f	8d 42 0c	 lea	 eax, DWORD PTR [edx+12]
  00012	8b 4a ec	 mov	 ecx, DWORD PTR [edx-20]
  00015	33 c8		 xor	 ecx, eax
  00017	e8 00 00 00 00	 call	 @__security_check_cookie@4
  0001c	b8 00 00 00 00	 mov	 eax, OFFSET __ehfuncinfo$??0?$CEncrypt@_N@@QAE@XZ
  00021	e9 00 00 00 00	 jmp	 ___CxxFrameHandler3
text$x	ENDS
??0?$CEncrypt@_N@@QAE@XZ ENDP				; CEncrypt<bool>::CEncrypt<bool>
PUBLIC	??B?$CEncrypt@_N@@QAE_NXZ			; CEncrypt<bool>::operator bool
; Function compile flags: /Ogsp
;	COMDAT ??B?$CEncrypt@_N@@QAE_NXZ
_TEXT	SEGMENT
_value$ = -1						; size = 1
??B?$CEncrypt@_N@@QAE_NXZ PROC				; CEncrypt<bool>::operator bool, COMDAT
; _this$ = ecx

; 134  : 	{

  00000	55		 push	 ebp
  00001	8b ec		 mov	 ebp, esp
  00003	51		 push	 ecx

; 135  : 		type value;
; 136  : 		DecryptValueToPool(&value);

  00004	8d 45 ff	 lea	 eax, DWORD PTR _value$[ebp]
  00007	50		 push	 eax
  00008	e8 00 00 00 00	 call	 ?DecryptValueToPool@?$CEncrypt@_N@@QAEXPA_N@Z ; CEncrypt<bool>::DecryptValueToPool

; 137  : 
; 138  : #ifdef _NOTUSE
; 139  : 		Debug();
; 140  : #endif
; 141  : 		return value;

  0000d	8a 45 ff	 mov	 al, BYTE PTR _value$[ebp]

; 142  : 	}

  00010	c9		 leave
  00011	c3		 ret	 0
??B?$CEncrypt@_N@@QAE_NXZ ENDP				; CEncrypt<bool>::operator bool
_TEXT	ENDS
PUBLIC	??B?$CEncrypt@_N@@QBE_NXZ			; CEncrypt<bool>::operator bool
; Function compile flags: /Ogsp
;	COMDAT ??B?$CEncrypt@_N@@QBE_NXZ
_TEXT	SEGMENT
_value$ = -1						; size = 1
??B?$CEncrypt@_N@@QBE_NXZ PROC				; CEncrypt<bool>::operator bool, COMDAT
; _this$ = ecx

; 145  : 	{

  00000	55		 push	 ebp
  00001	8b ec		 mov	 ebp, esp
  00003	51		 push	 ecx

; 146  : 		//UJ 130829, const도 똑같이 하면 된다 --start
; 147  : 		type value;
; 148  : 		CEncrypt<type>* pThis = const_cast<CEncrypt<type>*>(this);
; 149  : 		pThis->DecryptValueToPool(&value);

  00004	8d 45 ff	 lea	 eax, DWORD PTR _value$[ebp]
  00007	50		 push	 eax
  00008	e8 00 00 00 00	 call	 ?DecryptValueToPool@?$CEncrypt@_N@@QAEXPA_N@Z ; CEncrypt<bool>::DecryptValueToPool

; 150  : 		//// const에서 DecryptValueToPool 사용할 수 없으므로 아래와 같이함.
; 151  :  		//type value;
; 152  : 		//char szTempMem[MAX_ENCRYPT];
; 153  : 		//m_RC5.DecryptByte( m_MemPool, szTempMem, max(m_ValueSize, DEFAULT_ENCRYPT) );
; 154  : 		//memcpy( &value, szTempMem, m_ValueSize );
; 155  : 		//UJ --end
; 156  : 
; 157  : #ifdef _NOTUSE
; 158  : 		Debug();
; 159  : #endif
; 160  : 		return value;

  0000d	8a 45 ff	 mov	 al, BYTE PTR _value$[ebp]

; 161  : 	}

  00010	c9		 leave
  00011	c3		 ret	 0
??B?$CEncrypt@_N@@QBE_NXZ ENDP				; CEncrypt<bool>::operator bool
_TEXT	ENDS
PUBLIC	??4?$CEncrypt@_N@@QAE_N_N@Z			; CEncrypt<bool>::operator=
; Function compile flags: /Ogsp
;	COMDAT ??4?$CEncrypt@_N@@QAE_N_N@Z
_TEXT	SEGMENT
_inValue$ = 8						; size = 1
_value$ = 11						; size = 1
??4?$CEncrypt@_N@@QAE_N_N@Z PROC			; CEncrypt<bool>::operator=, COMDAT
; _this$ = ecx

; 225  : 	{

  00000	55		 push	 ebp
  00001	8b ec		 mov	 ebp, esp

; 226  : 		type value = inValue;

  00003	8a 45 08	 mov	 al, BYTE PTR _inValue$[ebp]
  00006	88 45 0b	 mov	 BYTE PTR _value$[ebp], al

; 227  : 		EncryptValueToPool((char*)&value);

  00009	8d 45 0b	 lea	 eax, DWORD PTR _value$[ebp]
  0000c	50		 push	 eax
  0000d	e8 00 00 00 00	 call	 ?EncryptValueToPool@?$CEncrypt@_N@@AAEXPBD@Z ; CEncrypt<bool>::EncryptValueToPool

; 228  : #ifdef _NOTUSE
; 229  : 		m_value = inValue;
; 230  : 		Debug();
; 231  : #endif
; 232  : 		return value;

  00012	8a 45 0b	 mov	 al, BYTE PTR _value$[ebp]

; 233  : 	}

  00015	5d		 pop	 ebp
  00016	c2 04 00	 ret	 4
??4?$CEncrypt@_N@@QAE_N_N@Z ENDP			; CEncrypt<bool>::operator=
_TEXT	ENDS
PUBLIC	??0?$_Vector_val@UWeaponInfo@@V?$allocator@UWeaponInfo@@@std@@@std@@QAE@V?$allocator@UWeaponInfo@@@1@@Z ; std::_Vector_val<WeaponInfo,std::allocator<WeaponInfo> >::_Vector_val<WeaponInfo,std::allocator<WeaponInfo> >
; Function compile flags: /Ogsp
; File c:\program files (x86)\microsoft visual studio 10.0\vc\include\vector
;	COMDAT ??0?$_Vector_val@UWeaponInfo@@V?$allocator@UWeaponInfo@@@std@@@std@@QAE@V?$allocator@UWeaponInfo@@@1@@Z
_TEXT	SEGMENT
__Al$ = 8						; size = 1
??0?$_Vector_val@UWeaponInfo@@V?$allocator@UWeaponInfo@@@std@@@std@@QAE@V?$allocator@UWeaponInfo@@@1@@Z PROC ; std::_Vector_val<WeaponInfo,std::allocator<WeaponInfo> >::_Vector_val<WeaponInfo,std::allocator<WeaponInfo> >, COMDAT
; _this$ = ecx

; 426  : 		{	// construct allocator from _Al

  00000	8b c1		 mov	 eax, ecx

; 427  : 		_Myfirst = 0;

  00002	33 c9		 xor	 ecx, ecx
  00004	89 08		 mov	 DWORD PTR [eax], ecx

; 428  : 		_Mylast = 0;

  00006	89 48 04	 mov	 DWORD PTR [eax+4], ecx

; 429  : 		_Myend = 0;

  00009	89 48 08	 mov	 DWORD PTR [eax+8], ecx

; 430  : 		}

  0000c	c2 04 00	 ret	 4
??0?$_Vector_val@UWeaponInfo@@V?$allocator@UWeaponInfo@@@std@@@std@@QAE@V?$allocator@UWeaponInfo@@@1@@Z ENDP ; std::_Vector_val<WeaponInfo,std::allocator<WeaponInfo> >::_Vector_val<WeaponInfo,std::allocator<WeaponInfo> >
_TEXT	ENDS
PUBLIC	??0?$_Vector_val@UForceInfo@@V?$allocator@UForceInfo@@@std@@@std@@QAE@V?$allocator@UForceInfo@@@1@@Z ; std::_Vector_val<ForceInfo,std::allocator<ForceInfo> >::_Vector_val<ForceInfo,std::allocator<ForceInfo> >
; Function compile flags: /Ogsp
;	COMDAT ??0?$_Vector_val@UForceInfo@@V?$allocator@UForceInfo@@@std@@@std@@QAE@V?$allocator@UForceInfo@@@1@@Z
_TEXT	SEGMENT
__Al$ = 8						; size = 1
??0?$_Vector_val@UForceInfo@@V?$allocator@UForceInfo@@@std@@@std@@QAE@V?$allocator@UForceInfo@@@1@@Z PROC ; std::_Vector_val<ForceInfo,std::allocator<ForceInfo> >::_Vector_val<ForceInfo,std::allocator<ForceInfo> >, COMDAT
; _this$ = ecx

; 426  : 		{	// construct allocator from _Al

  00000	8b c1		 mov	 eax, ecx

; 427  : 		_Myfirst = 0;

  00002	33 c9		 xor	 ecx, ecx
  00004	89 08		 mov	 DWORD PTR [eax], ecx

; 428  : 		_Mylast = 0;

  00006	89 48 04	 mov	 DWORD PTR [eax+4], ecx

; 429  : 		_Myend = 0;

  00009	89 48 08	 mov	 DWORD PTR [eax+8], ecx

; 430  : 		}

  0000c	c2 04 00	 ret	 4
??0?$_Vector_val@UForceInfo@@V?$allocator@UForceInfo@@@std@@@std@@QAE@V?$allocator@UForceInfo@@@1@@Z ENDP ; std::_Vector_val<ForceInfo,std::allocator<ForceInfo> >::_Vector_val<ForceInfo,std::allocator<ForceInfo> >
_TEXT	ENDS
PUBLIC	?max_size@?$vector@UWeaponInfo@@V?$allocator@UWeaponInfo@@@std@@@std@@QBEIXZ ; std::vector<WeaponInfo,std::allocator<WeaponInfo> >::max_size
; Function compile flags: /Ogsp
;	COMDAT ?max_size@?$vector@UWeaponInfo@@V?$allocator@UWeaponInfo@@@std@@@std@@QBEIXZ
_TEXT	SEGMENT
?max_size@?$vector@UWeaponInfo@@V?$allocator@UWeaponInfo@@@std@@@std@@QBEIXZ PROC ; std::vector<WeaponInfo,std::allocator<WeaponInfo> >::max_size, COMDAT
; _this$ = ecx

; 884  : 		return (this->_Alval.max_size());

  00000	b8 66 66 66 06	 mov	 eax, 107374182		; 06666666H

; 885  : 		}

  00005	c3		 ret	 0
?max_size@?$vector@UWeaponInfo@@V?$allocator@UWeaponInfo@@@std@@@std@@QBEIXZ ENDP ; std::vector<WeaponInfo,std::allocator<WeaponInfo> >::max_size
_TEXT	ENDS
PUBLIC	?allocate@?$allocator@UWeaponInfo@@@std@@QAEPAUWeaponInfo@@I@Z ; std::allocator<WeaponInfo>::allocate
; Function compile flags: /Ogsp
; File c:\program files (x86)\microsoft visual studio 10.0\vc\include\xmemory
;	COMDAT ?allocate@?$allocator@UWeaponInfo@@@std@@QAEPAUWeaponInfo@@I@Z
_TEXT	SEGMENT
__Count$ = 8						; size = 4
?allocate@?$allocator@UWeaponInfo@@@std@@QAEPAUWeaponInfo@@I@Z PROC ; std::allocator<WeaponInfo>::allocate, COMDAT
; _this$ = ecx

; 186  : 		{	// allocate array of _Count elements

  00000	55		 push	 ebp
  00001	8b ec		 mov	 ebp, esp

; 187  : 		return (_Allocate(_Count, (pointer)0));

  00003	6a 00		 push	 0
  00005	ff 75 08	 push	 DWORD PTR __Count$[ebp]
  00008	e8 00 00 00 00	 call	 ??$_Allocate@UWeaponInfo@@@std@@YAPAUWeaponInfo@@IPAU1@@Z ; std::_Allocate<WeaponInfo>
  0000d	59		 pop	 ecx
  0000e	59		 pop	 ecx

; 188  : 		}

  0000f	5d		 pop	 ebp
  00010	c2 04 00	 ret	 4
?allocate@?$allocator@UWeaponInfo@@@std@@QAEPAUWeaponInfo@@I@Z ENDP ; std::allocator<WeaponInfo>::allocate
_TEXT	ENDS
PUBLIC	?max_size@?$vector@UForceInfo@@V?$allocator@UForceInfo@@@std@@@std@@QBEIXZ ; std::vector<ForceInfo,std::allocator<ForceInfo> >::max_size
; Function compile flags: /Ogsp
; File c:\program files (x86)\microsoft visual studio 10.0\vc\include\vector
;	COMDAT ?max_size@?$vector@UForceInfo@@V?$allocator@UForceInfo@@@std@@@std@@QBEIXZ
_TEXT	SEGMENT
?max_size@?$vector@UForceInfo@@V?$allocator@UForceInfo@@@std@@@std@@QBEIXZ PROC ; std::vector<ForceInfo,std::allocator<ForceInfo> >::max_size, COMDAT
; _this$ = ecx

; 884  : 		return (this->_Alval.max_size());

  00000	b8 55 55 55 15	 mov	 eax, 357913941		; 15555555H

; 885  : 		}

  00005	c3		 ret	 0
?max_size@?$vector@UForceInfo@@V?$allocator@UForceInfo@@@std@@@std@@QBEIXZ ENDP ; std::vector<ForceInfo,std::allocator<ForceInfo> >::max_size
_TEXT	ENDS
PUBLIC	?allocate@?$allocator@UForceInfo@@@std@@QAEPAUForceInfo@@I@Z ; std::allocator<ForceInfo>::allocate
; Function compile flags: /Ogsp
; File c:\program files (x86)\microsoft visual studio 10.0\vc\include\xmemory
;	COMDAT ?allocate@?$allocator@UForceInfo@@@std@@QAEPAUForceInfo@@I@Z
_TEXT	SEGMENT
__Count$ = 8						; size = 4
?allocate@?$allocator@UForceInfo@@@std@@QAEPAUForceInfo@@I@Z PROC ; std::allocator<ForceInfo>::allocate, COMDAT
; _this$ = ecx

; 186  : 		{	// allocate array of _Count elements

  00000	55		 push	 ebp
  00001	8b ec		 mov	 ebp, esp

; 187  : 		return (_Allocate(_Count, (pointer)0));

  00003	6a 00		 push	 0
  00005	ff 75 08	 push	 DWORD PTR __Count$[ebp]
  00008	e8 00 00 00 00	 call	 ??$_Allocate@UForceInfo@@@std@@YAPAUForceInfo@@IPAU1@@Z ; std::_Allocate<ForceInfo>
  0000d	59		 pop	 ecx
  0000e	59		 pop	 ecx

; 188  : 		}

  0000f	5d		 pop	 ebp
  00010	c2 04 00	 ret	 4
?allocate@?$allocator@UForceInfo@@@std@@QAEPAUForceInfo@@I@Z ENDP ; std::allocator<ForceInfo>::allocate
_TEXT	ENDS
PUBLIC	??8?$_Vector_const_iterator@V?$_Vector_val@UWeaponInfo@@V?$allocator@UWeaponInfo@@@std@@@std@@@std@@QBE_NABV01@@Z ; std::_Vector_const_iterator<std::_Vector_val<WeaponInfo,std::allocator<WeaponInfo> > >::operator==
; Function compile flags: /Ogsp
; File c:\program files (x86)\microsoft visual studio 10.0\vc\include\vector
;	COMDAT ??8?$_Vector_const_iterator@V?$_Vector_val@UWeaponInfo@@V?$allocator@UWeaponInfo@@@std@@@std@@@std@@QBE_NABV01@@Z
_TEXT	SEGMENT
__Right$ = 8						; size = 4
??8?$_Vector_const_iterator@V?$_Vector_val@UWeaponInfo@@V?$allocator@UWeaponInfo@@@std@@@std@@@std@@QBE_NABV01@@Z PROC ; std::_Vector_const_iterator<std::_Vector_val<WeaponInfo,std::allocator<WeaponInfo> > >::operator==, COMDAT
; _this$ = ecx

; 201  : 		{	// test for iterator equality

  00000	55		 push	 ebp
  00001	8b ec		 mov	 ebp, esp

; 202  : 		_Compat(_Right);
; 203  : 		return (this->_Ptr == _Right._Ptr);

  00003	8b 01		 mov	 eax, DWORD PTR [ecx]
  00005	8b 4d 08	 mov	 ecx, DWORD PTR __Right$[ebp]
  00008	2b 01		 sub	 eax, DWORD PTR [ecx]
  0000a	f7 d8		 neg	 eax
  0000c	1b c0		 sbb	 eax, eax
  0000e	40		 inc	 eax

; 204  : 		}

  0000f	5d		 pop	 ebp
  00010	c2 04 00	 ret	 4
??8?$_Vector_const_iterator@V?$_Vector_val@UWeaponInfo@@V?$allocator@UWeaponInfo@@@std@@@std@@@std@@QBE_NABV01@@Z ENDP ; std::_Vector_const_iterator<std::_Vector_val<WeaponInfo,std::allocator<WeaponInfo> > >::operator==
_TEXT	ENDS
PUBLIC	??8?$_Vector_const_iterator@V?$_Vector_val@UForceInfo@@V?$allocator@UForceInfo@@@std@@@std@@@std@@QBE_NABV01@@Z ; std::_Vector_const_iterator<std::_Vector_val<ForceInfo,std::allocator<ForceInfo> > >::operator==
; Function compile flags: /Ogsp
;	COMDAT ??8?$_Vector_const_iterator@V?$_Vector_val@UForceInfo@@V?$allocator@UForceInfo@@@std@@@std@@@std@@QBE_NABV01@@Z
_TEXT	SEGMENT
__Right$ = 8						; size = 4
??8?$_Vector_const_iterator@V?$_Vector_val@UForceInfo@@V?$allocator@UForceInfo@@@std@@@std@@@std@@QBE_NABV01@@Z PROC ; std::_Vector_const_iterator<std::_Vector_val<ForceInfo,std::allocator<ForceInfo> > >::operator==, COMDAT
; _this$ = ecx

; 201  : 		{	// test for iterator equality

  00000	55		 push	 ebp
  00001	8b ec		 mov	 ebp, esp

; 202  : 		_Compat(_Right);
; 203  : 		return (this->_Ptr == _Right._Ptr);

  00003	8b 01		 mov	 eax, DWORD PTR [ecx]
  00005	8b 4d 08	 mov	 ecx, DWORD PTR __Right$[ebp]
  00008	2b 01		 sub	 eax, DWORD PTR [ecx]
  0000a	f7 d8		 neg	 eax
  0000c	1b c0		 sbb	 eax, eax
  0000e	40		 inc	 eax

; 204  : 		}

  0000f	5d		 pop	 ebp
  00010	c2 04 00	 ret	 4
??8?$_Vector_const_iterator@V?$_Vector_val@UForceInfo@@V?$allocator@UForceInfo@@@std@@@std@@@std@@QBE_NABV01@@Z ENDP ; std::_Vector_const_iterator<std::_Vector_val<ForceInfo,std::allocator<ForceInfo> > >::operator==
_TEXT	ENDS
PUBLIC	?destroy@?$allocator@UForceInfo@@@std@@QAEXPAUForceInfo@@@Z ; std::allocator<ForceInfo>::destroy
; Function compile flags: /Ogsp
; File c:\program files (x86)\microsoft visual studio 10.0\vc\include\xmemory
;	COMDAT ?destroy@?$allocator@UForceInfo@@@std@@QAEXPAUForceInfo@@@Z
_TEXT	SEGMENT
__Ptr$ = 8						; size = 4
?destroy@?$allocator@UForceInfo@@@std@@QAEXPAUForceInfo@@@Z PROC ; std::allocator<ForceInfo>::destroy, COMDAT
; _this$ = ecx

; 213  : 		_Destroy(_Ptr);
; 214  : 		}

  00000	c2 04 00	 ret	 4
?destroy@?$allocator@UForceInfo@@@std@@QAEXPAUForceInfo@@@Z ENDP ; std::allocator<ForceInfo>::destroy
_TEXT	ENDS
PUBLIC	??$_Destroy@UWeaponInfo@@@std@@YAXPAUWeaponInfo@@@Z ; std::_Destroy<WeaponInfo>
; Function compile flags: /Ogsp
;	COMDAT ??$_Destroy@UWeaponInfo@@@std@@YAXPAUWeaponInfo@@@Z
_TEXT	SEGMENT
__Ptr$ = 8						; size = 4
??$_Destroy@UWeaponInfo@@@std@@YAXPAUWeaponInfo@@@Z PROC ; std::_Destroy<WeaponInfo>, COMDAT

; 62   : 	{	// destroy object at _Ptr

  00000	55		 push	 ebp
  00001	8b ec		 mov	 ebp, esp

; 63   : 	_Ptr->~_Ty();

  00003	8b 4d 08	 mov	 ecx, DWORD PTR __Ptr$[ebp]
  00006	83 c1 08	 add	 ecx, 8

; 64   : 	}

  00009	5d		 pop	 ebp

; 63   : 	_Ptr->~_Ty();

  0000a	ff 25 00 00 00
	00		 jmp	 DWORD PTR __imp_??1ioHashString@@QAE@XZ
??$_Destroy@UWeaponInfo@@@std@@YAXPAUWeaponInfo@@@Z ENDP ; std::_Destroy<WeaponInfo>
_TEXT	ENDS
PUBLIC	?SetForcePowerAmt@ioBaseChar@@QAEXM@Z		; ioBaseChar::SetForcePowerAmt
; Function compile flags: /Ogsp
; File d:\lost saga for developer\youtube\tutorial\source\src\lsclient\iobasechar.h
;	COMDAT ?SetForcePowerAmt@ioBaseChar@@QAEXM@Z
_TEXT	SEGMENT
_value$614476 = 8					; size = 4
_fAmt$ = 8						; size = 4
?SetForcePowerAmt@ioBaseChar@@QAEXM@Z PROC		; ioBaseChar::SetForcePowerAmt, COMDAT
; _this$ = ecx

; 2641 : 	inline void SetForcePowerAmt( float fAmt ) { m_fForceAmt = fAmt; }

  00000	55		 push	 ebp
  00001	8b ec		 mov	 ebp, esp
  00003	f3 0f 10 45 08	 movss	 xmm0, DWORD PTR _fAmt$[ebp]
  00008	8d 45 08	 lea	 eax, DWORD PTR _value$614476[ebp]
  0000b	50		 push	 eax
  0000c	81 c1 88 0b 00
	00		 add	 ecx, 2952		; 00000b88H
  00012	f3 0f 11 45 08	 movss	 DWORD PTR _value$614476[ebp], xmm0
  00017	e8 00 00 00 00	 call	 ?EncryptValueToPool@?$CEncrypt@M@@AAEXPBD@Z ; CEncrypt<float>::EncryptValueToPool
  0001c	5d		 pop	 ebp
  0001d	c2 04 00	 ret	 4
?SetForcePowerAmt@ioBaseChar@@QAEXM@Z ENDP		; ioBaseChar::SetForcePowerAmt
_TEXT	ENDS
PUBLIC	__real@4f800000
PUBLIC	??_C@_00CNPNBAHC@?$AA@				; `string'
PUBLIC	__$ArrayPad$
PUBLIC	?LoadProperty@ioRunChargeItem2@@UAEXAAVioINILoader@@@Z ; ioRunChargeItem2::LoadProperty
EXTRN	?LoadAttackAttribute@@YAXPBDAAUAttackAttribute@@AAVioINILoader@@@Z:PROC ; LoadAttackAttribute
EXTRN	__imp__wsprintfA:PROC
EXTRN	__imp_??4ioHashString@@QAEAAV0@PBD@Z:PROC
EXTRN	?LoadProperty@ioWeaponItem@@UAEXAAVioINILoader@@@Z:PROC ; ioWeaponItem::LoadProperty
;	COMDAT __real@4f800000
; File d:\lost saga for developer\youtube\tutorial\source\src\lsclient\stringprotect.h
CONST	SEGMENT
__real@4f800000 DD 04f800000r			; 4.29497e+009
CONST	ENDS
;	COMDAT ??_C@_00CNPNBAHC@?$AA@
CONST	SEGMENT
??_C@_00CNPNBAHC@?$AA@ DB 00H				; `string'
; Function compile flags: /Ogsp
; File d:\lost saga for developer\youtube\tutorial\source\src\lsclient\iorunchargeitem2.cpp
CONST	ENDS
;	COMDAT ?LoadProperty@ioRunChargeItem2@@UAEXAAVioINILoader@@@Z
_TEXT	SEGMENT
_value$615407 = -305					; size = 1
tv12787 = -304						; size = 4
tv12754 = -304						; size = 4
tv12739 = -304						; size = 4
_value$615277 = -304					; size = 4
_i$614886 = -304					; size = 4
_value$615148 = -304					; size = 4
_szBuf$ = -300						; size = 260
__k$615567 = -40					; size = 29
__k$615808 = -36					; size = 23
__k$615425 = -36					; size = 24
__k$615295 = -36					; size = 24
__k$615165 = -36					; size = 24
__k$614910 = -36					; size = 24
__k$614785 = -36					; size = 24
__k$615756 = -32					; size = 18
__k$614712 = -32					; size = 19
__k$615035 = -28					; size = 17
__k$614508 = -28					; size = 14
___encStr$607826 = -28					; size = 14
___encStr$607674 = -28					; size = 15
___encStr$607521 = -28					; size = 14
__$ArrayPad$ = -4					; size = 4
_rkLoader$ = 8						; size = 4
?LoadProperty@ioRunChargeItem2@@UAEXAAVioINILoader@@@Z PROC ; ioRunChargeItem2::LoadProperty, COMDAT
; _this$ = ecx

; 80   : {

  00000	55		 push	 ebp
  00001	8b ec		 mov	 ebp, esp
  00003	81 ec 34 01 00
	00		 sub	 esp, 308		; 00000134H
  00009	a1 00 00 00 00	 mov	 eax, DWORD PTR ___security_cookie
  0000e	33 c5		 xor	 eax, ebp
  00010	89 45 fc	 mov	 DWORD PTR __$ArrayPad$[ebp], eax
  00013	53		 push	 ebx
  00014	56		 push	 esi
  00015	57		 push	 edi
  00016	8b 7d 08	 mov	 edi, DWORD PTR _rkLoader$[ebp]

; 81   : 	ioWeaponItem::LoadProperty( rkLoader );

  00019	57		 push	 edi
  0001a	8b f1		 mov	 esi, ecx
  0001c	e8 00 00 00 00	 call	 ?LoadProperty@ioWeaponItem@@UAEXAAVioINILoader@@@Z ; ioWeaponItem::LoadProperty

; 82   : 
; 83   : 	char szBuf[MAX_PATH];
; 84   : 
; 85   : 	rkLoader.LoadString_e( "charge_branch", "", szBuf, MAX_PATH );

  00021	6a 03		 push	 3
  00023	c7 45 e4 8e 84
	8a 98		 mov	 DWORD PTR __k$614508[ebp], -1735752562 ; 988a848eH
  0002a	c7 45 e8 8a 89
	b4 88		 mov	 DWORD PTR __k$614508[ebp+4], -2001434230 ; 88b4898aH
  00031	c7 45 ec 9f 8d
	85 89		 mov	 DWORD PTR __k$614508[ebp+8], -1987736161 ; 89858d9fH
  00038	8d 45 e4	 lea	 eax, DWORD PTR __k$614508[ebp]
  0003b	33 db		 xor	 ebx, ebx
  0003d	66 c7 45 f0 85
	00		 mov	 WORD PTR __k$614508[ebp+12], 133 ; 00000085H
  00043	59		 pop	 ecx
$LL403@LoadProper:
  00044	81 30 ed ec eb
	ea		 xor	 DWORD PTR [eax], -353637139 ; eaebecedH
  0004a	83 c0 04	 add	 eax, 4
  0004d	49		 dec	 ecx
  0004e	75 f4		 jne	 SHORT $LL403@LoadProper
  00050	80 75 f0 ed	 xor	 BYTE PTR __k$614508[ebp+12], -19 ; ffffffedH
  00054	68 04 01 00 00	 push	 260			; 00000104H
  00059	8d 85 d4 fe ff
	ff		 lea	 eax, DWORD PTR _szBuf$[ebp]
  0005f	50		 push	 eax
  00060	68 00 00 00 00	 push	 OFFSET ??_C@_00CNPNBAHC@?$AA@
  00065	8d 45 e4	 lea	 eax, DWORD PTR __k$614508[ebp]
  00068	50		 push	 eax
  00069	8b cf		 mov	 ecx, edi
  0006b	ff 15 00 00 00
	00		 call	 DWORD PTR __imp_?LoadStringA@ioINILoader@@QAEXPBD0PADH@Z

; 86   : 	m_AttackReadyAni = szBuf;

  00071	8d 85 d4 fe ff
	ff		 lea	 eax, DWORD PTR _szBuf$[ebp]
  00077	50		 push	 eax
  00078	8d 8e 5c 19 00
	00		 lea	 ecx, DWORD PTR [esi+6492]
  0007e	ff 15 00 00 00
	00		 call	 DWORD PTR __imp_??4ioHashString@@QAEAAV0@PBD@Z
  00084	6a 03		 push	 3

; 87   : 
; 88   : 	wsprintf_e( szBuf, "charge_attack" );

  00086	c7 45 e4 8e 84
	8a 98		 mov	 DWORD PTR ___encStr$607521[ebp], -1735752562 ; 988a848eH
  0008d	c7 45 e8 8a 89
	b4 8b		 mov	 DWORD PTR ___encStr$607521[ebp+4], -1951102582 ; 8bb4898aH
  00094	c7 45 ec 99 98
	8a 89		 mov	 DWORD PTR ___encStr$607521[ebp+8], -1987405671 ; 898a9899H
  0009b	8d 45 e4	 lea	 eax, DWORD PTR ___encStr$607521[ebp]
  0009e	66 c7 45 f0 86
	00		 mov	 WORD PTR ___encStr$607521[ebp+12], 134 ; 00000086H
  000a4	59		 pop	 ecx
$LL411@LoadProper:
  000a5	81 30 ed ec eb
	ea		 xor	 DWORD PTR [eax], -353637139 ; eaebecedH
  000ab	83 c0 04	 add	 eax, 4
  000ae	49		 dec	 ecx
  000af	75 f4		 jne	 SHORT $LL411@LoadProper
  000b1	80 75 f0 ed	 xor	 BYTE PTR ___encStr$607521[ebp+12], -19 ; ffffffedH
  000b5	8d 45 e4	 lea	 eax, DWORD PTR ___encStr$607521[ebp]
  000b8	50		 push	 eax
  000b9	8d 85 d4 fe ff
	ff		 lea	 eax, DWORD PTR _szBuf$[ebp]
  000bf	50		 push	 eax
  000c0	ff 15 00 00 00
	00		 call	 DWORD PTR __imp__wsprintfA

; 89   : 	LoadAttackAttribute( szBuf, m_ChargeAttackAttribute, rkLoader );

  000c6	57		 push	 edi
  000c7	8d 86 c4 19 00
	00		 lea	 eax, DWORD PTR [esi+6596]
  000cd	50		 push	 eax
  000ce	8d 85 d4 fe ff
	ff		 lea	 eax, DWORD PTR _szBuf$[ebp]
  000d4	50		 push	 eax
  000d5	e8 00 00 00 00	 call	 ?LoadAttackAttribute@@YAXPBDAAUAttackAttribute@@AAVioINILoader@@@Z ; LoadAttackAttribute
  000da	83 c4 14	 add	 esp, 20			; 00000014H
  000dd	6a 03		 push	 3

; 90   : 
; 91   : 	wsprintf_e( szBuf, "charge_defense" );

  000df	c7 45 e4 8e 84
	8a 98		 mov	 DWORD PTR ___encStr$607674[ebp], -1735752562 ; 988a848eH
  000e6	c7 45 e8 8a 89
	b4 8e		 mov	 DWORD PTR ___encStr$607674[ebp+4], -1900770934 ; 8eb4898aH
  000ed	c7 45 ec 88 8a
	8e 84		 mov	 DWORD PTR ___encStr$607674[ebp+8], -2071033208 ; 848e8a88H
  000f4	66 c7 45 f0 9e
	89		 mov	 WORD PTR ___encStr$607674[ebp+12], 35230 ; 0000899eH
  000fa	8d 45 e4	 lea	 eax, DWORD PTR ___encStr$607674[ebp]
  000fd	88 5d f2	 mov	 BYTE PTR ___encStr$607674[ebp+14], bl
  00100	59		 pop	 ecx
$LL419@LoadProper:
  00101	81 30 ed ec eb
	ea		 xor	 DWORD PTR [eax], -353637139 ; eaebecedH
  00107	83 c0 04	 add	 eax, 4
  0010a	49		 dec	 ecx
  0010b	75 f4		 jne	 SHORT $LL419@LoadProper
  0010d	6a 0c		 push	 12			; 0000000cH
  0010f	58		 pop	 eax
$LL416@LoadProper:
  00110	8b c8		 mov	 ecx, eax
  00112	81 e1 03 00 00
	80		 and	 ecx, -2147483645	; 80000003H
  00118	79 05		 jns	 SHORT $LN1558@LoadProper
  0011a	49		 dec	 ecx
  0011b	83 c9 fc	 or	 ecx, -4			; fffffffcH
  0011e	41		 inc	 ecx
$LN1558@LoadProper:
  0011f	b2 ed		 mov	 dl, -19			; ffffffedH
  00121	2a d1		 sub	 dl, cl
  00123	30 54 05 e4	 xor	 BYTE PTR ___encStr$607674[ebp+eax], dl
  00127	40		 inc	 eax
  00128	83 f8 0e	 cmp	 eax, 14			; 0000000eH
  0012b	7c e3		 jl	 SHORT $LL416@LoadProper
  0012d	8d 45 e4	 lea	 eax, DWORD PTR ___encStr$607674[ebp]
  00130	50		 push	 eax
  00131	8d 85 d4 fe ff
	ff		 lea	 eax, DWORD PTR _szBuf$[ebp]
  00137	50		 push	 eax
  00138	ff 15 00 00 00
	00		 call	 DWORD PTR __imp__wsprintfA

; 92   : 	LoadAttackAttribute( szBuf, m_ChargeDefenseAttribute, rkLoader );

  0013e	57		 push	 edi
  0013f	8d 86 18 1a 00
	00		 lea	 eax, DWORD PTR [esi+6680]
  00145	50		 push	 eax
  00146	8d 85 d4 fe ff
	ff		 lea	 eax, DWORD PTR _szBuf$[ebp]
  0014c	50		 push	 eax
  0014d	e8 00 00 00 00	 call	 ?LoadAttackAttribute@@YAXPBDAAUAttackAttribute@@AAVioINILoader@@@Z ; LoadAttackAttribute
  00152	83 c4 14	 add	 esp, 20			; 00000014H
  00155	6a 03		 push	 3

; 93   : 
; 94   : 	wsprintf_e( szBuf, "finish_attack" );

  00157	c7 45 e4 8b 85
	85 83		 mov	 DWORD PTR ___encStr$607826[ebp], -2088401525 ; 8385858bH
  0015e	c7 45 e8 9e 84
	b4 8b		 mov	 DWORD PTR ___encStr$607826[ebp+4], -1951103842 ; 8bb4849eH
  00165	c7 45 ec 99 98
	8a 89		 mov	 DWORD PTR ___encStr$607826[ebp+8], -1987405671 ; 898a9899H
  0016c	8d 45 e4	 lea	 eax, DWORD PTR ___encStr$607826[ebp]
  0016f	66 c7 45 f0 86
	00		 mov	 WORD PTR ___encStr$607826[ebp+12], 134 ; 00000086H
  00175	59		 pop	 ecx
$LL427@LoadProper:
  00176	81 30 ed ec eb
	ea		 xor	 DWORD PTR [eax], -353637139 ; eaebecedH
  0017c	83 c0 04	 add	 eax, 4
  0017f	49		 dec	 ecx
  00180	75 f4		 jne	 SHORT $LL427@LoadProper
  00182	80 75 f0 ed	 xor	 BYTE PTR ___encStr$607826[ebp+12], -19 ; ffffffedH
  00186	8d 45 e4	 lea	 eax, DWORD PTR ___encStr$607826[ebp]
  00189	50		 push	 eax
  0018a	8d 85 d4 fe ff
	ff		 lea	 eax, DWORD PTR _szBuf$[ebp]
  00190	50		 push	 eax
  00191	ff 15 00 00 00
	00		 call	 DWORD PTR __imp__wsprintfA

; 95   : 	LoadAttackAttribute( szBuf, m_FinishAttribute, rkLoader );

  00197	57		 push	 edi
  00198	8d 86 6c 1a 00
	00		 lea	 eax, DWORD PTR [esi+6764]
  0019e	50		 push	 eax
  0019f	8d 85 d4 fe ff
	ff		 lea	 eax, DWORD PTR _szBuf$[ebp]
  001a5	50		 push	 eax
  001a6	e8 00 00 00 00	 call	 ?LoadAttackAttribute@@YAXPBDAAUAttackAttribute@@AAVioINILoader@@@Z ; LoadAttackAttribute
  001ab	83 c4 14	 add	 esp, 20			; 00000014H
  001ae	6a 04		 push	 4

; 96   : 
; 97   : 	// Run Ani
; 98   : 	rkLoader.LoadString_e( "charge_running_ani", "", szBuf, MAX_PATH );

  001b0	c7 45 e0 8e 84
	8a 98		 mov	 DWORD PTR __k$614712[ebp], -1735752562 ; 988a848eH
  001b7	c7 45 e4 8a 89
	b4 98		 mov	 DWORD PTR __k$614712[ebp+4], -1732998774 ; 98b4898aH
  001be	c7 45 e8 98 82
	85 83		 mov	 DWORD PTR __k$614712[ebp+8], -2088402280 ; 83858298H
  001c5	c7 45 ec 83 8b
	b4 8b		 mov	 DWORD PTR __k$614712[ebp+12], -1951102077 ; 8bb48b83H
  001cc	66 c7 45 f0 83
	85		 mov	 WORD PTR __k$614712[ebp+16], 34179 ; 00008583H
  001d2	8d 45 e0	 lea	 eax, DWORD PTR __k$614712[ebp]
  001d5	88 5d f2	 mov	 BYTE PTR __k$614712[ebp+18], bl
  001d8	59		 pop	 ecx
$LL533@LoadProper:
  001d9	81 30 ed ec eb
	ea		 xor	 DWORD PTR [eax], -353637139 ; eaebecedH
  001df	83 c0 04	 add	 eax, 4
  001e2	49		 dec	 ecx
  001e3	75 f4		 jne	 SHORT $LL533@LoadProper
  001e5	6a 10		 push	 16			; 00000010H
  001e7	58		 pop	 eax
$LL530@LoadProper:
  001e8	8b c8		 mov	 ecx, eax
  001ea	81 e1 03 00 00
	80		 and	 ecx, -2147483645	; 80000003H
  001f0	79 05		 jns	 SHORT $LN1559@LoadProper
  001f2	49		 dec	 ecx
  001f3	83 c9 fc	 or	 ecx, -4			; fffffffcH
  001f6	41		 inc	 ecx
$LN1559@LoadProper:
  001f7	b2 ed		 mov	 dl, -19			; ffffffedH
  001f9	2a d1		 sub	 dl, cl
  001fb	30 54 05 e0	 xor	 BYTE PTR __k$614712[ebp+eax], dl
  001ff	40		 inc	 eax
  00200	83 f8 12	 cmp	 eax, 18			; 00000012H
  00203	7c e3		 jl	 SHORT $LL530@LoadProper
  00205	68 04 01 00 00	 push	 260			; 00000104H
  0020a	8d 85 d4 fe ff
	ff		 lea	 eax, DWORD PTR _szBuf$[ebp]
  00210	50		 push	 eax
  00211	68 00 00 00 00	 push	 OFFSET ??_C@_00CNPNBAHC@?$AA@
  00216	8d 45 e0	 lea	 eax, DWORD PTR __k$614712[ebp]
  00219	50		 push	 eax
  0021a	8b cf		 mov	 ecx, edi
  0021c	ff 15 00 00 00
	00		 call	 DWORD PTR __imp_?LoadStringA@ioINILoader@@QAEXPBD0PADH@Z

; 99   : 	m_RunningAni = szBuf;

  00222	8d 85 d4 fe ff
	ff		 lea	 eax, DWORD PTR _szBuf$[ebp]
  00228	50		 push	 eax
  00229	8d 8e a4 19 00
	00		 lea	 ecx, DWORD PTR [esi+6564]
  0022f	ff 15 00 00 00
	00		 call	 DWORD PTR __imp_??4ioHashString@@QAEAAV0@PBD@Z

; 100  : 	m_fRunningAniRate = rkLoader.LoadFloat_e( "charge_running_ani_rate", FLOAT1 );

  00235	b8 01 00 00 00	 mov	 eax, 1
  0023a	6a 05		 push	 5
  0023c	c7 45 dc 8e 84
	8a 98		 mov	 DWORD PTR __k$614785[ebp], -1735752562 ; 988a848eH
  00243	c7 45 e0 8a 89
	b4 98		 mov	 DWORD PTR __k$614785[ebp+4], -1732998774 ; 98b4898aH
  0024a	c7 45 e4 98 82
	85 83		 mov	 DWORD PTR __k$614785[ebp+8], -2088402280 ; 83858298H
  00251	c7 45 e8 83 8b
	b4 8b		 mov	 DWORD PTR __k$614785[ebp+12], -1951102077 ; 8bb48b83H
  00258	c7 45 ec 83 85
	b4 98		 mov	 DWORD PTR __k$614785[ebp+16], -1732999805 ; 98b48583H
  0025f	8d 4d dc	 lea	 ecx, DWORD PTR __k$614785[ebp]
  00262	c7 45 f0 8c 98
	8e 00		 mov	 DWORD PTR __k$614785[ebp+20], 9345164 ; 008e988cH
  00269	5a		 pop	 edx
$LL641@LoadProper:
  0026a	81 31 ed ec eb
	ea		 xor	 DWORD PTR [ecx], -353637139 ; eaebecedH
  00270	83 c1 04	 add	 ecx, 4
  00273	4a		 dec	 edx
  00274	75 f4		 jne	 SHORT $LL641@LoadProper
  00276	c7 85 d0 fe ff
	ff 14 00 00 00	 mov	 DWORD PTR _i$614886[ebp], 20 ; 00000014H
$LL638@LoadProper:
  00280	8b 8d d0 fe ff
	ff		 mov	 ecx, DWORD PTR _i$614886[ebp]
  00286	81 e1 03 00 00
	80		 and	 ecx, -2147483645	; 80000003H
  0028c	79 05		 jns	 SHORT $LN1560@LoadProper
  0028e	49		 dec	 ecx
  0028f	83 c9 fc	 or	 ecx, -4			; fffffffcH
  00292	41		 inc	 ecx
$LN1560@LoadProper:
  00293	b2 ed		 mov	 dl, -19			; ffffffedH
  00295	2a d1		 sub	 dl, cl
  00297	8b 8d d0 fe ff
	ff		 mov	 ecx, DWORD PTR _i$614886[ebp]
  0029d	30 54 0d dc	 xor	 BYTE PTR __k$614785[ebp+ecx], dl
  002a1	ff 85 d0 fe ff
	ff		 inc	 DWORD PTR _i$614886[ebp]
  002a7	83 bd d0 fe ff
	ff 17		 cmp	 DWORD PTR _i$614886[ebp], 23 ; 00000017H
  002ae	7c d0		 jl	 SHORT $LL638@LoadProper
  002b0	89 85 d0 fe ff
	ff		 mov	 DWORD PTR tv12787[ebp], eax
  002b6	db 85 d0 fe ff
	ff		 fild	 DWORD PTR tv12787[ebp]
  002bc	85 c0		 test	 eax, eax
  002be	79 06		 jns	 SHORT $LN1561@LoadProper
  002c0	d8 05 00 00 00
	00		 fadd	 DWORD PTR __real@4f800000
$LN1561@LoadProper:
  002c6	51		 push	 ecx
  002c7	8d 45 dc	 lea	 eax, DWORD PTR __k$614785[ebp]
  002ca	d9 1c 24	 fstp	 DWORD PTR [esp]
  002cd	50		 push	 eax
  002ce	8b cf		 mov	 ecx, edi
  002d0	ff 15 00 00 00
	00		 call	 DWORD PTR __imp_?LoadFloat@ioINILoader@@QAEMPBDM@Z
  002d6	d9 9e b4 19 00
	00		 fstp	 DWORD PTR [esi+6580]
  002dc	6a 05		 push	 5

; 101  : 
; 102  : 	m_dwRunningDuration = (DWORD)rkLoader.LoadInt_e( "charge_running_duration", 0 );

  002de	c7 45 dc 8e 84
	8a 98		 mov	 DWORD PTR __k$614910[ebp], -1735752562 ; 988a848eH
  002e5	c7 45 e0 8a 89
	b4 98		 mov	 DWORD PTR __k$614910[ebp+4], -1732998774 ; 98b4898aH
  002ec	c7 45 e4 98 82
	85 83		 mov	 DWORD PTR __k$614910[ebp+8], -2088402280 ; 83858298H
  002f3	c7 45 e8 83 8b
	b4 8e		 mov	 DWORD PTR __k$614910[ebp+12], -1900770429 ; 8eb48b83H
  002fa	c7 45 ec 98 9e
	8a 9e		 mov	 DWORD PTR __k$614910[ebp+16], -1635082600 ; 9e8a9e98H
  00301	8d 45 dc	 lea	 eax, DWORD PTR __k$614910[ebp]
  00304	c7 45 f0 84 83
	85 00		 mov	 DWORD PTR __k$614910[ebp+20], 8749956 ; 00858384H
  0030b	59		 pop	 ecx
$LL747@LoadProper:
  0030c	81 30 ed ec eb
	ea		 xor	 DWORD PTR [eax], -353637139 ; eaebecedH
  00312	83 c0 04	 add	 eax, 4
  00315	49		 dec	 ecx
  00316	75 f4		 jne	 SHORT $LL747@LoadProper
  00318	6a 14		 push	 20			; 00000014H
  0031a	58		 pop	 eax
$LL744@LoadProper:
  0031b	8b c8		 mov	 ecx, eax
  0031d	81 e1 03 00 00
	80		 and	 ecx, -2147483645	; 80000003H
  00323	79 05		 jns	 SHORT $LN1562@LoadProper
  00325	49		 dec	 ecx
  00326	83 c9 fc	 or	 ecx, -4			; fffffffcH
  00329	41		 inc	 ecx
$LN1562@LoadProper:
  0032a	b2 ed		 mov	 dl, -19			; ffffffedH
  0032c	2a d1		 sub	 dl, cl
  0032e	30 54 05 dc	 xor	 BYTE PTR __k$614910[ebp+eax], dl
  00332	40		 inc	 eax
  00333	83 f8 17	 cmp	 eax, 23			; 00000017H
  00336	7c e3		 jl	 SHORT $LL744@LoadProper
  00338	53		 push	 ebx
  00339	8d 45 dc	 lea	 eax, DWORD PTR __k$614910[ebp]
  0033c	50		 push	 eax
  0033d	8b cf		 mov	 ecx, edi
  0033f	ff 15 00 00 00
	00		 call	 DWORD PTR __imp_?LoadInt@ioINILoader@@QAEHPBDH@Z
  00345	6a 04		 push	 4
  00347	89 86 b8 19 00
	00		 mov	 DWORD PTR [esi+6584], eax

; 103  : 
; 104  : 	// Run & Rotate
; 105  : 	m_fRunSpeed = rkLoader.LoadFloat_e( "charge_run_speed", 0.0f );

  0034d	c7 45 e4 8e 84
	8a 98		 mov	 DWORD PTR __k$615035[ebp], -1735752562 ; 988a848eH
  00354	c7 45 e8 8a 89
	b4 98		 mov	 DWORD PTR __k$615035[ebp+4], -1732998774 ; 98b4898aH
  0035b	c7 45 ec 98 82
	b4 99		 mov	 DWORD PTR __k$615035[ebp+8], -1716223336 ; 99b48298H
  00362	c7 45 f0 9d 89
	8e 8e		 mov	 DWORD PTR __k$615035[ebp+12], -1903261283 ; 8e8e899dH
  00369	8d 45 e4	 lea	 eax, DWORD PTR __k$615035[ebp]
  0036c	88 5d f4	 mov	 BYTE PTR __k$615035[ebp+16], bl
  0036f	59		 pop	 ecx
$LL853@LoadProper:
  00370	81 30 ed ec eb
	ea		 xor	 DWORD PTR [eax], -353637139 ; eaebecedH
  00376	83 c0 04	 add	 eax, 4
  00379	49		 dec	 ecx
  0037a	75 f4		 jne	 SHORT $LL853@LoadProper
  0037c	0f 57 c0	 xorps	 xmm0, xmm0
  0037f	51		 push	 ecx
  00380	8d 45 e4	 lea	 eax, DWORD PTR __k$615035[ebp]
  00383	f3 0f 11 04 24	 movss	 DWORD PTR [esp], xmm0
  00388	50		 push	 eax
  00389	8b cf		 mov	 ecx, edi
  0038b	ff 15 00 00 00
	00		 call	 DWORD PTR __imp_?LoadFloat@ioINILoader@@QAEMPBDM@Z
  00391	d9 9d d0 fe ff
	ff		 fstp	 DWORD PTR _value$615148[ebp]
  00397	8d 85 d0 fe ff
	ff		 lea	 eax, DWORD PTR _value$615148[ebp]
  0039d	50		 push	 eax
  0039e	8d 8e 74 19 00
	00		 lea	 ecx, DWORD PTR [esi+6516]
  003a4	e8 00 00 00 00	 call	 ?EncryptValueToPool@?$CEncrypt@M@@AAEXPBD@Z ; CEncrypt<float>::EncryptValueToPool
  003a9	6a 05		 push	 5

; 106  : 	m_dwRotateTime = (DWORD)rkLoader.LoadInt_e( "charge_run_rotate_speed", 0 );

  003ab	c7 45 dc 8e 84
	8a 98		 mov	 DWORD PTR __k$615165[ebp], -1735752562 ; 988a848eH
  003b2	c7 45 e0 8a 89
	b4 98		 mov	 DWORD PTR __k$615165[ebp+4], -1732998774 ; 98b4898aH
  003b9	c7 45 e4 98 82
	b4 98		 mov	 DWORD PTR __k$615165[ebp+8], -1733000552 ; 98b48298H
  003c0	c7 45 e8 82 98
	8a 9e		 mov	 DWORD PTR __k$615165[ebp+12], -1635084158 ; 9e8a9882H
  003c7	c7 45 ec 88 b3
	98 9a		 mov	 DWORD PTR __k$615165[ebp+16], -1701268600 ; 9a98b388H
  003ce	8d 45 dc	 lea	 eax, DWORD PTR __k$615165[ebp]
  003d1	c7 45 f0 88 89
	8f 00		 mov	 DWORD PTR __k$615165[ebp+20], 9406856 ; 008f8988H
  003d8	59		 pop	 ecx
$LL961@LoadProper:
  003d9	81 30 ed ec eb
	ea		 xor	 DWORD PTR [eax], -353637139 ; eaebecedH
  003df	83 c0 04	 add	 eax, 4
  003e2	49		 dec	 ecx
  003e3	75 f4		 jne	 SHORT $LL961@LoadProper
  003e5	6a 14		 push	 20			; 00000014H
  003e7	58		 pop	 eax
$LL958@LoadProper:
  003e8	8b c8		 mov	 ecx, eax
  003ea	81 e1 03 00 00
	80		 and	 ecx, -2147483645	; 80000003H
  003f0	79 05		 jns	 SHORT $LN1563@LoadProper
  003f2	49		 dec	 ecx
  003f3	83 c9 fc	 or	 ecx, -4			; fffffffcH
  003f6	41		 inc	 ecx
$LN1563@LoadProper:
  003f7	b2 ed		 mov	 dl, -19			; ffffffedH
  003f9	2a d1		 sub	 dl, cl
  003fb	30 54 05 dc	 xor	 BYTE PTR __k$615165[ebp+eax], dl
  003ff	40		 inc	 eax
  00400	83 f8 17	 cmp	 eax, 23			; 00000017H
  00403	7c e3		 jl	 SHORT $LL958@LoadProper
  00405	53		 push	 ebx
  00406	8d 45 dc	 lea	 eax, DWORD PTR __k$615165[ebp]
  00409	50		 push	 eax
  0040a	8b cf		 mov	 ecx, edi
  0040c	ff 15 00 00 00
	00		 call	 DWORD PTR __imp_?LoadInt@ioINILoader@@QAEHPBDH@Z
  00412	89 85 d0 fe ff
	ff		 mov	 DWORD PTR _value$615277[ebp], eax
  00418	8d 85 d0 fe ff
	ff		 lea	 eax, DWORD PTR _value$615277[ebp]
  0041e	50		 push	 eax
  0041f	8d 8e cc 1a 00
	00		 lea	 ecx, DWORD PTR [esi+6860]
  00425	e8 00 00 00 00	 call	 ?EncryptValueToPool@?$CEncrypt@K@@AAEXPBD@Z ; CEncrypt<unsigned long>::EncryptValueToPool
  0042a	6a 05		 push	 5

; 107  : 
; 108  : 	m_bOnlyTeamCharColSkip = rkLoader.LoadBool_e( "only_team_char_col_skip", false );

  0042c	c7 45 dc 82 82
	87 93		 mov	 DWORD PTR __k$615295[ebp], -1819835774 ; 93878282H
  00433	c7 45 e0 b2 98
	8e 8b		 mov	 DWORD PTR __k$615295[ebp+4], -1953589070 ; 8b8e98b2H
  0043a	c7 45 e4 80 b3
	88 82		 mov	 DWORD PTR __k$615295[ebp+8], -2104970368 ; 8288b380H
  00441	c7 45 e8 8c 9e
	b4 89		 mov	 DWORD PTR __k$615295[ebp+12], -1984651636 ; 89b49e8cH
  00448	c7 45 ec 82 80
	b4 99		 mov	 DWORD PTR __k$615295[ebp+16], -1716223870 ; 99b48082H
  0044f	8d 45 dc	 lea	 eax, DWORD PTR __k$615295[ebp]
  00452	c7 45 f0 86 85
	9b 00		 mov	 DWORD PTR __k$615295[ebp+20], 10192262 ; 009b8586H
  00459	59		 pop	 ecx
$LL1069@LoadProper:
  0045a	81 30 ed ec eb
	ea		 xor	 DWORD PTR [eax], -353637139 ; eaebecedH
  00460	83 c0 04	 add	 eax, 4
  00463	49		 dec	 ecx
  00464	75 f4		 jne	 SHORT $LL1069@LoadProper
  00466	6a 14		 push	 20			; 00000014H
  00468	58		 pop	 eax
$LL1066@LoadProper:
  00469	8b c8		 mov	 ecx, eax
  0046b	81 e1 03 00 00
	80		 and	 ecx, -2147483645	; 80000003H
  00471	79 05		 jns	 SHORT $LN1564@LoadProper
  00473	49		 dec	 ecx
  00474	83 c9 fc	 or	 ecx, -4			; fffffffcH
  00477	41		 inc	 ecx
$LN1564@LoadProper:
  00478	b2 ed		 mov	 dl, -19			; ffffffedH
  0047a	2a d1		 sub	 dl, cl
  0047c	30 54 05 dc	 xor	 BYTE PTR __k$615295[ebp+eax], dl
  00480	40		 inc	 eax
  00481	83 f8 17	 cmp	 eax, 23			; 00000017H
  00484	7c e3		 jl	 SHORT $LL1066@LoadProper
  00486	53		 push	 ebx
  00487	8d 45 dc	 lea	 eax, DWORD PTR __k$615295[ebp]
  0048a	50		 push	 eax
  0048b	8b cf		 mov	 ecx, edi
  0048d	ff 15 00 00 00
	00		 call	 DWORD PTR __imp_?LoadBool@ioINILoader@@QAE_NPBD_N@Z
  00493	88 85 cf fe ff
	ff		 mov	 BYTE PTR _value$615407[ebp], al
  00499	8d 85 cf fe ff
	ff		 lea	 eax, DWORD PTR _value$615407[ebp]
  0049f	50		 push	 eax
  004a0	8d 8e fc 1a 00
	00		 lea	 ecx, DWORD PTR [esi+6908]
  004a6	e8 00 00 00 00	 call	 ?EncryptValueToPool@?$CEncrypt@_N@@AAEXPBD@Z ; CEncrypt<bool>::EncryptValueToPool
  004ab	6a 05		 push	 5

; 109  : 
; 110  : 	//
; 111  : 	rkLoader.LoadString_e( "retreat_animation_front", "", szBuf, MAX_PATH );

  004ad	c7 45 dc 9f 89
	9f 98		 mov	 DWORD PTR __k$615425[ebp], -1734375009 ; 989f899fH
  004b4	c7 45 e0 88 8d
	9f b5		 mov	 DWORD PTR __k$615425[ebp+4], -1247834744 ; b59f8d88H
  004bb	c7 45 e4 8c 82
	82 87		 mov	 DWORD PTR __k$615425[ebp+8], -2021490036 ; 8782828cH
  004c2	c7 45 e8 8c 98
	82 85		 mov	 DWORD PTR __k$615425[ebp+12], -2055038836 ; 8582988cH
  004c9	c7 45 ec 83 b3
	8d 98		 mov	 DWORD PTR __k$615425[ebp+16], -1735543933 ; 988db383H
  004d0	8d 45 dc	 lea	 eax, DWORD PTR __k$615425[ebp]
  004d3	c7 45 f0 82 82
	9f 00		 mov	 DWORD PTR __k$615425[ebp+20], 10453634 ; 009f8282H
  004da	59		 pop	 ecx
$LL1177@LoadProper:
  004db	81 30 ed ec eb
	ea		 xor	 DWORD PTR [eax], -353637139 ; eaebecedH
  004e1	83 c0 04	 add	 eax, 4
  004e4	49		 dec	 ecx
  004e5	75 f4		 jne	 SHORT $LL1177@LoadProper
  004e7	6a 14		 push	 20			; 00000014H
  004e9	58		 pop	 eax
$LL1174@LoadProper:
  004ea	8b c8		 mov	 ecx, eax
  004ec	81 e1 03 00 00
	80		 and	 ecx, -2147483645	; 80000003H
  004f2	79 05		 jns	 SHORT $LN1565@LoadProper
  004f4	49		 dec	 ecx
  004f5	83 c9 fc	 or	 ecx, -4			; fffffffcH
  004f8	41		 inc	 ecx
$LN1565@LoadProper:
  004f9	b2 ed		 mov	 dl, -19			; ffffffedH
  004fb	2a d1		 sub	 dl, cl
  004fd	30 54 05 dc	 xor	 BYTE PTR __k$615425[ebp+eax], dl
  00501	40		 inc	 eax
  00502	83 f8 17	 cmp	 eax, 23			; 00000017H
  00505	7c e3		 jl	 SHORT $LL1174@LoadProper
  00507	68 04 01 00 00	 push	 260			; 00000104H
  0050c	8d 85 d4 fe ff
	ff		 lea	 eax, DWORD PTR _szBuf$[ebp]
  00512	50		 push	 eax
  00513	68 00 00 00 00	 push	 OFFSET ??_C@_00CNPNBAHC@?$AA@
  00518	8d 45 dc	 lea	 eax, DWORD PTR __k$615425[ebp]
  0051b	50		 push	 eax
  0051c	8b cf		 mov	 ecx, edi
  0051e	ff 15 00 00 00
	00		 call	 DWORD PTR __imp_?LoadStringA@ioINILoader@@QAEXPBD0PADH@Z

; 112  : 	m_szRetreatFr = szBuf;

  00524	8d 85 d4 fe ff
	ff		 lea	 eax, DWORD PTR _szBuf$[ebp]
  0052a	50		 push	 eax
  0052b	8d 8e 30 1b 00
	00		 lea	 ecx, DWORD PTR [esi+6960]
  00531	ff 15 00 00 00
	00		 call	 DWORD PTR __imp_??4ioHashString@@QAEAAV0@PBD@Z

; 113  : 	m_fRetreatFrRate = rkLoader.LoadFloat_e( "retreat_animation_front_rate", FLOAT1 );

  00537	b8 01 00 00 00	 mov	 eax, 1
  0053c	6a 07		 push	 7
  0053e	c7 45 d8 9f 89
	9f 98		 mov	 DWORD PTR __k$615567[ebp], -1734375009 ; 989f899fH
  00545	c7 45 dc 88 8d
	9f b5		 mov	 DWORD PTR __k$615567[ebp+4], -1247834744 ; b59f8d88H
  0054c	c7 45 e0 8c 82
	82 87		 mov	 DWORD PTR __k$615567[ebp+8], -2021490036 ; 8782828cH
  00553	c7 45 e4 8c 98
	82 85		 mov	 DWORD PTR __k$615567[ebp+12], -2055038836 ; 8582988cH
  0055a	c7 45 e8 83 b3
	8d 98		 mov	 DWORD PTR __k$615567[ebp+16], -1735543933 ; 988db383H
  00561	c7 45 ec 82 82
	9f b5		 mov	 DWORD PTR __k$615567[ebp+20], -1247837566 ; b59f8282H
  00568	c7 45 f0 9f 8d
	9f 8f		 mov	 DWORD PTR __k$615567[ebp+24], -1885368929 ; 8f9f8d9fH
  0056f	8d 4d d8	 lea	 ecx, DWORD PTR __k$615567[ebp]
  00572	88 5d f4	 mov	 BYTE PTR __k$615567[ebp+28], bl
  00575	5a		 pop	 edx
$LL1285@LoadProper:
  00576	81 31 ed ec eb
	ea		 xor	 DWORD PTR [ecx], -353637139 ; eaebecedH
  0057c	83 c1 04	 add	 ecx, 4
  0057f	4a		 dec	 edx
  00580	75 f4		 jne	 SHORT $LL1285@LoadProper
  00582	89 85 d0 fe ff
	ff		 mov	 DWORD PTR tv12754[ebp], eax
  00588	db 85 d0 fe ff
	ff		 fild	 DWORD PTR tv12754[ebp]
  0058e	85 c0		 test	 eax, eax
  00590	79 06		 jns	 SHORT $LN1566@LoadProper
  00592	d8 05 00 00 00
	00		 fadd	 DWORD PTR __real@4f800000
$LN1566@LoadProper:
  00598	51		 push	 ecx
  00599	8d 45 d8	 lea	 eax, DWORD PTR __k$615567[ebp]
  0059c	d9 1c 24	 fstp	 DWORD PTR [esp]
  0059f	50		 push	 eax
  005a0	8b cf		 mov	 ecx, edi
  005a2	ff 15 00 00 00
	00		 call	 DWORD PTR __imp_?LoadFloat@ioINILoader@@QAEMPBDM@Z
  005a8	d9 9e 40 1b 00
	00		 fstp	 DWORD PTR [esi+6976]
  005ae	6a 04		 push	 4

; 114  : 
; 115  : 	m_fRetreatForceAmt = rkLoader.LoadFloat_e( "retreat_force_amt", 0.0f );

  005b0	c7 45 e0 9f 89
	9f 98		 mov	 DWORD PTR __k$615756[ebp], -1734375009 ; 989f899fH
  005b7	c7 45 e4 88 8d
	9f b5		 mov	 DWORD PTR __k$615756[ebp+4], -1247834744 ; b59f8d88H
  005be	c7 45 e8 8b 83
	99 89		 mov	 DWORD PTR __k$615756[ebp+8], -1986428021 ; 8999838bH
  005c5	c7 45 ec 88 b3
	8a 87		 mov	 DWORD PTR __k$615756[ebp+12], -2020953208 ; 878ab388H
  005cc	8d 45 e0	 lea	 eax, DWORD PTR __k$615756[ebp]
  005cf	66 c7 45 f0 99
	00		 mov	 WORD PTR __k$615756[ebp+16], 153 ; 00000099H
  005d5	59		 pop	 ecx
$LL1391@LoadProper:
  005d6	81 30 ed ec eb
	ea		 xor	 DWORD PTR [eax], -353637139 ; eaebecedH
  005dc	83 c0 04	 add	 eax, 4
  005df	49		 dec	 ecx
  005e0	75 f4		 jne	 SHORT $LL1391@LoadProper
  005e2	0f 57 c0	 xorps	 xmm0, xmm0
  005e5	80 75 f0 ed	 xor	 BYTE PTR __k$615756[ebp+16], -19 ; ffffffedH
  005e9	51		 push	 ecx
  005ea	8d 45 e0	 lea	 eax, DWORD PTR __k$615756[ebp]
  005ed	f3 0f 11 04 24	 movss	 DWORD PTR [esp], xmm0
  005f2	50		 push	 eax
  005f3	8b cf		 mov	 ecx, edi
  005f5	ff 15 00 00 00
	00		 call	 DWORD PTR __imp_?LoadFloat@ioINILoader@@QAEMPBDM@Z
  005fb	d9 9e 54 1b 00
	00		 fstp	 DWORD PTR [esi+6996]

; 116  : 	m_fRetreatForceFric = rkLoader.LoadFloat_e( "retreat_force_friction", FLOAT1 );

  00601	b8 01 00 00 00	 mov	 eax, 1
  00606	6a 05		 push	 5
  00608	c7 45 dc 9f 89
	9f 98		 mov	 DWORD PTR __k$615808[ebp], -1734375009 ; 989f899fH
  0060f	c7 45 e0 88 8d
	9f b5		 mov	 DWORD PTR __k$615808[ebp+4], -1247834744 ; b59f8d88H
  00616	c7 45 e4 8b 83
	99 89		 mov	 DWORD PTR __k$615808[ebp+8], -1986428021 ; 8999838bH
  0061d	c7 45 e8 88 b3
	8d 98		 mov	 DWORD PTR __k$615808[ebp+12], -1735543928 ; 988db388H
  00624	c7 45 ec 84 8f
	9f 83		 mov	 DWORD PTR __k$615808[ebp+16], -2086695036 ; 839f8f84H
  0062b	66 c7 45 f0 82
	82		 mov	 WORD PTR __k$615808[ebp+20], 33410 ; 00008282H
  00631	8d 4d dc	 lea	 ecx, DWORD PTR __k$615808[ebp]
  00634	88 5d f2	 mov	 BYTE PTR __k$615808[ebp+22], bl
  00637	5a		 pop	 edx
$LL1499@LoadProper:
  00638	81 31 ed ec eb
	ea		 xor	 DWORD PTR [ecx], -353637139 ; eaebecedH
  0063e	83 c1 04	 add	 ecx, 4
  00641	4a		 dec	 edx
  00642	75 f4		 jne	 SHORT $LL1499@LoadProper
  00644	6a 14		 push	 20			; 00000014H
  00646	59		 pop	 ecx
$LL1496@LoadProper:
  00647	8b d1		 mov	 edx, ecx
  00649	81 e2 03 00 00
	80		 and	 edx, -2147483645	; 80000003H
  0064f	79 05		 jns	 SHORT $LN1567@LoadProper
  00651	4a		 dec	 edx
  00652	83 ca fc	 or	 edx, -4			; fffffffcH
  00655	42		 inc	 edx
$LN1567@LoadProper:
  00656	b3 ed		 mov	 bl, -19			; ffffffedH
  00658	2a da		 sub	 bl, dl
  0065a	30 5c 0d dc	 xor	 BYTE PTR __k$615808[ebp+ecx], bl
  0065e	41		 inc	 ecx
  0065f	83 f9 16	 cmp	 ecx, 22			; 00000016H
  00662	7c e3		 jl	 SHORT $LL1496@LoadProper
  00664	89 85 d0 fe ff
	ff		 mov	 DWORD PTR tv12739[ebp], eax
  0066a	db 85 d0 fe ff
	ff		 fild	 DWORD PTR tv12739[ebp]
  00670	85 c0		 test	 eax, eax
  00672	79 06		 jns	 SHORT $LN1568@LoadProper
  00674	d8 05 00 00 00
	00		 fadd	 DWORD PTR __real@4f800000
$LN1568@LoadProper:
  0067a	51		 push	 ecx
  0067b	8d 45 dc	 lea	 eax, DWORD PTR __k$615808[ebp]
  0067e	d9 1c 24	 fstp	 DWORD PTR [esp]
  00681	50		 push	 eax
  00682	8b cf		 mov	 ecx, edi
  00684	ff 15 00 00 00
	00		 call	 DWORD PTR __imp_?LoadFloat@ioINILoader@@QAEMPBDM@Z
  0068a	d9 9e 58 1b 00
	00		 fstp	 DWORD PTR [esi+7000]

; 117  : }

  00690	8b 4d fc	 mov	 ecx, DWORD PTR __$ArrayPad$[ebp]
  00693	5f		 pop	 edi
  00694	5e		 pop	 esi
  00695	33 cd		 xor	 ecx, ebp
  00697	5b		 pop	 ebx
  00698	e8 00 00 00 00	 call	 @__security_check_cookie@4
  0069d	c9		 leave
  0069e	c2 04 00	 ret	 4
?LoadProperty@ioRunChargeItem2@@UAEXAAVioINILoader@@@Z ENDP ; ioRunChargeItem2::LoadProperty
_TEXT	ENDS
PUBLIC	?SetNormalAttack@ioRunChargeItem2@@UAEXPAVioBaseChar@@H@Z ; ioRunChargeItem2::SetNormalAttack
EXTRN	?SetNormalAttack@ioAttackableItem@@UAEXPAVioBaseChar@@H@Z:PROC ; ioAttackableItem::SetNormalAttack
EXTRN	?SetAutoTargetTrackingEndTime@ioBaseChar@@QAEXK@Z:PROC ; ioBaseChar::SetAutoTargetTrackingEndTime
EXTRN	__imp_?SetActionAni@ioEntityGroup@@QAE_NHMMMMMM_N0@Z:PROC
EXTRN	__imp_?GetAnimationFullTime@ioEntityGroup@@QAEMH@Z:PROC
EXTRN	__imp_?GetAnimationIdx@ioEntityGroup@@QAEHABVioHashString@@@Z:PROC
EXTRN	__imp_?ClearAllActionAni@ioEntityGroup@@QAEXM_N@Z:PROC
EXTRN	__imp_?ClearAllLoopAni@ioEntityGroup@@QAEXM_N@Z:PROC
EXTRN	__ftol2:PROC
;	COMDAT xdata$x
; File d:\lost saga for developer\youtube\tutorial\source\src\lsclient\stringprotect.h
xdata$x	SEGMENT
__unwindtable$?SetNormalAttack@ioRunChargeItem2@@UAEXPAVioBaseChar@@H@Z DD 0ffffffffH
	DD	FLAT:__unwindfunclet$?SetNormalAttack@ioRunChargeItem2@@UAEXPAVioBaseChar@@H@Z$0
__ehfuncinfo$?SetNormalAttack@ioRunChargeItem2@@UAEXPAVioBaseChar@@H@Z DD 019930522H
	DD	01H
	DD	FLAT:__unwindtable$?SetNormalAttack@ioRunChargeItem2@@UAEXPAVioBaseChar@@H@Z
	DD	2 DUP(00H)
	DD	2 DUP(00H)
	DD	00H
	DD	01H
; Function compile flags: /Ogsp
; File d:\lost saga for developer\youtube\tutorial\source\src\lsclient\iorunchargeitem2.cpp
xdata$x	ENDS
;	COMDAT ?SetNormalAttack@ioRunChargeItem2@@UAEXPAVioBaseChar@@H@Z
_TEXT	SEGMENT
$T616149 = -64						; size = 16
_iAniID$608067 = -48					; size = 4
tv1168 = -44						; size = 4
tv1165 = -44						; size = 4
tv1163 = -44						; size = 4
tv1130 = -40						; size = 4
_value$616010 = -40					; size = 4
_fTimeRate$608068 = -40					; size = 4
tv1190 = -36						; size = 4
tv1185 = -36						; size = 4
tv1179 = -36						; size = 4
tv1161 = -36						; size = 4
tv1159 = -36						; size = 4
tv1135 = -36						; size = 4
$T616148 = -36						; size = 4
$T616023 = -36						; size = 4
_szEncEventType$616049 = -32				; size = 11
__$EHRec$ = -12						; size = 12
_pOwner$ = 8						; size = 4
_iCurCombo$ = 12					; size = 4
?SetNormalAttack@ioRunChargeItem2@@UAEXPAVioBaseChar@@H@Z PROC ; ioRunChargeItem2::SetNormalAttack, COMDAT
; _this$ = ecx

; 130  : {

  00000	6a 34		 push	 52			; 00000034H
  00002	b8 00 00 00 00	 mov	 eax, __ehhandler$?SetNormalAttack@ioRunChargeItem2@@UAEXPAVioBaseChar@@H@Z
  00007	e8 00 00 00 00	 call	 __EH_prolog3_GS
  0000c	8b 7d 08	 mov	 edi, DWORD PTR _pOwner$[ebp]

; 131  : 	if( !pOwner ) return;

  0000f	33 db		 xor	 ebx, ebx
  00011	8b f1		 mov	 esi, ecx
  00013	3b fb		 cmp	 edi, ebx
  00015	0f 84 9b 02 00
	00		 je	 $LN1@SetNormalA

; 132  : 
; 133  : 	m_dwRunningStartTime = 0;
; 134  : 
; 135  : 	m_dwRunningEndTime = 0;
; 136  : 	m_dwRunningAttackEndTime = 0;
; 137  : 	m_dwRunningDefenseEndTime = 0;
; 138  : 	m_dwFinishAttackEndTime = 0;
; 139  : 
; 140  : 	m_dwKeyReserveTime = 0;
; 141  : 	m_dwFireDuration = 0;
; 142  : 
; 143  : 	m_iSkillInput = -1;
; 144  : 	m_bEnableDefenseState = false;
; 145  : 	m_bEnableAttackState = false;
; 146  : 	m_bEnableJumpState = false;
; 147  : 
; 148  : 	m_CurDirKey = ioUserKeyInput::DKI_NONE;
; 149  : 
; 150  : 	int iComboCnt = GetMaxCombo();

  0001b	8b 06		 mov	 eax, DWORD PTR [esi]
  0001d	83 8e fc 0e 00
	00 ff		 or	 DWORD PTR [esi+3836], -1
  00024	89 9e bc 19 00
	00		 mov	 DWORD PTR [esi+6588], ebx
  0002a	89 9e c0 19 00
	00		 mov	 DWORD PTR [esi+6592], ebx
  00030	89 9e 14 1a 00
	00		 mov	 DWORD PTR [esi+6676], ebx
  00036	89 9e 68 1a 00
	00		 mov	 DWORD PTR [esi+6760], ebx
  0003c	89 9e bc 1a 00
	00		 mov	 DWORD PTR [esi+6844], ebx
  00042	89 9e f8 0e 00
	00		 mov	 DWORD PTR [esi+3832], ebx
  00048	89 9e 2c 1b 00
	00		 mov	 DWORD PTR [esi+6956], ebx
  0004e	66 89 9e 00 0f
	00 00		 mov	 WORD PTR [esi+3840], bx
  00055	88 9e 02 0f 00
	00		 mov	 BYTE PTR [esi+3842], bl
  0005b	89 9e c8 1a 00
	00		 mov	 DWORD PTR [esi+6856], ebx
  00061	ff 90 2c 02 00
	00		 call	 DWORD PTR [eax+556]

; 151  : 	if( !COMPARE( iCurCombo, 0, iComboCnt ) )

  00067	39 5d 0c	 cmp	 DWORD PTR _iCurCombo$[ebp], ebx
  0006a	0f 8c 1e 02 00
	00		 jl	 $LN2@SetNormalA
  00070	39 45 0c	 cmp	 DWORD PTR _iCurCombo$[ebp], eax
  00073	0f 8d 15 02 00
	00		 jge	 $LN2@SetNormalA

; 160  : 	}
; 161  : 	else
; 162  : 	{
; 163  : 		ioEntityGroup *pGrp = pOwner->GetGroup();

  00079	8b 5f 04	 mov	 ebx, DWORD PTR [edi+4]

; 164  : 		pGrp->ClearAllLoopAni( FLOAT100, true );

  0007c	b8 64 00 00 00	 mov	 eax, 100		; 00000064H
  00081	89 45 dc	 mov	 DWORD PTR tv1190[ebp], eax
  00084	db 45 dc	 fild	 DWORD PTR tv1190[ebp]
  00087	6a 01		 push	 1
  00089	85 c0		 test	 eax, eax
  0008b	79 06		 jns	 SHORT $LN139@SetNormalA
  0008d	d8 05 00 00 00
	00		 fadd	 DWORD PTR __real@4f800000
$LN139@SetNormalA:
  00093	51		 push	 ecx
  00094	8b cb		 mov	 ecx, ebx
  00096	d9 1c 24	 fstp	 DWORD PTR [esp]
  00099	ff 15 00 00 00
	00		 call	 DWORD PTR __imp_?ClearAllLoopAni@ioEntityGroup@@QAEXM_N@Z

; 165  : 		pGrp->ClearAllActionAni( FLOAT100, true );

  0009f	b8 64 00 00 00	 mov	 eax, 100		; 00000064H
  000a4	89 45 dc	 mov	 DWORD PTR tv1185[ebp], eax
  000a7	db 45 dc	 fild	 DWORD PTR tv1185[ebp]
  000aa	6a 01		 push	 1
  000ac	85 c0		 test	 eax, eax
  000ae	79 06		 jns	 SHORT $LN140@SetNormalA
  000b0	d8 05 00 00 00
	00		 fadd	 DWORD PTR __real@4f800000
$LN140@SetNormalA:
  000b6	51		 push	 ecx
  000b7	8b cb		 mov	 ecx, ebx
  000b9	d9 1c 24	 fstp	 DWORD PTR [esp]
  000bc	ff 15 00 00 00
	00		 call	 DWORD PTR __imp_?ClearAllActionAni@ioEntityGroup@@QAEXM_N@Z

; 166  : 
; 167  : 		int iAniID = pGrp->GetAnimationIdx( m_AttackReadyAni );

  000c2	8d 86 5c 19 00
	00		 lea	 eax, DWORD PTR [esi+6492]
  000c8	50		 push	 eax
  000c9	8b cb		 mov	 ecx, ebx
  000cb	ff 15 00 00 00
	00		 call	 DWORD PTR __imp_?GetAnimationIdx@ioEntityGroup@@QAEHABVioHashString@@@Z
  000d1	89 45 d0	 mov	 DWORD PTR _iAniID$608067[ebp], eax

; 168  : 		float fTimeRate = (float)m_dwChargeTime / pGrp->GetAnimationFullTime( iAniID );

  000d4	8d 45 d8	 lea	 eax, DWORD PTR _value$616010[ebp]
  000d7	50		 push	 eax
  000d8	8d 8e b0 18 00
	00		 lea	 ecx, DWORD PTR [esi+6320]
  000de	e8 00 00 00 00	 call	 ?DecryptValueToPool@?$CEncrypt@K@@QAEXPAK@Z ; CEncrypt<unsigned long>::DecryptValueToPool
  000e3	db 45 d8	 fild	 DWORD PTR _value$616010[ebp]
  000e6	8b 45 d8	 mov	 eax, DWORD PTR _value$616010[ebp]
  000e9	85 c0		 test	 eax, eax
  000eb	79 06		 jns	 SHORT $LN141@SetNormalA
  000ed	d8 05 00 00 00
	00		 fadd	 DWORD PTR __real@4f800000
$LN141@SetNormalA:
  000f3	ff 75 d0	 push	 DWORD PTR _iAniID$608067[ebp]
  000f6	d9 5d d8	 fstp	 DWORD PTR tv1130[ebp]
  000f9	8b cb		 mov	 ecx, ebx
  000fb	ff 15 00 00 00
	00		 call	 DWORD PTR __imp_?GetAnimationFullTime@ioEntityGroup@@QAEMH@Z
  00101	d8 7d d8	 fdivr	 DWORD PTR tv1130[ebp]
  00104	d9 5d d8	 fstp	 DWORD PTR _fTimeRate$608068[ebp]

; 169  : 		pGrp->SetActionAni( iAniID, FLOAT100, FLOAT100, FLOAT1, FLOAT1/fTimeRate, 0.0f, 0.0f, true );

  00107	b8 01 00 00 00	 mov	 eax, 1
  0010c	8b c8		 mov	 ecx, eax
  0010e	b8 01 00 00 00	 mov	 eax, 1
  00113	8b d0		 mov	 edx, eax
  00115	b8 64 00 00 00	 mov	 eax, 100		; 00000064H
  0011a	89 45 dc	 mov	 DWORD PTR $T616023[ebp], eax
  0011d	b8 64 00 00 00	 mov	 eax, 100		; 00000064H
  00122	0f 57 c0	 xorps	 xmm0, xmm0
  00125	6a 01		 push	 1
  00127	6a 01		 push	 1
  00129	83 ec 18	 sub	 esp, 24			; 00000018H
  0012c	89 4d d4	 mov	 DWORD PTR tv1168[ebp], ecx
  0012f	db 45 d4	 fild	 DWORD PTR tv1168[ebp]
  00132	f3 0f 11 44 24
	14		 movss	 DWORD PTR [esp+20], xmm0
  00138	f3 0f 11 44 24
	10		 movss	 DWORD PTR [esp+16], xmm0
  0013e	85 c9		 test	 ecx, ecx
  00140	79 06		 jns	 SHORT $LN142@SetNormalA
  00142	d8 05 00 00 00
	00		 fadd	 DWORD PTR __real@4f800000
$LN142@SetNormalA:
  00148	d8 75 d8	 fdiv	 DWORD PTR _fTimeRate$608068[ebp]
  0014b	d9 5d d4	 fstp	 DWORD PTR tv1165[ebp]
  0014e	d9 45 d4	 fld	 DWORD PTR tv1165[ebp]
  00151	d9 5c 24 0c	 fstp	 DWORD PTR [esp+12]
  00155	89 55 d4	 mov	 DWORD PTR tv1163[ebp], edx
  00158	db 45 d4	 fild	 DWORD PTR tv1163[ebp]
  0015b	85 d2		 test	 edx, edx
  0015d	79 06		 jns	 SHORT $LN143@SetNormalA
  0015f	d8 05 00 00 00
	00		 fadd	 DWORD PTR __real@4f800000
$LN143@SetNormalA:
  00165	8b 4d dc	 mov	 ecx, DWORD PTR $T616023[ebp]
  00168	d9 5c 24 08	 fstp	 DWORD PTR [esp+8]
  0016c	db 45 dc	 fild	 DWORD PTR $T616023[ebp]
  0016f	85 c9		 test	 ecx, ecx
  00171	79 06		 jns	 SHORT $LN144@SetNormalA
  00173	d8 05 00 00 00
	00		 fadd	 DWORD PTR __real@4f800000
$LN144@SetNormalA:
  00179	89 45 dc	 mov	 DWORD PTR tv1159[ebp], eax
  0017c	d9 5c 24 04	 fstp	 DWORD PTR [esp+4]
  00180	db 45 dc	 fild	 DWORD PTR tv1159[ebp]
  00183	85 c0		 test	 eax, eax
  00185	79 06		 jns	 SHORT $LN145@SetNormalA
  00187	d8 05 00 00 00
	00		 fadd	 DWORD PTR __real@4f800000
$LN145@SetNormalA:
  0018d	d9 1c 24	 fstp	 DWORD PTR [esp]
  00190	ff 75 d0	 push	 DWORD PTR _iAniID$608067[ebp]
  00193	8b cb		 mov	 ecx, ebx
  00195	ff 15 00 00 00
	00		 call	 DWORD PTR __imp_?SetActionAni@ioEntityGroup@@QAE_NHMMMMMM_N0@Z

; 170  : 
; 171  : 		m_ChargeState = CS_CHARGING;

  0019b	c7 86 54 19 00
	00 02 00 00 00	 mov	 DWORD PTR [esi+6484], 2

; 172  : 		m_dwAttackStartTime = FRAMEGETTIME();

  001a5	ff 15 00 00 00
	00		 call	 DWORD PTR __imp_?GetSingleton@ioFrameTimer@@SAAAV1@XZ
  001ab	8b c8		 mov	 ecx, eax
  001ad	ff 15 00 00 00
	00		 call	 DWORD PTR __imp_?GetLoopSec@ioFrameTimer@@QBEKXZ
  001b3	89 86 6c 19 00
	00		 mov	 DWORD PTR [esi+6508], eax

; 173  : 		m_iCurCombo = iCurCombo;

  001b9	8b 45 0c	 mov	 eax, DWORD PTR _iCurCombo$[ebp]

; 174  : 		pOwner->SetState( CS_ATTACK );

  001bc	6a 01		 push	 1
  001be	6a 05		 push	 5
  001c0	8b cf		 mov	 ecx, edi
  001c2	89 86 70 19 00
	00		 mov	 DWORD PTR [esi+6512], eax
  001c8	e8 00 00 00 00	 call	 ?SetState@ioBaseChar@@QAEXH_N@Z ; ioBaseChar::SetState

; 175  : 		pOwner->SetAttackMoveEnable( false );

  001cd	6a 00		 push	 0
  001cf	8b cf		 mov	 ecx, edi
  001d1	e8 00 00 00 00	 call	 ?SetAttackMoveEnable@ioBaseChar@@QAEX_N@Z ; ioBaseChar::SetAttackMoveEnable

; 176  : 		pOwner->SetChargingState( true );

  001d6	c6 87 54 20 00
	00 01		 mov	 BYTE PTR [edi+8276], 1

; 177  : 
; 178  : 		DWORD dwTrackingTime = FRAMEGETTIME();

  001dd	ff 15 00 00 00
	00		 call	 DWORD PTR __imp_?GetSingleton@ioFrameTimer@@SAAAV1@XZ
  001e3	8b c8		 mov	 ecx, eax
  001e5	ff 15 00 00 00
	00		 call	 DWORD PTR __imp_?GetLoopSec@ioFrameTimer@@QBEKXZ
  001eb	6a 02		 push	 2
  001ed	8b f0		 mov	 esi, eax

; 179  : 		dwTrackingTime += pGrp->GetAnimationEventTime_e( iAniID, "tracking_e" ) * fTimeRate;

  001ef	c7 45 e0 99 9e
	8a 89		 mov	 DWORD PTR _szEncEventType$616049[ebp], -1987404135 ; 898a9e99H
  001f6	c7 45 e4 86 85
	85 8d		 mov	 DWORD PTR _szEncEventType$616049[ebp+4], -1920629370 ; 8d858586H
  001fd	66 c7 45 e8 b2
	89		 mov	 WORD PTR _szEncEventType$616049[ebp+8], 35250 ; 000089b2H
  00203	8d 45 e0	 lea	 eax, DWORD PTR _szEncEventType$616049[ebp]
  00206	c6 45 ea 00	 mov	 BYTE PTR _szEncEventType$616049[ebp+10], 0
  0020a	59		 pop	 ecx
$LL131@SetNormalA:
  0020b	81 30 ed ec eb
	ea		 xor	 DWORD PTR [eax], -353637139 ; eaebecedH
  00211	83 c0 04	 add	 eax, 4
  00214	49		 dec	 ecx
  00215	75 f4		 jne	 SHORT $LL131@SetNormalA
  00217	6a 08		 push	 8
  00219	58		 pop	 eax
$LL128@SetNormalA:
  0021a	8b c8		 mov	 ecx, eax
  0021c	81 e1 03 00 00
	80		 and	 ecx, -2147483645	; 80000003H
  00222	79 05		 jns	 SHORT $LN146@SetNormalA
  00224	49		 dec	 ecx
  00225	83 c9 fc	 or	 ecx, -4			; fffffffcH
  00228	41		 inc	 ecx
$LN146@SetNormalA:
  00229	b2 ed		 mov	 dl, -19			; ffffffedH
  0022b	2a d1		 sub	 dl, cl
  0022d	30 54 05 e0	 xor	 BYTE PTR _szEncEventType$616049[ebp+eax], dl
  00231	40		 inc	 eax
  00232	83 f8 0a	 cmp	 eax, 10			; 0000000aH
  00235	7c e3		 jl	 SHORT $LL128@SetNormalA
  00237	8d 45 e0	 lea	 eax, DWORD PTR _szEncEventType$616049[ebp]
  0023a	50		 push	 eax
  0023b	8d 4d c0	 lea	 ecx, DWORD PTR $T616149[ebp]
  0023e	ff 15 00 00 00
	00		 call	 DWORD PTR __imp_??0ioHashString@@QAE@PBD@Z
  00244	83 65 fc 00	 and	 DWORD PTR __$EHRec$[ebp+8], 0
  00248	8d 45 c0	 lea	 eax, DWORD PTR $T616149[ebp]
  0024b	50		 push	 eax
  0024c	ff 75 d0	 push	 DWORD PTR _iAniID$608067[ebp]
  0024f	8b cb		 mov	 ecx, ebx
  00251	ff 15 00 00 00
	00		 call	 DWORD PTR __imp_?GetAnimationEventTime@ioEntityGroup@@QAEMHABVioHashString@@@Z
  00257	d9 5d dc	 fstp	 DWORD PTR $T616148[ebp]
  0025a	83 4d fc ff	 or	 DWORD PTR __$EHRec$[ebp+8], -1
  0025e	8d 4d c0	 lea	 ecx, DWORD PTR $T616149[ebp]
  00261	ff 15 00 00 00
	00		 call	 DWORD PTR __imp_??1ioHashString@@QAE@XZ

; 180  : 		pOwner->SetAutoTargetTrackingEndTime( dwTrackingTime );

  00267	d9 45 dc	 fld	 DWORD PTR $T616148[ebp]
  0026a	d8 4d d8	 fmul	 DWORD PTR _fTimeRate$608068[ebp]
  0026d	89 75 dc	 mov	 DWORD PTR tv1135[ebp], esi
  00270	db 45 dc	 fild	 DWORD PTR tv1135[ebp]
  00273	85 f6		 test	 esi, esi
  00275	79 06		 jns	 SHORT $LN147@SetNormalA
  00277	dc 05 00 00 00
	00		 fadd	 QWORD PTR __real@41f0000000000000
$LN147@SetNormalA:

; 179  : 		dwTrackingTime += pGrp->GetAnimationEventTime_e( iAniID, "tracking_e" ) * fTimeRate;

  0027d	de c1		 faddp	 ST(1), ST(0)

; 180  : 		pOwner->SetAutoTargetTrackingEndTime( dwTrackingTime );

  0027f	e8 00 00 00 00	 call	 __ftol2
  00284	50		 push	 eax
  00285	8b cf		 mov	 ecx, edi
  00287	e8 00 00 00 00	 call	 ?SetAutoTargetTrackingEndTime@ioBaseChar@@QAEXK@Z ; ioBaseChar::SetAutoTargetTrackingEndTime
  0028c	eb 28		 jmp	 SHORT $LN1@SetNormalA
$LN2@SetNormalA:

; 152  : 	{
; 153  : 		ioWeaponItem::SetNormalAttack( pOwner, iCurCombo );

  0028e	ff 75 0c	 push	 DWORD PTR _iCurCombo$[ebp]
  00291	8b ce		 mov	 ecx, esi
  00293	57		 push	 edi
  00294	e8 00 00 00 00	 call	 ?SetNormalAttack@ioAttackableItem@@UAEXPAVioBaseChar@@H@Z ; ioAttackableItem::SetNormalAttack

; 154  : 
; 155  : 		m_ChargeState = CS_NONE;
; 156  : 		m_iCurCombo = iCurCombo;

  00299	8b 45 0c	 mov	 eax, DWORD PTR _iCurCombo$[ebp]

; 157  : 
; 158  : 		pOwner->SetAttackMoveEnable( false );

  0029c	53		 push	 ebx
  0029d	8b cf		 mov	 ecx, edi
  0029f	89 9e 54 19 00
	00		 mov	 DWORD PTR [esi+6484], ebx
  002a5	89 86 70 19 00
	00		 mov	 DWORD PTR [esi+6512], eax
  002ab	e8 00 00 00 00	 call	 ?SetAttackMoveEnable@ioBaseChar@@QAEX_N@Z ; ioBaseChar::SetAttackMoveEnable

; 159  : 		pOwner->SetChargingState( false );

  002b0	88 9f 54 20 00
	00		 mov	 BYTE PTR [edi+8276], bl
$LN1@SetNormalA:

; 181  : 	}
; 182  : }

  002b6	e8 00 00 00 00	 call	 __EH_epilog3_GS
  002bb	c2 08 00	 ret	 8
_TEXT	ENDS
;	COMDAT text$x
text$x	SEGMENT
__unwindfunclet$?SetNormalAttack@ioRunChargeItem2@@UAEXPAVioBaseChar@@H@Z$0:
  00000	8d 4d c0	 lea	 ecx, DWORD PTR $T616149[ebp]
  00003	ff 25 00 00 00
	00		 jmp	 DWORD PTR __imp_??1ioHashString@@QAE@XZ
__ehhandler$?SetNormalAttack@ioRunChargeItem2@@UAEXPAVioBaseChar@@H@Z:
  00009	8b 54 24 08	 mov	 edx, DWORD PTR [esp+8]
  0000d	8d 42 0c	 lea	 eax, DWORD PTR [edx+12]
  00010	8b 4a bc	 mov	 ecx, DWORD PTR [edx-68]
  00013	33 c8		 xor	 ecx, eax
  00015	e8 00 00 00 00	 call	 @__security_check_cookie@4
  0001a	8b 4a fc	 mov	 ecx, DWORD PTR [edx-4]
  0001d	33 c8		 xor	 ecx, eax
  0001f	e8 00 00 00 00	 call	 @__security_check_cookie@4
  00024	b8 00 00 00 00	 mov	 eax, OFFSET __ehfuncinfo$?SetNormalAttack@ioRunChargeItem2@@UAEXPAVioBaseChar@@H@Z
  00029	e9 00 00 00 00	 jmp	 ___CxxFrameHandler3
text$x	ENDS
?SetNormalAttack@ioRunChargeItem2@@UAEXPAVioBaseChar@@H@Z ENDP ; ioRunChargeItem2::SetNormalAttack
PUBLIC	_szAni$GSCopy$
PUBLIC	_pOwner$GSCopy$
PUBLIC	__$ArrayPad$
PUBLIC	?ChangeToRetreatState@ioRunChargeItem2@@IAEXPAVioBaseChar@@ABVioHashString@@MUD3DXVECTOR3@@@Z ; ioRunChargeItem2::ChangeToRetreatState
EXTRN	??6SP2Packet@@QAEAAV0@ABUD3DXVECTOR3@@@Z:PROC	; SP2Packet::operator<<
EXTRN	??6SP2Packet@@QAEAAV0@M@Z:PROC			; SP2Packet::operator<<
EXTRN	??6SP2Packet@@QAEAAV0@ABVioHashString@@@Z:PROC	; SP2Packet::operator<<
EXTRN	?ClearReservedSliding@ioBaseChar@@QAEXXZ:PROC	; ioBaseChar::ClearReservedSliding
EXTRN	?ClearDirDoubleClick@ioBaseChar@@QAEXXZ:PROC	; ioBaseChar::ClearDirDoubleClick
;	COMDAT xdata$x
; File d:\lost saga for developer\youtube\tutorial\source\src\lsclient\stringprotect.h
xdata$x	SEGMENT
__unwindtable$?ChangeToRetreatState@ioRunChargeItem2@@IAEXPAVioBaseChar@@ABVioHashString@@MUD3DXVECTOR3@@@Z DD 0ffffffffH
	DD	FLAT:__unwindfunclet$?ChangeToRetreatState@ioRunChargeItem2@@IAEXPAVioBaseChar@@ABVioHashString@@MUD3DXVECTOR3@@@Z$1
	DD	0ffffffffH
	DD	FLAT:__unwindfunclet$?ChangeToRetreatState@ioRunChargeItem2@@IAEXPAVioBaseChar@@ABVioHashString@@MUD3DXVECTOR3@@@Z$2
	DD	0ffffffffH
	DD	FLAT:__unwindfunclet$?ChangeToRetreatState@ioRunChargeItem2@@IAEXPAVioBaseChar@@ABVioHashString@@MUD3DXVECTOR3@@@Z$0
__ehfuncinfo$?ChangeToRetreatState@ioRunChargeItem2@@IAEXPAVioBaseChar@@ABVioHashString@@MUD3DXVECTOR3@@@Z DD 019930522H
	DD	03H
	DD	FLAT:__unwindtable$?ChangeToRetreatState@ioRunChargeItem2@@IAEXPAVioBaseChar@@ABVioHashString@@MUD3DXVECTOR3@@@Z
	DD	2 DUP(00H)
	DD	2 DUP(00H)
	DD	00H
	DD	01H
; Function compile flags: /Ogsp
; File d:\lost saga for developer\youtube\tutorial\source\src\lsclient\iorunchargeitem2.cpp
xdata$x	ENDS
;	COMDAT ?ChangeToRetreatState@ioRunChargeItem2@@IAEXPAVioBaseChar@@ABVioHashString@@MUD3DXVECTOR3@@@Z
_TEXT	SEGMENT
_pOwner$GSCopy$ = -32876				; size = 4
_szAni$GSCopy$ = -32872					; size = 4
tv2074 = -32868						; size = 4
_iAniID$ = -32868					; size = 4
tv2062 = -32864						; size = 4
tv2059 = -32864						; size = 4
tv2057 = -32864						; size = 4
$T616470 = -32860					; size = 4
_pGrp$ = -32860						; size = 4
_dwCurTime$ = -32856					; size = 4
tv2055 = -32852						; size = 4
tv2053 = -32852						; size = 4
tv2036 = -32852						; size = 4
$T616340 = -32852					; size = 4
$T616218 = -32852					; size = 4
_value$616197 = -32848					; size = 4
_fCurRate$ = -32848					; size = 4
_kPacket$608180 = -32844				; size = 32792
$T616471 = -52						; size = 16
_szEncEventType$616241 = -52				; size = 13
_szEncEventType$616371 = -32				; size = 12
$T616341 = -32						; size = 16
__$ArrayPad$ = -16					; size = 4
__$EHRec$ = -12						; size = 12
_pOwner$ = 8						; size = 4
_szAni$ = 12						; size = 4
_fAniRate$ = 16						; size = 4
_vDir$ = 20						; size = 12
?ChangeToRetreatState@ioRunChargeItem2@@IAEXPAVioBaseChar@@ABVioHashString@@MUD3DXVECTOR3@@@Z PROC ; ioRunChargeItem2::ChangeToRetreatState, COMDAT
; _this$ = ecx

; 374  : {

  00000	55		 push	 ebp
  00001	8b ec		 mov	 ebp, esp
  00003	6a ff		 push	 -1
  00005	68 00 00 00 00	 push	 __ehhandler$?ChangeToRetreatState@ioRunChargeItem2@@IAEXPAVioBaseChar@@ABVioHashString@@MUD3DXVECTOR3@@@Z
  0000a	64 a1 00 00 00
	00		 mov	 eax, DWORD PTR fs:0
  00010	50		 push	 eax
  00011	b8 60 80 00 00	 mov	 eax, 32864		; 00008060H
  00016	e8 00 00 00 00	 call	 __chkstk
  0001b	a1 00 00 00 00	 mov	 eax, DWORD PTR ___security_cookie
  00020	33 c5		 xor	 eax, ebp
  00022	89 45 f0	 mov	 DWORD PTR __$ArrayPad$[ebp], eax
  00025	53		 push	 ebx
  00026	56		 push	 esi
  00027	57		 push	 edi
  00028	50		 push	 eax
  00029	8d 45 f4	 lea	 eax, DWORD PTR __$EHRec$[ebp]
  0002c	64 a3 00 00 00
	00		 mov	 DWORD PTR fs:0, eax
  00032	8b 7d 08	 mov	 edi, DWORD PTR _pOwner$[ebp]

; 378  : 
; 379  : 	DWORD dwCurTime = FRAMEGETTIME();

  00035	8b 45 0c	 mov	 eax, DWORD PTR _szAni$[ebp]
  00038	8b d9		 mov	 ebx, ecx

; 419  : 	{
; 420  : 		SP2Packet kPacket( CUPK_ITEM_GAUGE_OK );

  0003a	89 bd 94 7f ff
	ff		 mov	 DWORD PTR _pOwner$GSCopy$[ebp], edi
  00040	89 85 98 7f ff
	ff		 mov	 DWORD PTR _szAni$GSCopy$[ebp], eax
  00046	85 ff		 test	 edi, edi
  00048	0f 84 c0 03 00
	00		 je	 $LN1@ChangeToRe

; 375  : 	if( !pOwner ) return;
; 376  : 	ioEntityGroup *pGrp = pOwner->GetGroup();

  0004e	8b 77 04	 mov	 esi, DWORD PTR [edi+4]
  00051	89 b5 a4 7f ff
	ff		 mov	 DWORD PTR _pGrp$[ebp], esi

; 377  : 	if( !pGrp ) return;

  00057	85 f6		 test	 esi, esi
  00059	0f 84 af 03 00
	00		 je	 $LN1@ChangeToRe

; 378  : 
; 379  : 	DWORD dwCurTime = FRAMEGETTIME();

  0005f	ff 15 00 00 00
	00		 call	 DWORD PTR __imp_?GetSingleton@ioFrameTimer@@SAAAV1@XZ
  00065	8b c8		 mov	 ecx, eax
  00067	ff 15 00 00 00
	00		 call	 DWORD PTR __imp_?GetLoopSec@ioFrameTimer@@QBEKXZ

; 380  : 
; 381  : 	pOwner->ClearDirDoubleClick();

  0006d	8b cf		 mov	 ecx, edi
  0006f	89 85 a8 7f ff
	ff		 mov	 DWORD PTR _dwCurTime$[ebp], eax
  00075	e8 00 00 00 00	 call	 ?ClearDirDoubleClick@ioBaseChar@@QAEXXZ ; ioBaseChar::ClearDirDoubleClick

; 382  : 	pOwner->ClearReservedSliding();

  0007a	8b cf		 mov	 ecx, edi
  0007c	e8 00 00 00 00	 call	 ?ClearReservedSliding@ioBaseChar@@QAEXXZ ; ioBaseChar::ClearReservedSliding

; 383  : 
; 384  : 	pOwner->SetForcePowerAmt( 0.0f );

  00081	0f 57 c0	 xorps	 xmm0, xmm0
  00084	8d 85 b0 7f ff
	ff		 lea	 eax, DWORD PTR _value$616197[ebp]
  0008a	50		 push	 eax
  0008b	8d 8f 88 0b 00
	00		 lea	 ecx, DWORD PTR [edi+2952]
  00091	f3 0f 11 85 b0
	7f ff ff	 movss	 DWORD PTR _value$616197[ebp], xmm0
  00099	e8 00 00 00 00	 call	 ?EncryptValueToPool@?$CEncrypt@M@@AAEXPBD@Z ; CEncrypt<float>::EncryptValueToPool

; 385  : 
; 386  : 	pOwner->SetAttackMoveEnable( false );

  0009e	6a 00		 push	 0
  000a0	8b cf		 mov	 ecx, edi
  000a2	e8 00 00 00 00	 call	 ?SetAttackMoveEnable@ioBaseChar@@QAEX_N@Z ; ioBaseChar::SetAttackMoveEnable

; 387  : 	pOwner->SetChargingState( false );
; 388  : 
; 389  : 	m_dwKeyReserveTime = 0;
; 390  : 
; 391  : 	m_dwRetreatEndTime = 0;
; 392  : 	m_dwRetreatForceTime = 0;
; 393  : 
; 394  : 	float fCurRate = fAniRate;

  000a7	f3 0f 10 45 10	 movss	 xmm0, DWORD PTR _fAniRate$[ebp]

; 395  : 	if( fCurRate <= 0.0f )

  000ac	0f 57 c9	 xorps	 xmm1, xmm1
  000af	33 c0		 xor	 eax, eax
  000b1	0f 2f c8	 comiss	 xmm1, xmm0
  000b4	c6 87 54 20 00
	00 00		 mov	 BYTE PTR [edi+8276], 0
  000bb	89 83 f8 0e 00
	00		 mov	 DWORD PTR [ebx+3832], eax
  000c1	89 83 44 1b 00
	00		 mov	 DWORD PTR [ebx+6980], eax
  000c7	89 83 5c 1b 00
	00		 mov	 DWORD PTR [ebx+7004], eax
  000cd	f3 0f 11 85 b0
	7f ff ff	 movss	 DWORD PTR _fCurRate$[ebp], xmm0
  000d5	72 21		 jb	 SHORT $LN3@ChangeToRe

; 396  : 		fCurRate = FLOAT1;

  000d7	b8 01 00 00 00	 mov	 eax, 1
  000dc	89 85 9c 7f ff
	ff		 mov	 DWORD PTR tv2074[ebp], eax
  000e2	db 85 9c 7f ff
	ff		 fild	 DWORD PTR tv2074[ebp]
  000e8	85 c0		 test	 eax, eax
  000ea	79 06		 jns	 SHORT $LN250@ChangeToRe
  000ec	d8 05 00 00 00
	00		 fadd	 DWORD PTR __real@4f800000
$LN250@ChangeToRe:
  000f2	d9 9d b0 7f ff
	ff		 fstp	 DWORD PTR _fCurRate$[ebp]
$LN3@ChangeToRe:

; 397  : 
; 398  : 	m_ChargeState = CS_RETREAT;
; 399  : 
; 400  : 	int iAniID = pGrp->GetAnimationIdx( szAni );

  000f8	ff b5 98 7f ff
	ff		 push	 DWORD PTR _szAni$GSCopy$[ebp]
  000fe	8b ce		 mov	 ecx, esi
  00100	c7 83 54 19 00
	00 05 00 00 00	 mov	 DWORD PTR [ebx+6484], 5
  0010a	ff 15 00 00 00
	00		 call	 DWORD PTR __imp_?GetAnimationIdx@ioEntityGroup@@QAEHABVioHashString@@@Z

; 401  : 	pGrp->ClearAllActionAni( 0.0f, true );

  00110	0f 57 c0	 xorps	 xmm0, xmm0
  00113	6a 01		 push	 1
  00115	51		 push	 ecx
  00116	8b f8		 mov	 edi, eax
  00118	8b ce		 mov	 ecx, esi
  0011a	89 bd 9c 7f ff
	ff		 mov	 DWORD PTR _iAniID$[ebp], edi
  00120	f3 0f 11 04 24	 movss	 DWORD PTR [esp], xmm0
  00125	ff 15 00 00 00
	00		 call	 DWORD PTR __imp_?ClearAllActionAni@ioEntityGroup@@QAEXM_N@Z

; 402  : 	pGrp->ClearAllLoopAni( 0.0f, true );

  0012b	0f 57 c0	 xorps	 xmm0, xmm0
  0012e	6a 01		 push	 1
  00130	51		 push	 ecx
  00131	8b ce		 mov	 ecx, esi
  00133	f3 0f 11 04 24	 movss	 DWORD PTR [esp], xmm0
  00138	ff 15 00 00 00
	00		 call	 DWORD PTR __imp_?ClearAllLoopAni@ioEntityGroup@@QAEXM_N@Z

; 403  : 	pGrp->SetActionAni( iAniID, FLOAT100, FLOAT100, FLOAT1, FLOAT1/fCurRate );

  0013e	b8 01 00 00 00	 mov	 eax, 1
  00143	8b c8		 mov	 ecx, eax
  00145	b8 01 00 00 00	 mov	 eax, 1
  0014a	8b d0		 mov	 edx, eax
  0014c	b8 64 00 00 00	 mov	 eax, 100		; 00000064H
  00151	89 85 ac 7f ff
	ff		 mov	 DWORD PTR $T616218[ebp], eax
  00157	b8 64 00 00 00	 mov	 eax, 100		; 00000064H
  0015c	0f 57 c0	 xorps	 xmm0, xmm0
  0015f	6a 01		 push	 1
  00161	6a 00		 push	 0
  00163	83 ec 18	 sub	 esp, 24			; 00000018H
  00166	89 8d a0 7f ff
	ff		 mov	 DWORD PTR tv2062[ebp], ecx
  0016c	db 85 a0 7f ff
	ff		 fild	 DWORD PTR tv2062[ebp]
  00172	f3 0f 11 44 24
	14		 movss	 DWORD PTR [esp+20], xmm0
  00178	f3 0f 11 44 24
	10		 movss	 DWORD PTR [esp+16], xmm0
  0017e	85 c9		 test	 ecx, ecx
  00180	79 06		 jns	 SHORT $LN251@ChangeToRe
  00182	d8 05 00 00 00
	00		 fadd	 DWORD PTR __real@4f800000
$LN251@ChangeToRe:
  00188	d8 b5 b0 7f ff
	ff		 fdiv	 DWORD PTR _fCurRate$[ebp]
  0018e	d9 9d a0 7f ff
	ff		 fstp	 DWORD PTR tv2059[ebp]
  00194	d9 85 a0 7f ff
	ff		 fld	 DWORD PTR tv2059[ebp]
  0019a	d9 5c 24 0c	 fstp	 DWORD PTR [esp+12]
  0019e	89 95 a0 7f ff
	ff		 mov	 DWORD PTR tv2057[ebp], edx
  001a4	db 85 a0 7f ff
	ff		 fild	 DWORD PTR tv2057[ebp]
  001aa	85 d2		 test	 edx, edx
  001ac	79 06		 jns	 SHORT $LN252@ChangeToRe
  001ae	d8 05 00 00 00
	00		 fadd	 DWORD PTR __real@4f800000
$LN252@ChangeToRe:
  001b4	8b 8d ac 7f ff
	ff		 mov	 ecx, DWORD PTR $T616218[ebp]
  001ba	d9 5c 24 08	 fstp	 DWORD PTR [esp+8]
  001be	db 85 ac 7f ff
	ff		 fild	 DWORD PTR $T616218[ebp]
  001c4	85 c9		 test	 ecx, ecx
  001c6	79 06		 jns	 SHORT $LN253@ChangeToRe
  001c8	d8 05 00 00 00
	00		 fadd	 DWORD PTR __real@4f800000
$LN253@ChangeToRe:
  001ce	89 85 ac 7f ff
	ff		 mov	 DWORD PTR tv2053[ebp], eax
  001d4	d9 5c 24 04	 fstp	 DWORD PTR [esp+4]
  001d8	db 85 ac 7f ff
	ff		 fild	 DWORD PTR tv2053[ebp]
  001de	85 c0		 test	 eax, eax
  001e0	79 06		 jns	 SHORT $LN254@ChangeToRe
  001e2	d8 05 00 00 00
	00		 fadd	 DWORD PTR __real@4f800000
$LN254@ChangeToRe:
  001e8	d9 1c 24	 fstp	 DWORD PTR [esp]
  001eb	57		 push	 edi
  001ec	8b ce		 mov	 ecx, esi
  001ee	ff 15 00 00 00
	00		 call	 DWORD PTR __imp_?SetActionAni@ioEntityGroup@@QAE_NHMMMMMM_N0@Z

; 404  : 
; 405  : 	m_dwRetreatEndTime = dwCurTime + pGrp->GetAnimationFullTime(iAniID) * fCurRate;

  001f4	57		 push	 edi
  001f5	8b ce		 mov	 ecx, esi
  001f7	ff 15 00 00 00
	00		 call	 DWORD PTR __imp_?GetAnimationFullTime@ioEntityGroup@@QAEMH@Z
  001fd	d8 8d b0 7f ff
	ff		 fmul	 DWORD PTR _fCurRate$[ebp]
  00203	8b 85 a8 7f ff
	ff		 mov	 eax, DWORD PTR _dwCurTime$[ebp]
  00209	db 85 a8 7f ff
	ff		 fild	 DWORD PTR _dwCurTime$[ebp]
  0020f	85 c0		 test	 eax, eax
  00211	79 06		 jns	 SHORT $LN255@ChangeToRe
  00213	d8 05 00 00 00
	00		 fadd	 DWORD PTR __real@4f800000
$LN255@ChangeToRe:
  00219	de c1		 faddp	 ST(1), ST(0)
  0021b	e8 00 00 00 00	 call	 __ftol2
  00220	6a 03		 push	 3
  00222	89 83 44 1b 00
	00		 mov	 DWORD PTR [ebx+6980], eax

; 406  : 
; 407  : 	DWORD dwTime = (DWORD)pGrp->GetAnimationEventTime_e( iAniID, "fire_sliding" );

  00228	c7 45 cc 8b 85
	99 8f		 mov	 DWORD PTR _szEncEventType$616241[ebp], -1885764213 ; 8f99858bH
  0022f	c7 45 d0 b2 9f
	87 83		 mov	 DWORD PTR _szEncEventType$616241[ebp+4], -2088263758 ; 83879fb2H
  00236	c7 45 d4 89 85
	85 8d		 mov	 DWORD PTR _szEncEventType$616241[ebp+8], -1920629367 ; 8d858589H
  0023d	8d 45 cc	 lea	 eax, DWORD PTR _szEncEventType$616241[ebp]
  00240	c6 45 d8 00	 mov	 BYTE PTR _szEncEventType$616241[ebp+12], 0
  00244	59		 pop	 ecx
$LL131@ChangeToRe:
  00245	81 30 ed ec eb
	ea		 xor	 DWORD PTR [eax], -353637139 ; eaebecedH
  0024b	83 c0 04	 add	 eax, 4
  0024e	49		 dec	 ecx
  0024f	75 f4		 jne	 SHORT $LL131@ChangeToRe
  00251	8d 45 cc	 lea	 eax, DWORD PTR _szEncEventType$616241[ebp]
  00254	50		 push	 eax
  00255	8d 4d e0	 lea	 ecx, DWORD PTR $T616341[ebp]
  00258	ff 15 00 00 00
	00		 call	 DWORD PTR __imp_??0ioHashString@@QAE@PBD@Z
  0025e	83 65 fc 00	 and	 DWORD PTR __$EHRec$[ebp+8], 0
  00262	8d 45 e0	 lea	 eax, DWORD PTR $T616341[ebp]
  00265	50		 push	 eax
  00266	57		 push	 edi
  00267	8b ce		 mov	 ecx, esi
  00269	ff 15 00 00 00
	00		 call	 DWORD PTR __imp_?GetAnimationEventTime@ioEntityGroup@@QAEMHABVioHashString@@@Z
  0026f	d9 9d ac 7f ff
	ff		 fstp	 DWORD PTR $T616340[ebp]
  00275	83 4d fc ff	 or	 DWORD PTR __$EHRec$[ebp+8], -1
  00279	8d 4d e0	 lea	 ecx, DWORD PTR $T616341[ebp]
  0027c	ff 15 00 00 00
	00		 call	 DWORD PTR __imp_??1ioHashString@@QAE@XZ
  00282	d9 85 ac 7f ff
	ff		 fld	 DWORD PTR $T616340[ebp]
  00288	e8 00 00 00 00	 call	 __ftol2

; 408  : 	m_dwRetreatForceTime = dwCurTime + dwTime;

  0028d	03 85 a8 7f ff
	ff		 add	 eax, DWORD PTR _dwCurTime$[ebp]

; 409  : 
; 410  : 	m_vForceDir = vDir;

  00293	8d bb 48 1b 00
	00		 lea	 edi, DWORD PTR [ebx+6984]
  00299	8d 75 14	 lea	 esi, DWORD PTR _vDir$[ebp]
  0029c	a5		 movsd
  0029d	a5		 movsd
  0029e	6a 02		 push	 2
  002a0	a5		 movsd
  002a1	5f		 pop	 edi
  002a2	89 83 5c 1b 00
	00		 mov	 DWORD PTR [ebx+7004], eax

; 411  : 
; 412  : 	DWORD dwKeyReserve = pGrp->GetAnimationEventTime_e( iAniID, "key_reserve" ) * fCurRate;

  002a8	c7 45 e0 86 89
	92 b5		 mov	 DWORD PTR _szEncEventType$616371[ebp], -1248687738 ; b5928986H
  002af	c7 45 e4 9f 89
	98 8f		 mov	 DWORD PTR _szEncEventType$616371[ebp+4], -1885828705 ; 8f98899fH
  002b6	8d 45 e0	 lea	 eax, DWORD PTR _szEncEventType$616371[ebp]
  002b9	c7 45 e8 9f 9a
	8e 00		 mov	 DWORD PTR _szEncEventType$616371[ebp+8], 9345695 ; 008e9a9fH
  002c0	8b cf		 mov	 ecx, edi
$LL238@ChangeToRe:
  002c2	81 30 ed ec eb
	ea		 xor	 DWORD PTR [eax], -353637139 ; eaebecedH
  002c8	83 c0 04	 add	 eax, 4
  002cb	49		 dec	 ecx
  002cc	75 f4		 jne	 SHORT $LL238@ChangeToRe
  002ce	6a 08		 push	 8
  002d0	5e		 pop	 esi
$LL235@ChangeToRe:
  002d1	8b c6		 mov	 eax, esi
  002d3	25 03 00 00 80	 and	 eax, -2147483645	; 80000003H
  002d8	79 05		 jns	 SHORT $LN256@ChangeToRe
  002da	48		 dec	 eax
  002db	83 c8 fc	 or	 eax, -4			; fffffffcH
  002de	40		 inc	 eax
$LN256@ChangeToRe:
  002df	b1 ed		 mov	 cl, -19			; ffffffedH
  002e1	2a c8		 sub	 cl, al
  002e3	30 4c 35 e0	 xor	 BYTE PTR _szEncEventType$616371[ebp+esi], cl
  002e7	46		 inc	 esi
  002e8	83 fe 0b	 cmp	 esi, 11			; 0000000bH
  002eb	7c e4		 jl	 SHORT $LL235@ChangeToRe
  002ed	8d 45 e0	 lea	 eax, DWORD PTR _szEncEventType$616371[ebp]
  002f0	50		 push	 eax
  002f1	8d 4d cc	 lea	 ecx, DWORD PTR $T616471[ebp]
  002f4	ff 15 00 00 00
	00		 call	 DWORD PTR __imp_??0ioHashString@@QAE@PBD@Z
  002fa	8b 8d a4 7f ff
	ff		 mov	 ecx, DWORD PTR _pGrp$[ebp]
  00300	8d 45 cc	 lea	 eax, DWORD PTR $T616471[ebp]
  00303	50		 push	 eax
  00304	ff b5 9c 7f ff
	ff		 push	 DWORD PTR _iAniID$[ebp]
  0030a	c7 45 fc 01 00
	00 00		 mov	 DWORD PTR __$EHRec$[ebp+8], 1
  00311	ff 15 00 00 00
	00		 call	 DWORD PTR __imp_?GetAnimationEventTime@ioEntityGroup@@QAEMHABVioHashString@@@Z
  00317	d9 9d a4 7f ff
	ff		 fstp	 DWORD PTR $T616470[ebp]
  0031d	83 4d fc ff	 or	 DWORD PTR __$EHRec$[ebp+8], -1
  00321	8d 4d cc	 lea	 ecx, DWORD PTR $T616471[ebp]
  00324	ff 15 00 00 00
	00		 call	 DWORD PTR __imp_??1ioHashString@@QAE@XZ
  0032a	d9 85 a4 7f ff
	ff		 fld	 DWORD PTR $T616470[ebp]
  00330	d8 8d b0 7f ff
	ff		 fmul	 DWORD PTR _fCurRate$[ebp]
  00336	e8 00 00 00 00	 call	 __ftol2

; 413  : 	if( dwKeyReserve > 0 )

  0033b	85 c0		 test	 eax, eax
  0033d	74 0c		 je	 SHORT $LN2@ChangeToRe

; 414  : 		m_dwKeyReserveTime = dwCurTime + dwKeyReserve;

  0033f	03 85 a8 7f ff
	ff		 add	 eax, DWORD PTR _dwCurTime$[ebp]
  00345	89 83 f8 0e 00
	00		 mov	 DWORD PTR [ebx+3832], eax
$LN2@ChangeToRe:

; 415  : 
; 416  : 	pOwner->ApplyNormalAttackResult( m_iCurCombo );

  0034b	8b b5 94 7f ff
	ff		 mov	 esi, DWORD PTR _pOwner$GSCopy$[ebp]
  00351	6a 00		 push	 0
  00353	ff b3 70 19 00
	00		 push	 DWORD PTR [ebx+6512]
  00359	8b ce		 mov	 ecx, esi
  0035b	e8 00 00 00 00	 call	 ?ApplyNormalAttackResult@ioBaseChar@@QAEXH_N@Z ; ioBaseChar::ApplyNormalAttackResult

; 417  : 
; 418  : 	if( pOwner->IsNeedSendNetwork() )

  00360	8b 06		 mov	 eax, DWORD PTR [esi]
  00362	8b ce		 mov	 ecx, esi
  00364	ff 90 04 01 00
	00		 call	 DWORD PTR [eax+260]
  0036a	84 c0		 test	 al, al
  0036c	0f 84 9c 00 00
	00		 je	 $LN1@ChangeToRe

; 419  : 	{
; 420  : 		SP2Packet kPacket( CUPK_ITEM_GAUGE_OK );

  00372	68 27 41 00 00	 push	 16679			; 00004127H
  00377	8d 8d b4 7f ff
	ff		 lea	 ecx, DWORD PTR _kPacket$608180[ebp]
  0037d	e8 00 00 00 00	 call	 ??0SP2Packet@@QAE@K@Z	; SP2Packet::SP2Packet

; 421  : 		FillItemGaugePacketHeader( pOwner, kPacket );

  00382	8d 85 b4 7f ff
	ff		 lea	 eax, DWORD PTR _kPacket$608180[ebp]
  00388	50		 push	 eax
  00389	56		 push	 esi
  0038a	8b cb		 mov	 ecx, ebx
  0038c	89 7d fc	 mov	 DWORD PTR __$EHRec$[ebp+8], edi
  0038f	e8 00 00 00 00	 call	 ?FillItemGaugePacketHeader@ioAttackableItem@@QAEXPAVioBaseChar@@AAVSP2Packet@@@Z ; ioAttackableItem::FillItemGaugePacketHeader

; 422  : 		kPacket << m_ChargeState;

  00394	ff b3 54 19 00
	00		 push	 DWORD PTR [ebx+6484]
  0039a	8d 8d b4 7f ff
	ff		 lea	 ecx, DWORD PTR _kPacket$608180[ebp]
  003a0	e8 00 00 00 00	 call	 ??6SP2Packet@@QAEAAV0@H@Z ; SP2Packet::operator<<

; 423  : 		kPacket << m_iCurCombo;

  003a5	ff b3 70 19 00
	00		 push	 DWORD PTR [ebx+6512]
  003ab	8d 8d b4 7f ff
	ff		 lea	 ecx, DWORD PTR _kPacket$608180[ebp]
  003b1	e8 00 00 00 00	 call	 ??6SP2Packet@@QAEAAV0@H@Z ; SP2Packet::operator<<

; 424  : 		kPacket << szAni;

  003b6	ff b5 98 7f ff
	ff		 push	 DWORD PTR _szAni$GSCopy$[ebp]
  003bc	8d 8d b4 7f ff
	ff		 lea	 ecx, DWORD PTR _kPacket$608180[ebp]
  003c2	e8 00 00 00 00	 call	 ??6SP2Packet@@QAEAAV0@ABVioHashString@@@Z ; SP2Packet::operator<<

; 425  : 		kPacket << fCurRate;

  003c7	f3 0f 10 85 b0
	7f ff ff	 movss	 xmm0, DWORD PTR _fCurRate$[ebp]
  003cf	51		 push	 ecx
  003d0	8d 8d b4 7f ff
	ff		 lea	 ecx, DWORD PTR _kPacket$608180[ebp]
  003d6	f3 0f 11 04 24	 movss	 DWORD PTR [esp], xmm0
  003db	e8 00 00 00 00	 call	 ??6SP2Packet@@QAEAAV0@M@Z ; SP2Packet::operator<<

; 426  : 		kPacket << vDir;

  003e0	8d 45 14	 lea	 eax, DWORD PTR _vDir$[ebp]
  003e3	50		 push	 eax
  003e4	8d 8d b4 7f ff
	ff		 lea	 ecx, DWORD PTR _kPacket$608180[ebp]
  003ea	e8 00 00 00 00	 call	 ??6SP2Packet@@QAEAAV0@ABUD3DXVECTOR3@@@Z ; SP2Packet::operator<<

; 427  : 		P2PNetwork::SendToAllPlayingUser( kPacket );

  003ef	8d 85 b4 7f ff
	ff		 lea	 eax, DWORD PTR _kPacket$608180[ebp]
  003f5	6a 00		 push	 0
  003f7	50		 push	 eax
  003f8	e8 00 00 00 00	 call	 ?SendToAllPlayingUser@P2PNetwork@@YAXAAVSP2Packet@@PAVioBaseChar@@@Z ; P2PNetwork::SendToAllPlayingUser

; 428  : 	}

  003fd	83 4d fc ff	 or	 DWORD PTR __$EHRec$[ebp+8], -1
  00401	59		 pop	 ecx
  00402	59		 pop	 ecx
  00403	8d 8d b4 7f ff
	ff		 lea	 ecx, DWORD PTR _kPacket$608180[ebp]
  00409	e8 00 00 00 00	 call	 ??1SP2Packet@@UAE@XZ	; SP2Packet::~SP2Packet
$LN1@ChangeToRe:

; 429  : }

  0040e	8b 4d f4	 mov	 ecx, DWORD PTR __$EHRec$[ebp]
  00411	64 89 0d 00 00
	00 00		 mov	 DWORD PTR fs:0, ecx
  00418	59		 pop	 ecx
  00419	5f		 pop	 edi
  0041a	5e		 pop	 esi
  0041b	5b		 pop	 ebx
  0041c	8b 4d f0	 mov	 ecx, DWORD PTR __$ArrayPad$[ebp]
  0041f	33 cd		 xor	 ecx, ebp
  00421	e8 00 00 00 00	 call	 @__security_check_cookie@4
  00426	c9		 leave
  00427	c2 18 00	 ret	 24			; 00000018H
_TEXT	ENDS
;	COMDAT text$x
text$x	SEGMENT
__unwindfunclet$?ChangeToRetreatState@ioRunChargeItem2@@IAEXPAVioBaseChar@@ABVioHashString@@MUD3DXVECTOR3@@@Z$1:
  00000	8d 4d e0	 lea	 ecx, DWORD PTR $T616341[ebp]
  00003	ff 25 00 00 00
	00		 jmp	 DWORD PTR __imp_??1ioHashString@@QAE@XZ
__unwindfunclet$?ChangeToRetreatState@ioRunChargeItem2@@IAEXPAVioBaseChar@@ABVioHashString@@MUD3DXVECTOR3@@@Z$2:
  00009	8d 4d cc	 lea	 ecx, DWORD PTR $T616471[ebp]
  0000c	ff 25 00 00 00
	00		 jmp	 DWORD PTR __imp_??1ioHashString@@QAE@XZ
__unwindfunclet$?ChangeToRetreatState@ioRunChargeItem2@@IAEXPAVioBaseChar@@ABVioHashString@@MUD3DXVECTOR3@@@Z$0:
  00012	8d 8d b4 7f ff
	ff		 lea	 ecx, DWORD PTR _kPacket$608180[ebp]
  00018	e9 00 00 00 00	 jmp	 ??1SP2Packet@@UAE@XZ	; SP2Packet::~SP2Packet
__ehhandler$?ChangeToRetreatState@ioRunChargeItem2@@IAEXPAVioBaseChar@@ABVioHashString@@MUD3DXVECTOR3@@@Z:
  0001d	8b 54 24 08	 mov	 edx, DWORD PTR [esp+8]
  00021	8d 42 0c	 lea	 eax, DWORD PTR [edx+12]
  00024	8b 8a 90 7f ff
	ff		 mov	 ecx, DWORD PTR [edx-32880]
  0002a	33 c8		 xor	 ecx, eax
  0002c	e8 00 00 00 00	 call	 @__security_check_cookie@4
  00031	8b 4a fc	 mov	 ecx, DWORD PTR [edx-4]
  00034	33 c8		 xor	 ecx, eax
  00036	e8 00 00 00 00	 call	 @__security_check_cookie@4
  0003b	b8 00 00 00 00	 mov	 eax, OFFSET __ehfuncinfo$?ChangeToRetreatState@ioRunChargeItem2@@IAEXPAVioBaseChar@@ABVioHashString@@MUD3DXVECTOR3@@@Z
  00040	e9 00 00 00 00	 jmp	 ___CxxFrameHandler3
text$x	ENDS
?ChangeToRetreatState@ioRunChargeItem2@@IAEXPAVioBaseChar@@ABVioHashString@@MUD3DXVECTOR3@@@Z ENDP ; ioRunChargeItem2::ChangeToRetreatState
PUBLIC	?OnEndExtendAttack@ioRunChargeItem2@@UAEXPAVioBaseChar@@_N@Z ; ioRunChargeItem2::OnEndExtendAttack
EXTRN	?SetCharCollisionSkipTime@ioBaseChar@@QAEXKK_N@Z:PROC ; ioBaseChar::SetCharCollisionSkipTime
; Function compile flags: /Ogsp
;	COMDAT ?OnEndExtendAttack@ioRunChargeItem2@@UAEXPAVioBaseChar@@_N@Z
_TEXT	SEGMENT
_value$616515 = 8					; size = 4
_pOwner$ = 8						; size = 4
_bReleaseItem$ = 12					; size = 1
?OnEndExtendAttack@ioRunChargeItem2@@UAEXPAVioBaseChar@@_N@Z PROC ; ioRunChargeItem2::OnEndExtendAttack, COMDAT
; _this$ = ecx

; 596  : {

  00000	55		 push	 ebp
  00001	8b ec		 mov	 ebp, esp
  00003	53		 push	 ebx
  00004	56		 push	 esi
  00005	57		 push	 edi

; 597  : 	m_ChargeState = CS_NONE;
; 598  : 	m_RunState = RS_NONE;
; 599  : 
; 600  : 	pOwner->SetAttackMoveEnable( false );

  00006	8b 7d 08	 mov	 edi, DWORD PTR _pOwner$[ebp]
  00009	8b f1		 mov	 esi, ecx
  0000b	33 db		 xor	 ebx, ebx
  0000d	53		 push	 ebx
  0000e	8b cf		 mov	 ecx, edi
  00010	89 9e 54 19 00
	00		 mov	 DWORD PTR [esi+6484], ebx
  00016	89 9e 58 19 00
	00		 mov	 DWORD PTR [esi+6488], ebx
  0001c	e8 00 00 00 00	 call	 ?SetAttackMoveEnable@ioBaseChar@@QAEX_N@Z ; ioBaseChar::SetAttackMoveEnable

; 601  : 	pOwner->SetChargingState( false );
; 602  : 
; 603  : 	pOwner->ClearDirDoubleClick();

  00021	8b cf		 mov	 ecx, edi
  00023	88 9f 54 20 00
	00		 mov	 BYTE PTR [edi+8276], bl
  00029	e8 00 00 00 00	 call	 ?ClearDirDoubleClick@ioBaseChar@@QAEXXZ ; ioBaseChar::ClearDirDoubleClick

; 604  : 
; 605  : 	m_fCurChargeRate = 0.0f;

  0002e	0f 57 c0	 xorps	 xmm0, xmm0
  00031	8d 45 08	 lea	 eax, DWORD PTR _value$616515[ebp]
  00034	50		 push	 eax
  00035	8d 8e 8c 0f 00
	00		 lea	 ecx, DWORD PTR [esi+3980]
  0003b	f3 0f 11 45 08	 movss	 DWORD PTR _value$616515[ebp], xmm0
  00040	e8 00 00 00 00	 call	 ?EncryptValueToPool@?$CEncrypt@M@@AAEXPBD@Z ; CEncrypt<float>::EncryptValueToPool

; 606  : 
; 607  : 	m_CurDirKey = ioUserKeyInput::DKI_NONE;
; 608  : 	pOwner->SetCharCollisionSkipTime( 0, 0 );

  00045	53		 push	 ebx
  00046	53		 push	 ebx
  00047	53		 push	 ebx
  00048	8b cf		 mov	 ecx, edi
  0004a	89 9e c8 1a 00
	00		 mov	 DWORD PTR [esi+6856], ebx
  00050	e8 00 00 00 00	 call	 ?SetCharCollisionSkipTime@ioBaseChar@@QAEXKK_N@Z ; ioBaseChar::SetCharCollisionSkipTime
  00055	5f		 pop	 edi
  00056	5e		 pop	 esi
  00057	5b		 pop	 ebx

; 609  : }

  00058	5d		 pop	 ebp
  00059	c2 08 00	 ret	 8
?OnEndExtendAttack@ioRunChargeItem2@@UAEXPAVioBaseChar@@_N@Z ENDP ; ioRunChargeItem2::OnEndExtendAttack
_TEXT	ENDS
PUBLIC	?IsChargeAutoTarget@ioRunChargeItem2@@IAE_NPAVioBaseChar@@@Z ; ioRunChargeItem2::IsChargeAutoTarget
; Function compile flags: /Ogsp
;	COMDAT ?IsChargeAutoTarget@ioRunChargeItem2@@IAE_NPAVioBaseChar@@@Z
_TEXT	SEGMENT
$T616520 = 8						; size = 4
$T616519 = 8						; size = 4
$T616518 = 8						; size = 4
_pOwner$ = 8						; size = 4
?IsChargeAutoTarget@ioRunChargeItem2@@IAE_NPAVioBaseChar@@@Z PROC ; ioRunChargeItem2::IsChargeAutoTarget, COMDAT
; _this$ = ecx

; 612  : {

  00000	55		 push	 ebp
  00001	8b ec		 mov	 ebp, esp

; 613  : 	if( !pOwner )

  00003	8b 45 08	 mov	 eax, DWORD PTR _pOwner$[ebp]
  00006	56		 push	 esi
  00007	8b f1		 mov	 esi, ecx
  00009	85 c0		 test	 eax, eax

; 614  : 		return false;

  0000b	74 5e		 je	 SHORT $LN1@IsChargeAu

; 615  : 
; 616  : 	if( pOwner->GetState() != CS_ATTACK )

  0000d	80 b8 10 03 00
	00 05		 cmp	 BYTE PTR [eax+784], 5

; 617  : 		return false;

  00014	75 55		 jne	 SHORT $LN1@IsChargeAu

; 618  : 
; 619  : 	if( m_fCurChargeRate == 0.0f )

  00016	0f 57 c0	 xorps	 xmm0, xmm0
  00019	8d 45 08	 lea	 eax, DWORD PTR $T616518[ebp]
  0001c	50		 push	 eax
  0001d	8d 8e 8c 0f 00
	00		 lea	 ecx, DWORD PTR [esi+3980]
  00023	f3 0f 11 45 08	 movss	 DWORD PTR $T616518[ebp], xmm0
  00028	e8 00 00 00 00	 call	 ??8?$CEncrypt@M@@QAE_NABM@Z ; CEncrypt<float>::operator==
  0002d	84 c0		 test	 al, al

; 620  : 		return false;

  0002f	75 3a		 jne	 SHORT $LN1@IsChargeAu

; 621  : 
; 622  : 	if( m_fMaxTargetRangeRate == 0.0f || m_fMaxTargetAngleRate == 0.0f )

  00031	0f 57 c0	 xorps	 xmm0, xmm0
  00034	8d 45 08	 lea	 eax, DWORD PTR $T616519[ebp]
  00037	50		 push	 eax
  00038	8d 8e 3c 11 00
	00		 lea	 ecx, DWORD PTR [esi+4412]
  0003e	f3 0f 11 45 08	 movss	 DWORD PTR $T616519[ebp], xmm0
  00043	e8 00 00 00 00	 call	 ??8?$CEncrypt@M@@QAE_NABM@Z ; CEncrypt<float>::operator==
  00048	84 c0		 test	 al, al
  0004a	75 1f		 jne	 SHORT $LN1@IsChargeAu
  0004c	0f 57 c0	 xorps	 xmm0, xmm0
  0004f	8d 45 08	 lea	 eax, DWORD PTR $T616520[ebp]
  00052	50		 push	 eax
  00053	8d 8e 6c 11 00
	00		 lea	 ecx, DWORD PTR [esi+4460]
  00059	f3 0f 11 45 08	 movss	 DWORD PTR $T616520[ebp], xmm0
  0005e	e8 00 00 00 00	 call	 ??8?$CEncrypt@M@@QAE_NABM@Z ; CEncrypt<float>::operator==
  00063	84 c0		 test	 al, al
  00065	75 04		 jne	 SHORT $LN1@IsChargeAu

; 624  : 
; 625  : 	return true;

  00067	fe c0		 inc	 al
  00069	eb 02		 jmp	 SHORT $LN6@IsChargeAu
$LN1@IsChargeAu:

; 623  : 		return false;

  0006b	32 c0		 xor	 al, al
$LN6@IsChargeAu:
  0006d	5e		 pop	 esi

; 626  : }

  0006e	5d		 pop	 ebp
  0006f	c2 04 00	 ret	 4
?IsChargeAutoTarget@ioRunChargeItem2@@IAE_NPAVioBaseChar@@@Z ENDP ; ioRunChargeItem2::IsChargeAutoTarget
_TEXT	ENDS
PUBLIC	__real@00000000
PUBLIC	?ChangeToRunning@ioRunChargeItem2@@IAEXPAVioBaseChar@@@Z ; ioRunChargeItem2::ChangeToRunning
EXTRN	?SetTargetRotToRotate@ioBaseChar@@QAEXABUD3DXQUATERNION@@_N1@Z:PROC ; ioBaseChar::SetTargetRotToRotate
EXTRN	__imp_?SetLoopAni@ioEntityGroup@@QAE_NHMMMM@Z:PROC
;	COMDAT __real@00000000
; File d:\lost saga for developer\youtube\tutorial\source\src\lsclient\encryptvalue.h
CONST	SEGMENT
__real@00000000 DD 000000000r			; 0
; Function compile flags: /Ogsp
; File d:\lost saga for developer\youtube\tutorial\source\src\lsclient\iorunchargeitem2.cpp
CONST	ENDS
;	COMDAT ?ChangeToRunning@ioRunChargeItem2@@IAEXPAVioBaseChar@@@Z
_TEXT	SEGMENT
tv208 = -12						; size = 4
$T616549 = -8						; size = 4
_dwCurTime$ = -4					; size = 4
tv228 = 8						; size = 4
tv223 = 8						; size = 4
tv218 = 8						; size = 4
tv204 = 8						; size = 4
tv202 = 8						; size = 4
tv200 = 8						; size = 4
_value$616560 = 8					; size = 1
_fAniRate$608380 = 8					; size = 4
_pOwner$ = 8						; size = 4
?ChangeToRunning@ioRunChargeItem2@@IAEXPAVioBaseChar@@@Z PROC ; ioRunChargeItem2::ChangeToRunning, COMDAT
; _this$ = ecx

; 868  : {

  00000	55		 push	 ebp
  00001	8b ec		 mov	 ebp, esp
  00003	83 ec 0c	 sub	 esp, 12			; 0000000cH
  00006	53		 push	 ebx

; 869  : 	if( !pOwner ) return;

  00007	8b 5d 08	 mov	 ebx, DWORD PTR _pOwner$[ebp]
  0000a	56		 push	 esi
  0000b	8b f1		 mov	 esi, ecx
  0000d	85 db		 test	 ebx, ebx
  0000f	0f 84 67 01 00
	00		 je	 $LN4@ChangeToRu

; 870  : 
; 871  : 	DWORD dwCurTime = FRAMEGETTIME();

  00015	57		 push	 edi
  00016	ff 15 00 00 00
	00		 call	 DWORD PTR __imp_?GetSingleton@ioFrameTimer@@SAAAV1@XZ
  0001c	8b c8		 mov	 ecx, eax
  0001e	ff 15 00 00 00
	00		 call	 DWORD PTR __imp_?GetLoopSec@ioFrameTimer@@QBEKXZ

; 872  : 	m_dwRunningEndTime = dwCurTime;

  00024	89 86 c0 19 00
	00		 mov	 DWORD PTR [esi+6592], eax

; 873  : 
; 874  : 	ioEntityGroup *pGrp = pOwner->GetGroup();

  0002a	8b 7b 04	 mov	 edi, DWORD PTR [ebx+4]
  0002d	89 45 fc	 mov	 DWORD PTR _dwCurTime$[ebp], eax

; 875  : 	if( pGrp )

  00030	85 ff		 test	 edi, edi
  00032	0f 84 01 01 00
	00		 je	 $LN2@ChangeToRu

; 876  : 	{
; 877  : 		pGrp->ClearAllActionAni( FLOAT100 );

  00038	b8 64 00 00 00	 mov	 eax, 100		; 00000064H
  0003d	89 45 08	 mov	 DWORD PTR tv228[ebp], eax
  00040	db 45 08	 fild	 DWORD PTR tv228[ebp]
  00043	6a 00		 push	 0
  00045	85 c0		 test	 eax, eax
  00047	79 06		 jns	 SHORT $LN24@ChangeToRu
  00049	d8 05 00 00 00
	00		 fadd	 DWORD PTR __real@4f800000
$LN24@ChangeToRu:
  0004f	51		 push	 ecx
  00050	8b cf		 mov	 ecx, edi
  00052	d9 1c 24	 fstp	 DWORD PTR [esp]
  00055	ff 15 00 00 00
	00		 call	 DWORD PTR __imp_?ClearAllActionAni@ioEntityGroup@@QAEXM_N@Z

; 878  : 		pGrp->ClearAllLoopAni( FLOAT100 );

  0005b	b8 64 00 00 00	 mov	 eax, 100		; 00000064H
  00060	89 45 08	 mov	 DWORD PTR tv223[ebp], eax
  00063	db 45 08	 fild	 DWORD PTR tv223[ebp]
  00066	6a 00		 push	 0
  00068	85 c0		 test	 eax, eax
  0006a	79 06		 jns	 SHORT $LN25@ChangeToRu
  0006c	d8 05 00 00 00
	00		 fadd	 DWORD PTR __real@4f800000
$LN25@ChangeToRu:
  00072	51		 push	 ecx
  00073	8b cf		 mov	 ecx, edi
  00075	d9 1c 24	 fstp	 DWORD PTR [esp]
  00078	ff 15 00 00 00
	00		 call	 DWORD PTR __imp_?ClearAllLoopAni@ioEntityGroup@@QAEXM_N@Z

; 879  : 
; 880  : 		float fAniRate = FLOAT1;

  0007e	b8 01 00 00 00	 mov	 eax, 1
  00083	89 45 08	 mov	 DWORD PTR tv218[ebp], eax
  00086	db 45 08	 fild	 DWORD PTR tv218[ebp]
  00089	85 c0		 test	 eax, eax
  0008b	79 06		 jns	 SHORT $LN26@ChangeToRu
  0008d	d8 05 00 00 00
	00		 fadd	 DWORD PTR __real@4f800000
$LN26@ChangeToRu:

; 881  : 		if( m_fRunningAniRate > 0.0f )

  00093	f3 0f 10 86 b4
	19 00 00	 movss	 xmm0, DWORD PTR [esi+6580]
  0009b	d9 5d 08	 fstp	 DWORD PTR _fAniRate$608380[ebp]
  0009e	0f 2f 05 00 00
	00 00		 comiss	 xmm0, DWORD PTR __real@00000000
  000a5	76 05		 jbe	 SHORT $LN1@ChangeToRu

; 882  : 			fAniRate = m_fRunningAniRate;

  000a7	f3 0f 11 45 08	 movss	 DWORD PTR _fAniRate$608380[ebp], xmm0
$LN1@ChangeToRu:

; 883  : 
; 884  : 		int iAniID = pGrp->GetAnimationIdx( m_RunningAni );

  000ac	8d 86 a4 19 00
	00		 lea	 eax, DWORD PTR [esi+6564]
  000b2	50		 push	 eax
  000b3	8b cf		 mov	 ecx, edi
  000b5	ff 15 00 00 00
	00		 call	 DWORD PTR __imp_?GetAnimationIdx@ioEntityGroup@@QAEHABVioHashString@@@Z
  000bb	8b c8		 mov	 ecx, eax

; 885  : 		pGrp->SetLoopAni( iAniID, FLOAT100, FLOAT1, FLOAT1 / fAniRate );

  000bd	b8 01 00 00 00	 mov	 eax, 1
  000c2	8b d0		 mov	 edx, eax
  000c4	b8 01 00 00 00	 mov	 eax, 1
  000c9	89 45 f8	 mov	 DWORD PTR $T616549[ebp], eax
  000cc	b8 64 00 00 00	 mov	 eax, 100		; 00000064H
  000d1	0f 57 c0	 xorps	 xmm0, xmm0
  000d4	83 ec 10	 sub	 esp, 16			; 00000010H
  000d7	89 55 f4	 mov	 DWORD PTR tv208[ebp], edx
  000da	db 45 f4	 fild	 DWORD PTR tv208[ebp]
  000dd	f3 0f 11 44 24
	0c		 movss	 DWORD PTR [esp+12], xmm0
  000e3	85 d2		 test	 edx, edx
  000e5	79 06		 jns	 SHORT $LN27@ChangeToRu
  000e7	d8 05 00 00 00
	00		 fadd	 DWORD PTR __real@4f800000
$LN27@ChangeToRu:
  000ed	d8 75 08	 fdiv	 DWORD PTR _fAniRate$608380[ebp]
  000f0	8b 55 f8	 mov	 edx, DWORD PTR $T616549[ebp]
  000f3	d9 5d 08	 fstp	 DWORD PTR tv204[ebp]
  000f6	d9 45 08	 fld	 DWORD PTR tv204[ebp]
  000f9	d9 5c 24 08	 fstp	 DWORD PTR [esp+8]
  000fd	db 45 f8	 fild	 DWORD PTR $T616549[ebp]
  00100	85 d2		 test	 edx, edx
  00102	79 06		 jns	 SHORT $LN28@ChangeToRu
  00104	d8 05 00 00 00
	00		 fadd	 DWORD PTR __real@4f800000
$LN28@ChangeToRu:
  0010a	d9 5c 24 04	 fstp	 DWORD PTR [esp+4]
  0010e	89 45 08	 mov	 DWORD PTR tv200[ebp], eax
  00111	db 45 08	 fild	 DWORD PTR tv200[ebp]
  00114	85 c0		 test	 eax, eax
  00116	79 06		 jns	 SHORT $LN29@ChangeToRu
  00118	d8 05 00 00 00
	00		 fadd	 DWORD PTR __real@4f800000
$LN29@ChangeToRu:
  0011e	d9 1c 24	 fstp	 DWORD PTR [esp]
  00121	51		 push	 ecx
  00122	8b cf		 mov	 ecx, edi
  00124	ff 15 00 00 00
	00		 call	 DWORD PTR __imp_?SetLoopAni@ioEntityGroup@@QAE_NHMMMM@Z

; 886  : 		m_dwRunningEndTime += m_dwRunningDuration;

  0012a	8b 86 b8 19 00
	00		 mov	 eax, DWORD PTR [esi+6584]
  00130	01 86 c0 19 00
	00		 add	 DWORD PTR [esi+6592], eax
  00136	8b 45 fc	 mov	 eax, DWORD PTR _dwCurTime$[ebp]
$LN2@ChangeToRu:

; 887  : 	}
; 888  : 
; 889  : 	m_RunState = RS_RUN;

  00139	33 c9		 xor	 ecx, ecx
  0013b	41		 inc	 ecx

; 890  : 	m_dwRunningStartTime = dwCurTime;
; 891  : 
; 892  : 	pOwner->SetTargetRotToRotate( pOwner->GetTargetRot(), true, false );

  0013c	6a 00		 push	 0
  0013e	89 86 bc 19 00
	00		 mov	 DWORD PTR [esi+6588], eax
  00144	51		 push	 ecx
  00145	8d 83 a4 06 00
	00		 lea	 eax, DWORD PTR [ebx+1700]
  0014b	89 8e 58 19 00
	00		 mov	 DWORD PTR [esi+6488], ecx
  00151	50		 push	 eax
  00152	8b cb		 mov	 ecx, ebx
  00154	e8 00 00 00 00	 call	 ?SetTargetRotToRotate@ioBaseChar@@QAEXABUD3DXQUATERNION@@_N1@Z ; ioBaseChar::SetTargetRotToRotate

; 893  : 	pOwner->SetCharCollisionSkipTime( dwCurTime, m_dwRunningEndTime, m_bOnlyTeamCharColSkip );

  00159	8d 45 08	 lea	 eax, DWORD PTR _value$616560[ebp]
  0015c	50		 push	 eax
  0015d	8d 8e fc 1a 00
	00		 lea	 ecx, DWORD PTR [esi+6908]
  00163	e8 00 00 00 00	 call	 ?DecryptValueToPool@?$CEncrypt@_N@@QAEXPA_N@Z ; CEncrypt<bool>::DecryptValueToPool
  00168	ff 75 08	 push	 DWORD PTR _value$616560[ebp]
  0016b	8b cb		 mov	 ecx, ebx
  0016d	ff b6 c0 19 00
	00		 push	 DWORD PTR [esi+6592]
  00173	ff 75 fc	 push	 DWORD PTR _dwCurTime$[ebp]
  00176	e8 00 00 00 00	 call	 ?SetCharCollisionSkipTime@ioBaseChar@@QAEXKK_N@Z ; ioBaseChar::SetCharCollisionSkipTime
  0017b	5f		 pop	 edi
$LN4@ChangeToRu:
  0017c	5e		 pop	 esi
  0017d	5b		 pop	 ebx

; 894  : }

  0017e	c9		 leave
  0017f	c2 04 00	 ret	 4
?ChangeToRunning@ioRunChargeItem2@@IAEXPAVioBaseChar@@@Z ENDP ; ioRunChargeItem2::ChangeToRunning
_TEXT	ENDS
PUBLIC	_pOwner$GSCopy$
PUBLIC	__$ArrayPad$
PUBLIC	?ChangeToRunningAttack@ioRunChargeItem2@@IAEXPAVioBaseChar@@@Z ; ioRunChargeItem2::ChangeToRunningAttack
EXTRN	?SetReservedSliding@ioBaseChar@@QAEXABV?$vector@UForceInfo@@V?$allocator@UForceInfo@@@std@@@std@@HMKM_N@Z:PROC ; ioBaseChar::SetReservedSliding
EXTRN	?IncreaseWeaponIndexBase@ioBaseChar@@QAEKXZ:PROC ; ioBaseChar::IncreaseWeaponIndexBase
EXTRN	?RefreshFireTimeList@ioBaseChar@@QAEXHABV?$vector@UWeaponInfo@@V?$allocator@UWeaponInfo@@@std@@@std@@W4FireTimeType@@MK_N@Z:PROC ; ioBaseChar::RefreshFireTimeList
;	COMDAT xdata$x
; File d:\lost saga for developer\youtube\tutorial\source\src\lsclient\stringprotect.h
xdata$x	SEGMENT
__unwindtable$?ChangeToRunningAttack@ioRunChargeItem2@@IAEXPAVioBaseChar@@@Z DD 0ffffffffH
	DD	FLAT:__unwindfunclet$?ChangeToRunningAttack@ioRunChargeItem2@@IAEXPAVioBaseChar@@@Z$1
	DD	0ffffffffH
	DD	FLAT:__unwindfunclet$?ChangeToRunningAttack@ioRunChargeItem2@@IAEXPAVioBaseChar@@@Z$0
__ehfuncinfo$?ChangeToRunningAttack@ioRunChargeItem2@@IAEXPAVioBaseChar@@@Z DD 019930522H
	DD	02H
	DD	FLAT:__unwindtable$?ChangeToRunningAttack@ioRunChargeItem2@@IAEXPAVioBaseChar@@@Z
	DD	2 DUP(00H)
	DD	2 DUP(00H)
	DD	00H
	DD	01H
; Function compile flags: /Ogsp
; File d:\lost saga for developer\youtube\tutorial\source\src\lsclient\iorunchargeitem2.cpp
xdata$x	ENDS
;	COMDAT ?ChangeToRunningAttack@ioRunChargeItem2@@IAEXPAVioBaseChar@@@Z
_TEXT	SEGMENT
$T616618 = -32868					; size = 16
tv1113 = -32852						; size = 4
_dwCurTime$ = -32852					; size = 4
tv1160 = -32848						; size = 4
tv1157 = -32848						; size = 4
tv1155 = -32848						; size = 4
_pGrp$ = -32844						; size = 4
_iAniID$608396 = -32840					; size = 4
_fAniRate$608397 = -32836				; size = 4
_pOwner$GSCopy$ = -32832				; size = 4
tv1175 = -32828						; size = 4
tv1167 = -32828						; size = 4
tv1153 = -32828						; size = 4
tv1151 = -32828						; size = 4
tv1127 = -32828						; size = 4
$T616617 = -32828					; size = 4
$T616593 = -32828					; size = 4
_fKeyReserve$608404 = -32828				; size = 4
_kPacket$608407 = -32824				; size = 32792
_szEncEventType$616631 = -32				; size = 12
__$ArrayPad$ = -16					; size = 4
__$EHRec$ = -12						; size = 12
_pOwner$ = 8						; size = 4
?ChangeToRunningAttack@ioRunChargeItem2@@IAEXPAVioBaseChar@@@Z PROC ; ioRunChargeItem2::ChangeToRunningAttack, COMDAT
; _this$ = ecx

; 897  : {

  00000	55		 push	 ebp
  00001	8b ec		 mov	 ebp, esp
  00003	6a ff		 push	 -1
  00005	68 00 00 00 00	 push	 __ehhandler$?ChangeToRunningAttack@ioRunChargeItem2@@IAEXPAVioBaseChar@@@Z
  0000a	64 a1 00 00 00
	00		 mov	 eax, DWORD PTR fs:0
  00010	50		 push	 eax
  00011	b8 58 80 00 00	 mov	 eax, 32856		; 00008058H
  00016	e8 00 00 00 00	 call	 __chkstk
  0001b	a1 00 00 00 00	 mov	 eax, DWORD PTR ___security_cookie
  00020	33 c5		 xor	 eax, ebp
  00022	89 45 f0	 mov	 DWORD PTR __$ArrayPad$[ebp], eax
  00025	53		 push	 ebx
  00026	56		 push	 esi
  00027	57		 push	 edi
  00028	50		 push	 eax
  00029	8d 45 f4	 lea	 eax, DWORD PTR __$EHRec$[ebp]
  0002c	64 a3 00 00 00
	00		 mov	 DWORD PTR fs:0, eax
  00032	8b 45 08	 mov	 eax, DWORD PTR _pOwner$[ebp]

; 898  : 	if( !pOwner ) return;

  00035	33 db		 xor	 ebx, ebx
  00037	8b f1		 mov	 esi, ecx

; 931  : 	{
; 932  : 		SP2Packet kPacket( CUPK_ITEM_GAUGE_OK );

  00039	89 85 c0 7f ff
	ff		 mov	 DWORD PTR _pOwner$GSCopy$[ebp], eax
  0003f	3b c3		 cmp	 eax, ebx
  00041	0f 84 86 03 00
	00		 je	 $LN1@ChangeToRu@2

; 899  : 
; 900  : 	DWORD dwCurTime = FRAMEGETTIME();

  00047	ff 15 00 00 00
	00		 call	 DWORD PTR __imp_?GetSingleton@ioFrameTimer@@SAAAV1@XZ
  0004d	8b c8		 mov	 ecx, eax
  0004f	ff 15 00 00 00
	00		 call	 DWORD PTR __imp_?GetLoopSec@ioFrameTimer@@QBEKXZ

; 901  : 	m_dwRunningAttackEndTime = dwCurTime;

  00055	89 86 14 1a 00
	00		 mov	 DWORD PTR [esi+6676], eax
  0005b	89 85 ac 7f ff
	ff		 mov	 DWORD PTR _dwCurTime$[ebp], eax

; 902  : 	m_dwKeyReserveTime = 0;
; 903  : 
; 904  : 	ioEntityGroup *pGrp = pOwner->GetGroup();

  00061	8b 85 c0 7f ff
	ff		 mov	 eax, DWORD PTR _pOwner$GSCopy$[ebp]
  00067	89 9e f8 0e 00
	00		 mov	 DWORD PTR [esi+3832], ebx
  0006d	8b 48 04	 mov	 ecx, DWORD PTR [eax+4]
  00070	89 8d b4 7f ff
	ff		 mov	 DWORD PTR _pGrp$[ebp], ecx

; 905  : 	if( pGrp )

  00076	3b cb		 cmp	 ecx, ebx
  00078	0f 84 b7 02 00
	00		 je	 $LN2@ChangeToRu@2

; 906  : 	{
; 907  : 		pGrp->ClearAllActionAni( FLOAT100 );

  0007e	b8 64 00 00 00	 mov	 eax, 100		; 00000064H
  00083	89 85 c4 7f ff
	ff		 mov	 DWORD PTR tv1175[ebp], eax
  00089	db 85 c4 7f ff
	ff		 fild	 DWORD PTR tv1175[ebp]
  0008f	53		 push	 ebx
  00090	85 c0		 test	 eax, eax
  00092	79 06		 jns	 SHORT $LN137@ChangeToRu@2
  00094	d8 05 00 00 00
	00		 fadd	 DWORD PTR __real@4f800000
$LN137@ChangeToRu@2:
  0009a	51		 push	 ecx
  0009b	d9 1c 24	 fstp	 DWORD PTR [esp]
  0009e	ff 15 00 00 00
	00		 call	 DWORD PTR __imp_?ClearAllActionAni@ioEntityGroup@@QAEXM_N@Z

; 908  : 
; 909  : 		int iAniID = pGrp->GetAnimationIdx( m_ChargeAttackAttribute.m_AttackAnimation );

  000a4	8b 8d b4 7f ff
	ff		 mov	 ecx, DWORD PTR _pGrp$[ebp]
  000aa	8d 86 c4 19 00
	00		 lea	 eax, DWORD PTR [esi+6596]
  000b0	50		 push	 eax
  000b1	ff 15 00 00 00
	00		 call	 DWORD PTR __imp_?GetAnimationIdx@ioEntityGroup@@QAEHABVioHashString@@@Z

; 910  : 		float fAniRate = m_ChargeAttackAttribute.m_fAttackAniRate;

  000b7	f3 0f 10 8e d4
	19 00 00	 movss	 xmm1, DWORD PTR [esi+6612]

; 911  : 		
; 912  : 		if( fAniRate < 0.0f )

  000bf	0f 57 c0	 xorps	 xmm0, xmm0
  000c2	0f 2f c1	 comiss	 xmm0, xmm1
  000c5	89 85 b8 7f ff
	ff		 mov	 DWORD PTR _iAniID$608396[ebp], eax
  000cb	f3 0f 11 8d bc
	7f ff ff	 movss	 DWORD PTR _fAniRate$608397[ebp], xmm1
  000d3	76 21		 jbe	 SHORT $LN3@ChangeToRu@2

; 913  : 			fAniRate = FLOAT1;

  000d5	b8 01 00 00 00	 mov	 eax, 1
  000da	89 85 c4 7f ff
	ff		 mov	 DWORD PTR tv1167[ebp], eax
  000e0	db 85 c4 7f ff
	ff		 fild	 DWORD PTR tv1167[ebp]
  000e6	85 c0		 test	 eax, eax
  000e8	79 06		 jns	 SHORT $LN138@ChangeToRu@2
  000ea	d8 05 00 00 00
	00		 fadd	 DWORD PTR __real@4f800000
$LN138@ChangeToRu@2:
  000f0	d9 9d bc 7f ff
	ff		 fstp	 DWORD PTR _fAniRate$608397[ebp]
$LN3@ChangeToRu@2:

; 914  : 
; 915  : 		pGrp->SetActionAni( iAniID, FLOAT100, FLOAT100, FLOAT1, FLOAT1 / fAniRate );

  000f6	b8 01 00 00 00	 mov	 eax, 1
  000fb	8b c8		 mov	 ecx, eax
  000fd	b8 01 00 00 00	 mov	 eax, 1
  00102	8b d0		 mov	 edx, eax
  00104	b8 64 00 00 00	 mov	 eax, 100		; 00000064H
  00109	89 85 c4 7f ff
	ff		 mov	 DWORD PTR $T616593[ebp], eax
  0010f	b8 64 00 00 00	 mov	 eax, 100		; 00000064H
  00114	6a 01		 push	 1
  00116	53		 push	 ebx
  00117	83 ec 18	 sub	 esp, 24			; 00000018H
  0011a	89 8d b0 7f ff
	ff		 mov	 DWORD PTR tv1160[ebp], ecx
  00120	db 85 b0 7f ff
	ff		 fild	 DWORD PTR tv1160[ebp]
  00126	f3 0f 11 44 24
	14		 movss	 DWORD PTR [esp+20], xmm0
  0012c	f3 0f 11 44 24
	10		 movss	 DWORD PTR [esp+16], xmm0
  00132	85 c9		 test	 ecx, ecx
  00134	79 06		 jns	 SHORT $LN139@ChangeToRu@2
  00136	d8 05 00 00 00
	00		 fadd	 DWORD PTR __real@4f800000
$LN139@ChangeToRu@2:
  0013c	d8 b5 bc 7f ff
	ff		 fdiv	 DWORD PTR _fAniRate$608397[ebp]
  00142	d9 9d b0 7f ff
	ff		 fstp	 DWORD PTR tv1157[ebp]
  00148	d9 85 b0 7f ff
	ff		 fld	 DWORD PTR tv1157[ebp]
  0014e	d9 5c 24 0c	 fstp	 DWORD PTR [esp+12]
  00152	89 95 b0 7f ff
	ff		 mov	 DWORD PTR tv1155[ebp], edx
  00158	db 85 b0 7f ff
	ff		 fild	 DWORD PTR tv1155[ebp]
  0015e	85 d2		 test	 edx, edx
  00160	79 06		 jns	 SHORT $LN140@ChangeToRu@2
  00162	d8 05 00 00 00
	00		 fadd	 DWORD PTR __real@4f800000
$LN140@ChangeToRu@2:
  00168	8b 8d c4 7f ff
	ff		 mov	 ecx, DWORD PTR $T616593[ebp]
  0016e	d9 5c 24 08	 fstp	 DWORD PTR [esp+8]
  00172	db 85 c4 7f ff
	ff		 fild	 DWORD PTR $T616593[ebp]
  00178	85 c9		 test	 ecx, ecx
  0017a	79 06		 jns	 SHORT $LN141@ChangeToRu@2
  0017c	d8 05 00 00 00
	00		 fadd	 DWORD PTR __real@4f800000
$LN141@ChangeToRu@2:
  00182	89 85 c4 7f ff
	ff		 mov	 DWORD PTR tv1151[ebp], eax
  00188	d9 5c 24 04	 fstp	 DWORD PTR [esp+4]
  0018c	db 85 c4 7f ff
	ff		 fild	 DWORD PTR tv1151[ebp]
  00192	85 c0		 test	 eax, eax
  00194	79 06		 jns	 SHORT $LN142@ChangeToRu@2
  00196	d8 05 00 00 00
	00		 fadd	 DWORD PTR __real@4f800000
$LN142@ChangeToRu@2:
  0019c	8b 8d b4 7f ff
	ff		 mov	 ecx, DWORD PTR _pGrp$[ebp]
  001a2	d9 1c 24	 fstp	 DWORD PTR [esp]
  001a5	ff b5 b8 7f ff
	ff		 push	 DWORD PTR _iAniID$608396[ebp]
  001ab	ff 15 00 00 00
	00		 call	 DWORD PTR __imp_?SetActionAni@ioEntityGroup@@QAE_NHMMMMMM_N0@Z

; 916  : 
; 917  : 		pOwner->RefreshFireTimeList( iAniID, m_ChargeAttackAttribute.m_vWeaponInfoList, FTT_NORMAL_ATTACK, fAniRate, 0 );

  001b1	f3 0f 10 85 bc
	7f ff ff	 movss	 xmm0, DWORD PTR _fAniRate$608397[ebp]
  001b9	53		 push	 ebx
  001ba	53		 push	 ebx
  001bb	51		 push	 ecx
  001bc	8b 8d c0 7f ff
	ff		 mov	 ecx, DWORD PTR _pOwner$GSCopy$[ebp]
  001c2	f3 0f 11 04 24	 movss	 DWORD PTR [esp], xmm0
  001c7	53		 push	 ebx
  001c8	8d 86 ec 19 00
	00		 lea	 eax, DWORD PTR [esi+6636]
  001ce	50		 push	 eax
  001cf	ff b5 b8 7f ff
	ff		 push	 DWORD PTR _iAniID$608396[ebp]
  001d5	e8 00 00 00 00	 call	 ?RefreshFireTimeList@ioBaseChar@@QAEXHABV?$vector@UWeaponInfo@@V?$allocator@UWeaponInfo@@@std@@@std@@W4FireTimeType@@MK_N@Z ; ioBaseChar::RefreshFireTimeList

; 918  : 		pOwner->IncreaseWeaponIndexBase();

  001da	8b 8d c0 7f ff
	ff		 mov	 ecx, DWORD PTR _pOwner$GSCopy$[ebp]
  001e0	e8 00 00 00 00	 call	 ?IncreaseWeaponIndexBase@ioBaseChar@@QAEKXZ ; ioBaseChar::IncreaseWeaponIndexBase

; 919  : 		pOwner->SetReservedSliding( m_ChargeAttackAttribute.m_vForceInfoList, iAniID, fAniRate, 0 );

  001e5	f3 0f 10 05 00
	00 00 00	 movss	 xmm0, DWORD PTR __real@3f800000
  001ed	6a 01		 push	 1
  001ef	51		 push	 ecx
  001f0	f3 0f 11 04 24	 movss	 DWORD PTR [esp], xmm0
  001f5	f3 0f 10 85 bc
	7f ff ff	 movss	 xmm0, DWORD PTR _fAniRate$608397[ebp]
  001fd	53		 push	 ebx
  001fe	51		 push	 ecx
  001ff	8b 8d c0 7f ff
	ff		 mov	 ecx, DWORD PTR _pOwner$GSCopy$[ebp]
  00205	f3 0f 11 04 24	 movss	 DWORD PTR [esp], xmm0
  0020a	ff b5 b8 7f ff
	ff		 push	 DWORD PTR _iAniID$608396[ebp]
  00210	8d 86 fc 19 00
	00		 lea	 eax, DWORD PTR [esi+6652]
  00216	50		 push	 eax
  00217	e8 00 00 00 00	 call	 ?SetReservedSliding@ioBaseChar@@QAEXABV?$vector@UForceInfo@@V?$allocator@UForceInfo@@@std@@@std@@HMKM_N@Z ; ioBaseChar::SetReservedSliding

; 920  : 
; 921  : 		m_dwRunningAttackEndTime += pGrp->GetAnimationFullTime(iAniID) * fAniRate;

  0021c	ff b5 b8 7f ff
	ff		 push	 DWORD PTR _iAniID$608396[ebp]
  00222	8b 8d b4 7f ff
	ff		 mov	 ecx, DWORD PTR _pGrp$[ebp]
  00228	ff 15 00 00 00
	00		 call	 DWORD PTR __imp_?GetAnimationFullTime@ioEntityGroup@@QAEMH@Z
  0022e	d8 8d bc 7f ff
	ff		 fmul	 DWORD PTR _fAniRate$608397[ebp]
  00234	8b 86 14 1a 00
	00		 mov	 eax, DWORD PTR [esi+6676]
  0023a	db 86 14 1a 00
	00		 fild	 DWORD PTR [esi+6676]
  00240	85 c0		 test	 eax, eax
  00242	79 06		 jns	 SHORT $LN143@ChangeToRu@2
  00244	dc 05 00 00 00
	00		 fadd	 QWORD PTR __real@41f0000000000000
$LN143@ChangeToRu@2:
  0024a	de c1		 faddp	 ST(1), ST(0)
  0024c	e8 00 00 00 00	 call	 __ftol2
  00251	6a 02		 push	 2
  00253	89 86 14 1a 00
	00		 mov	 DWORD PTR [esi+6676], eax

; 922  : 
; 923  : 		float fKeyReserve = pGrp->GetAnimationEventTime_e( iAniID, "key_reserve" ) * fAniRate;

  00259	c7 45 e0 86 89
	92 b5		 mov	 DWORD PTR _szEncEventType$616631[ebp], -1248687738 ; b5928986H
  00260	c7 45 e4 9f 89
	98 8f		 mov	 DWORD PTR _szEncEventType$616631[ebp+4], -1885828705 ; 8f98899fH
  00267	8d 45 e0	 lea	 eax, DWORD PTR _szEncEventType$616631[ebp]
  0026a	c7 45 e8 9f 9a
	8e 00		 mov	 DWORD PTR _szEncEventType$616631[ebp+8], 9345695 ; 008e9a9fH
  00271	59		 pop	 ecx
$LL127@ChangeToRu@2:
  00272	81 30 ed ec eb
	ea		 xor	 DWORD PTR [eax], -353637139 ; eaebecedH
  00278	83 c0 04	 add	 eax, 4
  0027b	49		 dec	 ecx
  0027c	75 f4		 jne	 SHORT $LL127@ChangeToRu@2
  0027e	6a 08		 push	 8
  00280	5f		 pop	 edi
$LL124@ChangeToRu@2:
  00281	8b c7		 mov	 eax, edi
  00283	25 03 00 00 80	 and	 eax, -2147483645	; 80000003H
  00288	79 05		 jns	 SHORT $LN144@ChangeToRu@2
  0028a	48		 dec	 eax
  0028b	83 c8 fc	 or	 eax, -4			; fffffffcH
  0028e	40		 inc	 eax
$LN144@ChangeToRu@2:
  0028f	b1 ed		 mov	 cl, -19			; ffffffedH
  00291	2a c8		 sub	 cl, al
  00293	30 4c 3d e0	 xor	 BYTE PTR _szEncEventType$616631[ebp+edi], cl
  00297	47		 inc	 edi
  00298	83 ff 0b	 cmp	 edi, 11			; 0000000bH
  0029b	7c e4		 jl	 SHORT $LL124@ChangeToRu@2
  0029d	8d 45 e0	 lea	 eax, DWORD PTR _szEncEventType$616631[ebp]
  002a0	50		 push	 eax
  002a1	8d 8d 9c 7f ff
	ff		 lea	 ecx, DWORD PTR $T616618[ebp]
  002a7	ff 15 00 00 00
	00		 call	 DWORD PTR __imp_??0ioHashString@@QAE@PBD@Z
  002ad	8b 8d b4 7f ff
	ff		 mov	 ecx, DWORD PTR _pGrp$[ebp]
  002b3	8d 85 9c 7f ff
	ff		 lea	 eax, DWORD PTR $T616618[ebp]
  002b9	50		 push	 eax
  002ba	ff b5 b8 7f ff
	ff		 push	 DWORD PTR _iAniID$608396[ebp]
  002c0	89 5d fc	 mov	 DWORD PTR __$EHRec$[ebp+8], ebx
  002c3	ff 15 00 00 00
	00		 call	 DWORD PTR __imp_?GetAnimationEventTime@ioEntityGroup@@QAEMHABVioHashString@@@Z
  002c9	d9 9d c4 7f ff
	ff		 fstp	 DWORD PTR $T616617[ebp]
  002cf	83 4d fc ff	 or	 DWORD PTR __$EHRec$[ebp+8], -1
  002d3	8d 8d 9c 7f ff
	ff		 lea	 ecx, DWORD PTR $T616618[ebp]
  002d9	ff 15 00 00 00
	00		 call	 DWORD PTR __imp_??1ioHashString@@QAE@XZ
  002df	f3 0f 10 85 c4
	7f ff ff	 movss	 xmm0, DWORD PTR $T616617[ebp]
  002e7	f3 0f 10 8d bc
	7f ff ff	 movss	 xmm1, DWORD PTR _fAniRate$608397[ebp]
  002ef	0f 5a c0	 cvtps2pd xmm0, xmm0
  002f2	0f 5a c9	 cvtps2pd xmm1, xmm1
  002f5	f2 0f 59 c1	 mulsd	 xmm0, xmm1
  002f9	66 0f 5a c0	 cvtpd2ps xmm0, xmm0

; 924  : 		if( fKeyReserve > 0.0f )

  002fd	0f 2f 05 00 00
	00 00		 comiss	 xmm0, DWORD PTR __real@00000000
  00304	f3 0f 11 85 c4
	7f ff ff	 movss	 DWORD PTR _fKeyReserve$608404[ebp], xmm0
  0030c	76 27		 jbe	 SHORT $LN2@ChangeToRu@2

; 925  : 			m_dwKeyReserveTime = dwCurTime + fKeyReserve;

  0030e	8b 85 ac 7f ff
	ff		 mov	 eax, DWORD PTR _dwCurTime$[ebp]
  00314	db 85 ac 7f ff
	ff		 fild	 DWORD PTR _dwCurTime$[ebp]
  0031a	85 c0		 test	 eax, eax
  0031c	79 06		 jns	 SHORT $LN145@ChangeToRu@2
  0031e	d8 05 00 00 00
	00		 fadd	 DWORD PTR __real@4f800000
$LN145@ChangeToRu@2:
  00324	d8 85 c4 7f ff
	ff		 fadd	 DWORD PTR _fKeyReserve$608404[ebp]
  0032a	e8 00 00 00 00	 call	 __ftol2
  0032f	89 86 f8 0e 00
	00		 mov	 DWORD PTR [esi+3832], eax
$LN2@ChangeToRu@2:

; 926  : 	}
; 927  : 
; 928  : 	m_RunState = RS_ATTACK_KEY;
; 929  : 
; 930  : 	if( pOwner->IsNeedSendNetwork() )

  00335	8b 8d c0 7f ff
	ff		 mov	 ecx, DWORD PTR _pOwner$GSCopy$[ebp]
  0033b	c7 86 58 19 00
	00 02 00 00 00	 mov	 DWORD PTR [esi+6488], 2
  00345	8b 01		 mov	 eax, DWORD PTR [ecx]
  00347	ff 90 04 01 00
	00		 call	 DWORD PTR [eax+260]
  0034d	84 c0		 test	 al, al
  0034f	74 7c		 je	 SHORT $LN1@ChangeToRu@2

; 931  : 	{
; 932  : 		SP2Packet kPacket( CUPK_ITEM_GAUGE_OK );

  00351	68 27 41 00 00	 push	 16679			; 00004127H
  00356	8d 8d c8 7f ff
	ff		 lea	 ecx, DWORD PTR _kPacket$608407[ebp]
  0035c	e8 00 00 00 00	 call	 ??0SP2Packet@@QAE@K@Z	; SP2Packet::SP2Packet

; 933  : 		FillItemGaugePacketHeader( pOwner, kPacket );

  00361	8d 85 c8 7f ff
	ff		 lea	 eax, DWORD PTR _kPacket$608407[ebp]
  00367	50		 push	 eax
  00368	ff b5 c0 7f ff
	ff		 push	 DWORD PTR _pOwner$GSCopy$[ebp]
  0036e	8b ce		 mov	 ecx, esi
  00370	c7 45 fc 01 00
	00 00		 mov	 DWORD PTR __$EHRec$[ebp+8], 1
  00377	e8 00 00 00 00	 call	 ?FillItemGaugePacketHeader@ioAttackableItem@@QAEXPAVioBaseChar@@AAVSP2Packet@@@Z ; ioAttackableItem::FillItemGaugePacketHeader

; 934  : 		kPacket << m_ChargeState;

  0037c	ff b6 54 19 00
	00		 push	 DWORD PTR [esi+6484]
  00382	8d 8d c8 7f ff
	ff		 lea	 ecx, DWORD PTR _kPacket$608407[ebp]
  00388	e8 00 00 00 00	 call	 ??6SP2Packet@@QAEAAV0@H@Z ; SP2Packet::operator<<

; 935  : 		kPacket << m_iCurCombo;

  0038d	ff b6 70 19 00
	00		 push	 DWORD PTR [esi+6512]
  00393	8d 8d c8 7f ff
	ff		 lea	 ecx, DWORD PTR _kPacket$608407[ebp]
  00399	e8 00 00 00 00	 call	 ??6SP2Packet@@QAEAAV0@H@Z ; SP2Packet::operator<<

; 936  : 		kPacket << m_RunState;

  0039e	ff b6 58 19 00
	00		 push	 DWORD PTR [esi+6488]
  003a4	8d 8d c8 7f ff
	ff		 lea	 ecx, DWORD PTR _kPacket$608407[ebp]
  003aa	e8 00 00 00 00	 call	 ??6SP2Packet@@QAEAAV0@H@Z ; SP2Packet::operator<<

; 937  : 		P2PNetwork::SendToAllPlayingUser( kPacket );

  003af	8d 85 c8 7f ff
	ff		 lea	 eax, DWORD PTR _kPacket$608407[ebp]
  003b5	53		 push	 ebx
  003b6	50		 push	 eax
  003b7	e8 00 00 00 00	 call	 ?SendToAllPlayingUser@P2PNetwork@@YAXAAVSP2Packet@@PAVioBaseChar@@@Z ; P2PNetwork::SendToAllPlayingUser

; 938  : 	}

  003bc	83 4d fc ff	 or	 DWORD PTR __$EHRec$[ebp+8], -1
  003c0	59		 pop	 ecx
  003c1	59		 pop	 ecx
  003c2	8d 8d c8 7f ff
	ff		 lea	 ecx, DWORD PTR _kPacket$608407[ebp]
  003c8	e8 00 00 00 00	 call	 ??1SP2Packet@@UAE@XZ	; SP2Packet::~SP2Packet
$LN1@ChangeToRu@2:

; 939  : }

  003cd	8b 4d f4	 mov	 ecx, DWORD PTR __$EHRec$[ebp]
  003d0	64 89 0d 00 00
	00 00		 mov	 DWORD PTR fs:0, ecx
  003d7	59		 pop	 ecx
  003d8	5f		 pop	 edi
  003d9	5e		 pop	 esi
  003da	5b		 pop	 ebx
  003db	8b 4d f0	 mov	 ecx, DWORD PTR __$ArrayPad$[ebp]
  003de	33 cd		 xor	 ecx, ebp
  003e0	e8 00 00 00 00	 call	 @__security_check_cookie@4
  003e5	c9		 leave
  003e6	c2 04 00	 ret	 4
_TEXT	ENDS
;	COMDAT text$x
text$x	SEGMENT
__unwindfunclet$?ChangeToRunningAttack@ioRunChargeItem2@@IAEXPAVioBaseChar@@@Z$1:
  00000	8d 8d 9c 7f ff
	ff		 lea	 ecx, DWORD PTR $T616618[ebp]
  00006	ff 25 00 00 00
	00		 jmp	 DWORD PTR __imp_??1ioHashString@@QAE@XZ
__unwindfunclet$?ChangeToRunningAttack@ioRunChargeItem2@@IAEXPAVioBaseChar@@@Z$0:
  0000c	8d 8d c8 7f ff
	ff		 lea	 ecx, DWORD PTR _kPacket$608407[ebp]
  00012	e9 00 00 00 00	 jmp	 ??1SP2Packet@@UAE@XZ	; SP2Packet::~SP2Packet
__ehhandler$?ChangeToRunningAttack@ioRunChargeItem2@@IAEXPAVioBaseChar@@@Z:
  00017	8b 54 24 08	 mov	 edx, DWORD PTR [esp+8]
  0001b	8d 42 0c	 lea	 eax, DWORD PTR [edx+12]
  0001e	8b 8a 98 7f ff
	ff		 mov	 ecx, DWORD PTR [edx-32872]
  00024	33 c8		 xor	 ecx, eax
  00026	e8 00 00 00 00	 call	 @__security_check_cookie@4
  0002b	8b 4a fc	 mov	 ecx, DWORD PTR [edx-4]
  0002e	33 c8		 xor	 ecx, eax
  00030	e8 00 00 00 00	 call	 @__security_check_cookie@4
  00035	b8 00 00 00 00	 mov	 eax, OFFSET __ehfuncinfo$?ChangeToRunningAttack@ioRunChargeItem2@@IAEXPAVioBaseChar@@@Z
  0003a	e9 00 00 00 00	 jmp	 ___CxxFrameHandler3
text$x	ENDS
?ChangeToRunningAttack@ioRunChargeItem2@@IAEXPAVioBaseChar@@@Z ENDP ; ioRunChargeItem2::ChangeToRunningAttack
PUBLIC	_pOwner$GSCopy$
PUBLIC	__$ArrayPad$
PUBLIC	?ChangeToRunningDefense@ioRunChargeItem2@@IAEXPAVioBaseChar@@@Z ; ioRunChargeItem2::ChangeToRunningDefense
;	COMDAT xdata$x
; File d:\lost saga for developer\youtube\tutorial\source\src\lsclient\stringprotect.h
xdata$x	SEGMENT
__unwindtable$?ChangeToRunningDefense@ioRunChargeItem2@@IAEXPAVioBaseChar@@@Z DD 0ffffffffH
	DD	FLAT:__unwindfunclet$?ChangeToRunningDefense@ioRunChargeItem2@@IAEXPAVioBaseChar@@@Z$1
	DD	0ffffffffH
	DD	FLAT:__unwindfunclet$?ChangeToRunningDefense@ioRunChargeItem2@@IAEXPAVioBaseChar@@@Z$0
__ehfuncinfo$?ChangeToRunningDefense@ioRunChargeItem2@@IAEXPAVioBaseChar@@@Z DD 019930522H
	DD	02H
	DD	FLAT:__unwindtable$?ChangeToRunningDefense@ioRunChargeItem2@@IAEXPAVioBaseChar@@@Z
	DD	2 DUP(00H)
	DD	2 DUP(00H)
	DD	00H
	DD	01H
; Function compile flags: /Ogsp
; File d:\lost saga for developer\youtube\tutorial\source\src\lsclient\iorunchargeitem2.cpp
xdata$x	ENDS
;	COMDAT ?ChangeToRunningDefense@ioRunChargeItem2@@IAEXPAVioBaseChar@@@Z
_TEXT	SEGMENT
$T616802 = -32868					; size = 16
tv1113 = -32852						; size = 4
_dwCurTime$ = -32852					; size = 4
tv1160 = -32848						; size = 4
tv1157 = -32848						; size = 4
tv1155 = -32848						; size = 4
_pGrp$ = -32844						; size = 4
_iAniID$608417 = -32840					; size = 4
_fAniRate$608418 = -32836				; size = 4
_pOwner$GSCopy$ = -32832				; size = 4
tv1175 = -32828						; size = 4
tv1167 = -32828						; size = 4
tv1153 = -32828						; size = 4
tv1151 = -32828						; size = 4
tv1127 = -32828						; size = 4
$T616801 = -32828					; size = 4
$T616777 = -32828					; size = 4
_fKeyReserve$608425 = -32828				; size = 4
_kPacket$608428 = -32824				; size = 32792
_szEncEventType$616815 = -32				; size = 12
__$ArrayPad$ = -16					; size = 4
__$EHRec$ = -12						; size = 12
_pOwner$ = 8						; size = 4
?ChangeToRunningDefense@ioRunChargeItem2@@IAEXPAVioBaseChar@@@Z PROC ; ioRunChargeItem2::ChangeToRunningDefense, COMDAT
; _this$ = ecx

; 942  : {

  00000	55		 push	 ebp
  00001	8b ec		 mov	 ebp, esp
  00003	6a ff		 push	 -1
  00005	68 00 00 00 00	 push	 __ehhandler$?ChangeToRunningDefense@ioRunChargeItem2@@IAEXPAVioBaseChar@@@Z
  0000a	64 a1 00 00 00
	00		 mov	 eax, DWORD PTR fs:0
  00010	50		 push	 eax
  00011	b8 58 80 00 00	 mov	 eax, 32856		; 00008058H
  00016	e8 00 00 00 00	 call	 __chkstk
  0001b	a1 00 00 00 00	 mov	 eax, DWORD PTR ___security_cookie
  00020	33 c5		 xor	 eax, ebp
  00022	89 45 f0	 mov	 DWORD PTR __$ArrayPad$[ebp], eax
  00025	53		 push	 ebx
  00026	56		 push	 esi
  00027	57		 push	 edi
  00028	50		 push	 eax
  00029	8d 45 f4	 lea	 eax, DWORD PTR __$EHRec$[ebp]
  0002c	64 a3 00 00 00
	00		 mov	 DWORD PTR fs:0, eax
  00032	8b 45 08	 mov	 eax, DWORD PTR _pOwner$[ebp]

; 943  : 	if( !pOwner ) return;

  00035	33 db		 xor	 ebx, ebx
  00037	8b f1		 mov	 esi, ecx

; 976  : 	{
; 977  : 		SP2Packet kPacket( CUPK_ITEM_GAUGE_OK );

  00039	89 85 c0 7f ff
	ff		 mov	 DWORD PTR _pOwner$GSCopy$[ebp], eax
  0003f	3b c3		 cmp	 eax, ebx
  00041	0f 84 86 03 00
	00		 je	 $LN1@ChangeToRu@3

; 944  : 
; 945  : 	DWORD dwCurTime = FRAMEGETTIME();

  00047	ff 15 00 00 00
	00		 call	 DWORD PTR __imp_?GetSingleton@ioFrameTimer@@SAAAV1@XZ
  0004d	8b c8		 mov	 ecx, eax
  0004f	ff 15 00 00 00
	00		 call	 DWORD PTR __imp_?GetLoopSec@ioFrameTimer@@QBEKXZ

; 946  : 	m_dwRunningDefenseEndTime = dwCurTime;

  00055	89 86 68 1a 00
	00		 mov	 DWORD PTR [esi+6760], eax
  0005b	89 85 ac 7f ff
	ff		 mov	 DWORD PTR _dwCurTime$[ebp], eax

; 947  : 	m_dwKeyReserveTime = 0;
; 948  : 
; 949  : 	ioEntityGroup *pGrp = pOwner->GetGroup();

  00061	8b 85 c0 7f ff
	ff		 mov	 eax, DWORD PTR _pOwner$GSCopy$[ebp]
  00067	89 9e f8 0e 00
	00		 mov	 DWORD PTR [esi+3832], ebx
  0006d	8b 48 04	 mov	 ecx, DWORD PTR [eax+4]
  00070	89 8d b4 7f ff
	ff		 mov	 DWORD PTR _pGrp$[ebp], ecx

; 950  : 	if( pGrp )

  00076	3b cb		 cmp	 ecx, ebx
  00078	0f 84 b7 02 00
	00		 je	 $LN2@ChangeToRu@3

; 951  : 	{
; 952  : 		pGrp->ClearAllActionAni( FLOAT100 );

  0007e	b8 64 00 00 00	 mov	 eax, 100		; 00000064H
  00083	89 85 c4 7f ff
	ff		 mov	 DWORD PTR tv1175[ebp], eax
  00089	db 85 c4 7f ff
	ff		 fild	 DWORD PTR tv1175[ebp]
  0008f	53		 push	 ebx
  00090	85 c0		 test	 eax, eax
  00092	79 06		 jns	 SHORT $LN137@ChangeToRu@3
  00094	d8 05 00 00 00
	00		 fadd	 DWORD PTR __real@4f800000
$LN137@ChangeToRu@3:
  0009a	51		 push	 ecx
  0009b	d9 1c 24	 fstp	 DWORD PTR [esp]
  0009e	ff 15 00 00 00
	00		 call	 DWORD PTR __imp_?ClearAllActionAni@ioEntityGroup@@QAEXM_N@Z

; 953  : 
; 954  : 		int iAniID = pGrp->GetAnimationIdx( m_ChargeDefenseAttribute.m_AttackAnimation );

  000a4	8b 8d b4 7f ff
	ff		 mov	 ecx, DWORD PTR _pGrp$[ebp]
  000aa	8d 86 18 1a 00
	00		 lea	 eax, DWORD PTR [esi+6680]
  000b0	50		 push	 eax
  000b1	ff 15 00 00 00
	00		 call	 DWORD PTR __imp_?GetAnimationIdx@ioEntityGroup@@QAEHABVioHashString@@@Z

; 955  : 		float fAniRate = m_ChargeDefenseAttribute.m_fAttackAniRate;

  000b7	f3 0f 10 8e 28
	1a 00 00	 movss	 xmm1, DWORD PTR [esi+6696]

; 956  : 
; 957  : 		if( fAniRate < 0.0f )

  000bf	0f 57 c0	 xorps	 xmm0, xmm0
  000c2	0f 2f c1	 comiss	 xmm0, xmm1
  000c5	89 85 b8 7f ff
	ff		 mov	 DWORD PTR _iAniID$608417[ebp], eax
  000cb	f3 0f 11 8d bc
	7f ff ff	 movss	 DWORD PTR _fAniRate$608418[ebp], xmm1
  000d3	76 21		 jbe	 SHORT $LN3@ChangeToRu@3

; 958  : 			fAniRate = FLOAT1;

  000d5	b8 01 00 00 00	 mov	 eax, 1
  000da	89 85 c4 7f ff
	ff		 mov	 DWORD PTR tv1167[ebp], eax
  000e0	db 85 c4 7f ff
	ff		 fild	 DWORD PTR tv1167[ebp]
  000e6	85 c0		 test	 eax, eax
  000e8	79 06		 jns	 SHORT $LN138@ChangeToRu@3
  000ea	d8 05 00 00 00
	00		 fadd	 DWORD PTR __real@4f800000
$LN138@ChangeToRu@3:
  000f0	d9 9d bc 7f ff
	ff		 fstp	 DWORD PTR _fAniRate$608418[ebp]
$LN3@ChangeToRu@3:

; 959  : 
; 960  : 		pGrp->SetActionAni( iAniID, FLOAT100, FLOAT100, FLOAT1, FLOAT1 / fAniRate );

  000f6	b8 01 00 00 00	 mov	 eax, 1
  000fb	8b c8		 mov	 ecx, eax
  000fd	b8 01 00 00 00	 mov	 eax, 1
  00102	8b d0		 mov	 edx, eax
  00104	b8 64 00 00 00	 mov	 eax, 100		; 00000064H
  00109	89 85 c4 7f ff
	ff		 mov	 DWORD PTR $T616777[ebp], eax
  0010f	b8 64 00 00 00	 mov	 eax, 100		; 00000064H
  00114	6a 01		 push	 1
  00116	53		 push	 ebx
  00117	83 ec 18	 sub	 esp, 24			; 00000018H
  0011a	89 8d b0 7f ff
	ff		 mov	 DWORD PTR tv1160[ebp], ecx
  00120	db 85 b0 7f ff
	ff		 fild	 DWORD PTR tv1160[ebp]
  00126	f3 0f 11 44 24
	14		 movss	 DWORD PTR [esp+20], xmm0
  0012c	f3 0f 11 44 24
	10		 movss	 DWORD PTR [esp+16], xmm0
  00132	85 c9		 test	 ecx, ecx
  00134	79 06		 jns	 SHORT $LN139@ChangeToRu@3
  00136	d8 05 00 00 00
	00		 fadd	 DWORD PTR __real@4f800000
$LN139@ChangeToRu@3:
  0013c	d8 b5 bc 7f ff
	ff		 fdiv	 DWORD PTR _fAniRate$608418[ebp]
  00142	d9 9d b0 7f ff
	ff		 fstp	 DWORD PTR tv1157[ebp]
  00148	d9 85 b0 7f ff
	ff		 fld	 DWORD PTR tv1157[ebp]
  0014e	d9 5c 24 0c	 fstp	 DWORD PTR [esp+12]
  00152	89 95 b0 7f ff
	ff		 mov	 DWORD PTR tv1155[ebp], edx
  00158	db 85 b0 7f ff
	ff		 fild	 DWORD PTR tv1155[ebp]
  0015e	85 d2		 test	 edx, edx
  00160	79 06		 jns	 SHORT $LN140@ChangeToRu@3
  00162	d8 05 00 00 00
	00		 fadd	 DWORD PTR __real@4f800000
$LN140@ChangeToRu@3:
  00168	8b 8d c4 7f ff
	ff		 mov	 ecx, DWORD PTR $T616777[ebp]
  0016e	d9 5c 24 08	 fstp	 DWORD PTR [esp+8]
  00172	db 85 c4 7f ff
	ff		 fild	 DWORD PTR $T616777[ebp]
  00178	85 c9		 test	 ecx, ecx
  0017a	79 06		 jns	 SHORT $LN141@ChangeToRu@3
  0017c	d8 05 00 00 00
	00		 fadd	 DWORD PTR __real@4f800000
$LN141@ChangeToRu@3:
  00182	89 85 c4 7f ff
	ff		 mov	 DWORD PTR tv1151[ebp], eax
  00188	d9 5c 24 04	 fstp	 DWORD PTR [esp+4]
  0018c	db 85 c4 7f ff
	ff		 fild	 DWORD PTR tv1151[ebp]
  00192	85 c0		 test	 eax, eax
  00194	79 06		 jns	 SHORT $LN142@ChangeToRu@3
  00196	d8 05 00 00 00
	00		 fadd	 DWORD PTR __real@4f800000
$LN142@ChangeToRu@3:
  0019c	8b 8d b4 7f ff
	ff		 mov	 ecx, DWORD PTR _pGrp$[ebp]
  001a2	d9 1c 24	 fstp	 DWORD PTR [esp]
  001a5	ff b5 b8 7f ff
	ff		 push	 DWORD PTR _iAniID$608417[ebp]
  001ab	ff 15 00 00 00
	00		 call	 DWORD PTR __imp_?SetActionAni@ioEntityGroup@@QAE_NHMMMMMM_N0@Z

; 961  : 
; 962  : 		pOwner->RefreshFireTimeList( iAniID, m_ChargeDefenseAttribute.m_vWeaponInfoList, FTT_NORMAL_ATTACK, fAniRate, 0 );

  001b1	f3 0f 10 85 bc
	7f ff ff	 movss	 xmm0, DWORD PTR _fAniRate$608418[ebp]
  001b9	53		 push	 ebx
  001ba	53		 push	 ebx
  001bb	51		 push	 ecx
  001bc	8b 8d c0 7f ff
	ff		 mov	 ecx, DWORD PTR _pOwner$GSCopy$[ebp]
  001c2	f3 0f 11 04 24	 movss	 DWORD PTR [esp], xmm0
  001c7	53		 push	 ebx
  001c8	8d 86 40 1a 00
	00		 lea	 eax, DWORD PTR [esi+6720]
  001ce	50		 push	 eax
  001cf	ff b5 b8 7f ff
	ff		 push	 DWORD PTR _iAniID$608417[ebp]
  001d5	e8 00 00 00 00	 call	 ?RefreshFireTimeList@ioBaseChar@@QAEXHABV?$vector@UWeaponInfo@@V?$allocator@UWeaponInfo@@@std@@@std@@W4FireTimeType@@MK_N@Z ; ioBaseChar::RefreshFireTimeList

; 963  : 		pOwner->IncreaseWeaponIndexBase();

  001da	8b 8d c0 7f ff
	ff		 mov	 ecx, DWORD PTR _pOwner$GSCopy$[ebp]
  001e0	e8 00 00 00 00	 call	 ?IncreaseWeaponIndexBase@ioBaseChar@@QAEKXZ ; ioBaseChar::IncreaseWeaponIndexBase

; 964  : 		pOwner->SetReservedSliding( m_ChargeDefenseAttribute.m_vForceInfoList, iAniID, fAniRate, 0 );

  001e5	f3 0f 10 05 00
	00 00 00	 movss	 xmm0, DWORD PTR __real@3f800000
  001ed	6a 01		 push	 1
  001ef	51		 push	 ecx
  001f0	f3 0f 11 04 24	 movss	 DWORD PTR [esp], xmm0
  001f5	f3 0f 10 85 bc
	7f ff ff	 movss	 xmm0, DWORD PTR _fAniRate$608418[ebp]
  001fd	53		 push	 ebx
  001fe	51		 push	 ecx
  001ff	8b 8d c0 7f ff
	ff		 mov	 ecx, DWORD PTR _pOwner$GSCopy$[ebp]
  00205	f3 0f 11 04 24	 movss	 DWORD PTR [esp], xmm0
  0020a	ff b5 b8 7f ff
	ff		 push	 DWORD PTR _iAniID$608417[ebp]
  00210	8d 86 50 1a 00
	00		 lea	 eax, DWORD PTR [esi+6736]
  00216	50		 push	 eax
  00217	e8 00 00 00 00	 call	 ?SetReservedSliding@ioBaseChar@@QAEXABV?$vector@UForceInfo@@V?$allocator@UForceInfo@@@std@@@std@@HMKM_N@Z ; ioBaseChar::SetReservedSliding

; 965  : 
; 966  : 		m_dwRunningDefenseEndTime += pGrp->GetAnimationFullTime(iAniID) * fAniRate;

  0021c	ff b5 b8 7f ff
	ff		 push	 DWORD PTR _iAniID$608417[ebp]
  00222	8b 8d b4 7f ff
	ff		 mov	 ecx, DWORD PTR _pGrp$[ebp]
  00228	ff 15 00 00 00
	00		 call	 DWORD PTR __imp_?GetAnimationFullTime@ioEntityGroup@@QAEMH@Z
  0022e	d8 8d bc 7f ff
	ff		 fmul	 DWORD PTR _fAniRate$608418[ebp]
  00234	8b 86 68 1a 00
	00		 mov	 eax, DWORD PTR [esi+6760]
  0023a	db 86 68 1a 00
	00		 fild	 DWORD PTR [esi+6760]
  00240	85 c0		 test	 eax, eax
  00242	79 06		 jns	 SHORT $LN143@ChangeToRu@3
  00244	dc 05 00 00 00
	00		 fadd	 QWORD PTR __real@41f0000000000000
$LN143@ChangeToRu@3:
  0024a	de c1		 faddp	 ST(1), ST(0)
  0024c	e8 00 00 00 00	 call	 __ftol2
  00251	6a 02		 push	 2
  00253	89 86 68 1a 00
	00		 mov	 DWORD PTR [esi+6760], eax

; 967  : 
; 968  : 		float fKeyReserve = pGrp->GetAnimationEventTime_e( iAniID, "key_reserve" ) * fAniRate;

  00259	c7 45 e0 86 89
	92 b5		 mov	 DWORD PTR _szEncEventType$616815[ebp], -1248687738 ; b5928986H
  00260	c7 45 e4 9f 89
	98 8f		 mov	 DWORD PTR _szEncEventType$616815[ebp+4], -1885828705 ; 8f98899fH
  00267	8d 45 e0	 lea	 eax, DWORD PTR _szEncEventType$616815[ebp]
  0026a	c7 45 e8 9f 9a
	8e 00		 mov	 DWORD PTR _szEncEventType$616815[ebp+8], 9345695 ; 008e9a9fH
  00271	59		 pop	 ecx
$LL127@ChangeToRu@3:
  00272	81 30 ed ec eb
	ea		 xor	 DWORD PTR [eax], -353637139 ; eaebecedH
  00278	83 c0 04	 add	 eax, 4
  0027b	49		 dec	 ecx
  0027c	75 f4		 jne	 SHORT $LL127@ChangeToRu@3
  0027e	6a 08		 push	 8
  00280	5f		 pop	 edi
$LL124@ChangeToRu@3:
  00281	8b c7		 mov	 eax, edi
  00283	25 03 00 00 80	 and	 eax, -2147483645	; 80000003H
  00288	79 05		 jns	 SHORT $LN144@ChangeToRu@3
  0028a	48		 dec	 eax
  0028b	83 c8 fc	 or	 eax, -4			; fffffffcH
  0028e	40		 inc	 eax
$LN144@ChangeToRu@3:
  0028f	b1 ed		 mov	 cl, -19			; ffffffedH
  00291	2a c8		 sub	 cl, al
  00293	30 4c 3d e0	 xor	 BYTE PTR _szEncEventType$616815[ebp+edi], cl
  00297	47		 inc	 edi
  00298	83 ff 0b	 cmp	 edi, 11			; 0000000bH
  0029b	7c e4		 jl	 SHORT $LL124@ChangeToRu@3
  0029d	8d 45 e0	 lea	 eax, DWORD PTR _szEncEventType$616815[ebp]
  002a0	50		 push	 eax
  002a1	8d 8d 9c 7f ff
	ff		 lea	 ecx, DWORD PTR $T616802[ebp]
  002a7	ff 15 00 00 00
	00		 call	 DWORD PTR __imp_??0ioHashString@@QAE@PBD@Z
  002ad	8b 8d b4 7f ff
	ff		 mov	 ecx, DWORD PTR _pGrp$[ebp]
  002b3	8d 85 9c 7f ff
	ff		 lea	 eax, DWORD PTR $T616802[ebp]
  002b9	50		 push	 eax
  002ba	ff b5 b8 7f ff
	ff		 push	 DWORD PTR _iAniID$608417[ebp]
  002c0	89 5d fc	 mov	 DWORD PTR __$EHRec$[ebp+8], ebx
  002c3	ff 15 00 00 00
	00		 call	 DWORD PTR __imp_?GetAnimationEventTime@ioEntityGroup@@QAEMHABVioHashString@@@Z
  002c9	d9 9d c4 7f ff
	ff		 fstp	 DWORD PTR $T616801[ebp]
  002cf	83 4d fc ff	 or	 DWORD PTR __$EHRec$[ebp+8], -1
  002d3	8d 8d 9c 7f ff
	ff		 lea	 ecx, DWORD PTR $T616802[ebp]
  002d9	ff 15 00 00 00
	00		 call	 DWORD PTR __imp_??1ioHashString@@QAE@XZ
  002df	f3 0f 10 85 c4
	7f ff ff	 movss	 xmm0, DWORD PTR $T616801[ebp]
  002e7	f3 0f 10 8d bc
	7f ff ff	 movss	 xmm1, DWORD PTR _fAniRate$608418[ebp]
  002ef	0f 5a c0	 cvtps2pd xmm0, xmm0
  002f2	0f 5a c9	 cvtps2pd xmm1, xmm1
  002f5	f2 0f 59 c1	 mulsd	 xmm0, xmm1
  002f9	66 0f 5a c0	 cvtpd2ps xmm0, xmm0

; 969  : 		if( fKeyReserve > 0.0f )

  002fd	0f 2f 05 00 00
	00 00		 comiss	 xmm0, DWORD PTR __real@00000000
  00304	f3 0f 11 85 c4
	7f ff ff	 movss	 DWORD PTR _fKeyReserve$608425[ebp], xmm0
  0030c	76 27		 jbe	 SHORT $LN2@ChangeToRu@3

; 970  : 			m_dwKeyReserveTime = dwCurTime + fKeyReserve;

  0030e	8b 85 ac 7f ff
	ff		 mov	 eax, DWORD PTR _dwCurTime$[ebp]
  00314	db 85 ac 7f ff
	ff		 fild	 DWORD PTR _dwCurTime$[ebp]
  0031a	85 c0		 test	 eax, eax
  0031c	79 06		 jns	 SHORT $LN145@ChangeToRu@3
  0031e	d8 05 00 00 00
	00		 fadd	 DWORD PTR __real@4f800000
$LN145@ChangeToRu@3:
  00324	d8 85 c4 7f ff
	ff		 fadd	 DWORD PTR _fKeyReserve$608425[ebp]
  0032a	e8 00 00 00 00	 call	 __ftol2
  0032f	89 86 f8 0e 00
	00		 mov	 DWORD PTR [esi+3832], eax
$LN2@ChangeToRu@3:

; 971  : 	}
; 972  : 
; 973  : 	m_RunState = RS_DEFENSE_KEY;
; 974  : 
; 975  : 	if( pOwner->IsNeedSendNetwork() )

  00335	8b 8d c0 7f ff
	ff		 mov	 ecx, DWORD PTR _pOwner$GSCopy$[ebp]
  0033b	c7 86 58 19 00
	00 03 00 00 00	 mov	 DWORD PTR [esi+6488], 3
  00345	8b 01		 mov	 eax, DWORD PTR [ecx]
  00347	ff 90 04 01 00
	00		 call	 DWORD PTR [eax+260]
  0034d	84 c0		 test	 al, al
  0034f	74 7c		 je	 SHORT $LN1@ChangeToRu@3

; 976  : 	{
; 977  : 		SP2Packet kPacket( CUPK_ITEM_GAUGE_OK );

  00351	68 27 41 00 00	 push	 16679			; 00004127H
  00356	8d 8d c8 7f ff
	ff		 lea	 ecx, DWORD PTR _kPacket$608428[ebp]
  0035c	e8 00 00 00 00	 call	 ??0SP2Packet@@QAE@K@Z	; SP2Packet::SP2Packet

; 978  : 		FillItemGaugePacketHeader( pOwner, kPacket );

  00361	8d 85 c8 7f ff
	ff		 lea	 eax, DWORD PTR _kPacket$608428[ebp]
  00367	50		 push	 eax
  00368	ff b5 c0 7f ff
	ff		 push	 DWORD PTR _pOwner$GSCopy$[ebp]
  0036e	8b ce		 mov	 ecx, esi
  00370	c7 45 fc 01 00
	00 00		 mov	 DWORD PTR __$EHRec$[ebp+8], 1
  00377	e8 00 00 00 00	 call	 ?FillItemGaugePacketHeader@ioAttackableItem@@QAEXPAVioBaseChar@@AAVSP2Packet@@@Z ; ioAttackableItem::FillItemGaugePacketHeader

; 979  : 		kPacket << m_ChargeState;

  0037c	ff b6 54 19 00
	00		 push	 DWORD PTR [esi+6484]
  00382	8d 8d c8 7f ff
	ff		 lea	 ecx, DWORD PTR _kPacket$608428[ebp]
  00388	e8 00 00 00 00	 call	 ??6SP2Packet@@QAEAAV0@H@Z ; SP2Packet::operator<<

; 980  : 		kPacket << m_iCurCombo;

  0038d	ff b6 70 19 00
	00		 push	 DWORD PTR [esi+6512]
  00393	8d 8d c8 7f ff
	ff		 lea	 ecx, DWORD PTR _kPacket$608428[ebp]
  00399	e8 00 00 00 00	 call	 ??6SP2Packet@@QAEAAV0@H@Z ; SP2Packet::operator<<

; 981  : 		kPacket << m_RunState;

  0039e	ff b6 58 19 00
	00		 push	 DWORD PTR [esi+6488]
  003a4	8d 8d c8 7f ff
	ff		 lea	 ecx, DWORD PTR _kPacket$608428[ebp]
  003aa	e8 00 00 00 00	 call	 ??6SP2Packet@@QAEAAV0@H@Z ; SP2Packet::operator<<

; 982  : 		P2PNetwork::SendToAllPlayingUser( kPacket );

  003af	8d 85 c8 7f ff
	ff		 lea	 eax, DWORD PTR _kPacket$608428[ebp]
  003b5	53		 push	 ebx
  003b6	50		 push	 eax
  003b7	e8 00 00 00 00	 call	 ?SendToAllPlayingUser@P2PNetwork@@YAXAAVSP2Packet@@PAVioBaseChar@@@Z ; P2PNetwork::SendToAllPlayingUser

; 983  : 	}

  003bc	83 4d fc ff	 or	 DWORD PTR __$EHRec$[ebp+8], -1
  003c0	59		 pop	 ecx
  003c1	59		 pop	 ecx
  003c2	8d 8d c8 7f ff
	ff		 lea	 ecx, DWORD PTR _kPacket$608428[ebp]
  003c8	e8 00 00 00 00	 call	 ??1SP2Packet@@UAE@XZ	; SP2Packet::~SP2Packet
$LN1@ChangeToRu@3:

; 984  : }

  003cd	8b 4d f4	 mov	 ecx, DWORD PTR __$EHRec$[ebp]
  003d0	64 89 0d 00 00
	00 00		 mov	 DWORD PTR fs:0, ecx
  003d7	59		 pop	 ecx
  003d8	5f		 pop	 edi
  003d9	5e		 pop	 esi
  003da	5b		 pop	 ebx
  003db	8b 4d f0	 mov	 ecx, DWORD PTR __$ArrayPad$[ebp]
  003de	33 cd		 xor	 ecx, ebp
  003e0	e8 00 00 00 00	 call	 @__security_check_cookie@4
  003e5	c9		 leave
  003e6	c2 04 00	 ret	 4
_TEXT	ENDS
;	COMDAT text$x
text$x	SEGMENT
__unwindfunclet$?ChangeToRunningDefense@ioRunChargeItem2@@IAEXPAVioBaseChar@@@Z$1:
  00000	8d 8d 9c 7f ff
	ff		 lea	 ecx, DWORD PTR $T616802[ebp]
  00006	ff 25 00 00 00
	00		 jmp	 DWORD PTR __imp_??1ioHashString@@QAE@XZ
__unwindfunclet$?ChangeToRunningDefense@ioRunChargeItem2@@IAEXPAVioBaseChar@@@Z$0:
  0000c	8d 8d c8 7f ff
	ff		 lea	 ecx, DWORD PTR _kPacket$608428[ebp]
  00012	e9 00 00 00 00	 jmp	 ??1SP2Packet@@UAE@XZ	; SP2Packet::~SP2Packet
__ehhandler$?ChangeToRunningDefense@ioRunChargeItem2@@IAEXPAVioBaseChar@@@Z:
  00017	8b 54 24 08	 mov	 edx, DWORD PTR [esp+8]
  0001b	8d 42 0c	 lea	 eax, DWORD PTR [edx+12]
  0001e	8b 8a 98 7f ff
	ff		 mov	 ecx, DWORD PTR [edx-32872]
  00024	33 c8		 xor	 ecx, eax
  00026	e8 00 00 00 00	 call	 @__security_check_cookie@4
  0002b	8b 4a fc	 mov	 ecx, DWORD PTR [edx-4]
  0002e	33 c8		 xor	 ecx, eax
  00030	e8 00 00 00 00	 call	 @__security_check_cookie@4
  00035	b8 00 00 00 00	 mov	 eax, OFFSET __ehfuncinfo$?ChangeToRunningDefense@ioRunChargeItem2@@IAEXPAVioBaseChar@@@Z
  0003a	e9 00 00 00 00	 jmp	 ___CxxFrameHandler3
text$x	ENDS
?ChangeToRunningDefense@ioRunChargeItem2@@IAEXPAVioBaseChar@@@Z ENDP ; ioRunChargeItem2::ChangeToRunningDefense
PUBLIC	_pOwner$GSCopy$
PUBLIC	?ChangeToFinishAttack@ioRunChargeItem2@@IAEXPAVioBaseChar@@@Z ; ioRunChargeItem2::ChangeToFinishAttack
EXTRN	?ClearAttackFireTimeAndSkill@ioBaseChar@@QAEXW4ClearAttackFireType@@@Z:PROC ; ioBaseChar::ClearAttackFireTimeAndSkill
EXTRN	?InitActionStopDelay@ioBaseChar@@QAEX_N@Z:PROC	; ioBaseChar::InitActionStopDelay
;	COMDAT xdata$x
; File d:\lost saga for developer\youtube\tutorial\source\src\lsclient\stringprotect.h
xdata$x	SEGMENT
__unwindtable$?ChangeToFinishAttack@ioRunChargeItem2@@IAEXPAVioBaseChar@@@Z DD 0ffffffffH
	DD	FLAT:__unwindfunclet$?ChangeToFinishAttack@ioRunChargeItem2@@IAEXPAVioBaseChar@@@Z$0
__ehfuncinfo$?ChangeToFinishAttack@ioRunChargeItem2@@IAEXPAVioBaseChar@@@Z DD 019930522H
	DD	01H
	DD	FLAT:__unwindtable$?ChangeToFinishAttack@ioRunChargeItem2@@IAEXPAVioBaseChar@@@Z
	DD	2 DUP(00H)
	DD	2 DUP(00H)
	DD	00H
	DD	01H
; Function compile flags: /Ogsp
; File d:\lost saga for developer\youtube\tutorial\source\src\lsclient\iorunchargeitem2.cpp
xdata$x	ENDS
;	COMDAT ?ChangeToFinishAttack@ioRunChargeItem2@@IAEXPAVioBaseChar@@@Z
_TEXT	SEGMENT
$T616995 = -88						; size = 16
_dwCurTime$ = -72					; size = 4
tv1156 = -68						; size = 4
$T616970 = -68						; size = 4
tv1182 = -64						; size = 4
$T616994 = -64						; size = 4
_dwEndDelay$608442 = -64				; size = 4
tv1165 = -60						; size = 4
tv1163 = -60						; size = 4
tv1160 = -60						; size = 4
tv1158 = -60						; size = 4
tv1178 = -56						; size = 4
tv1173 = -56						; size = 4
tv1154 = -56						; size = 4
tv1130 = -56						; size = 4
$T616974 = -56						; size = 4
_value$616940 = -52					; size = 4
_dwPreDelay$608441 = -52				; size = 4
_iAniID$608437 = -48					; size = 4
_pGrp$ = -44						; size = 4
_pOwner$GSCopy$ = -40					; size = 4
_fCurRate$608438 = -36					; size = 4
_szEncEventType$617008 = -32				; size = 12
__$EHRec$ = -12						; size = 12
_pOwner$ = 8						; size = 4
?ChangeToFinishAttack@ioRunChargeItem2@@IAEXPAVioBaseChar@@@Z PROC ; ioRunChargeItem2::ChangeToFinishAttack, COMDAT
; _this$ = ecx

; 987  : {

  00000	6a 4c		 push	 76			; 0000004cH
  00002	b8 00 00 00 00	 mov	 eax, __ehhandler$?ChangeToFinishAttack@ioRunChargeItem2@@IAEXPAVioBaseChar@@@Z
  00007	e8 00 00 00 00	 call	 __EH_prolog3_GS
  0000c	8b 45 08	 mov	 eax, DWORD PTR _pOwner$[ebp]

; 988  : 	if( !pOwner ) return;

  0000f	33 db		 xor	 ebx, ebx
  00011	8b f1		 mov	 esi, ecx

; 1028 : 	}
; 1029 : 
; 1030 : 	m_ChargeState = CS_FINISH_ATTACK;

  00013	89 45 d8	 mov	 DWORD PTR _pOwner$GSCopy$[ebp], eax
  00016	3b c3		 cmp	 eax, ebx
  00018	0f 84 d2 02 00
	00		 je	 $LN5@ChangeToFi

; 989  : 
; 990  : 	DWORD dwCurTime = FRAMEGETTIME();

  0001e	ff 15 00 00 00
	00		 call	 DWORD PTR __imp_?GetSingleton@ioFrameTimer@@SAAAV1@XZ
  00024	8b c8		 mov	 ecx, eax
  00026	ff 15 00 00 00
	00		 call	 DWORD PTR __imp_?GetLoopSec@ioFrameTimer@@QBEKXZ

; 991  : 	m_dwFinishAttackEndTime = dwCurTime;
; 992  : 
; 993  : 	m_fCurChargeRateForSkill = 0.0f;

  0002c	0f 57 c0	 xorps	 xmm0, xmm0
  0002f	89 45 b8	 mov	 DWORD PTR _dwCurTime$[ebp], eax
  00032	89 86 bc 1a 00
	00		 mov	 DWORD PTR [esi+6844], eax
  00038	8d 45 cc	 lea	 eax, DWORD PTR _value$616940[ebp]
  0003b	50		 push	 eax
  0003c	8d 8e bc 0f 00
	00		 lea	 ecx, DWORD PTR [esi+4028]
  00042	f3 0f 11 45 cc	 movss	 DWORD PTR _value$616940[ebp], xmm0
  00047	e8 00 00 00 00	 call	 ?EncryptValueToPool@?$CEncrypt@M@@AAEXPBD@Z ; CEncrypt<float>::EncryptValueToPool

; 994  : 
; 995  : 	pOwner->SetChargingState( false );

  0004c	8b 4d d8	 mov	 ecx, DWORD PTR _pOwner$GSCopy$[ebp]
  0004f	88 99 54 20 00
	00		 mov	 BYTE PTR [ecx+8276], bl

; 996  : 
; 997  : 	m_dwKeyReserveTime = 0;

  00055	89 9e f8 0e 00
	00		 mov	 DWORD PTR [esi+3832], ebx

; 998  : 	ioEntityGroup *pGrp = pOwner->GetGroup();

  0005b	8b 41 04	 mov	 eax, DWORD PTR [ecx+4]
  0005e	89 45 d4	 mov	 DWORD PTR _pGrp$[ebp], eax

; 999  : 	if( pGrp )

  00061	3b c3		 cmp	 eax, ebx
  00063	0f 84 6c 02 00
	00		 je	 $LN1@ChangeToFi

; 1000 : 	{
; 1001 : 		pOwner->InitActionStopDelay( true );

  00069	6a 01		 push	 1
  0006b	e8 00 00 00 00	 call	 ?InitActionStopDelay@ioBaseChar@@QAEX_N@Z ; ioBaseChar::InitActionStopDelay

; 1002 : 
; 1003 : 		pOwner->ClearAttackFireTimeAndSkill();

  00070	8b 4d d8	 mov	 ecx, DWORD PTR _pOwner$GSCopy$[ebp]
  00073	53		 push	 ebx
  00074	e8 00 00 00 00	 call	 ?ClearAttackFireTimeAndSkill@ioBaseChar@@QAEXW4ClearAttackFireType@@@Z ; ioBaseChar::ClearAttackFireTimeAndSkill

; 1004 : 
; 1005 : 		int iAniID = pGrp->GetAnimationIdx( m_FinishAttribute.m_AttackAnimation );

  00079	8b 4d d4	 mov	 ecx, DWORD PTR _pGrp$[ebp]
  0007c	8d 86 6c 1a 00
	00		 lea	 eax, DWORD PTR [esi+6764]
  00082	50		 push	 eax
  00083	ff 15 00 00 00
	00		 call	 DWORD PTR __imp_?GetAnimationIdx@ioEntityGroup@@QAEHABVioHashString@@@Z

; 1006 : 
; 1007 : 		float fCurRate = m_FinishAttribute.m_fAttackAniRate;

  00089	f3 0f 10 86 7c
	1a 00 00	 movss	 xmm0, DWORD PTR [esi+6780]

; 1008 : 		if( fCurRate <= 0.0f )

  00091	0f 57 c9	 xorps	 xmm1, xmm1
  00094	0f 2f c8	 comiss	 xmm1, xmm0
  00097	89 45 d0	 mov	 DWORD PTR _iAniID$608437[ebp], eax
  0009a	f3 0f 11 45 dc	 movss	 DWORD PTR _fCurRate$608438[ebp], xmm0
  0009f	72 18		 jb	 SHORT $LN2@ChangeToFi

; 1009 : 			fCurRate = FLOAT1;

  000a1	b8 01 00 00 00	 mov	 eax, 1
  000a6	89 45 c0	 mov	 DWORD PTR tv1182[ebp], eax
  000a9	db 45 c0	 fild	 DWORD PTR tv1182[ebp]
  000ac	85 c0		 test	 eax, eax
  000ae	79 06		 jns	 SHORT $LN140@ChangeToFi
  000b0	d8 05 00 00 00
	00		 fadd	 DWORD PTR __real@4f800000
$LN140@ChangeToFi:
  000b6	d9 5d dc	 fstp	 DWORD PTR _fCurRate$608438[ebp]
$LN2@ChangeToFi:

; 1010 : 
; 1011 : 		DWORD dwPreDelay = m_FinishAttribute.m_dwPreDelay;

  000b9	8b 86 b4 1a 00
	00		 mov	 eax, DWORD PTR [esi+6836]
  000bf	89 45 cc	 mov	 DWORD PTR _dwPreDelay$608441[ebp], eax

; 1012 : 		DWORD dwEndDelay = m_FinishAttribute.m_dwEndDelay;

  000c2	8b 86 b8 1a 00
	00		 mov	 eax, DWORD PTR [esi+6840]
  000c8	89 45 c0	 mov	 DWORD PTR _dwEndDelay$608442[ebp], eax

; 1013 : 
; 1014 : 		pGrp->ClearAllActionAni( FLOAT100 );

  000cb	b8 64 00 00 00	 mov	 eax, 100		; 00000064H
  000d0	89 45 c8	 mov	 DWORD PTR tv1178[ebp], eax
  000d3	db 45 c8	 fild	 DWORD PTR tv1178[ebp]
  000d6	53		 push	 ebx
  000d7	85 c0		 test	 eax, eax
  000d9	79 06		 jns	 SHORT $LN141@ChangeToFi
  000db	d8 05 00 00 00
	00		 fadd	 DWORD PTR __real@4f800000
$LN141@ChangeToFi:
  000e1	51		 push	 ecx
  000e2	8b 4d d4	 mov	 ecx, DWORD PTR _pGrp$[ebp]
  000e5	d9 1c 24	 fstp	 DWORD PTR [esp]
  000e8	ff 15 00 00 00
	00		 call	 DWORD PTR __imp_?ClearAllActionAni@ioEntityGroup@@QAEXM_N@Z

; 1015 : 		pGrp->ClearAllLoopAni( FLOAT100 );

  000ee	b8 64 00 00 00	 mov	 eax, 100		; 00000064H
  000f3	89 45 c8	 mov	 DWORD PTR tv1173[ebp], eax
  000f6	db 45 c8	 fild	 DWORD PTR tv1173[ebp]
  000f9	53		 push	 ebx
  000fa	85 c0		 test	 eax, eax
  000fc	79 06		 jns	 SHORT $LN142@ChangeToFi
  000fe	d8 05 00 00 00
	00		 fadd	 DWORD PTR __real@4f800000
$LN142@ChangeToFi:
  00104	51		 push	 ecx
  00105	8b 4d d4	 mov	 ecx, DWORD PTR _pGrp$[ebp]
  00108	d9 1c 24	 fstp	 DWORD PTR [esp]
  0010b	ff 15 00 00 00
	00		 call	 DWORD PTR __imp_?ClearAllLoopAni@ioEntityGroup@@QAEXM_N@Z

; 1016 : 		pGrp->SetActionAni( iAniID, FLOAT100, FLOAT100, FLOAT1, FLOAT1 / fCurRate, 0.0f, dwPreDelay, true );

  00111	b8 01 00 00 00	 mov	 eax, 1
  00116	8b c8		 mov	 ecx, eax
  00118	b8 01 00 00 00	 mov	 eax, 1
  0011d	8b d0		 mov	 edx, eax
  0011f	b8 64 00 00 00	 mov	 eax, 100		; 00000064H
  00124	89 45 bc	 mov	 DWORD PTR $T616970[ebp], eax
  00127	b8 64 00 00 00	 mov	 eax, 100		; 00000064H
  0012c	db 45 cc	 fild	 DWORD PTR _dwPreDelay$608441[ebp]
  0012f	89 45 c8	 mov	 DWORD PTR $T616974[ebp], eax
  00132	8b 45 cc	 mov	 eax, DWORD PTR _dwPreDelay$608441[ebp]
  00135	6a 01		 push	 1
  00137	6a 01		 push	 1
  00139	85 c0		 test	 eax, eax
  0013b	79 06		 jns	 SHORT $LN143@ChangeToFi
  0013d	d8 05 00 00 00
	00		 fadd	 DWORD PTR __real@4f800000
$LN143@ChangeToFi:
  00143	0f 57 c0	 xorps	 xmm0, xmm0
  00146	83 ec 18	 sub	 esp, 24			; 00000018H
  00149	d9 5c 24 14	 fstp	 DWORD PTR [esp+20]
  0014d	89 4d c4	 mov	 DWORD PTR tv1163[ebp], ecx
  00150	db 45 c4	 fild	 DWORD PTR tv1163[ebp]
  00153	f3 0f 11 44 24
	10		 movss	 DWORD PTR [esp+16], xmm0
  00159	85 c9		 test	 ecx, ecx
  0015b	79 06		 jns	 SHORT $LN144@ChangeToFi
  0015d	d8 05 00 00 00
	00		 fadd	 DWORD PTR __real@4f800000
$LN144@ChangeToFi:
  00163	d8 75 dc	 fdiv	 DWORD PTR _fCurRate$608438[ebp]
  00166	d9 5d c4	 fstp	 DWORD PTR tv1160[ebp]
  00169	d9 45 c4	 fld	 DWORD PTR tv1160[ebp]
  0016c	d9 5c 24 0c	 fstp	 DWORD PTR [esp+12]
  00170	89 55 c4	 mov	 DWORD PTR tv1158[ebp], edx
  00173	db 45 c4	 fild	 DWORD PTR tv1158[ebp]
  00176	85 d2		 test	 edx, edx
  00178	79 06		 jns	 SHORT $LN145@ChangeToFi
  0017a	d8 05 00 00 00
	00		 fadd	 DWORD PTR __real@4f800000
$LN145@ChangeToFi:
  00180	8b 45 bc	 mov	 eax, DWORD PTR $T616970[ebp]
  00183	d9 5c 24 08	 fstp	 DWORD PTR [esp+8]
  00187	db 45 bc	 fild	 DWORD PTR $T616970[ebp]
  0018a	85 c0		 test	 eax, eax
  0018c	79 06		 jns	 SHORT $LN146@ChangeToFi
  0018e	d8 05 00 00 00
	00		 fadd	 DWORD PTR __real@4f800000
$LN146@ChangeToFi:
  00194	8b 45 c8	 mov	 eax, DWORD PTR $T616974[ebp]
  00197	d9 5c 24 04	 fstp	 DWORD PTR [esp+4]
  0019b	db 45 c8	 fild	 DWORD PTR $T616974[ebp]
  0019e	85 c0		 test	 eax, eax
  001a0	79 06		 jns	 SHORT $LN147@ChangeToFi
  001a2	d8 05 00 00 00
	00		 fadd	 DWORD PTR __real@4f800000
$LN147@ChangeToFi:
  001a8	8b 4d d4	 mov	 ecx, DWORD PTR _pGrp$[ebp]
  001ab	d9 1c 24	 fstp	 DWORD PTR [esp]
  001ae	ff 75 d0	 push	 DWORD PTR _iAniID$608437[ebp]
  001b1	ff 15 00 00 00
	00		 call	 DWORD PTR __imp_?SetActionAni@ioEntityGroup@@QAE_NHMMMMMM_N0@Z

; 1017 : 
; 1018 : 		pOwner->RefreshFireTimeList( iAniID, m_FinishAttribute.m_vWeaponInfoList, FTT_NORMAL_ATTACK, fCurRate, dwPreDelay );

  001b7	f3 0f 10 45 dc	 movss	 xmm0, DWORD PTR _fCurRate$608438[ebp]
  001bc	53		 push	 ebx
  001bd	ff 75 cc	 push	 DWORD PTR _dwPreDelay$608441[ebp]
  001c0	8d 86 94 1a 00
	00		 lea	 eax, DWORD PTR [esi+6804]
  001c6	51		 push	 ecx
  001c7	8b 4d d8	 mov	 ecx, DWORD PTR _pOwner$GSCopy$[ebp]
  001ca	f3 0f 11 04 24	 movss	 DWORD PTR [esp], xmm0
  001cf	53		 push	 ebx
  001d0	50		 push	 eax
  001d1	ff 75 d0	 push	 DWORD PTR _iAniID$608437[ebp]
  001d4	e8 00 00 00 00	 call	 ?RefreshFireTimeList@ioBaseChar@@QAEXHABV?$vector@UWeaponInfo@@V?$allocator@UWeaponInfo@@@std@@@std@@W4FireTimeType@@MK_N@Z ; ioBaseChar::RefreshFireTimeList

; 1019 : 		pOwner->IncreaseWeaponIndexBase();

  001d9	8b 4d d8	 mov	 ecx, DWORD PTR _pOwner$GSCopy$[ebp]
  001dc	e8 00 00 00 00	 call	 ?IncreaseWeaponIndexBase@ioBaseChar@@QAEKXZ ; ioBaseChar::IncreaseWeaponIndexBase

; 1020 : 		pOwner->SetReservedSliding( m_FinishAttribute.m_vForceInfoList, iAniID, fCurRate, 0 );

  001e1	f3 0f 10 05 00
	00 00 00	 movss	 xmm0, DWORD PTR __real@3f800000
  001e9	6a 01		 push	 1
  001eb	51		 push	 ecx
  001ec	f3 0f 11 04 24	 movss	 DWORD PTR [esp], xmm0
  001f1	f3 0f 10 45 dc	 movss	 xmm0, DWORD PTR _fCurRate$608438[ebp]
  001f6	53		 push	 ebx
  001f7	51		 push	 ecx
  001f8	8b 4d d8	 mov	 ecx, DWORD PTR _pOwner$GSCopy$[ebp]
  001fb	f3 0f 11 04 24	 movss	 DWORD PTR [esp], xmm0
  00200	ff 75 d0	 push	 DWORD PTR _iAniID$608437[ebp]
  00203	8d 86 a4 1a 00
	00		 lea	 eax, DWORD PTR [esi+6820]
  00209	50		 push	 eax
  0020a	e8 00 00 00 00	 call	 ?SetReservedSliding@ioBaseChar@@QAEXABV?$vector@UForceInfo@@V?$allocator@UForceInfo@@@std@@@std@@HMKM_N@Z ; ioBaseChar::SetReservedSliding

; 1021 : 
; 1022 : 		m_dwFinishAttackEndTime += pGrp->GetAnimationFullTime(iAniID) * fCurRate;

  0020f	ff 75 d0	 push	 DWORD PTR _iAniID$608437[ebp]
  00212	8b 4d d4	 mov	 ecx, DWORD PTR _pGrp$[ebp]
  00215	ff 15 00 00 00
	00		 call	 DWORD PTR __imp_?GetAnimationFullTime@ioEntityGroup@@QAEMH@Z

; 1023 : 		m_dwFinishAttackEndTime += dwEndDelay;

  0021b	d8 4d dc	 fmul	 DWORD PTR _fCurRate$608438[ebp]
  0021e	8b 86 bc 1a 00
	00		 mov	 eax, DWORD PTR [esi+6844]
  00224	db 86 bc 1a 00
	00		 fild	 DWORD PTR [esi+6844]
  0022a	85 c0		 test	 eax, eax
  0022c	79 06		 jns	 SHORT $LN148@ChangeToFi
  0022e	dc 05 00 00 00
	00		 fadd	 QWORD PTR __real@41f0000000000000
$LN148@ChangeToFi:

; 1021 : 
; 1022 : 		m_dwFinishAttackEndTime += pGrp->GetAnimationFullTime(iAniID) * fCurRate;

  00234	de c1		 faddp	 ST(1), ST(0)

; 1023 : 		m_dwFinishAttackEndTime += dwEndDelay;

  00236	e8 00 00 00 00	 call	 __ftol2
  0023b	03 45 c0	 add	 eax, DWORD PTR _dwEndDelay$608442[ebp]
  0023e	6a 02		 push	 2
  00240	89 86 bc 1a 00
	00		 mov	 DWORD PTR [esi+6844], eax

; 1024 : 
; 1025 : 		DWORD dwKeyReserve = pGrp->GetAnimationEventTime_e( iAniID, "key_reserve" ) * fCurRate;

  00246	c7 45 e0 86 89
	92 b5		 mov	 DWORD PTR _szEncEventType$617008[ebp], -1248687738 ; b5928986H
  0024d	c7 45 e4 9f 89
	98 8f		 mov	 DWORD PTR _szEncEventType$617008[ebp+4], -1885828705 ; 8f98899fH
  00254	8d 45 e0	 lea	 eax, DWORD PTR _szEncEventType$617008[ebp]
  00257	c7 45 e8 9f 9a
	8e 00		 mov	 DWORD PTR _szEncEventType$617008[ebp+8], 9345695 ; 008e9a9fH
  0025e	59		 pop	 ecx
$LL131@ChangeToFi:
  0025f	81 30 ed ec eb
	ea		 xor	 DWORD PTR [eax], -353637139 ; eaebecedH
  00265	83 c0 04	 add	 eax, 4
  00268	49		 dec	 ecx
  00269	75 f4		 jne	 SHORT $LL131@ChangeToFi
  0026b	6a 08		 push	 8
  0026d	5f		 pop	 edi
$LL128@ChangeToFi:
  0026e	8b c7		 mov	 eax, edi
  00270	25 03 00 00 80	 and	 eax, -2147483645	; 80000003H
  00275	79 05		 jns	 SHORT $LN149@ChangeToFi
  00277	48		 dec	 eax
  00278	83 c8 fc	 or	 eax, -4			; fffffffcH
  0027b	40		 inc	 eax
$LN149@ChangeToFi:
  0027c	b1 ed		 mov	 cl, -19			; ffffffedH
  0027e	2a c8		 sub	 cl, al
  00280	30 4c 3d e0	 xor	 BYTE PTR _szEncEventType$617008[ebp+edi], cl
  00284	47		 inc	 edi
  00285	83 ff 0b	 cmp	 edi, 11			; 0000000bH
  00288	7c e4		 jl	 SHORT $LL128@ChangeToFi
  0028a	8d 45 e0	 lea	 eax, DWORD PTR _szEncEventType$617008[ebp]
  0028d	50		 push	 eax
  0028e	8d 4d a8	 lea	 ecx, DWORD PTR $T616995[ebp]
  00291	ff 15 00 00 00
	00		 call	 DWORD PTR __imp_??0ioHashString@@QAE@PBD@Z
  00297	8b 4d d4	 mov	 ecx, DWORD PTR _pGrp$[ebp]
  0029a	8d 45 a8	 lea	 eax, DWORD PTR $T616995[ebp]
  0029d	50		 push	 eax
  0029e	ff 75 d0	 push	 DWORD PTR _iAniID$608437[ebp]
  002a1	89 5d fc	 mov	 DWORD PTR __$EHRec$[ebp+8], ebx
  002a4	ff 15 00 00 00
	00		 call	 DWORD PTR __imp_?GetAnimationEventTime@ioEntityGroup@@QAEMHABVioHashString@@@Z
  002aa	d9 5d c0	 fstp	 DWORD PTR $T616994[ebp]
  002ad	83 4d fc ff	 or	 DWORD PTR __$EHRec$[ebp+8], -1
  002b1	8d 4d a8	 lea	 ecx, DWORD PTR $T616995[ebp]
  002b4	ff 15 00 00 00
	00		 call	 DWORD PTR __imp_??1ioHashString@@QAE@XZ
  002ba	d9 45 c0	 fld	 DWORD PTR $T616994[ebp]
  002bd	d8 4d dc	 fmul	 DWORD PTR _fCurRate$608438[ebp]
  002c0	e8 00 00 00 00	 call	 __ftol2

; 1026 : 		if( dwKeyReserve > 0 )

  002c5	3b c3		 cmp	 eax, ebx
  002c7	76 0c		 jbe	 SHORT $LN1@ChangeToFi

; 1027 : 			m_dwKeyReserveTime = dwCurTime + dwKeyReserve + dwPreDelay;

  002c9	03 45 cc	 add	 eax, DWORD PTR _dwPreDelay$608441[ebp]
  002cc	03 45 b8	 add	 eax, DWORD PTR _dwCurTime$[ebp]
  002cf	89 86 f8 0e 00
	00		 mov	 DWORD PTR [esi+3832], eax
$LN1@ChangeToFi:

; 1031 : 	m_RunState = RS_NONE;
; 1032 : 	pOwner->SetCharCollisionSkipTime( 0, 0 );

  002d5	8b 4d d8	 mov	 ecx, DWORD PTR _pOwner$GSCopy$[ebp]
  002d8	53		 push	 ebx
  002d9	53		 push	 ebx
  002da	53		 push	 ebx
  002db	c7 86 54 19 00
	00 04 00 00 00	 mov	 DWORD PTR [esi+6484], 4
  002e5	89 9e 58 19 00
	00		 mov	 DWORD PTR [esi+6488], ebx
  002eb	e8 00 00 00 00	 call	 ?SetCharCollisionSkipTime@ioBaseChar@@QAEXKK_N@Z ; ioBaseChar::SetCharCollisionSkipTime
$LN5@ChangeToFi:

; 1033 : }

  002f0	e8 00 00 00 00	 call	 __EH_epilog3_GS
  002f5	c2 04 00	 ret	 4
_TEXT	ENDS
;	COMDAT text$x
text$x	SEGMENT
__unwindfunclet$?ChangeToFinishAttack@ioRunChargeItem2@@IAEXPAVioBaseChar@@@Z$0:
  00000	8d 4d a8	 lea	 ecx, DWORD PTR $T616995[ebp]
  00003	ff 25 00 00 00
	00		 jmp	 DWORD PTR __imp_??1ioHashString@@QAE@XZ
__ehhandler$?ChangeToFinishAttack@ioRunChargeItem2@@IAEXPAVioBaseChar@@@Z:
  00009	8b 54 24 08	 mov	 edx, DWORD PTR [esp+8]
  0000d	8d 42 0c	 lea	 eax, DWORD PTR [edx+12]
  00010	8b 4a a4	 mov	 ecx, DWORD PTR [edx-92]
  00013	33 c8		 xor	 ecx, eax
  00015	e8 00 00 00 00	 call	 @__security_check_cookie@4
  0001a	8b 4a fc	 mov	 ecx, DWORD PTR [edx-4]
  0001d	33 c8		 xor	 ecx, eax
  0001f	e8 00 00 00 00	 call	 @__security_check_cookie@4
  00024	b8 00 00 00 00	 mov	 eax, OFFSET __ehfuncinfo$?ChangeToFinishAttack@ioRunChargeItem2@@IAEXPAVioBaseChar@@@Z
  00029	e9 00 00 00 00	 jmp	 ___CxxFrameHandler3
text$x	ENDS
?ChangeToFinishAttack@ioRunChargeItem2@@IAEXPAVioBaseChar@@@Z ENDP ; ioRunChargeItem2::ChangeToFinishAttack
PUBLIC	__real@bfef5c2900000000
PUBLIC	__real@4066800000000000
PUBLIC	__real@4046800000000000
PUBLIC	_pOwner$GSCopy$
PUBLIC	__$ArrayPad$
PUBLIC	?ProcessRotate@ioRunChargeItem2@@IAEXPAVioBaseChar@@@Z ; ioRunChargeItem2::ProcessRotate
EXTRN	__imp_?CalcDirectionQuaternion@ioMath@@SAXAAUD3DXQUATERNION@@ABUD3DXVECTOR3@@@Z:PROC
EXTRN	_D3DXQuaternionRotationAxis@12:PROC
EXTRN	__imp_?UNIT_Y@ioMath@@2UD3DXVECTOR3@@A:BYTE
EXTRN	_D3DXVec3Normalize@8:PROC
EXTRN	__imp_??D@YA?AUD3DXVECTOR3@@ABUD3DXQUATERNION@@ABU0@@Z:PROC
EXTRN	__imp_?AngleGap@ioMath@@SAMMM@Z:PROC
EXTRN	__imp_?QuaterToYaw@ioMath@@SAMABUD3DXQUATERNION@@@Z:PROC
EXTRN	_D3DXQuaternionRotationYawPitchRoll@16:PROC
EXTRN	__imp_?ArrangeHead@ioMath@@SAMM@Z:PROC
EXTRN	__imp_?GetCurFrameGap@ioFrameTimer@@QBEMXZ:PROC
;	COMDAT __real@bfef5c2900000000
; File c:\program files (x86)\microsoft directx sdk (june 2010)\include\d3dx9math.inl
CONST	SEGMENT
__real@bfef5c2900000000 DQ 0bfef5c2900000000r	; -0.98
CONST	ENDS
;	COMDAT __real@4066800000000000
CONST	SEGMENT
__real@4066800000000000 DQ 04066800000000000r	; 180
CONST	ENDS
;	COMDAT __real@4046800000000000
CONST	SEGMENT
__real@4046800000000000 DQ 04046800000000000r	; 45
; Function compile flags: /Ogsp
; File d:\lost saga for developer\youtube\tutorial\source\src\lsclient\iorunchargeitem2.cpp
CONST	ENDS
;	COMDAT ?ProcessRotate@ioRunChargeItem2@@IAEXPAVioBaseChar@@@Z
_TEXT	SEGMENT
_qtCurRot$ = -116					; size = 16
_qtRotate$ = -100					; size = 16
_qtAngle$ = -84						; size = 16
_fTargetYaw$ = -68					; size = 4
_pOwner$GSCopy$ = -64					; size = 4
tv484 = -60						; size = 4
tv144 = -60						; size = 4
_value$617139 = -60					; size = 4
_fCurYaw$ = -60						; size = 4
_fYawR$ = -60						; size = 4
tv574 = -56						; size = 4
tv572 = -56						; size = 4
tv568 = -56						; size = 4
_value$617134 = -56					; size = 4
_fRotateAngle$ = -56					; size = 4
_fFrameGap$ = -56					; size = 4
_vAxis$ = -52						; size = 12
_v$617184 = -40						; size = 12
$T608508 = -40						; size = 12
$T608507 = -40						; size = 12
$T608500 = -40						; size = 12
_vTargetDir$ = -28					; size = 12
_vDir$ = -16						; size = 12
__$ArrayPad$ = -4					; size = 4
_pOwner$ = 8						; size = 4
?ProcessRotate@ioRunChargeItem2@@IAEXPAVioBaseChar@@@Z PROC ; ioRunChargeItem2::ProcessRotate, COMDAT
; _this$ = ecx

; 1077 : {

  00000	55		 push	 ebp
  00001	8b ec		 mov	 ebp, esp
  00003	83 ec 74	 sub	 esp, 116		; 00000074H
  00006	a1 00 00 00 00	 mov	 eax, DWORD PTR ___security_cookie
  0000b	33 c5		 xor	 eax, ebp
  0000d	89 45 fc	 mov	 DWORD PTR __$ArrayPad$[ebp], eax
  00010	53		 push	 ebx
  00011	56		 push	 esi
  00012	8b 75 08	 mov	 esi, DWORD PTR _pOwner$[ebp]
  00015	8b d9		 mov	 ebx, ecx

; 1108 : 	{
; 1109 : 		m_bTargetRot = true;

  00017	89 75 c0	 mov	 DWORD PTR _pOwner$GSCopy$[ebp], esi
  0001a	85 f6		 test	 esi, esi
  0001c	0f 84 7a 03 00
	00		 je	 $LN8@ProcessRot

; 1078 : 	if( !pOwner ) return;
; 1079 : 	if( m_dwRotateTime <= 0 ) return;

  00022	57		 push	 edi
  00023	8d 45 c8	 lea	 eax, DWORD PTR _value$617134[ebp]
  00026	50		 push	 eax
  00027	8d 8b cc 1a 00
	00		 lea	 ecx, DWORD PTR [ebx+6860]
  0002d	e8 00 00 00 00	 call	 ?DecryptValueToPool@?$CEncrypt@K@@QAEXPAK@Z ; CEncrypt<unsigned long>::DecryptValueToPool
  00032	83 7d c8 00	 cmp	 DWORD PTR _value$617134[ebp], 0
  00036	0f 86 5f 03 00
	00		 jbe	 $LN50@ProcessRot

; 1080 : 	if( m_bTargetRot ) return;

  0003c	80 bb c0 1a 00
	00 00		 cmp	 BYTE PTR [ebx+6848], 0
  00043	0f 85 52 03 00
	00		 jne	 $LN50@ProcessRot

; 1081 : 
; 1082 : 	if( m_CurDirKey == ioUserKeyInput::DKI_NONE )

  00049	83 bb c8 1a 00
	00 00		 cmp	 DWORD PTR [ebx+6856], 0
  00050	0f 84 45 03 00
	00		 je	 $LN50@ProcessRot

; 1083 : 		return;
; 1084 : 
; 1085 : 	float fFrameGap = g_FrameTimer.GetCurFrameGap();

  00056	ff 15 00 00 00
	00		 call	 DWORD PTR __imp_?GetSingleton@ioFrameTimer@@SAAAV1@XZ
  0005c	8b c8		 mov	 ecx, eax
  0005e	ff 15 00 00 00
	00		 call	 DWORD PTR __imp_?GetCurFrameGap@ioFrameTimer@@QBEMXZ
  00064	d9 5d c8	 fstp	 DWORD PTR _fFrameGap$[ebp]

; 1086 : 	float fRate = fFrameGap / m_dwRotateTime;

  00067	8d 45 c4	 lea	 eax, DWORD PTR _value$617139[ebp]
  0006a	50		 push	 eax
  0006b	8d 8b cc 1a 00
	00		 lea	 ecx, DWORD PTR [ebx+6860]
  00071	e8 00 00 00 00	 call	 ?DecryptValueToPool@?$CEncrypt@K@@QAEXPAK@Z ; CEncrypt<unsigned long>::DecryptValueToPool

; 1087 : 	float fRotateAngle = FLOAT360 * fRate;

  00076	b8 68 01 00 00	 mov	 eax, 360		; 00000168H
  0007b	d9 45 c8	 fld	 DWORD PTR _fFrameGap$[ebp]
  0007e	8b 4d c4	 mov	 ecx, DWORD PTR _value$617139[ebp]
  00081	db 45 c4	 fild	 DWORD PTR _value$617139[ebp]
  00084	85 c9		 test	 ecx, ecx
  00086	79 06		 jns	 SHORT $LN51@ProcessRot
  00088	d8 05 00 00 00
	00		 fadd	 DWORD PTR __real@4f800000
$LN51@ProcessRot:

; 1086 : 	float fRate = fFrameGap / m_dwRotateTime;

  0008e	de f9		 fdivp	 ST(1), ST(0)

; 1087 : 	float fRotateAngle = FLOAT360 * fRate;

  00090	d9 5d c8	 fstp	 DWORD PTR tv572[ebp]
  00093	d9 45 c8	 fld	 DWORD PTR tv572[ebp]
  00096	89 45 c8	 mov	 DWORD PTR tv568[ebp], eax
  00099	db 45 c8	 fild	 DWORD PTR tv568[ebp]
  0009c	85 c0		 test	 eax, eax
  0009e	79 06		 jns	 SHORT $LN52@ProcessRot
  000a0	d8 05 00 00 00
	00		 fadd	 DWORD PTR __real@4f800000
$LN52@ProcessRot:

; 1088 : 
; 1089 : 	// 목표에 도달체크 및 처리
; 1090 : 	float fYawD = 180.0f + 45.0f * ( m_CurDirKey - ioUserKeyInput::DKI_UP );

  000a6	8b 83 c8 1a 00
	00		 mov	 eax, DWORD PTR [ebx+6856]
  000ac	de c9		 fmulp	 ST(1), ST(0)
  000ae	0f 57 c0	 xorps	 xmm0, xmm0
  000b1	48		 dec	 eax
  000b2	f3 0f 2a c0	 cvtsi2ss xmm0, eax
  000b6	d9 5d c8	 fstp	 DWORD PTR _fRotateAngle$[ebp]
  000b9	0f 5a c0	 cvtps2pd xmm0, xmm0
  000bc	f2 0f 59 05 00
	00 00 00	 mulsd	 xmm0, QWORD PTR __real@4046800000000000
  000c4	f2 0f 58 05 00
	00 00 00	 addsd	 xmm0, QWORD PTR __real@4066800000000000

; 1091 : 	fYawD = ioMath::ArrangeHead( fYawD );

  000cc	51		 push	 ecx
  000cd	66 0f 5a c0	 cvtpd2ps xmm0, xmm0
  000d1	f3 0f 11 04 24	 movss	 DWORD PTR [esp], xmm0
  000d6	ff 15 00 00 00
	00		 call	 DWORD PTR __imp_?ArrangeHead@ioMath@@SAMM@Z

; 1092 : 
; 1093 : 	float fYawR = DEGtoRAD( fYawD );

  000dc	dc 0d 00 00 00
	00		 fmul	 QWORD PTR __real@3f91df46a2526c7a

; 1094 : 	D3DXQUATERNION qtRotate;
; 1095 : 	D3DXQuaternionRotationYawPitchRoll( &qtRotate, fYawR, 0.0f, 0.0f );

  000e2	0f 57 c0	 xorps	 xmm0, xmm0
  000e5	f3 0f 11 04 24	 movss	 DWORD PTR [esp], xmm0
  000ea	51		 push	 ecx
  000eb	d9 5d c4	 fstp	 DWORD PTR _fYawR$[ebp]
  000ee	51		 push	 ecx
  000ef	f3 0f 11 44 24
	04		 movss	 DWORD PTR [esp+4], xmm0
  000f5	f3 0f 10 45 c4	 movss	 xmm0, DWORD PTR _fYawR$[ebp]
  000fa	8d 45 9c	 lea	 eax, DWORD PTR _qtRotate$[ebp]
  000fd	f3 0f 11 04 24	 movss	 DWORD PTR [esp], xmm0
  00102	50		 push	 eax
  00103	e8 00 00 00 00	 call	 _D3DXQuaternionRotationYawPitchRoll@16

; 1096 : 
; 1097 : 	D3DXQUATERNION qtCurRot = pOwner->GetTargetRot();

  00108	81 c6 a4 06 00
	00		 add	 esi, 1700		; 000006a4H
  0010e	8d 7d 8c	 lea	 edi, DWORD PTR _qtCurRot$[ebp]
  00111	a5		 movsd
  00112	a5		 movsd
  00113	a5		 movsd

; 1098 : 
; 1099 : 	float fCurYaw, fTargetYaw;
; 1100 : 	fCurYaw = RADtoDEG( ioMath::QuaterToYaw( qtCurRot ) );

  00114	8d 45 8c	 lea	 eax, DWORD PTR _qtCurRot$[ebp]
  00117	50		 push	 eax
  00118	a5		 movsd
  00119	ff 15 00 00 00
	00		 call	 DWORD PTR __imp_?QuaterToYaw@ioMath@@SAMABUD3DXQUATERNION@@@Z
  0011f	d9 1c 24	 fstp	 DWORD PTR [esp]
  00122	e8 00 00 00 00	 call	 ??$RADtoDEG@M@@YAMM@Z	; RADtoDEG<float>

; 1101 : 	fTargetYaw = RADtoDEG( ioMath::QuaterToYaw( qtRotate ) );

  00127	8d 45 9c	 lea	 eax, DWORD PTR _qtRotate$[ebp]
  0012a	d9 5d c4	 fstp	 DWORD PTR _fCurYaw$[ebp]
  0012d	50		 push	 eax
  0012e	ff 15 00 00 00
	00		 call	 DWORD PTR __imp_?QuaterToYaw@ioMath@@SAMABUD3DXQUATERNION@@@Z
  00134	59		 pop	 ecx
  00135	d9 1c 24	 fstp	 DWORD PTR [esp]
  00138	e8 00 00 00 00	 call	 ??$RADtoDEG@M@@YAMM@Z	; RADtoDEG<float>

; 1102 : 
; 1103 : 	fCurYaw = ioMath::ArrangeHead( fCurYaw );

  0013d	f3 0f 10 45 c4	 movss	 xmm0, DWORD PTR _fCurYaw$[ebp]
  00142	d9 5d bc	 fstp	 DWORD PTR _fTargetYaw$[ebp]
  00145	f3 0f 11 04 24	 movss	 DWORD PTR [esp], xmm0
  0014a	ff 15 00 00 00
	00		 call	 DWORD PTR __imp_?ArrangeHead@ioMath@@SAMM@Z
  00150	d9 5d c4	 fstp	 DWORD PTR _fCurYaw$[ebp]

; 1104 : 	fTargetYaw = ioMath::ArrangeHead( fTargetYaw );

  00153	f3 0f 10 45 bc	 movss	 xmm0, DWORD PTR _fTargetYaw$[ebp]
  00158	f3 0f 11 04 24	 movss	 DWORD PTR [esp], xmm0
  0015d	ff 15 00 00 00
	00		 call	 DWORD PTR __imp_?ArrangeHead@ioMath@@SAMM@Z
  00163	d9 5d bc	 fstp	 DWORD PTR _fTargetYaw$[ebp]

; 1105 : 
; 1106 : 	float fGapRotAngle = ioMath::AngleGap( fCurYaw, fTargetYaw );

  00166	f3 0f 10 45 bc	 movss	 xmm0, DWORD PTR _fTargetYaw$[ebp]
  0016b	f3 0f 11 04 24	 movss	 DWORD PTR [esp], xmm0
  00170	f3 0f 10 45 c4	 movss	 xmm0, DWORD PTR _fCurYaw$[ebp]
  00175	51		 push	 ecx
  00176	f3 0f 11 04 24	 movss	 DWORD PTR [esp], xmm0
  0017b	ff 15 00 00 00
	00		 call	 DWORD PTR __imp_?AngleGap@ioMath@@SAMMM@Z

; 1107 : 	if( fabs( fGapRotAngle ) < fRotateAngle )

  00181	d9 e1		 fabs
  00183	d9 5d c4	 fstp	 DWORD PTR tv484[ebp]
  00186	59		 pop	 ecx
  00187	d9 45 c4	 fld	 DWORD PTR tv484[ebp]
  0018a	59		 pop	 ecx
  0018b	d9 45 c8	 fld	 DWORD PTR _fRotateAngle$[ebp]
  0018e	df f1		 fcomip	 ST(1)
  00190	dd d8		 fstp	 ST(0)
  00192	76 0f		 jbe	 SHORT $LN3@ProcessRot

; 1108 : 	{
; 1109 : 		m_bTargetRot = true;

  00194	c6 83 c0 1a 00
	00 01		 mov	 BYTE PTR [ebx+6848], 1

; 1110 : 		pOwner->SetTargetRotToRotate( qtRotate, true, false );

  0019b	8d 45 9c	 lea	 eax, DWORD PTR _qtRotate$[ebp]

; 1111 : 		return;

  0019e	e9 eb 01 00 00	 jmp	 $LN54@ProcessRot
$LN3@ProcessRot:

; 1112 : 	}
; 1113 : 
; 1114 : 	D3DXVECTOR3 vDir = pOwner->GetMoveDir();

  001a3	8b 75 c0	 mov	 esi, DWORD PTR _pOwner$GSCopy$[ebp]
  001a6	81 c6 b4 06 00
	00		 add	 esi, 1716		; 000006b4H
  001ac	8d 7d f0	 lea	 edi, DWORD PTR _vDir$[ebp]
  001af	a5		 movsd
  001b0	a5		 movsd
  001b1	a5		 movsd

; 1115 : 	D3DXVECTOR3 vTargetDir = qtRotate * D3DXVECTOR3( 0.0f, 0.0f, -FLOAT1 );

  001b2	b8 01 00 00 00	 mov	 eax, 1
  001b7	0f 57 c0	 xorps	 xmm0, xmm0
  001ba	89 45 c4	 mov	 DWORD PTR tv144[ebp], eax
  001bd	db 45 c4	 fild	 DWORD PTR tv144[ebp]
  001c0	f3 0f 11 45 d8	 movss	 DWORD PTR $T608500[ebp], xmm0
  001c5	f3 0f 11 45 dc	 movss	 DWORD PTR $T608500[ebp+4], xmm0
  001ca	85 c0		 test	 eax, eax
  001cc	79 06		 jns	 SHORT $LN53@ProcessRot
  001ce	d8 05 00 00 00
	00		 fadd	 DWORD PTR __real@4f800000
$LN53@ProcessRot:
  001d4	8b 1d 00 00 00
	00		 mov	 ebx, DWORD PTR __imp_??D@YA?AUD3DXVECTOR3@@ABUD3DXQUATERNION@@ABU0@@Z
  001da	d9 e0		 fchs
  001dc	8d 45 d8	 lea	 eax, DWORD PTR $T608500[ebp]
  001df	d9 5d e0	 fstp	 DWORD PTR $T608500[ebp+8]
  001e2	50		 push	 eax
  001e3	8d 45 9c	 lea	 eax, DWORD PTR _qtRotate$[ebp]
  001e6	50		 push	 eax
  001e7	8d 45 e4	 lea	 eax, DWORD PTR _vTargetDir$[ebp]
  001ea	50		 push	 eax
  001eb	ff d3		 call	 ebx
  001ed	83 c4 0c	 add	 esp, 12			; 0000000cH

; 1116 : 	D3DXVec3Normalize( &vTargetDir, &vTargetDir );

  001f0	8d 45 e4	 lea	 eax, DWORD PTR _vTargetDir$[ebp]
  001f3	50		 push	 eax
  001f4	50		 push	 eax
  001f5	e8 00 00 00 00	 call	 _D3DXVec3Normalize@8

; 1117 : 
; 1118 : 	D3DXVECTOR3 vAxis;
; 1119 : 	D3DXVec3Cross( &vAxis, &vDir, &vTargetDir );

  001fa	f3 0f 10 45 ec	 movss	 xmm0, DWORD PTR _vTargetDir$[ebp+8]
  001ff	f3 0f 10 4d f4	 movss	 xmm1, DWORD PTR _vDir$[ebp+4]
  00204	f3 0f 10 55 f8	 movss	 xmm2, DWORD PTR _vDir$[ebp+8]
  00209	0f 5a c9	 cvtps2pd xmm1, xmm1
  0020c	0f 5a c0	 cvtps2pd xmm0, xmm0
  0020f	f2 0f 59 c1	 mulsd	 xmm0, xmm1
  00213	f3 0f 10 4d e8	 movss	 xmm1, DWORD PTR _vTargetDir$[ebp+4]
  00218	0f 5a c9	 cvtps2pd xmm1, xmm1
  0021b	0f 5a d2	 cvtps2pd xmm2, xmm2
  0021e	f2 0f 59 ca	 mulsd	 xmm1, xmm2
  00222	f3 0f 10 55 f0	 movss	 xmm2, DWORD PTR _vDir$[ebp]
  00227	f2 0f 5c c1	 subsd	 xmm0, xmm1
  0022b	f3 0f 10 4d e4	 movss	 xmm1, DWORD PTR _vTargetDir$[ebp]
  00230	f2 0f 5a c0	 cvtsd2ss xmm0, xmm0
  00234	f3 0f 11 45 d8	 movss	 DWORD PTR _v$617184[ebp], xmm0
  00239	f3 0f 10 45 f8	 movss	 xmm0, DWORD PTR _vDir$[ebp+8]
  0023e	0f 5a c9	 cvtps2pd xmm1, xmm1
  00241	0f 5a c0	 cvtps2pd xmm0, xmm0
  00244	f2 0f 59 c1	 mulsd	 xmm0, xmm1
  00248	f3 0f 10 4d ec	 movss	 xmm1, DWORD PTR _vTargetDir$[ebp+8]
  0024d	0f 5a c9	 cvtps2pd xmm1, xmm1
  00250	0f 5a d2	 cvtps2pd xmm2, xmm2
  00253	f2 0f 59 ca	 mulsd	 xmm1, xmm2
  00257	f3 0f 10 55 e4	 movss	 xmm2, DWORD PTR _vTargetDir$[ebp]
  0025c	f2 0f 5c c1	 subsd	 xmm0, xmm1
  00260	f3 0f 10 4d f0	 movss	 xmm1, DWORD PTR _vDir$[ebp]
  00265	f2 0f 5a c0	 cvtsd2ss xmm0, xmm0
  00269	f3 0f 11 45 dc	 movss	 DWORD PTR _v$617184[ebp+4], xmm0
  0026e	f3 0f 10 45 e8	 movss	 xmm0, DWORD PTR _vTargetDir$[ebp+4]
  00273	0f 5a c9	 cvtps2pd xmm1, xmm1
  00276	0f 5a c0	 cvtps2pd xmm0, xmm0
  00279	f2 0f 59 c1	 mulsd	 xmm0, xmm1
  0027d	f3 0f 10 4d f4	 movss	 xmm1, DWORD PTR _vDir$[ebp+4]
  00282	0f 5a c9	 cvtps2pd xmm1, xmm1
  00285	0f 5a d2	 cvtps2pd xmm2, xmm2
  00288	f2 0f 59 ca	 mulsd	 xmm1, xmm2
  0028c	f2 0f 5c c1	 subsd	 xmm0, xmm1
  00290	f2 0f 5a c0	 cvtsd2ss xmm0, xmm0
  00294	f3 0f 11 45 e0	 movss	 DWORD PTR _v$617184[ebp+8], xmm0
  00299	8d 75 d8	 lea	 esi, DWORD PTR _v$617184[ebp]
  0029c	8d 7d cc	 lea	 edi, DWORD PTR _vAxis$[ebp]
  0029f	a5		 movsd

; 1120 : 	D3DXVec3Normalize( &vAxis, &vAxis );

  002a0	8d 45 cc	 lea	 eax, DWORD PTR _vAxis$[ebp]
  002a3	a5		 movsd
  002a4	50		 push	 eax
  002a5	50		 push	 eax
  002a6	a5		 movsd
  002a7	e8 00 00 00 00	 call	 _D3DXVec3Normalize@8

; 1121 : 
; 1122 : 	D3DXQUATERNION qtAngle;
; 1123 : 
; 1124 : 	float fDotValue = D3DXVec3Dot( &vDir, &vTargetDir );
; 1125 : 	if( fDotValue < -0.98f )

  002ac	f3 0f 10 45 e8	 movss	 xmm0, DWORD PTR _vTargetDir$[ebp+4]
  002b1	f3 0f 10 4d f4	 movss	 xmm1, DWORD PTR _vDir$[ebp+4]
  002b6	f3 0f 10 55 e4	 movss	 xmm2, DWORD PTR _vTargetDir$[ebp]
  002bb	0f 5a c9	 cvtps2pd xmm1, xmm1
  002be	0f 5a c0	 cvtps2pd xmm0, xmm0
  002c1	f2 0f 59 c1	 mulsd	 xmm0, xmm1
  002c5	f3 0f 10 4d f0	 movss	 xmm1, DWORD PTR _vDir$[ebp]
  002ca	0f 5a c9	 cvtps2pd xmm1, xmm1
  002cd	0f 5a d2	 cvtps2pd xmm2, xmm2
  002d0	f2 0f 59 ca	 mulsd	 xmm1, xmm2
  002d4	f3 0f 10 55 ec	 movss	 xmm2, DWORD PTR _vTargetDir$[ebp+8]
  002d9	f2 0f 58 c1	 addsd	 xmm0, xmm1
  002dd	f3 0f 10 4d f8	 movss	 xmm1, DWORD PTR _vDir$[ebp+8]
  002e2	0f 5a c9	 cvtps2pd xmm1, xmm1
  002e5	0f 5a d2	 cvtps2pd xmm2, xmm2
  002e8	f2 0f 59 ca	 mulsd	 xmm1, xmm2
  002ec	f2 0f 58 c1	 addsd	 xmm0, xmm1
  002f0	66 0f 5a c0	 cvtpd2ps xmm0, xmm0
  002f4	f2 0f 10 0d 00
	00 00 00	 movsd	 xmm1, QWORD PTR __real@bfef5c2900000000
  002fc	f3 0f 5a c0	 cvtss2sd xmm0, xmm0
  00300	66 0f 2f c8	 comisd	 xmm1, xmm0

; 1126 : 		D3DXQuaternionRotationAxis( &qtAngle, &ioMath::UNIT_Y, DEGtoRAD(fRotateAngle) );

  00304	f3 0f 10 45 c8	 movss	 xmm0, DWORD PTR _fRotateAngle$[ebp]
  00309	0f 5a c0	 cvtps2pd xmm0, xmm0
  0030c	f2 0f 59 05 00
	00 00 00	 mulsd	 xmm0, QWORD PTR __real@3f91df46a2526c7a
  00314	51		 push	 ecx
  00315	66 0f 5a c0	 cvtpd2ps xmm0, xmm0
  00319	f3 0f 11 04 24	 movss	 DWORD PTR [esp], xmm0
  0031e	76 08		 jbe	 SHORT $LN2@ProcessRot
  00320	ff 35 00 00 00
	00		 push	 DWORD PTR __imp_?UNIT_Y@ioMath@@2UD3DXVECTOR3@@A

; 1127 : 	else

  00326	eb 04		 jmp	 SHORT $LN55@ProcessRot
$LN2@ProcessRot:

; 1128 : 		D3DXQuaternionRotationAxis( &qtAngle, &vAxis, DEGtoRAD(fRotateAngle) );

  00328	8d 45 cc	 lea	 eax, DWORD PTR _vAxis$[ebp]
  0032b	50		 push	 eax
$LN55@ProcessRot:
  0032c	8d 45 ac	 lea	 eax, DWORD PTR _qtAngle$[ebp]
  0032f	50		 push	 eax
  00330	e8 00 00 00 00	 call	 _D3DXQuaternionRotationAxis@12

; 1129 : 
; 1130 : 	vDir = qtAngle * vDir;

  00335	8d 45 f0	 lea	 eax, DWORD PTR _vDir$[ebp]
  00338	50		 push	 eax
  00339	8d 45 ac	 lea	 eax, DWORD PTR _qtAngle$[ebp]
  0033c	50		 push	 eax
  0033d	8d 45 d8	 lea	 eax, DWORD PTR $T608507[ebp]
  00340	50		 push	 eax
  00341	ff d3		 call	 ebx

; 1131 : 	ioMath::CalcDirectionQuaternion( qtAngle, -vDir );

  00343	f3 0f 10 05 00
	00 00 00	 movss	 xmm0, DWORD PTR __mask@@NegFloat@
  0034b	8b f0		 mov	 esi, eax
  0034d	8d 7d f0	 lea	 edi, DWORD PTR _vDir$[ebp]
  00350	a5		 movsd
  00351	a5		 movsd
  00352	a5		 movsd
  00353	f3 0f 10 4d f0	 movss	 xmm1, DWORD PTR _vDir$[ebp]
  00358	0f 57 c8	 xorps	 xmm1, xmm0
  0035b	f3 0f 11 4d d8	 movss	 DWORD PTR $T608508[ebp], xmm1
  00360	f3 0f 10 4d f4	 movss	 xmm1, DWORD PTR _vDir$[ebp+4]
  00365	0f 57 c8	 xorps	 xmm1, xmm0
  00368	8d 45 d8	 lea	 eax, DWORD PTR $T608508[ebp]
  0036b	50		 push	 eax
  0036c	f3 0f 11 4d dc	 movss	 DWORD PTR $T608508[ebp+4], xmm1
  00371	f3 0f 10 4d f8	 movss	 xmm1, DWORD PTR _vDir$[ebp+8]
  00376	8d 45 ac	 lea	 eax, DWORD PTR _qtAngle$[ebp]
  00379	0f 57 c8	 xorps	 xmm1, xmm0
  0037c	50		 push	 eax
  0037d	f3 0f 11 4d e0	 movss	 DWORD PTR $T608508[ebp+8], xmm1
  00382	ff 15 00 00 00
	00		 call	 DWORD PTR __imp_?CalcDirectionQuaternion@ioMath@@SAXAAUD3DXQUATERNION@@ABUD3DXVECTOR3@@@Z
  00388	83 c4 14	 add	 esp, 20			; 00000014H

; 1132 : 
; 1133 : 	pOwner->SetTargetRotToRotate( qtAngle, true, false );

  0038b	8d 45 ac	 lea	 eax, DWORD PTR _qtAngle$[ebp]
$LN54@ProcessRot:
  0038e	8b 4d c0	 mov	 ecx, DWORD PTR _pOwner$GSCopy$[ebp]
  00391	6a 00		 push	 0
  00393	6a 01		 push	 1
  00395	50		 push	 eax
  00396	e8 00 00 00 00	 call	 ?SetTargetRotToRotate@ioBaseChar@@QAEXABUD3DXQUATERNION@@_N1@Z ; ioBaseChar::SetTargetRotToRotate
$LN50@ProcessRot:
  0039b	5f		 pop	 edi
$LN8@ProcessRot:

; 1134 : }

  0039c	8b 4d fc	 mov	 ecx, DWORD PTR __$ArrayPad$[ebp]
  0039f	5e		 pop	 esi
  003a0	33 cd		 xor	 ecx, ebp
  003a2	5b		 pop	 ebx
  003a3	e8 00 00 00 00	 call	 @__security_check_cookie@4
  003a8	c9		 leave
  003a9	c2 04 00	 ret	 4
?ProcessRotate@ioRunChargeItem2@@IAEXPAVioBaseChar@@@Z ENDP ; ioRunChargeItem2::ProcessRotate
_TEXT	ENDS
PUBLIC	_this$GSCopy$
PUBLIC	__$ArrayPad$
PUBLIC	?CheckRetreat@ioRunChargeItem2@@IAE_NPAVioBaseChar@@_N@Z ; ioRunChargeItem2::CheckRetreat
; Function compile flags: /Ogsp
;	COMDAT ?CheckRetreat@ioRunChargeItem2@@IAE_NPAVioBaseChar@@_N@Z
_TEXT	SEGMENT
_qtRotate$ = -64					; size = 16
_this$GSCopy$ = -48					; size = 4
tv243 = -44						; size = 4
tv231 = -44						; size = 4
_fYawD$ = -44						; size = 4
_vSightDir$ = -40					; size = 12
$T608535 = -28						; size = 12
_vMoveDir$ = -16					; size = 12
__$ArrayPad$ = -4					; size = 4
_pOwner$ = 8						; size = 4
_bFront$ = 12						; size = 1
?CheckRetreat@ioRunChargeItem2@@IAE_NPAVioBaseChar@@_N@Z PROC ; ioRunChargeItem2::CheckRetreat, COMDAT
; _this$ = ecx

; 1172 : {

  00000	55		 push	 ebp
  00001	8b ec		 mov	 ebp, esp
  00003	83 ec 40	 sub	 esp, 64			; 00000040H
  00006	a1 00 00 00 00	 mov	 eax, DWORD PTR ___security_cookie
  0000b	33 c5		 xor	 eax, ebp
  0000d	89 45 fc	 mov	 DWORD PTR __$ArrayPad$[ebp], eax
  00010	53		 push	 ebx
  00011	8b 5d 08	 mov	 ebx, DWORD PTR _pOwner$[ebp]
  00014	56		 push	 esi
  00015	57		 push	 edi
  00016	89 4d d0	 mov	 DWORD PTR _this$GSCopy$[ebp], ecx

; 1173 : 	if( !pOwner ) return false;

  00019	85 db		 test	 ebx, ebx
  0001b	75 07		 jne	 SHORT $LN1@CheckRetre
  0001d	32 c0		 xor	 al, al
  0001f	e9 0b 01 00 00	 jmp	 $LN2@CheckRetre
$LN1@CheckRetre:

; 1174 : 
; 1175 : 	DWORD dwCurTime = FRAMEGETTIME();

  00024	ff 15 00 00 00
	00		 call	 DWORD PTR __imp_?GetSingleton@ioFrameTimer@@SAAAV1@XZ
  0002a	8b c8		 mov	 ecx, eax
  0002c	ff 15 00 00 00
	00		 call	 DWORD PTR __imp_?GetLoopSec@ioFrameTimer@@QBEKXZ

; 1176 : 
; 1177 : 	pOwner->SetAttackMoveEnable( false );

  00032	6a 00		 push	 0
  00034	8b cb		 mov	 ecx, ebx
  00036	e8 00 00 00 00	 call	 ?SetAttackMoveEnable@ioBaseChar@@QAEX_N@Z ; ioBaseChar::SetAttackMoveEnable

; 1178 : 	pOwner->SetChargingState( false );
; 1179 : 
; 1180 : 	ioEntityGroup *pGrp = pOwner->GetGroup();
; 1181 : 	int iAniID = 0;
; 1182 : 
; 1183 : 	// KeyDir
; 1184 : 	ioUserKeyInput::DirKeyInput eDir = pOwner->CheckCurDirKey();

  0003b	8b cb		 mov	 ecx, ebx
  0003d	c6 83 54 20 00
	00 00		 mov	 BYTE PTR [ebx+8276], 0
  00044	e8 00 00 00 00	 call	 ?CheckCurDirKey@ioBaseChar@@QAE?AW4DirKeyInput@ioUserKeyInput@@XZ ; ioBaseChar::CheckCurDirKey

; 1185 : 	float fYawD = 180.0f + 45.0f * ( eDir - ioUserKeyInput::DKI_UP );

  00049	0f 57 c0	 xorps	 xmm0, xmm0
  0004c	48		 dec	 eax
  0004d	f3 0f 2a c0	 cvtsi2ss xmm0, eax
  00051	0f 5a c0	 cvtps2pd xmm0, xmm0
  00054	f2 0f 59 05 00
	00 00 00	 mulsd	 xmm0, QWORD PTR __real@4046800000000000
  0005c	f2 0f 58 05 00
	00 00 00	 addsd	 xmm0, QWORD PTR __real@4066800000000000

; 1186 : 	fYawD = ioMath::ArrangeHead( fYawD );

  00064	51		 push	 ecx
  00065	66 0f 5a c0	 cvtpd2ps xmm0, xmm0
  00069	f3 0f 11 04 24	 movss	 DWORD PTR [esp], xmm0
  0006e	ff 15 00 00 00
	00		 call	 DWORD PTR __imp_?ArrangeHead@ioMath@@SAMM@Z
  00074	d9 5d d4	 fstp	 DWORD PTR _fYawD$[ebp]

; 1187 : 
; 1188 : 	D3DXQUATERNION qtRotate;
; 1189 : 	D3DXQuaternionRotationYawPitchRoll( &qtRotate, DEGtoRAD( fYawD ), 0.0f, 0.0f );

  00077	d9 45 d4	 fld	 DWORD PTR _fYawD$[ebp]
  0007a	0f 57 c0	 xorps	 xmm0, xmm0
  0007d	dc 0d 00 00 00
	00		 fmul	 QWORD PTR __real@3f91df46a2526c7a
  00083	f3 0f 11 04 24	 movss	 DWORD PTR [esp], xmm0
  00088	51		 push	 ecx
  00089	51		 push	 ecx
  0008a	d9 5d d4	 fstp	 DWORD PTR tv243[ebp]
  0008d	f3 0f 11 44 24
	04		 movss	 DWORD PTR [esp+4], xmm0
  00093	d9 45 d4	 fld	 DWORD PTR tv243[ebp]
  00096	8d 45 c0	 lea	 eax, DWORD PTR _qtRotate$[ebp]
  00099	d9 1c 24	 fstp	 DWORD PTR [esp]
  0009c	50		 push	 eax
  0009d	e8 00 00 00 00	 call	 _D3DXQuaternionRotationYawPitchRoll@16

; 1190 : 	D3DXVECTOR3 vSightDir = qtRotate * D3DXVECTOR3( 0.0f, 0.0f, -FLOAT1 );

  000a2	b8 01 00 00 00	 mov	 eax, 1
  000a7	0f 57 c0	 xorps	 xmm0, xmm0
  000aa	89 45 d4	 mov	 DWORD PTR tv231[ebp], eax
  000ad	db 45 d4	 fild	 DWORD PTR tv231[ebp]
  000b0	f3 0f 11 45 e4	 movss	 DWORD PTR $T608535[ebp], xmm0
  000b5	f3 0f 11 45 e8	 movss	 DWORD PTR $T608535[ebp+4], xmm0
  000ba	85 c0		 test	 eax, eax
  000bc	79 06		 jns	 SHORT $LN18@CheckRetre
  000be	d8 05 00 00 00
	00		 fadd	 DWORD PTR __real@4f800000
$LN18@CheckRetre:
  000c4	8d 45 e4	 lea	 eax, DWORD PTR $T608535[ebp]
  000c7	d9 e0		 fchs
  000c9	50		 push	 eax
  000ca	d9 5d ec	 fstp	 DWORD PTR $T608535[ebp+8]
  000cd	8d 45 c0	 lea	 eax, DWORD PTR _qtRotate$[ebp]
  000d0	50		 push	 eax
  000d1	8d 45 d8	 lea	 eax, DWORD PTR _vSightDir$[ebp]
  000d4	50		 push	 eax
  000d5	ff 15 00 00 00
	00		 call	 DWORD PTR __imp_??D@YA?AUD3DXVECTOR3@@ABUD3DXQUATERNION@@ABU0@@Z

; 1191 : 	D3DXVECTOR3 vMoveDir( vSightDir.x, 0.0f, vSightDir.z );

  000db	f3 0f 10 45 d8	 movss	 xmm0, DWORD PTR _vSightDir$[ebp]
  000e0	83 c4 0c	 add	 esp, 12			; 0000000cH

; 1192 : 	D3DXVec3Normalize( &vMoveDir, &vMoveDir );

  000e3	8d 45 f0	 lea	 eax, DWORD PTR _vMoveDir$[ebp]
  000e6	f3 0f 11 45 f0	 movss	 DWORD PTR _vMoveDir$[ebp], xmm0
  000eb	0f 57 c0	 xorps	 xmm0, xmm0
  000ee	50		 push	 eax
  000ef	f3 0f 11 45 f4	 movss	 DWORD PTR _vMoveDir$[ebp+4], xmm0
  000f4	f3 0f 10 45 e0	 movss	 xmm0, DWORD PTR _vSightDir$[ebp+8]
  000f9	50		 push	 eax
  000fa	f3 0f 11 45 f8	 movss	 DWORD PTR _vMoveDir$[ebp+8], xmm0
  000ff	e8 00 00 00 00	 call	 _D3DXVec3Normalize@8

; 1193 : 
; 1194 : 	ChangeToRetreatState( pOwner, m_szRetreatFr, m_fRetreatFrRate, vMoveDir );

  00104	83 ec 0c	 sub	 esp, 12			; 0000000cH
  00107	8b fc		 mov	 edi, esp
  00109	8d 75 f0	 lea	 esi, DWORD PTR _vMoveDir$[ebp]
  0010c	a5		 movsd
  0010d	a5		 movsd
  0010e	51		 push	 ecx
  0010f	8b 4d d0	 mov	 ecx, DWORD PTR _this$GSCopy$[ebp]
  00112	f3 0f 10 81 40
	1b 00 00	 movss	 xmm0, DWORD PTR [ecx+6976]
  0011a	a5		 movsd
  0011b	f3 0f 11 04 24	 movss	 DWORD PTR [esp], xmm0
  00120	8d 81 30 1b 00
	00		 lea	 eax, DWORD PTR [ecx+6960]
  00126	50		 push	 eax
  00127	53		 push	 ebx
  00128	e8 00 00 00 00	 call	 ?ChangeToRetreatState@ioRunChargeItem2@@IAEXPAVioBaseChar@@ABVioHashString@@MUD3DXVECTOR3@@@Z ; ioRunChargeItem2::ChangeToRetreatState

; 1195 : 
; 1196 : 	return true;

  0012d	b0 01		 mov	 al, 1
$LN2@CheckRetre:

; 1197 : }

  0012f	8b 4d fc	 mov	 ecx, DWORD PTR __$ArrayPad$[ebp]
  00132	5f		 pop	 edi
  00133	5e		 pop	 esi
  00134	33 cd		 xor	 ecx, ebp
  00136	5b		 pop	 ebx
  00137	e8 00 00 00 00	 call	 @__security_check_cookie@4
  0013c	c9		 leave
  0013d	c2 08 00	 ret	 8
?CheckRetreat@ioRunChargeItem2@@IAE_NPAVioBaseChar@@_N@Z ENDP ; ioRunChargeItem2::CheckRetreat
_TEXT	ENDS
PUBLIC	??0?$CEncrypt@K@@QAE@ABV0@@Z			; CEncrypt<unsigned long>::CEncrypt<unsigned long>
;	COMDAT xdata$x
; File d:\lost saga for developer\youtube\tutorial\source\src\lsclient\encryptvalue.h
xdata$x	SEGMENT
__unwindtable$??0?$CEncrypt@K@@QAE@ABV0@@Z DD 0ffffffffH
	DD	FLAT:__unwindfunclet$??0?$CEncrypt@K@@QAE@ABV0@@Z$0
__ehfuncinfo$??0?$CEncrypt@K@@QAE@ABV0@@Z DD 019930522H
	DD	01H
	DD	FLAT:__unwindtable$??0?$CEncrypt@K@@QAE@ABV0@@Z
	DD	2 DUP(00H)
	DD	2 DUP(00H)
	DD	00H
	DD	01H
; Function compile flags: /Ogsp
xdata$x	ENDS
;	COMDAT ??0?$CEncrypt@K@@QAE@ABV0@@Z
_TEXT	SEGMENT
_this$ = -16						; size = 4
__$EHRec$ = -12						; size = 12
_value$617262 = 8					; size = 4
_value$617257 = 8					; size = 4
_inValue$ = 8						; size = 4
??0?$CEncrypt@K@@QAE@ABV0@@Z PROC			; CEncrypt<unsigned long>::CEncrypt<unsigned long>, COMDAT
; _this$ = ecx

; 120  : 	CEncrypt( const CEncrypt<type> &inValue )   // 선언과 동시에 값을 대입하기 위해서

  00000	6a 04		 push	 4
  00002	b8 00 00 00 00	 mov	 eax, __ehhandler$??0?$CEncrypt@K@@QAE@ABV0@@Z
  00007	e8 00 00 00 00	 call	 __EH_prolog3
  0000c	8b f1		 mov	 esi, ecx
  0000e	89 75 f0	 mov	 DWORD PTR _this$[ebp], esi
  00011	8d 4e 0c	 lea	 ecx, DWORD PTR [esi+12]
  00014	c7 06 00 00 00
	00		 mov	 DWORD PTR [esi], OFFSET ??_7?$CEncrypt@K@@6B@
  0001a	e8 00 00 00 00	 call	 ??0ccddaabb@@QAE@XZ	; ccddaabb::ccddaabb
  0001f	83 65 fc 00	 and	 DWORD PTR __$EHRec$[ebp+8], 0

; 121  : 	{
; 122  : 		Init();

  00023	8b ce		 mov	 ecx, esi
  00025	e8 00 00 00 00	 call	 ?Init@?$CEncrypt@K@@AAEXXZ ; CEncrypt<unsigned long>::Init

; 123  : 		*this = inValue;

  0002a	8b 4d 08	 mov	 ecx, DWORD PTR _inValue$[ebp]
  0002d	8d 45 08	 lea	 eax, DWORD PTR _value$617257[ebp]
  00030	50		 push	 eax
  00031	e8 00 00 00 00	 call	 ?DecryptValueToPool@?$CEncrypt@K@@QAEXPAK@Z ; CEncrypt<unsigned long>::DecryptValueToPool
  00036	8b 45 08	 mov	 eax, DWORD PTR _value$617257[ebp]
  00039	89 45 08	 mov	 DWORD PTR _value$617262[ebp], eax
  0003c	8d 45 08	 lea	 eax, DWORD PTR _value$617262[ebp]
  0003f	50		 push	 eax
  00040	8b ce		 mov	 ecx, esi
  00042	e8 00 00 00 00	 call	 ?EncryptValueToPool@?$CEncrypt@K@@AAEXPBD@Z ; CEncrypt<unsigned long>::EncryptValueToPool

; 124  : 	}

  00047	8b c6		 mov	 eax, esi
  00049	e8 00 00 00 00	 call	 __EH_epilog3
  0004e	c2 04 00	 ret	 4
_TEXT	ENDS
;	COMDAT text$x
text$x	SEGMENT
__unwindfunclet$??0?$CEncrypt@K@@QAE@ABV0@@Z$0:
  00000	8b 4d f0	 mov	 ecx, DWORD PTR _this$[ebp]
  00003	83 c1 0c	 add	 ecx, 12			; 0000000cH
  00006	e9 00 00 00 00	 jmp	 ??1ccddaabb@@UAE@XZ	; ccddaabb::~ccddaabb
__ehhandler$??0?$CEncrypt@K@@QAE@ABV0@@Z:
  0000b	8b 54 24 08	 mov	 edx, DWORD PTR [esp+8]
  0000f	8d 42 0c	 lea	 eax, DWORD PTR [edx+12]
  00012	8b 4a ec	 mov	 ecx, DWORD PTR [edx-20]
  00015	33 c8		 xor	 ecx, eax
  00017	e8 00 00 00 00	 call	 @__security_check_cookie@4
  0001c	b8 00 00 00 00	 mov	 eax, OFFSET __ehfuncinfo$??0?$CEncrypt@K@@QAE@ABV0@@Z
  00021	e9 00 00 00 00	 jmp	 ___CxxFrameHandler3
text$x	ENDS
??0?$CEncrypt@K@@QAE@ABV0@@Z ENDP			; CEncrypt<unsigned long>::CEncrypt<unsigned long>
PUBLIC	??0?$CEncrypt@_N@@QAE@ABV0@@Z			; CEncrypt<bool>::CEncrypt<bool>
;	COMDAT xdata$x
xdata$x	SEGMENT
__unwindtable$??0?$CEncrypt@_N@@QAE@ABV0@@Z DD 0ffffffffH
	DD	FLAT:__unwindfunclet$??0?$CEncrypt@_N@@QAE@ABV0@@Z$0
__ehfuncinfo$??0?$CEncrypt@_N@@QAE@ABV0@@Z DD 019930522H
	DD	01H
	DD	FLAT:__unwindtable$??0?$CEncrypt@_N@@QAE@ABV0@@Z
	DD	2 DUP(00H)
	DD	2 DUP(00H)
	DD	00H
	DD	01H
; Function compile flags: /Ogsp
xdata$x	ENDS
;	COMDAT ??0?$CEncrypt@_N@@QAE@ABV0@@Z
_TEXT	SEGMENT
_this$ = -16						; size = 4
__$EHRec$ = -12						; size = 12
_inValue$ = 8						; size = 4
_value$617281 = 11					; size = 1
_value$617276 = 11					; size = 1
??0?$CEncrypt@_N@@QAE@ABV0@@Z PROC			; CEncrypt<bool>::CEncrypt<bool>, COMDAT
; _this$ = ecx

; 120  : 	CEncrypt( const CEncrypt<type> &inValue )   // 선언과 동시에 값을 대입하기 위해서

  00000	6a 04		 push	 4
  00002	b8 00 00 00 00	 mov	 eax, __ehhandler$??0?$CEncrypt@_N@@QAE@ABV0@@Z
  00007	e8 00 00 00 00	 call	 __EH_prolog3
  0000c	8b f1		 mov	 esi, ecx
  0000e	89 75 f0	 mov	 DWORD PTR _this$[ebp], esi
  00011	8d 4e 0c	 lea	 ecx, DWORD PTR [esi+12]
  00014	c7 06 00 00 00
	00		 mov	 DWORD PTR [esi], OFFSET ??_7?$CEncrypt@_N@@6B@
  0001a	e8 00 00 00 00	 call	 ??0ccddaabb@@QAE@XZ	; ccddaabb::ccddaabb
  0001f	83 65 fc 00	 and	 DWORD PTR __$EHRec$[ebp+8], 0

; 121  : 	{
; 122  : 		Init();

  00023	8b ce		 mov	 ecx, esi
  00025	e8 00 00 00 00	 call	 ?Init@?$CEncrypt@_N@@AAEXXZ ; CEncrypt<bool>::Init

; 123  : 		*this = inValue;

  0002a	8b 4d 08	 mov	 ecx, DWORD PTR _inValue$[ebp]
  0002d	8d 45 0b	 lea	 eax, DWORD PTR _value$617276[ebp]
  00030	50		 push	 eax
  00031	e8 00 00 00 00	 call	 ?DecryptValueToPool@?$CEncrypt@_N@@QAEXPA_N@Z ; CEncrypt<bool>::DecryptValueToPool
  00036	8a 45 0b	 mov	 al, BYTE PTR _value$617276[ebp]
  00039	88 45 0b	 mov	 BYTE PTR _value$617281[ebp], al
  0003c	8d 45 0b	 lea	 eax, DWORD PTR _value$617281[ebp]
  0003f	50		 push	 eax
  00040	8b ce		 mov	 ecx, esi
  00042	e8 00 00 00 00	 call	 ?EncryptValueToPool@?$CEncrypt@_N@@AAEXPBD@Z ; CEncrypt<bool>::EncryptValueToPool

; 124  : 	}

  00047	8b c6		 mov	 eax, esi
  00049	e8 00 00 00 00	 call	 __EH_epilog3
  0004e	c2 04 00	 ret	 4
_TEXT	ENDS
;	COMDAT text$x
text$x	SEGMENT
__unwindfunclet$??0?$CEncrypt@_N@@QAE@ABV0@@Z$0:
  00000	8b 4d f0	 mov	 ecx, DWORD PTR _this$[ebp]
  00003	83 c1 0c	 add	 ecx, 12			; 0000000cH
  00006	e9 00 00 00 00	 jmp	 ??1ccddaabb@@UAE@XZ	; ccddaabb::~ccddaabb
__ehhandler$??0?$CEncrypt@_N@@QAE@ABV0@@Z:
  0000b	8b 54 24 08	 mov	 edx, DWORD PTR [esp+8]
  0000f	8d 42 0c	 lea	 eax, DWORD PTR [edx+12]
  00012	8b 4a ec	 mov	 ecx, DWORD PTR [edx-20]
  00015	33 c8		 xor	 ecx, eax
  00017	e8 00 00 00 00	 call	 @__security_check_cookie@4
  0001c	b8 00 00 00 00	 mov	 eax, OFFSET __ehfuncinfo$??0?$CEncrypt@_N@@QAE@ABV0@@Z
  00021	e9 00 00 00 00	 jmp	 ___CxxFrameHandler3
text$x	ENDS
??0?$CEncrypt@_N@@QAE@ABV0@@Z ENDP			; CEncrypt<bool>::CEncrypt<bool>
PUBLIC	??$_Cons_val@V?$allocator@UForceInfo@@@std@@UForceInfo@@ABU3@@std@@YAXAAV?$allocator@UForceInfo@@@0@PAUForceInfo@@ABU2@@Z ; std::_Cons_val<std::allocator<ForceInfo>,ForceInfo,ForceInfo const &>
; Function compile flags: /Ogsp
; File c:\program files (x86)\microsoft visual studio 10.0\vc\include\xmemory
;	COMDAT ??$_Cons_val@V?$allocator@UForceInfo@@@std@@UForceInfo@@ABU3@@std@@YAXAAV?$allocator@UForceInfo@@@0@PAUForceInfo@@ABU2@@Z
_TEXT	SEGMENT
__Alval$ = 8						; size = 4
__Pdest$ = 12						; size = 4
__Src$ = 16						; size = 4
??$_Cons_val@V?$allocator@UForceInfo@@@std@@UForceInfo@@ABU3@@std@@YAXAAV?$allocator@UForceInfo@@@0@PAUForceInfo@@ABU2@@Z PROC ; std::_Cons_val<std::allocator<ForceInfo>,ForceInfo,ForceInfo const &>, COMDAT

; 279  : 	{	// construct using allocator

  00000	55		 push	 ebp
  00001	8b ec		 mov	 ebp, esp
  00003	57		 push	 edi

; 280  : 	_Alval.construct(_Pdest, _STD forward<_Ty2>(_Src));

  00004	8b 7d 0c	 mov	 edi, DWORD PTR __Pdest$[ebp]
  00007	85 ff		 test	 edi, edi
  00009	74 08		 je	 SHORT $LN9@Cons_val
  0000b	56		 push	 esi
  0000c	8b 75 10	 mov	 esi, DWORD PTR __Src$[ebp]
  0000f	a5		 movsd
  00010	a5		 movsd
  00011	a5		 movsd
  00012	5e		 pop	 esi
$LN9@Cons_val:
  00013	5f		 pop	 edi

; 281  : 	}

  00014	5d		 pop	 ebp
  00015	c3		 ret	 0
??$_Cons_val@V?$allocator@UForceInfo@@@std@@UForceInfo@@ABU3@@std@@YAXAAV?$allocator@UForceInfo@@@0@PAUForceInfo@@ABU2@@Z ENDP ; std::_Cons_val<std::allocator<ForceInfo>,ForceInfo,ForceInfo const &>
_TEXT	ENDS
PUBLIC	?construct@?$allocator@UWeaponInfo@@@std@@QAEXPAUWeaponInfo@@ABU3@@Z ; std::allocator<WeaponInfo>::construct
; Function compile flags: /Ogsp
;	COMDAT ?construct@?$allocator@UWeaponInfo@@@std@@QAEXPAUWeaponInfo@@ABU3@@Z
_TEXT	SEGMENT
__Ptr$ = 8						; size = 4
__Val$ = 12						; size = 4
?construct@?$allocator@UWeaponInfo@@@std@@QAEXPAUWeaponInfo@@ABU3@@Z PROC ; std::allocator<WeaponInfo>::construct, COMDAT
; _this$ = ecx

; 196  : 		{	// construct object at _Ptr with value _Val

  00000	55		 push	 ebp
  00001	8b ec		 mov	 ebp, esp

; 197  : 		_Construct(_Ptr, _Val);

  00003	ff 75 0c	 push	 DWORD PTR __Val$[ebp]
  00006	ff 75 08	 push	 DWORD PTR __Ptr$[ebp]
  00009	e8 00 00 00 00	 call	 ??$_Construct@UWeaponInfo@@ABU1@@std@@YAXPAUWeaponInfo@@ABU1@@Z ; std::_Construct<WeaponInfo,WeaponInfo const &>
  0000e	59		 pop	 ecx
  0000f	59		 pop	 ecx

; 198  : 		}

  00010	5d		 pop	 ebp
  00011	c2 08 00	 ret	 8
?construct@?$allocator@UWeaponInfo@@@std@@QAEXPAUWeaponInfo@@ABU3@@Z ENDP ; std::allocator<WeaponInfo>::construct
_TEXT	ENDS
PUBLIC	?SetCollisionCancel@ioWeapon@@QAEX_N@Z		; ioWeapon::SetCollisionCancel
; Function compile flags: /Ogsp
; File d:\lost saga for developer\youtube\tutorial\source\src\lsclient\ioweapon.h
;	COMDAT ?SetCollisionCancel@ioWeapon@@QAEX_N@Z
_TEXT	SEGMENT
_bCancel$ = 8						; size = 1
_value$617337 = 11					; size = 1
?SetCollisionCancel@ioWeapon@@QAEX_N@Z PROC		; ioWeapon::SetCollisionCancel, COMDAT
; _this$ = ecx

; 550  : 	inline void SetCollisionCancel( bool bCancel ) { m_bCollisionCancel = bCancel; }

  00000	55		 push	 ebp
  00001	8b ec		 mov	 ebp, esp
  00003	8a 45 08	 mov	 al, BYTE PTR _bCancel$[ebp]
  00006	88 45 0b	 mov	 BYTE PTR _value$617337[ebp], al
  00009	8d 45 0b	 lea	 eax, DWORD PTR _value$617337[ebp]
  0000c	50		 push	 eax
  0000d	81 c1 70 06 00
	00		 add	 ecx, 1648		; 00000670H
  00013	e8 00 00 00 00	 call	 ?EncryptValueToPool@?$CEncrypt@_N@@AAEXPBD@Z ; CEncrypt<bool>::EncryptValueToPool
  00018	5d		 pop	 ebp
  00019	c2 04 00	 ret	 4
?SetCollisionCancel@ioWeapon@@QAEX_N@Z ENDP		; ioWeapon::SetCollisionCancel
_TEXT	ENDS
PUBLIC	??0?$vector@UWeaponInfo@@V?$allocator@UWeaponInfo@@@std@@@std@@QAE@XZ ; std::vector<WeaponInfo,std::allocator<WeaponInfo> >::vector<WeaponInfo,std::allocator<WeaponInfo> >
; Function compile flags: /Ogsp
; File c:\program files (x86)\microsoft visual studio 10.0\vc\include\vector
;	COMDAT ??0?$vector@UWeaponInfo@@V?$allocator@UWeaponInfo@@@std@@@std@@QAE@XZ
_TEXT	SEGMENT
??0?$vector@UWeaponInfo@@V?$allocator@UWeaponInfo@@@std@@@std@@QAE@XZ PROC ; std::vector<WeaponInfo,std::allocator<WeaponInfo> >::vector<WeaponInfo,std::allocator<WeaponInfo> >, COMDAT
; _this$ = ecx

; 507  : 		{	// construct empty vector

  00000	8b c1		 mov	 eax, ecx
  00002	33 c9		 xor	 ecx, ecx
  00004	89 08		 mov	 DWORD PTR [eax], ecx
  00006	89 48 04	 mov	 DWORD PTR [eax+4], ecx
  00009	89 48 08	 mov	 DWORD PTR [eax+8], ecx

; 508  : 		}

  0000c	c3		 ret	 0
??0?$vector@UWeaponInfo@@V?$allocator@UWeaponInfo@@@std@@@std@@QAE@XZ ENDP ; std::vector<WeaponInfo,std::allocator<WeaponInfo> >::vector<WeaponInfo,std::allocator<WeaponInfo> >
_TEXT	ENDS
PUBLIC	??0?$vector@UForceInfo@@V?$allocator@UForceInfo@@@std@@@std@@QAE@XZ ; std::vector<ForceInfo,std::allocator<ForceInfo> >::vector<ForceInfo,std::allocator<ForceInfo> >
; Function compile flags: /Ogsp
;	COMDAT ??0?$vector@UForceInfo@@V?$allocator@UForceInfo@@@std@@@std@@QAE@XZ
_TEXT	SEGMENT
??0?$vector@UForceInfo@@V?$allocator@UForceInfo@@@std@@@std@@QAE@XZ PROC ; std::vector<ForceInfo,std::allocator<ForceInfo> >::vector<ForceInfo,std::allocator<ForceInfo> >, COMDAT
; _this$ = ecx

; 507  : 		{	// construct empty vector

  00000	8b c1		 mov	 eax, ecx
  00002	33 c9		 xor	 ecx, ecx
  00004	89 08		 mov	 DWORD PTR [eax], ecx
  00006	89 48 04	 mov	 DWORD PTR [eax+4], ecx
  00009	89 48 08	 mov	 DWORD PTR [eax+8], ecx

; 508  : 		}

  0000c	c3		 ret	 0
??0?$vector@UForceInfo@@V?$allocator@UForceInfo@@@std@@@std@@QAE@XZ ENDP ; std::vector<ForceInfo,std::allocator<ForceInfo> >::vector<ForceInfo,std::allocator<ForceInfo> >
_TEXT	ENDS
PUBLIC	??0?$CEncrypt@M@@QAE@ABV0@@Z			; CEncrypt<float>::CEncrypt<float>
;	COMDAT xdata$x
; File d:\lost saga for developer\youtube\tutorial\source\src\lsclient\encryptvalue.h
xdata$x	SEGMENT
__unwindtable$??0?$CEncrypt@M@@QAE@ABV0@@Z DD 0ffffffffH
	DD	FLAT:__unwindfunclet$??0?$CEncrypt@M@@QAE@ABV0@@Z$0
__ehfuncinfo$??0?$CEncrypt@M@@QAE@ABV0@@Z DD 019930522H
	DD	01H
	DD	FLAT:__unwindtable$??0?$CEncrypt@M@@QAE@ABV0@@Z
	DD	2 DUP(00H)
	DD	2 DUP(00H)
	DD	00H
	DD	01H
; Function compile flags: /Ogsp
xdata$x	ENDS
;	COMDAT ??0?$CEncrypt@M@@QAE@ABV0@@Z
_TEXT	SEGMENT
_this$ = -16						; size = 4
__$EHRec$ = -12						; size = 12
_value$617383 = 8					; size = 4
_value$617378 = 8					; size = 4
_inValue$ = 8						; size = 4
??0?$CEncrypt@M@@QAE@ABV0@@Z PROC			; CEncrypt<float>::CEncrypt<float>, COMDAT
; _this$ = ecx

; 120  : 	CEncrypt( const CEncrypt<type> &inValue )   // 선언과 동시에 값을 대입하기 위해서

  00000	6a 04		 push	 4
  00002	b8 00 00 00 00	 mov	 eax, __ehhandler$??0?$CEncrypt@M@@QAE@ABV0@@Z
  00007	e8 00 00 00 00	 call	 __EH_prolog3
  0000c	8b f1		 mov	 esi, ecx
  0000e	89 75 f0	 mov	 DWORD PTR _this$[ebp], esi
  00011	8d 4e 0c	 lea	 ecx, DWORD PTR [esi+12]
  00014	c7 06 00 00 00
	00		 mov	 DWORD PTR [esi], OFFSET ??_7?$CEncrypt@M@@6B@
  0001a	e8 00 00 00 00	 call	 ??0ccddaabb@@QAE@XZ	; ccddaabb::ccddaabb
  0001f	83 65 fc 00	 and	 DWORD PTR __$EHRec$[ebp+8], 0

; 121  : 	{
; 122  : 		Init();

  00023	8b ce		 mov	 ecx, esi
  00025	e8 00 00 00 00	 call	 ?Init@?$CEncrypt@M@@AAEXXZ ; CEncrypt<float>::Init

; 123  : 		*this = inValue;

  0002a	8b 4d 08	 mov	 ecx, DWORD PTR _inValue$[ebp]
  0002d	8d 45 08	 lea	 eax, DWORD PTR _value$617378[ebp]
  00030	50		 push	 eax
  00031	e8 00 00 00 00	 call	 ?DecryptValueToPool@?$CEncrypt@M@@QAEXPAM@Z ; CEncrypt<float>::DecryptValueToPool
  00036	f3 0f 10 45 08	 movss	 xmm0, DWORD PTR _value$617378[ebp]
  0003b	8d 45 08	 lea	 eax, DWORD PTR _value$617383[ebp]
  0003e	50		 push	 eax
  0003f	8b ce		 mov	 ecx, esi
  00041	f3 0f 11 45 08	 movss	 DWORD PTR _value$617383[ebp], xmm0
  00046	e8 00 00 00 00	 call	 ?EncryptValueToPool@?$CEncrypt@M@@AAEXPBD@Z ; CEncrypt<float>::EncryptValueToPool

; 124  : 	}

  0004b	8b c6		 mov	 eax, esi
  0004d	e8 00 00 00 00	 call	 __EH_epilog3
  00052	c2 04 00	 ret	 4
_TEXT	ENDS
;	COMDAT text$x
text$x	SEGMENT
__unwindfunclet$??0?$CEncrypt@M@@QAE@ABV0@@Z$0:
  00000	8b 4d f0	 mov	 ecx, DWORD PTR _this$[ebp]
  00003	83 c1 0c	 add	 ecx, 12			; 0000000cH
  00006	e9 00 00 00 00	 jmp	 ??1ccddaabb@@UAE@XZ	; ccddaabb::~ccddaabb
__ehhandler$??0?$CEncrypt@M@@QAE@ABV0@@Z:
  0000b	8b 54 24 08	 mov	 edx, DWORD PTR [esp+8]
  0000f	8d 42 0c	 lea	 eax, DWORD PTR [edx+12]
  00012	8b 4a ec	 mov	 ecx, DWORD PTR [edx-20]
  00015	33 c8		 xor	 ecx, eax
  00017	e8 00 00 00 00	 call	 @__security_check_cookie@4
  0001c	b8 00 00 00 00	 mov	 eax, OFFSET __ehfuncinfo$??0?$CEncrypt@M@@QAE@ABV0@@Z
  00021	e9 00 00 00 00	 jmp	 ___CxxFrameHandler3
text$x	ENDS
??0?$CEncrypt@M@@QAE@ABV0@@Z ENDP			; CEncrypt<float>::CEncrypt<float>
PUBLIC	?_Buy@?$vector@UWeaponInfo@@V?$allocator@UWeaponInfo@@@std@@@std@@IAE_NI@Z ; std::vector<WeaponInfo,std::allocator<WeaponInfo> >::_Buy
; Function compile flags: /Ogsp
; File c:\program files (x86)\microsoft visual studio 10.0\vc\include\vector
;	COMDAT ?_Buy@?$vector@UWeaponInfo@@V?$allocator@UWeaponInfo@@@std@@@std@@IAE_NI@Z
_TEXT	SEGMENT
__Capacity$ = 8						; size = 4
?_Buy@?$vector@UWeaponInfo@@V?$allocator@UWeaponInfo@@@std@@@std@@IAE_NI@Z PROC ; std::vector<WeaponInfo,std::allocator<WeaponInfo> >::_Buy, COMDAT
; _this$ = ecx

; 1250 : 		{	// allocate array with _Capacity elements

  00000	55		 push	 ebp
  00001	8b ec		 mov	 ebp, esp
  00003	56		 push	 esi

; 1251 : 		this->_Myfirst = 0;

  00004	33 c0		 xor	 eax, eax
  00006	57		 push	 edi

; 1252 : 		this->_Mylast = 0;
; 1253 : 		this->_Myend = 0;
; 1254 : 
; 1255 : 		if (_Capacity == 0)

  00007	8b 7d 08	 mov	 edi, DWORD PTR __Capacity$[ebp]
  0000a	8b f1		 mov	 esi, ecx
  0000c	89 06		 mov	 DWORD PTR [esi], eax
  0000e	89 46 04	 mov	 DWORD PTR [esi+4], eax
  00011	89 46 08	 mov	 DWORD PTR [esi+8], eax
  00014	3b f8		 cmp	 edi, eax
  00016	75 04		 jne	 SHORT $LN4@Buy

; 1256 : 			return (false);

  00018	32 c0		 xor	 al, al
  0001a	eb 2b		 jmp	 SHORT $LN5@Buy
$LN4@Buy:

; 1257 : 		else if (max_size() < _Capacity)

  0001c	81 ff 66 66 66
	06		 cmp	 edi, 107374182		; 06666666H
  00022	76 0b		 jbe	 SHORT $LN2@Buy

; 1258 : 			_Xlen();	// result too long

  00024	68 00 00 00 00	 push	 OFFSET ??_C@_0BD@OLBABOEK@vector?$DMT?$DO?5too?5long?$AA@
  00029	ff 15 00 00 00
	00		 call	 DWORD PTR __imp_?_Xlength_error@std@@YAXPBD@Z
$LN19@Buy:
$LN2@Buy:

; 1259 : 		else
; 1260 : 			{	// nonempty array, allocate storage
; 1261 : 			this->_Myfirst = this->_Alval.allocate(_Capacity);

  0002f	50		 push	 eax
  00030	57		 push	 edi
  00031	e8 00 00 00 00	 call	 ??$_Allocate@UWeaponInfo@@@std@@YAPAUWeaponInfo@@IPAU1@@Z ; std::_Allocate<WeaponInfo>

; 1262 : 			this->_Mylast = this->_Myfirst;
; 1263 : 			this->_Myend = this->_Myfirst + _Capacity;

  00036	6b ff 28	 imul	 edi, 40			; 00000028H
  00039	03 f8		 add	 edi, eax
  0003b	59		 pop	 ecx
  0003c	89 06		 mov	 DWORD PTR [esi], eax
  0003e	89 46 04	 mov	 DWORD PTR [esi+4], eax
  00041	59		 pop	 ecx
  00042	89 7e 08	 mov	 DWORD PTR [esi+8], edi

; 1264 : 			}
; 1265 : 		return (true);

  00045	b0 01		 mov	 al, 1
$LN5@Buy:
  00047	5f		 pop	 edi
  00048	5e		 pop	 esi

; 1266 : 		}

  00049	5d		 pop	 ebp
  0004a	c2 04 00	 ret	 4
$LN18@Buy:
?_Buy@?$vector@UWeaponInfo@@V?$allocator@UWeaponInfo@@@std@@@std@@IAE_NI@Z ENDP ; std::vector<WeaponInfo,std::allocator<WeaponInfo> >::_Buy
_TEXT	ENDS
PUBLIC	?_Buy@?$vector@UForceInfo@@V?$allocator@UForceInfo@@@std@@@std@@IAE_NI@Z ; std::vector<ForceInfo,std::allocator<ForceInfo> >::_Buy
; Function compile flags: /Ogsp
;	COMDAT ?_Buy@?$vector@UForceInfo@@V?$allocator@UForceInfo@@@std@@@std@@IAE_NI@Z
_TEXT	SEGMENT
__Capacity$ = 8						; size = 4
?_Buy@?$vector@UForceInfo@@V?$allocator@UForceInfo@@@std@@@std@@IAE_NI@Z PROC ; std::vector<ForceInfo,std::allocator<ForceInfo> >::_Buy, COMDAT
; _this$ = ecx

; 1250 : 		{	// allocate array with _Capacity elements

  00000	55		 push	 ebp
  00001	8b ec		 mov	 ebp, esp
  00003	56		 push	 esi

; 1251 : 		this->_Myfirst = 0;

  00004	33 c0		 xor	 eax, eax
  00006	57		 push	 edi

; 1252 : 		this->_Mylast = 0;
; 1253 : 		this->_Myend = 0;
; 1254 : 
; 1255 : 		if (_Capacity == 0)

  00007	8b 7d 08	 mov	 edi, DWORD PTR __Capacity$[ebp]
  0000a	8b f1		 mov	 esi, ecx
  0000c	89 06		 mov	 DWORD PTR [esi], eax
  0000e	89 46 04	 mov	 DWORD PTR [esi+4], eax
  00011	89 46 08	 mov	 DWORD PTR [esi+8], eax
  00014	3b f8		 cmp	 edi, eax
  00016	75 04		 jne	 SHORT $LN4@Buy@2

; 1256 : 			return (false);

  00018	32 c0		 xor	 al, al
  0001a	eb 2b		 jmp	 SHORT $LN5@Buy@2
$LN4@Buy@2:

; 1257 : 		else if (max_size() < _Capacity)

  0001c	81 ff 55 55 55
	15		 cmp	 edi, 357913941		; 15555555H
  00022	76 0b		 jbe	 SHORT $LN2@Buy@2

; 1258 : 			_Xlen();	// result too long

  00024	68 00 00 00 00	 push	 OFFSET ??_C@_0BD@OLBABOEK@vector?$DMT?$DO?5too?5long?$AA@
  00029	ff 15 00 00 00
	00		 call	 DWORD PTR __imp_?_Xlength_error@std@@YAXPBD@Z
$LN19@Buy@2:
$LN2@Buy@2:

; 1259 : 		else
; 1260 : 			{	// nonempty array, allocate storage
; 1261 : 			this->_Myfirst = this->_Alval.allocate(_Capacity);

  0002f	50		 push	 eax
  00030	57		 push	 edi
  00031	e8 00 00 00 00	 call	 ??$_Allocate@UForceInfo@@@std@@YAPAUForceInfo@@IPAU1@@Z ; std::_Allocate<ForceInfo>

; 1262 : 			this->_Mylast = this->_Myfirst;
; 1263 : 			this->_Myend = this->_Myfirst + _Capacity;

  00036	6b ff 0c	 imul	 edi, 12			; 0000000cH
  00039	03 f8		 add	 edi, eax
  0003b	59		 pop	 ecx
  0003c	89 06		 mov	 DWORD PTR [esi], eax
  0003e	89 46 04	 mov	 DWORD PTR [esi+4], eax
  00041	59		 pop	 ecx
  00042	89 7e 08	 mov	 DWORD PTR [esi+8], edi

; 1264 : 			}
; 1265 : 		return (true);

  00045	b0 01		 mov	 al, 1
$LN5@Buy@2:
  00047	5f		 pop	 edi
  00048	5e		 pop	 esi

; 1266 : 		}

  00049	5d		 pop	 ebp
  0004a	c2 04 00	 ret	 4
$LN18@Buy@2:
?_Buy@?$vector@UForceInfo@@V?$allocator@UForceInfo@@@std@@@std@@IAE_NI@Z ENDP ; std::vector<ForceInfo,std::allocator<ForceInfo> >::_Buy
_TEXT	ENDS
PUBLIC	??9?$_Vector_const_iterator@V?$_Vector_val@UWeaponInfo@@V?$allocator@UWeaponInfo@@@std@@@std@@@std@@QBE_NABV01@@Z ; std::_Vector_const_iterator<std::_Vector_val<WeaponInfo,std::allocator<WeaponInfo> > >::operator!=
; Function compile flags: /Ogsp
;	COMDAT ??9?$_Vector_const_iterator@V?$_Vector_val@UWeaponInfo@@V?$allocator@UWeaponInfo@@@std@@@std@@@std@@QBE_NABV01@@Z
_TEXT	SEGMENT
__Right$ = 8						; size = 4
??9?$_Vector_const_iterator@V?$_Vector_val@UWeaponInfo@@V?$allocator@UWeaponInfo@@@std@@@std@@@std@@QBE_NABV01@@Z PROC ; std::_Vector_const_iterator<std::_Vector_val<WeaponInfo,std::allocator<WeaponInfo> > >::operator!=, COMDAT
; _this$ = ecx

; 207  : 		{	// test for iterator inequality

  00000	55		 push	 ebp
  00001	8b ec		 mov	 ebp, esp

; 208  : 		return (!(*this == _Right));

  00003	8b 01		 mov	 eax, DWORD PTR [ecx]
  00005	8b 55 08	 mov	 edx, DWORD PTR __Right$[ebp]
  00008	33 c9		 xor	 ecx, ecx
  0000a	3b 02		 cmp	 eax, DWORD PTR [edx]
  0000c	0f 95 c0	 setne	 al

; 209  : 		}

  0000f	5d		 pop	 ebp
  00010	c2 04 00	 ret	 4
??9?$_Vector_const_iterator@V?$_Vector_val@UWeaponInfo@@V?$allocator@UWeaponInfo@@@std@@@std@@@std@@QBE_NABV01@@Z ENDP ; std::_Vector_const_iterator<std::_Vector_val<WeaponInfo,std::allocator<WeaponInfo> > >::operator!=
_TEXT	ENDS
PUBLIC	??9?$_Vector_const_iterator@V?$_Vector_val@UForceInfo@@V?$allocator@UForceInfo@@@std@@@std@@@std@@QBE_NABV01@@Z ; std::_Vector_const_iterator<std::_Vector_val<ForceInfo,std::allocator<ForceInfo> > >::operator!=
; Function compile flags: /Ogsp
;	COMDAT ??9?$_Vector_const_iterator@V?$_Vector_val@UForceInfo@@V?$allocator@UForceInfo@@@std@@@std@@@std@@QBE_NABV01@@Z
_TEXT	SEGMENT
__Right$ = 8						; size = 4
??9?$_Vector_const_iterator@V?$_Vector_val@UForceInfo@@V?$allocator@UForceInfo@@@std@@@std@@@std@@QBE_NABV01@@Z PROC ; std::_Vector_const_iterator<std::_Vector_val<ForceInfo,std::allocator<ForceInfo> > >::operator!=, COMDAT
; _this$ = ecx

; 207  : 		{	// test for iterator inequality

  00000	55		 push	 ebp
  00001	8b ec		 mov	 ebp, esp

; 208  : 		return (!(*this == _Right));

  00003	8b 01		 mov	 eax, DWORD PTR [ecx]
  00005	8b 55 08	 mov	 edx, DWORD PTR __Right$[ebp]
  00008	33 c9		 xor	 ecx, ecx
  0000a	3b 02		 cmp	 eax, DWORD PTR [edx]
  0000c	0f 95 c0	 setne	 al

; 209  : 		}

  0000f	5d		 pop	 ebp
  00010	c2 04 00	 ret	 4
??9?$_Vector_const_iterator@V?$_Vector_val@UForceInfo@@V?$allocator@UForceInfo@@@std@@@std@@@std@@QBE_NABV01@@Z ENDP ; std::_Vector_const_iterator<std::_Vector_val<ForceInfo,std::allocator<ForceInfo> > >::operator!=
_TEXT	ENDS
PUBLIC	??$_Dest_val@V?$allocator@UForceInfo@@@std@@UForceInfo@@@std@@YAXAAV?$allocator@UForceInfo@@@0@PAUForceInfo@@@Z ; std::_Dest_val<std::allocator<ForceInfo>,ForceInfo>
; Function compile flags: /Ogsp
; File c:\program files (x86)\microsoft visual studio 10.0\vc\include\xmemory
;	COMDAT ??$_Dest_val@V?$allocator@UForceInfo@@@std@@UForceInfo@@@std@@YAXAAV?$allocator@UForceInfo@@@0@PAUForceInfo@@@Z
_TEXT	SEGMENT
__Alval$ = 8						; size = 4
__Pdest$ = 12						; size = 4
??$_Dest_val@V?$allocator@UForceInfo@@@std@@UForceInfo@@@std@@YAXAAV?$allocator@UForceInfo@@@0@PAUForceInfo@@@Z PROC ; std::_Dest_val<std::allocator<ForceInfo>,ForceInfo>, COMDAT

; 287  : 	_Alval.destroy(_Pdest);
; 288  : 	}

  00000	c3		 ret	 0
??$_Dest_val@V?$allocator@UForceInfo@@@std@@UForceInfo@@@std@@YAXAAV?$allocator@UForceInfo@@@0@PAUForceInfo@@@Z ENDP ; std::_Dest_val<std::allocator<ForceInfo>,ForceInfo>
_TEXT	ENDS
PUBLIC	?destroy@?$allocator@UWeaponInfo@@@std@@QAEXPAUWeaponInfo@@@Z ; std::allocator<WeaponInfo>::destroy
; Function compile flags: /Ogsp
;	COMDAT ?destroy@?$allocator@UWeaponInfo@@@std@@QAEXPAUWeaponInfo@@@Z
_TEXT	SEGMENT
__Ptr$ = 8						; size = 4
?destroy@?$allocator@UWeaponInfo@@@std@@QAEXPAUWeaponInfo@@@Z PROC ; std::allocator<WeaponInfo>::destroy, COMDAT
; _this$ = ecx

; 212  : 		{	// destroy object at _Ptr

  00000	55		 push	 ebp
  00001	8b ec		 mov	 ebp, esp

; 213  : 		_Destroy(_Ptr);

  00003	8b 4d 08	 mov	 ecx, DWORD PTR __Ptr$[ebp]
  00006	83 c1 08	 add	 ecx, 8
  00009	ff 15 00 00 00
	00		 call	 DWORD PTR __imp_??1ioHashString@@QAE@XZ

; 214  : 		}

  0000f	5d		 pop	 ebp
  00010	c2 04 00	 ret	 4
?destroy@?$allocator@UWeaponInfo@@@std@@QAEXPAUWeaponInfo@@@Z ENDP ; std::allocator<WeaponInfo>::destroy
_TEXT	ENDS
PUBLIC	__$ArrayPad$
PUBLIC	?ChangeToRunState@ioRunChargeItem2@@IAEXPAVioBaseChar@@@Z ; ioRunChargeItem2::ChangeToRunState
;	COMDAT xdata$x
; File d:\lost saga for developer\youtube\tutorial\source\src\lsclient\iorunchargeitem2.cpp
xdata$x	SEGMENT
__unwindtable$?ChangeToRunState@ioRunChargeItem2@@IAEXPAVioBaseChar@@@Z DD 0ffffffffH
	DD	FLAT:__unwindfunclet$?ChangeToRunState@ioRunChargeItem2@@IAEXPAVioBaseChar@@@Z$0
__ehfuncinfo$?ChangeToRunState@ioRunChargeItem2@@IAEXPAVioBaseChar@@@Z DD 019930522H
	DD	01H
	DD	FLAT:__unwindtable$?ChangeToRunState@ioRunChargeItem2@@IAEXPAVioBaseChar@@@Z
	DD	2 DUP(00H)
	DD	2 DUP(00H)
	DD	00H
	DD	01H
; Function compile flags: /Ogsp
xdata$x	ENDS
;	COMDAT ?ChangeToRunState@ioRunChargeItem2@@IAEXPAVioBaseChar@@@Z
_TEXT	SEGMENT
_kPacket$608188 = -32808				; size = 32792
__$ArrayPad$ = -16					; size = 4
__$EHRec$ = -12						; size = 12
_pOwner$ = 8						; size = 4
?ChangeToRunState@ioRunChargeItem2@@IAEXPAVioBaseChar@@@Z PROC ; ioRunChargeItem2::ChangeToRunState, COMDAT
; _this$ = ecx

; 432  : {

  00000	55		 push	 ebp
  00001	8b ec		 mov	 ebp, esp
  00003	6a ff		 push	 -1
  00005	68 00 00 00 00	 push	 __ehhandler$?ChangeToRunState@ioRunChargeItem2@@IAEXPAVioBaseChar@@@Z
  0000a	64 a1 00 00 00
	00		 mov	 eax, DWORD PTR fs:0
  00010	50		 push	 eax
  00011	b8 1c 80 00 00	 mov	 eax, 32796		; 0000801cH
  00016	e8 00 00 00 00	 call	 __chkstk
  0001b	a1 00 00 00 00	 mov	 eax, DWORD PTR ___security_cookie
  00020	33 c5		 xor	 eax, ebp
  00022	89 45 f0	 mov	 DWORD PTR __$ArrayPad$[ebp], eax
  00025	56		 push	 esi
  00026	57		 push	 edi
  00027	50		 push	 eax
  00028	8d 45 f4	 lea	 eax, DWORD PTR __$EHRec$[ebp]
  0002b	64 a3 00 00 00
	00		 mov	 DWORD PTR fs:0, eax
  00031	8b 7d 08	 mov	 edi, DWORD PTR _pOwner$[ebp]
  00034	8b f1		 mov	 esi, ecx

; 433  : 	if( !pOwner ) return;

  00036	85 ff		 test	 edi, edi
  00038	0f 84 a3 00 00
	00		 je	 $LN1@ChangeToRu@4

; 434  : 
; 435  : 	DWORD dwCurTime = FRAMEGETTIME();

  0003e	ff 15 00 00 00
	00		 call	 DWORD PTR __imp_?GetSingleton@ioFrameTimer@@SAAAV1@XZ
  00044	8b c8		 mov	 ecx, eax
  00046	ff 15 00 00 00
	00		 call	 DWORD PTR __imp_?GetLoopSec@ioFrameTimer@@QBEKXZ

; 436  : 
; 437  : 	m_ChargeState = CS_RUN;
; 438  : 
; 439  : 	ChangeToRunning( pOwner );

  0004c	57		 push	 edi
  0004d	8b ce		 mov	 ecx, esi
  0004f	c7 86 54 19 00
	00 03 00 00 00	 mov	 DWORD PTR [esi+6484], 3
  00059	e8 00 00 00 00	 call	 ?ChangeToRunning@ioRunChargeItem2@@IAEXPAVioBaseChar@@@Z ; ioRunChargeItem2::ChangeToRunning

; 440  : 
; 441  : 	if( pOwner->IsNeedSendNetwork() )

  0005e	8b 07		 mov	 eax, DWORD PTR [edi]
  00060	8b cf		 mov	 ecx, edi
  00062	ff 90 04 01 00
	00		 call	 DWORD PTR [eax+260]
  00068	84 c0		 test	 al, al
  0006a	74 75		 je	 SHORT $LN1@ChangeToRu@4

; 442  : 	{
; 443  : 		SP2Packet kPacket( CUPK_ITEM_GAUGE_OK );

  0006c	68 27 41 00 00	 push	 16679			; 00004127H
  00071	8d 8d d8 7f ff
	ff		 lea	 ecx, DWORD PTR _kPacket$608188[ebp]
  00077	e8 00 00 00 00	 call	 ??0SP2Packet@@QAE@K@Z	; SP2Packet::SP2Packet
  0007c	83 65 fc 00	 and	 DWORD PTR __$EHRec$[ebp+8], 0

; 444  : 		FillItemGaugePacketHeader( pOwner, kPacket );

  00080	8d 85 d8 7f ff
	ff		 lea	 eax, DWORD PTR _kPacket$608188[ebp]
  00086	50		 push	 eax
  00087	57		 push	 edi
  00088	8b ce		 mov	 ecx, esi
  0008a	e8 00 00 00 00	 call	 ?FillItemGaugePacketHeader@ioAttackableItem@@QAEXPAVioBaseChar@@AAVSP2Packet@@@Z ; ioAttackableItem::FillItemGaugePacketHeader

; 445  : 		kPacket << m_ChargeState;

  0008f	ff b6 54 19 00
	00		 push	 DWORD PTR [esi+6484]
  00095	8d 8d d8 7f ff
	ff		 lea	 ecx, DWORD PTR _kPacket$608188[ebp]
  0009b	e8 00 00 00 00	 call	 ??6SP2Packet@@QAEAAV0@H@Z ; SP2Packet::operator<<

; 446  : 		kPacket << m_iCurCombo;

  000a0	ff b6 70 19 00
	00		 push	 DWORD PTR [esi+6512]
  000a6	8d 8d d8 7f ff
	ff		 lea	 ecx, DWORD PTR _kPacket$608188[ebp]
  000ac	e8 00 00 00 00	 call	 ??6SP2Packet@@QAEAAV0@H@Z ; SP2Packet::operator<<

; 447  : 		kPacket << m_RunState;

  000b1	ff b6 58 19 00
	00		 push	 DWORD PTR [esi+6488]
  000b7	8d 8d d8 7f ff
	ff		 lea	 ecx, DWORD PTR _kPacket$608188[ebp]
  000bd	e8 00 00 00 00	 call	 ??6SP2Packet@@QAEAAV0@H@Z ; SP2Packet::operator<<

; 448  : 		P2PNetwork::SendToAllPlayingUser( kPacket );

  000c2	8d 85 d8 7f ff
	ff		 lea	 eax, DWORD PTR _kPacket$608188[ebp]
  000c8	6a 00		 push	 0
  000ca	50		 push	 eax
  000cb	e8 00 00 00 00	 call	 ?SendToAllPlayingUser@P2PNetwork@@YAXAAVSP2Packet@@PAVioBaseChar@@@Z ; P2PNetwork::SendToAllPlayingUser

; 449  : 	}

  000d0	83 4d fc ff	 or	 DWORD PTR __$EHRec$[ebp+8], -1
  000d4	59		 pop	 ecx
  000d5	59		 pop	 ecx
  000d6	8d 8d d8 7f ff
	ff		 lea	 ecx, DWORD PTR _kPacket$608188[ebp]
  000dc	e8 00 00 00 00	 call	 ??1SP2Packet@@UAE@XZ	; SP2Packet::~SP2Packet
$LN1@ChangeToRu@4:

; 450  : }

  000e1	8b 4d f4	 mov	 ecx, DWORD PTR __$EHRec$[ebp]
  000e4	64 89 0d 00 00
	00 00		 mov	 DWORD PTR fs:0, ecx
  000eb	59		 pop	 ecx
  000ec	5f		 pop	 edi
  000ed	5e		 pop	 esi
  000ee	8b 4d f0	 mov	 ecx, DWORD PTR __$ArrayPad$[ebp]
  000f1	33 cd		 xor	 ecx, ebp
  000f3	e8 00 00 00 00	 call	 @__security_check_cookie@4
  000f8	c9		 leave
  000f9	c2 04 00	 ret	 4
_TEXT	ENDS
;	COMDAT text$x
text$x	SEGMENT
__unwindfunclet$?ChangeToRunState@ioRunChargeItem2@@IAEXPAVioBaseChar@@@Z$0:
  00000	8d 8d d8 7f ff
	ff		 lea	 ecx, DWORD PTR _kPacket$608188[ebp]
  00006	e9 00 00 00 00	 jmp	 ??1SP2Packet@@UAE@XZ	; SP2Packet::~SP2Packet
__ehhandler$?ChangeToRunState@ioRunChargeItem2@@IAEXPAVioBaseChar@@@Z:
  0000b	8b 54 24 08	 mov	 edx, DWORD PTR [esp+8]
  0000f	8d 42 0c	 lea	 eax, DWORD PTR [edx+12]
  00012	8b 8a d8 7f ff
	ff		 mov	 ecx, DWORD PTR [edx-32808]
  00018	33 c8		 xor	 ecx, eax
  0001a	e8 00 00 00 00	 call	 @__security_check_cookie@4
  0001f	8b 4a fc	 mov	 ecx, DWORD PTR [edx-4]
  00022	33 c8		 xor	 ecx, eax
  00024	e8 00 00 00 00	 call	 @__security_check_cookie@4
  00029	b8 00 00 00 00	 mov	 eax, OFFSET __ehfuncinfo$?ChangeToRunState@ioRunChargeItem2@@IAEXPAVioBaseChar@@@Z
  0002e	e9 00 00 00 00	 jmp	 ___CxxFrameHandler3
text$x	ENDS
?ChangeToRunState@ioRunChargeItem2@@IAEXPAVioBaseChar@@@Z ENDP ; ioRunChargeItem2::ChangeToRunState
PUBLIC	_pOwner$GSCopy$
PUBLIC	?OnItemGaugeOK@ioRunChargeItem2@@UAEXPAVioBaseChar@@AAVSP2Packet@@@Z ; ioRunChargeItem2::OnItemGaugeOK
EXTRN	??5SP2Packet@@QAEAAV0@AAUD3DXVECTOR3@@@Z:PROC	; SP2Packet::operator>>
EXTRN	??5SP2Packet@@QAEAAV0@AAM@Z:PROC		; SP2Packet::operator>>
EXTRN	??5SP2Packet@@QAEAAV0@AAVioHashString@@@Z:PROC	; SP2Packet::operator>>
EXTRN	__imp_??0ioHashString@@QAE@XZ:PROC
;	COMDAT xdata$x
; File c:\program files (x86)\microsoft directx sdk (june 2010)\include\d3dx9math.h
xdata$x	SEGMENT
__unwindtable$?OnItemGaugeOK@ioRunChargeItem2@@UAEXPAVioBaseChar@@AAVSP2Packet@@@Z DD 0ffffffffH
	DD	FLAT:__unwindfunclet$?OnItemGaugeOK@ioRunChargeItem2@@UAEXPAVioBaseChar@@AAVSP2Packet@@@Z$0
__ehfuncinfo$?OnItemGaugeOK@ioRunChargeItem2@@UAEXPAVioBaseChar@@AAVSP2Packet@@@Z DD 019930522H
	DD	01H
	DD	FLAT:__unwindtable$?OnItemGaugeOK@ioRunChargeItem2@@UAEXPAVioBaseChar@@AAVSP2Packet@@@Z
	DD	2 DUP(00H)
	DD	2 DUP(00H)
	DD	00H
	DD	01H
; Function compile flags: /Ogsp
; File d:\lost saga for developer\youtube\tutorial\source\src\lsclient\iorunchargeitem2.cpp
xdata$x	ENDS
;	COMDAT ?OnItemGaugeOK@ioRunChargeItem2@@UAEXPAVioBaseChar@@AAVSP2Packet@@@Z
_TEXT	SEGMENT
_szAni$608212 = -56					; size = 16
_iState$ = -40						; size = 4
_fAniRate$608213 = -36					; size = 4
_pOwner$GSCopy$ = -32					; size = 4
_iRunState$608203 = -32					; size = 4
_vDir$608214 = -28					; size = 12
__$EHRec$ = -12						; size = 12
_pOwner$ = 8						; size = 4
_rkPacket$ = 12						; size = 4
?OnItemGaugeOK@ioRunChargeItem2@@UAEXPAVioBaseChar@@AAVSP2Packet@@@Z PROC ; ioRunChargeItem2::OnItemGaugeOK, COMDAT
; _this$ = ecx

; 453  : {

  00000	6a 2c		 push	 44			; 0000002cH
  00002	b8 00 00 00 00	 mov	 eax, __ehhandler$?OnItemGaugeOK@ioRunChargeItem2@@UAEXPAVioBaseChar@@AAVSP2Packet@@@Z
  00007	e8 00 00 00 00	 call	 __EH_prolog3_GS
  0000c	8b 7d 0c	 mov	 edi, DWORD PTR _rkPacket$[ebp]
  0000f	8b 75 08	 mov	 esi, DWORD PTR _pOwner$[ebp]

; 454  : 	int iState;
; 455  : 	rkPacket >> iState;

  00012	8d 45 d8	 lea	 eax, DWORD PTR _iState$[ebp]
  00015	8b d9		 mov	 ebx, ecx
  00017	50		 push	 eax
  00018	8b cf		 mov	 ecx, edi

; 459  : 	{
; 460  : 	case CS_NONE:
; 461  : 		pOwner->SetAttackMoveEnable( false );

  0001a	89 75 e0	 mov	 DWORD PTR _pOwner$GSCopy$[ebp], esi
  0001d	e8 00 00 00 00	 call	 ??5SP2Packet@@QAEAAV0@AAH@Z ; SP2Packet::operator>>
  00022	8d 83 70 19 00
	00		 lea	 eax, DWORD PTR [ebx+6512]
  00028	50		 push	 eax
  00029	8b cf		 mov	 ecx, edi
  0002b	e8 00 00 00 00	 call	 ??5SP2Packet@@QAEAAV0@AAH@Z ; SP2Packet::operator>>
  00030	8b 45 d8	 mov	 eax, DWORD PTR _iState$[ebp]
  00033	83 e8 00	 sub	 eax, 0
  00036	0f 84 bf 00 00
	00		 je	 $LN10@OnItemGaug@2

; 456  : 	rkPacket >> m_iCurCombo;
; 457  : 
; 458  : 	switch( iState )

  0003c	48		 dec	 eax
  0003d	0f 84 ae 00 00
	00		 je	 $LN9@OnItemGaug@2
  00043	48		 dec	 eax
  00044	48		 dec	 eax
  00045	74 75		 je	 SHORT $LN7@OnItemGaug@2
  00047	48		 dec	 eax
  00048	74 68		 je	 SHORT $LN8@OnItemGaug@2
  0004a	48		 dec	 eax
  0004b	0f 85 c1 00 00
	00		 jne	 $LN11@OnItemGaug@2

; 491  : 	case CS_RETREAT:
; 492  : 		{
; 493  : 			ioHashString szAni;

  00051	8d 4d c8	 lea	 ecx, DWORD PTR _szAni$608212[ebp]
  00054	ff 15 00 00 00
	00		 call	 DWORD PTR __imp_??0ioHashString@@QAE@XZ
  0005a	83 65 fc 00	 and	 DWORD PTR __$EHRec$[ebp+8], 0

; 494  : 			float fAniRate;
; 495  : 			D3DXVECTOR3 vDir;
; 496  : 
; 497  : 			rkPacket >> szAni >> fAniRate >> vDir;

  0005e	8d 45 e4	 lea	 eax, DWORD PTR _vDir$608214[ebp]
  00061	50		 push	 eax
  00062	8d 45 dc	 lea	 eax, DWORD PTR _fAniRate$608213[ebp]
  00065	50		 push	 eax
  00066	8d 45 c8	 lea	 eax, DWORD PTR _szAni$608212[ebp]
  00069	50		 push	 eax
  0006a	8b cf		 mov	 ecx, edi
  0006c	e8 00 00 00 00	 call	 ??5SP2Packet@@QAEAAV0@AAVioHashString@@@Z ; SP2Packet::operator>>
  00071	8b c8		 mov	 ecx, eax
  00073	e8 00 00 00 00	 call	 ??5SP2Packet@@QAEAAV0@AAM@Z ; SP2Packet::operator>>
  00078	8b c8		 mov	 ecx, eax
  0007a	e8 00 00 00 00	 call	 ??5SP2Packet@@QAEAAV0@AAUD3DXVECTOR3@@@Z ; SP2Packet::operator>>

; 498  : 
; 499  : 			ChangeToRetreatState( pOwner, szAni, fAniRate, vDir );

  0007f	f3 0f 10 45 dc	 movss	 xmm0, DWORD PTR _fAniRate$608213[ebp]
  00084	83 ec 0c	 sub	 esp, 12			; 0000000cH
  00087	8b fc		 mov	 edi, esp
  00089	8d 75 e4	 lea	 esi, DWORD PTR _vDir$608214[ebp]
  0008c	a5		 movsd
  0008d	a5		 movsd
  0008e	51		 push	 ecx
  0008f	a5		 movsd
  00090	f3 0f 11 04 24	 movss	 DWORD PTR [esp], xmm0
  00095	8d 45 c8	 lea	 eax, DWORD PTR _szAni$608212[ebp]
  00098	50		 push	 eax
  00099	ff 75 e0	 push	 DWORD PTR _pOwner$GSCopy$[ebp]
  0009c	8b cb		 mov	 ecx, ebx
  0009e	e8 00 00 00 00	 call	 ?ChangeToRetreatState@ioRunChargeItem2@@IAEXPAVioBaseChar@@ABVioHashString@@MUD3DXVECTOR3@@@Z ; ioRunChargeItem2::ChangeToRetreatState

; 500  : 		}

  000a3	83 4d fc ff	 or	 DWORD PTR __$EHRec$[ebp+8], -1
  000a7	8d 4d c8	 lea	 ecx, DWORD PTR _szAni$608212[ebp]
  000aa	ff 15 00 00 00
	00		 call	 DWORD PTR __imp_??1ioHashString@@QAE@XZ

; 501  : 		break;

  000b0	eb 60		 jmp	 SHORT $LN11@OnItemGaug@2
$LN8@OnItemGaug@2:

; 469  : 	case CS_FINISH_ATTACK:
; 470  : 		ChangeToFinishAttack( pOwner );

  000b2	56		 push	 esi
  000b3	8b cb		 mov	 ecx, ebx
  000b5	e8 00 00 00 00	 call	 ?ChangeToFinishAttack@ioRunChargeItem2@@IAEXPAVioBaseChar@@@Z ; ioRunChargeItem2::ChangeToFinishAttack

; 471  : 		break;

  000ba	eb 56		 jmp	 SHORT $LN11@OnItemGaug@2
$LN7@OnItemGaug@2:

; 472  : 	case CS_RUN:
; 473  : 		{
; 474  : 			int iRunState;
; 475  : 			rkPacket >> iRunState;

  000bc	8d 45 e0	 lea	 eax, DWORD PTR _iRunState$608203[ebp]
  000bf	50		 push	 eax
  000c0	8b cf		 mov	 ecx, edi
  000c2	e8 00 00 00 00	 call	 ??5SP2Packet@@QAEAAV0@AAH@Z ; SP2Packet::operator>>

; 476  : 
; 477  : 			switch( iRunState )

  000c7	8b 45 e0	 mov	 eax, DWORD PTR _iRunState$608203[ebp]
  000ca	48		 dec	 eax
  000cb	74 1a		 je	 SHORT $LN4@OnItemGaug@2
  000cd	48		 dec	 eax
  000ce	74 0d		 je	 SHORT $LN3@OnItemGaug@2
  000d0	48		 dec	 eax
  000d1	75 3f		 jne	 SHORT $LN11@OnItemGaug@2

; 485  : 			case RS_DEFENSE_KEY:
; 486  : 				ChangeToRunningDefense( pOwner );

  000d3	56		 push	 esi
  000d4	8b cb		 mov	 ecx, ebx
  000d6	e8 00 00 00 00	 call	 ?ChangeToRunningDefense@ioRunChargeItem2@@IAEXPAVioBaseChar@@@Z ; ioRunChargeItem2::ChangeToRunningDefense

; 487  : 				break;

  000db	eb 35		 jmp	 SHORT $LN11@OnItemGaug@2
$LN3@OnItemGaug@2:

; 481  : 				break;
; 482  : 			case RS_ATTACK_KEY:
; 483  : 				ChangeToRunningAttack( pOwner );

  000dd	56		 push	 esi
  000de	8b cb		 mov	 ecx, ebx
  000e0	e8 00 00 00 00	 call	 ?ChangeToRunningAttack@ioRunChargeItem2@@IAEXPAVioBaseChar@@@Z ; ioRunChargeItem2::ChangeToRunningAttack

; 484  : 				break;

  000e5	eb 2b		 jmp	 SHORT $LN11@OnItemGaug@2
$LN4@OnItemGaug@2:

; 478  : 			{
; 479  : 			case RS_RUN:
; 480  : 				ChangeToRunState( pOwner );

  000e7	56		 push	 esi
  000e8	8b cb		 mov	 ecx, ebx
  000ea	e8 00 00 00 00	 call	 ?ChangeToRunState@ioRunChargeItem2@@IAEXPAVioBaseChar@@@Z ; ioRunChargeItem2::ChangeToRunState

; 488  : 			}
; 489  : 		}
; 490  : 		break;

  000ef	eb 21		 jmp	 SHORT $LN11@OnItemGaug@2
$LN9@OnItemGaug@2:

; 465  : 		break;
; 466  : 	case CS_NORMAL_ATTACK:
; 467  : 		ChangeToNormalAttack( pOwner );

  000f1	56		 push	 esi
  000f2	8b cb		 mov	 ecx, ebx
  000f4	e8 00 00 00 00	 call	 ?ChangeToNormalAttack@ioRunChargeItem2@@IAEXPAVioBaseChar@@@Z ; ioRunChargeItem2::ChangeToNormalAttack

; 468  : 		break;

  000f9	eb 17		 jmp	 SHORT $LN11@OnItemGaug@2
$LN10@OnItemGaug@2:

; 459  : 	{
; 460  : 	case CS_NONE:
; 461  : 		pOwner->SetAttackMoveEnable( false );

  000fb	6a 00		 push	 0
  000fd	8b ce		 mov	 ecx, esi
  000ff	e8 00 00 00 00	 call	 ?SetAttackMoveEnable@ioBaseChar@@QAEX_N@Z ; ioBaseChar::SetAttackMoveEnable

; 462  : 		pOwner->SetChargingState( false );

  00104	c6 86 54 20 00
	00 00		 mov	 BYTE PTR [esi+8276], 0

; 463  : 
; 464  : 		m_ChargeState = CS_NONE;

  0010b	83 a3 54 19 00
	00 00		 and	 DWORD PTR [ebx+6484], 0
$LN11@OnItemGaug@2:

; 502  : 	}
; 503  : }

  00112	e8 00 00 00 00	 call	 __EH_epilog3_GS
  00117	c2 08 00	 ret	 8
_TEXT	ENDS
;	COMDAT text$x
text$x	SEGMENT
__unwindfunclet$?OnItemGaugeOK@ioRunChargeItem2@@UAEXPAVioBaseChar@@AAVSP2Packet@@@Z$0:
  00000	8d 4d c8	 lea	 ecx, DWORD PTR _szAni$608212[ebp]
  00003	ff 25 00 00 00
	00		 jmp	 DWORD PTR __imp_??1ioHashString@@QAE@XZ
__ehhandler$?OnItemGaugeOK@ioRunChargeItem2@@UAEXPAVioBaseChar@@AAVSP2Packet@@@Z:
  00009	8b 54 24 08	 mov	 edx, DWORD PTR [esp+8]
  0000d	8d 42 0c	 lea	 eax, DWORD PTR [edx+12]
  00010	8b 4a c4	 mov	 ecx, DWORD PTR [edx-60]
  00013	33 c8		 xor	 ecx, eax
  00015	e8 00 00 00 00	 call	 @__security_check_cookie@4
  0001a	8b 4a fc	 mov	 ecx, DWORD PTR [edx-4]
  0001d	33 c8		 xor	 ecx, eax
  0001f	e8 00 00 00 00	 call	 @__security_check_cookie@4
  00024	b8 00 00 00 00	 mov	 eax, OFFSET __ehfuncinfo$?OnItemGaugeOK@ioRunChargeItem2@@UAEXPAVioBaseChar@@AAVSP2Packet@@@Z
  00029	e9 00 00 00 00	 jmp	 ___CxxFrameHandler3
text$x	ENDS
?OnItemGaugeOK@ioRunChargeItem2@@UAEXPAVioBaseChar@@AAVSP2Packet@@@Z ENDP ; ioRunChargeItem2::OnItemGaugeOK
PUBLIC	__$ArrayPad$
PUBLIC	?SetExtraInfoToWeapon@ioRunChargeItem2@@UAEXPAVioWeapon@@_N@Z ; ioRunChargeItem2::SetExtraInfoToWeapon
EXTRN	?SetZoneValue@ioZoneEffectWeapon@@QAEX_N0@Z:PROC ; ioZoneEffectWeapon::SetZoneValue
EXTRN	?SetCollisionDir@ioZoneEffectWeapon@@QAEXAAUD3DXVECTOR3@@@Z:PROC ; ioZoneEffectWeapon::SetCollisionDir
EXTRN	?GetOwner@ioWeapon@@QBEPAVioBaseChar@@XZ:PROC	; ioWeapon::GetOwner
EXTRN	?SetExtraInfoToWeapon@ioAttackableItem@@UAEXPAVioWeapon@@_N@Z:PROC ; ioAttackableItem::SetExtraInfoToWeapon
; Function compile flags: /Ogsp
;	COMDAT ?SetExtraInfoToWeapon@ioRunChargeItem2@@UAEXPAVioWeapon@@_N@Z
_TEXT	SEGMENT
tv226 = -40						; size = 4
_bRun$ = -33						; size = 1
_value$617550 = -29					; size = 1
_vDir$608243 = -28					; size = 12
$T608245 = -16						; size = 12
__$ArrayPad$ = -4					; size = 4
_pWeapon$ = 8						; size = 4
_bJumpAttack$ = 12					; size = 1
?SetExtraInfoToWeapon@ioRunChargeItem2@@UAEXPAVioWeapon@@_N@Z PROC ; ioRunChargeItem2::SetExtraInfoToWeapon, COMDAT
; _this$ = ecx

; 535  : {

  00000	55		 push	 ebp
  00001	8b ec		 mov	 ebp, esp
  00003	83 ec 28	 sub	 esp, 40			; 00000028H
  00006	a1 00 00 00 00	 mov	 eax, DWORD PTR ___security_cookie
  0000b	33 c5		 xor	 eax, ebp
  0000d	89 45 fc	 mov	 DWORD PTR __$ArrayPad$[ebp], eax
  00010	56		 push	 esi
  00011	8b 75 08	 mov	 esi, DWORD PTR _pWeapon$[ebp]
  00014	57		 push	 edi

; 536  : 	ioAttackableItem::SetExtraInfoToWeapon( pWeapon, bJumpAttack );

  00015	ff 75 0c	 push	 DWORD PTR _bJumpAttack$[ebp]
  00018	8b f9		 mov	 edi, ecx
  0001a	56		 push	 esi
  0001b	e8 00 00 00 00	 call	 ?SetExtraInfoToWeapon@ioAttackableItem@@UAEXPAVioWeapon@@_N@Z ; ioAttackableItem::SetExtraInfoToWeapon

; 537  : 
; 538  : 	bool bRun = false;
; 539  : 	if( m_ChargeState == CS_RUN && m_RunState == RS_RUN )

  00020	83 bf 54 19 00
	00 03		 cmp	 DWORD PTR [edi+6484], 3
  00027	c6 45 df 00	 mov	 BYTE PTR _bRun$[ebp], 0
  0002b	75 0d		 jne	 SHORT $LN4@SetExtraIn
  0002d	83 bf 58 19 00
	00 01		 cmp	 DWORD PTR [edi+6488], 1
  00034	75 04		 jne	 SHORT $LN4@SetExtraIn

; 540  : 		bRun = true;

  00036	c6 45 df 01	 mov	 BYTE PTR _bRun$[ebp], 1
$LN4@SetExtraIn:
  0003a	53		 push	 ebx

; 541  : 
; 542  : 	ioZoneEffectWeapon *pZone = ToZoneEffectWeapon( pWeapon );

  0003b	56		 push	 esi
  0003c	e8 00 00 00 00	 call	 ?ToZoneEffectWeapon@@YAPAVioZoneEffectWeapon@@PAVioWeapon@@@Z ; ToZoneEffectWeapon
  00041	8b d8		 mov	 ebx, eax
  00043	59		 pop	 ecx

; 543  : 	if( pZone )

  00044	85 db		 test	 ebx, ebx
  00046	74 63		 je	 SHORT $LN2@SetExtraIn

; 544  : 	{
; 545  : 		ioBaseChar *pChar = pZone->GetOwner();

  00048	8b cb		 mov	 ecx, ebx
  0004a	e8 00 00 00 00	 call	 ?GetOwner@ioWeapon@@QBEPAVioBaseChar@@XZ ; ioWeapon::GetOwner
  0004f	8b c8		 mov	 ecx, eax

; 546  : 		if( pChar )

  00051	85 c9		 test	 ecx, ecx
  00053	74 56		 je	 SHORT $LN2@SetExtraIn

; 547  : 		{
; 548  : 			D3DXVECTOR3 vDir = pChar->GetTargetRot() * D3DXVECTOR3( 0.0f, 0.0f, -FLOAT1 );

  00055	b8 01 00 00 00	 mov	 eax, 1
  0005a	0f 57 c0	 xorps	 xmm0, xmm0
  0005d	89 45 d8	 mov	 DWORD PTR tv226[ebp], eax
  00060	db 45 d8	 fild	 DWORD PTR tv226[ebp]
  00063	f3 0f 11 45 f0	 movss	 DWORD PTR $T608245[ebp], xmm0
  00068	f3 0f 11 45 f4	 movss	 DWORD PTR $T608245[ebp+4], xmm0
  0006d	85 c0		 test	 eax, eax
  0006f	79 06		 jns	 SHORT $LN17@SetExtraIn
  00071	d8 05 00 00 00
	00		 fadd	 DWORD PTR __real@4f800000
$LN17@SetExtraIn:
  00077	8d 45 f0	 lea	 eax, DWORD PTR $T608245[ebp]
  0007a	d9 e0		 fchs
  0007c	50		 push	 eax
  0007d	d9 5d f8	 fstp	 DWORD PTR $T608245[ebp+8]
  00080	81 c1 a4 06 00
	00		 add	 ecx, 1700		; 000006a4H
  00086	51		 push	 ecx
  00087	8d 45 e4	 lea	 eax, DWORD PTR _vDir$608243[ebp]
  0008a	50		 push	 eax
  0008b	ff 15 00 00 00
	00		 call	 DWORD PTR __imp_??D@YA?AUD3DXVECTOR3@@ABUD3DXQUATERNION@@ABU0@@Z
  00091	83 c4 0c	 add	 esp, 12			; 0000000cH

; 549  : 			pZone->SetCollisionDir( vDir );

  00094	8d 45 e4	 lea	 eax, DWORD PTR _vDir$608243[ebp]
  00097	50		 push	 eax
  00098	8b cb		 mov	 ecx, ebx
  0009a	e8 00 00 00 00	 call	 ?SetCollisionDir@ioZoneEffectWeapon@@QAEXAAUD3DXVECTOR3@@@Z ; ioZoneEffectWeapon::SetCollisionDir

; 550  : 			pZone->SetZoneValue( bRun, false );

  0009f	6a 00		 push	 0
  000a1	ff 75 df	 push	 DWORD PTR _bRun$[ebp]
  000a4	8b cb		 mov	 ecx, ebx
  000a6	e8 00 00 00 00	 call	 ?SetZoneValue@ioZoneEffectWeapon@@QAEX_N0@Z ; ioZoneEffectWeapon::SetZoneValue
$LN2@SetExtraIn:

; 551  : 		}
; 552  : 	}
; 553  : 
; 554  : 	if( bRun )

  000ab	80 7d df 00	 cmp	 BYTE PTR _bRun$[ebp], 0
  000af	5b		 pop	 ebx
  000b0	74 23		 je	 SHORT $LN15@SetExtraIn

; 555  : 	{
; 556  : 		pWeapon->SetLiveTime( m_dwRunningDuration );

  000b2	ff b7 b8 19 00
	00		 push	 DWORD PTR [edi+6584]
  000b8	8b 06		 mov	 eax, DWORD PTR [esi]
  000ba	8b ce		 mov	 ecx, esi
  000bc	ff 90 ac 00 00
	00		 call	 DWORD PTR [eax+172]

; 557  : 		pWeapon->SetCollisionCancel( true );

  000c2	8d 45 e3	 lea	 eax, DWORD PTR _value$617550[ebp]
  000c5	50		 push	 eax
  000c6	8d 8e 70 06 00
	00		 lea	 ecx, DWORD PTR [esi+1648]
  000cc	c6 45 e3 01	 mov	 BYTE PTR _value$617550[ebp], 1
  000d0	e8 00 00 00 00	 call	 ?EncryptValueToPool@?$CEncrypt@_N@@AAEXPBD@Z ; CEncrypt<bool>::EncryptValueToPool
$LN15@SetExtraIn:

; 558  : 	}
; 559  : }

  000d5	8b 4d fc	 mov	 ecx, DWORD PTR __$ArrayPad$[ebp]
  000d8	5f		 pop	 edi
  000d9	33 cd		 xor	 ecx, ebp
  000db	5e		 pop	 esi
  000dc	e8 00 00 00 00	 call	 @__security_check_cookie@4
  000e1	c9		 leave
  000e2	c2 08 00	 ret	 8
?SetExtraInfoToWeapon@ioRunChargeItem2@@UAEXPAVioWeapon@@_N@Z ENDP ; ioRunChargeItem2::SetExtraInfoToWeapon
_TEXT	ENDS
PUBLIC	?CheckRunningMove@ioRunChargeItem2@@IAEXPAVioBaseChar@@@Z ; ioRunChargeItem2::CheckRunningMove
EXTRN	?SetCurMoveSpeed@ioBaseChar@@QAEXM@Z:PROC	; ioBaseChar::SetCurMoveSpeed
EXTRN	?SetTargetLookAt@ioPlayStage@@QAEX_N@Z:PROC	; ioPlayStage::SetTargetLookAt
EXTRN	?GetPlayStage@ioItemMaker@@QAEPAVioPlayStage@@XZ:PROC ; ioItemMaker::GetPlayStage
EXTRN	?GetSingleton@ioItemMaker@@SAAAV1@XZ:PROC	; ioItemMaker::GetSingleton
; Function compile flags: /Ogsp
;	COMDAT ?CheckRunningMove@ioRunChargeItem2@@IAEXPAVioBaseChar@@@Z
_TEXT	SEGMENT
_value$617559 = 8					; size = 4
_pOwner$ = 8						; size = 4
?CheckRunningMove@ioRunChargeItem2@@IAEXPAVioBaseChar@@@Z PROC ; ioRunChargeItem2::CheckRunningMove, COMDAT
; _this$ = ecx

; 629  : {

  00000	55		 push	 ebp
  00001	8b ec		 mov	 ebp, esp
  00003	56		 push	 esi

; 630  : 	if( !pOwner ) return;

  00004	8b 75 08	 mov	 esi, DWORD PTR _pOwner$[ebp]
  00007	57		 push	 edi
  00008	8b f9		 mov	 edi, ecx
  0000a	85 f6		 test	 esi, esi
  0000c	74 5c		 je	 SHORT $LN3@CheckRunni

; 631  : 
; 632  : 	ioPlayStage *pStage = g_ItemMaker.GetPlayStage();

  0000e	53		 push	 ebx
  0000f	e8 00 00 00 00	 call	 ?GetSingleton@ioItemMaker@@SAAAV1@XZ ; ioItemMaker::GetSingleton
  00014	8b c8		 mov	 ecx, eax
  00016	e8 00 00 00 00	 call	 ?GetPlayStage@ioItemMaker@@QAEPAVioPlayStage@@XZ ; ioItemMaker::GetPlayStage
  0001b	8b d8		 mov	 ebx, eax

; 633  : 	if( pOwner->IsNeedProcess() && pStage )

  0001d	8b 06		 mov	 eax, DWORD PTR [esi]
  0001f	8b ce		 mov	 ecx, esi
  00021	ff 90 00 01 00
	00		 call	 DWORD PTR [eax+256]
  00027	84 c0		 test	 al, al
  00029	74 0d		 je	 SHORT $LN1@CheckRunni
  0002b	85 db		 test	 ebx, ebx
  0002d	74 09		 je	 SHORT $LN1@CheckRunni

; 634  : 		pStage->SetTargetLookAt( true );

  0002f	6a 01		 push	 1
  00031	8b cb		 mov	 ecx, ebx
  00033	e8 00 00 00 00	 call	 ?SetTargetLookAt@ioPlayStage@@QAEX_N@Z ; ioPlayStage::SetTargetLookAt
$LN1@CheckRunni:

; 635  : 
; 636  : 	pOwner->SetCurMoveSpeed( m_fRunSpeed );

  00038	8d 45 08	 lea	 eax, DWORD PTR _value$617559[ebp]
  0003b	50		 push	 eax
  0003c	8d 8f 74 19 00
	00		 lea	 ecx, DWORD PTR [edi+6516]
  00042	e8 00 00 00 00	 call	 ?DecryptValueToPool@?$CEncrypt@M@@QAEXPAM@Z ; CEncrypt<float>::DecryptValueToPool
  00047	f3 0f 10 45 08	 movss	 xmm0, DWORD PTR _value$617559[ebp]
  0004c	51		 push	 ecx
  0004d	8b ce		 mov	 ecx, esi
  0004f	f3 0f 11 04 24	 movss	 DWORD PTR [esp], xmm0
  00054	e8 00 00 00 00	 call	 ?SetCurMoveSpeed@ioBaseChar@@QAEXM@Z ; ioBaseChar::SetCurMoveSpeed

; 637  : 
; 638  : 	CheckKeyInput( pOwner );

  00059	56		 push	 esi
  0005a	8b cf		 mov	 ecx, edi
  0005c	e8 00 00 00 00	 call	 ?CheckKeyInput@ioRunChargeItem2@@IAEXPAVioBaseChar@@@Z ; ioRunChargeItem2::CheckKeyInput

; 639  : 	ProcessRotate( pOwner );

  00061	56		 push	 esi
  00062	8b cf		 mov	 ecx, edi
  00064	e8 00 00 00 00	 call	 ?ProcessRotate@ioRunChargeItem2@@IAEXPAVioBaseChar@@@Z ; ioRunChargeItem2::ProcessRotate
  00069	5b		 pop	 ebx
$LN3@CheckRunni:
  0006a	5f		 pop	 edi
  0006b	5e		 pop	 esi

; 640  : }

  0006c	5d		 pop	 ebp
  0006d	c2 04 00	 ret	 4
?CheckRunningMove@ioRunChargeItem2@@IAEXPAVioBaseChar@@@Z ENDP ; ioRunChargeItem2::CheckRunningMove
_TEXT	ENDS
PUBLIC	__$ArrayPad$
PUBLIC	?OnRunning@ioRunChargeItem2@@IAEXPAVioBaseChar@@@Z ; ioRunChargeItem2::OnRunning
EXTRN	?IsDefenseKey@ioBaseChar@@QBE_NXZ:PROC		; ioBaseChar::IsDefenseKey
;	COMDAT xdata$x
xdata$x	SEGMENT
__unwindtable$?OnRunning@ioRunChargeItem2@@IAEXPAVioBaseChar@@@Z DD 0ffffffffH
	DD	FLAT:__unwindfunclet$?OnRunning@ioRunChargeItem2@@IAEXPAVioBaseChar@@@Z$0
__ehfuncinfo$?OnRunning@ioRunChargeItem2@@IAEXPAVioBaseChar@@@Z DD 019930522H
	DD	01H
	DD	FLAT:__unwindtable$?OnRunning@ioRunChargeItem2@@IAEXPAVioBaseChar@@@Z
	DD	2 DUP(00H)
	DD	2 DUP(00H)
	DD	00H
	DD	01H
; Function compile flags: /Ogsp
xdata$x	ENDS
;	COMDAT ?OnRunning@ioRunChargeItem2@@IAEXPAVioBaseChar@@@Z
_TEXT	SEGMENT
_kPacket$608309 = -32808				; size = 32792
__$ArrayPad$ = -16					; size = 4
__$EHRec$ = -12						; size = 12
_pOwner$ = 8						; size = 4
?OnRunning@ioRunChargeItem2@@IAEXPAVioBaseChar@@@Z PROC	; ioRunChargeItem2::OnRunning, COMDAT
; _this$ = ecx

; 643  : {

  00000	55		 push	 ebp
  00001	8b ec		 mov	 ebp, esp
  00003	6a ff		 push	 -1
  00005	68 00 00 00 00	 push	 __ehhandler$?OnRunning@ioRunChargeItem2@@IAEXPAVioBaseChar@@@Z
  0000a	64 a1 00 00 00
	00		 mov	 eax, DWORD PTR fs:0
  00010	50		 push	 eax
  00011	b8 1c 80 00 00	 mov	 eax, 32796		; 0000801cH
  00016	e8 00 00 00 00	 call	 __chkstk
  0001b	a1 00 00 00 00	 mov	 eax, DWORD PTR ___security_cookie
  00020	33 c5		 xor	 eax, ebp
  00022	89 45 f0	 mov	 DWORD PTR __$ArrayPad$[ebp], eax
  00025	53		 push	 ebx
  00026	56		 push	 esi
  00027	57		 push	 edi
  00028	50		 push	 eax
  00029	8d 45 f4	 lea	 eax, DWORD PTR __$EHRec$[ebp]
  0002c	64 a3 00 00 00
	00		 mov	 DWORD PTR fs:0, eax
  00032	8b 75 08	 mov	 esi, DWORD PTR _pOwner$[ebp]
  00035	8b f9		 mov	 edi, ecx

; 644  : 	DWORD dwCurTime = FRAMEGETTIME();

  00037	ff 15 00 00 00
	00		 call	 DWORD PTR __imp_?GetSingleton@ioFrameTimer@@SAAAV1@XZ
  0003d	8b c8		 mov	 ecx, eax
  0003f	ff 15 00 00 00
	00		 call	 DWORD PTR __imp_?GetLoopSec@ioFrameTimer@@QBEKXZ

; 645  : 
; 646  : 	if( m_dwRunningEndTime > 0 && m_dwRunningEndTime < dwCurTime )

  00045	8b 97 c0 19 00
	00		 mov	 edx, DWORD PTR [edi+6592]
  0004b	33 db		 xor	 ebx, ebx
  0004d	3b d3		 cmp	 edx, ebx
  0004f	76 17		 jbe	 SHORT $LN10@OnRunning
  00051	3b d0		 cmp	 edx, eax
  00053	73 13		 jae	 SHORT $LN10@OnRunning

; 647  : 	{
; 648  : 		m_dwRunningEndTime = 0;
; 649  : 
; 650  : 		ChangeToFinishAttack( pOwner );

  00055	56		 push	 esi
  00056	8b cf		 mov	 ecx, edi
  00058	89 9f c0 19 00
	00		 mov	 DWORD PTR [edi+6592], ebx
  0005e	e8 00 00 00 00	 call	 ?ChangeToFinishAttack@ioRunChargeItem2@@IAEXPAVioBaseChar@@@Z ; ioRunChargeItem2::ChangeToFinishAttack

; 651  : 		return;

  00063	e9 18 01 00 00	 jmp	 $LN9@OnRunning
$LN10@OnRunning:

; 652  : 	}
; 653  : 	else
; 654  : 	{
; 655  : 		if( pOwner && pOwner->IsNeedProcess() )

  00068	3b f3		 cmp	 esi, ebx
  0006a	74 25		 je	 SHORT $LN3@OnRunning
  0006c	8b 06		 mov	 eax, DWORD PTR [esi]
  0006e	8b ce		 mov	 ecx, esi
  00070	ff 90 00 01 00
	00		 call	 DWORD PTR [eax+256]
  00076	84 c0		 test	 al, al
  00078	74 17		 je	 SHORT $LN3@OnRunning

; 656  : 		{
; 657  : 			if( pOwner->IsAttackKey() )

  0007a	8b ce		 mov	 ecx, esi
  0007c	e8 00 00 00 00	 call	 ?IsAttackKey@ioBaseChar@@QBE_NXZ ; ioBaseChar::IsAttackKey
  00081	84 c0		 test	 al, al
  00083	0f 84 b6 00 00
	00		 je	 $LN7@OnRunning

; 658  : 				ChangeToRunningAttack( pOwner );

  00089	56		 push	 esi
  0008a	8b cf		 mov	 ecx, edi
  0008c	e8 00 00 00 00	 call	 ?ChangeToRunningAttack@ioRunChargeItem2@@IAEXPAVioBaseChar@@@Z ; ioRunChargeItem2::ChangeToRunningAttack
$LN3@OnRunning:

; 666  : 			}
; 667  : 		}
; 668  : 
; 669  : 		// Skill Use
; 670  : 		int iSkillNum = pOwner->GetSkillKeyInput();

  00091	8b ce		 mov	 ecx, esi
  00093	e8 00 00 00 00	 call	 ?GetSkillKeyInput@ioBaseChar@@QAEHXZ ; ioBaseChar::GetSkillKeyInput

; 671  : 		if(iSkillNum == 0 && !pOwner->IsBuffLimitSkill() && pOwner->SetUseSkill(iSkillNum, SUT_NORMAL))

  00098	3b c3		 cmp	 eax, ebx
  0009a	0f 85 d8 00 00
	00		 jne	 $LN2@OnRunning
  000a0	8b ce		 mov	 ecx, esi
  000a2	e8 00 00 00 00	 call	 ?IsBuffLimitSkill@ioBaseChar@@QBE_NXZ ; ioBaseChar::IsBuffLimitSkill
  000a7	84 c0		 test	 al, al
  000a9	0f 85 c9 00 00
	00		 jne	 $LN2@OnRunning
  000af	53		 push	 ebx
  000b0	53		 push	 ebx
  000b1	53		 push	 ebx
  000b2	53		 push	 ebx
  000b3	8b ce		 mov	 ecx, esi
  000b5	e8 00 00 00 00	 call	 ?SetUseSkill@ioBaseChar@@QAE_NHW4SkillUseType@@_N1@Z ; ioBaseChar::SetUseSkill
  000ba	84 c0		 test	 al, al
  000bc	0f 84 b6 00 00
	00		 je	 $LN2@OnRunning

; 672  : 		{
; 673  : 			ClearState();

  000c2	8b cf		 mov	 ecx, edi
  000c4	e8 00 00 00 00	 call	 ?ClearState@ioRunChargeItem2@@IAEXXZ ; ioRunChargeItem2::ClearState

; 674  : 
; 675  : 			if( pOwner->IsNeedSendNetwork() )

  000c9	8b 06		 mov	 eax, DWORD PTR [esi]
  000cb	8b ce		 mov	 ecx, esi
  000cd	ff 90 04 01 00
	00		 call	 DWORD PTR [eax+260]
  000d3	84 c0		 test	 al, al
  000d5	0f 84 a5 00 00
	00		 je	 $LN9@OnRunning

; 676  : 			{
; 677  : 				SP2Packet kPacket( CUPK_ITEM_GAUGE_OK );

  000db	68 27 41 00 00	 push	 16679			; 00004127H
  000e0	8d 8d d8 7f ff
	ff		 lea	 ecx, DWORD PTR _kPacket$608309[ebp]
  000e6	e8 00 00 00 00	 call	 ??0SP2Packet@@QAE@K@Z	; SP2Packet::SP2Packet

; 678  : 				FillItemGaugePacketHeader( pOwner, kPacket );

  000eb	8d 85 d8 7f ff
	ff		 lea	 eax, DWORD PTR _kPacket$608309[ebp]
  000f1	50		 push	 eax
  000f2	56		 push	 esi
  000f3	8b cf		 mov	 ecx, edi
  000f5	89 5d fc	 mov	 DWORD PTR __$EHRec$[ebp+8], ebx
  000f8	e8 00 00 00 00	 call	 ?FillItemGaugePacketHeader@ioAttackableItem@@QAEXPAVioBaseChar@@AAVSP2Packet@@@Z ; ioAttackableItem::FillItemGaugePacketHeader

; 679  : 				kPacket << (int)m_ChargeState;

  000fd	ff b7 54 19 00
	00		 push	 DWORD PTR [edi+6484]
  00103	8d 8d d8 7f ff
	ff		 lea	 ecx, DWORD PTR _kPacket$608309[ebp]
  00109	e8 00 00 00 00	 call	 ??6SP2Packet@@QAEAAV0@H@Z ; SP2Packet::operator<<

; 680  : 				kPacket << m_iCurCombo;

  0010e	ff b7 70 19 00
	00		 push	 DWORD PTR [edi+6512]
  00114	8d 8d d8 7f ff
	ff		 lea	 ecx, DWORD PTR _kPacket$608309[ebp]
  0011a	e8 00 00 00 00	 call	 ??6SP2Packet@@QAEAAV0@H@Z ; SP2Packet::operator<<

; 681  : 				P2PNetwork::SendToAllPlayingUser( kPacket );

  0011f	8d 85 d8 7f ff
	ff		 lea	 eax, DWORD PTR _kPacket$608309[ebp]
  00125	53		 push	 ebx
  00126	50		 push	 eax
  00127	e8 00 00 00 00	 call	 ?SendToAllPlayingUser@P2PNetwork@@YAXAAVSP2Packet@@PAVioBaseChar@@@Z ; P2PNetwork::SendToAllPlayingUser

; 682  : 			}

  0012c	83 4d fc ff	 or	 DWORD PTR __$EHRec$[ebp+8], -1
  00130	59		 pop	 ecx
  00131	59		 pop	 ecx
  00132	8d 8d d8 7f ff
	ff		 lea	 ecx, DWORD PTR _kPacket$608309[ebp]
  00138	e8 00 00 00 00	 call	 ??1SP2Packet@@UAE@XZ	; SP2Packet::~SP2Packet

; 683  : 
; 684  : 			return;

  0013d	eb 41		 jmp	 SHORT $LN9@OnRunning
$LN7@OnRunning:

; 659  : 			else if( pOwner->IsDefenseKey() )

  0013f	8b ce		 mov	 ecx, esi
  00141	e8 00 00 00 00	 call	 ?IsDefenseKey@ioBaseChar@@QBE_NXZ ; ioBaseChar::IsDefenseKey
  00146	84 c0		 test	 al, al
  00148	74 0d		 je	 SHORT $LN5@OnRunning

; 660  : 				ChangeToRunningDefense( pOwner );

  0014a	56		 push	 esi
  0014b	8b cf		 mov	 ecx, edi
  0014d	e8 00 00 00 00	 call	 ?ChangeToRunningDefense@ioRunChargeItem2@@IAEXPAVioBaseChar@@@Z ; ioRunChargeItem2::ChangeToRunningDefense
  00152	e9 3a ff ff ff	 jmp	 $LN3@OnRunning
$LN5@OnRunning:

; 661  : 			else if( pOwner->IsJumpKey() )

  00157	8b ce		 mov	 ecx, esi
  00159	e8 00 00 00 00	 call	 ?IsJumpKey@ioBaseChar@@QBE_NXZ ; ioBaseChar::IsJumpKey
  0015e	84 c0		 test	 al, al
  00160	0f 84 2b ff ff
	ff		 je	 $LN3@OnRunning

; 662  : 			{
; 663  : 				ClearState();

  00166	8b cf		 mov	 ecx, edi
  00168	e8 00 00 00 00	 call	 ?ClearState@ioRunChargeItem2@@IAEXXZ ; ioRunChargeItem2::ClearState

; 664  : 				pOwner->SetJumpState();

  0016d	6a 01		 push	 1
  0016f	8b ce		 mov	 ecx, esi
  00171	e8 00 00 00 00	 call	 ?SetJumpState@ioBaseChar@@QAEX_N@Z ; ioBaseChar::SetJumpState

; 665  : 				return;

  00176	eb 08		 jmp	 SHORT $LN9@OnRunning
$LN2@OnRunning:

; 685  : 		}
; 686  : 
; 687  : 		CheckRunningMove( pOwner );

  00178	56		 push	 esi
  00179	8b cf		 mov	 ecx, edi
  0017b	e8 00 00 00 00	 call	 ?CheckRunningMove@ioRunChargeItem2@@IAEXPAVioBaseChar@@@Z ; ioRunChargeItem2::CheckRunningMove
$LN9@OnRunning:

; 688  : 	}
; 689  : }

  00180	8b 4d f4	 mov	 ecx, DWORD PTR __$EHRec$[ebp]
  00183	64 89 0d 00 00
	00 00		 mov	 DWORD PTR fs:0, ecx
  0018a	59		 pop	 ecx
  0018b	5f		 pop	 edi
  0018c	5e		 pop	 esi
  0018d	5b		 pop	 ebx
  0018e	8b 4d f0	 mov	 ecx, DWORD PTR __$ArrayPad$[ebp]
  00191	33 cd		 xor	 ecx, ebp
  00193	e8 00 00 00 00	 call	 @__security_check_cookie@4
  00198	c9		 leave
  00199	c2 04 00	 ret	 4
_TEXT	ENDS
;	COMDAT text$x
text$x	SEGMENT
__unwindfunclet$?OnRunning@ioRunChargeItem2@@IAEXPAVioBaseChar@@@Z$0:
  00000	8d 8d d8 7f ff
	ff		 lea	 ecx, DWORD PTR _kPacket$608309[ebp]
  00006	e9 00 00 00 00	 jmp	 ??1SP2Packet@@UAE@XZ	; SP2Packet::~SP2Packet
__ehhandler$?OnRunning@ioRunChargeItem2@@IAEXPAVioBaseChar@@@Z:
  0000b	8b 54 24 08	 mov	 edx, DWORD PTR [esp+8]
  0000f	8d 42 0c	 lea	 eax, DWORD PTR [edx+12]
  00012	8b 8a d4 7f ff
	ff		 mov	 ecx, DWORD PTR [edx-32812]
  00018	33 c8		 xor	 ecx, eax
  0001a	e8 00 00 00 00	 call	 @__security_check_cookie@4
  0001f	8b 4a fc	 mov	 ecx, DWORD PTR [edx-4]
  00022	33 c8		 xor	 ecx, eax
  00024	e8 00 00 00 00	 call	 @__security_check_cookie@4
  00029	b8 00 00 00 00	 mov	 eax, OFFSET __ehfuncinfo$?OnRunning@ioRunChargeItem2@@IAEXPAVioBaseChar@@@Z
  0002e	e9 00 00 00 00	 jmp	 ___CxxFrameHandler3
text$x	ENDS
?OnRunning@ioRunChargeItem2@@IAEXPAVioBaseChar@@@Z ENDP	; ioRunChargeItem2::OnRunning
PUBLIC	?OnRunningAttackKey@ioRunChargeItem2@@IAEXPAVioBaseChar@@@Z ; ioRunChargeItem2::OnRunningAttackKey
; Function compile flags: /Ogsp
;	COMDAT ?OnRunningAttackKey@ioRunChargeItem2@@IAEXPAVioBaseChar@@@Z
_TEXT	SEGMENT
_dwCurTime$ = -8					; size = 4
_bCheckTimeOver$ = -1					; size = 1
tv280 = 8						; size = 4
_pOwner$ = 8						; size = 4
?OnRunningAttackKey@ioRunChargeItem2@@IAEXPAVioBaseChar@@@Z PROC ; ioRunChargeItem2::OnRunningAttackKey, COMDAT
; _this$ = ecx

; 692  : {

  00000	55		 push	 ebp
  00001	8b ec		 mov	 ebp, esp
  00003	51		 push	 ecx
  00004	51		 push	 ecx
  00005	53		 push	 ebx
  00006	56		 push	 esi
  00007	57		 push	 edi
  00008	8b f1		 mov	 esi, ecx

; 693  : 	DWORD dwCurTime = FRAMEGETTIME();

  0000a	ff 15 00 00 00
	00		 call	 DWORD PTR __imp_?GetSingleton@ioFrameTimer@@SAAAV1@XZ
  00010	8b c8		 mov	 ecx, eax
  00012	ff 15 00 00 00
	00		 call	 DWORD PTR __imp_?GetLoopSec@ioFrameTimer@@QBEKXZ

; 694  : 
; 695  : 	bool bCheckTimeOver = false;
; 696  : 	if( m_dwRunningEndTime > 0 && m_dwRunningEndTime < dwCurTime )

  00018	8b 8e c0 19 00
	00		 mov	 ecx, DWORD PTR [esi+6592]
  0001e	33 db		 xor	 ebx, ebx
  00020	89 45 f8	 mov	 DWORD PTR _dwCurTime$[ebp], eax
  00023	88 5d ff	 mov	 BYTE PTR _bCheckTimeOver$[ebp], bl
  00026	3b cb		 cmp	 ecx, ebx
  00028	76 08		 jbe	 SHORT $LN11@OnRunningA
  0002a	3b c8		 cmp	 ecx, eax
  0002c	73 04		 jae	 SHORT $LN11@OnRunningA

; 697  : 		bCheckTimeOver = true;

  0002e	c6 45 ff 01	 mov	 BYTE PTR _bCheckTimeOver$[ebp], 1
$LN11@OnRunningA:

; 698  : 
; 699  : 	if( m_dwRunningAttackEndTime > 0 && m_dwRunningAttackEndTime < dwCurTime )

  00032	8b 96 14 1a 00
	00		 mov	 edx, DWORD PTR [esi+6676]
  00038	8b 7d 08	 mov	 edi, DWORD PTR _pOwner$[ebp]
  0003b	3b d3		 cmp	 edx, ebx
  0003d	76 5e		 jbe	 SHORT $LN18@OnRunningA
  0003f	3b d0		 cmp	 edx, eax
  00041	73 5a		 jae	 SHORT $LN18@OnRunningA

; 700  : 	{
; 701  : 		m_dwRunningAttackEndTime = 0;
; 702  : 
; 703  : 		m_iSkillInput = -1;

  00043	83 8e fc 0e 00
	00 ff		 or	 DWORD PTR [esi+3836], -1
  0004a	89 9e 14 1a 00
	00		 mov	 DWORD PTR [esi+6676], ebx

; 704  : 		m_bEnableDefenseState = false;

  00050	66 89 9e 00 0f
	00 00		 mov	 WORD PTR [esi+3840], bx

; 705  : 		m_bEnableAttackState = false;
; 706  : 		m_bEnableJumpState = false;

  00057	88 9e 02 0f 00
	00		 mov	 BYTE PTR [esi+3842], bl

; 707  : 
; 708  : 		ioEntityGroup *pGrp = pOwner->GetGroup();

  0005d	8b 4f 04	 mov	 ecx, DWORD PTR [edi+4]

; 709  : 		if( pGrp )

  00060	3b cb		 cmp	 ecx, ebx
  00062	74 20		 je	 SHORT $LN9@OnRunningA

; 710  : 			pGrp->ClearAllActionAni( FLOAT100 );

  00064	b8 64 00 00 00	 mov	 eax, 100		; 00000064H
  00069	89 45 08	 mov	 DWORD PTR tv280[ebp], eax
  0006c	db 45 08	 fild	 DWORD PTR tv280[ebp]
  0006f	53		 push	 ebx
  00070	85 c0		 test	 eax, eax
  00072	79 06		 jns	 SHORT $LN19@OnRunningA
  00074	d8 05 00 00 00
	00		 fadd	 DWORD PTR __real@4f800000
$LN19@OnRunningA:
  0007a	51		 push	 ecx
  0007b	d9 1c 24	 fstp	 DWORD PTR [esp]
  0007e	ff 15 00 00 00
	00		 call	 DWORD PTR __imp_?ClearAllActionAni@ioEntityGroup@@QAEXM_N@Z
$LN9@OnRunningA:

; 711  : 
; 712  : 		m_RunState = RS_RUN;

  00084	c7 86 58 19 00
	00 01 00 00 00	 mov	 DWORD PTR [esi+6488], 1
$LN1@OnRunningA:

; 727  : 			}
; 728  : 		}
; 729  : 	}
; 730  : 
; 731  : 	CheckRunningMove( pOwner );

  0008e	57		 push	 edi
  0008f	8b ce		 mov	 ecx, esi
  00091	e8 00 00 00 00	 call	 ?CheckRunningMove@ioRunChargeItem2@@IAEXPAVioBaseChar@@@Z ; ioRunChargeItem2::CheckRunningMove
$LN12@OnRunningA:
  00096	5f		 pop	 edi
  00097	5e		 pop	 esi
  00098	5b		 pop	 ebx

; 732  : }

  00099	c9		 leave
  0009a	c2 04 00	 ret	 4
$LN18@OnRunningA:

; 713  : 	}
; 714  : 	else if( !bCheckTimeOver && m_dwKeyReserveTime > 0 && m_dwKeyReserveTime < dwCurTime )

  0009d	38 5d ff	 cmp	 BYTE PTR _bCheckTimeOver$[ebp], bl
  000a0	75 ec		 jne	 SHORT $LN1@OnRunningA
  000a2	8b 86 f8 0e 00
	00		 mov	 eax, DWORD PTR [esi+3832]
  000a8	3b c3		 cmp	 eax, ebx
  000aa	76 e2		 jbe	 SHORT $LN1@OnRunningA
  000ac	3b 45 f8	 cmp	 eax, DWORD PTR _dwCurTime$[ebp]
  000af	73 dd		 jae	 SHORT $LN1@OnRunningA

; 715  : 	{
; 716  : 		if( pOwner && pOwner->IsNeedProcess() )

  000b1	3b fb		 cmp	 edi, ebx
  000b3	74 d9		 je	 SHORT $LN1@OnRunningA
  000b5	8b 07		 mov	 eax, DWORD PTR [edi]
  000b7	8b cf		 mov	 ecx, edi
  000b9	ff 90 00 01 00
	00		 call	 DWORD PTR [eax+256]
  000bf	84 c0		 test	 al, al
  000c1	74 cb		 je	 SHORT $LN1@OnRunningA

; 717  : 		{
; 718  : 			if( pOwner->IsAttackKey() )

  000c3	8b cf		 mov	 ecx, edi
  000c5	e8 00 00 00 00	 call	 ?IsAttackKey@ioBaseChar@@QBE_NXZ ; ioBaseChar::IsAttackKey
  000ca	84 c0		 test	 al, al
  000cc	74 0a		 je	 SHORT $LN5@OnRunningA

; 719  : 				ChangeToRunningAttack( pOwner );

  000ce	57		 push	 edi
  000cf	8b ce		 mov	 ecx, esi
  000d1	e8 00 00 00 00	 call	 ?ChangeToRunningAttack@ioRunChargeItem2@@IAEXPAVioBaseChar@@@Z ; ioRunChargeItem2::ChangeToRunningAttack
  000d6	eb b6		 jmp	 SHORT $LN1@OnRunningA
$LN5@OnRunningA:

; 720  : 			else if( pOwner->IsDefenseKey() )

  000d8	8b cf		 mov	 ecx, edi
  000da	e8 00 00 00 00	 call	 ?IsDefenseKey@ioBaseChar@@QBE_NXZ ; ioBaseChar::IsDefenseKey
  000df	84 c0		 test	 al, al
  000e1	74 0a		 je	 SHORT $LN3@OnRunningA

; 721  : 				ChangeToRunningDefense( pOwner );

  000e3	57		 push	 edi
  000e4	8b ce		 mov	 ecx, esi
  000e6	e8 00 00 00 00	 call	 ?ChangeToRunningDefense@ioRunChargeItem2@@IAEXPAVioBaseChar@@@Z ; ioRunChargeItem2::ChangeToRunningDefense
  000eb	eb a1		 jmp	 SHORT $LN1@OnRunningA
$LN3@OnRunningA:

; 722  : 			else if( pOwner->IsJumpKey() && pOwner->IsCanJumpState() && !pOwner->IsBuffLimitJump() )

  000ed	8b cf		 mov	 ecx, edi
  000ef	e8 00 00 00 00	 call	 ?IsJumpKey@ioBaseChar@@QBE_NXZ ; ioBaseChar::IsJumpKey
  000f4	84 c0		 test	 al, al
  000f6	74 96		 je	 SHORT $LN1@OnRunningA
  000f8	8b cf		 mov	 ecx, edi
  000fa	e8 00 00 00 00	 call	 ?IsCanJumpState@ioBaseChar@@QAE_NXZ ; ioBaseChar::IsCanJumpState
  000ff	84 c0		 test	 al, al
  00101	74 8b		 je	 SHORT $LN1@OnRunningA
  00103	8b cf		 mov	 ecx, edi
  00105	e8 00 00 00 00	 call	 ?IsBuffLimitJump@ioBaseChar@@QBE_NXZ ; ioBaseChar::IsBuffLimitJump
  0010a	84 c0		 test	 al, al
  0010c	75 80		 jne	 SHORT $LN1@OnRunningA

; 723  : 			{
; 724  : 				ClearState();

  0010e	8b ce		 mov	 ecx, esi
  00110	e8 00 00 00 00	 call	 ?ClearState@ioRunChargeItem2@@IAEXXZ ; ioRunChargeItem2::ClearState

; 725  : 				pOwner->SetJumpState();

  00115	6a 01		 push	 1
  00117	8b cf		 mov	 ecx, edi
  00119	e8 00 00 00 00	 call	 ?SetJumpState@ioBaseChar@@QAEX_N@Z ; ioBaseChar::SetJumpState

; 726  : 				return;

  0011e	e9 73 ff ff ff	 jmp	 $LN12@OnRunningA
?OnRunningAttackKey@ioRunChargeItem2@@IAEXPAVioBaseChar@@@Z ENDP ; ioRunChargeItem2::OnRunningAttackKey
_TEXT	ENDS
PUBLIC	?OnRunningDefenseKey@ioRunChargeItem2@@IAEXPAVioBaseChar@@@Z ; ioRunChargeItem2::OnRunningDefenseKey
; Function compile flags: /Ogsp
;	COMDAT ?OnRunningDefenseKey@ioRunChargeItem2@@IAEXPAVioBaseChar@@@Z
_TEXT	SEGMENT
_dwCurTime$ = -8					; size = 4
_bCheckTimeOver$ = -1					; size = 1
tv280 = 8						; size = 4
_pOwner$ = 8						; size = 4
?OnRunningDefenseKey@ioRunChargeItem2@@IAEXPAVioBaseChar@@@Z PROC ; ioRunChargeItem2::OnRunningDefenseKey, COMDAT
; _this$ = ecx

; 735  : {

  00000	55		 push	 ebp
  00001	8b ec		 mov	 ebp, esp
  00003	51		 push	 ecx
  00004	51		 push	 ecx
  00005	53		 push	 ebx
  00006	56		 push	 esi
  00007	57		 push	 edi
  00008	8b f1		 mov	 esi, ecx

; 736  : 	DWORD dwCurTime = FRAMEGETTIME();

  0000a	ff 15 00 00 00
	00		 call	 DWORD PTR __imp_?GetSingleton@ioFrameTimer@@SAAAV1@XZ
  00010	8b c8		 mov	 ecx, eax
  00012	ff 15 00 00 00
	00		 call	 DWORD PTR __imp_?GetLoopSec@ioFrameTimer@@QBEKXZ

; 737  : 
; 738  : 	bool bCheckTimeOver = false;
; 739  : 	if( m_dwRunningEndTime > 0 && m_dwRunningEndTime < dwCurTime )

  00018	8b 8e c0 19 00
	00		 mov	 ecx, DWORD PTR [esi+6592]
  0001e	33 db		 xor	 ebx, ebx
  00020	89 45 f8	 mov	 DWORD PTR _dwCurTime$[ebp], eax
  00023	88 5d ff	 mov	 BYTE PTR _bCheckTimeOver$[ebp], bl
  00026	3b cb		 cmp	 ecx, ebx
  00028	76 08		 jbe	 SHORT $LN11@OnRunningD
  0002a	3b c8		 cmp	 ecx, eax
  0002c	73 04		 jae	 SHORT $LN11@OnRunningD

; 740  : 		bCheckTimeOver = true;

  0002e	c6 45 ff 01	 mov	 BYTE PTR _bCheckTimeOver$[ebp], 1
$LN11@OnRunningD:

; 741  : 
; 742  : 	if( m_dwRunningDefenseEndTime > 0 && m_dwRunningDefenseEndTime < dwCurTime )

  00032	8b 96 68 1a 00
	00		 mov	 edx, DWORD PTR [esi+6760]
  00038	8b 7d 08	 mov	 edi, DWORD PTR _pOwner$[ebp]
  0003b	3b d3		 cmp	 edx, ebx
  0003d	76 5e		 jbe	 SHORT $LN18@OnRunningD
  0003f	3b d0		 cmp	 edx, eax
  00041	73 5a		 jae	 SHORT $LN18@OnRunningD

; 743  : 	{
; 744  : 		m_dwRunningDefenseEndTime = 0;
; 745  : 
; 746  : 		m_iSkillInput = -1;

  00043	83 8e fc 0e 00
	00 ff		 or	 DWORD PTR [esi+3836], -1
  0004a	89 9e 68 1a 00
	00		 mov	 DWORD PTR [esi+6760], ebx

; 747  : 		m_bEnableDefenseState = false;

  00050	66 89 9e 00 0f
	00 00		 mov	 WORD PTR [esi+3840], bx

; 748  : 		m_bEnableAttackState = false;
; 749  : 		m_bEnableJumpState = false;

  00057	88 9e 02 0f 00
	00		 mov	 BYTE PTR [esi+3842], bl

; 750  : 
; 751  : 		ioEntityGroup *pGrp = pOwner->GetGroup();

  0005d	8b 4f 04	 mov	 ecx, DWORD PTR [edi+4]

; 752  : 		if( pGrp )

  00060	3b cb		 cmp	 ecx, ebx
  00062	74 20		 je	 SHORT $LN9@OnRunningD

; 753  : 			pGrp->ClearAllActionAni( FLOAT100 );

  00064	b8 64 00 00 00	 mov	 eax, 100		; 00000064H
  00069	89 45 08	 mov	 DWORD PTR tv280[ebp], eax
  0006c	db 45 08	 fild	 DWORD PTR tv280[ebp]
  0006f	53		 push	 ebx
  00070	85 c0		 test	 eax, eax
  00072	79 06		 jns	 SHORT $LN19@OnRunningD
  00074	d8 05 00 00 00
	00		 fadd	 DWORD PTR __real@4f800000
$LN19@OnRunningD:
  0007a	51		 push	 ecx
  0007b	d9 1c 24	 fstp	 DWORD PTR [esp]
  0007e	ff 15 00 00 00
	00		 call	 DWORD PTR __imp_?ClearAllActionAni@ioEntityGroup@@QAEXM_N@Z
$LN9@OnRunningD:

; 754  : 
; 755  : 		m_RunState = RS_RUN;

  00084	c7 86 58 19 00
	00 01 00 00 00	 mov	 DWORD PTR [esi+6488], 1
$LN1@OnRunningD:

; 770  : 			}
; 771  : 		}
; 772  : 	}
; 773  : 
; 774  : 	CheckRunningMove( pOwner );

  0008e	57		 push	 edi
  0008f	8b ce		 mov	 ecx, esi
  00091	e8 00 00 00 00	 call	 ?CheckRunningMove@ioRunChargeItem2@@IAEXPAVioBaseChar@@@Z ; ioRunChargeItem2::CheckRunningMove
$LN12@OnRunningD:
  00096	5f		 pop	 edi
  00097	5e		 pop	 esi
  00098	5b		 pop	 ebx

; 775  : }

  00099	c9		 leave
  0009a	c2 04 00	 ret	 4
$LN18@OnRunningD:

; 756  : 	}
; 757  : 	else if( !bCheckTimeOver && m_dwKeyReserveTime > 0 && m_dwKeyReserveTime < dwCurTime )

  0009d	38 5d ff	 cmp	 BYTE PTR _bCheckTimeOver$[ebp], bl
  000a0	75 ec		 jne	 SHORT $LN1@OnRunningD
  000a2	8b 86 f8 0e 00
	00		 mov	 eax, DWORD PTR [esi+3832]
  000a8	3b c3		 cmp	 eax, ebx
  000aa	76 e2		 jbe	 SHORT $LN1@OnRunningD
  000ac	3b 45 f8	 cmp	 eax, DWORD PTR _dwCurTime$[ebp]
  000af	73 dd		 jae	 SHORT $LN1@OnRunningD

; 758  : 	{
; 759  : 		if( pOwner && pOwner->IsNeedProcess() )

  000b1	3b fb		 cmp	 edi, ebx
  000b3	74 d9		 je	 SHORT $LN1@OnRunningD
  000b5	8b 07		 mov	 eax, DWORD PTR [edi]
  000b7	8b cf		 mov	 ecx, edi
  000b9	ff 90 00 01 00
	00		 call	 DWORD PTR [eax+256]
  000bf	84 c0		 test	 al, al
  000c1	74 cb		 je	 SHORT $LN1@OnRunningD

; 760  : 		{
; 761  : 			if( pOwner->IsAttackKey() )

  000c3	8b cf		 mov	 ecx, edi
  000c5	e8 00 00 00 00	 call	 ?IsAttackKey@ioBaseChar@@QBE_NXZ ; ioBaseChar::IsAttackKey
  000ca	84 c0		 test	 al, al
  000cc	74 0a		 je	 SHORT $LN5@OnRunningD

; 762  : 				ChangeToRunningAttack( pOwner );

  000ce	57		 push	 edi
  000cf	8b ce		 mov	 ecx, esi
  000d1	e8 00 00 00 00	 call	 ?ChangeToRunningAttack@ioRunChargeItem2@@IAEXPAVioBaseChar@@@Z ; ioRunChargeItem2::ChangeToRunningAttack
  000d6	eb b6		 jmp	 SHORT $LN1@OnRunningD
$LN5@OnRunningD:

; 763  : 			else if( pOwner->IsDefenseKey() )

  000d8	8b cf		 mov	 ecx, edi
  000da	e8 00 00 00 00	 call	 ?IsDefenseKey@ioBaseChar@@QBE_NXZ ; ioBaseChar::IsDefenseKey
  000df	84 c0		 test	 al, al
  000e1	74 0a		 je	 SHORT $LN3@OnRunningD

; 764  : 				ChangeToRunningDefense( pOwner );

  000e3	57		 push	 edi
  000e4	8b ce		 mov	 ecx, esi
  000e6	e8 00 00 00 00	 call	 ?ChangeToRunningDefense@ioRunChargeItem2@@IAEXPAVioBaseChar@@@Z ; ioRunChargeItem2::ChangeToRunningDefense
  000eb	eb a1		 jmp	 SHORT $LN1@OnRunningD
$LN3@OnRunningD:

; 765  : 			else if( pOwner->IsJumpKey() && pOwner->IsCanJumpState() && !pOwner->IsBuffLimitJump() )

  000ed	8b cf		 mov	 ecx, edi
  000ef	e8 00 00 00 00	 call	 ?IsJumpKey@ioBaseChar@@QBE_NXZ ; ioBaseChar::IsJumpKey
  000f4	84 c0		 test	 al, al
  000f6	74 96		 je	 SHORT $LN1@OnRunningD
  000f8	8b cf		 mov	 ecx, edi
  000fa	e8 00 00 00 00	 call	 ?IsCanJumpState@ioBaseChar@@QAE_NXZ ; ioBaseChar::IsCanJumpState
  000ff	84 c0		 test	 al, al
  00101	74 8b		 je	 SHORT $LN1@OnRunningD
  00103	8b cf		 mov	 ecx, edi
  00105	e8 00 00 00 00	 call	 ?IsBuffLimitJump@ioBaseChar@@QBE_NXZ ; ioBaseChar::IsBuffLimitJump
  0010a	84 c0		 test	 al, al
  0010c	75 80		 jne	 SHORT $LN1@OnRunningD

; 766  : 			{
; 767  : 				ClearState();

  0010e	8b ce		 mov	 ecx, esi
  00110	e8 00 00 00 00	 call	 ?ClearState@ioRunChargeItem2@@IAEXXZ ; ioRunChargeItem2::ClearState

; 768  : 				pOwner->SetJumpState();

  00115	6a 01		 push	 1
  00117	8b cf		 mov	 ecx, edi
  00119	e8 00 00 00 00	 call	 ?SetJumpState@ioBaseChar@@QAEX_N@Z ; ioBaseChar::SetJumpState

; 769  : 				return;

  0011e	e9 73 ff ff ff	 jmp	 $LN12@OnRunningD
?OnRunningDefenseKey@ioRunChargeItem2@@IAEXPAVioBaseChar@@@Z ENDP ; ioRunChargeItem2::OnRunningDefenseKey
_TEXT	ENDS
PUBLIC	??$_Uninit_copy@V?$_Vector_const_iterator@V?$_Vector_val@UForceInfo@@V?$allocator@UForceInfo@@@std@@@std@@@std@@PAUForceInfo@@V?$allocator@UForceInfo@@@2@@std@@YAPAUForceInfo@@V?$_Vector_const_iterator@V?$_Vector_val@UForceInfo@@V?$allocator@UForceInfo@@@std@@@std@@@0@0PAU1@AAV?$allocator@UForceInfo@@@0@U_Nonscalar_ptr_iterator_tag@0@@Z ; std::_Uninit_copy<std::_Vector_const_iterator<std::_Vector_val<ForceInfo,std::allocator<ForceInfo> > >,ForceInfo *,std::allocator<ForceInfo> >
; Function compile flags: /Ogsp
; File c:\program files (x86)\microsoft visual studio 10.0\vc\include\memory
;	COMDAT ??$_Uninit_copy@V?$_Vector_const_iterator@V?$_Vector_val@UForceInfo@@V?$allocator@UForceInfo@@@std@@@std@@@std@@PAUForceInfo@@V?$allocator@UForceInfo@@@2@@std@@YAPAUForceInfo@@V?$_Vector_const_iterator@V?$_Vector_val@UForceInfo@@V?$allocator@UForceInfo@@@std@@@std@@@0@0PAU1@AAV?$allocator@UForceInfo@@@0@U_Nonscalar_ptr_iterator_tag@0@@Z
_TEXT	SEGMENT
__First$ = 8						; size = 4
__Last$ = 12						; size = 4
__Dest$ = 16						; size = 4
__Al$ = 20						; size = 4
___formal$ = 24						; size = 1
??$_Uninit_copy@V?$_Vector_const_iterator@V?$_Vector_val@UForceInfo@@V?$allocator@UForceInfo@@@std@@@std@@@std@@PAUForceInfo@@V?$allocator@UForceInfo@@@2@@std@@YAPAUForceInfo@@V?$_Vector_const_iterator@V?$_Vector_val@UForceInfo@@V?$allocator@UForceInfo@@@std@@@std@@@0@0PAU1@AAV?$allocator@UForceInfo@@@0@U_Nonscalar_ptr_iterator_tag@0@@Z PROC ; std::_Uninit_copy<std::_Vector_const_iterator<std::_Vector_val<ForceInfo,std::allocator<ForceInfo> > >,ForceInfo *,std::allocator<ForceInfo> >, COMDAT

; 369  : 	{	// copy [_First, _Last) to raw _Dest, using _Al, arbitrary type

  00000	55		 push	 ebp
  00001	8b ec		 mov	 ebp, esp

; 370  : 	_DEBUG_RANGE(_First, _Last);
; 371  : 	_DEBUG_POINTER(_Dest);
; 372  : 	_FwdIt _Next = _Dest;
; 373  : 
; 374  : 	_TRY_BEGIN
; 375  : 	for (; _First != _Last; ++_Dest, ++_First)

  00003	eb 19		 jmp	 SHORT $LN35@Uninit_cop
$LL14@Uninit_cop:

; 376  : 		_Cons_val(_Al, _Dest, *_First);

  00005	ff 75 08	 push	 DWORD PTR __First$[ebp]
  00008	ff 75 10	 push	 DWORD PTR __Dest$[ebp]
  0000b	ff 75 14	 push	 DWORD PTR __Al$[ebp]
  0000e	e8 00 00 00 00	 call	 ??$_Cons_val@V?$allocator@UForceInfo@@@std@@UForceInfo@@ABU3@@std@@YAXAAV?$allocator@UForceInfo@@@0@PAUForceInfo@@ABU2@@Z ; std::_Cons_val<std::allocator<ForceInfo>,ForceInfo,ForceInfo const &>
  00013	83 45 10 0c	 add	 DWORD PTR __Dest$[ebp], 12 ; 0000000cH
  00017	83 c4 0c	 add	 esp, 12			; 0000000cH
  0001a	83 45 08 0c	 add	 DWORD PTR __First$[ebp], 12 ; 0000000cH
$LN35@Uninit_cop:

; 370  : 	_DEBUG_RANGE(_First, _Last);
; 371  : 	_DEBUG_POINTER(_Dest);
; 372  : 	_FwdIt _Next = _Dest;
; 373  : 
; 374  : 	_TRY_BEGIN
; 375  : 	for (; _First != _Last; ++_Dest, ++_First)

  0001e	8b 45 08	 mov	 eax, DWORD PTR __First$[ebp]
  00021	3b 45 0c	 cmp	 eax, DWORD PTR __Last$[ebp]
  00024	75 df		 jne	 SHORT $LL14@Uninit_cop

; 377  : 	_CATCH_ALL
; 378  : 	for (; _Next != _Dest; ++_Next)
; 379  : 		_Dest_val(_Al, _Next);
; 380  : 	_RERAISE;
; 381  : 	_CATCH_END
; 382  : 	return (_Dest);

  00026	8b 45 10	 mov	 eax, DWORD PTR __Dest$[ebp]

; 383  : 	}

  00029	5d		 pop	 ebp
  0002a	c3		 ret	 0
??$_Uninit_copy@V?$_Vector_const_iterator@V?$_Vector_val@UForceInfo@@V?$allocator@UForceInfo@@@std@@@std@@@std@@PAUForceInfo@@V?$allocator@UForceInfo@@@2@@std@@YAPAUForceInfo@@V?$_Vector_const_iterator@V?$_Vector_val@UForceInfo@@V?$allocator@UForceInfo@@@std@@@std@@@0@0PAU1@AAV?$allocator@UForceInfo@@@0@U_Nonscalar_ptr_iterator_tag@0@@Z ENDP ; std::_Uninit_copy<std::_Vector_const_iterator<std::_Vector_val<ForceInfo,std::allocator<ForceInfo> > >,ForceInfo *,std::allocator<ForceInfo> >
_TEXT	ENDS
PUBLIC	??$_Cons_val@V?$allocator@UWeaponInfo@@@std@@UWeaponInfo@@ABU3@@std@@YAXAAV?$allocator@UWeaponInfo@@@0@PAUWeaponInfo@@ABU2@@Z ; std::_Cons_val<std::allocator<WeaponInfo>,WeaponInfo,WeaponInfo const &>
; Function compile flags: /Ogsp
; File c:\program files (x86)\microsoft visual studio 10.0\vc\include\xmemory
;	COMDAT ??$_Cons_val@V?$allocator@UWeaponInfo@@@std@@UWeaponInfo@@ABU3@@std@@YAXAAV?$allocator@UWeaponInfo@@@0@PAUWeaponInfo@@ABU2@@Z
_TEXT	SEGMENT
__Alval$ = 8						; size = 4
__Pdest$ = 12						; size = 4
__Src$ = 16						; size = 4
??$_Cons_val@V?$allocator@UWeaponInfo@@@std@@UWeaponInfo@@ABU3@@std@@YAXAAV?$allocator@UWeaponInfo@@@0@PAUWeaponInfo@@ABU2@@Z PROC ; std::_Cons_val<std::allocator<WeaponInfo>,WeaponInfo,WeaponInfo const &>, COMDAT

; 279  : 	{	// construct using allocator

  00000	55		 push	 ebp
  00001	8b ec		 mov	 ebp, esp

; 280  : 	_Alval.construct(_Pdest, _STD forward<_Ty2>(_Src));

  00003	ff 75 10	 push	 DWORD PTR __Src$[ebp]
  00006	ff 75 0c	 push	 DWORD PTR __Pdest$[ebp]
  00009	e8 00 00 00 00	 call	 ??$_Construct@UWeaponInfo@@ABU1@@std@@YAXPAUWeaponInfo@@ABU1@@Z ; std::_Construct<WeaponInfo,WeaponInfo const &>
  0000e	59		 pop	 ecx
  0000f	59		 pop	 ecx

; 281  : 	}

  00010	5d		 pop	 ebp
  00011	c3		 ret	 0
??$_Cons_val@V?$allocator@UWeaponInfo@@@std@@UWeaponInfo@@ABU3@@std@@YAXAAV?$allocator@UWeaponInfo@@@0@PAUWeaponInfo@@ABU2@@Z ENDP ; std::_Cons_val<std::allocator<WeaponInfo>,WeaponInfo,WeaponInfo const &>
_TEXT	ENDS
PUBLIC	??$_Destroy_range@V?$allocator@UForceInfo@@@std@@@std@@YAXPAUForceInfo@@0AAV?$allocator@UForceInfo@@@0@U_Nonscalar_ptr_iterator_tag@0@@Z ; std::_Destroy_range<std::allocator<ForceInfo> >
; Function compile flags: /Ogsp
;	COMDAT ??$_Destroy_range@V?$allocator@UForceInfo@@@std@@@std@@YAXPAUForceInfo@@0AAV?$allocator@UForceInfo@@@0@U_Nonscalar_ptr_iterator_tag@0@@Z
_TEXT	SEGMENT
__First$ = 8						; size = 4
__Last$ = 12						; size = 4
__Al$ = 16						; size = 4
___formal$ = 20						; size = 1
??$_Destroy_range@V?$allocator@UForceInfo@@@std@@@std@@YAXPAUForceInfo@@0AAV?$allocator@UForceInfo@@@0@U_Nonscalar_ptr_iterator_tag@0@@Z PROC ; std::_Destroy_range<std::allocator<ForceInfo> >, COMDAT

; 96   : 	for (; _First != _Last; ++_First)
; 97   : 		_Dest_val(_Al, _First);
; 98   : 	}

  00000	c3		 ret	 0
??$_Destroy_range@V?$allocator@UForceInfo@@@std@@@std@@YAXPAUForceInfo@@0AAV?$allocator@UForceInfo@@@0@U_Nonscalar_ptr_iterator_tag@0@@Z ENDP ; std::_Destroy_range<std::allocator<ForceInfo> >
_TEXT	ENDS
PUBLIC	??$_Dest_val@V?$allocator@UWeaponInfo@@@std@@UWeaponInfo@@@std@@YAXAAV?$allocator@UWeaponInfo@@@0@PAUWeaponInfo@@@Z ; std::_Dest_val<std::allocator<WeaponInfo>,WeaponInfo>
; Function compile flags: /Ogsp
;	COMDAT ??$_Dest_val@V?$allocator@UWeaponInfo@@@std@@UWeaponInfo@@@std@@YAXAAV?$allocator@UWeaponInfo@@@0@PAUWeaponInfo@@@Z
_TEXT	SEGMENT
__Alval$ = 8						; size = 4
__Pdest$ = 12						; size = 4
??$_Dest_val@V?$allocator@UWeaponInfo@@@std@@UWeaponInfo@@@std@@YAXAAV?$allocator@UWeaponInfo@@@0@PAUWeaponInfo@@@Z PROC ; std::_Dest_val<std::allocator<WeaponInfo>,WeaponInfo>, COMDAT

; 286  : 	{	// destroy using allocator

  00000	55		 push	 ebp
  00001	8b ec		 mov	 ebp, esp

; 287  : 	_Alval.destroy(_Pdest);

  00003	8b 4d 0c	 mov	 ecx, DWORD PTR __Pdest$[ebp]
  00006	83 c1 08	 add	 ecx, 8

; 288  : 	}

  00009	5d		 pop	 ebp

; 287  : 	_Alval.destroy(_Pdest);

  0000a	ff 25 00 00 00
	00		 jmp	 DWORD PTR __imp_??1ioHashString@@QAE@XZ
??$_Dest_val@V?$allocator@UWeaponInfo@@@std@@UWeaponInfo@@@std@@YAXAAV?$allocator@UWeaponInfo@@@0@PAUWeaponInfo@@@Z ENDP ; std::_Dest_val<std::allocator<WeaponInfo>,WeaponInfo>
_TEXT	ENDS
PUBLIC	?OnCharging@ioRunChargeItem2@@IAEXPAVioBaseChar@@@Z ; ioRunChargeItem2::OnCharging
; Function compile flags: /Ogsp
; File d:\lost saga for developer\youtube\tutorial\source\src\lsclient\iorunchargeitem2.cpp
;	COMDAT ?OnCharging@ioRunChargeItem2@@IAEXPAVioBaseChar@@@Z
_TEXT	SEGMENT
_value$617708 = 8					; size = 4
_pOwner$ = 8						; size = 4
?OnCharging@ioRunChargeItem2@@IAEXPAVioBaseChar@@@Z PROC ; ioRunChargeItem2::OnCharging, COMDAT
; _this$ = ecx

; 220  : {

  00000	55		 push	 ebp
  00001	8b ec		 mov	 ebp, esp
  00003	56		 push	 esi

; 221  : 	if( !pOwner->IsNeedProcess() )	return;

  00004	8b 75 08	 mov	 esi, DWORD PTR _pOwner$[ebp]
  00007	8b 06		 mov	 eax, DWORD PTR [esi]
  00009	57		 push	 edi
  0000a	8b f9		 mov	 edi, ecx
  0000c	8b ce		 mov	 ecx, esi
  0000e	ff 90 00 01 00
	00		 call	 DWORD PTR [eax+256]
  00014	84 c0		 test	 al, al
  00016	74 47		 je	 SHORT $LN1@OnCharging

; 222  : 
; 223  : 	if( pOwner->IsAttackKeyDown() )

  00018	8b ce		 mov	 ecx, esi
  0001a	e8 00 00 00 00	 call	 ?IsAttackKeyDown@ioBaseChar@@QBE_NXZ ; ioBaseChar::IsAttackKeyDown
  0001f	84 c0		 test	 al, al
  00021	74 34		 je	 SHORT $LN3@OnCharging

; 224  : 	{
; 225  : 		if( m_dwAttackStartTime + m_dwChargeTime <= FRAMEGETTIME() )

  00023	8d 45 08	 lea	 eax, DWORD PTR _value$617708[ebp]
  00026	50		 push	 eax
  00027	8d 8f b0 18 00
	00		 lea	 ecx, DWORD PTR [edi+6320]
  0002d	e8 00 00 00 00	 call	 ?DecryptValueToPool@?$CEncrypt@K@@QAEXPAK@Z ; CEncrypt<unsigned long>::DecryptValueToPool
  00032	ff 15 00 00 00
	00		 call	 DWORD PTR __imp_?GetSingleton@ioFrameTimer@@SAAAV1@XZ
  00038	8b c8		 mov	 ecx, eax
  0003a	ff 15 00 00 00
	00		 call	 DWORD PTR __imp_?GetLoopSec@ioFrameTimer@@QBEKXZ
  00040	8b 8f 6c 19 00
	00		 mov	 ecx, DWORD PTR [edi+6508]
  00046	03 4d 08	 add	 ecx, DWORD PTR _value$617708[ebp]
  00049	3b c8		 cmp	 ecx, eax
  0004b	77 12		 ja	 SHORT $LN1@OnCharging

; 226  : 		{
; 227  : 			ChangeToRunState( pOwner );

  0004d	56		 push	 esi
  0004e	8b cf		 mov	 ecx, edi
  00050	e8 00 00 00 00	 call	 ?ChangeToRunState@ioRunChargeItem2@@IAEXPAVioBaseChar@@@Z ; ioRunChargeItem2::ChangeToRunState

; 228  : 		}
; 229  : 	}
; 230  : 	else

  00055	eb 08		 jmp	 SHORT $LN1@OnCharging
$LN3@OnCharging:

; 231  : 	{
; 232  : 		ChangeToNormalAttack( pOwner );

  00057	56		 push	 esi
  00058	8b cf		 mov	 ecx, edi
  0005a	e8 00 00 00 00	 call	 ?ChangeToNormalAttack@ioRunChargeItem2@@IAEXPAVioBaseChar@@@Z ; ioRunChargeItem2::ChangeToNormalAttack
$LN1@OnCharging:
  0005f	5f		 pop	 edi
  00060	5e		 pop	 esi

; 233  : 	}
; 234  : }

  00061	5d		 pop	 ebp
  00062	c2 04 00	 ret	 4
?OnCharging@ioRunChargeItem2@@IAEXPAVioBaseChar@@@Z ENDP ; ioRunChargeItem2::OnCharging
_TEXT	ENDS
PUBLIC	?OnRunState@ioRunChargeItem2@@IAEXPAVioBaseChar@@@Z ; ioRunChargeItem2::OnRunState
; Function compile flags: /Ogsp
;	COMDAT ?OnRunState@ioRunChargeItem2@@IAEXPAVioBaseChar@@@Z
_TEXT	SEGMENT
_pOwner$ = 8						; size = 4
?OnRunState@ioRunChargeItem2@@IAEXPAVioBaseChar@@@Z PROC ; ioRunChargeItem2::OnRunState, COMDAT
; _this$ = ecx

; 331  : {

  00000	55		 push	 ebp
  00001	8b ec		 mov	 ebp, esp

; 332  : 	switch( m_RunState )

  00003	8b 81 58 19 00
	00		 mov	 eax, DWORD PTR [ecx+6488]
  00009	48		 dec	 eax
  0000a	74 12		 je	 SHORT $LN3@OnRunState
  0000c	48		 dec	 eax
  0000d	74 09		 je	 SHORT $LN2@OnRunState
  0000f	48		 dec	 eax
  00010	75 12		 jne	 SHORT $LN4@OnRunState

; 342  : 		break;
; 343  : 	}
; 344  : }

  00012	5d		 pop	 ebp

; 339  : 		break;
; 340  : 	case RS_DEFENSE_KEY:
; 341  : 		OnRunningDefenseKey( pOwner );

  00013	e9 00 00 00 00	 jmp	 ?OnRunningDefenseKey@ioRunChargeItem2@@IAEXPAVioBaseChar@@@Z ; ioRunChargeItem2::OnRunningDefenseKey
$LN2@OnRunState:

; 342  : 		break;
; 343  : 	}
; 344  : }

  00018	5d		 pop	 ebp

; 336  : 		break;
; 337  : 	case RS_ATTACK_KEY:
; 338  : 		OnRunningAttackKey( pOwner );

  00019	e9 00 00 00 00	 jmp	 ?OnRunningAttackKey@ioRunChargeItem2@@IAEXPAVioBaseChar@@@Z ; ioRunChargeItem2::OnRunningAttackKey
$LN3@OnRunState:

; 342  : 		break;
; 343  : 	}
; 344  : }

  0001e	5d		 pop	 ebp

; 333  : 	{
; 334  : 	case RS_RUN:
; 335  : 		OnRunning( pOwner );

  0001f	e9 00 00 00 00	 jmp	 ?OnRunning@ioRunChargeItem2@@IAEXPAVioBaseChar@@@Z ; ioRunChargeItem2::OnRunning
$LN4@OnRunState:

; 342  : 		break;
; 343  : 	}
; 344  : }

  00024	5d		 pop	 ebp
  00025	c2 04 00	 ret	 4
?OnRunState@ioRunChargeItem2@@IAEXPAVioBaseChar@@@Z ENDP ; ioRunChargeItem2::OnRunState
_TEXT	ENDS
PUBLIC	??$_Uninitialized_copy@V?$_Vector_const_iterator@V?$_Vector_val@UForceInfo@@V?$allocator@UForceInfo@@@std@@@std@@@std@@PAUForceInfo@@V?$allocator@UForceInfo@@@2@@std@@YAPAUForceInfo@@V?$_Vector_const_iterator@V?$_Vector_val@UForceInfo@@V?$allocator@UForceInfo@@@std@@@std@@@0@0PAU1@AAV?$allocator@UForceInfo@@@0@@Z ; std::_Uninitialized_copy<std::_Vector_const_iterator<std::_Vector_val<ForceInfo,std::allocator<ForceInfo> > >,ForceInfo *,std::allocator<ForceInfo> >
; Function compile flags: /Ogsp
; File c:\program files (x86)\microsoft visual studio 10.0\vc\include\memory
;	COMDAT ??$_Uninitialized_copy@V?$_Vector_const_iterator@V?$_Vector_val@UForceInfo@@V?$allocator@UForceInfo@@@std@@@std@@@std@@PAUForceInfo@@V?$allocator@UForceInfo@@@2@@std@@YAPAUForceInfo@@V?$_Vector_const_iterator@V?$_Vector_val@UForceInfo@@V?$allocator@UForceInfo@@@std@@@std@@@0@0PAU1@AAV?$allocator@UForceInfo@@@0@@Z
_TEXT	SEGMENT
__Cat$617720 = -4					; size = 1
__First$ = 8						; size = 4
__Last$ = 12						; size = 4
__Dest$ = 16						; size = 4
__Al$ = 20						; size = 4
??$_Uninitialized_copy@V?$_Vector_const_iterator@V?$_Vector_val@UForceInfo@@V?$allocator@UForceInfo@@@std@@@std@@@std@@PAUForceInfo@@V?$allocator@UForceInfo@@@2@@std@@YAPAUForceInfo@@V?$_Vector_const_iterator@V?$_Vector_val@UForceInfo@@V?$allocator@UForceInfo@@@std@@@std@@@0@0PAU1@AAV?$allocator@UForceInfo@@@0@@Z PROC ; std::_Uninitialized_copy<std::_Vector_const_iterator<std::_Vector_val<ForceInfo,std::allocator<ForceInfo> > >,ForceInfo *,std::allocator<ForceInfo> >, COMDAT

; 412  : 	{	// copy [_First, _Last) to raw _Dest, using _Al

  00000	55		 push	 ebp
  00001	8b ec		 mov	 ebp, esp
  00003	51		 push	 ecx

; 413  : 	return (_Uninit_copy(_First, _Last, _Dest, _Al,
; 414  : 		_Ptr_cat(_First, _Dest)));

  00004	ff 75 fc	 push	 DWORD PTR __Cat$617720[ebp]
  00007	ff 75 14	 push	 DWORD PTR __Al$[ebp]
  0000a	ff 75 10	 push	 DWORD PTR __Dest$[ebp]
  0000d	ff 75 0c	 push	 DWORD PTR __Last$[ebp]
  00010	ff 75 08	 push	 DWORD PTR __First$[ebp]
  00013	e8 00 00 00 00	 call	 ??$_Uninit_copy@V?$_Vector_const_iterator@V?$_Vector_val@UForceInfo@@V?$allocator@UForceInfo@@@std@@@std@@@std@@PAUForceInfo@@V?$allocator@UForceInfo@@@2@@std@@YAPAUForceInfo@@V?$_Vector_const_iterator@V?$_Vector_val@UForceInfo@@V?$allocator@UForceInfo@@@std@@@std@@@0@0PAU1@AAV?$allocator@UForceInfo@@@0@U_Nonscalar_ptr_iterator_tag@0@@Z ; std::_Uninit_copy<std::_Vector_const_iterator<std::_Vector_val<ForceInfo,std::allocator<ForceInfo> > >,ForceInfo *,std::allocator<ForceInfo> >
  00018	83 c4 14	 add	 esp, 20			; 00000014H

; 415  : 	}

  0001b	c9		 leave
  0001c	c3		 ret	 0
??$_Uninitialized_copy@V?$_Vector_const_iterator@V?$_Vector_val@UForceInfo@@V?$allocator@UForceInfo@@@std@@@std@@@std@@PAUForceInfo@@V?$allocator@UForceInfo@@@2@@std@@YAPAUForceInfo@@V?$_Vector_const_iterator@V?$_Vector_val@UForceInfo@@V?$allocator@UForceInfo@@@std@@@std@@@0@0PAU1@AAV?$allocator@UForceInfo@@@0@@Z ENDP ; std::_Uninitialized_copy<std::_Vector_const_iterator<std::_Vector_val<ForceInfo,std::allocator<ForceInfo> > >,ForceInfo *,std::allocator<ForceInfo> >
_TEXT	ENDS
PUBLIC	??$_Uninit_copy@V?$_Vector_const_iterator@V?$_Vector_val@UWeaponInfo@@V?$allocator@UWeaponInfo@@@std@@@std@@@std@@PAUWeaponInfo@@V?$allocator@UWeaponInfo@@@2@@std@@YAPAUWeaponInfo@@V?$_Vector_const_iterator@V?$_Vector_val@UWeaponInfo@@V?$allocator@UWeaponInfo@@@std@@@std@@@0@0PAU1@AAV?$allocator@UWeaponInfo@@@0@U_Nonscalar_ptr_iterator_tag@0@@Z ; std::_Uninit_copy<std::_Vector_const_iterator<std::_Vector_val<WeaponInfo,std::allocator<WeaponInfo> > >,WeaponInfo *,std::allocator<WeaponInfo> >
EXTRN	__EH_prolog3_catch:PROC
;	COMDAT xdata$x
; File d:\lost saga for developer\youtube\tutorial\source\src\lsclient\playentityhelpstruct.h
xdata$x	SEGMENT
__catchsym$??$_Uninit_copy@V?$_Vector_const_iterator@V?$_Vector_val@UWeaponInfo@@V?$allocator@UWeaponInfo@@@std@@@std@@@std@@PAUWeaponInfo@@V?$allocator@UWeaponInfo@@@2@@std@@YAPAUWeaponInfo@@V?$_Vector_const_iterator@V?$_Vector_val@UWeaponInfo@@V?$allocator@UWeaponInfo@@@std@@@std@@@0@0PAU1@AAV?$allocator@UWeaponInfo@@@0@U_Nonscalar_ptr_iterator_tag@0@@Z$3 DD 040H
	DD	00H
	DD	00H
	DD	FLAT:__catch$??$_Uninit_copy@V?$_Vector_const_iterator@V?$_Vector_val@UWeaponInfo@@V?$allocator@UWeaponInfo@@@std@@@std@@@std@@PAUWeaponInfo@@V?$allocator@UWeaponInfo@@@2@@std@@YAPAUWeaponInfo@@V?$_Vector_const_iterator@V?$_Vector_val@UWeaponInfo@@V?$allocator@UWeaponInfo@@@std@@@std@@@0@0PAU1@AAV?$allocator@UWeaponInfo@@@0@U_Nonscalar_ptr_iterator_tag@0@@Z$0
__unwindtable$??$_Uninit_copy@V?$_Vector_const_iterator@V?$_Vector_val@UWeaponInfo@@V?$allocator@UWeaponInfo@@@std@@@std@@@std@@PAUWeaponInfo@@V?$allocator@UWeaponInfo@@@2@@std@@YAPAUWeaponInfo@@V?$_Vector_const_iterator@V?$_Vector_val@UWeaponInfo@@V?$allocator@UWeaponInfo@@@std@@@std@@@0@0PAU1@AAV?$allocator@UWeaponInfo@@@0@U_Nonscalar_ptr_iterator_tag@0@@Z DD 0ffffffffH
	DD	00H
	DD	0ffffffffH
	DD	00H
__tryblocktable$??$_Uninit_copy@V?$_Vector_const_iterator@V?$_Vector_val@UWeaponInfo@@V?$allocator@UWeaponInfo@@@std@@@std@@@std@@PAUWeaponInfo@@V?$allocator@UWeaponInfo@@@2@@std@@YAPAUWeaponInfo@@V?$_Vector_const_iterator@V?$_Vector_val@UWeaponInfo@@V?$allocator@UWeaponInfo@@@std@@@std@@@0@0PAU1@AAV?$allocator@UWeaponInfo@@@0@U_Nonscalar_ptr_iterator_tag@0@@Z DD 00H
	DD	00H
	DD	01H
	DD	01H
	DD	FLAT:__catchsym$??$_Uninit_copy@V?$_Vector_const_iterator@V?$_Vector_val@UWeaponInfo@@V?$allocator@UWeaponInfo@@@std@@@std@@@std@@PAUWeaponInfo@@V?$allocator@UWeaponInfo@@@2@@std@@YAPAUWeaponInfo@@V?$_Vector_const_iterator@V?$_Vector_val@UWeaponInfo@@V?$allocator@UWeaponInfo@@@std@@@std@@@0@0PAU1@AAV?$allocator@UWeaponInfo@@@0@U_Nonscalar_ptr_iterator_tag@0@@Z$3
__ehfuncinfo$??$_Uninit_copy@V?$_Vector_const_iterator@V?$_Vector_val@UWeaponInfo@@V?$allocator@UWeaponInfo@@@std@@@std@@@std@@PAUWeaponInfo@@V?$allocator@UWeaponInfo@@@2@@std@@YAPAUWeaponInfo@@V?$_Vector_const_iterator@V?$_Vector_val@UWeaponInfo@@V?$allocator@UWeaponInfo@@@std@@@std@@@0@0PAU1@AAV?$allocator@UWeaponInfo@@@0@U_Nonscalar_ptr_iterator_tag@0@@Z DD 019930522H
	DD	02H
	DD	FLAT:__unwindtable$??$_Uninit_copy@V?$_Vector_const_iterator@V?$_Vector_val@UWeaponInfo@@V?$allocator@UWeaponInfo@@@std@@@std@@@std@@PAUWeaponInfo@@V?$allocator@UWeaponInfo@@@2@@std@@YAPAUWeaponInfo@@V?$_Vector_const_iterator@V?$_Vector_val@UWeaponInfo@@V?$allocator@UWeaponInfo@@@std@@@std@@@0@0PAU1@AAV?$allocator@UWeaponInfo@@@0@U_Nonscalar_ptr_iterator_tag@0@@Z
	DD	01H
	DD	FLAT:__tryblocktable$??$_Uninit_copy@V?$_Vector_const_iterator@V?$_Vector_val@UWeaponInfo@@V?$allocator@UWeaponInfo@@@std@@@std@@@std@@PAUWeaponInfo@@V?$allocator@UWeaponInfo@@@2@@std@@YAPAUWeaponInfo@@V?$_Vector_const_iterator@V?$_Vector_val@UWeaponInfo@@V?$allocator@UWeaponInfo@@@std@@@std@@@0@0PAU1@AAV?$allocator@UWeaponInfo@@@0@U_Nonscalar_ptr_iterator_tag@0@@Z
	DD	2 DUP(00H)
	DD	00H
	DD	01H
; Function compile flags: /Ogsp
; File c:\program files (x86)\microsoft visual studio 10.0\vc\include\memory
xdata$x	ENDS
;	COMDAT ??$_Uninit_copy@V?$_Vector_const_iterator@V?$_Vector_val@UWeaponInfo@@V?$allocator@UWeaponInfo@@@std@@@std@@@std@@PAUWeaponInfo@@V?$allocator@UWeaponInfo@@@2@@std@@YAPAUWeaponInfo@@V?$_Vector_const_iterator@V?$_Vector_val@UWeaponInfo@@V?$allocator@UWeaponInfo@@@std@@@std@@@0@0PAU1@AAV?$allocator@UWeaponInfo@@@0@U_Nonscalar_ptr_iterator_tag@0@@Z
_TEXT	SEGMENT
__Next$ = -20						; size = 4
__$EHRec$ = -16						; size = 16
__First$ = 8						; size = 4
__Last$ = 12						; size = 4
__Dest$ = 16						; size = 4
__Al$ = 20						; size = 4
___formal$ = 24						; size = 1
??$_Uninit_copy@V?$_Vector_const_iterator@V?$_Vector_val@UWeaponInfo@@V?$allocator@UWeaponInfo@@@std@@@std@@@std@@PAUWeaponInfo@@V?$allocator@UWeaponInfo@@@2@@std@@YAPAUWeaponInfo@@V?$_Vector_const_iterator@V?$_Vector_val@UWeaponInfo@@V?$allocator@UWeaponInfo@@@std@@@std@@@0@0PAU1@AAV?$allocator@UWeaponInfo@@@0@U_Nonscalar_ptr_iterator_tag@0@@Z PROC ; std::_Uninit_copy<std::_Vector_const_iterator<std::_Vector_val<WeaponInfo,std::allocator<WeaponInfo> > >,WeaponInfo *,std::allocator<WeaponInfo> >, COMDAT

; 369  : 	{	// copy [_First, _Last) to raw _Dest, using _Al, arbitrary type

  00000	6a 08		 push	 8
  00002	b8 00 00 00 00	 mov	 eax, __ehhandler$??$_Uninit_copy@V?$_Vector_const_iterator@V?$_Vector_val@UWeaponInfo@@V?$allocator@UWeaponInfo@@@std@@@std@@@std@@PAUWeaponInfo@@V?$allocator@UWeaponInfo@@@2@@std@@YAPAUWeaponInfo@@V?$_Vector_const_iterator@V?$_Vector_val@UWeaponInfo@@V?$allocator@UWeaponInfo@@@std@@@std@@@0@0PAU1@AAV?$allocator@UWeaponInfo@@@0@U_Nonscalar_ptr_iterator_tag@0@@Z
  00007	e8 00 00 00 00	 call	 __EH_prolog3_catch

; 370  : 	_DEBUG_RANGE(_First, _Last);
; 371  : 	_DEBUG_POINTER(_Dest);
; 372  : 	_FwdIt _Next = _Dest;

  0000c	8b 45 10	 mov	 eax, DWORD PTR __Dest$[ebp]

; 373  : 
; 374  : 	_TRY_BEGIN

  0000f	83 65 fc 00	 and	 DWORD PTR __$EHRec$[ebp+12], 0
  00013	89 45 ec	 mov	 DWORD PTR __Next$[ebp], eax

; 375  : 	for (; _First != _Last; ++_Dest, ++_First)

$LL14@Uninit_cop@2:
  00016	8b 45 08	 mov	 eax, DWORD PTR __First$[ebp]
  00019	3b 45 0c	 cmp	 eax, DWORD PTR __Last$[ebp]
  0001c	74 34		 je	 SHORT $LN4@Uninit_cop@2

; 376  : 		_Cons_val(_Al, _Dest, *_First);

  0001e	50		 push	 eax
  0001f	ff 75 10	 push	 DWORD PTR __Dest$[ebp]
  00022	e8 00 00 00 00	 call	 ??$_Construct@UWeaponInfo@@ABU1@@std@@YAXPAUWeaponInfo@@ABU1@@Z ; std::_Construct<WeaponInfo,WeaponInfo const &>
  00027	83 45 10 28	 add	 DWORD PTR __Dest$[ebp], 40 ; 00000028H
  0002b	83 45 08 28	 add	 DWORD PTR __First$[ebp], 40 ; 00000028H
  0002f	59		 pop	 ecx
  00030	59		 pop	 ecx
  00031	eb e3		 jmp	 SHORT $LL14@Uninit_cop@2
__catch$??$_Uninit_copy@V?$_Vector_const_iterator@V?$_Vector_val@UWeaponInfo@@V?$allocator@UWeaponInfo@@@std@@@std@@@std@@PAUWeaponInfo@@V?$allocator@UWeaponInfo@@@2@@std@@YAPAUWeaponInfo@@V?$_Vector_const_iterator@V?$_Vector_val@UWeaponInfo@@V?$allocator@UWeaponInfo@@@std@@@std@@@0@0PAU1@AAV?$allocator@UWeaponInfo@@@0@U_Nonscalar_ptr_iterator_tag@0@@Z$0:

; 377  : 	_CATCH_ALL
; 378  : 	for (; _Next != _Dest; ++_Next)

  00033	8b 75 ec	 mov	 esi, DWORD PTR __Next$[ebp]
  00036	eb 0c		 jmp	 SHORT $LN48@Uninit_cop@2
$LL3@Uninit_cop@2:

; 379  : 		_Dest_val(_Al, _Next);

  00038	8d 4e 08	 lea	 ecx, DWORD PTR [esi+8]
  0003b	ff 15 00 00 00
	00		 call	 DWORD PTR __imp_??1ioHashString@@QAE@XZ
  00041	83 c6 28	 add	 esi, 40			; 00000028H
$LN48@Uninit_cop@2:

; 377  : 	_CATCH_ALL
; 378  : 	for (; _Next != _Dest; ++_Next)

  00044	3b 75 10	 cmp	 esi, DWORD PTR __Dest$[ebp]
  00047	75 ef		 jne	 SHORT $LL3@Uninit_cop@2

; 380  : 	_RERAISE;

  00049	6a 00		 push	 0
  0004b	6a 00		 push	 0
  0004d	e8 00 00 00 00	 call	 __CxxThrowException@8
$LN49@Uninit_cop@2:
$LN4@Uninit_cop@2:

; 381  : 	_CATCH_END
; 382  : 	return (_Dest);

  00052	8b 45 10	 mov	 eax, DWORD PTR __Dest$[ebp]

; 383  : 	}

  00055	e8 00 00 00 00	 call	 __EH_epilog3
  0005a	c3		 ret	 0
$LN47@Uninit_cop@2:
_TEXT	ENDS
;	COMDAT text$x
text$x	SEGMENT
__ehhandler$??$_Uninit_copy@V?$_Vector_const_iterator@V?$_Vector_val@UWeaponInfo@@V?$allocator@UWeaponInfo@@@std@@@std@@@std@@PAUWeaponInfo@@V?$allocator@UWeaponInfo@@@2@@std@@YAPAUWeaponInfo@@V?$_Vector_const_iterator@V?$_Vector_val@UWeaponInfo@@V?$allocator@UWeaponInfo@@@std@@@std@@@0@0PAU1@AAV?$allocator@UWeaponInfo@@@0@U_Nonscalar_ptr_iterator_tag@0@@Z:
  00000	8b 54 24 08	 mov	 edx, DWORD PTR [esp+8]
  00004	8d 42 0c	 lea	 eax, DWORD PTR [edx+12]
  00007	8b 4a e8	 mov	 ecx, DWORD PTR [edx-24]
  0000a	33 c8		 xor	 ecx, eax
  0000c	e8 00 00 00 00	 call	 @__security_check_cookie@4
  00011	b8 00 00 00 00	 mov	 eax, OFFSET __ehfuncinfo$??$_Uninit_copy@V?$_Vector_const_iterator@V?$_Vector_val@UWeaponInfo@@V?$allocator@UWeaponInfo@@@std@@@std@@@std@@PAUWeaponInfo@@V?$allocator@UWeaponInfo@@@2@@std@@YAPAUWeaponInfo@@V?$_Vector_const_iterator@V?$_Vector_val@UWeaponInfo@@V?$allocator@UWeaponInfo@@@std@@@std@@@0@0PAU1@AAV?$allocator@UWeaponInfo@@@0@U_Nonscalar_ptr_iterator_tag@0@@Z
  00016	e9 00 00 00 00	 jmp	 ___CxxFrameHandler3
text$x	ENDS
??$_Uninit_copy@V?$_Vector_const_iterator@V?$_Vector_val@UWeaponInfo@@V?$allocator@UWeaponInfo@@@std@@@std@@@std@@PAUWeaponInfo@@V?$allocator@UWeaponInfo@@@2@@std@@YAPAUWeaponInfo@@V?$_Vector_const_iterator@V?$_Vector_val@UWeaponInfo@@V?$allocator@UWeaponInfo@@@std@@@std@@@0@0PAU1@AAV?$allocator@UWeaponInfo@@@0@U_Nonscalar_ptr_iterator_tag@0@@Z ENDP ; std::_Uninit_copy<std::_Vector_const_iterator<std::_Vector_val<WeaponInfo,std::allocator<WeaponInfo> > >,WeaponInfo *,std::allocator<WeaponInfo> >
PUBLIC	??$_Destroy_range@V?$allocator@UForceInfo@@@std@@@std@@YAXPAUForceInfo@@0AAV?$allocator@UForceInfo@@@0@@Z ; std::_Destroy_range<std::allocator<ForceInfo> >
; Function compile flags: /Ogsp
; File c:\program files (x86)\microsoft visual studio 10.0\vc\include\xmemory
;	COMDAT ??$_Destroy_range@V?$allocator@UForceInfo@@@std@@@std@@YAXPAUForceInfo@@0AAV?$allocator@UForceInfo@@@0@@Z
_TEXT	SEGMENT
__First$ = 8						; size = 4
__Last$ = 12						; size = 4
__Al$ = 16						; size = 4
??$_Destroy_range@V?$allocator@UForceInfo@@@std@@@std@@YAXPAUForceInfo@@0AAV?$allocator@UForceInfo@@@0@@Z PROC ; std::_Destroy_range<std::allocator<ForceInfo> >, COMDAT

; 88   : 	_Destroy_range(_First, _Last, _Al, _Ptr_cat(_First, _Last));
; 89   : 	}

  00000	c3		 ret	 0
??$_Destroy_range@V?$allocator@UForceInfo@@@std@@@std@@YAXPAUForceInfo@@0AAV?$allocator@UForceInfo@@@0@@Z ENDP ; std::_Destroy_range<std::allocator<ForceInfo> >
_TEXT	ENDS
PUBLIC	??$_Destroy_range@V?$allocator@UWeaponInfo@@@std@@@std@@YAXPAUWeaponInfo@@0AAV?$allocator@UWeaponInfo@@@0@U_Nonscalar_ptr_iterator_tag@0@@Z ; std::_Destroy_range<std::allocator<WeaponInfo> >
; Function compile flags: /Ogsp
;	COMDAT ??$_Destroy_range@V?$allocator@UWeaponInfo@@@std@@@std@@YAXPAUWeaponInfo@@0AAV?$allocator@UWeaponInfo@@@0@U_Nonscalar_ptr_iterator_tag@0@@Z
_TEXT	SEGMENT
__First$ = 8						; size = 4
__Last$ = 12						; size = 4
__Al$ = 16						; size = 4
___formal$ = 20						; size = 1
??$_Destroy_range@V?$allocator@UWeaponInfo@@@std@@@std@@YAXPAUWeaponInfo@@0AAV?$allocator@UWeaponInfo@@@0@U_Nonscalar_ptr_iterator_tag@0@@Z PROC ; std::_Destroy_range<std::allocator<WeaponInfo> >, COMDAT

; 95   : 	{	// destroy [_First, _Last), arbitrary type

  00000	55		 push	 ebp
  00001	8b ec		 mov	 ebp, esp
  00003	56		 push	 esi

; 96   : 	for (; _First != _Last; ++_First)

  00004	8b 75 08	 mov	 esi, DWORD PTR __First$[ebp]
  00007	eb 0c		 jmp	 SHORT $LN20@Destroy_ra
$LL3@Destroy_ra:

; 97   : 		_Dest_val(_Al, _First);

  00009	8d 4e 08	 lea	 ecx, DWORD PTR [esi+8]
  0000c	ff 15 00 00 00
	00		 call	 DWORD PTR __imp_??1ioHashString@@QAE@XZ
  00012	83 c6 28	 add	 esi, 40			; 00000028H
$LN20@Destroy_ra:

; 96   : 	for (; _First != _Last; ++_First)

  00015	3b 75 0c	 cmp	 esi, DWORD PTR __Last$[ebp]
  00018	75 ef		 jne	 SHORT $LL3@Destroy_ra
  0001a	5e		 pop	 esi

; 98   : 	}

  0001b	5d		 pop	 ebp
  0001c	c3		 ret	 0
??$_Destroy_range@V?$allocator@UWeaponInfo@@@std@@@std@@YAXPAUWeaponInfo@@0AAV?$allocator@UWeaponInfo@@@0@U_Nonscalar_ptr_iterator_tag@0@@Z ENDP ; std::_Destroy_range<std::allocator<WeaponInfo> >
_TEXT	ENDS
PUBLIC	?CheckNormalAttack@ioRunChargeItem2@@UAEXPAVioBaseChar@@@Z ; ioRunChargeItem2::CheckNormalAttack
EXTRN	?CheckNormalAttack@ioAttackableItem@@UAEXPAVioBaseChar@@@Z:PROC ; ioAttackableItem::CheckNormalAttack
; Function compile flags: /Ogsp
; File d:\lost saga for developer\youtube\tutorial\source\src\lsclient\iorunchargeitem2.cpp
;	COMDAT ?CheckNormalAttack@ioRunChargeItem2@@UAEXPAVioBaseChar@@@Z
_TEXT	SEGMENT
_pOwner$ = 8						; size = 4
?CheckNormalAttack@ioRunChargeItem2@@UAEXPAVioBaseChar@@@Z PROC ; ioRunChargeItem2::CheckNormalAttack, COMDAT
; _this$ = ecx

; 198  : {

  00000	55		 push	 ebp
  00001	8b ec		 mov	 ebp, esp

; 199  : 	switch( m_ChargeState )

  00003	8b 81 54 19 00
	00		 mov	 eax, DWORD PTR [ecx+6484]
  00009	48		 dec	 eax
  0000a	74 24		 je	 SHORT $LN3@CheckNorma
  0000c	48		 dec	 eax
  0000d	74 1b		 je	 SHORT $LN5@CheckNorma
  0000f	48		 dec	 eax
  00010	74 12		 je	 SHORT $LN4@CheckNorma
  00012	48		 dec	 eax
  00013	74 09		 je	 SHORT $LN1@CheckNorma
  00015	48		 dec	 eax
  00016	75 1e		 jne	 SHORT $LN6@CheckNorma

; 215  : 		break;
; 216  : 	}
; 217  : }

  00018	5d		 pop	 ebp

; 209  : 		break;
; 210  : 	case CS_RETREAT:
; 211  : 		OnRetreatState( pOwner );

  00019	e9 00 00 00 00	 jmp	 ?OnRetreatState@ioRunChargeItem2@@IAEXPAVioBaseChar@@@Z ; ioRunChargeItem2::OnRetreatState
$LN1@CheckNorma:

; 215  : 		break;
; 216  : 	}
; 217  : }

  0001e	5d		 pop	 ebp

; 212  : 		break;
; 213  : 	case CS_FINISH_ATTACK:
; 214  : 		OnFinishAttackState( pOwner );

  0001f	e9 00 00 00 00	 jmp	 ?OnFinishAttackState@ioRunChargeItem2@@IAEXPAVioBaseChar@@@Z ; ioRunChargeItem2::OnFinishAttackState
$LN4@CheckNorma:

; 215  : 		break;
; 216  : 	}
; 217  : }

  00024	5d		 pop	 ebp

; 203  : 		break;
; 204  : 	case CS_RUN:
; 205  : 		OnRunState( pOwner );

  00025	e9 00 00 00 00	 jmp	 ?OnRunState@ioRunChargeItem2@@IAEXPAVioBaseChar@@@Z ; ioRunChargeItem2::OnRunState
$LN5@CheckNorma:

; 215  : 		break;
; 216  : 	}
; 217  : }

  0002a	5d		 pop	 ebp

; 200  : 	{
; 201  : 	case CS_CHARGING:
; 202  : 		OnCharging( pOwner );

  0002b	e9 00 00 00 00	 jmp	 ?OnCharging@ioRunChargeItem2@@IAEXPAVioBaseChar@@@Z ; ioRunChargeItem2::OnCharging
$LN3@CheckNorma:

; 215  : 		break;
; 216  : 	}
; 217  : }

  00030	5d		 pop	 ebp

; 206  : 		break;
; 207  : 	case CS_NORMAL_ATTACK:
; 208  : 		ioWeaponItem::CheckNormalAttack( pOwner );

  00031	e9 00 00 00 00	 jmp	 ?CheckNormalAttack@ioAttackableItem@@UAEXPAVioBaseChar@@@Z ; ioAttackableItem::CheckNormalAttack
$LN6@CheckNorma:

; 215  : 		break;
; 216  : 	}
; 217  : }

  00036	5d		 pop	 ebp
  00037	c2 04 00	 ret	 4
?CheckNormalAttack@ioRunChargeItem2@@UAEXPAVioBaseChar@@@Z ENDP ; ioRunChargeItem2::CheckNormalAttack
_TEXT	ENDS
PUBLIC	??$_Ucopy@V?$_Vector_const_iterator@V?$_Vector_val@UForceInfo@@V?$allocator@UForceInfo@@@std@@@std@@@std@@@?$vector@UForceInfo@@V?$allocator@UForceInfo@@@std@@@std@@IAEPAUForceInfo@@V?$_Vector_const_iterator@V?$_Vector_val@UForceInfo@@V?$allocator@UForceInfo@@@std@@@std@@@1@0PAU2@@Z ; std::vector<ForceInfo,std::allocator<ForceInfo> >::_Ucopy<std::_Vector_const_iterator<std::_Vector_val<ForceInfo,std::allocator<ForceInfo> > > >
; Function compile flags: /Ogsp
; File c:\program files (x86)\microsoft visual studio 10.0\vc\include\vector
;	COMDAT ??$_Ucopy@V?$_Vector_const_iterator@V?$_Vector_val@UForceInfo@@V?$allocator@UForceInfo@@@std@@@std@@@std@@@?$vector@UForceInfo@@V?$allocator@UForceInfo@@@std@@@std@@IAEPAUForceInfo@@V?$_Vector_const_iterator@V?$_Vector_val@UForceInfo@@V?$allocator@UForceInfo@@@std@@@std@@@1@0PAU2@@Z
_TEXT	SEGMENT
__First$ = 8						; size = 4
__Last$ = 12						; size = 4
__Cat$617917 = 16					; size = 1
__Ptr$ = 16						; size = 4
??$_Ucopy@V?$_Vector_const_iterator@V?$_Vector_val@UForceInfo@@V?$allocator@UForceInfo@@@std@@@std@@@std@@@?$vector@UForceInfo@@V?$allocator@UForceInfo@@@std@@@std@@IAEPAUForceInfo@@V?$_Vector_const_iterator@V?$_Vector_val@UForceInfo@@V?$allocator@UForceInfo@@@std@@@std@@@1@0PAU2@@Z PROC ; std::vector<ForceInfo,std::allocator<ForceInfo> >::_Ucopy<std::_Vector_const_iterator<std::_Vector_val<ForceInfo,std::allocator<ForceInfo> > > >, COMDAT
; _this$ = ecx

; 1315 : 		pointer _Ucopy(_Iter _First, _Iter _Last, pointer _Ptr)

  00000	55		 push	 ebp
  00001	8b ec		 mov	 ebp, esp

; 1316 : 		{	// copy initializing [_First, _Last), using allocator
; 1317 : 		return (_Uninitialized_copy(_First, _Last,
; 1318 : 			_Ptr, this->_Alval));

  00003	ff 75 10	 push	 DWORD PTR __Cat$617917[ebp]
  00006	83 c1 0c	 add	 ecx, 12			; 0000000cH
  00009	51		 push	 ecx
  0000a	ff 75 10	 push	 DWORD PTR __Ptr$[ebp]
  0000d	ff 75 0c	 push	 DWORD PTR __Last$[ebp]
  00010	ff 75 08	 push	 DWORD PTR __First$[ebp]
  00013	e8 00 00 00 00	 call	 ??$_Uninit_copy@V?$_Vector_const_iterator@V?$_Vector_val@UForceInfo@@V?$allocator@UForceInfo@@@std@@@std@@@std@@PAUForceInfo@@V?$allocator@UForceInfo@@@2@@std@@YAPAUForceInfo@@V?$_Vector_const_iterator@V?$_Vector_val@UForceInfo@@V?$allocator@UForceInfo@@@std@@@std@@@0@0PAU1@AAV?$allocator@UForceInfo@@@0@U_Nonscalar_ptr_iterator_tag@0@@Z ; std::_Uninit_copy<std::_Vector_const_iterator<std::_Vector_val<ForceInfo,std::allocator<ForceInfo> > >,ForceInfo *,std::allocator<ForceInfo> >
  00018	83 c4 14	 add	 esp, 20			; 00000014H

; 1319 : 		}

  0001b	5d		 pop	 ebp
  0001c	c2 0c 00	 ret	 12			; 0000000cH
??$_Ucopy@V?$_Vector_const_iterator@V?$_Vector_val@UForceInfo@@V?$allocator@UForceInfo@@@std@@@std@@@std@@@?$vector@UForceInfo@@V?$allocator@UForceInfo@@@std@@@std@@IAEPAUForceInfo@@V?$_Vector_const_iterator@V?$_Vector_val@UForceInfo@@V?$allocator@UForceInfo@@@std@@@std@@@1@0PAU2@@Z ENDP ; std::vector<ForceInfo,std::allocator<ForceInfo> >::_Ucopy<std::_Vector_const_iterator<std::_Vector_val<ForceInfo,std::allocator<ForceInfo> > > >
_TEXT	ENDS
PUBLIC	??$_Uninitialized_copy@V?$_Vector_const_iterator@V?$_Vector_val@UWeaponInfo@@V?$allocator@UWeaponInfo@@@std@@@std@@@std@@PAUWeaponInfo@@V?$allocator@UWeaponInfo@@@2@@std@@YAPAUWeaponInfo@@V?$_Vector_const_iterator@V?$_Vector_val@UWeaponInfo@@V?$allocator@UWeaponInfo@@@std@@@std@@@0@0PAU1@AAV?$allocator@UWeaponInfo@@@0@@Z ; std::_Uninitialized_copy<std::_Vector_const_iterator<std::_Vector_val<WeaponInfo,std::allocator<WeaponInfo> > >,WeaponInfo *,std::allocator<WeaponInfo> >
; Function compile flags: /Ogsp
; File c:\program files (x86)\microsoft visual studio 10.0\vc\include\memory
;	COMDAT ??$_Uninitialized_copy@V?$_Vector_const_iterator@V?$_Vector_val@UWeaponInfo@@V?$allocator@UWeaponInfo@@@std@@@std@@@std@@PAUWeaponInfo@@V?$allocator@UWeaponInfo@@@2@@std@@YAPAUWeaponInfo@@V?$_Vector_const_iterator@V?$_Vector_val@UWeaponInfo@@V?$allocator@UWeaponInfo@@@std@@@std@@@0@0PAU1@AAV?$allocator@UWeaponInfo@@@0@@Z
_TEXT	SEGMENT
__Cat$617927 = -4					; size = 1
__First$ = 8						; size = 4
__Last$ = 12						; size = 4
__Dest$ = 16						; size = 4
__Al$ = 20						; size = 4
??$_Uninitialized_copy@V?$_Vector_const_iterator@V?$_Vector_val@UWeaponInfo@@V?$allocator@UWeaponInfo@@@std@@@std@@@std@@PAUWeaponInfo@@V?$allocator@UWeaponInfo@@@2@@std@@YAPAUWeaponInfo@@V?$_Vector_const_iterator@V?$_Vector_val@UWeaponInfo@@V?$allocator@UWeaponInfo@@@std@@@std@@@0@0PAU1@AAV?$allocator@UWeaponInfo@@@0@@Z PROC ; std::_Uninitialized_copy<std::_Vector_const_iterator<std::_Vector_val<WeaponInfo,std::allocator<WeaponInfo> > >,WeaponInfo *,std::allocator<WeaponInfo> >, COMDAT

; 412  : 	{	// copy [_First, _Last) to raw _Dest, using _Al

  00000	55		 push	 ebp
  00001	8b ec		 mov	 ebp, esp
  00003	51		 push	 ecx

; 413  : 	return (_Uninit_copy(_First, _Last, _Dest, _Al,
; 414  : 		_Ptr_cat(_First, _Dest)));

  00004	ff 75 fc	 push	 DWORD PTR __Cat$617927[ebp]
  00007	ff 75 14	 push	 DWORD PTR __Al$[ebp]
  0000a	ff 75 10	 push	 DWORD PTR __Dest$[ebp]
  0000d	ff 75 0c	 push	 DWORD PTR __Last$[ebp]
  00010	ff 75 08	 push	 DWORD PTR __First$[ebp]
  00013	e8 00 00 00 00	 call	 ??$_Uninit_copy@V?$_Vector_const_iterator@V?$_Vector_val@UWeaponInfo@@V?$allocator@UWeaponInfo@@@std@@@std@@@std@@PAUWeaponInfo@@V?$allocator@UWeaponInfo@@@2@@std@@YAPAUWeaponInfo@@V?$_Vector_const_iterator@V?$_Vector_val@UWeaponInfo@@V?$allocator@UWeaponInfo@@@std@@@std@@@0@0PAU1@AAV?$allocator@UWeaponInfo@@@0@U_Nonscalar_ptr_iterator_tag@0@@Z ; std::_Uninit_copy<std::_Vector_const_iterator<std::_Vector_val<WeaponInfo,std::allocator<WeaponInfo> > >,WeaponInfo *,std::allocator<WeaponInfo> >
  00018	83 c4 14	 add	 esp, 20			; 00000014H

; 415  : 	}

  0001b	c9		 leave
  0001c	c3		 ret	 0
??$_Uninitialized_copy@V?$_Vector_const_iterator@V?$_Vector_val@UWeaponInfo@@V?$allocator@UWeaponInfo@@@std@@@std@@@std@@PAUWeaponInfo@@V?$allocator@UWeaponInfo@@@2@@std@@YAPAUWeaponInfo@@V?$_Vector_const_iterator@V?$_Vector_val@UWeaponInfo@@V?$allocator@UWeaponInfo@@@std@@@std@@@0@0PAU1@AAV?$allocator@UWeaponInfo@@@0@@Z ENDP ; std::_Uninitialized_copy<std::_Vector_const_iterator<std::_Vector_val<WeaponInfo,std::allocator<WeaponInfo> > >,WeaponInfo *,std::allocator<WeaponInfo> >
_TEXT	ENDS
PUBLIC	?_Destroy@?$vector@UForceInfo@@V?$allocator@UForceInfo@@@std@@@std@@IAEXPAUForceInfo@@0@Z ; std::vector<ForceInfo,std::allocator<ForceInfo> >::_Destroy
; Function compile flags: /Ogsp
; File c:\program files (x86)\microsoft visual studio 10.0\vc\include\vector
;	COMDAT ?_Destroy@?$vector@UForceInfo@@V?$allocator@UForceInfo@@@std@@@std@@IAEXPAUForceInfo@@0@Z
_TEXT	SEGMENT
__First$ = 8						; size = 4
__Last$ = 12						; size = 4
?_Destroy@?$vector@UForceInfo@@V?$allocator@UForceInfo@@@std@@@std@@IAEXPAUForceInfo@@0@Z PROC ; std::vector<ForceInfo,std::allocator<ForceInfo> >::_Destroy, COMDAT
; _this$ = ecx

; 1270 : 		_Destroy_range(_First, _Last, this->_Alval);
; 1271 : 		}

  00000	c2 08 00	 ret	 8
?_Destroy@?$vector@UForceInfo@@V?$allocator@UForceInfo@@@std@@@std@@IAEXPAUForceInfo@@0@Z ENDP ; std::vector<ForceInfo,std::allocator<ForceInfo> >::_Destroy
_TEXT	ENDS
PUBLIC	??$_Destroy_range@V?$allocator@UWeaponInfo@@@std@@@std@@YAXPAUWeaponInfo@@0AAV?$allocator@UWeaponInfo@@@0@@Z ; std::_Destroy_range<std::allocator<WeaponInfo> >
; Function compile flags: /Ogsp
; File c:\program files (x86)\microsoft visual studio 10.0\vc\include\xmemory
;	COMDAT ??$_Destroy_range@V?$allocator@UWeaponInfo@@@std@@@std@@YAXPAUWeaponInfo@@0AAV?$allocator@UWeaponInfo@@@0@@Z
_TEXT	SEGMENT
__First$ = 8						; size = 4
__Last$ = 12						; size = 4
__Al$ = 16						; size = 4
??$_Destroy_range@V?$allocator@UWeaponInfo@@@std@@@std@@YAXPAUWeaponInfo@@0AAV?$allocator@UWeaponInfo@@@0@@Z PROC ; std::_Destroy_range<std::allocator<WeaponInfo> >, COMDAT

; 87   : 	{	// destroy [_First, _Last)

  00000	55		 push	 ebp
  00001	8b ec		 mov	 ebp, esp
  00003	56		 push	 esi

; 88   : 	_Destroy_range(_First, _Last, _Al, _Ptr_cat(_First, _Last));

  00004	8b 75 08	 mov	 esi, DWORD PTR __First$[ebp]
  00007	eb 0c		 jmp	 SHORT $LN24@Destroy_ra@2
$LL7@Destroy_ra@2:
  00009	8d 4e 08	 lea	 ecx, DWORD PTR [esi+8]
  0000c	ff 15 00 00 00
	00		 call	 DWORD PTR __imp_??1ioHashString@@QAE@XZ
  00012	83 c6 28	 add	 esi, 40			; 00000028H
$LN24@Destroy_ra@2:
  00015	3b 75 0c	 cmp	 esi, DWORD PTR __Last$[ebp]
  00018	75 ef		 jne	 SHORT $LL7@Destroy_ra@2
  0001a	5e		 pop	 esi

; 89   : 	}

  0001b	5d		 pop	 ebp
  0001c	c3		 ret	 0
??$_Destroy_range@V?$allocator@UWeaponInfo@@@std@@@std@@YAXPAUWeaponInfo@@0AAV?$allocator@UWeaponInfo@@@0@@Z ENDP ; std::_Destroy_range<std::allocator<WeaponInfo> >
_TEXT	ENDS
PUBLIC	??$_Ucopy@V?$_Vector_const_iterator@V?$_Vector_val@UWeaponInfo@@V?$allocator@UWeaponInfo@@@std@@@std@@@std@@@?$vector@UWeaponInfo@@V?$allocator@UWeaponInfo@@@std@@@std@@IAEPAUWeaponInfo@@V?$_Vector_const_iterator@V?$_Vector_val@UWeaponInfo@@V?$allocator@UWeaponInfo@@@std@@@std@@@1@0PAU2@@Z ; std::vector<WeaponInfo,std::allocator<WeaponInfo> >::_Ucopy<std::_Vector_const_iterator<std::_Vector_val<WeaponInfo,std::allocator<WeaponInfo> > > >
; Function compile flags: /Ogsp
; File c:\program files (x86)\microsoft visual studio 10.0\vc\include\vector
;	COMDAT ??$_Ucopy@V?$_Vector_const_iterator@V?$_Vector_val@UWeaponInfo@@V?$allocator@UWeaponInfo@@@std@@@std@@@std@@@?$vector@UWeaponInfo@@V?$allocator@UWeaponInfo@@@std@@@std@@IAEPAUWeaponInfo@@V?$_Vector_const_iterator@V?$_Vector_val@UWeaponInfo@@V?$allocator@UWeaponInfo@@@std@@@std@@@1@0PAU2@@Z
_TEXT	SEGMENT
__First$ = 8						; size = 4
__Last$ = 12						; size = 4
__Cat$618064 = 16					; size = 1
__Ptr$ = 16						; size = 4
??$_Ucopy@V?$_Vector_const_iterator@V?$_Vector_val@UWeaponInfo@@V?$allocator@UWeaponInfo@@@std@@@std@@@std@@@?$vector@UWeaponInfo@@V?$allocator@UWeaponInfo@@@std@@@std@@IAEPAUWeaponInfo@@V?$_Vector_const_iterator@V?$_Vector_val@UWeaponInfo@@V?$allocator@UWeaponInfo@@@std@@@std@@@1@0PAU2@@Z PROC ; std::vector<WeaponInfo,std::allocator<WeaponInfo> >::_Ucopy<std::_Vector_const_iterator<std::_Vector_val<WeaponInfo,std::allocator<WeaponInfo> > > >, COMDAT
; _this$ = ecx

; 1315 : 		pointer _Ucopy(_Iter _First, _Iter _Last, pointer _Ptr)

  00000	55		 push	 ebp
  00001	8b ec		 mov	 ebp, esp

; 1316 : 		{	// copy initializing [_First, _Last), using allocator
; 1317 : 		return (_Uninitialized_copy(_First, _Last,
; 1318 : 			_Ptr, this->_Alval));

  00003	ff 75 10	 push	 DWORD PTR __Cat$618064[ebp]
  00006	83 c1 0c	 add	 ecx, 12			; 0000000cH
  00009	51		 push	 ecx
  0000a	ff 75 10	 push	 DWORD PTR __Ptr$[ebp]
  0000d	ff 75 0c	 push	 DWORD PTR __Last$[ebp]
  00010	ff 75 08	 push	 DWORD PTR __First$[ebp]
  00013	e8 00 00 00 00	 call	 ??$_Uninit_copy@V?$_Vector_const_iterator@V?$_Vector_val@UWeaponInfo@@V?$allocator@UWeaponInfo@@@std@@@std@@@std@@PAUWeaponInfo@@V?$allocator@UWeaponInfo@@@2@@std@@YAPAUWeaponInfo@@V?$_Vector_const_iterator@V?$_Vector_val@UWeaponInfo@@V?$allocator@UWeaponInfo@@@std@@@std@@@0@0PAU1@AAV?$allocator@UWeaponInfo@@@0@U_Nonscalar_ptr_iterator_tag@0@@Z ; std::_Uninit_copy<std::_Vector_const_iterator<std::_Vector_val<WeaponInfo,std::allocator<WeaponInfo> > >,WeaponInfo *,std::allocator<WeaponInfo> >
  00018	83 c4 14	 add	 esp, 20			; 00000014H

; 1319 : 		}

  0001b	5d		 pop	 ebp
  0001c	c2 0c 00	 ret	 12			; 0000000cH
??$_Ucopy@V?$_Vector_const_iterator@V?$_Vector_val@UWeaponInfo@@V?$allocator@UWeaponInfo@@@std@@@std@@@std@@@?$vector@UWeaponInfo@@V?$allocator@UWeaponInfo@@@std@@@std@@IAEPAUWeaponInfo@@V?$_Vector_const_iterator@V?$_Vector_val@UWeaponInfo@@V?$allocator@UWeaponInfo@@@std@@@std@@@1@0PAU2@@Z ENDP ; std::vector<WeaponInfo,std::allocator<WeaponInfo> >::_Ucopy<std::_Vector_const_iterator<std::_Vector_val<WeaponInfo,std::allocator<WeaponInfo> > > >
_TEXT	ENDS
PUBLIC	?_Tidy@?$vector@UForceInfo@@V?$allocator@UForceInfo@@@std@@@std@@IAEXXZ ; std::vector<ForceInfo,std::allocator<ForceInfo> >::_Tidy
EXTRN	__imp_?_Orphan_all@_Container_base0@std@@QAEXXZ:PROC
; Function compile flags: /Ogsp
;	COMDAT ?_Tidy@?$vector@UForceInfo@@V?$allocator@UForceInfo@@@std@@@std@@IAEXXZ
_TEXT	SEGMENT
?_Tidy@?$vector@UForceInfo@@V?$allocator@UForceInfo@@@std@@@std@@IAEXXZ PROC ; std::vector<ForceInfo,std::allocator<ForceInfo> >::_Tidy, COMDAT
; _this$ = ecx

; 1301 : 		{	// free all storage

  00000	56		 push	 esi
  00001	8b f1		 mov	 esi, ecx

; 1302 : 		if (this->_Myfirst != 0)

  00003	83 3e 00	 cmp	 DWORD PTR [esi], 0
  00006	74 0e		 je	 SHORT $LN21@Tidy

; 1303 : 			{	// something to free, destroy and deallocate it
; 1304 : 			this->_Orphan_all();

  00008	ff 15 00 00 00
	00		 call	 DWORD PTR __imp_?_Orphan_all@_Container_base0@std@@QAEXXZ

; 1305 : 			_Destroy(this->_Myfirst, this->_Mylast);
; 1306 : 			this->_Alval.deallocate(this->_Myfirst,
; 1307 : 				this->_Myend - this->_Myfirst);

  0000e	ff 36		 push	 DWORD PTR [esi]
  00010	e8 00 00 00 00	 call	 ??3@YAXPAX@Z		; operator delete
  00015	59		 pop	 ecx
$LN21@Tidy:

; 1308 : 			}
; 1309 : 		this->_Myfirst = 0;

  00016	83 26 00	 and	 DWORD PTR [esi], 0

; 1310 : 		this->_Mylast = 0;

  00019	83 66 04 00	 and	 DWORD PTR [esi+4], 0

; 1311 : 		this->_Myend = 0;

  0001d	83 66 08 00	 and	 DWORD PTR [esi+8], 0
  00021	5e		 pop	 esi

; 1312 : 		}

  00022	c3		 ret	 0
?_Tidy@?$vector@UForceInfo@@V?$allocator@UForceInfo@@@std@@@std@@IAEXXZ ENDP ; std::vector<ForceInfo,std::allocator<ForceInfo> >::_Tidy
_TEXT	ENDS
PUBLIC	?_Destroy@?$vector@UWeaponInfo@@V?$allocator@UWeaponInfo@@@std@@@std@@IAEXPAUWeaponInfo@@0@Z ; std::vector<WeaponInfo,std::allocator<WeaponInfo> >::_Destroy
; Function compile flags: /Ogsp
;	COMDAT ?_Destroy@?$vector@UWeaponInfo@@V?$allocator@UWeaponInfo@@@std@@@std@@IAEXPAUWeaponInfo@@0@Z
_TEXT	SEGMENT
__First$ = 8						; size = 4
__Last$ = 12						; size = 4
?_Destroy@?$vector@UWeaponInfo@@V?$allocator@UWeaponInfo@@@std@@@std@@IAEXPAUWeaponInfo@@0@Z PROC ; std::vector<WeaponInfo,std::allocator<WeaponInfo> >::_Destroy, COMDAT
; _this$ = ecx

; 1269 : 		{	// destroy [_First, _Last) using allocator

  00000	55		 push	 ebp
  00001	8b ec		 mov	 ebp, esp

; 1270 : 		_Destroy_range(_First, _Last, this->_Alval);

  00003	83 c1 0c	 add	 ecx, 12			; 0000000cH
  00006	51		 push	 ecx
  00007	ff 75 0c	 push	 DWORD PTR __Last$[ebp]
  0000a	ff 75 08	 push	 DWORD PTR __First$[ebp]
  0000d	e8 00 00 00 00	 call	 ??$_Destroy_range@V?$allocator@UWeaponInfo@@@std@@@std@@YAXPAUWeaponInfo@@0AAV?$allocator@UWeaponInfo@@@0@@Z ; std::_Destroy_range<std::allocator<WeaponInfo> >
  00012	83 c4 0c	 add	 esp, 12			; 0000000cH

; 1271 : 		}

  00015	5d		 pop	 ebp
  00016	c2 08 00	 ret	 8
?_Destroy@?$vector@UWeaponInfo@@V?$allocator@UWeaponInfo@@@std@@@std@@IAEXPAUWeaponInfo@@0@Z ENDP ; std::vector<WeaponInfo,std::allocator<WeaponInfo> >::_Destroy
_TEXT	ENDS
PUBLIC	??0?$vector@UForceInfo@@V?$allocator@UForceInfo@@@std@@@std@@QAE@ABV01@@Z ; std::vector<ForceInfo,std::allocator<ForceInfo> >::vector<ForceInfo,std::allocator<ForceInfo> >
;	COMDAT xdata$x
; File c:\program files (x86)\microsoft visual studio 10.0\vc\include\xutility
xdata$x	SEGMENT
__catchsym$??0?$vector@UForceInfo@@V?$allocator@UForceInfo@@@std@@@std@@QAE@ABV01@@Z$2 DD 040H
	DD	00H
	DD	00H
	DD	FLAT:__catch$??0?$vector@UForceInfo@@V?$allocator@UForceInfo@@@std@@@std@@QAE@ABV01@@Z$0
__unwindtable$??0?$vector@UForceInfo@@V?$allocator@UForceInfo@@@std@@@std@@QAE@ABV01@@Z DD 0ffffffffH
	DD	00H
	DD	0ffffffffH
	DD	00H
__tryblocktable$??0?$vector@UForceInfo@@V?$allocator@UForceInfo@@@std@@@std@@QAE@ABV01@@Z DD 00H
	DD	00H
	DD	01H
	DD	01H
	DD	FLAT:__catchsym$??0?$vector@UForceInfo@@V?$allocator@UForceInfo@@@std@@@std@@QAE@ABV01@@Z$2
__ehfuncinfo$??0?$vector@UForceInfo@@V?$allocator@UForceInfo@@@std@@@std@@QAE@ABV01@@Z DD 019930522H
	DD	02H
	DD	FLAT:__unwindtable$??0?$vector@UForceInfo@@V?$allocator@UForceInfo@@@std@@@std@@QAE@ABV01@@Z
	DD	01H
	DD	FLAT:__tryblocktable$??0?$vector@UForceInfo@@V?$allocator@UForceInfo@@@std@@@std@@QAE@ABV01@@Z
	DD	2 DUP(00H)
	DD	00H
	DD	01H
; Function compile flags: /Ogsp
; File c:\program files (x86)\microsoft visual studio 10.0\vc\include\vector
xdata$x	ENDS
;	COMDAT ??0?$vector@UForceInfo@@V?$allocator@UForceInfo@@@std@@@std@@QAE@ABV01@@Z
_TEXT	SEGMENT
_this$ = -20						; size = 4
__$EHRec$ = -16						; size = 16
__Cat$618230 = 8					; size = 1
__Right$ = 8						; size = 4
??0?$vector@UForceInfo@@V?$allocator@UForceInfo@@@std@@@std@@QAE@ABV01@@Z PROC ; std::vector<ForceInfo,std::allocator<ForceInfo> >::vector<ForceInfo,std::allocator<ForceInfo> >, COMDAT
; _this$ = ecx

; 535  : 		{	// construct by copying _Right

  00000	6a 08		 push	 8
  00002	b8 00 00 00 00	 mov	 eax, __ehhandler$??0?$vector@UForceInfo@@V?$allocator@UForceInfo@@@std@@@std@@QAE@ABV01@@Z
  00007	e8 00 00 00 00	 call	 __EH_prolog3_catch
  0000c	8b f1		 mov	 esi, ecx
  0000e	89 75 ec	 mov	 DWORD PTR _this$[ebp], esi

; 536  : 		if (_Buy(_Right.size()))

  00011	8b 7d 08	 mov	 edi, DWORD PTR __Right$[ebp]
  00014	33 db		 xor	 ebx, ebx
  00016	89 1e		 mov	 DWORD PTR [esi], ebx
  00018	89 5e 04	 mov	 DWORD PTR [esi+4], ebx
  0001b	89 5e 08	 mov	 DWORD PTR [esi+8], ebx
  0001e	8b 47 04	 mov	 eax, DWORD PTR [edi+4]
  00021	2b 07		 sub	 eax, DWORD PTR [edi]
  00023	6a 0c		 push	 12			; 0000000cH
  00025	59		 pop	 ecx
  00026	99		 cdq
  00027	f7 f9		 idiv	 ecx
  00029	8b ce		 mov	 ecx, esi
  0002b	50		 push	 eax
  0002c	e8 00 00 00 00	 call	 ?_Buy@?$vector@UForceInfo@@V?$allocator@UForceInfo@@@std@@@std@@IAE_NI@Z ; std::vector<ForceInfo,std::allocator<ForceInfo> >::_Buy
  00031	84 c0		 test	 al, al
  00033	74 1f		 je	 SHORT $LN7@vector

; 537  : 			_TRY_BEGIN
; 538  : 			this->_Mylast = _Ucopy(_Right.begin(), _Right.end(),
; 539  : 				this->_Myfirst);

  00035	ff 75 08	 push	 DWORD PTR __Cat$618230[ebp]
  00038	8b 0e		 mov	 ecx, DWORD PTR [esi]
  0003a	8b 47 04	 mov	 eax, DWORD PTR [edi+4]
  0003d	8b 3f		 mov	 edi, DWORD PTR [edi]
  0003f	8d 56 0c	 lea	 edx, DWORD PTR [esi+12]
  00042	52		 push	 edx
  00043	51		 push	 ecx
  00044	50		 push	 eax
  00045	57		 push	 edi
  00046	89 5d fc	 mov	 DWORD PTR __$EHRec$[ebp+12], ebx
  00049	e8 00 00 00 00	 call	 ??$_Uninit_copy@V?$_Vector_const_iterator@V?$_Vector_val@UForceInfo@@V?$allocator@UForceInfo@@@std@@@std@@@std@@PAUForceInfo@@V?$allocator@UForceInfo@@@2@@std@@YAPAUForceInfo@@V?$_Vector_const_iterator@V?$_Vector_val@UForceInfo@@V?$allocator@UForceInfo@@@std@@@std@@@0@0PAU1@AAV?$allocator@UForceInfo@@@0@U_Nonscalar_ptr_iterator_tag@0@@Z ; std::_Uninit_copy<std::_Vector_const_iterator<std::_Vector_val<ForceInfo,std::allocator<ForceInfo> > >,ForceInfo *,std::allocator<ForceInfo> >
  0004e	83 c4 14	 add	 esp, 20			; 00000014H
  00051	89 46 04	 mov	 DWORD PTR [esi+4], eax
$LN7@vector:

; 543  : 			_CATCH_END
; 544  : 		}

  00054	8b c6		 mov	 eax, esi
  00056	e8 00 00 00 00	 call	 __EH_epilog3
  0005b	c2 04 00	 ret	 4
__catch$??0?$vector@UForceInfo@@V?$allocator@UForceInfo@@@std@@@std@@QAE@ABV01@@Z$0:

; 540  : 			_CATCH_ALL
; 541  : 			_Tidy();

  0005e	8b 4d ec	 mov	 ecx, DWORD PTR _this$[ebp]
  00061	e8 00 00 00 00	 call	 ?_Tidy@?$vector@UForceInfo@@V?$allocator@UForceInfo@@@std@@@std@@IAEXXZ ; std::vector<ForceInfo,std::allocator<ForceInfo> >::_Tidy

; 542  : 			_RERAISE;

  00066	33 db		 xor	 ebx, ebx
  00068	53		 push	 ebx
  00069	53		 push	 ebx
  0006a	e8 00 00 00 00	 call	 __CxxThrowException@8
$LN38@vector:
$LN37@vector:
  0006f	cc		 int	 3
_TEXT	ENDS
;	COMDAT text$x
text$x	SEGMENT
__ehhandler$??0?$vector@UForceInfo@@V?$allocator@UForceInfo@@@std@@@std@@QAE@ABV01@@Z:
  00000	8b 54 24 08	 mov	 edx, DWORD PTR [esp+8]
  00004	8d 42 0c	 lea	 eax, DWORD PTR [edx+12]
  00007	8b 4a e8	 mov	 ecx, DWORD PTR [edx-24]
  0000a	33 c8		 xor	 ecx, eax
  0000c	e8 00 00 00 00	 call	 @__security_check_cookie@4
  00011	b8 00 00 00 00	 mov	 eax, OFFSET __ehfuncinfo$??0?$vector@UForceInfo@@V?$allocator@UForceInfo@@@std@@@std@@QAE@ABV01@@Z
  00016	e9 00 00 00 00	 jmp	 ___CxxFrameHandler3
text$x	ENDS
??0?$vector@UForceInfo@@V?$allocator@UForceInfo@@@std@@@std@@QAE@ABV01@@Z ENDP ; std::vector<ForceInfo,std::allocator<ForceInfo> >::vector<ForceInfo,std::allocator<ForceInfo> >
PUBLIC	??1?$vector@UForceInfo@@V?$allocator@UForceInfo@@@std@@@std@@QAE@XZ ; std::vector<ForceInfo,std::allocator<ForceInfo> >::~vector<ForceInfo,std::allocator<ForceInfo> >
; Function compile flags: /Ogsp
;	COMDAT ??1?$vector@UForceInfo@@V?$allocator@UForceInfo@@@std@@@std@@QAE@XZ
_TEXT	SEGMENT
??1?$vector@UForceInfo@@V?$allocator@UForceInfo@@@std@@@std@@QAE@XZ PROC ; std::vector<ForceInfo,std::allocator<ForceInfo> >::~vector<ForceInfo,std::allocator<ForceInfo> >, COMDAT
; _this$ = ecx

; 705  : 		_Tidy();

  00000	e9 00 00 00 00	 jmp	 ?_Tidy@?$vector@UForceInfo@@V?$allocator@UForceInfo@@@std@@@std@@IAEXXZ ; std::vector<ForceInfo,std::allocator<ForceInfo> >::_Tidy
??1?$vector@UForceInfo@@V?$allocator@UForceInfo@@@std@@@std@@QAE@XZ ENDP ; std::vector<ForceInfo,std::allocator<ForceInfo> >::~vector<ForceInfo,std::allocator<ForceInfo> >
_TEXT	ENDS
PUBLIC	?_Tidy@?$vector@UWeaponInfo@@V?$allocator@UWeaponInfo@@@std@@@std@@IAEXXZ ; std::vector<WeaponInfo,std::allocator<WeaponInfo> >::_Tidy
; Function compile flags: /Ogsp
;	COMDAT ?_Tidy@?$vector@UWeaponInfo@@V?$allocator@UWeaponInfo@@@std@@@std@@IAEXXZ
_TEXT	SEGMENT
?_Tidy@?$vector@UWeaponInfo@@V?$allocator@UWeaponInfo@@@std@@@std@@IAEXXZ PROC ; std::vector<WeaponInfo,std::allocator<WeaponInfo> >::_Tidy, COMDAT
; _this$ = ecx

; 1301 : 		{	// free all storage

  00000	56		 push	 esi
  00001	8b f1		 mov	 esi, ecx

; 1302 : 		if (this->_Myfirst != 0)

  00003	83 3e 00	 cmp	 DWORD PTR [esi], 0
  00006	74 1e		 je	 SHORT $LN6@Tidy@2

; 1303 : 			{	// something to free, destroy and deallocate it
; 1304 : 			this->_Orphan_all();

  00008	ff 15 00 00 00
	00		 call	 DWORD PTR __imp_?_Orphan_all@_Container_base0@std@@QAEXXZ

; 1305 : 			_Destroy(this->_Myfirst, this->_Mylast);

  0000e	8d 46 0c	 lea	 eax, DWORD PTR [esi+12]
  00011	50		 push	 eax
  00012	ff 76 04	 push	 DWORD PTR [esi+4]
  00015	ff 36		 push	 DWORD PTR [esi]
  00017	e8 00 00 00 00	 call	 ??$_Destroy_range@V?$allocator@UWeaponInfo@@@std@@@std@@YAXPAUWeaponInfo@@0AAV?$allocator@UWeaponInfo@@@0@@Z ; std::_Destroy_range<std::allocator<WeaponInfo> >

; 1306 : 			this->_Alval.deallocate(this->_Myfirst,
; 1307 : 				this->_Myend - this->_Myfirst);

  0001c	ff 36		 push	 DWORD PTR [esi]
  0001e	e8 00 00 00 00	 call	 ??3@YAXPAX@Z		; operator delete
  00023	83 c4 10	 add	 esp, 16			; 00000010H
$LN6@Tidy@2:

; 1308 : 			}
; 1309 : 		this->_Myfirst = 0;

  00026	83 26 00	 and	 DWORD PTR [esi], 0

; 1310 : 		this->_Mylast = 0;

  00029	83 66 04 00	 and	 DWORD PTR [esi+4], 0

; 1311 : 		this->_Myend = 0;

  0002d	83 66 08 00	 and	 DWORD PTR [esi+8], 0
  00031	5e		 pop	 esi

; 1312 : 		}

  00032	c3		 ret	 0
?_Tidy@?$vector@UWeaponInfo@@V?$allocator@UWeaponInfo@@@std@@@std@@IAEXXZ ENDP ; std::vector<WeaponInfo,std::allocator<WeaponInfo> >::_Tidy
_TEXT	ENDS
PUBLIC	??0?$vector@UWeaponInfo@@V?$allocator@UWeaponInfo@@@std@@@std@@QAE@ABV01@@Z ; std::vector<WeaponInfo,std::allocator<WeaponInfo> >::vector<WeaponInfo,std::allocator<WeaponInfo> >
;	COMDAT xdata$x
; File c:\program files (x86)\microsoft visual studio 10.0\vc\include\xutility
xdata$x	SEGMENT
__catchsym$??0?$vector@UWeaponInfo@@V?$allocator@UWeaponInfo@@@std@@@std@@QAE@ABV01@@Z$2 DD 040H
	DD	00H
	DD	00H
	DD	FLAT:__catch$??0?$vector@UWeaponInfo@@V?$allocator@UWeaponInfo@@@std@@@std@@QAE@ABV01@@Z$0
__unwindtable$??0?$vector@UWeaponInfo@@V?$allocator@UWeaponInfo@@@std@@@std@@QAE@ABV01@@Z DD 0ffffffffH
	DD	00H
	DD	0ffffffffH
	DD	00H
__tryblocktable$??0?$vector@UWeaponInfo@@V?$allocator@UWeaponInfo@@@std@@@std@@QAE@ABV01@@Z DD 00H
	DD	00H
	DD	01H
	DD	01H
	DD	FLAT:__catchsym$??0?$vector@UWeaponInfo@@V?$allocator@UWeaponInfo@@@std@@@std@@QAE@ABV01@@Z$2
__ehfuncinfo$??0?$vector@UWeaponInfo@@V?$allocator@UWeaponInfo@@@std@@@std@@QAE@ABV01@@Z DD 019930522H
	DD	02H
	DD	FLAT:__unwindtable$??0?$vector@UWeaponInfo@@V?$allocator@UWeaponInfo@@@std@@@std@@QAE@ABV01@@Z
	DD	01H
	DD	FLAT:__tryblocktable$??0?$vector@UWeaponInfo@@V?$allocator@UWeaponInfo@@@std@@@std@@QAE@ABV01@@Z
	DD	2 DUP(00H)
	DD	00H
	DD	01H
; Function compile flags: /Ogsp
; File c:\program files (x86)\microsoft visual studio 10.0\vc\include\vector
xdata$x	ENDS
;	COMDAT ??0?$vector@UWeaponInfo@@V?$allocator@UWeaponInfo@@@std@@@std@@QAE@ABV01@@Z
_TEXT	SEGMENT
_this$ = -20						; size = 4
__$EHRec$ = -16						; size = 16
__Cat$618345 = 8					; size = 1
__Right$ = 8						; size = 4
??0?$vector@UWeaponInfo@@V?$allocator@UWeaponInfo@@@std@@@std@@QAE@ABV01@@Z PROC ; std::vector<WeaponInfo,std::allocator<WeaponInfo> >::vector<WeaponInfo,std::allocator<WeaponInfo> >, COMDAT
; _this$ = ecx

; 535  : 		{	// construct by copying _Right

  00000	6a 08		 push	 8
  00002	b8 00 00 00 00	 mov	 eax, __ehhandler$??0?$vector@UWeaponInfo@@V?$allocator@UWeaponInfo@@@std@@@std@@QAE@ABV01@@Z
  00007	e8 00 00 00 00	 call	 __EH_prolog3_catch
  0000c	8b f1		 mov	 esi, ecx
  0000e	89 75 ec	 mov	 DWORD PTR _this$[ebp], esi

; 536  : 		if (_Buy(_Right.size()))

  00011	8b 7d 08	 mov	 edi, DWORD PTR __Right$[ebp]
  00014	33 db		 xor	 ebx, ebx
  00016	89 1e		 mov	 DWORD PTR [esi], ebx
  00018	89 5e 04	 mov	 DWORD PTR [esi+4], ebx
  0001b	89 5e 08	 mov	 DWORD PTR [esi+8], ebx
  0001e	8b 47 04	 mov	 eax, DWORD PTR [edi+4]
  00021	2b 07		 sub	 eax, DWORD PTR [edi]
  00023	6a 28		 push	 40			; 00000028H
  00025	59		 pop	 ecx
  00026	99		 cdq
  00027	f7 f9		 idiv	 ecx
  00029	8b ce		 mov	 ecx, esi
  0002b	50		 push	 eax
  0002c	e8 00 00 00 00	 call	 ?_Buy@?$vector@UWeaponInfo@@V?$allocator@UWeaponInfo@@@std@@@std@@IAE_NI@Z ; std::vector<WeaponInfo,std::allocator<WeaponInfo> >::_Buy
  00031	84 c0		 test	 al, al
  00033	74 1f		 je	 SHORT $LN7@vector@2

; 537  : 			_TRY_BEGIN
; 538  : 			this->_Mylast = _Ucopy(_Right.begin(), _Right.end(),
; 539  : 				this->_Myfirst);

  00035	ff 75 08	 push	 DWORD PTR __Cat$618345[ebp]
  00038	8b 0e		 mov	 ecx, DWORD PTR [esi]
  0003a	8b 47 04	 mov	 eax, DWORD PTR [edi+4]
  0003d	8b 3f		 mov	 edi, DWORD PTR [edi]
  0003f	8d 56 0c	 lea	 edx, DWORD PTR [esi+12]
  00042	52		 push	 edx
  00043	51		 push	 ecx
  00044	50		 push	 eax
  00045	57		 push	 edi
  00046	89 5d fc	 mov	 DWORD PTR __$EHRec$[ebp+12], ebx
  00049	e8 00 00 00 00	 call	 ??$_Uninit_copy@V?$_Vector_const_iterator@V?$_Vector_val@UWeaponInfo@@V?$allocator@UWeaponInfo@@@std@@@std@@@std@@PAUWeaponInfo@@V?$allocator@UWeaponInfo@@@2@@std@@YAPAUWeaponInfo@@V?$_Vector_const_iterator@V?$_Vector_val@UWeaponInfo@@V?$allocator@UWeaponInfo@@@std@@@std@@@0@0PAU1@AAV?$allocator@UWeaponInfo@@@0@U_Nonscalar_ptr_iterator_tag@0@@Z ; std::_Uninit_copy<std::_Vector_const_iterator<std::_Vector_val<WeaponInfo,std::allocator<WeaponInfo> > >,WeaponInfo *,std::allocator<WeaponInfo> >
  0004e	83 c4 14	 add	 esp, 20			; 00000014H
  00051	89 46 04	 mov	 DWORD PTR [esi+4], eax
$LN7@vector@2:

; 543  : 			_CATCH_END
; 544  : 		}

  00054	8b c6		 mov	 eax, esi
  00056	e8 00 00 00 00	 call	 __EH_epilog3
  0005b	c2 04 00	 ret	 4
__catch$??0?$vector@UWeaponInfo@@V?$allocator@UWeaponInfo@@@std@@@std@@QAE@ABV01@@Z$0:

; 540  : 			_CATCH_ALL
; 541  : 			_Tidy();

  0005e	8b 4d ec	 mov	 ecx, DWORD PTR _this$[ebp]
  00061	e8 00 00 00 00	 call	 ?_Tidy@?$vector@UWeaponInfo@@V?$allocator@UWeaponInfo@@@std@@@std@@IAEXXZ ; std::vector<WeaponInfo,std::allocator<WeaponInfo> >::_Tidy

; 542  : 			_RERAISE;

  00066	33 db		 xor	 ebx, ebx
  00068	53		 push	 ebx
  00069	53		 push	 ebx
  0006a	e8 00 00 00 00	 call	 __CxxThrowException@8
$LN38@vector@2:
$LN37@vector@2:
  0006f	cc		 int	 3
_TEXT	ENDS
;	COMDAT text$x
text$x	SEGMENT
__ehhandler$??0?$vector@UWeaponInfo@@V?$allocator@UWeaponInfo@@@std@@@std@@QAE@ABV01@@Z:
  00000	8b 54 24 08	 mov	 edx, DWORD PTR [esp+8]
  00004	8d 42 0c	 lea	 eax, DWORD PTR [edx+12]
  00007	8b 4a e8	 mov	 ecx, DWORD PTR [edx-24]
  0000a	33 c8		 xor	 ecx, eax
  0000c	e8 00 00 00 00	 call	 @__security_check_cookie@4
  00011	b8 00 00 00 00	 mov	 eax, OFFSET __ehfuncinfo$??0?$vector@UWeaponInfo@@V?$allocator@UWeaponInfo@@@std@@@std@@QAE@ABV01@@Z
  00016	e9 00 00 00 00	 jmp	 ___CxxFrameHandler3
text$x	ENDS
??0?$vector@UWeaponInfo@@V?$allocator@UWeaponInfo@@@std@@@std@@QAE@ABV01@@Z ENDP ; std::vector<WeaponInfo,std::allocator<WeaponInfo> >::vector<WeaponInfo,std::allocator<WeaponInfo> >
PUBLIC	??1?$vector@UWeaponInfo@@V?$allocator@UWeaponInfo@@@std@@@std@@QAE@XZ ; std::vector<WeaponInfo,std::allocator<WeaponInfo> >::~vector<WeaponInfo,std::allocator<WeaponInfo> >
; Function compile flags: /Ogsp
;	COMDAT ??1?$vector@UWeaponInfo@@V?$allocator@UWeaponInfo@@@std@@@std@@QAE@XZ
_TEXT	SEGMENT
??1?$vector@UWeaponInfo@@V?$allocator@UWeaponInfo@@@std@@@std@@QAE@XZ PROC ; std::vector<WeaponInfo,std::allocator<WeaponInfo> >::~vector<WeaponInfo,std::allocator<WeaponInfo> >, COMDAT
; _this$ = ecx

; 705  : 		_Tidy();

  00000	e9 00 00 00 00	 jmp	 ?_Tidy@?$vector@UWeaponInfo@@V?$allocator@UWeaponInfo@@@std@@@std@@IAEXXZ ; std::vector<WeaponInfo,std::allocator<WeaponInfo> >::_Tidy
??1?$vector@UWeaponInfo@@V?$allocator@UWeaponInfo@@@std@@@std@@QAE@XZ ENDP ; std::vector<WeaponInfo,std::allocator<WeaponInfo> >::~vector<WeaponInfo,std::allocator<WeaponInfo> >
_TEXT	ENDS
PUBLIC	??0AttackAttribute@@QAE@ABU0@@Z			; AttackAttribute::AttackAttribute
;	COMDAT xdata$x
xdata$x	SEGMENT
__unwindtable$??0AttackAttribute@@QAE@ABU0@@Z DD 0ffffffffH
	DD	FLAT:__unwindfunclet$??0AttackAttribute@@QAE@ABU0@@Z$0
	DD	00H
	DD	FLAT:__unwindfunclet$??0AttackAttribute@@QAE@ABU0@@Z$1
	DD	01H
	DD	FLAT:__unwindfunclet$??0AttackAttribute@@QAE@ABU0@@Z$2
__ehfuncinfo$??0AttackAttribute@@QAE@ABU0@@Z DD 019930522H
	DD	03H
	DD	FLAT:__unwindtable$??0AttackAttribute@@QAE@ABU0@@Z
	DD	2 DUP(00H)
	DD	2 DUP(00H)
	DD	00H
	DD	01H
; Function compile flags: /Ogsp
xdata$x	ENDS
;	COMDAT ??0AttackAttribute@@QAE@ABU0@@Z
_TEXT	SEGMENT
_this$ = -16						; size = 4
__$EHRec$ = -12						; size = 12
___that$ = 8						; size = 4
??0AttackAttribute@@QAE@ABU0@@Z PROC			; AttackAttribute::AttackAttribute, COMDAT
; _this$ = ecx
  00000	6a 04		 push	 4
  00002	b8 00 00 00 00	 mov	 eax, __ehhandler$??0AttackAttribute@@QAE@ABU0@@Z
  00007	e8 00 00 00 00	 call	 __EH_prolog3
  0000c	8b f1		 mov	 esi, ecx
  0000e	89 75 f0	 mov	 DWORD PTR _this$[ebp], esi
  00011	8b 7d 08	 mov	 edi, DWORD PTR ___that$[ebp]
  00014	8b 1d 00 00 00
	00		 mov	 ebx, DWORD PTR __imp_??0ioHashString@@QAE@ABV0@@Z
  0001a	57		 push	 edi
  0001b	ff d3		 call	 ebx
  0001d	d9 47 10	 fld	 DWORD PTR [edi+16]
  00020	83 65 fc 00	 and	 DWORD PTR __$EHRec$[ebp+8], 0
  00024	d9 5e 10	 fstp	 DWORD PTR [esi+16]
  00027	8d 47 14	 lea	 eax, DWORD PTR [edi+20]
  0002a	50		 push	 eax
  0002b	8d 4e 14	 lea	 ecx, DWORD PTR [esi+20]
  0002e	ff d3		 call	 ebx
  00030	d9 47 24	 fld	 DWORD PTR [edi+36]
  00033	8d 47 28	 lea	 eax, DWORD PTR [edi+40]
  00036	d9 5e 24	 fstp	 DWORD PTR [esi+36]
  00039	50		 push	 eax
  0003a	8d 4e 28	 lea	 ecx, DWORD PTR [esi+40]
  0003d	c6 45 fc 01	 mov	 BYTE PTR __$EHRec$[ebp+8], 1
  00041	e8 00 00 00 00	 call	 ??0?$vector@UWeaponInfo@@V?$allocator@UWeaponInfo@@@std@@@std@@QAE@ABV01@@Z ; std::vector<WeaponInfo,std::allocator<WeaponInfo> >::vector<WeaponInfo,std::allocator<WeaponInfo> >
  00046	8d 47 38	 lea	 eax, DWORD PTR [edi+56]
  00049	50		 push	 eax
  0004a	8d 4e 38	 lea	 ecx, DWORD PTR [esi+56]
  0004d	c6 45 fc 02	 mov	 BYTE PTR __$EHRec$[ebp+8], 2
  00051	e8 00 00 00 00	 call	 ??0?$vector@UForceInfo@@V?$allocator@UForceInfo@@@std@@@std@@QAE@ABV01@@Z ; std::vector<ForceInfo,std::allocator<ForceInfo> >::vector<ForceInfo,std::allocator<ForceInfo> >
  00056	8b 47 48	 mov	 eax, DWORD PTR [edi+72]
  00059	89 46 48	 mov	 DWORD PTR [esi+72], eax
  0005c	8b 47 4c	 mov	 eax, DWORD PTR [edi+76]
  0005f	89 46 4c	 mov	 DWORD PTR [esi+76], eax
  00062	8b c6		 mov	 eax, esi
  00064	e8 00 00 00 00	 call	 __EH_epilog3
  00069	c2 04 00	 ret	 4
_TEXT	ENDS
;	COMDAT text$x
text$x	SEGMENT
__unwindfunclet$??0AttackAttribute@@QAE@ABU0@@Z$0:
  00000	8b 4d f0	 mov	 ecx, DWORD PTR _this$[ebp]
  00003	ff 25 00 00 00
	00		 jmp	 DWORD PTR __imp_??1ioHashString@@QAE@XZ
__unwindfunclet$??0AttackAttribute@@QAE@ABU0@@Z$1:
  00009	8b 4d f0	 mov	 ecx, DWORD PTR _this$[ebp]
  0000c	83 c1 14	 add	 ecx, 20			; 00000014H
  0000f	ff 25 00 00 00
	00		 jmp	 DWORD PTR __imp_??1ioHashString@@QAE@XZ
__unwindfunclet$??0AttackAttribute@@QAE@ABU0@@Z$2:
  00015	8b 4d f0	 mov	 ecx, DWORD PTR _this$[ebp]
  00018	83 c1 28	 add	 ecx, 40			; 00000028H
  0001b	e9 00 00 00 00	 jmp	 ??1?$vector@UWeaponInfo@@V?$allocator@UWeaponInfo@@@std@@@std@@QAE@XZ ; std::vector<WeaponInfo,std::allocator<WeaponInfo> >::~vector<WeaponInfo,std::allocator<WeaponInfo> >
__ehhandler$??0AttackAttribute@@QAE@ABU0@@Z:
  00020	8b 54 24 08	 mov	 edx, DWORD PTR [esp+8]
  00024	8d 42 0c	 lea	 eax, DWORD PTR [edx+12]
  00027	8b 4a ec	 mov	 ecx, DWORD PTR [edx-20]
  0002a	33 c8		 xor	 ecx, eax
  0002c	e8 00 00 00 00	 call	 @__security_check_cookie@4
  00031	b8 00 00 00 00	 mov	 eax, OFFSET __ehfuncinfo$??0AttackAttribute@@QAE@ABU0@@Z
  00036	e9 00 00 00 00	 jmp	 ___CxxFrameHandler3
text$x	ENDS
??0AttackAttribute@@QAE@ABU0@@Z ENDP			; AttackAttribute::AttackAttribute
PUBLIC	??0AttackAttribute@@QAE@XZ			; AttackAttribute::AttackAttribute
EXTRN	?Init@AttackAttribute@@QAEXXZ:PROC		; AttackAttribute::Init
;	COMDAT xdata$x
; File c:\program files (x86)\microsoft visual studio 10.0\vc\include\xmemory
xdata$x	SEGMENT
__unwindtable$??0AttackAttribute@@QAE@XZ DD 0ffffffffH
	DD	FLAT:__unwindfunclet$??0AttackAttribute@@QAE@XZ$0
	DD	00H
	DD	FLAT:__unwindfunclet$??0AttackAttribute@@QAE@XZ$1
	DD	01H
	DD	FLAT:__unwindfunclet$??0AttackAttribute@@QAE@XZ$2
	DD	02H
	DD	FLAT:__unwindfunclet$??0AttackAttribute@@QAE@XZ$3
__ehfuncinfo$??0AttackAttribute@@QAE@XZ DD 019930522H
	DD	04H
	DD	FLAT:__unwindtable$??0AttackAttribute@@QAE@XZ
	DD	2 DUP(00H)
	DD	2 DUP(00H)
	DD	00H
	DD	01H
; Function compile flags: /Ogsp
; File d:\lost saga for developer\youtube\tutorial\source\src\lsclient\ioattackattribute.h
xdata$x	ENDS
;	COMDAT ??0AttackAttribute@@QAE@XZ
_TEXT	SEGMENT
_this$ = -16						; size = 4
__$EHRec$ = -12						; size = 12
??0AttackAttribute@@QAE@XZ PROC				; AttackAttribute::AttackAttribute, COMDAT
; _this$ = ecx

; 107  : 	AttackAttribute()

  00000	6a 04		 push	 4
  00002	b8 00 00 00 00	 mov	 eax, __ehhandler$??0AttackAttribute@@QAE@XZ
  00007	e8 00 00 00 00	 call	 __EH_prolog3
  0000c	8b f1		 mov	 esi, ecx
  0000e	89 75 f0	 mov	 DWORD PTR _this$[ebp], esi
  00011	8b 3d 00 00 00
	00		 mov	 edi, DWORD PTR __imp_??0ioHashString@@QAE@XZ
  00017	ff d7		 call	 edi
  00019	33 db		 xor	 ebx, ebx
  0001b	8d 4e 14	 lea	 ecx, DWORD PTR [esi+20]
  0001e	89 5d fc	 mov	 DWORD PTR __$EHRec$[ebp+8], ebx
  00021	ff d7		 call	 edi
  00023	89 5e 28	 mov	 DWORD PTR [esi+40], ebx
  00026	89 5e 2c	 mov	 DWORD PTR [esi+44], ebx
  00029	89 5e 30	 mov	 DWORD PTR [esi+48], ebx
  0002c	89 5e 38	 mov	 DWORD PTR [esi+56], ebx
  0002f	89 5e 3c	 mov	 DWORD PTR [esi+60], ebx
  00032	89 5e 40	 mov	 DWORD PTR [esi+64], ebx

; 108  : 	{
; 109  : 		Init();

  00035	8b ce		 mov	 ecx, esi
  00037	c6 45 fc 03	 mov	 BYTE PTR __$EHRec$[ebp+8], 3
  0003b	e8 00 00 00 00	 call	 ?Init@AttackAttribute@@QAEXXZ ; AttackAttribute::Init

; 110  : 	}

  00040	8b c6		 mov	 eax, esi
  00042	e8 00 00 00 00	 call	 __EH_epilog3
  00047	c3		 ret	 0
_TEXT	ENDS
;	COMDAT text$x
text$x	SEGMENT
__unwindfunclet$??0AttackAttribute@@QAE@XZ$0:
  00000	8b 4d f0	 mov	 ecx, DWORD PTR _this$[ebp]
  00003	ff 25 00 00 00
	00		 jmp	 DWORD PTR __imp_??1ioHashString@@QAE@XZ
__unwindfunclet$??0AttackAttribute@@QAE@XZ$1:
  00009	8b 4d f0	 mov	 ecx, DWORD PTR _this$[ebp]
  0000c	83 c1 14	 add	 ecx, 20			; 00000014H
  0000f	ff 25 00 00 00
	00		 jmp	 DWORD PTR __imp_??1ioHashString@@QAE@XZ
__unwindfunclet$??0AttackAttribute@@QAE@XZ$2:
  00015	8b 4d f0	 mov	 ecx, DWORD PTR _this$[ebp]
  00018	83 c1 28	 add	 ecx, 40			; 00000028H
  0001b	e9 00 00 00 00	 jmp	 ??1?$vector@UWeaponInfo@@V?$allocator@UWeaponInfo@@@std@@@std@@QAE@XZ ; std::vector<WeaponInfo,std::allocator<WeaponInfo> >::~vector<WeaponInfo,std::allocator<WeaponInfo> >
__unwindfunclet$??0AttackAttribute@@QAE@XZ$3:
  00020	8b 4d f0	 mov	 ecx, DWORD PTR _this$[ebp]
  00023	83 c1 38	 add	 ecx, 56			; 00000038H
  00026	e9 00 00 00 00	 jmp	 ??1?$vector@UForceInfo@@V?$allocator@UForceInfo@@@std@@@std@@QAE@XZ ; std::vector<ForceInfo,std::allocator<ForceInfo> >::~vector<ForceInfo,std::allocator<ForceInfo> >
__ehhandler$??0AttackAttribute@@QAE@XZ:
  0002b	8b 54 24 08	 mov	 edx, DWORD PTR [esp+8]
  0002f	8d 42 0c	 lea	 eax, DWORD PTR [edx+12]
  00032	8b 4a ec	 mov	 ecx, DWORD PTR [edx-20]
  00035	33 c8		 xor	 ecx, eax
  00037	e8 00 00 00 00	 call	 @__security_check_cookie@4
  0003c	b8 00 00 00 00	 mov	 eax, OFFSET __ehfuncinfo$??0AttackAttribute@@QAE@XZ
  00041	e9 00 00 00 00	 jmp	 ___CxxFrameHandler3
text$x	ENDS
??0AttackAttribute@@QAE@XZ ENDP				; AttackAttribute::AttackAttribute
PUBLIC	??1AttackAttribute@@QAE@XZ			; AttackAttribute::~AttackAttribute
;	COMDAT xdata$x
xdata$x	SEGMENT
__unwindtable$??1AttackAttribute@@QAE@XZ DD 0ffffffffH
	DD	FLAT:__unwindfunclet$??1AttackAttribute@@QAE@XZ$0
	DD	00H
	DD	FLAT:__unwindfunclet$??1AttackAttribute@@QAE@XZ$1
	DD	01H
	DD	FLAT:__unwindfunclet$??1AttackAttribute@@QAE@XZ$2
__ehfuncinfo$??1AttackAttribute@@QAE@XZ DD 019930522H
	DD	03H
	DD	FLAT:__unwindtable$??1AttackAttribute@@QAE@XZ
	DD	2 DUP(00H)
	DD	2 DUP(00H)
	DD	00H
	DD	01H
; Function compile flags: /Ogsp
xdata$x	ENDS
;	COMDAT ??1AttackAttribute@@QAE@XZ
_TEXT	SEGMENT
_this$ = -16						; size = 4
__$EHRec$ = -12						; size = 12
??1AttackAttribute@@QAE@XZ PROC				; AttackAttribute::~AttackAttribute, COMDAT
; _this$ = ecx
  00000	6a 04		 push	 4
  00002	b8 00 00 00 00	 mov	 eax, __ehhandler$??1AttackAttribute@@QAE@XZ
  00007	e8 00 00 00 00	 call	 __EH_prolog3
  0000c	8b f1		 mov	 esi, ecx
  0000e	89 75 f0	 mov	 DWORD PTR _this$[ebp], esi
  00011	8d 4e 38	 lea	 ecx, DWORD PTR [esi+56]
  00014	c7 45 fc 02 00
	00 00		 mov	 DWORD PTR __$EHRec$[ebp+8], 2
  0001b	e8 00 00 00 00	 call	 ?_Tidy@?$vector@UForceInfo@@V?$allocator@UForceInfo@@@std@@@std@@IAEXXZ ; std::vector<ForceInfo,std::allocator<ForceInfo> >::_Tidy
  00020	8d 4e 28	 lea	 ecx, DWORD PTR [esi+40]
  00023	c6 45 fc 01	 mov	 BYTE PTR __$EHRec$[ebp+8], 1
  00027	e8 00 00 00 00	 call	 ?_Tidy@?$vector@UWeaponInfo@@V?$allocator@UWeaponInfo@@@std@@@std@@IAEXXZ ; std::vector<WeaponInfo,std::allocator<WeaponInfo> >::_Tidy
  0002c	8b 3d 00 00 00
	00		 mov	 edi, DWORD PTR __imp_??1ioHashString@@QAE@XZ
  00032	8d 4e 14	 lea	 ecx, DWORD PTR [esi+20]
  00035	c6 45 fc 00	 mov	 BYTE PTR __$EHRec$[ebp+8], 0
  00039	ff d7		 call	 edi
  0003b	83 4d fc ff	 or	 DWORD PTR __$EHRec$[ebp+8], -1
  0003f	8b ce		 mov	 ecx, esi
  00041	ff d7		 call	 edi
  00043	e8 00 00 00 00	 call	 __EH_epilog3
  00048	c3		 ret	 0
_TEXT	ENDS
;	COMDAT text$x
text$x	SEGMENT
__unwindfunclet$??1AttackAttribute@@QAE@XZ$0:
  00000	8b 4d f0	 mov	 ecx, DWORD PTR _this$[ebp]
  00003	ff 25 00 00 00
	00		 jmp	 DWORD PTR __imp_??1ioHashString@@QAE@XZ
__unwindfunclet$??1AttackAttribute@@QAE@XZ$1:
  00009	8b 4d f0	 mov	 ecx, DWORD PTR _this$[ebp]
  0000c	83 c1 14	 add	 ecx, 20			; 00000014H
  0000f	ff 25 00 00 00
	00		 jmp	 DWORD PTR __imp_??1ioHashString@@QAE@XZ
__unwindfunclet$??1AttackAttribute@@QAE@XZ$2:
  00015	8b 4d f0	 mov	 ecx, DWORD PTR _this$[ebp]
  00018	83 c1 28	 add	 ecx, 40			; 00000028H
  0001b	e9 00 00 00 00	 jmp	 ??1?$vector@UWeaponInfo@@V?$allocator@UWeaponInfo@@@std@@@std@@QAE@XZ ; std::vector<WeaponInfo,std::allocator<WeaponInfo> >::~vector<WeaponInfo,std::allocator<WeaponInfo> >
__ehhandler$??1AttackAttribute@@QAE@XZ:
  00020	8b 54 24 08	 mov	 edx, DWORD PTR [esp+8]
  00024	8d 42 0c	 lea	 eax, DWORD PTR [edx+12]
  00027	8b 4a ec	 mov	 ecx, DWORD PTR [edx-20]
  0002a	33 c8		 xor	 ecx, eax
  0002c	e8 00 00 00 00	 call	 @__security_check_cookie@4
  00031	b8 00 00 00 00	 mov	 eax, OFFSET __ehfuncinfo$??1AttackAttribute@@QAE@XZ
  00036	e9 00 00 00 00	 jmp	 ___CxxFrameHandler3
text$x	ENDS
??1AttackAttribute@@QAE@XZ ENDP				; AttackAttribute::~AttackAttribute
PUBLIC	??_7ioRunChargeItem2@@6B@			; ioRunChargeItem2::`vftable'
PUBLIC	??0ioRunChargeItem2@@QAE@XZ			; ioRunChargeItem2::ioRunChargeItem2
PUBLIC	??_R4ioRunChargeItem2@@6B@			; ioRunChargeItem2::`RTTI Complete Object Locator'
PUBLIC	??_R0?AVioRunChargeItem2@@@8			; ioRunChargeItem2 `RTTI Type Descriptor'
PUBLIC	??_R3ioRunChargeItem2@@8			; ioRunChargeItem2::`RTTI Class Hierarchy Descriptor'
PUBLIC	??_R2ioRunChargeItem2@@8			; ioRunChargeItem2::`RTTI Base Class Array'
PUBLIC	??_R1A@?0A@EA@ioRunChargeItem2@@8		; ioRunChargeItem2::`RTTI Base Class Descriptor at (0,-1,0,64)'
PUBLIC	??_R1A@?0A@EA@ioWeaponItem@@8			; ioWeaponItem::`RTTI Base Class Descriptor at (0,-1,0,64)'
PUBLIC	??_R0?AVioWeaponItem@@@8			; ioWeaponItem `RTTI Type Descriptor'
PUBLIC	??_R3ioWeaponItem@@8				; ioWeaponItem::`RTTI Class Hierarchy Descriptor'
PUBLIC	??_R2ioWeaponItem@@8				; ioWeaponItem::`RTTI Base Class Array'
PUBLIC	??_R1A@?0A@EA@ioAttackableItem@@8		; ioAttackableItem::`RTTI Base Class Descriptor at (0,-1,0,64)'
PUBLIC	??_R0?AVioAttackableItem@@@8			; ioAttackableItem `RTTI Type Descriptor'
PUBLIC	??_R3ioAttackableItem@@8			; ioAttackableItem::`RTTI Class Hierarchy Descriptor'
PUBLIC	??_R2ioAttackableItem@@8			; ioAttackableItem::`RTTI Base Class Array'
PUBLIC	??_R1A@?0A@EA@ioItem@@8				; ioItem::`RTTI Base Class Descriptor at (0,-1,0,64)'
PUBLIC	??_R0?AVioItem@@@8				; ioItem `RTTI Type Descriptor'
PUBLIC	??_R3ioItem@@8					; ioItem::`RTTI Class Hierarchy Descriptor'
PUBLIC	??_R2ioItem@@8					; ioItem::`RTTI Base Class Array'
PUBLIC	?Clone@ioRunChargeItem2@@UAEPAVioItem@@XZ	; ioRunChargeItem2::Clone
PUBLIC	?IsEnableExtraGauge@ioItem@@UAE_NPAVioBaseChar@@@Z ; ioItem::IsEnableExtraGauge
PUBLIC	?GetExtraGauge@ioItem@@UAEMXZ			; ioItem::GetExtraGauge
PUBLIC	?CheckOnHand@ioAttackableItem@@UAE_NXZ		; ioAttackableItem::CheckOnHand
PUBLIC	?CheckAimState@ioAttackableItem@@UAE_N_N@Z	; ioAttackableItem::CheckAimState
PUBLIC	?SetAimState@ioAttackableItem@@UAE_NPAVioBaseChar@@@Z ; ioAttackableItem::SetAimState
PUBLIC	?CheckExtendDefenseEnable@ioAttackableItem@@UAE_NPAVioBaseChar@@@Z ; ioAttackableItem::CheckExtendDefenseEnable
PUBLIC	?IsNoGhostWalk@ioAttackableItem@@UAE_NPAVioBaseChar@@@Z ; ioAttackableItem::IsNoGhostWalk
PUBLIC	?IsEnableAttackDashCheck@ioAttackableItem@@UAE_NPAVioBaseChar@@_N@Z ; ioAttackableItem::IsEnableAttackDashCheck
PUBLIC	?IsEnableItemDashCheck@ioAttackableItem@@UAE_NPAVioBaseChar@@_N@Z ; ioAttackableItem::IsEnableItemDashCheck
PUBLIC	?IsEnableAttackRotateCheck@ioAttackableItem@@UAE_NPAVioBaseChar@@@Z ; ioAttackableItem::IsEnableAttackRotateCheck
PUBLIC	?IsEnableChargeDefenseCheck@ioAttackableItem@@UAE_NXZ ; ioAttackableItem::IsEnableChargeDefenseCheck
PUBLIC	?IsUseDefenceCounterAttackEndDash@ioAttackableItem@@UAE_NXZ ; ioAttackableItem::IsUseDefenceCounterAttackEndDash
PUBLIC	?IsAutoTarget@ioAttackableItem@@UBE_NXZ		; ioAttackableItem::IsAutoTarget
PUBLIC	?IsWoundAfterUseExtendState@ioAttackableItem@@UAE_NXZ ; ioAttackableItem::IsWoundAfterUseExtendState
PUBLIC	?CheckWoundAfterUseExtendState@ioAttackableItem@@UAE_NPAVioBaseChar@@W4BlowTargetType@@@Z ; ioAttackableItem::CheckWoundAfterUseExtendState
PUBLIC	?IsCharSkipState@ioAttackableItem@@UAE_NPBVioBaseChar@@@Z ; ioAttackableItem::IsCharSkipState
EXTRN	??1ioWeaponItem@@UAE@XZ:PROC			; ioWeaponItem::~ioWeaponItem
EXTRN	??0ioWeaponItem@@QAE@XZ:PROC			; ioWeaponItem::ioWeaponItem
EXTRN	?FindFieldEntityGrp@ioItem@@MBEABVioHashString@@XZ:PROC ; ioItem::FindFieldEntityGrp
EXTRN	?GetType@ioWeaponItem@@UBE?AW4ItemType@ioItem@@XZ:PROC ; ioWeaponItem::GetType
EXTRN	?UseCreateIndexItem@ioItem@@UBE_NXZ:PROC	; ioItem::UseCreateIndexItem
EXTRN	?GetSetFocusColor@ioItem@@UBEKXZ:PROC		; ioItem::GetSetFocusColor
EXTRN	?Initialize@ioItem@@UAEXABVioHashString@@PAVioPlayStage@@@Z:PROC ; ioItem::Initialize
EXTRN	?InitializeBeforeEquip@ioItem@@UAEXABVioHashString@@PAVioPlayStage@@@Z:PROC ; ioItem::InitializeBeforeEquip
EXTRN	?OnEquiped@ioAttackableItem@@UAEXPAVioBaseChar@@@Z:PROC ; ioAttackableItem::OnEquiped
EXTRN	?OnReleased@ioWeaponItem@@UAEXPAVioBaseChar@@@Z:PROC ; ioWeaponItem::OnReleased
EXTRN	?SetExtendEquipEffect@ioItem@@UAEXPAVioBaseChar@@@Z:PROC ; ioItem::SetExtendEquipEffect
EXTRN	?ReleaseExtendEquipEffect@ioItem@@UAEXPAVioBaseChar@@@Z:PROC ; ioItem::ReleaseExtendEquipEffect
EXTRN	?AddGlowLine@ioWeaponItem@@UAEXPAVioBaseChar@@@Z:PROC ; ioWeaponItem::AddGlowLine
EXTRN	?RemoveGlowLine@ioWeaponItem@@UAEXPAVioBaseChar@@@Z:PROC ; ioWeaponItem::RemoveGlowLine
EXTRN	?GetTargetName@ioItem@@UAE?AVioHashString@@XZ:PROC ; ioItem::GetTargetName
EXTRN	?ClearTarget@ioItem@@UAEXXZ:PROC		; ioItem::ClearTarget
EXTRN	?SetItemType@ioWeaponItem@@UAEXXZ:PROC		; ioWeaponItem::SetItemType
EXTRN	?UpdateExtraData@ioItem@@UAEXPAVioBaseChar@@@Z:PROC ; ioItem::UpdateExtraData
EXTRN	?CheckWeaponDefenseState@ioItem@@UAEXPAVioBaseChar@@@Z:PROC ; ioItem::CheckWeaponDefenseState
EXTRN	?CheckWoundedState@ioItem@@UAEXPAVioBaseChar@@@Z:PROC ; ioItem::CheckWoundedState
EXTRN	?SetVisible@ioItem@@UAEXPAVioBaseChar@@_N@Z:PROC ; ioItem::SetVisible
EXTRN	?UpdateSkillGauge@ioItem@@UAEXPAVioBaseChar@@M_N@Z:PROC ; ioItem::UpdateSkillGauge
EXTRN	?ReduceNeedGauge@ioItem@@UAEXMPAVioBaseChar@@@Z:PROC ; ioItem::ReduceNeedGauge
EXTRN	?GetCurBullet@ioItem@@UAEHXZ:PROC		; ioItem::GetCurBullet
EXTRN	?GetMaxBullet@ioItem@@UAEHXZ:PROC		; ioItem::GetMaxBullet
EXTRN	?SetCurBullet@ioItem@@UAEXH@Z:PROC		; ioItem::SetCurBullet
EXTRN	?GetCurSecoundBullet@ioItem@@UAEHXZ:PROC	; ioItem::GetCurSecoundBullet
EXTRN	?GetMaxSecoundBullet@ioItem@@UAEHXZ:PROC	; ioItem::GetMaxSecoundBullet
EXTRN	?SetCurSecoundBullet@ioItem@@UAEXH@Z:PROC	; ioItem::SetCurSecoundBullet
EXTRN	?GetGrowthInfoNum@ioItem@@UBEHH@Z:PROC		; ioItem::GetGrowthInfoNum
EXTRN	?GetGrowthInfoNumByType@ioItem@@UBEHHAAH@Z:PROC	; ioItem::GetGrowthInfoNumByType
EXTRN	?ClearCurChargeRateForSkill@ioItem@@UAEXXZ:PROC	; ioItem::ClearCurChargeRateForSkill
EXTRN	?GetChargeDamageRateForSkill@ioItem@@UAEMXZ:PROC ; ioItem::GetChargeDamageRateForSkill
EXTRN	?GetChargeForceRateForSkill@ioItem@@UAEMXZ:PROC	; ioItem::GetChargeForceRateForSkill
EXTRN	?GetChargeBlowRateForSkill@ioItem@@UAEMXZ:PROC	; ioItem::GetChargeBlowRateForSkill
EXTRN	?GetChargeRangeRateForSkill@ioItem@@UAEMXZ:PROC	; ioItem::GetChargeRangeRateForSkill
EXTRN	?GetChargeSpeedRateForSkill@ioItem@@UAEMXZ:PROC	; ioItem::GetChargeSpeedRateForSkill
EXTRN	?GetChargeFloatRateForSkill@ioItem@@UAEMXZ:PROC	; ioItem::GetChargeFloatRateForSkill
EXTRN	?GetChargeScaleRateForSkill@ioItem@@UAEMXZ:PROC	; ioItem::GetChargeScaleRateForSkill
EXTRN	?GetChargeExplosionRateForSkill@ioItem@@UAEMXZ:PROC ; ioItem::GetChargeExplosionRateForSkill
EXTRN	?GetChargeWoundedTimeRateForSkill@ioItem@@UAEMXZ:PROC ; ioItem::GetChargeWoundedTimeRateForSkill
EXTRN	?SetCurEquipEffect@ioItem@@UAEX_N@Z:PROC	; ioItem::SetCurEquipEffect
EXTRN	?SetCostume@ioItem@@UAEXH_N@Z:PROC		; ioItem::SetCostume
EXTRN	??_EioRunChargeItem2@@UAEPAXI@Z:PROC		; ioRunChargeItem2::`vector deleting destructor'
EXTRN	?IsCanFire@ioAttackableItem@@UBE_NPBVioBaseChar@@H_N@Z:PROC ; ioAttackableItem::IsCanFire
EXTRN	?CallItemProcess@ioAttackableItem@@UAEXPAVioBaseChar@@@Z:PROC ; ioAttackableItem::CallItemProcess
EXTRN	?CheckChargeInfo@ioAttackableItem@@UAEXPAVioWeapon@@_N@Z:PROC ; ioAttackableItem::CheckChargeInfo
EXTRN	?SetExtendDefenseState@ioAttackableItem@@UAE_NPAVioBaseChar@@@Z:PROC ; ioAttackableItem::SetExtendDefenseState
EXTRN	?CheckExtendDefenseState@ioAttackableItem@@UAEXPAVioBaseChar@@@Z:PROC ; ioAttackableItem::CheckExtendDefenseState
EXTRN	?CheckDefenseMoveAniState@ioAttackableItem@@UAEXPAVioBaseChar@@@Z:PROC ; ioAttackableItem::CheckDefenseMoveAniState
EXTRN	?SetDodgeDefenseState@ioAttackableItem@@UAE_NPAVioBaseChar@@@Z:PROC ; ioAttackableItem::SetDodgeDefenseState
EXTRN	?CheckDodgeDefenseState@ioAttackableItem@@UAEXPAVioBaseChar@@@Z:PROC ; ioAttackableItem::CheckDodgeDefenseState
EXTRN	?ApplyDodgeDefenseState@ioAttackableItem@@UAEXPAVioBaseChar@@AAVSP2Packet@@@Z:PROC ; ioAttackableItem::ApplyDodgeDefenseState
EXTRN	?SetDefenseAttackState@ioAttackableItem@@UAE_NPAVioBaseChar@@@Z:PROC ; ioAttackableItem::SetDefenseAttackState
EXTRN	?CheckDefenseAttackState@ioAttackableItem@@UAEXPAVioBaseChar@@@Z:PROC ; ioAttackableItem::CheckDefenseAttackState
EXTRN	?ApplyDefenseAttackState@ioAttackableItem@@UAEXPAVioBaseChar@@AAVSP2Packet@@@Z:PROC ; ioAttackableItem::ApplyDefenseAttackState
EXTRN	?SetExtendDashState@ioAttackableItem@@UAE_NPAVioBaseChar@@@Z:PROC ; ioAttackableItem::SetExtendDashState
EXTRN	?CheckExtendDashState@ioAttackableItem@@UAEXPAVioBaseChar@@@Z:PROC ; ioAttackableItem::CheckExtendDashState
EXTRN	?SetJumpAttack@ioAttackableItem@@UAE_NPAVioBaseChar@@HMW4AttackType@@@Z:PROC ; ioAttackableItem::SetJumpAttack
EXTRN	?CheckJumpAttack@ioAttackableItem@@UAEXPAVioBaseChar@@@Z:PROC ; ioAttackableItem::CheckJumpAttack
EXTRN	?SetJumpReloadState@ioAttackableItem@@UAE_NPAVioBaseChar@@@Z:PROC ; ioAttackableItem::SetJumpReloadState
EXTRN	?SetJumpReload@ioAttackableItem@@UAE_NPAVioBaseChar@@@Z:PROC ; ioAttackableItem::SetJumpReload
EXTRN	?CheckJumpReloadState@ioAttackableItem@@UAEXPAVioBaseChar@@@Z:PROC ; ioAttackableItem::CheckJumpReloadState
EXTRN	?CheckJumpReloadReserve@ioAttackableItem@@UAEXPAVioBaseChar@@@Z:PROC ; ioAttackableItem::CheckJumpReloadReserve
EXTRN	?ProcessJumpReloadState@ioAttackableItem@@UAEXPAVioBaseChar@@@Z:PROC ; ioAttackableItem::ProcessJumpReloadState
EXTRN	?ApplyJumpReload@ioAttackableItem@@UAEXPAVioBaseChar@@AAVSP2Packet@@@Z:PROC ; ioAttackableItem::ApplyJumpReload
EXTRN	?OnEndExtendDefense@ioAttackableItem@@UAEXPAVioBaseChar@@@Z:PROC ; ioAttackableItem::OnEndExtendDefense
EXTRN	?OnEndNormalAttack@ioAttackableItem@@UAEXPAVioBaseChar@@@Z:PROC ; ioAttackableItem::OnEndNormalAttack
EXTRN	?OnEndExtendJump@ioAttackableItem@@UAEXPAVioBaseChar@@@Z:PROC ; ioAttackableItem::OnEndExtendJump
EXTRN	?FillNormalAttackExtraInfo@ioAttackableItem@@UAEXAAVSP2Packet@@@Z:PROC ; ioAttackableItem::FillNormalAttackExtraInfo
EXTRN	?ApplyNormalAttackExtraInfo@ioAttackableItem@@UAEXAAVSP2Packet@@@Z:PROC ; ioAttackableItem::ApplyNormalAttackExtraInfo
EXTRN	?CheckLanding@ioAttackableItem@@UAE_NPAVioBaseChar@@@Z:PROC ; ioAttackableItem::CheckLanding
EXTRN	?SetNoneState@ioAttackableItem@@UAEXPAVioBaseChar@@H@Z:PROC ; ioAttackableItem::SetNoneState
EXTRN	?IsCanUpdateGauge@ioAttackableItem@@UAE_NPAVioBaseChar@@@Z:PROC ; ioAttackableItem::IsCanUpdateGauge
EXTRN	?CheckAimJumpState@ioAttackableItem@@UAEXPAVioBaseChar@@@Z:PROC ; ioAttackableItem::CheckAimJumpState
EXTRN	?GetJumppingAnimation@ioAttackableItem@@UBEABVioHashString@@XZ:PROC ; ioAttackableItem::GetJumppingAnimation
EXTRN	?GetExtendJumppingAnimation@ioAttackableItem@@UBEABVioHashString@@XZ:PROC ; ioAttackableItem::GetExtendJumppingAnimation
EXTRN	?CheckRetreatState@ioAttackableItem@@UAEXPAVioBaseChar@@@Z:PROC ; ioAttackableItem::CheckRetreatState
EXTRN	?SetNextItemState@ioAttackableItem@@UAEXPAVioBaseChar@@0PAVioWeapon@@_NM@Z:PROC ; ioAttackableItem::SetNextItemState
EXTRN	?WeaponWounded@ioWeaponItem@@UAEXPAVioWeapon@@PAVioBaseChar@@@Z:PROC ; ioWeaponItem::WeaponWounded
EXTRN	?WeaponMapColDead@ioAttackableItem@@UAEXPAVioWeapon@@@Z:PROC ; ioAttackableItem::WeaponMapColDead
EXTRN	?SetDefenceCounterState@ioAttackableItem@@UAEXPAVioBaseChar@@@Z:PROC ; ioAttackableItem::SetDefenceCounterState
EXTRN	?IsUseDefenceCounterAttack@ioAttackableItem@@UAE_NXZ:PROC ; ioAttackableItem::IsUseDefenceCounterAttack
EXTRN	?ProcessDefenceCounterAttack@ioAttackableItem@@UAEXPAVioBaseChar@@@Z:PROC ; ioAttackableItem::ProcessDefenceCounterAttack
EXTRN	?ProcessExtraJump@ioAttackableItem@@UAEXPAVioBaseChar@@@Z:PROC ; ioAttackableItem::ProcessExtraJump
EXTRN	?SetEndGrappling@ioAttackableItem@@UAEXPAVioBaseChar@@@Z:PROC ; ioAttackableItem::SetEndGrappling
EXTRN	?ClearKeyReserve@ioAttackableItem@@MAEXXZ:PROC	; ioAttackableItem::ClearKeyReserve
EXTRN	?ProcessReserveKeyInput@ioAttackableItem@@MAEXPAVioBaseChar@@@Z:PROC ; ioAttackableItem::ProcessReserveKeyInput
EXTRN	?SetJumpState@ioAttackableItem@@UAEXXZ:PROC	; ioAttackableItem::SetJumpState
EXTRN	?SetJumpping@ioAttackableItem@@UAEXPAVioBaseChar@@_N@Z:PROC ; ioAttackableItem::SetJumpping
EXTRN	?ProcessJumpping@ioAttackableItem@@UAEXPAVioBaseChar@@M@Z:PROC ; ioAttackableItem::ProcessJumpping
EXTRN	?ProcessJumppingByNoNeedProcess@ioAttackableItem@@UAEXPAVioBaseChar@@M@Z:PROC ; ioAttackableItem::ProcessJumppingByNoNeedProcess
EXTRN	?ProcessLanding@ioAttackableItem@@UAEXPAVioBaseChar@@@Z:PROC ; ioAttackableItem::ProcessLanding
EXTRN	?ProcessJumpAttack@ioAttackableItem@@UAEXPAVioBaseChar@@M@Z:PROC ; ioAttackableItem::ProcessJumpAttack
EXTRN	?ProcessAimJump@ioAttackableItem@@UAE_NPAVioBaseChar@@M@Z:PROC ; ioAttackableItem::ProcessAimJump
EXTRN	?ApplyJump@ioAttackableItem@@UAEXPAVioBaseChar@@AAVSP2Packet@@@Z:PROC ; ioAttackableItem::ApplyJump
EXTRN	?ApplyDash@ioAttackableItem@@UAEXPAVioBaseChar@@AAVSP2Packet@@@Z:PROC ; ioAttackableItem::ApplyDash
EXTRN	?ApplyCounterAttack@ioAttackableItem@@UAEXPAVioBaseChar@@AAVSP2Packet@@@Z:PROC ; ioAttackableItem::ApplyCounterAttack
EXTRN	?CheckComboJumpAttack@ioAttackableItem@@UAEXPAVioBaseChar@@@Z:PROC ; ioAttackableItem::CheckComboJumpAttack
EXTRN	?SetFlashJumpAttack@ioAttackableItem@@UAE_NPAVioBaseChar@@@Z:PROC ; ioAttackableItem::SetFlashJumpAttack
EXTRN	?SetComboFlashAttack@ioAttackableItem@@UAE_NPAVioBaseChar@@@Z:PROC ; ioAttackableItem::SetComboFlashAttack
EXTRN	?SetCollectJumpAttack@ioAttackableItem@@UAE_NPAVioBaseChar@@@Z:PROC ; ioAttackableItem::SetCollectJumpAttack
EXTRN	?SetPowerChargeJumpAttack@ioAttackableItem@@UAE_NPAVioBaseChar@@@Z:PROC ; ioAttackableItem::SetPowerChargeJumpAttack
EXTRN	?GetAttackSpeedRate@ioAttackableItem@@UBEMXZ:PROC ; ioAttackableItem::GetAttackSpeedRate
EXTRN	?GetExtraJumpSpeedRate@ioAttackableItem@@UBEMABUD3DXVECTOR3@@ABUD3DXQUATERNION@@@Z:PROC ; ioAttackableItem::GetExtraJumpSpeedRate
EXTRN	?IsEnableExtendJump@ioAttackableItem@@UAE_NXZ:PROC ; ioAttackableItem::IsEnableExtendJump
EXTRN	?RecevieExtendJumpUse@ioAttackableItem@@UAEXPAVioBaseChar@@@Z:PROC ; ioAttackableItem::RecevieExtendJumpUse
EXTRN	?HasAniFile@ioAttackableItem@@UBE_NW4AttackType@@H@Z:PROC ; ioAttackableItem::HasAniFile
EXTRN	?HasEndAniFile@ioAttackableItem@@UBE_NW4AttackType@@H@Z:PROC ; ioAttackableItem::HasEndAniFile
EXTRN	?GetAttackAttribute@ioAttackableItem@@UBEPBUAttackAttribute@@W4AttackType@@H@Z:PROC ; ioAttackableItem::GetAttackAttribute
EXTRN	?GetAniFile@ioAttackableItem@@UBEABVioHashString@@W4AttackType@@H@Z:PROC ; ioAttackableItem::GetAniFile
EXTRN	?GetAttackAniRate@ioAttackableItem@@UBEMW4AttackType@@H@Z:PROC ; ioAttackableItem::GetAttackAniRate
EXTRN	?GetEndAniFile@ioAttackableItem@@UBEABVioHashString@@W4AttackType@@H@Z:PROC ; ioAttackableItem::GetEndAniFile
EXTRN	?GetAttackEndAniRate@ioAttackableItem@@UBEMW4AttackType@@H@Z:PROC ; ioAttackableItem::GetAttackEndAniRate
EXTRN	?GetAttackAttributeIdx@ioAttackableItem@@UBEABV?$vector@UWeaponInfo@@V?$allocator@UWeaponInfo@@@std@@@std@@W4AttackType@@H@Z:PROC ; ioAttackableItem::GetAttackAttributeIdx
EXTRN	?GetForceInfoList@ioAttackableItem@@UBEABV?$vector@UForceInfo@@V?$allocator@UForceInfo@@@std@@@std@@W4AttackType@@H@Z:PROC ; ioAttackableItem::GetForceInfoList
EXTRN	?GetAttackPreDelay@ioAttackableItem@@UBEKW4AttackType@@H@Z:PROC ; ioAttackableItem::GetAttackPreDelay
EXTRN	?GetAttackAnimationDelay@ioAttackableItem@@UBEKW4AttackType@@H@Z:PROC ; ioAttackableItem::GetAttackAnimationDelay
EXTRN	?GetMaxCombo@ioAttackableItem@@UBEHXZ:PROC	; ioAttackableItem::GetMaxCombo
EXTRN	?GetExtraDashAttackMax@ioAttackableItem@@UBEHXZ:PROC ; ioAttackableItem::GetExtraDashAttackMax
EXTRN	?HasJumpEndAnimation@ioAttackableItem@@UBE_N_NPAVioBaseChar@@@Z:PROC ; ioAttackableItem::HasJumpEndAnimation
EXTRN	?GetJumpEndAnimation@ioAttackableItem@@UBEABVioHashString@@_NPAVioBaseChar@@@Z:PROC ; ioAttackableItem::GetJumpEndAnimation
EXTRN	?ClearCancelInfo@ioAttackableItem@@MAEXXZ:PROC	; ioAttackableItem::ClearCancelInfo
EXTRN	?CheckCancelReserve@ioAttackableItem@@MAEXPAVioBaseChar@@@Z:PROC ; ioAttackableItem::CheckCancelReserve
EXTRN	?SetCurAttackAniForInputJump@ioAttackableItem@@MAEXABVioHashString@@M@Z:PROC ; ioAttackableItem::SetCurAttackAniForInputJump
EXTRN	?ProcessCancel@ioAttackableItem@@MAE_NPAVioBaseChar@@@Z:PROC ; ioAttackableItem::ProcessCancel
EXTRN	?ProcessCancelBySpeicalDash@ioAttackableItem@@MAE_NPAVioBaseChar@@@Z:PROC ; ioAttackableItem::ProcessCancelBySpeicalDash
EXTRN	?SetCurAttackAniForInputDashS@ioAttackableItem@@UAEXABVioHashString@@M@Z:PROC ; ioAttackableItem::SetCurAttackAniForInputDashS
EXTRN	?CheckCancelReserveByConditionalSpecialDash@ioAttackableItem@@UAEXPAVioBaseChar@@@Z:PROC ; ioAttackableItem::CheckCancelReserveByConditionalSpecialDash
EXTRN	?IsConditionalSpecialDashReserve@ioAttackableItem@@UAE_NPAVioBaseChar@@@Z:PROC ; ioAttackableItem::IsConditionalSpecialDashReserve
EXTRN	?SetChangeConditionalSpecialDash@ioAttackableItem@@UAEXPAVioBaseChar@@W4DirKeyInput@ioUserKeyInput@@H@Z:PROC ; ioAttackableItem::SetChangeConditionalSpecialDash
EXTRN	?CheckChangeWereWolfState@ioAttackableItem@@UAE_NPAVioBaseChar@@@Z:PROC ; ioAttackableItem::CheckChangeWereWolfState
EXTRN	?SetChangeWereWolfState@ioAttackableItem@@UAEXPAVioBaseChar@@@Z:PROC ; ioAttackableItem::SetChangeWereWolfState
EXTRN	?CheckReleaseWereWolfState@ioAttackableItem@@UAE_NPAVioBaseChar@@@Z:PROC ; ioAttackableItem::CheckReleaseWereWolfState
EXTRN	?ReleseWereWolfState@ioAttackableItem@@UAEXPAVioBaseChar@@@Z:PROC ; ioAttackableItem::ReleseWereWolfState
EXTRN	?ReleseWereWolfStateByOwner@ioAttackableItem@@UAEXPAVioBaseChar@@@Z:PROC ; ioAttackableItem::ReleseWereWolfStateByOwner
EXTRN	?IncreaseChangeDamage@ioAttackableItem@@UAEXMH_N@Z:PROC ; ioAttackableItem::IncreaseChangeDamage
EXTRN	?IncreaseChangeDamageByWeapon@ioAttackableItem@@UAEXM@Z:PROC ; ioAttackableItem::IncreaseChangeDamageByWeapon
EXTRN	?CheckIncreaseChangeDamage@ioAttackableItem@@UAEXPAVioBaseChar@@@Z:PROC ; ioAttackableItem::CheckIncreaseChangeDamage
EXTRN	?DecreaseChangeDamage@ioAttackableItem@@UAEXPAVioBaseChar@@@Z:PROC ; ioAttackableItem::DecreaseChangeDamage
EXTRN	?IsEnableActionStopDelay@ioAttackableItem@@UAE_NXZ:PROC ; ioAttackableItem::IsEnableActionStopDelay
EXTRN	?SetExtraGaugeTypeByWeapon@ioAttackableItem@@UAEXPAVioBaseChar@@HHM@Z:PROC ; ioAttackableItem::SetExtraGaugeTypeByWeapon
EXTRN	?SetUseExtraGauge@ioAttackableItem@@UAEXM@Z:PROC ; ioAttackableItem::SetUseExtraGauge
EXTRN	?InitExtraGauge@ioAttackableItem@@UAEXXZ:PROC	; ioAttackableItem::InitExtraGauge
EXTRN	?MaxExtraGauge@ioAttackableItem@@UAEXXZ:PROC	; ioAttackableItem::MaxExtraGauge
EXTRN	?GetMaxExtraGauge@ioAttackableItem@@UAEMXZ:PROC	; ioAttackableItem::GetMaxExtraGauge
EXTRN	?GetCurExtraGauge@ioAttackableItem@@UAEMXZ:PROC	; ioAttackableItem::GetCurExtraGauge
EXTRN	?SetCurExtraGauge@ioAttackableItem@@UAEXM@Z:PROC ; ioAttackableItem::SetCurExtraGauge
EXTRN	?GetAutoTargetValue@ioAttackableItem@@UAEXPAVioBaseChar@@AAM11W4AutoTargetType@@@Z:PROC ; ioAttackableItem::GetAutoTargetValue
EXTRN	?ClearAirJump@ioAttackableItem@@UAEXXZ:PROC	; ioAttackableItem::ClearAirJump
EXTRN	?SetAirJump@ioAttackableItem@@UAEXPAVioBaseChar@@HM@Z:PROC ; ioAttackableItem::SetAirJump
EXTRN	?CheckAirJump@ioAttackableItem@@UAEXPAVioBaseChar@@@Z:PROC ; ioAttackableItem::CheckAirJump
EXTRN	?EquipObjectItemByAttakable@ioAttackableItem@@UAEXPAVioBaseChar@@PAVioItem@@@Z:PROC ; ioAttackableItem::EquipObjectItemByAttakable
EXTRN	?ReleaseObjectItemByAttack@ioAttackableItem@@UAEXPAVioBaseChar@@PAVioItem@@@Z:PROC ; ioAttackableItem::ReleaseObjectItemByAttack
EXTRN	?IsBuffFlyChange@ioAttackableItem@@UAE_NPAVioBaseChar@@@Z:PROC ; ioAttackableItem::IsBuffFlyChange
EXTRN	?GetAttackStateText@ioAttackableItem@@UBEPBDXZ:PROC ; ioAttackableItem::GetAttackStateText
EXTRN	?SetJumpLandingExtraState@ioAttackableItem@@UAE_NPAVioBaseChar@@@Z:PROC ; ioAttackableItem::SetJumpLandingExtraState
EXTRN	?ReleaseObjectState@ioWeaponItem@@UAEXPAVioBaseChar@@PAVioObjectItem@@@Z:PROC ; ioWeaponItem::ReleaseObjectState
EXTRN	?IsCmdCheckEnableTime@ioWeaponItem@@UAE_NXZ:PROC ; ioWeaponItem::IsCmdCheckEnableTime
EXTRN	?IsCmdSuccess@ioWeaponItem@@UAE_NXZ:PROC	; ioWeaponItem::IsCmdSuccess
EXTRN	?IsOneTimeWeaponItem@ioWeaponItem@@UBE_NXZ:PROC	; ioWeaponItem::IsOneTimeWeaponItem
EXTRN	?GetEquipMesh@ioWeaponItem@@UBEABVioHashString@@PAVioBaseChar@@@Z:PROC ; ioWeaponItem::GetEquipMesh
EXTRN	?IsCanSendControl@ioWeaponItem@@UBE_NXZ:PROC	; ioWeaponItem::IsCanSendControl
;	COMDAT ??_R2ioItem@@8
; File c:\program files (x86)\microsoft directx sdk (june 2010)\include\d3dx9math.h
rdata$r	SEGMENT
??_R2ioItem@@8 DD FLAT:??_R1A@?0A@EA@ioItem@@8		; ioItem::`RTTI Base Class Array'
rdata$r	ENDS
;	COMDAT ??_R3ioItem@@8
rdata$r	SEGMENT
??_R3ioItem@@8 DD 00H					; ioItem::`RTTI Class Hierarchy Descriptor'
	DD	00H
	DD	01H
	DD	FLAT:??_R2ioItem@@8
rdata$r	ENDS
;	COMDAT ??_R0?AVioItem@@@8
_DATA	SEGMENT
??_R0?AVioItem@@@8 DD FLAT:??_7type_info@@6B@		; ioItem `RTTI Type Descriptor'
	DD	00H
	DB	'.?AVioItem@@', 00H
_DATA	ENDS
;	COMDAT ??_R1A@?0A@EA@ioItem@@8
rdata$r	SEGMENT
??_R1A@?0A@EA@ioItem@@8 DD FLAT:??_R0?AVioItem@@@8	; ioItem::`RTTI Base Class Descriptor at (0,-1,0,64)'
	DD	00H
	DD	00H
	DD	0ffffffffH
	DD	00H
	DD	040H
	DD	FLAT:??_R3ioItem@@8
rdata$r	ENDS
;	COMDAT ??_R2ioAttackableItem@@8
rdata$r	SEGMENT
??_R2ioAttackableItem@@8 DD FLAT:??_R1A@?0A@EA@ioAttackableItem@@8 ; ioAttackableItem::`RTTI Base Class Array'
	DD	FLAT:??_R1A@?0A@EA@ioItem@@8
rdata$r	ENDS
;	COMDAT ??_R3ioAttackableItem@@8
rdata$r	SEGMENT
??_R3ioAttackableItem@@8 DD 00H				; ioAttackableItem::`RTTI Class Hierarchy Descriptor'
	DD	00H
	DD	02H
	DD	FLAT:??_R2ioAttackableItem@@8
rdata$r	ENDS
;	COMDAT ??_R0?AVioAttackableItem@@@8
_DATA	SEGMENT
??_R0?AVioAttackableItem@@@8 DD FLAT:??_7type_info@@6B@	; ioAttackableItem `RTTI Type Descriptor'
	DD	00H
	DB	'.?AVioAttackableItem@@', 00H
_DATA	ENDS
;	COMDAT ??_R1A@?0A@EA@ioAttackableItem@@8
rdata$r	SEGMENT
??_R1A@?0A@EA@ioAttackableItem@@8 DD FLAT:??_R0?AVioAttackableItem@@@8 ; ioAttackableItem::`RTTI Base Class Descriptor at (0,-1,0,64)'
	DD	01H
	DD	00H
	DD	0ffffffffH
	DD	00H
	DD	040H
	DD	FLAT:??_R3ioAttackableItem@@8
rdata$r	ENDS
;	COMDAT ??_R2ioWeaponItem@@8
rdata$r	SEGMENT
??_R2ioWeaponItem@@8 DD FLAT:??_R1A@?0A@EA@ioWeaponItem@@8 ; ioWeaponItem::`RTTI Base Class Array'
	DD	FLAT:??_R1A@?0A@EA@ioAttackableItem@@8
	DD	FLAT:??_R1A@?0A@EA@ioItem@@8
rdata$r	ENDS
;	COMDAT ??_R3ioWeaponItem@@8
rdata$r	SEGMENT
??_R3ioWeaponItem@@8 DD 00H				; ioWeaponItem::`RTTI Class Hierarchy Descriptor'
	DD	00H
	DD	03H
	DD	FLAT:??_R2ioWeaponItem@@8
rdata$r	ENDS
;	COMDAT ??_R0?AVioWeaponItem@@@8
_DATA	SEGMENT
??_R0?AVioWeaponItem@@@8 DD FLAT:??_7type_info@@6B@	; ioWeaponItem `RTTI Type Descriptor'
	DD	00H
	DB	'.?AVioWeaponItem@@', 00H
_DATA	ENDS
;	COMDAT ??_R1A@?0A@EA@ioWeaponItem@@8
rdata$r	SEGMENT
??_R1A@?0A@EA@ioWeaponItem@@8 DD FLAT:??_R0?AVioWeaponItem@@@8 ; ioWeaponItem::`RTTI Base Class Descriptor at (0,-1,0,64)'
	DD	02H
	DD	00H
	DD	0ffffffffH
	DD	00H
	DD	040H
	DD	FLAT:??_R3ioWeaponItem@@8
rdata$r	ENDS
;	COMDAT ??_R1A@?0A@EA@ioRunChargeItem2@@8
rdata$r	SEGMENT
??_R1A@?0A@EA@ioRunChargeItem2@@8 DD FLAT:??_R0?AVioRunChargeItem2@@@8 ; ioRunChargeItem2::`RTTI Base Class Descriptor at (0,-1,0,64)'
	DD	03H
	DD	00H
	DD	0ffffffffH
	DD	00H
	DD	040H
	DD	FLAT:??_R3ioRunChargeItem2@@8
rdata$r	ENDS
;	COMDAT ??_R2ioRunChargeItem2@@8
rdata$r	SEGMENT
??_R2ioRunChargeItem2@@8 DD FLAT:??_R1A@?0A@EA@ioRunChargeItem2@@8 ; ioRunChargeItem2::`RTTI Base Class Array'
	DD	FLAT:??_R1A@?0A@EA@ioWeaponItem@@8
	DD	FLAT:??_R1A@?0A@EA@ioAttackableItem@@8
	DD	FLAT:??_R1A@?0A@EA@ioItem@@8
rdata$r	ENDS
;	COMDAT ??_R3ioRunChargeItem2@@8
rdata$r	SEGMENT
??_R3ioRunChargeItem2@@8 DD 00H				; ioRunChargeItem2::`RTTI Class Hierarchy Descriptor'
	DD	00H
	DD	04H
	DD	FLAT:??_R2ioRunChargeItem2@@8
rdata$r	ENDS
;	COMDAT ??_R0?AVioRunChargeItem2@@@8
_DATA	SEGMENT
??_R0?AVioRunChargeItem2@@@8 DD FLAT:??_7type_info@@6B@	; ioRunChargeItem2 `RTTI Type Descriptor'
	DD	00H
	DB	'.?AVioRunChargeItem2@@', 00H
_DATA	ENDS
;	COMDAT ??_R4ioRunChargeItem2@@6B@
rdata$r	SEGMENT
??_R4ioRunChargeItem2@@6B@ DD 00H			; ioRunChargeItem2::`RTTI Complete Object Locator'
	DD	00H
	DD	00H
	DD	FLAT:??_R0?AVioRunChargeItem2@@@8
	DD	FLAT:??_R3ioRunChargeItem2@@8
rdata$r	ENDS
;	COMDAT ??_7ioRunChargeItem2@@6B@
CONST	SEGMENT
??_7ioRunChargeItem2@@6B@ DD FLAT:??_R4ioRunChargeItem2@@6B@ ; ioRunChargeItem2::`vftable'
	DD	FLAT:?FindFieldEntityGrp@ioItem@@MBEABVioHashString@@XZ
	DD	FLAT:?LoadProperty@ioRunChargeItem2@@UAEXAAVioINILoader@@@Z
	DD	FLAT:?GetType@ioWeaponItem@@UBE?AW4ItemType@ioItem@@XZ
	DD	FLAT:?Clone@ioRunChargeItem2@@UAEPAVioItem@@XZ
	DD	FLAT:?UseCreateIndexItem@ioItem@@UBE_NXZ
	DD	FLAT:?GetSetFocusColor@ioItem@@UBEKXZ
	DD	FLAT:?Initialize@ioItem@@UAEXABVioHashString@@PAVioPlayStage@@@Z
	DD	FLAT:?InitializeBeforeEquip@ioItem@@UAEXABVioHashString@@PAVioPlayStage@@@Z
	DD	FLAT:?OnEquiped@ioAttackableItem@@UAEXPAVioBaseChar@@@Z
	DD	FLAT:?OnReleased@ioWeaponItem@@UAEXPAVioBaseChar@@@Z
	DD	FLAT:?SetExtendEquipEffect@ioItem@@UAEXPAVioBaseChar@@@Z
	DD	FLAT:?ReleaseExtendEquipEffect@ioItem@@UAEXPAVioBaseChar@@@Z
	DD	FLAT:?AddGlowLine@ioWeaponItem@@UAEXPAVioBaseChar@@@Z
	DD	FLAT:?RemoveGlowLine@ioWeaponItem@@UAEXPAVioBaseChar@@@Z
	DD	FLAT:?GetTargetName@ioItem@@UAE?AVioHashString@@XZ
	DD	FLAT:?ClearTarget@ioItem@@UAEXXZ
	DD	FLAT:?SetItemType@ioWeaponItem@@UAEXXZ
	DD	FLAT:?UpdateExtraData@ioItem@@UAEXPAVioBaseChar@@@Z
	DD	FLAT:?CheckWeaponDefenseState@ioItem@@UAEXPAVioBaseChar@@@Z
	DD	FLAT:?CheckWoundedState@ioItem@@UAEXPAVioBaseChar@@@Z
	DD	FLAT:?SetVisible@ioItem@@UAEXPAVioBaseChar@@_N@Z
	DD	FLAT:?UpdateSkillGauge@ioItem@@UAEXPAVioBaseChar@@M_N@Z
	DD	FLAT:?IsEnableExtraGauge@ioItem@@UAE_NPAVioBaseChar@@@Z
	DD	FLAT:?GetExtraGauge@ioItem@@UAEMXZ
	DD	FLAT:?ReduceNeedGauge@ioItem@@UAEXMPAVioBaseChar@@@Z
	DD	FLAT:?GetCurBullet@ioItem@@UAEHXZ
	DD	FLAT:?GetMaxBullet@ioItem@@UAEHXZ
	DD	FLAT:?SetCurBullet@ioItem@@UAEXH@Z
	DD	FLAT:?GetCurSecoundBullet@ioItem@@UAEHXZ
	DD	FLAT:?GetMaxSecoundBullet@ioItem@@UAEHXZ
	DD	FLAT:?SetCurSecoundBullet@ioItem@@UAEXH@Z
	DD	FLAT:?GetGrowthInfoNum@ioItem@@UBEHH@Z
	DD	FLAT:?GetGrowthInfoNumByType@ioItem@@UBEHHAAH@Z
	DD	FLAT:?ClearCurChargeRateForSkill@ioItem@@UAEXXZ
	DD	FLAT:?GetChargeDamageRateForSkill@ioItem@@UAEMXZ
	DD	FLAT:?GetChargeForceRateForSkill@ioItem@@UAEMXZ
	DD	FLAT:?GetChargeBlowRateForSkill@ioItem@@UAEMXZ
	DD	FLAT:?GetChargeRangeRateForSkill@ioItem@@UAEMXZ
	DD	FLAT:?GetChargeSpeedRateForSkill@ioItem@@UAEMXZ
	DD	FLAT:?GetChargeFloatRateForSkill@ioItem@@UAEMXZ
	DD	FLAT:?GetChargeScaleRateForSkill@ioItem@@UAEMXZ
	DD	FLAT:?GetChargeExplosionRateForSkill@ioItem@@UAEMXZ
	DD	FLAT:?GetChargeWoundedTimeRateForSkill@ioItem@@UAEMXZ
	DD	FLAT:?SetCurEquipEffect@ioItem@@UAEX_N@Z
	DD	FLAT:?SetCostume@ioItem@@UAEXH_N@Z
	DD	FLAT:??_EioRunChargeItem2@@UAEPAXI@Z
	DD	FLAT:?IsCanFire@ioAttackableItem@@UBE_NPBVioBaseChar@@H_N@Z
	DD	FLAT:?CallItemProcess@ioAttackableItem@@UAEXPAVioBaseChar@@@Z
	DD	FLAT:?SetExtraInfoToWeapon@ioRunChargeItem2@@UAEXPAVioWeapon@@_N@Z
	DD	FLAT:?CheckChargeInfo@ioAttackableItem@@UAEXPAVioWeapon@@_N@Z
	DD	FLAT:?SetExtendDefenseState@ioAttackableItem@@UAE_NPAVioBaseChar@@@Z
	DD	FLAT:?CheckExtendDefenseState@ioAttackableItem@@UAEXPAVioBaseChar@@@Z
	DD	FLAT:?CheckDefenseMoveAniState@ioAttackableItem@@UAEXPAVioBaseChar@@@Z
	DD	FLAT:?SetDodgeDefenseState@ioAttackableItem@@UAE_NPAVioBaseChar@@@Z
	DD	FLAT:?CheckDodgeDefenseState@ioAttackableItem@@UAEXPAVioBaseChar@@@Z
	DD	FLAT:?ApplyDodgeDefenseState@ioAttackableItem@@UAEXPAVioBaseChar@@AAVSP2Packet@@@Z
	DD	FLAT:?SetDefenseAttackState@ioAttackableItem@@UAE_NPAVioBaseChar@@@Z
	DD	FLAT:?CheckDefenseAttackState@ioAttackableItem@@UAEXPAVioBaseChar@@@Z
	DD	FLAT:?ApplyDefenseAttackState@ioAttackableItem@@UAEXPAVioBaseChar@@AAVSP2Packet@@@Z
	DD	FLAT:?SetExtendDashState@ioAttackableItem@@UAE_NPAVioBaseChar@@@Z
	DD	FLAT:?CheckExtendDashState@ioAttackableItem@@UAEXPAVioBaseChar@@@Z
	DD	FLAT:?SetNormalAttack@ioRunChargeItem2@@UAEXPAVioBaseChar@@H@Z
	DD	FLAT:?CheckNormalAttack@ioRunChargeItem2@@UAEXPAVioBaseChar@@@Z
	DD	FLAT:?SetJumpAttack@ioAttackableItem@@UAE_NPAVioBaseChar@@HMW4AttackType@@@Z
	DD	FLAT:?CheckJumpAttack@ioAttackableItem@@UAEXPAVioBaseChar@@@Z
	DD	FLAT:?SetJumpReloadState@ioAttackableItem@@UAE_NPAVioBaseChar@@@Z
	DD	FLAT:?SetJumpReload@ioAttackableItem@@UAE_NPAVioBaseChar@@@Z
	DD	FLAT:?CheckJumpReloadState@ioAttackableItem@@UAEXPAVioBaseChar@@@Z
	DD	FLAT:?CheckJumpReloadReserve@ioAttackableItem@@UAEXPAVioBaseChar@@@Z
	DD	FLAT:?ProcessJumpReloadState@ioAttackableItem@@UAEXPAVioBaseChar@@@Z
	DD	FLAT:?ApplyJumpReload@ioAttackableItem@@UAEXPAVioBaseChar@@AAVSP2Packet@@@Z
	DD	FLAT:?OnItemGaugeOK@ioRunChargeItem2@@UAEXPAVioBaseChar@@AAVSP2Packet@@@Z
	DD	FLAT:?OnItemGaugeCancel@ioRunChargeItem2@@UAEXPAVioBaseChar@@AAVSP2Packet@@@Z
	DD	FLAT:?OnEndExtendDefense@ioAttackableItem@@UAEXPAVioBaseChar@@@Z
	DD	FLAT:?OnEndNormalAttack@ioAttackableItem@@UAEXPAVioBaseChar@@@Z
	DD	FLAT:?OnEndExtendAttack@ioRunChargeItem2@@UAEXPAVioBaseChar@@_N@Z
	DD	FLAT:?OnEndExtendJump@ioAttackableItem@@UAEXPAVioBaseChar@@@Z
	DD	FLAT:?FillNormalAttackExtraInfo@ioAttackableItem@@UAEXAAVSP2Packet@@@Z
	DD	FLAT:?ApplyNormalAttackExtraInfo@ioAttackableItem@@UAEXAAVSP2Packet@@@Z
	DD	FLAT:?CheckOnHand@ioAttackableItem@@UAE_NXZ
	DD	FLAT:?CheckAimState@ioAttackableItem@@UAE_N_N@Z
	DD	FLAT:?SetAimState@ioAttackableItem@@UAE_NPAVioBaseChar@@@Z
	DD	FLAT:?CheckLanding@ioAttackableItem@@UAE_NPAVioBaseChar@@@Z
	DD	FLAT:?SetNoneState@ioAttackableItem@@UAEXPAVioBaseChar@@H@Z
	DD	FLAT:?CheckExtendDefenseEnable@ioAttackableItem@@UAE_NPAVioBaseChar@@@Z
	DD	FLAT:?IsChargeAttackState@ioRunChargeItem2@@UAE_NPAVioBaseChar@@@Z
	DD	FLAT:?IsMoveAttackState@ioRunChargeItem2@@UAE_NPAVioBaseChar@@@Z
	DD	FLAT:?IsCanUpdateGauge@ioAttackableItem@@UAE_NPAVioBaseChar@@@Z
	DD	FLAT:?IsNoGhostWalk@ioAttackableItem@@UAE_NPAVioBaseChar@@@Z
	DD	FLAT:?IsEnableAttackDashCheck@ioAttackableItem@@UAE_NPAVioBaseChar@@_N@Z
	DD	FLAT:?IsEnableItemDashCheck@ioAttackableItem@@UAE_NPAVioBaseChar@@_N@Z
	DD	FLAT:?IsEnableAttackRotateCheck@ioAttackableItem@@UAE_NPAVioBaseChar@@@Z
	DD	FLAT:?IsEnableChargeDefenseCheck@ioAttackableItem@@UAE_NXZ
	DD	FLAT:?CheckAimJumpState@ioAttackableItem@@UAEXPAVioBaseChar@@@Z
	DD	FLAT:?GetJumppingAnimation@ioAttackableItem@@UBEABVioHashString@@XZ
	DD	FLAT:?GetExtendJumppingAnimation@ioAttackableItem@@UBEABVioHashString@@XZ
	DD	FLAT:?CheckRetreatState@ioAttackableItem@@UAEXPAVioBaseChar@@@Z
	DD	FLAT:?SetNextItemState@ioAttackableItem@@UAEXPAVioBaseChar@@0PAVioWeapon@@_NM@Z
	DD	FLAT:?WeaponWounded@ioWeaponItem@@UAEXPAVioWeapon@@PAVioBaseChar@@@Z
	DD	FLAT:?WeaponMapColDead@ioAttackableItem@@UAEXPAVioWeapon@@@Z
	DD	FLAT:?SetDefenceCounterState@ioAttackableItem@@UAEXPAVioBaseChar@@@Z
	DD	FLAT:?IsUseDefenceCounterAttack@ioAttackableItem@@UAE_NXZ
	DD	FLAT:?ProcessDefenceCounterAttack@ioAttackableItem@@UAEXPAVioBaseChar@@@Z
	DD	FLAT:?IsUseDefenceCounterAttackEndDash@ioAttackableItem@@UAE_NXZ
	DD	FLAT:?ProcessExtraJump@ioAttackableItem@@UAEXPAVioBaseChar@@@Z
	DD	FLAT:?SetEndGrappling@ioAttackableItem@@UAEXPAVioBaseChar@@@Z
	DD	FLAT:?ClearKeyReserve@ioAttackableItem@@MAEXXZ
	DD	FLAT:?CheckReserve@ioRunChargeItem2@@MAEXPAVioBaseChar@@@Z
	DD	FLAT:?ProcessReserveKeyInput@ioAttackableItem@@MAEXPAVioBaseChar@@@Z
	DD	FLAT:?SetJumpState@ioAttackableItem@@UAEXXZ
	DD	FLAT:?SetJumpping@ioAttackableItem@@UAEXPAVioBaseChar@@_N@Z
	DD	FLAT:?ProcessJumpping@ioAttackableItem@@UAEXPAVioBaseChar@@M@Z
	DD	FLAT:?ProcessJumppingByNoNeedProcess@ioAttackableItem@@UAEXPAVioBaseChar@@M@Z
	DD	FLAT:?ProcessLanding@ioAttackableItem@@UAEXPAVioBaseChar@@@Z
	DD	FLAT:?ProcessJumpAttack@ioAttackableItem@@UAEXPAVioBaseChar@@M@Z
	DD	FLAT:?ProcessAimJump@ioAttackableItem@@UAE_NPAVioBaseChar@@M@Z
	DD	FLAT:?ApplyJump@ioAttackableItem@@UAEXPAVioBaseChar@@AAVSP2Packet@@@Z
	DD	FLAT:?ApplyDash@ioAttackableItem@@UAEXPAVioBaseChar@@AAVSP2Packet@@@Z
	DD	FLAT:?ApplyCounterAttack@ioAttackableItem@@UAEXPAVioBaseChar@@AAVSP2Packet@@@Z
	DD	FLAT:?CheckComboJumpAttack@ioAttackableItem@@UAEXPAVioBaseChar@@@Z
	DD	FLAT:?SetFlashJumpAttack@ioAttackableItem@@UAE_NPAVioBaseChar@@@Z
	DD	FLAT:?SetComboFlashAttack@ioAttackableItem@@UAE_NPAVioBaseChar@@@Z
	DD	FLAT:?SetCollectJumpAttack@ioAttackableItem@@UAE_NPAVioBaseChar@@@Z
	DD	FLAT:?SetPowerChargeJumpAttack@ioAttackableItem@@UAE_NPAVioBaseChar@@@Z
	DD	FLAT:?GetAttackSpeedRate@ioAttackableItem@@UBEMXZ
	DD	FLAT:?GetExtraJumpSpeedRate@ioAttackableItem@@UBEMABUD3DXVECTOR3@@ABUD3DXQUATERNION@@@Z
	DD	FLAT:?IsEnableExtendJump@ioAttackableItem@@UAE_NXZ
	DD	FLAT:?RecevieExtendJumpUse@ioAttackableItem@@UAEXPAVioBaseChar@@@Z
	DD	FLAT:?HasAniFile@ioAttackableItem@@UBE_NW4AttackType@@H@Z
	DD	FLAT:?HasEndAniFile@ioAttackableItem@@UBE_NW4AttackType@@H@Z
	DD	FLAT:?GetAttackAttribute@ioAttackableItem@@UBEPBUAttackAttribute@@W4AttackType@@H@Z
	DD	FLAT:?GetAniFile@ioAttackableItem@@UBEABVioHashString@@W4AttackType@@H@Z
	DD	FLAT:?GetAttackAniRate@ioAttackableItem@@UBEMW4AttackType@@H@Z
	DD	FLAT:?GetEndAniFile@ioAttackableItem@@UBEABVioHashString@@W4AttackType@@H@Z
	DD	FLAT:?GetAttackEndAniRate@ioAttackableItem@@UBEMW4AttackType@@H@Z
	DD	FLAT:?GetAttackAttributeIdx@ioAttackableItem@@UBEABV?$vector@UWeaponInfo@@V?$allocator@UWeaponInfo@@@std@@@std@@W4AttackType@@H@Z
	DD	FLAT:?GetForceInfoList@ioAttackableItem@@UBEABV?$vector@UForceInfo@@V?$allocator@UForceInfo@@@std@@@std@@W4AttackType@@H@Z
	DD	FLAT:?GetAttackPreDelay@ioAttackableItem@@UBEKW4AttackType@@H@Z
	DD	FLAT:?GetAttackAnimationDelay@ioAttackableItem@@UBEKW4AttackType@@H@Z
	DD	FLAT:?GetMaxCombo@ioAttackableItem@@UBEHXZ
	DD	FLAT:?GetExtraDashAttackMax@ioAttackableItem@@UBEHXZ
	DD	FLAT:?HasJumpEndAnimation@ioAttackableItem@@UBE_N_NPAVioBaseChar@@@Z
	DD	FLAT:?GetJumpEndAnimation@ioAttackableItem@@UBEABVioHashString@@_NPAVioBaseChar@@@Z
	DD	FLAT:?ClearCancelInfo@ioAttackableItem@@MAEXXZ
	DD	FLAT:?CheckCancelReserve@ioAttackableItem@@MAEXPAVioBaseChar@@@Z
	DD	FLAT:?SetCurAttackAniForInputJump@ioAttackableItem@@MAEXABVioHashString@@M@Z
	DD	FLAT:?ProcessCancel@ioAttackableItem@@MAE_NPAVioBaseChar@@@Z
	DD	FLAT:?ProcessCancelBySpeicalDash@ioAttackableItem@@MAE_NPAVioBaseChar@@@Z
	DD	FLAT:?SetCurAttackAniForInputDashS@ioAttackableItem@@UAEXABVioHashString@@M@Z
	DD	FLAT:?CheckCancelReserveByConditionalSpecialDash@ioAttackableItem@@UAEXPAVioBaseChar@@@Z
	DD	FLAT:?IsConditionalSpecialDashReserve@ioAttackableItem@@UAE_NPAVioBaseChar@@@Z
	DD	FLAT:?SetChangeConditionalSpecialDash@ioAttackableItem@@UAEXPAVioBaseChar@@W4DirKeyInput@ioUserKeyInput@@H@Z
	DD	FLAT:?CheckChangeWereWolfState@ioAttackableItem@@UAE_NPAVioBaseChar@@@Z
	DD	FLAT:?SetChangeWereWolfState@ioAttackableItem@@UAEXPAVioBaseChar@@@Z
	DD	FLAT:?CheckReleaseWereWolfState@ioAttackableItem@@UAE_NPAVioBaseChar@@@Z
	DD	FLAT:?ReleseWereWolfState@ioAttackableItem@@UAEXPAVioBaseChar@@@Z
	DD	FLAT:?ReleseWereWolfStateByOwner@ioAttackableItem@@UAEXPAVioBaseChar@@@Z
	DD	FLAT:?IncreaseChangeDamage@ioAttackableItem@@UAEXMH_N@Z
	DD	FLAT:?IncreaseChangeDamageByWeapon@ioAttackableItem@@UAEXM@Z
	DD	FLAT:?CheckIncreaseChangeDamage@ioAttackableItem@@UAEXPAVioBaseChar@@@Z
	DD	FLAT:?DecreaseChangeDamage@ioAttackableItem@@UAEXPAVioBaseChar@@@Z
	DD	FLAT:?IsEnableActionStopDelay@ioAttackableItem@@UAE_NXZ
	DD	FLAT:?SetExtraGaugeTypeByWeapon@ioAttackableItem@@UAEXPAVioBaseChar@@HHM@Z
	DD	FLAT:?SetUseExtraGauge@ioAttackableItem@@UAEXM@Z
	DD	FLAT:?InitExtraGauge@ioAttackableItem@@UAEXXZ
	DD	FLAT:?MaxExtraGauge@ioAttackableItem@@UAEXXZ
	DD	FLAT:?GetMaxExtraGauge@ioAttackableItem@@UAEMXZ
	DD	FLAT:?GetCurExtraGauge@ioAttackableItem@@UAEMXZ
	DD	FLAT:?SetCurExtraGauge@ioAttackableItem@@UAEXM@Z
	DD	FLAT:?GetAutoTargetValue@ioAttackableItem@@UAEXPAVioBaseChar@@AAM11W4AutoTargetType@@@Z
	DD	FLAT:?ClearAirJump@ioAttackableItem@@UAEXXZ
	DD	FLAT:?SetAirJump@ioAttackableItem@@UAEXPAVioBaseChar@@HM@Z
	DD	FLAT:?CheckAirJump@ioAttackableItem@@UAEXPAVioBaseChar@@@Z
	DD	FLAT:?IsAutoTarget@ioAttackableItem@@UBE_NXZ
	DD	FLAT:?EquipObjectItemByAttakable@ioAttackableItem@@UAEXPAVioBaseChar@@PAVioItem@@@Z
	DD	FLAT:?ReleaseObjectItemByAttack@ioAttackableItem@@UAEXPAVioBaseChar@@PAVioItem@@@Z
	DD	FLAT:?IsBuffFlyChange@ioAttackableItem@@UAE_NPAVioBaseChar@@@Z
	DD	FLAT:?GetAttackStateText@ioAttackableItem@@UBEPBDXZ
	DD	FLAT:?SetJumpLandingExtraState@ioAttackableItem@@UAE_NPAVioBaseChar@@@Z
	DD	FLAT:?IsWoundAfterUseExtendState@ioAttackableItem@@UAE_NXZ
	DD	FLAT:?CheckWoundAfterUseExtendState@ioAttackableItem@@UAE_NPAVioBaseChar@@W4BlowTargetType@@@Z
	DD	FLAT:?IsCharSkipState@ioAttackableItem@@UAE_NPBVioBaseChar@@@Z
	DD	FLAT:?ReleaseObjectState@ioWeaponItem@@UAEXPAVioBaseChar@@PAVioObjectItem@@@Z
	DD	FLAT:?IsCmdCheckEnableTime@ioWeaponItem@@UAE_NXZ
	DD	FLAT:?IsCmdSuccess@ioWeaponItem@@UAE_NXZ
	DD	FLAT:?IsOneTimeWeaponItem@ioWeaponItem@@UBE_NXZ
	DD	FLAT:?GetEquipMesh@ioWeaponItem@@UBEABVioHashString@@PAVioBaseChar@@@Z
	DD	FLAT:?IsCanSendControl@ioWeaponItem@@UBE_NXZ
	DD	FLAT:?GetSubType@ioRunChargeItem2@@UBE?AW4WeaponSubType@ioWeaponItem@@XZ
CONST	ENDS
;	COMDAT xdata$x
xdata$x	SEGMENT
__ehfuncinfo$??0ioRunChargeItem2@@QAE@XZ DD 019930522H
	DD	09H
	DD	FLAT:__unwindtable$??0ioRunChargeItem2@@QAE@XZ
	DD	2 DUP(00H)
	DD	2 DUP(00H)
	DD	00H
	DD	01H
__unwindtable$??0ioRunChargeItem2@@QAE@XZ DD 0ffffffffH
	DD	FLAT:__unwindfunclet$??0ioRunChargeItem2@@QAE@XZ$0
	DD	00H
	DD	FLAT:__unwindfunclet$??0ioRunChargeItem2@@QAE@XZ$1
	DD	01H
	DD	FLAT:__unwindfunclet$??0ioRunChargeItem2@@QAE@XZ$2
	DD	02H
	DD	FLAT:__unwindfunclet$??0ioRunChargeItem2@@QAE@XZ$3
	DD	03H
	DD	FLAT:__unwindfunclet$??0ioRunChargeItem2@@QAE@XZ$4
	DD	04H
	DD	FLAT:__unwindfunclet$??0ioRunChargeItem2@@QAE@XZ$5
	DD	05H
	DD	FLAT:__unwindfunclet$??0ioRunChargeItem2@@QAE@XZ$6
	DD	06H
	DD	FLAT:__unwindfunclet$??0ioRunChargeItem2@@QAE@XZ$7
	DD	07H
	DD	FLAT:__unwindfunclet$??0ioRunChargeItem2@@QAE@XZ$8
; Function compile flags: /Ogsp
; File d:\lost saga for developer\youtube\tutorial\source\src\lsclient\iorunchargeitem2.cpp
xdata$x	ENDS
;	COMDAT ??0ioRunChargeItem2@@QAE@XZ
_TEXT	SEGMENT
_this$ = -16						; size = 4
__$EHRec$ = -12						; size = 12
??0ioRunChargeItem2@@QAE@XZ PROC			; ioRunChargeItem2::ioRunChargeItem2, COMDAT
; _this$ = ecx

; 14   : {

  00000	6a 04		 push	 4
  00002	b8 00 00 00 00	 mov	 eax, __ehhandler$??0ioRunChargeItem2@@QAE@XZ
  00007	e8 00 00 00 00	 call	 __EH_prolog3
  0000c	8b f1		 mov	 esi, ecx
  0000e	89 75 f0	 mov	 DWORD PTR _this$[ebp], esi
  00011	e8 00 00 00 00	 call	 ??0ioWeaponItem@@QAE@XZ	; ioWeaponItem::ioWeaponItem
  00016	8b 1d 00 00 00
	00		 mov	 ebx, DWORD PTR __imp_??0ioHashString@@QAE@XZ
  0001c	33 ff		 xor	 edi, edi
  0001e	8d 8e 5c 19 00
	00		 lea	 ecx, DWORD PTR [esi+6492]
  00024	89 7d fc	 mov	 DWORD PTR __$EHRec$[ebp+8], edi
  00027	c7 06 00 00 00
	00		 mov	 DWORD PTR [esi], OFFSET ??_7ioRunChargeItem2@@6B@
  0002d	ff d3		 call	 ebx
  0002f	8d 8e 74 19 00
	00		 lea	 ecx, DWORD PTR [esi+6516]
  00035	c6 45 fc 01	 mov	 BYTE PTR __$EHRec$[ebp+8], 1
  00039	e8 00 00 00 00	 call	 ??0?$CEncrypt@M@@QAE@XZ	; CEncrypt<float>::CEncrypt<float>
  0003e	8d 8e a4 19 00
	00		 lea	 ecx, DWORD PTR [esi+6564]
  00044	c6 45 fc 02	 mov	 BYTE PTR __$EHRec$[ebp+8], 2
  00048	ff d3		 call	 ebx
  0004a	8d 8e c4 19 00
	00		 lea	 ecx, DWORD PTR [esi+6596]
  00050	c6 45 fc 03	 mov	 BYTE PTR __$EHRec$[ebp+8], 3
  00054	e8 00 00 00 00	 call	 ??0AttackAttribute@@QAE@XZ ; AttackAttribute::AttackAttribute
  00059	8d 8e 18 1a 00
	00		 lea	 ecx, DWORD PTR [esi+6680]
  0005f	c6 45 fc 04	 mov	 BYTE PTR __$EHRec$[ebp+8], 4
  00063	e8 00 00 00 00	 call	 ??0AttackAttribute@@QAE@XZ ; AttackAttribute::AttackAttribute
  00068	8d 8e 6c 1a 00
	00		 lea	 ecx, DWORD PTR [esi+6764]
  0006e	c6 45 fc 05	 mov	 BYTE PTR __$EHRec$[ebp+8], 5
  00072	e8 00 00 00 00	 call	 ??0AttackAttribute@@QAE@XZ ; AttackAttribute::AttackAttribute
  00077	8d 8e cc 1a 00
	00		 lea	 ecx, DWORD PTR [esi+6860]
  0007d	c6 45 fc 06	 mov	 BYTE PTR __$EHRec$[ebp+8], 6
  00081	e8 00 00 00 00	 call	 ??0?$CEncrypt@K@@QAE@XZ	; CEncrypt<unsigned long>::CEncrypt<unsigned long>
  00086	8d 8e fc 1a 00
	00		 lea	 ecx, DWORD PTR [esi+6908]
  0008c	c6 45 fc 07	 mov	 BYTE PTR __$EHRec$[ebp+8], 7
  00090	e8 00 00 00 00	 call	 ??0?$CEncrypt@_N@@QAE@XZ ; CEncrypt<bool>::CEncrypt<bool>
  00095	8d 8e 30 1b 00
	00		 lea	 ecx, DWORD PTR [esi+6960]
  0009b	c6 45 fc 08	 mov	 BYTE PTR __$EHRec$[ebp+8], 8
  0009f	ff d3		 call	 ebx

; 15   : 	m_ChargeState = CS_NONE;

  000a1	89 be 54 19 00
	00		 mov	 DWORD PTR [esi+6484], edi

; 16   : 	m_RunState = RS_NONE;

  000a7	89 be 58 19 00
	00		 mov	 DWORD PTR [esi+6488], edi

; 17   : 
; 18   : 	m_dwAttackStartTime = 0;

  000ad	89 be 6c 19 00
	00		 mov	 DWORD PTR [esi+6508], edi

; 19   : 	m_iCurCombo = 0;

  000b3	89 be 70 19 00
	00		 mov	 DWORD PTR [esi+6512], edi

; 20   : 
; 21   : 	m_dwRunningEndTime = 0;

  000b9	89 be c0 19 00
	00		 mov	 DWORD PTR [esi+6592], edi

; 22   : 	m_dwRunningAttackEndTime = 0;

  000bf	89 be 14 1a 00
	00		 mov	 DWORD PTR [esi+6676], edi

; 23   : 	m_dwRunningDefenseEndTime = 0;

  000c5	89 be 68 1a 00
	00		 mov	 DWORD PTR [esi+6760], edi

; 24   : 	m_dwFinishAttackEndTime = 0;

  000cb	89 be bc 1a 00
	00		 mov	 DWORD PTR [esi+6844], edi

; 25   : 
; 26   : 	m_ChargeStartDirKey = ioUserKeyInput::DKI_NONE;

  000d1	89 be c4 1a 00
	00		 mov	 DWORD PTR [esi+6852], edi

; 27   : 	m_CurDirKey = ioUserKeyInput::DKI_NONE;

  000d7	89 be c8 1a 00
	00		 mov	 DWORD PTR [esi+6856], edi

; 28   : 
; 29   : 	m_dwFireDuration = 0;

  000dd	89 be 2c 1b 00
	00		 mov	 DWORD PTR [esi+6956], edi

; 30   : 
; 31   : 	m_dwRetreatEndTime = 0;

  000e3	89 be 44 1b 00
	00		 mov	 DWORD PTR [esi+6980], edi

; 32   : 	m_dwRetreatForceTime = 0;

  000e9	89 be 5c 1b 00
	00		 mov	 DWORD PTR [esi+7004], edi

; 33   : 	m_dwRunningStartTime = 0;

  000ef	89 be bc 19 00
	00		 mov	 DWORD PTR [esi+6588], edi

; 34   : }

  000f5	8b c6		 mov	 eax, esi
  000f7	e8 00 00 00 00	 call	 __EH_epilog3
  000fc	c3		 ret	 0
_TEXT	ENDS
;	COMDAT text$x
text$x	SEGMENT
__unwindfunclet$??0ioRunChargeItem2@@QAE@XZ$0:
  00000	8b 4d f0	 mov	 ecx, DWORD PTR _this$[ebp]
  00003	e9 00 00 00 00	 jmp	 ??1ioWeaponItem@@UAE@XZ	; ioWeaponItem::~ioWeaponItem
__unwindfunclet$??0ioRunChargeItem2@@QAE@XZ$1:
  00008	8b 4d f0	 mov	 ecx, DWORD PTR _this$[ebp]
  0000b	81 c1 5c 19 00
	00		 add	 ecx, 6492		; 0000195cH
  00011	ff 25 00 00 00
	00		 jmp	 DWORD PTR __imp_??1ioHashString@@QAE@XZ
__unwindfunclet$??0ioRunChargeItem2@@QAE@XZ$2:
  00017	8b 4d f0	 mov	 ecx, DWORD PTR _this$[ebp]
  0001a	81 c1 74 19 00
	00		 add	 ecx, 6516		; 00001974H
  00020	e9 00 00 00 00	 jmp	 ??1?$CEncrypt@M@@UAE@XZ	; CEncrypt<float>::~CEncrypt<float>
__unwindfunclet$??0ioRunChargeItem2@@QAE@XZ$3:
  00025	8b 4d f0	 mov	 ecx, DWORD PTR _this$[ebp]
  00028	81 c1 a4 19 00
	00		 add	 ecx, 6564		; 000019a4H
  0002e	ff 25 00 00 00
	00		 jmp	 DWORD PTR __imp_??1ioHashString@@QAE@XZ
__unwindfunclet$??0ioRunChargeItem2@@QAE@XZ$4:
  00034	8b 4d f0	 mov	 ecx, DWORD PTR _this$[ebp]
  00037	81 c1 c4 19 00
	00		 add	 ecx, 6596		; 000019c4H
  0003d	e9 00 00 00 00	 jmp	 ??1AttackAttribute@@QAE@XZ
__unwindfunclet$??0ioRunChargeItem2@@QAE@XZ$5:
  00042	8b 4d f0	 mov	 ecx, DWORD PTR _this$[ebp]
  00045	81 c1 18 1a 00
	00		 add	 ecx, 6680		; 00001a18H
  0004b	e9 00 00 00 00	 jmp	 ??1AttackAttribute@@QAE@XZ
__unwindfunclet$??0ioRunChargeItem2@@QAE@XZ$6:
  00050	8b 4d f0	 mov	 ecx, DWORD PTR _this$[ebp]
  00053	81 c1 6c 1a 00
	00		 add	 ecx, 6764		; 00001a6cH
  00059	e9 00 00 00 00	 jmp	 ??1AttackAttribute@@QAE@XZ
__unwindfunclet$??0ioRunChargeItem2@@QAE@XZ$7:
  0005e	8b 4d f0	 mov	 ecx, DWORD PTR _this$[ebp]
  00061	81 c1 cc 1a 00
	00		 add	 ecx, 6860		; 00001accH
  00067	e9 00 00 00 00	 jmp	 ??1?$CEncrypt@K@@UAE@XZ	; CEncrypt<unsigned long>::~CEncrypt<unsigned long>
__unwindfunclet$??0ioRunChargeItem2@@QAE@XZ$8:
  0006c	8b 4d f0	 mov	 ecx, DWORD PTR _this$[ebp]
  0006f	81 c1 fc 1a 00
	00		 add	 ecx, 6908		; 00001afcH
  00075	e9 00 00 00 00	 jmp	 ??1?$CEncrypt@_N@@UAE@XZ ; CEncrypt<bool>::~CEncrypt<bool>
__ehhandler$??0ioRunChargeItem2@@QAE@XZ:
  0007a	8b 54 24 08	 mov	 edx, DWORD PTR [esp+8]
  0007e	8d 42 0c	 lea	 eax, DWORD PTR [edx+12]
  00081	8b 4a ec	 mov	 ecx, DWORD PTR [edx-20]
  00084	33 c8		 xor	 ecx, eax
  00086	e8 00 00 00 00	 call	 @__security_check_cookie@4
  0008b	b8 00 00 00 00	 mov	 eax, OFFSET __ehfuncinfo$??0ioRunChargeItem2@@QAE@XZ
  00090	e9 00 00 00 00	 jmp	 ___CxxFrameHandler3
text$x	ENDS
??0ioRunChargeItem2@@QAE@XZ ENDP			; ioRunChargeItem2::ioRunChargeItem2
; Function compile flags: /Ogsp
; File d:\lost saga for developer\youtube\tutorial\source\src\lsclient\ioitem.h
;	COMDAT ?IsEnableExtraGauge@ioItem@@UAE_NPAVioBaseChar@@@Z
_TEXT	SEGMENT
_pChar$ = 8						; size = 4
?IsEnableExtraGauge@ioItem@@UAE_NPAVioBaseChar@@@Z PROC	; ioItem::IsEnableExtraGauge, COMDAT
; _this$ = ecx

; 375  : 	virtual bool IsEnableExtraGauge( ioBaseChar *pChar ) { return true; }

  00000	b0 01		 mov	 al, 1
  00002	c2 04 00	 ret	 4
?IsEnableExtraGauge@ioItem@@UAE_NPAVioBaseChar@@@Z ENDP	; ioItem::IsEnableExtraGauge
; Function compile flags: /Ogsp
_TEXT	ENDS
;	COMDAT ?GetExtraGauge@ioItem@@UAEMXZ
_TEXT	SEGMENT
tv64 = -4						; size = 4
?GetExtraGauge@ioItem@@UAEMXZ PROC			; ioItem::GetExtraGauge, COMDAT
; _this$ = ecx

; 376  : 	virtual float GetExtraGauge() { return FLOAT1; }

  00000	55		 push	 ebp
  00001	8b ec		 mov	 ebp, esp
  00003	51		 push	 ecx
  00004	b8 01 00 00 00	 mov	 eax, 1
  00009	89 45 fc	 mov	 DWORD PTR tv64[ebp], eax
  0000c	db 45 fc	 fild	 DWORD PTR tv64[ebp]
  0000f	85 c0		 test	 eax, eax
  00011	79 06		 jns	 SHORT $LN5@GetExtraGa
  00013	d8 05 00 00 00
	00		 fadd	 DWORD PTR __real@4f800000
$LN5@GetExtraGa:
  00019	c9		 leave
  0001a	c3		 ret	 0
?GetExtraGauge@ioItem@@UAEMXZ ENDP			; ioItem::GetExtraGauge
; Function compile flags: /Ogsp
; File d:\lost saga for developer\youtube\tutorial\source\src\lsclient\ioattackableitem.h
_TEXT	ENDS
;	COMDAT ?CheckOnHand@ioAttackableItem@@UAE_NXZ
_TEXT	SEGMENT
?CheckOnHand@ioAttackableItem@@UAE_NXZ PROC		; ioAttackableItem::CheckOnHand, COMDAT
; _this$ = ecx

; 429  : 	virtual bool CheckOnHand() { return false; }

  00000	32 c0		 xor	 al, al
  00002	c3		 ret	 0
?CheckOnHand@ioAttackableItem@@UAE_NXZ ENDP		; ioAttackableItem::CheckOnHand
; Function compile flags: /Ogsp
_TEXT	ENDS
;	COMDAT ?CheckAimState@ioAttackableItem@@UAE_N_N@Z
_TEXT	SEGMENT
_bAimMove$ = 8						; size = 1
?CheckAimState@ioAttackableItem@@UAE_N_N@Z PROC		; ioAttackableItem::CheckAimState, COMDAT
; _this$ = ecx

; 430  : 	virtual bool CheckAimState( bool bAimMove = false ) { return false; }

  00000	32 c0		 xor	 al, al
  00002	c2 04 00	 ret	 4
?CheckAimState@ioAttackableItem@@UAE_N_N@Z ENDP		; ioAttackableItem::CheckAimState
; Function compile flags: /Ogsp
_TEXT	ENDS
;	COMDAT ?SetAimState@ioAttackableItem@@UAE_NPAVioBaseChar@@@Z
_TEXT	SEGMENT
_pChar$ = 8						; size = 4
?SetAimState@ioAttackableItem@@UAE_NPAVioBaseChar@@@Z PROC ; ioAttackableItem::SetAimState, COMDAT
; _this$ = ecx

; 431  : 	virtual bool SetAimState( ioBaseChar *pChar ) { return false; }

  00000	32 c0		 xor	 al, al
  00002	c2 04 00	 ret	 4
?SetAimState@ioAttackableItem@@UAE_NPAVioBaseChar@@@Z ENDP ; ioAttackableItem::SetAimState
; Function compile flags: /Ogsp
_TEXT	ENDS
;	COMDAT ?CheckExtendDefenseEnable@ioAttackableItem@@UAE_NPAVioBaseChar@@@Z
_TEXT	SEGMENT
_pChar$ = 8						; size = 4
?CheckExtendDefenseEnable@ioAttackableItem@@UAE_NPAVioBaseChar@@@Z PROC ; ioAttackableItem::CheckExtendDefenseEnable, COMDAT
; _this$ = ecx

; 434  : 	virtual bool CheckExtendDefenseEnable( ioBaseChar *pChar ) { return true; }

  00000	b0 01		 mov	 al, 1
  00002	c2 04 00	 ret	 4
?CheckExtendDefenseEnable@ioAttackableItem@@UAE_NPAVioBaseChar@@@Z ENDP ; ioAttackableItem::CheckExtendDefenseEnable
; Function compile flags: /Ogsp
_TEXT	ENDS
;	COMDAT ?IsNoGhostWalk@ioAttackableItem@@UAE_NPAVioBaseChar@@@Z
_TEXT	SEGMENT
_pOwner$ = 8						; size = 4
?IsNoGhostWalk@ioAttackableItem@@UAE_NPAVioBaseChar@@@Z PROC ; ioAttackableItem::IsNoGhostWalk, COMDAT
; _this$ = ecx

; 439  : 	virtual bool IsNoGhostWalk( ioBaseChar *pOwner ) { return false; }

  00000	32 c0		 xor	 al, al
  00002	c2 04 00	 ret	 4
?IsNoGhostWalk@ioAttackableItem@@UAE_NPAVioBaseChar@@@Z ENDP ; ioAttackableItem::IsNoGhostWalk
; Function compile flags: /Ogsp
_TEXT	ENDS
;	COMDAT ?IsEnableAttackDashCheck@ioAttackableItem@@UAE_NPAVioBaseChar@@_N@Z
_TEXT	SEGMENT
_pOwner$ = 8						; size = 4
_bCheck$ = 12						; size = 1
?IsEnableAttackDashCheck@ioAttackableItem@@UAE_NPAVioBaseChar@@_N@Z PROC ; ioAttackableItem::IsEnableAttackDashCheck, COMDAT
; _this$ = ecx

; 441  : 	virtual bool IsEnableAttackDashCheck( ioBaseChar *pOwner, bool bCheck ) { return false; }

  00000	32 c0		 xor	 al, al
  00002	c2 08 00	 ret	 8
?IsEnableAttackDashCheck@ioAttackableItem@@UAE_NPAVioBaseChar@@_N@Z ENDP ; ioAttackableItem::IsEnableAttackDashCheck
; Function compile flags: /Ogsp
_TEXT	ENDS
;	COMDAT ?IsEnableItemDashCheck@ioAttackableItem@@UAE_NPAVioBaseChar@@_N@Z
_TEXT	SEGMENT
_pOwner$ = 8						; size = 4
_bCheck$ = 12						; size = 1
?IsEnableItemDashCheck@ioAttackableItem@@UAE_NPAVioBaseChar@@_N@Z PROC ; ioAttackableItem::IsEnableItemDashCheck, COMDAT
; _this$ = ecx

; 442  : 	virtual bool IsEnableItemDashCheck( ioBaseChar *pOwner, bool bCheck ) { return false; }

  00000	32 c0		 xor	 al, al
  00002	c2 08 00	 ret	 8
?IsEnableItemDashCheck@ioAttackableItem@@UAE_NPAVioBaseChar@@_N@Z ENDP ; ioAttackableItem::IsEnableItemDashCheck
; Function compile flags: /Ogsp
_TEXT	ENDS
;	COMDAT ?IsEnableAttackRotateCheck@ioAttackableItem@@UAE_NPAVioBaseChar@@@Z
_TEXT	SEGMENT
_pOwner$ = 8						; size = 4
?IsEnableAttackRotateCheck@ioAttackableItem@@UAE_NPAVioBaseChar@@@Z PROC ; ioAttackableItem::IsEnableAttackRotateCheck, COMDAT
; _this$ = ecx

; 443  : 	virtual bool IsEnableAttackRotateCheck( ioBaseChar *pOwner ) { return false; }

  00000	32 c0		 xor	 al, al
  00002	c2 04 00	 ret	 4
?IsEnableAttackRotateCheck@ioAttackableItem@@UAE_NPAVioBaseChar@@@Z ENDP ; ioAttackableItem::IsEnableAttackRotateCheck
; Function compile flags: /Ogsp
_TEXT	ENDS
;	COMDAT ?IsEnableChargeDefenseCheck@ioAttackableItem@@UAE_NXZ
_TEXT	SEGMENT
?IsEnableChargeDefenseCheck@ioAttackableItem@@UAE_NXZ PROC ; ioAttackableItem::IsEnableChargeDefenseCheck, COMDAT
; _this$ = ecx

; 444  : 	virtual bool IsEnableChargeDefenseCheck() { return false; }

  00000	32 c0		 xor	 al, al
  00002	c3		 ret	 0
?IsEnableChargeDefenseCheck@ioAttackableItem@@UAE_NXZ ENDP ; ioAttackableItem::IsEnableChargeDefenseCheck
; Function compile flags: /Ogsp
_TEXT	ENDS
;	COMDAT ?IsUseDefenceCounterAttackEndDash@ioAttackableItem@@UAE_NXZ
_TEXT	SEGMENT
?IsUseDefenceCounterAttackEndDash@ioAttackableItem@@UAE_NXZ PROC ; ioAttackableItem::IsUseDefenceCounterAttackEndDash, COMDAT
; _this$ = ecx

; 464  : 	virtual bool IsUseDefenceCounterAttackEndDash() { return false; }

  00000	32 c0		 xor	 al, al
  00002	c3		 ret	 0
?IsUseDefenceCounterAttackEndDash@ioAttackableItem@@UAE_NXZ ENDP ; ioAttackableItem::IsUseDefenceCounterAttackEndDash
; Function compile flags: /Ogsp
_TEXT	ENDS
;	COMDAT ?IsAutoTarget@ioAttackableItem@@UBE_NXZ
_TEXT	SEGMENT
?IsAutoTarget@ioAttackableItem@@UBE_NXZ PROC		; ioAttackableItem::IsAutoTarget, COMDAT
; _this$ = ecx

; 707  : 	virtual bool IsAutoTarget() const { return true; }

  00000	b0 01		 mov	 al, 1
  00002	c3		 ret	 0
?IsAutoTarget@ioAttackableItem@@UBE_NXZ ENDP		; ioAttackableItem::IsAutoTarget
; Function compile flags: /Ogsp
_TEXT	ENDS
;	COMDAT ?IsWoundAfterUseExtendState@ioAttackableItem@@UAE_NXZ
_TEXT	SEGMENT
?IsWoundAfterUseExtendState@ioAttackableItem@@UAE_NXZ PROC ; ioAttackableItem::IsWoundAfterUseExtendState, COMDAT
; _this$ = ecx

; 724  : 	virtual bool IsWoundAfterUseExtendState(){ return false; }

  00000	32 c0		 xor	 al, al
  00002	c3		 ret	 0
?IsWoundAfterUseExtendState@ioAttackableItem@@UAE_NXZ ENDP ; ioAttackableItem::IsWoundAfterUseExtendState
; Function compile flags: /Ogsp
_TEXT	ENDS
;	COMDAT ?CheckWoundAfterUseExtendState@ioAttackableItem@@UAE_NPAVioBaseChar@@W4BlowTargetType@@@Z
_TEXT	SEGMENT
_pOwner$ = 8						; size = 4
_eType$ = 12						; size = 4
?CheckWoundAfterUseExtendState@ioAttackableItem@@UAE_NPAVioBaseChar@@W4BlowTargetType@@@Z PROC ; ioAttackableItem::CheckWoundAfterUseExtendState, COMDAT
; _this$ = ecx

; 725  : 	virtual bool CheckWoundAfterUseExtendState( ioBaseChar* pOwner, BlowTargetType eType ){ return false; }

  00000	32 c0		 xor	 al, al
  00002	c2 08 00	 ret	 8
?CheckWoundAfterUseExtendState@ioAttackableItem@@UAE_NPAVioBaseChar@@W4BlowTargetType@@@Z ENDP ; ioAttackableItem::CheckWoundAfterUseExtendState
; Function compile flags: /Ogsp
_TEXT	ENDS
;	COMDAT ?IsCharSkipState@ioAttackableItem@@UAE_NPBVioBaseChar@@@Z
_TEXT	SEGMENT
_pOwner$ = 8						; size = 4
?IsCharSkipState@ioAttackableItem@@UAE_NPBVioBaseChar@@@Z PROC ; ioAttackableItem::IsCharSkipState, COMDAT
; _this$ = ecx

; 728  : 	virtual bool IsCharSkipState( const ioBaseChar* pOwner ){ return false; }

  00000	32 c0		 xor	 al, al
  00002	c2 04 00	 ret	 4
?IsCharSkipState@ioAttackableItem@@UAE_NPBVioBaseChar@@@Z ENDP ; ioAttackableItem::IsCharSkipState
_TEXT	ENDS
PUBLIC	??0ioRunChargeItem2@@QAE@ABV0@@Z		; ioRunChargeItem2::ioRunChargeItem2
EXTRN	??0ioWeaponItem@@QAE@ABV0@@Z:PROC		; ioWeaponItem::ioWeaponItem
;	COMDAT xdata$x
; File c:\program files (x86)\microsoft directx sdk (june 2010)\include\d3dx9math.h
xdata$x	SEGMENT
__ehfuncinfo$??0ioRunChargeItem2@@QAE@ABV0@@Z DD 019930522H
	DD	09H
	DD	FLAT:__unwindtable$??0ioRunChargeItem2@@QAE@ABV0@@Z
	DD	2 DUP(00H)
	DD	2 DUP(00H)
	DD	00H
	DD	01H
__unwindtable$??0ioRunChargeItem2@@QAE@ABV0@@Z DD 0ffffffffH
	DD	FLAT:__unwindfunclet$??0ioRunChargeItem2@@QAE@ABV0@@Z$0
	DD	00H
	DD	FLAT:__unwindfunclet$??0ioRunChargeItem2@@QAE@ABV0@@Z$1
	DD	01H
	DD	FLAT:__unwindfunclet$??0ioRunChargeItem2@@QAE@ABV0@@Z$2
	DD	02H
	DD	FLAT:__unwindfunclet$??0ioRunChargeItem2@@QAE@ABV0@@Z$3
	DD	03H
	DD	FLAT:__unwindfunclet$??0ioRunChargeItem2@@QAE@ABV0@@Z$4
	DD	04H
	DD	FLAT:__unwindfunclet$??0ioRunChargeItem2@@QAE@ABV0@@Z$5
	DD	05H
	DD	FLAT:__unwindfunclet$??0ioRunChargeItem2@@QAE@ABV0@@Z$6
	DD	06H
	DD	FLAT:__unwindfunclet$??0ioRunChargeItem2@@QAE@ABV0@@Z$7
	DD	07H
	DD	FLAT:__unwindfunclet$??0ioRunChargeItem2@@QAE@ABV0@@Z$8
; Function compile flags: /Ogsp
; File d:\lost saga for developer\youtube\tutorial\source\src\lsclient\iorunchargeitem2.cpp
xdata$x	ENDS
;	COMDAT ??0ioRunChargeItem2@@QAE@ABV0@@Z
_TEXT	SEGMENT
_this$ = -16						; size = 4
__$EHRec$ = -12						; size = 12
_rhs$ = 8						; size = 4
??0ioRunChargeItem2@@QAE@ABV0@@Z PROC			; ioRunChargeItem2::ioRunChargeItem2, COMDAT
; _this$ = ecx

; 52   : {

  00000	6a 04		 push	 4
  00002	b8 00 00 00 00	 mov	 eax, __ehhandler$??0ioRunChargeItem2@@QAE@ABV0@@Z
  00007	e8 00 00 00 00	 call	 __EH_prolog3
  0000c	8b f1		 mov	 esi, ecx
  0000e	89 75 f0	 mov	 DWORD PTR _this$[ebp], esi
  00011	8b 7d 08	 mov	 edi, DWORD PTR _rhs$[ebp]
  00014	57		 push	 edi
  00015	e8 00 00 00 00	 call	 ??0ioWeaponItem@@QAE@ABV0@@Z ; ioWeaponItem::ioWeaponItem
  0001a	8d 87 5c 19 00
	00		 lea	 eax, DWORD PTR [edi+6492]
  00020	33 db		 xor	 ebx, ebx
  00022	50		 push	 eax
  00023	8d 8e 5c 19 00
	00		 lea	 ecx, DWORD PTR [esi+6492]
  00029	89 5d fc	 mov	 DWORD PTR __$EHRec$[ebp+8], ebx
  0002c	c7 06 00 00 00
	00		 mov	 DWORD PTR [esi], OFFSET ??_7ioRunChargeItem2@@6B@
  00032	ff 15 00 00 00
	00		 call	 DWORD PTR __imp_??0ioHashString@@QAE@ABV0@@Z
  00038	8d 87 74 19 00
	00		 lea	 eax, DWORD PTR [edi+6516]
  0003e	50		 push	 eax
  0003f	8d 8e 74 19 00
	00		 lea	 ecx, DWORD PTR [esi+6516]
  00045	c6 45 fc 01	 mov	 BYTE PTR __$EHRec$[ebp+8], 1
  00049	e8 00 00 00 00	 call	 ??0?$CEncrypt@M@@QAE@ABV0@@Z ; CEncrypt<float>::CEncrypt<float>
  0004e	8d 87 a4 19 00
	00		 lea	 eax, DWORD PTR [edi+6564]
  00054	50		 push	 eax
  00055	8d 8e a4 19 00
	00		 lea	 ecx, DWORD PTR [esi+6564]
  0005b	c6 45 fc 02	 mov	 BYTE PTR __$EHRec$[ebp+8], 2
  0005f	ff 15 00 00 00
	00		 call	 DWORD PTR __imp_??0ioHashString@@QAE@ABV0@@Z
  00065	d9 87 b4 19 00
	00		 fld	 DWORD PTR [edi+6580]
  0006b	d9 9e b4 19 00
	00		 fstp	 DWORD PTR [esi+6580]
  00071	8b 87 b8 19 00
	00		 mov	 eax, DWORD PTR [edi+6584]
  00077	89 86 b8 19 00
	00		 mov	 DWORD PTR [esi+6584], eax
  0007d	8d 87 c4 19 00
	00		 lea	 eax, DWORD PTR [edi+6596]
  00083	50		 push	 eax
  00084	8d 8e c4 19 00
	00		 lea	 ecx, DWORD PTR [esi+6596]
  0008a	c6 45 fc 03	 mov	 BYTE PTR __$EHRec$[ebp+8], 3
  0008e	e8 00 00 00 00	 call	 ??0AttackAttribute@@QAE@ABU0@@Z
  00093	8d 87 18 1a 00
	00		 lea	 eax, DWORD PTR [edi+6680]
  00099	50		 push	 eax
  0009a	8d 8e 18 1a 00
	00		 lea	 ecx, DWORD PTR [esi+6680]
  000a0	c6 45 fc 04	 mov	 BYTE PTR __$EHRec$[ebp+8], 4
  000a4	e8 00 00 00 00	 call	 ??0AttackAttribute@@QAE@ABU0@@Z
  000a9	8d 87 6c 1a 00
	00		 lea	 eax, DWORD PTR [edi+6764]
  000af	50		 push	 eax
  000b0	8d 8e 6c 1a 00
	00		 lea	 ecx, DWORD PTR [esi+6764]
  000b6	c6 45 fc 05	 mov	 BYTE PTR __$EHRec$[ebp+8], 5
  000ba	e8 00 00 00 00	 call	 ??0AttackAttribute@@QAE@ABU0@@Z
  000bf	8d 87 cc 1a 00
	00		 lea	 eax, DWORD PTR [edi+6860]
  000c5	50		 push	 eax
  000c6	8d 8e cc 1a 00
	00		 lea	 ecx, DWORD PTR [esi+6860]
  000cc	c6 45 fc 06	 mov	 BYTE PTR __$EHRec$[ebp+8], 6
  000d0	e8 00 00 00 00	 call	 ??0?$CEncrypt@K@@QAE@ABV0@@Z ; CEncrypt<unsigned long>::CEncrypt<unsigned long>
  000d5	8d 87 fc 1a 00
	00		 lea	 eax, DWORD PTR [edi+6908]
  000db	50		 push	 eax
  000dc	8d 8e fc 1a 00
	00		 lea	 ecx, DWORD PTR [esi+6908]
  000e2	c6 45 fc 07	 mov	 BYTE PTR __$EHRec$[ebp+8], 7
  000e6	e8 00 00 00 00	 call	 ??0?$CEncrypt@_N@@QAE@ABV0@@Z ; CEncrypt<bool>::CEncrypt<bool>
  000eb	8d 87 30 1b 00
	00		 lea	 eax, DWORD PTR [edi+6960]
  000f1	50		 push	 eax
  000f2	8d 8e 30 1b 00
	00		 lea	 ecx, DWORD PTR [esi+6960]
  000f8	c6 45 fc 08	 mov	 BYTE PTR __$EHRec$[ebp+8], 8
  000fc	ff 15 00 00 00
	00		 call	 DWORD PTR __imp_??0ioHashString@@QAE@ABV0@@Z
  00102	d9 87 40 1b 00
	00		 fld	 DWORD PTR [edi+6976]
  00108	d9 9e 40 1b 00
	00		 fstp	 DWORD PTR [esi+6976]
  0010e	d9 87 54 1b 00
	00		 fld	 DWORD PTR [edi+6996]
  00114	d9 9e 54 1b 00
	00		 fstp	 DWORD PTR [esi+6996]
  0011a	d9 87 58 1b 00
	00		 fld	 DWORD PTR [edi+7000]

; 53   : 	m_ChargeState = CS_NONE;

  00120	89 9e 54 19 00
	00		 mov	 DWORD PTR [esi+6484], ebx
  00126	d9 9e 58 1b 00
	00		 fstp	 DWORD PTR [esi+7000]

; 54   : 	m_RunState = RS_NONE;

  0012c	89 9e 58 19 00
	00		 mov	 DWORD PTR [esi+6488], ebx

; 55   : 
; 56   : 	m_dwAttackStartTime = 0;

  00132	89 9e 6c 19 00
	00		 mov	 DWORD PTR [esi+6508], ebx

; 57   : 	m_iCurCombo = 0;

  00138	89 9e 70 19 00
	00		 mov	 DWORD PTR [esi+6512], ebx

; 58   : 
; 59   : 	m_dwRunningStartTime = 0;

  0013e	89 9e bc 19 00
	00		 mov	 DWORD PTR [esi+6588], ebx

; 60   : 
; 61   : 	m_dwRunningEndTime = 0;

  00144	89 9e c0 19 00
	00		 mov	 DWORD PTR [esi+6592], ebx

; 62   : 	m_dwRunningAttackEndTime = 0;

  0014a	89 9e 14 1a 00
	00		 mov	 DWORD PTR [esi+6676], ebx

; 63   : 	m_dwRunningDefenseEndTime = 0;

  00150	89 9e 68 1a 00
	00		 mov	 DWORD PTR [esi+6760], ebx

; 64   : 	m_dwFinishAttackEndTime = 0;

  00156	89 9e bc 1a 00
	00		 mov	 DWORD PTR [esi+6844], ebx

; 65   : 
; 66   : 	m_ChargeStartDirKey = ioUserKeyInput::DKI_NONE;

  0015c	89 9e c4 1a 00
	00		 mov	 DWORD PTR [esi+6852], ebx

; 67   : 	m_CurDirKey = ioUserKeyInput::DKI_NONE;

  00162	89 9e c8 1a 00
	00		 mov	 DWORD PTR [esi+6856], ebx

; 68   : 
; 69   : 	m_dwFireDuration = 0;

  00168	89 9e 2c 1b 00
	00		 mov	 DWORD PTR [esi+6956], ebx

; 70   : 
; 71   : 	m_dwRetreatEndTime = 0;

  0016e	89 9e 44 1b 00
	00		 mov	 DWORD PTR [esi+6980], ebx

; 72   : 	m_dwRetreatForceTime = 0;

  00174	89 9e 5c 1b 00
	00		 mov	 DWORD PTR [esi+7004], ebx

; 73   : }

  0017a	8b c6		 mov	 eax, esi
  0017c	e8 00 00 00 00	 call	 __EH_epilog3
  00181	c2 04 00	 ret	 4
_TEXT	ENDS
;	COMDAT text$x
text$x	SEGMENT
__unwindfunclet$??0ioRunChargeItem2@@QAE@ABV0@@Z$0:
  00000	8b 4d f0	 mov	 ecx, DWORD PTR _this$[ebp]
  00003	e9 00 00 00 00	 jmp	 ??1ioWeaponItem@@UAE@XZ	; ioWeaponItem::~ioWeaponItem
__unwindfunclet$??0ioRunChargeItem2@@QAE@ABV0@@Z$1:
  00008	8b 4d f0	 mov	 ecx, DWORD PTR _this$[ebp]
  0000b	81 c1 5c 19 00
	00		 add	 ecx, 6492		; 0000195cH
  00011	ff 25 00 00 00
	00		 jmp	 DWORD PTR __imp_??1ioHashString@@QAE@XZ
__unwindfunclet$??0ioRunChargeItem2@@QAE@ABV0@@Z$2:
  00017	8b 4d f0	 mov	 ecx, DWORD PTR _this$[ebp]
  0001a	81 c1 74 19 00
	00		 add	 ecx, 6516		; 00001974H
  00020	e9 00 00 00 00	 jmp	 ??1?$CEncrypt@M@@UAE@XZ	; CEncrypt<float>::~CEncrypt<float>
__unwindfunclet$??0ioRunChargeItem2@@QAE@ABV0@@Z$3:
  00025	8b 4d f0	 mov	 ecx, DWORD PTR _this$[ebp]
  00028	81 c1 a4 19 00
	00		 add	 ecx, 6564		; 000019a4H
  0002e	ff 25 00 00 00
	00		 jmp	 DWORD PTR __imp_??1ioHashString@@QAE@XZ
__unwindfunclet$??0ioRunChargeItem2@@QAE@ABV0@@Z$4:
  00034	8b 4d f0	 mov	 ecx, DWORD PTR _this$[ebp]
  00037	81 c1 c4 19 00
	00		 add	 ecx, 6596		; 000019c4H
  0003d	e9 00 00 00 00	 jmp	 ??1AttackAttribute@@QAE@XZ
__unwindfunclet$??0ioRunChargeItem2@@QAE@ABV0@@Z$5:
  00042	8b 4d f0	 mov	 ecx, DWORD PTR _this$[ebp]
  00045	81 c1 18 1a 00
	00		 add	 ecx, 6680		; 00001a18H
  0004b	e9 00 00 00 00	 jmp	 ??1AttackAttribute@@QAE@XZ
__unwindfunclet$??0ioRunChargeItem2@@QAE@ABV0@@Z$6:
  00050	8b 4d f0	 mov	 ecx, DWORD PTR _this$[ebp]
  00053	81 c1 6c 1a 00
	00		 add	 ecx, 6764		; 00001a6cH
  00059	e9 00 00 00 00	 jmp	 ??1AttackAttribute@@QAE@XZ
__unwindfunclet$??0ioRunChargeItem2@@QAE@ABV0@@Z$7:
  0005e	8b 4d f0	 mov	 ecx, DWORD PTR _this$[ebp]
  00061	81 c1 cc 1a 00
	00		 add	 ecx, 6860		; 00001accH
  00067	e9 00 00 00 00	 jmp	 ??1?$CEncrypt@K@@UAE@XZ	; CEncrypt<unsigned long>::~CEncrypt<unsigned long>
__unwindfunclet$??0ioRunChargeItem2@@QAE@ABV0@@Z$8:
  0006c	8b 4d f0	 mov	 ecx, DWORD PTR _this$[ebp]
  0006f	81 c1 fc 1a 00
	00		 add	 ecx, 6908		; 00001afcH
  00075	e9 00 00 00 00	 jmp	 ??1?$CEncrypt@_N@@UAE@XZ ; CEncrypt<bool>::~CEncrypt<bool>
__ehhandler$??0ioRunChargeItem2@@QAE@ABV0@@Z:
  0007a	8b 54 24 08	 mov	 edx, DWORD PTR [esp+8]
  0007e	8d 42 0c	 lea	 eax, DWORD PTR [edx+12]
  00081	8b 4a ec	 mov	 ecx, DWORD PTR [edx-20]
  00084	33 c8		 xor	 ecx, eax
  00086	e8 00 00 00 00	 call	 @__security_check_cookie@4
  0008b	b8 00 00 00 00	 mov	 eax, OFFSET __ehfuncinfo$??0ioRunChargeItem2@@QAE@ABV0@@Z
  00090	e9 00 00 00 00	 jmp	 ___CxxFrameHandler3
text$x	ENDS
??0ioRunChargeItem2@@QAE@ABV0@@Z ENDP			; ioRunChargeItem2::ioRunChargeItem2
PUBLIC	??1ioRunChargeItem2@@UAE@XZ			; ioRunChargeItem2::~ioRunChargeItem2
;	COMDAT xdata$x
; File d:\lost saga for developer\youtube\tutorial\source\src\lsclient\encryptvalue.h
xdata$x	SEGMENT
__ehfuncinfo$??1ioRunChargeItem2@@UAE@XZ DD 019930522H
	DD	09H
	DD	FLAT:__unwindtable$??1ioRunChargeItem2@@UAE@XZ
	DD	2 DUP(00H)
	DD	2 DUP(00H)
	DD	00H
	DD	01H
__unwindtable$??1ioRunChargeItem2@@UAE@XZ DD 0ffffffffH
	DD	FLAT:__unwindfunclet$??1ioRunChargeItem2@@UAE@XZ$0
	DD	00H
	DD	FLAT:__unwindfunclet$??1ioRunChargeItem2@@UAE@XZ$1
	DD	01H
	DD	FLAT:__unwindfunclet$??1ioRunChargeItem2@@UAE@XZ$2
	DD	02H
	DD	FLAT:__unwindfunclet$??1ioRunChargeItem2@@UAE@XZ$3
	DD	03H
	DD	FLAT:__unwindfunclet$??1ioRunChargeItem2@@UAE@XZ$4
	DD	04H
	DD	FLAT:__unwindfunclet$??1ioRunChargeItem2@@UAE@XZ$5
	DD	05H
	DD	FLAT:__unwindfunclet$??1ioRunChargeItem2@@UAE@XZ$6
	DD	06H
	DD	FLAT:__unwindfunclet$??1ioRunChargeItem2@@UAE@XZ$7
	DD	07H
	DD	FLAT:__unwindfunclet$??1ioRunChargeItem2@@UAE@XZ$8
; Function compile flags: /Ogsp
; File d:\lost saga for developer\youtube\tutorial\source\src\lsclient\iorunchargeitem2.cpp
xdata$x	ENDS
;	COMDAT ??1ioRunChargeItem2@@UAE@XZ
_TEXT	SEGMENT
_this$ = -16						; size = 4
__$EHRec$ = -12						; size = 12
??1ioRunChargeItem2@@UAE@XZ PROC			; ioRunChargeItem2::~ioRunChargeItem2, COMDAT
; _this$ = ecx

; 76   : {

  00000	6a 04		 push	 4
  00002	b8 00 00 00 00	 mov	 eax, __ehhandler$??1ioRunChargeItem2@@UAE@XZ
  00007	e8 00 00 00 00	 call	 __EH_prolog3
  0000c	8b f1		 mov	 esi, ecx
  0000e	89 75 f0	 mov	 DWORD PTR _this$[ebp], esi
  00011	c7 06 00 00 00
	00		 mov	 DWORD PTR [esi], OFFSET ??_7ioRunChargeItem2@@6B@

; 77   : }

  00017	8b 3d 00 00 00
	00		 mov	 edi, DWORD PTR __imp_??1ioHashString@@QAE@XZ
  0001d	8d 8e 30 1b 00
	00		 lea	 ecx, DWORD PTR [esi+6960]
  00023	c7 45 fc 08 00
	00 00		 mov	 DWORD PTR __$EHRec$[ebp+8], 8
  0002a	ff d7		 call	 edi
  0002c	8d 8e 08 1b 00
	00		 lea	 ecx, DWORD PTR [esi+6920]
  00032	c6 45 fc 07	 mov	 BYTE PTR __$EHRec$[ebp+8], 7
  00036	c7 86 fc 1a 00
	00 00 00 00 00	 mov	 DWORD PTR [esi+6908], OFFSET ??_7?$CEncrypt@_N@@6B@
  00040	e8 00 00 00 00	 call	 ??1ccddaabb@@UAE@XZ	; ccddaabb::~ccddaabb
  00045	8d 8e d8 1a 00
	00		 lea	 ecx, DWORD PTR [esi+6872]
  0004b	c6 45 fc 06	 mov	 BYTE PTR __$EHRec$[ebp+8], 6
  0004f	c7 86 cc 1a 00
	00 00 00 00 00	 mov	 DWORD PTR [esi+6860], OFFSET ??_7?$CEncrypt@K@@6B@
  00059	e8 00 00 00 00	 call	 ??1ccddaabb@@UAE@XZ	; ccddaabb::~ccddaabb
  0005e	8d 8e 6c 1a 00
	00		 lea	 ecx, DWORD PTR [esi+6764]
  00064	c6 45 fc 05	 mov	 BYTE PTR __$EHRec$[ebp+8], 5
  00068	e8 00 00 00 00	 call	 ??1AttackAttribute@@QAE@XZ
  0006d	8d 8e 18 1a 00
	00		 lea	 ecx, DWORD PTR [esi+6680]
  00073	c6 45 fc 04	 mov	 BYTE PTR __$EHRec$[ebp+8], 4
  00077	e8 00 00 00 00	 call	 ??1AttackAttribute@@QAE@XZ
  0007c	8d 8e c4 19 00
	00		 lea	 ecx, DWORD PTR [esi+6596]
  00082	c6 45 fc 03	 mov	 BYTE PTR __$EHRec$[ebp+8], 3
  00086	e8 00 00 00 00	 call	 ??1AttackAttribute@@QAE@XZ
  0008b	8d 8e a4 19 00
	00		 lea	 ecx, DWORD PTR [esi+6564]
  00091	c6 45 fc 02	 mov	 BYTE PTR __$EHRec$[ebp+8], 2
  00095	ff d7		 call	 edi
  00097	8d 8e 80 19 00
	00		 lea	 ecx, DWORD PTR [esi+6528]
  0009d	c6 45 fc 01	 mov	 BYTE PTR __$EHRec$[ebp+8], 1
  000a1	c7 86 74 19 00
	00 00 00 00 00	 mov	 DWORD PTR [esi+6516], OFFSET ??_7?$CEncrypt@M@@6B@
  000ab	e8 00 00 00 00	 call	 ??1ccddaabb@@UAE@XZ	; ccddaabb::~ccddaabb
  000b0	8d 8e 5c 19 00
	00		 lea	 ecx, DWORD PTR [esi+6492]
  000b6	c6 45 fc 00	 mov	 BYTE PTR __$EHRec$[ebp+8], 0
  000ba	ff d7		 call	 edi
  000bc	83 4d fc ff	 or	 DWORD PTR __$EHRec$[ebp+8], -1
  000c0	8b ce		 mov	 ecx, esi
  000c2	e8 00 00 00 00	 call	 ??1ioWeaponItem@@UAE@XZ	; ioWeaponItem::~ioWeaponItem
  000c7	e8 00 00 00 00	 call	 __EH_epilog3
  000cc	c3		 ret	 0
_TEXT	ENDS
;	COMDAT text$x
text$x	SEGMENT
__unwindfunclet$??1ioRunChargeItem2@@UAE@XZ$0:
  00000	8b 4d f0	 mov	 ecx, DWORD PTR _this$[ebp]
  00003	e9 00 00 00 00	 jmp	 ??1ioWeaponItem@@UAE@XZ	; ioWeaponItem::~ioWeaponItem
__unwindfunclet$??1ioRunChargeItem2@@UAE@XZ$1:
  00008	8b 4d f0	 mov	 ecx, DWORD PTR _this$[ebp]
  0000b	81 c1 5c 19 00
	00		 add	 ecx, 6492		; 0000195cH
  00011	ff 25 00 00 00
	00		 jmp	 DWORD PTR __imp_??1ioHashString@@QAE@XZ
__unwindfunclet$??1ioRunChargeItem2@@UAE@XZ$2:
  00017	8b 4d f0	 mov	 ecx, DWORD PTR _this$[ebp]
  0001a	81 c1 74 19 00
	00		 add	 ecx, 6516		; 00001974H
  00020	e9 00 00 00 00	 jmp	 ??1?$CEncrypt@M@@UAE@XZ	; CEncrypt<float>::~CEncrypt<float>
__unwindfunclet$??1ioRunChargeItem2@@UAE@XZ$3:
  00025	8b 4d f0	 mov	 ecx, DWORD PTR _this$[ebp]
  00028	81 c1 a4 19 00
	00		 add	 ecx, 6564		; 000019a4H
  0002e	ff 25 00 00 00
	00		 jmp	 DWORD PTR __imp_??1ioHashString@@QAE@XZ
__unwindfunclet$??1ioRunChargeItem2@@UAE@XZ$4:
  00034	8b 4d f0	 mov	 ecx, DWORD PTR _this$[ebp]
  00037	81 c1 c4 19 00
	00		 add	 ecx, 6596		; 000019c4H
  0003d	e9 00 00 00 00	 jmp	 ??1AttackAttribute@@QAE@XZ
__unwindfunclet$??1ioRunChargeItem2@@UAE@XZ$5:
  00042	8b 4d f0	 mov	 ecx, DWORD PTR _this$[ebp]
  00045	81 c1 18 1a 00
	00		 add	 ecx, 6680		; 00001a18H
  0004b	e9 00 00 00 00	 jmp	 ??1AttackAttribute@@QAE@XZ
__unwindfunclet$??1ioRunChargeItem2@@UAE@XZ$6:
  00050	8b 4d f0	 mov	 ecx, DWORD PTR _this$[ebp]
  00053	81 c1 6c 1a 00
	00		 add	 ecx, 6764		; 00001a6cH
  00059	e9 00 00 00 00	 jmp	 ??1AttackAttribute@@QAE@XZ
__unwindfunclet$??1ioRunChargeItem2@@UAE@XZ$7:
  0005e	8b 4d f0	 mov	 ecx, DWORD PTR _this$[ebp]
  00061	81 c1 cc 1a 00
	00		 add	 ecx, 6860		; 00001accH
  00067	e9 00 00 00 00	 jmp	 ??1?$CEncrypt@K@@UAE@XZ	; CEncrypt<unsigned long>::~CEncrypt<unsigned long>
__unwindfunclet$??1ioRunChargeItem2@@UAE@XZ$8:
  0006c	8b 4d f0	 mov	 ecx, DWORD PTR _this$[ebp]
  0006f	81 c1 fc 1a 00
	00		 add	 ecx, 6908		; 00001afcH
  00075	e9 00 00 00 00	 jmp	 ??1?$CEncrypt@_N@@UAE@XZ ; CEncrypt<bool>::~CEncrypt<bool>
__ehhandler$??1ioRunChargeItem2@@UAE@XZ:
  0007a	8b 54 24 08	 mov	 edx, DWORD PTR [esp+8]
  0007e	8d 42 0c	 lea	 eax, DWORD PTR [edx+12]
  00081	8b 4a ec	 mov	 ecx, DWORD PTR [edx-20]
  00084	33 c8		 xor	 ecx, eax
  00086	e8 00 00 00 00	 call	 @__security_check_cookie@4
  0008b	b8 00 00 00 00	 mov	 eax, OFFSET __ehfuncinfo$??1ioRunChargeItem2@@UAE@XZ
  00090	e9 00 00 00 00	 jmp	 ___CxxFrameHandler3
text$x	ENDS
??1ioRunChargeItem2@@UAE@XZ ENDP			; ioRunChargeItem2::~ioRunChargeItem2
;	COMDAT xdata$x
xdata$x	SEGMENT
__unwindtable$?Clone@ioRunChargeItem2@@UAEPAVioItem@@XZ DD 0ffffffffH
	DD	FLAT:__unwindfunclet$?Clone@ioRunChargeItem2@@UAEPAVioItem@@XZ$0
__ehfuncinfo$?Clone@ioRunChargeItem2@@UAEPAVioItem@@XZ DD 019930522H
	DD	01H
	DD	FLAT:__unwindtable$?Clone@ioRunChargeItem2@@UAEPAVioItem@@XZ
	DD	2 DUP(00H)
	DD	2 DUP(00H)
	DD	00H
	DD	01H
; Function compile flags: /Ogsp
xdata$x	ENDS
;	COMDAT ?Clone@ioRunChargeItem2@@UAEPAVioItem@@XZ
_TEXT	SEGMENT
$T618600 = -16						; size = 4
__$EHRec$ = -12						; size = 12
?Clone@ioRunChargeItem2@@UAEPAVioItem@@XZ PROC		; ioRunChargeItem2::Clone, COMDAT
; _this$ = ecx

; 120  : {

  00000	6a 04		 push	 4
  00002	b8 00 00 00 00	 mov	 eax, __ehhandler$?Clone@ioRunChargeItem2@@UAEPAVioItem@@XZ
  00007	e8 00 00 00 00	 call	 __EH_prolog3
  0000c	8b f1		 mov	 esi, ecx

; 121  : 	return new ioRunChargeItem2( *this );

  0000e	68 60 1b 00 00	 push	 7008			; 00001b60H
  00013	e8 00 00 00 00	 call	 ??2@YAPAXI@Z		; operator new
  00018	59		 pop	 ecx
  00019	8b c8		 mov	 ecx, eax
  0001b	89 4d f0	 mov	 DWORD PTR $T618600[ebp], ecx
  0001e	33 c0		 xor	 eax, eax
  00020	89 45 fc	 mov	 DWORD PTR __$EHRec$[ebp+8], eax
  00023	3b c8		 cmp	 ecx, eax
  00025	74 06		 je	 SHORT $LN3@Clone
  00027	56		 push	 esi
  00028	e8 00 00 00 00	 call	 ??0ioRunChargeItem2@@QAE@ABV0@@Z ; ioRunChargeItem2::ioRunChargeItem2
$LN3@Clone:

; 122  : }

  0002d	e8 00 00 00 00	 call	 __EH_epilog3
  00032	c3		 ret	 0
_TEXT	ENDS
;	COMDAT text$x
text$x	SEGMENT
__unwindfunclet$?Clone@ioRunChargeItem2@@UAEPAVioItem@@XZ$0:
  00000	ff 75 f0	 push	 DWORD PTR $T618600[ebp]
  00003	e8 00 00 00 00	 call	 ??3@YAXPAX@Z		; operator delete
  00008	59		 pop	 ecx
  00009	c3		 ret	 0
__ehhandler$?Clone@ioRunChargeItem2@@UAEPAVioItem@@XZ:
  0000a	8b 54 24 08	 mov	 edx, DWORD PTR [esp+8]
  0000e	8d 42 0c	 lea	 eax, DWORD PTR [edx+12]
  00011	8b 4a ec	 mov	 ecx, DWORD PTR [edx-20]
  00014	33 c8		 xor	 ecx, eax
  00016	e8 00 00 00 00	 call	 @__security_check_cookie@4
  0001b	b8 00 00 00 00	 mov	 eax, OFFSET __ehfuncinfo$?Clone@ioRunChargeItem2@@UAEPAVioItem@@XZ
  00020	e9 00 00 00 00	 jmp	 ___CxxFrameHandler3
text$x	ENDS
?Clone@ioRunChargeItem2@@UAEPAVioItem@@XZ ENDP		; ioRunChargeItem2::Clone
; Function compile flags: /Ogsp
;	COMDAT ??_GioRunChargeItem2@@UAEPAXI@Z
_TEXT	SEGMENT
___flags$ = 8						; size = 4
??_GioRunChargeItem2@@UAEPAXI@Z PROC			; ioRunChargeItem2::`scalar deleting destructor', COMDAT
; _this$ = ecx
  00000	55		 push	 ebp
  00001	8b ec		 mov	 ebp, esp
  00003	56		 push	 esi
  00004	8b f1		 mov	 esi, ecx
  00006	e8 00 00 00 00	 call	 ??1ioRunChargeItem2@@UAE@XZ ; ioRunChargeItem2::~ioRunChargeItem2
  0000b	f6 45 08 01	 test	 BYTE PTR ___flags$[ebp], 1
  0000f	74 07		 je	 SHORT $LN1@scalar@6
  00011	56		 push	 esi
  00012	e8 00 00 00 00	 call	 ??3@YAXPAX@Z		; operator delete
  00017	59		 pop	 ecx
$LN1@scalar@6:
  00018	8b c6		 mov	 eax, esi
  0001a	5e		 pop	 esi
  0001b	5d		 pop	 ebp
  0001c	c2 04 00	 ret	 4
??_GioRunChargeItem2@@UAEPAXI@Z ENDP			; ioRunChargeItem2::`scalar deleting destructor'
_TEXT	ENDS
END
