; Listing generated by Microsoft (R) Optimizing Compiler Version 16.00.30319.01 

	TITLE	D:\Lost Saga For Developer\Youtube\Tutorial\Source\src\LSClient\ioScreenShotTask.cpp
	.686P
	.XMM
	include listing.inc
	.model	flat

INCLUDELIB MSVCRT
INCLUDELIB OLDNAMES

PUBLIC	??_7ioScreenShotTask@@6B@			; ioScreenShotTask::`vftable'
PUBLIC	??0ioScreenShotTask@@QAE@ABVioHashString@@_N1@Z	; ioScreenShotTask::ioScreenShotTask
PUBLIC	??_R4ioScreenShotTask@@6B@			; ioScreenShotTask::`RTTI Complete Object Locator'
PUBLIC	??_R0?AVioScreenShotTask@@@8			; ioScreenShotTask `RTTI Type Descriptor'
PUBLIC	??_R3ioScreenShotTask@@8			; ioScreenShotTask::`RTTI Class Hierarchy Descriptor'
PUBLIC	??_R2ioScreenShotTask@@8			; ioScreenShotTask::`RTTI Base Class Array'
PUBLIC	??_R1A@?0A@EA@ioScreenShotTask@@8		; ioScreenShotTask::`RTTI Base Class Descriptor at (0,-1,0,64)'
PUBLIC	??_R1A@?0A@EA@IThreadTask@@8			; IThreadTask::`RTTI Base Class Descriptor at (0,-1,0,64)'
PUBLIC	??_R0?AVIThreadTask@@@8				; IThreadTask `RTTI Type Descriptor'
PUBLIC	??_R3IThreadTask@@8				; IThreadTask::`RTTI Class Hierarchy Descriptor'
PUBLIC	??_R2IThreadTask@@8				; IThreadTask::`RTTI Base Class Array'
PUBLIC	?Process@ioScreenShotTask@@UAEXXZ		; ioScreenShotTask::Process
PUBLIC	?Done@ioScreenShotTask@@UAEXXZ			; ioScreenShotTask::Done
PUBLIC	?GetPriority@ioScreenShotTask@@UBEHXZ		; ioScreenShotTask::GetPriority
EXTRN	__imp_??1IThreadTask@@UAE@XZ:PROC
EXTRN	__imp_??0ioHashString@@QAE@ABV0@@Z:PROC
EXTRN	__imp_??0IThreadTask@@QAE@XZ:PROC
EXTRN	___CxxFrameHandler3:PROC
EXTRN	@__security_check_cookie@4:PROC
EXTRN	__EH_epilog3:PROC
EXTRN	__EH_prolog3:PROC
EXTRN	_memset:PROC
EXTRN	??_7type_info@@6B@:QWORD			; type_info::`vftable'
EXTRN	??_EioScreenShotTask@@UAEPAXI@Z:PROC		; ioScreenShotTask::`vector deleting destructor'
;	COMDAT ??_R2IThreadTask@@8
; File d:\lost saga for developer\youtube\tutorial\source\src\lsclient\ioscreenshottask.cpp
rdata$r	SEGMENT
??_R2IThreadTask@@8 DD FLAT:??_R1A@?0A@EA@IThreadTask@@8 ; IThreadTask::`RTTI Base Class Array'
rdata$r	ENDS
;	COMDAT ??_R3IThreadTask@@8
rdata$r	SEGMENT
??_R3IThreadTask@@8 DD 00H				; IThreadTask::`RTTI Class Hierarchy Descriptor'
	DD	00H
	DD	01H
	DD	FLAT:??_R2IThreadTask@@8
rdata$r	ENDS
;	COMDAT ??_R0?AVIThreadTask@@@8
_DATA	SEGMENT
??_R0?AVIThreadTask@@@8 DD FLAT:??_7type_info@@6B@	; IThreadTask `RTTI Type Descriptor'
	DD	00H
	DB	'.?AVIThreadTask@@', 00H
_DATA	ENDS
;	COMDAT ??_R1A@?0A@EA@IThreadTask@@8
rdata$r	SEGMENT
??_R1A@?0A@EA@IThreadTask@@8 DD FLAT:??_R0?AVIThreadTask@@@8 ; IThreadTask::`RTTI Base Class Descriptor at (0,-1,0,64)'
	DD	00H
	DD	00H
	DD	0ffffffffH
	DD	00H
	DD	040H
	DD	FLAT:??_R3IThreadTask@@8
rdata$r	ENDS
;	COMDAT ??_R1A@?0A@EA@ioScreenShotTask@@8
rdata$r	SEGMENT
??_R1A@?0A@EA@ioScreenShotTask@@8 DD FLAT:??_R0?AVioScreenShotTask@@@8 ; ioScreenShotTask::`RTTI Base Class Descriptor at (0,-1,0,64)'
	DD	01H
	DD	00H
	DD	0ffffffffH
	DD	00H
	DD	040H
	DD	FLAT:??_R3ioScreenShotTask@@8
rdata$r	ENDS
;	COMDAT ??_R2ioScreenShotTask@@8
rdata$r	SEGMENT
??_R2ioScreenShotTask@@8 DD FLAT:??_R1A@?0A@EA@ioScreenShotTask@@8 ; ioScreenShotTask::`RTTI Base Class Array'
	DD	FLAT:??_R1A@?0A@EA@IThreadTask@@8
rdata$r	ENDS
;	COMDAT ??_R3ioScreenShotTask@@8
rdata$r	SEGMENT
??_R3ioScreenShotTask@@8 DD 00H				; ioScreenShotTask::`RTTI Class Hierarchy Descriptor'
	DD	00H
	DD	02H
	DD	FLAT:??_R2ioScreenShotTask@@8
rdata$r	ENDS
;	COMDAT ??_R0?AVioScreenShotTask@@@8
_DATA	SEGMENT
??_R0?AVioScreenShotTask@@@8 DD FLAT:??_7type_info@@6B@	; ioScreenShotTask `RTTI Type Descriptor'
	DD	00H
	DB	'.?AVioScreenShotTask@@', 00H
_DATA	ENDS
;	COMDAT ??_R4ioScreenShotTask@@6B@
rdata$r	SEGMENT
??_R4ioScreenShotTask@@6B@ DD 00H			; ioScreenShotTask::`RTTI Complete Object Locator'
	DD	00H
	DD	00H
	DD	FLAT:??_R0?AVioScreenShotTask@@@8
	DD	FLAT:??_R3ioScreenShotTask@@8
rdata$r	ENDS
;	COMDAT ??_7ioScreenShotTask@@6B@
CONST	SEGMENT
??_7ioScreenShotTask@@6B@ DD FLAT:??_R4ioScreenShotTask@@6B@ ; ioScreenShotTask::`vftable'
	DD	FLAT:?Process@ioScreenShotTask@@UAEXXZ
	DD	FLAT:?Done@ioScreenShotTask@@UAEXXZ
	DD	FLAT:?GetPriority@ioScreenShotTask@@UBEHXZ
	DD	FLAT:??_EioScreenShotTask@@UAEPAXI@Z
CONST	ENDS
;	COMDAT xdata$x
xdata$x	SEGMENT
__unwindtable$??0ioScreenShotTask@@QAE@ABVioHashString@@_N1@Z DD 0ffffffffH
	DD	FLAT:__unwindfunclet$??0ioScreenShotTask@@QAE@ABVioHashString@@_N1@Z$0
__ehfuncinfo$??0ioScreenShotTask@@QAE@ABVioHashString@@_N1@Z DD 019930522H
	DD	01H
	DD	FLAT:__unwindtable$??0ioScreenShotTask@@QAE@ABVioHashString@@_N1@Z
	DD	2 DUP(00H)
	DD	2 DUP(00H)
	DD	00H
	DD	01H
; Function compile flags: /Ogsp
xdata$x	ENDS
;	COMDAT ??0ioScreenShotTask@@QAE@ABVioHashString@@_N1@Z
_TEXT	SEGMENT
_this$ = -16						; size = 4
__$EHRec$ = -12						; size = 12
_szSavePath$ = 8					; size = 4
_bSaveJPG$ = 12						; size = 1
_bSource16Bits$ = 16					; size = 1
??0ioScreenShotTask@@QAE@ABVioHashString@@_N1@Z PROC	; ioScreenShotTask::ioScreenShotTask, COMDAT
; _this$ = ecx

; 13   : {

  00000	6a 04		 push	 4
  00002	b8 00 00 00 00	 mov	 eax, __ehhandler$??0ioScreenShotTask@@QAE@ABVioHashString@@_N1@Z
  00007	e8 00 00 00 00	 call	 __EH_prolog3
  0000c	8b f1		 mov	 esi, ecx
  0000e	89 75 f0	 mov	 DWORD PTR _this$[ebp], esi
  00011	ff 15 00 00 00
	00		 call	 DWORD PTR __imp_??0IThreadTask@@QAE@XZ
  00017	ff 75 08	 push	 DWORD PTR _szSavePath$[ebp]
  0001a	33 db		 xor	 ebx, ebx
  0001c	8d 4e 04	 lea	 ecx, DWORD PTR [esi+4]
  0001f	89 5d fc	 mov	 DWORD PTR __$EHRec$[ebp+8], ebx
  00022	c7 06 00 00 00
	00		 mov	 DWORD PTR [esi], OFFSET ??_7ioScreenShotTask@@6B@
  00028	ff 15 00 00 00
	00		 call	 DWORD PTR __imp_??0ioHashString@@QAE@ABV0@@Z

; 14   : 	m_bSaveJPG = bSaveJPG;

  0002e	8a 45 0c	 mov	 al, BYTE PTR _bSaveJPG$[ebp]
  00031	88 46 14	 mov	 BYTE PTR [esi+20], al

; 15   : 	m_bSource16Bits = bSource16Bits;

  00034	8a 45 10	 mov	 al, BYTE PTR _bSource16Bits$[ebp]

; 16   : 
; 17   : 	m_pSystem = NULL;
; 18   : 	m_iWidth  = 0;
; 19   : 	m_iHeight = 0;
; 20   : 
; 21   : 	memset( m_szSaveFullPath, 0, sizeof(m_szSaveFullPath) );

  00037	68 08 02 00 00	 push	 520			; 00000208H
  0003c	88 46 15	 mov	 BYTE PTR [esi+21], al
  0003f	8d 46 24	 lea	 eax, DWORD PTR [esi+36]
  00042	53		 push	 ebx
  00043	50		 push	 eax
  00044	89 5e 18	 mov	 DWORD PTR [esi+24], ebx
  00047	89 5e 1c	 mov	 DWORD PTR [esi+28], ebx
  0004a	89 5e 20	 mov	 DWORD PTR [esi+32], ebx
  0004d	e8 00 00 00 00	 call	 _memset
  00052	83 c4 0c	 add	 esp, 12			; 0000000cH

; 22   : 	m_bDone = false;

  00055	88 9e 2c 02 00
	00		 mov	 BYTE PTR [esi+556], bl

; 23   : }

  0005b	8b c6		 mov	 eax, esi
  0005d	e8 00 00 00 00	 call	 __EH_epilog3
  00062	c2 0c 00	 ret	 12			; 0000000cH
_TEXT	ENDS
;	COMDAT text$x
text$x	SEGMENT
__unwindfunclet$??0ioScreenShotTask@@QAE@ABVioHashString@@_N1@Z$0:
  00000	8b 4d f0	 mov	 ecx, DWORD PTR _this$[ebp]
  00003	ff 25 00 00 00
	00		 jmp	 DWORD PTR __imp_??1IThreadTask@@UAE@XZ
__ehhandler$??0ioScreenShotTask@@QAE@ABVioHashString@@_N1@Z:
  00009	8b 54 24 08	 mov	 edx, DWORD PTR [esp+8]
  0000d	8d 42 0c	 lea	 eax, DWORD PTR [edx+12]
  00010	8b 4a ec	 mov	 ecx, DWORD PTR [edx-20]
  00013	33 c8		 xor	 ecx, eax
  00015	e8 00 00 00 00	 call	 @__security_check_cookie@4
  0001a	b8 00 00 00 00	 mov	 eax, OFFSET __ehfuncinfo$??0ioScreenShotTask@@QAE@ABVioHashString@@_N1@Z
  0001f	e9 00 00 00 00	 jmp	 ___CxxFrameHandler3
text$x	ENDS
??0ioScreenShotTask@@QAE@ABVioHashString@@_N1@Z ENDP	; ioScreenShotTask::ioScreenShotTask
; Function compile flags: /Ogsp
; File d:\lost saga for developer\youtube\tutorial\source\src\lsclient\ioscreenshottask.h
;	COMDAT ?GetPriority@ioScreenShotTask@@UBEHXZ
_TEXT	SEGMENT
?GetPriority@ioScreenShotTask@@UBEHXZ PROC		; ioScreenShotTask::GetPriority, COMDAT
; _this$ = ecx

; 36   : 	virtual int  GetPriority() const { return 2; }

  00000	6a 02		 push	 2
  00002	58		 pop	 eax
  00003	c3		 ret	 0
?GetPriority@ioScreenShotTask@@UBEHXZ ENDP		; ioScreenShotTask::GetPriority
_TEXT	ENDS
PUBLIC	??1ioScreenShotTask@@UAE@XZ			; ioScreenShotTask::~ioScreenShotTask
EXTRN	__imp_??1ioHashString@@QAE@XZ:PROC
;	COMDAT xdata$x
; File d:\lost saga for developer\youtube\tutorial\source\src\lsclient\ioscreenshottask.cpp
xdata$x	SEGMENT
__unwindtable$??1ioScreenShotTask@@UAE@XZ DD 0ffffffffH
	DD	FLAT:__unwindfunclet$??1ioScreenShotTask@@UAE@XZ$0
__ehfuncinfo$??1ioScreenShotTask@@UAE@XZ DD 019930522H
	DD	01H
	DD	FLAT:__unwindtable$??1ioScreenShotTask@@UAE@XZ
	DD	2 DUP(00H)
	DD	2 DUP(00H)
	DD	00H
	DD	01H
; Function compile flags: /Ogsp
xdata$x	ENDS
;	COMDAT ??1ioScreenShotTask@@UAE@XZ
_TEXT	SEGMENT
_this$ = -16						; size = 4
__$EHRec$ = -12						; size = 12
??1ioScreenShotTask@@UAE@XZ PROC			; ioScreenShotTask::~ioScreenShotTask, COMDAT
; _this$ = ecx

; 26   : {

  00000	6a 04		 push	 4
  00002	b8 00 00 00 00	 mov	 eax, __ehhandler$??1ioScreenShotTask@@UAE@XZ
  00007	e8 00 00 00 00	 call	 __EH_prolog3
  0000c	8b f1		 mov	 esi, ecx
  0000e	89 75 f0	 mov	 DWORD PTR _this$[ebp], esi
  00011	c7 06 00 00 00
	00		 mov	 DWORD PTR [esi], OFFSET ??_7ioScreenShotTask@@6B@
  00017	83 65 fc 00	 and	 DWORD PTR __$EHRec$[ebp+8], 0

; 27   : }

  0001b	8d 4e 04	 lea	 ecx, DWORD PTR [esi+4]
  0001e	ff 15 00 00 00
	00		 call	 DWORD PTR __imp_??1ioHashString@@QAE@XZ
  00024	83 4d fc ff	 or	 DWORD PTR __$EHRec$[ebp+8], -1
  00028	8b ce		 mov	 ecx, esi
  0002a	ff 15 00 00 00
	00		 call	 DWORD PTR __imp_??1IThreadTask@@UAE@XZ
  00030	e8 00 00 00 00	 call	 __EH_epilog3
  00035	c3		 ret	 0
_TEXT	ENDS
;	COMDAT text$x
text$x	SEGMENT
__unwindfunclet$??1ioScreenShotTask@@UAE@XZ$0:
  00000	8b 4d f0	 mov	 ecx, DWORD PTR _this$[ebp]
  00003	ff 25 00 00 00
	00		 jmp	 DWORD PTR __imp_??1IThreadTask@@UAE@XZ
__ehhandler$??1ioScreenShotTask@@UAE@XZ:
  00009	8b 54 24 08	 mov	 edx, DWORD PTR [esp+8]
  0000d	8d 42 0c	 lea	 eax, DWORD PTR [edx+12]
  00010	8b 4a ec	 mov	 ecx, DWORD PTR [edx-20]
  00013	33 c8		 xor	 ecx, eax
  00015	e8 00 00 00 00	 call	 @__security_check_cookie@4
  0001a	b8 00 00 00 00	 mov	 eax, OFFSET __ehfuncinfo$??1ioScreenShotTask@@UAE@XZ
  0001f	e9 00 00 00 00	 jmp	 ___CxxFrameHandler3
text$x	ENDS
??1ioScreenShotTask@@UAE@XZ ENDP			; ioScreenShotTask::~ioScreenShotTask
PUBLIC	?Initialize@ioScreenShotTask@@QAE_NPAVioRenderSystem@@W4_D3DTEXTUREFILTERTYPE@@M@Z ; ioScreenShotTask::Initialize
EXTRN	__imp_?GetWindowHeight@ioRenderSystem@@QBEHXZ:PROC
EXTRN	__imp_?GetWindowWidth@ioRenderSystem@@QBEHXZ:PROC
EXTRN	__imp_?PrePareThreadCapture@ioRenderSystem@@QAE_NW4_D3DTEXTUREFILTERTYPE@@M@Z:PROC
EXTRN	__fltused:DWORD
; Function compile flags: /Ogsp
;	COMDAT ?Initialize@ioScreenShotTask@@QAE_NPAVioRenderSystem@@W4_D3DTEXTUREFILTERTYPE@@M@Z
_TEXT	SEGMENT
_pSystem$ = 8						; size = 4
_eFilter$ = 12						; size = 4
_fSizeRate$ = 16					; size = 4
?Initialize@ioScreenShotTask@@QAE_NPAVioRenderSystem@@W4_D3DTEXTUREFILTERTYPE@@M@Z PROC ; ioScreenShotTask::Initialize, COMDAT
; _this$ = ecx

; 93   : {

  00000	55		 push	 ebp
  00001	8b ec		 mov	 ebp, esp

; 94   : 	m_pSystem = pSystem;
; 95   : 
; 96   : 	if( m_pSystem->PrePareThreadCapture( eFilter, fSizeRate ) )

  00003	f3 0f 10 45 10	 movss	 xmm0, DWORD PTR _fSizeRate$[ebp]
  00008	56		 push	 esi
  00009	8b f1		 mov	 esi, ecx
  0000b	8b 4d 08	 mov	 ecx, DWORD PTR _pSystem$[ebp]
  0000e	51		 push	 ecx
  0000f	f3 0f 11 04 24	 movss	 DWORD PTR [esp], xmm0
  00014	ff 75 0c	 push	 DWORD PTR _eFilter$[ebp]
  00017	89 4e 18	 mov	 DWORD PTR [esi+24], ecx
  0001a	ff 15 00 00 00
	00		 call	 DWORD PTR __imp_?PrePareThreadCapture@ioRenderSystem@@QAE_NW4_D3DTEXTUREFILTERTYPE@@M@Z
  00020	84 c0		 test	 al, al
  00022	74 50		 je	 SHORT $LN1@Initialize

; 97   : 	{
; 98   : 		m_iWidth  = m_pSystem->GetWindowWidth() * fSizeRate;

  00024	8b 4e 18	 mov	 ecx, DWORD PTR [esi+24]
  00027	ff 15 00 00 00
	00		 call	 DWORD PTR __imp_?GetWindowWidth@ioRenderSystem@@QBEHXZ
  0002d	f3 0f 10 4d 10	 movss	 xmm1, DWORD PTR _fSizeRate$[ebp]

; 99   : 		m_iHeight = m_pSystem->GetWindowHeight() * fSizeRate;

  00032	8b 4e 18	 mov	 ecx, DWORD PTR [esi+24]
  00035	0f 57 c0	 xorps	 xmm0, xmm0
  00038	f3 0f 2a c0	 cvtsi2ss xmm0, eax
  0003c	0f 5a c0	 cvtps2pd xmm0, xmm0
  0003f	0f 5a c9	 cvtps2pd xmm1, xmm1
  00042	f2 0f 59 c1	 mulsd	 xmm0, xmm1
  00046	f2 0f 2c c0	 cvttsd2si eax, xmm0
  0004a	89 46 1c	 mov	 DWORD PTR [esi+28], eax
  0004d	ff 15 00 00 00
	00		 call	 DWORD PTR __imp_?GetWindowHeight@ioRenderSystem@@QBEHXZ
  00053	f3 0f 10 4d 10	 movss	 xmm1, DWORD PTR _fSizeRate$[ebp]
  00058	0f 57 c0	 xorps	 xmm0, xmm0
  0005b	f3 0f 2a c0	 cvtsi2ss xmm0, eax
  0005f	0f 5a c0	 cvtps2pd xmm0, xmm0
  00062	0f 5a c9	 cvtps2pd xmm1, xmm1
  00065	f2 0f 59 c1	 mulsd	 xmm0, xmm1
  00069	f2 0f 2c c0	 cvttsd2si eax, xmm0
  0006d	89 46 20	 mov	 DWORD PTR [esi+32], eax

; 100  : 
; 101  : 		return true;

  00070	b0 01		 mov	 al, 1
  00072	eb 02		 jmp	 SHORT $LN2@Initialize
$LN1@Initialize:

; 102  : 	}
; 103  : 
; 104  : 	return false;

  00074	32 c0		 xor	 al, al
$LN2@Initialize:
  00076	5e		 pop	 esi

; 105  : }

  00077	5d		 pop	 ebp
  00078	c2 0c 00	 ret	 12			; 0000000cH
?Initialize@ioScreenShotTask@@QAE_NPAVioRenderSystem@@W4_D3DTEXTUREFILTERTYPE@@M@Z ENDP ; ioScreenShotTask::Initialize
_TEXT	ENDS
EXTRN	?ScreenShotDone@ioApplication@@QAEXPBD_N@Z:PROC	; ioApplication::ScreenShotDone
EXTRN	?GetSingleton@ioApplication@@SAAAV1@XZ:PROC	; ioApplication::GetSingleton
; Function compile flags: /Ogsp
;	COMDAT ?Done@ioScreenShotTask@@UAEXXZ
_TEXT	SEGMENT
?Done@ioScreenShotTask@@UAEXXZ PROC			; ioScreenShotTask::Done, COMDAT
; _this$ = ecx

; 147  : 	g_App.ScreenShotDone( m_szSaveFullPath, m_bDone );

  00000	0f b6 81 2c 02
	00 00		 movzx	 eax, BYTE PTR [ecx+556]
  00007	50		 push	 eax
  00008	83 c1 24	 add	 ecx, 36			; 00000024H
  0000b	51		 push	 ecx
  0000c	e8 00 00 00 00	 call	 ?GetSingleton@ioApplication@@SAAAV1@XZ ; ioApplication::GetSingleton
  00011	8b c8		 mov	 ecx, eax
  00013	e8 00 00 00 00	 call	 ?ScreenShotDone@ioApplication@@QAEXPBD_N@Z ; ioApplication::ScreenShotDone

; 148  : }

  00018	c3		 ret	 0
?Done@ioScreenShotTask@@UAEXXZ ENDP			; ioScreenShotTask::Done
; Function compile flags: /Ogsp
; File c:\program files (x86)\microsoft sdks\windows\v7.0a\include\strsafe.h
_TEXT	ENDS
;	COMDAT ?StringValidateDestA@@YGJPBDII@Z
_TEXT	SEGMENT
_cchMax$ = 8						; size = 4
?StringValidateDestA@@YGJPBDII@Z PROC			; StringValidateDestA, COMDAT
; _cchDest$ = ecx

; 8721 : {

  00000	55		 push	 ebp
  00001	8b ec		 mov	 ebp, esp

; 8722 :     HRESULT hr = S_OK;

  00003	33 c0		 xor	 eax, eax

; 8723 : 
; 8724 :     if ((cchDest == 0) || (cchDest > cchMax))

  00005	85 c9		 test	 ecx, ecx
  00007	74 05		 je	 SHORT $LN1@StringVali
  00009	3b 4d 08	 cmp	 ecx, DWORD PTR _cchMax$[ebp]
  0000c	76 05		 jbe	 SHORT $LN2@StringVali
$LN1@StringVali:

; 8725 :     {
; 8726 :         hr = STRSAFE_E_INVALID_PARAMETER;

  0000e	b8 57 00 07 80	 mov	 eax, -2147024809	; 80070057H
$LN2@StringVali:

; 8727 :     }
; 8728 : 
; 8729 :     return hr;
; 8730 : }

  00013	5d		 pop	 ebp
  00014	c2 04 00	 ret	 4
?StringValidateDestA@@YGJPBDII@Z ENDP			; StringValidateDestA
_TEXT	ENDS
EXTRN	__imp___vsnprintf:PROC
; Function compile flags: /Ogsp
;	COMDAT ?StringVPrintfWorkerA@@YGJPADIPAIPBD0@Z
_TEXT	SEGMENT
_pcchNewDestLength$ = 8					; size = 4
_pszFormat$ = 12					; size = 4
_argList$ = 16						; size = 4
?StringVPrintfWorkerA@@YGJPADIPAIPBD0@Z PROC		; StringVPrintfWorkerA, COMDAT
; _pszDest$ = edi
; _cchDest$ = eax

; 9029 : {

  00000	55		 push	 ebp
  00001	8b ec		 mov	 ebp, esp
  00003	53		 push	 ebx
  00004	56		 push	 esi

; 9030 :     HRESULT hr = S_OK;
; 9031 :     int iRet;
; 9032 :     size_t cchMax;
; 9033 :     size_t cchNewDestLength = 0;
; 9034 : 
; 9035 :     // leave the last space for the null terminator
; 9036 :     cchMax = cchDest - 1;
; 9037 : 
; 9038 : #if (STRSAFE_USE_SECURE_CRT == 1) && !defined(STRSAFE_LIB_IMPL)
; 9039 :     iRet = _vsnprintf_s(pszDest, cchDest, cchMax, pszFormat, argList);
; 9040 : #else
; 9041 :     #pragma warning(push)
; 9042 :     #pragma warning(disable: __WARNING_BANNED_API_USAGE)// "STRSAFE not included"
; 9043 :     iRet = _vsnprintf(pszDest, cchMax, pszFormat, argList);

  00005	ff 75 10	 push	 DWORD PTR _argList$[ebp]
  00008	8d 70 ff	 lea	 esi, DWORD PTR [eax-1]
  0000b	ff 75 0c	 push	 DWORD PTR _pszFormat$[ebp]
  0000e	33 db		 xor	 ebx, ebx
  00010	56		 push	 esi
  00011	57		 push	 edi
  00012	ff 15 00 00 00
	00		 call	 DWORD PTR __imp___vsnprintf
  00018	83 c4 10	 add	 esp, 16			; 00000010H

; 9044 :     #pragma warning(pop)
; 9045 : #endif
; 9046 :     // ASSERT((iRet < 0) || (((size_t)iRet) <= cchMax));
; 9047 : 
; 9048 :     if ((iRet < 0) || (((size_t)iRet) > cchMax))

  0001b	85 c0		 test	 eax, eax
  0001d	78 0b		 js	 SHORT $LN5@StringVPri
  0001f	3b c6		 cmp	 eax, esi
  00021	77 07		 ja	 SHORT $LN5@StringVPri

; 9058 :     }
; 9059 :     else if (((size_t)iRet) == cchMax)

  00023	75 0f		 jne	 SHORT $LN2@StringVPri

; 9060 :     {
; 9061 :         // need to null terminate the string
; 9062 :         pszDest += cchMax;
; 9063 :         *pszDest = '\0';

  00025	88 1c 3e	 mov	 BYTE PTR [esi+edi], bl

; 9064 : 
; 9065 :         cchNewDestLength = cchMax;
; 9066 :     }
; 9067 :     else

  00028	eb 08		 jmp	 SHORT $LN9@StringVPri
$LN5@StringVPri:

; 9049 :     {
; 9050 :         // need to null terminate the string
; 9051 :         pszDest += cchMax;
; 9052 :         *pszDest = '\0';

  0002a	88 1c 3e	 mov	 BYTE PTR [esi+edi], bl

; 9055 : 
; 9056 :         // we have truncated pszDest
; 9057 :         hr = STRSAFE_E_INSUFFICIENT_BUFFER;

  0002d	bb 7a 00 07 80	 mov	 ebx, -2147024774	; 8007007aH
$LN9@StringVPri:

; 9053 : 
; 9054 :         cchNewDestLength = cchMax;

  00032	8b c6		 mov	 eax, esi
$LN2@StringVPri:

; 9068 :     {
; 9069 :         cchNewDestLength = (size_t)iRet;
; 9070 :     }
; 9071 : 
; 9072 :     if (pcchNewDestLength)

  00034	8b 4d 08	 mov	 ecx, DWORD PTR _pcchNewDestLength$[ebp]
  00037	85 c9		 test	 ecx, ecx
  00039	74 02		 je	 SHORT $LN1@StringVPri

; 9073 :     {
; 9074 :         *pcchNewDestLength = cchNewDestLength;

  0003b	89 01		 mov	 DWORD PTR [ecx], eax
$LN1@StringVPri:
  0003d	5e		 pop	 esi

; 9075 :     }
; 9076 : 
; 9077 :     return hr;

  0003e	8b c3		 mov	 eax, ebx
  00040	5b		 pop	 ebx

; 9078 : }

  00041	5d		 pop	 ebp
  00042	c2 0c 00	 ret	 12			; 0000000cH
?StringVPrintfWorkerA@@YGJPADIPAIPBD0@Z ENDP		; StringVPrintfWorkerA
_TEXT	ENDS
PUBLIC	?_DECSTR@@YAXPADH@Z				; _DECSTR
; Function compile flags: /Ogsp
; File d:\lost saga for developer\youtube\tutorial\source\src\lsclient\stringprotect.h
;	COMDAT ?_DECSTR@@YAXPADH@Z
_TEXT	SEGMENT
_s$ = 8							; size = 4
_l$ = 12						; size = 4
?_DECSTR@@YAXPADH@Z PROC				; _DECSTR, COMDAT

; 40   : __forceinline void _DECSTR(char* s, int l){int i=0,l4=(l-1)/4,*p=(int*)s;s[l-1]=0;for(;i<l4;++i)*(p++)^=0xEAEBECED;for(i=l4*4;i<l-1;++i)s[i]^=0xED-i%4;}

  00000	55		 push	 ebp
  00001	8b ec		 mov	 ebp, esp
  00003	8b 4d 0c	 mov	 ecx, DWORD PTR _l$[ebp]
  00006	56		 push	 esi
  00007	8b 75 08	 mov	 esi, DWORD PTR _s$[ebp]
  0000a	57		 push	 edi
  0000b	8d 79 ff	 lea	 edi, DWORD PTR [ecx-1]
  0000e	8b c7		 mov	 eax, edi
  00010	99		 cdq
  00011	83 e2 03	 and	 edx, 3
  00014	03 c2		 add	 eax, edx
  00016	c1 f8 02	 sar	 eax, 2
  00019	8b d6		 mov	 edx, esi
  0001b	c6 44 0e ff 00	 mov	 BYTE PTR [esi+ecx-1], 0
  00020	85 c0		 test	 eax, eax
  00022	7e 0e		 jle	 SHORT $LN4@DECSTR
  00024	8b c8		 mov	 ecx, eax
$LL6@DECSTR:
  00026	81 32 ed ec eb
	ea		 xor	 DWORD PTR [edx], -353637139 ; eaebecedH
  0002c	83 c2 04	 add	 edx, 4
  0002f	49		 dec	 ecx
  00030	75 f4		 jne	 SHORT $LL6@DECSTR
$LN4@DECSTR:
  00032	c1 e0 02	 shl	 eax, 2
  00035	eb 17		 jmp	 SHORT $LN14@DECSTR
$LL3@DECSTR:
  00037	8b c8		 mov	 ecx, eax
  00039	81 e1 03 00 00
	80		 and	 ecx, -2147483645	; 80000003H
  0003f	79 05		 jns	 SHORT $LN13@DECSTR
  00041	49		 dec	 ecx
  00042	83 c9 fc	 or	 ecx, -4			; fffffffcH
  00045	41		 inc	 ecx
$LN13@DECSTR:
  00046	b2 ed		 mov	 dl, -19			; ffffffedH
  00048	2a d1		 sub	 dl, cl
  0004a	30 14 30	 xor	 BYTE PTR [eax+esi], dl
  0004d	40		 inc	 eax
$LN14@DECSTR:
  0004e	3b c7		 cmp	 eax, edi
  00050	7c e5		 jl	 SHORT $LL3@DECSTR
  00052	5f		 pop	 edi
  00053	5e		 pop	 esi
  00054	5d		 pop	 ebp
  00055	c3		 ret	 0
?_DECSTR@@YAXPADH@Z ENDP				; _DECSTR
_TEXT	ENDS
PUBLIC	?GetUserIndex@ioMyInfo@@QBEABKXZ		; ioMyInfo::GetUserIndex
; Function compile flags: /Ogsp
; File d:\lost saga for developer\youtube\tutorial\source\src\lsclient\iomyinfo.h
;	COMDAT ?GetUserIndex@ioMyInfo@@QBEABKXZ
_TEXT	SEGMENT
?GetUserIndex@ioMyInfo@@QBEABKXZ PROC			; ioMyInfo::GetUserIndex, COMDAT
; _this$ = ecx

; 515  : 	const DWORD& GetUserIndex() const { return m_user_data.m_user_idx; }

  00000	8d 41 08	 lea	 eax, DWORD PTR [ecx+8]
  00003	c3		 ret	 0
?GetUserIndex@ioMyInfo@@QBEABKXZ ENDP			; ioMyInfo::GetUserIndex
_TEXT	ENDS
EXTRN	??3@YAXPAX@Z:PROC				; operator delete
; Function compile flags: /Ogsp
;	COMDAT ??_GioScreenShotTask@@UAEPAXI@Z
_TEXT	SEGMENT
___flags$ = 8						; size = 4
??_GioScreenShotTask@@UAEPAXI@Z PROC			; ioScreenShotTask::`scalar deleting destructor', COMDAT
; _this$ = ecx
  00000	55		 push	 ebp
  00001	8b ec		 mov	 ebp, esp
  00003	56		 push	 esi
  00004	8b f1		 mov	 esi, ecx
  00006	e8 00 00 00 00	 call	 ??1ioScreenShotTask@@UAE@XZ ; ioScreenShotTask::~ioScreenShotTask
  0000b	f6 45 08 01	 test	 BYTE PTR ___flags$[ebp], 1
  0000f	74 07		 je	 SHORT $LN1@scalar
  00011	56		 push	 esi
  00012	e8 00 00 00 00	 call	 ??3@YAXPAX@Z		; operator delete
  00017	59		 pop	 ecx
$LN1@scalar:
  00018	8b c6		 mov	 eax, esi
  0001a	5e		 pop	 esi
  0001b	5d		 pop	 ebp
  0001c	c2 04 00	 ret	 4
??_GioScreenShotTask@@UAEPAXI@Z ENDP			; ioScreenShotTask::`scalar deleting destructor'
_TEXT	ENDS
PUBLIC	?StringCbPrintfA@@YAJPADIPBDZZ			; StringCbPrintfA
; Function compile flags: /Ogsp
; File c:\program files (x86)\microsoft sdks\windows\v7.0a\include\strsafe.h
;	COMDAT ?StringCbPrintfA@@YAJPADIPBDZZ
_TEXT	SEGMENT
_pszDest$ = 8						; size = 4
_cbDest$ = 12						; size = 4
_pszFormat$ = 16					; size = 4
?StringCbPrintfA@@YAJPADIPBDZZ PROC			; StringCbPrintfA, COMDAT

; 4767 : {

  00000	55		 push	 ebp
  00001	8b ec		 mov	 ebp, esp

; 4768 :     HRESULT hr;
; 4769 :     size_t cchDest = cbDest / sizeof(char);
; 4770 : 
; 4771 :     hr = StringValidateDestA(pszDest, cchDest, STRSAFE_MAX_CCH);

  00003	8b 4d 0c	 mov	 ecx, DWORD PTR _cbDest$[ebp]
  00006	33 c0		 xor	 eax, eax
  00008	85 c9		 test	 ecx, ecx
  0000a	74 08		 je	 SHORT $LN4@StringCbPr
  0000c	81 f9 ff ff ff
	7f		 cmp	 ecx, 2147483647		; 7fffffffH
  00012	76 05		 jbe	 SHORT $LN5@StringCbPr
$LN4@StringCbPr:
  00014	b8 57 00 07 80	 mov	 eax, -2147024809	; 80070057H
$LN5@StringCbPr:

; 4772 :     
; 4773 :     if (SUCCEEDED(hr))

  00019	85 c0		 test	 eax, eax
  0001b	78 39		 js	 SHORT $LN1@StringCbPr

; 4774 :     {
; 4775 :         va_list argList;
; 4776 : 
; 4777 :         va_start(argList, pszFormat);
; 4778 : 
; 4779 :         hr = StringVPrintfWorkerA(pszDest,
; 4780 :                                   cchDest,
; 4781 :                                   NULL,
; 4782 :                                   pszFormat,
; 4783 :                                   argList);

  0001d	53		 push	 ebx
  0001e	56		 push	 esi
  0001f	57		 push	 edi
  00020	8b 7d 08	 mov	 edi, DWORD PTR _pszDest$[ebp]
  00023	8d 45 14	 lea	 eax, DWORD PTR _pszFormat$[ebp+4]
  00026	50		 push	 eax
  00027	ff 75 10	 push	 DWORD PTR _pszFormat$[ebp]
  0002a	8d 71 ff	 lea	 esi, DWORD PTR [ecx-1]
  0002d	56		 push	 esi
  0002e	57		 push	 edi
  0002f	33 db		 xor	 ebx, ebx
  00031	ff 15 00 00 00
	00		 call	 DWORD PTR __imp___vsnprintf
  00037	83 c4 10	 add	 esp, 16			; 00000010H
  0003a	85 c0		 test	 eax, eax
  0003c	78 0b		 js	 SHORT $LN12@StringCbPr
  0003e	3b c6		 cmp	 eax, esi
  00040	77 07		 ja	 SHORT $LN12@StringCbPr
  00042	75 0d		 jne	 SHORT $LN9@StringCbPr
  00044	88 1c 3e	 mov	 BYTE PTR [esi+edi], bl
  00047	eb 08		 jmp	 SHORT $LN9@StringCbPr
$LN12@StringCbPr:
  00049	88 1c 3e	 mov	 BYTE PTR [esi+edi], bl
  0004c	bb 7a 00 07 80	 mov	 ebx, -2147024774	; 8007007aH
$LN9@StringCbPr:
  00051	5f		 pop	 edi
  00052	5e		 pop	 esi
  00053	8b c3		 mov	 eax, ebx
  00055	5b		 pop	 ebx
$LN1@StringCbPr:

; 4784 : 
; 4785 :         va_end(argList);
; 4786 :     }
; 4787 : 
; 4788 :     return hr;
; 4789 : }

  00056	5d		 pop	 ebp
  00057	c3		 ret	 0
?StringCbPrintfA@@YAJPADIPBDZZ ENDP			; StringCbPrintfA
_TEXT	ENDS
PUBLIC	??_C@_0CN@NCMHEMAN@?$CFs?2LostSagaShot_?$CF02d?$CF02d?$CF02d_?$CF02@ ; `string'
PUBLIC	__$ArrayPad$
PUBLIC	?MakeFullPathName@ioScreenShotTask@@IAEXXZ	; ioScreenShotTask::MakeFullPathName
EXTRN	__imp__GetLocalTime@4:PROC
EXTRN	__imp___fullpath:PROC
EXTRN	__imp_?c_str@ioHashString@@QBEPBDXZ:PROC
EXTRN	___security_cookie:DWORD
;	COMDAT ??_C@_0CN@NCMHEMAN@?$CFs?2LostSagaShot_?$CF02d?$CF02d?$CF02d_?$CF02@
; File d:\lost saga for developer\youtube\tutorial\source\src\lsclient\stringprotect.h
CONST	SEGMENT
??_C@_0CN@NCMHEMAN@?$CFs?2LostSagaShot_?$CF02d?$CF02d?$CF02d_?$CF02@ DB '%'
	DB	's\LostSagaShot_%02d%02d%02d_%02d%02d%02d.%s', 00H ; `string'
; Function compile flags: /Ogsp
; File d:\lost saga for developer\youtube\tutorial\source\src\lsclient\ioscreenshottask.cpp
CONST	ENDS
;	COMDAT ?MakeFullPathName@ioScreenShotTask@@IAEXXZ
_TEXT	SEGMENT
_st$ = -1084						; size = 16
_szTestPath$ = -1068					; size = 520
_szFullSavePath$ = -548					; size = 520
_szFileExt$ = -28					; size = 12
___encStr$505130 = -16					; size = 8
__$ArrayPad$ = -4					; size = 4
?MakeFullPathName@ioScreenShotTask@@IAEXXZ PROC		; ioScreenShotTask::MakeFullPathName, COMDAT
; _this$ = ecx

; 30   : {

  00000	55		 push	 ebp
  00001	8b ec		 mov	 ebp, esp
  00003	81 ec 3c 04 00
	00		 sub	 esp, 1084		; 0000043cH
  00009	a1 00 00 00 00	 mov	 eax, DWORD PTR ___security_cookie
  0000e	33 c5		 xor	 eax, ebp
  00010	89 45 fc	 mov	 DWORD PTR __$ArrayPad$[ebp], eax

; 31   : 	char szFileExt[12];
; 32   : 
; 33   : 	if( m_bSaveJPG )

  00013	33 c0		 xor	 eax, eax
  00015	56		 push	 esi
  00016	8b f1		 mov	 esi, ecx
  00018	38 46 14	 cmp	 BYTE PTR [esi+20], al
  0001b	57		 push	 edi
  0001c	0f 94 c0	 sete	 al

; 34   : 		strcpy( szFileExt, "jpg" );
; 35   : 	else
; 36   : 		strcpy(szFileExt, "bmp");
; 37   : 
; 38   : 	char szFullSavePath[MAX_PATH*2]="";

  0001f	68 07 02 00 00	 push	 519			; 00000207H
  00024	6a 00		 push	 0
  00026	c6 85 dc fd ff
	ff 00		 mov	 BYTE PTR _szFullSavePath$[ebp], 0
  0002d	48		 dec	 eax
  0002e	25 08 03 f7 ff	 and	 eax, -589048		; fff70308H
  00033	05 62 6d 70 00	 add	 eax, 7368034		; 00706d62H
  00038	89 45 e4	 mov	 DWORD PTR _szFileExt$[ebp], eax
  0003b	8d 85 dd fd ff
	ff		 lea	 eax, DWORD PTR _szFullSavePath$[ebp+1]
  00041	50		 push	 eax
  00042	e8 00 00 00 00	 call	 _memset
  00047	83 c4 0c	 add	 esp, 12			; 0000000cH

; 39   : 	_fullpath( szFullSavePath, m_SavePath.c_str(), sizeof( szFullSavePath ) );

  0004a	bf 08 02 00 00	 mov	 edi, 520		; 00000208H
  0004f	57		 push	 edi
  00050	8d 4e 04	 lea	 ecx, DWORD PTR [esi+4]
  00053	ff 15 00 00 00
	00		 call	 DWORD PTR __imp_?c_str@ioHashString@@QBEPBDXZ
  00059	50		 push	 eax
  0005a	8d 85 dc fd ff
	ff		 lea	 eax, DWORD PTR _szFullSavePath$[ebp]
  00060	50		 push	 eax
  00061	ff 15 00 00 00
	00		 call	 DWORD PTR __imp___fullpath
  00067	83 c4 0c	 add	 esp, 12			; 0000000cH

; 40   : 
; 41   : 	char szTestPath[MAX_PATH*2];
; 42   : 	StringCbPrintf_e( szTestPath, sizeof(szTestPath), "%s\\*.%s", szFullSavePath, szFileExt );	

  0006a	6a 04		 push	 4
  0006c	c7 45 f0 c8 9f
	b7 c0		 mov	 DWORD PTR ___encStr$505130[ebp], -1061707832 ; c0b79fc8H
  00073	81 75 f0 ed ec
	eb ea		 xor	 DWORD PTR ___encStr$505130[ebp], -353637139 ; eaebecedH
  0007a	c7 45 f4 c3 c9
	98 00		 mov	 DWORD PTR ___encStr$505130[ebp+4], 10013123 ; 0098c9c3H
  00081	58		 pop	 eax
$LL106@MakeFullPa:
  00082	8b c8		 mov	 ecx, eax
  00084	81 e1 03 00 00
	80		 and	 ecx, -2147483645	; 80000003H
  0008a	79 05		 jns	 SHORT $LN116@MakeFullPa
  0008c	49		 dec	 ecx
  0008d	83 c9 fc	 or	 ecx, -4			; fffffffcH
  00090	41		 inc	 ecx
$LN116@MakeFullPa:
  00091	b2 ed		 mov	 dl, -19			; ffffffedH
  00093	2a d1		 sub	 dl, cl
  00095	30 54 05 f0	 xor	 BYTE PTR ___encStr$505130[ebp+eax], dl
  00099	40		 inc	 eax
  0009a	83 f8 07	 cmp	 eax, 7
  0009d	7c e3		 jl	 SHORT $LL106@MakeFullPa
  0009f	8d 45 e4	 lea	 eax, DWORD PTR _szFileExt$[ebp]
  000a2	50		 push	 eax
  000a3	8d 85 dc fd ff
	ff		 lea	 eax, DWORD PTR _szFullSavePath$[ebp]
  000a9	50		 push	 eax
  000aa	8d 45 f0	 lea	 eax, DWORD PTR ___encStr$505130[ebp]
  000ad	50		 push	 eax
  000ae	8d 85 d4 fb ff
	ff		 lea	 eax, DWORD PTR _szTestPath$[ebp]
  000b4	57		 push	 edi
  000b5	50		 push	 eax
  000b6	e8 00 00 00 00	 call	 ?StringCbPrintfA@@YAJPADIPBDZZ ; StringCbPrintfA
  000bb	83 c4 14	 add	 esp, 20			; 00000014H

; 43   : 
; 44   : 	/*
; 45   : 	WIN32_FIND_DATA wfd;
; 46   : 	ZeroMemory( &wfd, sizeof(WIN32_FIND_DATA) );
; 47   : 
; 48   : 	int iNameCount = 1;
; 49   : 	char szFileName[MAX_PATH];
; 50   : 
; 51   : 	BOOL bResult = TRUE;
; 52   : 	HANDLE hSrch = FindFirstFile( szTestPath, &wfd );
; 53   : 
; 54   : 	while( bResult )
; 55   : 	{
; 56   : 		if( !( wfd.dwFileAttributes & FILE_ATTRIBUTE_DIRECTORY ) )
; 57   : 		{
; 58   : 			const char *pStr = strstr( wfd.cFileName, "LostSagaShot" );
; 59   : 			if( pStr )
; 60   : 			{
; 61   : 				_splitpath( pStr, NULL, NULL, szFileName, NULL );
; 62   : 
; 63   : 				int iNumber = atoi( szFileName + 20 );	// 20 == strlen( "LostSagaShot_000000_" )
; 64   : 				iNameCount = max( iNameCount, iNumber + 1 );
; 65   : 			}
; 66   : 		}
; 67   : 
; 68   : 		bResult = FindNextFile( hSrch, &wfd );
; 69   : 	}
; 70   : 
; 71   : 	FindClose( hSrch );
; 72   : 	*/
; 73   : 
; 74   : 	SYSTEMTIME st;
; 75   : 	GetLocalTime(&st);

  000be	8d 85 c4 fb ff
	ff		 lea	 eax, DWORD PTR _st$[ebp]
  000c4	50		 push	 eax
  000c5	ff 15 00 00 00
	00		 call	 DWORD PTR __imp__GetLocalTime@4

; 76   : 
; 77   : 	StringCbPrintf( m_szSaveFullPath,
; 78   : 					sizeof(m_szSaveFullPath),
; 79   : 					"%s\\LostSagaShot_%02d%02d%02d_%02d%02d%02d.%s",
; 80   : 					szFullSavePath,
; 81   : 					st.wYear - 2000,
; 82   : 					st.wMonth,
; 83   : 					st.wDay,
; 84   : 					st.wHour,
; 85   : 					st.wMinute,
; 86   : 					st.wSecond,
; 87   : 					szFileExt );

  000cb	8d 45 e4	 lea	 eax, DWORD PTR _szFileExt$[ebp]
  000ce	50		 push	 eax
  000cf	0f b7 85 d0 fb
	ff ff		 movzx	 eax, WORD PTR _st$[ebp+12]
  000d6	50		 push	 eax
  000d7	0f b7 85 ce fb
	ff ff		 movzx	 eax, WORD PTR _st$[ebp+10]
  000de	50		 push	 eax
  000df	0f b7 85 cc fb
	ff ff		 movzx	 eax, WORD PTR _st$[ebp+8]
  000e6	50		 push	 eax
  000e7	0f b7 85 ca fb
	ff ff		 movzx	 eax, WORD PTR _st$[ebp+6]
  000ee	50		 push	 eax
  000ef	0f b7 85 c6 fb
	ff ff		 movzx	 eax, WORD PTR _st$[ebp+2]
  000f6	50		 push	 eax
  000f7	0f b7 85 c4 fb
	ff ff		 movzx	 eax, WORD PTR _st$[ebp]
  000fe	2d d0 07 00 00	 sub	 eax, 2000		; 000007d0H
  00103	50		 push	 eax
  00104	8d 85 dc fd ff
	ff		 lea	 eax, DWORD PTR _szFullSavePath$[ebp]
  0010a	50		 push	 eax
  0010b	68 00 00 00 00	 push	 OFFSET ??_C@_0CN@NCMHEMAN@?$CFs?2LostSagaShot_?$CF02d?$CF02d?$CF02d_?$CF02@
  00110	57		 push	 edi
  00111	83 c6 24	 add	 esi, 36			; 00000024H
  00114	56		 push	 esi
  00115	e8 00 00 00 00	 call	 ?StringCbPrintfA@@YAJPADIPBDZZ ; StringCbPrintfA

; 88   : }

  0011a	8b 4d fc	 mov	 ecx, DWORD PTR __$ArrayPad$[ebp]
  0011d	83 c4 2c	 add	 esp, 44			; 0000002cH
  00120	5f		 pop	 edi
  00121	33 cd		 xor	 ecx, ebp
  00123	5e		 pop	 esi
  00124	e8 00 00 00 00	 call	 @__security_check_cookie@4
  00129	c9		 leave
  0012a	c3		 ret	 0
?MakeFullPathName@ioScreenShotTask@@IAEXXZ ENDP		; ioScreenShotTask::MakeFullPathName
_TEXT	ENDS
PUBLIC	??_C@_08HGKOMPDC@?5?$FL?$CFd?$HM?$CFd?$FN?$AA@	; `string'
PUBLIC	??_C@_02BOGAIONP@ab?$AA@			; `string'
PUBLIC	__$ArrayPad$
EXTRN	__imp__fclose:PROC
EXTRN	__imp__fwrite:PROC
EXTRN	?GetSingleton@ioMyInfo@@SAAAV1@XZ:PROC		; ioMyInfo::GetSingleton
EXTRN	__imp__fopen:PROC
EXTRN	__imp_?EndThreadCapture@ioRenderSystem@@QAEXXZ:PROC
EXTRN	__imp_?SaveSurfaceToFile@@YAJPAUIDirect3DSurface9@@II_NPBD@Z:PROC
EXTRN	__imp_?IsCaptureShotSafe@ioRenderSystem@@QBE_NXZ:PROC
EXTRN	__imp_?BeginThreadCapture@ioRenderSystem@@QAEPAUIDirect3DSurface9@@XZ:PROC
;	COMDAT ??_C@_08HGKOMPDC@?5?$FL?$CFd?$HM?$CFd?$FN?$AA@
; File d:\lost saga for developer\youtube\tutorial\source\src\lsclient\iomyinfo.h
CONST	SEGMENT
??_C@_08HGKOMPDC@?5?$FL?$CFd?$HM?$CFd?$FN?$AA@ DB ' [%d|%d]', 00H ; `string'
CONST	ENDS
;	COMDAT ??_C@_02BOGAIONP@ab?$AA@
CONST	SEGMENT
??_C@_02BOGAIONP@ab?$AA@ DB 'ab', 00H			; `string'
; Function compile flags: /Ogsp
; File d:\lost saga for developer\youtube\tutorial\source\src\lsclient\ioscreenshottask.cpp
CONST	ENDS
;	COMDAT ?Process@ioScreenShotTask@@UAEXXZ
_TEXT	SEGMENT
_szText$505299 = -264					; size = 260
__$ArrayPad$ = -4					; size = 4
?Process@ioScreenShotTask@@UAEXXZ PROC			; ioScreenShotTask::Process, COMDAT
; _this$ = ecx

; 108  : {

  00000	55		 push	 ebp
  00001	8b ec		 mov	 ebp, esp
  00003	81 ec 08 01 00
	00		 sub	 esp, 264		; 00000108H
  00009	a1 00 00 00 00	 mov	 eax, DWORD PTR ___security_cookie
  0000e	33 c5		 xor	 eax, ebp
  00010	89 45 fc	 mov	 DWORD PTR __$ArrayPad$[ebp], eax
  00013	53		 push	 ebx
  00014	56		 push	 esi
  00015	8b f1		 mov	 esi, ecx

; 109  : 	MakeFullPathName();

  00017	e8 00 00 00 00	 call	 ?MakeFullPathName@ioScreenShotTask@@IAEXXZ ; ioScreenShotTask::MakeFullPathName

; 110  : 
; 111  : 	HRESULT hr;
; 112  : 	IDirect3DSurface9 *pSrc = m_pSystem->BeginThreadCapture();

  0001c	8b 4e 18	 mov	 ecx, DWORD PTR [esi+24]
  0001f	ff 15 00 00 00
	00		 call	 DWORD PTR __imp_?BeginThreadCapture@ioRenderSystem@@QAEPAUIDirect3DSurface9@@XZ
  00025	8b d8		 mov	 ebx, eax

; 113  : 	if( !pSrc || !m_pSystem->IsCaptureShotSafe() )

  00027	85 db		 test	 ebx, ebx
  00029	0f 84 c5 00 00
	00		 je	 $LN4@Process
  0002f	8b 4e 18	 mov	 ecx, DWORD PTR [esi+24]
  00032	ff 15 00 00 00
	00		 call	 DWORD PTR __imp_?IsCaptureShotSafe@ioRenderSystem@@QBE_NXZ
  00038	84 c0		 test	 al, al
  0003a	0f 84 b4 00 00
	00		 je	 $LN4@Process

; 117  : 		return;
; 118  : 	}
; 119  : 
; 120  : 	hr = SaveSurfaceToFile( pSrc,
; 121  : 							m_iWidth,
; 122  : 							m_iHeight,
; 123  : 							m_bSource16Bits,
; 124  : 							m_szSaveFullPath );

  00040	0f b6 46 15	 movzx	 eax, BYTE PTR [esi+21]
  00044	57		 push	 edi
  00045	8d 7e 24	 lea	 edi, DWORD PTR [esi+36]
  00048	57		 push	 edi
  00049	50		 push	 eax
  0004a	ff 76 20	 push	 DWORD PTR [esi+32]
  0004d	ff 76 1c	 push	 DWORD PTR [esi+28]
  00050	53		 push	 ebx
  00051	ff 15 00 00 00
	00		 call	 DWORD PTR __imp_?SaveSurfaceToFile@@YAJPAUIDirect3DSurface9@@II_NPBD@Z

; 125  : 
; 126  : 	m_pSystem->EndThreadCapture();

  00057	8b 4e 18	 mov	 ecx, DWORD PTR [esi+24]
  0005a	83 c4 14	 add	 esp, 20			; 00000014H
  0005d	8b d8		 mov	 ebx, eax
  0005f	ff 15 00 00 00
	00		 call	 DWORD PTR __imp_?EndThreadCapture@ioRenderSystem@@QAEXXZ

; 127  : 
; 128  : 	// 스크린샷에 정보 추가
; 129  : 	FILE *pFile = fopen( m_szSaveFullPath, "ab" );

  00065	68 00 00 00 00	 push	 OFFSET ??_C@_02BOGAIONP@ab?$AA@
  0006a	57		 push	 edi
  0006b	ff 15 00 00 00
	00		 call	 DWORD PTR __imp__fopen
  00071	8b f8		 mov	 edi, eax
  00073	59		 pop	 ecx
  00074	59		 pop	 ecx

; 130  : 	if( pFile )

  00075	85 ff		 test	 edi, edi
  00077	74 6d		 je	 SHORT $LN3@Process

; 131  : 	{
; 132  : 		char szText[MAX_PATH]="";

  00079	68 03 01 00 00	 push	 259			; 00000103H
  0007e	8d 85 f9 fe ff
	ff		 lea	 eax, DWORD PTR _szText$505299[ebp+1]
  00084	6a 00		 push	 0
  00086	50		 push	 eax
  00087	c6 85 f8 fe ff
	ff 00		 mov	 BYTE PTR _szText$505299[ebp], 0
  0008e	e8 00 00 00 00	 call	 _memset

; 133  : 		StringCbPrintf( szText, sizeof( szText ), " [%d|%d]", g_MyInfo.GetUserIndex(), FILEVER );

  00093	e8 00 00 00 00	 call	 ?GetSingleton@ioMyInfo@@SAAAV1@XZ ; ioMyInfo::GetSingleton
  00098	68 3d 32 00 00	 push	 12861			; 0000323dH
  0009d	ff 70 08	 push	 DWORD PTR [eax+8]
  000a0	8d 85 f8 fe ff
	ff		 lea	 eax, DWORD PTR _szText$505299[ebp]
  000a6	68 00 00 00 00	 push	 OFFSET ??_C@_08HGKOMPDC@?5?$FL?$CFd?$HM?$CFd?$FN?$AA@
  000ab	68 04 01 00 00	 push	 260			; 00000104H
  000b0	50		 push	 eax
  000b1	e8 00 00 00 00	 call	 ?StringCbPrintfA@@YAJPADIPBDZZ ; StringCbPrintfA

; 134  : 		fwrite( szText, strlen( szText ), 1, pFile );

  000b6	8d 85 f8 fe ff
	ff		 lea	 eax, DWORD PTR _szText$505299[ebp]
  000bc	83 c4 20	 add	 esp, 32			; 00000020H
  000bf	8d 48 01	 lea	 ecx, DWORD PTR [eax+1]
$LL10@Process:
  000c2	8a 10		 mov	 dl, BYTE PTR [eax]
  000c4	40		 inc	 eax
  000c5	84 d2		 test	 dl, dl
  000c7	75 f9		 jne	 SHORT $LL10@Process
  000c9	57		 push	 edi
  000ca	2b c1		 sub	 eax, ecx
  000cc	6a 01		 push	 1
  000ce	50		 push	 eax
  000cf	8d 85 f8 fe ff
	ff		 lea	 eax, DWORD PTR _szText$505299[ebp]
  000d5	50		 push	 eax
  000d6	ff 15 00 00 00
	00		 call	 DWORD PTR __imp__fwrite

; 135  : 		fclose( pFile );

  000dc	57		 push	 edi
  000dd	ff 15 00 00 00
	00		 call	 DWORD PTR __imp__fclose
  000e3	83 c4 14	 add	 esp, 20			; 00000014H
$LN3@Process:

; 136  : 	}
; 137  : 	//
; 138  : 
; 139  : 	if( SUCCEEDED(hr) )

  000e6	85 db		 test	 ebx, ebx
  000e8	0f 99 c0	 setns	 al
  000eb	88 86 2c 02 00
	00		 mov	 BYTE PTR [esi+556], al
  000f1	5f		 pop	 edi

; 140  : 		m_bDone = true;
; 141  : 	else
; 142  : 		m_bDone = false;

  000f2	eb 10		 jmp	 SHORT $LN1@Process
$LN4@Process:

; 114  : 	{
; 115  : 		m_pSystem->EndThreadCapture();

  000f4	8b 4e 18	 mov	 ecx, DWORD PTR [esi+24]
  000f7	ff 15 00 00 00
	00		 call	 DWORD PTR __imp_?EndThreadCapture@ioRenderSystem@@QAEXXZ

; 116  : 		m_bDone = false;

  000fd	c6 86 2c 02 00
	00 00		 mov	 BYTE PTR [esi+556], 0
$LN1@Process:

; 143  : }

  00104	8b 4d fc	 mov	 ecx, DWORD PTR __$ArrayPad$[ebp]
  00107	5e		 pop	 esi
  00108	33 cd		 xor	 ecx, ebp
  0010a	5b		 pop	 ebx
  0010b	e8 00 00 00 00	 call	 @__security_check_cookie@4
  00110	c9		 leave
  00111	c3		 ret	 0
?Process@ioScreenShotTask@@UAEXXZ ENDP			; ioScreenShotTask::Process
_TEXT	ENDS
END
