; Listing generated by Microsoft (R) Optimizing Compiler Version 16.00.30319.01 

	TITLE	D:\Lost Saga For Developer\Youtube\Tutorial\Source\src\LSClient\ioSelfControlBuff.cpp
	.686P
	.XMM
	include listing.inc
	.model	flat

INCLUDELIB MSVCRT
INCLUDELIB OLDNAMES

PUBLIC	?return1@@YAIXZ					; return1
; Function compile flags: /Ogsp
; File d:\lost saga for developer\youtube\tutorial\source\src\lsclient\stdafx.h
;	COMDAT ?return1@@YAIXZ
_TEXT	SEGMENT
?return1@@YAIXZ PROC					; return1, COMDAT

; 17   : 	__forceinline unsigned int return1() { __asm mov eax, 1 };

  00000	b8 01 00 00 00	 mov	 eax, 1
  00005	c3		 ret	 0
?return1@@YAIXZ ENDP					; return1
_TEXT	ENDS
PUBLIC	?return360@@YAIXZ				; return360
; Function compile flags: /Ogsp
;	COMDAT ?return360@@YAIXZ
_TEXT	SEGMENT
?return360@@YAIXZ PROC					; return360, COMDAT

; 27   : 	__forceinline unsigned int return360() { __asm mov eax, 360 };

  00000	b8 68 01 00 00	 mov	 eax, 360		; 00000168H
  00005	c3		 ret	 0
?return360@@YAIXZ ENDP					; return360
_TEXT	ENDS
PUBLIC	?GetState@ioBaseChar@@QBE?AW4CharState@@XZ	; ioBaseChar::GetState
; Function compile flags: /Ogsp
; File d:\lost saga for developer\youtube\tutorial\source\src\lsclient\iobasechar.h
;	COMDAT ?GetState@ioBaseChar@@QBE?AW4CharState@@XZ
_TEXT	SEGMENT
?GetState@ioBaseChar@@QBE?AW4CharState@@XZ PROC		; ioBaseChar::GetState, COMDAT
; _this$ = ecx

; 2156 : 	inline CharState GetState() const { return m_CharState; }	

  00000	8a 81 10 03 00
	00		 mov	 al, BYTE PTR [ecx+784]
  00006	c3		 ret	 0
?GetState@ioBaseChar@@QBE?AW4CharState@@XZ ENDP		; ioBaseChar::GetState
_TEXT	ENDS
PUBLIC	?GetCharName@ioBaseChar@@QBEABVioHashString@@XZ	; ioBaseChar::GetCharName
; Function compile flags: /Ogsp
;	COMDAT ?GetCharName@ioBaseChar@@QBEABVioHashString@@XZ
_TEXT	SEGMENT
?GetCharName@ioBaseChar@@QBEABVioHashString@@XZ PROC	; ioBaseChar::GetCharName, COMDAT
; _this$ = ecx

; 2594 : 	inline const ioHashString& GetCharName() const { return m_Name; }

  00000	8d 81 d4 02 00
	00		 lea	 eax, DWORD PTR [ecx+724]
  00006	c3		 ret	 0
?GetCharName@ioBaseChar@@QBEABVioHashString@@XZ ENDP	; ioBaseChar::GetCharName
_TEXT	ENDS
PUBLIC	?GetMoveDir@ioBaseChar@@QBEABUD3DXVECTOR3@@XZ	; ioBaseChar::GetMoveDir
; Function compile flags: /Ogsp
;	COMDAT ?GetMoveDir@ioBaseChar@@QBEABUD3DXVECTOR3@@XZ
_TEXT	SEGMENT
?GetMoveDir@ioBaseChar@@QBEABUD3DXVECTOR3@@XZ PROC	; ioBaseChar::GetMoveDir, COMDAT
; _this$ = ecx

; 2596 : 	inline const D3DXVECTOR3& GetMoveDir() const { return m_vMoveDir; }

  00000	8d 81 b4 06 00
	00		 lea	 eax, DWORD PTR [ecx+1716]
  00006	c3		 ret	 0
?GetMoveDir@ioBaseChar@@QBEABUD3DXVECTOR3@@XZ ENDP	; ioBaseChar::GetMoveDir
_TEXT	ENDS
PUBLIC	?GetTargetRot@ioBaseChar@@QBEABUD3DXQUATERNION@@XZ ; ioBaseChar::GetTargetRot
; Function compile flags: /Ogsp
;	COMDAT ?GetTargetRot@ioBaseChar@@QBEABUD3DXQUATERNION@@XZ
_TEXT	SEGMENT
?GetTargetRot@ioBaseChar@@QBEABUD3DXQUATERNION@@XZ PROC	; ioBaseChar::GetTargetRot, COMDAT
; _this$ = ecx

; 2599 : 	inline const D3DXQUATERNION& GetTargetRot() const { return m_qtTargetRot; }

  00000	8d 81 a4 06 00
	00		 lea	 eax, DWORD PTR [ecx+1700]
  00006	c3		 ret	 0
?GetTargetRot@ioBaseChar@@QBEABUD3DXQUATERNION@@XZ ENDP	; ioBaseChar::GetTargetRot
_TEXT	ENDS
PUBLIC	_acosf
EXTRN	__fltused:DWORD
EXTRN	__CIacos:PROC
; Function compile flags: /Ogsp
; File c:\program files (x86)\microsoft visual studio 10.0\vc\include\math.h
;	COMDAT _acosf
_TEXT	SEGMENT
tv69 = 8						; size = 4
__X$ = 8						; size = 4
_acosf	PROC						; COMDAT

; 400  :         {return ((float)acos((double)_X)); }

  00000	55		 push	 ebp
  00001	8b ec		 mov	 ebp, esp
  00003	d9 45 08	 fld	 DWORD PTR __X$[ebp]
  00006	e8 00 00 00 00	 call	 __CIacos
  0000b	d9 5d 08	 fstp	 DWORD PTR tv69[ebp]
  0000e	d9 45 08	 fld	 DWORD PTR tv69[ebp]
  00011	5d		 pop	 ebp
  00012	c3		 ret	 0
_acosf	ENDP
_TEXT	ENDS
PUBLIC	??_7bad_alloc@std@@6B@				; std::bad_alloc::`vftable'
PUBLIC	??0bad_alloc@std@@QAE@PBD@Z			; std::bad_alloc::bad_alloc
PUBLIC	??_R4bad_alloc@std@@6B@				; std::bad_alloc::`RTTI Complete Object Locator'
PUBLIC	??_R0?AVbad_alloc@std@@@8			; std::bad_alloc `RTTI Type Descriptor'
PUBLIC	??_R3bad_alloc@std@@8				; std::bad_alloc::`RTTI Class Hierarchy Descriptor'
PUBLIC	??_R2bad_alloc@std@@8				; std::bad_alloc::`RTTI Base Class Array'
PUBLIC	??_R1A@?0A@EA@bad_alloc@std@@8			; std::bad_alloc::`RTTI Base Class Descriptor at (0,-1,0,64)'
PUBLIC	??_R1A@?0A@EA@exception@std@@8			; std::exception::`RTTI Base Class Descriptor at (0,-1,0,64)'
PUBLIC	??_R0?AVexception@std@@@8			; std::exception `RTTI Type Descriptor'
PUBLIC	??_R3exception@std@@8				; std::exception::`RTTI Class Hierarchy Descriptor'
PUBLIC	??_R2exception@std@@8				; std::exception::`RTTI Base Class Array'
EXTRN	__imp_??0exception@std@@QAE@ABQBD@Z:PROC
EXTRN	??_7type_info@@6B@:QWORD			; type_info::`vftable'
EXTRN	??_Ebad_alloc@std@@UAEPAXI@Z:PROC		; std::bad_alloc::`vector deleting destructor'
EXTRN	?what@exception@std@@UBEPBDXZ:PROC		; std::exception::what
;	COMDAT ??_R2exception@std@@8
; File c:\program files (x86)\microsoft visual studio 10.0\vc\include\exception
rdata$r	SEGMENT
??_R2exception@std@@8 DD FLAT:??_R1A@?0A@EA@exception@std@@8 ; std::exception::`RTTI Base Class Array'
rdata$r	ENDS
;	COMDAT ??_R3exception@std@@8
rdata$r	SEGMENT
??_R3exception@std@@8 DD 00H				; std::exception::`RTTI Class Hierarchy Descriptor'
	DD	00H
	DD	01H
	DD	FLAT:??_R2exception@std@@8
rdata$r	ENDS
;	COMDAT ??_R0?AVexception@std@@@8
_DATA	SEGMENT
??_R0?AVexception@std@@@8 DD FLAT:??_7type_info@@6B@	; std::exception `RTTI Type Descriptor'
	DD	00H
	DB	'.?AVexception@std@@', 00H
_DATA	ENDS
;	COMDAT ??_R1A@?0A@EA@exception@std@@8
rdata$r	SEGMENT
??_R1A@?0A@EA@exception@std@@8 DD FLAT:??_R0?AVexception@std@@@8 ; std::exception::`RTTI Base Class Descriptor at (0,-1,0,64)'
	DD	00H
	DD	00H
	DD	0ffffffffH
	DD	00H
	DD	040H
	DD	FLAT:??_R3exception@std@@8
rdata$r	ENDS
;	COMDAT ??_R1A@?0A@EA@bad_alloc@std@@8
rdata$r	SEGMENT
??_R1A@?0A@EA@bad_alloc@std@@8 DD FLAT:??_R0?AVbad_alloc@std@@@8 ; std::bad_alloc::`RTTI Base Class Descriptor at (0,-1,0,64)'
	DD	01H
	DD	00H
	DD	0ffffffffH
	DD	00H
	DD	040H
	DD	FLAT:??_R3bad_alloc@std@@8
rdata$r	ENDS
;	COMDAT ??_R2bad_alloc@std@@8
rdata$r	SEGMENT
??_R2bad_alloc@std@@8 DD FLAT:??_R1A@?0A@EA@bad_alloc@std@@8 ; std::bad_alloc::`RTTI Base Class Array'
	DD	FLAT:??_R1A@?0A@EA@exception@std@@8
rdata$r	ENDS
;	COMDAT ??_R3bad_alloc@std@@8
rdata$r	SEGMENT
??_R3bad_alloc@std@@8 DD 00H				; std::bad_alloc::`RTTI Class Hierarchy Descriptor'
	DD	00H
	DD	02H
	DD	FLAT:??_R2bad_alloc@std@@8
rdata$r	ENDS
;	COMDAT ??_R0?AVbad_alloc@std@@@8
_DATA	SEGMENT
??_R0?AVbad_alloc@std@@@8 DD FLAT:??_7type_info@@6B@	; std::bad_alloc `RTTI Type Descriptor'
	DD	00H
	DB	'.?AVbad_alloc@std@@', 00H
_DATA	ENDS
;	COMDAT ??_R4bad_alloc@std@@6B@
rdata$r	SEGMENT
??_R4bad_alloc@std@@6B@ DD 00H				; std::bad_alloc::`RTTI Complete Object Locator'
	DD	00H
	DD	00H
	DD	FLAT:??_R0?AVbad_alloc@std@@@8
	DD	FLAT:??_R3bad_alloc@std@@8
rdata$r	ENDS
;	COMDAT ??_7bad_alloc@std@@6B@
CONST	SEGMENT
??_7bad_alloc@std@@6B@ DD FLAT:??_R4bad_alloc@std@@6B@	; std::bad_alloc::`vftable'
	DD	FLAT:??_Ebad_alloc@std@@UAEPAXI@Z
	DD	FLAT:?what@exception@std@@UBEPBDXZ
; Function compile flags: /Ogsp
CONST	ENDS
;	COMDAT ??0bad_alloc@std@@QAE@PBD@Z
_TEXT	SEGMENT
__Message$ = 8						; size = 4
??0bad_alloc@std@@QAE@PBD@Z PROC			; std::bad_alloc::bad_alloc, COMDAT
; _this$ = ecx

; 345  : 		{	// construct from message string

  00000	55		 push	 ebp
  00001	8b ec		 mov	 ebp, esp
  00003	56		 push	 esi
  00004	8d 45 08	 lea	 eax, DWORD PTR __Message$[ebp]
  00007	50		 push	 eax
  00008	8b f1		 mov	 esi, ecx
  0000a	ff 15 00 00 00
	00		 call	 DWORD PTR __imp_??0exception@std@@QAE@ABQBD@Z
  00010	c7 06 00 00 00
	00		 mov	 DWORD PTR [esi], OFFSET ??_7bad_alloc@std@@6B@

; 346  : 		}

  00016	8b c6		 mov	 eax, esi
  00018	5e		 pop	 esi
  00019	5d		 pop	 ebp
  0001a	c2 04 00	 ret	 4
??0bad_alloc@std@@QAE@PBD@Z ENDP			; std::bad_alloc::bad_alloc
_TEXT	ENDS
PUBLIC	??1bad_alloc@std@@UAE@XZ			; std::bad_alloc::~bad_alloc
EXTRN	__imp_??1exception@std@@UAE@XZ:PROC
; Function compile flags: /Ogsp
;	COMDAT ??1bad_alloc@std@@UAE@XZ
_TEXT	SEGMENT
??1bad_alloc@std@@UAE@XZ PROC				; std::bad_alloc::~bad_alloc, COMDAT
; _this$ = ecx

; 354  : 		{	// destroy the object

  00000	c7 01 00 00 00
	00		 mov	 DWORD PTR [ecx], OFFSET ??_7bad_alloc@std@@6B@

; 355  : 		}

  00006	ff 25 00 00 00
	00		 jmp	 DWORD PTR __imp_??1exception@std@@UAE@XZ
??1bad_alloc@std@@UAE@XZ ENDP				; std::bad_alloc::~bad_alloc
_TEXT	ENDS
EXTRN	??3@YAXPAX@Z:PROC				; operator delete
; Function compile flags: /Ogsp
;	COMDAT ??_Gbad_alloc@std@@UAEPAXI@Z
_TEXT	SEGMENT
___flags$ = 8						; size = 4
??_Gbad_alloc@std@@UAEPAXI@Z PROC			; std::bad_alloc::`scalar deleting destructor', COMDAT
; _this$ = ecx
  00000	55		 push	 ebp
  00001	8b ec		 mov	 ebp, esp
  00003	56		 push	 esi
  00004	8b f1		 mov	 esi, ecx
  00006	c7 06 00 00 00
	00		 mov	 DWORD PTR [esi], OFFSET ??_7bad_alloc@std@@6B@
  0000c	ff 15 00 00 00
	00		 call	 DWORD PTR __imp_??1exception@std@@UAE@XZ
  00012	f6 45 08 01	 test	 BYTE PTR ___flags$[ebp], 1
  00016	74 07		 je	 SHORT $LN1@scalar
  00018	56		 push	 esi
  00019	e8 00 00 00 00	 call	 ??3@YAXPAX@Z		; operator delete
  0001e	59		 pop	 ecx
$LN1@scalar:
  0001f	8b c6		 mov	 eax, esi
  00021	5e		 pop	 esi
  00022	5d		 pop	 ebp
  00023	c2 04 00	 ret	 4
??_Gbad_alloc@std@@UAEPAXI@Z ENDP			; std::bad_alloc::`scalar deleting destructor'
_TEXT	ENDS
PUBLIC	??2@YAPAXIPAX@Z					; operator new
; Function compile flags: /Ogsp
; File c:\program files (x86)\microsoft visual studio 10.0\vc\include\new
;	COMDAT ??2@YAPAXIPAX@Z
_TEXT	SEGMENT
___formal$ = 8						; size = 4
__Where$ = 12						; size = 4
??2@YAPAXIPAX@Z PROC					; operator new, COMDAT

; 56   : 	{	// construct array with placement at _Where

  00000	55		 push	 ebp
  00001	8b ec		 mov	 ebp, esp

; 57   : 	return (_Where);

  00003	8b 45 0c	 mov	 eax, DWORD PTR __Where$[ebp]

; 58   : 	}

  00006	5d		 pop	 ebp
  00007	c3		 ret	 0
??2@YAPAXIPAX@Z ENDP					; operator new
_TEXT	ENDS
PUBLIC	??3@YAXPAX0@Z					; operator delete
; Function compile flags: /Ogsp
;	COMDAT ??3@YAXPAX0@Z
_TEXT	SEGMENT
___formal$ = 8						; size = 4
___formal$ = 12						; size = 4
??3@YAXPAX0@Z PROC					; operator delete, COMDAT

; 62   : 	}

  00000	c3		 ret	 0
??3@YAXPAX0@Z ENDP					; operator delete
_TEXT	ENDS
PUBLIC	??_R0?AVioWeapon@@@8				; ioWeapon `RTTI Type Descriptor'
PUBLIC	??_R0?AVioZoneEffectWeapon@@@8			; ioZoneEffectWeapon `RTTI Type Descriptor'
PUBLIC	?ToZoneEffectWeapon@@YAPAVioZoneEffectWeapon@@PAVioWeapon@@@Z ; ToZoneEffectWeapon
EXTRN	___RTDynamicCast:PROC
;	COMDAT ??_R0?AVioWeapon@@@8
; File d:\lost saga for developer\youtube\tutorial\source\src\lsclient\iozoneeffectweapon.h
_DATA	SEGMENT
??_R0?AVioWeapon@@@8 DD FLAT:??_7type_info@@6B@		; ioWeapon `RTTI Type Descriptor'
	DD	00H
	DB	'.?AVioWeapon@@', 00H
_DATA	ENDS
;	COMDAT ??_R0?AVioZoneEffectWeapon@@@8
_DATA	SEGMENT
??_R0?AVioZoneEffectWeapon@@@8 DD FLAT:??_7type_info@@6B@ ; ioZoneEffectWeapon `RTTI Type Descriptor'
	DD	00H
	DB	'.?AVioZoneEffectWeapon@@', 00H
; Function compile flags: /Ogsp
_DATA	ENDS
;	COMDAT ?ToZoneEffectWeapon@@YAPAVioZoneEffectWeapon@@PAVioWeapon@@@Z
_TEXT	SEGMENT
_pWeapon$ = 8						; size = 4
?ToZoneEffectWeapon@@YAPAVioZoneEffectWeapon@@PAVioWeapon@@@Z PROC ; ToZoneEffectWeapon, COMDAT

; 217  : {

  00000	55		 push	 ebp
  00001	8b ec		 mov	 ebp, esp
  00003	56		 push	 esi

; 218  : 	if( !pWeapon || pWeapon->GetType() != ioWeapon::WT_ZONE_EFFECT )

  00004	8b 75 08	 mov	 esi, DWORD PTR _pWeapon$[ebp]
  00007	85 f6		 test	 esi, esi
  00009	74 28		 je	 SHORT $LN1@ToZoneEffe
  0000b	8b 06		 mov	 eax, DWORD PTR [esi]
  0000d	8b ce		 mov	 ecx, esi
  0000f	ff 90 10 01 00
	00		 call	 DWORD PTR [eax+272]
  00015	83 f8 08	 cmp	 eax, 8
  00018	75 19		 jne	 SHORT $LN1@ToZoneEffe

; 220  : 
; 221  : 	return dynamic_cast< ioZoneEffectWeapon* >( pWeapon );

  0001a	6a 00		 push	 0
  0001c	68 00 00 00 00	 push	 OFFSET ??_R0?AVioZoneEffectWeapon@@@8
  00021	68 00 00 00 00	 push	 OFFSET ??_R0?AVioWeapon@@@8
  00026	6a 00		 push	 0
  00028	56		 push	 esi
  00029	e8 00 00 00 00	 call	 ___RTDynamicCast
  0002e	83 c4 14	 add	 esp, 20			; 00000014H
  00031	eb 02		 jmp	 SHORT $LN3@ToZoneEffe
$LN1@ToZoneEffe:

; 219  : 		return NULL;

  00033	33 c0		 xor	 eax, eax
$LN3@ToZoneEffe:
  00035	5e		 pop	 esi

; 222  : }

  00036	5d		 pop	 ebp
  00037	c3		 ret	 0
?ToZoneEffectWeapon@@YAPAVioZoneEffectWeapon@@PAVioWeapon@@@Z ENDP ; ToZoneEffectWeapon
_TEXT	ENDS
PUBLIC	?_Adopt@_Iterator_base0@std@@QAEXPBX@Z		; std::_Iterator_base0::_Adopt
; Function compile flags: /Ogsp
; File c:\program files (x86)\microsoft visual studio 10.0\vc\include\xutility
;	COMDAT ?_Adopt@_Iterator_base0@std@@QAEXPBX@Z
_TEXT	SEGMENT
___formal$ = 8						; size = 4
?_Adopt@_Iterator_base0@std@@QAEXPBX@Z PROC		; std::_Iterator_base0::_Adopt, COMDAT
; _this$ = ecx

; 49   : 		}

  00000	c2 04 00	 ret	 4
?_Adopt@_Iterator_base0@std@@QAEXPBX@Z ENDP		; std::_Iterator_base0::_Adopt
_TEXT	ENDS
PUBLIC	??_7ioSelfControlBuff@@6B@			; ioSelfControlBuff::`vftable'
PUBLIC	??0ioSelfControlBuff@@QAE@XZ			; ioSelfControlBuff::ioSelfControlBuff
PUBLIC	??_R4ioSelfControlBuff@@6B@			; ioSelfControlBuff::`RTTI Complete Object Locator'
PUBLIC	??_R0?AVioSelfControlBuff@@@8			; ioSelfControlBuff `RTTI Type Descriptor'
PUBLIC	??_R3ioSelfControlBuff@@8			; ioSelfControlBuff::`RTTI Class Hierarchy Descriptor'
PUBLIC	??_R2ioSelfControlBuff@@8			; ioSelfControlBuff::`RTTI Base Class Array'
PUBLIC	??_R1A@?0A@EA@ioSelfControlBuff@@8		; ioSelfControlBuff::`RTTI Base Class Descriptor at (0,-1,0,64)'
PUBLIC	??_R1A@?0A@EA@ioBuff@@8				; ioBuff::`RTTI Base Class Descriptor at (0,-1,0,64)'
PUBLIC	??_R0?AVioBuff@@@8				; ioBuff `RTTI Type Descriptor'
PUBLIC	??_R3ioBuff@@8					; ioBuff::`RTTI Class Hierarchy Descriptor'
PUBLIC	??_R2ioBuff@@8					; ioBuff::`RTTI Base Class Array'
PUBLIC	?LoadProperty@ioSelfControlBuff@@UAEXAAVioINILoader@@@Z ; ioSelfControlBuff::LoadProperty
PUBLIC	?Clone@ioSelfControlBuff@@UAEPAVioBuff@@XZ	; ioSelfControlBuff::Clone
PUBLIC	?StartBuff@ioSelfControlBuff@@UAEXPAVioBaseChar@@@Z ; ioSelfControlBuff::StartBuff
PUBLIC	?ApplyStartBuff@ioSelfControlBuff@@UAE_NPAVioBaseChar@@KK@Z ; ioSelfControlBuff::ApplyStartBuff
PUBLIC	?ProcessBuff@ioSelfControlBuff@@UAEXM@Z		; ioSelfControlBuff::ProcessBuff
PUBLIC	?EndBuff@ioSelfControlBuff@@UAEXXZ		; ioSelfControlBuff::EndBuff
PUBLIC	?ApplyExtraBuffInfo@ioSelfControlBuff@@UAEXAAVSP2Packet@@@Z ; ioSelfControlBuff::ApplyExtraBuffInfo
PUBLIC	?IsWaitSelfRemove@ioBuff@@UAE_NXZ		; ioBuff::IsWaitSelfRemove
EXTRN	??1ioBuff@@UAE@XZ:PROC				; ioBuff::~ioBuff
EXTRN	__imp_??0ioHashString@@QAE@XZ:PROC
EXTRN	??0ioBuff@@QAE@XZ:PROC				; ioBuff::ioBuff
EXTRN	___CxxFrameHandler3:PROC
EXTRN	@__security_check_cookie@4:PROC
EXTRN	__EH_epilog3:PROC
EXTRN	__EH_prolog3:PROC
EXTRN	?StartBuffWithAniTime@ioBuff@@UAEXPAVioBaseChar@@K@Z:PROC ; ioBuff::StartBuffWithAniTime
EXTRN	?CancelBuff@ioBuff@@UAEXXZ:PROC			; ioBuff::CancelBuff
EXTRN	?GetBuffInfo@ioBuff@@UAEXAAVSP2Packet@@@Z:PROC	; ioBuff::GetBuffInfo
EXTRN	?ApplyBuffInfo@ioBuff@@UAEXAAVSP2Packet@@@Z:PROC ; ioBuff::ApplyBuffInfo
EXTRN	?AccumulateBuff@ioBuff@@UAEXXZ:PROC		; ioBuff::AccumulateBuff
EXTRN	?IsLiveButStopped@ioBuff@@UBE_NXZ:PROC		; ioBuff::IsLiveButStopped
EXTRN	?IsCanJumpAttack@ioBuff@@UBE_NXZ:PROC		; ioBuff::IsCanJumpAttack
EXTRN	?SetAction@ioBuff@@MAEXXZ:PROC			; ioBuff::SetAction
EXTRN	?ProcessDelay@ioBuff@@MAEXM@Z:PROC		; ioBuff::ProcessDelay
EXTRN	?SetExtraDurationByGrowth@ioBuff@@UAEXM@Z:PROC	; ioBuff::SetExtraDurationByGrowth
EXTRN	?SetWeaponIndex@ioBuff@@UAEXK@Z:PROC		; ioBuff::SetWeaponIndex
EXTRN	?OnReduceGauge@ioBuff@@UBE_NXZ:PROC		; ioBuff::OnReduceGauge
EXTRN	?IsCharCollisionSkip@ioBuff@@UBE_NXZ:PROC	; ioBuff::IsCharCollisionSkip
EXTRN	?IsCollisionAvailableWeapon@ioBuff@@UBE_NXZ:PROC ; ioBuff::IsCollisionAvailableWeapon
EXTRN	?IsProtected@ioBuff@@UBE_NXZ:PROC		; ioBuff::IsProtected
EXTRN	?UseActiveCount@ioBuff@@UBE_NXZ:PROC		; ioBuff::UseActiveCount
EXTRN	?CheckActiveCount@ioBuff@@UAEXXZ:PROC		; ioBuff::CheckActiveCount
EXTRN	?CheckRemoveEquipSkillBuff@ioBuff@@UAEX_N@Z:PROC ; ioBuff::CheckRemoveEquipSkillBuff
EXTRN	?SetBuffGrapplingState@ioBuff@@UAE_NPAVioBaseChar@@ABVioHashString@@@Z:PROC ; ioBuff::SetBuffGrapplingState
EXTRN	?GetGrapplingTargetPos@ioBuff@@UAE?AUD3DXVECTOR3@@PAVioBaseChar@@@Z:PROC ; ioBuff::GetGrapplingTargetPos
EXTRN	??_EioSelfControlBuff@@UAEPAXI@Z:PROC		; ioSelfControlBuff::`vector deleting destructor'
;	COMDAT ??_R2ioBuff@@8
; File d:\lost saga for developer\youtube\tutorial\source\src\lsclient\ioselfcontrolbuff.cpp
rdata$r	SEGMENT
??_R2ioBuff@@8 DD FLAT:??_R1A@?0A@EA@ioBuff@@8		; ioBuff::`RTTI Base Class Array'
rdata$r	ENDS
;	COMDAT ??_R3ioBuff@@8
rdata$r	SEGMENT
??_R3ioBuff@@8 DD 00H					; ioBuff::`RTTI Class Hierarchy Descriptor'
	DD	00H
	DD	01H
	DD	FLAT:??_R2ioBuff@@8
rdata$r	ENDS
;	COMDAT ??_R0?AVioBuff@@@8
_DATA	SEGMENT
??_R0?AVioBuff@@@8 DD FLAT:??_7type_info@@6B@		; ioBuff `RTTI Type Descriptor'
	DD	00H
	DB	'.?AVioBuff@@', 00H
_DATA	ENDS
;	COMDAT ??_R1A@?0A@EA@ioBuff@@8
rdata$r	SEGMENT
??_R1A@?0A@EA@ioBuff@@8 DD FLAT:??_R0?AVioBuff@@@8	; ioBuff::`RTTI Base Class Descriptor at (0,-1,0,64)'
	DD	00H
	DD	00H
	DD	0ffffffffH
	DD	00H
	DD	040H
	DD	FLAT:??_R3ioBuff@@8
rdata$r	ENDS
;	COMDAT ??_R1A@?0A@EA@ioSelfControlBuff@@8
rdata$r	SEGMENT
??_R1A@?0A@EA@ioSelfControlBuff@@8 DD FLAT:??_R0?AVioSelfControlBuff@@@8 ; ioSelfControlBuff::`RTTI Base Class Descriptor at (0,-1,0,64)'
	DD	01H
	DD	00H
	DD	0ffffffffH
	DD	00H
	DD	040H
	DD	FLAT:??_R3ioSelfControlBuff@@8
rdata$r	ENDS
;	COMDAT ??_R2ioSelfControlBuff@@8
rdata$r	SEGMENT
??_R2ioSelfControlBuff@@8 DD FLAT:??_R1A@?0A@EA@ioSelfControlBuff@@8 ; ioSelfControlBuff::`RTTI Base Class Array'
	DD	FLAT:??_R1A@?0A@EA@ioBuff@@8
rdata$r	ENDS
;	COMDAT ??_R3ioSelfControlBuff@@8
rdata$r	SEGMENT
??_R3ioSelfControlBuff@@8 DD 00H			; ioSelfControlBuff::`RTTI Class Hierarchy Descriptor'
	DD	00H
	DD	02H
	DD	FLAT:??_R2ioSelfControlBuff@@8
rdata$r	ENDS
;	COMDAT ??_R0?AVioSelfControlBuff@@@8
_DATA	SEGMENT
??_R0?AVioSelfControlBuff@@@8 DD FLAT:??_7type_info@@6B@ ; ioSelfControlBuff `RTTI Type Descriptor'
	DD	00H
	DB	'.?AVioSelfControlBuff@@', 00H
_DATA	ENDS
;	COMDAT ??_R4ioSelfControlBuff@@6B@
rdata$r	SEGMENT
??_R4ioSelfControlBuff@@6B@ DD 00H			; ioSelfControlBuff::`RTTI Complete Object Locator'
	DD	00H
	DD	00H
	DD	FLAT:??_R0?AVioSelfControlBuff@@@8
	DD	FLAT:??_R3ioSelfControlBuff@@8
rdata$r	ENDS
;	COMDAT ??_7ioSelfControlBuff@@6B@
CONST	SEGMENT
??_7ioSelfControlBuff@@6B@ DD FLAT:??_R4ioSelfControlBuff@@6B@ ; ioSelfControlBuff::`vftable'
	DD	FLAT:?LoadProperty@ioSelfControlBuff@@UAEXAAVioINILoader@@@Z
	DD	FLAT:?Clone@ioSelfControlBuff@@UAEPAVioBuff@@XZ
	DD	FLAT:?StartBuff@ioSelfControlBuff@@UAEXPAVioBaseChar@@@Z
	DD	FLAT:?StartBuffWithAniTime@ioBuff@@UAEXPAVioBaseChar@@K@Z
	DD	FLAT:?ApplyStartBuff@ioSelfControlBuff@@UAE_NPAVioBaseChar@@KK@Z
	DD	FLAT:?ProcessBuff@ioSelfControlBuff@@UAEXM@Z
	DD	FLAT:?EndBuff@ioSelfControlBuff@@UAEXXZ
	DD	FLAT:?CancelBuff@ioBuff@@UAEXXZ
	DD	FLAT:?GetBuffInfo@ioBuff@@UAEXAAVSP2Packet@@@Z
	DD	FLAT:?ApplyBuffInfo@ioBuff@@UAEXAAVSP2Packet@@@Z
	DD	FLAT:?AccumulateBuff@ioBuff@@UAEXXZ
	DD	FLAT:?IsLiveButStopped@ioBuff@@UBE_NXZ
	DD	FLAT:?IsCanJumpAttack@ioBuff@@UBE_NXZ
	DD	FLAT:?SetAction@ioBuff@@MAEXXZ
	DD	FLAT:?ProcessDelay@ioBuff@@MAEXM@Z
	DD	FLAT:?SetExtraDurationByGrowth@ioBuff@@UAEXM@Z
	DD	FLAT:?SetWeaponIndex@ioBuff@@UAEXK@Z
	DD	FLAT:?OnReduceGauge@ioBuff@@UBE_NXZ
	DD	FLAT:?IsCharCollisionSkip@ioBuff@@UBE_NXZ
	DD	FLAT:?IsCollisionAvailableWeapon@ioBuff@@UBE_NXZ
	DD	FLAT:?IsProtected@ioBuff@@UBE_NXZ
	DD	FLAT:?UseActiveCount@ioBuff@@UBE_NXZ
	DD	FLAT:?CheckActiveCount@ioBuff@@UAEXXZ
	DD	FLAT:?CheckRemoveEquipSkillBuff@ioBuff@@UAEX_N@Z
	DD	FLAT:?ApplyExtraBuffInfo@ioSelfControlBuff@@UAEXAAVSP2Packet@@@Z
	DD	FLAT:?SetBuffGrapplingState@ioBuff@@UAE_NPAVioBaseChar@@ABVioHashString@@@Z
	DD	FLAT:?GetGrapplingTargetPos@ioBuff@@UAE?AUD3DXVECTOR3@@PAVioBaseChar@@@Z
	DD	FLAT:?IsWaitSelfRemove@ioBuff@@UAE_NXZ
	DD	FLAT:??_EioSelfControlBuff@@UAEPAXI@Z
CONST	ENDS
;	COMDAT xdata$x
xdata$x	SEGMENT
__unwindtable$??0ioSelfControlBuff@@QAE@XZ DD 0ffffffffH
	DD	FLAT:__unwindfunclet$??0ioSelfControlBuff@@QAE@XZ$0
__ehfuncinfo$??0ioSelfControlBuff@@QAE@XZ DD 019930522H
	DD	01H
	DD	FLAT:__unwindtable$??0ioSelfControlBuff@@QAE@XZ
	DD	2 DUP(00H)
	DD	2 DUP(00H)
	DD	00H
	DD	01H
; Function compile flags: /Ogsp
xdata$x	ENDS
;	COMDAT ??0ioSelfControlBuff@@QAE@XZ
_TEXT	SEGMENT
_this$ = -16						; size = 4
__$EHRec$ = -12						; size = 12
??0ioSelfControlBuff@@QAE@XZ PROC			; ioSelfControlBuff::ioSelfControlBuff, COMDAT
; _this$ = ecx

; 10   : {

  00000	6a 04		 push	 4
  00002	b8 00 00 00 00	 mov	 eax, __ehhandler$??0ioSelfControlBuff@@QAE@XZ
  00007	e8 00 00 00 00	 call	 __EH_prolog3
  0000c	8b f1		 mov	 esi, ecx
  0000e	89 75 f0	 mov	 DWORD PTR _this$[ebp], esi
  00011	e8 00 00 00 00	 call	 ??0ioBuff@@QAE@XZ	; ioBuff::ioBuff
  00016	83 65 fc 00	 and	 DWORD PTR __$EHRec$[ebp+8], 0
  0001a	8d 8e 74 09 00
	00		 lea	 ecx, DWORD PTR [esi+2420]
  00020	c7 06 00 00 00
	00		 mov	 DWORD PTR [esi], OFFSET ??_7ioSelfControlBuff@@6B@
  00026	ff 15 00 00 00
	00		 call	 DWORD PTR __imp_??0ioHashString@@QAE@XZ

; 11   : 	m_State = SCS_NONE;

  0002c	83 a6 6c 09 00
	00 00		 and	 DWORD PTR [esi+2412], 0

; 12   : 	m_CurDirKey = ioUserKeyInput::DKI_NONE;
; 13   : 	m_fSkillTotalMoveAmount = 0.0f;

  00033	0f 57 c0	 xorps	 xmm0, xmm0
  00036	83 a6 88 09 00
	00 00		 and	 DWORD PTR [esi+2440], 0
  0003d	f3 0f 11 86 8c
	09 00 00	 movss	 DWORD PTR [esi+2444], xmm0

; 14   : }

  00045	8b c6		 mov	 eax, esi
  00047	e8 00 00 00 00	 call	 __EH_epilog3
  0004c	c3		 ret	 0
_TEXT	ENDS
;	COMDAT text$x
text$x	SEGMENT
__unwindfunclet$??0ioSelfControlBuff@@QAE@XZ$0:
  00000	8b 4d f0	 mov	 ecx, DWORD PTR _this$[ebp]
  00003	e9 00 00 00 00	 jmp	 ??1ioBuff@@UAE@XZ	; ioBuff::~ioBuff
__ehhandler$??0ioSelfControlBuff@@QAE@XZ:
  00008	8b 54 24 08	 mov	 edx, DWORD PTR [esp+8]
  0000c	8d 42 0c	 lea	 eax, DWORD PTR [edx+12]
  0000f	8b 4a ec	 mov	 ecx, DWORD PTR [edx-20]
  00012	33 c8		 xor	 ecx, eax
  00014	e8 00 00 00 00	 call	 @__security_check_cookie@4
  00019	b8 00 00 00 00	 mov	 eax, OFFSET __ehfuncinfo$??0ioSelfControlBuff@@QAE@XZ
  0001e	e9 00 00 00 00	 jmp	 ___CxxFrameHandler3
text$x	ENDS
??0ioSelfControlBuff@@QAE@XZ ENDP			; ioSelfControlBuff::ioSelfControlBuff
PUBLIC	??0ioSelfControlBuff@@QAE@ABV0@@Z		; ioSelfControlBuff::ioSelfControlBuff
EXTRN	__imp_??0ioHashString@@QAE@ABV0@@Z:PROC
EXTRN	??0ioBuff@@QAE@ABV0@@Z:PROC			; ioBuff::ioBuff
;	COMDAT xdata$x
xdata$x	SEGMENT
__unwindtable$??0ioSelfControlBuff@@QAE@ABV0@@Z DD 0ffffffffH
	DD	FLAT:__unwindfunclet$??0ioSelfControlBuff@@QAE@ABV0@@Z$0
__ehfuncinfo$??0ioSelfControlBuff@@QAE@ABV0@@Z DD 019930522H
	DD	01H
	DD	FLAT:__unwindtable$??0ioSelfControlBuff@@QAE@ABV0@@Z
	DD	2 DUP(00H)
	DD	2 DUP(00H)
	DD	00H
	DD	01H
; Function compile flags: /Ogsp
xdata$x	ENDS
;	COMDAT ??0ioSelfControlBuff@@QAE@ABV0@@Z
_TEXT	SEGMENT
_this$ = -16						; size = 4
__$EHRec$ = -12						; size = 12
_rhs$ = 8						; size = 4
??0ioSelfControlBuff@@QAE@ABV0@@Z PROC			; ioSelfControlBuff::ioSelfControlBuff, COMDAT
; _this$ = ecx

; 21   : {

  00000	6a 04		 push	 4
  00002	b8 00 00 00 00	 mov	 eax, __ehhandler$??0ioSelfControlBuff@@QAE@ABV0@@Z
  00007	e8 00 00 00 00	 call	 __EH_prolog3
  0000c	8b f1		 mov	 esi, ecx
  0000e	89 75 f0	 mov	 DWORD PTR _this$[ebp], esi
  00011	8b 7d 08	 mov	 edi, DWORD PTR _rhs$[ebp]
  00014	57		 push	 edi
  00015	e8 00 00 00 00	 call	 ??0ioBuff@@QAE@ABV0@@Z	; ioBuff::ioBuff
  0001a	83 65 fc 00	 and	 DWORD PTR __$EHRec$[ebp+8], 0
  0001e	c7 06 00 00 00
	00		 mov	 DWORD PTR [esi], OFFSET ??_7ioSelfControlBuff@@6B@
  00024	d9 87 70 09 00
	00		 fld	 DWORD PTR [edi+2416]
  0002a	8d 87 74 09 00
	00		 lea	 eax, DWORD PTR [edi+2420]
  00030	d9 9e 70 09 00
	00		 fstp	 DWORD PTR [esi+2416]
  00036	50		 push	 eax
  00037	8d 8e 74 09 00
	00		 lea	 ecx, DWORD PTR [esi+2420]
  0003d	ff 15 00 00 00
	00		 call	 DWORD PTR __imp_??0ioHashString@@QAE@ABV0@@Z
  00043	8b 87 84 09 00
	00		 mov	 eax, DWORD PTR [edi+2436]

; 22   : 	m_State = SCS_NONE;

  00049	83 a6 6c 09 00
	00 00		 and	 DWORD PTR [esi+2412], 0

; 23   : 	m_CurDirKey = ioUserKeyInput::DKI_NONE;
; 24   : 	m_fSkillTotalMoveAmount = 0.0f;

  00050	0f 57 c0	 xorps	 xmm0, xmm0
  00053	83 a6 88 09 00
	00 00		 and	 DWORD PTR [esi+2440], 0
  0005a	89 86 84 09 00
	00		 mov	 DWORD PTR [esi+2436], eax
  00060	f3 0f 11 86 8c
	09 00 00	 movss	 DWORD PTR [esi+2444], xmm0

; 25   : }

  00068	8b c6		 mov	 eax, esi
  0006a	e8 00 00 00 00	 call	 __EH_epilog3
  0006f	c2 04 00	 ret	 4
_TEXT	ENDS
;	COMDAT text$x
text$x	SEGMENT
__unwindfunclet$??0ioSelfControlBuff@@QAE@ABV0@@Z$0:
  00000	8b 4d f0	 mov	 ecx, DWORD PTR _this$[ebp]
  00003	e9 00 00 00 00	 jmp	 ??1ioBuff@@UAE@XZ	; ioBuff::~ioBuff
__ehhandler$??0ioSelfControlBuff@@QAE@ABV0@@Z:
  00008	8b 54 24 08	 mov	 edx, DWORD PTR [esp+8]
  0000c	8d 42 0c	 lea	 eax, DWORD PTR [edx+12]
  0000f	8b 4a ec	 mov	 ecx, DWORD PTR [edx-20]
  00012	33 c8		 xor	 ecx, eax
  00014	e8 00 00 00 00	 call	 @__security_check_cookie@4
  00019	b8 00 00 00 00	 mov	 eax, OFFSET __ehfuncinfo$??0ioSelfControlBuff@@QAE@ABV0@@Z
  0001e	e9 00 00 00 00	 jmp	 ___CxxFrameHandler3
text$x	ENDS
??0ioSelfControlBuff@@QAE@ABV0@@Z ENDP			; ioSelfControlBuff::ioSelfControlBuff
PUBLIC	??1ioSelfControlBuff@@UAE@XZ			; ioSelfControlBuff::~ioSelfControlBuff
EXTRN	__imp_??1ioHashString@@QAE@XZ:PROC
;	COMDAT xdata$x
xdata$x	SEGMENT
__unwindtable$??1ioSelfControlBuff@@UAE@XZ DD 0ffffffffH
	DD	FLAT:__unwindfunclet$??1ioSelfControlBuff@@UAE@XZ$0
__ehfuncinfo$??1ioSelfControlBuff@@UAE@XZ DD 019930522H
	DD	01H
	DD	FLAT:__unwindtable$??1ioSelfControlBuff@@UAE@XZ
	DD	2 DUP(00H)
	DD	2 DUP(00H)
	DD	00H
	DD	01H
; Function compile flags: /Ogsp
xdata$x	ENDS
;	COMDAT ??1ioSelfControlBuff@@UAE@XZ
_TEXT	SEGMENT
_this$ = -16						; size = 4
__$EHRec$ = -12						; size = 12
??1ioSelfControlBuff@@UAE@XZ PROC			; ioSelfControlBuff::~ioSelfControlBuff, COMDAT
; _this$ = ecx

; 28   : {

  00000	6a 04		 push	 4
  00002	b8 00 00 00 00	 mov	 eax, __ehhandler$??1ioSelfControlBuff@@UAE@XZ
  00007	e8 00 00 00 00	 call	 __EH_prolog3
  0000c	8b f1		 mov	 esi, ecx
  0000e	89 75 f0	 mov	 DWORD PTR _this$[ebp], esi
  00011	c7 06 00 00 00
	00		 mov	 DWORD PTR [esi], OFFSET ??_7ioSelfControlBuff@@6B@
  00017	83 65 fc 00	 and	 DWORD PTR __$EHRec$[ebp+8], 0

; 29   : }

  0001b	8d 8e 74 09 00
	00		 lea	 ecx, DWORD PTR [esi+2420]
  00021	ff 15 00 00 00
	00		 call	 DWORD PTR __imp_??1ioHashString@@QAE@XZ
  00027	83 4d fc ff	 or	 DWORD PTR __$EHRec$[ebp+8], -1
  0002b	8b ce		 mov	 ecx, esi
  0002d	e8 00 00 00 00	 call	 ??1ioBuff@@UAE@XZ	; ioBuff::~ioBuff
  00032	e8 00 00 00 00	 call	 __EH_epilog3
  00037	c3		 ret	 0
_TEXT	ENDS
;	COMDAT text$x
text$x	SEGMENT
__unwindfunclet$??1ioSelfControlBuff@@UAE@XZ$0:
  00000	8b 4d f0	 mov	 ecx, DWORD PTR _this$[ebp]
  00003	e9 00 00 00 00	 jmp	 ??1ioBuff@@UAE@XZ	; ioBuff::~ioBuff
__ehhandler$??1ioSelfControlBuff@@UAE@XZ:
  00008	8b 54 24 08	 mov	 edx, DWORD PTR [esp+8]
  0000c	8d 42 0c	 lea	 eax, DWORD PTR [edx+12]
  0000f	8b 4a ec	 mov	 ecx, DWORD PTR [edx-20]
  00012	33 c8		 xor	 ecx, eax
  00014	e8 00 00 00 00	 call	 @__security_check_cookie@4
  00019	b8 00 00 00 00	 mov	 eax, OFFSET __ehfuncinfo$??1ioSelfControlBuff@@UAE@XZ
  0001e	e9 00 00 00 00	 jmp	 ___CxxFrameHandler3
text$x	ENDS
??1ioSelfControlBuff@@UAE@XZ ENDP			; ioSelfControlBuff::~ioSelfControlBuff
EXTRN	??2@YAPAXI@Z:PROC				; operator new
;	COMDAT xdata$x
xdata$x	SEGMENT
__unwindtable$?Clone@ioSelfControlBuff@@UAEPAVioBuff@@XZ DD 0ffffffffH
	DD	FLAT:__unwindfunclet$?Clone@ioSelfControlBuff@@UAEPAVioBuff@@XZ$0
__ehfuncinfo$?Clone@ioSelfControlBuff@@UAEPAVioBuff@@XZ DD 019930522H
	DD	01H
	DD	FLAT:__unwindtable$?Clone@ioSelfControlBuff@@UAEPAVioBuff@@XZ
	DD	2 DUP(00H)
	DD	2 DUP(00H)
	DD	00H
	DD	01H
; Function compile flags: /Ogsp
xdata$x	ENDS
;	COMDAT ?Clone@ioSelfControlBuff@@UAEPAVioBuff@@XZ
_TEXT	SEGMENT
$T543576 = -16						; size = 4
__$EHRec$ = -12						; size = 12
?Clone@ioSelfControlBuff@@UAEPAVioBuff@@XZ PROC		; ioSelfControlBuff::Clone, COMDAT
; _this$ = ecx

; 45   : {

  00000	6a 04		 push	 4
  00002	b8 00 00 00 00	 mov	 eax, __ehhandler$?Clone@ioSelfControlBuff@@UAEPAVioBuff@@XZ
  00007	e8 00 00 00 00	 call	 __EH_prolog3
  0000c	8b f1		 mov	 esi, ecx

; 46   : 	return new ioSelfControlBuff( *this );

  0000e	68 94 09 00 00	 push	 2452			; 00000994H
  00013	e8 00 00 00 00	 call	 ??2@YAPAXI@Z		; operator new
  00018	59		 pop	 ecx
  00019	8b c8		 mov	 ecx, eax
  0001b	89 4d f0	 mov	 DWORD PTR $T543576[ebp], ecx
  0001e	33 c0		 xor	 eax, eax
  00020	89 45 fc	 mov	 DWORD PTR __$EHRec$[ebp+8], eax
  00023	3b c8		 cmp	 ecx, eax
  00025	74 06		 je	 SHORT $LN3@Clone
  00027	56		 push	 esi
  00028	e8 00 00 00 00	 call	 ??0ioSelfControlBuff@@QAE@ABV0@@Z ; ioSelfControlBuff::ioSelfControlBuff
$LN3@Clone:

; 47   : }

  0002d	e8 00 00 00 00	 call	 __EH_epilog3
  00032	c3		 ret	 0
_TEXT	ENDS
;	COMDAT text$x
text$x	SEGMENT
__unwindfunclet$?Clone@ioSelfControlBuff@@UAEPAVioBuff@@XZ$0:
  00000	ff 75 f0	 push	 DWORD PTR $T543576[ebp]
  00003	e8 00 00 00 00	 call	 ??3@YAXPAX@Z		; operator delete
  00008	59		 pop	 ecx
  00009	c3		 ret	 0
__ehhandler$?Clone@ioSelfControlBuff@@UAEPAVioBuff@@XZ:
  0000a	8b 54 24 08	 mov	 edx, DWORD PTR [esp+8]
  0000e	8d 42 0c	 lea	 eax, DWORD PTR [edx+12]
  00011	8b 4a ec	 mov	 ecx, DWORD PTR [edx-20]
  00014	33 c8		 xor	 ecx, eax
  00016	e8 00 00 00 00	 call	 @__security_check_cookie@4
  0001b	b8 00 00 00 00	 mov	 eax, OFFSET __ehfuncinfo$?Clone@ioSelfControlBuff@@UAEPAVioBuff@@XZ
  00020	e9 00 00 00 00	 jmp	 ___CxxFrameHandler3
text$x	ENDS
?Clone@ioSelfControlBuff@@UAEPAVioBuff@@XZ ENDP		; ioSelfControlBuff::Clone
PUBLIC	?empty@?$vector@UCallAttribute@@V?$allocator@UCallAttribute@@@std@@@std@@QBE_NXZ ; std::vector<CallAttribute,std::allocator<CallAttribute> >::empty
; Function compile flags: /Ogsp
; File c:\program files (x86)\microsoft visual studio 10.0\vc\include\vector
;	COMDAT ?empty@?$vector@UCallAttribute@@V?$allocator@UCallAttribute@@@std@@@std@@QBE_NXZ
_TEXT	SEGMENT
?empty@?$vector@UCallAttribute@@V?$allocator@UCallAttribute@@@std@@@std@@QBE_NXZ PROC ; std::vector<CallAttribute,std::allocator<CallAttribute> >::empty, COMDAT
; _this$ = ecx

; 889  : 		return (this->_Myfirst == this->_Mylast);

  00000	8b 01		 mov	 eax, DWORD PTR [ecx]
  00002	2b 41 04	 sub	 eax, DWORD PTR [ecx+4]
  00005	f7 d8		 neg	 eax
  00007	1b c0		 sbb	 eax, eax
  00009	40		 inc	 eax

; 890  : 		}

  0000a	c3		 ret	 0
?empty@?$vector@UCallAttribute@@V?$allocator@UCallAttribute@@@std@@@std@@QBE_NXZ ENDP ; std::vector<CallAttribute,std::allocator<CallAttribute> >::empty
_TEXT	ENDS
PUBLIC	??A?$vector@UCallAttribute@@V?$allocator@UCallAttribute@@@std@@@std@@QAEAAUCallAttribute@@I@Z ; std::vector<CallAttribute,std::allocator<CallAttribute> >::operator[]
; Function compile flags: /Ogsp
;	COMDAT ??A?$vector@UCallAttribute@@V?$allocator@UCallAttribute@@@std@@@std@@QAEAAUCallAttribute@@I@Z
_TEXT	SEGMENT
__Pos$ = 8						; size = 4
??A?$vector@UCallAttribute@@V?$allocator@UCallAttribute@@@std@@@std@@QAEAAUCallAttribute@@I@Z PROC ; std::vector<CallAttribute,std::allocator<CallAttribute> >::operator[], COMDAT
; _this$ = ecx

; 928  : 		{	// subscript mutable sequence

  00000	55		 push	 ebp
  00001	8b ec		 mov	 ebp, esp

; 929  :  #if _ITERATOR_DEBUG_LEVEL == 2
; 930  : 		if (size() <= _Pos)
; 931  : 			{	// report error
; 932  : 			_DEBUG_ERROR("vector subscript out of range");
; 933  : 			_SCL_SECURE_OUT_OF_RANGE;
; 934  : 			}
; 935  : 
; 936  :  #elif _ITERATOR_DEBUG_LEVEL == 1
; 937  : 		_SCL_SECURE_VALIDATE_RANGE(_Pos < size());
; 938  :  #endif /* _ITERATOR_DEBUG_LEVEL */
; 939  : 
; 940  : 		return (*(this->_Myfirst + _Pos));

  00003	8b 45 08	 mov	 eax, DWORD PTR __Pos$[ebp]
  00006	c1 e0 06	 shl	 eax, 6
  00009	03 01		 add	 eax, DWORD PTR [ecx]

; 941  : 		}

  0000b	5d		 pop	 ebp
  0000c	c2 04 00	 ret	 4
??A?$vector@UCallAttribute@@V?$allocator@UCallAttribute@@@std@@@std@@QAEAAUCallAttribute@@I@Z ENDP ; std::vector<CallAttribute,std::allocator<CallAttribute> >::operator[]
_TEXT	ENDS
PUBLIC	?_Inside@?$vector@HV?$allocator@H@std@@@std@@IBE_NPBH@Z ; std::vector<int,std::allocator<int> >::_Inside
; Function compile flags: /Ogsp
;	COMDAT ?_Inside@?$vector@HV?$allocator@H@std@@@std@@IBE_NPBH@Z
_TEXT	SEGMENT
__Ptr$ = 8						; size = 4
?_Inside@?$vector@HV?$allocator@H@std@@@std@@IBE_NPBH@Z PROC ; std::vector<int,std::allocator<int> >::_Inside, COMDAT
; _this$ = ecx

; 1285 : 		{	// test if _Ptr points inside vector

  00000	55		 push	 ebp
  00001	8b ec		 mov	 ebp, esp

; 1286 : 		return (_Ptr < this->_Mylast && this->_Myfirst <= _Ptr);

  00003	8b 45 08	 mov	 eax, DWORD PTR __Ptr$[ebp]
  00006	3b 41 04	 cmp	 eax, DWORD PTR [ecx+4]
  00009	73 09		 jae	 SHORT $LN3@Inside
  0000b	39 01		 cmp	 DWORD PTR [ecx], eax
  0000d	77 05		 ja	 SHORT $LN3@Inside
  0000f	33 c0		 xor	 eax, eax
  00011	40		 inc	 eax
  00012	eb 02		 jmp	 SHORT $LN4@Inside
$LN3@Inside:
  00014	33 c0		 xor	 eax, eax
$LN4@Inside:

; 1287 : 		}

  00016	5d		 pop	 ebp
  00017	c2 04 00	 ret	 4
?_Inside@?$vector@HV?$allocator@H@std@@@std@@IBE_NPBH@Z ENDP ; std::vector<int,std::allocator<int> >::_Inside
_TEXT	ENDS
PUBLIC	?_Orphan_range@?$vector@HV?$allocator@H@std@@@std@@IBEXPAH0@Z ; std::vector<int,std::allocator<int> >::_Orphan_range
; Function compile flags: /Ogsp
;	COMDAT ?_Orphan_range@?$vector@HV?$allocator@H@std@@@std@@IBEXPAH0@Z
_TEXT	SEGMENT
___formal$ = 8						; size = 4
___formal$ = 12						; size = 4
?_Orphan_range@?$vector@HV?$allocator@H@std@@@std@@IBEXPAH0@Z PROC ; std::vector<int,std::allocator<int> >::_Orphan_range, COMDAT
; _this$ = ecx

; 1454 : 		}

  00000	c2 08 00	 ret	 8
?_Orphan_range@?$vector@HV?$allocator@H@std@@@std@@IBEXPAH0@Z ENDP ; std::vector<int,std::allocator<int> >::_Orphan_range
_TEXT	ENDS
PUBLIC	??0?$_Vector_const_iterator@V?$_Vector_val@UCallAttribute@@V?$allocator@UCallAttribute@@@std@@@std@@@std@@QAE@PAUCallAttribute@@PBU_Container_base0@1@@Z ; std::_Vector_const_iterator<std::_Vector_val<CallAttribute,std::allocator<CallAttribute> > >::_Vector_const_iterator<std::_Vector_val<CallAttribute,std::allocator<CallAttribute> > >
; Function compile flags: /Ogsp
;	COMDAT ??0?$_Vector_const_iterator@V?$_Vector_val@UCallAttribute@@V?$allocator@UCallAttribute@@@std@@@std@@@std@@QAE@PAUCallAttribute@@PBU_Container_base0@1@@Z
_TEXT	SEGMENT
__Parg$ = 8						; size = 4
__Pvector$ = 12						; size = 4
??0?$_Vector_const_iterator@V?$_Vector_val@UCallAttribute@@V?$allocator@UCallAttribute@@@std@@@std@@@std@@QAE@PAUCallAttribute@@PBU_Container_base0@1@@Z PROC ; std::_Vector_const_iterator<std::_Vector_val<CallAttribute,std::allocator<CallAttribute> > >::_Vector_const_iterator<std::_Vector_val<CallAttribute,std::allocator<CallAttribute> > >, COMDAT
; _this$ = ecx

; 45   : 		{	// construct with pointer _Parg

  00000	55		 push	 ebp
  00001	8b ec		 mov	 ebp, esp
  00003	8b c1		 mov	 eax, ecx
  00005	8b 4d 08	 mov	 ecx, DWORD PTR __Parg$[ebp]
  00008	89 08		 mov	 DWORD PTR [eax], ecx

; 46   : 		this->_Adopt(_Pvector);
; 47   : 		}

  0000a	5d		 pop	 ebp
  0000b	c2 08 00	 ret	 8
??0?$_Vector_const_iterator@V?$_Vector_val@UCallAttribute@@V?$allocator@UCallAttribute@@@std@@@std@@@std@@QAE@PAUCallAttribute@@PBU_Container_base0@1@@Z ENDP ; std::_Vector_const_iterator<std::_Vector_val<CallAttribute,std::allocator<CallAttribute> > >::_Vector_const_iterator<std::_Vector_val<CallAttribute,std::allocator<CallAttribute> > >
_TEXT	ENDS
PUBLIC	__real@3f91df46a2526c7a
PUBLIC	??$DEGtoRAD@M@@YAMM@Z				; DEGtoRAD<float>
;	COMDAT __real@3f91df46a2526c7a
; File d:\lost saga for developer\youtube\tutorial\source\src\lsclient\veryoftenusedefine.h
CONST	SEGMENT
__real@3f91df46a2526c7a DQ 03f91df46a2526c7ar	; 0.0174533
; Function compile flags: /Ogsp
CONST	ENDS
;	COMDAT ??$DEGtoRAD@M@@YAMM@Z
_TEXT	SEGMENT
tv129 = 8						; size = 4
_val$ = 8						; size = 4
??$DEGtoRAD@M@@YAMM@Z PROC				; DEGtoRAD<float>, COMDAT

; 20   : type  DEGtoRAD (type val) {return (type) (val * 0.0174532925199);}

  00000	55		 push	 ebp
  00001	8b ec		 mov	 ebp, esp
  00003	d9 45 08	 fld	 DWORD PTR _val$[ebp]
  00006	dc 0d 00 00 00
	00		 fmul	 QWORD PTR __real@3f91df46a2526c7a
  0000c	d9 5d 08	 fstp	 DWORD PTR tv129[ebp]
  0000f	d9 45 08	 fld	 DWORD PTR tv129[ebp]
  00012	5d		 pop	 ebp
  00013	c3		 ret	 0
??$DEGtoRAD@M@@YAMM@Z ENDP				; DEGtoRAD<float>
_TEXT	ENDS
PUBLIC	??$addressof@$$CBH@std@@YAPBHABH@Z		; std::addressof<int const >
; Function compile flags: /Ogsp
; File c:\program files (x86)\microsoft visual studio 10.0\vc\include\xmemory
;	COMDAT ??$addressof@$$CBH@std@@YAPBHABH@Z
_TEXT	SEGMENT
__Val$ = 8						; size = 4
??$addressof@$$CBH@std@@YAPBHABH@Z PROC			; std::addressof<int const >, COMDAT

; 110  : 	{	// return address of _Val

  00000	55		 push	 ebp
  00001	8b ec		 mov	 ebp, esp

; 111  : 	return ((_Ty *) &(char&)_Val);

  00003	8b 45 08	 mov	 eax, DWORD PTR __Val$[ebp]

; 112  : 	}

  00006	5d		 pop	 ebp
  00007	c3		 ret	 0
??$addressof@$$CBH@std@@YAPBHABH@Z ENDP			; std::addressof<int const >
_TEXT	ENDS
PUBLIC	??$forward@ABH@std@@YAABHABH@Z			; std::forward<int const &>
; Function compile flags: /Ogsp
; File c:\program files (x86)\microsoft visual studio 10.0\vc\include\utility
;	COMDAT ??$forward@ABH@std@@YAABHABH@Z
_TEXT	SEGMENT
__Arg$ = 8						; size = 4
??$forward@ABH@std@@YAABHABH@Z PROC			; std::forward<int const &>, COMDAT

; 78   : 	{	// forward _Arg, given explicitly specified type parameter

  00000	55		 push	 ebp
  00001	8b ec		 mov	 ebp, esp

; 79   : 	return ((_Ty&&)_Arg);

  00003	8b 45 08	 mov	 eax, DWORD PTR __Arg$[ebp]

; 80   : 	}

  00006	5d		 pop	 ebp
  00007	c3		 ret	 0
??$forward@ABH@std@@YAABHABH@Z ENDP			; std::forward<int const &>
_TEXT	ENDS
PUBLIC	??$_Ptr_cat@UCallAttribute@@U1@@std@@YA?AU_Nonscalar_ptr_iterator_tag@0@PAUCallAttribute@@0@Z ; std::_Ptr_cat<CallAttribute,CallAttribute>
; Function compile flags: /Ogsp
; File c:\program files (x86)\microsoft visual studio 10.0\vc\include\xutility
;	COMDAT ??$_Ptr_cat@UCallAttribute@@U1@@std@@YA?AU_Nonscalar_ptr_iterator_tag@0@PAUCallAttribute@@0@Z
_TEXT	SEGMENT
__Cat$ = -1						; size = 1
___formal$ = 8						; size = 4
___formal$ = 12						; size = 4
??$_Ptr_cat@UCallAttribute@@U1@@std@@YA?AU_Nonscalar_ptr_iterator_tag@0@PAUCallAttribute@@0@Z PROC ; std::_Ptr_cat<CallAttribute,CallAttribute>, COMDAT

; 516  : 	{	// return pointer category from pointers

  00000	55		 push	 ebp
  00001	8b ec		 mov	 ebp, esp
  00003	51		 push	 ecx

; 517  : 	typename _Ptr_cat_helper<_Elem1, _Elem2>::_Type _Cat;
; 518  : 	return (_Cat);

  00004	8a 45 ff	 mov	 al, BYTE PTR __Cat$[ebp]

; 519  : 	}

  00007	c9		 leave
  00008	c3		 ret	 0
??$_Ptr_cat@UCallAttribute@@U1@@std@@YA?AU_Nonscalar_ptr_iterator_tag@0@PAUCallAttribute@@0@Z ENDP ; std::_Ptr_cat<CallAttribute,CallAttribute>
_TEXT	ENDS
PUBLIC	??$_Construct@HABH@std@@YAXPAHABH@Z		; std::_Construct<int,int const &>
; Function compile flags: /Ogsp
; File c:\program files (x86)\microsoft visual studio 10.0\vc\include\xmemory
;	COMDAT ??$_Construct@HABH@std@@YAXPAHABH@Z
_TEXT	SEGMENT
__Ptr$ = 8						; size = 4
__Val$ = 12						; size = 4
??$_Construct@HABH@std@@YAXPAHABH@Z PROC		; std::_Construct<int,int const &>, COMDAT

; 46   : 	{	// construct object at _Ptr with value _Val

  00000	55		 push	 ebp
  00001	8b ec		 mov	 ebp, esp

; 47   : 	void _FARQ *_Vptr = _Ptr;
; 48   : 	::new (_Vptr) _Ty1(_STD forward<_Ty2>(_Val));

  00003	8b 45 08	 mov	 eax, DWORD PTR __Ptr$[ebp]
  00006	85 c0		 test	 eax, eax
  00008	74 07		 je	 SHORT $LN3@Construct
  0000a	8b 4d 0c	 mov	 ecx, DWORD PTR __Val$[ebp]
  0000d	8b 09		 mov	 ecx, DWORD PTR [ecx]
  0000f	89 08		 mov	 DWORD PTR [eax], ecx
$LN3@Construct:

; 49   : 	}

  00011	5d		 pop	 ebp
  00012	c3		 ret	 0
??$_Construct@HABH@std@@YAXPAHABH@Z ENDP		; std::_Construct<int,int const &>
_TEXT	ENDS
PUBLIC	??$move@AAUCallAttribute@@@std@@YA$$QAUCallAttribute@@AAU1@@Z ; std::move<CallAttribute &>
; Function compile flags: /Ogsp
; File c:\program files (x86)\microsoft visual studio 10.0\vc\include\utility
;	COMDAT ??$move@AAUCallAttribute@@@std@@YA$$QAUCallAttribute@@AAU1@@Z
_TEXT	SEGMENT
__Arg$ = 8						; size = 4
??$move@AAUCallAttribute@@@std@@YA$$QAUCallAttribute@@AAU1@@Z PROC ; std::move<CallAttribute &>, COMDAT

; 86   : 	{	// forward _Arg as movable

  00000	55		 push	 ebp
  00001	8b ec		 mov	 ebp, esp

; 87   : 	return ((typename tr1::_Remove_reference<_Ty>::_Type&&)_Arg);

  00003	8b 45 08	 mov	 eax, DWORD PTR __Arg$[ebp]

; 88   : 	}

  00006	5d		 pop	 ebp
  00007	c3		 ret	 0
??$move@AAUCallAttribute@@@std@@YA$$QAUCallAttribute@@AAU1@@Z ENDP ; std::move<CallAttribute &>
_TEXT	ENDS
PUBLIC	??0D3DXVECTOR3@@QAE@XZ				; D3DXVECTOR3::D3DXVECTOR3
; Function compile flags: /Ogsp
; File c:\program files (x86)\microsoft directx sdk (june 2010)\include\d3dx9math.h
;	COMDAT ??0D3DXVECTOR3@@QAE@XZ
_TEXT	SEGMENT
??0D3DXVECTOR3@@QAE@XZ PROC				; D3DXVECTOR3::D3DXVECTOR3, COMDAT
; _this$ = ecx

; 165  :     D3DXVECTOR3() {};

  00000	8b c1		 mov	 eax, ecx
  00002	c3		 ret	 0
??0D3DXVECTOR3@@QAE@XZ ENDP				; D3DXVECTOR3::D3DXVECTOR3
_TEXT	ENDS
PUBLIC	??0D3DXQUATERNION@@QAE@XZ			; D3DXQUATERNION::D3DXQUATERNION
; Function compile flags: /Ogsp
;	COMDAT ??0D3DXQUATERNION@@QAE@XZ
_TEXT	SEGMENT
??0D3DXQUATERNION@@QAE@XZ PROC				; D3DXQUATERNION::D3DXQUATERNION, COMDAT
; _this$ = ecx

; 429  :     D3DXQUATERNION() {}

  00000	8b c1		 mov	 eax, ecx
  00002	c3		 ret	 0
??0D3DXQUATERNION@@QAE@XZ ENDP				; D3DXQUATERNION::D3DXQUATERNION
_TEXT	ENDS
PUBLIC	??0D3DXVECTOR3@@QAE@MMM@Z			; D3DXVECTOR3::D3DXVECTOR3
; Function compile flags: /Ogsp
; File c:\program files (x86)\microsoft directx sdk (june 2010)\include\d3dx9math.inl
;	COMDAT ??0D3DXVECTOR3@@QAE@MMM@Z
_TEXT	SEGMENT
_fx$ = 8						; size = 4
_fy$ = 12						; size = 4
_fz$ = 16						; size = 4
??0D3DXVECTOR3@@QAE@MMM@Z PROC				; D3DXVECTOR3::D3DXVECTOR3, COMDAT
; _this$ = ecx

; 303  : {

  00000	55		 push	 ebp
  00001	8b ec		 mov	 ebp, esp

; 304  :     x = fx;

  00003	f3 0f 10 45 08	 movss	 xmm0, DWORD PTR _fx$[ebp]
  00008	8b c1		 mov	 eax, ecx
  0000a	f3 0f 11 00	 movss	 DWORD PTR [eax], xmm0

; 305  :     y = fy;

  0000e	f3 0f 10 45 0c	 movss	 xmm0, DWORD PTR _fy$[ebp]
  00013	f3 0f 11 40 04	 movss	 DWORD PTR [eax+4], xmm0

; 306  :     z = fz;

  00018	f3 0f 10 45 10	 movss	 xmm0, DWORD PTR _fz$[ebp]
  0001d	f3 0f 11 40 08	 movss	 DWORD PTR [eax+8], xmm0

; 307  : }

  00022	5d		 pop	 ebp
  00023	c2 0c 00	 ret	 12			; 0000000cH
??0D3DXVECTOR3@@QAE@MMM@Z ENDP				; D3DXVECTOR3::D3DXVECTOR3
_TEXT	ENDS
PUBLIC	??YD3DXVECTOR3@@QAEAAU0@ABU0@@Z			; D3DXVECTOR3::operator+=
; Function compile flags: /Ogsp
;	COMDAT ??YD3DXVECTOR3@@QAEAAU0@ABU0@@Z
_TEXT	SEGMENT
_v$ = 8							; size = 4
??YD3DXVECTOR3@@QAEAAU0@ABU0@@Z PROC			; D3DXVECTOR3::operator+=, COMDAT
; _this$ = ecx

; 327  : {

  00000	55		 push	 ebp
  00001	8b ec		 mov	 ebp, esp
  00003	8b c1		 mov	 eax, ecx

; 328  :     x += v.x;

  00005	8b 4d 08	 mov	 ecx, DWORD PTR _v$[ebp]
  00008	f3 0f 10 01	 movss	 xmm0, DWORD PTR [ecx]
  0000c	f3 0f 10 08	 movss	 xmm1, DWORD PTR [eax]
  00010	0f 5a c0	 cvtps2pd xmm0, xmm0
  00013	0f 5a c9	 cvtps2pd xmm1, xmm1
  00016	f2 0f 58 c1	 addsd	 xmm0, xmm1

; 329  :     y += v.y;

  0001a	f3 0f 10 48 04	 movss	 xmm1, DWORD PTR [eax+4]
  0001f	66 0f 5a c0	 cvtpd2ps xmm0, xmm0
  00023	f3 0f 11 00	 movss	 DWORD PTR [eax], xmm0
  00027	f3 0f 10 41 04	 movss	 xmm0, DWORD PTR [ecx+4]
  0002c	0f 5a c0	 cvtps2pd xmm0, xmm0
  0002f	0f 5a c9	 cvtps2pd xmm1, xmm1
  00032	f2 0f 58 c1	 addsd	 xmm0, xmm1

; 330  :     z += v.z;

  00036	f3 0f 10 48 08	 movss	 xmm1, DWORD PTR [eax+8]
  0003b	66 0f 5a c0	 cvtpd2ps xmm0, xmm0
  0003f	f3 0f 11 40 04	 movss	 DWORD PTR [eax+4], xmm0
  00044	f3 0f 10 41 08	 movss	 xmm0, DWORD PTR [ecx+8]
  00049	0f 5a c0	 cvtps2pd xmm0, xmm0
  0004c	0f 5a c9	 cvtps2pd xmm1, xmm1
  0004f	f2 0f 58 c1	 addsd	 xmm0, xmm1
  00053	66 0f 5a c0	 cvtpd2ps xmm0, xmm0
  00057	f3 0f 11 40 08	 movss	 DWORD PTR [eax+8], xmm0

; 331  :     return *this;
; 332  : }

  0005c	5d		 pop	 ebp
  0005d	c2 04 00	 ret	 4
??YD3DXVECTOR3@@QAEAAU0@ABU0@@Z ENDP			; D3DXVECTOR3::operator+=
_TEXT	ENDS
PUBLIC	__mask@@NegFloat@
PUBLIC	??GD3DXVECTOR3@@QBE?AU0@XZ			; D3DXVECTOR3::operator-
;	COMDAT __mask@@NegFloat@
CONST	SEGMENT
__mask@@NegFloat@ DB 00H, 00H, 00H, 080H, 00H, 00H, 00H, 080H, 00H, 00H, 00H
	DB	080H, 00H, 00H, 00H, 080H
; Function compile flags: /Ogsp
CONST	ENDS
;	COMDAT ??GD3DXVECTOR3@@QBE?AU0@XZ
_TEXT	SEGMENT
___$ReturnUdt$ = 8					; size = 4
??GD3DXVECTOR3@@QBE?AU0@XZ PROC				; D3DXVECTOR3::operator-, COMDAT
; _this$ = ecx

; 372  : {

  00000	55		 push	 ebp
  00001	8b ec		 mov	 ebp, esp

; 373  :     return D3DXVECTOR3(-x, -y, -z);

  00003	f3 0f 10 05 00
	00 00 00	 movss	 xmm0, DWORD PTR __mask@@NegFloat@
  0000b	8b 45 08	 mov	 eax, DWORD PTR ___$ReturnUdt$[ebp]
  0000e	f3 0f 10 09	 movss	 xmm1, DWORD PTR [ecx]
  00012	0f 57 c8	 xorps	 xmm1, xmm0
  00015	f3 0f 11 08	 movss	 DWORD PTR [eax], xmm1
  00019	f3 0f 10 49 04	 movss	 xmm1, DWORD PTR [ecx+4]
  0001e	0f 57 c8	 xorps	 xmm1, xmm0
  00021	f3 0f 11 48 04	 movss	 DWORD PTR [eax+4], xmm1
  00026	f3 0f 10 49 08	 movss	 xmm1, DWORD PTR [ecx+8]
  0002b	0f 57 c8	 xorps	 xmm1, xmm0
  0002e	f3 0f 11 48 08	 movss	 DWORD PTR [eax+8], xmm1

; 374  : }

  00033	5d		 pop	 ebp
  00034	c2 04 00	 ret	 4
??GD3DXVECTOR3@@QBE?AU0@XZ ENDP				; D3DXVECTOR3::operator-
_TEXT	ENDS
PUBLIC	??DD3DXVECTOR3@@QBE?AU0@M@Z			; D3DXVECTOR3::operator*
; Function compile flags: /Ogsp
;	COMDAT ??DD3DXVECTOR3@@QBE?AU0@M@Z
_TEXT	SEGMENT
___$ReturnUdt$ = 8					; size = 4
_f$ = 12						; size = 4
??DD3DXVECTOR3@@QBE?AU0@M@Z PROC			; D3DXVECTOR3::operator*, COMDAT
; _this$ = ecx

; 392  : {

  00000	55		 push	 ebp
  00001	8b ec		 mov	 ebp, esp

; 393  :     return D3DXVECTOR3(x * f, y * f, z * f);

  00003	f3 0f 10 4d 0c	 movss	 xmm1, DWORD PTR _f$[ebp]
  00008	f3 0f 10 01	 movss	 xmm0, DWORD PTR [ecx]
  0000c	8b 45 08	 mov	 eax, DWORD PTR ___$ReturnUdt$[ebp]
  0000f	0f 5a c0	 cvtps2pd xmm0, xmm0
  00012	0f 5a c9	 cvtps2pd xmm1, xmm1
  00015	f2 0f 59 c1	 mulsd	 xmm0, xmm1
  00019	f3 0f 10 4d 0c	 movss	 xmm1, DWORD PTR _f$[ebp]
  0001e	66 0f 5a c0	 cvtpd2ps xmm0, xmm0
  00022	f3 0f 11 00	 movss	 DWORD PTR [eax], xmm0
  00026	f3 0f 10 41 04	 movss	 xmm0, DWORD PTR [ecx+4]
  0002b	0f 5a c0	 cvtps2pd xmm0, xmm0
  0002e	0f 5a c9	 cvtps2pd xmm1, xmm1
  00031	f2 0f 59 c1	 mulsd	 xmm0, xmm1
  00035	f3 0f 10 4d 0c	 movss	 xmm1, DWORD PTR _f$[ebp]
  0003a	66 0f 5a c0	 cvtpd2ps xmm0, xmm0
  0003e	f3 0f 11 40 04	 movss	 DWORD PTR [eax+4], xmm0
  00043	f3 0f 10 41 08	 movss	 xmm0, DWORD PTR [ecx+8]
  00048	0f 5a c0	 cvtps2pd xmm0, xmm0
  0004b	0f 5a c9	 cvtps2pd xmm1, xmm1
  0004e	f2 0f 59 c1	 mulsd	 xmm0, xmm1
  00052	66 0f 5a c0	 cvtpd2ps xmm0, xmm0
  00056	f3 0f 11 40 08	 movss	 DWORD PTR [eax+8], xmm0

; 394  : }

  0005b	5d		 pop	 ebp
  0005c	c2 08 00	 ret	 8
??DD3DXVECTOR3@@QBE?AU0@M@Z ENDP			; D3DXVECTOR3::operator*
_TEXT	ENDS
PUBLIC	?D3DXVec3Dot@@YAMPBUD3DXVECTOR3@@0@Z		; D3DXVec3Dot
; Function compile flags: /Ogsp
;	COMDAT ?D3DXVec3Dot@@YAMPBUD3DXVECTOR3@@0@Z
_TEXT	SEGMENT
tv188 = 8						; size = 4
_pV1$ = 8						; size = 4
_pV2$ = 12						; size = 4
?D3DXVec3Dot@@YAMPBUD3DXVECTOR3@@0@Z PROC		; D3DXVec3Dot, COMDAT

; 1736 : {

  00000	55		 push	 ebp
  00001	8b ec		 mov	 ebp, esp

; 1737 : #ifdef D3DX_DEBUG
; 1738 :     if(!pV1 || !pV2)
; 1739 :         return 0.0f;
; 1740 : #endif
; 1741 : 
; 1742 :     return pV1->x * pV2->x + pV1->y * pV2->y + pV1->z * pV2->z;

  00003	8b 45 08	 mov	 eax, DWORD PTR _pV1$[ebp]
  00006	8b 4d 0c	 mov	 ecx, DWORD PTR _pV2$[ebp]
  00009	d9 40 04	 fld	 DWORD PTR [eax+4]
  0000c	d8 49 04	 fmul	 DWORD PTR [ecx+4]
  0000f	d9 00		 fld	 DWORD PTR [eax]
  00011	d8 09		 fmul	 DWORD PTR [ecx]
  00013	de c1		 faddp	 ST(1), ST(0)
  00015	d9 40 08	 fld	 DWORD PTR [eax+8]
  00018	d8 49 08	 fmul	 DWORD PTR [ecx+8]
  0001b	de c1		 faddp	 ST(1), ST(0)
  0001d	d9 5d 08	 fstp	 DWORD PTR tv188[ebp]
  00020	d9 45 08	 fld	 DWORD PTR tv188[ebp]

; 1743 : }

  00023	5d		 pop	 ebp
  00024	c3		 ret	 0
?D3DXVec3Dot@@YAMPBUD3DXVECTOR3@@0@Z ENDP		; D3DXVec3Dot
_TEXT	ENDS
PUBLIC	?D3DXVec3Cross@@YAPAUD3DXVECTOR3@@PAU1@PBU1@1@Z	; D3DXVec3Cross
; Function compile flags: /Ogsp
;	COMDAT ?D3DXVec3Cross@@YAPAUD3DXVECTOR3@@PAU1@PBU1@1@Z
_TEXT	SEGMENT
_v$ = -12						; size = 12
_pOut$ = 8						; size = 4
_pV1$ = 12						; size = 4
_pV2$ = 16						; size = 4
?D3DXVec3Cross@@YAPAUD3DXVECTOR3@@PAU1@PBU1@1@Z PROC	; D3DXVec3Cross, COMDAT

; 1747 : {

  00000	55		 push	 ebp
  00001	8b ec		 mov	 ebp, esp
  00003	83 ec 0c	 sub	 esp, 12			; 0000000cH

; 1757 :     v.z = pV1->x * pV2->y - pV1->y * pV2->x;
; 1758 : 
; 1759 :     *pOut = v;

  00006	56		 push	 esi
  00007	57		 push	 edi

; 1748 :     D3DXVECTOR3 v;
; 1749 : 
; 1750 : #ifdef D3DX_DEBUG
; 1751 :     if(!pOut || !pV1 || !pV2)
; 1752 :         return NULL;
; 1753 : #endif
; 1754 : 
; 1755 :     v.x = pV1->y * pV2->z - pV1->z * pV2->y;

  00008	8b 45 0c	 mov	 eax, DWORD PTR _pV1$[ebp]
  0000b	f3 0f 10 40 04	 movss	 xmm0, DWORD PTR [eax+4]
  00010	f3 0f 10 50 08	 movss	 xmm2, DWORD PTR [eax+8]
  00015	8b 4d 10	 mov	 ecx, DWORD PTR _pV2$[ebp]
  00018	f3 0f 10 49 08	 movss	 xmm1, DWORD PTR [ecx+8]
  0001d	f3 0f 10 59 04	 movss	 xmm3, DWORD PTR [ecx+4]
  00022	0f 5a e8	 cvtps2pd xmm5, xmm0
  00025	0f 5a e1	 cvtps2pd xmm4, xmm1
  00028	0f 5a f2	 cvtps2pd xmm6, xmm2
  0002b	f2 0f 59 e5	 mulsd	 xmm4, xmm5

; 1756 :     v.y = pV1->z * pV2->x - pV1->x * pV2->z;

  0002f	0f 5a d2	 cvtps2pd xmm2, xmm2
  00032	0f 5a c9	 cvtps2pd xmm1, xmm1
  00035	0f 5a eb	 cvtps2pd xmm5, xmm3
  00038	f2 0f 59 ee	 mulsd	 xmm5, xmm6
  0003c	f2 0f 5c e5	 subsd	 xmm4, xmm5
  00040	f3 0f 10 28	 movss	 xmm5, DWORD PTR [eax]

; 1757 :     v.z = pV1->x * pV2->y - pV1->y * pV2->x;
; 1758 : 
; 1759 :     *pOut = v;

  00044	8b 45 08	 mov	 eax, DWORD PTR _pOut$[ebp]
  00047	66 0f 5a e4	 cvtpd2ps xmm4, xmm4
  0004b	f3 0f 11 65 f4	 movss	 DWORD PTR _v$[ebp], xmm4
  00050	f3 0f 10 21	 movss	 xmm4, DWORD PTR [ecx]
  00054	0f 5a f4	 cvtps2pd xmm6, xmm4
  00057	f2 0f 59 f2	 mulsd	 xmm6, xmm2
  0005b	0f 5a d5	 cvtps2pd xmm2, xmm5
  0005e	f2 0f 59 d1	 mulsd	 xmm2, xmm1
  00062	f2 0f 5c f2	 subsd	 xmm6, xmm2
  00066	66 0f 5a ce	 cvtpd2ps xmm1, xmm6
  0006a	f3 0f 11 4d f8	 movss	 DWORD PTR _v$[ebp+4], xmm1
  0006f	0f 5a c0	 cvtps2pd xmm0, xmm0
  00072	0f 5a d3	 cvtps2pd xmm2, xmm3
  00075	0f 5a cd	 cvtps2pd xmm1, xmm5
  00078	f2 0f 59 ca	 mulsd	 xmm1, xmm2
  0007c	8d 75 f4	 lea	 esi, DWORD PTR _v$[ebp]
  0007f	8b f8		 mov	 edi, eax
  00081	0f 5a d4	 cvtps2pd xmm2, xmm4
  00084	f2 0f 59 d0	 mulsd	 xmm2, xmm0
  00088	f2 0f 5c ca	 subsd	 xmm1, xmm2
  0008c	66 0f 5a c1	 cvtpd2ps xmm0, xmm1
  00090	f3 0f 11 45 fc	 movss	 DWORD PTR _v$[ebp+8], xmm0
  00095	a5		 movsd
  00096	a5		 movsd
  00097	a5		 movsd
  00098	5f		 pop	 edi
  00099	5e		 pop	 esi

; 1760 :     return pOut;
; 1761 : }

  0009a	c9		 leave
  0009b	c3		 ret	 0
?D3DXVec3Cross@@YAPAUD3DXVECTOR3@@PAU1@PBU1@1@Z ENDP	; D3DXVec3Cross
_TEXT	ENDS
PUBLIC	?_DECSTR@@YAXPADH@Z				; _DECSTR
; Function compile flags: /Ogsp
; File d:\lost saga for developer\youtube\tutorial\source\src\lsclient\stringprotect.h
;	COMDAT ?_DECSTR@@YAXPADH@Z
_TEXT	SEGMENT
_s$ = 8							; size = 4
_l$ = 12						; size = 4
?_DECSTR@@YAXPADH@Z PROC				; _DECSTR, COMDAT

; 40   : __forceinline void _DECSTR(char* s, int l){int i=0,l4=(l-1)/4,*p=(int*)s;s[l-1]=0;for(;i<l4;++i)*(p++)^=0xEAEBECED;for(i=l4*4;i<l-1;++i)s[i]^=0xED-i%4;}

  00000	55		 push	 ebp
  00001	8b ec		 mov	 ebp, esp
  00003	8b 4d 0c	 mov	 ecx, DWORD PTR _l$[ebp]
  00006	56		 push	 esi
  00007	8b 75 08	 mov	 esi, DWORD PTR _s$[ebp]
  0000a	57		 push	 edi
  0000b	8d 79 ff	 lea	 edi, DWORD PTR [ecx-1]
  0000e	8b c7		 mov	 eax, edi
  00010	99		 cdq
  00011	83 e2 03	 and	 edx, 3
  00014	03 c2		 add	 eax, edx
  00016	c1 f8 02	 sar	 eax, 2
  00019	8b d6		 mov	 edx, esi
  0001b	c6 44 0e ff 00	 mov	 BYTE PTR [esi+ecx-1], 0
  00020	85 c0		 test	 eax, eax
  00022	7e 0e		 jle	 SHORT $LN4@DECSTR
  00024	8b c8		 mov	 ecx, eax
$LL6@DECSTR:
  00026	81 32 ed ec eb
	ea		 xor	 DWORD PTR [edx], -353637139 ; eaebecedH
  0002c	83 c2 04	 add	 edx, 4
  0002f	49		 dec	 ecx
  00030	75 f4		 jne	 SHORT $LL6@DECSTR
$LN4@DECSTR:
  00032	c1 e0 02	 shl	 eax, 2
  00035	eb 17		 jmp	 SHORT $LN14@DECSTR
$LL3@DECSTR:
  00037	8b c8		 mov	 ecx, eax
  00039	81 e1 03 00 00
	80		 and	 ecx, -2147483645	; 80000003H
  0003f	79 05		 jns	 SHORT $LN13@DECSTR
  00041	49		 dec	 ecx
  00042	83 c9 fc	 or	 ecx, -4			; fffffffcH
  00045	41		 inc	 ecx
$LN13@DECSTR:
  00046	b2 ed		 mov	 dl, -19			; ffffffedH
  00048	2a d1		 sub	 dl, cl
  0004a	30 14 30	 xor	 BYTE PTR [eax+esi], dl
  0004d	40		 inc	 eax
$LN14@DECSTR:
  0004e	3b c7		 cmp	 eax, edi
  00050	7c e5		 jl	 SHORT $LL3@DECSTR
  00052	5f		 pop	 edi
  00053	5e		 pop	 esi
  00054	5d		 pop	 ebp
  00055	c3		 ret	 0
?_DECSTR@@YAXPADH@Z ENDP				; _DECSTR
_TEXT	ENDS
PUBLIC	?return57@@YAIXZ				; return57
; Function compile flags: /Ogsp
; File d:\lost saga for developer\youtube\tutorial\source\src\lsclient\veryoftenusedefine.h
;	COMDAT ?return57@@YAIXZ
_TEXT	SEGMENT
?return57@@YAIXZ PROC					; return57, COMDAT

; 15   : __forceinline unsigned int return57() { __asm mov eax, 57 };

  00000	b8 39 00 00 00	 mov	 eax, 57			; 00000039H
  00005	c3		 ret	 0
?return57@@YAIXZ ENDP					; return57
_TEXT	ENDS
PUBLIC	??1WeaponInfo@@QAE@XZ				; WeaponInfo::~WeaponInfo
; Function compile flags: /Ogsp
;	COMDAT ??1WeaponInfo@@QAE@XZ
_TEXT	SEGMENT
??1WeaponInfo@@QAE@XZ PROC				; WeaponInfo::~WeaponInfo, COMDAT
; _this$ = ecx
  00000	83 c1 08	 add	 ecx, 8
  00003	ff 25 00 00 00
	00		 jmp	 DWORD PTR __imp_??1ioHashString@@QAE@XZ
??1WeaponInfo@@QAE@XZ ENDP				; WeaponInfo::~WeaponInfo
_TEXT	ENDS
PUBLIC	?IsLive@ioWeapon@@QBE_NXZ			; ioWeapon::IsLive
; Function compile flags: /Ogsp
; File d:\lost saga for developer\youtube\tutorial\source\src\lsclient\ioweapon.h
;	COMDAT ?IsLive@ioWeapon@@QBE_NXZ
_TEXT	SEGMENT
?IsLive@ioWeapon@@QBE_NXZ PROC				; ioWeapon::IsLive, COMDAT
; _this$ = ecx

; 533  : 	inline bool IsLive() const { return m_bLive; }

  00000	8a 81 82 05 00
	00		 mov	 al, BYTE PTR [ecx+1410]
  00006	c3		 ret	 0
?IsLive@ioWeapon@@QBE_NXZ ENDP				; ioWeapon::IsLive
_TEXT	ENDS
PUBLIC	?GetName@ioBuff@@QBEABVioHashString@@XZ		; ioBuff::GetName
; Function compile flags: /Ogsp
; File d:\lost saga for developer\youtube\tutorial\source\src\lsclient\iobuff.h
;	COMDAT ?GetName@ioBuff@@QBEABVioHashString@@XZ
_TEXT	SEGMENT
?GetName@ioBuff@@QBEABVioHashString@@XZ PROC		; ioBuff::GetName, COMDAT
; _this$ = ecx

; 440  : 	inline const ioHashString& GetName() const { return m_Name; }

  00000	8d 81 34 02 00
	00		 lea	 eax, DWORD PTR [ecx+564]
  00006	c3		 ret	 0
?GetName@ioBuff@@QBEABVioHashString@@XZ ENDP		; ioBuff::GetName
; Function compile flags: /Ogsp
_TEXT	ENDS
;	COMDAT ?IsWaitSelfRemove@ioBuff@@UAE_NXZ
_TEXT	SEGMENT
?IsWaitSelfRemove@ioBuff@@UAE_NXZ PROC			; ioBuff::IsWaitSelfRemove, COMDAT
; _this$ = ecx

; 519  : 	virtual bool IsWaitSelfRemove() { return m_bWaitSelfRemove; }

  00000	8a 81 65 09 00
	00		 mov	 al, BYTE PTR [ecx+2405]
  00006	c3		 ret	 0
?IsWaitSelfRemove@ioBuff@@UAE_NXZ ENDP			; ioBuff::IsWaitSelfRemove
_TEXT	ENDS
PUBLIC	?size@?$vector@HV?$allocator@H@std@@@std@@QBEIXZ ; std::vector<int,std::allocator<int> >::size
; Function compile flags: /Ogsp
; File c:\program files (x86)\microsoft visual studio 10.0\vc\include\vector
;	COMDAT ?size@?$vector@HV?$allocator@H@std@@@std@@QBEIXZ
_TEXT	SEGMENT
?size@?$vector@HV?$allocator@H@std@@@std@@QBEIXZ PROC	; std::vector<int,std::allocator<int> >::size, COMDAT
; _this$ = ecx

; 879  : 		return (this->_Mylast - this->_Myfirst);

  00000	8b 41 04	 mov	 eax, DWORD PTR [ecx+4]
  00003	2b 01		 sub	 eax, DWORD PTR [ecx]
  00005	c1 f8 02	 sar	 eax, 2

; 880  : 		}

  00008	c3		 ret	 0
?size@?$vector@HV?$allocator@H@std@@@std@@QBEIXZ ENDP	; std::vector<int,std::allocator<int> >::size
_TEXT	ENDS
PUBLIC	??A?$vector@HV?$allocator@H@std@@@std@@QAEAAHI@Z ; std::vector<int,std::allocator<int> >::operator[]
; Function compile flags: /Ogsp
;	COMDAT ??A?$vector@HV?$allocator@H@std@@@std@@QAEAAHI@Z
_TEXT	SEGMENT
__Pos$ = 8						; size = 4
??A?$vector@HV?$allocator@H@std@@@std@@QAEAAHI@Z PROC	; std::vector<int,std::allocator<int> >::operator[], COMDAT
; _this$ = ecx

; 928  : 		{	// subscript mutable sequence

  00000	55		 push	 ebp
  00001	8b ec		 mov	 ebp, esp

; 929  :  #if _ITERATOR_DEBUG_LEVEL == 2
; 930  : 		if (size() <= _Pos)
; 931  : 			{	// report error
; 932  : 			_DEBUG_ERROR("vector subscript out of range");
; 933  : 			_SCL_SECURE_OUT_OF_RANGE;
; 934  : 			}
; 935  : 
; 936  :  #elif _ITERATOR_DEBUG_LEVEL == 1
; 937  : 		_SCL_SECURE_VALIDATE_RANGE(_Pos < size());
; 938  :  #endif /* _ITERATOR_DEBUG_LEVEL */
; 939  : 
; 940  : 		return (*(this->_Myfirst + _Pos));

  00003	8b 01		 mov	 eax, DWORD PTR [ecx]
  00005	8b 4d 08	 mov	 ecx, DWORD PTR __Pos$[ebp]
  00008	8d 04 88	 lea	 eax, DWORD PTR [eax+ecx*4]

; 941  : 		}

  0000b	5d		 pop	 ebp
  0000c	c2 04 00	 ret	 4
??A?$vector@HV?$allocator@H@std@@@std@@QAEAAHI@Z ENDP	; std::vector<int,std::allocator<int> >::operator[]
_TEXT	ENDS
PUBLIC	?DecryptValueToPool@?$CEncrypt@M@@QAEXPAM@Z	; CEncrypt<float>::DecryptValueToPool
EXTRN	?DecryptByte@ccddaabb@@QBEXPBDPADH@Z:PROC	; ccddaabb::DecryptByte
; Function compile flags: /Ogsp
; File d:\lost saga for developer\youtube\tutorial\source\src\lsclient\encryptvalue.h
;	COMDAT ?DecryptValueToPool@?$CEncrypt@M@@QAEXPAM@Z
_TEXT	SEGMENT
_value$ = 8						; size = 4
?DecryptValueToPool@?$CEncrypt@M@@QAEXPAM@Z PROC	; CEncrypt<float>::DecryptValueToPool, COMDAT
; _this$ = ecx

; 1648 : 	{

  00000	55		 push	 ebp
  00001	8b ec		 mov	 ebp, esp
  00003	56		 push	 esi

; 1649 : 		m_RC5.DecryptByte( m_MemPool, m_TempMem, 4 );

  00004	8d 71 28	 lea	 esi, DWORD PTR [ecx+40]
  00007	6a 04		 push	 4
  00009	8d 41 1c	 lea	 eax, DWORD PTR [ecx+28]
  0000c	56		 push	 esi
  0000d	50		 push	 eax
  0000e	83 c1 0c	 add	 ecx, 12			; 0000000cH
  00011	e8 00 00 00 00	 call	 ?DecryptByte@ccddaabb@@QBEXPBDPADH@Z ; ccddaabb::DecryptByte

; 1650 : 		*value = *((float*)m_TempMem);

  00016	d9 06		 fld	 DWORD PTR [esi]
  00018	8b 45 08	 mov	 eax, DWORD PTR _value$[ebp]
  0001b	d9 18		 fstp	 DWORD PTR [eax]
  0001d	5e		 pop	 esi

; 1651 : 	}

  0001e	5d		 pop	 ebp
  0001f	c2 04 00	 ret	 4
?DecryptValueToPool@?$CEncrypt@M@@QAEXPAM@Z ENDP	; CEncrypt<float>::DecryptValueToPool
_TEXT	ENDS
PUBLIC	?DecryptValueToPool@?$CEncrypt@K@@QAEXPAK@Z	; CEncrypt<unsigned long>::DecryptValueToPool
; Function compile flags: /Ogsp
;	COMDAT ?DecryptValueToPool@?$CEncrypt@K@@QAEXPAK@Z
_TEXT	SEGMENT
_value$ = 8						; size = 4
?DecryptValueToPool@?$CEncrypt@K@@QAEXPAK@Z PROC	; CEncrypt<unsigned long>::DecryptValueToPool, COMDAT
; _this$ = ecx

; 1256 : 	{

  00000	55		 push	 ebp
  00001	8b ec		 mov	 ebp, esp
  00003	56		 push	 esi

; 1257 : 		m_RC5.DecryptByte( m_MemPool, m_TempMem, 4 );

  00004	8d 71 28	 lea	 esi, DWORD PTR [ecx+40]
  00007	6a 04		 push	 4
  00009	8d 41 1c	 lea	 eax, DWORD PTR [ecx+28]
  0000c	56		 push	 esi
  0000d	50		 push	 eax
  0000e	83 c1 0c	 add	 ecx, 12			; 0000000cH
  00011	e8 00 00 00 00	 call	 ?DecryptByte@ccddaabb@@QBEXPBDPADH@Z ; ccddaabb::DecryptByte

; 1258 : 		*value = *((DWORD*)m_TempMem);

  00016	8b 06		 mov	 eax, DWORD PTR [esi]
  00018	8b 4d 08	 mov	 ecx, DWORD PTR _value$[ebp]
  0001b	89 01		 mov	 DWORD PTR [ecx], eax
  0001d	5e		 pop	 esi

; 1259 : 	}

  0001e	5d		 pop	 ebp
  0001f	c2 04 00	 ret	 4
?DecryptValueToPool@?$CEncrypt@K@@QAEXPAK@Z ENDP	; CEncrypt<unsigned long>::DecryptValueToPool
_TEXT	ENDS
PUBLIC	?deallocate@?$allocator@H@std@@QAEXPAHI@Z	; std::allocator<int>::deallocate
; Function compile flags: /Ogsp
; File c:\program files (x86)\microsoft visual studio 10.0\vc\include\xmemory
;	COMDAT ?deallocate@?$allocator@H@std@@QAEXPAHI@Z
_TEXT	SEGMENT
__Ptr$ = 8						; size = 4
___formal$ = 12						; size = 4
?deallocate@?$allocator@H@std@@QAEXPAHI@Z PROC		; std::allocator<int>::deallocate, COMDAT
; _this$ = ecx

; 181  : 		{	// deallocate object at _Ptr, ignore size

  00000	55		 push	 ebp
  00001	8b ec		 mov	 ebp, esp

; 182  : 		::operator delete(_Ptr);

  00003	ff 75 08	 push	 DWORD PTR __Ptr$[ebp]
  00006	e8 00 00 00 00	 call	 ??3@YAXPAX@Z		; operator delete
  0000b	59		 pop	 ecx

; 183  : 		}

  0000c	5d		 pop	 ebp
  0000d	c2 08 00	 ret	 8
?deallocate@?$allocator@H@std@@QAEXPAHI@Z ENDP		; std::allocator<int>::deallocate
_TEXT	ENDS
PUBLIC	?capacity@?$vector@HV?$allocator@H@std@@@std@@QBEIXZ ; std::vector<int,std::allocator<int> >::capacity
; Function compile flags: /Ogsp
; File c:\program files (x86)\microsoft visual studio 10.0\vc\include\vector
;	COMDAT ?capacity@?$vector@HV?$allocator@H@std@@@std@@QBEIXZ
_TEXT	SEGMENT
?capacity@?$vector@HV?$allocator@H@std@@@std@@QBEIXZ PROC ; std::vector<int,std::allocator<int> >::capacity, COMDAT
; _this$ = ecx

; 777  : 		return (this->_Myend - this->_Myfirst);

  00000	8b 41 08	 mov	 eax, DWORD PTR [ecx+8]
  00003	2b 01		 sub	 eax, DWORD PTR [ecx]
  00005	c1 f8 02	 sar	 eax, 2

; 778  : 		}

  00008	c3		 ret	 0
?capacity@?$vector@HV?$allocator@H@std@@@std@@QBEIXZ ENDP ; std::vector<int,std::allocator<int> >::capacity
_TEXT	ENDS
PUBLIC	??_C@_0BD@OLBABOEK@vector?$DMT?$DO?5too?5long?$AA@ ; `string'
PUBLIC	?_Xlen@?$vector@HV?$allocator@H@std@@@std@@IBEXXZ ; std::vector<int,std::allocator<int> >::_Xlen
EXTRN	__imp_?_Xlength_error@std@@YAXPBD@Z:PROC
;	COMDAT ??_C@_0BD@OLBABOEK@vector?$DMT?$DO?5too?5long?$AA@
CONST	SEGMENT
??_C@_0BD@OLBABOEK@vector?$DMT?$DO?5too?5long?$AA@ DB 'vector<T> too long'
	DB	00H						; `string'
; Function compile flags: /Ogsp
CONST	ENDS
;	COMDAT ?_Xlen@?$vector@HV?$allocator@H@std@@@std@@IBEXXZ
_TEXT	SEGMENT
?_Xlen@?$vector@HV?$allocator@H@std@@@std@@IBEXXZ PROC	; std::vector<int,std::allocator<int> >::_Xlen, COMDAT
; _this$ = ecx

; 1427 : 		_Xlength_error("vector<T> too long");

  00000	68 00 00 00 00	 push	 OFFSET ??_C@_0BD@OLBABOEK@vector?$DMT?$DO?5too?5long?$AA@
  00005	ff 15 00 00 00
	00		 call	 DWORD PTR __imp_?_Xlength_error@std@@YAXPBD@Z
$LN4@Xlen:
$LN3@Xlen:
  0000b	cc		 int	 3
?_Xlen@?$vector@HV?$allocator@H@std@@@std@@IBEXXZ ENDP	; std::vector<int,std::allocator<int> >::_Xlen
_TEXT	ENDS
PUBLIC	?max_size@?$allocator@H@std@@QBEIXZ		; std::allocator<int>::max_size
; Function compile flags: /Ogsp
; File c:\program files (x86)\microsoft visual studio 10.0\vc\include\xmemory
;	COMDAT ?max_size@?$allocator@H@std@@QBEIXZ
_TEXT	SEGMENT
?max_size@?$allocator@H@std@@QBEIXZ PROC		; std::allocator<int>::max_size, COMDAT
; _this$ = ecx

; 218  : 		_SIZT _Count = (_SIZT)(-1) / sizeof (_Ty);
; 219  : 		return (0 < _Count ? _Count : 1);

  00000	b8 ff ff ff 3f	 mov	 eax, 1073741823		; 3fffffffH

; 220  : 		}

  00005	c3		 ret	 0
?max_size@?$allocator@H@std@@QBEIXZ ENDP		; std::allocator<int>::max_size
_TEXT	ENDS
PUBLIC	__TI2?AVbad_alloc@std@@
PUBLIC	??$_Allocate@H@std@@YAPAHIPAH@Z			; std::_Allocate<int>
PUBLIC	__CTA2?AVbad_alloc@std@@
PUBLIC	__CT??_R0?AVbad_alloc@std@@@8??0bad_alloc@std@@QAE@ABV01@@Z12
PUBLIC	??0bad_alloc@std@@QAE@ABV01@@Z			; std::bad_alloc::bad_alloc
PUBLIC	__CT??_R0?AVexception@std@@@8??0exception@std@@QAE@ABV01@@Z12
EXTRN	__CxxThrowException@8:PROC
EXTRN	??0exception@std@@QAE@ABV01@@Z:PROC		; std::exception::exception
;	COMDAT __CT??_R0?AVexception@std@@@8??0exception@std@@QAE@ABV01@@Z12
; File c:\program files (x86)\microsoft visual studio 10.0\vc\include\exception
xdata$x	SEGMENT
__CT??_R0?AVexception@std@@@8??0exception@std@@QAE@ABV01@@Z12 DD 00H
	DD	FLAT:??_R0?AVexception@std@@@8
	DD	00H
	DD	0ffffffffH
	ORG $+4
	DD	0cH
	DD	FLAT:??0exception@std@@QAE@ABV01@@Z
xdata$x	ENDS
;	COMDAT __CT??_R0?AVbad_alloc@std@@@8??0bad_alloc@std@@QAE@ABV01@@Z12
xdata$x	SEGMENT
__CT??_R0?AVbad_alloc@std@@@8??0bad_alloc@std@@QAE@ABV01@@Z12 DD 00H
	DD	FLAT:??_R0?AVbad_alloc@std@@@8
	DD	00H
	DD	0ffffffffH
	ORG $+4
	DD	0cH
	DD	FLAT:??0bad_alloc@std@@QAE@ABV01@@Z
xdata$x	ENDS
;	COMDAT __CTA2?AVbad_alloc@std@@
xdata$x	SEGMENT
__CTA2?AVbad_alloc@std@@ DD 02H
	DD	FLAT:__CT??_R0?AVbad_alloc@std@@@8??0bad_alloc@std@@QAE@ABV01@@Z12
	DD	FLAT:__CT??_R0?AVexception@std@@@8??0exception@std@@QAE@ABV01@@Z12
xdata$x	ENDS
;	COMDAT __TI2?AVbad_alloc@std@@
xdata$x	SEGMENT
__TI2?AVbad_alloc@std@@ DD 00H
	DD	FLAT:??1bad_alloc@std@@UAE@XZ
	DD	00H
	DD	FLAT:__CTA2?AVbad_alloc@std@@
; Function compile flags: /Ogsp
; File c:\program files (x86)\microsoft visual studio 10.0\vc\include\xmemory
xdata$x	ENDS
;	COMDAT ??$_Allocate@H@std@@YAPAHIPAH@Z
_TEXT	SEGMENT
$T543715 = -12						; size = 12
$T543720 = 8						; size = 4
__Count$ = 8						; size = 4
___formal$ = 12						; size = 4
??$_Allocate@H@std@@YAPAHIPAH@Z PROC			; std::_Allocate<int>, COMDAT

; 30   : 	{	// allocate storage for _Count elements of type _Ty

  00000	55		 push	 ebp
  00001	8b ec		 mov	 ebp, esp

; 31   : 	void *_Ptr = 0;
; 32   : 
; 33   : 	if (_Count <= 0)

  00003	8b 4d 08	 mov	 ecx, DWORD PTR __Count$[ebp]
  00006	83 ec 0c	 sub	 esp, 12			; 0000000cH
  00009	33 c0		 xor	 eax, eax
  0000b	85 c9		 test	 ecx, ecx

; 34   : 		_Count = 0;
; 35   : 	else if (((_SIZT)(-1) / sizeof (_Ty) < _Count)

  0000d	74 3e		 je	 SHORT $LN5@Allocate

; 36   : 		|| (_Ptr = ::operator new(_Count * sizeof (_Ty))) == 0)

  0000f	81 f9 ff ff ff
	3f		 cmp	 ecx, 1073741823		; 3fffffffH
  00015	77 10		 ja	 SHORT $LN1@Allocate
  00017	8b c1		 mov	 eax, ecx
  00019	c1 e0 02	 shl	 eax, 2
  0001c	50		 push	 eax
  0001d	e8 00 00 00 00	 call	 ??2@YAPAXI@Z		; operator new
  00022	59		 pop	 ecx
  00023	85 c0		 test	 eax, eax

; 38   : 
; 39   : 	return ((_Ty _FARQ *)_Ptr);

  00025	75 26		 jne	 SHORT $LN5@Allocate
$LN1@Allocate:

; 37   : 		_THROW_NCEE(bad_alloc, 0);

  00027	83 65 08 00	 and	 DWORD PTR $T543720[ebp], 0
  0002b	8d 45 08	 lea	 eax, DWORD PTR $T543720[ebp]
  0002e	50		 push	 eax
  0002f	8d 4d f4	 lea	 ecx, DWORD PTR $T543715[ebp]
  00032	ff 15 00 00 00
	00		 call	 DWORD PTR __imp_??0exception@std@@QAE@ABQBD@Z
  00038	68 00 00 00 00	 push	 OFFSET __TI2?AVbad_alloc@std@@
  0003d	8d 45 f4	 lea	 eax, DWORD PTR $T543715[ebp]
  00040	50		 push	 eax
  00041	c7 45 f4 00 00
	00 00		 mov	 DWORD PTR $T543715[ebp], OFFSET ??_7bad_alloc@std@@6B@
  00048	e8 00 00 00 00	 call	 __CxxThrowException@8
$LN10@Allocate:
$LN5@Allocate:

; 40   : 	}

  0004d	c9		 leave
  0004e	c3		 ret	 0
$LN9@Allocate:
??$_Allocate@H@std@@YAPAHIPAH@Z ENDP			; std::_Allocate<int>
_TEXT	ENDS
EXTRN	__imp_??0exception@std@@QAE@ABV01@@Z:PROC
; Function compile flags: /Ogsp
;	COMDAT ??0bad_alloc@std@@QAE@ABV01@@Z
_TEXT	SEGMENT
___that$ = 8						; size = 4
??0bad_alloc@std@@QAE@ABV01@@Z PROC			; std::bad_alloc::bad_alloc, COMDAT
; _this$ = ecx
  00000	55		 push	 ebp
  00001	8b ec		 mov	 ebp, esp
  00003	56		 push	 esi
  00004	ff 75 08	 push	 DWORD PTR ___that$[ebp]
  00007	8b f1		 mov	 esi, ecx
  00009	ff 15 00 00 00
	00		 call	 DWORD PTR __imp_??0exception@std@@QAE@ABV01@@Z
  0000f	c7 06 00 00 00
	00		 mov	 DWORD PTR [esi], OFFSET ??_7bad_alloc@std@@6B@
  00015	8b c6		 mov	 eax, esi
  00017	5e		 pop	 esi
  00018	5d		 pop	 ebp
  00019	c2 04 00	 ret	 4
??0bad_alloc@std@@QAE@ABV01@@Z ENDP			; std::bad_alloc::bad_alloc
_TEXT	ENDS
PUBLIC	??$forward@AAH@std@@YAAAHAAH@Z			; std::forward<int &>
; Function compile flags: /Ogsp
; File c:\program files (x86)\microsoft visual studio 10.0\vc\include\utility
;	COMDAT ??$forward@AAH@std@@YAAAHAAH@Z
_TEXT	SEGMENT
__Arg$ = 8						; size = 4
??$forward@AAH@std@@YAAAHAAH@Z PROC			; std::forward<int &>, COMDAT

; 78   : 	{	// forward _Arg, given explicitly specified type parameter

  00000	55		 push	 ebp
  00001	8b ec		 mov	 ebp, esp

; 79   : 	return ((_Ty&&)_Arg);

  00003	8b 45 08	 mov	 eax, DWORD PTR __Arg$[ebp]

; 80   : 	}

  00006	5d		 pop	 ebp
  00007	c3		 ret	 0
??$forward@AAH@std@@YAAAHAAH@Z ENDP			; std::forward<int &>
_TEXT	ENDS
PUBLIC	??$_Val_type@PAH@std@@YAPAHPAH@Z		; std::_Val_type<int *>
; Function compile flags: /Ogsp
; File c:\program files (x86)\microsoft visual studio 10.0\vc\include\xutility
;	COMDAT ??$_Val_type@PAH@std@@YAPAHPAH@Z
_TEXT	SEGMENT
___formal$ = 8						; size = 4
??$_Val_type@PAH@std@@YAPAHPAH@Z PROC			; std::_Val_type<int *>, COMDAT

; 790  : 	return (0);

  00000	33 c0		 xor	 eax, eax

; 791  : 	}

  00002	c3		 ret	 0
??$_Val_type@PAH@std@@YAPAHPAH@Z ENDP			; std::_Val_type<int *>
_TEXT	ENDS
PUBLIC	??$_Ptr_cat@HH@std@@YA?AU_Scalar_ptr_iterator_tag@0@PAH0@Z ; std::_Ptr_cat<int,int>
; Function compile flags: /Ogsp
;	COMDAT ??$_Ptr_cat@HH@std@@YA?AU_Scalar_ptr_iterator_tag@0@PAH0@Z
_TEXT	SEGMENT
__Cat$ = -1						; size = 1
___formal$ = 8						; size = 4
___formal$ = 12						; size = 4
??$_Ptr_cat@HH@std@@YA?AU_Scalar_ptr_iterator_tag@0@PAH0@Z PROC ; std::_Ptr_cat<int,int>, COMDAT

; 516  : 	{	// return pointer category from pointers

  00000	55		 push	 ebp
  00001	8b ec		 mov	 ebp, esp
  00003	51		 push	 ecx

; 517  : 	typename _Ptr_cat_helper<_Elem1, _Elem2>::_Type _Cat;
; 518  : 	return (_Cat);

  00004	8a 45 ff	 mov	 al, BYTE PTR __Cat$[ebp]

; 519  : 	}

  00007	c9		 leave
  00008	c3		 ret	 0
??$_Ptr_cat@HH@std@@YA?AU_Scalar_ptr_iterator_tag@0@PAH0@Z ENDP ; std::_Ptr_cat<int,int>
_TEXT	ENDS
PUBLIC	??$_Destroy_range@V?$allocator@H@std@@@std@@YAXPAH0AAV?$allocator@H@0@U_Scalar_ptr_iterator_tag@0@@Z ; std::_Destroy_range<std::allocator<int> >
; Function compile flags: /Ogsp
; File c:\program files (x86)\microsoft visual studio 10.0\vc\include\xmemory
;	COMDAT ??$_Destroy_range@V?$allocator@H@std@@@std@@YAXPAH0AAV?$allocator@H@0@U_Scalar_ptr_iterator_tag@0@@Z
_TEXT	SEGMENT
__First$ = 8						; size = 4
__Last$ = 12						; size = 4
__Al$ = 16						; size = 4
___formal$ = 20						; size = 1
??$_Destroy_range@V?$allocator@H@std@@@std@@YAXPAH0AAV?$allocator@H@0@U_Scalar_ptr_iterator_tag@0@@Z PROC ; std::_Destroy_range<std::allocator<int> >, COMDAT

; 105  : 	}

  00000	c3		 ret	 0
??$_Destroy_range@V?$allocator@H@std@@@std@@YAXPAH0AAV?$allocator@H@0@U_Scalar_ptr_iterator_tag@0@@Z ENDP ; std::_Destroy_range<std::allocator<int> >
_TEXT	ENDS
PUBLIC	??$_Uninit_move@HHH@std@@YAPAHPAH00AAV?$allocator@H@0@0U_Scalar_ptr_iterator_tag@0@@Z ; std::_Uninit_move<int,int,int>
EXTRN	__imp__memmove:PROC
; Function compile flags: /Ogsp
; File c:\program files (x86)\microsoft visual studio 10.0\vc\include\memory
;	COMDAT ??$_Uninit_move@HHH@std@@YAPAHPAH00AAV?$allocator@H@0@0U_Scalar_ptr_iterator_tag@0@@Z
_TEXT	SEGMENT
__First$ = 8						; size = 4
__Last$ = 12						; size = 4
__Dest$ = 16						; size = 4
___formal$ = 20						; size = 4
___formal$ = 24						; size = 4
___formal$ = 28						; size = 1
??$_Uninit_move@HHH@std@@YAPAHPAH00AAV?$allocator@H@0@0U_Scalar_ptr_iterator_tag@0@@Z PROC ; std::_Uninit_move<int,int,int>, COMDAT

; 456  : 	{	// move [_First, _Last) to raw _Dest, scalar type

  00000	55		 push	 ebp
  00001	8b ec		 mov	 ebp, esp
  00003	56		 push	 esi

; 457  : 	_DEBUG_RANGE(_First, _Last);
; 458  : 	_DEBUG_POINTER(_Dest);
; 459  : 	size_t _Count = (size_t)(_Last - _First);

  00004	8b 75 0c	 mov	 esi, DWORD PTR __Last$[ebp]
  00007	2b 75 08	 sub	 esi, DWORD PTR __First$[ebp]
  0000a	c1 fe 02	 sar	 esi, 2

; 460  : 	return ((_Ty2 *)_CSTD memmove(&*_Dest, &*_First,
; 461  : 		_Count * sizeof (*_First)) + _Count);	// NB: non-overlapping move

  0000d	c1 e6 02	 shl	 esi, 2
  00010	56		 push	 esi
  00011	ff 75 08	 push	 DWORD PTR __First$[ebp]
  00014	ff 75 10	 push	 DWORD PTR __Dest$[ebp]
  00017	ff 15 00 00 00
	00		 call	 DWORD PTR __imp__memmove
  0001d	83 c4 0c	 add	 esp, 12			; 0000000cH
  00020	03 c6		 add	 eax, esi
  00022	5e		 pop	 esi

; 462  : 	}

  00023	5d		 pop	 ebp
  00024	c3		 ret	 0
??$_Uninit_move@HHH@std@@YAPAHPAH00AAV?$allocator@H@0@0U_Scalar_ptr_iterator_tag@0@@Z ENDP ; std::_Uninit_move<int,int,int>
_TEXT	ENDS
PUBLIC	??4WeaponInfo@@QAEAAU0@ABU0@@Z			; WeaponInfo::operator=
EXTRN	__imp_??4ioHashString@@QAEAAV0@ABV0@@Z:PROC
; Function compile flags: /Ogsp
;	COMDAT ??4WeaponInfo@@QAEAAU0@ABU0@@Z
_TEXT	SEGMENT
___that$ = 8						; size = 4
??4WeaponInfo@@QAEAAU0@ABU0@@Z PROC			; WeaponInfo::operator=, COMDAT
; _this$ = ecx
  00000	55		 push	 ebp
  00001	8b ec		 mov	 ebp, esp
  00003	56		 push	 esi
  00004	57		 push	 edi
  00005	8b 7d 08	 mov	 edi, DWORD PTR ___that$[ebp]
  00008	8b 07		 mov	 eax, DWORD PTR [edi]
  0000a	8b f1		 mov	 esi, ecx
  0000c	89 06		 mov	 DWORD PTR [esi], eax
  0000e	8b 47 04	 mov	 eax, DWORD PTR [edi+4]
  00011	89 46 04	 mov	 DWORD PTR [esi+4], eax
  00014	8d 47 08	 lea	 eax, DWORD PTR [edi+8]
  00017	50		 push	 eax
  00018	8d 4e 08	 lea	 ecx, DWORD PTR [esi+8]
  0001b	ff 15 00 00 00
	00		 call	 DWORD PTR __imp_??4ioHashString@@QAEAAV0@ABV0@@Z
  00021	8b 47 18	 mov	 eax, DWORD PTR [edi+24]
  00024	89 46 18	 mov	 DWORD PTR [esi+24], eax
  00027	8b 47 1c	 mov	 eax, DWORD PTR [edi+28]
  0002a	89 46 1c	 mov	 DWORD PTR [esi+28], eax
  0002d	8a 47 20	 mov	 al, BYTE PTR [edi+32]
  00030	88 46 20	 mov	 BYTE PTR [esi+32], al
  00033	8b 47 24	 mov	 eax, DWORD PTR [edi+36]
  00036	89 46 24	 mov	 DWORD PTR [esi+36], eax
  00039	5f		 pop	 edi
  0003a	8b c6		 mov	 eax, esi
  0003c	5e		 pop	 esi
  0003d	5d		 pop	 ebp
  0003e	c2 04 00	 ret	 4
??4WeaponInfo@@QAEAAU0@ABU0@@Z ENDP			; WeaponInfo::operator=
; Function compile flags: /Ogsp
_TEXT	ENDS
;	COMDAT ??_GioSelfControlBuff@@UAEPAXI@Z
_TEXT	SEGMENT
___flags$ = 8						; size = 4
??_GioSelfControlBuff@@UAEPAXI@Z PROC			; ioSelfControlBuff::`scalar deleting destructor', COMDAT
; _this$ = ecx
  00000	55		 push	 ebp
  00001	8b ec		 mov	 ebp, esp
  00003	56		 push	 esi
  00004	8b f1		 mov	 esi, ecx
  00006	e8 00 00 00 00	 call	 ??1ioSelfControlBuff@@UAE@XZ ; ioSelfControlBuff::~ioSelfControlBuff
  0000b	f6 45 08 01	 test	 BYTE PTR ___flags$[ebp], 1
  0000f	74 07		 je	 SHORT $LN1@scalar@2
  00011	56		 push	 esi
  00012	e8 00 00 00 00	 call	 ??3@YAXPAX@Z		; operator delete
  00017	59		 pop	 ecx
$LN1@scalar@2:
  00018	8b c6		 mov	 eax, esi
  0001a	5e		 pop	 esi
  0001b	5d		 pop	 ebp
  0001c	c2 04 00	 ret	 4
??_GioSelfControlBuff@@UAEPAXI@Z ENDP			; ioSelfControlBuff::`scalar deleting destructor'
_TEXT	ENDS
PUBLIC	__real@4f800000
PUBLIC	__$ArrayPad$
EXTRN	__imp_?CalcDirectionQuaternion@ioMath@@SAXAAUD3DXQUATERNION@@ABUD3DXVECTOR3@@@Z:PROC
EXTRN	_D3DXVec3Normalize@8:PROC
EXTRN	__imp_??D@YA?AUD3DXVECTOR3@@ABUD3DXQUATERNION@@ABU0@@Z:PROC
EXTRN	?SetSelfControlInfo@ioBaseChar@@QAEXABVioHashString@@@Z:PROC ; ioBaseChar::SetSelfControlInfo
EXTRN	?StartBuff@ioBuff@@UAEXPAVioBaseChar@@@Z:PROC	; ioBuff::StartBuff
EXTRN	___security_cookie:DWORD
;	COMDAT __real@4f800000
; File c:\program files (x86)\microsoft directx sdk (june 2010)\include\d3dx9math.inl
CONST	SEGMENT
__real@4f800000 DD 04f800000r			; 4.29497e+009
; Function compile flags: /Ogsp
; File d:\lost saga for developer\youtube\tutorial\source\src\lsclient\ioselfcontrolbuff.cpp
CONST	ENDS
;	COMDAT ?StartBuff@ioSelfControlBuff@@UAEXPAVioBaseChar@@@Z
_TEXT	SEGMENT
_qtCharRot$541350 = -48					; size = 16
tv208 = -32						; size = 4
_vDir$541346 = -28					; size = 12
$T541351 = -16						; size = 12
$T541348 = -16						; size = 12
__$ArrayPad$ = -4					; size = 4
_pOwner$ = 8						; size = 4
?StartBuff@ioSelfControlBuff@@UAEXPAVioBaseChar@@@Z PROC ; ioSelfControlBuff::StartBuff, COMDAT
; _this$ = ecx

; 50   : {

  00000	55		 push	 ebp
  00001	8b ec		 mov	 ebp, esp
  00003	83 ec 30	 sub	 esp, 48			; 00000030H
  00006	a1 00 00 00 00	 mov	 eax, DWORD PTR ___security_cookie
  0000b	33 c5		 xor	 eax, ebp
  0000d	89 45 fc	 mov	 DWORD PTR __$ArrayPad$[ebp], eax
  00010	56		 push	 esi
  00011	8b 75 08	 mov	 esi, DWORD PTR _pOwner$[ebp]
  00014	57		 push	 edi

; 51   : 	ioBuff::StartBuff( pOwner );

  00015	56		 push	 esi
  00016	8b f9		 mov	 edi, ecx
  00018	e8 00 00 00 00	 call	 ?StartBuff@ioBuff@@UAEXPAVioBaseChar@@@Z ; ioBuff::StartBuff

; 52   : 	if ( pOwner )

  0001d	85 f6		 test	 esi, esi
  0001f	0f 84 a0 00 00
	00		 je	 $LN1@StartBuff

; 53   : 	{
; 54   : 		pOwner->SetSelfControlInfo( m_szMoveAni );

  00025	8d 87 74 09 00
	00		 lea	 eax, DWORD PTR [edi+2420]
  0002b	50		 push	 eax
  0002c	8b ce		 mov	 ecx, esi
  0002e	e8 00 00 00 00	 call	 ?SetSelfControlInfo@ioBaseChar@@QAEXABVioHashString@@@Z ; ioBaseChar::SetSelfControlInfo

; 55   : 
; 56   : 		D3DXVECTOR3 vDir = pOwner->GetTargetRot() * D3DXVECTOR3(0.0f, 0.0f, -FLOAT1);

  00033	b8 01 00 00 00	 mov	 eax, 1
  00038	0f 57 c0	 xorps	 xmm0, xmm0
  0003b	89 45 e0	 mov	 DWORD PTR tv208[ebp], eax
  0003e	db 45 e0	 fild	 DWORD PTR tv208[ebp]
  00041	f3 0f 11 45 f0	 movss	 DWORD PTR $T541348[ebp], xmm0
  00046	f3 0f 11 45 f4	 movss	 DWORD PTR $T541348[ebp+4], xmm0
  0004b	85 c0		 test	 eax, eax
  0004d	79 06		 jns	 SHORT $LN16@StartBuff
  0004f	d8 05 00 00 00
	00		 fadd	 DWORD PTR __real@4f800000
$LN16@StartBuff:
  00055	8d 45 f0	 lea	 eax, DWORD PTR $T541348[ebp]
  00058	d9 e0		 fchs
  0005a	50		 push	 eax
  0005b	d9 5d f8	 fstp	 DWORD PTR $T541348[ebp+8]
  0005e	81 c6 a4 06 00
	00		 add	 esi, 1700		; 000006a4H
  00064	8d 45 e4	 lea	 eax, DWORD PTR _vDir$541346[ebp]
  00067	56		 push	 esi
  00068	50		 push	 eax
  00069	ff 15 00 00 00
	00		 call	 DWORD PTR __imp_??D@YA?AUD3DXVECTOR3@@ABUD3DXQUATERNION@@ABU0@@Z
  0006f	83 c4 0c	 add	 esp, 12			; 0000000cH

; 57   : 		D3DXVec3Normalize( &vDir, &vDir );

  00072	8d 45 e4	 lea	 eax, DWORD PTR _vDir$541346[ebp]
  00075	50		 push	 eax
  00076	50		 push	 eax
  00077	e8 00 00 00 00	 call	 _D3DXVec3Normalize@8

; 58   : 
; 59   : 		D3DXQUATERNION qtCharRot;
; 60   : 		ioMath::CalcDirectionQuaternion( qtCharRot, -vDir );	

  0007c	f3 0f 10 05 00
	00 00 00	 movss	 xmm0, DWORD PTR __mask@@NegFloat@
  00084	f3 0f 10 4d e4	 movss	 xmm1, DWORD PTR _vDir$541346[ebp]
  00089	0f 57 c8	 xorps	 xmm1, xmm0
  0008c	f3 0f 11 4d f0	 movss	 DWORD PTR $T541351[ebp], xmm1
  00091	f3 0f 10 4d e8	 movss	 xmm1, DWORD PTR _vDir$541346[ebp+4]
  00096	0f 57 c8	 xorps	 xmm1, xmm0
  00099	8d 45 f0	 lea	 eax, DWORD PTR $T541351[ebp]
  0009c	50		 push	 eax
  0009d	f3 0f 11 4d f4	 movss	 DWORD PTR $T541351[ebp+4], xmm1
  000a2	f3 0f 10 4d ec	 movss	 xmm1, DWORD PTR _vDir$541346[ebp+8]
  000a7	8d 45 d0	 lea	 eax, DWORD PTR _qtCharRot$541350[ebp]
  000aa	0f 57 c8	 xorps	 xmm1, xmm0
  000ad	50		 push	 eax
  000ae	f3 0f 11 4d f8	 movss	 DWORD PTR $T541351[ebp+8], xmm1
  000b3	ff 15 00 00 00
	00		 call	 DWORD PTR __imp_?CalcDirectionQuaternion@ioMath@@SAXAAUD3DXQUATERNION@@ABUD3DXVECTOR3@@@Z
  000b9	59		 pop	 ecx
  000ba	59		 pop	 ecx

; 61   : 		m_State = SCS_CONTROL;

  000bb	c7 87 6c 09 00
	00 01 00 00 00	 mov	 DWORD PTR [edi+2412], 1
$LN1@StartBuff:

; 62   : 	}
; 63   : }

  000c5	8b 4d fc	 mov	 ecx, DWORD PTR __$ArrayPad$[ebp]
  000c8	5f		 pop	 edi
  000c9	33 cd		 xor	 ecx, ebp
  000cb	5e		 pop	 esi
  000cc	e8 00 00 00 00	 call	 @__security_check_cookie@4
  000d1	c9		 leave
  000d2	c2 04 00	 ret	 4
?StartBuff@ioSelfControlBuff@@UAEXPAVioBaseChar@@@Z ENDP ; ioSelfControlBuff::StartBuff
_TEXT	ENDS
EXTRN	?EndBuff@ioBuff@@UAEXXZ:PROC			; ioBuff::EndBuff
EXTRN	?FindWeapon@ioWeaponManager@@QAEPAVioWeapon@@PAVioBaseChar@@K@Z:PROC ; ioWeaponManager::FindWeapon
EXTRN	?GetSingleton@ioWeaponManager@@SAAAV1@XZ:PROC	; ioWeaponManager::GetSingleton
EXTRN	?GetBaseChar@ioBaseChar@@QAEPAV1@ABVioHashString@@@Z:PROC ; ioBaseChar::GetBaseChar
; Function compile flags: /Ogsp
;	COMDAT ?EndBuff@ioSelfControlBuff@@UAEXXZ
_TEXT	SEGMENT
_pCreator$ = -4						; size = 4
?EndBuff@ioSelfControlBuff@@UAEXXZ PROC			; ioSelfControlBuff::EndBuff, COMDAT
; _this$ = ecx

; 140  : {

  00000	55		 push	 ebp
  00001	8b ec		 mov	 ebp, esp
  00003	51		 push	 ecx
  00004	56		 push	 esi
  00005	8b f1		 mov	 esi, ecx

; 141  : 	ioBaseChar *pCreator = m_pOwner->GetBaseChar( m_CreateChar );

  00007	8b 8e 74 02 00
	00		 mov	 ecx, DWORD PTR [esi+628]
  0000d	8d 86 88 02 00
	00		 lea	 eax, DWORD PTR [esi+648]
  00013	50		 push	 eax
  00014	e8 00 00 00 00	 call	 ?GetBaseChar@ioBaseChar@@QAEPAV1@ABVioHashString@@@Z ; ioBaseChar::GetBaseChar
  00019	89 45 fc	 mov	 DWORD PTR _pCreator$[ebp], eax

; 142  : 	if ( pCreator )

  0001c	85 c0		 test	 eax, eax
  0001e	74 4a		 je	 SHORT $LN2@EndBuff

; 143  : 	{
; 144  : 		int iSize = m_vWeaponIndexList.size();

  00020	53		 push	 ebx
  00021	57		 push	 edi
  00022	8b be 40 04 00
	00		 mov	 edi, DWORD PTR [esi+1088]
  00028	2b be 3c 04 00
	00		 sub	 edi, DWORD PTR [esi+1084]

; 145  : 		for( int i=0; i < iSize; ++i )

  0002e	33 db		 xor	 ebx, ebx
  00030	c1 ff 02	 sar	 edi, 2
  00033	85 ff		 test	 edi, edi
  00035	7e 31		 jle	 SHORT $LN17@EndBuff
$LL16@EndBuff:

; 146  : 		{
; 147  : 			int iWeaponIndex = m_vWeaponIndexList[i];

  00037	8b 86 3c 04 00
	00		 mov	 eax, DWORD PTR [esi+1084]

; 148  : 
; 149  : 			ioWeapon *pWeapon = g_WeaponMgr.FindWeapon( pCreator, iWeaponIndex );

  0003d	ff 34 98	 push	 DWORD PTR [eax+ebx*4]
  00040	ff 75 fc	 push	 DWORD PTR _pCreator$[ebp]
  00043	e8 00 00 00 00	 call	 ?GetSingleton@ioWeaponManager@@SAAAV1@XZ ; ioWeaponManager::GetSingleton
  00048	8b c8		 mov	 ecx, eax
  0004a	e8 00 00 00 00	 call	 ?FindWeapon@ioWeaponManager@@QAEPAVioWeapon@@PAVioBaseChar@@K@Z ; ioWeaponManager::FindWeapon

; 150  : 			if( pWeapon && pWeapon->IsLive() )

  0004f	85 c0		 test	 eax, eax
  00051	74 10		 je	 SHORT $LN3@EndBuff
  00053	80 b8 82 05 00
	00 00		 cmp	 BYTE PTR [eax+1410], 0
  0005a	74 07		 je	 SHORT $LN3@EndBuff

; 151  : 			{
; 152  : 				pWeapon->SetWeaponDead();

  0005c	8b 10		 mov	 edx, DWORD PTR [eax]
  0005e	8b c8		 mov	 ecx, eax
  00060	ff 52 4c	 call	 DWORD PTR [edx+76]
$LN3@EndBuff:

; 145  : 		for( int i=0; i < iSize; ++i )

  00063	43		 inc	 ebx
  00064	3b df		 cmp	 ebx, edi
  00066	7c cf		 jl	 SHORT $LL16@EndBuff
$LN17@EndBuff:
  00068	5f		 pop	 edi
  00069	5b		 pop	 ebx
$LN2@EndBuff:

; 153  : 			}
; 154  : 		}
; 155  : 	}
; 156  : 
; 157  : 	ioBuff::EndBuff();

  0006a	8b ce		 mov	 ecx, esi
  0006c	e8 00 00 00 00	 call	 ?EndBuff@ioBuff@@UAEXXZ	; ioBuff::EndBuff
  00071	5e		 pop	 esi

; 158  : }

  00072	c9		 leave
  00073	c3		 ret	 0
?EndBuff@ioSelfControlBuff@@UAEXXZ ENDP			; ioSelfControlBuff::EndBuff
_TEXT	ENDS
PUBLIC	__$ArrayPad$
EXTRN	?ApplyStartBuff@ioBuff@@UAE_NPAVioBaseChar@@KK@Z:PROC ; ioBuff::ApplyStartBuff
; Function compile flags: /Ogsp
;	COMDAT ?ApplyStartBuff@ioSelfControlBuff@@UAE_NPAVioBaseChar@@KK@Z
_TEXT	SEGMENT
_qtCharRot$541407 = -48					; size = 16
tv207 = -32						; size = 4
_vDir$541403 = -28					; size = 12
$T541408 = -16						; size = 12
$T541405 = -16						; size = 12
__$ArrayPad$ = -4					; size = 4
_pOwner$ = 8						; size = 4
_dwGlobalTime$ = 12					; size = 4
_dwGapTime$ = 16					; size = 4
?ApplyStartBuff@ioSelfControlBuff@@UAE_NPAVioBaseChar@@KK@Z PROC ; ioSelfControlBuff::ApplyStartBuff, COMDAT
; _this$ = ecx

; 161  : {

  00000	55		 push	 ebp
  00001	8b ec		 mov	 ebp, esp
  00003	83 ec 30	 sub	 esp, 48			; 00000030H
  00006	a1 00 00 00 00	 mov	 eax, DWORD PTR ___security_cookie
  0000b	33 c5		 xor	 eax, ebp
  0000d	89 45 fc	 mov	 DWORD PTR __$ArrayPad$[ebp], eax
  00010	56		 push	 esi
  00011	8b 75 08	 mov	 esi, DWORD PTR _pOwner$[ebp]
  00014	57		 push	 edi

; 162  : 	if( !ioBuff::ApplyStartBuff( pOwner, dwGlobalTime, dwGapTime ) )

  00015	ff 75 10	 push	 DWORD PTR _dwGapTime$[ebp]
  00018	8b f9		 mov	 edi, ecx
  0001a	ff 75 0c	 push	 DWORD PTR _dwGlobalTime$[ebp]
  0001d	56		 push	 esi
  0001e	e8 00 00 00 00	 call	 ?ApplyStartBuff@ioBuff@@UAE_NPAVioBaseChar@@KK@Z ; ioBuff::ApplyStartBuff
  00023	84 c0		 test	 al, al
  00025	0f 84 aa 00 00
	00		 je	 $LN3@ApplyStart
$LN2@ApplyStart:

; 163  : 		return false;
; 164  : 
; 165  : 	if ( pOwner )

  0002b	85 f6		 test	 esi, esi
  0002d	0f 84 a0 00 00
	00		 je	 $LN1@ApplyStart

; 166  : 	{
; 167  : 		pOwner->SetSelfControlInfo( m_szMoveAni );

  00033	8d 87 74 09 00
	00		 lea	 eax, DWORD PTR [edi+2420]
  00039	50		 push	 eax
  0003a	8b ce		 mov	 ecx, esi
  0003c	e8 00 00 00 00	 call	 ?SetSelfControlInfo@ioBaseChar@@QAEXABVioHashString@@@Z ; ioBaseChar::SetSelfControlInfo

; 168  : 
; 169  : 		D3DXVECTOR3 vDir = pOwner->GetTargetRot() * D3DXVECTOR3(0.0f, 0.0f, -FLOAT1);

  00041	b8 01 00 00 00	 mov	 eax, 1
  00046	0f 57 c0	 xorps	 xmm0, xmm0
  00049	89 45 e0	 mov	 DWORD PTR tv207[ebp], eax
  0004c	db 45 e0	 fild	 DWORD PTR tv207[ebp]
  0004f	f3 0f 11 45 f0	 movss	 DWORD PTR $T541405[ebp], xmm0
  00054	f3 0f 11 45 f4	 movss	 DWORD PTR $T541405[ebp+4], xmm0
  00059	85 c0		 test	 eax, eax
  0005b	79 06		 jns	 SHORT $LN17@ApplyStart
  0005d	d8 05 00 00 00
	00		 fadd	 DWORD PTR __real@4f800000
$LN17@ApplyStart:
  00063	8d 45 f0	 lea	 eax, DWORD PTR $T541405[ebp]
  00066	d9 e0		 fchs
  00068	50		 push	 eax
  00069	d9 5d f8	 fstp	 DWORD PTR $T541405[ebp+8]
  0006c	81 c6 a4 06 00
	00		 add	 esi, 1700		; 000006a4H
  00072	8d 45 e4	 lea	 eax, DWORD PTR _vDir$541403[ebp]
  00075	56		 push	 esi
  00076	50		 push	 eax
  00077	ff 15 00 00 00
	00		 call	 DWORD PTR __imp_??D@YA?AUD3DXVECTOR3@@ABUD3DXQUATERNION@@ABU0@@Z
  0007d	83 c4 0c	 add	 esp, 12			; 0000000cH

; 170  : 		D3DXVec3Normalize( &vDir, &vDir );

  00080	8d 45 e4	 lea	 eax, DWORD PTR _vDir$541403[ebp]
  00083	50		 push	 eax
  00084	50		 push	 eax
  00085	e8 00 00 00 00	 call	 _D3DXVec3Normalize@8

; 171  : 
; 172  : 		D3DXQUATERNION qtCharRot;
; 173  : 		ioMath::CalcDirectionQuaternion( qtCharRot, -vDir );	

  0008a	f3 0f 10 05 00
	00 00 00	 movss	 xmm0, DWORD PTR __mask@@NegFloat@
  00092	f3 0f 10 4d e4	 movss	 xmm1, DWORD PTR _vDir$541403[ebp]
  00097	0f 57 c8	 xorps	 xmm1, xmm0
  0009a	f3 0f 11 4d f0	 movss	 DWORD PTR $T541408[ebp], xmm1
  0009f	f3 0f 10 4d e8	 movss	 xmm1, DWORD PTR _vDir$541403[ebp+4]
  000a4	0f 57 c8	 xorps	 xmm1, xmm0
  000a7	8d 45 f0	 lea	 eax, DWORD PTR $T541408[ebp]
  000aa	50		 push	 eax
  000ab	f3 0f 11 4d f4	 movss	 DWORD PTR $T541408[ebp+4], xmm1
  000b0	f3 0f 10 4d ec	 movss	 xmm1, DWORD PTR _vDir$541403[ebp+8]
  000b5	8d 45 d0	 lea	 eax, DWORD PTR _qtCharRot$541407[ebp]
  000b8	0f 57 c8	 xorps	 xmm1, xmm0
  000bb	50		 push	 eax
  000bc	f3 0f 11 4d f8	 movss	 DWORD PTR $T541408[ebp+8], xmm1
  000c1	ff 15 00 00 00
	00		 call	 DWORD PTR __imp_?CalcDirectionQuaternion@ioMath@@SAXAAUD3DXQUATERNION@@ABUD3DXVECTOR3@@@Z
  000c7	59		 pop	 ecx
  000c8	59		 pop	 ecx

; 174  : 		m_State = SCS_CONTROL;

  000c9	c7 87 6c 09 00
	00 01 00 00 00	 mov	 DWORD PTR [edi+2412], 1
$LN1@ApplyStart:

; 175  : 	}
; 176  : 
; 177  : 	return true;

  000d3	b0 01		 mov	 al, 1
$LN3@ApplyStart:

; 178  : }

  000d5	8b 4d fc	 mov	 ecx, DWORD PTR __$ArrayPad$[ebp]
  000d8	5f		 pop	 edi
  000d9	33 cd		 xor	 ecx, ebp
  000db	5e		 pop	 esi
  000dc	e8 00 00 00 00	 call	 @__security_check_cookie@4
  000e1	c9		 leave
  000e2	c2 0c 00	 ret	 12			; 0000000cH
?ApplyStartBuff@ioSelfControlBuff@@UAE_NPAVioBaseChar@@KK@Z ENDP ; ioSelfControlBuff::ApplyStartBuff
_TEXT	ENDS
PUBLIC	__$ArrayPad$
PUBLIC	?CheckKeyInput@ioSelfControlBuff@@IAEXPAVioBaseChar@@@Z ; ioSelfControlBuff::CheckKeyInput
EXTRN	??1SP2Packet@@UAE@XZ:PROC			; SP2Packet::~SP2Packet
EXTRN	?SendToAllPlayingUser@P2PNetwork@@YAXAAVSP2Packet@@PAVioBaseChar@@@Z:PROC ; P2PNetwork::SendToAllPlayingUser
EXTRN	??6SP2Packet@@QAEAAV0@ABUD3DXQUATERNION@@@Z:PROC ; SP2Packet::operator<<
EXTRN	??6SP2Packet@@QAEAAV0@H@Z:PROC			; SP2Packet::operator<<
EXTRN	??6SP2Packet@@QAEAAV0@ABVioHashString@@@Z:PROC	; SP2Packet::operator<<
EXTRN	??0SP2Packet@@QAE@K@Z:PROC			; SP2Packet::SP2Packet
EXTRN	?CheckCurDirKey@ioBaseChar@@QAE?AW4DirKeyInput@ioUserKeyInput@@XZ:PROC ; ioBaseChar::CheckCurDirKey
EXTRN	__chkstk:PROC
;	COMDAT xdata$x
; File d:\lost saga for developer\youtube\tutorial\source\src\lsclient\iobasechar.h
xdata$x	SEGMENT
__unwindtable$?CheckKeyInput@ioSelfControlBuff@@IAEXPAVioBaseChar@@@Z DD 0ffffffffH
	DD	FLAT:__unwindfunclet$?CheckKeyInput@ioSelfControlBuff@@IAEXPAVioBaseChar@@@Z$0
__ehfuncinfo$?CheckKeyInput@ioSelfControlBuff@@IAEXPAVioBaseChar@@@Z DD 019930522H
	DD	01H
	DD	FLAT:__unwindtable$?CheckKeyInput@ioSelfControlBuff@@IAEXPAVioBaseChar@@@Z
	DD	2 DUP(00H)
	DD	2 DUP(00H)
	DD	00H
	DD	01H
; Function compile flags: /Ogsp
; File d:\lost saga for developer\youtube\tutorial\source\src\lsclient\ioselfcontrolbuff.cpp
xdata$x	ENDS
;	COMDAT ?CheckKeyInput@ioSelfControlBuff@@IAEXPAVioBaseChar@@@Z
_TEXT	SEGMENT
_kPacket$541418 = -32808				; size = 32792
__$ArrayPad$ = -16					; size = 4
__$EHRec$ = -12						; size = 12
_pChar$ = 8						; size = 4
?CheckKeyInput@ioSelfControlBuff@@IAEXPAVioBaseChar@@@Z PROC ; ioSelfControlBuff::CheckKeyInput, COMDAT
; _this$ = ecx

; 182  : {

  00000	55		 push	 ebp
  00001	8b ec		 mov	 ebp, esp
  00003	6a ff		 push	 -1
  00005	68 00 00 00 00	 push	 __ehhandler$?CheckKeyInput@ioSelfControlBuff@@IAEXPAVioBaseChar@@@Z
  0000a	64 a1 00 00 00
	00		 mov	 eax, DWORD PTR fs:0
  00010	50		 push	 eax
  00011	b8 1c 80 00 00	 mov	 eax, 32796		; 0000801cH
  00016	e8 00 00 00 00	 call	 __chkstk
  0001b	a1 00 00 00 00	 mov	 eax, DWORD PTR ___security_cookie
  00020	33 c5		 xor	 eax, ebp
  00022	89 45 f0	 mov	 DWORD PTR __$ArrayPad$[ebp], eax
  00025	56		 push	 esi
  00026	57		 push	 edi
  00027	50		 push	 eax
  00028	8d 45 f4	 lea	 eax, DWORD PTR __$EHRec$[ebp]
  0002b	64 a3 00 00 00
	00		 mov	 DWORD PTR fs:0, eax
  00031	8b 7d 08	 mov	 edi, DWORD PTR _pChar$[ebp]
  00034	8b f1		 mov	 esi, ecx

; 183  : 	if( !pChar ) return;

  00036	85 ff		 test	 edi, edi
  00038	0f 84 cd 00 00
	00		 je	 $LN1@CheckKeyIn

; 184  : 	if( !pChar->IsNeedProcess() ) return;

  0003e	8b 07		 mov	 eax, DWORD PTR [edi]
  00040	8b cf		 mov	 ecx, edi
  00042	ff 90 00 01 00
	00		 call	 DWORD PTR [eax+256]
  00048	84 c0		 test	 al, al
  0004a	0f 84 bb 00 00
	00		 je	 $LN1@CheckKeyIn

; 185  : 
; 186  : 	ioUserKeyInput::DirKeyInput eNewDirKey = pChar->CheckCurDirKey();

  00050	8b cf		 mov	 ecx, edi
  00052	e8 00 00 00 00	 call	 ?CheckCurDirKey@ioBaseChar@@QAE?AW4DirKeyInput@ioUserKeyInput@@XZ ; ioBaseChar::CheckCurDirKey

; 187  : 	if( eNewDirKey != m_CurDirKey )

  00057	3b 86 88 09 00
	00		 cmp	 eax, DWORD PTR [esi+2440]
  0005d	0f 84 a8 00 00
	00		 je	 $LN1@CheckKeyIn

; 188  : 	{	
; 189  : 		m_CurDirKey = eNewDirKey;
; 190  : 
; 191  : 		if ( m_pOwner->IsNeedSendNetwork() )

  00063	8b 8e 74 02 00
	00		 mov	 ecx, DWORD PTR [esi+628]
  00069	89 86 88 09 00
	00		 mov	 DWORD PTR [esi+2440], eax
  0006f	8b 01		 mov	 eax, DWORD PTR [ecx]
  00071	ff 90 04 01 00
	00		 call	 DWORD PTR [eax+260]
  00077	84 c0		 test	 al, al
  00079	0f 84 8c 00 00
	00		 je	 $LN1@CheckKeyIn

; 192  : 		{
; 193  : 			SP2Packet kPacket( CUPK_APPLY_EXTRA_BUFF_INFO );

  0007f	68 45 42 00 00	 push	 16965			; 00004245H
  00084	8d 8d d8 7f ff
	ff		 lea	 ecx, DWORD PTR _kPacket$541418[ebp]
  0008a	e8 00 00 00 00	 call	 ??0SP2Packet@@QAE@K@Z	; SP2Packet::SP2Packet

; 194  : 			kPacket << m_pOwner->GetCharName();

  0008f	8b 86 74 02 00
	00		 mov	 eax, DWORD PTR [esi+628]
  00095	83 65 fc 00	 and	 DWORD PTR __$EHRec$[ebp+8], 0
  00099	05 d4 02 00 00	 add	 eax, 724		; 000002d4H
  0009e	50		 push	 eax
  0009f	8d 8d d8 7f ff
	ff		 lea	 ecx, DWORD PTR _kPacket$541418[ebp]
  000a5	e8 00 00 00 00	 call	 ??6SP2Packet@@QAEAAV0@ABVioHashString@@@Z ; SP2Packet::operator<<

; 195  : 			kPacket << GetName();

  000aa	8d 86 34 02 00
	00		 lea	 eax, DWORD PTR [esi+564]
  000b0	50		 push	 eax
  000b1	8d 8d d8 7f ff
	ff		 lea	 ecx, DWORD PTR _kPacket$541418[ebp]
  000b7	e8 00 00 00 00	 call	 ??6SP2Packet@@QAEAAV0@ABVioHashString@@@Z ; SP2Packet::operator<<

; 196  : 			kPacket << SS_KEY;

  000bc	6a 00		 push	 0
  000be	8d 8d d8 7f ff
	ff		 lea	 ecx, DWORD PTR _kPacket$541418[ebp]
  000c4	e8 00 00 00 00	 call	 ??6SP2Packet@@QAEAAV0@H@Z ; SP2Packet::operator<<

; 197  : 			kPacket << pChar->GetTargetRot();				

  000c9	81 c7 a4 06 00
	00		 add	 edi, 1700		; 000006a4H
  000cf	57		 push	 edi
  000d0	8d 8d d8 7f ff
	ff		 lea	 ecx, DWORD PTR _kPacket$541418[ebp]
  000d6	e8 00 00 00 00	 call	 ??6SP2Packet@@QAEAAV0@ABUD3DXQUATERNION@@@Z ; SP2Packet::operator<<

; 198  : 			kPacket << (int)m_CurDirKey;

  000db	ff b6 88 09 00
	00		 push	 DWORD PTR [esi+2440]
  000e1	8d 8d d8 7f ff
	ff		 lea	 ecx, DWORD PTR _kPacket$541418[ebp]
  000e7	e8 00 00 00 00	 call	 ??6SP2Packet@@QAEAAV0@H@Z ; SP2Packet::operator<<

; 199  : 			P2PNetwork::SendToAllPlayingUser( kPacket );

  000ec	8d 85 d8 7f ff
	ff		 lea	 eax, DWORD PTR _kPacket$541418[ebp]
  000f2	6a 00		 push	 0
  000f4	50		 push	 eax
  000f5	e8 00 00 00 00	 call	 ?SendToAllPlayingUser@P2PNetwork@@YAXAAVSP2Packet@@PAVioBaseChar@@@Z ; P2PNetwork::SendToAllPlayingUser

; 200  : 		}

  000fa	83 4d fc ff	 or	 DWORD PTR __$EHRec$[ebp+8], -1
  000fe	59		 pop	 ecx
  000ff	59		 pop	 ecx
  00100	8d 8d d8 7f ff
	ff		 lea	 ecx, DWORD PTR _kPacket$541418[ebp]
  00106	e8 00 00 00 00	 call	 ??1SP2Packet@@UAE@XZ	; SP2Packet::~SP2Packet
$LN1@CheckKeyIn:

; 201  : 	}
; 202  : }

  0010b	8b 4d f4	 mov	 ecx, DWORD PTR __$EHRec$[ebp]
  0010e	64 89 0d 00 00
	00 00		 mov	 DWORD PTR fs:0, ecx
  00115	59		 pop	 ecx
  00116	5f		 pop	 edi
  00117	5e		 pop	 esi
  00118	8b 4d f0	 mov	 ecx, DWORD PTR __$ArrayPad$[ebp]
  0011b	33 cd		 xor	 ecx, ebp
  0011d	e8 00 00 00 00	 call	 @__security_check_cookie@4
  00122	c9		 leave
  00123	c2 04 00	 ret	 4
_TEXT	ENDS
;	COMDAT text$x
text$x	SEGMENT
__unwindfunclet$?CheckKeyInput@ioSelfControlBuff@@IAEXPAVioBaseChar@@@Z$0:
  00000	8d 8d d8 7f ff
	ff		 lea	 ecx, DWORD PTR _kPacket$541418[ebp]
  00006	e9 00 00 00 00	 jmp	 ??1SP2Packet@@UAE@XZ	; SP2Packet::~SP2Packet
__ehhandler$?CheckKeyInput@ioSelfControlBuff@@IAEXPAVioBaseChar@@@Z:
  0000b	8b 54 24 08	 mov	 edx, DWORD PTR [esp+8]
  0000f	8d 42 0c	 lea	 eax, DWORD PTR [edx+12]
  00012	8b 8a d8 7f ff
	ff		 mov	 ecx, DWORD PTR [edx-32808]
  00018	33 c8		 xor	 ecx, eax
  0001a	e8 00 00 00 00	 call	 @__security_check_cookie@4
  0001f	8b 4a fc	 mov	 ecx, DWORD PTR [edx-4]
  00022	33 c8		 xor	 ecx, eax
  00024	e8 00 00 00 00	 call	 @__security_check_cookie@4
  00029	b8 00 00 00 00	 mov	 eax, OFFSET __ehfuncinfo$?CheckKeyInput@ioSelfControlBuff@@IAEXPAVioBaseChar@@@Z
  0002e	e9 00 00 00 00	 jmp	 ___CxxFrameHandler3
text$x	ENDS
?CheckKeyInput@ioSelfControlBuff@@IAEXPAVioBaseChar@@@Z ENDP ; ioSelfControlBuff::CheckKeyInput
EXTRN	?SetTargetRotToRotate@ioBaseChar@@QAEXABUD3DXQUATERNION@@_N1@Z:PROC ; ioBaseChar::SetTargetRotToRotate
EXTRN	??5SP2Packet@@QAEAAV0@AAUD3DXQUATERNION@@@Z:PROC ; SP2Packet::operator>>
EXTRN	?GetOwner@ioBuff@@QAEPAVioBaseChar@@XZ:PROC	; ioBuff::GetOwner
EXTRN	??5SP2Packet@@QAEAAV0@AAH@Z:PROC		; SP2Packet::operator>>
; Function compile flags: /Ogsp
;	COMDAT ?ApplyExtraBuffInfo@ioSelfControlBuff@@UAEXAAVSP2Packet@@@Z
_TEXT	SEGMENT
_qtRot$541477 = -24					; size = 16
_nCurKey$541478 = -8					; size = 4
_iState$ = -4						; size = 4
_rkPacket$ = 8						; size = 4
?ApplyExtraBuffInfo@ioSelfControlBuff@@UAEXAAVSP2Packet@@@Z PROC ; ioSelfControlBuff::ApplyExtraBuffInfo, COMDAT
; _this$ = ecx

; 266  : {

  00000	55		 push	 ebp
  00001	8b ec		 mov	 ebp, esp
  00003	83 ec 18	 sub	 esp, 24			; 00000018H
  00006	56		 push	 esi
  00007	57		 push	 edi

; 267  : 	int iState;
; 268  : 	rkPacket >> iState;

  00008	8d 45 fc	 lea	 eax, DWORD PTR _iState$[ebp]
  0000b	8b f1		 mov	 esi, ecx
  0000d	8b 4d 08	 mov	 ecx, DWORD PTR _rkPacket$[ebp]
  00010	50		 push	 eax
  00011	e8 00 00 00 00	 call	 ??5SP2Packet@@QAEAAV0@AAH@Z ; SP2Packet::operator>>

; 269  : 	
; 270  : 	ioBaseChar *pOwner = GetOwner();

  00016	8b ce		 mov	 ecx, esi
  00018	e8 00 00 00 00	 call	 ?GetOwner@ioBuff@@QAEPAVioBaseChar@@XZ ; ioBuff::GetOwner
  0001d	8b f8		 mov	 edi, eax

; 271  : 	if( !pOwner )

  0001f	85 ff		 test	 edi, edi
  00021	74 36		 je	 SHORT $LN2@ApplyExtra

; 272  : 		return;
; 273  : 
; 274  : 	switch( iState )

  00023	83 7d fc 00	 cmp	 DWORD PTR _iState$[ebp], 0
  00027	75 30		 jne	 SHORT $LN2@ApplyExtra

; 275  : 	{
; 276  : 	case SS_KEY:
; 277  : 		{
; 278  : 			D3DXQUATERNION qtRot;
; 279  : 			rkPacket >> qtRot;

  00029	8b 4d 08	 mov	 ecx, DWORD PTR _rkPacket$[ebp]
  0002c	8d 45 e8	 lea	 eax, DWORD PTR _qtRot$541477[ebp]
  0002f	50		 push	 eax
  00030	e8 00 00 00 00	 call	 ??5SP2Packet@@QAEAAV0@AAUD3DXQUATERNION@@@Z ; SP2Packet::operator>>

; 280  : 			pOwner->SetTargetRotToRotate( qtRot, true, false );

  00035	6a 00		 push	 0
  00037	6a 01		 push	 1
  00039	8d 45 e8	 lea	 eax, DWORD PTR _qtRot$541477[ebp]
  0003c	50		 push	 eax
  0003d	8b cf		 mov	 ecx, edi
  0003f	e8 00 00 00 00	 call	 ?SetTargetRotToRotate@ioBaseChar@@QAEXABUD3DXQUATERNION@@_N1@Z ; ioBaseChar::SetTargetRotToRotate

; 281  : 			int nCurKey;
; 282  : 			rkPacket >>	nCurKey;

  00044	8b 4d 08	 mov	 ecx, DWORD PTR _rkPacket$[ebp]
  00047	8d 45 f8	 lea	 eax, DWORD PTR _nCurKey$541478[ebp]
  0004a	50		 push	 eax
  0004b	e8 00 00 00 00	 call	 ??5SP2Packet@@QAEAAV0@AAH@Z ; SP2Packet::operator>>

; 283  : 			m_CurDirKey = (ioUserKeyInput::DirKeyInput)nCurKey;

  00050	8b 45 f8	 mov	 eax, DWORD PTR _nCurKey$541478[ebp]
  00053	89 86 88 09 00
	00		 mov	 DWORD PTR [esi+2440], eax
$LN2@ApplyExtra:
  00059	5f		 pop	 edi
  0005a	5e		 pop	 esi

; 284  : 		}
; 285  : 		break;
; 286  : 	}
; 287  : }

  0005b	c9		 leave
  0005c	c2 04 00	 ret	 4
?ApplyExtraBuffInfo@ioSelfControlBuff@@UAEXAAVSP2Packet@@@Z ENDP ; ioSelfControlBuff::ApplyExtraBuffInfo
_TEXT	ENDS
PUBLIC	??M?$CEncrypt@M@@QAE_NABM@Z			; CEncrypt<float>::operator<
; Function compile flags: /Ogsp
; File d:\lost saga for developer\youtube\tutorial\source\src\lsclient\encryptvalue.h
;	COMDAT ??M?$CEncrypt@M@@QAE_NABM@Z
_TEXT	SEGMENT
_value$ = -4						; size = 4
_inValue$ = 8						; size = 4
??M?$CEncrypt@M@@QAE_NABM@Z PROC			; CEncrypt<float>::operator<, COMDAT
; _this$ = ecx

; 1791 : 	{

  00000	55		 push	 ebp
  00001	8b ec		 mov	 ebp, esp
  00003	51		 push	 ecx

; 1792 : 		type value;
; 1793 : 		DecryptValueToPool(&value);

  00004	8d 45 fc	 lea	 eax, DWORD PTR _value$[ebp]
  00007	50		 push	 eax
  00008	e8 00 00 00 00	 call	 ?DecryptValueToPool@?$CEncrypt@M@@QAEXPAM@Z ; CEncrypt<float>::DecryptValueToPool

; 1794 : #ifdef _NOTUSE
; 1795 : 		Debug();
; 1796 : #endif
; 1797 : 		return (value < inValue);

  0000d	8b 45 08	 mov	 eax, DWORD PTR _inValue$[ebp]
  00010	f3 0f 10 08	 movss	 xmm1, DWORD PTR [eax]
  00014	f3 0f 10 45 fc	 movss	 xmm0, DWORD PTR _value$[ebp]
  00019	0f 5a c0	 cvtps2pd xmm0, xmm0
  0001c	0f 5a c9	 cvtps2pd xmm1, xmm1
  0001f	33 c0		 xor	 eax, eax
  00021	66 0f 2f c8	 comisd	 xmm1, xmm0
  00025	76 01		 jbe	 SHORT $LN4@operator
  00027	40		 inc	 eax
$LN4@operator:

; 1798 : 	} 

  00028	c9		 leave
  00029	c2 04 00	 ret	 4
??M?$CEncrypt@M@@QAE_NABM@Z ENDP			; CEncrypt<float>::operator<
_TEXT	ENDS
PUBLIC	??N?$CEncrypt@K@@QAE_NABK@Z			; CEncrypt<unsigned long>::operator<=
; Function compile flags: /Ogsp
;	COMDAT ??N?$CEncrypt@K@@QAE_NABK@Z
_TEXT	SEGMENT
_value$ = -4						; size = 4
_inValue$ = 8						; size = 4
??N?$CEncrypt@K@@QAE_NABK@Z PROC			; CEncrypt<unsigned long>::operator<=, COMDAT
; _this$ = ecx

; 1431 : 	{

  00000	55		 push	 ebp
  00001	8b ec		 mov	 ebp, esp
  00003	51		 push	 ecx

; 1432 : 		
; 1433 : 		type value;
; 1434 : 		DecryptValueToPool(&value);

  00004	8d 45 fc	 lea	 eax, DWORD PTR _value$[ebp]
  00007	50		 push	 eax
  00008	e8 00 00 00 00	 call	 ?DecryptValueToPool@?$CEncrypt@K@@QAEXPAK@Z ; CEncrypt<unsigned long>::DecryptValueToPool

; 1435 : #ifdef _NOTUSE
; 1436 : 		Debug();
; 1437 : #endif
; 1438 : 		return (value <= inValue);

  0000d	8b 45 08	 mov	 eax, DWORD PTR _inValue$[ebp]
  00010	8b 00		 mov	 eax, DWORD PTR [eax]
  00012	3b 45 fc	 cmp	 eax, DWORD PTR _value$[ebp]
  00015	1b c0		 sbb	 eax, eax
  00017	40		 inc	 eax

; 1439 : 	}		

  00018	c9		 leave
  00019	c2 04 00	 ret	 4
??N?$CEncrypt@K@@QAE_NABK@Z ENDP			; CEncrypt<unsigned long>::operator<=
_TEXT	ENDS
PUBLIC	??0?$_Vector_iterator@V?$_Vector_val@UCallAttribute@@V?$allocator@UCallAttribute@@@std@@@std@@@std@@QAE@PAUCallAttribute@@PBU_Container_base0@1@@Z ; std::_Vector_iterator<std::_Vector_val<CallAttribute,std::allocator<CallAttribute> > >::_Vector_iterator<std::_Vector_val<CallAttribute,std::allocator<CallAttribute> > >
; Function compile flags: /Ogsp
; File c:\program files (x86)\microsoft visual studio 10.0\vc\include\vector
;	COMDAT ??0?$_Vector_iterator@V?$_Vector_val@UCallAttribute@@V?$allocator@UCallAttribute@@@std@@@std@@@std@@QAE@PAUCallAttribute@@PBU_Container_base0@1@@Z
_TEXT	SEGMENT
__Parg$ = 8						; size = 4
__Pvector$ = 12						; size = 4
??0?$_Vector_iterator@V?$_Vector_val@UCallAttribute@@V?$allocator@UCallAttribute@@@std@@@std@@@std@@QAE@PAUCallAttribute@@PBU_Container_base0@1@@Z PROC ; std::_Vector_iterator<std::_Vector_val<CallAttribute,std::allocator<CallAttribute> > >::_Vector_iterator<std::_Vector_val<CallAttribute,std::allocator<CallAttribute> > >, COMDAT
; _this$ = ecx

; 304  : 		{	// construct with pointer _Parg

  00000	55		 push	 ebp
  00001	8b ec		 mov	 ebp, esp
  00003	8b c1		 mov	 eax, ecx
  00005	8b 4d 08	 mov	 ecx, DWORD PTR __Parg$[ebp]
  00008	89 08		 mov	 DWORD PTR [eax], ecx

; 305  : 		}

  0000a	5d		 pop	 ebp
  0000b	c2 08 00	 ret	 8
??0?$_Vector_iterator@V?$_Vector_val@UCallAttribute@@V?$allocator@UCallAttribute@@@std@@@std@@@std@@QAE@PAUCallAttribute@@PBU_Container_base0@1@@Z ENDP ; std::_Vector_iterator<std::_Vector_val<CallAttribute,std::allocator<CallAttribute> > >::_Vector_iterator<std::_Vector_val<CallAttribute,std::allocator<CallAttribute> > >
_TEXT	ENDS
PUBLIC	_this$GSCopy$
PUBLIC	__$ArrayPad$
PUBLIC	??$LoadString_e@$0P@@ioINILoader@@QAEXAAY0P@$$CBDAAY00$$CBDPADH@Z ; ioINILoader::LoadString_e<15>
EXTRN	__imp_?LoadStringA@ioINILoader@@QAEXPBD0PADH@Z:PROC
; Function compile flags: /Ogsp
; File d:\lost saga for developer\youtube\tutorial\source\src\io3dengine\ioiniloader.h
;	COMDAT ??$LoadString_e@$0P@@ioINILoader@@QAEXAAY0P@$$CBDAAY00$$CBDPADH@Z
_TEXT	SEGMENT
_this$GSCopy$ = -28					; size = 4
__k$ = -24						; size = 15
__$ArrayPad$ = -4					; size = 4
_k$ = 8							; size = 4
_d$ = 12						; size = 4
_b$ = 16						; size = 4
_i$ = 20						; size = 4
??$LoadString_e@$0P@@ioINILoader@@QAEXAAY0P@$$CBDAAY00$$CBDPADH@Z PROC ; ioINILoader::LoadString_e<15>, COMDAT
; _this$ = ecx

; 161  : 	{

  00000	55		 push	 ebp
  00001	8b ec		 mov	 ebp, esp
  00003	83 ec 1c	 sub	 esp, 28			; 0000001cH
  00006	a1 00 00 00 00	 mov	 eax, DWORD PTR ___security_cookie
  0000b	33 c5		 xor	 eax, ebp
  0000d	89 45 fc	 mov	 DWORD PTR __$ArrayPad$[ebp], eax
  00010	8b 45 08	 mov	 eax, DWORD PTR _k$[ebp]

; 162  : 		_ENCSTR(k, _k);

  00013	8a 10		 mov	 dl, BYTE PTR [eax]
  00015	56		 push	 esi
  00016	8b 75 0c	 mov	 esi, DWORD PTR _d$[ebp]
  00019	57		 push	 edi
  0001a	8b 7d 10	 mov	 edi, DWORD PTR _b$[ebp]
  0001d	89 4d e4	 mov	 DWORD PTR _this$GSCopy$[ebp], ecx
  00020	84 d2		 test	 dl, dl
  00022	0f 84 75 01 00
	00		 je	 $LN96@LoadString
  00028	80 f2 ed	 xor	 dl, -19			; ffffffedH
  0002b	88 55 e8	 mov	 BYTE PTR __k$[ebp], dl
  0002e	8a 50 01	 mov	 dl, BYTE PTR [eax+1]
  00031	84 d2		 test	 dl, dl
  00033	0f 84 5e 01 00
	00		 je	 $LN95@LoadString
  00039	b1 ec		 mov	 cl, -20			; ffffffecH
  0003b	32 d1		 xor	 dl, cl
  0003d	88 55 e9	 mov	 BYTE PTR __k$[ebp+1], dl
  00040	8a 50 02	 mov	 dl, BYTE PTR [eax+2]
  00043	84 d2		 test	 dl, dl
  00045	0f 84 46 01 00
	00		 je	 $LN94@LoadString
  0004b	80 f2 eb	 xor	 dl, -21			; ffffffebH
  0004e	88 55 ea	 mov	 BYTE PTR __k$[ebp+2], dl
  00051	8a 50 03	 mov	 dl, BYTE PTR [eax+3]
  00054	84 d2		 test	 dl, dl
  00056	0f 84 2f 01 00
	00		 je	 $LN93@LoadString
  0005c	80 f2 ea	 xor	 dl, -22			; ffffffeaH
  0005f	88 55 eb	 mov	 BYTE PTR __k$[ebp+3], dl
  00062	8a 50 04	 mov	 dl, BYTE PTR [eax+4]
  00065	84 d2		 test	 dl, dl
  00067	0f 84 18 01 00
	00		 je	 $LN92@LoadString
  0006d	80 f2 ed	 xor	 dl, -19			; ffffffedH
  00070	88 55 ec	 mov	 BYTE PTR __k$[ebp+4], dl
  00073	8a 50 05	 mov	 dl, BYTE PTR [eax+5]
  00076	84 d2		 test	 dl, dl
  00078	0f 84 02 01 00
	00		 je	 $LN91@LoadString
  0007e	32 d1		 xor	 dl, cl
  00080	88 55 ed	 mov	 BYTE PTR __k$[ebp+5], dl
  00083	8a 50 06	 mov	 dl, BYTE PTR [eax+6]
  00086	84 d2		 test	 dl, dl
  00088	0f 84 ec 00 00
	00		 je	 $LN90@LoadString
  0008e	80 f2 eb	 xor	 dl, -21			; ffffffebH
  00091	88 55 ee	 mov	 BYTE PTR __k$[ebp+6], dl
  00094	8a 50 07	 mov	 dl, BYTE PTR [eax+7]
  00097	84 d2		 test	 dl, dl
  00099	0f 84 d5 00 00
	00		 je	 $LN89@LoadString
  0009f	80 f2 ea	 xor	 dl, -22			; ffffffeaH
  000a2	88 55 ef	 mov	 BYTE PTR __k$[ebp+7], dl
  000a5	8a 50 08	 mov	 dl, BYTE PTR [eax+8]
  000a8	84 d2		 test	 dl, dl
  000aa	0f 84 be 00 00
	00		 je	 $LN88@LoadString
  000b0	80 f2 ed	 xor	 dl, -19			; ffffffedH
  000b3	88 55 f0	 mov	 BYTE PTR __k$[ebp+8], dl
  000b6	8a 50 09	 mov	 dl, BYTE PTR [eax+9]
  000b9	84 d2		 test	 dl, dl
  000bb	0f 84 a8 00 00
	00		 je	 $LN87@LoadString
  000c1	32 d1		 xor	 dl, cl
  000c3	88 55 f1	 mov	 BYTE PTR __k$[ebp+9], dl
  000c6	8a 50 0a	 mov	 dl, BYTE PTR [eax+10]
  000c9	84 d2		 test	 dl, dl
  000cb	0f 84 92 00 00
	00		 je	 $LN86@LoadString
  000d1	80 f2 eb	 xor	 dl, -21			; ffffffebH
  000d4	88 55 f2	 mov	 BYTE PTR __k$[ebp+10], dl
  000d7	8a 50 0b	 mov	 dl, BYTE PTR [eax+11]
  000da	84 d2		 test	 dl, dl
  000dc	74 7f		 je	 SHORT $LN85@LoadString
  000de	80 f2 ea	 xor	 dl, -22			; ffffffeaH
  000e1	88 55 f3	 mov	 BYTE PTR __k$[ebp+11], dl
  000e4	8a 50 0c	 mov	 dl, BYTE PTR [eax+12]
  000e7	84 d2		 test	 dl, dl
  000e9	74 6c		 je	 SHORT $LN84@LoadString
  000eb	80 f2 ed	 xor	 dl, -19			; ffffffedH
  000ee	88 55 f4	 mov	 BYTE PTR __k$[ebp+12], dl
  000f1	8a 50 0d	 mov	 dl, BYTE PTR [eax+13]
  000f4	84 d2		 test	 dl, dl
  000f6	74 5a		 je	 SHORT $LN83@LoadString
  000f8	32 d1		 xor	 dl, cl
  000fa	80 78 0e 00	 cmp	 BYTE PTR [eax+14], 0
  000fe	88 55 f5	 mov	 BYTE PTR __k$[ebp+13], dl
  00101	0f 84 9a 00 00
	00		 je	 $LN111@LoadString
  00107	8a 50 0f	 mov	 dl, BYTE PTR [eax+15]
  0010a	84 d2		 test	 dl, dl
  0010c	74 3e		 je	 SHORT $LN81@LoadString
  0010e	80 f2 ea	 xor	 dl, -22			; ffffffeaH
  00111	88 55 f7	 mov	 BYTE PTR __k$[ebp+15], dl
  00114	8a 50 10	 mov	 dl, BYTE PTR [eax+16]
  00117	84 d2		 test	 dl, dl
  00119	74 2b		 je	 SHORT $LN80@LoadString
  0011b	80 f2 ed	 xor	 dl, -19			; ffffffedH
  0011e	88 55 f8	 mov	 BYTE PTR __k$[ebp+16], dl
  00121	8a 50 11	 mov	 dl, BYTE PTR [eax+17]
  00124	84 d2		 test	 dl, dl
  00126	74 19		 je	 SHORT $LN79@LoadString
  00128	8a 40 12	 mov	 al, BYTE PTR [eax+18]
  0012b	32 d1		 xor	 dl, cl
  0012d	88 55 f9	 mov	 BYTE PTR __k$[ebp+17], dl
  00130	84 c0		 test	 al, al
  00132	74 07		 je	 SHORT $LN78@LoadString
  00134	34 eb		 xor	 al, -21			; ffffffebH
  00136	88 45 fa	 mov	 BYTE PTR __k$[ebp+18], al
  00139	eb 66		 jmp	 SHORT $LN111@LoadString
$LN78@LoadString:
  0013b	c6 45 fa eb	 mov	 BYTE PTR __k$[ebp+18], -21 ; ffffffebH
  0013f	eb 60		 jmp	 SHORT $LN111@LoadString
$LN79@LoadString:
  00141	88 4d f9	 mov	 BYTE PTR __k$[ebp+17], cl
  00144	eb 5b		 jmp	 SHORT $LN111@LoadString
$LN80@LoadString:
  00146	c6 45 f8 ed	 mov	 BYTE PTR __k$[ebp+16], -19 ; ffffffedH
  0014a	eb 55		 jmp	 SHORT $LN111@LoadString
$LN81@LoadString:
  0014c	c6 45 f7 ea	 mov	 BYTE PTR __k$[ebp+15], -22 ; ffffffeaH
  00150	eb 4f		 jmp	 SHORT $LN111@LoadString
$LN83@LoadString:
  00152	88 4d f5	 mov	 BYTE PTR __k$[ebp+13], cl
  00155	eb 4a		 jmp	 SHORT $LN111@LoadString
$LN84@LoadString:
  00157	c6 45 f4 ed	 mov	 BYTE PTR __k$[ebp+12], -19 ; ffffffedH
  0015b	eb 44		 jmp	 SHORT $LN111@LoadString
$LN85@LoadString:
  0015d	c6 45 f3 ea	 mov	 BYTE PTR __k$[ebp+11], -22 ; ffffffeaH
  00161	eb 3e		 jmp	 SHORT $LN111@LoadString
$LN86@LoadString:
  00163	c6 45 f2 eb	 mov	 BYTE PTR __k$[ebp+10], -21 ; ffffffebH
  00167	eb 38		 jmp	 SHORT $LN111@LoadString
$LN87@LoadString:
  00169	88 4d f1	 mov	 BYTE PTR __k$[ebp+9], cl
  0016c	eb 33		 jmp	 SHORT $LN111@LoadString
$LN88@LoadString:
  0016e	c6 45 f0 ed	 mov	 BYTE PTR __k$[ebp+8], -19 ; ffffffedH
  00172	eb 2d		 jmp	 SHORT $LN111@LoadString
$LN89@LoadString:
  00174	c6 45 ef ea	 mov	 BYTE PTR __k$[ebp+7], -22 ; ffffffeaH
  00178	eb 27		 jmp	 SHORT $LN111@LoadString
$LN90@LoadString:
  0017a	c6 45 ee eb	 mov	 BYTE PTR __k$[ebp+6], -21 ; ffffffebH
  0017e	eb 21		 jmp	 SHORT $LN111@LoadString
$LN91@LoadString:
  00180	88 4d ed	 mov	 BYTE PTR __k$[ebp+5], cl
  00183	eb 1c		 jmp	 SHORT $LN111@LoadString
$LN92@LoadString:
  00185	c6 45 ec ed	 mov	 BYTE PTR __k$[ebp+4], -19 ; ffffffedH
  00189	eb 16		 jmp	 SHORT $LN111@LoadString
$LN93@LoadString:
  0018b	c6 45 eb ea	 mov	 BYTE PTR __k$[ebp+3], -22 ; ffffffeaH
  0018f	eb 10		 jmp	 SHORT $LN111@LoadString
$LN94@LoadString:
  00191	c6 45 ea eb	 mov	 BYTE PTR __k$[ebp+2], -21 ; ffffffebH
  00195	eb 0a		 jmp	 SHORT $LN111@LoadString
$LN95@LoadString:
  00197	c6 45 e9 ec	 mov	 BYTE PTR __k$[ebp+1], -20 ; ffffffecH
  0019b	eb 04		 jmp	 SHORT $LN111@LoadString
$LN96@LoadString:
  0019d	c6 45 e8 ed	 mov	 BYTE PTR __k$[ebp], -19	; ffffffedH
$LN111@LoadString:
  001a1	6a 03		 push	 3
  001a3	8d 45 e8	 lea	 eax, DWORD PTR __k$[ebp]
  001a6	c6 45 f6 00	 mov	 BYTE PTR __k$[ebp+14], 0
  001aa	5a		 pop	 edx
$LL104@LoadString:
  001ab	81 30 ed ec eb
	ea		 xor	 DWORD PTR [eax], -353637139 ; eaebecedH
  001b1	83 c0 04	 add	 eax, 4
  001b4	4a		 dec	 edx
  001b5	75 f4		 jne	 SHORT $LL104@LoadString
  001b7	6a 0c		 push	 12			; 0000000cH
  001b9	58		 pop	 eax
$LL101@LoadString:
  001ba	8b c8		 mov	 ecx, eax
  001bc	81 e1 03 00 00
	80		 and	 ecx, -2147483645	; 80000003H
  001c2	79 05		 jns	 SHORT $LN112@LoadString
  001c4	49		 dec	 ecx
  001c5	83 c9 fc	 or	 ecx, -4			; fffffffcH
  001c8	41		 inc	 ecx
$LN112@LoadString:
  001c9	b2 ed		 mov	 dl, -19			; ffffffedH
  001cb	2a d1		 sub	 dl, cl
  001cd	30 54 05 e8	 xor	 BYTE PTR __k$[ebp+eax], dl
  001d1	40		 inc	 eax
  001d2	83 f8 0e	 cmp	 eax, 14			; 0000000eH
  001d5	7c e3		 jl	 SHORT $LL101@LoadString

; 163  : 		LoadString(_k, d, b, i);

  001d7	ff 75 14	 push	 DWORD PTR _i$[ebp]
  001da	8b 4d e4	 mov	 ecx, DWORD PTR _this$GSCopy$[ebp]
  001dd	57		 push	 edi
  001de	56		 push	 esi
  001df	8d 45 e8	 lea	 eax, DWORD PTR __k$[ebp]
  001e2	50		 push	 eax
  001e3	ff 15 00 00 00
	00		 call	 DWORD PTR __imp_?LoadStringA@ioINILoader@@QAEXPBD0PADH@Z

; 164  : 	}

  001e9	8b 4d fc	 mov	 ecx, DWORD PTR __$ArrayPad$[ebp]
  001ec	5f		 pop	 edi
  001ed	33 cd		 xor	 ecx, ebp
  001ef	5e		 pop	 esi
  001f0	e8 00 00 00 00	 call	 @__security_check_cookie@4
  001f5	c9		 leave
  001f6	c2 10 00	 ret	 16			; 00000010H
??$LoadString_e@$0P@@ioINILoader@@QAEXAAY0P@$$CBDAAY00$$CBDPADH@Z ENDP ; ioINILoader::LoadString_e<15>
_TEXT	ENDS
PUBLIC	__$ArrayPad$
PUBLIC	??$LoadFloat_e@$0L@@ioINILoader@@QAEMAAY0L@$$CBDM@Z ; ioINILoader::LoadFloat_e<11>
EXTRN	__imp_?LoadFloat@ioINILoader@@QAEMPBDM@Z:PROC
; Function compile flags: /Ogsp
;	COMDAT ??$LoadFloat_e@$0L@@ioINILoader@@QAEMAAY0L@$$CBDM@Z
_TEXT	SEGMENT
__k$ = -20						; size = 11
__$ArrayPad$ = -4					; size = 4
_k$ = 8							; size = 4
_f$ = 12						; size = 4
??$LoadFloat_e@$0L@@ioINILoader@@QAEMAAY0L@$$CBDM@Z PROC ; ioINILoader::LoadFloat_e<11>, COMDAT
; _this$ = ecx

; 135  : 	{

  00000	55		 push	 ebp
  00001	8b ec		 mov	 ebp, esp
  00003	83 ec 14	 sub	 esp, 20			; 00000014H
  00006	a1 00 00 00 00	 mov	 eax, DWORD PTR ___security_cookie
  0000b	33 c5		 xor	 eax, ebp
  0000d	89 45 fc	 mov	 DWORD PTR __$ArrayPad$[ebp], eax
  00010	8b 45 08	 mov	 eax, DWORD PTR _k$[ebp]

; 136  : 		_ENCSTR(k, _k);

  00013	8a 10		 mov	 dl, BYTE PTR [eax]
  00015	56		 push	 esi
  00016	8b f1		 mov	 esi, ecx
  00018	84 d2		 test	 dl, dl
  0001a	0f 84 24 01 00
	00		 je	 $LN96@LoadFloat_
  00020	80 f2 ed	 xor	 dl, -19			; ffffffedH
  00023	88 55 ec	 mov	 BYTE PTR __k$[ebp], dl
  00026	8a 50 01	 mov	 dl, BYTE PTR [eax+1]
  00029	84 d2		 test	 dl, dl
  0002b	0f 84 0d 01 00
	00		 je	 $LN95@LoadFloat_
  00031	80 f2 ec	 xor	 dl, -20			; ffffffecH
  00034	88 55 ed	 mov	 BYTE PTR __k$[ebp+1], dl
  00037	8a 50 02	 mov	 dl, BYTE PTR [eax+2]
  0003a	84 d2		 test	 dl, dl
  0003c	0f 84 f6 00 00
	00		 je	 $LN94@LoadFloat_
  00042	80 f2 eb	 xor	 dl, -21			; ffffffebH
  00045	88 55 ee	 mov	 BYTE PTR __k$[ebp+2], dl
  00048	8a 50 03	 mov	 dl, BYTE PTR [eax+3]
  0004b	84 d2		 test	 dl, dl
  0004d	0f 84 df 00 00
	00		 je	 $LN93@LoadFloat_
  00053	80 f2 ea	 xor	 dl, -22			; ffffffeaH
  00056	88 55 ef	 mov	 BYTE PTR __k$[ebp+3], dl
  00059	8a 50 04	 mov	 dl, BYTE PTR [eax+4]
  0005c	84 d2		 test	 dl, dl
  0005e	0f 84 c8 00 00
	00		 je	 $LN92@LoadFloat_
  00064	80 f2 ed	 xor	 dl, -19			; ffffffedH
  00067	88 55 f0	 mov	 BYTE PTR __k$[ebp+4], dl
  0006a	8a 50 05	 mov	 dl, BYTE PTR [eax+5]
  0006d	84 d2		 test	 dl, dl
  0006f	0f 84 b1 00 00
	00		 je	 $LN91@LoadFloat_
  00075	80 f2 ec	 xor	 dl, -20			; ffffffecH
  00078	88 55 f1	 mov	 BYTE PTR __k$[ebp+5], dl
  0007b	8a 50 06	 mov	 dl, BYTE PTR [eax+6]
  0007e	84 d2		 test	 dl, dl
  00080	0f 84 9a 00 00
	00		 je	 $LN90@LoadFloat_
  00086	80 f2 eb	 xor	 dl, -21			; ffffffebH
  00089	88 55 f2	 mov	 BYTE PTR __k$[ebp+6], dl
  0008c	8a 50 07	 mov	 dl, BYTE PTR [eax+7]
  0008f	84 d2		 test	 dl, dl
  00091	0f 84 83 00 00
	00		 je	 $LN89@LoadFloat_
  00097	80 f2 ea	 xor	 dl, -22			; ffffffeaH
  0009a	88 55 f3	 mov	 BYTE PTR __k$[ebp+7], dl
  0009d	8a 50 08	 mov	 dl, BYTE PTR [eax+8]
  000a0	84 d2		 test	 dl, dl
  000a2	74 70		 je	 SHORT $LN88@LoadFloat_
  000a4	80 f2 ed	 xor	 dl, -19			; ffffffedH
  000a7	88 55 f4	 mov	 BYTE PTR __k$[ebp+8], dl
  000aa	8a 50 09	 mov	 dl, BYTE PTR [eax+9]
  000ad	84 d2		 test	 dl, dl
  000af	74 5d		 je	 SHORT $LN87@LoadFloat_
  000b1	80 f2 ec	 xor	 dl, -20			; ffffffecH
  000b4	80 78 0a 00	 cmp	 BYTE PTR [eax+10], 0
  000b8	88 55 f5	 mov	 BYTE PTR __k$[ebp+9], dl
  000bb	0f 84 87 00 00
	00		 je	 $LN1@LoadFloat_
  000c1	8a 50 0b	 mov	 dl, BYTE PTR [eax+11]
  000c4	84 d2		 test	 dl, dl
  000c6	74 40		 je	 SHORT $LN85@LoadFloat_
  000c8	80 f2 ea	 xor	 dl, -22			; ffffffeaH
  000cb	88 55 f7	 mov	 BYTE PTR __k$[ebp+11], dl
  000ce	8a 50 0c	 mov	 dl, BYTE PTR [eax+12]
  000d1	84 d2		 test	 dl, dl
  000d3	74 2d		 je	 SHORT $LN84@LoadFloat_
  000d5	80 f2 ed	 xor	 dl, -19			; ffffffedH
  000d8	88 55 f8	 mov	 BYTE PTR __k$[ebp+12], dl
  000db	8a 50 0d	 mov	 dl, BYTE PTR [eax+13]
  000de	84 d2		 test	 dl, dl
  000e0	74 1a		 je	 SHORT $LN83@LoadFloat_
  000e2	8a 40 0e	 mov	 al, BYTE PTR [eax+14]
  000e5	80 f2 ec	 xor	 dl, -20			; ffffffecH
  000e8	88 55 f9	 mov	 BYTE PTR __k$[ebp+13], dl
  000eb	84 c0		 test	 al, al
  000ed	74 07		 je	 SHORT $LN82@LoadFloat_
  000ef	34 eb		 xor	 al, -21			; ffffffebH
  000f1	88 45 fa	 mov	 BYTE PTR __k$[ebp+14], al
  000f4	eb 52		 jmp	 SHORT $LN1@LoadFloat_
$LN82@LoadFloat_:
  000f6	c6 45 fa eb	 mov	 BYTE PTR __k$[ebp+14], -21 ; ffffffebH
  000fa	eb 4c		 jmp	 SHORT $LN1@LoadFloat_
$LN83@LoadFloat_:
  000fc	c6 45 f9 ec	 mov	 BYTE PTR __k$[ebp+13], -20 ; ffffffecH
  00100	eb 46		 jmp	 SHORT $LN1@LoadFloat_
$LN84@LoadFloat_:
  00102	c6 45 f8 ed	 mov	 BYTE PTR __k$[ebp+12], -19 ; ffffffedH
  00106	eb 40		 jmp	 SHORT $LN1@LoadFloat_
$LN85@LoadFloat_:
  00108	c6 45 f7 ea	 mov	 BYTE PTR __k$[ebp+11], -22 ; ffffffeaH
  0010c	eb 3a		 jmp	 SHORT $LN1@LoadFloat_
$LN87@LoadFloat_:
  0010e	c6 45 f5 ec	 mov	 BYTE PTR __k$[ebp+9], -20 ; ffffffecH
  00112	eb 34		 jmp	 SHORT $LN1@LoadFloat_
$LN88@LoadFloat_:
  00114	c6 45 f4 ed	 mov	 BYTE PTR __k$[ebp+8], -19 ; ffffffedH
  00118	eb 2e		 jmp	 SHORT $LN1@LoadFloat_
$LN89@LoadFloat_:
  0011a	c6 45 f3 ea	 mov	 BYTE PTR __k$[ebp+7], -22 ; ffffffeaH
  0011e	eb 28		 jmp	 SHORT $LN1@LoadFloat_
$LN90@LoadFloat_:
  00120	c6 45 f2 eb	 mov	 BYTE PTR __k$[ebp+6], -21 ; ffffffebH
  00124	eb 22		 jmp	 SHORT $LN1@LoadFloat_
$LN91@LoadFloat_:
  00126	c6 45 f1 ec	 mov	 BYTE PTR __k$[ebp+5], -20 ; ffffffecH
  0012a	eb 1c		 jmp	 SHORT $LN1@LoadFloat_
$LN92@LoadFloat_:
  0012c	c6 45 f0 ed	 mov	 BYTE PTR __k$[ebp+4], -19 ; ffffffedH
  00130	eb 16		 jmp	 SHORT $LN1@LoadFloat_
$LN93@LoadFloat_:
  00132	c6 45 ef ea	 mov	 BYTE PTR __k$[ebp+3], -22 ; ffffffeaH
  00136	eb 10		 jmp	 SHORT $LN1@LoadFloat_
$LN94@LoadFloat_:
  00138	c6 45 ee eb	 mov	 BYTE PTR __k$[ebp+2], -21 ; ffffffebH
  0013c	eb 0a		 jmp	 SHORT $LN1@LoadFloat_
$LN95@LoadFloat_:
  0013e	c6 45 ed ec	 mov	 BYTE PTR __k$[ebp+1], -20 ; ffffffecH
  00142	eb 04		 jmp	 SHORT $LN1@LoadFloat_
$LN96@LoadFloat_:
  00144	c6 45 ec ed	 mov	 BYTE PTR __k$[ebp], -19	; ffffffedH
$LN1@LoadFloat_:
  00148	6a 02		 push	 2
  0014a	8d 45 ec	 lea	 eax, DWORD PTR __k$[ebp]
  0014d	c6 45 f6 00	 mov	 BYTE PTR __k$[ebp+10], 0
  00151	5a		 pop	 edx
$LL104@LoadFloat_:
  00152	81 30 ed ec eb
	ea		 xor	 DWORD PTR [eax], -353637139 ; eaebecedH
  00158	83 c0 04	 add	 eax, 4
  0015b	4a		 dec	 edx
  0015c	75 f4		 jne	 SHORT $LL104@LoadFloat_
  0015e	6a 08		 push	 8
  00160	58		 pop	 eax
$LL101@LoadFloat_:
  00161	8b c8		 mov	 ecx, eax
  00163	81 e1 03 00 00
	80		 and	 ecx, -2147483645	; 80000003H
  00169	79 05		 jns	 SHORT $LN111@LoadFloat_
  0016b	49		 dec	 ecx
  0016c	83 c9 fc	 or	 ecx, -4			; fffffffcH
  0016f	41		 inc	 ecx
$LN111@LoadFloat_:
  00170	b2 ed		 mov	 dl, -19			; ffffffedH
  00172	2a d1		 sub	 dl, cl
  00174	30 54 05 ec	 xor	 BYTE PTR __k$[ebp+eax], dl
  00178	40		 inc	 eax
  00179	83 f8 0a	 cmp	 eax, 10			; 0000000aH
  0017c	7c e3		 jl	 SHORT $LL101@LoadFloat_

; 137  : 		return LoadFloat(_k, f);

  0017e	f3 0f 10 45 0c	 movss	 xmm0, DWORD PTR _f$[ebp]
  00183	51		 push	 ecx
  00184	8d 45 ec	 lea	 eax, DWORD PTR __k$[ebp]
  00187	f3 0f 11 04 24	 movss	 DWORD PTR [esp], xmm0
  0018c	50		 push	 eax
  0018d	8b ce		 mov	 ecx, esi
  0018f	ff 15 00 00 00
	00		 call	 DWORD PTR __imp_?LoadFloat@ioINILoader@@QAEMPBDM@Z

; 138  : 	}

  00195	8b 4d fc	 mov	 ecx, DWORD PTR __$ArrayPad$[ebp]
  00198	33 cd		 xor	 ecx, ebp
  0019a	5e		 pop	 esi
  0019b	e8 00 00 00 00	 call	 @__security_check_cookie@4
  001a0	c9		 leave
  001a1	c2 08 00	 ret	 8
??$LoadFloat_e@$0L@@ioINILoader@@QAEMAAY0L@$$CBDM@Z ENDP ; ioINILoader::LoadFloat_e<11>
_TEXT	ENDS
PUBLIC	__$ArrayPad$
PUBLIC	??$LoadInt_e@$0BC@@ioINILoader@@QAEHAAY0BC@$$CBDH@Z ; ioINILoader::LoadInt_e<18>
EXTRN	__imp_?LoadInt@ioINILoader@@QAEHPBDH@Z:PROC
; Function compile flags: /Ogsp
;	COMDAT ??$LoadInt_e@$0BC@@ioINILoader@@QAEHAAY0BC@$$CBDH@Z
_TEXT	SEGMENT
__k$ = -28						; size = 18
__$ArrayPad$ = -4					; size = 4
_k$ = 8							; size = 4
_i$ = 12						; size = 4
??$LoadInt_e@$0BC@@ioINILoader@@QAEHAAY0BC@$$CBDH@Z PROC ; ioINILoader::LoadInt_e<18>, COMDAT
; _this$ = ecx

; 118  : 	{

  00000	55		 push	 ebp
  00001	8b ec		 mov	 ebp, esp
  00003	83 ec 1c	 sub	 esp, 28			; 0000001cH
  00006	a1 00 00 00 00	 mov	 eax, DWORD PTR ___security_cookie
  0000b	33 c5		 xor	 eax, ebp
  0000d	89 45 fc	 mov	 DWORD PTR __$ArrayPad$[ebp], eax
  00010	8b 45 08	 mov	 eax, DWORD PTR _k$[ebp]

; 119  : 		_ENCSTR(k, _k);

  00013	8a 10		 mov	 dl, BYTE PTR [eax]
  00015	56		 push	 esi
  00016	8b f1		 mov	 esi, ecx
  00018	84 d2		 test	 dl, dl
  0001a	0f 84 be 01 00
	00		 je	 $LN96@LoadInt_e
  00020	80 f2 ed	 xor	 dl, -19			; ffffffedH
  00023	88 55 e4	 mov	 BYTE PTR __k$[ebp], dl
  00026	8a 50 01	 mov	 dl, BYTE PTR [eax+1]
  00029	84 d2		 test	 dl, dl
  0002b	0f 84 a7 01 00
	00		 je	 $LN95@LoadInt_e
  00031	80 f2 ec	 xor	 dl, -20			; ffffffecH
  00034	88 55 e5	 mov	 BYTE PTR __k$[ebp+1], dl
  00037	8a 50 02	 mov	 dl, BYTE PTR [eax+2]
  0003a	84 d2		 test	 dl, dl
  0003c	0f 84 90 01 00
	00		 je	 $LN94@LoadInt_e
  00042	b1 eb		 mov	 cl, -21			; ffffffebH
  00044	32 d1		 xor	 dl, cl
  00046	88 55 e6	 mov	 BYTE PTR __k$[ebp+2], dl
  00049	8a 50 03	 mov	 dl, BYTE PTR [eax+3]
  0004c	84 d2		 test	 dl, dl
  0004e	0f 84 78 01 00
	00		 je	 $LN93@LoadInt_e
  00054	80 f2 ea	 xor	 dl, -22			; ffffffeaH
  00057	88 55 e7	 mov	 BYTE PTR __k$[ebp+3], dl
  0005a	8a 50 04	 mov	 dl, BYTE PTR [eax+4]
  0005d	84 d2		 test	 dl, dl
  0005f	0f 84 61 01 00
	00		 je	 $LN92@LoadInt_e
  00065	80 f2 ed	 xor	 dl, -19			; ffffffedH
  00068	88 55 e8	 mov	 BYTE PTR __k$[ebp+4], dl
  0006b	8a 50 05	 mov	 dl, BYTE PTR [eax+5]
  0006e	84 d2		 test	 dl, dl
  00070	0f 84 4a 01 00
	00		 je	 $LN91@LoadInt_e
  00076	80 f2 ec	 xor	 dl, -20			; ffffffecH
  00079	88 55 e9	 mov	 BYTE PTR __k$[ebp+5], dl
  0007c	8a 50 06	 mov	 dl, BYTE PTR [eax+6]
  0007f	84 d2		 test	 dl, dl
  00081	0f 84 34 01 00
	00		 je	 $LN90@LoadInt_e
  00087	32 d1		 xor	 dl, cl
  00089	88 55 ea	 mov	 BYTE PTR __k$[ebp+6], dl
  0008c	8a 50 07	 mov	 dl, BYTE PTR [eax+7]
  0008f	84 d2		 test	 dl, dl
  00091	0f 84 1e 01 00
	00		 je	 $LN89@LoadInt_e
  00097	80 f2 ea	 xor	 dl, -22			; ffffffeaH
  0009a	88 55 eb	 mov	 BYTE PTR __k$[ebp+7], dl
  0009d	8a 50 08	 mov	 dl, BYTE PTR [eax+8]
  000a0	84 d2		 test	 dl, dl
  000a2	0f 84 07 01 00
	00		 je	 $LN88@LoadInt_e
  000a8	80 f2 ed	 xor	 dl, -19			; ffffffedH
  000ab	88 55 ec	 mov	 BYTE PTR __k$[ebp+8], dl
  000ae	8a 50 09	 mov	 dl, BYTE PTR [eax+9]
  000b1	84 d2		 test	 dl, dl
  000b3	0f 84 f0 00 00
	00		 je	 $LN87@LoadInt_e
  000b9	80 f2 ec	 xor	 dl, -20			; ffffffecH
  000bc	88 55 ed	 mov	 BYTE PTR __k$[ebp+9], dl
  000bf	8a 50 0a	 mov	 dl, BYTE PTR [eax+10]
  000c2	84 d2		 test	 dl, dl
  000c4	0f 84 da 00 00
	00		 je	 $LN86@LoadInt_e
  000ca	32 d1		 xor	 dl, cl
  000cc	88 55 ee	 mov	 BYTE PTR __k$[ebp+10], dl
  000cf	8a 50 0b	 mov	 dl, BYTE PTR [eax+11]
  000d2	84 d2		 test	 dl, dl
  000d4	0f 84 c4 00 00
	00		 je	 $LN85@LoadInt_e
  000da	80 f2 ea	 xor	 dl, -22			; ffffffeaH
  000dd	88 55 ef	 mov	 BYTE PTR __k$[ebp+11], dl
  000e0	8a 50 0c	 mov	 dl, BYTE PTR [eax+12]
  000e3	84 d2		 test	 dl, dl
  000e5	0f 84 ad 00 00
	00		 je	 $LN84@LoadInt_e
  000eb	80 f2 ed	 xor	 dl, -19			; ffffffedH
  000ee	88 55 f0	 mov	 BYTE PTR __k$[ebp+12], dl
  000f1	8a 50 0d	 mov	 dl, BYTE PTR [eax+13]
  000f4	84 d2		 test	 dl, dl
  000f6	0f 84 96 00 00
	00		 je	 $LN83@LoadInt_e
  000fc	80 f2 ec	 xor	 dl, -20			; ffffffecH
  000ff	88 55 f1	 mov	 BYTE PTR __k$[ebp+13], dl
  00102	8a 50 0e	 mov	 dl, BYTE PTR [eax+14]
  00105	84 d2		 test	 dl, dl
  00107	0f 84 80 00 00
	00		 je	 $LN82@LoadInt_e
  0010d	32 d1		 xor	 dl, cl
  0010f	88 55 f2	 mov	 BYTE PTR __k$[ebp+14], dl
  00112	8a 50 0f	 mov	 dl, BYTE PTR [eax+15]
  00115	84 d2		 test	 dl, dl
  00117	74 6e		 je	 SHORT $LN81@LoadInt_e
  00119	80 f2 ea	 xor	 dl, -22			; ffffffeaH
  0011c	88 55 f3	 mov	 BYTE PTR __k$[ebp+15], dl
  0011f	8a 50 10	 mov	 dl, BYTE PTR [eax+16]
  00122	84 d2		 test	 dl, dl
  00124	74 5b		 je	 SHORT $LN80@LoadInt_e
  00126	80 f2 ed	 xor	 dl, -19			; ffffffedH
  00129	80 78 11 00	 cmp	 BYTE PTR [eax+17], 0
  0012d	88 55 f4	 mov	 BYTE PTR __k$[ebp+16], dl
  00130	0f 84 ac 00 00
	00		 je	 $LN1@LoadInt_e
  00136	8a 50 12	 mov	 dl, BYTE PTR [eax+18]
  00139	84 d2		 test	 dl, dl
  0013b	74 3f		 je	 SHORT $LN78@LoadInt_e
  0013d	32 d1		 xor	 dl, cl
  0013f	88 55 f6	 mov	 BYTE PTR __k$[ebp+18], dl
  00142	8a 50 13	 mov	 dl, BYTE PTR [eax+19]
  00145	84 d2		 test	 dl, dl
  00147	74 2d		 je	 SHORT $LN77@LoadInt_e
  00149	80 f2 ea	 xor	 dl, -22			; ffffffeaH
  0014c	88 55 f7	 mov	 BYTE PTR __k$[ebp+19], dl
  0014f	8a 50 14	 mov	 dl, BYTE PTR [eax+20]
  00152	84 d2		 test	 dl, dl
  00154	74 1a		 je	 SHORT $LN76@LoadInt_e
  00156	8a 40 15	 mov	 al, BYTE PTR [eax+21]
  00159	80 f2 ed	 xor	 dl, -19			; ffffffedH
  0015c	88 55 f8	 mov	 BYTE PTR __k$[ebp+20], dl
  0015f	84 c0		 test	 al, al
  00161	74 07		 je	 SHORT $LN75@LoadInt_e
  00163	34 ec		 xor	 al, -20			; ffffffecH
  00165	88 45 f9	 mov	 BYTE PTR __k$[ebp+21], al
  00168	eb 78		 jmp	 SHORT $LN1@LoadInt_e
$LN75@LoadInt_e:
  0016a	c6 45 f9 ec	 mov	 BYTE PTR __k$[ebp+21], -20 ; ffffffecH
  0016e	eb 72		 jmp	 SHORT $LN1@LoadInt_e
$LN76@LoadInt_e:
  00170	c6 45 f8 ed	 mov	 BYTE PTR __k$[ebp+20], -19 ; ffffffedH
  00174	eb 6c		 jmp	 SHORT $LN1@LoadInt_e
$LN77@LoadInt_e:
  00176	c6 45 f7 ea	 mov	 BYTE PTR __k$[ebp+19], -22 ; ffffffeaH
  0017a	eb 66		 jmp	 SHORT $LN1@LoadInt_e
$LN78@LoadInt_e:
  0017c	88 4d f6	 mov	 BYTE PTR __k$[ebp+18], cl
  0017f	eb 61		 jmp	 SHORT $LN1@LoadInt_e
$LN80@LoadInt_e:
  00181	c6 45 f4 ed	 mov	 BYTE PTR __k$[ebp+16], -19 ; ffffffedH
  00185	eb 5b		 jmp	 SHORT $LN1@LoadInt_e
$LN81@LoadInt_e:
  00187	c6 45 f3 ea	 mov	 BYTE PTR __k$[ebp+15], -22 ; ffffffeaH
  0018b	eb 55		 jmp	 SHORT $LN1@LoadInt_e
$LN82@LoadInt_e:
  0018d	88 4d f2	 mov	 BYTE PTR __k$[ebp+14], cl
  00190	eb 50		 jmp	 SHORT $LN1@LoadInt_e
$LN83@LoadInt_e:
  00192	c6 45 f1 ec	 mov	 BYTE PTR __k$[ebp+13], -20 ; ffffffecH
  00196	eb 4a		 jmp	 SHORT $LN1@LoadInt_e
$LN84@LoadInt_e:
  00198	c6 45 f0 ed	 mov	 BYTE PTR __k$[ebp+12], -19 ; ffffffedH
  0019c	eb 44		 jmp	 SHORT $LN1@LoadInt_e
$LN85@LoadInt_e:
  0019e	c6 45 ef ea	 mov	 BYTE PTR __k$[ebp+11], -22 ; ffffffeaH
  001a2	eb 3e		 jmp	 SHORT $LN1@LoadInt_e
$LN86@LoadInt_e:
  001a4	88 4d ee	 mov	 BYTE PTR __k$[ebp+10], cl
  001a7	eb 39		 jmp	 SHORT $LN1@LoadInt_e
$LN87@LoadInt_e:
  001a9	c6 45 ed ec	 mov	 BYTE PTR __k$[ebp+9], -20 ; ffffffecH
  001ad	eb 33		 jmp	 SHORT $LN1@LoadInt_e
$LN88@LoadInt_e:
  001af	c6 45 ec ed	 mov	 BYTE PTR __k$[ebp+8], -19 ; ffffffedH
  001b3	eb 2d		 jmp	 SHORT $LN1@LoadInt_e
$LN89@LoadInt_e:
  001b5	c6 45 eb ea	 mov	 BYTE PTR __k$[ebp+7], -22 ; ffffffeaH
  001b9	eb 27		 jmp	 SHORT $LN1@LoadInt_e
$LN90@LoadInt_e:
  001bb	88 4d ea	 mov	 BYTE PTR __k$[ebp+6], cl
  001be	eb 22		 jmp	 SHORT $LN1@LoadInt_e
$LN91@LoadInt_e:
  001c0	c6 45 e9 ec	 mov	 BYTE PTR __k$[ebp+5], -20 ; ffffffecH
  001c4	eb 1c		 jmp	 SHORT $LN1@LoadInt_e
$LN92@LoadInt_e:
  001c6	c6 45 e8 ed	 mov	 BYTE PTR __k$[ebp+4], -19 ; ffffffedH
  001ca	eb 16		 jmp	 SHORT $LN1@LoadInt_e
$LN93@LoadInt_e:
  001cc	c6 45 e7 ea	 mov	 BYTE PTR __k$[ebp+3], -22 ; ffffffeaH
  001d0	eb 10		 jmp	 SHORT $LN1@LoadInt_e
$LN94@LoadInt_e:
  001d2	c6 45 e6 eb	 mov	 BYTE PTR __k$[ebp+2], -21 ; ffffffebH
  001d6	eb 0a		 jmp	 SHORT $LN1@LoadInt_e
$LN95@LoadInt_e:
  001d8	c6 45 e5 ec	 mov	 BYTE PTR __k$[ebp+1], -20 ; ffffffecH
  001dc	eb 04		 jmp	 SHORT $LN1@LoadInt_e
$LN96@LoadInt_e:
  001de	c6 45 e4 ed	 mov	 BYTE PTR __k$[ebp], -19	; ffffffedH
$LN1@LoadInt_e:
  001e2	6a 04		 push	 4
  001e4	8d 45 e4	 lea	 eax, DWORD PTR __k$[ebp]
  001e7	c6 45 f5 00	 mov	 BYTE PTR __k$[ebp+17], 0
  001eb	5a		 pop	 edx
$LL104@LoadInt_e:
  001ec	81 30 ed ec eb
	ea		 xor	 DWORD PTR [eax], -353637139 ; eaebecedH
  001f2	83 c0 04	 add	 eax, 4
  001f5	4a		 dec	 edx
  001f6	75 f4		 jne	 SHORT $LL104@LoadInt_e

; 120  : 		return LoadInt(_k, i);

  001f8	ff 75 0c	 push	 DWORD PTR _i$[ebp]
  001fb	80 75 f4 ed	 xor	 BYTE PTR __k$[ebp+16], -19 ; ffffffedH
  001ff	8d 45 e4	 lea	 eax, DWORD PTR __k$[ebp]
  00202	50		 push	 eax
  00203	8b ce		 mov	 ecx, esi
  00205	ff 15 00 00 00
	00		 call	 DWORD PTR __imp_?LoadInt@ioINILoader@@QAEHPBDH@Z

; 121  : 	}

  0020b	8b 4d fc	 mov	 ecx, DWORD PTR __$ArrayPad$[ebp]
  0020e	33 cd		 xor	 ecx, ebp
  00210	5e		 pop	 esi
  00211	e8 00 00 00 00	 call	 @__security_check_cookie@4
  00216	c9		 leave
  00217	c2 08 00	 ret	 8
??$LoadInt_e@$0BC@@ioINILoader@@QAEHAAY0BC@$$CBDH@Z ENDP ; ioINILoader::LoadInt_e<18>
_TEXT	ENDS
PUBLIC	__real@3fd2ee0d320154cb
PUBLIC	__real@41f0000000000000
PUBLIC	??$RADtoDEG@M@@YAMM@Z				; RADtoDEG<float>
;	COMDAT __real@3fd2ee0d320154cb
; File d:\lost saga for developer\youtube\tutorial\source\src\lsclient\veryoftenusedefine.h
CONST	SEGMENT
__real@3fd2ee0d320154cb DQ 03fd2ee0d320154cbr	; 0.29578
CONST	ENDS
;	COMDAT __real@41f0000000000000
CONST	SEGMENT
__real@41f0000000000000 DQ 041f0000000000000r	; 4.29497e+009
; Function compile flags: /Ogsp
CONST	ENDS
;	COMDAT ??$RADtoDEG@M@@YAMM@Z
_TEXT	SEGMENT
tv130 = -4						; size = 4
tv75 = 8						; size = 4
_val$ = 8						; size = 4
??$RADtoDEG@M@@YAMM@Z PROC				; RADtoDEG<float>, COMDAT

; 18   : type  RADtoDEG (type val) {return (type) (val * (return57() + 0.2957795132)); }

  00000	55		 push	 ebp
  00001	8b ec		 mov	 ebp, esp
  00003	51		 push	 ecx
  00004	b8 39 00 00 00	 mov	 eax, 57			; 00000039H
  00009	89 45 fc	 mov	 DWORD PTR tv130[ebp], eax
  0000c	db 45 fc	 fild	 DWORD PTR tv130[ebp]
  0000f	85 c0		 test	 eax, eax
  00011	79 06		 jns	 SHORT $LN5@RADtoDEG
  00013	dc 05 00 00 00
	00		 fadd	 QWORD PTR __real@41f0000000000000
$LN5@RADtoDEG:
  00019	dc 05 00 00 00
	00		 fadd	 QWORD PTR __real@3fd2ee0d320154cb
  0001f	d8 4d 08	 fmul	 DWORD PTR _val$[ebp]
  00022	d9 5d 08	 fstp	 DWORD PTR tv75[ebp]
  00025	d9 45 08	 fld	 DWORD PTR tv75[ebp]
  00028	c9		 leave
  00029	c3		 ret	 0
??$RADtoDEG@M@@YAMM@Z ENDP				; RADtoDEG<float>
_TEXT	ENDS
PUBLIC	?construct@?$allocator@H@std@@QAEXPAHABH@Z	; std::allocator<int>::construct
; Function compile flags: /Ogsp
; File c:\program files (x86)\microsoft visual studio 10.0\vc\include\xmemory
;	COMDAT ?construct@?$allocator@H@std@@QAEXPAHABH@Z
_TEXT	SEGMENT
__Ptr$ = 8						; size = 4
__Val$ = 12						; size = 4
?construct@?$allocator@H@std@@QAEXPAHABH@Z PROC		; std::allocator<int>::construct, COMDAT
; _this$ = ecx

; 196  : 		{	// construct object at _Ptr with value _Val

  00000	55		 push	 ebp
  00001	8b ec		 mov	 ebp, esp

; 197  : 		_Construct(_Ptr, _Val);

  00003	8b 45 08	 mov	 eax, DWORD PTR __Ptr$[ebp]
  00006	85 c0		 test	 eax, eax
  00008	74 07		 je	 SHORT $LN5@construct
  0000a	8b 4d 0c	 mov	 ecx, DWORD PTR __Val$[ebp]
  0000d	8b 09		 mov	 ecx, DWORD PTR [ecx]
  0000f	89 08		 mov	 DWORD PTR [eax], ecx
$LN5@construct:

; 198  : 		}

  00011	5d		 pop	 ebp
  00012	c2 08 00	 ret	 8
?construct@?$allocator@H@std@@QAEXPAHABH@Z ENDP		; std::allocator<int>::construct
_TEXT	ENDS
PUBLIC	??$construct@AAH@?$allocator@H@std@@QAEXPAHAAH@Z ; std::allocator<int>::construct<int &>
; Function compile flags: /Ogsp
;	COMDAT ??$construct@AAH@?$allocator@H@std@@QAEXPAHAAH@Z
_TEXT	SEGMENT
__Ptr$ = 8						; size = 4
__Val$ = 12						; size = 4
??$construct@AAH@?$allocator@H@std@@QAEXPAHAAH@Z PROC	; std::allocator<int>::construct<int &>, COMDAT
; _this$ = ecx

; 206  : 		void construct(pointer _Ptr, _Other&& _Val)

  00000	55		 push	 ebp
  00001	8b ec		 mov	 ebp, esp

; 207  : 		{	// construct object at _Ptr with value _Val
; 208  : 		::new ((void _FARQ *)_Ptr) _Ty(_STD forward<_Other>(_Val));

  00003	8b 45 08	 mov	 eax, DWORD PTR __Ptr$[ebp]
  00006	85 c0		 test	 eax, eax
  00008	74 07		 je	 SHORT $LN3@construct@2
  0000a	8b 4d 0c	 mov	 ecx, DWORD PTR __Val$[ebp]
  0000d	8b 09		 mov	 ecx, DWORD PTR [ecx]
  0000f	89 08		 mov	 DWORD PTR [eax], ecx
$LN3@construct@2:

; 209  : 		}

  00011	5d		 pop	 ebp
  00012	c2 08 00	 ret	 8
??$construct@AAH@?$allocator@H@std@@QAEXPAHAAH@Z ENDP	; std::allocator<int>::construct<int &>
_TEXT	ENDS
PUBLIC	??4CallAttribute@@QAEAAU0@ABU0@@Z		; CallAttribute::operator=
; Function compile flags: /Ogsp
;	COMDAT ??4CallAttribute@@QAEAAU0@ABU0@@Z
_TEXT	SEGMENT
___that$ = 8						; size = 4
??4CallAttribute@@QAEAAU0@ABU0@@Z PROC			; CallAttribute::operator=, COMDAT
; _this$ = ecx
  00000	55		 push	 ebp
  00001	8b ec		 mov	 ebp, esp
  00003	56		 push	 esi
  00004	57		 push	 edi
  00005	8b 7d 08	 mov	 edi, DWORD PTR ___that$[ebp]
  00008	57		 push	 edi
  00009	8b f1		 mov	 esi, ecx
  0000b	e8 00 00 00 00	 call	 ??4WeaponInfo@@QAEAAU0@ABU0@@Z
  00010	8b 47 28	 mov	 eax, DWORD PTR [edi+40]
  00013	89 46 28	 mov	 DWORD PTR [esi+40], eax
  00016	d9 47 2c	 fld	 DWORD PTR [edi+44]
  00019	d9 5e 2c	 fstp	 DWORD PTR [esi+44]
  0001c	d9 47 30	 fld	 DWORD PTR [edi+48]
  0001f	d9 5e 30	 fstp	 DWORD PTR [esi+48]
  00022	8b 47 34	 mov	 eax, DWORD PTR [edi+52]
  00025	89 46 34	 mov	 DWORD PTR [esi+52], eax
  00028	8b 47 38	 mov	 eax, DWORD PTR [edi+56]
  0002b	89 46 38	 mov	 DWORD PTR [esi+56], eax
  0002e	8b 47 3c	 mov	 eax, DWORD PTR [edi+60]
  00031	89 46 3c	 mov	 DWORD PTR [esi+60], eax
  00034	5f		 pop	 edi
  00035	8b c6		 mov	 eax, esi
  00037	5e		 pop	 esi
  00038	5d		 pop	 ebp
  00039	c2 04 00	 ret	 4
??4CallAttribute@@QAEAAU0@ABU0@@Z ENDP			; CallAttribute::operator=
_TEXT	ENDS
PUBLIC	??1CallAttribute@@QAE@XZ			; CallAttribute::~CallAttribute
; Function compile flags: /Ogsp
;	COMDAT ??1CallAttribute@@QAE@XZ
_TEXT	SEGMENT
??1CallAttribute@@QAE@XZ PROC				; CallAttribute::~CallAttribute, COMDAT
; _this$ = ecx
  00000	83 c1 08	 add	 ecx, 8
  00003	ff 25 00 00 00
	00		 jmp	 DWORD PTR __imp_??1ioHashString@@QAE@XZ
??1CallAttribute@@QAE@XZ ENDP				; CallAttribute::~CallAttribute
_TEXT	ENDS
PUBLIC	??O?$CEncrypt@M@@QAE_NABM@Z			; CEncrypt<float>::operator>
; Function compile flags: /Ogsp
; File d:\lost saga for developer\youtube\tutorial\source\src\lsclient\encryptvalue.h
;	COMDAT ??O?$CEncrypt@M@@QAE_NABM@Z
_TEXT	SEGMENT
_value$ = -4						; size = 4
_inValue$ = 8						; size = 4
??O?$CEncrypt@M@@QAE_NABM@Z PROC			; CEncrypt<float>::operator>, COMDAT
; _this$ = ecx

; 1811 : 	{

  00000	55		 push	 ebp
  00001	8b ec		 mov	 ebp, esp
  00003	51		 push	 ecx

; 1812 : 		type value;
; 1813 : 		DecryptValueToPool(&value);

  00004	8d 45 fc	 lea	 eax, DWORD PTR _value$[ebp]
  00007	50		 push	 eax
  00008	e8 00 00 00 00	 call	 ?DecryptValueToPool@?$CEncrypt@M@@QAEXPAM@Z ; CEncrypt<float>::DecryptValueToPool

; 1814 : #ifdef _NOTUSE
; 1815 : 		Debug();
; 1816 : #endif
; 1817 : 		return (value > inValue);

  0000d	8b 45 08	 mov	 eax, DWORD PTR _inValue$[ebp]
  00010	f3 0f 10 08	 movss	 xmm1, DWORD PTR [eax]
  00014	f3 0f 10 45 fc	 movss	 xmm0, DWORD PTR _value$[ebp]
  00019	0f 5a c0	 cvtps2pd xmm0, xmm0
  0001c	0f 5a c9	 cvtps2pd xmm1, xmm1
  0001f	33 c0		 xor	 eax, eax
  00021	66 0f 2f c1	 comisd	 xmm0, xmm1
  00025	76 01		 jbe	 SHORT $LN4@operator@2
  00027	40		 inc	 eax
$LN4@operator@2:

; 1818 : 	}		

  00028	c9		 leave
  00029	c2 04 00	 ret	 4
??O?$CEncrypt@M@@QAE_NABM@Z ENDP			; CEncrypt<float>::operator>
_TEXT	ENDS
PUBLIC	??B?$CEncrypt@K@@QAEKXZ				; CEncrypt<unsigned long>::operator unsigned long
; Function compile flags: /Ogsp
;	COMDAT ??B?$CEncrypt@K@@QAEKXZ
_TEXT	SEGMENT
_value$ = -4						; size = 4
??B?$CEncrypt@K@@QAEKXZ PROC				; CEncrypt<unsigned long>::operator unsigned long, COMDAT
; _this$ = ecx

; 134  : 	{

  00000	55		 push	 ebp
  00001	8b ec		 mov	 ebp, esp
  00003	51		 push	 ecx

; 135  : 		type value;
; 136  : 		DecryptValueToPool(&value);

  00004	8d 45 fc	 lea	 eax, DWORD PTR _value$[ebp]
  00007	50		 push	 eax
  00008	e8 00 00 00 00	 call	 ?DecryptValueToPool@?$CEncrypt@K@@QAEXPAK@Z ; CEncrypt<unsigned long>::DecryptValueToPool

; 137  : 
; 138  : #ifdef _NOTUSE
; 139  : 		Debug();
; 140  : #endif
; 141  : 		return value;

  0000d	8b 45 fc	 mov	 eax, DWORD PTR _value$[ebp]

; 142  : 	}

  00010	c9		 leave
  00011	c3		 ret	 0
??B?$CEncrypt@K@@QAEKXZ ENDP				; CEncrypt<unsigned long>::operator unsigned long
_TEXT	ENDS
PUBLIC	?max_size@?$vector@HV?$allocator@H@std@@@std@@QBEIXZ ; std::vector<int,std::allocator<int> >::max_size
; Function compile flags: /Ogsp
; File c:\program files (x86)\microsoft visual studio 10.0\vc\include\vector
;	COMDAT ?max_size@?$vector@HV?$allocator@H@std@@@std@@QBEIXZ
_TEXT	SEGMENT
?max_size@?$vector@HV?$allocator@H@std@@@std@@QBEIXZ PROC ; std::vector<int,std::allocator<int> >::max_size, COMDAT
; _this$ = ecx

; 884  : 		return (this->_Alval.max_size());

  00000	b8 ff ff ff 3f	 mov	 eax, 1073741823		; 3fffffffH

; 885  : 		}

  00005	c3		 ret	 0
?max_size@?$vector@HV?$allocator@H@std@@@std@@QBEIXZ ENDP ; std::vector<int,std::allocator<int> >::max_size
_TEXT	ENDS
PUBLIC	?_Grow_to@?$vector@HV?$allocator@H@std@@@std@@IBEII@Z ; std::vector<int,std::allocator<int> >::_Grow_to
; Function compile flags: /Ogsp
;	COMDAT ?_Grow_to@?$vector@HV?$allocator@H@std@@@std@@IBEII@Z
_TEXT	SEGMENT
__Count$ = 8						; size = 4
?_Grow_to@?$vector@HV?$allocator@H@std@@@std@@IBEII@Z PROC ; std::vector<int,std::allocator<int> >::_Grow_to, COMDAT
; _this$ = ecx

; 1274 : 		{	// grow by 50% or at least to _Count

  00000	55		 push	 ebp
  00001	8b ec		 mov	 ebp, esp

; 1275 : 		size_type _Capacity = capacity();

  00003	8b 41 08	 mov	 eax, DWORD PTR [ecx+8]
  00006	2b 01		 sub	 eax, DWORD PTR [ecx]

; 1276 : 
; 1277 : 		_Capacity = max_size() - _Capacity / 2 < _Capacity
; 1278 : 			? 0 : _Capacity + _Capacity / 2;	// try to grow by 50%

  00008	ba ff ff ff 3f	 mov	 edx, 1073741823		; 3fffffffH
  0000d	c1 f8 02	 sar	 eax, 2
  00010	8b c8		 mov	 ecx, eax
  00012	d1 e9		 shr	 ecx, 1
  00014	2b d1		 sub	 edx, ecx
  00016	3b d0		 cmp	 edx, eax
  00018	73 04		 jae	 SHORT $LN4@Grow_to
  0001a	33 c0		 xor	 eax, eax
  0001c	eb 02		 jmp	 SHORT $LN5@Grow_to
$LN4@Grow_to:
  0001e	03 c1		 add	 eax, ecx
$LN5@Grow_to:

; 1279 : 		if (_Capacity < _Count)

  00020	3b 45 08	 cmp	 eax, DWORD PTR __Count$[ebp]

; 1280 : 			_Capacity = _Count;

  00023	0f 42 45 08	 cmovb	 eax, DWORD PTR __Count$[ebp]

; 1281 : 		return (_Capacity);
; 1282 : 		}

  00027	5d		 pop	 ebp
  00028	c2 04 00	 ret	 4
?_Grow_to@?$vector@HV?$allocator@H@std@@@std@@IBEII@Z ENDP ; std::vector<int,std::allocator<int> >::_Grow_to
_TEXT	ENDS
PUBLIC	?allocate@?$allocator@H@std@@QAEPAHI@Z		; std::allocator<int>::allocate
; Function compile flags: /Ogsp
; File c:\program files (x86)\microsoft visual studio 10.0\vc\include\xmemory
;	COMDAT ?allocate@?$allocator@H@std@@QAEPAHI@Z
_TEXT	SEGMENT
__Count$ = 8						; size = 4
?allocate@?$allocator@H@std@@QAEPAHI@Z PROC		; std::allocator<int>::allocate, COMDAT
; _this$ = ecx

; 186  : 		{	// allocate array of _Count elements

  00000	55		 push	 ebp
  00001	8b ec		 mov	 ebp, esp

; 187  : 		return (_Allocate(_Count, (pointer)0));

  00003	6a 00		 push	 0
  00005	ff 75 08	 push	 DWORD PTR __Count$[ebp]
  00008	e8 00 00 00 00	 call	 ??$_Allocate@H@std@@YAPAHIPAH@Z ; std::_Allocate<int>
  0000d	59		 pop	 ecx
  0000e	59		 pop	 ecx

; 188  : 		}

  0000f	5d		 pop	 ebp
  00010	c2 04 00	 ret	 4
?allocate@?$allocator@H@std@@QAEPAHI@Z ENDP		; std::allocator<int>::allocate
_TEXT	ENDS
PUBLIC	??$_Destroy_range@V?$allocator@H@std@@@std@@YAXPAH0AAV?$allocator@H@0@@Z ; std::_Destroy_range<std::allocator<int> >
; Function compile flags: /Ogsp
;	COMDAT ??$_Destroy_range@V?$allocator@H@std@@@std@@YAXPAH0AAV?$allocator@H@0@@Z
_TEXT	SEGMENT
__First$ = 8						; size = 4
__Last$ = 12						; size = 4
__Al$ = 16						; size = 4
??$_Destroy_range@V?$allocator@H@std@@@std@@YAXPAH0AAV?$allocator@H@0@@Z PROC ; std::_Destroy_range<std::allocator<int> >, COMDAT

; 88   : 	_Destroy_range(_First, _Last, _Al, _Ptr_cat(_First, _Last));
; 89   : 	}

  00000	c3		 ret	 0
??$_Destroy_range@V?$allocator@H@std@@@std@@YAXPAH0AAV?$allocator@H@0@@Z ENDP ; std::_Destroy_range<std::allocator<int> >
_TEXT	ENDS
PUBLIC	??$_Uninitialized_move@PAHPAHV?$allocator@H@std@@@std@@YAPAHPAH00AAV?$allocator@H@0@@Z ; std::_Uninitialized_move<int *,int *,std::allocator<int> >
; Function compile flags: /Ogsp
; File c:\program files (x86)\microsoft visual studio 10.0\vc\include\memory
;	COMDAT ??$_Uninitialized_move@PAHPAHV?$allocator@H@std@@@std@@YAPAHPAH00AAV?$allocator@H@0@@Z
_TEXT	SEGMENT
__First$ = 8						; size = 4
__Last$ = 12						; size = 4
__Dest$ = 16						; size = 4
__Al$ = 20						; size = 4
??$_Uninitialized_move@PAHPAHV?$allocator@H@std@@@std@@YAPAHPAH00AAV?$allocator@H@0@@Z PROC ; std::_Uninitialized_move<int *,int *,std::allocator<int> >, COMDAT

; 469  : 	{	// move [_First, _Last) to raw _Dest, using _Al

  00000	55		 push	 ebp
  00001	8b ec		 mov	 ebp, esp
  00003	56		 push	 esi

; 470  : 	return (_Uninit_move(_First, _Last, _Dest, _Al,
; 471  : 		_Val_type(_First), _Ptr_cat(_First, _Dest)));

  00004	8b 75 0c	 mov	 esi, DWORD PTR __Last$[ebp]
  00007	2b 75 08	 sub	 esi, DWORD PTR __First$[ebp]
  0000a	c1 fe 02	 sar	 esi, 2
  0000d	c1 e6 02	 shl	 esi, 2
  00010	56		 push	 esi
  00011	ff 75 08	 push	 DWORD PTR __First$[ebp]
  00014	ff 75 10	 push	 DWORD PTR __Dest$[ebp]
  00017	ff 15 00 00 00
	00		 call	 DWORD PTR __imp__memmove
  0001d	83 c4 0c	 add	 esp, 12			; 0000000cH
  00020	03 c6		 add	 eax, esi
  00022	5e		 pop	 esi

; 472  : 	}

  00023	5d		 pop	 ebp
  00024	c3		 ret	 0
??$_Uninitialized_move@PAHPAHV?$allocator@H@std@@@std@@YAPAHPAH00AAV?$allocator@H@0@@Z ENDP ; std::_Uninitialized_move<int *,int *,std::allocator<int> >
_TEXT	ENDS
PUBLIC	??_C@_00CNPNBAHC@?$AA@				; `string'
PUBLIC	__$ArrayPad$
EXTRN	__imp_??4ioHashString@@QAEAAV0@PBD@Z:PROC
EXTRN	?LoadProperty@ioBuff@@UAEXAAVioINILoader@@@Z:PROC ; ioBuff::LoadProperty
;	COMDAT ??_C@_00CNPNBAHC@?$AA@
; File d:\lost saga for developer\youtube\tutorial\source\src\lsclient\stringprotect.h
CONST	SEGMENT
??_C@_00CNPNBAHC@?$AA@ DB 00H				; `string'
; Function compile flags: /Ogsp
; File d:\lost saga for developer\youtube\tutorial\source\src\lsclient\ioselfcontrolbuff.cpp
CONST	ENDS
;	COMDAT ?LoadProperty@ioSelfControlBuff@@UAEXAAVioINILoader@@@Z
_TEXT	SEGMENT
_szBuf$ = -288						; size = 260
__k$544327 = -28					; size = 18
__k$544077 = -28					; size = 15
__k$544202 = -24					; size = 11
__$ArrayPad$ = -4					; size = 4
_rkLoader$ = 8						; size = 4
?LoadProperty@ioSelfControlBuff@@UAEXAAVioINILoader@@@Z PROC ; ioSelfControlBuff::LoadProperty, COMDAT
; _this$ = ecx

; 32   : {

  00000	55		 push	 ebp
  00001	8b ec		 mov	 ebp, esp
  00003	81 ec 20 01 00
	00		 sub	 esp, 288		; 00000120H
  00009	a1 00 00 00 00	 mov	 eax, DWORD PTR ___security_cookie
  0000e	33 c5		 xor	 eax, ebp
  00010	89 45 fc	 mov	 DWORD PTR __$ArrayPad$[ebp], eax
  00013	56		 push	 esi
  00014	57		 push	 edi
  00015	8b 7d 08	 mov	 edi, DWORD PTR _rkLoader$[ebp]

; 33   : 	ioBuff::LoadProperty( rkLoader );

  00018	57		 push	 edi
  00019	8b f1		 mov	 esi, ecx
  0001b	e8 00 00 00 00	 call	 ?LoadProperty@ioBuff@@UAEXAAVioINILoader@@@Z ; ioBuff::LoadProperty

; 34   : 	char szBuf[MAX_PATH];
; 35   : 
; 36   : 	rkLoader.LoadString_e( "move_animation", "", szBuf, MAX_PATH );

  00020	6a 03		 push	 3
  00022	c7 45 e4 80 83
	9d 8f		 mov	 DWORD PTR __k$544077[ebp], -1885502592 ; 8f9d8380H
  00029	c7 45 e8 b2 8d
	85 83		 mov	 DWORD PTR __k$544077[ebp+4], -2088399438 ; 83858db2H
  00030	c7 45 ec 80 8d
	9f 83		 mov	 DWORD PTR __k$544077[ebp+8], -2086695552 ; 839f8d80H
  00037	66 c7 45 f0 82
	82		 mov	 WORD PTR __k$544077[ebp+12], 33410 ; 00008282H
  0003d	8d 45 e4	 lea	 eax, DWORD PTR __k$544077[ebp]
  00040	c6 45 f2 00	 mov	 BYTE PTR __k$544077[ebp+14], 0
  00044	59		 pop	 ecx
$LL106@LoadProper:
  00045	81 30 ed ec eb
	ea		 xor	 DWORD PTR [eax], -353637139 ; eaebecedH
  0004b	83 c0 04	 add	 eax, 4
  0004e	49		 dec	 ecx
  0004f	75 f4		 jne	 SHORT $LL106@LoadProper
  00051	6a 0c		 push	 12			; 0000000cH
  00053	58		 pop	 eax
$LL103@LoadProper:
  00054	8b c8		 mov	 ecx, eax
  00056	81 e1 03 00 00
	80		 and	 ecx, -2147483645	; 80000003H
  0005c	79 05		 jns	 SHORT $LN333@LoadProper
  0005e	49		 dec	 ecx
  0005f	83 c9 fc	 or	 ecx, -4			; fffffffcH
  00062	41		 inc	 ecx
$LN333@LoadProper:
  00063	b2 ed		 mov	 dl, -19			; ffffffedH
  00065	2a d1		 sub	 dl, cl
  00067	30 54 05 e4	 xor	 BYTE PTR __k$544077[ebp+eax], dl
  0006b	40		 inc	 eax
  0006c	83 f8 0e	 cmp	 eax, 14			; 0000000eH
  0006f	7c e3		 jl	 SHORT $LL103@LoadProper
  00071	68 04 01 00 00	 push	 260			; 00000104H
  00076	8d 85 e0 fe ff
	ff		 lea	 eax, DWORD PTR _szBuf$[ebp]
  0007c	50		 push	 eax
  0007d	68 00 00 00 00	 push	 OFFSET ??_C@_00CNPNBAHC@?$AA@
  00082	8d 45 e4	 lea	 eax, DWORD PTR __k$544077[ebp]
  00085	50		 push	 eax
  00086	8b cf		 mov	 ecx, edi
  00088	ff 15 00 00 00
	00		 call	 DWORD PTR __imp_?LoadStringA@ioINILoader@@QAEXPBD0PADH@Z

; 37   : 	m_szMoveAni = szBuf;

  0008e	8d 85 e0 fe ff
	ff		 lea	 eax, DWORD PTR _szBuf$[ebp]
  00094	50		 push	 eax
  00095	8d 8e 74 09 00
	00		 lea	 ecx, DWORD PTR [esi+2420]
  0009b	ff 15 00 00 00
	00		 call	 DWORD PTR __imp_??4ioHashString@@QAEAAV0@PBD@Z
  000a1	6a 02		 push	 2

; 38   : 
; 39   : 	m_fCurMoveSpeed = rkLoader.LoadFloat_e( "move_speed", 0.0f );

  000a3	c7 45 e8 80 83
	9d 8f		 mov	 DWORD PTR __k$544202[ebp], -1885502592 ; 8f9d8380H
  000aa	c7 45 ec b2 9f
	9b 8f		 mov	 DWORD PTR __k$544202[ebp+4], -1885626446 ; 8f9b9fb2H
  000b1	66 c7 45 f0 88
	88		 mov	 WORD PTR __k$544202[ebp+8], 34952 ; 00008888H
  000b7	8d 45 e8	 lea	 eax, DWORD PTR __k$544202[ebp]
  000ba	c6 45 f2 00	 mov	 BYTE PTR __k$544202[ebp+10], 0
  000be	59		 pop	 ecx
$LL212@LoadProper:
  000bf	81 30 ed ec eb
	ea		 xor	 DWORD PTR [eax], -353637139 ; eaebecedH
  000c5	83 c0 04	 add	 eax, 4
  000c8	49		 dec	 ecx
  000c9	75 f4		 jne	 SHORT $LL212@LoadProper
  000cb	6a 08		 push	 8
  000cd	58		 pop	 eax
$LL209@LoadProper:
  000ce	8b c8		 mov	 ecx, eax
  000d0	81 e1 03 00 00
	80		 and	 ecx, -2147483645	; 80000003H
  000d6	79 05		 jns	 SHORT $LN334@LoadProper
  000d8	49		 dec	 ecx
  000d9	83 c9 fc	 or	 ecx, -4			; fffffffcH
  000dc	41		 inc	 ecx
$LN334@LoadProper:
  000dd	b2 ed		 mov	 dl, -19			; ffffffedH
  000df	2a d1		 sub	 dl, cl
  000e1	30 54 05 e8	 xor	 BYTE PTR __k$544202[ebp+eax], dl
  000e5	40		 inc	 eax
  000e6	83 f8 0a	 cmp	 eax, 10			; 0000000aH
  000e9	7c e3		 jl	 SHORT $LL209@LoadProper
  000eb	0f 57 c0	 xorps	 xmm0, xmm0
  000ee	51		 push	 ecx
  000ef	8d 45 e8	 lea	 eax, DWORD PTR __k$544202[ebp]
  000f2	f3 0f 11 04 24	 movss	 DWORD PTR [esp], xmm0
  000f7	50		 push	 eax
  000f8	8b cf		 mov	 ecx, edi
  000fa	ff 15 00 00 00
	00		 call	 DWORD PTR __imp_?LoadFloat@ioINILoader@@QAEMPBDM@Z
  00100	d9 9e 70 09 00
	00		 fstp	 DWORD PTR [esi+2416]
  00106	6a 04		 push	 4

; 40   : 
; 41   : 	m_dwMoveRotateTime = (DWORD)rkLoader.LoadInt_e( "move_rotate_speed", 0 );

  00108	c7 45 e4 80 83
	9d 8f		 mov	 DWORD PTR __k$544327[ebp], -1885502592 ; 8f9d8380H
  0010f	c7 45 e8 b2 9e
	84 9e		 mov	 DWORD PTR __k$544327[ebp+4], -1635475790 ; 9e849eb2H
  00116	c7 45 ec 8c 98
	8e b5		 mov	 DWORD PTR __k$544327[ebp+8], -1248946036 ; b58e988cH
  0011d	c7 45 f0 9e 9c
	8e 8f		 mov	 DWORD PTR __k$544327[ebp+12], -1886479202 ; 8f8e9c9eH
  00124	8d 45 e4	 lea	 eax, DWORD PTR __k$544327[ebp]
  00127	66 c7 45 f4 89
	00		 mov	 WORD PTR __k$544327[ebp+16], 137 ; 00000089H
  0012d	59		 pop	 ecx
$LL318@LoadProper:
  0012e	81 30 ed ec eb
	ea		 xor	 DWORD PTR [eax], -353637139 ; eaebecedH
  00134	83 c0 04	 add	 eax, 4
  00137	49		 dec	 ecx
  00138	75 f4		 jne	 SHORT $LL318@LoadProper
  0013a	80 75 f4 ed	 xor	 BYTE PTR __k$544327[ebp+16], -19 ; ffffffedH
  0013e	51		 push	 ecx
  0013f	8d 45 e4	 lea	 eax, DWORD PTR __k$544327[ebp]
  00142	50		 push	 eax
  00143	8b cf		 mov	 ecx, edi
  00145	ff 15 00 00 00
	00		 call	 DWORD PTR __imp_?LoadInt@ioINILoader@@QAEHPBDH@Z

; 42   : }

  0014b	8b 4d fc	 mov	 ecx, DWORD PTR __$ArrayPad$[ebp]
  0014e	5f		 pop	 edi
  0014f	89 86 84 09 00
	00		 mov	 DWORD PTR [esi+2436], eax
  00155	33 cd		 xor	 ecx, ebp
  00157	5e		 pop	 esi
  00158	e8 00 00 00 00	 call	 @__security_check_cookie@4
  0015d	c9		 leave
  0015e	c2 04 00	 ret	 4
?LoadProperty@ioSelfControlBuff@@UAEXAAVioINILoader@@@Z ENDP ; ioSelfControlBuff::LoadProperty
_TEXT	ENDS
PUBLIC	__real@bfef5c2900000000
PUBLIC	__real@3fef5c2900000000
PUBLIC	__real@4066800000000000
PUBLIC	__real@4046800000000000
PUBLIC	_pChar$GSCopy$
PUBLIC	_this$GSCopy$
PUBLIC	__$ArrayPad$
PUBLIC	?ProcessRotate@ioSelfControlBuff@@IAEXPAVioBaseChar@@M@Z ; ioSelfControlBuff::ProcessRotate
EXTRN	_D3DXQuaternionRotationAxis@12:PROC
EXTRN	__imp_?UNIT_Y@ioMath@@2UD3DXVECTOR3@@A:BYTE
EXTRN	_D3DXQuaternionRotationYawPitchRoll@16:PROC
EXTRN	__imp_?ArrangeHead@ioMath@@SAMM@Z:PROC
EXTRN	__imp_?GetCurFrameGap@ioFrameTimer@@QBEMXZ:PROC
EXTRN	__imp_?GetSingleton@ioFrameTimer@@SAAAV1@XZ:PROC
;	COMDAT __real@bfef5c2900000000
; File c:\program files (x86)\microsoft directx sdk (june 2010)\include\d3dx9math.inl
CONST	SEGMENT
__real@bfef5c2900000000 DQ 0bfef5c2900000000r	; -0.98
CONST	ENDS
;	COMDAT __real@3fef5c2900000000
CONST	SEGMENT
__real@3fef5c2900000000 DQ 03fef5c2900000000r	; 0.98
CONST	ENDS
;	COMDAT __real@4066800000000000
CONST	SEGMENT
__real@4066800000000000 DQ 04066800000000000r	; 180
CONST	ENDS
;	COMDAT __real@4046800000000000
CONST	SEGMENT
__real@4046800000000000 DQ 04046800000000000r	; 45
; Function compile flags: /Ogsp
; File d:\lost saga for developer\youtube\tutorial\source\src\lsclient\ioselfcontrolbuff.cpp
CONST	ENDS
;	COMDAT ?ProcessRotate@ioSelfControlBuff@@IAEXPAVioBaseChar@@M@Z
_TEXT	SEGMENT
_qtCurRot$ = -128					; size = 16
_qtRotate$ = -112					; size = 16
_qtNewRot$ = -96					; size = 16
_pChar$GSCopy$ = -80					; size = 4
_fRotateAngle$ = -76					; size = 4
_fRate$ = -76						; size = 4
tv614 = -72						; size = 4
tv597 = -72						; size = 4
_fDotValue$ = -72					; size = 4
tv571 = -68						; size = 4
tv554 = -68						; size = 4
_this$GSCopy$ = -68					; size = 4
_fGapAngle$ = -68					; size = 4
_fYawR$ = -68						; size = 4
_vAxis$ = -64						; size = 12
_vNewDir$ = -52						; size = 12
_vTargetDir$ = -40					; size = 12
_vCurMoveDir$ = -28					; size = 12
_v$544503 = -16						; size = 12
$T541464 = -16						; size = 12
$T541458 = -16						; size = 12
$T541446 = -16						; size = 12
$T541435 = -16						; size = 12
__$ArrayPad$ = -4					; size = 4
_pChar$ = 8						; size = 4
_fRotateTime$ = 12					; size = 4
?ProcessRotate@ioSelfControlBuff@@IAEXPAVioBaseChar@@M@Z PROC ; ioSelfControlBuff::ProcessRotate, COMDAT
; _this$ = ecx

; 206  : {

  00000	55		 push	 ebp
  00001	8b ec		 mov	 ebp, esp
  00003	81 ec 80 00 00
	00		 sub	 esp, 128		; 00000080H
  00009	a1 00 00 00 00	 mov	 eax, DWORD PTR ___security_cookie
  0000e	33 c5		 xor	 eax, ebp
  00010	89 45 fc	 mov	 DWORD PTR __$ArrayPad$[ebp], eax
  00013	56		 push	 esi
  00014	8b 75 08	 mov	 esi, DWORD PTR _pChar$[ebp]
  00017	8b c1		 mov	 eax, ecx

; 257  : 
; 258  : 	D3DXVECTOR3 vNewDir = qtNewRot * vCurMoveDir;

  00019	89 45 bc	 mov	 DWORD PTR _this$GSCopy$[ebp], eax
  0001c	89 75 b0	 mov	 DWORD PTR _pChar$GSCopy$[ebp], esi
  0001f	85 f6		 test	 esi, esi
  00021	0f 84 70 03 00
	00		 je	 $LN9@ProcessRot

; 207  : 	if( !pChar ) return;
; 208  : 	if( fRotateTime <= 0 ) return;

  00027	0f 57 c0	 xorps	 xmm0, xmm0
  0002a	0f 2f 45 0c	 comiss	 xmm0, DWORD PTR _fRotateTime$[ebp]
  0002e	0f 83 63 03 00
	00		 jae	 $LN9@ProcessRot

; 209  : 
; 210  : 	if( m_CurDirKey == ioUserKeyInput::DKI_NONE )

  00034	83 b8 88 09 00
	00 00		 cmp	 DWORD PTR [eax+2440], 0
  0003b	0f 84 56 03 00
	00		 je	 $LN9@ProcessRot

; 211  : 		return;
; 212  : 
; 213  : 	float fFrameGap = g_FrameTimer.GetCurFrameGap();

  00041	53		 push	 ebx
  00042	57		 push	 edi
  00043	ff 15 00 00 00
	00		 call	 DWORD PTR __imp_?GetSingleton@ioFrameTimer@@SAAAV1@XZ
  00049	8b c8		 mov	 ecx, eax
  0004b	ff 15 00 00 00
	00		 call	 DWORD PTR __imp_?GetCurFrameGap@ioFrameTimer@@QBEMXZ

; 214  : 	float fRate = fFrameGap / fRotateTime;

  00051	d8 75 0c	 fdiv	 DWORD PTR _fRotateTime$[ebp]
  00054	d9 5d b4	 fstp	 DWORD PTR _fRate$[ebp]

; 215  : 	float fRotateAngle = FLOAT360 * fRate;

  00057	b8 68 01 00 00	 mov	 eax, 360		; 00000168H
  0005c	89 45 b8	 mov	 DWORD PTR tv614[ebp], eax
  0005f	db 45 b8	 fild	 DWORD PTR tv614[ebp]
  00062	85 c0		 test	 eax, eax
  00064	79 06		 jns	 SHORT $LN53@ProcessRot
  00066	d8 05 00 00 00
	00		 fadd	 DWORD PTR __real@4f800000
$LN53@ProcessRot:
  0006c	d8 4d b4	 fmul	 DWORD PTR _fRate$[ebp]

; 216  : 
; 217  : 	D3DXQUATERNION qtCurRot = pChar->GetTargetRot();

  0006f	81 c6 a4 06 00
	00		 add	 esi, 1700		; 000006a4H
  00075	8d 7d 80	 lea	 edi, DWORD PTR _qtCurRot$[ebp]
  00078	a5		 movsd
  00079	d9 5d b4	 fstp	 DWORD PTR _fRotateAngle$[ebp]
  0007c	a5		 movsd
  0007d	a5		 movsd
  0007e	a5		 movsd

; 218  : 	D3DXVECTOR3 vCurMoveDir = qtCurRot * D3DXVECTOR3(0.0f, 0.0f, -FLOAT1);

  0007f	b8 01 00 00 00	 mov	 eax, 1
  00084	0f 57 c0	 xorps	 xmm0, xmm0
  00087	89 45 b8	 mov	 DWORD PTR tv597[ebp], eax
  0008a	db 45 b8	 fild	 DWORD PTR tv597[ebp]
  0008d	f3 0f 11 45 f0	 movss	 DWORD PTR $T541435[ebp], xmm0
  00092	f3 0f 11 45 f4	 movss	 DWORD PTR $T541435[ebp+4], xmm0
  00097	85 c0		 test	 eax, eax
  00099	79 06		 jns	 SHORT $LN54@ProcessRot
  0009b	d8 05 00 00 00
	00		 fadd	 DWORD PTR __real@4f800000
$LN54@ProcessRot:
  000a1	8b 1d 00 00 00
	00		 mov	 ebx, DWORD PTR __imp_??D@YA?AUD3DXVECTOR3@@ABUD3DXQUATERNION@@ABU0@@Z
  000a7	d9 e0		 fchs
  000a9	8d 45 f0	 lea	 eax, DWORD PTR $T541435[ebp]
  000ac	d9 5d f8	 fstp	 DWORD PTR $T541435[ebp+8]
  000af	50		 push	 eax
  000b0	8d 45 80	 lea	 eax, DWORD PTR _qtCurRot$[ebp]
  000b3	50		 push	 eax
  000b4	8d 45 e4	 lea	 eax, DWORD PTR _vCurMoveDir$[ebp]
  000b7	50		 push	 eax
  000b8	ff d3		 call	 ebx
  000ba	83 c4 0c	 add	 esp, 12			; 0000000cH

; 219  : 	D3DXVec3Normalize( &vCurMoveDir, &vCurMoveDir );

  000bd	8d 45 e4	 lea	 eax, DWORD PTR _vCurMoveDir$[ebp]
  000c0	50		 push	 eax
  000c1	50		 push	 eax
  000c2	e8 00 00 00 00	 call	 _D3DXVec3Normalize@8

; 220  : 
; 221  : 	//    
; 222  : 	float fYawD = 180.0f + 45.0f * ( m_CurDirKey - ioUserKeyInput::DKI_UP );

  000c7	8b 45 bc	 mov	 eax, DWORD PTR _this$GSCopy$[ebp]
  000ca	8b 80 88 09 00
	00		 mov	 eax, DWORD PTR [eax+2440]
  000d0	0f 57 c0	 xorps	 xmm0, xmm0
  000d3	48		 dec	 eax
  000d4	f3 0f 2a c0	 cvtsi2ss xmm0, eax
  000d8	0f 5a c0	 cvtps2pd xmm0, xmm0
  000db	f2 0f 59 05 00
	00 00 00	 mulsd	 xmm0, QWORD PTR __real@4046800000000000
  000e3	f2 0f 58 05 00
	00 00 00	 addsd	 xmm0, QWORD PTR __real@4066800000000000

; 223  : 	fYawD = ioMath::ArrangeHead( fYawD );

  000eb	51		 push	 ecx
  000ec	66 0f 5a c0	 cvtpd2ps xmm0, xmm0
  000f0	f3 0f 11 04 24	 movss	 DWORD PTR [esp], xmm0
  000f5	ff 15 00 00 00
	00		 call	 DWORD PTR __imp_?ArrangeHead@ioMath@@SAMM@Z

; 224  : 
; 225  : 	float fYawR = DEGtoRAD( fYawD );

  000fb	dc 0d 00 00 00
	00		 fmul	 QWORD PTR __real@3f91df46a2526c7a

; 226  : 	D3DXQUATERNION qtRotate;
; 227  : 	D3DXQuaternionRotationYawPitchRoll( &qtRotate, fYawR, 0.0f, 0.0f );

  00101	0f 57 c0	 xorps	 xmm0, xmm0
  00104	f3 0f 11 04 24	 movss	 DWORD PTR [esp], xmm0
  00109	51		 push	 ecx
  0010a	d9 5d bc	 fstp	 DWORD PTR _fYawR$[ebp]
  0010d	51		 push	 ecx
  0010e	f3 0f 11 44 24
	04		 movss	 DWORD PTR [esp+4], xmm0
  00114	f3 0f 10 45 bc	 movss	 xmm0, DWORD PTR _fYawR$[ebp]
  00119	8d 45 90	 lea	 eax, DWORD PTR _qtRotate$[ebp]
  0011c	f3 0f 11 04 24	 movss	 DWORD PTR [esp], xmm0
  00121	50		 push	 eax
  00122	e8 00 00 00 00	 call	 _D3DXQuaternionRotationYawPitchRoll@16

; 228  : 
; 229  : 	D3DXVECTOR3 vTargetDir = qtRotate * D3DXVECTOR3(0.0f, 0.0f, -FLOAT1);

  00127	b8 01 00 00 00	 mov	 eax, 1
  0012c	0f 57 c0	 xorps	 xmm0, xmm0
  0012f	89 45 bc	 mov	 DWORD PTR tv571[ebp], eax
  00132	db 45 bc	 fild	 DWORD PTR tv571[ebp]
  00135	f3 0f 11 45 f0	 movss	 DWORD PTR $T541446[ebp], xmm0
  0013a	f3 0f 11 45 f4	 movss	 DWORD PTR $T541446[ebp+4], xmm0
  0013f	85 c0		 test	 eax, eax
  00141	79 06		 jns	 SHORT $LN55@ProcessRot
  00143	d8 05 00 00 00
	00		 fadd	 DWORD PTR __real@4f800000
$LN55@ProcessRot:
  00149	8d 45 f0	 lea	 eax, DWORD PTR $T541446[ebp]
  0014c	d9 e0		 fchs
  0014e	50		 push	 eax
  0014f	d9 5d f8	 fstp	 DWORD PTR $T541446[ebp+8]
  00152	8d 45 90	 lea	 eax, DWORD PTR _qtRotate$[ebp]
  00155	50		 push	 eax
  00156	8d 45 d8	 lea	 eax, DWORD PTR _vTargetDir$[ebp]
  00159	50		 push	 eax
  0015a	ff d3		 call	 ebx
  0015c	83 c4 0c	 add	 esp, 12			; 0000000cH

; 230  : 	D3DXVec3Normalize( &vTargetDir, &vTargetDir );

  0015f	8d 45 d8	 lea	 eax, DWORD PTR _vTargetDir$[ebp]
  00162	50		 push	 eax
  00163	50		 push	 eax
  00164	e8 00 00 00 00	 call	 _D3DXVec3Normalize@8

; 231  : 
; 232  : 	float fDotValue = D3DXVec3Dot( &vCurMoveDir, &vTargetDir );

  00169	f3 0f 10 45 e8	 movss	 xmm0, DWORD PTR _vCurMoveDir$[ebp+4]
  0016e	f3 0f 10 4d dc	 movss	 xmm1, DWORD PTR _vTargetDir$[ebp+4]
  00173	f3 0f 10 55 e4	 movss	 xmm2, DWORD PTR _vCurMoveDir$[ebp]
  00178	0f 5a c9	 cvtps2pd xmm1, xmm1
  0017b	0f 5a c0	 cvtps2pd xmm0, xmm0
  0017e	f2 0f 59 c1	 mulsd	 xmm0, xmm1
  00182	f3 0f 10 4d d8	 movss	 xmm1, DWORD PTR _vTargetDir$[ebp]
  00187	0f 5a c9	 cvtps2pd xmm1, xmm1
  0018a	0f 5a d2	 cvtps2pd xmm2, xmm2
  0018d	f2 0f 59 ca	 mulsd	 xmm1, xmm2
  00191	f3 0f 10 55 e0	 movss	 xmm2, DWORD PTR _vTargetDir$[ebp+8]
  00196	f2 0f 58 c1	 addsd	 xmm0, xmm1
  0019a	f3 0f 10 4d ec	 movss	 xmm1, DWORD PTR _vCurMoveDir$[ebp+8]
  0019f	0f 5a c9	 cvtps2pd xmm1, xmm1
  001a2	0f 5a d2	 cvtps2pd xmm2, xmm2
  001a5	f2 0f 59 ca	 mulsd	 xmm1, xmm2
  001a9	f2 0f 58 c1	 addsd	 xmm0, xmm1
  001ad	66 0f 5a c0	 cvtpd2ps xmm0, xmm0
  001b1	f3 0f 11 45 b8	 movss	 DWORD PTR _fDotValue$[ebp], xmm0

; 233  : 	float fGapAngle = RADtoDEG( acosf(fDotValue) );

  001b6	d9 45 b8	 fld	 DWORD PTR _fDotValue$[ebp]
  001b9	e8 00 00 00 00	 call	 __CIacos
  001be	d9 5d bc	 fstp	 DWORD PTR tv554[ebp]
  001c1	d9 45 bc	 fld	 DWORD PTR tv554[ebp]
  001c4	51		 push	 ecx
  001c5	d9 1c 24	 fstp	 DWORD PTR [esp]
  001c8	e8 00 00 00 00	 call	 ??$RADtoDEG@M@@YAMM@Z	; RADtoDEG<float>

; 234  : 
; 235  : 	if( fDotValue >= 0.98f )

  001cd	f3 0f 10 45 b8	 movss	 xmm0, DWORD PTR _fDotValue$[ebp]
  001d2	d9 5d bc	 fstp	 DWORD PTR _fGapAngle$[ebp]
  001d5	0f 5a c0	 cvtps2pd xmm0, xmm0
  001d8	66 0f 2f 05 00
	00 00 00	 comisd	 xmm0, QWORD PTR __real@3fef5c2900000000
  001e0	59		 pop	 ecx
  001e1	72 08		 jb	 SHORT $LN5@ProcessRot

; 236  : 	{
; 237  : 		pChar->SetTargetRotToRotate( qtRotate, true );

  001e3	8d 45 90	 lea	 eax, DWORD PTR _qtRotate$[ebp]

; 238  : 		return;

  001e6	e9 9d 01 00 00	 jmp	 $LN56@ProcessRot
$LN5@ProcessRot:

; 239  : 	}
; 240  : 
; 241  : 	D3DXVECTOR3 vAxis;
; 242  : 	if( fDotValue <= -0.98f )

  001eb	f3 0f 10 45 b8	 movss	 xmm0, DWORD PTR _fDotValue$[ebp]
  001f0	f2 0f 10 0d 00
	00 00 00	 movsd	 xmm1, QWORD PTR __real@bfef5c2900000000
  001f8	0f 5a c0	 cvtps2pd xmm0, xmm0
  001fb	66 0f 2f c8	 comisd	 xmm1, xmm0
  001ff	f3 0f 10 05 00
	00 00 00	 movss	 xmm0, DWORD PTR __mask@@NegFloat@
  00207	72 11		 jb	 SHORT $LN4@ProcessRot

; 243  : 	{
; 244  : 		vAxis = ioMath::UNIT_Y;

  00209	8b 35 00 00 00
	00		 mov	 esi, DWORD PTR __imp_?UNIT_Y@ioMath@@2UD3DXVECTOR3@@A
  0020f	8d 7d c0	 lea	 edi, DWORD PTR _vAxis$[ebp]
  00212	a5		 movsd
  00213	a5		 movsd
  00214	a5		 movsd

; 245  : 	}
; 246  : 	else

  00215	e9 cd 00 00 00	 jmp	 $LN3@ProcessRot
$LN4@ProcessRot:

; 247  : 	{
; 248  : 		D3DXVec3Cross( &vAxis, &vTargetDir, &vCurMoveDir );

  0021a	f3 0f 10 55 ec	 movss	 xmm2, DWORD PTR _vCurMoveDir$[ebp+8]
  0021f	f3 0f 10 4d dc	 movss	 xmm1, DWORD PTR _vTargetDir$[ebp+4]
  00224	f3 0f 10 5d e0	 movss	 xmm3, DWORD PTR _vTargetDir$[ebp+8]
  00229	f3 0f 10 65 d8	 movss	 xmm4, DWORD PTR _vTargetDir$[ebp]
  0022e	f3 0f 10 6d e4	 movss	 xmm5, DWORD PTR _vCurMoveDir$[ebp]
  00233	0f 5a d2	 cvtps2pd xmm2, xmm2
  00236	0f 5a db	 cvtps2pd xmm3, xmm3
  00239	0f 5a c9	 cvtps2pd xmm1, xmm1
  0023c	f2 0f 59 ca	 mulsd	 xmm1, xmm2
  00240	f3 0f 10 55 e8	 movss	 xmm2, DWORD PTR _vCurMoveDir$[ebp+4]
  00245	0f 5a d2	 cvtps2pd xmm2, xmm2
  00248	f2 0f 59 d3	 mulsd	 xmm2, xmm3
  0024c	f3 0f 10 5d e4	 movss	 xmm3, DWORD PTR _vCurMoveDir$[ebp]
  00251	f2 0f 5c ca	 subsd	 xmm1, xmm2
  00255	f3 0f 10 55 e0	 movss	 xmm2, DWORD PTR _vTargetDir$[ebp+8]
  0025a	0f 5a db	 cvtps2pd xmm3, xmm3
  0025d	0f 5a d2	 cvtps2pd xmm2, xmm2
  00260	f2 0f 59 d3	 mulsd	 xmm2, xmm3
  00264	f3 0f 10 5d ec	 movss	 xmm3, DWORD PTR _vCurMoveDir$[ebp+8]
  00269	0f 5a db	 cvtps2pd xmm3, xmm3
  0026c	0f 5a e4	 cvtps2pd xmm4, xmm4
  0026f	f2 0f 59 dc	 mulsd	 xmm3, xmm4
  00273	f3 0f 10 65 d8	 movss	 xmm4, DWORD PTR _vTargetDir$[ebp]
  00278	f2 0f 5c d3	 subsd	 xmm2, xmm3
  0027c	f3 0f 10 5d e8	 movss	 xmm3, DWORD PTR _vCurMoveDir$[ebp+4]
  00281	0f 5a db	 cvtps2pd xmm3, xmm3
  00284	0f 5a e4	 cvtps2pd xmm4, xmm4
  00287	f2 0f 59 dc	 mulsd	 xmm3, xmm4
  0028b	f3 0f 10 65 dc	 movss	 xmm4, DWORD PTR _vTargetDir$[ebp+4]
  00290	0f 5a e4	 cvtps2pd xmm4, xmm4
  00293	0f 5a ed	 cvtps2pd xmm5, xmm5
  00296	f2 0f 59 e5	 mulsd	 xmm4, xmm5
  0029a	f2 0f 5c dc	 subsd	 xmm3, xmm4
  0029e	f2 0f 5a c9	 cvtsd2ss xmm1, xmm1
  002a2	f3 0f 11 4d f0	 movss	 DWORD PTR _v$544503[ebp], xmm1
  002a7	f2 0f 5a d2	 cvtsd2ss xmm2, xmm2
  002ab	f3 0f 11 55 f4	 movss	 DWORD PTR _v$544503[ebp+4], xmm2
  002b0	f2 0f 5a db	 cvtsd2ss xmm3, xmm3
  002b4	f3 0f 11 5d f8	 movss	 DWORD PTR _v$544503[ebp+8], xmm3
  002b9	8d 75 f0	 lea	 esi, DWORD PTR _v$544503[ebp]
  002bc	8d 7d c0	 lea	 edi, DWORD PTR _vAxis$[ebp]
  002bf	a5		 movsd
  002c0	a5		 movsd

; 249  : 		D3DXVec3Normalize( &vAxis, &-vAxis );

  002c1	8d 45 f0	 lea	 eax, DWORD PTR $T541458[ebp]
  002c4	50		 push	 eax
  002c5	a5		 movsd
  002c6	8d 45 c0	 lea	 eax, DWORD PTR _vAxis$[ebp]
  002c9	0f 57 c8	 xorps	 xmm1, xmm0
  002cc	0f 57 d0	 xorps	 xmm2, xmm0
  002cf	0f 57 d8	 xorps	 xmm3, xmm0
  002d2	50		 push	 eax
  002d3	f3 0f 11 4d f0	 movss	 DWORD PTR $T541458[ebp], xmm1
  002d8	f3 0f 11 55 f4	 movss	 DWORD PTR $T541458[ebp+4], xmm2
  002dd	f3 0f 11 5d f8	 movss	 DWORD PTR $T541458[ebp+8], xmm3
  002e2	e8 00 00 00 00	 call	 _D3DXVec3Normalize@8
$LN3@ProcessRot:

; 250  : 	}
; 251  : 
; 252  : 	D3DXQUATERNION qtNewRot;
; 253  : 	if( fGapAngle < fRotateAngle )

  002e7	f3 0f 10 45 bc	 movss	 xmm0, DWORD PTR _fGapAngle$[ebp]
  002ec	f3 0f 10 4d b4	 movss	 xmm1, DWORD PTR _fRotateAngle$[ebp]
  002f1	0f 5a c0	 cvtps2pd xmm0, xmm0
  002f4	0f 5a c9	 cvtps2pd xmm1, xmm1
  002f7	66 0f 2f c8	 comisd	 xmm1, xmm0

; 254  : 		D3DXQuaternionRotationAxis( &qtNewRot, &vAxis, DEGtoRAD(fGapAngle) );

  002fb	51		 push	 ecx
  002fc	8d 45 c0	 lea	 eax, DWORD PTR _vAxis$[ebp]
  002ff	76 07		 jbe	 SHORT $LN2@ProcessRot
  00301	f3 0f 10 45 bc	 movss	 xmm0, DWORD PTR _fGapAngle$[ebp]

; 255  : 	else

  00306	eb 05		 jmp	 SHORT $LN57@ProcessRot
$LN2@ProcessRot:

; 256  : 		D3DXQuaternionRotationAxis( &qtNewRot, &vAxis, DEGtoRAD(fRotateAngle) );

  00308	f3 0f 10 45 b4	 movss	 xmm0, DWORD PTR _fRotateAngle$[ebp]
$LN57@ProcessRot:
  0030d	0f 5a c0	 cvtps2pd xmm0, xmm0
  00310	f2 0f 59 05 00
	00 00 00	 mulsd	 xmm0, QWORD PTR __real@3f91df46a2526c7a
  00318	f2 0f 5a c0	 cvtsd2ss xmm0, xmm0
  0031c	f3 0f 11 04 24	 movss	 DWORD PTR [esp], xmm0
  00321	50		 push	 eax
  00322	8d 45 a0	 lea	 eax, DWORD PTR _qtNewRot$[ebp]
  00325	50		 push	 eax
  00326	e8 00 00 00 00	 call	 _D3DXQuaternionRotationAxis@12

; 257  : 
; 258  : 	D3DXVECTOR3 vNewDir = qtNewRot * vCurMoveDir;

  0032b	8d 45 e4	 lea	 eax, DWORD PTR _vCurMoveDir$[ebp]
  0032e	50		 push	 eax
  0032f	8d 45 a0	 lea	 eax, DWORD PTR _qtNewRot$[ebp]
  00332	50		 push	 eax
  00333	8d 45 cc	 lea	 eax, DWORD PTR _vNewDir$[ebp]
  00336	50		 push	 eax
  00337	ff d3		 call	 ebx
  00339	83 c4 0c	 add	 esp, 12			; 0000000cH

; 259  : 	D3DXVec3Normalize( &vNewDir, &vNewDir );

  0033c	8d 45 cc	 lea	 eax, DWORD PTR _vNewDir$[ebp]
  0033f	50		 push	 eax
  00340	50		 push	 eax
  00341	e8 00 00 00 00	 call	 _D3DXVec3Normalize@8

; 260  : 
; 261  : 	ioMath::CalcDirectionQuaternion( qtNewRot, -vNewDir );

  00346	f3 0f 10 05 00
	00 00 00	 movss	 xmm0, DWORD PTR __mask@@NegFloat@
  0034e	f3 0f 10 4d cc	 movss	 xmm1, DWORD PTR _vNewDir$[ebp]
  00353	0f 57 c8	 xorps	 xmm1, xmm0
  00356	f3 0f 11 4d f0	 movss	 DWORD PTR $T541464[ebp], xmm1
  0035b	f3 0f 10 4d d0	 movss	 xmm1, DWORD PTR _vNewDir$[ebp+4]
  00360	0f 57 c8	 xorps	 xmm1, xmm0
  00363	8d 45 f0	 lea	 eax, DWORD PTR $T541464[ebp]
  00366	50		 push	 eax
  00367	f3 0f 11 4d f4	 movss	 DWORD PTR $T541464[ebp+4], xmm1
  0036c	f3 0f 10 4d d4	 movss	 xmm1, DWORD PTR _vNewDir$[ebp+8]
  00371	8d 45 a0	 lea	 eax, DWORD PTR _qtNewRot$[ebp]
  00374	0f 57 c8	 xorps	 xmm1, xmm0
  00377	50		 push	 eax
  00378	f3 0f 11 4d f8	 movss	 DWORD PTR $T541464[ebp+8], xmm1
  0037d	ff 15 00 00 00
	00		 call	 DWORD PTR __imp_?CalcDirectionQuaternion@ioMath@@SAXAAUD3DXQUATERNION@@ABUD3DXVECTOR3@@@Z
  00383	59		 pop	 ecx
  00384	59		 pop	 ecx

; 262  : 	pChar->SetTargetRotToRotate( qtNewRot, true );

  00385	8d 45 a0	 lea	 eax, DWORD PTR _qtNewRot$[ebp]
$LN56@ProcessRot:
  00388	8b 4d b0	 mov	 ecx, DWORD PTR _pChar$GSCopy$[ebp]
  0038b	6a 00		 push	 0
  0038d	6a 01		 push	 1
  0038f	50		 push	 eax
  00390	e8 00 00 00 00	 call	 ?SetTargetRotToRotate@ioBaseChar@@QAEXABUD3DXQUATERNION@@_N1@Z ; ioBaseChar::SetTargetRotToRotate
  00395	5f		 pop	 edi
  00396	5b		 pop	 ebx
$LN9@ProcessRot:

; 263  : }

  00397	8b 4d fc	 mov	 ecx, DWORD PTR __$ArrayPad$[ebp]
  0039a	33 cd		 xor	 ecx, ebp
  0039c	5e		 pop	 esi
  0039d	e8 00 00 00 00	 call	 @__security_check_cookie@4
  003a2	c9		 leave
  003a3	c2 08 00	 ret	 8
?ProcessRotate@ioSelfControlBuff@@IAEXPAVioBaseChar@@M@Z ENDP ; ioSelfControlBuff::ProcessRotate
_TEXT	ENDS
PUBLIC	?CheckWeaponDead@ioSelfControlBuff@@IAE_NPAVioBaseChar@@@Z ; ioSelfControlBuff::CheckWeaponDead
EXTRN	__imp_?GetLoopSec@ioFrameTimer@@QBEKXZ:PROC
; Function compile flags: /Ogsp
;	COMDAT ?CheckWeaponDead@ioSelfControlBuff@@IAE_NPAVioBaseChar@@@Z
_TEXT	SEGMENT
_pCreator$ = -8						; size = 4
_value$544559 = -4					; size = 4
_pChar$ = 8						; size = 4
?CheckWeaponDead@ioSelfControlBuff@@IAE_NPAVioBaseChar@@@Z PROC ; ioSelfControlBuff::CheckWeaponDead, COMDAT
; _this$ = ecx

; 290  : {

  00000	55		 push	 ebp
  00001	8b ec		 mov	 ebp, esp
  00003	51		 push	 ecx
  00004	51		 push	 ecx
  00005	53		 push	 ebx
  00006	56		 push	 esi
  00007	57		 push	 edi
  00008	8b f1		 mov	 esi, ecx

; 291  : 	DWORD dwCurTime = FRAMEGETTIME();

  0000a	ff 15 00 00 00
	00		 call	 DWORD PTR __imp_?GetSingleton@ioFrameTimer@@SAAAV1@XZ
  00010	8b c8		 mov	 ecx, eax
  00012	ff 15 00 00 00
	00		 call	 DWORD PTR __imp_?GetLoopSec@ioFrameTimer@@QBEKXZ
  00018	8b d8		 mov	 ebx, eax

; 292  : 
; 293  : 	DWORD dwTopTime = m_CallAttributeList[0].m_dwAttributeCallTime;

  0001a	8b 86 2c 04 00
	00		 mov	 eax, DWORD PTR [esi+1068]
  00020	8b 78 28	 mov	 edi, DWORD PTR [eax+40]

; 294  : 	dwTopTime += m_dwBuffStartTime;

  00023	8d 45 fc	 lea	 eax, DWORD PTR _value$544559[ebp]
  00026	50		 push	 eax
  00027	8d 8e 6c 03 00
	00		 lea	 ecx, DWORD PTR [esi+876]
  0002d	e8 00 00 00 00	 call	 ?DecryptValueToPool@?$CEncrypt@K@@QAEXPAK@Z ; CEncrypt<unsigned long>::DecryptValueToPool

; 295  : 	ioBaseChar *pCreator = m_pOwner->GetBaseChar( m_CreateChar );

  00032	8b 8e 74 02 00
	00		 mov	 ecx, DWORD PTR [esi+628]
  00038	8d 86 88 02 00
	00		 lea	 eax, DWORD PTR [esi+648]
  0003e	50		 push	 eax
  0003f	e8 00 00 00 00	 call	 ?GetBaseChar@ioBaseChar@@QAEPAV1@ABVioHashString@@@Z ; ioBaseChar::GetBaseChar
  00044	89 45 f8	 mov	 DWORD PTR _pCreator$[ebp], eax

; 296  : 	if ( !pCreator ) return false;

  00047	85 c0		 test	 eax, eax
  00049	75 04		 jne	 SHORT $LN7@CheckWeapo
$LN3@CheckWeapo:
  0004b	32 c0		 xor	 al, al
  0004d	eb 57		 jmp	 SHORT $LN8@CheckWeapo
$LN7@CheckWeapo:

; 294  : 	dwTopTime += m_dwBuffStartTime;

  0004f	8b 45 fc	 mov	 eax, DWORD PTR _value$544559[ebp]
  00052	03 c7		 add	 eax, edi

; 297  : 	if ( dwCurTime >= dwTopTime )

  00054	3b d8		 cmp	 ebx, eax
  00056	72 4c		 jb	 SHORT $LN6@CheckWeapo

; 298  : 	{
; 299  : 		int iSize = m_vWeaponIndexList.size();

  00058	8b be 40 04 00
	00		 mov	 edi, DWORD PTR [esi+1088]
  0005e	2b be 3c 04 00
	00		 sub	 edi, DWORD PTR [esi+1084]

; 300  : 		for( int i=0; i < iSize; ++i )

  00064	33 db		 xor	 ebx, ebx
  00066	c1 ff 02	 sar	 edi, 2
  00069	85 ff		 test	 edi, edi
  0006b	7e de		 jle	 SHORT $LN3@CheckWeapo
$LL23@CheckWeapo:

; 301  : 		{
; 302  : 			int iWeaponIndex = m_vWeaponIndexList[i];

  0006d	8b 86 3c 04 00
	00		 mov	 eax, DWORD PTR [esi+1084]

; 303  : 
; 304  : 			ioWeapon *pWeapon = g_WeaponMgr.FindWeapon( pCreator, iWeaponIndex );

  00073	ff 34 98	 push	 DWORD PTR [eax+ebx*4]
  00076	ff 75 f8	 push	 DWORD PTR _pCreator$[ebp]
  00079	e8 00 00 00 00	 call	 ?GetSingleton@ioWeaponManager@@SAAAV1@XZ ; ioWeaponManager::GetSingleton
  0007e	8b c8		 mov	 ecx, eax
  00080	e8 00 00 00 00	 call	 ?FindWeapon@ioWeaponManager@@QAEPAVioWeapon@@PAVioBaseChar@@K@Z ; ioWeaponManager::FindWeapon

; 305  : 			if( pWeapon && pWeapon->IsLive() )

  00085	85 c0		 test	 eax, eax
  00087	74 14		 je	 SHORT $LN4@CheckWeapo
  00089	80 b8 82 05 00
	00 00		 cmp	 BYTE PTR [eax+1410], 0
  00090	74 0b		 je	 SHORT $LN4@CheckWeapo

; 306  : 			{
; 307  : 				if( ToZoneEffectWeapon( pWeapon ) )

  00092	50		 push	 eax
  00093	e8 00 00 00 00	 call	 ?ToZoneEffectWeapon@@YAPAVioZoneEffectWeapon@@PAVioWeapon@@@Z ; ToZoneEffectWeapon
  00098	59		 pop	 ecx
  00099	85 c0		 test	 eax, eax
  0009b	75 07		 jne	 SHORT $LN6@CheckWeapo
$LN4@CheckWeapo:

; 300  : 		for( int i=0; i < iSize; ++i )

  0009d	43		 inc	 ebx
  0009e	3b df		 cmp	 ebx, edi
  000a0	7c cb		 jl	 SHORT $LL23@CheckWeapo

; 308  : 					return true;
; 309  : 			}
; 310  : 		}
; 311  : 		return false;

  000a2	eb a7		 jmp	 SHORT $LN3@CheckWeapo
$LN6@CheckWeapo:

; 312  : 	}
; 313  : 	return true;

  000a4	b0 01		 mov	 al, 1
$LN8@CheckWeapo:
  000a6	5f		 pop	 edi
  000a7	5e		 pop	 esi
  000a8	5b		 pop	 ebx

; 314  : }

  000a9	c9		 leave
  000aa	c2 04 00	 ret	 4
?CheckWeaponDead@ioSelfControlBuff@@IAE_NPAVioBaseChar@@@Z ENDP ; ioSelfControlBuff::CheckWeaponDead
_TEXT	ENDS
PUBLIC	?begin@?$vector@UCallAttribute@@V?$allocator@UCallAttribute@@@std@@@std@@QAE?AV?$_Vector_iterator@V?$_Vector_val@UCallAttribute@@V?$allocator@UCallAttribute@@@std@@@std@@@2@XZ ; std::vector<CallAttribute,std::allocator<CallAttribute> >::begin
; Function compile flags: /Ogsp
; File c:\program files (x86)\microsoft visual studio 10.0\vc\include\vector
;	COMDAT ?begin@?$vector@UCallAttribute@@V?$allocator@UCallAttribute@@@std@@@std@@QAE?AV?$_Vector_iterator@V?$_Vector_val@UCallAttribute@@V?$allocator@UCallAttribute@@@std@@@std@@@2@XZ
_TEXT	SEGMENT
___$ReturnUdt$ = 8					; size = 4
?begin@?$vector@UCallAttribute@@V?$allocator@UCallAttribute@@@std@@@std@@QAE?AV?$_Vector_iterator@V?$_Vector_val@UCallAttribute@@V?$allocator@UCallAttribute@@@std@@@std@@@2@XZ PROC ; std::vector<CallAttribute,std::allocator<CallAttribute> >::begin, COMDAT
; _this$ = ecx

; 781  : 		{	// return iterator for beginning of mutable sequence

  00000	55		 push	 ebp
  00001	8b ec		 mov	 ebp, esp

; 782  : 		return (iterator(this->_Myfirst, this));

  00003	8b 09		 mov	 ecx, DWORD PTR [ecx]
  00005	8b 45 08	 mov	 eax, DWORD PTR ___$ReturnUdt$[ebp]
  00008	89 08		 mov	 DWORD PTR [eax], ecx

; 783  : 		}

  0000a	5d		 pop	 ebp
  0000b	c2 04 00	 ret	 4
?begin@?$vector@UCallAttribute@@V?$allocator@UCallAttribute@@@std@@@std@@QAE?AV?$_Vector_iterator@V?$_Vector_val@UCallAttribute@@V?$allocator@UCallAttribute@@@std@@@std@@@2@XZ ENDP ; std::vector<CallAttribute,std::allocator<CallAttribute> >::begin
_TEXT	ENDS
PUBLIC	?_Make_iter@?$vector@UCallAttribute@@V?$allocator@UCallAttribute@@@std@@@std@@QBE?AV?$_Vector_iterator@V?$_Vector_val@UCallAttribute@@V?$allocator@UCallAttribute@@@std@@@std@@@2@V?$_Vector_const_iterator@V?$_Vector_val@UCallAttribute@@V?$allocator@UCallAttribute@@@std@@@std@@@2@@Z ; std::vector<CallAttribute,std::allocator<CallAttribute> >::_Make_iter
; Function compile flags: /Ogsp
;	COMDAT ?_Make_iter@?$vector@UCallAttribute@@V?$allocator@UCallAttribute@@@std@@@std@@QBE?AV?$_Vector_iterator@V?$_Vector_val@UCallAttribute@@V?$allocator@UCallAttribute@@@std@@@std@@@2@V?$_Vector_const_iterator@V?$_Vector_val@UCallAttribute@@V?$allocator@UCallAttribute@@@std@@@std@@@2@@Z
_TEXT	SEGMENT
___$ReturnUdt$ = 8					; size = 4
__Where$ = 12						; size = 4
?_Make_iter@?$vector@UCallAttribute@@V?$allocator@UCallAttribute@@@std@@@std@@QBE?AV?$_Vector_iterator@V?$_Vector_val@UCallAttribute@@V?$allocator@UCallAttribute@@@std@@@std@@@2@V?$_Vector_const_iterator@V?$_Vector_val@UCallAttribute@@V?$allocator@UCallAttribute@@@std@@@std@@@2@@Z PROC ; std::vector<CallAttribute,std::allocator<CallAttribute> >::_Make_iter, COMDAT
; _this$ = ecx

; 801  : 		{	// make iterator from const_iterator

  00000	55		 push	 ebp
  00001	8b ec		 mov	 ebp, esp

; 802  : 		return (iterator(_Where._Ptr, this));

  00003	8b 45 08	 mov	 eax, DWORD PTR ___$ReturnUdt$[ebp]
  00006	8b 4d 0c	 mov	 ecx, DWORD PTR __Where$[ebp]
  00009	89 08		 mov	 DWORD PTR [eax], ecx

; 803  : 		}

  0000b	5d		 pop	 ebp
  0000c	c2 08 00	 ret	 8
?_Make_iter@?$vector@UCallAttribute@@V?$allocator@UCallAttribute@@@std@@@std@@QBE?AV?$_Vector_iterator@V?$_Vector_val@UCallAttribute@@V?$allocator@UCallAttribute@@@std@@@std@@@2@V?$_Vector_const_iterator@V?$_Vector_val@UCallAttribute@@V?$allocator@UCallAttribute@@@std@@@std@@@2@@Z ENDP ; std::vector<CallAttribute,std::allocator<CallAttribute> >::_Make_iter
_TEXT	ENDS
PUBLIC	??$_Cons_val@V?$allocator@H@std@@HAAH@std@@YAXAAV?$allocator@H@0@PAHAAH@Z ; std::_Cons_val<std::allocator<int>,int,int &>
; Function compile flags: /Ogsp
; File c:\program files (x86)\microsoft visual studio 10.0\vc\include\xmemory
;	COMDAT ??$_Cons_val@V?$allocator@H@std@@HAAH@std@@YAXAAV?$allocator@H@0@PAHAAH@Z
_TEXT	SEGMENT
__Alval$ = 8						; size = 4
__Pdest$ = 12						; size = 4
__Src$ = 16						; size = 4
??$_Cons_val@V?$allocator@H@std@@HAAH@std@@YAXAAV?$allocator@H@0@PAHAAH@Z PROC ; std::_Cons_val<std::allocator<int>,int,int &>, COMDAT

; 279  : 	{	// construct using allocator

  00000	55		 push	 ebp
  00001	8b ec		 mov	 ebp, esp

; 280  : 	_Alval.construct(_Pdest, _STD forward<_Ty2>(_Src));

  00003	8b 45 0c	 mov	 eax, DWORD PTR __Pdest$[ebp]
  00006	85 c0		 test	 eax, eax
  00008	74 07		 je	 SHORT $LN7@Cons_val
  0000a	8b 4d 10	 mov	 ecx, DWORD PTR __Src$[ebp]
  0000d	8b 09		 mov	 ecx, DWORD PTR [ecx]
  0000f	89 08		 mov	 DWORD PTR [eax], ecx
$LN7@Cons_val:

; 281  : 	}

  00011	5d		 pop	 ebp
  00012	c3		 ret	 0
??$_Cons_val@V?$allocator@H@std@@HAAH@std@@YAXAAV?$allocator@H@0@PAHAAH@Z ENDP ; std::_Cons_val<std::allocator<int>,int,int &>
_TEXT	ENDS
PUBLIC	??$_Cons_val@V?$allocator@H@std@@HABH@std@@YAXAAV?$allocator@H@0@PAHABH@Z ; std::_Cons_val<std::allocator<int>,int,int const &>
; Function compile flags: /Ogsp
;	COMDAT ??$_Cons_val@V?$allocator@H@std@@HABH@std@@YAXAAV?$allocator@H@0@PAHABH@Z
_TEXT	SEGMENT
__Alval$ = 8						; size = 4
__Pdest$ = 12						; size = 4
__Src$ = 16						; size = 4
??$_Cons_val@V?$allocator@H@std@@HABH@std@@YAXAAV?$allocator@H@0@PAHABH@Z PROC ; std::_Cons_val<std::allocator<int>,int,int const &>, COMDAT

; 279  : 	{	// construct using allocator

  00000	55		 push	 ebp
  00001	8b ec		 mov	 ebp, esp

; 280  : 	_Alval.construct(_Pdest, _STD forward<_Ty2>(_Src));

  00003	8b 45 0c	 mov	 eax, DWORD PTR __Pdest$[ebp]
  00006	85 c0		 test	 eax, eax
  00008	74 07		 je	 SHORT $LN9@Cons_val@2
  0000a	8b 4d 10	 mov	 ecx, DWORD PTR __Src$[ebp]
  0000d	8b 09		 mov	 ecx, DWORD PTR [ecx]
  0000f	89 08		 mov	 DWORD PTR [eax], ecx
$LN9@Cons_val@2:

; 281  : 	}

  00011	5d		 pop	 ebp
  00012	c3		 ret	 0
??$_Cons_val@V?$allocator@H@std@@HABH@std@@YAXAAV?$allocator@H@0@PAHABH@Z ENDP ; std::_Cons_val<std::allocator<int>,int,int const &>
_TEXT	ENDS
PUBLIC	??$_Move@PAUCallAttribute@@PAU1@@std@@YAPAUCallAttribute@@PAU1@00U_Nonscalar_ptr_iterator_tag@0@@Z ; std::_Move<CallAttribute *,CallAttribute *>
; Function compile flags: /Ogsp
; File c:\program files (x86)\microsoft visual studio 10.0\vc\include\xutility
;	COMDAT ??$_Move@PAUCallAttribute@@PAU1@@std@@YAPAUCallAttribute@@PAU1@00U_Nonscalar_ptr_iterator_tag@0@@Z
_TEXT	SEGMENT
__First$ = 8						; size = 4
__Last$ = 12						; size = 4
__Dest$ = 16						; size = 4
___formal$ = 20						; size = 1
??$_Move@PAUCallAttribute@@PAU1@@std@@YAPAUCallAttribute@@PAU1@00U_Nonscalar_ptr_iterator_tag@0@@Z PROC ; std::_Move<CallAttribute *,CallAttribute *>, COMDAT

; 2512 : 	{	// move [_First, _Last) to [_Dest, ...), arbitrary iterators

  00000	55		 push	 ebp
  00001	8b ec		 mov	 ebp, esp
  00003	56		 push	 esi

; 2513 : 	for (; _First != _Last; ++_Dest, ++_First)

  00004	8b 75 08	 mov	 esi, DWORD PTR __First$[ebp]
  00007	eb 10		 jmp	 SHORT $LN11@Move
$LL3@Move:

; 2514 : 		*_Dest = _STD move(*_First);

  00009	8b 4d 10	 mov	 ecx, DWORD PTR __Dest$[ebp]
  0000c	56		 push	 esi
  0000d	e8 00 00 00 00	 call	 ??4CallAttribute@@QAEAAU0@ABU0@@Z
  00012	83 45 10 40	 add	 DWORD PTR __Dest$[ebp], 64 ; 00000040H
  00016	83 c6 40	 add	 esi, 64			; 00000040H
$LN11@Move:

; 2513 : 	for (; _First != _Last; ++_Dest, ++_First)

  00019	3b 75 0c	 cmp	 esi, DWORD PTR __Last$[ebp]
  0001c	75 eb		 jne	 SHORT $LL3@Move

; 2515 : 	return (_Dest);

  0001e	8b 45 10	 mov	 eax, DWORD PTR __Dest$[ebp]
  00021	5e		 pop	 esi

; 2516 : 	}

  00022	5d		 pop	 ebp
  00023	c3		 ret	 0
??$_Move@PAUCallAttribute@@PAU1@@std@@YAPAUCallAttribute@@PAU1@00U_Nonscalar_ptr_iterator_tag@0@@Z ENDP ; std::_Move<CallAttribute *,CallAttribute *>
_TEXT	ENDS
PUBLIC	??_GCallAttribute@@QAEPAXI@Z			; CallAttribute::`scalar deleting destructor'
; Function compile flags: /Ogsp
;	COMDAT ??_GCallAttribute@@QAEPAXI@Z
_TEXT	SEGMENT
___flags$ = 8						; size = 4
??_GCallAttribute@@QAEPAXI@Z PROC			; CallAttribute::`scalar deleting destructor', COMDAT
; _this$ = ecx
  00000	55		 push	 ebp
  00001	8b ec		 mov	 ebp, esp
  00003	56		 push	 esi
  00004	8b f1		 mov	 esi, ecx
  00006	8d 4e 08	 lea	 ecx, DWORD PTR [esi+8]
  00009	ff 15 00 00 00
	00		 call	 DWORD PTR __imp_??1ioHashString@@QAE@XZ
  0000f	f6 45 08 01	 test	 BYTE PTR ___flags$[ebp], 1
  00013	74 07		 je	 SHORT $LN1@scalar@3
  00015	56		 push	 esi
  00016	e8 00 00 00 00	 call	 ??3@YAXPAX@Z		; operator delete
  0001b	59		 pop	 ecx
$LN1@scalar@3:
  0001c	8b c6		 mov	 eax, esi
  0001e	5e		 pop	 esi
  0001f	5d		 pop	 ebp
  00020	c2 04 00	 ret	 4
??_GCallAttribute@@QAEPAXI@Z ENDP			; CallAttribute::`scalar deleting destructor'
_TEXT	ENDS
PUBLIC	?_Destroy@?$vector@HV?$allocator@H@std@@@std@@IAEXPAH0@Z ; std::vector<int,std::allocator<int> >::_Destroy
; Function compile flags: /Ogsp
; File c:\program files (x86)\microsoft visual studio 10.0\vc\include\vector
;	COMDAT ?_Destroy@?$vector@HV?$allocator@H@std@@@std@@IAEXPAH0@Z
_TEXT	SEGMENT
__First$ = 8						; size = 4
__Last$ = 12						; size = 4
?_Destroy@?$vector@HV?$allocator@H@std@@@std@@IAEXPAH0@Z PROC ; std::vector<int,std::allocator<int> >::_Destroy, COMDAT
; _this$ = ecx

; 1270 : 		_Destroy_range(_First, _Last, this->_Alval);
; 1271 : 		}

  00000	c2 08 00	 ret	 8
?_Destroy@?$vector@HV?$allocator@H@std@@@std@@IAEXPAH0@Z ENDP ; std::vector<int,std::allocator<int> >::_Destroy
_TEXT	ENDS
PUBLIC	??$_Umove@PAH@?$vector@HV?$allocator@H@std@@@std@@IAEPAHPAH00@Z ; std::vector<int,std::allocator<int> >::_Umove<int *>
; Function compile flags: /Ogsp
;	COMDAT ??$_Umove@PAH@?$vector@HV?$allocator@H@std@@@std@@IAEPAHPAH00@Z
_TEXT	SEGMENT
__First$ = 8						; size = 4
__Last$ = 12						; size = 4
__Ptr$ = 16						; size = 4
??$_Umove@PAH@?$vector@HV?$allocator@H@std@@@std@@IAEPAHPAH00@Z PROC ; std::vector<int,std::allocator<int> >::_Umove<int *>, COMDAT
; _this$ = ecx

; 1322 : 		pointer _Umove(_Iter _First, _Iter _Last, pointer _Ptr)

  00000	55		 push	 ebp
  00001	8b ec		 mov	 ebp, esp

; 1323 : 		{	// move initializing [_First, _Last), using allocator
; 1324 : 		return (_Uninitialized_move(_First, _Last,
; 1325 : 			_Ptr, this->_Alval));

  00003	83 c1 0c	 add	 ecx, 12			; 0000000cH
  00006	51		 push	 ecx
  00007	ff 75 10	 push	 DWORD PTR __Ptr$[ebp]
  0000a	ff 75 0c	 push	 DWORD PTR __Last$[ebp]
  0000d	ff 75 08	 push	 DWORD PTR __First$[ebp]
  00010	e8 00 00 00 00	 call	 ??$_Uninitialized_move@PAHPAHV?$allocator@H@std@@@std@@YAPAHPAH00AAV?$allocator@H@0@@Z ; std::_Uninitialized_move<int *,int *,std::allocator<int> >
  00015	83 c4 10	 add	 esp, 16			; 00000010H

; 1326 : 		}

  00018	5d		 pop	 ebp
  00019	c2 0c 00	 ret	 12			; 0000000cH
??$_Umove@PAH@?$vector@HV?$allocator@H@std@@@std@@IAEPAHPAH00@Z ENDP ; std::vector<int,std::allocator<int> >::_Umove<int *>
_TEXT	ENDS
PUBLIC	__$ArrayPad$
PUBLIC	?ProcessBuffAction@ioSelfControlBuff@@QAEXM@Z	; ioSelfControlBuff::ProcessBuffAction
; Function compile flags: /Ogsp
; File d:\lost saga for developer\youtube\tutorial\source\src\lsclient\ioselfcontrolbuff.cpp
;	COMDAT ?ProcessBuffAction@ioSelfControlBuff@@QAEXM@Z
_TEXT	SEGMENT
tv308 = -32						; size = 4
_vMoveAmt$541379 = -28					; size = 12
_vPos$541381 = -16					; size = 12
__$ArrayPad$ = -4					; size = 4
_fTimePerSec$ = 8					; size = 4
?ProcessBuffAction@ioSelfControlBuff@@QAEXM@Z PROC	; ioSelfControlBuff::ProcessBuffAction, COMDAT
; _this$ = ecx

; 120  : {	

  00000	55		 push	 ebp
  00001	8b ec		 mov	 ebp, esp
  00003	83 ec 20	 sub	 esp, 32			; 00000020H
  00006	a1 00 00 00 00	 mov	 eax, DWORD PTR ___security_cookie
  0000b	33 c5		 xor	 eax, ebp
  0000d	89 45 fc	 mov	 DWORD PTR __$ArrayPad$[ebp], eax
  00010	53		 push	 ebx
  00011	8b d9		 mov	 ebx, ecx

; 121  : 	switch( m_State )

  00013	8b 83 6c 09 00
	00		 mov	 eax, DWORD PTR [ebx+2412]
  00019	48		 dec	 eax
  0001a	0f 85 48 01 00
	00		 jne	 $LN2@ProcessBuf

; 122  : 	{
; 123  : 	case SCS_CONTROL:
; 124  : 		{
; 125  : 			float fMoveAMt = m_fCurMoveSpeed * fTimePerSec;

  00020	f3 0f 10 83 70
	09 00 00	 movss	 xmm0, DWORD PTR [ebx+2416]
  00028	f3 0f 10 4d 08	 movss	 xmm1, DWORD PTR _fTimePerSec$[ebp]

; 126  : 			m_fSkillTotalMoveAmount += fMoveAMt;
; 127  : 
; 128  : 			D3DXVECTOR3 vMoveAmt = m_pOwner->GetMoveDir() * fMoveAMt;

  0002d	8b 8b 74 02 00
	00		 mov	 ecx, DWORD PTR [ebx+628]
  00033	0f 5a c9	 cvtps2pd xmm1, xmm1
  00036	0f 5a c0	 cvtps2pd xmm0, xmm0
  00039	f2 0f 59 c1	 mulsd	 xmm0, xmm1
  0003d	f3 0f 10 8b 8c
	09 00 00	 movss	 xmm1, DWORD PTR [ebx+2444]
  00045	0f 5a c9	 cvtps2pd xmm1, xmm1
  00048	66 0f 5a c0	 cvtpd2ps xmm0, xmm0
  0004c	0f 57 d2	 xorps	 xmm2, xmm2
  0004f	f3 0f 5a d0	 cvtss2sd xmm2, xmm0
  00053	f2 0f 58 ca	 addsd	 xmm1, xmm2
  00057	66 0f 5a c9	 cvtpd2ps xmm1, xmm1
  0005b	f3 0f 11 8b 8c
	09 00 00	 movss	 DWORD PTR [ebx+2444], xmm1
  00063	f3 0f 10 89 b4
	06 00 00	 movss	 xmm1, DWORD PTR [ecx+1716]

; 129  : 			D3DXVECTOR3 vPos = m_pOwner->GetWorldPosition();

  0006b	8b 01		 mov	 eax, DWORD PTR [ecx]
  0006d	0f 5a c9	 cvtps2pd xmm1, xmm1
  00070	0f 57 d2	 xorps	 xmm2, xmm2
  00073	f3 0f 5a d0	 cvtss2sd xmm2, xmm0
  00077	f2 0f 59 ca	 mulsd	 xmm1, xmm2
  0007b	66 0f 5a c9	 cvtpd2ps xmm1, xmm1
  0007f	f3 0f 11 4d e4	 movss	 DWORD PTR _vMoveAmt$541379[ebp], xmm1
  00084	f3 0f 10 89 b8
	06 00 00	 movss	 xmm1, DWORD PTR [ecx+1720]
  0008c	0f 5a c9	 cvtps2pd xmm1, xmm1
  0008f	0f 57 d2	 xorps	 xmm2, xmm2
  00092	f3 0f 5a d0	 cvtss2sd xmm2, xmm0
  00096	f2 0f 59 ca	 mulsd	 xmm1, xmm2
  0009a	66 0f 5a c9	 cvtpd2ps xmm1, xmm1
  0009e	f3 0f 5a c0	 cvtss2sd xmm0, xmm0
  000a2	f3 0f 11 4d e8	 movss	 DWORD PTR _vMoveAmt$541379[ebp+4], xmm1
  000a7	f3 0f 10 89 bc
	06 00 00	 movss	 xmm1, DWORD PTR [ecx+1724]
  000af	56		 push	 esi
  000b0	0f 5a c9	 cvtps2pd xmm1, xmm1
  000b3	f2 0f 59 c8	 mulsd	 xmm1, xmm0
  000b7	66 0f 5a c1	 cvtpd2ps xmm0, xmm1
  000bb	57		 push	 edi
  000bc	f3 0f 11 45 ec	 movss	 DWORD PTR _vMoveAmt$541379[ebp+8], xmm0
  000c1	ff 50 70	 call	 DWORD PTR [eax+112]

; 130  : 			vPos += vMoveAmt;

  000c4	f3 0f 10 45 e4	 movss	 xmm0, DWORD PTR _vMoveAmt$541379[ebp]

; 131  : 			m_pOwner->SetWorldPosition( vPos );

  000c9	8b 8b 74 02 00
	00		 mov	 ecx, DWORD PTR [ebx+628]
  000cf	8b f0		 mov	 esi, eax
  000d1	8d 7d f0	 lea	 edi, DWORD PTR _vPos$541381[ebp]
  000d4	a5		 movsd
  000d5	a5		 movsd
  000d6	0f 5a c0	 cvtps2pd xmm0, xmm0
  000d9	a5		 movsd
  000da	f3 0f 10 4d f0	 movss	 xmm1, DWORD PTR _vPos$541381[ebp]
  000df	0f 5a c9	 cvtps2pd xmm1, xmm1
  000e2	f2 0f 58 c1	 addsd	 xmm0, xmm1
  000e6	f3 0f 10 4d e8	 movss	 xmm1, DWORD PTR _vMoveAmt$541379[ebp+4]
  000eb	f2 0f 5a c0	 cvtsd2ss xmm0, xmm0
  000ef	f3 0f 11 45 f0	 movss	 DWORD PTR _vPos$541381[ebp], xmm0
  000f4	f3 0f 10 45 f4	 movss	 xmm0, DWORD PTR _vPos$541381[ebp+4]
  000f9	0f 5a c0	 cvtps2pd xmm0, xmm0
  000fc	0f 5a c9	 cvtps2pd xmm1, xmm1
  000ff	f2 0f 58 c1	 addsd	 xmm0, xmm1
  00103	f3 0f 10 4d ec	 movss	 xmm1, DWORD PTR _vMoveAmt$541379[ebp+8]
  00108	66 0f 5a c0	 cvtpd2ps xmm0, xmm0
  0010c	f3 0f 11 45 f4	 movss	 DWORD PTR _vPos$541381[ebp+4], xmm0
  00111	f3 0f 10 45 f8	 movss	 xmm0, DWORD PTR _vPos$541381[ebp+8]
  00116	0f 5a c0	 cvtps2pd xmm0, xmm0
  00119	0f 5a c9	 cvtps2pd xmm1, xmm1
  0011c	f2 0f 58 c1	 addsd	 xmm0, xmm1
  00120	66 0f 5a c0	 cvtpd2ps xmm0, xmm0
  00124	8d 55 f0	 lea	 edx, DWORD PTR _vPos$541381[ebp]
  00127	f3 0f 11 45 f8	 movss	 DWORD PTR _vPos$541381[ebp+8], xmm0
  0012c	8b 01		 mov	 eax, DWORD PTR [ecx]
  0012e	52		 push	 edx
  0012f	ff 50 44	 call	 DWORD PTR [eax+68]

; 132  : 			CheckKeyInput( m_pOwner );

  00132	ff b3 74 02 00
	00		 push	 DWORD PTR [ebx+628]
  00138	8b cb		 mov	 ecx, ebx
  0013a	e8 00 00 00 00	 call	 ?CheckKeyInput@ioSelfControlBuff@@IAEXPAVioBaseChar@@@Z ; ioSelfControlBuff::CheckKeyInput

; 133  : 			ProcessRotate( m_pOwner, m_dwMoveRotateTime );

  0013f	db 83 84 09 00
	00		 fild	 DWORD PTR [ebx+2436]
  00145	8b 83 84 09 00
	00		 mov	 eax, DWORD PTR [ebx+2436]
  0014b	85 c0		 test	 eax, eax
  0014d	79 06		 jns	 SHORT $LN14@ProcessBuf
  0014f	d8 05 00 00 00
	00		 fadd	 DWORD PTR __real@4f800000
$LN14@ProcessBuf:
  00155	51		 push	 ecx
  00156	d9 1c 24	 fstp	 DWORD PTR [esp]
  00159	ff b3 74 02 00
	00		 push	 DWORD PTR [ebx+628]
  0015f	8b cb		 mov	 ecx, ebx
  00161	e8 00 00 00 00	 call	 ?ProcessRotate@ioSelfControlBuff@@IAEXPAVioBaseChar@@M@Z ; ioSelfControlBuff::ProcessRotate
  00166	5f		 pop	 edi
  00167	5e		 pop	 esi
$LN2@ProcessBuf:

; 134  : 		}
; 135  : 		break;
; 136  : 	}
; 137  : }

  00168	8b 4d fc	 mov	 ecx, DWORD PTR __$ArrayPad$[ebp]
  0016b	33 cd		 xor	 ecx, ebp
  0016d	5b		 pop	 ebx
  0016e	e8 00 00 00 00	 call	 @__security_check_cookie@4
  00173	c9		 leave
  00174	c2 04 00	 ret	 4
?ProcessBuffAction@ioSelfControlBuff@@QAEXM@Z ENDP	; ioSelfControlBuff::ProcessBuffAction
_TEXT	ENDS
PUBLIC	??$_Move@PAUCallAttribute@@PAU1@@std@@YAPAUCallAttribute@@PAU1@00@Z ; std::_Move<CallAttribute *,CallAttribute *>
; Function compile flags: /Ogsp
; File c:\program files (x86)\microsoft visual studio 10.0\vc\include\xutility
;	COMDAT ??$_Move@PAUCallAttribute@@PAU1@@std@@YAPAUCallAttribute@@PAU1@00@Z
_TEXT	SEGMENT
__Cat$544749 = -4					; size = 1
__First$ = 8						; size = 4
__Last$ = 12						; size = 4
__Dest$ = 16						; size = 4
??$_Move@PAUCallAttribute@@PAU1@@std@@YAPAUCallAttribute@@PAU1@00@Z PROC ; std::_Move<CallAttribute *,CallAttribute *>, COMDAT

; 2533 : 	{	// move [_First, _Last) to [_Dest, ...), unchecked

  00000	55		 push	 ebp
  00001	8b ec		 mov	 ebp, esp
  00003	51		 push	 ecx

; 2534 : 	return (_Move(_First, _Last,
; 2535 : 		_Dest, _Ptr_cat(_First, _Dest)));

  00004	ff 75 fc	 push	 DWORD PTR __Cat$544749[ebp]
  00007	ff 75 10	 push	 DWORD PTR __Dest$[ebp]
  0000a	ff 75 0c	 push	 DWORD PTR __Last$[ebp]
  0000d	ff 75 08	 push	 DWORD PTR __First$[ebp]
  00010	e8 00 00 00 00	 call	 ??$_Move@PAUCallAttribute@@PAU1@@std@@YAPAUCallAttribute@@PAU1@00U_Nonscalar_ptr_iterator_tag@0@@Z ; std::_Move<CallAttribute *,CallAttribute *>
  00015	83 c4 10	 add	 esp, 16			; 00000010H

; 2536 : 	}

  00018	c9		 leave
  00019	c3		 ret	 0
??$_Move@PAUCallAttribute@@PAU1@@std@@YAPAUCallAttribute@@PAU1@00@Z ENDP ; std::_Move<CallAttribute *,CallAttribute *>
_TEXT	ENDS
PUBLIC	??$_Destroy@UCallAttribute@@@std@@YAXPAUCallAttribute@@@Z ; std::_Destroy<CallAttribute>
; Function compile flags: /Ogsp
; File c:\program files (x86)\microsoft visual studio 10.0\vc\include\xmemory
;	COMDAT ??$_Destroy@UCallAttribute@@@std@@YAXPAUCallAttribute@@@Z
_TEXT	SEGMENT
__Ptr$ = 8						; size = 4
??$_Destroy@UCallAttribute@@@std@@YAXPAUCallAttribute@@@Z PROC ; std::_Destroy<CallAttribute>, COMDAT

; 62   : 	{	// destroy object at _Ptr

  00000	55		 push	 ebp
  00001	8b ec		 mov	 ebp, esp

; 63   : 	_Ptr->~_Ty();

  00003	8b 4d 08	 mov	 ecx, DWORD PTR __Ptr$[ebp]
  00006	83 c1 08	 add	 ecx, 8

; 64   : 	}

  00009	5d		 pop	 ebp

; 63   : 	_Ptr->~_Ty();

  0000a	ff 25 00 00 00
	00		 jmp	 DWORD PTR __imp_??1ioHashString@@QAE@XZ
??$_Destroy@UCallAttribute@@@std@@YAXPAUCallAttribute@@@Z ENDP ; std::_Destroy<CallAttribute>
_TEXT	ENDS
PUBLIC	?reserve@?$vector@HV?$allocator@H@std@@@std@@QAEXI@Z ; std::vector<int,std::allocator<int> >::reserve
EXTRN	__imp_?_Orphan_all@_Container_base0@std@@QAEXXZ:PROC
; Function compile flags: /Ogsp
; File c:\program files (x86)\microsoft visual studio 10.0\vc\include\vector
;	COMDAT ?reserve@?$vector@HV?$allocator@H@std@@@std@@QAEXI@Z
_TEXT	SEGMENT
__Count$ = 8						; size = 4
?reserve@?$vector@HV?$allocator@H@std@@@std@@QAEXI@Z PROC ; std::vector<int,std::allocator<int> >::reserve, COMDAT
; _this$ = ecx

; 746  : 		{	// determine new minimum length of allocated storage

  00000	55		 push	 ebp
  00001	8b ec		 mov	 ebp, esp

; 747  : 		if (max_size() < _Count)

  00003	81 7d 08 ff ff
	ff 3f		 cmp	 DWORD PTR __Count$[ebp], 1073741823 ; 3fffffffH
  0000a	56		 push	 esi
  0000b	8b f1		 mov	 esi, ecx
  0000d	76 0b		 jbe	 SHORT $LN5@reserve

; 748  : 			_Xlen();	// result too long

  0000f	68 00 00 00 00	 push	 OFFSET ??_C@_0BD@OLBABOEK@vector?$DMT?$DO?5too?5long?$AA@
  00014	ff 15 00 00 00
	00		 call	 DWORD PTR __imp_?_Xlength_error@std@@YAXPBD@Z
$LN43@reserve:
$LN5@reserve:

; 749  : 		else if (capacity() < _Count)

  0001a	8b 46 08	 mov	 eax, DWORD PTR [esi+8]
  0001d	2b 06		 sub	 eax, DWORD PTR [esi]
  0001f	c1 f8 02	 sar	 eax, 2
  00022	3b 45 08	 cmp	 eax, DWORD PTR __Count$[ebp]
  00025	73 52		 jae	 SHORT $LN3@reserve

; 750  : 			{	// not enough room, reallocate
; 751  : 			pointer _Ptr = this->_Alval.allocate(_Count);

  00027	53		 push	 ebx
  00028	57		 push	 edi
  00029	6a 00		 push	 0
  0002b	ff 75 08	 push	 DWORD PTR __Count$[ebp]
  0002e	e8 00 00 00 00	 call	 ??$_Allocate@H@std@@YAPAHIPAH@Z ; std::_Allocate<int>

; 752  : 
; 753  : 			_TRY_BEGIN
; 754  : 			_Umove(this->_Myfirst, this->_Mylast, _Ptr);

  00033	8b 0e		 mov	 ecx, DWORD PTR [esi]
  00035	8d 56 0c	 lea	 edx, DWORD PTR [esi+12]
  00038	52		 push	 edx
  00039	8b d8		 mov	 ebx, eax
  0003b	8b 46 04	 mov	 eax, DWORD PTR [esi+4]
  0003e	53		 push	 ebx
  0003f	50		 push	 eax
  00040	51		 push	 ecx
  00041	e8 00 00 00 00	 call	 ??$_Uninitialized_move@PAHPAHV?$allocator@H@std@@@std@@YAPAHPAH00AAV?$allocator@H@0@@Z ; std::_Uninitialized_move<int *,int *,std::allocator<int> >

; 755  : 			_CATCH_ALL
; 756  : 			this->_Alval.deallocate(_Ptr, _Count);
; 757  : 			_RERAISE;
; 758  : 			_CATCH_END
; 759  : 
; 760  : 			size_type _Size = size();

  00046	8b 06		 mov	 eax, DWORD PTR [esi]
  00048	8b 7e 04	 mov	 edi, DWORD PTR [esi+4]
  0004b	2b f8		 sub	 edi, eax
  0004d	83 c4 18	 add	 esp, 24			; 00000018H
  00050	c1 ff 02	 sar	 edi, 2

; 761  : 			if (this->_Myfirst != 0)

  00053	85 c0		 test	 eax, eax
  00055	74 07		 je	 SHORT $LN39@reserve

; 762  : 				{	// destroy and deallocate old array
; 763  : 				_Destroy(this->_Myfirst, this->_Mylast);
; 764  : 				this->_Alval.deallocate(this->_Myfirst,
; 765  : 					this->_Myend - this->_Myfirst);

  00057	50		 push	 eax
  00058	e8 00 00 00 00	 call	 ??3@YAXPAX@Z		; operator delete
  0005d	59		 pop	 ecx
$LN39@reserve:

; 766  : 				}
; 767  : 
; 768  : 			this->_Orphan_all();

  0005e	8b ce		 mov	 ecx, esi
  00060	ff 15 00 00 00
	00		 call	 DWORD PTR __imp_?_Orphan_all@_Container_base0@std@@QAEXXZ

; 769  : 			this->_Myend = _Ptr + _Count;

  00066	8b 45 08	 mov	 eax, DWORD PTR __Count$[ebp]
  00069	8d 04 83	 lea	 eax, DWORD PTR [ebx+eax*4]
  0006c	89 46 08	 mov	 DWORD PTR [esi+8], eax

; 770  : 			this->_Mylast = _Ptr + _Size;

  0006f	8d 04 bb	 lea	 eax, DWORD PTR [ebx+edi*4]
  00072	5f		 pop	 edi

; 771  : 			this->_Myfirst = _Ptr;

  00073	89 1e		 mov	 DWORD PTR [esi], ebx
  00075	89 46 04	 mov	 DWORD PTR [esi+4], eax
  00078	5b		 pop	 ebx
$LN3@reserve:
  00079	5e		 pop	 esi

; 772  : 			}
; 773  : 		}

  0007a	5d		 pop	 ebp
  0007b	c2 04 00	 ret	 4
$LN42@reserve:
?reserve@?$vector@HV?$allocator@H@std@@@std@@QAEXI@Z ENDP ; std::vector<int,std::allocator<int> >::reserve
_TEXT	ENDS
PUBLIC	?destroy@?$allocator@UCallAttribute@@@std@@QAEXPAUCallAttribute@@@Z ; std::allocator<CallAttribute>::destroy
; Function compile flags: /Ogsp
; File c:\program files (x86)\microsoft visual studio 10.0\vc\include\xmemory
;	COMDAT ?destroy@?$allocator@UCallAttribute@@@std@@QAEXPAUCallAttribute@@@Z
_TEXT	SEGMENT
__Ptr$ = 8						; size = 4
?destroy@?$allocator@UCallAttribute@@@std@@QAEXPAUCallAttribute@@@Z PROC ; std::allocator<CallAttribute>::destroy, COMDAT
; _this$ = ecx

; 212  : 		{	// destroy object at _Ptr

  00000	55		 push	 ebp
  00001	8b ec		 mov	 ebp, esp

; 213  : 		_Destroy(_Ptr);

  00003	8b 4d 08	 mov	 ecx, DWORD PTR __Ptr$[ebp]
  00006	83 c1 08	 add	 ecx, 8
  00009	ff 15 00 00 00
	00		 call	 DWORD PTR __imp_??1ioHashString@@QAE@XZ

; 214  : 		}

  0000f	5d		 pop	 ebp
  00010	c2 04 00	 ret	 4
?destroy@?$allocator@UCallAttribute@@@std@@QAEXPAUCallAttribute@@@Z ENDP ; std::allocator<CallAttribute>::destroy
_TEXT	ENDS
PUBLIC	?_Reserve@?$vector@HV?$allocator@H@std@@@std@@IAEXI@Z ; std::vector<int,std::allocator<int> >::_Reserve
; Function compile flags: /Ogsp
; File c:\program files (x86)\microsoft visual studio 10.0\vc\include\vector
;	COMDAT ?_Reserve@?$vector@HV?$allocator@H@std@@@std@@IAEXI@Z
_TEXT	SEGMENT
__Count$ = 8						; size = 4
?_Reserve@?$vector@HV?$allocator@H@std@@@std@@IAEXI@Z PROC ; std::vector<int,std::allocator<int> >::_Reserve, COMDAT
; _this$ = ecx

; 1290 : 		{	// ensure room for _Count new elements, grow exponentially

  00000	55		 push	 ebp
  00001	8b ec		 mov	 ebp, esp
  00003	56		 push	 esi
  00004	8b f1		 mov	 esi, ecx

; 1291 : 		size_type _Size = size();

  00006	8b 0e		 mov	 ecx, DWORD PTR [esi]
  00008	8b 46 04	 mov	 eax, DWORD PTR [esi+4]
  0000b	2b c1		 sub	 eax, ecx

; 1292 : 		if (max_size() - _Count < _Size)

  0000d	ba ff ff ff 3f	 mov	 edx, 1073741823		; 3fffffffH
  00012	2b 55 08	 sub	 edx, DWORD PTR __Count$[ebp]
  00015	c1 f8 02	 sar	 eax, 2
  00018	3b d0		 cmp	 edx, eax
  0001a	73 0b		 jae	 SHORT $LN4@Reserve

; 1293 : 			_Xlen();

  0001c	68 00 00 00 00	 push	 OFFSET ??_C@_0BD@OLBABOEK@vector?$DMT?$DO?5too?5long?$AA@
  00021	ff 15 00 00 00
	00		 call	 DWORD PTR __imp_?_Xlength_error@std@@YAXPBD@Z
$LN21@Reserve:
$LN4@Reserve:

; 1294 : 		else if ((_Size += _Count) <= capacity())

  00027	8b 56 08	 mov	 edx, DWORD PTR [esi+8]
  0002a	03 45 08	 add	 eax, DWORD PTR __Count$[ebp]
  0002d	2b d1		 sub	 edx, ecx
  0002f	c1 fa 02	 sar	 edx, 2
  00032	3b c2		 cmp	 eax, edx
  00034	76 10		 jbe	 SHORT $LN1@Reserve

; 1295 : 			;
; 1296 : 		else
; 1297 : 			reserve(_Grow_to(_Size));

  00036	50		 push	 eax
  00037	8b ce		 mov	 ecx, esi
  00039	e8 00 00 00 00	 call	 ?_Grow_to@?$vector@HV?$allocator@H@std@@@std@@IBEII@Z ; std::vector<int,std::allocator<int> >::_Grow_to
  0003e	50		 push	 eax
  0003f	8b ce		 mov	 ecx, esi
  00041	e8 00 00 00 00	 call	 ?reserve@?$vector@HV?$allocator@H@std@@@std@@QAEXI@Z ; std::vector<int,std::allocator<int> >::reserve
$LN1@Reserve:
  00046	5e		 pop	 esi

; 1298 : 		}

  00047	5d		 pop	 ebp
  00048	c2 04 00	 ret	 4
$LN20@Reserve:
?_Reserve@?$vector@HV?$allocator@H@std@@@std@@IAEXI@Z ENDP ; std::vector<int,std::allocator<int> >::_Reserve
_TEXT	ENDS
PUBLIC	?push_back@?$vector@HV?$allocator@H@std@@@std@@QAEXABH@Z ; std::vector<int,std::allocator<int> >::push_back
; Function compile flags: /Ogsp
;	COMDAT ?push_back@?$vector@HV?$allocator@H@std@@@std@@QAEXABH@Z
_TEXT	SEGMENT
__Val$ = 8						; size = 4
?push_back@?$vector@HV?$allocator@H@std@@@std@@QAEXABH@Z PROC ; std::vector<int,std::allocator<int> >::push_back, COMDAT
; _this$ = ecx

; 976  : 		{	// insert element at end

  00000	55		 push	 ebp
  00001	8b ec		 mov	 ebp, esp
  00003	56		 push	 esi
  00004	8b f1		 mov	 esi, ecx

; 977  : 		if (_Inside(_STD addressof(_Val)))

  00006	8b 46 04	 mov	 eax, DWORD PTR [esi+4]
  00009	57		 push	 edi
  0000a	8b 7d 08	 mov	 edi, DWORD PTR __Val$[ebp]
  0000d	3b f8		 cmp	 edi, eax
  0000f	73 27		 jae	 SHORT $LN4@push_back
  00011	8b 0e		 mov	 ecx, DWORD PTR [esi]
  00013	3b cf		 cmp	 ecx, edi
  00015	77 21		 ja	 SHORT $LN4@push_back

; 978  : 			{	// push back an element
; 979  : 			size_type _Idx = _STD addressof(_Val) - this->_Myfirst;

  00017	2b f9		 sub	 edi, ecx
  00019	c1 ff 02	 sar	 edi, 2

; 980  : 			if (this->_Mylast == this->_Myend)

  0001c	3b 46 08	 cmp	 eax, DWORD PTR [esi+8]
  0001f	75 09		 jne	 SHORT $LN3@push_back

; 981  : 				_Reserve(1);

  00021	6a 01		 push	 1
  00023	8b ce		 mov	 ecx, esi
  00025	e8 00 00 00 00	 call	 ?_Reserve@?$vector@HV?$allocator@H@std@@@std@@IAEXI@Z ; std::vector<int,std::allocator<int> >::_Reserve
$LN3@push_back:

; 982  : 			_Orphan_range(this->_Mylast, this->_Mylast);
; 983  : 			_Cons_val(this->_Alval,
; 984  : 				this->_Mylast,
; 985  : 				this->_Myfirst[_Idx]);

  0002a	8b 46 04	 mov	 eax, DWORD PTR [esi+4]
  0002d	85 c0		 test	 eax, eax
  0002f	74 20		 je	 SHORT $LN39@push_back
  00031	8b 0e		 mov	 ecx, DWORD PTR [esi]
  00033	8b 0c b9	 mov	 ecx, DWORD PTR [ecx+edi*4]

; 986  : 			++this->_Mylast;
; 987  : 			}
; 988  : 		else

  00036	eb 17		 jmp	 SHORT $LN46@push_back
$LN4@push_back:

; 989  : 			{	// push back a non-element
; 990  : 			if (this->_Mylast == this->_Myend)

  00038	3b 46 08	 cmp	 eax, DWORD PTR [esi+8]
  0003b	75 09		 jne	 SHORT $LN1@push_back

; 991  : 				_Reserve(1);

  0003d	6a 01		 push	 1
  0003f	8b ce		 mov	 ecx, esi
  00041	e8 00 00 00 00	 call	 ?_Reserve@?$vector@HV?$allocator@H@std@@@std@@IAEXI@Z ; std::vector<int,std::allocator<int> >::_Reserve
$LN1@push_back:

; 992  : 			_Orphan_range(this->_Mylast, this->_Mylast);
; 993  : 			_Cons_val(this->_Alval,
; 994  : 				this->_Mylast,
; 995  : 				_Val);

  00046	8b 46 04	 mov	 eax, DWORD PTR [esi+4]
  00049	85 c0		 test	 eax, eax
  0004b	74 04		 je	 SHORT $LN39@push_back
  0004d	8b 0f		 mov	 ecx, DWORD PTR [edi]
$LN46@push_back:
  0004f	89 08		 mov	 DWORD PTR [eax], ecx
$LN39@push_back:

; 996  : 			++this->_Mylast;

  00051	83 46 04 04	 add	 DWORD PTR [esi+4], 4
  00055	5f		 pop	 edi
  00056	5e		 pop	 esi

; 997  : 			}
; 998  : 		}

  00057	5d		 pop	 ebp
  00058	c2 04 00	 ret	 4
?push_back@?$vector@HV?$allocator@H@std@@@std@@QAEXABH@Z ENDP ; std::vector<int,std::allocator<int> >::push_back
_TEXT	ENDS
PUBLIC	??$_Dest_val@V?$allocator@UCallAttribute@@@std@@UCallAttribute@@@std@@YAXAAV?$allocator@UCallAttribute@@@0@PAUCallAttribute@@@Z ; std::_Dest_val<std::allocator<CallAttribute>,CallAttribute>
; Function compile flags: /Ogsp
; File c:\program files (x86)\microsoft visual studio 10.0\vc\include\xmemory
;	COMDAT ??$_Dest_val@V?$allocator@UCallAttribute@@@std@@UCallAttribute@@@std@@YAXAAV?$allocator@UCallAttribute@@@0@PAUCallAttribute@@@Z
_TEXT	SEGMENT
__Alval$ = 8						; size = 4
__Pdest$ = 12						; size = 4
??$_Dest_val@V?$allocator@UCallAttribute@@@std@@UCallAttribute@@@std@@YAXAAV?$allocator@UCallAttribute@@@0@PAUCallAttribute@@@Z PROC ; std::_Dest_val<std::allocator<CallAttribute>,CallAttribute>, COMDAT

; 286  : 	{	// destroy using allocator

  00000	55		 push	 ebp
  00001	8b ec		 mov	 ebp, esp

; 287  : 	_Alval.destroy(_Pdest);

  00003	8b 4d 0c	 mov	 ecx, DWORD PTR __Pdest$[ebp]
  00006	83 c1 08	 add	 ecx, 8

; 288  : 	}

  00009	5d		 pop	 ebp

; 287  : 	_Alval.destroy(_Pdest);

  0000a	ff 25 00 00 00
	00		 jmp	 DWORD PTR __imp_??1ioHashString@@QAE@XZ
??$_Dest_val@V?$allocator@UCallAttribute@@@std@@UCallAttribute@@@std@@YAXAAV?$allocator@UCallAttribute@@@0@PAUCallAttribute@@@Z ENDP ; std::_Dest_val<std::allocator<CallAttribute>,CallAttribute>
_TEXT	ENDS
PUBLIC	??$_Destroy_range@V?$allocator@UCallAttribute@@@std@@@std@@YAXPAUCallAttribute@@0AAV?$allocator@UCallAttribute@@@0@U_Nonscalar_ptr_iterator_tag@0@@Z ; std::_Destroy_range<std::allocator<CallAttribute> >
; Function compile flags: /Ogsp
;	COMDAT ??$_Destroy_range@V?$allocator@UCallAttribute@@@std@@@std@@YAXPAUCallAttribute@@0AAV?$allocator@UCallAttribute@@@0@U_Nonscalar_ptr_iterator_tag@0@@Z
_TEXT	SEGMENT
__First$ = 8						; size = 4
__Last$ = 12						; size = 4
__Al$ = 16						; size = 4
___formal$ = 20						; size = 1
??$_Destroy_range@V?$allocator@UCallAttribute@@@std@@@std@@YAXPAUCallAttribute@@0AAV?$allocator@UCallAttribute@@@0@U_Nonscalar_ptr_iterator_tag@0@@Z PROC ; std::_Destroy_range<std::allocator<CallAttribute> >, COMDAT

; 95   : 	{	// destroy [_First, _Last), arbitrary type

  00000	55		 push	 ebp
  00001	8b ec		 mov	 ebp, esp
  00003	56		 push	 esi

; 96   : 	for (; _First != _Last; ++_First)

  00004	8b 75 08	 mov	 esi, DWORD PTR __First$[ebp]
  00007	eb 0c		 jmp	 SHORT $LN23@Destroy_ra
$LL3@Destroy_ra:

; 97   : 		_Dest_val(_Al, _First);

  00009	8d 4e 08	 lea	 ecx, DWORD PTR [esi+8]
  0000c	ff 15 00 00 00
	00		 call	 DWORD PTR __imp_??1ioHashString@@QAE@XZ
  00012	83 c6 40	 add	 esi, 64			; 00000040H
$LN23@Destroy_ra:

; 96   : 	for (; _First != _Last; ++_First)

  00015	3b 75 0c	 cmp	 esi, DWORD PTR __Last$[ebp]
  00018	75 ef		 jne	 SHORT $LL3@Destroy_ra
  0001a	5e		 pop	 esi

; 98   : 	}

  0001b	5d		 pop	 ebp
  0001c	c3		 ret	 0
??$_Destroy_range@V?$allocator@UCallAttribute@@@std@@@std@@YAXPAUCallAttribute@@0AAV?$allocator@UCallAttribute@@@0@U_Nonscalar_ptr_iterator_tag@0@@Z ENDP ; std::_Destroy_range<std::allocator<CallAttribute> >
_TEXT	ENDS
PUBLIC	??$_Destroy_range@V?$allocator@UCallAttribute@@@std@@@std@@YAXPAUCallAttribute@@0AAV?$allocator@UCallAttribute@@@0@@Z ; std::_Destroy_range<std::allocator<CallAttribute> >
; Function compile flags: /Ogsp
;	COMDAT ??$_Destroy_range@V?$allocator@UCallAttribute@@@std@@@std@@YAXPAUCallAttribute@@0AAV?$allocator@UCallAttribute@@@0@@Z
_TEXT	SEGMENT
__First$ = 8						; size = 4
__Last$ = 12						; size = 4
__Al$ = 16						; size = 4
??$_Destroy_range@V?$allocator@UCallAttribute@@@std@@@std@@YAXPAUCallAttribute@@0AAV?$allocator@UCallAttribute@@@0@@Z PROC ; std::_Destroy_range<std::allocator<CallAttribute> >, COMDAT

; 87   : 	{	// destroy [_First, _Last)

  00000	55		 push	 ebp
  00001	8b ec		 mov	 ebp, esp
  00003	56		 push	 esi

; 88   : 	_Destroy_range(_First, _Last, _Al, _Ptr_cat(_First, _Last));

  00004	8b 75 08	 mov	 esi, DWORD PTR __First$[ebp]
  00007	eb 0c		 jmp	 SHORT $LN27@Destroy_ra@2
$LL7@Destroy_ra@2:
  00009	8d 4e 08	 lea	 ecx, DWORD PTR [esi+8]
  0000c	ff 15 00 00 00
	00		 call	 DWORD PTR __imp_??1ioHashString@@QAE@XZ
  00012	83 c6 40	 add	 esi, 64			; 00000040H
$LN27@Destroy_ra@2:
  00015	3b 75 0c	 cmp	 esi, DWORD PTR __Last$[ebp]
  00018	75 ef		 jne	 SHORT $LL7@Destroy_ra@2
  0001a	5e		 pop	 esi

; 89   : 	}

  0001b	5d		 pop	 ebp
  0001c	c3		 ret	 0
??$_Destroy_range@V?$allocator@UCallAttribute@@@std@@@std@@YAXPAUCallAttribute@@0AAV?$allocator@UCallAttribute@@@0@@Z ENDP ; std::_Destroy_range<std::allocator<CallAttribute> >
_TEXT	ENDS
PUBLIC	?_Destroy@?$vector@UCallAttribute@@V?$allocator@UCallAttribute@@@std@@@std@@IAEXPAUCallAttribute@@0@Z ; std::vector<CallAttribute,std::allocator<CallAttribute> >::_Destroy
; Function compile flags: /Ogsp
; File c:\program files (x86)\microsoft visual studio 10.0\vc\include\vector
;	COMDAT ?_Destroy@?$vector@UCallAttribute@@V?$allocator@UCallAttribute@@@std@@@std@@IAEXPAUCallAttribute@@0@Z
_TEXT	SEGMENT
__First$ = 8						; size = 4
__Last$ = 12						; size = 4
?_Destroy@?$vector@UCallAttribute@@V?$allocator@UCallAttribute@@@std@@@std@@IAEXPAUCallAttribute@@0@Z PROC ; std::vector<CallAttribute,std::allocator<CallAttribute> >::_Destroy, COMDAT
; _this$ = ecx

; 1269 : 		{	// destroy [_First, _Last) using allocator

  00000	55		 push	 ebp
  00001	8b ec		 mov	 ebp, esp

; 1270 : 		_Destroy_range(_First, _Last, this->_Alval);

  00003	83 c1 0c	 add	 ecx, 12			; 0000000cH
  00006	51		 push	 ecx
  00007	ff 75 0c	 push	 DWORD PTR __Last$[ebp]
  0000a	ff 75 08	 push	 DWORD PTR __First$[ebp]
  0000d	e8 00 00 00 00	 call	 ??$_Destroy_range@V?$allocator@UCallAttribute@@@std@@@std@@YAXPAUCallAttribute@@0AAV?$allocator@UCallAttribute@@@0@@Z ; std::_Destroy_range<std::allocator<CallAttribute> >
  00012	83 c4 0c	 add	 esp, 12			; 0000000cH

; 1271 : 		}

  00015	5d		 pop	 ebp
  00016	c2 08 00	 ret	 8
?_Destroy@?$vector@UCallAttribute@@V?$allocator@UCallAttribute@@@std@@@std@@IAEXPAUCallAttribute@@0@Z ENDP ; std::vector<CallAttribute,std::allocator<CallAttribute> >::_Destroy
_TEXT	ENDS
PUBLIC	?erase@?$vector@UCallAttribute@@V?$allocator@UCallAttribute@@@std@@@std@@QAE?AV?$_Vector_iterator@V?$_Vector_val@UCallAttribute@@V?$allocator@UCallAttribute@@@std@@@std@@@2@V?$_Vector_const_iterator@V?$_Vector_val@UCallAttribute@@V?$allocator@UCallAttribute@@@std@@@std@@@2@@Z ; std::vector<CallAttribute,std::allocator<CallAttribute> >::erase
; Function compile flags: /Ogsp
;	COMDAT ?erase@?$vector@UCallAttribute@@V?$allocator@UCallAttribute@@@std@@@std@@QAE?AV?$_Vector_iterator@V?$_Vector_val@UCallAttribute@@V?$allocator@UCallAttribute@@@std@@@std@@@2@V?$_Vector_const_iterator@V?$_Vector_val@UCallAttribute@@V?$allocator@UCallAttribute@@@std@@@std@@@2@@Z
_TEXT	SEGMENT
___$ReturnUdt$ = 8					; size = 4
__Cat$545234 = 12					; size = 1
__Where$ = 12						; size = 4
?erase@?$vector@UCallAttribute@@V?$allocator@UCallAttribute@@@std@@@std@@QAE?AV?$_Vector_iterator@V?$_Vector_val@UCallAttribute@@V?$allocator@UCallAttribute@@@std@@@std@@@2@V?$_Vector_const_iterator@V?$_Vector_val@UCallAttribute@@V?$allocator@UCallAttribute@@@std@@@std@@@2@@Z PROC ; std::vector<CallAttribute,std::allocator<CallAttribute> >::erase, COMDAT
; _this$ = ecx

; 1179 : 		{	// erase element at where

  00000	55		 push	 ebp
  00001	8b ec		 mov	 ebp, esp

; 1180 : 		_Move(_VIPTR(_Where) + 1, this->_Mylast,
; 1181 : 			_VIPTR(_Where));

  00003	8b 45 0c	 mov	 eax, DWORD PTR __Where$[ebp]
  00006	56		 push	 esi
  00007	ff 75 0c	 push	 DWORD PTR __Cat$545234[ebp]
  0000a	8b f1		 mov	 esi, ecx
  0000c	50		 push	 eax
  0000d	ff 76 04	 push	 DWORD PTR [esi+4]
  00010	83 c0 40	 add	 eax, 64			; 00000040H
  00013	50		 push	 eax
  00014	e8 00 00 00 00	 call	 ??$_Move@PAUCallAttribute@@PAU1@@std@@YAPAUCallAttribute@@PAU1@00U_Nonscalar_ptr_iterator_tag@0@@Z ; std::_Move<CallAttribute *,CallAttribute *>

; 1182 : 		_Destroy(this->_Mylast - 1, this->_Mylast);

  00019	8b 46 04	 mov	 eax, DWORD PTR [esi+4]
  0001c	8d 4e 0c	 lea	 ecx, DWORD PTR [esi+12]
  0001f	51		 push	 ecx
  00020	50		 push	 eax
  00021	83 c0 c0	 add	 eax, -64		; ffffffc0H
  00024	50		 push	 eax
  00025	e8 00 00 00 00	 call	 ??$_Destroy_range@V?$allocator@UCallAttribute@@@std@@@std@@YAXPAUCallAttribute@@0AAV?$allocator@UCallAttribute@@@0@@Z ; std::_Destroy_range<std::allocator<CallAttribute> >

; 1183 : 		--this->_Mylast;
; 1184 : 		return (_Make_iter(_Where));

  0002a	8b 45 08	 mov	 eax, DWORD PTR ___$ReturnUdt$[ebp]
  0002d	8b 4d 0c	 mov	 ecx, DWORD PTR __Where$[ebp]
  00030	83 c4 1c	 add	 esp, 28			; 0000001cH
  00033	83 46 04 c0	 add	 DWORD PTR [esi+4], -64	; ffffffc0H
  00037	89 08		 mov	 DWORD PTR [eax], ecx
  00039	5e		 pop	 esi

; 1185 : 		}

  0003a	5d		 pop	 ebp
  0003b	c2 08 00	 ret	 8
?erase@?$vector@UCallAttribute@@V?$allocator@UCallAttribute@@@std@@@std@@QAE?AV?$_Vector_iterator@V?$_Vector_val@UCallAttribute@@V?$allocator@UCallAttribute@@@std@@@std@@@2@V?$_Vector_const_iterator@V?$_Vector_val@UCallAttribute@@V?$allocator@UCallAttribute@@@std@@@std@@@2@@Z ENDP ; std::vector<CallAttribute,std::allocator<CallAttribute> >::erase
_TEXT	ENDS
PUBLIC	__real@00000000
PUBLIC	?CallingAttribute@ioSelfControlBuff@@IAEXXZ	; ioSelfControlBuff::CallingAttribute
EXTRN	?BuffFireExplicit2@ioBaseChar@@QAEXABUWeaponInfo@@ABVioHashString@@KAAV3@@Z:PROC ; ioBaseChar::BuffFireExplicit2
EXTRN	?IncreaseWeaponIndexBase@ioBaseChar@@QAEKXZ:PROC ; ioBaseChar::IncreaseWeaponIndexBase
EXTRN	?GetBottomHeight@ioGameEntity@@QBEMXZ:PROC	; ioGameEntity::GetBottomHeight
;	COMDAT __real@00000000
; File c:\program files (x86)\microsoft visual studio 10.0\vc\include\xutility
CONST	SEGMENT
__real@00000000 DD 000000000r			; 0
; Function compile flags: /Ogsp
; File d:\lost saga for developer\youtube\tutorial\source\src\lsclient\ioselfcontrolbuff.cpp
CONST	ENDS
;	COMDAT ?CallingAttribute@ioSelfControlBuff@@IAEXXZ
_TEXT	SEGMENT
tv94 = -12						; size = 8
$T545276 = -8						; size = 4
$T545273 = -8						; size = 4
_fGap$ = -8						; size = 4
_value$545289 = -4					; size = 4
_value$545284 = -4					; size = 4
?CallingAttribute@ioSelfControlBuff@@IAEXXZ PROC	; ioSelfControlBuff::CallingAttribute, COMDAT
; _this$ = ecx

; 317  : {

  00000	55		 push	 ebp
  00001	8b ec		 mov	 ebp, esp
  00003	83 ec 0c	 sub	 esp, 12			; 0000000cH
  00006	56		 push	 esi
  00007	57		 push	 edi
  00008	8b f1		 mov	 esi, ecx

; 318  : 	ioBaseChar *pOwner = GetOwner();

  0000a	e8 00 00 00 00	 call	 ?GetOwner@ioBuff@@QAEPAVioBaseChar@@XZ ; ioBuff::GetOwner
  0000f	8b f8		 mov	 edi, eax

; 319  : 	if( !pOwner )

  00011	85 ff		 test	 edi, edi
  00013	0f 84 ba 00 00
	00		 je	 $LN4@CallingAtt

; 320  : 		return;
; 321  : 
; 322  : 	float fGap = pOwner->GetWorldPosition().y - pOwner->GetBottomHeight();

  00019	8b 07		 mov	 eax, DWORD PTR [edi]
  0001b	53		 push	 ebx
  0001c	8b cf		 mov	 ecx, edi
  0001e	ff 50 70	 call	 DWORD PTR [eax+112]
  00021	d9 40 04	 fld	 DWORD PTR [eax+4]
  00024	8b cf		 mov	 ecx, edi
  00026	dd 5d f4	 fstp	 QWORD PTR tv94[ebp]
  00029	e8 00 00 00 00	 call	 ?GetBottomHeight@ioGameEntity@@QBEMXZ ; ioGameEntity::GetBottomHeight
  0002e	dc 6d f4	 fsubr	 QWORD PTR tv94[ebp]

; 323  : 	if( m_fCallAttributeEnableHeight > 0.0f && m_fCallAttributeEnableHeight < fGap )

  00031	8d 45 fc	 lea	 eax, DWORD PTR _value$545284[ebp]
  00034	50		 push	 eax
  00035	8d 8e 4c 04 00
	00		 lea	 ecx, DWORD PTR [esi+1100]
  0003b	d9 5d f8	 fstp	 DWORD PTR _fGap$[ebp]
  0003e	e8 00 00 00 00	 call	 ?DecryptValueToPool@?$CEncrypt@M@@QAEXPAM@Z ; CEncrypt<float>::DecryptValueToPool
  00043	f3 0f 10 45 fc	 movss	 xmm0, DWORD PTR _value$545284[ebp]
  00048	0f 2f 05 00 00
	00 00		 comiss	 xmm0, DWORD PTR __real@00000000
  0004f	76 25		 jbe	 SHORT $LN2@CallingAtt
  00051	8d 45 fc	 lea	 eax, DWORD PTR _value$545289[ebp]
  00054	50		 push	 eax
  00055	8d 8e 4c 04 00
	00		 lea	 ecx, DWORD PTR [esi+1100]
  0005b	e8 00 00 00 00	 call	 ?DecryptValueToPool@?$CEncrypt@M@@QAEXPAM@Z ; CEncrypt<float>::DecryptValueToPool
  00060	f3 0f 10 45 fc	 movss	 xmm0, DWORD PTR _value$545289[ebp]
  00065	f3 0f 10 4d f8	 movss	 xmm1, DWORD PTR _fGap$[ebp]
  0006a	0f 5a c0	 cvtps2pd xmm0, xmm0
  0006d	0f 5a c9	 cvtps2pd xmm1, xmm1
  00070	66 0f 2f c8	 comisd	 xmm1, xmm0

; 324  : 	{
; 325  : 		m_CallAttributeList.erase( m_CallAttributeList.begin() );
; 326  : 		return;

  00074	77 4b		 ja	 SHORT $LN1@CallingAtt
$LN2@CallingAtt:

; 327  : 	}
; 328  : 
; 329  : 	ioBaseChar *pCreator = pOwner->GetBaseChar( m_CreateChar );

  00076	8d 86 88 02 00
	00		 lea	 eax, DWORD PTR [esi+648]
  0007c	50		 push	 eax
  0007d	8b cf		 mov	 ecx, edi
  0007f	e8 00 00 00 00	 call	 ?GetBaseChar@ioBaseChar@@QAEPAV1@ABVioHashString@@@Z ; ioBaseChar::GetBaseChar
  00084	8b d8		 mov	 ebx, eax

; 330  : 	if( pCreator )

  00086	85 db		 test	 ebx, ebx
  00088	74 37		 je	 SHORT $LN1@CallingAtt

; 331  : 	{
; 332  : 		DWORD dwWeaponIndex = pCreator->IncreaseWeaponIndexBase();

  0008a	8b cb		 mov	 ecx, ebx
  0008c	e8 00 00 00 00	 call	 ?IncreaseWeaponIndexBase@ioBaseChar@@QAEKXZ ; ioBaseChar::IncreaseWeaponIndexBase
  00091	8b f8		 mov	 edi, eax

; 333  : 		m_vWeaponIndexList.push_back( dwWeaponIndex );

  00093	8d 45 f8	 lea	 eax, DWORD PTR $T545273[ebp]
  00096	50		 push	 eax
  00097	8d 8e 3c 04 00
	00		 lea	 ecx, DWORD PTR [esi+1084]
  0009d	89 7d f8	 mov	 DWORD PTR $T545273[ebp], edi
  000a0	e8 00 00 00 00	 call	 ?push_back@?$vector@HV?$allocator@H@std@@@std@@QAEXABH@Z ; std::vector<int,std::allocator<int> >::push_back

; 334  : 		pCreator->BuffFireExplicit2( m_CallAttributeList[0].m_WeaponInfo, m_Name, dwWeaponIndex, m_OwnerName );

  000a5	8d 86 78 02 00
	00		 lea	 eax, DWORD PTR [esi+632]
  000ab	50		 push	 eax
  000ac	57		 push	 edi
  000ad	8d 86 34 02 00
	00		 lea	 eax, DWORD PTR [esi+564]
  000b3	50		 push	 eax
  000b4	ff b6 2c 04 00
	00		 push	 DWORD PTR [esi+1068]
  000ba	8b cb		 mov	 ecx, ebx
  000bc	e8 00 00 00 00	 call	 ?BuffFireExplicit2@ioBaseChar@@QAEXABUWeaponInfo@@ABVioHashString@@KAAV3@@Z ; ioBaseChar::BuffFireExplicit2
$LN1@CallingAtt:

; 335  : 	}
; 336  : 
; 337  : 	m_CallAttributeList.erase( m_CallAttributeList.begin() );

  000c1	8d 8e 2c 04 00
	00		 lea	 ecx, DWORD PTR [esi+1068]
  000c7	ff 31		 push	 DWORD PTR [ecx]
  000c9	8d 45 f8	 lea	 eax, DWORD PTR $T545276[ebp]
  000cc	50		 push	 eax
  000cd	e8 00 00 00 00	 call	 ?erase@?$vector@UCallAttribute@@V?$allocator@UCallAttribute@@@std@@@std@@QAE?AV?$_Vector_iterator@V?$_Vector_val@UCallAttribute@@V?$allocator@UCallAttribute@@@std@@@std@@@2@V?$_Vector_const_iterator@V?$_Vector_val@UCallAttribute@@V?$allocator@UCallAttribute@@@std@@@std@@@2@@Z ; std::vector<CallAttribute,std::allocator<CallAttribute> >::erase
  000d2	5b		 pop	 ebx
$LN4@CallingAtt:
  000d3	5f		 pop	 edi
  000d4	5e		 pop	 esi

; 338  : 
; 339  : }

  000d5	c9		 leave
  000d6	c3		 ret	 0
?CallingAttribute@ioSelfControlBuff@@IAEXXZ ENDP	; ioSelfControlBuff::CallingAttribute
_TEXT	ENDS
PUBLIC	?CheckCallingAttribute@ioSelfControlBuff@@IAEXXZ ; ioSelfControlBuff::CheckCallingAttribute
; Function compile flags: /Ogsp
;	COMDAT ?CheckCallingAttribute@ioSelfControlBuff@@IAEXXZ
_TEXT	SEGMENT
_value$545368 = -12					; size = 4
_value$545364 = -12					; size = 4
_dwCurTime$ = -4					; size = 4
?CheckCallingAttribute@ioSelfControlBuff@@IAEXXZ PROC	; ioSelfControlBuff::CheckCallingAttribute, COMDAT
; _this$ = ecx

; 342  : {

  00000	55		 push	 ebp
  00001	8b ec		 mov	 ebp, esp
  00003	83 ec 0c	 sub	 esp, 12			; 0000000cH
  00006	56		 push	 esi
  00007	57		 push	 edi
  00008	8b f9		 mov	 edi, ecx

; 343  : 	if( m_CallAttributeList.empty() ) return;

  0000a	8b 87 2c 04 00
	00		 mov	 eax, DWORD PTR [edi+1068]
  00010	3b 87 30 04 00
	00		 cmp	 eax, DWORD PTR [edi+1072]
  00016	74 59		 je	 SHORT $LN1@CheckCalli

; 344  : 
; 345  : 	DWORD dwCurTime = FRAMEGETTIME();

  00018	53		 push	 ebx
  00019	ff 15 00 00 00
	00		 call	 DWORD PTR __imp_?GetSingleton@ioFrameTimer@@SAAAV1@XZ
  0001f	8b c8		 mov	 ecx, eax
  00021	ff 15 00 00 00
	00		 call	 DWORD PTR __imp_?GetLoopSec@ioFrameTimer@@QBEKXZ
  00027	89 45 fc	 mov	 DWORD PTR _dwCurTime$[ebp], eax

; 346  : 
; 347  : 	DWORD dwTopTime = m_CallAttributeList[0].m_dwAttributeCallTime;

  0002a	8b 87 2c 04 00
	00		 mov	 eax, DWORD PTR [edi+1068]
  00030	8b 58 28	 mov	 ebx, DWORD PTR [eax+40]

; 348  : 	DWORD dwRandomTime = m_CallAttributeList[0].m_dwRandomTime;

  00033	8b 70 3c	 mov	 esi, DWORD PTR [eax+60]

; 349  : 	dwTopTime += m_dwBuffStartTime;

  00036	8d 45 f4	 lea	 eax, DWORD PTR _value$545364[ebp]
  00039	50		 push	 eax
  0003a	8d 8f 6c 03 00
	00		 lea	 ecx, DWORD PTR [edi+876]
  00040	e8 00 00 00 00	 call	 ?DecryptValueToPool@?$CEncrypt@K@@QAEXPAK@Z ; CEncrypt<unsigned long>::DecryptValueToPool

; 350  : 
; 351  : 	if( dwRandomTime == 0 )

  00045	85 f6		 test	 esi, esi
  00047	75 07		 jne	 SHORT $LN4@CheckCalli

; 349  : 	dwTopTime += m_dwBuffStartTime;

  00049	8b 45 f4	 mov	 eax, DWORD PTR _value$545364[ebp]
  0004c	03 c3		 add	 eax, ebx

; 352  : 	{
; 353  : 		if( dwCurTime >= dwTopTime )
; 354  : 			CallingAttribute();
; 355  : 	}
; 356  : 	else

  0004e	eb 14		 jmp	 SHORT $LN19@CheckCalli
$LN4@CheckCalli:

; 357  : 	{
; 358  : 		if( dwCurTime >= (dwRandomTime+m_dwBuffStartTime) )

  00050	8d 45 f4	 lea	 eax, DWORD PTR _value$545368[ebp]
  00053	50		 push	 eax
  00054	8d 8f 6c 03 00
	00		 lea	 ecx, DWORD PTR [edi+876]
  0005a	e8 00 00 00 00	 call	 ?DecryptValueToPool@?$CEncrypt@K@@QAEXPAK@Z ; CEncrypt<unsigned long>::DecryptValueToPool
  0005f	8b 45 f4	 mov	 eax, DWORD PTR _value$545368[ebp]
  00062	03 c6		 add	 eax, esi
$LN19@CheckCalli:
  00064	39 45 fc	 cmp	 DWORD PTR _dwCurTime$[ebp], eax
  00067	72 07		 jb	 SHORT $LN18@CheckCalli

; 359  : 			CallingAttribute();

  00069	8b cf		 mov	 ecx, edi
  0006b	e8 00 00 00 00	 call	 ?CallingAttribute@ioSelfControlBuff@@IAEXXZ ; ioSelfControlBuff::CallingAttribute
$LN18@CheckCalli:
  00070	5b		 pop	 ebx
$LN1@CheckCalli:
  00071	5f		 pop	 edi
  00072	5e		 pop	 esi

; 360  : 	}
; 361  : }

  00073	c9		 leave
  00074	c3		 ret	 0
?CheckCallingAttribute@ioSelfControlBuff@@IAEXXZ ENDP	; ioSelfControlBuff::CheckCallingAttribute
_TEXT	ENDS
EXTRN	?SetReserveEndBuff@ioBuff@@QAEXXZ:PROC		; ioBuff::SetReserveEndBuff
EXTRN	?SetCurMoveSpeed@ioBaseChar@@QAEXM@Z:PROC	; ioBaseChar::SetCurMoveSpeed
EXTRN	?SetState@ioBaseChar@@QAEXH_N@Z:PROC		; ioBaseChar::SetState
EXTRN	?CheckCallingProcess@ioBuff@@IAEXXZ:PROC	; ioBuff::CheckCallingProcess
EXTRN	?CheckSwitchType@ioBuff@@IAE_NM@Z:PROC		; ioBuff::CheckSwitchType
EXTRN	?GetBuffDuration@ioBuff@@IAEKXZ:PROC		; ioBuff::GetBuffDuration
EXTRN	?CheckCallingAreaWeapon@ioBuff@@IAEXXZ:PROC	; ioBuff::CheckCallingAreaWeapon
; Function compile flags: /Ogsp
;	COMDAT ?ProcessBuff@ioSelfControlBuff@@UAEXM@Z
_TEXT	SEGMENT
_value$545376 = -4					; size = 4
_fTimePerSec$ = 8					; size = 4
?ProcessBuff@ioSelfControlBuff@@UAEXM@Z PROC		; ioSelfControlBuff::ProcessBuff, COMDAT
; _this$ = ecx

; 66   : {

  00000	55		 push	 ebp
  00001	8b ec		 mov	 ebp, esp
  00003	51		 push	 ecx
  00004	56		 push	 esi
  00005	8b f1		 mov	 esi, ecx

; 67   : 	switch( m_iOperationType )

  00007	8b 86 d0 03 00
	00		 mov	 eax, DWORD PTR [esi+976]
  0000d	83 e8 00	 sub	 eax, 0
  00010	57		 push	 edi
  00011	0f 84 bb 00 00
	00		 je	 $LN2@ProcessBuf@2
  00017	48		 dec	 eax
  00018	74 0a		 je	 SHORT $LN6@ProcessBuf@2
  0001a	48		 dec	 eax
  0001b	74 51		 je	 SHORT $LN8@ProcessBuf@2
  0001d	48		 dec	 eax
  0001e	0f 85 b3 00 00
	00		 jne	 $LN17@ProcessBuf@2
$LN6@ProcessBuf@2:

; 78   : 	case OT_DELAY:
; 79   : 	case OT_ACTIVE:
; 80   : 		{
; 81   : 			CheckCallingAttribute();

  00024	e8 00 00 00 00	 call	 ?CheckCallingAttribute@ioSelfControlBuff@@IAEXXZ ; ioSelfControlBuff::CheckCallingAttribute

; 82   : 			CheckCallingAreaWeapon();

  00029	8b ce		 mov	 ecx, esi
  0002b	e8 00 00 00 00	 call	 ?CheckCallingAreaWeapon@ioBuff@@IAEXXZ ; ioBuff::CheckCallingAreaWeapon

; 83   : 			if( GetBuffDuration() == 0 )

  00030	8b ce		 mov	 ecx, esi
  00032	e8 00 00 00 00	 call	 ?GetBuffDuration@ioBuff@@IAEKXZ ; ioBuff::GetBuffDuration
  00037	85 c0		 test	 eax, eax
  00039	0f 84 e3 00 00
	00		 je	 $LN1@ProcessBuf@2

; 84   : 				return;
; 85   : 
; 86   : 			if( m_dwBuffEndTime <= FRAMEGETTIME() )

  0003f	ff 15 00 00 00
	00		 call	 DWORD PTR __imp_?GetSingleton@ioFrameTimer@@SAAAV1@XZ
  00045	8b c8		 mov	 ecx, eax
  00047	ff 15 00 00 00
	00		 call	 DWORD PTR __imp_?GetLoopSec@ioFrameTimer@@QBEKXZ
  0004d	8b f8		 mov	 edi, eax
  0004f	8d 45 fc	 lea	 eax, DWORD PTR _value$545376[ebp]
  00052	50		 push	 eax
  00053	8d 8e 9c 03 00
	00		 lea	 ecx, DWORD PTR [esi+924]
  00059	e8 00 00 00 00	 call	 ?DecryptValueToPool@?$CEncrypt@K@@QAEXPAK@Z ; CEncrypt<unsigned long>::DecryptValueToPool
  0005e	39 7d fc	 cmp	 DWORD PTR _value$545376[ebp], edi
  00061	77 2c		 ja	 SHORT $LN4@ProcessBuf@2

; 87   : 			{
; 88   : 				m_pOwner->SetState( CS_DELAY, m_bSendDelayNetWork );

  00063	8b 8e 74 02 00
	00		 mov	 ecx, DWORD PTR [esi+628]

; 89   : 				m_pOwner->SetCurMoveSpeed( 0 );
; 90   : 				SetReserveEndBuff();
; 91   : 				return;

  00069	e9 8a 00 00 00	 jmp	 $LN19@ProcessBuf@2
$LN8@ProcessBuf@2:

; 68   : 	{
; 69   : 	case OT_SWITCH:
; 70   : 		if( !CheckSwitchType( fTimePerSec ) )

  0006e	f3 0f 10 45 08	 movss	 xmm0, DWORD PTR _fTimePerSec$[ebp]
  00073	51		 push	 ecx
  00074	f3 0f 11 04 24	 movss	 DWORD PTR [esp], xmm0
  00079	e8 00 00 00 00	 call	 ?CheckSwitchType@ioBuff@@IAE_NM@Z ; ioBuff::CheckSwitchType

; 71   : 		{
; 72   : 			SetReserveEndBuff();

  0007e	8b ce		 mov	 ecx, esi
  00080	84 c0		 test	 al, al

; 73   : 			return;

  00082	0f 84 95 00 00
	00		 je	 $LN18@ProcessBuf@2

; 74   : 		}
; 75   : 
; 76   : 		CheckCallingProcess();

  00088	e8 00 00 00 00	 call	 ?CheckCallingProcess@ioBuff@@IAEXXZ ; ioBuff::CheckCallingProcess

; 77   : 		break;

  0008d	eb 48		 jmp	 SHORT $LN17@ProcessBuf@2
$LN4@ProcessBuf@2:

; 92   : 			}
; 93   : 
; 94   : 			if ( !CheckWeaponDead( m_pOwner ) )

  0008f	ff b6 74 02 00
	00		 push	 DWORD PTR [esi+628]
  00095	8b ce		 mov	 ecx, esi
  00097	e8 00 00 00 00	 call	 ?CheckWeaponDead@ioSelfControlBuff@@IAE_NPAVioBaseChar@@@Z ; ioSelfControlBuff::CheckWeaponDead
  0009c	84 c0		 test	 al, al
  0009e	75 37		 jne	 SHORT $LN17@ProcessBuf@2

; 95   : 			{
; 96   : 				m_pOwner->SetState( CS_DELAY, m_bSendDelayNetWork );

  000a0	0f b6 86 f9 08
	00 00		 movzx	 eax, BYTE PTR [esi+2297]
  000a7	8b 8e 74 02 00
	00		 mov	 ecx, DWORD PTR [esi+628]
  000ad	50		 push	 eax
  000ae	6a 00		 push	 0
  000b0	e8 00 00 00 00	 call	 ?SetState@ioBaseChar@@QAEXH_N@Z ; ioBaseChar::SetState

; 97   : 				m_pOwner->SetCurMoveSpeed( 0 );

  000b5	0f 57 c0	 xorps	 xmm0, xmm0
  000b8	51		 push	 ecx
  000b9	8b 8e 74 02 00
	00		 mov	 ecx, DWORD PTR [esi+628]
  000bf	f3 0f 11 04 24	 movss	 DWORD PTR [esp], xmm0
  000c4	e8 00 00 00 00	 call	 ?SetCurMoveSpeed@ioBaseChar@@QAEXM@Z ; ioBaseChar::SetCurMoveSpeed

; 98   : 				SetReserveEndBuff();

  000c9	8b ce		 mov	 ecx, esi
  000cb	e8 00 00 00 00	 call	 ?SetReserveEndBuff@ioBuff@@QAEXXZ ; ioBuff::SetReserveEndBuff

; 99   : 			}
; 100  : 		}		
; 101  : 		break;

  000d0	eb 05		 jmp	 SHORT $LN17@ProcessBuf@2
$LN2@ProcessBuf@2:

; 102  : 	case OT_PASSIVE:
; 103  : 		CheckCallingAreaWeapon();

  000d2	e8 00 00 00 00	 call	 ?CheckCallingAreaWeapon@ioBuff@@IAEXXZ ; ioBuff::CheckCallingAreaWeapon
$LN17@ProcessBuf@2:

; 104  : 		break;
; 105  : 	}
; 106  : 	
; 107  : 	ProcessBuffAction( fTimePerSec );

  000d7	f3 0f 10 45 08	 movss	 xmm0, DWORD PTR _fTimePerSec$[ebp]
  000dc	51		 push	 ecx
  000dd	8b ce		 mov	 ecx, esi
  000df	f3 0f 11 04 24	 movss	 DWORD PTR [esp], xmm0
  000e4	e8 00 00 00 00	 call	 ?ProcessBuffAction@ioSelfControlBuff@@QAEXM@Z ; ioSelfControlBuff::ProcessBuffAction

; 108  : 
; 109  : 	if( m_pOwner->GetState() != CS_BUFF_ACTION )

  000e9	8b 8e 74 02 00
	00		 mov	 ecx, DWORD PTR [esi+628]
  000ef	80 b9 10 03 00
	00 70		 cmp	 BYTE PTR [ecx+784], 112	; 00000070H
  000f6	74 2a		 je	 SHORT $LN1@ProcessBuf@2
$LN19@ProcessBuf@2:

; 110  : 	{
; 111  : 		m_pOwner->SetState( CS_DELAY, m_bSendDelayNetWork );

  000f8	0f b6 86 f9 08
	00 00		 movzx	 eax, BYTE PTR [esi+2297]
  000ff	50		 push	 eax
  00100	6a 00		 push	 0
  00102	e8 00 00 00 00	 call	 ?SetState@ioBaseChar@@QAEXH_N@Z ; ioBaseChar::SetState

; 112  : 		m_pOwner->SetCurMoveSpeed( 0 );

  00107	0f 57 c0	 xorps	 xmm0, xmm0
  0010a	51		 push	 ecx
  0010b	8b 8e 74 02 00
	00		 mov	 ecx, DWORD PTR [esi+628]
  00111	f3 0f 11 04 24	 movss	 DWORD PTR [esp], xmm0
  00116	e8 00 00 00 00	 call	 ?SetCurMoveSpeed@ioBaseChar@@QAEXM@Z ; ioBaseChar::SetCurMoveSpeed

; 113  : 		SetReserveEndBuff();

  0011b	8b ce		 mov	 ecx, esi
$LN18@ProcessBuf@2:
  0011d	e8 00 00 00 00	 call	 ?SetReserveEndBuff@ioBuff@@QAEXXZ ; ioBuff::SetReserveEndBuff
$LN1@ProcessBuf@2:
  00122	5f		 pop	 edi
  00123	5e		 pop	 esi

; 114  : 		return;
; 115  : 	}
; 116  : }

  00124	c9		 leave
  00125	c2 04 00	 ret	 4
?ProcessBuff@ioSelfControlBuff@@UAEXM@Z ENDP		; ioSelfControlBuff::ProcessBuff
_TEXT	ENDS
END
