; Listing generated by Microsoft (R) Optimizing Compiler Version 16.00.30319.01 

	TITLE	D:\Lost Saga For Developer\Youtube\Tutorial\Source\src\LSClient\ioSetItemBuyRight.cpp
	.686P
	.XMM
	include listing.inc
	.model	flat

INCLUDELIB MSVCRT
INCLUDELIB OLDNAMES

PUBLIC	??_7ioSetItemBuyRight@@6B@			; ioSetItemBuyRight::`vftable'
PUBLIC	??0ioSetItemBuyRight@@QAE@XZ			; ioSetItemBuyRight::ioSetItemBuyRight
PUBLIC	??_R4ioSetItemBuyRight@@6B@			; ioSetItemBuyRight::`RTTI Complete Object Locator'
PUBLIC	??_R0?AVioSetItemBuyRight@@@8			; ioSetItemBuyRight `RTTI Type Descriptor'
PUBLIC	??_R3ioSetItemBuyRight@@8			; ioSetItemBuyRight::`RTTI Class Hierarchy Descriptor'
PUBLIC	??_R2ioSetItemBuyRight@@8			; ioSetItemBuyRight::`RTTI Base Class Array'
PUBLIC	??_R1A@?0A@EA@ioSetItemBuyRight@@8		; ioSetItemBuyRight::`RTTI Base Class Descriptor at (0,-1,0,64)'
PUBLIC	??_R1A@?0A@EA@ioItemRight@@8			; ioItemRight::`RTTI Base Class Descriptor at (0,-1,0,64)'
PUBLIC	??_R0?AVioItemRight@@@8				; ioItemRight `RTTI Type Descriptor'
PUBLIC	??_R3ioItemRight@@8				; ioItemRight::`RTTI Class Hierarchy Descriptor'
PUBLIC	??_R2ioItemRight@@8				; ioItemRight::`RTTI Base Class Array'
PUBLIC	?LoadProperty@ioSetItemBuyRight@@UAEXAAVioINILoader@@@Z ; ioSetItemBuyRight::LoadProperty
PUBLIC	?ExecuteFirstFunc@ioSetItemBuyRight@@UBEXPAVioWnd@@@Z ; ioSetItemBuyRight::ExecuteFirstFunc
PUBLIC	?ExecuteSecondFunc@ioSetItemBuyRight@@UBEXPAVioWnd@@@Z ; ioSetItemBuyRight::ExecuteSecondFunc
PUBLIC	?GetType@ioSetItemBuyRight@@UBE?AW4RightType@ioItemRight@@XZ ; ioSetItemBuyRight::GetType
EXTRN	??0ioItemRight@@QAE@XZ:PROC			; ioItemRight::ioItemRight
EXTRN	??_7type_info@@6B@:QWORD			; type_info::`vftable'
EXTRN	?IsRightValid@ioItemRight@@UBE_NXZ:PROC		; ioItemRight::IsRightValid
EXTRN	?CheckPreCondition@ioItemRight@@UBE_NPAVioWnd@@@Z:PROC ; ioItemRight::CheckPreCondition
EXTRN	??_EioSetItemBuyRight@@UAEPAXI@Z:PROC		; ioSetItemBuyRight::`vector deleting destructor'
;	COMDAT ??_R2ioItemRight@@8
; File d:\lost saga for developer\youtube\tutorial\source\src\lsclient\iosetitembuyright.cpp
rdata$r	SEGMENT
??_R2ioItemRight@@8 DD FLAT:??_R1A@?0A@EA@ioItemRight@@8 ; ioItemRight::`RTTI Base Class Array'
rdata$r	ENDS
;	COMDAT ??_R3ioItemRight@@8
rdata$r	SEGMENT
??_R3ioItemRight@@8 DD 00H				; ioItemRight::`RTTI Class Hierarchy Descriptor'
	DD	00H
	DD	01H
	DD	FLAT:??_R2ioItemRight@@8
rdata$r	ENDS
;	COMDAT ??_R0?AVioItemRight@@@8
_DATA	SEGMENT
??_R0?AVioItemRight@@@8 DD FLAT:??_7type_info@@6B@	; ioItemRight `RTTI Type Descriptor'
	DD	00H
	DB	'.?AVioItemRight@@', 00H
_DATA	ENDS
;	COMDAT ??_R1A@?0A@EA@ioItemRight@@8
rdata$r	SEGMENT
??_R1A@?0A@EA@ioItemRight@@8 DD FLAT:??_R0?AVioItemRight@@@8 ; ioItemRight::`RTTI Base Class Descriptor at (0,-1,0,64)'
	DD	00H
	DD	00H
	DD	0ffffffffH
	DD	00H
	DD	040H
	DD	FLAT:??_R3ioItemRight@@8
rdata$r	ENDS
;	COMDAT ??_R1A@?0A@EA@ioSetItemBuyRight@@8
rdata$r	SEGMENT
??_R1A@?0A@EA@ioSetItemBuyRight@@8 DD FLAT:??_R0?AVioSetItemBuyRight@@@8 ; ioSetItemBuyRight::`RTTI Base Class Descriptor at (0,-1,0,64)'
	DD	01H
	DD	00H
	DD	0ffffffffH
	DD	00H
	DD	040H
	DD	FLAT:??_R3ioSetItemBuyRight@@8
rdata$r	ENDS
;	COMDAT ??_R2ioSetItemBuyRight@@8
rdata$r	SEGMENT
??_R2ioSetItemBuyRight@@8 DD FLAT:??_R1A@?0A@EA@ioSetItemBuyRight@@8 ; ioSetItemBuyRight::`RTTI Base Class Array'
	DD	FLAT:??_R1A@?0A@EA@ioItemRight@@8
rdata$r	ENDS
;	COMDAT ??_R3ioSetItemBuyRight@@8
rdata$r	SEGMENT
??_R3ioSetItemBuyRight@@8 DD 00H			; ioSetItemBuyRight::`RTTI Class Hierarchy Descriptor'
	DD	00H
	DD	02H
	DD	FLAT:??_R2ioSetItemBuyRight@@8
rdata$r	ENDS
;	COMDAT ??_R0?AVioSetItemBuyRight@@@8
_DATA	SEGMENT
??_R0?AVioSetItemBuyRight@@@8 DD FLAT:??_7type_info@@6B@ ; ioSetItemBuyRight `RTTI Type Descriptor'
	DD	00H
	DB	'.?AVioSetItemBuyRight@@', 00H
_DATA	ENDS
;	COMDAT ??_R4ioSetItemBuyRight@@6B@
rdata$r	SEGMENT
??_R4ioSetItemBuyRight@@6B@ DD 00H			; ioSetItemBuyRight::`RTTI Complete Object Locator'
	DD	00H
	DD	00H
	DD	FLAT:??_R0?AVioSetItemBuyRight@@@8
	DD	FLAT:??_R3ioSetItemBuyRight@@8
rdata$r	ENDS
;	COMDAT ??_7ioSetItemBuyRight@@6B@
CONST	SEGMENT
??_7ioSetItemBuyRight@@6B@ DD FLAT:??_R4ioSetItemBuyRight@@6B@ ; ioSetItemBuyRight::`vftable'
	DD	FLAT:?IsRightValid@ioItemRight@@UBE_NXZ
	DD	FLAT:?LoadProperty@ioSetItemBuyRight@@UAEXAAVioINILoader@@@Z
	DD	FLAT:?CheckPreCondition@ioItemRight@@UBE_NPAVioWnd@@@Z
	DD	FLAT:?ExecuteFirstFunc@ioSetItemBuyRight@@UBEXPAVioWnd@@@Z
	DD	FLAT:?ExecuteSecondFunc@ioSetItemBuyRight@@UBEXPAVioWnd@@@Z
	DD	FLAT:?GetType@ioSetItemBuyRight@@UBE?AW4RightType@ioItemRight@@XZ
	DD	FLAT:??_EioSetItemBuyRight@@UAEPAXI@Z
; Function compile flags: /Ogsp
CONST	ENDS
;	COMDAT ??0ioSetItemBuyRight@@QAE@XZ
_TEXT	SEGMENT
??0ioSetItemBuyRight@@QAE@XZ PROC			; ioSetItemBuyRight::ioSetItemBuyRight, COMDAT
; _this$ = ecx

; 8    : {

  00000	56		 push	 esi
  00001	8b f1		 mov	 esi, ecx
  00003	e8 00 00 00 00	 call	 ??0ioItemRight@@QAE@XZ	; ioItemRight::ioItemRight

; 9    : 	m_dwSetItemCode = 0;

  00008	83 a6 88 00 00
	00 00		 and	 DWORD PTR [esi+136], 0
  0000f	c7 06 00 00 00
	00		 mov	 DWORD PTR [esi], OFFSET ??_7ioSetItemBuyRight@@6B@

; 10   : }

  00015	8b c6		 mov	 eax, esi
  00017	5e		 pop	 esi
  00018	c3		 ret	 0
??0ioSetItemBuyRight@@QAE@XZ ENDP			; ioSetItemBuyRight::ioSetItemBuyRight
_TEXT	ENDS
PUBLIC	??1ioSetItemBuyRight@@UAE@XZ			; ioSetItemBuyRight::~ioSetItemBuyRight
EXTRN	??1ioItemRight@@UAE@XZ:PROC			; ioItemRight::~ioItemRight
; Function compile flags: /Ogsp
;	COMDAT ??1ioSetItemBuyRight@@UAE@XZ
_TEXT	SEGMENT
??1ioSetItemBuyRight@@UAE@XZ PROC			; ioSetItemBuyRight::~ioSetItemBuyRight, COMDAT
; _this$ = ecx

; 13   : {

  00000	c7 01 00 00 00
	00		 mov	 DWORD PTR [ecx], OFFSET ??_7ioSetItemBuyRight@@6B@

; 14   : }

  00006	e9 00 00 00 00	 jmp	 ??1ioItemRight@@UAE@XZ	; ioItemRight::~ioItemRight
??1ioSetItemBuyRight@@UAE@XZ ENDP			; ioSetItemBuyRight::~ioSetItemBuyRight
_TEXT	ENDS
PUBLIC	??_C@_0CE@LECLIBFA@ioSetItemBuyRight?3?3ExecuteFirstF@ ; `string'
PUBLIC	??_C@_00CNPNBAHC@?$AA@				; `string'
EXTRN	?SetMsgBox@ioSP2GUIManager@@QAAXHPAVioWnd@@PBDZZ:PROC ; ioSP2GUIManager::SetMsgBox
EXTRN	?GetSingleton@ioSP2GUIManager@@SAAAV1@XZ:PROC	; ioSP2GUIManager::GetSingleton
EXTRN	__imp_?GetString@ioStringManager@@QAEPADPBD0HW4FileNamePrefix@1@@Z:PROC
EXTRN	__imp_?GetSingleton@ioStringManager@@SAAAV1@XZ:PROC
;	COMDAT ??_C@_0CE@LECLIBFA@ioSetItemBuyRight?3?3ExecuteFirstF@
CONST	SEGMENT
??_C@_0CE@LECLIBFA@ioSetItemBuyRight?3?3ExecuteFirstF@ DB 'ioSetItemBuyRi'
	DB	'ght::ExecuteFirstFunc', 00H			; `string'
CONST	ENDS
;	COMDAT ??_C@_00CNPNBAHC@?$AA@
CONST	SEGMENT
??_C@_00CNPNBAHC@?$AA@ DB 00H				; `string'
; Function compile flags: /Ogsp
CONST	ENDS
;	COMDAT ?ExecuteFirstFunc@ioSetItemBuyRight@@UBEXPAVioWnd@@@Z
_TEXT	SEGMENT
_pWnd$ = 8						; size = 4
?ExecuteFirstFunc@ioSetItemBuyRight@@UBEXPAVioWnd@@@Z PROC ; ioSetItemBuyRight::ExecuteFirstFunc, COMDAT
; _this$ = ecx

; 25   : 	g_GUIMgr.SetMsgBox(MB_OK, NULL, STR(1) );

  00000	6a 00		 push	 0
  00002	6a 01		 push	 1
  00004	68 00 00 00 00	 push	 OFFSET ??_C@_00CNPNBAHC@?$AA@
  00009	68 00 00 00 00	 push	 OFFSET ??_C@_0CE@LECLIBFA@ioSetItemBuyRight?3?3ExecuteFirstF@
  0000e	ff 15 00 00 00
	00		 call	 DWORD PTR __imp_?GetSingleton@ioStringManager@@SAAAV1@XZ
  00014	8b c8		 mov	 ecx, eax
  00016	ff 15 00 00 00
	00		 call	 DWORD PTR __imp_?GetString@ioStringManager@@QAEPADPBD0HW4FileNamePrefix@1@@Z
  0001c	50		 push	 eax
  0001d	6a 00		 push	 0
  0001f	6a 00		 push	 0
  00021	e8 00 00 00 00	 call	 ?GetSingleton@ioSP2GUIManager@@SAAAV1@XZ ; ioSP2GUIManager::GetSingleton
  00026	50		 push	 eax
  00027	e8 00 00 00 00	 call	 ?SetMsgBox@ioSP2GUIManager@@QAAXHPAVioWnd@@PBDZZ ; ioSP2GUIManager::SetMsgBox
  0002c	83 c4 10	 add	 esp, 16			; 00000010H

; 26   : }

  0002f	c2 04 00	 ret	 4
?ExecuteFirstFunc@ioSetItemBuyRight@@UBEXPAVioWnd@@@Z ENDP ; ioSetItemBuyRight::ExecuteFirstFunc
; Function compile flags: /Ogsp
_TEXT	ENDS
;	COMDAT ?ExecuteSecondFunc@ioSetItemBuyRight@@UBEXPAVioWnd@@@Z
_TEXT	SEGMENT
_pWnd$ = 8						; size = 4
?ExecuteSecondFunc@ioSetItemBuyRight@@UBEXPAVioWnd@@@Z PROC ; ioSetItemBuyRight::ExecuteSecondFunc, COMDAT
; _this$ = ecx

; 30   : }

  00000	c2 04 00	 ret	 4
?ExecuteSecondFunc@ioSetItemBuyRight@@UBEXPAVioWnd@@@Z ENDP ; ioSetItemBuyRight::ExecuteSecondFunc
; Function compile flags: /Ogsp
_TEXT	ENDS
;	COMDAT ?GetType@ioSetItemBuyRight@@UBE?AW4RightType@ioItemRight@@XZ
_TEXT	SEGMENT
?GetType@ioSetItemBuyRight@@UBE?AW4RightType@ioItemRight@@XZ PROC ; ioSetItemBuyRight::GetType, COMDAT
; _this$ = ecx

; 34   : 	return RT_SET_ITEM_BUY;

  00000	6a 06		 push	 6
  00002	58		 pop	 eax

; 35   : }

  00003	c3		 ret	 0
?GetType@ioSetItemBuyRight@@UBE?AW4RightType@ioItemRight@@XZ ENDP ; ioSetItemBuyRight::GetType
_TEXT	ENDS
PUBLIC	?GetSetItemInfo@ioSetItemBuyRight@@QBEPBVioSetItemInfo@@XZ ; ioSetItemBuyRight::GetSetItemInfo
EXTRN	?GetSetInfoByCode@ioSetItemInfoManager@@QBEPBVioSetItemInfo@@K@Z:PROC ; ioSetItemInfoManager::GetSetInfoByCode
EXTRN	?GetSingeton@ioSetItemInfoManager@@SAAAV1@XZ:PROC ; ioSetItemInfoManager::GetSingeton
; Function compile flags: /Ogsp
;	COMDAT ?GetSetItemInfo@ioSetItemBuyRight@@QBEPBVioSetItemInfo@@XZ
_TEXT	SEGMENT
?GetSetItemInfo@ioSetItemBuyRight@@QBEPBVioSetItemInfo@@XZ PROC ; ioSetItemBuyRight::GetSetItemInfo, COMDAT
; _this$ = ecx

; 39   : 	return g_SetItemInfoMgr.GetSetInfoByCode( m_dwSetItemCode );

  00000	ff b1 88 00 00
	00		 push	 DWORD PTR [ecx+136]
  00006	e8 00 00 00 00	 call	 ?GetSingeton@ioSetItemInfoManager@@SAAAV1@XZ ; ioSetItemInfoManager::GetSingeton
  0000b	8b c8		 mov	 ecx, eax
  0000d	e8 00 00 00 00	 call	 ?GetSetInfoByCode@ioSetItemInfoManager@@QBEPBVioSetItemInfo@@K@Z ; ioSetItemInfoManager::GetSetInfoByCode

; 40   : }

  00012	c3		 ret	 0
?GetSetItemInfo@ioSetItemBuyRight@@QBEPBVioSetItemInfo@@XZ ENDP ; ioSetItemBuyRight::GetSetItemInfo
_TEXT	ENDS
PUBLIC	?_DECSTR@@YAXPADH@Z				; _DECSTR
; Function compile flags: /Ogsp
; File d:\lost saga for developer\youtube\tutorial\source\src\lsclient\stringprotect.h
;	COMDAT ?_DECSTR@@YAXPADH@Z
_TEXT	SEGMENT
_s$ = 8							; size = 4
_l$ = 12						; size = 4
?_DECSTR@@YAXPADH@Z PROC				; _DECSTR, COMDAT

; 40   : __forceinline void _DECSTR(char* s, int l){int i=0,l4=(l-1)/4,*p=(int*)s;s[l-1]=0;for(;i<l4;++i)*(p++)^=0xEAEBECED;for(i=l4*4;i<l-1;++i)s[i]^=0xED-i%4;}

  00000	55		 push	 ebp
  00001	8b ec		 mov	 ebp, esp
  00003	8b 4d 0c	 mov	 ecx, DWORD PTR _l$[ebp]
  00006	56		 push	 esi
  00007	8b 75 08	 mov	 esi, DWORD PTR _s$[ebp]
  0000a	57		 push	 edi
  0000b	8d 79 ff	 lea	 edi, DWORD PTR [ecx-1]
  0000e	8b c7		 mov	 eax, edi
  00010	99		 cdq
  00011	83 e2 03	 and	 edx, 3
  00014	03 c2		 add	 eax, edx
  00016	c1 f8 02	 sar	 eax, 2
  00019	8b d6		 mov	 edx, esi
  0001b	c6 44 0e ff 00	 mov	 BYTE PTR [esi+ecx-1], 0
  00020	85 c0		 test	 eax, eax
  00022	7e 0e		 jle	 SHORT $LN4@DECSTR
  00024	8b c8		 mov	 ecx, eax
$LL6@DECSTR:
  00026	81 32 ed ec eb
	ea		 xor	 DWORD PTR [edx], -353637139 ; eaebecedH
  0002c	83 c2 04	 add	 edx, 4
  0002f	49		 dec	 ecx
  00030	75 f4		 jne	 SHORT $LL6@DECSTR
$LN4@DECSTR:
  00032	c1 e0 02	 shl	 eax, 2
  00035	eb 17		 jmp	 SHORT $LN14@DECSTR
$LL3@DECSTR:
  00037	8b c8		 mov	 ecx, eax
  00039	81 e1 03 00 00
	80		 and	 ecx, -2147483645	; 80000003H
  0003f	79 05		 jns	 SHORT $LN13@DECSTR
  00041	49		 dec	 ecx
  00042	83 c9 fc	 or	 ecx, -4			; fffffffcH
  00045	41		 inc	 ecx
$LN13@DECSTR:
  00046	b2 ed		 mov	 dl, -19			; ffffffedH
  00048	2a d1		 sub	 dl, cl
  0004a	30 14 30	 xor	 BYTE PTR [eax+esi], dl
  0004d	40		 inc	 eax
$LN14@DECSTR:
  0004e	3b c7		 cmp	 eax, edi
  00050	7c e5		 jl	 SHORT $LL3@DECSTR
  00052	5f		 pop	 edi
  00053	5e		 pop	 esi
  00054	5d		 pop	 ebp
  00055	c3		 ret	 0
?_DECSTR@@YAXPADH@Z ENDP				; _DECSTR
_TEXT	ENDS
EXTRN	??3@YAXPAX@Z:PROC				; operator delete
; Function compile flags: /Ogsp
;	COMDAT ??_GioSetItemBuyRight@@UAEPAXI@Z
_TEXT	SEGMENT
___flags$ = 8						; size = 4
??_GioSetItemBuyRight@@UAEPAXI@Z PROC			; ioSetItemBuyRight::`scalar deleting destructor', COMDAT
; _this$ = ecx
  00000	55		 push	 ebp
  00001	8b ec		 mov	 ebp, esp
  00003	56		 push	 esi
  00004	8b f1		 mov	 esi, ecx
  00006	c7 06 00 00 00
	00		 mov	 DWORD PTR [esi], OFFSET ??_7ioSetItemBuyRight@@6B@
  0000c	e8 00 00 00 00	 call	 ??1ioItemRight@@UAE@XZ	; ioItemRight::~ioItemRight
  00011	f6 45 08 01	 test	 BYTE PTR ___flags$[ebp], 1
  00015	74 07		 je	 SHORT $LN1@scalar
  00017	56		 push	 esi
  00018	e8 00 00 00 00	 call	 ??3@YAXPAX@Z		; operator delete
  0001d	59		 pop	 ecx
$LN1@scalar:
  0001e	8b c6		 mov	 eax, esi
  00020	5e		 pop	 esi
  00021	5d		 pop	 ebp
  00022	c2 04 00	 ret	 4
??_GioSetItemBuyRight@@UAEPAXI@Z ENDP			; ioSetItemBuyRight::`scalar deleting destructor'
_TEXT	ENDS
PUBLIC	__$ArrayPad$
PUBLIC	??$LoadInt_e@$0O@@ioINILoader@@QAEHAAY0O@$$CBDH@Z ; ioINILoader::LoadInt_e<14>
EXTRN	__imp_?LoadInt@ioINILoader@@QAEHPBDH@Z:PROC
EXTRN	___security_cookie:DWORD
EXTRN	@__security_check_cookie@4:PROC
; Function compile flags: /Ogsp
; File d:\lost saga for developer\youtube\tutorial\source\src\io3dengine\ioiniloader.h
;	COMDAT ??$LoadInt_e@$0O@@ioINILoader@@QAEHAAY0O@$$CBDH@Z
_TEXT	SEGMENT
__k$ = -24						; size = 14
__$ArrayPad$ = -4					; size = 4
_k$ = 8							; size = 4
_i$ = 12						; size = 4
??$LoadInt_e@$0O@@ioINILoader@@QAEHAAY0O@$$CBDH@Z PROC	; ioINILoader::LoadInt_e<14>, COMDAT
; _this$ = ecx

; 118  : 	{

  00000	55		 push	 ebp
  00001	8b ec		 mov	 ebp, esp
  00003	83 ec 18	 sub	 esp, 24			; 00000018H
  00006	a1 00 00 00 00	 mov	 eax, DWORD PTR ___security_cookie
  0000b	33 c5		 xor	 eax, ebp
  0000d	89 45 fc	 mov	 DWORD PTR __$ArrayPad$[ebp], eax
  00010	8b 45 08	 mov	 eax, DWORD PTR _k$[ebp]

; 119  : 		_ENCSTR(k, _k);

  00013	8a 10		 mov	 dl, BYTE PTR [eax]
  00015	56		 push	 esi
  00016	8b f1		 mov	 esi, ecx
  00018	84 d2		 test	 dl, dl
  0001a	0f 84 64 01 00
	00		 je	 $LN96@LoadInt_e
  00020	80 f2 ed	 xor	 dl, -19			; ffffffedH
  00023	88 55 e8	 mov	 BYTE PTR __k$[ebp], dl
  00026	8a 50 01	 mov	 dl, BYTE PTR [eax+1]
  00029	84 d2		 test	 dl, dl
  0002b	0f 84 4d 01 00
	00		 je	 $LN95@LoadInt_e
  00031	80 f2 ec	 xor	 dl, -20			; ffffffecH
  00034	88 55 e9	 mov	 BYTE PTR __k$[ebp+1], dl
  00037	8a 50 02	 mov	 dl, BYTE PTR [eax+2]
  0003a	84 d2		 test	 dl, dl
  0003c	0f 84 36 01 00
	00		 je	 $LN94@LoadInt_e
  00042	b1 eb		 mov	 cl, -21			; ffffffebH
  00044	32 d1		 xor	 dl, cl
  00046	88 55 ea	 mov	 BYTE PTR __k$[ebp+2], dl
  00049	8a 50 03	 mov	 dl, BYTE PTR [eax+3]
  0004c	84 d2		 test	 dl, dl
  0004e	0f 84 1e 01 00
	00		 je	 $LN93@LoadInt_e
  00054	80 f2 ea	 xor	 dl, -22			; ffffffeaH
  00057	88 55 eb	 mov	 BYTE PTR __k$[ebp+3], dl
  0005a	8a 50 04	 mov	 dl, BYTE PTR [eax+4]
  0005d	84 d2		 test	 dl, dl
  0005f	0f 84 07 01 00
	00		 je	 $LN92@LoadInt_e
  00065	80 f2 ed	 xor	 dl, -19			; ffffffedH
  00068	88 55 ec	 mov	 BYTE PTR __k$[ebp+4], dl
  0006b	8a 50 05	 mov	 dl, BYTE PTR [eax+5]
  0006e	84 d2		 test	 dl, dl
  00070	0f 84 f0 00 00
	00		 je	 $LN91@LoadInt_e
  00076	80 f2 ec	 xor	 dl, -20			; ffffffecH
  00079	88 55 ed	 mov	 BYTE PTR __k$[ebp+5], dl
  0007c	8a 50 06	 mov	 dl, BYTE PTR [eax+6]
  0007f	84 d2		 test	 dl, dl
  00081	0f 84 da 00 00
	00		 je	 $LN90@LoadInt_e
  00087	32 d1		 xor	 dl, cl
  00089	88 55 ee	 mov	 BYTE PTR __k$[ebp+6], dl
  0008c	8a 50 07	 mov	 dl, BYTE PTR [eax+7]
  0008f	84 d2		 test	 dl, dl
  00091	0f 84 c4 00 00
	00		 je	 $LN89@LoadInt_e
  00097	80 f2 ea	 xor	 dl, -22			; ffffffeaH
  0009a	88 55 ef	 mov	 BYTE PTR __k$[ebp+7], dl
  0009d	8a 50 08	 mov	 dl, BYTE PTR [eax+8]
  000a0	84 d2		 test	 dl, dl
  000a2	0f 84 ad 00 00
	00		 je	 $LN88@LoadInt_e
  000a8	80 f2 ed	 xor	 dl, -19			; ffffffedH
  000ab	88 55 f0	 mov	 BYTE PTR __k$[ebp+8], dl
  000ae	8a 50 09	 mov	 dl, BYTE PTR [eax+9]
  000b1	84 d2		 test	 dl, dl
  000b3	0f 84 96 00 00
	00		 je	 $LN87@LoadInt_e
  000b9	80 f2 ec	 xor	 dl, -20			; ffffffecH
  000bc	88 55 f1	 mov	 BYTE PTR __k$[ebp+9], dl
  000bf	8a 50 0a	 mov	 dl, BYTE PTR [eax+10]
  000c2	84 d2		 test	 dl, dl
  000c4	0f 84 80 00 00
	00		 je	 $LN86@LoadInt_e
  000ca	32 d1		 xor	 dl, cl
  000cc	88 55 f2	 mov	 BYTE PTR __k$[ebp+10], dl
  000cf	8a 50 0b	 mov	 dl, BYTE PTR [eax+11]
  000d2	84 d2		 test	 dl, dl
  000d4	74 6e		 je	 SHORT $LN85@LoadInt_e
  000d6	80 f2 ea	 xor	 dl, -22			; ffffffeaH
  000d9	88 55 f3	 mov	 BYTE PTR __k$[ebp+11], dl
  000dc	8a 50 0c	 mov	 dl, BYTE PTR [eax+12]
  000df	84 d2		 test	 dl, dl
  000e1	74 5b		 je	 SHORT $LN84@LoadInt_e
  000e3	80 f2 ed	 xor	 dl, -19			; ffffffedH
  000e6	80 78 0d 00	 cmp	 BYTE PTR [eax+13], 0
  000ea	88 55 f4	 mov	 BYTE PTR __k$[ebp+12], dl
  000ed	0f 84 95 00 00
	00		 je	 $LN1@LoadInt_e
  000f3	8a 50 0e	 mov	 dl, BYTE PTR [eax+14]
  000f6	84 d2		 test	 dl, dl
  000f8	74 3f		 je	 SHORT $LN82@LoadInt_e
  000fa	32 d1		 xor	 dl, cl
  000fc	88 55 f6	 mov	 BYTE PTR __k$[ebp+14], dl
  000ff	8a 50 0f	 mov	 dl, BYTE PTR [eax+15]
  00102	84 d2		 test	 dl, dl
  00104	74 2d		 je	 SHORT $LN81@LoadInt_e
  00106	80 f2 ea	 xor	 dl, -22			; ffffffeaH
  00109	88 55 f7	 mov	 BYTE PTR __k$[ebp+15], dl
  0010c	8a 50 10	 mov	 dl, BYTE PTR [eax+16]
  0010f	84 d2		 test	 dl, dl
  00111	74 1a		 je	 SHORT $LN80@LoadInt_e
  00113	8a 40 11	 mov	 al, BYTE PTR [eax+17]
  00116	80 f2 ed	 xor	 dl, -19			; ffffffedH
  00119	88 55 f8	 mov	 BYTE PTR __k$[ebp+16], dl
  0011c	84 c0		 test	 al, al
  0011e	74 07		 je	 SHORT $LN79@LoadInt_e
  00120	34 ec		 xor	 al, -20			; ffffffecH
  00122	88 45 f9	 mov	 BYTE PTR __k$[ebp+17], al
  00125	eb 61		 jmp	 SHORT $LN1@LoadInt_e
$LN79@LoadInt_e:
  00127	c6 45 f9 ec	 mov	 BYTE PTR __k$[ebp+17], -20 ; ffffffecH
  0012b	eb 5b		 jmp	 SHORT $LN1@LoadInt_e
$LN80@LoadInt_e:
  0012d	c6 45 f8 ed	 mov	 BYTE PTR __k$[ebp+16], -19 ; ffffffedH
  00131	eb 55		 jmp	 SHORT $LN1@LoadInt_e
$LN81@LoadInt_e:
  00133	c6 45 f7 ea	 mov	 BYTE PTR __k$[ebp+15], -22 ; ffffffeaH
  00137	eb 4f		 jmp	 SHORT $LN1@LoadInt_e
$LN82@LoadInt_e:
  00139	88 4d f6	 mov	 BYTE PTR __k$[ebp+14], cl
  0013c	eb 4a		 jmp	 SHORT $LN1@LoadInt_e
$LN84@LoadInt_e:
  0013e	c6 45 f4 ed	 mov	 BYTE PTR __k$[ebp+12], -19 ; ffffffedH
  00142	eb 44		 jmp	 SHORT $LN1@LoadInt_e
$LN85@LoadInt_e:
  00144	c6 45 f3 ea	 mov	 BYTE PTR __k$[ebp+11], -22 ; ffffffeaH
  00148	eb 3e		 jmp	 SHORT $LN1@LoadInt_e
$LN86@LoadInt_e:
  0014a	88 4d f2	 mov	 BYTE PTR __k$[ebp+10], cl
  0014d	eb 39		 jmp	 SHORT $LN1@LoadInt_e
$LN87@LoadInt_e:
  0014f	c6 45 f1 ec	 mov	 BYTE PTR __k$[ebp+9], -20 ; ffffffecH
  00153	eb 33		 jmp	 SHORT $LN1@LoadInt_e
$LN88@LoadInt_e:
  00155	c6 45 f0 ed	 mov	 BYTE PTR __k$[ebp+8], -19 ; ffffffedH
  00159	eb 2d		 jmp	 SHORT $LN1@LoadInt_e
$LN89@LoadInt_e:
  0015b	c6 45 ef ea	 mov	 BYTE PTR __k$[ebp+7], -22 ; ffffffeaH
  0015f	eb 27		 jmp	 SHORT $LN1@LoadInt_e
$LN90@LoadInt_e:
  00161	88 4d ee	 mov	 BYTE PTR __k$[ebp+6], cl
  00164	eb 22		 jmp	 SHORT $LN1@LoadInt_e
$LN91@LoadInt_e:
  00166	c6 45 ed ec	 mov	 BYTE PTR __k$[ebp+5], -20 ; ffffffecH
  0016a	eb 1c		 jmp	 SHORT $LN1@LoadInt_e
$LN92@LoadInt_e:
  0016c	c6 45 ec ed	 mov	 BYTE PTR __k$[ebp+4], -19 ; ffffffedH
  00170	eb 16		 jmp	 SHORT $LN1@LoadInt_e
$LN93@LoadInt_e:
  00172	c6 45 eb ea	 mov	 BYTE PTR __k$[ebp+3], -22 ; ffffffeaH
  00176	eb 10		 jmp	 SHORT $LN1@LoadInt_e
$LN94@LoadInt_e:
  00178	c6 45 ea eb	 mov	 BYTE PTR __k$[ebp+2], -21 ; ffffffebH
  0017c	eb 0a		 jmp	 SHORT $LN1@LoadInt_e
$LN95@LoadInt_e:
  0017e	c6 45 e9 ec	 mov	 BYTE PTR __k$[ebp+1], -20 ; ffffffecH
  00182	eb 04		 jmp	 SHORT $LN1@LoadInt_e
$LN96@LoadInt_e:
  00184	c6 45 e8 ed	 mov	 BYTE PTR __k$[ebp], -19	; ffffffedH
$LN1@LoadInt_e:
  00188	6a 03		 push	 3
  0018a	8d 45 e8	 lea	 eax, DWORD PTR __k$[ebp]
  0018d	c6 45 f5 00	 mov	 BYTE PTR __k$[ebp+13], 0
  00191	5a		 pop	 edx
$LL104@LoadInt_e:
  00192	81 30 ed ec eb
	ea		 xor	 DWORD PTR [eax], -353637139 ; eaebecedH
  00198	83 c0 04	 add	 eax, 4
  0019b	4a		 dec	 edx
  0019c	75 f4		 jne	 SHORT $LL104@LoadInt_e

; 120  : 		return LoadInt(_k, i);

  0019e	ff 75 0c	 push	 DWORD PTR _i$[ebp]
  001a1	80 75 f4 ed	 xor	 BYTE PTR __k$[ebp+12], -19 ; ffffffedH
  001a5	8d 45 e8	 lea	 eax, DWORD PTR __k$[ebp]
  001a8	50		 push	 eax
  001a9	8b ce		 mov	 ecx, esi
  001ab	ff 15 00 00 00
	00		 call	 DWORD PTR __imp_?LoadInt@ioINILoader@@QAEHPBDH@Z

; 121  : 	}

  001b1	8b 4d fc	 mov	 ecx, DWORD PTR __$ArrayPad$[ebp]
  001b4	33 cd		 xor	 ecx, ebp
  001b6	5e		 pop	 esi
  001b7	e8 00 00 00 00	 call	 @__security_check_cookie@4
  001bc	c9		 leave
  001bd	c2 08 00	 ret	 8
??$LoadInt_e@$0O@@ioINILoader@@QAEHAAY0O@$$CBDH@Z ENDP	; ioINILoader::LoadInt_e<14>
_TEXT	ENDS
PUBLIC	__$ArrayPad$
EXTRN	?LoadProperty@ioItemRight@@UAEXAAVioINILoader@@@Z:PROC ; ioItemRight::LoadProperty
; Function compile flags: /Ogsp
; File d:\lost saga for developer\youtube\tutorial\source\src\lsclient\iosetitembuyright.cpp
;	COMDAT ?LoadProperty@ioSetItemBuyRight@@UAEXAAVioINILoader@@@Z
_TEXT	SEGMENT
__k$505510 = -24					; size = 14
__$ArrayPad$ = -4					; size = 4
_rkLoader$ = 8						; size = 4
?LoadProperty@ioSetItemBuyRight@@UAEXAAVioINILoader@@@Z PROC ; ioSetItemBuyRight::LoadProperty, COMDAT
; _this$ = ecx

; 17   : {

  00000	55		 push	 ebp
  00001	8b ec		 mov	 ebp, esp
  00003	83 ec 18	 sub	 esp, 24			; 00000018H
  00006	a1 00 00 00 00	 mov	 eax, DWORD PTR ___security_cookie
  0000b	33 c5		 xor	 eax, ebp
  0000d	89 45 fc	 mov	 DWORD PTR __$ArrayPad$[ebp], eax
  00010	56		 push	 esi
  00011	8b 75 08	 mov	 esi, DWORD PTR _rkLoader$[ebp]
  00014	57		 push	 edi

; 18   : 	ioItemRight::LoadProperty( rkLoader );

  00015	56		 push	 esi
  00016	8b f9		 mov	 edi, ecx
  00018	e8 00 00 00 00	 call	 ?LoadProperty@ioItemRight@@UAEXAAVioINILoader@@@Z ; ioItemRight::LoadProperty

; 19   : 
; 20   : 	m_dwSetItemCode = rkLoader.LoadInt_e( "set_item_code", 0 );

  0001d	6a 03		 push	 3
  0001f	c7 45 e8 9e 89
	9f b5		 mov	 DWORD PTR __k$505510[ebp], -1247835746 ; b59f899eH
  00026	c7 45 ec 84 98
	8e 87		 mov	 DWORD PTR __k$505510[ebp+4], -2020697980 ; 878e9884H
  0002d	c7 45 f0 b2 8f
	84 8e		 mov	 DWORD PTR __k$505510[ebp+8], -1903915086 ; 8e848fb2H
  00034	8d 45 e8	 lea	 eax, DWORD PTR __k$505510[ebp]
  00037	66 c7 45 f4 88
	00		 mov	 WORD PTR __k$505510[ebp+12], 136 ; 00000088H
  0003d	59		 pop	 ecx
$LL106@LoadProper:
  0003e	81 30 ed ec eb
	ea		 xor	 DWORD PTR [eax], -353637139 ; eaebecedH
  00044	83 c0 04	 add	 eax, 4
  00047	49		 dec	 ecx
  00048	75 f4		 jne	 SHORT $LL106@LoadProper
  0004a	80 75 f4 ed	 xor	 BYTE PTR __k$505510[ebp+12], -19 ; ffffffedH
  0004e	51		 push	 ecx
  0004f	8d 45 e8	 lea	 eax, DWORD PTR __k$505510[ebp]
  00052	50		 push	 eax
  00053	8b ce		 mov	 ecx, esi
  00055	ff 15 00 00 00
	00		 call	 DWORD PTR __imp_?LoadInt@ioINILoader@@QAEHPBDH@Z

; 21   : }

  0005b	8b 4d fc	 mov	 ecx, DWORD PTR __$ArrayPad$[ebp]
  0005e	89 87 88 00 00
	00		 mov	 DWORD PTR [edi+136], eax
  00064	5f		 pop	 edi
  00065	33 cd		 xor	 ecx, ebp
  00067	5e		 pop	 esi
  00068	e8 00 00 00 00	 call	 @__security_check_cookie@4
  0006d	c9		 leave
  0006e	c2 04 00	 ret	 4
?LoadProperty@ioSetItemBuyRight@@UAEXAAVioINILoader@@@Z ENDP ; ioSetItemBuyRight::LoadProperty
_TEXT	ENDS
END
