; Listing generated by Microsoft (R) Optimizing Compiler Version 16.00.30319.01 

	TITLE	D:\Lost Saga For Developer\Youtube\Tutorial\Source\src\LSClient\ioSelectShutDownAnnouncer.cpp
	.686P
	.XMM
	include listing.inc
	.model	flat

INCLUDELIB MSVCRT
INCLUDELIB OLDNAMES

PUBLIC	?return1000@@YAIXZ				; return1000
; Function compile flags: /Ogsp
; File d:\lost saga for developer\youtube\tutorial\source\src\lsclient\stdafx.h
;	COMDAT ?return1000@@YAIXZ
_TEXT	SEGMENT
?return1000@@YAIXZ PROC					; return1000, COMDAT

; 29   : 	__forceinline unsigned int return1000() { __asm mov eax, 1000 };

  00000	b8 e8 03 00 00	 mov	 eax, 1000		; 000003e8H
  00005	c3		 ret	 0
?return1000@@YAIXZ ENDP					; return1000
_TEXT	ENDS
EXTRN	__imp___mktime64:PROC
; Function compile flags: /Ogsp
; File c:\program files (x86)\microsoft visual studio 10.0\vc\include\time.inl
;	COMDAT _mktime
_TEXT	SEGMENT
__Tm$ = 8						; size = 4
_mktime	PROC						; COMDAT

; 124  : {

  00000	55		 push	 ebp
  00001	8b ec		 mov	 ebp, esp

; 126  : }

  00003	5d		 pop	 ebp

; 125  :     return _mktime64(_Tm);

  00004	ff 25 00 00 00
	00		 jmp	 DWORD PTR __imp___mktime64
_mktime	ENDP
_TEXT	ENDS
PUBLIC	??1ioINILoader_e@@QAE@XZ			; ioINILoader_e::~ioINILoader_e
EXTRN	__imp_??1ioINILoader@@QAE@XZ:PROC
; Function compile flags: /Ogsp
;	COMDAT ??1ioINILoader_e@@QAE@XZ
_TEXT	SEGMENT
??1ioINILoader_e@@QAE@XZ PROC				; ioINILoader_e::~ioINILoader_e, COMDAT
; _this$ = ecx
  00000	ff 25 00 00 00
	00		 jmp	 DWORD PTR __imp_??1ioINILoader@@QAE@XZ
??1ioINILoader_e@@QAE@XZ ENDP				; ioINILoader_e::~ioINILoader_e
_TEXT	ENDS
PUBLIC	??1?$_Pair_base@$$CBKVioHashString@@@std@@QAE@XZ ; std::_Pair_base<unsigned long const ,ioHashString>::~_Pair_base<unsigned long const ,ioHashString>
EXTRN	__imp_??1ioHashString@@QAE@XZ:PROC
; Function compile flags: /Ogsp
;	COMDAT ??1?$_Pair_base@$$CBKVioHashString@@@std@@QAE@XZ
_TEXT	SEGMENT
??1?$_Pair_base@$$CBKVioHashString@@@std@@QAE@XZ PROC	; std::_Pair_base<unsigned long const ,ioHashString>::~_Pair_base<unsigned long const ,ioHashString>, COMDAT
; _this$ = ecx
  00000	83 c1 04	 add	 ecx, 4
  00003	ff 25 00 00 00
	00		 jmp	 DWORD PTR __imp_??1ioHashString@@QAE@XZ
??1?$_Pair_base@$$CBKVioHashString@@@std@@QAE@XZ ENDP	; std::_Pair_base<unsigned long const ,ioHashString>::~_Pair_base<unsigned long const ,ioHashString>
_TEXT	ENDS
PUBLIC	?SetShutDownTime@ioSelectShutDownAnnouncer@@QAEXHHHHH@Z ; ioSelectShutDownAnnouncer::SetShutDownTime
; Function compile flags: /Ogsp
; File d:\lost saga for developer\youtube\tutorial\source\src\lsclient\ioselectshutdownannouncer.cpp
;	COMDAT ?SetShutDownTime@ioSelectShutDownAnnouncer@@QAEXHHHHH@Z
_TEXT	SEGMENT
_iYear$ = 8						; size = 4
_iMonth$ = 12						; size = 4
_iDay$ = 16						; size = 4
_iHour$ = 20						; size = 4
_iMinute$ = 24						; size = 4
?SetShutDownTime@ioSelectShutDownAnnouncer@@QAEXHHHHH@Z PROC ; ioSelectShutDownAnnouncer::SetShutDownTime, COMDAT
; _this$ = ecx

; 50   : {

  00000	55		 push	 ebp
  00001	8b ec		 mov	 ebp, esp

; 51   : 	m_bProcess = true;
; 52   : 
; 53   : 	m_iShutDownYear  = iYear;

  00003	8b 45 08	 mov	 eax, DWORD PTR _iYear$[ebp]
  00006	89 41 14	 mov	 DWORD PTR [ecx+20], eax

; 54   : 	m_iShutDownMonth = iMonth;

  00009	8b 45 0c	 mov	 eax, DWORD PTR _iMonth$[ebp]
  0000c	89 41 18	 mov	 DWORD PTR [ecx+24], eax

; 55   : 	m_iShutDownDay   = iDay;

  0000f	8b 45 10	 mov	 eax, DWORD PTR _iDay$[ebp]
  00012	89 41 1c	 mov	 DWORD PTR [ecx+28], eax

; 56   : 	m_iShutDownHour  = iHour;

  00015	8b 45 14	 mov	 eax, DWORD PTR _iHour$[ebp]
  00018	89 41 20	 mov	 DWORD PTR [ecx+32], eax

; 57   : 	m_iShutDownMinute= iMinute;

  0001b	8b 45 18	 mov	 eax, DWORD PTR _iMinute$[ebp]
  0001e	c6 41 38 01	 mov	 BYTE PTR [ecx+56], 1
  00022	89 41 24	 mov	 DWORD PTR [ecx+36], eax

; 58   : 
; 59   : #ifdef _DEBUG
; 60   : #ifndef TEST_SUITE_ON
; 61   : 	LOG.PrintTimeAndLog( 0, "%s [%d-%d-%d %d:%d]", __FUNCTION__, iYear, iMonth, iDay, iHour, iMinute );
; 62   : #endif
; 63   : #endif
; 64   : 
; 65   : }

  00025	5d		 pop	 ebp
  00026	c2 14 00	 ret	 20			; 00000014H
?SetShutDownTime@ioSelectShutDownAnnouncer@@QAEXHHHHH@Z ENDP ; ioSelectShutDownAnnouncer::SetShutDownTime
_TEXT	ENDS
PUBLIC	?IsAnnounce@ioSelectShutDownAnnouncer@@QAE_NXZ	; ioSelectShutDownAnnouncer::IsAnnounce
; Function compile flags: /Ogsp
;	COMDAT ?IsAnnounce@ioSelectShutDownAnnouncer@@QAE_NXZ
_TEXT	SEGMENT
?IsAnnounce@ioSelectShutDownAnnouncer@@QAE_NXZ PROC	; ioSelectShutDownAnnouncer::IsAnnounce, COMDAT
; _this$ = ecx

; 100  : 	return m_bAnnounce;

  00000	8a 41 28	 mov	 al, BYTE PTR [ecx+40]

; 101  : }

  00003	c3		 ret	 0
?IsAnnounce@ioSelectShutDownAnnouncer@@QAE_NXZ ENDP	; ioSelectShutDownAnnouncer::IsAnnounce
_TEXT	ENDS
PUBLIC	?GetRemainMinutes@ioSelectShutDownAnnouncer@@QAEKXZ ; ioSelectShutDownAnnouncer::GetRemainMinutes
; Function compile flags: /Ogsp
;	COMDAT ?GetRemainMinutes@ioSelectShutDownAnnouncer@@QAEKXZ
_TEXT	SEGMENT
?GetRemainMinutes@ioSelectShutDownAnnouncer@@QAEKXZ PROC ; ioSelectShutDownAnnouncer::GetRemainMinutes, COMDAT
; _this$ = ecx

; 105  : 	return m_dwRemainMinutes;

  00000	8b 41 2c	 mov	 eax, DWORD PTR [ecx+44]

; 106  : }

  00003	c3		 ret	 0
?GetRemainMinutes@ioSelectShutDownAnnouncer@@QAEKXZ ENDP ; ioSelectShutDownAnnouncer::GetRemainMinutes
_TEXT	ENDS
PUBLIC	__$ArrayPad$
PUBLIC	?ConvertSecondTime@ioSelectShutDownAnnouncer@@QAE_JHHHHHH@Z ; ioSelectShutDownAnnouncer::ConvertSecondTime
EXTRN	___security_cookie:DWORD
EXTRN	@__security_check_cookie@4:PROC
; Function compile flags: /Ogsp
;	COMDAT ?ConvertSecondTime@ioSelectShutDownAnnouncer@@QAE_JHHHHHH@Z
_TEXT	SEGMENT
_base_time$ = -40					; size = 36
__$ArrayPad$ = -4					; size = 4
_year$ = 8						; size = 4
_month$ = 12						; size = 4
_day$ = 16						; size = 4
_hour$ = 20						; size = 4
_minute$ = 24						; size = 4
_second$ = 28						; size = 4
?ConvertSecondTime@ioSelectShutDownAnnouncer@@QAE_JHHHHHH@Z PROC ; ioSelectShutDownAnnouncer::ConvertSecondTime, COMDAT
; _this$ = ecx

; 120  : {

  00000	55		 push	 ebp
  00001	8b ec		 mov	 ebp, esp
  00003	83 ec 28	 sub	 esp, 40			; 00000028H
  00006	a1 00 00 00 00	 mov	 eax, DWORD PTR ___security_cookie
  0000b	33 c5		 xor	 eax, ebp
  0000d	89 45 fc	 mov	 DWORD PTR __$ArrayPad$[ebp], eax

; 121  : 	struct tm base_time;
; 122  : 	base_time.tm_year = year - 1900;

  00010	8b 45 08	 mov	 eax, DWORD PTR _year$[ebp]

; 123  : 	base_time.tm_mon  = month - 1;
; 124  : 	base_time.tm_mday = day;	
; 125  : 	base_time.tm_hour = hour;
; 126  : 	base_time.tm_min  = minute;		
; 127  : 	base_time.tm_sec  = second;
; 128  : 	base_time.tm_isdst= 0;

  00013	83 65 f8 00	 and	 DWORD PTR _base_time$[ebp+32], 0
  00017	05 94 f8 ff ff	 add	 eax, -1900		; fffff894H
  0001c	89 45 ec	 mov	 DWORD PTR _base_time$[ebp+20], eax
  0001f	8b 45 0c	 mov	 eax, DWORD PTR _month$[ebp]
  00022	48		 dec	 eax
  00023	89 45 e8	 mov	 DWORD PTR _base_time$[ebp+16], eax
  00026	8b 45 10	 mov	 eax, DWORD PTR _day$[ebp]
  00029	89 45 e4	 mov	 DWORD PTR _base_time$[ebp+12], eax
  0002c	8b 45 14	 mov	 eax, DWORD PTR _hour$[ebp]
  0002f	89 45 e0	 mov	 DWORD PTR _base_time$[ebp+8], eax
  00032	8b 45 18	 mov	 eax, DWORD PTR _minute$[ebp]
  00035	89 45 dc	 mov	 DWORD PTR _base_time$[ebp+4], eax
  00038	8b 45 1c	 mov	 eax, DWORD PTR _second$[ebp]
  0003b	89 45 d8	 mov	 DWORD PTR _base_time$[ebp], eax

; 129  : 
; 130  : 	return mktime( &base_time );

  0003e	8d 45 d8	 lea	 eax, DWORD PTR _base_time$[ebp]
  00041	50		 push	 eax
  00042	ff 15 00 00 00
	00		 call	 DWORD PTR __imp___mktime64
  00048	59		 pop	 ecx

; 131  : }

  00049	8b 4d fc	 mov	 ecx, DWORD PTR __$ArrayPad$[ebp]
  0004c	33 cd		 xor	 ecx, ebp
  0004e	e8 00 00 00 00	 call	 @__security_check_cookie@4
  00053	c9		 leave
  00054	c2 18 00	 ret	 24			; 00000018H
?ConvertSecondTime@ioSelectShutDownAnnouncer@@QAE_JHHHHHH@Z ENDP ; ioSelectShutDownAnnouncer::ConvertSecondTime
_TEXT	ENDS
PUBLIC	??_C@_08BMFNADIG@info?1cds?$AA@			; `string'
PUBLIC	??_C@_02GMLFBBN@wb?$AA@				; `string'
PUBLIC	__$ArrayPad$
PUBLIC	?WriteFile@ioSelectShutDownAnnouncer@@QAEXPBD@Z	; ioSelectShutDownAnnouncer::WriteFile
EXTRN	__imp__fclose:PROC
EXTRN	__imp__fflush:PROC
EXTRN	__imp__fwrite:PROC
EXTRN	__imp__fopen:PROC
EXTRN	_memset:PROC
;	COMDAT ??_C@_08BMFNADIG@info?1cds?$AA@
CONST	SEGMENT
??_C@_08BMFNADIG@info?1cds?$AA@ DB 'info/cds', 00H	; `string'
CONST	ENDS
;	COMDAT ??_C@_02GMLFBBN@wb?$AA@
CONST	SEGMENT
??_C@_02GMLFBBN@wb?$AA@ DB 'wb', 00H			; `string'
; Function compile flags: /Ogsp
CONST	ENDS
;	COMDAT ?WriteFile@ioSelectShutDownAnnouncer@@QAEXPBD@Z
_TEXT	SEGMENT
_szEncrypt$ = -264					; size = 260
__$ArrayPad$ = -4					; size = 4
_szDate$ = 8						; size = 4
?WriteFile@ioSelectShutDownAnnouncer@@QAEXPBD@Z PROC	; ioSelectShutDownAnnouncer::WriteFile, COMDAT
; _this$ = ecx

; 134  : {

  00000	55		 push	 ebp
  00001	8b ec		 mov	 ebp, esp
  00003	81 ec 08 01 00
	00		 sub	 esp, 264		; 00000108H
  00009	a1 00 00 00 00	 mov	 eax, DWORD PTR ___security_cookie
  0000e	33 c5		 xor	 eax, ebp
  00010	89 45 fc	 mov	 DWORD PTR __$ArrayPad$[ebp], eax
  00013	56		 push	 esi
  00014	8b 75 08	 mov	 esi, DWORD PTR _szDate$[ebp]
  00017	57		 push	 edi

; 135  : 	char szEncrypt[MAX_PATH]="";

  00018	68 03 01 00 00	 push	 259			; 00000103H
  0001d	8d 85 f9 fe ff
	ff		 lea	 eax, DWORD PTR _szEncrypt$[ebp+1]
  00023	6a 00		 push	 0
  00025	50		 push	 eax
  00026	c6 85 f8 fe ff
	ff 00		 mov	 BYTE PTR _szEncrypt$[ebp], 0
  0002d	e8 00 00 00 00	 call	 _memset

; 136  : 	strcpy( szEncrypt, szDate );

  00032	8d 95 f8 fe ff
	ff		 lea	 edx, DWORD PTR _szEncrypt$[ebp]
  00038	83 c4 0c	 add	 esp, 12			; 0000000cH
  0003b	8b c6		 mov	 eax, esi
  0003d	2b d6		 sub	 edx, esi
$LL7@WriteFile:
  0003f	8a 08		 mov	 cl, BYTE PTR [eax]
  00041	88 0c 02	 mov	 BYTE PTR [edx+eax], cl
  00044	40		 inc	 eax
  00045	84 c9		 test	 cl, cl
  00047	75 f6		 jne	 SHORT $LL7@WriteFile

; 137  : 
; 138  : 	int iLength = strlen( szDate );

  00049	8b c6		 mov	 eax, esi
  0004b	8d 50 01	 lea	 edx, DWORD PTR [eax+1]
$LL11@WriteFile:
  0004e	8a 08		 mov	 cl, BYTE PTR [eax]
  00050	40		 inc	 eax
  00051	84 c9		 test	 cl, cl
  00053	75 f9		 jne	 SHORT $LL11@WriteFile
  00055	2b c2		 sub	 eax, edx
  00057	8b f8		 mov	 edi, eax

; 139  : 	for (int i = 0; i < iLength ; i++)

  00059	33 c9		 xor	 ecx, ecx
  0005b	85 ff		 test	 edi, edi
  0005d	7e 1c		 jle	 SHORT $LN2@WriteFile
  0005f	8d 85 f8 fe ff
	ff		 lea	 eax, DWORD PTR _szEncrypt$[ebp]
  00065	2b f0		 sub	 esi, eax
$LL4@WriteFile:

; 140  : 	{
; 141  : 		szEncrypt[i] = szDate[i] ^ 0xF1 ^ 0x35;

  00067	8d 84 0d f8 fe
	ff ff		 lea	 eax, DWORD PTR _szEncrypt$[ebp+ecx]
  0006e	8a 14 06	 mov	 dl, BYTE PTR [esi+eax]
  00071	80 f2 c4	 xor	 dl, -60			; ffffffc4H
  00074	41		 inc	 ecx
  00075	88 10		 mov	 BYTE PTR [eax], dl
  00077	3b cf		 cmp	 ecx, edi
  00079	7c ec		 jl	 SHORT $LL4@WriteFile
$LN2@WriteFile:

; 142  : 	}
; 143  : 
; 144  : 	FILE *pFile = fopen( "info/cds", "wb" );

  0007b	68 00 00 00 00	 push	 OFFSET ??_C@_02GMLFBBN@wb?$AA@
  00080	68 00 00 00 00	 push	 OFFSET ??_C@_08BMFNADIG@info?1cds?$AA@
  00085	ff 15 00 00 00
	00		 call	 DWORD PTR __imp__fopen
  0008b	8b f0		 mov	 esi, eax
  0008d	59		 pop	 ecx
  0008e	59		 pop	 ecx

; 145  : 	if( pFile )

  0008f	85 f6		 test	 esi, esi
  00091	74 22		 je	 SHORT $LN1@WriteFile

; 146  : 	{
; 147  : 		fwrite( szEncrypt, iLength, 1, pFile );

  00093	56		 push	 esi
  00094	6a 01		 push	 1
  00096	8d 85 f8 fe ff
	ff		 lea	 eax, DWORD PTR _szEncrypt$[ebp]
  0009c	57		 push	 edi
  0009d	50		 push	 eax
  0009e	ff 15 00 00 00
	00		 call	 DWORD PTR __imp__fwrite

; 148  : 		fflush( pFile );

  000a4	56		 push	 esi
  000a5	ff 15 00 00 00
	00		 call	 DWORD PTR __imp__fflush

; 149  : 		fclose( pFile );

  000ab	56		 push	 esi
  000ac	ff 15 00 00 00
	00		 call	 DWORD PTR __imp__fclose
  000b2	83 c4 18	 add	 esp, 24			; 00000018H
$LN1@WriteFile:

; 150  : 	}
; 151  : }

  000b5	8b 4d fc	 mov	 ecx, DWORD PTR __$ArrayPad$[ebp]
  000b8	5f		 pop	 edi
  000b9	33 cd		 xor	 ecx, ebp
  000bb	5e		 pop	 esi
  000bc	e8 00 00 00 00	 call	 @__security_check_cookie@4
  000c1	c9		 leave
  000c2	c2 04 00	 ret	 4
?WriteFile@ioSelectShutDownAnnouncer@@QAEXPBD@Z ENDP	; ioSelectShutDownAnnouncer::WriteFile
_TEXT	ENDS
PUBLIC	?GetYear@ioSelectShutDownAnnouncer@@QAEHXZ	; ioSelectShutDownAnnouncer::GetYear
; Function compile flags: /Ogsp
;	COMDAT ?GetYear@ioSelectShutDownAnnouncer@@QAEHXZ
_TEXT	SEGMENT
?GetYear@ioSelectShutDownAnnouncer@@QAEHXZ PROC		; ioSelectShutDownAnnouncer::GetYear, COMDAT
; _this$ = ecx

; 229  : 	return m_iShutDownYear;

  00000	8b 41 14	 mov	 eax, DWORD PTR [ecx+20]

; 230  : }

  00003	c3		 ret	 0
?GetYear@ioSelectShutDownAnnouncer@@QAEHXZ ENDP		; ioSelectShutDownAnnouncer::GetYear
_TEXT	ENDS
PUBLIC	?GetMonth@ioSelectShutDownAnnouncer@@QAEHXZ	; ioSelectShutDownAnnouncer::GetMonth
; Function compile flags: /Ogsp
;	COMDAT ?GetMonth@ioSelectShutDownAnnouncer@@QAEHXZ
_TEXT	SEGMENT
?GetMonth@ioSelectShutDownAnnouncer@@QAEHXZ PROC	; ioSelectShutDownAnnouncer::GetMonth, COMDAT
; _this$ = ecx

; 234  : 	return m_iShutDownMonth;

  00000	8b 41 18	 mov	 eax, DWORD PTR [ecx+24]

; 235  : }

  00003	c3		 ret	 0
?GetMonth@ioSelectShutDownAnnouncer@@QAEHXZ ENDP	; ioSelectShutDownAnnouncer::GetMonth
_TEXT	ENDS
PUBLIC	?GetDay@ioSelectShutDownAnnouncer@@QAEHXZ	; ioSelectShutDownAnnouncer::GetDay
; Function compile flags: /Ogsp
;	COMDAT ?GetDay@ioSelectShutDownAnnouncer@@QAEHXZ
_TEXT	SEGMENT
?GetDay@ioSelectShutDownAnnouncer@@QAEHXZ PROC		; ioSelectShutDownAnnouncer::GetDay, COMDAT
; _this$ = ecx

; 239  : 	return m_iShutDownDay;

  00000	8b 41 1c	 mov	 eax, DWORD PTR [ecx+28]

; 240  : }

  00003	c3		 ret	 0
?GetDay@ioSelectShutDownAnnouncer@@QAEHXZ ENDP		; ioSelectShutDownAnnouncer::GetDay
_TEXT	ENDS
PUBLIC	?GetHour@ioSelectShutDownAnnouncer@@QAEHXZ	; ioSelectShutDownAnnouncer::GetHour
; Function compile flags: /Ogsp
;	COMDAT ?GetHour@ioSelectShutDownAnnouncer@@QAEHXZ
_TEXT	SEGMENT
?GetHour@ioSelectShutDownAnnouncer@@QAEHXZ PROC		; ioSelectShutDownAnnouncer::GetHour, COMDAT
; _this$ = ecx

; 244  : 	return m_iShutDownHour;

  00000	8b 41 20	 mov	 eax, DWORD PTR [ecx+32]

; 245  : }

  00003	c3		 ret	 0
?GetHour@ioSelectShutDownAnnouncer@@QAEHXZ ENDP		; ioSelectShutDownAnnouncer::GetHour
_TEXT	ENDS
PUBLIC	??_7bad_alloc@std@@6B@				; std::bad_alloc::`vftable'
PUBLIC	??0bad_alloc@std@@QAE@PBD@Z			; std::bad_alloc::bad_alloc
PUBLIC	??_R4bad_alloc@std@@6B@				; std::bad_alloc::`RTTI Complete Object Locator'
PUBLIC	??_R0?AVbad_alloc@std@@@8			; std::bad_alloc `RTTI Type Descriptor'
PUBLIC	??_R3bad_alloc@std@@8				; std::bad_alloc::`RTTI Class Hierarchy Descriptor'
PUBLIC	??_R2bad_alloc@std@@8				; std::bad_alloc::`RTTI Base Class Array'
PUBLIC	??_R1A@?0A@EA@bad_alloc@std@@8			; std::bad_alloc::`RTTI Base Class Descriptor at (0,-1,0,64)'
PUBLIC	??_R1A@?0A@EA@exception@std@@8			; std::exception::`RTTI Base Class Descriptor at (0,-1,0,64)'
PUBLIC	??_R0?AVexception@std@@@8			; std::exception `RTTI Type Descriptor'
PUBLIC	??_R3exception@std@@8				; std::exception::`RTTI Class Hierarchy Descriptor'
PUBLIC	??_R2exception@std@@8				; std::exception::`RTTI Base Class Array'
EXTRN	__imp_??0exception@std@@QAE@ABQBD@Z:PROC
EXTRN	??_7type_info@@6B@:QWORD			; type_info::`vftable'
EXTRN	??_Ebad_alloc@std@@UAEPAXI@Z:PROC		; std::bad_alloc::`vector deleting destructor'
EXTRN	?what@exception@std@@UBEPBDXZ:PROC		; std::exception::what
;	COMDAT ??_R2exception@std@@8
; File c:\program files (x86)\microsoft visual studio 10.0\vc\include\exception
rdata$r	SEGMENT
??_R2exception@std@@8 DD FLAT:??_R1A@?0A@EA@exception@std@@8 ; std::exception::`RTTI Base Class Array'
rdata$r	ENDS
;	COMDAT ??_R3exception@std@@8
rdata$r	SEGMENT
??_R3exception@std@@8 DD 00H				; std::exception::`RTTI Class Hierarchy Descriptor'
	DD	00H
	DD	01H
	DD	FLAT:??_R2exception@std@@8
rdata$r	ENDS
;	COMDAT ??_R0?AVexception@std@@@8
_DATA	SEGMENT
??_R0?AVexception@std@@@8 DD FLAT:??_7type_info@@6B@	; std::exception `RTTI Type Descriptor'
	DD	00H
	DB	'.?AVexception@std@@', 00H
_DATA	ENDS
;	COMDAT ??_R1A@?0A@EA@exception@std@@8
rdata$r	SEGMENT
??_R1A@?0A@EA@exception@std@@8 DD FLAT:??_R0?AVexception@std@@@8 ; std::exception::`RTTI Base Class Descriptor at (0,-1,0,64)'
	DD	00H
	DD	00H
	DD	0ffffffffH
	DD	00H
	DD	040H
	DD	FLAT:??_R3exception@std@@8
rdata$r	ENDS
;	COMDAT ??_R1A@?0A@EA@bad_alloc@std@@8
rdata$r	SEGMENT
??_R1A@?0A@EA@bad_alloc@std@@8 DD FLAT:??_R0?AVbad_alloc@std@@@8 ; std::bad_alloc::`RTTI Base Class Descriptor at (0,-1,0,64)'
	DD	01H
	DD	00H
	DD	0ffffffffH
	DD	00H
	DD	040H
	DD	FLAT:??_R3bad_alloc@std@@8
rdata$r	ENDS
;	COMDAT ??_R2bad_alloc@std@@8
rdata$r	SEGMENT
??_R2bad_alloc@std@@8 DD FLAT:??_R1A@?0A@EA@bad_alloc@std@@8 ; std::bad_alloc::`RTTI Base Class Array'
	DD	FLAT:??_R1A@?0A@EA@exception@std@@8
rdata$r	ENDS
;	COMDAT ??_R3bad_alloc@std@@8
rdata$r	SEGMENT
??_R3bad_alloc@std@@8 DD 00H				; std::bad_alloc::`RTTI Class Hierarchy Descriptor'
	DD	00H
	DD	02H
	DD	FLAT:??_R2bad_alloc@std@@8
rdata$r	ENDS
;	COMDAT ??_R0?AVbad_alloc@std@@@8
_DATA	SEGMENT
??_R0?AVbad_alloc@std@@@8 DD FLAT:??_7type_info@@6B@	; std::bad_alloc `RTTI Type Descriptor'
	DD	00H
	DB	'.?AVbad_alloc@std@@', 00H
_DATA	ENDS
;	COMDAT ??_R4bad_alloc@std@@6B@
rdata$r	SEGMENT
??_R4bad_alloc@std@@6B@ DD 00H				; std::bad_alloc::`RTTI Complete Object Locator'
	DD	00H
	DD	00H
	DD	FLAT:??_R0?AVbad_alloc@std@@@8
	DD	FLAT:??_R3bad_alloc@std@@8
rdata$r	ENDS
;	COMDAT ??_7bad_alloc@std@@6B@
CONST	SEGMENT
??_7bad_alloc@std@@6B@ DD FLAT:??_R4bad_alloc@std@@6B@	; std::bad_alloc::`vftable'
	DD	FLAT:??_Ebad_alloc@std@@UAEPAXI@Z
	DD	FLAT:?what@exception@std@@UBEPBDXZ
; Function compile flags: /Ogsp
CONST	ENDS
;	COMDAT ??0bad_alloc@std@@QAE@PBD@Z
_TEXT	SEGMENT
__Message$ = 8						; size = 4
??0bad_alloc@std@@QAE@PBD@Z PROC			; std::bad_alloc::bad_alloc, COMDAT
; _this$ = ecx

; 345  : 		{	// construct from message string

  00000	55		 push	 ebp
  00001	8b ec		 mov	 ebp, esp
  00003	56		 push	 esi
  00004	8d 45 08	 lea	 eax, DWORD PTR __Message$[ebp]
  00007	50		 push	 eax
  00008	8b f1		 mov	 esi, ecx
  0000a	ff 15 00 00 00
	00		 call	 DWORD PTR __imp_??0exception@std@@QAE@ABQBD@Z
  00010	c7 06 00 00 00
	00		 mov	 DWORD PTR [esi], OFFSET ??_7bad_alloc@std@@6B@

; 346  : 		}

  00016	8b c6		 mov	 eax, esi
  00018	5e		 pop	 esi
  00019	5d		 pop	 ebp
  0001a	c2 04 00	 ret	 4
??0bad_alloc@std@@QAE@PBD@Z ENDP			; std::bad_alloc::bad_alloc
_TEXT	ENDS
PUBLIC	??1bad_alloc@std@@UAE@XZ			; std::bad_alloc::~bad_alloc
EXTRN	__imp_??1exception@std@@UAE@XZ:PROC
; Function compile flags: /Ogsp
;	COMDAT ??1bad_alloc@std@@UAE@XZ
_TEXT	SEGMENT
??1bad_alloc@std@@UAE@XZ PROC				; std::bad_alloc::~bad_alloc, COMDAT
; _this$ = ecx

; 354  : 		{	// destroy the object

  00000	c7 01 00 00 00
	00		 mov	 DWORD PTR [ecx], OFFSET ??_7bad_alloc@std@@6B@

; 355  : 		}

  00006	ff 25 00 00 00
	00		 jmp	 DWORD PTR __imp_??1exception@std@@UAE@XZ
??1bad_alloc@std@@UAE@XZ ENDP				; std::bad_alloc::~bad_alloc
_TEXT	ENDS
EXTRN	??3@YAXPAX@Z:PROC				; operator delete
; Function compile flags: /Ogsp
;	COMDAT ??_Gbad_alloc@std@@UAEPAXI@Z
_TEXT	SEGMENT
___flags$ = 8						; size = 4
??_Gbad_alloc@std@@UAEPAXI@Z PROC			; std::bad_alloc::`scalar deleting destructor', COMDAT
; _this$ = ecx
  00000	55		 push	 ebp
  00001	8b ec		 mov	 ebp, esp
  00003	56		 push	 esi
  00004	8b f1		 mov	 esi, ecx
  00006	c7 06 00 00 00
	00		 mov	 DWORD PTR [esi], OFFSET ??_7bad_alloc@std@@6B@
  0000c	ff 15 00 00 00
	00		 call	 DWORD PTR __imp_??1exception@std@@UAE@XZ
  00012	f6 45 08 01	 test	 BYTE PTR ___flags$[ebp], 1
  00016	74 07		 je	 SHORT $LN1@scalar
  00018	56		 push	 esi
  00019	e8 00 00 00 00	 call	 ??3@YAXPAX@Z		; operator delete
  0001e	59		 pop	 ecx
$LN1@scalar:
  0001f	8b c6		 mov	 eax, esi
  00021	5e		 pop	 esi
  00022	5d		 pop	 ebp
  00023	c2 04 00	 ret	 4
??_Gbad_alloc@std@@UAEPAXI@Z ENDP			; std::bad_alloc::`scalar deleting destructor'
_TEXT	ENDS
PUBLIC	??R?$less@K@std@@QBE_NABK0@Z			; std::less<unsigned long>::operator()
; Function compile flags: /Ogsp
; File c:\program files (x86)\microsoft visual studio 10.0\vc\include\xfunctional
;	COMDAT ??R?$less@K@std@@QBE_NABK0@Z
_TEXT	SEGMENT
__Left$ = 8						; size = 4
__Right$ = 12						; size = 4
??R?$less@K@std@@QBE_NABK0@Z PROC			; std::less<unsigned long>::operator(), COMDAT
; _this$ = ecx

; 124  : 		{	// apply operator< to operands

  00000	55		 push	 ebp
  00001	8b ec		 mov	 ebp, esp

; 125  : 		return (_Left < _Right);

  00003	8b 45 08	 mov	 eax, DWORD PTR __Left$[ebp]
  00006	8b 00		 mov	 eax, DWORD PTR [eax]
  00008	8b 4d 0c	 mov	 ecx, DWORD PTR __Right$[ebp]
  0000b	3b 01		 cmp	 eax, DWORD PTR [ecx]
  0000d	1b c0		 sbb	 eax, eax
  0000f	f7 d8		 neg	 eax

; 126  : 		}

  00011	5d		 pop	 ebp
  00012	c2 08 00	 ret	 8
??R?$less@K@std@@QBE_NABK0@Z ENDP			; std::less<unsigned long>::operator()
_TEXT	ENDS
PUBLIC	??0?$allocator@U?$pair@$$CBKVioHashString@@@std@@@std@@QAE@XZ ; std::allocator<std::pair<unsigned long const ,ioHashString> >::allocator<std::pair<unsigned long const ,ioHashString> >
; Function compile flags: /Ogsp
; File c:\program files (x86)\microsoft visual studio 10.0\vc\include\xmemory
;	COMDAT ??0?$allocator@U?$pair@$$CBKVioHashString@@@std@@@std@@QAE@XZ
_TEXT	SEGMENT
??0?$allocator@U?$pair@$$CBKVioHashString@@@std@@@std@@QAE@XZ PROC ; std::allocator<std::pair<unsigned long const ,ioHashString> >::allocator<std::pair<unsigned long const ,ioHashString> >, COMDAT
; _this$ = ecx

; 161  : 	_ALLOCATOR() _THROW0()

  00000	8b c1		 mov	 eax, ecx

; 162  : 		{	// construct default allocator (do nothing)
; 163  : 		}

  00002	c3		 ret	 0
??0?$allocator@U?$pair@$$CBKVioHashString@@@std@@@std@@QAE@XZ ENDP ; std::allocator<std::pair<unsigned long const ,ioHashString> >::allocator<std::pair<unsigned long const ,ioHashString> >
_TEXT	ENDS
PUBLIC	??2@YAPAXIPAX@Z					; operator new
; Function compile flags: /Ogsp
; File c:\program files (x86)\microsoft visual studio 10.0\vc\include\new
;	COMDAT ??2@YAPAXIPAX@Z
_TEXT	SEGMENT
___formal$ = 8						; size = 4
__Where$ = 12						; size = 4
??2@YAPAXIPAX@Z PROC					; operator new, COMDAT

; 56   : 	{	// construct array with placement at _Where

  00000	55		 push	 ebp
  00001	8b ec		 mov	 ebp, esp

; 57   : 	return (_Where);

  00003	8b 45 0c	 mov	 eax, DWORD PTR __Where$[ebp]

; 58   : 	}

  00006	5d		 pop	 ebp
  00007	c3		 ret	 0
??2@YAPAXIPAX@Z ENDP					; operator new
_TEXT	ENDS
PUBLIC	??3@YAXPAX0@Z					; operator delete
; Function compile flags: /Ogsp
;	COMDAT ??3@YAXPAX0@Z
_TEXT	SEGMENT
___formal$ = 8						; size = 4
___formal$ = 12						; size = 4
??3@YAXPAX0@Z PROC					; operator delete, COMDAT

; 62   : 	}

  00000	c3		 ret	 0
??3@YAXPAX0@Z ENDP					; operator delete
_TEXT	ENDS
PUBLIC	??8?$_Tree_const_iterator@V?$_Tree_val@V?$_Tmap_traits@KVioHashString@@U?$less@K@std@@V?$allocator@U?$pair@$$CBKVioHashString@@@std@@@3@$0A@@std@@@std@@@std@@QBE_NABV01@@Z ; std::_Tree_const_iterator<std::_Tree_val<std::_Tmap_traits<unsigned long,ioHashString,std::less<unsigned long>,std::allocator<std::pair<unsigned long const ,ioHashString> >,0> > >::operator==
; Function compile flags: /Ogsp
; File c:\program files (x86)\microsoft visual studio 10.0\vc\include\xtree
;	COMDAT ??8?$_Tree_const_iterator@V?$_Tree_val@V?$_Tmap_traits@KVioHashString@@U?$less@K@std@@V?$allocator@U?$pair@$$CBKVioHashString@@@std@@@3@$0A@@std@@@std@@@std@@QBE_NABV01@@Z
_TEXT	SEGMENT
__Right$ = 8						; size = 4
??8?$_Tree_const_iterator@V?$_Tree_val@V?$_Tmap_traits@KVioHashString@@U?$less@K@std@@V?$allocator@U?$pair@$$CBKVioHashString@@@std@@@3@$0A@@std@@@std@@@std@@QBE_NABV01@@Z PROC ; std::_Tree_const_iterator<std::_Tree_val<std::_Tmap_traits<unsigned long,ioHashString,std::less<unsigned long>,std::allocator<std::pair<unsigned long const ,ioHashString> >,0> > >::operator==, COMDAT
; _this$ = ecx

; 316  : 		{	// test for iterator equality

  00000	55		 push	 ebp
  00001	8b ec		 mov	 ebp, esp

; 317  :  #if _ITERATOR_DEBUG_LEVEL == 2
; 318  : 		if (this->_Getcont() == 0
; 319  : 			|| this->_Getcont() != _Right._Getcont())
; 320  : 			{	// report error
; 321  : 			_DEBUG_ERROR("map/set iterators incompatible");
; 322  : 			_SCL_SECURE_INVALID_ARGUMENT;
; 323  : 			}
; 324  : 
; 325  :  #elif _ITERATOR_DEBUG_LEVEL == 1
; 326  : 		_SCL_SECURE_VALIDATE(this->_Getcont() != 0
; 327  : 			&& this->_Getcont() == _Right._Getcont());
; 328  :  #endif /* _ITERATOR_DEBUG_LEVEL */
; 329  : 
; 330  : 		return (this->_Ptr == _Right._Ptr);

  00003	8b 01		 mov	 eax, DWORD PTR [ecx]
  00005	8b 4d 08	 mov	 ecx, DWORD PTR __Right$[ebp]
  00008	2b 01		 sub	 eax, DWORD PTR [ecx]
  0000a	f7 d8		 neg	 eax
  0000c	1b c0		 sbb	 eax, eax
  0000e	40		 inc	 eax

; 331  : 		}

  0000f	5d		 pop	 ebp
  00010	c2 04 00	 ret	 4
??8?$_Tree_const_iterator@V?$_Tree_val@V?$_Tmap_traits@KVioHashString@@U?$less@K@std@@V?$allocator@U?$pair@$$CBKVioHashString@@@std@@@3@$0A@@std@@@std@@@std@@QBE_NABV01@@Z ENDP ; std::_Tree_const_iterator<std::_Tree_val<std::_Tmap_traits<unsigned long,ioHashString,std::less<unsigned long>,std::allocator<std::pair<unsigned long const ,ioHashString> >,0> > >::operator==
_TEXT	ENDS
PUBLIC	?_Mynode@?$_Tree_unchecked_const_iterator@V?$_Tree_val@V?$_Tmap_traits@KVioHashString@@U?$less@K@std@@V?$allocator@U?$pair@$$CBKVioHashString@@@std@@@3@$0A@@std@@@std@@U_Iterator_base0@2@@std@@QBEPAU_Node@?$_Tree_nod@V?$_Tmap_traits@KVioHashString@@U?$less@K@std@@V?$allocator@U?$pair@$$CBKVioHashString@@@std@@@3@$0A@@std@@@2@XZ ; std::_Tree_unchecked_const_iterator<std::_Tree_val<std::_Tmap_traits<unsigned long,ioHashString,std::less<unsigned long>,std::allocator<std::pair<unsigned long const ,ioHashString> >,0> >,std::_Iterator_base0>::_Mynode
; Function compile flags: /Ogsp
;	COMDAT ?_Mynode@?$_Tree_unchecked_const_iterator@V?$_Tree_val@V?$_Tmap_traits@KVioHashString@@U?$less@K@std@@V?$allocator@U?$pair@$$CBKVioHashString@@@std@@@3@$0A@@std@@@std@@U_Iterator_base0@2@@std@@QBEPAU_Node@?$_Tree_nod@V?$_Tmap_traits@KVioHashString@@U?$less@K@std@@V?$allocator@U?$pair@$$CBKVioHashString@@@std@@@3@$0A@@std@@@2@XZ
_TEXT	SEGMENT
?_Mynode@?$_Tree_unchecked_const_iterator@V?$_Tree_val@V?$_Tmap_traits@KVioHashString@@U?$less@K@std@@V?$allocator@U?$pair@$$CBKVioHashString@@@std@@@3@$0A@@std@@@std@@U_Iterator_base0@2@@std@@QBEPAU_Node@?$_Tree_nod@V?$_Tmap_traits@KVioHashString@@U?$less@K@std@@V?$allocator@U?$pair@$$CBKVioHashString@@@std@@@3@$0A@@std@@@2@XZ PROC ; std::_Tree_unchecked_const_iterator<std::_Tree_val<std::_Tmap_traits<unsigned long,ioHashString,std::less<unsigned long>,std::allocator<std::pair<unsigned long const ,ioHashString> >,0> >,std::_Iterator_base0>::_Mynode, COMDAT
; _this$ = ecx

; 122  : 		return (_Ptr);

  00000	8b 01		 mov	 eax, DWORD PTR [ecx]

; 123  : 		}

  00002	c3		 ret	 0
?_Mynode@?$_Tree_unchecked_const_iterator@V?$_Tree_val@V?$_Tmap_traits@KVioHashString@@U?$less@K@std@@V?$allocator@U?$pair@$$CBKVioHashString@@@std@@@3@$0A@@std@@@std@@U_Iterator_base0@2@@std@@QBEPAU_Node@?$_Tree_nod@V?$_Tmap_traits@KVioHashString@@U?$less@K@std@@V?$allocator@U?$pair@$$CBKVioHashString@@@std@@@3@$0A@@std@@@2@XZ ENDP ; std::_Tree_unchecked_const_iterator<std::_Tree_val<std::_Tmap_traits<unsigned long,ioHashString,std::less<unsigned long>,std::allocator<std::pair<unsigned long const ,ioHashString> >,0> >,std::_Iterator_base0>::_Mynode
_TEXT	ENDS
PUBLIC	?_Isnil@?$_Tree_val@V?$_Tmap_traits@KVioHashString@@U?$less@K@std@@V?$allocator@U?$pair@$$CBKVioHashString@@@std@@@3@$0A@@std@@@std@@SAAADPAU_Node@?$_Tree_nod@V?$_Tmap_traits@KVioHashString@@U?$less@K@std@@V?$allocator@U?$pair@$$CBKVioHashString@@@std@@@3@$0A@@std@@@2@@Z ; std::_Tree_val<std::_Tmap_traits<unsigned long,ioHashString,std::less<unsigned long>,std::allocator<std::pair<unsigned long const ,ioHashString> >,0> >::_Isnil
; Function compile flags: /Ogsp
;	COMDAT ?_Isnil@?$_Tree_val@V?$_Tmap_traits@KVioHashString@@U?$less@K@std@@V?$allocator@U?$pair@$$CBKVioHashString@@@std@@@3@$0A@@std@@@std@@SAAADPAU_Node@?$_Tree_nod@V?$_Tmap_traits@KVioHashString@@U?$less@K@std@@V?$allocator@U?$pair@$$CBKVioHashString@@@std@@@3@$0A@@std@@@2@@Z
_TEXT	SEGMENT
__Pnode$ = 8						; size = 4
?_Isnil@?$_Tree_val@V?$_Tmap_traits@KVioHashString@@U?$less@K@std@@V?$allocator@U?$pair@$$CBKVioHashString@@@std@@@3@$0A@@std@@@std@@SAAADPAU_Node@?$_Tree_nod@V?$_Tmap_traits@KVioHashString@@U?$less@K@std@@V?$allocator@U?$pair@$$CBKVioHashString@@@std@@@3@$0A@@std@@@2@@Z PROC ; std::_Tree_val<std::_Tmap_traits<unsigned long,ioHashString,std::less<unsigned long>,std::allocator<std::pair<unsigned long const ,ioHashString> >,0> >::_Isnil, COMDAT

; 611  : 		{	// return reference to nil flag in node

  00000	55		 push	 ebp
  00001	8b ec		 mov	 ebp, esp

; 612  : 		return ((char&)(*_Pnode)._Isnil);

  00003	8b 45 08	 mov	 eax, DWORD PTR __Pnode$[ebp]
  00006	83 c0 21	 add	 eax, 33			; 00000021H

; 613  : 		}

  00009	5d		 pop	 ebp
  0000a	c3		 ret	 0
?_Isnil@?$_Tree_val@V?$_Tmap_traits@KVioHashString@@U?$less@K@std@@V?$allocator@U?$pair@$$CBKVioHashString@@@std@@@3@$0A@@std@@@std@@SAAADPAU_Node@?$_Tree_nod@V?$_Tmap_traits@KVioHashString@@U?$less@K@std@@V?$allocator@U?$pair@$$CBKVioHashString@@@std@@@3@$0A@@std@@@2@@Z ENDP ; std::_Tree_val<std::_Tmap_traits<unsigned long,ioHashString,std::less<unsigned long>,std::allocator<std::pair<unsigned long const ,ioHashString> >,0> >::_Isnil
_TEXT	ENDS
PUBLIC	?_Left@?$_Tree_val@V?$_Tmap_traits@KVioHashString@@U?$less@K@std@@V?$allocator@U?$pair@$$CBKVioHashString@@@std@@@3@$0A@@std@@@std@@SAAAPAU_Node@?$_Tree_nod@V?$_Tmap_traits@KVioHashString@@U?$less@K@std@@V?$allocator@U?$pair@$$CBKVioHashString@@@std@@@3@$0A@@std@@@2@PAU342@@Z ; std::_Tree_val<std::_Tmap_traits<unsigned long,ioHashString,std::less<unsigned long>,std::allocator<std::pair<unsigned long const ,ioHashString> >,0> >::_Left
; Function compile flags: /Ogsp
;	COMDAT ?_Left@?$_Tree_val@V?$_Tmap_traits@KVioHashString@@U?$less@K@std@@V?$allocator@U?$pair@$$CBKVioHashString@@@std@@@3@$0A@@std@@@std@@SAAAPAU_Node@?$_Tree_nod@V?$_Tmap_traits@KVioHashString@@U?$less@K@std@@V?$allocator@U?$pair@$$CBKVioHashString@@@std@@@3@$0A@@std@@@2@PAU342@@Z
_TEXT	SEGMENT
__Pnode$ = 8						; size = 4
?_Left@?$_Tree_val@V?$_Tmap_traits@KVioHashString@@U?$less@K@std@@V?$allocator@U?$pair@$$CBKVioHashString@@@std@@@3@$0A@@std@@@std@@SAAAPAU_Node@?$_Tree_nod@V?$_Tmap_traits@KVioHashString@@U?$less@K@std@@V?$allocator@U?$pair@$$CBKVioHashString@@@std@@@3@$0A@@std@@@2@PAU342@@Z PROC ; std::_Tree_val<std::_Tmap_traits<unsigned long,ioHashString,std::less<unsigned long>,std::allocator<std::pair<unsigned long const ,ioHashString> >,0> >::_Left, COMDAT

; 621  : 		{	// return reference to left pointer in node

  00000	55		 push	 ebp
  00001	8b ec		 mov	 ebp, esp

; 622  : 		return ((_Nodepref)(*_Pnode)._Left);

  00003	8b 45 08	 mov	 eax, DWORD PTR __Pnode$[ebp]

; 623  : 		}

  00006	5d		 pop	 ebp
  00007	c3		 ret	 0
?_Left@?$_Tree_val@V?$_Tmap_traits@KVioHashString@@U?$less@K@std@@V?$allocator@U?$pair@$$CBKVioHashString@@@std@@@3@$0A@@std@@@std@@SAAAPAU_Node@?$_Tree_nod@V?$_Tmap_traits@KVioHashString@@U?$less@K@std@@V?$allocator@U?$pair@$$CBKVioHashString@@@std@@@3@$0A@@std@@@2@PAU342@@Z ENDP ; std::_Tree_val<std::_Tmap_traits<unsigned long,ioHashString,std::less<unsigned long>,std::allocator<std::pair<unsigned long const ,ioHashString> >,0> >::_Left
_TEXT	ENDS
PUBLIC	?_Parent@?$_Tree_val@V?$_Tmap_traits@KVioHashString@@U?$less@K@std@@V?$allocator@U?$pair@$$CBKVioHashString@@@std@@@3@$0A@@std@@@std@@SAAAPAU_Node@?$_Tree_nod@V?$_Tmap_traits@KVioHashString@@U?$less@K@std@@V?$allocator@U?$pair@$$CBKVioHashString@@@std@@@3@$0A@@std@@@2@PAU342@@Z ; std::_Tree_val<std::_Tmap_traits<unsigned long,ioHashString,std::less<unsigned long>,std::allocator<std::pair<unsigned long const ,ioHashString> >,0> >::_Parent
; Function compile flags: /Ogsp
;	COMDAT ?_Parent@?$_Tree_val@V?$_Tmap_traits@KVioHashString@@U?$less@K@std@@V?$allocator@U?$pair@$$CBKVioHashString@@@std@@@3@$0A@@std@@@std@@SAAAPAU_Node@?$_Tree_nod@V?$_Tmap_traits@KVioHashString@@U?$less@K@std@@V?$allocator@U?$pair@$$CBKVioHashString@@@std@@@3@$0A@@std@@@2@PAU342@@Z
_TEXT	SEGMENT
__Pnode$ = 8						; size = 4
?_Parent@?$_Tree_val@V?$_Tmap_traits@KVioHashString@@U?$less@K@std@@V?$allocator@U?$pair@$$CBKVioHashString@@@std@@@3@$0A@@std@@@std@@SAAAPAU_Node@?$_Tree_nod@V?$_Tmap_traits@KVioHashString@@U?$less@K@std@@V?$allocator@U?$pair@$$CBKVioHashString@@@std@@@3@$0A@@std@@@2@PAU342@@Z PROC ; std::_Tree_val<std::_Tmap_traits<unsigned long,ioHashString,std::less<unsigned long>,std::allocator<std::pair<unsigned long const ,ioHashString> >,0> >::_Parent, COMDAT

; 626  : 		{	// return reference to parent pointer in node

  00000	55		 push	 ebp
  00001	8b ec		 mov	 ebp, esp

; 627  : 		return ((_Nodepref)(*_Pnode)._Parent);

  00003	8b 45 08	 mov	 eax, DWORD PTR __Pnode$[ebp]
  00006	83 c0 04	 add	 eax, 4

; 628  : 		}

  00009	5d		 pop	 ebp
  0000a	c3		 ret	 0
?_Parent@?$_Tree_val@V?$_Tmap_traits@KVioHashString@@U?$less@K@std@@V?$allocator@U?$pair@$$CBKVioHashString@@@std@@@3@$0A@@std@@@std@@SAAAPAU_Node@?$_Tree_nod@V?$_Tmap_traits@KVioHashString@@U?$less@K@std@@V?$allocator@U?$pair@$$CBKVioHashString@@@std@@@3@$0A@@std@@@2@PAU342@@Z ENDP ; std::_Tree_val<std::_Tmap_traits<unsigned long,ioHashString,std::less<unsigned long>,std::allocator<std::pair<unsigned long const ,ioHashString> >,0> >::_Parent
_TEXT	ENDS
PUBLIC	?_Right@?$_Tree_val@V?$_Tmap_traits@KVioHashString@@U?$less@K@std@@V?$allocator@U?$pair@$$CBKVioHashString@@@std@@@3@$0A@@std@@@std@@SAAAPAU_Node@?$_Tree_nod@V?$_Tmap_traits@KVioHashString@@U?$less@K@std@@V?$allocator@U?$pair@$$CBKVioHashString@@@std@@@3@$0A@@std@@@2@PAU342@@Z ; std::_Tree_val<std::_Tmap_traits<unsigned long,ioHashString,std::less<unsigned long>,std::allocator<std::pair<unsigned long const ,ioHashString> >,0> >::_Right
; Function compile flags: /Ogsp
;	COMDAT ?_Right@?$_Tree_val@V?$_Tmap_traits@KVioHashString@@U?$less@K@std@@V?$allocator@U?$pair@$$CBKVioHashString@@@std@@@3@$0A@@std@@@std@@SAAAPAU_Node@?$_Tree_nod@V?$_Tmap_traits@KVioHashString@@U?$less@K@std@@V?$allocator@U?$pair@$$CBKVioHashString@@@std@@@3@$0A@@std@@@2@PAU342@@Z
_TEXT	SEGMENT
__Pnode$ = 8						; size = 4
?_Right@?$_Tree_val@V?$_Tmap_traits@KVioHashString@@U?$less@K@std@@V?$allocator@U?$pair@$$CBKVioHashString@@@std@@@3@$0A@@std@@@std@@SAAAPAU_Node@?$_Tree_nod@V?$_Tmap_traits@KVioHashString@@U?$less@K@std@@V?$allocator@U?$pair@$$CBKVioHashString@@@std@@@3@$0A@@std@@@2@PAU342@@Z PROC ; std::_Tree_val<std::_Tmap_traits<unsigned long,ioHashString,std::less<unsigned long>,std::allocator<std::pair<unsigned long const ,ioHashString> >,0> >::_Right, COMDAT

; 631  : 		{	// return reference to right pointer in node

  00000	55		 push	 ebp
  00001	8b ec		 mov	 ebp, esp

; 632  : 		return ((_Nodepref)(*_Pnode)._Right);

  00003	8b 45 08	 mov	 eax, DWORD PTR __Pnode$[ebp]
  00006	83 c0 08	 add	 eax, 8

; 633  : 		}

  00009	5d		 pop	 ebp
  0000a	c3		 ret	 0
?_Right@?$_Tree_val@V?$_Tmap_traits@KVioHashString@@U?$less@K@std@@V?$allocator@U?$pair@$$CBKVioHashString@@@std@@@3@$0A@@std@@@std@@SAAAPAU_Node@?$_Tree_nod@V?$_Tmap_traits@KVioHashString@@U?$less@K@std@@V?$allocator@U?$pair@$$CBKVioHashString@@@std@@@3@$0A@@std@@@2@PAU342@@Z ENDP ; std::_Tree_val<std::_Tmap_traits<unsigned long,ioHashString,std::less<unsigned long>,std::allocator<std::pair<unsigned long const ,ioHashString> >,0> >::_Right
_TEXT	ENDS
PUBLIC	?_Myval@?$_Tree_val@V?$_Tmap_traits@KVioHashString@@U?$less@K@std@@V?$allocator@U?$pair@$$CBKVioHashString@@@std@@@3@$0A@@std@@@std@@SAAAU?$pair@$$CBKVioHashString@@@2@PAU_Node@?$_Tree_nod@V?$_Tmap_traits@KVioHashString@@U?$less@K@std@@V?$allocator@U?$pair@$$CBKVioHashString@@@std@@@3@$0A@@std@@@2@@Z ; std::_Tree_val<std::_Tmap_traits<unsigned long,ioHashString,std::less<unsigned long>,std::allocator<std::pair<unsigned long const ,ioHashString> >,0> >::_Myval
; Function compile flags: /Ogsp
;	COMDAT ?_Myval@?$_Tree_val@V?$_Tmap_traits@KVioHashString@@U?$less@K@std@@V?$allocator@U?$pair@$$CBKVioHashString@@@std@@@3@$0A@@std@@@std@@SAAAU?$pair@$$CBKVioHashString@@@2@PAU_Node@?$_Tree_nod@V?$_Tmap_traits@KVioHashString@@U?$less@K@std@@V?$allocator@U?$pair@$$CBKVioHashString@@@std@@@3@$0A@@std@@@2@@Z
_TEXT	SEGMENT
__Pnode$ = 8						; size = 4
?_Myval@?$_Tree_val@V?$_Tmap_traits@KVioHashString@@U?$less@K@std@@V?$allocator@U?$pair@$$CBKVioHashString@@@std@@@3@$0A@@std@@@std@@SAAAU?$pair@$$CBKVioHashString@@@2@PAU_Node@?$_Tree_nod@V?$_Tmap_traits@KVioHashString@@U?$less@K@std@@V?$allocator@U?$pair@$$CBKVioHashString@@@std@@@3@$0A@@std@@@2@@Z PROC ; std::_Tree_val<std::_Tmap_traits<unsigned long,ioHashString,std::less<unsigned long>,std::allocator<std::pair<unsigned long const ,ioHashString> >,0> >::_Myval, COMDAT

; 636  : 		{	// return reference to value in node

  00000	55		 push	 ebp
  00001	8b ec		 mov	 ebp, esp

; 637  : 		return ((reference)(*_Pnode)._Myval);

  00003	8b 45 08	 mov	 eax, DWORD PTR __Pnode$[ebp]
  00006	83 c0 0c	 add	 eax, 12			; 0000000cH

; 638  : 		}

  00009	5d		 pop	 ebp
  0000a	c3		 ret	 0
?_Myval@?$_Tree_val@V?$_Tmap_traits@KVioHashString@@U?$less@K@std@@V?$allocator@U?$pair@$$CBKVioHashString@@@std@@@3@$0A@@std@@@std@@SAAAU?$pair@$$CBKVioHashString@@@2@PAU_Node@?$_Tree_nod@V?$_Tmap_traits@KVioHashString@@U?$less@K@std@@V?$allocator@U?$pair@$$CBKVioHashString@@@std@@@3@$0A@@std@@@2@@Z ENDP ; std::_Tree_val<std::_Tmap_traits<unsigned long,ioHashString,std::less<unsigned long>,std::allocator<std::pair<unsigned long const ,ioHashString> >,0> >::_Myval
_TEXT	ENDS
PUBLIC	??0?$allocator@U?$pair@$$CBKVioHashString@@@std@@@std@@QAE@ABV01@@Z ; std::allocator<std::pair<unsigned long const ,ioHashString> >::allocator<std::pair<unsigned long const ,ioHashString> >
; Function compile flags: /Ogsp
; File c:\program files (x86)\microsoft visual studio 10.0\vc\include\xmemory
;	COMDAT ??0?$allocator@U?$pair@$$CBKVioHashString@@@std@@@std@@QAE@ABV01@@Z
_TEXT	SEGMENT
___formal$ = 8						; size = 4
??0?$allocator@U?$pair@$$CBKVioHashString@@@std@@@std@@QAE@ABV01@@Z PROC ; std::allocator<std::pair<unsigned long const ,ioHashString> >::allocator<std::pair<unsigned long const ,ioHashString> >, COMDAT
; _this$ = ecx

; 165  : 	_ALLOCATOR(const _ALLOCATOR<_Ty>&) _THROW0()

  00000	8b c1		 mov	 eax, ecx

; 166  : 		{	// construct by copying (do nothing)
; 167  : 		}

  00002	c2 04 00	 ret	 4
??0?$allocator@U?$pair@$$CBKVioHashString@@@std@@@std@@QAE@ABV01@@Z ENDP ; std::allocator<std::pair<unsigned long const ,ioHashString> >::allocator<std::pair<unsigned long const ,ioHashString> >
_TEXT	ENDS
PUBLIC	?deallocate@?$allocator@U_Node@?$_Tree_nod@V?$_Tmap_traits@KVioHashString@@U?$less@K@std@@V?$allocator@U?$pair@$$CBKVioHashString@@@std@@@3@$0A@@std@@@std@@@std@@QAEXPAU_Node@?$_Tree_nod@V?$_Tmap_traits@KVioHashString@@U?$less@K@std@@V?$allocator@U?$pair@$$CBKVioHashString@@@std@@@3@$0A@@std@@@2@I@Z ; std::allocator<std::_Tree_nod<std::_Tmap_traits<unsigned long,ioHashString,std::less<unsigned long>,std::allocator<std::pair<unsigned long const ,ioHashString> >,0> >::_Node>::deallocate
; Function compile flags: /Ogsp
;	COMDAT ?deallocate@?$allocator@U_Node@?$_Tree_nod@V?$_Tmap_traits@KVioHashString@@U?$less@K@std@@V?$allocator@U?$pair@$$CBKVioHashString@@@std@@@3@$0A@@std@@@std@@@std@@QAEXPAU_Node@?$_Tree_nod@V?$_Tmap_traits@KVioHashString@@U?$less@K@std@@V?$allocator@U?$pair@$$CBKVioHashString@@@std@@@3@$0A@@std@@@2@I@Z
_TEXT	SEGMENT
__Ptr$ = 8						; size = 4
___formal$ = 12						; size = 4
?deallocate@?$allocator@U_Node@?$_Tree_nod@V?$_Tmap_traits@KVioHashString@@U?$less@K@std@@V?$allocator@U?$pair@$$CBKVioHashString@@@std@@@3@$0A@@std@@@std@@@std@@QAEXPAU_Node@?$_Tree_nod@V?$_Tmap_traits@KVioHashString@@U?$less@K@std@@V?$allocator@U?$pair@$$CBKVioHashString@@@std@@@3@$0A@@std@@@2@I@Z PROC ; std::allocator<std::_Tree_nod<std::_Tmap_traits<unsigned long,ioHashString,std::less<unsigned long>,std::allocator<std::pair<unsigned long const ,ioHashString> >,0> >::_Node>::deallocate, COMDAT
; _this$ = ecx

; 181  : 		{	// deallocate object at _Ptr, ignore size

  00000	55		 push	 ebp
  00001	8b ec		 mov	 ebp, esp

; 182  : 		::operator delete(_Ptr);

  00003	ff 75 08	 push	 DWORD PTR __Ptr$[ebp]
  00006	e8 00 00 00 00	 call	 ??3@YAXPAX@Z		; operator delete
  0000b	59		 pop	 ecx

; 183  : 		}

  0000c	5d		 pop	 ebp
  0000d	c2 08 00	 ret	 8
?deallocate@?$allocator@U_Node@?$_Tree_nod@V?$_Tmap_traits@KVioHashString@@U?$less@K@std@@V?$allocator@U?$pair@$$CBKVioHashString@@@std@@@3@$0A@@std@@@std@@@std@@QAEXPAU_Node@?$_Tree_nod@V?$_Tmap_traits@KVioHashString@@U?$less@K@std@@V?$allocator@U?$pair@$$CBKVioHashString@@@std@@@3@$0A@@std@@@2@I@Z ENDP ; std::allocator<std::_Tree_nod<std::_Tmap_traits<unsigned long,ioHashString,std::less<unsigned long>,std::allocator<std::pair<unsigned long const ,ioHashString> >,0> >::_Node>::deallocate
_TEXT	ENDS
PUBLIC	??D?$_Tree_const_iterator@V?$_Tree_val@V?$_Tmap_traits@KVioHashString@@U?$less@K@std@@V?$allocator@U?$pair@$$CBKVioHashString@@@std@@@3@$0A@@std@@@std@@@std@@QBEABU?$pair@$$CBKVioHashString@@@1@XZ ; std::_Tree_const_iterator<std::_Tree_val<std::_Tmap_traits<unsigned long,ioHashString,std::less<unsigned long>,std::allocator<std::pair<unsigned long const ,ioHashString> >,0> > >::operator*
; Function compile flags: /Ogsp
; File c:\program files (x86)\microsoft visual studio 10.0\vc\include\xtree
;	COMDAT ??D?$_Tree_const_iterator@V?$_Tree_val@V?$_Tmap_traits@KVioHashString@@U?$less@K@std@@V?$allocator@U?$pair@$$CBKVioHashString@@@std@@@3@$0A@@std@@@std@@@std@@QBEABU?$pair@$$CBKVioHashString@@@1@XZ
_TEXT	SEGMENT
??D?$_Tree_const_iterator@V?$_Tree_val@V?$_Tmap_traits@KVioHashString@@U?$less@K@std@@V?$allocator@U?$pair@$$CBKVioHashString@@@std@@@3@$0A@@std@@@std@@@std@@QBEABU?$pair@$$CBKVioHashString@@@1@XZ PROC ; std::_Tree_const_iterator<std::_Tree_val<std::_Tmap_traits<unsigned long,ioHashString,std::less<unsigned long>,std::allocator<std::pair<unsigned long const ,ioHashString> >,0> > >::operator*, COMDAT
; _this$ = ecx

; 231  :  #if _ITERATOR_DEBUG_LEVEL == 2
; 232  : 		if (this->_Getcont() == 0
; 233  : 			|| this->_Ptr == 0
; 234  : 			|| this->_Ptr == ((_Mytree *)this->_Getcont())->_Myhead)
; 235  : 			{	// report error
; 236  : 			_DEBUG_ERROR("map/set iterator not dereferencable");
; 237  : 			_SCL_SECURE_OUT_OF_RANGE;
; 238  : 			}
; 239  : 
; 240  :  #elif _ITERATOR_DEBUG_LEVEL == 1
; 241  : 		_SCL_SECURE_VALIDATE(this->_Getcont() != 0 && this->_Ptr != 0);
; 242  : 		_SCL_SECURE_VALIDATE_RANGE(this->_Ptr !=
; 243  : 			((_Mytree *)this->_Getcont())->_Myhead);
; 244  :  #endif /* _ITERATOR_DEBUG_LEVEL */
; 245  : 
; 246  : 		return (_Mytree::_Myval(this->_Ptr));

  00000	8b 01		 mov	 eax, DWORD PTR [ecx]
  00002	83 c0 0c	 add	 eax, 12			; 0000000cH

; 247  : 		}

  00005	c3		 ret	 0
??D?$_Tree_const_iterator@V?$_Tree_val@V?$_Tmap_traits@KVioHashString@@U?$less@K@std@@V?$allocator@U?$pair@$$CBKVioHashString@@@std@@@3@$0A@@std@@@std@@@std@@QBEABU?$pair@$$CBKVioHashString@@@1@XZ ENDP ; std::_Tree_const_iterator<std::_Tree_val<std::_Tmap_traits<unsigned long,ioHashString,std::less<unsigned long>,std::allocator<std::pair<unsigned long const ,ioHashString> >,0> > >::operator*
_TEXT	ENDS
PUBLIC	?_Color@?$_Tree_val@V?$_Tmap_traits@KVioHashString@@U?$less@K@std@@V?$allocator@U?$pair@$$CBKVioHashString@@@std@@@3@$0A@@std@@@std@@SAAADPAU_Node@?$_Tree_nod@V?$_Tmap_traits@KVioHashString@@U?$less@K@std@@V?$allocator@U?$pair@$$CBKVioHashString@@@std@@@3@$0A@@std@@@2@@Z ; std::_Tree_val<std::_Tmap_traits<unsigned long,ioHashString,std::less<unsigned long>,std::allocator<std::pair<unsigned long const ,ioHashString> >,0> >::_Color
; Function compile flags: /Ogsp
;	COMDAT ?_Color@?$_Tree_val@V?$_Tmap_traits@KVioHashString@@U?$less@K@std@@V?$allocator@U?$pair@$$CBKVioHashString@@@std@@@3@$0A@@std@@@std@@SAAADPAU_Node@?$_Tree_nod@V?$_Tmap_traits@KVioHashString@@U?$less@K@std@@V?$allocator@U?$pair@$$CBKVioHashString@@@std@@@3@$0A@@std@@@2@@Z
_TEXT	SEGMENT
__Pnode$ = 8						; size = 4
?_Color@?$_Tree_val@V?$_Tmap_traits@KVioHashString@@U?$less@K@std@@V?$allocator@U?$pair@$$CBKVioHashString@@@std@@@3@$0A@@std@@@std@@SAAADPAU_Node@?$_Tree_nod@V?$_Tmap_traits@KVioHashString@@U?$less@K@std@@V?$allocator@U?$pair@$$CBKVioHashString@@@std@@@3@$0A@@std@@@2@@Z PROC ; std::_Tree_val<std::_Tmap_traits<unsigned long,ioHashString,std::less<unsigned long>,std::allocator<std::pair<unsigned long const ,ioHashString> >,0> >::_Color, COMDAT

; 606  : 		{	// return reference to color in node

  00000	55		 push	 ebp
  00001	8b ec		 mov	 ebp, esp

; 607  : 		return ((char&)(*_Pnode)._Color);

  00003	8b 45 08	 mov	 eax, DWORD PTR __Pnode$[ebp]
  00006	83 c0 20	 add	 eax, 32			; 00000020H

; 608  : 		}

  00009	5d		 pop	 ebp
  0000a	c3		 ret	 0
?_Color@?$_Tree_val@V?$_Tmap_traits@KVioHashString@@U?$less@K@std@@V?$allocator@U?$pair@$$CBKVioHashString@@@std@@@3@$0A@@std@@@std@@SAAADPAU_Node@?$_Tree_nod@V?$_Tmap_traits@KVioHashString@@U?$less@K@std@@V?$allocator@U?$pair@$$CBKVioHashString@@@std@@@3@$0A@@std@@@2@@Z ENDP ; std::_Tree_val<std::_Tmap_traits<unsigned long,ioHashString,std::less<unsigned long>,std::allocator<std::pair<unsigned long const ,ioHashString> >,0> >::_Color
_TEXT	ENDS
PUBLIC	?_Max@?$_Tree_val@V?$_Tmap_traits@KVioHashString@@U?$less@K@std@@V?$allocator@U?$pair@$$CBKVioHashString@@@std@@@3@$0A@@std@@@std@@SAPAU_Node@?$_Tree_nod@V?$_Tmap_traits@KVioHashString@@U?$less@K@std@@V?$allocator@U?$pair@$$CBKVioHashString@@@std@@@3@$0A@@std@@@2@PAU342@@Z ; std::_Tree_val<std::_Tmap_traits<unsigned long,ioHashString,std::less<unsigned long>,std::allocator<std::pair<unsigned long const ,ioHashString> >,0> >::_Max
; Function compile flags: /Ogsp
;	COMDAT ?_Max@?$_Tree_val@V?$_Tmap_traits@KVioHashString@@U?$less@K@std@@V?$allocator@U?$pair@$$CBKVioHashString@@@std@@@3@$0A@@std@@@std@@SAPAU_Node@?$_Tree_nod@V?$_Tmap_traits@KVioHashString@@U?$less@K@std@@V?$allocator@U?$pair@$$CBKVioHashString@@@std@@@3@$0A@@std@@@2@PAU342@@Z
_TEXT	SEGMENT
__Pnode$ = 8						; size = 4
?_Max@?$_Tree_val@V?$_Tmap_traits@KVioHashString@@U?$less@K@std@@V?$allocator@U?$pair@$$CBKVioHashString@@@std@@@3@$0A@@std@@@std@@SAPAU_Node@?$_Tree_nod@V?$_Tmap_traits@KVioHashString@@U?$less@K@std@@V?$allocator@U?$pair@$$CBKVioHashString@@@std@@@3@$0A@@std@@@2@PAU342@@Z PROC ; std::_Tree_val<std::_Tmap_traits<unsigned long,ioHashString,std::less<unsigned long>,std::allocator<std::pair<unsigned long const ,ioHashString> >,0> >::_Max, COMDAT

; 641  : 		{	// return rightmost node in subtree at _Pnode

  00000	55		 push	 ebp
  00001	8b ec		 mov	 ebp, esp

; 642  : 		while (!_Isnil(_Right(_Pnode)))

  00003	8b 45 08	 mov	 eax, DWORD PTR __Pnode$[ebp]
  00006	eb 02		 jmp	 SHORT $LN14@Max
$LL2@Max:

; 643  : 			_Pnode = _Right(_Pnode);

  00008	8b c1		 mov	 eax, ecx
$LN14@Max:

; 642  : 		while (!_Isnil(_Right(_Pnode)))

  0000a	8b 48 08	 mov	 ecx, DWORD PTR [eax+8]
  0000d	80 79 21 00	 cmp	 BYTE PTR [ecx+33], 0
  00011	74 f5		 je	 SHORT $LL2@Max

; 644  : 		return (_Pnode);
; 645  : 		}

  00013	5d		 pop	 ebp
  00014	c3		 ret	 0
?_Max@?$_Tree_val@V?$_Tmap_traits@KVioHashString@@U?$less@K@std@@V?$allocator@U?$pair@$$CBKVioHashString@@@std@@@3@$0A@@std@@@std@@SAPAU_Node@?$_Tree_nod@V?$_Tmap_traits@KVioHashString@@U?$less@K@std@@V?$allocator@U?$pair@$$CBKVioHashString@@@std@@@3@$0A@@std@@@2@PAU342@@Z ENDP ; std::_Tree_val<std::_Tmap_traits<unsigned long,ioHashString,std::less<unsigned long>,std::allocator<std::pair<unsigned long const ,ioHashString> >,0> >::_Max
_TEXT	ENDS
PUBLIC	?_Min@?$_Tree_val@V?$_Tmap_traits@KVioHashString@@U?$less@K@std@@V?$allocator@U?$pair@$$CBKVioHashString@@@std@@@3@$0A@@std@@@std@@SAPAU_Node@?$_Tree_nod@V?$_Tmap_traits@KVioHashString@@U?$less@K@std@@V?$allocator@U?$pair@$$CBKVioHashString@@@std@@@3@$0A@@std@@@2@PAU342@@Z ; std::_Tree_val<std::_Tmap_traits<unsigned long,ioHashString,std::less<unsigned long>,std::allocator<std::pair<unsigned long const ,ioHashString> >,0> >::_Min
; Function compile flags: /Ogsp
;	COMDAT ?_Min@?$_Tree_val@V?$_Tmap_traits@KVioHashString@@U?$less@K@std@@V?$allocator@U?$pair@$$CBKVioHashString@@@std@@@3@$0A@@std@@@std@@SAPAU_Node@?$_Tree_nod@V?$_Tmap_traits@KVioHashString@@U?$less@K@std@@V?$allocator@U?$pair@$$CBKVioHashString@@@std@@@3@$0A@@std@@@2@PAU342@@Z
_TEXT	SEGMENT
__Pnode$ = 8						; size = 4
?_Min@?$_Tree_val@V?$_Tmap_traits@KVioHashString@@U?$less@K@std@@V?$allocator@U?$pair@$$CBKVioHashString@@@std@@@3@$0A@@std@@@std@@SAPAU_Node@?$_Tree_nod@V?$_Tmap_traits@KVioHashString@@U?$less@K@std@@V?$allocator@U?$pair@$$CBKVioHashString@@@std@@@3@$0A@@std@@@2@PAU342@@Z PROC ; std::_Tree_val<std::_Tmap_traits<unsigned long,ioHashString,std::less<unsigned long>,std::allocator<std::pair<unsigned long const ,ioHashString> >,0> >::_Min, COMDAT

; 648  : 		{	// return leftmost node in subtree at _Pnode

  00000	55		 push	 ebp
  00001	8b ec		 mov	 ebp, esp

; 649  : 		while (!_Isnil(_Left(_Pnode)))

  00003	8b 45 08	 mov	 eax, DWORD PTR __Pnode$[ebp]
  00006	eb 02		 jmp	 SHORT $LN14@Min
$LL2@Min:

; 650  : 			_Pnode = _Left(_Pnode);

  00008	8b c1		 mov	 eax, ecx
$LN14@Min:

; 649  : 		while (!_Isnil(_Left(_Pnode)))

  0000a	8b 08		 mov	 ecx, DWORD PTR [eax]
  0000c	80 79 21 00	 cmp	 BYTE PTR [ecx+33], 0
  00010	74 f6		 je	 SHORT $LL2@Min

; 651  : 		return (_Pnode);
; 652  : 		}

  00012	5d		 pop	 ebp
  00013	c3		 ret	 0
?_Min@?$_Tree_val@V?$_Tmap_traits@KVioHashString@@U?$less@K@std@@V?$allocator@U?$pair@$$CBKVioHashString@@@std@@@3@$0A@@std@@@std@@SAPAU_Node@?$_Tree_nod@V?$_Tmap_traits@KVioHashString@@U?$less@K@std@@V?$allocator@U?$pair@$$CBKVioHashString@@@std@@@3@$0A@@std@@@2@PAU342@@Z ENDP ; std::_Tree_val<std::_Tmap_traits<unsigned long,ioHashString,std::less<unsigned long>,std::allocator<std::pair<unsigned long const ,ioHashString> >,0> >::_Min
_TEXT	ENDS
PUBLIC	??0?$_Tmap_traits@KVioHashString@@U?$less@K@std@@V?$allocator@U?$pair@$$CBKVioHashString@@@std@@@3@$0A@@std@@QAE@U?$less@K@1@@Z ; std::_Tmap_traits<unsigned long,ioHashString,std::less<unsigned long>,std::allocator<std::pair<unsigned long const ,ioHashString> >,0>::_Tmap_traits<unsigned long,ioHashString,std::less<unsigned long>,std::allocator<std::pair<unsigned long const ,ioHashString> >,0>
; Function compile flags: /Ogsp
; File c:\program files (x86)\microsoft visual studio 10.0\vc\include\map
;	COMDAT ??0?$_Tmap_traits@KVioHashString@@U?$less@K@std@@V?$allocator@U?$pair@$$CBKVioHashString@@@std@@@3@$0A@@std@@QAE@U?$less@K@1@@Z
_TEXT	SEGMENT
__Parg$ = 8						; size = 1
??0?$_Tmap_traits@KVioHashString@@U?$less@K@std@@V?$allocator@U?$pair@$$CBKVioHashString@@@std@@@3@$0A@@std@@QAE@U?$less@K@1@@Z PROC ; std::_Tmap_traits<unsigned long,ioHashString,std::less<unsigned long>,std::allocator<std::pair<unsigned long const ,ioHashString> >,0>::_Tmap_traits<unsigned long,ioHashString,std::less<unsigned long>,std::allocator<std::pair<unsigned long const ,ioHashString> >,0>, COMDAT
; _this$ = ecx

; 40   : 		{	// construct with specified comparator

  00000	8b c1		 mov	 eax, ecx

; 41   : 		}

  00002	c2 04 00	 ret	 4
??0?$_Tmap_traits@KVioHashString@@U?$less@K@std@@V?$allocator@U?$pair@$$CBKVioHashString@@@std@@@3@$0A@@std@@QAE@U?$less@K@1@@Z ENDP ; std::_Tmap_traits<unsigned long,ioHashString,std::less<unsigned long>,std::allocator<std::pair<unsigned long const ,ioHashString> >,0>::_Tmap_traits<unsigned long,ioHashString,std::less<unsigned long>,std::allocator<std::pair<unsigned long const ,ioHashString> >,0>
_TEXT	ENDS
PUBLIC	??E?$_Tree_unchecked_const_iterator@V?$_Tree_val@V?$_Tmap_traits@KVioHashString@@U?$less@K@std@@V?$allocator@U?$pair@$$CBKVioHashString@@@std@@@3@$0A@@std@@@std@@U_Iterator_base0@2@@std@@QAEAAV01@XZ ; std::_Tree_unchecked_const_iterator<std::_Tree_val<std::_Tmap_traits<unsigned long,ioHashString,std::less<unsigned long>,std::allocator<std::pair<unsigned long const ,ioHashString> >,0> >,std::_Iterator_base0>::operator++
; Function compile flags: /Ogsp
; File c:\program files (x86)\microsoft visual studio 10.0\vc\include\xtree
;	COMDAT ??E?$_Tree_unchecked_const_iterator@V?$_Tree_val@V?$_Tmap_traits@KVioHashString@@U?$less@K@std@@V?$allocator@U?$pair@$$CBKVioHashString@@@std@@@3@$0A@@std@@@std@@U_Iterator_base0@2@@std@@QAEAAV01@XZ
_TEXT	SEGMENT
??E?$_Tree_unchecked_const_iterator@V?$_Tree_val@V?$_Tmap_traits@KVioHashString@@U?$less@K@std@@V?$allocator@U?$pair@$$CBKVioHashString@@@std@@@3@$0A@@std@@@std@@U_Iterator_base0@2@@std@@QAEAAV01@XZ PROC ; std::_Tree_unchecked_const_iterator<std::_Tree_val<std::_Tmap_traits<unsigned long,ioHashString,std::less<unsigned long>,std::allocator<std::pair<unsigned long const ,ioHashString> >,0> >,std::_Iterator_base0>::operator++, COMDAT
; _this$ = ecx

; 58   : 		{	// preincrement

  00000	8b c1		 mov	 eax, ecx

; 59   : 		if (_Mytree::_Isnil(_Ptr))

  00002	8b 08		 mov	 ecx, DWORD PTR [eax]
  00004	53		 push	 ebx
  00005	32 db		 xor	 bl, bl
  00007	38 59 21	 cmp	 BYTE PTR [ecx+33], bl
  0000a	75 2d		 jne	 SHORT $LN3@operator

; 60   : 			;	// end() shouldn't be incremented, don't move
; 61   : 		else if (!_Mytree::_Isnil(_Mytree::_Right(_Ptr)))

  0000c	8b 51 08	 mov	 edx, DWORD PTR [ecx+8]
  0000f	38 5a 21	 cmp	 BYTE PTR [edx+33], bl
  00012	75 0d		 jne	 SHORT $LN34@operator

; 62   : 			_Ptr = _Mytree::_Min(
; 63   : 				_Mytree::_Right(_Ptr));	// ==> smallest of right subtree

$LL18@operator:
  00014	8b ca		 mov	 ecx, edx
  00016	8b 11		 mov	 edx, DWORD PTR [ecx]
  00018	38 5a 21	 cmp	 BYTE PTR [edx+33], bl
  0001b	74 f7		 je	 SHORT $LL18@operator
  0001d	89 08		 mov	 DWORD PTR [eax], ecx
  0001f	5b		 pop	 ebx

; 71   : 			}
; 72   : 		return (*this);
; 73   : 		}

  00020	c3		 ret	 0
$LN34@operator:

; 64   : 		else
; 65   : 			{	// climb looking for right subtree
; 66   : 			_Nodeptr _Pnode;
; 67   : 			while (!_Mytree::_Isnil(_Pnode = _Mytree::_Parent(_Ptr))
; 68   : 				&& _Ptr == _Mytree::_Right(_Pnode))

  00021	8b 51 04	 mov	 edx, DWORD PTR [ecx+4]
  00024	eb 0c		 jmp	 SHORT $LN38@operator
$LL2@operator:
  00026	8b 08		 mov	 ecx, DWORD PTR [eax]
  00028	3b 4a 08	 cmp	 ecx, DWORD PTR [edx+8]
  0002b	75 0a		 jne	 SHORT $LN1@operator

; 69   : 				_Ptr = _Pnode;	// ==> parent while right subtree

  0002d	89 10		 mov	 DWORD PTR [eax], edx
  0002f	8b 52 04	 mov	 edx, DWORD PTR [edx+4]
$LN38@operator:

; 64   : 		else
; 65   : 			{	// climb looking for right subtree
; 66   : 			_Nodeptr _Pnode;
; 67   : 			while (!_Mytree::_Isnil(_Pnode = _Mytree::_Parent(_Ptr))
; 68   : 				&& _Ptr == _Mytree::_Right(_Pnode))

  00032	38 5a 21	 cmp	 BYTE PTR [edx+33], bl
  00035	74 ef		 je	 SHORT $LL2@operator
$LN1@operator:

; 70   : 			_Ptr = _Pnode;	// ==> parent (head if end())

  00037	89 10		 mov	 DWORD PTR [eax], edx
$LN3@operator:
  00039	5b		 pop	 ebx

; 71   : 			}
; 72   : 		return (*this);
; 73   : 		}

  0003a	c3		 ret	 0
??E?$_Tree_unchecked_const_iterator@V?$_Tree_val@V?$_Tmap_traits@KVioHashString@@U?$less@K@std@@V?$allocator@U?$pair@$$CBKVioHashString@@@std@@@3@$0A@@std@@@std@@U_Iterator_base0@2@@std@@QAEAAV01@XZ ENDP ; std::_Tree_unchecked_const_iterator<std::_Tree_val<std::_Tmap_traits<unsigned long,ioHashString,std::less<unsigned long>,std::allocator<std::pair<unsigned long const ,ioHashString> >,0> >,std::_Iterator_base0>::operator++
_TEXT	ENDS
PUBLIC	??$sprintf_s@$0BAE@@@YAHAAY0BAE@DPBDZZ		; sprintf_s<260>
EXTRN	__imp__vsprintf_s:PROC
; Function compile flags: /Ogsp
; File c:\program files (x86)\microsoft visual studio 10.0\vc\include\stdio.h
;	COMDAT ??$sprintf_s@$0BAE@@@YAHAAY0BAE@DPBDZZ
_TEXT	SEGMENT
__Dest$ = 8						; size = 4
__Format$ = 12						; size = 4
??$sprintf_s@$0BAE@@@YAHAAY0BAE@DPBDZZ PROC		; sprintf_s<260>, COMDAT

; 323  : __DEFINE_CPP_OVERLOAD_SECURE_FUNC_0_1_ARGLIST(int, sprintf_s, vsprintf_s, _Deref_post_z_ char, _Dest, _In_z_ _Printf_format_string_ const char *, _Format)

  00000	55		 push	 ebp
  00001	8b ec		 mov	 ebp, esp
  00003	8d 45 10	 lea	 eax, DWORD PTR __Format$[ebp+4]
  00006	50		 push	 eax
  00007	ff 75 0c	 push	 DWORD PTR __Format$[ebp]
  0000a	68 04 01 00 00	 push	 260			; 00000104H
  0000f	ff 75 08	 push	 DWORD PTR __Dest$[ebp]
  00012	ff 15 00 00 00
	00		 call	 DWORD PTR __imp__vsprintf_s
  00018	83 c4 10	 add	 esp, 16			; 00000010H
  0001b	5d		 pop	 ebp
  0001c	c3		 ret	 0
??$sprintf_s@$0BAE@@@YAHAAY0BAE@DPBDZZ ENDP		; sprintf_s<260>
_TEXT	ENDS
PUBLIC	?_Adopt@_Iterator_base0@std@@QAEXPBX@Z		; std::_Iterator_base0::_Adopt
; Function compile flags: /Ogsp
; File c:\program files (x86)\microsoft visual studio 10.0\vc\include\xutility
;	COMDAT ?_Adopt@_Iterator_base0@std@@QAEXPBX@Z
_TEXT	SEGMENT
___formal$ = 8						; size = 4
?_Adopt@_Iterator_base0@std@@QAEXPBX@Z PROC		; std::_Iterator_base0::_Adopt, COMDAT
; _this$ = ecx

; 49   : 		}

  00000	c2 04 00	 ret	 4
?_Adopt@_Iterator_base0@std@@QAEXPBX@Z ENDP		; std::_Iterator_base0::_Adopt
_TEXT	ENDS
PUBLIC	??$addressof@U?$pair@$$CBKVioHashString@@@std@@@std@@YAPAU?$pair@$$CBKVioHashString@@@0@AAU10@@Z ; std::addressof<std::pair<unsigned long const ,ioHashString> >
; Function compile flags: /Ogsp
; File c:\program files (x86)\microsoft visual studio 10.0\vc\include\xmemory
;	COMDAT ??$addressof@U?$pair@$$CBKVioHashString@@@std@@@std@@YAPAU?$pair@$$CBKVioHashString@@@0@AAU10@@Z
_TEXT	SEGMENT
__Val$ = 8						; size = 4
??$addressof@U?$pair@$$CBKVioHashString@@@std@@@std@@YAPAU?$pair@$$CBKVioHashString@@@0@AAU10@@Z PROC ; std::addressof<std::pair<unsigned long const ,ioHashString> >, COMDAT

; 110  : 	{	// return address of _Val

  00000	55		 push	 ebp
  00001	8b ec		 mov	 ebp, esp

; 111  : 	return ((_Ty *) &(char&)_Val);

  00003	8b 45 08	 mov	 eax, DWORD PTR __Val$[ebp]

; 112  : 	}

  00006	5d		 pop	 ebp
  00007	c3		 ret	 0
??$addressof@U?$pair@$$CBKVioHashString@@@std@@@std@@YAPAU?$pair@$$CBKVioHashString@@@0@AAU10@@Z ENDP ; std::addressof<std::pair<unsigned long const ,ioHashString> >
_TEXT	ENDS
PUBLIC	??$_Kfn@$$CBKVioHashString@@@?$_Tmap_traits@KVioHashString@@U?$less@K@std@@V?$allocator@U?$pair@$$CBKVioHashString@@@std@@@3@$0A@@std@@SAABKABU?$pair@$$CBKVioHashString@@@1@@Z ; std::_Tmap_traits<unsigned long,ioHashString,std::less<unsigned long>,std::allocator<std::pair<unsigned long const ,ioHashString> >,0>::_Kfn<unsigned long const ,ioHashString>
; Function compile flags: /Ogsp
; File c:\program files (x86)\microsoft visual studio 10.0\vc\include\map
;	COMDAT ??$_Kfn@$$CBKVioHashString@@@?$_Tmap_traits@KVioHashString@@U?$less@K@std@@V?$allocator@U?$pair@$$CBKVioHashString@@@std@@@3@$0A@@std@@SAABKABU?$pair@$$CBKVioHashString@@@1@@Z
_TEXT	SEGMENT
__Val$ = 8						; size = 4
??$_Kfn@$$CBKVioHashString@@@?$_Tmap_traits@KVioHashString@@U?$less@K@std@@V?$allocator@U?$pair@$$CBKVioHashString@@@std@@@3@$0A@@std@@SAABKABU?$pair@$$CBKVioHashString@@@1@@Z PROC ; std::_Tmap_traits<unsigned long,ioHashString,std::less<unsigned long>,std::allocator<std::pair<unsigned long const ,ioHashString> >,0>::_Kfn<unsigned long const ,ioHashString>, COMDAT

; 66   : 		static const _Kty& _Kfn(const _STD pair<_Ty1, _Ty2>& _Val)

  00000	55		 push	 ebp
  00001	8b ec		 mov	 ebp, esp

; 67   : 		{	// extract key from element value
; 68   : 		return (_Val.first);

  00003	8b 45 08	 mov	 eax, DWORD PTR __Val$[ebp]

; 69   : 		}

  00006	5d		 pop	 ebp
  00007	c3		 ret	 0
??$_Kfn@$$CBKVioHashString@@@?$_Tmap_traits@KVioHashString@@U?$less@K@std@@V?$allocator@U?$pair@$$CBKVioHashString@@@std@@@3@$0A@@std@@SAABKABU?$pair@$$CBKVioHashString@@@1@@Z ENDP ; std::_Tmap_traits<unsigned long,ioHashString,std::less<unsigned long>,std::allocator<std::pair<unsigned long const ,ioHashString> >,0>::_Kfn<unsigned long const ,ioHashString>
_TEXT	ENDS
PUBLIC	??$?0U?$pair@$$CBKVioHashString@@@std@@@?$allocator@U_Node@?$_Tree_nod@V?$_Tmap_traits@KVioHashString@@U?$less@K@std@@V?$allocator@U?$pair@$$CBKVioHashString@@@std@@@3@$0A@@std@@@std@@@std@@QAE@ABV?$allocator@U?$pair@$$CBKVioHashString@@@std@@@1@@Z ; std::allocator<std::_Tree_nod<std::_Tmap_traits<unsigned long,ioHashString,std::less<unsigned long>,std::allocator<std::pair<unsigned long const ,ioHashString> >,0> >::_Node>::allocator<std::_Tree_nod<std::_Tmap_traits<unsigned long,ioHashString,std::less<unsigned long>,std::allocator<std::pair<unsigned long const ,ioHashString> >,0> >::_Node><std::pair<unsigned long const ,ioHashString> >
; Function compile flags: /Ogsp
; File c:\program files (x86)\microsoft visual studio 10.0\vc\include\xmemory
;	COMDAT ??$?0U?$pair@$$CBKVioHashString@@@std@@@?$allocator@U_Node@?$_Tree_nod@V?$_Tmap_traits@KVioHashString@@U?$less@K@std@@V?$allocator@U?$pair@$$CBKVioHashString@@@std@@@3@$0A@@std@@@std@@@std@@QAE@ABV?$allocator@U?$pair@$$CBKVioHashString@@@std@@@1@@Z
_TEXT	SEGMENT
___formal$ = 8						; size = 4
??$?0U?$pair@$$CBKVioHashString@@@std@@@?$allocator@U_Node@?$_Tree_nod@V?$_Tmap_traits@KVioHashString@@U?$less@K@std@@V?$allocator@U?$pair@$$CBKVioHashString@@@std@@@3@$0A@@std@@@std@@@std@@QAE@ABV?$allocator@U?$pair@$$CBKVioHashString@@@std@@@1@@Z PROC ; std::allocator<std::_Tree_nod<std::_Tmap_traits<unsigned long,ioHashString,std::less<unsigned long>,std::allocator<std::pair<unsigned long const ,ioHashString> >,0> >::_Node>::allocator<std::_Tree_nod<std::_Tmap_traits<unsigned long,ioHashString,std::less<unsigned long>,std::allocator<std::pair<unsigned long const ,ioHashString> >,0> >::_Node><std::pair<unsigned long const ,ioHashString> >, COMDAT
; _this$ = ecx

; 170  : 		_ALLOCATOR(const _ALLOCATOR<_Other>&) _THROW0()

  00000	8b c1		 mov	 eax, ecx

; 171  : 		{	// construct from a related allocator (do nothing)
; 172  : 		}

  00002	c2 04 00	 ret	 4
??$?0U?$pair@$$CBKVioHashString@@@std@@@?$allocator@U_Node@?$_Tree_nod@V?$_Tmap_traits@KVioHashString@@U?$less@K@std@@V?$allocator@U?$pair@$$CBKVioHashString@@@std@@@3@$0A@@std@@@std@@@std@@QAE@ABV?$allocator@U?$pair@$$CBKVioHashString@@@std@@@1@@Z ENDP ; std::allocator<std::_Tree_nod<std::_Tmap_traits<unsigned long,ioHashString,std::less<unsigned long>,std::allocator<std::pair<unsigned long const ,ioHashString> >,0> >::_Node>::allocator<std::_Tree_nod<std::_Tmap_traits<unsigned long,ioHashString,std::less<unsigned long>,std::allocator<std::pair<unsigned long const ,ioHashString> >,0> >::_Node><std::pair<unsigned long const ,ioHashString> >
_TEXT	ENDS
PUBLIC	__TI2?AVbad_alloc@std@@
PUBLIC	??$_Allocate@U_Node@?$_Tree_nod@V?$_Tmap_traits@KVioHashString@@U?$less@K@std@@V?$allocator@U?$pair@$$CBKVioHashString@@@std@@@3@$0A@@std@@@std@@@std@@YAPAU_Node@?$_Tree_nod@V?$_Tmap_traits@KVioHashString@@U?$less@K@std@@V?$allocator@U?$pair@$$CBKVioHashString@@@std@@@3@$0A@@std@@@0@IPAU120@@Z ; std::_Allocate<std::_Tree_nod<std::_Tmap_traits<unsigned long,ioHashString,std::less<unsigned long>,std::allocator<std::pair<unsigned long const ,ioHashString> >,0> >::_Node>
PUBLIC	__CTA2?AVbad_alloc@std@@
PUBLIC	__CT??_R0?AVbad_alloc@std@@@8??0bad_alloc@std@@QAE@ABV01@@Z12
PUBLIC	??0bad_alloc@std@@QAE@ABV01@@Z			; std::bad_alloc::bad_alloc
PUBLIC	__CT??_R0?AVexception@std@@@8??0exception@std@@QAE@ABV01@@Z12
EXTRN	??2@YAPAXI@Z:PROC				; operator new
EXTRN	__CxxThrowException@8:PROC
EXTRN	??0exception@std@@QAE@ABV01@@Z:PROC		; std::exception::exception
;	COMDAT __CT??_R0?AVexception@std@@@8??0exception@std@@QAE@ABV01@@Z12
; File c:\program files (x86)\microsoft visual studio 10.0\vc\include\exception
xdata$x	SEGMENT
__CT??_R0?AVexception@std@@@8??0exception@std@@QAE@ABV01@@Z12 DD 00H
	DD	FLAT:??_R0?AVexception@std@@@8
	DD	00H
	DD	0ffffffffH
	ORG $+4
	DD	0cH
	DD	FLAT:??0exception@std@@QAE@ABV01@@Z
xdata$x	ENDS
;	COMDAT __CT??_R0?AVbad_alloc@std@@@8??0bad_alloc@std@@QAE@ABV01@@Z12
xdata$x	SEGMENT
__CT??_R0?AVbad_alloc@std@@@8??0bad_alloc@std@@QAE@ABV01@@Z12 DD 00H
	DD	FLAT:??_R0?AVbad_alloc@std@@@8
	DD	00H
	DD	0ffffffffH
	ORG $+4
	DD	0cH
	DD	FLAT:??0bad_alloc@std@@QAE@ABV01@@Z
xdata$x	ENDS
;	COMDAT __CTA2?AVbad_alloc@std@@
xdata$x	SEGMENT
__CTA2?AVbad_alloc@std@@ DD 02H
	DD	FLAT:__CT??_R0?AVbad_alloc@std@@@8??0bad_alloc@std@@QAE@ABV01@@Z12
	DD	FLAT:__CT??_R0?AVexception@std@@@8??0exception@std@@QAE@ABV01@@Z12
xdata$x	ENDS
;	COMDAT __TI2?AVbad_alloc@std@@
xdata$x	SEGMENT
__TI2?AVbad_alloc@std@@ DD 00H
	DD	FLAT:??1bad_alloc@std@@UAE@XZ
	DD	00H
	DD	FLAT:__CTA2?AVbad_alloc@std@@
; Function compile flags: /Ogsp
; File c:\program files (x86)\microsoft visual studio 10.0\vc\include\xmemory
xdata$x	ENDS
;	COMDAT ??$_Allocate@U_Node@?$_Tree_nod@V?$_Tmap_traits@KVioHashString@@U?$less@K@std@@V?$allocator@U?$pair@$$CBKVioHashString@@@std@@@3@$0A@@std@@@std@@@std@@YAPAU_Node@?$_Tree_nod@V?$_Tmap_traits@KVioHashString@@U?$less@K@std@@V?$allocator@U?$pair@$$CBKVioHashString@@@std@@@3@$0A@@std@@@0@IPAU120@@Z
_TEXT	SEGMENT
$T507292 = -12						; size = 12
$T507297 = 8						; size = 4
__Count$ = 8						; size = 4
___formal$ = 12						; size = 4
??$_Allocate@U_Node@?$_Tree_nod@V?$_Tmap_traits@KVioHashString@@U?$less@K@std@@V?$allocator@U?$pair@$$CBKVioHashString@@@std@@@3@$0A@@std@@@std@@@std@@YAPAU_Node@?$_Tree_nod@V?$_Tmap_traits@KVioHashString@@U?$less@K@std@@V?$allocator@U?$pair@$$CBKVioHashString@@@std@@@3@$0A@@std@@@0@IPAU120@@Z PROC ; std::_Allocate<std::_Tree_nod<std::_Tmap_traits<unsigned long,ioHashString,std::less<unsigned long>,std::allocator<std::pair<unsigned long const ,ioHashString> >,0> >::_Node>, COMDAT

; 30   : 	{	// allocate storage for _Count elements of type _Ty

  00000	55		 push	 ebp
  00001	8b ec		 mov	 ebp, esp

; 31   : 	void *_Ptr = 0;
; 32   : 
; 33   : 	if (_Count <= 0)

  00003	8b 4d 08	 mov	 ecx, DWORD PTR __Count$[ebp]
  00006	83 ec 0c	 sub	 esp, 12			; 0000000cH
  00009	33 c0		 xor	 eax, eax
  0000b	85 c9		 test	 ecx, ecx

; 34   : 		_Count = 0;
; 35   : 	else if (((_SIZT)(-1) / sizeof (_Ty) < _Count)

  0000d	74 3c		 je	 SHORT $LN5@Allocate

; 36   : 		|| (_Ptr = ::operator new(_Count * sizeof (_Ty))) == 0)

  0000f	81 f9 c7 71 1c
	07		 cmp	 ecx, 119304647		; 071c71c7H
  00015	77 0e		 ja	 SHORT $LN1@Allocate
  00017	6b c9 24	 imul	 ecx, 36			; 00000024H
  0001a	51		 push	 ecx
  0001b	e8 00 00 00 00	 call	 ??2@YAPAXI@Z		; operator new
  00020	59		 pop	 ecx
  00021	85 c0		 test	 eax, eax

; 38   : 
; 39   : 	return ((_Ty _FARQ *)_Ptr);

  00023	75 26		 jne	 SHORT $LN5@Allocate
$LN1@Allocate:

; 37   : 		_THROW_NCEE(bad_alloc, 0);

  00025	83 65 08 00	 and	 DWORD PTR $T507297[ebp], 0
  00029	8d 45 08	 lea	 eax, DWORD PTR $T507297[ebp]
  0002c	50		 push	 eax
  0002d	8d 4d f4	 lea	 ecx, DWORD PTR $T507292[ebp]
  00030	ff 15 00 00 00
	00		 call	 DWORD PTR __imp_??0exception@std@@QAE@ABQBD@Z
  00036	68 00 00 00 00	 push	 OFFSET __TI2?AVbad_alloc@std@@
  0003b	8d 45 f4	 lea	 eax, DWORD PTR $T507292[ebp]
  0003e	50		 push	 eax
  0003f	c7 45 f4 00 00
	00 00		 mov	 DWORD PTR $T507292[ebp], OFFSET ??_7bad_alloc@std@@6B@
  00046	e8 00 00 00 00	 call	 __CxxThrowException@8
$LN10@Allocate:
$LN5@Allocate:

; 40   : 	}

  0004b	c9		 leave
  0004c	c3		 ret	 0
$LN9@Allocate:
??$_Allocate@U_Node@?$_Tree_nod@V?$_Tmap_traits@KVioHashString@@U?$less@K@std@@V?$allocator@U?$pair@$$CBKVioHashString@@@std@@@3@$0A@@std@@@std@@@std@@YAPAU_Node@?$_Tree_nod@V?$_Tmap_traits@KVioHashString@@U?$less@K@std@@V?$allocator@U?$pair@$$CBKVioHashString@@@std@@@3@$0A@@std@@@0@IPAU120@@Z ENDP ; std::_Allocate<std::_Tree_nod<std::_Tmap_traits<unsigned long,ioHashString,std::less<unsigned long>,std::allocator<std::pair<unsigned long const ,ioHashString> >,0> >::_Node>
_TEXT	ENDS
PUBLIC	?max_size@?$allocator@U?$pair@$$CBKVioHashString@@@std@@@std@@QBEIXZ ; std::allocator<std::pair<unsigned long const ,ioHashString> >::max_size
; Function compile flags: /Ogsp
;	COMDAT ?max_size@?$allocator@U?$pair@$$CBKVioHashString@@@std@@@std@@QBEIXZ
_TEXT	SEGMENT
?max_size@?$allocator@U?$pair@$$CBKVioHashString@@@std@@@std@@QBEIXZ PROC ; std::allocator<std::pair<unsigned long const ,ioHashString> >::max_size, COMDAT
; _this$ = ecx

; 218  : 		_SIZT _Count = (_SIZT)(-1) / sizeof (_Ty);
; 219  : 		return (0 < _Count ? _Count : 1);

  00000	b8 cc cc cc 0c	 mov	 eax, 214748364		; 0cccccccH

; 220  : 		}

  00005	c3		 ret	 0
?max_size@?$allocator@U?$pair@$$CBKVioHashString@@@std@@@std@@QBEIXZ ENDP ; std::allocator<std::pair<unsigned long const ,ioHashString> >::max_size
_TEXT	ENDS
PUBLIC	??F?$_Tree_unchecked_const_iterator@V?$_Tree_val@V?$_Tmap_traits@KVioHashString@@U?$less@K@std@@V?$allocator@U?$pair@$$CBKVioHashString@@@std@@@3@$0A@@std@@@std@@U_Iterator_base0@2@@std@@QAEAAV01@XZ ; std::_Tree_unchecked_const_iterator<std::_Tree_val<std::_Tmap_traits<unsigned long,ioHashString,std::less<unsigned long>,std::allocator<std::pair<unsigned long const ,ioHashString> >,0> >,std::_Iterator_base0>::operator--
; Function compile flags: /Ogsp
; File c:\program files (x86)\microsoft visual studio 10.0\vc\include\xtree
;	COMDAT ??F?$_Tree_unchecked_const_iterator@V?$_Tree_val@V?$_Tmap_traits@KVioHashString@@U?$less@K@std@@V?$allocator@U?$pair@$$CBKVioHashString@@@std@@@3@$0A@@std@@@std@@U_Iterator_base0@2@@std@@QAEAAV01@XZ
_TEXT	SEGMENT
??F?$_Tree_unchecked_const_iterator@V?$_Tree_val@V?$_Tmap_traits@KVioHashString@@U?$less@K@std@@V?$allocator@U?$pair@$$CBKVioHashString@@@std@@@3@$0A@@std@@@std@@U_Iterator_base0@2@@std@@QAEAAV01@XZ PROC ; std::_Tree_unchecked_const_iterator<std::_Tree_val<std::_Tmap_traits<unsigned long,ioHashString,std::less<unsigned long>,std::allocator<std::pair<unsigned long const ,ioHashString> >,0> >,std::_Iterator_base0>::operator--, COMDAT
; _this$ = ecx

; 83   : 		{	// predecrement

  00000	8b c1		 mov	 eax, ecx

; 84   : 		if (_Mytree::_Isnil(_Ptr))

  00002	8b 08		 mov	 ecx, DWORD PTR [eax]
  00004	53		 push	 ebx
  00005	32 db		 xor	 bl, bl
  00007	38 59 21	 cmp	 BYTE PTR [ecx+33], bl
  0000a	74 07		 je	 SHORT $LN8@operator@2

; 85   : 			_Ptr = _Mytree::_Right(_Ptr);	// end() ==> rightmost

  0000c	8b 49 08	 mov	 ecx, DWORD PTR [ecx+8]
  0000f	89 08		 mov	 DWORD PTR [eax], ecx
  00011	5b		 pop	 ebx

; 99   : 			}
; 100  : 		return (*this);
; 101  : 		}

  00012	c3		 ret	 0
$LN8@operator@2:

; 86   : 		else if (!_Mytree::_Isnil(_Mytree::_Left(_Ptr)))

  00013	8b 11		 mov	 edx, DWORD PTR [ecx]
  00015	38 5a 21	 cmp	 BYTE PTR [edx+33], bl
  00018	74 07		 je	 SHORT $LN44@operator@2

; 90   : 			{	// climb looking for left subtree
; 91   : 			_Nodeptr _Pnode;
; 92   : 			while (!_Mytree::_Isnil(_Pnode = _Mytree::_Parent(_Ptr))
; 93   : 				&& _Ptr == _Mytree::_Left(_Pnode))

  0001a	8b 51 04	 mov	 edx, DWORD PTR [ecx+4]
  0001d	eb 17		 jmp	 SHORT $LN46@operator@2

; 87   : 			_Ptr = _Mytree::_Max(
; 88   : 				_Mytree::_Left(_Ptr));	// ==> largest of left subtree

$LL22@operator@2:
  0001f	8b d1		 mov	 edx, ecx
$LN44@operator@2:
  00021	8b 4a 08	 mov	 ecx, DWORD PTR [edx+8]
  00024	38 59 21	 cmp	 BYTE PTR [ecx+33], bl
  00027	74 f6		 je	 SHORT $LL22@operator@2

; 89   : 		else

  00029	eb 17		 jmp	 SHORT $LN45@operator@2
$LL4@operator@2:

; 90   : 			{	// climb looking for left subtree
; 91   : 			_Nodeptr _Pnode;
; 92   : 			while (!_Mytree::_Isnil(_Pnode = _Mytree::_Parent(_Ptr))
; 93   : 				&& _Ptr == _Mytree::_Left(_Pnode))

  0002b	8b 08		 mov	 ecx, DWORD PTR [eax]
  0002d	3b 0a		 cmp	 ecx, DWORD PTR [edx]
  0002f	75 0a		 jne	 SHORT $LN3@operator@2

; 94   : 				_Ptr = _Pnode;	// ==> parent while left subtree

  00031	89 10		 mov	 DWORD PTR [eax], edx
  00033	8b 52 04	 mov	 edx, DWORD PTR [edx+4]
$LN46@operator@2:

; 90   : 			{	// climb looking for left subtree
; 91   : 			_Nodeptr _Pnode;
; 92   : 			while (!_Mytree::_Isnil(_Pnode = _Mytree::_Parent(_Ptr))
; 93   : 				&& _Ptr == _Mytree::_Left(_Pnode))

  00036	38 5a 21	 cmp	 BYTE PTR [edx+33], bl
  00039	74 f0		 je	 SHORT $LL4@operator@2
$LN3@operator@2:

; 95   : 			if (_Mytree::_Isnil(_Ptr))

  0003b	8b 08		 mov	 ecx, DWORD PTR [eax]
  0003d	38 59 21	 cmp	 BYTE PTR [ecx+33], bl
  00040	75 02		 jne	 SHORT $LN1@operator@2
$LN45@operator@2:

; 96   : 				;	// begin() shouldn't be decremented, don't move
; 97   : 			else
; 98   : 				_Ptr = _Pnode;	// ==> parent if not head

  00042	89 10		 mov	 DWORD PTR [eax], edx
$LN1@operator@2:
  00044	5b		 pop	 ebx

; 99   : 			}
; 100  : 		return (*this);
; 101  : 		}

  00045	c3		 ret	 0
??F?$_Tree_unchecked_const_iterator@V?$_Tree_val@V?$_Tmap_traits@KVioHashString@@U?$less@K@std@@V?$allocator@U?$pair@$$CBKVioHashString@@@std@@@3@$0A@@std@@@std@@U_Iterator_base0@2@@std@@QAEAAV01@XZ ENDP ; std::_Tree_unchecked_const_iterator<std::_Tree_val<std::_Tmap_traits<unsigned long,ioHashString,std::less<unsigned long>,std::allocator<std::pair<unsigned long const ,ioHashString> >,0> >,std::_Iterator_base0>::operator--
_TEXT	ENDS
PUBLIC	??$forward@U?$pair@$$CBKVioHashString@@@std@@@std@@YA$$QAU?$pair@$$CBKVioHashString@@@0@AAU10@@Z ; std::forward<std::pair<unsigned long const ,ioHashString> >
; Function compile flags: /Ogsp
; File c:\program files (x86)\microsoft visual studio 10.0\vc\include\utility
;	COMDAT ??$forward@U?$pair@$$CBKVioHashString@@@std@@@std@@YA$$QAU?$pair@$$CBKVioHashString@@@0@AAU10@@Z
_TEXT	SEGMENT
__Arg$ = 8						; size = 4
??$forward@U?$pair@$$CBKVioHashString@@@std@@@std@@YA$$QAU?$pair@$$CBKVioHashString@@@0@AAU10@@Z PROC ; std::forward<std::pair<unsigned long const ,ioHashString> >, COMDAT

; 78   : 	{	// forward _Arg, given explicitly specified type parameter

  00000	55		 push	 ebp
  00001	8b ec		 mov	 ebp, esp

; 79   : 	return ((_Ty&&)_Arg);

  00003	8b 45 08	 mov	 eax, DWORD PTR __Arg$[ebp]

; 80   : 	}

  00006	5d		 pop	 ebp
  00007	c3		 ret	 0
??$forward@U?$pair@$$CBKVioHashString@@@std@@@std@@YA$$QAU?$pair@$$CBKVioHashString@@@0@AAU10@@Z ENDP ; std::forward<std::pair<unsigned long const ,ioHashString> >
_TEXT	ENDS
PUBLIC	??$move@AAV?$_Tree_iterator@V?$_Tree_val@V?$_Tmap_traits@KVioHashString@@U?$less@K@std@@V?$allocator@U?$pair@$$CBKVioHashString@@@std@@@3@$0A@@std@@@std@@@std@@@std@@YA$$QAV?$_Tree_iterator@V?$_Tree_val@V?$_Tmap_traits@KVioHashString@@U?$less@K@std@@V?$allocator@U?$pair@$$CBKVioHashString@@@std@@@3@$0A@@std@@@std@@@0@AAV10@@Z ; std::move<std::_Tree_iterator<std::_Tree_val<std::_Tmap_traits<unsigned long,ioHashString,std::less<unsigned long>,std::allocator<std::pair<unsigned long const ,ioHashString> >,0> > > &>
; Function compile flags: /Ogsp
;	COMDAT ??$move@AAV?$_Tree_iterator@V?$_Tree_val@V?$_Tmap_traits@KVioHashString@@U?$less@K@std@@V?$allocator@U?$pair@$$CBKVioHashString@@@std@@@3@$0A@@std@@@std@@@std@@@std@@YA$$QAV?$_Tree_iterator@V?$_Tree_val@V?$_Tmap_traits@KVioHashString@@U?$less@K@std@@V?$allocator@U?$pair@$$CBKVioHashString@@@std@@@3@$0A@@std@@@std@@@0@AAV10@@Z
_TEXT	SEGMENT
__Arg$ = 8						; size = 4
??$move@AAV?$_Tree_iterator@V?$_Tree_val@V?$_Tmap_traits@KVioHashString@@U?$less@K@std@@V?$allocator@U?$pair@$$CBKVioHashString@@@std@@@3@$0A@@std@@@std@@@std@@@std@@YA$$QAV?$_Tree_iterator@V?$_Tree_val@V?$_Tmap_traits@KVioHashString@@U?$less@K@std@@V?$allocator@U?$pair@$$CBKVioHashString@@@std@@@3@$0A@@std@@@std@@@0@AAV10@@Z PROC ; std::move<std::_Tree_iterator<std::_Tree_val<std::_Tmap_traits<unsigned long,ioHashString,std::less<unsigned long>,std::allocator<std::pair<unsigned long const ,ioHashString> >,0> > > &>, COMDAT

; 86   : 	{	// forward _Arg as movable

  00000	55		 push	 ebp
  00001	8b ec		 mov	 ebp, esp

; 87   : 	return ((typename tr1::_Remove_reference<_Ty>::_Type&&)_Arg);

  00003	8b 45 08	 mov	 eax, DWORD PTR __Arg$[ebp]

; 88   : 	}

  00006	5d		 pop	 ebp
  00007	c3		 ret	 0
??$move@AAV?$_Tree_iterator@V?$_Tree_val@V?$_Tmap_traits@KVioHashString@@U?$less@K@std@@V?$allocator@U?$pair@$$CBKVioHashString@@@std@@@3@$0A@@std@@@std@@@std@@@std@@YA$$QAV?$_Tree_iterator@V?$_Tree_val@V?$_Tmap_traits@KVioHashString@@U?$less@K@std@@V?$allocator@U?$pair@$$CBKVioHashString@@@std@@@3@$0A@@std@@@std@@@0@AAV10@@Z ENDP ; std::move<std::_Tree_iterator<std::_Tree_val<std::_Tmap_traits<unsigned long,ioHashString,std::less<unsigned long>,std::allocator<std::pair<unsigned long const ,ioHashString> >,0> > > &>
_TEXT	ENDS
PUBLIC	??$forward@AAV?$_Tree_iterator@V?$_Tree_val@V?$_Tmap_traits@KVioHashString@@U?$less@K@std@@V?$allocator@U?$pair@$$CBKVioHashString@@@std@@@3@$0A@@std@@@std@@@std@@@std@@YAAAV?$_Tree_iterator@V?$_Tree_val@V?$_Tmap_traits@KVioHashString@@U?$less@K@std@@V?$allocator@U?$pair@$$CBKVioHashString@@@std@@@3@$0A@@std@@@std@@@0@AAV10@@Z ; std::forward<std::_Tree_iterator<std::_Tree_val<std::_Tmap_traits<unsigned long,ioHashString,std::less<unsigned long>,std::allocator<std::pair<unsigned long const ,ioHashString> >,0> > > &>
; Function compile flags: /Ogsp
;	COMDAT ??$forward@AAV?$_Tree_iterator@V?$_Tree_val@V?$_Tmap_traits@KVioHashString@@U?$less@K@std@@V?$allocator@U?$pair@$$CBKVioHashString@@@std@@@3@$0A@@std@@@std@@@std@@@std@@YAAAV?$_Tree_iterator@V?$_Tree_val@V?$_Tmap_traits@KVioHashString@@U?$less@K@std@@V?$allocator@U?$pair@$$CBKVioHashString@@@std@@@3@$0A@@std@@@std@@@0@AAV10@@Z
_TEXT	SEGMENT
__Arg$ = 8						; size = 4
??$forward@AAV?$_Tree_iterator@V?$_Tree_val@V?$_Tmap_traits@KVioHashString@@U?$less@K@std@@V?$allocator@U?$pair@$$CBKVioHashString@@@std@@@3@$0A@@std@@@std@@@std@@@std@@YAAAV?$_Tree_iterator@V?$_Tree_val@V?$_Tmap_traits@KVioHashString@@U?$less@K@std@@V?$allocator@U?$pair@$$CBKVioHashString@@@std@@@3@$0A@@std@@@std@@@0@AAV10@@Z PROC ; std::forward<std::_Tree_iterator<std::_Tree_val<std::_Tmap_traits<unsigned long,ioHashString,std::less<unsigned long>,std::allocator<std::pair<unsigned long const ,ioHashString> >,0> > > &>, COMDAT

; 78   : 	{	// forward _Arg, given explicitly specified type parameter

  00000	55		 push	 ebp
  00001	8b ec		 mov	 ebp, esp

; 79   : 	return ((_Ty&&)_Arg);

  00003	8b 45 08	 mov	 eax, DWORD PTR __Arg$[ebp]

; 80   : 	}

  00006	5d		 pop	 ebp
  00007	c3		 ret	 0
??$forward@AAV?$_Tree_iterator@V?$_Tree_val@V?$_Tmap_traits@KVioHashString@@U?$less@K@std@@V?$allocator@U?$pair@$$CBKVioHashString@@@std@@@3@$0A@@std@@@std@@@std@@@std@@YAAAV?$_Tree_iterator@V?$_Tree_val@V?$_Tmap_traits@KVioHashString@@U?$less@K@std@@V?$allocator@U?$pair@$$CBKVioHashString@@@std@@@3@$0A@@std@@@std@@@0@AAV10@@Z ENDP ; std::forward<std::_Tree_iterator<std::_Tree_val<std::_Tmap_traits<unsigned long,ioHashString,std::less<unsigned long>,std::allocator<std::pair<unsigned long const ,ioHashString> >,0> > > &>
_TEXT	ENDS
PUBLIC	??$forward@$$CBK@std@@YA$$QBKABK@Z		; std::forward<unsigned long const >
; Function compile flags: /Ogsp
;	COMDAT ??$forward@$$CBK@std@@YA$$QBKABK@Z
_TEXT	SEGMENT
__Arg$ = 8						; size = 4
??$forward@$$CBK@std@@YA$$QBKABK@Z PROC			; std::forward<unsigned long const >, COMDAT

; 78   : 	{	// forward _Arg, given explicitly specified type parameter

  00000	55		 push	 ebp
  00001	8b ec		 mov	 ebp, esp

; 79   : 	return ((_Ty&&)_Arg);

  00003	8b 45 08	 mov	 eax, DWORD PTR __Arg$[ebp]

; 80   : 	}

  00006	5d		 pop	 ebp
  00007	c3		 ret	 0
??$forward@$$CBK@std@@YA$$QBKABK@Z ENDP			; std::forward<unsigned long const >
_TEXT	ENDS
PUBLIC	??$forward@VioHashString@@@std@@YA$$QAVioHashString@@AAV1@@Z ; std::forward<ioHashString>
; Function compile flags: /Ogsp
;	COMDAT ??$forward@VioHashString@@@std@@YA$$QAVioHashString@@AAV1@@Z
_TEXT	SEGMENT
__Arg$ = 8						; size = 4
??$forward@VioHashString@@@std@@YA$$QAVioHashString@@AAV1@@Z PROC ; std::forward<ioHashString>, COMDAT

; 78   : 	{	// forward _Arg, given explicitly specified type parameter

  00000	55		 push	 ebp
  00001	8b ec		 mov	 ebp, esp

; 79   : 	return ((_Ty&&)_Arg);

  00003	8b 45 08	 mov	 eax, DWORD PTR __Arg$[ebp]

; 80   : 	}

  00006	5d		 pop	 ebp
  00007	c3		 ret	 0
??$forward@VioHashString@@@std@@YA$$QAVioHashString@@AAV1@@Z ENDP ; std::forward<ioHashString>
_TEXT	ENDS
PUBLIC	??$move@ABK@std@@YA$$QBKABK@Z			; std::move<unsigned long const &>
; Function compile flags: /Ogsp
;	COMDAT ??$move@ABK@std@@YA$$QBKABK@Z
_TEXT	SEGMENT
__Arg$ = 8						; size = 4
??$move@ABK@std@@YA$$QBKABK@Z PROC			; std::move<unsigned long const &>, COMDAT

; 86   : 	{	// forward _Arg as movable

  00000	55		 push	 ebp
  00001	8b ec		 mov	 ebp, esp

; 87   : 	return ((typename tr1::_Remove_reference<_Ty>::_Type&&)_Arg);

  00003	8b 45 08	 mov	 eax, DWORD PTR __Arg$[ebp]

; 88   : 	}

  00006	5d		 pop	 ebp
  00007	c3		 ret	 0
??$move@ABK@std@@YA$$QBKABK@Z ENDP			; std::move<unsigned long const &>
; Function compile flags: /Ogsp
; File c:\program files (x86)\microsoft sdks\windows\v7.0a\include\strsafe.h
_TEXT	ENDS
;	COMDAT ?StringLengthWorkerA@@YGJPBDIPAI@Z
_TEXT	SEGMENT
?StringLengthWorkerA@@YGJPBDIPAI@Z PROC			; StringLengthWorkerA, COMDAT
; _psz$ = eax
; _cchMax$ = edx
; _pcchLength$ = edi

; 8549 : {

  00000	56		 push	 esi
  00001	8b f0		 mov	 esi, eax

; 8550 :     HRESULT hr = S_OK;

  00003	33 c0		 xor	 eax, eax

; 8551 :     size_t cchOriginalMax = cchMax;

  00005	8b ca		 mov	 ecx, edx

; 8552 : 
; 8553 :     while (cchMax && (*psz != '\0'))

  00007	85 d2		 test	 edx, edx
  00009	74 0c		 je	 SHORT $LN11@StringLeng
$LL6@StringLeng:
  0000b	38 06		 cmp	 BYTE PTR [esi], al
  0000d	74 04		 je	 SHORT $LN5@StringLeng

; 8554 :     {
; 8555 :         psz++;

  0000f	46		 inc	 esi

; 8556 :         cchMax--;

  00010	4a		 dec	 edx
  00011	75 f8		 jne	 SHORT $LL6@StringLeng
$LN5@StringLeng:

; 8557 :     }
; 8558 : 
; 8559 :     if (cchMax == 0)

  00013	85 d2		 test	 edx, edx
  00015	75 05		 jne	 SHORT $LN4@StringLeng
$LN11@StringLeng:

; 8560 :     {
; 8561 :         // the string is longer than cchMax
; 8562 :         hr = STRSAFE_E_INVALID_PARAMETER;

  00017	b8 57 00 07 80	 mov	 eax, -2147024809	; 80070057H
$LN4@StringLeng:
  0001c	5e		 pop	 esi

; 8563 :     }
; 8564 : 
; 8565 :     if (pcchLength)

  0001d	85 ff		 test	 edi, edi
  0001f	74 0c		 je	 SHORT $LN1@StringLeng

; 8566 :     {
; 8567 :         if (SUCCEEDED(hr))

  00021	85 c0		 test	 eax, eax
  00023	78 05		 js	 SHORT $LN2@StringLeng

; 8568 :         {
; 8569 :             *pcchLength = cchOriginalMax - cchMax;

  00025	2b ca		 sub	 ecx, edx
  00027	89 0f		 mov	 DWORD PTR [edi], ecx

; 8574 :         }
; 8575 :     }
; 8576 : 
; 8577 :     return hr;
; 8578 : }

  00029	c3		 ret	 0
$LN2@StringLeng:

; 8570 :         }
; 8571 :         else
; 8572 :         {
; 8573 :             *pcchLength = 0;

  0002a	83 27 00	 and	 DWORD PTR [edi], 0
$LN1@StringLeng:

; 8574 :         }
; 8575 :     }
; 8576 : 
; 8577 :     return hr;
; 8578 : }

  0002d	c3		 ret	 0
?StringLengthWorkerA@@YGJPBDIPAI@Z ENDP			; StringLengthWorkerA
; Function compile flags: /Ogsp
_TEXT	ENDS
;	COMDAT ?StringValidateDestA@@YGJPBDII@Z
_TEXT	SEGMENT
_cchMax$ = 8						; size = 4
?StringValidateDestA@@YGJPBDII@Z PROC			; StringValidateDestA, COMDAT
; _cchDest$ = ecx

; 8721 : {

  00000	55		 push	 ebp
  00001	8b ec		 mov	 ebp, esp

; 8722 :     HRESULT hr = S_OK;

  00003	33 c0		 xor	 eax, eax

; 8723 : 
; 8724 :     if ((cchDest == 0) || (cchDest > cchMax))

  00005	85 c9		 test	 ecx, ecx
  00007	74 05		 je	 SHORT $LN1@StringVali
  00009	3b 4d 08	 cmp	 ecx, DWORD PTR _cchMax$[ebp]
  0000c	76 05		 jbe	 SHORT $LN2@StringVali
$LN1@StringVali:

; 8725 :     {
; 8726 :         hr = STRSAFE_E_INVALID_PARAMETER;

  0000e	b8 57 00 07 80	 mov	 eax, -2147024809	; 80070057H
$LN2@StringVali:

; 8727 :     }
; 8728 : 
; 8729 :     return hr;
; 8730 : }

  00013	5d		 pop	 ebp
  00014	c2 04 00	 ret	 4
?StringValidateDestA@@YGJPBDII@Z ENDP			; StringValidateDestA
; Function compile flags: /Ogsp
_TEXT	ENDS
;	COMDAT ?StringValidateDestAndLengthA@@YGJPBDIPAII@Z
_TEXT	SEGMENT
_pszDest$ = 8						; size = 4
_cchMax$ = 12						; size = 4
?StringValidateDestAndLengthA@@YGJPBDIPAII@Z PROC	; StringValidateDestAndLengthA, COMDAT
; _cchDest$ = ecx
; _pcchDestLength$ = esi

; 8743 : {

  00000	55		 push	 ebp
  00001	8b ec		 mov	 ebp, esp

; 8744 :     HRESULT hr;
; 8745 : 
; 8746 :     hr = StringValidateDestA(pszDest, cchDest, cchMax);

  00003	33 c0		 xor	 eax, eax
  00005	85 c9		 test	 ecx, ecx
  00007	74 05		 je	 SHORT $LN5@StringVali@2
  00009	3b 4d 0c	 cmp	 ecx, DWORD PTR _cchMax$[ebp]
  0000c	76 05		 jbe	 SHORT $LN6@StringVali@2
$LN5@StringVali@2:
  0000e	b8 57 00 07 80	 mov	 eax, -2147024809	; 80070057H
$LN6@StringVali@2:

; 8747 : 
; 8748 :     if (SUCCEEDED(hr))

  00013	85 c0		 test	 eax, eax
  00015	78 34		 js	 SHORT $LN2@StringVali@2

; 8749 :     {
; 8750 :         hr = StringLengthWorkerA(pszDest, cchDest, pcchDestLength);

  00017	8b 45 08	 mov	 eax, DWORD PTR _pszDest$[ebp]
  0001a	57		 push	 edi
  0001b	33 ff		 xor	 edi, edi
  0001d	8b d1		 mov	 edx, ecx
  0001f	85 c9		 test	 ecx, ecx
  00021	74 0d		 je	 SHORT $LN19@StringVali@2
$LL14@StringVali@2:
  00023	80 38 00	 cmp	 BYTE PTR [eax], 0
  00026	74 04		 je	 SHORT $LN13@StringVali@2
  00028	40		 inc	 eax
  00029	4a		 dec	 edx
  0002a	75 f7		 jne	 SHORT $LL14@StringVali@2
$LN13@StringVali@2:
  0002c	85 d2		 test	 edx, edx
  0002e	75 05		 jne	 SHORT $LN12@StringVali@2
$LN19@StringVali@2:
  00030	bf 57 00 07 80	 mov	 edi, -2147024809	; 80070057H
$LN12@StringVali@2:
  00035	85 f6		 test	 esi, esi
  00037	74 0d		 je	 SHORT $LN9@StringVali@2
  00039	85 ff		 test	 edi, edi
  0003b	78 06		 js	 SHORT $LN10@StringVali@2
  0003d	2b ca		 sub	 ecx, edx
  0003f	89 0e		 mov	 DWORD PTR [esi], ecx
  00041	eb 03		 jmp	 SHORT $LN9@StringVali@2
$LN10@StringVali@2:
  00043	83 26 00	 and	 DWORD PTR [esi], 0
$LN9@StringVali@2:
  00046	8b c7		 mov	 eax, edi
  00048	5f		 pop	 edi

; 8751 :     }
; 8752 :     else

  00049	eb 03		 jmp	 SHORT $LN1@StringVali@2
$LN2@StringVali@2:

; 8753 :     {
; 8754 :         *pcchDestLength = 0;

  0004b	83 26 00	 and	 DWORD PTR [esi], 0
$LN1@StringVali@2:

; 8755 :     }
; 8756 : 
; 8757 :     return hr;
; 8758 : }

  0004e	5d		 pop	 ebp
  0004f	c2 08 00	 ret	 8
?StringValidateDestAndLengthA@@YGJPBDIPAII@Z ENDP	; StringValidateDestAndLengthA
; Function compile flags: /Ogsp
_TEXT	ENDS
;	COMDAT ?StringCopyWorkerA@@YGJPADIPAIPBDI@Z
_TEXT	SEGMENT
_hr$ = -4						; size = 4
_pcchNewDestLength$ = 8					; size = 4
_pszSrc$ = 12						; size = 4
_cchToCopy$ = 16					; size = 4
?StringCopyWorkerA@@YGJPADIPAIPBDI@Z PROC		; StringCopyWorkerA, COMDAT
; _pszDest$ = ecx
; _cchDest$ = eax

; 8947 : {

  00000	55		 push	 ebp
  00001	8b ec		 mov	 ebp, esp
  00003	51		 push	 ecx

; 8948 :     HRESULT hr = S_OK;

  00004	83 65 fc 00	 and	 DWORD PTR _hr$[ebp], 0
  00008	57		 push	 edi
  00009	8b f8		 mov	 edi, eax

; 8949 :     size_t cchNewDestLength = 0;

  0000b	33 c0		 xor	 eax, eax

; 8950 :     
; 8951 :     // ASSERT(cchDest != 0);
; 8952 : 
; 8953 :     while (cchDest && cchToCopy && (*pszSrc != '\0'))

  0000d	85 ff		 test	 edi, edi
  0000f	74 23		 je	 SHORT $LN9@StringCopy

; 8948 :     HRESULT hr = S_OK;

  00011	53		 push	 ebx
  00012	8b 5d 10	 mov	 ebx, DWORD PTR _cchToCopy$[ebp]
  00015	56		 push	 esi

; 8950 :     
; 8951 :     // ASSERT(cchDest != 0);
; 8952 : 
; 8953 :     while (cchDest && cchToCopy && (*pszSrc != '\0'))

  00016	8b 75 0c	 mov	 esi, DWORD PTR _pszSrc$[ebp]
  00019	2b f1		 sub	 esi, ecx
$LL4@StringCopy:
  0001b	85 db		 test	 ebx, ebx
  0001d	74 0f		 je	 SHORT $LN11@StringCopy
  0001f	8a 14 0e	 mov	 dl, BYTE PTR [esi+ecx]
  00022	84 d2		 test	 dl, dl
  00024	74 08		 je	 SHORT $LN11@StringCopy

; 8954 :     {
; 8955 :         *pszDest++ = *pszSrc++;

  00026	88 11		 mov	 BYTE PTR [ecx], dl
  00028	41		 inc	 ecx

; 8956 :         cchDest--;

  00029	4b		 dec	 ebx

; 8957 :         cchToCopy--;
; 8958 : 
; 8959 :         cchNewDestLength++;

  0002a	40		 inc	 eax
  0002b	4f		 dec	 edi
  0002c	75 ed		 jne	 SHORT $LL4@StringCopy
$LN11@StringCopy:
  0002e	5e		 pop	 esi
  0002f	5b		 pop	 ebx

; 8960 :     }
; 8961 : 
; 8962 :     if (cchDest == 0)

  00030	85 ff		 test	 edi, edi
  00032	75 09		 jne	 SHORT $LN2@StringCopy
$LN9@StringCopy:

; 8963 :     {
; 8964 :         // we are going to truncate pszDest
; 8965 :         pszDest--;

  00034	49		 dec	 ecx

; 8966 :         cchNewDestLength--;

  00035	48		 dec	 eax

; 8967 : 
; 8968 :         hr = STRSAFE_E_INSUFFICIENT_BUFFER;

  00036	c7 45 fc 7a 00
	07 80		 mov	 DWORD PTR _hr$[ebp], -2147024774 ; 8007007aH
$LN2@StringCopy:

; 8969 :     }
; 8970 : 
; 8971 :     *pszDest = '\0';

  0003d	c6 01 00	 mov	 BYTE PTR [ecx], 0

; 8972 : 
; 8973 :     if (pcchNewDestLength)

  00040	8b 4d 08	 mov	 ecx, DWORD PTR _pcchNewDestLength$[ebp]
  00043	5f		 pop	 edi
  00044	85 c9		 test	 ecx, ecx
  00046	74 02		 je	 SHORT $LN1@StringCopy

; 8974 :     {
; 8975 :         *pcchNewDestLength = cchNewDestLength;

  00048	89 01		 mov	 DWORD PTR [ecx], eax
$LN1@StringCopy:

; 8976 :     }
; 8977 : 
; 8978 :     return hr;

  0004a	8b 45 fc	 mov	 eax, DWORD PTR _hr$[ebp]

; 8979 : }

  0004d	c9		 leave
  0004e	c2 0c 00	 ret	 12			; 0000000cH
?StringCopyWorkerA@@YGJPADIPAIPBDI@Z ENDP		; StringCopyWorkerA
_TEXT	ENDS
PUBLIC	?_DECSTR@@YAXPADH@Z				; _DECSTR
; Function compile flags: /Ogsp
; File d:\lost saga for developer\youtube\tutorial\source\src\lsclient\stringprotect.h
;	COMDAT ?_DECSTR@@YAXPADH@Z
_TEXT	SEGMENT
_s$ = 8							; size = 4
_l$ = 12						; size = 4
?_DECSTR@@YAXPADH@Z PROC				; _DECSTR, COMDAT

; 40   : __forceinline void _DECSTR(char* s, int l){int i=0,l4=(l-1)/4,*p=(int*)s;s[l-1]=0;for(;i<l4;++i)*(p++)^=0xEAEBECED;for(i=l4*4;i<l-1;++i)s[i]^=0xED-i%4;}

  00000	55		 push	 ebp
  00001	8b ec		 mov	 ebp, esp
  00003	8b 4d 0c	 mov	 ecx, DWORD PTR _l$[ebp]
  00006	56		 push	 esi
  00007	8b 75 08	 mov	 esi, DWORD PTR _s$[ebp]
  0000a	57		 push	 edi
  0000b	8d 79 ff	 lea	 edi, DWORD PTR [ecx-1]
  0000e	8b c7		 mov	 eax, edi
  00010	99		 cdq
  00011	83 e2 03	 and	 edx, 3
  00014	03 c2		 add	 eax, edx
  00016	c1 f8 02	 sar	 eax, 2
  00019	8b d6		 mov	 edx, esi
  0001b	c6 44 0e ff 00	 mov	 BYTE PTR [esi+ecx-1], 0
  00020	85 c0		 test	 eax, eax
  00022	7e 0e		 jle	 SHORT $LN4@DECSTR
  00024	8b c8		 mov	 ecx, eax
$LL6@DECSTR:
  00026	81 32 ed ec eb
	ea		 xor	 DWORD PTR [edx], -353637139 ; eaebecedH
  0002c	83 c2 04	 add	 edx, 4
  0002f	49		 dec	 ecx
  00030	75 f4		 jne	 SHORT $LL6@DECSTR
$LN4@DECSTR:
  00032	c1 e0 02	 shl	 eax, 2
  00035	eb 17		 jmp	 SHORT $LN14@DECSTR
$LL3@DECSTR:
  00037	8b c8		 mov	 ecx, eax
  00039	81 e1 03 00 00
	80		 and	 ecx, -2147483645	; 80000003H
  0003f	79 05		 jns	 SHORT $LN13@DECSTR
  00041	49		 dec	 ecx
  00042	83 c9 fc	 or	 ecx, -4			; fffffffcH
  00045	41		 inc	 ecx
$LN13@DECSTR:
  00046	b2 ed		 mov	 dl, -19			; ffffffedH
  00048	2a d1		 sub	 dl, cl
  0004a	30 14 30	 xor	 BYTE PTR [eax+esi], dl
  0004d	40		 inc	 eax
$LN14@DECSTR:
  0004e	3b c7		 cmp	 eax, edi
  00050	7c e5		 jl	 SHORT $LL3@DECSTR
  00052	5f		 pop	 edi
  00053	5e		 pop	 esi
  00054	5d		 pop	 ebp
  00055	c3		 ret	 0
?_DECSTR@@YAXPADH@Z ENDP				; _DECSTR
_TEXT	ENDS
EXTRN	__imp_??0exception@std@@QAE@ABV01@@Z:PROC
; Function compile flags: /Ogsp
;	COMDAT ??0bad_alloc@std@@QAE@ABV01@@Z
_TEXT	SEGMENT
___that$ = 8						; size = 4
??0bad_alloc@std@@QAE@ABV01@@Z PROC			; std::bad_alloc::bad_alloc, COMDAT
; _this$ = ecx
  00000	55		 push	 ebp
  00001	8b ec		 mov	 ebp, esp
  00003	56		 push	 esi
  00004	ff 75 08	 push	 DWORD PTR ___that$[ebp]
  00007	8b f1		 mov	 esi, ecx
  00009	ff 15 00 00 00
	00		 call	 DWORD PTR __imp_??0exception@std@@QAE@ABV01@@Z
  0000f	c7 06 00 00 00
	00		 mov	 DWORD PTR [esi], OFFSET ??_7bad_alloc@std@@6B@
  00015	8b c6		 mov	 eax, esi
  00017	5e		 pop	 esi
  00018	5d		 pop	 ebp
  00019	c2 04 00	 ret	 4
??0bad_alloc@std@@QAE@ABV01@@Z ENDP			; std::bad_alloc::bad_alloc
_TEXT	ENDS
PUBLIC	??$forward@AAVioHashString@@@std@@YAAAVioHashString@@AAV1@@Z ; std::forward<ioHashString &>
; Function compile flags: /Ogsp
; File c:\program files (x86)\microsoft visual studio 10.0\vc\include\utility
;	COMDAT ??$forward@AAVioHashString@@@std@@YAAAVioHashString@@AAV1@@Z
_TEXT	SEGMENT
__Arg$ = 8						; size = 4
??$forward@AAVioHashString@@@std@@YAAAVioHashString@@AAV1@@Z PROC ; std::forward<ioHashString &>, COMDAT

; 78   : 	{	// forward _Arg, given explicitly specified type parameter

  00000	55		 push	 ebp
  00001	8b ec		 mov	 ebp, esp

; 79   : 	return ((_Ty&&)_Arg);

  00003	8b 45 08	 mov	 eax, DWORD PTR __Arg$[ebp]

; 80   : 	}

  00006	5d		 pop	 ebp
  00007	c3		 ret	 0
??$forward@AAVioHashString@@@std@@YAAAVioHashString@@AAV1@@Z ENDP ; std::forward<ioHashString &>
_TEXT	ENDS
PUBLIC	??$forward@AAK@std@@YAAAKAAK@Z			; std::forward<unsigned long &>
; Function compile flags: /Ogsp
;	COMDAT ??$forward@AAK@std@@YAAAKAAK@Z
_TEXT	SEGMENT
__Arg$ = 8						; size = 4
??$forward@AAK@std@@YAAAKAAK@Z PROC			; std::forward<unsigned long &>, COMDAT

; 78   : 	{	// forward _Arg, given explicitly specified type parameter

  00000	55		 push	 ebp
  00001	8b ec		 mov	 ebp, esp

; 79   : 	return ((_Ty&&)_Arg);

  00003	8b 45 08	 mov	 eax, DWORD PTR __Arg$[ebp]

; 80   : 	}

  00006	5d		 pop	 ebp
  00007	c3		 ret	 0
??$forward@AAK@std@@YAAAKAAK@Z ENDP			; std::forward<unsigned long &>
_TEXT	ENDS
PUBLIC	??$_Move@AAD@std@@YA$$QADAAD@Z			; std::_Move<char &>
; Function compile flags: /Ogsp
;	COMDAT ??$_Move@AAD@std@@YA$$QADAAD@Z
_TEXT	SEGMENT
__Arg$ = 8						; size = 4
??$_Move@AAD@std@@YA$$QADAAD@Z PROC			; std::_Move<char &>, COMDAT

; 94   : 	{	// forward _Arg as movable

  00000	55		 push	 ebp
  00001	8b ec		 mov	 ebp, esp

; 95   : 	return ((typename tr1::_Remove_reference<_Ty>::_Type&&)_Arg);

  00003	8b 45 08	 mov	 eax, DWORD PTR __Arg$[ebp]

; 96   : 	}

  00006	5d		 pop	 ebp
  00007	c3		 ret	 0
??$_Move@AAD@std@@YA$$QADAAD@Z ENDP			; std::_Move<char &>
_TEXT	ENDS
PUBLIC	??$move@AA_N@std@@YA$$QA_NAA_N@Z		; std::move<bool &>
; Function compile flags: /Ogsp
;	COMDAT ??$move@AA_N@std@@YA$$QA_NAA_N@Z
_TEXT	SEGMENT
__Arg$ = 8						; size = 4
??$move@AA_N@std@@YA$$QA_NAA_N@Z PROC			; std::move<bool &>, COMDAT

; 86   : 	{	// forward _Arg as movable

  00000	55		 push	 ebp
  00001	8b ec		 mov	 ebp, esp

; 87   : 	return ((typename tr1::_Remove_reference<_Ty>::_Type&&)_Arg);

  00003	8b 45 08	 mov	 eax, DWORD PTR __Arg$[ebp]

; 88   : 	}

  00006	5d		 pop	 ebp
  00007	c3		 ret	 0
??$move@AA_N@std@@YA$$QA_NAA_N@Z ENDP			; std::move<bool &>
_TEXT	ENDS
PUBLIC	??$move@AAVioHashString@@@std@@YA$$QAVioHashString@@AAV1@@Z ; std::move<ioHashString &>
; Function compile flags: /Ogsp
;	COMDAT ??$move@AAVioHashString@@@std@@YA$$QAVioHashString@@AAV1@@Z
_TEXT	SEGMENT
__Arg$ = 8						; size = 4
??$move@AAVioHashString@@@std@@YA$$QAVioHashString@@AAV1@@Z PROC ; std::move<ioHashString &>, COMDAT

; 86   : 	{	// forward _Arg as movable

  00000	55		 push	 ebp
  00001	8b ec		 mov	 ebp, esp

; 87   : 	return ((typename tr1::_Remove_reference<_Ty>::_Type&&)_Arg);

  00003	8b 45 08	 mov	 eax, DWORD PTR __Arg$[ebp]

; 88   : 	}

  00006	5d		 pop	 ebp
  00007	c3		 ret	 0
??$move@AAVioHashString@@@std@@YA$$QAVioHashString@@AAV1@@Z ENDP ; std::move<ioHashString &>
_TEXT	ENDS
PUBLIC	??$forward@_N@std@@YA$$QA_NAA_N@Z		; std::forward<bool>
; Function compile flags: /Ogsp
;	COMDAT ??$forward@_N@std@@YA$$QA_NAA_N@Z
_TEXT	SEGMENT
__Arg$ = 8						; size = 4
??$forward@_N@std@@YA$$QA_NAA_N@Z PROC			; std::forward<bool>, COMDAT

; 78   : 	{	// forward _Arg, given explicitly specified type parameter

  00000	55		 push	 ebp
  00001	8b ec		 mov	 ebp, esp

; 79   : 	return ((_Ty&&)_Arg);

  00003	8b 45 08	 mov	 eax, DWORD PTR __Arg$[ebp]

; 80   : 	}

  00006	5d		 pop	 ebp
  00007	c3		 ret	 0
??$forward@_N@std@@YA$$QA_NAA_N@Z ENDP			; std::forward<bool>
_TEXT	ENDS
PUBLIC	??1?$pair@$$CBKVioHashString@@@std@@QAE@XZ	; std::pair<unsigned long const ,ioHashString>::~pair<unsigned long const ,ioHashString>
; Function compile flags: /Ogsp
;	COMDAT ??1?$pair@$$CBKVioHashString@@@std@@QAE@XZ
_TEXT	SEGMENT
??1?$pair@$$CBKVioHashString@@@std@@QAE@XZ PROC		; std::pair<unsigned long const ,ioHashString>::~pair<unsigned long const ,ioHashString>, COMDAT
; _this$ = ecx
  00000	83 c1 04	 add	 ecx, 4
  00003	ff 25 00 00 00
	00		 jmp	 DWORD PTR __imp_??1ioHashString@@QAE@XZ
??1?$pair@$$CBKVioHashString@@@std@@QAE@XZ ENDP		; std::pair<unsigned long const ,ioHashString>::~pair<unsigned long const ,ioHashString>
_TEXT	ENDS
PUBLIC	??9?$_Tree_const_iterator@V?$_Tree_val@V?$_Tmap_traits@KVioHashString@@U?$less@K@std@@V?$allocator@U?$pair@$$CBKVioHashString@@@std@@@3@$0A@@std@@@std@@@std@@QBE_NABV01@@Z ; std::_Tree_const_iterator<std::_Tree_val<std::_Tmap_traits<unsigned long,ioHashString,std::less<unsigned long>,std::allocator<std::pair<unsigned long const ,ioHashString> >,0> > >::operator!=
; Function compile flags: /Ogsp
; File c:\program files (x86)\microsoft visual studio 10.0\vc\include\xtree
;	COMDAT ??9?$_Tree_const_iterator@V?$_Tree_val@V?$_Tmap_traits@KVioHashString@@U?$less@K@std@@V?$allocator@U?$pair@$$CBKVioHashString@@@std@@@3@$0A@@std@@@std@@@std@@QBE_NABV01@@Z
_TEXT	SEGMENT
__Right$ = 8						; size = 4
??9?$_Tree_const_iterator@V?$_Tree_val@V?$_Tmap_traits@KVioHashString@@U?$less@K@std@@V?$allocator@U?$pair@$$CBKVioHashString@@@std@@@3@$0A@@std@@@std@@@std@@QBE_NABV01@@Z PROC ; std::_Tree_const_iterator<std::_Tree_val<std::_Tmap_traits<unsigned long,ioHashString,std::less<unsigned long>,std::allocator<std::pair<unsigned long const ,ioHashString> >,0> > >::operator!=, COMDAT
; _this$ = ecx

; 334  : 		{	// test for iterator inequality

  00000	55		 push	 ebp
  00001	8b ec		 mov	 ebp, esp

; 335  : 		return (!(*this == _Right));

  00003	8b 01		 mov	 eax, DWORD PTR [ecx]
  00005	8b 55 08	 mov	 edx, DWORD PTR __Right$[ebp]
  00008	33 c9		 xor	 ecx, ecx
  0000a	3b 02		 cmp	 eax, DWORD PTR [edx]
  0000c	0f 95 c0	 setne	 al

; 336  : 		}

  0000f	5d		 pop	 ebp
  00010	c2 04 00	 ret	 4
??9?$_Tree_const_iterator@V?$_Tree_val@V?$_Tmap_traits@KVioHashString@@U?$less@K@std@@V?$allocator@U?$pair@$$CBKVioHashString@@@std@@@3@$0A@@std@@@std@@@std@@QBE_NABV01@@Z ENDP ; std::_Tree_const_iterator<std::_Tree_val<std::_Tmap_traits<unsigned long,ioHashString,std::less<unsigned long>,std::allocator<std::pair<unsigned long const ,ioHashString> >,0> > >::operator!=
_TEXT	ENDS
PUBLIC	?_Lmost@?$_Tree@V?$_Tmap_traits@KVioHashString@@U?$less@K@std@@V?$allocator@U?$pair@$$CBKVioHashString@@@std@@@3@$0A@@std@@@std@@IBEAAPAU_Node@?$_Tree_nod@V?$_Tmap_traits@KVioHashString@@U?$less@K@std@@V?$allocator@U?$pair@$$CBKVioHashString@@@std@@@3@$0A@@std@@@2@XZ ; std::_Tree<std::_Tmap_traits<unsigned long,ioHashString,std::less<unsigned long>,std::allocator<std::pair<unsigned long const ,ioHashString> >,0> >::_Lmost
; Function compile flags: /Ogsp
;	COMDAT ?_Lmost@?$_Tree@V?$_Tmap_traits@KVioHashString@@U?$less@K@std@@V?$allocator@U?$pair@$$CBKVioHashString@@@std@@@3@$0A@@std@@@std@@IBEAAPAU_Node@?$_Tree_nod@V?$_Tmap_traits@KVioHashString@@U?$less@K@std@@V?$allocator@U?$pair@$$CBKVioHashString@@@std@@@3@$0A@@std@@@2@XZ
_TEXT	SEGMENT
?_Lmost@?$_Tree@V?$_Tmap_traits@KVioHashString@@U?$less@K@std@@V?$allocator@U?$pair@$$CBKVioHashString@@@std@@@3@$0A@@std@@@std@@IBEAAPAU_Node@?$_Tree_nod@V?$_Tmap_traits@KVioHashString@@U?$less@K@std@@V?$allocator@U?$pair@$$CBKVioHashString@@@std@@@3@$0A@@std@@@2@XZ PROC ; std::_Tree<std::_Tmap_traits<unsigned long,ioHashString,std::less<unsigned long>,std::allocator<std::pair<unsigned long const ,ioHashString> >,0> >::_Lmost, COMDAT
; _this$ = ecx

; 1759 : 		return (this->_Left(this->_Myhead));

  00000	8b 41 04	 mov	 eax, DWORD PTR [ecx+4]

; 1760 : 		}

  00003	c3		 ret	 0
?_Lmost@?$_Tree@V?$_Tmap_traits@KVioHashString@@U?$less@K@std@@V?$allocator@U?$pair@$$CBKVioHashString@@@std@@@3@$0A@@std@@@std@@IBEAAPAU_Node@?$_Tree_nod@V?$_Tmap_traits@KVioHashString@@U?$less@K@std@@V?$allocator@U?$pair@$$CBKVioHashString@@@std@@@3@$0A@@std@@@2@XZ ENDP ; std::_Tree<std::_Tmap_traits<unsigned long,ioHashString,std::less<unsigned long>,std::allocator<std::pair<unsigned long const ,ioHashString> >,0> >::_Lmost
_TEXT	ENDS
PUBLIC	?_Rmost@?$_Tree@V?$_Tmap_traits@KVioHashString@@U?$less@K@std@@V?$allocator@U?$pair@$$CBKVioHashString@@@std@@@3@$0A@@std@@@std@@IBEAAPAU_Node@?$_Tree_nod@V?$_Tmap_traits@KVioHashString@@U?$less@K@std@@V?$allocator@U?$pair@$$CBKVioHashString@@@std@@@3@$0A@@std@@@2@XZ ; std::_Tree<std::_Tmap_traits<unsigned long,ioHashString,std::less<unsigned long>,std::allocator<std::pair<unsigned long const ,ioHashString> >,0> >::_Rmost
; Function compile flags: /Ogsp
;	COMDAT ?_Rmost@?$_Tree@V?$_Tmap_traits@KVioHashString@@U?$less@K@std@@V?$allocator@U?$pair@$$CBKVioHashString@@@std@@@3@$0A@@std@@@std@@IBEAAPAU_Node@?$_Tree_nod@V?$_Tmap_traits@KVioHashString@@U?$less@K@std@@V?$allocator@U?$pair@$$CBKVioHashString@@@std@@@3@$0A@@std@@@2@XZ
_TEXT	SEGMENT
?_Rmost@?$_Tree@V?$_Tmap_traits@KVioHashString@@U?$less@K@std@@V?$allocator@U?$pair@$$CBKVioHashString@@@std@@@3@$0A@@std@@@std@@IBEAAPAU_Node@?$_Tree_nod@V?$_Tmap_traits@KVioHashString@@U?$less@K@std@@V?$allocator@U?$pair@$$CBKVioHashString@@@std@@@3@$0A@@std@@@2@XZ PROC ; std::_Tree<std::_Tmap_traits<unsigned long,ioHashString,std::less<unsigned long>,std::allocator<std::pair<unsigned long const ,ioHashString> >,0> >::_Rmost, COMDAT
; _this$ = ecx

; 1784 : 		return (this->_Right(this->_Myhead));

  00000	8b 41 04	 mov	 eax, DWORD PTR [ecx+4]
  00003	83 c0 08	 add	 eax, 8

; 1785 : 		}

  00006	c3		 ret	 0
?_Rmost@?$_Tree@V?$_Tmap_traits@KVioHashString@@U?$less@K@std@@V?$allocator@U?$pair@$$CBKVioHashString@@@std@@@3@$0A@@std@@@std@@IBEAAPAU_Node@?$_Tree_nod@V?$_Tmap_traits@KVioHashString@@U?$less@K@std@@V?$allocator@U?$pair@$$CBKVioHashString@@@std@@@3@$0A@@std@@@2@XZ ENDP ; std::_Tree<std::_Tmap_traits<unsigned long,ioHashString,std::less<unsigned long>,std::allocator<std::pair<unsigned long const ,ioHashString> >,0> >::_Rmost
_TEXT	ENDS
PUBLIC	?_Root@?$_Tree@V?$_Tmap_traits@KVioHashString@@U?$less@K@std@@V?$allocator@U?$pair@$$CBKVioHashString@@@std@@@3@$0A@@std@@@std@@IBEAAPAU_Node@?$_Tree_nod@V?$_Tmap_traits@KVioHashString@@U?$less@K@std@@V?$allocator@U?$pair@$$CBKVioHashString@@@std@@@3@$0A@@std@@@2@XZ ; std::_Tree<std::_Tmap_traits<unsigned long,ioHashString,std::less<unsigned long>,std::allocator<std::pair<unsigned long const ,ioHashString> >,0> >::_Root
; Function compile flags: /Ogsp
;	COMDAT ?_Root@?$_Tree@V?$_Tmap_traits@KVioHashString@@U?$less@K@std@@V?$allocator@U?$pair@$$CBKVioHashString@@@std@@@3@$0A@@std@@@std@@IBEAAPAU_Node@?$_Tree_nod@V?$_Tmap_traits@KVioHashString@@U?$less@K@std@@V?$allocator@U?$pair@$$CBKVioHashString@@@std@@@3@$0A@@std@@@2@XZ
_TEXT	SEGMENT
?_Root@?$_Tree@V?$_Tmap_traits@KVioHashString@@U?$less@K@std@@V?$allocator@U?$pair@$$CBKVioHashString@@@std@@@3@$0A@@std@@@std@@IBEAAPAU_Node@?$_Tree_nod@V?$_Tmap_traits@KVioHashString@@U?$less@K@std@@V?$allocator@U?$pair@$$CBKVioHashString@@@std@@@3@$0A@@std@@@2@XZ PROC ; std::_Tree<std::_Tmap_traits<unsigned long,ioHashString,std::less<unsigned long>,std::allocator<std::pair<unsigned long const ,ioHashString> >,0> >::_Root, COMDAT
; _this$ = ecx

; 1789 : 		return (this->_Parent(this->_Myhead));

  00000	8b 41 04	 mov	 eax, DWORD PTR [ecx+4]
  00003	83 c0 04	 add	 eax, 4

; 1790 : 		}

  00006	c3		 ret	 0
?_Root@?$_Tree@V?$_Tmap_traits@KVioHashString@@U?$less@K@std@@V?$allocator@U?$pair@$$CBKVioHashString@@@std@@@3@$0A@@std@@@std@@IBEAAPAU_Node@?$_Tree_nod@V?$_Tmap_traits@KVioHashString@@U?$less@K@std@@V?$allocator@U?$pair@$$CBKVioHashString@@@std@@@3@$0A@@std@@@2@XZ ENDP ; std::_Tree<std::_Tmap_traits<unsigned long,ioHashString,std::less<unsigned long>,std::allocator<std::pair<unsigned long const ,ioHashString> >,0> >::_Root
_TEXT	ENDS
PUBLIC	??1?$_Tree_val@V?$_Tmap_traits@KVioHashString@@U?$less@K@std@@V?$allocator@U?$pair@$$CBKVioHashString@@@std@@@3@$0A@@std@@@std@@QAE@XZ ; std::_Tree_val<std::_Tmap_traits<unsigned long,ioHashString,std::less<unsigned long>,std::allocator<std::pair<unsigned long const ,ioHashString> >,0> >::~_Tree_val<std::_Tmap_traits<unsigned long,ioHashString,std::less<unsigned long>,std::allocator<std::pair<unsigned long const ,ioHashString> >,0> >
; Function compile flags: /Ogsp
;	COMDAT ??1?$_Tree_val@V?$_Tmap_traits@KVioHashString@@U?$less@K@std@@V?$allocator@U?$pair@$$CBKVioHashString@@@std@@@3@$0A@@std@@@std@@QAE@XZ
_TEXT	SEGMENT
??1?$_Tree_val@V?$_Tmap_traits@KVioHashString@@U?$less@K@std@@V?$allocator@U?$pair@$$CBKVioHashString@@@std@@@3@$0A@@std@@@std@@QAE@XZ PROC ; std::_Tree_val<std::_Tmap_traits<unsigned long,ioHashString,std::less<unsigned long>,std::allocator<std::pair<unsigned long const ,ioHashString> >,0> >::~_Tree_val<std::_Tmap_traits<unsigned long,ioHashString,std::less<unsigned long>,std::allocator<std::pair<unsigned long const ,ioHashString> >,0> >, COMDAT
; _this$ = ecx

; 555  : 		this->_Alnod.deallocate(this->_Myhead, 1);

  00000	ff 71 04	 push	 DWORD PTR [ecx+4]
  00003	e8 00 00 00 00	 call	 ??3@YAXPAX@Z		; operator delete
  00008	59		 pop	 ecx

; 556  : 		}

  00009	c3		 ret	 0
??1?$_Tree_val@V?$_Tmap_traits@KVioHashString@@U?$less@K@std@@V?$allocator@U?$pair@$$CBKVioHashString@@@std@@@3@$0A@@std@@@std@@QAE@XZ ENDP ; std::_Tree_val<std::_Tmap_traits<unsigned long,ioHashString,std::less<unsigned long>,std::allocator<std::pair<unsigned long const ,ioHashString> >,0> >::~_Tree_val<std::_Tmap_traits<unsigned long,ioHashString,std::less<unsigned long>,std::allocator<std::pair<unsigned long const ,ioHashString> >,0> >
_TEXT	ENDS
PUBLIC	?_Key@?$_Tree_val@V?$_Tmap_traits@KVioHashString@@U?$less@K@std@@V?$allocator@U?$pair@$$CBKVioHashString@@@std@@@3@$0A@@std@@@std@@SAAAKPAU_Node@?$_Tree_nod@V?$_Tmap_traits@KVioHashString@@U?$less@K@std@@V?$allocator@U?$pair@$$CBKVioHashString@@@std@@@3@$0A@@std@@@2@@Z ; std::_Tree_val<std::_Tmap_traits<unsigned long,ioHashString,std::less<unsigned long>,std::allocator<std::pair<unsigned long const ,ioHashString> >,0> >::_Key
; Function compile flags: /Ogsp
;	COMDAT ?_Key@?$_Tree_val@V?$_Tmap_traits@KVioHashString@@U?$less@K@std@@V?$allocator@U?$pair@$$CBKVioHashString@@@std@@@3@$0A@@std@@@std@@SAAAKPAU_Node@?$_Tree_nod@V?$_Tmap_traits@KVioHashString@@U?$less@K@std@@V?$allocator@U?$pair@$$CBKVioHashString@@@std@@@3@$0A@@std@@@2@@Z
_TEXT	SEGMENT
__Pnode$ = 8						; size = 4
?_Key@?$_Tree_val@V?$_Tmap_traits@KVioHashString@@U?$less@K@std@@V?$allocator@U?$pair@$$CBKVioHashString@@@std@@@3@$0A@@std@@@std@@SAAAKPAU_Node@?$_Tree_nod@V?$_Tmap_traits@KVioHashString@@U?$less@K@std@@V?$allocator@U?$pair@$$CBKVioHashString@@@std@@@3@$0A@@std@@@2@@Z PROC ; std::_Tree_val<std::_Tmap_traits<unsigned long,ioHashString,std::less<unsigned long>,std::allocator<std::pair<unsigned long const ,ioHashString> >,0> >::_Key, COMDAT

; 616  : 		{	// return reference to key in node

  00000	55		 push	 ebp
  00001	8b ec		 mov	 ebp, esp

; 617  : 		return ((key_type&)_Traits::_Kfn(_Myval(_Pnode)));

  00003	8b 45 08	 mov	 eax, DWORD PTR __Pnode$[ebp]
  00006	83 c0 0c	 add	 eax, 12			; 0000000cH

; 618  : 		}

  00009	5d		 pop	 ebp
  0000a	c3		 ret	 0
?_Key@?$_Tree_val@V?$_Tmap_traits@KVioHashString@@U?$less@K@std@@V?$allocator@U?$pair@$$CBKVioHashString@@@std@@@3@$0A@@std@@@std@@SAAAKPAU_Node@?$_Tree_nod@V?$_Tmap_traits@KVioHashString@@U?$less@K@std@@V?$allocator@U?$pair@$$CBKVioHashString@@@std@@@3@$0A@@std@@@2@@Z ENDP ; std::_Tree_val<std::_Tmap_traits<unsigned long,ioHashString,std::less<unsigned long>,std::allocator<std::pair<unsigned long const ,ioHashString> >,0> >::_Key
_TEXT	ENDS
PUBLIC	??D?$_Tree_iterator@V?$_Tree_val@V?$_Tmap_traits@KVioHashString@@U?$less@K@std@@V?$allocator@U?$pair@$$CBKVioHashString@@@std@@@3@$0A@@std@@@std@@@std@@QBEAAU?$pair@$$CBKVioHashString@@@1@XZ ; std::_Tree_iterator<std::_Tree_val<std::_Tmap_traits<unsigned long,ioHashString,std::less<unsigned long>,std::allocator<std::pair<unsigned long const ,ioHashString> >,0> > >::operator*
; Function compile flags: /Ogsp
;	COMDAT ??D?$_Tree_iterator@V?$_Tree_val@V?$_Tmap_traits@KVioHashString@@U?$less@K@std@@V?$allocator@U?$pair@$$CBKVioHashString@@@std@@@3@$0A@@std@@@std@@@std@@QBEAAU?$pair@$$CBKVioHashString@@@1@XZ
_TEXT	SEGMENT
??D?$_Tree_iterator@V?$_Tree_val@V?$_Tmap_traits@KVioHashString@@U?$less@K@std@@V?$allocator@U?$pair@$$CBKVioHashString@@@std@@@3@$0A@@std@@@std@@@std@@QBEAAU?$pair@$$CBKVioHashString@@@1@XZ PROC ; std::_Tree_iterator<std::_Tree_val<std::_Tmap_traits<unsigned long,ioHashString,std::less<unsigned long>,std::allocator<std::pair<unsigned long const ,ioHashString> >,0> > >::operator*, COMDAT
; _this$ = ecx

; 396  : 		return ((reference)**(_Mybase *)this);

  00000	8b 01		 mov	 eax, DWORD PTR [ecx]
  00002	83 c0 0c	 add	 eax, 12			; 0000000cH

; 397  : 		}

  00005	c3		 ret	 0
??D?$_Tree_iterator@V?$_Tree_val@V?$_Tmap_traits@KVioHashString@@U?$less@K@std@@V?$allocator@U?$pair@$$CBKVioHashString@@@std@@@3@$0A@@std@@@std@@@std@@QBEAAU?$pair@$$CBKVioHashString@@@1@XZ ENDP ; std::_Tree_iterator<std::_Tree_val<std::_Tmap_traits<unsigned long,ioHashString,std::less<unsigned long>,std::allocator<std::pair<unsigned long const ,ioHashString> >,0> > >::operator*
_TEXT	ENDS
PUBLIC	?_Lbound@?$_Tree@V?$_Tmap_traits@KVioHashString@@U?$less@K@std@@V?$allocator@U?$pair@$$CBKVioHashString@@@std@@@3@$0A@@std@@@std@@IAEPAU_Node@?$_Tree_nod@V?$_Tmap_traits@KVioHashString@@U?$less@K@std@@V?$allocator@U?$pair@$$CBKVioHashString@@@std@@@3@$0A@@std@@@2@ABK@Z ; std::_Tree<std::_Tmap_traits<unsigned long,ioHashString,std::less<unsigned long>,std::allocator<std::pair<unsigned long const ,ioHashString> >,0> >::_Lbound
; Function compile flags: /Ogsp
;	COMDAT ?_Lbound@?$_Tree@V?$_Tmap_traits@KVioHashString@@U?$less@K@std@@V?$allocator@U?$pair@$$CBKVioHashString@@@std@@@3@$0A@@std@@@std@@IAEPAU_Node@?$_Tree_nod@V?$_Tmap_traits@KVioHashString@@U?$less@K@std@@V?$allocator@U?$pair@$$CBKVioHashString@@@std@@@3@$0A@@std@@@2@ABK@Z
_TEXT	SEGMENT
__Keyval$ = 8						; size = 4
?_Lbound@?$_Tree@V?$_Tmap_traits@KVioHashString@@U?$less@K@std@@V?$allocator@U?$pair@$$CBKVioHashString@@@std@@@3@$0A@@std@@@std@@IAEPAU_Node@?$_Tree_nod@V?$_Tmap_traits@KVioHashString@@U?$less@K@std@@V?$allocator@U?$pair@$$CBKVioHashString@@@std@@@3@$0A@@std@@@2@ABK@Z PROC ; std::_Tree<std::_Tmap_traits<unsigned long,ioHashString,std::less<unsigned long>,std::allocator<std::pair<unsigned long const ,ioHashString> >,0> >::_Lbound, COMDAT
; _this$ = ecx

; 1741 : 		{	// find leftmost node not less than _Keyval

  00000	55		 push	 ebp
  00001	8b ec		 mov	 ebp, esp

; 1742 : 		_Nodeptr _Pnode = _Root();

  00003	8b 41 04	 mov	 eax, DWORD PTR [ecx+4]
  00006	8b 48 04	 mov	 ecx, DWORD PTR [eax+4]

; 1743 : 		_Nodeptr _Wherenode = this->_Myhead;	// end() if search fails
; 1744 : 
; 1745 : 		while (!this->_Isnil(_Pnode))

  00009	80 79 21 00	 cmp	 BYTE PTR [ecx+33], 0
  0000d	75 19		 jne	 SHORT $LN3@Lbound
  0000f	8b 55 08	 mov	 edx, DWORD PTR __Keyval$[ebp]
  00012	8b 12		 mov	 edx, DWORD PTR [edx]
$LL4@Lbound:

; 1746 : 			if (_DEBUG_LT_PRED(this->comp, this->_Key(_Pnode), _Keyval))

  00014	39 51 0c	 cmp	 DWORD PTR [ecx+12], edx
  00017	73 05		 jae	 SHORT $LN2@Lbound

; 1747 : 				_Pnode = this->_Right(_Pnode);	// descend right subtree

  00019	8b 49 08	 mov	 ecx, DWORD PTR [ecx+8]

; 1748 : 			else

  0001c	eb 04		 jmp	 SHORT $LN1@Lbound
$LN2@Lbound:

; 1749 : 				{	// _Pnode not less than _Keyval, remember it
; 1750 : 				_Wherenode = _Pnode;

  0001e	8b c1		 mov	 eax, ecx

; 1751 : 				_Pnode = this->_Left(_Pnode);	// descend left subtree

  00020	8b 09		 mov	 ecx, DWORD PTR [ecx]
$LN1@Lbound:

; 1743 : 		_Nodeptr _Wherenode = this->_Myhead;	// end() if search fails
; 1744 : 
; 1745 : 		while (!this->_Isnil(_Pnode))

  00022	80 79 21 00	 cmp	 BYTE PTR [ecx+33], 0
  00026	74 ec		 je	 SHORT $LL4@Lbound
$LN3@Lbound:

; 1752 : 				}
; 1753 : 
; 1754 : 		return (_Wherenode);	// return best remembered candidate
; 1755 : 		}

  00028	5d		 pop	 ebp
  00029	c2 04 00	 ret	 4
?_Lbound@?$_Tree@V?$_Tmap_traits@KVioHashString@@U?$less@K@std@@V?$allocator@U?$pair@$$CBKVioHashString@@@std@@@3@$0A@@std@@@std@@IAEPAU_Node@?$_Tree_nod@V?$_Tmap_traits@KVioHashString@@U?$less@K@std@@V?$allocator@U?$pair@$$CBKVioHashString@@@std@@@3@$0A@@std@@@2@ABK@Z ENDP ; std::_Tree<std::_Tmap_traits<unsigned long,ioHashString,std::less<unsigned long>,std::allocator<std::pair<unsigned long const ,ioHashString> >,0> >::_Lbound
_TEXT	ENDS
PUBLIC	??0?$_Tree_nod@V?$_Tmap_traits@KVioHashString@@U?$less@K@std@@V?$allocator@U?$pair@$$CBKVioHashString@@@std@@@3@$0A@@std@@@std@@QAE@ABU?$less@K@1@V?$allocator@U?$pair@$$CBKVioHashString@@@std@@@1@@Z ; std::_Tree_nod<std::_Tmap_traits<unsigned long,ioHashString,std::less<unsigned long>,std::allocator<std::pair<unsigned long const ,ioHashString> >,0> >::_Tree_nod<std::_Tmap_traits<unsigned long,ioHashString,std::less<unsigned long>,std::allocator<std::pair<unsigned long const ,ioHashString> >,0> >
; Function compile flags: /Ogsp
;	COMDAT ??0?$_Tree_nod@V?$_Tmap_traits@KVioHashString@@U?$less@K@std@@V?$allocator@U?$pair@$$CBKVioHashString@@@std@@@3@$0A@@std@@@std@@QAE@ABU?$less@K@1@V?$allocator@U?$pair@$$CBKVioHashString@@@std@@@1@@Z
_TEXT	SEGMENT
__Parg$ = 8						; size = 4
__Al$ = 12						; size = 1
??0?$_Tree_nod@V?$_Tmap_traits@KVioHashString@@U?$less@K@std@@V?$allocator@U?$pair@$$CBKVioHashString@@@std@@@3@$0A@@std@@@std@@QAE@ABU?$less@K@1@V?$allocator@U?$pair@$$CBKVioHashString@@@std@@@1@@Z PROC ; std::_Tree_nod<std::_Tmap_traits<unsigned long,ioHashString,std::less<unsigned long>,std::allocator<std::pair<unsigned long const ,ioHashString> >,0> >::_Tree_nod<std::_Tmap_traits<unsigned long,ioHashString,std::less<unsigned long>,std::allocator<std::pair<unsigned long const ,ioHashString> >,0> >, COMDAT
; _this$ = ecx

; 482  : 		{	// construct traits from _Parg and allocators from _Al

  00000	8b c1		 mov	 eax, ecx

; 483  : 		}

  00002	c2 08 00	 ret	 8
??0?$_Tree_nod@V?$_Tmap_traits@KVioHashString@@U?$less@K@std@@V?$allocator@U?$pair@$$CBKVioHashString@@@std@@@3@$0A@@std@@@std@@QAE@ABU?$less@K@1@V?$allocator@U?$pair@$$CBKVioHashString@@@std@@@1@@Z ENDP ; std::_Tree_nod<std::_Tmap_traits<unsigned long,ioHashString,std::less<unsigned long>,std::allocator<std::pair<unsigned long const ,ioHashString> >,0> >::_Tree_nod<std::_Tmap_traits<unsigned long,ioHashString,std::less<unsigned long>,std::allocator<std::pair<unsigned long const ,ioHashString> >,0> >
_TEXT	ENDS
PUBLIC	?allocate@?$allocator@U_Node@?$_Tree_nod@V?$_Tmap_traits@KVioHashString@@U?$less@K@std@@V?$allocator@U?$pair@$$CBKVioHashString@@@std@@@3@$0A@@std@@@std@@@std@@QAEPAU_Node@?$_Tree_nod@V?$_Tmap_traits@KVioHashString@@U?$less@K@std@@V?$allocator@U?$pair@$$CBKVioHashString@@@std@@@3@$0A@@std@@@2@I@Z ; std::allocator<std::_Tree_nod<std::_Tmap_traits<unsigned long,ioHashString,std::less<unsigned long>,std::allocator<std::pair<unsigned long const ,ioHashString> >,0> >::_Node>::allocate
; Function compile flags: /Ogsp
; File c:\program files (x86)\microsoft visual studio 10.0\vc\include\xmemory
;	COMDAT ?allocate@?$allocator@U_Node@?$_Tree_nod@V?$_Tmap_traits@KVioHashString@@U?$less@K@std@@V?$allocator@U?$pair@$$CBKVioHashString@@@std@@@3@$0A@@std@@@std@@@std@@QAEPAU_Node@?$_Tree_nod@V?$_Tmap_traits@KVioHashString@@U?$less@K@std@@V?$allocator@U?$pair@$$CBKVioHashString@@@std@@@3@$0A@@std@@@2@I@Z
_TEXT	SEGMENT
__Count$ = 8						; size = 4
?allocate@?$allocator@U_Node@?$_Tree_nod@V?$_Tmap_traits@KVioHashString@@U?$less@K@std@@V?$allocator@U?$pair@$$CBKVioHashString@@@std@@@3@$0A@@std@@@std@@@std@@QAEPAU_Node@?$_Tree_nod@V?$_Tmap_traits@KVioHashString@@U?$less@K@std@@V?$allocator@U?$pair@$$CBKVioHashString@@@std@@@3@$0A@@std@@@2@I@Z PROC ; std::allocator<std::_Tree_nod<std::_Tmap_traits<unsigned long,ioHashString,std::less<unsigned long>,std::allocator<std::pair<unsigned long const ,ioHashString> >,0> >::_Node>::allocate, COMDAT
; _this$ = ecx

; 186  : 		{	// allocate array of _Count elements

  00000	55		 push	 ebp
  00001	8b ec		 mov	 ebp, esp

; 187  : 		return (_Allocate(_Count, (pointer)0));

  00003	6a 00		 push	 0
  00005	ff 75 08	 push	 DWORD PTR __Count$[ebp]
  00008	e8 00 00 00 00	 call	 ??$_Allocate@U_Node@?$_Tree_nod@V?$_Tmap_traits@KVioHashString@@U?$less@K@std@@V?$allocator@U?$pair@$$CBKVioHashString@@@std@@@3@$0A@@std@@@std@@@std@@YAPAU_Node@?$_Tree_nod@V?$_Tmap_traits@KVioHashString@@U?$less@K@std@@V?$allocator@U?$pair@$$CBKVioHashString@@@std@@@3@$0A@@std@@@0@IPAU120@@Z ; std::_Allocate<std::_Tree_nod<std::_Tmap_traits<unsigned long,ioHashString,std::less<unsigned long>,std::allocator<std::pair<unsigned long const ,ioHashString> >,0> >::_Node>
  0000d	59		 pop	 ecx
  0000e	59		 pop	 ecx

; 188  : 		}

  0000f	5d		 pop	 ebp
  00010	c2 04 00	 ret	 4
?allocate@?$allocator@U_Node@?$_Tree_nod@V?$_Tmap_traits@KVioHashString@@U?$less@K@std@@V?$allocator@U?$pair@$$CBKVioHashString@@@std@@@3@$0A@@std@@@std@@@std@@QAEPAU_Node@?$_Tree_nod@V?$_Tmap_traits@KVioHashString@@U?$less@K@std@@V?$allocator@U?$pair@$$CBKVioHashString@@@std@@@3@$0A@@std@@@2@I@Z ENDP ; std::allocator<std::_Tree_nod<std::_Tmap_traits<unsigned long,ioHashString,std::less<unsigned long>,std::allocator<std::pair<unsigned long const ,ioHashString> >,0> >::_Node>::allocate
_TEXT	ENDS
PUBLIC	??0?$_Tree_unchecked_const_iterator@V?$_Tree_val@V?$_Tmap_traits@KVioHashString@@U?$less@K@std@@V?$allocator@U?$pair@$$CBKVioHashString@@@std@@@3@$0A@@std@@@std@@U_Iterator_base0@2@@std@@QAE@PAU_Node@?$_Tree_nod@V?$_Tmap_traits@KVioHashString@@U?$less@K@std@@V?$allocator@U?$pair@$$CBKVioHashString@@@std@@@3@$0A@@std@@@1@PBV?$_Tree_val@V?$_Tmap_traits@KVioHashString@@U?$less@K@std@@V?$allocator@U?$pair@$$CBKVioHashString@@@std@@@3@$0A@@std@@@1@@Z ; std::_Tree_unchecked_const_iterator<std::_Tree_val<std::_Tmap_traits<unsigned long,ioHashString,std::less<unsigned long>,std::allocator<std::pair<unsigned long const ,ioHashString> >,0> >,std::_Iterator_base0>::_Tree_unchecked_const_iterator<std::_Tree_val<std::_Tmap_traits<unsigned long,ioHashString,std::less<unsigned long>,std::allocator<std::pair<unsigned long const ,ioHashString> >,0> >,std::_Iterator_base0>
; Function compile flags: /Ogsp
; File c:\program files (x86)\microsoft visual studio 10.0\vc\include\xtree
;	COMDAT ??0?$_Tree_unchecked_const_iterator@V?$_Tree_val@V?$_Tmap_traits@KVioHashString@@U?$less@K@std@@V?$allocator@U?$pair@$$CBKVioHashString@@@std@@@3@$0A@@std@@@std@@U_Iterator_base0@2@@std@@QAE@PAU_Node@?$_Tree_nod@V?$_Tmap_traits@KVioHashString@@U?$less@K@std@@V?$allocator@U?$pair@$$CBKVioHashString@@@std@@@3@$0A@@std@@@1@PBV?$_Tree_val@V?$_Tmap_traits@KVioHashString@@U?$less@K@std@@V?$allocator@U?$pair@$$CBKVioHashString@@@std@@@3@$0A@@std@@@1@@Z
_TEXT	SEGMENT
__Pnode$ = 8						; size = 4
__Plist$ = 12						; size = 4
??0?$_Tree_unchecked_const_iterator@V?$_Tree_val@V?$_Tmap_traits@KVioHashString@@U?$less@K@std@@V?$allocator@U?$pair@$$CBKVioHashString@@@std@@@3@$0A@@std@@@std@@U_Iterator_base0@2@@std@@QAE@PAU_Node@?$_Tree_nod@V?$_Tmap_traits@KVioHashString@@U?$less@K@std@@V?$allocator@U?$pair@$$CBKVioHashString@@@std@@@3@$0A@@std@@@1@PBV?$_Tree_val@V?$_Tmap_traits@KVioHashString@@U?$less@K@std@@V?$allocator@U?$pair@$$CBKVioHashString@@@std@@@3@$0A@@std@@@1@@Z PROC ; std::_Tree_unchecked_const_iterator<std::_Tree_val<std::_Tmap_traits<unsigned long,ioHashString,std::less<unsigned long>,std::allocator<std::pair<unsigned long const ,ioHashString> >,0> >,std::_Iterator_base0>::_Tree_unchecked_const_iterator<std::_Tree_val<std::_Tmap_traits<unsigned long,ioHashString,std::less<unsigned long>,std::allocator<std::pair<unsigned long const ,ioHashString> >,0> >,std::_Iterator_base0>, COMDAT
; _this$ = ecx

; 43   : 		{	// construct with node pointer _Pnode

  00000	55		 push	 ebp
  00001	8b ec		 mov	 ebp, esp
  00003	8b c1		 mov	 eax, ecx
  00005	8b 4d 08	 mov	 ecx, DWORD PTR __Pnode$[ebp]
  00008	89 08		 mov	 DWORD PTR [eax], ecx

; 44   : 		this->_Adopt(_Plist);
; 45   : 		}

  0000a	5d		 pop	 ebp
  0000b	c2 08 00	 ret	 8
??0?$_Tree_unchecked_const_iterator@V?$_Tree_val@V?$_Tmap_traits@KVioHashString@@U?$less@K@std@@V?$allocator@U?$pair@$$CBKVioHashString@@@std@@@3@$0A@@std@@@std@@U_Iterator_base0@2@@std@@QAE@PAU_Node@?$_Tree_nod@V?$_Tmap_traits@KVioHashString@@U?$less@K@std@@V?$allocator@U?$pair@$$CBKVioHashString@@@std@@@3@$0A@@std@@@1@PBV?$_Tree_val@V?$_Tmap_traits@KVioHashString@@U?$less@K@std@@V?$allocator@U?$pair@$$CBKVioHashString@@@std@@@3@$0A@@std@@@1@@Z ENDP ; std::_Tree_unchecked_const_iterator<std::_Tree_val<std::_Tmap_traits<unsigned long,ioHashString,std::less<unsigned long>,std::allocator<std::pair<unsigned long const ,ioHashString> >,0> >,std::_Iterator_base0>::_Tree_unchecked_const_iterator<std::_Tree_val<std::_Tmap_traits<unsigned long,ioHashString,std::less<unsigned long>,std::allocator<std::pair<unsigned long const ,ioHashString> >,0> >,std::_Iterator_base0>
_TEXT	ENDS
PUBLIC	?_Lrotate@?$_Tree@V?$_Tmap_traits@KVioHashString@@U?$less@K@std@@V?$allocator@U?$pair@$$CBKVioHashString@@@std@@@3@$0A@@std@@@std@@IAEXPAU_Node@?$_Tree_nod@V?$_Tmap_traits@KVioHashString@@U?$less@K@std@@V?$allocator@U?$pair@$$CBKVioHashString@@@std@@@3@$0A@@std@@@2@@Z ; std::_Tree<std::_Tmap_traits<unsigned long,ioHashString,std::less<unsigned long>,std::allocator<std::pair<unsigned long const ,ioHashString> >,0> >::_Lrotate
; Function compile flags: /Ogsp
;	COMDAT ?_Lrotate@?$_Tree@V?$_Tmap_traits@KVioHashString@@U?$less@K@std@@V?$allocator@U?$pair@$$CBKVioHashString@@@std@@@3@$0A@@std@@@std@@IAEXPAU_Node@?$_Tree_nod@V?$_Tmap_traits@KVioHashString@@U?$less@K@std@@V?$allocator@U?$pair@$$CBKVioHashString@@@std@@@3@$0A@@std@@@2@@Z
_TEXT	SEGMENT
__Wherenode$ = 8					; size = 4
?_Lrotate@?$_Tree@V?$_Tmap_traits@KVioHashString@@U?$less@K@std@@V?$allocator@U?$pair@$$CBKVioHashString@@@std@@@3@$0A@@std@@@std@@IAEXPAU_Node@?$_Tree_nod@V?$_Tmap_traits@KVioHashString@@U?$less@K@std@@V?$allocator@U?$pair@$$CBKVioHashString@@@std@@@3@$0A@@std@@@2@@Z PROC ; std::_Tree<std::_Tmap_traits<unsigned long,ioHashString,std::less<unsigned long>,std::allocator<std::pair<unsigned long const ,ioHashString> >,0> >::_Lrotate, COMDAT
; _this$ = ecx

; 1763 : 		{	// promote right node to root of subtree

  00000	55		 push	 ebp
  00001	8b ec		 mov	 ebp, esp

; 1764 : 		_Nodeptr _Pnode = this->_Right(_Wherenode);

  00003	8b 55 08	 mov	 edx, DWORD PTR __Wherenode$[ebp]
  00006	8b 42 08	 mov	 eax, DWORD PTR [edx+8]
  00009	56		 push	 esi

; 1765 : 		this->_Right(_Wherenode) = this->_Left(_Pnode);

  0000a	8b 30		 mov	 esi, DWORD PTR [eax]
  0000c	89 72 08	 mov	 DWORD PTR [edx+8], esi

; 1766 : 
; 1767 : 		if (!this->_Isnil(this->_Left(_Pnode)))

  0000f	8b 30		 mov	 esi, DWORD PTR [eax]
  00011	80 7e 21 00	 cmp	 BYTE PTR [esi+33], 0
  00015	75 03		 jne	 SHORT $LN5@Lrotate

; 1768 : 			this->_Parent(this->_Left(_Pnode)) = _Wherenode;

  00017	89 56 04	 mov	 DWORD PTR [esi+4], edx
$LN5@Lrotate:

; 1769 : 		this->_Parent(_Pnode) = this->_Parent(_Wherenode);

  0001a	8b 72 04	 mov	 esi, DWORD PTR [edx+4]
  0001d	89 70 04	 mov	 DWORD PTR [eax+4], esi

; 1770 : 
; 1771 : 		if (_Wherenode == _Root())

  00020	8b 49 04	 mov	 ecx, DWORD PTR [ecx+4]
  00023	5e		 pop	 esi
  00024	3b 51 04	 cmp	 edx, DWORD PTR [ecx+4]
  00027	75 05		 jne	 SHORT $LN4@Lrotate

; 1772 : 			_Root() = _Pnode;

  00029	89 41 04	 mov	 DWORD PTR [ecx+4], eax

; 1773 : 		else if (_Wherenode == this->_Left(this->_Parent(_Wherenode)))

  0002c	eb 0e		 jmp	 SHORT $LN1@Lrotate
$LN4@Lrotate:
  0002e	8b 4a 04	 mov	 ecx, DWORD PTR [edx+4]
  00031	3b 11		 cmp	 edx, DWORD PTR [ecx]
  00033	75 04		 jne	 SHORT $LN2@Lrotate

; 1774 : 			this->_Left(this->_Parent(_Wherenode)) = _Pnode;

  00035	89 01		 mov	 DWORD PTR [ecx], eax

; 1775 : 		else

  00037	eb 03		 jmp	 SHORT $LN1@Lrotate
$LN2@Lrotate:

; 1776 : 			this->_Right(this->_Parent(_Wherenode)) = _Pnode;

  00039	89 41 08	 mov	 DWORD PTR [ecx+8], eax
$LN1@Lrotate:

; 1777 : 
; 1778 : 		this->_Left(_Pnode) = _Wherenode;

  0003c	89 10		 mov	 DWORD PTR [eax], edx

; 1779 : 		this->_Parent(_Wherenode) = _Pnode;

  0003e	89 42 04	 mov	 DWORD PTR [edx+4], eax

; 1780 : 		}

  00041	5d		 pop	 ebp
  00042	c2 04 00	 ret	 4
?_Lrotate@?$_Tree@V?$_Tmap_traits@KVioHashString@@U?$less@K@std@@V?$allocator@U?$pair@$$CBKVioHashString@@@std@@@3@$0A@@std@@@std@@IAEXPAU_Node@?$_Tree_nod@V?$_Tmap_traits@KVioHashString@@U?$less@K@std@@V?$allocator@U?$pair@$$CBKVioHashString@@@std@@@3@$0A@@std@@@2@@Z ENDP ; std::_Tree<std::_Tmap_traits<unsigned long,ioHashString,std::less<unsigned long>,std::allocator<std::pair<unsigned long const ,ioHashString> >,0> >::_Lrotate
_TEXT	ENDS
PUBLIC	?_Rrotate@?$_Tree@V?$_Tmap_traits@KVioHashString@@U?$less@K@std@@V?$allocator@U?$pair@$$CBKVioHashString@@@std@@@3@$0A@@std@@@std@@IAEXPAU_Node@?$_Tree_nod@V?$_Tmap_traits@KVioHashString@@U?$less@K@std@@V?$allocator@U?$pair@$$CBKVioHashString@@@std@@@3@$0A@@std@@@2@@Z ; std::_Tree<std::_Tmap_traits<unsigned long,ioHashString,std::less<unsigned long>,std::allocator<std::pair<unsigned long const ,ioHashString> >,0> >::_Rrotate
; Function compile flags: /Ogsp
;	COMDAT ?_Rrotate@?$_Tree@V?$_Tmap_traits@KVioHashString@@U?$less@K@std@@V?$allocator@U?$pair@$$CBKVioHashString@@@std@@@3@$0A@@std@@@std@@IAEXPAU_Node@?$_Tree_nod@V?$_Tmap_traits@KVioHashString@@U?$less@K@std@@V?$allocator@U?$pair@$$CBKVioHashString@@@std@@@3@$0A@@std@@@2@@Z
_TEXT	SEGMENT
__Wherenode$ = 8					; size = 4
?_Rrotate@?$_Tree@V?$_Tmap_traits@KVioHashString@@U?$less@K@std@@V?$allocator@U?$pair@$$CBKVioHashString@@@std@@@3@$0A@@std@@@std@@IAEXPAU_Node@?$_Tree_nod@V?$_Tmap_traits@KVioHashString@@U?$less@K@std@@V?$allocator@U?$pair@$$CBKVioHashString@@@std@@@3@$0A@@std@@@2@@Z PROC ; std::_Tree<std::_Tmap_traits<unsigned long,ioHashString,std::less<unsigned long>,std::allocator<std::pair<unsigned long const ,ioHashString> >,0> >::_Rrotate, COMDAT
; _this$ = ecx

; 1793 : 		{	// promote left node to root of subtree

  00000	55		 push	 ebp
  00001	8b ec		 mov	 ebp, esp

; 1794 : 		_Nodeptr _Pnode = this->_Left(_Wherenode);

  00003	8b 55 08	 mov	 edx, DWORD PTR __Wherenode$[ebp]
  00006	8b 02		 mov	 eax, DWORD PTR [edx]
  00008	56		 push	 esi

; 1795 : 		this->_Left(_Wherenode) = this->_Right(_Pnode);

  00009	8b 70 08	 mov	 esi, DWORD PTR [eax+8]
  0000c	89 32		 mov	 DWORD PTR [edx], esi

; 1796 : 
; 1797 : 		if (!this->_Isnil(this->_Right(_Pnode)))

  0000e	8b 70 08	 mov	 esi, DWORD PTR [eax+8]
  00011	80 7e 21 00	 cmp	 BYTE PTR [esi+33], 0
  00015	75 03		 jne	 SHORT $LN5@Rrotate

; 1798 : 			this->_Parent(this->_Right(_Pnode)) = _Wherenode;

  00017	89 56 04	 mov	 DWORD PTR [esi+4], edx
$LN5@Rrotate:

; 1799 : 		this->_Parent(_Pnode) = this->_Parent(_Wherenode);

  0001a	8b 72 04	 mov	 esi, DWORD PTR [edx+4]
  0001d	89 70 04	 mov	 DWORD PTR [eax+4], esi

; 1800 : 
; 1801 : 		if (_Wherenode == _Root())

  00020	8b 49 04	 mov	 ecx, DWORD PTR [ecx+4]
  00023	5e		 pop	 esi
  00024	3b 51 04	 cmp	 edx, DWORD PTR [ecx+4]
  00027	75 05		 jne	 SHORT $LN4@Rrotate

; 1802 : 			_Root() = _Pnode;

  00029	89 41 04	 mov	 DWORD PTR [ecx+4], eax

; 1803 : 		else if (_Wherenode == this->_Right(this->_Parent(_Wherenode)))

  0002c	eb 0f		 jmp	 SHORT $LN1@Rrotate
$LN4@Rrotate:
  0002e	8b 4a 04	 mov	 ecx, DWORD PTR [edx+4]
  00031	3b 51 08	 cmp	 edx, DWORD PTR [ecx+8]
  00034	75 05		 jne	 SHORT $LN2@Rrotate

; 1804 : 			this->_Right(this->_Parent(_Wherenode)) = _Pnode;

  00036	89 41 08	 mov	 DWORD PTR [ecx+8], eax

; 1805 : 		else

  00039	eb 02		 jmp	 SHORT $LN1@Rrotate
$LN2@Rrotate:

; 1806 : 			this->_Left(this->_Parent(_Wherenode)) = _Pnode;

  0003b	89 01		 mov	 DWORD PTR [ecx], eax
$LN1@Rrotate:

; 1807 : 
; 1808 : 		this->_Right(_Pnode) = _Wherenode;

  0003d	89 50 08	 mov	 DWORD PTR [eax+8], edx

; 1809 : 		this->_Parent(_Wherenode) = _Pnode;

  00040	89 42 04	 mov	 DWORD PTR [edx+4], eax

; 1810 : 		}

  00043	5d		 pop	 ebp
  00044	c2 04 00	 ret	 4
?_Rrotate@?$_Tree@V?$_Tmap_traits@KVioHashString@@U?$less@K@std@@V?$allocator@U?$pair@$$CBKVioHashString@@@std@@@3@$0A@@std@@@std@@IAEXPAU_Node@?$_Tree_nod@V?$_Tmap_traits@KVioHashString@@U?$less@K@std@@V?$allocator@U?$pair@$$CBKVioHashString@@@std@@@3@$0A@@std@@@2@@Z ENDP ; std::_Tree<std::_Tmap_traits<unsigned long,ioHashString,std::less<unsigned long>,std::allocator<std::pair<unsigned long const ,ioHashString> >,0> >::_Rrotate
_TEXT	ENDS
PUBLIC	??E?$_Tree_const_iterator@V?$_Tree_val@V?$_Tmap_traits@KVioHashString@@U?$less@K@std@@V?$allocator@U?$pair@$$CBKVioHashString@@@std@@@3@$0A@@std@@@std@@@std@@QAEAAV01@XZ ; std::_Tree_const_iterator<std::_Tree_val<std::_Tmap_traits<unsigned long,ioHashString,std::less<unsigned long>,std::allocator<std::pair<unsigned long const ,ioHashString> >,0> > >::operator++
; Function compile flags: /Ogsp
;	COMDAT ??E?$_Tree_const_iterator@V?$_Tree_val@V?$_Tmap_traits@KVioHashString@@U?$less@K@std@@V?$allocator@U?$pair@$$CBKVioHashString@@@std@@@3@$0A@@std@@@std@@@std@@QAEAAV01@XZ
_TEXT	SEGMENT
??E?$_Tree_const_iterator@V?$_Tree_val@V?$_Tmap_traits@KVioHashString@@U?$less@K@std@@V?$allocator@U?$pair@$$CBKVioHashString@@@std@@@3@$0A@@std@@@std@@@std@@QAEAAV01@XZ PROC ; std::_Tree_const_iterator<std::_Tree_val<std::_Tmap_traits<unsigned long,ioHashString,std::less<unsigned long>,std::allocator<std::pair<unsigned long const ,ioHashString> >,0> > >::operator++, COMDAT
; _this$ = ecx

; 250  : 		{	// preincrement

  00000	56		 push	 esi
  00001	8b f1		 mov	 esi, ecx

; 251  :  #if _ITERATOR_DEBUG_LEVEL == 2
; 252  : 		if (this->_Getcont() == 0
; 253  : 			|| this->_Ptr == 0
; 254  : 			|| _Mytree::_Isnil(this->_Ptr))
; 255  : 			{	// report error
; 256  : 			_DEBUG_ERROR("map/set iterator not incrementable");
; 257  : 			_SCL_SECURE_OUT_OF_RANGE;
; 258  : 			}
; 259  : 
; 260  :  #elif _ITERATOR_DEBUG_LEVEL == 1
; 261  : 		_SCL_SECURE_VALIDATE(this->_Getcont() != 0 && this->_Ptr != 0);
; 262  : 		_SCL_SECURE_VALIDATE_RANGE(!_Mytree::_Isnil(this->_Ptr));
; 263  :  #endif /* _ITERATOR_DEBUG_LEVEL */
; 264  : 
; 265  : 		++(*(_Mybase *)this);

  00003	e8 00 00 00 00	 call	 ??E?$_Tree_unchecked_const_iterator@V?$_Tree_val@V?$_Tmap_traits@KVioHashString@@U?$less@K@std@@V?$allocator@U?$pair@$$CBKVioHashString@@@std@@@3@$0A@@std@@@std@@U_Iterator_base0@2@@std@@QAEAAV01@XZ ; std::_Tree_unchecked_const_iterator<std::_Tree_val<std::_Tmap_traits<unsigned long,ioHashString,std::less<unsigned long>,std::allocator<std::pair<unsigned long const ,ioHashString> >,0> >,std::_Iterator_base0>::operator++

; 266  : 		return (*this);

  00008	8b c6		 mov	 eax, esi
  0000a	5e		 pop	 esi

; 267  : 		}

  0000b	c3		 ret	 0
??E?$_Tree_const_iterator@V?$_Tree_val@V?$_Tmap_traits@KVioHashString@@U?$less@K@std@@V?$allocator@U?$pair@$$CBKVioHashString@@@std@@@3@$0A@@std@@@std@@@std@@QAEAAV01@XZ ENDP ; std::_Tree_const_iterator<std::_Tree_val<std::_Tmap_traits<unsigned long,ioHashString,std::less<unsigned long>,std::allocator<std::pair<unsigned long const ,ioHashString> >,0> > >::operator++
_TEXT	ENDS
PUBLIC	__$ArrayPad$
PUBLIC	??$SetTitle_e@$04@ioINILoader@@QAEXAAY04$$CBD@Z	; ioINILoader::SetTitle_e<5>
EXTRN	__imp_?SetTitle@ioINILoader@@QAEXPBD@Z:PROC
; Function compile flags: /Ogsp
; File d:\lost saga for developer\youtube\tutorial\source\src\io3dengine\ioiniloader.h
;	COMDAT ??$SetTitle_e@$04@ioINILoader@@QAEXAAY04$$CBD@Z
_TEXT	SEGMENT
__t$ = -16						; size = 5
__$ArrayPad$ = -4					; size = 4
_t$ = 8							; size = 4
??$SetTitle_e@$04@ioINILoader@@QAEXAAY04$$CBD@Z PROC	; ioINILoader::SetTitle_e<5>, COMDAT
; _this$ = ecx

; 188  : 	{

  00000	55		 push	 ebp
  00001	8b ec		 mov	 ebp, esp
  00003	83 ec 10	 sub	 esp, 16			; 00000010H
  00006	a1 00 00 00 00	 mov	 eax, DWORD PTR ___security_cookie
  0000b	33 c5		 xor	 eax, ebp
  0000d	89 45 fc	 mov	 DWORD PTR __$ArrayPad$[ebp], eax
  00010	8b 45 08	 mov	 eax, DWORD PTR _t$[ebp]

; 189  : 		_ENCSTR(t, _t);

  00013	8a 10		 mov	 dl, BYTE PTR [eax]
  00015	84 d2		 test	 dl, dl
  00017	0f 84 92 00 00
	00		 je	 $LN96@SetTitle_e
  0001d	80 f2 ed	 xor	 dl, -19			; ffffffedH
  00020	88 55 f0	 mov	 BYTE PTR __t$[ebp], dl
  00023	8a 50 01	 mov	 dl, BYTE PTR [eax+1]
  00026	84 d2		 test	 dl, dl
  00028	74 7f		 je	 SHORT $LN95@SetTitle_e
  0002a	80 f2 ec	 xor	 dl, -20			; ffffffecH
  0002d	88 55 f1	 mov	 BYTE PTR __t$[ebp+1], dl
  00030	8a 50 02	 mov	 dl, BYTE PTR [eax+2]
  00033	84 d2		 test	 dl, dl
  00035	74 6c		 je	 SHORT $LN94@SetTitle_e
  00037	80 f2 eb	 xor	 dl, -21			; ffffffebH
  0003a	88 55 f2	 mov	 BYTE PTR __t$[ebp+2], dl
  0003d	8a 50 03	 mov	 dl, BYTE PTR [eax+3]
  00040	84 d2		 test	 dl, dl
  00042	74 59		 je	 SHORT $LN93@SetTitle_e
  00044	80 f2 ea	 xor	 dl, -22			; ffffffeaH
  00047	80 78 04 00	 cmp	 BYTE PTR [eax+4], 0
  0004b	88 55 f3	 mov	 BYTE PTR __t$[ebp+3], dl
  0004e	74 63		 je	 SHORT $LN1@SetTitle_e
  00050	8a 50 05	 mov	 dl, BYTE PTR [eax+5]
  00053	84 d2		 test	 dl, dl
  00055	74 40		 je	 SHORT $LN91@SetTitle_e
  00057	80 f2 ec	 xor	 dl, -20			; ffffffecH
  0005a	88 55 f5	 mov	 BYTE PTR __t$[ebp+5], dl
  0005d	8a 50 06	 mov	 dl, BYTE PTR [eax+6]
  00060	84 d2		 test	 dl, dl
  00062	74 2d		 je	 SHORT $LN90@SetTitle_e
  00064	80 f2 eb	 xor	 dl, -21			; ffffffebH
  00067	88 55 f6	 mov	 BYTE PTR __t$[ebp+6], dl
  0006a	8a 50 07	 mov	 dl, BYTE PTR [eax+7]
  0006d	84 d2		 test	 dl, dl
  0006f	74 1a		 je	 SHORT $LN89@SetTitle_e
  00071	8a 40 08	 mov	 al, BYTE PTR [eax+8]
  00074	80 f2 ea	 xor	 dl, -22			; ffffffeaH
  00077	88 55 f7	 mov	 BYTE PTR __t$[ebp+7], dl
  0007a	84 c0		 test	 al, al
  0007c	74 07		 je	 SHORT $LN88@SetTitle_e
  0007e	34 ed		 xor	 al, -19			; ffffffedH
  00080	88 45 f8	 mov	 BYTE PTR __t$[ebp+8], al
  00083	eb 2e		 jmp	 SHORT $LN1@SetTitle_e
$LN88@SetTitle_e:
  00085	c6 45 f8 ed	 mov	 BYTE PTR __t$[ebp+8], -19 ; ffffffedH
  00089	eb 28		 jmp	 SHORT $LN1@SetTitle_e
$LN89@SetTitle_e:
  0008b	c6 45 f7 ea	 mov	 BYTE PTR __t$[ebp+7], -22 ; ffffffeaH
  0008f	eb 22		 jmp	 SHORT $LN1@SetTitle_e
$LN90@SetTitle_e:
  00091	c6 45 f6 eb	 mov	 BYTE PTR __t$[ebp+6], -21 ; ffffffebH
  00095	eb 1c		 jmp	 SHORT $LN1@SetTitle_e
$LN91@SetTitle_e:
  00097	c6 45 f5 ec	 mov	 BYTE PTR __t$[ebp+5], -20 ; ffffffecH
  0009b	eb 16		 jmp	 SHORT $LN1@SetTitle_e
$LN93@SetTitle_e:
  0009d	c6 45 f3 ea	 mov	 BYTE PTR __t$[ebp+3], -22 ; ffffffeaH
  000a1	eb 10		 jmp	 SHORT $LN1@SetTitle_e
$LN94@SetTitle_e:
  000a3	c6 45 f2 eb	 mov	 BYTE PTR __t$[ebp+2], -21 ; ffffffebH
  000a7	eb 0a		 jmp	 SHORT $LN1@SetTitle_e
$LN95@SetTitle_e:
  000a9	c6 45 f1 ec	 mov	 BYTE PTR __t$[ebp+1], -20 ; ffffffecH
  000ad	eb 04		 jmp	 SHORT $LN1@SetTitle_e
$LN96@SetTitle_e:
  000af	c6 45 f0 ed	 mov	 BYTE PTR __t$[ebp], -19	; ffffffedH
$LN1@SetTitle_e:
  000b3	81 75 f0 ed ec
	eb ea		 xor	 DWORD PTR __t$[ebp], -353637139 ; eaebecedH

; 190  : 		SetTitle(_t);

  000ba	8d 45 f0	 lea	 eax, DWORD PTR __t$[ebp]
  000bd	50		 push	 eax
  000be	c6 45 f4 00	 mov	 BYTE PTR __t$[ebp+4], 0
  000c2	ff 15 00 00 00
	00		 call	 DWORD PTR __imp_?SetTitle@ioINILoader@@QAEXPBD@Z

; 191  : 	}

  000c8	8b 4d fc	 mov	 ecx, DWORD PTR __$ArrayPad$[ebp]
  000cb	33 cd		 xor	 ecx, ebp
  000cd	e8 00 00 00 00	 call	 @__security_check_cookie@4
  000d2	c9		 leave
  000d3	c2 04 00	 ret	 4
??$SetTitle_e@$04@ioINILoader@@QAEXAAY04$$CBD@Z ENDP	; ioINILoader::SetTitle_e<5>
_TEXT	ENDS
PUBLIC	?max_size@?$_Tree@V?$_Tmap_traits@KVioHashString@@U?$less@K@std@@V?$allocator@U?$pair@$$CBKVioHashString@@@std@@@3@$0A@@std@@@std@@QBEIXZ ; std::_Tree<std::_Tmap_traits<unsigned long,ioHashString,std::less<unsigned long>,std::allocator<std::pair<unsigned long const ,ioHashString> >,0> >::max_size
; Function compile flags: /Ogsp
; File c:\program files (x86)\microsoft visual studio 10.0\vc\include\xtree
;	COMDAT ?max_size@?$_Tree@V?$_Tmap_traits@KVioHashString@@U?$less@K@std@@V?$allocator@U?$pair@$$CBKVioHashString@@@std@@@3@$0A@@std@@@std@@QBEIXZ
_TEXT	SEGMENT
?max_size@?$_Tree@V?$_Tmap_traits@KVioHashString@@U?$less@K@std@@V?$allocator@U?$pair@$$CBKVioHashString@@@std@@@3@$0A@@std@@@std@@QBEIXZ PROC ; std::_Tree<std::_Tmap_traits<unsigned long,ioHashString,std::less<unsigned long>,std::allocator<std::pair<unsigned long const ,ioHashString> >,0> >::max_size, COMDAT
; _this$ = ecx

; 874  : 		return (this->_Alval.max_size());

  00000	b8 cc cc cc 0c	 mov	 eax, 214748364		; 0cccccccH

; 875  : 		}

  00005	c3		 ret	 0
?max_size@?$_Tree@V?$_Tmap_traits@KVioHashString@@U?$less@K@std@@V?$allocator@U?$pair@$$CBKVioHashString@@@std@@@3@$0A@@std@@@std@@QBEIXZ ENDP ; std::_Tree<std::_Tmap_traits<unsigned long,ioHashString,std::less<unsigned long>,std::allocator<std::pair<unsigned long const ,ioHashString> >,0> >::max_size
_TEXT	ENDS
PUBLIC	??0?$_Pair_base@V?$_Tree_iterator@V?$_Tree_val@V?$_Tmap_traits@KVioHashString@@U?$less@K@std@@V?$allocator@U?$pair@$$CBKVioHashString@@@std@@@3@$0A@@std@@@std@@@std@@_N@std@@QAE@$$QAV?$_Tree_iterator@V?$_Tree_val@V?$_Tmap_traits@KVioHashString@@U?$less@K@std@@V?$allocator@U?$pair@$$CBKVioHashString@@@std@@@3@$0A@@std@@@std@@@1@$$QA_N@Z ; std::_Pair_base<std::_Tree_iterator<std::_Tree_val<std::_Tmap_traits<unsigned long,ioHashString,std::less<unsigned long>,std::allocator<std::pair<unsigned long const ,ioHashString> >,0> > >,bool>::_Pair_base<std::_Tree_iterator<std::_Tree_val<std::_Tmap_traits<unsigned long,ioHashString,std::less<unsigned long>,std::allocator<std::pair<unsigned long const ,ioHashString> >,0> > >,bool>
; Function compile flags: /Ogsp
; File c:\program files (x86)\microsoft visual studio 10.0\vc\include\utility
;	COMDAT ??0?$_Pair_base@V?$_Tree_iterator@V?$_Tree_val@V?$_Tmap_traits@KVioHashString@@U?$less@K@std@@V?$allocator@U?$pair@$$CBKVioHashString@@@std@@@3@$0A@@std@@@std@@@std@@_N@std@@QAE@$$QAV?$_Tree_iterator@V?$_Tree_val@V?$_Tmap_traits@KVioHashString@@U?$less@K@std@@V?$allocator@U?$pair@$$CBKVioHashString@@@std@@@3@$0A@@std@@@std@@@1@$$QA_N@Z
_TEXT	SEGMENT
__Val1$ = 8						; size = 4
__Val2$ = 12						; size = 4
??0?$_Pair_base@V?$_Tree_iterator@V?$_Tree_val@V?$_Tmap_traits@KVioHashString@@U?$less@K@std@@V?$allocator@U?$pair@$$CBKVioHashString@@@std@@@3@$0A@@std@@@std@@@std@@_N@std@@QAE@$$QAV?$_Tree_iterator@V?$_Tree_val@V?$_Tmap_traits@KVioHashString@@U?$less@K@std@@V?$allocator@U?$pair@$$CBKVioHashString@@@std@@@3@$0A@@std@@@std@@@1@$$QA_N@Z PROC ; std::_Pair_base<std::_Tree_iterator<std::_Tree_val<std::_Tmap_traits<unsigned long,ioHashString,std::less<unsigned long>,std::allocator<std::pair<unsigned long const ,ioHashString> >,0> > >,bool>::_Pair_base<std::_Tree_iterator<std::_Tree_val<std::_Tmap_traits<unsigned long,ioHashString,std::less<unsigned long>,std::allocator<std::pair<unsigned long const ,ioHashString> >,0> > >,bool>, COMDAT
; _this$ = ecx

; 145  : 		{	// construct from specified values

  00000	55		 push	 ebp
  00001	8b ec		 mov	 ebp, esp
  00003	8b c1		 mov	 eax, ecx
  00005	8b 4d 08	 mov	 ecx, DWORD PTR __Val1$[ebp]
  00008	8b 09		 mov	 ecx, DWORD PTR [ecx]
  0000a	89 08		 mov	 DWORD PTR [eax], ecx
  0000c	8b 4d 0c	 mov	 ecx, DWORD PTR __Val2$[ebp]
  0000f	8a 09		 mov	 cl, BYTE PTR [ecx]
  00011	88 48 04	 mov	 BYTE PTR [eax+4], cl

; 146  : 		}

  00014	5d		 pop	 ebp
  00015	c2 08 00	 ret	 8
??0?$_Pair_base@V?$_Tree_iterator@V?$_Tree_val@V?$_Tmap_traits@KVioHashString@@U?$less@K@std@@V?$allocator@U?$pair@$$CBKVioHashString@@@std@@@3@$0A@@std@@@std@@@std@@_N@std@@QAE@$$QAV?$_Tree_iterator@V?$_Tree_val@V?$_Tmap_traits@KVioHashString@@U?$less@K@std@@V?$allocator@U?$pair@$$CBKVioHashString@@@std@@@3@$0A@@std@@@std@@@1@$$QA_N@Z ENDP ; std::_Pair_base<std::_Tree_iterator<std::_Tree_val<std::_Tmap_traits<unsigned long,ioHashString,std::less<unsigned long>,std::allocator<std::pair<unsigned long const ,ioHashString> >,0> > >,bool>::_Pair_base<std::_Tree_iterator<std::_Tree_val<std::_Tmap_traits<unsigned long,ioHashString,std::less<unsigned long>,std::allocator<std::pair<unsigned long const ,ioHashString> >,0> > >,bool>
_TEXT	ENDS
PUBLIC	??F?$_Tree_const_iterator@V?$_Tree_val@V?$_Tmap_traits@KVioHashString@@U?$less@K@std@@V?$allocator@U?$pair@$$CBKVioHashString@@@std@@@3@$0A@@std@@@std@@@std@@QAEAAV01@XZ ; std::_Tree_const_iterator<std::_Tree_val<std::_Tmap_traits<unsigned long,ioHashString,std::less<unsigned long>,std::allocator<std::pair<unsigned long const ,ioHashString> >,0> > >::operator--
; Function compile flags: /Ogsp
; File c:\program files (x86)\microsoft visual studio 10.0\vc\include\xtree
;	COMDAT ??F?$_Tree_const_iterator@V?$_Tree_val@V?$_Tmap_traits@KVioHashString@@U?$less@K@std@@V?$allocator@U?$pair@$$CBKVioHashString@@@std@@@3@$0A@@std@@@std@@@std@@QAEAAV01@XZ
_TEXT	SEGMENT
??F?$_Tree_const_iterator@V?$_Tree_val@V?$_Tmap_traits@KVioHashString@@U?$less@K@std@@V?$allocator@U?$pair@$$CBKVioHashString@@@std@@@3@$0A@@std@@@std@@@std@@QAEAAV01@XZ PROC ; std::_Tree_const_iterator<std::_Tree_val<std::_Tmap_traits<unsigned long,ioHashString,std::less<unsigned long>,std::allocator<std::pair<unsigned long const ,ioHashString> >,0> > >::operator--, COMDAT
; _this$ = ecx

; 277  : 		{	// predecrement

  00000	56		 push	 esi
  00001	8b f1		 mov	 esi, ecx

; 278  :  #if _ITERATOR_DEBUG_LEVEL == 2
; 279  : 		if (this->_Getcont() == 0
; 280  : 			|| this->_Ptr == 0)
; 281  : 			{	// report error
; 282  : 			_DEBUG_ERROR("map/set iterator not decrementable");
; 283  : 			_SCL_SECURE_OUT_OF_RANGE;
; 284  : 			}
; 285  : 
; 286  : 		_Nodeptr _Ptrsav = this->_Ptr;
; 287  : 		--(*(_Mybase *)this);
; 288  : 		if (_Ptrsav == this->_Ptr)
; 289  : 			{	// report error
; 290  : 			_DEBUG_ERROR("map/set iterator not decrementable");
; 291  : 			_SCL_SECURE_OUT_OF_RANGE;
; 292  : 			}
; 293  : 
; 294  :  #elif _ITERATOR_DEBUG_LEVEL == 1
; 295  : 		_SCL_SECURE_VALIDATE(this->_Getcont() != 0 && this->_Ptr != 0);
; 296  : 
; 297  : 		_Nodeptr _Ptrsav = this->_Ptr;
; 298  : 		--(*(_Mybase *)this);
; 299  : 		_SCL_SECURE_VALIDATE(_Ptrsav != this->_Ptr);
; 300  : 
; 301  :  #else /* _ITERATOR_DEBUG_LEVEL == 0 */
; 302  : 		--(*(_Mybase *)this);

  00003	e8 00 00 00 00	 call	 ??F?$_Tree_unchecked_const_iterator@V?$_Tree_val@V?$_Tmap_traits@KVioHashString@@U?$less@K@std@@V?$allocator@U?$pair@$$CBKVioHashString@@@std@@@3@$0A@@std@@@std@@U_Iterator_base0@2@@std@@QAEAAV01@XZ ; std::_Tree_unchecked_const_iterator<std::_Tree_val<std::_Tmap_traits<unsigned long,ioHashString,std::less<unsigned long>,std::allocator<std::pair<unsigned long const ,ioHashString> >,0> >,std::_Iterator_base0>::operator--

; 303  :  #endif /* _ITERATOR_DEBUG_LEVEL */
; 304  : 
; 305  : 		return (*this);

  00008	8b c6		 mov	 eax, esi
  0000a	5e		 pop	 esi

; 306  : 		}

  0000b	c3		 ret	 0
??F?$_Tree_const_iterator@V?$_Tree_val@V?$_Tmap_traits@KVioHashString@@U?$less@K@std@@V?$allocator@U?$pair@$$CBKVioHashString@@@std@@@3@$0A@@std@@@std@@@std@@QAEAAV01@XZ ENDP ; std::_Tree_const_iterator<std::_Tree_val<std::_Tmap_traits<unsigned long,ioHashString,std::less<unsigned long>,std::allocator<std::pair<unsigned long const ,ioHashString> >,0> > >::operator--
_TEXT	ENDS
PUBLIC	??$encodeString@$0CA@@ioINILoader_e@@AAEPADAAY0CA@$$CBDPAD@Z ; ioINILoader_e::encodeString<32>
; Function compile flags: /Ogsp
; File d:\lost saga for developer\youtube\tutorial\source\src\io3dengine\ioiniloader.h
;	COMDAT ??$encodeString@$0CA@@ioINILoader_e@@AAEPADAAY0CA@$$CBDPAD@Z
_TEXT	SEGMENT
_s$ = 8							; size = 4
_e$ = 12						; size = 4
??$encodeString@$0CA@@ioINILoader_e@@AAEPADAAY0CA@$$CBDPAD@Z PROC ; ioINILoader_e::encodeString<32>, COMDAT
; _this$ = ecx

; 215  : 	{

  00000	55		 push	 ebp
  00001	8b ec		 mov	 ebp, esp

; 216  : 		__ENCSTR(s, e);

  00003	8b 4d 08	 mov	 ecx, DWORD PTR _s$[ebp]
  00006	8a 11		 mov	 dl, BYTE PTR [ecx]
  00008	8b 45 0c	 mov	 eax, DWORD PTR _e$[ebp]
  0000b	53		 push	 ebx
  0000c	84 d2		 test	 dl, dl
  0000e	0f 84 6a 04 00
	00		 je	 $LN96@encodeStri
  00014	80 f2 ed	 xor	 dl, -19			; ffffffedH
  00017	88 10		 mov	 BYTE PTR [eax], dl
  00019	8a 51 01	 mov	 dl, BYTE PTR [ecx+1]
  0001c	84 d2		 test	 dl, dl
  0001e	0f 84 54 04 00
	00		 je	 $LN95@encodeStri
  00024	80 f2 ec	 xor	 dl, -20			; ffffffecH
  00027	88 50 01	 mov	 BYTE PTR [eax+1], dl
  0002a	8a 51 02	 mov	 dl, BYTE PTR [ecx+2]
  0002d	84 d2		 test	 dl, dl
  0002f	0f 84 3d 04 00
	00		 je	 $LN94@encodeStri
  00035	b3 eb		 mov	 bl, -21			; ffffffebH
  00037	32 d3		 xor	 dl, bl
  00039	88 50 02	 mov	 BYTE PTR [eax+2], dl
  0003c	8a 51 03	 mov	 dl, BYTE PTR [ecx+3]
  0003f	84 d2		 test	 dl, dl
  00041	0f 84 25 04 00
	00		 je	 $LN93@encodeStri
  00047	80 f2 ea	 xor	 dl, -22			; ffffffeaH
  0004a	88 50 03	 mov	 BYTE PTR [eax+3], dl
  0004d	8a 51 04	 mov	 dl, BYTE PTR [ecx+4]
  00050	84 d2		 test	 dl, dl
  00052	0f 84 0e 04 00
	00		 je	 $LN92@encodeStri
  00058	80 f2 ed	 xor	 dl, -19			; ffffffedH
  0005b	88 50 04	 mov	 BYTE PTR [eax+4], dl
  0005e	8a 51 05	 mov	 dl, BYTE PTR [ecx+5]
  00061	84 d2		 test	 dl, dl
  00063	0f 84 f7 03 00
	00		 je	 $LN91@encodeStri
  00069	80 f2 ec	 xor	 dl, -20			; ffffffecH
  0006c	88 50 05	 mov	 BYTE PTR [eax+5], dl
  0006f	8a 51 06	 mov	 dl, BYTE PTR [ecx+6]
  00072	84 d2		 test	 dl, dl
  00074	0f 84 e1 03 00
	00		 je	 $LN90@encodeStri
  0007a	32 d3		 xor	 dl, bl
  0007c	88 50 06	 mov	 BYTE PTR [eax+6], dl
  0007f	8a 51 07	 mov	 dl, BYTE PTR [ecx+7]
  00082	84 d2		 test	 dl, dl
  00084	0f 84 cb 03 00
	00		 je	 $LN89@encodeStri
  0008a	80 f2 ea	 xor	 dl, -22			; ffffffeaH
  0008d	88 50 07	 mov	 BYTE PTR [eax+7], dl
  00090	8a 51 08	 mov	 dl, BYTE PTR [ecx+8]
  00093	84 d2		 test	 dl, dl
  00095	0f 84 b4 03 00
	00		 je	 $LN88@encodeStri
  0009b	80 f2 ed	 xor	 dl, -19			; ffffffedH
  0009e	88 50 08	 mov	 BYTE PTR [eax+8], dl
  000a1	8a 51 09	 mov	 dl, BYTE PTR [ecx+9]
  000a4	84 d2		 test	 dl, dl
  000a6	0f 84 9d 03 00
	00		 je	 $LN87@encodeStri
  000ac	80 f2 ec	 xor	 dl, -20			; ffffffecH
  000af	88 50 09	 mov	 BYTE PTR [eax+9], dl
  000b2	8a 51 0a	 mov	 dl, BYTE PTR [ecx+10]
  000b5	84 d2		 test	 dl, dl
  000b7	0f 84 87 03 00
	00		 je	 $LN86@encodeStri
  000bd	32 d3		 xor	 dl, bl
  000bf	88 50 0a	 mov	 BYTE PTR [eax+10], dl
  000c2	8a 51 0b	 mov	 dl, BYTE PTR [ecx+11]
  000c5	84 d2		 test	 dl, dl
  000c7	0f 84 71 03 00
	00		 je	 $LN85@encodeStri
  000cd	80 f2 ea	 xor	 dl, -22			; ffffffeaH
  000d0	88 50 0b	 mov	 BYTE PTR [eax+11], dl
  000d3	8a 51 0c	 mov	 dl, BYTE PTR [ecx+12]
  000d6	84 d2		 test	 dl, dl
  000d8	0f 84 5a 03 00
	00		 je	 $LN84@encodeStri
  000de	80 f2 ed	 xor	 dl, -19			; ffffffedH
  000e1	88 50 0c	 mov	 BYTE PTR [eax+12], dl
  000e4	8a 51 0d	 mov	 dl, BYTE PTR [ecx+13]
  000e7	84 d2		 test	 dl, dl
  000e9	0f 84 43 03 00
	00		 je	 $LN83@encodeStri
  000ef	80 f2 ec	 xor	 dl, -20			; ffffffecH
  000f2	88 50 0d	 mov	 BYTE PTR [eax+13], dl
  000f5	8a 51 0e	 mov	 dl, BYTE PTR [ecx+14]
  000f8	84 d2		 test	 dl, dl
  000fa	0f 84 2d 03 00
	00		 je	 $LN82@encodeStri
  00100	32 d3		 xor	 dl, bl
  00102	88 50 0e	 mov	 BYTE PTR [eax+14], dl
  00105	8a 51 0f	 mov	 dl, BYTE PTR [ecx+15]
  00108	84 d2		 test	 dl, dl
  0010a	0f 84 17 03 00
	00		 je	 $LN81@encodeStri
  00110	80 f2 ea	 xor	 dl, -22			; ffffffeaH
  00113	88 50 0f	 mov	 BYTE PTR [eax+15], dl
  00116	8a 51 10	 mov	 dl, BYTE PTR [ecx+16]
  00119	84 d2		 test	 dl, dl
  0011b	0f 84 00 03 00
	00		 je	 $LN80@encodeStri
  00121	80 f2 ed	 xor	 dl, -19			; ffffffedH
  00124	88 50 10	 mov	 BYTE PTR [eax+16], dl
  00127	8a 51 11	 mov	 dl, BYTE PTR [ecx+17]
  0012a	84 d2		 test	 dl, dl
  0012c	0f 84 e9 02 00
	00		 je	 $LN79@encodeStri
  00132	80 f2 ec	 xor	 dl, -20			; ffffffecH
  00135	88 50 11	 mov	 BYTE PTR [eax+17], dl
  00138	8a 51 12	 mov	 dl, BYTE PTR [ecx+18]
  0013b	84 d2		 test	 dl, dl
  0013d	0f 84 d3 02 00
	00		 je	 $LN78@encodeStri
  00143	32 d3		 xor	 dl, bl
  00145	88 50 12	 mov	 BYTE PTR [eax+18], dl
  00148	8a 51 13	 mov	 dl, BYTE PTR [ecx+19]
  0014b	84 d2		 test	 dl, dl
  0014d	0f 84 bd 02 00
	00		 je	 $LN77@encodeStri
  00153	80 f2 ea	 xor	 dl, -22			; ffffffeaH
  00156	88 50 13	 mov	 BYTE PTR [eax+19], dl
  00159	8a 51 14	 mov	 dl, BYTE PTR [ecx+20]
  0015c	84 d2		 test	 dl, dl
  0015e	0f 84 a6 02 00
	00		 je	 $LN76@encodeStri
  00164	80 f2 ed	 xor	 dl, -19			; ffffffedH
  00167	88 50 14	 mov	 BYTE PTR [eax+20], dl
  0016a	8a 51 15	 mov	 dl, BYTE PTR [ecx+21]
  0016d	84 d2		 test	 dl, dl
  0016f	0f 84 8f 02 00
	00		 je	 $LN75@encodeStri
  00175	80 f2 ec	 xor	 dl, -20			; ffffffecH
  00178	88 50 15	 mov	 BYTE PTR [eax+21], dl
  0017b	8a 51 16	 mov	 dl, BYTE PTR [ecx+22]
  0017e	84 d2		 test	 dl, dl
  00180	0f 84 79 02 00
	00		 je	 $LN74@encodeStri
  00186	32 d3		 xor	 dl, bl
  00188	88 50 16	 mov	 BYTE PTR [eax+22], dl
  0018b	8a 51 17	 mov	 dl, BYTE PTR [ecx+23]
  0018e	84 d2		 test	 dl, dl
  00190	0f 84 60 02 00
	00		 je	 $LN73@encodeStri
  00196	80 f2 ea	 xor	 dl, -22			; ffffffeaH
  00199	88 50 17	 mov	 BYTE PTR [eax+23], dl
  0019c	8a 51 18	 mov	 dl, BYTE PTR [ecx+24]
  0019f	84 d2		 test	 dl, dl
  001a1	0f 84 46 02 00
	00		 je	 $LN72@encodeStri
  001a7	80 f2 ed	 xor	 dl, -19			; ffffffedH
  001aa	88 50 18	 mov	 BYTE PTR [eax+24], dl
  001ad	8a 51 19	 mov	 dl, BYTE PTR [ecx+25]
  001b0	84 d2		 test	 dl, dl
  001b2	0f 84 2c 02 00
	00		 je	 $LN71@encodeStri
  001b8	80 f2 ec	 xor	 dl, -20			; ffffffecH
  001bb	88 50 19	 mov	 BYTE PTR [eax+25], dl
  001be	8a 51 1a	 mov	 dl, BYTE PTR [ecx+26]
  001c1	84 d2		 test	 dl, dl
  001c3	0f 84 13 02 00
	00		 je	 $LN70@encodeStri
  001c9	32 d3		 xor	 dl, bl
  001cb	88 50 1a	 mov	 BYTE PTR [eax+26], dl
  001ce	8a 51 1b	 mov	 dl, BYTE PTR [ecx+27]
  001d1	84 d2		 test	 dl, dl
  001d3	0f 84 fa 01 00
	00		 je	 $LN69@encodeStri
  001d9	80 f2 ea	 xor	 dl, -22			; ffffffeaH
  001dc	88 50 1b	 mov	 BYTE PTR [eax+27], dl
  001df	8a 51 1c	 mov	 dl, BYTE PTR [ecx+28]
  001e2	84 d2		 test	 dl, dl
  001e4	0f 84 e0 01 00
	00		 je	 $LN68@encodeStri
  001ea	80 f2 ed	 xor	 dl, -19			; ffffffedH
  001ed	88 50 1c	 mov	 BYTE PTR [eax+28], dl
  001f0	8a 51 1d	 mov	 dl, BYTE PTR [ecx+29]
  001f3	84 d2		 test	 dl, dl
  001f5	0f 84 c6 01 00
	00		 je	 $LN67@encodeStri
  001fb	80 f2 ec	 xor	 dl, -20			; ffffffecH
  001fe	88 50 1d	 mov	 BYTE PTR [eax+29], dl
  00201	8a 51 1e	 mov	 dl, BYTE PTR [ecx+30]
  00204	84 d2		 test	 dl, dl
  00206	0f 84 ad 01 00
	00		 je	 $LN66@encodeStri
  0020c	32 d3		 xor	 dl, bl
  0020e	88 50 1e	 mov	 BYTE PTR [eax+30], dl
  00211	8a 51 1f	 mov	 dl, BYTE PTR [ecx+31]
  00214	84 d2		 test	 dl, dl
  00216	0f 84 94 01 00
	00		 je	 $LN65@encodeStri
  0021c	80 f2 ea	 xor	 dl, -22			; ffffffeaH
  0021f	88 50 1f	 mov	 BYTE PTR [eax+31], dl
  00222	8a 51 20	 mov	 dl, BYTE PTR [ecx+32]
  00225	84 d2		 test	 dl, dl
  00227	0f 84 7a 01 00
	00		 je	 $LN64@encodeStri
  0022d	80 f2 ed	 xor	 dl, -19			; ffffffedH
  00230	88 50 20	 mov	 BYTE PTR [eax+32], dl
  00233	8a 51 21	 mov	 dl, BYTE PTR [ecx+33]
  00236	84 d2		 test	 dl, dl
  00238	0f 84 60 01 00
	00		 je	 $LN63@encodeStri
  0023e	80 f2 ec	 xor	 dl, -20			; ffffffecH
  00241	88 50 21	 mov	 BYTE PTR [eax+33], dl
  00244	8a 51 22	 mov	 dl, BYTE PTR [ecx+34]
  00247	84 d2		 test	 dl, dl
  00249	0f 84 47 01 00
	00		 je	 $LN62@encodeStri
  0024f	32 d3		 xor	 dl, bl
  00251	88 50 22	 mov	 BYTE PTR [eax+34], dl
  00254	8a 51 23	 mov	 dl, BYTE PTR [ecx+35]
  00257	84 d2		 test	 dl, dl
  00259	0f 84 2e 01 00
	00		 je	 $LN61@encodeStri
  0025f	80 f2 ea	 xor	 dl, -22			; ffffffeaH
  00262	88 50 23	 mov	 BYTE PTR [eax+35], dl
  00265	8a 51 24	 mov	 dl, BYTE PTR [ecx+36]
  00268	84 d2		 test	 dl, dl
  0026a	0f 84 14 01 00
	00		 je	 $LN60@encodeStri
  00270	80 f2 ed	 xor	 dl, -19			; ffffffedH
  00273	88 50 24	 mov	 BYTE PTR [eax+36], dl
  00276	8a 51 25	 mov	 dl, BYTE PTR [ecx+37]
  00279	84 d2		 test	 dl, dl
  0027b	0f 84 fa 00 00
	00		 je	 $LN59@encodeStri
  00281	80 f2 ec	 xor	 dl, -20			; ffffffecH
  00284	88 50 25	 mov	 BYTE PTR [eax+37], dl
  00287	8a 51 26	 mov	 dl, BYTE PTR [ecx+38]
  0028a	84 d2		 test	 dl, dl
  0028c	0f 84 e1 00 00
	00		 je	 $LN58@encodeStri
  00292	32 d3		 xor	 dl, bl
  00294	88 50 26	 mov	 BYTE PTR [eax+38], dl
  00297	8a 51 27	 mov	 dl, BYTE PTR [ecx+39]
  0029a	84 d2		 test	 dl, dl
  0029c	0f 84 c8 00 00
	00		 je	 $LN57@encodeStri
  002a2	80 f2 ea	 xor	 dl, -22			; ffffffeaH
  002a5	88 50 27	 mov	 BYTE PTR [eax+39], dl
  002a8	8a 51 28	 mov	 dl, BYTE PTR [ecx+40]
  002ab	84 d2		 test	 dl, dl
  002ad	0f 84 ae 00 00
	00		 je	 $LN56@encodeStri
  002b3	80 f2 ed	 xor	 dl, -19			; ffffffedH
  002b6	88 50 28	 mov	 BYTE PTR [eax+40], dl
  002b9	8a 51 29	 mov	 dl, BYTE PTR [ecx+41]
  002bc	84 d2		 test	 dl, dl
  002be	0f 84 94 00 00
	00		 je	 $LN55@encodeStri
  002c4	80 f2 ec	 xor	 dl, -20			; ffffffecH
  002c7	88 50 29	 mov	 BYTE PTR [eax+41], dl
  002ca	8a 51 2a	 mov	 dl, BYTE PTR [ecx+42]
  002cd	84 d2		 test	 dl, dl
  002cf	74 7f		 je	 SHORT $LN54@encodeStri
  002d1	32 d3		 xor	 dl, bl
  002d3	88 50 2a	 mov	 BYTE PTR [eax+42], dl
  002d6	8a 51 2b	 mov	 dl, BYTE PTR [ecx+43]
  002d9	84 d2		 test	 dl, dl
  002db	74 6a		 je	 SHORT $LN53@encodeStri
  002dd	80 f2 ea	 xor	 dl, -22			; ffffffeaH
  002e0	88 50 2b	 mov	 BYTE PTR [eax+43], dl
  002e3	8a 51 2c	 mov	 dl, BYTE PTR [ecx+44]
  002e6	84 d2		 test	 dl, dl
  002e8	74 54		 je	 SHORT $LN52@encodeStri
  002ea	80 f2 ed	 xor	 dl, -19			; ffffffedH
  002ed	88 50 2c	 mov	 BYTE PTR [eax+44], dl
  002f0	8a 51 2d	 mov	 dl, BYTE PTR [ecx+45]
  002f3	84 d2		 test	 dl, dl
  002f5	74 3e		 je	 SHORT $LN51@encodeStri
  002f7	80 f2 ec	 xor	 dl, -20			; ffffffecH
  002fa	88 50 2d	 mov	 BYTE PTR [eax+45], dl
  002fd	8a 51 2e	 mov	 dl, BYTE PTR [ecx+46]
  00300	84 d2		 test	 dl, dl
  00302	74 29		 je	 SHORT $LN50@encodeStri
  00304	32 d3		 xor	 dl, bl
  00306	88 50 2e	 mov	 BYTE PTR [eax+46], dl
  00309	8a 51 2f	 mov	 dl, BYTE PTR [ecx+47]
  0030c	84 d2		 test	 dl, dl
  0030e	74 14		 je	 SHORT $LN49@encodeStri
  00310	80 f2 ea	 xor	 dl, -22			; ffffffeaH
  00313	88 50 2f	 mov	 BYTE PTR [eax+47], dl
  00316	8a 49 30	 mov	 cl, BYTE PTR [ecx+48]
  00319	80 f1 ed	 xor	 cl, -19			; ffffffedH
  0031c	88 48 30	 mov	 BYTE PTR [eax+48], cl
  0031f	e9 5d 01 00 00	 jmp	 $LN1@encodeStri
$LN49@encodeStri:
  00324	c6 40 2f ea	 mov	 BYTE PTR [eax+47], -22	; ffffffeaH
  00328	e9 54 01 00 00	 jmp	 $LN1@encodeStri
$LN50@encodeStri:
  0032d	88 58 2e	 mov	 BYTE PTR [eax+46], bl
  00330	e9 4c 01 00 00	 jmp	 $LN1@encodeStri
$LN51@encodeStri:
  00335	c6 40 2d ec	 mov	 BYTE PTR [eax+45], -20	; ffffffecH
  00339	e9 43 01 00 00	 jmp	 $LN1@encodeStri
$LN52@encodeStri:
  0033e	c6 40 2c ed	 mov	 BYTE PTR [eax+44], -19	; ffffffedH
  00342	e9 3a 01 00 00	 jmp	 $LN1@encodeStri
$LN53@encodeStri:
  00347	c6 40 2b ea	 mov	 BYTE PTR [eax+43], -22	; ffffffeaH
  0034b	e9 31 01 00 00	 jmp	 $LN1@encodeStri
$LN54@encodeStri:
  00350	88 58 2a	 mov	 BYTE PTR [eax+42], bl
  00353	e9 29 01 00 00	 jmp	 $LN1@encodeStri
$LN55@encodeStri:
  00358	c6 40 29 ec	 mov	 BYTE PTR [eax+41], -20	; ffffffecH
  0035c	e9 20 01 00 00	 jmp	 $LN1@encodeStri
$LN56@encodeStri:
  00361	c6 40 28 ed	 mov	 BYTE PTR [eax+40], -19	; ffffffedH
  00365	e9 17 01 00 00	 jmp	 $LN1@encodeStri
$LN57@encodeStri:
  0036a	c6 40 27 ea	 mov	 BYTE PTR [eax+39], -22	; ffffffeaH
  0036e	e9 0e 01 00 00	 jmp	 $LN1@encodeStri
$LN58@encodeStri:
  00373	88 58 26	 mov	 BYTE PTR [eax+38], bl
  00376	e9 06 01 00 00	 jmp	 $LN1@encodeStri
$LN59@encodeStri:
  0037b	c6 40 25 ec	 mov	 BYTE PTR [eax+37], -20	; ffffffecH
  0037f	e9 fd 00 00 00	 jmp	 $LN1@encodeStri
$LN60@encodeStri:
  00384	c6 40 24 ed	 mov	 BYTE PTR [eax+36], -19	; ffffffedH
  00388	e9 f4 00 00 00	 jmp	 $LN1@encodeStri
$LN61@encodeStri:
  0038d	c6 40 23 ea	 mov	 BYTE PTR [eax+35], -22	; ffffffeaH
  00391	e9 eb 00 00 00	 jmp	 $LN1@encodeStri
$LN62@encodeStri:
  00396	88 58 22	 mov	 BYTE PTR [eax+34], bl
  00399	e9 e3 00 00 00	 jmp	 $LN1@encodeStri
$LN63@encodeStri:
  0039e	c6 40 21 ec	 mov	 BYTE PTR [eax+33], -20	; ffffffecH
  003a2	e9 da 00 00 00	 jmp	 $LN1@encodeStri
$LN64@encodeStri:
  003a7	c6 40 20 ed	 mov	 BYTE PTR [eax+32], -19	; ffffffedH
  003ab	e9 d1 00 00 00	 jmp	 $LN1@encodeStri
$LN65@encodeStri:
  003b0	c6 40 1f ea	 mov	 BYTE PTR [eax+31], -22	; ffffffeaH
  003b4	e9 c8 00 00 00	 jmp	 $LN1@encodeStri
$LN66@encodeStri:
  003b9	88 58 1e	 mov	 BYTE PTR [eax+30], bl
  003bc	e9 c0 00 00 00	 jmp	 $LN1@encodeStri
$LN67@encodeStri:
  003c1	c6 40 1d ec	 mov	 BYTE PTR [eax+29], -20	; ffffffecH
  003c5	e9 b7 00 00 00	 jmp	 $LN1@encodeStri
$LN68@encodeStri:
  003ca	c6 40 1c ed	 mov	 BYTE PTR [eax+28], -19	; ffffffedH
  003ce	e9 ae 00 00 00	 jmp	 $LN1@encodeStri
$LN69@encodeStri:
  003d3	c6 40 1b ea	 mov	 BYTE PTR [eax+27], -22	; ffffffeaH
  003d7	e9 a5 00 00 00	 jmp	 $LN1@encodeStri
$LN70@encodeStri:
  003dc	88 58 1a	 mov	 BYTE PTR [eax+26], bl
  003df	e9 9d 00 00 00	 jmp	 $LN1@encodeStri
$LN71@encodeStri:
  003e4	c6 40 19 ec	 mov	 BYTE PTR [eax+25], -20	; ffffffecH
  003e8	e9 94 00 00 00	 jmp	 $LN1@encodeStri
$LN72@encodeStri:
  003ed	c6 40 18 ed	 mov	 BYTE PTR [eax+24], -19	; ffffffedH
  003f1	e9 8b 00 00 00	 jmp	 $LN1@encodeStri
$LN73@encodeStri:
  003f6	c6 40 17 ea	 mov	 BYTE PTR [eax+23], -22	; ffffffeaH
  003fa	e9 82 00 00 00	 jmp	 $LN1@encodeStri
$LN74@encodeStri:
  003ff	88 58 16	 mov	 BYTE PTR [eax+22], bl
  00402	eb 7d		 jmp	 SHORT $LN1@encodeStri
$LN75@encodeStri:
  00404	c6 40 15 ec	 mov	 BYTE PTR [eax+21], -20	; ffffffecH
  00408	eb 77		 jmp	 SHORT $LN1@encodeStri
$LN76@encodeStri:
  0040a	c6 40 14 ed	 mov	 BYTE PTR [eax+20], -19	; ffffffedH
  0040e	eb 71		 jmp	 SHORT $LN1@encodeStri
$LN77@encodeStri:
  00410	c6 40 13 ea	 mov	 BYTE PTR [eax+19], -22	; ffffffeaH
  00414	eb 6b		 jmp	 SHORT $LN1@encodeStri
$LN78@encodeStri:
  00416	88 58 12	 mov	 BYTE PTR [eax+18], bl
  00419	eb 66		 jmp	 SHORT $LN1@encodeStri
$LN79@encodeStri:
  0041b	c6 40 11 ec	 mov	 BYTE PTR [eax+17], -20	; ffffffecH
  0041f	eb 60		 jmp	 SHORT $LN1@encodeStri
$LN80@encodeStri:
  00421	c6 40 10 ed	 mov	 BYTE PTR [eax+16], -19	; ffffffedH
  00425	eb 5a		 jmp	 SHORT $LN1@encodeStri
$LN81@encodeStri:
  00427	c6 40 0f ea	 mov	 BYTE PTR [eax+15], -22	; ffffffeaH
  0042b	eb 54		 jmp	 SHORT $LN1@encodeStri
$LN82@encodeStri:
  0042d	88 58 0e	 mov	 BYTE PTR [eax+14], bl
  00430	eb 4f		 jmp	 SHORT $LN1@encodeStri
$LN83@encodeStri:
  00432	c6 40 0d ec	 mov	 BYTE PTR [eax+13], -20	; ffffffecH
  00436	eb 49		 jmp	 SHORT $LN1@encodeStri
$LN84@encodeStri:
  00438	c6 40 0c ed	 mov	 BYTE PTR [eax+12], -19	; ffffffedH
  0043c	eb 43		 jmp	 SHORT $LN1@encodeStri
$LN85@encodeStri:
  0043e	c6 40 0b ea	 mov	 BYTE PTR [eax+11], -22	; ffffffeaH
  00442	eb 3d		 jmp	 SHORT $LN1@encodeStri
$LN86@encodeStri:
  00444	88 58 0a	 mov	 BYTE PTR [eax+10], bl
  00447	eb 38		 jmp	 SHORT $LN1@encodeStri
$LN87@encodeStri:
  00449	c6 40 09 ec	 mov	 BYTE PTR [eax+9], -20	; ffffffecH
  0044d	eb 32		 jmp	 SHORT $LN1@encodeStri
$LN88@encodeStri:
  0044f	c6 40 08 ed	 mov	 BYTE PTR [eax+8], -19	; ffffffedH
  00453	eb 2c		 jmp	 SHORT $LN1@encodeStri
$LN89@encodeStri:
  00455	c6 40 07 ea	 mov	 BYTE PTR [eax+7], -22	; ffffffeaH
  00459	eb 26		 jmp	 SHORT $LN1@encodeStri
$LN90@encodeStri:
  0045b	88 58 06	 mov	 BYTE PTR [eax+6], bl
  0045e	eb 21		 jmp	 SHORT $LN1@encodeStri
$LN91@encodeStri:
  00460	c6 40 05 ec	 mov	 BYTE PTR [eax+5], -20	; ffffffecH
  00464	eb 1b		 jmp	 SHORT $LN1@encodeStri
$LN92@encodeStri:
  00466	c6 40 04 ed	 mov	 BYTE PTR [eax+4], -19	; ffffffedH
  0046a	eb 15		 jmp	 SHORT $LN1@encodeStri
$LN93@encodeStri:
  0046c	c6 40 03 ea	 mov	 BYTE PTR [eax+3], -22	; ffffffeaH
  00470	eb 0f		 jmp	 SHORT $LN1@encodeStri
$LN94@encodeStri:
  00472	c6 40 02 eb	 mov	 BYTE PTR [eax+2], -21	; ffffffebH
  00476	eb 09		 jmp	 SHORT $LN1@encodeStri
$LN95@encodeStri:
  00478	c6 40 01 ec	 mov	 BYTE PTR [eax+1], -20	; ffffffecH
  0047c	eb 03		 jmp	 SHORT $LN1@encodeStri
$LN96@encodeStri:
  0047e	c6 00 ed	 mov	 BYTE PTR [eax], -19	; ffffffedH
$LN1@encodeStri:
  00481	6a 07		 push	 7
  00483	5a		 pop	 edx
  00484	8b c8		 mov	 ecx, eax
  00486	c6 40 1f 00	 mov	 BYTE PTR [eax+31], 0
  0048a	5b		 pop	 ebx
$LL104@encodeStri:
  0048b	81 31 ed ec eb
	ea		 xor	 DWORD PTR [ecx], -353637139 ; eaebecedH
  00491	83 c1 04	 add	 ecx, 4
  00494	4a		 dec	 edx
  00495	75 f4		 jne	 SHORT $LL104@encodeStri
  00497	56		 push	 esi
  00498	6a 1c		 push	 28			; 0000001cH
  0049a	5e		 pop	 esi
$LL101@encodeStri:
  0049b	8b ce		 mov	 ecx, esi
  0049d	81 e1 03 00 00
	80		 and	 ecx, -2147483645	; 80000003H
  004a3	79 05		 jns	 SHORT $LN111@encodeStri
  004a5	49		 dec	 ecx
  004a6	83 c9 fc	 or	 ecx, -4			; fffffffcH
  004a9	41		 inc	 ecx
$LN111@encodeStri:
  004aa	b2 ed		 mov	 dl, -19			; ffffffedH
  004ac	2a d1		 sub	 dl, cl
  004ae	30 14 06	 xor	 BYTE PTR [esi+eax], dl
  004b1	46		 inc	 esi
  004b2	83 fe 1f	 cmp	 esi, 31			; 0000001fH
  004b5	7c e4		 jl	 SHORT $LL101@encodeStri
  004b7	5e		 pop	 esi

; 217  : 		return e;
; 218  : 	}

  004b8	5d		 pop	 ebp
  004b9	c2 08 00	 ret	 8
??$encodeString@$0CA@@ioINILoader_e@@AAEPADAAY0CA@$$CBDPAD@Z ENDP ; ioINILoader_e::encodeString<32>
_TEXT	ENDS
PUBLIC	??$?0AAKAAVioHashString@@@?$_Pair_base@$$CBKVioHashString@@@std@@QAE@AAKAAVioHashString@@@Z ; std::_Pair_base<unsigned long const ,ioHashString>::_Pair_base<unsigned long const ,ioHashString><unsigned long &,ioHashString &>
EXTRN	__imp_??0ioHashString@@QAE@ABV0@@Z:PROC
; Function compile flags: /Ogsp
; File c:\program files (x86)\microsoft visual studio 10.0\vc\include\utility
;	COMDAT ??$?0AAKAAVioHashString@@@?$_Pair_base@$$CBKVioHashString@@@std@@QAE@AAKAAVioHashString@@@Z
_TEXT	SEGMENT
__Val1$ = 8						; size = 4
__Val2$ = 12						; size = 4
??$?0AAKAAVioHashString@@@?$_Pair_base@$$CBKVioHashString@@@std@@QAE@AAKAAVioHashString@@@Z PROC ; std::_Pair_base<unsigned long const ,ioHashString>::_Pair_base<unsigned long const ,ioHashString><unsigned long &,ioHashString &>, COMDAT
; _this$ = ecx

; 163  : 		{	// construct from moved values

  00000	55		 push	 ebp
  00001	8b ec		 mov	 ebp, esp
  00003	8b 45 08	 mov	 eax, DWORD PTR __Val1$[ebp]
  00006	8b 00		 mov	 eax, DWORD PTR [eax]
  00008	56		 push	 esi
  00009	ff 75 0c	 push	 DWORD PTR __Val2$[ebp]
  0000c	8b f1		 mov	 esi, ecx
  0000e	8d 4e 04	 lea	 ecx, DWORD PTR [esi+4]
  00011	89 06		 mov	 DWORD PTR [esi], eax
  00013	ff 15 00 00 00
	00		 call	 DWORD PTR __imp_??0ioHashString@@QAE@ABV0@@Z

; 164  : 		}

  00019	8b c6		 mov	 eax, esi
  0001b	5e		 pop	 esi
  0001c	5d		 pop	 ebp
  0001d	c2 08 00	 ret	 8
??$?0AAKAAVioHashString@@@?$_Pair_base@$$CBKVioHashString@@@std@@QAE@AAKAAVioHashString@@@Z ENDP ; std::_Pair_base<unsigned long const ,ioHashString>::_Pair_base<unsigned long const ,ioHashString><unsigned long &,ioHashString &>
_TEXT	ENDS
PUBLIC	??_G?$pair@$$CBKVioHashString@@@std@@QAEPAXI@Z	; std::pair<unsigned long const ,ioHashString>::`scalar deleting destructor'
; Function compile flags: /Ogsp
;	COMDAT ??_G?$pair@$$CBKVioHashString@@@std@@QAEPAXI@Z
_TEXT	SEGMENT
___flags$ = 8						; size = 4
??_G?$pair@$$CBKVioHashString@@@std@@QAEPAXI@Z PROC	; std::pair<unsigned long const ,ioHashString>::`scalar deleting destructor', COMDAT
; _this$ = ecx
  00000	55		 push	 ebp
  00001	8b ec		 mov	 ebp, esp
  00003	56		 push	 esi
  00004	8b f1		 mov	 esi, ecx
  00006	8d 4e 04	 lea	 ecx, DWORD PTR [esi+4]
  00009	ff 15 00 00 00
	00		 call	 DWORD PTR __imp_??1ioHashString@@QAE@XZ
  0000f	f6 45 08 01	 test	 BYTE PTR ___flags$[ebp], 1
  00013	74 07		 je	 SHORT $LN1@scalar@2
  00015	56		 push	 esi
  00016	e8 00 00 00 00	 call	 ??3@YAXPAX@Z		; operator delete
  0001b	59		 pop	 ecx
$LN1@scalar@2:
  0001c	8b c6		 mov	 eax, esi
  0001e	5e		 pop	 esi
  0001f	5d		 pop	 ebp
  00020	c2 04 00	 ret	 4
??_G?$pair@$$CBKVioHashString@@@std@@QAEPAXI@Z ENDP	; std::pair<unsigned long const ,ioHashString>::`scalar deleting destructor'
_TEXT	ENDS
PUBLIC	?_Buynode@?$_Tree_val@V?$_Tmap_traits@KVioHashString@@U?$less@K@std@@V?$allocator@U?$pair@$$CBKVioHashString@@@std@@@3@$0A@@std@@@std@@QAEPAU_Node@?$_Tree_nod@V?$_Tmap_traits@KVioHashString@@U?$less@K@std@@V?$allocator@U?$pair@$$CBKVioHashString@@@std@@@3@$0A@@std@@@2@XZ ; std::_Tree_val<std::_Tmap_traits<unsigned long,ioHashString,std::less<unsigned long>,std::allocator<std::pair<unsigned long const ,ioHashString> >,0> >::_Buynode
; Function compile flags: /Ogsp
; File c:\program files (x86)\microsoft visual studio 10.0\vc\include\xtree
;	COMDAT ?_Buynode@?$_Tree_val@V?$_Tmap_traits@KVioHashString@@U?$less@K@std@@V?$allocator@U?$pair@$$CBKVioHashString@@@std@@@3@$0A@@std@@@std@@QAEPAU_Node@?$_Tree_nod@V?$_Tmap_traits@KVioHashString@@U?$less@K@std@@V?$allocator@U?$pair@$$CBKVioHashString@@@std@@@3@$0A@@std@@@2@XZ
_TEXT	SEGMENT
$T507811 = -16						; size = 12
$T507788 = -4						; size = 4
?_Buynode@?$_Tree_val@V?$_Tmap_traits@KVioHashString@@U?$less@K@std@@V?$allocator@U?$pair@$$CBKVioHashString@@@std@@@3@$0A@@std@@@std@@QAEPAU_Node@?$_Tree_nod@V?$_Tmap_traits@KVioHashString@@U?$less@K@std@@V?$allocator@U?$pair@$$CBKVioHashString@@@std@@@3@$0A@@std@@@2@XZ PROC ; std::_Tree_val<std::_Tmap_traits<unsigned long,ioHashString,std::less<unsigned long>,std::allocator<std::pair<unsigned long const ,ioHashString> >,0> >::_Buynode, COMDAT
; _this$ = ecx

; 559  : 		{	// allocate a node

  00000	55		 push	 ebp
  00001	8b ec		 mov	 ebp, esp
  00003	83 ec 10	 sub	 esp, 16			; 00000010H
  00006	56		 push	 esi

; 560  : 		_Nodeptr _Wherenode = this->_Alnod.allocate(1);

  00007	6a 24		 push	 36			; 00000024H
  00009	8b f1		 mov	 esi, ecx
  0000b	e8 00 00 00 00	 call	 ??2@YAPAXI@Z		; operator new
  00010	59		 pop	 ecx
  00011	33 c9		 xor	 ecx, ecx
  00013	3b c1		 cmp	 eax, ecx
  00015	74 18		 je	 SHORT $LN5@Buynode

; 561  : 
; 562  : 		this->_Left(_Wherenode) = this->_Myhead;

  00017	8b 56 04	 mov	 edx, DWORD PTR [esi+4]
  0001a	89 10		 mov	 DWORD PTR [eax], edx

; 563  : 		this->_Parent(_Wherenode) = this->_Myhead;

  0001c	8b 56 04	 mov	 edx, DWORD PTR [esi+4]
  0001f	89 50 04	 mov	 DWORD PTR [eax+4], edx

; 564  : 		this->_Right(_Wherenode) = this->_Myhead;

  00022	8b 56 04	 mov	 edx, DWORD PTR [esi+4]
  00025	89 50 08	 mov	 DWORD PTR [eax+8], edx

; 565  : 		this->_Color(_Wherenode) = this->_Red;

  00028	66 89 48 20	 mov	 WORD PTR [eax+32], cx
  0002c	5e		 pop	 esi

; 566  : 		this->_Isnil(_Wherenode) = false;
; 567  : 		return (_Wherenode);
; 568  : 		}

  0002d	c9		 leave
  0002e	c3		 ret	 0

; 560  : 		_Nodeptr _Wherenode = this->_Alnod.allocate(1);

$LN5@Buynode:
  0002f	8d 45 fc	 lea	 eax, DWORD PTR $T507788[ebp]
  00032	89 4d fc	 mov	 DWORD PTR $T507788[ebp], ecx
  00035	50		 push	 eax
  00036	8d 4d f0	 lea	 ecx, DWORD PTR $T507811[ebp]
  00039	ff 15 00 00 00
	00		 call	 DWORD PTR __imp_??0exception@std@@QAE@ABQBD@Z
  0003f	68 00 00 00 00	 push	 OFFSET __TI2?AVbad_alloc@std@@
  00044	8d 45 f0	 lea	 eax, DWORD PTR $T507811[ebp]
  00047	50		 push	 eax
  00048	c7 45 f0 00 00
	00 00		 mov	 DWORD PTR $T507811[ebp], OFFSET ??_7bad_alloc@std@@6B@
  0004f	e8 00 00 00 00	 call	 __CxxThrowException@8
$LN27@Buynode:
$LN26@Buynode:
  00054	cc		 int	 3
?_Buynode@?$_Tree_val@V?$_Tmap_traits@KVioHashString@@U?$less@K@std@@V?$allocator@U?$pair@$$CBKVioHashString@@@std@@@3@$0A@@std@@@std@@QAEPAU_Node@?$_Tree_nod@V?$_Tmap_traits@KVioHashString@@U?$less@K@std@@V?$allocator@U?$pair@$$CBKVioHashString@@@std@@@3@$0A@@std@@@2@XZ ENDP ; std::_Tree_val<std::_Tmap_traits<unsigned long,ioHashString,std::less<unsigned long>,std::allocator<std::pair<unsigned long const ,ioHashString> >,0> >::_Buynode
_TEXT	ENDS
PUBLIC	??$?0AAV?$_Tree_iterator@V?$_Tree_val@V?$_Tmap_traits@KVioHashString@@U?$less@K@std@@V?$allocator@U?$pair@$$CBKVioHashString@@@std@@@3@$0A@@std@@@std@@@std@@_N@?$_Pair_base@V?$_Tree_iterator@V?$_Tree_val@V?$_Tmap_traits@KVioHashString@@U?$less@K@std@@V?$allocator@U?$pair@$$CBKVioHashString@@@std@@@3@$0A@@std@@@std@@@std@@_N@std@@QAE@AAV?$_Tree_iterator@V?$_Tree_val@V?$_Tmap_traits@KVioHashString@@U?$less@K@std@@V?$allocator@U?$pair@$$CBKVioHashString@@@std@@@3@$0A@@std@@@std@@@1@$$QA_N@Z ; std::_Pair_base<std::_Tree_iterator<std::_Tree_val<std::_Tmap_traits<unsigned long,ioHashString,std::less<unsigned long>,std::allocator<std::pair<unsigned long const ,ioHashString> >,0> > >,bool>::_Pair_base<std::_Tree_iterator<std::_Tree_val<std::_Tmap_traits<unsigned long,ioHashString,std::less<unsigned long>,std::allocator<std::pair<unsigned long const ,ioHashString> >,0> > >,bool><std::_Tree_iterator<std::_Tree_val<std::_Tmap_traits<unsigned long,ioHashString,std::less<unsigned long>,std::allocator<std::pair<unsigned long const ,ioHashString> >,0> > > &,bool>
; Function compile flags: /Ogsp
; File c:\program files (x86)\microsoft visual studio 10.0\vc\include\utility
;	COMDAT ??$?0AAV?$_Tree_iterator@V?$_Tree_val@V?$_Tmap_traits@KVioHashString@@U?$less@K@std@@V?$allocator@U?$pair@$$CBKVioHashString@@@std@@@3@$0A@@std@@@std@@@std@@_N@?$_Pair_base@V?$_Tree_iterator@V?$_Tree_val@V?$_Tmap_traits@KVioHashString@@U?$less@K@std@@V?$allocator@U?$pair@$$CBKVioHashString@@@std@@@3@$0A@@std@@@std@@@std@@_N@std@@QAE@AAV?$_Tree_iterator@V?$_Tree_val@V?$_Tmap_traits@KVioHashString@@U?$less@K@std@@V?$allocator@U?$pair@$$CBKVioHashString@@@std@@@3@$0A@@std@@@std@@@1@$$QA_N@Z
_TEXT	SEGMENT
__Val1$ = 8						; size = 4
__Val2$ = 12						; size = 4
??$?0AAV?$_Tree_iterator@V?$_Tree_val@V?$_Tmap_traits@KVioHashString@@U?$less@K@std@@V?$allocator@U?$pair@$$CBKVioHashString@@@std@@@3@$0A@@std@@@std@@@std@@_N@?$_Pair_base@V?$_Tree_iterator@V?$_Tree_val@V?$_Tmap_traits@KVioHashString@@U?$less@K@std@@V?$allocator@U?$pair@$$CBKVioHashString@@@std@@@3@$0A@@std@@@std@@@std@@_N@std@@QAE@AAV?$_Tree_iterator@V?$_Tree_val@V?$_Tmap_traits@KVioHashString@@U?$less@K@std@@V?$allocator@U?$pair@$$CBKVioHashString@@@std@@@3@$0A@@std@@@std@@@1@$$QA_N@Z PROC ; std::_Pair_base<std::_Tree_iterator<std::_Tree_val<std::_Tmap_traits<unsigned long,ioHashString,std::less<unsigned long>,std::allocator<std::pair<unsigned long const ,ioHashString> >,0> > >,bool>::_Pair_base<std::_Tree_iterator<std::_Tree_val<std::_Tmap_traits<unsigned long,ioHashString,std::less<unsigned long>,std::allocator<std::pair<unsigned long const ,ioHashString> >,0> > >,bool><std::_Tree_iterator<std::_Tree_val<std::_Tmap_traits<unsigned long,ioHashString,std::less<unsigned long>,std::allocator<std::pair<unsigned long const ,ioHashString> >,0> > > &,bool>, COMDAT
; _this$ = ecx

; 163  : 		{	// construct from moved values

  00000	55		 push	 ebp
  00001	8b ec		 mov	 ebp, esp
  00003	8b c1		 mov	 eax, ecx
  00005	8b 4d 08	 mov	 ecx, DWORD PTR __Val1$[ebp]
  00008	8b 09		 mov	 ecx, DWORD PTR [ecx]
  0000a	89 08		 mov	 DWORD PTR [eax], ecx
  0000c	8b 4d 0c	 mov	 ecx, DWORD PTR __Val2$[ebp]
  0000f	8a 09		 mov	 cl, BYTE PTR [ecx]
  00011	88 48 04	 mov	 BYTE PTR [eax+4], cl

; 164  : 		}

  00014	5d		 pop	 ebp
  00015	c2 08 00	 ret	 8
??$?0AAV?$_Tree_iterator@V?$_Tree_val@V?$_Tmap_traits@KVioHashString@@U?$less@K@std@@V?$allocator@U?$pair@$$CBKVioHashString@@@std@@@3@$0A@@std@@@std@@@std@@_N@?$_Pair_base@V?$_Tree_iterator@V?$_Tree_val@V?$_Tmap_traits@KVioHashString@@U?$less@K@std@@V?$allocator@U?$pair@$$CBKVioHashString@@@std@@@3@$0A@@std@@@std@@@std@@_N@std@@QAE@AAV?$_Tree_iterator@V?$_Tree_val@V?$_Tmap_traits@KVioHashString@@U?$less@K@std@@V?$allocator@U?$pair@$$CBKVioHashString@@@std@@@3@$0A@@std@@@std@@@1@$$QA_N@Z ENDP ; std::_Pair_base<std::_Tree_iterator<std::_Tree_val<std::_Tmap_traits<unsigned long,ioHashString,std::less<unsigned long>,std::allocator<std::pair<unsigned long const ,ioHashString> >,0> > >,bool>::_Pair_base<std::_Tree_iterator<std::_Tree_val<std::_Tmap_traits<unsigned long,ioHashString,std::less<unsigned long>,std::allocator<std::pair<unsigned long const ,ioHashString> >,0> > >,bool><std::_Tree_iterator<std::_Tree_val<std::_Tmap_traits<unsigned long,ioHashString,std::less<unsigned long>,std::allocator<std::pair<unsigned long const ,ioHashString> >,0> > > &,bool>
_TEXT	ENDS
PUBLIC	??0?$_Pair_base@$$CBKVioHashString@@@std@@QAE@$$QBK$$QAVioHashString@@@Z ; std::_Pair_base<unsigned long const ,ioHashString>::_Pair_base<unsigned long const ,ioHashString>
; Function compile flags: /Ogsp
;	COMDAT ??0?$_Pair_base@$$CBKVioHashString@@@std@@QAE@$$QBK$$QAVioHashString@@@Z
_TEXT	SEGMENT
__Val1$ = 8						; size = 4
__Val2$ = 12						; size = 4
??0?$_Pair_base@$$CBKVioHashString@@@std@@QAE@$$QBK$$QAVioHashString@@@Z PROC ; std::_Pair_base<unsigned long const ,ioHashString>::_Pair_base<unsigned long const ,ioHashString>, COMDAT
; _this$ = ecx

; 145  : 		{	// construct from specified values

  00000	55		 push	 ebp
  00001	8b ec		 mov	 ebp, esp
  00003	8b 45 08	 mov	 eax, DWORD PTR __Val1$[ebp]
  00006	8b 00		 mov	 eax, DWORD PTR [eax]
  00008	56		 push	 esi
  00009	ff 75 0c	 push	 DWORD PTR __Val2$[ebp]
  0000c	8b f1		 mov	 esi, ecx
  0000e	8d 4e 04	 lea	 ecx, DWORD PTR [esi+4]
  00011	89 06		 mov	 DWORD PTR [esi], eax
  00013	ff 15 00 00 00
	00		 call	 DWORD PTR __imp_??0ioHashString@@QAE@ABV0@@Z

; 146  : 		}

  00019	8b c6		 mov	 eax, esi
  0001b	5e		 pop	 esi
  0001c	5d		 pop	 ebp
  0001d	c2 08 00	 ret	 8
??0?$_Pair_base@$$CBKVioHashString@@@std@@QAE@$$QBK$$QAVioHashString@@@Z ENDP ; std::_Pair_base<unsigned long const ,ioHashString>::_Pair_base<unsigned long const ,ioHashString>
_TEXT	ENDS
PUBLIC	?StringCbCatA@@YGJPADIPBD@Z			; StringCbCatA
; Function compile flags: /Ogsp
; File c:\program files (x86)\microsoft sdks\windows\v7.0a\include\strsafe.h
;	COMDAT ?StringCbCatA@@YGJPADIPBD@Z
_TEXT	SEGMENT
_pszDest$ = 8						; size = 4
_cbDest$ = 12						; size = 4
_pszSrc$ = 16						; size = 4
?StringCbCatA@@YGJPADIPBD@Z PROC			; StringCbCatA, COMDAT

; 2449 : {

  00000	55		 push	 ebp
  00001	8b ec		 mov	 ebp, esp
  00003	53		 push	 ebx
  00004	56		 push	 esi

; 2450 :     HRESULT hr;
; 2451 :     size_t cchDestLength;
; 2452 :     size_t cchDest = cbDest / sizeof(char);
; 2453 : 
; 2454 :     hr = StringValidateDestAndLengthA(pszDest,
; 2455 :                                       cchDest,
; 2456 :                                       &cchDestLength,
; 2457 :                                       STRSAFE_MAX_CCH);

  00005	8b 75 0c	 mov	 esi, DWORD PTR _cbDest$[ebp]
  00008	33 c0		 xor	 eax, eax
  0000a	57		 push	 edi
  0000b	b9 57 00 07 80	 mov	 ecx, -2147024809	; 80070057H
  00010	85 f6		 test	 esi, esi
  00012	74 08		 je	 SHORT $LN8@StringCbCa
  00014	81 fe ff ff ff
	7f		 cmp	 esi, 2147483647		; 7fffffffH
  0001a	76 02		 jbe	 SHORT $LN9@StringCbCa
$LN8@StringCbCa:
  0001c	8b c1		 mov	 eax, ecx
$LN9@StringCbCa:
  0001e	8b 7d 08	 mov	 edi, DWORD PTR _pszDest$[ebp]
  00021	85 c0		 test	 eax, eax
  00023	78 24		 js	 SHORT $LN5@StringCbCa
  00025	33 db		 xor	 ebx, ebx
  00027	8b d6		 mov	 edx, esi
  00029	8b c7		 mov	 eax, edi
  0002b	85 f6		 test	 esi, esi
  0002d	74 0c		 je	 SHORT $LN33@StringCbCa
$LL17@StringCbCa:
  0002f	38 18		 cmp	 BYTE PTR [eax], bl
  00031	74 04		 je	 SHORT $LN16@StringCbCa
  00033	40		 inc	 eax
  00034	4a		 dec	 edx
  00035	75 f8		 jne	 SHORT $LL17@StringCbCa
$LN16@StringCbCa:
  00037	85 d2		 test	 edx, edx
  00039	75 08		 jne	 SHORT $LN32@StringCbCa
$LN33@StringCbCa:
  0003b	8b d9		 mov	 ebx, ecx
  0003d	33 c9		 xor	 ecx, ecx
$LN12@StringCbCa:
  0003f	8b c3		 mov	 eax, ebx
  00041	eb 08		 jmp	 SHORT $LN4@StringCbCa
$LN32@StringCbCa:
  00043	8b ce		 mov	 ecx, esi
  00045	2b ca		 sub	 ecx, edx
  00047	eb f6		 jmp	 SHORT $LN12@StringCbCa
$LN5@StringCbCa:
  00049	33 c9		 xor	 ecx, ecx
$LN4@StringCbCa:

; 2458 :     
; 2459 :     if (SUCCEEDED(hr))

  0004b	85 c0		 test	 eax, eax
  0004d	78 3d		 js	 SHORT $LN1@StringCbCa

; 2460 :     {
; 2461 :         hr = StringCopyWorkerA(pszDest + cchDestLength,
; 2462 :                                cchDest - cchDestLength,
; 2463 :                                NULL,
; 2464 :                                pszSrc,
; 2465 :                                STRSAFE_MAX_CCH);

  0004f	8b d6		 mov	 edx, esi
  00051	2b d1		 sub	 edx, ecx
  00053	6a 00		 push	 0
  00055	8d 04 39	 lea	 eax, DWORD PTR [ecx+edi]
  00058	5b		 pop	 ebx
  00059	74 26		 je	 SHORT $LN30@StringCbCa
  0005b	8b fa		 mov	 edi, edx
  0005d	2b fe		 sub	 edi, esi
  0005f	8b 75 10	 mov	 esi, DWORD PTR _pszSrc$[ebp]
  00062	8d bc 0f ff ff
	ff 7f		 lea	 edi, DWORD PTR [edi+ecx+2147483647]
  00069	2b f0		 sub	 esi, eax
$LL23@StringCbCa:
  0006b	85 ff		 test	 edi, edi
  0006d	74 0e		 je	 SHORT $LN34@StringCbCa
  0006f	8a 0c 06	 mov	 cl, BYTE PTR [esi+eax]
  00072	84 c9		 test	 cl, cl
  00074	74 07		 je	 SHORT $LN34@StringCbCa
  00076	88 08		 mov	 BYTE PTR [eax], cl
  00078	40		 inc	 eax
  00079	4f		 dec	 edi
  0007a	4a		 dec	 edx
  0007b	75 ee		 jne	 SHORT $LL23@StringCbCa
$LN34@StringCbCa:
  0007d	85 d2		 test	 edx, edx
  0007f	75 06		 jne	 SHORT $LN21@StringCbCa
$LN30@StringCbCa:
  00081	48		 dec	 eax
  00082	bb 7a 00 07 80	 mov	 ebx, -2147024774	; 8007007aH
$LN21@StringCbCa:
  00087	c6 00 00	 mov	 BYTE PTR [eax], 0
  0008a	8b c3		 mov	 eax, ebx
$LN1@StringCbCa:
  0008c	5f		 pop	 edi
  0008d	5e		 pop	 esi
  0008e	5b		 pop	 ebx

; 2466 :     }
; 2467 : 
; 2468 :     return hr;
; 2469 : }

  0008f	5d		 pop	 ebp
  00090	c2 0c 00	 ret	 12			; 0000000cH
?StringCbCatA@@YGJPADIPBD@Z ENDP			; StringCbCatA
_TEXT	ENDS
PUBLIC	??$swap@D@std@@YAXAAD0@Z			; std::swap<char>
; Function compile flags: /Ogsp
; File c:\program files (x86)\microsoft visual studio 10.0\vc\include\utility
;	COMDAT ??$swap@D@std@@YAXAAD0@Z
_TEXT	SEGMENT
__Left$ = 8						; size = 4
__Right$ = 12						; size = 4
??$swap@D@std@@YAXAAD0@Z PROC				; std::swap<char>, COMDAT

; 101  : 	{	// exchange values stored at _Left and _Right

  00000	55		 push	 ebp
  00001	8b ec		 mov	 ebp, esp

; 102  : 	_Ty _Tmp = _Move(_Left);

  00003	8b 45 08	 mov	 eax, DWORD PTR __Left$[ebp]
  00006	8a 08		 mov	 cl, BYTE PTR [eax]
  00008	56		 push	 esi

; 103  : 	_Left = _Move(_Right);

  00009	8b 75 0c	 mov	 esi, DWORD PTR __Right$[ebp]
  0000c	8a 16		 mov	 dl, BYTE PTR [esi]
  0000e	88 10		 mov	 BYTE PTR [eax], dl

; 104  : 	_Right = _Move(_Tmp);

  00010	88 0e		 mov	 BYTE PTR [esi], cl
  00012	5e		 pop	 esi

; 105  : 	}

  00013	5d		 pop	 ebp
  00014	c3		 ret	 0
??$swap@D@std@@YAXAAD0@Z ENDP				; std::swap<char>
_TEXT	ENDS
PUBLIC	??_C@_02JDPG@rb?$AA@				; `string'
PUBLIC	??_C@_09KHIICHAD@?1info?1cds?$AA@		; `string'
PUBLIC	_this$GSCopy$
PUBLIC	__$ArrayPad$
PUBLIC	?ReadFile@ioSelectShutDownAnnouncer@@QAEXXZ	; ioSelectShutDownAnnouncer::ReadFile
EXTRN	__imp__atoi:PROC
EXTRN	__imp__ftell:PROC
EXTRN	__imp__fseek:PROC
EXTRN	__imp__fread:PROC
EXTRN	__imp__GetCurrentDirectoryA@8:PROC
;	COMDAT ??_C@_02JDPG@rb?$AA@
; File d:\lost saga for developer\youtube\tutorial\source\src\lsclient\ioselectshutdownannouncer.cpp
CONST	SEGMENT
??_C@_02JDPG@rb?$AA@ DB 'rb', 00H			; `string'
CONST	ENDS
;	COMDAT ??_C@_09KHIICHAD@?1info?1cds?$AA@
CONST	SEGMENT
??_C@_09KHIICHAD@?1info?1cds?$AA@ DB '/info/cds', 00H	; `string'
; Function compile flags: /Ogsp
CONST	ENDS
;	COMDAT ?ReadFile@ioSelectShutDownAnnouncer@@QAEXXZ
_TEXT	SEGMENT
_this$GSCopy$ = -1316					; size = 4
_iType$ = -1312						; size = 4
_i$505915 = -1308					; size = 4
_iFileSize$ = -1308					; size = 4
_szPath$ = -1304					; size = 520
_szEncrypt$ = -784					; size = 260
_szTemp$ = -524						; size = 260
_szDate$ = -264						; size = 260
__$ArrayPad$ = -4					; size = 4
?ReadFile@ioSelectShutDownAnnouncer@@QAEXXZ PROC	; ioSelectShutDownAnnouncer::ReadFile, COMDAT
; _this$ = ecx

; 154  : {

  00000	55		 push	 ebp
  00001	8b ec		 mov	 ebp, esp
  00003	81 ec 28 05 00
	00		 sub	 esp, 1320		; 00000528H
  00009	a1 00 00 00 00	 mov	 eax, DWORD PTR ___security_cookie
  0000e	33 c5		 xor	 eax, ebp
  00010	89 45 fc	 mov	 DWORD PTR __$ArrayPad$[ebp], eax
  00013	53		 push	 ebx
  00014	56		 push	 esi
  00015	57		 push	 edi

; 155  : 	char szPath[MAX_PATH*2]="";

  00016	33 db		 xor	 ebx, ebx
  00018	68 07 02 00 00	 push	 519			; 00000207H
  0001d	8d 85 e9 fa ff
	ff		 lea	 eax, DWORD PTR _szPath$[ebp+1]
  00023	53		 push	 ebx
  00024	50		 push	 eax
  00025	89 8d dc fa ff
	ff		 mov	 DWORD PTR _this$GSCopy$[ebp], ecx
  0002b	88 9d e8 fa ff
	ff		 mov	 BYTE PTR _szPath$[ebp], bl
  00031	e8 00 00 00 00	 call	 _memset
  00036	83 c4 0c	 add	 esp, 12			; 0000000cH

; 156  : 	::GetCurrentDirectory(MAX_PATH*2,szPath);

  00039	8d 85 e8 fa ff
	ff		 lea	 eax, DWORD PTR _szPath$[ebp]
  0003f	50		 push	 eax
  00040	be 08 02 00 00	 mov	 esi, 520		; 00000208H
  00045	56		 push	 esi
  00046	ff 15 00 00 00
	00		 call	 DWORD PTR __imp__GetCurrentDirectoryA@8

; 157  : 	StringCbCat( szPath, sizeof( szPath ), "/info/cds" );

  0004c	68 00 00 00 00	 push	 OFFSET ??_C@_09KHIICHAD@?1info?1cds?$AA@
  00051	56		 push	 esi
  00052	8d 85 e8 fa ff
	ff		 lea	 eax, DWORD PTR _szPath$[ebp]
  00058	50		 push	 eax
  00059	e8 00 00 00 00	 call	 ?StringCbCatA@@YGJPADIPBD@Z ; StringCbCatA

; 158  : 
; 159  : 	int iFileSize = 0;
; 160  : 	char szEncrypt[MAX_PATH]="";

  0005e	be 03 01 00 00	 mov	 esi, 259		; 00000103H
  00063	56		 push	 esi
  00064	8d 85 f1 fc ff
	ff		 lea	 eax, DWORD PTR _szEncrypt$[ebp+1]
  0006a	53		 push	 ebx
  0006b	50		 push	 eax
  0006c	88 9d f0 fc ff
	ff		 mov	 BYTE PTR _szEncrypt$[ebp], bl
  00072	e8 00 00 00 00	 call	 _memset

; 161  : 	FILE *pFile = fopen( szPath, "rb" ); // channeling data shutdown

  00077	8d 85 e8 fa ff
	ff		 lea	 eax, DWORD PTR _szPath$[ebp]
  0007d	68 00 00 00 00	 push	 OFFSET ??_C@_02JDPG@rb?$AA@
  00082	50		 push	 eax
  00083	ff 15 00 00 00
	00		 call	 DWORD PTR __imp__fopen
  00089	8b f8		 mov	 edi, eax
  0008b	83 c4 14	 add	 esp, 20			; 00000014H

; 162  : 	if( !pFile )

  0008e	3b fb		 cmp	 edi, ebx
  00090	0f 84 7b 01 00
	00		 je	 $LN19@ReadFile

; 163  : 		return;
; 164  : 	
; 165  : 	fread( szEncrypt, sizeof( szEncrypt ), 1, pFile );

  00096	57		 push	 edi
  00097	6a 01		 push	 1
  00099	8d 85 f0 fc ff
	ff		 lea	 eax, DWORD PTR _szEncrypt$[ebp]
  0009f	68 04 01 00 00	 push	 260			; 00000104H
  000a4	50		 push	 eax
  000a5	ff 15 00 00 00
	00		 call	 DWORD PTR __imp__fread

; 166  : 	fseek( pFile, 0, SEEK_END );

  000ab	6a 02		 push	 2
  000ad	53		 push	 ebx
  000ae	57		 push	 edi
  000af	ff 15 00 00 00
	00		 call	 DWORD PTR __imp__fseek

; 167  : 	iFileSize = ftell( pFile );

  000b5	57		 push	 edi
  000b6	ff 15 00 00 00
	00		 call	 DWORD PTR __imp__ftell

; 168  : 	fclose( pFile );	

  000bc	57		 push	 edi
  000bd	89 85 e4 fa ff
	ff		 mov	 DWORD PTR _iFileSize$[ebp], eax
  000c3	ff 15 00 00 00
	00		 call	 DWORD PTR __imp__fclose

; 169  : 	
; 170  : 
; 171  : 	char szDate[MAX_PATH]="";

  000c9	56		 push	 esi
  000ca	8d 85 f9 fe ff
	ff		 lea	 eax, DWORD PTR _szDate$[ebp+1]
  000d0	53		 push	 ebx
  000d1	50		 push	 eax
  000d2	88 9d f8 fe ff
	ff		 mov	 BYTE PTR _szDate$[ebp], bl
  000d8	e8 00 00 00 00	 call	 _memset
  000dd	83 c4 30	 add	 esp, 48			; 00000030H

; 172  : 	for (int i = 0; i < iFileSize ; i++)

  000e0	33 c0		 xor	 eax, eax
  000e2	39 9d e4 fa ff
	ff		 cmp	 DWORD PTR _iFileSize$[ebp], ebx
  000e8	7e 1a		 jle	 SHORT $LN15@ReadFile
$LL17@ReadFile:

; 173  : 	{
; 174  : 		szDate[i] = szEncrypt[i] ^ 0xF1 ^ 0x35;

  000ea	8a 8c 05 f0 fc
	ff ff		 mov	 cl, BYTE PTR _szEncrypt$[ebp+eax]
  000f1	80 f1 c4	 xor	 cl, -60			; ffffffc4H
  000f4	88 8c 05 f8 fe
	ff ff		 mov	 BYTE PTR _szDate$[ebp+eax], cl
  000fb	40		 inc	 eax
  000fc	3b 85 e4 fa ff
	ff		 cmp	 eax, DWORD PTR _iFileSize$[ebp]
  00102	7c e6		 jl	 SHORT $LL17@ReadFile
$LN15@ReadFile:

; 175  : 	}
; 176  : 
; 177  : 	int iType = 0;
; 178  : 	char szTemp[MAX_PATH]="";

  00104	56		 push	 esi
  00105	8d 85 f5 fd ff
	ff		 lea	 eax, DWORD PTR _szTemp$[ebp+1]
  0010b	53		 push	 ebx
  0010c	50		 push	 eax
  0010d	89 9d e0 fa ff
	ff		 mov	 DWORD PTR _iType$[ebp], ebx
  00113	88 9d f4 fd ff
	ff		 mov	 BYTE PTR _szTemp$[ebp], bl
  00119	e8 00 00 00 00	 call	 _memset

; 179  : 	int iCnt = 0;
; 180  : 	int iLength = strlen( szDate );

  0011e	8d 85 f8 fe ff
	ff		 lea	 eax, DWORD PTR _szDate$[ebp]
  00124	83 c4 0c	 add	 esp, 12			; 0000000cH
  00127	33 d2		 xor	 edx, edx
  00129	8d 78 01	 lea	 edi, DWORD PTR [eax+1]
$LL25@ReadFile:
  0012c	8a 08		 mov	 cl, BYTE PTR [eax]
  0012e	40		 inc	 eax
  0012f	3a cb		 cmp	 cl, bl
  00131	75 f9		 jne	 SHORT $LL25@ReadFile
  00133	2b c7		 sub	 eax, edi
  00135	8b f8		 mov	 edi, eax

; 181  : 	for (int i = 0; i < iLength+1 ; i++)

  00137	8d 47 01	 lea	 eax, DWORD PTR [edi+1]
  0013a	89 9d e4 fa ff
	ff		 mov	 DWORD PTR _i$505915[ebp], ebx
  00140	3b c3		 cmp	 eax, ebx
  00142	0f 8e bc 00 00
	00		 jle	 $LN12@ReadFile
$LL28@ReadFile:

; 182  : 	{
; 183  : 		if( szDate[i] == '-' || szDate[i] == ' ' || i == iLength )	

  00148	8b 85 e4 fa ff
	ff		 mov	 eax, DWORD PTR _i$505915[ebp]
  0014e	8a 84 05 f8 fe
	ff ff		 mov	 al, BYTE PTR _szDate$[ebp+eax]
  00155	3c 2d		 cmp	 al, 45			; 0000002dH
  00157	74 1e		 je	 SHORT $LN26@ReadFile
  00159	3c 20		 cmp	 al, 32			; 00000020H
  0015b	74 1a		 je	 SHORT $LN26@ReadFile
  0015d	39 bd e4 fa ff
	ff		 cmp	 DWORD PTR _i$505915[ebp], edi
  00163	74 12		 je	 SHORT $LN26@ReadFile

; 206  : 		}
; 207  : 		else
; 208  : 		{
; 209  : 			if( COMPARE( iCnt , 0 , MAX_PATH ) )

  00165	3b d6		 cmp	 edx, esi
  00167	0f 87 82 00 00
	00		 ja	 $LN13@ReadFile

; 210  : 			{
; 211  : 				szTemp[iCnt] = szDate[i];

  0016d	88 84 15 f4 fd
	ff ff		 mov	 BYTE PTR _szTemp$[ebp+edx], al

; 212  : 				iCnt++;

  00174	42		 inc	 edx
  00175	eb 78		 jmp	 SHORT $LN13@ReadFile
$LN26@ReadFile:

; 184  : 		{
; 185  : 			int iValue = atoi( szTemp );

  00177	8d 85 f4 fd ff
	ff		 lea	 eax, DWORD PTR _szTemp$[ebp]
  0017d	50		 push	 eax
  0017e	ff 15 00 00 00
	00		 call	 DWORD PTR __imp__atoi
  00184	59		 pop	 ecx

; 186  : 			if( iType == 0 )

  00185	39 9d e0 fa ff
	ff		 cmp	 DWORD PTR _iType$[ebp], ebx
  0018b	75 0b		 jne	 SHORT $LN9@ReadFile

; 187  : 			{
; 188  : 				m_iShutDownYear  = iValue;

  0018d	8b 8d dc fa ff
	ff		 mov	 ecx, DWORD PTR _this$GSCopy$[ebp]
  00193	89 41 14	 mov	 DWORD PTR [ecx+20], eax
  00196	eb 3a		 jmp	 SHORT $LN3@ReadFile
$LN9@ReadFile:

; 189  : 			}
; 190  : 			else if( iType == 1 )

  00198	83 bd e0 fa ff
	ff 01		 cmp	 DWORD PTR _iType$[ebp], 1
  0019f	75 0b		 jne	 SHORT $LN7@ReadFile

; 191  : 			{
; 192  : 				m_iShutDownMonth = iValue;

  001a1	8b 8d dc fa ff
	ff		 mov	 ecx, DWORD PTR _this$GSCopy$[ebp]
  001a7	89 41 18	 mov	 DWORD PTR [ecx+24], eax
  001aa	eb 26		 jmp	 SHORT $LN3@ReadFile
$LN7@ReadFile:

; 193  : 			}
; 194  : 			else if( iType == 2 )

  001ac	83 bd e0 fa ff
	ff 02		 cmp	 DWORD PTR _iType$[ebp], 2
  001b3	75 0b		 jne	 SHORT $LN5@ReadFile

; 195  : 			{
; 196  : 				m_iShutDownDay = iValue;

  001b5	8b 8d dc fa ff
	ff		 mov	 ecx, DWORD PTR _this$GSCopy$[ebp]
  001bb	89 41 1c	 mov	 DWORD PTR [ecx+28], eax
  001be	eb 12		 jmp	 SHORT $LN3@ReadFile
$LN5@ReadFile:

; 197  : 			}
; 198  : 			else if( iType == 3 )

  001c0	83 bd e0 fa ff
	ff 03		 cmp	 DWORD PTR _iType$[ebp], 3
  001c7	75 09		 jne	 SHORT $LN3@ReadFile

; 199  : 			{
; 200  : 				m_iShutDownHour = iValue;

  001c9	8b 8d dc fa ff
	ff		 mov	 ecx, DWORD PTR _this$GSCopy$[ebp]
  001cf	89 41 20	 mov	 DWORD PTR [ecx+32], eax
$LN3@ReadFile:

; 201  : 			}
; 202  : 
; 203  : 			iType++;

  001d2	ff 85 e0 fa ff
	ff		 inc	 DWORD PTR _iType$[ebp]

; 204  : 			iCnt = 0;
; 205  : 			ZeroMemory( szTemp, sizeof( szTemp ) );

  001d8	68 04 01 00 00	 push	 260			; 00000104H
  001dd	8d 85 f4 fd ff
	ff		 lea	 eax, DWORD PTR _szTemp$[ebp]
  001e3	53		 push	 ebx
  001e4	50		 push	 eax
  001e5	e8 00 00 00 00	 call	 _memset
  001ea	83 c4 0c	 add	 esp, 12			; 0000000cH
  001ed	8b d3		 mov	 edx, ebx
$LN13@ReadFile:

; 181  : 	for (int i = 0; i < iLength+1 ; i++)

  001ef	ff 85 e4 fa ff
	ff		 inc	 DWORD PTR _i$505915[ebp]
  001f5	8d 47 01	 lea	 eax, DWORD PTR [edi+1]
  001f8	39 85 e4 fa ff
	ff		 cmp	 DWORD PTR _i$505915[ebp], eax
  001fe	0f 8c 44 ff ff
	ff		 jl	 $LL28@ReadFile
$LN12@ReadFile:

; 213  : 			}
; 214  : 		}
; 215  : 	}
; 216  : 
; 217  : 	m_bProcess = true;

  00204	8b 85 dc fa ff
	ff		 mov	 eax, DWORD PTR _this$GSCopy$[ebp]
  0020a	c6 40 38 01	 mov	 BYTE PTR [eax+56], 1

; 218  : 	m_iShutDownMinute = 0; 

  0020e	89 58 24	 mov	 DWORD PTR [eax+36], ebx
$LN19@ReadFile:

; 219  : 
; 220  : #ifdef _DEBUG
; 221  : #ifndef TEST_SUITE_ON
; 222  : 	LOG.PrintTimeAndLog( 0, "%s [%d-%d-%d %d:%d]", __FUNCTION__, m_iShutDownYear, m_iShutDownMonth, m_iShutDownDay, m_iShutDownHour, 0 );
; 223  : #endif
; 224  : #endif
; 225  : }

  00211	8b 4d fc	 mov	 ecx, DWORD PTR __$ArrayPad$[ebp]
  00214	5f		 pop	 edi
  00215	5e		 pop	 esi
  00216	33 cd		 xor	 ecx, ebp
  00218	5b		 pop	 ebx
  00219	e8 00 00 00 00	 call	 @__security_check_cookie@4
  0021e	c9		 leave
  0021f	c3		 ret	 0
?ReadFile@ioSelectShutDownAnnouncer@@QAEXXZ ENDP	; ioSelectShutDownAnnouncer::ReadFile
_TEXT	ENDS
PUBLIC	??C?$_Tree_iterator@V?$_Tree_val@V?$_Tmap_traits@KVioHashString@@U?$less@K@std@@V?$allocator@U?$pair@$$CBKVioHashString@@@std@@@3@$0A@@std@@@std@@@std@@QBEPAU?$pair@$$CBKVioHashString@@@1@XZ ; std::_Tree_iterator<std::_Tree_val<std::_Tmap_traits<unsigned long,ioHashString,std::less<unsigned long>,std::allocator<std::pair<unsigned long const ,ioHashString> >,0> > >::operator->
; Function compile flags: /Ogsp
; File c:\program files (x86)\microsoft visual studio 10.0\vc\include\xtree
;	COMDAT ??C?$_Tree_iterator@V?$_Tree_val@V?$_Tmap_traits@KVioHashString@@U?$less@K@std@@V?$allocator@U?$pair@$$CBKVioHashString@@@std@@@3@$0A@@std@@@std@@@std@@QBEPAU?$pair@$$CBKVioHashString@@@1@XZ
_TEXT	SEGMENT
??C?$_Tree_iterator@V?$_Tree_val@V?$_Tmap_traits@KVioHashString@@U?$less@K@std@@V?$allocator@U?$pair@$$CBKVioHashString@@@std@@@3@$0A@@std@@@std@@@std@@QBEPAU?$pair@$$CBKVioHashString@@@1@XZ PROC ; std::_Tree_iterator<std::_Tree_val<std::_Tmap_traits<unsigned long,ioHashString,std::less<unsigned long>,std::allocator<std::pair<unsigned long const ,ioHashString> >,0> > >::operator->, COMDAT
; _this$ = ecx

; 401  : 		return (&**this);

  00000	8b 01		 mov	 eax, DWORD PTR [ecx]
  00002	83 c0 0c	 add	 eax, 12			; 0000000cH

; 402  : 		}

  00005	c3		 ret	 0
??C?$_Tree_iterator@V?$_Tree_val@V?$_Tmap_traits@KVioHashString@@U?$less@K@std@@V?$allocator@U?$pair@$$CBKVioHashString@@@std@@@3@$0A@@std@@@std@@@std@@QBEPAU?$pair@$$CBKVioHashString@@@1@XZ ENDP ; std::_Tree_iterator<std::_Tree_val<std::_Tmap_traits<unsigned long,ioHashString,std::less<unsigned long>,std::allocator<std::pair<unsigned long const ,ioHashString> >,0> > >::operator->
_TEXT	ENDS
PUBLIC	??0?$_Tree_val@V?$_Tmap_traits@KVioHashString@@U?$less@K@std@@V?$allocator@U?$pair@$$CBKVioHashString@@@std@@@3@$0A@@std@@@std@@QAE@ABU?$less@K@1@V?$allocator@U?$pair@$$CBKVioHashString@@@std@@@1@@Z ; std::_Tree_val<std::_Tmap_traits<unsigned long,ioHashString,std::less<unsigned long>,std::allocator<std::pair<unsigned long const ,ioHashString> >,0> >::_Tree_val<std::_Tmap_traits<unsigned long,ioHashString,std::less<unsigned long>,std::allocator<std::pair<unsigned long const ,ioHashString> >,0> >
; Function compile flags: /Ogsp
;	COMDAT ??0?$_Tree_val@V?$_Tmap_traits@KVioHashString@@U?$less@K@std@@V?$allocator@U?$pair@$$CBKVioHashString@@@std@@@3@$0A@@std@@@std@@QAE@ABU?$less@K@1@V?$allocator@U?$pair@$$CBKVioHashString@@@std@@@1@@Z
_TEXT	SEGMENT
$T508003 = -16						; size = 12
$T507987 = -4						; size = 4
__Parg$ = 8						; size = 4
__Al$ = 12						; size = 1
??0?$_Tree_val@V?$_Tmap_traits@KVioHashString@@U?$less@K@std@@V?$allocator@U?$pair@$$CBKVioHashString@@@std@@@3@$0A@@std@@@std@@QAE@ABU?$less@K@1@V?$allocator@U?$pair@$$CBKVioHashString@@@std@@@1@@Z PROC ; std::_Tree_val<std::_Tmap_traits<unsigned long,ioHashString,std::less<unsigned long>,std::allocator<std::pair<unsigned long const ,ioHashString> >,0> >::_Tree_val<std::_Tmap_traits<unsigned long,ioHashString,std::less<unsigned long>,std::allocator<std::pair<unsigned long const ,ioHashString> >,0> >, COMDAT
; _this$ = ecx

; 542  : 		{	// construct base, and allocator from _Al

  00000	55		 push	 ebp
  00001	8b ec		 mov	 ebp, esp
  00003	83 ec 10	 sub	 esp, 16			; 00000010H
  00006	56		 push	 esi
  00007	8b f1		 mov	 esi, ecx

; 543  : 		this->_Mysize = 0;

  00009	83 66 08 00	 and	 DWORD PTR [esi+8], 0

; 544  : 		this->_Myhead = this->_Alnod.allocate(1);

  0000d	6a 24		 push	 36			; 00000024H
  0000f	e8 00 00 00 00	 call	 ??2@YAPAXI@Z		; operator new
  00014	59		 pop	 ecx
  00015	85 c0		 test	 eax, eax
  00017	74 26		 je	 SHORT $LN15@Tree_val
  00019	89 46 04	 mov	 DWORD PTR [esi+4], eax

; 545  : 
; 546  : 		this->_Left(this->_Myhead) = this->_Myhead;

  0001c	89 00		 mov	 DWORD PTR [eax], eax

; 547  : 		this->_Parent(this->_Myhead) = this->_Myhead;

  0001e	8b 46 04	 mov	 eax, DWORD PTR [esi+4]
  00021	89 40 04	 mov	 DWORD PTR [eax+4], eax

; 548  : 		this->_Right(this->_Myhead) = this->_Myhead;

  00024	8b 46 04	 mov	 eax, DWORD PTR [esi+4]
  00027	89 40 08	 mov	 DWORD PTR [eax+8], eax

; 549  : 		this->_Color(this->_Myhead) = this->_Black;

  0002a	8b 46 04	 mov	 eax, DWORD PTR [esi+4]
  0002d	c6 40 20 01	 mov	 BYTE PTR [eax+32], 1

; 550  : 		this->_Isnil(this->_Myhead) = true;

  00031	8b 46 04	 mov	 eax, DWORD PTR [esi+4]
  00034	c6 40 21 01	 mov	 BYTE PTR [eax+33], 1

; 551  : 		}

  00038	8b c6		 mov	 eax, esi
  0003a	5e		 pop	 esi
  0003b	c9		 leave
  0003c	c2 08 00	 ret	 8

; 544  : 		this->_Myhead = this->_Alnod.allocate(1);

$LN15@Tree_val:
  0003f	83 65 fc 00	 and	 DWORD PTR $T507987[ebp], 0
  00043	8d 45 fc	 lea	 eax, DWORD PTR $T507987[ebp]
  00046	50		 push	 eax
  00047	8d 4d f0	 lea	 ecx, DWORD PTR $T508003[ebp]
  0004a	ff 15 00 00 00
	00		 call	 DWORD PTR __imp_??0exception@std@@QAE@ABQBD@Z
  00050	68 00 00 00 00	 push	 OFFSET __TI2?AVbad_alloc@std@@
  00055	8d 45 f0	 lea	 eax, DWORD PTR $T508003[ebp]
  00058	50		 push	 eax
  00059	c7 45 f0 00 00
	00 00		 mov	 DWORD PTR $T508003[ebp], OFFSET ??_7bad_alloc@std@@6B@
  00060	e8 00 00 00 00	 call	 __CxxThrowException@8
$LN37@Tree_val:
$LN36@Tree_val:
  00065	cc		 int	 3
??0?$_Tree_val@V?$_Tmap_traits@KVioHashString@@U?$less@K@std@@V?$allocator@U?$pair@$$CBKVioHashString@@@std@@@3@$0A@@std@@@std@@QAE@ABU?$less@K@1@V?$allocator@U?$pair@$$CBKVioHashString@@@std@@@1@@Z ENDP ; std::_Tree_val<std::_Tmap_traits<unsigned long,ioHashString,std::less<unsigned long>,std::allocator<std::pair<unsigned long const ,ioHashString> >,0> >::_Tree_val<std::_Tmap_traits<unsigned long,ioHashString,std::less<unsigned long>,std::allocator<std::pair<unsigned long const ,ioHashString> >,0> >
_TEXT	ENDS
PUBLIC	??0?$_Tree_const_iterator@V?$_Tree_val@V?$_Tmap_traits@KVioHashString@@U?$less@K@std@@V?$allocator@U?$pair@$$CBKVioHashString@@@std@@@3@$0A@@std@@@std@@@std@@QAE@PAU_Node@?$_Tree_nod@V?$_Tmap_traits@KVioHashString@@U?$less@K@std@@V?$allocator@U?$pair@$$CBKVioHashString@@@std@@@3@$0A@@std@@@1@PBV?$_Tree_val@V?$_Tmap_traits@KVioHashString@@U?$less@K@std@@V?$allocator@U?$pair@$$CBKVioHashString@@@std@@@3@$0A@@std@@@1@@Z ; std::_Tree_const_iterator<std::_Tree_val<std::_Tmap_traits<unsigned long,ioHashString,std::less<unsigned long>,std::allocator<std::pair<unsigned long const ,ioHashString> >,0> > >::_Tree_const_iterator<std::_Tree_val<std::_Tmap_traits<unsigned long,ioHashString,std::less<unsigned long>,std::allocator<std::pair<unsigned long const ,ioHashString> >,0> > >
; Function compile flags: /Ogsp
;	COMDAT ??0?$_Tree_const_iterator@V?$_Tree_val@V?$_Tmap_traits@KVioHashString@@U?$less@K@std@@V?$allocator@U?$pair@$$CBKVioHashString@@@std@@@3@$0A@@std@@@std@@@std@@QAE@PAU_Node@?$_Tree_nod@V?$_Tmap_traits@KVioHashString@@U?$less@K@std@@V?$allocator@U?$pair@$$CBKVioHashString@@@std@@@3@$0A@@std@@@1@PBV?$_Tree_val@V?$_Tmap_traits@KVioHashString@@U?$less@K@std@@V?$allocator@U?$pair@$$CBKVioHashString@@@std@@@3@$0A@@std@@@1@@Z
_TEXT	SEGMENT
__Pnode$ = 8						; size = 4
__Plist$ = 12						; size = 4
??0?$_Tree_const_iterator@V?$_Tree_val@V?$_Tmap_traits@KVioHashString@@U?$less@K@std@@V?$allocator@U?$pair@$$CBKVioHashString@@@std@@@3@$0A@@std@@@std@@@std@@QAE@PAU_Node@?$_Tree_nod@V?$_Tmap_traits@KVioHashString@@U?$less@K@std@@V?$allocator@U?$pair@$$CBKVioHashString@@@std@@@3@$0A@@std@@@1@PBV?$_Tree_val@V?$_Tmap_traits@KVioHashString@@U?$less@K@std@@V?$allocator@U?$pair@$$CBKVioHashString@@@std@@@3@$0A@@std@@@1@@Z PROC ; std::_Tree_const_iterator<std::_Tree_val<std::_Tmap_traits<unsigned long,ioHashString,std::less<unsigned long>,std::allocator<std::pair<unsigned long const ,ioHashString> >,0> > >::_Tree_const_iterator<std::_Tree_val<std::_Tmap_traits<unsigned long,ioHashString,std::less<unsigned long>,std::allocator<std::pair<unsigned long const ,ioHashString> >,0> > >, COMDAT
; _this$ = ecx

; 213  : 		{	// construct with node pointer _Pnode

  00000	55		 push	 ebp
  00001	8b ec		 mov	 ebp, esp
  00003	8b c1		 mov	 eax, ecx
  00005	8b 4d 08	 mov	 ecx, DWORD PTR __Pnode$[ebp]
  00008	89 08		 mov	 DWORD PTR [eax], ecx

; 214  : 		}

  0000a	5d		 pop	 ebp
  0000b	c2 08 00	 ret	 8
??0?$_Tree_const_iterator@V?$_Tree_val@V?$_Tmap_traits@KVioHashString@@U?$less@K@std@@V?$allocator@U?$pair@$$CBKVioHashString@@@std@@@3@$0A@@std@@@std@@@std@@QAE@PAU_Node@?$_Tree_nod@V?$_Tmap_traits@KVioHashString@@U?$less@K@std@@V?$allocator@U?$pair@$$CBKVioHashString@@@std@@@3@$0A@@std@@@1@PBV?$_Tree_val@V?$_Tmap_traits@KVioHashString@@U?$less@K@std@@V?$allocator@U?$pair@$$CBKVioHashString@@@std@@@3@$0A@@std@@@1@@Z ENDP ; std::_Tree_const_iterator<std::_Tree_val<std::_Tmap_traits<unsigned long,ioHashString,std::less<unsigned long>,std::allocator<std::pair<unsigned long const ,ioHashString> >,0> > >::_Tree_const_iterator<std::_Tree_val<std::_Tmap_traits<unsigned long,ioHashString,std::less<unsigned long>,std::allocator<std::pair<unsigned long const ,ioHashString> >,0> > >
_TEXT	ENDS
PUBLIC	??E?$_Tree_const_iterator@V?$_Tree_val@V?$_Tmap_traits@KVioHashString@@U?$less@K@std@@V?$allocator@U?$pair@$$CBKVioHashString@@@std@@@3@$0A@@std@@@std@@@std@@QAE?AV01@H@Z ; std::_Tree_const_iterator<std::_Tree_val<std::_Tmap_traits<unsigned long,ioHashString,std::less<unsigned long>,std::allocator<std::pair<unsigned long const ,ioHashString> >,0> > >::operator++
; Function compile flags: /Ogsp
;	COMDAT ??E?$_Tree_const_iterator@V?$_Tree_val@V?$_Tmap_traits@KVioHashString@@U?$less@K@std@@V?$allocator@U?$pair@$$CBKVioHashString@@@std@@@3@$0A@@std@@@std@@@std@@QAE?AV01@H@Z
_TEXT	SEGMENT
___$ReturnUdt$ = 8					; size = 4
___formal$ = 12						; size = 4
??E?$_Tree_const_iterator@V?$_Tree_val@V?$_Tmap_traits@KVioHashString@@U?$less@K@std@@V?$allocator@U?$pair@$$CBKVioHashString@@@std@@@3@$0A@@std@@@std@@@std@@QAE?AV01@H@Z PROC ; std::_Tree_const_iterator<std::_Tree_val<std::_Tmap_traits<unsigned long,ioHashString,std::less<unsigned long>,std::allocator<std::pair<unsigned long const ,ioHashString> >,0> > >::operator++, COMDAT
; _this$ = ecx

; 270  : 		{	// postincrement

  00000	55		 push	 ebp
  00001	8b ec		 mov	 ebp, esp

; 271  : 		_Myiter _Tmp = *this;

  00003	8b 01		 mov	 eax, DWORD PTR [ecx]
  00005	56		 push	 esi
  00006	8b 75 08	 mov	 esi, DWORD PTR ___$ReturnUdt$[ebp]
  00009	89 06		 mov	 DWORD PTR [esi], eax

; 272  : 		++*this;

  0000b	e8 00 00 00 00	 call	 ??E?$_Tree_unchecked_const_iterator@V?$_Tree_val@V?$_Tmap_traits@KVioHashString@@U?$less@K@std@@V?$allocator@U?$pair@$$CBKVioHashString@@@std@@@3@$0A@@std@@@std@@U_Iterator_base0@2@@std@@QAEAAV01@XZ ; std::_Tree_unchecked_const_iterator<std::_Tree_val<std::_Tmap_traits<unsigned long,ioHashString,std::less<unsigned long>,std::allocator<std::pair<unsigned long const ,ioHashString> >,0> >,std::_Iterator_base0>::operator++

; 273  : 		return (_Tmp);

  00010	8b c6		 mov	 eax, esi
  00012	5e		 pop	 esi

; 274  : 		}

  00013	5d		 pop	 ebp
  00014	c2 08 00	 ret	 8
??E?$_Tree_const_iterator@V?$_Tree_val@V?$_Tmap_traits@KVioHashString@@U?$less@K@std@@V?$allocator@U?$pair@$$CBKVioHashString@@@std@@@3@$0A@@std@@@std@@@std@@QAE?AV01@H@Z ENDP ; std::_Tree_const_iterator<std::_Tree_val<std::_Tmap_traits<unsigned long,ioHashString,std::less<unsigned long>,std::allocator<std::pair<unsigned long const ,ioHashString> >,0> > >::operator++
_TEXT	ENDS
PUBLIC	??$?0$0CA@@ioINILoader_e@@QAE@AAY0CA@$$CBD_N@Z	; ioINILoader_e::ioINILoader_e<32>
EXTRN	__imp_??0ioINILoader@@QAE@PBD_N@Z:PROC
; Function compile flags: /Ogsp
; File d:\lost saga for developer\youtube\tutorial\source\src\io3dengine\ioiniloader.h
;	COMDAT ??$?0$0CA@@ioINILoader_e@@QAE@AAY0CA@$$CBD_N@Z
_TEXT	SEGMENT
_fn$ = 8						; size = 4
_b$ = 12						; size = 1
??$?0$0CA@@ioINILoader_e@@QAE@AAY0CA@$$CBD_N@Z PROC	; ioINILoader_e::ioINILoader_e<32>, COMDAT
; _this$ = ecx

; 224  : 	{

  00000	55		 push	 ebp
  00001	8b ec		 mov	 ebp, esp
  00003	53		 push	 ebx
  00004	56		 push	 esi
  00005	57		 push	 edi
  00006	8b f9		 mov	 edi, ecx
  00008	8b 4d 08	 mov	 ecx, DWORD PTR _fn$[ebp]
  0000b	8a 11		 mov	 dl, BYTE PTR [ecx]
  0000d	8d 87 50 03 00
	00		 lea	 eax, DWORD PTR [edi+848]
  00013	84 d2		 test	 dl, dl
  00015	0f 84 6a 04 00
	00		 je	 $LN99@ioINILoade
  0001b	80 f2 ed	 xor	 dl, -19			; ffffffedH
  0001e	88 10		 mov	 BYTE PTR [eax], dl
  00020	8a 51 01	 mov	 dl, BYTE PTR [ecx+1]
  00023	84 d2		 test	 dl, dl
  00025	0f 84 54 04 00
	00		 je	 $LN98@ioINILoade
  0002b	80 f2 ec	 xor	 dl, -20			; ffffffecH
  0002e	88 50 01	 mov	 BYTE PTR [eax+1], dl
  00031	8a 51 02	 mov	 dl, BYTE PTR [ecx+2]
  00034	84 d2		 test	 dl, dl
  00036	0f 84 3d 04 00
	00		 je	 $LN97@ioINILoade
  0003c	b3 eb		 mov	 bl, -21			; ffffffebH
  0003e	32 d3		 xor	 dl, bl
  00040	88 50 02	 mov	 BYTE PTR [eax+2], dl
  00043	8a 51 03	 mov	 dl, BYTE PTR [ecx+3]
  00046	84 d2		 test	 dl, dl
  00048	0f 84 25 04 00
	00		 je	 $LN96@ioINILoade
  0004e	80 f2 ea	 xor	 dl, -22			; ffffffeaH
  00051	88 50 03	 mov	 BYTE PTR [eax+3], dl
  00054	8a 51 04	 mov	 dl, BYTE PTR [ecx+4]
  00057	84 d2		 test	 dl, dl
  00059	0f 84 0e 04 00
	00		 je	 $LN95@ioINILoade
  0005f	80 f2 ed	 xor	 dl, -19			; ffffffedH
  00062	88 50 04	 mov	 BYTE PTR [eax+4], dl
  00065	8a 51 05	 mov	 dl, BYTE PTR [ecx+5]
  00068	84 d2		 test	 dl, dl
  0006a	0f 84 f7 03 00
	00		 je	 $LN94@ioINILoade
  00070	80 f2 ec	 xor	 dl, -20			; ffffffecH
  00073	88 50 05	 mov	 BYTE PTR [eax+5], dl
  00076	8a 51 06	 mov	 dl, BYTE PTR [ecx+6]
  00079	84 d2		 test	 dl, dl
  0007b	0f 84 e1 03 00
	00		 je	 $LN93@ioINILoade
  00081	32 d3		 xor	 dl, bl
  00083	88 50 06	 mov	 BYTE PTR [eax+6], dl
  00086	8a 51 07	 mov	 dl, BYTE PTR [ecx+7]
  00089	84 d2		 test	 dl, dl
  0008b	0f 84 cb 03 00
	00		 je	 $LN92@ioINILoade
  00091	80 f2 ea	 xor	 dl, -22			; ffffffeaH
  00094	88 50 07	 mov	 BYTE PTR [eax+7], dl
  00097	8a 51 08	 mov	 dl, BYTE PTR [ecx+8]
  0009a	84 d2		 test	 dl, dl
  0009c	0f 84 b4 03 00
	00		 je	 $LN91@ioINILoade
  000a2	80 f2 ed	 xor	 dl, -19			; ffffffedH
  000a5	88 50 08	 mov	 BYTE PTR [eax+8], dl
  000a8	8a 51 09	 mov	 dl, BYTE PTR [ecx+9]
  000ab	84 d2		 test	 dl, dl
  000ad	0f 84 9d 03 00
	00		 je	 $LN90@ioINILoade
  000b3	80 f2 ec	 xor	 dl, -20			; ffffffecH
  000b6	88 50 09	 mov	 BYTE PTR [eax+9], dl
  000b9	8a 51 0a	 mov	 dl, BYTE PTR [ecx+10]
  000bc	84 d2		 test	 dl, dl
  000be	0f 84 87 03 00
	00		 je	 $LN89@ioINILoade
  000c4	32 d3		 xor	 dl, bl
  000c6	88 50 0a	 mov	 BYTE PTR [eax+10], dl
  000c9	8a 51 0b	 mov	 dl, BYTE PTR [ecx+11]
  000cc	84 d2		 test	 dl, dl
  000ce	0f 84 71 03 00
	00		 je	 $LN88@ioINILoade
  000d4	80 f2 ea	 xor	 dl, -22			; ffffffeaH
  000d7	88 50 0b	 mov	 BYTE PTR [eax+11], dl
  000da	8a 51 0c	 mov	 dl, BYTE PTR [ecx+12]
  000dd	84 d2		 test	 dl, dl
  000df	0f 84 5a 03 00
	00		 je	 $LN87@ioINILoade
  000e5	80 f2 ed	 xor	 dl, -19			; ffffffedH
  000e8	88 50 0c	 mov	 BYTE PTR [eax+12], dl
  000eb	8a 51 0d	 mov	 dl, BYTE PTR [ecx+13]
  000ee	84 d2		 test	 dl, dl
  000f0	0f 84 43 03 00
	00		 je	 $LN86@ioINILoade
  000f6	80 f2 ec	 xor	 dl, -20			; ffffffecH
  000f9	88 50 0d	 mov	 BYTE PTR [eax+13], dl
  000fc	8a 51 0e	 mov	 dl, BYTE PTR [ecx+14]
  000ff	84 d2		 test	 dl, dl
  00101	0f 84 2d 03 00
	00		 je	 $LN85@ioINILoade
  00107	32 d3		 xor	 dl, bl
  00109	88 50 0e	 mov	 BYTE PTR [eax+14], dl
  0010c	8a 51 0f	 mov	 dl, BYTE PTR [ecx+15]
  0010f	84 d2		 test	 dl, dl
  00111	0f 84 17 03 00
	00		 je	 $LN84@ioINILoade
  00117	80 f2 ea	 xor	 dl, -22			; ffffffeaH
  0011a	88 50 0f	 mov	 BYTE PTR [eax+15], dl
  0011d	8a 51 10	 mov	 dl, BYTE PTR [ecx+16]
  00120	84 d2		 test	 dl, dl
  00122	0f 84 00 03 00
	00		 je	 $LN83@ioINILoade
  00128	80 f2 ed	 xor	 dl, -19			; ffffffedH
  0012b	88 50 10	 mov	 BYTE PTR [eax+16], dl
  0012e	8a 51 11	 mov	 dl, BYTE PTR [ecx+17]
  00131	84 d2		 test	 dl, dl
  00133	0f 84 e9 02 00
	00		 je	 $LN82@ioINILoade
  00139	80 f2 ec	 xor	 dl, -20			; ffffffecH
  0013c	88 50 11	 mov	 BYTE PTR [eax+17], dl
  0013f	8a 51 12	 mov	 dl, BYTE PTR [ecx+18]
  00142	84 d2		 test	 dl, dl
  00144	0f 84 d3 02 00
	00		 je	 $LN81@ioINILoade
  0014a	32 d3		 xor	 dl, bl
  0014c	88 50 12	 mov	 BYTE PTR [eax+18], dl
  0014f	8a 51 13	 mov	 dl, BYTE PTR [ecx+19]
  00152	84 d2		 test	 dl, dl
  00154	0f 84 bd 02 00
	00		 je	 $LN80@ioINILoade
  0015a	80 f2 ea	 xor	 dl, -22			; ffffffeaH
  0015d	88 50 13	 mov	 BYTE PTR [eax+19], dl
  00160	8a 51 14	 mov	 dl, BYTE PTR [ecx+20]
  00163	84 d2		 test	 dl, dl
  00165	0f 84 a6 02 00
	00		 je	 $LN79@ioINILoade
  0016b	80 f2 ed	 xor	 dl, -19			; ffffffedH
  0016e	88 50 14	 mov	 BYTE PTR [eax+20], dl
  00171	8a 51 15	 mov	 dl, BYTE PTR [ecx+21]
  00174	84 d2		 test	 dl, dl
  00176	0f 84 8f 02 00
	00		 je	 $LN78@ioINILoade
  0017c	80 f2 ec	 xor	 dl, -20			; ffffffecH
  0017f	88 50 15	 mov	 BYTE PTR [eax+21], dl
  00182	8a 51 16	 mov	 dl, BYTE PTR [ecx+22]
  00185	84 d2		 test	 dl, dl
  00187	0f 84 79 02 00
	00		 je	 $LN77@ioINILoade
  0018d	32 d3		 xor	 dl, bl
  0018f	88 50 16	 mov	 BYTE PTR [eax+22], dl
  00192	8a 51 17	 mov	 dl, BYTE PTR [ecx+23]
  00195	84 d2		 test	 dl, dl
  00197	0f 84 60 02 00
	00		 je	 $LN76@ioINILoade
  0019d	80 f2 ea	 xor	 dl, -22			; ffffffeaH
  001a0	88 50 17	 mov	 BYTE PTR [eax+23], dl
  001a3	8a 51 18	 mov	 dl, BYTE PTR [ecx+24]
  001a6	84 d2		 test	 dl, dl
  001a8	0f 84 46 02 00
	00		 je	 $LN75@ioINILoade
  001ae	80 f2 ed	 xor	 dl, -19			; ffffffedH
  001b1	88 50 18	 mov	 BYTE PTR [eax+24], dl
  001b4	8a 51 19	 mov	 dl, BYTE PTR [ecx+25]
  001b7	84 d2		 test	 dl, dl
  001b9	0f 84 2c 02 00
	00		 je	 $LN74@ioINILoade
  001bf	80 f2 ec	 xor	 dl, -20			; ffffffecH
  001c2	88 50 19	 mov	 BYTE PTR [eax+25], dl
  001c5	8a 51 1a	 mov	 dl, BYTE PTR [ecx+26]
  001c8	84 d2		 test	 dl, dl
  001ca	0f 84 13 02 00
	00		 je	 $LN73@ioINILoade
  001d0	32 d3		 xor	 dl, bl
  001d2	88 50 1a	 mov	 BYTE PTR [eax+26], dl
  001d5	8a 51 1b	 mov	 dl, BYTE PTR [ecx+27]
  001d8	84 d2		 test	 dl, dl
  001da	0f 84 fa 01 00
	00		 je	 $LN72@ioINILoade
  001e0	80 f2 ea	 xor	 dl, -22			; ffffffeaH
  001e3	88 50 1b	 mov	 BYTE PTR [eax+27], dl
  001e6	8a 51 1c	 mov	 dl, BYTE PTR [ecx+28]
  001e9	84 d2		 test	 dl, dl
  001eb	0f 84 e0 01 00
	00		 je	 $LN71@ioINILoade
  001f1	80 f2 ed	 xor	 dl, -19			; ffffffedH
  001f4	88 50 1c	 mov	 BYTE PTR [eax+28], dl
  001f7	8a 51 1d	 mov	 dl, BYTE PTR [ecx+29]
  001fa	84 d2		 test	 dl, dl
  001fc	0f 84 c6 01 00
	00		 je	 $LN70@ioINILoade
  00202	80 f2 ec	 xor	 dl, -20			; ffffffecH
  00205	88 50 1d	 mov	 BYTE PTR [eax+29], dl
  00208	8a 51 1e	 mov	 dl, BYTE PTR [ecx+30]
  0020b	84 d2		 test	 dl, dl
  0020d	0f 84 ad 01 00
	00		 je	 $LN69@ioINILoade
  00213	32 d3		 xor	 dl, bl
  00215	88 50 1e	 mov	 BYTE PTR [eax+30], dl
  00218	8a 51 1f	 mov	 dl, BYTE PTR [ecx+31]
  0021b	84 d2		 test	 dl, dl
  0021d	0f 84 94 01 00
	00		 je	 $LN68@ioINILoade
  00223	80 f2 ea	 xor	 dl, -22			; ffffffeaH
  00226	88 50 1f	 mov	 BYTE PTR [eax+31], dl
  00229	8a 51 20	 mov	 dl, BYTE PTR [ecx+32]
  0022c	84 d2		 test	 dl, dl
  0022e	0f 84 7a 01 00
	00		 je	 $LN67@ioINILoade
  00234	80 f2 ed	 xor	 dl, -19			; ffffffedH
  00237	88 50 20	 mov	 BYTE PTR [eax+32], dl
  0023a	8a 51 21	 mov	 dl, BYTE PTR [ecx+33]
  0023d	84 d2		 test	 dl, dl
  0023f	0f 84 60 01 00
	00		 je	 $LN66@ioINILoade
  00245	80 f2 ec	 xor	 dl, -20			; ffffffecH
  00248	88 50 21	 mov	 BYTE PTR [eax+33], dl
  0024b	8a 51 22	 mov	 dl, BYTE PTR [ecx+34]
  0024e	84 d2		 test	 dl, dl
  00250	0f 84 47 01 00
	00		 je	 $LN65@ioINILoade
  00256	32 d3		 xor	 dl, bl
  00258	88 50 22	 mov	 BYTE PTR [eax+34], dl
  0025b	8a 51 23	 mov	 dl, BYTE PTR [ecx+35]
  0025e	84 d2		 test	 dl, dl
  00260	0f 84 2e 01 00
	00		 je	 $LN64@ioINILoade
  00266	80 f2 ea	 xor	 dl, -22			; ffffffeaH
  00269	88 50 23	 mov	 BYTE PTR [eax+35], dl
  0026c	8a 51 24	 mov	 dl, BYTE PTR [ecx+36]
  0026f	84 d2		 test	 dl, dl
  00271	0f 84 14 01 00
	00		 je	 $LN63@ioINILoade
  00277	80 f2 ed	 xor	 dl, -19			; ffffffedH
  0027a	88 50 24	 mov	 BYTE PTR [eax+36], dl
  0027d	8a 51 25	 mov	 dl, BYTE PTR [ecx+37]
  00280	84 d2		 test	 dl, dl
  00282	0f 84 fa 00 00
	00		 je	 $LN62@ioINILoade
  00288	80 f2 ec	 xor	 dl, -20			; ffffffecH
  0028b	88 50 25	 mov	 BYTE PTR [eax+37], dl
  0028e	8a 51 26	 mov	 dl, BYTE PTR [ecx+38]
  00291	84 d2		 test	 dl, dl
  00293	0f 84 e1 00 00
	00		 je	 $LN61@ioINILoade
  00299	32 d3		 xor	 dl, bl
  0029b	88 50 26	 mov	 BYTE PTR [eax+38], dl
  0029e	8a 51 27	 mov	 dl, BYTE PTR [ecx+39]
  002a1	84 d2		 test	 dl, dl
  002a3	0f 84 c8 00 00
	00		 je	 $LN60@ioINILoade
  002a9	80 f2 ea	 xor	 dl, -22			; ffffffeaH
  002ac	88 50 27	 mov	 BYTE PTR [eax+39], dl
  002af	8a 51 28	 mov	 dl, BYTE PTR [ecx+40]
  002b2	84 d2		 test	 dl, dl
  002b4	0f 84 ae 00 00
	00		 je	 $LN59@ioINILoade
  002ba	80 f2 ed	 xor	 dl, -19			; ffffffedH
  002bd	88 50 28	 mov	 BYTE PTR [eax+40], dl
  002c0	8a 51 29	 mov	 dl, BYTE PTR [ecx+41]
  002c3	84 d2		 test	 dl, dl
  002c5	0f 84 94 00 00
	00		 je	 $LN58@ioINILoade
  002cb	80 f2 ec	 xor	 dl, -20			; ffffffecH
  002ce	88 50 29	 mov	 BYTE PTR [eax+41], dl
  002d1	8a 51 2a	 mov	 dl, BYTE PTR [ecx+42]
  002d4	84 d2		 test	 dl, dl
  002d6	74 7f		 je	 SHORT $LN57@ioINILoade
  002d8	32 d3		 xor	 dl, bl
  002da	88 50 2a	 mov	 BYTE PTR [eax+42], dl
  002dd	8a 51 2b	 mov	 dl, BYTE PTR [ecx+43]
  002e0	84 d2		 test	 dl, dl
  002e2	74 6a		 je	 SHORT $LN56@ioINILoade
  002e4	80 f2 ea	 xor	 dl, -22			; ffffffeaH
  002e7	88 50 2b	 mov	 BYTE PTR [eax+43], dl
  002ea	8a 51 2c	 mov	 dl, BYTE PTR [ecx+44]
  002ed	84 d2		 test	 dl, dl
  002ef	74 54		 je	 SHORT $LN55@ioINILoade
  002f1	80 f2 ed	 xor	 dl, -19			; ffffffedH
  002f4	88 50 2c	 mov	 BYTE PTR [eax+44], dl
  002f7	8a 51 2d	 mov	 dl, BYTE PTR [ecx+45]
  002fa	84 d2		 test	 dl, dl
  002fc	74 3e		 je	 SHORT $LN54@ioINILoade
  002fe	80 f2 ec	 xor	 dl, -20			; ffffffecH
  00301	88 50 2d	 mov	 BYTE PTR [eax+45], dl
  00304	8a 51 2e	 mov	 dl, BYTE PTR [ecx+46]
  00307	84 d2		 test	 dl, dl
  00309	74 29		 je	 SHORT $LN53@ioINILoade
  0030b	32 d3		 xor	 dl, bl
  0030d	88 50 2e	 mov	 BYTE PTR [eax+46], dl
  00310	8a 51 2f	 mov	 dl, BYTE PTR [ecx+47]
  00313	84 d2		 test	 dl, dl
  00315	74 14		 je	 SHORT $LN52@ioINILoade
  00317	80 f2 ea	 xor	 dl, -22			; ffffffeaH
  0031a	88 50 2f	 mov	 BYTE PTR [eax+47], dl
  0031d	8a 49 30	 mov	 cl, BYTE PTR [ecx+48]
  00320	80 f1 ed	 xor	 cl, -19			; ffffffedH
  00323	88 48 30	 mov	 BYTE PTR [eax+48], cl
  00326	e9 5d 01 00 00	 jmp	 $LN4@ioINILoade
$LN52@ioINILoade:
  0032b	c6 40 2f ea	 mov	 BYTE PTR [eax+47], -22	; ffffffeaH
  0032f	e9 54 01 00 00	 jmp	 $LN4@ioINILoade
$LN53@ioINILoade:
  00334	88 58 2e	 mov	 BYTE PTR [eax+46], bl
  00337	e9 4c 01 00 00	 jmp	 $LN4@ioINILoade
$LN54@ioINILoade:
  0033c	c6 40 2d ec	 mov	 BYTE PTR [eax+45], -20	; ffffffecH
  00340	e9 43 01 00 00	 jmp	 $LN4@ioINILoade
$LN55@ioINILoade:
  00345	c6 40 2c ed	 mov	 BYTE PTR [eax+44], -19	; ffffffedH
  00349	e9 3a 01 00 00	 jmp	 $LN4@ioINILoade
$LN56@ioINILoade:
  0034e	c6 40 2b ea	 mov	 BYTE PTR [eax+43], -22	; ffffffeaH
  00352	e9 31 01 00 00	 jmp	 $LN4@ioINILoade
$LN57@ioINILoade:
  00357	88 58 2a	 mov	 BYTE PTR [eax+42], bl
  0035a	e9 29 01 00 00	 jmp	 $LN4@ioINILoade
$LN58@ioINILoade:
  0035f	c6 40 29 ec	 mov	 BYTE PTR [eax+41], -20	; ffffffecH
  00363	e9 20 01 00 00	 jmp	 $LN4@ioINILoade
$LN59@ioINILoade:
  00368	c6 40 28 ed	 mov	 BYTE PTR [eax+40], -19	; ffffffedH
  0036c	e9 17 01 00 00	 jmp	 $LN4@ioINILoade
$LN60@ioINILoade:
  00371	c6 40 27 ea	 mov	 BYTE PTR [eax+39], -22	; ffffffeaH
  00375	e9 0e 01 00 00	 jmp	 $LN4@ioINILoade
$LN61@ioINILoade:
  0037a	88 58 26	 mov	 BYTE PTR [eax+38], bl
  0037d	e9 06 01 00 00	 jmp	 $LN4@ioINILoade
$LN62@ioINILoade:
  00382	c6 40 25 ec	 mov	 BYTE PTR [eax+37], -20	; ffffffecH
  00386	e9 fd 00 00 00	 jmp	 $LN4@ioINILoade
$LN63@ioINILoade:
  0038b	c6 40 24 ed	 mov	 BYTE PTR [eax+36], -19	; ffffffedH
  0038f	e9 f4 00 00 00	 jmp	 $LN4@ioINILoade
$LN64@ioINILoade:
  00394	c6 40 23 ea	 mov	 BYTE PTR [eax+35], -22	; ffffffeaH
  00398	e9 eb 00 00 00	 jmp	 $LN4@ioINILoade
$LN65@ioINILoade:
  0039d	88 58 22	 mov	 BYTE PTR [eax+34], bl
  003a0	e9 e3 00 00 00	 jmp	 $LN4@ioINILoade
$LN66@ioINILoade:
  003a5	c6 40 21 ec	 mov	 BYTE PTR [eax+33], -20	; ffffffecH
  003a9	e9 da 00 00 00	 jmp	 $LN4@ioINILoade
$LN67@ioINILoade:
  003ae	c6 40 20 ed	 mov	 BYTE PTR [eax+32], -19	; ffffffedH
  003b2	e9 d1 00 00 00	 jmp	 $LN4@ioINILoade
$LN68@ioINILoade:
  003b7	c6 40 1f ea	 mov	 BYTE PTR [eax+31], -22	; ffffffeaH
  003bb	e9 c8 00 00 00	 jmp	 $LN4@ioINILoade
$LN69@ioINILoade:
  003c0	88 58 1e	 mov	 BYTE PTR [eax+30], bl
  003c3	e9 c0 00 00 00	 jmp	 $LN4@ioINILoade
$LN70@ioINILoade:
  003c8	c6 40 1d ec	 mov	 BYTE PTR [eax+29], -20	; ffffffecH
  003cc	e9 b7 00 00 00	 jmp	 $LN4@ioINILoade
$LN71@ioINILoade:
  003d1	c6 40 1c ed	 mov	 BYTE PTR [eax+28], -19	; ffffffedH
  003d5	e9 ae 00 00 00	 jmp	 $LN4@ioINILoade
$LN72@ioINILoade:
  003da	c6 40 1b ea	 mov	 BYTE PTR [eax+27], -22	; ffffffeaH
  003de	e9 a5 00 00 00	 jmp	 $LN4@ioINILoade
$LN73@ioINILoade:
  003e3	88 58 1a	 mov	 BYTE PTR [eax+26], bl
  003e6	e9 9d 00 00 00	 jmp	 $LN4@ioINILoade
$LN74@ioINILoade:
  003eb	c6 40 19 ec	 mov	 BYTE PTR [eax+25], -20	; ffffffecH
  003ef	e9 94 00 00 00	 jmp	 $LN4@ioINILoade
$LN75@ioINILoade:
  003f4	c6 40 18 ed	 mov	 BYTE PTR [eax+24], -19	; ffffffedH
  003f8	e9 8b 00 00 00	 jmp	 $LN4@ioINILoade
$LN76@ioINILoade:
  003fd	c6 40 17 ea	 mov	 BYTE PTR [eax+23], -22	; ffffffeaH
  00401	e9 82 00 00 00	 jmp	 $LN4@ioINILoade
$LN77@ioINILoade:
  00406	88 58 16	 mov	 BYTE PTR [eax+22], bl
  00409	eb 7d		 jmp	 SHORT $LN4@ioINILoade
$LN78@ioINILoade:
  0040b	c6 40 15 ec	 mov	 BYTE PTR [eax+21], -20	; ffffffecH
  0040f	eb 77		 jmp	 SHORT $LN4@ioINILoade
$LN79@ioINILoade:
  00411	c6 40 14 ed	 mov	 BYTE PTR [eax+20], -19	; ffffffedH
  00415	eb 71		 jmp	 SHORT $LN4@ioINILoade
$LN80@ioINILoade:
  00417	c6 40 13 ea	 mov	 BYTE PTR [eax+19], -22	; ffffffeaH
  0041b	eb 6b		 jmp	 SHORT $LN4@ioINILoade
$LN81@ioINILoade:
  0041d	88 58 12	 mov	 BYTE PTR [eax+18], bl
  00420	eb 66		 jmp	 SHORT $LN4@ioINILoade
$LN82@ioINILoade:
  00422	c6 40 11 ec	 mov	 BYTE PTR [eax+17], -20	; ffffffecH
  00426	eb 60		 jmp	 SHORT $LN4@ioINILoade
$LN83@ioINILoade:
  00428	c6 40 10 ed	 mov	 BYTE PTR [eax+16], -19	; ffffffedH
  0042c	eb 5a		 jmp	 SHORT $LN4@ioINILoade
$LN84@ioINILoade:
  0042e	c6 40 0f ea	 mov	 BYTE PTR [eax+15], -22	; ffffffeaH
  00432	eb 54		 jmp	 SHORT $LN4@ioINILoade
$LN85@ioINILoade:
  00434	88 58 0e	 mov	 BYTE PTR [eax+14], bl
  00437	eb 4f		 jmp	 SHORT $LN4@ioINILoade
$LN86@ioINILoade:
  00439	c6 40 0d ec	 mov	 BYTE PTR [eax+13], -20	; ffffffecH
  0043d	eb 49		 jmp	 SHORT $LN4@ioINILoade
$LN87@ioINILoade:
  0043f	c6 40 0c ed	 mov	 BYTE PTR [eax+12], -19	; ffffffedH
  00443	eb 43		 jmp	 SHORT $LN4@ioINILoade
$LN88@ioINILoade:
  00445	c6 40 0b ea	 mov	 BYTE PTR [eax+11], -22	; ffffffeaH
  00449	eb 3d		 jmp	 SHORT $LN4@ioINILoade
$LN89@ioINILoade:
  0044b	88 58 0a	 mov	 BYTE PTR [eax+10], bl
  0044e	eb 38		 jmp	 SHORT $LN4@ioINILoade
$LN90@ioINILoade:
  00450	c6 40 09 ec	 mov	 BYTE PTR [eax+9], -20	; ffffffecH
  00454	eb 32		 jmp	 SHORT $LN4@ioINILoade
$LN91@ioINILoade:
  00456	c6 40 08 ed	 mov	 BYTE PTR [eax+8], -19	; ffffffedH
  0045a	eb 2c		 jmp	 SHORT $LN4@ioINILoade
$LN92@ioINILoade:
  0045c	c6 40 07 ea	 mov	 BYTE PTR [eax+7], -22	; ffffffeaH
  00460	eb 26		 jmp	 SHORT $LN4@ioINILoade
$LN93@ioINILoade:
  00462	88 58 06	 mov	 BYTE PTR [eax+6], bl
  00465	eb 21		 jmp	 SHORT $LN4@ioINILoade
$LN94@ioINILoade:
  00467	c6 40 05 ec	 mov	 BYTE PTR [eax+5], -20	; ffffffecH
  0046b	eb 1b		 jmp	 SHORT $LN4@ioINILoade
$LN95@ioINILoade:
  0046d	c6 40 04 ed	 mov	 BYTE PTR [eax+4], -19	; ffffffedH
  00471	eb 15		 jmp	 SHORT $LN4@ioINILoade
$LN96@ioINILoade:
  00473	c6 40 03 ea	 mov	 BYTE PTR [eax+3], -22	; ffffffeaH
  00477	eb 0f		 jmp	 SHORT $LN4@ioINILoade
$LN97@ioINILoade:
  00479	c6 40 02 eb	 mov	 BYTE PTR [eax+2], -21	; ffffffebH
  0047d	eb 09		 jmp	 SHORT $LN4@ioINILoade
$LN98@ioINILoade:
  0047f	c6 40 01 ec	 mov	 BYTE PTR [eax+1], -20	; ffffffecH
  00483	eb 03		 jmp	 SHORT $LN4@ioINILoade
$LN99@ioINILoade:
  00485	c6 00 ed	 mov	 BYTE PTR [eax], -19	; ffffffedH
$LN4@ioINILoade:
  00488	6a 07		 push	 7
  0048a	8b c8		 mov	 ecx, eax
  0048c	c6 40 1f 00	 mov	 BYTE PTR [eax+31], 0
  00490	5a		 pop	 edx
$LL107@ioINILoade:
  00491	81 31 ed ec eb
	ea		 xor	 DWORD PTR [ecx], -353637139 ; eaebecedH
  00497	83 c1 04	 add	 ecx, 4
  0049a	4a		 dec	 edx
  0049b	75 f4		 jne	 SHORT $LL107@ioINILoade
  0049d	6a 1c		 push	 28			; 0000001cH
  0049f	5e		 pop	 esi
$LL104@ioINILoade:
  004a0	8b ce		 mov	 ecx, esi
  004a2	81 e1 03 00 00
	80		 and	 ecx, -2147483645	; 80000003H
  004a8	79 05		 jns	 SHORT $LN114@ioINILoade
  004aa	49		 dec	 ecx
  004ab	83 c9 fc	 or	 ecx, -4			; fffffffcH
  004ae	41		 inc	 ecx
$LN114@ioINILoade:
  004af	b2 ed		 mov	 dl, -19			; ffffffedH
  004b1	2a d1		 sub	 dl, cl
  004b3	30 14 06	 xor	 BYTE PTR [esi+eax], dl
  004b6	46		 inc	 esi
  004b7	83 fe 1f	 cmp	 esi, 31			; 0000001fH
  004ba	7c e4		 jl	 SHORT $LL104@ioINILoade
  004bc	ff 75 0c	 push	 DWORD PTR _b$[ebp]
  004bf	8b cf		 mov	 ecx, edi
  004c1	50		 push	 eax
  004c2	ff 15 00 00 00
	00		 call	 DWORD PTR __imp_??0ioINILoader@@QAE@PBD_N@Z

; 225  : 	}

  004c8	8b c7		 mov	 eax, edi
  004ca	5f		 pop	 edi
  004cb	5e		 pop	 esi
  004cc	5b		 pop	 ebx
  004cd	5d		 pop	 ebp
  004ce	c2 08 00	 ret	 8
??$?0$0CA@@ioINILoader_e@@QAE@AAY0CA@$$CBD_N@Z ENDP	; ioINILoader_e::ioINILoader_e<32>
_TEXT	ENDS
PUBLIC	??$?0AAKAAVioHashString@@@?$pair@$$CBKVioHashString@@@std@@QAE@AAKAAVioHashString@@@Z ; std::pair<unsigned long const ,ioHashString>::pair<unsigned long const ,ioHashString><unsigned long &,ioHashString &>
; Function compile flags: /Ogsp
; File c:\program files (x86)\microsoft visual studio 10.0\vc\include\utility
;	COMDAT ??$?0AAKAAVioHashString@@@?$pair@$$CBKVioHashString@@@std@@QAE@AAKAAVioHashString@@@Z
_TEXT	SEGMENT
__Val1$ = 8						; size = 4
__Val2$ = 12						; size = 4
??$?0AAKAAVioHashString@@@?$pair@$$CBKVioHashString@@@std@@QAE@AAKAAVioHashString@@@Z PROC ; std::pair<unsigned long const ,ioHashString>::pair<unsigned long const ,ioHashString><unsigned long &,ioHashString &>, COMDAT
; _this$ = ecx

; 247  : 		{	// construct from moved values

  00000	55		 push	 ebp
  00001	8b ec		 mov	 ebp, esp
  00003	8b 45 08	 mov	 eax, DWORD PTR __Val1$[ebp]
  00006	8b 00		 mov	 eax, DWORD PTR [eax]
  00008	56		 push	 esi
  00009	ff 75 0c	 push	 DWORD PTR __Val2$[ebp]
  0000c	8b f1		 mov	 esi, ecx
  0000e	8d 4e 04	 lea	 ecx, DWORD PTR [esi+4]
  00011	89 06		 mov	 DWORD PTR [esi], eax
  00013	ff 15 00 00 00
	00		 call	 DWORD PTR __imp_??0ioHashString@@QAE@ABV0@@Z

; 248  : 		}

  00019	8b c6		 mov	 eax, esi
  0001b	5e		 pop	 esi
  0001c	5d		 pop	 ebp
  0001d	c2 08 00	 ret	 8
??$?0AAKAAVioHashString@@@?$pair@$$CBKVioHashString@@@std@@QAE@AAKAAVioHashString@@@Z ENDP ; std::pair<unsigned long const ,ioHashString>::pair<unsigned long const ,ioHashString><unsigned long &,ioHashString &>
_TEXT	ENDS
PUBLIC	??0?$pair@V?$_Tree_iterator@V?$_Tree_val@V?$_Tmap_traits@KVioHashString@@U?$less@K@std@@V?$allocator@U?$pair@$$CBKVioHashString@@@std@@@3@$0A@@std@@@std@@@std@@_N@std@@QAE@$$QAV?$_Tree_iterator@V?$_Tree_val@V?$_Tmap_traits@KVioHashString@@U?$less@K@std@@V?$allocator@U?$pair@$$CBKVioHashString@@@std@@@3@$0A@@std@@@std@@@1@$$QA_N@Z ; std::pair<std::_Tree_iterator<std::_Tree_val<std::_Tmap_traits<unsigned long,ioHashString,std::less<unsigned long>,std::allocator<std::pair<unsigned long const ,ioHashString> >,0> > >,bool>::pair<std::_Tree_iterator<std::_Tree_val<std::_Tmap_traits<unsigned long,ioHashString,std::less<unsigned long>,std::allocator<std::pair<unsigned long const ,ioHashString> >,0> > >,bool>
; Function compile flags: /Ogsp
;	COMDAT ??0?$pair@V?$_Tree_iterator@V?$_Tree_val@V?$_Tmap_traits@KVioHashString@@U?$less@K@std@@V?$allocator@U?$pair@$$CBKVioHashString@@@std@@@3@$0A@@std@@@std@@@std@@_N@std@@QAE@$$QAV?$_Tree_iterator@V?$_Tree_val@V?$_Tmap_traits@KVioHashString@@U?$less@K@std@@V?$allocator@U?$pair@$$CBKVioHashString@@@std@@@3@$0A@@std@@@std@@@1@$$QA_N@Z
_TEXT	SEGMENT
__Val1$ = 8						; size = 4
__Val2$ = 12						; size = 4
??0?$pair@V?$_Tree_iterator@V?$_Tree_val@V?$_Tmap_traits@KVioHashString@@U?$less@K@std@@V?$allocator@U?$pair@$$CBKVioHashString@@@std@@@3@$0A@@std@@@std@@@std@@_N@std@@QAE@$$QAV?$_Tree_iterator@V?$_Tree_val@V?$_Tmap_traits@KVioHashString@@U?$less@K@std@@V?$allocator@U?$pair@$$CBKVioHashString@@@std@@@3@$0A@@std@@@std@@@1@$$QA_N@Z PROC ; std::pair<std::_Tree_iterator<std::_Tree_val<std::_Tmap_traits<unsigned long,ioHashString,std::less<unsigned long>,std::allocator<std::pair<unsigned long const ,ioHashString> >,0> > >,bool>::pair<std::_Tree_iterator<std::_Tree_val<std::_Tmap_traits<unsigned long,ioHashString,std::less<unsigned long>,std::allocator<std::pair<unsigned long const ,ioHashString> >,0> > >,bool>, COMDAT
; _this$ = ecx

; 227  : 		{	// construct from specified values

  00000	55		 push	 ebp
  00001	8b ec		 mov	 ebp, esp
  00003	8b c1		 mov	 eax, ecx
  00005	8b 4d 08	 mov	 ecx, DWORD PTR __Val1$[ebp]
  00008	8b 09		 mov	 ecx, DWORD PTR [ecx]
  0000a	89 08		 mov	 DWORD PTR [eax], ecx
  0000c	8b 4d 0c	 mov	 ecx, DWORD PTR __Val2$[ebp]
  0000f	8a 09		 mov	 cl, BYTE PTR [ecx]
  00011	88 48 04	 mov	 BYTE PTR [eax+4], cl

; 228  : 		}

  00014	5d		 pop	 ebp
  00015	c2 08 00	 ret	 8
??0?$pair@V?$_Tree_iterator@V?$_Tree_val@V?$_Tmap_traits@KVioHashString@@U?$less@K@std@@V?$allocator@U?$pair@$$CBKVioHashString@@@std@@@3@$0A@@std@@@std@@@std@@_N@std@@QAE@$$QAV?$_Tree_iterator@V?$_Tree_val@V?$_Tmap_traits@KVioHashString@@U?$less@K@std@@V?$allocator@U?$pair@$$CBKVioHashString@@@std@@@3@$0A@@std@@@std@@@1@$$QA_N@Z ENDP ; std::pair<std::_Tree_iterator<std::_Tree_val<std::_Tmap_traits<unsigned long,ioHashString,std::less<unsigned long>,std::allocator<std::pair<unsigned long const ,ioHashString> >,0> > >,bool>::pair<std::_Tree_iterator<std::_Tree_val<std::_Tmap_traits<unsigned long,ioHashString,std::less<unsigned long>,std::allocator<std::pair<unsigned long const ,ioHashString> >,0> > >,bool>
_TEXT	ENDS
PUBLIC	??F?$_Tree_iterator@V?$_Tree_val@V?$_Tmap_traits@KVioHashString@@U?$less@K@std@@V?$allocator@U?$pair@$$CBKVioHashString@@@std@@@3@$0A@@std@@@std@@@std@@QAEAAV01@XZ ; std::_Tree_iterator<std::_Tree_val<std::_Tmap_traits<unsigned long,ioHashString,std::less<unsigned long>,std::allocator<std::pair<unsigned long const ,ioHashString> >,0> > >::operator--
; Function compile flags: /Ogsp
; File c:\program files (x86)\microsoft visual studio 10.0\vc\include\xtree
;	COMDAT ??F?$_Tree_iterator@V?$_Tree_val@V?$_Tmap_traits@KVioHashString@@U?$less@K@std@@V?$allocator@U?$pair@$$CBKVioHashString@@@std@@@3@$0A@@std@@@std@@@std@@QAEAAV01@XZ
_TEXT	SEGMENT
??F?$_Tree_iterator@V?$_Tree_val@V?$_Tmap_traits@KVioHashString@@U?$less@K@std@@V?$allocator@U?$pair@$$CBKVioHashString@@@std@@@3@$0A@@std@@@std@@@std@@QAEAAV01@XZ PROC ; std::_Tree_iterator<std::_Tree_val<std::_Tmap_traits<unsigned long,ioHashString,std::less<unsigned long>,std::allocator<std::pair<unsigned long const ,ioHashString> >,0> > >::operator--, COMDAT
; _this$ = ecx

; 418  : 		{	// predecrement

  00000	56		 push	 esi
  00001	8b f1		 mov	 esi, ecx

; 419  : 		--(*(_Mybase *)this);

  00003	e8 00 00 00 00	 call	 ??F?$_Tree_unchecked_const_iterator@V?$_Tree_val@V?$_Tmap_traits@KVioHashString@@U?$less@K@std@@V?$allocator@U?$pair@$$CBKVioHashString@@@std@@@3@$0A@@std@@@std@@U_Iterator_base0@2@@std@@QAEAAV01@XZ ; std::_Tree_unchecked_const_iterator<std::_Tree_val<std::_Tmap_traits<unsigned long,ioHashString,std::less<unsigned long>,std::allocator<std::pair<unsigned long const ,ioHashString> >,0> >,std::_Iterator_base0>::operator--

; 420  : 		return (*this);

  00008	8b c6		 mov	 eax, esi
  0000a	5e		 pop	 esi

; 421  : 		}

  0000b	c3		 ret	 0
??F?$_Tree_iterator@V?$_Tree_val@V?$_Tmap_traits@KVioHashString@@U?$less@K@std@@V?$allocator@U?$pair@$$CBKVioHashString@@@std@@@3@$0A@@std@@@std@@@std@@QAEAAV01@XZ ENDP ; std::_Tree_iterator<std::_Tree_val<std::_Tmap_traits<unsigned long,ioHashString,std::less<unsigned long>,std::allocator<std::pair<unsigned long const ,ioHashString> >,0> > >::operator--
_TEXT	ENDS
PUBLIC	??$?0AAV?$_Tree_iterator@V?$_Tree_val@V?$_Tmap_traits@KVioHashString@@U?$less@K@std@@V?$allocator@U?$pair@$$CBKVioHashString@@@std@@@3@$0A@@std@@@std@@@std@@_N@?$pair@V?$_Tree_iterator@V?$_Tree_val@V?$_Tmap_traits@KVioHashString@@U?$less@K@std@@V?$allocator@U?$pair@$$CBKVioHashString@@@std@@@3@$0A@@std@@@std@@@std@@_N@std@@QAE@AAV?$_Tree_iterator@V?$_Tree_val@V?$_Tmap_traits@KVioHashString@@U?$less@K@std@@V?$allocator@U?$pair@$$CBKVioHashString@@@std@@@3@$0A@@std@@@std@@@1@$$QA_N@Z ; std::pair<std::_Tree_iterator<std::_Tree_val<std::_Tmap_traits<unsigned long,ioHashString,std::less<unsigned long>,std::allocator<std::pair<unsigned long const ,ioHashString> >,0> > >,bool>::pair<std::_Tree_iterator<std::_Tree_val<std::_Tmap_traits<unsigned long,ioHashString,std::less<unsigned long>,std::allocator<std::pair<unsigned long const ,ioHashString> >,0> > >,bool><std::_Tree_iterator<std::_Tree_val<std::_Tmap_traits<unsigned long,ioHashString,std::less<unsigned long>,std::allocator<std::pair<unsigned long const ,ioHashString> >,0> > > &,bool>
; Function compile flags: /Ogsp
; File c:\program files (x86)\microsoft visual studio 10.0\vc\include\utility
;	COMDAT ??$?0AAV?$_Tree_iterator@V?$_Tree_val@V?$_Tmap_traits@KVioHashString@@U?$less@K@std@@V?$allocator@U?$pair@$$CBKVioHashString@@@std@@@3@$0A@@std@@@std@@@std@@_N@?$pair@V?$_Tree_iterator@V?$_Tree_val@V?$_Tmap_traits@KVioHashString@@U?$less@K@std@@V?$allocator@U?$pair@$$CBKVioHashString@@@std@@@3@$0A@@std@@@std@@@std@@_N@std@@QAE@AAV?$_Tree_iterator@V?$_Tree_val@V?$_Tmap_traits@KVioHashString@@U?$less@K@std@@V?$allocator@U?$pair@$$CBKVioHashString@@@std@@@3@$0A@@std@@@std@@@1@$$QA_N@Z
_TEXT	SEGMENT
__Val1$ = 8						; size = 4
__Val2$ = 12						; size = 4
??$?0AAV?$_Tree_iterator@V?$_Tree_val@V?$_Tmap_traits@KVioHashString@@U?$less@K@std@@V?$allocator@U?$pair@$$CBKVioHashString@@@std@@@3@$0A@@std@@@std@@@std@@_N@?$pair@V?$_Tree_iterator@V?$_Tree_val@V?$_Tmap_traits@KVioHashString@@U?$less@K@std@@V?$allocator@U?$pair@$$CBKVioHashString@@@std@@@3@$0A@@std@@@std@@@std@@_N@std@@QAE@AAV?$_Tree_iterator@V?$_Tree_val@V?$_Tmap_traits@KVioHashString@@U?$less@K@std@@V?$allocator@U?$pair@$$CBKVioHashString@@@std@@@3@$0A@@std@@@std@@@1@$$QA_N@Z PROC ; std::pair<std::_Tree_iterator<std::_Tree_val<std::_Tmap_traits<unsigned long,ioHashString,std::less<unsigned long>,std::allocator<std::pair<unsigned long const ,ioHashString> >,0> > >,bool>::pair<std::_Tree_iterator<std::_Tree_val<std::_Tmap_traits<unsigned long,ioHashString,std::less<unsigned long>,std::allocator<std::pair<unsigned long const ,ioHashString> >,0> > >,bool><std::_Tree_iterator<std::_Tree_val<std::_Tmap_traits<unsigned long,ioHashString,std::less<unsigned long>,std::allocator<std::pair<unsigned long const ,ioHashString> >,0> > > &,bool>, COMDAT
; _this$ = ecx

; 247  : 		{	// construct from moved values

  00000	55		 push	 ebp
  00001	8b ec		 mov	 ebp, esp
  00003	8b c1		 mov	 eax, ecx
  00005	8b 4d 08	 mov	 ecx, DWORD PTR __Val1$[ebp]
  00008	8b 09		 mov	 ecx, DWORD PTR [ecx]
  0000a	89 08		 mov	 DWORD PTR [eax], ecx
  0000c	8b 4d 0c	 mov	 ecx, DWORD PTR __Val2$[ebp]
  0000f	8a 09		 mov	 cl, BYTE PTR [ecx]
  00011	88 48 04	 mov	 BYTE PTR [eax+4], cl

; 248  : 		}

  00014	5d		 pop	 ebp
  00015	c2 08 00	 ret	 8
??$?0AAV?$_Tree_iterator@V?$_Tree_val@V?$_Tmap_traits@KVioHashString@@U?$less@K@std@@V?$allocator@U?$pair@$$CBKVioHashString@@@std@@@3@$0A@@std@@@std@@@std@@_N@?$pair@V?$_Tree_iterator@V?$_Tree_val@V?$_Tmap_traits@KVioHashString@@U?$less@K@std@@V?$allocator@U?$pair@$$CBKVioHashString@@@std@@@3@$0A@@std@@@std@@@std@@_N@std@@QAE@AAV?$_Tree_iterator@V?$_Tree_val@V?$_Tmap_traits@KVioHashString@@U?$less@K@std@@V?$allocator@U?$pair@$$CBKVioHashString@@@std@@@3@$0A@@std@@@std@@@1@$$QA_N@Z ENDP ; std::pair<std::_Tree_iterator<std::_Tree_val<std::_Tmap_traits<unsigned long,ioHashString,std::less<unsigned long>,std::allocator<std::pair<unsigned long const ,ioHashString> >,0> > >,bool>::pair<std::_Tree_iterator<std::_Tree_val<std::_Tmap_traits<unsigned long,ioHashString,std::less<unsigned long>,std::allocator<std::pair<unsigned long const ,ioHashString> >,0> > >,bool><std::_Tree_iterator<std::_Tree_val<std::_Tmap_traits<unsigned long,ioHashString,std::less<unsigned long>,std::allocator<std::pair<unsigned long const ,ioHashString> >,0> > > &,bool>
_TEXT	ENDS
PUBLIC	??$_Destroy@U?$pair@$$CBKVioHashString@@@std@@@std@@YAXPAU?$pair@$$CBKVioHashString@@@0@@Z ; std::_Destroy<std::pair<unsigned long const ,ioHashString> >
; Function compile flags: /Ogsp
; File c:\program files (x86)\microsoft visual studio 10.0\vc\include\xmemory
;	COMDAT ??$_Destroy@U?$pair@$$CBKVioHashString@@@std@@@std@@YAXPAU?$pair@$$CBKVioHashString@@@0@@Z
_TEXT	SEGMENT
__Ptr$ = 8						; size = 4
??$_Destroy@U?$pair@$$CBKVioHashString@@@std@@@std@@YAXPAU?$pair@$$CBKVioHashString@@@0@@Z PROC ; std::_Destroy<std::pair<unsigned long const ,ioHashString> >, COMDAT

; 62   : 	{	// destroy object at _Ptr

  00000	55		 push	 ebp
  00001	8b ec		 mov	 ebp, esp

; 63   : 	_Ptr->~_Ty();

  00003	8b 4d 08	 mov	 ecx, DWORD PTR __Ptr$[ebp]
  00006	83 c1 04	 add	 ecx, 4

; 64   : 	}

  00009	5d		 pop	 ebp

; 63   : 	_Ptr->~_Ty();

  0000a	ff 25 00 00 00
	00		 jmp	 DWORD PTR __imp_??1ioHashString@@QAE@XZ
??$_Destroy@U?$pair@$$CBKVioHashString@@@std@@@std@@YAXPAU?$pair@$$CBKVioHashString@@@0@@Z ENDP ; std::_Destroy<std::pair<unsigned long const ,ioHashString> >
_TEXT	ENDS
PUBLIC	??$?0$$CBKVioHashString@@@?$pair@$$CBKVioHashString@@@std@@QAE@$$QAU01@@Z ; std::pair<unsigned long const ,ioHashString>::pair<unsigned long const ,ioHashString><unsigned long const ,ioHashString>
; Function compile flags: /Ogsp
; File c:\program files (x86)\microsoft visual studio 10.0\vc\include\utility
;	COMDAT ??$?0$$CBKVioHashString@@@?$pair@$$CBKVioHashString@@@std@@QAE@$$QAU01@@Z
_TEXT	SEGMENT
__Right$ = 8						; size = 4
??$?0$$CBKVioHashString@@@?$pair@$$CBKVioHashString@@@std@@QAE@$$QAU01@@Z PROC ; std::pair<unsigned long const ,ioHashString>::pair<unsigned long const ,ioHashString><unsigned long const ,ioHashString>, COMDAT
; _this$ = ecx

; 255  : 		{	// construct from moved compatible pair

  00000	55		 push	 ebp
  00001	8b ec		 mov	 ebp, esp
  00003	8b 45 08	 mov	 eax, DWORD PTR __Right$[ebp]
  00006	56		 push	 esi
  00007	8b f1		 mov	 esi, ecx
  00009	8b 08		 mov	 ecx, DWORD PTR [eax]
  0000b	83 c0 04	 add	 eax, 4
  0000e	89 0e		 mov	 DWORD PTR [esi], ecx
  00010	50		 push	 eax
  00011	8d 4e 04	 lea	 ecx, DWORD PTR [esi+4]
  00014	ff 15 00 00 00
	00		 call	 DWORD PTR __imp_??0ioHashString@@QAE@ABV0@@Z

; 256  : 		}

  0001a	8b c6		 mov	 eax, esi
  0001c	5e		 pop	 esi
  0001d	5d		 pop	 ebp
  0001e	c2 04 00	 ret	 4
??$?0$$CBKVioHashString@@@?$pair@$$CBKVioHashString@@@std@@QAE@$$QAU01@@Z ENDP ; std::pair<unsigned long const ,ioHashString>::pair<unsigned long const ,ioHashString><unsigned long const ,ioHashString>
_TEXT	ENDS
PUBLIC	??0?$_Tree@V?$_Tmap_traits@KVioHashString@@U?$less@K@std@@V?$allocator@U?$pair@$$CBKVioHashString@@@std@@@3@$0A@@std@@@std@@QAE@ABU?$less@K@1@ABV?$allocator@U?$pair@$$CBKVioHashString@@@std@@@1@@Z ; std::_Tree<std::_Tmap_traits<unsigned long,ioHashString,std::less<unsigned long>,std::allocator<std::pair<unsigned long const ,ioHashString> >,0> >::_Tree<std::_Tmap_traits<unsigned long,ioHashString,std::less<unsigned long>,std::allocator<std::pair<unsigned long const ,ioHashString> >,0> >
; Function compile flags: /Ogsp
; File c:\program files (x86)\microsoft visual studio 10.0\vc\include\xtree
;	COMDAT ??0?$_Tree@V?$_Tmap_traits@KVioHashString@@U?$less@K@std@@V?$allocator@U?$pair@$$CBKVioHashString@@@std@@@3@$0A@@std@@@std@@QAE@ABU?$less@K@1@ABV?$allocator@U?$pair@$$CBKVioHashString@@@std@@@1@@Z
_TEXT	SEGMENT
$T508302 = -4						; size = 4
$T508297 = -4						; size = 4
__Parg$ = 8						; size = 4
__Al$ = 12						; size = 4
??0?$_Tree@V?$_Tmap_traits@KVioHashString@@U?$less@K@std@@V?$allocator@U?$pair@$$CBKVioHashString@@@std@@@3@$0A@@std@@@std@@QAE@ABU?$less@K@1@ABV?$allocator@U?$pair@$$CBKVioHashString@@@std@@@1@@Z PROC ; std::_Tree<std::_Tmap_traits<unsigned long,ioHashString,std::less<unsigned long>,std::allocator<std::pair<unsigned long const ,ioHashString> >,0> >::_Tree<std::_Tmap_traits<unsigned long,ioHashString,std::less<unsigned long>,std::allocator<std::pair<unsigned long const ,ioHashString> >,0> >, COMDAT
; _this$ = ecx

; 698  : 		{	// construct empty tree

  00000	55		 push	 ebp
  00001	8b ec		 mov	 ebp, esp
  00003	51		 push	 ecx
  00004	56		 push	 esi
  00005	51		 push	 ecx
  00006	89 65 fc	 mov	 DWORD PTR $T508297[ebp], esp
  00009	89 65 fc	 mov	 DWORD PTR $T508302[ebp], esp
  0000c	ff 75 08	 push	 DWORD PTR __Parg$[ebp]
  0000f	8b f1		 mov	 esi, ecx
  00011	e8 00 00 00 00	 call	 ??0?$_Tree_val@V?$_Tmap_traits@KVioHashString@@U?$less@K@std@@V?$allocator@U?$pair@$$CBKVioHashString@@@std@@@3@$0A@@std@@@std@@QAE@ABU?$less@K@1@V?$allocator@U?$pair@$$CBKVioHashString@@@std@@@1@@Z ; std::_Tree_val<std::_Tmap_traits<unsigned long,ioHashString,std::less<unsigned long>,std::allocator<std::pair<unsigned long const ,ioHashString> >,0> >::_Tree_val<std::_Tmap_traits<unsigned long,ioHashString,std::less<unsigned long>,std::allocator<std::pair<unsigned long const ,ioHashString> >,0> >

; 699  : 		}

  00016	8b c6		 mov	 eax, esi
  00018	5e		 pop	 esi
  00019	c9		 leave
  0001a	c2 08 00	 ret	 8
??0?$_Tree@V?$_Tmap_traits@KVioHashString@@U?$less@K@std@@V?$allocator@U?$pair@$$CBKVioHashString@@@std@@@3@$0A@@std@@@std@@QAE@ABU?$less@K@1@ABV?$allocator@U?$pair@$$CBKVioHashString@@@std@@@1@@Z ENDP ; std::_Tree<std::_Tmap_traits<unsigned long,ioHashString,std::less<unsigned long>,std::allocator<std::pair<unsigned long const ,ioHashString> >,0> >::_Tree<std::_Tmap_traits<unsigned long,ioHashString,std::less<unsigned long>,std::allocator<std::pair<unsigned long const ,ioHashString> >,0> >
_TEXT	ENDS
PUBLIC	??0?$_Tree_iterator@V?$_Tree_val@V?$_Tmap_traits@KVioHashString@@U?$less@K@std@@V?$allocator@U?$pair@$$CBKVioHashString@@@std@@@3@$0A@@std@@@std@@@std@@QAE@PAU_Node@?$_Tree_nod@V?$_Tmap_traits@KVioHashString@@U?$less@K@std@@V?$allocator@U?$pair@$$CBKVioHashString@@@std@@@3@$0A@@std@@@1@PBV?$_Tree_val@V?$_Tmap_traits@KVioHashString@@U?$less@K@std@@V?$allocator@U?$pair@$$CBKVioHashString@@@std@@@3@$0A@@std@@@1@@Z ; std::_Tree_iterator<std::_Tree_val<std::_Tmap_traits<unsigned long,ioHashString,std::less<unsigned long>,std::allocator<std::pair<unsigned long const ,ioHashString> >,0> > >::_Tree_iterator<std::_Tree_val<std::_Tmap_traits<unsigned long,ioHashString,std::less<unsigned long>,std::allocator<std::pair<unsigned long const ,ioHashString> >,0> > >
; Function compile flags: /Ogsp
;	COMDAT ??0?$_Tree_iterator@V?$_Tree_val@V?$_Tmap_traits@KVioHashString@@U?$less@K@std@@V?$allocator@U?$pair@$$CBKVioHashString@@@std@@@3@$0A@@std@@@std@@@std@@QAE@PAU_Node@?$_Tree_nod@V?$_Tmap_traits@KVioHashString@@U?$less@K@std@@V?$allocator@U?$pair@$$CBKVioHashString@@@std@@@3@$0A@@std@@@1@PBV?$_Tree_val@V?$_Tmap_traits@KVioHashString@@U?$less@K@std@@V?$allocator@U?$pair@$$CBKVioHashString@@@std@@@3@$0A@@std@@@1@@Z
_TEXT	SEGMENT
__Pnode$ = 8						; size = 4
__Plist$ = 12						; size = 4
??0?$_Tree_iterator@V?$_Tree_val@V?$_Tmap_traits@KVioHashString@@U?$less@K@std@@V?$allocator@U?$pair@$$CBKVioHashString@@@std@@@3@$0A@@std@@@std@@@std@@QAE@PAU_Node@?$_Tree_nod@V?$_Tmap_traits@KVioHashString@@U?$less@K@std@@V?$allocator@U?$pair@$$CBKVioHashString@@@std@@@3@$0A@@std@@@1@PBV?$_Tree_val@V?$_Tmap_traits@KVioHashString@@U?$less@K@std@@V?$allocator@U?$pair@$$CBKVioHashString@@@std@@@3@$0A@@std@@@1@@Z PROC ; std::_Tree_iterator<std::_Tree_val<std::_Tmap_traits<unsigned long,ioHashString,std::less<unsigned long>,std::allocator<std::pair<unsigned long const ,ioHashString> >,0> > >::_Tree_iterator<std::_Tree_val<std::_Tmap_traits<unsigned long,ioHashString,std::less<unsigned long>,std::allocator<std::pair<unsigned long const ,ioHashString> >,0> > >, COMDAT
; _this$ = ecx

; 378  : 		{	// construct with node pointer _Pnode

  00000	55		 push	 ebp
  00001	8b ec		 mov	 ebp, esp
  00003	8b c1		 mov	 eax, ecx
  00005	8b 4d 08	 mov	 ecx, DWORD PTR __Pnode$[ebp]
  00008	89 08		 mov	 DWORD PTR [eax], ecx

; 379  : 		}

  0000a	5d		 pop	 ebp
  0000b	c2 08 00	 ret	 8
??0?$_Tree_iterator@V?$_Tree_val@V?$_Tmap_traits@KVioHashString@@U?$less@K@std@@V?$allocator@U?$pair@$$CBKVioHashString@@@std@@@3@$0A@@std@@@std@@@std@@QAE@PAU_Node@?$_Tree_nod@V?$_Tmap_traits@KVioHashString@@U?$less@K@std@@V?$allocator@U?$pair@$$CBKVioHashString@@@std@@@3@$0A@@std@@@1@PBV?$_Tree_val@V?$_Tmap_traits@KVioHashString@@U?$less@K@std@@V?$allocator@U?$pair@$$CBKVioHashString@@@std@@@3@$0A@@std@@@1@@Z ENDP ; std::_Tree_iterator<std::_Tree_val<std::_Tmap_traits<unsigned long,ioHashString,std::less<unsigned long>,std::allocator<std::pair<unsigned long const ,ioHashString> >,0> > >::_Tree_iterator<std::_Tree_val<std::_Tmap_traits<unsigned long,ioHashString,std::less<unsigned long>,std::allocator<std::pair<unsigned long const ,ioHashString> >,0> > >
_TEXT	ENDS
PUBLIC	?begin@?$_Tree@V?$_Tmap_traits@KVioHashString@@U?$less@K@std@@V?$allocator@U?$pair@$$CBKVioHashString@@@std@@@3@$0A@@std@@@std@@QAE?AV?$_Tree_iterator@V?$_Tree_val@V?$_Tmap_traits@KVioHashString@@U?$less@K@std@@V?$allocator@U?$pair@$$CBKVioHashString@@@std@@@3@$0A@@std@@@std@@@2@XZ ; std::_Tree<std::_Tmap_traits<unsigned long,ioHashString,std::less<unsigned long>,std::allocator<std::pair<unsigned long const ,ioHashString> >,0> >::begin
; Function compile flags: /Ogsp
;	COMDAT ?begin@?$_Tree@V?$_Tmap_traits@KVioHashString@@U?$less@K@std@@V?$allocator@U?$pair@$$CBKVioHashString@@@std@@@3@$0A@@std@@@std@@QAE?AV?$_Tree_iterator@V?$_Tree_val@V?$_Tmap_traits@KVioHashString@@U?$less@K@std@@V?$allocator@U?$pair@$$CBKVioHashString@@@std@@@3@$0A@@std@@@std@@@2@XZ
_TEXT	SEGMENT
___$ReturnUdt$ = 8					; size = 4
?begin@?$_Tree@V?$_Tmap_traits@KVioHashString@@U?$less@K@std@@V?$allocator@U?$pair@$$CBKVioHashString@@@std@@@3@$0A@@std@@@std@@QAE?AV?$_Tree_iterator@V?$_Tree_val@V?$_Tmap_traits@KVioHashString@@U?$less@K@std@@V?$allocator@U?$pair@$$CBKVioHashString@@@std@@@3@$0A@@std@@@std@@@2@XZ PROC ; std::_Tree<std::_Tmap_traits<unsigned long,ioHashString,std::less<unsigned long>,std::allocator<std::pair<unsigned long const ,ioHashString> >,0> >::begin, COMDAT
; _this$ = ecx

; 806  : 		{	// return iterator for beginning of mutable sequence

  00000	55		 push	 ebp
  00001	8b ec		 mov	 ebp, esp

; 807  : 		return (iterator(_Lmost(), this));

  00003	8b 41 04	 mov	 eax, DWORD PTR [ecx+4]
  00006	8b 08		 mov	 ecx, DWORD PTR [eax]
  00008	8b 45 08	 mov	 eax, DWORD PTR ___$ReturnUdt$[ebp]
  0000b	89 08		 mov	 DWORD PTR [eax], ecx

; 808  : 		}

  0000d	5d		 pop	 ebp
  0000e	c2 04 00	 ret	 4
?begin@?$_Tree@V?$_Tmap_traits@KVioHashString@@U?$less@K@std@@V?$allocator@U?$pair@$$CBKVioHashString@@@std@@@3@$0A@@std@@@std@@QAE?AV?$_Tree_iterator@V?$_Tree_val@V?$_Tmap_traits@KVioHashString@@U?$less@K@std@@V?$allocator@U?$pair@$$CBKVioHashString@@@std@@@3@$0A@@std@@@std@@@2@XZ ENDP ; std::_Tree<std::_Tmap_traits<unsigned long,ioHashString,std::less<unsigned long>,std::allocator<std::pair<unsigned long const ,ioHashString> >,0> >::begin
_TEXT	ENDS
PUBLIC	?destroy@?$allocator@U?$pair@$$CBKVioHashString@@@std@@@std@@QAEXPAU?$pair@$$CBKVioHashString@@@2@@Z ; std::allocator<std::pair<unsigned long const ,ioHashString> >::destroy
; Function compile flags: /Ogsp
; File c:\program files (x86)\microsoft visual studio 10.0\vc\include\xmemory
;	COMDAT ?destroy@?$allocator@U?$pair@$$CBKVioHashString@@@std@@@std@@QAEXPAU?$pair@$$CBKVioHashString@@@2@@Z
_TEXT	SEGMENT
__Ptr$ = 8						; size = 4
?destroy@?$allocator@U?$pair@$$CBKVioHashString@@@std@@@std@@QAEXPAU?$pair@$$CBKVioHashString@@@2@@Z PROC ; std::allocator<std::pair<unsigned long const ,ioHashString> >::destroy, COMDAT
; _this$ = ecx

; 212  : 		{	// destroy object at _Ptr

  00000	55		 push	 ebp
  00001	8b ec		 mov	 ebp, esp

; 213  : 		_Destroy(_Ptr);

  00003	8b 4d 08	 mov	 ecx, DWORD PTR __Ptr$[ebp]
  00006	83 c1 04	 add	 ecx, 4
  00009	ff 15 00 00 00
	00		 call	 DWORD PTR __imp_??1ioHashString@@QAE@XZ

; 214  : 		}

  0000f	5d		 pop	 ebp
  00010	c2 04 00	 ret	 4
?destroy@?$allocator@U?$pair@$$CBKVioHashString@@@std@@@std@@QAEXPAU?$pair@$$CBKVioHashString@@@2@@Z ENDP ; std::allocator<std::pair<unsigned long const ,ioHashString> >::destroy
_TEXT	ENDS
PUBLIC	?construct@?$allocator@U?$pair@$$CBKVioHashString@@@std@@@std@@QAEXPAU?$pair@$$CBKVioHashString@@@2@$$QAU32@@Z ; std::allocator<std::pair<unsigned long const ,ioHashString> >::construct
EXTRN	___CxxFrameHandler3:PROC
EXTRN	__EH_epilog3:PROC
EXTRN	__EH_prolog3:PROC
;	COMDAT xdata$x
; File c:\program files (x86)\microsoft visual studio 10.0\vc\include\utility
xdata$x	SEGMENT
__unwindtable$?construct@?$allocator@U?$pair@$$CBKVioHashString@@@std@@@std@@QAEXPAU?$pair@$$CBKVioHashString@@@2@$$QAU32@@Z DD 0ffffffffH
	DD	FLAT:__unwindfunclet$?construct@?$allocator@U?$pair@$$CBKVioHashString@@@std@@@std@@QAEXPAU?$pair@$$CBKVioHashString@@@2@$$QAU32@@Z$0
__ehfuncinfo$?construct@?$allocator@U?$pair@$$CBKVioHashString@@@std@@@std@@QAEXPAU?$pair@$$CBKVioHashString@@@2@$$QAU32@@Z DD 019930522H
	DD	01H
	DD	FLAT:__unwindtable$?construct@?$allocator@U?$pair@$$CBKVioHashString@@@std@@@std@@QAEXPAU?$pair@$$CBKVioHashString@@@2@$$QAU32@@Z
	DD	2 DUP(00H)
	DD	2 DUP(00H)
	DD	00H
	DD	01H
; Function compile flags: /Ogsp
; File c:\program files (x86)\microsoft visual studio 10.0\vc\include\xmemory
xdata$x	ENDS
;	COMDAT ?construct@?$allocator@U?$pair@$$CBKVioHashString@@@std@@@std@@QAEXPAU?$pair@$$CBKVioHashString@@@2@$$QAU32@@Z
_TEXT	SEGMENT
$T508389 = -16						; size = 4
__$EHRec$ = -12						; size = 12
__Ptr$ = 8						; size = 4
__Val$ = 12						; size = 4
?construct@?$allocator@U?$pair@$$CBKVioHashString@@@std@@@std@@QAEXPAU?$pair@$$CBKVioHashString@@@2@$$QAU32@@Z PROC ; std::allocator<std::pair<unsigned long const ,ioHashString> >::construct, COMDAT
; _this$ = ecx

; 201  : 		{	// construct object at _Ptr with value _Val

  00000	6a 04		 push	 4
  00002	b8 00 00 00 00	 mov	 eax, __ehhandler$?construct@?$allocator@U?$pair@$$CBKVioHashString@@@std@@@std@@QAEXPAU?$pair@$$CBKVioHashString@@@2@$$QAU32@@Z
  00007	e8 00 00 00 00	 call	 __EH_prolog3

; 202  : 		::new ((void _FARQ *)_Ptr) _Ty(_STD forward<_Ty>(_Val));

  0000c	8b 45 08	 mov	 eax, DWORD PTR __Ptr$[ebp]
  0000f	89 45 f0	 mov	 DWORD PTR $T508389[ebp], eax
  00012	83 65 fc 00	 and	 DWORD PTR __$EHRec$[ebp+8], 0
  00016	85 c0		 test	 eax, eax
  00018	74 14		 je	 SHORT $LN3@construct
  0001a	8b 4d 0c	 mov	 ecx, DWORD PTR __Val$[ebp]
  0001d	8b 11		 mov	 edx, DWORD PTR [ecx]
  0001f	83 c1 04	 add	 ecx, 4
  00022	51		 push	 ecx
  00023	8d 48 04	 lea	 ecx, DWORD PTR [eax+4]
  00026	89 10		 mov	 DWORD PTR [eax], edx
  00028	ff 15 00 00 00
	00		 call	 DWORD PTR __imp_??0ioHashString@@QAE@ABV0@@Z
$LN3@construct:

; 203  : 		}

  0002e	e8 00 00 00 00	 call	 __EH_epilog3
  00033	c2 08 00	 ret	 8
_TEXT	ENDS
;	COMDAT text$x
text$x	SEGMENT
__unwindfunclet$?construct@?$allocator@U?$pair@$$CBKVioHashString@@@std@@@std@@QAEXPAU?$pair@$$CBKVioHashString@@@2@$$QAU32@@Z$0:
  00000	ff 75 08	 push	 DWORD PTR __Ptr$[ebp]
  00003	ff 75 f0	 push	 DWORD PTR $T508389[ebp]
  00006	e8 00 00 00 00	 call	 ??3@YAXPAX0@Z		; operator delete
  0000b	59		 pop	 ecx
  0000c	59		 pop	 ecx
  0000d	c3		 ret	 0
__ehhandler$?construct@?$allocator@U?$pair@$$CBKVioHashString@@@std@@@std@@QAEXPAU?$pair@$$CBKVioHashString@@@2@$$QAU32@@Z:
  0000e	8b 54 24 08	 mov	 edx, DWORD PTR [esp+8]
  00012	8d 42 0c	 lea	 eax, DWORD PTR [edx+12]
  00015	8b 4a ec	 mov	 ecx, DWORD PTR [edx-20]
  00018	33 c8		 xor	 ecx, eax
  0001a	e8 00 00 00 00	 call	 @__security_check_cookie@4
  0001f	b8 00 00 00 00	 mov	 eax, OFFSET __ehfuncinfo$?construct@?$allocator@U?$pair@$$CBKVioHashString@@@std@@@std@@QAEXPAU?$pair@$$CBKVioHashString@@@2@$$QAU32@@Z
  00024	e9 00 00 00 00	 jmp	 ___CxxFrameHandler3
text$x	ENDS
?construct@?$allocator@U?$pair@$$CBKVioHashString@@@std@@@std@@QAEXPAU?$pair@$$CBKVioHashString@@@2@$$QAU32@@Z ENDP ; std::allocator<std::pair<unsigned long const ,ioHashString> >::construct
PUBLIC	?end@?$_Tree@V?$_Tmap_traits@KVioHashString@@U?$less@K@std@@V?$allocator@U?$pair@$$CBKVioHashString@@@std@@@3@$0A@@std@@@std@@QAE?AV?$_Tree_iterator@V?$_Tree_val@V?$_Tmap_traits@KVioHashString@@U?$less@K@std@@V?$allocator@U?$pair@$$CBKVioHashString@@@std@@@3@$0A@@std@@@std@@@2@XZ ; std::_Tree<std::_Tmap_traits<unsigned long,ioHashString,std::less<unsigned long>,std::allocator<std::pair<unsigned long const ,ioHashString> >,0> >::end
; Function compile flags: /Ogsp
; File c:\program files (x86)\microsoft visual studio 10.0\vc\include\xtree
;	COMDAT ?end@?$_Tree@V?$_Tmap_traits@KVioHashString@@U?$less@K@std@@V?$allocator@U?$pair@$$CBKVioHashString@@@std@@@3@$0A@@std@@@std@@QAE?AV?$_Tree_iterator@V?$_Tree_val@V?$_Tmap_traits@KVioHashString@@U?$less@K@std@@V?$allocator@U?$pair@$$CBKVioHashString@@@std@@@3@$0A@@std@@@std@@@2@XZ
_TEXT	SEGMENT
___$ReturnUdt$ = 8					; size = 4
?end@?$_Tree@V?$_Tmap_traits@KVioHashString@@U?$less@K@std@@V?$allocator@U?$pair@$$CBKVioHashString@@@std@@@3@$0A@@std@@@std@@QAE?AV?$_Tree_iterator@V?$_Tree_val@V?$_Tmap_traits@KVioHashString@@U?$less@K@std@@V?$allocator@U?$pair@$$CBKVioHashString@@@std@@@3@$0A@@std@@@std@@@2@XZ PROC ; std::_Tree<std::_Tmap_traits<unsigned long,ioHashString,std::less<unsigned long>,std::allocator<std::pair<unsigned long const ,ioHashString> >,0> >::end, COMDAT
; _this$ = ecx

; 816  : 		{	// return iterator for end of mutable sequence

  00000	55		 push	 ebp
  00001	8b ec		 mov	 ebp, esp

; 817  : 		return (iterator(this->_Myhead, this));

  00003	8b 49 04	 mov	 ecx, DWORD PTR [ecx+4]
  00006	8b 45 08	 mov	 eax, DWORD PTR ___$ReturnUdt$[ebp]
  00009	89 08		 mov	 DWORD PTR [eax], ecx

; 818  : 		}

  0000b	5d		 pop	 ebp
  0000c	c2 04 00	 ret	 4
?end@?$_Tree@V?$_Tmap_traits@KVioHashString@@U?$less@K@std@@V?$allocator@U?$pair@$$CBKVioHashString@@@std@@@3@$0A@@std@@@std@@QAE?AV?$_Tree_iterator@V?$_Tree_val@V?$_Tmap_traits@KVioHashString@@U?$less@K@std@@V?$allocator@U?$pair@$$CBKVioHashString@@@std@@@3@$0A@@std@@@std@@@2@XZ ENDP ; std::_Tree<std::_Tmap_traits<unsigned long,ioHashString,std::less<unsigned long>,std::allocator<std::pair<unsigned long const ,ioHashString> >,0> >::end
_TEXT	ENDS
PUBLIC	?lower_bound@?$_Tree@V?$_Tmap_traits@KVioHashString@@U?$less@K@std@@V?$allocator@U?$pair@$$CBKVioHashString@@@std@@@3@$0A@@std@@@std@@QAE?AV?$_Tree_iterator@V?$_Tree_val@V?$_Tmap_traits@KVioHashString@@U?$less@K@std@@V?$allocator@U?$pair@$$CBKVioHashString@@@std@@@3@$0A@@std@@@std@@@2@ABK@Z ; std::_Tree<std::_Tmap_traits<unsigned long,ioHashString,std::less<unsigned long>,std::allocator<std::pair<unsigned long const ,ioHashString> >,0> >::lower_bound
; Function compile flags: /Ogsp
;	COMDAT ?lower_bound@?$_Tree@V?$_Tmap_traits@KVioHashString@@U?$less@K@std@@V?$allocator@U?$pair@$$CBKVioHashString@@@std@@@3@$0A@@std@@@std@@QAE?AV?$_Tree_iterator@V?$_Tree_val@V?$_Tmap_traits@KVioHashString@@U?$less@K@std@@V?$allocator@U?$pair@$$CBKVioHashString@@@std@@@3@$0A@@std@@@std@@@2@ABK@Z
_TEXT	SEGMENT
___$ReturnUdt$ = 8					; size = 4
__Keyval$ = 12						; size = 4
?lower_bound@?$_Tree@V?$_Tmap_traits@KVioHashString@@U?$less@K@std@@V?$allocator@U?$pair@$$CBKVioHashString@@@std@@@3@$0A@@std@@@std@@QAE?AV?$_Tree_iterator@V?$_Tree_val@V?$_Tmap_traits@KVioHashString@@U?$less@K@std@@V?$allocator@U?$pair@$$CBKVioHashString@@@std@@@3@$0A@@std@@@std@@@2@ABK@Z PROC ; std::_Tree<std::_Tmap_traits<unsigned long,ioHashString,std::less<unsigned long>,std::allocator<std::pair<unsigned long const ,ioHashString> >,0> >::lower_bound, COMDAT
; _this$ = ecx

; 1449 : 		{	// find leftmost node not less than _Keyval in mutable tree

  00000	55		 push	 ebp
  00001	8b ec		 mov	 ebp, esp

; 1450 : 		return (iterator(_Lbound(_Keyval), this));

  00003	ff 75 0c	 push	 DWORD PTR __Keyval$[ebp]
  00006	e8 00 00 00 00	 call	 ?_Lbound@?$_Tree@V?$_Tmap_traits@KVioHashString@@U?$less@K@std@@V?$allocator@U?$pair@$$CBKVioHashString@@@std@@@3@$0A@@std@@@std@@IAEPAU_Node@?$_Tree_nod@V?$_Tmap_traits@KVioHashString@@U?$less@K@std@@V?$allocator@U?$pair@$$CBKVioHashString@@@std@@@3@$0A@@std@@@2@ABK@Z ; std::_Tree<std::_Tmap_traits<unsigned long,ioHashString,std::less<unsigned long>,std::allocator<std::pair<unsigned long const ,ioHashString> >,0> >::_Lbound
  0000b	8b 4d 08	 mov	 ecx, DWORD PTR ___$ReturnUdt$[ebp]
  0000e	89 01		 mov	 DWORD PTR [ecx], eax
  00010	8b c1		 mov	 eax, ecx

; 1451 : 		}

  00012	5d		 pop	 ebp
  00013	c2 08 00	 ret	 8
?lower_bound@?$_Tree@V?$_Tmap_traits@KVioHashString@@U?$less@K@std@@V?$allocator@U?$pair@$$CBKVioHashString@@@std@@@3@$0A@@std@@@std@@QAE?AV?$_Tree_iterator@V?$_Tree_val@V?$_Tmap_traits@KVioHashString@@U?$less@K@std@@V?$allocator@U?$pair@$$CBKVioHashString@@@std@@@3@$0A@@std@@@std@@@2@ABK@Z ENDP ; std::_Tree<std::_Tmap_traits<unsigned long,ioHashString,std::less<unsigned long>,std::allocator<std::pair<unsigned long const ,ioHashString> >,0> >::lower_bound
_TEXT	ENDS
PUBLIC	??$_Dest_val@V?$allocator@U?$pair@$$CBKVioHashString@@@std@@@std@@U?$pair@$$CBKVioHashString@@@2@@std@@YAXAAV?$allocator@U?$pair@$$CBKVioHashString@@@std@@@0@PAU?$pair@$$CBKVioHashString@@@0@@Z ; std::_Dest_val<std::allocator<std::pair<unsigned long const ,ioHashString> >,std::pair<unsigned long const ,ioHashString> >
; Function compile flags: /Ogsp
; File c:\program files (x86)\microsoft visual studio 10.0\vc\include\xmemory
;	COMDAT ??$_Dest_val@V?$allocator@U?$pair@$$CBKVioHashString@@@std@@@std@@U?$pair@$$CBKVioHashString@@@2@@std@@YAXAAV?$allocator@U?$pair@$$CBKVioHashString@@@std@@@0@PAU?$pair@$$CBKVioHashString@@@0@@Z
_TEXT	SEGMENT
__Alval$ = 8						; size = 4
__Pdest$ = 12						; size = 4
??$_Dest_val@V?$allocator@U?$pair@$$CBKVioHashString@@@std@@@std@@U?$pair@$$CBKVioHashString@@@2@@std@@YAXAAV?$allocator@U?$pair@$$CBKVioHashString@@@std@@@0@PAU?$pair@$$CBKVioHashString@@@0@@Z PROC ; std::_Dest_val<std::allocator<std::pair<unsigned long const ,ioHashString> >,std::pair<unsigned long const ,ioHashString> >, COMDAT

; 286  : 	{	// destroy using allocator

  00000	55		 push	 ebp
  00001	8b ec		 mov	 ebp, esp

; 287  : 	_Alval.destroy(_Pdest);

  00003	8b 4d 0c	 mov	 ecx, DWORD PTR __Pdest$[ebp]
  00006	83 c1 04	 add	 ecx, 4

; 288  : 	}

  00009	5d		 pop	 ebp

; 287  : 	_Alval.destroy(_Pdest);

  0000a	ff 25 00 00 00
	00		 jmp	 DWORD PTR __imp_??1ioHashString@@QAE@XZ
??$_Dest_val@V?$allocator@U?$pair@$$CBKVioHashString@@@std@@@std@@U?$pair@$$CBKVioHashString@@@2@@std@@YAXAAV?$allocator@U?$pair@$$CBKVioHashString@@@std@@@0@PAU?$pair@$$CBKVioHashString@@@0@@Z ENDP ; std::_Dest_val<std::allocator<std::pair<unsigned long const ,ioHashString> >,std::pair<unsigned long const ,ioHashString> >
_TEXT	ENDS
PUBLIC	??_C@_0BE@JONHPENG@map?1set?$DMT?$DO?5too?5long?$AA@ ; `string'
PUBLIC	?_Insert@?$_Tree@V?$_Tmap_traits@KVioHashString@@U?$less@K@std@@V?$allocator@U?$pair@$$CBKVioHashString@@@std@@@3@$0A@@std@@@std@@IAE?AV?$_Tree_iterator@V?$_Tree_val@V?$_Tmap_traits@KVioHashString@@U?$less@K@std@@V?$allocator@U?$pair@$$CBKVioHashString@@@std@@@3@$0A@@std@@@std@@@2@_NPAU_Node@?$_Tree_nod@V?$_Tmap_traits@KVioHashString@@U?$less@K@std@@V?$allocator@U?$pair@$$CBKVioHashString@@@std@@@3@$0A@@std@@@2@1@Z ; std::_Tree<std::_Tmap_traits<unsigned long,ioHashString,std::less<unsigned long>,std::allocator<std::pair<unsigned long const ,ioHashString> >,0> >::_Insert
EXTRN	__imp_?_Xlength_error@std@@YAXPBD@Z:PROC
;	COMDAT ??_C@_0BE@JONHPENG@map?1set?$DMT?$DO?5too?5long?$AA@
; File c:\program files (x86)\microsoft visual studio 10.0\vc\include\xutility
CONST	SEGMENT
??_C@_0BE@JONHPENG@map?1set?$DMT?$DO?5too?5long?$AA@ DB 'map/set<T> too l'
	DB	'ong', 00H					; `string'
; Function compile flags: /Ogsp
; File c:\program files (x86)\microsoft visual studio 10.0\vc\include\xtree
CONST	ENDS
;	COMDAT ?_Insert@?$_Tree@V?$_Tmap_traits@KVioHashString@@U?$less@K@std@@V?$allocator@U?$pair@$$CBKVioHashString@@@std@@@3@$0A@@std@@@std@@IAE?AV?$_Tree_iterator@V?$_Tree_val@V?$_Tmap_traits@KVioHashString@@U?$less@K@std@@V?$allocator@U?$pair@$$CBKVioHashString@@@std@@@3@$0A@@std@@@std@@@2@_NPAU_Node@?$_Tree_nod@V?$_Tmap_traits@KVioHashString@@U?$less@K@std@@V?$allocator@U?$pair@$$CBKVioHashString@@@std@@@3@$0A@@std@@@2@1@Z
_TEXT	SEGMENT
___$ReturnUdt$ = 8					; size = 4
__Addleft$ = 12						; size = 1
__Wherenode$ = 16					; size = 4
__Newnode$ = 20						; size = 4
?_Insert@?$_Tree@V?$_Tmap_traits@KVioHashString@@U?$less@K@std@@V?$allocator@U?$pair@$$CBKVioHashString@@@std@@@3@$0A@@std@@@std@@IAE?AV?$_Tree_iterator@V?$_Tree_val@V?$_Tmap_traits@KVioHashString@@U?$less@K@std@@V?$allocator@U?$pair@$$CBKVioHashString@@@std@@@3@$0A@@std@@@std@@@2@_NPAU_Node@?$_Tree_nod@V?$_Tmap_traits@KVioHashString@@U?$less@K@std@@V?$allocator@U?$pair@$$CBKVioHashString@@@std@@@3@$0A@@std@@@2@1@Z PROC ; std::_Tree<std::_Tmap_traits<unsigned long,ioHashString,std::less<unsigned long>,std::allocator<std::pair<unsigned long const ,ioHashString> >,0> >::_Insert, COMDAT
; _this$ = ecx

; 1631 : 		{	// add node with value next to _Wherenode, to left if _Addleft

  00000	55		 push	 ebp
  00001	8b ec		 mov	 ebp, esp
  00003	53		 push	 ebx
  00004	56		 push	 esi
  00005	57		 push	 edi
  00006	8b f9		 mov	 edi, ecx

; 1632 : 		if (max_size() - 1 <= this->_Mysize)

  00008	8b 47 08	 mov	 eax, DWORD PTR [edi+8]
  0000b	3d cb cc cc 0c	 cmp	 eax, 214748363		; 0ccccccbH
  00010	72 1f		 jb	 SHORT $LN17@Insert

; 1633 : 			{	// tree would get too big, fail
; 1634 : 			_Dest_val(this->_Alval,
; 1635 : 				_STD addressof(this->_Myval(_Newnode)));

  00012	8b 75 14	 mov	 esi, DWORD PTR __Newnode$[ebp]
  00015	8d 4e 10	 lea	 ecx, DWORD PTR [esi+16]
  00018	ff 15 00 00 00
	00		 call	 DWORD PTR __imp_??1ioHashString@@QAE@XZ

; 1636 : 
; 1637 : 			this->_Alnod.deallocate(_Newnode, 1);

  0001e	56		 push	 esi
  0001f	e8 00 00 00 00	 call	 ??3@YAXPAX@Z		; operator delete

; 1638 : 
; 1639 : 			_Xlength_error("map/set<T> too long");

  00024	c7 04 24 00 00
	00 00		 mov	 DWORD PTR [esp], OFFSET ??_C@_0BE@JONHPENG@map?1set?$DMT?$DO?5too?5long?$AA@
  0002b	ff 15 00 00 00
	00		 call	 DWORD PTR __imp_?_Xlength_error@std@@YAXPBD@Z
$LN197@Insert:
$LN17@Insert:

; 1640 : 			}
; 1641 : 		++this->_Mysize;
; 1642 : 		_Newnode->_Parent = _Wherenode;

  00031	8b 5d 14	 mov	 ebx, DWORD PTR __Newnode$[ebp]
  00034	40		 inc	 eax
  00035	89 47 08	 mov	 DWORD PTR [edi+8], eax
  00038	8b 45 10	 mov	 eax, DWORD PTR __Wherenode$[ebp]
  0003b	89 43 04	 mov	 DWORD PTR [ebx+4], eax

; 1643 : 
; 1644 : 		if (_Wherenode == this->_Myhead)

  0003e	8b 4f 04	 mov	 ecx, DWORD PTR [edi+4]
  00041	3b c1		 cmp	 eax, ecx
  00043	75 10		 jne	 SHORT $LN16@Insert

; 1645 : 			{	// first node in tree, just set head values
; 1646 : 			_Root() = _Newnode;

  00045	89 59 04	 mov	 DWORD PTR [ecx+4], ebx

; 1647 : 			_Lmost() = _Newnode;

  00048	8b 47 04	 mov	 eax, DWORD PTR [edi+4]
  0004b	89 18		 mov	 DWORD PTR [eax], ebx

; 1648 : 			_Rmost() = _Newnode;

  0004d	8b 47 04	 mov	 eax, DWORD PTR [edi+4]
  00050	89 58 08	 mov	 DWORD PTR [eax+8], ebx
  00053	eb 21		 jmp	 SHORT $LN11@Insert
$LN16@Insert:

; 1649 : 			}
; 1650 : 		else if (_Addleft)

  00055	80 7d 0c 00	 cmp	 BYTE PTR __Addleft$[ebp], 0
  00059	74 0d		 je	 SHORT $LN14@Insert

; 1651 : 			{	// add to left of _Wherenode
; 1652 : 			this->_Left(_Wherenode) = _Newnode;

  0005b	89 18		 mov	 DWORD PTR [eax], ebx

; 1653 : 			if (_Wherenode == _Lmost())

  0005d	8b 4f 04	 mov	 ecx, DWORD PTR [edi+4]
  00060	3b 01		 cmp	 eax, DWORD PTR [ecx]
  00062	75 12		 jne	 SHORT $LN11@Insert

; 1654 : 				_Lmost() = _Newnode;

  00064	89 19		 mov	 DWORD PTR [ecx], ebx

; 1655 : 			}
; 1656 : 		else

  00066	eb 0e		 jmp	 SHORT $LN11@Insert
$LN14@Insert:

; 1657 : 			{	// add to right of _Wherenode
; 1658 : 			this->_Right(_Wherenode) = _Newnode;

  00068	89 58 08	 mov	 DWORD PTR [eax+8], ebx

; 1659 : 			if (_Wherenode == _Rmost())

  0006b	8b 4f 04	 mov	 ecx, DWORD PTR [edi+4]
  0006e	3b 41 08	 cmp	 eax, DWORD PTR [ecx+8]
  00071	75 03		 jne	 SHORT $LN11@Insert

; 1660 : 				_Rmost() = _Newnode;

  00073	89 59 08	 mov	 DWORD PTR [ecx+8], ebx
$LN11@Insert:

; 1661 : 			}
; 1662 : 
; 1663 : 		for (_Nodeptr _Pnode = _Newnode;
; 1664 : 			this->_Color(this->_Parent(_Pnode)) == this->_Red; )

  00076	8b 43 04	 mov	 eax, DWORD PTR [ebx+4]
  00079	8b f3		 mov	 esi, ebx
  0007b	e9 93 00 00 00	 jmp	 $LN195@Insert
$LL10@Insert:

; 1665 : 			if (this->_Parent(_Pnode)
; 1666 : 				== this->_Left(this->_Parent(this->_Parent(_Pnode))))

  00080	8b 46 04	 mov	 eax, DWORD PTR [esi+4]
  00083	8b 48 04	 mov	 ecx, DWORD PTR [eax+4]
  00086	3b 01		 cmp	 eax, DWORD PTR [ecx]
  00088	75 38		 jne	 SHORT $LN8@Insert

; 1667 : 				{	// fixup red-red in left subtree
; 1668 : 				_Wherenode =
; 1669 : 					this->_Right(this->_Parent(this->_Parent(_Pnode)));

  0008a	8b 49 08	 mov	 ecx, DWORD PTR [ecx+8]

; 1670 : 				if (this->_Color(_Wherenode) == this->_Red)

  0008d	80 79 20 00	 cmp	 BYTE PTR [ecx+32], 0

; 1671 : 					{	// parent has two red children, blacken both
; 1672 : 					this->_Color(this->_Parent(_Pnode)) = this->_Black;
; 1673 : 					this->_Color(_Wherenode) = this->_Black;
; 1674 : 					this->_Color(this->_Parent(this->_Parent(_Pnode)))
; 1675 : 						= this->_Red;
; 1676 : 					_Pnode = this->_Parent(this->_Parent(_Pnode));
; 1677 : 					}
; 1678 : 				else

  00091	74 37		 je	 SHORT $LN196@Insert

; 1679 : 					{	// parent has red and black children
; 1680 : 					if (_Pnode == this->_Right(this->_Parent(_Pnode)))

  00093	3b 70 08	 cmp	 esi, DWORD PTR [eax+8]
  00096	75 0a		 jne	 SHORT $LN5@Insert

; 1681 : 						{	// rotate right child to left
; 1682 : 						_Pnode = this->_Parent(_Pnode);

  00098	8b f0		 mov	 esi, eax

; 1683 : 						_Lrotate(_Pnode);

  0009a	56		 push	 esi
  0009b	8b cf		 mov	 ecx, edi
  0009d	e8 00 00 00 00	 call	 ?_Lrotate@?$_Tree@V?$_Tmap_traits@KVioHashString@@U?$less@K@std@@V?$allocator@U?$pair@$$CBKVioHashString@@@std@@@3@$0A@@std@@@std@@IAEXPAU_Node@?$_Tree_nod@V?$_Tmap_traits@KVioHashString@@U?$less@K@std@@V?$allocator@U?$pair@$$CBKVioHashString@@@std@@@3@$0A@@std@@@2@@Z ; std::_Tree<std::_Tmap_traits<unsigned long,ioHashString,std::less<unsigned long>,std::allocator<std::pair<unsigned long const ,ioHashString> >,0> >::_Lrotate
$LN5@Insert:

; 1684 : 						}
; 1685 : 					this->_Color(this->_Parent(_Pnode)) =
; 1686 : 						this->_Black;	// propagate red up

  000a2	8b 46 04	 mov	 eax, DWORD PTR [esi+4]
  000a5	c6 40 20 01	 mov	 BYTE PTR [eax+32], 1

; 1687 : 					this->_Color(this->_Parent(this->_Parent(_Pnode))) =
; 1688 : 						this->_Red;

  000a9	8b 46 04	 mov	 eax, DWORD PTR [esi+4]
  000ac	8b 40 04	 mov	 eax, DWORD PTR [eax+4]
  000af	c6 40 20 00	 mov	 BYTE PTR [eax+32], 0

; 1689 : 					_Rrotate(this->_Parent(this->_Parent(_Pnode)));

  000b3	8b 46 04	 mov	 eax, DWORD PTR [esi+4]
  000b6	ff 70 04	 push	 DWORD PTR [eax+4]
  000b9	8b cf		 mov	 ecx, edi
  000bb	e8 00 00 00 00	 call	 ?_Rrotate@?$_Tree@V?$_Tmap_traits@KVioHashString@@U?$less@K@std@@V?$allocator@U?$pair@$$CBKVioHashString@@@std@@@3@$0A@@std@@@std@@IAEXPAU_Node@?$_Tree_nod@V?$_Tmap_traits@KVioHashString@@U?$less@K@std@@V?$allocator@U?$pair@$$CBKVioHashString@@@std@@@3@$0A@@std@@@2@@Z ; std::_Tree<std::_Tmap_traits<unsigned long,ioHashString,std::less<unsigned long>,std::allocator<std::pair<unsigned long const ,ioHashString> >,0> >::_Rrotate

; 1690 : 					}
; 1691 : 				}
; 1692 : 			else

  000c0	eb 4e		 jmp	 SHORT $LN2@Insert
$LN8@Insert:

; 1693 : 				{	// fixup red-red in right subtree
; 1694 : 				_Wherenode =
; 1695 : 					this->_Left(this->_Parent(this->_Parent(_Pnode)));

  000c2	8b 09		 mov	 ecx, DWORD PTR [ecx]

; 1696 : 				if (this->_Color(_Wherenode) == this->_Red)

  000c4	80 79 20 00	 cmp	 BYTE PTR [ecx+32], 0
  000c8	75 1a		 jne	 SHORT $LN3@Insert
$LN196@Insert:

; 1697 : 					{	// parent has two red children, blacken both
; 1698 : 					this->_Color(this->_Parent(_Pnode)) = this->_Black;

  000ca	c6 40 20 01	 mov	 BYTE PTR [eax+32], 1

; 1699 : 					this->_Color(_Wherenode) = this->_Black;

  000ce	c6 41 20 01	 mov	 BYTE PTR [ecx+32], 1

; 1700 : 					this->_Color(this->_Parent(this->_Parent(_Pnode))) =
; 1701 : 						this->_Red;

  000d2	8b 46 04	 mov	 eax, DWORD PTR [esi+4]
  000d5	8b 40 04	 mov	 eax, DWORD PTR [eax+4]
  000d8	c6 40 20 00	 mov	 BYTE PTR [eax+32], 0

; 1702 : 					_Pnode = this->_Parent(this->_Parent(_Pnode));

  000dc	8b 46 04	 mov	 eax, DWORD PTR [esi+4]
  000df	8b 70 04	 mov	 esi, DWORD PTR [eax+4]

; 1703 : 					}
; 1704 : 				else

  000e2	eb 2c		 jmp	 SHORT $LN2@Insert
$LN3@Insert:

; 1705 : 					{	// parent has red and black children
; 1706 : 					if (_Pnode == this->_Left(this->_Parent(_Pnode)))

  000e4	3b 30		 cmp	 esi, DWORD PTR [eax]
  000e6	75 0a		 jne	 SHORT $LN1@Insert

; 1707 : 						{	// rotate left child to right
; 1708 : 						_Pnode = this->_Parent(_Pnode);

  000e8	8b f0		 mov	 esi, eax

; 1709 : 						_Rrotate(_Pnode);

  000ea	56		 push	 esi
  000eb	8b cf		 mov	 ecx, edi
  000ed	e8 00 00 00 00	 call	 ?_Rrotate@?$_Tree@V?$_Tmap_traits@KVioHashString@@U?$less@K@std@@V?$allocator@U?$pair@$$CBKVioHashString@@@std@@@3@$0A@@std@@@std@@IAEXPAU_Node@?$_Tree_nod@V?$_Tmap_traits@KVioHashString@@U?$less@K@std@@V?$allocator@U?$pair@$$CBKVioHashString@@@std@@@3@$0A@@std@@@2@@Z ; std::_Tree<std::_Tmap_traits<unsigned long,ioHashString,std::less<unsigned long>,std::allocator<std::pair<unsigned long const ,ioHashString> >,0> >::_Rrotate
$LN1@Insert:

; 1710 : 						}
; 1711 : 					this->_Color(this->_Parent(_Pnode)) =
; 1712 : 						this->_Black;	// propagate red up

  000f2	8b 46 04	 mov	 eax, DWORD PTR [esi+4]
  000f5	c6 40 20 01	 mov	 BYTE PTR [eax+32], 1

; 1713 : 					this->_Color(this->_Parent(this->_Parent(_Pnode))) =
; 1714 : 						this->_Red;

  000f9	8b 46 04	 mov	 eax, DWORD PTR [esi+4]
  000fc	8b 40 04	 mov	 eax, DWORD PTR [eax+4]
  000ff	c6 40 20 00	 mov	 BYTE PTR [eax+32], 0

; 1715 : 					_Lrotate(this->_Parent(this->_Parent(_Pnode)));

  00103	8b 46 04	 mov	 eax, DWORD PTR [esi+4]
  00106	ff 70 04	 push	 DWORD PTR [eax+4]
  00109	8b cf		 mov	 ecx, edi
  0010b	e8 00 00 00 00	 call	 ?_Lrotate@?$_Tree@V?$_Tmap_traits@KVioHashString@@U?$less@K@std@@V?$allocator@U?$pair@$$CBKVioHashString@@@std@@@3@$0A@@std@@@std@@IAEXPAU_Node@?$_Tree_nod@V?$_Tmap_traits@KVioHashString@@U?$less@K@std@@V?$allocator@U?$pair@$$CBKVioHashString@@@std@@@3@$0A@@std@@@2@@Z ; std::_Tree<std::_Tmap_traits<unsigned long,ioHashString,std::less<unsigned long>,std::allocator<std::pair<unsigned long const ,ioHashString> >,0> >::_Lrotate
$LN2@Insert:

; 1661 : 			}
; 1662 : 
; 1663 : 		for (_Nodeptr _Pnode = _Newnode;
; 1664 : 			this->_Color(this->_Parent(_Pnode)) == this->_Red; )

  00110	8b 46 04	 mov	 eax, DWORD PTR [esi+4]
$LN195@Insert:
  00113	80 78 20 00	 cmp	 BYTE PTR [eax+32], 0
  00117	0f 84 63 ff ff
	ff		 je	 $LL10@Insert

; 1716 : 					}
; 1717 : 				}
; 1718 : 
; 1719 : 		this->_Color(_Root()) = this->_Black;	// root is always black

  0011d	8b 47 04	 mov	 eax, DWORD PTR [edi+4]
  00120	8b 40 04	 mov	 eax, DWORD PTR [eax+4]
  00123	5f		 pop	 edi
  00124	c6 40 20 01	 mov	 BYTE PTR [eax+32], 1

; 1720 : 		return (iterator(_Newnode, this));

  00128	8b 45 08	 mov	 eax, DWORD PTR ___$ReturnUdt$[ebp]
  0012b	5e		 pop	 esi
  0012c	89 18		 mov	 DWORD PTR [eax], ebx
  0012e	5b		 pop	 ebx

; 1721 : 		}

  0012f	5d		 pop	 ebp
  00130	c2 10 00	 ret	 16			; 00000010H
$LN194@Insert:
?_Insert@?$_Tree@V?$_Tmap_traits@KVioHashString@@U?$less@K@std@@V?$allocator@U?$pair@$$CBKVioHashString@@@std@@@3@$0A@@std@@@std@@IAE?AV?$_Tree_iterator@V?$_Tree_val@V?$_Tmap_traits@KVioHashString@@U?$less@K@std@@V?$allocator@U?$pair@$$CBKVioHashString@@@std@@@3@$0A@@std@@@std@@@2@_NPAU_Node@?$_Tree_nod@V?$_Tmap_traits@KVioHashString@@U?$less@K@std@@V?$allocator@U?$pair@$$CBKVioHashString@@@std@@@3@$0A@@std@@@2@1@Z ENDP ; std::_Tree<std::_Tmap_traits<unsigned long,ioHashString,std::less<unsigned long>,std::allocator<std::pair<unsigned long const ,ioHashString> >,0> >::_Insert
_TEXT	ENDS
PUBLIC	??$_Cons_val@V?$allocator@U?$pair@$$CBKVioHashString@@@std@@@std@@U?$pair@$$CBKVioHashString@@@2@U32@@std@@YAXAAV?$allocator@U?$pair@$$CBKVioHashString@@@std@@@0@PAU?$pair@$$CBKVioHashString@@@0@$$QAU20@@Z ; std::_Cons_val<std::allocator<std::pair<unsigned long const ,ioHashString> >,std::pair<unsigned long const ,ioHashString>,std::pair<unsigned long const ,ioHashString> >
; Function compile flags: /Ogsp
; File c:\program files (x86)\microsoft visual studio 10.0\vc\include\xmemory
;	COMDAT ??$_Cons_val@V?$allocator@U?$pair@$$CBKVioHashString@@@std@@@std@@U?$pair@$$CBKVioHashString@@@2@U32@@std@@YAXAAV?$allocator@U?$pair@$$CBKVioHashString@@@std@@@0@PAU?$pair@$$CBKVioHashString@@@0@$$QAU20@@Z
_TEXT	SEGMENT
__Alval$ = 8						; size = 4
__Pdest$ = 12						; size = 4
__Src$ = 16						; size = 4
??$_Cons_val@V?$allocator@U?$pair@$$CBKVioHashString@@@std@@@std@@U?$pair@$$CBKVioHashString@@@2@U32@@std@@YAXAAV?$allocator@U?$pair@$$CBKVioHashString@@@std@@@0@PAU?$pair@$$CBKVioHashString@@@0@$$QAU20@@Z PROC ; std::_Cons_val<std::allocator<std::pair<unsigned long const ,ioHashString> >,std::pair<unsigned long const ,ioHashString>,std::pair<unsigned long const ,ioHashString> >, COMDAT

; 279  : 	{	// construct using allocator

  00000	55		 push	 ebp
  00001	8b ec		 mov	 ebp, esp

; 280  : 	_Alval.construct(_Pdest, _STD forward<_Ty2>(_Src));

  00003	ff 75 10	 push	 DWORD PTR __Src$[ebp]
  00006	8b 4d 08	 mov	 ecx, DWORD PTR __Alval$[ebp]
  00009	ff 75 0c	 push	 DWORD PTR __Pdest$[ebp]
  0000c	e8 00 00 00 00	 call	 ?construct@?$allocator@U?$pair@$$CBKVioHashString@@@std@@@std@@QAEXPAU?$pair@$$CBKVioHashString@@@2@$$QAU32@@Z ; std::allocator<std::pair<unsigned long const ,ioHashString> >::construct

; 281  : 	}

  00011	5d		 pop	 ebp
  00012	c3		 ret	 0
??$_Cons_val@V?$allocator@U?$pair@$$CBKVioHashString@@@std@@@std@@U?$pair@$$CBKVioHashString@@@2@U32@@std@@YAXAAV?$allocator@U?$pair@$$CBKVioHashString@@@std@@@0@PAU?$pair@$$CBKVioHashString@@@0@$$QAU20@@Z ENDP ; std::_Cons_val<std::allocator<std::pair<unsigned long const ,ioHashString> >,std::pair<unsigned long const ,ioHashString>,std::pair<unsigned long const ,ioHashString> >
_TEXT	ENDS
PUBLIC	?find@?$_Tree@V?$_Tmap_traits@KVioHashString@@U?$less@K@std@@V?$allocator@U?$pair@$$CBKVioHashString@@@std@@@3@$0A@@std@@@std@@QAE?AV?$_Tree_iterator@V?$_Tree_val@V?$_Tmap_traits@KVioHashString@@U?$less@K@std@@V?$allocator@U?$pair@$$CBKVioHashString@@@std@@@3@$0A@@std@@@std@@@2@ABK@Z ; std::_Tree<std::_Tmap_traits<unsigned long,ioHashString,std::less<unsigned long>,std::allocator<std::pair<unsigned long const ,ioHashString> >,0> >::find
; Function compile flags: /Ogsp
; File c:\program files (x86)\microsoft visual studio 10.0\vc\include\xtree
;	COMDAT ?find@?$_Tree@V?$_Tmap_traits@KVioHashString@@U?$less@K@std@@V?$allocator@U?$pair@$$CBKVioHashString@@@std@@@3@$0A@@std@@@std@@QAE?AV?$_Tree_iterator@V?$_Tree_val@V?$_Tmap_traits@KVioHashString@@U?$less@K@std@@V?$allocator@U?$pair@$$CBKVioHashString@@@std@@@3@$0A@@std@@@std@@@2@ABK@Z
_TEXT	SEGMENT
$T508891 = -4						; size = 4
___$ReturnUdt$ = 8					; size = 4
__Where$ = 12						; size = 4
__Keyval$ = 12						; size = 4
?find@?$_Tree@V?$_Tmap_traits@KVioHashString@@U?$less@K@std@@V?$allocator@U?$pair@$$CBKVioHashString@@@std@@@3@$0A@@std@@@std@@QAE?AV?$_Tree_iterator@V?$_Tree_val@V?$_Tmap_traits@KVioHashString@@U?$less@K@std@@V?$allocator@U?$pair@$$CBKVioHashString@@@std@@@3@$0A@@std@@@std@@@2@ABK@Z PROC ; std::_Tree<std::_Tmap_traits<unsigned long,ioHashString,std::less<unsigned long>,std::allocator<std::pair<unsigned long const ,ioHashString> >,0> >::find, COMDAT
; _this$ = ecx

; 1423 : 		{	// find an element in mutable sequence that matches _Keyval

  00000	55		 push	 ebp
  00001	8b ec		 mov	 ebp, esp
  00003	51		 push	 ecx
  00004	56		 push	 esi
  00005	57		 push	 edi

; 1424 : 		iterator _Where = lower_bound(_Keyval);

  00006	8b 7d 0c	 mov	 edi, DWORD PTR __Keyval$[ebp]
  00009	57		 push	 edi
  0000a	8b f1		 mov	 esi, ecx
  0000c	e8 00 00 00 00	 call	 ?_Lbound@?$_Tree@V?$_Tmap_traits@KVioHashString@@U?$less@K@std@@V?$allocator@U?$pair@$$CBKVioHashString@@@std@@@3@$0A@@std@@@std@@IAEPAU_Node@?$_Tree_nod@V?$_Tmap_traits@KVioHashString@@U?$less@K@std@@V?$allocator@U?$pair@$$CBKVioHashString@@@std@@@3@$0A@@std@@@2@ABK@Z ; std::_Tree<std::_Tmap_traits<unsigned long,ioHashString,std::less<unsigned long>,std::allocator<std::pair<unsigned long const ,ioHashString> >,0> >::_Lbound

; 1425 : 		return (_Where == end()
; 1426 : 			|| _DEBUG_LT_PRED(this->comp,
; 1427 : 				_Keyval, this->_Key(_Where._Mynode()))
; 1428 : 					? end() : _Where);

  00011	8b 76 04	 mov	 esi, DWORD PTR [esi+4]
  00014	89 45 0c	 mov	 DWORD PTR __Where$[ebp], eax
  00017	3b c6		 cmp	 eax, esi
  00019	74 0c		 je	 SHORT $LN3@find
  0001b	8b 0f		 mov	 ecx, DWORD PTR [edi]
  0001d	3b 48 0c	 cmp	 ecx, DWORD PTR [eax+12]
  00020	72 05		 jb	 SHORT $LN3@find
  00022	8d 45 0c	 lea	 eax, DWORD PTR __Where$[ebp]
  00025	eb 06		 jmp	 SHORT $LN4@find
$LN3@find:
  00027	89 75 fc	 mov	 DWORD PTR $T508891[ebp], esi
  0002a	8d 45 fc	 lea	 eax, DWORD PTR $T508891[ebp]
$LN4@find:
  0002d	8b 08		 mov	 ecx, DWORD PTR [eax]
  0002f	8b 45 08	 mov	 eax, DWORD PTR ___$ReturnUdt$[ebp]
  00032	5f		 pop	 edi
  00033	89 08		 mov	 DWORD PTR [eax], ecx
  00035	5e		 pop	 esi

; 1429 : 		}

  00036	c9		 leave
  00037	c2 08 00	 ret	 8
?find@?$_Tree@V?$_Tmap_traits@KVioHashString@@U?$less@K@std@@V?$allocator@U?$pair@$$CBKVioHashString@@@std@@@3@$0A@@std@@@std@@QAE?AV?$_Tree_iterator@V?$_Tree_val@V?$_Tmap_traits@KVioHashString@@U?$less@K@std@@V?$allocator@U?$pair@$$CBKVioHashString@@@std@@@3@$0A@@std@@@std@@@2@ABK@Z ENDP ; std::_Tree<std::_Tmap_traits<unsigned long,ioHashString,std::less<unsigned long>,std::allocator<std::pair<unsigned long const ,ioHashString> >,0> >::find
_TEXT	ENDS
PUBLIC	?_Erase@?$_Tree@V?$_Tmap_traits@KVioHashString@@U?$less@K@std@@V?$allocator@U?$pair@$$CBKVioHashString@@@std@@@3@$0A@@std@@@std@@IAEXPAU_Node@?$_Tree_nod@V?$_Tmap_traits@KVioHashString@@U?$less@K@std@@V?$allocator@U?$pair@$$CBKVioHashString@@@std@@@3@$0A@@std@@@2@@Z ; std::_Tree<std::_Tmap_traits<unsigned long,ioHashString,std::less<unsigned long>,std::allocator<std::pair<unsigned long const ,ioHashString> >,0> >::_Erase
; Function compile flags: /Ogsp
;	COMDAT ?_Erase@?$_Tree@V?$_Tmap_traits@KVioHashString@@U?$less@K@std@@V?$allocator@U?$pair@$$CBKVioHashString@@@std@@@3@$0A@@std@@@std@@IAEXPAU_Node@?$_Tree_nod@V?$_Tmap_traits@KVioHashString@@U?$less@K@std@@V?$allocator@U?$pair@$$CBKVioHashString@@@std@@@3@$0A@@std@@@2@@Z
_TEXT	SEGMENT
__Rootnode$ = 8						; size = 4
?_Erase@?$_Tree@V?$_Tmap_traits@KVioHashString@@U?$less@K@std@@V?$allocator@U?$pair@$$CBKVioHashString@@@std@@@3@$0A@@std@@@std@@IAEXPAU_Node@?$_Tree_nod@V?$_Tmap_traits@KVioHashString@@U?$less@K@std@@V?$allocator@U?$pair@$$CBKVioHashString@@@std@@@3@$0A@@std@@@2@@Z PROC ; std::_Tree<std::_Tmap_traits<unsigned long,ioHashString,std::less<unsigned long>,std::allocator<std::pair<unsigned long const ,ioHashString> >,0> >::_Erase, COMDAT
; _this$ = ecx

; 1610 : 		{	// free entire subtree, recursively

  00000	55		 push	 ebp
  00001	8b ec		 mov	 ebp, esp
  00003	53		 push	 ebx
  00004	56		 push	 esi
  00005	57		 push	 edi

; 1611 : 		for (_Nodeptr _Pnode = _Rootnode;

  00006	8b 7d 08	 mov	 edi, DWORD PTR __Rootnode$[ebp]

; 1612 : 			!this->_Isnil(_Pnode); _Rootnode = _Pnode)

  00009	80 7f 21 00	 cmp	 BYTE PTR [edi+33], 0
  0000d	8b d9		 mov	 ebx, ecx
  0000f	8b f7		 mov	 esi, edi
  00011	75 24		 jne	 SHORT $LN1@Erase
$LL3@Erase:

; 1613 : 			{	// free subtrees, then node
; 1614 : 			_Erase(this->_Right(_Pnode));

  00013	ff 76 08	 push	 DWORD PTR [esi+8]
  00016	8b cb		 mov	 ecx, ebx
  00018	e8 00 00 00 00	 call	 ?_Erase@?$_Tree@V?$_Tmap_traits@KVioHashString@@U?$less@K@std@@V?$allocator@U?$pair@$$CBKVioHashString@@@std@@@3@$0A@@std@@@std@@IAEXPAU_Node@?$_Tree_nod@V?$_Tmap_traits@KVioHashString@@U?$less@K@std@@V?$allocator@U?$pair@$$CBKVioHashString@@@std@@@3@$0A@@std@@@2@@Z ; std::_Tree<std::_Tmap_traits<unsigned long,ioHashString,std::less<unsigned long>,std::allocator<std::pair<unsigned long const ,ioHashString> >,0> >::_Erase

; 1615 : 			_Pnode = this->_Left(_Pnode);

  0001d	8b 36		 mov	 esi, DWORD PTR [esi]

; 1616 : 			_Dest_val(this->_Alval,
; 1617 : 				_STD addressof(this->_Myval(_Rootnode)));

  0001f	8d 4f 10	 lea	 ecx, DWORD PTR [edi+16]
  00022	ff 15 00 00 00
	00		 call	 DWORD PTR __imp_??1ioHashString@@QAE@XZ

; 1618 : 
; 1619 : 			this->_Alnod.deallocate(_Rootnode, 1);

  00028	57		 push	 edi
  00029	e8 00 00 00 00	 call	 ??3@YAXPAX@Z		; operator delete
  0002e	80 7e 21 00	 cmp	 BYTE PTR [esi+33], 0
  00032	59		 pop	 ecx
  00033	8b fe		 mov	 edi, esi
  00035	74 dc		 je	 SHORT $LL3@Erase
$LN1@Erase:
  00037	5f		 pop	 edi
  00038	5e		 pop	 esi
  00039	5b		 pop	 ebx

; 1620 : 			}
; 1621 : 		}

  0003a	5d		 pop	 ebp
  0003b	c2 04 00	 ret	 4
?_Erase@?$_Tree@V?$_Tmap_traits@KVioHashString@@U?$less@K@std@@V?$allocator@U?$pair@$$CBKVioHashString@@@std@@@3@$0A@@std@@@std@@IAEXPAU_Node@?$_Tree_nod@V?$_Tmap_traits@KVioHashString@@U?$less@K@std@@V?$allocator@U?$pair@$$CBKVioHashString@@@std@@@3@$0A@@std@@@2@@Z ENDP ; std::_Tree<std::_Tmap_traits<unsigned long,ioHashString,std::less<unsigned long>,std::allocator<std::pair<unsigned long const ,ioHashString> >,0> >::_Erase
_TEXT	ENDS
PUBLIC	??_C@_0BM@PAPJHAGI@invalid?5map?1set?$DMT?$DO?5iterator?$AA@ ; `string'
PUBLIC	?erase@?$_Tree@V?$_Tmap_traits@KVioHashString@@U?$less@K@std@@V?$allocator@U?$pair@$$CBKVioHashString@@@std@@@3@$0A@@std@@@std@@QAE?AV?$_Tree_iterator@V?$_Tree_val@V?$_Tmap_traits@KVioHashString@@U?$less@K@std@@V?$allocator@U?$pair@$$CBKVioHashString@@@std@@@3@$0A@@std@@@std@@@2@V?$_Tree_const_iterator@V?$_Tree_val@V?$_Tmap_traits@KVioHashString@@U?$less@K@std@@V?$allocator@U?$pair@$$CBKVioHashString@@@std@@@3@$0A@@std@@@std@@@2@@Z ; std::_Tree<std::_Tmap_traits<unsigned long,ioHashString,std::less<unsigned long>,std::allocator<std::pair<unsigned long const ,ioHashString> >,0> >::erase
EXTRN	__imp_?_Xout_of_range@std@@YAXPBD@Z:PROC
;	COMDAT ??_C@_0BM@PAPJHAGI@invalid?5map?1set?$DMT?$DO?5iterator?$AA@
; File c:\program files (x86)\microsoft visual studio 10.0\vc\include\xutility
CONST	SEGMENT
??_C@_0BM@PAPJHAGI@invalid?5map?1set?$DMT?$DO?5iterator?$AA@ DB 'invalid '
	DB	'map/set<T> iterator', 00H			; `string'
; Function compile flags: /Ogsp
; File c:\program files (x86)\microsoft visual studio 10.0\vc\include\xtree
CONST	ENDS
;	COMDAT ?erase@?$_Tree@V?$_Tmap_traits@KVioHashString@@U?$less@K@std@@V?$allocator@U?$pair@$$CBKVioHashString@@@std@@@3@$0A@@std@@@std@@QAE?AV?$_Tree_iterator@V?$_Tree_val@V?$_Tmap_traits@KVioHashString@@U?$less@K@std@@V?$allocator@U?$pair@$$CBKVioHashString@@@std@@@3@$0A@@std@@@std@@@2@V?$_Tree_const_iterator@V?$_Tree_val@V?$_Tmap_traits@KVioHashString@@U?$less@K@std@@V?$allocator@U?$pair@$$CBKVioHashString@@@std@@@3@$0A@@std@@@std@@@2@@Z
_TEXT	SEGMENT
_this$ = -4						; size = 4
___$ReturnUdt$ = 8					; size = 4
__Where$ = 12						; size = 4
?erase@?$_Tree@V?$_Tmap_traits@KVioHashString@@U?$less@K@std@@V?$allocator@U?$pair@$$CBKVioHashString@@@std@@@3@$0A@@std@@@std@@QAE?AV?$_Tree_iterator@V?$_Tree_val@V?$_Tmap_traits@KVioHashString@@U?$less@K@std@@V?$allocator@U?$pair@$$CBKVioHashString@@@std@@@3@$0A@@std@@@std@@@2@V?$_Tree_const_iterator@V?$_Tree_val@V?$_Tmap_traits@KVioHashString@@U?$less@K@std@@V?$allocator@U?$pair@$$CBKVioHashString@@@std@@@3@$0A@@std@@@std@@@2@@Z PROC ; std::_Tree<std::_Tmap_traits<unsigned long,ioHashString,std::less<unsigned long>,std::allocator<std::pair<unsigned long const ,ioHashString> >,0> >::erase, COMDAT
; _this$ = ecx

; 1195 : 		{	// erase element at _Where

  00000	55		 push	 ebp
  00001	8b ec		 mov	 ebp, esp
  00003	51		 push	 ecx
  00004	53		 push	 ebx

; 1196 :  #if _ITERATOR_DEBUG_LEVEL == 2
; 1197 : 		if (_Where._Getcont() != this || this->_Isnil(_Where._Mynode()))
; 1198 : 			_DEBUG_ERROR("map/set erase iterator outside range");
; 1199 : 		_Nodeptr _Erasednode = _Where._Mynode();	// node to erase
; 1200 : 		++_Where;	// save successor iterator for return
; 1201 : 		_Orphan_ptr(*this, _Erasednode);
; 1202 : 
; 1203 :  #else /* _ITERATOR_DEBUG_LEVEL == 2 */
; 1204 : 		if (this->_Isnil(_Where._Mynode()))

  00005	8b 5d 0c	 mov	 ebx, DWORD PTR __Where$[ebp]
  00008	80 7b 21 00	 cmp	 BYTE PTR [ebx+33], 0
  0000c	56		 push	 esi
  0000d	57		 push	 edi
  0000e	89 4d fc	 mov	 DWORD PTR _this$[ebp], ecx
  00011	74 0b		 je	 SHORT $LN40@erase

; 1205 : 			_Xout_of_range("invalid map/set<T> iterator");

  00013	68 00 00 00 00	 push	 OFFSET ??_C@_0BM@PAPJHAGI@invalid?5map?1set?$DMT?$DO?5iterator?$AA@
  00018	ff 15 00 00 00
	00		 call	 DWORD PTR __imp_?_Xout_of_range@std@@YAXPBD@Z
$LN338@erase:
$LN40@erase:

; 1206 : 		_Nodeptr _Erasednode = _Where._Mynode();	// node to erase
; 1207 : 		++_Where;	// save successor iterator for return

  0001e	8d 4d 0c	 lea	 ecx, DWORD PTR __Where$[ebp]
  00021	e8 00 00 00 00	 call	 ??E?$_Tree_unchecked_const_iterator@V?$_Tree_val@V?$_Tmap_traits@KVioHashString@@U?$less@K@std@@V?$allocator@U?$pair@$$CBKVioHashString@@@std@@@3@$0A@@std@@@std@@U_Iterator_base0@2@@std@@QAEAAV01@XZ ; std::_Tree_unchecked_const_iterator<std::_Tree_val<std::_Tmap_traits<unsigned long,ioHashString,std::less<unsigned long>,std::allocator<std::pair<unsigned long const ,ioHashString> >,0> >,std::_Iterator_base0>::operator++

; 1208 :  #endif /* _ITERATOR_DEBUG_LEVEL == 2 */
; 1209 : 
; 1210 : 		_Nodeptr _Fixnode;	// the node to recolor as needed
; 1211 : 		_Nodeptr _Fixnodeparent;	// parent of _Fixnode (which may be nil)
; 1212 : 		_Nodeptr _Pnode = _Erasednode;
; 1213 : 
; 1214 : 		if (this->_Isnil(this->_Left(_Pnode)))

  00026	8b 13		 mov	 edx, DWORD PTR [ebx]
  00028	80 7a 21 00	 cmp	 BYTE PTR [edx+33], 0
  0002c	74 05		 je	 SHORT $LN39@erase

; 1215 : 			_Fixnode = this->_Right(_Pnode);	// stitch up right subtree

  0002e	8b 7b 08	 mov	 edi, DWORD PTR [ebx+8]

; 1216 : 		else if (this->_Isnil(this->_Right(_Pnode)))

  00031	eb 17		 jmp	 SHORT $LN330@erase
$LN39@erase:
  00033	8b 43 08	 mov	 eax, DWORD PTR [ebx+8]
  00036	80 78 21 00	 cmp	 BYTE PTR [eax+33], 0
  0003a	74 04		 je	 SHORT $LN37@erase

; 1217 : 			_Fixnode = this->_Left(_Pnode);	// stitch up left subtree

  0003c	8b fa		 mov	 edi, edx

; 1218 : 		else

  0003e	eb 0a		 jmp	 SHORT $LN330@erase
$LN37@erase:

; 1219 : 			{	// two subtrees, must lift successor node to replace erased
; 1220 : 			_Pnode = _Where._Mynode();	// _Pnode is successor node

  00040	8b 45 0c	 mov	 eax, DWORD PTR __Where$[ebp]

; 1221 : 			_Fixnode = this->_Right(_Pnode);	// _Fixnode is only subtree

  00043	8b 78 08	 mov	 edi, DWORD PTR [eax+8]

; 1222 : 			}
; 1223 : 
; 1224 : 		if (_Pnode == _Erasednode)

  00046	3b c3		 cmp	 eax, ebx
  00048	75 76		 jne	 SHORT $LN35@erase
$LN330@erase:

; 1225 : 			{	// at most one subtree, relink it
; 1226 : 			_Fixnodeparent = this->_Parent(_Erasednode);
; 1227 : 			if (!this->_Isnil(_Fixnode))

  0004a	80 7f 21 00	 cmp	 BYTE PTR [edi+33], 0
  0004e	8b 73 04	 mov	 esi, DWORD PTR [ebx+4]
  00051	75 03		 jne	 SHORT $LN34@erase

; 1228 : 				this->_Parent(_Fixnode) = _Fixnodeparent;	// link up

  00053	89 77 04	 mov	 DWORD PTR [edi+4], esi
$LN34@erase:

; 1229 : 
; 1230 : 			if (_Root() == _Erasednode)

  00056	8b 4d fc	 mov	 ecx, DWORD PTR _this$[ebp]
  00059	8b 41 04	 mov	 eax, DWORD PTR [ecx+4]
  0005c	39 58 04	 cmp	 DWORD PTR [eax+4], ebx
  0005f	75 05		 jne	 SHORT $LN33@erase

; 1231 : 				_Root() = _Fixnode;	// link down from root

  00061	89 78 04	 mov	 DWORD PTR [eax+4], edi

; 1232 : 			else if (this->_Left(_Fixnodeparent) == _Erasednode)

  00064	eb 0b		 jmp	 SHORT $LN30@erase
$LN33@erase:
  00066	39 1e		 cmp	 DWORD PTR [esi], ebx
  00068	75 04		 jne	 SHORT $LN31@erase

; 1233 : 				this->_Left(_Fixnodeparent) = _Fixnode;	// link down to left

  0006a	89 3e		 mov	 DWORD PTR [esi], edi

; 1234 : 			else

  0006c	eb 03		 jmp	 SHORT $LN30@erase
$LN31@erase:

; 1235 : 				this->_Right(_Fixnodeparent) =
; 1236 : 					_Fixnode;	// link down to right

  0006e	89 7e 08	 mov	 DWORD PTR [esi+8], edi
$LN30@erase:

; 1237 : 
; 1238 : 			if (_Lmost() == _Erasednode)

  00071	8b 49 04	 mov	 ecx, DWORD PTR [ecx+4]
  00074	39 19		 cmp	 DWORD PTR [ecx], ebx
  00076	75 1c		 jne	 SHORT $LN29@erase

; 1239 : 				_Lmost() = this->_Isnil(_Fixnode)
; 1240 : 					? _Fixnodeparent	// smallest is parent of erased node
; 1241 : 					: this->_Min(_Fixnode);	// smallest in relinked subtree

  00078	80 7f 21 00	 cmp	 BYTE PTR [edi+33], 0
  0007c	74 04		 je	 SHORT $LN43@erase
  0007e	8b d6		 mov	 edx, esi
  00080	eb 10		 jmp	 SHORT $LN97@erase
$LN43@erase:
  00082	8b 07		 mov	 eax, DWORD PTR [edi]
  00084	8b d7		 mov	 edx, edi
  00086	eb 04		 jmp	 SHORT $LN332@erase
$LL98@erase:
  00088	8b d0		 mov	 edx, eax
  0008a	8b 02		 mov	 eax, DWORD PTR [edx]
$LN332@erase:
  0008c	80 78 21 00	 cmp	 BYTE PTR [eax+33], 0
  00090	74 f6		 je	 SHORT $LL98@erase
$LN97@erase:
  00092	89 11		 mov	 DWORD PTR [ecx], edx
$LN29@erase:

; 1242 : 
; 1243 : 			if (_Rmost() == _Erasednode)

  00094	8b 45 fc	 mov	 eax, DWORD PTR _this$[ebp]
  00097	8b 48 04	 mov	 ecx, DWORD PTR [eax+4]
  0009a	39 59 08	 cmp	 DWORD PTR [ecx+8], ebx
  0009d	75 7b		 jne	 SHORT $LN185@erase

; 1244 : 				_Rmost() = this->_Isnil(_Fixnode)
; 1245 : 					? _Fixnodeparent	// largest is parent of erased node
; 1246 : 					: this->_Max(_Fixnode);	// largest in relinked subtree

  0009f	80 7f 21 00	 cmp	 BYTE PTR [edi+33], 0
  000a3	74 04		 je	 SHORT $LN45@erase
  000a5	8b d6		 mov	 edx, esi
  000a7	eb 12		 jmp	 SHORT $LN117@erase
$LN45@erase:
  000a9	8b 47 08	 mov	 eax, DWORD PTR [edi+8]
  000ac	8b d7		 mov	 edx, edi
  000ae	eb 05		 jmp	 SHORT $LN333@erase
$LL118@erase:
  000b0	8b d0		 mov	 edx, eax
  000b2	8b 42 08	 mov	 eax, DWORD PTR [edx+8]
$LN333@erase:
  000b5	80 78 21 00	 cmp	 BYTE PTR [eax+33], 0
  000b9	74 f5		 je	 SHORT $LL118@erase
$LN117@erase:
  000bb	89 51 08	 mov	 DWORD PTR [ecx+8], edx

; 1247 : 			}
; 1248 : 		else

  000be	eb 5a		 jmp	 SHORT $LN185@erase
$LN35@erase:

; 1249 : 			{	// erased has two subtrees, _Pnode is successor to erased
; 1250 : 			this->_Parent(this->_Left(_Erasednode)) =
; 1251 : 				_Pnode;	// link left up

  000c0	89 42 04	 mov	 DWORD PTR [edx+4], eax

; 1252 : 			this->_Left(_Pnode) =
; 1253 : 				this->_Left(_Erasednode);	// link successor down

  000c3	8b 13		 mov	 edx, DWORD PTR [ebx]
  000c5	89 10		 mov	 DWORD PTR [eax], edx

; 1254 : 
; 1255 : 			if (_Pnode == this->_Right(_Erasednode))

  000c7	3b 43 08	 cmp	 eax, DWORD PTR [ebx+8]
  000ca	75 04		 jne	 SHORT $LN26@erase

; 1256 : 				_Fixnodeparent = _Pnode;	// successor is next to erased

  000cc	8b f0		 mov	 esi, eax

; 1257 : 			else

  000ce	eb 1a		 jmp	 SHORT $LN25@erase
$LN26@erase:

; 1258 : 				{	// successor further down, link in place of erased
; 1259 : 				_Fixnodeparent =
; 1260 : 					this->_Parent(_Pnode);	// parent is successor's
; 1261 : 				if (!this->_Isnil(_Fixnode))

  000d0	80 7f 21 00	 cmp	 BYTE PTR [edi+33], 0
  000d4	8b 70 04	 mov	 esi, DWORD PTR [eax+4]
  000d7	75 03		 jne	 SHORT $LN24@erase

; 1262 : 					this->_Parent(_Fixnode) = _Fixnodeparent;	// link fix up

  000d9	89 77 04	 mov	 DWORD PTR [edi+4], esi
$LN24@erase:

; 1263 : 				this->_Left(_Fixnodeparent) = _Fixnode;	// link fix down

  000dc	89 3e		 mov	 DWORD PTR [esi], edi

; 1264 : 				this->_Right(_Pnode) =
; 1265 : 					this->_Right(_Erasednode);	// link next down

  000de	8b 53 08	 mov	 edx, DWORD PTR [ebx+8]
  000e1	89 50 08	 mov	 DWORD PTR [eax+8], edx

; 1266 : 				this->_Parent(this->_Right(_Erasednode)) =
; 1267 : 					_Pnode;	// right up

  000e4	8b 4b 08	 mov	 ecx, DWORD PTR [ebx+8]
  000e7	89 41 04	 mov	 DWORD PTR [ecx+4], eax
$LN25@erase:

; 1268 : 				}
; 1269 : 
; 1270 : 			if (_Root() == _Erasednode)

  000ea	8b 4d fc	 mov	 ecx, DWORD PTR _this$[ebp]
  000ed	8b 49 04	 mov	 ecx, DWORD PTR [ecx+4]
  000f0	39 59 04	 cmp	 DWORD PTR [ecx+4], ebx
  000f3	75 05		 jne	 SHORT $LN23@erase

; 1271 : 				_Root() = _Pnode;	// link down from root

  000f5	89 41 04	 mov	 DWORD PTR [ecx+4], eax

; 1272 : 			else if (this->_Left(this->_Parent(_Erasednode)) == _Erasednode)

  000f8	eb 0e		 jmp	 SHORT $LN20@erase
$LN23@erase:
  000fa	8b 4b 04	 mov	 ecx, DWORD PTR [ebx+4]
  000fd	39 19		 cmp	 DWORD PTR [ecx], ebx
  000ff	75 04		 jne	 SHORT $LN21@erase

; 1273 : 				this->_Left(this->_Parent(_Erasednode)) =
; 1274 : 					_Pnode;	// link down to left

  00101	89 01		 mov	 DWORD PTR [ecx], eax

; 1275 : 			else

  00103	eb 03		 jmp	 SHORT $LN20@erase
$LN21@erase:

; 1276 : 				this->_Right(this->_Parent(_Erasednode)) =
; 1277 : 					_Pnode;	// link down to right

  00105	89 41 08	 mov	 DWORD PTR [ecx+8], eax
$LN20@erase:

; 1278 : 
; 1279 : 			this->_Parent(_Pnode) =
; 1280 : 				this->_Parent(_Erasednode);	// link successor up

  00108	8b 4b 04	 mov	 ecx, DWORD PTR [ebx+4]
  0010b	89 48 04	 mov	 DWORD PTR [eax+4], ecx

; 1281 : 			_STD swap(this->_Color(_Pnode),
; 1282 : 				this->_Color(_Erasednode));	// recolor it

  0010e	8a 53 20	 mov	 dl, BYTE PTR [ebx+32]
  00111	8a 48 20	 mov	 cl, BYTE PTR [eax+32]
  00114	88 50 20	 mov	 BYTE PTR [eax+32], dl
  00117	88 4b 20	 mov	 BYTE PTR [ebx+32], cl
$LN185@erase:

; 1283 : 			}
; 1284 : 
; 1285 : 		if (this->_Color(_Erasednode) == this->_Black)

  0011a	80 7b 20 01	 cmp	 BYTE PTR [ebx+32], 1
  0011e	0f 85 03 01 00
	00		 jne	 $LN19@erase

; 1286 : 			{	// erasing black link, must recolor/rebalance tree
; 1287 : 			for (; _Fixnode != _Root()
; 1288 : 				&& this->_Color(_Fixnode) == this->_Black;
; 1289 : 				_Fixnodeparent = this->_Parent(_Fixnode))

  00124	e9 b2 00 00 00	 jmp	 $LN335@erase
$LL18@erase:
  00129	80 7f 20 01	 cmp	 BYTE PTR [edi+32], 1
  0012d	0f 85 f0 00 00
	00		 jne	 $LN16@erase

; 1290 : 				if (_Fixnode == this->_Left(_Fixnodeparent))

  00133	8b 06		 mov	 eax, DWORD PTR [esi]
  00135	3b f8		 cmp	 edi, eax
  00137	75 6c		 jne	 SHORT $LN15@erase

; 1291 : 					{	// fixup left subtree
; 1292 : 					_Pnode = this->_Right(_Fixnodeparent);

  00139	8b 46 08	 mov	 eax, DWORD PTR [esi+8]

; 1293 : 					if (this->_Color(_Pnode) == this->_Red)

  0013c	80 78 20 00	 cmp	 BYTE PTR [eax+32], 0
  00140	75 11		 jne	 SHORT $LN14@erase

; 1294 : 						{	// rotate red up from right subtree
; 1295 : 						this->_Color(_Pnode) = this->_Black;

  00142	c6 40 20 01	 mov	 BYTE PTR [eax+32], 1

; 1296 : 						this->_Color(_Fixnodeparent) = this->_Red;
; 1297 : 						_Lrotate(_Fixnodeparent);

  00146	56		 push	 esi
  00147	c6 46 20 00	 mov	 BYTE PTR [esi+32], 0
  0014b	e8 00 00 00 00	 call	 ?_Lrotate@?$_Tree@V?$_Tmap_traits@KVioHashString@@U?$less@K@std@@V?$allocator@U?$pair@$$CBKVioHashString@@@std@@@3@$0A@@std@@@std@@IAEXPAU_Node@?$_Tree_nod@V?$_Tmap_traits@KVioHashString@@U?$less@K@std@@V?$allocator@U?$pair@$$CBKVioHashString@@@std@@@3@$0A@@std@@@2@@Z ; std::_Tree<std::_Tmap_traits<unsigned long,ioHashString,std::less<unsigned long>,std::allocator<std::pair<unsigned long const ,ioHashString> >,0> >::_Lrotate

; 1298 : 						_Pnode = this->_Right(_Fixnodeparent);

  00150	8b 46 08	 mov	 eax, DWORD PTR [esi+8]
$LN14@erase:

; 1299 : 						}
; 1300 : 
; 1301 : 					if (this->_Isnil(_Pnode))

  00153	80 78 21 00	 cmp	 BYTE PTR [eax+33], 0

; 1302 : 						_Fixnode = _Fixnodeparent;	// shouldn't happen
; 1303 : 					else if (this->_Color(this->_Left(_Pnode)) == this->_Black

  00157	75 7d		 jne	 SHORT $LN336@erase

; 1304 : 						&& this->_Color(this->_Right(_Pnode)) == this->_Black)

  00159	8b 08		 mov	 ecx, DWORD PTR [eax]
  0015b	80 79 20 01	 cmp	 BYTE PTR [ecx+32], 1
  0015f	75 09		 jne	 SHORT $LN11@erase
  00161	8b 48 08	 mov	 ecx, DWORD PTR [eax+8]
  00164	80 79 20 01	 cmp	 BYTE PTR [ecx+32], 1
  00168	74 68		 je	 SHORT $LN337@erase
$LN11@erase:

; 1305 : 						{	// redden right subtree with black children
; 1306 : 						this->_Color(_Pnode) = this->_Red;
; 1307 : 						_Fixnode = _Fixnodeparent;
; 1308 : 						}
; 1309 : 					else
; 1310 : 						{	// must rearrange right subtree
; 1311 : 						if (this->_Color(this->_Right(_Pnode))
; 1312 : 							== this->_Black)

  0016a	8b 48 08	 mov	 ecx, DWORD PTR [eax+8]
  0016d	80 79 20 01	 cmp	 BYTE PTR [ecx+32], 1
  00171	75 16		 jne	 SHORT $LN9@erase

; 1313 : 							{	// rotate red up from left sub-subtree
; 1314 : 							this->_Color(this->_Left(_Pnode)) = this->_Black;

  00173	8b 08		 mov	 ecx, DWORD PTR [eax]
  00175	c6 41 20 01	 mov	 BYTE PTR [ecx+32], 1

; 1315 : 							this->_Color(_Pnode) = this->_Red;
; 1316 : 							_Rrotate(_Pnode);

  00179	8b 4d fc	 mov	 ecx, DWORD PTR _this$[ebp]
  0017c	50		 push	 eax
  0017d	c6 40 20 00	 mov	 BYTE PTR [eax+32], 0
  00181	e8 00 00 00 00	 call	 ?_Rrotate@?$_Tree@V?$_Tmap_traits@KVioHashString@@U?$less@K@std@@V?$allocator@U?$pair@$$CBKVioHashString@@@std@@@3@$0A@@std@@@std@@IAEXPAU_Node@?$_Tree_nod@V?$_Tmap_traits@KVioHashString@@U?$less@K@std@@V?$allocator@U?$pair@$$CBKVioHashString@@@std@@@3@$0A@@std@@@2@@Z ; std::_Tree<std::_Tmap_traits<unsigned long,ioHashString,std::less<unsigned long>,std::allocator<std::pair<unsigned long const ,ioHashString> >,0> >::_Rrotate

; 1317 : 							_Pnode = this->_Right(_Fixnodeparent);

  00186	8b 46 08	 mov	 eax, DWORD PTR [esi+8]
$LN9@erase:

; 1318 : 							}
; 1319 : 
; 1320 : 						this->_Color(_Pnode) = this->_Color(_Fixnodeparent);

  00189	8a 4e 20	 mov	 cl, BYTE PTR [esi+32]
  0018c	88 48 20	 mov	 BYTE PTR [eax+32], cl

; 1321 : 						this->_Color(_Fixnodeparent) = this->_Black;
; 1322 : 						this->_Color(this->_Right(_Pnode)) = this->_Black;
; 1323 : 						_Lrotate(_Fixnodeparent);

  0018f	8b 4d fc	 mov	 ecx, DWORD PTR _this$[ebp]
  00192	c6 46 20 01	 mov	 BYTE PTR [esi+32], 1
  00196	8b 40 08	 mov	 eax, DWORD PTR [eax+8]
  00199	56		 push	 esi
  0019a	c6 40 20 01	 mov	 BYTE PTR [eax+32], 1
  0019e	e8 00 00 00 00	 call	 ?_Lrotate@?$_Tree@V?$_Tmap_traits@KVioHashString@@U?$less@K@std@@V?$allocator@U?$pair@$$CBKVioHashString@@@std@@@3@$0A@@std@@@std@@IAEXPAU_Node@?$_Tree_nod@V?$_Tmap_traits@KVioHashString@@U?$less@K@std@@V?$allocator@U?$pair@$$CBKVioHashString@@@std@@@3@$0A@@std@@@2@@Z ; std::_Tree<std::_Tmap_traits<unsigned long,ioHashString,std::less<unsigned long>,std::allocator<std::pair<unsigned long const ,ioHashString> >,0> >::_Lrotate

; 1324 : 						break;	// tree now recolored/rebalanced

  001a3	eb 7e		 jmp	 SHORT $LN16@erase
$LN15@erase:

; 1325 : 						}
; 1326 : 					}
; 1327 : 				else
; 1328 : 					{	// fixup right subtree
; 1329 : 					_Pnode = this->_Left(_Fixnodeparent);
; 1330 : 					if (this->_Color(_Pnode) == this->_Red)

  001a5	80 78 20 00	 cmp	 BYTE PTR [eax+32], 0
  001a9	75 10		 jne	 SHORT $LN7@erase

; 1331 : 						{	// rotate red up from left subtree
; 1332 : 						this->_Color(_Pnode) = this->_Black;

  001ab	c6 40 20 01	 mov	 BYTE PTR [eax+32], 1

; 1333 : 						this->_Color(_Fixnodeparent) = this->_Red;
; 1334 : 						_Rrotate(_Fixnodeparent);

  001af	56		 push	 esi
  001b0	c6 46 20 00	 mov	 BYTE PTR [esi+32], 0
  001b4	e8 00 00 00 00	 call	 ?_Rrotate@?$_Tree@V?$_Tmap_traits@KVioHashString@@U?$less@K@std@@V?$allocator@U?$pair@$$CBKVioHashString@@@std@@@3@$0A@@std@@@std@@IAEXPAU_Node@?$_Tree_nod@V?$_Tmap_traits@KVioHashString@@U?$less@K@std@@V?$allocator@U?$pair@$$CBKVioHashString@@@std@@@3@$0A@@std@@@2@@Z ; std::_Tree<std::_Tmap_traits<unsigned long,ioHashString,std::less<unsigned long>,std::allocator<std::pair<unsigned long const ,ioHashString> >,0> >::_Rrotate

; 1335 : 						_Pnode = this->_Left(_Fixnodeparent);

  001b9	8b 06		 mov	 eax, DWORD PTR [esi]
$LN7@erase:

; 1336 : 						}
; 1337 : 					if (this->_Isnil(_Pnode))

  001bb	80 78 21 00	 cmp	 BYTE PTR [eax+33], 0

; 1338 : 						_Fixnode = _Fixnodeparent;	// shouldn't happen
; 1339 : 					else if (this->_Color(this->_Right(_Pnode)) ==

  001bf	75 15		 jne	 SHORT $LN336@erase

; 1340 : 						this->_Black
; 1341 : 						&& this->_Color(this->_Left(_Pnode)) == this->_Black)

  001c1	8b 48 08	 mov	 ecx, DWORD PTR [eax+8]
  001c4	80 79 20 01	 cmp	 BYTE PTR [ecx+32], 1
  001c8	75 22		 jne	 SHORT $LN4@erase
  001ca	8b 08		 mov	 ecx, DWORD PTR [eax]
  001cc	80 79 20 01	 cmp	 BYTE PTR [ecx+32], 1
  001d0	75 1a		 jne	 SHORT $LN4@erase
$LN337@erase:

; 1342 : 						{	// redden left subtree with black children
; 1343 : 						this->_Color(_Pnode) = this->_Red;

  001d2	c6 40 20 00	 mov	 BYTE PTR [eax+32], 0
$LN336@erase:

; 1344 : 						_Fixnode = _Fixnodeparent;

  001d6	8b fe		 mov	 edi, esi
  001d8	8b 76 04	 mov	 esi, DWORD PTR [esi+4]
$LN335@erase:

; 1286 : 			{	// erasing black link, must recolor/rebalance tree
; 1287 : 			for (; _Fixnode != _Root()
; 1288 : 				&& this->_Color(_Fixnode) == this->_Black;
; 1289 : 				_Fixnodeparent = this->_Parent(_Fixnode))

  001db	8b 4d fc	 mov	 ecx, DWORD PTR _this$[ebp]
  001de	8b 41 04	 mov	 eax, DWORD PTR [ecx+4]
  001e1	3b 78 04	 cmp	 edi, DWORD PTR [eax+4]
  001e4	0f 85 3f ff ff
	ff		 jne	 $LL18@erase
  001ea	eb 37		 jmp	 SHORT $LN16@erase
$LN4@erase:

; 1345 : 						}
; 1346 : 					else
; 1347 : 						{	// must rearrange left subtree
; 1348 : 						if (this->_Color(this->_Left(_Pnode)) == this->_Black)

  001ec	8b 08		 mov	 ecx, DWORD PTR [eax]
  001ee	80 79 20 01	 cmp	 BYTE PTR [ecx+32], 1
  001f2	75 16		 jne	 SHORT $LN2@erase

; 1349 : 							{	// rotate red up from right sub-subtree
; 1350 : 							this->_Color(this->_Right(_Pnode)) = this->_Black;

  001f4	8b 48 08	 mov	 ecx, DWORD PTR [eax+8]
  001f7	c6 41 20 01	 mov	 BYTE PTR [ecx+32], 1

; 1351 : 							this->_Color(_Pnode) = this->_Red;
; 1352 : 							_Lrotate(_Pnode);

  001fb	8b 4d fc	 mov	 ecx, DWORD PTR _this$[ebp]
  001fe	50		 push	 eax
  001ff	c6 40 20 00	 mov	 BYTE PTR [eax+32], 0
  00203	e8 00 00 00 00	 call	 ?_Lrotate@?$_Tree@V?$_Tmap_traits@KVioHashString@@U?$less@K@std@@V?$allocator@U?$pair@$$CBKVioHashString@@@std@@@3@$0A@@std@@@std@@IAEXPAU_Node@?$_Tree_nod@V?$_Tmap_traits@KVioHashString@@U?$less@K@std@@V?$allocator@U?$pair@$$CBKVioHashString@@@std@@@3@$0A@@std@@@2@@Z ; std::_Tree<std::_Tmap_traits<unsigned long,ioHashString,std::less<unsigned long>,std::allocator<std::pair<unsigned long const ,ioHashString> >,0> >::_Lrotate

; 1353 : 							_Pnode = this->_Left(_Fixnodeparent);

  00208	8b 06		 mov	 eax, DWORD PTR [esi]
$LN2@erase:

; 1354 : 							}
; 1355 : 
; 1356 : 						this->_Color(_Pnode) = this->_Color(_Fixnodeparent);

  0020a	8a 4e 20	 mov	 cl, BYTE PTR [esi+32]
  0020d	88 48 20	 mov	 BYTE PTR [eax+32], cl

; 1357 : 						this->_Color(_Fixnodeparent) = this->_Black;
; 1358 : 						this->_Color(this->_Left(_Pnode)) = this->_Black;
; 1359 : 						_Rrotate(_Fixnodeparent);

  00210	8b 4d fc	 mov	 ecx, DWORD PTR _this$[ebp]
  00213	c6 46 20 01	 mov	 BYTE PTR [esi+32], 1
  00217	8b 00		 mov	 eax, DWORD PTR [eax]
  00219	56		 push	 esi
  0021a	c6 40 20 01	 mov	 BYTE PTR [eax+32], 1
  0021e	e8 00 00 00 00	 call	 ?_Rrotate@?$_Tree@V?$_Tmap_traits@KVioHashString@@U?$less@K@std@@V?$allocator@U?$pair@$$CBKVioHashString@@@std@@@3@$0A@@std@@@std@@IAEXPAU_Node@?$_Tree_nod@V?$_Tmap_traits@KVioHashString@@U?$less@K@std@@V?$allocator@U?$pair@$$CBKVioHashString@@@std@@@3@$0A@@std@@@2@@Z ; std::_Tree<std::_Tmap_traits<unsigned long,ioHashString,std::less<unsigned long>,std::allocator<std::pair<unsigned long const ,ioHashString> >,0> >::_Rrotate
$LN16@erase:

; 1360 : 						break;	// tree now recolored/rebalanced
; 1361 : 						}
; 1362 : 					}
; 1363 : 
; 1364 : 			this->_Color(_Fixnode) = this->_Black;	// stopping node is black

  00223	c6 47 20 01	 mov	 BYTE PTR [edi+32], 1
$LN19@erase:

; 1365 : 			}
; 1366 : 
; 1367 : 		_Dest_val(this->_Alval,
; 1368 : 			_STD addressof(this->_Myval(_Erasednode)));	// delete erased node

  00227	8d 4b 10	 lea	 ecx, DWORD PTR [ebx+16]
  0022a	ff 15 00 00 00
	00		 call	 DWORD PTR __imp_??1ioHashString@@QAE@XZ

; 1369 : 
; 1370 : 		this->_Alnod.deallocate(_Erasednode, 1);

  00230	53		 push	 ebx
  00231	e8 00 00 00 00	 call	 ??3@YAXPAX@Z		; operator delete
  00236	59		 pop	 ecx

; 1371 : 
; 1372 : 		if (0 < this->_Mysize)

  00237	8b 4d fc	 mov	 ecx, DWORD PTR _this$[ebp]
  0023a	8b 41 08	 mov	 eax, DWORD PTR [ecx+8]
  0023d	5f		 pop	 edi
  0023e	5e		 pop	 esi
  0023f	5b		 pop	 ebx
  00240	85 c0		 test	 eax, eax
  00242	74 04		 je	 SHORT $LN1@erase

; 1373 : 			--this->_Mysize;

  00244	48		 dec	 eax
  00245	89 41 08	 mov	 DWORD PTR [ecx+8], eax
$LN1@erase:

; 1374 : 
; 1375 : 		return (iterator(_Where._Ptr, this));	// return successor iterator

  00248	8b 45 08	 mov	 eax, DWORD PTR ___$ReturnUdt$[ebp]
  0024b	8b 4d 0c	 mov	 ecx, DWORD PTR __Where$[ebp]
  0024e	89 08		 mov	 DWORD PTR [eax], ecx

; 1376 : 		}

  00250	c9		 leave
  00251	c2 08 00	 ret	 8
$LN331@erase:
?erase@?$_Tree@V?$_Tmap_traits@KVioHashString@@U?$less@K@std@@V?$allocator@U?$pair@$$CBKVioHashString@@@std@@@3@$0A@@std@@@std@@QAE?AV?$_Tree_iterator@V?$_Tree_val@V?$_Tmap_traits@KVioHashString@@U?$less@K@std@@V?$allocator@U?$pair@$$CBKVioHashString@@@std@@@3@$0A@@std@@@std@@@2@V?$_Tree_const_iterator@V?$_Tree_val@V?$_Tmap_traits@KVioHashString@@U?$less@K@std@@V?$allocator@U?$pair@$$CBKVioHashString@@@std@@@3@$0A@@std@@@std@@@2@@Z ENDP ; std::_Tree<std::_Tmap_traits<unsigned long,ioHashString,std::less<unsigned long>,std::allocator<std::pair<unsigned long const ,ioHashString> >,0> >::erase
_TEXT	ENDS
PUBLIC	?_Linsert@?$_Tree@V?$_Tmap_traits@KVioHashString@@U?$less@K@std@@V?$allocator@U?$pair@$$CBKVioHashString@@@std@@@3@$0A@@std@@@std@@QAE?AU?$pair@V?$_Tree_iterator@V?$_Tree_val@V?$_Tmap_traits@KVioHashString@@U?$less@K@std@@V?$allocator@U?$pair@$$CBKVioHashString@@@std@@@3@$0A@@std@@@std@@@std@@_N@2@PAU_Node@?$_Tree_nod@V?$_Tmap_traits@KVioHashString@@U?$less@K@std@@V?$allocator@U?$pair@$$CBKVioHashString@@@std@@@3@$0A@@std@@@2@_N@Z ; std::_Tree<std::_Tmap_traits<unsigned long,ioHashString,std::less<unsigned long>,std::allocator<std::pair<unsigned long const ,ioHashString> >,0> >::_Linsert
; Function compile flags: /Ogsp
;	COMDAT ?_Linsert@?$_Tree@V?$_Tmap_traits@KVioHashString@@U?$less@K@std@@V?$allocator@U?$pair@$$CBKVioHashString@@@std@@@3@$0A@@std@@@std@@QAE?AU?$pair@V?$_Tree_iterator@V?$_Tree_val@V?$_Tmap_traits@KVioHashString@@U?$less@K@std@@V?$allocator@U?$pair@$$CBKVioHashString@@@std@@@3@$0A@@std@@@std@@@std@@_N@2@PAU_Node@?$_Tree_nod@V?$_Tmap_traits@KVioHashString@@U?$less@K@std@@V?$allocator@U?$pair@$$CBKVioHashString@@@std@@@3@$0A@@std@@@2@_N@Z
_TEXT	SEGMENT
__Addleft$ = -4						; size = 1
___$ReturnUdt$ = 8					; size = 4
__Node$ = 12						; size = 4
$T509633 = 16						; size = 4
__Where$506482 = 16					; size = 4
__Leftish$ = 16						; size = 1
?_Linsert@?$_Tree@V?$_Tmap_traits@KVioHashString@@U?$less@K@std@@V?$allocator@U?$pair@$$CBKVioHashString@@@std@@@3@$0A@@std@@@std@@QAE?AU?$pair@V?$_Tree_iterator@V?$_Tree_val@V?$_Tmap_traits@KVioHashString@@U?$less@K@std@@V?$allocator@U?$pair@$$CBKVioHashString@@@std@@@3@$0A@@std@@@std@@@std@@_N@2@PAU_Node@?$_Tree_nod@V?$_Tmap_traits@KVioHashString@@U?$less@K@std@@V?$allocator@U?$pair@$$CBKVioHashString@@@std@@@3@$0A@@std@@@2@_N@Z PROC ; std::_Tree<std::_Tmap_traits<unsigned long,ioHashString,std::less<unsigned long>,std::allocator<std::pair<unsigned long const ,ioHashString> >,0> >::_Linsert, COMDAT
; _this$ = ecx

; 944  : 		{	// try to insert node at _Node, on left if _Leftish

  00000	55		 push	 ebp
  00001	8b ec		 mov	 ebp, esp
  00003	51		 push	 ecx

; 945  : 		const value_type& _Val = this->_Myval(_Node);
; 946  : 
; 947  : 		_Nodeptr _Trynode = _Root();
; 948  : 		_Nodeptr _Wherenode = this->_Myhead;
; 949  : 		bool _Addleft = true;	// add to left of head if tree empty
; 950  : 		while (!this->_Isnil(_Trynode))

  00004	8b 55 0c	 mov	 edx, DWORD PTR __Node$[ebp]
  00007	53		 push	 ebx
  00008	56		 push	 esi
  00009	8b f1		 mov	 esi, ecx
  0000b	8b 4e 04	 mov	 ecx, DWORD PTR [esi+4]
  0000e	8b 41 04	 mov	 eax, DWORD PTR [ecx+4]
  00011	80 78 21 00	 cmp	 BYTE PTR [eax+33], 0
  00015	8b d9		 mov	 ebx, ecx
  00017	b1 01		 mov	 cl, 1
  00019	57		 push	 edi
  0001a	88 4d fc	 mov	 BYTE PTR __Addleft$[ebp], cl
  0001d	75 2e		 jne	 SHORT $LN11@Linsert
  0001f	8b 7a 0c	 mov	 edi, DWORD PTR [edx+12]
$LL12@Linsert:

; 951  : 			{	// look for leaf to insert before (_Addleft) or after
; 952  : 			_Wherenode = _Trynode;
; 953  : 			if (_Leftish)

  00022	80 7d 10 00	 cmp	 BYTE PTR __Leftish$[ebp], 0
  00026	8b d8		 mov	 ebx, eax
  00028	74 09		 je	 SHORT $LN10@Linsert

; 954  : 				_Addleft = !_DEBUG_LT_PRED(this->comp,

  0002a	39 78 0c	 cmp	 DWORD PTR [eax+12], edi
  0002d	1a c9		 sbb	 cl, cl
  0002f	fe c1		 inc	 cl

; 955  : 					this->_Key(_Trynode),
; 956  : 					this->_Kfn(_Val));	// favor left end
; 957  : 			else

  00031	eb 06		 jmp	 SHORT $LN161@Linsert
$LN10@Linsert:

; 958  : 				_Addleft = _DEBUG_LT_PRED(this->comp,

  00033	3b 78 0c	 cmp	 edi, DWORD PTR [eax+12]
  00036	0f 92 c1	 setb	 cl
$LN161@Linsert:
  00039	88 4d fc	 mov	 BYTE PTR __Addleft$[ebp], cl

; 959  : 					this->_Kfn(_Val),
; 960  : 					this->_Key(_Trynode));	// favor right end
; 961  : 			_Trynode = _Addleft ? this->_Left(_Trynode)
; 962  : 				: this->_Right(_Trynode);

  0003c	84 c9		 test	 cl, cl
  0003e	74 04		 je	 SHORT $LN15@Linsert
  00040	8b 00		 mov	 eax, DWORD PTR [eax]
  00042	eb 03		 jmp	 SHORT $LN16@Linsert
$LN15@Linsert:
  00044	8b 40 08	 mov	 eax, DWORD PTR [eax+8]
$LN16@Linsert:

; 945  : 		const value_type& _Val = this->_Myval(_Node);
; 946  : 
; 947  : 		_Nodeptr _Trynode = _Root();
; 948  : 		_Nodeptr _Wherenode = this->_Myhead;
; 949  : 		bool _Addleft = true;	// add to left of head if tree empty
; 950  : 		while (!this->_Isnil(_Trynode))

  00047	80 78 21 00	 cmp	 BYTE PTR [eax+33], 0
  0004b	74 d5		 je	 SHORT $LL12@Linsert
$LN11@Linsert:

; 963  : 			}
; 964  : 
; 965  : 		if (this->_Multi)
; 966  : 			return (_Pairib(_Insert(_Addleft, _Wherenode, _Node), true));
; 967  : 		else
; 968  : 			{	// insert only if unique
; 969  : 			iterator _Where = iterator(_Wherenode, this);

  0004d	8b fb		 mov	 edi, ebx
  0004f	89 7d 10	 mov	 DWORD PTR __Where$506482[ebp], edi

; 970  : 			if (!_Addleft)

  00052	84 c9		 test	 cl, cl
  00054	74 31		 je	 SHORT $LN99@Linsert

; 971  : 				;	// need to test if insert after is okay
; 972  : 			else if (_Where == begin())

  00056	8b 46 04	 mov	 eax, DWORD PTR [esi+4]
  00059	3b 18		 cmp	 ebx, DWORD PTR [eax]
  0005b	75 1c		 jne	 SHORT $LN4@Linsert

; 973  : 				return (_Pairib(_Insert(true, _Wherenode, _Node), true));

  0005d	52		 push	 edx
  0005e	53		 push	 ebx
  0005f	6a 01		 push	 1
$LN162@Linsert:
  00061	8d 45 10	 lea	 eax, DWORD PTR $T509633[ebp]
  00064	50		 push	 eax
  00065	8b ce		 mov	 ecx, esi
  00067	e8 00 00 00 00	 call	 ?_Insert@?$_Tree@V?$_Tmap_traits@KVioHashString@@U?$less@K@std@@V?$allocator@U?$pair@$$CBKVioHashString@@@std@@@3@$0A@@std@@@std@@IAE?AV?$_Tree_iterator@V?$_Tree_val@V?$_Tmap_traits@KVioHashString@@U?$less@K@std@@V?$allocator@U?$pair@$$CBKVioHashString@@@std@@@3@$0A@@std@@@std@@@2@_NPAU_Node@?$_Tree_nod@V?$_Tmap_traits@KVioHashString@@U?$less@K@std@@V?$allocator@U?$pair@$$CBKVioHashString@@@std@@@3@$0A@@std@@@2@1@Z ; std::_Tree<std::_Tmap_traits<unsigned long,ioHashString,std::less<unsigned long>,std::allocator<std::pair<unsigned long const ,ioHashString> >,0> >::_Insert
  0006c	8b 08		 mov	 ecx, DWORD PTR [eax]
  0006e	8b 45 08	 mov	 eax, DWORD PTR ___$ReturnUdt$[ebp]
  00071	89 08		 mov	 DWORD PTR [eax], ecx
  00073	c6 40 04 01	 mov	 BYTE PTR [eax+4], 1
  00077	eb 38		 jmp	 SHORT $LN1@Linsert
$LN4@Linsert:

; 974  : 			else
; 975  : 				--_Where;	// need to test if insert before is okay

  00079	8d 4d 10	 lea	 ecx, DWORD PTR __Where$506482[ebp]
  0007c	e8 00 00 00 00	 call	 ??F?$_Tree_unchecked_const_iterator@V?$_Tree_val@V?$_Tmap_traits@KVioHashString@@U?$less@K@std@@V?$allocator@U?$pair@$$CBKVioHashString@@@std@@@3@$0A@@std@@@std@@U_Iterator_base0@2@@std@@QAEAAV01@XZ ; std::_Tree_unchecked_const_iterator<std::_Tree_val<std::_Tmap_traits<unsigned long,ioHashString,std::less<unsigned long>,std::allocator<std::pair<unsigned long const ,ioHashString> >,0> >,std::_Iterator_base0>::operator--
  00081	8b 7d 10	 mov	 edi, DWORD PTR __Where$506482[ebp]
  00084	8b 55 0c	 mov	 edx, DWORD PTR __Node$[ebp]
$LN99@Linsert:

; 976  : 
; 977  : 			if (_DEBUG_LT_PRED(this->comp,

  00087	8b 47 0c	 mov	 eax, DWORD PTR [edi+12]
  0008a	3b 42 0c	 cmp	 eax, DWORD PTR [edx+12]
  0008d	73 07		 jae	 SHORT $LN2@Linsert

; 978  : 				this->_Key(_Where._Mynode()),
; 979  : 				this->_Kfn(_Val)))
; 980  : 				return (_Pairib(_Insert(_Addleft, _Wherenode, _Node), true));

  0008f	52		 push	 edx
  00090	53		 push	 ebx
  00091	ff 75 fc	 push	 DWORD PTR __Addleft$[ebp]
  00094	eb cb		 jmp	 SHORT $LN162@Linsert
$LN2@Linsert:

; 981  : 			else
; 982  : 				{	// duplicate, don't insert
; 983  : 				_Dest_val(this->_Alval,
; 984  : 					_STD addressof(this->_Myval(_Node)));

  00096	8d 4a 10	 lea	 ecx, DWORD PTR [edx+16]
  00099	ff 15 00 00 00
	00		 call	 DWORD PTR __imp_??1ioHashString@@QAE@XZ

; 985  : 
; 986  : 				this->_Alnod.deallocate(_Node, 1);

  0009f	ff 75 0c	 push	 DWORD PTR __Node$[ebp]
  000a2	e8 00 00 00 00	 call	 ??3@YAXPAX@Z		; operator delete

; 987  : 
; 988  : 				return (_Pairib(_Where, false));

  000a7	8b 45 08	 mov	 eax, DWORD PTR ___$ReturnUdt$[ebp]
  000aa	59		 pop	 ecx
  000ab	89 38		 mov	 DWORD PTR [eax], edi
  000ad	c6 40 04 00	 mov	 BYTE PTR [eax+4], 0
$LN1@Linsert:
  000b1	5f		 pop	 edi
  000b2	5e		 pop	 esi
  000b3	5b		 pop	 ebx

; 989  : 				}
; 990  : 			}
; 991  : 		}

  000b4	c9		 leave
  000b5	c2 0c 00	 ret	 12			; 0000000cH
?_Linsert@?$_Tree@V?$_Tmap_traits@KVioHashString@@U?$less@K@std@@V?$allocator@U?$pair@$$CBKVioHashString@@@std@@@3@$0A@@std@@@std@@QAE?AU?$pair@V?$_Tree_iterator@V?$_Tree_val@V?$_Tmap_traits@KVioHashString@@U?$less@K@std@@V?$allocator@U?$pair@$$CBKVioHashString@@@std@@@3@$0A@@std@@@std@@@std@@_N@2@PAU_Node@?$_Tree_nod@V?$_Tmap_traits@KVioHashString@@U?$less@K@std@@V?$allocator@U?$pair@$$CBKVioHashString@@@std@@@3@$0A@@std@@@2@_N@Z ENDP ; std::_Tree<std::_Tmap_traits<unsigned long,ioHashString,std::less<unsigned long>,std::allocator<std::pair<unsigned long const ,ioHashString> >,0> >::_Linsert
_TEXT	ENDS
PUBLIC	??$_Buynode@U?$pair@$$CBKVioHashString@@@std@@@?$_Tree_val@V?$_Tmap_traits@KVioHashString@@U?$less@K@std@@V?$allocator@U?$pair@$$CBKVioHashString@@@std@@@3@$0A@@std@@@std@@QAEPAU_Node@?$_Tree_nod@V?$_Tmap_traits@KVioHashString@@U?$less@K@std@@V?$allocator@U?$pair@$$CBKVioHashString@@@std@@@3@$0A@@std@@@1@$$QAU?$pair@$$CBKVioHashString@@@1@@Z ; std::_Tree_val<std::_Tmap_traits<unsigned long,ioHashString,std::less<unsigned long>,std::allocator<std::pair<unsigned long const ,ioHashString> >,0> >::_Buynode<std::pair<unsigned long const ,ioHashString> >
EXTRN	__EH_prolog3_catch:PROC
;	COMDAT xdata$x
; File c:\program files (x86)\microsoft visual studio 10.0\vc\include\xmemory
xdata$x	SEGMENT
__catchsym$??$_Buynode@U?$pair@$$CBKVioHashString@@@std@@@?$_Tree_val@V?$_Tmap_traits@KVioHashString@@U?$less@K@std@@V?$allocator@U?$pair@$$CBKVioHashString@@@std@@@3@$0A@@std@@@std@@QAEPAU_Node@?$_Tree_nod@V?$_Tmap_traits@KVioHashString@@U?$less@K@std@@V?$allocator@U?$pair@$$CBKVioHashString@@@std@@@3@$0A@@std@@@1@$$QAU?$pair@$$CBKVioHashString@@@1@@Z$2 DD 040H
	DD	00H
	DD	00H
	DD	FLAT:__catch$??$_Buynode@U?$pair@$$CBKVioHashString@@@std@@@?$_Tree_val@V?$_Tmap_traits@KVioHashString@@U?$less@K@std@@V?$allocator@U?$pair@$$CBKVioHashString@@@std@@@3@$0A@@std@@@std@@QAEPAU_Node@?$_Tree_nod@V?$_Tmap_traits@KVioHashString@@U?$less@K@std@@V?$allocator@U?$pair@$$CBKVioHashString@@@std@@@3@$0A@@std@@@1@$$QAU?$pair@$$CBKVioHashString@@@1@@Z$0
__unwindtable$??$_Buynode@U?$pair@$$CBKVioHashString@@@std@@@?$_Tree_val@V?$_Tmap_traits@KVioHashString@@U?$less@K@std@@V?$allocator@U?$pair@$$CBKVioHashString@@@std@@@3@$0A@@std@@@std@@QAEPAU_Node@?$_Tree_nod@V?$_Tmap_traits@KVioHashString@@U?$less@K@std@@V?$allocator@U?$pair@$$CBKVioHashString@@@std@@@3@$0A@@std@@@1@$$QAU?$pair@$$CBKVioHashString@@@1@@Z DD 0ffffffffH
	DD	00H
	DD	0ffffffffH
	DD	00H
__tryblocktable$??$_Buynode@U?$pair@$$CBKVioHashString@@@std@@@?$_Tree_val@V?$_Tmap_traits@KVioHashString@@U?$less@K@std@@V?$allocator@U?$pair@$$CBKVioHashString@@@std@@@3@$0A@@std@@@std@@QAEPAU_Node@?$_Tree_nod@V?$_Tmap_traits@KVioHashString@@U?$less@K@std@@V?$allocator@U?$pair@$$CBKVioHashString@@@std@@@3@$0A@@std@@@1@$$QAU?$pair@$$CBKVioHashString@@@1@@Z DD 00H
	DD	00H
	DD	01H
	DD	01H
	DD	FLAT:__catchsym$??$_Buynode@U?$pair@$$CBKVioHashString@@@std@@@?$_Tree_val@V?$_Tmap_traits@KVioHashString@@U?$less@K@std@@V?$allocator@U?$pair@$$CBKVioHashString@@@std@@@3@$0A@@std@@@std@@QAEPAU_Node@?$_Tree_nod@V?$_Tmap_traits@KVioHashString@@U?$less@K@std@@V?$allocator@U?$pair@$$CBKVioHashString@@@std@@@3@$0A@@std@@@1@$$QAU?$pair@$$CBKVioHashString@@@1@@Z$2
__ehfuncinfo$??$_Buynode@U?$pair@$$CBKVioHashString@@@std@@@?$_Tree_val@V?$_Tmap_traits@KVioHashString@@U?$less@K@std@@V?$allocator@U?$pair@$$CBKVioHashString@@@std@@@3@$0A@@std@@@std@@QAEPAU_Node@?$_Tree_nod@V?$_Tmap_traits@KVioHashString@@U?$less@K@std@@V?$allocator@U?$pair@$$CBKVioHashString@@@std@@@3@$0A@@std@@@1@$$QAU?$pair@$$CBKVioHashString@@@1@@Z DD 019930522H
	DD	02H
	DD	FLAT:__unwindtable$??$_Buynode@U?$pair@$$CBKVioHashString@@@std@@@?$_Tree_val@V?$_Tmap_traits@KVioHashString@@U?$less@K@std@@V?$allocator@U?$pair@$$CBKVioHashString@@@std@@@3@$0A@@std@@@std@@QAEPAU_Node@?$_Tree_nod@V?$_Tmap_traits@KVioHashString@@U?$less@K@std@@V?$allocator@U?$pair@$$CBKVioHashString@@@std@@@3@$0A@@std@@@1@$$QAU?$pair@$$CBKVioHashString@@@1@@Z
	DD	01H
	DD	FLAT:__tryblocktable$??$_Buynode@U?$pair@$$CBKVioHashString@@@std@@@?$_Tree_val@V?$_Tmap_traits@KVioHashString@@U?$less@K@std@@V?$allocator@U?$pair@$$CBKVioHashString@@@std@@@3@$0A@@std@@@std@@QAEPAU_Node@?$_Tree_nod@V?$_Tmap_traits@KVioHashString@@U?$less@K@std@@V?$allocator@U?$pair@$$CBKVioHashString@@@std@@@3@$0A@@std@@@1@$$QAU?$pair@$$CBKVioHashString@@@1@@Z
	DD	2 DUP(00H)
	DD	00H
	DD	01H
; Function compile flags: /Ogsp
; File c:\program files (x86)\microsoft visual studio 10.0\vc\include\xtree
xdata$x	ENDS
;	COMDAT ??$_Buynode@U?$pair@$$CBKVioHashString@@@std@@@?$_Tree_val@V?$_Tmap_traits@KVioHashString@@U?$less@K@std@@V?$allocator@U?$pair@$$CBKVioHashString@@@std@@@3@$0A@@std@@@std@@QAEPAU_Node@?$_Tree_nod@V?$_Tmap_traits@KVioHashString@@U?$less@K@std@@V?$allocator@U?$pair@$$CBKVioHashString@@@std@@@3@$0A@@std@@@1@$$QAU?$pair@$$CBKVioHashString@@@1@@Z
_TEXT	SEGMENT
__Wherenode$ = -20					; size = 4
__$EHRec$ = -16						; size = 16
__Val$ = 8						; size = 4
??$_Buynode@U?$pair@$$CBKVioHashString@@@std@@@?$_Tree_val@V?$_Tmap_traits@KVioHashString@@U?$less@K@std@@V?$allocator@U?$pair@$$CBKVioHashString@@@std@@@3@$0A@@std@@@std@@QAEPAU_Node@?$_Tree_nod@V?$_Tmap_traits@KVioHashString@@U?$less@K@std@@V?$allocator@U?$pair@$$CBKVioHashString@@@std@@@3@$0A@@std@@@1@$$QAU?$pair@$$CBKVioHashString@@@1@@Z PROC ; std::_Tree_val<std::_Tmap_traits<unsigned long,ioHashString,std::less<unsigned long>,std::allocator<std::pair<unsigned long const ,ioHashString> >,0> >::_Buynode<std::pair<unsigned long const ,ioHashString> >, COMDAT
; _this$ = ecx

; 586  : 		_Nodeptr _Buynode(_Valty&& _Val)

  00000	6a 08		 push	 8
  00002	b8 00 00 00 00	 mov	 eax, __ehhandler$??$_Buynode@U?$pair@$$CBKVioHashString@@@std@@@?$_Tree_val@V?$_Tmap_traits@KVioHashString@@U?$less@K@std@@V?$allocator@U?$pair@$$CBKVioHashString@@@std@@@3@$0A@@std@@@std@@QAEPAU_Node@?$_Tree_nod@V?$_Tmap_traits@KVioHashString@@U?$less@K@std@@V?$allocator@U?$pair@$$CBKVioHashString@@@std@@@3@$0A@@std@@@1@$$QAU?$pair@$$CBKVioHashString@@@1@@Z
  00007	e8 00 00 00 00	 call	 __EH_prolog3_catch
  0000c	8b f1		 mov	 esi, ecx

; 587  : 		{	// allocate a node with defaults
; 588  : 		_Nodeptr _Wherenode = _Buynode();

  0000e	e8 00 00 00 00	 call	 ?_Buynode@?$_Tree_val@V?$_Tmap_traits@KVioHashString@@U?$less@K@std@@V?$allocator@U?$pair@$$CBKVioHashString@@@std@@@3@$0A@@std@@@std@@QAEPAU_Node@?$_Tree_nod@V?$_Tmap_traits@KVioHashString@@U?$less@K@std@@V?$allocator@U?$pair@$$CBKVioHashString@@@std@@@3@$0A@@std@@@2@XZ ; std::_Tree_val<std::_Tmap_traits<unsigned long,ioHashString,std::less<unsigned long>,std::allocator<std::pair<unsigned long const ,ioHashString> >,0> >::_Buynode

; 589  : 
; 590  : 		_TRY_BEGIN
; 591  : 		_Cons_val(this->_Alval, _STD addressof(this->_Myval(_Wherenode)),
; 592  : 			_STD forward<_Valty>(_Val));

  00013	ff 75 08	 push	 DWORD PTR __Val$[ebp]
  00016	83 65 fc 00	 and	 DWORD PTR __$EHRec$[ebp+12], 0
  0001a	8b f8		 mov	 edi, eax
  0001c	8d 47 0c	 lea	 eax, DWORD PTR [edi+12]
  0001f	50		 push	 eax
  00020	8d 4e 0d	 lea	 ecx, DWORD PTR [esi+13]
  00023	89 7d ec	 mov	 DWORD PTR __Wherenode$[ebp], edi
  00026	e8 00 00 00 00	 call	 ?construct@?$allocator@U?$pair@$$CBKVioHashString@@@std@@@std@@QAEXPAU?$pair@$$CBKVioHashString@@@2@$$QAU32@@Z ; std::allocator<std::pair<unsigned long const ,ioHashString> >::construct

; 596  : 		_CATCH_END
; 597  : 
; 598  : 		return (_Wherenode);

  0002b	8b c7		 mov	 eax, edi

; 599  : 		}

  0002d	e8 00 00 00 00	 call	 __EH_epilog3
  00032	c2 04 00	 ret	 4
__catch$??$_Buynode@U?$pair@$$CBKVioHashString@@@std@@@?$_Tree_val@V?$_Tmap_traits@KVioHashString@@U?$less@K@std@@V?$allocator@U?$pair@$$CBKVioHashString@@@std@@@3@$0A@@std@@@std@@QAEPAU_Node@?$_Tree_nod@V?$_Tmap_traits@KVioHashString@@U?$less@K@std@@V?$allocator@U?$pair@$$CBKVioHashString@@@std@@@3@$0A@@std@@@1@$$QAU?$pair@$$CBKVioHashString@@@1@@Z$0:

; 593  : 		_CATCH_ALL
; 594  : 		this->_Alnod.deallocate(_Wherenode, 1);

  00035	ff 75 ec	 push	 DWORD PTR __Wherenode$[ebp]
  00038	e8 00 00 00 00	 call	 ??3@YAXPAX@Z		; operator delete
  0003d	59		 pop	 ecx

; 595  : 		_RERAISE;

  0003e	6a 00		 push	 0
  00040	6a 00		 push	 0
  00042	e8 00 00 00 00	 call	 __CxxThrowException@8
$LN23@Buynode@2:
$LN22@Buynode@2:
  00047	cc		 int	 3
_TEXT	ENDS
;	COMDAT text$x
text$x	SEGMENT
__ehhandler$??$_Buynode@U?$pair@$$CBKVioHashString@@@std@@@?$_Tree_val@V?$_Tmap_traits@KVioHashString@@U?$less@K@std@@V?$allocator@U?$pair@$$CBKVioHashString@@@std@@@3@$0A@@std@@@std@@QAEPAU_Node@?$_Tree_nod@V?$_Tmap_traits@KVioHashString@@U?$less@K@std@@V?$allocator@U?$pair@$$CBKVioHashString@@@std@@@3@$0A@@std@@@1@$$QAU?$pair@$$CBKVioHashString@@@1@@Z:
  00000	8b 54 24 08	 mov	 edx, DWORD PTR [esp+8]
  00004	8d 42 0c	 lea	 eax, DWORD PTR [edx+12]
  00007	8b 4a e8	 mov	 ecx, DWORD PTR [edx-24]
  0000a	33 c8		 xor	 ecx, eax
  0000c	e8 00 00 00 00	 call	 @__security_check_cookie@4
  00011	b8 00 00 00 00	 mov	 eax, OFFSET __ehfuncinfo$??$_Buynode@U?$pair@$$CBKVioHashString@@@std@@@?$_Tree_val@V?$_Tmap_traits@KVioHashString@@U?$less@K@std@@V?$allocator@U?$pair@$$CBKVioHashString@@@std@@@3@$0A@@std@@@std@@QAEPAU_Node@?$_Tree_nod@V?$_Tmap_traits@KVioHashString@@U?$less@K@std@@V?$allocator@U?$pair@$$CBKVioHashString@@@std@@@3@$0A@@std@@@1@$$QAU?$pair@$$CBKVioHashString@@@1@@Z
  00016	e9 00 00 00 00	 jmp	 ___CxxFrameHandler3
text$x	ENDS
??$_Buynode@U?$pair@$$CBKVioHashString@@@std@@@?$_Tree_val@V?$_Tmap_traits@KVioHashString@@U?$less@K@std@@V?$allocator@U?$pair@$$CBKVioHashString@@@std@@@3@$0A@@std@@@std@@QAEPAU_Node@?$_Tree_nod@V?$_Tmap_traits@KVioHashString@@U?$less@K@std@@V?$allocator@U?$pair@$$CBKVioHashString@@@std@@@3@$0A@@std@@@1@$$QAU?$pair@$$CBKVioHashString@@@1@@Z ENDP ; std::_Tree_val<std::_Tmap_traits<unsigned long,ioHashString,std::less<unsigned long>,std::allocator<std::pair<unsigned long const ,ioHashString> >,0> >::_Buynode<std::pair<unsigned long const ,ioHashString> >
PUBLIC	??_C@_00CNPNBAHC@?$AA@				; `string'
PUBLIC	?GetAnnounce@ioSelectShutDownAnnouncer@@QAEXKAAVioHashString@@@Z ; ioSelectShutDownAnnouncer::GetAnnounce
EXTRN	__imp_??4ioHashString@@QAEAAV0@ABV0@@Z:PROC
EXTRN	__imp_??4ioHashString@@QAEAAV0@PBD@Z:PROC
;	COMDAT ??_C@_00CNPNBAHC@?$AA@
CONST	SEGMENT
??_C@_00CNPNBAHC@?$AA@ DB 00H				; `string'
; Function compile flags: /Ogsp
; File d:\lost saga for developer\youtube\tutorial\source\src\lsclient\ioselectshutdownannouncer.cpp
CONST	ENDS
;	COMDAT ?GetAnnounce@ioSelectShutDownAnnouncer@@QAEXKAAVioHashString@@@Z
_TEXT	SEGMENT
_iter$ = -4						; size = 4
_dwRemainMinutes$ = 8					; size = 4
_rsAnnounce$ = 12					; size = 4
?GetAnnounce@ioSelectShutDownAnnouncer@@QAEXKAAVioHashString@@@Z PROC ; ioSelectShutDownAnnouncer::GetAnnounce, COMDAT
; _this$ = ecx

; 109  : {

  00000	55		 push	 ebp
  00001	8b ec		 mov	 ebp, esp
  00003	51		 push	 ecx
  00004	56		 push	 esi
  00005	8b f1		 mov	 esi, ecx

; 110  : 	rsAnnounce = "";

  00007	8b 4d 0c	 mov	 ecx, DWORD PTR _rsAnnounce$[ebp]
  0000a	68 00 00 00 00	 push	 OFFSET ??_C@_00CNPNBAHC@?$AA@
  0000f	ff 15 00 00 00
	00		 call	 DWORD PTR __imp_??4ioHashString@@QAEAAV0@PBD@Z

; 111  : 	mAnnounceInfo::iterator iter = m_mAnnounceInfo.find( dwRemainMinutes );

  00015	8d 45 08	 lea	 eax, DWORD PTR _dwRemainMinutes$[ebp]
  00018	50		 push	 eax
  00019	8d 45 fc	 lea	 eax, DWORD PTR _iter$[ebp]
  0001c	50		 push	 eax
  0001d	8d 4e 04	 lea	 ecx, DWORD PTR [esi+4]
  00020	e8 00 00 00 00	 call	 ?find@?$_Tree@V?$_Tmap_traits@KVioHashString@@U?$less@K@std@@V?$allocator@U?$pair@$$CBKVioHashString@@@std@@@3@$0A@@std@@@std@@QAE?AV?$_Tree_iterator@V?$_Tree_val@V?$_Tmap_traits@KVioHashString@@U?$less@K@std@@V?$allocator@U?$pair@$$CBKVioHashString@@@std@@@3@$0A@@std@@@std@@@2@ABK@Z ; std::_Tree<std::_Tmap_traits<unsigned long,ioHashString,std::less<unsigned long>,std::allocator<std::pair<unsigned long const ,ioHashString> >,0> >::find

; 112  : 	if( iter != m_mAnnounceInfo.end() )

  00025	8b 45 fc	 mov	 eax, DWORD PTR _iter$[ebp]
  00028	3b 46 08	 cmp	 eax, DWORD PTR [esi+8]
  0002b	5e		 pop	 esi
  0002c	74 0d		 je	 SHORT $LN1@GetAnnounc

; 113  : 	{
; 114  : 		rsAnnounce = iter->second;

  0002e	8b 4d 0c	 mov	 ecx, DWORD PTR _rsAnnounce$[ebp]
  00031	83 c0 10	 add	 eax, 16			; 00000010H
  00034	50		 push	 eax
  00035	ff 15 00 00 00
	00		 call	 DWORD PTR __imp_??4ioHashString@@QAEAAV0@ABV0@@Z
$LN1@GetAnnounc:

; 115  : 		return;
; 116  : 	}
; 117  : }

  0003b	c9		 leave
  0003c	c2 08 00	 ret	 8
?GetAnnounce@ioSelectShutDownAnnouncer@@QAEXKAAVioHashString@@@Z ENDP ; ioSelectShutDownAnnouncer::GetAnnounce
_TEXT	ENDS
PUBLIC	?clear@?$_Tree@V?$_Tmap_traits@KVioHashString@@U?$less@K@std@@V?$allocator@U?$pair@$$CBKVioHashString@@@std@@@3@$0A@@std@@@std@@QAEXXZ ; std::_Tree<std::_Tmap_traits<unsigned long,ioHashString,std::less<unsigned long>,std::allocator<std::pair<unsigned long const ,ioHashString> >,0> >::clear
; Function compile flags: /Ogsp
; File c:\program files (x86)\microsoft visual studio 10.0\vc\include\xtree
;	COMDAT ?clear@?$_Tree@V?$_Tmap_traits@KVioHashString@@U?$less@K@std@@V?$allocator@U?$pair@$$CBKVioHashString@@@std@@@3@$0A@@std@@@std@@QAEXXZ
_TEXT	SEGMENT
?clear@?$_Tree@V?$_Tmap_traits@KVioHashString@@U?$less@K@std@@V?$allocator@U?$pair@$$CBKVioHashString@@@std@@@3@$0A@@std@@@std@@QAEXXZ PROC ; std::_Tree<std::_Tmap_traits<unsigned long,ioHashString,std::less<unsigned long>,std::allocator<std::pair<unsigned long const ,ioHashString> >,0> >::clear, COMDAT
; _this$ = ecx

; 1410 : 		{	// erase all

  00000	56		 push	 esi
  00001	57		 push	 edi
  00002	8b f9		 mov	 edi, ecx

; 1411 :  #if _ITERATOR_DEBUG_LEVEL == 2
; 1412 : 		this->_Orphan_ptr(*this, 0);
; 1413 :  #endif /* _ITERATOR_DEBUG_LEVEL == 2 */
; 1414 : 
; 1415 : 		_Erase(_Root());

  00004	8b 47 04	 mov	 eax, DWORD PTR [edi+4]
  00007	ff 70 04	 push	 DWORD PTR [eax+4]
  0000a	e8 00 00 00 00	 call	 ?_Erase@?$_Tree@V?$_Tmap_traits@KVioHashString@@U?$less@K@std@@V?$allocator@U?$pair@$$CBKVioHashString@@@std@@@3@$0A@@std@@@std@@IAEXPAU_Node@?$_Tree_nod@V?$_Tmap_traits@KVioHashString@@U?$less@K@std@@V?$allocator@U?$pair@$$CBKVioHashString@@@std@@@3@$0A@@std@@@2@@Z ; std::_Tree<std::_Tmap_traits<unsigned long,ioHashString,std::less<unsigned long>,std::allocator<std::pair<unsigned long const ,ioHashString> >,0> >::_Erase

; 1416 : 		_Root() = this->_Myhead;

  0000f	8b 47 04	 mov	 eax, DWORD PTR [edi+4]
  00012	89 40 04	 mov	 DWORD PTR [eax+4], eax

; 1417 : 		_Lmost() = this->_Myhead;

  00015	8b 47 04	 mov	 eax, DWORD PTR [edi+4]
  00018	89 00		 mov	 DWORD PTR [eax], eax

; 1418 : 		_Rmost() = this->_Myhead;

  0001a	8b 77 04	 mov	 esi, DWORD PTR [edi+4]
  0001d	89 76 08	 mov	 DWORD PTR [esi+8], esi

; 1419 : 		this->_Mysize = 0;

  00020	83 67 08 00	 and	 DWORD PTR [edi+8], 0
  00024	5f		 pop	 edi
  00025	5e		 pop	 esi

; 1420 : 		}

  00026	c3		 ret	 0
?clear@?$_Tree@V?$_Tmap_traits@KVioHashString@@U?$less@K@std@@V?$allocator@U?$pair@$$CBKVioHashString@@@std@@@3@$0A@@std@@@std@@QAEXXZ ENDP ; std::_Tree<std::_Tmap_traits<unsigned long,ioHashString,std::less<unsigned long>,std::allocator<std::pair<unsigned long const ,ioHashString> >,0> >::clear
_TEXT	ENDS
PUBLIC	?erase@?$_Tree@V?$_Tmap_traits@KVioHashString@@U?$less@K@std@@V?$allocator@U?$pair@$$CBKVioHashString@@@std@@@3@$0A@@std@@@std@@QAE?AV?$_Tree_iterator@V?$_Tree_val@V?$_Tmap_traits@KVioHashString@@U?$less@K@std@@V?$allocator@U?$pair@$$CBKVioHashString@@@std@@@3@$0A@@std@@@std@@@2@V?$_Tree_const_iterator@V?$_Tree_val@V?$_Tmap_traits@KVioHashString@@U?$less@K@std@@V?$allocator@U?$pair@$$CBKVioHashString@@@std@@@3@$0A@@std@@@std@@@2@0@Z ; std::_Tree<std::_Tmap_traits<unsigned long,ioHashString,std::less<unsigned long>,std::allocator<std::pair<unsigned long const ,ioHashString> >,0> >::erase
; Function compile flags: /Ogsp
;	COMDAT ?erase@?$_Tree@V?$_Tmap_traits@KVioHashString@@U?$less@K@std@@V?$allocator@U?$pair@$$CBKVioHashString@@@std@@@3@$0A@@std@@@std@@QAE?AV?$_Tree_iterator@V?$_Tree_val@V?$_Tmap_traits@KVioHashString@@U?$less@K@std@@V?$allocator@U?$pair@$$CBKVioHashString@@@std@@@3@$0A@@std@@@std@@@2@V?$_Tree_const_iterator@V?$_Tree_val@V?$_Tmap_traits@KVioHashString@@U?$less@K@std@@V?$allocator@U?$pair@$$CBKVioHashString@@@std@@@3@$0A@@std@@@std@@@2@0@Z
_TEXT	SEGMENT
$T510151 = -4						; size = 4
___$ReturnUdt$ = 8					; size = 4
__First$ = 12						; size = 4
__Last$ = 16						; size = 4
?erase@?$_Tree@V?$_Tmap_traits@KVioHashString@@U?$less@K@std@@V?$allocator@U?$pair@$$CBKVioHashString@@@std@@@3@$0A@@std@@@std@@QAE?AV?$_Tree_iterator@V?$_Tree_val@V?$_Tmap_traits@KVioHashString@@U?$less@K@std@@V?$allocator@U?$pair@$$CBKVioHashString@@@std@@@3@$0A@@std@@@std@@@2@V?$_Tree_const_iterator@V?$_Tree_val@V?$_Tmap_traits@KVioHashString@@U?$less@K@std@@V?$allocator@U?$pair@$$CBKVioHashString@@@std@@@3@$0A@@std@@@std@@@2@0@Z PROC ; std::_Tree<std::_Tmap_traits<unsigned long,ioHashString,std::less<unsigned long>,std::allocator<std::pair<unsigned long const ,ioHashString> >,0> >::erase, COMDAT
; _this$ = ecx

; 1379 : 		{	// erase [_First, _Last)

  00000	55		 push	 ebp
  00001	8b ec		 mov	 ebp, esp
  00003	51		 push	 ecx
  00004	56		 push	 esi
  00005	8b f1		 mov	 esi, ecx

; 1380 : 		if (_First == begin() && _Last == end())

  00007	8b 46 04	 mov	 eax, DWORD PTR [esi+4]
  0000a	8b 4d 0c	 mov	 ecx, DWORD PTR __First$[ebp]
  0000d	3b 08		 cmp	 ecx, DWORD PTR [eax]
  0000f	75 13		 jne	 SHORT $LN65@erase@2
  00011	39 45 10	 cmp	 DWORD PTR __Last$[ebp], eax
  00014	75 0e		 jne	 SHORT $LN65@erase@2

; 1381 : 			{	// erase all
; 1382 : 			clear();

  00016	8b ce		 mov	 ecx, esi
  00018	e8 00 00 00 00	 call	 ?clear@?$_Tree@V?$_Tmap_traits@KVioHashString@@U?$less@K@std@@V?$allocator@U?$pair@$$CBKVioHashString@@@std@@@3@$0A@@std@@@std@@QAEXXZ ; std::_Tree<std::_Tmap_traits<unsigned long,ioHashString,std::less<unsigned long>,std::allocator<std::pair<unsigned long const ,ioHashString> >,0> >::clear

; 1383 : 			return (begin());

  0001d	8b 46 04	 mov	 eax, DWORD PTR [esi+4]
  00020	8b 08		 mov	 ecx, DWORD PTR [eax]
  00022	eb 25		 jmp	 SHORT $LN1@erase@2
$LN65@erase@2:

; 1384 : 			}
; 1385 : 		else
; 1386 : 			{	// partial erase, one at a time
; 1387 : 			while (_First != _Last)

  00024	3b 4d 10	 cmp	 ecx, DWORD PTR __Last$[ebp]
  00027	74 20		 je	 SHORT $LN1@erase@2
  00029	57		 push	 edi
$LL2@erase@2:

; 1388 : 				erase(_First++);

  0002a	8b f9		 mov	 edi, ecx
  0002c	8d 4d 0c	 lea	 ecx, DWORD PTR __First$[ebp]
  0002f	e8 00 00 00 00	 call	 ??E?$_Tree_unchecked_const_iterator@V?$_Tree_val@V?$_Tmap_traits@KVioHashString@@U?$less@K@std@@V?$allocator@U?$pair@$$CBKVioHashString@@@std@@@3@$0A@@std@@@std@@U_Iterator_base0@2@@std@@QAEAAV01@XZ ; std::_Tree_unchecked_const_iterator<std::_Tree_val<std::_Tmap_traits<unsigned long,ioHashString,std::less<unsigned long>,std::allocator<std::pair<unsigned long const ,ioHashString> >,0> >,std::_Iterator_base0>::operator++
  00034	57		 push	 edi
  00035	8d 45 fc	 lea	 eax, DWORD PTR $T510151[ebp]
  00038	50		 push	 eax
  00039	8b ce		 mov	 ecx, esi
  0003b	e8 00 00 00 00	 call	 ?erase@?$_Tree@V?$_Tmap_traits@KVioHashString@@U?$less@K@std@@V?$allocator@U?$pair@$$CBKVioHashString@@@std@@@3@$0A@@std@@@std@@QAE?AV?$_Tree_iterator@V?$_Tree_val@V?$_Tmap_traits@KVioHashString@@U?$less@K@std@@V?$allocator@U?$pair@$$CBKVioHashString@@@std@@@3@$0A@@std@@@std@@@2@V?$_Tree_const_iterator@V?$_Tree_val@V?$_Tmap_traits@KVioHashString@@U?$less@K@std@@V?$allocator@U?$pair@$$CBKVioHashString@@@std@@@3@$0A@@std@@@std@@@2@@Z ; std::_Tree<std::_Tmap_traits<unsigned long,ioHashString,std::less<unsigned long>,std::allocator<std::pair<unsigned long const ,ioHashString> >,0> >::erase
  00040	8b 4d 0c	 mov	 ecx, DWORD PTR __First$[ebp]
  00043	3b 4d 10	 cmp	 ecx, DWORD PTR __Last$[ebp]
  00046	75 e2		 jne	 SHORT $LL2@erase@2
  00048	5f		 pop	 edi
$LN1@erase@2:

; 1389 : 			return (iterator(_First._Ptr, this));

  00049	8b 45 08	 mov	 eax, DWORD PTR ___$ReturnUdt$[ebp]
  0004c	89 08		 mov	 DWORD PTR [eax], ecx
  0004e	5e		 pop	 esi

; 1390 : 			}
; 1391 : 		}

  0004f	c9		 leave
  00050	c2 0c 00	 ret	 12			; 0000000cH
?erase@?$_Tree@V?$_Tmap_traits@KVioHashString@@U?$less@K@std@@V?$allocator@U?$pair@$$CBKVioHashString@@@std@@@3@$0A@@std@@@std@@QAE?AV?$_Tree_iterator@V?$_Tree_val@V?$_Tmap_traits@KVioHashString@@U?$less@K@std@@V?$allocator@U?$pair@$$CBKVioHashString@@@std@@@3@$0A@@std@@@std@@@2@V?$_Tree_const_iterator@V?$_Tree_val@V?$_Tmap_traits@KVioHashString@@U?$less@K@std@@V?$allocator@U?$pair@$$CBKVioHashString@@@std@@@3@$0A@@std@@@std@@@2@0@Z ENDP ; std::_Tree<std::_Tmap_traits<unsigned long,ioHashString,std::less<unsigned long>,std::allocator<std::pair<unsigned long const ,ioHashString> >,0> >::erase
_TEXT	ENDS
PUBLIC	??$insert@U?$pair@$$CBKVioHashString@@@std@@@?$_Tree@V?$_Tmap_traits@KVioHashString@@U?$less@K@std@@V?$allocator@U?$pair@$$CBKVioHashString@@@std@@@3@$0A@@std@@@std@@QAE?AU?$pair@V?$_Tree_iterator@V?$_Tree_val@V?$_Tmap_traits@KVioHashString@@U?$less@K@std@@V?$allocator@U?$pair@$$CBKVioHashString@@@std@@@3@$0A@@std@@@std@@@std@@_N@1@$$QAU?$pair@$$CBKVioHashString@@@1@@Z ; std::_Tree<std::_Tmap_traits<unsigned long,ioHashString,std::less<unsigned long>,std::allocator<std::pair<unsigned long const ,ioHashString> >,0> >::insert<std::pair<unsigned long const ,ioHashString> >
; Function compile flags: /Ogsp
;	COMDAT ??$insert@U?$pair@$$CBKVioHashString@@@std@@@?$_Tree@V?$_Tmap_traits@KVioHashString@@U?$less@K@std@@V?$allocator@U?$pair@$$CBKVioHashString@@@std@@@3@$0A@@std@@@std@@QAE?AU?$pair@V?$_Tree_iterator@V?$_Tree_val@V?$_Tmap_traits@KVioHashString@@U?$less@K@std@@V?$allocator@U?$pair@$$CBKVioHashString@@@std@@@3@$0A@@std@@@std@@@std@@_N@1@$$QAU?$pair@$$CBKVioHashString@@@1@@Z
_TEXT	SEGMENT
___$ReturnUdt$ = 8					; size = 4
__Val$ = 12						; size = 4
??$insert@U?$pair@$$CBKVioHashString@@@std@@@?$_Tree@V?$_Tmap_traits@KVioHashString@@U?$less@K@std@@V?$allocator@U?$pair@$$CBKVioHashString@@@std@@@3@$0A@@std@@@std@@QAE?AU?$pair@V?$_Tree_iterator@V?$_Tree_val@V?$_Tmap_traits@KVioHashString@@U?$less@K@std@@V?$allocator@U?$pair@$$CBKVioHashString@@@std@@@3@$0A@@std@@@std@@@std@@_N@1@$$QAU?$pair@$$CBKVioHashString@@@1@@Z PROC ; std::_Tree<std::_Tmap_traits<unsigned long,ioHashString,std::less<unsigned long>,std::allocator<std::pair<unsigned long const ,ioHashString> >,0> >::insert<std::pair<unsigned long const ,ioHashString> >, COMDAT
; _this$ = ecx

; 753  : 		_Pairib insert(_Valty&& _Val)

  00000	55		 push	 ebp
  00001	8b ec		 mov	 ebp, esp
  00003	56		 push	 esi

; 754  : 		{	// try to insert node with value _Val, favoring right side
; 755  : 		return (_Linsert(this->_Buynode(_STD forward<_Valty>(_Val)),
; 756  : 			false));

  00004	6a 00		 push	 0
  00006	ff 75 0c	 push	 DWORD PTR __Val$[ebp]
  00009	8b f1		 mov	 esi, ecx
  0000b	e8 00 00 00 00	 call	 ??$_Buynode@U?$pair@$$CBKVioHashString@@@std@@@?$_Tree_val@V?$_Tmap_traits@KVioHashString@@U?$less@K@std@@V?$allocator@U?$pair@$$CBKVioHashString@@@std@@@3@$0A@@std@@@std@@QAEPAU_Node@?$_Tree_nod@V?$_Tmap_traits@KVioHashString@@U?$less@K@std@@V?$allocator@U?$pair@$$CBKVioHashString@@@std@@@3@$0A@@std@@@1@$$QAU?$pair@$$CBKVioHashString@@@1@@Z ; std::_Tree_val<std::_Tmap_traits<unsigned long,ioHashString,std::less<unsigned long>,std::allocator<std::pair<unsigned long const ,ioHashString> >,0> >::_Buynode<std::pair<unsigned long const ,ioHashString> >
  00010	50		 push	 eax
  00011	ff 75 08	 push	 DWORD PTR ___$ReturnUdt$[ebp]
  00014	8b ce		 mov	 ecx, esi
  00016	e8 00 00 00 00	 call	 ?_Linsert@?$_Tree@V?$_Tmap_traits@KVioHashString@@U?$less@K@std@@V?$allocator@U?$pair@$$CBKVioHashString@@@std@@@3@$0A@@std@@@std@@QAE?AU?$pair@V?$_Tree_iterator@V?$_Tree_val@V?$_Tmap_traits@KVioHashString@@U?$less@K@std@@V?$allocator@U?$pair@$$CBKVioHashString@@@std@@@3@$0A@@std@@@std@@@std@@_N@2@PAU_Node@?$_Tree_nod@V?$_Tmap_traits@KVioHashString@@U?$less@K@std@@V?$allocator@U?$pair@$$CBKVioHashString@@@std@@@3@$0A@@std@@@2@_N@Z ; std::_Tree<std::_Tmap_traits<unsigned long,ioHashString,std::less<unsigned long>,std::allocator<std::pair<unsigned long const ,ioHashString> >,0> >::_Linsert
  0001b	8b 45 08	 mov	 eax, DWORD PTR ___$ReturnUdt$[ebp]
  0001e	5e		 pop	 esi

; 757  : 		}

  0001f	5d		 pop	 ebp
  00020	c2 08 00	 ret	 8
??$insert@U?$pair@$$CBKVioHashString@@@std@@@?$_Tree@V?$_Tmap_traits@KVioHashString@@U?$less@K@std@@V?$allocator@U?$pair@$$CBKVioHashString@@@std@@@3@$0A@@std@@@std@@QAE?AU?$pair@V?$_Tree_iterator@V?$_Tree_val@V?$_Tmap_traits@KVioHashString@@U?$less@K@std@@V?$allocator@U?$pair@$$CBKVioHashString@@@std@@@3@$0A@@std@@@std@@@std@@_N@1@$$QAU?$pair@$$CBKVioHashString@@@1@@Z ENDP ; std::_Tree<std::_Tmap_traits<unsigned long,ioHashString,std::less<unsigned long>,std::allocator<std::pair<unsigned long const ,ioHashString> >,0> >::insert<std::pair<unsigned long const ,ioHashString> >
_TEXT	ENDS
PUBLIC	??_C@_03BJDGPCOK@Max?$AA@			; `string'
PUBLIC	?LoadINI@ioSelectShutDownAnnouncer@@QAEXXZ	; ioSelectShutDownAnnouncer::LoadINI
EXTRN	__imp_?LoadStringA@ioINILoader@@QAEXPBD0PADH@Z:PROC
EXTRN	__imp_??0ioHashString@@QAE@XZ:PROC
EXTRN	__imp_?LoadInt@ioINILoader@@QAEHPBDH@Z:PROC
EXTRN	__EH_epilog3_GS:PROC
EXTRN	__EH_prolog3_GS:PROC
;	COMDAT ??_C@_03BJDGPCOK@Max?$AA@
; File d:\lost saga for developer\youtube\tutorial\source\src\lsclient\ioselectshutdownannouncer.cpp
CONST	SEGMENT
??_C@_03BJDGPCOK@Max?$AA@ DB 'Max', 00H			; `string'
CONST	ENDS
;	COMDAT xdata$x
xdata$x	SEGMENT
__unwindtable$?LoadINI@ioSelectShutDownAnnouncer@@QAEXXZ DD 0ffffffffH
	DD	FLAT:__unwindfunclet$?LoadINI@ioSelectShutDownAnnouncer@@QAEXXZ$0
	DD	00H
	DD	FLAT:__unwindfunclet$?LoadINI@ioSelectShutDownAnnouncer@@QAEXXZ$1
	DD	01H
	DD	FLAT:__unwindfunclet$?LoadINI@ioSelectShutDownAnnouncer@@QAEXXZ$2
__ehfuncinfo$?LoadINI@ioSelectShutDownAnnouncer@@QAEXXZ DD 019930522H
	DD	03H
	DD	FLAT:__unwindtable$?LoadINI@ioSelectShutDownAnnouncer@@QAEXXZ
	DD	2 DUP(00H)
	DD	2 DUP(00H)
	DD	00H
	DD	01H
; Function compile flags: /Ogsp
xdata$x	ENDS
;	COMDAT ?LoadINI@ioSelectShutDownAnnouncer@@QAEXXZ
_TEXT	SEGMENT
$T510344 = -1536					; size = 20
_sMent$ = -1516						; size = 16
tv3188 = -1500						; size = 4
tv1654 = -1496						; size = 4
_iMax$ = -1496						; size = 4
tv3875 = -1492						; size = 4
_kLoader$ = -1488					; size = 912
_szBuf$ = -576						; size = 260
_szKey$ = -316						; size = 260
__t$510600 = -56					; size = 5
$T510345 = -56						; size = 8
___encStr$505109 = -44					; size = 10
___encStr$505267 = -28					; size = 7
__$EHRec$ = -12						; size = 12
?LoadINI@ioSelectShutDownAnnouncer@@QAEXXZ PROC		; ioSelectShutDownAnnouncer::LoadINI, COMDAT
; _this$ = ecx

; 26   : {

  00000	68 f4 05 00 00	 push	 1524			; 000005f4H
  00005	b8 00 00 00 00	 mov	 eax, __ehhandler$?LoadINI@ioSelectShutDownAnnouncer@@QAEXXZ
  0000a	e8 00 00 00 00	 call	 __EH_prolog3_GS

; 27   : 	ioINILoader_e kLoader( "config/sp2_select_shut_down.ini");

  0000f	6a 07		 push	 7
  00011	8b f9		 mov	 edi, ecx
  00013	c7 85 80 fd ff
	ff 8e 83 85 8c	 mov	 DWORD PTR _kLoader$[ebp+848], -1937407090 ; 8c85838eH
  0001d	c7 85 84 fd ff
	ff 84 8b c4 99	 mov	 DWORD PTR _kLoader$[ebp+852], -1715172476 ; 99c48b84H
  00027	c7 85 88 fd ff
	ff 9d de b4 99	 mov	 DWORD PTR _kLoader$[ebp+856], -1716199779 ; 99b4de9dH
  00031	c7 85 8c fd ff
	ff 88 80 8e 89	 mov	 DWORD PTR _kLoader$[ebp+860], -1987149688 ; 898e8088H
  0003b	c7 85 90 fd ff
	ff 99 b3 98 82	 mov	 DWORD PTR _kLoader$[ebp+864], -2103921767 ; 8298b399H
  00045	c7 85 94 fd ff
	ff 98 98 b4 8e	 mov	 DWORD PTR _kLoader$[ebp+868], -1900767080 ; 8eb49898H
  0004f	c7 85 98 fd ff
	ff 82 9b 85 c4	 mov	 DWORD PTR _kLoader$[ebp+872], -997876862 ; c4859b82H
  00059	8d 85 80 fd ff
	ff		 lea	 eax, DWORD PTR _kLoader$[ebp+848]
  0005f	33 db		 xor	 ebx, ebx
  00061	c7 85 9c fd ff
	ff 84 82 82 00	 mov	 DWORD PTR _kLoader$[ebp+876], 8553092 ; 00828284H
  0006b	59		 pop	 ecx
  0006c	be ed ec eb ea	 mov	 esi, -353637139		; eaebecedH
$LL313@LoadINI:
  00071	31 30		 xor	 DWORD PTR [eax], esi
  00073	83 c0 04	 add	 eax, 4
  00076	49		 dec	 ecx
  00077	75 f8		 jne	 SHORT $LL313@LoadINI
  00079	6a 1c		 push	 28			; 0000001cH
  0007b	58		 pop	 eax
$LL310@LoadINI:
  0007c	8b c8		 mov	 ecx, eax
  0007e	81 e1 03 00 00
	80		 and	 ecx, -2147483645	; 80000003H
  00084	79 05		 jns	 SHORT $LN485@LoadINI
  00086	49		 dec	 ecx
  00087	83 c9 fc	 or	 ecx, -4			; fffffffcH
  0008a	41		 inc	 ecx
$LN485@LoadINI:
  0008b	b2 ed		 mov	 dl, -19			; ffffffedH
  0008d	2a d1		 sub	 dl, cl
  0008f	30 94 05 80 fd
	ff ff		 xor	 BYTE PTR _kLoader$[ebp+eax+848], dl
  00096	40		 inc	 eax
  00097	83 f8 1f	 cmp	 eax, 31			; 0000001fH
  0009a	7c e0		 jl	 SHORT $LL310@LoadINI
  0009c	6a 01		 push	 1
  0009e	8d 85 80 fd ff
	ff		 lea	 eax, DWORD PTR _kLoader$[ebp+848]
  000a4	50		 push	 eax
  000a5	8d 8d 30 fa ff
	ff		 lea	 ecx, DWORD PTR _kLoader$[ebp]
  000ab	ff 15 00 00 00
	00		 call	 DWORD PTR __imp_??0ioINILoader@@QAE@PBD_N@Z

; 28   : 	kLoader.SetTitle_e( "Info" );

  000b1	8d 45 c8	 lea	 eax, DWORD PTR __t$510600[ebp]
  000b4	c7 45 c8 a4 82
	8d 85		 mov	 DWORD PTR __t$510600[ebp], -2054323548 ; 858d82a4H
  000bb	31 75 c8	 xor	 DWORD PTR __t$510600[ebp], esi
  000be	50		 push	 eax
  000bf	8d 8d 30 fa ff
	ff		 lea	 ecx, DWORD PTR _kLoader$[ebp]
  000c5	89 5d fc	 mov	 DWORD PTR __$EHRec$[ebp+8], ebx
  000c8	88 5d cc	 mov	 BYTE PTR __t$510600[ebp+4], bl
  000cb	ff 15 00 00 00
	00		 call	 DWORD PTR __imp_?SetTitle@ioINILoader@@QAEXPBD@Z

; 29   : 	int iMax = kLoader.LoadInt( "Max", 0);

  000d1	53		 push	 ebx
  000d2	68 00 00 00 00	 push	 OFFSET ??_C@_03BJDGPCOK@Max?$AA@
  000d7	8d 8d 30 fa ff
	ff		 lea	 ecx, DWORD PTR _kLoader$[ebp]
  000dd	ff 15 00 00 00
	00		 call	 DWORD PTR __imp_?LoadInt@ioINILoader@@QAEHPBDH@Z

; 30   : 
; 31   : 	m_mAnnounceInfo.clear();

  000e3	8d 4f 04	 lea	 ecx, DWORD PTR [edi+4]
  000e6	89 85 28 fa ff
	ff		 mov	 DWORD PTR _iMax$[ebp], eax
  000ec	89 8d 24 fa ff
	ff		 mov	 DWORD PTR tv3188[ebp], ecx
  000f2	e8 00 00 00 00	 call	 ?clear@?$_Tree@V?$_Tmap_traits@KVioHashString@@U?$less@K@std@@V?$allocator@U?$pair@$$CBKVioHashString@@@std@@@3@$0A@@std@@@std@@QAEXXZ ; std::_Tree<std::_Tmap_traits<unsigned long,ioHashString,std::less<unsigned long>,std::allocator<std::pair<unsigned long const ,ioHashString> >,0> >::clear

; 32   : 
; 33   : 	char szKey[MAX_PATH]="";

  000f7	bf 03 01 00 00	 mov	 edi, 259		; 00000103H
  000fc	57		 push	 edi
  000fd	8d 85 c5 fe ff
	ff		 lea	 eax, DWORD PTR _szKey$[ebp+1]
  00103	53		 push	 ebx
  00104	50		 push	 eax
  00105	88 9d c4 fe ff
	ff		 mov	 BYTE PTR _szKey$[ebp], bl
  0010b	e8 00 00 00 00	 call	 _memset

; 34   : 	char szBuf[MAX_PATH]="";

  00110	57		 push	 edi
  00111	8d 85 c1 fd ff
	ff		 lea	 eax, DWORD PTR _szBuf$[ebp+1]
  00117	53		 push	 ebx
  00118	50		 push	 eax
  00119	88 9d c0 fd ff
	ff		 mov	 BYTE PTR _szBuf$[ebp], bl
  0011f	e8 00 00 00 00	 call	 _memset
  00124	83 c4 18	 add	 esp, 24			; 00000018H

; 35   : 	DWORD dwRemainMinutes = 0;
; 36   : 	ioHashString sMent;

  00127	8d 8d 14 fa ff
	ff		 lea	 ecx, DWORD PTR _sMent$[ebp]
  0012d	ff 15 00 00 00
	00		 call	 DWORD PTR __imp_??0ioHashString@@QAE@XZ

; 37   : 
; 38   : 	for (int i = 0; i < iMax ; i++)

  00133	8b 85 28 fa ff
	ff		 mov	 eax, DWORD PTR _iMax$[ebp]
  00139	c6 45 fc 01	 mov	 BYTE PTR __$EHRec$[ebp+8], 1
  0013d	3b c3		 cmp	 eax, ebx
  0013f	0f 8e 4a 01 00
	00		 jle	 $LN199@LoadINI

; 28   : 	kLoader.SetTitle_e( "Info" );

  00145	c7 85 2c fa ff
	ff 01 00 00 00	 mov	 DWORD PTR tv3875[ebp], 1
  0014f	89 85 28 fa ff
	ff		 mov	 DWORD PTR tv1654[ebp], eax
$LN201@LoadINI:

; 39   : 	{
; 40   : 		sprintf_s_e( szKey, "Minutes%d", i+1 );

  00155	6a 02		 push	 2
  00157	c7 45 d4 a0 85
	85 9f		 mov	 DWORD PTR ___encStr$505109[ebp], -1618639456 ; 9f8585a0H
  0015e	c7 45 d8 99 89
	98 cf		 mov	 DWORD PTR ___encStr$505109[ebp+4], -812086887 ; cf988999H
  00165	8d 45 d4	 lea	 eax, DWORD PTR ___encStr$505109[ebp]
  00168	66 c7 45 dc 89
	00		 mov	 WORD PTR ___encStr$505109[ebp+8], 137 ; 00000089H
  0016e	59		 pop	 ecx
$LL427@LoadINI:
  0016f	31 30		 xor	 DWORD PTR [eax], esi
  00171	83 c0 04	 add	 eax, 4
  00174	49		 dec	 ecx
  00175	75 f8		 jne	 SHORT $LL427@LoadINI
  00177	ff b5 2c fa ff
	ff		 push	 DWORD PTR tv3875[ebp]
  0017d	80 75 dc ed	 xor	 BYTE PTR ___encStr$505109[ebp+8], -19 ; ffffffedH
  00181	8d 45 d4	 lea	 eax, DWORD PTR ___encStr$505109[ebp]
  00184	50		 push	 eax
  00185	8d 85 c4 fe ff
	ff		 lea	 eax, DWORD PTR _szKey$[ebp]
  0018b	50		 push	 eax
  0018c	e8 00 00 00 00	 call	 ??$sprintf_s@$0BAE@@@YAHAAY0BAE@DPBDZZ ; sprintf_s<260>
  00191	83 c4 0c	 add	 esp, 12			; 0000000cH

; 41   : 		dwRemainMinutes = kLoader.LoadInt( szKey, 0 );

  00194	53		 push	 ebx
  00195	8d 85 c4 fe ff
	ff		 lea	 eax, DWORD PTR _szKey$[ebp]
  0019b	50		 push	 eax
  0019c	8d 8d 30 fa ff
	ff		 lea	 ecx, DWORD PTR _kLoader$[ebp]
  001a2	ff 15 00 00 00
	00		 call	 DWORD PTR __imp_?LoadInt@ioINILoader@@QAEHPBDH@Z

; 42   : 		sprintf_s_e( szKey, "Ment%d", i+1 );

  001a8	6a 04		 push	 4
  001aa	8b f8		 mov	 edi, eax
  001ac	c7 45 e4 a0 89
	85 9e		 mov	 DWORD PTR ___encStr$505267[ebp], -1635415648 ; 9e8589a0H
  001b3	31 75 e4	 xor	 DWORD PTR ___encStr$505267[ebp], esi
  001b6	66 c7 45 e8 c8
	88		 mov	 WORD PTR ___encStr$505267[ebp+4], 35016 ; 000088c8H
  001bc	88 5d ea	 mov	 BYTE PTR ___encStr$505267[ebp+6], bl
  001bf	58		 pop	 eax
$LL432@LoadINI:
  001c0	8b c8		 mov	 ecx, eax
  001c2	81 e1 03 00 00
	80		 and	 ecx, -2147483645	; 80000003H
  001c8	79 05		 jns	 SHORT $LN486@LoadINI
  001ca	49		 dec	 ecx
  001cb	83 c9 fc	 or	 ecx, -4			; fffffffcH
  001ce	41		 inc	 ecx
$LN486@LoadINI:
  001cf	b2 ed		 mov	 dl, -19			; ffffffedH
  001d1	2a d1		 sub	 dl, cl
  001d3	30 54 05 e4	 xor	 BYTE PTR ___encStr$505267[ebp+eax], dl
  001d7	40		 inc	 eax
  001d8	83 f8 06	 cmp	 eax, 6
  001db	7c e3		 jl	 SHORT $LL432@LoadINI
  001dd	ff b5 2c fa ff
	ff		 push	 DWORD PTR tv3875[ebp]
  001e3	8d 45 e4	 lea	 eax, DWORD PTR ___encStr$505267[ebp]
  001e6	50		 push	 eax
  001e7	8d 85 c4 fe ff
	ff		 lea	 eax, DWORD PTR _szKey$[ebp]
  001ed	50		 push	 eax
  001ee	e8 00 00 00 00	 call	 ??$sprintf_s@$0BAE@@@YAHAAY0BAE@DPBDZZ ; sprintf_s<260>
  001f3	83 c4 0c	 add	 esp, 12			; 0000000cH

; 43   : 		kLoader.LoadString( szKey, "", szBuf, sizeof( szBuf ) );

  001f6	68 04 01 00 00	 push	 260			; 00000104H
  001fb	8d 85 c0 fd ff
	ff		 lea	 eax, DWORD PTR _szBuf$[ebp]
  00201	50		 push	 eax
  00202	68 00 00 00 00	 push	 OFFSET ??_C@_00CNPNBAHC@?$AA@
  00207	8d 85 c4 fe ff
	ff		 lea	 eax, DWORD PTR _szKey$[ebp]
  0020d	50		 push	 eax
  0020e	8d 8d 30 fa ff
	ff		 lea	 ecx, DWORD PTR _kLoader$[ebp]
  00214	ff 15 00 00 00
	00		 call	 DWORD PTR __imp_?LoadStringA@ioINILoader@@QAEXPBD0PADH@Z

; 44   : 		sMent = szBuf;

  0021a	8d 85 c0 fd ff
	ff		 lea	 eax, DWORD PTR _szBuf$[ebp]
  00220	50		 push	 eax
  00221	8d 8d 14 fa ff
	ff		 lea	 ecx, DWORD PTR _sMent$[ebp]
  00227	ff 15 00 00 00
	00		 call	 DWORD PTR __imp_??4ioHashString@@QAEAAV0@PBD@Z

; 45   : 		m_mAnnounceInfo.insert( mAnnounceInfo::value_type( dwRemainMinutes, sMent ) );		

  0022d	8d 85 14 fa ff
	ff		 lea	 eax, DWORD PTR _sMent$[ebp]
  00233	50		 push	 eax
  00234	8d 8d 04 fa ff
	ff		 lea	 ecx, DWORD PTR $T510344[ebp+4]
  0023a	89 bd 00 fa ff
	ff		 mov	 DWORD PTR $T510344[ebp], edi
  00240	ff 15 00 00 00
	00		 call	 DWORD PTR __imp_??0ioHashString@@QAE@ABV0@@Z
  00246	8b 8d 24 fa ff
	ff		 mov	 ecx, DWORD PTR tv3188[ebp]
  0024c	53		 push	 ebx
  0024d	8d 85 00 fa ff
	ff		 lea	 eax, DWORD PTR $T510344[ebp]
  00253	50		 push	 eax
  00254	c6 45 fc 02	 mov	 BYTE PTR __$EHRec$[ebp+8], 2
  00258	e8 00 00 00 00	 call	 ??$_Buynode@U?$pair@$$CBKVioHashString@@@std@@@?$_Tree_val@V?$_Tmap_traits@KVioHashString@@U?$less@K@std@@V?$allocator@U?$pair@$$CBKVioHashString@@@std@@@3@$0A@@std@@@std@@QAEPAU_Node@?$_Tree_nod@V?$_Tmap_traits@KVioHashString@@U?$less@K@std@@V?$allocator@U?$pair@$$CBKVioHashString@@@std@@@3@$0A@@std@@@1@$$QAU?$pair@$$CBKVioHashString@@@1@@Z ; std::_Tree_val<std::_Tmap_traits<unsigned long,ioHashString,std::less<unsigned long>,std::allocator<std::pair<unsigned long const ,ioHashString> >,0> >::_Buynode<std::pair<unsigned long const ,ioHashString> >
  0025d	8b 8d 24 fa ff
	ff		 mov	 ecx, DWORD PTR tv3188[ebp]
  00263	50		 push	 eax
  00264	8d 45 c8	 lea	 eax, DWORD PTR $T510345[ebp]
  00267	50		 push	 eax
  00268	e8 00 00 00 00	 call	 ?_Linsert@?$_Tree@V?$_Tmap_traits@KVioHashString@@U?$less@K@std@@V?$allocator@U?$pair@$$CBKVioHashString@@@std@@@3@$0A@@std@@@std@@QAE?AU?$pair@V?$_Tree_iterator@V?$_Tree_val@V?$_Tmap_traits@KVioHashString@@U?$less@K@std@@V?$allocator@U?$pair@$$CBKVioHashString@@@std@@@3@$0A@@std@@@std@@@std@@_N@2@PAU_Node@?$_Tree_nod@V?$_Tmap_traits@KVioHashString@@U?$less@K@std@@V?$allocator@U?$pair@$$CBKVioHashString@@@std@@@3@$0A@@std@@@2@_N@Z ; std::_Tree<std::_Tmap_traits<unsigned long,ioHashString,std::less<unsigned long>,std::allocator<std::pair<unsigned long const ,ioHashString> >,0> >::_Linsert
  0026d	8d 8d 04 fa ff
	ff		 lea	 ecx, DWORD PTR $T510344[ebp+4]
  00273	c6 45 fc 01	 mov	 BYTE PTR __$EHRec$[ebp+8], 1
  00277	ff 15 00 00 00
	00		 call	 DWORD PTR __imp_??1ioHashString@@QAE@XZ
  0027d	ff 85 2c fa ff
	ff		 inc	 DWORD PTR tv3875[ebp]
  00283	ff 8d 28 fa ff
	ff		 dec	 DWORD PTR tv1654[ebp]
  00289	0f 85 c6 fe ff
	ff		 jne	 $LN201@LoadINI
$LN199@LoadINI:

; 46   : 	}
; 47   : }

  0028f	8d 8d 14 fa ff
	ff		 lea	 ecx, DWORD PTR _sMent$[ebp]
  00295	88 5d fc	 mov	 BYTE PTR __$EHRec$[ebp+8], bl
  00298	ff 15 00 00 00
	00		 call	 DWORD PTR __imp_??1ioHashString@@QAE@XZ
  0029e	83 4d fc ff	 or	 DWORD PTR __$EHRec$[ebp+8], -1
  002a2	8d 8d 30 fa ff
	ff		 lea	 ecx, DWORD PTR _kLoader$[ebp]
  002a8	ff 15 00 00 00
	00		 call	 DWORD PTR __imp_??1ioINILoader@@QAE@XZ
  002ae	e8 00 00 00 00	 call	 __EH_epilog3_GS
  002b3	c3		 ret	 0
_TEXT	ENDS
;	COMDAT text$x
text$x	SEGMENT
__unwindfunclet$?LoadINI@ioSelectShutDownAnnouncer@@QAEXXZ$0:
  00000	8d 8d 30 fa ff
	ff		 lea	 ecx, DWORD PTR _kLoader$[ebp]
  00006	e9 00 00 00 00	 jmp	 ??1ioINILoader_e@@QAE@XZ
__unwindfunclet$?LoadINI@ioSelectShutDownAnnouncer@@QAEXXZ$1:
  0000b	8d 8d 14 fa ff
	ff		 lea	 ecx, DWORD PTR _sMent$[ebp]
  00011	ff 25 00 00 00
	00		 jmp	 DWORD PTR __imp_??1ioHashString@@QAE@XZ
__unwindfunclet$?LoadINI@ioSelectShutDownAnnouncer@@QAEXXZ$2:
  00017	8d 8d 00 fa ff
	ff		 lea	 ecx, DWORD PTR $T510344[ebp]
  0001d	e9 00 00 00 00	 jmp	 ??1?$pair@$$CBKVioHashString@@@std@@QAE@XZ
__ehhandler$?LoadINI@ioSelectShutDownAnnouncer@@QAEXXZ:
  00022	8b 54 24 08	 mov	 edx, DWORD PTR [esp+8]
  00026	8d 42 0c	 lea	 eax, DWORD PTR [edx+12]
  00029	8b 8a fc f9 ff
	ff		 mov	 ecx, DWORD PTR [edx-1540]
  0002f	33 c8		 xor	 ecx, eax
  00031	e8 00 00 00 00	 call	 @__security_check_cookie@4
  00036	8b 4a fc	 mov	 ecx, DWORD PTR [edx-4]
  00039	33 c8		 xor	 ecx, eax
  0003b	e8 00 00 00 00	 call	 @__security_check_cookie@4
  00040	b8 00 00 00 00	 mov	 eax, OFFSET __ehfuncinfo$?LoadINI@ioSelectShutDownAnnouncer@@QAEXXZ
  00045	e9 00 00 00 00	 jmp	 ___CxxFrameHandler3
text$x	ENDS
?LoadINI@ioSelectShutDownAnnouncer@@QAEXXZ ENDP		; ioSelectShutDownAnnouncer::LoadINI
PUBLIC	__real@4f800000
PUBLIC	?Process@ioSelectShutDownAnnouncer@@QAEX_JK@Z	; ioSelectShutDownAnnouncer::Process
EXTRN	__imp_?IsEmpty@ioHashString@@QBE_NXZ:PROC
EXTRN	__fltused:DWORD
EXTRN	__ftol2:PROC
;	COMDAT __real@4f800000
; File d:\lost saga for developer\youtube\tutorial\source\src\lsclient\stdafx.h
CONST	SEGMENT
__real@4f800000 DD 04f800000r			; 4.29497e+009
CONST	ENDS
;	COMDAT xdata$x
xdata$x	SEGMENT
__unwindtable$?Process@ioSelectShutDownAnnouncer@@QAEX_JK@Z DD 0ffffffffH
	DD	FLAT:__unwindfunclet$?Process@ioSelectShutDownAnnouncer@@QAEX_JK@Z$0
__ehfuncinfo$?Process@ioSelectShutDownAnnouncer@@QAEX_JK@Z DD 019930522H
	DD	01H
	DD	FLAT:__unwindtable$?Process@ioSelectShutDownAnnouncer@@QAEX_JK@Z
	DD	2 DUP(00H)
	DD	2 DUP(00H)
	DD	00H
	DD	01H
; Function compile flags: /Ogsp
; File d:\lost saga for developer\youtube\tutorial\source\src\lsclient\ioselectshutdownannouncer.cpp
xdata$x	ENDS
;	COMDAT ?Process@ioSelectShutDownAnnouncer@@QAEX_JK@Z
_TEXT	SEGMENT
_sAnnounce$ = -28					; size = 16
__$EHRec$ = -12						; size = 12
_kShutDownTime$ = 8					; size = 8
_kServerTime$ = 8					; size = 8
tv241 = 16						; size = 4
tv235 = 16						; size = 4
_dwRealGetTime$ = 16					; size = 4
?Process@ioSelectShutDownAnnouncer@@QAEX_JK@Z PROC	; ioSelectShutDownAnnouncer::Process, COMDAT
; _this$ = ecx

; 68   : {

  00000	6a 10		 push	 16			; 00000010H
  00002	b8 00 00 00 00	 mov	 eax, __ehhandler$?Process@ioSelectShutDownAnnouncer@@QAEX_JK@Z
  00007	e8 00 00 00 00	 call	 __EH_prolog3
  0000c	8b f1		 mov	 esi, ecx

; 69   : 	if( !m_bProcess )

  0000e	33 db		 xor	 ebx, ebx
  00010	38 5e 38	 cmp	 BYTE PTR [esi+56], bl
  00013	0f 84 bb 00 00
	00		 je	 $LN6@Process

; 70   : 		return;
; 71   : 
; 72   : 	if( dwRealGetTime - m_dwCheckTime < CHECK_TIME )

  00019	8b 4d 10	 mov	 ecx, DWORD PTR _dwRealGetTime$[ebp]
  0001c	8b c1		 mov	 eax, ecx
  0001e	2b 46 30	 sub	 eax, DWORD PTR [esi+48]
  00021	3d 60 ea 00 00	 cmp	 eax, 60000		; 0000ea60H
  00026	73 08		 jae	 SHORT $LN4@Process

; 73   : 	{
; 74   : 		m_bAnnounce = false;

  00028	88 5e 28	 mov	 BYTE PTR [esi+40], bl

; 75   : 		return;

  0002b	e9 a4 00 00 00	 jmp	 $LN6@Process
$LN4@Process:

; 76   : 	}
; 77   : 	m_dwCheckTime = dwRealGetTime;

  00030	89 4e 30	 mov	 DWORD PTR [esi+48], ecx

; 78   : 	kServerTime += ( dwRealGetTime/FLOAT1000 );//   .

  00033	b8 e8 03 00 00	 mov	 eax, 1000		; 000003e8H
  00038	89 4d 10	 mov	 DWORD PTR tv241[ebp], ecx
  0003b	db 45 10	 fild	 DWORD PTR tv241[ebp]
  0003e	85 c9		 test	 ecx, ecx
  00040	79 06		 jns	 SHORT $LN12@Process
  00042	d8 05 00 00 00
	00		 fadd	 DWORD PTR __real@4f800000
$LN12@Process:
  00048	89 45 10	 mov	 DWORD PTR tv235[ebp], eax
  0004b	db 45 10	 fild	 DWORD PTR tv235[ebp]
  0004e	85 c0		 test	 eax, eax
  00050	79 06		 jns	 SHORT $LN13@Process
  00052	d8 05 00 00 00
	00		 fadd	 DWORD PTR __real@4f800000
$LN13@Process:
  00058	de f9		 fdivp	 ST(1), ST(0)
  0005a	df 6d 08	 fild	 QWORD PTR _kServerTime$[ebp]
  0005d	de c1		 faddp	 ST(1), ST(0)
  0005f	e8 00 00 00 00	 call	 __ftol2

; 79   : 	
; 80   : 	time_t kShutDownTime = ConvertSecondTime( m_iShutDownYear, m_iShutDownMonth, m_iShutDownDay, m_iShutDownHour, m_iShutDownMinute, 0 );

  00064	53		 push	 ebx
  00065	ff 76 24	 push	 DWORD PTR [esi+36]
  00068	8b ce		 mov	 ecx, esi
  0006a	ff 76 20	 push	 DWORD PTR [esi+32]
  0006d	8b f8		 mov	 edi, eax
  0006f	ff 76 1c	 push	 DWORD PTR [esi+28]
  00072	89 55 0c	 mov	 DWORD PTR _kServerTime$[ebp+4], edx
  00075	ff 76 18	 push	 DWORD PTR [esi+24]
  00078	ff 76 14	 push	 DWORD PTR [esi+20]
  0007b	e8 00 00 00 00	 call	 ?ConvertSecondTime@ioSelectShutDownAnnouncer@@QAE_JHHHHHH@Z ; ioSelectShutDownAnnouncer::ConvertSecondTime

; 81   : 	
; 82   : 	int iGapSec = kShutDownTime - kServerTime;

  00080	2b c7		 sub	 eax, edi
  00082	89 55 0c	 mov	 DWORD PTR _kShutDownTime$[ebp+4], edx

; 83   : 	if( iGapSec < 0 || iGapSec >= 604800 ) // 604800 

  00085	3d 7f 3a 09 00	 cmp	 eax, 604799		; 00093a7fH
  0008a	77 45		 ja	 SHORT $LN2@Process

; 86   : 		return;
; 87   : 	}
; 88   : 	int iGapMinutes = iGapSec/60;

  0008c	6a 3c		 push	 60			; 0000003cH
  0008e	99		 cdq
  0008f	59		 pop	 ecx
  00090	f7 f9		 idiv	 ecx

; 89   : 
; 90   : 	ioHashString sAnnounce;

  00092	8d 4d e4	 lea	 ecx, DWORD PTR _sAnnounce$[ebp]
  00095	8b f8		 mov	 edi, eax
  00097	ff 15 00 00 00
	00		 call	 DWORD PTR __imp_??0ioHashString@@QAE@XZ

; 91   : 	GetAnnounce( iGapMinutes , sAnnounce );

  0009d	8d 45 e4	 lea	 eax, DWORD PTR _sAnnounce$[ebp]
  000a0	50		 push	 eax
  000a1	57		 push	 edi
  000a2	8b ce		 mov	 ecx, esi
  000a4	89 5d fc	 mov	 DWORD PTR __$EHRec$[ebp+8], ebx
  000a7	e8 00 00 00 00	 call	 ?GetAnnounce@ioSelectShutDownAnnouncer@@QAEXKAAVioHashString@@@Z ; ioSelectShutDownAnnouncer::GetAnnounce

; 92   : 	if( sAnnounce.IsEmpty() )

  000ac	8d 4d e4	 lea	 ecx, DWORD PTR _sAnnounce$[ebp]
  000af	ff 15 00 00 00
	00		 call	 DWORD PTR __imp_?IsEmpty@ioHashString@@QBE_NXZ

; 93   : 		return;

  000b5	83 4d fc ff	 or	 DWORD PTR __$EHRec$[ebp+8], -1
  000b9	8d 4d e4	 lea	 ecx, DWORD PTR _sAnnounce$[ebp]
  000bc	84 c0		 test	 al, al
  000be	74 08		 je	 SHORT $LN1@Process
$LN14@Process:
  000c0	ff 15 00 00 00
	00		 call	 DWORD PTR __imp_??1ioHashString@@QAE@XZ
  000c6	eb 0c		 jmp	 SHORT $LN6@Process
$LN1@Process:

; 94   : 	m_bAnnounce = true;

  000c8	c6 46 28 01	 mov	 BYTE PTR [esi+40], 1

; 95   : 	m_dwRemainMinutes = iGapMinutes;

  000cc	89 7e 2c	 mov	 DWORD PTR [esi+44], edi

; 96   : }

  000cf	eb ef		 jmp	 SHORT $LN14@Process
$LN2@Process:

; 84   : 	{
; 85   : 		m_bProcess = false;

  000d1	88 5e 38	 mov	 BYTE PTR [esi+56], bl
$LN6@Process:

; 96   : }

  000d4	e8 00 00 00 00	 call	 __EH_epilog3
  000d9	c2 0c 00	 ret	 12			; 0000000cH
_TEXT	ENDS
;	COMDAT text$x
text$x	SEGMENT
__unwindfunclet$?Process@ioSelectShutDownAnnouncer@@QAEX_JK@Z$0:
  00000	8d 4d e4	 lea	 ecx, DWORD PTR _sAnnounce$[ebp]
  00003	ff 25 00 00 00
	00		 jmp	 DWORD PTR __imp_??1ioHashString@@QAE@XZ
__ehhandler$?Process@ioSelectShutDownAnnouncer@@QAEX_JK@Z:
  00009	8b 54 24 08	 mov	 edx, DWORD PTR [esp+8]
  0000d	8d 42 0c	 lea	 eax, DWORD PTR [edx+12]
  00010	8b 4a e0	 mov	 ecx, DWORD PTR [edx-32]
  00013	33 c8		 xor	 ecx, eax
  00015	e8 00 00 00 00	 call	 @__security_check_cookie@4
  0001a	b8 00 00 00 00	 mov	 eax, OFFSET __ehfuncinfo$?Process@ioSelectShutDownAnnouncer@@QAEX_JK@Z
  0001f	e9 00 00 00 00	 jmp	 ___CxxFrameHandler3
text$x	ENDS
?Process@ioSelectShutDownAnnouncer@@QAEX_JK@Z ENDP	; ioSelectShutDownAnnouncer::Process
PUBLIC	?_Tidy@?$_Tree@V?$_Tmap_traits@KVioHashString@@U?$less@K@std@@V?$allocator@U?$pair@$$CBKVioHashString@@@std@@@3@$0A@@std@@@std@@IAEXXZ ; std::_Tree<std::_Tmap_traits<unsigned long,ioHashString,std::less<unsigned long>,std::allocator<std::pair<unsigned long const ,ioHashString> >,0> >::_Tidy
; Function compile flags: /Ogsp
; File c:\program files (x86)\microsoft visual studio 10.0\vc\include\xtree
;	COMDAT ?_Tidy@?$_Tree@V?$_Tmap_traits@KVioHashString@@U?$less@K@std@@V?$allocator@U?$pair@$$CBKVioHashString@@@std@@@3@$0A@@std@@@std@@IAEXXZ
_TEXT	SEGMENT
$T510848 = -4						; size = 4
?_Tidy@?$_Tree@V?$_Tmap_traits@KVioHashString@@U?$less@K@std@@V?$allocator@U?$pair@$$CBKVioHashString@@@std@@@3@$0A@@std@@@std@@IAEXXZ PROC ; std::_Tree<std::_Tmap_traits<unsigned long,ioHashString,std::less<unsigned long>,std::allocator<std::pair<unsigned long const ,ioHashString> >,0> >::_Tidy, COMDAT
; _this$ = ecx

; 1865 : 		{	// free all storage

  00000	55		 push	 ebp
  00001	8b ec		 mov	 ebp, esp
  00003	51		 push	 ecx

; 1866 : 		erase(begin(), end());

  00004	8b 41 04	 mov	 eax, DWORD PTR [ecx+4]
  00007	8b 10		 mov	 edx, DWORD PTR [eax]
  00009	50		 push	 eax
  0000a	52		 push	 edx
  0000b	8d 45 fc	 lea	 eax, DWORD PTR $T510848[ebp]
  0000e	50		 push	 eax
  0000f	e8 00 00 00 00	 call	 ?erase@?$_Tree@V?$_Tmap_traits@KVioHashString@@U?$less@K@std@@V?$allocator@U?$pair@$$CBKVioHashString@@@std@@@3@$0A@@std@@@std@@QAE?AV?$_Tree_iterator@V?$_Tree_val@V?$_Tmap_traits@KVioHashString@@U?$less@K@std@@V?$allocator@U?$pair@$$CBKVioHashString@@@std@@@3@$0A@@std@@@std@@@2@V?$_Tree_const_iterator@V?$_Tree_val@V?$_Tmap_traits@KVioHashString@@U?$less@K@std@@V?$allocator@U?$pair@$$CBKVioHashString@@@std@@@3@$0A@@std@@@std@@@2@0@Z ; std::_Tree<std::_Tmap_traits<unsigned long,ioHashString,std::less<unsigned long>,std::allocator<std::pair<unsigned long const ,ioHashString> >,0> >::erase

; 1867 : 		}

  00014	c9		 leave
  00015	c3		 ret	 0
?_Tidy@?$_Tree@V?$_Tmap_traits@KVioHashString@@U?$less@K@std@@V?$allocator@U?$pair@$$CBKVioHashString@@@std@@@3@$0A@@std@@@std@@IAEXXZ ENDP ; std::_Tree<std::_Tmap_traits<unsigned long,ioHashString,std::less<unsigned long>,std::allocator<std::pair<unsigned long const ,ioHashString> >,0> >::_Tidy
_TEXT	ENDS
PUBLIC	??1?$_Tree@V?$_Tmap_traits@KVioHashString@@U?$less@K@std@@V?$allocator@U?$pair@$$CBKVioHashString@@@std@@@3@$0A@@std@@@std@@QAE@XZ ; std::_Tree<std::_Tmap_traits<unsigned long,ioHashString,std::less<unsigned long>,std::allocator<std::pair<unsigned long const ,ioHashString> >,0> >::~_Tree<std::_Tmap_traits<unsigned long,ioHashString,std::less<unsigned long>,std::allocator<std::pair<unsigned long const ,ioHashString> >,0> >
;	COMDAT xdata$x
; File c:\program files (x86)\microsoft visual studio 10.0\vc\include\xmemory
xdata$x	SEGMENT
__unwindtable$??1?$_Tree@V?$_Tmap_traits@KVioHashString@@U?$less@K@std@@V?$allocator@U?$pair@$$CBKVioHashString@@@std@@@3@$0A@@std@@@std@@QAE@XZ DD 0ffffffffH
	DD	FLAT:__unwindfunclet$??1?$_Tree@V?$_Tmap_traits@KVioHashString@@U?$less@K@std@@V?$allocator@U?$pair@$$CBKVioHashString@@@std@@@3@$0A@@std@@@std@@QAE@XZ$0
__ehfuncinfo$??1?$_Tree@V?$_Tmap_traits@KVioHashString@@U?$less@K@std@@V?$allocator@U?$pair@$$CBKVioHashString@@@std@@@3@$0A@@std@@@std@@QAE@XZ DD 019930522H
	DD	01H
	DD	FLAT:__unwindtable$??1?$_Tree@V?$_Tmap_traits@KVioHashString@@U?$less@K@std@@V?$allocator@U?$pair@$$CBKVioHashString@@@std@@@3@$0A@@std@@@std@@QAE@XZ
	DD	2 DUP(00H)
	DD	2 DUP(00H)
	DD	00H
	DD	01H
; Function compile flags: /Ogsp
; File c:\program files (x86)\microsoft visual studio 10.0\vc\include\xtree
xdata$x	ENDS
;	COMDAT ??1?$_Tree@V?$_Tmap_traits@KVioHashString@@U?$less@K@std@@V?$allocator@U?$pair@$$CBKVioHashString@@@std@@@3@$0A@@std@@@std@@QAE@XZ
_TEXT	SEGMENT
$T511051 = -20						; size = 4
_this$ = -16						; size = 4
__$EHRec$ = -12						; size = 12
??1?$_Tree@V?$_Tmap_traits@KVioHashString@@U?$less@K@std@@V?$allocator@U?$pair@$$CBKVioHashString@@@std@@@3@$0A@@std@@@std@@QAE@XZ PROC ; std::_Tree<std::_Tmap_traits<unsigned long,ioHashString,std::less<unsigned long>,std::allocator<std::pair<unsigned long const ,ioHashString> >,0> >::~_Tree<std::_Tmap_traits<unsigned long,ioHashString,std::less<unsigned long>,std::allocator<std::pair<unsigned long const ,ioHashString> >,0> >, COMDAT
; _this$ = ecx

; 790  : 		{	// destroy tree

  00000	6a 08		 push	 8
  00002	b8 00 00 00 00	 mov	 eax, __ehhandler$??1?$_Tree@V?$_Tmap_traits@KVioHashString@@U?$less@K@std@@V?$allocator@U?$pair@$$CBKVioHashString@@@std@@@3@$0A@@std@@@std@@QAE@XZ
  00007	e8 00 00 00 00	 call	 __EH_prolog3
  0000c	8b f1		 mov	 esi, ecx
  0000e	89 75 f0	 mov	 DWORD PTR _this$[ebp], esi

; 791  : 		_Tidy();

  00011	8b 46 04	 mov	 eax, DWORD PTR [esi+4]
  00014	8b 08		 mov	 ecx, DWORD PTR [eax]
  00016	83 65 fc 00	 and	 DWORD PTR __$EHRec$[ebp+8], 0
  0001a	50		 push	 eax
  0001b	51		 push	 ecx
  0001c	8d 45 ec	 lea	 eax, DWORD PTR $T511051[ebp]
  0001f	50		 push	 eax
  00020	8b ce		 mov	 ecx, esi
  00022	e8 00 00 00 00	 call	 ?erase@?$_Tree@V?$_Tmap_traits@KVioHashString@@U?$less@K@std@@V?$allocator@U?$pair@$$CBKVioHashString@@@std@@@3@$0A@@std@@@std@@QAE?AV?$_Tree_iterator@V?$_Tree_val@V?$_Tmap_traits@KVioHashString@@U?$less@K@std@@V?$allocator@U?$pair@$$CBKVioHashString@@@std@@@3@$0A@@std@@@std@@@2@V?$_Tree_const_iterator@V?$_Tree_val@V?$_Tmap_traits@KVioHashString@@U?$less@K@std@@V?$allocator@U?$pair@$$CBKVioHashString@@@std@@@3@$0A@@std@@@std@@@2@0@Z ; std::_Tree<std::_Tmap_traits<unsigned long,ioHashString,std::less<unsigned long>,std::allocator<std::pair<unsigned long const ,ioHashString> >,0> >::erase

; 792  : 		}

  00027	ff 76 04	 push	 DWORD PTR [esi+4]
  0002a	e8 00 00 00 00	 call	 ??3@YAXPAX@Z		; operator delete
  0002f	59		 pop	 ecx
  00030	e8 00 00 00 00	 call	 __EH_epilog3
  00035	c3		 ret	 0
_TEXT	ENDS
;	COMDAT text$x
text$x	SEGMENT
__unwindfunclet$??1?$_Tree@V?$_Tmap_traits@KVioHashString@@U?$less@K@std@@V?$allocator@U?$pair@$$CBKVioHashString@@@std@@@3@$0A@@std@@@std@@QAE@XZ$0:
  00000	8b 4d f0	 mov	 ecx, DWORD PTR _this$[ebp]
  00003	e9 00 00 00 00	 jmp	 ??1?$_Tree_val@V?$_Tmap_traits@KVioHashString@@U?$less@K@std@@V?$allocator@U?$pair@$$CBKVioHashString@@@std@@@3@$0A@@std@@@std@@QAE@XZ ; std::_Tree_val<std::_Tmap_traits<unsigned long,ioHashString,std::less<unsigned long>,std::allocator<std::pair<unsigned long const ,ioHashString> >,0> >::~_Tree_val<std::_Tmap_traits<unsigned long,ioHashString,std::less<unsigned long>,std::allocator<std::pair<unsigned long const ,ioHashString> >,0> >
__ehhandler$??1?$_Tree@V?$_Tmap_traits@KVioHashString@@U?$less@K@std@@V?$allocator@U?$pair@$$CBKVioHashString@@@std@@@3@$0A@@std@@@std@@QAE@XZ:
  00008	8b 54 24 08	 mov	 edx, DWORD PTR [esp+8]
  0000c	8d 42 0c	 lea	 eax, DWORD PTR [edx+12]
  0000f	8b 4a e8	 mov	 ecx, DWORD PTR [edx-24]
  00012	33 c8		 xor	 ecx, eax
  00014	e8 00 00 00 00	 call	 @__security_check_cookie@4
  00019	b8 00 00 00 00	 mov	 eax, OFFSET __ehfuncinfo$??1?$_Tree@V?$_Tmap_traits@KVioHashString@@U?$less@K@std@@V?$allocator@U?$pair@$$CBKVioHashString@@@std@@@3@$0A@@std@@@std@@QAE@XZ
  0001e	e9 00 00 00 00	 jmp	 ___CxxFrameHandler3
text$x	ENDS
??1?$_Tree@V?$_Tmap_traits@KVioHashString@@U?$less@K@std@@V?$allocator@U?$pair@$$CBKVioHashString@@@std@@@3@$0A@@std@@@std@@QAE@XZ ENDP ; std::_Tree<std::_Tmap_traits<unsigned long,ioHashString,std::less<unsigned long>,std::allocator<std::pair<unsigned long const ,ioHashString> >,0> >::~_Tree<std::_Tmap_traits<unsigned long,ioHashString,std::less<unsigned long>,std::allocator<std::pair<unsigned long const ,ioHashString> >,0> >
PUBLIC	??1?$map@KVioHashString@@U?$less@K@std@@V?$allocator@U?$pair@$$CBKVioHashString@@@std@@@3@@std@@QAE@XZ ; std::map<unsigned long,ioHashString,std::less<unsigned long>,std::allocator<std::pair<unsigned long const ,ioHashString> > >::~map<unsigned long,ioHashString,std::less<unsigned long>,std::allocator<std::pair<unsigned long const ,ioHashString> > >
; Function compile flags: /Ogsp
;	COMDAT ??1?$map@KVioHashString@@U?$less@K@std@@V?$allocator@U?$pair@$$CBKVioHashString@@@std@@@3@@std@@QAE@XZ
_TEXT	SEGMENT
??1?$map@KVioHashString@@U?$less@K@std@@V?$allocator@U?$pair@$$CBKVioHashString@@@std@@@3@@std@@QAE@XZ PROC ; std::map<unsigned long,ioHashString,std::less<unsigned long>,std::allocator<std::pair<unsigned long const ,ioHashString> > >::~map<unsigned long,ioHashString,std::less<unsigned long>,std::allocator<std::pair<unsigned long const ,ioHashString> > >, COMDAT
; _this$ = ecx
  00000	e9 00 00 00 00	 jmp	 ??1?$_Tree@V?$_Tmap_traits@KVioHashString@@U?$less@K@std@@V?$allocator@U?$pair@$$CBKVioHashString@@@std@@@3@$0A@@std@@@std@@QAE@XZ ; std::_Tree<std::_Tmap_traits<unsigned long,ioHashString,std::less<unsigned long>,std::allocator<std::pair<unsigned long const ,ioHashString> >,0> >::~_Tree<std::_Tmap_traits<unsigned long,ioHashString,std::less<unsigned long>,std::allocator<std::pair<unsigned long const ,ioHashString> >,0> >
??1?$map@KVioHashString@@U?$less@K@std@@V?$allocator@U?$pair@$$CBKVioHashString@@@std@@@3@@std@@QAE@XZ ENDP ; std::map<unsigned long,ioHashString,std::less<unsigned long>,std::allocator<std::pair<unsigned long const ,ioHashString> > >::~map<unsigned long,ioHashString,std::less<unsigned long>,std::allocator<std::pair<unsigned long const ,ioHashString> > >
_TEXT	ENDS
PUBLIC	??_7ioSelectShutDownAnnouncer@@6B@		; ioSelectShutDownAnnouncer::`vftable'
PUBLIC	??1ioSelectShutDownAnnouncer@@UAE@XZ		; ioSelectShutDownAnnouncer::~ioSelectShutDownAnnouncer
PUBLIC	??_R4ioSelectShutDownAnnouncer@@6B@		; ioSelectShutDownAnnouncer::`RTTI Complete Object Locator'
PUBLIC	??_R0?AVioSelectShutDownAnnouncer@@@8		; ioSelectShutDownAnnouncer `RTTI Type Descriptor'
PUBLIC	??_R3ioSelectShutDownAnnouncer@@8		; ioSelectShutDownAnnouncer::`RTTI Class Hierarchy Descriptor'
PUBLIC	??_R2ioSelectShutDownAnnouncer@@8		; ioSelectShutDownAnnouncer::`RTTI Base Class Array'
PUBLIC	??_R1A@?0A@EA@ioSelectShutDownAnnouncer@@8	; ioSelectShutDownAnnouncer::`RTTI Base Class Descriptor at (0,-1,0,64)'
EXTRN	??_EioSelectShutDownAnnouncer@@UAEPAXI@Z:PROC	; ioSelectShutDownAnnouncer::`vector deleting destructor'
;	COMDAT ??_R1A@?0A@EA@ioSelectShutDownAnnouncer@@8
; File d:\lost saga for developer\youtube\tutorial\source\src\lsclient\ioselectshutdownannouncer.cpp
rdata$r	SEGMENT
??_R1A@?0A@EA@ioSelectShutDownAnnouncer@@8 DD FLAT:??_R0?AVioSelectShutDownAnnouncer@@@8 ; ioSelectShutDownAnnouncer::`RTTI Base Class Descriptor at (0,-1,0,64)'
	DD	00H
	DD	00H
	DD	0ffffffffH
	DD	00H
	DD	040H
	DD	FLAT:??_R3ioSelectShutDownAnnouncer@@8
rdata$r	ENDS
;	COMDAT ??_R2ioSelectShutDownAnnouncer@@8
rdata$r	SEGMENT
??_R2ioSelectShutDownAnnouncer@@8 DD FLAT:??_R1A@?0A@EA@ioSelectShutDownAnnouncer@@8 ; ioSelectShutDownAnnouncer::`RTTI Base Class Array'
rdata$r	ENDS
;	COMDAT ??_R3ioSelectShutDownAnnouncer@@8
rdata$r	SEGMENT
??_R3ioSelectShutDownAnnouncer@@8 DD 00H		; ioSelectShutDownAnnouncer::`RTTI Class Hierarchy Descriptor'
	DD	00H
	DD	01H
	DD	FLAT:??_R2ioSelectShutDownAnnouncer@@8
rdata$r	ENDS
;	COMDAT ??_R0?AVioSelectShutDownAnnouncer@@@8
_DATA	SEGMENT
??_R0?AVioSelectShutDownAnnouncer@@@8 DD FLAT:??_7type_info@@6B@ ; ioSelectShutDownAnnouncer `RTTI Type Descriptor'
	DD	00H
	DB	'.?AVioSelectShutDownAnnouncer@@', 00H
_DATA	ENDS
;	COMDAT ??_R4ioSelectShutDownAnnouncer@@6B@
rdata$r	SEGMENT
??_R4ioSelectShutDownAnnouncer@@6B@ DD 00H		; ioSelectShutDownAnnouncer::`RTTI Complete Object Locator'
	DD	00H
	DD	00H
	DD	FLAT:??_R0?AVioSelectShutDownAnnouncer@@@8
	DD	FLAT:??_R3ioSelectShutDownAnnouncer@@8
rdata$r	ENDS
;	COMDAT ??_7ioSelectShutDownAnnouncer@@6B@
CONST	SEGMENT
??_7ioSelectShutDownAnnouncer@@6B@ DD FLAT:??_R4ioSelectShutDownAnnouncer@@6B@ ; ioSelectShutDownAnnouncer::`vftable'
	DD	FLAT:??_EioSelectShutDownAnnouncer@@UAEPAXI@Z
CONST	ENDS
;	COMDAT xdata$x
xdata$x	SEGMENT
__unwindtable$??1ioSelectShutDownAnnouncer@@UAE@XZ DD 0ffffffffH
	DD	FLAT:__unwindfunclet$??1ioSelectShutDownAnnouncer@@UAE@XZ$0
__ehfuncinfo$??1ioSelectShutDownAnnouncer@@UAE@XZ DD 019930522H
	DD	01H
	DD	FLAT:__unwindtable$??1ioSelectShutDownAnnouncer@@UAE@XZ
	DD	2 DUP(00H)
	DD	2 DUP(00H)
	DD	00H
	DD	01H
; Function compile flags: /Ogsp
xdata$x	ENDS
;	COMDAT ??1ioSelectShutDownAnnouncer@@UAE@XZ
_TEXT	SEGMENT
_this$ = -16						; size = 4
__$EHRec$ = -12						; size = 12
??1ioSelectShutDownAnnouncer@@UAE@XZ PROC		; ioSelectShutDownAnnouncer::~ioSelectShutDownAnnouncer, COMDAT
; _this$ = ecx

; 21   : {

  00000	6a 04		 push	 4
  00002	b8 00 00 00 00	 mov	 eax, __ehhandler$??1ioSelectShutDownAnnouncer@@UAE@XZ
  00007	e8 00 00 00 00	 call	 __EH_prolog3
  0000c	89 4d f0	 mov	 DWORD PTR _this$[ebp], ecx
  0000f	c7 01 00 00 00
	00		 mov	 DWORD PTR [ecx], OFFSET ??_7ioSelectShutDownAnnouncer@@6B@
  00015	83 65 fc 00	 and	 DWORD PTR __$EHRec$[ebp+8], 0

; 22   : 	m_mAnnounceInfo.clear();

  00019	8d 71 04	 lea	 esi, DWORD PTR [ecx+4]
  0001c	8b ce		 mov	 ecx, esi
  0001e	e8 00 00 00 00	 call	 ?clear@?$_Tree@V?$_Tmap_traits@KVioHashString@@U?$less@K@std@@V?$allocator@U?$pair@$$CBKVioHashString@@@std@@@3@$0A@@std@@@std@@QAEXXZ ; std::_Tree<std::_Tmap_traits<unsigned long,ioHashString,std::less<unsigned long>,std::allocator<std::pair<unsigned long const ,ioHashString> >,0> >::clear

; 23   : }

  00023	83 4d fc ff	 or	 DWORD PTR __$EHRec$[ebp+8], -1
  00027	8b ce		 mov	 ecx, esi
  00029	e8 00 00 00 00	 call	 ??1?$_Tree@V?$_Tmap_traits@KVioHashString@@U?$less@K@std@@V?$allocator@U?$pair@$$CBKVioHashString@@@std@@@3@$0A@@std@@@std@@QAE@XZ ; std::_Tree<std::_Tmap_traits<unsigned long,ioHashString,std::less<unsigned long>,std::allocator<std::pair<unsigned long const ,ioHashString> >,0> >::~_Tree<std::_Tmap_traits<unsigned long,ioHashString,std::less<unsigned long>,std::allocator<std::pair<unsigned long const ,ioHashString> >,0> >
  0002e	e8 00 00 00 00	 call	 __EH_epilog3
  00033	c3		 ret	 0
_TEXT	ENDS
;	COMDAT text$x
text$x	SEGMENT
__unwindfunclet$??1ioSelectShutDownAnnouncer@@UAE@XZ$0:
  00000	8b 4d f0	 mov	 ecx, DWORD PTR _this$[ebp]
  00003	83 c1 04	 add	 ecx, 4
  00006	e9 00 00 00 00	 jmp	 ??1?$map@KVioHashString@@U?$less@K@std@@V?$allocator@U?$pair@$$CBKVioHashString@@@std@@@3@@std@@QAE@XZ
__ehhandler$??1ioSelectShutDownAnnouncer@@UAE@XZ:
  0000b	8b 54 24 08	 mov	 edx, DWORD PTR [esp+8]
  0000f	8d 42 0c	 lea	 eax, DWORD PTR [edx+12]
  00012	8b 4a ec	 mov	 ecx, DWORD PTR [edx-20]
  00015	33 c8		 xor	 ecx, eax
  00017	e8 00 00 00 00	 call	 @__security_check_cookie@4
  0001c	b8 00 00 00 00	 mov	 eax, OFFSET __ehfuncinfo$??1ioSelectShutDownAnnouncer@@UAE@XZ
  00021	e9 00 00 00 00	 jmp	 ___CxxFrameHandler3
text$x	ENDS
??1ioSelectShutDownAnnouncer@@UAE@XZ ENDP		; ioSelectShutDownAnnouncer::~ioSelectShutDownAnnouncer
PUBLIC	??0?$map@KVioHashString@@U?$less@K@std@@V?$allocator@U?$pair@$$CBKVioHashString@@@std@@@3@@std@@QAE@XZ ; std::map<unsigned long,ioHashString,std::less<unsigned long>,std::allocator<std::pair<unsigned long const ,ioHashString> > >::map<unsigned long,ioHashString,std::less<unsigned long>,std::allocator<std::pair<unsigned long const ,ioHashString> > >
; Function compile flags: /Ogsp
; File c:\program files (x86)\microsoft visual studio 10.0\vc\include\map
;	COMDAT ??0?$map@KVioHashString@@U?$less@K@std@@V?$allocator@U?$pair@$$CBKVioHashString@@@std@@@3@@std@@QAE@XZ
_TEXT	SEGMENT
$T511107 = -8						; size = 4
$T511109 = -8						; size = 4
$T511096 = -1						; size = 1
??0?$map@KVioHashString@@U?$less@K@std@@V?$allocator@U?$pair@$$CBKVioHashString@@@std@@@3@@std@@QAE@XZ PROC ; std::map<unsigned long,ioHashString,std::less<unsigned long>,std::allocator<std::pair<unsigned long const ,ioHashString> > >::map<unsigned long,ioHashString,std::less<unsigned long>,std::allocator<std::pair<unsigned long const ,ioHashString> > >, COMDAT
; _this$ = ecx

; 106  : 		{	// construct empty map from defaults

  00000	55		 push	 ebp
  00001	8b ec		 mov	 ebp, esp
  00003	51		 push	 ecx
  00004	51		 push	 ecx
  00005	56		 push	 esi
  00006	51		 push	 ecx
  00007	89 65 f8	 mov	 DWORD PTR $T511109[ebp], esp
  0000a	8d 45 ff	 lea	 eax, DWORD PTR $T511096[ebp]
  0000d	89 65 f8	 mov	 DWORD PTR $T511107[ebp], esp
  00010	50		 push	 eax
  00011	8b f1		 mov	 esi, ecx
  00013	e8 00 00 00 00	 call	 ??0?$_Tree_val@V?$_Tmap_traits@KVioHashString@@U?$less@K@std@@V?$allocator@U?$pair@$$CBKVioHashString@@@std@@@3@$0A@@std@@@std@@QAE@ABU?$less@K@1@V?$allocator@U?$pair@$$CBKVioHashString@@@std@@@1@@Z ; std::_Tree_val<std::_Tmap_traits<unsigned long,ioHashString,std::less<unsigned long>,std::allocator<std::pair<unsigned long const ,ioHashString> >,0> >::_Tree_val<std::_Tmap_traits<unsigned long,ioHashString,std::less<unsigned long>,std::allocator<std::pair<unsigned long const ,ioHashString> >,0> >

; 107  : 		}

  00018	8b c6		 mov	 eax, esi
  0001a	5e		 pop	 esi
  0001b	c9		 leave
  0001c	c3		 ret	 0
??0?$map@KVioHashString@@U?$less@K@std@@V?$allocator@U?$pair@$$CBKVioHashString@@@std@@@3@@std@@QAE@XZ ENDP ; std::map<unsigned long,ioHashString,std::less<unsigned long>,std::allocator<std::pair<unsigned long const ,ioHashString> > >::map<unsigned long,ioHashString,std::less<unsigned long>,std::allocator<std::pair<unsigned long const ,ioHashString> > >
_TEXT	ENDS
PUBLIC	??0ioSelectShutDownAnnouncer@@QAE@XZ		; ioSelectShutDownAnnouncer::ioSelectShutDownAnnouncer
; Function compile flags: /Ogsp
; File d:\lost saga for developer\youtube\tutorial\source\src\lsclient\ioselectshutdownannouncer.cpp
;	COMDAT ??0ioSelectShutDownAnnouncer@@QAE@XZ
_TEXT	SEGMENT
$T511129 = -8						; size = 4
$T511143 = -8						; size = 4
$T511138 = -1						; size = 1
??0ioSelectShutDownAnnouncer@@QAE@XZ PROC		; ioSelectShutDownAnnouncer::ioSelectShutDownAnnouncer, COMDAT
; _this$ = ecx

; 6    : {

  00000	55		 push	 ebp
  00001	8b ec		 mov	 ebp, esp
  00003	51		 push	 ecx
  00004	51		 push	 ecx
  00005	56		 push	 esi
  00006	8b f1		 mov	 esi, ecx
  00008	8d 4e 04	 lea	 ecx, DWORD PTR [esi+4]
  0000b	51		 push	 ecx
  0000c	89 65 f8	 mov	 DWORD PTR $T511143[ebp], esp
  0000f	8d 45 ff	 lea	 eax, DWORD PTR $T511138[ebp]
  00012	89 65 f8	 mov	 DWORD PTR $T511129[ebp], esp
  00015	50		 push	 eax
  00016	c7 06 00 00 00
	00		 mov	 DWORD PTR [esi], OFFSET ??_7ioSelectShutDownAnnouncer@@6B@
  0001c	e8 00 00 00 00	 call	 ??0?$_Tree_val@V?$_Tmap_traits@KVioHashString@@U?$less@K@std@@V?$allocator@U?$pair@$$CBKVioHashString@@@std@@@3@$0A@@std@@@std@@QAE@ABU?$less@K@1@V?$allocator@U?$pair@$$CBKVioHashString@@@std@@@1@@Z ; std::_Tree_val<std::_Tmap_traits<unsigned long,ioHashString,std::less<unsigned long>,std::allocator<std::pair<unsigned long const ,ioHashString> >,0> >::_Tree_val<std::_Tmap_traits<unsigned long,ioHashString,std::less<unsigned long>,std::allocator<std::pair<unsigned long const ,ioHashString> >,0> >

; 7    : 	m_iShutDownYear  = 0;

  00021	33 c0		 xor	 eax, eax
  00023	89 46 14	 mov	 DWORD PTR [esi+20], eax

; 8    : 	m_iShutDownMonth = 0;

  00026	89 46 18	 mov	 DWORD PTR [esi+24], eax

; 9    : 	m_iShutDownDay   = 0;

  00029	89 46 1c	 mov	 DWORD PTR [esi+28], eax

; 10   : 	m_iShutDownHour  = 0;

  0002c	89 46 20	 mov	 DWORD PTR [esi+32], eax

; 11   : 	m_iShutDownMinute= 0;

  0002f	89 46 24	 mov	 DWORD PTR [esi+36], eax

; 12   : 	m_bAnnounce       = false;

  00032	88 46 28	 mov	 BYTE PTR [esi+40], al

; 13   : 	m_dwRemainMinutes = 0;

  00035	89 46 2c	 mov	 DWORD PTR [esi+44], eax

; 14   : 	m_dwCheckTime     = 0;

  00038	89 46 30	 mov	 DWORD PTR [esi+48], eax

; 15   : 	m_dwAnnounceRemainMinutes = 0;

  0003b	89 46 34	 mov	 DWORD PTR [esi+52], eax

; 16   : 	m_bProcess        = false;

  0003e	88 46 38	 mov	 BYTE PTR [esi+56], al

; 17   : }

  00041	8b c6		 mov	 eax, esi
  00043	5e		 pop	 esi
  00044	c9		 leave
  00045	c3		 ret	 0
??0ioSelectShutDownAnnouncer@@QAE@XZ ENDP		; ioSelectShutDownAnnouncer::ioSelectShutDownAnnouncer
; Function compile flags: /Ogsp
_TEXT	ENDS
;	COMDAT ??_GioSelectShutDownAnnouncer@@UAEPAXI@Z
_TEXT	SEGMENT
___flags$ = 8						; size = 4
??_GioSelectShutDownAnnouncer@@UAEPAXI@Z PROC		; ioSelectShutDownAnnouncer::`scalar deleting destructor', COMDAT
; _this$ = ecx
  00000	55		 push	 ebp
  00001	8b ec		 mov	 ebp, esp
  00003	56		 push	 esi
  00004	8b f1		 mov	 esi, ecx
  00006	e8 00 00 00 00	 call	 ??1ioSelectShutDownAnnouncer@@UAE@XZ ; ioSelectShutDownAnnouncer::~ioSelectShutDownAnnouncer
  0000b	f6 45 08 01	 test	 BYTE PTR ___flags$[ebp], 1
  0000f	74 07		 je	 SHORT $LN1@scalar@3
  00011	56		 push	 esi
  00012	e8 00 00 00 00	 call	 ??3@YAXPAX@Z		; operator delete
  00017	59		 pop	 ecx
$LN1@scalar@3:
  00018	8b c6		 mov	 eax, esi
  0001a	5e		 pop	 esi
  0001b	5d		 pop	 ebp
  0001c	c2 04 00	 ret	 4
??_GioSelectShutDownAnnouncer@@UAEPAXI@Z ENDP		; ioSelectShutDownAnnouncer::`scalar deleting destructor'
_TEXT	ENDS
END
