; Listing generated by Microsoft (R) Optimizing Compiler Version 16.00.30319.01 

	TITLE	D:\Lost Saga For Developer\Youtube\Tutorial\Source\src\LSClient\ioShopItemExtraInfoManager.cpp
	.686P
	.XMM
	include listing.inc
	.model	flat

INCLUDELIB MSVCRT
INCLUDELIB OLDNAMES

PUBLIC	?ms_Singleton@?$Singleton@VioShopItemExtraInfoManager@@@@1PAVioShopItemExtraInfoManager@@A ; Singleton<ioShopItemExtraInfoManager>::ms_Singleton
;	COMDAT ?ms_Singleton@?$Singleton@VioShopItemExtraInfoManager@@@@1PAVioShopItemExtraInfoManager@@A
_BSS	SEGMENT
?ms_Singleton@?$Singleton@VioShopItemExtraInfoManager@@@@1PAVioShopItemExtraInfoManager@@A DD 01H DUP (?) ; Singleton<ioShopItemExtraInfoManager>::ms_Singleton
_BSS	ENDS
PUBLIC	??1ioINILoader_e@@QAE@XZ			; ioINILoader_e::~ioINILoader_e
EXTRN	__imp_??1ioINILoader@@QAE@XZ:PROC
; Function compile flags: /Ogsp
;	COMDAT ??1ioINILoader_e@@QAE@XZ
_TEXT	SEGMENT
??1ioINILoader_e@@QAE@XZ PROC				; ioINILoader_e::~ioINILoader_e, COMDAT
; _this$ = ecx
  00000	ff 25 00 00 00
	00		 jmp	 DWORD PTR __imp_??1ioINILoader@@QAE@XZ
??1ioINILoader_e@@QAE@XZ ENDP				; ioINILoader_e::~ioINILoader_e
_TEXT	ENDS
PUBLIC	??_7bad_alloc@std@@6B@				; std::bad_alloc::`vftable'
PUBLIC	??0bad_alloc@std@@QAE@PBD@Z			; std::bad_alloc::bad_alloc
PUBLIC	??_R4bad_alloc@std@@6B@				; std::bad_alloc::`RTTI Complete Object Locator'
PUBLIC	??_R0?AVbad_alloc@std@@@8			; std::bad_alloc `RTTI Type Descriptor'
PUBLIC	??_R3bad_alloc@std@@8				; std::bad_alloc::`RTTI Class Hierarchy Descriptor'
PUBLIC	??_R2bad_alloc@std@@8				; std::bad_alloc::`RTTI Base Class Array'
PUBLIC	??_R1A@?0A@EA@bad_alloc@std@@8			; std::bad_alloc::`RTTI Base Class Descriptor at (0,-1,0,64)'
PUBLIC	??_R1A@?0A@EA@exception@std@@8			; std::exception::`RTTI Base Class Descriptor at (0,-1,0,64)'
PUBLIC	??_R0?AVexception@std@@@8			; std::exception `RTTI Type Descriptor'
PUBLIC	??_R3exception@std@@8				; std::exception::`RTTI Class Hierarchy Descriptor'
PUBLIC	??_R2exception@std@@8				; std::exception::`RTTI Base Class Array'
EXTRN	__imp_??0exception@std@@QAE@ABQBD@Z:PROC
EXTRN	??_7type_info@@6B@:QWORD			; type_info::`vftable'
EXTRN	??_Ebad_alloc@std@@UAEPAXI@Z:PROC		; std::bad_alloc::`vector deleting destructor'
EXTRN	?what@exception@std@@UBEPBDXZ:PROC		; std::exception::what
;	COMDAT ??_R2exception@std@@8
; File c:\program files (x86)\microsoft visual studio 10.0\vc\include\exception
rdata$r	SEGMENT
??_R2exception@std@@8 DD FLAT:??_R1A@?0A@EA@exception@std@@8 ; std::exception::`RTTI Base Class Array'
rdata$r	ENDS
;	COMDAT ??_R3exception@std@@8
rdata$r	SEGMENT
??_R3exception@std@@8 DD 00H				; std::exception::`RTTI Class Hierarchy Descriptor'
	DD	00H
	DD	01H
	DD	FLAT:??_R2exception@std@@8
rdata$r	ENDS
;	COMDAT ??_R0?AVexception@std@@@8
_DATA	SEGMENT
??_R0?AVexception@std@@@8 DD FLAT:??_7type_info@@6B@	; std::exception `RTTI Type Descriptor'
	DD	00H
	DB	'.?AVexception@std@@', 00H
_DATA	ENDS
;	COMDAT ??_R1A@?0A@EA@exception@std@@8
rdata$r	SEGMENT
??_R1A@?0A@EA@exception@std@@8 DD FLAT:??_R0?AVexception@std@@@8 ; std::exception::`RTTI Base Class Descriptor at (0,-1,0,64)'
	DD	00H
	DD	00H
	DD	0ffffffffH
	DD	00H
	DD	040H
	DD	FLAT:??_R3exception@std@@8
rdata$r	ENDS
;	COMDAT ??_R1A@?0A@EA@bad_alloc@std@@8
rdata$r	SEGMENT
??_R1A@?0A@EA@bad_alloc@std@@8 DD FLAT:??_R0?AVbad_alloc@std@@@8 ; std::bad_alloc::`RTTI Base Class Descriptor at (0,-1,0,64)'
	DD	01H
	DD	00H
	DD	0ffffffffH
	DD	00H
	DD	040H
	DD	FLAT:??_R3bad_alloc@std@@8
rdata$r	ENDS
;	COMDAT ??_R2bad_alloc@std@@8
rdata$r	SEGMENT
??_R2bad_alloc@std@@8 DD FLAT:??_R1A@?0A@EA@bad_alloc@std@@8 ; std::bad_alloc::`RTTI Base Class Array'
	DD	FLAT:??_R1A@?0A@EA@exception@std@@8
rdata$r	ENDS
;	COMDAT ??_R3bad_alloc@std@@8
rdata$r	SEGMENT
??_R3bad_alloc@std@@8 DD 00H				; std::bad_alloc::`RTTI Class Hierarchy Descriptor'
	DD	00H
	DD	02H
	DD	FLAT:??_R2bad_alloc@std@@8
rdata$r	ENDS
;	COMDAT ??_R0?AVbad_alloc@std@@@8
_DATA	SEGMENT
??_R0?AVbad_alloc@std@@@8 DD FLAT:??_7type_info@@6B@	; std::bad_alloc `RTTI Type Descriptor'
	DD	00H
	DB	'.?AVbad_alloc@std@@', 00H
_DATA	ENDS
;	COMDAT ??_R4bad_alloc@std@@6B@
rdata$r	SEGMENT
??_R4bad_alloc@std@@6B@ DD 00H				; std::bad_alloc::`RTTI Complete Object Locator'
	DD	00H
	DD	00H
	DD	FLAT:??_R0?AVbad_alloc@std@@@8
	DD	FLAT:??_R3bad_alloc@std@@8
rdata$r	ENDS
;	COMDAT ??_7bad_alloc@std@@6B@
CONST	SEGMENT
??_7bad_alloc@std@@6B@ DD FLAT:??_R4bad_alloc@std@@6B@	; std::bad_alloc::`vftable'
	DD	FLAT:??_Ebad_alloc@std@@UAEPAXI@Z
	DD	FLAT:?what@exception@std@@UBEPBDXZ
; Function compile flags: /Ogsp
CONST	ENDS
;	COMDAT ??0bad_alloc@std@@QAE@PBD@Z
_TEXT	SEGMENT
__Message$ = 8						; size = 4
??0bad_alloc@std@@QAE@PBD@Z PROC			; std::bad_alloc::bad_alloc, COMDAT
; _this$ = ecx

; 345  : 		{	// construct from message string

  00000	55		 push	 ebp
  00001	8b ec		 mov	 ebp, esp
  00003	56		 push	 esi
  00004	8d 45 08	 lea	 eax, DWORD PTR __Message$[ebp]
  00007	50		 push	 eax
  00008	8b f1		 mov	 esi, ecx
  0000a	ff 15 00 00 00
	00		 call	 DWORD PTR __imp_??0exception@std@@QAE@ABQBD@Z
  00010	c7 06 00 00 00
	00		 mov	 DWORD PTR [esi], OFFSET ??_7bad_alloc@std@@6B@

; 346  : 		}

  00016	8b c6		 mov	 eax, esi
  00018	5e		 pop	 esi
  00019	5d		 pop	 ebp
  0001a	c2 04 00	 ret	 4
??0bad_alloc@std@@QAE@PBD@Z ENDP			; std::bad_alloc::bad_alloc
_TEXT	ENDS
PUBLIC	??1bad_alloc@std@@UAE@XZ			; std::bad_alloc::~bad_alloc
EXTRN	__imp_??1exception@std@@UAE@XZ:PROC
; Function compile flags: /Ogsp
;	COMDAT ??1bad_alloc@std@@UAE@XZ
_TEXT	SEGMENT
??1bad_alloc@std@@UAE@XZ PROC				; std::bad_alloc::~bad_alloc, COMDAT
; _this$ = ecx

; 354  : 		{	// destroy the object

  00000	c7 01 00 00 00
	00		 mov	 DWORD PTR [ecx], OFFSET ??_7bad_alloc@std@@6B@

; 355  : 		}

  00006	ff 25 00 00 00
	00		 jmp	 DWORD PTR __imp_??1exception@std@@UAE@XZ
??1bad_alloc@std@@UAE@XZ ENDP				; std::bad_alloc::~bad_alloc
_TEXT	ENDS
EXTRN	??3@YAXPAX@Z:PROC				; operator delete
; Function compile flags: /Ogsp
;	COMDAT ??_Gbad_alloc@std@@UAEPAXI@Z
_TEXT	SEGMENT
___flags$ = 8						; size = 4
??_Gbad_alloc@std@@UAEPAXI@Z PROC			; std::bad_alloc::`scalar deleting destructor', COMDAT
; _this$ = ecx
  00000	55		 push	 ebp
  00001	8b ec		 mov	 ebp, esp
  00003	56		 push	 esi
  00004	8b f1		 mov	 esi, ecx
  00006	c7 06 00 00 00
	00		 mov	 DWORD PTR [esi], OFFSET ??_7bad_alloc@std@@6B@
  0000c	ff 15 00 00 00
	00		 call	 DWORD PTR __imp_??1exception@std@@UAE@XZ
  00012	f6 45 08 01	 test	 BYTE PTR ___flags$[ebp], 1
  00016	74 07		 je	 SHORT $LN1@scalar
  00018	56		 push	 esi
  00019	e8 00 00 00 00	 call	 ??3@YAXPAX@Z		; operator delete
  0001e	59		 pop	 ecx
$LN1@scalar:
  0001f	8b c6		 mov	 eax, esi
  00021	5e		 pop	 esi
  00022	5d		 pop	 ebp
  00023	c2 04 00	 ret	 4
??_Gbad_alloc@std@@UAEPAXI@Z ENDP			; std::bad_alloc::`scalar deleting destructor'
_TEXT	ENDS
PUBLIC	??2@YAPAXIPAX@Z					; operator new
; Function compile flags: /Ogsp
; File c:\program files (x86)\microsoft visual studio 10.0\vc\include\new
;	COMDAT ??2@YAPAXIPAX@Z
_TEXT	SEGMENT
___formal$ = 8						; size = 4
__Where$ = 12						; size = 4
??2@YAPAXIPAX@Z PROC					; operator new, COMDAT

; 56   : 	{	// construct array with placement at _Where

  00000	55		 push	 ebp
  00001	8b ec		 mov	 ebp, esp

; 57   : 	return (_Where);

  00003	8b 45 0c	 mov	 eax, DWORD PTR __Where$[ebp]

; 58   : 	}

  00006	5d		 pop	 ebp
  00007	c3		 ret	 0
??2@YAPAXIPAX@Z ENDP					; operator new
_TEXT	ENDS
PUBLIC	??3@YAXPAX0@Z					; operator delete
; Function compile flags: /Ogsp
;	COMDAT ??3@YAXPAX0@Z
_TEXT	SEGMENT
___formal$ = 8						; size = 4
___formal$ = 12						; size = 4
??3@YAXPAX0@Z PROC					; operator delete, COMDAT

; 62   : 	}

  00000	c3		 ret	 0
??3@YAXPAX0@Z ENDP					; operator delete
_TEXT	ENDS
PUBLIC	?_Adopt@_Iterator_base0@std@@QAEXPBX@Z		; std::_Iterator_base0::_Adopt
; Function compile flags: /Ogsp
; File c:\program files (x86)\microsoft visual studio 10.0\vc\include\xutility
;	COMDAT ?_Adopt@_Iterator_base0@std@@QAEXPBX@Z
_TEXT	SEGMENT
___formal$ = 8						; size = 4
?_Adopt@_Iterator_base0@std@@QAEXPBX@Z PROC		; std::_Iterator_base0::_Adopt, COMDAT
; _this$ = ecx

; 49   : 		}

  00000	c2 04 00	 ret	 4
?_Adopt@_Iterator_base0@std@@QAEXPBX@Z ENDP		; std::_Iterator_base0::_Adopt
_TEXT	ENDS
PUBLIC	??0tagShopItemMovieInfo@ioShopItemExtraInfoManager@@QAE@XZ ; ioShopItemExtraInfoManager::tagShopItemMovieInfo::tagShopItemMovieInfo
EXTRN	__imp_??1ioHashString@@QAE@XZ:PROC
EXTRN	__imp_??0ioHashString@@QAE@XZ:PROC
EXTRN	___CxxFrameHandler3:PROC
EXTRN	@__security_check_cookie@4:PROC
EXTRN	__EH_epilog3:PROC
EXTRN	__EH_prolog3:PROC
;	COMDAT xdata$x
xdata$x	SEGMENT
__unwindtable$??0tagShopItemMovieInfo@ioShopItemExtraInfoManager@@QAE@XZ DD 0ffffffffH
	DD	FLAT:__unwindfunclet$??0tagShopItemMovieInfo@ioShopItemExtraInfoManager@@QAE@XZ$0
	DD	00H
	DD	FLAT:__unwindfunclet$??0tagShopItemMovieInfo@ioShopItemExtraInfoManager@@QAE@XZ$1
__ehfuncinfo$??0tagShopItemMovieInfo@ioShopItemExtraInfoManager@@QAE@XZ DD 019930522H
	DD	02H
	DD	FLAT:__unwindtable$??0tagShopItemMovieInfo@ioShopItemExtraInfoManager@@QAE@XZ
	DD	2 DUP(00H)
	DD	2 DUP(00H)
	DD	00H
	DD	01H
; Function compile flags: /Ogsp
xdata$x	ENDS
;	COMDAT ??0tagShopItemMovieInfo@ioShopItemExtraInfoManager@@QAE@XZ
_TEXT	SEGMENT
_this$ = -16						; size = 4
__$EHRec$ = -12						; size = 12
??0tagShopItemMovieInfo@ioShopItemExtraInfoManager@@QAE@XZ PROC ; ioShopItemExtraInfoManager::tagShopItemMovieInfo::tagShopItemMovieInfo, COMDAT
; _this$ = ecx
  00000	6a 04		 push	 4
  00002	b8 00 00 00 00	 mov	 eax, __ehhandler$??0tagShopItemMovieInfo@ioShopItemExtraInfoManager@@QAE@XZ
  00007	e8 00 00 00 00	 call	 __EH_prolog3
  0000c	8b f9		 mov	 edi, ecx
  0000e	89 7d f0	 mov	 DWORD PTR _this$[ebp], edi
  00011	8b 35 00 00 00
	00		 mov	 esi, DWORD PTR __imp_??0ioHashString@@QAE@XZ
  00017	ff d6		 call	 esi
  00019	83 65 fc 00	 and	 DWORD PTR __$EHRec$[ebp+8], 0
  0001d	8d 4f 10	 lea	 ecx, DWORD PTR [edi+16]
  00020	ff d6		 call	 esi
  00022	8d 4f 20	 lea	 ecx, DWORD PTR [edi+32]
  00025	c6 45 fc 01	 mov	 BYTE PTR __$EHRec$[ebp+8], 1
  00029	ff d6		 call	 esi
  0002b	8b c7		 mov	 eax, edi
  0002d	e8 00 00 00 00	 call	 __EH_epilog3
  00032	c3		 ret	 0
_TEXT	ENDS
;	COMDAT text$x
text$x	SEGMENT
__unwindfunclet$??0tagShopItemMovieInfo@ioShopItemExtraInfoManager@@QAE@XZ$0:
  00000	8b 4d f0	 mov	 ecx, DWORD PTR _this$[ebp]
  00003	ff 25 00 00 00
	00		 jmp	 DWORD PTR __imp_??1ioHashString@@QAE@XZ
__unwindfunclet$??0tagShopItemMovieInfo@ioShopItemExtraInfoManager@@QAE@XZ$1:
  00009	8b 4d f0	 mov	 ecx, DWORD PTR _this$[ebp]
  0000c	83 c1 10	 add	 ecx, 16			; 00000010H
  0000f	ff 25 00 00 00
	00		 jmp	 DWORD PTR __imp_??1ioHashString@@QAE@XZ
__ehhandler$??0tagShopItemMovieInfo@ioShopItemExtraInfoManager@@QAE@XZ:
  00015	8b 54 24 08	 mov	 edx, DWORD PTR [esp+8]
  00019	8d 42 0c	 lea	 eax, DWORD PTR [edx+12]
  0001c	8b 4a ec	 mov	 ecx, DWORD PTR [edx-20]
  0001f	33 c8		 xor	 ecx, eax
  00021	e8 00 00 00 00	 call	 @__security_check_cookie@4
  00026	b8 00 00 00 00	 mov	 eax, OFFSET __ehfuncinfo$??0tagShopItemMovieInfo@ioShopItemExtraInfoManager@@QAE@XZ
  0002b	e9 00 00 00 00	 jmp	 ___CxxFrameHandler3
text$x	ENDS
??0tagShopItemMovieInfo@ioShopItemExtraInfoManager@@QAE@XZ ENDP ; ioShopItemExtraInfoManager::tagShopItemMovieInfo::tagShopItemMovieInfo
PUBLIC	??1tagShopItemMovieInfo@ioShopItemExtraInfoManager@@QAE@XZ ; ioShopItemExtraInfoManager::tagShopItemMovieInfo::~tagShopItemMovieInfo
;	COMDAT xdata$x
xdata$x	SEGMENT
__unwindtable$??1tagShopItemMovieInfo@ioShopItemExtraInfoManager@@QAE@XZ DD 0ffffffffH
	DD	FLAT:__unwindfunclet$??1tagShopItemMovieInfo@ioShopItemExtraInfoManager@@QAE@XZ$0
	DD	00H
	DD	FLAT:__unwindfunclet$??1tagShopItemMovieInfo@ioShopItemExtraInfoManager@@QAE@XZ$1
__ehfuncinfo$??1tagShopItemMovieInfo@ioShopItemExtraInfoManager@@QAE@XZ DD 019930522H
	DD	02H
	DD	FLAT:__unwindtable$??1tagShopItemMovieInfo@ioShopItemExtraInfoManager@@QAE@XZ
	DD	2 DUP(00H)
	DD	2 DUP(00H)
	DD	00H
	DD	01H
; Function compile flags: /Ogsp
xdata$x	ENDS
;	COMDAT ??1tagShopItemMovieInfo@ioShopItemExtraInfoManager@@QAE@XZ
_TEXT	SEGMENT
_this$ = -16						; size = 4
__$EHRec$ = -12						; size = 12
??1tagShopItemMovieInfo@ioShopItemExtraInfoManager@@QAE@XZ PROC ; ioShopItemExtraInfoManager::tagShopItemMovieInfo::~tagShopItemMovieInfo, COMDAT
; _this$ = ecx
  00000	6a 04		 push	 4
  00002	b8 00 00 00 00	 mov	 eax, __ehhandler$??1tagShopItemMovieInfo@ioShopItemExtraInfoManager@@QAE@XZ
  00007	e8 00 00 00 00	 call	 __EH_prolog3
  0000c	8b f9		 mov	 edi, ecx
  0000e	89 7d f0	 mov	 DWORD PTR _this$[ebp], edi
  00011	8b 35 00 00 00
	00		 mov	 esi, DWORD PTR __imp_??1ioHashString@@QAE@XZ
  00017	8d 4f 20	 lea	 ecx, DWORD PTR [edi+32]
  0001a	c7 45 fc 01 00
	00 00		 mov	 DWORD PTR __$EHRec$[ebp+8], 1
  00021	ff d6		 call	 esi
  00023	8d 4f 10	 lea	 ecx, DWORD PTR [edi+16]
  00026	c6 45 fc 00	 mov	 BYTE PTR __$EHRec$[ebp+8], 0
  0002a	ff d6		 call	 esi
  0002c	83 4d fc ff	 or	 DWORD PTR __$EHRec$[ebp+8], -1
  00030	8b cf		 mov	 ecx, edi
  00032	ff d6		 call	 esi
  00034	e8 00 00 00 00	 call	 __EH_epilog3
  00039	c3		 ret	 0
_TEXT	ENDS
;	COMDAT text$x
text$x	SEGMENT
__unwindfunclet$??1tagShopItemMovieInfo@ioShopItemExtraInfoManager@@QAE@XZ$0:
  00000	8b 4d f0	 mov	 ecx, DWORD PTR _this$[ebp]
  00003	ff 25 00 00 00
	00		 jmp	 DWORD PTR __imp_??1ioHashString@@QAE@XZ
__unwindfunclet$??1tagShopItemMovieInfo@ioShopItemExtraInfoManager@@QAE@XZ$1:
  00009	8b 4d f0	 mov	 ecx, DWORD PTR _this$[ebp]
  0000c	83 c1 10	 add	 ecx, 16			; 00000010H
  0000f	ff 25 00 00 00
	00		 jmp	 DWORD PTR __imp_??1ioHashString@@QAE@XZ
__ehhandler$??1tagShopItemMovieInfo@ioShopItemExtraInfoManager@@QAE@XZ:
  00015	8b 54 24 08	 mov	 edx, DWORD PTR [esp+8]
  00019	8d 42 0c	 lea	 eax, DWORD PTR [edx+12]
  0001c	8b 4a ec	 mov	 ecx, DWORD PTR [edx-20]
  0001f	33 c8		 xor	 ecx, eax
  00021	e8 00 00 00 00	 call	 @__security_check_cookie@4
  00026	b8 00 00 00 00	 mov	 eax, OFFSET __ehfuncinfo$??1tagShopItemMovieInfo@ioShopItemExtraInfoManager@@QAE@XZ
  0002b	e9 00 00 00 00	 jmp	 ___CxxFrameHandler3
text$x	ENDS
??1tagShopItemMovieInfo@ioShopItemExtraInfoManager@@QAE@XZ ENDP ; ioShopItemExtraInfoManager::tagShopItemMovieInfo::~tagShopItemMovieInfo
PUBLIC	??0?$Singleton@VioShopItemExtraInfoManager@@@@QAE@XZ ; Singleton<ioShopItemExtraInfoManager>::Singleton<ioShopItemExtraInfoManager>
; Function compile flags: /Ogsp
; File d:\lost saga for developer\youtube\tutorial\source\src\io3dengine\iosingleton.h
;	COMDAT ??0?$Singleton@VioShopItemExtraInfoManager@@@@QAE@XZ
_TEXT	SEGMENT
??0?$Singleton@VioShopItemExtraInfoManager@@@@QAE@XZ PROC ; Singleton<ioShopItemExtraInfoManager>::Singleton<ioShopItemExtraInfoManager>, COMDAT
; _this$ = ecx

; 27   : 	Singleton()

  00000	8b c1		 mov	 eax, ecx

; 28   : 	{
; 29   : 		assert( !ms_Singleton );
; 30   : 		int offset = (int)(T*)1 - (int)(Singleton <T>*)(T*)1;
; 31   : 		ms_Singleton = (T*)((int)this + offset);

  00002	8d 48 fc	 lea	 ecx, DWORD PTR [eax-4]
  00005	89 0d 00 00 00
	00		 mov	 DWORD PTR ?ms_Singleton@?$Singleton@VioShopItemExtraInfoManager@@@@1PAVioShopItemExtraInfoManager@@A, ecx ; Singleton<ioShopItemExtraInfoManager>::ms_Singleton

; 32   : 	}

  0000b	c3		 ret	 0
??0?$Singleton@VioShopItemExtraInfoManager@@@@QAE@XZ ENDP ; Singleton<ioShopItemExtraInfoManager>::Singleton<ioShopItemExtraInfoManager>
_TEXT	ENDS
PUBLIC	??1?$Singleton@VioShopItemExtraInfoManager@@@@QAE@XZ ; Singleton<ioShopItemExtraInfoManager>::~Singleton<ioShopItemExtraInfoManager>
; Function compile flags: /Ogsp
;	COMDAT ??1?$Singleton@VioShopItemExtraInfoManager@@@@QAE@XZ
_TEXT	SEGMENT
??1?$Singleton@VioShopItemExtraInfoManager@@@@QAE@XZ PROC ; Singleton<ioShopItemExtraInfoManager>::~Singleton<ioShopItemExtraInfoManager>, COMDAT
; _this$ = ecx

; 36   : 		assert( ms_Singleton );
; 37   : 		ms_Singleton = 0;

  00000	83 25 00 00 00
	00 00		 and	 DWORD PTR ?ms_Singleton@?$Singleton@VioShopItemExtraInfoManager@@@@1PAVioShopItemExtraInfoManager@@A, 0 ; Singleton<ioShopItemExtraInfoManager>::ms_Singleton

; 38   : 	}

  00007	c3		 ret	 0
??1?$Singleton@VioShopItemExtraInfoManager@@@@QAE@XZ ENDP ; Singleton<ioShopItemExtraInfoManager>::~Singleton<ioShopItemExtraInfoManager>
_TEXT	ENDS
PUBLIC	?GetSingleton@?$Singleton@VioShopItemExtraInfoManager@@@@SAAAVioShopItemExtraInfoManager@@XZ ; Singleton<ioShopItemExtraInfoManager>::GetSingleton
; Function compile flags: /Ogsp
;	COMDAT ?GetSingleton@?$Singleton@VioShopItemExtraInfoManager@@@@SAAAVioShopItemExtraInfoManager@@XZ
_TEXT	SEGMENT
?GetSingleton@?$Singleton@VioShopItemExtraInfoManager@@@@SAAAVioShopItemExtraInfoManager@@XZ PROC ; Singleton<ioShopItemExtraInfoManager>::GetSingleton, COMDAT

; 42   : 		assert( ms_Singleton );
; 43   : 		return (*ms_Singleton);

  00000	a1 00 00 00 00	 mov	 eax, DWORD PTR ?ms_Singleton@?$Singleton@VioShopItemExtraInfoManager@@@@1PAVioShopItemExtraInfoManager@@A ; Singleton<ioShopItemExtraInfoManager>::ms_Singleton

; 44   : 	}

  00005	c3		 ret	 0
?GetSingleton@?$Singleton@VioShopItemExtraInfoManager@@@@SAAAVioShopItemExtraInfoManager@@XZ ENDP ; Singleton<ioShopItemExtraInfoManager>::GetSingleton
_TEXT	ENDS
PUBLIC	?size@?$vector@UtagShopItemExtraInfo@ioShopItemExtraInfoManager@@V?$allocator@UtagShopItemExtraInfo@ioShopItemExtraInfoManager@@@std@@@std@@QBEIXZ ; std::vector<ioShopItemExtraInfoManager::tagShopItemExtraInfo,std::allocator<ioShopItemExtraInfoManager::tagShopItemExtraInfo> >::size
; Function compile flags: /Ogsp
; File c:\program files (x86)\microsoft visual studio 10.0\vc\include\vector
;	COMDAT ?size@?$vector@UtagShopItemExtraInfo@ioShopItemExtraInfoManager@@V?$allocator@UtagShopItemExtraInfo@ioShopItemExtraInfoManager@@@std@@@std@@QBEIXZ
_TEXT	SEGMENT
?size@?$vector@UtagShopItemExtraInfo@ioShopItemExtraInfoManager@@V?$allocator@UtagShopItemExtraInfo@ioShopItemExtraInfoManager@@@std@@@std@@QBEIXZ PROC ; std::vector<ioShopItemExtraInfoManager::tagShopItemExtraInfo,std::allocator<ioShopItemExtraInfoManager::tagShopItemExtraInfo> >::size, COMDAT
; _this$ = ecx

; 879  : 		return (this->_Mylast - this->_Myfirst);

  00000	8b 41 04	 mov	 eax, DWORD PTR [ecx+4]
  00003	2b 01		 sub	 eax, DWORD PTR [ecx]
  00005	6a 3c		 push	 60			; 0000003cH
  00007	99		 cdq
  00008	59		 pop	 ecx
  00009	f7 f9		 idiv	 ecx

; 880  : 		}

  0000b	c3		 ret	 0
?size@?$vector@UtagShopItemExtraInfo@ioShopItemExtraInfoManager@@V?$allocator@UtagShopItemExtraInfo@ioShopItemExtraInfoManager@@@std@@@std@@QBEIXZ ENDP ; std::vector<ioShopItemExtraInfoManager::tagShopItemExtraInfo,std::allocator<ioShopItemExtraInfoManager::tagShopItemExtraInfo> >::size
_TEXT	ENDS
PUBLIC	?empty@?$vector@UtagShopItemExtraInfo@ioShopItemExtraInfoManager@@V?$allocator@UtagShopItemExtraInfo@ioShopItemExtraInfoManager@@@std@@@std@@QBE_NXZ ; std::vector<ioShopItemExtraInfoManager::tagShopItemExtraInfo,std::allocator<ioShopItemExtraInfoManager::tagShopItemExtraInfo> >::empty
; Function compile flags: /Ogsp
;	COMDAT ?empty@?$vector@UtagShopItemExtraInfo@ioShopItemExtraInfoManager@@V?$allocator@UtagShopItemExtraInfo@ioShopItemExtraInfoManager@@@std@@@std@@QBE_NXZ
_TEXT	SEGMENT
?empty@?$vector@UtagShopItemExtraInfo@ioShopItemExtraInfoManager@@V?$allocator@UtagShopItemExtraInfo@ioShopItemExtraInfoManager@@@std@@@std@@QBE_NXZ PROC ; std::vector<ioShopItemExtraInfoManager::tagShopItemExtraInfo,std::allocator<ioShopItemExtraInfoManager::tagShopItemExtraInfo> >::empty, COMDAT
; _this$ = ecx

; 889  : 		return (this->_Myfirst == this->_Mylast);

  00000	8b 01		 mov	 eax, DWORD PTR [ecx]
  00002	2b 41 04	 sub	 eax, DWORD PTR [ecx+4]
  00005	f7 d8		 neg	 eax
  00007	1b c0		 sbb	 eax, eax
  00009	40		 inc	 eax

; 890  : 		}

  0000a	c3		 ret	 0
?empty@?$vector@UtagShopItemExtraInfo@ioShopItemExtraInfoManager@@V?$allocator@UtagShopItemExtraInfo@ioShopItemExtraInfoManager@@@std@@@std@@QBE_NXZ ENDP ; std::vector<ioShopItemExtraInfoManager::tagShopItemExtraInfo,std::allocator<ioShopItemExtraInfoManager::tagShopItemExtraInfo> >::empty
_TEXT	ENDS
PUBLIC	??A?$vector@UtagShopItemExtraInfo@ioShopItemExtraInfoManager@@V?$allocator@UtagShopItemExtraInfo@ioShopItemExtraInfoManager@@@std@@@std@@QAEAAUtagShopItemExtraInfo@ioShopItemExtraInfoManager@@I@Z ; std::vector<ioShopItemExtraInfoManager::tagShopItemExtraInfo,std::allocator<ioShopItemExtraInfoManager::tagShopItemExtraInfo> >::operator[]
; Function compile flags: /Ogsp
;	COMDAT ??A?$vector@UtagShopItemExtraInfo@ioShopItemExtraInfoManager@@V?$allocator@UtagShopItemExtraInfo@ioShopItemExtraInfoManager@@@std@@@std@@QAEAAUtagShopItemExtraInfo@ioShopItemExtraInfoManager@@I@Z
_TEXT	SEGMENT
__Pos$ = 8						; size = 4
??A?$vector@UtagShopItemExtraInfo@ioShopItemExtraInfoManager@@V?$allocator@UtagShopItemExtraInfo@ioShopItemExtraInfoManager@@@std@@@std@@QAEAAUtagShopItemExtraInfo@ioShopItemExtraInfoManager@@I@Z PROC ; std::vector<ioShopItemExtraInfoManager::tagShopItemExtraInfo,std::allocator<ioShopItemExtraInfoManager::tagShopItemExtraInfo> >::operator[], COMDAT
; _this$ = ecx

; 928  : 		{	// subscript mutable sequence

  00000	55		 push	 ebp
  00001	8b ec		 mov	 ebp, esp

; 929  :  #if _ITERATOR_DEBUG_LEVEL == 2
; 930  : 		if (size() <= _Pos)
; 931  : 			{	// report error
; 932  : 			_DEBUG_ERROR("vector subscript out of range");
; 933  : 			_SCL_SECURE_OUT_OF_RANGE;
; 934  : 			}
; 935  : 
; 936  :  #elif _ITERATOR_DEBUG_LEVEL == 1
; 937  : 		_SCL_SECURE_VALIDATE_RANGE(_Pos < size());
; 938  :  #endif /* _ITERATOR_DEBUG_LEVEL */
; 939  : 
; 940  : 		return (*(this->_Myfirst + _Pos));

  00003	8b 45 08	 mov	 eax, DWORD PTR __Pos$[ebp]
  00006	6b c0 3c	 imul	 eax, 60			; 0000003cH
  00009	03 01		 add	 eax, DWORD PTR [ecx]

; 941  : 		}

  0000b	5d		 pop	 ebp
  0000c	c2 04 00	 ret	 4
??A?$vector@UtagShopItemExtraInfo@ioShopItemExtraInfoManager@@V?$allocator@UtagShopItemExtraInfo@ioShopItemExtraInfoManager@@@std@@@std@@QAEAAUtagShopItemExtraInfo@ioShopItemExtraInfoManager@@I@Z ENDP ; std::vector<ioShopItemExtraInfoManager::tagShopItemExtraInfo,std::allocator<ioShopItemExtraInfoManager::tagShopItemExtraInfo> >::operator[]
_TEXT	ENDS
PUBLIC	?_Inside@?$vector@HV?$allocator@H@std@@@std@@IBE_NPBH@Z ; std::vector<int,std::allocator<int> >::_Inside
; Function compile flags: /Ogsp
;	COMDAT ?_Inside@?$vector@HV?$allocator@H@std@@@std@@IBE_NPBH@Z
_TEXT	SEGMENT
__Ptr$ = 8						; size = 4
?_Inside@?$vector@HV?$allocator@H@std@@@std@@IBE_NPBH@Z PROC ; std::vector<int,std::allocator<int> >::_Inside, COMDAT
; _this$ = ecx

; 1285 : 		{	// test if _Ptr points inside vector

  00000	55		 push	 ebp
  00001	8b ec		 mov	 ebp, esp

; 1286 : 		return (_Ptr < this->_Mylast && this->_Myfirst <= _Ptr);

  00003	8b 45 08	 mov	 eax, DWORD PTR __Ptr$[ebp]
  00006	3b 41 04	 cmp	 eax, DWORD PTR [ecx+4]
  00009	73 09		 jae	 SHORT $LN3@Inside
  0000b	39 01		 cmp	 DWORD PTR [ecx], eax
  0000d	77 05		 ja	 SHORT $LN3@Inside
  0000f	33 c0		 xor	 eax, eax
  00011	40		 inc	 eax
  00012	eb 02		 jmp	 SHORT $LN4@Inside
$LN3@Inside:
  00014	33 c0		 xor	 eax, eax
$LN4@Inside:

; 1287 : 		}

  00016	5d		 pop	 ebp
  00017	c2 04 00	 ret	 4
?_Inside@?$vector@HV?$allocator@H@std@@@std@@IBE_NPBH@Z ENDP ; std::vector<int,std::allocator<int> >::_Inside
_TEXT	ENDS
PUBLIC	?_Orphan_range@?$vector@HV?$allocator@H@std@@@std@@IBEXPAH0@Z ; std::vector<int,std::allocator<int> >::_Orphan_range
; Function compile flags: /Ogsp
;	COMDAT ?_Orphan_range@?$vector@HV?$allocator@H@std@@@std@@IBEXPAH0@Z
_TEXT	SEGMENT
___formal$ = 8						; size = 4
___formal$ = 12						; size = 4
?_Orphan_range@?$vector@HV?$allocator@H@std@@@std@@IBEXPAH0@Z PROC ; std::vector<int,std::allocator<int> >::_Orphan_range, COMDAT
; _this$ = ecx

; 1454 : 		}

  00000	c2 08 00	 ret	 8
?_Orphan_range@?$vector@HV?$allocator@H@std@@@std@@IBEXPAH0@Z ENDP ; std::vector<int,std::allocator<int> >::_Orphan_range
_TEXT	ENDS
PUBLIC	?capacity@?$vector@UtagShopItemMovieInfo@ioShopItemExtraInfoManager@@V?$allocator@UtagShopItemMovieInfo@ioShopItemExtraInfoManager@@@std@@@std@@QBEIXZ ; std::vector<ioShopItemExtraInfoManager::tagShopItemMovieInfo,std::allocator<ioShopItemExtraInfoManager::tagShopItemMovieInfo> >::capacity
; Function compile flags: /Ogsp
;	COMDAT ?capacity@?$vector@UtagShopItemMovieInfo@ioShopItemExtraInfoManager@@V?$allocator@UtagShopItemMovieInfo@ioShopItemExtraInfoManager@@@std@@@std@@QBEIXZ
_TEXT	SEGMENT
?capacity@?$vector@UtagShopItemMovieInfo@ioShopItemExtraInfoManager@@V?$allocator@UtagShopItemMovieInfo@ioShopItemExtraInfoManager@@@std@@@std@@QBEIXZ PROC ; std::vector<ioShopItemExtraInfoManager::tagShopItemMovieInfo,std::allocator<ioShopItemExtraInfoManager::tagShopItemMovieInfo> >::capacity, COMDAT
; _this$ = ecx

; 777  : 		return (this->_Myend - this->_Myfirst);

  00000	8b 41 08	 mov	 eax, DWORD PTR [ecx+8]
  00003	2b 01		 sub	 eax, DWORD PTR [ecx]
  00005	6a 34		 push	 52			; 00000034H
  00007	99		 cdq
  00008	59		 pop	 ecx
  00009	f7 f9		 idiv	 ecx

; 778  : 		}

  0000b	c3		 ret	 0
?capacity@?$vector@UtagShopItemMovieInfo@ioShopItemExtraInfoManager@@V?$allocator@UtagShopItemMovieInfo@ioShopItemExtraInfoManager@@@std@@@std@@QBEIXZ ENDP ; std::vector<ioShopItemExtraInfoManager::tagShopItemMovieInfo,std::allocator<ioShopItemExtraInfoManager::tagShopItemMovieInfo> >::capacity
_TEXT	ENDS
PUBLIC	?size@?$vector@UtagShopItemMovieInfo@ioShopItemExtraInfoManager@@V?$allocator@UtagShopItemMovieInfo@ioShopItemExtraInfoManager@@@std@@@std@@QBEIXZ ; std::vector<ioShopItemExtraInfoManager::tagShopItemMovieInfo,std::allocator<ioShopItemExtraInfoManager::tagShopItemMovieInfo> >::size
; Function compile flags: /Ogsp
;	COMDAT ?size@?$vector@UtagShopItemMovieInfo@ioShopItemExtraInfoManager@@V?$allocator@UtagShopItemMovieInfo@ioShopItemExtraInfoManager@@@std@@@std@@QBEIXZ
_TEXT	SEGMENT
?size@?$vector@UtagShopItemMovieInfo@ioShopItemExtraInfoManager@@V?$allocator@UtagShopItemMovieInfo@ioShopItemExtraInfoManager@@@std@@@std@@QBEIXZ PROC ; std::vector<ioShopItemExtraInfoManager::tagShopItemMovieInfo,std::allocator<ioShopItemExtraInfoManager::tagShopItemMovieInfo> >::size, COMDAT
; _this$ = ecx

; 879  : 		return (this->_Mylast - this->_Myfirst);

  00000	8b 41 04	 mov	 eax, DWORD PTR [ecx+4]
  00003	2b 01		 sub	 eax, DWORD PTR [ecx]
  00005	6a 34		 push	 52			; 00000034H
  00007	99		 cdq
  00008	59		 pop	 ecx
  00009	f7 f9		 idiv	 ecx

; 880  : 		}

  0000b	c3		 ret	 0
?size@?$vector@UtagShopItemMovieInfo@ioShopItemExtraInfoManager@@V?$allocator@UtagShopItemMovieInfo@ioShopItemExtraInfoManager@@@std@@@std@@QBEIXZ ENDP ; std::vector<ioShopItemExtraInfoManager::tagShopItemMovieInfo,std::allocator<ioShopItemExtraInfoManager::tagShopItemMovieInfo> >::size
_TEXT	ENDS
PUBLIC	?_Inside@?$vector@UtagShopItemMovieInfo@ioShopItemExtraInfoManager@@V?$allocator@UtagShopItemMovieInfo@ioShopItemExtraInfoManager@@@std@@@std@@IBE_NPBUtagShopItemMovieInfo@ioShopItemExtraInfoManager@@@Z ; std::vector<ioShopItemExtraInfoManager::tagShopItemMovieInfo,std::allocator<ioShopItemExtraInfoManager::tagShopItemMovieInfo> >::_Inside
; Function compile flags: /Ogsp
;	COMDAT ?_Inside@?$vector@UtagShopItemMovieInfo@ioShopItemExtraInfoManager@@V?$allocator@UtagShopItemMovieInfo@ioShopItemExtraInfoManager@@@std@@@std@@IBE_NPBUtagShopItemMovieInfo@ioShopItemExtraInfoManager@@@Z
_TEXT	SEGMENT
__Ptr$ = 8						; size = 4
?_Inside@?$vector@UtagShopItemMovieInfo@ioShopItemExtraInfoManager@@V?$allocator@UtagShopItemMovieInfo@ioShopItemExtraInfoManager@@@std@@@std@@IBE_NPBUtagShopItemMovieInfo@ioShopItemExtraInfoManager@@@Z PROC ; std::vector<ioShopItemExtraInfoManager::tagShopItemMovieInfo,std::allocator<ioShopItemExtraInfoManager::tagShopItemMovieInfo> >::_Inside, COMDAT
; _this$ = ecx

; 1285 : 		{	// test if _Ptr points inside vector

  00000	55		 push	 ebp
  00001	8b ec		 mov	 ebp, esp

; 1286 : 		return (_Ptr < this->_Mylast && this->_Myfirst <= _Ptr);

  00003	8b 45 08	 mov	 eax, DWORD PTR __Ptr$[ebp]
  00006	3b 41 04	 cmp	 eax, DWORD PTR [ecx+4]
  00009	73 09		 jae	 SHORT $LN3@Inside@2
  0000b	39 01		 cmp	 DWORD PTR [ecx], eax
  0000d	77 05		 ja	 SHORT $LN3@Inside@2
  0000f	33 c0		 xor	 eax, eax
  00011	40		 inc	 eax
  00012	eb 02		 jmp	 SHORT $LN4@Inside@2
$LN3@Inside@2:
  00014	33 c0		 xor	 eax, eax
$LN4@Inside@2:

; 1287 : 		}

  00016	5d		 pop	 ebp
  00017	c2 04 00	 ret	 4
?_Inside@?$vector@UtagShopItemMovieInfo@ioShopItemExtraInfoManager@@V?$allocator@UtagShopItemMovieInfo@ioShopItemExtraInfoManager@@@std@@@std@@IBE_NPBUtagShopItemMovieInfo@ioShopItemExtraInfoManager@@@Z ENDP ; std::vector<ioShopItemExtraInfoManager::tagShopItemMovieInfo,std::allocator<ioShopItemExtraInfoManager::tagShopItemMovieInfo> >::_Inside
_TEXT	ENDS
PUBLIC	??_C@_0BD@OLBABOEK@vector?$DMT?$DO?5too?5long?$AA@ ; `string'
PUBLIC	?_Xlen@?$vector@UtagShopItemMovieInfo@ioShopItemExtraInfoManager@@V?$allocator@UtagShopItemMovieInfo@ioShopItemExtraInfoManager@@@std@@@std@@IBEXXZ ; std::vector<ioShopItemExtraInfoManager::tagShopItemMovieInfo,std::allocator<ioShopItemExtraInfoManager::tagShopItemMovieInfo> >::_Xlen
EXTRN	__imp_?_Xlength_error@std@@YAXPBD@Z:PROC
;	COMDAT ??_C@_0BD@OLBABOEK@vector?$DMT?$DO?5too?5long?$AA@
CONST	SEGMENT
??_C@_0BD@OLBABOEK@vector?$DMT?$DO?5too?5long?$AA@ DB 'vector<T> too long'
	DB	00H						; `string'
; Function compile flags: /Ogsp
CONST	ENDS
;	COMDAT ?_Xlen@?$vector@UtagShopItemMovieInfo@ioShopItemExtraInfoManager@@V?$allocator@UtagShopItemMovieInfo@ioShopItemExtraInfoManager@@@std@@@std@@IBEXXZ
_TEXT	SEGMENT
?_Xlen@?$vector@UtagShopItemMovieInfo@ioShopItemExtraInfoManager@@V?$allocator@UtagShopItemMovieInfo@ioShopItemExtraInfoManager@@@std@@@std@@IBEXXZ PROC ; std::vector<ioShopItemExtraInfoManager::tagShopItemMovieInfo,std::allocator<ioShopItemExtraInfoManager::tagShopItemMovieInfo> >::_Xlen, COMDAT
; _this$ = ecx

; 1427 : 		_Xlength_error("vector<T> too long");

  00000	68 00 00 00 00	 push	 OFFSET ??_C@_0BD@OLBABOEK@vector?$DMT?$DO?5too?5long?$AA@
  00005	ff 15 00 00 00
	00		 call	 DWORD PTR __imp_?_Xlength_error@std@@YAXPBD@Z
$LN4@Xlen:
$LN3@Xlen:
  0000b	cc		 int	 3
?_Xlen@?$vector@UtagShopItemMovieInfo@ioShopItemExtraInfoManager@@V?$allocator@UtagShopItemMovieInfo@ioShopItemExtraInfoManager@@@std@@@std@@IBEXXZ ENDP ; std::vector<ioShopItemExtraInfoManager::tagShopItemMovieInfo,std::allocator<ioShopItemExtraInfoManager::tagShopItemMovieInfo> >::_Xlen
_TEXT	ENDS
PUBLIC	?_Orphan_range@?$vector@UtagShopItemMovieInfo@ioShopItemExtraInfoManager@@V?$allocator@UtagShopItemMovieInfo@ioShopItemExtraInfoManager@@@std@@@std@@IBEXPAUtagShopItemMovieInfo@ioShopItemExtraInfoManager@@0@Z ; std::vector<ioShopItemExtraInfoManager::tagShopItemMovieInfo,std::allocator<ioShopItemExtraInfoManager::tagShopItemMovieInfo> >::_Orphan_range
; Function compile flags: /Ogsp
;	COMDAT ?_Orphan_range@?$vector@UtagShopItemMovieInfo@ioShopItemExtraInfoManager@@V?$allocator@UtagShopItemMovieInfo@ioShopItemExtraInfoManager@@@std@@@std@@IBEXPAUtagShopItemMovieInfo@ioShopItemExtraInfoManager@@0@Z
_TEXT	SEGMENT
___formal$ = 8						; size = 4
___formal$ = 12						; size = 4
?_Orphan_range@?$vector@UtagShopItemMovieInfo@ioShopItemExtraInfoManager@@V?$allocator@UtagShopItemMovieInfo@ioShopItemExtraInfoManager@@@std@@@std@@IBEXPAUtagShopItemMovieInfo@ioShopItemExtraInfoManager@@0@Z PROC ; std::vector<ioShopItemExtraInfoManager::tagShopItemMovieInfo,std::allocator<ioShopItemExtraInfoManager::tagShopItemMovieInfo> >::_Orphan_range, COMDAT
; _this$ = ecx

; 1454 : 		}

  00000	c2 08 00	 ret	 8
?_Orphan_range@?$vector@UtagShopItemMovieInfo@ioShopItemExtraInfoManager@@V?$allocator@UtagShopItemMovieInfo@ioShopItemExtraInfoManager@@@std@@@std@@IBEXPAUtagShopItemMovieInfo@ioShopItemExtraInfoManager@@0@Z ENDP ; std::vector<ioShopItemExtraInfoManager::tagShopItemMovieInfo,std::allocator<ioShopItemExtraInfoManager::tagShopItemMovieInfo> >::_Orphan_range
_TEXT	ENDS
PUBLIC	??1?$_Vector_val@UtagShopItemMovieInfo@ioShopItemExtraInfoManager@@V?$allocator@UtagShopItemMovieInfo@ioShopItemExtraInfoManager@@@std@@@std@@QAE@XZ ; std::_Vector_val<ioShopItemExtraInfoManager::tagShopItemMovieInfo,std::allocator<ioShopItemExtraInfoManager::tagShopItemMovieInfo> >::~_Vector_val<ioShopItemExtraInfoManager::tagShopItemMovieInfo,std::allocator<ioShopItemExtraInfoManager::tagShopItemMovieInfo> >
; Function compile flags: /Ogsp
;	COMDAT ??1?$_Vector_val@UtagShopItemMovieInfo@ioShopItemExtraInfoManager@@V?$allocator@UtagShopItemMovieInfo@ioShopItemExtraInfoManager@@@std@@@std@@QAE@XZ
_TEXT	SEGMENT
??1?$_Vector_val@UtagShopItemMovieInfo@ioShopItemExtraInfoManager@@V?$allocator@UtagShopItemMovieInfo@ioShopItemExtraInfoManager@@@std@@@std@@QAE@XZ PROC ; std::_Vector_val<ioShopItemExtraInfoManager::tagShopItemMovieInfo,std::allocator<ioShopItemExtraInfoManager::tagShopItemMovieInfo> >::~_Vector_val<ioShopItemExtraInfoManager::tagShopItemMovieInfo,std::allocator<ioShopItemExtraInfoManager::tagShopItemMovieInfo> >, COMDAT
; _this$ = ecx

; 434  : 		}

  00000	c3		 ret	 0
??1?$_Vector_val@UtagShopItemMovieInfo@ioShopItemExtraInfoManager@@V?$allocator@UtagShopItemMovieInfo@ioShopItemExtraInfoManager@@@std@@@std@@QAE@XZ ENDP ; std::_Vector_val<ioShopItemExtraInfoManager::tagShopItemMovieInfo,std::allocator<ioShopItemExtraInfoManager::tagShopItemMovieInfo> >::~_Vector_val<ioShopItemExtraInfoManager::tagShopItemMovieInfo,std::allocator<ioShopItemExtraInfoManager::tagShopItemMovieInfo> >
_TEXT	ENDS
PUBLIC	??0?$allocator@UtagShopItemMovieInfo@ioShopItemExtraInfoManager@@@std@@QAE@XZ ; std::allocator<ioShopItemExtraInfoManager::tagShopItemMovieInfo>::allocator<ioShopItemExtraInfoManager::tagShopItemMovieInfo>
; Function compile flags: /Ogsp
; File c:\program files (x86)\microsoft visual studio 10.0\vc\include\xmemory
;	COMDAT ??0?$allocator@UtagShopItemMovieInfo@ioShopItemExtraInfoManager@@@std@@QAE@XZ
_TEXT	SEGMENT
??0?$allocator@UtagShopItemMovieInfo@ioShopItemExtraInfoManager@@@std@@QAE@XZ PROC ; std::allocator<ioShopItemExtraInfoManager::tagShopItemMovieInfo>::allocator<ioShopItemExtraInfoManager::tagShopItemMovieInfo>, COMDAT
; _this$ = ecx

; 161  : 	_ALLOCATOR() _THROW0()

  00000	8b c1		 mov	 eax, ecx

; 162  : 		{	// construct default allocator (do nothing)
; 163  : 		}

  00002	c3		 ret	 0
??0?$allocator@UtagShopItemMovieInfo@ioShopItemExtraInfoManager@@@std@@QAE@XZ ENDP ; std::allocator<ioShopItemExtraInfoManager::tagShopItemMovieInfo>::allocator<ioShopItemExtraInfoManager::tagShopItemMovieInfo>
_TEXT	ENDS
PUBLIC	?deallocate@?$allocator@UtagShopItemMovieInfo@ioShopItemExtraInfoManager@@@std@@QAEXPAUtagShopItemMovieInfo@ioShopItemExtraInfoManager@@I@Z ; std::allocator<ioShopItemExtraInfoManager::tagShopItemMovieInfo>::deallocate
; Function compile flags: /Ogsp
;	COMDAT ?deallocate@?$allocator@UtagShopItemMovieInfo@ioShopItemExtraInfoManager@@@std@@QAEXPAUtagShopItemMovieInfo@ioShopItemExtraInfoManager@@I@Z
_TEXT	SEGMENT
__Ptr$ = 8						; size = 4
___formal$ = 12						; size = 4
?deallocate@?$allocator@UtagShopItemMovieInfo@ioShopItemExtraInfoManager@@@std@@QAEXPAUtagShopItemMovieInfo@ioShopItemExtraInfoManager@@I@Z PROC ; std::allocator<ioShopItemExtraInfoManager::tagShopItemMovieInfo>::deallocate, COMDAT
; _this$ = ecx

; 181  : 		{	// deallocate object at _Ptr, ignore size

  00000	55		 push	 ebp
  00001	8b ec		 mov	 ebp, esp

; 182  : 		::operator delete(_Ptr);

  00003	ff 75 08	 push	 DWORD PTR __Ptr$[ebp]
  00006	e8 00 00 00 00	 call	 ??3@YAXPAX@Z		; operator delete
  0000b	59		 pop	 ecx

; 183  : 		}

  0000c	5d		 pop	 ebp
  0000d	c2 08 00	 ret	 8
?deallocate@?$allocator@UtagShopItemMovieInfo@ioShopItemExtraInfoManager@@@std@@QAEXPAUtagShopItemMovieInfo@ioShopItemExtraInfoManager@@I@Z ENDP ; std::allocator<ioShopItemExtraInfoManager::tagShopItemMovieInfo>::deallocate
_TEXT	ENDS
PUBLIC	?_Inside@?$vector@UtagShopItemExtraInfo@ioShopItemExtraInfoManager@@V?$allocator@UtagShopItemExtraInfo@ioShopItemExtraInfoManager@@@std@@@std@@IBE_NPBUtagShopItemExtraInfo@ioShopItemExtraInfoManager@@@Z ; std::vector<ioShopItemExtraInfoManager::tagShopItemExtraInfo,std::allocator<ioShopItemExtraInfoManager::tagShopItemExtraInfo> >::_Inside
; Function compile flags: /Ogsp
; File c:\program files (x86)\microsoft visual studio 10.0\vc\include\vector
;	COMDAT ?_Inside@?$vector@UtagShopItemExtraInfo@ioShopItemExtraInfoManager@@V?$allocator@UtagShopItemExtraInfo@ioShopItemExtraInfoManager@@@std@@@std@@IBE_NPBUtagShopItemExtraInfo@ioShopItemExtraInfoManager@@@Z
_TEXT	SEGMENT
__Ptr$ = 8						; size = 4
?_Inside@?$vector@UtagShopItemExtraInfo@ioShopItemExtraInfoManager@@V?$allocator@UtagShopItemExtraInfo@ioShopItemExtraInfoManager@@@std@@@std@@IBE_NPBUtagShopItemExtraInfo@ioShopItemExtraInfoManager@@@Z PROC ; std::vector<ioShopItemExtraInfoManager::tagShopItemExtraInfo,std::allocator<ioShopItemExtraInfoManager::tagShopItemExtraInfo> >::_Inside, COMDAT
; _this$ = ecx

; 1285 : 		{	// test if _Ptr points inside vector

  00000	55		 push	 ebp
  00001	8b ec		 mov	 ebp, esp

; 1286 : 		return (_Ptr < this->_Mylast && this->_Myfirst <= _Ptr);

  00003	8b 45 08	 mov	 eax, DWORD PTR __Ptr$[ebp]
  00006	3b 41 04	 cmp	 eax, DWORD PTR [ecx+4]
  00009	73 09		 jae	 SHORT $LN3@Inside@3
  0000b	39 01		 cmp	 DWORD PTR [ecx], eax
  0000d	77 05		 ja	 SHORT $LN3@Inside@3
  0000f	33 c0		 xor	 eax, eax
  00011	40		 inc	 eax
  00012	eb 02		 jmp	 SHORT $LN4@Inside@3
$LN3@Inside@3:
  00014	33 c0		 xor	 eax, eax
$LN4@Inside@3:

; 1287 : 		}

  00016	5d		 pop	 ebp
  00017	c2 04 00	 ret	 4
?_Inside@?$vector@UtagShopItemExtraInfo@ioShopItemExtraInfoManager@@V?$allocator@UtagShopItemExtraInfo@ioShopItemExtraInfoManager@@@std@@@std@@IBE_NPBUtagShopItemExtraInfo@ioShopItemExtraInfoManager@@@Z ENDP ; std::vector<ioShopItemExtraInfoManager::tagShopItemExtraInfo,std::allocator<ioShopItemExtraInfoManager::tagShopItemExtraInfo> >::_Inside
_TEXT	ENDS
PUBLIC	?_Orphan_range@?$vector@UtagShopItemExtraInfo@ioShopItemExtraInfoManager@@V?$allocator@UtagShopItemExtraInfo@ioShopItemExtraInfoManager@@@std@@@std@@IBEXPAUtagShopItemExtraInfo@ioShopItemExtraInfoManager@@0@Z ; std::vector<ioShopItemExtraInfoManager::tagShopItemExtraInfo,std::allocator<ioShopItemExtraInfoManager::tagShopItemExtraInfo> >::_Orphan_range
; Function compile flags: /Ogsp
;	COMDAT ?_Orphan_range@?$vector@UtagShopItemExtraInfo@ioShopItemExtraInfoManager@@V?$allocator@UtagShopItemExtraInfo@ioShopItemExtraInfoManager@@@std@@@std@@IBEXPAUtagShopItemExtraInfo@ioShopItemExtraInfoManager@@0@Z
_TEXT	SEGMENT
___formal$ = 8						; size = 4
___formal$ = 12						; size = 4
?_Orphan_range@?$vector@UtagShopItemExtraInfo@ioShopItemExtraInfoManager@@V?$allocator@UtagShopItemExtraInfo@ioShopItemExtraInfoManager@@@std@@@std@@IBEXPAUtagShopItemExtraInfo@ioShopItemExtraInfoManager@@0@Z PROC ; std::vector<ioShopItemExtraInfoManager::tagShopItemExtraInfo,std::allocator<ioShopItemExtraInfoManager::tagShopItemExtraInfo> >::_Orphan_range, COMDAT
; _this$ = ecx

; 1454 : 		}

  00000	c2 08 00	 ret	 8
?_Orphan_range@?$vector@UtagShopItemExtraInfo@ioShopItemExtraInfoManager@@V?$allocator@UtagShopItemExtraInfo@ioShopItemExtraInfoManager@@@std@@@std@@IBEXPAUtagShopItemExtraInfo@ioShopItemExtraInfoManager@@0@Z ENDP ; std::vector<ioShopItemExtraInfoManager::tagShopItemExtraInfo,std::allocator<ioShopItemExtraInfoManager::tagShopItemExtraInfo> >::_Orphan_range
_TEXT	ENDS
PUBLIC	??1?$_Vector_val@UtagShopItemExtraInfo@ioShopItemExtraInfoManager@@V?$allocator@UtagShopItemExtraInfo@ioShopItemExtraInfoManager@@@std@@@std@@QAE@XZ ; std::_Vector_val<ioShopItemExtraInfoManager::tagShopItemExtraInfo,std::allocator<ioShopItemExtraInfoManager::tagShopItemExtraInfo> >::~_Vector_val<ioShopItemExtraInfoManager::tagShopItemExtraInfo,std::allocator<ioShopItemExtraInfoManager::tagShopItemExtraInfo> >
; Function compile flags: /Ogsp
;	COMDAT ??1?$_Vector_val@UtagShopItemExtraInfo@ioShopItemExtraInfoManager@@V?$allocator@UtagShopItemExtraInfo@ioShopItemExtraInfoManager@@@std@@@std@@QAE@XZ
_TEXT	SEGMENT
??1?$_Vector_val@UtagShopItemExtraInfo@ioShopItemExtraInfoManager@@V?$allocator@UtagShopItemExtraInfo@ioShopItemExtraInfoManager@@@std@@@std@@QAE@XZ PROC ; std::_Vector_val<ioShopItemExtraInfoManager::tagShopItemExtraInfo,std::allocator<ioShopItemExtraInfoManager::tagShopItemExtraInfo> >::~_Vector_val<ioShopItemExtraInfoManager::tagShopItemExtraInfo,std::allocator<ioShopItemExtraInfoManager::tagShopItemExtraInfo> >, COMDAT
; _this$ = ecx

; 434  : 		}

  00000	c3		 ret	 0
??1?$_Vector_val@UtagShopItemExtraInfo@ioShopItemExtraInfoManager@@V?$allocator@UtagShopItemExtraInfo@ioShopItemExtraInfoManager@@@std@@@std@@QAE@XZ ENDP ; std::_Vector_val<ioShopItemExtraInfoManager::tagShopItemExtraInfo,std::allocator<ioShopItemExtraInfoManager::tagShopItemExtraInfo> >::~_Vector_val<ioShopItemExtraInfoManager::tagShopItemExtraInfo,std::allocator<ioShopItemExtraInfoManager::tagShopItemExtraInfo> >
_TEXT	ENDS
PUBLIC	??0?$allocator@UtagShopItemExtraInfo@ioShopItemExtraInfoManager@@@std@@QAE@XZ ; std::allocator<ioShopItemExtraInfoManager::tagShopItemExtraInfo>::allocator<ioShopItemExtraInfoManager::tagShopItemExtraInfo>
; Function compile flags: /Ogsp
; File c:\program files (x86)\microsoft visual studio 10.0\vc\include\xmemory
;	COMDAT ??0?$allocator@UtagShopItemExtraInfo@ioShopItemExtraInfoManager@@@std@@QAE@XZ
_TEXT	SEGMENT
??0?$allocator@UtagShopItemExtraInfo@ioShopItemExtraInfoManager@@@std@@QAE@XZ PROC ; std::allocator<ioShopItemExtraInfoManager::tagShopItemExtraInfo>::allocator<ioShopItemExtraInfoManager::tagShopItemExtraInfo>, COMDAT
; _this$ = ecx

; 161  : 	_ALLOCATOR() _THROW0()

  00000	8b c1		 mov	 eax, ecx

; 162  : 		{	// construct default allocator (do nothing)
; 163  : 		}

  00002	c3		 ret	 0
??0?$allocator@UtagShopItemExtraInfo@ioShopItemExtraInfoManager@@@std@@QAE@XZ ENDP ; std::allocator<ioShopItemExtraInfoManager::tagShopItemExtraInfo>::allocator<ioShopItemExtraInfoManager::tagShopItemExtraInfo>
_TEXT	ENDS
PUBLIC	??0?$allocator@UtagShopItemMovieInfo@ioShopItemExtraInfoManager@@@std@@QAE@ABV01@@Z ; std::allocator<ioShopItemExtraInfoManager::tagShopItemMovieInfo>::allocator<ioShopItemExtraInfoManager::tagShopItemMovieInfo>
; Function compile flags: /Ogsp
;	COMDAT ??0?$allocator@UtagShopItemMovieInfo@ioShopItemExtraInfoManager@@@std@@QAE@ABV01@@Z
_TEXT	SEGMENT
___formal$ = 8						; size = 4
??0?$allocator@UtagShopItemMovieInfo@ioShopItemExtraInfoManager@@@std@@QAE@ABV01@@Z PROC ; std::allocator<ioShopItemExtraInfoManager::tagShopItemMovieInfo>::allocator<ioShopItemExtraInfoManager::tagShopItemMovieInfo>, COMDAT
; _this$ = ecx

; 165  : 	_ALLOCATOR(const _ALLOCATOR<_Ty>&) _THROW0()

  00000	8b c1		 mov	 eax, ecx

; 166  : 		{	// construct by copying (do nothing)
; 167  : 		}

  00002	c2 04 00	 ret	 4
??0?$allocator@UtagShopItemMovieInfo@ioShopItemExtraInfoManager@@@std@@QAE@ABV01@@Z ENDP ; std::allocator<ioShopItemExtraInfoManager::tagShopItemMovieInfo>::allocator<ioShopItemExtraInfoManager::tagShopItemMovieInfo>
_TEXT	ENDS
PUBLIC	?max_size@?$allocator@UtagShopItemMovieInfo@ioShopItemExtraInfoManager@@@std@@QBEIXZ ; std::allocator<ioShopItemExtraInfoManager::tagShopItemMovieInfo>::max_size
; Function compile flags: /Ogsp
;	COMDAT ?max_size@?$allocator@UtagShopItemMovieInfo@ioShopItemExtraInfoManager@@@std@@QBEIXZ
_TEXT	SEGMENT
?max_size@?$allocator@UtagShopItemMovieInfo@ioShopItemExtraInfoManager@@@std@@QBEIXZ PROC ; std::allocator<ioShopItemExtraInfoManager::tagShopItemMovieInfo>::max_size, COMDAT
; _this$ = ecx

; 218  : 		_SIZT _Count = (_SIZT)(-1) / sizeof (_Ty);
; 219  : 		return (0 < _Count ? _Count : 1);

  00000	b8 c4 4e ec 04	 mov	 eax, 82595524		; 04ec4ec4H

; 220  : 		}

  00005	c3		 ret	 0
?max_size@?$allocator@UtagShopItemMovieInfo@ioShopItemExtraInfoManager@@@std@@QBEIXZ ENDP ; std::allocator<ioShopItemExtraInfoManager::tagShopItemMovieInfo>::max_size
_TEXT	ENDS
PUBLIC	?capacity@?$vector@UtagShopItemExtraInfo@ioShopItemExtraInfoManager@@V?$allocator@UtagShopItemExtraInfo@ioShopItemExtraInfoManager@@@std@@@std@@QBEIXZ ; std::vector<ioShopItemExtraInfoManager::tagShopItemExtraInfo,std::allocator<ioShopItemExtraInfoManager::tagShopItemExtraInfo> >::capacity
; Function compile flags: /Ogsp
; File c:\program files (x86)\microsoft visual studio 10.0\vc\include\vector
;	COMDAT ?capacity@?$vector@UtagShopItemExtraInfo@ioShopItemExtraInfoManager@@V?$allocator@UtagShopItemExtraInfo@ioShopItemExtraInfoManager@@@std@@@std@@QBEIXZ
_TEXT	SEGMENT
?capacity@?$vector@UtagShopItemExtraInfo@ioShopItemExtraInfoManager@@V?$allocator@UtagShopItemExtraInfo@ioShopItemExtraInfoManager@@@std@@@std@@QBEIXZ PROC ; std::vector<ioShopItemExtraInfoManager::tagShopItemExtraInfo,std::allocator<ioShopItemExtraInfoManager::tagShopItemExtraInfo> >::capacity, COMDAT
; _this$ = ecx

; 777  : 		return (this->_Myend - this->_Myfirst);

  00000	8b 41 08	 mov	 eax, DWORD PTR [ecx+8]
  00003	2b 01		 sub	 eax, DWORD PTR [ecx]
  00005	6a 3c		 push	 60			; 0000003cH
  00007	99		 cdq
  00008	59		 pop	 ecx
  00009	f7 f9		 idiv	 ecx

; 778  : 		}

  0000b	c3		 ret	 0
?capacity@?$vector@UtagShopItemExtraInfo@ioShopItemExtraInfoManager@@V?$allocator@UtagShopItemExtraInfo@ioShopItemExtraInfoManager@@@std@@@std@@QBEIXZ ENDP ; std::vector<ioShopItemExtraInfoManager::tagShopItemExtraInfo,std::allocator<ioShopItemExtraInfoManager::tagShopItemExtraInfo> >::capacity
_TEXT	ENDS
PUBLIC	?_Xlen@?$vector@UtagShopItemExtraInfo@ioShopItemExtraInfoManager@@V?$allocator@UtagShopItemExtraInfo@ioShopItemExtraInfoManager@@@std@@@std@@IBEXXZ ; std::vector<ioShopItemExtraInfoManager::tagShopItemExtraInfo,std::allocator<ioShopItemExtraInfoManager::tagShopItemExtraInfo> >::_Xlen
; Function compile flags: /Ogsp
;	COMDAT ?_Xlen@?$vector@UtagShopItemExtraInfo@ioShopItemExtraInfoManager@@V?$allocator@UtagShopItemExtraInfo@ioShopItemExtraInfoManager@@@std@@@std@@IBEXXZ
_TEXT	SEGMENT
?_Xlen@?$vector@UtagShopItemExtraInfo@ioShopItemExtraInfoManager@@V?$allocator@UtagShopItemExtraInfo@ioShopItemExtraInfoManager@@@std@@@std@@IBEXXZ PROC ; std::vector<ioShopItemExtraInfoManager::tagShopItemExtraInfo,std::allocator<ioShopItemExtraInfoManager::tagShopItemExtraInfo> >::_Xlen, COMDAT
; _this$ = ecx

; 1427 : 		_Xlength_error("vector<T> too long");

  00000	68 00 00 00 00	 push	 OFFSET ??_C@_0BD@OLBABOEK@vector?$DMT?$DO?5too?5long?$AA@
  00005	ff 15 00 00 00
	00		 call	 DWORD PTR __imp_?_Xlength_error@std@@YAXPBD@Z
$LN4@Xlen@2:
$LN3@Xlen@2:
  0000b	cc		 int	 3
?_Xlen@?$vector@UtagShopItemExtraInfo@ioShopItemExtraInfoManager@@V?$allocator@UtagShopItemExtraInfo@ioShopItemExtraInfoManager@@@std@@@std@@IBEXXZ ENDP ; std::vector<ioShopItemExtraInfoManager::tagShopItemExtraInfo,std::allocator<ioShopItemExtraInfoManager::tagShopItemExtraInfo> >::_Xlen
_TEXT	ENDS
PUBLIC	??0?$allocator@UtagShopItemExtraInfo@ioShopItemExtraInfoManager@@@std@@QAE@ABV01@@Z ; std::allocator<ioShopItemExtraInfoManager::tagShopItemExtraInfo>::allocator<ioShopItemExtraInfoManager::tagShopItemExtraInfo>
; Function compile flags: /Ogsp
; File c:\program files (x86)\microsoft visual studio 10.0\vc\include\xmemory
;	COMDAT ??0?$allocator@UtagShopItemExtraInfo@ioShopItemExtraInfoManager@@@std@@QAE@ABV01@@Z
_TEXT	SEGMENT
___formal$ = 8						; size = 4
??0?$allocator@UtagShopItemExtraInfo@ioShopItemExtraInfoManager@@@std@@QAE@ABV01@@Z PROC ; std::allocator<ioShopItemExtraInfoManager::tagShopItemExtraInfo>::allocator<ioShopItemExtraInfoManager::tagShopItemExtraInfo>, COMDAT
; _this$ = ecx

; 165  : 	_ALLOCATOR(const _ALLOCATOR<_Ty>&) _THROW0()

  00000	8b c1		 mov	 eax, ecx

; 166  : 		{	// construct by copying (do nothing)
; 167  : 		}

  00002	c2 04 00	 ret	 4
??0?$allocator@UtagShopItemExtraInfo@ioShopItemExtraInfoManager@@@std@@QAE@ABV01@@Z ENDP ; std::allocator<ioShopItemExtraInfoManager::tagShopItemExtraInfo>::allocator<ioShopItemExtraInfoManager::tagShopItemExtraInfo>
_TEXT	ENDS
PUBLIC	?deallocate@?$allocator@UtagShopItemExtraInfo@ioShopItemExtraInfoManager@@@std@@QAEXPAUtagShopItemExtraInfo@ioShopItemExtraInfoManager@@I@Z ; std::allocator<ioShopItemExtraInfoManager::tagShopItemExtraInfo>::deallocate
; Function compile flags: /Ogsp
;	COMDAT ?deallocate@?$allocator@UtagShopItemExtraInfo@ioShopItemExtraInfoManager@@@std@@QAEXPAUtagShopItemExtraInfo@ioShopItemExtraInfoManager@@I@Z
_TEXT	SEGMENT
__Ptr$ = 8						; size = 4
___formal$ = 12						; size = 4
?deallocate@?$allocator@UtagShopItemExtraInfo@ioShopItemExtraInfoManager@@@std@@QAEXPAUtagShopItemExtraInfo@ioShopItemExtraInfoManager@@I@Z PROC ; std::allocator<ioShopItemExtraInfoManager::tagShopItemExtraInfo>::deallocate, COMDAT
; _this$ = ecx

; 181  : 		{	// deallocate object at _Ptr, ignore size

  00000	55		 push	 ebp
  00001	8b ec		 mov	 ebp, esp

; 182  : 		::operator delete(_Ptr);

  00003	ff 75 08	 push	 DWORD PTR __Ptr$[ebp]
  00006	e8 00 00 00 00	 call	 ??3@YAXPAX@Z		; operator delete
  0000b	59		 pop	 ecx

; 183  : 		}

  0000c	5d		 pop	 ebp
  0000d	c2 08 00	 ret	 8
?deallocate@?$allocator@UtagShopItemExtraInfo@ioShopItemExtraInfoManager@@@std@@QAEXPAUtagShopItemExtraInfo@ioShopItemExtraInfoManager@@I@Z ENDP ; std::allocator<ioShopItemExtraInfoManager::tagShopItemExtraInfo>::deallocate
_TEXT	ENDS
PUBLIC	?max_size@?$allocator@UtagShopItemExtraInfo@ioShopItemExtraInfoManager@@@std@@QBEIXZ ; std::allocator<ioShopItemExtraInfoManager::tagShopItemExtraInfo>::max_size
; Function compile flags: /Ogsp
;	COMDAT ?max_size@?$allocator@UtagShopItemExtraInfo@ioShopItemExtraInfoManager@@@std@@QBEIXZ
_TEXT	SEGMENT
?max_size@?$allocator@UtagShopItemExtraInfo@ioShopItemExtraInfoManager@@@std@@QBEIXZ PROC ; std::allocator<ioShopItemExtraInfoManager::tagShopItemExtraInfo>::max_size, COMDAT
; _this$ = ecx

; 218  : 		_SIZT _Count = (_SIZT)(-1) / sizeof (_Ty);
; 219  : 		return (0 < _Count ? _Count : 1);

  00000	b8 44 44 44 04	 mov	 eax, 71582788		; 04444444H

; 220  : 		}

  00005	c3		 ret	 0
?max_size@?$allocator@UtagShopItemExtraInfo@ioShopItemExtraInfoManager@@@std@@QBEIXZ ENDP ; std::allocator<ioShopItemExtraInfoManager::tagShopItemExtraInfo>::max_size
_TEXT	ENDS
PUBLIC	??0?$_Vector_const_iterator@V?$_Vector_val@UtagShopItemMovieInfo@ioShopItemExtraInfoManager@@V?$allocator@UtagShopItemMovieInfo@ioShopItemExtraInfoManager@@@std@@@std@@@std@@QAE@PAUtagShopItemMovieInfo@ioShopItemExtraInfoManager@@PBU_Container_base0@1@@Z ; std::_Vector_const_iterator<std::_Vector_val<ioShopItemExtraInfoManager::tagShopItemMovieInfo,std::allocator<ioShopItemExtraInfoManager::tagShopItemMovieInfo> > >::_Vector_const_iterator<std::_Vector_val<ioShopItemExtraInfoManager::tagShopItemMovieInfo,std::allocator<ioShopItemExtraInfoManager::tagShopItemMovieInfo> > >
; Function compile flags: /Ogsp
; File c:\program files (x86)\microsoft visual studio 10.0\vc\include\vector
;	COMDAT ??0?$_Vector_const_iterator@V?$_Vector_val@UtagShopItemMovieInfo@ioShopItemExtraInfoManager@@V?$allocator@UtagShopItemMovieInfo@ioShopItemExtraInfoManager@@@std@@@std@@@std@@QAE@PAUtagShopItemMovieInfo@ioShopItemExtraInfoManager@@PBU_Container_base0@1@@Z
_TEXT	SEGMENT
__Parg$ = 8						; size = 4
__Pvector$ = 12						; size = 4
??0?$_Vector_const_iterator@V?$_Vector_val@UtagShopItemMovieInfo@ioShopItemExtraInfoManager@@V?$allocator@UtagShopItemMovieInfo@ioShopItemExtraInfoManager@@@std@@@std@@@std@@QAE@PAUtagShopItemMovieInfo@ioShopItemExtraInfoManager@@PBU_Container_base0@1@@Z PROC ; std::_Vector_const_iterator<std::_Vector_val<ioShopItemExtraInfoManager::tagShopItemMovieInfo,std::allocator<ioShopItemExtraInfoManager::tagShopItemMovieInfo> > >::_Vector_const_iterator<std::_Vector_val<ioShopItemExtraInfoManager::tagShopItemMovieInfo,std::allocator<ioShopItemExtraInfoManager::tagShopItemMovieInfo> > >, COMDAT
; _this$ = ecx

; 45   : 		{	// construct with pointer _Parg

  00000	55		 push	 ebp
  00001	8b ec		 mov	 ebp, esp
  00003	8b c1		 mov	 eax, ecx
  00005	8b 4d 08	 mov	 ecx, DWORD PTR __Parg$[ebp]
  00008	89 08		 mov	 DWORD PTR [eax], ecx

; 46   : 		this->_Adopt(_Pvector);
; 47   : 		}

  0000a	5d		 pop	 ebp
  0000b	c2 08 00	 ret	 8
??0?$_Vector_const_iterator@V?$_Vector_val@UtagShopItemMovieInfo@ioShopItemExtraInfoManager@@V?$allocator@UtagShopItemMovieInfo@ioShopItemExtraInfoManager@@@std@@@std@@@std@@QAE@PAUtagShopItemMovieInfo@ioShopItemExtraInfoManager@@PBU_Container_base0@1@@Z ENDP ; std::_Vector_const_iterator<std::_Vector_val<ioShopItemExtraInfoManager::tagShopItemMovieInfo,std::allocator<ioShopItemExtraInfoManager::tagShopItemMovieInfo> > >::_Vector_const_iterator<std::_Vector_val<ioShopItemExtraInfoManager::tagShopItemMovieInfo,std::allocator<ioShopItemExtraInfoManager::tagShopItemMovieInfo> > >
_TEXT	ENDS
PUBLIC	??0?$_Vector_const_iterator@V?$_Vector_val@UtagShopItemExtraInfo@ioShopItemExtraInfoManager@@V?$allocator@UtagShopItemExtraInfo@ioShopItemExtraInfoManager@@@std@@@std@@@std@@QAE@PAUtagShopItemExtraInfo@ioShopItemExtraInfoManager@@PBU_Container_base0@1@@Z ; std::_Vector_const_iterator<std::_Vector_val<ioShopItemExtraInfoManager::tagShopItemExtraInfo,std::allocator<ioShopItemExtraInfoManager::tagShopItemExtraInfo> > >::_Vector_const_iterator<std::_Vector_val<ioShopItemExtraInfoManager::tagShopItemExtraInfo,std::allocator<ioShopItemExtraInfoManager::tagShopItemExtraInfo> > >
; Function compile flags: /Ogsp
;	COMDAT ??0?$_Vector_const_iterator@V?$_Vector_val@UtagShopItemExtraInfo@ioShopItemExtraInfoManager@@V?$allocator@UtagShopItemExtraInfo@ioShopItemExtraInfoManager@@@std@@@std@@@std@@QAE@PAUtagShopItemExtraInfo@ioShopItemExtraInfoManager@@PBU_Container_base0@1@@Z
_TEXT	SEGMENT
__Parg$ = 8						; size = 4
__Pvector$ = 12						; size = 4
??0?$_Vector_const_iterator@V?$_Vector_val@UtagShopItemExtraInfo@ioShopItemExtraInfoManager@@V?$allocator@UtagShopItemExtraInfo@ioShopItemExtraInfoManager@@@std@@@std@@@std@@QAE@PAUtagShopItemExtraInfo@ioShopItemExtraInfoManager@@PBU_Container_base0@1@@Z PROC ; std::_Vector_const_iterator<std::_Vector_val<ioShopItemExtraInfoManager::tagShopItemExtraInfo,std::allocator<ioShopItemExtraInfoManager::tagShopItemExtraInfo> > >::_Vector_const_iterator<std::_Vector_val<ioShopItemExtraInfoManager::tagShopItemExtraInfo,std::allocator<ioShopItemExtraInfoManager::tagShopItemExtraInfo> > >, COMDAT
; _this$ = ecx

; 45   : 		{	// construct with pointer _Parg

  00000	55		 push	 ebp
  00001	8b ec		 mov	 ebp, esp
  00003	8b c1		 mov	 eax, ecx
  00005	8b 4d 08	 mov	 ecx, DWORD PTR __Parg$[ebp]
  00008	89 08		 mov	 DWORD PTR [eax], ecx

; 46   : 		this->_Adopt(_Pvector);
; 47   : 		}

  0000a	5d		 pop	 ebp
  0000b	c2 08 00	 ret	 8
??0?$_Vector_const_iterator@V?$_Vector_val@UtagShopItemExtraInfo@ioShopItemExtraInfoManager@@V?$allocator@UtagShopItemExtraInfo@ioShopItemExtraInfoManager@@@std@@@std@@@std@@QAE@PAUtagShopItemExtraInfo@ioShopItemExtraInfoManager@@PBU_Container_base0@1@@Z ENDP ; std::_Vector_const_iterator<std::_Vector_val<ioShopItemExtraInfoManager::tagShopItemExtraInfo,std::allocator<ioShopItemExtraInfoManager::tagShopItemExtraInfo> > >::_Vector_const_iterator<std::_Vector_val<ioShopItemExtraInfoManager::tagShopItemExtraInfo,std::allocator<ioShopItemExtraInfoManager::tagShopItemExtraInfo> > >
_TEXT	ENDS
PUBLIC	?_Compat@?$_Vector_const_iterator@V?$_Vector_val@UtagShopItemMovieInfo@ioShopItemExtraInfoManager@@V?$allocator@UtagShopItemMovieInfo@ioShopItemExtraInfoManager@@@std@@@std@@@std@@QBEXABV12@@Z ; std::_Vector_const_iterator<std::_Vector_val<ioShopItemExtraInfoManager::tagShopItemMovieInfo,std::allocator<ioShopItemExtraInfoManager::tagShopItemMovieInfo> > >::_Compat
; Function compile flags: /Ogsp
;	COMDAT ?_Compat@?$_Vector_const_iterator@V?$_Vector_val@UtagShopItemMovieInfo@ioShopItemExtraInfoManager@@V?$allocator@UtagShopItemMovieInfo@ioShopItemExtraInfoManager@@@std@@@std@@@std@@QBEXABV12@@Z
_TEXT	SEGMENT
___formal$ = 8						; size = 4
?_Compat@?$_Vector_const_iterator@V?$_Vector_val@UtagShopItemMovieInfo@ioShopItemExtraInfoManager@@V?$allocator@UtagShopItemMovieInfo@ioShopItemExtraInfoManager@@@std@@@std@@@std@@QBEXABV12@@Z PROC ; std::_Vector_const_iterator<std::_Vector_val<ioShopItemExtraInfoManager::tagShopItemMovieInfo,std::allocator<ioShopItemExtraInfoManager::tagShopItemMovieInfo> > >::_Compat, COMDAT
; _this$ = ecx

; 253  : 		}

  00000	c2 04 00	 ret	 4
?_Compat@?$_Vector_const_iterator@V?$_Vector_val@UtagShopItemMovieInfo@ioShopItemExtraInfoManager@@V?$allocator@UtagShopItemMovieInfo@ioShopItemExtraInfoManager@@@std@@@std@@@std@@QBEXABV12@@Z ENDP ; std::_Vector_const_iterator<std::_Vector_val<ioShopItemExtraInfoManager::tagShopItemMovieInfo,std::allocator<ioShopItemExtraInfoManager::tagShopItemMovieInfo> > >::_Compat
_TEXT	ENDS
PUBLIC	?_Compat@?$_Vector_const_iterator@V?$_Vector_val@UtagShopItemExtraInfo@ioShopItemExtraInfoManager@@V?$allocator@UtagShopItemExtraInfo@ioShopItemExtraInfoManager@@@std@@@std@@@std@@QBEXABV12@@Z ; std::_Vector_const_iterator<std::_Vector_val<ioShopItemExtraInfoManager::tagShopItemExtraInfo,std::allocator<ioShopItemExtraInfoManager::tagShopItemExtraInfo> > >::_Compat
; Function compile flags: /Ogsp
;	COMDAT ?_Compat@?$_Vector_const_iterator@V?$_Vector_val@UtagShopItemExtraInfo@ioShopItemExtraInfoManager@@V?$allocator@UtagShopItemExtraInfo@ioShopItemExtraInfoManager@@@std@@@std@@@std@@QBEXABV12@@Z
_TEXT	SEGMENT
___formal$ = 8						; size = 4
?_Compat@?$_Vector_const_iterator@V?$_Vector_val@UtagShopItemExtraInfo@ioShopItemExtraInfoManager@@V?$allocator@UtagShopItemExtraInfo@ioShopItemExtraInfoManager@@@std@@@std@@@std@@QBEXABV12@@Z PROC ; std::_Vector_const_iterator<std::_Vector_val<ioShopItemExtraInfoManager::tagShopItemExtraInfo,std::allocator<ioShopItemExtraInfoManager::tagShopItemExtraInfo> > >::_Compat, COMDAT
; _this$ = ecx

; 253  : 		}

  00000	c2 04 00	 ret	 4
?_Compat@?$_Vector_const_iterator@V?$_Vector_val@UtagShopItemExtraInfo@ioShopItemExtraInfoManager@@V?$allocator@UtagShopItemExtraInfo@ioShopItemExtraInfoManager@@@std@@@std@@@std@@QBEXABV12@@Z ENDP ; std::_Vector_const_iterator<std::_Vector_val<ioShopItemExtraInfoManager::tagShopItemExtraInfo,std::allocator<ioShopItemExtraInfoManager::tagShopItemExtraInfo> > >::_Compat
_TEXT	ENDS
PUBLIC	??$addressof@$$CBH@std@@YAPBHABH@Z		; std::addressof<int const >
; Function compile flags: /Ogsp
; File c:\program files (x86)\microsoft visual studio 10.0\vc\include\xmemory
;	COMDAT ??$addressof@$$CBH@std@@YAPBHABH@Z
_TEXT	SEGMENT
__Val$ = 8						; size = 4
??$addressof@$$CBH@std@@YAPBHABH@Z PROC			; std::addressof<int const >, COMDAT

; 110  : 	{	// return address of _Val

  00000	55		 push	 ebp
  00001	8b ec		 mov	 ebp, esp

; 111  : 	return ((_Ty *) &(char&)_Val);

  00003	8b 45 08	 mov	 eax, DWORD PTR __Val$[ebp]

; 112  : 	}

  00006	5d		 pop	 ebp
  00007	c3		 ret	 0
??$addressof@$$CBH@std@@YAPBHABH@Z ENDP			; std::addressof<int const >
_TEXT	ENDS
PUBLIC	??$addressof@$$CBUtagShopItemMovieInfo@ioShopItemExtraInfoManager@@@std@@YAPBUtagShopItemMovieInfo@ioShopItemExtraInfoManager@@ABU12@@Z ; std::addressof<ioShopItemExtraInfoManager::tagShopItemMovieInfo const >
; Function compile flags: /Ogsp
;	COMDAT ??$addressof@$$CBUtagShopItemMovieInfo@ioShopItemExtraInfoManager@@@std@@YAPBUtagShopItemMovieInfo@ioShopItemExtraInfoManager@@ABU12@@Z
_TEXT	SEGMENT
__Val$ = 8						; size = 4
??$addressof@$$CBUtagShopItemMovieInfo@ioShopItemExtraInfoManager@@@std@@YAPBUtagShopItemMovieInfo@ioShopItemExtraInfoManager@@ABU12@@Z PROC ; std::addressof<ioShopItemExtraInfoManager::tagShopItemMovieInfo const >, COMDAT

; 110  : 	{	// return address of _Val

  00000	55		 push	 ebp
  00001	8b ec		 mov	 ebp, esp

; 111  : 	return ((_Ty *) &(char&)_Val);

  00003	8b 45 08	 mov	 eax, DWORD PTR __Val$[ebp]

; 112  : 	}

  00006	5d		 pop	 ebp
  00007	c3		 ret	 0
??$addressof@$$CBUtagShopItemMovieInfo@ioShopItemExtraInfoManager@@@std@@YAPBUtagShopItemMovieInfo@ioShopItemExtraInfoManager@@ABU12@@Z ENDP ; std::addressof<ioShopItemExtraInfoManager::tagShopItemMovieInfo const >
_TEXT	ENDS
PUBLIC	??$addressof@$$CBUtagShopItemExtraInfo@ioShopItemExtraInfoManager@@@std@@YAPBUtagShopItemExtraInfo@ioShopItemExtraInfoManager@@ABU12@@Z ; std::addressof<ioShopItemExtraInfoManager::tagShopItemExtraInfo const >
; Function compile flags: /Ogsp
;	COMDAT ??$addressof@$$CBUtagShopItemExtraInfo@ioShopItemExtraInfoManager@@@std@@YAPBUtagShopItemExtraInfo@ioShopItemExtraInfoManager@@ABU12@@Z
_TEXT	SEGMENT
__Val$ = 8						; size = 4
??$addressof@$$CBUtagShopItemExtraInfo@ioShopItemExtraInfoManager@@@std@@YAPBUtagShopItemExtraInfo@ioShopItemExtraInfoManager@@ABU12@@Z PROC ; std::addressof<ioShopItemExtraInfoManager::tagShopItemExtraInfo const >, COMDAT

; 110  : 	{	// return address of _Val

  00000	55		 push	 ebp
  00001	8b ec		 mov	 ebp, esp

; 111  : 	return ((_Ty *) &(char&)_Val);

  00003	8b 45 08	 mov	 eax, DWORD PTR __Val$[ebp]

; 112  : 	}

  00006	5d		 pop	 ebp
  00007	c3		 ret	 0
??$addressof@$$CBUtagShopItemExtraInfo@ioShopItemExtraInfoManager@@@std@@YAPBUtagShopItemExtraInfo@ioShopItemExtraInfoManager@@ABU12@@Z ENDP ; std::addressof<ioShopItemExtraInfoManager::tagShopItemExtraInfo const >
_TEXT	ENDS
PUBLIC	__TI2?AVbad_alloc@std@@
PUBLIC	??$_Allocate@UtagShopItemMovieInfo@ioShopItemExtraInfoManager@@@std@@YAPAUtagShopItemMovieInfo@ioShopItemExtraInfoManager@@IPAU12@@Z ; std::_Allocate<ioShopItemExtraInfoManager::tagShopItemMovieInfo>
PUBLIC	__CTA2?AVbad_alloc@std@@
PUBLIC	__CT??_R0?AVbad_alloc@std@@@8??0bad_alloc@std@@QAE@ABV01@@Z12
PUBLIC	??0bad_alloc@std@@QAE@ABV01@@Z			; std::bad_alloc::bad_alloc
PUBLIC	__CT??_R0?AVexception@std@@@8??0exception@std@@QAE@ABV01@@Z12
EXTRN	??2@YAPAXI@Z:PROC				; operator new
EXTRN	__CxxThrowException@8:PROC
EXTRN	??0exception@std@@QAE@ABV01@@Z:PROC		; std::exception::exception
;	COMDAT __CT??_R0?AVexception@std@@@8??0exception@std@@QAE@ABV01@@Z12
; File c:\program files (x86)\microsoft visual studio 10.0\vc\include\exception
xdata$x	SEGMENT
__CT??_R0?AVexception@std@@@8??0exception@std@@QAE@ABV01@@Z12 DD 00H
	DD	FLAT:??_R0?AVexception@std@@@8
	DD	00H
	DD	0ffffffffH
	ORG $+4
	DD	0cH
	DD	FLAT:??0exception@std@@QAE@ABV01@@Z
xdata$x	ENDS
;	COMDAT __CT??_R0?AVbad_alloc@std@@@8??0bad_alloc@std@@QAE@ABV01@@Z12
xdata$x	SEGMENT
__CT??_R0?AVbad_alloc@std@@@8??0bad_alloc@std@@QAE@ABV01@@Z12 DD 00H
	DD	FLAT:??_R0?AVbad_alloc@std@@@8
	DD	00H
	DD	0ffffffffH
	ORG $+4
	DD	0cH
	DD	FLAT:??0bad_alloc@std@@QAE@ABV01@@Z
xdata$x	ENDS
;	COMDAT __CTA2?AVbad_alloc@std@@
xdata$x	SEGMENT
__CTA2?AVbad_alloc@std@@ DD 02H
	DD	FLAT:__CT??_R0?AVbad_alloc@std@@@8??0bad_alloc@std@@QAE@ABV01@@Z12
	DD	FLAT:__CT??_R0?AVexception@std@@@8??0exception@std@@QAE@ABV01@@Z12
xdata$x	ENDS
;	COMDAT __TI2?AVbad_alloc@std@@
xdata$x	SEGMENT
__TI2?AVbad_alloc@std@@ DD 00H
	DD	FLAT:??1bad_alloc@std@@UAE@XZ
	DD	00H
	DD	FLAT:__CTA2?AVbad_alloc@std@@
; Function compile flags: /Ogsp
; File c:\program files (x86)\microsoft visual studio 10.0\vc\include\xmemory
xdata$x	ENDS
;	COMDAT ??$_Allocate@UtagShopItemMovieInfo@ioShopItemExtraInfoManager@@@std@@YAPAUtagShopItemMovieInfo@ioShopItemExtraInfoManager@@IPAU12@@Z
_TEXT	SEGMENT
$T510535 = -12						; size = 12
$T510540 = 8						; size = 4
__Count$ = 8						; size = 4
___formal$ = 12						; size = 4
??$_Allocate@UtagShopItemMovieInfo@ioShopItemExtraInfoManager@@@std@@YAPAUtagShopItemMovieInfo@ioShopItemExtraInfoManager@@IPAU12@@Z PROC ; std::_Allocate<ioShopItemExtraInfoManager::tagShopItemMovieInfo>, COMDAT

; 30   : 	{	// allocate storage for _Count elements of type _Ty

  00000	55		 push	 ebp
  00001	8b ec		 mov	 ebp, esp

; 31   : 	void *_Ptr = 0;
; 32   : 
; 33   : 	if (_Count <= 0)

  00003	8b 4d 08	 mov	 ecx, DWORD PTR __Count$[ebp]
  00006	83 ec 0c	 sub	 esp, 12			; 0000000cH
  00009	33 c0		 xor	 eax, eax
  0000b	85 c9		 test	 ecx, ecx

; 34   : 		_Count = 0;
; 35   : 	else if (((_SIZT)(-1) / sizeof (_Ty) < _Count)

  0000d	74 3c		 je	 SHORT $LN5@Allocate

; 36   : 		|| (_Ptr = ::operator new(_Count * sizeof (_Ty))) == 0)

  0000f	81 f9 c4 4e ec
	04		 cmp	 ecx, 82595524		; 04ec4ec4H
  00015	77 0e		 ja	 SHORT $LN1@Allocate
  00017	6b c9 34	 imul	 ecx, 52			; 00000034H
  0001a	51		 push	 ecx
  0001b	e8 00 00 00 00	 call	 ??2@YAPAXI@Z		; operator new
  00020	59		 pop	 ecx
  00021	85 c0		 test	 eax, eax

; 38   : 
; 39   : 	return ((_Ty _FARQ *)_Ptr);

  00023	75 26		 jne	 SHORT $LN5@Allocate
$LN1@Allocate:

; 37   : 		_THROW_NCEE(bad_alloc, 0);

  00025	83 65 08 00	 and	 DWORD PTR $T510540[ebp], 0
  00029	8d 45 08	 lea	 eax, DWORD PTR $T510540[ebp]
  0002c	50		 push	 eax
  0002d	8d 4d f4	 lea	 ecx, DWORD PTR $T510535[ebp]
  00030	ff 15 00 00 00
	00		 call	 DWORD PTR __imp_??0exception@std@@QAE@ABQBD@Z
  00036	68 00 00 00 00	 push	 OFFSET __TI2?AVbad_alloc@std@@
  0003b	8d 45 f4	 lea	 eax, DWORD PTR $T510535[ebp]
  0003e	50		 push	 eax
  0003f	c7 45 f4 00 00
	00 00		 mov	 DWORD PTR $T510535[ebp], OFFSET ??_7bad_alloc@std@@6B@
  00046	e8 00 00 00 00	 call	 __CxxThrowException@8
$LN10@Allocate:
$LN5@Allocate:

; 40   : 	}

  0004b	c9		 leave
  0004c	c3		 ret	 0
$LN9@Allocate:
??$_Allocate@UtagShopItemMovieInfo@ioShopItemExtraInfoManager@@@std@@YAPAUtagShopItemMovieInfo@ioShopItemExtraInfoManager@@IPAU12@@Z ENDP ; std::_Allocate<ioShopItemExtraInfoManager::tagShopItemMovieInfo>
_TEXT	ENDS
PUBLIC	??$_Allocate@UtagShopItemExtraInfo@ioShopItemExtraInfoManager@@@std@@YAPAUtagShopItemExtraInfo@ioShopItemExtraInfoManager@@IPAU12@@Z ; std::_Allocate<ioShopItemExtraInfoManager::tagShopItemExtraInfo>
; Function compile flags: /Ogsp
;	COMDAT ??$_Allocate@UtagShopItemExtraInfo@ioShopItemExtraInfoManager@@@std@@YAPAUtagShopItemExtraInfo@ioShopItemExtraInfoManager@@IPAU12@@Z
_TEXT	SEGMENT
$T510545 = -12						; size = 12
$T510549 = 8						; size = 4
__Count$ = 8						; size = 4
___formal$ = 12						; size = 4
??$_Allocate@UtagShopItemExtraInfo@ioShopItemExtraInfoManager@@@std@@YAPAUtagShopItemExtraInfo@ioShopItemExtraInfoManager@@IPAU12@@Z PROC ; std::_Allocate<ioShopItemExtraInfoManager::tagShopItemExtraInfo>, COMDAT

; 30   : 	{	// allocate storage for _Count elements of type _Ty

  00000	55		 push	 ebp
  00001	8b ec		 mov	 ebp, esp

; 31   : 	void *_Ptr = 0;
; 32   : 
; 33   : 	if (_Count <= 0)

  00003	8b 4d 08	 mov	 ecx, DWORD PTR __Count$[ebp]
  00006	83 ec 0c	 sub	 esp, 12			; 0000000cH
  00009	33 c0		 xor	 eax, eax
  0000b	85 c9		 test	 ecx, ecx

; 34   : 		_Count = 0;
; 35   : 	else if (((_SIZT)(-1) / sizeof (_Ty) < _Count)

  0000d	74 3c		 je	 SHORT $LN5@Allocate@2

; 36   : 		|| (_Ptr = ::operator new(_Count * sizeof (_Ty))) == 0)

  0000f	81 f9 44 44 44
	04		 cmp	 ecx, 71582788		; 04444444H
  00015	77 0e		 ja	 SHORT $LN1@Allocate@2
  00017	6b c9 3c	 imul	 ecx, 60			; 0000003cH
  0001a	51		 push	 ecx
  0001b	e8 00 00 00 00	 call	 ??2@YAPAXI@Z		; operator new
  00020	59		 pop	 ecx
  00021	85 c0		 test	 eax, eax

; 38   : 
; 39   : 	return ((_Ty _FARQ *)_Ptr);

  00023	75 26		 jne	 SHORT $LN5@Allocate@2
$LN1@Allocate@2:

; 37   : 		_THROW_NCEE(bad_alloc, 0);

  00025	83 65 08 00	 and	 DWORD PTR $T510549[ebp], 0
  00029	8d 45 08	 lea	 eax, DWORD PTR $T510549[ebp]
  0002c	50		 push	 eax
  0002d	8d 4d f4	 lea	 ecx, DWORD PTR $T510545[ebp]
  00030	ff 15 00 00 00
	00		 call	 DWORD PTR __imp_??0exception@std@@QAE@ABQBD@Z
  00036	68 00 00 00 00	 push	 OFFSET __TI2?AVbad_alloc@std@@
  0003b	8d 45 f4	 lea	 eax, DWORD PTR $T510545[ebp]
  0003e	50		 push	 eax
  0003f	c7 45 f4 00 00
	00 00		 mov	 DWORD PTR $T510545[ebp], OFFSET ??_7bad_alloc@std@@6B@
  00046	e8 00 00 00 00	 call	 __CxxThrowException@8
$LN10@Allocate@2:
$LN5@Allocate@2:

; 40   : 	}

  0004b	c9		 leave
  0004c	c3		 ret	 0
$LN9@Allocate@2:
??$_Allocate@UtagShopItemExtraInfo@ioShopItemExtraInfoManager@@@std@@YAPAUtagShopItemExtraInfo@ioShopItemExtraInfoManager@@IPAU12@@Z ENDP ; std::_Allocate<ioShopItemExtraInfoManager::tagShopItemExtraInfo>
_TEXT	ENDS
PUBLIC	??$forward@ABH@std@@YAABHABH@Z			; std::forward<int const &>
; Function compile flags: /Ogsp
; File c:\program files (x86)\microsoft visual studio 10.0\vc\include\utility
;	COMDAT ??$forward@ABH@std@@YAABHABH@Z
_TEXT	SEGMENT
__Arg$ = 8						; size = 4
??$forward@ABH@std@@YAABHABH@Z PROC			; std::forward<int const &>, COMDAT

; 78   : 	{	// forward _Arg, given explicitly specified type parameter

  00000	55		 push	 ebp
  00001	8b ec		 mov	 ebp, esp

; 79   : 	return ((_Ty&&)_Arg);

  00003	8b 45 08	 mov	 eax, DWORD PTR __Arg$[ebp]

; 80   : 	}

  00006	5d		 pop	 ebp
  00007	c3		 ret	 0
??$forward@ABH@std@@YAABHABH@Z ENDP			; std::forward<int const &>
_TEXT	ENDS
PUBLIC	??$forward@AAUtagShopItemMovieInfo@ioShopItemExtraInfoManager@@@std@@YAAAUtagShopItemMovieInfo@ioShopItemExtraInfoManager@@AAU12@@Z ; std::forward<ioShopItemExtraInfoManager::tagShopItemMovieInfo &>
; Function compile flags: /Ogsp
;	COMDAT ??$forward@AAUtagShopItemMovieInfo@ioShopItemExtraInfoManager@@@std@@YAAAUtagShopItemMovieInfo@ioShopItemExtraInfoManager@@AAU12@@Z
_TEXT	SEGMENT
__Arg$ = 8						; size = 4
??$forward@AAUtagShopItemMovieInfo@ioShopItemExtraInfoManager@@@std@@YAAAUtagShopItemMovieInfo@ioShopItemExtraInfoManager@@AAU12@@Z PROC ; std::forward<ioShopItemExtraInfoManager::tagShopItemMovieInfo &>, COMDAT

; 78   : 	{	// forward _Arg, given explicitly specified type parameter

  00000	55		 push	 ebp
  00001	8b ec		 mov	 ebp, esp

; 79   : 	return ((_Ty&&)_Arg);

  00003	8b 45 08	 mov	 eax, DWORD PTR __Arg$[ebp]

; 80   : 	}

  00006	5d		 pop	 ebp
  00007	c3		 ret	 0
??$forward@AAUtagShopItemMovieInfo@ioShopItemExtraInfoManager@@@std@@YAAAUtagShopItemMovieInfo@ioShopItemExtraInfoManager@@AAU12@@Z ENDP ; std::forward<ioShopItemExtraInfoManager::tagShopItemMovieInfo &>
_TEXT	ENDS
PUBLIC	??$forward@ABUtagShopItemMovieInfo@ioShopItemExtraInfoManager@@@std@@YAABUtagShopItemMovieInfo@ioShopItemExtraInfoManager@@ABU12@@Z ; std::forward<ioShopItemExtraInfoManager::tagShopItemMovieInfo const &>
; Function compile flags: /Ogsp
;	COMDAT ??$forward@ABUtagShopItemMovieInfo@ioShopItemExtraInfoManager@@@std@@YAABUtagShopItemMovieInfo@ioShopItemExtraInfoManager@@ABU12@@Z
_TEXT	SEGMENT
__Arg$ = 8						; size = 4
??$forward@ABUtagShopItemMovieInfo@ioShopItemExtraInfoManager@@@std@@YAABUtagShopItemMovieInfo@ioShopItemExtraInfoManager@@ABU12@@Z PROC ; std::forward<ioShopItemExtraInfoManager::tagShopItemMovieInfo const &>, COMDAT

; 78   : 	{	// forward _Arg, given explicitly specified type parameter

  00000	55		 push	 ebp
  00001	8b ec		 mov	 ebp, esp

; 79   : 	return ((_Ty&&)_Arg);

  00003	8b 45 08	 mov	 eax, DWORD PTR __Arg$[ebp]

; 80   : 	}

  00006	5d		 pop	 ebp
  00007	c3		 ret	 0
??$forward@ABUtagShopItemMovieInfo@ioShopItemExtraInfoManager@@@std@@YAABUtagShopItemMovieInfo@ioShopItemExtraInfoManager@@ABU12@@Z ENDP ; std::forward<ioShopItemExtraInfoManager::tagShopItemMovieInfo const &>
_TEXT	ENDS
PUBLIC	??$forward@AAUtagShopItemExtraInfo@ioShopItemExtraInfoManager@@@std@@YAAAUtagShopItemExtraInfo@ioShopItemExtraInfoManager@@AAU12@@Z ; std::forward<ioShopItemExtraInfoManager::tagShopItemExtraInfo &>
; Function compile flags: /Ogsp
;	COMDAT ??$forward@AAUtagShopItemExtraInfo@ioShopItemExtraInfoManager@@@std@@YAAAUtagShopItemExtraInfo@ioShopItemExtraInfoManager@@AAU12@@Z
_TEXT	SEGMENT
__Arg$ = 8						; size = 4
??$forward@AAUtagShopItemExtraInfo@ioShopItemExtraInfoManager@@@std@@YAAAUtagShopItemExtraInfo@ioShopItemExtraInfoManager@@AAU12@@Z PROC ; std::forward<ioShopItemExtraInfoManager::tagShopItemExtraInfo &>, COMDAT

; 78   : 	{	// forward _Arg, given explicitly specified type parameter

  00000	55		 push	 ebp
  00001	8b ec		 mov	 ebp, esp

; 79   : 	return ((_Ty&&)_Arg);

  00003	8b 45 08	 mov	 eax, DWORD PTR __Arg$[ebp]

; 80   : 	}

  00006	5d		 pop	 ebp
  00007	c3		 ret	 0
??$forward@AAUtagShopItemExtraInfo@ioShopItemExtraInfoManager@@@std@@YAAAUtagShopItemExtraInfo@ioShopItemExtraInfoManager@@AAU12@@Z ENDP ; std::forward<ioShopItemExtraInfoManager::tagShopItemExtraInfo &>
_TEXT	ENDS
PUBLIC	??$forward@ABUtagShopItemExtraInfo@ioShopItemExtraInfoManager@@@std@@YAABUtagShopItemExtraInfo@ioShopItemExtraInfoManager@@ABU12@@Z ; std::forward<ioShopItemExtraInfoManager::tagShopItemExtraInfo const &>
; Function compile flags: /Ogsp
;	COMDAT ??$forward@ABUtagShopItemExtraInfo@ioShopItemExtraInfoManager@@@std@@YAABUtagShopItemExtraInfo@ioShopItemExtraInfoManager@@ABU12@@Z
_TEXT	SEGMENT
__Arg$ = 8						; size = 4
??$forward@ABUtagShopItemExtraInfo@ioShopItemExtraInfoManager@@@std@@YAABUtagShopItemExtraInfo@ioShopItemExtraInfoManager@@ABU12@@Z PROC ; std::forward<ioShopItemExtraInfoManager::tagShopItemExtraInfo const &>, COMDAT

; 78   : 	{	// forward _Arg, given explicitly specified type parameter

  00000	55		 push	 ebp
  00001	8b ec		 mov	 ebp, esp

; 79   : 	return ((_Ty&&)_Arg);

  00003	8b 45 08	 mov	 eax, DWORD PTR __Arg$[ebp]

; 80   : 	}

  00006	5d		 pop	 ebp
  00007	c3		 ret	 0
??$forward@ABUtagShopItemExtraInfo@ioShopItemExtraInfoManager@@@std@@YAABUtagShopItemExtraInfo@ioShopItemExtraInfoManager@@ABU12@@Z ENDP ; std::forward<ioShopItemExtraInfoManager::tagShopItemExtraInfo const &>
_TEXT	ENDS
PUBLIC	??$_Ptr_cat@UtagShopItemMovieInfo@ioShopItemExtraInfoManager@@U12@@std@@YA?AU_Nonscalar_ptr_iterator_tag@0@PAUtagShopItemMovieInfo@ioShopItemExtraInfoManager@@0@Z ; std::_Ptr_cat<ioShopItemExtraInfoManager::tagShopItemMovieInfo,ioShopItemExtraInfoManager::tagShopItemMovieInfo>
; Function compile flags: /Ogsp
; File c:\program files (x86)\microsoft visual studio 10.0\vc\include\xutility
;	COMDAT ??$_Ptr_cat@UtagShopItemMovieInfo@ioShopItemExtraInfoManager@@U12@@std@@YA?AU_Nonscalar_ptr_iterator_tag@0@PAUtagShopItemMovieInfo@ioShopItemExtraInfoManager@@0@Z
_TEXT	SEGMENT
__Cat$ = -1						; size = 1
___formal$ = 8						; size = 4
___formal$ = 12						; size = 4
??$_Ptr_cat@UtagShopItemMovieInfo@ioShopItemExtraInfoManager@@U12@@std@@YA?AU_Nonscalar_ptr_iterator_tag@0@PAUtagShopItemMovieInfo@ioShopItemExtraInfoManager@@0@Z PROC ; std::_Ptr_cat<ioShopItemExtraInfoManager::tagShopItemMovieInfo,ioShopItemExtraInfoManager::tagShopItemMovieInfo>, COMDAT

; 516  : 	{	// return pointer category from pointers

  00000	55		 push	 ebp
  00001	8b ec		 mov	 ebp, esp
  00003	51		 push	 ecx

; 517  : 	typename _Ptr_cat_helper<_Elem1, _Elem2>::_Type _Cat;
; 518  : 	return (_Cat);

  00004	8a 45 ff	 mov	 al, BYTE PTR __Cat$[ebp]

; 519  : 	}

  00007	c9		 leave
  00008	c3		 ret	 0
??$_Ptr_cat@UtagShopItemMovieInfo@ioShopItemExtraInfoManager@@U12@@std@@YA?AU_Nonscalar_ptr_iterator_tag@0@PAUtagShopItemMovieInfo@ioShopItemExtraInfoManager@@0@Z ENDP ; std::_Ptr_cat<ioShopItemExtraInfoManager::tagShopItemMovieInfo,ioShopItemExtraInfoManager::tagShopItemMovieInfo>
_TEXT	ENDS
PUBLIC	??$_Ptr_cat@UtagShopItemExtraInfo@ioShopItemExtraInfoManager@@U12@@std@@YA?AU_Nonscalar_ptr_iterator_tag@0@PAUtagShopItemExtraInfo@ioShopItemExtraInfoManager@@0@Z ; std::_Ptr_cat<ioShopItemExtraInfoManager::tagShopItemExtraInfo,ioShopItemExtraInfoManager::tagShopItemExtraInfo>
; Function compile flags: /Ogsp
;	COMDAT ??$_Ptr_cat@UtagShopItemExtraInfo@ioShopItemExtraInfoManager@@U12@@std@@YA?AU_Nonscalar_ptr_iterator_tag@0@PAUtagShopItemExtraInfo@ioShopItemExtraInfoManager@@0@Z
_TEXT	SEGMENT
__Cat$ = -1						; size = 1
___formal$ = 8						; size = 4
___formal$ = 12						; size = 4
??$_Ptr_cat@UtagShopItemExtraInfo@ioShopItemExtraInfoManager@@U12@@std@@YA?AU_Nonscalar_ptr_iterator_tag@0@PAUtagShopItemExtraInfo@ioShopItemExtraInfoManager@@0@Z PROC ; std::_Ptr_cat<ioShopItemExtraInfoManager::tagShopItemExtraInfo,ioShopItemExtraInfoManager::tagShopItemExtraInfo>, COMDAT

; 516  : 	{	// return pointer category from pointers

  00000	55		 push	 ebp
  00001	8b ec		 mov	 ebp, esp
  00003	51		 push	 ecx

; 517  : 	typename _Ptr_cat_helper<_Elem1, _Elem2>::_Type _Cat;
; 518  : 	return (_Cat);

  00004	8a 45 ff	 mov	 al, BYTE PTR __Cat$[ebp]

; 519  : 	}

  00007	c9		 leave
  00008	c3		 ret	 0
??$_Ptr_cat@UtagShopItemExtraInfo@ioShopItemExtraInfoManager@@U12@@std@@YA?AU_Nonscalar_ptr_iterator_tag@0@PAUtagShopItemExtraInfo@ioShopItemExtraInfoManager@@0@Z ENDP ; std::_Ptr_cat<ioShopItemExtraInfoManager::tagShopItemExtraInfo,ioShopItemExtraInfoManager::tagShopItemExtraInfo>
_TEXT	ENDS
PUBLIC	??$_Construct@HABH@std@@YAXPAHABH@Z		; std::_Construct<int,int const &>
; Function compile flags: /Ogsp
; File c:\program files (x86)\microsoft visual studio 10.0\vc\include\xmemory
;	COMDAT ??$_Construct@HABH@std@@YAXPAHABH@Z
_TEXT	SEGMENT
__Ptr$ = 8						; size = 4
__Val$ = 12						; size = 4
??$_Construct@HABH@std@@YAXPAHABH@Z PROC		; std::_Construct<int,int const &>, COMDAT

; 46   : 	{	// construct object at _Ptr with value _Val

  00000	55		 push	 ebp
  00001	8b ec		 mov	 ebp, esp

; 47   : 	void _FARQ *_Vptr = _Ptr;
; 48   : 	::new (_Vptr) _Ty1(_STD forward<_Ty2>(_Val));

  00003	8b 45 08	 mov	 eax, DWORD PTR __Ptr$[ebp]
  00006	85 c0		 test	 eax, eax
  00008	74 07		 je	 SHORT $LN3@Construct
  0000a	8b 4d 0c	 mov	 ecx, DWORD PTR __Val$[ebp]
  0000d	8b 09		 mov	 ecx, DWORD PTR [ecx]
  0000f	89 08		 mov	 DWORD PTR [eax], ecx
$LN3@Construct:

; 49   : 	}

  00011	5d		 pop	 ebp
  00012	c3		 ret	 0
??$_Construct@HABH@std@@YAXPAHABH@Z ENDP		; std::_Construct<int,int const &>
_TEXT	ENDS
PUBLIC	??0tagShopItemMovieInfo@ioShopItemExtraInfoManager@@QAE@ABU01@@Z ; ioShopItemExtraInfoManager::tagShopItemMovieInfo::tagShopItemMovieInfo
EXTRN	__imp_??0ioHashString@@QAE@ABV0@@Z:PROC
;	COMDAT xdata$x
xdata$x	SEGMENT
__unwindtable$??0tagShopItemMovieInfo@ioShopItemExtraInfoManager@@QAE@ABU01@@Z DD 0ffffffffH
	DD	FLAT:__unwindfunclet$??0tagShopItemMovieInfo@ioShopItemExtraInfoManager@@QAE@ABU01@@Z$0
	DD	00H
	DD	FLAT:__unwindfunclet$??0tagShopItemMovieInfo@ioShopItemExtraInfoManager@@QAE@ABU01@@Z$1
__ehfuncinfo$??0tagShopItemMovieInfo@ioShopItemExtraInfoManager@@QAE@ABU01@@Z DD 019930522H
	DD	02H
	DD	FLAT:__unwindtable$??0tagShopItemMovieInfo@ioShopItemExtraInfoManager@@QAE@ABU01@@Z
	DD	2 DUP(00H)
	DD	2 DUP(00H)
	DD	00H
	DD	01H
; Function compile flags: /Ogsp
xdata$x	ENDS
;	COMDAT ??0tagShopItemMovieInfo@ioShopItemExtraInfoManager@@QAE@ABU01@@Z
_TEXT	SEGMENT
_this$ = -16						; size = 4
__$EHRec$ = -12						; size = 12
___that$ = 8						; size = 4
??0tagShopItemMovieInfo@ioShopItemExtraInfoManager@@QAE@ABU01@@Z PROC ; ioShopItemExtraInfoManager::tagShopItemMovieInfo::tagShopItemMovieInfo, COMDAT
; _this$ = ecx
  00000	6a 04		 push	 4
  00002	b8 00 00 00 00	 mov	 eax, __ehhandler$??0tagShopItemMovieInfo@ioShopItemExtraInfoManager@@QAE@ABU01@@Z
  00007	e8 00 00 00 00	 call	 __EH_prolog3
  0000c	8b f1		 mov	 esi, ecx
  0000e	89 75 f0	 mov	 DWORD PTR _this$[ebp], esi
  00011	8b 5d 08	 mov	 ebx, DWORD PTR ___that$[ebp]
  00014	8b 3d 00 00 00
	00		 mov	 edi, DWORD PTR __imp_??0ioHashString@@QAE@ABV0@@Z
  0001a	53		 push	 ebx
  0001b	ff d7		 call	 edi
  0001d	83 65 fc 00	 and	 DWORD PTR __$EHRec$[ebp+8], 0
  00021	8d 43 10	 lea	 eax, DWORD PTR [ebx+16]
  00024	50		 push	 eax
  00025	8d 4e 10	 lea	 ecx, DWORD PTR [esi+16]
  00028	ff d7		 call	 edi
  0002a	8d 43 20	 lea	 eax, DWORD PTR [ebx+32]
  0002d	50		 push	 eax
  0002e	8d 4e 20	 lea	 ecx, DWORD PTR [esi+32]
  00031	c6 45 fc 01	 mov	 BYTE PTR __$EHRec$[ebp+8], 1
  00035	ff d7		 call	 edi
  00037	8a 43 30	 mov	 al, BYTE PTR [ebx+48]
  0003a	88 46 30	 mov	 BYTE PTR [esi+48], al
  0003d	8b c6		 mov	 eax, esi
  0003f	e8 00 00 00 00	 call	 __EH_epilog3
  00044	c2 04 00	 ret	 4
_TEXT	ENDS
;	COMDAT text$x
text$x	SEGMENT
__unwindfunclet$??0tagShopItemMovieInfo@ioShopItemExtraInfoManager@@QAE@ABU01@@Z$0:
  00000	8b 4d f0	 mov	 ecx, DWORD PTR _this$[ebp]
  00003	ff 25 00 00 00
	00		 jmp	 DWORD PTR __imp_??1ioHashString@@QAE@XZ
__unwindfunclet$??0tagShopItemMovieInfo@ioShopItemExtraInfoManager@@QAE@ABU01@@Z$1:
  00009	8b 4d f0	 mov	 ecx, DWORD PTR _this$[ebp]
  0000c	83 c1 10	 add	 ecx, 16			; 00000010H
  0000f	ff 25 00 00 00
	00		 jmp	 DWORD PTR __imp_??1ioHashString@@QAE@XZ
__ehhandler$??0tagShopItemMovieInfo@ioShopItemExtraInfoManager@@QAE@ABU01@@Z:
  00015	8b 54 24 08	 mov	 edx, DWORD PTR [esp+8]
  00019	8d 42 0c	 lea	 eax, DWORD PTR [edx+12]
  0001c	8b 4a ec	 mov	 ecx, DWORD PTR [edx-20]
  0001f	33 c8		 xor	 ecx, eax
  00021	e8 00 00 00 00	 call	 @__security_check_cookie@4
  00026	b8 00 00 00 00	 mov	 eax, OFFSET __ehfuncinfo$??0tagShopItemMovieInfo@ioShopItemExtraInfoManager@@QAE@ABU01@@Z
  0002b	e9 00 00 00 00	 jmp	 ___CxxFrameHandler3
text$x	ENDS
??0tagShopItemMovieInfo@ioShopItemExtraInfoManager@@QAE@ABU01@@Z ENDP ; ioShopItemExtraInfoManager::tagShopItemMovieInfo::tagShopItemMovieInfo
PUBLIC	??4tagShopItemMovieInfo@ioShopItemExtraInfoManager@@QAEAAU01@ABU01@@Z ; ioShopItemExtraInfoManager::tagShopItemMovieInfo::operator=
EXTRN	__imp_??4ioHashString@@QAEAAV0@ABV0@@Z:PROC
; Function compile flags: /Ogsp
;	COMDAT ??4tagShopItemMovieInfo@ioShopItemExtraInfoManager@@QAEAAU01@ABU01@@Z
_TEXT	SEGMENT
___that$ = 8						; size = 4
??4tagShopItemMovieInfo@ioShopItemExtraInfoManager@@QAEAAU01@ABU01@@Z PROC ; ioShopItemExtraInfoManager::tagShopItemMovieInfo::operator=, COMDAT
; _this$ = ecx
  00000	55		 push	 ebp
  00001	8b ec		 mov	 ebp, esp
  00003	53		 push	 ebx
  00004	8b 5d 08	 mov	 ebx, DWORD PTR ___that$[ebp]
  00007	56		 push	 esi
  00008	57		 push	 edi
  00009	8b 3d 00 00 00
	00		 mov	 edi, DWORD PTR __imp_??4ioHashString@@QAEAAV0@ABV0@@Z
  0000f	53		 push	 ebx
  00010	8b f1		 mov	 esi, ecx
  00012	ff d7		 call	 edi
  00014	8d 43 10	 lea	 eax, DWORD PTR [ebx+16]
  00017	50		 push	 eax
  00018	8d 4e 10	 lea	 ecx, DWORD PTR [esi+16]
  0001b	ff d7		 call	 edi
  0001d	8d 43 20	 lea	 eax, DWORD PTR [ebx+32]
  00020	50		 push	 eax
  00021	8d 4e 20	 lea	 ecx, DWORD PTR [esi+32]
  00024	ff d7		 call	 edi
  00026	8a 43 30	 mov	 al, BYTE PTR [ebx+48]
  00029	88 46 30	 mov	 BYTE PTR [esi+48], al
  0002c	5f		 pop	 edi
  0002d	8b c6		 mov	 eax, esi
  0002f	5e		 pop	 esi
  00030	5b		 pop	 ebx
  00031	5d		 pop	 ebp
  00032	c2 04 00	 ret	 4
??4tagShopItemMovieInfo@ioShopItemExtraInfoManager@@QAEAAU01@ABU01@@Z ENDP ; ioShopItemExtraInfoManager::tagShopItemMovieInfo::operator=
_TEXT	ENDS
PUBLIC	?begin@?$vector@UtagShopItemMovieInfo@ioShopItemExtraInfoManager@@V?$allocator@UtagShopItemMovieInfo@ioShopItemExtraInfoManager@@@std@@@std@@QBE?AV?$_Vector_const_iterator@V?$_Vector_val@UtagShopItemMovieInfo@ioShopItemExtraInfoManager@@V?$allocator@UtagShopItemMovieInfo@ioShopItemExtraInfoManager@@@std@@@std@@@2@XZ ; std::vector<ioShopItemExtraInfoManager::tagShopItemMovieInfo,std::allocator<ioShopItemExtraInfoManager::tagShopItemMovieInfo> >::begin
; Function compile flags: /Ogsp
; File c:\program files (x86)\microsoft visual studio 10.0\vc\include\vector
;	COMDAT ?begin@?$vector@UtagShopItemMovieInfo@ioShopItemExtraInfoManager@@V?$allocator@UtagShopItemMovieInfo@ioShopItemExtraInfoManager@@@std@@@std@@QBE?AV?$_Vector_const_iterator@V?$_Vector_val@UtagShopItemMovieInfo@ioShopItemExtraInfoManager@@V?$allocator@UtagShopItemMovieInfo@ioShopItemExtraInfoManager@@@std@@@std@@@2@XZ
_TEXT	SEGMENT
___$ReturnUdt$ = 8					; size = 4
?begin@?$vector@UtagShopItemMovieInfo@ioShopItemExtraInfoManager@@V?$allocator@UtagShopItemMovieInfo@ioShopItemExtraInfoManager@@@std@@@std@@QBE?AV?$_Vector_const_iterator@V?$_Vector_val@UtagShopItemMovieInfo@ioShopItemExtraInfoManager@@V?$allocator@UtagShopItemMovieInfo@ioShopItemExtraInfoManager@@@std@@@std@@@2@XZ PROC ; std::vector<ioShopItemExtraInfoManager::tagShopItemMovieInfo,std::allocator<ioShopItemExtraInfoManager::tagShopItemMovieInfo> >::begin, COMDAT
; _this$ = ecx

; 786  : 		{	// return iterator for beginning of nonmutable sequence

  00000	55		 push	 ebp
  00001	8b ec		 mov	 ebp, esp

; 787  : 		return (const_iterator(this->_Myfirst, this));

  00003	8b 09		 mov	 ecx, DWORD PTR [ecx]
  00005	8b 45 08	 mov	 eax, DWORD PTR ___$ReturnUdt$[ebp]
  00008	89 08		 mov	 DWORD PTR [eax], ecx

; 788  : 		}

  0000a	5d		 pop	 ebp
  0000b	c2 04 00	 ret	 4
?begin@?$vector@UtagShopItemMovieInfo@ioShopItemExtraInfoManager@@V?$allocator@UtagShopItemMovieInfo@ioShopItemExtraInfoManager@@@std@@@std@@QBE?AV?$_Vector_const_iterator@V?$_Vector_val@UtagShopItemMovieInfo@ioShopItemExtraInfoManager@@V?$allocator@UtagShopItemMovieInfo@ioShopItemExtraInfoManager@@@std@@@std@@@2@XZ ENDP ; std::vector<ioShopItemExtraInfoManager::tagShopItemMovieInfo,std::allocator<ioShopItemExtraInfoManager::tagShopItemMovieInfo> >::begin
_TEXT	ENDS
PUBLIC	?end@?$vector@UtagShopItemMovieInfo@ioShopItemExtraInfoManager@@V?$allocator@UtagShopItemMovieInfo@ioShopItemExtraInfoManager@@@std@@@std@@QBE?AV?$_Vector_const_iterator@V?$_Vector_val@UtagShopItemMovieInfo@ioShopItemExtraInfoManager@@V?$allocator@UtagShopItemMovieInfo@ioShopItemExtraInfoManager@@@std@@@std@@@2@XZ ; std::vector<ioShopItemExtraInfoManager::tagShopItemMovieInfo,std::allocator<ioShopItemExtraInfoManager::tagShopItemMovieInfo> >::end
; Function compile flags: /Ogsp
;	COMDAT ?end@?$vector@UtagShopItemMovieInfo@ioShopItemExtraInfoManager@@V?$allocator@UtagShopItemMovieInfo@ioShopItemExtraInfoManager@@@std@@@std@@QBE?AV?$_Vector_const_iterator@V?$_Vector_val@UtagShopItemMovieInfo@ioShopItemExtraInfoManager@@V?$allocator@UtagShopItemMovieInfo@ioShopItemExtraInfoManager@@@std@@@std@@@2@XZ
_TEXT	SEGMENT
___$ReturnUdt$ = 8					; size = 4
?end@?$vector@UtagShopItemMovieInfo@ioShopItemExtraInfoManager@@V?$allocator@UtagShopItemMovieInfo@ioShopItemExtraInfoManager@@@std@@@std@@QBE?AV?$_Vector_const_iterator@V?$_Vector_val@UtagShopItemMovieInfo@ioShopItemExtraInfoManager@@V?$allocator@UtagShopItemMovieInfo@ioShopItemExtraInfoManager@@@std@@@std@@@2@XZ PROC ; std::vector<ioShopItemExtraInfoManager::tagShopItemMovieInfo,std::allocator<ioShopItemExtraInfoManager::tagShopItemMovieInfo> >::end, COMDAT
; _this$ = ecx

; 796  : 		{	// return iterator for end of nonmutable sequence

  00000	55		 push	 ebp
  00001	8b ec		 mov	 ebp, esp

; 797  : 		return (const_iterator(this->_Mylast, this));

  00003	8b 49 04	 mov	 ecx, DWORD PTR [ecx+4]
  00006	8b 45 08	 mov	 eax, DWORD PTR ___$ReturnUdt$[ebp]
  00009	89 08		 mov	 DWORD PTR [eax], ecx

; 798  : 		}

  0000b	5d		 pop	 ebp
  0000c	c2 04 00	 ret	 4
?end@?$vector@UtagShopItemMovieInfo@ioShopItemExtraInfoManager@@V?$allocator@UtagShopItemMovieInfo@ioShopItemExtraInfoManager@@@std@@@std@@QBE?AV?$_Vector_const_iterator@V?$_Vector_val@UtagShopItemMovieInfo@ioShopItemExtraInfoManager@@V?$allocator@UtagShopItemMovieInfo@ioShopItemExtraInfoManager@@@std@@@std@@@2@XZ ENDP ; std::vector<ioShopItemExtraInfoManager::tagShopItemMovieInfo,std::allocator<ioShopItemExtraInfoManager::tagShopItemMovieInfo> >::end
_TEXT	ENDS
PUBLIC	??$_Val_type@PAUtagShopItemMovieInfo@ioShopItemExtraInfoManager@@@std@@YAPAUtagShopItemMovieInfo@ioShopItemExtraInfoManager@@PAU12@@Z ; std::_Val_type<ioShopItemExtraInfoManager::tagShopItemMovieInfo *>
; Function compile flags: /Ogsp
; File c:\program files (x86)\microsoft visual studio 10.0\vc\include\xutility
;	COMDAT ??$_Val_type@PAUtagShopItemMovieInfo@ioShopItemExtraInfoManager@@@std@@YAPAUtagShopItemMovieInfo@ioShopItemExtraInfoManager@@PAU12@@Z
_TEXT	SEGMENT
___formal$ = 8						; size = 4
??$_Val_type@PAUtagShopItemMovieInfo@ioShopItemExtraInfoManager@@@std@@YAPAUtagShopItemMovieInfo@ioShopItemExtraInfoManager@@PAU12@@Z PROC ; std::_Val_type<ioShopItemExtraInfoManager::tagShopItemMovieInfo *>, COMDAT

; 790  : 	return (0);

  00000	33 c0		 xor	 eax, eax

; 791  : 	}

  00002	c3		 ret	 0
??$_Val_type@PAUtagShopItemMovieInfo@ioShopItemExtraInfoManager@@@std@@YAPAUtagShopItemMovieInfo@ioShopItemExtraInfoManager@@PAU12@@Z ENDP ; std::_Val_type<ioShopItemExtraInfoManager::tagShopItemMovieInfo *>
_TEXT	ENDS
PUBLIC	??$move@AAUtagShopItemMovieInfo@ioShopItemExtraInfoManager@@@std@@YA$$QAUtagShopItemMovieInfo@ioShopItemExtraInfoManager@@AAU12@@Z ; std::move<ioShopItemExtraInfoManager::tagShopItemMovieInfo &>
; Function compile flags: /Ogsp
; File c:\program files (x86)\microsoft visual studio 10.0\vc\include\utility
;	COMDAT ??$move@AAUtagShopItemMovieInfo@ioShopItemExtraInfoManager@@@std@@YA$$QAUtagShopItemMovieInfo@ioShopItemExtraInfoManager@@AAU12@@Z
_TEXT	SEGMENT
__Arg$ = 8						; size = 4
??$move@AAUtagShopItemMovieInfo@ioShopItemExtraInfoManager@@@std@@YA$$QAUtagShopItemMovieInfo@ioShopItemExtraInfoManager@@AAU12@@Z PROC ; std::move<ioShopItemExtraInfoManager::tagShopItemMovieInfo &>, COMDAT

; 86   : 	{	// forward _Arg as movable

  00000	55		 push	 ebp
  00001	8b ec		 mov	 ebp, esp

; 87   : 	return ((typename tr1::_Remove_reference<_Ty>::_Type&&)_Arg);

  00003	8b 45 08	 mov	 eax, DWORD PTR __Arg$[ebp]

; 88   : 	}

  00006	5d		 pop	 ebp
  00007	c3		 ret	 0
??$move@AAUtagShopItemMovieInfo@ioShopItemExtraInfoManager@@@std@@YA$$QAUtagShopItemMovieInfo@ioShopItemExtraInfoManager@@AAU12@@Z ENDP ; std::move<ioShopItemExtraInfoManager::tagShopItemMovieInfo &>
_TEXT	ENDS
PUBLIC	??$move@AAUtagShopItemExtraInfo@ioShopItemExtraInfoManager@@@std@@YA$$QAUtagShopItemExtraInfo@ioShopItemExtraInfoManager@@AAU12@@Z ; std::move<ioShopItemExtraInfoManager::tagShopItemExtraInfo &>
; Function compile flags: /Ogsp
;	COMDAT ??$move@AAUtagShopItemExtraInfo@ioShopItemExtraInfoManager@@@std@@YA$$QAUtagShopItemExtraInfo@ioShopItemExtraInfoManager@@AAU12@@Z
_TEXT	SEGMENT
__Arg$ = 8						; size = 4
??$move@AAUtagShopItemExtraInfo@ioShopItemExtraInfoManager@@@std@@YA$$QAUtagShopItemExtraInfo@ioShopItemExtraInfoManager@@AAU12@@Z PROC ; std::move<ioShopItemExtraInfoManager::tagShopItemExtraInfo &>, COMDAT

; 86   : 	{	// forward _Arg as movable

  00000	55		 push	 ebp
  00001	8b ec		 mov	 ebp, esp

; 87   : 	return ((typename tr1::_Remove_reference<_Ty>::_Type&&)_Arg);

  00003	8b 45 08	 mov	 eax, DWORD PTR __Arg$[ebp]

; 88   : 	}

  00006	5d		 pop	 ebp
  00007	c3		 ret	 0
??$move@AAUtagShopItemExtraInfo@ioShopItemExtraInfoManager@@@std@@YA$$QAUtagShopItemExtraInfo@ioShopItemExtraInfoManager@@AAU12@@Z ENDP ; std::move<ioShopItemExtraInfoManager::tagShopItemExtraInfo &>
_TEXT	ENDS
PUBLIC	??$_Val_type@PAUtagShopItemExtraInfo@ioShopItemExtraInfoManager@@@std@@YAPAUtagShopItemExtraInfo@ioShopItemExtraInfoManager@@PAU12@@Z ; std::_Val_type<ioShopItemExtraInfoManager::tagShopItemExtraInfo *>
; Function compile flags: /Ogsp
; File c:\program files (x86)\microsoft visual studio 10.0\vc\include\xutility
;	COMDAT ??$_Val_type@PAUtagShopItemExtraInfo@ioShopItemExtraInfoManager@@@std@@YAPAUtagShopItemExtraInfo@ioShopItemExtraInfoManager@@PAU12@@Z
_TEXT	SEGMENT
___formal$ = 8						; size = 4
??$_Val_type@PAUtagShopItemExtraInfo@ioShopItemExtraInfoManager@@@std@@YAPAUtagShopItemExtraInfo@ioShopItemExtraInfoManager@@PAU12@@Z PROC ; std::_Val_type<ioShopItemExtraInfoManager::tagShopItemExtraInfo *>, COMDAT

; 790  : 	return (0);

  00000	33 c0		 xor	 eax, eax

; 791  : 	}

  00002	c3		 ret	 0
??$_Val_type@PAUtagShopItemExtraInfo@ioShopItemExtraInfoManager@@@std@@YAPAUtagShopItemExtraInfo@ioShopItemExtraInfoManager@@PAU12@@Z ENDP ; std::_Val_type<ioShopItemExtraInfoManager::tagShopItemExtraInfo *>
_TEXT	ENDS
PUBLIC	??$_Copy_impl@PAHPAH@std@@YAPAHPAH00U_Scalar_ptr_iterator_tag@0@@Z ; std::_Copy_impl<int *,int *>
EXTRN	__imp__memmove:PROC
; Function compile flags: /Ogsp
;	COMDAT ??$_Copy_impl@PAHPAH@std@@YAPAHPAH00U_Scalar_ptr_iterator_tag@0@@Z
_TEXT	SEGMENT
__First$ = 8						; size = 4
__Last$ = 12						; size = 4
__Dest$ = 16						; size = 4
___formal$ = 20						; size = 1
??$_Copy_impl@PAHPAH@std@@YAPAHPAH00U_Scalar_ptr_iterator_tag@0@@Z PROC ; std::_Copy_impl<int *,int *>, COMDAT

; 2152 : 	{	// copy [_First, _Last) to [_Dest, ...), pointers to scalars

  00000	55		 push	 ebp
  00001	8b ec		 mov	 ebp, esp
  00003	56		 push	 esi

; 2153 : 	ptrdiff_t _Count = _Last - _First;

  00004	8b 75 0c	 mov	 esi, DWORD PTR __Last$[ebp]
  00007	2b 75 08	 sub	 esi, DWORD PTR __First$[ebp]
  0000a	57		 push	 edi

; 2154 : 	_CSTD memmove(&*_Dest, &*_First,
; 2155 : 		_Count * sizeof (*_First));

  0000b	8b 7d 10	 mov	 edi, DWORD PTR __Dest$[ebp]
  0000e	c1 fe 02	 sar	 esi, 2
  00011	c1 e6 02	 shl	 esi, 2
  00014	56		 push	 esi
  00015	ff 75 08	 push	 DWORD PTR __First$[ebp]
  00018	57		 push	 edi
  00019	ff 15 00 00 00
	00		 call	 DWORD PTR __imp__memmove
  0001f	83 c4 0c	 add	 esp, 12			; 0000000cH

; 2156 : 	return (_Dest + _Count);

  00022	8d 04 3e	 lea	 eax, DWORD PTR [esi+edi]
  00025	5f		 pop	 edi
  00026	5e		 pop	 esi

; 2157 : 	}

  00027	5d		 pop	 ebp
  00028	c3		 ret	 0
??$_Copy_impl@PAHPAH@std@@YAPAHPAH00U_Scalar_ptr_iterator_tag@0@@Z ENDP ; std::_Copy_impl<int *,int *>
_TEXT	ENDS
PUBLIC	??$_Copy_impl@PAUtagShopItemMovieInfo@ioShopItemExtraInfoManager@@PAU12@@std@@YAPAUtagShopItemMovieInfo@ioShopItemExtraInfoManager@@PAU12@00U_Nonscalar_ptr_iterator_tag@0@@Z ; std::_Copy_impl<ioShopItemExtraInfoManager::tagShopItemMovieInfo *,ioShopItemExtraInfoManager::tagShopItemMovieInfo *>
; Function compile flags: /Ogsp
;	COMDAT ??$_Copy_impl@PAUtagShopItemMovieInfo@ioShopItemExtraInfoManager@@PAU12@@std@@YAPAUtagShopItemMovieInfo@ioShopItemExtraInfoManager@@PAU12@00U_Nonscalar_ptr_iterator_tag@0@@Z
_TEXT	SEGMENT
__First$ = 8						; size = 4
__Last$ = 12						; size = 4
__Dest$ = 16						; size = 4
___formal$ = 20						; size = 1
??$_Copy_impl@PAUtagShopItemMovieInfo@ioShopItemExtraInfoManager@@PAU12@@std@@YAPAUtagShopItemMovieInfo@ioShopItemExtraInfoManager@@PAU12@00U_Nonscalar_ptr_iterator_tag@0@@Z PROC ; std::_Copy_impl<ioShopItemExtraInfoManager::tagShopItemMovieInfo *,ioShopItemExtraInfoManager::tagShopItemMovieInfo *>, COMDAT

; 2142 : 	{	// copy [_First, _Last) to [_Dest, ...), arbitrary iterators

  00000	55		 push	 ebp
  00001	8b ec		 mov	 ebp, esp
  00003	56		 push	 esi

; 2143 : 	for (; _First != _Last; ++_Dest, ++_First)

  00004	8b 75 08	 mov	 esi, DWORD PTR __First$[ebp]
  00007	eb 10		 jmp	 SHORT $LN9@Copy_impl
$LL3@Copy_impl:

; 2144 : 		*_Dest = *_First;

  00009	8b 4d 10	 mov	 ecx, DWORD PTR __Dest$[ebp]
  0000c	56		 push	 esi
  0000d	e8 00 00 00 00	 call	 ??4tagShopItemMovieInfo@ioShopItemExtraInfoManager@@QAEAAU01@ABU01@@Z
  00012	83 45 10 34	 add	 DWORD PTR __Dest$[ebp], 52 ; 00000034H
  00016	83 c6 34	 add	 esi, 52			; 00000034H
$LN9@Copy_impl:

; 2143 : 	for (; _First != _Last; ++_Dest, ++_First)

  00019	3b 75 0c	 cmp	 esi, DWORD PTR __Last$[ebp]
  0001c	75 eb		 jne	 SHORT $LL3@Copy_impl

; 2145 : 	return (_Dest);

  0001e	8b 45 10	 mov	 eax, DWORD PTR __Dest$[ebp]
  00021	5e		 pop	 esi

; 2146 : 	}

  00022	5d		 pop	 ebp
  00023	c3		 ret	 0
??$_Copy_impl@PAUtagShopItemMovieInfo@ioShopItemExtraInfoManager@@PAU12@@std@@YAPAUtagShopItemMovieInfo@ioShopItemExtraInfoManager@@PAU12@00U_Nonscalar_ptr_iterator_tag@0@@Z ENDP ; std::_Copy_impl<ioShopItemExtraInfoManager::tagShopItemMovieInfo *,ioShopItemExtraInfoManager::tagShopItemMovieInfo *>
_TEXT	ENDS
PUBLIC	??_GtagShopItemMovieInfo@ioShopItemExtraInfoManager@@QAEPAXI@Z ; ioShopItemExtraInfoManager::tagShopItemMovieInfo::`scalar deleting destructor'
; Function compile flags: /Ogsp
;	COMDAT ??_GtagShopItemMovieInfo@ioShopItemExtraInfoManager@@QAEPAXI@Z
_TEXT	SEGMENT
___flags$ = 8						; size = 4
??_GtagShopItemMovieInfo@ioShopItemExtraInfoManager@@QAEPAXI@Z PROC ; ioShopItemExtraInfoManager::tagShopItemMovieInfo::`scalar deleting destructor', COMDAT
; _this$ = ecx
  00000	55		 push	 ebp
  00001	8b ec		 mov	 ebp, esp
  00003	56		 push	 esi
  00004	8b f1		 mov	 esi, ecx
  00006	e8 00 00 00 00	 call	 ??1tagShopItemMovieInfo@ioShopItemExtraInfoManager@@QAE@XZ
  0000b	f6 45 08 01	 test	 BYTE PTR ___flags$[ebp], 1
  0000f	74 07		 je	 SHORT $LN1@scalar@2
  00011	56		 push	 esi
  00012	e8 00 00 00 00	 call	 ??3@YAXPAX@Z		; operator delete
  00017	59		 pop	 ecx
$LN1@scalar@2:
  00018	8b c6		 mov	 eax, esi
  0001a	5e		 pop	 esi
  0001b	5d		 pop	 ebp
  0001c	c2 04 00	 ret	 4
??_GtagShopItemMovieInfo@ioShopItemExtraInfoManager@@QAEPAXI@Z ENDP ; ioShopItemExtraInfoManager::tagShopItemMovieInfo::`scalar deleting destructor'
_TEXT	ENDS
PUBLIC	??$forward@UtagShopItemMovieInfo@ioShopItemExtraInfoManager@@@std@@YA$$QAUtagShopItemMovieInfo@ioShopItemExtraInfoManager@@AAU12@@Z ; std::forward<ioShopItemExtraInfoManager::tagShopItemMovieInfo>
; Function compile flags: /Ogsp
; File c:\program files (x86)\microsoft visual studio 10.0\vc\include\utility
;	COMDAT ??$forward@UtagShopItemMovieInfo@ioShopItemExtraInfoManager@@@std@@YA$$QAUtagShopItemMovieInfo@ioShopItemExtraInfoManager@@AAU12@@Z
_TEXT	SEGMENT
__Arg$ = 8						; size = 4
??$forward@UtagShopItemMovieInfo@ioShopItemExtraInfoManager@@@std@@YA$$QAUtagShopItemMovieInfo@ioShopItemExtraInfoManager@@AAU12@@Z PROC ; std::forward<ioShopItemExtraInfoManager::tagShopItemMovieInfo>, COMDAT

; 78   : 	{	// forward _Arg, given explicitly specified type parameter

  00000	55		 push	 ebp
  00001	8b ec		 mov	 ebp, esp

; 79   : 	return ((_Ty&&)_Arg);

  00003	8b 45 08	 mov	 eax, DWORD PTR __Arg$[ebp]

; 80   : 	}

  00006	5d		 pop	 ebp
  00007	c3		 ret	 0
??$forward@UtagShopItemMovieInfo@ioShopItemExtraInfoManager@@@std@@YA$$QAUtagShopItemMovieInfo@ioShopItemExtraInfoManager@@AAU12@@Z ENDP ; std::forward<ioShopItemExtraInfoManager::tagShopItemMovieInfo>
_TEXT	ENDS
PUBLIC	??$forward@UtagShopItemExtraInfo@ioShopItemExtraInfoManager@@@std@@YA$$QAUtagShopItemExtraInfo@ioShopItemExtraInfoManager@@AAU12@@Z ; std::forward<ioShopItemExtraInfoManager::tagShopItemExtraInfo>
; Function compile flags: /Ogsp
;	COMDAT ??$forward@UtagShopItemExtraInfo@ioShopItemExtraInfoManager@@@std@@YA$$QAUtagShopItemExtraInfo@ioShopItemExtraInfoManager@@AAU12@@Z
_TEXT	SEGMENT
__Arg$ = 8						; size = 4
??$forward@UtagShopItemExtraInfo@ioShopItemExtraInfoManager@@@std@@YA$$QAUtagShopItemExtraInfo@ioShopItemExtraInfoManager@@AAU12@@Z PROC ; std::forward<ioShopItemExtraInfoManager::tagShopItemExtraInfo>, COMDAT

; 78   : 	{	// forward _Arg, given explicitly specified type parameter

  00000	55		 push	 ebp
  00001	8b ec		 mov	 ebp, esp

; 79   : 	return ((_Ty&&)_Arg);

  00003	8b 45 08	 mov	 eax, DWORD PTR __Arg$[ebp]

; 80   : 	}

  00006	5d		 pop	 ebp
  00007	c3		 ret	 0
??$forward@UtagShopItemExtraInfo@ioShopItemExtraInfoManager@@@std@@YA$$QAUtagShopItemExtraInfo@ioShopItemExtraInfoManager@@AAU12@@Z ENDP ; std::forward<ioShopItemExtraInfoManager::tagShopItemExtraInfo>
_TEXT	ENDS
PUBLIC	??$_Ptr_cat@V?$_Vector_const_iterator@V?$_Vector_val@HV?$allocator@H@std@@@std@@@std@@PAH@std@@YA?AU_Nonscalar_ptr_iterator_tag@0@AAV?$_Vector_const_iterator@V?$_Vector_val@HV?$allocator@H@std@@@std@@@0@AAPAH@Z ; std::_Ptr_cat<std::_Vector_const_iterator<std::_Vector_val<int,std::allocator<int> > >,int *>
; Function compile flags: /Ogsp
; File c:\program files (x86)\microsoft visual studio 10.0\vc\include\xutility
;	COMDAT ??$_Ptr_cat@V?$_Vector_const_iterator@V?$_Vector_val@HV?$allocator@H@std@@@std@@@std@@PAH@std@@YA?AU_Nonscalar_ptr_iterator_tag@0@AAV?$_Vector_const_iterator@V?$_Vector_val@HV?$allocator@H@std@@@std@@@0@AAPAH@Z
_TEXT	SEGMENT
__Cat$ = -1						; size = 1
___formal$ = 8						; size = 4
___formal$ = 12						; size = 4
??$_Ptr_cat@V?$_Vector_const_iterator@V?$_Vector_val@HV?$allocator@H@std@@@std@@@std@@PAH@std@@YA?AU_Nonscalar_ptr_iterator_tag@0@AAV?$_Vector_const_iterator@V?$_Vector_val@HV?$allocator@H@std@@@std@@@0@AAPAH@Z PROC ; std::_Ptr_cat<std::_Vector_const_iterator<std::_Vector_val<int,std::allocator<int> > >,int *>, COMDAT

; 485  : 	{	// return pointer category from arbitrary arguments

  00000	55		 push	 ebp
  00001	8b ec		 mov	 ebp, esp
  00003	51		 push	 ecx

; 486  : 	_Nonscalar_ptr_iterator_tag _Cat;
; 487  : 	return (_Cat);

  00004	8a 45 ff	 mov	 al, BYTE PTR __Cat$[ebp]

; 488  : 	}

  00007	c9		 leave
  00008	c3		 ret	 0
??$_Ptr_cat@V?$_Vector_const_iterator@V?$_Vector_val@HV?$allocator@H@std@@@std@@@std@@PAH@std@@YA?AU_Nonscalar_ptr_iterator_tag@0@AAV?$_Vector_const_iterator@V?$_Vector_val@HV?$allocator@H@std@@@std@@@0@AAPAH@Z ENDP ; std::_Ptr_cat<std::_Vector_const_iterator<std::_Vector_val<int,std::allocator<int> > >,int *>
_TEXT	ENDS
PUBLIC	??$_Uninit_copy@HH@std@@YAPAHPAH00AAV?$allocator@H@0@U_Scalar_ptr_iterator_tag@0@@Z ; std::_Uninit_copy<int,int>
; Function compile flags: /Ogsp
; File c:\program files (x86)\microsoft visual studio 10.0\vc\include\memory
;	COMDAT ??$_Uninit_copy@HH@std@@YAPAHPAH00AAV?$allocator@H@0@U_Scalar_ptr_iterator_tag@0@@Z
_TEXT	SEGMENT
__First$ = 8						; size = 4
__Last$ = 12						; size = 4
__Dest$ = 16						; size = 4
___formal$ = 20						; size = 4
___formal$ = 24						; size = 1
??$_Uninit_copy@HH@std@@YAPAHPAH00AAV?$allocator@H@0@U_Scalar_ptr_iterator_tag@0@@Z PROC ; std::_Uninit_copy<int,int>, COMDAT

; 399  : 	{	// copy [_First, _Last) to raw _Dest, scalar type

  00000	55		 push	 ebp
  00001	8b ec		 mov	 ebp, esp
  00003	56		 push	 esi

; 400  : 	_DEBUG_RANGE(_First, _Last);
; 401  : 	_DEBUG_POINTER(_Dest);
; 402  : 	size_t _Count = (size_t)(_Last - _First);

  00004	8b 75 0c	 mov	 esi, DWORD PTR __Last$[ebp]
  00007	2b 75 08	 sub	 esi, DWORD PTR __First$[ebp]
  0000a	c1 fe 02	 sar	 esi, 2

; 403  : 	return ((_Ty2 *)_CSTD memmove(&*_Dest, &*_First,
; 404  : 		_Count * sizeof (*_First)) + _Count);	// NB: non-overlapping move

  0000d	c1 e6 02	 shl	 esi, 2
  00010	56		 push	 esi
  00011	ff 75 08	 push	 DWORD PTR __First$[ebp]
  00014	ff 75 10	 push	 DWORD PTR __Dest$[ebp]
  00017	ff 15 00 00 00
	00		 call	 DWORD PTR __imp__memmove
  0001d	83 c4 0c	 add	 esp, 12			; 0000000cH
  00020	03 c6		 add	 eax, esi
  00022	5e		 pop	 esi

; 405  : 	}

  00023	5d		 pop	 ebp
  00024	c3		 ret	 0
??$_Uninit_copy@HH@std@@YAPAHPAH00AAV?$allocator@H@0@U_Scalar_ptr_iterator_tag@0@@Z ENDP ; std::_Uninit_copy<int,int>
_TEXT	ENDS
PUBLIC	??$_Ptr_cat@V?$_Vector_const_iterator@V?$_Vector_val@UtagShopItemMovieInfo@ioShopItemExtraInfoManager@@V?$allocator@UtagShopItemMovieInfo@ioShopItemExtraInfoManager@@@std@@@std@@@std@@PAUtagShopItemMovieInfo@ioShopItemExtraInfoManager@@@std@@YA?AU_Nonscalar_ptr_iterator_tag@0@AAV?$_Vector_const_iterator@V?$_Vector_val@UtagShopItemMovieInfo@ioShopItemExtraInfoManager@@V?$allocator@UtagShopItemMovieInfo@ioShopItemExtraInfoManager@@@std@@@std@@@0@AAPAUtagShopItemMovieInfo@ioShopItemExtraInfoManager@@@Z ; std::_Ptr_cat<std::_Vector_const_iterator<std::_Vector_val<ioShopItemExtraInfoManager::tagShopItemMovieInfo,std::allocator<ioShopItemExtraInfoManager::tagShopItemMovieInfo> > >,ioShopItemExtraInfoManager::tagShopItemMovieInfo *>
; Function compile flags: /Ogsp
; File c:\program files (x86)\microsoft visual studio 10.0\vc\include\xutility
;	COMDAT ??$_Ptr_cat@V?$_Vector_const_iterator@V?$_Vector_val@UtagShopItemMovieInfo@ioShopItemExtraInfoManager@@V?$allocator@UtagShopItemMovieInfo@ioShopItemExtraInfoManager@@@std@@@std@@@std@@PAUtagShopItemMovieInfo@ioShopItemExtraInfoManager@@@std@@YA?AU_Nonscalar_ptr_iterator_tag@0@AAV?$_Vector_const_iterator@V?$_Vector_val@UtagShopItemMovieInfo@ioShopItemExtraInfoManager@@V?$allocator@UtagShopItemMovieInfo@ioShopItemExtraInfoManager@@@std@@@std@@@0@AAPAUtagShopItemMovieInfo@ioShopItemExtraInfoManager@@@Z
_TEXT	SEGMENT
__Cat$ = -1						; size = 1
___formal$ = 8						; size = 4
___formal$ = 12						; size = 4
??$_Ptr_cat@V?$_Vector_const_iterator@V?$_Vector_val@UtagShopItemMovieInfo@ioShopItemExtraInfoManager@@V?$allocator@UtagShopItemMovieInfo@ioShopItemExtraInfoManager@@@std@@@std@@@std@@PAUtagShopItemMovieInfo@ioShopItemExtraInfoManager@@@std@@YA?AU_Nonscalar_ptr_iterator_tag@0@AAV?$_Vector_const_iterator@V?$_Vector_val@UtagShopItemMovieInfo@ioShopItemExtraInfoManager@@V?$allocator@UtagShopItemMovieInfo@ioShopItemExtraInfoManager@@@std@@@std@@@0@AAPAUtagShopItemMovieInfo@ioShopItemExtraInfoManager@@@Z PROC ; std::_Ptr_cat<std::_Vector_const_iterator<std::_Vector_val<ioShopItemExtraInfoManager::tagShopItemMovieInfo,std::allocator<ioShopItemExtraInfoManager::tagShopItemMovieInfo> > >,ioShopItemExtraInfoManager::tagShopItemMovieInfo *>, COMDAT

; 485  : 	{	// return pointer category from arbitrary arguments

  00000	55		 push	 ebp
  00001	8b ec		 mov	 ebp, esp
  00003	51		 push	 ecx

; 486  : 	_Nonscalar_ptr_iterator_tag _Cat;
; 487  : 	return (_Cat);

  00004	8a 45 ff	 mov	 al, BYTE PTR __Cat$[ebp]

; 488  : 	}

  00007	c9		 leave
  00008	c3		 ret	 0
??$_Ptr_cat@V?$_Vector_const_iterator@V?$_Vector_val@UtagShopItemMovieInfo@ioShopItemExtraInfoManager@@V?$allocator@UtagShopItemMovieInfo@ioShopItemExtraInfoManager@@@std@@@std@@@std@@PAUtagShopItemMovieInfo@ioShopItemExtraInfoManager@@@std@@YA?AU_Nonscalar_ptr_iterator_tag@0@AAV?$_Vector_const_iterator@V?$_Vector_val@UtagShopItemMovieInfo@ioShopItemExtraInfoManager@@V?$allocator@UtagShopItemMovieInfo@ioShopItemExtraInfoManager@@@std@@@std@@@0@AAPAUtagShopItemMovieInfo@ioShopItemExtraInfoManager@@@Z ENDP ; std::_Ptr_cat<std::_Vector_const_iterator<std::_Vector_val<ioShopItemExtraInfoManager::tagShopItemMovieInfo,std::allocator<ioShopItemExtraInfoManager::tagShopItemMovieInfo> > >,ioShopItemExtraInfoManager::tagShopItemMovieInfo *>
_TEXT	ENDS
PUBLIC	??D?$_Vector_const_iterator@V?$_Vector_val@HV?$allocator@H@std@@@std@@@std@@QBEABHXZ ; std::_Vector_const_iterator<std::_Vector_val<int,std::allocator<int> > >::operator*
; Function compile flags: /Ogsp
; File c:\program files (x86)\microsoft visual studio 10.0\vc\include\vector
;	COMDAT ??D?$_Vector_const_iterator@V?$_Vector_val@HV?$allocator@H@std@@@std@@@std@@QBEABHXZ
_TEXT	SEGMENT
??D?$_Vector_const_iterator@V?$_Vector_val@HV?$allocator@H@std@@@std@@@std@@QBEABHXZ PROC ; std::_Vector_const_iterator<std::_Vector_val<int,std::allocator<int> > >::operator*, COMDAT
; _this$ = ecx

; 64   :  #if _ITERATOR_DEBUG_LEVEL == 2
; 65   : 		if (this->_Getcont() == 0
; 66   : 			|| this->_Ptr == 0
; 67   : 			|| this->_Ptr < ((_Myvec *)this->_Getcont())->_Myfirst
; 68   : 			|| ((_Myvec *)this->_Getcont())->_Mylast <= this->_Ptr)
; 69   : 			{	// report error
; 70   : 			_DEBUG_ERROR("vector iterator not dereferencable");
; 71   : 			_SCL_SECURE_OUT_OF_RANGE;
; 72   : 			}
; 73   : 
; 74   :  #elif _ITERATOR_DEBUG_LEVEL == 1
; 75   : 		_SCL_SECURE_VALIDATE(this->_Getcont() != 0);
; 76   : 		_SCL_SECURE_VALIDATE_RANGE(
; 77   : 			this->_Ptr != 0
; 78   : 			&& ((_Myvec *)this->_Getcont())->_Myfirst <= this->_Ptr
; 79   : 			&& this->_Ptr < ((_Myvec *)this->_Getcont())->_Mylast);
; 80   :  #endif /* _ITERATOR_DEBUG_LEVEL */
; 81   : 
; 82   : 		__analysis_assume(this->_Ptr != 0);
; 83   : 
; 84   : 		return (*this->_Ptr);

  00000	8b 01		 mov	 eax, DWORD PTR [ecx]

; 85   : 		}

  00002	c3		 ret	 0
??D?$_Vector_const_iterator@V?$_Vector_val@HV?$allocator@H@std@@@std@@@std@@QBEABHXZ ENDP ; std::_Vector_const_iterator<std::_Vector_val<int,std::allocator<int> > >::operator*
_TEXT	ENDS
PUBLIC	??E?$_Vector_const_iterator@V?$_Vector_val@HV?$allocator@H@std@@@std@@@std@@QAEAAV01@XZ ; std::_Vector_const_iterator<std::_Vector_val<int,std::allocator<int> > >::operator++
; Function compile flags: /Ogsp
;	COMDAT ??E?$_Vector_const_iterator@V?$_Vector_val@HV?$allocator@H@std@@@std@@@std@@QAEAAV01@XZ
_TEXT	SEGMENT
??E?$_Vector_const_iterator@V?$_Vector_val@HV?$allocator@H@std@@@std@@@std@@QAEAAV01@XZ PROC ; std::_Vector_const_iterator<std::_Vector_val<int,std::allocator<int> > >::operator++, COMDAT
; _this$ = ecx

; 93   : 		{	// preincrement

  00000	8b c1		 mov	 eax, ecx

; 94   :  #if _ITERATOR_DEBUG_LEVEL == 2
; 95   : 		if (this->_Getcont() == 0
; 96   : 			|| this->_Ptr == 0
; 97   : 			|| ((_Myvec *)this->_Getcont())->_Mylast <= this->_Ptr)
; 98   : 			{	// report error
; 99   : 			_DEBUG_ERROR("vector iterator not incrementable");
; 100  : 			_SCL_SECURE_OUT_OF_RANGE;
; 101  : 			}
; 102  : 
; 103  :  #elif _ITERATOR_DEBUG_LEVEL == 1
; 104  : 		_SCL_SECURE_VALIDATE(this->_Getcont() != 0);
; 105  : 		_SCL_SECURE_VALIDATE_RANGE(
; 106  : 			this->_Ptr != 0
; 107  : 			&& this->_Ptr < ((_Myvec *)this->_Getcont())->_Mylast);
; 108  :  #endif /* _ITERATOR_DEBUG_LEVEL */
; 109  : 
; 110  : 		++this->_Ptr;

  00002	83 00 04	 add	 DWORD PTR [eax], 4

; 111  : 		return (*this);
; 112  : 		}

  00005	c3		 ret	 0
??E?$_Vector_const_iterator@V?$_Vector_val@HV?$allocator@H@std@@@std@@@std@@QAEAAV01@XZ ENDP ; std::_Vector_const_iterator<std::_Vector_val<int,std::allocator<int> > >::operator++
_TEXT	ENDS
PUBLIC	??D?$_Vector_const_iterator@V?$_Vector_val@UtagShopItemMovieInfo@ioShopItemExtraInfoManager@@V?$allocator@UtagShopItemMovieInfo@ioShopItemExtraInfoManager@@@std@@@std@@@std@@QBEABUtagShopItemMovieInfo@ioShopItemExtraInfoManager@@XZ ; std::_Vector_const_iterator<std::_Vector_val<ioShopItemExtraInfoManager::tagShopItemMovieInfo,std::allocator<ioShopItemExtraInfoManager::tagShopItemMovieInfo> > >::operator*
; Function compile flags: /Ogsp
;	COMDAT ??D?$_Vector_const_iterator@V?$_Vector_val@UtagShopItemMovieInfo@ioShopItemExtraInfoManager@@V?$allocator@UtagShopItemMovieInfo@ioShopItemExtraInfoManager@@@std@@@std@@@std@@QBEABUtagShopItemMovieInfo@ioShopItemExtraInfoManager@@XZ
_TEXT	SEGMENT
??D?$_Vector_const_iterator@V?$_Vector_val@UtagShopItemMovieInfo@ioShopItemExtraInfoManager@@V?$allocator@UtagShopItemMovieInfo@ioShopItemExtraInfoManager@@@std@@@std@@@std@@QBEABUtagShopItemMovieInfo@ioShopItemExtraInfoManager@@XZ PROC ; std::_Vector_const_iterator<std::_Vector_val<ioShopItemExtraInfoManager::tagShopItemMovieInfo,std::allocator<ioShopItemExtraInfoManager::tagShopItemMovieInfo> > >::operator*, COMDAT
; _this$ = ecx

; 64   :  #if _ITERATOR_DEBUG_LEVEL == 2
; 65   : 		if (this->_Getcont() == 0
; 66   : 			|| this->_Ptr == 0
; 67   : 			|| this->_Ptr < ((_Myvec *)this->_Getcont())->_Myfirst
; 68   : 			|| ((_Myvec *)this->_Getcont())->_Mylast <= this->_Ptr)
; 69   : 			{	// report error
; 70   : 			_DEBUG_ERROR("vector iterator not dereferencable");
; 71   : 			_SCL_SECURE_OUT_OF_RANGE;
; 72   : 			}
; 73   : 
; 74   :  #elif _ITERATOR_DEBUG_LEVEL == 1
; 75   : 		_SCL_SECURE_VALIDATE(this->_Getcont() != 0);
; 76   : 		_SCL_SECURE_VALIDATE_RANGE(
; 77   : 			this->_Ptr != 0
; 78   : 			&& ((_Myvec *)this->_Getcont())->_Myfirst <= this->_Ptr
; 79   : 			&& this->_Ptr < ((_Myvec *)this->_Getcont())->_Mylast);
; 80   :  #endif /* _ITERATOR_DEBUG_LEVEL */
; 81   : 
; 82   : 		__analysis_assume(this->_Ptr != 0);
; 83   : 
; 84   : 		return (*this->_Ptr);

  00000	8b 01		 mov	 eax, DWORD PTR [ecx]

; 85   : 		}

  00002	c3		 ret	 0
??D?$_Vector_const_iterator@V?$_Vector_val@UtagShopItemMovieInfo@ioShopItemExtraInfoManager@@V?$allocator@UtagShopItemMovieInfo@ioShopItemExtraInfoManager@@@std@@@std@@@std@@QBEABUtagShopItemMovieInfo@ioShopItemExtraInfoManager@@XZ ENDP ; std::_Vector_const_iterator<std::_Vector_val<ioShopItemExtraInfoManager::tagShopItemMovieInfo,std::allocator<ioShopItemExtraInfoManager::tagShopItemMovieInfo> > >::operator*
_TEXT	ENDS
PUBLIC	??E?$_Vector_const_iterator@V?$_Vector_val@UtagShopItemMovieInfo@ioShopItemExtraInfoManager@@V?$allocator@UtagShopItemMovieInfo@ioShopItemExtraInfoManager@@@std@@@std@@@std@@QAEAAV01@XZ ; std::_Vector_const_iterator<std::_Vector_val<ioShopItemExtraInfoManager::tagShopItemMovieInfo,std::allocator<ioShopItemExtraInfoManager::tagShopItemMovieInfo> > >::operator++
; Function compile flags: /Ogsp
;	COMDAT ??E?$_Vector_const_iterator@V?$_Vector_val@UtagShopItemMovieInfo@ioShopItemExtraInfoManager@@V?$allocator@UtagShopItemMovieInfo@ioShopItemExtraInfoManager@@@std@@@std@@@std@@QAEAAV01@XZ
_TEXT	SEGMENT
??E?$_Vector_const_iterator@V?$_Vector_val@UtagShopItemMovieInfo@ioShopItemExtraInfoManager@@V?$allocator@UtagShopItemMovieInfo@ioShopItemExtraInfoManager@@@std@@@std@@@std@@QAEAAV01@XZ PROC ; std::_Vector_const_iterator<std::_Vector_val<ioShopItemExtraInfoManager::tagShopItemMovieInfo,std::allocator<ioShopItemExtraInfoManager::tagShopItemMovieInfo> > >::operator++, COMDAT
; _this$ = ecx

; 93   : 		{	// preincrement

  00000	8b c1		 mov	 eax, ecx

; 94   :  #if _ITERATOR_DEBUG_LEVEL == 2
; 95   : 		if (this->_Getcont() == 0
; 96   : 			|| this->_Ptr == 0
; 97   : 			|| ((_Myvec *)this->_Getcont())->_Mylast <= this->_Ptr)
; 98   : 			{	// report error
; 99   : 			_DEBUG_ERROR("vector iterator not incrementable");
; 100  : 			_SCL_SECURE_OUT_OF_RANGE;
; 101  : 			}
; 102  : 
; 103  :  #elif _ITERATOR_DEBUG_LEVEL == 1
; 104  : 		_SCL_SECURE_VALIDATE(this->_Getcont() != 0);
; 105  : 		_SCL_SECURE_VALIDATE_RANGE(
; 106  : 			this->_Ptr != 0
; 107  : 			&& this->_Ptr < ((_Myvec *)this->_Getcont())->_Mylast);
; 108  :  #endif /* _ITERATOR_DEBUG_LEVEL */
; 109  : 
; 110  : 		++this->_Ptr;

  00002	83 00 34	 add	 DWORD PTR [eax], 52	; 00000034H

; 111  : 		return (*this);
; 112  : 		}

  00005	c3		 ret	 0
??E?$_Vector_const_iterator@V?$_Vector_val@UtagShopItemMovieInfo@ioShopItemExtraInfoManager@@V?$allocator@UtagShopItemMovieInfo@ioShopItemExtraInfoManager@@@std@@@std@@@std@@QAEAAV01@XZ ENDP ; std::_Vector_const_iterator<std::_Vector_val<ioShopItemExtraInfoManager::tagShopItemMovieInfo,std::allocator<ioShopItemExtraInfoManager::tagShopItemMovieInfo> > >::operator++
_TEXT	ENDS
PUBLIC	??$_Destroy@H@std@@YAXPAH@Z			; std::_Destroy<int>
; Function compile flags: /Ogsp
; File c:\program files (x86)\microsoft visual studio 10.0\vc\include\xmemory
;	COMDAT ??$_Destroy@H@std@@YAXPAH@Z
_TEXT	SEGMENT
__Ptr$ = 8						; size = 4
??$_Destroy@H@std@@YAXPAH@Z PROC			; std::_Destroy<int>, COMDAT

; 63   : 	_Ptr->~_Ty();
; 64   : 	}

  00000	c3		 ret	 0
??$_Destroy@H@std@@YAXPAH@Z ENDP			; std::_Destroy<int>
_TEXT	ENDS
PUBLIC	?_DECSTR@@YAXPADH@Z				; _DECSTR
; Function compile flags: /Ogsp
; File d:\lost saga for developer\youtube\tutorial\source\src\lsclient\stringprotect.h
;	COMDAT ?_DECSTR@@YAXPADH@Z
_TEXT	SEGMENT
_s$ = 8							; size = 4
_l$ = 12						; size = 4
?_DECSTR@@YAXPADH@Z PROC				; _DECSTR, COMDAT

; 40   : __forceinline void _DECSTR(char* s, int l){int i=0,l4=(l-1)/4,*p=(int*)s;s[l-1]=0;for(;i<l4;++i)*(p++)^=0xEAEBECED;for(i=l4*4;i<l-1;++i)s[i]^=0xED-i%4;}

  00000	55		 push	 ebp
  00001	8b ec		 mov	 ebp, esp
  00003	8b 4d 0c	 mov	 ecx, DWORD PTR _l$[ebp]
  00006	56		 push	 esi
  00007	8b 75 08	 mov	 esi, DWORD PTR _s$[ebp]
  0000a	57		 push	 edi
  0000b	8d 79 ff	 lea	 edi, DWORD PTR [ecx-1]
  0000e	8b c7		 mov	 eax, edi
  00010	99		 cdq
  00011	83 e2 03	 and	 edx, 3
  00014	03 c2		 add	 eax, edx
  00016	c1 f8 02	 sar	 eax, 2
  00019	8b d6		 mov	 edx, esi
  0001b	c6 44 0e ff 00	 mov	 BYTE PTR [esi+ecx-1], 0
  00020	85 c0		 test	 eax, eax
  00022	7e 0e		 jle	 SHORT $LN4@DECSTR
  00024	8b c8		 mov	 ecx, eax
$LL6@DECSTR:
  00026	81 32 ed ec eb
	ea		 xor	 DWORD PTR [edx], -353637139 ; eaebecedH
  0002c	83 c2 04	 add	 edx, 4
  0002f	49		 dec	 ecx
  00030	75 f4		 jne	 SHORT $LL6@DECSTR
$LN4@DECSTR:
  00032	c1 e0 02	 shl	 eax, 2
  00035	eb 17		 jmp	 SHORT $LN14@DECSTR
$LL3@DECSTR:
  00037	8b c8		 mov	 ecx, eax
  00039	81 e1 03 00 00
	80		 and	 ecx, -2147483645	; 80000003H
  0003f	79 05		 jns	 SHORT $LN13@DECSTR
  00041	49		 dec	 ecx
  00042	83 c9 fc	 or	 ecx, -4			; fffffffcH
  00045	41		 inc	 ecx
$LN13@DECSTR:
  00046	b2 ed		 mov	 dl, -19			; ffffffedH
  00048	2a d1		 sub	 dl, cl
  0004a	30 14 30	 xor	 BYTE PTR [eax+esi], dl
  0004d	40		 inc	 eax
$LN14@DECSTR:
  0004e	3b c7		 cmp	 eax, edi
  00050	7c e5		 jl	 SHORT $LL3@DECSTR
  00052	5f		 pop	 edi
  00053	5e		 pop	 esi
  00054	5d		 pop	 ebp
  00055	c3		 ret	 0
?_DECSTR@@YAXPADH@Z ENDP				; _DECSTR
_TEXT	ENDS
PUBLIC	??0ioINILoader_e@@QAE@ABVioINILoader@@@Z	; ioINILoader_e::ioINILoader_e
EXTRN	__imp_??0ioINILoader@@QAE@ABV0@@Z:PROC
; Function compile flags: /Ogsp
; File d:\lost saga for developer\youtube\tutorial\source\src\io3dengine\ioiniloader.h
;	COMDAT ??0ioINILoader_e@@QAE@ABVioINILoader@@@Z
_TEXT	SEGMENT
_rhs$ = 8						; size = 4
??0ioINILoader_e@@QAE@ABVioINILoader@@@Z PROC		; ioINILoader_e::ioINILoader_e, COMDAT
; _this$ = ecx

; 237  : 	{

  00000	55		 push	 ebp
  00001	8b ec		 mov	 ebp, esp
  00003	56		 push	 esi
  00004	ff 75 08	 push	 DWORD PTR _rhs$[ebp]
  00007	8b f1		 mov	 esi, ecx
  00009	ff 15 00 00 00
	00		 call	 DWORD PTR __imp_??0ioINILoader@@QAE@ABV0@@Z

; 238  : 	}

  0000f	8b c6		 mov	 eax, esi
  00011	5e		 pop	 esi
  00012	5d		 pop	 ebp
  00013	c2 04 00	 ret	 4
??0ioINILoader_e@@QAE@ABVioINILoader@@@Z ENDP		; ioINILoader_e::ioINILoader_e
_TEXT	ENDS
PUBLIC	?size@?$vector@HV?$allocator@H@std@@@std@@QBEIXZ ; std::vector<int,std::allocator<int> >::size
; Function compile flags: /Ogsp
; File c:\program files (x86)\microsoft visual studio 10.0\vc\include\vector
;	COMDAT ?size@?$vector@HV?$allocator@H@std@@@std@@QBEIXZ
_TEXT	SEGMENT
?size@?$vector@HV?$allocator@H@std@@@std@@QBEIXZ PROC	; std::vector<int,std::allocator<int> >::size, COMDAT
; _this$ = ecx

; 879  : 		return (this->_Mylast - this->_Myfirst);

  00000	8b 41 04	 mov	 eax, DWORD PTR [ecx+4]
  00003	2b 01		 sub	 eax, DWORD PTR [ecx]
  00005	c1 f8 02	 sar	 eax, 2

; 880  : 		}

  00008	c3		 ret	 0
?size@?$vector@HV?$allocator@H@std@@@std@@QBEIXZ ENDP	; std::vector<int,std::allocator<int> >::size
_TEXT	ENDS
PUBLIC	?empty@?$vector@HV?$allocator@H@std@@@std@@QBE_NXZ ; std::vector<int,std::allocator<int> >::empty
; Function compile flags: /Ogsp
;	COMDAT ?empty@?$vector@HV?$allocator@H@std@@@std@@QBE_NXZ
_TEXT	SEGMENT
?empty@?$vector@HV?$allocator@H@std@@@std@@QBE_NXZ PROC	; std::vector<int,std::allocator<int> >::empty, COMDAT
; _this$ = ecx

; 889  : 		return (this->_Myfirst == this->_Mylast);

  00000	8b 01		 mov	 eax, DWORD PTR [ecx]
  00002	2b 41 04	 sub	 eax, DWORD PTR [ecx+4]
  00005	f7 d8		 neg	 eax
  00007	1b c0		 sbb	 eax, eax
  00009	40		 inc	 eax

; 890  : 		}

  0000a	c3		 ret	 0
?empty@?$vector@HV?$allocator@H@std@@@std@@QBE_NXZ ENDP	; std::vector<int,std::allocator<int> >::empty
_TEXT	ENDS
PUBLIC	??A?$vector@HV?$allocator@H@std@@@std@@QBEABHI@Z ; std::vector<int,std::allocator<int> >::operator[]
; Function compile flags: /Ogsp
;	COMDAT ??A?$vector@HV?$allocator@H@std@@@std@@QBEABHI@Z
_TEXT	SEGMENT
__Pos$ = 8						; size = 4
??A?$vector@HV?$allocator@H@std@@@std@@QBEABHI@Z PROC	; std::vector<int,std::allocator<int> >::operator[], COMDAT
; _this$ = ecx

; 912  : 		{	// subscript nonmutable sequence

  00000	55		 push	 ebp
  00001	8b ec		 mov	 ebp, esp

; 913  :  #if _ITERATOR_DEBUG_LEVEL == 2
; 914  : 		if (size() <= _Pos)
; 915  : 			{	// report error
; 916  : 			_DEBUG_ERROR("vector subscript out of range");
; 917  : 			_SCL_SECURE_OUT_OF_RANGE;
; 918  : 			}
; 919  : 
; 920  :  #elif _ITERATOR_DEBUG_LEVEL == 1
; 921  : 		_SCL_SECURE_VALIDATE_RANGE(_Pos < size());
; 922  :  #endif /* _ITERATOR_DEBUG_LEVEL */
; 923  : 
; 924  : 		return (*(this->_Myfirst + _Pos));

  00003	8b 01		 mov	 eax, DWORD PTR [ecx]
  00005	8b 4d 08	 mov	 ecx, DWORD PTR __Pos$[ebp]
  00008	8d 04 88	 lea	 eax, DWORD PTR [eax+ecx*4]

; 925  : 		}

  0000b	5d		 pop	 ebp
  0000c	c2 04 00	 ret	 4
??A?$vector@HV?$allocator@H@std@@@std@@QBEABHI@Z ENDP	; std::vector<int,std::allocator<int> >::operator[]
_TEXT	ENDS
PUBLIC	??0?$allocator@H@std@@QAE@XZ			; std::allocator<int>::allocator<int>
; Function compile flags: /Ogsp
; File c:\program files (x86)\microsoft visual studio 10.0\vc\include\xmemory
;	COMDAT ??0?$allocator@H@std@@QAE@XZ
_TEXT	SEGMENT
??0?$allocator@H@std@@QAE@XZ PROC			; std::allocator<int>::allocator<int>, COMDAT
; _this$ = ecx

; 161  : 	_ALLOCATOR() _THROW0()

  00000	8b c1		 mov	 eax, ecx

; 162  : 		{	// construct default allocator (do nothing)
; 163  : 		}

  00002	c3		 ret	 0
??0?$allocator@H@std@@QAE@XZ ENDP			; std::allocator<int>::allocator<int>
_TEXT	ENDS
PUBLIC	??1?$_Vector_val@HV?$allocator@H@std@@@std@@QAE@XZ ; std::_Vector_val<int,std::allocator<int> >::~_Vector_val<int,std::allocator<int> >
; Function compile flags: /Ogsp
; File c:\program files (x86)\microsoft visual studio 10.0\vc\include\vector
;	COMDAT ??1?$_Vector_val@HV?$allocator@H@std@@@std@@QAE@XZ
_TEXT	SEGMENT
??1?$_Vector_val@HV?$allocator@H@std@@@std@@QAE@XZ PROC	; std::_Vector_val<int,std::allocator<int> >::~_Vector_val<int,std::allocator<int> >, COMDAT
; _this$ = ecx

; 434  : 		}

  00000	c3		 ret	 0
??1?$_Vector_val@HV?$allocator@H@std@@@std@@QAE@XZ ENDP	; std::_Vector_val<int,std::allocator<int> >::~_Vector_val<int,std::allocator<int> >
_TEXT	ENDS
PUBLIC	??0?$_Vector_const_iterator@V?$_Vector_val@HV?$allocator@H@std@@@std@@@std@@QAE@PAHPBU_Container_base0@1@@Z ; std::_Vector_const_iterator<std::_Vector_val<int,std::allocator<int> > >::_Vector_const_iterator<std::_Vector_val<int,std::allocator<int> > >
; Function compile flags: /Ogsp
;	COMDAT ??0?$_Vector_const_iterator@V?$_Vector_val@HV?$allocator@H@std@@@std@@@std@@QAE@PAHPBU_Container_base0@1@@Z
_TEXT	SEGMENT
__Parg$ = 8						; size = 4
__Pvector$ = 12						; size = 4
??0?$_Vector_const_iterator@V?$_Vector_val@HV?$allocator@H@std@@@std@@@std@@QAE@PAHPBU_Container_base0@1@@Z PROC ; std::_Vector_const_iterator<std::_Vector_val<int,std::allocator<int> > >::_Vector_const_iterator<std::_Vector_val<int,std::allocator<int> > >, COMDAT
; _this$ = ecx

; 45   : 		{	// construct with pointer _Parg

  00000	55		 push	 ebp
  00001	8b ec		 mov	 ebp, esp
  00003	8b c1		 mov	 eax, ecx
  00005	8b 4d 08	 mov	 ecx, DWORD PTR __Parg$[ebp]
  00008	89 08		 mov	 DWORD PTR [eax], ecx

; 46   : 		this->_Adopt(_Pvector);
; 47   : 		}

  0000a	5d		 pop	 ebp
  0000b	c2 08 00	 ret	 8
??0?$_Vector_const_iterator@V?$_Vector_val@HV?$allocator@H@std@@@std@@@std@@QAE@PAHPBU_Container_base0@1@@Z ENDP ; std::_Vector_const_iterator<std::_Vector_val<int,std::allocator<int> > >::_Vector_const_iterator<std::_Vector_val<int,std::allocator<int> > >
_TEXT	ENDS
PUBLIC	??0?$_Vector_iterator@V?$_Vector_val@HV?$allocator@H@std@@@std@@@std@@QAE@PAHPBU_Container_base0@1@@Z ; std::_Vector_iterator<std::_Vector_val<int,std::allocator<int> > >::_Vector_iterator<std::_Vector_val<int,std::allocator<int> > >
; Function compile flags: /Ogsp
;	COMDAT ??0?$_Vector_iterator@V?$_Vector_val@HV?$allocator@H@std@@@std@@@std@@QAE@PAHPBU_Container_base0@1@@Z
_TEXT	SEGMENT
__Parg$ = 8						; size = 4
__Pvector$ = 12						; size = 4
??0?$_Vector_iterator@V?$_Vector_val@HV?$allocator@H@std@@@std@@@std@@QAE@PAHPBU_Container_base0@1@@Z PROC ; std::_Vector_iterator<std::_Vector_val<int,std::allocator<int> > >::_Vector_iterator<std::_Vector_val<int,std::allocator<int> > >, COMDAT
; _this$ = ecx

; 304  : 		{	// construct with pointer _Parg

  00000	55		 push	 ebp
  00001	8b ec		 mov	 ebp, esp
  00003	8b c1		 mov	 eax, ecx
  00005	8b 4d 08	 mov	 ecx, DWORD PTR __Parg$[ebp]
  00008	89 08		 mov	 DWORD PTR [eax], ecx

; 305  : 		}

  0000a	5d		 pop	 ebp
  0000b	c2 08 00	 ret	 8
??0?$_Vector_iterator@V?$_Vector_val@HV?$allocator@H@std@@@std@@@std@@QAE@PAHPBU_Container_base0@1@@Z ENDP ; std::_Vector_iterator<std::_Vector_val<int,std::allocator<int> > >::_Vector_iterator<std::_Vector_val<int,std::allocator<int> > >
_TEXT	ENDS
PUBLIC	??0?$allocator@H@std@@QAE@ABV01@@Z		; std::allocator<int>::allocator<int>
; Function compile flags: /Ogsp
; File c:\program files (x86)\microsoft visual studio 10.0\vc\include\xmemory
;	COMDAT ??0?$allocator@H@std@@QAE@ABV01@@Z
_TEXT	SEGMENT
___formal$ = 8						; size = 4
??0?$allocator@H@std@@QAE@ABV01@@Z PROC			; std::allocator<int>::allocator<int>, COMDAT
; _this$ = ecx

; 165  : 	_ALLOCATOR(const _ALLOCATOR<_Ty>&) _THROW0()

  00000	8b c1		 mov	 eax, ecx

; 166  : 		{	// construct by copying (do nothing)
; 167  : 		}

  00002	c2 04 00	 ret	 4
??0?$allocator@H@std@@QAE@ABV01@@Z ENDP			; std::allocator<int>::allocator<int>
_TEXT	ENDS
PUBLIC	?deallocate@?$allocator@H@std@@QAEXPAHI@Z	; std::allocator<int>::deallocate
; Function compile flags: /Ogsp
;	COMDAT ?deallocate@?$allocator@H@std@@QAEXPAHI@Z
_TEXT	SEGMENT
__Ptr$ = 8						; size = 4
___formal$ = 12						; size = 4
?deallocate@?$allocator@H@std@@QAEXPAHI@Z PROC		; std::allocator<int>::deallocate, COMDAT
; _this$ = ecx

; 181  : 		{	// deallocate object at _Ptr, ignore size

  00000	55		 push	 ebp
  00001	8b ec		 mov	 ebp, esp

; 182  : 		::operator delete(_Ptr);

  00003	ff 75 08	 push	 DWORD PTR __Ptr$[ebp]
  00006	e8 00 00 00 00	 call	 ??3@YAXPAX@Z		; operator delete
  0000b	59		 pop	 ecx

; 183  : 		}

  0000c	5d		 pop	 ebp
  0000d	c2 08 00	 ret	 8
?deallocate@?$allocator@H@std@@QAEXPAHI@Z ENDP		; std::allocator<int>::deallocate
_TEXT	ENDS
PUBLIC	?capacity@?$vector@HV?$allocator@H@std@@@std@@QBEIXZ ; std::vector<int,std::allocator<int> >::capacity
; Function compile flags: /Ogsp
; File c:\program files (x86)\microsoft visual studio 10.0\vc\include\vector
;	COMDAT ?capacity@?$vector@HV?$allocator@H@std@@@std@@QBEIXZ
_TEXT	SEGMENT
?capacity@?$vector@HV?$allocator@H@std@@@std@@QBEIXZ PROC ; std::vector<int,std::allocator<int> >::capacity, COMDAT
; _this$ = ecx

; 777  : 		return (this->_Myend - this->_Myfirst);

  00000	8b 41 08	 mov	 eax, DWORD PTR [ecx+8]
  00003	2b 01		 sub	 eax, DWORD PTR [ecx]
  00005	c1 f8 02	 sar	 eax, 2

; 778  : 		}

  00008	c3		 ret	 0
?capacity@?$vector@HV?$allocator@H@std@@@std@@QBEIXZ ENDP ; std::vector<int,std::allocator<int> >::capacity
_TEXT	ENDS
PUBLIC	?_Make_iter@?$vector@HV?$allocator@H@std@@@std@@QBE?AV?$_Vector_iterator@V?$_Vector_val@HV?$allocator@H@std@@@std@@@2@V?$_Vector_const_iterator@V?$_Vector_val@HV?$allocator@H@std@@@std@@@2@@Z ; std::vector<int,std::allocator<int> >::_Make_iter
; Function compile flags: /Ogsp
;	COMDAT ?_Make_iter@?$vector@HV?$allocator@H@std@@@std@@QBE?AV?$_Vector_iterator@V?$_Vector_val@HV?$allocator@H@std@@@std@@@2@V?$_Vector_const_iterator@V?$_Vector_val@HV?$allocator@H@std@@@std@@@2@@Z
_TEXT	SEGMENT
___$ReturnUdt$ = 8					; size = 4
__Where$ = 12						; size = 4
?_Make_iter@?$vector@HV?$allocator@H@std@@@std@@QBE?AV?$_Vector_iterator@V?$_Vector_val@HV?$allocator@H@std@@@std@@@2@V?$_Vector_const_iterator@V?$_Vector_val@HV?$allocator@H@std@@@std@@@2@@Z PROC ; std::vector<int,std::allocator<int> >::_Make_iter, COMDAT
; _this$ = ecx

; 801  : 		{	// make iterator from const_iterator

  00000	55		 push	 ebp
  00001	8b ec		 mov	 ebp, esp

; 802  : 		return (iterator(_Where._Ptr, this));

  00003	8b 45 08	 mov	 eax, DWORD PTR ___$ReturnUdt$[ebp]
  00006	8b 4d 0c	 mov	 ecx, DWORD PTR __Where$[ebp]
  00009	89 08		 mov	 DWORD PTR [eax], ecx

; 803  : 		}

  0000b	5d		 pop	 ebp
  0000c	c2 08 00	 ret	 8
?_Make_iter@?$vector@HV?$allocator@H@std@@@std@@QBE?AV?$_Vector_iterator@V?$_Vector_val@HV?$allocator@H@std@@@std@@@2@V?$_Vector_const_iterator@V?$_Vector_val@HV?$allocator@H@std@@@std@@@2@@Z ENDP ; std::vector<int,std::allocator<int> >::_Make_iter
_TEXT	ENDS
PUBLIC	?_Xlen@?$vector@HV?$allocator@H@std@@@std@@IBEXXZ ; std::vector<int,std::allocator<int> >::_Xlen
; Function compile flags: /Ogsp
;	COMDAT ?_Xlen@?$vector@HV?$allocator@H@std@@@std@@IBEXXZ
_TEXT	SEGMENT
?_Xlen@?$vector@HV?$allocator@H@std@@@std@@IBEXXZ PROC	; std::vector<int,std::allocator<int> >::_Xlen, COMDAT
; _this$ = ecx

; 1427 : 		_Xlength_error("vector<T> too long");

  00000	68 00 00 00 00	 push	 OFFSET ??_C@_0BD@OLBABOEK@vector?$DMT?$DO?5too?5long?$AA@
  00005	ff 15 00 00 00
	00		 call	 DWORD PTR __imp_?_Xlength_error@std@@YAXPBD@Z
$LN4@Xlen@3:
$LN3@Xlen@3:
  0000b	cc		 int	 3
?_Xlen@?$vector@HV?$allocator@H@std@@@std@@IBEXXZ ENDP	; std::vector<int,std::allocator<int> >::_Xlen
_TEXT	ENDS
PUBLIC	?max_size@?$allocator@H@std@@QBEIXZ		; std::allocator<int>::max_size
; Function compile flags: /Ogsp
; File c:\program files (x86)\microsoft visual studio 10.0\vc\include\xmemory
;	COMDAT ?max_size@?$allocator@H@std@@QBEIXZ
_TEXT	SEGMENT
?max_size@?$allocator@H@std@@QBEIXZ PROC		; std::allocator<int>::max_size, COMDAT
; _this$ = ecx

; 218  : 		_SIZT _Count = (_SIZT)(-1) / sizeof (_Ty);
; 219  : 		return (0 < _Count ? _Count : 1);

  00000	b8 ff ff ff 3f	 mov	 eax, 1073741823		; 3fffffffH

; 220  : 		}

  00005	c3		 ret	 0
?max_size@?$allocator@H@std@@QBEIXZ ENDP		; std::allocator<int>::max_size
_TEXT	ENDS
PUBLIC	?_Compat@?$_Vector_const_iterator@V?$_Vector_val@HV?$allocator@H@std@@@std@@@std@@QBEXABV12@@Z ; std::_Vector_const_iterator<std::_Vector_val<int,std::allocator<int> > >::_Compat
; Function compile flags: /Ogsp
; File c:\program files (x86)\microsoft visual studio 10.0\vc\include\vector
;	COMDAT ?_Compat@?$_Vector_const_iterator@V?$_Vector_val@HV?$allocator@H@std@@@std@@@std@@QBEXABV12@@Z
_TEXT	SEGMENT
___formal$ = 8						; size = 4
?_Compat@?$_Vector_const_iterator@V?$_Vector_val@HV?$allocator@H@std@@@std@@@std@@QBEXABV12@@Z PROC ; std::_Vector_const_iterator<std::_Vector_val<int,std::allocator<int> > >::_Compat, COMDAT
; _this$ = ecx

; 253  : 		}

  00000	c2 04 00	 ret	 4
?_Compat@?$_Vector_const_iterator@V?$_Vector_val@HV?$allocator@H@std@@@std@@@std@@QBEXABV12@@Z ENDP ; std::_Vector_const_iterator<std::_Vector_val<int,std::allocator<int> > >::_Compat
_TEXT	ENDS
PUBLIC	??$_Allocate@H@std@@YAPAHIPAH@Z			; std::_Allocate<int>
; Function compile flags: /Ogsp
; File c:\program files (x86)\microsoft visual studio 10.0\vc\include\xmemory
;	COMDAT ??$_Allocate@H@std@@YAPAHIPAH@Z
_TEXT	SEGMENT
$T510739 = -12						; size = 12
$T510743 = 8						; size = 4
__Count$ = 8						; size = 4
___formal$ = 12						; size = 4
??$_Allocate@H@std@@YAPAHIPAH@Z PROC			; std::_Allocate<int>, COMDAT

; 30   : 	{	// allocate storage for _Count elements of type _Ty

  00000	55		 push	 ebp
  00001	8b ec		 mov	 ebp, esp

; 31   : 	void *_Ptr = 0;
; 32   : 
; 33   : 	if (_Count <= 0)

  00003	8b 4d 08	 mov	 ecx, DWORD PTR __Count$[ebp]
  00006	83 ec 0c	 sub	 esp, 12			; 0000000cH
  00009	33 c0		 xor	 eax, eax
  0000b	85 c9		 test	 ecx, ecx

; 34   : 		_Count = 0;
; 35   : 	else if (((_SIZT)(-1) / sizeof (_Ty) < _Count)

  0000d	74 3e		 je	 SHORT $LN5@Allocate@3

; 36   : 		|| (_Ptr = ::operator new(_Count * sizeof (_Ty))) == 0)

  0000f	81 f9 ff ff ff
	3f		 cmp	 ecx, 1073741823		; 3fffffffH
  00015	77 10		 ja	 SHORT $LN1@Allocate@3
  00017	8b c1		 mov	 eax, ecx
  00019	c1 e0 02	 shl	 eax, 2
  0001c	50		 push	 eax
  0001d	e8 00 00 00 00	 call	 ??2@YAPAXI@Z		; operator new
  00022	59		 pop	 ecx
  00023	85 c0		 test	 eax, eax

; 38   : 
; 39   : 	return ((_Ty _FARQ *)_Ptr);

  00025	75 26		 jne	 SHORT $LN5@Allocate@3
$LN1@Allocate@3:

; 37   : 		_THROW_NCEE(bad_alloc, 0);

  00027	83 65 08 00	 and	 DWORD PTR $T510743[ebp], 0
  0002b	8d 45 08	 lea	 eax, DWORD PTR $T510743[ebp]
  0002e	50		 push	 eax
  0002f	8d 4d f4	 lea	 ecx, DWORD PTR $T510739[ebp]
  00032	ff 15 00 00 00
	00		 call	 DWORD PTR __imp_??0exception@std@@QAE@ABQBD@Z
  00038	68 00 00 00 00	 push	 OFFSET __TI2?AVbad_alloc@std@@
  0003d	8d 45 f4	 lea	 eax, DWORD PTR $T510739[ebp]
  00040	50		 push	 eax
  00041	c7 45 f4 00 00
	00 00		 mov	 DWORD PTR $T510739[ebp], OFFSET ??_7bad_alloc@std@@6B@
  00048	e8 00 00 00 00	 call	 __CxxThrowException@8
$LN10@Allocate@3:
$LN5@Allocate@3:

; 40   : 	}

  0004d	c9		 leave
  0004e	c3		 ret	 0
$LN9@Allocate@3:
??$_Allocate@H@std@@YAPAHIPAH@Z ENDP			; std::_Allocate<int>
_TEXT	ENDS
EXTRN	__imp_??0exception@std@@QAE@ABV01@@Z:PROC
; Function compile flags: /Ogsp
;	COMDAT ??0bad_alloc@std@@QAE@ABV01@@Z
_TEXT	SEGMENT
___that$ = 8						; size = 4
??0bad_alloc@std@@QAE@ABV01@@Z PROC			; std::bad_alloc::bad_alloc, COMDAT
; _this$ = ecx
  00000	55		 push	 ebp
  00001	8b ec		 mov	 ebp, esp
  00003	56		 push	 esi
  00004	ff 75 08	 push	 DWORD PTR ___that$[ebp]
  00007	8b f1		 mov	 esi, ecx
  00009	ff 15 00 00 00
	00		 call	 DWORD PTR __imp_??0exception@std@@QAE@ABV01@@Z
  0000f	c7 06 00 00 00
	00		 mov	 DWORD PTR [esi], OFFSET ??_7bad_alloc@std@@6B@
  00015	8b c6		 mov	 eax, esi
  00017	5e		 pop	 esi
  00018	5d		 pop	 ebp
  00019	c2 04 00	 ret	 4
??0bad_alloc@std@@QAE@ABV01@@Z ENDP			; std::bad_alloc::bad_alloc
_TEXT	ENDS
PUBLIC	??$forward@AAH@std@@YAAAHAAH@Z			; std::forward<int &>
; Function compile flags: /Ogsp
; File c:\program files (x86)\microsoft visual studio 10.0\vc\include\utility
;	COMDAT ??$forward@AAH@std@@YAAAHAAH@Z
_TEXT	SEGMENT
__Arg$ = 8						; size = 4
??$forward@AAH@std@@YAAAHAAH@Z PROC			; std::forward<int &>, COMDAT

; 78   : 	{	// forward _Arg, given explicitly specified type parameter

  00000	55		 push	 ebp
  00001	8b ec		 mov	 ebp, esp

; 79   : 	return ((_Ty&&)_Arg);

  00003	8b 45 08	 mov	 eax, DWORD PTR __Arg$[ebp]

; 80   : 	}

  00006	5d		 pop	 ebp
  00007	c3		 ret	 0
??$forward@AAH@std@@YAAAHAAH@Z ENDP			; std::forward<int &>
_TEXT	ENDS
PUBLIC	??$_Val_type@PAH@std@@YAPAHPAH@Z		; std::_Val_type<int *>
; Function compile flags: /Ogsp
; File c:\program files (x86)\microsoft visual studio 10.0\vc\include\xutility
;	COMDAT ??$_Val_type@PAH@std@@YAPAHPAH@Z
_TEXT	SEGMENT
___formal$ = 8						; size = 4
??$_Val_type@PAH@std@@YAPAHPAH@Z PROC			; std::_Val_type<int *>, COMDAT

; 790  : 	return (0);

  00000	33 c0		 xor	 eax, eax

; 791  : 	}

  00002	c3		 ret	 0
??$_Val_type@PAH@std@@YAPAHPAH@Z ENDP			; std::_Val_type<int *>
_TEXT	ENDS
PUBLIC	??$_Ptr_cat@HH@std@@YA?AU_Scalar_ptr_iterator_tag@0@PAH0@Z ; std::_Ptr_cat<int,int>
; Function compile flags: /Ogsp
;	COMDAT ??$_Ptr_cat@HH@std@@YA?AU_Scalar_ptr_iterator_tag@0@PAH0@Z
_TEXT	SEGMENT
__Cat$ = -1						; size = 1
___formal$ = 8						; size = 4
___formal$ = 12						; size = 4
??$_Ptr_cat@HH@std@@YA?AU_Scalar_ptr_iterator_tag@0@PAH0@Z PROC ; std::_Ptr_cat<int,int>, COMDAT

; 516  : 	{	// return pointer category from pointers

  00000	55		 push	 ebp
  00001	8b ec		 mov	 ebp, esp
  00003	51		 push	 ecx

; 517  : 	typename _Ptr_cat_helper<_Elem1, _Elem2>::_Type _Cat;
; 518  : 	return (_Cat);

  00004	8a 45 ff	 mov	 al, BYTE PTR __Cat$[ebp]

; 519  : 	}

  00007	c9		 leave
  00008	c3		 ret	 0
??$_Ptr_cat@HH@std@@YA?AU_Scalar_ptr_iterator_tag@0@PAH0@Z ENDP ; std::_Ptr_cat<int,int>
_TEXT	ENDS
PUBLIC	??$_Move@PAHPAH@std@@YAPAHPAH00U_Scalar_ptr_iterator_tag@0@@Z ; std::_Move<int *,int *>
; Function compile flags: /Ogsp
;	COMDAT ??$_Move@PAHPAH@std@@YAPAHPAH00U_Scalar_ptr_iterator_tag@0@@Z
_TEXT	SEGMENT
__First$ = 8						; size = 4
__Last$ = 12						; size = 4
__Dest$ = 16						; size = 4
___formal$ = 20						; size = 1
??$_Move@PAHPAH@std@@YAPAHPAH00U_Scalar_ptr_iterator_tag@0@@Z PROC ; std::_Move<int *,int *>, COMDAT

; 2522 : 	{	// move [_First, _Last) to [_Dest, ...), pointers to scalars

  00000	55		 push	 ebp
  00001	8b ec		 mov	 ebp, esp
  00003	56		 push	 esi

; 2523 : 	ptrdiff_t _Count = _Last - _First;

  00004	8b 75 0c	 mov	 esi, DWORD PTR __Last$[ebp]
  00007	2b 75 08	 sub	 esi, DWORD PTR __First$[ebp]
  0000a	57		 push	 edi

; 2524 : 	_CSTD memmove(&*_Dest, &*_First,
; 2525 : 		_Count * sizeof (*_First));

  0000b	8b 7d 10	 mov	 edi, DWORD PTR __Dest$[ebp]
  0000e	c1 fe 02	 sar	 esi, 2
  00011	c1 e6 02	 shl	 esi, 2
  00014	56		 push	 esi
  00015	ff 75 08	 push	 DWORD PTR __First$[ebp]
  00018	57		 push	 edi
  00019	ff 15 00 00 00
	00		 call	 DWORD PTR __imp__memmove
  0001f	83 c4 0c	 add	 esp, 12			; 0000000cH

; 2526 : 	return (_Dest + _Count);

  00022	8d 04 3e	 lea	 eax, DWORD PTR [esi+edi]
  00025	5f		 pop	 edi
  00026	5e		 pop	 esi

; 2527 : 	}

  00027	5d		 pop	 ebp
  00028	c3		 ret	 0
??$_Move@PAHPAH@std@@YAPAHPAH00U_Scalar_ptr_iterator_tag@0@@Z ENDP ; std::_Move<int *,int *>
_TEXT	ENDS
PUBLIC	??$_Destroy_range@V?$allocator@H@std@@@std@@YAXPAH0AAV?$allocator@H@0@U_Scalar_ptr_iterator_tag@0@@Z ; std::_Destroy_range<std::allocator<int> >
; Function compile flags: /Ogsp
; File c:\program files (x86)\microsoft visual studio 10.0\vc\include\xmemory
;	COMDAT ??$_Destroy_range@V?$allocator@H@std@@@std@@YAXPAH0AAV?$allocator@H@0@U_Scalar_ptr_iterator_tag@0@@Z
_TEXT	SEGMENT
__First$ = 8						; size = 4
__Last$ = 12						; size = 4
__Al$ = 16						; size = 4
___formal$ = 20						; size = 1
??$_Destroy_range@V?$allocator@H@std@@@std@@YAXPAH0AAV?$allocator@H@0@U_Scalar_ptr_iterator_tag@0@@Z PROC ; std::_Destroy_range<std::allocator<int> >, COMDAT

; 105  : 	}

  00000	c3		 ret	 0
??$_Destroy_range@V?$allocator@H@std@@@std@@YAXPAH0AAV?$allocator@H@0@U_Scalar_ptr_iterator_tag@0@@Z ENDP ; std::_Destroy_range<std::allocator<int> >
_TEXT	ENDS
PUBLIC	??$_Uninit_move@HHH@std@@YAPAHPAH00AAV?$allocator@H@0@0U_Scalar_ptr_iterator_tag@0@@Z ; std::_Uninit_move<int,int,int>
; Function compile flags: /Ogsp
; File c:\program files (x86)\microsoft visual studio 10.0\vc\include\memory
;	COMDAT ??$_Uninit_move@HHH@std@@YAPAHPAH00AAV?$allocator@H@0@0U_Scalar_ptr_iterator_tag@0@@Z
_TEXT	SEGMENT
__First$ = 8						; size = 4
__Last$ = 12						; size = 4
__Dest$ = 16						; size = 4
___formal$ = 20						; size = 4
___formal$ = 24						; size = 4
___formal$ = 28						; size = 1
??$_Uninit_move@HHH@std@@YAPAHPAH00AAV?$allocator@H@0@0U_Scalar_ptr_iterator_tag@0@@Z PROC ; std::_Uninit_move<int,int,int>, COMDAT

; 456  : 	{	// move [_First, _Last) to raw _Dest, scalar type

  00000	55		 push	 ebp
  00001	8b ec		 mov	 ebp, esp
  00003	56		 push	 esi

; 457  : 	_DEBUG_RANGE(_First, _Last);
; 458  : 	_DEBUG_POINTER(_Dest);
; 459  : 	size_t _Count = (size_t)(_Last - _First);

  00004	8b 75 0c	 mov	 esi, DWORD PTR __Last$[ebp]
  00007	2b 75 08	 sub	 esi, DWORD PTR __First$[ebp]
  0000a	c1 fe 02	 sar	 esi, 2

; 460  : 	return ((_Ty2 *)_CSTD memmove(&*_Dest, &*_First,
; 461  : 		_Count * sizeof (*_First)) + _Count);	// NB: non-overlapping move

  0000d	c1 e6 02	 shl	 esi, 2
  00010	56		 push	 esi
  00011	ff 75 08	 push	 DWORD PTR __First$[ebp]
  00014	ff 75 10	 push	 DWORD PTR __Dest$[ebp]
  00017	ff 15 00 00 00
	00		 call	 DWORD PTR __imp__memmove
  0001d	83 c4 0c	 add	 esp, 12			; 0000000cH
  00020	03 c6		 add	 eax, esi
  00022	5e		 pop	 esi

; 462  : 	}

  00023	5d		 pop	 ebp
  00024	c3		 ret	 0
??$_Uninit_move@HHH@std@@YAPAHPAH00AAV?$allocator@H@0@0U_Scalar_ptr_iterator_tag@0@@Z ENDP ; std::_Uninit_move<int,int,int>
_TEXT	ENDS
PUBLIC	?GetSingleton@ioShopItemExtraInfoManager@@SAAAV1@XZ ; ioShopItemExtraInfoManager::GetSingleton
; Function compile flags: /Ogsp
; File d:\lost saga for developer\youtube\tutorial\source\src\lsclient\ioshopitemextrainfomanager.cpp
;	COMDAT ?GetSingleton@ioShopItemExtraInfoManager@@SAAAV1@XZ
_TEXT	SEGMENT
?GetSingleton@ioShopItemExtraInfoManager@@SAAAV1@XZ PROC ; ioShopItemExtraInfoManager::GetSingleton, COMDAT

; 20   : 	return Singleton< ioShopItemExtraInfoManager >::GetSingleton();

  00000	a1 00 00 00 00	 mov	 eax, DWORD PTR ?ms_Singleton@?$Singleton@VioShopItemExtraInfoManager@@@@1PAVioShopItemExtraInfoManager@@A ; Singleton<ioShopItemExtraInfoManager>::ms_Singleton

; 21   : }

  00005	c3		 ret	 0
?GetSingleton@ioShopItemExtraInfoManager@@SAAAV1@XZ ENDP ; ioShopItemExtraInfoManager::GetSingleton
_TEXT	ENDS
PUBLIC	?IsApplyMachine@ioShopItemExtraInfoManager@@IAE_NHABV?$vector@HV?$allocator@H@std@@@std@@@Z ; ioShopItemExtraInfoManager::IsApplyMachine
; Function compile flags: /Ogsp
;	COMDAT ?IsApplyMachine@ioShopItemExtraInfoManager@@IAE_NHABV?$vector@HV?$allocator@H@std@@@std@@@Z
_TEXT	SEGMENT
_nItemValue$ = 8					; size = 4
_vList$ = 12						; size = 4
?IsApplyMachine@ioShopItemExtraInfoManager@@IAE_NHABV?$vector@HV?$allocator@H@std@@@std@@@Z PROC ; ioShopItemExtraInfoManager::IsApplyMachine, COMDAT
; _this$ = ecx

; 179  : {

  00000	55		 push	 ebp
  00001	8b ec		 mov	 ebp, esp

; 180  : 	if ( vList.empty() || nItemValue <= 0 )

  00003	8b 45 0c	 mov	 eax, DWORD PTR _vList$[ebp]
  00006	8b 08		 mov	 ecx, DWORD PTR [eax]
  00008	8b 40 04	 mov	 eax, DWORD PTR [eax+4]
  0000b	56		 push	 esi
  0000c	3b c8		 cmp	 ecx, eax
  0000e	74 1e		 je	 SHORT $LN5@IsApplyMac
  00010	8b 75 08	 mov	 esi, DWORD PTR _nItemValue$[ebp]
  00013	85 f6		 test	 esi, esi
  00015	7e 17		 jle	 SHORT $LN5@IsApplyMac

; 182  : 
; 183  : 	for ( int i=0; i< (int)vList.size(); ++i )

  00017	2b c1		 sub	 eax, ecx
  00019	c1 f8 02	 sar	 eax, 2
  0001c	33 d2		 xor	 edx, edx
  0001e	85 c0		 test	 eax, eax
  00020	7e 0c		 jle	 SHORT $LN5@IsApplyMac
$LL4@IsApplyMac:

; 184  : 	{
; 185  : 		if ( nItemValue == vList[i] )

  00022	3b 31		 cmp	 esi, DWORD PTR [ecx]
  00024	74 0f		 je	 SHORT $LN16@IsApplyMac

; 182  : 
; 183  : 	for ( int i=0; i< (int)vList.size(); ++i )

  00026	42		 inc	 edx
  00027	83 c1 04	 add	 ecx, 4
  0002a	3b d0		 cmp	 edx, eax
  0002c	7c f4		 jl	 SHORT $LL4@IsApplyMac
$LN5@IsApplyMac:

; 181  : 		return false;

  0002e	32 c0		 xor	 al, al
$LN7@IsApplyMac:
  00030	5e		 pop	 esi

; 187  : 	}
; 188  : 
; 189  : 	return false;
; 190  : }

  00031	5d		 pop	 ebp
  00032	c2 08 00	 ret	 8
$LN16@IsApplyMac:

; 186  : 			return true;

  00035	b0 01		 mov	 al, 1
  00037	eb f7		 jmp	 SHORT $LN7@IsApplyMac
?IsApplyMachine@ioShopItemExtraInfoManager@@IAE_NHABV?$vector@HV?$allocator@H@std@@@std@@@Z ENDP ; ioShopItemExtraInfoManager::IsApplyMachine
_TEXT	ENDS
PUBLIC	?max_size@?$vector@UtagShopItemMovieInfo@ioShopItemExtraInfoManager@@V?$allocator@UtagShopItemMovieInfo@ioShopItemExtraInfoManager@@@std@@@std@@QBEIXZ ; std::vector<ioShopItemExtraInfoManager::tagShopItemMovieInfo,std::allocator<ioShopItemExtraInfoManager::tagShopItemMovieInfo> >::max_size
; Function compile flags: /Ogsp
; File c:\program files (x86)\microsoft visual studio 10.0\vc\include\vector
;	COMDAT ?max_size@?$vector@UtagShopItemMovieInfo@ioShopItemExtraInfoManager@@V?$allocator@UtagShopItemMovieInfo@ioShopItemExtraInfoManager@@@std@@@std@@QBEIXZ
_TEXT	SEGMENT
?max_size@?$vector@UtagShopItemMovieInfo@ioShopItemExtraInfoManager@@V?$allocator@UtagShopItemMovieInfo@ioShopItemExtraInfoManager@@@std@@@std@@QBEIXZ PROC ; std::vector<ioShopItemExtraInfoManager::tagShopItemMovieInfo,std::allocator<ioShopItemExtraInfoManager::tagShopItemMovieInfo> >::max_size, COMDAT
; _this$ = ecx

; 884  : 		return (this->_Alval.max_size());

  00000	b8 c4 4e ec 04	 mov	 eax, 82595524		; 04ec4ec4H

; 885  : 		}

  00005	c3		 ret	 0
?max_size@?$vector@UtagShopItemMovieInfo@ioShopItemExtraInfoManager@@V?$allocator@UtagShopItemMovieInfo@ioShopItemExtraInfoManager@@@std@@@std@@QBEIXZ ENDP ; std::vector<ioShopItemExtraInfoManager::tagShopItemMovieInfo,std::allocator<ioShopItemExtraInfoManager::tagShopItemMovieInfo> >::max_size
_TEXT	ENDS
PUBLIC	??0?$_Vector_val@UtagShopItemMovieInfo@ioShopItemExtraInfoManager@@V?$allocator@UtagShopItemMovieInfo@ioShopItemExtraInfoManager@@@std@@@std@@QAE@V?$allocator@UtagShopItemMovieInfo@ioShopItemExtraInfoManager@@@1@@Z ; std::_Vector_val<ioShopItemExtraInfoManager::tagShopItemMovieInfo,std::allocator<ioShopItemExtraInfoManager::tagShopItemMovieInfo> >::_Vector_val<ioShopItemExtraInfoManager::tagShopItemMovieInfo,std::allocator<ioShopItemExtraInfoManager::tagShopItemMovieInfo> >
; Function compile flags: /Ogsp
;	COMDAT ??0?$_Vector_val@UtagShopItemMovieInfo@ioShopItemExtraInfoManager@@V?$allocator@UtagShopItemMovieInfo@ioShopItemExtraInfoManager@@@std@@@std@@QAE@V?$allocator@UtagShopItemMovieInfo@ioShopItemExtraInfoManager@@@1@@Z
_TEXT	SEGMENT
__Al$ = 8						; size = 1
??0?$_Vector_val@UtagShopItemMovieInfo@ioShopItemExtraInfoManager@@V?$allocator@UtagShopItemMovieInfo@ioShopItemExtraInfoManager@@@std@@@std@@QAE@V?$allocator@UtagShopItemMovieInfo@ioShopItemExtraInfoManager@@@1@@Z PROC ; std::_Vector_val<ioShopItemExtraInfoManager::tagShopItemMovieInfo,std::allocator<ioShopItemExtraInfoManager::tagShopItemMovieInfo> >::_Vector_val<ioShopItemExtraInfoManager::tagShopItemMovieInfo,std::allocator<ioShopItemExtraInfoManager::tagShopItemMovieInfo> >, COMDAT
; _this$ = ecx

; 426  : 		{	// construct allocator from _Al

  00000	8b c1		 mov	 eax, ecx

; 427  : 		_Myfirst = 0;

  00002	33 c9		 xor	 ecx, ecx
  00004	89 08		 mov	 DWORD PTR [eax], ecx

; 428  : 		_Mylast = 0;

  00006	89 48 04	 mov	 DWORD PTR [eax+4], ecx

; 429  : 		_Myend = 0;

  00009	89 48 08	 mov	 DWORD PTR [eax+8], ecx

; 430  : 		}

  0000c	c2 04 00	 ret	 4
??0?$_Vector_val@UtagShopItemMovieInfo@ioShopItemExtraInfoManager@@V?$allocator@UtagShopItemMovieInfo@ioShopItemExtraInfoManager@@@std@@@std@@QAE@V?$allocator@UtagShopItemMovieInfo@ioShopItemExtraInfoManager@@@1@@Z ENDP ; std::_Vector_val<ioShopItemExtraInfoManager::tagShopItemMovieInfo,std::allocator<ioShopItemExtraInfoManager::tagShopItemMovieInfo> >::_Vector_val<ioShopItemExtraInfoManager::tagShopItemMovieInfo,std::allocator<ioShopItemExtraInfoManager::tagShopItemMovieInfo> >
_TEXT	ENDS
PUBLIC	?allocate@?$allocator@UtagShopItemMovieInfo@ioShopItemExtraInfoManager@@@std@@QAEPAUtagShopItemMovieInfo@ioShopItemExtraInfoManager@@I@Z ; std::allocator<ioShopItemExtraInfoManager::tagShopItemMovieInfo>::allocate
; Function compile flags: /Ogsp
; File c:\program files (x86)\microsoft visual studio 10.0\vc\include\xmemory
;	COMDAT ?allocate@?$allocator@UtagShopItemMovieInfo@ioShopItemExtraInfoManager@@@std@@QAEPAUtagShopItemMovieInfo@ioShopItemExtraInfoManager@@I@Z
_TEXT	SEGMENT
__Count$ = 8						; size = 4
?allocate@?$allocator@UtagShopItemMovieInfo@ioShopItemExtraInfoManager@@@std@@QAEPAUtagShopItemMovieInfo@ioShopItemExtraInfoManager@@I@Z PROC ; std::allocator<ioShopItemExtraInfoManager::tagShopItemMovieInfo>::allocate, COMDAT
; _this$ = ecx

; 186  : 		{	// allocate array of _Count elements

  00000	55		 push	 ebp
  00001	8b ec		 mov	 ebp, esp

; 187  : 		return (_Allocate(_Count, (pointer)0));

  00003	6a 00		 push	 0
  00005	ff 75 08	 push	 DWORD PTR __Count$[ebp]
  00008	e8 00 00 00 00	 call	 ??$_Allocate@UtagShopItemMovieInfo@ioShopItemExtraInfoManager@@@std@@YAPAUtagShopItemMovieInfo@ioShopItemExtraInfoManager@@IPAU12@@Z ; std::_Allocate<ioShopItemExtraInfoManager::tagShopItemMovieInfo>
  0000d	59		 pop	 ecx
  0000e	59		 pop	 ecx

; 188  : 		}

  0000f	5d		 pop	 ebp
  00010	c2 04 00	 ret	 4
?allocate@?$allocator@UtagShopItemMovieInfo@ioShopItemExtraInfoManager@@@std@@QAEPAUtagShopItemMovieInfo@ioShopItemExtraInfoManager@@I@Z ENDP ; std::allocator<ioShopItemExtraInfoManager::tagShopItemMovieInfo>::allocate
_TEXT	ENDS
PUBLIC	??0?$_Vector_val@UtagShopItemExtraInfo@ioShopItemExtraInfoManager@@V?$allocator@UtagShopItemExtraInfo@ioShopItemExtraInfoManager@@@std@@@std@@QAE@V?$allocator@UtagShopItemExtraInfo@ioShopItemExtraInfoManager@@@1@@Z ; std::_Vector_val<ioShopItemExtraInfoManager::tagShopItemExtraInfo,std::allocator<ioShopItemExtraInfoManager::tagShopItemExtraInfo> >::_Vector_val<ioShopItemExtraInfoManager::tagShopItemExtraInfo,std::allocator<ioShopItemExtraInfoManager::tagShopItemExtraInfo> >
; Function compile flags: /Ogsp
; File c:\program files (x86)\microsoft visual studio 10.0\vc\include\vector
;	COMDAT ??0?$_Vector_val@UtagShopItemExtraInfo@ioShopItemExtraInfoManager@@V?$allocator@UtagShopItemExtraInfo@ioShopItemExtraInfoManager@@@std@@@std@@QAE@V?$allocator@UtagShopItemExtraInfo@ioShopItemExtraInfoManager@@@1@@Z
_TEXT	SEGMENT
__Al$ = 8						; size = 1
??0?$_Vector_val@UtagShopItemExtraInfo@ioShopItemExtraInfoManager@@V?$allocator@UtagShopItemExtraInfo@ioShopItemExtraInfoManager@@@std@@@std@@QAE@V?$allocator@UtagShopItemExtraInfo@ioShopItemExtraInfoManager@@@1@@Z PROC ; std::_Vector_val<ioShopItemExtraInfoManager::tagShopItemExtraInfo,std::allocator<ioShopItemExtraInfoManager::tagShopItemExtraInfo> >::_Vector_val<ioShopItemExtraInfoManager::tagShopItemExtraInfo,std::allocator<ioShopItemExtraInfoManager::tagShopItemExtraInfo> >, COMDAT
; _this$ = ecx

; 426  : 		{	// construct allocator from _Al

  00000	8b c1		 mov	 eax, ecx

; 427  : 		_Myfirst = 0;

  00002	33 c9		 xor	 ecx, ecx
  00004	89 08		 mov	 DWORD PTR [eax], ecx

; 428  : 		_Mylast = 0;

  00006	89 48 04	 mov	 DWORD PTR [eax+4], ecx

; 429  : 		_Myend = 0;

  00009	89 48 08	 mov	 DWORD PTR [eax+8], ecx

; 430  : 		}

  0000c	c2 04 00	 ret	 4
??0?$_Vector_val@UtagShopItemExtraInfo@ioShopItemExtraInfoManager@@V?$allocator@UtagShopItemExtraInfo@ioShopItemExtraInfoManager@@@std@@@std@@QAE@V?$allocator@UtagShopItemExtraInfo@ioShopItemExtraInfoManager@@@1@@Z ENDP ; std::_Vector_val<ioShopItemExtraInfoManager::tagShopItemExtraInfo,std::allocator<ioShopItemExtraInfoManager::tagShopItemExtraInfo> >::_Vector_val<ioShopItemExtraInfoManager::tagShopItemExtraInfo,std::allocator<ioShopItemExtraInfoManager::tagShopItemExtraInfo> >
_TEXT	ENDS
PUBLIC	?_Grow_to@?$vector@UtagShopItemMovieInfo@ioShopItemExtraInfoManager@@V?$allocator@UtagShopItemMovieInfo@ioShopItemExtraInfoManager@@@std@@@std@@IBEII@Z ; std::vector<ioShopItemExtraInfoManager::tagShopItemMovieInfo,std::allocator<ioShopItemExtraInfoManager::tagShopItemMovieInfo> >::_Grow_to
; Function compile flags: /Ogsp
;	COMDAT ?_Grow_to@?$vector@UtagShopItemMovieInfo@ioShopItemExtraInfoManager@@V?$allocator@UtagShopItemMovieInfo@ioShopItemExtraInfoManager@@@std@@@std@@IBEII@Z
_TEXT	SEGMENT
__Count$ = 8						; size = 4
?_Grow_to@?$vector@UtagShopItemMovieInfo@ioShopItemExtraInfoManager@@V?$allocator@UtagShopItemMovieInfo@ioShopItemExtraInfoManager@@@std@@@std@@IBEII@Z PROC ; std::vector<ioShopItemExtraInfoManager::tagShopItemMovieInfo,std::allocator<ioShopItemExtraInfoManager::tagShopItemMovieInfo> >::_Grow_to, COMDAT
; _this$ = ecx

; 1274 : 		{	// grow by 50% or at least to _Count

  00000	55		 push	 ebp
  00001	8b ec		 mov	 ebp, esp

; 1275 : 		size_type _Capacity = capacity();

  00003	8b 41 08	 mov	 eax, DWORD PTR [ecx+8]
  00006	2b 01		 sub	 eax, DWORD PTR [ecx]
  00008	6a 34		 push	 52			; 00000034H
  0000a	99		 cdq
  0000b	59		 pop	 ecx
  0000c	f7 f9		 idiv	 ecx

; 1276 : 
; 1277 : 		_Capacity = max_size() - _Capacity / 2 < _Capacity
; 1278 : 			? 0 : _Capacity + _Capacity / 2;	// try to grow by 50%

  0000e	ba c4 4e ec 04	 mov	 edx, 82595524		; 04ec4ec4H
  00013	8b c8		 mov	 ecx, eax
  00015	d1 e9		 shr	 ecx, 1
  00017	2b d1		 sub	 edx, ecx
  00019	3b d0		 cmp	 edx, eax
  0001b	73 04		 jae	 SHORT $LN4@Grow_to
  0001d	33 c0		 xor	 eax, eax
  0001f	eb 02		 jmp	 SHORT $LN5@Grow_to
$LN4@Grow_to:
  00021	03 c1		 add	 eax, ecx
$LN5@Grow_to:

; 1279 : 		if (_Capacity < _Count)

  00023	3b 45 08	 cmp	 eax, DWORD PTR __Count$[ebp]

; 1280 : 			_Capacity = _Count;

  00026	0f 42 45 08	 cmovb	 eax, DWORD PTR __Count$[ebp]

; 1281 : 		return (_Capacity);
; 1282 : 		}

  0002a	5d		 pop	 ebp
  0002b	c2 04 00	 ret	 4
?_Grow_to@?$vector@UtagShopItemMovieInfo@ioShopItemExtraInfoManager@@V?$allocator@UtagShopItemMovieInfo@ioShopItemExtraInfoManager@@@std@@@std@@IBEII@Z ENDP ; std::vector<ioShopItemExtraInfoManager::tagShopItemMovieInfo,std::allocator<ioShopItemExtraInfoManager::tagShopItemMovieInfo> >::_Grow_to
_TEXT	ENDS
PUBLIC	?max_size@?$vector@UtagShopItemExtraInfo@ioShopItemExtraInfoManager@@V?$allocator@UtagShopItemExtraInfo@ioShopItemExtraInfoManager@@@std@@@std@@QBEIXZ ; std::vector<ioShopItemExtraInfoManager::tagShopItemExtraInfo,std::allocator<ioShopItemExtraInfoManager::tagShopItemExtraInfo> >::max_size
; Function compile flags: /Ogsp
;	COMDAT ?max_size@?$vector@UtagShopItemExtraInfo@ioShopItemExtraInfoManager@@V?$allocator@UtagShopItemExtraInfo@ioShopItemExtraInfoManager@@@std@@@std@@QBEIXZ
_TEXT	SEGMENT
?max_size@?$vector@UtagShopItemExtraInfo@ioShopItemExtraInfoManager@@V?$allocator@UtagShopItemExtraInfo@ioShopItemExtraInfoManager@@@std@@@std@@QBEIXZ PROC ; std::vector<ioShopItemExtraInfoManager::tagShopItemExtraInfo,std::allocator<ioShopItemExtraInfoManager::tagShopItemExtraInfo> >::max_size, COMDAT
; _this$ = ecx

; 884  : 		return (this->_Alval.max_size());

  00000	b8 44 44 44 04	 mov	 eax, 71582788		; 04444444H

; 885  : 		}

  00005	c3		 ret	 0
?max_size@?$vector@UtagShopItemExtraInfo@ioShopItemExtraInfoManager@@V?$allocator@UtagShopItemExtraInfo@ioShopItemExtraInfoManager@@@std@@@std@@QBEIXZ ENDP ; std::vector<ioShopItemExtraInfoManager::tagShopItemExtraInfo,std::allocator<ioShopItemExtraInfoManager::tagShopItemExtraInfo> >::max_size
_TEXT	ENDS
PUBLIC	?_Grow_to@?$vector@UtagShopItemExtraInfo@ioShopItemExtraInfoManager@@V?$allocator@UtagShopItemExtraInfo@ioShopItemExtraInfoManager@@@std@@@std@@IBEII@Z ; std::vector<ioShopItemExtraInfoManager::tagShopItemExtraInfo,std::allocator<ioShopItemExtraInfoManager::tagShopItemExtraInfo> >::_Grow_to
; Function compile flags: /Ogsp
;	COMDAT ?_Grow_to@?$vector@UtagShopItemExtraInfo@ioShopItemExtraInfoManager@@V?$allocator@UtagShopItemExtraInfo@ioShopItemExtraInfoManager@@@std@@@std@@IBEII@Z
_TEXT	SEGMENT
__Count$ = 8						; size = 4
?_Grow_to@?$vector@UtagShopItemExtraInfo@ioShopItemExtraInfoManager@@V?$allocator@UtagShopItemExtraInfo@ioShopItemExtraInfoManager@@@std@@@std@@IBEII@Z PROC ; std::vector<ioShopItemExtraInfoManager::tagShopItemExtraInfo,std::allocator<ioShopItemExtraInfoManager::tagShopItemExtraInfo> >::_Grow_to, COMDAT
; _this$ = ecx

; 1274 : 		{	// grow by 50% or at least to _Count

  00000	55		 push	 ebp
  00001	8b ec		 mov	 ebp, esp

; 1275 : 		size_type _Capacity = capacity();

  00003	8b 41 08	 mov	 eax, DWORD PTR [ecx+8]
  00006	2b 01		 sub	 eax, DWORD PTR [ecx]
  00008	6a 3c		 push	 60			; 0000003cH
  0000a	99		 cdq
  0000b	59		 pop	 ecx
  0000c	f7 f9		 idiv	 ecx

; 1276 : 
; 1277 : 		_Capacity = max_size() - _Capacity / 2 < _Capacity
; 1278 : 			? 0 : _Capacity + _Capacity / 2;	// try to grow by 50%

  0000e	ba 44 44 44 04	 mov	 edx, 71582788		; 04444444H
  00013	8b c8		 mov	 ecx, eax
  00015	d1 e9		 shr	 ecx, 1
  00017	2b d1		 sub	 edx, ecx
  00019	3b d0		 cmp	 edx, eax
  0001b	73 04		 jae	 SHORT $LN4@Grow_to@2
  0001d	33 c0		 xor	 eax, eax
  0001f	eb 02		 jmp	 SHORT $LN5@Grow_to@2
$LN4@Grow_to@2:
  00021	03 c1		 add	 eax, ecx
$LN5@Grow_to@2:

; 1279 : 		if (_Capacity < _Count)

  00023	3b 45 08	 cmp	 eax, DWORD PTR __Count$[ebp]

; 1280 : 			_Capacity = _Count;

  00026	0f 42 45 08	 cmovb	 eax, DWORD PTR __Count$[ebp]

; 1281 : 		return (_Capacity);
; 1282 : 		}

  0002a	5d		 pop	 ebp
  0002b	c2 04 00	 ret	 4
?_Grow_to@?$vector@UtagShopItemExtraInfo@ioShopItemExtraInfoManager@@V?$allocator@UtagShopItemExtraInfo@ioShopItemExtraInfoManager@@@std@@@std@@IBEII@Z ENDP ; std::vector<ioShopItemExtraInfoManager::tagShopItemExtraInfo,std::allocator<ioShopItemExtraInfoManager::tagShopItemExtraInfo> >::_Grow_to
_TEXT	ENDS
PUBLIC	??0?$_Vector_iterator@V?$_Vector_val@UtagShopItemMovieInfo@ioShopItemExtraInfoManager@@V?$allocator@UtagShopItemMovieInfo@ioShopItemExtraInfoManager@@@std@@@std@@@std@@QAE@PAUtagShopItemMovieInfo@ioShopItemExtraInfoManager@@PBU_Container_base0@1@@Z ; std::_Vector_iterator<std::_Vector_val<ioShopItemExtraInfoManager::tagShopItemMovieInfo,std::allocator<ioShopItemExtraInfoManager::tagShopItemMovieInfo> > >::_Vector_iterator<std::_Vector_val<ioShopItemExtraInfoManager::tagShopItemMovieInfo,std::allocator<ioShopItemExtraInfoManager::tagShopItemMovieInfo> > >
; Function compile flags: /Ogsp
;	COMDAT ??0?$_Vector_iterator@V?$_Vector_val@UtagShopItemMovieInfo@ioShopItemExtraInfoManager@@V?$allocator@UtagShopItemMovieInfo@ioShopItemExtraInfoManager@@@std@@@std@@@std@@QAE@PAUtagShopItemMovieInfo@ioShopItemExtraInfoManager@@PBU_Container_base0@1@@Z
_TEXT	SEGMENT
__Parg$ = 8						; size = 4
__Pvector$ = 12						; size = 4
??0?$_Vector_iterator@V?$_Vector_val@UtagShopItemMovieInfo@ioShopItemExtraInfoManager@@V?$allocator@UtagShopItemMovieInfo@ioShopItemExtraInfoManager@@@std@@@std@@@std@@QAE@PAUtagShopItemMovieInfo@ioShopItemExtraInfoManager@@PBU_Container_base0@1@@Z PROC ; std::_Vector_iterator<std::_Vector_val<ioShopItemExtraInfoManager::tagShopItemMovieInfo,std::allocator<ioShopItemExtraInfoManager::tagShopItemMovieInfo> > >::_Vector_iterator<std::_Vector_val<ioShopItemExtraInfoManager::tagShopItemMovieInfo,std::allocator<ioShopItemExtraInfoManager::tagShopItemMovieInfo> > >, COMDAT
; _this$ = ecx

; 304  : 		{	// construct with pointer _Parg

  00000	55		 push	 ebp
  00001	8b ec		 mov	 ebp, esp
  00003	8b c1		 mov	 eax, ecx
  00005	8b 4d 08	 mov	 ecx, DWORD PTR __Parg$[ebp]
  00008	89 08		 mov	 DWORD PTR [eax], ecx

; 305  : 		}

  0000a	5d		 pop	 ebp
  0000b	c2 08 00	 ret	 8
??0?$_Vector_iterator@V?$_Vector_val@UtagShopItemMovieInfo@ioShopItemExtraInfoManager@@V?$allocator@UtagShopItemMovieInfo@ioShopItemExtraInfoManager@@@std@@@std@@@std@@QAE@PAUtagShopItemMovieInfo@ioShopItemExtraInfoManager@@PBU_Container_base0@1@@Z ENDP ; std::_Vector_iterator<std::_Vector_val<ioShopItemExtraInfoManager::tagShopItemMovieInfo,std::allocator<ioShopItemExtraInfoManager::tagShopItemMovieInfo> > >::_Vector_iterator<std::_Vector_val<ioShopItemExtraInfoManager::tagShopItemMovieInfo,std::allocator<ioShopItemExtraInfoManager::tagShopItemMovieInfo> > >
_TEXT	ENDS
PUBLIC	??0?$_Vector_iterator@V?$_Vector_val@UtagShopItemExtraInfo@ioShopItemExtraInfoManager@@V?$allocator@UtagShopItemExtraInfo@ioShopItemExtraInfoManager@@@std@@@std@@@std@@QAE@PAUtagShopItemExtraInfo@ioShopItemExtraInfoManager@@PBU_Container_base0@1@@Z ; std::_Vector_iterator<std::_Vector_val<ioShopItemExtraInfoManager::tagShopItemExtraInfo,std::allocator<ioShopItemExtraInfoManager::tagShopItemExtraInfo> > >::_Vector_iterator<std::_Vector_val<ioShopItemExtraInfoManager::tagShopItemExtraInfo,std::allocator<ioShopItemExtraInfoManager::tagShopItemExtraInfo> > >
; Function compile flags: /Ogsp
;	COMDAT ??0?$_Vector_iterator@V?$_Vector_val@UtagShopItemExtraInfo@ioShopItemExtraInfoManager@@V?$allocator@UtagShopItemExtraInfo@ioShopItemExtraInfoManager@@@std@@@std@@@std@@QAE@PAUtagShopItemExtraInfo@ioShopItemExtraInfoManager@@PBU_Container_base0@1@@Z
_TEXT	SEGMENT
__Parg$ = 8						; size = 4
__Pvector$ = 12						; size = 4
??0?$_Vector_iterator@V?$_Vector_val@UtagShopItemExtraInfo@ioShopItemExtraInfoManager@@V?$allocator@UtagShopItemExtraInfo@ioShopItemExtraInfoManager@@@std@@@std@@@std@@QAE@PAUtagShopItemExtraInfo@ioShopItemExtraInfoManager@@PBU_Container_base0@1@@Z PROC ; std::_Vector_iterator<std::_Vector_val<ioShopItemExtraInfoManager::tagShopItemExtraInfo,std::allocator<ioShopItemExtraInfoManager::tagShopItemExtraInfo> > >::_Vector_iterator<std::_Vector_val<ioShopItemExtraInfoManager::tagShopItemExtraInfo,std::allocator<ioShopItemExtraInfoManager::tagShopItemExtraInfo> > >, COMDAT
; _this$ = ecx

; 304  : 		{	// construct with pointer _Parg

  00000	55		 push	 ebp
  00001	8b ec		 mov	 ebp, esp
  00003	8b c1		 mov	 eax, ecx
  00005	8b 4d 08	 mov	 ecx, DWORD PTR __Parg$[ebp]
  00008	89 08		 mov	 DWORD PTR [eax], ecx

; 305  : 		}

  0000a	5d		 pop	 ebp
  0000b	c2 08 00	 ret	 8
??0?$_Vector_iterator@V?$_Vector_val@UtagShopItemExtraInfo@ioShopItemExtraInfoManager@@V?$allocator@UtagShopItemExtraInfo@ioShopItemExtraInfoManager@@@std@@@std@@@std@@QAE@PAUtagShopItemExtraInfo@ioShopItemExtraInfoManager@@PBU_Container_base0@1@@Z ENDP ; std::_Vector_iterator<std::_Vector_val<ioShopItemExtraInfoManager::tagShopItemExtraInfo,std::allocator<ioShopItemExtraInfoManager::tagShopItemExtraInfo> > >::_Vector_iterator<std::_Vector_val<ioShopItemExtraInfoManager::tagShopItemExtraInfo,std::allocator<ioShopItemExtraInfoManager::tagShopItemExtraInfo> > >
_TEXT	ENDS
PUBLIC	?allocate@?$allocator@UtagShopItemExtraInfo@ioShopItemExtraInfoManager@@@std@@QAEPAUtagShopItemExtraInfo@ioShopItemExtraInfoManager@@I@Z ; std::allocator<ioShopItemExtraInfoManager::tagShopItemExtraInfo>::allocate
; Function compile flags: /Ogsp
; File c:\program files (x86)\microsoft visual studio 10.0\vc\include\xmemory
;	COMDAT ?allocate@?$allocator@UtagShopItemExtraInfo@ioShopItemExtraInfoManager@@@std@@QAEPAUtagShopItemExtraInfo@ioShopItemExtraInfoManager@@I@Z
_TEXT	SEGMENT
__Count$ = 8						; size = 4
?allocate@?$allocator@UtagShopItemExtraInfo@ioShopItemExtraInfoManager@@@std@@QAEPAUtagShopItemExtraInfo@ioShopItemExtraInfoManager@@I@Z PROC ; std::allocator<ioShopItemExtraInfoManager::tagShopItemExtraInfo>::allocate, COMDAT
; _this$ = ecx

; 186  : 		{	// allocate array of _Count elements

  00000	55		 push	 ebp
  00001	8b ec		 mov	 ebp, esp

; 187  : 		return (_Allocate(_Count, (pointer)0));

  00003	6a 00		 push	 0
  00005	ff 75 08	 push	 DWORD PTR __Count$[ebp]
  00008	e8 00 00 00 00	 call	 ??$_Allocate@UtagShopItemExtraInfo@ioShopItemExtraInfoManager@@@std@@YAPAUtagShopItemExtraInfo@ioShopItemExtraInfoManager@@IPAU12@@Z ; std::_Allocate<ioShopItemExtraInfoManager::tagShopItemExtraInfo>
  0000d	59		 pop	 ecx
  0000e	59		 pop	 ecx

; 188  : 		}

  0000f	5d		 pop	 ebp
  00010	c2 04 00	 ret	 4
?allocate@?$allocator@UtagShopItemExtraInfo@ioShopItemExtraInfoManager@@@std@@QAEPAUtagShopItemExtraInfo@ioShopItemExtraInfoManager@@I@Z ENDP ; std::allocator<ioShopItemExtraInfoManager::tagShopItemExtraInfo>::allocate
_TEXT	ENDS
PUBLIC	??8?$_Vector_const_iterator@V?$_Vector_val@UtagShopItemMovieInfo@ioShopItemExtraInfoManager@@V?$allocator@UtagShopItemMovieInfo@ioShopItemExtraInfoManager@@@std@@@std@@@std@@QBE_NABV01@@Z ; std::_Vector_const_iterator<std::_Vector_val<ioShopItemExtraInfoManager::tagShopItemMovieInfo,std::allocator<ioShopItemExtraInfoManager::tagShopItemMovieInfo> > >::operator==
; Function compile flags: /Ogsp
; File c:\program files (x86)\microsoft visual studio 10.0\vc\include\vector
;	COMDAT ??8?$_Vector_const_iterator@V?$_Vector_val@UtagShopItemMovieInfo@ioShopItemExtraInfoManager@@V?$allocator@UtagShopItemMovieInfo@ioShopItemExtraInfoManager@@@std@@@std@@@std@@QBE_NABV01@@Z
_TEXT	SEGMENT
__Right$ = 8						; size = 4
??8?$_Vector_const_iterator@V?$_Vector_val@UtagShopItemMovieInfo@ioShopItemExtraInfoManager@@V?$allocator@UtagShopItemMovieInfo@ioShopItemExtraInfoManager@@@std@@@std@@@std@@QBE_NABV01@@Z PROC ; std::_Vector_const_iterator<std::_Vector_val<ioShopItemExtraInfoManager::tagShopItemMovieInfo,std::allocator<ioShopItemExtraInfoManager::tagShopItemMovieInfo> > >::operator==, COMDAT
; _this$ = ecx

; 201  : 		{	// test for iterator equality

  00000	55		 push	 ebp
  00001	8b ec		 mov	 ebp, esp

; 202  : 		_Compat(_Right);
; 203  : 		return (this->_Ptr == _Right._Ptr);

  00003	8b 01		 mov	 eax, DWORD PTR [ecx]
  00005	8b 4d 08	 mov	 ecx, DWORD PTR __Right$[ebp]
  00008	2b 01		 sub	 eax, DWORD PTR [ecx]
  0000a	f7 d8		 neg	 eax
  0000c	1b c0		 sbb	 eax, eax
  0000e	40		 inc	 eax

; 204  : 		}

  0000f	5d		 pop	 ebp
  00010	c2 04 00	 ret	 4
??8?$_Vector_const_iterator@V?$_Vector_val@UtagShopItemMovieInfo@ioShopItemExtraInfoManager@@V?$allocator@UtagShopItemMovieInfo@ioShopItemExtraInfoManager@@@std@@@std@@@std@@QBE_NABV01@@Z ENDP ; std::_Vector_const_iterator<std::_Vector_val<ioShopItemExtraInfoManager::tagShopItemMovieInfo,std::allocator<ioShopItemExtraInfoManager::tagShopItemMovieInfo> > >::operator==
_TEXT	ENDS
PUBLIC	??8?$_Vector_const_iterator@V?$_Vector_val@UtagShopItemExtraInfo@ioShopItemExtraInfoManager@@V?$allocator@UtagShopItemExtraInfo@ioShopItemExtraInfoManager@@@std@@@std@@@std@@QBE_NABV01@@Z ; std::_Vector_const_iterator<std::_Vector_val<ioShopItemExtraInfoManager::tagShopItemExtraInfo,std::allocator<ioShopItemExtraInfoManager::tagShopItemExtraInfo> > >::operator==
; Function compile flags: /Ogsp
;	COMDAT ??8?$_Vector_const_iterator@V?$_Vector_val@UtagShopItemExtraInfo@ioShopItemExtraInfoManager@@V?$allocator@UtagShopItemExtraInfo@ioShopItemExtraInfoManager@@@std@@@std@@@std@@QBE_NABV01@@Z
_TEXT	SEGMENT
__Right$ = 8						; size = 4
??8?$_Vector_const_iterator@V?$_Vector_val@UtagShopItemExtraInfo@ioShopItemExtraInfoManager@@V?$allocator@UtagShopItemExtraInfo@ioShopItemExtraInfoManager@@@std@@@std@@@std@@QBE_NABV01@@Z PROC ; std::_Vector_const_iterator<std::_Vector_val<ioShopItemExtraInfoManager::tagShopItemExtraInfo,std::allocator<ioShopItemExtraInfoManager::tagShopItemExtraInfo> > >::operator==, COMDAT
; _this$ = ecx

; 201  : 		{	// test for iterator equality

  00000	55		 push	 ebp
  00001	8b ec		 mov	 ebp, esp

; 202  : 		_Compat(_Right);
; 203  : 		return (this->_Ptr == _Right._Ptr);

  00003	8b 01		 mov	 eax, DWORD PTR [ecx]
  00005	8b 4d 08	 mov	 ecx, DWORD PTR __Right$[ebp]
  00008	2b 01		 sub	 eax, DWORD PTR [ecx]
  0000a	f7 d8		 neg	 eax
  0000c	1b c0		 sbb	 eax, eax
  0000e	40		 inc	 eax

; 204  : 		}

  0000f	5d		 pop	 ebp
  00010	c2 04 00	 ret	 4
??8?$_Vector_const_iterator@V?$_Vector_val@UtagShopItemExtraInfo@ioShopItemExtraInfoManager@@V?$allocator@UtagShopItemExtraInfo@ioShopItemExtraInfoManager@@@std@@@std@@@std@@QBE_NABV01@@Z ENDP ; std::_Vector_const_iterator<std::_Vector_val<ioShopItemExtraInfoManager::tagShopItemExtraInfo,std::allocator<ioShopItemExtraInfoManager::tagShopItemExtraInfo> > >::operator==
_TEXT	ENDS
PUBLIC	__$ArrayPad$
PUBLIC	??$SetTitle_e@$06@ioINILoader@@QAEXAAY06$$CBD@Z	; ioINILoader::SetTitle_e<7>
EXTRN	__imp_?SetTitle@ioINILoader@@QAEXPBD@Z:PROC
EXTRN	___security_cookie:DWORD
; Function compile flags: /Ogsp
; File d:\lost saga for developer\youtube\tutorial\source\src\io3dengine\ioiniloader.h
;	COMDAT ??$SetTitle_e@$06@ioINILoader@@QAEXAAY06$$CBD@Z
_TEXT	SEGMENT
__t$ = -16						; size = 7
__$ArrayPad$ = -4					; size = 4
_t$ = 8							; size = 4
??$SetTitle_e@$06@ioINILoader@@QAEXAAY06$$CBD@Z PROC	; ioINILoader::SetTitle_e<7>, COMDAT
; _this$ = ecx

; 188  : 	{

  00000	55		 push	 ebp
  00001	8b ec		 mov	 ebp, esp
  00003	83 ec 10	 sub	 esp, 16			; 00000010H
  00006	a1 00 00 00 00	 mov	 eax, DWORD PTR ___security_cookie
  0000b	33 c5		 xor	 eax, ebp
  0000d	89 45 fc	 mov	 DWORD PTR __$ArrayPad$[ebp], eax
  00010	8b 45 08	 mov	 eax, DWORD PTR _t$[ebp]

; 189  : 		_ENCSTR(t, _t);

  00013	8a 10		 mov	 dl, BYTE PTR [eax]
  00015	56		 push	 esi
  00016	8b f1		 mov	 esi, ecx
  00018	84 d2		 test	 dl, dl
  0001a	0f 84 c0 00 00
	00		 je	 $LN96@SetTitle_e
  00020	80 f2 ed	 xor	 dl, -19			; ffffffedH
  00023	88 55 f0	 mov	 BYTE PTR __t$[ebp], dl
  00026	8a 50 01	 mov	 dl, BYTE PTR [eax+1]
  00029	84 d2		 test	 dl, dl
  0002b	0f 84 a9 00 00
	00		 je	 $LN95@SetTitle_e
  00031	80 f2 ec	 xor	 dl, -20			; ffffffecH
  00034	88 55 f1	 mov	 BYTE PTR __t$[ebp+1], dl
  00037	8a 50 02	 mov	 dl, BYTE PTR [eax+2]
  0003a	84 d2		 test	 dl, dl
  0003c	0f 84 92 00 00
	00		 je	 $LN94@SetTitle_e
  00042	80 f2 eb	 xor	 dl, -21			; ffffffebH
  00045	88 55 f2	 mov	 BYTE PTR __t$[ebp+2], dl
  00048	8a 50 03	 mov	 dl, BYTE PTR [eax+3]
  0004b	84 d2		 test	 dl, dl
  0004d	74 7f		 je	 SHORT $LN93@SetTitle_e
  0004f	80 f2 ea	 xor	 dl, -22			; ffffffeaH
  00052	88 55 f3	 mov	 BYTE PTR __t$[ebp+3], dl
  00055	8a 50 04	 mov	 dl, BYTE PTR [eax+4]
  00058	84 d2		 test	 dl, dl
  0005a	74 6c		 je	 SHORT $LN92@SetTitle_e
  0005c	80 f2 ed	 xor	 dl, -19			; ffffffedH
  0005f	88 55 f4	 mov	 BYTE PTR __t$[ebp+4], dl
  00062	8a 50 05	 mov	 dl, BYTE PTR [eax+5]
  00065	84 d2		 test	 dl, dl
  00067	74 59		 je	 SHORT $LN91@SetTitle_e
  00069	80 f2 ec	 xor	 dl, -20			; ffffffecH
  0006c	80 78 06 00	 cmp	 BYTE PTR [eax+6], 0
  00070	88 55 f5	 mov	 BYTE PTR __t$[ebp+5], dl
  00073	74 6f		 je	 SHORT $LN1@SetTitle_e
  00075	8a 50 07	 mov	 dl, BYTE PTR [eax+7]
  00078	84 d2		 test	 dl, dl
  0007a	74 40		 je	 SHORT $LN89@SetTitle_e
  0007c	80 f2 ea	 xor	 dl, -22			; ffffffeaH
  0007f	88 55 f7	 mov	 BYTE PTR __t$[ebp+7], dl
  00082	8a 50 08	 mov	 dl, BYTE PTR [eax+8]
  00085	84 d2		 test	 dl, dl
  00087	74 2d		 je	 SHORT $LN88@SetTitle_e
  00089	80 f2 ed	 xor	 dl, -19			; ffffffedH
  0008c	88 55 f8	 mov	 BYTE PTR __t$[ebp+8], dl
  0008f	8a 50 09	 mov	 dl, BYTE PTR [eax+9]
  00092	84 d2		 test	 dl, dl
  00094	74 1a		 je	 SHORT $LN87@SetTitle_e
  00096	8a 40 0a	 mov	 al, BYTE PTR [eax+10]
  00099	80 f2 ec	 xor	 dl, -20			; ffffffecH
  0009c	88 55 f9	 mov	 BYTE PTR __t$[ebp+9], dl
  0009f	84 c0		 test	 al, al
  000a1	74 07		 je	 SHORT $LN86@SetTitle_e
  000a3	34 eb		 xor	 al, -21			; ffffffebH
  000a5	88 45 fa	 mov	 BYTE PTR __t$[ebp+10], al
  000a8	eb 3a		 jmp	 SHORT $LN1@SetTitle_e
$LN86@SetTitle_e:
  000aa	c6 45 fa eb	 mov	 BYTE PTR __t$[ebp+10], -21 ; ffffffebH
  000ae	eb 34		 jmp	 SHORT $LN1@SetTitle_e
$LN87@SetTitle_e:
  000b0	c6 45 f9 ec	 mov	 BYTE PTR __t$[ebp+9], -20 ; ffffffecH
  000b4	eb 2e		 jmp	 SHORT $LN1@SetTitle_e
$LN88@SetTitle_e:
  000b6	c6 45 f8 ed	 mov	 BYTE PTR __t$[ebp+8], -19 ; ffffffedH
  000ba	eb 28		 jmp	 SHORT $LN1@SetTitle_e
$LN89@SetTitle_e:
  000bc	c6 45 f7 ea	 mov	 BYTE PTR __t$[ebp+7], -22 ; ffffffeaH
  000c0	eb 22		 jmp	 SHORT $LN1@SetTitle_e
$LN91@SetTitle_e:
  000c2	c6 45 f5 ec	 mov	 BYTE PTR __t$[ebp+5], -20 ; ffffffecH
  000c6	eb 1c		 jmp	 SHORT $LN1@SetTitle_e
$LN92@SetTitle_e:
  000c8	c6 45 f4 ed	 mov	 BYTE PTR __t$[ebp+4], -19 ; ffffffedH
  000cc	eb 16		 jmp	 SHORT $LN1@SetTitle_e
$LN93@SetTitle_e:
  000ce	c6 45 f3 ea	 mov	 BYTE PTR __t$[ebp+3], -22 ; ffffffeaH
  000d2	eb 10		 jmp	 SHORT $LN1@SetTitle_e
$LN94@SetTitle_e:
  000d4	c6 45 f2 eb	 mov	 BYTE PTR __t$[ebp+2], -21 ; ffffffebH
  000d8	eb 0a		 jmp	 SHORT $LN1@SetTitle_e
$LN95@SetTitle_e:
  000da	c6 45 f1 ec	 mov	 BYTE PTR __t$[ebp+1], -20 ; ffffffecH
  000de	eb 04		 jmp	 SHORT $LN1@SetTitle_e
$LN96@SetTitle_e:
  000e0	c6 45 f0 ed	 mov	 BYTE PTR __t$[ebp], -19	; ffffffedH
$LN1@SetTitle_e:
  000e4	81 75 f0 ed ec
	eb ea		 xor	 DWORD PTR __t$[ebp], -353637139 ; eaebecedH
  000eb	6a 04		 push	 4
  000ed	c6 45 f6 00	 mov	 BYTE PTR __t$[ebp+6], 0
  000f1	58		 pop	 eax
$LL101@SetTitle_e:
  000f2	8b c8		 mov	 ecx, eax
  000f4	81 e1 03 00 00
	80		 and	 ecx, -2147483645	; 80000003H
  000fa	79 05		 jns	 SHORT $LN111@SetTitle_e
  000fc	49		 dec	 ecx
  000fd	83 c9 fc	 or	 ecx, -4			; fffffffcH
  00100	41		 inc	 ecx
$LN111@SetTitle_e:
  00101	b2 ed		 mov	 dl, -19			; ffffffedH
  00103	2a d1		 sub	 dl, cl
  00105	30 54 05 f0	 xor	 BYTE PTR __t$[ebp+eax], dl
  00109	40		 inc	 eax
  0010a	83 f8 06	 cmp	 eax, 6
  0010d	7c e3		 jl	 SHORT $LL101@SetTitle_e

; 190  : 		SetTitle(_t);

  0010f	8d 45 f0	 lea	 eax, DWORD PTR __t$[ebp]
  00112	50		 push	 eax
  00113	8b ce		 mov	 ecx, esi
  00115	ff 15 00 00 00
	00		 call	 DWORD PTR __imp_?SetTitle@ioINILoader@@QAEXPBD@Z

; 191  : 	}

  0011b	8b 4d fc	 mov	 ecx, DWORD PTR __$ArrayPad$[ebp]
  0011e	33 cd		 xor	 ecx, ebp
  00120	5e		 pop	 esi
  00121	e8 00 00 00 00	 call	 @__security_check_cookie@4
  00126	c9		 leave
  00127	c2 04 00	 ret	 4
??$SetTitle_e@$06@ioINILoader@@QAEXAAY06$$CBD@Z ENDP	; ioINILoader::SetTitle_e<7>
_TEXT	ENDS
PUBLIC	__$ArrayPad$
PUBLIC	??$LoadInt_e@$09@ioINILoader@@QAEHAAY09$$CBDH@Z	; ioINILoader::LoadInt_e<10>
EXTRN	__imp_?LoadInt@ioINILoader@@QAEHPBDH@Z:PROC
; Function compile flags: /Ogsp
;	COMDAT ??$LoadInt_e@$09@ioINILoader@@QAEHAAY09$$CBDH@Z
_TEXT	SEGMENT
__k$ = -20						; size = 10
__$ArrayPad$ = -4					; size = 4
_k$ = 8							; size = 4
_i$ = 12						; size = 4
??$LoadInt_e@$09@ioINILoader@@QAEHAAY09$$CBDH@Z PROC	; ioINILoader::LoadInt_e<10>, COMDAT
; _this$ = ecx

; 118  : 	{

  00000	55		 push	 ebp
  00001	8b ec		 mov	 ebp, esp
  00003	83 ec 14	 sub	 esp, 20			; 00000014H
  00006	a1 00 00 00 00	 mov	 eax, DWORD PTR ___security_cookie
  0000b	33 c5		 xor	 eax, ebp
  0000d	89 45 fc	 mov	 DWORD PTR __$ArrayPad$[ebp], eax
  00010	8b 45 08	 mov	 eax, DWORD PTR _k$[ebp]

; 119  : 		_ENCSTR(k, _k);

  00013	8a 10		 mov	 dl, BYTE PTR [eax]
  00015	84 d2		 test	 dl, dl
  00017	0f 84 0d 01 00
	00		 je	 $LN96@LoadInt_e
  0001d	80 f2 ed	 xor	 dl, -19			; ffffffedH
  00020	88 55 ec	 mov	 BYTE PTR __k$[ebp], dl
  00023	8a 50 01	 mov	 dl, BYTE PTR [eax+1]
  00026	84 d2		 test	 dl, dl
  00028	0f 84 f6 00 00
	00		 je	 $LN95@LoadInt_e
  0002e	80 f2 ec	 xor	 dl, -20			; ffffffecH
  00031	88 55 ed	 mov	 BYTE PTR __k$[ebp+1], dl
  00034	8a 50 02	 mov	 dl, BYTE PTR [eax+2]
  00037	84 d2		 test	 dl, dl
  00039	0f 84 df 00 00
	00		 je	 $LN94@LoadInt_e
  0003f	80 f2 eb	 xor	 dl, -21			; ffffffebH
  00042	88 55 ee	 mov	 BYTE PTR __k$[ebp+2], dl
  00045	8a 50 03	 mov	 dl, BYTE PTR [eax+3]
  00048	84 d2		 test	 dl, dl
  0004a	0f 84 c8 00 00
	00		 je	 $LN93@LoadInt_e
  00050	80 f2 ea	 xor	 dl, -22			; ffffffeaH
  00053	88 55 ef	 mov	 BYTE PTR __k$[ebp+3], dl
  00056	8a 50 04	 mov	 dl, BYTE PTR [eax+4]
  00059	84 d2		 test	 dl, dl
  0005b	0f 84 b1 00 00
	00		 je	 $LN92@LoadInt_e
  00061	80 f2 ed	 xor	 dl, -19			; ffffffedH
  00064	88 55 f0	 mov	 BYTE PTR __k$[ebp+4], dl
  00067	8a 50 05	 mov	 dl, BYTE PTR [eax+5]
  0006a	84 d2		 test	 dl, dl
  0006c	0f 84 9a 00 00
	00		 je	 $LN91@LoadInt_e
  00072	80 f2 ec	 xor	 dl, -20			; ffffffecH
  00075	88 55 f1	 mov	 BYTE PTR __k$[ebp+5], dl
  00078	8a 50 06	 mov	 dl, BYTE PTR [eax+6]
  0007b	84 d2		 test	 dl, dl
  0007d	0f 84 83 00 00
	00		 je	 $LN90@LoadInt_e
  00083	80 f2 eb	 xor	 dl, -21			; ffffffebH
  00086	88 55 f2	 mov	 BYTE PTR __k$[ebp+6], dl
  00089	8a 50 07	 mov	 dl, BYTE PTR [eax+7]
  0008c	84 d2		 test	 dl, dl
  0008e	74 70		 je	 SHORT $LN89@LoadInt_e
  00090	80 f2 ea	 xor	 dl, -22			; ffffffeaH
  00093	88 55 f3	 mov	 BYTE PTR __k$[ebp+7], dl
  00096	8a 50 08	 mov	 dl, BYTE PTR [eax+8]
  00099	84 d2		 test	 dl, dl
  0009b	74 5d		 je	 SHORT $LN88@LoadInt_e
  0009d	80 f2 ed	 xor	 dl, -19			; ffffffedH
  000a0	80 78 09 00	 cmp	 BYTE PTR [eax+9], 0
  000a4	88 55 f4	 mov	 BYTE PTR __k$[ebp+8], dl
  000a7	0f 84 81 00 00
	00		 je	 $LN1@LoadInt_e
  000ad	8a 50 0a	 mov	 dl, BYTE PTR [eax+10]
  000b0	84 d2		 test	 dl, dl
  000b2	74 40		 je	 SHORT $LN86@LoadInt_e
  000b4	80 f2 eb	 xor	 dl, -21			; ffffffebH
  000b7	88 55 f6	 mov	 BYTE PTR __k$[ebp+10], dl
  000ba	8a 50 0b	 mov	 dl, BYTE PTR [eax+11]
  000bd	84 d2		 test	 dl, dl
  000bf	74 2d		 je	 SHORT $LN85@LoadInt_e
  000c1	80 f2 ea	 xor	 dl, -22			; ffffffeaH
  000c4	88 55 f7	 mov	 BYTE PTR __k$[ebp+11], dl
  000c7	8a 50 0c	 mov	 dl, BYTE PTR [eax+12]
  000ca	84 d2		 test	 dl, dl
  000cc	74 1a		 je	 SHORT $LN84@LoadInt_e
  000ce	8a 40 0d	 mov	 al, BYTE PTR [eax+13]
  000d1	80 f2 ed	 xor	 dl, -19			; ffffffedH
  000d4	88 55 f8	 mov	 BYTE PTR __k$[ebp+12], dl
  000d7	84 c0		 test	 al, al
  000d9	74 07		 je	 SHORT $LN83@LoadInt_e
  000db	34 ec		 xor	 al, -20			; ffffffecH
  000dd	88 45 f9	 mov	 BYTE PTR __k$[ebp+13], al
  000e0	eb 4c		 jmp	 SHORT $LN1@LoadInt_e
$LN83@LoadInt_e:
  000e2	c6 45 f9 ec	 mov	 BYTE PTR __k$[ebp+13], -20 ; ffffffecH
  000e6	eb 46		 jmp	 SHORT $LN1@LoadInt_e
$LN84@LoadInt_e:
  000e8	c6 45 f8 ed	 mov	 BYTE PTR __k$[ebp+12], -19 ; ffffffedH
  000ec	eb 40		 jmp	 SHORT $LN1@LoadInt_e
$LN85@LoadInt_e:
  000ee	c6 45 f7 ea	 mov	 BYTE PTR __k$[ebp+11], -22 ; ffffffeaH
  000f2	eb 3a		 jmp	 SHORT $LN1@LoadInt_e
$LN86@LoadInt_e:
  000f4	c6 45 f6 eb	 mov	 BYTE PTR __k$[ebp+10], -21 ; ffffffebH
  000f8	eb 34		 jmp	 SHORT $LN1@LoadInt_e
$LN88@LoadInt_e:
  000fa	c6 45 f4 ed	 mov	 BYTE PTR __k$[ebp+8], -19 ; ffffffedH
  000fe	eb 2e		 jmp	 SHORT $LN1@LoadInt_e
$LN89@LoadInt_e:
  00100	c6 45 f3 ea	 mov	 BYTE PTR __k$[ebp+7], -22 ; ffffffeaH
  00104	eb 28		 jmp	 SHORT $LN1@LoadInt_e
$LN90@LoadInt_e:
  00106	c6 45 f2 eb	 mov	 BYTE PTR __k$[ebp+6], -21 ; ffffffebH
  0010a	eb 22		 jmp	 SHORT $LN1@LoadInt_e
$LN91@LoadInt_e:
  0010c	c6 45 f1 ec	 mov	 BYTE PTR __k$[ebp+5], -20 ; ffffffecH
  00110	eb 1c		 jmp	 SHORT $LN1@LoadInt_e
$LN92@LoadInt_e:
  00112	c6 45 f0 ed	 mov	 BYTE PTR __k$[ebp+4], -19 ; ffffffedH
  00116	eb 16		 jmp	 SHORT $LN1@LoadInt_e
$LN93@LoadInt_e:
  00118	c6 45 ef ea	 mov	 BYTE PTR __k$[ebp+3], -22 ; ffffffeaH
  0011c	eb 10		 jmp	 SHORT $LN1@LoadInt_e
$LN94@LoadInt_e:
  0011e	c6 45 ee eb	 mov	 BYTE PTR __k$[ebp+2], -21 ; ffffffebH
  00122	eb 0a		 jmp	 SHORT $LN1@LoadInt_e
$LN95@LoadInt_e:
  00124	c6 45 ed ec	 mov	 BYTE PTR __k$[ebp+1], -20 ; ffffffecH
  00128	eb 04		 jmp	 SHORT $LN1@LoadInt_e
$LN96@LoadInt_e:
  0012a	c6 45 ec ed	 mov	 BYTE PTR __k$[ebp], -19	; ffffffedH
$LN1@LoadInt_e:
  0012e	6a 02		 push	 2
  00130	8d 45 ec	 lea	 eax, DWORD PTR __k$[ebp]
  00133	c6 45 f5 00	 mov	 BYTE PTR __k$[ebp+9], 0
  00137	5a		 pop	 edx
$LL104@LoadInt_e:
  00138	81 30 ed ec eb
	ea		 xor	 DWORD PTR [eax], -353637139 ; eaebecedH
  0013e	83 c0 04	 add	 eax, 4
  00141	4a		 dec	 edx
  00142	75 f4		 jne	 SHORT $LL104@LoadInt_e

; 120  : 		return LoadInt(_k, i);

  00144	ff 75 0c	 push	 DWORD PTR _i$[ebp]
  00147	80 75 f4 ed	 xor	 BYTE PTR __k$[ebp+8], -19 ; ffffffedH
  0014b	8d 45 ec	 lea	 eax, DWORD PTR __k$[ebp]
  0014e	50		 push	 eax
  0014f	ff 15 00 00 00
	00		 call	 DWORD PTR __imp_?LoadInt@ioINILoader@@QAEHPBDH@Z

; 121  : 	}

  00155	8b 4d fc	 mov	 ecx, DWORD PTR __$ArrayPad$[ebp]
  00158	33 cd		 xor	 ecx, ebp
  0015a	e8 00 00 00 00	 call	 @__security_check_cookie@4
  0015f	c9		 leave
  00160	c2 08 00	 ret	 8
??$LoadInt_e@$09@ioINILoader@@QAEHAAY09$$CBDH@Z ENDP	; ioINILoader::LoadInt_e<10>
_TEXT	ENDS
PUBLIC	__$ArrayPad$
PUBLIC	??$LoadInt_e@$0BE@@ioINILoader@@QAEHAAY0BE@$$CBDH@Z ; ioINILoader::LoadInt_e<20>
; Function compile flags: /Ogsp
;	COMDAT ??$LoadInt_e@$0BE@@ioINILoader@@QAEHAAY0BE@$$CBDH@Z
_TEXT	SEGMENT
__k$ = -28						; size = 20
__$ArrayPad$ = -4					; size = 4
_k$ = 8							; size = 4
_i$ = 12						; size = 4
??$LoadInt_e@$0BE@@ioINILoader@@QAEHAAY0BE@$$CBDH@Z PROC ; ioINILoader::LoadInt_e<20>, COMDAT
; _this$ = ecx

; 118  : 	{

  00000	55		 push	 ebp
  00001	8b ec		 mov	 ebp, esp
  00003	83 ec 1c	 sub	 esp, 28			; 0000001cH
  00006	a1 00 00 00 00	 mov	 eax, DWORD PTR ___security_cookie
  0000b	33 c5		 xor	 eax, ebp
  0000d	89 45 fc	 mov	 DWORD PTR __$ArrayPad$[ebp], eax
  00010	8b 45 08	 mov	 eax, DWORD PTR _k$[ebp]

; 119  : 		_ENCSTR(k, _k);

  00013	8a 10		 mov	 dl, BYTE PTR [eax]
  00015	53		 push	 ebx
  00016	56		 push	 esi
  00017	8b f1		 mov	 esi, ecx
  00019	84 d2		 test	 dl, dl
  0001b	0f 84 dd 01 00
	00		 je	 $LN96@LoadInt_e@2
  00021	80 f2 ed	 xor	 dl, -19			; ffffffedH
  00024	88 55 e4	 mov	 BYTE PTR __k$[ebp], dl
  00027	8a 50 01	 mov	 dl, BYTE PTR [eax+1]
  0002a	84 d2		 test	 dl, dl
  0002c	0f 84 c6 01 00
	00		 je	 $LN95@LoadInt_e@2
  00032	b3 ec		 mov	 bl, -20			; ffffffecH
  00034	32 d3		 xor	 dl, bl
  00036	88 55 e5	 mov	 BYTE PTR __k$[ebp+1], dl
  00039	8a 50 02	 mov	 dl, BYTE PTR [eax+2]
  0003c	84 d2		 test	 dl, dl
  0003e	0f 84 ae 01 00
	00		 je	 $LN94@LoadInt_e@2
  00044	b1 eb		 mov	 cl, -21			; ffffffebH
  00046	32 d1		 xor	 dl, cl
  00048	88 55 e6	 mov	 BYTE PTR __k$[ebp+2], dl
  0004b	8a 50 03	 mov	 dl, BYTE PTR [eax+3]
  0004e	84 d2		 test	 dl, dl
  00050	0f 84 96 01 00
	00		 je	 $LN93@LoadInt_e@2
  00056	80 f2 ea	 xor	 dl, -22			; ffffffeaH
  00059	88 55 e7	 mov	 BYTE PTR __k$[ebp+3], dl
  0005c	8a 50 04	 mov	 dl, BYTE PTR [eax+4]
  0005f	84 d2		 test	 dl, dl
  00061	0f 84 7f 01 00
	00		 je	 $LN92@LoadInt_e@2
  00067	80 f2 ed	 xor	 dl, -19			; ffffffedH
  0006a	88 55 e8	 mov	 BYTE PTR __k$[ebp+4], dl
  0006d	8a 50 05	 mov	 dl, BYTE PTR [eax+5]
  00070	84 d2		 test	 dl, dl
  00072	0f 84 69 01 00
	00		 je	 $LN91@LoadInt_e@2
  00078	32 d3		 xor	 dl, bl
  0007a	88 55 e9	 mov	 BYTE PTR __k$[ebp+5], dl
  0007d	8a 50 06	 mov	 dl, BYTE PTR [eax+6]
  00080	84 d2		 test	 dl, dl
  00082	0f 84 54 01 00
	00		 je	 $LN90@LoadInt_e@2
  00088	32 d1		 xor	 dl, cl
  0008a	88 55 ea	 mov	 BYTE PTR __k$[ebp+6], dl
  0008d	8a 50 07	 mov	 dl, BYTE PTR [eax+7]
  00090	84 d2		 test	 dl, dl
  00092	0f 84 3e 01 00
	00		 je	 $LN89@LoadInt_e@2
  00098	80 f2 ea	 xor	 dl, -22			; ffffffeaH
  0009b	88 55 eb	 mov	 BYTE PTR __k$[ebp+7], dl
  0009e	8a 50 08	 mov	 dl, BYTE PTR [eax+8]
  000a1	84 d2		 test	 dl, dl
  000a3	0f 84 27 01 00
	00		 je	 $LN88@LoadInt_e@2
  000a9	80 f2 ed	 xor	 dl, -19			; ffffffedH
  000ac	88 55 ec	 mov	 BYTE PTR __k$[ebp+8], dl
  000af	8a 50 09	 mov	 dl, BYTE PTR [eax+9]
  000b2	84 d2		 test	 dl, dl
  000b4	0f 84 11 01 00
	00		 je	 $LN87@LoadInt_e@2
  000ba	32 d3		 xor	 dl, bl
  000bc	88 55 ed	 mov	 BYTE PTR __k$[ebp+9], dl
  000bf	8a 50 0a	 mov	 dl, BYTE PTR [eax+10]
  000c2	84 d2		 test	 dl, dl
  000c4	0f 84 fc 00 00
	00		 je	 $LN86@LoadInt_e@2
  000ca	32 d1		 xor	 dl, cl
  000cc	88 55 ee	 mov	 BYTE PTR __k$[ebp+10], dl
  000cf	8a 50 0b	 mov	 dl, BYTE PTR [eax+11]
  000d2	84 d2		 test	 dl, dl
  000d4	0f 84 e6 00 00
	00		 je	 $LN85@LoadInt_e@2
  000da	80 f2 ea	 xor	 dl, -22			; ffffffeaH
  000dd	88 55 ef	 mov	 BYTE PTR __k$[ebp+11], dl
  000e0	8a 50 0c	 mov	 dl, BYTE PTR [eax+12]
  000e3	84 d2		 test	 dl, dl
  000e5	0f 84 cf 00 00
	00		 je	 $LN84@LoadInt_e@2
  000eb	80 f2 ed	 xor	 dl, -19			; ffffffedH
  000ee	88 55 f0	 mov	 BYTE PTR __k$[ebp+12], dl
  000f1	8a 50 0d	 mov	 dl, BYTE PTR [eax+13]
  000f4	84 d2		 test	 dl, dl
  000f6	0f 84 b9 00 00
	00		 je	 $LN83@LoadInt_e@2
  000fc	32 d3		 xor	 dl, bl
  000fe	88 55 f1	 mov	 BYTE PTR __k$[ebp+13], dl
  00101	8a 50 0e	 mov	 dl, BYTE PTR [eax+14]
  00104	84 d2		 test	 dl, dl
  00106	0f 84 a4 00 00
	00		 je	 $LN82@LoadInt_e@2
  0010c	32 d1		 xor	 dl, cl
  0010e	88 55 f2	 mov	 BYTE PTR __k$[ebp+14], dl
  00111	8a 50 0f	 mov	 dl, BYTE PTR [eax+15]
  00114	84 d2		 test	 dl, dl
  00116	0f 84 8e 00 00
	00		 je	 $LN81@LoadInt_e@2
  0011c	80 f2 ea	 xor	 dl, -22			; ffffffeaH
  0011f	88 55 f3	 mov	 BYTE PTR __k$[ebp+15], dl
  00122	8a 50 10	 mov	 dl, BYTE PTR [eax+16]
  00125	84 d2		 test	 dl, dl
  00127	74 7b		 je	 SHORT $LN80@LoadInt_e@2
  00129	80 f2 ed	 xor	 dl, -19			; ffffffedH
  0012c	88 55 f4	 mov	 BYTE PTR __k$[ebp+16], dl
  0012f	8a 50 11	 mov	 dl, BYTE PTR [eax+17]
  00132	84 d2		 test	 dl, dl
  00134	74 69		 je	 SHORT $LN79@LoadInt_e@2
  00136	32 d3		 xor	 dl, bl
  00138	88 55 f5	 mov	 BYTE PTR __k$[ebp+17], dl
  0013b	8a 50 12	 mov	 dl, BYTE PTR [eax+18]
  0013e	84 d2		 test	 dl, dl
  00140	74 58		 je	 SHORT $LN78@LoadInt_e@2
  00142	32 d1		 xor	 dl, cl
  00144	80 78 13 00	 cmp	 BYTE PTR [eax+19], 0
  00148	88 55 f6	 mov	 BYTE PTR __k$[ebp+18], dl
  0014b	0f 84 b1 00 00
	00		 je	 $LN1@LoadInt_e@2
  00151	8a 50 14	 mov	 dl, BYTE PTR [eax+20]
  00154	84 d2		 test	 dl, dl
  00156	74 3c		 je	 SHORT $LN76@LoadInt_e@2
  00158	80 f2 ed	 xor	 dl, -19			; ffffffedH
  0015b	88 55 f8	 mov	 BYTE PTR __k$[ebp+20], dl
  0015e	8a 50 15	 mov	 dl, BYTE PTR [eax+21]
  00161	84 d2		 test	 dl, dl
  00163	74 2a		 je	 SHORT $LN75@LoadInt_e@2
  00165	32 d3		 xor	 dl, bl
  00167	88 55 f9	 mov	 BYTE PTR __k$[ebp+21], dl
  0016a	8a 50 16	 mov	 dl, BYTE PTR [eax+22]
  0016d	84 d2		 test	 dl, dl
  0016f	74 19		 je	 SHORT $LN74@LoadInt_e@2
  00171	8a 40 17	 mov	 al, BYTE PTR [eax+23]
  00174	32 d1		 xor	 dl, cl
  00176	88 55 fa	 mov	 BYTE PTR __k$[ebp+22], dl
  00179	84 c0		 test	 al, al
  0017b	74 07		 je	 SHORT $LN73@LoadInt_e@2
  0017d	34 ea		 xor	 al, -22			; ffffffeaH
  0017f	88 45 fb	 mov	 BYTE PTR __k$[ebp+23], al
  00182	eb 7e		 jmp	 SHORT $LN1@LoadInt_e@2
$LN73@LoadInt_e@2:
  00184	c6 45 fb ea	 mov	 BYTE PTR __k$[ebp+23], -22 ; ffffffeaH
  00188	eb 78		 jmp	 SHORT $LN1@LoadInt_e@2
$LN74@LoadInt_e@2:
  0018a	88 4d fa	 mov	 BYTE PTR __k$[ebp+22], cl
  0018d	eb 73		 jmp	 SHORT $LN1@LoadInt_e@2
$LN75@LoadInt_e@2:
  0018f	88 5d f9	 mov	 BYTE PTR __k$[ebp+21], bl
  00192	eb 6e		 jmp	 SHORT $LN1@LoadInt_e@2
$LN76@LoadInt_e@2:
  00194	c6 45 f8 ed	 mov	 BYTE PTR __k$[ebp+20], -19 ; ffffffedH
  00198	eb 68		 jmp	 SHORT $LN1@LoadInt_e@2
$LN78@LoadInt_e@2:
  0019a	88 4d f6	 mov	 BYTE PTR __k$[ebp+18], cl
  0019d	eb 63		 jmp	 SHORT $LN1@LoadInt_e@2
$LN79@LoadInt_e@2:
  0019f	88 5d f5	 mov	 BYTE PTR __k$[ebp+17], bl
  001a2	eb 5e		 jmp	 SHORT $LN1@LoadInt_e@2
$LN80@LoadInt_e@2:
  001a4	c6 45 f4 ed	 mov	 BYTE PTR __k$[ebp+16], -19 ; ffffffedH
  001a8	eb 58		 jmp	 SHORT $LN1@LoadInt_e@2
$LN81@LoadInt_e@2:
  001aa	c6 45 f3 ea	 mov	 BYTE PTR __k$[ebp+15], -22 ; ffffffeaH
  001ae	eb 52		 jmp	 SHORT $LN1@LoadInt_e@2
$LN82@LoadInt_e@2:
  001b0	88 4d f2	 mov	 BYTE PTR __k$[ebp+14], cl
  001b3	eb 4d		 jmp	 SHORT $LN1@LoadInt_e@2
$LN83@LoadInt_e@2:
  001b5	88 5d f1	 mov	 BYTE PTR __k$[ebp+13], bl
  001b8	eb 48		 jmp	 SHORT $LN1@LoadInt_e@2
$LN84@LoadInt_e@2:
  001ba	c6 45 f0 ed	 mov	 BYTE PTR __k$[ebp+12], -19 ; ffffffedH
  001be	eb 42		 jmp	 SHORT $LN1@LoadInt_e@2
$LN85@LoadInt_e@2:
  001c0	c6 45 ef ea	 mov	 BYTE PTR __k$[ebp+11], -22 ; ffffffeaH
  001c4	eb 3c		 jmp	 SHORT $LN1@LoadInt_e@2
$LN86@LoadInt_e@2:
  001c6	88 4d ee	 mov	 BYTE PTR __k$[ebp+10], cl
  001c9	eb 37		 jmp	 SHORT $LN1@LoadInt_e@2
$LN87@LoadInt_e@2:
  001cb	88 5d ed	 mov	 BYTE PTR __k$[ebp+9], bl
  001ce	eb 32		 jmp	 SHORT $LN1@LoadInt_e@2
$LN88@LoadInt_e@2:
  001d0	c6 45 ec ed	 mov	 BYTE PTR __k$[ebp+8], -19 ; ffffffedH
  001d4	eb 2c		 jmp	 SHORT $LN1@LoadInt_e@2
$LN89@LoadInt_e@2:
  001d6	c6 45 eb ea	 mov	 BYTE PTR __k$[ebp+7], -22 ; ffffffeaH
  001da	eb 26		 jmp	 SHORT $LN1@LoadInt_e@2
$LN90@LoadInt_e@2:
  001dc	88 4d ea	 mov	 BYTE PTR __k$[ebp+6], cl
  001df	eb 21		 jmp	 SHORT $LN1@LoadInt_e@2
$LN91@LoadInt_e@2:
  001e1	88 5d e9	 mov	 BYTE PTR __k$[ebp+5], bl
  001e4	eb 1c		 jmp	 SHORT $LN1@LoadInt_e@2
$LN92@LoadInt_e@2:
  001e6	c6 45 e8 ed	 mov	 BYTE PTR __k$[ebp+4], -19 ; ffffffedH
  001ea	eb 16		 jmp	 SHORT $LN1@LoadInt_e@2
$LN93@LoadInt_e@2:
  001ec	c6 45 e7 ea	 mov	 BYTE PTR __k$[ebp+3], -22 ; ffffffeaH
  001f0	eb 10		 jmp	 SHORT $LN1@LoadInt_e@2
$LN94@LoadInt_e@2:
  001f2	c6 45 e6 eb	 mov	 BYTE PTR __k$[ebp+2], -21 ; ffffffebH
  001f6	eb 0a		 jmp	 SHORT $LN1@LoadInt_e@2
$LN95@LoadInt_e@2:
  001f8	c6 45 e5 ec	 mov	 BYTE PTR __k$[ebp+1], -20 ; ffffffecH
  001fc	eb 04		 jmp	 SHORT $LN1@LoadInt_e@2
$LN96@LoadInt_e@2:
  001fe	c6 45 e4 ed	 mov	 BYTE PTR __k$[ebp], -19	; ffffffedH
$LN1@LoadInt_e@2:
  00202	6a 04		 push	 4
  00204	8d 45 e4	 lea	 eax, DWORD PTR __k$[ebp]
  00207	c6 45 f7 00	 mov	 BYTE PTR __k$[ebp+19], 0
  0020b	5a		 pop	 edx
$LL104@LoadInt_e@2:
  0020c	81 30 ed ec eb
	ea		 xor	 DWORD PTR [eax], -353637139 ; eaebecedH
  00212	83 c0 04	 add	 eax, 4
  00215	4a		 dec	 edx
  00216	75 f4		 jne	 SHORT $LL104@LoadInt_e@2
  00218	6a 10		 push	 16			; 00000010H
  0021a	58		 pop	 eax
$LL101@LoadInt_e@2:
  0021b	8b c8		 mov	 ecx, eax
  0021d	81 e1 03 00 00
	80		 and	 ecx, -2147483645	; 80000003H
  00223	79 05		 jns	 SHORT $LN111@LoadInt_e@2
  00225	49		 dec	 ecx
  00226	83 c9 fc	 or	 ecx, -4			; fffffffcH
  00229	41		 inc	 ecx
$LN111@LoadInt_e@2:
  0022a	b2 ed		 mov	 dl, -19			; ffffffedH
  0022c	2a d1		 sub	 dl, cl
  0022e	30 54 05 e4	 xor	 BYTE PTR __k$[ebp+eax], dl
  00232	40		 inc	 eax
  00233	83 f8 13	 cmp	 eax, 19			; 00000013H
  00236	7c e3		 jl	 SHORT $LL101@LoadInt_e@2

; 120  : 		return LoadInt(_k, i);

  00238	ff 75 0c	 push	 DWORD PTR _i$[ebp]
  0023b	8d 45 e4	 lea	 eax, DWORD PTR __k$[ebp]
  0023e	50		 push	 eax
  0023f	8b ce		 mov	 ecx, esi
  00241	ff 15 00 00 00
	00		 call	 DWORD PTR __imp_?LoadInt@ioINILoader@@QAEHPBDH@Z

; 121  : 	}

  00247	8b 4d fc	 mov	 ecx, DWORD PTR __$ArrayPad$[ebp]
  0024a	5e		 pop	 esi
  0024b	33 cd		 xor	 ecx, ebp
  0024d	5b		 pop	 ebx
  0024e	e8 00 00 00 00	 call	 @__security_check_cookie@4
  00253	c9		 leave
  00254	c2 08 00	 ret	 8
??$LoadInt_e@$0BE@@ioINILoader@@QAEHAAY0BE@$$CBDH@Z ENDP ; ioINILoader::LoadInt_e<20>
_TEXT	ENDS
PUBLIC	__$ArrayPad$
PUBLIC	??$LoadBool_e@$0M@@ioINILoader@@QAE_NAAY0M@$$CBD_N@Z ; ioINILoader::LoadBool_e<12>
EXTRN	__imp_?LoadBool@ioINILoader@@QAE_NPBD_N@Z:PROC
; Function compile flags: /Ogsp
;	COMDAT ??$LoadBool_e@$0M@@ioINILoader@@QAE_NAAY0M@$$CBD_N@Z
_TEXT	SEGMENT
__k$ = -20						; size = 12
__$ArrayPad$ = -4					; size = 4
_k$ = 8							; size = 4
_b$ = 12						; size = 1
??$LoadBool_e@$0M@@ioINILoader@@QAE_NAAY0M@$$CBD_N@Z PROC ; ioINILoader::LoadBool_e<12>, COMDAT
; _this$ = ecx

; 101  : 	{

  00000	55		 push	 ebp
  00001	8b ec		 mov	 ebp, esp
  00003	83 ec 14	 sub	 esp, 20			; 00000014H
  00006	a1 00 00 00 00	 mov	 eax, DWORD PTR ___security_cookie
  0000b	33 c5		 xor	 eax, ebp
  0000d	89 45 fc	 mov	 DWORD PTR __$ArrayPad$[ebp], eax
  00010	8b 45 08	 mov	 eax, DWORD PTR _k$[ebp]

; 102  : 		_ENCSTR(k, _k);

  00013	8a 10		 mov	 dl, BYTE PTR [eax]
  00015	56		 push	 esi
  00016	8b f1		 mov	 esi, ecx
  00018	84 d2		 test	 dl, dl
  0001a	0f 84 32 01 00
	00		 je	 $LN96@LoadBool_e
  00020	80 f2 ed	 xor	 dl, -19			; ffffffedH
  00023	88 55 ec	 mov	 BYTE PTR __k$[ebp], dl
  00026	8a 50 01	 mov	 dl, BYTE PTR [eax+1]
  00029	84 d2		 test	 dl, dl
  0002b	0f 84 1b 01 00
	00		 je	 $LN95@LoadBool_e
  00031	80 f2 ec	 xor	 dl, -20			; ffffffecH
  00034	88 55 ed	 mov	 BYTE PTR __k$[ebp+1], dl
  00037	8a 50 02	 mov	 dl, BYTE PTR [eax+2]
  0003a	84 d2		 test	 dl, dl
  0003c	0f 84 04 01 00
	00		 je	 $LN94@LoadBool_e
  00042	b1 eb		 mov	 cl, -21			; ffffffebH
  00044	32 d1		 xor	 dl, cl
  00046	88 55 ee	 mov	 BYTE PTR __k$[ebp+2], dl
  00049	8a 50 03	 mov	 dl, BYTE PTR [eax+3]
  0004c	84 d2		 test	 dl, dl
  0004e	0f 84 ec 00 00
	00		 je	 $LN93@LoadBool_e
  00054	80 f2 ea	 xor	 dl, -22			; ffffffeaH
  00057	88 55 ef	 mov	 BYTE PTR __k$[ebp+3], dl
  0005a	8a 50 04	 mov	 dl, BYTE PTR [eax+4]
  0005d	84 d2		 test	 dl, dl
  0005f	0f 84 d5 00 00
	00		 je	 $LN92@LoadBool_e
  00065	80 f2 ed	 xor	 dl, -19			; ffffffedH
  00068	88 55 f0	 mov	 BYTE PTR __k$[ebp+4], dl
  0006b	8a 50 05	 mov	 dl, BYTE PTR [eax+5]
  0006e	84 d2		 test	 dl, dl
  00070	0f 84 be 00 00
	00		 je	 $LN91@LoadBool_e
  00076	80 f2 ec	 xor	 dl, -20			; ffffffecH
  00079	88 55 f1	 mov	 BYTE PTR __k$[ebp+5], dl
  0007c	8a 50 06	 mov	 dl, BYTE PTR [eax+6]
  0007f	84 d2		 test	 dl, dl
  00081	0f 84 a8 00 00
	00		 je	 $LN90@LoadBool_e
  00087	32 d1		 xor	 dl, cl
  00089	88 55 f2	 mov	 BYTE PTR __k$[ebp+6], dl
  0008c	8a 50 07	 mov	 dl, BYTE PTR [eax+7]
  0008f	84 d2		 test	 dl, dl
  00091	0f 84 92 00 00
	00		 je	 $LN89@LoadBool_e
  00097	80 f2 ea	 xor	 dl, -22			; ffffffeaH
  0009a	88 55 f3	 mov	 BYTE PTR __k$[ebp+7], dl
  0009d	8a 50 08	 mov	 dl, BYTE PTR [eax+8]
  000a0	84 d2		 test	 dl, dl
  000a2	74 7f		 je	 SHORT $LN88@LoadBool_e
  000a4	80 f2 ed	 xor	 dl, -19			; ffffffedH
  000a7	88 55 f4	 mov	 BYTE PTR __k$[ebp+8], dl
  000aa	8a 50 09	 mov	 dl, BYTE PTR [eax+9]
  000ad	84 d2		 test	 dl, dl
  000af	74 6c		 je	 SHORT $LN87@LoadBool_e
  000b1	80 f2 ec	 xor	 dl, -20			; ffffffecH
  000b4	88 55 f5	 mov	 BYTE PTR __k$[ebp+9], dl
  000b7	8a 50 0a	 mov	 dl, BYTE PTR [eax+10]
  000ba	84 d2		 test	 dl, dl
  000bc	74 5a		 je	 SHORT $LN86@LoadBool_e
  000be	32 d1		 xor	 dl, cl
  000c0	80 78 0b 00	 cmp	 BYTE PTR [eax+11], 0
  000c4	88 55 f6	 mov	 BYTE PTR __k$[ebp+10], dl
  000c7	0f 84 89 00 00
	00		 je	 $LN1@LoadBool_e
  000cd	8a 50 0c	 mov	 dl, BYTE PTR [eax+12]
  000d0	84 d2		 test	 dl, dl
  000d2	74 3e		 je	 SHORT $LN84@LoadBool_e
  000d4	80 f2 ed	 xor	 dl, -19			; ffffffedH
  000d7	88 55 f8	 mov	 BYTE PTR __k$[ebp+12], dl
  000da	8a 50 0d	 mov	 dl, BYTE PTR [eax+13]
  000dd	84 d2		 test	 dl, dl
  000df	74 2b		 je	 SHORT $LN83@LoadBool_e
  000e1	80 f2 ec	 xor	 dl, -20			; ffffffecH
  000e4	88 55 f9	 mov	 BYTE PTR __k$[ebp+13], dl
  000e7	8a 50 0e	 mov	 dl, BYTE PTR [eax+14]
  000ea	84 d2		 test	 dl, dl
  000ec	74 19		 je	 SHORT $LN82@LoadBool_e
  000ee	8a 40 0f	 mov	 al, BYTE PTR [eax+15]
  000f1	32 d1		 xor	 dl, cl
  000f3	88 55 fa	 mov	 BYTE PTR __k$[ebp+14], dl
  000f6	84 c0		 test	 al, al
  000f8	74 07		 je	 SHORT $LN81@LoadBool_e
  000fa	34 ea		 xor	 al, -22			; ffffffeaH
  000fc	88 45 fb	 mov	 BYTE PTR __k$[ebp+15], al
  000ff	eb 55		 jmp	 SHORT $LN1@LoadBool_e
$LN81@LoadBool_e:
  00101	c6 45 fb ea	 mov	 BYTE PTR __k$[ebp+15], -22 ; ffffffeaH
  00105	eb 4f		 jmp	 SHORT $LN1@LoadBool_e
$LN82@LoadBool_e:
  00107	88 4d fa	 mov	 BYTE PTR __k$[ebp+14], cl
  0010a	eb 4a		 jmp	 SHORT $LN1@LoadBool_e
$LN83@LoadBool_e:
  0010c	c6 45 f9 ec	 mov	 BYTE PTR __k$[ebp+13], -20 ; ffffffecH
  00110	eb 44		 jmp	 SHORT $LN1@LoadBool_e
$LN84@LoadBool_e:
  00112	c6 45 f8 ed	 mov	 BYTE PTR __k$[ebp+12], -19 ; ffffffedH
  00116	eb 3e		 jmp	 SHORT $LN1@LoadBool_e
$LN86@LoadBool_e:
  00118	88 4d f6	 mov	 BYTE PTR __k$[ebp+10], cl
  0011b	eb 39		 jmp	 SHORT $LN1@LoadBool_e
$LN87@LoadBool_e:
  0011d	c6 45 f5 ec	 mov	 BYTE PTR __k$[ebp+9], -20 ; ffffffecH
  00121	eb 33		 jmp	 SHORT $LN1@LoadBool_e
$LN88@LoadBool_e:
  00123	c6 45 f4 ed	 mov	 BYTE PTR __k$[ebp+8], -19 ; ffffffedH
  00127	eb 2d		 jmp	 SHORT $LN1@LoadBool_e
$LN89@LoadBool_e:
  00129	c6 45 f3 ea	 mov	 BYTE PTR __k$[ebp+7], -22 ; ffffffeaH
  0012d	eb 27		 jmp	 SHORT $LN1@LoadBool_e
$LN90@LoadBool_e:
  0012f	88 4d f2	 mov	 BYTE PTR __k$[ebp+6], cl
  00132	eb 22		 jmp	 SHORT $LN1@LoadBool_e
$LN91@LoadBool_e:
  00134	c6 45 f1 ec	 mov	 BYTE PTR __k$[ebp+5], -20 ; ffffffecH
  00138	eb 1c		 jmp	 SHORT $LN1@LoadBool_e
$LN92@LoadBool_e:
  0013a	c6 45 f0 ed	 mov	 BYTE PTR __k$[ebp+4], -19 ; ffffffedH
  0013e	eb 16		 jmp	 SHORT $LN1@LoadBool_e
$LN93@LoadBool_e:
  00140	c6 45 ef ea	 mov	 BYTE PTR __k$[ebp+3], -22 ; ffffffeaH
  00144	eb 10		 jmp	 SHORT $LN1@LoadBool_e
$LN94@LoadBool_e:
  00146	c6 45 ee eb	 mov	 BYTE PTR __k$[ebp+2], -21 ; ffffffebH
  0014a	eb 0a		 jmp	 SHORT $LN1@LoadBool_e
$LN95@LoadBool_e:
  0014c	c6 45 ed ec	 mov	 BYTE PTR __k$[ebp+1], -20 ; ffffffecH
  00150	eb 04		 jmp	 SHORT $LN1@LoadBool_e
$LN96@LoadBool_e:
  00152	c6 45 ec ed	 mov	 BYTE PTR __k$[ebp], -19	; ffffffedH
$LN1@LoadBool_e:
  00156	6a 02		 push	 2
  00158	8d 45 ec	 lea	 eax, DWORD PTR __k$[ebp]
  0015b	c6 45 f7 00	 mov	 BYTE PTR __k$[ebp+11], 0
  0015f	5a		 pop	 edx
$LL104@LoadBool_e:
  00160	81 30 ed ec eb
	ea		 xor	 DWORD PTR [eax], -353637139 ; eaebecedH
  00166	83 c0 04	 add	 eax, 4
  00169	4a		 dec	 edx
  0016a	75 f4		 jne	 SHORT $LL104@LoadBool_e
  0016c	6a 08		 push	 8
  0016e	58		 pop	 eax
$LL101@LoadBool_e:
  0016f	8b c8		 mov	 ecx, eax
  00171	81 e1 03 00 00
	80		 and	 ecx, -2147483645	; 80000003H
  00177	79 05		 jns	 SHORT $LN111@LoadBool_e
  00179	49		 dec	 ecx
  0017a	83 c9 fc	 or	 ecx, -4			; fffffffcH
  0017d	41		 inc	 ecx
$LN111@LoadBool_e:
  0017e	b2 ed		 mov	 dl, -19			; ffffffedH
  00180	2a d1		 sub	 dl, cl
  00182	30 54 05 ec	 xor	 BYTE PTR __k$[ebp+eax], dl
  00186	40		 inc	 eax
  00187	83 f8 0b	 cmp	 eax, 11			; 0000000bH
  0018a	7c e3		 jl	 SHORT $LL101@LoadBool_e

; 103  : 		return LoadBool(_k, b);

  0018c	ff 75 0c	 push	 DWORD PTR _b$[ebp]
  0018f	8d 45 ec	 lea	 eax, DWORD PTR __k$[ebp]
  00192	50		 push	 eax
  00193	8b ce		 mov	 ecx, esi
  00195	ff 15 00 00 00
	00		 call	 DWORD PTR __imp_?LoadBool@ioINILoader@@QAE_NPBD_N@Z

; 104  : 	}

  0019b	8b 4d fc	 mov	 ecx, DWORD PTR __$ArrayPad$[ebp]
  0019e	33 cd		 xor	 ecx, ebp
  001a0	5e		 pop	 esi
  001a1	e8 00 00 00 00	 call	 @__security_check_cookie@4
  001a6	c9		 leave
  001a7	c2 08 00	 ret	 8
??$LoadBool_e@$0M@@ioINILoader@@QAE_NAAY0M@$$CBD_N@Z ENDP ; ioINILoader::LoadBool_e<12>
_TEXT	ENDS
PUBLIC	__$ArrayPad$
PUBLIC	??$LoadBool_e@$0P@@ioINILoader@@QAE_NAAY0P@$$CBD_N@Z ; ioINILoader::LoadBool_e<15>
; Function compile flags: /Ogsp
;	COMDAT ??$LoadBool_e@$0P@@ioINILoader@@QAE_NAAY0P@$$CBD_N@Z
_TEXT	SEGMENT
__k$ = -24						; size = 15
__$ArrayPad$ = -4					; size = 4
_k$ = 8							; size = 4
_b$ = 12						; size = 1
??$LoadBool_e@$0P@@ioINILoader@@QAE_NAAY0P@$$CBD_N@Z PROC ; ioINILoader::LoadBool_e<15>, COMDAT
; _this$ = ecx

; 101  : 	{

  00000	55		 push	 ebp
  00001	8b ec		 mov	 ebp, esp
  00003	83 ec 18	 sub	 esp, 24			; 00000018H
  00006	a1 00 00 00 00	 mov	 eax, DWORD PTR ___security_cookie
  0000b	33 c5		 xor	 eax, ebp
  0000d	89 45 fc	 mov	 DWORD PTR __$ArrayPad$[ebp], eax
  00010	8b 45 08	 mov	 eax, DWORD PTR _k$[ebp]

; 102  : 		_ENCSTR(k, _k);

  00013	8a 10		 mov	 dl, BYTE PTR [eax]
  00015	56		 push	 esi
  00016	8b f1		 mov	 esi, ecx
  00018	84 d2		 test	 dl, dl
  0001a	0f 84 75 01 00
	00		 je	 $LN96@LoadBool_e@2
  00020	80 f2 ed	 xor	 dl, -19			; ffffffedH
  00023	88 55 e8	 mov	 BYTE PTR __k$[ebp], dl
  00026	8a 50 01	 mov	 dl, BYTE PTR [eax+1]
  00029	84 d2		 test	 dl, dl
  0002b	0f 84 5e 01 00
	00		 je	 $LN95@LoadBool_e@2
  00031	b1 ec		 mov	 cl, -20			; ffffffecH
  00033	32 d1		 xor	 dl, cl
  00035	88 55 e9	 mov	 BYTE PTR __k$[ebp+1], dl
  00038	8a 50 02	 mov	 dl, BYTE PTR [eax+2]
  0003b	84 d2		 test	 dl, dl
  0003d	0f 84 46 01 00
	00		 je	 $LN94@LoadBool_e@2
  00043	80 f2 eb	 xor	 dl, -21			; ffffffebH
  00046	88 55 ea	 mov	 BYTE PTR __k$[ebp+2], dl
  00049	8a 50 03	 mov	 dl, BYTE PTR [eax+3]
  0004c	84 d2		 test	 dl, dl
  0004e	0f 84 2f 01 00
	00		 je	 $LN93@LoadBool_e@2
  00054	80 f2 ea	 xor	 dl, -22			; ffffffeaH
  00057	88 55 eb	 mov	 BYTE PTR __k$[ebp+3], dl
  0005a	8a 50 04	 mov	 dl, BYTE PTR [eax+4]
  0005d	84 d2		 test	 dl, dl
  0005f	0f 84 18 01 00
	00		 je	 $LN92@LoadBool_e@2
  00065	80 f2 ed	 xor	 dl, -19			; ffffffedH
  00068	88 55 ec	 mov	 BYTE PTR __k$[ebp+4], dl
  0006b	8a 50 05	 mov	 dl, BYTE PTR [eax+5]
  0006e	84 d2		 test	 dl, dl
  00070	0f 84 02 01 00
	00		 je	 $LN91@LoadBool_e@2
  00076	32 d1		 xor	 dl, cl
  00078	88 55 ed	 mov	 BYTE PTR __k$[ebp+5], dl
  0007b	8a 50 06	 mov	 dl, BYTE PTR [eax+6]
  0007e	84 d2		 test	 dl, dl
  00080	0f 84 ec 00 00
	00		 je	 $LN90@LoadBool_e@2
  00086	80 f2 eb	 xor	 dl, -21			; ffffffebH
  00089	88 55 ee	 mov	 BYTE PTR __k$[ebp+6], dl
  0008c	8a 50 07	 mov	 dl, BYTE PTR [eax+7]
  0008f	84 d2		 test	 dl, dl
  00091	0f 84 d5 00 00
	00		 je	 $LN89@LoadBool_e@2
  00097	80 f2 ea	 xor	 dl, -22			; ffffffeaH
  0009a	88 55 ef	 mov	 BYTE PTR __k$[ebp+7], dl
  0009d	8a 50 08	 mov	 dl, BYTE PTR [eax+8]
  000a0	84 d2		 test	 dl, dl
  000a2	0f 84 be 00 00
	00		 je	 $LN88@LoadBool_e@2
  000a8	80 f2 ed	 xor	 dl, -19			; ffffffedH
  000ab	88 55 f0	 mov	 BYTE PTR __k$[ebp+8], dl
  000ae	8a 50 09	 mov	 dl, BYTE PTR [eax+9]
  000b1	84 d2		 test	 dl, dl
  000b3	0f 84 a8 00 00
	00		 je	 $LN87@LoadBool_e@2
  000b9	32 d1		 xor	 dl, cl
  000bb	88 55 f1	 mov	 BYTE PTR __k$[ebp+9], dl
  000be	8a 50 0a	 mov	 dl, BYTE PTR [eax+10]
  000c1	84 d2		 test	 dl, dl
  000c3	0f 84 92 00 00
	00		 je	 $LN86@LoadBool_e@2
  000c9	80 f2 eb	 xor	 dl, -21			; ffffffebH
  000cc	88 55 f2	 mov	 BYTE PTR __k$[ebp+10], dl
  000cf	8a 50 0b	 mov	 dl, BYTE PTR [eax+11]
  000d2	84 d2		 test	 dl, dl
  000d4	74 7f		 je	 SHORT $LN85@LoadBool_e@2
  000d6	80 f2 ea	 xor	 dl, -22			; ffffffeaH
  000d9	88 55 f3	 mov	 BYTE PTR __k$[ebp+11], dl
  000dc	8a 50 0c	 mov	 dl, BYTE PTR [eax+12]
  000df	84 d2		 test	 dl, dl
  000e1	74 6c		 je	 SHORT $LN84@LoadBool_e@2
  000e3	80 f2 ed	 xor	 dl, -19			; ffffffedH
  000e6	88 55 f4	 mov	 BYTE PTR __k$[ebp+12], dl
  000e9	8a 50 0d	 mov	 dl, BYTE PTR [eax+13]
  000ec	84 d2		 test	 dl, dl
  000ee	74 5a		 je	 SHORT $LN83@LoadBool_e@2
  000f0	32 d1		 xor	 dl, cl
  000f2	80 78 0e 00	 cmp	 BYTE PTR [eax+14], 0
  000f6	88 55 f5	 mov	 BYTE PTR __k$[ebp+13], dl
  000f9	0f 84 9a 00 00
	00		 je	 $LN1@LoadBool_e@2
  000ff	8a 50 0f	 mov	 dl, BYTE PTR [eax+15]
  00102	84 d2		 test	 dl, dl
  00104	74 3e		 je	 SHORT $LN81@LoadBool_e@2
  00106	80 f2 ea	 xor	 dl, -22			; ffffffeaH
  00109	88 55 f7	 mov	 BYTE PTR __k$[ebp+15], dl
  0010c	8a 50 10	 mov	 dl, BYTE PTR [eax+16]
  0010f	84 d2		 test	 dl, dl
  00111	74 2b		 je	 SHORT $LN80@LoadBool_e@2
  00113	80 f2 ed	 xor	 dl, -19			; ffffffedH
  00116	88 55 f8	 mov	 BYTE PTR __k$[ebp+16], dl
  00119	8a 50 11	 mov	 dl, BYTE PTR [eax+17]
  0011c	84 d2		 test	 dl, dl
  0011e	74 19		 je	 SHORT $LN79@LoadBool_e@2
  00120	8a 40 12	 mov	 al, BYTE PTR [eax+18]
  00123	32 d1		 xor	 dl, cl
  00125	88 55 f9	 mov	 BYTE PTR __k$[ebp+17], dl
  00128	84 c0		 test	 al, al
  0012a	74 07		 je	 SHORT $LN78@LoadBool_e@2
  0012c	34 eb		 xor	 al, -21			; ffffffebH
  0012e	88 45 fa	 mov	 BYTE PTR __k$[ebp+18], al
  00131	eb 66		 jmp	 SHORT $LN1@LoadBool_e@2
$LN78@LoadBool_e@2:
  00133	c6 45 fa eb	 mov	 BYTE PTR __k$[ebp+18], -21 ; ffffffebH
  00137	eb 60		 jmp	 SHORT $LN1@LoadBool_e@2
$LN79@LoadBool_e@2:
  00139	88 4d f9	 mov	 BYTE PTR __k$[ebp+17], cl
  0013c	eb 5b		 jmp	 SHORT $LN1@LoadBool_e@2
$LN80@LoadBool_e@2:
  0013e	c6 45 f8 ed	 mov	 BYTE PTR __k$[ebp+16], -19 ; ffffffedH
  00142	eb 55		 jmp	 SHORT $LN1@LoadBool_e@2
$LN81@LoadBool_e@2:
  00144	c6 45 f7 ea	 mov	 BYTE PTR __k$[ebp+15], -22 ; ffffffeaH
  00148	eb 4f		 jmp	 SHORT $LN1@LoadBool_e@2
$LN83@LoadBool_e@2:
  0014a	88 4d f5	 mov	 BYTE PTR __k$[ebp+13], cl
  0014d	eb 4a		 jmp	 SHORT $LN1@LoadBool_e@2
$LN84@LoadBool_e@2:
  0014f	c6 45 f4 ed	 mov	 BYTE PTR __k$[ebp+12], -19 ; ffffffedH
  00153	eb 44		 jmp	 SHORT $LN1@LoadBool_e@2
$LN85@LoadBool_e@2:
  00155	c6 45 f3 ea	 mov	 BYTE PTR __k$[ebp+11], -22 ; ffffffeaH
  00159	eb 3e		 jmp	 SHORT $LN1@LoadBool_e@2
$LN86@LoadBool_e@2:
  0015b	c6 45 f2 eb	 mov	 BYTE PTR __k$[ebp+10], -21 ; ffffffebH
  0015f	eb 38		 jmp	 SHORT $LN1@LoadBool_e@2
$LN87@LoadBool_e@2:
  00161	88 4d f1	 mov	 BYTE PTR __k$[ebp+9], cl
  00164	eb 33		 jmp	 SHORT $LN1@LoadBool_e@2
$LN88@LoadBool_e@2:
  00166	c6 45 f0 ed	 mov	 BYTE PTR __k$[ebp+8], -19 ; ffffffedH
  0016a	eb 2d		 jmp	 SHORT $LN1@LoadBool_e@2
$LN89@LoadBool_e@2:
  0016c	c6 45 ef ea	 mov	 BYTE PTR __k$[ebp+7], -22 ; ffffffeaH
  00170	eb 27		 jmp	 SHORT $LN1@LoadBool_e@2
$LN90@LoadBool_e@2:
  00172	c6 45 ee eb	 mov	 BYTE PTR __k$[ebp+6], -21 ; ffffffebH
  00176	eb 21		 jmp	 SHORT $LN1@LoadBool_e@2
$LN91@LoadBool_e@2:
  00178	88 4d ed	 mov	 BYTE PTR __k$[ebp+5], cl
  0017b	eb 1c		 jmp	 SHORT $LN1@LoadBool_e@2
$LN92@LoadBool_e@2:
  0017d	c6 45 ec ed	 mov	 BYTE PTR __k$[ebp+4], -19 ; ffffffedH
  00181	eb 16		 jmp	 SHORT $LN1@LoadBool_e@2
$LN93@LoadBool_e@2:
  00183	c6 45 eb ea	 mov	 BYTE PTR __k$[ebp+3], -22 ; ffffffeaH
  00187	eb 10		 jmp	 SHORT $LN1@LoadBool_e@2
$LN94@LoadBool_e@2:
  00189	c6 45 ea eb	 mov	 BYTE PTR __k$[ebp+2], -21 ; ffffffebH
  0018d	eb 0a		 jmp	 SHORT $LN1@LoadBool_e@2
$LN95@LoadBool_e@2:
  0018f	c6 45 e9 ec	 mov	 BYTE PTR __k$[ebp+1], -20 ; ffffffecH
  00193	eb 04		 jmp	 SHORT $LN1@LoadBool_e@2
$LN96@LoadBool_e@2:
  00195	c6 45 e8 ed	 mov	 BYTE PTR __k$[ebp], -19	; ffffffedH
$LN1@LoadBool_e@2:
  00199	6a 03		 push	 3
  0019b	8d 45 e8	 lea	 eax, DWORD PTR __k$[ebp]
  0019e	c6 45 f6 00	 mov	 BYTE PTR __k$[ebp+14], 0
  001a2	5a		 pop	 edx
$LL104@LoadBool_e@2:
  001a3	81 30 ed ec eb
	ea		 xor	 DWORD PTR [eax], -353637139 ; eaebecedH
  001a9	83 c0 04	 add	 eax, 4
  001ac	4a		 dec	 edx
  001ad	75 f4		 jne	 SHORT $LL104@LoadBool_e@2
  001af	6a 0c		 push	 12			; 0000000cH
  001b1	58		 pop	 eax
$LL101@LoadBool_e@2:
  001b2	8b c8		 mov	 ecx, eax
  001b4	81 e1 03 00 00
	80		 and	 ecx, -2147483645	; 80000003H
  001ba	79 05		 jns	 SHORT $LN111@LoadBool_e@2
  001bc	49		 dec	 ecx
  001bd	83 c9 fc	 or	 ecx, -4			; fffffffcH
  001c0	41		 inc	 ecx
$LN111@LoadBool_e@2:
  001c1	b2 ed		 mov	 dl, -19			; ffffffedH
  001c3	2a d1		 sub	 dl, cl
  001c5	30 54 05 e8	 xor	 BYTE PTR __k$[ebp+eax], dl
  001c9	40		 inc	 eax
  001ca	83 f8 0e	 cmp	 eax, 14			; 0000000eH
  001cd	7c e3		 jl	 SHORT $LL101@LoadBool_e@2

; 103  : 		return LoadBool(_k, b);

  001cf	ff 75 0c	 push	 DWORD PTR _b$[ebp]
  001d2	8d 45 e8	 lea	 eax, DWORD PTR __k$[ebp]
  001d5	50		 push	 eax
  001d6	8b ce		 mov	 ecx, esi
  001d8	ff 15 00 00 00
	00		 call	 DWORD PTR __imp_?LoadBool@ioINILoader@@QAE_NPBD_N@Z

; 104  : 	}

  001de	8b 4d fc	 mov	 ecx, DWORD PTR __$ArrayPad$[ebp]
  001e1	33 cd		 xor	 ecx, ebp
  001e3	5e		 pop	 esi
  001e4	e8 00 00 00 00	 call	 @__security_check_cookie@4
  001e9	c9		 leave
  001ea	c2 08 00	 ret	 8
??$LoadBool_e@$0P@@ioINILoader@@QAE_NAAY0P@$$CBD_N@Z ENDP ; ioINILoader::LoadBool_e<15>
_TEXT	ENDS
PUBLIC	__$ArrayPad$
PUBLIC	??$LoadBool_e@$09@ioINILoader@@QAE_NAAY09$$CBD_N@Z ; ioINILoader::LoadBool_e<10>
; Function compile flags: /Ogsp
;	COMDAT ??$LoadBool_e@$09@ioINILoader@@QAE_NAAY09$$CBD_N@Z
_TEXT	SEGMENT
__k$ = -20						; size = 10
__$ArrayPad$ = -4					; size = 4
_k$ = 8							; size = 4
_b$ = 12						; size = 1
??$LoadBool_e@$09@ioINILoader@@QAE_NAAY09$$CBD_N@Z PROC	; ioINILoader::LoadBool_e<10>, COMDAT
; _this$ = ecx

; 101  : 	{

  00000	55		 push	 ebp
  00001	8b ec		 mov	 ebp, esp
  00003	83 ec 14	 sub	 esp, 20			; 00000014H
  00006	a1 00 00 00 00	 mov	 eax, DWORD PTR ___security_cookie
  0000b	33 c5		 xor	 eax, ebp
  0000d	89 45 fc	 mov	 DWORD PTR __$ArrayPad$[ebp], eax
  00010	8b 45 08	 mov	 eax, DWORD PTR _k$[ebp]

; 102  : 		_ENCSTR(k, _k);

  00013	8a 10		 mov	 dl, BYTE PTR [eax]
  00015	84 d2		 test	 dl, dl
  00017	0f 84 0d 01 00
	00		 je	 $LN96@LoadBool_e@3
  0001d	80 f2 ed	 xor	 dl, -19			; ffffffedH
  00020	88 55 ec	 mov	 BYTE PTR __k$[ebp], dl
  00023	8a 50 01	 mov	 dl, BYTE PTR [eax+1]
  00026	84 d2		 test	 dl, dl
  00028	0f 84 f6 00 00
	00		 je	 $LN95@LoadBool_e@3
  0002e	80 f2 ec	 xor	 dl, -20			; ffffffecH
  00031	88 55 ed	 mov	 BYTE PTR __k$[ebp+1], dl
  00034	8a 50 02	 mov	 dl, BYTE PTR [eax+2]
  00037	84 d2		 test	 dl, dl
  00039	0f 84 df 00 00
	00		 je	 $LN94@LoadBool_e@3
  0003f	80 f2 eb	 xor	 dl, -21			; ffffffebH
  00042	88 55 ee	 mov	 BYTE PTR __k$[ebp+2], dl
  00045	8a 50 03	 mov	 dl, BYTE PTR [eax+3]
  00048	84 d2		 test	 dl, dl
  0004a	0f 84 c8 00 00
	00		 je	 $LN93@LoadBool_e@3
  00050	80 f2 ea	 xor	 dl, -22			; ffffffeaH
  00053	88 55 ef	 mov	 BYTE PTR __k$[ebp+3], dl
  00056	8a 50 04	 mov	 dl, BYTE PTR [eax+4]
  00059	84 d2		 test	 dl, dl
  0005b	0f 84 b1 00 00
	00		 je	 $LN92@LoadBool_e@3
  00061	80 f2 ed	 xor	 dl, -19			; ffffffedH
  00064	88 55 f0	 mov	 BYTE PTR __k$[ebp+4], dl
  00067	8a 50 05	 mov	 dl, BYTE PTR [eax+5]
  0006a	84 d2		 test	 dl, dl
  0006c	0f 84 9a 00 00
	00		 je	 $LN91@LoadBool_e@3
  00072	80 f2 ec	 xor	 dl, -20			; ffffffecH
  00075	88 55 f1	 mov	 BYTE PTR __k$[ebp+5], dl
  00078	8a 50 06	 mov	 dl, BYTE PTR [eax+6]
  0007b	84 d2		 test	 dl, dl
  0007d	0f 84 83 00 00
	00		 je	 $LN90@LoadBool_e@3
  00083	80 f2 eb	 xor	 dl, -21			; ffffffebH
  00086	88 55 f2	 mov	 BYTE PTR __k$[ebp+6], dl
  00089	8a 50 07	 mov	 dl, BYTE PTR [eax+7]
  0008c	84 d2		 test	 dl, dl
  0008e	74 70		 je	 SHORT $LN89@LoadBool_e@3
  00090	80 f2 ea	 xor	 dl, -22			; ffffffeaH
  00093	88 55 f3	 mov	 BYTE PTR __k$[ebp+7], dl
  00096	8a 50 08	 mov	 dl, BYTE PTR [eax+8]
  00099	84 d2		 test	 dl, dl
  0009b	74 5d		 je	 SHORT $LN88@LoadBool_e@3
  0009d	80 f2 ed	 xor	 dl, -19			; ffffffedH
  000a0	80 78 09 00	 cmp	 BYTE PTR [eax+9], 0
  000a4	88 55 f4	 mov	 BYTE PTR __k$[ebp+8], dl
  000a7	0f 84 81 00 00
	00		 je	 $LN1@LoadBool_e@3
  000ad	8a 50 0a	 mov	 dl, BYTE PTR [eax+10]
  000b0	84 d2		 test	 dl, dl
  000b2	74 40		 je	 SHORT $LN86@LoadBool_e@3
  000b4	80 f2 eb	 xor	 dl, -21			; ffffffebH
  000b7	88 55 f6	 mov	 BYTE PTR __k$[ebp+10], dl
  000ba	8a 50 0b	 mov	 dl, BYTE PTR [eax+11]
  000bd	84 d2		 test	 dl, dl
  000bf	74 2d		 je	 SHORT $LN85@LoadBool_e@3
  000c1	80 f2 ea	 xor	 dl, -22			; ffffffeaH
  000c4	88 55 f7	 mov	 BYTE PTR __k$[ebp+11], dl
  000c7	8a 50 0c	 mov	 dl, BYTE PTR [eax+12]
  000ca	84 d2		 test	 dl, dl
  000cc	74 1a		 je	 SHORT $LN84@LoadBool_e@3
  000ce	8a 40 0d	 mov	 al, BYTE PTR [eax+13]
  000d1	80 f2 ed	 xor	 dl, -19			; ffffffedH
  000d4	88 55 f8	 mov	 BYTE PTR __k$[ebp+12], dl
  000d7	84 c0		 test	 al, al
  000d9	74 07		 je	 SHORT $LN83@LoadBool_e@3
  000db	34 ec		 xor	 al, -20			; ffffffecH
  000dd	88 45 f9	 mov	 BYTE PTR __k$[ebp+13], al
  000e0	eb 4c		 jmp	 SHORT $LN1@LoadBool_e@3
$LN83@LoadBool_e@3:
  000e2	c6 45 f9 ec	 mov	 BYTE PTR __k$[ebp+13], -20 ; ffffffecH
  000e6	eb 46		 jmp	 SHORT $LN1@LoadBool_e@3
$LN84@LoadBool_e@3:
  000e8	c6 45 f8 ed	 mov	 BYTE PTR __k$[ebp+12], -19 ; ffffffedH
  000ec	eb 40		 jmp	 SHORT $LN1@LoadBool_e@3
$LN85@LoadBool_e@3:
  000ee	c6 45 f7 ea	 mov	 BYTE PTR __k$[ebp+11], -22 ; ffffffeaH
  000f2	eb 3a		 jmp	 SHORT $LN1@LoadBool_e@3
$LN86@LoadBool_e@3:
  000f4	c6 45 f6 eb	 mov	 BYTE PTR __k$[ebp+10], -21 ; ffffffebH
  000f8	eb 34		 jmp	 SHORT $LN1@LoadBool_e@3
$LN88@LoadBool_e@3:
  000fa	c6 45 f4 ed	 mov	 BYTE PTR __k$[ebp+8], -19 ; ffffffedH
  000fe	eb 2e		 jmp	 SHORT $LN1@LoadBool_e@3
$LN89@LoadBool_e@3:
  00100	c6 45 f3 ea	 mov	 BYTE PTR __k$[ebp+7], -22 ; ffffffeaH
  00104	eb 28		 jmp	 SHORT $LN1@LoadBool_e@3
$LN90@LoadBool_e@3:
  00106	c6 45 f2 eb	 mov	 BYTE PTR __k$[ebp+6], -21 ; ffffffebH
  0010a	eb 22		 jmp	 SHORT $LN1@LoadBool_e@3
$LN91@LoadBool_e@3:
  0010c	c6 45 f1 ec	 mov	 BYTE PTR __k$[ebp+5], -20 ; ffffffecH
  00110	eb 1c		 jmp	 SHORT $LN1@LoadBool_e@3
$LN92@LoadBool_e@3:
  00112	c6 45 f0 ed	 mov	 BYTE PTR __k$[ebp+4], -19 ; ffffffedH
  00116	eb 16		 jmp	 SHORT $LN1@LoadBool_e@3
$LN93@LoadBool_e@3:
  00118	c6 45 ef ea	 mov	 BYTE PTR __k$[ebp+3], -22 ; ffffffeaH
  0011c	eb 10		 jmp	 SHORT $LN1@LoadBool_e@3
$LN94@LoadBool_e@3:
  0011e	c6 45 ee eb	 mov	 BYTE PTR __k$[ebp+2], -21 ; ffffffebH
  00122	eb 0a		 jmp	 SHORT $LN1@LoadBool_e@3
$LN95@LoadBool_e@3:
  00124	c6 45 ed ec	 mov	 BYTE PTR __k$[ebp+1], -20 ; ffffffecH
  00128	eb 04		 jmp	 SHORT $LN1@LoadBool_e@3
$LN96@LoadBool_e@3:
  0012a	c6 45 ec ed	 mov	 BYTE PTR __k$[ebp], -19	; ffffffedH
$LN1@LoadBool_e@3:
  0012e	6a 02		 push	 2
  00130	8d 45 ec	 lea	 eax, DWORD PTR __k$[ebp]
  00133	c6 45 f5 00	 mov	 BYTE PTR __k$[ebp+9], 0
  00137	5a		 pop	 edx
$LL104@LoadBool_e@3:
  00138	81 30 ed ec eb
	ea		 xor	 DWORD PTR [eax], -353637139 ; eaebecedH
  0013e	83 c0 04	 add	 eax, 4
  00141	4a		 dec	 edx
  00142	75 f4		 jne	 SHORT $LL104@LoadBool_e@3

; 103  : 		return LoadBool(_k, b);

  00144	ff 75 0c	 push	 DWORD PTR _b$[ebp]
  00147	80 75 f4 ed	 xor	 BYTE PTR __k$[ebp+8], -19 ; ffffffedH
  0014b	8d 45 ec	 lea	 eax, DWORD PTR __k$[ebp]
  0014e	50		 push	 eax
  0014f	ff 15 00 00 00
	00		 call	 DWORD PTR __imp_?LoadBool@ioINILoader@@QAE_NPBD_N@Z

; 104  : 	}

  00155	8b 4d fc	 mov	 ecx, DWORD PTR __$ArrayPad$[ebp]
  00158	33 cd		 xor	 ecx, ebp
  0015a	e8 00 00 00 00	 call	 @__security_check_cookie@4
  0015f	c9		 leave
  00160	c2 08 00	 ret	 8
??$LoadBool_e@$09@ioINILoader@@QAE_NAAY09$$CBD_N@Z ENDP	; ioINILoader::LoadBool_e<10>
_TEXT	ENDS
PUBLIC	__$ArrayPad$
PUBLIC	??$LoadInt_e@$0M@@ioINILoader@@QAEHAAY0M@$$CBDH@Z ; ioINILoader::LoadInt_e<12>
; Function compile flags: /Ogsp
;	COMDAT ??$LoadInt_e@$0M@@ioINILoader@@QAEHAAY0M@$$CBDH@Z
_TEXT	SEGMENT
__k$ = -20						; size = 12
__$ArrayPad$ = -4					; size = 4
_k$ = 8							; size = 4
_i$ = 12						; size = 4
??$LoadInt_e@$0M@@ioINILoader@@QAEHAAY0M@$$CBDH@Z PROC	; ioINILoader::LoadInt_e<12>, COMDAT
; _this$ = ecx

; 118  : 	{

  00000	55		 push	 ebp
  00001	8b ec		 mov	 ebp, esp
  00003	83 ec 14	 sub	 esp, 20			; 00000014H
  00006	a1 00 00 00 00	 mov	 eax, DWORD PTR ___security_cookie
  0000b	33 c5		 xor	 eax, ebp
  0000d	89 45 fc	 mov	 DWORD PTR __$ArrayPad$[ebp], eax
  00010	8b 45 08	 mov	 eax, DWORD PTR _k$[ebp]

; 119  : 		_ENCSTR(k, _k);

  00013	8a 10		 mov	 dl, BYTE PTR [eax]
  00015	56		 push	 esi
  00016	8b f1		 mov	 esi, ecx
  00018	84 d2		 test	 dl, dl
  0001a	0f 84 32 01 00
	00		 je	 $LN96@LoadInt_e@3
  00020	80 f2 ed	 xor	 dl, -19			; ffffffedH
  00023	88 55 ec	 mov	 BYTE PTR __k$[ebp], dl
  00026	8a 50 01	 mov	 dl, BYTE PTR [eax+1]
  00029	84 d2		 test	 dl, dl
  0002b	0f 84 1b 01 00
	00		 je	 $LN95@LoadInt_e@3
  00031	80 f2 ec	 xor	 dl, -20			; ffffffecH
  00034	88 55 ed	 mov	 BYTE PTR __k$[ebp+1], dl
  00037	8a 50 02	 mov	 dl, BYTE PTR [eax+2]
  0003a	84 d2		 test	 dl, dl
  0003c	0f 84 04 01 00
	00		 je	 $LN94@LoadInt_e@3
  00042	b1 eb		 mov	 cl, -21			; ffffffebH
  00044	32 d1		 xor	 dl, cl
  00046	88 55 ee	 mov	 BYTE PTR __k$[ebp+2], dl
  00049	8a 50 03	 mov	 dl, BYTE PTR [eax+3]
  0004c	84 d2		 test	 dl, dl
  0004e	0f 84 ec 00 00
	00		 je	 $LN93@LoadInt_e@3
  00054	80 f2 ea	 xor	 dl, -22			; ffffffeaH
  00057	88 55 ef	 mov	 BYTE PTR __k$[ebp+3], dl
  0005a	8a 50 04	 mov	 dl, BYTE PTR [eax+4]
  0005d	84 d2		 test	 dl, dl
  0005f	0f 84 d5 00 00
	00		 je	 $LN92@LoadInt_e@3
  00065	80 f2 ed	 xor	 dl, -19			; ffffffedH
  00068	88 55 f0	 mov	 BYTE PTR __k$[ebp+4], dl
  0006b	8a 50 05	 mov	 dl, BYTE PTR [eax+5]
  0006e	84 d2		 test	 dl, dl
  00070	0f 84 be 00 00
	00		 je	 $LN91@LoadInt_e@3
  00076	80 f2 ec	 xor	 dl, -20			; ffffffecH
  00079	88 55 f1	 mov	 BYTE PTR __k$[ebp+5], dl
  0007c	8a 50 06	 mov	 dl, BYTE PTR [eax+6]
  0007f	84 d2		 test	 dl, dl
  00081	0f 84 a8 00 00
	00		 je	 $LN90@LoadInt_e@3
  00087	32 d1		 xor	 dl, cl
  00089	88 55 f2	 mov	 BYTE PTR __k$[ebp+6], dl
  0008c	8a 50 07	 mov	 dl, BYTE PTR [eax+7]
  0008f	84 d2		 test	 dl, dl
  00091	0f 84 92 00 00
	00		 je	 $LN89@LoadInt_e@3
  00097	80 f2 ea	 xor	 dl, -22			; ffffffeaH
  0009a	88 55 f3	 mov	 BYTE PTR __k$[ebp+7], dl
  0009d	8a 50 08	 mov	 dl, BYTE PTR [eax+8]
  000a0	84 d2		 test	 dl, dl
  000a2	74 7f		 je	 SHORT $LN88@LoadInt_e@3
  000a4	80 f2 ed	 xor	 dl, -19			; ffffffedH
  000a7	88 55 f4	 mov	 BYTE PTR __k$[ebp+8], dl
  000aa	8a 50 09	 mov	 dl, BYTE PTR [eax+9]
  000ad	84 d2		 test	 dl, dl
  000af	74 6c		 je	 SHORT $LN87@LoadInt_e@3
  000b1	80 f2 ec	 xor	 dl, -20			; ffffffecH
  000b4	88 55 f5	 mov	 BYTE PTR __k$[ebp+9], dl
  000b7	8a 50 0a	 mov	 dl, BYTE PTR [eax+10]
  000ba	84 d2		 test	 dl, dl
  000bc	74 5a		 je	 SHORT $LN86@LoadInt_e@3
  000be	32 d1		 xor	 dl, cl
  000c0	80 78 0b 00	 cmp	 BYTE PTR [eax+11], 0
  000c4	88 55 f6	 mov	 BYTE PTR __k$[ebp+10], dl
  000c7	0f 84 89 00 00
	00		 je	 $LN1@LoadInt_e@3
  000cd	8a 50 0c	 mov	 dl, BYTE PTR [eax+12]
  000d0	84 d2		 test	 dl, dl
  000d2	74 3e		 je	 SHORT $LN84@LoadInt_e@3
  000d4	80 f2 ed	 xor	 dl, -19			; ffffffedH
  000d7	88 55 f8	 mov	 BYTE PTR __k$[ebp+12], dl
  000da	8a 50 0d	 mov	 dl, BYTE PTR [eax+13]
  000dd	84 d2		 test	 dl, dl
  000df	74 2b		 je	 SHORT $LN83@LoadInt_e@3
  000e1	80 f2 ec	 xor	 dl, -20			; ffffffecH
  000e4	88 55 f9	 mov	 BYTE PTR __k$[ebp+13], dl
  000e7	8a 50 0e	 mov	 dl, BYTE PTR [eax+14]
  000ea	84 d2		 test	 dl, dl
  000ec	74 19		 je	 SHORT $LN82@LoadInt_e@3
  000ee	8a 40 0f	 mov	 al, BYTE PTR [eax+15]
  000f1	32 d1		 xor	 dl, cl
  000f3	88 55 fa	 mov	 BYTE PTR __k$[ebp+14], dl
  000f6	84 c0		 test	 al, al
  000f8	74 07		 je	 SHORT $LN81@LoadInt_e@3
  000fa	34 ea		 xor	 al, -22			; ffffffeaH
  000fc	88 45 fb	 mov	 BYTE PTR __k$[ebp+15], al
  000ff	eb 55		 jmp	 SHORT $LN1@LoadInt_e@3
$LN81@LoadInt_e@3:
  00101	c6 45 fb ea	 mov	 BYTE PTR __k$[ebp+15], -22 ; ffffffeaH
  00105	eb 4f		 jmp	 SHORT $LN1@LoadInt_e@3
$LN82@LoadInt_e@3:
  00107	88 4d fa	 mov	 BYTE PTR __k$[ebp+14], cl
  0010a	eb 4a		 jmp	 SHORT $LN1@LoadInt_e@3
$LN83@LoadInt_e@3:
  0010c	c6 45 f9 ec	 mov	 BYTE PTR __k$[ebp+13], -20 ; ffffffecH
  00110	eb 44		 jmp	 SHORT $LN1@LoadInt_e@3
$LN84@LoadInt_e@3:
  00112	c6 45 f8 ed	 mov	 BYTE PTR __k$[ebp+12], -19 ; ffffffedH
  00116	eb 3e		 jmp	 SHORT $LN1@LoadInt_e@3
$LN86@LoadInt_e@3:
  00118	88 4d f6	 mov	 BYTE PTR __k$[ebp+10], cl
  0011b	eb 39		 jmp	 SHORT $LN1@LoadInt_e@3
$LN87@LoadInt_e@3:
  0011d	c6 45 f5 ec	 mov	 BYTE PTR __k$[ebp+9], -20 ; ffffffecH
  00121	eb 33		 jmp	 SHORT $LN1@LoadInt_e@3
$LN88@LoadInt_e@3:
  00123	c6 45 f4 ed	 mov	 BYTE PTR __k$[ebp+8], -19 ; ffffffedH
  00127	eb 2d		 jmp	 SHORT $LN1@LoadInt_e@3
$LN89@LoadInt_e@3:
  00129	c6 45 f3 ea	 mov	 BYTE PTR __k$[ebp+7], -22 ; ffffffeaH
  0012d	eb 27		 jmp	 SHORT $LN1@LoadInt_e@3
$LN90@LoadInt_e@3:
  0012f	88 4d f2	 mov	 BYTE PTR __k$[ebp+6], cl
  00132	eb 22		 jmp	 SHORT $LN1@LoadInt_e@3
$LN91@LoadInt_e@3:
  00134	c6 45 f1 ec	 mov	 BYTE PTR __k$[ebp+5], -20 ; ffffffecH
  00138	eb 1c		 jmp	 SHORT $LN1@LoadInt_e@3
$LN92@LoadInt_e@3:
  0013a	c6 45 f0 ed	 mov	 BYTE PTR __k$[ebp+4], -19 ; ffffffedH
  0013e	eb 16		 jmp	 SHORT $LN1@LoadInt_e@3
$LN93@LoadInt_e@3:
  00140	c6 45 ef ea	 mov	 BYTE PTR __k$[ebp+3], -22 ; ffffffeaH
  00144	eb 10		 jmp	 SHORT $LN1@LoadInt_e@3
$LN94@LoadInt_e@3:
  00146	c6 45 ee eb	 mov	 BYTE PTR __k$[ebp+2], -21 ; ffffffebH
  0014a	eb 0a		 jmp	 SHORT $LN1@LoadInt_e@3
$LN95@LoadInt_e@3:
  0014c	c6 45 ed ec	 mov	 BYTE PTR __k$[ebp+1], -20 ; ffffffecH
  00150	eb 04		 jmp	 SHORT $LN1@LoadInt_e@3
$LN96@LoadInt_e@3:
  00152	c6 45 ec ed	 mov	 BYTE PTR __k$[ebp], -19	; ffffffedH
$LN1@LoadInt_e@3:
  00156	6a 02		 push	 2
  00158	8d 45 ec	 lea	 eax, DWORD PTR __k$[ebp]
  0015b	c6 45 f7 00	 mov	 BYTE PTR __k$[ebp+11], 0
  0015f	5a		 pop	 edx
$LL104@LoadInt_e@3:
  00160	81 30 ed ec eb
	ea		 xor	 DWORD PTR [eax], -353637139 ; eaebecedH
  00166	83 c0 04	 add	 eax, 4
  00169	4a		 dec	 edx
  0016a	75 f4		 jne	 SHORT $LL104@LoadInt_e@3
  0016c	6a 08		 push	 8
  0016e	58		 pop	 eax
$LL101@LoadInt_e@3:
  0016f	8b c8		 mov	 ecx, eax
  00171	81 e1 03 00 00
	80		 and	 ecx, -2147483645	; 80000003H
  00177	79 05		 jns	 SHORT $LN111@LoadInt_e@3
  00179	49		 dec	 ecx
  0017a	83 c9 fc	 or	 ecx, -4			; fffffffcH
  0017d	41		 inc	 ecx
$LN111@LoadInt_e@3:
  0017e	b2 ed		 mov	 dl, -19			; ffffffedH
  00180	2a d1		 sub	 dl, cl
  00182	30 54 05 ec	 xor	 BYTE PTR __k$[ebp+eax], dl
  00186	40		 inc	 eax
  00187	83 f8 0b	 cmp	 eax, 11			; 0000000bH
  0018a	7c e3		 jl	 SHORT $LL101@LoadInt_e@3

; 120  : 		return LoadInt(_k, i);

  0018c	ff 75 0c	 push	 DWORD PTR _i$[ebp]
  0018f	8d 45 ec	 lea	 eax, DWORD PTR __k$[ebp]
  00192	50		 push	 eax
  00193	8b ce		 mov	 ecx, esi
  00195	ff 15 00 00 00
	00		 call	 DWORD PTR __imp_?LoadInt@ioINILoader@@QAEHPBDH@Z

; 121  : 	}

  0019b	8b 4d fc	 mov	 ecx, DWORD PTR __$ArrayPad$[ebp]
  0019e	33 cd		 xor	 ecx, ebp
  001a0	5e		 pop	 esi
  001a1	e8 00 00 00 00	 call	 @__security_check_cookie@4
  001a6	c9		 leave
  001a7	c2 08 00	 ret	 8
??$LoadInt_e@$0M@@ioINILoader@@QAEHAAY0M@$$CBDH@Z ENDP	; ioINILoader::LoadInt_e<12>
_TEXT	ENDS
PUBLIC	__$ArrayPad$
PUBLIC	??$LoadInt_e@$0N@@ioINILoader@@QAEHAAY0N@$$CBDH@Z ; ioINILoader::LoadInt_e<13>
; Function compile flags: /Ogsp
;	COMDAT ??$LoadInt_e@$0N@@ioINILoader@@QAEHAAY0N@$$CBDH@Z
_TEXT	SEGMENT
__k$ = -24						; size = 13
__$ArrayPad$ = -4					; size = 4
_k$ = 8							; size = 4
_i$ = 12						; size = 4
??$LoadInt_e@$0N@@ioINILoader@@QAEHAAY0N@$$CBDH@Z PROC	; ioINILoader::LoadInt_e<13>, COMDAT
; _this$ = ecx

; 118  : 	{

  00000	55		 push	 ebp
  00001	8b ec		 mov	 ebp, esp
  00003	83 ec 18	 sub	 esp, 24			; 00000018H
  00006	a1 00 00 00 00	 mov	 eax, DWORD PTR ___security_cookie
  0000b	33 c5		 xor	 eax, ebp
  0000d	89 45 fc	 mov	 DWORD PTR __$ArrayPad$[ebp], eax
  00010	8b 45 08	 mov	 eax, DWORD PTR _k$[ebp]

; 119  : 		_ENCSTR(k, _k);

  00013	8a 10		 mov	 dl, BYTE PTR [eax]
  00015	56		 push	 esi
  00016	8b f1		 mov	 esi, ecx
  00018	84 d2		 test	 dl, dl
  0001a	0f 84 4d 01 00
	00		 je	 $LN96@LoadInt_e@4
  00020	80 f2 ed	 xor	 dl, -19			; ffffffedH
  00023	88 55 e8	 mov	 BYTE PTR __k$[ebp], dl
  00026	8a 50 01	 mov	 dl, BYTE PTR [eax+1]
  00029	84 d2		 test	 dl, dl
  0002b	0f 84 36 01 00
	00		 je	 $LN95@LoadInt_e@4
  00031	b1 ec		 mov	 cl, -20			; ffffffecH
  00033	32 d1		 xor	 dl, cl
  00035	88 55 e9	 mov	 BYTE PTR __k$[ebp+1], dl
  00038	8a 50 02	 mov	 dl, BYTE PTR [eax+2]
  0003b	84 d2		 test	 dl, dl
  0003d	0f 84 1e 01 00
	00		 je	 $LN94@LoadInt_e@4
  00043	80 f2 eb	 xor	 dl, -21			; ffffffebH
  00046	88 55 ea	 mov	 BYTE PTR __k$[ebp+2], dl
  00049	8a 50 03	 mov	 dl, BYTE PTR [eax+3]
  0004c	84 d2		 test	 dl, dl
  0004e	0f 84 07 01 00
	00		 je	 $LN93@LoadInt_e@4
  00054	80 f2 ea	 xor	 dl, -22			; ffffffeaH
  00057	88 55 eb	 mov	 BYTE PTR __k$[ebp+3], dl
  0005a	8a 50 04	 mov	 dl, BYTE PTR [eax+4]
  0005d	84 d2		 test	 dl, dl
  0005f	0f 84 f0 00 00
	00		 je	 $LN92@LoadInt_e@4
  00065	80 f2 ed	 xor	 dl, -19			; ffffffedH
  00068	88 55 ec	 mov	 BYTE PTR __k$[ebp+4], dl
  0006b	8a 50 05	 mov	 dl, BYTE PTR [eax+5]
  0006e	84 d2		 test	 dl, dl
  00070	0f 84 da 00 00
	00		 je	 $LN91@LoadInt_e@4
  00076	32 d1		 xor	 dl, cl
  00078	88 55 ed	 mov	 BYTE PTR __k$[ebp+5], dl
  0007b	8a 50 06	 mov	 dl, BYTE PTR [eax+6]
  0007e	84 d2		 test	 dl, dl
  00080	0f 84 c4 00 00
	00		 je	 $LN90@LoadInt_e@4
  00086	80 f2 eb	 xor	 dl, -21			; ffffffebH
  00089	88 55 ee	 mov	 BYTE PTR __k$[ebp+6], dl
  0008c	8a 50 07	 mov	 dl, BYTE PTR [eax+7]
  0008f	84 d2		 test	 dl, dl
  00091	0f 84 ad 00 00
	00		 je	 $LN89@LoadInt_e@4
  00097	80 f2 ea	 xor	 dl, -22			; ffffffeaH
  0009a	88 55 ef	 mov	 BYTE PTR __k$[ebp+7], dl
  0009d	8a 50 08	 mov	 dl, BYTE PTR [eax+8]
  000a0	84 d2		 test	 dl, dl
  000a2	0f 84 96 00 00
	00		 je	 $LN88@LoadInt_e@4
  000a8	80 f2 ed	 xor	 dl, -19			; ffffffedH
  000ab	88 55 f0	 mov	 BYTE PTR __k$[ebp+8], dl
  000ae	8a 50 09	 mov	 dl, BYTE PTR [eax+9]
  000b1	84 d2		 test	 dl, dl
  000b3	0f 84 80 00 00
	00		 je	 $LN87@LoadInt_e@4
  000b9	32 d1		 xor	 dl, cl
  000bb	88 55 f1	 mov	 BYTE PTR __k$[ebp+9], dl
  000be	8a 50 0a	 mov	 dl, BYTE PTR [eax+10]
  000c1	84 d2		 test	 dl, dl
  000c3	74 6e		 je	 SHORT $LN86@LoadInt_e@4
  000c5	80 f2 eb	 xor	 dl, -21			; ffffffebH
  000c8	88 55 f2	 mov	 BYTE PTR __k$[ebp+10], dl
  000cb	8a 50 0b	 mov	 dl, BYTE PTR [eax+11]
  000ce	84 d2		 test	 dl, dl
  000d0	74 5b		 je	 SHORT $LN85@LoadInt_e@4
  000d2	80 f2 ea	 xor	 dl, -22			; ffffffeaH
  000d5	80 78 0c 00	 cmp	 BYTE PTR [eax+12], 0
  000d9	88 55 f3	 mov	 BYTE PTR __k$[ebp+11], dl
  000dc	0f 84 8f 00 00
	00		 je	 $LN1@LoadInt_e@4
  000e2	8a 50 0d	 mov	 dl, BYTE PTR [eax+13]
  000e5	84 d2		 test	 dl, dl
  000e7	74 3f		 je	 SHORT $LN83@LoadInt_e@4
  000e9	32 d1		 xor	 dl, cl
  000eb	88 55 f5	 mov	 BYTE PTR __k$[ebp+13], dl
  000ee	8a 50 0e	 mov	 dl, BYTE PTR [eax+14]
  000f1	84 d2		 test	 dl, dl
  000f3	74 2d		 je	 SHORT $LN82@LoadInt_e@4
  000f5	80 f2 eb	 xor	 dl, -21			; ffffffebH
  000f8	88 55 f6	 mov	 BYTE PTR __k$[ebp+14], dl
  000fb	8a 50 0f	 mov	 dl, BYTE PTR [eax+15]
  000fe	84 d2		 test	 dl, dl
  00100	74 1a		 je	 SHORT $LN81@LoadInt_e@4
  00102	8a 40 10	 mov	 al, BYTE PTR [eax+16]
  00105	80 f2 ea	 xor	 dl, -22			; ffffffeaH
  00108	88 55 f7	 mov	 BYTE PTR __k$[ebp+15], dl
  0010b	84 c0		 test	 al, al
  0010d	74 07		 je	 SHORT $LN80@LoadInt_e@4
  0010f	34 ed		 xor	 al, -19			; ffffffedH
  00111	88 45 f8	 mov	 BYTE PTR __k$[ebp+16], al
  00114	eb 5b		 jmp	 SHORT $LN1@LoadInt_e@4
$LN80@LoadInt_e@4:
  00116	c6 45 f8 ed	 mov	 BYTE PTR __k$[ebp+16], -19 ; ffffffedH
  0011a	eb 55		 jmp	 SHORT $LN1@LoadInt_e@4
$LN81@LoadInt_e@4:
  0011c	c6 45 f7 ea	 mov	 BYTE PTR __k$[ebp+15], -22 ; ffffffeaH
  00120	eb 4f		 jmp	 SHORT $LN1@LoadInt_e@4
$LN82@LoadInt_e@4:
  00122	c6 45 f6 eb	 mov	 BYTE PTR __k$[ebp+14], -21 ; ffffffebH
  00126	eb 49		 jmp	 SHORT $LN1@LoadInt_e@4
$LN83@LoadInt_e@4:
  00128	88 4d f5	 mov	 BYTE PTR __k$[ebp+13], cl
  0012b	eb 44		 jmp	 SHORT $LN1@LoadInt_e@4
$LN85@LoadInt_e@4:
  0012d	c6 45 f3 ea	 mov	 BYTE PTR __k$[ebp+11], -22 ; ffffffeaH
  00131	eb 3e		 jmp	 SHORT $LN1@LoadInt_e@4
$LN86@LoadInt_e@4:
  00133	c6 45 f2 eb	 mov	 BYTE PTR __k$[ebp+10], -21 ; ffffffebH
  00137	eb 38		 jmp	 SHORT $LN1@LoadInt_e@4
$LN87@LoadInt_e@4:
  00139	88 4d f1	 mov	 BYTE PTR __k$[ebp+9], cl
  0013c	eb 33		 jmp	 SHORT $LN1@LoadInt_e@4
$LN88@LoadInt_e@4:
  0013e	c6 45 f0 ed	 mov	 BYTE PTR __k$[ebp+8], -19 ; ffffffedH
  00142	eb 2d		 jmp	 SHORT $LN1@LoadInt_e@4
$LN89@LoadInt_e@4:
  00144	c6 45 ef ea	 mov	 BYTE PTR __k$[ebp+7], -22 ; ffffffeaH
  00148	eb 27		 jmp	 SHORT $LN1@LoadInt_e@4
$LN90@LoadInt_e@4:
  0014a	c6 45 ee eb	 mov	 BYTE PTR __k$[ebp+6], -21 ; ffffffebH
  0014e	eb 21		 jmp	 SHORT $LN1@LoadInt_e@4
$LN91@LoadInt_e@4:
  00150	88 4d ed	 mov	 BYTE PTR __k$[ebp+5], cl
  00153	eb 1c		 jmp	 SHORT $LN1@LoadInt_e@4
$LN92@LoadInt_e@4:
  00155	c6 45 ec ed	 mov	 BYTE PTR __k$[ebp+4], -19 ; ffffffedH
  00159	eb 16		 jmp	 SHORT $LN1@LoadInt_e@4
$LN93@LoadInt_e@4:
  0015b	c6 45 eb ea	 mov	 BYTE PTR __k$[ebp+3], -22 ; ffffffeaH
  0015f	eb 10		 jmp	 SHORT $LN1@LoadInt_e@4
$LN94@LoadInt_e@4:
  00161	c6 45 ea eb	 mov	 BYTE PTR __k$[ebp+2], -21 ; ffffffebH
  00165	eb 0a		 jmp	 SHORT $LN1@LoadInt_e@4
$LN95@LoadInt_e@4:
  00167	c6 45 e9 ec	 mov	 BYTE PTR __k$[ebp+1], -20 ; ffffffecH
  0016b	eb 04		 jmp	 SHORT $LN1@LoadInt_e@4
$LN96@LoadInt_e@4:
  0016d	c6 45 e8 ed	 mov	 BYTE PTR __k$[ebp], -19	; ffffffedH
$LN1@LoadInt_e@4:
  00171	6a 03		 push	 3
  00173	8d 45 e8	 lea	 eax, DWORD PTR __k$[ebp]
  00176	c6 45 f4 00	 mov	 BYTE PTR __k$[ebp+12], 0
  0017a	5a		 pop	 edx
$LL104@LoadInt_e@4:
  0017b	81 30 ed ec eb
	ea		 xor	 DWORD PTR [eax], -353637139 ; eaebecedH
  00181	83 c0 04	 add	 eax, 4
  00184	4a		 dec	 edx
  00185	75 f4		 jne	 SHORT $LL104@LoadInt_e@4

; 120  : 		return LoadInt(_k, i);

  00187	ff 75 0c	 push	 DWORD PTR _i$[ebp]
  0018a	8d 45 e8	 lea	 eax, DWORD PTR __k$[ebp]
  0018d	50		 push	 eax
  0018e	8b ce		 mov	 ecx, esi
  00190	ff 15 00 00 00
	00		 call	 DWORD PTR __imp_?LoadInt@ioINILoader@@QAEHPBDH@Z

; 121  : 	}

  00196	8b 4d fc	 mov	 ecx, DWORD PTR __$ArrayPad$[ebp]
  00199	33 cd		 xor	 ecx, ebp
  0019b	5e		 pop	 esi
  0019c	e8 00 00 00 00	 call	 @__security_check_cookie@4
  001a1	c9		 leave
  001a2	c2 08 00	 ret	 8
??$LoadInt_e@$0N@@ioINILoader@@QAEHAAY0N@$$CBDH@Z ENDP	; ioINILoader::LoadInt_e<13>
_TEXT	ENDS
PUBLIC	?construct@?$allocator@H@std@@QAEXPAHABH@Z	; std::allocator<int>::construct
; Function compile flags: /Ogsp
; File c:\program files (x86)\microsoft visual studio 10.0\vc\include\xmemory
;	COMDAT ?construct@?$allocator@H@std@@QAEXPAHABH@Z
_TEXT	SEGMENT
__Ptr$ = 8						; size = 4
__Val$ = 12						; size = 4
?construct@?$allocator@H@std@@QAEXPAHABH@Z PROC		; std::allocator<int>::construct, COMDAT
; _this$ = ecx

; 196  : 		{	// construct object at _Ptr with value _Val

  00000	55		 push	 ebp
  00001	8b ec		 mov	 ebp, esp

; 197  : 		_Construct(_Ptr, _Val);

  00003	8b 45 08	 mov	 eax, DWORD PTR __Ptr$[ebp]
  00006	85 c0		 test	 eax, eax
  00008	74 07		 je	 SHORT $LN5@construct
  0000a	8b 4d 0c	 mov	 ecx, DWORD PTR __Val$[ebp]
  0000d	8b 09		 mov	 ecx, DWORD PTR [ecx]
  0000f	89 08		 mov	 DWORD PTR [eax], ecx
$LN5@construct:

; 198  : 		}

  00011	5d		 pop	 ebp
  00012	c2 08 00	 ret	 8
?construct@?$allocator@H@std@@QAEXPAHABH@Z ENDP		; std::allocator<int>::construct
_TEXT	ENDS
PUBLIC	??$encodeString@$0CE@@ioINILoader_e@@AAEPADAAY0CE@$$CBDPAD@Z ; ioINILoader_e::encodeString<36>
; Function compile flags: /Ogsp
; File d:\lost saga for developer\youtube\tutorial\source\src\io3dengine\ioiniloader.h
;	COMDAT ??$encodeString@$0CE@@ioINILoader_e@@AAEPADAAY0CE@$$CBDPAD@Z
_TEXT	SEGMENT
_s$ = 8							; size = 4
_e$ = 12						; size = 4
??$encodeString@$0CE@@ioINILoader_e@@AAEPADAAY0CE@$$CBDPAD@Z PROC ; ioINILoader_e::encodeString<36>, COMDAT
; _this$ = ecx

; 215  : 	{

  00000	55		 push	 ebp
  00001	8b ec		 mov	 ebp, esp

; 216  : 		__ENCSTR(s, e);

  00003	8b 4d 08	 mov	 ecx, DWORD PTR _s$[ebp]
  00006	8a 11		 mov	 dl, BYTE PTR [ecx]
  00008	8b 45 0c	 mov	 eax, DWORD PTR _e$[ebp]
  0000b	53		 push	 ebx
  0000c	84 d2		 test	 dl, dl
  0000e	0f 84 6a 04 00
	00		 je	 $LN96@encodeStri
  00014	80 f2 ed	 xor	 dl, -19			; ffffffedH
  00017	88 10		 mov	 BYTE PTR [eax], dl
  00019	8a 51 01	 mov	 dl, BYTE PTR [ecx+1]
  0001c	84 d2		 test	 dl, dl
  0001e	0f 84 54 04 00
	00		 je	 $LN95@encodeStri
  00024	80 f2 ec	 xor	 dl, -20			; ffffffecH
  00027	88 50 01	 mov	 BYTE PTR [eax+1], dl
  0002a	8a 51 02	 mov	 dl, BYTE PTR [ecx+2]
  0002d	84 d2		 test	 dl, dl
  0002f	0f 84 3d 04 00
	00		 je	 $LN94@encodeStri
  00035	b3 eb		 mov	 bl, -21			; ffffffebH
  00037	32 d3		 xor	 dl, bl
  00039	88 50 02	 mov	 BYTE PTR [eax+2], dl
  0003c	8a 51 03	 mov	 dl, BYTE PTR [ecx+3]
  0003f	84 d2		 test	 dl, dl
  00041	0f 84 25 04 00
	00		 je	 $LN93@encodeStri
  00047	80 f2 ea	 xor	 dl, -22			; ffffffeaH
  0004a	88 50 03	 mov	 BYTE PTR [eax+3], dl
  0004d	8a 51 04	 mov	 dl, BYTE PTR [ecx+4]
  00050	84 d2		 test	 dl, dl
  00052	0f 84 0e 04 00
	00		 je	 $LN92@encodeStri
  00058	80 f2 ed	 xor	 dl, -19			; ffffffedH
  0005b	88 50 04	 mov	 BYTE PTR [eax+4], dl
  0005e	8a 51 05	 mov	 dl, BYTE PTR [ecx+5]
  00061	84 d2		 test	 dl, dl
  00063	0f 84 f7 03 00
	00		 je	 $LN91@encodeStri
  00069	80 f2 ec	 xor	 dl, -20			; ffffffecH
  0006c	88 50 05	 mov	 BYTE PTR [eax+5], dl
  0006f	8a 51 06	 mov	 dl, BYTE PTR [ecx+6]
  00072	84 d2		 test	 dl, dl
  00074	0f 84 e1 03 00
	00		 je	 $LN90@encodeStri
  0007a	32 d3		 xor	 dl, bl
  0007c	88 50 06	 mov	 BYTE PTR [eax+6], dl
  0007f	8a 51 07	 mov	 dl, BYTE PTR [ecx+7]
  00082	84 d2		 test	 dl, dl
  00084	0f 84 cb 03 00
	00		 je	 $LN89@encodeStri
  0008a	80 f2 ea	 xor	 dl, -22			; ffffffeaH
  0008d	88 50 07	 mov	 BYTE PTR [eax+7], dl
  00090	8a 51 08	 mov	 dl, BYTE PTR [ecx+8]
  00093	84 d2		 test	 dl, dl
  00095	0f 84 b4 03 00
	00		 je	 $LN88@encodeStri
  0009b	80 f2 ed	 xor	 dl, -19			; ffffffedH
  0009e	88 50 08	 mov	 BYTE PTR [eax+8], dl
  000a1	8a 51 09	 mov	 dl, BYTE PTR [ecx+9]
  000a4	84 d2		 test	 dl, dl
  000a6	0f 84 9d 03 00
	00		 je	 $LN87@encodeStri
  000ac	80 f2 ec	 xor	 dl, -20			; ffffffecH
  000af	88 50 09	 mov	 BYTE PTR [eax+9], dl
  000b2	8a 51 0a	 mov	 dl, BYTE PTR [ecx+10]
  000b5	84 d2		 test	 dl, dl
  000b7	0f 84 87 03 00
	00		 je	 $LN86@encodeStri
  000bd	32 d3		 xor	 dl, bl
  000bf	88 50 0a	 mov	 BYTE PTR [eax+10], dl
  000c2	8a 51 0b	 mov	 dl, BYTE PTR [ecx+11]
  000c5	84 d2		 test	 dl, dl
  000c7	0f 84 71 03 00
	00		 je	 $LN85@encodeStri
  000cd	80 f2 ea	 xor	 dl, -22			; ffffffeaH
  000d0	88 50 0b	 mov	 BYTE PTR [eax+11], dl
  000d3	8a 51 0c	 mov	 dl, BYTE PTR [ecx+12]
  000d6	84 d2		 test	 dl, dl
  000d8	0f 84 5a 03 00
	00		 je	 $LN84@encodeStri
  000de	80 f2 ed	 xor	 dl, -19			; ffffffedH
  000e1	88 50 0c	 mov	 BYTE PTR [eax+12], dl
  000e4	8a 51 0d	 mov	 dl, BYTE PTR [ecx+13]
  000e7	84 d2		 test	 dl, dl
  000e9	0f 84 43 03 00
	00		 je	 $LN83@encodeStri
  000ef	80 f2 ec	 xor	 dl, -20			; ffffffecH
  000f2	88 50 0d	 mov	 BYTE PTR [eax+13], dl
  000f5	8a 51 0e	 mov	 dl, BYTE PTR [ecx+14]
  000f8	84 d2		 test	 dl, dl
  000fa	0f 84 2d 03 00
	00		 je	 $LN82@encodeStri
  00100	32 d3		 xor	 dl, bl
  00102	88 50 0e	 mov	 BYTE PTR [eax+14], dl
  00105	8a 51 0f	 mov	 dl, BYTE PTR [ecx+15]
  00108	84 d2		 test	 dl, dl
  0010a	0f 84 17 03 00
	00		 je	 $LN81@encodeStri
  00110	80 f2 ea	 xor	 dl, -22			; ffffffeaH
  00113	88 50 0f	 mov	 BYTE PTR [eax+15], dl
  00116	8a 51 10	 mov	 dl, BYTE PTR [ecx+16]
  00119	84 d2		 test	 dl, dl
  0011b	0f 84 00 03 00
	00		 je	 $LN80@encodeStri
  00121	80 f2 ed	 xor	 dl, -19			; ffffffedH
  00124	88 50 10	 mov	 BYTE PTR [eax+16], dl
  00127	8a 51 11	 mov	 dl, BYTE PTR [ecx+17]
  0012a	84 d2		 test	 dl, dl
  0012c	0f 84 e9 02 00
	00		 je	 $LN79@encodeStri
  00132	80 f2 ec	 xor	 dl, -20			; ffffffecH
  00135	88 50 11	 mov	 BYTE PTR [eax+17], dl
  00138	8a 51 12	 mov	 dl, BYTE PTR [ecx+18]
  0013b	84 d2		 test	 dl, dl
  0013d	0f 84 d3 02 00
	00		 je	 $LN78@encodeStri
  00143	32 d3		 xor	 dl, bl
  00145	88 50 12	 mov	 BYTE PTR [eax+18], dl
  00148	8a 51 13	 mov	 dl, BYTE PTR [ecx+19]
  0014b	84 d2		 test	 dl, dl
  0014d	0f 84 bd 02 00
	00		 je	 $LN77@encodeStri
  00153	80 f2 ea	 xor	 dl, -22			; ffffffeaH
  00156	88 50 13	 mov	 BYTE PTR [eax+19], dl
  00159	8a 51 14	 mov	 dl, BYTE PTR [ecx+20]
  0015c	84 d2		 test	 dl, dl
  0015e	0f 84 a6 02 00
	00		 je	 $LN76@encodeStri
  00164	80 f2 ed	 xor	 dl, -19			; ffffffedH
  00167	88 50 14	 mov	 BYTE PTR [eax+20], dl
  0016a	8a 51 15	 mov	 dl, BYTE PTR [ecx+21]
  0016d	84 d2		 test	 dl, dl
  0016f	0f 84 8f 02 00
	00		 je	 $LN75@encodeStri
  00175	80 f2 ec	 xor	 dl, -20			; ffffffecH
  00178	88 50 15	 mov	 BYTE PTR [eax+21], dl
  0017b	8a 51 16	 mov	 dl, BYTE PTR [ecx+22]
  0017e	84 d2		 test	 dl, dl
  00180	0f 84 79 02 00
	00		 je	 $LN74@encodeStri
  00186	32 d3		 xor	 dl, bl
  00188	88 50 16	 mov	 BYTE PTR [eax+22], dl
  0018b	8a 51 17	 mov	 dl, BYTE PTR [ecx+23]
  0018e	84 d2		 test	 dl, dl
  00190	0f 84 60 02 00
	00		 je	 $LN73@encodeStri
  00196	80 f2 ea	 xor	 dl, -22			; ffffffeaH
  00199	88 50 17	 mov	 BYTE PTR [eax+23], dl
  0019c	8a 51 18	 mov	 dl, BYTE PTR [ecx+24]
  0019f	84 d2		 test	 dl, dl
  001a1	0f 84 46 02 00
	00		 je	 $LN72@encodeStri
  001a7	80 f2 ed	 xor	 dl, -19			; ffffffedH
  001aa	88 50 18	 mov	 BYTE PTR [eax+24], dl
  001ad	8a 51 19	 mov	 dl, BYTE PTR [ecx+25]
  001b0	84 d2		 test	 dl, dl
  001b2	0f 84 2c 02 00
	00		 je	 $LN71@encodeStri
  001b8	80 f2 ec	 xor	 dl, -20			; ffffffecH
  001bb	88 50 19	 mov	 BYTE PTR [eax+25], dl
  001be	8a 51 1a	 mov	 dl, BYTE PTR [ecx+26]
  001c1	84 d2		 test	 dl, dl
  001c3	0f 84 13 02 00
	00		 je	 $LN70@encodeStri
  001c9	32 d3		 xor	 dl, bl
  001cb	88 50 1a	 mov	 BYTE PTR [eax+26], dl
  001ce	8a 51 1b	 mov	 dl, BYTE PTR [ecx+27]
  001d1	84 d2		 test	 dl, dl
  001d3	0f 84 fa 01 00
	00		 je	 $LN69@encodeStri
  001d9	80 f2 ea	 xor	 dl, -22			; ffffffeaH
  001dc	88 50 1b	 mov	 BYTE PTR [eax+27], dl
  001df	8a 51 1c	 mov	 dl, BYTE PTR [ecx+28]
  001e2	84 d2		 test	 dl, dl
  001e4	0f 84 e0 01 00
	00		 je	 $LN68@encodeStri
  001ea	80 f2 ed	 xor	 dl, -19			; ffffffedH
  001ed	88 50 1c	 mov	 BYTE PTR [eax+28], dl
  001f0	8a 51 1d	 mov	 dl, BYTE PTR [ecx+29]
  001f3	84 d2		 test	 dl, dl
  001f5	0f 84 c6 01 00
	00		 je	 $LN67@encodeStri
  001fb	80 f2 ec	 xor	 dl, -20			; ffffffecH
  001fe	88 50 1d	 mov	 BYTE PTR [eax+29], dl
  00201	8a 51 1e	 mov	 dl, BYTE PTR [ecx+30]
  00204	84 d2		 test	 dl, dl
  00206	0f 84 ad 01 00
	00		 je	 $LN66@encodeStri
  0020c	32 d3		 xor	 dl, bl
  0020e	88 50 1e	 mov	 BYTE PTR [eax+30], dl
  00211	8a 51 1f	 mov	 dl, BYTE PTR [ecx+31]
  00214	84 d2		 test	 dl, dl
  00216	0f 84 94 01 00
	00		 je	 $LN65@encodeStri
  0021c	80 f2 ea	 xor	 dl, -22			; ffffffeaH
  0021f	88 50 1f	 mov	 BYTE PTR [eax+31], dl
  00222	8a 51 20	 mov	 dl, BYTE PTR [ecx+32]
  00225	84 d2		 test	 dl, dl
  00227	0f 84 7a 01 00
	00		 je	 $LN64@encodeStri
  0022d	80 f2 ed	 xor	 dl, -19			; ffffffedH
  00230	88 50 20	 mov	 BYTE PTR [eax+32], dl
  00233	8a 51 21	 mov	 dl, BYTE PTR [ecx+33]
  00236	84 d2		 test	 dl, dl
  00238	0f 84 60 01 00
	00		 je	 $LN63@encodeStri
  0023e	80 f2 ec	 xor	 dl, -20			; ffffffecH
  00241	88 50 21	 mov	 BYTE PTR [eax+33], dl
  00244	8a 51 22	 mov	 dl, BYTE PTR [ecx+34]
  00247	84 d2		 test	 dl, dl
  00249	0f 84 47 01 00
	00		 je	 $LN62@encodeStri
  0024f	32 d3		 xor	 dl, bl
  00251	88 50 22	 mov	 BYTE PTR [eax+34], dl
  00254	8a 51 23	 mov	 dl, BYTE PTR [ecx+35]
  00257	84 d2		 test	 dl, dl
  00259	0f 84 2e 01 00
	00		 je	 $LN61@encodeStri
  0025f	80 f2 ea	 xor	 dl, -22			; ffffffeaH
  00262	88 50 23	 mov	 BYTE PTR [eax+35], dl
  00265	8a 51 24	 mov	 dl, BYTE PTR [ecx+36]
  00268	84 d2		 test	 dl, dl
  0026a	0f 84 14 01 00
	00		 je	 $LN60@encodeStri
  00270	80 f2 ed	 xor	 dl, -19			; ffffffedH
  00273	88 50 24	 mov	 BYTE PTR [eax+36], dl
  00276	8a 51 25	 mov	 dl, BYTE PTR [ecx+37]
  00279	84 d2		 test	 dl, dl
  0027b	0f 84 fa 00 00
	00		 je	 $LN59@encodeStri
  00281	80 f2 ec	 xor	 dl, -20			; ffffffecH
  00284	88 50 25	 mov	 BYTE PTR [eax+37], dl
  00287	8a 51 26	 mov	 dl, BYTE PTR [ecx+38]
  0028a	84 d2		 test	 dl, dl
  0028c	0f 84 e1 00 00
	00		 je	 $LN58@encodeStri
  00292	32 d3		 xor	 dl, bl
  00294	88 50 26	 mov	 BYTE PTR [eax+38], dl
  00297	8a 51 27	 mov	 dl, BYTE PTR [ecx+39]
  0029a	84 d2		 test	 dl, dl
  0029c	0f 84 c8 00 00
	00		 je	 $LN57@encodeStri
  002a2	80 f2 ea	 xor	 dl, -22			; ffffffeaH
  002a5	88 50 27	 mov	 BYTE PTR [eax+39], dl
  002a8	8a 51 28	 mov	 dl, BYTE PTR [ecx+40]
  002ab	84 d2		 test	 dl, dl
  002ad	0f 84 ae 00 00
	00		 je	 $LN56@encodeStri
  002b3	80 f2 ed	 xor	 dl, -19			; ffffffedH
  002b6	88 50 28	 mov	 BYTE PTR [eax+40], dl
  002b9	8a 51 29	 mov	 dl, BYTE PTR [ecx+41]
  002bc	84 d2		 test	 dl, dl
  002be	0f 84 94 00 00
	00		 je	 $LN55@encodeStri
  002c4	80 f2 ec	 xor	 dl, -20			; ffffffecH
  002c7	88 50 29	 mov	 BYTE PTR [eax+41], dl
  002ca	8a 51 2a	 mov	 dl, BYTE PTR [ecx+42]
  002cd	84 d2		 test	 dl, dl
  002cf	74 7f		 je	 SHORT $LN54@encodeStri
  002d1	32 d3		 xor	 dl, bl
  002d3	88 50 2a	 mov	 BYTE PTR [eax+42], dl
  002d6	8a 51 2b	 mov	 dl, BYTE PTR [ecx+43]
  002d9	84 d2		 test	 dl, dl
  002db	74 6a		 je	 SHORT $LN53@encodeStri
  002dd	80 f2 ea	 xor	 dl, -22			; ffffffeaH
  002e0	88 50 2b	 mov	 BYTE PTR [eax+43], dl
  002e3	8a 51 2c	 mov	 dl, BYTE PTR [ecx+44]
  002e6	84 d2		 test	 dl, dl
  002e8	74 54		 je	 SHORT $LN52@encodeStri
  002ea	80 f2 ed	 xor	 dl, -19			; ffffffedH
  002ed	88 50 2c	 mov	 BYTE PTR [eax+44], dl
  002f0	8a 51 2d	 mov	 dl, BYTE PTR [ecx+45]
  002f3	84 d2		 test	 dl, dl
  002f5	74 3e		 je	 SHORT $LN51@encodeStri
  002f7	80 f2 ec	 xor	 dl, -20			; ffffffecH
  002fa	88 50 2d	 mov	 BYTE PTR [eax+45], dl
  002fd	8a 51 2e	 mov	 dl, BYTE PTR [ecx+46]
  00300	84 d2		 test	 dl, dl
  00302	74 29		 je	 SHORT $LN50@encodeStri
  00304	32 d3		 xor	 dl, bl
  00306	88 50 2e	 mov	 BYTE PTR [eax+46], dl
  00309	8a 51 2f	 mov	 dl, BYTE PTR [ecx+47]
  0030c	84 d2		 test	 dl, dl
  0030e	74 14		 je	 SHORT $LN49@encodeStri
  00310	80 f2 ea	 xor	 dl, -22			; ffffffeaH
  00313	88 50 2f	 mov	 BYTE PTR [eax+47], dl
  00316	8a 49 30	 mov	 cl, BYTE PTR [ecx+48]
  00319	80 f1 ed	 xor	 cl, -19			; ffffffedH
  0031c	88 48 30	 mov	 BYTE PTR [eax+48], cl
  0031f	e9 5d 01 00 00	 jmp	 $LN1@encodeStri
$LN49@encodeStri:
  00324	c6 40 2f ea	 mov	 BYTE PTR [eax+47], -22	; ffffffeaH
  00328	e9 54 01 00 00	 jmp	 $LN1@encodeStri
$LN50@encodeStri:
  0032d	88 58 2e	 mov	 BYTE PTR [eax+46], bl
  00330	e9 4c 01 00 00	 jmp	 $LN1@encodeStri
$LN51@encodeStri:
  00335	c6 40 2d ec	 mov	 BYTE PTR [eax+45], -20	; ffffffecH
  00339	e9 43 01 00 00	 jmp	 $LN1@encodeStri
$LN52@encodeStri:
  0033e	c6 40 2c ed	 mov	 BYTE PTR [eax+44], -19	; ffffffedH
  00342	e9 3a 01 00 00	 jmp	 $LN1@encodeStri
$LN53@encodeStri:
  00347	c6 40 2b ea	 mov	 BYTE PTR [eax+43], -22	; ffffffeaH
  0034b	e9 31 01 00 00	 jmp	 $LN1@encodeStri
$LN54@encodeStri:
  00350	88 58 2a	 mov	 BYTE PTR [eax+42], bl
  00353	e9 29 01 00 00	 jmp	 $LN1@encodeStri
$LN55@encodeStri:
  00358	c6 40 29 ec	 mov	 BYTE PTR [eax+41], -20	; ffffffecH
  0035c	e9 20 01 00 00	 jmp	 $LN1@encodeStri
$LN56@encodeStri:
  00361	c6 40 28 ed	 mov	 BYTE PTR [eax+40], -19	; ffffffedH
  00365	e9 17 01 00 00	 jmp	 $LN1@encodeStri
$LN57@encodeStri:
  0036a	c6 40 27 ea	 mov	 BYTE PTR [eax+39], -22	; ffffffeaH
  0036e	e9 0e 01 00 00	 jmp	 $LN1@encodeStri
$LN58@encodeStri:
  00373	88 58 26	 mov	 BYTE PTR [eax+38], bl
  00376	e9 06 01 00 00	 jmp	 $LN1@encodeStri
$LN59@encodeStri:
  0037b	c6 40 25 ec	 mov	 BYTE PTR [eax+37], -20	; ffffffecH
  0037f	e9 fd 00 00 00	 jmp	 $LN1@encodeStri
$LN60@encodeStri:
  00384	c6 40 24 ed	 mov	 BYTE PTR [eax+36], -19	; ffffffedH
  00388	e9 f4 00 00 00	 jmp	 $LN1@encodeStri
$LN61@encodeStri:
  0038d	c6 40 23 ea	 mov	 BYTE PTR [eax+35], -22	; ffffffeaH
  00391	e9 eb 00 00 00	 jmp	 $LN1@encodeStri
$LN62@encodeStri:
  00396	88 58 22	 mov	 BYTE PTR [eax+34], bl
  00399	e9 e3 00 00 00	 jmp	 $LN1@encodeStri
$LN63@encodeStri:
  0039e	c6 40 21 ec	 mov	 BYTE PTR [eax+33], -20	; ffffffecH
  003a2	e9 da 00 00 00	 jmp	 $LN1@encodeStri
$LN64@encodeStri:
  003a7	c6 40 20 ed	 mov	 BYTE PTR [eax+32], -19	; ffffffedH
  003ab	e9 d1 00 00 00	 jmp	 $LN1@encodeStri
$LN65@encodeStri:
  003b0	c6 40 1f ea	 mov	 BYTE PTR [eax+31], -22	; ffffffeaH
  003b4	e9 c8 00 00 00	 jmp	 $LN1@encodeStri
$LN66@encodeStri:
  003b9	88 58 1e	 mov	 BYTE PTR [eax+30], bl
  003bc	e9 c0 00 00 00	 jmp	 $LN1@encodeStri
$LN67@encodeStri:
  003c1	c6 40 1d ec	 mov	 BYTE PTR [eax+29], -20	; ffffffecH
  003c5	e9 b7 00 00 00	 jmp	 $LN1@encodeStri
$LN68@encodeStri:
  003ca	c6 40 1c ed	 mov	 BYTE PTR [eax+28], -19	; ffffffedH
  003ce	e9 ae 00 00 00	 jmp	 $LN1@encodeStri
$LN69@encodeStri:
  003d3	c6 40 1b ea	 mov	 BYTE PTR [eax+27], -22	; ffffffeaH
  003d7	e9 a5 00 00 00	 jmp	 $LN1@encodeStri
$LN70@encodeStri:
  003dc	88 58 1a	 mov	 BYTE PTR [eax+26], bl
  003df	e9 9d 00 00 00	 jmp	 $LN1@encodeStri
$LN71@encodeStri:
  003e4	c6 40 19 ec	 mov	 BYTE PTR [eax+25], -20	; ffffffecH
  003e8	e9 94 00 00 00	 jmp	 $LN1@encodeStri
$LN72@encodeStri:
  003ed	c6 40 18 ed	 mov	 BYTE PTR [eax+24], -19	; ffffffedH
  003f1	e9 8b 00 00 00	 jmp	 $LN1@encodeStri
$LN73@encodeStri:
  003f6	c6 40 17 ea	 mov	 BYTE PTR [eax+23], -22	; ffffffeaH
  003fa	e9 82 00 00 00	 jmp	 $LN1@encodeStri
$LN74@encodeStri:
  003ff	88 58 16	 mov	 BYTE PTR [eax+22], bl
  00402	eb 7d		 jmp	 SHORT $LN1@encodeStri
$LN75@encodeStri:
  00404	c6 40 15 ec	 mov	 BYTE PTR [eax+21], -20	; ffffffecH
  00408	eb 77		 jmp	 SHORT $LN1@encodeStri
$LN76@encodeStri:
  0040a	c6 40 14 ed	 mov	 BYTE PTR [eax+20], -19	; ffffffedH
  0040e	eb 71		 jmp	 SHORT $LN1@encodeStri
$LN77@encodeStri:
  00410	c6 40 13 ea	 mov	 BYTE PTR [eax+19], -22	; ffffffeaH
  00414	eb 6b		 jmp	 SHORT $LN1@encodeStri
$LN78@encodeStri:
  00416	88 58 12	 mov	 BYTE PTR [eax+18], bl
  00419	eb 66		 jmp	 SHORT $LN1@encodeStri
$LN79@encodeStri:
  0041b	c6 40 11 ec	 mov	 BYTE PTR [eax+17], -20	; ffffffecH
  0041f	eb 60		 jmp	 SHORT $LN1@encodeStri
$LN80@encodeStri:
  00421	c6 40 10 ed	 mov	 BYTE PTR [eax+16], -19	; ffffffedH
  00425	eb 5a		 jmp	 SHORT $LN1@encodeStri
$LN81@encodeStri:
  00427	c6 40 0f ea	 mov	 BYTE PTR [eax+15], -22	; ffffffeaH
  0042b	eb 54		 jmp	 SHORT $LN1@encodeStri
$LN82@encodeStri:
  0042d	88 58 0e	 mov	 BYTE PTR [eax+14], bl
  00430	eb 4f		 jmp	 SHORT $LN1@encodeStri
$LN83@encodeStri:
  00432	c6 40 0d ec	 mov	 BYTE PTR [eax+13], -20	; ffffffecH
  00436	eb 49		 jmp	 SHORT $LN1@encodeStri
$LN84@encodeStri:
  00438	c6 40 0c ed	 mov	 BYTE PTR [eax+12], -19	; ffffffedH
  0043c	eb 43		 jmp	 SHORT $LN1@encodeStri
$LN85@encodeStri:
  0043e	c6 40 0b ea	 mov	 BYTE PTR [eax+11], -22	; ffffffeaH
  00442	eb 3d		 jmp	 SHORT $LN1@encodeStri
$LN86@encodeStri:
  00444	88 58 0a	 mov	 BYTE PTR [eax+10], bl
  00447	eb 38		 jmp	 SHORT $LN1@encodeStri
$LN87@encodeStri:
  00449	c6 40 09 ec	 mov	 BYTE PTR [eax+9], -20	; ffffffecH
  0044d	eb 32		 jmp	 SHORT $LN1@encodeStri
$LN88@encodeStri:
  0044f	c6 40 08 ed	 mov	 BYTE PTR [eax+8], -19	; ffffffedH
  00453	eb 2c		 jmp	 SHORT $LN1@encodeStri
$LN89@encodeStri:
  00455	c6 40 07 ea	 mov	 BYTE PTR [eax+7], -22	; ffffffeaH
  00459	eb 26		 jmp	 SHORT $LN1@encodeStri
$LN90@encodeStri:
  0045b	88 58 06	 mov	 BYTE PTR [eax+6], bl
  0045e	eb 21		 jmp	 SHORT $LN1@encodeStri
$LN91@encodeStri:
  00460	c6 40 05 ec	 mov	 BYTE PTR [eax+5], -20	; ffffffecH
  00464	eb 1b		 jmp	 SHORT $LN1@encodeStri
$LN92@encodeStri:
  00466	c6 40 04 ed	 mov	 BYTE PTR [eax+4], -19	; ffffffedH
  0046a	eb 15		 jmp	 SHORT $LN1@encodeStri
$LN93@encodeStri:
  0046c	c6 40 03 ea	 mov	 BYTE PTR [eax+3], -22	; ffffffeaH
  00470	eb 0f		 jmp	 SHORT $LN1@encodeStri
$LN94@encodeStri:
  00472	c6 40 02 eb	 mov	 BYTE PTR [eax+2], -21	; ffffffebH
  00476	eb 09		 jmp	 SHORT $LN1@encodeStri
$LN95@encodeStri:
  00478	c6 40 01 ec	 mov	 BYTE PTR [eax+1], -20	; ffffffecH
  0047c	eb 03		 jmp	 SHORT $LN1@encodeStri
$LN96@encodeStri:
  0047e	c6 00 ed	 mov	 BYTE PTR [eax], -19	; ffffffedH
$LN1@encodeStri:
  00481	6a 08		 push	 8
  00483	5a		 pop	 edx
  00484	8b c8		 mov	 ecx, eax
  00486	c6 40 23 00	 mov	 BYTE PTR [eax+35], 0
  0048a	5b		 pop	 ebx
$LL104@encodeStri:
  0048b	81 31 ed ec eb
	ea		 xor	 DWORD PTR [ecx], -353637139 ; eaebecedH
  00491	83 c1 04	 add	 ecx, 4
  00494	4a		 dec	 edx
  00495	75 f4		 jne	 SHORT $LL104@encodeStri
  00497	56		 push	 esi
  00498	6a 20		 push	 32			; 00000020H
  0049a	5e		 pop	 esi
$LL101@encodeStri:
  0049b	8b ce		 mov	 ecx, esi
  0049d	81 e1 03 00 00
	80		 and	 ecx, -2147483645	; 80000003H
  004a3	79 05		 jns	 SHORT $LN111@encodeStri
  004a5	49		 dec	 ecx
  004a6	83 c9 fc	 or	 ecx, -4			; fffffffcH
  004a9	41		 inc	 ecx
$LN111@encodeStri:
  004aa	b2 ed		 mov	 dl, -19			; ffffffedH
  004ac	2a d1		 sub	 dl, cl
  004ae	30 14 06	 xor	 BYTE PTR [esi+eax], dl
  004b1	46		 inc	 esi
  004b2	83 fe 23	 cmp	 esi, 35			; 00000023H
  004b5	7c e4		 jl	 SHORT $LL101@encodeStri
  004b7	5e		 pop	 esi

; 217  : 		return e;
; 218  : 	}

  004b8	5d		 pop	 ebp
  004b9	c2 08 00	 ret	 8
??$encodeString@$0CE@@ioINILoader_e@@AAEPADAAY0CE@$$CBDPAD@Z ENDP ; ioINILoader_e::encodeString<36>
_TEXT	ENDS
PUBLIC	??$construct@AAH@?$allocator@H@std@@QAEXPAHAAH@Z ; std::allocator<int>::construct<int &>
; Function compile flags: /Ogsp
; File c:\program files (x86)\microsoft visual studio 10.0\vc\include\xmemory
;	COMDAT ??$construct@AAH@?$allocator@H@std@@QAEXPAHAAH@Z
_TEXT	SEGMENT
__Ptr$ = 8						; size = 4
__Val$ = 12						; size = 4
??$construct@AAH@?$allocator@H@std@@QAEXPAHAAH@Z PROC	; std::allocator<int>::construct<int &>, COMDAT
; _this$ = ecx

; 206  : 		void construct(pointer _Ptr, _Other&& _Val)

  00000	55		 push	 ebp
  00001	8b ec		 mov	 ebp, esp

; 207  : 		{	// construct object at _Ptr with value _Val
; 208  : 		::new ((void _FARQ *)_Ptr) _Ty(_STD forward<_Other>(_Val));

  00003	8b 45 08	 mov	 eax, DWORD PTR __Ptr$[ebp]
  00006	85 c0		 test	 eax, eax
  00008	74 07		 je	 SHORT $LN3@construct@2
  0000a	8b 4d 0c	 mov	 ecx, DWORD PTR __Val$[ebp]
  0000d	8b 09		 mov	 ecx, DWORD PTR [ecx]
  0000f	89 08		 mov	 DWORD PTR [eax], ecx
$LN3@construct@2:

; 209  : 		}

  00011	5d		 pop	 ebp
  00012	c2 08 00	 ret	 8
??$construct@AAH@?$allocator@H@std@@QAEXPAHAAH@Z ENDP	; std::allocator<int>::construct<int &>
_TEXT	ENDS
PUBLIC	??$construct@AAUtagShopItemMovieInfo@ioShopItemExtraInfoManager@@@?$allocator@UtagShopItemMovieInfo@ioShopItemExtraInfoManager@@@std@@QAEXPAUtagShopItemMovieInfo@ioShopItemExtraInfoManager@@AAU23@@Z ; std::allocator<ioShopItemExtraInfoManager::tagShopItemMovieInfo>::construct<ioShopItemExtraInfoManager::tagShopItemMovieInfo &>
;	COMDAT xdata$x
; File c:\program files (x86)\microsoft visual studio 10.0\vc\include\utility
xdata$x	SEGMENT
__unwindtable$??$construct@AAUtagShopItemMovieInfo@ioShopItemExtraInfoManager@@@?$allocator@UtagShopItemMovieInfo@ioShopItemExtraInfoManager@@@std@@QAEXPAUtagShopItemMovieInfo@ioShopItemExtraInfoManager@@AAU23@@Z DD 0ffffffffH
	DD	FLAT:__unwindfunclet$??$construct@AAUtagShopItemMovieInfo@ioShopItemExtraInfoManager@@@?$allocator@UtagShopItemMovieInfo@ioShopItemExtraInfoManager@@@std@@QAEXPAUtagShopItemMovieInfo@ioShopItemExtraInfoManager@@AAU23@@Z$0
__ehfuncinfo$??$construct@AAUtagShopItemMovieInfo@ioShopItemExtraInfoManager@@@?$allocator@UtagShopItemMovieInfo@ioShopItemExtraInfoManager@@@std@@QAEXPAUtagShopItemMovieInfo@ioShopItemExtraInfoManager@@AAU23@@Z DD 019930522H
	DD	01H
	DD	FLAT:__unwindtable$??$construct@AAUtagShopItemMovieInfo@ioShopItemExtraInfoManager@@@?$allocator@UtagShopItemMovieInfo@ioShopItemExtraInfoManager@@@std@@QAEXPAUtagShopItemMovieInfo@ioShopItemExtraInfoManager@@AAU23@@Z
	DD	2 DUP(00H)
	DD	2 DUP(00H)
	DD	00H
	DD	01H
; Function compile flags: /Ogsp
; File c:\program files (x86)\microsoft visual studio 10.0\vc\include\xmemory
xdata$x	ENDS
;	COMDAT ??$construct@AAUtagShopItemMovieInfo@ioShopItemExtraInfoManager@@@?$allocator@UtagShopItemMovieInfo@ioShopItemExtraInfoManager@@@std@@QAEXPAUtagShopItemMovieInfo@ioShopItemExtraInfoManager@@AAU23@@Z
_TEXT	SEGMENT
$T511130 = -16						; size = 4
__$EHRec$ = -12						; size = 12
__Ptr$ = 8						; size = 4
__Val$ = 12						; size = 4
??$construct@AAUtagShopItemMovieInfo@ioShopItemExtraInfoManager@@@?$allocator@UtagShopItemMovieInfo@ioShopItemExtraInfoManager@@@std@@QAEXPAUtagShopItemMovieInfo@ioShopItemExtraInfoManager@@AAU23@@Z PROC ; std::allocator<ioShopItemExtraInfoManager::tagShopItemMovieInfo>::construct<ioShopItemExtraInfoManager::tagShopItemMovieInfo &>, COMDAT
; _this$ = ecx

; 206  : 		void construct(pointer _Ptr, _Other&& _Val)

  00000	6a 04		 push	 4
  00002	b8 00 00 00 00	 mov	 eax, __ehhandler$??$construct@AAUtagShopItemMovieInfo@ioShopItemExtraInfoManager@@@?$allocator@UtagShopItemMovieInfo@ioShopItemExtraInfoManager@@@std@@QAEXPAUtagShopItemMovieInfo@ioShopItemExtraInfoManager@@AAU23@@Z
  00007	e8 00 00 00 00	 call	 __EH_prolog3

; 207  : 		{	// construct object at _Ptr with value _Val
; 208  : 		::new ((void _FARQ *)_Ptr) _Ty(_STD forward<_Other>(_Val));

  0000c	8b 4d 08	 mov	 ecx, DWORD PTR __Ptr$[ebp]
  0000f	89 4d f0	 mov	 DWORD PTR $T511130[ebp], ecx
  00012	83 65 fc 00	 and	 DWORD PTR __$EHRec$[ebp+8], 0
  00016	85 c9		 test	 ecx, ecx
  00018	74 08		 je	 SHORT $LN3@construct@3
  0001a	ff 75 0c	 push	 DWORD PTR __Val$[ebp]
  0001d	e8 00 00 00 00	 call	 ??0tagShopItemMovieInfo@ioShopItemExtraInfoManager@@QAE@ABU01@@Z
$LN3@construct@3:

; 209  : 		}

  00022	e8 00 00 00 00	 call	 __EH_epilog3
  00027	c2 08 00	 ret	 8
_TEXT	ENDS
;	COMDAT text$x
text$x	SEGMENT
__unwindfunclet$??$construct@AAUtagShopItemMovieInfo@ioShopItemExtraInfoManager@@@?$allocator@UtagShopItemMovieInfo@ioShopItemExtraInfoManager@@@std@@QAEXPAUtagShopItemMovieInfo@ioShopItemExtraInfoManager@@AAU23@@Z$0:
  00000	ff 75 08	 push	 DWORD PTR __Ptr$[ebp]
  00003	ff 75 f0	 push	 DWORD PTR $T511130[ebp]
  00006	e8 00 00 00 00	 call	 ??3@YAXPAX0@Z		; operator delete
  0000b	59		 pop	 ecx
  0000c	59		 pop	 ecx
  0000d	c3		 ret	 0
__ehhandler$??$construct@AAUtagShopItemMovieInfo@ioShopItemExtraInfoManager@@@?$allocator@UtagShopItemMovieInfo@ioShopItemExtraInfoManager@@@std@@QAEXPAUtagShopItemMovieInfo@ioShopItemExtraInfoManager@@AAU23@@Z:
  0000e	8b 54 24 08	 mov	 edx, DWORD PTR [esp+8]
  00012	8d 42 0c	 lea	 eax, DWORD PTR [edx+12]
  00015	8b 4a ec	 mov	 ecx, DWORD PTR [edx-20]
  00018	33 c8		 xor	 ecx, eax
  0001a	e8 00 00 00 00	 call	 @__security_check_cookie@4
  0001f	b8 00 00 00 00	 mov	 eax, OFFSET __ehfuncinfo$??$construct@AAUtagShopItemMovieInfo@ioShopItemExtraInfoManager@@@?$allocator@UtagShopItemMovieInfo@ioShopItemExtraInfoManager@@@std@@QAEXPAUtagShopItemMovieInfo@ioShopItemExtraInfoManager@@AAU23@@Z
  00024	e9 00 00 00 00	 jmp	 ___CxxFrameHandler3
text$x	ENDS
??$construct@AAUtagShopItemMovieInfo@ioShopItemExtraInfoManager@@@?$allocator@UtagShopItemMovieInfo@ioShopItemExtraInfoManager@@@std@@QAEXPAUtagShopItemMovieInfo@ioShopItemExtraInfoManager@@AAU23@@Z ENDP ; std::allocator<ioShopItemExtraInfoManager::tagShopItemMovieInfo>::construct<ioShopItemExtraInfoManager::tagShopItemMovieInfo &>
PUBLIC	??$_Move@PAUtagShopItemMovieInfo@ioShopItemExtraInfoManager@@PAU12@@std@@YAPAUtagShopItemMovieInfo@ioShopItemExtraInfoManager@@PAU12@00U_Nonscalar_ptr_iterator_tag@0@@Z ; std::_Move<ioShopItemExtraInfoManager::tagShopItemMovieInfo *,ioShopItemExtraInfoManager::tagShopItemMovieInfo *>
; Function compile flags: /Ogsp
; File c:\program files (x86)\microsoft visual studio 10.0\vc\include\xutility
;	COMDAT ??$_Move@PAUtagShopItemMovieInfo@ioShopItemExtraInfoManager@@PAU12@@std@@YAPAUtagShopItemMovieInfo@ioShopItemExtraInfoManager@@PAU12@00U_Nonscalar_ptr_iterator_tag@0@@Z
_TEXT	SEGMENT
__First$ = 8						; size = 4
__Last$ = 12						; size = 4
__Dest$ = 16						; size = 4
___formal$ = 20						; size = 1
??$_Move@PAUtagShopItemMovieInfo@ioShopItemExtraInfoManager@@PAU12@@std@@YAPAUtagShopItemMovieInfo@ioShopItemExtraInfoManager@@PAU12@00U_Nonscalar_ptr_iterator_tag@0@@Z PROC ; std::_Move<ioShopItemExtraInfoManager::tagShopItemMovieInfo *,ioShopItemExtraInfoManager::tagShopItemMovieInfo *>, COMDAT

; 2512 : 	{	// move [_First, _Last) to [_Dest, ...), arbitrary iterators

  00000	55		 push	 ebp
  00001	8b ec		 mov	 ebp, esp
  00003	56		 push	 esi

; 2513 : 	for (; _First != _Last; ++_Dest, ++_First)

  00004	8b 75 08	 mov	 esi, DWORD PTR __First$[ebp]
  00007	eb 10		 jmp	 SHORT $LN11@Move
$LL3@Move:

; 2514 : 		*_Dest = _STD move(*_First);

  00009	8b 4d 10	 mov	 ecx, DWORD PTR __Dest$[ebp]
  0000c	56		 push	 esi
  0000d	e8 00 00 00 00	 call	 ??4tagShopItemMovieInfo@ioShopItemExtraInfoManager@@QAEAAU01@ABU01@@Z
  00012	83 45 10 34	 add	 DWORD PTR __Dest$[ebp], 52 ; 00000034H
  00016	83 c6 34	 add	 esi, 52			; 00000034H
$LN11@Move:

; 2513 : 	for (; _First != _Last; ++_Dest, ++_First)

  00019	3b 75 0c	 cmp	 esi, DWORD PTR __Last$[ebp]
  0001c	75 eb		 jne	 SHORT $LL3@Move

; 2515 : 	return (_Dest);

  0001e	8b 45 10	 mov	 eax, DWORD PTR __Dest$[ebp]
  00021	5e		 pop	 esi

; 2516 : 	}

  00022	5d		 pop	 ebp
  00023	c3		 ret	 0
??$_Move@PAUtagShopItemMovieInfo@ioShopItemExtraInfoManager@@PAU12@@std@@YAPAUtagShopItemMovieInfo@ioShopItemExtraInfoManager@@PAU12@00U_Nonscalar_ptr_iterator_tag@0@@Z ENDP ; std::_Move<ioShopItemExtraInfoManager::tagShopItemMovieInfo *,ioShopItemExtraInfoManager::tagShopItemMovieInfo *>
_TEXT	ENDS
PUBLIC	??$_Construct@UtagShopItemMovieInfo@ioShopItemExtraInfoManager@@ABU12@@std@@YAXPAUtagShopItemMovieInfo@ioShopItemExtraInfoManager@@ABU12@@Z ; std::_Construct<ioShopItemExtraInfoManager::tagShopItemMovieInfo,ioShopItemExtraInfoManager::tagShopItemMovieInfo const &>
;	COMDAT xdata$x
; File c:\program files (x86)\microsoft visual studio 10.0\vc\include\utility
xdata$x	SEGMENT
__unwindtable$??$_Construct@UtagShopItemMovieInfo@ioShopItemExtraInfoManager@@ABU12@@std@@YAXPAUtagShopItemMovieInfo@ioShopItemExtraInfoManager@@ABU12@@Z DD 0ffffffffH
	DD	FLAT:__unwindfunclet$??$_Construct@UtagShopItemMovieInfo@ioShopItemExtraInfoManager@@ABU12@@std@@YAXPAUtagShopItemMovieInfo@ioShopItemExtraInfoManager@@ABU12@@Z$0
__ehfuncinfo$??$_Construct@UtagShopItemMovieInfo@ioShopItemExtraInfoManager@@ABU12@@std@@YAXPAUtagShopItemMovieInfo@ioShopItemExtraInfoManager@@ABU12@@Z DD 019930522H
	DD	01H
	DD	FLAT:__unwindtable$??$_Construct@UtagShopItemMovieInfo@ioShopItemExtraInfoManager@@ABU12@@std@@YAXPAUtagShopItemMovieInfo@ioShopItemExtraInfoManager@@ABU12@@Z
	DD	2 DUP(00H)
	DD	2 DUP(00H)
	DD	00H
	DD	01H
; Function compile flags: /Ogsp
; File c:\program files (x86)\microsoft visual studio 10.0\vc\include\xmemory
xdata$x	ENDS
;	COMDAT ??$_Construct@UtagShopItemMovieInfo@ioShopItemExtraInfoManager@@ABU12@@std@@YAXPAUtagShopItemMovieInfo@ioShopItemExtraInfoManager@@ABU12@@Z
_TEXT	SEGMENT
$T511158 = -16						; size = 4
__$EHRec$ = -12						; size = 12
__Vptr$ = 8						; size = 4
__Ptr$ = 8						; size = 4
__Val$ = 12						; size = 4
??$_Construct@UtagShopItemMovieInfo@ioShopItemExtraInfoManager@@ABU12@@std@@YAXPAUtagShopItemMovieInfo@ioShopItemExtraInfoManager@@ABU12@@Z PROC ; std::_Construct<ioShopItemExtraInfoManager::tagShopItemMovieInfo,ioShopItemExtraInfoManager::tagShopItemMovieInfo const &>, COMDAT

; 46   : 	{	// construct object at _Ptr with value _Val

  00000	6a 04		 push	 4
