; Listing generated by Microsoft (R) Optimizing Compiler Version 16.00.30319.01 

	TITLE	D:\Lost Saga For Developer\Youtube\Tutorial\Source\src\LSClient\ioShopItemExtraInfoManager.cpp
	.686P
	.XMM
	include listing.inc
	.model	flat

INCLUDELIB MSVCRT
INCLUDELIB OLDNAMES

PUBLIC	?ms_Singleton@?$Singleton@VioShopItemExtraInfoManager@@@@1PAVioShopItemExtraInfoManager@@A ; Singleton<ioShopItemExtraInfoManager>::ms_Singleton
;	COMDAT ?ms_Singleton@?$Singleton@VioShopItemExtraInfoManager@@@@1PAVioShopItemExtraInfoManager@@A
_BSS	SEGMENT
?ms_Singleton@?$Singleton@VioShopItemExtraInfoManager@@@@1PAVioShopItemExtraInfoManager@@A DD 01H DUP (?) ; Singleton<ioShopItemExtraInfoManager>::ms_Singleton
_BSS	ENDS
PUBLIC	??1ioINILoader_e@@QAE@XZ			; ioINILoader_e::~ioINILoader_e
EXTRN	__imp_??1ioINILoader@@QAE@XZ:PROC
; Function compile flags: /Ogsp
;	COMDAT ??1ioINILoader_e@@QAE@XZ
_TEXT	SEGMENT
??1ioINILoader_e@@QAE@XZ PROC				; ioINILoader_e::~ioINILoader_e, COMDAT
; _this$ = ecx
  00000	ff 25 00 00 00
	00		 jmp	 DWORD PTR __imp_??1ioINILoader@@QAE@XZ
??1ioINILoader_e@@QAE@XZ ENDP				; ioINILoader_e::~ioINILoader_e
_TEXT	ENDS
PUBLIC	??_7bad_alloc@std@@6B@				; std::bad_alloc::`vftable'
PUBLIC	??0bad_alloc@std@@QAE@PBD@Z			; std::bad_alloc::bad_alloc
PUBLIC	??_R4bad_alloc@std@@6B@				; std::bad_alloc::`RTTI Complete Object Locator'
PUBLIC	??_R0?AVbad_alloc@std@@@8			; std::bad_alloc `RTTI Type Descriptor'
PUBLIC	??_R3bad_alloc@std@@8				; std::bad_alloc::`RTTI Class Hierarchy Descriptor'
PUBLIC	??_R2bad_alloc@std@@8				; std::bad_alloc::`RTTI Base Class Array'
PUBLIC	??_R1A@?0A@EA@bad_alloc@std@@8			; std::bad_alloc::`RTTI Base Class Descriptor at (0,-1,0,64)'
PUBLIC	??_R1A@?0A@EA@exception@std@@8			; std::exception::`RTTI Base Class Descriptor at (0,-1,0,64)'
PUBLIC	??_R0?AVexception@std@@@8			; std::exception `RTTI Type Descriptor'
PUBLIC	??_R3exception@std@@8				; std::exception::`RTTI Class Hierarchy Descriptor'
PUBLIC	??_R2exception@std@@8				; std::exception::`RTTI Base Class Array'
EXTRN	__imp_??0exception@std@@QAE@ABQBD@Z:PROC
EXTRN	??_7type_info@@6B@:QWORD			; type_info::`vftable'
EXTRN	??_Ebad_alloc@std@@UAEPAXI@Z:PROC		; std::bad_alloc::`vector deleting destructor'
EXTRN	?what@exception@std@@UBEPBDXZ:PROC		; std::exception::what
;	COMDAT ??_R2exception@std@@8
; File c:\program files (x86)\microsoft visual studio 10.0\vc\include\exception
rdata$r	SEGMENT
??_R2exception@std@@8 DD FLAT:??_R1A@?0A@EA@exception@std@@8 ; std::exception::`RTTI Base Class Array'
rdata$r	ENDS
;	COMDAT ??_R3exception@std@@8
rdata$r	SEGMENT
??_R3exception@std@@8 DD 00H				; std::exception::`RTTI Class Hierarchy Descriptor'
	DD	00H
	DD	01H
	DD	FLAT:??_R2exception@std@@8
rdata$r	ENDS
;	COMDAT ??_R0?AVexception@std@@@8
_DATA	SEGMENT
??_R0?AVexception@std@@@8 DD FLAT:??_7type_info@@6B@	; std::exception `RTTI Type Descriptor'
	DD	00H
	DB	'.?AVexception@std@@', 00H
_DATA	ENDS
;	COMDAT ??_R1A@?0A@EA@exception@std@@8
rdata$r	SEGMENT
??_R1A@?0A@EA@exception@std@@8 DD FLAT:??_R0?AVexception@std@@@8 ; std::exception::`RTTI Base Class Descriptor at (0,-1,0,64)'
	DD	00H
	DD	00H
	DD	0ffffffffH
	DD	00H
	DD	040H
	DD	FLAT:??_R3exception@std@@8
rdata$r	ENDS
;	COMDAT ??_R1A@?0A@EA@bad_alloc@std@@8
rdata$r	SEGMENT
??_R1A@?0A@EA@bad_alloc@std@@8 DD FLAT:??_R0?AVbad_alloc@std@@@8 ; std::bad_alloc::`RTTI Base Class Descriptor at (0,-1,0,64)'
	DD	01H
	DD	00H
	DD	0ffffffffH
	DD	00H
	DD	040H
	DD	FLAT:??_R3bad_alloc@std@@8
rdata$r	ENDS
;	COMDAT ??_R2bad_alloc@std@@8
rdata$r	SEGMENT
??_R2bad_alloc@std@@8 DD FLAT:??_R1A@?0A@EA@bad_alloc@std@@8 ; std::bad_alloc::`RTTI Base Class Array'
	DD	FLAT:??_R1A@?0A@EA@exception@std@@8
rdata$r	ENDS
;	COMDAT ??_R3bad_alloc@std@@8
rdata$r	SEGMENT
??_R3bad_alloc@std@@8 DD 00H				; std::bad_alloc::`RTTI Class Hierarchy Descriptor'
	DD	00H
	DD	02H
	DD	FLAT:??_R2bad_alloc@std@@8
rdata$r	ENDS
;	COMDAT ??_R0?AVbad_alloc@std@@@8
_DATA	SEGMENT
??_R0?AVbad_alloc@std@@@8 DD FLAT:??_7type_info@@6B@	; std::bad_alloc `RTTI Type Descriptor'
	DD	00H
	DB	'.?AVbad_alloc@std@@', 00H
_DATA	ENDS
;	COMDAT ??_R4bad_alloc@std@@6B@
rdata$r	SEGMENT
??_R4bad_alloc@std@@6B@ DD 00H				; std::bad_alloc::`RTTI Complete Object Locator'
	DD	00H
	DD	00H
	DD	FLAT:??_R0?AVbad_alloc@std@@@8
	DD	FLAT:??_R3bad_alloc@std@@8
rdata$r	ENDS
;	COMDAT ??_7bad_alloc@std@@6B@
CONST	SEGMENT
??_7bad_alloc@std@@6B@ DD FLAT:??_R4bad_alloc@std@@6B@	; std::bad_alloc::`vftable'
	DD	FLAT:??_Ebad_alloc@std@@UAEPAXI@Z
	DD	FLAT:?what@exception@std@@UBEPBDXZ
; Function compile flags: /Ogsp
CONST	ENDS
;	COMDAT ??0bad_alloc@std@@QAE@PBD@Z
_TEXT	SEGMENT
__Message$ = 8						; size = 4
??0bad_alloc@std@@QAE@PBD@Z PROC			; std::bad_alloc::bad_alloc, COMDAT
; _this$ = ecx

; 345  : 		{	// construct from message string

  00000	55		 push	 ebp
  00001	8b ec		 mov	 ebp, esp
  00003	56		 push	 esi
  00004	8d 45 08	 lea	 eax, DWORD PTR __Message$[ebp]
  00007	50		 push	 eax
  00008	8b f1		 mov	 esi, ecx
  0000a	ff 15 00 00 00
	00		 call	 DWORD PTR __imp_??0exception@std@@QAE@ABQBD@Z
  00010	c7 06 00 00 00
	00		 mov	 DWORD PTR [esi], OFFSET ??_7bad_alloc@std@@6B@

; 346  : 		}

  00016	8b c6		 mov	 eax, esi
  00018	5e		 pop	 esi
  00019	5d		 pop	 ebp
  0001a	c2 04 00	 ret	 4
??0bad_alloc@std@@QAE@PBD@Z ENDP			; std::bad_alloc::bad_alloc
_TEXT	ENDS
PUBLIC	??1bad_alloc@std@@UAE@XZ			; std::bad_alloc::~bad_alloc
EXTRN	__imp_??1exception@std@@UAE@XZ:PROC
; Function compile flags: /Ogsp
;	COMDAT ??1bad_alloc@std@@UAE@XZ
_TEXT	SEGMENT
??1bad_alloc@std@@UAE@XZ PROC				; std::bad_alloc::~bad_alloc, COMDAT
; _this$ = ecx

; 354  : 		{	// destroy the object

  00000	c7 01 00 00 00
	00		 mov	 DWORD PTR [ecx], OFFSET ??_7bad_alloc@std@@6B@

; 355  : 		}

  00006	ff 25 00 00 00
	00		 jmp	 DWORD PTR __imp_??1exception@std@@UAE@XZ
??1bad_alloc@std@@UAE@XZ ENDP				; std::bad_alloc::~bad_alloc
_TEXT	ENDS
EXTRN	??3@YAXPAX@Z:PROC				; operator delete
; Function compile flags: /Ogsp
;	COMDAT ??_Gbad_alloc@std@@UAEPAXI@Z
_TEXT	SEGMENT
___flags$ = 8						; size = 4
??_Gbad_alloc@std@@UAEPAXI@Z PROC			; std::bad_alloc::`scalar deleting destructor', COMDAT
; _this$ = ecx
  00000	55		 push	 ebp
  00001	8b ec		 mov	 ebp, esp
  00003	56		 push	 esi
  00004	8b f1		 mov	 esi, ecx
  00006	c7 06 00 00 00
	00		 mov	 DWORD PTR [esi], OFFSET ??_7bad_alloc@std@@6B@
  0000c	ff 15 00 00 00
	00		 call	 DWORD PTR __imp_??1exception@std@@UAE@XZ
  00012	f6 45 08 01	 test	 BYTE PTR ___flags$[ebp], 1
  00016	74 07		 je	 SHORT $LN1@scalar
  00018	56		 push	 esi
  00019	e8 00 00 00 00	 call	 ??3@YAXPAX@Z		; operator delete
  0001e	59		 pop	 ecx
$LN1@scalar:
  0001f	8b c6		 mov	 eax, esi
  00021	5e		 pop	 esi
  00022	5d		 pop	 ebp
  00023	c2 04 00	 ret	 4
??_Gbad_alloc@std@@UAEPAXI@Z ENDP			; std::bad_alloc::`scalar deleting destructor'
_TEXT	ENDS
PUBLIC	??2@YAPAXIPAX@Z					; operator new
; Function compile flags: /Ogsp
; File c:\program files (x86)\microsoft visual studio 10.0\vc\include\new
;	COMDAT ??2@YAPAXIPAX@Z
_TEXT	SEGMENT
___formal$ = 8						; size = 4
__Where$ = 12						; size = 4
??2@YAPAXIPAX@Z PROC					; operator new, COMDAT

; 56   : 	{	// construct array with placement at _Where

  00000	55		 push	 ebp
  00001	8b ec		 mov	 ebp, esp

; 57   : 	return (_Where);

  00003	8b 45 0c	 mov	 eax, DWORD PTR __Where$[ebp]

; 58   : 	}

  00006	5d		 pop	 ebp
  00007	c3		 ret	 0
??2@YAPAXIPAX@Z ENDP					; operator new
_TEXT	ENDS
PUBLIC	??3@YAXPAX0@Z					; operator delete
; Function compile flags: /Ogsp
;	COMDAT ??3@YAXPAX0@Z
_TEXT	SEGMENT
___formal$ = 8						; size = 4
___formal$ = 12						; size = 4
??3@YAXPAX0@Z PROC					; operator delete, COMDAT

; 62   : 	}

  00000	c3		 ret	 0
??3@YAXPAX0@Z ENDP					; operator delete
_TEXT	ENDS
PUBLIC	?_Adopt@_Iterator_base0@std@@QAEXPBX@Z		; std::_Iterator_base0::_Adopt
; Function compile flags: /Ogsp
; File c:\program files (x86)\microsoft visual studio 10.0\vc\include\xutility
;	COMDAT ?_Adopt@_Iterator_base0@std@@QAEXPBX@Z
_TEXT	SEGMENT
___formal$ = 8						; size = 4
?_Adopt@_Iterator_base0@std@@QAEXPBX@Z PROC		; std::_Iterator_base0::_Adopt, COMDAT
; _this$ = ecx

; 49   : 		}

  00000	c2 04 00	 ret	 4
?_Adopt@_Iterator_base0@std@@QAEXPBX@Z ENDP		; std::_Iterator_base0::_Adopt
_TEXT	ENDS
PUBLIC	??0tagShopItemMovieInfo@ioShopItemExtraInfoManager@@QAE@XZ ; ioShopItemExtraInfoManager::tagShopItemMovieInfo::tagShopItemMovieInfo
EXTRN	__imp_??1ioHashString@@QAE@XZ:PROC
EXTRN	__imp_??0ioHashString@@QAE@XZ:PROC
EXTRN	___CxxFrameHandler3:PROC
EXTRN	@__security_check_cookie@4:PROC
EXTRN	__EH_epilog3:PROC
EXTRN	__EH_prolog3:PROC
;	COMDAT xdata$x
xdata$x	SEGMENT
__unwindtable$??0tagShopItemMovieInfo@ioShopItemExtraInfoManager@@QAE@XZ DD 0ffffffffH
	DD	FLAT:__unwindfunclet$??0tagShopItemMovieInfo@ioShopItemExtraInfoManager@@QAE@XZ$0
	DD	00H
	DD	FLAT:__unwindfunclet$??0tagShopItemMovieInfo@ioShopItemExtraInfoManager@@QAE@XZ$1
__ehfuncinfo$??0tagShopItemMovieInfo@ioShopItemExtraInfoManager@@QAE@XZ DD 019930522H
	DD	02H
	DD	FLAT:__unwindtable$??0tagShopItemMovieInfo@ioShopItemExtraInfoManager@@QAE@XZ
	DD	2 DUP(00H)
	DD	2 DUP(00H)
	DD	00H
	DD	01H
; Function compile flags: /Ogsp
xdata$x	ENDS
;	COMDAT ??0tagShopItemMovieInfo@ioShopItemExtraInfoManager@@QAE@XZ
_TEXT	SEGMENT
_this$ = -16						; size = 4
__$EHRec$ = -12						; size = 12
??0tagShopItemMovieInfo@ioShopItemExtraInfoManager@@QAE@XZ PROC ; ioShopItemExtraInfoManager::tagShopItemMovieInfo::tagShopItemMovieInfo, COMDAT
; _this$ = ecx
  00000	6a 04		 push	 4
  00002	b8 00 00 00 00	 mov	 eax, __ehhandler$??0tagShopItemMovieInfo@ioShopItemExtraInfoManager@@QAE@XZ
  00007	e8 00 00 00 00	 call	 __EH_prolog3
  0000c	8b f9		 mov	 edi, ecx
  0000e	89 7d f0	 mov	 DWORD PTR _this$[ebp], edi
  00011	8b 35 00 00 00
	00		 mov	 esi, DWORD PTR __imp_??0ioHashString@@QAE@XZ
  00017	ff d6		 call	 esi
  00019	83 65 fc 00	 and	 DWORD PTR __$EHRec$[ebp+8], 0
  0001d	8d 4f 10	 lea	 ecx, DWORD PTR [edi+16]
  00020	ff d6		 call	 esi
  00022	8d 4f 20	 lea	 ecx, DWORD PTR [edi+32]
  00025	c6 45 fc 01	 mov	 BYTE PTR __$EHRec$[ebp+8], 1
  00029	ff d6		 call	 esi
  0002b	8b c7		 mov	 eax, edi
  0002d	e8 00 00 00 00	 call	 __EH_epilog3
  00032	c3		 ret	 0
_TEXT	ENDS
;	COMDAT text$x
text$x	SEGMENT
__unwindfunclet$??0tagShopItemMovieInfo@ioShopItemExtraInfoManager@@QAE@XZ$0:
  00000	8b 4d f0	 mov	 ecx, DWORD PTR _this$[ebp]
  00003	ff 25 00 00 00
	00		 jmp	 DWORD PTR __imp_??1ioHashString@@QAE@XZ
__unwindfunclet$??0tagShopItemMovieInfo@ioShopItemExtraInfoManager@@QAE@XZ$1:
  00009	8b 4d f0	 mov	 ecx, DWORD PTR _this$[ebp]
  0000c	83 c1 10	 add	 ecx, 16			; 00000010H
  0000f	ff 25 00 00 00
	00		 jmp	 DWORD PTR __imp_??1ioHashString@@QAE@XZ
__ehhandler$??0tagShopItemMovieInfo@ioShopItemExtraInfoManager@@QAE@XZ:
  00015	8b 54 24 08	 mov	 edx, DWORD PTR [esp+8]
  00019	8d 42 0c	 lea	 eax, DWORD PTR [edx+12]
  0001c	8b 4a ec	 mov	 ecx, DWORD PTR [edx-20]
  0001f	33 c8		 xor	 ecx, eax
  00021	e8 00 00 00 00	 call	 @__security_check_cookie@4
  00026	b8 00 00 00 00	 mov	 eax, OFFSET __ehfuncinfo$??0tagShopItemMovieInfo@ioShopItemExtraInfoManager@@QAE@XZ
  0002b	e9 00 00 00 00	 jmp	 ___CxxFrameHandler3
text$x	ENDS
??0tagShopItemMovieInfo@ioShopItemExtraInfoManager@@QAE@XZ ENDP ; ioShopItemExtraInfoManager::tagShopItemMovieInfo::tagShopItemMovieInfo
PUBLIC	??1tagShopItemMovieInfo@ioShopItemExtraInfoManager@@QAE@XZ ; ioShopItemExtraInfoManager::tagShopItemMovieInfo::~tagShopItemMovieInfo
;	COMDAT xdata$x
xdata$x	SEGMENT
__unwindtable$??1tagShopItemMovieInfo@ioShopItemExtraInfoManager@@QAE@XZ DD 0ffffffffH
	DD	FLAT:__unwindfunclet$??1tagShopItemMovieInfo@ioShopItemExtraInfoManager@@QAE@XZ$0
	DD	00H
	DD	FLAT:__unwindfunclet$??1tagShopItemMovieInfo@ioShopItemExtraInfoManager@@QAE@XZ$1
__ehfuncinfo$??1tagShopItemMovieInfo@ioShopItemExtraInfoManager@@QAE@XZ DD 019930522H
	DD	02H
	DD	FLAT:__unwindtable$??1tagShopItemMovieInfo@ioShopItemExtraInfoManager@@QAE@XZ
	DD	2 DUP(00H)
	DD	2 DUP(00H)
	DD	00H
	DD	01H
; Function compile flags: /Ogsp
xdata$x	ENDS
;	COMDAT ??1tagShopItemMovieInfo@ioShopItemExtraInfoManager@@QAE@XZ
_TEXT	SEGMENT
_this$ = -16						; size = 4
__$EHRec$ = -12						; size = 12
??1tagShopItemMovieInfo@ioShopItemExtraInfoManager@@QAE@XZ PROC ; ioShopItemExtraInfoManager::tagShopItemMovieInfo::~tagShopItemMovieInfo, COMDAT
; _this$ = ecx
  00000	6a 04		 push	 4
  00002	b8 00 00 00 00	 mov	 eax, __ehhandler$??1tagShopItemMovieInfo@ioShopItemExtraInfoManager@@QAE@XZ
  00007	e8 00 00 00 00	 call	 __EH_prolog3
  0000c	8b f9		 mov	 edi, ecx
  0000e	89 7d f0	 mov	 DWORD PTR _this$[ebp], edi
  00011	8b 35 00 00 00
	00		 mov	 esi, DWORD PTR __imp_??1ioHashString@@QAE@XZ
  00017	8d 4f 20	 lea	 ecx, DWORD PTR [edi+32]
  0001a	c7 45 fc 01 00
	00 00		 mov	 DWORD PTR __$EHRec$[ebp+8], 1
  00021	ff d6		 call	 esi
  00023	8d 4f 10	 lea	 ecx, DWORD PTR [edi+16]
  00026	c6 45 fc 00	 mov	 BYTE PTR __$EHRec$[ebp+8], 0
  0002a	ff d6		 call	 esi
  0002c	83 4d fc ff	 or	 DWORD PTR __$EHRec$[ebp+8], -1
  00030	8b cf		 mov	 ecx, edi
  00032	ff d6		 call	 esi
  00034	e8 00 00 00 00	 call	 __EH_epilog3
  00039	c3		 ret	 0
_TEXT	ENDS
;	COMDAT text$x
text$x	SEGMENT
__unwindfunclet$??1tagShopItemMovieInfo@ioShopItemExtraInfoManager@@QAE@XZ$0:
  00000	8b 4d f0	 mov	 ecx, DWORD PTR _this$[ebp]
  00003	ff 25 00 00 00
	00		 jmp	 DWORD PTR __imp_??1ioHashString@@QAE@XZ
__unwindfunclet$??1tagShopItemMovieInfo@ioShopItemExtraInfoManager@@QAE@XZ$1:
  00009	8b 4d f0	 mov	 ecx, DWORD PTR _this$[ebp]
  0000c	83 c1 10	 add	 ecx, 16			; 00000010H
  0000f	ff 25 00 00 00
	00		 jmp	 DWORD PTR __imp_??1ioHashString@@QAE@XZ
__ehhandler$??1tagShopItemMovieInfo@ioShopItemExtraInfoManager@@QAE@XZ:
  00015	8b 54 24 08	 mov	 edx, DWORD PTR [esp+8]
  00019	8d 42 0c	 lea	 eax, DWORD PTR [edx+12]
  0001c	8b 4a ec	 mov	 ecx, DWORD PTR [edx-20]
  0001f	33 c8		 xor	 ecx, eax
  00021	e8 00 00 00 00	 call	 @__security_check_cookie@4
  00026	b8 00 00 00 00	 mov	 eax, OFFSET __ehfuncinfo$??1tagShopItemMovieInfo@ioShopItemExtraInfoManager@@QAE@XZ
  0002b	e9 00 00 00 00	 jmp	 ___CxxFrameHandler3
text$x	ENDS
??1tagShopItemMovieInfo@ioShopItemExtraInfoManager@@QAE@XZ ENDP ; ioShopItemExtraInfoManager::tagShopItemMovieInfo::~tagShopItemMovieInfo
PUBLIC	??0?$Singleton@VioShopItemExtraInfoManager@@@@QAE@XZ ; Singleton<ioShopItemExtraInfoManager>::Singleton<ioShopItemExtraInfoManager>
; Function compile flags: /Ogsp
; File d:\lost saga for developer\youtube\tutorial\source\src\io3dengine\iosingleton.h
;	COMDAT ??0?$Singleton@VioShopItemExtraInfoManager@@@@QAE@XZ
_TEXT	SEGMENT
??0?$Singleton@VioShopItemExtraInfoManager@@@@QAE@XZ PROC ; Singleton<ioShopItemExtraInfoManager>::Singleton<ioShopItemExtraInfoManager>, COMDAT
; _this$ = ecx

; 27   : 	Singleton()

  00000	8b c1		 mov	 eax, ecx

; 28   : 	{
; 29   : 		assert( !ms_Singleton );
; 30   : 		int offset = (int)(T*)1 - (int)(Singleton <T>*)(T*)1;
; 31   : 		ms_Singleton = (T*)((int)this + offset);

  00002	8d 48 fc	 lea	 ecx, DWORD PTR [eax-4]
  00005	89 0d 00 00 00
	00		 mov	 DWORD PTR ?ms_Singleton@?$Singleton@VioShopItemExtraInfoManager@@@@1PAVioShopItemExtraInfoManager@@A, ecx ; Singleton<ioShopItemExtraInfoManager>::ms_Singleton

; 32   : 	}

  0000b	c3		 ret	 0
??0?$Singleton@VioShopItemExtraInfoManager@@@@QAE@XZ ENDP ; Singleton<ioShopItemExtraInfoManager>::Singleton<ioShopItemExtraInfoManager>
_TEXT	ENDS
PUBLIC	??1?$Singleton@VioShopItemExtraInfoManager@@@@QAE@XZ ; Singleton<ioShopItemExtraInfoManager>::~Singleton<ioShopItemExtraInfoManager>
; Function compile flags: /Ogsp
;	COMDAT ??1?$Singleton@VioShopItemExtraInfoManager@@@@QAE@XZ
_TEXT	SEGMENT
??1?$Singleton@VioShopItemExtraInfoManager@@@@QAE@XZ PROC ; Singleton<ioShopItemExtraInfoManager>::~Singleton<ioShopItemExtraInfoManager>, COMDAT
; _this$ = ecx

; 36   : 		assert( ms_Singleton );
; 37   : 		ms_Singleton = 0;

  00000	83 25 00 00 00
	00 00		 and	 DWORD PTR ?ms_Singleton@?$Singleton@VioShopItemExtraInfoManager@@@@1PAVioShopItemExtraInfoManager@@A, 0 ; Singleton<ioShopItemExtraInfoManager>::ms_Singleton

; 38   : 	}

  00007	c3		 ret	 0
??1?$Singleton@VioShopItemExtraInfoManager@@@@QAE@XZ ENDP ; Singleton<ioShopItemExtraInfoManager>::~Singleton<ioShopItemExtraInfoManager>
_TEXT	ENDS
PUBLIC	?GetSingleton@?$Singleton@VioShopItemExtraInfoManager@@@@SAAAVioShopItemExtraInfoManager@@XZ ; Singleton<ioShopItemExtraInfoManager>::GetSingleton
; Function compile flags: /Ogsp
;	COMDAT ?GetSingleton@?$Singleton@VioShopItemExtraInfoManager@@@@SAAAVioShopItemExtraInfoManager@@XZ
_TEXT	SEGMENT
?GetSingleton@?$Singleton@VioShopItemExtraInfoManager@@@@SAAAVioShopItemExtraInfoManager@@XZ PROC ; Singleton<ioShopItemExtraInfoManager>::GetSingleton, COMDAT

; 42   : 		assert( ms_Singleton );
; 43   : 		return (*ms_Singleton);

  00000	a1 00 00 00 00	 mov	 eax, DWORD PTR ?ms_Singleton@?$Singleton@VioShopItemExtraInfoManager@@@@1PAVioShopItemExtraInfoManager@@A ; Singleton<ioShopItemExtraInfoManager>::ms_Singleton

; 44   : 	}

  00005	c3		 ret	 0
?GetSingleton@?$Singleton@VioShopItemExtraInfoManager@@@@SAAAVioShopItemExtraInfoManager@@XZ ENDP ; Singleton<ioShopItemExtraInfoManager>::GetSingleton
_TEXT	ENDS
PUBLIC	?size@?$vector@UtagShopItemExtraInfo@ioShopItemExtraInfoManager@@V?$allocator@UtagShopItemExtraInfo@ioShopItemExtraInfoManager@@@std@@@std@@QBEIXZ ; std::vector<ioShopItemExtraInfoManager::tagShopItemExtraInfo,std::allocator<ioShopItemExtraInfoManager::tagShopItemExtraInfo> >::size
; Function compile flags: /Ogsp
; File c:\program files (x86)\microsoft visual studio 10.0\vc\include\vector
;	COMDAT ?size@?$vector@UtagShopItemExtraInfo@ioShopItemExtraInfoManager@@V?$allocator@UtagShopItemExtraInfo@ioShopItemExtraInfoManager@@@std@@@std@@QBEIXZ
_TEXT	SEGMENT
?size@?$vector@UtagShopItemExtraInfo@ioShopItemExtraInfoManager@@V?$allocator@UtagShopItemExtraInfo@ioShopItemExtraInfoManager@@@std@@@std@@QBEIXZ PROC ; std::vector<ioShopItemExtraInfoManager::tagShopItemExtraInfo,std::allocator<ioShopItemExtraInfoManager::tagShopItemExtraInfo> >::size, COMDAT
; _this$ = ecx

; 879  : 		return (this->_Mylast - this->_Myfirst);

  00000	8b 41 04	 mov	 eax, DWORD PTR [ecx+4]
  00003	2b 01		 sub	 eax, DWORD PTR [ecx]
  00005	6a 3c		 push	 60			; 0000003cH
  00007	99		 cdq
  00008	59		 pop	 ecx
  00009	f7 f9		 idiv	 ecx

; 880  : 		}

  0000b	c3		 ret	 0
?size@?$vector@UtagShopItemExtraInfo@ioShopItemExtraInfoManager@@V?$allocator@UtagShopItemExtraInfo@ioShopItemExtraInfoManager@@@std@@@std@@QBEIXZ ENDP ; std::vector<ioShopItemExtraInfoManager::tagShopItemExtraInfo,std::allocator<ioShopItemExtraInfoManager::tagShopItemExtraInfo> >::size
_TEXT	ENDS
PUBLIC	?empty@?$vector@UtagShopItemExtraInfo@ioShopItemExtraInfoManager@@V?$allocator@UtagShopItemExtraInfo@ioShopItemExtraInfoManager@@@std@@@std@@QBE_NXZ ; std::vector<ioShopItemExtraInfoManager::tagShopItemExtraInfo,std::allocator<ioShopItemExtraInfoManager::tagShopItemExtraInfo> >::empty
; Function compile flags: /Ogsp
;	COMDAT ?empty@?$vector@UtagShopItemExtraInfo@ioShopItemExtraInfoManager@@V?$allocator@UtagShopItemExtraInfo@ioShopItemExtraInfoManager@@@std@@@std@@QBE_NXZ
_TEXT	SEGMENT
?empty@?$vector@UtagShopItemExtraInfo@ioShopItemExtraInfoManager@@V?$allocator@UtagShopItemExtraInfo@ioShopItemExtraInfoManager@@@std@@@std@@QBE_NXZ PROC ; std::vector<ioShopItemExtraInfoManager::tagShopItemExtraInfo,std::allocator<ioShopItemExtraInfoManager::tagShopItemExtraInfo> >::empty, COMDAT
; _this$ = ecx

; 889  : 		return (this->_Myfirst == this->_Mylast);

  00000	8b 01		 mov	 eax, DWORD PTR [ecx]
  00002	2b 41 04	 sub	 eax, DWORD PTR [ecx+4]
  00005	f7 d8		 neg	 eax
  00007	1b c0		 sbb	 eax, eax
  00009	40		 inc	 eax

; 890  : 		}

  0000a	c3		 ret	 0
?empty@?$vector@UtagShopItemExtraInfo@ioShopItemExtraInfoManager@@V?$allocator@UtagShopItemExtraInfo@ioShopItemExtraInfoManager@@@std@@@std@@QBE_NXZ ENDP ; std::vector<ioShopItemExtraInfoManager::tagShopItemExtraInfo,std::allocator<ioShopItemExtraInfoManager::tagShopItemExtraInfo> >::empty
_TEXT	ENDS
PUBLIC	??A?$vector@UtagShopItemExtraInfo@ioShopItemExtraInfoManager@@V?$allocator@UtagShopItemExtraInfo@ioShopItemExtraInfoManager@@@std@@@std@@QAEAAUtagShopItemExtraInfo@ioShopItemExtraInfoManager@@I@Z ; std::vector<ioShopItemExtraInfoManager::tagShopItemExtraInfo,std::allocator<ioShopItemExtraInfoManager::tagShopItemExtraInfo> >::operator[]
; Function compile flags: /Ogsp
;	COMDAT ??A?$vector@UtagShopItemExtraInfo@ioShopItemExtraInfoManager@@V?$allocator@UtagShopItemExtraInfo@ioShopItemExtraInfoManager@@@std@@@std@@QAEAAUtagShopItemExtraInfo@ioShopItemExtraInfoManager@@I@Z
_TEXT	SEGMENT
__Pos$ = 8						; size = 4
??A?$vector@UtagShopItemExtraInfo@ioShopItemExtraInfoManager@@V?$allocator@UtagShopItemExtraInfo@ioShopItemExtraInfoManager@@@std@@@std@@QAEAAUtagShopItemExtraInfo@ioShopItemExtraInfoManager@@I@Z PROC ; std::vector<ioShopItemExtraInfoManager::tagShopItemExtraInfo,std::allocator<ioShopItemExtraInfoManager::tagShopItemExtraInfo> >::operator[], COMDAT
; _this$ = ecx

; 928  : 		{	// subscript mutable sequence

  00000	55		 push	 ebp
  00001	8b ec		 mov	 ebp, esp

; 929  :  #if _ITERATOR_DEBUG_LEVEL == 2
; 930  : 		if (size() <= _Pos)
; 931  : 			{	// report error
; 932  : 			_DEBUG_ERROR("vector subscript out of range");
; 933  : 			_SCL_SECURE_OUT_OF_RANGE;
; 934  : 			}
; 935  : 
; 936  :  #elif _ITERATOR_DEBUG_LEVEL == 1
; 937  : 		_SCL_SECURE_VALIDATE_RANGE(_Pos < size());
; 938  :  #endif /* _ITERATOR_DEBUG_LEVEL */
; 939  : 
; 940  : 		return (*(this->_Myfirst + _Pos));

  00003	8b 45 08	 mov	 eax, DWORD PTR __Pos$[ebp]
  00006	6b c0 3c	 imul	 eax, 60			; 0000003cH
  00009	03 01		 add	 eax, DWORD PTR [ecx]

; 941  : 		}

  0000b	5d		 pop	 ebp
  0000c	c2 04 00	 ret	 4
??A?$vector@UtagShopItemExtraInfo@ioShopItemExtraInfoManager@@V?$allocator@UtagShopItemExtraInfo@ioShopItemExtraInfoManager@@@std@@@std@@QAEAAUtagShopItemExtraInfo@ioShopItemExtraInfoManager@@I@Z ENDP ; std::vector<ioShopItemExtraInfoManager::tagShopItemExtraInfo,std::allocator<ioShopItemExtraInfoManager::tagShopItemExtraInfo> >::operator[]
_TEXT	ENDS
PUBLIC	?_Inside@?$vector@HV?$allocator@H@std@@@std@@IBE_NPBH@Z ; std::vector<int,std::allocator<int> >::_Inside
; Function compile flags: /Ogsp
;	COMDAT ?_Inside@?$vector@HV?$allocator@H@std@@@std@@IBE_NPBH@Z
_TEXT	SEGMENT
__Ptr$ = 8						; size = 4
?_Inside@?$vector@HV?$allocator@H@std@@@std@@IBE_NPBH@Z PROC ; std::vector<int,std::allocator<int> >::_Inside, COMDAT
; _this$ = ecx

; 1285 : 		{	// test if _Ptr points inside vector

  00000	55		 push	 ebp
  00001	8b ec		 mov	 ebp, esp

; 1286 : 		return (_Ptr < this->_Mylast && this->_Myfirst <= _Ptr);

  00003	8b 45 08	 mov	 eax, DWORD PTR __Ptr$[ebp]
  00006	3b 41 04	 cmp	 eax, DWORD PTR [ecx+4]
  00009	73 09		 jae	 SHORT $LN3@Inside
  0000b	39 01		 cmp	 DWORD PTR [ecx], eax
  0000d	77 05		 ja	 SHORT $LN3@Inside
  0000f	33 c0		 xor	 eax, eax
  00011	40		 inc	 eax
  00012	eb 02		 jmp	 SHORT $LN4@Inside
$LN3@Inside:
  00014	33 c0		 xor	 eax, eax
$LN4@Inside:

; 1287 : 		}

  00016	5d		 pop	 ebp
  00017	c2 04 00	 ret	 4
?_Inside@?$vector@HV?$allocator@H@std@@@std@@IBE_NPBH@Z ENDP ; std::vector<int,std::allocator<int> >::_Inside
_TEXT	ENDS
PUBLIC	?_Orphan_range@?$vector@HV?$allocator@H@std@@@std@@IBEXPAH0@Z ; std::vector<int,std::allocator<int> >::_Orphan_range
; Function compile flags: /Ogsp
;	COMDAT ?_Orphan_range@?$vector@HV?$allocator@H@std@@@std@@IBEXPAH0@Z
_TEXT	SEGMENT
___formal$ = 8						; size = 4
___formal$ = 12						; size = 4
?_Orphan_range@?$vector@HV?$allocator@H@std@@@std@@IBEXPAH0@Z PROC ; std::vector<int,std::allocator<int> >::_Orphan_range, COMDAT
; _this$ = ecx

; 1454 : 		}

  00000	c2 08 00	 ret	 8
?_Orphan_range@?$vector@HV?$allocator@H@std@@@std@@IBEXPAH0@Z ENDP ; std::vector<int,std::allocator<int> >::_Orphan_range
_TEXT	ENDS
PUBLIC	?capacity@?$vector@UtagShopItemMovieInfo@ioShopItemExtraInfoManager@@V?$allocator@UtagShopItemMovieInfo@ioShopItemExtraInfoManager@@@std@@@std@@QBEIXZ ; std::vector<ioShopItemExtraInfoManager::tagShopItemMovieInfo,std::allocator<ioShopItemExtraInfoManager::tagShopItemMovieInfo> >::capacity
; Function compile flags: /Ogsp
;	COMDAT ?capacity@?$vector@UtagShopItemMovieInfo@ioShopItemExtraInfoManager@@V?$allocator@UtagShopItemMovieInfo@ioShopItemExtraInfoManager@@@std@@@std@@QBEIXZ
_TEXT	SEGMENT
?capacity@?$vector@UtagShopItemMovieInfo@ioShopItemExtraInfoManager@@V?$allocator@UtagShopItemMovieInfo@ioShopItemExtraInfoManager@@@std@@@std@@QBEIXZ PROC ; std::vector<ioShopItemExtraInfoManager::tagShopItemMovieInfo,std::allocator<ioShopItemExtraInfoManager::tagShopItemMovieInfo> >::capacity, COMDAT
; _this$ = ecx

; 777  : 		return (this->_Myend - this->_Myfirst);

  00000	8b 41 08	 mov	 eax, DWORD PTR [ecx+8]
  00003	2b 01		 sub	 eax, DWORD PTR [ecx]
  00005	6a 34		 push	 52			; 00000034H
  00007	99		 cdq
  00008	59		 pop	 ecx
  00009	f7 f9		 idiv	 ecx

; 778  : 		}

  0000b	c3		 ret	 0
?capacity@?$vector@UtagShopItemMovieInfo@ioShopItemExtraInfoManager@@V?$allocator@UtagShopItemMovieInfo@ioShopItemExtraInfoManager@@@std@@@std@@QBEIXZ ENDP ; std::vector<ioShopItemExtraInfoManager::tagShopItemMovieInfo,std::allocator<ioShopItemExtraInfoManager::tagShopItemMovieInfo> >::capacity
_TEXT	ENDS
PUBLIC	?size@?$vector@UtagShopItemMovieInfo@ioShopItemExtraInfoManager@@V?$allocator@UtagShopItemMovieInfo@ioShopItemExtraInfoManager@@@std@@@std@@QBEIXZ ; std::vector<ioShopItemExtraInfoManager::tagShopItemMovieInfo,std::allocator<ioShopItemExtraInfoManager::tagShopItemMovieInfo> >::size
; Function compile flags: /Ogsp
;	COMDAT ?size@?$vector@UtagShopItemMovieInfo@ioShopItemExtraInfoManager@@V?$allocator@UtagShopItemMovieInfo@ioShopItemExtraInfoManager@@@std@@@std@@QBEIXZ
_TEXT	SEGMENT
?size@?$vector@UtagShopItemMovieInfo@ioShopItemExtraInfoManager@@V?$allocator@UtagShopItemMovieInfo@ioShopItemExtraInfoManager@@@std@@@std@@QBEIXZ PROC ; std::vector<ioShopItemExtraInfoManager::tagShopItemMovieInfo,std::allocator<ioShopItemExtraInfoManager::tagShopItemMovieInfo> >::size, COMDAT
; _this$ = ecx

; 879  : 		return (this->_Mylast - this->_Myfirst);

  00000	8b 41 04	 mov	 eax, DWORD PTR [ecx+4]
  00003	2b 01		 sub	 eax, DWORD PTR [ecx]
  00005	6a 34		 push	 52			; 00000034H
  00007	99		 cdq
  00008	59		 pop	 ecx
  00009	f7 f9		 idiv	 ecx

; 880  : 		}

  0000b	c3		 ret	 0
?size@?$vector@UtagShopItemMovieInfo@ioShopItemExtraInfoManager@@V?$allocator@UtagShopItemMovieInfo@ioShopItemExtraInfoManager@@@std@@@std@@QBEIXZ ENDP ; std::vector<ioShopItemExtraInfoManager::tagShopItemMovieInfo,std::allocator<ioShopItemExtraInfoManager::tagShopItemMovieInfo> >::size
_TEXT	ENDS
PUBLIC	?_Inside@?$vector@UtagShopItemMovieInfo@ioShopItemExtraInfoManager@@V?$allocator@UtagShopItemMovieInfo@ioShopItemExtraInfoManager@@@std@@@std@@IBE_NPBUtagShopItemMovieInfo@ioShopItemExtraInfoManager@@@Z ; std::vector<ioShopItemExtraInfoManager::tagShopItemMovieInfo,std::allocator<ioShopItemExtraInfoManager::tagShopItemMovieInfo> >::_Inside
; Function compile flags: /Ogsp
;	COMDAT ?_Inside@?$vector@UtagShopItemMovieInfo@ioShopItemExtraInfoManager@@V?$allocator@UtagShopItemMovieInfo@ioShopItemExtraInfoManager@@@std@@@std@@IBE_NPBUtagShopItemMovieInfo@ioShopItemExtraInfoManager@@@Z
_TEXT	SEGMENT
__Ptr$ = 8						; size = 4
?_Inside@?$vector@UtagShopItemMovieInfo@ioShopItemExtraInfoManager@@V?$allocator@UtagShopItemMovieInfo@ioShopItemExtraInfoManager@@@std@@@std@@IBE_NPBUtagShopItemMovieInfo@ioShopItemExtraInfoManager@@@Z PROC ; std::vector<ioShopItemExtraInfoManager::tagShopItemMovieInfo,std::allocator<ioShopItemExtraInfoManager::tagShopItemMovieInfo> >::_Inside, COMDAT
; _this$ = ecx

; 1285 : 		{	// test if _Ptr points inside vector

  00000	55		 push	 ebp
  00001	8b ec		 mov	 ebp, esp

; 1286 : 		return (_Ptr < this->_Mylast && this->_Myfirst <= _Ptr);

  00003	8b 45 08	 mov	 eax, DWORD PTR __Ptr$[ebp]
  00006	3b 41 04	 cmp	 eax, DWORD PTR [ecx+4]
  00009	73 09		 jae	 SHORT $LN3@Inside@2
  0000b	39 01		 cmp	 DWORD PTR [ecx], eax
  0000d	77 05		 ja	 SHORT $LN3@Inside@2
  0000f	33 c0		 xor	 eax, eax
  00011	40		 inc	 eax
  00012	eb 02		 jmp	 SHORT $LN4@Inside@2
$LN3@Inside@2:
  00014	33 c0		 xor	 eax, eax
$LN4@Inside@2:

; 1287 : 		}

  00016	5d		 pop	 ebp
  00017	c2 04 00	 ret	 4
?_Inside@?$vector@UtagShopItemMovieInfo@ioShopItemExtraInfoManager@@V?$allocator@UtagShopItemMovieInfo@ioShopItemExtraInfoManager@@@std@@@std@@IBE_NPBUtagShopItemMovieInfo@ioShopItemExtraInfoManager@@@Z ENDP ; std::vector<ioShopItemExtraInfoManager::tagShopItemMovieInfo,std::allocator<ioShopItemExtraInfoManager::tagShopItemMovieInfo> >::_Inside
_TEXT	ENDS
PUBLIC	??_C@_0BD@OLBABOEK@vector?$DMT?$DO?5too?5long?$AA@ ; `string'
PUBLIC	?_Xlen@?$vector@UtagShopItemMovieInfo@ioShopItemExtraInfoManager@@V?$allocator@UtagShopItemMovieInfo@ioShopItemExtraInfoManager@@@std@@@std@@IBEXXZ ; std::vector<ioShopItemExtraInfoManager::tagShopItemMovieInfo,std::allocator<ioShopItemExtraInfoManager::tagShopItemMovieInfo> >::_Xlen
EXTRN	__imp_?_Xlength_error@std@@YAXPBD@Z:PROC
;	COMDAT ??_C@_0BD@OLBABOEK@vector?$DMT?$DO?5too?5long?$AA@
CONST	SEGMENT
??_C@_0BD@OLBABOEK@vector?$DMT?$DO?5too?5long?$AA@ DB 'vector<T> too long'
	DB	00H						; `string'
; Function compile flags: /Ogsp
CONST	ENDS
;	COMDAT ?_Xlen@?$vector@UtagShopItemMovieInfo@ioShopItemExtraInfoManager@@V?$allocator@UtagShopItemMovieInfo@ioShopItemExtraInfoManager@@@std@@@std@@IBEXXZ
_TEXT	SEGMENT
?_Xlen@?$vector@UtagShopItemMovieInfo@ioShopItemExtraInfoManager@@V?$allocator@UtagShopItemMovieInfo@ioShopItemExtraInfoManager@@@std@@@std@@IBEXXZ PROC ; std::vector<ioShopItemExtraInfoManager::tagShopItemMovieInfo,std::allocator<ioShopItemExtraInfoManager::tagShopItemMovieInfo> >::_Xlen, COMDAT
; _this$ = ecx

; 1427 : 		_Xlength_error("vector<T> too long");

  00000	68 00 00 00 00	 push	 OFFSET ??_C@_0BD@OLBABOEK@vector?$DMT?$DO?5too?5long?$AA@
  00005	ff 15 00 00 00
	00		 call	 DWORD PTR __imp_?_Xlength_error@std@@YAXPBD@Z
$LN4@Xlen:
$LN3@Xlen:
  0000b	cc		 int	 3
?_Xlen@?$vector@UtagShopItemMovieInfo@ioShopItemExtraInfoManager@@V?$allocator@UtagShopItemMovieInfo@ioShopItemExtraInfoManager@@@std@@@std@@IBEXXZ ENDP ; std::vector<ioShopItemExtraInfoManager::tagShopItemMovieInfo,std::allocator<ioShopItemExtraInfoManager::tagShopItemMovieInfo> >::_Xlen
_TEXT	ENDS
PUBLIC	?_Orphan_range@?$vector@UtagShopItemMovieInfo@ioShopItemExtraInfoManager@@V?$allocator@UtagShopItemMovieInfo@ioShopItemExtraInfoManager@@@std@@@std@@IBEXPAUtagShopItemMovieInfo@ioShopItemExtraInfoManager@@0@Z ; std::vector<ioShopItemExtraInfoManager::tagShopItemMovieInfo,std::allocator<ioShopItemExtraInfoManager::tagShopItemMovieInfo> >::_Orphan_range
; Function compile flags: /Ogsp
;	COMDAT ?_Orphan_range@?$vector@UtagShopItemMovieInfo@ioShopItemExtraInfoManager@@V?$allocator@UtagShopItemMovieInfo@ioShopItemExtraInfoManager@@@std@@@std@@IBEXPAUtagShopItemMovieInfo@ioShopItemExtraInfoManager@@0@Z
_TEXT	SEGMENT
___formal$ = 8						; size = 4
___formal$ = 12						; size = 4
?_Orphan_range@?$vector@UtagShopItemMovieInfo@ioShopItemExtraInfoManager@@V?$allocator@UtagShopItemMovieInfo@ioShopItemExtraInfoManager@@@std@@@std@@IBEXPAUtagShopItemMovieInfo@ioShopItemExtraInfoManager@@0@Z PROC ; std::vector<ioShopItemExtraInfoManager::tagShopItemMovieInfo,std::allocator<ioShopItemExtraInfoManager::tagShopItemMovieInfo> >::_Orphan_range, COMDAT
; _this$ = ecx

; 1454 : 		}

  00000	c2 08 00	 ret	 8
?_Orphan_range@?$vector@UtagShopItemMovieInfo@ioShopItemExtraInfoManager@@V?$allocator@UtagShopItemMovieInfo@ioShopItemExtraInfoManager@@@std@@@std@@IBEXPAUtagShopItemMovieInfo@ioShopItemExtraInfoManager@@0@Z ENDP ; std::vector<ioShopItemExtraInfoManager::tagShopItemMovieInfo,std::allocator<ioShopItemExtraInfoManager::tagShopItemMovieInfo> >::_Orphan_range
_TEXT	ENDS
PUBLIC	??1?$_Vector_val@UtagShopItemMovieInfo@ioShopItemExtraInfoManager@@V?$allocator@UtagShopItemMovieInfo@ioShopItemExtraInfoManager@@@std@@@std@@QAE@XZ ; std::_Vector_val<ioShopItemExtraInfoManager::tagShopItemMovieInfo,std::allocator<ioShopItemExtraInfoManager::tagShopItemMovieInfo> >::~_Vector_val<ioShopItemExtraInfoManager::tagShopItemMovieInfo,std::allocator<ioShopItemExtraInfoManager::tagShopItemMovieInfo> >
; Function compile flags: /Ogsp
;	COMDAT ??1?$_Vector_val@UtagShopItemMovieInfo@ioShopItemExtraInfoManager@@V?$allocator@UtagShopItemMovieInfo@ioShopItemExtraInfoManager@@@std@@@std@@QAE@XZ
_TEXT	SEGMENT
??1?$_Vector_val@UtagShopItemMovieInfo@ioShopItemExtraInfoManager@@V?$allocator@UtagShopItemMovieInfo@ioShopItemExtraInfoManager@@@std@@@std@@QAE@XZ PROC ; std::_Vector_val<ioShopItemExtraInfoManager::tagShopItemMovieInfo,std::allocator<ioShopItemExtraInfoManager::tagShopItemMovieInfo> >::~_Vector_val<ioShopItemExtraInfoManager::tagShopItemMovieInfo,std::allocator<ioShopItemExtraInfoManager::tagShopItemMovieInfo> >, COMDAT
; _this$ = ecx

; 434  : 		}

  00000	c3		 ret	 0
??1?$_Vector_val@UtagShopItemMovieInfo@ioShopItemExtraInfoManager@@V?$allocator@UtagShopItemMovieInfo@ioShopItemExtraInfoManager@@@std@@@std@@QAE@XZ ENDP ; std::_Vector_val<ioShopItemExtraInfoManager::tagShopItemMovieInfo,std::allocator<ioShopItemExtraInfoManager::tagShopItemMovieInfo> >::~_Vector_val<ioShopItemExtraInfoManager::tagShopItemMovieInfo,std::allocator<ioShopItemExtraInfoManager::tagShopItemMovieInfo> >
_TEXT	ENDS
PUBLIC	??0?$allocator@UtagShopItemMovieInfo@ioShopItemExtraInfoManager@@@std@@QAE@XZ ; std::allocator<ioShopItemExtraInfoManager::tagShopItemMovieInfo>::allocator<ioShopItemExtraInfoManager::tagShopItemMovieInfo>
; Function compile flags: /Ogsp
; File c:\program files (x86)\microsoft visual studio 10.0\vc\include\xmemory
;	COMDAT ??0?$allocator@UtagShopItemMovieInfo@ioShopItemExtraInfoManager@@@std@@QAE@XZ
_TEXT	SEGMENT
??0?$allocator@UtagShopItemMovieInfo@ioShopItemExtraInfoManager@@@std@@QAE@XZ PROC ; std::allocator<ioShopItemExtraInfoManager::tagShopItemMovieInfo>::allocator<ioShopItemExtraInfoManager::tagShopItemMovieInfo>, COMDAT
; _this$ = ecx

; 161  : 	_ALLOCATOR() _THROW0()

  00000	8b c1		 mov	 eax, ecx

; 162  : 		{	// construct default allocator (do nothing)
; 163  : 		}

  00002	c3		 ret	 0
??0?$allocator@UtagShopItemMovieInfo@ioShopItemExtraInfoManager@@@std@@QAE@XZ ENDP ; std::allocator<ioShopItemExtraInfoManager::tagShopItemMovieInfo>::allocator<ioShopItemExtraInfoManager::tagShopItemMovieInfo>
_TEXT	ENDS
PUBLIC	?deallocate@?$allocator@UtagShopItemMovieInfo@ioShopItemExtraInfoManager@@@std@@QAEXPAUtagShopItemMovieInfo@ioShopItemExtraInfoManager@@I@Z ; std::allocator<ioShopItemExtraInfoManager::tagShopItemMovieInfo>::deallocate
; Function compile flags: /Ogsp
;	COMDAT ?deallocate@?$allocator@UtagShopItemMovieInfo@ioShopItemExtraInfoManager@@@std@@QAEXPAUtagShopItemMovieInfo@ioShopItemExtraInfoManager@@I@Z
_TEXT	SEGMENT
__Ptr$ = 8						; size = 4
___formal$ = 12						; size = 4
?deallocate@?$allocator@UtagShopItemMovieInfo@ioShopItemExtraInfoManager@@@std@@QAEXPAUtagShopItemMovieInfo@ioShopItemExtraInfoManager@@I@Z PROC ; std::allocator<ioShopItemExtraInfoManager::tagShopItemMovieInfo>::deallocate, COMDAT
; _this$ = ecx

; 181  : 		{	// deallocate object at _Ptr, ignore size

  00000	55		 push	 ebp
  00001	8b ec		 mov	 ebp, esp

; 182  : 		::operator delete(_Ptr);

  00003	ff 75 08	 push	 DWORD PTR __Ptr$[ebp]
  00006	e8 00 00 00 00	 call	 ??3@YAXPAX@Z		; operator delete
  0000b	59		 pop	 ecx

; 183  : 		}

  0000c	5d		 pop	 ebp
  0000d	c2 08 00	 ret	 8
?deallocate@?$allocator@UtagShopItemMovieInfo@ioShopItemExtraInfoManager@@@std@@QAEXPAUtagShopItemMovieInfo@ioShopItemExtraInfoManager@@I@Z ENDP ; std::allocator<ioShopItemExtraInfoManager::tagShopItemMovieInfo>::deallocate
_TEXT	ENDS
PUBLIC	?_Inside@?$vector@UtagShopItemExtraInfo@ioShopItemExtraInfoManager@@V?$allocator@UtagShopItemExtraInfo@ioShopItemExtraInfoManager@@@std@@@std@@IBE_NPBUtagShopItemExtraInfo@ioShopItemExtraInfoManager@@@Z ; std::vector<ioShopItemExtraInfoManager::tagShopItemExtraInfo,std::allocator<ioShopItemExtraInfoManager::tagShopItemExtraInfo> >::_Inside
; Function compile flags: /Ogsp
; File c:\program files (x86)\microsoft visual studio 10.0\vc\include\vector
;	COMDAT ?_Inside@?$vector@UtagShopItemExtraInfo@ioShopItemExtraInfoManager@@V?$allocator@UtagShopItemExtraInfo@ioShopItemExtraInfoManager@@@std@@@std@@IBE_NPBUtagShopItemExtraInfo@ioShopItemExtraInfoManager@@@Z
_TEXT	SEGMENT
__Ptr$ = 8						; size = 4
?_Inside@?$vector@UtagShopItemExtraInfo@ioShopItemExtraInfoManager@@V?$allocator@UtagShopItemExtraInfo@ioShopItemExtraInfoManager@@@std@@@std@@IBE_NPBUtagShopItemExtraInfo@ioShopItemExtraInfoManager@@@Z PROC ; std::vector<ioShopItemExtraInfoManager::tagShopItemExtraInfo,std::allocator<ioShopItemExtraInfoManager::tagShopItemExtraInfo> >::_Inside, COMDAT
; _this$ = ecx

; 1285 : 		{	// test if _Ptr points inside vector

  00000	55		 push	 ebp
  00001	8b ec		 mov	 ebp, esp

; 1286 : 		return (_Ptr < this->_Mylast && this->_Myfirst <= _Ptr);

  00003	8b 45 08	 mov	 eax, DWORD PTR __Ptr$[ebp]
  00006	3b 41 04	 cmp	 eax, DWORD PTR [ecx+4]
  00009	73 09		 jae	 SHORT $LN3@Inside@3
  0000b	39 01		 cmp	 DWORD PTR [ecx], eax
  0000d	77 05		 ja	 SHORT $LN3@Inside@3
  0000f	33 c0		 xor	 eax, eax
  00011	40		 inc	 eax
  00012	eb 02		 jmp	 SHORT $LN4@Inside@3
$LN3@Inside@3:
  00014	33 c0		 xor	 eax, eax
$LN4@Inside@3:

; 1287 : 		}

  00016	5d		 pop	 ebp
  00017	c2 04 00	 ret	 4
?_Inside@?$vector@UtagShopItemExtraInfo@ioShopItemExtraInfoManager@@V?$allocator@UtagShopItemExtraInfo@ioShopItemExtraInfoManager@@@std@@@std@@IBE_NPBUtagShopItemExtraInfo@ioShopItemExtraInfoManager@@@Z ENDP ; std::vector<ioShopItemExtraInfoManager::tagShopItemExtraInfo,std::allocator<ioShopItemExtraInfoManager::tagShopItemExtraInfo> >::_Inside
_TEXT	ENDS
PUBLIC	?_Orphan_range@?$vector@UtagShopItemExtraInfo@ioShopItemExtraInfoManager@@V?$allocator@UtagShopItemExtraInfo@ioShopItemExtraInfoManager@@@std@@@std@@IBEXPAUtagShopItemExtraInfo@ioShopItemExtraInfoManager@@0@Z ; std::vector<ioShopItemExtraInfoManager::tagShopItemExtraInfo,std::allocator<ioShopItemExtraInfoManager::tagShopItemExtraInfo> >::_Orphan_range
; Function compile flags: /Ogsp
;	COMDAT ?_Orphan_range@?$vector@UtagShopItemExtraInfo@ioShopItemExtraInfoManager@@V?$allocator@UtagShopItemExtraInfo@ioShopItemExtraInfoManager@@@std@@@std@@IBEXPAUtagShopItemExtraInfo@ioShopItemExtraInfoManager@@0@Z
_TEXT	SEGMENT
___formal$ = 8						; size = 4
___formal$ = 12						; size = 4
?_Orphan_range@?$vector@UtagShopItemExtraInfo@ioShopItemExtraInfoManager@@V?$allocator@UtagShopItemExtraInfo@ioShopItemExtraInfoManager@@@std@@@std@@IBEXPAUtagShopItemExtraInfo@ioShopItemExtraInfoManager@@0@Z PROC ; std::vector<ioShopItemExtraInfoManager::tagShopItemExtraInfo,std::allocator<ioShopItemExtraInfoManager::tagShopItemExtraInfo> >::_Orphan_range, COMDAT
; _this$ = ecx

; 1454 : 		}

  00000	c2 08 00	 ret	 8
?_Orphan_range@?$vector@UtagShopItemExtraInfo@ioShopItemExtraInfoManager@@V?$allocator@UtagShopItemExtraInfo@ioShopItemExtraInfoManager@@@std@@@std@@IBEXPAUtagShopItemExtraInfo@ioShopItemExtraInfoManager@@0@Z ENDP ; std::vector<ioShopItemExtraInfoManager::tagShopItemExtraInfo,std::allocator<ioShopItemExtraInfoManager::tagShopItemExtraInfo> >::_Orphan_range
_TEXT	ENDS
PUBLIC	??1?$_Vector_val@UtagShopItemExtraInfo@ioShopItemExtraInfoManager@@V?$allocator@UtagShopItemExtraInfo@ioShopItemExtraInfoManager@@@std@@@std@@QAE@XZ ; std::_Vector_val<ioShopItemExtraInfoManager::tagShopItemExtraInfo,std::allocator<ioShopItemExtraInfoManager::tagShopItemExtraInfo> >::~_Vector_val<ioShopItemExtraInfoManager::tagShopItemExtraInfo,std::allocator<ioShopItemExtraInfoManager::tagShopItemExtraInfo> >
; Function compile flags: /Ogsp
;	COMDAT ??1?$_Vector_val@UtagShopItemExtraInfo@ioShopItemExtraInfoManager@@V?$allocator@UtagShopItemExtraInfo@ioShopItemExtraInfoManager@@@std@@@std@@QAE@XZ
_TEXT	SEGMENT
??1?$_Vector_val@UtagShopItemExtraInfo@ioShopItemExtraInfoManager@@V?$allocator@UtagShopItemExtraInfo@ioShopItemExtraInfoManager@@@std@@@std@@QAE@XZ PROC ; std::_Vector_val<ioShopItemExtraInfoManager::tagShopItemExtraInfo,std::allocator<ioShopItemExtraInfoManager::tagShopItemExtraInfo> >::~_Vector_val<ioShopItemExtraInfoManager::tagShopItemExtraInfo,std::allocator<ioShopItemExtraInfoManager::tagShopItemExtraInfo> >, COMDAT
; _this$ = ecx

; 434  : 		}

  00000	c3		 ret	 0
??1?$_Vector_val@UtagShopItemExtraInfo@ioShopItemExtraInfoManager@@V?$allocator@UtagShopItemExtraInfo@ioShopItemExtraInfoManager@@@std@@@std@@QAE@XZ ENDP ; std::_Vector_val<ioShopItemExtraInfoManager::tagShopItemExtraInfo,std::allocator<ioShopItemExtraInfoManager::tagShopItemExtraInfo> >::~_Vector_val<ioShopItemExtraInfoManager::tagShopItemExtraInfo,std::allocator<ioShopItemExtraInfoManager::tagShopItemExtraInfo> >
_TEXT	ENDS
PUBLIC	??0?$allocator@UtagShopItemExtraInfo@ioShopItemExtraInfoManager@@@std@@QAE@XZ ; std::allocator<ioShopItemExtraInfoManager::tagShopItemExtraInfo>::allocator<ioShopItemExtraInfoManager::tagShopItemExtraInfo>
; Function compile flags: /Ogsp
; File c:\program files (x86)\microsoft visual studio 10.0\vc\include\xmemory
;	COMDAT ??0?$allocator@UtagShopItemExtraInfo@ioShopItemExtraInfoManager@@@std@@QAE@XZ
_TEXT	SEGMENT
??0?$allocator@UtagShopItemExtraInfo@ioShopItemExtraInfoManager@@@std@@QAE@XZ PROC ; std::allocator<ioShopItemExtraInfoManager::tagShopItemExtraInfo>::allocator<ioShopItemExtraInfoManager::tagShopItemExtraInfo>, COMDAT
; _this$ = ecx

; 161  : 	_ALLOCATOR() _THROW0()

  00000	8b c1		 mov	 eax, ecx

; 162  : 		{	// construct default allocator (do nothing)
; 163  : 		}

  00002	c3		 ret	 0
??0?$allocator@UtagShopItemExtraInfo@ioShopItemExtraInfoManager@@@std@@QAE@XZ ENDP ; std::allocator<ioShopItemExtraInfoManager::tagShopItemExtraInfo>::allocator<ioShopItemExtraInfoManager::tagShopItemExtraInfo>
_TEXT	ENDS
PUBLIC	??0?$allocator@UtagShopItemMovieInfo@ioShopItemExtraInfoManager@@@std@@QAE@ABV01@@Z ; std::allocator<ioShopItemExtraInfoManager::tagShopItemMovieInfo>::allocator<ioShopItemExtraInfoManager::tagShopItemMovieInfo>
; Function compile flags: /Ogsp
;	COMDAT ??0?$allocator@UtagShopItemMovieInfo@ioShopItemExtraInfoManager@@@std@@QAE@ABV01@@Z
_TEXT	SEGMENT
___formal$ = 8						; size = 4
??0?$allocator@UtagShopItemMovieInfo@ioShopItemExtraInfoManager@@@std@@QAE@ABV01@@Z PROC ; std::allocator<ioShopItemExtraInfoManager::tagShopItemMovieInfo>::allocator<ioShopItemExtraInfoManager::tagShopItemMovieInfo>, COMDAT
; _this$ = ecx

; 165  : 	_ALLOCATOR(const _ALLOCATOR<_Ty>&) _THROW0()

  00000	8b c1		 mov	 eax, ecx

; 166  : 		{	// construct by copying (do nothing)
; 167  : 		}

  00002	c2 04 00	 ret	 4
??0?$allocator@UtagShopItemMovieInfo@ioShopItemExtraInfoManager@@@std@@QAE@ABV01@@Z ENDP ; std::allocator<ioShopItemExtraInfoManager::tagShopItemMovieInfo>::allocator<ioShopItemExtraInfoManager::tagShopItemMovieInfo>
_TEXT	ENDS
PUBLIC	?max_size@?$allocator@UtagShopItemMovieInfo@ioShopItemExtraInfoManager@@@std@@QBEIXZ ; std::allocator<ioShopItemExtraInfoManager::tagShopItemMovieInfo>::max_size
; Function compile flags: /Ogsp
;	COMDAT ?max_size@?$allocator@UtagShopItemMovieInfo@ioShopItemExtraInfoManager@@@std@@QBEIXZ
_TEXT	SEGMENT
?max_size@?$allocator@UtagShopItemMovieInfo@ioShopItemExtraInfoManager@@@std@@QBEIXZ PROC ; std::allocator<ioShopItemExtraInfoManager::tagShopItemMovieInfo>::max_size, COMDAT
; _this$ = ecx

; 218  : 		_SIZT _Count = (_SIZT)(-1) / sizeof (_Ty);
; 219  : 		return (0 < _Count ? _Count : 1);

  00000	b8 c4 4e ec 04	 mov	 eax, 82595524		; 04ec4ec4H

; 220  : 		}

  00005	c3		 ret	 0
?max_size@?$allocator@UtagShopItemMovieInfo@ioShopItemExtraInfoManager@@@std@@QBEIXZ ENDP ; std::allocator<ioShopItemExtraInfoManager::tagShopItemMovieInfo>::max_size
_TEXT	ENDS
PUBLIC	?capacity@?$vector@UtagShopItemExtraInfo@ioShopItemExtraInfoManager@@V?$allocator@UtagShopItemExtraInfo@ioShopItemExtraInfoManager@@@std@@@std@@QBEIXZ ; std::vector<ioShopItemExtraInfoManager::tagShopItemExtraInfo,std::allocator<ioShopItemExtraInfoManager::tagShopItemExtraInfo> >::capacity
; Function compile flags: /Ogsp
; File c:\program files (x86)\microsoft visual studio 10.0\vc\include\vector
;	COMDAT ?capacity@?$vector@UtagShopItemExtraInfo@ioShopItemExtraInfoManager@@V?$allocator@UtagShopItemExtraInfo@ioShopItemExtraInfoManager@@@std@@@std@@QBEIXZ
_TEXT	SEGMENT
?capacity@?$vector@UtagShopItemExtraInfo@ioShopItemExtraInfoManager@@V?$allocator@UtagShopItemExtraInfo@ioShopItemExtraInfoManager@@@std@@@std@@QBEIXZ PROC ; std::vector<ioShopItemExtraInfoManager::tagShopItemExtraInfo,std::allocator<ioShopItemExtraInfoManager::tagShopItemExtraInfo> >::capacity, COMDAT
; _this$ = ecx

; 777  : 		return (this->_Myend - this->_Myfirst);

  00000	8b 41 08	 mov	 eax, DWORD PTR [ecx+8]
  00003	2b 01		 sub	 eax, DWORD PTR [ecx]
  00005	6a 3c		 push	 60			; 0000003cH
  00007	99		 cdq
  00008	59		 pop	 ecx
  00009	f7 f9		 idiv	 ecx

; 778  : 		}

  0000b	c3		 ret	 0
?capacity@?$vector@UtagShopItemExtraInfo@ioShopItemExtraInfoManager@@V?$allocator@UtagShopItemExtraInfo@ioShopItemExtraInfoManager@@@std@@@std@@QBEIXZ ENDP ; std::vector<ioShopItemExtraInfoManager::tagShopItemExtraInfo,std::allocator<ioShopItemExtraInfoManager::tagShopItemExtraInfo> >::capacity
_TEXT	ENDS
PUBLIC	?_Xlen@?$vector@UtagShopItemExtraInfo@ioShopItemExtraInfoManager@@V?$allocator@UtagShopItemExtraInfo@ioShopItemExtraInfoManager@@@std@@@std@@IBEXXZ ; std::vector<ioShopItemExtraInfoManager::tagShopItemExtraInfo,std::allocator<ioShopItemExtraInfoManager::tagShopItemExtraInfo> >::_Xlen
; Function compile flags: /Ogsp
;	COMDAT ?_Xlen@?$vector@UtagShopItemExtraInfo@ioShopItemExtraInfoManager@@V?$allocator@UtagShopItemExtraInfo@ioShopItemExtraInfoManager@@@std@@@std@@IBEXXZ
_TEXT	SEGMENT
?_Xlen@?$vector@UtagShopItemExtraInfo@ioShopItemExtraInfoManager@@V?$allocator@UtagShopItemExtraInfo@ioShopItemExtraInfoManager@@@std@@@std@@IBEXXZ PROC ; std::vector<ioShopItemExtraInfoManager::tagShopItemExtraInfo,std::allocator<ioShopItemExtraInfoManager::tagShopItemExtraInfo> >::_Xlen, COMDAT
; _this$ = ecx

; 1427 : 		_Xlength_error("vector<T> too long");

  00000	68 00 00 00 00	 push	 OFFSET ??_C@_0BD@OLBABOEK@vector?$DMT?$DO?5too?5long?$AA@
  00005	ff 15 00 00 00
	00		 call	 DWORD PTR __imp_?_Xlength_error@std@@YAXPBD@Z
$LN4@Xlen@2:
$LN3@Xlen@2:
  0000b	cc		 int	 3
?_Xlen@?$vector@UtagShopItemExtraInfo@ioShopItemExtraInfoManager@@V?$allocator@UtagShopItemExtraInfo@ioShopItemExtraInfoManager@@@std@@@std@@IBEXXZ ENDP ; std::vector<ioShopItemExtraInfoManager::tagShopItemExtraInfo,std::allocator<ioShopItemExtraInfoManager::tagShopItemExtraInfo> >::_Xlen
_TEXT	ENDS
PUBLIC	??0?$allocator@UtagShopItemExtraInfo@ioShopItemExtraInfoManager@@@std@@QAE@ABV01@@Z ; std::allocator<ioShopItemExtraInfoManager::tagShopItemExtraInfo>::allocator<ioShopItemExtraInfoManager::tagShopItemExtraInfo>
; Function compile flags: /Ogsp
; File c:\program files (x86)\microsoft visual studio 10.0\vc\include\xmemory
;	COMDAT ??0?$allocator@UtagShopItemExtraInfo@ioShopItemExtraInfoManager@@@std@@QAE@ABV01@@Z
_TEXT	SEGMENT
___formal$ = 8						; size = 4
??0?$allocator@UtagShopItemExtraInfo@ioShopItemExtraInfoManager@@@std@@QAE@ABV01@@Z PROC ; std::allocator<ioShopItemExtraInfoManager::tagShopItemExtraInfo>::allocator<ioShopItemExtraInfoManager::tagShopItemExtraInfo>, COMDAT
; _this$ = ecx

; 165  : 	_ALLOCATOR(const _ALLOCATOR<_Ty>&) _THROW0()

  00000	8b c1		 mov	 eax, ecx

; 166  : 		{	// construct by copying (do nothing)
; 167  : 		}

  00002	c2 04 00	 ret	 4
??0?$allocator@UtagShopItemExtraInfo@ioShopItemExtraInfoManager@@@std@@QAE@ABV01@@Z ENDP ; std::allocator<ioShopItemExtraInfoManager::tagShopItemExtraInfo>::allocator<ioShopItemExtraInfoManager::tagShopItemExtraInfo>
_TEXT	ENDS
PUBLIC	?deallocate@?$allocator@UtagShopItemExtraInfo@ioShopItemExtraInfoManager@@@std@@QAEXPAUtagShopItemExtraInfo@ioShopItemExtraInfoManager@@I@Z ; std::allocator<ioShopItemExtraInfoManager::tagShopItemExtraInfo>::deallocate
; Function compile flags: /Ogsp
;	COMDAT ?deallocate@?$allocator@UtagShopItemExtraInfo@ioShopItemExtraInfoManager@@@std@@QAEXPAUtagShopItemExtraInfo@ioShopItemExtraInfoManager@@I@Z
_TEXT	SEGMENT
__Ptr$ = 8						; size = 4
___formal$ = 12						; size = 4
?deallocate@?$allocator@UtagShopItemExtraInfo@ioShopItemExtraInfoManager@@@std@@QAEXPAUtagShopItemExtraInfo@ioShopItemExtraInfoManager@@I@Z PROC ; std::allocator<ioShopItemExtraInfoManager::tagShopItemExtraInfo>::deallocate, COMDAT
; _this$ = ecx

; 181  : 		{	// deallocate object at _Ptr, ignore size

  00000	55		 push	 ebp
  00001	8b ec		 mov	 ebp, esp

; 182  : 		::operator delete(_Ptr);

  00003	ff 75 08	 push	 DWORD PTR __Ptr$[ebp]
  00006	e8 00 00 00 00	 call	 ??3@YAXPAX@Z		; operator delete
  0000b	59		 pop	 ecx

; 183  : 		}

  0000c	5d		 pop	 ebp
  0000d	c2 08 00	 ret	 8
?deallocate@?$allocator@UtagShopItemExtraInfo@ioShopItemExtraInfoManager@@@std@@QAEXPAUtagShopItemExtraInfo@ioShopItemExtraInfoManager@@I@Z ENDP ; std::allocator<ioShopItemExtraInfoManager::tagShopItemExtraInfo>::deallocate
_TEXT	ENDS
PUBLIC	?max_size@?$allocator@UtagShopItemExtraInfo@ioShopItemExtraInfoManager@@@std@@QBEIXZ ; std::allocator<ioShopItemExtraInfoManager::tagShopItemExtraInfo>::max_size
; Function compile flags: /Ogsp
;	COMDAT ?max_size@?$allocator@UtagShopItemExtraInfo@ioShopItemExtraInfoManager@@@std@@QBEIXZ
_TEXT	SEGMENT
?max_size@?$allocator@UtagShopItemExtraInfo@ioShopItemExtraInfoManager@@@std@@QBEIXZ PROC ; std::allocator<ioShopItemExtraInfoManager::tagShopItemExtraInfo>::max_size, COMDAT
; _this$ = ecx

; 218  : 		_SIZT _Count = (_SIZT)(-1) / sizeof (_Ty);
; 219  : 		return (0 < _Count ? _Count : 1);

  00000	b8 44 44 44 04	 mov	 eax, 71582788		; 04444444H

; 220  : 		}

  00005	c3		 ret	 0
?max_size@?$allocator@UtagShopItemExtraInfo@ioShopItemExtraInfoManager@@@std@@QBEIXZ ENDP ; std::allocator<ioShopItemExtraInfoManager::tagShopItemExtraInfo>::max_size
_TEXT	ENDS
PUBLIC	??0?$_Vector_const_iterator@V?$_Vector_val@UtagShopItemMovieInfo@ioShopItemExtraInfoManager@@V?$allocator@UtagShopItemMovieInfo@ioShopItemExtraInfoManager@@@std@@@std@@@std@@QAE@PAUtagShopItemMovieInfo@ioShopItemExtraInfoManager@@PBU_Container_base0@1@@Z ; std::_Vector_const_iterator<std::_Vector_val<ioShopItemExtraInfoManager::tagShopItemMovieInfo,std::allocator<ioShopItemExtraInfoManager::tagShopItemMovieInfo> > >::_Vector_const_iterator<std::_Vector_val<ioShopItemExtraInfoManager::tagShopItemMovieInfo,std::allocator<ioShopItemExtraInfoManager::tagShopItemMovieInfo> > >
; Function compile flags: /Ogsp
; File c:\program files (x86)\microsoft visual studio 10.0\vc\include\vector
;	COMDAT ??0?$_Vector_const_iterator@V?$_Vector_val@UtagShopItemMovieInfo@ioShopItemExtraInfoManager@@V?$allocator@UtagShopItemMovieInfo@ioShopItemExtraInfoManager@@@std@@@std@@@std@@QAE@PAUtagShopItemMovieInfo@ioShopItemExtraInfoManager@@PBU_Container_base0@1@@Z
_TEXT	SEGMENT
__Parg$ = 8						; size = 4
__Pvector$ = 12						; size = 4
??0?$_Vector_const_iterator@V?$_Vector_val@UtagShopItemMovieInfo@ioShopItemExtraInfoManager@@V?$allocator@UtagShopItemMovieInfo@ioShopItemExtraInfoManager@@@std@@@std@@@std@@QAE@PAUtagShopItemMovieInfo@ioShopItemExtraInfoManager@@PBU_Container_base0@1@@Z PROC ; std::_Vector_const_iterator<std::_Vector_val<ioShopItemExtraInfoManager::tagShopItemMovieInfo,std::allocator<ioShopItemExtraInfoManager::tagShopItemMovieInfo> > >::_Vector_const_iterator<std::_Vector_val<ioShopItemExtraInfoManager::tagShopItemMovieInfo,std::allocator<ioShopItemExtraInfoManager::tagShopItemMovieInfo> > >, COMDAT
; _this$ = ecx

; 45   : 		{	// construct with pointer _Parg

  00000	55		 push	 ebp
  00001	8b ec		 mov	 ebp, esp
  00003	8b c1		 mov	 eax, ecx
  00005	8b 4d 08	 mov	 ecx, DWORD PTR __Parg$[ebp]
  00008	89 08		 mov	 DWORD PTR [eax], ecx

; 46   : 		this->_Adopt(_Pvector);
; 47   : 		}

  0000a	5d		 pop	 ebp
  0000b	c2 08 00	 ret	 8
??0?$_Vector_const_iterator@V?$_Vector_val@UtagShopItemMovieInfo@ioShopItemExtraInfoManager@@V?$allocator@UtagShopItemMovieInfo@ioShopItemExtraInfoManager@@@std@@@std@@@std@@QAE@PAUtagShopItemMovieInfo@ioShopItemExtraInfoManager@@PBU_Container_base0@1@@Z ENDP ; std::_Vector_const_iterator<std::_Vector_val<ioShopItemExtraInfoManager::tagShopItemMovieInfo,std::allocator<ioShopItemExtraInfoManager::tagShopItemMovieInfo> > >::_Vector_const_iterator<std::_Vector_val<ioShopItemExtraInfoManager::tagShopItemMovieInfo,std::allocator<ioShopItemExtraInfoManager::tagShopItemMovieInfo> > >
_TEXT	ENDS
PUBLIC	??0?$_Vector_const_iterator@V?$_Vector_val@UtagShopItemExtraInfo@ioShopItemExtraInfoManager@@V?$allocator@UtagShopItemExtraInfo@ioShopItemExtraInfoManager@@@std@@@std@@@std@@QAE@PAUtagShopItemExtraInfo@ioShopItemExtraInfoManager@@PBU_Container_base0@1@@Z ; std::_Vector_const_iterator<std::_Vector_val<ioShopItemExtraInfoManager::tagShopItemExtraInfo,std::allocator<ioShopItemExtraInfoManager::tagShopItemExtraInfo> > >::_Vector_const_iterator<std::_Vector_val<ioShopItemExtraInfoManager::tagShopItemExtraInfo,std::allocator<ioShopItemExtraInfoManager::tagShopItemExtraInfo> > >
; Function compile flags: /Ogsp
;	COMDAT ??0?$_Vector_const_iterator@V?$_Vector_val@UtagShopItemExtraInfo@ioShopItemExtraInfoManager@@V?$allocator@UtagShopItemExtraInfo@ioShopItemExtraInfoManager@@@std@@@std@@@std@@QAE@PAUtagShopItemExtraInfo@ioShopItemExtraInfoManager@@PBU_Container_base0@1@@Z
_TEXT	SEGMENT
__Parg$ = 8						; size = 4
__Pvector$ = 12						; size = 4
??0?$_Vector_const_iterator@V?$_Vector_val@UtagShopItemExtraInfo@ioShopItemExtraInfoManager@@V?$allocator@UtagShopItemExtraInfo@ioShopItemExtraInfoManager@@@std@@@std@@@std@@QAE@PAUtagShopItemExtraInfo@ioShopItemExtraInfoManager@@PBU_Container_base0@1@@Z PROC ; std::_Vector_const_iterator<std::_Vector_val<ioShopItemExtraInfoManager::tagShopItemExtraInfo,std::allocator<ioShopItemExtraInfoManager::tagShopItemExtraInfo> > >::_Vector_const_iterator<std::_Vector_val<ioShopItemExtraInfoManager::tagShopItemExtraInfo,std::allocator<ioShopItemExtraInfoManager::tagShopItemExtraInfo> > >, COMDAT
; _this$ = ecx

; 45   : 		{	// construct with pointer _Parg

  00000	55		 push	 ebp
  00001	8b ec		 mov	 ebp, esp
  00003	8b c1		 mov	 eax, ecx
  00005	8b 4d 08	 mov	 ecx, DWORD PTR __Parg$[ebp]
  00008	89 08		 mov	 DWORD PTR [eax], ecx

; 46   : 		this->_Adopt(_Pvector);
; 47   : 		}

  0000a	5d		 pop	 ebp
  0000b	c2 08 00	 ret	 8
??0?$_Vector_const_iterator@V?$_Vector_val@UtagShopItemExtraInfo@ioShopItemExtraInfoManager@@V?$allocator@UtagShopItemExtraInfo@ioShopItemExtraInfoManager@@@std@@@std@@@std@@QAE@PAUtagShopItemExtraInfo@ioShopItemExtraInfoManager@@PBU_Container_base0@1@@Z ENDP ; std::_Vector_const_iterator<std::_Vector_val<ioShopItemExtraInfoManager::tagShopItemExtraInfo,std::allocator<ioShopItemExtraInfoManager::tagShopItemExtraInfo> > >::_Vector_const_iterator<std::_Vector_val<ioShopItemExtraInfoManager::tagShopItemExtraInfo,std::allocator<ioShopItemExtraInfoManager::tagShopItemExtraInfo> > >
_TEXT	ENDS
PUBLIC	?_Compat@?$_Vector_const_iterator@V?$_Vector_val@UtagShopItemMovieInfo@ioShopItemExtraInfoManager@@V?$allocator@UtagShopItemMovieInfo@ioShopItemExtraInfoManager@@@std@@@std@@@std@@QBEXABV12@@Z ; std::_Vector_const_iterator<std::_Vector_val<ioShopItemExtraInfoManager::tagShopItemMovieInfo,std::allocator<ioShopItemExtraInfoManager::tagShopItemMovieInfo> > >::_Compat
; Function compile flags: /Ogsp
;	COMDAT ?_Compat@?$_Vector_const_iterator@V?$_Vector_val@UtagShopItemMovieInfo@ioShopItemExtraInfoManager@@V?$allocator@UtagShopItemMovieInfo@ioShopItemExtraInfoManager@@@std@@@std@@@std@@QBEXABV12@@Z
_TEXT	SEGMENT
___formal$ = 8						; size = 4
?_Compat@?$_Vector_const_iterator@V?$_Vector_val@UtagShopItemMovieInfo@ioShopItemExtraInfoManager@@V?$allocator@UtagShopItemMovieInfo@ioShopItemExtraInfoManager@@@std@@@std@@@std@@QBEXABV12@@Z PROC ; std::_Vector_const_iterator<std::_Vector_val<ioShopItemExtraInfoManager::tagShopItemMovieInfo,std::allocator<ioShopItemExtraInfoManager::tagShopItemMovieInfo> > >::_Compat, COMDAT
; _this$ = ecx

; 253  : 		}

  00000	c2 04 00	 ret	 4
?_Compat@?$_Vector_const_iterator@V?$_Vector_val@UtagShopItemMovieInfo@ioShopItemExtraInfoManager@@V?$allocator@UtagShopItemMovieInfo@ioShopItemExtraInfoManager@@@std@@@std@@@std@@QBEXABV12@@Z ENDP ; std::_Vector_const_iterator<std::_Vector_val<ioShopItemExtraInfoManager::tagShopItemMovieInfo,std::allocator<ioShopItemExtraInfoManager::tagShopItemMovieInfo> > >::_Compat
_TEXT	ENDS
PUBLIC	?_Compat@?$_Vector_const_iterator@V?$_Vector_val@UtagShopItemExtraInfo@ioShopItemExtraInfoManager@@V?$allocator@UtagShopItemExtraInfo@ioShopItemExtraInfoManager@@@std@@@std@@@std@@QBEXABV12@@Z ; std::_Vector_const_iterator<std::_Vector_val<ioShopItemExtraInfoManager::tagShopItemExtraInfo,std::allocator<ioShopItemExtraInfoManager::tagShopItemExtraInfo> > >::_Compat
; Function compile flags: /Ogsp
;	COMDAT ?_Compat@?$_Vector_const_iterator@V?$_Vector_val@UtagShopItemExtraInfo@ioShopItemExtraInfoManager@@V?$allocator@UtagShopItemExtraInfo@ioShopItemExtraInfoManager@@@std@@@std@@@std@@QBEXABV12@@Z
_TEXT	SEGMENT
___formal$ = 8						; size = 4
?_Compat@?$_Vector_const_iterator@V?$_Vector_val@UtagShopItemExtraInfo@ioShopItemExtraInfoManager@@V?$allocator@UtagShopItemExtraInfo@ioShopItemExtraInfoManager@@@std@@@std@@@std@@QBEXABV12@@Z PROC ; std::_Vector_const_iterator<std::_Vector_val<ioShopItemExtraInfoManager::tagShopItemExtraInfo,std::allocator<ioShopItemExtraInfoManager::tagShopItemExtraInfo> > >::_Compat, COMDAT
; _this$ = ecx

; 253  : 		}

  00000	c2 04 00	 ret	 4
?_Compat@?$_Vector_const_iterator@V?$_Vector_val@UtagShopItemExtraInfo@ioShopItemExtraInfoManager@@V?$allocator@UtagShopItemExtraInfo@ioShopItemExtraInfoManager@@@std@@@std@@@std@@QBEXABV12@@Z ENDP ; std::_Vector_const_iterator<std::_Vector_val<ioShopItemExtraInfoManager::tagShopItemExtraInfo,std::allocator<ioShopItemExtraInfoManager::tagShopItemExtraInfo> > >::_Compat
_TEXT	ENDS
PUBLIC	??$addressof@$$CBH@std@@YAPBHABH@Z		; std::addressof<int const >
; Function compile flags: /Ogsp
; File c:\program files (x86)\microsoft visual studio 10.0\vc\include\xmemory
;	COMDAT ??$addressof@$$CBH@std@@YAPBHABH@Z
_TEXT	SEGMENT
__Val$ = 8						; size = 4
??$addressof@$$CBH@std@@YAPBHABH@Z PROC			; std::addressof<int const >, COMDAT

; 110  : 	{	// return address of _Val

  00000	55		 push	 ebp
  00001	8b ec		 mov	 ebp, esp

; 111  : 	return ((_Ty *) &(char&)_Val);

  00003	8b 45 08	 mov	 eax, DWORD PTR __Val$[ebp]

; 112  : 	}

  00006	5d		 pop	 ebp
  00007	c3		 ret	 0
??$addressof@$$CBH@std@@YAPBHABH@Z ENDP			; std::addressof<int const >
_TEXT	ENDS
PUBLIC	??$addressof@$$CBUtagShopItemMovieInfo@ioShopItemExtraInfoManager@@@std@@YAPBUtagShopItemMovieInfo@ioShopItemExtraInfoManager@@ABU12@@Z ; std::addressof<ioShopItemExtraInfoManager::tagShopItemMovieInfo const >
; Function compile flags: /Ogsp
;	COMDAT ??$addressof@$$CBUtagShopItemMovieInfo@ioShopItemExtraInfoManager@@@std@@YAPBUtagShopItemMovieInfo@ioShopItemExtraInfoManager@@ABU12@@Z
_TEXT	SEGMENT
__Val$ = 8						; size = 4
??$addressof@$$CBUtagShopItemMovieInfo@ioShopItemExtraInfoManager@@@std@@YAPBUtagShopItemMovieInfo@ioShopItemExtraInfoManager@@ABU12@@Z PROC ; std::addressof<ioShopItemExtraInfoManager::tagShopItemMovieInfo const >, COMDAT

; 110  : 	{	// return address of _Val

  00000	55		 push	 ebp
  00001	8b ec		 mov	 ebp, esp

; 111  : 	return ((_Ty *) &(char&)_Val);

  00003	8b 45 08	 mov	 eax, DWORD PTR __Val$[ebp]

; 112  : 	}

  00006	5d		 pop	 ebp
  00007	c3		 ret	 0
??$addressof@$$CBUtagShopItemMovieInfo@ioShopItemExtraInfoManager@@@std@@YAPBUtagShopItemMovieInfo@ioShopItemExtraInfoManager@@ABU12@@Z ENDP ; std::addressof<ioShopItemExtraInfoManager::tagShopItemMovieInfo const >
_TEXT	ENDS
PUBLIC	??$addressof@$$CBUtagShopItemExtraInfo@ioShopItemExtraInfoManager@@@std@@YAPBUtagShopItemExtraInfo@ioShopItemExtraInfoManager@@ABU12@@Z ; std::addressof<ioShopItemExtraInfoManager::tagShopItemExtraInfo const >
; Function compile flags: /Ogsp
;	COMDAT ??$addressof@$$CBUtagShopItemExtraInfo@ioShopItemExtraInfoManager@@@std@@YAPBUtagShopItemExtraInfo@ioShopItemExtraInfoManager@@ABU12@@Z
_TEXT	SEGMENT
__Val$ = 8						; size = 4
??$addressof@$$CBUtagShopItemExtraInfo@ioShopItemExtraInfoManager@@@std@@YAPBUtagShopItemExtraInfo@ioShopItemExtraInfoManager@@ABU12@@Z PROC ; std::addressof<ioShopItemExtraInfoManager::tagShopItemExtraInfo const >, COMDAT

; 110  : 	{	// return address of _Val

  00000	55		 push	 ebp
  00001	8b ec		 mov	 ebp, esp

; 111  : 	return ((_Ty *) &(char&)_Val);

  00003	8b 45 08	 mov	 eax, DWORD PTR __Val$[ebp]

; 112  : 	}

  00006	5d		 pop	 ebp
  00007	c3		 ret	 0
??$addressof@$$CBUtagShopItemExtraInfo@ioShopItemExtraInfoManager@@@std@@YAPBUtagShopItemExtraInfo@ioShopItemExtraInfoManager@@ABU12@@Z ENDP ; std::addressof<ioShopItemExtraInfoManager::tagShopItemExtraInfo const >
_TEXT	ENDS
PUBLIC	__TI2?AVbad_alloc@std@@
PUBLIC	??$_Allocate@UtagShopItemMovieInfo@ioShopItemExtraInfoManager@@@std@@YAPAUtagShopItemMovieInfo@ioShopItemExtraInfoManager@@IPAU12@@Z ; std::_Allocate<ioShopItemExtraInfoManager::tagShopItemMovieInfo>
PUBLIC	__CTA2?AVbad_alloc@std@@
PUBLIC	__CT??_R0?AVbad_alloc@std@@@8??0bad_alloc@std@@QAE@ABV01@@Z12
PUBLIC	??0bad_alloc@std@@QAE@ABV01@@Z			; std::bad_alloc::bad_alloc
PUBLIC	__CT??_R0?AVexception@std@@@8??0exception@std@@QAE@ABV01@@Z12
EXTRN	??2@YAPAXI@Z:PROC				; operator new
EXTRN	__CxxThrowException@8:PROC
EXTRN	??0exception@std@@QAE@ABV01@@Z:PROC		; std::exception::exception
;	COMDAT __CT??_R0?AVexception@std@@@8??0exception@std@@QAE@ABV01@@Z12
; File c:\program files (x86)\microsoft visual studio 10.0\vc\include\exception
xdata$x	SEGMENT
__CT??_R0?AVexception@std@@@8??0exception@std@@QAE@ABV01@@Z12 DD 00H
	DD	FLAT:??_R0?AVexception@std@@@8
	DD	00H
	DD	0ffffffffH
	ORG $+4
	DD	0cH
	DD	FLAT:??0exception@std@@QAE@ABV01@@Z
xdata$x	ENDS
;	COMDAT __CT??_R0?AVbad_alloc@std@@@8??0bad_alloc@std@@QAE@ABV01@@Z12
xdata$x	SEGMENT
__CT??_R0?AVbad_alloc@std@@@8??0bad_alloc@std@@QAE@ABV01@@Z12 DD 00H
	DD	FLAT:??_R0?AVbad_alloc@std@@@8
	DD	00H
	DD	0ffffffffH
	ORG $+4
	DD	0cH
	DD	FLAT:??0bad_alloc@std@@QAE@ABV01@@Z
xdata$x	ENDS
;	COMDAT __CTA2?AVbad_alloc@std@@
xdata$x	SEGMENT
__CTA2?AVbad_alloc@std@@ DD 02H
	DD	FLAT:__CT??_R0?AVbad_alloc@std@@@8??0bad_alloc@std@@QAE@ABV01@@Z12
	DD	FLAT:__CT??_R0?AVexception@std@@@8??0exception@std@@QAE@ABV01@@Z12
xdata$x	ENDS
;	COMDAT __TI2?AVbad_alloc@std@@
xdata$x	SEGMENT
__TI2?AVbad_alloc@std@@ DD 00H
	DD	FLAT:??1bad_alloc@std@@UAE@XZ
	DD	00H
	DD	FLAT:__CTA2?AVbad_alloc@std@@
; Function compile flags: /Ogsp
; File c:\program files (x86)\microsoft visual studio 10.0\vc\include\xmemory
xdata$x	ENDS
;	COMDAT ??$_Allocate@UtagShopItemMovieInfo@ioShopItemExtraInfoManager@@@std@@YAPAUtagShopItemMovieInfo@ioShopItemExtraInfoManager@@IPAU12@@Z
_TEXT	SEGMENT
$T510535 = -12						; size = 12
$T510540 = 8						; size = 4
__Count$ = 8						; size = 4
___formal$ = 12						; size = 4
??$_Allocate@UtagShopItemMovieInfo@ioShopItemExtraInfoManager@@@std@@YAPAUtagShopItemMovieInfo@ioShopItemExtraInfoManager@@IPAU12@@Z PROC ; std::_Allocate<ioShopItemExtraInfoManager::tagShopItemMovieInfo>, COMDAT

; 30   : 	{	// allocate storage for _Count elements of type _Ty

  00000	55		 push	 ebp
  00001	8b ec		 mov	 ebp, esp

; 31   : 	void *_Ptr = 0;
; 32   : 
; 33   : 	if (_Count <= 0)

  00003	8b 4d 08	 mov	 ecx, DWORD PTR __Count$[ebp]
  00006	83 ec 0c	 sub	 esp, 12			; 0000000cH
  00009	33 c0		 xor	 eax, eax
  0000b	85 c9		 test	 ecx, ecx

; 34   : 		_Count = 0;
; 35   : 	else if (((_SIZT)(-1) / sizeof (_Ty) < _Count)

  0000d	74 3c		 je	 SHORT $LN5@Allocate

; 36   : 		|| (_Ptr = ::operator new(_Count * sizeof (_Ty))) == 0)

  0000f	81 f9 c4 4e ec
	04		 cmp	 ecx, 82595524		; 04ec4ec4H
  00015	77 0e		 ja	 SHORT $LN1@Allocate
  00017	6b c9 34	 imul	 ecx, 52			; 00000034H
  0001a	51		 push	 ecx
  0001b	e8 00 00 00 00	 call	 ??2@YAPAXI@Z		; operator new
  00020	59		 pop	 ecx
  00021	85 c0		 test	 eax, eax

; 38   : 
; 39   : 	return ((_Ty _FARQ *)_Ptr);

  00023	75 26		 jne	 SHORT $LN5@Allocate
$LN1@Allocate:

; 37   : 		_THROW_NCEE(bad_alloc, 0);

  00025	83 65 08 00	 and	 DWORD PTR $T510540[ebp], 0
  00029	8d 45 08	 lea	 eax, DWORD PTR $T510540[ebp]
  0002c	50		 push	 eax
  0002d	8d 4d f4	 lea	 ecx, DWORD PTR $T510535[ebp]
  00030	ff 15 00 00 00
	00		 call	 DWORD PTR __imp_??0exception@std@@QAE@ABQBD@Z
  00036	68 00 00 00 00	 push	 OFFSET __TI2?AVbad_alloc@std@@
  0003b	8d 45 f4	 lea	 eax, DWORD PTR $T510535[ebp]
  0003e	50		 push	 eax
  0003f	c7 45 f4 00 00
	00 00		 mov	 DWORD PTR $T510535[ebp], OFFSET ??_7bad_alloc@std@@6B@
  00046	e8 00 00 00 00	 call	 __CxxThrowException@8
$LN10@Allocate:
$LN5@Allocate:

; 40   : 	}

  0004b	c9		 leave
  0004c	c3		 ret	 0
$LN9@Allocate:
??$_Allocate@UtagShopItemMovieInfo@ioShopItemExtraInfoManager@@@std@@YAPAUtagShopItemMovieInfo@ioShopItemExtraInfoManager@@IPAU12@@Z ENDP ; std::_Allocate<ioShopItemExtraInfoManager::tagShopItemMovieInfo>
_TEXT	ENDS
PUBLIC	??$_Allocate@UtagShopItemExtraInfo@ioShopItemExtraInfoManager@@@std@@YAPAUtagShopItemExtraInfo@ioShopItemExtraInfoManager@@IPAU12@@Z ; std::_Allocate<ioShopItemExtraInfoManager::tagShopItemExtraInfo>
; Function compile flags: /Ogsp
;	COMDAT ??$_Allocate@UtagShopItemExtraInfo@ioShopItemExtraInfoManager@@@std@@YAPAUtagShopItemExtraInfo@ioShopItemExtraInfoManager@@IPAU12@@Z
_TEXT	SEGMENT
$T510545 = -12						; size = 12
$T510549 = 8						; size = 4
__Count$ = 8						; size = 4
___formal$ = 12						; size = 4
??$_Allocate@UtagShopItemExtraInfo@ioShopItemExtraInfoManager@@@std@@YAPAUtagShopItemExtraInfo@ioShopItemExtraInfoManager@@IPAU12@@Z PROC ; std::_Allocate<ioShopItemExtraInfoManager::tagShopItemExtraInfo>, COMDAT

; 30   : 	{	// allocate storage for _Count elements of type _Ty

  00000	55		 push	 ebp
  00001	8b ec		 mov	 ebp, esp

; 31   : 	void *_Ptr = 0;
; 32   : 
; 33   : 	if (_Count <= 0)

  00003	8b 4d 08	 mov	 ecx, DWORD PTR __Count$[ebp]
  00006	83 ec 0c	 sub	 esp, 12			; 0000000cH
  00009	33 c0		 xor	 eax, eax
  0000b	85 c9		 test	 ecx, ecx

; 34   : 		_Count = 0;
; 35   : 	else if (((_SIZT)(-1) / sizeof (_Ty) < _Count)

  0000d	74 3c		 je	 SHORT $LN5@Allocate@2

; 36   : 		|| (_Ptr = ::operator new(_Count * sizeof (_Ty))) == 0)

  0000f	81 f9 44 44 44
	04		 cmp	 ecx, 71582788		; 04444444H
  00015	77 0e		 ja	 SHORT $LN1@Allocate@2
  00017	6b c9 3c	 imul	 ecx, 60			; 0000003cH
  0001a	51		 push	 ecx
  0001b	e8 00 00 00 00	 call	 ??2@YAPAXI@Z		; operator new
  00020	59		 pop	 ecx
  00021	85 c0		 test	 eax, eax

; 38   : 
; 39   : 	return ((_Ty _FARQ *)_Ptr);

  00023	75 26		 jne	 SHORT $LN5@Allocate@2
$LN1@Allocate@2:

; 37   : 		_THROW_NCEE(bad_alloc, 0);

  00025	83 65 08 00	 and	 DWORD PTR $T510549[ebp], 0
  00029	8d 45 08	 lea	 eax, DWORD PTR $T510549[ebp]
  0002c	50		 push	 eax
  0002d	8d 4d f4	 lea	 ecx, DWORD PTR $T510545[ebp]
  00030	ff 15 00 00 00
	00		 call	 DWORD PTR __imp_??0exception@std@@QAE@ABQBD@Z
  00036	68 00 00 00 00	 push	 OFFSET __TI2?AVbad_alloc@std@@
  0003b	8d 45 f4	 lea	 eax, DWORD PTR $T510545[ebp]
  0003e	50		 push	 eax
  0003f	c7 45 f4 00 00
	00 00		 mov	 DWORD PTR $T510545[ebp], OFFSET ??_7bad_alloc@std@@6B@
  00046	e8 00 00 00 00	 call	 __CxxThrowException@8
$LN10@Allocate@2:
$LN5@Allocate@2:

; 40   : 	}

  0004b	c9		 leave
  0004c	c3		 ret	 0
$LN9@Allocate@2:
??$_Allocate@UtagShopItemExtraInfo@ioShopItemExtraInfoManager@@@std@@YAPAUtagShopItemExtraInfo@ioShopItemExtraInfoManager@@IPAU12@@Z ENDP ; std::_Allocate<ioShopItemExtraInfoManager::tagShopItemExtraInfo>
_TEXT	ENDS
PUBLIC	??$forward@ABH@std@@YAABHABH@Z			; std::forward<int const &>
; Function compile flags: /Ogsp
; File c:\program files (x86)\microsoft visual studio 10.0\vc\include\utility
;	COMDAT ??$forward@ABH@std@@YAABHABH@Z
_TEXT	SEGMENT
__Arg$ = 8						; size = 4
??$forward@ABH@std@@YAABHABH@Z PROC			; std::forward<int const &>, COMDAT

; 78   : 	{	// forward _Arg, given explicitly specified type parameter

  00000	55		 push	 ebp
  00001	8b ec		 mov	 ebp, esp

; 79   : 	return ((_Ty&&)_Arg);

  00003	8b 45 08	 mov	 eax, DWORD PTR __Arg$[ebp]

; 80   : 	}

  00006	5d		 pop	 ebp
  00007	c3		 ret	 0
??$forward@ABH@std@@YAABHABH@Z ENDP			; std::forward<int const &>
_TEXT	ENDS
PUBLIC	??$forward@AAUtagShopItemMovieInfo@ioShopItemExtraInfoManager@@@std@@YAAAUtagShopItemMovieInfo@ioShopItemExtraInfoManager@@AAU12@@Z ; std::forward<ioShopItemExtraInfoManager::tagShopItemMovieInfo &>
; Function compile flags: /Ogsp
;	COMDAT ??$forward@AAUtagShopItemMovieInfo@ioShopItemExtraInfoManager@@@std@@YAAAUtagShopItemMovieInfo@ioShopItemExtraInfoManager@@AAU12@@Z
_TEXT	SEGMENT
__Arg$ = 8						; size = 4
??$forward@AAUtagShopItemMovieInfo@ioShopItemExtraInfoManager@@@std@@YAAAUtagShopItemMovieInfo@ioShopItemExtraInfoManager@@AAU12@@Z PROC ; std::forward<ioShopItemExtraInfoManager::tagShopItemMovieInfo &>, COMDAT

; 78   : 	{	// forward _Arg, given explicitly specified type parameter

  00000	55		 push	 ebp
  00001	8b ec		 mov	 ebp, esp

; 79   : 	return ((_Ty&&)_Arg);

  00003	8b 45 08	 mov	 eax, DWORD PTR __Arg$[ebp]

; 80   : 	}

  00006	5d		 pop	 ebp
  00007	c3		 ret	 0
??$forward@AAUtagShopItemMovieInfo@ioShopItemExtraInfoManager@@@std@@YAAAUtagShopItemMovieInfo@ioShopItemExtraInfoManager@@AAU12@@Z ENDP ; std::forward<ioShopItemExtraInfoManager::tagShopItemMovieInfo &>
_TEXT	ENDS
PUBLIC	??$forward@ABUtagShopItemMovieInfo@ioShopItemExtraInfoManager@@@std@@YAABUtagShopItemMovieInfo@ioShopItemExtraInfoManager@@ABU12@@Z ; std::forward<ioShopItemExtraInfoManager::tagShopItemMovieInfo const &>
; Function compile flags: /Ogsp
;	COMDAT ??$forward@ABUtagShopItemMovieInfo@ioShopItemExtraInfoManager@@@std@@YAABUtagShopItemMovieInfo@ioShopItemExtraInfoManager@@ABU12@@Z
_TEXT	SEGMENT
__Arg$ = 8						; size = 4
??$forward@ABUtagShopItemMovieInfo@ioShopItemExtraInfoManager@@@std@@YAABUtagShopItemMovieInfo@ioShopItemExtraInfoManager@@ABU12@@Z PROC ; std::forward<ioShopItemExtraInfoManager::tagShopItemMovieInfo const &>, COMDAT

; 78   : 	{	// forward _Arg, given explicitly specified type parameter

  00000	55		 push	 ebp
  00001	8b ec		 mov	 ebp, esp

; 79   : 	return ((_Ty&&)_Arg);

  00003	8b 45 08	 mov	 eax, DWORD PTR __Arg$[ebp]

; 80   : 	}

  00006	5d		 pop	 ebp
  00007	c3		 ret	 0
??$forward@ABUtagShopItemMovieInfo@ioShopItemExtraInfoManager@@@std@@YAABUtagShopItemMovieInfo@ioShopItemExtraInfoManager@@ABU12@@Z ENDP ; std::forward<ioShopItemExtraInfoManager::tagShopItemMovieInfo const &>
_TEXT	ENDS
PUBLIC	??$forward@AAUtagShopItemExtraInfo@ioShopItemExtraInfoManager@@@std@@YAAAUtagShopItemExtraInfo@ioShopItemExtraInfoManager@@AAU12@@Z ; std::forward<ioShopItemExtraInfoManager::tagShopItemExtraInfo &>
; Function compile flags: /Ogsp
;	COMDAT ??$forward@AAUtagShopItemExtraInfo@ioShopItemExtraInfoManager@@@std@@YAAAUtagShopItemExtraInfo@ioShopItemExtraInfoManager@@AAU12@@Z
_TEXT	SEGMENT
__Arg$ = 8						; size = 4
??$forward@AAUtagShopItemExtraInfo@ioShopItemExtraInfoManager@@@std@@YAAAUtagShopItemExtraInfo@ioShopItemExtraInfoManager@@AAU12@@Z PROC ; std::forward<ioShopItemExtraInfoManager::tagShopItemExtraInfo &>, COMDAT

; 78   : 	{	// forward _Arg, given explicitly specified type parameter

  00000	55		 push	 ebp
  00001	8b ec		 mov	 ebp, esp

; 79   : 	return ((_Ty&&)_Arg);

  00003	8b 45 08	 mov	 eax, DWORD PTR __Arg$[ebp]

; 80   : 	}

  00006	5d		 pop	 ebp
  00007	c3		 ret	 0
??$forward@AAUtagShopItemExtraInfo@ioShopItemExtraInfoManager@@@std@@YAAAUtagShopItemExtraInfo@ioShopItemExtraInfoManager@@AAU12@@Z ENDP ; std::forward<ioShopItemExtraInfoManager::tagShopItemExtraInfo &>
_TEXT	ENDS
PUBLIC	??$forward@ABUtagShopItemExtraInfo@ioShopItemExtraInfoManager@@@std@@YAABUtagShopItemExtraInfo@ioShopItemExtraInfoManager@@ABU12@@Z ; std::forward<ioShopItemExtraInfoManager::tagShopItemExtraInfo const &>
; Function compile flags: /Ogsp
;	COMDAT ??$forward@ABUtagShopItemExtraInfo@ioShopItemExtraInfoManager@@@std@@YAABUtagShopItemExtraInfo@ioShopItemExtraInfoManager@@ABU12@@Z
_TEXT	SEGMENT
__Arg$ = 8						; size = 4
??$forward@ABUtagShopItemExtraInfo@ioShopItemExtraInfoManager@@@std@@YAABUtagShopItemExtraInfo@ioShopItemExtraInfoManager@@ABU12@@Z PROC ; std::forward<ioShopItemExtraInfoManager::tagShopItemExtraInfo const &>, COMDAT

; 78   : 	{	// forward _Arg, given explicitly specified type parameter

  00000	55		 push	 ebp
  00001	8b ec		 mov	 ebp, esp

; 79   : 	return ((_Ty&&)_Arg);

  00003	8b 45 08	 mov	 eax, DWORD PTR __Arg$[ebp]

; 80   : 	}

  00006	5d		 pop	 ebp
  00007	c3		 ret	 0
??$forward@ABUtagShopItemExtraInfo@ioShopItemExtraInfoManager@@@std@@YAABUtagShopItemExtraInfo@ioShopItemExtraInfoManager@@ABU12@@Z ENDP ; std::forward<ioShopItemExtraInfoManager::tagShopItemExtraInfo const &>
_TEXT	ENDS
PUBLIC	??$_Ptr_cat@UtagShopItemMovieInfo@ioShopItemExtraInfoManager@@U12@@std@@YA?AU_Nonscalar_ptr_iterator_tag@0@PAUtagShopItemMovieInfo@ioShopItemExtraInfoManager@@0@Z ; std::_Ptr_cat<ioShopItemExtraInfoManager::tagShopItemMovieInfo,ioShopItemExtraInfoManager::tagShopItemMovieInfo>
; Function compile flags: /Ogsp
; File c:\program files (x86)\microsoft visual studio 10.0\vc\include\xutility
;	COMDAT ??$_Ptr_cat@UtagShopItemMovieInfo@ioShopItemExtraInfoManager@@U12@@std@@YA?AU_Nonscalar_ptr_iterator_tag@0@PAUtagShopItemMovieInfo@ioShopItemExtraInfoManager@@0@Z
_TEXT	SEGMENT
__Cat$ = -1						; size = 1
___formal$ = 8						; size = 4
___formal$ = 12						; size = 4
??$_Ptr_cat@UtagShopItemMovieInfo@ioShopItemExtraInfoManager@@U12@@std@@YA?AU_Nonscalar_ptr_iterator_tag@0@PAUtagShopItemMovieInfo@ioShopItemExtraInfoManager@@0@Z PROC ; std::_Ptr_cat<ioShopItemExtraInfoManager::tagShopItemMovieInfo,ioShopItemExtraInfoManager::tagShopItemMovieInfo>, COMDAT

; 516  : 	{	// return pointer category from pointers

  00000	55		 push	 ebp
  00001	8b ec		 mov	 ebp, esp
  00003	51		 push	 ecx

; 517  : 	typename _Ptr_cat_helper<_Elem1, _Elem2>::_Type _Cat;
; 518  : 	return (_Cat);

  00004	8a 45 ff	 mov	 al, BYTE PTR __Cat$[ebp]

; 519  : 	}

  00007	c9		 leave
  00008	c3		 ret	 0
??$_Ptr_cat@UtagShopItemMovieInfo@ioShopItemExtraInfoManager@@U12@@std@@YA?AU_Nonscalar_ptr_iterator_tag@0@PAUtagShopItemMovieInfo@ioShopItemExtraInfoManager@@0@Z ENDP ; std::_Ptr_cat<ioShopItemExtraInfoManager::tagShopItemMovieInfo,ioShopItemExtraInfoManager::tagShopItemMovieInfo>
_TEXT	ENDS
PUBLIC	??$_Ptr_cat@UtagShopItemExtraInfo@ioShopItemExtraInfoManager@@U12@@std@@YA?AU_Nonscalar_ptr_iterator_tag@0@PAUtagShopItemExtraInfo@ioShopItemExtraInfoManager@@0@Z ; std::_Ptr_cat<ioShopItemExtraInfoManager::tagShopItemExtraInfo,ioShopItemExtraInfoManager::tagShopItemExtraInfo>
; Function compile flags: /Ogsp
;	COMDAT ??$_Ptr_cat@UtagShopItemExtraInfo@ioShopItemExtraInfoManager@@U12@@std@@YA?AU_Nonscalar_ptr_iterator_tag@0@PAUtagShopItemExtraInfo@ioShopItemExtraInfoManager@@0@Z
_TEXT	SEGMENT
__Cat$ = -1						; size = 1
___formal$ = 8						; size = 4
___formal$ = 12						; size = 4
??$_Ptr_cat@UtagShopItemExtraInfo@ioShopItemExtraInfoManager@@U12@@std@@YA?AU_Nonscalar_ptr_iterator_tag@0@PAUtagShopItemExtraInfo@ioShopItemExtraInfoManager@@0@Z PROC ; std::_Ptr_cat<ioShopItemExtraInfoManager::tagShopItemExtraInfo,ioShopItemExtraInfoManager::tagShopItemExtraInfo>, COMDAT

; 516  : 	{	// return pointer category from pointers

  00000	55		 push	 ebp
  00001	8b ec		 mov	 ebp, esp
  00003	51		 push	 ecx

; 517  : 	typename _Ptr_cat_helper<_Elem1, _Elem2>::_Type _Cat;
; 518  : 	return (_Cat);

  00004	8a 45 ff	 mov	 al, BYTE PTR __Cat$[ebp]

; 519  : 	}

  00007	c9		 leave
  00008	c3		 ret	 0
??$_Ptr_cat@UtagShopItemExtraInfo@ioShopItemExtraInfoManager@@U12@@std@@YA?AU_Nonscalar_ptr_iterator_tag@0@PAUtagShopItemExtraInfo@ioShopItemExtraInfoManager@@0@Z ENDP ; std::_Ptr_cat<ioShopItemExtraInfoManager::tagShopItemExtraInfo,ioShopItemExtraInfoManager::tagShopItemExtraInfo>
_TEXT	ENDS
PUBLIC	??$_Construct@HABH@std@@YAXPAHABH@Z		; std::_Construct<int,int const &>
; Function compile flags: /Ogsp
; File c:\program files (x86)\microsoft visual studio 10.0\vc\include\xmemory
;	COMDAT ??$_Construct@HABH@std@@YAXPAHABH@Z
_TEXT	SEGMENT
__Ptr$ = 8						; size = 4
__Val$ = 12						; size = 4
??$_Construct@HABH@std@@YAXPAHABH@Z PROC		; std::_Construct<int,int const &>, COMDAT

; 46   : 	{	// construct object at _Ptr with value _Val

  00000	55		 push	 ebp
  00001	8b ec		 mov	 ebp, esp

; 47   : 	void _FARQ *_Vptr = _Ptr;
; 48   : 	::new (_Vptr) _Ty1(_STD forward<_Ty2>(_Val));

  00003	8b 45 08	 mov	 eax, DWORD PTR __Ptr$[ebp]
  00006	85 c0		 test	 eax, eax
  00008	74 07		 je	 SHORT $LN3@Construct
  0000a	8b 4d 0c	 mov	 ecx, DWORD PTR __Val$[ebp]
  0000d	8b 09		 mov	 ecx, DWORD PTR [ecx]
  0000f	89 08		 mov	 DWORD PTR [eax], ecx
$LN3@Construct:

; 49   : 	}

  00011	5d		 pop	 ebp
  00012	c3		 ret	 0
??$_Construct@HABH@std@@YAXPAHABH@Z ENDP		; std::_Construct<int,int const &>
_TEXT	ENDS
PUBLIC	??0tagShopItemMovieInfo@ioShopItemExtraInfoManager@@QAE@ABU01@@Z ; ioShopItemExtraInfoManager::tagShopItemMovieInfo::tagShopItemMovieInfo
EXTRN	__imp_??0ioHashString@@QAE@ABV0@@Z:PROC
;	COMDAT xdata$x
xdata$x	SEGMENT
__unwindtable$??0tagShopItemMovieInfo@ioShopItemExtraInfoManager@@QAE@ABU01@@Z DD 0ffffffffH
	DD	FLAT:__unwindfunclet$??0tagShopItemMovieInfo@ioShopItemExtraInfoManager@@QAE@ABU01@@Z$0
	DD	00H
	DD	FLAT:__unwindfunclet$??0tagShopItemMovieInfo@ioShopItemExtraInfoManager@@QAE@ABU01@@Z$1
__ehfuncinfo$??0tagShopItemMovieInfo@ioShopItemExtraInfoManager@@QAE@ABU01@@Z DD 019930522H
	DD	02H
	DD	FLAT:__unwindtable$??0tagShopItemMovieInfo@ioShopItemExtraInfoManager@@QAE@ABU01@@Z
	DD	2 DUP(00H)
	DD	2 DUP(00H)
	DD	00H
	DD	01H
; Function compile flags: /Ogsp
xdata$x	ENDS
;	COMDAT ??0tagShopItemMovieInfo@ioShopItemExtraInfoManager@@QAE@ABU01@@Z
_TEXT	SEGMENT
_this$ = -16						; size = 4
__$EHRec$ = -12						; size = 12
___that$ = 8						; size = 4
??0tagShopItemMovieInfo@ioShopItemExtraInfoManager@@QAE@ABU01@@Z PROC ; ioShopItemExtraInfoManager::tagShopItemMovieInfo::tagShopItemMovieInfo, COMDAT
; _this$ = ecx
  00000	6a 04		 push	 4
  00002	b8 00 00 00 00	 mov	 eax, __ehhandler$??0tagShopItemMovieInfo@ioShopItemExtraInfoManager@@QAE@ABU01@@Z
  00007	e8 00 00 00 00	 call	 __EH_prolog3
  0000c	8b f1		 mov	 esi, ecx
  0000e	89 75 f0	 mov	 DWORD PTR _this$[ebp], esi
  00011	8b 5d 08	 mov	 ebx, DWORD PTR ___that$[ebp]
  00014	8b 3d 00 00 00
	00		 mov	 edi, DWORD PTR __imp_??0ioHashString@@QAE@ABV0@@Z
  0001a	53		 push	 ebx
  0001b	ff d7		 call	 edi
  0001d	83 65 fc 00	 and	 DWORD PTR __$EHRec$[ebp+8], 0
  00021	8d 43 10	 lea	 eax, DWORD PTR [ebx+16]
  00024	50		 push	 eax
  00025	8d 4e 10	 lea	 ecx, DWORD PTR [esi+16]
  00028	ff d7		 call	 edi
  0002a	8d 43 20	 lea	 eax, DWORD PTR [ebx+32]
  0002d	50		 push	 eax
  0002e	8d 4e 20	 lea	 ecx, DWORD PTR [esi+32]
  00031	c6 45 fc 01	 mov	 BYTE PTR __$EHRec$[ebp+8], 1
  00035	ff d7		 call	 edi
  00037	8a 43 30	 mov	 al, BYTE PTR [ebx+48]
  0003a	88 46 30	 mov	 BYTE PTR [esi+48], al
  0003d	8b c6		 mov	 eax, esi
  0003f	e8 00 00 00 00	 call	 __EH_epilog3
  00044	c2 04 00	 ret	 4
_TEXT	ENDS
;	COMDAT text$x
text$x	SEGMENT
__unwindfunclet$??0tagShopItemMovieInfo@ioShopItemExtraInfoManager@@QAE@ABU01@@Z$0:
  00000	8b 4d f0	 mov	 ecx, DWORD PTR _this$[ebp]
  00003	ff 25 00 00 00
	00		 jmp	 DWORD PTR __imp_??1ioHashString@@QAE@XZ
__unwindfunclet$??0tagShopItemMovieInfo@ioShopItemExtraInfoManager@@QAE@ABU01@@Z$1:
  00009	8b 4d f0	 mov	 ecx, DWORD PTR _this$[ebp]
  0000c	83 c1 10	 add	 ecx, 16			; 00000010H
  0000f	ff 25 00 00 00
	00		 jmp	 DWORD PTR __imp_??1ioHashString@@QAE@XZ
__ehhandler$??0tagShopItemMovieInfo@ioShopItemExtraInfoManager@@QAE@ABU01@@Z:
  00015	8b 54 24 08	 mov	 edx, DWORD PTR [esp+8]
  00019	8d 42 0c	 lea	 eax, DWORD PTR [edx+12]
  0001c	8b 4a ec	 mov	 ecx, DWORD PTR [edx-20]
  0001f	33 c8		 xor	 ecx, eax
  00021	e8 00 00 00 00	 call	 @__security_check_cookie@4
  00026	b8 00 00 00 00	 mov	 eax, OFFSET __ehfuncinfo$??0tagShopItemMovieInfo@ioShopItemExtraInfoManager@@QAE@ABU01@@Z
  0002b	e9 00 00 00 00	 jmp	 ___CxxFrameHandler3
text$x	ENDS
??0tagShopItemMovieInfo@ioShopItemExtraInfoManager@@QAE@ABU01@@Z ENDP ; ioShopItemExtraInfoManager::tagShopItemMovieInfo::tagShopItemMovieInfo
PUBLIC	??4tagShopItemMovieInfo@ioShopItemExtraInfoManager@@QAEAAU01@ABU01@@Z ; ioShopItemExtraInfoManager::tagShopItemMovieInfo::operator=
EXTRN	__imp_??4ioHashString@@QAEAAV0@ABV0@@Z:PROC
; Function compile flags: /Ogsp
;	COMDAT ??4tagShopItemMovieInfo@ioShopItemExtraInfoManager@@QAEAAU01@ABU01@@Z
_TEXT	SEGMENT
___that$ = 8						; size = 4
??4tagShopItemMovieInfo@ioShopItemExtraInfoManager@@QAEAAU01@ABU01@@Z PROC ; ioShopItemExtraInfoManager::tagShopItemMovieInfo::operator=, COMDAT
; _this$ = ecx
  00000	55		 push	 ebp
  00001	8b ec		 mov	 ebp, esp
  00003	53		 push	 ebx
  00004	8b 5d 08	 mov	 ebx, DWORD PTR ___that$[ebp]
  00007	56		 push	 esi
  00008	57		 push	 edi
  00009	8b 3d 00 00 00
	00		 mov	 edi, DWORD PTR __imp_??4ioHashString@@QAEAAV0@ABV0@@Z
  0000f	53		 push	 ebx
  00010	8b f1		 mov	 esi, ecx
  00012	ff d7		 call	 edi
  00014	8d 43 10	 lea	 eax, DWORD PTR [ebx+16]
  00017	50		 push	 eax
  00018	8d 4e 10	 lea	 ecx, DWORD PTR [esi+16]
  0001b	ff d7		 call	 edi
  0001d	8d 43 20	 lea	 eax, DWORD PTR [ebx+32]
  00020	50		 push	 eax
  00021	8d 4e 20	 lea	 ecx, DWORD PTR [esi+32]
  00024	ff d7		 call	 edi
  00026	8a 43 30	 mov	 al, BYTE PTR [ebx+48]
  00029	88 46 30	 mov	 BYTE PTR [esi+48], al
  0002c	5f		 pop	 edi
  0002d	8b c6		 mov	 eax, esi
  0002f	5e		 pop	 esi
  00030	5b		 pop	 ebx
  00031	5d		 pop	 ebp
  00032	c2 04 00	 ret	 4
??4tagShopItemMovieInfo@ioShopItemExtraInfoManager@@QAEAAU01@ABU01@@Z ENDP ; ioShopItemExtraInfoManager::tagShopItemMovieInfo::operator=
_TEXT	ENDS
PUBLIC	?begin@?$vector@UtagShopItemMovieInfo@ioShopItemExtraInfoManager@@V?$allocator@UtagShopItemMovieInfo@ioShopItemExtraInfoManager@@@std@@@std@@QBE?AV?$_Vector_const_iterator@V?$_Vector_val@UtagShopItemMovieInfo@ioShopItemExtraInfoManager@@V?$allocator@UtagShopItemMovieInfo@ioShopItemExtraInfoManager@@@std@@@std@@@2@XZ ; std::vector<ioShopItemExtraInfoManager::tagShopItemMovieInfo,std::allocator<ioShopItemExtraInfoManager::tagShopItemMovieInfo> >::begin
; Function compile flags: /Ogsp
; File c:\program files (x86)\microsoft visual studio 10.0\vc\include\vector
;	COMDAT ?begin@?$vector@UtagShopItemMovieInfo@ioShopItemExtraInfoManager@@V?$allocator@UtagShopItemMovieInfo@ioShopItemExtraInfoManager@@@std@@@std@@QBE?AV?$_Vector_const_iterator@V?$_Vector_val@UtagShopItemMovieInfo@ioShopItemExtraInfoManager@@V?$allocator@UtagShopItemMovieInfo@ioShopItemExtraInfoManager@@@std@@@std@@@2@XZ
_TEXT	SEGMENT
___$ReturnUdt$ = 8					; size = 4
?begin@?$vector@UtagShopItemMovieInfo@ioShopItemExtraInfoManager@@V?$allocator@UtagShopItemMovieInfo@ioShopItemExtraInfoManager@@@std@@@std@@QBE?AV?$_Vector_const_iterator@V?$_Vector_val@UtagShopItemMovieInfo@ioShopItemExtraInfoManager@@V?$allocator@UtagShopItemMovieInfo@ioShopItemExtraInfoManager@@@std@@@std@@@2@XZ PROC ; std::vector<ioShopItemExtraInfoManager::tagShopItemMovieInfo,std::allocator<ioShopItemExtraInfoManager::tagShopItemMovieInfo> >::begin, COMDAT
; _this$ = ecx

; 786  : 		{	// return iterator for beginning of nonmutable sequence

  00000	55		 push	 ebp
  00001	8b ec		 mov	 ebp, esp

; 787  : 		return (const_iterator(this->_Myfirst, this));

  00003	8b 09		 mov	 ecx, DWORD PTR [ecx]
  00005	8b 45 08	 mov	 eax, DWORD PTR ___$ReturnUdt$[ebp]
  00008	89 08		 mov	 DWORD PTR [eax], ecx

; 788  : 		}

  0000a	5d		 pop	 ebp
  0000b	c2 04 00	 ret	 4
?begin@?$vector@UtagShopItemMovieInfo@ioShopItemExtraInfoManager@@V?$allocator@UtagShopItemMovieInfo@ioShopItemExtraInfoManager@@@std@@@std@@QBE?AV?$_Vector_const_iterator@V?$_Vector_val@UtagShopItemMovieInfo@ioShopItemExtraInfoManager@@V?$allocator@UtagShopItemMovieInfo@ioShopItemExtraInfoManager@@@std@@@std@@@2@XZ ENDP ; std::vector<ioShopItemExtraInfoManager::tagShopItemMovieInfo,std::allocator<ioShopItemExtraInfoManager::tagShopItemMovieInfo> >::begin
_TEXT	ENDS
PUBLIC	?end@?$vector@UtagShopItemMovieInfo@ioShopItemExtraInfoManager@@V?$allocator@UtagShopItemMovieInfo@ioShopItemExtraInfoManager@@@std@@@std@@QBE?AV?$_Vector_const_iterator@V?$_Vector_val@UtagShopItemMovieInfo@ioShopItemExtraInfoManager@@V?$allocator@UtagShopItemMovieInfo@ioShopItemExtraInfoManager@@@std@@@std@@@2@XZ ; std::vector<ioShopItemExtraInfoManager::tagShopItemMovieInfo,std::allocator<ioShopItemExtraInfoManager::tagShopItemMovieInfo> >::end
; Function compile flags: /Ogsp
;	COMDAT ?end@?$vector@UtagShopItemMovieInfo@ioShopItemExtraInfoManager@@V?$allocator@UtagShopItemMovieInfo@ioShopItemExtraInfoManager@@@std@@@std@@QBE?AV?$_Vector_const_iterator@V?$_Vector_val@UtagShopItemMovieInfo@ioShopItemExtraInfoManager@@V?$allocator@UtagShopItemMovieInfo@ioShopItemExtraInfoManager@@@std@@@std@@@2@XZ
_TEXT	SEGMENT
___$ReturnUdt$ = 8					; size = 4
?end@?$vector@UtagShopItemMovieInfo@ioShopItemExtraInfoManager@@V?$allocator@UtagShopItemMovieInfo@ioShopItemExtraInfoManager@@@std@@@std@@QBE?AV?$_Vector_const_iterator@V?$_Vector_val@UtagShopItemMovieInfo@ioShopItemExtraInfoManager@@V?$allocator@UtagShopItemMovieInfo@ioShopItemExtraInfoManager@@@std@@@std@@@2@XZ PROC ; std::vector<ioShopItemExtraInfoManager::tagShopItemMovieInfo,std::allocator<ioShopItemExtraInfoManager::tagShopItemMovieInfo> >::end, COMDAT
; _this$ = ecx

; 796  : 		{	// return iterator for end of nonmutable sequence

  00000	55		 push	 ebp
  00001	8b ec		 mov	 ebp, esp

; 797  : 		return (const_iterator(this->_Mylast, this));

  00003	8b 49 04	 mov	 ecx, DWORD PTR [ecx+4]
  00006	8b 45 08	 mov	 eax, DWORD PTR ___$ReturnUdt$[ebp]
  00009	89 08		 mov	 DWORD PTR [eax], ecx

; 798  : 		}

  0000b	5d		 pop	 ebp
  0000c	c2 04 00	 ret	 4
?end@?$vector@UtagShopItemMovieInfo@ioShopItemExtraInfoManager@@V?$allocator@UtagShopItemMovieInfo@ioShopItemExtraInfoManager@@@std@@@std@@QBE?AV?$_Vector_const_iterator@V?$_Vector_val@UtagShopItemMovieInfo@ioShopItemExtraInfoManager@@V?$allocator@UtagShopItemMovieInfo@ioShopItemExtraInfoManager@@@std@@@std@@@2@XZ ENDP ; std::vector<ioShopItemExtraInfoManager::tagShopItemMovieInfo,std::allocator<ioShopItemExtraInfoManager::tagShopItemMovieInfo> >::end
_TEXT	ENDS
PUBLIC	??$_Val_type@PAUtagShopItemMovieInfo@ioShopItemExtraInfoManager@@@std@@YAPAUtagShopItemMovieInfo@ioShopItemExtraInfoManager@@PAU12@@Z ; std::_Val_type<ioShopItemExtraInfoManager::tagShopItemMovieInfo *>
; Function compile flags: /Ogsp
; File c:\program files (x86)\microsoft visual studio 10.0\vc\include\xutility
;	COMDAT ??$_Val_type@PAUtagShopItemMovieInfo@ioShopItemExtraInfoManager@@@std@@YAPAUtagShopItemMovieInfo@ioShopItemExtraInfoManager@@PAU12@@Z
_TEXT	SEGMENT
___formal$ = 8						; size = 4
??$_Val_type@PAUtagShopItemMovieInfo@ioShopItemExtraInfoManager@@@std@@YAPAUtagShopItemMovieInfo@ioShopItemExtraInfoManager@@PAU12@@Z PROC ; std::_Val_type<ioShopItemExtraInfoManager::tagShopItemMovieInfo *>, COMDAT

; 790  : 	return (0);

  00000	33 c0		 xor	 eax, eax

; 791  : 	}

  00002	c3		 ret	 0
??$_Val_type@PAUtagShopItemMovieInfo@ioShopItemExtraInfoManager@@@std@@YAPAUtagShopItemMovieInfo@ioShopItemExtraInfoManager@@PAU12@@Z ENDP ; std::_Val_type<ioShopItemExtraInfoManager::tagShopItemMovieInfo *>
_TEXT	ENDS
PUBLIC	??$move@AAUtagShopItemMovieInfo@ioShopItemExtraInfoManager@@@std@@YA$$QAUtagShopItemMovieInfo@ioShopItemExtraInfoManager@@AAU12@@Z ; std::move<ioShopItemExtraInfoManager::tagShopItemMovieInfo &>
; Function compile flags: /Ogsp
; File c:\program files (x86)\microsoft visual studio 10.0\vc\include\utility
;	COMDAT ??$move@AAUtagShopItemMovieInfo@ioShopItemExtraInfoManager@@@std@@YA$$QAUtagShopItemMovieInfo@ioShopItemExtraInfoManager@@AAU12@@Z
_TEXT	SEGMENT
__Arg$ = 8						; size = 4
??$move@AAUtagShopItemMovieInfo@ioShopItemExtraInfoManager@@@std@@YA$$QAUtagShopItemMovieInfo@ioShopItemExtraInfoManager@@AAU12@@Z PROC ; std::move<ioShopItemExtraInfoManager::tagShopItemMovieInfo &>, COMDAT

; 86   : 	{	// forward _Arg as movable

  00000	55		 push	 ebp
  00001	8b ec		 mov	 ebp, esp

; 87   : 	return ((typename tr1::_Remove_reference<_Ty>::_Type&&)_Arg);

  00003	8b 45 08	 mov	 eax, DWORD PTR __Arg$[ebp]

; 88   : 	}

  00006	5d		 pop	 ebp
  00007	c3		 ret	 0
??$move@AAUtagShopItemMovieInfo@ioShopItemExtraInfoManager@@@std@@YA$$QAUtagShopItemMovieInfo@ioShopItemExtraInfoManager@@AAU12@@Z ENDP ; std::move<ioShopItemExtraInfoManager::tagShopItemMovieInfo &>
_TEXT	ENDS
PUBLIC	??$move@AAUtagShopItemExtraInfo@ioShopItemExtraInfoManager@@@std@@YA$$QAUtagShopItemExtraInfo@ioShopItemExtraInfoManager@@AAU12@@Z ; std::move<ioShopItemExtraInfoManager::tagShopItemExtraInfo &>
; Function compile flags: /Ogsp
;	COMDAT ??$move@AAUtagShopItemExtraInfo@ioShopItemExtraInfoManager@@@std@@YA$$QAUtagShopItemExtraInfo@ioShopItemExtraInfoManager@@AAU12@@Z
_TEXT	SEGMENT
__Arg$ = 8						; size = 4
??$move@AAUtagShopItemExtraInfo@ioShopItemExtraInfoManager@@@std@@YA$$QAUtagShopItemExtraInfo@ioShopItemExtraInfoManager@@AAU12@@Z PROC ; std::move<ioShopItemExtraInfoManager::tagShopItemExtraInfo &>, COMDAT

; 86   : 	{	// forward _Arg as movable

  00000	55		 push	 ebp
  00001	8b ec		 mov	 ebp, esp

; 87   : 	return ((typename tr1::_Remove_reference<_Ty>::_Type&&)_Arg);

  00003	8b 45 08	 mov	 eax, DWORD PTR __Arg$[ebp]

; 88   : 	}

  00006	5d		 pop	 ebp
  00007	c3		 ret	 0
??$move@AAUtagShopItemExtraInfo@ioShopItemExtraInfoManager@@@std@@YA$$QAUtagShopItemExtraInfo@ioShopItemExtraInfoManager@@AAU12@@Z ENDP ; std::move<ioShopItemExtraInfoManager::tagShopItemExtraInfo &>
_TEXT	ENDS
PUBLIC	??$_Val_type@PAUtagShopItemExtraInfo@ioShopItemExtraInfoManager@@@std@@YAPAUtagShopItemExtraInfo@ioShopItemExtraInfoManager@@PAU12@@Z ; std::_Val_type<ioShopItemExtraInfoManager::tagShopItemExtraInfo *>
; Function compile flags: /Ogsp
; File c:\program files (x86)\microsoft visual studio 10.0\vc\include\xutility
;	COMDAT ??$_Val_type@PAUtagShopItemExtraInfo@ioShopItemExtraInfoManager@@@std@@YAPAUtagShopItemExtraInfo@ioShopItemExtraInfoManager@@PAU12@@Z
_TEXT	SEGMENT
___formal$ = 8						; size = 4
??$_Val_type@PAUtagShopItemExtraInfo@ioShopItemExtraInfoManager@@@std@@YAPAUtagShopItemExtraInfo@ioShopItemExtraInfoManager@@PAU12@@Z PROC ; std::_Val_type<ioShopItemExtraInfoManager::tagShopItemExtraInfo *>, COMDAT

; 790  : 	return (0);

  00000	33 c0		 xor	 eax, eax

; 791  : 	}

  00002	c3		 ret	 0
??$_Val_type@PAUtagShopItemExtraInfo@ioShopItemExtraInfoManager@@@std@@YAPAUtagShopItemExtraInfo@ioShopItemExtraInfoManager@@PAU12@@Z ENDP ; std::_Val_type<ioShopItemExtraInfoManager::tagShopItemExtraInfo *>
_TEXT	ENDS
PUBLIC	??$_Copy_impl@PAHPAH@std@@YAPAHPAH00U_Scalar_ptr_iterator_tag@0@@Z ; std::_Copy_impl<int *,int *>
EXTRN	__imp__memmove:PROC
; Function compile flags: /Ogsp
;	COMDAT ??$_Copy_impl@PAHPAH@std@@YAPAHPAH00U_Scalar_ptr_iterator_tag@0@@Z
_TEXT	SEGMENT
__First$ = 8						; size = 4
__Last$ = 12						; size = 4
__Dest$ = 16						; size = 4
___formal$ = 20						; size = 1
??$_Copy_impl@PAHPAH@std@@YAPAHPAH00U_Scalar_ptr_iterator_tag@0@@Z PROC ; std::_Copy_impl<int *,int *>, COMDAT

; 2152 : 	{	// copy [_First, _Last) to [_Dest, ...), pointers to scalars

  00000	55		 push	 ebp
  00001	8b ec		 mov	 ebp, esp
  00003	56		 push	 esi

; 2153 : 	ptrdiff_t _Count = _Last - _First;

  00004	8b 75 0c	 mov	 esi, DWORD PTR __Last$[ebp]
  00007	2b 75 08	 sub	 esi, DWORD PTR __First$[ebp]
  0000a	57		 push	 edi

; 2154 : 	_CSTD memmove(&*_Dest, &*_First,
; 2155 : 		_Count * sizeof (*_First));

  0000b	8b 7d 10	 mov	 edi, DWORD PTR __Dest$[ebp]
  0000e	c1 fe 02	 sar	 esi, 2
  00011	c1 e6 02	 shl	 esi, 2
  00014	56		 push	 esi
  00015	ff 75 08	 push	 DWORD PTR __First$[ebp]
  00018	57		 push	 edi
  00019	ff 15 00 00 00
	00		 call	 DWORD PTR __imp__memmove
  0001f	83 c4 0c	 add	 esp, 12			; 0000000cH

; 2156 : 	return (_Dest + _Count);

  00022	8d 04 3e	 lea	 eax, DWORD PTR [esi+edi]
  00025	5f		 pop	 edi
  00026	5e		 pop	 esi

; 2157 : 	}

  00027	5d		 pop	 ebp
  00028	c3		 ret	 0
??$_Copy_impl@PAHPAH@std@@YAPAHPAH00U_Scalar_ptr_iterator_tag@0@@Z ENDP ; std::_Copy_impl<int *,int *>
_TEXT	ENDS
PUBLIC	??$_Copy_impl@PAUtagShopItemMovieInfo@ioShopItemExtraInfoManager@@PAU12@@std@@YAPAUtagShopItemMovieInfo@ioShopItemExtraInfoManager@@PAU12@00U_Nonscalar_ptr_iterator_tag@0@@Z ; std::_Copy_impl<ioShopItemExtraInfoManager::tagShopItemMovieInfo *,ioShopItemExtraInfoManager::tagShopItemMovieInfo *>
; Function compile flags: /Ogsp
;	COMDAT ??$_Copy_impl@PAUtagShopItemMovieInfo@ioShopItemExtraInfoManager@@PAU12@@std@@YAPAUtagShopItemMovieInfo@ioShopItemExtraInfoManager@@PAU12@00U_Nonscalar_ptr_iterator_tag@0@@Z
_TEXT	SEGMENT
__First$ = 8						; size = 4
__Last$ = 12						; size = 4
__Dest$ = 16						; size = 4
___formal$ = 20						; size = 1
??$_Copy_impl@PAUtagShopItemMovieInfo@ioShopItemExtraInfoManager@@PAU12@@std@@YAPAUtagShopItemMovieInfo@ioShopItemExtraInfoManager@@PAU12@00U_Nonscalar_ptr_iterator_tag@0@@Z PROC ; std::_Copy_impl<ioShopItemExtraInfoManager::tagShopItemMovieInfo *,ioShopItemExtraInfoManager::tagShopItemMovieInfo *>, COMDAT

; 2142 : 	{	// copy [_First, _Last) to [_Dest, ...), arbitrary iterators

  00000	55		 push	 ebp
  00001	8b ec		 mov	 ebp, esp
  00003	56		 push	 esi

; 2143 : 	for (; _First != _Last; ++_Dest, ++_First)

  00004	8b 75 08	 mov	 esi, DWORD PTR __First$[ebp]
  00007	eb 10		 jmp	 SHORT $LN9@Copy_impl
$LL3@Copy_impl:

; 2144 : 		*_Dest = *_First;

  00009	8b 4d 10	 mov	 ecx, DWORD PTR __Dest$[ebp]
  0000c	56		 push	 esi
  0000d	e8 00 00 00 00	 call	 ??4tagShopItemMovieInfo@ioShopItemExtraInfoManager@@QAEAAU01@ABU01@@Z
  00012	83 45 10 34	 add	 DWORD PTR __Dest$[ebp], 52 ; 00000034H
  00016	83 c6 34	 add	 esi, 52			; 00000034H
$LN9@Copy_impl:

; 2143 : 	for (; _First != _Last; ++_Dest, ++_First)

  00019	3b 75 0c	 cmp	 esi, DWORD PTR __Last$[ebp]
  0001c	75 eb		 jne	 SHORT $LL3@Copy_impl

; 2145 : 	return (_Dest);

  0001e	8b 45 10	 mov	 eax, DWORD PTR __Dest$[ebp]
  00021	5e		 pop	 esi

; 2146 : 	}

  00022	5d		 pop	 ebp
  00023	c3		 ret	 0
??$_Copy_impl@PAUtagShopItemMovieInfo@ioShopItemExtraInfoManager@@PAU12@@std@@YAPAUtagShopItemMovieInfo@ioShopItemExtraInfoManager@@PAU12@00U_Nonscalar_ptr_iterator_tag@0@@Z ENDP ; std::_Copy_impl<ioShopItemExtraInfoManager::tagShopItemMovieInfo *,ioShopItemExtraInfoManager::tagShopItemMovieInfo *>
_TEXT	ENDS
PUBLIC	??_GtagShopItemMovieInfo@ioShopItemExtraInfoManager@@QAEPAXI@Z ; ioShopItemExtraInfoManager::tagShopItemMovieInfo::`scalar deleting destructor'
; Function compile flags: /Ogsp
;	COMDAT ??_GtagShopItemMovieInfo@ioShopItemExtraInfoManager@@QAEPAXI@Z
_TEXT	SEGMENT
___flags$ = 8						; size = 4
??_GtagShopItemMovieInfo@ioShopItemExtraInfoManager@@QAEPAXI@Z PROC ; ioShopItemExtraInfoManager::tagShopItemMovieInfo::`scalar deleting destructor', COMDAT
; _this$ = ecx
  00000	55		 push	 ebp
  00001	8b ec		 mov	 ebp, esp
  00003	56		 push	 esi
  00004	8b f1		 mov	 esi, ecx
  00006	e8 00 00 00 00	 call	 ??1tagShopItemMovieInfo@ioShopItemExtraInfoManager@@QAE@XZ
  0000b	f6 45 08 01	 test	 BYTE PTR ___flags$[ebp], 1
  0000f	74 07		 je	 SHORT $LN1@scalar@2
  00011	56		 push	 esi
  00012	e8 00 00 00 00	 call	 ??3@YAXPAX@Z		; operator delete
  00017	59		 pop	 ecx
$LN1@scalar@2:
  00018	8b c6		 mov	 eax, esi
  0001a	5e		 pop	 esi
  0001b	5d		 pop	 ebp
  0001c	c2 04 00	 ret	 4
??_GtagShopItemMovieInfo@ioShopItemExtraInfoManager@@QAEPAXI@Z ENDP ; ioShopItemExtraInfoManager::tagShopItemMovieInfo::`scalar deleting destructor'
_TEXT	ENDS
PUBLIC	??$forward@UtagShopItemMovieInfo@ioShopItemExtraInfoManager@@@std@@YA$$QAUtagShopItemMovieInfo@ioShopItemExtraInfoManager@@AAU12@@Z ; std::forward<ioShopItemExtraInfoManager::tagShopItemMovieInfo>
; Function compile flags: /Ogsp
; File c:\program files (x86)\microsoft visual studio 10.0\vc\include\utility
;	COMDAT ??$forward@UtagShopItemMovieInfo@ioShopItemExtraInfoManager@@@std@@YA$$QAUtagShopItemMovieInfo@ioShopItemExtraInfoManager@@AAU12@@Z
_TEXT	SEGMENT
__Arg$ = 8						; size = 4
??$forward@UtagShopItemMovieInfo@ioShopItemExtraInfoManager@@@std@@YA$$QAUtagShopItemMovieInfo@ioShopItemExtraInfoManager@@AAU12@@Z PROC ; std::forward<ioShopItemExtraInfoManager::tagShopItemMovieInfo>, COMDAT

; 78   : 	{	// forward _Arg, given explicitly specified type parameter

  00000	55		 push	 ebp
  00001	8b ec		 mov	 ebp, esp

; 79   : 	return ((_Ty&&)_Arg);

  00003	8b 45 08	 mov	 eax, DWORD PTR __Arg$[ebp]

; 80   : 	}

  00006	5d		 pop	 ebp
  00007	c3		 ret	 0
??$forward@UtagShopItemMovieInfo@ioShopItemExtraInfoManager@@@std@@YA$$QAUtagShopItemMovieInfo@ioShopItemExtraInfoManager@@AAU12@@Z ENDP ; std::forward<ioShopItemExtraInfoManager::tagShopItemMovieInfo>
_TEXT	ENDS
PUBLIC	??$forward@UtagShopItemExtraInfo@ioShopItemExtraInfoManager@@@std@@YA$$QAUtagShopItemExtraInfo@ioShopItemExtraInfoManager@@AAU12@@Z ; std::forward<ioShopItemExtraInfoManager::tagShopItemExtraInfo>
; Function compile flags: /Ogsp
;	COMDAT ??$forward@UtagShopItemExtraInfo@ioShopItemExtraInfoManager@@@std@@YA$$QAUtagShopItemExtraInfo@ioShopItemExtraInfoManager@@AAU12@@Z
_TEXT	SEGMENT
__Arg$ = 8						; size = 4
??$forward@UtagShopItemExtraInfo@ioShopItemExtraInfoManager@@@std@@YA$$QAUtagShopItemExtraInfo@ioShopItemExtraInfoManager@@AAU12@@Z PROC ; std::forward<ioShopItemExtraInfoManager::tagShopItemExtraInfo>, COMDAT

; 78   : 	{	// forward _Arg, given explicitly specified type parameter

  00000	55		 push	 ebp
  00001	8b ec		 mov	 ebp, esp

; 79   : 	return ((_Ty&&)_Arg);

  00003	8b 45 08	 mov	 eax, DWORD PTR __Arg$[ebp]

; 80   : 	}

  00006	5d		 pop	 ebp
  00007	c3		 ret	 0
??$forward@UtagShopItemExtraInfo@ioShopItemExtraInfoManager@@@std@@YA$$QAUtagShopItemExtraInfo@ioShopItemExtraInfoManager@@AAU12@@Z ENDP ; std::forward<ioShopItemExtraInfoManager::tagShopItemExtraInfo>
_TEXT	ENDS
PUBLIC	??$_Ptr_cat@V?$_Vector_const_iterator@V?$_Vector_val@HV?$allocator@H@std@@@std@@@std@@PAH@std@@YA?AU_Nonscalar_ptr_iterator_tag@0@AAV?$_Vector_const_iterator@V?$_Vector_val@HV?$allocator@H@std@@@std@@@0@AAPAH@Z ; std::_Ptr_cat<std::_Vector_const_iterator<std::_Vector_val<int,std::allocator<int> > >,int *>
; Function compile flags: /Ogsp
; File c:\program files (x86)\microsoft visual studio 10.0\vc\include\xutility
;	COMDAT ??$_Ptr_cat@V?$_Vector_const_iterator@V?$_Vector_val@HV?$allocator@H@std@@@std@@@std@@PAH@std@@YA?AU_Nonscalar_ptr_iterator_tag@0@AAV?$_Vector_const_iterator@V?$_Vector_val@HV?$allocator@H@std@@@std@@@0@AAPAH@Z
_TEXT	SEGMENT
__Cat$ = -1						; size = 1
___formal$ = 8						; size = 4
___formal$ = 12						; size = 4
??$_Ptr_cat@V?$_Vector_const_iterator@V?$_Vector_val@HV?$allocator@H@std@@@std@@@std@@PAH@std@@YA?AU_Nonscalar_ptr_iterator_tag@0@AAV?$_Vector_const_iterator@V?$_Vector_val@HV?$allocator@H@std@@@std@@@0@AAPAH@Z PROC ; std::_Ptr_cat<std::_Vector_const_iterator<std::_Vector_val<int,std::allocator<int> > >,int *>, COMDAT

; 485  : 	{	// return pointer category from arbitrary arguments

  00000	55		 push	 ebp
  00001	8b ec		 mov	 ebp, esp
  00003	51		 push	 ecx

; 486  : 	_Nonscalar_ptr_iterator_tag _Cat;
; 487  : 	return (_Cat);

  00004	8a 45 ff	 mov	 al, BYTE PTR __Cat$[ebp]

; 488  : 	}

  00007	c9		 leave
  00008	c3		 ret	 0
??$_Ptr_cat@V?$_Vector_const_iterator@V?$_Vector_val@HV?$allocator@H@std@@@std@@@std@@PAH@std@@YA?AU_Nonscalar_ptr_iterator_tag@0@AAV?$_Vector_const_iterator@V?$_Vector_val@HV?$allocator@H@std@@@std@@@0@AAPAH@Z ENDP ; std::_Ptr_cat<std::_Vector_const_iterator<std::_Vector_val<int,std::allocator<int> > >,int *>
_TEXT	ENDS
PUBLIC	??$_Uninit_copy@HH@std@@YAPAHPAH00AAV?$allocator@H@0@U_Scalar_ptr_iterator_tag@0@@Z ; std::_Uninit_copy<int,int>
; Function compile flags: /Ogsp
; File c:\program files (x86)\microsoft visual studio 10.0\vc\include\memory
;	COMDAT ??$_Uninit_copy@HH@std@@YAPAHPAH00AAV?$allocator@H@0@U_Scalar_ptr_iterator_tag@0@@Z
_TEXT	SEGMENT
__First$ = 8						; size = 4
__Last$ = 12						; size = 4
__Dest$ = 16						; size = 4
___formal$ = 20						; size = 4
___formal$ = 24						; size = 1
??$_Uninit_copy@HH@std@@YAPAHPAH00AAV?$allocator@H@0@U_Scalar_ptr_iterator_tag@0@@Z PROC ; std::_Uninit_copy<int,int>, COMDAT

; 399  : 	{	// copy [_First, _Last) to raw _Dest, scalar type

  00000	55		 push	 ebp
  00001	8b ec		 mov	 ebp, esp
  00003	56		 push	 esi

; 400  : 	_DEBUG_RANGE(_First, _Last);
; 401  : 	_DEBUG_POINTER(_Dest);
; 402  : 	size_t _Count = (size_t)(_Last - _First);

  00004	8b 75 0c	 mov	 esi, DWORD PTR __Last$[ebp]
  00007	2b 75 08	 sub	 esi, DWORD PTR __First$[ebp]
  0000a	c1 fe 02	 sar	 esi, 2

; 403  : 	return ((_Ty2 *)_CSTD memmove(&*_Dest, &*_First,
; 404  : 		_Count * sizeof (*_First)) + _Count);	// NB: non-overlapping move

  0000d	c1 e6 02	 shl	 esi, 2
  00010	56		 push	 esi
  00011	ff 75 08	 push	 DWORD PTR __First$[ebp]
  00014	ff 75 10	 push	 DWORD PTR __Dest$[ebp]
  00017	ff 15 00 00 00
	00		 call	 DWORD PTR __imp__memmove
  0001d	83 c4 0c	 add	 esp, 12			; 0000000cH
  00020	03 c6		 add	 eax, esi
  00022	5e		 pop	 esi

; 405  : 	}

  00023	5d		 pop	 ebp
  00024	c3		 ret	 0
??$_Uninit_copy@HH@std@@YAPAHPAH00AAV?$allocator@H@0@U_Scalar_ptr_iterator_tag@0@@Z ENDP ; std::_Uninit_copy<int,int>
_TEXT	ENDS
PUBLIC	??$_Ptr_cat@V?$_Vector_const_iterator@V?$_Vector_val@UtagShopItemMovieInfo@ioShopItemExtraInfoManager@@V?$allocator@UtagShopItemMovieInfo@ioShopItemExtraInfoManager@@@std@@@std@@@std@@PAUtagShopItemMovieInfo@ioShopItemExtraInfoManager@@@std@@YA?AU_Nonscalar_ptr_iterator_tag@0@AAV?$_Vector_const_iterator@V?$_Vector_val@UtagShopItemMovieInfo@ioShopItemExtraInfoManager@@V?$allocator@UtagShopItemMovieInfo@ioShopItemExtraInfoManager@@@std@@@std@@@0@AAPAUtagShopItemMovieInfo@ioShopItemExtraInfoManager@@@Z ; std::_Ptr_cat<std::_Vector_const_iterator<std::_Vector_val<ioShopItemExtraInfoManager::tagShopItemMovieInfo,std::allocator<ioShopItemExtraInfoManager::tagShopItemMovieInfo> > >,ioShopItemExtraInfoManager::tagShopItemMovieInfo *>
; Function compile flags: /Ogsp
; File c:\program files (x86)\microsoft visual studio 10.0\vc\include\xutility
;	COMDAT ??$_Ptr_cat@V?$_Vector_const_iterator@V?$_Vector_val@UtagShopItemMovieInfo@ioShopItemExtraInfoManager@@V?$allocator@UtagShopItemMovieInfo@ioShopItemExtraInfoManager@@@std@@@std@@@std@@PAUtagShopItemMovieInfo@ioShopItemExtraInfoManager@@@std@@YA?AU_Nonscalar_ptr_iterator_tag@0@AAV?$_Vector_const_iterator@V?$_Vector_val@UtagShopItemMovieInfo@ioShopItemExtraInfoManager@@V?$allocator@UtagShopItemMovieInfo@ioShopItemExtraInfoManager@@@std@@@std@@@0@AAPAUtagShopItemMovieInfo@ioShopItemExtraInfoManager@@@Z
_TEXT	SEGMENT
__Cat$ = -1						; size = 1
___formal$ = 8						; size = 4
___formal$ = 12						; size = 4
??$_Ptr_cat@V?$_Vector_const_iterator@V?$_Vector_val@UtagShopItemMovieInfo@ioShopItemExtraInfoManager@@V?$allocator@UtagShopItemMovieInfo@ioShopItemExtraInfoManager@@@std@@@std@@@std@@PAUtagShopItemMovieInfo@ioShopItemExtraInfoManager@@@std@@YA?AU_Nonscalar_ptr_iterator_tag@0@AAV?$_Vector_const_iterator@V?$_Vector_val@UtagShopItemMovieInfo@ioShopItemExtraInfoManager@@V?$allocator@UtagShopItemMovieInfo@ioShopItemExtraInfoManager@@@std@@@std@@@0@AAPAUtagShopItemMovieInfo@ioShopItemExtraInfoManager@@@Z PROC ; std::_Ptr_cat<std::_Vector_const_iterator<std::_Vector_val<ioShopItemExtraInfoManager::tagShopItemMovieInfo,std::allocator<ioShopItemExtraInfoManager::tagShopItemMovieInfo> > >,ioShopItemExtraInfoManager::tagShopItemMovieInfo *>, COMDAT

; 485  : 	{	// return pointer category from arbitrary arguments

  00000	55		 push	 ebp
  00001	8b ec		 mov	 ebp, esp
  00003	51		 push	 ecx

; 486  : 	_Nonscalar_ptr_iterator_tag _Cat;
; 487  : 	return (_Cat);

  00004	8a 45 ff	 mov	 al, BYTE PTR __Cat$[ebp]

; 488  : 	}

  00007	c9		 leave
  00008	c3		 ret	 0
??$_Ptr_cat@V?$_Vector_const_iterator@V?$_Vector_val@UtagShopItemMovieInfo@ioShopItemExtraInfoManager@@V?$allocator@UtagShopItemMovieInfo@ioShopItemExtraInfoManager@@@std@@@std@@@std@@PAUtagShopItemMovieInfo@ioShopItemExtraInfoManager@@@std@@YA?AU_Nonscalar_ptr_iterator_tag@0@AAV?$_Vector_const_iterator@V?$_Vector_val@UtagShopItemMovieInfo@ioShopItemExtraInfoManager@@V?$allocator@UtagShopItemMovieInfo@ioShopItemExtraInfoManager@@@std@@@std@@@0@AAPAUtagShopItemMovieInfo@ioShopItemExtraInfoManager@@@Z ENDP ; std::_Ptr_cat<std::_Vector_const_iterator<std::_Vector_val<ioShopItemExtraInfoManager::tagShopItemMovieInfo,std::allocator<ioShopItemExtraInfoManager::tagShopItemMovieInfo> > >,ioShopItemExtraInfoManager::tagShopItemMovieInfo *>
_TEXT	ENDS
PUBLIC	??D?$_Vector_const_iterator@V?$_Vector_val@HV?$allocator@H@std@@@std@@@std@@QBEABHXZ ; std::_Vector_const_iterator<std::_Vector_val<int,std::allocator<int> > >::operator*
; Function compile flags: /Ogsp
; File c:\program files (x86)\microsoft visual studio 10.0\vc\include\vector
;	COMDAT ??D?$_Vector_const_iterator@V?$_Vector_val@HV?$allocator@H@std@@@std@@@std@@QBEABHXZ
_TEXT	SEGMENT
??D?$_Vector_const_iterator@V?$_Vector_val@HV?$allocator@H@std@@@std@@@std@@QBEABHXZ PROC ; std::_Vector_const_iterator<std::_Vector_val<int,std::allocator<int> > >::operator*, COMDAT
; _this$ = ecx

; 64   :  #if _ITERATOR_DEBUG_LEVEL == 2
; 65   : 		if (this->_Getcont() == 0
; 66   : 			|| this->_Ptr == 0
; 67   : 			|| this->_Ptr < ((_Myvec *)this->_Getcont())->_Myfirst
; 68   : 			|| ((_Myvec *)this->_Getcont())->_Mylast <= this->_Ptr)
; 69   : 			{	// report error
; 70   : 			_DEBUG_ERROR("vector iterator not dereferencable");
; 71   : 			_SCL_SECURE_OUT_OF_RANGE;
; 72   : 			}
; 73   : 
; 74   :  #elif _ITERATOR_DEBUG_LEVEL == 1
; 75   : 		_SCL_SECURE_VALIDATE(this->_Getcont() != 0);
; 76   : 		_SCL_SECURE_VALIDATE_RANGE(
; 77   : 			this->_Ptr != 0
; 78   : 			&& ((_Myvec *)this->_Getcont())->_Myfirst <= this->_Ptr
; 79   : 			&& this->_Ptr < ((_Myvec *)this->_Getcont())->_Mylast);
; 80   :  #endif /* _ITERATOR_DEBUG_LEVEL */
; 81   : 
; 82   : 		__analysis_assume(this->_Ptr != 0);
; 83   : 
; 84   : 		return (*this->_Ptr);

  00000	8b 01		 mov	 eax, DWORD PTR [ecx]

; 85   : 		}

  00002	c3		 ret	 0
??D?$_Vector_const_iterator@V?$_Vector_val@HV?$allocator@H@std@@@std@@@std@@QBEABHXZ ENDP ; std::_Vector_const_iterator<std::_Vector_val<int,std::allocator<int> > >::operator*
_TEXT	ENDS
PUBLIC	??E?$_Vector_const_iterator@V?$_Vector_val@HV?$allocator@H@std@@@std@@@std@@QAEAAV01@XZ ; std::_Vector_const_iterator<std::_Vector_val<int,std::allocator<int> > >::operator++
; Function compile flags: /Ogsp
;	COMDAT ??E?$_Vector_const_iterator@V?$_Vector_val@HV?$allocator@H@std@@@std@@@std@@QAEAAV01@XZ
_TEXT	SEGMENT
??E?$_Vector_const_iterator@V?$_Vector_val@HV?$allocator@H@std@@@std@@@std@@QAEAAV01@XZ PROC ; std::_Vector_const_iterator<std::_Vector_val<int,std::allocator<int> > >::operator++, COMDAT
; _this$ = ecx

; 93   : 		{	// preincrement

  00000	8b c1		 mov	 eax, ecx

; 94   :  #if _ITERATOR_DEBUG_LEVEL == 2
; 95   : 		if (this->_Getcont() == 0
; 96   : 			|| this->_Ptr == 0
; 97   : 			|| ((_Myvec *)this->_Getcont())->_Mylast <= this->_Ptr)
; 98   : 			{	// report error
; 99   : 			_DEBUG_ERROR("vector iterator not incrementable");
; 100  : 			_SCL_SECURE_OUT_OF_RANGE;
; 101  : 			}
; 102  : 
; 103  :  #elif _ITERATOR_DEBUG_LEVEL == 1
; 104  : 		_SCL_SECURE_VALIDATE(this->_Getcont() != 0);
; 105  : 		_SCL_SECURE_VALIDATE_RANGE(
; 106  : 			this->_Ptr != 0
; 107  : 			&& this->_Ptr < ((_Myvec *)this->_Getcont())->_Mylast);
; 108  :  #endif /* _ITERATOR_DEBUG_LEVEL */
; 109  : 
; 110  : 		++this->_Ptr;

  00002	83 00 04	 add	 DWORD PTR [eax], 4

; 111  : 		return (*this);
; 112  : 		}

  00005	c3		 ret	 0
??E?$_Vector_const_iterator@V?$_Vector_val@HV?$allocator@H@std@@@std@@@std@@QAEAAV01@XZ ENDP ; std::_Vector_const_iterator<std::_Vector_val<int,std::allocator<int> > >::operator++
_TEXT	ENDS
PUBLIC	??D?$_Vector_const_iterator@V?$_Vector_val@UtagShopItemMovieInfo@ioShopItemExtraInfoManager@@V?$allocator@UtagShopItemMovieInfo@ioShopItemExtraInfoManager@@@std@@@std@@@std@@QBEABUtagShopItemMovieInfo@ioShopItemExtraInfoManager@@XZ ; std::_Vector_const_iterator<std::_Vector_val<ioShopItemExtraInfoManager::tagShopItemMovieInfo,std::allocator<ioShopItemExtraInfoManager::tagShopItemMovieInfo> > >::operator*
; Function compile flags: /Ogsp
;	COMDAT ??D?$_Vector_const_iterator@V?$_Vector_val@UtagShopItemMovieInfo@ioShopItemExtraInfoManager@@V?$allocator@UtagShopItemMovieInfo@ioShopItemExtraInfoManager@@@std@@@std@@@std@@QBEABUtagShopItemMovieInfo@ioShopItemExtraInfoManager@@XZ
_TEXT	SEGMENT
??D?$_Vector_const_iterator@V?$_Vector_val@UtagShopItemMovieInfo@ioShopItemExtraInfoManager@@V?$allocator@UtagShopItemMovieInfo@ioShopItemExtraInfoManager@@@std@@@std@@@std@@QBEABUtagShopItemMovieInfo@ioShopItemExtraInfoManager@@XZ PROC ; std::_Vector_const_iterator<std::_Vector_val<ioShopItemExtraInfoManager::tagShopItemMovieInfo,std::allocator<ioShopItemExtraInfoManager::tagShopItemMovieInfo> > >::operator*, COMDAT
; _this$ = ecx

; 64   :  #if _ITERATOR_DEBUG_LEVEL == 2
; 65   : 		if (this->_Getcont() == 0
; 66   : 			|| this->_Ptr == 0
; 67   : 			|| this->_Ptr < ((_Myvec *)this->_Getcont())->_Myfirst
; 68   : 			|| ((_Myvec *)this->_Getcont())->_Mylast <= this->_Ptr)
; 69   : 			{	// report error
; 70   : 			_DEBUG_ERROR("vector iterator not dereferencable");
; 71   : 			_SCL_SECURE_OUT_OF_RANGE;
; 72   : 			}
; 73   : 
; 74   :  #elif _ITERATOR_DEBUG_LEVEL == 1
; 75   : 		_SCL_SECURE_VALIDATE(this->_Getcont() != 0);
; 76   : 		_SCL_SECURE_VALIDATE_RANGE(
; 77   : 			this->_Ptr != 0
; 78   : 			&& ((_Myvec *)this->_Getcont())->_Myfirst <= this->_Ptr
; 79   : 			&& this->_Ptr < ((_Myvec *)this->_Getcont())->_Mylast);
; 80   :  #endif /* _ITERATOR_DEBUG_LEVEL */
; 81   : 
; 82   : 		__analysis_assume(this->_Ptr != 0);
; 83   : 
; 84   : 		return (*this->_Ptr);

  00000	8b 01		 mov	 eax, DWORD PTR [ecx]

; 85   : 		}

  00002	c3		 ret	 0
??D?$_Vector_const_iterator@V?$_Vector_val@UtagShopItemMovieInfo@ioShopItemExtraInfoManager@@V?$allocator@UtagShopItemMovieInfo@ioShopItemExtraInfoManager@@@std@@@std@@@std@@QBEABUtagShopItemMovieInfo@ioShopItemExtraInfoManager@@XZ ENDP ; std::_Vector_const_iterator<std::_Vector_val<ioShopItemExtraInfoManager::tagShopItemMovieInfo,std::allocator<ioShopItemExtraInfoManager::tagShopItemMovieInfo> > >::operator*
_TEXT	ENDS
PUBLIC	??E?$_Vector_const_iterator@V?$_Vector_val@UtagShopItemMovieInfo@ioShopItemExtraInfoManager@@V?$allocator@UtagShopItemMovieInfo@ioShopItemExtraInfoManager@@@std@@@std@@@std@@QAEAAV01@XZ ; std::_Vector_const_iterator<std::_Vector_val<ioShopItemExtraInfoManager::tagShopItemMovieInfo,std::allocator<ioShopItemExtraInfoManager::tagShopItemMovieInfo> > >::operator++
; Function compile flags: /Ogsp
;	COMDAT ??E?$_Vector_const_iterator@V?$_Vector_val@UtagShopItemMovieInfo@ioShopItemExtraInfoManager@@V?$allocator@UtagShopItemMovieInfo@ioShopItemExtraInfoManager@@@std@@@std@@@std@@QAEAAV01@XZ
_TEXT	SEGMENT
??E?$_Vector_const_iterator@V?$_Vector_val@UtagShopItemMovieInfo@ioShopItemExtraInfoManager@@V?$allocator@UtagShopItemMovieInfo@ioShopItemExtraInfoManager@@@std@@@std@@@std@@QAEAAV01@XZ PROC ; std::_Vector_const_iterator<std::_Vector_val<ioShopItemExtraInfoManager::tagShopItemMovieInfo,std::allocator<ioShopItemExtraInfoManager::tagShopItemMovieInfo> > >::operator++, COMDAT
; _this$ = ecx

; 93   : 		{	// preincrement

  00000	8b c1		 mov	 eax, ecx

; 94   :  #if _ITERATOR_DEBUG_LEVEL == 2
; 95   : 		if (this->_Getcont() == 0
; 96   : 			|| this->_Ptr == 0
; 97   : 			|| ((_Myvec *)this->_Getcont())->_Mylast <= this->_Ptr)
; 98   : 			{	// report error
; 99   : 			_DEBUG_ERROR("vector iterator not incrementable");
; 100  : 			_SCL_SECURE_OUT_OF_RANGE;
; 101  : 			}
; 102  : 
; 103  :  #elif _ITERATOR_DEBUG_LEVEL == 1
; 104  : 		_SCL_SECURE_VALIDATE(this->_Getcont() != 0);
; 105  : 		_SCL_SECURE_VALIDATE_RANGE(
; 106  : 			this->_Ptr != 0
; 107  : 			&& this->_Ptr < ((_Myvec *)this->_Getcont())->_Mylast);
; 108  :  #endif /* _ITERATOR_DEBUG_LEVEL */
; 109  : 
; 110  : 		++this->_Ptr;

  00002	83 00 34	 add	 DWORD PTR [eax], 52	; 00000034H

; 111  : 		return (*this);
; 112  : 		}

  00005	c3		 ret	 0
??E?$_Vector_const_iterator@V?$_Vector_val@UtagShopItemMovieInfo@ioShopItemExtraInfoManager@@V?$allocator@UtagShopItemMovieInfo@ioShopItemExtraInfoManager@@@std@@@std@@@std@@QAEAAV01@XZ ENDP ; std::_Vector_const_iterator<std::_Vector_val<ioShopItemExtraInfoManager::tagShopItemMovieInfo,std::allocator<ioShopItemExtraInfoManager::tagShopItemMovieInfo> > >::operator++
_TEXT	ENDS
PUBLIC	??$_Destroy@H@std@@YAXPAH@Z			; std::_Destroy<int>
; Function compile flags: /Ogsp
; File c:\program files (x86)\microsoft visual studio 10.0\vc\include\xmemory
;	COMDAT ??$_Destroy@H@std@@YAXPAH@Z
_TEXT	SEGMENT
__Ptr$ = 8						; size = 4
??$_Destroy@H@std@@YAXPAH@Z PROC			; std::_Destroy<int>, COMDAT

; 63   : 	_Ptr->~_Ty();
; 64   : 	}

  00000	c3		 ret	 0
??$_Destroy@H@std@@YAXPAH@Z ENDP			; std::_Destroy<int>
_TEXT	ENDS
PUBLIC	?_DECSTR@@YAXPADH@Z				; _DECSTR
; Function compile flags: /Ogsp
; File d:\lost saga for developer\youtube\tutorial\source\src\lsclient\stringprotect.h
;	COMDAT ?_DECSTR@@YAXPADH@Z
_TEXT	SEGMENT
_s$ = 8							; size = 4
_l$ = 12						; size = 4
?_DECSTR@@YAXPADH@Z PROC				; _DECSTR, COMDAT

; 40   : __forceinline void _DECSTR(char* s, int l){int i=0,l4=(l-1)/4,*p=(int*)s;s[l-1]=0;for(;i<l4;++i)*(p++)^=0xEAEBECED;for(i=l4*4;i<l-1;++i)s[i]^=0xED-i%4;}

  00000	55		 push	 ebp
  00001	8b ec		 mov	 ebp, esp
  00003	8b 4d 0c	 mov	 ecx, DWORD PTR _l$[ebp]
  00006	56		 push	 esi
  00007	8b 75 08	 mov	 esi, DWORD PTR _s$[ebp]
  0000a	57		 push	 edi
  0000b	8d 79 ff	 lea	 edi, DWORD PTR [ecx-1]
  0000e	8b c7		 mov	 eax, edi
  00010	99		 cdq
  00011	83 e2 03	 and	 edx, 3
  00014	03 c2		 add	 eax, edx
  00016	c1 f8 02	 sar	 eax, 2
  00019	8b d6		 mov	 edx, esi
  0001b	c6 44 0e ff 00	 mov	 BYTE PTR [esi+ecx-1], 0
  00020	85 c0		 test	 eax, eax
  00022	7e 0e		 jle	 SHORT $LN4@DECSTR
  00024	8b c8		 mov	 ecx, eax
$LL6@DECSTR:
  00026	81 32 ed ec eb
	ea		 xor	 DWORD PTR [edx], -353637139 ; eaebecedH
  0002c	83 c2 04	 add	 edx, 4
  0002f	49		 dec	 ecx
  00030	75 f4		 jne	 SHORT $LL6@DECSTR
$LN4@DECSTR:
  00032	c1 e0 02	 shl	 eax, 2
  00035	eb 17		 jmp	 SHORT $LN14@DECSTR
$LL3@DECSTR:
  00037	8b c8		 mov	 ecx, eax
  00039	81 e1 03 00 00
	80		 and	 ecx, -2147483645	; 80000003H
  0003f	79 05		 jns	 SHORT $LN13@DECSTR
  00041	49		 dec	 ecx
  00042	83 c9 fc	 or	 ecx, -4			; fffffffcH
  00045	41		 inc	 ecx
$LN13@DECSTR:
  00046	b2 ed		 mov	 dl, -19			; ffffffedH
  00048	2a d1		 sub	 dl, cl
  0004a	30 14 30	 xor	 BYTE PTR [eax+esi], dl
  0004d	40		 inc	 eax
$LN14@DECSTR:
  0004e	3b c7		 cmp	 eax, edi
  00050	7c e5		 jl	 SHORT $LL3@DECSTR
  00052	5f		 pop	 edi
  00053	5e		 pop	 esi
  00054	5d		 pop	 ebp
  00055	c3		 ret	 0
?_DECSTR@@YAXPADH@Z ENDP				; _DECSTR
_TEXT	ENDS
PUBLIC	??0ioINILoader_e@@QAE@ABVioINILoader@@@Z	; ioINILoader_e::ioINILoader_e
EXTRN	__imp_??0ioINILoader@@QAE@ABV0@@Z:PROC
; Function compile flags: /Ogsp
; File d:\lost saga for developer\youtube\tutorial\source\src\io3dengine\ioiniloader.h
;	COMDAT ??0ioINILoader_e@@QAE@ABVioINILoader@@@Z
_TEXT	SEGMENT
_rhs$ = 8						; size = 4
??0ioINILoader_e@@QAE@ABVioINILoader@@@Z PROC		; ioINILoader_e::ioINILoader_e, COMDAT
; _this$ = ecx

; 237  : 	{

  00000	55		 push	 ebp
  00001	8b ec		 mov	 ebp, esp
  00003	56		 push	 esi
  00004	ff 75 08	 push	 DWORD PTR _rhs$[ebp]
  00007	8b f1		 mov	 esi, ecx
  00009	ff 15 00 00 00
	00		 call	 DWORD PTR __imp_??0ioINILoader@@QAE@ABV0@@Z

; 238  : 	}

  0000f	8b c6		 mov	 eax, esi
  00011	5e		 pop	 esi
  00012	5d		 pop	 ebp
  00013	c2 04 00	 ret	 4
??0ioINILoader_e@@QAE@ABVioINILoader@@@Z ENDP		; ioINILoader_e::ioINILoader_e
_TEXT	ENDS
PUBLIC	?size@?$vector@HV?$allocator@H@std@@@std@@QBEIXZ ; std::vector<int,std::allocator<int> >::size
; Function compile flags: /Ogsp
; File c:\program files (x86)\microsoft visual studio 10.0\vc\include\vector
;	COMDAT ?size@?$vector@HV?$allocator@H@std@@@std@@QBEIXZ
_TEXT	SEGMENT
?size@?$vector@HV?$allocator@H@std@@@std@@QBEIXZ PROC	; std::vector<int,std::allocator<int> >::size, COMDAT
; _this$ = ecx

; 879  : 		return (this->_Mylast - this->_Myfirst);

  00000	8b 41 04	 mov	 eax, DWORD PTR [ecx+4]
  00003	2b 01		 sub	 eax, DWORD PTR [ecx]
  00005	c1 f8 02	 sar	 eax, 2

; 880  : 		}

  00008	c3		 ret	 0
?size@?$vector@HV?$allocator@H@std@@@std@@QBEIXZ ENDP	; std::vector<int,std::allocator<int> >::size
_TEXT	ENDS
PUBLIC	?empty@?$vector@HV?$allocator@H@std@@@std@@QBE_NXZ ; std::vector<int,std::allocator<int> >::empty
; Function compile flags: /Ogsp
;	COMDAT ?empty@?$vector@HV?$allocator@H@std@@@std@@QBE_NXZ
_TEXT	SEGMENT
?empty@?$vector@HV?$allocator@H@std@@@std@@QBE_NXZ PROC	; std::vector<int,std::allocator<int> >::empty, COMDAT
; _this$ = ecx

; 889  : 		return (this->_Myfirst == this->_Mylast);

  00000	8b 01		 mov	 eax, DWORD PTR [ecx]
  00002	2b 41 04	 sub	 eax, DWORD PTR [ecx+4]
  00005	f7 d8		 neg	 eax
  00007	1b c0		 sbb	 eax, eax
  00009	40		 inc	 eax

; 890  : 		}

  0000a	c3		 ret	 0
?empty@?$vector@HV?$allocator@H@std@@@std@@QBE_NXZ ENDP	; std::vector<int,std::allocator<int> >::empty
_TEXT	ENDS
PUBLIC	??A?$vector@HV?$allocator@H@std@@@std@@QBEABHI@Z ; std::vector<int,std::allocator<int> >::operator[]
; Function compile flags: /Ogsp
;	COMDAT ??A?$vector@HV?$allocator@H@std@@@std@@QBEABHI@Z
_TEXT	SEGMENT
__Pos$ = 8						; size = 4
??A?$vector@HV?$allocator@H@std@@@std@@QBEABHI@Z PROC	; std::vector<int,std::allocator<int> >::operator[], COMDAT
; _this$ = ecx

; 912  : 		{	// subscript nonmutable sequence

  00000	55		 push	 ebp
  00001	8b ec		 mov	 ebp, esp

; 913  :  #if _ITERATOR_DEBUG_LEVEL == 2
; 914  : 		if (size() <= _Pos)
; 915  : 			{	// report error
; 916  : 			_DEBUG_ERROR("vector subscript out of range");
; 917  : 			_SCL_SECURE_OUT_OF_RANGE;
; 918  : 			}
; 919  : 
; 920  :  #elif _ITERATOR_DEBUG_LEVEL == 1
; 921  : 		_SCL_SECURE_VALIDATE_RANGE(_Pos < size());
; 922  :  #endif /* _ITERATOR_DEBUG_LEVEL */
; 923  : 
; 924  : 		return (*(this->_Myfirst + _Pos));

  00003	8b 01		 mov	 eax, DWORD PTR [ecx]
  00005	8b 4d 08	 mov	 ecx, DWORD PTR __Pos$[ebp]
  00008	8d 04 88	 lea	 eax, DWORD PTR [eax+ecx*4]

; 925  : 		}

  0000b	5d		 pop	 ebp
  0000c	c2 04 00	 ret	 4
??A?$vector@HV?$allocator@H@std@@@std@@QBEABHI@Z ENDP	; std::vector<int,std::allocator<int> >::operator[]
_TEXT	ENDS
PUBLIC	??0?$allocator@H@std@@QAE@XZ			; std::allocator<int>::allocator<int>
; Function compile flags: /Ogsp
; File c:\program files (x86)\microsoft visual studio 10.0\vc\include\xmemory
;	COMDAT ??0?$allocator@H@std@@QAE@XZ
_TEXT	SEGMENT
??0?$allocator@H@std@@QAE@XZ PROC			; std::allocator<int>::allocator<int>, COMDAT
; _this$ = ecx

; 161  : 	_ALLOCATOR() _THROW0()

  00000	8b c1		 mov	 eax, ecx

; 162  : 		{	// construct default allocator (do nothing)
; 163  : 		}

  00002	c3		 ret	 0
??0?$allocator@H@std@@QAE@XZ ENDP			; std::allocator<int>::allocator<int>
_TEXT	ENDS
PUBLIC	??1?$_Vector_val@HV?$allocator@H@std@@@std@@QAE@XZ ; std::_Vector_val<int,std::allocator<int> >::~_Vector_val<int,std::allocator<int> >
; Function compile flags: /Ogsp
; File c:\program files (x86)\microsoft visual studio 10.0\vc\include\vector
;	COMDAT ??1?$_Vector_val@HV?$allocator@H@std@@@std@@QAE@XZ
_TEXT	SEGMENT
??1?$_Vector_val@HV?$allocator@H@std@@@std@@QAE@XZ PROC	; std::_Vector_val<int,std::allocator<int> >::~_Vector_val<int,std::allocator<int> >, COMDAT
; _this$ = ecx

; 434  : 		}

  00000	c3		 ret	 0
??1?$_Vector_val@HV?$allocator@H@std@@@std@@QAE@XZ ENDP	; std::_Vector_val<int,std::allocator<int> >::~_Vector_val<int,std::allocator<int> >
_TEXT	ENDS
PUBLIC	??0?$_Vector_const_iterator@V?$_Vector_val@HV?$allocator@H@std@@@std@@@std@@QAE@PAHPBU_Container_base0@1@@Z ; std::_Vector_const_iterator<std::_Vector_val<int,std::allocator<int> > >::_Vector_const_iterator<std::_Vector_val<int,std::allocator<int> > >
; Function compile flags: /Ogsp
;	COMDAT ??0?$_Vector_const_iterator@V?$_Vector_val@HV?$allocator@H@std@@@std@@@std@@QAE@PAHPBU_Container_base0@1@@Z
_TEXT	SEGMENT
__Parg$ = 8						; size = 4
__Pvector$ = 12						; size = 4
??0?$_Vector_const_iterator@V?$_Vector_val@HV?$allocator@H@std@@@std@@@std@@QAE@PAHPBU_Container_base0@1@@Z PROC ; std::_Vector_const_iterator<std::_Vector_val<int,std::allocator<int> > >::_Vector_const_iterator<std::_Vector_val<int,std::allocator<int> > >, COMDAT
; _this$ = ecx

; 45   : 		{	// construct with pointer _Parg

  00000	55		 push	 ebp
  00001	8b ec		 mov	 ebp, esp
  00003	8b c1		 mov	 eax, ecx
  00005	8b 4d 08	 mov	 ecx, DWORD PTR __Parg$[ebp]
  00008	89 08		 mov	 DWORD PTR [eax], ecx

; 46   : 		this->_Adopt(_Pvector);
; 47   : 		}

  0000a	5d		 pop	 ebp
  0000b	c2 08 00	 ret	 8
??0?$_Vector_const_iterator@V?$_Vector_val@HV?$allocator@H@std@@@std@@@std@@QAE@PAHPBU_Container_base0@1@@Z ENDP ; std::_Vector_const_iterator<std::_Vector_val<int,std::allocator<int> > >::_Vector_const_iterator<std::_Vector_val<int,std::allocator<int> > >
_TEXT	ENDS
PUBLIC	??0?$_Vector_iterator@V?$_Vector_val@HV?$allocator@H@std@@@std@@@std@@QAE@PAHPBU_Container_base0@1@@Z ; std::_Vector_iterator<std::_Vector_val<int,std::allocator<int> > >::_Vector_iterator<std::_Vector_val<int,std::allocator<int> > >
; Function compile flags: /Ogsp
;	COMDAT ??0?$_Vector_iterator@V?$_Vector_val@HV?$allocator@H@std@@@std@@@std@@QAE@PAHPBU_Container_base0@1@@Z
_TEXT	SEGMENT
__Parg$ = 8						; size = 4
__Pvector$ = 12						; size = 4
??0?$_Vector_iterator@V?$_Vector_val@HV?$allocator@H@std@@@std@@@std@@QAE@PAHPBU_Container_base0@1@@Z PROC ; std::_Vector_iterator<std::_Vector_val<int,std::allocator<int> > >::_Vector_iterator<std::_Vector_val<int,std::allocator<int> > >, COMDAT
; _this$ = ecx

; 304  : 		{	// construct with pointer _Parg

  00000	55		 push	 ebp
  00001	8b ec		 mov	 ebp, esp
  00003	8b c1		 mov	 eax, ecx
  00005	8b 4d 08	 mov	 ecx, DWORD PTR __Parg$[ebp]
  00008	89 08		 mov	 DWORD PTR [eax], ecx

; 305  : 		}

  0000a	5d		 pop	 ebp
  0000b	c2 08 00	 ret	 8
??0?$_Vector_iterator@V?$_Vector_val@HV?$allocator@H@std@@@std@@@std@@QAE@PAHPBU_Container_base0@1@@Z ENDP ; std::_Vector_iterator<std::_Vector_val<int,std::allocator<int> > >::_Vector_iterator<std::_Vector_val<int,std::allocator<int> > >
_TEXT	ENDS
PUBLIC	??0?$allocator@H@std@@QAE@ABV01@@Z		; std::allocator<int>::allocator<int>
; Function compile flags: /Ogsp
; File c:\program files (x86)\microsoft visual studio 10.0\vc\include\xmemory
;	COMDAT ??0?$allocator@H@std@@QAE@ABV01@@Z
_TEXT	SEGMENT
___formal$ = 8						; size = 4
??0?$allocator@H@std@@QAE@ABV01@@Z PROC			; std::allocator<int>::allocator<int>, COMDAT
; _this$ = ecx

; 165  : 	_ALLOCATOR(const _ALLOCATOR<_Ty>&) _THROW0()

  00000	8b c1		 mov	 eax, ecx

; 166  : 		{	// construct by copying (do nothing)
; 167  : 		}

  00002	c2 04 00	 ret	 4
??0?$allocator@H@std@@QAE@ABV01@@Z ENDP			; std::allocator<int>::allocator<int>
_TEXT	ENDS
PUBLIC	?deallocate@?$allocator@H@std@@QAEXPAHI@Z	; std::allocator<int>::deallocate
; Function compile flags: /Ogsp
;	COMDAT ?deallocate@?$allocator@H@std@@QAEXPAHI@Z
_TEXT	SEGMENT
__Ptr$ = 8						; size = 4
___formal$ = 12						; size = 4
?deallocate@?$allocator@H@std@@QAEXPAHI@Z PROC		; std::allocator<int>::deallocate, COMDAT
; _this$ = ecx

; 181  : 		{	// deallocate object at _Ptr, ignore size

  00000	55		 push	 ebp
  00001	8b ec		 mov	 ebp, esp

; 182  : 		::operator delete(_Ptr);

  00003	ff 75 08	 push	 DWORD PTR __Ptr$[ebp]
  00006	e8 00 00 00 00	 call	 ??3@YAXPAX@Z		; operator delete
  0000b	59		 pop	 ecx

; 183  : 		}

  0000c	5d		 pop	 ebp
  0000d	c2 08 00	 ret	 8
?deallocate@?$allocator@H@std@@QAEXPAHI@Z ENDP		; std::allocator<int>::deallocate
_TEXT	ENDS
PUBLIC	?capacity@?$vector@HV?$allocator@H@std@@@std@@QBEIXZ ; std::vector<int,std::allocator<int> >::capacity
; Function compile flags: /Ogsp
; File c:\program files (x86)\microsoft visual studio 10.0\vc\include\vector
;	COMDAT ?capacity@?$vector@HV?$allocator@H@std@@@std@@QBEIXZ
_TEXT	SEGMENT
?capacity@?$vector@HV?$allocator@H@std@@@std@@QBEIXZ PROC ; std::vector<int,std::allocator<int> >::capacity, COMDAT
; _this$ = ecx

; 777  : 		return (this->_Myend - this->_Myfirst);

  00000	8b 41 08	 mov	 eax, DWORD PTR [ecx+8]
  00003	2b 01		 sub	 eax, DWORD PTR [ecx]
  00005	c1 f8 02	 sar	 eax, 2

; 778  : 		}

  00008	c3		 ret	 0
?capacity@?$vector@HV?$allocator@H@std@@@std@@QBEIXZ ENDP ; std::vector<int,std::allocator<int> >::capacity
_TEXT	ENDS
PUBLIC	?_Make_iter@?$vector@HV?$allocator@H@std@@@std@@QBE?AV?$_Vector_iterator@V?$_Vector_val@HV?$allocator@H@std@@@std@@@2@V?$_Vector_const_iterator@V?$_Vector_val@HV?$allocator@H@std@@@std@@@2@@Z ; std::vector<int,std::allocator<int> >::_Make_iter
; Function compile flags: /Ogsp
;	COMDAT ?_Make_iter@?$vector@HV?$allocator@H@std@@@std@@QBE?AV?$_Vector_iterator@V?$_Vector_val@HV?$allocator@H@std@@@std@@@2@V?$_Vector_const_iterator@V?$_Vector_val@HV?$allocator@H@std@@@std@@@2@@Z
_TEXT	SEGMENT
___$ReturnUdt$ = 8					; size = 4
__Where$ = 12						; size = 4
?_Make_iter@?$vector@HV?$allocator@H@std@@@std@@QBE?AV?$_Vector_iterator@V?$_Vector_val@HV?$allocator@H@std@@@std@@@2@V?$_Vector_const_iterator@V?$_Vector_val@HV?$allocator@H@std@@@std@@@2@@Z PROC ; std::vector<int,std::allocator<int> >::_Make_iter, COMDAT
; _this$ = ecx

; 801  : 		{	// make iterator from const_iterator

  00000	55		 push	 ebp
  00001	8b ec		 mov	 ebp, esp

; 802  : 		return (iterator(_Where._Ptr, this));

  00003	8b 45 08	 mov	 eax, DWORD PTR ___$ReturnUdt$[ebp]
  00006	8b 4d 0c	 mov	 ecx, DWORD PTR __Where$[ebp]
  00009	89 08		 mov	 DWORD PTR [eax], ecx

; 803  : 		}

  0000b	5d		 pop	 ebp
  0000c	c2 08 00	 ret	 8
?_Make_iter@?$vector@HV?$allocator@H@std@@@std@@QBE?AV?$_Vector_iterator@V?$_Vector_val@HV?$allocator@H@std@@@std@@@2@V?$_Vector_const_iterator@V?$_Vector_val@HV?$allocator@H@std@@@std@@@2@@Z ENDP ; std::vector<int,std::allocator<int> >::_Make_iter
_TEXT	ENDS
PUBLIC	?_Xlen@?$vector@HV?$allocator@H@std@@@std@@IBEXXZ ; std::vector<int,std::allocator<int> >::_Xlen
; Function compile flags: /Ogsp
;	COMDAT ?_Xlen@?$vector@HV?$allocator@H@std@@@std@@IBEXXZ
_TEXT	SEGMENT
?_Xlen@?$vector@HV?$allocator@H@std@@@std@@IBEXXZ PROC	; std::vector<int,std::allocator<int> >::_Xlen, COMDAT
; _this$ = ecx

; 1427 : 		_Xlength_error("vector<T> too long");

  00000	68 00 00 00 00	 push	 OFFSET ??_C@_0BD@OLBABOEK@vector?$DMT?$DO?5too?5long?$AA@
  00005	ff 15 00 00 00
	00		 call	 DWORD PTR __imp_?_Xlength_error@std@@YAXPBD@Z
$LN4@Xlen@3:
$LN3@Xlen@3:
  0000b	cc		 int	 3
?_Xlen@?$vector@HV?$allocator@H@std@@@std@@IBEXXZ ENDP	; std::vector<int,std::allocator<int> >::_Xlen
_TEXT	ENDS
PUBLIC	?max_size@?$allocator@H@std@@QBEIXZ		; std::allocator<int>::max_size
; Function compile flags: /Ogsp
; File c:\program files (x86)\microsoft visual studio 10.0\vc\include\xmemory
;	COMDAT ?max_size@?$allocator@H@std@@QBEIXZ
_TEXT	SEGMENT
?max_size@?$allocator@H@std@@QBEIXZ PROC		; std::allocator<int>::max_size, COMDAT
; _this$ = ecx

; 218  : 		_SIZT _Count = (_SIZT)(-1) / sizeof (_Ty);
; 219  : 		return (0 < _Count ? _Count : 1);

  00000	b8 ff ff ff 3f	 mov	 eax, 1073741823		; 3fffffffH

; 220  : 		}

  00005	c3		 ret	 0
?max_size@?$allocator@H@std@@QBEIXZ ENDP		; std::allocator<int>::max_size
_TEXT	ENDS
PUBLIC	?_Compat@?$_Vector_const_iterator@V?$_Vector_val@HV?$allocator@H@std@@@std@@@std@@QBEXABV12@@Z ; std::_Vector_const_iterator<std::_Vector_val<int,std::allocator<int> > >::_Compat
; Function compile flags: /Ogsp
; File c:\program files (x86)\microsoft visual studio 10.0\vc\include\vector
;	COMDAT ?_Compat@?$_Vector_const_iterator@V?$_Vector_val@HV?$allocator@H@std@@@std@@@std@@QBEXABV12@@Z
_TEXT	SEGMENT
___formal$ = 8						; size = 4
?_Compat@?$_Vector_const_iterator@V?$_Vector_val@HV?$allocator@H@std@@@std@@@std@@QBEXABV12@@Z PROC ; std::_Vector_const_iterator<std::_Vector_val<int,std::allocator<int> > >::_Compat, COMDAT
; _this$ = ecx

; 253  : 		}

  00000	c2 04 00	 ret	 4
?_Compat@?$_Vector_const_iterator@V?$_Vector_val@HV?$allocator@H@std@@@std@@@std@@QBEXABV12@@Z ENDP ; std::_Vector_const_iterator<std::_Vector_val<int,std::allocator<int> > >::_Compat
_TEXT	ENDS
PUBLIC	??$_Allocate@H@std@@YAPAHIPAH@Z			; std::_Allocate<int>
; Function compile flags: /Ogsp
; File c:\program files (x86)\microsoft visual studio 10.0\vc\include\xmemory
;	COMDAT ??$_Allocate@H@std@@YAPAHIPAH@Z
_TEXT	SEGMENT
$T510739 = -12						; size = 12
$T510743 = 8						; size = 4
__Count$ = 8						; size = 4
___formal$ = 12						; size = 4
??$_Allocate@H@std@@YAPAHIPAH@Z PROC			; std::_Allocate<int>, COMDAT

; 30   : 	{	// allocate storage for _Count elements of type _Ty

  00000	55		 push	 ebp
  00001	8b ec		 mov	 ebp, esp

; 31   : 	void *_Ptr = 0;
; 32   : 
; 33   : 	if (_Count <= 0)

  00003	8b 4d 08	 mov	 ecx, DWORD PTR __Count$[ebp]
  00006	83 ec 0c	 sub	 esp, 12			; 0000000cH
  00009	33 c0		 xor	 eax, eax
  0000b	85 c9		 test	 ecx, ecx

; 34   : 		_Count = 0;
; 35   : 	else if (((_SIZT)(-1) / sizeof (_Ty) < _Count)

  0000d	74 3e		 je	 SHORT $LN5@Allocate@3

; 36   : 		|| (_Ptr = ::operator new(_Count * sizeof (_Ty))) == 0)

  0000f	81 f9 ff ff ff
	3f		 cmp	 ecx, 1073741823		; 3fffffffH
  00015	77 10		 ja	 SHORT $LN1@Allocate@3
  00017	8b c1		 mov	 eax, ecx
  00019	c1 e0 02	 shl	 eax, 2
  0001c	50		 push	 eax
  0001d	e8 00 00 00 00	 call	 ??2@YAPAXI@Z		; operator new
  00022	59		 pop	 ecx
  00023	85 c0		 test	 eax, eax

; 38   : 
; 39   : 	return ((_Ty _FARQ *)_Ptr);

  00025	75 26		 jne	 SHORT $LN5@Allocate@3
$LN1@Allocate@3:

; 37   : 		_THROW_NCEE(bad_alloc, 0);

  00027	83 65 08 00	 and	 DWORD PTR $T510743[ebp], 0
  0002b	8d 45 08	 lea	 eax, DWORD PTR $T510743[ebp]
  0002e	50		 push	 eax
  0002f	8d 4d f4	 lea	 ecx, DWORD PTR $T510739[ebp]
  00032	ff 15 00 00 00
	00		 call	 DWORD PTR __imp_??0exception@std@@QAE@ABQBD@Z
  00038	68 00 00 00 00	 push	 OFFSET __TI2?AVbad_alloc@std@@
  0003d	8d 45 f4	 lea	 eax, DWORD PTR $T510739[ebp]
  00040	50		 push	 eax
  00041	c7 45 f4 00 00
	00 00		 mov	 DWORD PTR $T510739[ebp], OFFSET ??_7bad_alloc@std@@6B@
  00048	e8 00 00 00 00	 call	 __CxxThrowException@8
$LN10@Allocate@3:
$LN5@Allocate@3:

; 40   : 	}

  0004d	c9		 leave
  0004e	c3		 ret	 0
$LN9@Allocate@3:
??$_Allocate@H@std@@YAPAHIPAH@Z ENDP			; std::_Allocate<int>
_TEXT	ENDS
EXTRN	__imp_??0exception@std@@QAE@ABV01@@Z:PROC
; Function compile flags: /Ogsp
;	COMDAT ??0bad_alloc@std@@QAE@ABV01@@Z
_TEXT	SEGMENT
___that$ = 8						; size = 4
??0bad_alloc@std@@QAE@ABV01@@Z PROC			; std::bad_alloc::bad_alloc, COMDAT
; _this$ = ecx
  00000	55		 push	 ebp
  00001	8b ec		 mov	 ebp, esp
  00003	56		 push	 esi
  00004	ff 75 08	 push	 DWORD PTR ___that$[ebp]
  00007	8b f1		 mov	 esi, ecx
  00009	ff 15 00 00 00
	00		 call	 DWORD PTR __imp_??0exception@std@@QAE@ABV01@@Z
  0000f	c7 06 00 00 00
	00		 mov	 DWORD PTR [esi], OFFSET ??_7bad_alloc@std@@6B@
  00015	8b c6		 mov	 eax, esi
  00017	5e		 pop	 esi
  00018	5d		 pop	 ebp
  00019	c2 04 00	 ret	 4
??0bad_alloc@std@@QAE@ABV01@@Z ENDP			; std::bad_alloc::bad_alloc
_TEXT	ENDS
PUBLIC	??$forward@AAH@std@@YAAAHAAH@Z			; std::forward<int &>
; Function compile flags: /Ogsp
; File c:\program files (x86)\microsoft visual studio 10.0\vc\include\utility
;	COMDAT ??$forward@AAH@std@@YAAAHAAH@Z
_TEXT	SEGMENT
__Arg$ = 8						; size = 4
??$forward@AAH@std@@YAAAHAAH@Z PROC			; std::forward<int &>, COMDAT

; 78   : 	{	// forward _Arg, given explicitly specified type parameter

  00000	55		 push	 ebp
  00001	8b ec		 mov	 ebp, esp

; 79   : 	return ((_Ty&&)_Arg);

  00003	8b 45 08	 mov	 eax, DWORD PTR __Arg$[ebp]

; 80   : 	}

  00006	5d		 pop	 ebp
  00007	c3		 ret	 0
??$forward@AAH@std@@YAAAHAAH@Z ENDP			; std::forward<int &>
_TEXT	ENDS
PUBLIC	??$_Val_type@PAH@std@@YAPAHPAH@Z		; std::_Val_type<int *>
; Function compile flags: /Ogsp
; File c:\program files (x86)\microsoft visual studio 10.0\vc\include\xutility
;	COMDAT ??$_Val_type@PAH@std@@YAPAHPAH@Z
_TEXT	SEGMENT
___formal$ = 8						; size = 4
??$_Val_type@PAH@std@@YAPAHPAH@Z PROC			; std::_Val_type<int *>, COMDAT

; 790  : 	return (0);

  00000	33 c0		 xor	 eax, eax

; 791  : 	}

  00002	c3		 ret	 0
??$_Val_type@PAH@std@@YAPAHPAH@Z ENDP			; std::_Val_type<int *>
_TEXT	ENDS
PUBLIC	??$_Ptr_cat@HH@std@@YA?AU_Scalar_ptr_iterator_tag@0@PAH0@Z ; std::_Ptr_cat<int,int>
; Function compile flags: /Ogsp
;	COMDAT ??$_Ptr_cat@HH@std@@YA?AU_Scalar_ptr_iterator_tag@0@PAH0@Z
_TEXT	SEGMENT
__Cat$ = -1						; size = 1
___formal$ = 8						; size = 4
___formal$ = 12						; size = 4
??$_Ptr_cat@HH@std@@YA?AU_Scalar_ptr_iterator_tag@0@PAH0@Z PROC ; std::_Ptr_cat<int,int>, COMDAT

; 516  : 	{	// return pointer category from pointers

  00000	55		 push	 ebp
  00001	8b ec		 mov	 ebp, esp
  00003	51		 push	 ecx

; 517  : 	typename _Ptr_cat_helper<_Elem1, _Elem2>::_Type _Cat;
; 518  : 	return (_Cat);

  00004	8a 45 ff	 mov	 al, BYTE PTR __Cat$[ebp]

; 519  : 	}

  00007	c9		 leave
  00008	c3		 ret	 0
??$_Ptr_cat@HH@std@@YA?AU_Scalar_ptr_iterator_tag@0@PAH0@Z ENDP ; std::_Ptr_cat<int,int>
_TEXT	ENDS
PUBLIC	??$_Move@PAHPAH@std@@YAPAHPAH00U_Scalar_ptr_iterator_tag@0@@Z ; std::_Move<int *,int *>
; Function compile flags: /Ogsp
;	COMDAT ??$_Move@PAHPAH@std@@YAPAHPAH00U_Scalar_ptr_iterator_tag@0@@Z
_TEXT	SEGMENT
__First$ = 8						; size = 4
__Last$ = 12						; size = 4
__Dest$ = 16						; size = 4
___formal$ = 20						; size = 1
??$_Move@PAHPAH@std@@YAPAHPAH00U_Scalar_ptr_iterator_tag@0@@Z PROC ; std::_Move<int *,int *>, COMDAT

; 2522 : 	{	// move [_First, _Last) to [_Dest, ...), pointers to scalars

  00000	55		 push	 ebp
  00001	8b ec		 mov	 ebp, esp
  00003	56		 push	 esi

; 2523 : 	ptrdiff_t _Count = _Last - _First;

  00004	8b 75 0c	 mov	 esi, DWORD PTR __Last$[ebp]
  00007	2b 75 08	 sub	 esi, DWORD PTR __First$[ebp]
  0000a	57		 push	 edi

; 2524 : 	_CSTD memmove(&*_Dest, &*_First,
; 2525 : 		_Count * sizeof (*_First));

  0000b	8b 7d 10	 mov	 edi, DWORD PTR __Dest$[ebp]
  0000e	c1 fe 02	 sar	 esi, 2
  00011	c1 e6 02	 shl	 esi, 2
  00014	56		 push	 esi
  00015	ff 75 08	 push	 DWORD PTR __First$[ebp]
  00018	57		 push	 edi
  00019	ff 15 00 00 00
	00		 call	 DWORD PTR __imp__memmove
  0001f	83 c4 0c	 add	 esp, 12			; 0000000cH

; 2526 : 	return (_Dest + _Count);

  00022	8d 04 3e	 lea	 eax, DWORD PTR [esi+edi]
  00025	5f		 pop	 edi
  00026	5e		 pop	 esi

; 2527 : 	}

  00027	5d		 pop	 ebp
  00028	c3		 ret	 0
??$_Move@PAHPAH@std@@YAPAHPAH00U_Scalar_ptr_iterator_tag@0@@Z ENDP ; std::_Move<int *,int *>
_TEXT	ENDS
PUBLIC	??$_Destroy_range@V?$allocator@H@std@@@std@@YAXPAH0AAV?$allocator@H@0@U_Scalar_ptr_iterator_tag@0@@Z ; std::_Destroy_range<std::allocator<int> >
; Function compile flags: /Ogsp
; File c:\program files (x86)\microsoft visual studio 10.0\vc\include\xmemory
;	COMDAT ??$_Destroy_range@V?$allocator@H@std@@@std@@YAXPAH0AAV?$allocator@H@0@U_Scalar_ptr_iterator_tag@0@@Z
_TEXT	SEGMENT
__First$ = 8						; size = 4
__Last$ = 12						; size = 4
__Al$ = 16						; size = 4
___formal$ = 20						; size = 1
??$_Destroy_range@V?$allocator@H@std@@@std@@YAXPAH0AAV?$allocator@H@0@U_Scalar_ptr_iterator_tag@0@@Z PROC ; std::_Destroy_range<std::allocator<int> >, COMDAT

; 105  : 	}

  00000	c3		 ret	 0
??$_Destroy_range@V?$allocator@H@std@@@std@@YAXPAH0AAV?$allocator@H@0@U_Scalar_ptr_iterator_tag@0@@Z ENDP ; std::_Destroy_range<std::allocator<int> >
_TEXT	ENDS
PUBLIC	??$_Uninit_move@HHH@std@@YAPAHPAH00AAV?$allocator@H@0@0U_Scalar_ptr_iterator_tag@0@@Z ; std::_Uninit_move<int,int,int>
; Function compile flags: /Ogsp
; File c:\program files (x86)\microsoft visual studio 10.0\vc\include\memory
;	COMDAT ??$_Uninit_move@HHH@std@@YAPAHPAH00AAV?$allocator@H@0@0U_Scalar_ptr_iterator_tag@0@@Z
_TEXT	SEGMENT
__First$ = 8						; size = 4
__Last$ = 12						; size = 4
__Dest$ = 16						; size = 4
___formal$ = 20						; size = 4
___formal$ = 24						; size = 4
___formal$ = 28						; size = 1
??$_Uninit_move@HHH@std@@YAPAHPAH00AAV?$allocator@H@0@0U_Scalar_ptr_iterator_tag@0@@Z PROC ; std::_Uninit_move<int,int,int>, COMDAT

; 456  : 	{	// move [_First, _Last) to raw _Dest, scalar type

  00000	55		 push	 ebp
  00001	8b ec		 mov	 ebp, esp
  00003	56		 push	 esi

; 457  : 	_DEBUG_RANGE(_First, _Last);
; 458  : 	_DEBUG_POINTER(_Dest);
; 459  : 	size_t _Count = (size_t)(_Last - _First);

  00004	8b 75 0c	 mov	 esi, DWORD PTR __Last$[ebp]
  00007	2b 75 08	 sub	 esi, DWORD PTR __First$[ebp]
  0000a	c1 fe 02	 sar	 esi, 2

; 460  : 	return ((_Ty2 *)_CSTD memmove(&*_Dest, &*_First,
; 461  : 		_Count * sizeof (*_First)) + _Count);	// NB: non-overlapping move

  0000d	c1 e6 02	 shl	 esi, 2
  00010	56		 push	 esi
  00011	ff 75 08	 push	 DWORD PTR __First$[ebp]
  00014	ff 75 10	 push	 DWORD PTR __Dest$[ebp]
  00017	ff 15 00 00 00
	00		 call	 DWORD PTR __imp__memmove
  0001d	83 c4 0c	 add	 esp, 12			; 0000000cH
  00020	03 c6		 add	 eax, esi
  00022	5e		 pop	 esi

; 462  : 	}

  00023	5d		 pop	 ebp
  00024	c3		 ret	 0
??$_Uninit_move@HHH@std@@YAPAHPAH00AAV?$allocator@H@0@0U_Scalar_ptr_iterator_tag@0@@Z ENDP ; std::_Uninit_move<int,int,int>
_TEXT	ENDS
PUBLIC	?GetSingleton@ioShopItemExtraInfoManager@@SAAAV1@XZ ; ioShopItemExtraInfoManager::GetSingleton
; Function compile flags: /Ogsp
; File d:\lost saga for developer\youtube\tutorial\source\src\lsclient\ioshopitemextrainfomanager.cpp
;	COMDAT ?GetSingleton@ioShopItemExtraInfoManager@@SAAAV1@XZ
_TEXT	SEGMENT
?GetSingleton@ioShopItemExtraInfoManager@@SAAAV1@XZ PROC ; ioShopItemExtraInfoManager::GetSingleton, COMDAT

; 20   : 	return Singleton< ioShopItemExtraInfoManager >::GetSingleton();

  00000	a1 00 00 00 00	 mov	 eax, DWORD PTR ?ms_Singleton@?$Singleton@VioShopItemExtraInfoManager@@@@1PAVioShopItemExtraInfoManager@@A ; Singleton<ioShopItemExtraInfoManager>::ms_Singleton

; 21   : }

  00005	c3		 ret	 0
?GetSingleton@ioShopItemExtraInfoManager@@SAAAV1@XZ ENDP ; ioShopItemExtraInfoManager::GetSingleton
_TEXT	ENDS
PUBLIC	?IsApplyMachine@ioShopItemExtraInfoManager@@IAE_NHABV?$vector@HV?$allocator@H@std@@@std@@@Z ; ioShopItemExtraInfoManager::IsApplyMachine
; Function compile flags: /Ogsp
;	COMDAT ?IsApplyMachine@ioShopItemExtraInfoManager@@IAE_NHABV?$vector@HV?$allocator@H@std@@@std@@@Z
_TEXT	SEGMENT
_nItemValue$ = 8					; size = 4
_vList$ = 12						; size = 4
?IsApplyMachine@ioShopItemExtraInfoManager@@IAE_NHABV?$vector@HV?$allocator@H@std@@@std@@@Z PROC ; ioShopItemExtraInfoManager::IsApplyMachine, COMDAT
; _this$ = ecx

; 179  : {

  00000	55		 push	 ebp
  00001	8b ec		 mov	 ebp, esp

; 180  : 	if ( vList.empty() || nItemValue <= 0 )

  00003	8b 45 0c	 mov	 eax, DWORD PTR _vList$[ebp]
  00006	8b 08		 mov	 ecx, DWORD PTR [eax]
  00008	8b 40 04	 mov	 eax, DWORD PTR [eax+4]
  0000b	56		 push	 esi
  0000c	3b c8		 cmp	 ecx, eax
  0000e	74 1e		 je	 SHORT $LN5@IsApplyMac
  00010	8b 75 08	 mov	 esi, DWORD PTR _nItemValue$[ebp]
  00013	85 f6		 test	 esi, esi
  00015	7e 17		 jle	 SHORT $LN5@IsApplyMac

; 182  : 
; 183  : 	for ( int i=0; i< (int)vList.size(); ++i )

  00017	2b c1		 sub	 eax, ecx
  00019	c1 f8 02	 sar	 eax, 2
  0001c	33 d2		 xor	 edx, edx
  0001e	85 c0		 test	 eax, eax
  00020	7e 0c		 jle	 SHORT $LN5@IsApplyMac
$LL4@IsApplyMac:

; 184  : 	{
; 185  : 		if ( nItemValue == vList[i] )

  00022	3b 31		 cmp	 esi, DWORD PTR [ecx]
  00024	74 0f		 je	 SHORT $LN16@IsApplyMac

; 182  : 
; 183  : 	for ( int i=0; i< (int)vList.size(); ++i )

  00026	42		 inc	 edx
  00027	83 c1 04	 add	 ecx, 4
  0002a	3b d0		 cmp	 edx, eax
  0002c	7c f4		 jl	 SHORT $LL4@IsApplyMac
$LN5@IsApplyMac:

; 181  : 		return false;

  0002e	32 c0		 xor	 al, al
$LN7@IsApplyMac:
  00030	5e		 pop	 esi

; 187  : 	}
; 188  : 
; 189  : 	return false;
; 190  : }

  00031	5d		 pop	 ebp
  00032	c2 08 00	 ret	 8
$LN16@IsApplyMac:

; 186  : 			return true;

  00035	b0 01		 mov	 al, 1
  00037	eb f7		 jmp	 SHORT $LN7@IsApplyMac
?IsApplyMachine@ioShopItemExtraInfoManager@@IAE_NHABV?$vector@HV?$allocator@H@std@@@std@@@Z ENDP ; ioShopItemExtraInfoManager::IsApplyMachine
_TEXT	ENDS
PUBLIC	?max_size@?$vector@UtagShopItemMovieInfo@ioShopItemExtraInfoManager@@V?$allocator@UtagShopItemMovieInfo@ioShopItemExtraInfoManager@@@std@@@std@@QBEIXZ ; std::vector<ioShopItemExtraInfoManager::tagShopItemMovieInfo,std::allocator<ioShopItemExtraInfoManager::tagShopItemMovieInfo> >::max_size
; Function compile flags: /Ogsp
; File c:\program files (x86)\microsoft visual studio 10.0\vc\include\vector
;	COMDAT ?max_size@?$vector@UtagShopItemMovieInfo@ioShopItemExtraInfoManager@@V?$allocator@UtagShopItemMovieInfo@ioShopItemExtraInfoManager@@@std@@@std@@QBEIXZ
_TEXT	SEGMENT
?max_size@?$vector@UtagShopItemMovieInfo@ioShopItemExtraInfoManager@@V?$allocator@UtagShopItemMovieInfo@ioShopItemExtraInfoManager@@@std@@@std@@QBEIXZ PROC ; std::vector<ioShopItemExtraInfoManager::tagShopItemMovieInfo,std::allocator<ioShopItemExtraInfoManager::tagShopItemMovieInfo> >::max_size, COMDAT
; _this$ = ecx

; 884  : 		return (this->_Alval.max_size());

  00000	b8 c4 4e ec 04	 mov	 eax, 82595524		; 04ec4ec4H

; 885  : 		}

  00005	c3		 ret	 0
?max_size@?$vector@UtagShopItemMovieInfo@ioShopItemExtraInfoManager@@V?$allocator@UtagShopItemMovieInfo@ioShopItemExtraInfoManager@@@std@@@std@@QBEIXZ ENDP ; std::vector<ioShopItemExtraInfoManager::tagShopItemMovieInfo,std::allocator<ioShopItemExtraInfoManager::tagShopItemMovieInfo> >::max_size
_TEXT	ENDS
PUBLIC	??0?$_Vector_val@UtagShopItemMovieInfo@ioShopItemExtraInfoManager@@V?$allocator@UtagShopItemMovieInfo@ioShopItemExtraInfoManager@@@std@@@std@@QAE@V?$allocator@UtagShopItemMovieInfo@ioShopItemExtraInfoManager@@@1@@Z ; std::_Vector_val<ioShopItemExtraInfoManager::tagShopItemMovieInfo,std::allocator<ioShopItemExtraInfoManager::tagShopItemMovieInfo> >::_Vector_val<ioShopItemExtraInfoManager::tagShopItemMovieInfo,std::allocator<ioShopItemExtraInfoManager::tagShopItemMovieInfo> >
; Function compile flags: /Ogsp
;	COMDAT ??0?$_Vector_val@UtagShopItemMovieInfo@ioShopItemExtraInfoManager@@V?$allocator@UtagShopItemMovieInfo@ioShopItemExtraInfoManager@@@std@@@std@@QAE@V?$allocator@UtagShopItemMovieInfo@ioShopItemExtraInfoManager@@@1@@Z
_TEXT	SEGMENT
__Al$ = 8						; size = 1
??0?$_Vector_val@UtagShopItemMovieInfo@ioShopItemExtraInfoManager@@V?$allocator@UtagShopItemMovieInfo@ioShopItemExtraInfoManager@@@std@@@std@@QAE@V?$allocator@UtagShopItemMovieInfo@ioShopItemExtraInfoManager@@@1@@Z PROC ; std::_Vector_val<ioShopItemExtraInfoManager::tagShopItemMovieInfo,std::allocator<ioShopItemExtraInfoManager::tagShopItemMovieInfo> >::_Vector_val<ioShopItemExtraInfoManager::tagShopItemMovieInfo,std::allocator<ioShopItemExtraInfoManager::tagShopItemMovieInfo> >, COMDAT
; _this$ = ecx

; 426  : 		{	// construct allocator from _Al

  00000	8b c1		 mov	 eax, ecx

; 427  : 		_Myfirst = 0;

  00002	33 c9		 xor	 ecx, ecx
  00004	89 08		 mov	 DWORD PTR [eax], ecx

; 428  : 		_Mylast = 0;

  00006	89 48 04	 mov	 DWORD PTR [eax+4], ecx

; 429  : 		_Myend = 0;

  00009	89 48 08	 mov	 DWORD PTR [eax+8], ecx

; 430  : 		}

  0000c	c2 04 00	 ret	 4
??0?$_Vector_val@UtagShopItemMovieInfo@ioShopItemExtraInfoManager@@V?$allocator@UtagShopItemMovieInfo@ioShopItemExtraInfoManager@@@std@@@std@@QAE@V?$allocator@UtagShopItemMovieInfo@ioShopItemExtraInfoManager@@@1@@Z ENDP ; std::_Vector_val<ioShopItemExtraInfoManager::tagShopItemMovieInfo,std::allocator<ioShopItemExtraInfoManager::tagShopItemMovieInfo> >::_Vector_val<ioShopItemExtraInfoManager::tagShopItemMovieInfo,std::allocator<ioShopItemExtraInfoManager::tagShopItemMovieInfo> >
_TEXT	ENDS
PUBLIC	?allocate@?$allocator@UtagShopItemMovieInfo@ioShopItemExtraInfoManager@@@std@@QAEPAUtagShopItemMovieInfo@ioShopItemExtraInfoManager@@I@Z ; std::allocator<ioShopItemExtraInfoManager::tagShopItemMovieInfo>::allocate
; Function compile flags: /Ogsp
; File c:\program files (x86)\microsoft visual studio 10.0\vc\include\xmemory
;	COMDAT ?allocate@?$allocator@UtagShopItemMovieInfo@ioShopItemExtraInfoManager@@@std@@QAEPAUtagShopItemMovieInfo@ioShopItemExtraInfoManager@@I@Z
_TEXT	SEGMENT
__Count$ = 8						; size = 4
?allocate@?$allocator@UtagShopItemMovieInfo@ioShopItemExtraInfoManager@@@std@@QAEPAUtagShopItemMovieInfo@ioShopItemExtraInfoManager@@I@Z PROC ; std::allocator<ioShopItemExtraInfoManager::tagShopItemMovieInfo>::allocate, COMDAT
; _this$ = ecx

; 186  : 		{	// allocate array of _Count elements

  00000	55		 push	 ebp
  00001	8b ec		 mov	 ebp, esp

; 187  : 		return (_Allocate(_Count, (pointer)0));

  00003	6a 00		 push	 0
  00005	ff 75 08	 push	 DWORD PTR __Count$[ebp]
  00008	e8 00 00 00 00	 call	 ??$_Allocate@UtagShopItemMovieInfo@ioShopItemExtraInfoManager@@@std@@YAPAUtagShopItemMovieInfo@ioShopItemExtraInfoManager@@IPAU12@@Z ; std::_Allocate<ioShopItemExtraInfoManager::tagShopItemMovieInfo>
  0000d	59		 pop	 ecx
  0000e	59		 pop	 ecx

; 188  : 		}

  0000f	5d		 pop	 ebp
  00010	c2 04 00	 ret	 4
?allocate@?$allocator@UtagShopItemMovieInfo@ioShopItemExtraInfoManager@@@std@@QAEPAUtagShopItemMovieInfo@ioShopItemExtraInfoManager@@I@Z ENDP ; std::allocator<ioShopItemExtraInfoManager::tagShopItemMovieInfo>::allocate
_TEXT	ENDS
PUBLIC	??0?$_Vector_val@UtagShopItemExtraInfo@ioShopItemExtraInfoManager@@V?$allocator@UtagShopItemExtraInfo@ioShopItemExtraInfoManager@@@std@@@std@@QAE@V?$allocator@UtagShopItemExtraInfo@ioShopItemExtraInfoManager@@@1@@Z ; std::_Vector_val<ioShopItemExtraInfoManager::tagShopItemExtraInfo,std::allocator<ioShopItemExtraInfoManager::tagShopItemExtraInfo> >::_Vector_val<ioShopItemExtraInfoManager::tagShopItemExtraInfo,std::allocator<ioShopItemExtraInfoManager::tagShopItemExtraInfo> >
; Function compile flags: /Ogsp
; File c:\program files (x86)\microsoft visual studio 10.0\vc\include\vector
;	COMDAT ??0?$_Vector_val@UtagShopItemExtraInfo@ioShopItemExtraInfoManager@@V?$allocator@UtagShopItemExtraInfo@ioShopItemExtraInfoManager@@@std@@@std@@QAE@V?$allocator@UtagShopItemExtraInfo@ioShopItemExtraInfoManager@@@1@@Z
_TEXT	SEGMENT
__Al$ = 8						; size = 1
??0?$_Vector_val@UtagShopItemExtraInfo@ioShopItemExtraInfoManager@@V?$allocator@UtagShopItemExtraInfo@ioShopItemExtraInfoManager@@@std@@@std@@QAE@V?$allocator@UtagShopItemExtraInfo@ioShopItemExtraInfoManager@@@1@@Z PROC ; std::_Vector_val<ioShopItemExtraInfoManager::tagShopItemExtraInfo,std::allocator<ioShopItemExtraInfoManager::tagShopItemExtraInfo> >::_Vector_val<ioShopItemExtraInfoManager::tagShopItemExtraInfo,std::allocator<ioShopItemExtraInfoManager::tagShopItemExtraInfo> >, COMDAT
; _this$ = ecx

; 426  : 		{	// construct allocator from _Al

  00000	8b c1		 mov	 eax, ecx

; 427  : 		_Myfirst = 0;

  00002	33 c9		 xor	 ecx, ecx
  00004	89 08		 mov	 DWORD PTR [eax], ecx

; 428  : 		_Mylast = 0;

  00006	89 48 04	 mov	 DWORD PTR [eax+4], ecx

; 429  : 		_Myend = 0;

  00009	89 48 08	 mov	 DWORD PTR [eax+8], ecx

; 430  : 		}

  0000c	c2 04 00	 ret	 4
??0?$_Vector_val@UtagShopItemExtraInfo@ioShopItemExtraInfoManager@@V?$allocator@UtagShopItemExtraInfo@ioShopItemExtraInfoManager@@@std@@@std@@QAE@V?$allocator@UtagShopItemExtraInfo@ioShopItemExtraInfoManager@@@1@@Z ENDP ; std::_Vector_val<ioShopItemExtraInfoManager::tagShopItemExtraInfo,std::allocator<ioShopItemExtraInfoManager::tagShopItemExtraInfo> >::_Vector_val<ioShopItemExtraInfoManager::tagShopItemExtraInfo,std::allocator<ioShopItemExtraInfoManager::tagShopItemExtraInfo> >
_TEXT	ENDS
PUBLIC	?_Grow_to@?$vector@UtagShopItemMovieInfo@ioShopItemExtraInfoManager@@V?$allocator@UtagShopItemMovieInfo@ioShopItemExtraInfoManager@@@std@@@std@@IBEII@Z ; std::vector<ioShopItemExtraInfoManager::tagShopItemMovieInfo,std::allocator<ioShopItemExtraInfoManager::tagShopItemMovieInfo> >::_Grow_to
; Function compile flags: /Ogsp
;	COMDAT ?_Grow_to@?$vector@UtagShopItemMovieInfo@ioShopItemExtraInfoManager@@V?$allocator@UtagShopItemMovieInfo@ioShopItemExtraInfoManager@@@std@@@std@@IBEII@Z
_TEXT	SEGMENT
__Count$ = 8						; size = 4
?_Grow_to@?$vector@UtagShopItemMovieInfo@ioShopItemExtraInfoManager@@V?$allocator@UtagShopItemMovieInfo@ioShopItemExtraInfoManager@@@std@@@std@@IBEII@Z PROC ; std::vector<ioShopItemExtraInfoManager::tagShopItemMovieInfo,std::allocator<ioShopItemExtraInfoManager::tagShopItemMovieInfo> >::_Grow_to, COMDAT
; _this$ = ecx

; 1274 : 		{	// grow by 50% or at least to _Count

  00000	55		 push	 ebp
  00001	8b ec		 mov	 ebp, esp

; 1275 : 		size_type _Capacity = capacity();

  00003	8b 41 08	 mov	 eax, DWORD PTR [ecx+8]
  00006	2b 01		 sub	 eax, DWORD PTR [ecx]
  00008	6a 34		 push	 52			; 00000034H
  0000a	99		 cdq
  0000b	59		 pop	 ecx
  0000c	f7 f9		 idiv	 ecx

; 1276 : 
; 1277 : 		_Capacity = max_size() - _Capacity / 2 < _Capacity
; 1278 : 			? 0 : _Capacity + _Capacity / 2;	// try to grow by 50%

  0000e	ba c4 4e ec 04	 mov	 edx, 82595524		; 04ec4ec4H
  00013	8b c8		 mov	 ecx, eax
  00015	d1 e9		 shr	 ecx, 1
  00017	2b d1		 sub	 edx, ecx
  00019	3b d0		 cmp	 edx, eax
  0001b	73 04		 jae	 SHORT $LN4@Grow_to
  0001d	33 c0		 xor	 eax, eax
  0001f	eb 02		 jmp	 SHORT $LN5@Grow_to
$LN4@Grow_to:
  00021	03 c1		 add	 eax, ecx
$LN5@Grow_to:

; 1279 : 		if (_Capacity < _Count)

  00023	3b 45 08	 cmp	 eax, DWORD PTR __Count$[ebp]

; 1280 : 			_Capacity = _Count;

  00026	0f 42 45 08	 cmovb	 eax, DWORD PTR __Count$[ebp]

; 1281 : 		return (_Capacity);
; 1282 : 		}

  0002a	5d		 pop	 ebp
  0002b	c2 04 00	 ret	 4
?_Grow_to@?$vector@UtagShopItemMovieInfo@ioShopItemExtraInfoManager@@V?$allocator@UtagShopItemMovieInfo@ioShopItemExtraInfoManager@@@std@@@std@@IBEII@Z ENDP ; std::vector<ioShopItemExtraInfoManager::tagShopItemMovieInfo,std::allocator<ioShopItemExtraInfoManager::tagShopItemMovieInfo> >::_Grow_to
_TEXT	ENDS
PUBLIC	?max_size@?$vector@UtagShopItemExtraInfo@ioShopItemExtraInfoManager@@V?$allocator@UtagShopItemExtraInfo@ioShopItemExtraInfoManager@@@std@@@std@@QBEIXZ ; std::vector<ioShopItemExtraInfoManager::tagShopItemExtraInfo,std::allocator<ioShopItemExtraInfoManager::tagShopItemExtraInfo> >::max_size
; Function compile flags: /Ogsp
;	COMDAT ?max_size@?$vector@UtagShopItemExtraInfo@ioShopItemExtraInfoManager@@V?$allocator@UtagShopItemExtraInfo@ioShopItemExtraInfoManager@@@std@@@std@@QBEIXZ
_TEXT	SEGMENT
?max_size@?$vector@UtagShopItemExtraInfo@ioShopItemExtraInfoManager@@V?$allocator@UtagShopItemExtraInfo@ioShopItemExtraInfoManager@@@std@@@std@@QBEIXZ PROC ; std::vector<ioShopItemExtraInfoManager::tagShopItemExtraInfo,std::allocator<ioShopItemExtraInfoManager::tagShopItemExtraInfo> >::max_size, COMDAT
; _this$ = ecx

; 884  : 		return (this->_Alval.max_size());

  00000	b8 44 44 44 04	 mov	 eax, 71582788		; 04444444H

; 885  : 		}

  00005	c3		 ret	 0
?max_size@?$vector@UtagShopItemExtraInfo@ioShopItemExtraInfoManager@@V?$allocator@UtagShopItemExtraInfo@ioShopItemExtraInfoManager@@@std@@@std@@QBEIXZ ENDP ; std::vector<ioShopItemExtraInfoManager::tagShopItemExtraInfo,std::allocator<ioShopItemExtraInfoManager::tagShopItemExtraInfo> >::max_size
_TEXT	ENDS
PUBLIC	?_Grow_to@?$vector@UtagShopItemExtraInfo@ioShopItemExtraInfoManager@@V?$allocator@UtagShopItemExtraInfo@ioShopItemExtraInfoManager@@@std@@@std@@IBEII@Z ; std::vector<ioShopItemExtraInfoManager::tagShopItemExtraInfo,std::allocator<ioShopItemExtraInfoManager::tagShopItemExtraInfo> >::_Grow_to
; Function compile flags: /Ogsp
;	COMDAT ?_Grow_to@?$vector@UtagShopItemExtraInfo@ioShopItemExtraInfoManager@@V?$allocator@UtagShopItemExtraInfo@ioShopItemExtraInfoManager@@@std@@@std@@IBEII@Z
_TEXT	SEGMENT
__Count$ = 8						; size = 4
?_Grow_to@?$vector@UtagShopItemExtraInfo@ioShopItemExtraInfoManager@@V?$allocator@UtagShopItemExtraInfo@ioShopItemExtraInfoManager@@@std@@@std@@IBEII@Z PROC ; std::vector<ioShopItemExtraInfoManager::tagShopItemExtraInfo,std::allocator<ioShopItemExtraInfoManager::tagShopItemExtraInfo> >::_Grow_to, COMDAT
; _this$ = ecx

; 1274 : 		{	// grow by 50% or at least to _Count

  00000	55		 push	 ebp
  00001	8b ec		 mov	 ebp, esp

; 1275 : 		size_type _Capacity = capacity();

  00003	8b 41 08	 mov	 eax, DWORD PTR [ecx+8]
  00006	2b 01		 sub	 eax, DWORD PTR [ecx]
  00008	6a 3c		 push	 60			; 0000003cH
  0000a	99		 cdq
  0000b	59		 pop	 ecx
  0000c	f7 f9		 idiv	 ecx

; 1276 : 
; 1277 : 		_Capacity = max_size() - _Capacity / 2 < _Capacity
; 1278 : 			? 0 : _Capacity + _Capacity / 2;	// try to grow by 50%

  0000e	ba 44 44 44 04	 mov	 edx, 71582788		; 04444444H
  00013	8b c8		 mov	 ecx, eax
  00015	d1 e9		 shr	 ecx, 1
  00017	2b d1		 sub	 edx, ecx
  00019	3b d0		 cmp	 edx, eax
  0001b	73 04		 jae	 SHORT $LN4@Grow_to@2
  0001d	33 c0		 xor	 eax, eax
  0001f	eb 02		 jmp	 SHORT $LN5@Grow_to@2
$LN4@Grow_to@2:
  00021	03 c1		 add	 eax, ecx
$LN5@Grow_to@2:

; 1279 : 		if (_Capacity < _Count)

  00023	3b 45 08	 cmp	 eax, DWORD PTR __Count$[ebp]

; 1280 : 			_Capacity = _Count;

  00026	0f 42 45 08	 cmovb	 eax, DWORD PTR __Count$[ebp]

; 1281 : 		return (_Capacity);
; 1282 : 		}

  0002a	5d		 pop	 ebp
  0002b	c2 04 00	 ret	 4
?_Grow_to@?$vector@UtagShopItemExtraInfo@ioShopItemExtraInfoManager@@V?$allocator@UtagShopItemExtraInfo@ioShopItemExtraInfoManager@@@std@@@std@@IBEII@Z ENDP ; std::vector<ioShopItemExtraInfoManager::tagShopItemExtraInfo,std::allocator<ioShopItemExtraInfoManager::tagShopItemExtraInfo> >::_Grow_to
_TEXT	ENDS
PUBLIC	??0?$_Vector_iterator@V?$_Vector_val@UtagShopItemMovieInfo@ioShopItemExtraInfoManager@@V?$allocator@UtagShopItemMovieInfo@ioShopItemExtraInfoManager@@@std@@@std@@@std@@QAE@PAUtagShopItemMovieInfo@ioShopItemExtraInfoManager@@PBU_Container_base0@1@@Z ; std::_Vector_iterator<std::_Vector_val<ioShopItemExtraInfoManager::tagShopItemMovieInfo,std::allocator<ioShopItemExtraInfoManager::tagShopItemMovieInfo> > >::_Vector_iterator<std::_Vector_val<ioShopItemExtraInfoManager::tagShopItemMovieInfo,std::allocator<ioShopItemExtraInfoManager::tagShopItemMovieInfo> > >
; Function compile flags: /Ogsp
;	COMDAT ??0?$_Vector_iterator@V?$_Vector_val@UtagShopItemMovieInfo@ioShopItemExtraInfoManager@@V?$allocator@UtagShopItemMovieInfo@ioShopItemExtraInfoManager@@@std@@@std@@@std@@QAE@PAUtagShopItemMovieInfo@ioShopItemExtraInfoManager@@PBU_Container_base0@1@@Z
_TEXT	SEGMENT
__Parg$ = 8						; size = 4
__Pvector$ = 12						; size = 4
??0?$_Vector_iterator@V?$_Vector_val@UtagShopItemMovieInfo@ioShopItemExtraInfoManager@@V?$allocator@UtagShopItemMovieInfo@ioShopItemExtraInfoManager@@@std@@@std@@@std@@QAE@PAUtagShopItemMovieInfo@ioShopItemExtraInfoManager@@PBU_Container_base0@1@@Z PROC ; std::_Vector_iterator<std::_Vector_val<ioShopItemExtraInfoManager::tagShopItemMovieInfo,std::allocator<ioShopItemExtraInfoManager::tagShopItemMovieInfo> > >::_Vector_iterator<std::_Vector_val<ioShopItemExtraInfoManager::tagShopItemMovieInfo,std::allocator<ioShopItemExtraInfoManager::tagShopItemMovieInfo> > >, COMDAT
; _this$ = ecx

; 304  : 		{	// construct with pointer _Parg

  00000	55		 push	 ebp
  00001	8b ec		 mov	 ebp, esp
  00003	8b c1		 mov	 eax, ecx
  00005	8b 4d 08	 mov	 ecx, DWORD PTR __Parg$[ebp]
  00008	89 08		 mov	 DWORD PTR [eax], ecx

; 305  : 		}

  0000a	5d		 pop	 ebp
  0000b	c2 08 00	 ret	 8
??0?$_Vector_iterator@V?$_Vector_val@UtagShopItemMovieInfo@ioShopItemExtraInfoManager@@V?$allocator@UtagShopItemMovieInfo@ioShopItemExtraInfoManager@@@std@@@std@@@std@@QAE@PAUtagShopItemMovieInfo@ioShopItemExtraInfoManager@@PBU_Container_base0@1@@Z ENDP ; std::_Vector_iterator<std::_Vector_val<ioShopItemExtraInfoManager::tagShopItemMovieInfo,std::allocator<ioShopItemExtraInfoManager::tagShopItemMovieInfo> > >::_Vector_iterator<std::_Vector_val<ioShopItemExtraInfoManager::tagShopItemMovieInfo,std::allocator<ioShopItemExtraInfoManager::tagShopItemMovieInfo> > >
_TEXT	ENDS
PUBLIC	??0?$_Vector_iterator@V?$_Vector_val@UtagShopItemExtraInfo@ioShopItemExtraInfoManager@@V?$allocator@UtagShopItemExtraInfo@ioShopItemExtraInfoManager@@@std@@@std@@@std@@QAE@PAUtagShopItemExtraInfo@ioShopItemExtraInfoManager@@PBU_Container_base0@1@@Z ; std::_Vector_iterator<std::_Vector_val<ioShopItemExtraInfoManager::tagShopItemExtraInfo,std::allocator<ioShopItemExtraInfoManager::tagShopItemExtraInfo> > >::_Vector_iterator<std::_Vector_val<ioShopItemExtraInfoManager::tagShopItemExtraInfo,std::allocator<ioShopItemExtraInfoManager::tagShopItemExtraInfo> > >
; Function compile flags: /Ogsp
;	COMDAT ??0?$_Vector_iterator@V?$_Vector_val@UtagShopItemExtraInfo@ioShopItemExtraInfoManager@@V?$allocator@UtagShopItemExtraInfo@ioShopItemExtraInfoManager@@@std@@@std@@@std@@QAE@PAUtagShopItemExtraInfo@ioShopItemExtraInfoManager@@PBU_Container_base0@1@@Z
_TEXT	SEGMENT
__Parg$ = 8						; size = 4
__Pvector$ = 12						; size = 4
??0?$_Vector_iterator@V?$_Vector_val@UtagShopItemExtraInfo@ioShopItemExtraInfoManager@@V?$allocator@UtagShopItemExtraInfo@ioShopItemExtraInfoManager@@@std@@@std@@@std@@QAE@PAUtagShopItemExtraInfo@ioShopItemExtraInfoManager@@PBU_Container_base0@1@@Z PROC ; std::_Vector_iterator<std::_Vector_val<ioShopItemExtraInfoManager::tagShopItemExtraInfo,std::allocator<ioShopItemExtraInfoManager::tagShopItemExtraInfo> > >::_Vector_iterator<std::_Vector_val<ioShopItemExtraInfoManager::tagShopItemExtraInfo,std::allocator<ioShopItemExtraInfoManager::tagShopItemExtraInfo> > >, COMDAT
; _this$ = ecx

; 304  : 		{	// construct with pointer _Parg

  00000	55		 push	 ebp
  00001	8b ec		 mov	 ebp, esp
  00003	8b c1		 mov	 eax, ecx
  00005	8b 4d 08	 mov	 ecx, DWORD PTR __Parg$[ebp]
  00008	89 08		 mov	 DWORD PTR [eax], ecx

; 305  : 		}

  0000a	5d		 pop	 ebp
  0000b	c2 08 00	 ret	 8
??0?$_Vector_iterator@V?$_Vector_val@UtagShopItemExtraInfo@ioShopItemExtraInfoManager@@V?$allocator@UtagShopItemExtraInfo@ioShopItemExtraInfoManager@@@std@@@std@@@std@@QAE@PAUtagShopItemExtraInfo@ioShopItemExtraInfoManager@@PBU_Container_base0@1@@Z ENDP ; std::_Vector_iterator<std::_Vector_val<ioShopItemExtraInfoManager::tagShopItemExtraInfo,std::allocator<ioShopItemExtraInfoManager::tagShopItemExtraInfo> > >::_Vector_iterator<std::_Vector_val<ioShopItemExtraInfoManager::tagShopItemExtraInfo,std::allocator<ioShopItemExtraInfoManager::tagShopItemExtraInfo> > >
_TEXT	ENDS
PUBLIC	?allocate@?$allocator@UtagShopItemExtraInfo@ioShopItemExtraInfoManager@@@std@@QAEPAUtagShopItemExtraInfo@ioShopItemExtraInfoManager@@I@Z ; std::allocator<ioShopItemExtraInfoManager::tagShopItemExtraInfo>::allocate
; Function compile flags: /Ogsp
; File c:\program files (x86)\microsoft visual studio 10.0\vc\include\xmemory
;	COMDAT ?allocate@?$allocator@UtagShopItemExtraInfo@ioShopItemExtraInfoManager@@@std@@QAEPAUtagShopItemExtraInfo@ioShopItemExtraInfoManager@@I@Z
_TEXT	SEGMENT
__Count$ = 8						; size = 4
?allocate@?$allocator@UtagShopItemExtraInfo@ioShopItemExtraInfoManager@@@std@@QAEPAUtagShopItemExtraInfo@ioShopItemExtraInfoManager@@I@Z PROC ; std::allocator<ioShopItemExtraInfoManager::tagShopItemExtraInfo>::allocate, COMDAT
; _this$ = ecx

; 186  : 		{	// allocate array of _Count elements

  00000	55		 push	 ebp
  00001	8b ec		 mov	 ebp, esp

; 187  : 		return (_Allocate(_Count, (pointer)0));

  00003	6a 00		 push	 0
  00005	ff 75 08	 push	 DWORD PTR __Count$[ebp]
  00008	e8 00 00 00 00	 call	 ??$_Allocate@UtagShopItemExtraInfo@ioShopItemExtraInfoManager@@@std@@YAPAUtagShopItemExtraInfo@ioShopItemExtraInfoManager@@IPAU12@@Z ; std::_Allocate<ioShopItemExtraInfoManager::tagShopItemExtraInfo>
  0000d	59		 pop	 ecx
  0000e	59		 pop	 ecx

; 188  : 		}

  0000f	5d		 pop	 ebp
  00010	c2 04 00	 ret	 4
?allocate@?$allocator@UtagShopItemExtraInfo@ioShopItemExtraInfoManager@@@std@@QAEPAUtagShopItemExtraInfo@ioShopItemExtraInfoManager@@I@Z ENDP ; std::allocator<ioShopItemExtraInfoManager::tagShopItemExtraInfo>::allocate
_TEXT	ENDS
PUBLIC	??8?$_Vector_const_iterator@V?$_Vector_val@UtagShopItemMovieInfo@ioShopItemExtraInfoManager@@V?$allocator@UtagShopItemMovieInfo@ioShopItemExtraInfoManager@@@std@@@std@@@std@@QBE_NABV01@@Z ; std::_Vector_const_iterator<std::_Vector_val<ioShopItemExtraInfoManager::tagShopItemMovieInfo,std::allocator<ioShopItemExtraInfoManager::tagShopItemMovieInfo> > >::operator==
; Function compile flags: /Ogsp
; File c:\program files (x86)\microsoft visual studio 10.0\vc\include\vector
;	COMDAT ??8?$_Vector_const_iterator@V?$_Vector_val@UtagShopItemMovieInfo@ioShopItemExtraInfoManager@@V?$allocator@UtagShopItemMovieInfo@ioShopItemExtraInfoManager@@@std@@@std@@@std@@QBE_NABV01@@Z
_TEXT	SEGMENT
__Right$ = 8						; size = 4
??8?$_Vector_const_iterator@V?$_Vector_val@UtagShopItemMovieInfo@ioShopItemExtraInfoManager@@V?$allocator@UtagShopItemMovieInfo@ioShopItemExtraInfoManager@@@std@@@std@@@std@@QBE_NABV01@@Z PROC ; std::_Vector_const_iterator<std::_Vector_val<ioShopItemExtraInfoManager::tagShopItemMovieInfo,std::allocator<ioShopItemExtraInfoManager::tagShopItemMovieInfo> > >::operator==, COMDAT
; _this$ = ecx

; 201  : 		{	// test for iterator equality

  00000	55		 push	 ebp
  00001	8b ec		 mov	 ebp, esp

; 202  : 		_Compat(_Right);
; 203  : 		return (this->_Ptr == _Right._Ptr);

  00003	8b 01		 mov	 eax, DWORD PTR [ecx]
  00005	8b 4d 08	 mov	 ecx, DWORD PTR __Right$[ebp]
  00008	2b 01		 sub	 eax, DWORD PTR [ecx]
  0000a	f7 d8		 neg	 eax
  0000c	1b c0		 sbb	 eax, eax
  0000e	40		 inc	 eax

; 204  : 		}

  0000f	5d		 pop	 ebp
  00010	c2 04 00	 ret	 4
??8?$_Vector_const_iterator@V?$_Vector_val@UtagShopItemMovieInfo@ioShopItemExtraInfoManager@@V?$allocator@UtagShopItemMovieInfo@ioShopItemExtraInfoManager@@@std@@@std@@@std@@QBE_NABV01@@Z ENDP ; std::_Vector_const_iterator<std::_Vector_val<ioShopItemExtraInfoManager::tagShopItemMovieInfo,std::allocator<ioShopItemExtraInfoManager::tagShopItemMovieInfo> > >::operator==
_TEXT	ENDS
PUBLIC	??8?$_Vector_const_iterator@V?$_Vector_val@UtagShopItemExtraInfo@ioShopItemExtraInfoManager@@V?$allocator@UtagShopItemExtraInfo@ioShopItemExtraInfoManager@@@std@@@std@@@std@@QBE_NABV01@@Z ; std::_Vector_const_iterator<std::_Vector_val<ioShopItemExtraInfoManager::tagShopItemExtraInfo,std::allocator<ioShopItemExtraInfoManager::tagShopItemExtraInfo> > >::operator==
; Function compile flags: /Ogsp
;	COMDAT ??8?$_Vector_const_iterator@V?$_Vector_val@UtagShopItemExtraInfo@ioShopItemExtraInfoManager@@V?$allocator@UtagShopItemExtraInfo@ioShopItemExtraInfoManager@@@std@@@std@@@std@@QBE_NABV01@@Z
_TEXT	SEGMENT
__Right$ = 8						; size = 4
??8?$_Vector_const_iterator@V?$_Vector_val@UtagShopItemExtraInfo@ioShopItemExtraInfoManager@@V?$allocator@UtagShopItemExtraInfo@ioShopItemExtraInfoManager@@@std@@@std@@@std@@QBE_NABV01@@Z PROC ; std::_Vector_const_iterator<std::_Vector_val<ioShopItemExtraInfoManager::tagShopItemExtraInfo,std::allocator<ioShopItemExtraInfoManager::tagShopItemExtraInfo> > >::operator==, COMDAT
; _this$ = ecx

; 201  : 		{	// test for iterator equality

  00000	55		 push	 ebp
  00001	8b ec		 mov	 ebp, esp

; 202  : 		_Compat(_Right);
; 203  : 		return (this->_Ptr == _Right._Ptr);

  00003	8b 01		 mov	 eax, DWORD PTR [ecx]
  00005	8b 4d 08	 mov	 ecx, DWORD PTR __Right$[ebp]
  00008	2b 01		 sub	 eax, DWORD PTR [ecx]
  0000a	f7 d8		 neg	 eax
  0000c	1b c0		 sbb	 eax, eax
  0000e	40		 inc	 eax

; 204  : 		}

  0000f	5d		 pop	 ebp
  00010	c2 04 00	 ret	 4
??8?$_Vector_const_iterator@V?$_Vector_val@UtagShopItemExtraInfo@ioShopItemExtraInfoManager@@V?$allocator@UtagShopItemExtraInfo@ioShopItemExtraInfoManager@@@std@@@std@@@std@@QBE_NABV01@@Z ENDP ; std::_Vector_const_iterator<std::_Vector_val<ioShopItemExtraInfoManager::tagShopItemExtraInfo,std::allocator<ioShopItemExtraInfoManager::tagShopItemExtraInfo> > >::operator==
_TEXT	ENDS
PUBLIC	__$ArrayPad$
PUBLIC	??$SetTitle_e@$06@ioINILoader@@QAEXAAY06$$CBD@Z	; ioINILoader::SetTitle_e<7>
EXTRN	__imp_?SetTitle@ioINILoader@@QAEXPBD@Z:PROC
EXTRN	___security_cookie:DWORD
; Function compile flags: /Ogsp
; File d:\lost saga for developer\youtube\tutorial\source\src\io3dengine\ioiniloader.h
;	COMDAT ??$SetTitle_e@$06@ioINILoader@@QAEXAAY06$$CBD@Z
_TEXT	SEGMENT
__t$ = -16						; size = 7
__$ArrayPad$ = -4					; size = 4
_t$ = 8							; size = 4
??$SetTitle_e@$06@ioINILoader@@QAEXAAY06$$CBD@Z PROC	; ioINILoader::SetTitle_e<7>, COMDAT
; _this$ = ecx

; 188  : 	{

  00000	55		 push	 ebp
  00001	8b ec		 mov	 ebp, esp
  00003	83 ec 10	 sub	 esp, 16			; 00000010H
  00006	a1 00 00 00 00	 mov	 eax, DWORD PTR ___security_cookie
  0000b	33 c5		 xor	 eax, ebp
  0000d	89 45 fc	 mov	 DWORD PTR __$ArrayPad$[ebp], eax
  00010	8b 45 08	 mov	 eax, DWORD PTR _t$[ebp]

; 189  : 		_ENCSTR(t, _t);

  00013	8a 10		 mov	 dl, BYTE PTR [eax]
  00015	56		 push	 esi
  00016	8b f1		 mov	 esi, ecx
  00018	84 d2		 test	 dl, dl
  0001a	0f 84 c0 00 00
	00		 je	 $LN96@SetTitle_e
  00020	80 f2 ed	 xor	 dl, -19			; ffffffedH
  00023	88 55 f0	 mov	 BYTE PTR __t$[ebp], dl
  00026	8a 50 01	 mov	 dl, BYTE PTR [eax+1]
  00029	84 d2		 test	 dl, dl
  0002b	0f 84 a9 00 00
	00		 je	 $LN95@SetTitle_e
  00031	80 f2 ec	 xor	 dl, -20			; ffffffecH
  00034	88 55 f1	 mov	 BYTE PTR __t$[ebp+1], dl
  00037	8a 50 02	 mov	 dl, BYTE PTR [eax+2]
  0003a	84 d2		 test	 dl, dl
  0003c	0f 84 92 00 00
	00		 je	 $LN94@SetTitle_e
  00042	80 f2 eb	 xor	 dl, -21			; ffffffebH
  00045	88 55 f2	 mov	 BYTE PTR __t$[ebp+2], dl
  00048	8a 50 03	 mov	 dl, BYTE PTR [eax+3]
  0004b	84 d2		 test	 dl, dl
  0004d	74 7f		 je	 SHORT $LN93@SetTitle_e
  0004f	80 f2 ea	 xor	 dl, -22			; ffffffeaH
  00052	88 55 f3	 mov	 BYTE PTR __t$[ebp+3], dl
  00055	8a 50 04	 mov	 dl, BYTE PTR [eax+4]
  00058	84 d2		 test	 dl, dl
  0005a	74 6c		 je	 SHORT $LN92@SetTitle_e
  0005c	80 f2 ed	 xor	 dl, -19			; ffffffedH
  0005f	88 55 f4	 mov	 BYTE PTR __t$[ebp+4], dl
  00062	8a 50 05	 mov	 dl, BYTE PTR [eax+5]
  00065	84 d2		 test	 dl, dl
  00067	74 59		 je	 SHORT $LN91@SetTitle_e
  00069	80 f2 ec	 xor	 dl, -20			; ffffffecH
  0006c	80 78 06 00	 cmp	 BYTE PTR [eax+6], 0
  00070	88 55 f5	 mov	 BYTE PTR __t$[ebp+5], dl
  00073	74 6f		 je	 SHORT $LN1@SetTitle_e
  00075	8a 50 07	 mov	 dl, BYTE PTR [eax+7]
  00078	84 d2		 test	 dl, dl
  0007a	74 40		 je	 SHORT $LN89@SetTitle_e
  0007c	80 f2 ea	 xor	 dl, -22			; ffffffeaH
  0007f	88 55 f7	 mov	 BYTE PTR __t$[ebp+7], dl
  00082	8a 50 08	 mov	 dl, BYTE PTR [eax+8]
  00085	84 d2		 test	 dl, dl
  00087	74 2d		 je	 SHORT $LN88@SetTitle_e
  00089	80 f2 ed	 xor	 dl, -19			; ffffffedH
  0008c	88 55 f8	 mov	 BYTE PTR __t$[ebp+8], dl
  0008f	8a 50 09	 mov	 dl, BYTE PTR [eax+9]
  00092	84 d2		 test	 dl, dl
  00094	74 1a		 je	 SHORT $LN87@SetTitle_e
  00096	8a 40 0a	 mov	 al, BYTE PTR [eax+10]
  00099	80 f2 ec	 xor	 dl, -20			; ffffffecH
  0009c	88 55 f9	 mov	 BYTE PTR __t$[ebp+9], dl
  0009f	84 c0		 test	 al, al
  000a1	74 07		 je	 SHORT $LN86@SetTitle_e
  000a3	34 eb		 xor	 al, -21			; ffffffebH
  000a5	88 45 fa	 mov	 BYTE PTR __t$[ebp+10], al
  000a8	eb 3a		 jmp	 SHORT $LN1@SetTitle_e
$LN86@SetTitle_e:
  000aa	c6 45 fa eb	 mov	 BYTE PTR __t$[ebp+10], -21 ; ffffffebH
  000ae	eb 34		 jmp	 SHORT $LN1@SetTitle_e
$LN87@SetTitle_e:
  000b0	c6 45 f9 ec	 mov	 BYTE PTR __t$[ebp+9], -20 ; ffffffecH
  000b4	eb 2e		 jmp	 SHORT $LN1@SetTitle_e
$LN88@SetTitle_e:
  000b6	c6 45 f8 ed	 mov	 BYTE PTR __t$[ebp+8], -19 ; ffffffedH
  000ba	eb 28		 jmp	 SHORT $LN1@SetTitle_e
$LN89@SetTitle_e:
  000bc	c6 45 f7 ea	 mov	 BYTE PTR __t$[ebp+7], -22 ; ffffffeaH
  000c0	eb 22		 jmp	 SHORT $LN1@SetTitle_e
$LN91@SetTitle_e:
  000c2	c6 45 f5 ec	 mov	 BYTE PTR __t$[ebp+5], -20 ; ffffffecH
  000c6	eb 1c		 jmp	 SHORT $LN1@SetTitle_e
$LN92@SetTitle_e:
  000c8	c6 45 f4 ed	 mov	 BYTE PTR __t$[ebp+4], -19 ; ffffffedH
  000cc	eb 16		 jmp	 SHORT $LN1@SetTitle_e
$LN93@SetTitle_e:
  000ce	c6 45 f3 ea	 mov	 BYTE PTR __t$[ebp+3], -22 ; ffffffeaH
  000d2	eb 10		 jmp	 SHORT $LN1@SetTitle_e
$LN94@SetTitle_e:
  000d4	c6 45 f2 eb	 mov	 BYTE PTR __t$[ebp+2], -21 ; ffffffebH
  000d8	eb 0a		 jmp	 SHORT $LN1@SetTitle_e
$LN95@SetTitle_e:
  000da	c6 45 f1 ec	 mov	 BYTE PTR __t$[ebp+1], -20 ; ffffffecH
  000de	eb 04		 jmp	 SHORT $LN1@SetTitle_e
$LN96@SetTitle_e:
  000e0	c6 45 f0 ed	 mov	 BYTE PTR __t$[ebp], -19	; ffffffedH
$LN1@SetTitle_e:
  000e4	81 75 f0 ed ec
	eb ea		 xor	 DWORD PTR __t$[ebp], -353637139 ; eaebecedH
  000eb	6a 04		 push	 4
  000ed	c6 45 f6 00	 mov	 BYTE PTR __t$[ebp+6], 0
  000f1	58		 pop	 eax
$LL101@SetTitle_e:
  000f2	8b c8		 mov	 ecx, eax
  000f4	81 e1 03 00 00
	80		 and	 ecx, -2147483645	; 80000003H
  000fa	79 05		 jns	 SHORT $LN111@SetTitle_e
  000fc	49		 dec	 ecx
  000fd	83 c9 fc	 or	 ecx, -4			; fffffffcH
  00100	41		 inc	 ecx
$LN111@SetTitle_e:
  00101	b2 ed		 mov	 dl, -19			; ffffffedH
  00103	2a d1		 sub	 dl, cl
  00105	30 54 05 f0	 xor	 BYTE PTR __t$[ebp+eax], dl
  00109	40		 inc	 eax
  0010a	83 f8 06	 cmp	 eax, 6
  0010d	7c e3		 jl	 SHORT $LL101@SetTitle_e

; 190  : 		SetTitle(_t);

  0010f	8d 45 f0	 lea	 eax, DWORD PTR __t$[ebp]
  00112	50		 push	 eax
  00113	8b ce		 mov	 ecx, esi
  00115	ff 15 00 00 00
	00		 call	 DWORD PTR __imp_?SetTitle@ioINILoader@@QAEXPBD@Z

; 191  : 	}

  0011b	8b 4d fc	 mov	 ecx, DWORD PTR __$ArrayPad$[ebp]
  0011e	33 cd		 xor	 ecx, ebp
  00120	5e		 pop	 esi
  00121	e8 00 00 00 00	 call	 @__security_check_cookie@4
  00126	c9		 leave
  00127	c2 04 00	 ret	 4
??$SetTitle_e@$06@ioINILoader@@QAEXAAY06$$CBD@Z ENDP	; ioINILoader::SetTitle_e<7>
_TEXT	ENDS
PUBLIC	__$ArrayPad$
PUBLIC	??$LoadInt_e@$09@ioINILoader@@QAEHAAY09$$CBDH@Z	; ioINILoader::LoadInt_e<10>
EXTRN	__imp_?LoadInt@ioINILoader@@QAEHPBDH@Z:PROC
; Function compile flags: /Ogsp
;	COMDAT ??$LoadInt_e@$09@ioINILoader@@QAEHAAY09$$CBDH@Z
_TEXT	SEGMENT
__k$ = -20						; size = 10
__$ArrayPad$ = -4					; size = 4
_k$ = 8							; size = 4
_i$ = 12						; size = 4
??$LoadInt_e@$09@ioINILoader@@QAEHAAY09$$CBDH@Z PROC	; ioINILoader::LoadInt_e<10>, COMDAT
; _this$ = ecx

; 118  : 	{

  00000	55		 push	 ebp
  00001	8b ec		 mov	 ebp, esp
  00003	83 ec 14	 sub	 esp, 20			; 00000014H
  00006	a1 00 00 00 00	 mov	 eax, DWORD PTR ___security_cookie
  0000b	33 c5		 xor	 eax, ebp
  0000d	89 45 fc	 mov	 DWORD PTR __$ArrayPad$[ebp], eax
  00010	8b 45 08	 mov	 eax, DWORD PTR _k$[ebp]

; 119  : 		_ENCSTR(k, _k);

  00013	8a 10		 mov	 dl, BYTE PTR [eax]
  00015	84 d2		 test	 dl, dl
  00017	0f 84 0d 01 00
	00		 je	 $LN96@LoadInt_e
  0001d	80 f2 ed	 xor	 dl, -19			; ffffffedH
  00020	88 55 ec	 mov	 BYTE PTR __k$[ebp], dl
  00023	8a 50 01	 mov	 dl, BYTE PTR [eax+1]
  00026	84 d2		 test	 dl, dl
  00028	0f 84 f6 00 00
	00		 je	 $LN95@LoadInt_e
  0002e	80 f2 ec	 xor	 dl, -20			; ffffffecH
  00031	88 55 ed	 mov	 BYTE PTR __k$[ebp+1], dl
  00034	8a 50 02	 mov	 dl, BYTE PTR [eax+2]
  00037	84 d2		 test	 dl, dl
  00039	0f 84 df 00 00
	00		 je	 $LN94@LoadInt_e
  0003f	80 f2 eb	 xor	 dl, -21			; ffffffebH
  00042	88 55 ee	 mov	 BYTE PTR __k$[ebp+2], dl
  00045	8a 50 03	 mov	 dl, BYTE PTR [eax+3]
  00048	84 d2		 test	 dl, dl
  0004a	0f 84 c8 00 00
	00		 je	 $LN93@LoadInt_e
  00050	80 f2 ea	 xor	 dl, -22			; ffffffeaH
  00053	88 55 ef	 mov	 BYTE PTR __k$[ebp+3], dl
  00056	8a 50 04	 mov	 dl, BYTE PTR [eax+4]
  00059	84 d2		 test	 dl, dl
  0005b	0f 84 b1 00 00
	00		 je	 $LN92@LoadInt_e
  00061	80 f2 ed	 xor	 dl, -19			; ffffffedH
  00064	88 55 f0	 mov	 BYTE PTR __k$[ebp+4], dl
  00067	8a 50 05	 mov	 dl, BYTE PTR [eax+5]
  0006a	84 d2		 test	 dl, dl
  0006c	0f 84 9a 00 00
	00		 je	 $LN91@LoadInt_e
  00072	80 f2 ec	 xor	 dl, -20			; ffffffecH
  00075	88 55 f1	 mov	 BYTE PTR __k$[ebp+5], dl
  00078	8a 50 06	 mov	 dl, BYTE PTR [eax+6]
  0007b	84 d2		 test	 dl, dl
  0007d	0f 84 83 00 00
	00		 je	 $LN90@LoadInt_e
  00083	80 f2 eb	 xor	 dl, -21			; ffffffebH
  00086	88 55 f2	 mov	 BYTE PTR __k$[ebp+6], dl
  00089	8a 50 07	 mov	 dl, BYTE PTR [eax+7]
  0008c	84 d2		 test	 dl, dl
  0008e	74 70		 je	 SHORT $LN89@LoadInt_e
  00090	80 f2 ea	 xor	 dl, -22			; ffffffeaH
  00093	88 55 f3	 mov	 BYTE PTR __k$[ebp+7], dl
  00096	8a 50 08	 mov	 dl, BYTE PTR [eax+8]
  00099	84 d2		 test	 dl, dl
  0009b	74 5d		 je	 SHORT $LN88@LoadInt_e
  0009d	80 f2 ed	 xor	 dl, -19			; ffffffedH
  000a0	80 78 09 00	 cmp	 BYTE PTR [eax+9], 0
  000a4	88 55 f4	 mov	 BYTE PTR __k$[ebp+8], dl
  000a7	0f 84 81 00 00
	00		 je	 $LN1@LoadInt_e
  000ad	8a 50 0a	 mov	 dl, BYTE PTR [eax+10]
  000b0	84 d2		 test	 dl, dl
  000b2	74 40		 je	 SHORT $LN86@LoadInt_e
  000b4	80 f2 eb	 xor	 dl, -21			; ffffffebH
  000b7	88 55 f6	 mov	 BYTE PTR __k$[ebp+10], dl
  000ba	8a 50 0b	 mov	 dl, BYTE PTR [eax+11]
  000bd	84 d2		 test	 dl, dl
  000bf	74 2d		 je	 SHORT $LN85@LoadInt_e
  000c1	80 f2 ea	 xor	 dl, -22			; ffffffeaH
  000c4	88 55 f7	 mov	 BYTE PTR __k$[ebp+11], dl
  000c7	8a 50 0c	 mov	 dl, BYTE PTR [eax+12]
  000ca	84 d2		 test	 dl, dl
  000cc	74 1a		 je	 SHORT $LN84@LoadInt_e
  000ce	8a 40 0d	 mov	 al, BYTE PTR [eax+13]
  000d1	80 f2 ed	 xor	 dl, -19			; ffffffedH
  000d4	88 55 f8	 mov	 BYTE PTR __k$[ebp+12], dl
  000d7	84 c0		 test	 al, al
  000d9	74 07		 je	 SHORT $LN83@LoadInt_e
  000db	34 ec		 xor	 al, -20			; ffffffecH
  000dd	88 45 f9	 mov	 BYTE PTR __k$[ebp+13], al
  000e0	eb 4c		 jmp	 SHORT $LN1@LoadInt_e
$LN83@LoadInt_e:
  000e2	c6 45 f9 ec	 mov	 BYTE PTR __k$[ebp+13], -20 ; ffffffecH
  000e6	eb 46		 jmp	 SHORT $LN1@LoadInt_e
$LN84@LoadInt_e:
  000e8	c6 45 f8 ed	 mov	 BYTE PTR __k$[ebp+12], -19 ; ffffffedH
  000ec	eb 40		 jmp	 SHORT $LN1@LoadInt_e
$LN85@LoadInt_e:
  000ee	c6 45 f7 ea	 mov	 BYTE PTR __k$[ebp+11], -22 ; ffffffeaH
  000f2	eb 3a		 jmp	 SHORT $LN1@LoadInt_e
$LN86@LoadInt_e:
  000f4	c6 45 f6 eb	 mov	 BYTE PTR __k$[ebp+10], -21 ; ffffffebH
  000f8	eb 34		 jmp	 SHORT $LN1@LoadInt_e
$LN88@LoadInt_e:
  000fa	c6 45 f4 ed	 mov	 BYTE PTR __k$[ebp+8], -19 ; ffffffedH
  000fe	eb 2e		 jmp	 SHORT $LN1@LoadInt_e
$LN89@LoadInt_e:
  00100	c6 45 f3 ea	 mov	 BYTE PTR __k$[ebp+7], -22 ; ffffffeaH
  00104	eb 28		 jmp	 SHORT $LN1@LoadInt_e
$LN90@LoadInt_e:
  00106	c6 45 f2 eb	 mov	 BYTE PTR __k$[ebp+6], -21 ; ffffffebH
  0010a	eb 22		 jmp	 SHORT $LN1@LoadInt_e
$LN91@LoadInt_e:
  0010c	c6 45 f1 ec	 mov	 BYTE PTR __k$[ebp+5], -20 ; ffffffecH
  00110	eb 1c		 jmp	 SHORT $LN1@LoadInt_e
$LN92@LoadInt_e:
  00112	c6 45 f0 ed	 mov	 BYTE PTR __k$[ebp+4], -19 ; ffffffedH
  00116	eb 16		 jmp	 SHORT $LN1@LoadInt_e
$LN93@LoadInt_e:
  00118	c6 45 ef ea	 mov	 BYTE PTR __k$[ebp+3], -22 ; ffffffeaH
  0011c	eb 10		 jmp	 SHORT $LN1@LoadInt_e
$LN94@LoadInt_e:
  0011e	c6 45 ee eb	 mov	 BYTE PTR __k$[ebp+2], -21 ; ffffffebH
  00122	eb 0a		 jmp	 SHORT $LN1@LoadInt_e
$LN95@LoadInt_e:
  00124	c6 45 ed ec	 mov	 BYTE PTR __k$[ebp+1], -20 ; ffffffecH
  00128	eb 04		 jmp	 SHORT $LN1@LoadInt_e
$LN96@LoadInt_e:
  0012a	c6 45 ec ed	 mov	 BYTE PTR __k$[ebp], -19	; ffffffedH
$LN1@LoadInt_e:
  0012e	6a 02		 push	 2
  00130	8d 45 ec	 lea	 eax, DWORD PTR __k$[ebp]
  00133	c6 45 f5 00	 mov	 BYTE PTR __k$[ebp+9], 0
  00137	5a		 pop	 edx
$LL104@LoadInt_e:
  00138	81 30 ed ec eb
	ea		 xor	 DWORD PTR [eax], -353637139 ; eaebecedH
  0013e	83 c0 04	 add	 eax, 4
  00141	4a		 dec	 edx
  00142	75 f4		 jne	 SHORT $LL104@LoadInt_e

; 120  : 		return LoadInt(_k, i);

  00144	ff 75 0c	 push	 DWORD PTR _i$[ebp]
  00147	80 75 f4 ed	 xor	 BYTE PTR __k$[ebp+8], -19 ; ffffffedH
  0014b	8d 45 ec	 lea	 eax, DWORD PTR __k$[ebp]
  0014e	50		 push	 eax
  0014f	ff 15 00 00 00
	00		 call	 DWORD PTR __imp_?LoadInt@ioINILoader@@QAEHPBDH@Z

; 121  : 	}

  00155	8b 4d fc	 mov	 ecx, DWORD PTR __$ArrayPad$[ebp]
  00158	33 cd		 xor	 ecx, ebp
  0015a	e8 00 00 00 00	 call	 @__security_check_cookie@4
  0015f	c9		 leave
  00160	c2 08 00	 ret	 8
??$LoadInt_e@$09@ioINILoader@@QAEHAAY09$$CBDH@Z ENDP	; ioINILoader::LoadInt_e<10>
_TEXT	ENDS
PUBLIC	__$ArrayPad$
PUBLIC	??$LoadInt_e@$0BE@@ioINILoader@@QAEHAAY0BE@$$CBDH@Z ; ioINILoader::LoadInt_e<20>
; Function compile flags: /Ogsp
;	COMDAT ??$LoadInt_e@$0BE@@ioINILoader@@QAEHAAY0BE@$$CBDH@Z
_TEXT	SEGMENT
__k$ = -28						; size = 20
__$ArrayPad$ = -4					; size = 4
_k$ = 8							; size = 4
_i$ = 12						; size = 4
??$LoadInt_e@$0BE@@ioINILoader@@QAEHAAY0BE@$$CBDH@Z PROC ; ioINILoader::LoadInt_e<20>, COMDAT
; _this$ = ecx

; 118  : 	{

  00000	55		 push	 ebp
  00001	8b ec		 mov	 ebp, esp
  00003	83 ec 1c	 sub	 esp, 28			; 0000001cH
  00006	a1 00 00 00 00	 mov	 eax, DWORD PTR ___security_cookie
  0000b	33 c5		 xor	 eax, ebp
  0000d	89 45 fc	 mov	 DWORD PTR __$ArrayPad$[ebp], eax
  00010	8b 45 08	 mov	 eax, DWORD PTR _k$[ebp]

; 119  : 		_ENCSTR(k, _k);

  00013	8a 10		 mov	 dl, BYTE PTR [eax]
  00015	53		 push	 ebx
  00016	56		 push	 esi
  00017	8b f1		 mov	 esi, ecx
  00019	84 d2		 test	 dl, dl
  0001b	0f 84 dd 01 00
	00		 je	 $LN96@LoadInt_e@2
  00021	80 f2 ed	 xor	 dl, -19			; ffffffedH
  00024	88 55 e4	 mov	 BYTE PTR __k$[ebp], dl
  00027	8a 50 01	 mov	 dl, BYTE PTR [eax+1]
  0002a	84 d2		 test	 dl, dl
  0002c	0f 84 c6 01 00
	00		 je	 $LN95@LoadInt_e@2
  00032	b3 ec		 mov	 bl, -20			; ffffffecH
  00034	32 d3		 xor	 dl, bl
  00036	88 55 e5	 mov	 BYTE PTR __k$[ebp+1], dl
  00039	8a 50 02	 mov	 dl, BYTE PTR [eax+2]
  0003c	84 d2		 test	 dl, dl
  0003e	0f 84 ae 01 00
	00		 je	 $LN94@LoadInt_e@2
  00044	b1 eb		 mov	 cl, -21			; ffffffebH
  00046	32 d1		 xor	 dl, cl
  00048	88 55 e6	 mov	 BYTE PTR __k$[ebp+2], dl
  0004b	8a 50 03	 mov	 dl, BYTE PTR [eax+3]
  0004e	84 d2		 test	 dl, dl
  00050	0f 84 96 01 00
	00		 je	 $LN93@LoadInt_e@2
  00056	80 f2 ea	 xor	 dl, -22			; ffffffeaH
  00059	88 55 e7	 mov	 BYTE PTR __k$[ebp+3], dl
  0005c	8a 50 04	 mov	 dl, BYTE PTR [eax+4]
  0005f	84 d2		 test	 dl, dl
  00061	0f 84 7f 01 00
	00		 je	 $LN92@LoadInt_e@2
  00067	80 f2 ed	 xor	 dl, -19			; ffffffedH
  0006a	88 55 e8	 mov	 BYTE PTR __k$[ebp+4], dl
  0006d	8a 50 05	 mov	 dl, BYTE PTR [eax+5]
  00070	84 d2		 test	 dl, dl
  00072	0f 84 69 01 00
	00		 je	 $LN91@LoadInt_e@2
  00078	32 d3		 xor	 dl, bl
  0007a	88 55 e9	 mov	 BYTE PTR __k$[ebp+5], dl
  0007d	8a 50 06	 mov	 dl, BYTE PTR [eax+6]
  00080	84 d2		 test	 dl, dl
  00082	0f 84 54 01 00
	00		 je	 $LN90@LoadInt_e@2
  00088	32 d1		 xor	 dl, cl
  0008a	88 55 ea	 mov	 BYTE PTR __k$[ebp+6], dl
  0008d	8a 50 07	 mov	 dl, BYTE PTR [eax+7]
  00090	84 d2		 test	 dl, dl
  00092	0f 84 3e 01 00
	00		 je	 $LN89@LoadInt_e@2
  00098	80 f2 ea	 xor	 dl, -22			; ffffffeaH
  0009b	88 55 eb	 mov	 BYTE PTR __k$[ebp+7], dl
  0009e	8a 50 08	 mov	 dl, BYTE PTR [eax+8]
  000a1	84 d2		 test	 dl, dl
  000a3	0f 84 27 01 00
	00		 je	 $LN88@LoadInt_e@2
  000a9	80 f2 ed	 xor	 dl, -19			; ffffffedH
  000ac	88 55 ec	 mov	 BYTE PTR __k$[ebp+8], dl
  000af	8a 50 09	 mov	 dl, BYTE PTR [eax+9]
  000b2	84 d2		 test	 dl, dl
  000b4	0f 84 11 01 00
	00		 je	 $LN87@LoadInt_e@2
  000ba	32 d3		 xor	 dl, bl
  000bc	88 55 ed	 mov	 BYTE PTR __k$[ebp+9], dl
  000bf	8a 50 0a	 mov	 dl, BYTE PTR [eax+10]
  000c2	84 d2		 test	 dl, dl
  000c4	0f 84 fc 00 00
	00		 je	 $LN86@LoadInt_e@2
  000ca	32 d1		 xor	 dl, cl
  000cc	88 55 ee	 mov	 BYTE PTR __k$[ebp+10], dl
  000cf	8a 50 0b	 mov	 dl, BYTE PTR [eax+11]
  000d2	84 d2		 test	 dl, dl
  000d4	0f 84 e6 00 00
	00		 je	 $LN85@LoadInt_e@2
  000da	80 f2 ea	 xor	 dl, -22			; ffffffeaH
  000dd	88 55 ef	 mov	 BYTE PTR __k$[ebp+11], dl
  000e0	8a 50 0c	 mov	 dl, BYTE PTR [eax+12]
  000e3	84 d2		 test	 dl, dl
  000e5	0f 84 cf 00 00
	00		 je	 $LN84@LoadInt_e@2
  000eb	80 f2 ed	 xor	 dl, -19			; ffffffedH
  000ee	88 55 f0	 mov	 BYTE PTR __k$[ebp+12], dl
  000f1	8a 50 0d	 mov	 dl, BYTE PTR [eax+13]
  000f4	84 d2		 test	 dl, dl
  000f6	0f 84 b9 00 00
	00		 je	 $LN83@LoadInt_e@2
  000fc	32 d3		 xor	 dl, bl
  000fe	88 55 f1	 mov	 BYTE PTR __k$[ebp+13], dl
  00101	8a 50 0e	 mov	 dl, BYTE PTR [eax+14]
  00104	84 d2		 test	 dl, dl
  00106	0f 84 a4 00 00
	00		 je	 $LN82@LoadInt_e@2
  0010c	32 d1		 xor	 dl, cl
  0010e	88 55 f2	 mov	 BYTE PTR __k$[ebp+14], dl
  00111	8a 50 0f	 mov	 dl, BYTE PTR [eax+15]
  00114	84 d2		 test	 dl, dl
  00116	0f 84 8e 00 00
	00		 je	 $LN81@LoadInt_e@2
  0011c	80 f2 ea	 xor	 dl, -22			; ffffffeaH
  0011f	88 55 f3	 mov	 BYTE PTR __k$[ebp+15], dl
  00122	8a 50 10	 mov	 dl, BYTE PTR [eax+16]
  00125	84 d2		 test	 dl, dl
  00127	74 7b		 je	 SHORT $LN80@LoadInt_e@2
  00129	80 f2 ed	 xor	 dl, -19			; ffffffedH
  0012c	88 55 f4	 mov	 BYTE PTR __k$[ebp+16], dl
  0012f	8a 50 11	 mov	 dl, BYTE PTR [eax+17]
  00132	84 d2		 test	 dl, dl
  00134	74 69		 je	 SHORT $LN79@LoadInt_e@2
  00136	32 d3		 xor	 dl, bl
  00138	88 55 f5	 mov	 BYTE PTR __k$[ebp+17], dl
  0013b	8a 50 12	 mov	 dl, BYTE PTR [eax+18]
  0013e	84 d2		 test	 dl, dl
  00140	74 58		 je	 SHORT $LN78@LoadInt_e@2
  00142	32 d1		 xor	 dl, cl
  00144	80 78 13 00	 cmp	 BYTE PTR [eax+19], 0
  00148	88 55 f6	 mov	 BYTE PTR __k$[ebp+18], dl
  0014b	0f 84 b1 00 00
	00		 je	 $LN1@LoadInt_e@2
  00151	8a 50 14	 mov	 dl, BYTE PTR [eax+20]
  00154	84 d2		 test	 dl, dl
  00156	74 3c		 je	 SHORT $LN76@LoadInt_e@2
  00158	80 f2 ed	 xor	 dl, -19			; ffffffedH
  0015b	88 55 f8	 mov	 BYTE PTR __k$[ebp+20], dl
  0015e	8a 50 15	 mov	 dl, BYTE PTR [eax+21]
  00161	84 d2		 test	 dl, dl
  00163	74 2a		 je	 SHORT $LN75@LoadInt_e@2
  00165	32 d3		 xor	 dl, bl
  00167	88 55 f9	 mov	 BYTE PTR __k$[ebp+21], dl
  0016a	8a 50 16	 mov	 dl, BYTE PTR [eax+22]
  0016d	84 d2		 test	 dl, dl
  0016f	74 19		 je	 SHORT $LN74@LoadInt_e@2
  00171	8a 40 17	 mov	 al, BYTE PTR [eax+23]
  00174	32 d1		 xor	 dl, cl
  00176	88 55 fa	 mov	 BYTE PTR __k$[ebp+22], dl
  00179	84 c0		 test	 al, al
  0017b	74 07		 je	 SHORT $LN73@LoadInt_e@2
  0017d	34 ea		 xor	 al, -22			; ffffffeaH
  0017f	88 45 fb	 mov	 BYTE PTR __k$[ebp+23], al
  00182	eb 7e		 jmp	 SHORT $LN1@LoadInt_e@2
$LN73@LoadInt_e@2:
  00184	c6 45 fb ea	 mov	 BYTE PTR __k$[ebp+23], -22 ; ffffffeaH
  00188	eb 78		 jmp	 SHORT $LN1@LoadInt_e@2
$LN74@LoadInt_e@2:
  0018a	88 4d fa	 mov	 BYTE PTR __k$[ebp+22], cl
  0018d	eb 73		 jmp	 SHORT $LN1@LoadInt_e@2
$LN75@LoadInt_e@2:
  0018f	88 5d f9	 mov	 BYTE PTR __k$[ebp+21], bl
  00192	eb 6e		 jmp	 SHORT $LN1@LoadInt_e@2
$LN76@LoadInt_e@2:
  00194	c6 45 f8 ed	 mov	 BYTE PTR __k$[ebp+20], -19 ; ffffffedH
  00198	eb 68		 jmp	 SHORT $LN1@LoadInt_e@2
$LN78@LoadInt_e@2:
  0019a	88 4d f6	 mov	 BYTE PTR __k$[ebp+18], cl
  0019d	eb 63		 jmp	 SHORT $LN1@LoadInt_e@2
$LN79@LoadInt_e@2:
  0019f	88 5d f5	 mov	 BYTE PTR __k$[ebp+17], bl
  001a2	eb 5e		 jmp	 SHORT $LN1@LoadInt_e@2
$LN80@LoadInt_e@2:
  001a4	c6 45 f4 ed	 mov	 BYTE PTR __k$[ebp+16], -19 ; ffffffedH
  001a8	eb 58		 jmp	 SHORT $LN1@LoadInt_e@2
$LN81@LoadInt_e@2:
  001aa	c6 45 f3 ea	 mov	 BYTE PTR __k$[ebp+15], -22 ; ffffffeaH
  001ae	eb 52		 jmp	 SHORT $LN1@LoadInt_e@2
$LN82@LoadInt_e@2:
  001b0	88 4d f2	 mov	 BYTE PTR __k$[ebp+14], cl
  001b3	eb 4d		 jmp	 SHORT $LN1@LoadInt_e@2
$LN83@LoadInt_e@2:
  001b5	88 5d f1	 mov	 BYTE PTR __k$[ebp+13], bl
  001b8	eb 48		 jmp	 SHORT $LN1@LoadInt_e@2
$LN84@LoadInt_e@2:
  001ba	c6 45 f0 ed	 mov	 BYTE PTR __k$[ebp+12], -19 ; ffffffedH
  001be	eb 42		 jmp	 SHORT $LN1@LoadInt_e@2
$LN85@LoadInt_e@2:
  001c0	c6 45 ef ea	 mov	 BYTE PTR __k$[ebp+11], -22 ; ffffffeaH
  001c4	eb 3c		 jmp	 SHORT $LN1@LoadInt_e@2
$LN86@LoadInt_e@2:
  001c6	88 4d ee	 mov	 BYTE PTR __k$[ebp+10], cl
  001c9	eb 37		 jmp	 SHORT $LN1@LoadInt_e@2
$LN87@LoadInt_e@2:
  001cb	88 5d ed	 mov	 BYTE PTR __k$[ebp+9], bl
  001ce	eb 32		 jmp	 SHORT $LN1@LoadInt_e@2
$LN88@LoadInt_e@2:
  001d0	c6 45 ec ed	 mov	 BYTE PTR __k$[ebp+8], -19 ; ffffffedH
  001d4	eb 2c		 jmp	 SHORT $LN1@LoadInt_e@2
$LN89@LoadInt_e@2:
  001d6	c6 45 eb ea	 mov	 BYTE PTR __k$[ebp+7], -22 ; ffffffeaH
  001da	eb 26		 jmp	 SHORT $LN1@LoadInt_e@2
$LN90@LoadInt_e@2:
  001dc	88 4d ea	 mov	 BYTE PTR __k$[ebp+6], cl
  001df	eb 21		 jmp	 SHORT $LN1@LoadInt_e@2
$LN91@LoadInt_e@2:
  001e1	88 5d e9	 mov	 BYTE PTR __k$[ebp+5], bl
  001e4	eb 1c		 jmp	 SHORT $LN1@LoadInt_e@2
$LN92@LoadInt_e@2:
  001e6	c6 45 e8 ed	 mov	 BYTE PTR __k$[ebp+4], -19 ; ffffffedH
  001ea	eb 16		 jmp	 SHORT $LN1@LoadInt_e@2
$LN93@LoadInt_e@2:
  001ec	c6 45 e7 ea	 mov	 BYTE PTR __k$[ebp+3], -22 ; ffffffeaH
  001f0	eb 10		 jmp	 SHORT $LN1@LoadInt_e@2
$LN94@LoadInt_e@2:
  001f2	c6 45 e6 eb	 mov	 BYTE PTR __k$[ebp+2], -21 ; ffffffebH
  001f6	eb 0a		 jmp	 SHORT $LN1@LoadInt_e@2
$LN95@LoadInt_e@2:
  001f8	c6 45 e5 ec	 mov	 BYTE PTR __k$[ebp+1], -20 ; ffffffecH
  001fc	eb 04		 jmp	 SHORT $LN1@LoadInt_e@2
$LN96@LoadInt_e@2:
  001fe	c6 45 e4 ed	 mov	 BYTE PTR __k$[ebp], -19	; ffffffedH
$LN1@LoadInt_e@2:
  00202	6a 04		 push	 4
  00204	8d 45 e4	 lea	 eax, DWORD PTR __k$[ebp]
  00207	c6 45 f7 00	 mov	 BYTE PTR __k$[ebp+19], 0
  0020b	5a		 pop	 edx
$LL104@LoadInt_e@2:
  0020c	81 30 ed ec eb
	ea		 xor	 DWORD PTR [eax], -353637139 ; eaebecedH
  00212	83 c0 04	 add	 eax, 4
  00215	4a		 dec	 edx
  00216	75 f4		 jne	 SHORT $LL104@LoadInt_e@2
  00218	6a 10		 push	 16			; 00000010H
  0021a	58		 pop	 eax
$LL101@LoadInt_e@2:
  0021b	8b c8		 mov	 ecx, eax
  0021d	81 e1 03 00 00
	80		 and	 ecx, -2147483645	; 80000003H
  00223	79 05		 jns	 SHORT $LN111@LoadInt_e@2
  00225	49		 dec	 ecx
  00226	83 c9 fc	 or	 ecx, -4			; fffffffcH
  00229	41		 inc	 ecx
$LN111@LoadInt_e@2:
  0022a	b2 ed		 mov	 dl, -19			; ffffffedH
  0022c	2a d1		 sub	 dl, cl
  0022e	30 54 05 e4	 xor	 BYTE PTR __k$[ebp+eax], dl
  00232	40		 inc	 eax
  00233	83 f8 13	 cmp	 eax, 19			; 00000013H
  00236	7c e3		 jl	 SHORT $LL101@LoadInt_e@2

; 120  : 		return LoadInt(_k, i);

  00238	ff 75 0c	 push	 DWORD PTR _i$[ebp]
  0023b	8d 45 e4	 lea	 eax, DWORD PTR __k$[ebp]
  0023e	50		 push	 eax
  0023f	8b ce		 mov	 ecx, esi
  00241	ff 15 00 00 00
	00		 call	 DWORD PTR __imp_?LoadInt@ioINILoader@@QAEHPBDH@Z

; 121  : 	}

  00247	8b 4d fc	 mov	 ecx, DWORD PTR __$ArrayPad$[ebp]
  0024a	5e		 pop	 esi
  0024b	33 cd		 xor	 ecx, ebp
  0024d	5b		 pop	 ebx
  0024e	e8 00 00 00 00	 call	 @__security_check_cookie@4
  00253	c9		 leave
  00254	c2 08 00	 ret	 8
??$LoadInt_e@$0BE@@ioINILoader@@QAEHAAY0BE@$$CBDH@Z ENDP ; ioINILoader::LoadInt_e<20>
_TEXT	ENDS
PUBLIC	__$ArrayPad$
PUBLIC	??$LoadBool_e@$0M@@ioINILoader@@QAE_NAAY0M@$$CBD_N@Z ; ioINILoader::LoadBool_e<12>
EXTRN	__imp_?LoadBool@ioINILoader@@QAE_NPBD_N@Z:PROC
; Function compile flags: /Ogsp
;	COMDAT ??$LoadBool_e@$0M@@ioINILoader@@QAE_NAAY0M@$$CBD_N@Z
_TEXT	SEGMENT
__k$ = -20						; size = 12
__$ArrayPad$ = -4					; size = 4
_k$ = 8							; size = 4
_b$ = 12						; size = 1
??$LoadBool_e@$0M@@ioINILoader@@QAE_NAAY0M@$$CBD_N@Z PROC ; ioINILoader::LoadBool_e<12>, COMDAT
; _this$ = ecx

; 101  : 	{

  00000	55		 push	 ebp
  00001	8b ec		 mov	 ebp, esp
  00003	83 ec 14	 sub	 esp, 20			; 00000014H
  00006	a1 00 00 00 00	 mov	 eax, DWORD PTR ___security_cookie
  0000b	33 c5		 xor	 eax, ebp
  0000d	89 45 fc	 mov	 DWORD PTR __$ArrayPad$[ebp], eax
  00010	8b 45 08	 mov	 eax, DWORD PTR _k$[ebp]

; 102  : 		_ENCSTR(k, _k);

  00013	8a 10		 mov	 dl, BYTE PTR [eax]
  00015	56		 push	 esi
  00016	8b f1		 mov	 esi, ecx
  00018	84 d2		 test	 dl, dl
  0001a	0f 84 32 01 00
	00		 je	 $LN96@LoadBool_e
  00020	80 f2 ed	 xor	 dl, -19			; ffffffedH
  00023	88 55 ec	 mov	 BYTE PTR __k$[ebp], dl
  00026	8a 50 01	 mov	 dl, BYTE PTR [eax+1]
  00029	84 d2		 test	 dl, dl
  0002b	0f 84 1b 01 00
	00		 je	 $LN95@LoadBool_e
  00031	80 f2 ec	 xor	 dl, -20			; ffffffecH
  00034	88 55 ed	 mov	 BYTE PTR __k$[ebp+1], dl
  00037	8a 50 02	 mov	 dl, BYTE PTR [eax+2]
  0003a	84 d2		 test	 dl, dl
  0003c	0f 84 04 01 00
	00		 je	 $LN94@LoadBool_e
  00042	b1 eb		 mov	 cl, -21			; ffffffebH
  00044	32 d1		 xor	 dl, cl
  00046	88 55 ee	 mov	 BYTE PTR __k$[ebp+2], dl
  00049	8a 50 03	 mov	 dl, BYTE PTR [eax+3]
  0004c	84 d2		 test	 dl, dl
  0004e	0f 84 ec 00 00
	00		 je	 $LN93@LoadBool_e
  00054	80 f2 ea	 xor	 dl, -22			; ffffffeaH
  00057	88 55 ef	 mov	 BYTE PTR __k$[ebp+3], dl
  0005a	8a 50 04	 mov	 dl, BYTE PTR [eax+4]
  0005d	84 d2		 test	 dl, dl
  0005f	0f 84 d5 00 00
	00		 je	 $LN92@LoadBool_e
  00065	80 f2 ed	 xor	 dl, -19			; ffffffedH
  00068	88 55 f0	 mov	 BYTE PTR __k$[ebp+4], dl
  0006b	8a 50 05	 mov	 dl, BYTE PTR [eax+5]
  0006e	84 d2		 test	 dl, dl
  00070	0f 84 be 00 00
	00		 je	 $LN91@LoadBool_e
  00076	80 f2 ec	 xor	 dl, -20			; ffffffecH
  00079	88 55 f1	 mov	 BYTE PTR __k$[ebp+5], dl
  0007c	8a 50 06	 mov	 dl, BYTE PTR [eax+6]
  0007f	84 d2		 test	 dl, dl
  00081	0f 84 a8 00 00
	00		 je	 $LN90@LoadBool_e
  00087	32 d1		 xor	 dl, cl
  00089	88 55 f2	 mov	 BYTE PTR __k$[ebp+6], dl
  0008c	8a 50 07	 mov	 dl, BYTE PTR [eax+7]
  0008f	84 d2		 test	 dl, dl
  00091	0f 84 92 00 00
	00		 je	 $LN89@LoadBool_e
  00097	80 f2 ea	 xor	 dl, -22			; ffffffeaH
  0009a	88 55 f3	 mov	 BYTE PTR __k$[ebp+7], dl
  0009d	8a 50 08	 mov	 dl, BYTE PTR [eax+8]
  000a0	84 d2		 test	 dl, dl
  000a2	74 7f		 je	 SHORT $LN88@LoadBool_e
  000a4	80 f2 ed	 xor	 dl, -19			; ffffffedH
  000a7	88 55 f4	 mov	 BYTE PTR __k$[ebp+8], dl
  000aa	8a 50 09	 mov	 dl, BYTE PTR [eax+9]
  000ad	84 d2		 test	 dl, dl
  000af	74 6c		 je	 SHORT $LN87@LoadBool_e
  000b1	80 f2 ec	 xor	 dl, -20			; ffffffecH
  000b4	88 55 f5	 mov	 BYTE PTR __k$[ebp+9], dl
  000b7	8a 50 0a	 mov	 dl, BYTE PTR [eax+10]
  000ba	84 d2		 test	 dl, dl
  000bc	74 5a		 je	 SHORT $LN86@LoadBool_e
  000be	32 d1		 xor	 dl, cl
  000c0	80 78 0b 00	 cmp	 BYTE PTR [eax+11], 0
  000c4	88 55 f6	 mov	 BYTE PTR __k$[ebp+10], dl
  000c7	0f 84 89 00 00
	00		 je	 $LN1@LoadBool_e
  000cd	8a 50 0c	 mov	 dl, BYTE PTR [eax+12]
  000d0	84 d2		 test	 dl, dl
  000d2	74 3e		 je	 SHORT $LN84@LoadBool_e
  000d4	80 f2 ed	 xor	 dl, -19			; ffffffedH
  000d7	88 55 f8	 mov	 BYTE PTR __k$[ebp+12], dl
  000da	8a 50 0d	 mov	 dl, BYTE PTR [eax+13]
  000dd	84 d2		 test	 dl, dl
  000df	74 2b		 je	 SHORT $LN83@LoadBool_e
  000e1	80 f2 ec	 xor	 dl, -20			; ffffffecH
  000e4	88 55 f9	 mov	 BYTE PTR __k$[ebp+13], dl
  000e7	8a 50 0e	 mov	 dl, BYTE PTR [eax+14]
  000ea	84 d2		 test	 dl, dl
  000ec	74 19		 je	 SHORT $LN82@LoadBool_e
  000ee	8a 40 0f	 mov	 al, BYTE PTR [eax+15]
  000f1	32 d1		 xor	 dl, cl
  000f3	88 55 fa	 mov	 BYTE PTR __k$[ebp+14], dl
  000f6	84 c0		 test	 al, al
  000f8	74 07		 je	 SHORT $LN81@LoadBool_e
  000fa	34 ea		 xor	 al, -22			; ffffffeaH
  000fc	88 45 fb	 mov	 BYTE PTR __k$[ebp+15], al
  000ff	eb 55		 jmp	 SHORT $LN1@LoadBool_e
$LN81@LoadBool_e:
  00101	c6 45 fb ea	 mov	 BYTE PTR __k$[ebp+15], -22 ; ffffffeaH
  00105	eb 4f		 jmp	 SHORT $LN1@LoadBool_e
$LN82@LoadBool_e:
  00107	88 4d fa	 mov	 BYTE PTR __k$[ebp+14], cl
  0010a	eb 4a		 jmp	 SHORT $LN1@LoadBool_e
$LN83@LoadBool_e:
  0010c	c6 45 f9 ec	 mov	 BYTE PTR __k$[ebp+13], -20 ; ffffffecH
  00110	eb 44		 jmp	 SHORT $LN1@LoadBool_e
$LN84@LoadBool_e:
  00112	c6 45 f8 ed	 mov	 BYTE PTR __k$[ebp+12], -19 ; ffffffedH
  00116	eb 3e		 jmp	 SHORT $LN1@LoadBool_e
$LN86@LoadBool_e:
  00118	88 4d f6	 mov	 BYTE PTR __k$[ebp+10], cl
  0011b	eb 39		 jmp	 SHORT $LN1@LoadBool_e
$LN87@LoadBool_e:
  0011d	c6 45 f5 ec	 mov	 BYTE PTR __k$[ebp+9], -20 ; ffffffecH
  00121	eb 33		 jmp	 SHORT $LN1@LoadBool_e
$LN88@LoadBool_e:
  00123	c6 45 f4 ed	 mov	 BYTE PTR __k$[ebp+8], -19 ; ffffffedH
  00127	eb 2d		 jmp	 SHORT $LN1@LoadBool_e
$LN89@LoadBool_e:
  00129	c6 45 f3 ea	 mov	 BYTE PTR __k$[ebp+7], -22 ; ffffffeaH
  0012d	eb 27		 jmp	 SHORT $LN1@LoadBool_e
$LN90@LoadBool_e:
  0012f	88 4d f2	 mov	 BYTE PTR __k$[ebp+6], cl
  00132	eb 22		 jmp	 SHORT $LN1@LoadBool_e
$LN91@LoadBool_e:
  00134	c6 45 f1 ec	 mov	 BYTE PTR __k$[ebp+5], -20 ; ffffffecH
  00138	eb 1c		 jmp	 SHORT $LN1@LoadBool_e
$LN92@LoadBool_e:
  0013a	c6 45 f0 ed	 mov	 BYTE PTR __k$[ebp+4], -19 ; ffffffedH
  0013e	eb 16		 jmp	 SHORT $LN1@LoadBool_e
$LN93@LoadBool_e:
  00140	c6 45 ef ea	 mov	 BYTE PTR __k$[ebp+3], -22 ; ffffffeaH
  00144	eb 10		 jmp	 SHORT $LN1@LoadBool_e
$LN94@LoadBool_e:
  00146	c6 45 ee eb	 mov	 BYTE PTR __k$[ebp+2], -21 ; ffffffebH
  0014a	eb 0a		 jmp	 SHORT $LN1@LoadBool_e
$LN95@LoadBool_e:
  0014c	c6 45 ed ec	 mov	 BYTE PTR __k$[ebp+1], -20 ; ffffffecH
  00150	eb 04		 jmp	 SHORT $LN1@LoadBool_e
$LN96@LoadBool_e:
  00152	c6 45 ec ed	 mov	 BYTE PTR __k$[ebp], -19	; ffffffedH
$LN1@LoadBool_e:
  00156	6a 02		 push	 2
  00158	8d 45 ec	 lea	 eax, DWORD PTR __k$[ebp]
  0015b	c6 45 f7 00	 mov	 BYTE PTR __k$[ebp+11], 0
  0015f	5a		 pop	 edx
$LL104@LoadBool_e:
  00160	81 30 ed ec eb
	ea		 xor	 DWORD PTR [eax], -353637139 ; eaebecedH
  00166	83 c0 04	 add	 eax, 4
  00169	4a		 dec	 edx
  0016a	75 f4		 jne	 SHORT $LL104@LoadBool_e
  0016c	6a 08		 push	 8
  0016e	58		 pop	 eax
$LL101@LoadBool_e:
  0016f	8b c8		 mov	 ecx, eax
  00171	81 e1 03 00 00
	80		 and	 ecx, -2147483645	; 80000003H
  00177	79 05		 jns	 SHORT $LN111@LoadBool_e
  00179	49		 dec	 ecx
  0017a	83 c9 fc	 or	 ecx, -4			; fffffffcH
  0017d	41		 inc	 ecx
$LN111@LoadBool_e:
  0017e	b2 ed		 mov	 dl, -19			; ffffffedH
  00180	2a d1		 sub	 dl, cl
  00182	30 54 05 ec	 xor	 BYTE PTR __k$[ebp+eax], dl
  00186	40		 inc	 eax
  00187	83 f8 0b	 cmp	 eax, 11			; 0000000bH
  0018a	7c e3		 jl	 SHORT $LL101@LoadBool_e

; 103  : 		return LoadBool(_k, b);

  0018c	ff 75 0c	 push	 DWORD PTR _b$[ebp]
  0018f	8d 45 ec	 lea	 eax, DWORD PTR __k$[ebp]
  00192	50		 push	 eax
  00193	8b ce		 mov	 ecx, esi
  00195	ff 15 00 00 00
	00		 call	 DWORD PTR __imp_?LoadBool@ioINILoader@@QAE_NPBD_N@Z

; 104  : 	}

  0019b	8b 4d fc	 mov	 ecx, DWORD PTR __$ArrayPad$[ebp]
  0019e	33 cd		 xor	 ecx, ebp
  001a0	5e		 pop	 esi
  001a1	e8 00 00 00 00	 call	 @__security_check_cookie@4
  001a6	c9		 leave
  001a7	c2 08 00	 ret	 8
??$LoadBool_e@$0M@@ioINILoader@@QAE_NAAY0M@$$CBD_N@Z ENDP ; ioINILoader::LoadBool_e<12>
_TEXT	ENDS
PUBLIC	__$ArrayPad$
PUBLIC	??$LoadBool_e@$0P@@ioINILoader@@QAE_NAAY0P@$$CBD_N@Z ; ioINILoader::LoadBool_e<15>
; Function compile flags: /Ogsp
;	COMDAT ??$LoadBool_e@$0P@@ioINILoader@@QAE_NAAY0P@$$CBD_N@Z
_TEXT	SEGMENT
__k$ = -24						; size = 15
__$ArrayPad$ = -4					; size = 4
_k$ = 8							; size = 4
_b$ = 12						; size = 1
??$LoadBool_e@$0P@@ioINILoader@@QAE_NAAY0P@$$CBD_N@Z PROC ; ioINILoader::LoadBool_e<15>, COMDAT
; _this$ = ecx

; 101  : 	{

  00000	55		 push	 ebp
  00001	8b ec		 mov	 ebp, esp
  00003	83 ec 18	 sub	 esp, 24			; 00000018H
  00006	a1 00 00 00 00	 mov	 eax, DWORD PTR ___security_cookie
  0000b	33 c5		 xor	 eax, ebp
  0000d	89 45 fc	 mov	 DWORD PTR __$ArrayPad$[ebp], eax
  00010	8b 45 08	 mov	 eax, DWORD PTR _k$[ebp]

; 102  : 		_ENCSTR(k, _k);

  00013	8a 10		 mov	 dl, BYTE PTR [eax]
  00015	56		 push	 esi
  00016	8b f1		 mov	 esi, ecx
  00018	84 d2		 test	 dl, dl
  0001a	0f 84 75 01 00
	00		 je	 $LN96@LoadBool_e@2
  00020	80 f2 ed	 xor	 dl, -19			; ffffffedH
  00023	88 55 e8	 mov	 BYTE PTR __k$[ebp], dl
  00026	8a 50 01	 mov	 dl, BYTE PTR [eax+1]
  00029	84 d2		 test	 dl, dl
  0002b	0f 84 5e 01 00
	00		 je	 $LN95@LoadBool_e@2
  00031	b1 ec		 mov	 cl, -20			; ffffffecH
  00033	32 d1		 xor	 dl, cl
  00035	88 55 e9	 mov	 BYTE PTR __k$[ebp+1], dl
  00038	8a 50 02	 mov	 dl, BYTE PTR [eax+2]
  0003b	84 d2		 test	 dl, dl
  0003d	0f 84 46 01 00
	00		 je	 $LN94@LoadBool_e@2
  00043	80 f2 eb	 xor	 dl, -21			; ffffffebH
  00046	88 55 ea	 mov	 BYTE PTR __k$[ebp+2], dl
  00049	8a 50 03	 mov	 dl, BYTE PTR [eax+3]
  0004c	84 d2		 test	 dl, dl
  0004e	0f 84 2f 01 00
	00		 je	 $LN93@LoadBool_e@2
  00054	80 f2 ea	 xor	 dl, -22			; ffffffeaH
  00057	88 55 eb	 mov	 BYTE PTR __k$[ebp+3], dl
  0005a	8a 50 04	 mov	 dl, BYTE PTR [eax+4]
  0005d	84 d2		 test	 dl, dl
  0005f	0f 84 18 01 00
	00		 je	 $LN92@LoadBool_e@2
  00065	80 f2 ed	 xor	 dl, -19			; ffffffedH
  00068	88 55 ec	 mov	 BYTE PTR __k$[ebp+4], dl
  0006b	8a 50 05	 mov	 dl, BYTE PTR [eax+5]
  0006e	84 d2		 test	 dl, dl
  00070	0f 84 02 01 00
	00		 je	 $LN91@LoadBool_e@2
  00076	32 d1		 xor	 dl, cl
  00078	88 55 ed	 mov	 BYTE PTR __k$[ebp+5], dl
  0007b	8a 50 06	 mov	 dl, BYTE PTR [eax+6]
  0007e	84 d2		 test	 dl, dl
  00080	0f 84 ec 00 00
	00		 je	 $LN90@LoadBool_e@2
  00086	80 f2 eb	 xor	 dl, -21			; ffffffebH
  00089	88 55 ee	 mov	 BYTE PTR __k$[ebp+6], dl
  0008c	8a 50 07	 mov	 dl, BYTE PTR [eax+7]
  0008f	84 d2		 test	 dl, dl
  00091	0f 84 d5 00 00
	00		 je	 $LN89@LoadBool_e@2
  00097	80 f2 ea	 xor	 dl, -22			; ffffffeaH
  0009a	88 55 ef	 mov	 BYTE PTR __k$[ebp+7], dl
  0009d	8a 50 08	 mov	 dl, BYTE PTR [eax+8]
  000a0	84 d2		 test	 dl, dl
  000a2	0f 84 be 00 00
	00		 je	 $LN88@LoadBool_e@2
  000a8	80 f2 ed	 xor	 dl, -19			; ffffffedH
  000ab	88 55 f0	 mov	 BYTE PTR __k$[ebp+8], dl
  000ae	8a 50 09	 mov	 dl, BYTE PTR [eax+9]
  000b1	84 d2		 test	 dl, dl
  000b3	0f 84 a8 00 00
	00		 je	 $LN87@LoadBool_e@2
  000b9	32 d1		 xor	 dl, cl
  000bb	88 55 f1	 mov	 BYTE PTR __k$[ebp+9], dl
  000be	8a 50 0a	 mov	 dl, BYTE PTR [eax+10]
  000c1	84 d2		 test	 dl, dl
  000c3	0f 84 92 00 00
	00		 je	 $LN86@LoadBool_e@2
  000c9	80 f2 eb	 xor	 dl, -21			; ffffffebH
  000cc	88 55 f2	 mov	 BYTE PTR __k$[ebp+10], dl
  000cf	8a 50 0b	 mov	 dl, BYTE PTR [eax+11]
  000d2	84 d2		 test	 dl, dl
  000d4	74 7f		 je	 SHORT $LN85@LoadBool_e@2
  000d6	80 f2 ea	 xor	 dl, -22			; ffffffeaH
  000d9	88 55 f3	 mov	 BYTE PTR __k$[ebp+11], dl
  000dc	8a 50 0c	 mov	 dl, BYTE PTR [eax+12]
  000df	84 d2		 test	 dl, dl
  000e1	74 6c		 je	 SHORT $LN84@LoadBool_e@2
  000e3	80 f2 ed	 xor	 dl, -19			; ffffffedH
  000e6	88 55 f4	 mov	 BYTE PTR __k$[ebp+12], dl
  000e9	8a 50 0d	 mov	 dl, BYTE PTR [eax+13]
  000ec	84 d2		 test	 dl, dl
  000ee	74 5a		 je	 SHORT $LN83@LoadBool_e@2
  000f0	32 d1		 xor	 dl, cl
  000f2	80 78 0e 00	 cmp	 BYTE PTR [eax+14], 0
  000f6	88 55 f5	 mov	 BYTE PTR __k$[ebp+13], dl
  000f9	0f 84 9a 00 00
	00		 je	 $LN1@LoadBool_e@2
  000ff	8a 50 0f	 mov	 dl, BYTE PTR [eax+15]
  00102	84 d2		 test	 dl, dl
  00104	74 3e		 je	 SHORT $LN81@LoadBool_e@2
  00106	80 f2 ea	 xor	 dl, -22			; ffffffeaH
  00109	88 55 f7	 mov	 BYTE PTR __k$[ebp+15], dl
  0010c	8a 50 10	 mov	 dl, BYTE PTR [eax+16]
  0010f	84 d2		 test	 dl, dl
  00111	74 2b		 je	 SHORT $LN80@LoadBool_e@2
  00113	80 f2 ed	 xor	 dl, -19			; ffffffedH
  00116	88 55 f8	 mov	 BYTE PTR __k$[ebp+16], dl
  00119	8a 50 11	 mov	 dl, BYTE PTR [eax+17]
  0011c	84 d2		 test	 dl, dl
  0011e	74 19		 je	 SHORT $LN79@LoadBool_e@2
  00120	8a 40 12	 mov	 al, BYTE PTR [eax+18]
  00123	32 d1		 xor	 dl, cl
  00125	88 55 f9	 mov	 BYTE PTR __k$[ebp+17], dl
  00128	84 c0		 test	 al, al
  0012a	74 07		 je	 SHORT $LN78@LoadBool_e@2
  0012c	34 eb		 xor	 al, -21			; ffffffebH
  0012e	88 45 fa	 mov	 BYTE PTR __k$[ebp+18], al
  00131	eb 66		 jmp	 SHORT $LN1@LoadBool_e@2
$LN78@LoadBool_e@2:
  00133	c6 45 fa eb	 mov	 BYTE PTR __k$[ebp+18], -21 ; ffffffebH
  00137	eb 60		 jmp	 SHORT $LN1@LoadBool_e@2
$LN79@LoadBool_e@2:
  00139	88 4d f9	 mov	 BYTE PTR __k$[ebp+17], cl
  0013c	eb 5b		 jmp	 SHORT $LN1@LoadBool_e@2
$LN80@LoadBool_e@2:
  0013e	c6 45 f8 ed	 mov	 BYTE PTR __k$[ebp+16], -19 ; ffffffedH
  00142	eb 55		 jmp	 SHORT $LN1@LoadBool_e@2
$LN81@LoadBool_e@2:
  00144	c6 45 f7 ea	 mov	 BYTE PTR __k$[ebp+15], -22 ; ffffffeaH
  00148	eb 4f		 jmp	 SHORT $LN1@LoadBool_e@2
$LN83@LoadBool_e@2:
  0014a	88 4d f5	 mov	 BYTE PTR __k$[ebp+13], cl
  0014d	eb 4a		 jmp	 SHORT $LN1@LoadBool_e@2
$LN84@LoadBool_e@2:
  0014f	c6 45 f4 ed	 mov	 BYTE PTR __k$[ebp+12], -19 ; ffffffedH
  00153	eb 44		 jmp	 SHORT $LN1@LoadBool_e@2
$LN85@LoadBool_e@2:
  00155	c6 45 f3 ea	 mov	 BYTE PTR __k$[ebp+11], -22 ; ffffffeaH
  00159	eb 3e		 jmp	 SHORT $LN1@LoadBool_e@2
$LN86@LoadBool_e@2:
  0015b	c6 45 f2 eb	 mov	 BYTE PTR __k$[ebp+10], -21 ; ffffffebH
  0015f	eb 38		 jmp	 SHORT $LN1@LoadBool_e@2
$LN87@LoadBool_e@2:
  00161	88 4d f1	 mov	 BYTE PTR __k$[ebp+9], cl
  00164	eb 33		 jmp	 SHORT $LN1@LoadBool_e@2
$LN88@LoadBool_e@2:
  00166	c6 45 f0 ed	 mov	 BYTE PTR __k$[ebp+8], -19 ; ffffffedH
  0016a	eb 2d		 jmp	 SHORT $LN1@LoadBool_e@2
$LN89@LoadBool_e@2:
  0016c	c6 45 ef ea	 mov	 BYTE PTR __k$[ebp+7], -22 ; ffffffeaH
  00170	eb 27		 jmp	 SHORT $LN1@LoadBool_e@2
$LN90@LoadBool_e@2:
  00172	c6 45 ee eb	 mov	 BYTE PTR __k$[ebp+6], -21 ; ffffffebH
  00176	eb 21		 jmp	 SHORT $LN1@LoadBool_e@2
$LN91@LoadBool_e@2:
  00178	88 4d ed	 mov	 BYTE PTR __k$[ebp+5], cl
  0017b	eb 1c		 jmp	 SHORT $LN1@LoadBool_e@2
$LN92@LoadBool_e@2:
  0017d	c6 45 ec ed	 mov	 BYTE PTR __k$[ebp+4], -19 ; ffffffedH
  00181	eb 16		 jmp	 SHORT $LN1@LoadBool_e@2
$LN93@LoadBool_e@2:
  00183	c6 45 eb ea	 mov	 BYTE PTR __k$[ebp+3], -22 ; ffffffeaH
  00187	eb 10		 jmp	 SHORT $LN1@LoadBool_e@2
$LN94@LoadBool_e@2:
  00189	c6 45 ea eb	 mov	 BYTE PTR __k$[ebp+2], -21 ; ffffffebH
  0018d	eb 0a		 jmp	 SHORT $LN1@LoadBool_e@2
$LN95@LoadBool_e@2:
  0018f	c6 45 e9 ec	 mov	 BYTE PTR __k$[ebp+1], -20 ; ffffffecH
  00193	eb 04		 jmp	 SHORT $LN1@LoadBool_e@2
$LN96@LoadBool_e@2:
  00195	c6 45 e8 ed	 mov	 BYTE PTR __k$[ebp], -19	; ffffffedH
$LN1@LoadBool_e@2:
  00199	6a 03		 push	 3
  0019b	8d 45 e8	 lea	 eax, DWORD PTR __k$[ebp]
  0019e	c6 45 f6 00	 mov	 BYTE PTR __k$[ebp+14], 0
  001a2	5a		 pop	 edx
$LL104@LoadBool_e@2:
  001a3	81 30 ed ec eb
	ea		 xor	 DWORD PTR [eax], -353637139 ; eaebecedH
  001a9	83 c0 04	 add	 eax, 4
  001ac	4a		 dec	 edx
  001ad	75 f4		 jne	 SHORT $LL104@LoadBool_e@2
  001af	6a 0c		 push	 12			; 0000000cH
  001b1	58		 pop	 eax
$LL101@LoadBool_e@2:
  001b2	8b c8		 mov	 ecx, eax
  001b4	81 e1 03 00 00
	80		 and	 ecx, -2147483645	; 80000003H
  001ba	79 05		 jns	 SHORT $LN111@LoadBool_e@2
  001bc	49		 dec	 ecx
  001bd	83 c9 fc	 or	 ecx, -4			; fffffffcH
  001c0	41		 inc	 ecx
$LN111@LoadBool_e@2:
  001c1	b2 ed		 mov	 dl, -19			; ffffffedH
  001c3	2a d1		 sub	 dl, cl
  001c5	30 54 05 e8	 xor	 BYTE PTR __k$[ebp+eax], dl
  001c9	40		 inc	 eax
  001ca	83 f8 0e	 cmp	 eax, 14			; 0000000eH
  001cd	7c e3		 jl	 SHORT $LL101@LoadBool_e@2

; 103  : 		return LoadBool(_k, b);

  001cf	ff 75 0c	 push	 DWORD PTR _b$[ebp]
  001d2	8d 45 e8	 lea	 eax, DWORD PTR __k$[ebp]
  001d5	50		 push	 eax
  001d6	8b ce		 mov	 ecx, esi
  001d8	ff 15 00 00 00
	00		 call	 DWORD PTR __imp_?LoadBool@ioINILoader@@QAE_NPBD_N@Z

; 104  : 	}

  001de	8b 4d fc	 mov	 ecx, DWORD PTR __$ArrayPad$[ebp]
  001e1	33 cd		 xor	 ecx, ebp
  001e3	5e		 pop	 esi
  001e4	e8 00 00 00 00	 call	 @__security_check_cookie@4
  001e9	c9		 leave
  001ea	c2 08 00	 ret	 8
??$LoadBool_e@$0P@@ioINILoader@@QAE_NAAY0P@$$CBD_N@Z ENDP ; ioINILoader::LoadBool_e<15>
_TEXT	ENDS
PUBLIC	__$ArrayPad$
PUBLIC	??$LoadBool_e@$09@ioINILoader@@QAE_NAAY09$$CBD_N@Z ; ioINILoader::LoadBool_e<10>
; Function compile flags: /Ogsp
;	COMDAT ??$LoadBool_e@$09@ioINILoader@@QAE_NAAY09$$CBD_N@Z
_TEXT	SEGMENT
__k$ = -20						; size = 10
__$ArrayPad$ = -4					; size = 4
_k$ = 8							; size = 4
_b$ = 12						; size = 1
??$LoadBool_e@$09@ioINILoader@@QAE_NAAY09$$CBD_N@Z PROC	; ioINILoader::LoadBool_e<10>, COMDAT
; _this$ = ecx

; 101  : 	{

  00000	55		 push	 ebp
  00001	8b ec		 mov	 ebp, esp
  00003	83 ec 14	 sub	 esp, 20			; 00000014H
  00006	a1 00 00 00 00	 mov	 eax, DWORD PTR ___security_cookie
  0000b	33 c5		 xor	 eax, ebp
  0000d	89 45 fc	 mov	 DWORD PTR __$ArrayPad$[ebp], eax
  00010	8b 45 08	 mov	 eax, DWORD PTR _k$[ebp]

; 102  : 		_ENCSTR(k, _k);

  00013	8a 10		 mov	 dl, BYTE PTR [eax]
  00015	84 d2		 test	 dl, dl
  00017	0f 84 0d 01 00
	00		 je	 $LN96@LoadBool_e@3
  0001d	80 f2 ed	 xor	 dl, -19			; ffffffedH
  00020	88 55 ec	 mov	 BYTE PTR __k$[ebp], dl
  00023	8a 50 01	 mov	 dl, BYTE PTR [eax+1]
  00026	84 d2		 test	 dl, dl
  00028	0f 84 f6 00 00
	00		 je	 $LN95@LoadBool_e@3
  0002e	80 f2 ec	 xor	 dl, -20			; ffffffecH
  00031	88 55 ed	 mov	 BYTE PTR __k$[ebp+1], dl
  00034	8a 50 02	 mov	 dl, BYTE PTR [eax+2]
  00037	84 d2		 test	 dl, dl
  00039	0f 84 df 00 00
	00		 je	 $LN94@LoadBool_e@3
  0003f	80 f2 eb	 xor	 dl, -21			; ffffffebH
  00042	88 55 ee	 mov	 BYTE PTR __k$[ebp+2], dl
  00045	8a 50 03	 mov	 dl, BYTE PTR [eax+3]
  00048	84 d2		 test	 dl, dl
  0004a	0f 84 c8 00 00
	00		 je	 $LN93@LoadBool_e@3
  00050	80 f2 ea	 xor	 dl, -22			; ffffffeaH
  00053	88 55 ef	 mov	 BYTE PTR __k$[ebp+3], dl
  00056	8a 50 04	 mov	 dl, BYTE PTR [eax+4]
  00059	84 d2		 test	 dl, dl
  0005b	0f 84 b1 00 00
	00		 je	 $LN92@LoadBool_e@3
  00061	80 f2 ed	 xor	 dl, -19			; ffffffedH
  00064	88 55 f0	 mov	 BYTE PTR __k$[ebp+4], dl
  00067	8a 50 05	 mov	 dl, BYTE PTR [eax+5]
  0006a	84 d2		 test	 dl, dl
  0006c	0f 84 9a 00 00
	00		 je	 $LN91@LoadBool_e@3
  00072	80 f2 ec	 xor	 dl, -20			; ffffffecH
  00075	88 55 f1	 mov	 BYTE PTR __k$[ebp+5], dl
  00078	8a 50 06	 mov	 dl, BYTE PTR [eax+6]
  0007b	84 d2		 test	 dl, dl
  0007d	0f 84 83 00 00
	00		 je	 $LN90@LoadBool_e@3
  00083	80 f2 eb	 xor	 dl, -21			; ffffffebH
  00086	88 55 f2	 mov	 BYTE PTR __k$[ebp+6], dl
  00089	8a 50 07	 mov	 dl, BYTE PTR [eax+7]
  0008c	84 d2		 test	 dl, dl
  0008e	74 70		 je	 SHORT $LN89@LoadBool_e@3
  00090	80 f2 ea	 xor	 dl, -22			; ffffffeaH
  00093	88 55 f3	 mov	 BYTE PTR __k$[ebp+7], dl
  00096	8a 50 08	 mov	 dl, BYTE PTR [eax+8]
  00099	84 d2		 test	 dl, dl
  0009b	74 5d		 je	 SHORT $LN88@LoadBool_e@3
  0009d	80 f2 ed	 xor	 dl, -19			; ffffffedH
  000a0	80 78 09 00	 cmp	 BYTE PTR [eax+9], 0
  000a4	88 55 f4	 mov	 BYTE PTR __k$[ebp+8], dl
  000a7	0f 84 81 00 00
	00		 je	 $LN1@LoadBool_e@3
  000ad	8a 50 0a	 mov	 dl, BYTE PTR [eax+10]
  000b0	84 d2		 test	 dl, dl
  000b2	74 40		 je	 SHORT $LN86@LoadBool_e@3
  000b4	80 f2 eb	 xor	 dl, -21			; ffffffebH
  000b7	88 55 f6	 mov	 BYTE PTR __k$[ebp+10], dl
  000ba	8a 50 0b	 mov	 dl, BYTE PTR [eax+11]
  000bd	84 d2		 test	 dl, dl
  000bf	74 2d		 je	 SHORT $LN85@LoadBool_e@3
  000c1	80 f2 ea	 xor	 dl, -22			; ffffffeaH
  000c4	88 55 f7	 mov	 BYTE PTR __k$[ebp+11], dl
  000c7	8a 50 0c	 mov	 dl, BYTE PTR [eax+12]
  000ca	84 d2		 test	 dl, dl
  000cc	74 1a		 je	 SHORT $LN84@LoadBool_e@3
  000ce	8a 40 0d	 mov	 al, BYTE PTR [eax+13]
  000d1	80 f2 ed	 xor	 dl, -19			; ffffffedH
  000d4	88 55 f8	 mov	 BYTE PTR __k$[ebp+12], dl
  000d7	84 c0		 test	 al, al
  000d9	74 07		 je	 SHORT $LN83@LoadBool_e@3
  000db	34 ec		 xor	 al, -20			; ffffffecH
  000dd	88 45 f9	 mov	 BYTE PTR __k$[ebp+13], al
  000e0	eb 4c		 jmp	 SHORT $LN1@LoadBool_e@3
$LN83@LoadBool_e@3:
  000e2	c6 45 f9 ec	 mov	 BYTE PTR __k$[ebp+13], -20 ; ffffffecH
  000e6	eb 46		 jmp	 SHORT $LN1@LoadBool_e@3
$LN84@LoadBool_e@3:
  000e8	c6 45 f8 ed	 mov	 BYTE PTR __k$[ebp+12], -19 ; ffffffedH
  000ec	eb 40		 jmp	 SHORT $LN1@LoadBool_e@3
$LN85@LoadBool_e@3:
  000ee	c6 45 f7 ea	 mov	 BYTE PTR __k$[ebp+11], -22 ; ffffffeaH
  000f2	eb 3a		 jmp	 SHORT $LN1@LoadBool_e@3
$LN86@LoadBool_e@3:
  000f4	c6 45 f6 eb	 mov	 BYTE PTR __k$[ebp+10], -21 ; ffffffebH
  000f8	eb 34		 jmp	 SHORT $LN1@LoadBool_e@3
$LN88@LoadBool_e@3:
  000fa	c6 45 f4 ed	 mov	 BYTE PTR __k$[ebp+8], -19 ; ffffffedH
  000fe	eb 2e		 jmp	 SHORT $LN1@LoadBool_e@3
$LN89@LoadBool_e@3:
  00100	c6 45 f3 ea	 mov	 BYTE PTR __k$[ebp+7], -22 ; ffffffeaH
  00104	eb 28		 jmp	 SHORT $LN1@LoadBool_e@3
$LN90@LoadBool_e@3:
  00106	c6 45 f2 eb	 mov	 BYTE PTR __k$[ebp+6], -21 ; ffffffebH
  0010a	eb 22		 jmp	 SHORT $LN1@LoadBool_e@3
$LN91@LoadBool_e@3:
  0010c	c6 45 f1 ec	 mov	 BYTE PTR __k$[ebp+5], -20 ; ffffffecH
  00110	eb 1c		 jmp	 SHORT $LN1@LoadBool_e@3
$LN92@LoadBool_e@3:
  00112	c6 45 f0 ed	 mov	 BYTE PTR __k$[ebp+4], -19 ; ffffffedH
  00116	eb 16		 jmp	 SHORT $LN1@LoadBool_e@3
$LN93@LoadBool_e@3:
  00118	c6 45 ef ea	 mov	 BYTE PTR __k$[ebp+3], -22 ; ffffffeaH
  0011c	eb 10		 jmp	 SHORT $LN1@LoadBool_e@3
$LN94@LoadBool_e@3:
  0011e	c6 45 ee eb	 mov	 BYTE PTR __k$[ebp+2], -21 ; ffffffebH
  00122	eb 0a		 jmp	 SHORT $LN1@LoadBool_e@3
$LN95@LoadBool_e@3:
  00124	c6 45 ed ec	 mov	 BYTE PTR __k$[ebp+1], -20 ; ffffffecH
  00128	eb 04		 jmp	 SHORT $LN1@LoadBool_e@3
$LN96@LoadBool_e@3:
  0012a	c6 45 ec ed	 mov	 BYTE PTR __k$[ebp], -19	; ffffffedH
$LN1@LoadBool_e@3:
  0012e	6a 02		 push	 2
  00130	8d 45 ec	 lea	 eax, DWORD PTR __k$[ebp]
  00133	c6 45 f5 00	 mov	 BYTE PTR __k$[ebp+9], 0
  00137	5a		 pop	 edx
$LL104@LoadBool_e@3:
  00138	81 30 ed ec eb
	ea		 xor	 DWORD PTR [eax], -353637139 ; eaebecedH
  0013e	83 c0 04	 add	 eax, 4
  00141	4a		 dec	 edx
  00142	75 f4		 jne	 SHORT $LL104@LoadBool_e@3

; 103  : 		return LoadBool(_k, b);

  00144	ff 75 0c	 push	 DWORD PTR _b$[ebp]
  00147	80 75 f4 ed	 xor	 BYTE PTR __k$[ebp+8], -19 ; ffffffedH
  0014b	8d 45 ec	 lea	 eax, DWORD PTR __k$[ebp]
  0014e	50		 push	 eax
  0014f	ff 15 00 00 00
	00		 call	 DWORD PTR __imp_?LoadBool@ioINILoader@@QAE_NPBD_N@Z

; 104  : 	}

  00155	8b 4d fc	 mov	 ecx, DWORD PTR __$ArrayPad$[ebp]
  00158	33 cd		 xor	 ecx, ebp
  0015a	e8 00 00 00 00	 call	 @__security_check_cookie@4
  0015f	c9		 leave
  00160	c2 08 00	 ret	 8
??$LoadBool_e@$09@ioINILoader@@QAE_NAAY09$$CBD_N@Z ENDP	; ioINILoader::LoadBool_e<10>
_TEXT	ENDS
PUBLIC	__$ArrayPad$
PUBLIC	??$LoadInt_e@$0M@@ioINILoader@@QAEHAAY0M@$$CBDH@Z ; ioINILoader::LoadInt_e<12>
; Function compile flags: /Ogsp
;	COMDAT ??$LoadInt_e@$0M@@ioINILoader@@QAEHAAY0M@$$CBDH@Z
_TEXT	SEGMENT
__k$ = -20						; size = 12
__$ArrayPad$ = -4					; size = 4
_k$ = 8							; size = 4
_i$ = 12						; size = 4
??$LoadInt_e@$0M@@ioINILoader@@QAEHAAY0M@$$CBDH@Z PROC	; ioINILoader::LoadInt_e<12>, COMDAT
; _this$ = ecx

; 118  : 	{

  00000	55		 push	 ebp
  00001	8b ec		 mov	 ebp, esp
  00003	83 ec 14	 sub	 esp, 20			; 00000014H
  00006	a1 00 00 00 00	 mov	 eax, DWORD PTR ___security_cookie
  0000b	33 c5		 xor	 eax, ebp
  0000d	89 45 fc	 mov	 DWORD PTR __$ArrayPad$[ebp], eax
  00010	8b 45 08	 mov	 eax, DWORD PTR _k$[ebp]

; 119  : 		_ENCSTR(k, _k);

  00013	8a 10		 mov	 dl, BYTE PTR [eax]
  00015	56		 push	 esi
  00016	8b f1		 mov	 esi, ecx
  00018	84 d2		 test	 dl, dl
  0001a	0f 84 32 01 00
	00		 je	 $LN96@LoadInt_e@3
  00020	80 f2 ed	 xor	 dl, -19			; ffffffedH
  00023	88 55 ec	 mov	 BYTE PTR __k$[ebp], dl
  00026	8a 50 01	 mov	 dl, BYTE PTR [eax+1]
  00029	84 d2		 test	 dl, dl
  0002b	0f 84 1b 01 00
	00		 je	 $LN95@LoadInt_e@3
  00031	80 f2 ec	 xor	 dl, -20			; ffffffecH
  00034	88 55 ed	 mov	 BYTE PTR __k$[ebp+1], dl
  00037	8a 50 02	 mov	 dl, BYTE PTR [eax+2]
  0003a	84 d2		 test	 dl, dl
  0003c	0f 84 04 01 00
	00		 je	 $LN94@LoadInt_e@3
  00042	b1 eb		 mov	 cl, -21			; ffffffebH
  00044	32 d1		 xor	 dl, cl
  00046	88 55 ee	 mov	 BYTE PTR __k$[ebp+2], dl
  00049	8a 50 03	 mov	 dl, BYTE PTR [eax+3]
  0004c	84 d2		 test	 dl, dl
  0004e	0f 84 ec 00 00
	00		 je	 $LN93@LoadInt_e@3
  00054	80 f2 ea	 xor	 dl, -22			; ffffffeaH
  00057	88 55 ef	 mov	 BYTE PTR __k$[ebp+3], dl
  0005a	8a 50 04	 mov	 dl, BYTE PTR [eax+4]
  0005d	84 d2		 test	 dl, dl
  0005f	0f 84 d5 00 00
	00		 je	 $LN92@LoadInt_e@3
  00065	80 f2 ed	 xor	 dl, -19			; ffffffedH
  00068	88 55 f0	 mov	 BYTE PTR __k$[ebp+4], dl
  0006b	8a 50 05	 mov	 dl, BYTE PTR [eax+5]
  0006e	84 d2		 test	 dl, dl
  00070	0f 84 be 00 00
	00		 je	 $LN91@LoadInt_e@3
  00076	80 f2 ec	 xor	 dl, -20			; ffffffecH
  00079	88 55 f1	 mov	 BYTE PTR __k$[ebp+5], dl
  0007c	8a 50 06	 mov	 dl, BYTE PTR [eax+6]
  0007f	84 d2		 test	 dl, dl
  00081	0f 84 a8 00 00
	00		 je	 $LN90@LoadInt_e@3
  00087	32 d1		 xor	 dl, cl
  00089	88 55 f2	 mov	 BYTE PTR __k$[ebp+6], dl
  0008c	8a 50 07	 mov	 dl, BYTE PTR [eax+7]
  0008f	84 d2		 test	 dl, dl
  00091	0f 84 92 00 00
	00		 je	 $LN89@LoadInt_e@3
  00097	80 f2 ea	 xor	 dl, -22			; ffffffeaH
  0009a	88 55 f3	 mov	 BYTE PTR __k$[ebp+7], dl
  0009d	8a 50 08	 mov	 dl, BYTE PTR [eax+8]
  000a0	84 d2		 test	 dl, dl
  000a2	74 7f		 je	 SHORT $LN88@LoadInt_e@3
  000a4	80 f2 ed	 xor	 dl, -19			; ffffffedH
  000a7	88 55 f4	 mov	 BYTE PTR __k$[ebp+8], dl
  000aa	8a 50 09	 mov	 dl, BYTE PTR [eax+9]
  000ad	84 d2		 test	 dl, dl
  000af	74 6c		 je	 SHORT $LN87@LoadInt_e@3
  000b1	80 f2 ec	 xor	 dl, -20			; ffffffecH
  000b4	88 55 f5	 mov	 BYTE PTR __k$[ebp+9], dl
  000b7	8a 50 0a	 mov	 dl, BYTE PTR [eax+10]
  000ba	84 d2		 test	 dl, dl
  000bc	74 5a		 je	 SHORT $LN86@LoadInt_e@3
  000be	32 d1		 xor	 dl, cl
  000c0	80 78 0b 00	 cmp	 BYTE PTR [eax+11], 0
  000c4	88 55 f6	 mov	 BYTE PTR __k$[ebp+10], dl
  000c7	0f 84 89 00 00
	00		 je	 $LN1@LoadInt_e@3
  000cd	8a 50 0c	 mov	 dl, BYTE PTR [eax+12]
  000d0	84 d2		 test	 dl, dl
  000d2	74 3e		 je	 SHORT $LN84@LoadInt_e@3
  000d4	80 f2 ed	 xor	 dl, -19			; ffffffedH
  000d7	88 55 f8	 mov	 BYTE PTR __k$[ebp+12], dl
  000da	8a 50 0d	 mov	 dl, BYTE PTR [eax+13]
  000dd	84 d2		 test	 dl, dl
  000df	74 2b		 je	 SHORT $LN83@LoadInt_e@3
  000e1	80 f2 ec	 xor	 dl, -20			; ffffffecH
  000e4	88 55 f9	 mov	 BYTE PTR __k$[ebp+13], dl
  000e7	8a 50 0e	 mov	 dl, BYTE PTR [eax+14]
  000ea	84 d2		 test	 dl, dl
  000ec	74 19		 je	 SHORT $LN82@LoadInt_e@3
  000ee	8a 40 0f	 mov	 al, BYTE PTR [eax+15]
  000f1	32 d1		 xor	 dl, cl
  000f3	88 55 fa	 mov	 BYTE PTR __k$[ebp+14], dl
  000f6	84 c0		 test	 al, al
  000f8	74 07		 je	 SHORT $LN81@LoadInt_e@3
  000fa	34 ea		 xor	 al, -22			; ffffffeaH
  000fc	88 45 fb	 mov	 BYTE PTR __k$[ebp+15], al
  000ff	eb 55		 jmp	 SHORT $LN1@LoadInt_e@3
$LN81@LoadInt_e@3:
  00101	c6 45 fb ea	 mov	 BYTE PTR __k$[ebp+15], -22 ; ffffffeaH
  00105	eb 4f		 jmp	 SHORT $LN1@LoadInt_e@3
$LN82@LoadInt_e@3:
  00107	88 4d fa	 mov	 BYTE PTR __k$[ebp+14], cl
  0010a	eb 4a		 jmp	 SHORT $LN1@LoadInt_e@3
$LN83@LoadInt_e@3:
  0010c	c6 45 f9 ec	 mov	 BYTE PTR __k$[ebp+13], -20 ; ffffffecH
  00110	eb 44		 jmp	 SHORT $LN1@LoadInt_e@3
$LN84@LoadInt_e@3:
  00112	c6 45 f8 ed	 mov	 BYTE PTR __k$[ebp+12], -19 ; ffffffedH
  00116	eb 3e		 jmp	 SHORT $LN1@LoadInt_e@3
$LN86@LoadInt_e@3:
  00118	88 4d f6	 mov	 BYTE PTR __k$[ebp+10], cl
  0011b	eb 39		 jmp	 SHORT $LN1@LoadInt_e@3
$LN87@LoadInt_e@3:
  0011d	c6 45 f5 ec	 mov	 BYTE PTR __k$[ebp+9], -20 ; ffffffecH
  00121	eb 33		 jmp	 SHORT $LN1@LoadInt_e@3
$LN88@LoadInt_e@3:
  00123	c6 45 f4 ed	 mov	 BYTE PTR __k$[ebp+8], -19 ; ffffffedH
  00127	eb 2d		 jmp	 SHORT $LN1@LoadInt_e@3
$LN89@LoadInt_e@3:
  00129	c6 45 f3 ea	 mov	 BYTE PTR __k$[ebp+7], -22 ; ffffffeaH
  0012d	eb 27		 jmp	 SHORT $LN1@LoadInt_e@3
$LN90@LoadInt_e@3:
  0012f	88 4d f2	 mov	 BYTE PTR __k$[ebp+6], cl
  00132	eb 22		 jmp	 SHORT $LN1@LoadInt_e@3
$LN91@LoadInt_e@3:
  00134	c6 45 f1 ec	 mov	 BYTE PTR __k$[ebp+5], -20 ; ffffffecH
  00138	eb 1c		 jmp	 SHORT $LN1@LoadInt_e@3
$LN92@LoadInt_e@3:
  0013a	c6 45 f0 ed	 mov	 BYTE PTR __k$[ebp+4], -19 ; ffffffedH
  0013e	eb 16		 jmp	 SHORT $LN1@LoadInt_e@3
$LN93@LoadInt_e@3:
  00140	c6 45 ef ea	 mov	 BYTE PTR __k$[ebp+3], -22 ; ffffffeaH
  00144	eb 10		 jmp	 SHORT $LN1@LoadInt_e@3
$LN94@LoadInt_e@3:
  00146	c6 45 ee eb	 mov	 BYTE PTR __k$[ebp+2], -21 ; ffffffebH
  0014a	eb 0a		 jmp	 SHORT $LN1@LoadInt_e@3
$LN95@LoadInt_e@3:
  0014c	c6 45 ed ec	 mov	 BYTE PTR __k$[ebp+1], -20 ; ffffffecH
  00150	eb 04		 jmp	 SHORT $LN1@LoadInt_e@3
$LN96@LoadInt_e@3:
  00152	c6 45 ec ed	 mov	 BYTE PTR __k$[ebp], -19	; ffffffedH
$LN1@LoadInt_e@3:
  00156	6a 02		 push	 2
  00158	8d 45 ec	 lea	 eax, DWORD PTR __k$[ebp]
  0015b	c6 45 f7 00	 mov	 BYTE PTR __k$[ebp+11], 0
  0015f	5a		 pop	 edx
$LL104@LoadInt_e@3:
  00160	81 30 ed ec eb
	ea		 xor	 DWORD PTR [eax], -353637139 ; eaebecedH
  00166	83 c0 04	 add	 eax, 4
  00169	4a		 dec	 edx
  0016a	75 f4		 jne	 SHORT $LL104@LoadInt_e@3
  0016c	6a 08		 push	 8
  0016e	58		 pop	 eax
$LL101@LoadInt_e@3:
  0016f	8b c8		 mov	 ecx, eax
  00171	81 e1 03 00 00
	80		 and	 ecx, -2147483645	; 80000003H
  00177	79 05		 jns	 SHORT $LN111@LoadInt_e@3
  00179	49		 dec	 ecx
  0017a	83 c9 fc	 or	 ecx, -4			; fffffffcH
  0017d	41		 inc	 ecx
$LN111@LoadInt_e@3:
  0017e	b2 ed		 mov	 dl, -19			; ffffffedH
  00180	2a d1		 sub	 dl, cl
  00182	30 54 05 ec	 xor	 BYTE PTR __k$[ebp+eax], dl
  00186	40		 inc	 eax
  00187	83 f8 0b	 cmp	 eax, 11			; 0000000bH
  0018a	7c e3		 jl	 SHORT $LL101@LoadInt_e@3

; 120  : 		return LoadInt(_k, i);

  0018c	ff 75 0c	 push	 DWORD PTR _i$[ebp]
  0018f	8d 45 ec	 lea	 eax, DWORD PTR __k$[ebp]
  00192	50		 push	 eax
  00193	8b ce		 mov	 ecx, esi
  00195	ff 15 00 00 00
	00		 call	 DWORD PTR __imp_?LoadInt@ioINILoader@@QAEHPBDH@Z

; 121  : 	}

  0019b	8b 4d fc	 mov	 ecx, DWORD PTR __$ArrayPad$[ebp]
  0019e	33 cd		 xor	 ecx, ebp
  001a0	5e		 pop	 esi
  001a1	e8 00 00 00 00	 call	 @__security_check_cookie@4
  001a6	c9		 leave
  001a7	c2 08 00	 ret	 8
??$LoadInt_e@$0M@@ioINILoader@@QAEHAAY0M@$$CBDH@Z ENDP	; ioINILoader::LoadInt_e<12>
_TEXT	ENDS
PUBLIC	__$ArrayPad$
PUBLIC	??$LoadInt_e@$0N@@ioINILoader@@QAEHAAY0N@$$CBDH@Z ; ioINILoader::LoadInt_e<13>
; Function compile flags: /Ogsp
;	COMDAT ??$LoadInt_e@$0N@@ioINILoader@@QAEHAAY0N@$$CBDH@Z
_TEXT	SEGMENT
__k$ = -24						; size = 13
__$ArrayPad$ = -4					; size = 4
_k$ = 8							; size = 4
_i$ = 12						; size = 4
??$LoadInt_e@$0N@@ioINILoader@@QAEHAAY0N@$$CBDH@Z PROC	; ioINILoader::LoadInt_e<13>, COMDAT
; _this$ = ecx

; 118  : 	{

  00000	55		 push	 ebp
  00001	8b ec		 mov	 ebp, esp
  00003	83 ec 18	 sub	 esp, 24			; 00000018H
  00006	a1 00 00 00 00	 mov	 eax, DWORD PTR ___security_cookie
  0000b	33 c5		 xor	 eax, ebp
  0000d	89 45 fc	 mov	 DWORD PTR __$ArrayPad$[ebp], eax
  00010	8b 45 08	 mov	 eax, DWORD PTR _k$[ebp]

; 119  : 		_ENCSTR(k, _k);

  00013	8a 10		 mov	 dl, BYTE PTR [eax]
  00015	56		 push	 esi
  00016	8b f1		 mov	 esi, ecx
  00018	84 d2		 test	 dl, dl
  0001a	0f 84 4d 01 00
	00		 je	 $LN96@LoadInt_e@4
  00020	80 f2 ed	 xor	 dl, -19			; ffffffedH
  00023	88 55 e8	 mov	 BYTE PTR __k$[ebp], dl
  00026	8a 50 01	 mov	 dl, BYTE PTR [eax+1]
  00029	84 d2		 test	 dl, dl
  0002b	0f 84 36 01 00
	00		 je	 $LN95@LoadInt_e@4
  00031	b1 ec		 mov	 cl, -20			; ffffffecH
  00033	32 d1		 xor	 dl, cl
  00035	88 55 e9	 mov	 BYTE PTR __k$[ebp+1], dl
  00038	8a 50 02	 mov	 dl, BYTE PTR [eax+2]
  0003b	84 d2		 test	 dl, dl
  0003d	0f 84 1e 01 00
	00		 je	 $LN94@LoadInt_e@4
  00043	80 f2 eb	 xor	 dl, -21			; ffffffebH
  00046	88 55 ea	 mov	 BYTE PTR __k$[ebp+2], dl
  00049	8a 50 03	 mov	 dl, BYTE PTR [eax+3]
  0004c	84 d2		 test	 dl, dl
  0004e	0f 84 07 01 00
	00		 je	 $LN93@LoadInt_e@4
  00054	80 f2 ea	 xor	 dl, -22			; ffffffeaH
  00057	88 55 eb	 mov	 BYTE PTR __k$[ebp+3], dl
  0005a	8a 50 04	 mov	 dl, BYTE PTR [eax+4]
  0005d	84 d2		 test	 dl, dl
  0005f	0f 84 f0 00 00
	00		 je	 $LN92@LoadInt_e@4
  00065	80 f2 ed	 xor	 dl, -19			; ffffffedH
  00068	88 55 ec	 mov	 BYTE PTR __k$[ebp+4], dl
  0006b	8a 50 05	 mov	 dl, BYTE PTR [eax+5]
  0006e	84 d2		 test	 dl, dl
  00070	0f 84 da 00 00
	00		 je	 $LN91@LoadInt_e@4
  00076	32 d1		 xor	 dl, cl
  00078	88 55 ed	 mov	 BYTE PTR __k$[ebp+5], dl
  0007b	8a 50 06	 mov	 dl, BYTE PTR [eax+6]
  0007e	84 d2		 test	 dl, dl
  00080	0f 84 c4 00 00
	00		 je	 $LN90@LoadInt_e@4
  00086	80 f2 eb	 xor	 dl, -21			; ffffffebH
  00089	88 55 ee	 mov	 BYTE PTR __k$[ebp+6], dl
  0008c	8a 50 07	 mov	 dl, BYTE PTR [eax+7]
  0008f	84 d2		 test	 dl, dl
  00091	0f 84 ad 00 00
	00		 je	 $LN89@LoadInt_e@4
  00097	80 f2 ea	 xor	 dl, -22			; ffffffeaH
  0009a	88 55 ef	 mov	 BYTE PTR __k$[ebp+7], dl
  0009d	8a 50 08	 mov	 dl, BYTE PTR [eax+8]
  000a0	84 d2		 test	 dl, dl
  000a2	0f 84 96 00 00
	00		 je	 $LN88@LoadInt_e@4
  000a8	80 f2 ed	 xor	 dl, -19			; ffffffedH
  000ab	88 55 f0	 mov	 BYTE PTR __k$[ebp+8], dl
  000ae	8a 50 09	 mov	 dl, BYTE PTR [eax+9]
  000b1	84 d2		 test	 dl, dl
  000b3	0f 84 80 00 00
	00		 je	 $LN87@LoadInt_e@4
  000b9	32 d1		 xor	 dl, cl
  000bb	88 55 f1	 mov	 BYTE PTR __k$[ebp+9], dl
  000be	8a 50 0a	 mov	 dl, BYTE PTR [eax+10]
  000c1	84 d2		 test	 dl, dl
  000c3	74 6e		 je	 SHORT $LN86@LoadInt_e@4
  000c5	80 f2 eb	 xor	 dl, -21			; ffffffebH
  000c8	88 55 f2	 mov	 BYTE PTR __k$[ebp+10], dl
  000cb	8a 50 0b	 mov	 dl, BYTE PTR [eax+11]
  000ce	84 d2		 test	 dl, dl
  000d0	74 5b		 je	 SHORT $LN85@LoadInt_e@4
  000d2	80 f2 ea	 xor	 dl, -22			; ffffffeaH
  000d5	80 78 0c 00	 cmp	 BYTE PTR [eax+12], 0
  000d9	88 55 f3	 mov	 BYTE PTR __k$[ebp+11], dl
  000dc	0f 84 8f 00 00
	00		 je	 $LN1@LoadInt_e@4
  000e2	8a 50 0d	 mov	 dl, BYTE PTR [eax+13]
  000e5	84 d2		 test	 dl, dl
  000e7	74 3f		 je	 SHORT $LN83@LoadInt_e@4
  000e9	32 d1		 xor	 dl, cl
  000eb	88 55 f5	 mov	 BYTE PTR __k$[ebp+13], dl
  000ee	8a 50 0e	 mov	 dl, BYTE PTR [eax+14]
  000f1	84 d2		 test	 dl, dl
  000f3	74 2d		 je	 SHORT $LN82@LoadInt_e@4
  000f5	80 f2 eb	 xor	 dl, -21			; ffffffebH
  000f8	88 55 f6	 mov	 BYTE PTR __k$[ebp+14], dl
  000fb	8a 50 0f	 mov	 dl, BYTE PTR [eax+15]
  000fe	84 d2		 test	 dl, dl
  00100	74 1a		 je	 SHORT $LN81@LoadInt_e@4
  00102	8a 40 10	 mov	 al, BYTE PTR [eax+16]
  00105	80 f2 ea	 xor	 dl, -22			; ffffffeaH
  00108	88 55 f7	 mov	 BYTE PTR __k$[ebp+15], dl
  0010b	84 c0		 test	 al, al
  0010d	74 07		 je	 SHORT $LN80@LoadInt_e@4
  0010f	34 ed		 xor	 al, -19			; ffffffedH
  00111	88 45 f8	 mov	 BYTE PTR __k$[ebp+16], al
  00114	eb 5b		 jmp	 SHORT $LN1@LoadInt_e@4
$LN80@LoadInt_e@4:
  00116	c6 45 f8 ed	 mov	 BYTE PTR __k$[ebp+16], -19 ; ffffffedH
  0011a	eb 55		 jmp	 SHORT $LN1@LoadInt_e@4
$LN81@LoadInt_e@4:
  0011c	c6 45 f7 ea	 mov	 BYTE PTR __k$[ebp+15], -22 ; ffffffeaH
  00120	eb 4f		 jmp	 SHORT $LN1@LoadInt_e@4
$LN82@LoadInt_e@4:
  00122	c6 45 f6 eb	 mov	 BYTE PTR __k$[ebp+14], -21 ; ffffffebH
  00126	eb 49		 jmp	 SHORT $LN1@LoadInt_e@4
$LN83@LoadInt_e@4:
  00128	88 4d f5	 mov	 BYTE PTR __k$[ebp+13], cl
  0012b	eb 44		 jmp	 SHORT $LN1@LoadInt_e@4
$LN85@LoadInt_e@4:
  0012d	c6 45 f3 ea	 mov	 BYTE PTR __k$[ebp+11], -22 ; ffffffeaH
  00131	eb 3e		 jmp	 SHORT $LN1@LoadInt_e@4
$LN86@LoadInt_e@4:
  00133	c6 45 f2 eb	 mov	 BYTE PTR __k$[ebp+10], -21 ; ffffffebH
  00137	eb 38		 jmp	 SHORT $LN1@LoadInt_e@4
$LN87@LoadInt_e@4:
  00139	88 4d f1	 mov	 BYTE PTR __k$[ebp+9], cl
  0013c	eb 33		 jmp	 SHORT $LN1@LoadInt_e@4
$LN88@LoadInt_e@4:
  0013e	c6 45 f0 ed	 mov	 BYTE PTR __k$[ebp+8], -19 ; ffffffedH
  00142	eb 2d		 jmp	 SHORT $LN1@LoadInt_e@4
$LN89@LoadInt_e@4:
  00144	c6 45 ef ea	 mov	 BYTE PTR __k$[ebp+7], -22 ; ffffffeaH
  00148	eb 27		 jmp	 SHORT $LN1@LoadInt_e@4
$LN90@LoadInt_e@4:
  0014a	c6 45 ee eb	 mov	 BYTE PTR __k$[ebp+6], -21 ; ffffffebH
  0014e	eb 21		 jmp	 SHORT $LN1@LoadInt_e@4
$LN91@LoadInt_e@4:
  00150	88 4d ed	 mov	 BYTE PTR __k$[ebp+5], cl
  00153	eb 1c		 jmp	 SHORT $LN1@LoadInt_e@4
$LN92@LoadInt_e@4:
  00155	c6 45 ec ed	 mov	 BYTE PTR __k$[ebp+4], -19 ; ffffffedH
  00159	eb 16		 jmp	 SHORT $LN1@LoadInt_e@4
$LN93@LoadInt_e@4:
  0015b	c6 45 eb ea	 mov	 BYTE PTR __k$[ebp+3], -22 ; ffffffeaH
  0015f	eb 10		 jmp	 SHORT $LN1@LoadInt_e@4
$LN94@LoadInt_e@4:
  00161	c6 45 ea eb	 mov	 BYTE PTR __k$[ebp+2], -21 ; ffffffebH
  00165	eb 0a		 jmp	 SHORT $LN1@LoadInt_e@4
$LN95@LoadInt_e@4:
  00167	c6 45 e9 ec	 mov	 BYTE PTR __k$[ebp+1], -20 ; ffffffecH
  0016b	eb 04		 jmp	 SHORT $LN1@LoadInt_e@4
$LN96@LoadInt_e@4:
  0016d	c6 45 e8 ed	 mov	 BYTE PTR __k$[ebp], -19	; ffffffedH
$LN1@LoadInt_e@4:
  00171	6a 03		 push	 3
  00173	8d 45 e8	 lea	 eax, DWORD PTR __k$[ebp]
  00176	c6 45 f4 00	 mov	 BYTE PTR __k$[ebp+12], 0
  0017a	5a		 pop	 edx
$LL104@LoadInt_e@4:
  0017b	81 30 ed ec eb
	ea		 xor	 DWORD PTR [eax], -353637139 ; eaebecedH
  00181	83 c0 04	 add	 eax, 4
  00184	4a		 dec	 edx
  00185	75 f4		 jne	 SHORT $LL104@LoadInt_e@4

; 120  : 		return LoadInt(_k, i);

  00187	ff 75 0c	 push	 DWORD PTR _i$[ebp]
  0018a	8d 45 e8	 lea	 eax, DWORD PTR __k$[ebp]
  0018d	50		 push	 eax
  0018e	8b ce		 mov	 ecx, esi
  00190	ff 15 00 00 00
	00		 call	 DWORD PTR __imp_?LoadInt@ioINILoader@@QAEHPBDH@Z

; 121  : 	}

  00196	8b 4d fc	 mov	 ecx, DWORD PTR __$ArrayPad$[ebp]
  00199	33 cd		 xor	 ecx, ebp
  0019b	5e		 pop	 esi
  0019c	e8 00 00 00 00	 call	 @__security_check_cookie@4
  001a1	c9		 leave
  001a2	c2 08 00	 ret	 8
??$LoadInt_e@$0N@@ioINILoader@@QAEHAAY0N@$$CBDH@Z ENDP	; ioINILoader::LoadInt_e<13>
_TEXT	ENDS
PUBLIC	?construct@?$allocator@H@std@@QAEXPAHABH@Z	; std::allocator<int>::construct
; Function compile flags: /Ogsp
; File c:\program files (x86)\microsoft visual studio 10.0\vc\include\xmemory
;	COMDAT ?construct@?$allocator@H@std@@QAEXPAHABH@Z
_TEXT	SEGMENT
__Ptr$ = 8						; size = 4
__Val$ = 12						; size = 4
?construct@?$allocator@H@std@@QAEXPAHABH@Z PROC		; std::allocator<int>::construct, COMDAT
; _this$ = ecx

; 196  : 		{	// construct object at _Ptr with value _Val

  00000	55		 push	 ebp
  00001	8b ec		 mov	 ebp, esp

; 197  : 		_Construct(_Ptr, _Val);

  00003	8b 45 08	 mov	 eax, DWORD PTR __Ptr$[ebp]
  00006	85 c0		 test	 eax, eax
  00008	74 07		 je	 SHORT $LN5@construct
  0000a	8b 4d 0c	 mov	 ecx, DWORD PTR __Val$[ebp]
  0000d	8b 09		 mov	 ecx, DWORD PTR [ecx]
  0000f	89 08		 mov	 DWORD PTR [eax], ecx
$LN5@construct:

; 198  : 		}

  00011	5d		 pop	 ebp
  00012	c2 08 00	 ret	 8
?construct@?$allocator@H@std@@QAEXPAHABH@Z ENDP		; std::allocator<int>::construct
_TEXT	ENDS
PUBLIC	??$encodeString@$0CE@@ioINILoader_e@@AAEPADAAY0CE@$$CBDPAD@Z ; ioINILoader_e::encodeString<36>
; Function compile flags: /Ogsp
; File d:\lost saga for developer\youtube\tutorial\source\src\io3dengine\ioiniloader.h
;	COMDAT ??$encodeString@$0CE@@ioINILoader_e@@AAEPADAAY0CE@$$CBDPAD@Z
_TEXT	SEGMENT
_s$ = 8							; size = 4
_e$ = 12						; size = 4
??$encodeString@$0CE@@ioINILoader_e@@AAEPADAAY0CE@$$CBDPAD@Z PROC ; ioINILoader_e::encodeString<36>, COMDAT
; _this$ = ecx

; 215  : 	{

  00000	55		 push	 ebp
  00001	8b ec		 mov	 ebp, esp

; 216  : 		__ENCSTR(s, e);

  00003	8b 4d 08	 mov	 ecx, DWORD PTR _s$[ebp]
  00006	8a 11		 mov	 dl, BYTE PTR [ecx]
  00008	8b 45 0c	 mov	 eax, DWORD PTR _e$[ebp]
  0000b	53		 push	 ebx
  0000c	84 d2		 test	 dl, dl
  0000e	0f 84 6a 04 00
	00		 je	 $LN96@encodeStri
  00014	80 f2 ed	 xor	 dl, -19			; ffffffedH
  00017	88 10		 mov	 BYTE PTR [eax], dl
  00019	8a 51 01	 mov	 dl, BYTE PTR [ecx+1]
  0001c	84 d2		 test	 dl, dl
  0001e	0f 84 54 04 00
	00		 je	 $LN95@encodeStri
  00024	80 f2 ec	 xor	 dl, -20			; ffffffecH
  00027	88 50 01	 mov	 BYTE PTR [eax+1], dl
  0002a	8a 51 02	 mov	 dl, BYTE PTR [ecx+2]
  0002d	84 d2		 test	 dl, dl
  0002f	0f 84 3d 04 00
	00		 je	 $LN94@encodeStri
  00035	b3 eb		 mov	 bl, -21			; ffffffebH
  00037	32 d3		 xor	 dl, bl
  00039	88 50 02	 mov	 BYTE PTR [eax+2], dl
  0003c	8a 51 03	 mov	 dl, BYTE PTR [ecx+3]
  0003f	84 d2		 test	 dl, dl
  00041	0f 84 25 04 00
	00		 je	 $LN93@encodeStri
  00047	80 f2 ea	 xor	 dl, -22			; ffffffeaH
  0004a	88 50 03	 mov	 BYTE PTR [eax+3], dl
  0004d	8a 51 04	 mov	 dl, BYTE PTR [ecx+4]
  00050	84 d2		 test	 dl, dl
  00052	0f 84 0e 04 00
	00		 je	 $LN92@encodeStri
  00058	80 f2 ed	 xor	 dl, -19			; ffffffedH
  0005b	88 50 04	 mov	 BYTE PTR [eax+4], dl
  0005e	8a 51 05	 mov	 dl, BYTE PTR [ecx+5]
  00061	84 d2		 test	 dl, dl
  00063	0f 84 f7 03 00
	00		 je	 $LN91@encodeStri
  00069	80 f2 ec	 xor	 dl, -20			; ffffffecH
  0006c	88 50 05	 mov	 BYTE PTR [eax+5], dl
  0006f	8a 51 06	 mov	 dl, BYTE PTR [ecx+6]
  00072	84 d2		 test	 dl, dl
  00074	0f 84 e1 03 00
	00		 je	 $LN90@encodeStri
  0007a	32 d3		 xor	 dl, bl
  0007c	88 50 06	 mov	 BYTE PTR [eax+6], dl
  0007f	8a 51 07	 mov	 dl, BYTE PTR [ecx+7]
  00082	84 d2		 test	 dl, dl
  00084	0f 84 cb 03 00
	00		 je	 $LN89@encodeStri
  0008a	80 f2 ea	 xor	 dl, -22			; ffffffeaH
  0008d	88 50 07	 mov	 BYTE PTR [eax+7], dl
  00090	8a 51 08	 mov	 dl, BYTE PTR [ecx+8]
  00093	84 d2		 test	 dl, dl
  00095	0f 84 b4 03 00
	00		 je	 $LN88@encodeStri
  0009b	80 f2 ed	 xor	 dl, -19			; ffffffedH
  0009e	88 50 08	 mov	 BYTE PTR [eax+8], dl
  000a1	8a 51 09	 mov	 dl, BYTE PTR [ecx+9]
  000a4	84 d2		 test	 dl, dl
  000a6	0f 84 9d 03 00
	00		 je	 $LN87@encodeStri
  000ac	80 f2 ec	 xor	 dl, -20			; ffffffecH
  000af	88 50 09	 mov	 BYTE PTR [eax+9], dl
  000b2	8a 51 0a	 mov	 dl, BYTE PTR [ecx+10]
  000b5	84 d2		 test	 dl, dl
  000b7	0f 84 87 03 00
	00		 je	 $LN86@encodeStri
  000bd	32 d3		 xor	 dl, bl
  000bf	88 50 0a	 mov	 BYTE PTR [eax+10], dl
  000c2	8a 51 0b	 mov	 dl, BYTE PTR [ecx+11]
  000c5	84 d2		 test	 dl, dl
  000c7	0f 84 71 03 00
	00		 je	 $LN85@encodeStri
  000cd	80 f2 ea	 xor	 dl, -22			; ffffffeaH
  000d0	88 50 0b	 mov	 BYTE PTR [eax+11], dl
  000d3	8a 51 0c	 mov	 dl, BYTE PTR [ecx+12]
  000d6	84 d2		 test	 dl, dl
  000d8	0f 84 5a 03 00
	00		 je	 $LN84@encodeStri
  000de	80 f2 ed	 xor	 dl, -19			; ffffffedH
  000e1	88 50 0c	 mov	 BYTE PTR [eax+12], dl
  000e4	8a 51 0d	 mov	 dl, BYTE PTR [ecx+13]
  000e7	84 d2		 test	 dl, dl
  000e9	0f 84 43 03 00
	00		 je	 $LN83@encodeStri
  000ef	80 f2 ec	 xor	 dl, -20			; ffffffecH
  000f2	88 50 0d	 mov	 BYTE PTR [eax+13], dl
  000f5	8a 51 0e	 mov	 dl, BYTE PTR [ecx+14]
  000f8	84 d2		 test	 dl, dl
  000fa	0f 84 2d 03 00
	00		 je	 $LN82@encodeStri
  00100	32 d3		 xor	 dl, bl
  00102	88 50 0e	 mov	 BYTE PTR [eax+14], dl
  00105	8a 51 0f	 mov	 dl, BYTE PTR [ecx+15]
  00108	84 d2		 test	 dl, dl
  0010a	0f 84 17 03 00
	00		 je	 $LN81@encodeStri
  00110	80 f2 ea	 xor	 dl, -22			; ffffffeaH
  00113	88 50 0f	 mov	 BYTE PTR [eax+15], dl
  00116	8a 51 10	 mov	 dl, BYTE PTR [ecx+16]
  00119	84 d2		 test	 dl, dl
  0011b	0f 84 00 03 00
	00		 je	 $LN80@encodeStri
  00121	80 f2 ed	 xor	 dl, -19			; ffffffedH
  00124	88 50 10	 mov	 BYTE PTR [eax+16], dl
  00127	8a 51 11	 mov	 dl, BYTE PTR [ecx+17]
  0012a	84 d2		 test	 dl, dl
  0012c	0f 84 e9 02 00
	00		 je	 $LN79@encodeStri
  00132	80 f2 ec	 xor	 dl, -20			; ffffffecH
  00135	88 50 11	 mov	 BYTE PTR [eax+17], dl
  00138	8a 51 12	 mov	 dl, BYTE PTR [ecx+18]
  0013b	84 d2		 test	 dl, dl
  0013d	0f 84 d3 02 00
	00		 je	 $LN78@encodeStri
  00143	32 d3		 xor	 dl, bl
  00145	88 50 12	 mov	 BYTE PTR [eax+18], dl
  00148	8a 51 13	 mov	 dl, BYTE PTR [ecx+19]
  0014b	84 d2		 test	 dl, dl
  0014d	0f 84 bd 02 00
	00		 je	 $LN77@encodeStri
  00153	80 f2 ea	 xor	 dl, -22			; ffffffeaH
  00156	88 50 13	 mov	 BYTE PTR [eax+19], dl
  00159	8a 51 14	 mov	 dl, BYTE PTR [ecx+20]
  0015c	84 d2		 test	 dl, dl
  0015e	0f 84 a6 02 00
	00		 je	 $LN76@encodeStri
  00164	80 f2 ed	 xor	 dl, -19			; ffffffedH
  00167	88 50 14	 mov	 BYTE PTR [eax+20], dl
  0016a	8a 51 15	 mov	 dl, BYTE PTR [ecx+21]
  0016d	84 d2		 test	 dl, dl
  0016f	0f 84 8f 02 00
	00		 je	 $LN75@encodeStri
  00175	80 f2 ec	 xor	 dl, -20			; ffffffecH
  00178	88 50 15	 mov	 BYTE PTR [eax+21], dl
  0017b	8a 51 16	 mov	 dl, BYTE PTR [ecx+22]
  0017e	84 d2		 test	 dl, dl
  00180	0f 84 79 02 00
	00		 je	 $LN74@encodeStri
  00186	32 d3		 xor	 dl, bl
  00188	88 50 16	 mov	 BYTE PTR [eax+22], dl
  0018b	8a 51 17	 mov	 dl, BYTE PTR [ecx+23]
  0018e	84 d2		 test	 dl, dl
  00190	0f 84 60 02 00
	00		 je	 $LN73@encodeStri
  00196	80 f2 ea	 xor	 dl, -22			; ffffffeaH
  00199	88 50 17	 mov	 BYTE PTR [eax+23], dl
  0019c	8a 51 18	 mov	 dl, BYTE PTR [ecx+24]
  0019f	84 d2		 test	 dl, dl
  001a1	0f 84 46 02 00
	00		 je	 $LN72@encodeStri
  001a7	80 f2 ed	 xor	 dl, -19			; ffffffedH
  001aa	88 50 18	 mov	 BYTE PTR [eax+24], dl
  001ad	8a 51 19	 mov	 dl, BYTE PTR [ecx+25]
  001b0	84 d2		 test	 dl, dl
  001b2	0f 84 2c 02 00
	00		 je	 $LN71@encodeStri
  001b8	80 f2 ec	 xor	 dl, -20			; ffffffecH
  001bb	88 50 19	 mov	 BYTE PTR [eax+25], dl
  001be	8a 51 1a	 mov	 dl, BYTE PTR [ecx+26]
  001c1	84 d2		 test	 dl, dl
  001c3	0f 84 13 02 00
	00		 je	 $LN70@encodeStri
  001c9	32 d3		 xor	 dl, bl
  001cb	88 50 1a	 mov	 BYTE PTR [eax+26], dl
  001ce	8a 51 1b	 mov	 dl, BYTE PTR [ecx+27]
  001d1	84 d2		 test	 dl, dl
  001d3	0f 84 fa 01 00
	00		 je	 $LN69@encodeStri
  001d9	80 f2 ea	 xor	 dl, -22			; ffffffeaH
  001dc	88 50 1b	 mov	 BYTE PTR [eax+27], dl
  001df	8a 51 1c	 mov	 dl, BYTE PTR [ecx+28]
  001e2	84 d2		 test	 dl, dl
  001e4	0f 84 e0 01 00
	00		 je	 $LN68@encodeStri
  001ea	80 f2 ed	 xor	 dl, -19			; ffffffedH
  001ed	88 50 1c	 mov	 BYTE PTR [eax+28], dl
  001f0	8a 51 1d	 mov	 dl, BYTE PTR [ecx+29]
  001f3	84 d2		 test	 dl, dl
  001f5	0f 84 c6 01 00
	00		 je	 $LN67@encodeStri
  001fb	80 f2 ec	 xor	 dl, -20			; ffffffecH
  001fe	88 50 1d	 mov	 BYTE PTR [eax+29], dl
  00201	8a 51 1e	 mov	 dl, BYTE PTR [ecx+30]
  00204	84 d2		 test	 dl, dl
  00206	0f 84 ad 01 00
	00		 je	 $LN66@encodeStri
  0020c	32 d3		 xor	 dl, bl
  0020e	88 50 1e	 mov	 BYTE PTR [eax+30], dl
  00211	8a 51 1f	 mov	 dl, BYTE PTR [ecx+31]
  00214	84 d2		 test	 dl, dl
  00216	0f 84 94 01 00
	00		 je	 $LN65@encodeStri
  0021c	80 f2 ea	 xor	 dl, -22			; ffffffeaH
  0021f	88 50 1f	 mov	 BYTE PTR [eax+31], dl
  00222	8a 51 20	 mov	 dl, BYTE PTR [ecx+32]
  00225	84 d2		 test	 dl, dl
  00227	0f 84 7a 01 00
	00		 je	 $LN64@encodeStri
  0022d	80 f2 ed	 xor	 dl, -19			; ffffffedH
  00230	88 50 20	 mov	 BYTE PTR [eax+32], dl
  00233	8a 51 21	 mov	 dl, BYTE PTR [ecx+33]
  00236	84 d2		 test	 dl, dl
  00238	0f 84 60 01 00
	00		 je	 $LN63@encodeStri
  0023e	80 f2 ec	 xor	 dl, -20			; ffffffecH
  00241	88 50 21	 mov	 BYTE PTR [eax+33], dl
  00244	8a 51 22	 mov	 dl, BYTE PTR [ecx+34]
  00247	84 d2		 test	 dl, dl
  00249	0f 84 47 01 00
	00		 je	 $LN62@encodeStri
  0024f	32 d3		 xor	 dl, bl
  00251	88 50 22	 mov	 BYTE PTR [eax+34], dl
  00254	8a 51 23	 mov	 dl, BYTE PTR [ecx+35]
  00257	84 d2		 test	 dl, dl
  00259	0f 84 2e 01 00
	00		 je	 $LN61@encodeStri
  0025f	80 f2 ea	 xor	 dl, -22			; ffffffeaH
  00262	88 50 23	 mov	 BYTE PTR [eax+35], dl
  00265	8a 51 24	 mov	 dl, BYTE PTR [ecx+36]
  00268	84 d2		 test	 dl, dl
  0026a	0f 84 14 01 00
	00		 je	 $LN60@encodeStri
  00270	80 f2 ed	 xor	 dl, -19			; ffffffedH
  00273	88 50 24	 mov	 BYTE PTR [eax+36], dl
  00276	8a 51 25	 mov	 dl, BYTE PTR [ecx+37]
  00279	84 d2		 test	 dl, dl
  0027b	0f 84 fa 00 00
	00		 je	 $LN59@encodeStri
  00281	80 f2 ec	 xor	 dl, -20			; ffffffecH
  00284	88 50 25	 mov	 BYTE PTR [eax+37], dl
  00287	8a 51 26	 mov	 dl, BYTE PTR [ecx+38]
  0028a	84 d2		 test	 dl, dl
  0028c	0f 84 e1 00 00
	00		 je	 $LN58@encodeStri
  00292	32 d3		 xor	 dl, bl
  00294	88 50 26	 mov	 BYTE PTR [eax+38], dl
  00297	8a 51 27	 mov	 dl, BYTE PTR [ecx+39]
  0029a	84 d2		 test	 dl, dl
  0029c	0f 84 c8 00 00
	00		 je	 $LN57@encodeStri
  002a2	80 f2 ea	 xor	 dl, -22			; ffffffeaH
  002a5	88 50 27	 mov	 BYTE PTR [eax+39], dl
  002a8	8a 51 28	 mov	 dl, BYTE PTR [ecx+40]
  002ab	84 d2		 test	 dl, dl
  002ad	0f 84 ae 00 00
	00		 je	 $LN56@encodeStri
  002b3	80 f2 ed	 xor	 dl, -19			; ffffffedH
  002b6	88 50 28	 mov	 BYTE PTR [eax+40], dl
  002b9	8a 51 29	 mov	 dl, BYTE PTR [ecx+41]
  002bc	84 d2		 test	 dl, dl
  002be	0f 84 94 00 00
	00		 je	 $LN55@encodeStri
  002c4	80 f2 ec	 xor	 dl, -20			; ffffffecH
  002c7	88 50 29	 mov	 BYTE PTR [eax+41], dl
  002ca	8a 51 2a	 mov	 dl, BYTE PTR [ecx+42]
  002cd	84 d2		 test	 dl, dl
  002cf	74 7f		 je	 SHORT $LN54@encodeStri
  002d1	32 d3		 xor	 dl, bl
  002d3	88 50 2a	 mov	 BYTE PTR [eax+42], dl
  002d6	8a 51 2b	 mov	 dl, BYTE PTR [ecx+43]
  002d9	84 d2		 test	 dl, dl
  002db	74 6a		 je	 SHORT $LN53@encodeStri
  002dd	80 f2 ea	 xor	 dl, -22			; ffffffeaH
  002e0	88 50 2b	 mov	 BYTE PTR [eax+43], dl
  002e3	8a 51 2c	 mov	 dl, BYTE PTR [ecx+44]
  002e6	84 d2		 test	 dl, dl
  002e8	74 54		 je	 SHORT $LN52@encodeStri
  002ea	80 f2 ed	 xor	 dl, -19			; ffffffedH
  002ed	88 50 2c	 mov	 BYTE PTR [eax+44], dl
  002f0	8a 51 2d	 mov	 dl, BYTE PTR [ecx+45]
  002f3	84 d2		 test	 dl, dl
  002f5	74 3e		 je	 SHORT $LN51@encodeStri
  002f7	80 f2 ec	 xor	 dl, -20			; ffffffecH
  002fa	88 50 2d	 mov	 BYTE PTR [eax+45], dl
  002fd	8a 51 2e	 mov	 dl, BYTE PTR [ecx+46]
  00300	84 d2		 test	 dl, dl
  00302	74 29		 je	 SHORT $LN50@encodeStri
  00304	32 d3		 xor	 dl, bl
  00306	88 50 2e	 mov	 BYTE PTR [eax+46], dl
  00309	8a 51 2f	 mov	 dl, BYTE PTR [ecx+47]
  0030c	84 d2		 test	 dl, dl
  0030e	74 14		 je	 SHORT $LN49@encodeStri
  00310	80 f2 ea	 xor	 dl, -22			; ffffffeaH
  00313	88 50 2f	 mov	 BYTE PTR [eax+47], dl
  00316	8a 49 30	 mov	 cl, BYTE PTR [ecx+48]
  00319	80 f1 ed	 xor	 cl, -19			; ffffffedH
  0031c	88 48 30	 mov	 BYTE PTR [eax+48], cl
  0031f	e9 5d 01 00 00	 jmp	 $LN1@encodeStri
$LN49@encodeStri:
  00324	c6 40 2f ea	 mov	 BYTE PTR [eax+47], -22	; ffffffeaH
  00328	e9 54 01 00 00	 jmp	 $LN1@encodeStri
$LN50@encodeStri:
  0032d	88 58 2e	 mov	 BYTE PTR [eax+46], bl
  00330	e9 4c 01 00 00	 jmp	 $LN1@encodeStri
$LN51@encodeStri:
  00335	c6 40 2d ec	 mov	 BYTE PTR [eax+45], -20	; ffffffecH
  00339	e9 43 01 00 00	 jmp	 $LN1@encodeStri
$LN52@encodeStri:
  0033e	c6 40 2c ed	 mov	 BYTE PTR [eax+44], -19	; ffffffedH
  00342	e9 3a 01 00 00	 jmp	 $LN1@encodeStri
$LN53@encodeStri:
  00347	c6 40 2b ea	 mov	 BYTE PTR [eax+43], -22	; ffffffeaH
  0034b	e9 31 01 00 00	 jmp	 $LN1@encodeStri
$LN54@encodeStri:
  00350	88 58 2a	 mov	 BYTE PTR [eax+42], bl
  00353	e9 29 01 00 00	 jmp	 $LN1@encodeStri
$LN55@encodeStri:
  00358	c6 40 29 ec	 mov	 BYTE PTR [eax+41], -20	; ffffffecH
  0035c	e9 20 01 00 00	 jmp	 $LN1@encodeStri
$LN56@encodeStri:
  00361	c6 40 28 ed	 mov	 BYTE PTR [eax+40], -19	; ffffffedH
  00365	e9 17 01 00 00	 jmp	 $LN1@encodeStri
$LN57@encodeStri:
  0036a	c6 40 27 ea	 mov	 BYTE PTR [eax+39], -22	; ffffffeaH
  0036e	e9 0e 01 00 00	 jmp	 $LN1@encodeStri
$LN58@encodeStri:
  00373	88 58 26	 mov	 BYTE PTR [eax+38], bl
  00376	e9 06 01 00 00	 jmp	 $LN1@encodeStri
$LN59@encodeStri:
  0037b	c6 40 25 ec	 mov	 BYTE PTR [eax+37], -20	; ffffffecH
  0037f	e9 fd 00 00 00	 jmp	 $LN1@encodeStri
$LN60@encodeStri:
  00384	c6 40 24 ed	 mov	 BYTE PTR [eax+36], -19	; ffffffedH
  00388	e9 f4 00 00 00	 jmp	 $LN1@encodeStri
$LN61@encodeStri:
  0038d	c6 40 23 ea	 mov	 BYTE PTR [eax+35], -22	; ffffffeaH
  00391	e9 eb 00 00 00	 jmp	 $LN1@encodeStri
$LN62@encodeStri:
  00396	88 58 22	 mov	 BYTE PTR [eax+34], bl
  00399	e9 e3 00 00 00	 jmp	 $LN1@encodeStri
$LN63@encodeStri:
  0039e	c6 40 21 ec	 mov	 BYTE PTR [eax+33], -20	; ffffffecH
  003a2	e9 da 00 00 00	 jmp	 $LN1@encodeStri
$LN64@encodeStri:
  003a7	c6 40 20 ed	 mov	 BYTE PTR [eax+32], -19	; ffffffedH
  003ab	e9 d1 00 00 00	 jmp	 $LN1@encodeStri
$LN65@encodeStri:
  003b0	c6 40 1f ea	 mov	 BYTE PTR [eax+31], -22	; ffffffeaH
  003b4	e9 c8 00 00 00	 jmp	 $LN1@encodeStri
$LN66@encodeStri:
  003b9	88 58 1e	 mov	 BYTE PTR [eax+30], bl
  003bc	e9 c0 00 00 00	 jmp	 $LN1@encodeStri
$LN67@encodeStri:
  003c1	c6 40 1d ec	 mov	 BYTE PTR [eax+29], -20	; ffffffecH
  003c5	e9 b7 00 00 00	 jmp	 $LN1@encodeStri
$LN68@encodeStri:
  003ca	c6 40 1c ed	 mov	 BYTE PTR [eax+28], -19	; ffffffedH
  003ce	e9 ae 00 00 00	 jmp	 $LN1@encodeStri
$LN69@encodeStri:
  003d3	c6 40 1b ea	 mov	 BYTE PTR [eax+27], -22	; ffffffeaH
  003d7	e9 a5 00 00 00	 jmp	 $LN1@encodeStri
$LN70@encodeStri:
  003dc	88 58 1a	 mov	 BYTE PTR [eax+26], bl
  003df	e9 9d 00 00 00	 jmp	 $LN1@encodeStri
$LN71@encodeStri:
  003e4	c6 40 19 ec	 mov	 BYTE PTR [eax+25], -20	; ffffffecH
  003e8	e9 94 00 00 00	 jmp	 $LN1@encodeStri
$LN72@encodeStri:
  003ed	c6 40 18 ed	 mov	 BYTE PTR [eax+24], -19	; ffffffedH
  003f1	e9 8b 00 00 00	 jmp	 $LN1@encodeStri
$LN73@encodeStri:
  003f6	c6 40 17 ea	 mov	 BYTE PTR [eax+23], -22	; ffffffeaH
  003fa	e9 82 00 00 00	 jmp	 $LN1@encodeStri
$LN74@encodeStri:
  003ff	88 58 16	 mov	 BYTE PTR [eax+22], bl
  00402	eb 7d		 jmp	 SHORT $LN1@encodeStri
$LN75@encodeStri:
  00404	c6 40 15 ec	 mov	 BYTE PTR [eax+21], -20	; ffffffecH
  00408	eb 77		 jmp	 SHORT $LN1@encodeStri
$LN76@encodeStri:
  0040a	c6 40 14 ed	 mov	 BYTE PTR [eax+20], -19	; ffffffedH
  0040e	eb 71		 jmp	 SHORT $LN1@encodeStri
$LN77@encodeStri:
  00410	c6 40 13 ea	 mov	 BYTE PTR [eax+19], -22	; ffffffeaH
  00414	eb 6b		 jmp	 SHORT $LN1@encodeStri
$LN78@encodeStri:
  00416	88 58 12	 mov	 BYTE PTR [eax+18], bl
  00419	eb 66		 jmp	 SHORT $LN1@encodeStri
$LN79@encodeStri:
  0041b	c6 40 11 ec	 mov	 BYTE PTR [eax+17], -20	; ffffffecH
  0041f	eb 60		 jmp	 SHORT $LN1@encodeStri
$LN80@encodeStri:
  00421	c6 40 10 ed	 mov	 BYTE PTR [eax+16], -19	; ffffffedH
  00425	eb 5a		 jmp	 SHORT $LN1@encodeStri
$LN81@encodeStri:
  00427	c6 40 0f ea	 mov	 BYTE PTR [eax+15], -22	; ffffffeaH
  0042b	eb 54		 jmp	 SHORT $LN1@encodeStri
$LN82@encodeStri:
  0042d	88 58 0e	 mov	 BYTE PTR [eax+14], bl
  00430	eb 4f		 jmp	 SHORT $LN1@encodeStri
$LN83@encodeStri:
  00432	c6 40 0d ec	 mov	 BYTE PTR [eax+13], -20	; ffffffecH
  00436	eb 49		 jmp	 SHORT $LN1@encodeStri
$LN84@encodeStri:
  00438	c6 40 0c ed	 mov	 BYTE PTR [eax+12], -19	; ffffffedH
  0043c	eb 43		 jmp	 SHORT $LN1@encodeStri
$LN85@encodeStri:
  0043e	c6 40 0b ea	 mov	 BYTE PTR [eax+11], -22	; ffffffeaH
  00442	eb 3d		 jmp	 SHORT $LN1@encodeStri
$LN86@encodeStri:
  00444	88 58 0a	 mov	 BYTE PTR [eax+10], bl
  00447	eb 38		 jmp	 SHORT $LN1@encodeStri
$LN87@encodeStri:
  00449	c6 40 09 ec	 mov	 BYTE PTR [eax+9], -20	; ffffffecH
  0044d	eb 32		 jmp	 SHORT $LN1@encodeStri
$LN88@encodeStri:
  0044f	c6 40 08 ed	 mov	 BYTE PTR [eax+8], -19	; ffffffedH
  00453	eb 2c		 jmp	 SHORT $LN1@encodeStri
$LN89@encodeStri:
  00455	c6 40 07 ea	 mov	 BYTE PTR [eax+7], -22	; ffffffeaH
  00459	eb 26		 jmp	 SHORT $LN1@encodeStri
$LN90@encodeStri:
  0045b	88 58 06	 mov	 BYTE PTR [eax+6], bl
  0045e	eb 21		 jmp	 SHORT $LN1@encodeStri
$LN91@encodeStri:
  00460	c6 40 05 ec	 mov	 BYTE PTR [eax+5], -20	; ffffffecH
  00464	eb 1b		 jmp	 SHORT $LN1@encodeStri
$LN92@encodeStri:
  00466	c6 40 04 ed	 mov	 BYTE PTR [eax+4], -19	; ffffffedH
  0046a	eb 15		 jmp	 SHORT $LN1@encodeStri
$LN93@encodeStri:
  0046c	c6 40 03 ea	 mov	 BYTE PTR [eax+3], -22	; ffffffeaH
  00470	eb 0f		 jmp	 SHORT $LN1@encodeStri
$LN94@encodeStri:
  00472	c6 40 02 eb	 mov	 BYTE PTR [eax+2], -21	; ffffffebH
  00476	eb 09		 jmp	 SHORT $LN1@encodeStri
$LN95@encodeStri:
  00478	c6 40 01 ec	 mov	 BYTE PTR [eax+1], -20	; ffffffecH
  0047c	eb 03		 jmp	 SHORT $LN1@encodeStri
$LN96@encodeStri:
  0047e	c6 00 ed	 mov	 BYTE PTR [eax], -19	; ffffffedH
$LN1@encodeStri:
  00481	6a 08		 push	 8
  00483	5a		 pop	 edx
  00484	8b c8		 mov	 ecx, eax
  00486	c6 40 23 00	 mov	 BYTE PTR [eax+35], 0
  0048a	5b		 pop	 ebx
$LL104@encodeStri:
  0048b	81 31 ed ec eb
	ea		 xor	 DWORD PTR [ecx], -353637139 ; eaebecedH
  00491	83 c1 04	 add	 ecx, 4
  00494	4a		 dec	 edx
  00495	75 f4		 jne	 SHORT $LL104@encodeStri
  00497	56		 push	 esi
  00498	6a 20		 push	 32			; 00000020H
  0049a	5e		 pop	 esi
$LL101@encodeStri:
  0049b	8b ce		 mov	 ecx, esi
  0049d	81 e1 03 00 00
	80		 and	 ecx, -2147483645	; 80000003H
  004a3	79 05		 jns	 SHORT $LN111@encodeStri
  004a5	49		 dec	 ecx
  004a6	83 c9 fc	 or	 ecx, -4			; fffffffcH
  004a9	41		 inc	 ecx
$LN111@encodeStri:
  004aa	b2 ed		 mov	 dl, -19			; ffffffedH
  004ac	2a d1		 sub	 dl, cl
  004ae	30 14 06	 xor	 BYTE PTR [esi+eax], dl
  004b1	46		 inc	 esi
  004b2	83 fe 23	 cmp	 esi, 35			; 00000023H
  004b5	7c e4		 jl	 SHORT $LL101@encodeStri
  004b7	5e		 pop	 esi

; 217  : 		return e;
; 218  : 	}

  004b8	5d		 pop	 ebp
  004b9	c2 08 00	 ret	 8
??$encodeString@$0CE@@ioINILoader_e@@AAEPADAAY0CE@$$CBDPAD@Z ENDP ; ioINILoader_e::encodeString<36>
_TEXT	ENDS
PUBLIC	??$construct@AAH@?$allocator@H@std@@QAEXPAHAAH@Z ; std::allocator<int>::construct<int &>
; Function compile flags: /Ogsp
; File c:\program files (x86)\microsoft visual studio 10.0\vc\include\xmemory
;	COMDAT ??$construct@AAH@?$allocator@H@std@@QAEXPAHAAH@Z
_TEXT	SEGMENT
__Ptr$ = 8						; size = 4
__Val$ = 12						; size = 4
??$construct@AAH@?$allocator@H@std@@QAEXPAHAAH@Z PROC	; std::allocator<int>::construct<int &>, COMDAT
; _this$ = ecx

; 206  : 		void construct(pointer _Ptr, _Other&& _Val)

  00000	55		 push	 ebp
  00001	8b ec		 mov	 ebp, esp

; 207  : 		{	// construct object at _Ptr with value _Val
; 208  : 		::new ((void _FARQ *)_Ptr) _Ty(_STD forward<_Other>(_Val));

  00003	8b 45 08	 mov	 eax, DWORD PTR __Ptr$[ebp]
  00006	85 c0		 test	 eax, eax
  00008	74 07		 je	 SHORT $LN3@construct@2
  0000a	8b 4d 0c	 mov	 ecx, DWORD PTR __Val$[ebp]
  0000d	8b 09		 mov	 ecx, DWORD PTR [ecx]
  0000f	89 08		 mov	 DWORD PTR [eax], ecx
$LN3@construct@2:

; 209  : 		}

  00011	5d		 pop	 ebp
  00012	c2 08 00	 ret	 8
??$construct@AAH@?$allocator@H@std@@QAEXPAHAAH@Z ENDP	; std::allocator<int>::construct<int &>
_TEXT	ENDS
PUBLIC	??$construct@AAUtagShopItemMovieInfo@ioShopItemExtraInfoManager@@@?$allocator@UtagShopItemMovieInfo@ioShopItemExtraInfoManager@@@std@@QAEXPAUtagShopItemMovieInfo@ioShopItemExtraInfoManager@@AAU23@@Z ; std::allocator<ioShopItemExtraInfoManager::tagShopItemMovieInfo>::construct<ioShopItemExtraInfoManager::tagShopItemMovieInfo &>
;	COMDAT xdata$x
; File c:\program files (x86)\microsoft visual studio 10.0\vc\include\utility
xdata$x	SEGMENT
__unwindtable$??$construct@AAUtagShopItemMovieInfo@ioShopItemExtraInfoManager@@@?$allocator@UtagShopItemMovieInfo@ioShopItemExtraInfoManager@@@std@@QAEXPAUtagShopItemMovieInfo@ioShopItemExtraInfoManager@@AAU23@@Z DD 0ffffffffH
	DD	FLAT:__unwindfunclet$??$construct@AAUtagShopItemMovieInfo@ioShopItemExtraInfoManager@@@?$allocator@UtagShopItemMovieInfo@ioShopItemExtraInfoManager@@@std@@QAEXPAUtagShopItemMovieInfo@ioShopItemExtraInfoManager@@AAU23@@Z$0
__ehfuncinfo$??$construct@AAUtagShopItemMovieInfo@ioShopItemExtraInfoManager@@@?$allocator@UtagShopItemMovieInfo@ioShopItemExtraInfoManager@@@std@@QAEXPAUtagShopItemMovieInfo@ioShopItemExtraInfoManager@@AAU23@@Z DD 019930522H
	DD	01H
	DD	FLAT:__unwindtable$??$construct@AAUtagShopItemMovieInfo@ioShopItemExtraInfoManager@@@?$allocator@UtagShopItemMovieInfo@ioShopItemExtraInfoManager@@@std@@QAEXPAUtagShopItemMovieInfo@ioShopItemExtraInfoManager@@AAU23@@Z
	DD	2 DUP(00H)
	DD	2 DUP(00H)
	DD	00H
	DD	01H
; Function compile flags: /Ogsp
; File c:\program files (x86)\microsoft visual studio 10.0\vc\include\xmemory
xdata$x	ENDS
;	COMDAT ??$construct@AAUtagShopItemMovieInfo@ioShopItemExtraInfoManager@@@?$allocator@UtagShopItemMovieInfo@ioShopItemExtraInfoManager@@@std@@QAEXPAUtagShopItemMovieInfo@ioShopItemExtraInfoManager@@AAU23@@Z
_TEXT	SEGMENT
$T511130 = -16						; size = 4
__$EHRec$ = -12						; size = 12
__Ptr$ = 8						; size = 4
__Val$ = 12						; size = 4
??$construct@AAUtagShopItemMovieInfo@ioShopItemExtraInfoManager@@@?$allocator@UtagShopItemMovieInfo@ioShopItemExtraInfoManager@@@std@@QAEXPAUtagShopItemMovieInfo@ioShopItemExtraInfoManager@@AAU23@@Z PROC ; std::allocator<ioShopItemExtraInfoManager::tagShopItemMovieInfo>::construct<ioShopItemExtraInfoManager::tagShopItemMovieInfo &>, COMDAT
; _this$ = ecx

; 206  : 		void construct(pointer _Ptr, _Other&& _Val)

  00000	6a 04		 push	 4
  00002	b8 00 00 00 00	 mov	 eax, __ehhandler$??$construct@AAUtagShopItemMovieInfo@ioShopItemExtraInfoManager@@@?$allocator@UtagShopItemMovieInfo@ioShopItemExtraInfoManager@@@std@@QAEXPAUtagShopItemMovieInfo@ioShopItemExtraInfoManager@@AAU23@@Z
  00007	e8 00 00 00 00	 call	 __EH_prolog3

; 207  : 		{	// construct object at _Ptr with value _Val
; 208  : 		::new ((void _FARQ *)_Ptr) _Ty(_STD forward<_Other>(_Val));

  0000c	8b 4d 08	 mov	 ecx, DWORD PTR __Ptr$[ebp]
  0000f	89 4d f0	 mov	 DWORD PTR $T511130[ebp], ecx
  00012	83 65 fc 00	 and	 DWORD PTR __$EHRec$[ebp+8], 0
  00016	85 c9		 test	 ecx, ecx
  00018	74 08		 je	 SHORT $LN3@construct@3
  0001a	ff 75 0c	 push	 DWORD PTR __Val$[ebp]
  0001d	e8 00 00 00 00	 call	 ??0tagShopItemMovieInfo@ioShopItemExtraInfoManager@@QAE@ABU01@@Z
$LN3@construct@3:

; 209  : 		}

  00022	e8 00 00 00 00	 call	 __EH_epilog3
  00027	c2 08 00	 ret	 8
_TEXT	ENDS
;	COMDAT text$x
text$x	SEGMENT
__unwindfunclet$??$construct@AAUtagShopItemMovieInfo@ioShopItemExtraInfoManager@@@?$allocator@UtagShopItemMovieInfo@ioShopItemExtraInfoManager@@@std@@QAEXPAUtagShopItemMovieInfo@ioShopItemExtraInfoManager@@AAU23@@Z$0:
  00000	ff 75 08	 push	 DWORD PTR __Ptr$[ebp]
  00003	ff 75 f0	 push	 DWORD PTR $T511130[ebp]
  00006	e8 00 00 00 00	 call	 ??3@YAXPAX0@Z		; operator delete
  0000b	59		 pop	 ecx
  0000c	59		 pop	 ecx
  0000d	c3		 ret	 0
__ehhandler$??$construct@AAUtagShopItemMovieInfo@ioShopItemExtraInfoManager@@@?$allocator@UtagShopItemMovieInfo@ioShopItemExtraInfoManager@@@std@@QAEXPAUtagShopItemMovieInfo@ioShopItemExtraInfoManager@@AAU23@@Z:
  0000e	8b 54 24 08	 mov	 edx, DWORD PTR [esp+8]
  00012	8d 42 0c	 lea	 eax, DWORD PTR [edx+12]
  00015	8b 4a ec	 mov	 ecx, DWORD PTR [edx-20]
  00018	33 c8		 xor	 ecx, eax
  0001a	e8 00 00 00 00	 call	 @__security_check_cookie@4
  0001f	b8 00 00 00 00	 mov	 eax, OFFSET __ehfuncinfo$??$construct@AAUtagShopItemMovieInfo@ioShopItemExtraInfoManager@@@?$allocator@UtagShopItemMovieInfo@ioShopItemExtraInfoManager@@@std@@QAEXPAUtagShopItemMovieInfo@ioShopItemExtraInfoManager@@AAU23@@Z
  00024	e9 00 00 00 00	 jmp	 ___CxxFrameHandler3
text$x	ENDS
??$construct@AAUtagShopItemMovieInfo@ioShopItemExtraInfoManager@@@?$allocator@UtagShopItemMovieInfo@ioShopItemExtraInfoManager@@@std@@QAEXPAUtagShopItemMovieInfo@ioShopItemExtraInfoManager@@AAU23@@Z ENDP ; std::allocator<ioShopItemExtraInfoManager::tagShopItemMovieInfo>::construct<ioShopItemExtraInfoManager::tagShopItemMovieInfo &>
PUBLIC	??$_Move@PAUtagShopItemMovieInfo@ioShopItemExtraInfoManager@@PAU12@@std@@YAPAUtagShopItemMovieInfo@ioShopItemExtraInfoManager@@PAU12@00U_Nonscalar_ptr_iterator_tag@0@@Z ; std::_Move<ioShopItemExtraInfoManager::tagShopItemMovieInfo *,ioShopItemExtraInfoManager::tagShopItemMovieInfo *>
; Function compile flags: /Ogsp
; File c:\program files (x86)\microsoft visual studio 10.0\vc\include\xutility
;	COMDAT ??$_Move@PAUtagShopItemMovieInfo@ioShopItemExtraInfoManager@@PAU12@@std@@YAPAUtagShopItemMovieInfo@ioShopItemExtraInfoManager@@PAU12@00U_Nonscalar_ptr_iterator_tag@0@@Z
_TEXT	SEGMENT
__First$ = 8						; size = 4
__Last$ = 12						; size = 4
__Dest$ = 16						; size = 4
___formal$ = 20						; size = 1
??$_Move@PAUtagShopItemMovieInfo@ioShopItemExtraInfoManager@@PAU12@@std@@YAPAUtagShopItemMovieInfo@ioShopItemExtraInfoManager@@PAU12@00U_Nonscalar_ptr_iterator_tag@0@@Z PROC ; std::_Move<ioShopItemExtraInfoManager::tagShopItemMovieInfo *,ioShopItemExtraInfoManager::tagShopItemMovieInfo *>, COMDAT

; 2512 : 	{	// move [_First, _Last) to [_Dest, ...), arbitrary iterators

  00000	55		 push	 ebp
  00001	8b ec		 mov	 ebp, esp
  00003	56		 push	 esi

; 2513 : 	for (; _First != _Last; ++_Dest, ++_First)

  00004	8b 75 08	 mov	 esi, DWORD PTR __First$[ebp]
  00007	eb 10		 jmp	 SHORT $LN11@Move
$LL3@Move:

; 2514 : 		*_Dest = _STD move(*_First);

  00009	8b 4d 10	 mov	 ecx, DWORD PTR __Dest$[ebp]
  0000c	56		 push	 esi
  0000d	e8 00 00 00 00	 call	 ??4tagShopItemMovieInfo@ioShopItemExtraInfoManager@@QAEAAU01@ABU01@@Z
  00012	83 45 10 34	 add	 DWORD PTR __Dest$[ebp], 52 ; 00000034H
  00016	83 c6 34	 add	 esi, 52			; 00000034H
$LN11@Move:

; 2513 : 	for (; _First != _Last; ++_Dest, ++_First)

  00019	3b 75 0c	 cmp	 esi, DWORD PTR __Last$[ebp]
  0001c	75 eb		 jne	 SHORT $LL3@Move

; 2515 : 	return (_Dest);

  0001e	8b 45 10	 mov	 eax, DWORD PTR __Dest$[ebp]
  00021	5e		 pop	 esi

; 2516 : 	}

  00022	5d		 pop	 ebp
  00023	c3		 ret	 0
??$_Move@PAUtagShopItemMovieInfo@ioShopItemExtraInfoManager@@PAU12@@std@@YAPAUtagShopItemMovieInfo@ioShopItemExtraInfoManager@@PAU12@00U_Nonscalar_ptr_iterator_tag@0@@Z ENDP ; std::_Move<ioShopItemExtraInfoManager::tagShopItemMovieInfo *,ioShopItemExtraInfoManager::tagShopItemMovieInfo *>
_TEXT	ENDS
PUBLIC	??$_Construct@UtagShopItemMovieInfo@ioShopItemExtraInfoManager@@ABU12@@std@@YAXPAUtagShopItemMovieInfo@ioShopItemExtraInfoManager@@ABU12@@Z ; std::_Construct<ioShopItemExtraInfoManager::tagShopItemMovieInfo,ioShopItemExtraInfoManager::tagShopItemMovieInfo const &>
;	COMDAT xdata$x
; File c:\program files (x86)\microsoft visual studio 10.0\vc\include\utility
xdata$x	SEGMENT
__unwindtable$??$_Construct@UtagShopItemMovieInfo@ioShopItemExtraInfoManager@@ABU12@@std@@YAXPAUtagShopItemMovieInfo@ioShopItemExtraInfoManager@@ABU12@@Z DD 0ffffffffH
	DD	FLAT:__unwindfunclet$??$_Construct@UtagShopItemMovieInfo@ioShopItemExtraInfoManager@@ABU12@@std@@YAXPAUtagShopItemMovieInfo@ioShopItemExtraInfoManager@@ABU12@@Z$0
__ehfuncinfo$??$_Construct@UtagShopItemMovieInfo@ioShopItemExtraInfoManager@@ABU12@@std@@YAXPAUtagShopItemMovieInfo@ioShopItemExtraInfoManager@@ABU12@@Z DD 019930522H
	DD	01H
	DD	FLAT:__unwindtable$??$_Construct@UtagShopItemMovieInfo@ioShopItemExtraInfoManager@@ABU12@@std@@YAXPAUtagShopItemMovieInfo@ioShopItemExtraInfoManager@@ABU12@@Z
	DD	2 DUP(00H)
	DD	2 DUP(00H)
	DD	00H
	DD	01H
; Function compile flags: /Ogsp
; File c:\program files (x86)\microsoft visual studio 10.0\vc\include\xmemory
xdata$x	ENDS
;	COMDAT ??$_Construct@UtagShopItemMovieInfo@ioShopItemExtraInfoManager@@ABU12@@std@@YAXPAUtagShopItemMovieInfo@ioShopItemExtraInfoManager@@ABU12@@Z
_TEXT	SEGMENT
$T511158 = -16						; size = 4
__$EHRec$ = -12						; size = 12
__Vptr$ = 8						; size = 4
__Ptr$ = 8						; size = 4
__Val$ = 12						; size = 4
??$_Construct@UtagShopItemMovieInfo@ioShopItemExtraInfoManager@@ABU12@@std@@YAXPAUtagShopItemMovieInfo@ioShopItemExtraInfoManager@@ABU12@@Z PROC ; std::_Construct<ioShopItemExtraInfoManager::tagShopItemMovieInfo,ioShopItemExtraInfoManager::tagShopItemMovieInfo const &>, COMDAT

; 46   : 	{	// construct object at _Ptr with value _Val

  00000	6a 04		 push	 4
  00002	b8 00 00 00 00	 mov	 eax, __ehhandler$??$_Construct@UtagShopItemMovieInfo@ioShopItemExtraInfoManager@@ABU12@@std@@YAXPAUtagShopItemMovieInfo@ioShopItemExtraInfoManager@@ABU12@@Z
  00007	e8 00 00 00 00	 call	 __EH_prolog3

; 47   : 	void _FARQ *_Vptr = _Ptr;

  0000c	8b 4d 08	 mov	 ecx, DWORD PTR __Ptr$[ebp]
  0000f	89 4d 08	 mov	 DWORD PTR __Vptr$[ebp], ecx

; 48   : 	::new (_Vptr) _Ty1(_STD forward<_Ty2>(_Val));

  00012	89 4d f0	 mov	 DWORD PTR $T511158[ebp], ecx
  00015	83 65 fc 00	 and	 DWORD PTR __$EHRec$[ebp+8], 0
  00019	85 c9		 test	 ecx, ecx
  0001b	74 08		 je	 SHORT $LN3@Construct@2
  0001d	ff 75 0c	 push	 DWORD PTR __Val$[ebp]
  00020	e8 00 00 00 00	 call	 ??0tagShopItemMovieInfo@ioShopItemExtraInfoManager@@QAE@ABU01@@Z
$LN3@Construct@2:

; 49   : 	}

  00025	e8 00 00 00 00	 call	 __EH_epilog3
  0002a	c3		 ret	 0
_TEXT	ENDS
;	COMDAT text$x
text$x	SEGMENT
__unwindfunclet$??$_Construct@UtagShopItemMovieInfo@ioShopItemExtraInfoManager@@ABU12@@std@@YAXPAUtagShopItemMovieInfo@ioShopItemExtraInfoManager@@ABU12@@Z$0:
  00000	ff 75 08	 push	 DWORD PTR __Vptr$[ebp]
  00003	ff 75 f0	 push	 DWORD PTR $T511158[ebp]
  00006	e8 00 00 00 00	 call	 ??3@YAXPAX0@Z		; operator delete
  0000b	59		 pop	 ecx
  0000c	59		 pop	 ecx
  0000d	c3		 ret	 0
__ehhandler$??$_Construct@UtagShopItemMovieInfo@ioShopItemExtraInfoManager@@ABU12@@std@@YAXPAUtagShopItemMovieInfo@ioShopItemExtraInfoManager@@ABU12@@Z:
  0000e	8b 54 24 08	 mov	 edx, DWORD PTR [esp+8]
  00012	8d 42 0c	 lea	 eax, DWORD PTR [edx+12]
  00015	8b 4a ec	 mov	 ecx, DWORD PTR [edx-20]
  00018	33 c8		 xor	 ecx, eax
  0001a	e8 00 00 00 00	 call	 @__security_check_cookie@4
  0001f	b8 00 00 00 00	 mov	 eax, OFFSET __ehfuncinfo$??$_Construct@UtagShopItemMovieInfo@ioShopItemExtraInfoManager@@ABU12@@std@@YAXPAUtagShopItemMovieInfo@ioShopItemExtraInfoManager@@ABU12@@Z
  00024	e9 00 00 00 00	 jmp	 ___CxxFrameHandler3
text$x	ENDS
??$_Construct@UtagShopItemMovieInfo@ioShopItemExtraInfoManager@@ABU12@@std@@YAXPAUtagShopItemMovieInfo@ioShopItemExtraInfoManager@@ABU12@@Z ENDP ; std::_Construct<ioShopItemExtraInfoManager::tagShopItemMovieInfo,ioShopItemExtraInfoManager::tagShopItemMovieInfo const &>
PUBLIC	?_Buy@?$vector@UtagShopItemMovieInfo@ioShopItemExtraInfoManager@@V?$allocator@UtagShopItemMovieInfo@ioShopItemExtraInfoManager@@@std@@@std@@IAE_NI@Z ; std::vector<ioShopItemExtraInfoManager::tagShopItemMovieInfo,std::allocator<ioShopItemExtraInfoManager::tagShopItemMovieInfo> >::_Buy
; Function compile flags: /Ogsp
; File c:\program files (x86)\microsoft visual studio 10.0\vc\include\vector
;	COMDAT ?_Buy@?$vector@UtagShopItemMovieInfo@ioShopItemExtraInfoManager@@V?$allocator@UtagShopItemMovieInfo@ioShopItemExtraInfoManager@@@std@@@std@@IAE_NI@Z
_TEXT	SEGMENT
__Capacity$ = 8						; size = 4
?_Buy@?$vector@UtagShopItemMovieInfo@ioShopItemExtraInfoManager@@V?$allocator@UtagShopItemMovieInfo@ioShopItemExtraInfoManager@@@std@@@std@@IAE_NI@Z PROC ; std::vector<ioShopItemExtraInfoManager::tagShopItemMovieInfo,std::allocator<ioShopItemExtraInfoManager::tagShopItemMovieInfo> >::_Buy, COMDAT
; _this$ = ecx

; 1250 : 		{	// allocate array with _Capacity elements

  00000	55		 push	 ebp
  00001	8b ec		 mov	 ebp, esp
  00003	56		 push	 esi

; 1251 : 		this->_Myfirst = 0;

  00004	33 c0		 xor	 eax, eax
  00006	57		 push	 edi

; 1252 : 		this->_Mylast = 0;
; 1253 : 		this->_Myend = 0;
; 1254 : 
; 1255 : 		if (_Capacity == 0)

  00007	8b 7d 08	 mov	 edi, DWORD PTR __Capacity$[ebp]
  0000a	8b f1		 mov	 esi, ecx
  0000c	89 06		 mov	 DWORD PTR [esi], eax
  0000e	89 46 04	 mov	 DWORD PTR [esi+4], eax
  00011	89 46 08	 mov	 DWORD PTR [esi+8], eax
  00014	3b f8		 cmp	 edi, eax
  00016	75 04		 jne	 SHORT $LN4@Buy

; 1256 : 			return (false);

  00018	32 c0		 xor	 al, al
  0001a	eb 2b		 jmp	 SHORT $LN5@Buy
$LN4@Buy:

; 1257 : 		else if (max_size() < _Capacity)

  0001c	81 ff c4 4e ec
	04		 cmp	 edi, 82595524		; 04ec4ec4H
  00022	76 0b		 jbe	 SHORT $LN2@Buy

; 1258 : 			_Xlen();	// result too long

  00024	68 00 00 00 00	 push	 OFFSET ??_C@_0BD@OLBABOEK@vector?$DMT?$DO?5too?5long?$AA@
  00029	ff 15 00 00 00
	00		 call	 DWORD PTR __imp_?_Xlength_error@std@@YAXPBD@Z
$LN19@Buy:
$LN2@Buy:

; 1259 : 		else
; 1260 : 			{	// nonempty array, allocate storage
; 1261 : 			this->_Myfirst = this->_Alval.allocate(_Capacity);

  0002f	50		 push	 eax
  00030	57		 push	 edi
  00031	e8 00 00 00 00	 call	 ??$_Allocate@UtagShopItemMovieInfo@ioShopItemExtraInfoManager@@@std@@YAPAUtagShopItemMovieInfo@ioShopItemExtraInfoManager@@IPAU12@@Z ; std::_Allocate<ioShopItemExtraInfoManager::tagShopItemMovieInfo>

; 1262 : 			this->_Mylast = this->_Myfirst;
; 1263 : 			this->_Myend = this->_Myfirst + _Capacity;

  00036	6b ff 34	 imul	 edi, 52			; 00000034H
  00039	03 f8		 add	 edi, eax
  0003b	59		 pop	 ecx
  0003c	89 06		 mov	 DWORD PTR [esi], eax
  0003e	89 46 04	 mov	 DWORD PTR [esi+4], eax
  00041	59		 pop	 ecx
  00042	89 7e 08	 mov	 DWORD PTR [esi+8], edi

; 1264 : 			}
; 1265 : 		return (true);

  00045	b0 01		 mov	 al, 1
$LN5@Buy:
  00047	5f		 pop	 edi
  00048	5e		 pop	 esi

; 1266 : 		}

  00049	5d		 pop	 ebp
  0004a	c2 04 00	 ret	 4
$LN18@Buy:
?_Buy@?$vector@UtagShopItemMovieInfo@ioShopItemExtraInfoManager@@V?$allocator@UtagShopItemMovieInfo@ioShopItemExtraInfoManager@@@std@@@std@@IAE_NI@Z ENDP ; std::vector<ioShopItemExtraInfoManager::tagShopItemMovieInfo,std::allocator<ioShopItemExtraInfoManager::tagShopItemMovieInfo> >::_Buy
_TEXT	ENDS
PUBLIC	??$_Copy_impl@PAHPAH@std@@YAPAHPAH00@Z		; std::_Copy_impl<int *,int *>
; Function compile flags: /Ogsp
; File c:\program files (x86)\microsoft visual studio 10.0\vc\include\xutility
;	COMDAT ??$_Copy_impl@PAHPAH@std@@YAPAHPAH00@Z
_TEXT	SEGMENT
__Cat$511207 = -4					; size = 1
__First$ = 8						; size = 4
__Last$ = 12						; size = 4
__Dest$ = 16						; size = 4
??$_Copy_impl@PAHPAH@std@@YAPAHPAH00@Z PROC		; std::_Copy_impl<int *,int *>, COMDAT

; 2163 : 	{	// copy [_First, _Last) to [_Dest, ...)

  00000	55		 push	 ebp
  00001	8b ec		 mov	 ebp, esp
  00003	51		 push	 ecx

; 2164 : 	return (_Copy_impl(_First, _Last,
; 2165 : 		_Dest, _Ptr_cat(_First, _Dest)));

  00004	ff 75 fc	 push	 DWORD PTR __Cat$511207[ebp]
  00007	ff 75 10	 push	 DWORD PTR __Dest$[ebp]
  0000a	ff 75 0c	 push	 DWORD PTR __Last$[ebp]
  0000d	ff 75 08	 push	 DWORD PTR __First$[ebp]
  00010	e8 00 00 00 00	 call	 ??$_Copy_impl@PAHPAH@std@@YAPAHPAH00U_Scalar_ptr_iterator_tag@0@@Z ; std::_Copy_impl<int *,int *>
  00015	83 c4 10	 add	 esp, 16			; 00000010H

; 2166 : 	}

  00018	c9		 leave
  00019	c3		 ret	 0
??$_Copy_impl@PAHPAH@std@@YAPAHPAH00@Z ENDP		; std::_Copy_impl<int *,int *>
_TEXT	ENDS
PUBLIC	??$_Copy_impl@PAUtagShopItemMovieInfo@ioShopItemExtraInfoManager@@PAU12@@std@@YAPAUtagShopItemMovieInfo@ioShopItemExtraInfoManager@@PAU12@00@Z ; std::_Copy_impl<ioShopItemExtraInfoManager::tagShopItemMovieInfo *,ioShopItemExtraInfoManager::tagShopItemMovieInfo *>
; Function compile flags: /Ogsp
;	COMDAT ??$_Copy_impl@PAUtagShopItemMovieInfo@ioShopItemExtraInfoManager@@PAU12@@std@@YAPAUtagShopItemMovieInfo@ioShopItemExtraInfoManager@@PAU12@00@Z
_TEXT	SEGMENT
__Cat$511214 = -4					; size = 1
__First$ = 8						; size = 4
__Last$ = 12						; size = 4
__Dest$ = 16						; size = 4
??$_Copy_impl@PAUtagShopItemMovieInfo@ioShopItemExtraInfoManager@@PAU12@@std@@YAPAUtagShopItemMovieInfo@ioShopItemExtraInfoManager@@PAU12@00@Z PROC ; std::_Copy_impl<ioShopItemExtraInfoManager::tagShopItemMovieInfo *,ioShopItemExtraInfoManager::tagShopItemMovieInfo *>, COMDAT

; 2163 : 	{	// copy [_First, _Last) to [_Dest, ...)

  00000	55		 push	 ebp
  00001	8b ec		 mov	 ebp, esp
  00003	51		 push	 ecx

; 2164 : 	return (_Copy_impl(_First, _Last,
; 2165 : 		_Dest, _Ptr_cat(_First, _Dest)));

  00004	ff 75 fc	 push	 DWORD PTR __Cat$511214[ebp]
  00007	ff 75 10	 push	 DWORD PTR __Dest$[ebp]
  0000a	ff 75 0c	 push	 DWORD PTR __Last$[ebp]
  0000d	ff 75 08	 push	 DWORD PTR __First$[ebp]
  00010	e8 00 00 00 00	 call	 ??$_Copy_impl@PAUtagShopItemMovieInfo@ioShopItemExtraInfoManager@@PAU12@@std@@YAPAUtagShopItemMovieInfo@ioShopItemExtraInfoManager@@PAU12@00U_Nonscalar_ptr_iterator_tag@0@@Z ; std::_Copy_impl<ioShopItemExtraInfoManager::tagShopItemMovieInfo *,ioShopItemExtraInfoManager::tagShopItemMovieInfo *>
  00015	83 c4 10	 add	 esp, 16			; 00000010H

; 2166 : 	}

  00018	c9		 leave
  00019	c3		 ret	 0
??$_Copy_impl@PAUtagShopItemMovieInfo@ioShopItemExtraInfoManager@@PAU12@@std@@YAPAUtagShopItemMovieInfo@ioShopItemExtraInfoManager@@PAU12@00@Z ENDP ; std::_Copy_impl<ioShopItemExtraInfoManager::tagShopItemMovieInfo *,ioShopItemExtraInfoManager::tagShopItemMovieInfo *>
_TEXT	ENDS
PUBLIC	??$_Uninitialized_copy@PAHPAHV?$allocator@H@std@@@std@@YAPAHPAH00AAV?$allocator@H@0@@Z ; std::_Uninitialized_copy<int *,int *,std::allocator<int> >
; Function compile flags: /Ogsp
; File c:\program files (x86)\microsoft visual studio 10.0\vc\include\memory
;	COMDAT ??$_Uninitialized_copy@PAHPAHV?$allocator@H@std@@@std@@YAPAHPAH00AAV?$allocator@H@0@@Z
_TEXT	SEGMENT
__Cat$511221 = -4					; size = 1
__First$ = 8						; size = 4
__Last$ = 12						; size = 4
__Dest$ = 16						; size = 4
__Al$ = 20						; size = 4
??$_Uninitialized_copy@PAHPAHV?$allocator@H@std@@@std@@YAPAHPAH00AAV?$allocator@H@0@@Z PROC ; std::_Uninitialized_copy<int *,int *,std::allocator<int> >, COMDAT

; 412  : 	{	// copy [_First, _Last) to raw _Dest, using _Al

  00000	55		 push	 ebp
  00001	8b ec		 mov	 ebp, esp
  00003	51		 push	 ecx

; 413  : 	return (_Uninit_copy(_First, _Last, _Dest, _Al,
; 414  : 		_Ptr_cat(_First, _Dest)));

  00004	ff 75 fc	 push	 DWORD PTR __Cat$511221[ebp]
  00007	ff 75 14	 push	 DWORD PTR __Al$[ebp]
  0000a	ff 75 10	 push	 DWORD PTR __Dest$[ebp]
  0000d	ff 75 0c	 push	 DWORD PTR __Last$[ebp]
  00010	ff 75 08	 push	 DWORD PTR __First$[ebp]
  00013	e8 00 00 00 00	 call	 ??$_Uninit_copy@HH@std@@YAPAHPAH00AAV?$allocator@H@0@U_Scalar_ptr_iterator_tag@0@@Z ; std::_Uninit_copy<int,int>
  00018	83 c4 14	 add	 esp, 20			; 00000014H

; 415  : 	}

  0001b	c9		 leave
  0001c	c3		 ret	 0
??$_Uninitialized_copy@PAHPAHV?$allocator@H@std@@@std@@YAPAHPAH00AAV?$allocator@H@0@@Z ENDP ; std::_Uninitialized_copy<int *,int *,std::allocator<int> >
_TEXT	ENDS
PUBLIC	??$_Destroy@UtagShopItemMovieInfo@ioShopItemExtraInfoManager@@@std@@YAXPAUtagShopItemMovieInfo@ioShopItemExtraInfoManager@@@Z ; std::_Destroy<ioShopItemExtraInfoManager::tagShopItemMovieInfo>
; Function compile flags: /Ogsp
; File c:\program files (x86)\microsoft visual studio 10.0\vc\include\xmemory
;	COMDAT ??$_Destroy@UtagShopItemMovieInfo@ioShopItemExtraInfoManager@@@std@@YAXPAUtagShopItemMovieInfo@ioShopItemExtraInfoManager@@@Z
_TEXT	SEGMENT
__Ptr$ = 8						; size = 4
??$_Destroy@UtagShopItemMovieInfo@ioShopItemExtraInfoManager@@@std@@YAXPAUtagShopItemMovieInfo@ioShopItemExtraInfoManager@@@Z PROC ; std::_Destroy<ioShopItemExtraInfoManager::tagShopItemMovieInfo>, COMDAT

; 62   : 	{	// destroy object at _Ptr

  00000	55		 push	 ebp
  00001	8b ec		 mov	 ebp, esp

; 63   : 	_Ptr->~_Ty();

  00003	8b 4d 08	 mov	 ecx, DWORD PTR __Ptr$[ebp]

; 64   : 	}

  00006	5d		 pop	 ebp

; 63   : 	_Ptr->~_Ty();

  00007	e9 00 00 00 00	 jmp	 ??1tagShopItemMovieInfo@ioShopItemExtraInfoManager@@QAE@XZ
??$_Destroy@UtagShopItemMovieInfo@ioShopItemExtraInfoManager@@@std@@YAXPAUtagShopItemMovieInfo@ioShopItemExtraInfoManager@@@Z ENDP ; std::_Destroy<ioShopItemExtraInfoManager::tagShopItemMovieInfo>
_TEXT	ENDS
PUBLIC	?construct@?$allocator@UtagShopItemMovieInfo@ioShopItemExtraInfoManager@@@std@@QAEXPAUtagShopItemMovieInfo@ioShopItemExtraInfoManager@@$$QAU34@@Z ; std::allocator<ioShopItemExtraInfoManager::tagShopItemMovieInfo>::construct
;	COMDAT xdata$x
; File c:\program files (x86)\microsoft visual studio 10.0\vc\include\utility
xdata$x	SEGMENT
__unwindtable$?construct@?$allocator@UtagShopItemMovieInfo@ioShopItemExtraInfoManager@@@std@@QAEXPAUtagShopItemMovieInfo@ioShopItemExtraInfoManager@@$$QAU34@@Z DD 0ffffffffH
	DD	FLAT:__unwindfunclet$?construct@?$allocator@UtagShopItemMovieInfo@ioShopItemExtraInfoManager@@@std@@QAEXPAUtagShopItemMovieInfo@ioShopItemExtraInfoManager@@$$QAU34@@Z$0
__ehfuncinfo$?construct@?$allocator@UtagShopItemMovieInfo@ioShopItemExtraInfoManager@@@std@@QAEXPAUtagShopItemMovieInfo@ioShopItemExtraInfoManager@@$$QAU34@@Z DD 019930522H
	DD	01H
	DD	FLAT:__unwindtable$?construct@?$allocator@UtagShopItemMovieInfo@ioShopItemExtraInfoManager@@@std@@QAEXPAUtagShopItemMovieInfo@ioShopItemExtraInfoManager@@$$QAU34@@Z
	DD	2 DUP(00H)
	DD	2 DUP(00H)
	DD	00H
	DD	01H
; Function compile flags: /Ogsp
; File c:\program files (x86)\microsoft visual studio 10.0\vc\include\xmemory
xdata$x	ENDS
;	COMDAT ?construct@?$allocator@UtagShopItemMovieInfo@ioShopItemExtraInfoManager@@@std@@QAEXPAUtagShopItemMovieInfo@ioShopItemExtraInfoManager@@$$QAU34@@Z
_TEXT	SEGMENT
$T511233 = -16						; size = 4
__$EHRec$ = -12						; size = 12
__Ptr$ = 8						; size = 4
__Val$ = 12						; size = 4
?construct@?$allocator@UtagShopItemMovieInfo@ioShopItemExtraInfoManager@@@std@@QAEXPAUtagShopItemMovieInfo@ioShopItemExtraInfoManager@@$$QAU34@@Z PROC ; std::allocator<ioShopItemExtraInfoManager::tagShopItemMovieInfo>::construct, COMDAT
; _this$ = ecx

; 201  : 		{	// construct object at _Ptr with value _Val

  00000	6a 04		 push	 4
  00002	b8 00 00 00 00	 mov	 eax, __ehhandler$?construct@?$allocator@UtagShopItemMovieInfo@ioShopItemExtraInfoManager@@@std@@QAEXPAUtagShopItemMovieInfo@ioShopItemExtraInfoManager@@$$QAU34@@Z
  00007	e8 00 00 00 00	 call	 __EH_prolog3

; 202  : 		::new ((void _FARQ *)_Ptr) _Ty(_STD forward<_Ty>(_Val));

  0000c	8b 4d 08	 mov	 ecx, DWORD PTR __Ptr$[ebp]
  0000f	89 4d f0	 mov	 DWORD PTR $T511233[ebp], ecx
  00012	83 65 fc 00	 and	 DWORD PTR __$EHRec$[ebp+8], 0
  00016	85 c9		 test	 ecx, ecx
  00018	74 08		 je	 SHORT $LN3@construct@4
  0001a	ff 75 0c	 push	 DWORD PTR __Val$[ebp]
  0001d	e8 00 00 00 00	 call	 ??0tagShopItemMovieInfo@ioShopItemExtraInfoManager@@QAE@ABU01@@Z
$LN3@construct@4:

; 203  : 		}

  00022	e8 00 00 00 00	 call	 __EH_epilog3
  00027	c2 08 00	 ret	 8
_TEXT	ENDS
;	COMDAT text$x
text$x	SEGMENT
__unwindfunclet$?construct@?$allocator@UtagShopItemMovieInfo@ioShopItemExtraInfoManager@@@std@@QAEXPAUtagShopItemMovieInfo@ioShopItemExtraInfoManager@@$$QAU34@@Z$0:
  00000	ff 75 08	 push	 DWORD PTR __Ptr$[ebp]
  00003	ff 75 f0	 push	 DWORD PTR $T511233[ebp]
  00006	e8 00 00 00 00	 call	 ??3@YAXPAX0@Z		; operator delete
  0000b	59		 pop	 ecx
  0000c	59		 pop	 ecx
  0000d	c3		 ret	 0
__ehhandler$?construct@?$allocator@UtagShopItemMovieInfo@ioShopItemExtraInfoManager@@@std@@QAEXPAUtagShopItemMovieInfo@ioShopItemExtraInfoManager@@$$QAU34@@Z:
  0000e	8b 54 24 08	 mov	 edx, DWORD PTR [esp+8]
  00012	8d 42 0c	 lea	 eax, DWORD PTR [edx+12]
  00015	8b 4a ec	 mov	 ecx, DWORD PTR [edx-20]
  00018	33 c8		 xor	 ecx, eax
  0001a	e8 00 00 00 00	 call	 @__security_check_cookie@4
  0001f	b8 00 00 00 00	 mov	 eax, OFFSET __ehfuncinfo$?construct@?$allocator@UtagShopItemMovieInfo@ioShopItemExtraInfoManager@@@std@@QAEXPAUtagShopItemMovieInfo@ioShopItemExtraInfoManager@@$$QAU34@@Z
  00024	e9 00 00 00 00	 jmp	 ___CxxFrameHandler3
text$x	ENDS
?construct@?$allocator@UtagShopItemMovieInfo@ioShopItemExtraInfoManager@@@std@@QAEXPAUtagShopItemMovieInfo@ioShopItemExtraInfoManager@@$$QAU34@@Z ENDP ; std::allocator<ioShopItemExtraInfoManager::tagShopItemMovieInfo>::construct
PUBLIC	?destroy@?$allocator@H@std@@QAEXPAH@Z		; std::allocator<int>::destroy
; Function compile flags: /Ogsp
;	COMDAT ?destroy@?$allocator@H@std@@QAEXPAH@Z
_TEXT	SEGMENT
__Ptr$ = 8						; size = 4
?destroy@?$allocator@H@std@@QAEXPAH@Z PROC		; std::allocator<int>::destroy, COMDAT
; _this$ = ecx

; 213  : 		_Destroy(_Ptr);
; 214  : 		}

  00000	c2 04 00	 ret	 4
?destroy@?$allocator@H@std@@QAEXPAH@Z ENDP		; std::allocator<int>::destroy
_TEXT	ENDS
PUBLIC	?begin@?$vector@HV?$allocator@H@std@@@std@@QAE?AV?$_Vector_iterator@V?$_Vector_val@HV?$allocator@H@std@@@std@@@2@XZ ; std::vector<int,std::allocator<int> >::begin
; Function compile flags: /Ogsp
; File c:\program files (x86)\microsoft visual studio 10.0\vc\include\vector
;	COMDAT ?begin@?$vector@HV?$allocator@H@std@@@std@@QAE?AV?$_Vector_iterator@V?$_Vector_val@HV?$allocator@H@std@@@std@@@2@XZ
_TEXT	SEGMENT
___$ReturnUdt$ = 8					; size = 4
?begin@?$vector@HV?$allocator@H@std@@@std@@QAE?AV?$_Vector_iterator@V?$_Vector_val@HV?$allocator@H@std@@@std@@@2@XZ PROC ; std::vector<int,std::allocator<int> >::begin, COMDAT
; _this$ = ecx

; 781  : 		{	// return iterator for beginning of mutable sequence

  00000	55		 push	 ebp
  00001	8b ec		 mov	 ebp, esp

; 782  : 		return (iterator(this->_Myfirst, this));

  00003	8b 09		 mov	 ecx, DWORD PTR [ecx]
  00005	8b 45 08	 mov	 eax, DWORD PTR ___$ReturnUdt$[ebp]
  00008	89 08		 mov	 DWORD PTR [eax], ecx

; 783  : 		}

  0000a	5d		 pop	 ebp
  0000b	c2 04 00	 ret	 4
?begin@?$vector@HV?$allocator@H@std@@@std@@QAE?AV?$_Vector_iterator@V?$_Vector_val@HV?$allocator@H@std@@@std@@@2@XZ ENDP ; std::vector<int,std::allocator<int> >::begin
_TEXT	ENDS
PUBLIC	?begin@?$vector@HV?$allocator@H@std@@@std@@QBE?AV?$_Vector_const_iterator@V?$_Vector_val@HV?$allocator@H@std@@@std@@@2@XZ ; std::vector<int,std::allocator<int> >::begin
; Function compile flags: /Ogsp
;	COMDAT ?begin@?$vector@HV?$allocator@H@std@@@std@@QBE?AV?$_Vector_const_iterator@V?$_Vector_val@HV?$allocator@H@std@@@std@@@2@XZ
_TEXT	SEGMENT
___$ReturnUdt$ = 8					; size = 4
?begin@?$vector@HV?$allocator@H@std@@@std@@QBE?AV?$_Vector_const_iterator@V?$_Vector_val@HV?$allocator@H@std@@@std@@@2@XZ PROC ; std::vector<int,std::allocator<int> >::begin, COMDAT
; _this$ = ecx

; 786  : 		{	// return iterator for beginning of nonmutable sequence

  00000	55		 push	 ebp
  00001	8b ec		 mov	 ebp, esp

; 787  : 		return (const_iterator(this->_Myfirst, this));

  00003	8b 09		 mov	 ecx, DWORD PTR [ecx]
  00005	8b 45 08	 mov	 eax, DWORD PTR ___$ReturnUdt$[ebp]
  00008	89 08		 mov	 DWORD PTR [eax], ecx

; 788  : 		}

  0000a	5d		 pop	 ebp
  0000b	c2 04 00	 ret	 4
?begin@?$vector@HV?$allocator@H@std@@@std@@QBE?AV?$_Vector_const_iterator@V?$_Vector_val@HV?$allocator@H@std@@@std@@@2@XZ ENDP ; std::vector<int,std::allocator<int> >::begin
_TEXT	ENDS
PUBLIC	?end@?$vector@HV?$allocator@H@std@@@std@@QBE?AV?$_Vector_const_iterator@V?$_Vector_val@HV?$allocator@H@std@@@std@@@2@XZ ; std::vector<int,std::allocator<int> >::end
; Function compile flags: /Ogsp
;	COMDAT ?end@?$vector@HV?$allocator@H@std@@@std@@QBE?AV?$_Vector_const_iterator@V?$_Vector_val@HV?$allocator@H@std@@@std@@@2@XZ
_TEXT	SEGMENT
___$ReturnUdt$ = 8					; size = 4
?end@?$vector@HV?$allocator@H@std@@@std@@QBE?AV?$_Vector_const_iterator@V?$_Vector_val@HV?$allocator@H@std@@@std@@@2@XZ PROC ; std::vector<int,std::allocator<int> >::end, COMDAT
; _this$ = ecx

; 796  : 		{	// return iterator for end of nonmutable sequence

  00000	55		 push	 ebp
  00001	8b ec		 mov	 ebp, esp

; 797  : 		return (const_iterator(this->_Mylast, this));

  00003	8b 49 04	 mov	 ecx, DWORD PTR [ecx+4]
  00006	8b 45 08	 mov	 eax, DWORD PTR ___$ReturnUdt$[ebp]
  00009	89 08		 mov	 DWORD PTR [eax], ecx

; 798  : 		}

  0000b	5d		 pop	 ebp
  0000c	c2 04 00	 ret	 4
?end@?$vector@HV?$allocator@H@std@@@std@@QBE?AV?$_Vector_const_iterator@V?$_Vector_val@HV?$allocator@H@std@@@std@@@2@XZ ENDP ; std::vector<int,std::allocator<int> >::end
_TEXT	ENDS
PUBLIC	?end@?$vector@HV?$allocator@H@std@@@std@@QAE?AV?$_Vector_iterator@V?$_Vector_val@HV?$allocator@H@std@@@std@@@2@XZ ; std::vector<int,std::allocator<int> >::end
; Function compile flags: /Ogsp
;	COMDAT ?end@?$vector@HV?$allocator@H@std@@@std@@QAE?AV?$_Vector_iterator@V?$_Vector_val@HV?$allocator@H@std@@@std@@@2@XZ
_TEXT	SEGMENT
___$ReturnUdt$ = 8					; size = 4
?end@?$vector@HV?$allocator@H@std@@@std@@QAE?AV?$_Vector_iterator@V?$_Vector_val@HV?$allocator@H@std@@@std@@@2@XZ PROC ; std::vector<int,std::allocator<int> >::end, COMDAT
; _this$ = ecx

; 791  : 		{	// return iterator for end of mutable sequence

  00000	55		 push	 ebp
  00001	8b ec		 mov	 ebp, esp

; 792  : 		return (iterator(this->_Mylast, this));

  00003	8b 49 04	 mov	 ecx, DWORD PTR [ecx+4]
  00006	8b 45 08	 mov	 eax, DWORD PTR ___$ReturnUdt$[ebp]
  00009	89 08		 mov	 DWORD PTR [eax], ecx

; 793  : 		}

  0000b	5d		 pop	 ebp
  0000c	c2 04 00	 ret	 4
?end@?$vector@HV?$allocator@H@std@@@std@@QAE?AV?$_Vector_iterator@V?$_Vector_val@HV?$allocator@H@std@@@std@@@2@XZ ENDP ; std::vector<int,std::allocator<int> >::end
_TEXT	ENDS
PUBLIC	??0?$_Vector_val@HV?$allocator@H@std@@@std@@QAE@V?$allocator@H@1@@Z ; std::_Vector_val<int,std::allocator<int> >::_Vector_val<int,std::allocator<int> >
; Function compile flags: /Ogsp
;	COMDAT ??0?$_Vector_val@HV?$allocator@H@std@@@std@@QAE@V?$allocator@H@1@@Z
_TEXT	SEGMENT
__Al$ = 8						; size = 1
??0?$_Vector_val@HV?$allocator@H@std@@@std@@QAE@V?$allocator@H@1@@Z PROC ; std::_Vector_val<int,std::allocator<int> >::_Vector_val<int,std::allocator<int> >, COMDAT
; _this$ = ecx

; 426  : 		{	// construct allocator from _Al

  00000	8b c1		 mov	 eax, ecx

; 427  : 		_Myfirst = 0;

  00002	33 c9		 xor	 ecx, ecx
  00004	89 08		 mov	 DWORD PTR [eax], ecx

; 428  : 		_Mylast = 0;

  00006	89 48 04	 mov	 DWORD PTR [eax+4], ecx

; 429  : 		_Myend = 0;

  00009	89 48 08	 mov	 DWORD PTR [eax+8], ecx

; 430  : 		}

  0000c	c2 04 00	 ret	 4
??0?$_Vector_val@HV?$allocator@H@std@@@std@@QAE@V?$allocator@H@1@@Z ENDP ; std::_Vector_val<int,std::allocator<int> >::_Vector_val<int,std::allocator<int> >
_TEXT	ENDS
PUBLIC	?max_size@?$vector@HV?$allocator@H@std@@@std@@QBEIXZ ; std::vector<int,std::allocator<int> >::max_size
; Function compile flags: /Ogsp
;	COMDAT ?max_size@?$vector@HV?$allocator@H@std@@@std@@QBEIXZ
_TEXT	SEGMENT
?max_size@?$vector@HV?$allocator@H@std@@@std@@QBEIXZ PROC ; std::vector<int,std::allocator<int> >::max_size, COMDAT
; _this$ = ecx

; 884  : 		return (this->_Alval.max_size());

  00000	b8 ff ff ff 3f	 mov	 eax, 1073741823		; 3fffffffH

; 885  : 		}

  00005	c3		 ret	 0
?max_size@?$vector@HV?$allocator@H@std@@@std@@QBEIXZ ENDP ; std::vector<int,std::allocator<int> >::max_size
_TEXT	ENDS
PUBLIC	?_Grow_to@?$vector@HV?$allocator@H@std@@@std@@IBEII@Z ; std::vector<int,std::allocator<int> >::_Grow_to
; Function compile flags: /Ogsp
;	COMDAT ?_Grow_to@?$vector@HV?$allocator@H@std@@@std@@IBEII@Z
_TEXT	SEGMENT
__Count$ = 8						; size = 4
?_Grow_to@?$vector@HV?$allocator@H@std@@@std@@IBEII@Z PROC ; std::vector<int,std::allocator<int> >::_Grow_to, COMDAT
; _this$ = ecx

; 1274 : 		{	// grow by 50% or at least to _Count

  00000	55		 push	 ebp
  00001	8b ec		 mov	 ebp, esp

; 1275 : 		size_type _Capacity = capacity();

  00003	8b 41 08	 mov	 eax, DWORD PTR [ecx+8]
  00006	2b 01		 sub	 eax, DWORD PTR [ecx]

; 1276 : 
; 1277 : 		_Capacity = max_size() - _Capacity / 2 < _Capacity
; 1278 : 			? 0 : _Capacity + _Capacity / 2;	// try to grow by 50%

  00008	ba ff ff ff 3f	 mov	 edx, 1073741823		; 3fffffffH
  0000d	c1 f8 02	 sar	 eax, 2
  00010	8b c8		 mov	 ecx, eax
  00012	d1 e9		 shr	 ecx, 1
  00014	2b d1		 sub	 edx, ecx
  00016	3b d0		 cmp	 edx, eax
  00018	73 04		 jae	 SHORT $LN4@Grow_to@3
  0001a	33 c0		 xor	 eax, eax
  0001c	eb 02		 jmp	 SHORT $LN5@Grow_to@3
$LN4@Grow_to@3:
  0001e	03 c1		 add	 eax, ecx
$LN5@Grow_to@3:

; 1279 : 		if (_Capacity < _Count)

  00020	3b 45 08	 cmp	 eax, DWORD PTR __Count$[ebp]

; 1280 : 			_Capacity = _Count;

  00023	0f 42 45 08	 cmovb	 eax, DWORD PTR __Count$[ebp]

; 1281 : 		return (_Capacity);
; 1282 : 		}

  00027	5d		 pop	 ebp
  00028	c2 04 00	 ret	 4
?_Grow_to@?$vector@HV?$allocator@H@std@@@std@@IBEII@Z ENDP ; std::vector<int,std::allocator<int> >::_Grow_to
_TEXT	ENDS
PUBLIC	?allocate@?$allocator@H@std@@QAEPAHI@Z		; std::allocator<int>::allocate
; Function compile flags: /Ogsp
; File c:\program files (x86)\microsoft visual studio 10.0\vc\include\xmemory
;	COMDAT ?allocate@?$allocator@H@std@@QAEPAHI@Z
_TEXT	SEGMENT
__Count$ = 8						; size = 4
?allocate@?$allocator@H@std@@QAEPAHI@Z PROC		; std::allocator<int>::allocate, COMDAT
; _this$ = ecx

; 186  : 		{	// allocate array of _Count elements

  00000	55		 push	 ebp
  00001	8b ec		 mov	 ebp, esp

; 187  : 		return (_Allocate(_Count, (pointer)0));

  00003	6a 00		 push	 0
  00005	ff 75 08	 push	 DWORD PTR __Count$[ebp]
  00008	e8 00 00 00 00	 call	 ??$_Allocate@H@std@@YAPAHIPAH@Z ; std::_Allocate<int>
  0000d	59		 pop	 ecx
  0000e	59		 pop	 ecx

; 188  : 		}

  0000f	5d		 pop	 ebp
  00010	c2 04 00	 ret	 4
?allocate@?$allocator@H@std@@QAEPAHI@Z ENDP		; std::allocator<int>::allocate
_TEXT	ENDS
PUBLIC	??8?$_Vector_const_iterator@V?$_Vector_val@HV?$allocator@H@std@@@std@@@std@@QBE_NABV01@@Z ; std::_Vector_const_iterator<std::_Vector_val<int,std::allocator<int> > >::operator==
; Function compile flags: /Ogsp
; File c:\program files (x86)\microsoft visual studio 10.0\vc\include\vector
;	COMDAT ??8?$_Vector_const_iterator@V?$_Vector_val@HV?$allocator@H@std@@@std@@@std@@QBE_NABV01@@Z
_TEXT	SEGMENT
__Right$ = 8						; size = 4
??8?$_Vector_const_iterator@V?$_Vector_val@HV?$allocator@H@std@@@std@@@std@@QBE_NABV01@@Z PROC ; std::_Vector_const_iterator<std::_Vector_val<int,std::allocator<int> > >::operator==, COMDAT
; _this$ = ecx

; 201  : 		{	// test for iterator equality

  00000	55		 push	 ebp
  00001	8b ec		 mov	 ebp, esp

; 202  : 		_Compat(_Right);
; 203  : 		return (this->_Ptr == _Right._Ptr);

  00003	8b 01		 mov	 eax, DWORD PTR [ecx]
  00005	8b 4d 08	 mov	 ecx, DWORD PTR __Right$[ebp]
  00008	2b 01		 sub	 eax, DWORD PTR [ecx]
  0000a	f7 d8		 neg	 eax
  0000c	1b c0		 sbb	 eax, eax
  0000e	40		 inc	 eax

; 204  : 		}

  0000f	5d		 pop	 ebp
  00010	c2 04 00	 ret	 4
??8?$_Vector_const_iterator@V?$_Vector_val@HV?$allocator@H@std@@@std@@@std@@QBE_NABV01@@Z ENDP ; std::_Vector_const_iterator<std::_Vector_val<int,std::allocator<int> > >::operator==
_TEXT	ENDS
PUBLIC	??$_Move@PAHPAH@std@@YAPAHPAH00@Z		; std::_Move<int *,int *>
; Function compile flags: /Ogsp
; File c:\program files (x86)\microsoft visual studio 10.0\vc\include\xutility
;	COMDAT ??$_Move@PAHPAH@std@@YAPAHPAH00@Z
_TEXT	SEGMENT
__Cat$511365 = -4					; size = 1
__First$ = 8						; size = 4
__Last$ = 12						; size = 4
__Dest$ = 16						; size = 4
??$_Move@PAHPAH@std@@YAPAHPAH00@Z PROC			; std::_Move<int *,int *>, COMDAT

; 2533 : 	{	// move [_First, _Last) to [_Dest, ...), unchecked

  00000	55		 push	 ebp
  00001	8b ec		 mov	 ebp, esp
  00003	51		 push	 ecx

; 2534 : 	return (_Move(_First, _Last,
; 2535 : 		_Dest, _Ptr_cat(_First, _Dest)));

  00004	ff 75 fc	 push	 DWORD PTR __Cat$511365[ebp]
  00007	ff 75 10	 push	 DWORD PTR __Dest$[ebp]
  0000a	ff 75 0c	 push	 DWORD PTR __Last$[ebp]
  0000d	ff 75 08	 push	 DWORD PTR __First$[ebp]
  00010	e8 00 00 00 00	 call	 ??$_Move@PAHPAH@std@@YAPAHPAH00U_Scalar_ptr_iterator_tag@0@@Z ; std::_Move<int *,int *>
  00015	83 c4 10	 add	 esp, 16			; 00000010H

; 2536 : 	}

  00018	c9		 leave
  00019	c3		 ret	 0
??$_Move@PAHPAH@std@@YAPAHPAH00@Z ENDP			; std::_Move<int *,int *>
_TEXT	ENDS
PUBLIC	??$_Destroy_range@V?$allocator@H@std@@@std@@YAXPAH0AAV?$allocator@H@0@@Z ; std::_Destroy_range<std::allocator<int> >
; Function compile flags: /Ogsp
; File c:\program files (x86)\microsoft visual studio 10.0\vc\include\xmemory
;	COMDAT ??$_Destroy_range@V?$allocator@H@std@@@std@@YAXPAH0AAV?$allocator@H@0@@Z
_TEXT	SEGMENT
__First$ = 8						; size = 4
__Last$ = 12						; size = 4
__Al$ = 16						; size = 4
??$_Destroy_range@V?$allocator@H@std@@@std@@YAXPAH0AAV?$allocator@H@0@@Z PROC ; std::_Destroy_range<std::allocator<int> >, COMDAT

; 88   : 	_Destroy_range(_First, _Last, _Al, _Ptr_cat(_First, _Last));
; 89   : 	}

  00000	c3		 ret	 0
??$_Destroy_range@V?$allocator@H@std@@@std@@YAXPAH0AAV?$allocator@H@0@@Z ENDP ; std::_Destroy_range<std::allocator<int> >
_TEXT	ENDS
PUBLIC	??$_Uninitialized_move@PAHPAHV?$allocator@H@std@@@std@@YAPAHPAH00AAV?$allocator@H@0@@Z ; std::_Uninitialized_move<int *,int *,std::allocator<int> >
; Function compile flags: /Ogsp
; File c:\program files (x86)\microsoft visual studio 10.0\vc\include\memory
;	COMDAT ??$_Uninitialized_move@PAHPAHV?$allocator@H@std@@@std@@YAPAHPAH00AAV?$allocator@H@0@@Z
_TEXT	SEGMENT
__First$ = 8						; size = 4
__Last$ = 12						; size = 4
__Dest$ = 16						; size = 4
__Al$ = 20						; size = 4
??$_Uninitialized_move@PAHPAHV?$allocator@H@std@@@std@@YAPAHPAH00AAV?$allocator@H@0@@Z PROC ; std::_Uninitialized_move<int *,int *,std::allocator<int> >, COMDAT

; 469  : 	{	// move [_First, _Last) to raw _Dest, using _Al

  00000	55		 push	 ebp
  00001	8b ec		 mov	 ebp, esp
  00003	56		 push	 esi

; 470  : 	return (_Uninit_move(_First, _Last, _Dest, _Al,
; 471  : 		_Val_type(_First), _Ptr_cat(_First, _Dest)));

  00004	8b 75 0c	 mov	 esi, DWORD PTR __Last$[ebp]
  00007	2b 75 08	 sub	 esi, DWORD PTR __First$[ebp]
  0000a	c1 fe 02	 sar	 esi, 2
  0000d	c1 e6 02	 shl	 esi, 2
  00010	56		 push	 esi
  00011	ff 75 08	 push	 DWORD PTR __First$[ebp]
  00014	ff 75 10	 push	 DWORD PTR __Dest$[ebp]
  00017	ff 15 00 00 00
	00		 call	 DWORD PTR __imp__memmove
  0001d	83 c4 0c	 add	 esp, 12			; 0000000cH
  00020	03 c6		 add	 eax, esi
  00022	5e		 pop	 esi

; 472  : 	}

  00023	5d		 pop	 ebp
  00024	c3		 ret	 0
??$_Uninitialized_move@PAHPAHV?$allocator@H@std@@@std@@YAPAHPAH00AAV?$allocator@H@0@@Z ENDP ; std::_Uninitialized_move<int *,int *,std::allocator<int> >
_TEXT	ENDS
PUBLIC	?FindExtraInfo@ioShopItemExtraInfoManager@@QAEPAUtagShopItemExtraInfo@1@HHK@Z ; ioShopItemExtraInfoManager::FindExtraInfo
; Function compile flags: /Ogsp
; File d:\lost saga for developer\youtube\tutorial\source\src\lsclient\ioshopitemextrainfomanager.cpp
;	COMDAT ?FindExtraInfo@ioShopItemExtraInfoManager@@QAEPAUtagShopItemExtraInfo@1@HHK@Z
_TEXT	SEGMENT
_nItemType$ = 8						; size = 4
_nItemValue$ = 12					; size = 4
_dwItemCode$ = 16					; size = 4
?FindExtraInfo@ioShopItemExtraInfoManager@@QAEPAUtagShopItemExtraInfo@1@HHK@Z PROC ; ioShopItemExtraInfoManager::FindExtraInfo, COMDAT
; _this$ = ecx

; 153  : {

  00000	55		 push	 ebp
  00001	8b ec		 mov	 ebp, esp

; 154  : 	if ( m_ShopItemExtraInfoData.empty() || 
; 155  : 		 !COMPARE( nItemType, PRESENT_DEFAULT, PRESENT_MAX ) ||
; 156  : 		 nItemValue == 0 ||
; 157  : 		 dwItemCode == 0 )

  00003	8b 51 04	 mov	 edx, DWORD PTR [ecx+4]
  00006	8b 41 08	 mov	 eax, DWORD PTR [ecx+8]
  00009	53		 push	 ebx
  0000a	56		 push	 esi
  0000b	57		 push	 edi
  0000c	3b d0		 cmp	 edx, eax
  0000e	74 3a		 je	 SHORT $LN7@FindExtraI
  00010	83 7d 08 0f	 cmp	 DWORD PTR _nItemType$[ebp], 15 ; 0000000fH
  00014	77 34		 ja	 SHORT $LN7@FindExtraI
  00016	33 f6		 xor	 esi, esi
  00018	39 75 0c	 cmp	 DWORD PTR _nItemValue$[ebp], esi
  0001b	74 2d		 je	 SHORT $LN7@FindExtraI
  0001d	39 75 10	 cmp	 DWORD PTR _dwItemCode$[ebp], esi
  00020	74 28		 je	 SHORT $LN7@FindExtraI

; 159  : 
; 160  : 	int nInfoDataCnt = (int)m_ShopItemExtraInfoData.size();

  00022	2b c2		 sub	 eax, edx
  00024	6a 3c		 push	 60			; 0000003cH
  00026	99		 cdq
  00027	5f		 pop	 edi
  00028	f7 ff		 idiv	 edi

; 161  : 	for ( int i=0; i< nInfoDataCnt; ++i )

  0002a	3b c6		 cmp	 eax, esi
  0002c	7e 1c		 jle	 SHORT $LN7@FindExtraI

; 159  : 
; 160  : 	int nInfoDataCnt = (int)m_ShopItemExtraInfoData.size();

  0002e	8b 79 04	 mov	 edi, DWORD PTR [ecx+4]
  00031	8b d7		 mov	 edx, edi
$LL22@FindExtraI:

; 162  : 	{
; 163  : 		const ShopItemExtraInfo& sShopExtraInfo = m_ShopItemExtraInfoData[i];
; 164  : 		if ( sShopExtraInfo.m_nItemType == nItemType && 
; 165  : 			 sShopExtraInfo.m_dwItemCode == dwItemCode )

  00033	8b 5d 08	 mov	 ebx, DWORD PTR _nItemType$[ebp]
  00036	39 1a		 cmp	 DWORD PTR [edx], ebx
  00038	75 08		 jne	 SHORT $LN5@FindExtraI
  0003a	8b 5d 10	 mov	 ebx, DWORD PTR _dwItemCode$[ebp]
  0003d	39 5a 04	 cmp	 DWORD PTR [edx+4], ebx
  00040	74 11		 je	 SHORT $LN20@FindExtraI
$LN5@FindExtraI:

; 161  : 	for ( int i=0; i< nInfoDataCnt; ++i )

  00042	46		 inc	 esi
  00043	83 c2 3c	 add	 edx, 60			; 0000003cH
  00046	3b f0		 cmp	 esi, eax
  00048	7c e9		 jl	 SHORT $LL22@FindExtraI
$LN7@FindExtraI:

; 158  : 		return NULL;

  0004a	33 c0		 xor	 eax, eax
$LN9@FindExtraI:
  0004c	5f		 pop	 edi
  0004d	5e		 pop	 esi
  0004e	5b		 pop	 ebx

; 172  : 		}
; 173  : 	}
; 174  : 
; 175  : 	return NULL;
; 176  : }

  0004f	5d		 pop	 ebp
  00050	c2 0c 00	 ret	 12			; 0000000cH
$LN20@FindExtraI:

; 166  : 		{
; 167  : 			if ( nItemType == PRESENT_EXTRAITEM_BOX &&
; 168  : 				 !IsApplyMachine( nItemValue, sShopExtraInfo.m_MachineList ) )

  00053	83 7d 08 06	 cmp	 DWORD PTR _nItemType$[ebp], 6
  00057	75 10		 jne	 SHORT $LN2@FindExtraI
  00059	83 c2 1c	 add	 edx, 28			; 0000001cH
  0005c	52		 push	 edx
  0005d	ff 75 0c	 push	 DWORD PTR _nItemValue$[ebp]
  00060	e8 00 00 00 00	 call	 ?IsApplyMachine@ioShopItemExtraInfoManager@@IAE_NHABV?$vector@HV?$allocator@H@std@@@std@@@Z ; ioShopItemExtraInfoManager::IsApplyMachine
  00065	84 c0		 test	 al, al

; 169  : 				return NULL;

  00067	74 e1		 je	 SHORT $LN7@FindExtraI
$LN2@FindExtraI:

; 170  : 			else
; 171  : 				return &m_ShopItemExtraInfoData[i];

  00069	8b c6		 mov	 eax, esi
  0006b	6b c0 3c	 imul	 eax, 60			; 0000003cH
  0006e	03 c7		 add	 eax, edi
  00070	eb da		 jmp	 SHORT $LN9@FindExtraI
?FindExtraInfo@ioShopItemExtraInfoManager@@QAEPAUtagShopItemExtraInfo@1@HHK@Z ENDP ; ioShopItemExtraInfoManager::FindExtraInfo
_TEXT	ENDS
PUBLIC	??0?$vector@UtagShopItemMovieInfo@ioShopItemExtraInfoManager@@V?$allocator@UtagShopItemMovieInfo@ioShopItemExtraInfoManager@@@std@@@std@@QAE@XZ ; std::vector<ioShopItemExtraInfoManager::tagShopItemMovieInfo,std::allocator<ioShopItemExtraInfoManager::tagShopItemMovieInfo> >::vector<ioShopItemExtraInfoManager::tagShopItemMovieInfo,std::allocator<ioShopItemExtraInfoManager::tagShopItemMovieInfo> >
; Function compile flags: /Ogsp
; File c:\program files (x86)\microsoft visual studio 10.0\vc\include\vector
;	COMDAT ??0?$vector@UtagShopItemMovieInfo@ioShopItemExtraInfoManager@@V?$allocator@UtagShopItemMovieInfo@ioShopItemExtraInfoManager@@@std@@@std@@QAE@XZ
_TEXT	SEGMENT
??0?$vector@UtagShopItemMovieInfo@ioShopItemExtraInfoManager@@V?$allocator@UtagShopItemMovieInfo@ioShopItemExtraInfoManager@@@std@@@std@@QAE@XZ PROC ; std::vector<ioShopItemExtraInfoManager::tagShopItemMovieInfo,std::allocator<ioShopItemExtraInfoManager::tagShopItemMovieInfo> >::vector<ioShopItemExtraInfoManager::tagShopItemMovieInfo,std::allocator<ioShopItemExtraInfoManager::tagShopItemMovieInfo> >, COMDAT
; _this$ = ecx

; 507  : 		{	// construct empty vector

  00000	8b c1		 mov	 eax, ecx
  00002	33 c9		 xor	 ecx, ecx
  00004	89 08		 mov	 DWORD PTR [eax], ecx
  00006	89 48 04	 mov	 DWORD PTR [eax+4], ecx
  00009	89 48 08	 mov	 DWORD PTR [eax+8], ecx

; 508  : 		}

  0000c	c3		 ret	 0
??0?$vector@UtagShopItemMovieInfo@ioShopItemExtraInfoManager@@V?$allocator@UtagShopItemMovieInfo@ioShopItemExtraInfoManager@@@std@@@std@@QAE@XZ ENDP ; std::vector<ioShopItemExtraInfoManager::tagShopItemMovieInfo,std::allocator<ioShopItemExtraInfoManager::tagShopItemMovieInfo> >::vector<ioShopItemExtraInfoManager::tagShopItemMovieInfo,std::allocator<ioShopItemExtraInfoManager::tagShopItemMovieInfo> >
_TEXT	ENDS
PUBLIC	??0?$vector@UtagShopItemExtraInfo@ioShopItemExtraInfoManager@@V?$allocator@UtagShopItemExtraInfo@ioShopItemExtraInfoManager@@@std@@@std@@QAE@XZ ; std::vector<ioShopItemExtraInfoManager::tagShopItemExtraInfo,std::allocator<ioShopItemExtraInfoManager::tagShopItemExtraInfo> >::vector<ioShopItemExtraInfoManager::tagShopItemExtraInfo,std::allocator<ioShopItemExtraInfoManager::tagShopItemExtraInfo> >
; Function compile flags: /Ogsp
;	COMDAT ??0?$vector@UtagShopItemExtraInfo@ioShopItemExtraInfoManager@@V?$allocator@UtagShopItemExtraInfo@ioShopItemExtraInfoManager@@@std@@@std@@QAE@XZ
_TEXT	SEGMENT
??0?$vector@UtagShopItemExtraInfo@ioShopItemExtraInfoManager@@V?$allocator@UtagShopItemExtraInfo@ioShopItemExtraInfoManager@@@std@@@std@@QAE@XZ PROC ; std::vector<ioShopItemExtraInfoManager::tagShopItemExtraInfo,std::allocator<ioShopItemExtraInfoManager::tagShopItemExtraInfo> >::vector<ioShopItemExtraInfoManager::tagShopItemExtraInfo,std::allocator<ioShopItemExtraInfoManager::tagShopItemExtraInfo> >, COMDAT
; _this$ = ecx

; 507  : 		{	// construct empty vector

  00000	8b c1		 mov	 eax, ecx
  00002	33 c9		 xor	 ecx, ecx
  00004	89 08		 mov	 DWORD PTR [eax], ecx
  00006	89 48 04	 mov	 DWORD PTR [eax+4], ecx
  00009	89 48 08	 mov	 DWORD PTR [eax+8], ecx

; 508  : 		}

  0000c	c3		 ret	 0
??0?$vector@UtagShopItemExtraInfo@ioShopItemExtraInfoManager@@V?$allocator@UtagShopItemExtraInfo@ioShopItemExtraInfoManager@@@std@@@std@@QAE@XZ ENDP ; std::vector<ioShopItemExtraInfoManager::tagShopItemExtraInfo,std::allocator<ioShopItemExtraInfoManager::tagShopItemExtraInfo> >::vector<ioShopItemExtraInfoManager::tagShopItemExtraInfo,std::allocator<ioShopItemExtraInfoManager::tagShopItemExtraInfo> >
_TEXT	ENDS
PUBLIC	?begin@?$vector@UtagShopItemMovieInfo@ioShopItemExtraInfoManager@@V?$allocator@UtagShopItemMovieInfo@ioShopItemExtraInfoManager@@@std@@@std@@QAE?AV?$_Vector_iterator@V?$_Vector_val@UtagShopItemMovieInfo@ioShopItemExtraInfoManager@@V?$allocator@UtagShopItemMovieInfo@ioShopItemExtraInfoManager@@@std@@@std@@@2@XZ ; std::vector<ioShopItemExtraInfoManager::tagShopItemMovieInfo,std::allocator<ioShopItemExtraInfoManager::tagShopItemMovieInfo> >::begin
; Function compile flags: /Ogsp
;	COMDAT ?begin@?$vector@UtagShopItemMovieInfo@ioShopItemExtraInfoManager@@V?$allocator@UtagShopItemMovieInfo@ioShopItemExtraInfoManager@@@std@@@std@@QAE?AV?$_Vector_iterator@V?$_Vector_val@UtagShopItemMovieInfo@ioShopItemExtraInfoManager@@V?$allocator@UtagShopItemMovieInfo@ioShopItemExtraInfoManager@@@std@@@std@@@2@XZ
_TEXT	SEGMENT
___$ReturnUdt$ = 8					; size = 4
?begin@?$vector@UtagShopItemMovieInfo@ioShopItemExtraInfoManager@@V?$allocator@UtagShopItemMovieInfo@ioShopItemExtraInfoManager@@@std@@@std@@QAE?AV?$_Vector_iterator@V?$_Vector_val@UtagShopItemMovieInfo@ioShopItemExtraInfoManager@@V?$allocator@UtagShopItemMovieInfo@ioShopItemExtraInfoManager@@@std@@@std@@@2@XZ PROC ; std::vector<ioShopItemExtraInfoManager::tagShopItemMovieInfo,std::allocator<ioShopItemExtraInfoManager::tagShopItemMovieInfo> >::begin, COMDAT
; _this$ = ecx

; 781  : 		{	// return iterator for beginning of mutable sequence

  00000	55		 push	 ebp
  00001	8b ec		 mov	 ebp, esp

; 782  : 		return (iterator(this->_Myfirst, this));

  00003	8b 09		 mov	 ecx, DWORD PTR [ecx]
  00005	8b 45 08	 mov	 eax, DWORD PTR ___$ReturnUdt$[ebp]
  00008	89 08		 mov	 DWORD PTR [eax], ecx

; 783  : 		}

  0000a	5d		 pop	 ebp
  0000b	c2 04 00	 ret	 4
?begin@?$vector@UtagShopItemMovieInfo@ioShopItemExtraInfoManager@@V?$allocator@UtagShopItemMovieInfo@ioShopItemExtraInfoManager@@@std@@@std@@QAE?AV?$_Vector_iterator@V?$_Vector_val@UtagShopItemMovieInfo@ioShopItemExtraInfoManager@@V?$allocator@UtagShopItemMovieInfo@ioShopItemExtraInfoManager@@@std@@@std@@@2@XZ ENDP ; std::vector<ioShopItemExtraInfoManager::tagShopItemMovieInfo,std::allocator<ioShopItemExtraInfoManager::tagShopItemMovieInfo> >::begin
_TEXT	ENDS
PUBLIC	?end@?$vector@UtagShopItemMovieInfo@ioShopItemExtraInfoManager@@V?$allocator@UtagShopItemMovieInfo@ioShopItemExtraInfoManager@@@std@@@std@@QAE?AV?$_Vector_iterator@V?$_Vector_val@UtagShopItemMovieInfo@ioShopItemExtraInfoManager@@V?$allocator@UtagShopItemMovieInfo@ioShopItemExtraInfoManager@@@std@@@std@@@2@XZ ; std::vector<ioShopItemExtraInfoManager::tagShopItemMovieInfo,std::allocator<ioShopItemExtraInfoManager::tagShopItemMovieInfo> >::end
; Function compile flags: /Ogsp
;	COMDAT ?end@?$vector@UtagShopItemMovieInfo@ioShopItemExtraInfoManager@@V?$allocator@UtagShopItemMovieInfo@ioShopItemExtraInfoManager@@@std@@@std@@QAE?AV?$_Vector_iterator@V?$_Vector_val@UtagShopItemMovieInfo@ioShopItemExtraInfoManager@@V?$allocator@UtagShopItemMovieInfo@ioShopItemExtraInfoManager@@@std@@@std@@@2@XZ
_TEXT	SEGMENT
___$ReturnUdt$ = 8					; size = 4
?end@?$vector@UtagShopItemMovieInfo@ioShopItemExtraInfoManager@@V?$allocator@UtagShopItemMovieInfo@ioShopItemExtraInfoManager@@@std@@@std@@QAE?AV?$_Vector_iterator@V?$_Vector_val@UtagShopItemMovieInfo@ioShopItemExtraInfoManager@@V?$allocator@UtagShopItemMovieInfo@ioShopItemExtraInfoManager@@@std@@@std@@@2@XZ PROC ; std::vector<ioShopItemExtraInfoManager::tagShopItemMovieInfo,std::allocator<ioShopItemExtraInfoManager::tagShopItemMovieInfo> >::end, COMDAT
; _this$ = ecx

; 791  : 		{	// return iterator for end of mutable sequence

  00000	55		 push	 ebp
  00001	8b ec		 mov	 ebp, esp

; 792  : 		return (iterator(this->_Mylast, this));

  00003	8b 49 04	 mov	 ecx, DWORD PTR [ecx+4]
  00006	8b 45 08	 mov	 eax, DWORD PTR ___$ReturnUdt$[ebp]
  00009	89 08		 mov	 DWORD PTR [eax], ecx

; 793  : 		}

  0000b	5d		 pop	 ebp
  0000c	c2 04 00	 ret	 4
?end@?$vector@UtagShopItemMovieInfo@ioShopItemExtraInfoManager@@V?$allocator@UtagShopItemMovieInfo@ioShopItemExtraInfoManager@@@std@@@std@@QAE?AV?$_Vector_iterator@V?$_Vector_val@UtagShopItemMovieInfo@ioShopItemExtraInfoManager@@V?$allocator@UtagShopItemMovieInfo@ioShopItemExtraInfoManager@@@std@@@std@@@2@XZ ENDP ; std::vector<ioShopItemExtraInfoManager::tagShopItemMovieInfo,std::allocator<ioShopItemExtraInfoManager::tagShopItemMovieInfo> >::end
_TEXT	ENDS
PUBLIC	?begin@?$vector@UtagShopItemExtraInfo@ioShopItemExtraInfoManager@@V?$allocator@UtagShopItemExtraInfo@ioShopItemExtraInfoManager@@@std@@@std@@QAE?AV?$_Vector_iterator@V?$_Vector_val@UtagShopItemExtraInfo@ioShopItemExtraInfoManager@@V?$allocator@UtagShopItemExtraInfo@ioShopItemExtraInfoManager@@@std@@@std@@@2@XZ ; std::vector<ioShopItemExtraInfoManager::tagShopItemExtraInfo,std::allocator<ioShopItemExtraInfoManager::tagShopItemExtraInfo> >::begin
; Function compile flags: /Ogsp
;	COMDAT ?begin@?$vector@UtagShopItemExtraInfo@ioShopItemExtraInfoManager@@V?$allocator@UtagShopItemExtraInfo@ioShopItemExtraInfoManager@@@std@@@std@@QAE?AV?$_Vector_iterator@V?$_Vector_val@UtagShopItemExtraInfo@ioShopItemExtraInfoManager@@V?$allocator@UtagShopItemExtraInfo@ioShopItemExtraInfoManager@@@std@@@std@@@2@XZ
_TEXT	SEGMENT
___$ReturnUdt$ = 8					; size = 4
?begin@?$vector@UtagShopItemExtraInfo@ioShopItemExtraInfoManager@@V?$allocator@UtagShopItemExtraInfo@ioShopItemExtraInfoManager@@@std@@@std@@QAE?AV?$_Vector_iterator@V?$_Vector_val@UtagShopItemExtraInfo@ioShopItemExtraInfoManager@@V?$allocator@UtagShopItemExtraInfo@ioShopItemExtraInfoManager@@@std@@@std@@@2@XZ PROC ; std::vector<ioShopItemExtraInfoManager::tagShopItemExtraInfo,std::allocator<ioShopItemExtraInfoManager::tagShopItemExtraInfo> >::begin, COMDAT
; _this$ = ecx

; 781  : 		{	// return iterator for beginning of mutable sequence

  00000	55		 push	 ebp
  00001	8b ec		 mov	 ebp, esp

; 782  : 		return (iterator(this->_Myfirst, this));

  00003	8b 09		 mov	 ecx, DWORD PTR [ecx]
  00005	8b 45 08	 mov	 eax, DWORD PTR ___$ReturnUdt$[ebp]
  00008	89 08		 mov	 DWORD PTR [eax], ecx

; 783  : 		}

  0000a	5d		 pop	 ebp
  0000b	c2 04 00	 ret	 4
?begin@?$vector@UtagShopItemExtraInfo@ioShopItemExtraInfoManager@@V?$allocator@UtagShopItemExtraInfo@ioShopItemExtraInfoManager@@@std@@@std@@QAE?AV?$_Vector_iterator@V?$_Vector_val@UtagShopItemExtraInfo@ioShopItemExtraInfoManager@@V?$allocator@UtagShopItemExtraInfo@ioShopItemExtraInfoManager@@@std@@@std@@@2@XZ ENDP ; std::vector<ioShopItemExtraInfoManager::tagShopItemExtraInfo,std::allocator<ioShopItemExtraInfoManager::tagShopItemExtraInfo> >::begin
_TEXT	ENDS
PUBLIC	?end@?$vector@UtagShopItemExtraInfo@ioShopItemExtraInfoManager@@V?$allocator@UtagShopItemExtraInfo@ioShopItemExtraInfoManager@@@std@@@std@@QAE?AV?$_Vector_iterator@V?$_Vector_val@UtagShopItemExtraInfo@ioShopItemExtraInfoManager@@V?$allocator@UtagShopItemExtraInfo@ioShopItemExtraInfoManager@@@std@@@std@@@2@XZ ; std::vector<ioShopItemExtraInfoManager::tagShopItemExtraInfo,std::allocator<ioShopItemExtraInfoManager::tagShopItemExtraInfo> >::end
; Function compile flags: /Ogsp
;	COMDAT ?end@?$vector@UtagShopItemExtraInfo@ioShopItemExtraInfoManager@@V?$allocator@UtagShopItemExtraInfo@ioShopItemExtraInfoManager@@@std@@@std@@QAE?AV?$_Vector_iterator@V?$_Vector_val@UtagShopItemExtraInfo@ioShopItemExtraInfoManager@@V?$allocator@UtagShopItemExtraInfo@ioShopItemExtraInfoManager@@@std@@@std@@@2@XZ
_TEXT	SEGMENT
___$ReturnUdt$ = 8					; size = 4
?end@?$vector@UtagShopItemExtraInfo@ioShopItemExtraInfoManager@@V?$allocator@UtagShopItemExtraInfo@ioShopItemExtraInfoManager@@@std@@@std@@QAE?AV?$_Vector_iterator@V?$_Vector_val@UtagShopItemExtraInfo@ioShopItemExtraInfoManager@@V?$allocator@UtagShopItemExtraInfo@ioShopItemExtraInfoManager@@@std@@@std@@@2@XZ PROC ; std::vector<ioShopItemExtraInfoManager::tagShopItemExtraInfo,std::allocator<ioShopItemExtraInfoManager::tagShopItemExtraInfo> >::end, COMDAT
; _this$ = ecx

; 791  : 		{	// return iterator for end of mutable sequence

  00000	55		 push	 ebp
  00001	8b ec		 mov	 ebp, esp

; 792  : 		return (iterator(this->_Mylast, this));

  00003	8b 49 04	 mov	 ecx, DWORD PTR [ecx+4]
  00006	8b 45 08	 mov	 eax, DWORD PTR ___$ReturnUdt$[ebp]
  00009	89 08		 mov	 DWORD PTR [eax], ecx

; 793  : 		}

  0000b	5d		 pop	 ebp
  0000c	c2 04 00	 ret	 4
?end@?$vector@UtagShopItemExtraInfo@ioShopItemExtraInfoManager@@V?$allocator@UtagShopItemExtraInfo@ioShopItemExtraInfoManager@@@std@@@std@@QAE?AV?$_Vector_iterator@V?$_Vector_val@UtagShopItemExtraInfo@ioShopItemExtraInfoManager@@V?$allocator@UtagShopItemExtraInfo@ioShopItemExtraInfoManager@@@std@@@std@@@2@XZ ENDP ; std::vector<ioShopItemExtraInfoManager::tagShopItemExtraInfo,std::allocator<ioShopItemExtraInfoManager::tagShopItemExtraInfo> >::end
_TEXT	ENDS
PUBLIC	?_Make_iter@?$vector@UtagShopItemMovieInfo@ioShopItemExtraInfoManager@@V?$allocator@UtagShopItemMovieInfo@ioShopItemExtraInfoManager@@@std@@@std@@QBE?AV?$_Vector_iterator@V?$_Vector_val@UtagShopItemMovieInfo@ioShopItemExtraInfoManager@@V?$allocator@UtagShopItemMovieInfo@ioShopItemExtraInfoManager@@@std@@@std@@@2@V?$_Vector_const_iterator@V?$_Vector_val@UtagShopItemMovieInfo@ioShopItemExtraInfoManager@@V?$allocator@UtagShopItemMovieInfo@ioShopItemExtraInfoManager@@@std@@@std@@@2@@Z ; std::vector<ioShopItemExtraInfoManager::tagShopItemMovieInfo,std::allocator<ioShopItemExtraInfoManager::tagShopItemMovieInfo> >::_Make_iter
; Function compile flags: /Ogsp
;	COMDAT ?_Make_iter@?$vector@UtagShopItemMovieInfo@ioShopItemExtraInfoManager@@V?$allocator@UtagShopItemMovieInfo@ioShopItemExtraInfoManager@@@std@@@std@@QBE?AV?$_Vector_iterator@V?$_Vector_val@UtagShopItemMovieInfo@ioShopItemExtraInfoManager@@V?$allocator@UtagShopItemMovieInfo@ioShopItemExtraInfoManager@@@std@@@std@@@2@V?$_Vector_const_iterator@V?$_Vector_val@UtagShopItemMovieInfo@ioShopItemExtraInfoManager@@V?$allocator@UtagShopItemMovieInfo@ioShopItemExtraInfoManager@@@std@@@std@@@2@@Z
_TEXT	SEGMENT
___$ReturnUdt$ = 8					; size = 4
__Where$ = 12						; size = 4
?_Make_iter@?$vector@UtagShopItemMovieInfo@ioShopItemExtraInfoManager@@V?$allocator@UtagShopItemMovieInfo@ioShopItemExtraInfoManager@@@std@@@std@@QBE?AV?$_Vector_iterator@V?$_Vector_val@UtagShopItemMovieInfo@ioShopItemExtraInfoManager@@V?$allocator@UtagShopItemMovieInfo@ioShopItemExtraInfoManager@@@std@@@std@@@2@V?$_Vector_const_iterator@V?$_Vector_val@UtagShopItemMovieInfo@ioShopItemExtraInfoManager@@V?$allocator@UtagShopItemMovieInfo@ioShopItemExtraInfoManager@@@std@@@std@@@2@@Z PROC ; std::vector<ioShopItemExtraInfoManager::tagShopItemMovieInfo,std::allocator<ioShopItemExtraInfoManager::tagShopItemMovieInfo> >::_Make_iter, COMDAT
; _this$ = ecx

; 801  : 		{	// make iterator from const_iterator

  00000	55		 push	 ebp
  00001	8b ec		 mov	 ebp, esp

; 802  : 		return (iterator(_Where._Ptr, this));

  00003	8b 45 08	 mov	 eax, DWORD PTR ___$ReturnUdt$[ebp]
  00006	8b 4d 0c	 mov	 ecx, DWORD PTR __Where$[ebp]
  00009	89 08		 mov	 DWORD PTR [eax], ecx

; 803  : 		}

  0000b	5d		 pop	 ebp
  0000c	c2 08 00	 ret	 8
?_Make_iter@?$vector@UtagShopItemMovieInfo@ioShopItemExtraInfoManager@@V?$allocator@UtagShopItemMovieInfo@ioShopItemExtraInfoManager@@@std@@@std@@QBE?AV?$_Vector_iterator@V?$_Vector_val@UtagShopItemMovieInfo@ioShopItemExtraInfoManager@@V?$allocator@UtagShopItemMovieInfo@ioShopItemExtraInfoManager@@@std@@@std@@@2@V?$_Vector_const_iterator@V?$_Vector_val@UtagShopItemMovieInfo@ioShopItemExtraInfoManager@@V?$allocator@UtagShopItemMovieInfo@ioShopItemExtraInfoManager@@@std@@@std@@@2@@Z ENDP ; std::vector<ioShopItemExtraInfoManager::tagShopItemMovieInfo,std::allocator<ioShopItemExtraInfoManager::tagShopItemMovieInfo> >::_Make_iter
_TEXT	ENDS
PUBLIC	?_Make_iter@?$vector@UtagShopItemExtraInfo@ioShopItemExtraInfoManager@@V?$allocator@UtagShopItemExtraInfo@ioShopItemExtraInfoManager@@@std@@@std@@QBE?AV?$_Vector_iterator@V?$_Vector_val@UtagShopItemExtraInfo@ioShopItemExtraInfoManager@@V?$allocator@UtagShopItemExtraInfo@ioShopItemExtraInfoManager@@@std@@@std@@@2@V?$_Vector_const_iterator@V?$_Vector_val@UtagShopItemExtraInfo@ioShopItemExtraInfoManager@@V?$allocator@UtagShopItemExtraInfo@ioShopItemExtraInfoManager@@@std@@@std@@@2@@Z ; std::vector<ioShopItemExtraInfoManager::tagShopItemExtraInfo,std::allocator<ioShopItemExtraInfoManager::tagShopItemExtraInfo> >::_Make_iter
; Function compile flags: /Ogsp
;	COMDAT ?_Make_iter@?$vector@UtagShopItemExtraInfo@ioShopItemExtraInfoManager@@V?$allocator@UtagShopItemExtraInfo@ioShopItemExtraInfoManager@@@std@@@std@@QBE?AV?$_Vector_iterator@V?$_Vector_val@UtagShopItemExtraInfo@ioShopItemExtraInfoManager@@V?$allocator@UtagShopItemExtraInfo@ioShopItemExtraInfoManager@@@std@@@std@@@2@V?$_Vector_const_iterator@V?$_Vector_val@UtagShopItemExtraInfo@ioShopItemExtraInfoManager@@V?$allocator@UtagShopItemExtraInfo@ioShopItemExtraInfoManager@@@std@@@std@@@2@@Z
_TEXT	SEGMENT
___$ReturnUdt$ = 8					; size = 4
__Where$ = 12						; size = 4
?_Make_iter@?$vector@UtagShopItemExtraInfo@ioShopItemExtraInfoManager@@V?$allocator@UtagShopItemExtraInfo@ioShopItemExtraInfoManager@@@std@@@std@@QBE?AV?$_Vector_iterator@V?$_Vector_val@UtagShopItemExtraInfo@ioShopItemExtraInfoManager@@V?$allocator@UtagShopItemExtraInfo@ioShopItemExtraInfoManager@@@std@@@std@@@2@V?$_Vector_const_iterator@V?$_Vector_val@UtagShopItemExtraInfo@ioShopItemExtraInfoManager@@V?$allocator@UtagShopItemExtraInfo@ioShopItemExtraInfoManager@@@std@@@std@@@2@@Z PROC ; std::vector<ioShopItemExtraInfoManager::tagShopItemExtraInfo,std::allocator<ioShopItemExtraInfoManager::tagShopItemExtraInfo> >::_Make_iter, COMDAT
; _this$ = ecx

; 801  : 		{	// make iterator from const_iterator

  00000	55		 push	 ebp
  00001	8b ec		 mov	 ebp, esp

; 802  : 		return (iterator(_Where._Ptr, this));

  00003	8b 45 08	 mov	 eax, DWORD PTR ___$ReturnUdt$[ebp]
  00006	8b 4d 0c	 mov	 ecx, DWORD PTR __Where$[ebp]
  00009	89 08		 mov	 DWORD PTR [eax], ecx

; 803  : 		}

  0000b	5d		 pop	 ebp
  0000c	c2 08 00	 ret	 8
?_Make_iter@?$vector@UtagShopItemExtraInfo@ioShopItemExtraInfoManager@@V?$allocator@UtagShopItemExtraInfo@ioShopItemExtraInfoManager@@@std@@@std@@QBE?AV?$_Vector_iterator@V?$_Vector_val@UtagShopItemExtraInfo@ioShopItemExtraInfoManager@@V?$allocator@UtagShopItemExtraInfo@ioShopItemExtraInfoManager@@@std@@@std@@@2@V?$_Vector_const_iterator@V?$_Vector_val@UtagShopItemExtraInfo@ioShopItemExtraInfoManager@@V?$allocator@UtagShopItemExtraInfo@ioShopItemExtraInfoManager@@@std@@@std@@@2@@Z ENDP ; std::vector<ioShopItemExtraInfoManager::tagShopItemExtraInfo,std::allocator<ioShopItemExtraInfoManager::tagShopItemExtraInfo> >::_Make_iter
_TEXT	ENDS
PUBLIC	??9?$_Vector_const_iterator@V?$_Vector_val@UtagShopItemMovieInfo@ioShopItemExtraInfoManager@@V?$allocator@UtagShopItemMovieInfo@ioShopItemExtraInfoManager@@@std@@@std@@@std@@QBE_NABV01@@Z ; std::_Vector_const_iterator<std::_Vector_val<ioShopItemExtraInfoManager::tagShopItemMovieInfo,std::allocator<ioShopItemExtraInfoManager::tagShopItemMovieInfo> > >::operator!=
; Function compile flags: /Ogsp
;	COMDAT ??9?$_Vector_const_iterator@V?$_Vector_val@UtagShopItemMovieInfo@ioShopItemExtraInfoManager@@V?$allocator@UtagShopItemMovieInfo@ioShopItemExtraInfoManager@@@std@@@std@@@std@@QBE_NABV01@@Z
_TEXT	SEGMENT
__Right$ = 8						; size = 4
??9?$_Vector_const_iterator@V?$_Vector_val@UtagShopItemMovieInfo@ioShopItemExtraInfoManager@@V?$allocator@UtagShopItemMovieInfo@ioShopItemExtraInfoManager@@@std@@@std@@@std@@QBE_NABV01@@Z PROC ; std::_Vector_const_iterator<std::_Vector_val<ioShopItemExtraInfoManager::tagShopItemMovieInfo,std::allocator<ioShopItemExtraInfoManager::tagShopItemMovieInfo> > >::operator!=, COMDAT
; _this$ = ecx

; 207  : 		{	// test for iterator inequality

  00000	55		 push	 ebp
  00001	8b ec		 mov	 ebp, esp

; 208  : 		return (!(*this == _Right));

  00003	8b 01		 mov	 eax, DWORD PTR [ecx]
  00005	8b 55 08	 mov	 edx, DWORD PTR __Right$[ebp]
  00008	33 c9		 xor	 ecx, ecx
  0000a	3b 02		 cmp	 eax, DWORD PTR [edx]
  0000c	0f 95 c0	 setne	 al

; 209  : 		}

  0000f	5d		 pop	 ebp
  00010	c2 04 00	 ret	 4
??9?$_Vector_const_iterator@V?$_Vector_val@UtagShopItemMovieInfo@ioShopItemExtraInfoManager@@V?$allocator@UtagShopItemMovieInfo@ioShopItemExtraInfoManager@@@std@@@std@@@std@@QBE_NABV01@@Z ENDP ; std::_Vector_const_iterator<std::_Vector_val<ioShopItemExtraInfoManager::tagShopItemMovieInfo,std::allocator<ioShopItemExtraInfoManager::tagShopItemMovieInfo> > >::operator!=
_TEXT	ENDS
PUBLIC	??9?$_Vector_const_iterator@V?$_Vector_val@UtagShopItemExtraInfo@ioShopItemExtraInfoManager@@V?$allocator@UtagShopItemExtraInfo@ioShopItemExtraInfoManager@@@std@@@std@@@std@@QBE_NABV01@@Z ; std::_Vector_const_iterator<std::_Vector_val<ioShopItemExtraInfoManager::tagShopItemExtraInfo,std::allocator<ioShopItemExtraInfoManager::tagShopItemExtraInfo> > >::operator!=
; Function compile flags: /Ogsp
;	COMDAT ??9?$_Vector_const_iterator@V?$_Vector_val@UtagShopItemExtraInfo@ioShopItemExtraInfoManager@@V?$allocator@UtagShopItemExtraInfo@ioShopItemExtraInfoManager@@@std@@@std@@@std@@QBE_NABV01@@Z
_TEXT	SEGMENT
__Right$ = 8						; size = 4
??9?$_Vector_const_iterator@V?$_Vector_val@UtagShopItemExtraInfo@ioShopItemExtraInfoManager@@V?$allocator@UtagShopItemExtraInfo@ioShopItemExtraInfoManager@@@std@@@std@@@std@@QBE_NABV01@@Z PROC ; std::_Vector_const_iterator<std::_Vector_val<ioShopItemExtraInfoManager::tagShopItemExtraInfo,std::allocator<ioShopItemExtraInfoManager::tagShopItemExtraInfo> > >::operator!=, COMDAT
; _this$ = ecx

; 207  : 		{	// test for iterator inequality

  00000	55		 push	 ebp
  00001	8b ec		 mov	 ebp, esp

; 208  : 		return (!(*this == _Right));

  00003	8b 01		 mov	 eax, DWORD PTR [ecx]
  00005	8b 55 08	 mov	 edx, DWORD PTR __Right$[ebp]
  00008	33 c9		 xor	 ecx, ecx
  0000a	3b 02		 cmp	 eax, DWORD PTR [edx]
  0000c	0f 95 c0	 setne	 al

; 209  : 		}

  0000f	5d		 pop	 ebp
  00010	c2 04 00	 ret	 4
??9?$_Vector_const_iterator@V?$_Vector_val@UtagShopItemExtraInfo@ioShopItemExtraInfoManager@@V?$allocator@UtagShopItemExtraInfo@ioShopItemExtraInfoManager@@@std@@@std@@@std@@QBE_NABV01@@Z ENDP ; std::_Vector_const_iterator<std::_Vector_val<ioShopItemExtraInfoManager::tagShopItemExtraInfo,std::allocator<ioShopItemExtraInfoManager::tagShopItemExtraInfo> > >::operator!=
_TEXT	ENDS
PUBLIC	??$?0$0CE@@ioINILoader_e@@QAE@AAY0CE@$$CBD_N@Z	; ioINILoader_e::ioINILoader_e<36>
EXTRN	__imp_??0ioINILoader@@QAE@PBD_N@Z:PROC
; Function compile flags: /Ogsp
; File d:\lost saga for developer\youtube\tutorial\source\src\io3dengine\ioiniloader.h
;	COMDAT ??$?0$0CE@@ioINILoader_e@@QAE@AAY0CE@$$CBD_N@Z
_TEXT	SEGMENT
_fn$ = 8						; size = 4
_b$ = 12						; size = 1
??$?0$0CE@@ioINILoader_e@@QAE@AAY0CE@$$CBD_N@Z PROC	; ioINILoader_e::ioINILoader_e<36>, COMDAT
; _this$ = ecx

; 224  : 	{

  00000	55		 push	 ebp
  00001	8b ec		 mov	 ebp, esp
  00003	53		 push	 ebx
  00004	56		 push	 esi
  00005	57		 push	 edi
  00006	8b f9		 mov	 edi, ecx
  00008	8b 4d 08	 mov	 ecx, DWORD PTR _fn$[ebp]
  0000b	8a 11		 mov	 dl, BYTE PTR [ecx]
  0000d	8d 87 50 03 00
	00		 lea	 eax, DWORD PTR [edi+848]
  00013	84 d2		 test	 dl, dl
  00015	0f 84 6a 04 00
	00		 je	 $LN99@ioINILoade
  0001b	80 f2 ed	 xor	 dl, -19			; ffffffedH
  0001e	88 10		 mov	 BYTE PTR [eax], dl
  00020	8a 51 01	 mov	 dl, BYTE PTR [ecx+1]
  00023	84 d2		 test	 dl, dl
  00025	0f 84 54 04 00
	00		 je	 $LN98@ioINILoade
  0002b	80 f2 ec	 xor	 dl, -20			; ffffffecH
  0002e	88 50 01	 mov	 BYTE PTR [eax+1], dl
  00031	8a 51 02	 mov	 dl, BYTE PTR [ecx+2]
  00034	84 d2		 test	 dl, dl
  00036	0f 84 3d 04 00
	00		 je	 $LN97@ioINILoade
  0003c	b3 eb		 mov	 bl, -21			; ffffffebH
  0003e	32 d3		 xor	 dl, bl
  00040	88 50 02	 mov	 BYTE PTR [eax+2], dl
  00043	8a 51 03	 mov	 dl, BYTE PTR [ecx+3]
  00046	84 d2		 test	 dl, dl
  00048	0f 84 25 04 00
	00		 je	 $LN96@ioINILoade
  0004e	80 f2 ea	 xor	 dl, -22			; ffffffeaH
  00051	88 50 03	 mov	 BYTE PTR [eax+3], dl
  00054	8a 51 04	 mov	 dl, BYTE PTR [ecx+4]
  00057	84 d2		 test	 dl, dl
  00059	0f 84 0e 04 00
	00		 je	 $LN95@ioINILoade
  0005f	80 f2 ed	 xor	 dl, -19			; ffffffedH
  00062	88 50 04	 mov	 BYTE PTR [eax+4], dl
  00065	8a 51 05	 mov	 dl, BYTE PTR [ecx+5]
  00068	84 d2		 test	 dl, dl
  0006a	0f 84 f7 03 00
	00		 je	 $LN94@ioINILoade
  00070	80 f2 ec	 xor	 dl, -20			; ffffffecH
  00073	88 50 05	 mov	 BYTE PTR [eax+5], dl
  00076	8a 51 06	 mov	 dl, BYTE PTR [ecx+6]
  00079	84 d2		 test	 dl, dl
  0007b	0f 84 e1 03 00
	00		 je	 $LN93@ioINILoade
  00081	32 d3		 xor	 dl, bl
  00083	88 50 06	 mov	 BYTE PTR [eax+6], dl
  00086	8a 51 07	 mov	 dl, BYTE PTR [ecx+7]
  00089	84 d2		 test	 dl, dl
  0008b	0f 84 cb 03 00
	00		 je	 $LN92@ioINILoade
  00091	80 f2 ea	 xor	 dl, -22			; ffffffeaH
  00094	88 50 07	 mov	 BYTE PTR [eax+7], dl
  00097	8a 51 08	 mov	 dl, BYTE PTR [ecx+8]
  0009a	84 d2		 test	 dl, dl
  0009c	0f 84 b4 03 00
	00		 je	 $LN91@ioINILoade
  000a2	80 f2 ed	 xor	 dl, -19			; ffffffedH
  000a5	88 50 08	 mov	 BYTE PTR [eax+8], dl
  000a8	8a 51 09	 mov	 dl, BYTE PTR [ecx+9]
  000ab	84 d2		 test	 dl, dl
  000ad	0f 84 9d 03 00
	00		 je	 $LN90@ioINILoade
  000b3	80 f2 ec	 xor	 dl, -20			; ffffffecH
  000b6	88 50 09	 mov	 BYTE PTR [eax+9], dl
  000b9	8a 51 0a	 mov	 dl, BYTE PTR [ecx+10]
  000bc	84 d2		 test	 dl, dl
  000be	0f 84 87 03 00
	00		 je	 $LN89@ioINILoade
  000c4	32 d3		 xor	 dl, bl
  000c6	88 50 0a	 mov	 BYTE PTR [eax+10], dl
  000c9	8a 51 0b	 mov	 dl, BYTE PTR [ecx+11]
  000cc	84 d2		 test	 dl, dl
  000ce	0f 84 71 03 00
	00		 je	 $LN88@ioINILoade
  000d4	80 f2 ea	 xor	 dl, -22			; ffffffeaH
  000d7	88 50 0b	 mov	 BYTE PTR [eax+11], dl
  000da	8a 51 0c	 mov	 dl, BYTE PTR [ecx+12]
  000dd	84 d2		 test	 dl, dl
  000df	0f 84 5a 03 00
	00		 je	 $LN87@ioINILoade
  000e5	80 f2 ed	 xor	 dl, -19			; ffffffedH
  000e8	88 50 0c	 mov	 BYTE PTR [eax+12], dl
  000eb	8a 51 0d	 mov	 dl, BYTE PTR [ecx+13]
  000ee	84 d2		 test	 dl, dl
  000f0	0f 84 43 03 00
	00		 je	 $LN86@ioINILoade
  000f6	80 f2 ec	 xor	 dl, -20			; ffffffecH
  000f9	88 50 0d	 mov	 BYTE PTR [eax+13], dl
  000fc	8a 51 0e	 mov	 dl, BYTE PTR [ecx+14]
  000ff	84 d2		 test	 dl, dl
  00101	0f 84 2d 03 00
	00		 je	 $LN85@ioINILoade
  00107	32 d3		 xor	 dl, bl
  00109	88 50 0e	 mov	 BYTE PTR [eax+14], dl
  0010c	8a 51 0f	 mov	 dl, BYTE PTR [ecx+15]
  0010f	84 d2		 test	 dl, dl
  00111	0f 84 17 03 00
	00		 je	 $LN84@ioINILoade
  00117	80 f2 ea	 xor	 dl, -22			; ffffffeaH
  0011a	88 50 0f	 mov	 BYTE PTR [eax+15], dl
  0011d	8a 51 10	 mov	 dl, BYTE PTR [ecx+16]
  00120	84 d2		 test	 dl, dl
  00122	0f 84 00 03 00
	00		 je	 $LN83@ioINILoade
  00128	80 f2 ed	 xor	 dl, -19			; ffffffedH
  0012b	88 50 10	 mov	 BYTE PTR [eax+16], dl
  0012e	8a 51 11	 mov	 dl, BYTE PTR [ecx+17]
  00131	84 d2		 test	 dl, dl
  00133	0f 84 e9 02 00
	00		 je	 $LN82@ioINILoade
  00139	80 f2 ec	 xor	 dl, -20			; ffffffecH
  0013c	88 50 11	 mov	 BYTE PTR [eax+17], dl
  0013f	8a 51 12	 mov	 dl, BYTE PTR [ecx+18]
  00142	84 d2		 test	 dl, dl
  00144	0f 84 d3 02 00
	00		 je	 $LN81@ioINILoade
  0014a	32 d3		 xor	 dl, bl
  0014c	88 50 12	 mov	 BYTE PTR [eax+18], dl
  0014f	8a 51 13	 mov	 dl, BYTE PTR [ecx+19]
  00152	84 d2		 test	 dl, dl
  00154	0f 84 bd 02 00
	00		 je	 $LN80@ioINILoade
  0015a	80 f2 ea	 xor	 dl, -22			; ffffffeaH
  0015d	88 50 13	 mov	 BYTE PTR [eax+19], dl
  00160	8a 51 14	 mov	 dl, BYTE PTR [ecx+20]
  00163	84 d2		 test	 dl, dl
  00165	0f 84 a6 02 00
	00		 je	 $LN79@ioINILoade
  0016b	80 f2 ed	 xor	 dl, -19			; ffffffedH
  0016e	88 50 14	 mov	 BYTE PTR [eax+20], dl
  00171	8a 51 15	 mov	 dl, BYTE PTR [ecx+21]
  00174	84 d2		 test	 dl, dl
  00176	0f 84 8f 02 00
	00		 je	 $LN78@ioINILoade
  0017c	80 f2 ec	 xor	 dl, -20			; ffffffecH
  0017f	88 50 15	 mov	 BYTE PTR [eax+21], dl
  00182	8a 51 16	 mov	 dl, BYTE PTR [ecx+22]
  00185	84 d2		 test	 dl, dl
  00187	0f 84 79 02 00
	00		 je	 $LN77@ioINILoade
  0018d	32 d3		 xor	 dl, bl
  0018f	88 50 16	 mov	 BYTE PTR [eax+22], dl
  00192	8a 51 17	 mov	 dl, BYTE PTR [ecx+23]
  00195	84 d2		 test	 dl, dl
  00197	0f 84 60 02 00
	00		 je	 $LN76@ioINILoade
  0019d	80 f2 ea	 xor	 dl, -22			; ffffffeaH
  001a0	88 50 17	 mov	 BYTE PTR [eax+23], dl
  001a3	8a 51 18	 mov	 dl, BYTE PTR [ecx+24]
  001a6	84 d2		 test	 dl, dl
  001a8	0f 84 46 02 00
	00		 je	 $LN75@ioINILoade
  001ae	80 f2 ed	 xor	 dl, -19			; ffffffedH
  001b1	88 50 18	 mov	 BYTE PTR [eax+24], dl
  001b4	8a 51 19	 mov	 dl, BYTE PTR [ecx+25]
  001b7	84 d2		 test	 dl, dl
  001b9	0f 84 2c 02 00
	00		 je	 $LN74@ioINILoade
  001bf	80 f2 ec	 xor	 dl, -20			; ffffffecH
  001c2	88 50 19	 mov	 BYTE PTR [eax+25], dl
  001c5	8a 51 1a	 mov	 dl, BYTE PTR [ecx+26]
  001c8	84 d2		 test	 dl, dl
  001ca	0f 84 13 02 00
	00		 je	 $LN73@ioINILoade
  001d0	32 d3		 xor	 dl, bl
  001d2	88 50 1a	 mov	 BYTE PTR [eax+26], dl
  001d5	8a 51 1b	 mov	 dl, BYTE PTR [ecx+27]
  001d8	84 d2		 test	 dl, dl
  001da	0f 84 fa 01 00
	00		 je	 $LN72@ioINILoade
  001e0	80 f2 ea	 xor	 dl, -22			; ffffffeaH
  001e3	88 50 1b	 mov	 BYTE PTR [eax+27], dl
  001e6	8a 51 1c	 mov	 dl, BYTE PTR [ecx+28]
  001e9	84 d2		 test	 dl, dl
  001eb	0f 84 e0 01 00
	00		 je	 $LN71@ioINILoade
  001f1	80 f2 ed	 xor	 dl, -19			; ffffffedH
  001f4	88 50 1c	 mov	 BYTE PTR [eax+28], dl
  001f7	8a 51 1d	 mov	 dl, BYTE PTR [ecx+29]
  001fa	84 d2		 test	 dl, dl
  001fc	0f 84 c6 01 00
	00		 je	 $LN70@ioINILoade
  00202	80 f2 ec	 xor	 dl, -20			; ffffffecH
  00205	88 50 1d	 mov	 BYTE PTR [eax+29], dl
  00208	8a 51 1e	 mov	 dl, BYTE PTR [ecx+30]
  0020b	84 d2		 test	 dl, dl
  0020d	0f 84 ad 01 00
	00		 je	 $LN69@ioINILoade
  00213	32 d3		 xor	 dl, bl
  00215	88 50 1e	 mov	 BYTE PTR [eax+30], dl
  00218	8a 51 1f	 mov	 dl, BYTE PTR [ecx+31]
  0021b	84 d2		 test	 dl, dl
  0021d	0f 84 94 01 00
	00		 je	 $LN68@ioINILoade
  00223	80 f2 ea	 xor	 dl, -22			; ffffffeaH
  00226	88 50 1f	 mov	 BYTE PTR [eax+31], dl
  00229	8a 51 20	 mov	 dl, BYTE PTR [ecx+32]
  0022c	84 d2		 test	 dl, dl
  0022e	0f 84 7a 01 00
	00		 je	 $LN67@ioINILoade
  00234	80 f2 ed	 xor	 dl, -19			; ffffffedH
  00237	88 50 20	 mov	 BYTE PTR [eax+32], dl
  0023a	8a 51 21	 mov	 dl, BYTE PTR [ecx+33]
  0023d	84 d2		 test	 dl, dl
  0023f	0f 84 60 01 00
	00		 je	 $LN66@ioINILoade
  00245	80 f2 ec	 xor	 dl, -20			; ffffffecH
  00248	88 50 21	 mov	 BYTE PTR [eax+33], dl
  0024b	8a 51 22	 mov	 dl, BYTE PTR [ecx+34]
  0024e	84 d2		 test	 dl, dl
  00250	0f 84 47 01 00
	00		 je	 $LN65@ioINILoade
  00256	32 d3		 xor	 dl, bl
  00258	88 50 22	 mov	 BYTE PTR [eax+34], dl
  0025b	8a 51 23	 mov	 dl, BYTE PTR [ecx+35]
  0025e	84 d2		 test	 dl, dl
  00260	0f 84 2e 01 00
	00		 je	 $LN64@ioINILoade
  00266	80 f2 ea	 xor	 dl, -22			; ffffffeaH
  00269	88 50 23	 mov	 BYTE PTR [eax+35], dl
  0026c	8a 51 24	 mov	 dl, BYTE PTR [ecx+36]
  0026f	84 d2		 test	 dl, dl
  00271	0f 84 14 01 00
	00		 je	 $LN63@ioINILoade
  00277	80 f2 ed	 xor	 dl, -19			; ffffffedH
  0027a	88 50 24	 mov	 BYTE PTR [eax+36], dl
  0027d	8a 51 25	 mov	 dl, BYTE PTR [ecx+37]
  00280	84 d2		 test	 dl, dl
  00282	0f 84 fa 00 00
	00		 je	 $LN62@ioINILoade
  00288	80 f2 ec	 xor	 dl, -20			; ffffffecH
  0028b	88 50 25	 mov	 BYTE PTR [eax+37], dl
  0028e	8a 51 26	 mov	 dl, BYTE PTR [ecx+38]
  00291	84 d2		 test	 dl, dl
  00293	0f 84 e1 00 00
	00		 je	 $LN61@ioINILoade
  00299	32 d3		 xor	 dl, bl
  0029b	88 50 26	 mov	 BYTE PTR [eax+38], dl
  0029e	8a 51 27	 mov	 dl, BYTE PTR [ecx+39]
  002a1	84 d2		 test	 dl, dl
  002a3	0f 84 c8 00 00
	00		 je	 $LN60@ioINILoade
  002a9	80 f2 ea	 xor	 dl, -22			; ffffffeaH
  002ac	88 50 27	 mov	 BYTE PTR [eax+39], dl
  002af	8a 51 28	 mov	 dl, BYTE PTR [ecx+40]
  002b2	84 d2		 test	 dl, dl
  002b4	0f 84 ae 00 00
	00		 je	 $LN59@ioINILoade
  002ba	80 f2 ed	 xor	 dl, -19			; ffffffedH
  002bd	88 50 28	 mov	 BYTE PTR [eax+40], dl
  002c0	8a 51 29	 mov	 dl, BYTE PTR [ecx+41]
  002c3	84 d2		 test	 dl, dl
  002c5	0f 84 94 00 00
	00		 je	 $LN58@ioINILoade
  002cb	80 f2 ec	 xor	 dl, -20			; ffffffecH
  002ce	88 50 29	 mov	 BYTE PTR [eax+41], dl
  002d1	8a 51 2a	 mov	 dl, BYTE PTR [ecx+42]
  002d4	84 d2		 test	 dl, dl
  002d6	74 7f		 je	 SHORT $LN57@ioINILoade
  002d8	32 d3		 xor	 dl, bl
  002da	88 50 2a	 mov	 BYTE PTR [eax+42], dl
  002dd	8a 51 2b	 mov	 dl, BYTE PTR [ecx+43]
  002e0	84 d2		 test	 dl, dl
  002e2	74 6a		 je	 SHORT $LN56@ioINILoade
  002e4	80 f2 ea	 xor	 dl, -22			; ffffffeaH
  002e7	88 50 2b	 mov	 BYTE PTR [eax+43], dl
  002ea	8a 51 2c	 mov	 dl, BYTE PTR [ecx+44]
  002ed	84 d2		 test	 dl, dl
  002ef	74 54		 je	 SHORT $LN55@ioINILoade
  002f1	80 f2 ed	 xor	 dl, -19			; ffffffedH
  002f4	88 50 2c	 mov	 BYTE PTR [eax+44], dl
  002f7	8a 51 2d	 mov	 dl, BYTE PTR [ecx+45]
  002fa	84 d2		 test	 dl, dl
  002fc	74 3e		 je	 SHORT $LN54@ioINILoade
  002fe	80 f2 ec	 xor	 dl, -20			; ffffffecH
  00301	88 50 2d	 mov	 BYTE PTR [eax+45], dl
  00304	8a 51 2e	 mov	 dl, BYTE PTR [ecx+46]
  00307	84 d2		 test	 dl, dl
  00309	74 29		 je	 SHORT $LN53@ioINILoade
  0030b	32 d3		 xor	 dl, bl
  0030d	88 50 2e	 mov	 BYTE PTR [eax+46], dl
  00310	8a 51 2f	 mov	 dl, BYTE PTR [ecx+47]
  00313	84 d2		 test	 dl, dl
  00315	74 14		 je	 SHORT $LN52@ioINILoade
  00317	80 f2 ea	 xor	 dl, -22			; ffffffeaH
  0031a	88 50 2f	 mov	 BYTE PTR [eax+47], dl
  0031d	8a 49 30	 mov	 cl, BYTE PTR [ecx+48]
  00320	80 f1 ed	 xor	 cl, -19			; ffffffedH
  00323	88 48 30	 mov	 BYTE PTR [eax+48], cl
  00326	e9 5d 01 00 00	 jmp	 $LN4@ioINILoade
$LN52@ioINILoade:
  0032b	c6 40 2f ea	 mov	 BYTE PTR [eax+47], -22	; ffffffeaH
  0032f	e9 54 01 00 00	 jmp	 $LN4@ioINILoade
$LN53@ioINILoade:
  00334	88 58 2e	 mov	 BYTE PTR [eax+46], bl
  00337	e9 4c 01 00 00	 jmp	 $LN4@ioINILoade
$LN54@ioINILoade:
  0033c	c6 40 2d ec	 mov	 BYTE PTR [eax+45], -20	; ffffffecH
  00340	e9 43 01 00 00	 jmp	 $LN4@ioINILoade
$LN55@ioINILoade:
  00345	c6 40 2c ed	 mov	 BYTE PTR [eax+44], -19	; ffffffedH
  00349	e9 3a 01 00 00	 jmp	 $LN4@ioINILoade
$LN56@ioINILoade:
  0034e	c6 40 2b ea	 mov	 BYTE PTR [eax+43], -22	; ffffffeaH
  00352	e9 31 01 00 00	 jmp	 $LN4@ioINILoade
$LN57@ioINILoade:
  00357	88 58 2a	 mov	 BYTE PTR [eax+42], bl
  0035a	e9 29 01 00 00	 jmp	 $LN4@ioINILoade
$LN58@ioINILoade:
  0035f	c6 40 29 ec	 mov	 BYTE PTR [eax+41], -20	; ffffffecH
  00363	e9 20 01 00 00	 jmp	 $LN4@ioINILoade
$LN59@ioINILoade:
  00368	c6 40 28 ed	 mov	 BYTE PTR [eax+40], -19	; ffffffedH
  0036c	e9 17 01 00 00	 jmp	 $LN4@ioINILoade
$LN60@ioINILoade:
  00371	c6 40 27 ea	 mov	 BYTE PTR [eax+39], -22	; ffffffeaH
  00375	e9 0e 01 00 00	 jmp	 $LN4@ioINILoade
$LN61@ioINILoade:
  0037a	88 58 26	 mov	 BYTE PTR [eax+38], bl
  0037d	e9 06 01 00 00	 jmp	 $LN4@ioINILoade
$LN62@ioINILoade:
  00382	c6 40 25 ec	 mov	 BYTE PTR [eax+37], -20	; ffffffecH
  00386	e9 fd 00 00 00	 jmp	 $LN4@ioINILoade
$LN63@ioINILoade:
  0038b	c6 40 24 ed	 mov	 BYTE PTR [eax+36], -19	; ffffffedH
  0038f	e9 f4 00 00 00	 jmp	 $LN4@ioINILoade
$LN64@ioINILoade:
  00394	c6 40 23 ea	 mov	 BYTE PTR [eax+35], -22	; ffffffeaH
  00398	e9 eb 00 00 00	 jmp	 $LN4@ioINILoade
$LN65@ioINILoade:
  0039d	88 58 22	 mov	 BYTE PTR [eax+34], bl
  003a0	e9 e3 00 00 00	 jmp	 $LN4@ioINILoade
$LN66@ioINILoade:
  003a5	c6 40 21 ec	 mov	 BYTE PTR [eax+33], -20	; ffffffecH
  003a9	e9 da 00 00 00	 jmp	 $LN4@ioINILoade
$LN67@ioINILoade:
  003ae	c6 40 20 ed	 mov	 BYTE PTR [eax+32], -19	; ffffffedH
  003b2	e9 d1 00 00 00	 jmp	 $LN4@ioINILoade
$LN68@ioINILoade:
  003b7	c6 40 1f ea	 mov	 BYTE PTR [eax+31], -22	; ffffffeaH
  003bb	e9 c8 00 00 00	 jmp	 $LN4@ioINILoade
$LN69@ioINILoade:
  003c0	88 58 1e	 mov	 BYTE PTR [eax+30], bl
  003c3	e9 c0 00 00 00	 jmp	 $LN4@ioINILoade
$LN70@ioINILoade:
  003c8	c6 40 1d ec	 mov	 BYTE PTR [eax+29], -20	; ffffffecH
  003cc	e9 b7 00 00 00	 jmp	 $LN4@ioINILoade
$LN71@ioINILoade:
  003d1	c6 40 1c ed	 mov	 BYTE PTR [eax+28], -19	; ffffffedH
  003d5	e9 ae 00 00 00	 jmp	 $LN4@ioINILoade
$LN72@ioINILoade:
  003da	c6 40 1b ea	 mov	 BYTE PTR [eax+27], -22	; ffffffeaH
  003de	e9 a5 00 00 00	 jmp	 $LN4@ioINILoade
$LN73@ioINILoade:
  003e3	88 58 1a	 mov	 BYTE PTR [eax+26], bl
  003e6	e9 9d 00 00 00	 jmp	 $LN4@ioINILoade
$LN74@ioINILoade:
  003eb	c6 40 19 ec	 mov	 BYTE PTR [eax+25], -20	; ffffffecH
  003ef	e9 94 00 00 00	 jmp	 $LN4@ioINILoade
$LN75@ioINILoade:
  003f4	c6 40 18 ed	 mov	 BYTE PTR [eax+24], -19	; ffffffedH
  003f8	e9 8b 00 00 00	 jmp	 $LN4@ioINILoade
$LN76@ioINILoade:
  003fd	c6 40 17 ea	 mov	 BYTE PTR [eax+23], -22	; ffffffeaH
  00401	e9 82 00 00 00	 jmp	 $LN4@ioINILoade
$LN77@ioINILoade:
  00406	88 58 16	 mov	 BYTE PTR [eax+22], bl
  00409	eb 7d		 jmp	 SHORT $LN4@ioINILoade
$LN78@ioINILoade:
  0040b	c6 40 15 ec	 mov	 BYTE PTR [eax+21], -20	; ffffffecH
  0040f	eb 77		 jmp	 SHORT $LN4@ioINILoade
$LN79@ioINILoade:
  00411	c6 40 14 ed	 mov	 BYTE PTR [eax+20], -19	; ffffffedH
  00415	eb 71		 jmp	 SHORT $LN4@ioINILoade
$LN80@ioINILoade:
  00417	c6 40 13 ea	 mov	 BYTE PTR [eax+19], -22	; ffffffeaH
  0041b	eb 6b		 jmp	 SHORT $LN4@ioINILoade
$LN81@ioINILoade:
  0041d	88 58 12	 mov	 BYTE PTR [eax+18], bl
  00420	eb 66		 jmp	 SHORT $LN4@ioINILoade
$LN82@ioINILoade:
  00422	c6 40 11 ec	 mov	 BYTE PTR [eax+17], -20	; ffffffecH
  00426	eb 60		 jmp	 SHORT $LN4@ioINILoade
$LN83@ioINILoade:
  00428	c6 40 10 ed	 mov	 BYTE PTR [eax+16], -19	; ffffffedH
  0042c	eb 5a		 jmp	 SHORT $LN4@ioINILoade
$LN84@ioINILoade:
  0042e	c6 40 0f ea	 mov	 BYTE PTR [eax+15], -22	; ffffffeaH
  00432	eb 54		 jmp	 SHORT $LN4@ioINILoade
$LN85@ioINILoade:
  00434	88 58 0e	 mov	 BYTE PTR [eax+14], bl
  00437	eb 4f		 jmp	 SHORT $LN4@ioINILoade
$LN86@ioINILoade:
  00439	c6 40 0d ec	 mov	 BYTE PTR [eax+13], -20	; ffffffecH
  0043d	eb 49		 jmp	 SHORT $LN4@ioINILoade
$LN87@ioINILoade:
  0043f	c6 40 0c ed	 mov	 BYTE PTR [eax+12], -19	; ffffffedH
  00443	eb 43		 jmp	 SHORT $LN4@ioINILoade
$LN88@ioINILoade:
  00445	c6 40 0b ea	 mov	 BYTE PTR [eax+11], -22	; ffffffeaH
  00449	eb 3d		 jmp	 SHORT $LN4@ioINILoade
$LN89@ioINILoade:
  0044b	88 58 0a	 mov	 BYTE PTR [eax+10], bl
  0044e	eb 38		 jmp	 SHORT $LN4@ioINILoade
$LN90@ioINILoade:
  00450	c6 40 09 ec	 mov	 BYTE PTR [eax+9], -20	; ffffffecH
  00454	eb 32		 jmp	 SHORT $LN4@ioINILoade
$LN91@ioINILoade:
  00456	c6 40 08 ed	 mov	 BYTE PTR [eax+8], -19	; ffffffedH
  0045a	eb 2c		 jmp	 SHORT $LN4@ioINILoade
$LN92@ioINILoade:
  0045c	c6 40 07 ea	 mov	 BYTE PTR [eax+7], -22	; ffffffeaH
  00460	eb 26		 jmp	 SHORT $LN4@ioINILoade
$LN93@ioINILoade:
  00462	88 58 06	 mov	 BYTE PTR [eax+6], bl
  00465	eb 21		 jmp	 SHORT $LN4@ioINILoade
$LN94@ioINILoade:
  00467	c6 40 05 ec	 mov	 BYTE PTR [eax+5], -20	; ffffffecH
  0046b	eb 1b		 jmp	 SHORT $LN4@ioINILoade
$LN95@ioINILoade:
  0046d	c6 40 04 ed	 mov	 BYTE PTR [eax+4], -19	; ffffffedH
  00471	eb 15		 jmp	 SHORT $LN4@ioINILoade
$LN96@ioINILoade:
  00473	c6 40 03 ea	 mov	 BYTE PTR [eax+3], -22	; ffffffeaH
  00477	eb 0f		 jmp	 SHORT $LN4@ioINILoade
$LN97@ioINILoade:
  00479	c6 40 02 eb	 mov	 BYTE PTR [eax+2], -21	; ffffffebH
  0047d	eb 09		 jmp	 SHORT $LN4@ioINILoade
$LN98@ioINILoade:
  0047f	c6 40 01 ec	 mov	 BYTE PTR [eax+1], -20	; ffffffecH
  00483	eb 03		 jmp	 SHORT $LN4@ioINILoade
$LN99@ioINILoade:
  00485	c6 00 ed	 mov	 BYTE PTR [eax], -19	; ffffffedH
$LN4@ioINILoade:
  00488	6a 08		 push	 8
  0048a	8b c8		 mov	 ecx, eax
  0048c	c6 40 23 00	 mov	 BYTE PTR [eax+35], 0
  00490	5a		 pop	 edx
$LL107@ioINILoade:
  00491	81 31 ed ec eb
	ea		 xor	 DWORD PTR [ecx], -353637139 ; eaebecedH
  00497	83 c1 04	 add	 ecx, 4
  0049a	4a		 dec	 edx
  0049b	75 f4		 jne	 SHORT $LL107@ioINILoade
  0049d	6a 20		 push	 32			; 00000020H
  0049f	5e		 pop	 esi
$LL104@ioINILoade:
  004a0	8b ce		 mov	 ecx, esi
  004a2	81 e1 03 00 00
	80		 and	 ecx, -2147483645	; 80000003H
  004a8	79 05		 jns	 SHORT $LN114@ioINILoade
  004aa	49		 dec	 ecx
  004ab	83 c9 fc	 or	 ecx, -4			; fffffffcH
  004ae	41		 inc	 ecx
$LN114@ioINILoade:
  004af	b2 ed		 mov	 dl, -19			; ffffffedH
  004b1	2a d1		 sub	 dl, cl
  004b3	30 14 06	 xor	 BYTE PTR [esi+eax], dl
  004b6	46		 inc	 esi
  004b7	83 fe 23	 cmp	 esi, 35			; 00000023H
  004ba	7c e4		 jl	 SHORT $LL104@ioINILoade
  004bc	ff 75 0c	 push	 DWORD PTR _b$[ebp]
  004bf	8b cf		 mov	 ecx, edi
  004c1	50		 push	 eax
  004c2	ff 15 00 00 00
	00		 call	 DWORD PTR __imp_??0ioINILoader@@QAE@PBD_N@Z

; 225  : 	}

  004c8	8b c7		 mov	 eax, edi
  004ca	5f		 pop	 edi
  004cb	5e		 pop	 esi
  004cc	5b		 pop	 ebx
  004cd	5d		 pop	 ebp
  004ce	c2 08 00	 ret	 8
??$?0$0CE@@ioINILoader_e@@QAE@AAY0CE@$$CBD_N@Z ENDP	; ioINILoader_e::ioINILoader_e<36>
_TEXT	ENDS
PUBLIC	??$_Cons_val@V?$allocator@H@std@@HAAH@std@@YAXAAV?$allocator@H@0@PAHAAH@Z ; std::_Cons_val<std::allocator<int>,int,int &>
; Function compile flags: /Ogsp
; File c:\program files (x86)\microsoft visual studio 10.0\vc\include\xmemory
;	COMDAT ??$_Cons_val@V?$allocator@H@std@@HAAH@std@@YAXAAV?$allocator@H@0@PAHAAH@Z
_TEXT	SEGMENT
__Alval$ = 8						; size = 4
__Pdest$ = 12						; size = 4
__Src$ = 16						; size = 4
??$_Cons_val@V?$allocator@H@std@@HAAH@std@@YAXAAV?$allocator@H@0@PAHAAH@Z PROC ; std::_Cons_val<std::allocator<int>,int,int &>, COMDAT

; 279  : 	{	// construct using allocator

  00000	55		 push	 ebp
  00001	8b ec		 mov	 ebp, esp

; 280  : 	_Alval.construct(_Pdest, _STD forward<_Ty2>(_Src));

  00003	8b 45 0c	 mov	 eax, DWORD PTR __Pdest$[ebp]
  00006	85 c0		 test	 eax, eax
  00008	74 07		 je	 SHORT $LN7@Cons_val
  0000a	8b 4d 10	 mov	 ecx, DWORD PTR __Src$[ebp]
  0000d	8b 09		 mov	 ecx, DWORD PTR [ecx]
  0000f	89 08		 mov	 DWORD PTR [eax], ecx
$LN7@Cons_val:

; 281  : 	}

  00011	5d		 pop	 ebp
  00012	c3		 ret	 0
??$_Cons_val@V?$allocator@H@std@@HAAH@std@@YAXAAV?$allocator@H@0@PAHAAH@Z ENDP ; std::_Cons_val<std::allocator<int>,int,int &>
_TEXT	ENDS
PUBLIC	??$_Cons_val@V?$allocator@H@std@@HABH@std@@YAXAAV?$allocator@H@0@PAHABH@Z ; std::_Cons_val<std::allocator<int>,int,int const &>
; Function compile flags: /Ogsp
;	COMDAT ??$_Cons_val@V?$allocator@H@std@@HABH@std@@YAXAAV?$allocator@H@0@PAHABH@Z
_TEXT	SEGMENT
__Alval$ = 8						; size = 4
__Pdest$ = 12						; size = 4
__Src$ = 16						; size = 4
??$_Cons_val@V?$allocator@H@std@@HABH@std@@YAXAAV?$allocator@H@0@PAHABH@Z PROC ; std::_Cons_val<std::allocator<int>,int,int const &>, COMDAT

; 279  : 	{	// construct using allocator

  00000	55		 push	 ebp
  00001	8b ec		 mov	 ebp, esp

; 280  : 	_Alval.construct(_Pdest, _STD forward<_Ty2>(_Src));

  00003	8b 45 0c	 mov	 eax, DWORD PTR __Pdest$[ebp]
  00006	85 c0		 test	 eax, eax
  00008	74 07		 je	 SHORT $LN9@Cons_val@2
  0000a	8b 4d 10	 mov	 ecx, DWORD PTR __Src$[ebp]
  0000d	8b 09		 mov	 ecx, DWORD PTR [ecx]
  0000f	89 08		 mov	 DWORD PTR [eax], ecx
$LN9@Cons_val@2:

; 281  : 	}

  00011	5d		 pop	 ebp
  00012	c3		 ret	 0
??$_Cons_val@V?$allocator@H@std@@HABH@std@@YAXAAV?$allocator@H@0@PAHABH@Z ENDP ; std::_Cons_val<std::allocator<int>,int,int const &>
_TEXT	ENDS
PUBLIC	??$_Cons_val@V?$allocator@UtagShopItemMovieInfo@ioShopItemExtraInfoManager@@@std@@UtagShopItemMovieInfo@ioShopItemExtraInfoManager@@AAU34@@std@@YAXAAV?$allocator@UtagShopItemMovieInfo@ioShopItemExtraInfoManager@@@0@PAUtagShopItemMovieInfo@ioShopItemExtraInfoManager@@AAU23@@Z ; std::_Cons_val<std::allocator<ioShopItemExtraInfoManager::tagShopItemMovieInfo>,ioShopItemExtraInfoManager::tagShopItemMovieInfo,ioShopItemExtraInfoManager::tagShopItemMovieInfo &>
;	COMDAT xdata$x
; File c:\program files (x86)\microsoft visual studio 10.0\vc\include\utility
xdata$x	SEGMENT
__unwindtable$??$_Cons_val@V?$allocator@UtagShopItemMovieInfo@ioShopItemExtraInfoManager@@@std@@UtagShopItemMovieInfo@ioShopItemExtraInfoManager@@AAU34@@std@@YAXAAV?$allocator@UtagShopItemMovieInfo@ioShopItemExtraInfoManager@@@0@PAUtagShopItemMovieInfo@ioShopItemExtraInfoManager@@AAU23@@Z DD 0ffffffffH
	DD	FLAT:__unwindfunclet$??$_Cons_val@V?$allocator@UtagShopItemMovieInfo@ioShopItemExtraInfoManager@@@std@@UtagShopItemMovieInfo@ioShopItemExtraInfoManager@@AAU34@@std@@YAXAAV?$allocator@UtagShopItemMovieInfo@ioShopItemExtraInfoManager@@@0@PAUtagShopItemMovieInfo@ioShopItemExtraInfoManager@@AAU23@@Z$0
__ehfuncinfo$??$_Cons_val@V?$allocator@UtagShopItemMovieInfo@ioShopItemExtraInfoManager@@@std@@UtagShopItemMovieInfo@ioShopItemExtraInfoManager@@AAU34@@std@@YAXAAV?$allocator@UtagShopItemMovieInfo@ioShopItemExtraInfoManager@@@0@PAUtagShopItemMovieInfo@ioShopItemExtraInfoManager@@AAU23@@Z DD 019930522H
	DD	01H
	DD	FLAT:__unwindtable$??$_Cons_val@V?$allocator@UtagShopItemMovieInfo@ioShopItemExtraInfoManager@@@std@@UtagShopItemMovieInfo@ioShopItemExtraInfoManager@@AAU34@@std@@YAXAAV?$allocator@UtagShopItemMovieInfo@ioShopItemExtraInfoManager@@@0@PAUtagShopItemMovieInfo@ioShopItemExtraInfoManager@@AAU23@@Z
	DD	2 DUP(00H)
	DD	2 DUP(00H)
	DD	00H
	DD	01H
; Function compile flags: /Ogsp
; File c:\program files (x86)\microsoft visual studio 10.0\vc\include\xmemory
xdata$x	ENDS
;	COMDAT ??$_Cons_val@V?$allocator@UtagShopItemMovieInfo@ioShopItemExtraInfoManager@@@std@@UtagShopItemMovieInfo@ioShopItemExtraInfoManager@@AAU34@@std@@YAXAAV?$allocator@UtagShopItemMovieInfo@ioShopItemExtraInfoManager@@@0@PAUtagShopItemMovieInfo@ioShopItemExtraInfoManager@@AAU23@@Z
_TEXT	SEGMENT
$T511790 = -16						; size = 4
__$EHRec$ = -12						; size = 12
__Alval$ = 8						; size = 4
__Pdest$ = 12						; size = 4
__Src$ = 16						; size = 4
??$_Cons_val@V?$allocator@UtagShopItemMovieInfo@ioShopItemExtraInfoManager@@@std@@UtagShopItemMovieInfo@ioShopItemExtraInfoManager@@AAU34@@std@@YAXAAV?$allocator@UtagShopItemMovieInfo@ioShopItemExtraInfoManager@@@0@PAUtagShopItemMovieInfo@ioShopItemExtraInfoManager@@AAU23@@Z PROC ; std::_Cons_val<std::allocator<ioShopItemExtraInfoManager::tagShopItemMovieInfo>,ioShopItemExtraInfoManager::tagShopItemMovieInfo,ioShopItemExtraInfoManager::tagShopItemMovieInfo &>, COMDAT

; 279  : 	{	// construct using allocator

  00000	6a 04		 push	 4
  00002	b8 00 00 00 00	 mov	 eax, __ehhandler$??$_Cons_val@V?$allocator@UtagShopItemMovieInfo@ioShopItemExtraInfoManager@@@std@@UtagShopItemMovieInfo@ioShopItemExtraInfoManager@@AAU34@@std@@YAXAAV?$allocator@UtagShopItemMovieInfo@ioShopItemExtraInfoManager@@@0@PAUtagShopItemMovieInfo@ioShopItemExtraInfoManager@@AAU23@@Z
  00007	e8 00 00 00 00	 call	 __EH_prolog3

; 280  : 	_Alval.construct(_Pdest, _STD forward<_Ty2>(_Src));

  0000c	8b 4d 0c	 mov	 ecx, DWORD PTR __Pdest$[ebp]
  0000f	89 4d f0	 mov	 DWORD PTR $T511790[ebp], ecx
  00012	83 65 fc 00	 and	 DWORD PTR __$EHRec$[ebp+8], 0
  00016	85 c9		 test	 ecx, ecx
  00018	74 08		 je	 SHORT $LN7@Cons_val@3
  0001a	ff 75 10	 push	 DWORD PTR __Src$[ebp]
  0001d	e8 00 00 00 00	 call	 ??0tagShopItemMovieInfo@ioShopItemExtraInfoManager@@QAE@ABU01@@Z
$LN7@Cons_val@3:

; 281  : 	}

  00022	e8 00 00 00 00	 call	 __EH_epilog3
  00027	c3		 ret	 0
_TEXT	ENDS
;	COMDAT text$x
text$x	SEGMENT
__unwindfunclet$??$_Cons_val@V?$allocator@UtagShopItemMovieInfo@ioShopItemExtraInfoManager@@@std@@UtagShopItemMovieInfo@ioShopItemExtraInfoManager@@AAU34@@std@@YAXAAV?$allocator@UtagShopItemMovieInfo@ioShopItemExtraInfoManager@@@0@PAUtagShopItemMovieInfo@ioShopItemExtraInfoManager@@AAU23@@Z$0:
  00000	ff 75 0c	 push	 DWORD PTR __Pdest$[ebp]
  00003	ff 75 f0	 push	 DWORD PTR $T511790[ebp]
  00006	e8 00 00 00 00	 call	 ??3@YAXPAX0@Z		; operator delete
  0000b	59		 pop	 ecx
  0000c	59		 pop	 ecx
  0000d	c3		 ret	 0
__ehhandler$??$_Cons_val@V?$allocator@UtagShopItemMovieInfo@ioShopItemExtraInfoManager@@@std@@UtagShopItemMovieInfo@ioShopItemExtraInfoManager@@AAU34@@std@@YAXAAV?$allocator@UtagShopItemMovieInfo@ioShopItemExtraInfoManager@@@0@PAUtagShopItemMovieInfo@ioShopItemExtraInfoManager@@AAU23@@Z:
  0000e	8b 54 24 08	 mov	 edx, DWORD PTR [esp+8]
  00012	8d 42 0c	 lea	 eax, DWORD PTR [edx+12]
  00015	8b 4a ec	 mov	 ecx, DWORD PTR [edx-20]
  00018	33 c8		 xor	 ecx, eax
  0001a	e8 00 00 00 00	 call	 @__security_check_cookie@4
  0001f	b8 00 00 00 00	 mov	 eax, OFFSET __ehfuncinfo$??$_Cons_val@V?$allocator@UtagShopItemMovieInfo@ioShopItemExtraInfoManager@@@std@@UtagShopItemMovieInfo@ioShopItemExtraInfoManager@@AAU34@@std@@YAXAAV?$allocator@UtagShopItemMovieInfo@ioShopItemExtraInfoManager@@@0@PAUtagShopItemMovieInfo@ioShopItemExtraInfoManager@@AAU23@@Z
  00024	e9 00 00 00 00	 jmp	 ___CxxFrameHandler3
text$x	ENDS
??$_Cons_val@V?$allocator@UtagShopItemMovieInfo@ioShopItemExtraInfoManager@@@std@@UtagShopItemMovieInfo@ioShopItemExtraInfoManager@@AAU34@@std@@YAXAAV?$allocator@UtagShopItemMovieInfo@ioShopItemExtraInfoManager@@@0@PAUtagShopItemMovieInfo@ioShopItemExtraInfoManager@@AAU23@@Z ENDP ; std::_Cons_val<std::allocator<ioShopItemExtraInfoManager::tagShopItemMovieInfo>,ioShopItemExtraInfoManager::tagShopItemMovieInfo,ioShopItemExtraInfoManager::tagShopItemMovieInfo &>
PUBLIC	??$_Move@PAUtagShopItemMovieInfo@ioShopItemExtraInfoManager@@PAU12@@std@@YAPAUtagShopItemMovieInfo@ioShopItemExtraInfoManager@@PAU12@00@Z ; std::_Move<ioShopItemExtraInfoManager::tagShopItemMovieInfo *,ioShopItemExtraInfoManager::tagShopItemMovieInfo *>
; Function compile flags: /Ogsp
; File c:\program files (x86)\microsoft visual studio 10.0\vc\include\xutility
;	COMDAT ??$_Move@PAUtagShopItemMovieInfo@ioShopItemExtraInfoManager@@PAU12@@std@@YAPAUtagShopItemMovieInfo@ioShopItemExtraInfoManager@@PAU12@00@Z
_TEXT	SEGMENT
__Cat$511808 = -4					; size = 1
__First$ = 8						; size = 4
__Last$ = 12						; size = 4
__Dest$ = 16						; size = 4
??$_Move@PAUtagShopItemMovieInfo@ioShopItemExtraInfoManager@@PAU12@@std@@YAPAUtagShopItemMovieInfo@ioShopItemExtraInfoManager@@PAU12@00@Z PROC ; std::_Move<ioShopItemExtraInfoManager::tagShopItemMovieInfo *,ioShopItemExtraInfoManager::tagShopItemMovieInfo *>, COMDAT

; 2533 : 	{	// move [_First, _Last) to [_Dest, ...), unchecked

  00000	55		 push	 ebp
  00001	8b ec		 mov	 ebp, esp
  00003	51		 push	 ecx

; 2534 : 	return (_Move(_First, _Last,
; 2535 : 		_Dest, _Ptr_cat(_First, _Dest)));

  00004	ff 75 fc	 push	 DWORD PTR __Cat$511808[ebp]
  00007	ff 75 10	 push	 DWORD PTR __Dest$[ebp]
  0000a	ff 75 0c	 push	 DWORD PTR __Last$[ebp]
  0000d	ff 75 08	 push	 DWORD PTR __First$[ebp]
  00010	e8 00 00 00 00	 call	 ??$_Move@PAUtagShopItemMovieInfo@ioShopItemExtraInfoManager@@PAU12@@std@@YAPAUtagShopItemMovieInfo@ioShopItemExtraInfoManager@@PAU12@00U_Nonscalar_ptr_iterator_tag@0@@Z ; std::_Move<ioShopItemExtraInfoManager::tagShopItemMovieInfo *,ioShopItemExtraInfoManager::tagShopItemMovieInfo *>
  00015	83 c4 10	 add	 esp, 16			; 00000010H

; 2536 : 	}

  00018	c9		 leave
  00019	c3		 ret	 0
??$_Move@PAUtagShopItemMovieInfo@ioShopItemExtraInfoManager@@PAU12@@std@@YAPAUtagShopItemMovieInfo@ioShopItemExtraInfoManager@@PAU12@00@Z ENDP ; std::_Move<ioShopItemExtraInfoManager::tagShopItemMovieInfo *,ioShopItemExtraInfoManager::tagShopItemMovieInfo *>
_TEXT	ENDS
PUBLIC	?construct@?$allocator@UtagShopItemMovieInfo@ioShopItemExtraInfoManager@@@std@@QAEXPAUtagShopItemMovieInfo@ioShopItemExtraInfoManager@@ABU34@@Z ; std::allocator<ioShopItemExtraInfoManager::tagShopItemMovieInfo>::construct
; Function compile flags: /Ogsp
; File c:\program files (x86)\microsoft visual studio 10.0\vc\include\xmemory
;	COMDAT ?construct@?$allocator@UtagShopItemMovieInfo@ioShopItemExtraInfoManager@@@std@@QAEXPAUtagShopItemMovieInfo@ioShopItemExtraInfoManager@@ABU34@@Z
_TEXT	SEGMENT
__Ptr$ = 8						; size = 4
__Val$ = 12						; size = 4
?construct@?$allocator@UtagShopItemMovieInfo@ioShopItemExtraInfoManager@@@std@@QAEXPAUtagShopItemMovieInfo@ioShopItemExtraInfoManager@@ABU34@@Z PROC ; std::allocator<ioShopItemExtraInfoManager::tagShopItemMovieInfo>::construct, COMDAT
; _this$ = ecx

; 196  : 		{	// construct object at _Ptr with value _Val

  00000	55		 push	 ebp
  00001	8b ec		 mov	 ebp, esp

; 197  : 		_Construct(_Ptr, _Val);

  00003	ff 75 0c	 push	 DWORD PTR __Val$[ebp]
  00006	ff 75 08	 push	 DWORD PTR __Ptr$[ebp]
  00009	e8 00 00 00 00	 call	 ??$_Construct@UtagShopItemMovieInfo@ioShopItemExtraInfoManager@@ABU12@@std@@YAXPAUtagShopItemMovieInfo@ioShopItemExtraInfoManager@@ABU12@@Z ; std::_Construct<ioShopItemExtraInfoManager::tagShopItemMovieInfo,ioShopItemExtraInfoManager::tagShopItemMovieInfo const &>
  0000e	59		 pop	 ecx
  0000f	59		 pop	 ecx

; 198  : 		}

  00010	5d		 pop	 ebp
  00011	c2 08 00	 ret	 8
?construct@?$allocator@UtagShopItemMovieInfo@ioShopItemExtraInfoManager@@@std@@QAEXPAUtagShopItemMovieInfo@ioShopItemExtraInfoManager@@ABU34@@Z ENDP ; std::allocator<ioShopItemExtraInfoManager::tagShopItemMovieInfo>::construct
_TEXT	ENDS
PUBLIC	?_Buy@?$vector@HV?$allocator@H@std@@@std@@IAE_NI@Z ; std::vector<int,std::allocator<int> >::_Buy
; Function compile flags: /Ogsp
; File c:\program files (x86)\microsoft visual studio 10.0\vc\include\vector
;	COMDAT ?_Buy@?$vector@HV?$allocator@H@std@@@std@@IAE_NI@Z
_TEXT	SEGMENT
__Capacity$ = 8						; size = 4
?_Buy@?$vector@HV?$allocator@H@std@@@std@@IAE_NI@Z PROC	; std::vector<int,std::allocator<int> >::_Buy, COMDAT
; _this$ = ecx

; 1250 : 		{	// allocate array with _Capacity elements

  00000	55		 push	 ebp
  00001	8b ec		 mov	 ebp, esp
  00003	56		 push	 esi

; 1251 : 		this->_Myfirst = 0;

  00004	33 c0		 xor	 eax, eax
  00006	57		 push	 edi

; 1252 : 		this->_Mylast = 0;
; 1253 : 		this->_Myend = 0;
; 1254 : 
; 1255 : 		if (_Capacity == 0)

  00007	8b 7d 08	 mov	 edi, DWORD PTR __Capacity$[ebp]
  0000a	8b f1		 mov	 esi, ecx
  0000c	89 06		 mov	 DWORD PTR [esi], eax
  0000e	89 46 04	 mov	 DWORD PTR [esi+4], eax
  00011	89 46 08	 mov	 DWORD PTR [esi+8], eax
  00014	3b f8		 cmp	 edi, eax
  00016	75 04		 jne	 SHORT $LN4@Buy@2

; 1256 : 			return (false);

  00018	32 c0		 xor	 al, al
  0001a	eb 29		 jmp	 SHORT $LN5@Buy@2
$LN4@Buy@2:

; 1257 : 		else if (max_size() < _Capacity)

  0001c	81 ff ff ff ff
	3f		 cmp	 edi, 1073741823		; 3fffffffH
  00022	76 0b		 jbe	 SHORT $LN2@Buy@2

; 1258 : 			_Xlen();	// result too long

  00024	68 00 00 00 00	 push	 OFFSET ??_C@_0BD@OLBABOEK@vector?$DMT?$DO?5too?5long?$AA@
  00029	ff 15 00 00 00
	00		 call	 DWORD PTR __imp_?_Xlength_error@std@@YAXPBD@Z
$LN19@Buy@2:
$LN2@Buy@2:

; 1259 : 		else
; 1260 : 			{	// nonempty array, allocate storage
; 1261 : 			this->_Myfirst = this->_Alval.allocate(_Capacity);

  0002f	50		 push	 eax
  00030	57		 push	 edi
  00031	e8 00 00 00 00	 call	 ??$_Allocate@H@std@@YAPAHIPAH@Z ; std::_Allocate<int>
  00036	89 06		 mov	 DWORD PTR [esi], eax

; 1262 : 			this->_Mylast = this->_Myfirst;

  00038	89 46 04	 mov	 DWORD PTR [esi+4], eax

; 1263 : 			this->_Myend = this->_Myfirst + _Capacity;

  0003b	8d 04 b8	 lea	 eax, DWORD PTR [eax+edi*4]
  0003e	59		 pop	 ecx
  0003f	89 46 08	 mov	 DWORD PTR [esi+8], eax
  00042	59		 pop	 ecx

; 1264 : 			}
; 1265 : 		return (true);

  00043	b0 01		 mov	 al, 1
$LN5@Buy@2:
  00045	5f		 pop	 edi
  00046	5e		 pop	 esi

; 1266 : 		}

  00047	5d		 pop	 ebp
  00048	c2 04 00	 ret	 4
$LN18@Buy@2:
?_Buy@?$vector@HV?$allocator@H@std@@@std@@IAE_NI@Z ENDP	; std::vector<int,std::allocator<int> >::_Buy
_TEXT	ENDS
PUBLIC	??$_Ucopy@PAH@?$vector@HV?$allocator@H@std@@@std@@IAEPAHPAH00@Z ; std::vector<int,std::allocator<int> >::_Ucopy<int *>
; Function compile flags: /Ogsp
;	COMDAT ??$_Ucopy@PAH@?$vector@HV?$allocator@H@std@@@std@@IAEPAHPAH00@Z
_TEXT	SEGMENT
__First$ = 8						; size = 4
__Last$ = 12						; size = 4
__Cat$511850 = 16					; size = 1
__Ptr$ = 16						; size = 4
??$_Ucopy@PAH@?$vector@HV?$allocator@H@std@@@std@@IAEPAHPAH00@Z PROC ; std::vector<int,std::allocator<int> >::_Ucopy<int *>, COMDAT
; _this$ = ecx

; 1315 : 		pointer _Ucopy(_Iter _First, _Iter _Last, pointer _Ptr)

  00000	55		 push	 ebp
  00001	8b ec		 mov	 ebp, esp

; 1316 : 		{	// copy initializing [_First, _Last), using allocator
; 1317 : 		return (_Uninitialized_copy(_First, _Last,
; 1318 : 			_Ptr, this->_Alval));

  00003	ff 75 10	 push	 DWORD PTR __Cat$511850[ebp]
  00006	83 c1 0c	 add	 ecx, 12			; 0000000cH
  00009	51		 push	 ecx
  0000a	ff 75 10	 push	 DWORD PTR __Ptr$[ebp]
  0000d	ff 75 0c	 push	 DWORD PTR __Last$[ebp]
  00010	ff 75 08	 push	 DWORD PTR __First$[ebp]
  00013	e8 00 00 00 00	 call	 ??$_Uninit_copy@HH@std@@YAPAHPAH00AAV?$allocator@H@0@U_Scalar_ptr_iterator_tag@0@@Z ; std::_Uninit_copy<int,int>
  00018	83 c4 14	 add	 esp, 20			; 00000014H

; 1319 : 		}

  0001b	5d		 pop	 ebp
  0001c	c2 0c 00	 ret	 12			; 0000000cH
??$_Ucopy@PAH@?$vector@HV?$allocator@H@std@@@std@@IAEPAHPAH00@Z ENDP ; std::vector<int,std::allocator<int> >::_Ucopy<int *>
_TEXT	ENDS
PUBLIC	?destroy@?$allocator@UtagShopItemMovieInfo@ioShopItemExtraInfoManager@@@std@@QAEXPAUtagShopItemMovieInfo@ioShopItemExtraInfoManager@@@Z ; std::allocator<ioShopItemExtraInfoManager::tagShopItemMovieInfo>::destroy
; Function compile flags: /Ogsp
; File c:\program files (x86)\microsoft visual studio 10.0\vc\include\xmemory
;	COMDAT ?destroy@?$allocator@UtagShopItemMovieInfo@ioShopItemExtraInfoManager@@@std@@QAEXPAUtagShopItemMovieInfo@ioShopItemExtraInfoManager@@@Z
_TEXT	SEGMENT
__Ptr$ = 8						; size = 4
?destroy@?$allocator@UtagShopItemMovieInfo@ioShopItemExtraInfoManager@@@std@@QAEXPAUtagShopItemMovieInfo@ioShopItemExtraInfoManager@@@Z PROC ; std::allocator<ioShopItemExtraInfoManager::tagShopItemMovieInfo>::destroy, COMDAT
; _this$ = ecx

; 212  : 		{	// destroy object at _Ptr

  00000	55		 push	 ebp
  00001	8b ec		 mov	 ebp, esp

; 213  : 		_Destroy(_Ptr);

  00003	8b 4d 08	 mov	 ecx, DWORD PTR __Ptr$[ebp]
  00006	e8 00 00 00 00	 call	 ??1tagShopItemMovieInfo@ioShopItemExtraInfoManager@@QAE@XZ

; 214  : 		}

  0000b	5d		 pop	 ebp
  0000c	c2 04 00	 ret	 4
?destroy@?$allocator@UtagShopItemMovieInfo@ioShopItemExtraInfoManager@@@std@@QAEXPAUtagShopItemMovieInfo@ioShopItemExtraInfoManager@@@Z ENDP ; std::allocator<ioShopItemExtraInfoManager::tagShopItemMovieInfo>::destroy
_TEXT	ENDS
PUBLIC	??$_Cons_val@V?$allocator@UtagShopItemMovieInfo@ioShopItemExtraInfoManager@@@std@@UtagShopItemMovieInfo@ioShopItemExtraInfoManager@@U34@@std@@YAXAAV?$allocator@UtagShopItemMovieInfo@ioShopItemExtraInfoManager@@@0@PAUtagShopItemMovieInfo@ioShopItemExtraInfoManager@@$$QAU23@@Z ; std::_Cons_val<std::allocator<ioShopItemExtraInfoManager::tagShopItemMovieInfo>,ioShopItemExtraInfoManager::tagShopItemMovieInfo,ioShopItemExtraInfoManager::tagShopItemMovieInfo>
;	COMDAT xdata$x
; File c:\program files (x86)\microsoft visual studio 10.0\vc\include\utility
xdata$x	SEGMENT
__unwindtable$??$_Cons_val@V?$allocator@UtagShopItemMovieInfo@ioShopItemExtraInfoManager@@@std@@UtagShopItemMovieInfo@ioShopItemExtraInfoManager@@U34@@std@@YAXAAV?$allocator@UtagShopItemMovieInfo@ioShopItemExtraInfoManager@@@0@PAUtagShopItemMovieInfo@ioShopItemExtraInfoManager@@$$QAU23@@Z DD 0ffffffffH
	DD	FLAT:__unwindfunclet$??$_Cons_val@V?$allocator@UtagShopItemMovieInfo@ioShopItemExtraInfoManager@@@std@@UtagShopItemMovieInfo@ioShopItemExtraInfoManager@@U34@@std@@YAXAAV?$allocator@UtagShopItemMovieInfo@ioShopItemExtraInfoManager@@@0@PAUtagShopItemMovieInfo@ioShopItemExtraInfoManager@@$$QAU23@@Z$0
__ehfuncinfo$??$_Cons_val@V?$allocator@UtagShopItemMovieInfo@ioShopItemExtraInfoManager@@@std@@UtagShopItemMovieInfo@ioShopItemExtraInfoManager@@U34@@std@@YAXAAV?$allocator@UtagShopItemMovieInfo@ioShopItemExtraInfoManager@@@0@PAUtagShopItemMovieInfo@ioShopItemExtraInfoManager@@$$QAU23@@Z DD 019930522H
	DD	01H
	DD	FLAT:__unwindtable$??$_Cons_val@V?$allocator@UtagShopItemMovieInfo@ioShopItemExtraInfoManager@@@std@@UtagShopItemMovieInfo@ioShopItemExtraInfoManager@@U34@@std@@YAXAAV?$allocator@UtagShopItemMovieInfo@ioShopItemExtraInfoManager@@@0@PAUtagShopItemMovieInfo@ioShopItemExtraInfoManager@@$$QAU23@@Z
	DD	2 DUP(00H)
	DD	2 DUP(00H)
	DD	00H
	DD	01H
; Function compile flags: /Ogsp
; File c:\program files (x86)\microsoft visual studio 10.0\vc\include\xmemory
xdata$x	ENDS
;	COMDAT ??$_Cons_val@V?$allocator@UtagShopItemMovieInfo@ioShopItemExtraInfoManager@@@std@@UtagShopItemMovieInfo@ioShopItemExtraInfoManager@@U34@@std@@YAXAAV?$allocator@UtagShopItemMovieInfo@ioShopItemExtraInfoManager@@@0@PAUtagShopItemMovieInfo@ioShopItemExtraInfoManager@@$$QAU23@@Z
_TEXT	SEGMENT
$T511885 = -16						; size = 4
__$EHRec$ = -12						; size = 12
__Alval$ = 8						; size = 4
__Pdest$ = 12						; size = 4
__Src$ = 16						; size = 4
??$_Cons_val@V?$allocator@UtagShopItemMovieInfo@ioShopItemExtraInfoManager@@@std@@UtagShopItemMovieInfo@ioShopItemExtraInfoManager@@U34@@std@@YAXAAV?$allocator@UtagShopItemMovieInfo@ioShopItemExtraInfoManager@@@0@PAUtagShopItemMovieInfo@ioShopItemExtraInfoManager@@$$QAU23@@Z PROC ; std::_Cons_val<std::allocator<ioShopItemExtraInfoManager::tagShopItemMovieInfo>,ioShopItemExtraInfoManager::tagShopItemMovieInfo,ioShopItemExtraInfoManager::tagShopItemMovieInfo>, COMDAT

; 279  : 	{	// construct using allocator

  00000	6a 04		 push	 4
  00002	b8 00 00 00 00	 mov	 eax, __ehhandler$??$_Cons_val@V?$allocator@UtagShopItemMovieInfo@ioShopItemExtraInfoManager@@@std@@UtagShopItemMovieInfo@ioShopItemExtraInfoManager@@U34@@std@@YAXAAV?$allocator@UtagShopItemMovieInfo@ioShopItemExtraInfoManager@@@0@PAUtagShopItemMovieInfo@ioShopItemExtraInfoManager@@$$QAU23@@Z
  00007	e8 00 00 00 00	 call	 __EH_prolog3

; 280  : 	_Alval.construct(_Pdest, _STD forward<_Ty2>(_Src));

  0000c	8b 4d 0c	 mov	 ecx, DWORD PTR __Pdest$[ebp]
  0000f	89 4d f0	 mov	 DWORD PTR $T511885[ebp], ecx
  00012	83 65 fc 00	 and	 DWORD PTR __$EHRec$[ebp+8], 0
  00016	85 c9		 test	 ecx, ecx
  00018	74 08		 je	 SHORT $LN7@Cons_val@4
  0001a	ff 75 10	 push	 DWORD PTR __Src$[ebp]
  0001d	e8 00 00 00 00	 call	 ??0tagShopItemMovieInfo@ioShopItemExtraInfoManager@@QAE@ABU01@@Z
$LN7@Cons_val@4:

; 281  : 	}

  00022	e8 00 00 00 00	 call	 __EH_epilog3
  00027	c3		 ret	 0
_TEXT	ENDS
;	COMDAT text$x
text$x	SEGMENT
__unwindfunclet$??$_Cons_val@V?$allocator@UtagShopItemMovieInfo@ioShopItemExtraInfoManager@@@std@@UtagShopItemMovieInfo@ioShopItemExtraInfoManager@@U34@@std@@YAXAAV?$allocator@UtagShopItemMovieInfo@ioShopItemExtraInfoManager@@@0@PAUtagShopItemMovieInfo@ioShopItemExtraInfoManager@@$$QAU23@@Z$0:
  00000	ff 75 0c	 push	 DWORD PTR __Pdest$[ebp]
  00003	ff 75 f0	 push	 DWORD PTR $T511885[ebp]
  00006	e8 00 00 00 00	 call	 ??3@YAXPAX0@Z		; operator delete
  0000b	59		 pop	 ecx
  0000c	59		 pop	 ecx
  0000d	c3		 ret	 0
__ehhandler$??$_Cons_val@V?$allocator@UtagShopItemMovieInfo@ioShopItemExtraInfoManager@@@std@@UtagShopItemMovieInfo@ioShopItemExtraInfoManager@@U34@@std@@YAXAAV?$allocator@UtagShopItemMovieInfo@ioShopItemExtraInfoManager@@@0@PAUtagShopItemMovieInfo@ioShopItemExtraInfoManager@@$$QAU23@@Z:
  0000e	8b 54 24 08	 mov	 edx, DWORD PTR [esp+8]
  00012	8d 42 0c	 lea	 eax, DWORD PTR [edx+12]
  00015	8b 4a ec	 mov	 ecx, DWORD PTR [edx-20]
  00018	33 c8		 xor	 ecx, eax
  0001a	e8 00 00 00 00	 call	 @__security_check_cookie@4
  0001f	b8 00 00 00 00	 mov	 eax, OFFSET __ehfuncinfo$??$_Cons_val@V?$allocator@UtagShopItemMovieInfo@ioShopItemExtraInfoManager@@@std@@UtagShopItemMovieInfo@ioShopItemExtraInfoManager@@U34@@std@@YAXAAV?$allocator@UtagShopItemMovieInfo@ioShopItemExtraInfoManager@@@0@PAUtagShopItemMovieInfo@ioShopItemExtraInfoManager@@$$QAU23@@Z
  00024	e9 00 00 00 00	 jmp	 ___CxxFrameHandler3
text$x	ENDS
??$_Cons_val@V?$allocator@UtagShopItemMovieInfo@ioShopItemExtraInfoManager@@@std@@UtagShopItemMovieInfo@ioShopItemExtraInfoManager@@U34@@std@@YAXAAV?$allocator@UtagShopItemMovieInfo@ioShopItemExtraInfoManager@@@0@PAUtagShopItemMovieInfo@ioShopItemExtraInfoManager@@$$QAU23@@Z ENDP ; std::_Cons_val<std::allocator<ioShopItemExtraInfoManager::tagShopItemMovieInfo>,ioShopItemExtraInfoManager::tagShopItemMovieInfo,ioShopItemExtraInfoManager::tagShopItemMovieInfo>
PUBLIC	??$_Dest_val@V?$allocator@H@std@@H@std@@YAXAAV?$allocator@H@0@PAH@Z ; std::_Dest_val<std::allocator<int>,int>
; Function compile flags: /Ogsp
;	COMDAT ??$_Dest_val@V?$allocator@H@std@@H@std@@YAXAAV?$allocator@H@0@PAH@Z
_TEXT	SEGMENT
__Alval$ = 8						; size = 4
__Pdest$ = 12						; size = 4
??$_Dest_val@V?$allocator@H@std@@H@std@@YAXAAV?$allocator@H@0@PAH@Z PROC ; std::_Dest_val<std::allocator<int>,int>, COMDAT

; 287  : 	_Alval.destroy(_Pdest);
; 288  : 	}

  00000	c3		 ret	 0
??$_Dest_val@V?$allocator@H@std@@H@std@@YAXAAV?$allocator@H@0@PAH@Z ENDP ; std::_Dest_val<std::allocator<int>,int>
_TEXT	ENDS
PUBLIC	??0?$vector@HV?$allocator@H@std@@@std@@QAE@XZ	; std::vector<int,std::allocator<int> >::vector<int,std::allocator<int> >
; Function compile flags: /Ogsp
; File c:\program files (x86)\microsoft visual studio 10.0\vc\include\vector
;	COMDAT ??0?$vector@HV?$allocator@H@std@@@std@@QAE@XZ
_TEXT	SEGMENT
??0?$vector@HV?$allocator@H@std@@@std@@QAE@XZ PROC	; std::vector<int,std::allocator<int> >::vector<int,std::allocator<int> >, COMDAT
; _this$ = ecx

; 507  : 		{	// construct empty vector

  00000	8b c1		 mov	 eax, ecx
  00002	33 c9		 xor	 ecx, ecx
  00004	89 08		 mov	 DWORD PTR [eax], ecx
  00006	89 48 04	 mov	 DWORD PTR [eax+4], ecx
  00009	89 48 08	 mov	 DWORD PTR [eax+8], ecx

; 508  : 		}

  0000c	c3		 ret	 0
??0?$vector@HV?$allocator@H@std@@@std@@QAE@XZ ENDP	; std::vector<int,std::allocator<int> >::vector<int,std::allocator<int> >
_TEXT	ENDS
PUBLIC	?_Destroy@?$vector@HV?$allocator@H@std@@@std@@IAEXPAH0@Z ; std::vector<int,std::allocator<int> >::_Destroy
; Function compile flags: /Ogsp
;	COMDAT ?_Destroy@?$vector@HV?$allocator@H@std@@@std@@IAEXPAH0@Z
_TEXT	SEGMENT
__First$ = 8						; size = 4
__Last$ = 12						; size = 4
?_Destroy@?$vector@HV?$allocator@H@std@@@std@@IAEXPAH0@Z PROC ; std::vector<int,std::allocator<int> >::_Destroy, COMDAT
; _this$ = ecx

; 1270 : 		_Destroy_range(_First, _Last, this->_Alval);
; 1271 : 		}

  00000	c2 08 00	 ret	 8
?_Destroy@?$vector@HV?$allocator@H@std@@@std@@IAEXPAH0@Z ENDP ; std::vector<int,std::allocator<int> >::_Destroy
_TEXT	ENDS
PUBLIC	??9?$_Vector_const_iterator@V?$_Vector_val@HV?$allocator@H@std@@@std@@@std@@QBE_NABV01@@Z ; std::_Vector_const_iterator<std::_Vector_val<int,std::allocator<int> > >::operator!=
; Function compile flags: /Ogsp
;	COMDAT ??9?$_Vector_const_iterator@V?$_Vector_val@HV?$allocator@H@std@@@std@@@std@@QBE_NABV01@@Z
_TEXT	SEGMENT
__Right$ = 8						; size = 4
??9?$_Vector_const_iterator@V?$_Vector_val@HV?$allocator@H@std@@@std@@@std@@QBE_NABV01@@Z PROC ; std::_Vector_const_iterator<std::_Vector_val<int,std::allocator<int> > >::operator!=, COMDAT
; _this$ = ecx

; 207  : 		{	// test for iterator inequality

  00000	55		 push	 ebp
  00001	8b ec		 mov	 ebp, esp

; 208  : 		return (!(*this == _Right));

  00003	8b 01		 mov	 eax, DWORD PTR [ecx]
  00005	8b 55 08	 mov	 edx, DWORD PTR __Right$[ebp]
  00008	33 c9		 xor	 ecx, ecx
  0000a	3b 02		 cmp	 eax, DWORD PTR [edx]
  0000c	0f 95 c0	 setne	 al

; 209  : 		}

  0000f	5d		 pop	 ebp
  00010	c2 04 00	 ret	 4
??9?$_Vector_const_iterator@V?$_Vector_val@HV?$allocator@H@std@@@std@@@std@@QBE_NABV01@@Z ENDP ; std::_Vector_const_iterator<std::_Vector_val<int,std::allocator<int> > >::operator!=
_TEXT	ENDS
PUBLIC	??$_Umove@PAH@?$vector@HV?$allocator@H@std@@@std@@IAEPAHPAH00@Z ; std::vector<int,std::allocator<int> >::_Umove<int *>
; Function compile flags: /Ogsp
;	COMDAT ??$_Umove@PAH@?$vector@HV?$allocator@H@std@@@std@@IAEPAHPAH00@Z
_TEXT	SEGMENT
__First$ = 8						; size = 4
__Last$ = 12						; size = 4
__Ptr$ = 16						; size = 4
??$_Umove@PAH@?$vector@HV?$allocator@H@std@@@std@@IAEPAHPAH00@Z PROC ; std::vector<int,std::allocator<int> >::_Umove<int *>, COMDAT
; _this$ = ecx

; 1322 : 		pointer _Umove(_Iter _First, _Iter _Last, pointer _Ptr)

  00000	55		 push	 ebp
  00001	8b ec		 mov	 ebp, esp

; 1323 : 		{	// move initializing [_First, _Last), using allocator
; 1324 : 		return (_Uninitialized_move(_First, _Last,
; 1325 : 			_Ptr, this->_Alval));

  00003	83 c1 0c	 add	 ecx, 12			; 0000000cH
  00006	51		 push	 ecx
  00007	ff 75 10	 push	 DWORD PTR __Ptr$[ebp]
  0000a	ff 75 0c	 push	 DWORD PTR __Last$[ebp]
  0000d	ff 75 08	 push	 DWORD PTR __First$[ebp]
  00010	e8 00 00 00 00	 call	 ??$_Uninitialized_move@PAHPAHV?$allocator@H@std@@@std@@YAPAHPAH00AAV?$allocator@H@0@@Z ; std::_Uninitialized_move<int *,int *,std::allocator<int> >
  00015	83 c4 10	 add	 esp, 16			; 00000010H

; 1326 : 		}

  00018	5d		 pop	 ebp
  00019	c2 0c 00	 ret	 12			; 0000000cH
??$_Umove@PAH@?$vector@HV?$allocator@H@std@@@std@@IAEPAHPAH00@Z ENDP ; std::vector<int,std::allocator<int> >::_Umove<int *>
_TEXT	ENDS
PUBLIC	??$_Cons_val@V?$allocator@UtagShopItemMovieInfo@ioShopItemExtraInfoManager@@@std@@UtagShopItemMovieInfo@ioShopItemExtraInfoManager@@ABU34@@std@@YAXAAV?$allocator@UtagShopItemMovieInfo@ioShopItemExtraInfoManager@@@0@PAUtagShopItemMovieInfo@ioShopItemExtraInfoManager@@ABU23@@Z ; std::_Cons_val<std::allocator<ioShopItemExtraInfoManager::tagShopItemMovieInfo>,ioShopItemExtraInfoManager::tagShopItemMovieInfo,ioShopItemExtraInfoManager::tagShopItemMovieInfo const &>
; Function compile flags: /Ogsp
; File c:\program files (x86)\microsoft visual studio 10.0\vc\include\xmemory
;	COMDAT ??$_Cons_val@V?$allocator@UtagShopItemMovieInfo@ioShopItemExtraInfoManager@@@std@@UtagShopItemMovieInfo@ioShopItemExtraInfoManager@@ABU34@@std@@YAXAAV?$allocator@UtagShopItemMovieInfo@ioShopItemExtraInfoManager@@@0@PAUtagShopItemMovieInfo@ioShopItemExtraInfoManager@@ABU23@@Z
_TEXT	SEGMENT
__Alval$ = 8						; size = 4
__Pdest$ = 12						; size = 4
__Src$ = 16						; size = 4
??$_Cons_val@V?$allocator@UtagShopItemMovieInfo@ioShopItemExtraInfoManager@@@std@@UtagShopItemMovieInfo@ioShopItemExtraInfoManager@@ABU34@@std@@YAXAAV?$allocator@UtagShopItemMovieInfo@ioShopItemExtraInfoManager@@@0@PAUtagShopItemMovieInfo@ioShopItemExtraInfoManager@@ABU23@@Z PROC ; std::_Cons_val<std::allocator<ioShopItemExtraInfoManager::tagShopItemMovieInfo>,ioShopItemExtraInfoManager::tagShopItemMovieInfo,ioShopItemExtraInfoManager::tagShopItemMovieInfo const &>, COMDAT

; 279  : 	{	// construct using allocator

  00000	55		 push	 ebp
  00001	8b ec		 mov	 ebp, esp

; 280  : 	_Alval.construct(_Pdest, _STD forward<_Ty2>(_Src));

  00003	ff 75 10	 push	 DWORD PTR __Src$[ebp]
  00006	ff 75 0c	 push	 DWORD PTR __Pdest$[ebp]
  00009	e8 00 00 00 00	 call	 ??$_Construct@UtagShopItemMovieInfo@ioShopItemExtraInfoManager@@ABU12@@std@@YAXPAUtagShopItemMovieInfo@ioShopItemExtraInfoManager@@ABU12@@Z ; std::_Construct<ioShopItemExtraInfoManager::tagShopItemMovieInfo,ioShopItemExtraInfoManager::tagShopItemMovieInfo const &>
  0000e	59		 pop	 ecx
  0000f	59		 pop	 ecx

; 281  : 	}

  00010	5d		 pop	 ebp
  00011	c3		 ret	 0
??$_Cons_val@V?$allocator@UtagShopItemMovieInfo@ioShopItemExtraInfoManager@@@std@@UtagShopItemMovieInfo@ioShopItemExtraInfoManager@@ABU34@@std@@YAXAAV?$allocator@UtagShopItemMovieInfo@ioShopItemExtraInfoManager@@@0@PAUtagShopItemMovieInfo@ioShopItemExtraInfoManager@@ABU23@@Z ENDP ; std::_Cons_val<std::allocator<ioShopItemExtraInfoManager::tagShopItemMovieInfo>,ioShopItemExtraInfoManager::tagShopItemMovieInfo,ioShopItemExtraInfoManager::tagShopItemMovieInfo const &>
_TEXT	ENDS
PUBLIC	??$_Dest_val@V?$allocator@UtagShopItemMovieInfo@ioShopItemExtraInfoManager@@@std@@UtagShopItemMovieInfo@ioShopItemExtraInfoManager@@@std@@YAXAAV?$allocator@UtagShopItemMovieInfo@ioShopItemExtraInfoManager@@@0@PAUtagShopItemMovieInfo@ioShopItemExtraInfoManager@@@Z ; std::_Dest_val<std::allocator<ioShopItemExtraInfoManager::tagShopItemMovieInfo>,ioShopItemExtraInfoManager::tagShopItemMovieInfo>
; Function compile flags: /Ogsp
;	COMDAT ??$_Dest_val@V?$allocator@UtagShopItemMovieInfo@ioShopItemExtraInfoManager@@@std@@UtagShopItemMovieInfo@ioShopItemExtraInfoManager@@@std@@YAXAAV?$allocator@UtagShopItemMovieInfo@ioShopItemExtraInfoManager@@@0@PAUtagShopItemMovieInfo@ioShopItemExtraInfoManager@@@Z
_TEXT	SEGMENT
__Alval$ = 8						; size = 4
__Pdest$ = 12						; size = 4
??$_Dest_val@V?$allocator@UtagShopItemMovieInfo@ioShopItemExtraInfoManager@@@std@@UtagShopItemMovieInfo@ioShopItemExtraInfoManager@@@std@@YAXAAV?$allocator@UtagShopItemMovieInfo@ioShopItemExtraInfoManager@@@0@PAUtagShopItemMovieInfo@ioShopItemExtraInfoManager@@@Z PROC ; std::_Dest_val<std::allocator<ioShopItemExtraInfoManager::tagShopItemMovieInfo>,ioShopItemExtraInfoManager::tagShopItemMovieInfo>, COMDAT

; 286  : 	{	// destroy using allocator

  00000	55		 push	 ebp
  00001	8b ec		 mov	 ebp, esp

; 287  : 	_Alval.destroy(_Pdest);

  00003	8b 4d 0c	 mov	 ecx, DWORD PTR __Pdest$[ebp]

; 288  : 	}

  00006	5d		 pop	 ebp

; 287  : 	_Alval.destroy(_Pdest);

  00007	e9 00 00 00 00	 jmp	 ??1tagShopItemMovieInfo@ioShopItemExtraInfoManager@@QAE@XZ
??$_Dest_val@V?$allocator@UtagShopItemMovieInfo@ioShopItemExtraInfoManager@@@std@@UtagShopItemMovieInfo@ioShopItemExtraInfoManager@@@std@@YAXAAV?$allocator@UtagShopItemMovieInfo@ioShopItemExtraInfoManager@@@0@PAUtagShopItemMovieInfo@ioShopItemExtraInfoManager@@@Z ENDP ; std::_Dest_val<std::allocator<ioShopItemExtraInfoManager::tagShopItemMovieInfo>,ioShopItemExtraInfoManager::tagShopItemMovieInfo>
_TEXT	ENDS
PUBLIC	??$_Uninit_copy@V?$_Vector_const_iterator@V?$_Vector_val@HV?$allocator@H@std@@@std@@@std@@PAHV?$allocator@H@2@@std@@YAPAHV?$_Vector_const_iterator@V?$_Vector_val@HV?$allocator@H@std@@@std@@@0@0PAHAAV?$allocator@H@0@U_Nonscalar_ptr_iterator_tag@0@@Z ; std::_Uninit_copy<std::_Vector_const_iterator<std::_Vector_val<int,std::allocator<int> > >,int *,std::allocator<int> >
; Function compile flags: /Ogsp
; File c:\program files (x86)\microsoft visual studio 10.0\vc\include\memory
;	COMDAT ??$_Uninit_copy@V?$_Vector_const_iterator@V?$_Vector_val@HV?$allocator@H@std@@@std@@@std@@PAHV?$allocator@H@2@@std@@YAPAHV?$_Vector_const_iterator@V?$_Vector_val@HV?$allocator@H@std@@@std@@@0@0PAHAAV?$allocator@H@0@U_Nonscalar_ptr_iterator_tag@0@@Z
_TEXT	SEGMENT
__First$ = 8						; size = 4
__Last$ = 12						; size = 4
__Dest$ = 16						; size = 4
__Al$ = 20						; size = 4
___formal$ = 24						; size = 1
??$_Uninit_copy@V?$_Vector_const_iterator@V?$_Vector_val@HV?$allocator@H@std@@@std@@@std@@PAHV?$allocator@H@2@@std@@YAPAHV?$_Vector_const_iterator@V?$_Vector_val@HV?$allocator@H@std@@@std@@@0@0PAHAAV?$allocator@H@0@U_Nonscalar_ptr_iterator_tag@0@@Z PROC ; std::_Uninit_copy<std::_Vector_const_iterator<std::_Vector_val<int,std::allocator<int> > >,int *,std::allocator<int> >, COMDAT

; 369  : 	{	// copy [_First, _Last) to raw _Dest, using _Al, arbitrary type

  00000	55		 push	 ebp
  00001	8b ec		 mov	 ebp, esp

; 370  : 	_DEBUG_RANGE(_First, _Last);
; 371  : 	_DEBUG_POINTER(_Dest);
; 372  : 	_FwdIt _Next = _Dest;
; 373  : 
; 374  : 	_TRY_BEGIN
; 375  : 	for (; _First != _Last; ++_Dest, ++_First)

  00003	8b 45 08	 mov	 eax, DWORD PTR __First$[ebp]
  00006	eb 17		 jmp	 SHORT $LN48@Uninit_cop
$LL14@Uninit_cop:

; 376  : 		_Cons_val(_Al, _Dest, *_First);

  00008	83 7d 10 00	 cmp	 DWORD PTR __Dest$[ebp], 0
  0000c	74 07		 je	 SHORT $LN32@Uninit_cop
  0000e	8b 08		 mov	 ecx, DWORD PTR [eax]
  00010	8b 55 10	 mov	 edx, DWORD PTR __Dest$[ebp]
  00013	89 0a		 mov	 DWORD PTR [edx], ecx
$LN32@Uninit_cop:

; 370  : 	_DEBUG_RANGE(_First, _Last);
; 371  : 	_DEBUG_POINTER(_Dest);
; 372  : 	_FwdIt _Next = _Dest;
; 373  : 
; 374  : 	_TRY_BEGIN
; 375  : 	for (; _First != _Last; ++_Dest, ++_First)

  00015	83 45 10 04	 add	 DWORD PTR __Dest$[ebp], 4
  00019	83 c0 04	 add	 eax, 4
  0001c	89 45 08	 mov	 DWORD PTR __First$[ebp], eax
$LN48@Uninit_cop:
  0001f	3b 45 0c	 cmp	 eax, DWORD PTR __Last$[ebp]
  00022	75 e4		 jne	 SHORT $LL14@Uninit_cop

; 377  : 	_CATCH_ALL
; 378  : 	for (; _Next != _Dest; ++_Next)
; 379  : 		_Dest_val(_Al, _Next);
; 380  : 	_RERAISE;
; 381  : 	_CATCH_END
; 382  : 	return (_Dest);

  00024	8b 45 10	 mov	 eax, DWORD PTR __Dest$[ebp]

; 383  : 	}

  00027	5d		 pop	 ebp
  00028	c3		 ret	 0
??$_Uninit_copy@V?$_Vector_const_iterator@V?$_Vector_val@HV?$allocator@H@std@@@std@@@std@@PAHV?$allocator@H@2@@std@@YAPAHV?$_Vector_const_iterator@V?$_Vector_val@HV?$allocator@H@std@@@std@@@0@0PAHAAV?$allocator@H@0@U_Nonscalar_ptr_iterator_tag@0@@Z ENDP ; std::_Uninit_copy<std::_Vector_const_iterator<std::_Vector_val<int,std::allocator<int> > >,int *,std::allocator<int> >
_TEXT	ENDS
PUBLIC	??$_Uninit_copy@V?$_Vector_const_iterator@V?$_Vector_val@UtagShopItemMovieInfo@ioShopItemExtraInfoManager@@V?$allocator@UtagShopItemMovieInfo@ioShopItemExtraInfoManager@@@std@@@std@@@std@@PAUtagShopItemMovieInfo@ioShopItemExtraInfoManager@@V?$allocator@UtagShopItemMovieInfo@ioShopItemExtraInfoManager@@@2@@std@@YAPAUtagShopItemMovieInfo@ioShopItemExtraInfoManager@@V?$_Vector_const_iterator@V?$_Vector_val@UtagShopItemMovieInfo@ioShopItemExtraInfoManager@@V?$allocator@UtagShopItemMovieInfo@ioShopItemExtraInfoManager@@@std@@@std@@@0@0PAU12@AAV?$allocator@UtagShopItemMovieInfo@ioShopItemExtraInfoManager@@@0@U_Nonscalar_ptr_iterator_tag@0@@Z ; std::_Uninit_copy<std::_Vector_const_iterator<std::_Vector_val<ioShopItemExtraInfoManager::tagShopItemMovieInfo,std::allocator<ioShopItemExtraInfoManager::tagShopItemMovieInfo> > >,ioShopItemExtraInfoManager::tagShopItemMovieInfo *,std::allocator<ioShopItemExtraInfoManager::tagShopItemMovieInfo> >
EXTRN	__EH_prolog3_catch:PROC
;	COMDAT xdata$x
; File c:\program files (x86)\microsoft visual studio 10.0\vc\include\xmemory
xdata$x	SEGMENT
__catchsym$??$_Uninit_copy@V?$_Vector_const_iterator@V?$_Vector_val@UtagShopItemMovieInfo@ioShopItemExtraInfoManager@@V?$allocator@UtagShopItemMovieInfo@ioShopItemExtraInfoManager@@@std@@@std@@@std@@PAUtagShopItemMovieInfo@ioShopItemExtraInfoManager@@V?$allocator@UtagShopItemMovieInfo@ioShopItemExtraInfoManager@@@2@@std@@YAPAUtagShopItemMovieInfo@ioShopItemExtraInfoManager@@V?$_Vector_const_iterator@V?$_Vector_val@UtagShopItemMovieInfo@ioShopItemExtraInfoManager@@V?$allocator@UtagShopItemMovieInfo@ioShopItemExtraInfoManager@@@std@@@std@@@0@0PAU12@AAV?$allocator@UtagShopItemMovieInfo@ioShopItemExtraInfoManager@@@0@U_Nonscalar_ptr_iterator_tag@0@@Z$2 DD 040H
	DD	00H
	DD	00H
	DD	FLAT:__catch$??$_Uninit_copy@V?$_Vector_const_iterator@V?$_Vector_val@UtagShopItemMovieInfo@ioShopItemExtraInfoManager@@V?$allocator@UtagShopItemMovieInfo@ioShopItemExtraInfoManager@@@std@@@std@@@std@@PAUtagShopItemMovieInfo@ioShopItemExtraInfoManager@@V?$allocator@UtagShopItemMovieInfo@ioShopItemExtraInfoManager@@@2@@std@@YAPAUtagShopItemMovieInfo@ioShopItemExtraInfoManager@@V?$_Vector_const_iterator@V?$_Vector_val@UtagShopItemMovieInfo@ioShopItemExtraInfoManager@@V?$allocator@UtagShopItemMovieInfo@ioShopItemExtraInfoManager@@@std@@@std@@@0@0PAU12@AAV?$allocator@UtagShopItemMovieInfo@ioShopItemExtraInfoManager@@@0@U_Nonscalar_ptr_iterator_tag@0@@Z$0
__unwindtable$??$_Uninit_copy@V?$_Vector_const_iterator@V?$_Vector_val@UtagShopItemMovieInfo@ioShopItemExtraInfoManager@@V?$allocator@UtagShopItemMovieInfo@ioShopItemExtraInfoManager@@@std@@@std@@@std@@PAUtagShopItemMovieInfo@ioShopItemExtraInfoManager@@V?$allocator@UtagShopItemMovieInfo@ioShopItemExtraInfoManager@@@2@@std@@YAPAUtagShopItemMovieInfo@ioShopItemExtraInfoManager@@V?$_Vector_const_iterator@V?$_Vector_val@UtagShopItemMovieInfo@ioShopItemExtraInfoManager@@V?$allocator@UtagShopItemMovieInfo@ioShopItemExtraInfoManager@@@std@@@std@@@0@0PAU12@AAV?$allocator@UtagShopItemMovieInfo@ioShopItemExtraInfoManager@@@0@U_Nonscalar_ptr_iterator_tag@0@@Z DD 0ffffffffH
	DD	00H
	DD	0ffffffffH
	DD	00H
__tryblocktable$??$_Uninit_copy@V?$_Vector_const_iterator@V?$_Vector_val@UtagShopItemMovieInfo@ioShopItemExtraInfoManager@@V?$allocator@UtagShopItemMovieInfo@ioShopItemExtraInfoManager@@@std@@@std@@@std@@PAUtagShopItemMovieInfo@ioShopItemExtraInfoManager@@V?$allocator@UtagShopItemMovieInfo@ioShopItemExtraInfoManager@@@2@@std@@YAPAUtagShopItemMovieInfo@ioShopItemExtraInfoManager@@V?$_Vector_const_iterator@V?$_Vector_val@UtagShopItemMovieInfo@ioShopItemExtraInfoManager@@V?$allocator@UtagShopItemMovieInfo@ioShopItemExtraInfoManager@@@std@@@std@@@0@0PAU12@AAV?$allocator@UtagShopItemMovieInfo@ioShopItemExtraInfoManager@@@0@U_Nonscalar_ptr_iterator_tag@0@@Z DD 00H
	DD	00H
	DD	01H
	DD	01H
	DD	FLAT:__catchsym$??$_Uninit_copy@V?$_Vector_const_iterator@V?$_Vector_val@UtagShopItemMovieInfo@ioShopItemExtraInfoManager@@V?$allocator@UtagShopItemMovieInfo@ioShopItemExtraInfoManager@@@std@@@std@@@std@@PAUtagShopItemMovieInfo@ioShopItemExtraInfoManager@@V?$allocator@UtagShopItemMovieInfo@ioShopItemExtraInfoManager@@@2@@std@@YAPAUtagShopItemMovieInfo@ioShopItemExtraInfoManager@@V?$_Vector_const_iterator@V?$_Vector_val@UtagShopItemMovieInfo@ioShopItemExtraInfoManager@@V?$allocator@UtagShopItemMovieInfo@ioShopItemExtraInfoManager@@@std@@@std@@@0@0PAU12@AAV?$allocator@UtagShopItemMovieInfo@ioShopItemExtraInfoManager@@@0@U_Nonscalar_ptr_iterator_tag@0@@Z$2
__ehfuncinfo$??$_Uninit_copy@V?$_Vector_const_iterator@V?$_Vector_val@UtagShopItemMovieInfo@ioShopItemExtraInfoManager@@V?$allocator@UtagShopItemMovieInfo@ioShopItemExtraInfoManager@@@std@@@std@@@std@@PAUtagShopItemMovieInfo@ioShopItemExtraInfoManager@@V?$allocator@UtagShopItemMovieInfo@ioShopItemExtraInfoManager@@@2@@std@@YAPAUtagShopItemMovieInfo@ioShopItemExtraInfoManager@@V?$_Vector_const_iterator@V?$_Vector_val@UtagShopItemMovieInfo@ioShopItemExtraInfoManager@@V?$allocator@UtagShopItemMovieInfo@ioShopItemExtraInfoManager@@@std@@@std@@@0@0PAU12@AAV?$allocator@UtagShopItemMovieInfo@ioShopItemExtraInfoManager@@@0@U_Nonscalar_ptr_iterator_tag@0@@Z DD 019930522H
	DD	02H
	DD	FLAT:__unwindtable$??$_Uninit_copy@V?$_Vector_const_iterator@V?$_Vector_val@UtagShopItemMovieInfo@ioShopItemExtraInfoManager@@V?$allocator@UtagShopItemMovieInfo@ioShopItemExtraInfoManager@@@std@@@std@@@std@@PAUtagShopItemMovieInfo@ioShopItemExtraInfoManager@@V?$allocator@UtagShopItemMovieInfo@ioShopItemExtraInfoManager@@@2@@std@@YAPAUtagShopItemMovieInfo@ioShopItemExtraInfoManager@@V?$_Vector_const_iterator@V?$_Vector_val@UtagShopItemMovieInfo@ioShopItemExtraInfoManager@@V?$allocator@UtagShopItemMovieInfo@ioShopItemExtraInfoManager@@@std@@@std@@@0@0PAU12@AAV?$allocator@UtagShopItemMovieInfo@ioShopItemExtraInfoManager@@@0@U_Nonscalar_ptr_iterator_tag@0@@Z
	DD	01H
	DD	FLAT:__tryblocktable$??$_Uninit_copy@V?$_Vector_const_iterator@V?$_Vector_val@UtagShopItemMovieInfo@ioShopItemExtraInfoManager@@V?$allocator@UtagShopItemMovieInfo@ioShopItemExtraInfoManager@@@std@@@std@@@std@@PAUtagShopItemMovieInfo@ioShopItemExtraInfoManager@@V?$allocator@UtagShopItemMovieInfo@ioShopItemExtraInfoManager@@@2@@std@@YAPAUtagShopItemMovieInfo@ioShopItemExtraInfoManager@@V?$_Vector_const_iterator@V?$_Vector_val@UtagShopItemMovieInfo@ioShopItemExtraInfoManager@@V?$allocator@UtagShopItemMovieInfo@ioShopItemExtraInfoManager@@@std@@@std@@@0@0PAU12@AAV?$allocator@UtagShopItemMovieInfo@ioShopItemExtraInfoManager@@@0@U_Nonscalar_ptr_iterator_tag@0@@Z
	DD	2 DUP(00H)
	DD	00H
	DD	01H
; Function compile flags: /Ogsp
; File c:\program files (x86)\microsoft visual studio 10.0\vc\include\memory
xdata$x	ENDS
;	COMDAT ??$_Uninit_copy@V?$_Vector_const_iterator@V?$_Vector_val@UtagShopItemMovieInfo@ioShopItemExtraInfoManager@@V?$allocator@UtagShopItemMovieInfo@ioShopItemExtraInfoManager@@@std@@@std@@@std@@PAUtagShopItemMovieInfo@ioShopItemExtraInfoManager@@V?$allocator@UtagShopItemMovieInfo@ioShopItemExtraInfoManager@@@2@@std@@YAPAUtagShopItemMovieInfo@ioShopItemExtraInfoManager@@V?$_Vector_const_iterator@V?$_Vector_val@UtagShopItemMovieInfo@ioShopItemExtraInfoManager@@V?$allocator@UtagShopItemMovieInfo@ioShopItemExtraInfoManager@@@std@@@std@@@0@0PAU12@AAV?$allocator@UtagShopItemMovieInfo@ioShopItemExtraInfoManager@@@0@U_Nonscalar_ptr_iterator_tag@0@@Z
_TEXT	SEGMENT
__Next$ = -20						; size = 4
__$EHRec$ = -16						; size = 16
__First$ = 8						; size = 4
__Last$ = 12						; size = 4
__Dest$ = 16						; size = 4
__Al$ = 20						; size = 4
___formal$ = 24						; size = 1
??$_Uninit_copy@V?$_Vector_const_iterator@V?$_Vector_val@UtagShopItemMovieInfo@ioShopItemExtraInfoManager@@V?$allocator@UtagShopItemMovieInfo@ioShopItemExtraInfoManager@@@std@@@std@@@std@@PAUtagShopItemMovieInfo@ioShopItemExtraInfoManager@@V?$allocator@UtagShopItemMovieInfo@ioShopItemExtraInfoManager@@@2@@std@@YAPAUtagShopItemMovieInfo@ioShopItemExtraInfoManager@@V?$_Vector_const_iterator@V?$_Vector_val@UtagShopItemMovieInfo@ioShopItemExtraInfoManager@@V?$allocator@UtagShopItemMovieInfo@ioShopItemExtraInfoManager@@@std@@@std@@@0@0PAU12@AAV?$allocator@UtagShopItemMovieInfo@ioShopItemExtraInfoManager@@@0@U_Nonscalar_ptr_iterator_tag@0@@Z PROC ; std::_Uninit_copy<std::_Vector_const_iterator<std::_Vector_val<ioShopItemExtraInfoManager::tagShopItemMovieInfo,std::allocator<ioShopItemExtraInfoManager::tagShopItemMovieInfo> > >,ioShopItemExtraInfoManager::tagShopItemMovieInfo *,std::allocator<ioShopItemExtraInfoManager::tagShopItemMovieInfo> >, COMDAT

; 369  : 	{	// copy [_First, _Last) to raw _Dest, using _Al, arbitrary type

  00000	6a 08		 push	 8
  00002	b8 00 00 00 00	 mov	 eax, __ehhandler$??$_Uninit_copy@V?$_Vector_const_iterator@V?$_Vector_val@UtagShopItemMovieInfo@ioShopItemExtraInfoManager@@V?$allocator@UtagShopItemMovieInfo@ioShopItemExtraInfoManager@@@std@@@std@@@std@@PAUtagShopItemMovieInfo@ioShopItemExtraInfoManager@@V?$allocator@UtagShopItemMovieInfo@ioShopItemExtraInfoManager@@@2@@std@@YAPAUtagShopItemMovieInfo@ioShopItemExtraInfoManager@@V?$_Vector_const_iterator@V?$_Vector_val@UtagShopItemMovieInfo@ioShopItemExtraInfoManager@@V?$allocator@UtagShopItemMovieInfo@ioShopItemExtraInfoManager@@@std@@@std@@@0@0PAU12@AAV?$allocator@UtagShopItemMovieInfo@ioShopItemExtraInfoManager@@@0@U_Nonscalar_ptr_iterator_tag@0@@Z
  00007	e8 00 00 00 00	 call	 __EH_prolog3_catch

; 370  : 	_DEBUG_RANGE(_First, _Last);
; 371  : 	_DEBUG_POINTER(_Dest);
; 372  : 	_FwdIt _Next = _Dest;

  0000c	8b 45 10	 mov	 eax, DWORD PTR __Dest$[ebp]

; 373  : 
; 374  : 	_TRY_BEGIN

  0000f	83 65 fc 00	 and	 DWORD PTR __$EHRec$[ebp+12], 0
  00013	89 45 ec	 mov	 DWORD PTR __Next$[ebp], eax

; 375  : 	for (; _First != _Last; ++_Dest, ++_First)

$LL14@Uninit_cop@2:
  00016	8b 45 08	 mov	 eax, DWORD PTR __First$[ebp]
  00019	3b 45 0c	 cmp	 eax, DWORD PTR __Last$[ebp]
  0001c	74 32		 je	 SHORT $LN4@Uninit_cop@2

; 376  : 		_Cons_val(_Al, _Dest, *_First);

  0001e	50		 push	 eax
  0001f	ff 75 10	 push	 DWORD PTR __Dest$[ebp]
  00022	e8 00 00 00 00	 call	 ??$_Construct@UtagShopItemMovieInfo@ioShopItemExtraInfoManager@@ABU12@@std@@YAXPAUtagShopItemMovieInfo@ioShopItemExtraInfoManager@@ABU12@@Z ; std::_Construct<ioShopItemExtraInfoManager::tagShopItemMovieInfo,ioShopItemExtraInfoManager::tagShopItemMovieInfo const &>
  00027	83 45 10 34	 add	 DWORD PTR __Dest$[ebp], 52 ; 00000034H
  0002b	83 45 08 34	 add	 DWORD PTR __First$[ebp], 52 ; 00000034H
  0002f	59		 pop	 ecx
  00030	59		 pop	 ecx
  00031	eb e3		 jmp	 SHORT $LL14@Uninit_cop@2
__catch$??$_Uninit_copy@V?$_Vector_const_iterator@V?$_Vector_val@UtagShopItemMovieInfo@ioShopItemExtraInfoManager@@V?$allocator@UtagShopItemMovieInfo@ioShopItemExtraInfoManager@@@std@@@std@@@std@@PAUtagShopItemMovieInfo@ioShopItemExtraInfoManager@@V?$allocator@UtagShopItemMovieInfo@ioShopItemExtraInfoManager@@@2@@std@@YAPAUtagShopItemMovieInfo@ioShopItemExtraInfoManager@@V?$_Vector_const_iterator@V?$_Vector_val@UtagShopItemMovieInfo@ioShopItemExtraInfoManager@@V?$allocator@UtagShopItemMovieInfo@ioShopItemExtraInfoManager@@@std@@@std@@@0@0PAU12@AAV?$allocator@UtagShopItemMovieInfo@ioShopItemExtraInfoManager@@@0@U_Nonscalar_ptr_iterator_tag@0@@Z$0:

; 377  : 	_CATCH_ALL
; 378  : 	for (; _Next != _Dest; ++_Next)

  00033	8b 75 ec	 mov	 esi, DWORD PTR __Next$[ebp]
  00036	eb 0a		 jmp	 SHORT $LN45@Uninit_cop@2
$LL3@Uninit_cop@2:

; 379  : 		_Dest_val(_Al, _Next);

  00038	8b ce		 mov	 ecx, esi
  0003a	e8 00 00 00 00	 call	 ??1tagShopItemMovieInfo@ioShopItemExtraInfoManager@@QAE@XZ
  0003f	83 c6 34	 add	 esi, 52			; 00000034H
$LN45@Uninit_cop@2:

; 377  : 	_CATCH_ALL
; 378  : 	for (; _Next != _Dest; ++_Next)

  00042	3b 75 10	 cmp	 esi, DWORD PTR __Dest$[ebp]
  00045	75 f1		 jne	 SHORT $LL3@Uninit_cop@2

; 380  : 	_RERAISE;

  00047	6a 00		 push	 0
  00049	6a 00		 push	 0
  0004b	e8 00 00 00 00	 call	 __CxxThrowException@8
$LN46@Uninit_cop@2:
$LN4@Uninit_cop@2:

; 381  : 	_CATCH_END
; 382  : 	return (_Dest);

  00050	8b 45 10	 mov	 eax, DWORD PTR __Dest$[ebp]

; 383  : 	}

  00053	e8 00 00 00 00	 call	 __EH_epilog3
  00058	c3		 ret	 0
$LN44@Uninit_cop@2:
_TEXT	ENDS
;	COMDAT text$x
text$x	SEGMENT
__ehhandler$??$_Uninit_copy@V?$_Vector_const_iterator@V?$_Vector_val@UtagShopItemMovieInfo@ioShopItemExtraInfoManager@@V?$allocator@UtagShopItemMovieInfo@ioShopItemExtraInfoManager@@@std@@@std@@@std@@PAUtagShopItemMovieInfo@ioShopItemExtraInfoManager@@V?$allocator@UtagShopItemMovieInfo@ioShopItemExtraInfoManager@@@2@@std@@YAPAUtagShopItemMovieInfo@ioShopItemExtraInfoManager@@V?$_Vector_const_iterator@V?$_Vector_val@UtagShopItemMovieInfo@ioShopItemExtraInfoManager@@V?$allocator@UtagShopItemMovieInfo@ioShopItemExtraInfoManager@@@std@@@std@@@0@0PAU12@AAV?$allocator@UtagShopItemMovieInfo@ioShopItemExtraInfoManager@@@0@U_Nonscalar_ptr_iterator_tag@0@@Z:
  00000	8b 54 24 08	 mov	 edx, DWORD PTR [esp+8]
  00004	8d 42 0c	 lea	 eax, DWORD PTR [edx+12]
  00007	8b 4a e8	 mov	 ecx, DWORD PTR [edx-24]
  0000a	33 c8		 xor	 ecx, eax
  0000c	e8 00 00 00 00	 call	 @__security_check_cookie@4
  00011	b8 00 00 00 00	 mov	 eax, OFFSET __ehfuncinfo$??$_Uninit_copy@V?$_Vector_const_iterator@V?$_Vector_val@UtagShopItemMovieInfo@ioShopItemExtraInfoManager@@V?$allocator@UtagShopItemMovieInfo@ioShopItemExtraInfoManager@@@std@@@std@@@std@@PAUtagShopItemMovieInfo@ioShopItemExtraInfoManager@@V?$allocator@UtagShopItemMovieInfo@ioShopItemExtraInfoManager@@@2@@std@@YAPAUtagShopItemMovieInfo@ioShopItemExtraInfoManager@@V?$_Vector_const_iterator@V?$_Vector_val@UtagShopItemMovieInfo@ioShopItemExtraInfoManager@@V?$allocator@UtagShopItemMovieInfo@ioShopItemExtraInfoManager@@@std@@@std@@@0@0PAU12@AAV?$allocator@UtagShopItemMovieInfo@ioShopItemExtraInfoManager@@@0@U_Nonscalar_ptr_iterator_tag@0@@Z
  00016	e9 00 00 00 00	 jmp	 ___CxxFrameHandler3
text$x	ENDS
??$_Uninit_copy@V?$_Vector_const_iterator@V?$_Vector_val@UtagShopItemMovieInfo@ioShopItemExtraInfoManager@@V?$allocator@UtagShopItemMovieInfo@ioShopItemExtraInfoManager@@@std@@@std@@@std@@PAUtagShopItemMovieInfo@ioShopItemExtraInfoManager@@V?$allocator@UtagShopItemMovieInfo@ioShopItemExtraInfoManager@@@2@@std@@YAPAUtagShopItemMovieInfo@ioShopItemExtraInfoManager@@V?$_Vector_const_iterator@V?$_Vector_val@UtagShopItemMovieInfo@ioShopItemExtraInfoManager@@V?$allocator@UtagShopItemMovieInfo@ioShopItemExtraInfoManager@@@std@@@std@@@0@0PAU12@AAV?$allocator@UtagShopItemMovieInfo@ioShopItemExtraInfoManager@@@0@U_Nonscalar_ptr_iterator_tag@0@@Z ENDP ; std::_Uninit_copy<std::_Vector_const_iterator<std::_Vector_val<ioShopItemExtraInfoManager::tagShopItemMovieInfo,std::allocator<ioShopItemExtraInfoManager::tagShopItemMovieInfo> > >,ioShopItemExtraInfoManager::tagShopItemMovieInfo *,std::allocator<ioShopItemExtraInfoManager::tagShopItemMovieInfo> >
PUBLIC	??$_Uninit_copy@PAUtagShopItemMovieInfo@ioShopItemExtraInfoManager@@PAU12@V?$allocator@UtagShopItemMovieInfo@ioShopItemExtraInfoManager@@@std@@@std@@YAPAUtagShopItemMovieInfo@ioShopItemExtraInfoManager@@PAU12@00AAV?$allocator@UtagShopItemMovieInfo@ioShopItemExtraInfoManager@@@0@U_Nonscalar_ptr_iterator_tag@0@@Z ; std::_Uninit_copy<ioShopItemExtraInfoManager::tagShopItemMovieInfo *,ioShopItemExtraInfoManager::tagShopItemMovieInfo *,std::allocator<ioShopItemExtraInfoManager::tagShopItemMovieInfo> >
;	COMDAT xdata$x
; File c:\program files (x86)\microsoft visual studio 10.0\vc\include\xmemory
xdata$x	SEGMENT
__catchsym$??$_Uninit_copy@PAUtagShopItemMovieInfo@ioShopItemExtraInfoManager@@PAU12@V?$allocator@UtagShopItemMovieInfo@ioShopItemExtraInfoManager@@@std@@@std@@YAPAUtagShopItemMovieInfo@ioShopItemExtraInfoManager@@PAU12@00AAV?$allocator@UtagShopItemMovieInfo@ioShopItemExtraInfoManager@@@0@U_Nonscalar_ptr_iterator_tag@0@@Z$2 DD 040H
	DD	00H
	DD	00H
	DD	FLAT:__catch$??$_Uninit_copy@PAUtagShopItemMovieInfo@ioShopItemExtraInfoManager@@PAU12@V?$allocator@UtagShopItemMovieInfo@ioShopItemExtraInfoManager@@@std@@@std@@YAPAUtagShopItemMovieInfo@ioShopItemExtraInfoManager@@PAU12@00AAV?$allocator@UtagShopItemMovieInfo@ioShopItemExtraInfoManager@@@0@U_Nonscalar_ptr_iterator_tag@0@@Z$0
__unwindtable$??$_Uninit_copy@PAUtagShopItemMovieInfo@ioShopItemExtraInfoManager@@PAU12@V?$allocator@UtagShopItemMovieInfo@ioShopItemExtraInfoManager@@@std@@@std@@YAPAUtagShopItemMovieInfo@ioShopItemExtraInfoManager@@PAU12@00AAV?$allocator@UtagShopItemMovieInfo@ioShopItemExtraInfoManager@@@0@U_Nonscalar_ptr_iterator_tag@0@@Z DD 0ffffffffH
	DD	00H
	DD	0ffffffffH
	DD	00H
__tryblocktable$??$_Uninit_copy@PAUtagShopItemMovieInfo@ioShopItemExtraInfoManager@@PAU12@V?$allocator@UtagShopItemMovieInfo@ioShopItemExtraInfoManager@@@std@@@std@@YAPAUtagShopItemMovieInfo@ioShopItemExtraInfoManager@@PAU12@00AAV?$allocator@UtagShopItemMovieInfo@ioShopItemExtraInfoManager@@@0@U_Nonscalar_ptr_iterator_tag@0@@Z DD 00H
	DD	00H
	DD	01H
	DD	01H
	DD	FLAT:__catchsym$??$_Uninit_copy@PAUtagShopItemMovieInfo@ioShopItemExtraInfoManager@@PAU12@V?$allocator@UtagShopItemMovieInfo@ioShopItemExtraInfoManager@@@std@@@std@@YAPAUtagShopItemMovieInfo@ioShopItemExtraInfoManager@@PAU12@00AAV?$allocator@UtagShopItemMovieInfo@ioShopItemExtraInfoManager@@@0@U_Nonscalar_ptr_iterator_tag@0@@Z$2
__ehfuncinfo$??$_Uninit_copy@PAUtagShopItemMovieInfo@ioShopItemExtraInfoManager@@PAU12@V?$allocator@UtagShopItemMovieInfo@ioShopItemExtraInfoManager@@@std@@@std@@YAPAUtagShopItemMovieInfo@ioShopItemExtraInfoManager@@PAU12@00AAV?$allocator@UtagShopItemMovieInfo@ioShopItemExtraInfoManager@@@0@U_Nonscalar_ptr_iterator_tag@0@@Z DD 019930522H
	DD	02H
	DD	FLAT:__unwindtable$??$_Uninit_copy@PAUtagShopItemMovieInfo@ioShopItemExtraInfoManager@@PAU12@V?$allocator@UtagShopItemMovieInfo@ioShopItemExtraInfoManager@@@std@@@std@@YAPAUtagShopItemMovieInfo@ioShopItemExtraInfoManager@@PAU12@00AAV?$allocator@UtagShopItemMovieInfo@ioShopItemExtraInfoManager@@@0@U_Nonscalar_ptr_iterator_tag@0@@Z
	DD	01H
	DD	FLAT:__tryblocktable$??$_Uninit_copy@PAUtagShopItemMovieInfo@ioShopItemExtraInfoManager@@PAU12@V?$allocator@UtagShopItemMovieInfo@ioShopItemExtraInfoManager@@@std@@@std@@YAPAUtagShopItemMovieInfo@ioShopItemExtraInfoManager@@PAU12@00AAV?$allocator@UtagShopItemMovieInfo@ioShopItemExtraInfoManager@@@0@U_Nonscalar_ptr_iterator_tag@0@@Z
	DD	2 DUP(00H)
	DD	00H
	DD	01H
; Function compile flags: /Ogsp
; File c:\program files (x86)\microsoft visual studio 10.0\vc\include\memory
xdata$x	ENDS
;	COMDAT ??$_Uninit_copy@PAUtagShopItemMovieInfo@ioShopItemExtraInfoManager@@PAU12@V?$allocator@UtagShopItemMovieInfo@ioShopItemExtraInfoManager@@@std@@@std@@YAPAUtagShopItemMovieInfo@ioShopItemExtraInfoManager@@PAU12@00AAV?$allocator@UtagShopItemMovieInfo@ioShopItemExtraInfoManager@@@0@U_Nonscalar_ptr_iterator_tag@0@@Z
_TEXT	SEGMENT
__Next$ = -20						; size = 4
__$EHRec$ = -16						; size = 16
__First$ = 8						; size = 4
__Last$ = 12						; size = 4
__Dest$ = 16						; size = 4
__Al$ = 20						; size = 4
___formal$ = 24						; size = 1
??$_Uninit_copy@PAUtagShopItemMovieInfo@ioShopItemExtraInfoManager@@PAU12@V?$allocator@UtagShopItemMovieInfo@ioShopItemExtraInfoManager@@@std@@@std@@YAPAUtagShopItemMovieInfo@ioShopItemExtraInfoManager@@PAU12@00AAV?$allocator@UtagShopItemMovieInfo@ioShopItemExtraInfoManager@@@0@U_Nonscalar_ptr_iterator_tag@0@@Z PROC ; std::_Uninit_copy<ioShopItemExtraInfoManager::tagShopItemMovieInfo *,ioShopItemExtraInfoManager::tagShopItemMovieInfo *,std::allocator<ioShopItemExtraInfoManager::tagShopItemMovieInfo> >, COMDAT

; 369  : 	{	// copy [_First, _Last) to raw _Dest, using _Al, arbitrary type

  00000	6a 08		 push	 8
  00002	b8 00 00 00 00	 mov	 eax, __ehhandler$??$_Uninit_copy@PAUtagShopItemMovieInfo@ioShopItemExtraInfoManager@@PAU12@V?$allocator@UtagShopItemMovieInfo@ioShopItemExtraInfoManager@@@std@@@std@@YAPAUtagShopItemMovieInfo@ioShopItemExtraInfoManager@@PAU12@00AAV?$allocator@UtagShopItemMovieInfo@ioShopItemExtraInfoManager@@@0@U_Nonscalar_ptr_iterator_tag@0@@Z
  00007	e8 00 00 00 00	 call	 __EH_prolog3_catch

; 370  : 	_DEBUG_RANGE(_First, _Last);
; 371  : 	_DEBUG_POINTER(_Dest);
; 372  : 	_FwdIt _Next = _Dest;

  0000c	8b 45 10	 mov	 eax, DWORD PTR __Dest$[ebp]

; 373  : 
; 374  : 	_TRY_BEGIN

  0000f	83 65 fc 00	 and	 DWORD PTR __$EHRec$[ebp+12], 0
  00013	8b 75 08	 mov	 esi, DWORD PTR __First$[ebp]
  00016	89 45 ec	 mov	 DWORD PTR __Next$[ebp], eax
$LL6@Uninit_cop@3:

; 375  : 	for (; _First != _Last; ++_Dest, ++_First)

  00019	3b 75 0c	 cmp	 esi, DWORD PTR __Last$[ebp]
  0001c	74 35		 je	 SHORT $LN4@Uninit_cop@3

; 376  : 		_Cons_val(_Al, _Dest, *_First);

  0001e	56		 push	 esi
  0001f	ff 75 10	 push	 DWORD PTR __Dest$[ebp]
  00022	ff 75 14	 push	 DWORD PTR __Al$[ebp]
  00025	e8 00 00 00 00	 call	 ??$_Cons_val@V?$allocator@UtagShopItemMovieInfo@ioShopItemExtraInfoManager@@@std@@UtagShopItemMovieInfo@ioShopItemExtraInfoManager@@AAU34@@std@@YAXAAV?$allocator@UtagShopItemMovieInfo@ioShopItemExtraInfoManager@@@0@PAUtagShopItemMovieInfo@ioShopItemExtraInfoManager@@AAU23@@Z ; std::_Cons_val<std::allocator<ioShopItemExtraInfoManager::tagShopItemMovieInfo>,ioShopItemExtraInfoManager::tagShopItemMovieInfo,ioShopItemExtraInfoManager::tagShopItemMovieInfo &>
  0002a	83 45 10 34	 add	 DWORD PTR __Dest$[ebp], 52 ; 00000034H
  0002e	83 c4 0c	 add	 esp, 12			; 0000000cH
  00031	83 c6 34	 add	 esi, 52			; 00000034H
  00034	eb e3		 jmp	 SHORT $LL6@Uninit_cop@3
__catch$??$_Uninit_copy@PAUtagShopItemMovieInfo@ioShopItemExtraInfoManager@@PAU12@V?$allocator@UtagShopItemMovieInfo@ioShopItemExtraInfoManager@@@std@@@std@@YAPAUtagShopItemMovieInfo@ioShopItemExtraInfoManager@@PAU12@00AAV?$allocator@UtagShopItemMovieInfo@ioShopItemExtraInfoManager@@@0@U_Nonscalar_ptr_iterator_tag@0@@Z$0:

; 377  : 	_CATCH_ALL
; 378  : 	for (; _Next != _Dest; ++_Next)

  00036	8b 75 ec	 mov	 esi, DWORD PTR __Next$[ebp]
  00039	eb 0a		 jmp	 SHORT $LN29@Uninit_cop@3
$LL3@Uninit_cop@3:

; 379  : 		_Dest_val(_Al, _Next);

  0003b	8b ce		 mov	 ecx, esi
  0003d	e8 00 00 00 00	 call	 ??1tagShopItemMovieInfo@ioShopItemExtraInfoManager@@QAE@XZ
  00042	83 c6 34	 add	 esi, 52			; 00000034H
$LN29@Uninit_cop@3:

; 377  : 	_CATCH_ALL
; 378  : 	for (; _Next != _Dest; ++_Next)

  00045	3b 75 10	 cmp	 esi, DWORD PTR __Dest$[ebp]
  00048	75 f1		 jne	 SHORT $LL3@Uninit_cop@3

; 380  : 	_RERAISE;

  0004a	6a 00		 push	 0
  0004c	6a 00		 push	 0
  0004e	e8 00 00 00 00	 call	 __CxxThrowException@8
$LN30@Uninit_cop@3:
$LN4@Uninit_cop@3:

; 381  : 	_CATCH_END
; 382  : 	return (_Dest);

  00053	8b 45 10	 mov	 eax, DWORD PTR __Dest$[ebp]

; 383  : 	}

  00056	e8 00 00 00 00	 call	 __EH_epilog3
  0005b	c3		 ret	 0
$LN28@Uninit_cop@3:
_TEXT	ENDS
;	COMDAT text$x
text$x	SEGMENT
__ehhandler$??$_Uninit_copy@PAUtagShopItemMovieInfo@ioShopItemExtraInfoManager@@PAU12@V?$allocator@UtagShopItemMovieInfo@ioShopItemExtraInfoManager@@@std@@@std@@YAPAUtagShopItemMovieInfo@ioShopItemExtraInfoManager@@PAU12@00AAV?$allocator@UtagShopItemMovieInfo@ioShopItemExtraInfoManager@@@0@U_Nonscalar_ptr_iterator_tag@0@@Z:
  00000	8b 54 24 08	 mov	 edx, DWORD PTR [esp+8]
  00004	8d 42 0c	 lea	 eax, DWORD PTR [edx+12]
  00007	8b 4a e8	 mov	 ecx, DWORD PTR [edx-24]
  0000a	33 c8		 xor	 ecx, eax
  0000c	e8 00 00 00 00	 call	 @__security_check_cookie@4
  00011	b8 00 00 00 00	 mov	 eax, OFFSET __ehfuncinfo$??$_Uninit_copy@PAUtagShopItemMovieInfo@ioShopItemExtraInfoManager@@PAU12@V?$allocator@UtagShopItemMovieInfo@ioShopItemExtraInfoManager@@@std@@@std@@YAPAUtagShopItemMovieInfo@ioShopItemExtraInfoManager@@PAU12@00AAV?$allocator@UtagShopItemMovieInfo@ioShopItemExtraInfoManager@@@0@U_Nonscalar_ptr_iterator_tag@0@@Z
  00016	e9 00 00 00 00	 jmp	 ___CxxFrameHandler3
text$x	ENDS
??$_Uninit_copy@PAUtagShopItemMovieInfo@ioShopItemExtraInfoManager@@PAU12@V?$allocator@UtagShopItemMovieInfo@ioShopItemExtraInfoManager@@@std@@@std@@YAPAUtagShopItemMovieInfo@ioShopItemExtraInfoManager@@PAU12@00AAV?$allocator@UtagShopItemMovieInfo@ioShopItemExtraInfoManager@@@0@U_Nonscalar_ptr_iterator_tag@0@@Z ENDP ; std::_Uninit_copy<ioShopItemExtraInfoManager::tagShopItemMovieInfo *,ioShopItemExtraInfoManager::tagShopItemMovieInfo *,std::allocator<ioShopItemExtraInfoManager::tagShopItemMovieInfo> >
PUBLIC	?erase@?$vector@HV?$allocator@H@std@@@std@@QAE?AV?$_Vector_iterator@V?$_Vector_val@HV?$allocator@H@std@@@std@@@2@V?$_Vector_const_iterator@V?$_Vector_val@HV?$allocator@H@std@@@std@@@2@0@Z ; std::vector<int,std::allocator<int> >::erase
; Function compile flags: /Ogsp
; File c:\program files (x86)\microsoft visual studio 10.0\vc\include\vector
;	COMDAT ?erase@?$vector@HV?$allocator@H@std@@@std@@QAE?AV?$_Vector_iterator@V?$_Vector_val@HV?$allocator@H@std@@@std@@@2@V?$_Vector_const_iterator@V?$_Vector_val@HV?$allocator@H@std@@@std@@@2@0@Z
_TEXT	SEGMENT
___$ReturnUdt$ = 8					; size = 4
__First_arg$ = 12					; size = 4
__Cat$512303 = 16					; size = 1
__Last_arg$ = 16					; size = 4
?erase@?$vector@HV?$allocator@H@std@@@std@@QAE?AV?$_Vector_iterator@V?$_Vector_val@HV?$allocator@H@std@@@std@@@2@V?$_Vector_const_iterator@V?$_Vector_val@HV?$allocator@H@std@@@std@@@2@0@Z PROC ; std::vector<int,std::allocator<int> >::erase, COMDAT
; _this$ = ecx

; 1190 : 		{	// erase [_First, _Last)

  00000	55		 push	 ebp
  00001	8b ec		 mov	 ebp, esp

; 1191 : 		iterator _First = _Make_iter(_First_arg);

  00003	8b 45 0c	 mov	 eax, DWORD PTR __First_arg$[ebp]
  00006	56		 push	 esi
  00007	57		 push	 edi
  00008	8b 7d 08	 mov	 edi, DWORD PTR ___$ReturnUdt$[ebp]
  0000b	8b f1		 mov	 esi, ecx
  0000d	89 07		 mov	 DWORD PTR [edi], eax

; 1192 : 		iterator _Last = _Make_iter(_Last_arg);
; 1193 : 
; 1194 : 		if (_First != _Last)

  0000f	3b 45 10	 cmp	 eax, DWORD PTR __Last_arg$[ebp]
  00012	74 16		 je	 SHORT $LN1@erase

; 1195 : 			{	// worth doing, copy down over hole
; 1196 :  #if _ITERATOR_DEBUG_LEVEL == 2
; 1197 : 			if (_Last < _First || _VICONT(_First) != this
; 1198 : 				|| _VIPTR(_First) < this->_Myfirst
; 1199 : 				|| this->_Mylast < _VIPTR(_Last))
; 1200 : 				_DEBUG_ERROR("vector erase iterator outside range");
; 1201 : 			pointer _Ptr = _Move(_VIPTR(_Last), this->_Mylast,
; 1202 : 				_VIPTR(_First));
; 1203 : 			_Orphan_range(_VIPTR(_First), this->_Mylast);
; 1204 : 
; 1205 :  #else /* _ITERATOR_DEBUG_LEVEL == 2 */
; 1206 : 			pointer _Ptr = _Move(_VIPTR(_Last), this->_Mylast,
; 1207 : 				_VIPTR(_First));

  00014	ff 75 10	 push	 DWORD PTR __Cat$512303[ebp]
  00017	8b 4e 04	 mov	 ecx, DWORD PTR [esi+4]
  0001a	50		 push	 eax
  0001b	51		 push	 ecx
  0001c	ff 75 10	 push	 DWORD PTR __Last_arg$[ebp]
  0001f	e8 00 00 00 00	 call	 ??$_Move@PAHPAH@std@@YAPAHPAH00U_Scalar_ptr_iterator_tag@0@@Z ; std::_Move<int *,int *>
  00024	83 c4 10	 add	 esp, 16			; 00000010H

; 1208 :  #endif /* _ITERATOR_DEBUG_LEVEL == 2 */
; 1209 : 
; 1210 : 			_Destroy(_Ptr, this->_Mylast);
; 1211 : 			this->_Mylast = _Ptr;

  00027	89 46 04	 mov	 DWORD PTR [esi+4], eax
$LN1@erase:

; 1212 : 			}
; 1213 : 		return (_First);

  0002a	8b c7		 mov	 eax, edi
  0002c	5f		 pop	 edi
  0002d	5e		 pop	 esi

; 1214 : 		}

  0002e	5d		 pop	 ebp
  0002f	c2 0c 00	 ret	 12			; 0000000cH
?erase@?$vector@HV?$allocator@H@std@@@std@@QAE?AV?$_Vector_iterator@V?$_Vector_val@HV?$allocator@H@std@@@std@@@2@V?$_Vector_const_iterator@V?$_Vector_val@HV?$allocator@H@std@@@std@@@2@0@Z ENDP ; std::vector<int,std::allocator<int> >::erase
_TEXT	ENDS
PUBLIC	?_Tidy@?$vector@HV?$allocator@H@std@@@std@@IAEXXZ ; std::vector<int,std::allocator<int> >::_Tidy
EXTRN	__imp_?_Orphan_all@_Container_base0@std@@QAEXXZ:PROC
; Function compile flags: /Ogsp
;	COMDAT ?_Tidy@?$vector@HV?$allocator@H@std@@@std@@IAEXXZ
_TEXT	SEGMENT
?_Tidy@?$vector@HV?$allocator@H@std@@@std@@IAEXXZ PROC	; std::vector<int,std::allocator<int> >::_Tidy, COMDAT
; _this$ = ecx

; 1301 : 		{	// free all storage

  00000	56		 push	 esi
  00001	8b f1		 mov	 esi, ecx

; 1302 : 		if (this->_Myfirst != 0)

  00003	83 3e 00	 cmp	 DWORD PTR [esi], 0
  00006	74 0e		 je	 SHORT $LN12@Tidy

; 1303 : 			{	// something to free, destroy and deallocate it
; 1304 : 			this->_Orphan_all();

  00008	ff 15 00 00 00
	00		 call	 DWORD PTR __imp_?_Orphan_all@_Container_base0@std@@QAEXXZ

; 1305 : 			_Destroy(this->_Myfirst, this->_Mylast);
; 1306 : 			this->_Alval.deallocate(this->_Myfirst,
; 1307 : 				this->_Myend - this->_Myfirst);

  0000e	ff 36		 push	 DWORD PTR [esi]
  00010	e8 00 00 00 00	 call	 ??3@YAXPAX@Z		; operator delete
  00015	59		 pop	 ecx
$LN12@Tidy:

; 1308 : 			}
; 1309 : 		this->_Myfirst = 0;

  00016	83 26 00	 and	 DWORD PTR [esi], 0

; 1310 : 		this->_Mylast = 0;

  00019	83 66 04 00	 and	 DWORD PTR [esi+4], 0

; 1311 : 		this->_Myend = 0;

  0001d	83 66 08 00	 and	 DWORD PTR [esi+8], 0
  00021	5e		 pop	 esi

; 1312 : 		}

  00022	c3		 ret	 0
?_Tidy@?$vector@HV?$allocator@H@std@@@std@@IAEXXZ ENDP	; std::vector<int,std::allocator<int> >::_Tidy
_TEXT	ENDS
PUBLIC	?reserve@?$vector@HV?$allocator@H@std@@@std@@QAEXI@Z ; std::vector<int,std::allocator<int> >::reserve
; Function compile flags: /Ogsp
;	COMDAT ?reserve@?$vector@HV?$allocator@H@std@@@std@@QAEXI@Z
_TEXT	SEGMENT
__Count$ = 8						; size = 4
?reserve@?$vector@HV?$allocator@H@std@@@std@@QAEXI@Z PROC ; std::vector<int,std::allocator<int> >::reserve, COMDAT
; _this$ = ecx

; 746  : 		{	// determine new minimum length of allocated storage

  00000	55		 push	 ebp
  00001	8b ec		 mov	 ebp, esp

; 747  : 		if (max_size() < _Count)

  00003	81 7d 08 ff ff
	ff 3f		 cmp	 DWORD PTR __Count$[ebp], 1073741823 ; 3fffffffH
  0000a	56		 push	 esi
  0000b	8b f1		 mov	 esi, ecx
  0000d	76 0b		 jbe	 SHORT $LN5@reserve

; 748  : 			_Xlen();	// result too long

  0000f	68 00 00 00 00	 push	 OFFSET ??_C@_0BD@OLBABOEK@vector?$DMT?$DO?5too?5long?$AA@
  00014	ff 15 00 00 00
	00		 call	 DWORD PTR __imp_?_Xlength_error@std@@YAXPBD@Z
$LN43@reserve:
$LN5@reserve:

; 749  : 		else if (capacity() < _Count)

  0001a	8b 46 08	 mov	 eax, DWORD PTR [esi+8]
  0001d	2b 06		 sub	 eax, DWORD PTR [esi]
  0001f	c1 f8 02	 sar	 eax, 2
  00022	3b 45 08	 cmp	 eax, DWORD PTR __Count$[ebp]
  00025	73 52		 jae	 SHORT $LN3@reserve

; 750  : 			{	// not enough room, reallocate
; 751  : 			pointer _Ptr = this->_Alval.allocate(_Count);

  00027	53		 push	 ebx
  00028	57		 push	 edi
  00029	6a 00		 push	 0
  0002b	ff 75 08	 push	 DWORD PTR __Count$[ebp]
  0002e	e8 00 00 00 00	 call	 ??$_Allocate@H@std@@YAPAHIPAH@Z ; std::_Allocate<int>

; 752  : 
; 753  : 			_TRY_BEGIN
; 754  : 			_Umove(this->_Myfirst, this->_Mylast, _Ptr);

  00033	8b 0e		 mov	 ecx, DWORD PTR [esi]
  00035	8d 56 0c	 lea	 edx, DWORD PTR [esi+12]
  00038	52		 push	 edx
  00039	8b d8		 mov	 ebx, eax
  0003b	8b 46 04	 mov	 eax, DWORD PTR [esi+4]
  0003e	53		 push	 ebx
  0003f	50		 push	 eax
  00040	51		 push	 ecx
  00041	e8 00 00 00 00	 call	 ??$_Uninitialized_move@PAHPAHV?$allocator@H@std@@@std@@YAPAHPAH00AAV?$allocator@H@0@@Z ; std::_Uninitialized_move<int *,int *,std::allocator<int> >

; 755  : 			_CATCH_ALL
; 756  : 			this->_Alval.deallocate(_Ptr, _Count);
; 757  : 			_RERAISE;
; 758  : 			_CATCH_END
; 759  : 
; 760  : 			size_type _Size = size();

  00046	8b 06		 mov	 eax, DWORD PTR [esi]
  00048	8b 7e 04	 mov	 edi, DWORD PTR [esi+4]
  0004b	2b f8		 sub	 edi, eax
  0004d	83 c4 18	 add	 esp, 24			; 00000018H
  00050	c1 ff 02	 sar	 edi, 2

; 761  : 			if (this->_Myfirst != 0)

  00053	85 c0		 test	 eax, eax
  00055	74 07		 je	 SHORT $LN39@reserve

; 762  : 				{	// destroy and deallocate old array
; 763  : 				_Destroy(this->_Myfirst, this->_Mylast);
; 764  : 				this->_Alval.deallocate(this->_Myfirst,
; 765  : 					this->_Myend - this->_Myfirst);

  00057	50		 push	 eax
  00058	e8 00 00 00 00	 call	 ??3@YAXPAX@Z		; operator delete
  0005d	59		 pop	 ecx
$LN39@reserve:

; 766  : 				}
; 767  : 
; 768  : 			this->_Orphan_all();

  0005e	8b ce		 mov	 ecx, esi
  00060	ff 15 00 00 00
	00		 call	 DWORD PTR __imp_?_Orphan_all@_Container_base0@std@@QAEXXZ

; 769  : 			this->_Myend = _Ptr + _Count;

  00066	8b 45 08	 mov	 eax, DWORD PTR __Count$[ebp]
  00069	8d 04 83	 lea	 eax, DWORD PTR [ebx+eax*4]
  0006c	89 46 08	 mov	 DWORD PTR [esi+8], eax

; 770  : 			this->_Mylast = _Ptr + _Size;

  0006f	8d 04 bb	 lea	 eax, DWORD PTR [ebx+edi*4]
  00072	5f		 pop	 edi

; 771  : 			this->_Myfirst = _Ptr;

  00073	89 1e		 mov	 DWORD PTR [esi], ebx
  00075	89 46 04	 mov	 DWORD PTR [esi+4], eax
  00078	5b		 pop	 ebx
$LN3@reserve:
  00079	5e		 pop	 esi

; 772  : 			}
; 773  : 		}

  0007a	5d		 pop	 ebp
  0007b	c2 04 00	 ret	 4
$LN42@reserve:
?reserve@?$vector@HV?$allocator@H@std@@@std@@QAEXI@Z ENDP ; std::vector<int,std::allocator<int> >::reserve
_TEXT	ENDS
PUBLIC	??$_Destroy_range@V?$allocator@UtagShopItemMovieInfo@ioShopItemExtraInfoManager@@@std@@@std@@YAXPAUtagShopItemMovieInfo@ioShopItemExtraInfoManager@@0AAV?$allocator@UtagShopItemMovieInfo@ioShopItemExtraInfoManager@@@0@U_Nonscalar_ptr_iterator_tag@0@@Z ; std::_Destroy_range<std::allocator<ioShopItemExtraInfoManager::tagShopItemMovieInfo> >
; Function compile flags: /Ogsp
; File c:\program files (x86)\microsoft visual studio 10.0\vc\include\xmemory
;	COMDAT ??$_Destroy_range@V?$allocator@UtagShopItemMovieInfo@ioShopItemExtraInfoManager@@@std@@@std@@YAXPAUtagShopItemMovieInfo@ioShopItemExtraInfoManager@@0AAV?$allocator@UtagShopItemMovieInfo@ioShopItemExtraInfoManager@@@0@U_Nonscalar_ptr_iterator_tag@0@@Z
_TEXT	SEGMENT
__First$ = 8						; size = 4
__Last$ = 12						; size = 4
__Al$ = 16						; size = 4
___formal$ = 20						; size = 1
??$_Destroy_range@V?$allocator@UtagShopItemMovieInfo@ioShopItemExtraInfoManager@@@std@@@std@@YAXPAUtagShopItemMovieInfo@ioShopItemExtraInfoManager@@0AAV?$allocator@UtagShopItemMovieInfo@ioShopItemExtraInfoManager@@@0@U_Nonscalar_ptr_iterator_tag@0@@Z PROC ; std::_Destroy_range<std::allocator<ioShopItemExtraInfoManager::tagShopItemMovieInfo> >, COMDAT

; 95   : 	{	// destroy [_First, _Last), arbitrary type

  00000	55		 push	 ebp
  00001	8b ec		 mov	 ebp, esp
  00003	56		 push	 esi

; 96   : 	for (; _First != _Last; ++_First)

  00004	8b 75 08	 mov	 esi, DWORD PTR __First$[ebp]
  00007	eb 0a		 jmp	 SHORT $LN17@Destroy_ra
$LL3@Destroy_ra:

; 97   : 		_Dest_val(_Al, _First);

  00009	8b ce		 mov	 ecx, esi
  0000b	e8 00 00 00 00	 call	 ??1tagShopItemMovieInfo@ioShopItemExtraInfoManager@@QAE@XZ
  00010	83 c6 34	 add	 esi, 52			; 00000034H
$LN17@Destroy_ra:

; 96   : 	for (; _First != _Last; ++_First)

  00013	3b 75 0c	 cmp	 esi, DWORD PTR __Last$[ebp]
  00016	75 f1		 jne	 SHORT $LL3@Destroy_ra
  00018	5e		 pop	 esi

; 98   : 	}

  00019	5d		 pop	 ebp
  0001a	c3		 ret	 0
??$_Destroy_range@V?$allocator@UtagShopItemMovieInfo@ioShopItemExtraInfoManager@@@std@@@std@@YAXPAUtagShopItemMovieInfo@ioShopItemExtraInfoManager@@0AAV?$allocator@UtagShopItemMovieInfo@ioShopItemExtraInfoManager@@@0@U_Nonscalar_ptr_iterator_tag@0@@Z ENDP ; std::_Destroy_range<std::allocator<ioShopItemExtraInfoManager::tagShopItemMovieInfo> >
_TEXT	ENDS
PUBLIC	??$_Uninit_move@PAUtagShopItemMovieInfo@ioShopItemExtraInfoManager@@PAU12@V?$allocator@UtagShopItemMovieInfo@ioShopItemExtraInfoManager@@@std@@U12@@std@@YAPAUtagShopItemMovieInfo@ioShopItemExtraInfoManager@@PAU12@00AAV?$allocator@UtagShopItemMovieInfo@ioShopItemExtraInfoManager@@@0@0U_Nonscalar_ptr_iterator_tag@0@@Z ; std::_Uninit_move<ioShopItemExtraInfoManager::tagShopItemMovieInfo *,ioShopItemExtraInfoManager::tagShopItemMovieInfo *,std::allocator<ioShopItemExtraInfoManager::tagShopItemMovieInfo>,ioShopItemExtraInfoManager::tagShopItemMovieInfo>
;	COMDAT xdata$x
xdata$x	SEGMENT
__catchsym$??$_Uninit_move@PAUtagShopItemMovieInfo@ioShopItemExtraInfoManager@@PAU12@V?$allocator@UtagShopItemMovieInfo@ioShopItemExtraInfoManager@@@std@@U12@@std@@YAPAUtagShopItemMovieInfo@ioShopItemExtraInfoManager@@PAU12@00AAV?$allocator@UtagShopItemMovieInfo@ioShopItemExtraInfoManager@@@0@0U_Nonscalar_ptr_iterator_tag@0@@Z$2 DD 040H
	DD	00H
	DD	00H
	DD	FLAT:__catch$??$_Uninit_move@PAUtagShopItemMovieInfo@ioShopItemExtraInfoManager@@PAU12@V?$allocator@UtagShopItemMovieInfo@ioShopItemExtraInfoManager@@@std@@U12@@std@@YAPAUtagShopItemMovieInfo@ioShopItemExtraInfoManager@@PAU12@00AAV?$allocator@UtagShopItemMovieInfo@ioShopItemExtraInfoManager@@@0@0U_Nonscalar_ptr_iterator_tag@0@@Z$0
__unwindtable$??$_Uninit_move@PAUtagShopItemMovieInfo@ioShopItemExtraInfoManager@@PAU12@V?$allocator@UtagShopItemMovieInfo@ioShopItemExtraInfoManager@@@std@@U12@@std@@YAPAUtagShopItemMovieInfo@ioShopItemExtraInfoManager@@PAU12@00AAV?$allocator@UtagShopItemMovieInfo@ioShopItemExtraInfoManager@@@0@0U_Nonscalar_ptr_iterator_tag@0@@Z DD 0ffffffffH
	DD	00H
	DD	0ffffffffH
	DD	00H
__tryblocktable$??$_Uninit_move@PAUtagShopItemMovieInfo@ioShopItemExtraInfoManager@@PAU12@V?$allocator@UtagShopItemMovieInfo@ioShopItemExtraInfoManager@@@std@@U12@@std@@YAPAUtagShopItemMovieInfo@ioShopItemExtraInfoManager@@PAU12@00AAV?$allocator@UtagShopItemMovieInfo@ioShopItemExtraInfoManager@@@0@0U_Nonscalar_ptr_iterator_tag@0@@Z DD 00H
	DD	00H
	DD	01H
	DD	01H
	DD	FLAT:__catchsym$??$_Uninit_move@PAUtagShopItemMovieInfo@ioShopItemExtraInfoManager@@PAU12@V?$allocator@UtagShopItemMovieInfo@ioShopItemExtraInfoManager@@@std@@U12@@std@@YAPAUtagShopItemMovieInfo@ioShopItemExtraInfoManager@@PAU12@00AAV?$allocator@UtagShopItemMovieInfo@ioShopItemExtraInfoManager@@@0@0U_Nonscalar_ptr_iterator_tag@0@@Z$2
__ehfuncinfo$??$_Uninit_move@PAUtagShopItemMovieInfo@ioShopItemExtraInfoManager@@PAU12@V?$allocator@UtagShopItemMovieInfo@ioShopItemExtraInfoManager@@@std@@U12@@std@@YAPAUtagShopItemMovieInfo@ioShopItemExtraInfoManager@@PAU12@00AAV?$allocator@UtagShopItemMovieInfo@ioShopItemExtraInfoManager@@@0@0U_Nonscalar_ptr_iterator_tag@0@@Z DD 019930522H
	DD	02H
	DD	FLAT:__unwindtable$??$_Uninit_move@PAUtagShopItemMovieInfo@ioShopItemExtraInfoManager@@PAU12@V?$allocator@UtagShopItemMovieInfo@ioShopItemExtraInfoManager@@@std@@U12@@std@@YAPAUtagShopItemMovieInfo@ioShopItemExtraInfoManager@@PAU12@00AAV?$allocator@UtagShopItemMovieInfo@ioShopItemExtraInfoManager@@@0@0U_Nonscalar_ptr_iterator_tag@0@@Z
	DD	01H
	DD	FLAT:__tryblocktable$??$_Uninit_move@PAUtagShopItemMovieInfo@ioShopItemExtraInfoManager@@PAU12@V?$allocator@UtagShopItemMovieInfo@ioShopItemExtraInfoManager@@@std@@U12@@std@@YAPAUtagShopItemMovieInfo@ioShopItemExtraInfoManager@@PAU12@00AAV?$allocator@UtagShopItemMovieInfo@ioShopItemExtraInfoManager@@@0@0U_Nonscalar_ptr_iterator_tag@0@@Z
	DD	2 DUP(00H)
	DD	00H
	DD	01H
; Function compile flags: /Ogsp
; File c:\program files (x86)\microsoft visual studio 10.0\vc\include\memory
xdata$x	ENDS
;	COMDAT ??$_Uninit_move@PAUtagShopItemMovieInfo@ioShopItemExtraInfoManager@@PAU12@V?$allocator@UtagShopItemMovieInfo@ioShopItemExtraInfoManager@@@std@@U12@@std@@YAPAUtagShopItemMovieInfo@ioShopItemExtraInfoManager@@PAU12@00AAV?$allocator@UtagShopItemMovieInfo@ioShopItemExtraInfoManager@@@0@0U_Nonscalar_ptr_iterator_tag@0@@Z
_TEXT	SEGMENT
__Next$ = -20						; size = 4
__$EHRec$ = -16						; size = 16
__First$ = 8						; size = 4
__Last$ = 12						; size = 4
__Dest$ = 16						; size = 4
__Al$ = 20						; size = 4
___formal$ = 24						; size = 4
___formal$ = 28						; size = 1
??$_Uninit_move@PAUtagShopItemMovieInfo@ioShopItemExtraInfoManager@@PAU12@V?$allocator@UtagShopItemMovieInfo@ioShopItemExtraInfoManager@@@std@@U12@@std@@YAPAUtagShopItemMovieInfo@ioShopItemExtraInfoManager@@PAU12@00AAV?$allocator@UtagShopItemMovieInfo@ioShopItemExtraInfoManager@@@0@0U_Nonscalar_ptr_iterator_tag@0@@Z PROC ; std::_Uninit_move<ioShopItemExtraInfoManager::tagShopItemMovieInfo *,ioShopItemExtraInfoManager::tagShopItemMovieInfo *,std::allocator<ioShopItemExtraInfoManager::tagShopItemMovieInfo>,ioShopItemExtraInfoManager::tagShopItemMovieInfo>, COMDAT

; 424  : 	{	// move [_First, _Last) to raw _Dest, using _Al, arbitrary type

  00000	6a 08		 push	 8
  00002	b8 00 00 00 00	 mov	 eax, __ehhandler$??$_Uninit_move@PAUtagShopItemMovieInfo@ioShopItemExtraInfoManager@@PAU12@V?$allocator@UtagShopItemMovieInfo@ioShopItemExtraInfoManager@@@std@@U12@@std@@YAPAUtagShopItemMovieInfo@ioShopItemExtraInfoManager@@PAU12@00AAV?$allocator@UtagShopItemMovieInfo@ioShopItemExtraInfoManager@@@0@0U_Nonscalar_ptr_iterator_tag@0@@Z
  00007	e8 00 00 00 00	 call	 __EH_prolog3_catch

; 425  : 	_DEBUG_RANGE(_First, _Last);
; 426  : 	_DEBUG_POINTER(_Dest);
; 427  : 	_FwdIt _Next = _Dest;

  0000c	8b 45 10	 mov	 eax, DWORD PTR __Dest$[ebp]

; 428  : 
; 429  : 	_TRY_BEGIN

  0000f	83 65 fc 00	 and	 DWORD PTR __$EHRec$[ebp+12], 0
  00013	8b 75 08	 mov	 esi, DWORD PTR __First$[ebp]
  00016	89 45 ec	 mov	 DWORD PTR __Next$[ebp], eax
$LL6@Uninit_mov:

; 430  : 	for (; _First != _Last; ++_Dest, ++_First)

  00019	3b 75 0c	 cmp	 esi, DWORD PTR __Last$[ebp]
  0001c	74 35		 je	 SHORT $LN4@Uninit_mov

; 431  : 		_Cons_val(_Al, _Dest, (_Valty &&)*_First);

  0001e	56		 push	 esi
  0001f	ff 75 10	 push	 DWORD PTR __Dest$[ebp]
  00022	ff 75 14	 push	 DWORD PTR __Al$[ebp]
  00025	e8 00 00 00 00	 call	 ??$_Cons_val@V?$allocator@UtagShopItemMovieInfo@ioShopItemExtraInfoManager@@@std@@UtagShopItemMovieInfo@ioShopItemExtraInfoManager@@U34@@std@@YAXAAV?$allocator@UtagShopItemMovieInfo@ioShopItemExtraInfoManager@@@0@PAUtagShopItemMovieInfo@ioShopItemExtraInfoManager@@$$QAU23@@Z ; std::_Cons_val<std::allocator<ioShopItemExtraInfoManager::tagShopItemMovieInfo>,ioShopItemExtraInfoManager::tagShopItemMovieInfo,ioShopItemExtraInfoManager::tagShopItemMovieInfo>
  0002a	83 45 10 34	 add	 DWORD PTR __Dest$[ebp], 52 ; 00000034H
  0002e	83 c4 0c	 add	 esp, 12			; 0000000cH
  00031	83 c6 34	 add	 esi, 52			; 00000034H
  00034	eb e3		 jmp	 SHORT $LL6@Uninit_mov
__catch$??$_Uninit_move@PAUtagShopItemMovieInfo@ioShopItemExtraInfoManager@@PAU12@V?$allocator@UtagShopItemMovieInfo@ioShopItemExtraInfoManager@@@std@@U12@@std@@YAPAUtagShopItemMovieInfo@ioShopItemExtraInfoManager@@PAU12@00AAV?$allocator@UtagShopItemMovieInfo@ioShopItemExtraInfoManager@@@0@0U_Nonscalar_ptr_iterator_tag@0@@Z$0:

; 432  : 	_CATCH_ALL
; 433  : 	for (; _Next != _Dest; ++_Next)

  00036	8b 75 ec	 mov	 esi, DWORD PTR __Next$[ebp]
  00039	eb 0a		 jmp	 SHORT $LN29@Uninit_mov
$LL3@Uninit_mov:

; 434  : 		_Dest_val(_Al, _Next);

  0003b	8b ce		 mov	 ecx, esi
  0003d	e8 00 00 00 00	 call	 ??1tagShopItemMovieInfo@ioShopItemExtraInfoManager@@QAE@XZ
  00042	83 c6 34	 add	 esi, 52			; 00000034H
$LN29@Uninit_mov:

; 432  : 	_CATCH_ALL
; 433  : 	for (; _Next != _Dest; ++_Next)

  00045	3b 75 10	 cmp	 esi, DWORD PTR __Dest$[ebp]
  00048	75 f1		 jne	 SHORT $LL3@Uninit_mov

; 435  : 	_RERAISE;

  0004a	6a 00		 push	 0
  0004c	6a 00		 push	 0
  0004e	e8 00 00 00 00	 call	 __CxxThrowException@8
$LN30@Uninit_mov:
$LN4@Uninit_mov:

; 436  : 	_CATCH_END
; 437  : 	return (_Dest);

  00053	8b 45 10	 mov	 eax, DWORD PTR __Dest$[ebp]

; 438  : 	}

  00056	e8 00 00 00 00	 call	 __EH_epilog3
  0005b	c3		 ret	 0
$LN28@Uninit_mov:
_TEXT	ENDS
;	COMDAT text$x
text$x	SEGMENT
__ehhandler$??$_Uninit_move@PAUtagShopItemMovieInfo@ioShopItemExtraInfoManager@@PAU12@V?$allocator@UtagShopItemMovieInfo@ioShopItemExtraInfoManager@@@std@@U12@@std@@YAPAUtagShopItemMovieInfo@ioShopItemExtraInfoManager@@PAU12@00AAV?$allocator@UtagShopItemMovieInfo@ioShopItemExtraInfoManager@@@0@0U_Nonscalar_ptr_iterator_tag@0@@Z:
  00000	8b 54 24 08	 mov	 edx, DWORD PTR [esp+8]
  00004	8d 42 0c	 lea	 eax, DWORD PTR [edx+12]
  00007	8b 4a e8	 mov	 ecx, DWORD PTR [edx-24]
  0000a	33 c8		 xor	 ecx, eax
  0000c	e8 00 00 00 00	 call	 @__security_check_cookie@4
  00011	b8 00 00 00 00	 mov	 eax, OFFSET __ehfuncinfo$??$_Uninit_move@PAUtagShopItemMovieInfo@ioShopItemExtraInfoManager@@PAU12@V?$allocator@UtagShopItemMovieInfo@ioShopItemExtraInfoManager@@@std@@U12@@std@@YAPAUtagShopItemMovieInfo@ioShopItemExtraInfoManager@@PAU12@00AAV?$allocator@UtagShopItemMovieInfo@ioShopItemExtraInfoManager@@@0@0U_Nonscalar_ptr_iterator_tag@0@@Z
  00016	e9 00 00 00 00	 jmp	 ___CxxFrameHandler3
text$x	ENDS
??$_Uninit_move@PAUtagShopItemMovieInfo@ioShopItemExtraInfoManager@@PAU12@V?$allocator@UtagShopItemMovieInfo@ioShopItemExtraInfoManager@@@std@@U12@@std@@YAPAUtagShopItemMovieInfo@ioShopItemExtraInfoManager@@PAU12@00AAV?$allocator@UtagShopItemMovieInfo@ioShopItemExtraInfoManager@@@0@0U_Nonscalar_ptr_iterator_tag@0@@Z ENDP ; std::_Uninit_move<ioShopItemExtraInfoManager::tagShopItemMovieInfo *,ioShopItemExtraInfoManager::tagShopItemMovieInfo *,std::allocator<ioShopItemExtraInfoManager::tagShopItemMovieInfo>,ioShopItemExtraInfoManager::tagShopItemMovieInfo>
PUBLIC	??$_Uninitialized_copy@V?$_Vector_const_iterator@V?$_Vector_val@HV?$allocator@H@std@@@std@@@std@@PAHV?$allocator@H@2@@std@@YAPAHV?$_Vector_const_iterator@V?$_Vector_val@HV?$allocator@H@std@@@std@@@0@0PAHAAV?$allocator@H@0@@Z ; std::_Uninitialized_copy<std::_Vector_const_iterator<std::_Vector_val<int,std::allocator<int> > >,int *,std::allocator<int> >
; Function compile flags: /Ogsp
;	COMDAT ??$_Uninitialized_copy@V?$_Vector_const_iterator@V?$_Vector_val@HV?$allocator@H@std@@@std@@@std@@PAHV?$allocator@H@2@@std@@YAPAHV?$_Vector_const_iterator@V?$_Vector_val@HV?$allocator@H@std@@@std@@@0@0PAHAAV?$allocator@H@0@@Z
_TEXT	SEGMENT
__Cat$512541 = -4					; size = 1
__First$ = 8						; size = 4
__Last$ = 12						; size = 4
__Dest$ = 16						; size = 4
__Al$ = 20						; size = 4
??$_Uninitialized_copy@V?$_Vector_const_iterator@V?$_Vector_val@HV?$allocator@H@std@@@std@@@std@@PAHV?$allocator@H@2@@std@@YAPAHV?$_Vector_const_iterator@V?$_Vector_val@HV?$allocator@H@std@@@std@@@0@0PAHAAV?$allocator@H@0@@Z PROC ; std::_Uninitialized_copy<std::_Vector_const_iterator<std::_Vector_val<int,std::allocator<int> > >,int *,std::allocator<int> >, COMDAT

; 412  : 	{	// copy [_First, _Last) to raw _Dest, using _Al

  00000	55		 push	 ebp
  00001	8b ec		 mov	 ebp, esp
  00003	51		 push	 ecx

; 413  : 	return (_Uninit_copy(_First, _Last, _Dest, _Al,
; 414  : 		_Ptr_cat(_First, _Dest)));

  00004	ff 75 fc	 push	 DWORD PTR __Cat$512541[ebp]
  00007	ff 75 14	 push	 DWORD PTR __Al$[ebp]
  0000a	ff 75 10	 push	 DWORD PTR __Dest$[ebp]
  0000d	ff 75 0c	 push	 DWORD PTR __Last$[ebp]
  00010	ff 75 08	 push	 DWORD PTR __First$[ebp]
  00013	e8 00 00 00 00	 call	 ??$_Uninit_copy@V?$_Vector_const_iterator@V?$_Vector_val@HV?$allocator@H@std@@@std@@@std@@PAHV?$allocator@H@2@@std@@YAPAHV?$_Vector_const_iterator@V?$_Vector_val@HV?$allocator@H@std@@@std@@@0@0PAHAAV?$allocator@H@0@U_Nonscalar_ptr_iterator_tag@0@@Z ; std::_Uninit_copy<std::_Vector_const_iterator<std::_Vector_val<int,std::allocator<int> > >,int *,std::allocator<int> >
  00018	83 c4 14	 add	 esp, 20			; 00000014H

; 415  : 	}

  0001b	c9		 leave
  0001c	c3		 ret	 0
??$_Uninitialized_copy@V?$_Vector_const_iterator@V?$_Vector_val@HV?$allocator@H@std@@@std@@@std@@PAHV?$allocator@H@2@@std@@YAPAHV?$_Vector_const_iterator@V?$_Vector_val@HV?$allocator@H@std@@@std@@@0@0PAHAAV?$allocator@H@0@@Z ENDP ; std::_Uninitialized_copy<std::_Vector_const_iterator<std::_Vector_val<int,std::allocator<int> > >,int *,std::allocator<int> >
_TEXT	ENDS
PUBLIC	??$_Uninitialized_copy@V?$_Vector_const_iterator@V?$_Vector_val@UtagShopItemMovieInfo@ioShopItemExtraInfoManager@@V?$allocator@UtagShopItemMovieInfo@ioShopItemExtraInfoManager@@@std@@@std@@@std@@PAUtagShopItemMovieInfo@ioShopItemExtraInfoManager@@V?$allocator@UtagShopItemMovieInfo@ioShopItemExtraInfoManager@@@2@@std@@YAPAUtagShopItemMovieInfo@ioShopItemExtraInfoManager@@V?$_Vector_const_iterator@V?$_Vector_val@UtagShopItemMovieInfo@ioShopItemExtraInfoManager@@V?$allocator@UtagShopItemMovieInfo@ioShopItemExtraInfoManager@@@std@@@std@@@0@0PAU12@AAV?$allocator@UtagShopItemMovieInfo@ioShopItemExtraInfoManager@@@0@@Z ; std::_Uninitialized_copy<std::_Vector_const_iterator<std::_Vector_val<ioShopItemExtraInfoManager::tagShopItemMovieInfo,std::allocator<ioShopItemExtraInfoManager::tagShopItemMovieInfo> > >,ioShopItemExtraInfoManager::tagShopItemMovieInfo *,std::allocator<ioShopItemExtraInfoManager::tagShopItemMovieInfo> >
; Function compile flags: /Ogsp
;	COMDAT ??$_Uninitialized_copy@V?$_Vector_const_iterator@V?$_Vector_val@UtagShopItemMovieInfo@ioShopItemExtraInfoManager@@V?$allocator@UtagShopItemMovieInfo@ioShopItemExtraInfoManager@@@std@@@std@@@std@@PAUtagShopItemMovieInfo@ioShopItemExtraInfoManager@@V?$allocator@UtagShopItemMovieInfo@ioShopItemExtraInfoManager@@@2@@std@@YAPAUtagShopItemMovieInfo@ioShopItemExtraInfoManager@@V?$_Vector_const_iterator@V?$_Vector_val@UtagShopItemMovieInfo@ioShopItemExtraInfoManager@@V?$allocator@UtagShopItemMovieInfo@ioShopItemExtraInfoManager@@@std@@@std@@@0@0PAU12@AAV?$allocator@UtagShopItemMovieInfo@ioShopItemExtraInfoManager@@@0@@Z
_TEXT	SEGMENT
__Cat$512548 = -4					; size = 1
__First$ = 8						; size = 4
__Last$ = 12						; size = 4
__Dest$ = 16						; size = 4
__Al$ = 20						; size = 4
??$_Uninitialized_copy@V?$_Vector_const_iterator@V?$_Vector_val@UtagShopItemMovieInfo@ioShopItemExtraInfoManager@@V?$allocator@UtagShopItemMovieInfo@ioShopItemExtraInfoManager@@@std@@@std@@@std@@PAUtagShopItemMovieInfo@ioShopItemExtraInfoManager@@V?$allocator@UtagShopItemMovieInfo@ioShopItemExtraInfoManager@@@2@@std@@YAPAUtagShopItemMovieInfo@ioShopItemExtraInfoManager@@V?$_Vector_const_iterator@V?$_Vector_val@UtagShopItemMovieInfo@ioShopItemExtraInfoManager@@V?$allocator@UtagShopItemMovieInfo@ioShopItemExtraInfoManager@@@std@@@std@@@0@0PAU12@AAV?$allocator@UtagShopItemMovieInfo@ioShopItemExtraInfoManager@@@0@@Z PROC ; std::_Uninitialized_copy<std::_Vector_const_iterator<std::_Vector_val<ioShopItemExtraInfoManager::tagShopItemMovieInfo,std::allocator<ioShopItemExtraInfoManager::tagShopItemMovieInfo> > >,ioShopItemExtraInfoManager::tagShopItemMovieInfo *,std::allocator<ioShopItemExtraInfoManager::tagShopItemMovieInfo> >, COMDAT

; 412  : 	{	// copy [_First, _Last) to raw _Dest, using _Al

  00000	55		 push	 ebp
  00001	8b ec		 mov	 ebp, esp
  00003	51		 push	 ecx

; 413  : 	return (_Uninit_copy(_First, _Last, _Dest, _Al,
; 414  : 		_Ptr_cat(_First, _Dest)));

  00004	ff 75 fc	 push	 DWORD PTR __Cat$512548[ebp]
  00007	ff 75 14	 push	 DWORD PTR __Al$[ebp]
  0000a	ff 75 10	 push	 DWORD PTR __Dest$[ebp]
  0000d	ff 75 0c	 push	 DWORD PTR __Last$[ebp]
  00010	ff 75 08	 push	 DWORD PTR __First$[ebp]
  00013	e8 00 00 00 00	 call	 ??$_Uninit_copy@V?$_Vector_const_iterator@V?$_Vector_val@UtagShopItemMovieInfo@ioShopItemExtraInfoManager@@V?$allocator@UtagShopItemMovieInfo@ioShopItemExtraInfoManager@@@std@@@std@@@std@@PAUtagShopItemMovieInfo@ioShopItemExtraInfoManager@@V?$allocator@UtagShopItemMovieInfo@ioShopItemExtraInfoManager@@@2@@std@@YAPAUtagShopItemMovieInfo@ioShopItemExtraInfoManager@@V?$_Vector_const_iterator@V?$_Vector_val@UtagShopItemMovieInfo@ioShopItemExtraInfoManager@@V?$allocator@UtagShopItemMovieInfo@ioShopItemExtraInfoManager@@@std@@@std@@@0@0PAU12@AAV?$allocator@UtagShopItemMovieInfo@ioShopItemExtraInfoManager@@@0@U_Nonscalar_ptr_iterator_tag@0@@Z ; std::_Uninit_copy<std::_Vector_const_iterator<std::_Vector_val<ioShopItemExtraInfoManager::tagShopItemMovieInfo,std::allocator<ioShopItemExtraInfoManager::tagShopItemMovieInfo> > >,ioShopItemExtraInfoManager::tagShopItemMovieInfo *,std::allocator<ioShopItemExtraInfoManager::tagShopItemMovieInfo> >
  00018	83 c4 14	 add	 esp, 20			; 00000014H

; 415  : 	}

  0001b	c9		 leave
  0001c	c3		 ret	 0
??$_Uninitialized_copy@V?$_Vector_const_iterator@V?$_Vector_val@UtagShopItemMovieInfo@ioShopItemExtraInfoManager@@V?$allocator@UtagShopItemMovieInfo@ioShopItemExtraInfoManager@@@std@@@std@@@std@@PAUtagShopItemMovieInfo@ioShopItemExtraInfoManager@@V?$allocator@UtagShopItemMovieInfo@ioShopItemExtraInfoManager@@@2@@std@@YAPAUtagShopItemMovieInfo@ioShopItemExtraInfoManager@@V?$_Vector_const_iterator@V?$_Vector_val@UtagShopItemMovieInfo@ioShopItemExtraInfoManager@@V?$allocator@UtagShopItemMovieInfo@ioShopItemExtraInfoManager@@@std@@@std@@@0@0PAU12@AAV?$allocator@UtagShopItemMovieInfo@ioShopItemExtraInfoManager@@@0@@Z ENDP ; std::_Uninitialized_copy<std::_Vector_const_iterator<std::_Vector_val<ioShopItemExtraInfoManager::tagShopItemMovieInfo,std::allocator<ioShopItemExtraInfoManager::tagShopItemMovieInfo> > >,ioShopItemExtraInfoManager::tagShopItemMovieInfo *,std::allocator<ioShopItemExtraInfoManager::tagShopItemMovieInfo> >
_TEXT	ENDS
PUBLIC	??$_Uninitialized_copy@PAUtagShopItemMovieInfo@ioShopItemExtraInfoManager@@PAU12@V?$allocator@UtagShopItemMovieInfo@ioShopItemExtraInfoManager@@@std@@@std@@YAPAUtagShopItemMovieInfo@ioShopItemExtraInfoManager@@PAU12@00AAV?$allocator@UtagShopItemMovieInfo@ioShopItemExtraInfoManager@@@0@@Z ; std::_Uninitialized_copy<ioShopItemExtraInfoManager::tagShopItemMovieInfo *,ioShopItemExtraInfoManager::tagShopItemMovieInfo *,std::allocator<ioShopItemExtraInfoManager::tagShopItemMovieInfo> >
; Function compile flags: /Ogsp
;	COMDAT ??$_Uninitialized_copy@PAUtagShopItemMovieInfo@ioShopItemExtraInfoManager@@PAU12@V?$allocator@UtagShopItemMovieInfo@ioShopItemExtraInfoManager@@@std@@@std@@YAPAUtagShopItemMovieInfo@ioShopItemExtraInfoManager@@PAU12@00AAV?$allocator@UtagShopItemMovieInfo@ioShopItemExtraInfoManager@@@0@@Z
_TEXT	SEGMENT
__Cat$512555 = -4					; size = 1
__First$ = 8						; size = 4
__Last$ = 12						; size = 4
__Dest$ = 16						; size = 4
__Al$ = 20						; size = 4
??$_Uninitialized_copy@PAUtagShopItemMovieInfo@ioShopItemExtraInfoManager@@PAU12@V?$allocator@UtagShopItemMovieInfo@ioShopItemExtraInfoManager@@@std@@@std@@YAPAUtagShopItemMovieInfo@ioShopItemExtraInfoManager@@PAU12@00AAV?$allocator@UtagShopItemMovieInfo@ioShopItemExtraInfoManager@@@0@@Z PROC ; std::_Uninitialized_copy<ioShopItemExtraInfoManager::tagShopItemMovieInfo *,ioShopItemExtraInfoManager::tagShopItemMovieInfo *,std::allocator<ioShopItemExtraInfoManager::tagShopItemMovieInfo> >, COMDAT

; 412  : 	{	// copy [_First, _Last) to raw _Dest, using _Al

  00000	55		 push	 ebp
  00001	8b ec		 mov	 ebp, esp
  00003	51		 push	 ecx

; 413  : 	return (_Uninit_copy(_First, _Last, _Dest, _Al,
; 414  : 		_Ptr_cat(_First, _Dest)));

  00004	ff 75 fc	 push	 DWORD PTR __Cat$512555[ebp]
  00007	ff 75 14	 push	 DWORD PTR __Al$[ebp]
  0000a	ff 75 10	 push	 DWORD PTR __Dest$[ebp]
  0000d	ff 75 0c	 push	 DWORD PTR __Last$[ebp]
  00010	ff 75 08	 push	 DWORD PTR __First$[ebp]
  00013	e8 00 00 00 00	 call	 ??$_Uninit_copy@PAUtagShopItemMovieInfo@ioShopItemExtraInfoManager@@PAU12@V?$allocator@UtagShopItemMovieInfo@ioShopItemExtraInfoManager@@@std@@@std@@YAPAUtagShopItemMovieInfo@ioShopItemExtraInfoManager@@PAU12@00AAV?$allocator@UtagShopItemMovieInfo@ioShopItemExtraInfoManager@@@0@U_Nonscalar_ptr_iterator_tag@0@@Z ; std::_Uninit_copy<ioShopItemExtraInfoManager::tagShopItemMovieInfo *,ioShopItemExtraInfoManager::tagShopItemMovieInfo *,std::allocator<ioShopItemExtraInfoManager::tagShopItemMovieInfo> >
  00018	83 c4 14	 add	 esp, 20			; 00000014H

; 415  : 	}

  0001b	c9		 leave
  0001c	c3		 ret	 0
??$_Uninitialized_copy@PAUtagShopItemMovieInfo@ioShopItemExtraInfoManager@@PAU12@V?$allocator@UtagShopItemMovieInfo@ioShopItemExtraInfoManager@@@std@@@std@@YAPAUtagShopItemMovieInfo@ioShopItemExtraInfoManager@@PAU12@00AAV?$allocator@UtagShopItemMovieInfo@ioShopItemExtraInfoManager@@@0@@Z ENDP ; std::_Uninitialized_copy<ioShopItemExtraInfoManager::tagShopItemMovieInfo *,ioShopItemExtraInfoManager::tagShopItemMovieInfo *,std::allocator<ioShopItemExtraInfoManager::tagShopItemMovieInfo> >
_TEXT	ENDS
PUBLIC	??1?$vector@HV?$allocator@H@std@@@std@@QAE@XZ	; std::vector<int,std::allocator<int> >::~vector<int,std::allocator<int> >
; Function compile flags: /Ogsp
; File c:\program files (x86)\microsoft visual studio 10.0\vc\include\vector
;	COMDAT ??1?$vector@HV?$allocator@H@std@@@std@@QAE@XZ
_TEXT	SEGMENT
??1?$vector@HV?$allocator@H@std@@@std@@QAE@XZ PROC	; std::vector<int,std::allocator<int> >::~vector<int,std::allocator<int> >, COMDAT
; _this$ = ecx

; 705  : 		_Tidy();

  00000	e9 00 00 00 00	 jmp	 ?_Tidy@?$vector@HV?$allocator@H@std@@@std@@IAEXXZ ; std::vector<int,std::allocator<int> >::_Tidy
??1?$vector@HV?$allocator@H@std@@@std@@QAE@XZ ENDP	; std::vector<int,std::allocator<int> >::~vector<int,std::allocator<int> >
_TEXT	ENDS
PUBLIC	?clear@?$vector@HV?$allocator@H@std@@@std@@QAEXXZ ; std::vector<int,std::allocator<int> >::clear
; Function compile flags: /Ogsp
;	COMDAT ?clear@?$vector@HV?$allocator@H@std@@@std@@QAEXXZ
_TEXT	SEGMENT
$T512570 = -4						; size = 4
?clear@?$vector@HV?$allocator@H@std@@@std@@QAEXXZ PROC	; std::vector<int,std::allocator<int> >::clear, COMDAT
; _this$ = ecx

; 1217 : 		{	// erase all

  00000	55		 push	 ebp
  00001	8b ec		 mov	 ebp, esp
  00003	51		 push	 ecx

; 1218 : 		erase(begin(), end());

  00004	8b 41 04	 mov	 eax, DWORD PTR [ecx+4]
  00007	8b 11		 mov	 edx, DWORD PTR [ecx]
  00009	50		 push	 eax
  0000a	52		 push	 edx
  0000b	8d 45 fc	 lea	 eax, DWORD PTR $T512570[ebp]
  0000e	50		 push	 eax
  0000f	e8 00 00 00 00	 call	 ?erase@?$vector@HV?$allocator@H@std@@@std@@QAE?AV?$_Vector_iterator@V?$_Vector_val@HV?$allocator@H@std@@@std@@@2@V?$_Vector_const_iterator@V?$_Vector_val@HV?$allocator@H@std@@@std@@@2@0@Z ; std::vector<int,std::allocator<int> >::erase

; 1219 : 		}

  00014	c9		 leave
  00015	c3		 ret	 0
?clear@?$vector@HV?$allocator@H@std@@@std@@QAEXXZ ENDP	; std::vector<int,std::allocator<int> >::clear
_TEXT	ENDS
PUBLIC	?_Reserve@?$vector@HV?$allocator@H@std@@@std@@IAEXI@Z ; std::vector<int,std::allocator<int> >::_Reserve
; Function compile flags: /Ogsp
;	COMDAT ?_Reserve@?$vector@HV?$allocator@H@std@@@std@@IAEXI@Z
_TEXT	SEGMENT
__Count$ = 8						; size = 4
?_Reserve@?$vector@HV?$allocator@H@std@@@std@@IAEXI@Z PROC ; std::vector<int,std::allocator<int> >::_Reserve, COMDAT
; _this$ = ecx

; 1290 : 		{	// ensure room for _Count new elements, grow exponentially

  00000	55		 push	 ebp
  00001	8b ec		 mov	 ebp, esp
  00003	56		 push	 esi
  00004	8b f1		 mov	 esi, ecx

; 1291 : 		size_type _Size = size();

  00006	8b 0e		 mov	 ecx, DWORD PTR [esi]
  00008	8b 46 04	 mov	 eax, DWORD PTR [esi+4]
  0000b	2b c1		 sub	 eax, ecx

; 1292 : 		if (max_size() - _Count < _Size)

  0000d	ba ff ff ff 3f	 mov	 edx, 1073741823		; 3fffffffH
  00012	2b 55 08	 sub	 edx, DWORD PTR __Count$[ebp]
  00015	c1 f8 02	 sar	 eax, 2
  00018	3b d0		 cmp	 edx, eax
  0001a	73 0b		 jae	 SHORT $LN4@Reserve

; 1293 : 			_Xlen();

  0001c	68 00 00 00 00	 push	 OFFSET ??_C@_0BD@OLBABOEK@vector?$DMT?$DO?5too?5long?$AA@
  00021	ff 15 00 00 00
	00		 call	 DWORD PTR __imp_?_Xlength_error@std@@YAXPBD@Z
$LN21@Reserve:
$LN4@Reserve:

; 1294 : 		else if ((_Size += _Count) <= capacity())

  00027	8b 56 08	 mov	 edx, DWORD PTR [esi+8]
  0002a	03 45 08	 add	 eax, DWORD PTR __Count$[ebp]
  0002d	2b d1		 sub	 edx, ecx
  0002f	c1 fa 02	 sar	 edx, 2
  00032	3b c2		 cmp	 eax, edx
  00034	76 10		 jbe	 SHORT $LN1@Reserve

; 1295 : 			;
; 1296 : 		else
; 1297 : 			reserve(_Grow_to(_Size));

  00036	50		 push	 eax
  00037	8b ce		 mov	 ecx, esi
  00039	e8 00 00 00 00	 call	 ?_Grow_to@?$vector@HV?$allocator@H@std@@@std@@IBEII@Z ; std::vector<int,std::allocator<int> >::_Grow_to
  0003e	50		 push	 eax
  0003f	8b ce		 mov	 ecx, esi
  00041	e8 00 00 00 00	 call	 ?reserve@?$vector@HV?$allocator@H@std@@@std@@QAEXI@Z ; std::vector<int,std::allocator<int> >::reserve
$LN1@Reserve:
  00046	5e		 pop	 esi

; 1298 : 		}

  00047	5d		 pop	 ebp
  00048	c2 04 00	 ret	 4
$LN20@Reserve:
?_Reserve@?$vector@HV?$allocator@H@std@@@std@@IAEXI@Z ENDP ; std::vector<int,std::allocator<int> >::_Reserve
_TEXT	ENDS
PUBLIC	?push_back@?$vector@HV?$allocator@H@std@@@std@@QAEXABH@Z ; std::vector<int,std::allocator<int> >::push_back
; Function compile flags: /Ogsp
;	COMDAT ?push_back@?$vector@HV?$allocator@H@std@@@std@@QAEXABH@Z
_TEXT	SEGMENT
__Val$ = 8						; size = 4
?push_back@?$vector@HV?$allocator@H@std@@@std@@QAEXABH@Z PROC ; std::vector<int,std::allocator<int> >::push_back, COMDAT
; _this$ = ecx

; 976  : 		{	// insert element at end

  00000	55		 push	 ebp
  00001	8b ec		 mov	 ebp, esp
  00003	56		 push	 esi
  00004	8b f1		 mov	 esi, ecx

; 977  : 		if (_Inside(_STD addressof(_Val)))

  00006	8b 46 04	 mov	 eax, DWORD PTR [esi+4]
  00009	57		 push	 edi
  0000a	8b 7d 08	 mov	 edi, DWORD PTR __Val$[ebp]
  0000d	3b f8		 cmp	 edi, eax
  0000f	73 27		 jae	 SHORT $LN4@push_back
  00011	8b 0e		 mov	 ecx, DWORD PTR [esi]
  00013	3b cf		 cmp	 ecx, edi
  00015	77 21		 ja	 SHORT $LN4@push_back

; 978  : 			{	// push back an element
; 979  : 			size_type _Idx = _STD addressof(_Val) - this->_Myfirst;

  00017	2b f9		 sub	 edi, ecx
  00019	c1 ff 02	 sar	 edi, 2

; 980  : 			if (this->_Mylast == this->_Myend)

  0001c	3b 46 08	 cmp	 eax, DWORD PTR [esi+8]
  0001f	75 09		 jne	 SHORT $LN3@push_back

; 981  : 				_Reserve(1);

  00021	6a 01		 push	 1
  00023	8b ce		 mov	 ecx, esi
  00025	e8 00 00 00 00	 call	 ?_Reserve@?$vector@HV?$allocator@H@std@@@std@@IAEXI@Z ; std::vector<int,std::allocator<int> >::_Reserve
$LN3@push_back:

; 982  : 			_Orphan_range(this->_Mylast, this->_Mylast);
; 983  : 			_Cons_val(this->_Alval,
; 984  : 				this->_Mylast,
; 985  : 				this->_Myfirst[_Idx]);

  0002a	8b 46 04	 mov	 eax, DWORD PTR [esi+4]
  0002d	85 c0		 test	 eax, eax
  0002f	74 20		 je	 SHORT $LN39@push_back
  00031	8b 0e		 mov	 ecx, DWORD PTR [esi]
  00033	8b 0c b9	 mov	 ecx, DWORD PTR [ecx+edi*4]

; 986  : 			++this->_Mylast;
; 987  : 			}
; 988  : 		else

  00036	eb 17		 jmp	 SHORT $LN46@push_back
$LN4@push_back:

; 989  : 			{	// push back a non-element
; 990  : 			if (this->_Mylast == this->_Myend)

  00038	3b 46 08	 cmp	 eax, DWORD PTR [esi+8]
  0003b	75 09		 jne	 SHORT $LN1@push_back

; 991  : 				_Reserve(1);

  0003d	6a 01		 push	 1
  0003f	8b ce		 mov	 ecx, esi
  00041	e8 00 00 00 00	 call	 ?_Reserve@?$vector@HV?$allocator@H@std@@@std@@IAEXI@Z ; std::vector<int,std::allocator<int> >::_Reserve
$LN1@push_back:

; 992  : 			_Orphan_range(this->_Mylast, this->_Mylast);
; 993  : 			_Cons_val(this->_Alval,
; 994  : 				this->_Mylast,
; 995  : 				_Val);

  00046	8b 46 04	 mov	 eax, DWORD PTR [esi+4]
  00049	85 c0		 test	 eax, eax
  0004b	74 04		 je	 SHORT $LN39@push_back
  0004d	8b 0f		 mov	 ecx, DWORD PTR [edi]
$LN46@push_back:
  0004f	89 08		 mov	 DWORD PTR [eax], ecx
$LN39@push_back:

; 996  : 			++this->_Mylast;

  00051	83 46 04 04	 add	 DWORD PTR [esi+4], 4
  00055	5f		 pop	 edi
  00056	5e		 pop	 esi

; 997  : 			}
; 998  : 		}

  00057	5d		 pop	 ebp
  00058	c2 04 00	 ret	 4
?push_back@?$vector@HV?$allocator@H@std@@@std@@QAEXABH@Z ENDP ; std::vector<int,std::allocator<int> >::push_back
_TEXT	ENDS
PUBLIC	??$_Destroy_range@V?$allocator@UtagShopItemMovieInfo@ioShopItemExtraInfoManager@@@std@@@std@@YAXPAUtagShopItemMovieInfo@ioShopItemExtraInfoManager@@0AAV?$allocator@UtagShopItemMovieInfo@ioShopItemExtraInfoManager@@@0@@Z ; std::_Destroy_range<std::allocator<ioShopItemExtraInfoManager::tagShopItemMovieInfo> >
; Function compile flags: /Ogsp
; File c:\program files (x86)\microsoft visual studio 10.0\vc\include\xmemory
;	COMDAT ??$_Destroy_range@V?$allocator@UtagShopItemMovieInfo@ioShopItemExtraInfoManager@@@std@@@std@@YAXPAUtagShopItemMovieInfo@ioShopItemExtraInfoManager@@0AAV?$allocator@UtagShopItemMovieInfo@ioShopItemExtraInfoManager@@@0@@Z
_TEXT	SEGMENT
__First$ = 8						; size = 4
__Last$ = 12						; size = 4
__Al$ = 16						; size = 4
??$_Destroy_range@V?$allocator@UtagShopItemMovieInfo@ioShopItemExtraInfoManager@@@std@@@std@@YAXPAUtagShopItemMovieInfo@ioShopItemExtraInfoManager@@0AAV?$allocator@UtagShopItemMovieInfo@ioShopItemExtraInfoManager@@@0@@Z PROC ; std::_Destroy_range<std::allocator<ioShopItemExtraInfoManager::tagShopItemMovieInfo> >, COMDAT

; 87   : 	{	// destroy [_First, _Last)

  00000	55		 push	 ebp
  00001	8b ec		 mov	 ebp, esp
  00003	56		 push	 esi

; 88   : 	_Destroy_range(_First, _Last, _Al, _Ptr_cat(_First, _Last));

  00004	8b 75 08	 mov	 esi, DWORD PTR __First$[ebp]
  00007	eb 0a		 jmp	 SHORT $LN21@Destroy_ra@2
$LL7@Destroy_ra@2:
  00009	8b ce		 mov	 ecx, esi
  0000b	e8 00 00 00 00	 call	 ??1tagShopItemMovieInfo@ioShopItemExtraInfoManager@@QAE@XZ
  00010	83 c6 34	 add	 esi, 52			; 00000034H
$LN21@Destroy_ra@2:
  00013	3b 75 0c	 cmp	 esi, DWORD PTR __Last$[ebp]
  00016	75 f1		 jne	 SHORT $LL7@Destroy_ra@2
  00018	5e		 pop	 esi

; 89   : 	}

  00019	5d		 pop	 ebp
  0001a	c3		 ret	 0
??$_Destroy_range@V?$allocator@UtagShopItemMovieInfo@ioShopItemExtraInfoManager@@@std@@@std@@YAXPAUtagShopItemMovieInfo@ioShopItemExtraInfoManager@@0AAV?$allocator@UtagShopItemMovieInfo@ioShopItemExtraInfoManager@@@0@@Z ENDP ; std::_Destroy_range<std::allocator<ioShopItemExtraInfoManager::tagShopItemMovieInfo> >
_TEXT	ENDS
PUBLIC	??$_Uninitialized_move@PAUtagShopItemMovieInfo@ioShopItemExtraInfoManager@@PAU12@V?$allocator@UtagShopItemMovieInfo@ioShopItemExtraInfoManager@@@std@@@std@@YAPAUtagShopItemMovieInfo@ioShopItemExtraInfoManager@@PAU12@00AAV?$allocator@UtagShopItemMovieInfo@ioShopItemExtraInfoManager@@@0@@Z ; std::_Uninitialized_move<ioShopItemExtraInfoManager::tagShopItemMovieInfo *,ioShopItemExtraInfoManager::tagShopItemMovieInfo *,std::allocator<ioShopItemExtraInfoManager::tagShopItemMovieInfo> >
; Function compile flags: /Ogsp
; File c:\program files (x86)\microsoft visual studio 10.0\vc\include\memory
;	COMDAT ??$_Uninitialized_move@PAUtagShopItemMovieInfo@ioShopItemExtraInfoManager@@PAU12@V?$allocator@UtagShopItemMovieInfo@ioShopItemExtraInfoManager@@@std@@@std@@YAPAUtagShopItemMovieInfo@ioShopItemExtraInfoManager@@PAU12@00AAV?$allocator@UtagShopItemMovieInfo@ioShopItemExtraInfoManager@@@0@@Z
_TEXT	SEGMENT
__Cat$512832 = -4					; size = 1
__First$ = 8						; size = 4
__Last$ = 12						; size = 4
__Dest$ = 16						; size = 4
__Al$ = 20						; size = 4
??$_Uninitialized_move@PAUtagShopItemMovieInfo@ioShopItemExtraInfoManager@@PAU12@V?$allocator@UtagShopItemMovieInfo@ioShopItemExtraInfoManager@@@std@@@std@@YAPAUtagShopItemMovieInfo@ioShopItemExtraInfoManager@@PAU12@00AAV?$allocator@UtagShopItemMovieInfo@ioShopItemExtraInfoManager@@@0@@Z PROC ; std::_Uninitialized_move<ioShopItemExtraInfoManager::tagShopItemMovieInfo *,ioShopItemExtraInfoManager::tagShopItemMovieInfo *,std::allocator<ioShopItemExtraInfoManager::tagShopItemMovieInfo> >, COMDAT

; 469  : 	{	// move [_First, _Last) to raw _Dest, using _Al

  00000	55		 push	 ebp
  00001	8b ec		 mov	 ebp, esp
  00003	51		 push	 ecx

; 470  : 	return (_Uninit_move(_First, _Last, _Dest, _Al,
; 471  : 		_Val_type(_First), _Ptr_cat(_First, _Dest)));

  00004	ff 75 fc	 push	 DWORD PTR __Cat$512832[ebp]
  00007	6a 00		 push	 0
  00009	ff 75 14	 push	 DWORD PTR __Al$[ebp]
  0000c	ff 75 10	 push	 DWORD PTR __Dest$[ebp]
  0000f	ff 75 0c	 push	 DWORD PTR __Last$[ebp]
  00012	ff 75 08	 push	 DWORD PTR __First$[ebp]
  00015	e8 00 00 00 00	 call	 ??$_Uninit_move@PAUtagShopItemMovieInfo@ioShopItemExtraInfoManager@@PAU12@V?$allocator@UtagShopItemMovieInfo@ioShopItemExtraInfoManager@@@std@@U12@@std@@YAPAUtagShopItemMovieInfo@ioShopItemExtraInfoManager@@PAU12@00AAV?$allocator@UtagShopItemMovieInfo@ioShopItemExtraInfoManager@@@0@0U_Nonscalar_ptr_iterator_tag@0@@Z ; std::_Uninit_move<ioShopItemExtraInfoManager::tagShopItemMovieInfo *,ioShopItemExtraInfoManager::tagShopItemMovieInfo *,std::allocator<ioShopItemExtraInfoManager::tagShopItemMovieInfo>,ioShopItemExtraInfoManager::tagShopItemMovieInfo>
  0001a	83 c4 18	 add	 esp, 24			; 00000018H

; 472  : 	}

  0001d	c9		 leave
  0001e	c3		 ret	 0
??$_Uninitialized_move@PAUtagShopItemMovieInfo@ioShopItemExtraInfoManager@@PAU12@V?$allocator@UtagShopItemMovieInfo@ioShopItemExtraInfoManager@@@std@@@std@@YAPAUtagShopItemMovieInfo@ioShopItemExtraInfoManager@@PAU12@00AAV?$allocator@UtagShopItemMovieInfo@ioShopItemExtraInfoManager@@@0@@Z ENDP ; std::_Uninitialized_move<ioShopItemExtraInfoManager::tagShopItemMovieInfo *,ioShopItemExtraInfoManager::tagShopItemMovieInfo *,std::allocator<ioShopItemExtraInfoManager::tagShopItemMovieInfo> >
_TEXT	ENDS
PUBLIC	??4?$vector@HV?$allocator@H@std@@@std@@QAEAAV01@ABV01@@Z ; std::vector<int,std::allocator<int> >::operator=
; Function compile flags: /Ogsp
; File c:\program files (x86)\microsoft visual studio 10.0\vc\include\vector
;	COMDAT ??4?$vector@HV?$allocator@H@std@@@std@@QAEAAV01@ABV01@@Z
_TEXT	SEGMENT
__Cat$513074 = 8					; size = 1
__Cat$513015 = 8					; size = 1
__Cat$512992 = 8					; size = 1
__Cat$512937 = 8					; size = 1
$T512904 = 8						; size = 4
__Right$ = 8						; size = 4
??4?$vector@HV?$allocator@H@std@@@std@@QAEAAV01@ABV01@@Z PROC ; std::vector<int,std::allocator<int> >::operator=, COMDAT
; _this$ = ecx

; 709  : 		{	// assign _Right

  00000	55		 push	 ebp
  00001	8b ec		 mov	 ebp, esp
  00003	56		 push	 esi
  00004	57		 push	 edi

; 710  : 		if (this != &_Right)

  00005	8b 7d 08	 mov	 edi, DWORD PTR __Right$[ebp]
  00008	8b f1		 mov	 esi, ecx
  0000a	3b f7		 cmp	 esi, edi
  0000c	0f 84 c7 00 00
	00		 je	 $LN1@operator

; 711  : 			{	// worth doing
; 712  : 			this->_Orphan_all();

  00012	53		 push	 ebx
  00013	ff 15 00 00 00
	00		 call	 DWORD PTR __imp_?_Orphan_all@_Container_base0@std@@QAEXXZ

; 713  : 
; 714  : 			if (_Right.size() == 0)

  00019	8b 5f 04	 mov	 ebx, DWORD PTR [edi+4]

; 715  : 				clear();	// new sequence empty, erase existing sequence

  0001c	8b 46 04	 mov	 eax, DWORD PTR [esi+4]
  0001f	8b cb		 mov	 ecx, ebx
  00021	2b 0f		 sub	 ecx, DWORD PTR [edi]
  00023	c1 f9 02	 sar	 ecx, 2
  00026	85 c9		 test	 ecx, ecx
  00028	75 14		 jne	 SHORT $LN8@operator
  0002a	8b 0e		 mov	 ecx, DWORD PTR [esi]
  0002c	50		 push	 eax
  0002d	51		 push	 ecx
  0002e	8d 45 08	 lea	 eax, DWORD PTR $T512904[ebp]
  00031	50		 push	 eax
  00032	8b ce		 mov	 ecx, esi
  00034	e8 00 00 00 00	 call	 ?erase@?$vector@HV?$allocator@H@std@@@std@@QAE?AV?$_Vector_iterator@V?$_Vector_val@HV?$allocator@H@std@@@std@@@2@V?$_Vector_const_iterator@V?$_Vector_val@HV?$allocator@H@std@@@std@@@2@0@Z ; std::vector<int,std::allocator<int> >::erase

; 716  : 			else if (_Right.size() <= size())

  00039	e9 9a 00 00 00	 jmp	 $LN84@operator
$LN8@operator:
  0003e	8b 16		 mov	 edx, DWORD PTR [esi]
  00040	2b c2		 sub	 eax, edx
  00042	c1 f8 02	 sar	 eax, 2
  00045	3b c8		 cmp	 ecx, eax
  00047	77 1e		 ja	 SHORT $LN6@operator

; 717  : 				{	// enough elements, copy new and destroy old
; 718  : 				pointer _Ptr = _STD _Copy_impl(_Right._Myfirst, _Right._Mylast,
; 719  : 					this->_Myfirst);	// copy new

  00049	ff 75 08	 push	 DWORD PTR __Cat$512937[ebp]
  0004c	52		 push	 edx
  0004d	53		 push	 ebx
  0004e	ff 37		 push	 DWORD PTR [edi]
  00050	e8 00 00 00 00	 call	 ??$_Copy_impl@PAHPAH@std@@YAPAHPAH00U_Scalar_ptr_iterator_tag@0@@Z ; std::_Copy_impl<int *,int *>

; 720  : 				_Destroy(_Ptr, this->_Mylast);	// destroy old
; 721  : 				this->_Mylast = this->_Myfirst + _Right.size();

  00055	8b 47 04	 mov	 eax, DWORD PTR [edi+4]
  00058	2b 07		 sub	 eax, DWORD PTR [edi]
  0005a	8b 0e		 mov	 ecx, DWORD PTR [esi]
  0005c	83 c4 10	 add	 esp, 16			; 00000010H
  0005f	c1 f8 02	 sar	 eax, 2
  00062	8d 04 81	 lea	 eax, DWORD PTR [ecx+eax*4]

; 722  : 				}
; 723  : 			else if (_Right.size() <= capacity())

  00065	eb 6e		 jmp	 SHORT $LN85@operator
$LN6@operator:
  00067	8b 5e 08	 mov	 ebx, DWORD PTR [esi+8]
  0006a	2b da		 sub	 ebx, edx
  0006c	c1 fb 02	 sar	 ebx, 2
  0006f	3b cb		 cmp	 ecx, ebx
  00071	77 2a		 ja	 SHORT $LN4@operator

; 724  : 				{	// enough room, copy and construct new
; 725  : 				pointer _Ptr = _Right._Myfirst + size();
; 726  : 				_STD _Copy_impl(_Right._Myfirst, _Ptr, this->_Myfirst);

  00073	ff 75 08	 push	 DWORD PTR __Cat$512992[ebp]
  00076	8b 0f		 mov	 ecx, DWORD PTR [edi]
  00078	52		 push	 edx
  00079	8d 1c 81	 lea	 ebx, DWORD PTR [ecx+eax*4]
  0007c	53		 push	 ebx
  0007d	51		 push	 ecx
  0007e	e8 00 00 00 00	 call	 ??$_Copy_impl@PAHPAH@std@@YAPAHPAH00U_Scalar_ptr_iterator_tag@0@@Z ; std::_Copy_impl<int *,int *>

; 727  : 				this->_Mylast = _Ucopy(_Ptr, _Right._Mylast, this->_Mylast);

  00083	ff 75 08	 push	 DWORD PTR __Cat$513015[ebp]
  00086	8b 46 04	 mov	 eax, DWORD PTR [esi+4]
  00089	8b 7f 04	 mov	 edi, DWORD PTR [edi+4]
  0008c	8d 4e 0c	 lea	 ecx, DWORD PTR [esi+12]
  0008f	51		 push	 ecx
  00090	50		 push	 eax
  00091	57		 push	 edi
  00092	53		 push	 ebx
  00093	e8 00 00 00 00	 call	 ??$_Uninit_copy@HH@std@@YAPAHPAH00AAV?$allocator@H@0@U_Scalar_ptr_iterator_tag@0@@Z ; std::_Uninit_copy<int,int>
  00098	83 c4 24	 add	 esp, 36			; 00000024H

; 728  : 				}
; 729  : 			else

  0009b	eb 38		 jmp	 SHORT $LN85@operator
$LN4@operator:

; 730  : 				{	// not enough room, allocate new array and construct new
; 731  : 				if (this->_Myfirst != 0)

  0009d	85 d2		 test	 edx, edx
  0009f	74 07		 je	 SHORT $LN74@operator

; 732  : 					{	// discard old array
; 733  : 					_Destroy(this->_Myfirst, this->_Mylast);
; 734  : 					this->_Alval.deallocate(this->_Myfirst,
; 735  : 						this->_Myend - this->_Myfirst);

  000a1	52		 push	 edx
  000a2	e8 00 00 00 00	 call	 ??3@YAXPAX@Z		; operator delete
  000a7	59		 pop	 ecx
$LN74@operator:

; 736  : 					}
; 737  : 				if (_Buy(_Right.size()))

  000a8	8b 47 04	 mov	 eax, DWORD PTR [edi+4]
  000ab	2b 07		 sub	 eax, DWORD PTR [edi]
  000ad	8b ce		 mov	 ecx, esi
  000af	c1 f8 02	 sar	 eax, 2
  000b2	50		 push	 eax
  000b3	e8 00 00 00 00	 call	 ?_Buy@?$vector@HV?$allocator@H@std@@@std@@IAE_NI@Z ; std::vector<int,std::allocator<int> >::_Buy
  000b8	84 c0		 test	 al, al
  000ba	74 1c		 je	 SHORT $LN84@operator

; 738  : 					this->_Mylast = _Ucopy(_Right._Myfirst, _Right._Mylast,
; 739  : 						this->_Myfirst);

  000bc	ff 75 08	 push	 DWORD PTR __Cat$513074[ebp]
  000bf	8b 06		 mov	 eax, DWORD PTR [esi]
  000c1	8b 4f 04	 mov	 ecx, DWORD PTR [edi+4]
  000c4	8b 3f		 mov	 edi, DWORD PTR [edi]
  000c6	8d 56 0c	 lea	 edx, DWORD PTR [esi+12]
  000c9	52		 push	 edx
  000ca	50		 push	 eax
  000cb	51		 push	 ecx
  000cc	57		 push	 edi
  000cd	e8 00 00 00 00	 call	 ??$_Uninit_copy@HH@std@@YAPAHPAH00AAV?$allocator@H@0@U_Scalar_ptr_iterator_tag@0@@Z ; std::_Uninit_copy<int,int>
  000d2	83 c4 14	 add	 esp, 20			; 00000014H
$LN85@operator:
  000d5	89 46 04	 mov	 DWORD PTR [esi+4], eax
$LN84@operator:
  000d8	5b		 pop	 ebx
$LN1@operator:
  000d9	5f		 pop	 edi

; 740  : 				}
; 741  : 			}
; 742  : 		return (*this);

  000da	8b c6		 mov	 eax, esi
  000dc	5e		 pop	 esi

; 743  : 		}

  000dd	5d		 pop	 ebp
  000de	c2 04 00	 ret	 4
??4?$vector@HV?$allocator@H@std@@@std@@QAEAAV01@ABV01@@Z ENDP ; std::vector<int,std::allocator<int> >::operator=
_TEXT	ENDS
PUBLIC	??$_Ucopy@V?$_Vector_const_iterator@V?$_Vector_val@HV?$allocator@H@std@@@std@@@std@@@?$vector@HV?$allocator@H@std@@@std@@IAEPAHV?$_Vector_const_iterator@V?$_Vector_val@HV?$allocator@H@std@@@std@@@1@0PAH@Z ; std::vector<int,std::allocator<int> >::_Ucopy<std::_Vector_const_iterator<std::_Vector_val<int,std::allocator<int> > > >
; Function compile flags: /Ogsp
;	COMDAT ??$_Ucopy@V?$_Vector_const_iterator@V?$_Vector_val@HV?$allocator@H@std@@@std@@@std@@@?$vector@HV?$allocator@H@std@@@std@@IAEPAHV?$_Vector_const_iterator@V?$_Vector_val@HV?$allocator@H@std@@@std@@@1@0PAH@Z
_TEXT	SEGMENT
__First$ = 8						; size = 4
__Last$ = 12						; size = 4
__Cat$513093 = 16					; size = 1
__Ptr$ = 16						; size = 4
??$_Ucopy@V?$_Vector_const_iterator@V?$_Vector_val@HV?$allocator@H@std@@@std@@@std@@@?$vector@HV?$allocator@H@std@@@std@@IAEPAHV?$_Vector_const_iterator@V?$_Vector_val@HV?$allocator@H@std@@@std@@@1@0PAH@Z PROC ; std::vector<int,std::allocator<int> >::_Ucopy<std::_Vector_const_iterator<std::_Vector_val<int,std::allocator<int> > > >, COMDAT
; _this$ = ecx

; 1315 : 		pointer _Ucopy(_Iter _First, _Iter _Last, pointer _Ptr)

  00000	55		 push	 ebp
  00001	8b ec		 mov	 ebp, esp

; 1316 : 		{	// copy initializing [_First, _Last), using allocator
; 1317 : 		return (_Uninitialized_copy(_First, _Last,
; 1318 : 			_Ptr, this->_Alval));

  00003	ff 75 10	 push	 DWORD PTR __Cat$513093[ebp]
  00006	83 c1 0c	 add	 ecx, 12			; 0000000cH
  00009	51		 push	 ecx
  0000a	ff 75 10	 push	 DWORD PTR __Ptr$[ebp]
  0000d	ff 75 0c	 push	 DWORD PTR __Last$[ebp]
  00010	ff 75 08	 push	 DWORD PTR __First$[ebp]
  00013	e8 00 00 00 00	 call	 ??$_Uninit_copy@V?$_Vector_const_iterator@V?$_Vector_val@HV?$allocator@H@std@@@std@@@std@@PAHV?$allocator@H@2@@std@@YAPAHV?$_Vector_const_iterator@V?$_Vector_val@HV?$allocator@H@std@@@std@@@0@0PAHAAV?$allocator@H@0@U_Nonscalar_ptr_iterator_tag@0@@Z ; std::_Uninit_copy<std::_Vector_const_iterator<std::_Vector_val<int,std::allocator<int> > >,int *,std::allocator<int> >
  00018	83 c4 14	 add	 esp, 20			; 00000014H

; 1319 : 		}

  0001b	5d		 pop	 ebp
  0001c	c2 0c 00	 ret	 12			; 0000000cH
??$_Ucopy@V?$_Vector_const_iterator@V?$_Vector_val@HV?$allocator@H@std@@@std@@@std@@@?$vector@HV?$allocator@H@std@@@std@@IAEPAHV?$_Vector_const_iterator@V?$_Vector_val@HV?$allocator@H@std@@@std@@@1@0PAH@Z ENDP ; std::vector<int,std::allocator<int> >::_Ucopy<std::_Vector_const_iterator<std::_Vector_val<int,std::allocator<int> > > >
_TEXT	ENDS
PUBLIC	??$_Ucopy@V?$_Vector_const_iterator@V?$_Vector_val@UtagShopItemMovieInfo@ioShopItemExtraInfoManager@@V?$allocator@UtagShopItemMovieInfo@ioShopItemExtraInfoManager@@@std@@@std@@@std@@@?$vector@UtagShopItemMovieInfo@ioShopItemExtraInfoManager@@V?$allocator@UtagShopItemMovieInfo@ioShopItemExtraInfoManager@@@std@@@std@@IAEPAUtagShopItemMovieInfo@ioShopItemExtraInfoManager@@V?$_Vector_const_iterator@V?$_Vector_val@UtagShopItemMovieInfo@ioShopItemExtraInfoManager@@V?$allocator@UtagShopItemMovieInfo@ioShopItemExtraInfoManager@@@std@@@std@@@1@0PAU23@@Z ; std::vector<ioShopItemExtraInfoManager::tagShopItemMovieInfo,std::allocator<ioShopItemExtraInfoManager::tagShopItemMovieInfo> >::_Ucopy<std::_Vector_const_iterator<std::_Vector_val<ioShopItemExtraInfoManager::tagShopItemMovieInfo,std::allocator<ioShopItemExtraInfoManager::tagShopItemMovieInfo> > > >
; Function compile flags: /Ogsp
;	COMDAT ??$_Ucopy@V?$_Vector_const_iterator@V?$_Vector_val@UtagShopItemMovieInfo@ioShopItemExtraInfoManager@@V?$allocator@UtagShopItemMovieInfo@ioShopItemExtraInfoManager@@@std@@@std@@@std@@@?$vector@UtagShopItemMovieInfo@ioShopItemExtraInfoManager@@V?$allocator@UtagShopItemMovieInfo@ioShopItemExtraInfoManager@@@std@@@std@@IAEPAUtagShopItemMovieInfo@ioShopItemExtraInfoManager@@V?$_Vector_const_iterator@V?$_Vector_val@UtagShopItemMovieInfo@ioShopItemExtraInfoManager@@V?$allocator@UtagShopItemMovieInfo@ioShopItemExtraInfoManager@@@std@@@std@@@1@0PAU23@@Z
_TEXT	SEGMENT
__First$ = 8						; size = 4
__Last$ = 12						; size = 4
__Cat$513109 = 16					; size = 1
__Ptr$ = 16						; size = 4
??$_Ucopy@V?$_Vector_const_iterator@V?$_Vector_val@UtagShopItemMovieInfo@ioShopItemExtraInfoManager@@V?$allocator@UtagShopItemMovieInfo@ioShopItemExtraInfoManager@@@std@@@std@@@std@@@?$vector@UtagShopItemMovieInfo@ioShopItemExtraInfoManager@@V?$allocator@UtagShopItemMovieInfo@ioShopItemExtraInfoManager@@@std@@@std@@IAEPAUtagShopItemMovieInfo@ioShopItemExtraInfoManager@@V?$_Vector_const_iterator@V?$_Vector_val@UtagShopItemMovieInfo@ioShopItemExtraInfoManager@@V?$allocator@UtagShopItemMovieInfo@ioShopItemExtraInfoManager@@@std@@@std@@@1@0PAU23@@Z PROC ; std::vector<ioShopItemExtraInfoManager::tagShopItemMovieInfo,std::allocator<ioShopItemExtraInfoManager::tagShopItemMovieInfo> >::_Ucopy<std::_Vector_const_iterator<std::_Vector_val<ioShopItemExtraInfoManager::tagShopItemMovieInfo,std::allocator<ioShopItemExtraInfoManager::tagShopItemMovieInfo> > > >, COMDAT
; _this$ = ecx

; 1315 : 		pointer _Ucopy(_Iter _First, _Iter _Last, pointer _Ptr)

  00000	55		 push	 ebp
  00001	8b ec		 mov	 ebp, esp

; 1316 : 		{	// copy initializing [_First, _Last), using allocator
; 1317 : 		return (_Uninitialized_copy(_First, _Last,
; 1318 : 			_Ptr, this->_Alval));

  00003	ff 75 10	 push	 DWORD PTR __Cat$513109[ebp]
  00006	83 c1 0c	 add	 ecx, 12			; 0000000cH
  00009	51		 push	 ecx
  0000a	ff 75 10	 push	 DWORD PTR __Ptr$[ebp]
  0000d	ff 75 0c	 push	 DWORD PTR __Last$[ebp]
  00010	ff 75 08	 push	 DWORD PTR __First$[ebp]
  00013	e8 00 00 00 00	 call	 ??$_Uninit_copy@V?$_Vector_const_iterator@V?$_Vector_val@UtagShopItemMovieInfo@ioShopItemExtraInfoManager@@V?$allocator@UtagShopItemMovieInfo@ioShopItemExtraInfoManager@@@std@@@std@@@std@@PAUtagShopItemMovieInfo@ioShopItemExtraInfoManager@@V?$allocator@UtagShopItemMovieInfo@ioShopItemExtraInfoManager@@@2@@std@@YAPAUtagShopItemMovieInfo@ioShopItemExtraInfoManager@@V?$_Vector_const_iterator@V?$_Vector_val@UtagShopItemMovieInfo@ioShopItemExtraInfoManager@@V?$allocator@UtagShopItemMovieInfo@ioShopItemExtraInfoManager@@@std@@@std@@@0@0PAU12@AAV?$allocator@UtagShopItemMovieInfo@ioShopItemExtraInfoManager@@@0@U_Nonscalar_ptr_iterator_tag@0@@Z ; std::_Uninit_copy<std::_Vector_const_iterator<std::_Vector_val<ioShopItemExtraInfoManager::tagShopItemMovieInfo,std::allocator<ioShopItemExtraInfoManager::tagShopItemMovieInfo> > >,ioShopItemExtraInfoManager::tagShopItemMovieInfo *,std::allocator<ioShopItemExtraInfoManager::tagShopItemMovieInfo> >
  00018	83 c4 14	 add	 esp, 20			; 00000014H

; 1319 : 		}

  0001b	5d		 pop	 ebp
  0001c	c2 0c 00	 ret	 12			; 0000000cH
??$_Ucopy@V?$_Vector_const_iterator@V?$_Vector_val@UtagShopItemMovieInfo@ioShopItemExtraInfoManager@@V?$allocator@UtagShopItemMovieInfo@ioShopItemExtraInfoManager@@@std@@@std@@@std@@@?$vector@UtagShopItemMovieInfo@ioShopItemExtraInfoManager@@V?$allocator@UtagShopItemMovieInfo@ioShopItemExtraInfoManager@@@std@@@std@@IAEPAUtagShopItemMovieInfo@ioShopItemExtraInfoManager@@V?$_Vector_const_iterator@V?$_Vector_val@UtagShopItemMovieInfo@ioShopItemExtraInfoManager@@V?$allocator@UtagShopItemMovieInfo@ioShopItemExtraInfoManager@@@std@@@std@@@1@0PAU23@@Z ENDP ; std::vector<ioShopItemExtraInfoManager::tagShopItemMovieInfo,std::allocator<ioShopItemExtraInfoManager::tagShopItemMovieInfo> >::_Ucopy<std::_Vector_const_iterator<std::_Vector_val<ioShopItemExtraInfoManager::tagShopItemMovieInfo,std::allocator<ioShopItemExtraInfoManager::tagShopItemMovieInfo> > > >
_TEXT	ENDS
PUBLIC	??$_Ucopy@PAUtagShopItemMovieInfo@ioShopItemExtraInfoManager@@@?$vector@UtagShopItemMovieInfo@ioShopItemExtraInfoManager@@V?$allocator@UtagShopItemMovieInfo@ioShopItemExtraInfoManager@@@std@@@std@@IAEPAUtagShopItemMovieInfo@ioShopItemExtraInfoManager@@PAU23@00@Z ; std::vector<ioShopItemExtraInfoManager::tagShopItemMovieInfo,std::allocator<ioShopItemExtraInfoManager::tagShopItemMovieInfo> >::_Ucopy<ioShopItemExtraInfoManager::tagShopItemMovieInfo *>
; Function compile flags: /Ogsp
;	COMDAT ??$_Ucopy@PAUtagShopItemMovieInfo@ioShopItemExtraInfoManager@@@?$vector@UtagShopItemMovieInfo@ioShopItemExtraInfoManager@@V?$allocator@UtagShopItemMovieInfo@ioShopItemExtraInfoManager@@@std@@@std@@IAEPAUtagShopItemMovieInfo@ioShopItemExtraInfoManager@@PAU23@00@Z
_TEXT	SEGMENT
__First$ = 8						; size = 4
__Last$ = 12						; size = 4
__Cat$513126 = 16					; size = 1
__Ptr$ = 16						; size = 4
??$_Ucopy@PAUtagShopItemMovieInfo@ioShopItemExtraInfoManager@@@?$vector@UtagShopItemMovieInfo@ioShopItemExtraInfoManager@@V?$allocator@UtagShopItemMovieInfo@ioShopItemExtraInfoManager@@@std@@@std@@IAEPAUtagShopItemMovieInfo@ioShopItemExtraInfoManager@@PAU23@00@Z PROC ; std::vector<ioShopItemExtraInfoManager::tagShopItemMovieInfo,std::allocator<ioShopItemExtraInfoManager::tagShopItemMovieInfo> >::_Ucopy<ioShopItemExtraInfoManager::tagShopItemMovieInfo *>, COMDAT
; _this$ = ecx

; 1315 : 		pointer _Ucopy(_Iter _First, _Iter _Last, pointer _Ptr)

  00000	55		 push	 ebp
  00001	8b ec		 mov	 ebp, esp

; 1316 : 		{	// copy initializing [_First, _Last), using allocator
; 1317 : 		return (_Uninitialized_copy(_First, _Last,
; 1318 : 			_Ptr, this->_Alval));

  00003	ff 75 10	 push	 DWORD PTR __Cat$513126[ebp]
  00006	83 c1 0c	 add	 ecx, 12			; 0000000cH
  00009	51		 push	 ecx
  0000a	ff 75 10	 push	 DWORD PTR __Ptr$[ebp]
  0000d	ff 75 0c	 push	 DWORD PTR __Last$[ebp]
  00010	ff 75 08	 push	 DWORD PTR __First$[ebp]
  00013	e8 00 00 00 00	 call	 ??$_Uninit_copy@PAUtagShopItemMovieInfo@ioShopItemExtraInfoManager@@PAU12@V?$allocator@UtagShopItemMovieInfo@ioShopItemExtraInfoManager@@@std@@@std@@YAPAUtagShopItemMovieInfo@ioShopItemExtraInfoManager@@PAU12@00AAV?$allocator@UtagShopItemMovieInfo@ioShopItemExtraInfoManager@@@0@U_Nonscalar_ptr_iterator_tag@0@@Z ; std::_Uninit_copy<ioShopItemExtraInfoManager::tagShopItemMovieInfo *,ioShopItemExtraInfoManager::tagShopItemMovieInfo *,std::allocator<ioShopItemExtraInfoManager::tagShopItemMovieInfo> >
  00018	83 c4 14	 add	 esp, 20			; 00000014H

; 1319 : 		}

  0001b	5d		 pop	 ebp
  0001c	c2 0c 00	 ret	 12			; 0000000cH
??$_Ucopy@PAUtagShopItemMovieInfo@ioShopItemExtraInfoManager@@@?$vector@UtagShopItemMovieInfo@ioShopItemExtraInfoManager@@V?$allocator@UtagShopItemMovieInfo@ioShopItemExtraInfoManager@@@std@@@std@@IAEPAUtagShopItemMovieInfo@ioShopItemExtraInfoManager@@PAU23@00@Z ENDP ; std::vector<ioShopItemExtraInfoManager::tagShopItemMovieInfo,std::allocator<ioShopItemExtraInfoManager::tagShopItemMovieInfo> >::_Ucopy<ioShopItemExtraInfoManager::tagShopItemMovieInfo *>
_TEXT	ENDS
PUBLIC	_rkLoader$GSCopy$
PUBLIC	__$ArrayPad$
PUBLIC	?LoadMachineList@ioShopItemExtraInfoManager@@QAEXAAVioINILoader@@AAV?$vector@HV?$allocator@H@std@@@std@@@Z ; ioShopItemExtraInfoManager::LoadMachineList
EXTRN	__imp__wsprintfA:PROC
; Function compile flags: /Ogsp
; File d:\lost saga for developer\youtube\tutorial\source\src\lsclient\ioshopitemextrainfomanager.cpp
;	COMDAT ?LoadMachineList@ioShopItemExtraInfoManager@@QAEXAAVioINILoader@@AAV?$vector@HV?$allocator@H@std@@@std@@@Z
_TEXT	SEGMENT
_rkLoader$GSCopy$ = -296				; size = 4
$T513317 = -292						; size = 4
_nMachineCode$505786 = -292				; size = 4
_nMaxCnt$ = -288					; size = 4
_szBuf$ = -284						; size = 260
__k$513159 = -24					; size = 12
___encStr$505637 = -24					; size = 15
__$ArrayPad$ = -4					; size = 4
_rkLoader$ = 8						; size = 4
_vList$ = 12						; size = 4
?LoadMachineList@ioShopItemExtraInfoManager@@QAEXAAVioINILoader@@AAV?$vector@HV?$allocator@H@std@@@std@@@Z PROC ; ioShopItemExtraInfoManager::LoadMachineList, COMDAT
; _this$ = ecx

; 89   : {

  00000	55		 push	 ebp
  00001	8b ec		 mov	 ebp, esp
  00003	81 ec 28 01 00
	00		 sub	 esp, 296		; 00000128H
  00009	a1 00 00 00 00	 mov	 eax, DWORD PTR ___security_cookie
  0000e	33 c5		 xor	 eax, ebp
  00010	89 45 fc	 mov	 DWORD PTR __$ArrayPad$[ebp], eax
  00013	53		 push	 ebx
  00014	56		 push	 esi
  00015	8b 75 0c	 mov	 esi, DWORD PTR _vList$[ebp]
  00018	57		 push	 edi
  00019	8b 7d 08	 mov	 edi, DWORD PTR _rkLoader$[ebp]

; 90   : 	char szBuf[MAX_PATH];
; 91   : 
; 92   : 	int nMaxCnt = rkLoader.LoadInt_e( "max_machine", 0 );

  0001c	6a 02		 push	 2

; 97   : 	{
; 98   : 		wsprintf_e( szBuf, "machine_code%d", i+1 );

  0001e	89 bd d8 fe ff
	ff		 mov	 DWORD PTR _rkLoader$GSCopy$[ebp], edi
  00024	c7 45 e8 80 8d
	93 b5		 mov	 DWORD PTR __k$513159[ebp], -1248621184 ; b5938d80H
  0002b	c7 45 ec 80 8d
	88 82		 mov	 DWORD PTR __k$513159[ebp+4], -2104980096 ; 82888d80H
  00032	8d 45 e8	 lea	 eax, DWORD PTR __k$513159[ebp]
  00035	c7 45 f0 84 82
	8e 00		 mov	 DWORD PTR __k$513159[ebp+8], 9339524 ; 008e8284H
  0003c	59		 pop	 ecx
$LL208@LoadMachin:

; 90   : 	char szBuf[MAX_PATH];
; 91   : 
; 92   : 	int nMaxCnt = rkLoader.LoadInt_e( "max_machine", 0 );

  0003d	81 30 ed ec eb
	ea		 xor	 DWORD PTR [eax], -353637139 ; eaebecedH
  00043	83 c0 04	 add	 eax, 4
  00046	49		 dec	 ecx
  00047	75 f4		 jne	 SHORT $LL208@LoadMachin
  00049	6a 08		 push	 8
  0004b	58		 pop	 eax
$LL205@LoadMachin:
  0004c	8b c8		 mov	 ecx, eax
  0004e	81 e1 03 00 00
	80		 and	 ecx, -2147483645	; 80000003H
  00054	79 05		 jns	 SHORT $LN247@LoadMachin
  00056	49		 dec	 ecx
  00057	83 c9 fc	 or	 ecx, -4			; fffffffcH
  0005a	41		 inc	 ecx
$LN247@LoadMachin:
  0005b	b2 ed		 mov	 dl, -19			; ffffffedH
  0005d	2a d1		 sub	 dl, cl
  0005f	30 54 05 e8	 xor	 BYTE PTR __k$513159[ebp+eax], dl
  00063	40		 inc	 eax
  00064	83 f8 0b	 cmp	 eax, 11			; 0000000bH
  00067	7c e3		 jl	 SHORT $LL205@LoadMachin
  00069	33 db		 xor	 ebx, ebx
  0006b	53		 push	 ebx
  0006c	8d 45 e8	 lea	 eax, DWORD PTR __k$513159[ebp]
  0006f	8b cf		 mov	 ecx, edi
  00071	8b 3d 00 00 00
	00		 mov	 edi, DWORD PTR __imp_?LoadInt@ioINILoader@@QAEHPBDH@Z
  00077	50		 push	 eax
  00078	ff d7		 call	 edi

; 93   : 	vList.clear();

  0007a	8b 0e		 mov	 ecx, DWORD PTR [esi]
  0007c	89 85 e0 fe ff
	ff		 mov	 DWORD PTR _nMaxCnt$[ebp], eax
  00082	8b 46 04	 mov	 eax, DWORD PTR [esi+4]
  00085	50		 push	 eax
  00086	51		 push	 ecx
  00087	8d 85 dc fe ff
	ff		 lea	 eax, DWORD PTR $T513317[ebp]
  0008d	50		 push	 eax
  0008e	8b ce		 mov	 ecx, esi
  00090	e8 00 00 00 00	 call	 ?erase@?$vector@HV?$allocator@H@std@@@std@@QAE?AV?$_Vector_iterator@V?$_Vector_val@HV?$allocator@H@std@@@std@@@2@V?$_Vector_const_iterator@V?$_Vector_val@HV?$allocator@H@std@@@std@@@2@0@Z ; std::vector<int,std::allocator<int> >::erase

; 94   : 	vList.reserve( nMaxCnt );

  00095	ff b5 e0 fe ff
	ff		 push	 DWORD PTR _nMaxCnt$[ebp]
  0009b	8b ce		 mov	 ecx, esi
  0009d	e8 00 00 00 00	 call	 ?reserve@?$vector@HV?$allocator@H@std@@@std@@QAEXI@Z ; std::vector<int,std::allocator<int> >::reserve

; 95   : 
; 96   : 	for ( int i=0; i< nMaxCnt; i++ )

  000a2	39 9d e0 fe ff
	ff		 cmp	 DWORD PTR _nMaxCnt$[ebp], ebx
  000a8	0f 8e 98 00 00
	00		 jle	 $LN100@LoadMachin
$LL102@LoadMachin:

; 93   : 	vList.clear();

  000ae	6a 03		 push	 3

; 97   : 	{
; 98   : 		wsprintf_e( szBuf, "machine_code%d", i+1 );

  000b0	c7 45 e8 80 8d
	88 82		 mov	 DWORD PTR ___encStr$505637[ebp], -2104980096 ; 82888d80H
  000b7	c7 45 ec 84 82
	8e b5		 mov	 DWORD PTR ___encStr$505637[ebp+4], -1248951676 ; b58e8284H
  000be	c7 45 f0 8e 83
	8f 8f		 mov	 DWORD PTR ___encStr$505637[ebp+8], -1886420082 ; 8f8f838eH
  000c5	66 c7 45 f4 c8
	88		 mov	 WORD PTR ___encStr$505637[ebp+12], 35016 ; 000088c8H
  000cb	8d 45 e8	 lea	 eax, DWORD PTR ___encStr$505637[ebp]
  000ce	c6 45 f6 00	 mov	 BYTE PTR ___encStr$505637[ebp+14], 0
  000d2	59		 pop	 ecx
$LL234@LoadMachin:
  000d3	81 30 ed ec eb
	ea		 xor	 DWORD PTR [eax], -353637139 ; eaebecedH
  000d9	83 c0 04	 add	 eax, 4
  000dc	49		 dec	 ecx
  000dd	75 f4		 jne	 SHORT $LL234@LoadMachin
  000df	6a 0c		 push	 12			; 0000000cH
  000e1	58		 pop	 eax
$LL231@LoadMachin:
  000e2	8b c8		 mov	 ecx, eax
  000e4	81 e1 03 00 00
	80		 and	 ecx, -2147483645	; 80000003H
  000ea	79 05		 jns	 SHORT $LN248@LoadMachin
  000ec	49		 dec	 ecx
  000ed	83 c9 fc	 or	 ecx, -4			; fffffffcH
  000f0	41		 inc	 ecx
$LN248@LoadMachin:
  000f1	b2 ed		 mov	 dl, -19			; ffffffedH
  000f3	2a d1		 sub	 dl, cl
  000f5	30 54 05 e8	 xor	 BYTE PTR ___encStr$505637[ebp+eax], dl
  000f9	40		 inc	 eax
  000fa	83 f8 0e	 cmp	 eax, 14			; 0000000eH
  000fd	7c e3		 jl	 SHORT $LL231@LoadMachin
  000ff	43		 inc	 ebx
  00100	53		 push	 ebx
  00101	8d 45 e8	 lea	 eax, DWORD PTR ___encStr$505637[ebp]
  00104	50		 push	 eax
  00105	8d 85 e4 fe ff
	ff		 lea	 eax, DWORD PTR _szBuf$[ebp]
  0010b	50		 push	 eax
  0010c	ff 15 00 00 00
	00		 call	 DWORD PTR __imp__wsprintfA

; 99   : 		int nMachineCode = rkLoader.LoadInt( szBuf, 0 );

  00112	8b 8d d8 fe ff
	ff		 mov	 ecx, DWORD PTR _rkLoader$GSCopy$[ebp]
  00118	83 c4 0c	 add	 esp, 12			; 0000000cH
  0011b	6a 00		 push	 0
  0011d	8d 85 e4 fe ff
	ff		 lea	 eax, DWORD PTR _szBuf$[ebp]
  00123	50		 push	 eax
  00124	ff d7		 call	 edi
  00126	89 85 dc fe ff
	ff		 mov	 DWORD PTR _nMachineCode$505786[ebp], eax

; 100  : 		vList.push_back( nMachineCode );

  0012c	8d 85 dc fe ff
	ff		 lea	 eax, DWORD PTR _nMachineCode$505786[ebp]
  00132	50		 push	 eax
  00133	8b ce		 mov	 ecx, esi
  00135	e8 00 00 00 00	 call	 ?push_back@?$vector@HV?$allocator@H@std@@@std@@QAEXABH@Z ; std::vector<int,std::allocator<int> >::push_back
  0013a	3b 9d e0 fe ff
	ff		 cmp	 ebx, DWORD PTR _nMaxCnt$[ebp]
  00140	0f 8c 68 ff ff
	ff		 jl	 $LL102@LoadMachin
$LN100@LoadMachin:

; 101  : 	}
; 102  : }

  00146	8b 4d fc	 mov	 ecx, DWORD PTR __$ArrayPad$[ebp]
  00149	5f		 pop	 edi
  0014a	5e		 pop	 esi
  0014b	33 cd		 xor	 ecx, ebp
  0014d	5b		 pop	 ebx
  0014e	e8 00 00 00 00	 call	 @__security_check_cookie@4
  00153	c9		 leave
  00154	c2 08 00	 ret	 8
?LoadMachineList@ioShopItemExtraInfoManager@@QAEXAAVioINILoader@@AAV?$vector@HV?$allocator@H@std@@@std@@@Z ENDP ; ioShopItemExtraInfoManager::LoadMachineList
_TEXT	ENDS
PUBLIC	_rkLoader$GSCopy$
PUBLIC	__$ArrayPad$
PUBLIC	?LoadSkillList@ioShopItemExtraInfoManager@@QAEXAAVioINILoader@@AAV?$vector@HV?$allocator@H@std@@@std@@@Z ; ioShopItemExtraInfoManager::LoadSkillList
; Function compile flags: /Ogsp
;	COMDAT ?LoadSkillList@ioShopItemExtraInfoManager@@QAEXAAVioINILoader@@AAV?$vector@HV?$allocator@H@std@@@std@@@Z
_TEXT	SEGMENT
_rkLoader$GSCopy$ = -296				; size = 4
$T513550 = -292						; size = 4
_nItemCode$505955 = -292				; size = 4
_nMaxCnt$ = -288					; size = 4
_szBuf$ = -284						; size = 260
__k$513392 = -24					; size = 13
___encStr$505806 = -24					; size = 16
__$ArrayPad$ = -4					; size = 4
_rkLoader$ = 8						; size = 4
_vList$ = 12						; size = 4
?LoadSkillList@ioShopItemExtraInfoManager@@QAEXAAVioINILoader@@AAV?$vector@HV?$allocator@H@std@@@std@@@Z PROC ; ioShopItemExtraInfoManager::LoadSkillList, COMDAT
; _this$ = ecx

; 105  : {

  00000	55		 push	 ebp
  00001	8b ec		 mov	 ebp, esp
  00003	81 ec 28 01 00
	00		 sub	 esp, 296		; 00000128H
  00009	a1 00 00 00 00	 mov	 eax, DWORD PTR ___security_cookie
  0000e	33 c5		 xor	 eax, ebp
  00010	89 45 fc	 mov	 DWORD PTR __$ArrayPad$[ebp], eax
  00013	8b 4d 08	 mov	 ecx, DWORD PTR _rkLoader$[ebp]
  00016	53		 push	 ebx
  00017	56		 push	 esi
  00018	8b 75 0c	 mov	 esi, DWORD PTR _vList$[ebp]
  0001b	57		 push	 edi

; 106  : 	char szBuf[MAX_PATH];
; 107  : 
; 108  : 	int nMaxCnt = rkLoader.LoadInt_e( "max_sub_item", 0 );

  0001c	6a 03		 push	 3

; 113  : 	{
; 114  : 		wsprintf_e( szBuf, "sub_item_code%d", i+1 );

  0001e	89 8d d8 fe ff
	ff		 mov	 DWORD PTR _rkLoader$GSCopy$[ebp], ecx
  00024	c7 45 e8 80 8d
	93 b5		 mov	 DWORD PTR __k$513392[ebp], -1248621184 ; b5938d80H
  0002b	c7 45 ec 9e 99
	89 b5		 mov	 DWORD PTR __k$513392[ebp+4], -1249273442 ; b589999eH
  00032	c7 45 f0 84 98
	8e 87		 mov	 DWORD PTR __k$513392[ebp+8], -2020697980 ; 878e9884H
  00039	8d 45 e8	 lea	 eax, DWORD PTR __k$513392[ebp]
  0003c	c6 45 f4 00	 mov	 BYTE PTR __k$513392[ebp+12], 0
  00040	5a		 pop	 edx
$LL208@LoadSkillL:

; 106  : 	char szBuf[MAX_PATH];
; 107  : 
; 108  : 	int nMaxCnt = rkLoader.LoadInt_e( "max_sub_item", 0 );

  00041	81 30 ed ec eb
	ea		 xor	 DWORD PTR [eax], -353637139 ; eaebecedH
  00047	83 c0 04	 add	 eax, 4
  0004a	4a		 dec	 edx
  0004b	75 f4		 jne	 SHORT $LL208@LoadSkillL
  0004d	8b 3d 00 00 00
	00		 mov	 edi, DWORD PTR __imp_?LoadInt@ioINILoader@@QAEHPBDH@Z
  00053	33 db		 xor	 ebx, ebx
  00055	53		 push	 ebx
  00056	8d 45 e8	 lea	 eax, DWORD PTR __k$513392[ebp]
  00059	50		 push	 eax
  0005a	ff d7		 call	 edi

; 109  : 	vList.clear();

  0005c	8b 0e		 mov	 ecx, DWORD PTR [esi]
  0005e	89 85 e0 fe ff
	ff		 mov	 DWORD PTR _nMaxCnt$[ebp], eax
  00064	8b 46 04	 mov	 eax, DWORD PTR [esi+4]
  00067	50		 push	 eax
  00068	51		 push	 ecx
  00069	8d 85 dc fe ff
	ff		 lea	 eax, DWORD PTR $T513550[ebp]
  0006f	50		 push	 eax
  00070	8b ce		 mov	 ecx, esi
  00072	e8 00 00 00 00	 call	 ?erase@?$vector@HV?$allocator@H@std@@@std@@QAE?AV?$_Vector_iterator@V?$_Vector_val@HV?$allocator@H@std@@@std@@@2@V?$_Vector_const_iterator@V?$_Vector_val@HV?$allocator@H@std@@@std@@@2@0@Z ; std::vector<int,std::allocator<int> >::erase

; 110  : 	vList.reserve( nMaxCnt );

  00077	ff b5 e0 fe ff
	ff		 push	 DWORD PTR _nMaxCnt$[ebp]
  0007d	8b ce		 mov	 ecx, esi
  0007f	e8 00 00 00 00	 call	 ?reserve@?$vector@HV?$allocator@H@std@@@std@@QAEXI@Z ; std::vector<int,std::allocator<int> >::reserve

; 111  : 
; 112  : 	for ( int i=0; i< nMaxCnt; i++ )

  00084	39 9d e0 fe ff
	ff		 cmp	 DWORD PTR _nMaxCnt$[ebp], ebx
  0008a	0f 8e 95 00 00
	00		 jle	 $LN100@LoadSkillL
$LL247@LoadSkillL:

; 109  : 	vList.clear();

  00090	6a 03		 push	 3

; 113  : 	{
; 114  : 		wsprintf_e( szBuf, "sub_item_code%d", i+1 );

  00092	c7 45 e8 9e 99
	89 b5		 mov	 DWORD PTR ___encStr$505806[ebp], -1249273442 ; b589999eH
  00099	c7 45 ec 84 98
	8e 87		 mov	 DWORD PTR ___encStr$505806[ebp+4], -2020697980 ; 878e9884H
  000a0	c7 45 f0 b2 8f
	84 8e		 mov	 DWORD PTR ___encStr$505806[ebp+8], -1903915086 ; 8e848fb2H
  000a7	8d 45 e8	 lea	 eax, DWORD PTR ___encStr$505806[ebp]
  000aa	c7 45 f4 88 c9
	8f 00		 mov	 DWORD PTR ___encStr$505806[ebp+12], 9423240 ; 008fc988H
  000b1	59		 pop	 ecx
$LL234@LoadSkillL:
  000b2	81 30 ed ec eb
	ea		 xor	 DWORD PTR [eax], -353637139 ; eaebecedH
  000b8	83 c0 04	 add	 eax, 4
  000bb	49		 dec	 ecx
  000bc	75 f4		 jne	 SHORT $LL234@LoadSkillL
  000be	6a 0c		 push	 12			; 0000000cH
  000c0	58		 pop	 eax
$LL231@LoadSkillL:
  000c1	8b c8		 mov	 ecx, eax
  000c3	81 e1 03 00 00
	80		 and	 ecx, -2147483645	; 80000003H
  000c9	79 05		 jns	 SHORT $LN248@LoadSkillL
  000cb	49		 dec	 ecx
  000cc	83 c9 fc	 or	 ecx, -4			; fffffffcH
  000cf	41		 inc	 ecx
$LN248@LoadSkillL:
  000d0	b2 ed		 mov	 dl, -19			; ffffffedH
  000d2	2a d1		 sub	 dl, cl
  000d4	30 54 05 e8	 xor	 BYTE PTR ___encStr$505806[ebp+eax], dl
  000d8	40		 inc	 eax
  000d9	83 f8 0f	 cmp	 eax, 15			; 0000000fH
  000dc	7c e3		 jl	 SHORT $LL231@LoadSkillL
  000de	43		 inc	 ebx
  000df	53		 push	 ebx
  000e0	8d 45 e8	 lea	 eax, DWORD PTR ___encStr$505806[ebp]
  000e3	50		 push	 eax
  000e4	8d 85 e4 fe ff
	ff		 lea	 eax, DWORD PTR _szBuf$[ebp]
  000ea	50		 push	 eax
  000eb	ff 15 00 00 00
	00		 call	 DWORD PTR __imp__wsprintfA

; 115  : 		int nItemCode = rkLoader.LoadInt( szBuf, 0 );

  000f1	8b 8d d8 fe ff
	ff		 mov	 ecx, DWORD PTR _rkLoader$GSCopy$[ebp]
  000f7	83 c4 0c	 add	 esp, 12			; 0000000cH
  000fa	6a 00		 push	 0
  000fc	8d 85 e4 fe ff
	ff		 lea	 eax, DWORD PTR _szBuf$[ebp]
  00102	50		 push	 eax
  00103	ff d7		 call	 edi
  00105	89 85 dc fe ff
	ff		 mov	 DWORD PTR _nItemCode$505955[ebp], eax

; 116  : 		vList.push_back( nItemCode );

  0010b	8d 85 dc fe ff
	ff		 lea	 eax, DWORD PTR _nItemCode$505955[ebp]
  00111	50		 push	 eax
  00112	8b ce		 mov	 ecx, esi
  00114	e8 00 00 00 00	 call	 ?push_back@?$vector@HV?$allocator@H@std@@@std@@QAEXABH@Z ; std::vector<int,std::allocator<int> >::push_back
  00119	3b 9d e0 fe ff
	ff		 cmp	 ebx, DWORD PTR _nMaxCnt$[ebp]
  0011f	0f 8c 6b ff ff
	ff		 jl	 $LL247@LoadSkillL
$LN100@LoadSkillL:

; 117  : 	}
; 118  : }

  00125	8b 4d fc	 mov	 ecx, DWORD PTR __$ArrayPad$[ebp]
  00128	5f		 pop	 edi
  00129	5e		 pop	 esi
  0012a	33 cd		 xor	 ecx, ebp
  0012c	5b		 pop	 ebx
  0012d	e8 00 00 00 00	 call	 @__security_check_cookie@4
  00132	c9		 leave
  00133	c2 08 00	 ret	 8
?LoadSkillList@ioShopItemExtraInfoManager@@QAEXAAVioINILoader@@AAV?$vector@HV?$allocator@H@std@@@std@@@Z ENDP ; ioShopItemExtraInfoManager::LoadSkillList
_TEXT	ENDS
PUBLIC	?_Destroy@?$vector@UtagShopItemMovieInfo@ioShopItemExtraInfoManager@@V?$allocator@UtagShopItemMovieInfo@ioShopItemExtraInfoManager@@@std@@@std@@IAEXPAUtagShopItemMovieInfo@ioShopItemExtraInfoManager@@0@Z ; std::vector<ioShopItemExtraInfoManager::tagShopItemMovieInfo,std::allocator<ioShopItemExtraInfoManager::tagShopItemMovieInfo> >::_Destroy
; Function compile flags: /Ogsp
; File c:\program files (x86)\microsoft visual studio 10.0\vc\include\vector
;	COMDAT ?_Destroy@?$vector@UtagShopItemMovieInfo@ioShopItemExtraInfoManager@@V?$allocator@UtagShopItemMovieInfo@ioShopItemExtraInfoManager@@@std@@@std@@IAEXPAUtagShopItemMovieInfo@ioShopItemExtraInfoManager@@0@Z
_TEXT	SEGMENT
__First$ = 8						; size = 4
__Last$ = 12						; size = 4
?_Destroy@?$vector@UtagShopItemMovieInfo@ioShopItemExtraInfoManager@@V?$allocator@UtagShopItemMovieInfo@ioShopItemExtraInfoManager@@@std@@@std@@IAEXPAUtagShopItemMovieInfo@ioShopItemExtraInfoManager@@0@Z PROC ; std::vector<ioShopItemExtraInfoManager::tagShopItemMovieInfo,std::allocator<ioShopItemExtraInfoManager::tagShopItemMovieInfo> >::_Destroy, COMDAT
; _this$ = ecx

; 1269 : 		{	// destroy [_First, _Last) using allocator

  00000	55		 push	 ebp
  00001	8b ec		 mov	 ebp, esp
  00003	56		 push	 esi

; 1270 : 		_Destroy_range(_First, _Last, this->_Alval);

  00004	8b 75 08	 mov	 esi, DWORD PTR __First$[ebp]
  00007	eb 0a		 jmp	 SHORT $LN23@Destroy
$LL9@Destroy:
  00009	8b ce		 mov	 ecx, esi
  0000b	e8 00 00 00 00	 call	 ??1tagShopItemMovieInfo@ioShopItemExtraInfoManager@@QAE@XZ
  00010	83 c6 34	 add	 esi, 52			; 00000034H
$LN23@Destroy:
  00013	3b 75 0c	 cmp	 esi, DWORD PTR __Last$[ebp]
  00016	75 f1		 jne	 SHORT $LL9@Destroy
  00018	5e		 pop	 esi

; 1271 : 		}

  00019	5d		 pop	 ebp
  0001a	c2 08 00	 ret	 8
?_Destroy@?$vector@UtagShopItemMovieInfo@ioShopItemExtraInfoManager@@V?$allocator@UtagShopItemMovieInfo@ioShopItemExtraInfoManager@@@std@@@std@@IAEXPAUtagShopItemMovieInfo@ioShopItemExtraInfoManager@@0@Z ENDP ; std::vector<ioShopItemExtraInfoManager::tagShopItemMovieInfo,std::allocator<ioShopItemExtraInfoManager::tagShopItemMovieInfo> >::_Destroy
_TEXT	ENDS
PUBLIC	?_Tidy@?$vector@UtagShopItemMovieInfo@ioShopItemExtraInfoManager@@V?$allocator@UtagShopItemMovieInfo@ioShopItemExtraInfoManager@@@std@@@std@@IAEXXZ ; std::vector<ioShopItemExtraInfoManager::tagShopItemMovieInfo,std::allocator<ioShopItemExtraInfoManager::tagShopItemMovieInfo> >::_Tidy
; Function compile flags: /Ogsp
;	COMDAT ?_Tidy@?$vector@UtagShopItemMovieInfo@ioShopItemExtraInfoManager@@V?$allocator@UtagShopItemMovieInfo@ioShopItemExtraInfoManager@@@std@@@std@@IAEXXZ
_TEXT	SEGMENT
?_Tidy@?$vector@UtagShopItemMovieInfo@ioShopItemExtraInfoManager@@V?$allocator@UtagShopItemMovieInfo@ioShopItemExtraInfoManager@@@std@@@std@@IAEXXZ PROC ; std::vector<ioShopItemExtraInfoManager::tagShopItemMovieInfo,std::allocator<ioShopItemExtraInfoManager::tagShopItemMovieInfo> >::_Tidy, COMDAT
; _this$ = ecx

; 1301 : 		{	// free all storage

  00000	56		 push	 esi
  00001	8b f1		 mov	 esi, ecx

; 1302 : 		if (this->_Myfirst != 0)

  00003	83 3e 00	 cmp	 DWORD PTR [esi], 0
  00006	74 27		 je	 SHORT $LN24@Tidy@2

; 1303 : 			{	// something to free, destroy and deallocate it
; 1304 : 			this->_Orphan_all();

  00008	53		 push	 ebx
  00009	57		 push	 edi
  0000a	ff 15 00 00 00
	00		 call	 DWORD PTR __imp_?_Orphan_all@_Container_base0@std@@QAEXXZ

; 1305 : 			_Destroy(this->_Myfirst, this->_Mylast);

  00010	8b 5e 04	 mov	 ebx, DWORD PTR [esi+4]
  00013	8b 3e		 mov	 edi, DWORD PTR [esi]
  00015	eb 0a		 jmp	 SHORT $LN28@Tidy@2
$LL12@Tidy@2:
  00017	8b cf		 mov	 ecx, edi
  00019	e8 00 00 00 00	 call	 ??1tagShopItemMovieInfo@ioShopItemExtraInfoManager@@QAE@XZ
  0001e	83 c7 34	 add	 edi, 52			; 00000034H
$LN28@Tidy@2:
  00021	3b fb		 cmp	 edi, ebx
  00023	75 f2		 jne	 SHORT $LL12@Tidy@2

; 1306 : 			this->_Alval.deallocate(this->_Myfirst,
; 1307 : 				this->_Myend - this->_Myfirst);

  00025	ff 36		 push	 DWORD PTR [esi]
  00027	e8 00 00 00 00	 call	 ??3@YAXPAX@Z		; operator delete
  0002c	59		 pop	 ecx
  0002d	5f		 pop	 edi
  0002e	5b		 pop	 ebx
$LN24@Tidy@2:

; 1308 : 			}
; 1309 : 		this->_Myfirst = 0;

  0002f	33 c0		 xor	 eax, eax
  00031	89 06		 mov	 DWORD PTR [esi], eax

; 1310 : 		this->_Mylast = 0;

  00033	89 46 04	 mov	 DWORD PTR [esi+4], eax

; 1311 : 		this->_Myend = 0;

  00036	89 46 08	 mov	 DWORD PTR [esi+8], eax
  00039	5e		 pop	 esi

; 1312 : 		}

  0003a	c3		 ret	 0
?_Tidy@?$vector@UtagShopItemMovieInfo@ioShopItemExtraInfoManager@@V?$allocator@UtagShopItemMovieInfo@ioShopItemExtraInfoManager@@@std@@@std@@IAEXXZ ENDP ; std::vector<ioShopItemExtraInfoManager::tagShopItemMovieInfo,std::allocator<ioShopItemExtraInfoManager::tagShopItemMovieInfo> >::_Tidy
_TEXT	ENDS
PUBLIC	??$_Umove@PAUtagShopItemMovieInfo@ioShopItemExtraInfoManager@@@?$vector@UtagShopItemMovieInfo@ioShopItemExtraInfoManager@@V?$allocator@UtagShopItemMovieInfo@ioShopItemExtraInfoManager@@@std@@@std@@IAEPAUtagShopItemMovieInfo@ioShopItemExtraInfoManager@@PAU23@00@Z ; std::vector<ioShopItemExtraInfoManager::tagShopItemMovieInfo,std::allocator<ioShopItemExtraInfoManager::tagShopItemMovieInfo> >::_Umove<ioShopItemExtraInfoManager::tagShopItemMovieInfo *>
; Function compile flags: /Ogsp
;	COMDAT ??$_Umove@PAUtagShopItemMovieInfo@ioShopItemExtraInfoManager@@@?$vector@UtagShopItemMovieInfo@ioShopItemExtraInfoManager@@V?$allocator@UtagShopItemMovieInfo@ioShopItemExtraInfoManager@@@std@@@std@@IAEPAUtagShopItemMovieInfo@ioShopItemExtraInfoManager@@PAU23@00@Z
_TEXT	SEGMENT
__First$ = 8						; size = 4
__Last$ = 12						; size = 4
__Ptr$ = 16						; size = 4
??$_Umove@PAUtagShopItemMovieInfo@ioShopItemExtraInfoManager@@@?$vector@UtagShopItemMovieInfo@ioShopItemExtraInfoManager@@V?$allocator@UtagShopItemMovieInfo@ioShopItemExtraInfoManager@@@std@@@std@@IAEPAUtagShopItemMovieInfo@ioShopItemExtraInfoManager@@PAU23@00@Z PROC ; std::vector<ioShopItemExtraInfoManager::tagShopItemMovieInfo,std::allocator<ioShopItemExtraInfoManager::tagShopItemMovieInfo> >::_Umove<ioShopItemExtraInfoManager::tagShopItemMovieInfo *>, COMDAT
; _this$ = ecx

; 1322 : 		pointer _Umove(_Iter _First, _Iter _Last, pointer _Ptr)

  00000	55		 push	 ebp
  00001	8b ec		 mov	 ebp, esp

; 1323 : 		{	// move initializing [_First, _Last), using allocator
; 1324 : 		return (_Uninitialized_move(_First, _Last,
; 1325 : 			_Ptr, this->_Alval));

  00003	83 c1 0c	 add	 ecx, 12			; 0000000cH
  00006	51		 push	 ecx
  00007	ff 75 10	 push	 DWORD PTR __Ptr$[ebp]
  0000a	ff 75 0c	 push	 DWORD PTR __Last$[ebp]
  0000d	ff 75 08	 push	 DWORD PTR __First$[ebp]
  00010	e8 00 00 00 00	 call	 ??$_Uninitialized_move@PAUtagShopItemMovieInfo@ioShopItemExtraInfoManager@@PAU12@V?$allocator@UtagShopItemMovieInfo@ioShopItemExtraInfoManager@@@std@@@std@@YAPAUtagShopItemMovieInfo@ioShopItemExtraInfoManager@@PAU12@00AAV?$allocator@UtagShopItemMovieInfo@ioShopItemExtraInfoManager@@@0@@Z ; std::_Uninitialized_move<ioShopItemExtraInfoManager::tagShopItemMovieInfo *,ioShopItemExtraInfoManager::tagShopItemMovieInfo *,std::allocator<ioShopItemExtraInfoManager::tagShopItemMovieInfo> >
  00015	83 c4 10	 add	 esp, 16			; 00000010H

; 1326 : 		}

  00018	5d		 pop	 ebp
  00019	c2 0c 00	 ret	 12			; 0000000cH
??$_Umove@PAUtagShopItemMovieInfo@ioShopItemExtraInfoManager@@@?$vector@UtagShopItemMovieInfo@ioShopItemExtraInfoManager@@V?$allocator@UtagShopItemMovieInfo@ioShopItemExtraInfoManager@@@std@@@std@@IAEPAUtagShopItemMovieInfo@ioShopItemExtraInfoManager@@PAU23@00@Z ENDP ; std::vector<ioShopItemExtraInfoManager::tagShopItemMovieInfo,std::allocator<ioShopItemExtraInfoManager::tagShopItemMovieInfo> >::_Umove<ioShopItemExtraInfoManager::tagShopItemMovieInfo *>
_TEXT	ENDS
PUBLIC	??0?$vector@HV?$allocator@H@std@@@std@@QAE@ABV01@@Z ; std::vector<int,std::allocator<int> >::vector<int,std::allocator<int> >
;	COMDAT xdata$x
; File c:\program files (x86)\microsoft visual studio 10.0\vc\include\xutility
xdata$x	SEGMENT
__catchsym$??0?$vector@HV?$allocator@H@std@@@std@@QAE@ABV01@@Z$2 DD 040H
	DD	00H
	DD	00H
	DD	FLAT:__catch$??0?$vector@HV?$allocator@H@std@@@std@@QAE@ABV01@@Z$0
__unwindtable$??0?$vector@HV?$allocator@H@std@@@std@@QAE@ABV01@@Z DD 0ffffffffH
	DD	00H
	DD	0ffffffffH
	DD	00H
__tryblocktable$??0?$vector@HV?$allocator@H@std@@@std@@QAE@ABV01@@Z DD 00H
	DD	00H
	DD	01H
	DD	01H
	DD	FLAT:__catchsym$??0?$vector@HV?$allocator@H@std@@@std@@QAE@ABV01@@Z$2
__ehfuncinfo$??0?$vector@HV?$allocator@H@std@@@std@@QAE@ABV01@@Z DD 019930522H
	DD	02H
	DD	FLAT:__unwindtable$??0?$vector@HV?$allocator@H@std@@@std@@QAE@ABV01@@Z
	DD	01H
	DD	FLAT:__tryblocktable$??0?$vector@HV?$allocator@H@std@@@std@@QAE@ABV01@@Z
	DD	2 DUP(00H)
	DD	00H
	DD	01H
; Function compile flags: /Ogsp
; File c:\program files (x86)\microsoft visual studio 10.0\vc\include\vector
xdata$x	ENDS
;	COMDAT ??0?$vector@HV?$allocator@H@std@@@std@@QAE@ABV01@@Z
_TEXT	SEGMENT
_this$ = -20						; size = 4
__$EHRec$ = -16						; size = 16
__Cat$513855 = 8					; size = 1
__Right$ = 8						; size = 4
??0?$vector@HV?$allocator@H@std@@@std@@QAE@ABV01@@Z PROC ; std::vector<int,std::allocator<int> >::vector<int,std::allocator<int> >, COMDAT
; _this$ = ecx

; 535  : 		{	// construct by copying _Right

  00000	6a 08		 push	 8
  00002	b8 00 00 00 00	 mov	 eax, __ehhandler$??0?$vector@HV?$allocator@H@std@@@std@@QAE@ABV01@@Z
  00007	e8 00 00 00 00	 call	 __EH_prolog3_catch
  0000c	8b f1		 mov	 esi, ecx
  0000e	89 75 ec	 mov	 DWORD PTR _this$[ebp], esi

; 536  : 		if (_Buy(_Right.size()))

  00011	8b 7d 08	 mov	 edi, DWORD PTR __Right$[ebp]
  00014	33 db		 xor	 ebx, ebx
  00016	89 1e		 mov	 DWORD PTR [esi], ebx
  00018	89 5e 04	 mov	 DWORD PTR [esi+4], ebx
  0001b	89 5e 08	 mov	 DWORD PTR [esi+8], ebx
  0001e	8b 47 04	 mov	 eax, DWORD PTR [edi+4]
  00021	2b 07		 sub	 eax, DWORD PTR [edi]
  00023	c1 f8 02	 sar	 eax, 2
  00026	50		 push	 eax
  00027	e8 00 00 00 00	 call	 ?_Buy@?$vector@HV?$allocator@H@std@@@std@@IAE_NI@Z ; std::vector<int,std::allocator<int> >::_Buy
  0002c	84 c0		 test	 al, al
  0002e	74 1f		 je	 SHORT $LN7@vector

; 537  : 			_TRY_BEGIN
; 538  : 			this->_Mylast = _Ucopy(_Right.begin(), _Right.end(),
; 539  : 				this->_Myfirst);

  00030	ff 75 08	 push	 DWORD PTR __Cat$513855[ebp]
  00033	8b 0e		 mov	 ecx, DWORD PTR [esi]
  00035	8b 47 04	 mov	 eax, DWORD PTR [edi+4]
  00038	8b 3f		 mov	 edi, DWORD PTR [edi]
  0003a	8d 56 0c	 lea	 edx, DWORD PTR [esi+12]
  0003d	52		 push	 edx
  0003e	51		 push	 ecx
  0003f	50		 push	 eax
  00040	57		 push	 edi
  00041	89 5d fc	 mov	 DWORD PTR __$EHRec$[ebp+12], ebx
  00044	e8 00 00 00 00	 call	 ??$_Uninit_copy@V?$_Vector_const_iterator@V?$_Vector_val@HV?$allocator@H@std@@@std@@@std@@PAHV?$allocator@H@2@@std@@YAPAHV?$_Vector_const_iterator@V?$_Vector_val@HV?$allocator@H@std@@@std@@@0@0PAHAAV?$allocator@H@0@U_Nonscalar_ptr_iterator_tag@0@@Z ; std::_Uninit_copy<std::_Vector_const_iterator<std::_Vector_val<int,std::allocator<int> > >,int *,std::allocator<int> >
  00049	83 c4 14	 add	 esp, 20			; 00000014H
  0004c	89 46 04	 mov	 DWORD PTR [esi+4], eax
$LN7@vector:

; 543  : 			_CATCH_END
; 544  : 		}

  0004f	8b c6		 mov	 eax, esi
  00051	e8 00 00 00 00	 call	 __EH_epilog3
  00056	c2 04 00	 ret	 4
__catch$??0?$vector@HV?$allocator@H@std@@@std@@QAE@ABV01@@Z$0:

; 540  : 			_CATCH_ALL
; 541  : 			_Tidy();

  00059	8b 4d ec	 mov	 ecx, DWORD PTR _this$[ebp]
  0005c	e8 00 00 00 00	 call	 ?_Tidy@?$vector@HV?$allocator@H@std@@@std@@IAEXXZ ; std::vector<int,std::allocator<int> >::_Tidy

; 542  : 			_RERAISE;

  00061	33 db		 xor	 ebx, ebx
  00063	53		 push	 ebx
  00064	53		 push	 ebx
  00065	e8 00 00 00 00	 call	 __CxxThrowException@8
$LN38@vector:
$LN37@vector:
  0006a	cc		 int	 3
_TEXT	ENDS
;	COMDAT text$x
text$x	SEGMENT
__ehhandler$??0?$vector@HV?$allocator@H@std@@@std@@QAE@ABV01@@Z:
  00000	8b 54 24 08	 mov	 edx, DWORD PTR [esp+8]
  00004	8d 42 0c	 lea	 eax, DWORD PTR [edx+12]
  00007	8b 4a e8	 mov	 ecx, DWORD PTR [edx-24]
  0000a	33 c8		 xor	 ecx, eax
  0000c	e8 00 00 00 00	 call	 @__security_check_cookie@4
  00011	b8 00 00 00 00	 mov	 eax, OFFSET __ehfuncinfo$??0?$vector@HV?$allocator@H@std@@@std@@QAE@ABV01@@Z
  00016	e9 00 00 00 00	 jmp	 ___CxxFrameHandler3
text$x	ENDS
??0?$vector@HV?$allocator@H@std@@@std@@QAE@ABV01@@Z ENDP ; std::vector<int,std::allocator<int> >::vector<int,std::allocator<int> >
PUBLIC	??0?$vector@UtagShopItemMovieInfo@ioShopItemExtraInfoManager@@V?$allocator@UtagShopItemMovieInfo@ioShopItemExtraInfoManager@@@std@@@std@@QAE@ABV01@@Z ; std::vector<ioShopItemExtraInfoManager::tagShopItemMovieInfo,std::allocator<ioShopItemExtraInfoManager::tagShopItemMovieInfo> >::vector<ioShopItemExtraInfoManager::tagShopItemMovieInfo,std::allocator<ioShopItemExtraInfoManager::tagShopItemMovieInfo> >
;	COMDAT xdata$x
; File c:\program files (x86)\microsoft visual studio 10.0\vc\include\xutility
xdata$x	SEGMENT
__catchsym$??0?$vector@UtagShopItemMovieInfo@ioShopItemExtraInfoManager@@V?$allocator@UtagShopItemMovieInfo@ioShopItemExtraInfoManager@@@std@@@std@@QAE@ABV01@@Z$2 DD 040H
	DD	00H
	DD	00H
	DD	FLAT:__catch$??0?$vector@UtagShopItemMovieInfo@ioShopItemExtraInfoManager@@V?$allocator@UtagShopItemMovieInfo@ioShopItemExtraInfoManager@@@std@@@std@@QAE@ABV01@@Z$0
__unwindtable$??0?$vector@UtagShopItemMovieInfo@ioShopItemExtraInfoManager@@V?$allocator@UtagShopItemMovieInfo@ioShopItemExtraInfoManager@@@std@@@std@@QAE@ABV01@@Z DD 0ffffffffH
	DD	00H
	DD	0ffffffffH
	DD	00H
__tryblocktable$??0?$vector@UtagShopItemMovieInfo@ioShopItemExtraInfoManager@@V?$allocator@UtagShopItemMovieInfo@ioShopItemExtraInfoManager@@@std@@@std@@QAE@ABV01@@Z DD 00H
	DD	00H
	DD	01H
	DD	01H
	DD	FLAT:__catchsym$??0?$vector@UtagShopItemMovieInfo@ioShopItemExtraInfoManager@@V?$allocator@UtagShopItemMovieInfo@ioShopItemExtraInfoManager@@@std@@@std@@QAE@ABV01@@Z$2
__ehfuncinfo$??0?$vector@UtagShopItemMovieInfo@ioShopItemExtraInfoManager@@V?$allocator@UtagShopItemMovieInfo@ioShopItemExtraInfoManager@@@std@@@std@@QAE@ABV01@@Z DD 019930522H
	DD	02H
	DD	FLAT:__unwindtable$??0?$vector@UtagShopItemMovieInfo@ioShopItemExtraInfoManager@@V?$allocator@UtagShopItemMovieInfo@ioShopItemExtraInfoManager@@@std@@@std@@QAE@ABV01@@Z
	DD	01H
	DD	FLAT:__tryblocktable$??0?$vector@UtagShopItemMovieInfo@ioShopItemExtraInfoManager@@V?$allocator@UtagShopItemMovieInfo@ioShopItemExtraInfoManager@@@std@@@std@@QAE@ABV01@@Z
	DD	2 DUP(00H)
	DD	00H
	DD	01H
; Function compile flags: /Ogsp
; File c:\program files (x86)\microsoft visual studio 10.0\vc\include\vector
xdata$x	ENDS
;	COMDAT ??0?$vector@UtagShopItemMovieInfo@ioShopItemExtraInfoManager@@V?$allocator@UtagShopItemMovieInfo@ioShopItemExtraInfoManager@@@std@@@std@@QAE@ABV01@@Z
_TEXT	SEGMENT
_this$ = -20						; size = 4
__$EHRec$ = -16						; size = 16
__Cat$513950 = 8					; size = 1
__Right$ = 8						; size = 4
??0?$vector@UtagShopItemMovieInfo@ioShopItemExtraInfoManager@@V?$allocator@UtagShopItemMovieInfo@ioShopItemExtraInfoManager@@@std@@@std@@QAE@ABV01@@Z PROC ; std::vector<ioShopItemExtraInfoManager::tagShopItemMovieInfo,std::allocator<ioShopItemExtraInfoManager::tagShopItemMovieInfo> >::vector<ioShopItemExtraInfoManager::tagShopItemMovieInfo,std::allocator<ioShopItemExtraInfoManager::tagShopItemMovieInfo> >, COMDAT
; _this$ = ecx

; 535  : 		{	// construct by copying _Right

  00000	6a 08		 push	 8
  00002	b8 00 00 00 00	 mov	 eax, __ehhandler$??0?$vector@UtagShopItemMovieInfo@ioShopItemExtraInfoManager@@V?$allocator@UtagShopItemMovieInfo@ioShopItemExtraInfoManager@@@std@@@std@@QAE@ABV01@@Z
  00007	e8 00 00 00 00	 call	 __EH_prolog3_catch
  0000c	8b f1		 mov	 esi, ecx
  0000e	89 75 ec	 mov	 DWORD PTR _this$[ebp], esi

; 536  : 		if (_Buy(_Right.size()))

  00011	8b 7d 08	 mov	 edi, DWORD PTR __Right$[ebp]
  00014	33 db		 xor	 ebx, ebx
  00016	89 1e		 mov	 DWORD PTR [esi], ebx
  00018	89 5e 04	 mov	 DWORD PTR [esi+4], ebx
  0001b	89 5e 08	 mov	 DWORD PTR [esi+8], ebx
  0001e	8b 47 04	 mov	 eax, DWORD PTR [edi+4]
  00021	2b 07		 sub	 eax, DWORD PTR [edi]
  00023	6a 34		 push	 52			; 00000034H
  00025	59		 pop	 ecx
  00026	99		 cdq
  00027	f7 f9		 idiv	 ecx
  00029	8b ce		 mov	 ecx, esi
  0002b	50		 push	 eax
  0002c	e8 00 00 00 00	 call	 ?_Buy@?$vector@UtagShopItemMovieInfo@ioShopItemExtraInfoManager@@V?$allocator@UtagShopItemMovieInfo@ioShopItemExtraInfoManager@@@std@@@std@@IAE_NI@Z ; std::vector<ioShopItemExtraInfoManager::tagShopItemMovieInfo,std::allocator<ioShopItemExtraInfoManager::tagShopItemMovieInfo> >::_Buy
  00031	84 c0		 test	 al, al
  00033	74 1f		 je	 SHORT $LN7@vector@2

; 537  : 			_TRY_BEGIN
; 538  : 			this->_Mylast = _Ucopy(_Right.begin(), _Right.end(),
; 539  : 				this->_Myfirst);

  00035	ff 75 08	 push	 DWORD PTR __Cat$513950[ebp]
  00038	8b 0e		 mov	 ecx, DWORD PTR [esi]
  0003a	8b 47 04	 mov	 eax, DWORD PTR [edi+4]
  0003d	8b 3f		 mov	 edi, DWORD PTR [edi]
  0003f	8d 56 0c	 lea	 edx, DWORD PTR [esi+12]
  00042	52		 push	 edx
  00043	51		 push	 ecx
  00044	50		 push	 eax
  00045	57		 push	 edi
  00046	89 5d fc	 mov	 DWORD PTR __$EHRec$[ebp+12], ebx
  00049	e8 00 00 00 00	 call	 ??$_Uninit_copy@V?$_Vector_const_iterator@V?$_Vector_val@UtagShopItemMovieInfo@ioShopItemExtraInfoManager@@V?$allocator@UtagShopItemMovieInfo@ioShopItemExtraInfoManager@@@std@@@std@@@std@@PAUtagShopItemMovieInfo@ioShopItemExtraInfoManager@@V?$allocator@UtagShopItemMovieInfo@ioShopItemExtraInfoManager@@@2@@std@@YAPAUtagShopItemMovieInfo@ioShopItemExtraInfoManager@@V?$_Vector_const_iterator@V?$_Vector_val@UtagShopItemMovieInfo@ioShopItemExtraInfoManager@@V?$allocator@UtagShopItemMovieInfo@ioShopItemExtraInfoManager@@@std@@@std@@@0@0PAU12@AAV?$allocator@UtagShopItemMovieInfo@ioShopItemExtraInfoManager@@@0@U_Nonscalar_ptr_iterator_tag@0@@Z ; std::_Uninit_copy<std::_Vector_const_iterator<std::_Vector_val<ioShopItemExtraInfoManager::tagShopItemMovieInfo,std::allocator<ioShopItemExtraInfoManager::tagShopItemMovieInfo> > >,ioShopItemExtraInfoManager::tagShopItemMovieInfo *,std::allocator<ioShopItemExtraInfoManager::tagShopItemMovieInfo> >
  0004e	83 c4 14	 add	 esp, 20			; 00000014H
  00051	89 46 04	 mov	 DWORD PTR [esi+4], eax
$LN7@vector@2:

; 543  : 			_CATCH_END
; 544  : 		}

  00054	8b c6		 mov	 eax, esi
  00056	e8 00 00 00 00	 call	 __EH_epilog3
  0005b	c2 04 00	 ret	 4
__catch$??0?$vector@UtagShopItemMovieInfo@ioShopItemExtraInfoManager@@V?$allocator@UtagShopItemMovieInfo@ioShopItemExtraInfoManager@@@std@@@std@@QAE@ABV01@@Z$0:

; 540  : 			_CATCH_ALL
; 541  : 			_Tidy();

  0005e	8b 4d ec	 mov	 ecx, DWORD PTR _this$[ebp]
  00061	e8 00 00 00 00	 call	 ?_Tidy@?$vector@UtagShopItemMovieInfo@ioShopItemExtraInfoManager@@V?$allocator@UtagShopItemMovieInfo@ioShopItemExtraInfoManager@@@std@@@std@@IAEXXZ ; std::vector<ioShopItemExtraInfoManager::tagShopItemMovieInfo,std::allocator<ioShopItemExtraInfoManager::tagShopItemMovieInfo> >::_Tidy

; 542  : 			_RERAISE;

  00066	33 db		 xor	 ebx, ebx
  00068	53		 push	 ebx
  00069	53		 push	 ebx
  0006a	e8 00 00 00 00	 call	 __CxxThrowException@8
$LN38@vector@2:
$LN37@vector@2:
  0006f	cc		 int	 3
_TEXT	ENDS
;	COMDAT text$x
text$x	SEGMENT
__ehhandler$??0?$vector@UtagShopItemMovieInfo@ioShopItemExtraInfoManager@@V?$allocator@UtagShopItemMovieInfo@ioShopItemExtraInfoManager@@@std@@@std@@QAE@ABV01@@Z:
  00000	8b 54 24 08	 mov	 edx, DWORD PTR [esp+8]
  00004	8d 42 0c	 lea	 eax, DWORD PTR [edx+12]
  00007	8b 4a e8	 mov	 ecx, DWORD PTR [edx-24]
  0000a	33 c8		 xor	 ecx, eax
  0000c	e8 00 00 00 00	 call	 @__security_check_cookie@4
  00011	b8 00 00 00 00	 mov	 eax, OFFSET __ehfuncinfo$??0?$vector@UtagShopItemMovieInfo@ioShopItemExtraInfoManager@@V?$allocator@UtagShopItemMovieInfo@ioShopItemExtraInfoManager@@@std@@@std@@QAE@ABV01@@Z
  00016	e9 00 00 00 00	 jmp	 ___CxxFrameHandler3
text$x	ENDS
??0?$vector@UtagShopItemMovieInfo@ioShopItemExtraInfoManager@@V?$allocator@UtagShopItemMovieInfo@ioShopItemExtraInfoManager@@@std@@@std@@QAE@ABV01@@Z ENDP ; std::vector<ioShopItemExtraInfoManager::tagShopItemMovieInfo,std::allocator<ioShopItemExtraInfoManager::tagShopItemMovieInfo> >::vector<ioShopItemExtraInfoManager::tagShopItemMovieInfo,std::allocator<ioShopItemExtraInfoManager::tagShopItemMovieInfo> >
PUBLIC	??1?$vector@UtagShopItemMovieInfo@ioShopItemExtraInfoManager@@V?$allocator@UtagShopItemMovieInfo@ioShopItemExtraInfoManager@@@std@@@std@@QAE@XZ ; std::vector<ioShopItemExtraInfoManager::tagShopItemMovieInfo,std::allocator<ioShopItemExtraInfoManager::tagShopItemMovieInfo> >::~vector<ioShopItemExtraInfoManager::tagShopItemMovieInfo,std::allocator<ioShopItemExtraInfoManager::tagShopItemMovieInfo> >
; Function compile flags: /Ogsp
;	COMDAT ??1?$vector@UtagShopItemMovieInfo@ioShopItemExtraInfoManager@@V?$allocator@UtagShopItemMovieInfo@ioShopItemExtraInfoManager@@@std@@@std@@QAE@XZ
_TEXT	SEGMENT
??1?$vector@UtagShopItemMovieInfo@ioShopItemExtraInfoManager@@V?$allocator@UtagShopItemMovieInfo@ioShopItemExtraInfoManager@@@std@@@std@@QAE@XZ PROC ; std::vector<ioShopItemExtraInfoManager::tagShopItemMovieInfo,std::allocator<ioShopItemExtraInfoManager::tagShopItemMovieInfo> >::~vector<ioShopItemExtraInfoManager::tagShopItemMovieInfo,std::allocator<ioShopItemExtraInfoManager::tagShopItemMovieInfo> >, COMDAT
; _this$ = ecx

; 705  : 		_Tidy();

  00000	e9 00 00 00 00	 jmp	 ?_Tidy@?$vector@UtagShopItemMovieInfo@ioShopItemExtraInfoManager@@V?$allocator@UtagShopItemMovieInfo@ioShopItemExtraInfoManager@@@std@@@std@@IAEXXZ ; std::vector<ioShopItemExtraInfoManager::tagShopItemMovieInfo,std::allocator<ioShopItemExtraInfoManager::tagShopItemMovieInfo> >::_Tidy
??1?$vector@UtagShopItemMovieInfo@ioShopItemExtraInfoManager@@V?$allocator@UtagShopItemMovieInfo@ioShopItemExtraInfoManager@@@std@@@std@@QAE@XZ ENDP ; std::vector<ioShopItemExtraInfoManager::tagShopItemMovieInfo,std::allocator<ioShopItemExtraInfoManager::tagShopItemMovieInfo> >::~vector<ioShopItemExtraInfoManager::tagShopItemMovieInfo,std::allocator<ioShopItemExtraInfoManager::tagShopItemMovieInfo> >
_TEXT	ENDS
PUBLIC	?reserve@?$vector@UtagShopItemMovieInfo@ioShopItemExtraInfoManager@@V?$allocator@UtagShopItemMovieInfo@ioShopItemExtraInfoManager@@@std@@@std@@QAEXI@Z ; std::vector<ioShopItemExtraInfoManager::tagShopItemMovieInfo,std::allocator<ioShopItemExtraInfoManager::tagShopItemMovieInfo> >::reserve
;	COMDAT xdata$x
; File c:\program files (x86)\microsoft visual studio 10.0\vc\include\xmemory
xdata$x	SEGMENT
__catchsym$?reserve@?$vector@UtagShopItemMovieInfo@ioShopItemExtraInfoManager@@V?$allocator@UtagShopItemMovieInfo@ioShopItemExtraInfoManager@@@std@@@std@@QAEXI@Z$2 DD 040H
	DD	00H
	DD	00H
	DD	FLAT:__catch$?reserve@?$vector@UtagShopItemMovieInfo@ioShopItemExtraInfoManager@@V?$allocator@UtagShopItemMovieInfo@ioShopItemExtraInfoManager@@@std@@@std@@QAEXI@Z$0
__unwindtable$?reserve@?$vector@UtagShopItemMovieInfo@ioShopItemExtraInfoManager@@V?$allocator@UtagShopItemMovieInfo@ioShopItemExtraInfoManager@@@std@@@std@@QAEXI@Z DD 0ffffffffH
	DD	00H
	DD	0ffffffffH
	DD	00H
__tryblocktable$?reserve@?$vector@UtagShopItemMovieInfo@ioShopItemExtraInfoManager@@V?$allocator@UtagShopItemMovieInfo@ioShopItemExtraInfoManager@@@std@@@std@@QAEXI@Z DD 00H
	DD	00H
	DD	01H
	DD	01H
	DD	FLAT:__catchsym$?reserve@?$vector@UtagShopItemMovieInfo@ioShopItemExtraInfoManager@@V?$allocator@UtagShopItemMovieInfo@ioShopItemExtraInfoManager@@@std@@@std@@QAEXI@Z$2
__ehfuncinfo$?reserve@?$vector@UtagShopItemMovieInfo@ioShopItemExtraInfoManager@@V?$allocator@UtagShopItemMovieInfo@ioShopItemExtraInfoManager@@@std@@@std@@QAEXI@Z DD 019930522H
	DD	02H
	DD	FLAT:__unwindtable$?reserve@?$vector@UtagShopItemMovieInfo@ioShopItemExtraInfoManager@@V?$allocator@UtagShopItemMovieInfo@ioShopItemExtraInfoManager@@@std@@@std@@QAEXI@Z
	DD	01H
	DD	FLAT:__tryblocktable$?reserve@?$vector@UtagShopItemMovieInfo@ioShopItemExtraInfoManager@@V?$allocator@UtagShopItemMovieInfo@ioShopItemExtraInfoManager@@@std@@@std@@QAEXI@Z
	DD	2 DUP(00H)
	DD	00H
	DD	01H
; Function compile flags: /Ogsp
; File c:\program files (x86)\microsoft visual studio 10.0\vc\include\vector
xdata$x	ENDS
;	COMDAT ?reserve@?$vector@UtagShopItemMovieInfo@ioShopItemExtraInfoManager@@V?$allocator@UtagShopItemMovieInfo@ioShopItemExtraInfoManager@@@std@@@std@@QAEXI@Z
_TEXT	SEGMENT
__Ptr$506674 = -24					; size = 4
$T514067 = -20						; size = 4
__$EHRec$ = -16						; size = 16
__Count$ = 8						; size = 4
?reserve@?$vector@UtagShopItemMovieInfo@ioShopItemExtraInfoManager@@V?$allocator@UtagShopItemMovieInfo@ioShopItemExtraInfoManager@@@std@@@std@@QAEXI@Z PROC ; std::vector<ioShopItemExtraInfoManager::tagShopItemMovieInfo,std::allocator<ioShopItemExtraInfoManager::tagShopItemMovieInfo> >::reserve, COMDAT
; _this$ = ecx

; 746  : 		{	// determine new minimum length of allocated storage

  00000	6a 0c		 push	 12			; 0000000cH
  00002	b8 00 00 00 00	 mov	 eax, __ehhandler$?reserve@?$vector@UtagShopItemMovieInfo@ioShopItemExtraInfoManager@@V?$allocator@UtagShopItemMovieInfo@ioShopItemExtraInfoManager@@@std@@@std@@QAEXI@Z
  00007	e8 00 00 00 00	 call	 __EH_prolog3_catch
  0000c	8b f1		 mov	 esi, ecx

; 747  : 		if (max_size() < _Count)

  0000e	81 7d 08 c4 4e
	ec 04		 cmp	 DWORD PTR __Count$[ebp], 82595524 ; 04ec4ec4H
  00015	76 0b		 jbe	 SHORT $LN5@reserve@2

; 748  : 			_Xlen();	// result too long

  00017	68 00 00 00 00	 push	 OFFSET ??_C@_0BD@OLBABOEK@vector?$DMT?$DO?5too?5long?$AA@
  0001c	ff 15 00 00 00
	00		 call	 DWORD PTR __imp_?_Xlength_error@std@@YAXPBD@Z
$LN59@reserve@2:
$LN5@reserve@2:

; 749  : 		else if (capacity() < _Count)

  00022	8b 46 08	 mov	 eax, DWORD PTR [esi+8]
  00025	2b 06		 sub	 eax, DWORD PTR [esi]
  00027	6a 34		 push	 52			; 00000034H
  00029	99		 cdq
  0002a	59		 pop	 ecx
  0002b	f7 f9		 idiv	 ecx
  0002d	3b 45 08	 cmp	 eax, DWORD PTR __Count$[ebp]
  00030	0f 83 80 00 00
	00		 jae	 $LN3@reserve@2

; 750  : 			{	// not enough room, reallocate
; 751  : 			pointer _Ptr = this->_Alval.allocate(_Count);

  00036	6a 00		 push	 0
  00038	ff 75 08	 push	 DWORD PTR __Count$[ebp]
  0003b	e8 00 00 00 00	 call	 ??$_Allocate@UtagShopItemMovieInfo@ioShopItemExtraInfoManager@@@std@@YAPAUtagShopItemMovieInfo@ioShopItemExtraInfoManager@@IPAU12@@Z ; std::_Allocate<ioShopItemExtraInfoManager::tagShopItemMovieInfo>

; 752  : 
; 753  : 			_TRY_BEGIN
; 754  : 			_Umove(this->_Myfirst, this->_Mylast, _Ptr);

  00040	8b 0e		 mov	 ecx, DWORD PTR [esi]
  00042	83 65 fc 00	 and	 DWORD PTR __$EHRec$[ebp+12], 0
  00046	8d 56 0c	 lea	 edx, DWORD PTR [esi+12]
  00049	52		 push	 edx
  0004a	89 45 e8	 mov	 DWORD PTR __Ptr$506674[ebp], eax
  0004d	ff 75 e8	 push	 DWORD PTR __Ptr$506674[ebp]
  00050	8b 46 04	 mov	 eax, DWORD PTR [esi+4]
  00053	50		 push	 eax
  00054	51		 push	 ecx
  00055	e8 00 00 00 00	 call	 ??$_Uninitialized_move@PAUtagShopItemMovieInfo@ioShopItemExtraInfoManager@@PAU12@V?$allocator@UtagShopItemMovieInfo@ioShopItemExtraInfoManager@@@std@@@std@@YAPAUtagShopItemMovieInfo@ioShopItemExtraInfoManager@@PAU12@00AAV?$allocator@UtagShopItemMovieInfo@ioShopItemExtraInfoManager@@@0@@Z ; std::_Uninitialized_move<ioShopItemExtraInfoManager::tagShopItemMovieInfo *,ioShopItemExtraInfoManager::tagShopItemMovieInfo *,std::allocator<ioShopItemExtraInfoManager::tagShopItemMovieInfo> >

; 758  : 			_CATCH_END
; 759  : 
; 760  : 			size_type _Size = size();

  0005a	8b 5e 04	 mov	 ebx, DWORD PTR [esi+4]
  0005d	8b 0e		 mov	 ecx, DWORD PTR [esi]
  0005f	83 c4 18	 add	 esp, 24			; 00000018H
  00062	8b c3		 mov	 eax, ebx
  00064	2b c1		 sub	 eax, ecx
  00066	6a 34		 push	 52			; 00000034H
  00068	99		 cdq
  00069	5f		 pop	 edi
  0006a	f7 ff		 idiv	 edi
  0006c	83 4d fc ff	 or	 DWORD PTR __$EHRec$[ebp+12], -1
  00070	8b f8		 mov	 edi, eax
  00072	85 c9		 test	 ecx, ecx
  00074	74 20		 je	 SHORT $LN51@reserve@2

; 761  : 			if (this->_Myfirst != 0)
; 762  : 				{	// destroy and deallocate old array
; 763  : 				_Destroy(this->_Myfirst, this->_Mylast);

  00076	89 4d ec	 mov	 DWORD PTR $T514067[ebp], ecx
  00079	3b cb		 cmp	 ecx, ebx
  0007b	74 11		 je	 SHORT $LN37@reserve@2
$LN39@reserve@2:
  0007d	8b 4d ec	 mov	 ecx, DWORD PTR $T514067[ebp]
  00080	e8 00 00 00 00	 call	 ??1tagShopItemMovieInfo@ioShopItemExtraInfoManager@@QAE@XZ
  00085	83 45 ec 34	 add	 DWORD PTR $T514067[ebp], 52 ; 00000034H
  00089	39 5d ec	 cmp	 DWORD PTR $T514067[ebp], ebx
  0008c	75 ef		 jne	 SHORT $LN39@reserve@2
$LN37@reserve@2:

; 764  : 				this->_Alval.deallocate(this->_Myfirst,
; 765  : 					this->_Myend - this->_Myfirst);

  0008e	ff 36		 push	 DWORD PTR [esi]
  00090	e8 00 00 00 00	 call	 ??3@YAXPAX@Z		; operator delete
  00095	59		 pop	 ecx
$LN51@reserve@2:

; 766  : 				}
; 767  : 
; 768  : 			this->_Orphan_all();

  00096	8b ce		 mov	 ecx, esi
  00098	ff 15 00 00 00
	00		 call	 DWORD PTR __imp_?_Orphan_all@_Container_base0@std@@QAEXXZ

; 769  : 			this->_Myend = _Ptr + _Count;
; 770  : 			this->_Mylast = _Ptr + _Size;

  0009e	6b ff 34	 imul	 edi, 52			; 00000034H
  000a1	8b 45 08	 mov	 eax, DWORD PTR __Count$[ebp]
  000a4	8b 4d e8	 mov	 ecx, DWORD PTR __Ptr$506674[ebp]
  000a7	6b c0 34	 imul	 eax, 52			; 00000034H
  000aa	03 c1		 add	 eax, ecx
  000ac	03 f9		 add	 edi, ecx
  000ae	89 46 08	 mov	 DWORD PTR [esi+8], eax
  000b1	89 7e 04	 mov	 DWORD PTR [esi+4], edi

; 771  : 			this->_Myfirst = _Ptr;

  000b4	89 0e		 mov	 DWORD PTR [esi], ecx
$LN3@reserve@2:

; 772  : 			}
; 773  : 		}

  000b6	e8 00 00 00 00	 call	 __EH_epilog3
  000bb	c2 04 00	 ret	 4
__catch$?reserve@?$vector@UtagShopItemMovieInfo@ioShopItemExtraInfoManager@@V?$allocator@UtagShopItemMovieInfo@ioShopItemExtraInfoManager@@@std@@@std@@QAEXI@Z$0:

; 755  : 			_CATCH_ALL
; 756  : 			this->_Alval.deallocate(_Ptr, _Count);

  000be	ff 75 e8	 push	 DWORD PTR __Ptr$506674[ebp]
  000c1	e8 00 00 00 00	 call	 ??3@YAXPAX@Z		; operator delete
  000c6	59		 pop	 ecx

; 757  : 			_RERAISE;

  000c7	6a 00		 push	 0
  000c9	6a 00		 push	 0
  000cb	e8 00 00 00 00	 call	 __CxxThrowException@8
$LN60@reserve@2:
$LN58@reserve@2:
  000d0	cc		 int	 3
_TEXT	ENDS
;	COMDAT text$x
text$x	SEGMENT
__ehhandler$?reserve@?$vector@UtagShopItemMovieInfo@ioShopItemExtraInfoManager@@V?$allocator@UtagShopItemMovieInfo@ioShopItemExtraInfoManager@@@std@@@std@@QAEXI@Z:
  00000	8b 54 24 08	 mov	 edx, DWORD PTR [esp+8]
  00004	8d 42 0c	 lea	 eax, DWORD PTR [edx+12]
  00007	8b 4a e4	 mov	 ecx, DWORD PTR [edx-28]
  0000a	33 c8		 xor	 ecx, eax
  0000c	e8 00 00 00 00	 call	 @__security_check_cookie@4
  00011	b8 00 00 00 00	 mov	 eax, OFFSET __ehfuncinfo$?reserve@?$vector@UtagShopItemMovieInfo@ioShopItemExtraInfoManager@@V?$allocator@UtagShopItemMovieInfo@ioShopItemExtraInfoManager@@@std@@@std@@QAEXI@Z
  00016	e9 00 00 00 00	 jmp	 ___CxxFrameHandler3
text$x	ENDS
?reserve@?$vector@UtagShopItemMovieInfo@ioShopItemExtraInfoManager@@V?$allocator@UtagShopItemMovieInfo@ioShopItemExtraInfoManager@@@std@@@std@@QAEXI@Z ENDP ; std::vector<ioShopItemExtraInfoManager::tagShopItemMovieInfo,std::allocator<ioShopItemExtraInfoManager::tagShopItemMovieInfo> >::reserve
PUBLIC	?erase@?$vector@UtagShopItemMovieInfo@ioShopItemExtraInfoManager@@V?$allocator@UtagShopItemMovieInfo@ioShopItemExtraInfoManager@@@std@@@std@@QAE?AV?$_Vector_iterator@V?$_Vector_val@UtagShopItemMovieInfo@ioShopItemExtraInfoManager@@V?$allocator@UtagShopItemMovieInfo@ioShopItemExtraInfoManager@@@std@@@std@@@2@V?$_Vector_const_iterator@V?$_Vector_val@UtagShopItemMovieInfo@ioShopItemExtraInfoManager@@V?$allocator@UtagShopItemMovieInfo@ioShopItemExtraInfoManager@@@std@@@std@@@2@0@Z ; std::vector<ioShopItemExtraInfoManager::tagShopItemMovieInfo,std::allocator<ioShopItemExtraInfoManager::tagShopItemMovieInfo> >::erase
; Function compile flags: /Ogsp
;	COMDAT ?erase@?$vector@UtagShopItemMovieInfo@ioShopItemExtraInfoManager@@V?$allocator@UtagShopItemMovieInfo@ioShopItemExtraInfoManager@@@std@@@std@@QAE?AV?$_Vector_iterator@V?$_Vector_val@UtagShopItemMovieInfo@ioShopItemExtraInfoManager@@V?$allocator@UtagShopItemMovieInfo@ioShopItemExtraInfoManager@@@std@@@std@@@2@V?$_Vector_const_iterator@V?$_Vector_val@UtagShopItemMovieInfo@ioShopItemExtraInfoManager@@V?$allocator@UtagShopItemMovieInfo@ioShopItemExtraInfoManager@@@std@@@std@@@2@0@Z
_TEXT	SEGMENT
$T514262 = -4						; size = 4
___$ReturnUdt$ = 8					; size = 4
__First_arg$ = 12					; size = 4
__Cat$514207 = 16					; size = 1
__Last_arg$ = 16					; size = 4
?erase@?$vector@UtagShopItemMovieInfo@ioShopItemExtraInfoManager@@V?$allocator@UtagShopItemMovieInfo@ioShopItemExtraInfoManager@@@std@@@std@@QAE?AV?$_Vector_iterator@V?$_Vector_val@UtagShopItemMovieInfo@ioShopItemExtraInfoManager@@V?$allocator@UtagShopItemMovieInfo@ioShopItemExtraInfoManager@@@std@@@std@@@2@V?$_Vector_const_iterator@V?$_Vector_val@UtagShopItemMovieInfo@ioShopItemExtraInfoManager@@V?$allocator@UtagShopItemMovieInfo@ioShopItemExtraInfoManager@@@std@@@std@@@2@0@Z PROC ; std::vector<ioShopItemExtraInfoManager::tagShopItemMovieInfo,std::allocator<ioShopItemExtraInfoManager::tagShopItemMovieInfo> >::erase, COMDAT
; _this$ = ecx

; 1190 : 		{	// erase [_First, _Last)

  00000	55		 push	 ebp
  00001	8b ec		 mov	 ebp, esp
  00003	51		 push	 ecx

; 1191 : 		iterator _First = _Make_iter(_First_arg);

  00004	8b 45 08	 mov	 eax, DWORD PTR ___$ReturnUdt$[ebp]
  00007	56		 push	 esi
  00008	8b f1		 mov	 esi, ecx
  0000a	8b 4d 0c	 mov	 ecx, DWORD PTR __First_arg$[ebp]
  0000d	89 08		 mov	 DWORD PTR [eax], ecx

; 1192 : 		iterator _Last = _Make_iter(_Last_arg);
; 1193 : 
; 1194 : 		if (_First != _Last)

  0000f	3b 4d 10	 cmp	 ecx, DWORD PTR __Last_arg$[ebp]
  00012	74 37		 je	 SHORT $LN1@erase@2

; 1195 : 			{	// worth doing, copy down over hole
; 1196 :  #if _ITERATOR_DEBUG_LEVEL == 2
; 1197 : 			if (_Last < _First || _VICONT(_First) != this
; 1198 : 				|| _VIPTR(_First) < this->_Myfirst
; 1199 : 				|| this->_Mylast < _VIPTR(_Last))
; 1200 : 				_DEBUG_ERROR("vector erase iterator outside range");
; 1201 : 			pointer _Ptr = _Move(_VIPTR(_Last), this->_Mylast,
; 1202 : 				_VIPTR(_First));
; 1203 : 			_Orphan_range(_VIPTR(_First), this->_Mylast);
; 1204 : 
; 1205 :  #else /* _ITERATOR_DEBUG_LEVEL == 2 */
; 1206 : 			pointer _Ptr = _Move(_VIPTR(_Last), this->_Mylast,
; 1207 : 				_VIPTR(_First));

  00014	8b 46 04	 mov	 eax, DWORD PTR [esi+4]
  00017	53		 push	 ebx
  00018	57		 push	 edi
  00019	ff 75 10	 push	 DWORD PTR __Cat$514207[ebp]
  0001c	51		 push	 ecx
  0001d	50		 push	 eax
  0001e	ff 75 10	 push	 DWORD PTR __Last_arg$[ebp]
  00021	e8 00 00 00 00	 call	 ??$_Move@PAUtagShopItemMovieInfo@ioShopItemExtraInfoManager@@PAU12@@std@@YAPAUtagShopItemMovieInfo@ioShopItemExtraInfoManager@@PAU12@00U_Nonscalar_ptr_iterator_tag@0@@Z ; std::_Move<ioShopItemExtraInfoManager::tagShopItemMovieInfo *,ioShopItemExtraInfoManager::tagShopItemMovieInfo *>

; 1208 :  #endif /* _ITERATOR_DEBUG_LEVEL == 2 */
; 1209 : 
; 1210 : 			_Destroy(_Ptr, this->_Mylast);

  00026	8b 7e 04	 mov	 edi, DWORD PTR [esi+4]
  00029	8b d8		 mov	 ebx, eax
  0002b	83 c4 10	 add	 esp, 16			; 00000010H
  0002e	89 5d fc	 mov	 DWORD PTR $T514262[ebp], ebx
  00031	3b df		 cmp	 ebx, edi
  00033	74 11		 je	 SHORT $LN36@erase@2
$LL52@erase@2:
  00035	8b 4d fc	 mov	 ecx, DWORD PTR $T514262[ebp]
  00038	e8 00 00 00 00	 call	 ??1tagShopItemMovieInfo@ioShopItemExtraInfoManager@@QAE@XZ
  0003d	83 45 fc 34	 add	 DWORD PTR $T514262[ebp], 52 ; 00000034H
  00041	39 7d fc	 cmp	 DWORD PTR $T514262[ebp], edi
  00044	75 ef		 jne	 SHORT $LL52@erase@2
$LN36@erase@2:

; 1211 : 			this->_Mylast = _Ptr;

  00046	5f		 pop	 edi
  00047	89 5e 04	 mov	 DWORD PTR [esi+4], ebx
  0004a	5b		 pop	 ebx
$LN1@erase@2:

; 1212 : 			}
; 1213 : 		return (_First);

  0004b	8b 45 08	 mov	 eax, DWORD PTR ___$ReturnUdt$[ebp]
  0004e	5e		 pop	 esi

; 1214 : 		}

  0004f	c9		 leave
  00050	c2 0c 00	 ret	 12			; 0000000cH
?erase@?$vector@UtagShopItemMovieInfo@ioShopItemExtraInfoManager@@V?$allocator@UtagShopItemMovieInfo@ioShopItemExtraInfoManager@@@std@@@std@@QAE?AV?$_Vector_iterator@V?$_Vector_val@UtagShopItemMovieInfo@ioShopItemExtraInfoManager@@V?$allocator@UtagShopItemMovieInfo@ioShopItemExtraInfoManager@@@std@@@std@@@2@V?$_Vector_const_iterator@V?$_Vector_val@UtagShopItemMovieInfo@ioShopItemExtraInfoManager@@V?$allocator@UtagShopItemMovieInfo@ioShopItemExtraInfoManager@@@std@@@std@@@2@0@Z ENDP ; std::vector<ioShopItemExtraInfoManager::tagShopItemMovieInfo,std::allocator<ioShopItemExtraInfoManager::tagShopItemMovieInfo> >::erase
_TEXT	ENDS
PUBLIC	?_Reserve@?$vector@UtagShopItemMovieInfo@ioShopItemExtraInfoManager@@V?$allocator@UtagShopItemMovieInfo@ioShopItemExtraInfoManager@@@std@@@std@@IAEXI@Z ; std::vector<ioShopItemExtraInfoManager::tagShopItemMovieInfo,std::allocator<ioShopItemExtraInfoManager::tagShopItemMovieInfo> >::_Reserve
; Function compile flags: /Ogsp
;	COMDAT ?_Reserve@?$vector@UtagShopItemMovieInfo@ioShopItemExtraInfoManager@@V?$allocator@UtagShopItemMovieInfo@ioShopItemExtraInfoManager@@@std@@@std@@IAEXI@Z
_TEXT	SEGMENT
__Count$ = 8						; size = 4
?_Reserve@?$vector@UtagShopItemMovieInfo@ioShopItemExtraInfoManager@@V?$allocator@UtagShopItemMovieInfo@ioShopItemExtraInfoManager@@@std@@@std@@IAEXI@Z PROC ; std::vector<ioShopItemExtraInfoManager::tagShopItemMovieInfo,std::allocator<ioShopItemExtraInfoManager::tagShopItemMovieInfo> >::_Reserve, COMDAT
; _this$ = ecx

; 1290 : 		{	// ensure room for _Count new elements, grow exponentially

  00000	55		 push	 ebp
  00001	8b ec		 mov	 ebp, esp
  00003	56		 push	 esi
  00004	8b f1		 mov	 esi, ecx

; 1291 : 		size_type _Size = size();

  00006	8b 0e		 mov	 ecx, DWORD PTR [esi]
  00008	8b 46 04	 mov	 eax, DWORD PTR [esi+4]
  0000b	2b c1		 sub	 eax, ecx
  0000d	57		 push	 edi
  0000e	99		 cdq
  0000f	6a 34		 push	 52			; 00000034H
  00011	5f		 pop	 edi
  00012	f7 ff		 idiv	 edi
  00014	8b f8		 mov	 edi, eax

; 1292 : 		if (max_size() - _Count < _Size)

  00016	b8 c4 4e ec 04	 mov	 eax, 82595524		; 04ec4ec4H
  0001b	2b 45 08	 sub	 eax, DWORD PTR __Count$[ebp]
  0001e	3b c7		 cmp	 eax, edi
  00020	73 0b		 jae	 SHORT $LN4@Reserve@2

; 1293 : 			_Xlen();

  00022	68 00 00 00 00	 push	 OFFSET ??_C@_0BD@OLBABOEK@vector?$DMT?$DO?5too?5long?$AA@
  00027	ff 15 00 00 00
	00		 call	 DWORD PTR __imp_?_Xlength_error@std@@YAXPBD@Z
$LN21@Reserve@2:
$LN4@Reserve@2:

; 1294 : 		else if ((_Size += _Count) <= capacity())

  0002d	8b 46 08	 mov	 eax, DWORD PTR [esi+8]
  00030	2b c1		 sub	 eax, ecx
  00032	6a 34		 push	 52			; 00000034H
  00034	99		 cdq
  00035	59		 pop	 ecx
  00036	f7 f9		 idiv	 ecx
  00038	03 7d 08	 add	 edi, DWORD PTR __Count$[ebp]
  0003b	3b f8		 cmp	 edi, eax
  0003d	76 10		 jbe	 SHORT $LN1@Reserve@2

; 1295 : 			;
; 1296 : 		else
; 1297 : 			reserve(_Grow_to(_Size));

  0003f	57		 push	 edi
  00040	8b ce		 mov	 ecx, esi
  00042	e8 00 00 00 00	 call	 ?_Grow_to@?$vector@UtagShopItemMovieInfo@ioShopItemExtraInfoManager@@V?$allocator@UtagShopItemMovieInfo@ioShopItemExtraInfoManager@@@std@@@std@@IBEII@Z ; std::vector<ioShopItemExtraInfoManager::tagShopItemMovieInfo,std::allocator<ioShopItemExtraInfoManager::tagShopItemMovieInfo> >::_Grow_to
  00047	50		 push	 eax
  00048	8b ce		 mov	 ecx, esi
  0004a	e8 00 00 00 00	 call	 ?reserve@?$vector@UtagShopItemMovieInfo@ioShopItemExtraInfoManager@@V?$allocator@UtagShopItemMovieInfo@ioShopItemExtraInfoManager@@@std@@@std@@QAEXI@Z ; std::vector<ioShopItemExtraInfoManager::tagShopItemMovieInfo,std::allocator<ioShopItemExtraInfoManager::tagShopItemMovieInfo> >::reserve
$LN1@Reserve@2:
  0004f	5f		 pop	 edi
  00050	5e		 pop	 esi

; 1298 : 		}

  00051	5d		 pop	 ebp
  00052	c2 04 00	 ret	 4
$LN20@Reserve@2:
?_Reserve@?$vector@UtagShopItemMovieInfo@ioShopItemExtraInfoManager@@V?$allocator@UtagShopItemMovieInfo@ioShopItemExtraInfoManager@@@std@@@std@@IAEXI@Z ENDP ; std::vector<ioShopItemExtraInfoManager::tagShopItemMovieInfo,std::allocator<ioShopItemExtraInfoManager::tagShopItemMovieInfo> >::_Reserve
_TEXT	ENDS
PUBLIC	??0tagShopItemExtraInfo@ioShopItemExtraInfoManager@@QAE@ABU01@@Z ; ioShopItemExtraInfoManager::tagShopItemExtraInfo::tagShopItemExtraInfo
;	COMDAT xdata$x
xdata$x	SEGMENT
__unwindtable$??0tagShopItemExtraInfo@ioShopItemExtraInfoManager@@QAE@ABU01@@Z DD 0ffffffffH
	DD	FLAT:__unwindfunclet$??0tagShopItemExtraInfo@ioShopItemExtraInfoManager@@QAE@ABU01@@Z$0
	DD	00H
	DD	FLAT:__unwindfunclet$??0tagShopItemExtraInfo@ioShopItemExtraInfoManager@@QAE@ABU01@@Z$1
__ehfuncinfo$??0tagShopItemExtraInfo@ioShopItemExtraInfoManager@@QAE@ABU01@@Z DD 019930522H
	DD	02H
	DD	FLAT:__unwindtable$??0tagShopItemExtraInfo@ioShopItemExtraInfoManager@@QAE@ABU01@@Z
	DD	2 DUP(00H)
	DD	2 DUP(00H)
	DD	00H
	DD	01H
; Function compile flags: /Ogsp
xdata$x	ENDS
;	COMDAT ??0tagShopItemExtraInfo@ioShopItemExtraInfoManager@@QAE@ABU01@@Z
_TEXT	SEGMENT
_this$ = -16						; size = 4
__$EHRec$ = -12						; size = 12
___that$ = 8						; size = 4
??0tagShopItemExtraInfo@ioShopItemExtraInfoManager@@QAE@ABU01@@Z PROC ; ioShopItemExtraInfoManager::tagShopItemExtraInfo::tagShopItemExtraInfo, COMDAT
; _this$ = ecx
  00000	6a 04		 push	 4
  00002	b8 00 00 00 00	 mov	 eax, __ehhandler$??0tagShopItemExtraInfo@ioShopItemExtraInfoManager@@QAE@ABU01@@Z
  00007	e8 00 00 00 00	 call	 __EH_prolog3
  0000c	8b f1		 mov	 esi, ecx
  0000e	89 75 f0	 mov	 DWORD PTR _this$[ebp], esi
  00011	8b 7d 08	 mov	 edi, DWORD PTR ___that$[ebp]
  00014	8b 07		 mov	 eax, DWORD PTR [edi]
  00016	89 06		 mov	 DWORD PTR [esi], eax
  00018	8b 47 04	 mov	 eax, DWORD PTR [edi+4]
  0001b	89 46 04	 mov	 DWORD PTR [esi+4], eax
  0001e	8a 47 08	 mov	 al, BYTE PTR [edi+8]
  00021	88 46 08	 mov	 BYTE PTR [esi+8], al
  00024	8a 47 09	 mov	 al, BYTE PTR [edi+9]
  00027	88 46 09	 mov	 BYTE PTR [esi+9], al
  0002a	8a 47 0a	 mov	 al, BYTE PTR [edi+10]
  0002d	88 46 0a	 mov	 BYTE PTR [esi+10], al
  00030	8a 47 0b	 mov	 al, BYTE PTR [edi+11]
  00033	88 46 0b	 mov	 BYTE PTR [esi+11], al
  00036	8d 47 0c	 lea	 eax, DWORD PTR [edi+12]
  00039	50		 push	 eax
  0003a	8d 4e 0c	 lea	 ecx, DWORD PTR [esi+12]
  0003d	e8 00 00 00 00	 call	 ??0?$vector@UtagShopItemMovieInfo@ioShopItemExtraInfoManager@@V?$allocator@UtagShopItemMovieInfo@ioShopItemExtraInfoManager@@@std@@@std@@QAE@ABV01@@Z ; std::vector<ioShopItemExtraInfoManager::tagShopItemMovieInfo,std::allocator<ioShopItemExtraInfoManager::tagShopItemMovieInfo> >::vector<ioShopItemExtraInfoManager::tagShopItemMovieInfo,std::allocator<ioShopItemExtraInfoManager::tagShopItemMovieInfo> >
  00042	83 65 fc 00	 and	 DWORD PTR __$EHRec$[ebp+8], 0
  00046	8d 47 1c	 lea	 eax, DWORD PTR [edi+28]
  00049	50		 push	 eax
  0004a	8d 4e 1c	 lea	 ecx, DWORD PTR [esi+28]
  0004d	e8 00 00 00 00	 call	 ??0?$vector@HV?$allocator@H@std@@@std@@QAE@ABV01@@Z ; std::vector<int,std::allocator<int> >::vector<int,std::allocator<int> >
  00052	83 c7 2c	 add	 edi, 44			; 0000002cH
  00055	57		 push	 edi
  00056	8d 4e 2c	 lea	 ecx, DWORD PTR [esi+44]
  00059	c6 45 fc 01	 mov	 BYTE PTR __$EHRec$[ebp+8], 1
  0005d	e8 00 00 00 00	 call	 ??0?$vector@HV?$allocator@H@std@@@std@@QAE@ABV01@@Z ; std::vector<int,std::allocator<int> >::vector<int,std::allocator<int> >
  00062	8b c6		 mov	 eax, esi
  00064	e8 00 00 00 00	 call	 __EH_epilog3
  00069	c2 04 00	 ret	 4
_TEXT	ENDS
;	COMDAT text$x
text$x	SEGMENT
__unwindfunclet$??0tagShopItemExtraInfo@ioShopItemExtraInfoManager@@QAE@ABU01@@Z$0:
  00000	8b 4d f0	 mov	 ecx, DWORD PTR _this$[ebp]
  00003	83 c1 0c	 add	 ecx, 12			; 0000000cH
  00006	e9 00 00 00 00	 jmp	 ??1?$vector@UtagShopItemMovieInfo@ioShopItemExtraInfoManager@@V?$allocator@UtagShopItemMovieInfo@ioShopItemExtraInfoManager@@@std@@@std@@QAE@XZ ; std::vector<ioShopItemExtraInfoManager::tagShopItemMovieInfo,std::allocator<ioShopItemExtraInfoManager::tagShopItemMovieInfo> >::~vector<ioShopItemExtraInfoManager::tagShopItemMovieInfo,std::allocator<ioShopItemExtraInfoManager::tagShopItemMovieInfo> >
__unwindfunclet$??0tagShopItemExtraInfo@ioShopItemExtraInfoManager@@QAE@ABU01@@Z$1:
  0000b	8b 4d f0	 mov	 ecx, DWORD PTR _this$[ebp]
  0000e	83 c1 1c	 add	 ecx, 28			; 0000001cH
  00011	e9 00 00 00 00	 jmp	 ??1?$vector@HV?$allocator@H@std@@@std@@QAE@XZ ; std::vector<int,std::allocator<int> >::~vector<int,std::allocator<int> >
__ehhandler$??0tagShopItemExtraInfo@ioShopItemExtraInfoManager@@QAE@ABU01@@Z:
  00016	8b 54 24 08	 mov	 edx, DWORD PTR [esp+8]
  0001a	8d 42 0c	 lea	 eax, DWORD PTR [edx+12]
  0001d	8b 4a ec	 mov	 ecx, DWORD PTR [edx-20]
  00020	33 c8		 xor	 ecx, eax
  00022	e8 00 00 00 00	 call	 @__security_check_cookie@4
  00027	b8 00 00 00 00	 mov	 eax, OFFSET __ehfuncinfo$??0tagShopItemExtraInfo@ioShopItemExtraInfoManager@@QAE@ABU01@@Z
  0002c	e9 00 00 00 00	 jmp	 ___CxxFrameHandler3
text$x	ENDS
??0tagShopItemExtraInfo@ioShopItemExtraInfoManager@@QAE@ABU01@@Z ENDP ; ioShopItemExtraInfoManager::tagShopItemExtraInfo::tagShopItemExtraInfo
PUBLIC	?construct@?$allocator@UtagShopItemExtraInfo@ioShopItemExtraInfoManager@@@std@@QAEXPAUtagShopItemExtraInfo@ioShopItemExtraInfoManager@@$$QAU34@@Z ; std::allocator<ioShopItemExtraInfoManager::tagShopItemExtraInfo>::construct
;	COMDAT xdata$x
; File c:\program files (x86)\microsoft visual studio 10.0\vc\include\utility
xdata$x	SEGMENT
__unwindtable$?construct@?$allocator@UtagShopItemExtraInfo@ioShopItemExtraInfoManager@@@std@@QAEXPAUtagShopItemExtraInfo@ioShopItemExtraInfoManager@@$$QAU34@@Z DD 0ffffffffH
	DD	FLAT:__unwindfunclet$?construct@?$allocator@UtagShopItemExtraInfo@ioShopItemExtraInfoManager@@@std@@QAEXPAUtagShopItemExtraInfo@ioShopItemExtraInfoManager@@$$QAU34@@Z$0
__ehfuncinfo$?construct@?$allocator@UtagShopItemExtraInfo@ioShopItemExtraInfoManager@@@std@@QAEXPAUtagShopItemExtraInfo@ioShopItemExtraInfoManager@@$$QAU34@@Z DD 019930522H
	DD	01H
	DD	FLAT:__unwindtable$?construct@?$allocator@UtagShopItemExtraInfo@ioShopItemExtraInfoManager@@@std@@QAEXPAUtagShopItemExtraInfo@ioShopItemExtraInfoManager@@$$QAU34@@Z
	DD	2 DUP(00H)
	DD	2 DUP(00H)
	DD	00H
	DD	01H
; Function compile flags: /Ogsp
; File c:\program files (x86)\microsoft visual studio 10.0\vc\include\xmemory
xdata$x	ENDS
;	COMDAT ?construct@?$allocator@UtagShopItemExtraInfo@ioShopItemExtraInfoManager@@@std@@QAEXPAUtagShopItemExtraInfo@ioShopItemExtraInfoManager@@$$QAU34@@Z
_TEXT	SEGMENT
$T514353 = -16						; size = 4
__$EHRec$ = -12						; size = 12
__Ptr$ = 8						; size = 4
__Val$ = 12						; size = 4
?construct@?$allocator@UtagShopItemExtraInfo@ioShopItemExtraInfoManager@@@std@@QAEXPAUtagShopItemExtraInfo@ioShopItemExtraInfoManager@@$$QAU34@@Z PROC ; std::allocator<ioShopItemExtraInfoManager::tagShopItemExtraInfo>::construct, COMDAT
; _this$ = ecx

; 201  : 		{	// construct object at _Ptr with value _Val

  00000	6a 04		 push	 4
  00002	b8 00 00 00 00	 mov	 eax, __ehhandler$?construct@?$allocator@UtagShopItemExtraInfo@ioShopItemExtraInfoManager@@@std@@QAEXPAUtagShopItemExtraInfo@ioShopItemExtraInfoManager@@$$QAU34@@Z
  00007	e8 00 00 00 00	 call	 __EH_prolog3

; 202  : 		::new ((void _FARQ *)_Ptr) _Ty(_STD forward<_Ty>(_Val));

  0000c	8b 4d 08	 mov	 ecx, DWORD PTR __Ptr$[ebp]
  0000f	89 4d f0	 mov	 DWORD PTR $T514353[ebp], ecx
  00012	83 65 fc 00	 and	 DWORD PTR __$EHRec$[ebp+8], 0
  00016	85 c9		 test	 ecx, ecx
  00018	74 08		 je	 SHORT $LN3@construct@5
  0001a	ff 75 0c	 push	 DWORD PTR __Val$[ebp]
  0001d	e8 00 00 00 00	 call	 ??0tagShopItemExtraInfo@ioShopItemExtraInfoManager@@QAE@ABU01@@Z
$LN3@construct@5:

; 203  : 		}

  00022	e8 00 00 00 00	 call	 __EH_epilog3
  00027	c2 08 00	 ret	 8
_TEXT	ENDS
;	COMDAT text$x
text$x	SEGMENT
__unwindfunclet$?construct@?$allocator@UtagShopItemExtraInfo@ioShopItemExtraInfoManager@@@std@@QAEXPAUtagShopItemExtraInfo@ioShopItemExtraInfoManager@@$$QAU34@@Z$0:
  00000	ff 75 08	 push	 DWORD PTR __Ptr$[ebp]
  00003	ff 75 f0	 push	 DWORD PTR $T514353[ebp]
  00006	e8 00 00 00 00	 call	 ??3@YAXPAX0@Z		; operator delete
  0000b	59		 pop	 ecx
  0000c	59		 pop	 ecx
  0000d	c3		 ret	 0
__ehhandler$?construct@?$allocator@UtagShopItemExtraInfo@ioShopItemExtraInfoManager@@@std@@QAEXPAUtagShopItemExtraInfo@ioShopItemExtraInfoManager@@$$QAU34@@Z:
  0000e	8b 54 24 08	 mov	 edx, DWORD PTR [esp+8]
  00012	8d 42 0c	 lea	 eax, DWORD PTR [edx+12]
  00015	8b 4a ec	 mov	 ecx, DWORD PTR [edx-20]
  00018	33 c8		 xor	 ecx, eax
  0001a	e8 00 00 00 00	 call	 @__security_check_cookie@4
  0001f	b8 00 00 00 00	 mov	 eax, OFFSET __ehfuncinfo$?construct@?$allocator@UtagShopItemExtraInfo@ioShopItemExtraInfoManager@@@std@@QAEXPAUtagShopItemExtraInfo@ioShopItemExtraInfoManager@@$$QAU34@@Z
  00024	e9 00 00 00 00	 jmp	 ___CxxFrameHandler3
text$x	ENDS
?construct@?$allocator@UtagShopItemExtraInfo@ioShopItemExtraInfoManager@@@std@@QAEXPAUtagShopItemExtraInfo@ioShopItemExtraInfoManager@@$$QAU34@@Z ENDP ; std::allocator<ioShopItemExtraInfoManager::tagShopItemExtraInfo>::construct
PUBLIC	??0tagShopItemExtraInfo@ioShopItemExtraInfoManager@@QAE@XZ ; ioShopItemExtraInfoManager::tagShopItemExtraInfo::tagShopItemExtraInfo
; Function compile flags: /Ogsp
;	COMDAT ??0tagShopItemExtraInfo@ioShopItemExtraInfoManager@@QAE@XZ
_TEXT	SEGMENT
??0tagShopItemExtraInfo@ioShopItemExtraInfoManager@@QAE@XZ PROC ; ioShopItemExtraInfoManager::tagShopItemExtraInfo::tagShopItemExtraInfo, COMDAT
; _this$ = ecx
  00000	8b c1		 mov	 eax, ecx
  00002	33 c9		 xor	 ecx, ecx
  00004	89 48 0c	 mov	 DWORD PTR [eax+12], ecx
  00007	89 48 10	 mov	 DWORD PTR [eax+16], ecx
  0000a	89 48 14	 mov	 DWORD PTR [eax+20], ecx
  0000d	89 48 1c	 mov	 DWORD PTR [eax+28], ecx
  00010	89 48 20	 mov	 DWORD PTR [eax+32], ecx
  00013	89 48 24	 mov	 DWORD PTR [eax+36], ecx
  00016	89 48 2c	 mov	 DWORD PTR [eax+44], ecx
  00019	89 48 30	 mov	 DWORD PTR [eax+48], ecx
  0001c	89 48 34	 mov	 DWORD PTR [eax+52], ecx
  0001f	c3		 ret	 0
??0tagShopItemExtraInfo@ioShopItemExtraInfoManager@@QAE@XZ ENDP ; ioShopItemExtraInfoManager::tagShopItemExtraInfo::tagShopItemExtraInfo
_TEXT	ENDS
PUBLIC	??1tagShopItemExtraInfo@ioShopItemExtraInfoManager@@QAE@XZ ; ioShopItemExtraInfoManager::tagShopItemExtraInfo::~tagShopItemExtraInfo
;	COMDAT xdata$x
xdata$x	SEGMENT
__unwindtable$??1tagShopItemExtraInfo@ioShopItemExtraInfoManager@@QAE@XZ DD 0ffffffffH
	DD	FLAT:__unwindfunclet$??1tagShopItemExtraInfo@ioShopItemExtraInfoManager@@QAE@XZ$0
	DD	00H
	DD	FLAT:__unwindfunclet$??1tagShopItemExtraInfo@ioShopItemExtraInfoManager@@QAE@XZ$1
__ehfuncinfo$??1tagShopItemExtraInfo@ioShopItemExtraInfoManager@@QAE@XZ DD 019930522H
	DD	02H
	DD	FLAT:__unwindtable$??1tagShopItemExtraInfo@ioShopItemExtraInfoManager@@QAE@XZ
	DD	2 DUP(00H)
	DD	2 DUP(00H)
	DD	00H
	DD	01H
; Function compile flags: /Ogsp
xdata$x	ENDS
;	COMDAT ??1tagShopItemExtraInfo@ioShopItemExtraInfoManager@@QAE@XZ
_TEXT	SEGMENT
_this$ = -16						; size = 4
__$EHRec$ = -12						; size = 12
??1tagShopItemExtraInfo@ioShopItemExtraInfoManager@@QAE@XZ PROC ; ioShopItemExtraInfoManager::tagShopItemExtraInfo::~tagShopItemExtraInfo, COMDAT
; _this$ = ecx
  00000	6a 04		 push	 4
  00002	b8 00 00 00 00	 mov	 eax, __ehhandler$??1tagShopItemExtraInfo@ioShopItemExtraInfoManager@@QAE@XZ
  00007	e8 00 00 00 00	 call	 __EH_prolog3
  0000c	8b f1		 mov	 esi, ecx
  0000e	89 75 f0	 mov	 DWORD PTR _this$[ebp], esi
  00011	8d 4e 2c	 lea	 ecx, DWORD PTR [esi+44]
  00014	c7 45 fc 01 00
	00 00		 mov	 DWORD PTR __$EHRec$[ebp+8], 1
  0001b	e8 00 00 00 00	 call	 ?_Tidy@?$vector@HV?$allocator@H@std@@@std@@IAEXXZ ; std::vector<int,std::allocator<int> >::_Tidy
  00020	8d 4e 1c	 lea	 ecx, DWORD PTR [esi+28]
  00023	c6 45 fc 00	 mov	 BYTE PTR __$EHRec$[ebp+8], 0
  00027	e8 00 00 00 00	 call	 ?_Tidy@?$vector@HV?$allocator@H@std@@@std@@IAEXXZ ; std::vector<int,std::allocator<int> >::_Tidy
  0002c	83 4d fc ff	 or	 DWORD PTR __$EHRec$[ebp+8], -1
  00030	8d 4e 0c	 lea	 ecx, DWORD PTR [esi+12]
  00033	e8 00 00 00 00	 call	 ?_Tidy@?$vector@UtagShopItemMovieInfo@ioShopItemExtraInfoManager@@V?$allocator@UtagShopItemMovieInfo@ioShopItemExtraInfoManager@@@std@@@std@@IAEXXZ ; std::vector<ioShopItemExtraInfoManager::tagShopItemMovieInfo,std::allocator<ioShopItemExtraInfoManager::tagShopItemMovieInfo> >::_Tidy
  00038	e8 00 00 00 00	 call	 __EH_epilog3
  0003d	c3		 ret	 0
_TEXT	ENDS
;	COMDAT text$x
text$x	SEGMENT
__unwindfunclet$??1tagShopItemExtraInfo@ioShopItemExtraInfoManager@@QAE@XZ$0:
  00000	8b 4d f0	 mov	 ecx, DWORD PTR _this$[ebp]
  00003	83 c1 0c	 add	 ecx, 12			; 0000000cH
  00006	e9 00 00 00 00	 jmp	 ??1?$vector@UtagShopItemMovieInfo@ioShopItemExtraInfoManager@@V?$allocator@UtagShopItemMovieInfo@ioShopItemExtraInfoManager@@@std@@@std@@QAE@XZ ; std::vector<ioShopItemExtraInfoManager::tagShopItemMovieInfo,std::allocator<ioShopItemExtraInfoManager::tagShopItemMovieInfo> >::~vector<ioShopItemExtraInfoManager::tagShopItemMovieInfo,std::allocator<ioShopItemExtraInfoManager::tagShopItemMovieInfo> >
__unwindfunclet$??1tagShopItemExtraInfo@ioShopItemExtraInfoManager@@QAE@XZ$1:
  0000b	8b 4d f0	 mov	 ecx, DWORD PTR _this$[ebp]
  0000e	83 c1 1c	 add	 ecx, 28			; 0000001cH
  00011	e9 00 00 00 00	 jmp	 ??1?$vector@HV?$allocator@H@std@@@std@@QAE@XZ ; std::vector<int,std::allocator<int> >::~vector<int,std::allocator<int> >
__ehhandler$??1tagShopItemExtraInfo@ioShopItemExtraInfoManager@@QAE@XZ:
  00016	8b 54 24 08	 mov	 edx, DWORD PTR [esp+8]
  0001a	8d 42 0c	 lea	 eax, DWORD PTR [edx+12]
  0001d	8b 4a ec	 mov	 ecx, DWORD PTR [edx-20]
  00020	33 c8		 xor	 ecx, eax
  00022	e8 00 00 00 00	 call	 @__security_check_cookie@4
  00027	b8 00 00 00 00	 mov	 eax, OFFSET __ehfuncinfo$??1tagShopItemExtraInfo@ioShopItemExtraInfoManager@@QAE@XZ
  0002c	e9 00 00 00 00	 jmp	 ___CxxFrameHandler3
text$x	ENDS
??1tagShopItemExtraInfo@ioShopItemExtraInfoManager@@QAE@XZ ENDP ; ioShopItemExtraInfoManager::tagShopItemExtraInfo::~tagShopItemExtraInfo
PUBLIC	?push_back@?$vector@UtagShopItemMovieInfo@ioShopItemExtraInfoManager@@V?$allocator@UtagShopItemMovieInfo@ioShopItemExtraInfoManager@@@std@@@std@@QAEXABUtagShopItemMovieInfo@ioShopItemExtraInfoManager@@@Z ; std::vector<ioShopItemExtraInfoManager::tagShopItemMovieInfo,std::allocator<ioShopItemExtraInfoManager::tagShopItemMovieInfo> >::push_back
; Function compile flags: /Ogsp
; File c:\program files (x86)\microsoft visual studio 10.0\vc\include\vector
;	COMDAT ?push_back@?$vector@UtagShopItemMovieInfo@ioShopItemExtraInfoManager@@V?$allocator@UtagShopItemMovieInfo@ioShopItemExtraInfoManager@@@std@@@std@@QAEXABUtagShopItemMovieInfo@ioShopItemExtraInfoManager@@@Z
_TEXT	SEGMENT
__Val$ = 8						; size = 4
?push_back@?$vector@UtagShopItemMovieInfo@ioShopItemExtraInfoManager@@V?$allocator@UtagShopItemMovieInfo@ioShopItemExtraInfoManager@@@std@@@std@@QAEXABUtagShopItemMovieInfo@ioShopItemExtraInfoManager@@@Z PROC ; std::vector<ioShopItemExtraInfoManager::tagShopItemMovieInfo,std::allocator<ioShopItemExtraInfoManager::tagShopItemMovieInfo> >::push_back, COMDAT
; _this$ = ecx

; 976  : 		{	// insert element at end

  00000	55		 push	 ebp
  00001	8b ec		 mov	 ebp, esp
  00003	56		 push	 esi
  00004	8b f1		 mov	 esi, ecx

; 977  : 		if (_Inside(_STD addressof(_Val)))

  00006	8b 4e 04	 mov	 ecx, DWORD PTR [esi+4]
  00009	57		 push	 edi
  0000a	8b 7d 08	 mov	 edi, DWORD PTR __Val$[ebp]
  0000d	3b f9		 cmp	 edi, ecx
  0000f	73 37		 jae	 SHORT $LN4@push_back@2
  00011	8b 16		 mov	 edx, DWORD PTR [esi]
  00013	3b d7		 cmp	 edx, edi
  00015	77 31		 ja	 SHORT $LN4@push_back@2

; 978  : 			{	// push back an element
; 979  : 			size_type _Idx = _STD addressof(_Val) - this->_Myfirst;

  00017	8b c7		 mov	 eax, edi
  00019	2b c2		 sub	 eax, edx
  0001b	6a 34		 push	 52			; 00000034H
  0001d	99		 cdq
  0001e	5f		 pop	 edi
  0001f	f7 ff		 idiv	 edi
  00021	8b f8		 mov	 edi, eax

; 980  : 			if (this->_Mylast == this->_Myend)

  00023	3b 4e 08	 cmp	 ecx, DWORD PTR [esi+8]
  00026	75 09		 jne	 SHORT $LN3@push_back@2

; 981  : 				_Reserve(1);

  00028	6a 01		 push	 1
  0002a	8b ce		 mov	 ecx, esi
  0002c	e8 00 00 00 00	 call	 ?_Reserve@?$vector@UtagShopItemMovieInfo@ioShopItemExtraInfoManager@@V?$allocator@UtagShopItemMovieInfo@ioShopItemExtraInfoManager@@@std@@@std@@IAEXI@Z ; std::vector<ioShopItemExtraInfoManager::tagShopItemMovieInfo,std::allocator<ioShopItemExtraInfoManager::tagShopItemMovieInfo> >::_Reserve
$LN3@push_back@2:

; 982  : 			_Orphan_range(this->_Mylast, this->_Mylast);
; 983  : 			_Cons_val(this->_Alval,
; 984  : 				this->_Mylast,
; 985  : 				this->_Myfirst[_Idx]);

  00031	6b ff 34	 imul	 edi, 52			; 00000034H
  00034	03 3e		 add	 edi, DWORD PTR [esi]
  00036	8d 46 0c	 lea	 eax, DWORD PTR [esi+12]
  00039	57		 push	 edi
  0003a	ff 76 04	 push	 DWORD PTR [esi+4]
  0003d	50		 push	 eax
  0003e	e8 00 00 00 00	 call	 ??$_Cons_val@V?$allocator@UtagShopItemMovieInfo@ioShopItemExtraInfoManager@@@std@@UtagShopItemMovieInfo@ioShopItemExtraInfoManager@@AAU34@@std@@YAXAAV?$allocator@UtagShopItemMovieInfo@ioShopItemExtraInfoManager@@@0@PAUtagShopItemMovieInfo@ioShopItemExtraInfoManager@@AAU23@@Z ; std::_Cons_val<std::allocator<ioShopItemExtraInfoManager::tagShopItemMovieInfo>,ioShopItemExtraInfoManager::tagShopItemMovieInfo,ioShopItemExtraInfoManager::tagShopItemMovieInfo &>
  00043	83 c4 0c	 add	 esp, 12			; 0000000cH

; 986  : 			++this->_Mylast;
; 987  : 			}
; 988  : 		else

  00046	eb 19		 jmp	 SHORT $LN26@push_back@2
$LN4@push_back@2:

; 989  : 			{	// push back a non-element
; 990  : 			if (this->_Mylast == this->_Myend)

  00048	3b 4e 08	 cmp	 ecx, DWORD PTR [esi+8]
  0004b	75 09		 jne	 SHORT $LN1@push_back@2

; 991  : 				_Reserve(1);

  0004d	6a 01		 push	 1
  0004f	8b ce		 mov	 ecx, esi
  00051	e8 00 00 00 00	 call	 ?_Reserve@?$vector@UtagShopItemMovieInfo@ioShopItemExtraInfoManager@@V?$allocator@UtagShopItemMovieInfo@ioShopItemExtraInfoManager@@@std@@@std@@IAEXI@Z ; std::vector<ioShopItemExtraInfoManager::tagShopItemMovieInfo,std::allocator<ioShopItemExtraInfoManager::tagShopItemMovieInfo> >::_Reserve
$LN1@push_back@2:

; 992  : 			_Orphan_range(this->_Mylast, this->_Mylast);
; 993  : 			_Cons_val(this->_Alval,
; 994  : 				this->_Mylast,
; 995  : 				_Val);

  00056	57		 push	 edi
  00057	ff 76 04	 push	 DWORD PTR [esi+4]
  0005a	e8 00 00 00 00	 call	 ??$_Construct@UtagShopItemMovieInfo@ioShopItemExtraInfoManager@@ABU12@@std@@YAXPAUtagShopItemMovieInfo@ioShopItemExtraInfoManager@@ABU12@@Z ; std::_Construct<ioShopItemExtraInfoManager::tagShopItemMovieInfo,ioShopItemExtraInfoManager::tagShopItemMovieInfo const &>
  0005f	59		 pop	 ecx
  00060	59		 pop	 ecx
$LN26@push_back@2:

; 996  : 			++this->_Mylast;

  00061	83 46 04 34	 add	 DWORD PTR [esi+4], 52	; 00000034H
  00065	5f		 pop	 edi
  00066	5e		 pop	 esi

; 997  : 			}
; 998  : 		}

  00067	5d		 pop	 ebp
  00068	c2 04 00	 ret	 4
?push_back@?$vector@UtagShopItemMovieInfo@ioShopItemExtraInfoManager@@V?$allocator@UtagShopItemMovieInfo@ioShopItemExtraInfoManager@@@std@@@std@@QAEXABUtagShopItemMovieInfo@ioShopItemExtraInfoManager@@@Z ENDP ; std::vector<ioShopItemExtraInfoManager::tagShopItemMovieInfo,std::allocator<ioShopItemExtraInfoManager::tagShopItemMovieInfo> >::push_back
_TEXT	ENDS
PUBLIC	?clear@?$vector@UtagShopItemMovieInfo@ioShopItemExtraInfoManager@@V?$allocator@UtagShopItemMovieInfo@ioShopItemExtraInfoManager@@@std@@@std@@QAEXXZ ; std::vector<ioShopItemExtraInfoManager::tagShopItemMovieInfo,std::allocator<ioShopItemExtraInfoManager::tagShopItemMovieInfo> >::clear
; Function compile flags: /Ogsp
;	COMDAT ?clear@?$vector@UtagShopItemMovieInfo@ioShopItemExtraInfoManager@@V?$allocator@UtagShopItemMovieInfo@ioShopItemExtraInfoManager@@@std@@@std@@QAEXXZ
_TEXT	SEGMENT
$T514528 = -4						; size = 4
?clear@?$vector@UtagShopItemMovieInfo@ioShopItemExtraInfoManager@@V?$allocator@UtagShopItemMovieInfo@ioShopItemExtraInfoManager@@@std@@@std@@QAEXXZ PROC ; std::vector<ioShopItemExtraInfoManager::tagShopItemMovieInfo,std::allocator<ioShopItemExtraInfoManager::tagShopItemMovieInfo> >::clear, COMDAT
; _this$ = ecx

; 1217 : 		{	// erase all

  00000	55		 push	 ebp
  00001	8b ec		 mov	 ebp, esp
  00003	51		 push	 ecx

; 1218 : 		erase(begin(), end());

  00004	8b 41 04	 mov	 eax, DWORD PTR [ecx+4]
  00007	8b 11		 mov	 edx, DWORD PTR [ecx]
  00009	50		 push	 eax
  0000a	52		 push	 edx
  0000b	8d 45 fc	 lea	 eax, DWORD PTR $T514528[ebp]
  0000e	50		 push	 eax
  0000f	e8 00 00 00 00	 call	 ?erase@?$vector@UtagShopItemMovieInfo@ioShopItemExtraInfoManager@@V?$allocator@UtagShopItemMovieInfo@ioShopItemExtraInfoManager@@@std@@@std@@QAE?AV?$_Vector_iterator@V?$_Vector_val@UtagShopItemMovieInfo@ioShopItemExtraInfoManager@@V?$allocator@UtagShopItemMovieInfo@ioShopItemExtraInfoManager@@@std@@@std@@@2@V?$_Vector_const_iterator@V?$_Vector_val@UtagShopItemMovieInfo@ioShopItemExtraInfoManager@@V?$allocator@UtagShopItemMovieInfo@ioShopItemExtraInfoManager@@@std@@@std@@@2@0@Z ; std::vector<ioShopItemExtraInfoManager::tagShopItemMovieInfo,std::allocator<ioShopItemExtraInfoManager::tagShopItemMovieInfo> >::erase

; 1219 : 		}

  00014	c9		 leave
  00015	c3		 ret	 0
?clear@?$vector@UtagShopItemMovieInfo@ioShopItemExtraInfoManager@@V?$allocator@UtagShopItemMovieInfo@ioShopItemExtraInfoManager@@@std@@@std@@QAEXXZ ENDP ; std::vector<ioShopItemExtraInfoManager::tagShopItemMovieInfo,std::allocator<ioShopItemExtraInfoManager::tagShopItemMovieInfo> >::clear
_TEXT	ENDS
PUBLIC	??$construct@AAUtagShopItemExtraInfo@ioShopItemExtraInfoManager@@@?$allocator@UtagShopItemExtraInfo@ioShopItemExtraInfoManager@@@std@@QAEXPAUtagShopItemExtraInfo@ioShopItemExtraInfoManager@@AAU23@@Z ; std::allocator<ioShopItemExtraInfoManager::tagShopItemExtraInfo>::construct<ioShopItemExtraInfoManager::tagShopItemExtraInfo &>
;	COMDAT xdata$x
; File c:\program files (x86)\microsoft visual studio 10.0\vc\include\utility
xdata$x	SEGMENT
__unwindtable$??$construct@AAUtagShopItemExtraInfo@ioShopItemExtraInfoManager@@@?$allocator@UtagShopItemExtraInfo@ioShopItemExtraInfoManager@@@std@@QAEXPAUtagShopItemExtraInfo@ioShopItemExtraInfoManager@@AAU23@@Z DD 0ffffffffH
	DD	FLAT:__unwindfunclet$??$construct@AAUtagShopItemExtraInfo@ioShopItemExtraInfoManager@@@?$allocator@UtagShopItemExtraInfo@ioShopItemExtraInfoManager@@@std@@QAEXPAUtagShopItemExtraInfo@ioShopItemExtraInfoManager@@AAU23@@Z$0
__ehfuncinfo$??$construct@AAUtagShopItemExtraInfo@ioShopItemExtraInfoManager@@@?$allocator@UtagShopItemExtraInfo@ioShopItemExtraInfoManager@@@std@@QAEXPAUtagShopItemExtraInfo@ioShopItemExtraInfoManager@@AAU23@@Z DD 019930522H
	DD	01H
	DD	FLAT:__unwindtable$??$construct@AAUtagShopItemExtraInfo@ioShopItemExtraInfoManager@@@?$allocator@UtagShopItemExtraInfo@ioShopItemExtraInfoManager@@@std@@QAEXPAUtagShopItemExtraInfo@ioShopItemExtraInfoManager@@AAU23@@Z
	DD	2 DUP(00H)
	DD	2 DUP(00H)
	DD	00H
	DD	01H
; Function compile flags: /Ogsp
; File c:\program files (x86)\microsoft visual studio 10.0\vc\include\xmemory
xdata$x	ENDS
;	COMDAT ??$construct@AAUtagShopItemExtraInfo@ioShopItemExtraInfoManager@@@?$allocator@UtagShopItemExtraInfo@ioShopItemExtraInfoManager@@@std@@QAEXPAUtagShopItemExtraInfo@ioShopItemExtraInfoManager@@AAU23@@Z
_TEXT	SEGMENT
$T514582 = -16						; size = 4
__$EHRec$ = -12						; size = 12
__Ptr$ = 8						; size = 4
__Val$ = 12						; size = 4
??$construct@AAUtagShopItemExtraInfo@ioShopItemExtraInfoManager@@@?$allocator@UtagShopItemExtraInfo@ioShopItemExtraInfoManager@@@std@@QAEXPAUtagShopItemExtraInfo@ioShopItemExtraInfoManager@@AAU23@@Z PROC ; std::allocator<ioShopItemExtraInfoManager::tagShopItemExtraInfo>::construct<ioShopItemExtraInfoManager::tagShopItemExtraInfo &>, COMDAT
; _this$ = ecx

; 206  : 		void construct(pointer _Ptr, _Other&& _Val)

  00000	6a 04		 push	 4
  00002	b8 00 00 00 00	 mov	 eax, __ehhandler$??$construct@AAUtagShopItemExtraInfo@ioShopItemExtraInfoManager@@@?$allocator@UtagShopItemExtraInfo@ioShopItemExtraInfoManager@@@std@@QAEXPAUtagShopItemExtraInfo@ioShopItemExtraInfoManager@@AAU23@@Z
  00007	e8 00 00 00 00	 call	 __EH_prolog3

; 207  : 		{	// construct object at _Ptr with value _Val
; 208  : 		::new ((void _FARQ *)_Ptr) _Ty(_STD forward<_Other>(_Val));

  0000c	8b 4d 08	 mov	 ecx, DWORD PTR __Ptr$[ebp]
  0000f	89 4d f0	 mov	 DWORD PTR $T514582[ebp], ecx
  00012	83 65 fc 00	 and	 DWORD PTR __$EHRec$[ebp+8], 0
  00016	85 c9		 test	 ecx, ecx
  00018	74 08		 je	 SHORT $LN3@construct@6
  0001a	ff 75 0c	 push	 DWORD PTR __Val$[ebp]
  0001d	e8 00 00 00 00	 call	 ??0tagShopItemExtraInfo@ioShopItemExtraInfoManager@@QAE@ABU01@@Z
$LN3@construct@6:

; 209  : 		}

  00022	e8 00 00 00 00	 call	 __EH_epilog3
  00027	c2 08 00	 ret	 8
_TEXT	ENDS
;	COMDAT text$x
text$x	SEGMENT
__unwindfunclet$??$construct@AAUtagShopItemExtraInfo@ioShopItemExtraInfoManager@@@?$allocator@UtagShopItemExtraInfo@ioShopItemExtraInfoManager@@@std@@QAEXPAUtagShopItemExtraInfo@ioShopItemExtraInfoManager@@AAU23@@Z$0:
  00000	ff 75 08	 push	 DWORD PTR __Ptr$[ebp]
  00003	ff 75 f0	 push	 DWORD PTR $T514582[ebp]
  00006	e8 00 00 00 00	 call	 ??3@YAXPAX0@Z		; operator delete
  0000b	59		 pop	 ecx
  0000c	59		 pop	 ecx
  0000d	c3		 ret	 0
__ehhandler$??$construct@AAUtagShopItemExtraInfo@ioShopItemExtraInfoManager@@@?$allocator@UtagShopItemExtraInfo@ioShopItemExtraInfoManager@@@std@@QAEXPAUtagShopItemExtraInfo@ioShopItemExtraInfoManager@@AAU23@@Z:
  0000e	8b 54 24 08	 mov	 edx, DWORD PTR [esp+8]
  00012	8d 42 0c	 lea	 eax, DWORD PTR [edx+12]
  00015	8b 4a ec	 mov	 ecx, DWORD PTR [edx-20]
  00018	33 c8		 xor	 ecx, eax
  0001a	e8 00 00 00 00	 call	 @__security_check_cookie@4
  0001f	b8 00 00 00 00	 mov	 eax, OFFSET __ehfuncinfo$??$construct@AAUtagShopItemExtraInfo@ioShopItemExtraInfoManager@@@?$allocator@UtagShopItemExtraInfo@ioShopItemExtraInfoManager@@@std@@QAEXPAUtagShopItemExtraInfo@ioShopItemExtraInfoManager@@AAU23@@Z
  00024	e9 00 00 00 00	 jmp	 ___CxxFrameHandler3
text$x	ENDS
??$construct@AAUtagShopItemExtraInfo@ioShopItemExtraInfoManager@@@?$allocator@UtagShopItemExtraInfo@ioShopItemExtraInfoManager@@@std@@QAEXPAUtagShopItemExtraInfo@ioShopItemExtraInfoManager@@AAU23@@Z ENDP ; std::allocator<ioShopItemExtraInfoManager::tagShopItemExtraInfo>::construct<ioShopItemExtraInfoManager::tagShopItemExtraInfo &>
PUBLIC	??$_Construct@UtagShopItemExtraInfo@ioShopItemExtraInfoManager@@ABU12@@std@@YAXPAUtagShopItemExtraInfo@ioShopItemExtraInfoManager@@ABU12@@Z ; std::_Construct<ioShopItemExtraInfoManager::tagShopItemExtraInfo,ioShopItemExtraInfoManager::tagShopItemExtraInfo const &>
;	COMDAT xdata$x
; File c:\program files (x86)\microsoft visual studio 10.0\vc\include\utility
xdata$x	SEGMENT
__unwindtable$??$_Construct@UtagShopItemExtraInfo@ioShopItemExtraInfoManager@@ABU12@@std@@YAXPAUtagShopItemExtraInfo@ioShopItemExtraInfoManager@@ABU12@@Z DD 0ffffffffH
	DD	FLAT:__unwindfunclet$??$_Construct@UtagShopItemExtraInfo@ioShopItemExtraInfoManager@@ABU12@@std@@YAXPAUtagShopItemExtraInfo@ioShopItemExtraInfoManager@@ABU12@@Z$0
__ehfuncinfo$??$_Construct@UtagShopItemExtraInfo@ioShopItemExtraInfoManager@@ABU12@@std@@YAXPAUtagShopItemExtraInfo@ioShopItemExtraInfoManager@@ABU12@@Z DD 019930522H
	DD	01H
	DD	FLAT:__unwindtable$??$_Construct@UtagShopItemExtraInfo@ioShopItemExtraInfoManager@@ABU12@@std@@YAXPAUtagShopItemExtraInfo@ioShopItemExtraInfoManager@@ABU12@@Z
	DD	2 DUP(00H)
	DD	2 DUP(00H)
	DD	00H
	DD	01H
; Function compile flags: /Ogsp
; File c:\program files (x86)\microsoft visual studio 10.0\vc\include\xmemory
xdata$x	ENDS
;	COMDAT ??$_Construct@UtagShopItemExtraInfo@ioShopItemExtraInfoManager@@ABU12@@std@@YAXPAUtagShopItemExtraInfo@ioShopItemExtraInfoManager@@ABU12@@Z
_TEXT	SEGMENT
$T514601 = -16						; size = 4
__$EHRec$ = -12						; size = 12
__Vptr$ = 8						; size = 4
__Ptr$ = 8						; size = 4
__Val$ = 12						; size = 4
??$_Construct@UtagShopItemExtraInfo@ioShopItemExtraInfoManager@@ABU12@@std@@YAXPAUtagShopItemExtraInfo@ioShopItemExtraInfoManager@@ABU12@@Z PROC ; std::_Construct<ioShopItemExtraInfoManager::tagShopItemExtraInfo,ioShopItemExtraInfoManager::tagShopItemExtraInfo const &>, COMDAT

; 46   : 	{	// construct object at _Ptr with value _Val

  00000	6a 04		 push	 4
  00002	b8 00 00 00 00	 mov	 eax, __ehhandler$??$_Construct@UtagShopItemExtraInfo@ioShopItemExtraInfoManager@@ABU12@@std@@YAXPAUtagShopItemExtraInfo@ioShopItemExtraInfoManager@@ABU12@@Z
  00007	e8 00 00 00 00	 call	 __EH_prolog3

; 47   : 	void _FARQ *_Vptr = _Ptr;

  0000c	8b 4d 08	 mov	 ecx, DWORD PTR __Ptr$[ebp]
  0000f	89 4d 08	 mov	 DWORD PTR __Vptr$[ebp], ecx

; 48   : 	::new (_Vptr) _Ty1(_STD forward<_Ty2>(_Val));

  00012	89 4d f0	 mov	 DWORD PTR $T514601[ebp], ecx
  00015	83 65 fc 00	 and	 DWORD PTR __$EHRec$[ebp+8], 0
  00019	85 c9		 test	 ecx, ecx
  0001b	74 08		 je	 SHORT $LN3@Construct@3
  0001d	ff 75 0c	 push	 DWORD PTR __Val$[ebp]
  00020	e8 00 00 00 00	 call	 ??0tagShopItemExtraInfo@ioShopItemExtraInfoManager@@QAE@ABU01@@Z
$LN3@Construct@3:

; 49   : 	}

  00025	e8 00 00 00 00	 call	 __EH_epilog3
  0002a	c3		 ret	 0
_TEXT	ENDS
;	COMDAT text$x
text$x	SEGMENT
__unwindfunclet$??$_Construct@UtagShopItemExtraInfo@ioShopItemExtraInfoManager@@ABU12@@std@@YAXPAUtagShopItemExtraInfo@ioShopItemExtraInfoManager@@ABU12@@Z$0:
  00000	ff 75 08	 push	 DWORD PTR __Vptr$[ebp]
  00003	ff 75 f0	 push	 DWORD PTR $T514601[ebp]
  00006	e8 00 00 00 00	 call	 ??3@YAXPAX0@Z		; operator delete
  0000b	59		 pop	 ecx
  0000c	59		 pop	 ecx
  0000d	c3		 ret	 0
__ehhandler$??$_Construct@UtagShopItemExtraInfo@ioShopItemExtraInfoManager@@ABU12@@std@@YAXPAUtagShopItemExtraInfo@ioShopItemExtraInfoManager@@ABU12@@Z:
  0000e	8b 54 24 08	 mov	 edx, DWORD PTR [esp+8]
  00012	8d 42 0c	 lea	 eax, DWORD PTR [edx+12]
  00015	8b 4a ec	 mov	 ecx, DWORD PTR [edx-20]
  00018	33 c8		 xor	 ecx, eax
  0001a	e8 00 00 00 00	 call	 @__security_check_cookie@4
  0001f	b8 00 00 00 00	 mov	 eax, OFFSET __ehfuncinfo$??$_Construct@UtagShopItemExtraInfo@ioShopItemExtraInfoManager@@ABU12@@std@@YAXPAUtagShopItemExtraInfo@ioShopItemExtraInfoManager@@ABU12@@Z
  00024	e9 00 00 00 00	 jmp	 ___CxxFrameHandler3
text$x	ENDS
??$_Construct@UtagShopItemExtraInfo@ioShopItemExtraInfoManager@@ABU12@@std@@YAXPAUtagShopItemExtraInfo@ioShopItemExtraInfoManager@@ABU12@@Z ENDP ; std::_Construct<ioShopItemExtraInfoManager::tagShopItemExtraInfo,ioShopItemExtraInfoManager::tagShopItemExtraInfo const &>
PUBLIC	??4?$vector@UtagShopItemMovieInfo@ioShopItemExtraInfoManager@@V?$allocator@UtagShopItemMovieInfo@ioShopItemExtraInfoManager@@@std@@@std@@QAEAAV01@ABV01@@Z ; std::vector<ioShopItemExtraInfoManager::tagShopItemMovieInfo,std::allocator<ioShopItemExtraInfoManager::tagShopItemMovieInfo> >::operator=
; Function compile flags: /Ogsp
; File c:\program files (x86)\microsoft visual studio 10.0\vc\include\vector
;	COMDAT ??4?$vector@UtagShopItemMovieInfo@ioShopItemExtraInfoManager@@V?$allocator@UtagShopItemMovieInfo@ioShopItemExtraInfoManager@@@std@@@std@@QAEAAV01@ABV01@@Z
_TEXT	SEGMENT
tv555 = -4						; size = 4
tv551 = 8						; size = 4
__Cat$514987 = 8					; size = 1
__Cat$514859 = 8					; size = 1
__Cat$514837 = 8					; size = 1
__Cat$514716 = 8					; size = 1
$T514772 = 8						; size = 4
$T514683 = 8						; size = 4
__Right$ = 8						; size = 4
??4?$vector@UtagShopItemMovieInfo@ioShopItemExtraInfoManager@@V?$allocator@UtagShopItemMovieInfo@ioShopItemExtraInfoManager@@@std@@@std@@QAEAAV01@ABV01@@Z PROC ; std::vector<ioShopItemExtraInfoManager::tagShopItemMovieInfo,std::allocator<ioShopItemExtraInfoManager::tagShopItemMovieInfo> >::operator=, COMDAT
; _this$ = ecx

; 709  : 		{	// assign _Right

  00000	55		 push	 ebp
  00001	8b ec		 mov	 ebp, esp
  00003	51		 push	 ecx
  00004	56		 push	 esi
  00005	57		 push	 edi

; 710  : 		if (this != &_Right)

  00006	8b 7d 08	 mov	 edi, DWORD PTR __Right$[ebp]
  00009	8b f1		 mov	 esi, ecx
  0000b	3b f7		 cmp	 esi, edi
  0000d	0f 84 16 01 00
	00		 je	 $LN1@operator@2

; 711  : 			{	// worth doing
; 712  : 			this->_Orphan_all();

  00013	ff 15 00 00 00
	00		 call	 DWORD PTR __imp_?_Orphan_all@_Container_base0@std@@QAEXXZ

; 713  : 
; 714  : 			if (_Right.size() == 0)

  00019	8b 47 04	 mov	 eax, DWORD PTR [edi+4]
  0001c	2b 07		 sub	 eax, DWORD PTR [edi]
  0001e	6a 34		 push	 52			; 00000034H
  00020	99		 cdq
  00021	59		 pop	 ecx
  00022	f7 f9		 idiv	 ecx
  00024	89 45 08	 mov	 DWORD PTR tv551[ebp], eax
  00027	85 c0		 test	 eax, eax

; 715  : 				clear();	// new sequence empty, erase existing sequence

  00029	8b 46 04	 mov	 eax, DWORD PTR [esi+4]
  0002c	75 14		 jne	 SHORT $LN8@operator@2
  0002e	8b 0e		 mov	 ecx, DWORD PTR [esi]
  00030	50		 push	 eax
  00031	51		 push	 ecx
  00032	8d 45 08	 lea	 eax, DWORD PTR $T514683[ebp]
  00035	50		 push	 eax
  00036	8b ce		 mov	 ecx, esi
  00038	e8 00 00 00 00	 call	 ?erase@?$vector@UtagShopItemMovieInfo@ioShopItemExtraInfoManager@@V?$allocator@UtagShopItemMovieInfo@ioShopItemExtraInfoManager@@@std@@@std@@QAE?AV?$_Vector_iterator@V?$_Vector_val@UtagShopItemMovieInfo@ioShopItemExtraInfoManager@@V?$allocator@UtagShopItemMovieInfo@ioShopItemExtraInfoManager@@@std@@@std@@@2@V?$_Vector_const_iterator@V?$_Vector_val@UtagShopItemMovieInfo@ioShopItemExtraInfoManager@@V?$allocator@UtagShopItemMovieInfo@ioShopItemExtraInfoManager@@@std@@@std@@@2@0@Z ; std::vector<ioShopItemExtraInfoManager::tagShopItemMovieInfo,std::allocator<ioShopItemExtraInfoManager::tagShopItemMovieInfo> >::erase

; 716  : 			else if (_Right.size() <= size())

  0003d	e9 e7 00 00 00	 jmp	 $LN1@operator@2
$LN8@operator@2:
  00042	53		 push	 ebx
  00043	8b 1e		 mov	 ebx, DWORD PTR [esi]
  00045	89 45 fc	 mov	 DWORD PTR tv555[ebp], eax
  00048	2b c3		 sub	 eax, ebx
  0004a	6a 34		 push	 52			; 00000034H
  0004c	99		 cdq
  0004d	59		 pop	 ecx
  0004e	f7 f9		 idiv	 ecx
  00050	8b c8		 mov	 ecx, eax
  00052	39 4d 08	 cmp	 DWORD PTR tv551[ebp], ecx
  00055	77 41		 ja	 SHORT $LN6@operator@2

; 717  : 				{	// enough elements, copy new and destroy old
; 718  : 				pointer _Ptr = _STD _Copy_impl(_Right._Myfirst, _Right._Mylast,
; 719  : 					this->_Myfirst);	// copy new

  00057	ff 75 08	 push	 DWORD PTR __Cat$514716[ebp]
  0005a	53		 push	 ebx
  0005b	ff 77 04	 push	 DWORD PTR [edi+4]
  0005e	ff 37		 push	 DWORD PTR [edi]
  00060	e8 00 00 00 00	 call	 ??$_Copy_impl@PAUtagShopItemMovieInfo@ioShopItemExtraInfoManager@@PAU12@@std@@YAPAUtagShopItemMovieInfo@ioShopItemExtraInfoManager@@PAU12@00U_Nonscalar_ptr_iterator_tag@0@@Z ; std::_Copy_impl<ioShopItemExtraInfoManager::tagShopItemMovieInfo *,ioShopItemExtraInfoManager::tagShopItemMovieInfo *>

; 720  : 				_Destroy(_Ptr, this->_Mylast);	// destroy old

  00065	8b 5e 04	 mov	 ebx, DWORD PTR [esi+4]
  00068	83 c4 10	 add	 esp, 16			; 00000010H
  0006b	89 45 08	 mov	 DWORD PTR $T514772[ebp], eax
  0006e	3b c3		 cmp	 eax, ebx
  00070	74 11		 je	 SHORT $LN46@operator@2
$LL114@operator@2:
  00072	8b 4d 08	 mov	 ecx, DWORD PTR $T514772[ebp]
  00075	e8 00 00 00 00	 call	 ??1tagShopItemMovieInfo@ioShopItemExtraInfoManager@@QAE@XZ
  0007a	83 45 08 34	 add	 DWORD PTR $T514772[ebp], 52 ; 00000034H
  0007e	39 5d 08	 cmp	 DWORD PTR $T514772[ebp], ebx
  00081	75 ef		 jne	 SHORT $LL114@operator@2
$LN46@operator@2:

; 721  : 				this->_Mylast = this->_Myfirst + _Right.size();

  00083	8b 47 04	 mov	 eax, DWORD PTR [edi+4]
  00086	2b 07		 sub	 eax, DWORD PTR [edi]
  00088	6a 34		 push	 52			; 00000034H
  0008a	99		 cdq
  0008b	59		 pop	 ecx
  0008c	f7 f9		 idiv	 ecx
  0008e	6b c0 34	 imul	 eax, 52			; 00000034H
  00091	03 06		 add	 eax, DWORD PTR [esi]

; 722  : 				}
; 723  : 			else if (_Right.size() <= capacity())

  00093	e9 8d 00 00 00	 jmp	 $LN116@operator@2
$LN6@operator@2:
  00098	8b 46 08	 mov	 eax, DWORD PTR [esi+8]
  0009b	2b c3		 sub	 eax, ebx
  0009d	6a 34		 push	 52			; 00000034H
  0009f	99		 cdq
  000a0	5b		 pop	 ebx
  000a1	f7 fb		 idiv	 ebx
  000a3	39 45 08	 cmp	 DWORD PTR tv551[ebp], eax
  000a6	77 2e		 ja	 SHORT $LN4@operator@2

; 724  : 				{	// enough room, copy and construct new
; 725  : 				pointer _Ptr = _Right._Myfirst + size();
; 726  : 				_STD _Copy_impl(_Right._Myfirst, _Ptr, this->_Myfirst);

  000a8	ff 75 08	 push	 DWORD PTR __Cat$514837[ebp]
  000ab	6b c9 34	 imul	 ecx, 52			; 00000034H
  000ae	8b 07		 mov	 eax, DWORD PTR [edi]
  000b0	ff 36		 push	 DWORD PTR [esi]
  000b2	8d 1c 08	 lea	 ebx, DWORD PTR [eax+ecx]
  000b5	53		 push	 ebx
  000b6	50		 push	 eax
  000b7	e8 00 00 00 00	 call	 ??$_Copy_impl@PAUtagShopItemMovieInfo@ioShopItemExtraInfoManager@@PAU12@@std@@YAPAUtagShopItemMovieInfo@ioShopItemExtraInfoManager@@PAU12@00U_Nonscalar_ptr_iterator_tag@0@@Z ; std::_Copy_impl<ioShopItemExtraInfoManager::tagShopItemMovieInfo *,ioShopItemExtraInfoManager::tagShopItemMovieInfo *>

; 727  : 				this->_Mylast = _Ucopy(_Ptr, _Right._Mylast, this->_Mylast);

  000bc	ff 75 08	 push	 DWORD PTR __Cat$514859[ebp]
  000bf	8b 46 04	 mov	 eax, DWORD PTR [esi+4]
  000c2	8b 7f 04	 mov	 edi, DWORD PTR [edi+4]
  000c5	8d 4e 0c	 lea	 ecx, DWORD PTR [esi+12]
  000c8	51		 push	 ecx
  000c9	50		 push	 eax
  000ca	57		 push	 edi
  000cb	53		 push	 ebx
  000cc	e8 00 00 00 00	 call	 ??$_Uninit_copy@PAUtagShopItemMovieInfo@ioShopItemExtraInfoManager@@PAU12@V?$allocator@UtagShopItemMovieInfo@ioShopItemExtraInfoManager@@@std@@@std@@YAPAUtagShopItemMovieInfo@ioShopItemExtraInfoManager@@PAU12@00AAV?$allocator@UtagShopItemMovieInfo@ioShopItemExtraInfoManager@@@0@U_Nonscalar_ptr_iterator_tag@0@@Z ; std::_Uninit_copy<ioShopItemExtraInfoManager::tagShopItemMovieInfo *,ioShopItemExtraInfoManager::tagShopItemMovieInfo *,std::allocator<ioShopItemExtraInfoManager::tagShopItemMovieInfo> >
  000d1	83 c4 24	 add	 esp, 36			; 00000024H

; 728  : 				}
; 729  : 			else

  000d4	eb 4f		 jmp	 SHORT $LN116@operator@2
$LN4@operator@2:

; 730  : 				{	// not enough room, allocate new array and construct new
; 731  : 				if (this->_Myfirst != 0)

  000d6	8b 1e		 mov	 ebx, DWORD PTR [esi]
  000d8	85 db		 test	 ebx, ebx
  000da	74 19		 je	 SHORT $LN113@operator@2
  000dc	eb 0a		 jmp	 SHORT $LN117@operator@2

; 732  : 					{	// discard old array
; 733  : 					_Destroy(this->_Myfirst, this->_Mylast);

$LL86@operator@2:
  000de	8b cb		 mov	 ecx, ebx
  000e0	e8 00 00 00 00	 call	 ??1tagShopItemMovieInfo@ioShopItemExtraInfoManager@@QAE@XZ
  000e5	83 c3 34	 add	 ebx, 52			; 00000034H
$LN117@operator@2:
  000e8	3b 5d fc	 cmp	 ebx, DWORD PTR tv555[ebp]
  000eb	75 f1		 jne	 SHORT $LL86@operator@2

; 734  : 					this->_Alval.deallocate(this->_Myfirst,
; 735  : 						this->_Myend - this->_Myfirst);

  000ed	ff 36		 push	 DWORD PTR [esi]
  000ef	e8 00 00 00 00	 call	 ??3@YAXPAX@Z		; operator delete
  000f4	59		 pop	 ecx
$LN113@operator@2:

; 736  : 					}
; 737  : 				if (_Buy(_Right.size()))

  000f5	8b 47 04	 mov	 eax, DWORD PTR [edi+4]
  000f8	2b 07		 sub	 eax, DWORD PTR [edi]
  000fa	6a 34		 push	 52			; 00000034H
  000fc	59		 pop	 ecx
  000fd	99		 cdq
  000fe	f7 f9		 idiv	 ecx
  00100	8b ce		 mov	 ecx, esi
  00102	50		 push	 eax
  00103	e8 00 00 00 00	 call	 ?_Buy@?$vector@UtagShopItemMovieInfo@ioShopItemExtraInfoManager@@V?$allocator@UtagShopItemMovieInfo@ioShopItemExtraInfoManager@@@std@@@std@@IAE_NI@Z ; std::vector<ioShopItemExtraInfoManager::tagShopItemMovieInfo,std::allocator<ioShopItemExtraInfoManager::tagShopItemMovieInfo> >::_Buy
  00108	84 c0		 test	 al, al
  0010a	74 1c		 je	 SHORT $LN115@operator@2

; 738  : 					this->_Mylast = _Ucopy(_Right._Myfirst, _Right._Mylast,
; 739  : 						this->_Myfirst);

  0010c	ff 75 08	 push	 DWORD PTR __Cat$514987[ebp]
  0010f	8b 06		 mov	 eax, DWORD PTR [esi]
  00111	8b 4f 04	 mov	 ecx, DWORD PTR [edi+4]
  00114	8b 3f		 mov	 edi, DWORD PTR [edi]
  00116	8d 56 0c	 lea	 edx, DWORD PTR [esi+12]
  00119	52		 push	 edx
  0011a	50		 push	 eax
  0011b	51		 push	 ecx
  0011c	57		 push	 edi
  0011d	e8 00 00 00 00	 call	 ??$_Uninit_copy@PAUtagShopItemMovieInfo@ioShopItemExtraInfoManager@@PAU12@V?$allocator@UtagShopItemMovieInfo@ioShopItemExtraInfoManager@@@std@@@std@@YAPAUtagShopItemMovieInfo@ioShopItemExtraInfoManager@@PAU12@00AAV?$allocator@UtagShopItemMovieInfo@ioShopItemExtraInfoManager@@@0@U_Nonscalar_ptr_iterator_tag@0@@Z ; std::_Uninit_copy<ioShopItemExtraInfoManager::tagShopItemMovieInfo *,ioShopItemExtraInfoManager::tagShopItemMovieInfo *,std::allocator<ioShopItemExtraInfoManager::tagShopItemMovieInfo> >
  00122	83 c4 14	 add	 esp, 20			; 00000014H
$LN116@operator@2:
  00125	89 46 04	 mov	 DWORD PTR [esi+4], eax
$LN115@operator@2:
  00128	5b		 pop	 ebx
$LN1@operator@2:
  00129	5f		 pop	 edi

; 740  : 				}
; 741  : 			}
; 742  : 		return (*this);

  0012a	8b c6		 mov	 eax, esi
  0012c	5e		 pop	 esi

; 743  : 		}

  0012d	c9		 leave
  0012e	c2 04 00	 ret	 4
??4?$vector@UtagShopItemMovieInfo@ioShopItemExtraInfoManager@@V?$allocator@UtagShopItemMovieInfo@ioShopItemExtraInfoManager@@@std@@@std@@QAEAAV01@ABV01@@Z ENDP ; std::vector<ioShopItemExtraInfoManager::tagShopItemMovieInfo,std::allocator<ioShopItemExtraInfoManager::tagShopItemMovieInfo> >::operator=
_TEXT	ENDS
PUBLIC	??$_Cons_val@V?$allocator@UtagShopItemExtraInfo@ioShopItemExtraInfoManager@@@std@@UtagShopItemExtraInfo@ioShopItemExtraInfoManager@@U34@@std@@YAXAAV?$allocator@UtagShopItemExtraInfo@ioShopItemExtraInfoManager@@@0@PAUtagShopItemExtraInfo@ioShopItemExtraInfoManager@@$$QAU23@@Z ; std::_Cons_val<std::allocator<ioShopItemExtraInfoManager::tagShopItemExtraInfo>,ioShopItemExtraInfoManager::tagShopItemExtraInfo,ioShopItemExtraInfoManager::tagShopItemExtraInfo>
;	COMDAT xdata$x
; File c:\program files (x86)\microsoft visual studio 10.0\vc\include\utility
xdata$x	SEGMENT
__unwindtable$??$_Cons_val@V?$allocator@UtagShopItemExtraInfo@ioShopItemExtraInfoManager@@@std@@UtagShopItemExtraInfo@ioShopItemExtraInfoManager@@U34@@std@@YAXAAV?$allocator@UtagShopItemExtraInfo@ioShopItemExtraInfoManager@@@0@PAUtagShopItemExtraInfo@ioShopItemExtraInfoManager@@$$QAU23@@Z DD 0ffffffffH
	DD	FLAT:__unwindfunclet$??$_Cons_val@V?$allocator@UtagShopItemExtraInfo@ioShopItemExtraInfoManager@@@std@@UtagShopItemExtraInfo@ioShopItemExtraInfoManager@@U34@@std@@YAXAAV?$allocator@UtagShopItemExtraInfo@ioShopItemExtraInfoManager@@@0@PAUtagShopItemExtraInfo@ioShopItemExtraInfoManager@@$$QAU23@@Z$0
__ehfuncinfo$??$_Cons_val@V?$allocator@UtagShopItemExtraInfo@ioShopItemExtraInfoManager@@@std@@UtagShopItemExtraInfo@ioShopItemExtraInfoManager@@U34@@std@@YAXAAV?$allocator@UtagShopItemExtraInfo@ioShopItemExtraInfoManager@@@0@PAUtagShopItemExtraInfo@ioShopItemExtraInfoManager@@$$QAU23@@Z DD 019930522H
	DD	01H
	DD	FLAT:__unwindtable$??$_Cons_val@V?$allocator@UtagShopItemExtraInfo@ioShopItemExtraInfoManager@@@std@@UtagShopItemExtraInfo@ioShopItemExtraInfoManager@@U34@@std@@YAXAAV?$allocator@UtagShopItemExtraInfo@ioShopItemExtraInfoManager@@@0@PAUtagShopItemExtraInfo@ioShopItemExtraInfoManager@@$$QAU23@@Z
	DD	2 DUP(00H)
	DD	2 DUP(00H)
	DD	00H
	DD	01H
; Function compile flags: /Ogsp
; File c:\program files (x86)\microsoft visual studio 10.0\vc\include\xmemory
xdata$x	ENDS
;	COMDAT ??$_Cons_val@V?$allocator@UtagShopItemExtraInfo@ioShopItemExtraInfoManager@@@std@@UtagShopItemExtraInfo@ioShopItemExtraInfoManager@@U34@@std@@YAXAAV?$allocator@UtagShopItemExtraInfo@ioShopItemExtraInfoManager@@@0@PAUtagShopItemExtraInfo@ioShopItemExtraInfoManager@@$$QAU23@@Z
_TEXT	SEGMENT
$T515023 = -16						; size = 4
__$EHRec$ = -12						; size = 12
__Alval$ = 8						; size = 4
__Pdest$ = 12						; size = 4
__Src$ = 16						; size = 4
??$_Cons_val@V?$allocator@UtagShopItemExtraInfo@ioShopItemExtraInfoManager@@@std@@UtagShopItemExtraInfo@ioShopItemExtraInfoManager@@U34@@std@@YAXAAV?$allocator@UtagShopItemExtraInfo@ioShopItemExtraInfoManager@@@0@PAUtagShopItemExtraInfo@ioShopItemExtraInfoManager@@$$QAU23@@Z PROC ; std::_Cons_val<std::allocator<ioShopItemExtraInfoManager::tagShopItemExtraInfo>,ioShopItemExtraInfoManager::tagShopItemExtraInfo,ioShopItemExtraInfoManager::tagShopItemExtraInfo>, COMDAT

; 279  : 	{	// construct using allocator

  00000	6a 04		 push	 4
  00002	b8 00 00 00 00	 mov	 eax, __ehhandler$??$_Cons_val@V?$allocator@UtagShopItemExtraInfo@ioShopItemExtraInfoManager@@@std@@UtagShopItemExtraInfo@ioShopItemExtraInfoManager@@U34@@std@@YAXAAV?$allocator@UtagShopItemExtraInfo@ioShopItemExtraInfoManager@@@0@PAUtagShopItemExtraInfo@ioShopItemExtraInfoManager@@$$QAU23@@Z
  00007	e8 00 00 00 00	 call	 __EH_prolog3

; 280  : 	_Alval.construct(_Pdest, _STD forward<_Ty2>(_Src));

  0000c	8b 4d 0c	 mov	 ecx, DWORD PTR __Pdest$[ebp]
  0000f	89 4d f0	 mov	 DWORD PTR $T515023[ebp], ecx
  00012	83 65 fc 00	 and	 DWORD PTR __$EHRec$[ebp+8], 0
  00016	85 c9		 test	 ecx, ecx
  00018	74 08		 je	 SHORT $LN7@Cons_val@5
  0001a	ff 75 10	 push	 DWORD PTR __Src$[ebp]
  0001d	e8 00 00 00 00	 call	 ??0tagShopItemExtraInfo@ioShopItemExtraInfoManager@@QAE@ABU01@@Z
$LN7@Cons_val@5:

; 281  : 	}

  00022	e8 00 00 00 00	 call	 __EH_epilog3
  00027	c3		 ret	 0
_TEXT	ENDS
;	COMDAT text$x
text$x	SEGMENT
__unwindfunclet$??$_Cons_val@V?$allocator@UtagShopItemExtraInfo@ioShopItemExtraInfoManager@@@std@@UtagShopItemExtraInfo@ioShopItemExtraInfoManager@@U34@@std@@YAXAAV?$allocator@UtagShopItemExtraInfo@ioShopItemExtraInfoManager@@@0@PAUtagShopItemExtraInfo@ioShopItemExtraInfoManager@@$$QAU23@@Z$0:
  00000	ff 75 0c	 push	 DWORD PTR __Pdest$[ebp]
  00003	ff 75 f0	 push	 DWORD PTR $T515023[ebp]
  00006	e8 00 00 00 00	 call	 ??3@YAXPAX0@Z		; operator delete
  0000b	59		 pop	 ecx
  0000c	59		 pop	 ecx
  0000d	c3		 ret	 0
__ehhandler$??$_Cons_val@V?$allocator@UtagShopItemExtraInfo@ioShopItemExtraInfoManager@@@std@@UtagShopItemExtraInfo@ioShopItemExtraInfoManager@@U34@@std@@YAXAAV?$allocator@UtagShopItemExtraInfo@ioShopItemExtraInfoManager@@@0@PAUtagShopItemExtraInfo@ioShopItemExtraInfoManager@@$$QAU23@@Z:
  0000e	8b 54 24 08	 mov	 edx, DWORD PTR [esp+8]
  00012	8d 42 0c	 lea	 eax, DWORD PTR [edx+12]
  00015	8b 4a ec	 mov	 ecx, DWORD PTR [edx-20]
  00018	33 c8		 xor	 ecx, eax
  0001a	e8 00 00 00 00	 call	 @__security_check_cookie@4
  0001f	b8 00 00 00 00	 mov	 eax, OFFSET __ehfuncinfo$??$_Cons_val@V?$allocator@UtagShopItemExtraInfo@ioShopItemExtraInfoManager@@@std@@UtagShopItemExtraInfo@ioShopItemExtraInfoManager@@U34@@std@@YAXAAV?$allocator@UtagShopItemExtraInfo@ioShopItemExtraInfoManager@@@0@PAUtagShopItemExtraInfo@ioShopItemExtraInfoManager@@$$QAU23@@Z
  00024	e9 00 00 00 00	 jmp	 ___CxxFrameHandler3
text$x	ENDS
??$_Cons_val@V?$allocator@UtagShopItemExtraInfo@ioShopItemExtraInfoManager@@@std@@UtagShopItemExtraInfo@ioShopItemExtraInfoManager@@U34@@std@@YAXAAV?$allocator@UtagShopItemExtraInfo@ioShopItemExtraInfoManager@@@0@PAUtagShopItemExtraInfo@ioShopItemExtraInfoManager@@$$QAU23@@Z ENDP ; std::_Cons_val<std::allocator<ioShopItemExtraInfoManager::tagShopItemExtraInfo>,ioShopItemExtraInfoManager::tagShopItemExtraInfo,ioShopItemExtraInfoManager::tagShopItemExtraInfo>
PUBLIC	??_GtagShopItemExtraInfo@ioShopItemExtraInfoManager@@QAEPAXI@Z ; ioShopItemExtraInfoManager::tagShopItemExtraInfo::`scalar deleting destructor'
; Function compile flags: /Ogsp
;	COMDAT ??_GtagShopItemExtraInfo@ioShopItemExtraInfoManager@@QAEPAXI@Z
_TEXT	SEGMENT
___flags$ = 8						; size = 4
??_GtagShopItemExtraInfo@ioShopItemExtraInfoManager@@QAEPAXI@Z PROC ; ioShopItemExtraInfoManager::tagShopItemExtraInfo::`scalar deleting destructor', COMDAT
; _this$ = ecx
  00000	55		 push	 ebp
  00001	8b ec		 mov	 ebp, esp
  00003	56		 push	 esi
  00004	8b f1		 mov	 esi, ecx
  00006	e8 00 00 00 00	 call	 ??1tagShopItemExtraInfo@ioShopItemExtraInfoManager@@QAE@XZ
  0000b	f6 45 08 01	 test	 BYTE PTR ___flags$[ebp], 1
  0000f	74 07		 je	 SHORT $LN1@scalar@3
  00011	56		 push	 esi
  00012	e8 00 00 00 00	 call	 ??3@YAXPAX@Z		; operator delete
  00017	59		 pop	 ecx
$LN1@scalar@3:
  00018	8b c6		 mov	 eax, esi
  0001a	5e		 pop	 esi
  0001b	5d		 pop	 ebp
  0001c	c2 04 00	 ret	 4
??_GtagShopItemExtraInfo@ioShopItemExtraInfoManager@@QAEPAXI@Z ENDP ; ioShopItemExtraInfoManager::tagShopItemExtraInfo::`scalar deleting destructor'
_TEXT	ENDS
PUBLIC	??_C@_00CNPNBAHC@?$AA@				; `string'
PUBLIC	_vList$GSCopy$
PUBLIC	_rkLoader$GSCopy$
PUBLIC	?LoadMovieInfoList@ioShopItemExtraInfoManager@@QAEXAAVioINILoader@@AAV?$vector@UtagShopItemMovieInfo@ioShopItemExtraInfoManager@@V?$allocator@UtagShopItemMovieInfo@ioShopItemExtraInfoManager@@@std@@@std@@@Z ; ioShopItemExtraInfoManager::LoadMovieInfoList
EXTRN	__imp_?LoadStringA@ioINILoader@@QAEXPBD0PADH@Z:PROC
EXTRN	__imp_??4ioHashString@@QAEAAV0@PBD@Z:PROC
EXTRN	__EH_epilog3_GS:PROC
EXTRN	__EH_prolog3_GS:PROC
;	COMDAT ??_C@_00CNPNBAHC@?$AA@
; File d:\lost saga for developer\youtube\tutorial\source\src\lsclient\stringprotect.h
CONST	SEGMENT
??_C@_00CNPNBAHC@?$AA@ DB 00H				; `string'
CONST	ENDS
;	COMDAT xdata$x
xdata$x	SEGMENT
__unwindtable$?LoadMovieInfoList@ioShopItemExtraInfoManager@@QAEXAAVioINILoader@@AAV?$vector@UtagShopItemMovieInfo@ioShopItemExtraInfoManager@@V?$allocator@UtagShopItemMovieInfo@ioShopItemExtraInfoManager@@@std@@@std@@@Z DD 0ffffffffH
	DD	FLAT:__unwindfunclet$?LoadMovieInfoList@ioShopItemExtraInfoManager@@QAEXAAVioINILoader@@AAV?$vector@UtagShopItemMovieInfo@ioShopItemExtraInfoManager@@V?$allocator@UtagShopItemMovieInfo@ioShopItemExtraInfoManager@@@std@@@std@@@Z$0
__ehfuncinfo$?LoadMovieInfoList@ioShopItemExtraInfoManager@@QAEXAAVioINILoader@@AAV?$vector@UtagShopItemMovieInfo@ioShopItemExtraInfoManager@@V?$allocator@UtagShopItemMovieInfo@ioShopItemExtraInfoManager@@@std@@@std@@@Z DD 019930522H
	DD	01H
	DD	FLAT:__unwindtable$?LoadMovieInfoList@ioShopItemExtraInfoManager@@QAEXAAVioINILoader@@AAV?$vector@UtagShopItemMovieInfo@ioShopItemExtraInfoManager@@V?$allocator@UtagShopItemMovieInfo@ioShopItemExtraInfoManager@@@std@@@std@@@Z
	DD	2 DUP(00H)
	DD	2 DUP(00H)
	DD	00H
	DD	01H
; Function compile flags: /Ogsp
; File d:\lost saga for developer\youtube\tutorial\source\src\lsclient\ioshopitemextrainfomanager.cpp
xdata$x	ENDS
;	COMDAT ?LoadMovieInfoList@ioShopItemExtraInfoManager@@QAEXAAVioINILoader@@AAV?$vector@UtagShopItemMovieInfo@ioShopItemExtraInfoManager@@V?$allocator@UtagShopItemMovieInfo@ioShopItemExtraInfoManager@@@std@@@std@@@Z
_TEXT	SEGMENT
_sShopItemMovieInfo$505969 = -664			; size = 52
_vList$GSCopy$ = -612					; size = 4
$T515228 = -608						; size = 4
tv1154 = -608						; size = 4
_rkLoader$GSCopy$ = -604				; size = 4
tv4051 = -600						; size = 4
_szBuf$ = -596						; size = 260
_szKey$ = -336						; size = 260
___encStr$506277 = -76					; size = 12
___encStr$506429 = -60					; size = 22
___encStr$506125 = -52					; size = 13
__k$515057 = -32					; size = 10
___encStr$505973 = -32					; size = 12
__$EHRec$ = -12						; size = 12
_rkLoader$ = 8						; size = 4
_vList$ = 12						; size = 4
?LoadMovieInfoList@ioShopItemExtraInfoManager@@QAEXAAVioINILoader@@AAV?$vector@UtagShopItemMovieInfo@ioShopItemExtraInfoManager@@V?$allocator@UtagShopItemMovieInfo@ioShopItemExtraInfoManager@@@std@@@std@@@Z PROC ; ioShopItemExtraInfoManager::LoadMovieInfoList, COMDAT
; _this$ = ecx

; 121  : {

  00000	68 8c 02 00 00	 push	 652			; 0000028cH
  00005	b8 00 00 00 00	 mov	 eax, __ehhandler$?LoadMovieInfoList@ioShopItemExtraInfoManager@@QAEXAAVioINILoader@@AAV?$vector@UtagShopItemMovieInfo@ioShopItemExtraInfoManager@@V?$allocator@UtagShopItemMovieInfo@ioShopItemExtraInfoManager@@@std@@@std@@@Z
  0000a	e8 00 00 00 00	 call	 __EH_prolog3_GS
  0000f	8b 4d 08	 mov	 ecx, DWORD PTR _rkLoader$[ebp]
  00012	8b 75 0c	 mov	 esi, DWORD PTR _vList$[ebp]

; 122  : 	char szBuf[MAX_PATH], szKey[MAX_PATH];
; 123  : 
; 124  : 	int nMaxCnt = rkLoader.LoadInt_e( "max_movie", 0 );

  00015	6a 02		 push	 2

; 142  : 
; 143  : 		wsprintf_e( szKey, "movie%d_after_process", i+1 );

  00017	89 8d a4 fd ff
	ff		 mov	 DWORD PTR _rkLoader$GSCopy$[ebp], ecx
  0001d	89 b5 9c fd ff
	ff		 mov	 DWORD PTR _vList$GSCopy$[ebp], esi
  00023	c7 45 e0 80 8d
	93 b5		 mov	 DWORD PTR __k$515057[ebp], -1248621184 ; b5938d80H
  0002a	c7 45 e4 80 83
	9d 83		 mov	 DWORD PTR __k$515057[ebp+4], -2086829184 ; 839d8380H
  00031	8d 45 e0	 lea	 eax, DWORD PTR __k$515057[ebp]
  00034	66 c7 45 e8 88
	00		 mov	 WORD PTR __k$515057[ebp+8], 136 ; 00000088H
  0003a	5a		 pop	 edx
$LL506@LoadMovieI:

; 122  : 	char szBuf[MAX_PATH], szKey[MAX_PATH];
; 123  : 
; 124  : 	int nMaxCnt = rkLoader.LoadInt_e( "max_movie", 0 );

  0003b	81 30 ed ec eb
	ea		 xor	 DWORD PTR [eax], -353637139 ; eaebecedH
  00041	83 c0 04	 add	 eax, 4
  00044	4a		 dec	 edx
  00045	75 f4		 jne	 SHORT $LL506@LoadMovieI
  00047	80 75 e8 ed	 xor	 BYTE PTR __k$515057[ebp+8], -19 ; ffffffedH
  0004b	52		 push	 edx
  0004c	8d 45 e0	 lea	 eax, DWORD PTR __k$515057[ebp]
  0004f	50		 push	 eax
  00050	ff 15 00 00 00
	00		 call	 DWORD PTR __imp_?LoadInt@ioINILoader@@QAEHPBDH@Z

; 125  : 	vList.clear();

  00056	8b 0e		 mov	 ecx, DWORD PTR [esi]
  00058	8b f8		 mov	 edi, eax
  0005a	8b 46 04	 mov	 eax, DWORD PTR [esi+4]
  0005d	50		 push	 eax
  0005e	51		 push	 ecx
  0005f	8d 85 a0 fd ff
	ff		 lea	 eax, DWORD PTR $T515228[ebp]
  00065	50		 push	 eax
  00066	8b ce		 mov	 ecx, esi
  00068	e8 00 00 00 00	 call	 ?erase@?$vector@UtagShopItemMovieInfo@ioShopItemExtraInfoManager@@V?$allocator@UtagShopItemMovieInfo@ioShopItemExtraInfoManager@@@std@@@std@@QAE?AV?$_Vector_iterator@V?$_Vector_val@UtagShopItemMovieInfo@ioShopItemExtraInfoManager@@V?$allocator@UtagShopItemMovieInfo@ioShopItemExtraInfoManager@@@std@@@std@@@2@V?$_Vector_const_iterator@V?$_Vector_val@UtagShopItemMovieInfo@ioShopItemExtraInfoManager@@V?$allocator@UtagShopItemMovieInfo@ioShopItemExtraInfoManager@@@std@@@std@@@2@0@Z ; std::vector<ioShopItemExtraInfoManager::tagShopItemMovieInfo,std::allocator<ioShopItemExtraInfoManager::tagShopItemMovieInfo> >::erase

; 126  : 	vList.reserve( nMaxCnt );

  0006d	57		 push	 edi
  0006e	8b ce		 mov	 ecx, esi
  00070	e8 00 00 00 00	 call	 ?reserve@?$vector@UtagShopItemMovieInfo@ioShopItemExtraInfoManager@@V?$allocator@UtagShopItemMovieInfo@ioShopItemExtraInfoManager@@@std@@@std@@QAEXI@Z ; std::vector<ioShopItemExtraInfoManager::tagShopItemMovieInfo,std::allocator<ioShopItemExtraInfoManager::tagShopItemMovieInfo> >::reserve

; 127  : 
; 128  : 	for ( int i=0; i< nMaxCnt; i++ )

  00075	85 ff		 test	 edi, edi
  00077	0f 8e 5c 02 00
	00		 jle	 $LN397@LoadMovieI

; 122  : 	char szBuf[MAX_PATH], szKey[MAX_PATH];
; 123  : 
; 124  : 	int nMaxCnt = rkLoader.LoadInt_e( "max_movie", 0 );

  0007d	8b 35 00 00 00
	00		 mov	 esi, DWORD PTR __imp__wsprintfA
  00083	8b 1d 00 00 00
	00		 mov	 ebx, DWORD PTR __imp_??4ioHashString@@QAEAAV0@PBD@Z
  00089	89 bd a0 fd ff
	ff		 mov	 DWORD PTR tv1154[ebp], edi
  0008f	8b 3d 00 00 00
	00		 mov	 edi, DWORD PTR __imp_?LoadStringA@ioINILoader@@QAEXPBD0PADH@Z
  00095	c7 85 a8 fd ff
	ff 01 00 00 00	 mov	 DWORD PTR tv4051[ebp], 1
$LL399@LoadMovieI:

; 129  : 	{
; 130  : 		ShopItemMovieInfo sShopItemMovieInfo;

  0009f	8d 8d 68 fd ff
	ff		 lea	 ecx, DWORD PTR _sShopItemMovieInfo$505969[ebp]
  000a5	e8 00 00 00 00	 call	 ??0tagShopItemMovieInfo@ioShopItemExtraInfoManager@@QAE@XZ
  000aa	83 65 fc 00	 and	 DWORD PTR __$EHRec$[ebp+8], 0
  000ae	6a 02		 push	 2

; 131  : 		wsprintf_e( szKey, "movie%d_dir", i+1 );

  000b0	c7 45 e0 80 83
	9d 83		 mov	 DWORD PTR ___encStr$505973[ebp], -2086829184 ; 839d8380H
  000b7	c7 45 e4 88 c9
	8f b5		 mov	 DWORD PTR ___encStr$505973[ebp+4], -1248867960 ; b58fc988H
  000be	8d 45 e0	 lea	 eax, DWORD PTR ___encStr$505973[ebp]
  000c1	c7 45 e8 89 85
	99 00		 mov	 DWORD PTR ___encStr$505973[ebp+8], 10061193 ; 00998589H
  000c8	59		 pop	 ecx
$LL532@LoadMovieI:
  000c9	81 30 ed ec eb
	ea		 xor	 DWORD PTR [eax], -353637139 ; eaebecedH
  000cf	83 c0 04	 add	 eax, 4
  000d2	49		 dec	 ecx
  000d3	75 f4		 jne	 SHORT $LL532@LoadMovieI
  000d5	6a 08		 push	 8
  000d7	58		 pop	 eax
$LL529@LoadMovieI:
  000d8	8b c8		 mov	 ecx, eax
  000da	81 e1 03 00 00
	80		 and	 ecx, -2147483645	; 80000003H
  000e0	79 05		 jns	 SHORT $LN582@LoadMovieI
  000e2	49		 dec	 ecx
  000e3	83 c9 fc	 or	 ecx, -4			; fffffffcH
  000e6	41		 inc	 ecx
$LN582@LoadMovieI:
  000e7	b2 ed		 mov	 dl, -19			; ffffffedH
  000e9	2a d1		 sub	 dl, cl
  000eb	30 54 05 e0	 xor	 BYTE PTR ___encStr$505973[ebp+eax], dl
  000ef	40		 inc	 eax
  000f0	83 f8 0b	 cmp	 eax, 11			; 0000000bH
  000f3	7c e3		 jl	 SHORT $LL529@LoadMovieI
  000f5	ff b5 a8 fd ff
	ff		 push	 DWORD PTR tv4051[ebp]
  000fb	8d 45 e0	 lea	 eax, DWORD PTR ___encStr$505973[ebp]
  000fe	50		 push	 eax
  000ff	8d 85 b0 fe ff
	ff		 lea	 eax, DWORD PTR _szKey$[ebp]
  00105	50		 push	 eax
  00106	ff d6		 call	 esi

; 132  : 		rkLoader.LoadString( szKey, "", szBuf, MAX_PATH );

  00108	8b 8d a4 fd ff
	ff		 mov	 ecx, DWORD PTR _rkLoader$GSCopy$[ebp]
  0010e	83 c4 0c	 add	 esp, 12			; 0000000cH
  00111	68 04 01 00 00	 push	 260			; 00000104H
  00116	8d 85 ac fd ff
	ff		 lea	 eax, DWORD PTR _szBuf$[ebp]
  0011c	50		 push	 eax
  0011d	68 00 00 00 00	 push	 OFFSET ??_C@_00CNPNBAHC@?$AA@
  00122	8d 85 b0 fe ff
	ff		 lea	 eax, DWORD PTR _szKey$[ebp]
  00128	50		 push	 eax
  00129	ff d7		 call	 edi

; 133  : 		sShopItemMovieInfo.m_szMovieDir = szBuf;

  0012b	8d 85 ac fd ff
	ff		 lea	 eax, DWORD PTR _szBuf$[ebp]
  00131	50		 push	 eax
  00132	8d 8d 68 fd ff
	ff		 lea	 ecx, DWORD PTR _sShopItemMovieInfo$505969[ebp]
  00138	ff d3		 call	 ebx
  0013a	6a 03		 push	 3

; 134  : 
; 135  : 		wsprintf_e( szKey, "movie%d_file", i+1 );

  0013c	c7 45 cc 80 83
	9d 83		 mov	 DWORD PTR ___encStr$506125[ebp], -2086829184 ; 839d8380H
  00143	c7 45 d0 88 c9
	8f b5		 mov	 DWORD PTR ___encStr$506125[ebp+4], -1248867960 ; b58fc988H
  0014a	c7 45 d4 8b 85
	87 8f		 mov	 DWORD PTR ___encStr$506125[ebp+8], -1886943861 ; 8f87858bH
  00151	8d 45 cc	 lea	 eax, DWORD PTR ___encStr$506125[ebp]
  00154	c6 45 d8 00	 mov	 BYTE PTR ___encStr$506125[ebp+12], 0
  00158	59		 pop	 ecx
$LL540@LoadMovieI:
  00159	81 30 ed ec eb
	ea		 xor	 DWORD PTR [eax], -353637139 ; eaebecedH
  0015f	83 c0 04	 add	 eax, 4
  00162	49		 dec	 ecx
  00163	75 f4		 jne	 SHORT $LL540@LoadMovieI
  00165	ff b5 a8 fd ff
	ff		 push	 DWORD PTR tv4051[ebp]
  0016b	8d 45 cc	 lea	 eax, DWORD PTR ___encStr$506125[ebp]
  0016e	50		 push	 eax
  0016f	8d 85 b0 fe ff
	ff		 lea	 eax, DWORD PTR _szKey$[ebp]
  00175	50		 push	 eax
  00176	ff d6		 call	 esi

; 136  : 		rkLoader.LoadString( szKey, "", szBuf, MAX_PATH );

  00178	8b 8d a4 fd ff
	ff		 mov	 ecx, DWORD PTR _rkLoader$GSCopy$[ebp]
  0017e	83 c4 0c	 add	 esp, 12			; 0000000cH
  00181	68 04 01 00 00	 push	 260			; 00000104H
  00186	8d 85 ac fd ff
	ff		 lea	 eax, DWORD PTR _szBuf$[ebp]
  0018c	50		 push	 eax
  0018d	68 00 00 00 00	 push	 OFFSET ??_C@_00CNPNBAHC@?$AA@
  00192	8d 85 b0 fe ff
	ff		 lea	 eax, DWORD PTR _szKey$[ebp]
  00198	50		 push	 eax
  00199	ff d7		 call	 edi

; 137  : 		sShopItemMovieInfo.m_szMovieFile = szBuf;

  0019b	8d 85 ac fd ff
	ff		 lea	 eax, DWORD PTR _szBuf$[ebp]
  001a1	50		 push	 eax
  001a2	8d 8d 78 fd ff
	ff		 lea	 ecx, DWORD PTR _sShopItemMovieInfo$505969[ebp+16]
  001a8	ff d3		 call	 ebx
  001aa	6a 02		 push	 2

; 138  : 
; 139  : 		wsprintf_e( szKey, "movie%d_url", i+1 );

  001ac	c7 45 b4 80 83
	9d 83		 mov	 DWORD PTR ___encStr$506277[ebp], -2086829184 ; 839d8380H
  001b3	c7 45 b8 88 c9
	8f b5		 mov	 DWORD PTR ___encStr$506277[ebp+4], -1248867960 ; b58fc988H
  001ba	8d 45 b4	 lea	 eax, DWORD PTR ___encStr$506277[ebp]
  001bd	c7 45 bc 98 9e
	87 00		 mov	 DWORD PTR ___encStr$506277[ebp+8], 8887960 ; 00879e98H
  001c4	59		 pop	 ecx
$LL548@LoadMovieI:
  001c5	81 30 ed ec eb
	ea		 xor	 DWORD PTR [eax], -353637139 ; eaebecedH
  001cb	83 c0 04	 add	 eax, 4
  001ce	49		 dec	 ecx
  001cf	75 f4		 jne	 SHORT $LL548@LoadMovieI
  001d1	6a 08		 push	 8
  001d3	58		 pop	 eax
$LL545@LoadMovieI:
  001d4	8b c8		 mov	 ecx, eax
  001d6	81 e1 03 00 00
	80		 and	 ecx, -2147483645	; 80000003H
  001dc	79 05		 jns	 SHORT $LN583@LoadMovieI
  001de	49		 dec	 ecx
  001df	83 c9 fc	 or	 ecx, -4			; fffffffcH
  001e2	41		 inc	 ecx
$LN583@LoadMovieI:
  001e3	b2 ed		 mov	 dl, -19			; ffffffedH
  001e5	2a d1		 sub	 dl, cl
  001e7	30 54 05 b4	 xor	 BYTE PTR ___encStr$506277[ebp+eax], dl
  001eb	40		 inc	 eax
  001ec	83 f8 0b	 cmp	 eax, 11			; 0000000bH
  001ef	7c e3		 jl	 SHORT $LL545@LoadMovieI
  001f1	ff b5 a8 fd ff
	ff		 push	 DWORD PTR tv4051[ebp]
  001f7	8d 45 b4	 lea	 eax, DWORD PTR ___encStr$506277[ebp]
  001fa	50		 push	 eax
  001fb	8d 85 b0 fe ff
	ff		 lea	 eax, DWORD PTR _szKey$[ebp]
  00201	50		 push	 eax
  00202	ff d6		 call	 esi

; 140  : 		rkLoader.LoadString( szKey, "", szBuf, MAX_PATH );

  00204	8b 8d a4 fd ff
	ff		 mov	 ecx, DWORD PTR _rkLoader$GSCopy$[ebp]
  0020a	83 c4 0c	 add	 esp, 12			; 0000000cH
  0020d	68 04 01 00 00	 push	 260			; 00000104H
  00212	8d 85 ac fd ff
	ff		 lea	 eax, DWORD PTR _szBuf$[ebp]
  00218	50		 push	 eax
  00219	68 00 00 00 00	 push	 OFFSET ??_C@_00CNPNBAHC@?$AA@
  0021e	8d 85 b0 fe ff
	ff		 lea	 eax, DWORD PTR _szKey$[ebp]
  00224	50		 push	 eax
  00225	ff d7		 call	 edi

; 141  : 		sShopItemMovieInfo.m_szMovieUrl = szBuf;

  00227	8d 85 ac fd ff
	ff		 lea	 eax, DWORD PTR _szBuf$[ebp]
  0022d	50		 push	 eax
  0022e	8d 8d 88 fd ff
	ff		 lea	 ecx, DWORD PTR _sShopItemMovieInfo$505969[ebp+32]
  00234	ff d3		 call	 ebx
  00236	6a 05		 push	 5

; 142  : 
; 143  : 		wsprintf_e( szKey, "movie%d_after_process", i+1 );

  00238	c7 45 c4 80 83
	9d 83		 mov	 DWORD PTR ___encStr$506429[ebp], -2086829184 ; 839d8380H
  0023f	c7 45 c8 88 c9
	8f b5		 mov	 DWORD PTR ___encStr$506429[ebp+4], -1248867960 ; b58fc988H
  00246	c7 45 cc 8c 8a
	9f 8f		 mov	 DWORD PTR ___encStr$506429[ebp+8], -1885369716 ; 8f9f8a8cH
  0024d	c7 45 d0 9f b3
	9b 98		 mov	 DWORD PTR ___encStr$506429[ebp+12], -1734626401 ; 989bb39fH
  00254	c7 45 d4 82 8f
	8e 99		 mov	 DWORD PTR ___encStr$506429[ebp+16], -1718710398 ; 998e8f82H
  0025b	8d 45 c4	 lea	 eax, DWORD PTR ___encStr$506429[ebp]
  0025e	66 c7 45 d8 9e
	00		 mov	 WORD PTR ___encStr$506429[ebp+20], 158 ; 0000009eH
  00264	59		 pop	 ecx
$LL556@LoadMovieI:
  00265	81 30 ed ec eb
	ea		 xor	 DWORD PTR [eax], -353637139 ; eaebecedH
  0026b	83 c0 04	 add	 eax, 4
  0026e	49		 dec	 ecx
  0026f	75 f4		 jne	 SHORT $LL556@LoadMovieI
  00271	ff b5 a8 fd ff
	ff		 push	 DWORD PTR tv4051[ebp]
  00277	80 75 d8 ed	 xor	 BYTE PTR ___encStr$506429[ebp+20], -19 ; ffffffedH
  0027b	8d 45 c4	 lea	 eax, DWORD PTR ___encStr$506429[ebp]
  0027e	50		 push	 eax
  0027f	8d 85 b0 fe ff
	ff		 lea	 eax, DWORD PTR _szKey$[ebp]
  00285	50		 push	 eax
  00286	ff d6		 call	 esi

; 144  : 		sShopItemMovieInfo.m_bAfterProcess = rkLoader.LoadBool( szKey, false );

  00288	8b 8d a4 fd ff
	ff		 mov	 ecx, DWORD PTR _rkLoader$GSCopy$[ebp]
  0028e	83 c4 0c	 add	 esp, 12			; 0000000cH
  00291	6a 00		 push	 0
  00293	8d 85 b0 fe ff
	ff		 lea	 eax, DWORD PTR _szKey$[ebp]
  00299	50		 push	 eax
  0029a	ff 15 00 00 00
	00		 call	 DWORD PTR __imp_?LoadBool@ioINILoader@@QAE_NPBD_N@Z

; 145  : 
; 146  : 		vList.push_back( sShopItemMovieInfo );

  002a0	8b 8d 9c fd ff
	ff		 mov	 ecx, DWORD PTR _vList$GSCopy$[ebp]
  002a6	88 85 98 fd ff
	ff		 mov	 BYTE PTR _sShopItemMovieInfo$505969[ebp+48], al
  002ac	8d 85 68 fd ff
	ff		 lea	 eax, DWORD PTR _sShopItemMovieInfo$505969[ebp]
  002b2	50		 push	 eax
  002b3	e8 00 00 00 00	 call	 ?push_back@?$vector@UtagShopItemMovieInfo@ioShopItemExtraInfoManager@@V?$allocator@UtagShopItemMovieInfo@ioShopItemExtraInfoManager@@@std@@@std@@QAEXABUtagShopItemMovieInfo@ioShopItemExtraInfoManager@@@Z ; std::vector<ioShopItemExtraInfoManager::tagShopItemMovieInfo,std::allocator<ioShopItemExtraInfoManager::tagShopItemMovieInfo> >::push_back

; 147  : 	}

  002b8	83 4d fc ff	 or	 DWORD PTR __$EHRec$[ebp+8], -1
  002bc	8d 8d 68 fd ff
	ff		 lea	 ecx, DWORD PTR _sShopItemMovieInfo$505969[ebp]
  002c2	e8 00 00 00 00	 call	 ??1tagShopItemMovieInfo@ioShopItemExtraInfoManager@@QAE@XZ
  002c7	ff 85 a8 fd ff
	ff		 inc	 DWORD PTR tv4051[ebp]
  002cd	ff 8d a0 fd ff
	ff		 dec	 DWORD PTR tv1154[ebp]
  002d3	0f 85 c6 fd ff
	ff		 jne	 $LL399@LoadMovieI
$LN397@LoadMovieI:

; 148  : }

  002d9	e8 00 00 00 00	 call	 __EH_epilog3_GS
  002de	c2 08 00	 ret	 8
_TEXT	ENDS
;	COMDAT text$x
text$x	SEGMENT
__unwindfunclet$?LoadMovieInfoList@ioShopItemExtraInfoManager@@QAEXAAVioINILoader@@AAV?$vector@UtagShopItemMovieInfo@ioShopItemExtraInfoManager@@V?$allocator@UtagShopItemMovieInfo@ioShopItemExtraInfoManager@@@std@@@std@@@Z$0:
  00000	8d 8d 68 fd ff
	ff		 lea	 ecx, DWORD PTR _sShopItemMovieInfo$505969[ebp]
  00006	e9 00 00 00 00	 jmp	 ??1tagShopItemMovieInfo@ioShopItemExtraInfoManager@@QAE@XZ
__ehhandler$?LoadMovieInfoList@ioShopItemExtraInfoManager@@QAEXAAVioINILoader@@AAV?$vector@UtagShopItemMovieInfo@ioShopItemExtraInfoManager@@V?$allocator@UtagShopItemMovieInfo@ioShopItemExtraInfoManager@@@std@@@std@@@Z:
  0000b	8b 54 24 08	 mov	 edx, DWORD PTR [esp+8]
  0000f	8d 42 0c	 lea	 eax, DWORD PTR [edx+12]
  00012	8b 8a 64 fd ff
	ff		 mov	 ecx, DWORD PTR [edx-668]
  00018	33 c8		 xor	 ecx, eax
  0001a	e8 00 00 00 00	 call	 @__security_check_cookie@4
  0001f	8b 4a fc	 mov	 ecx, DWORD PTR [edx-4]
  00022	33 c8		 xor	 ecx, eax
  00024	e8 00 00 00 00	 call	 @__security_check_cookie@4
  00029	b8 00 00 00 00	 mov	 eax, OFFSET __ehfuncinfo$?LoadMovieInfoList@ioShopItemExtraInfoManager@@QAEXAAVioINILoader@@AAV?$vector@UtagShopItemMovieInfo@ioShopItemExtraInfoManager@@V?$allocator@UtagShopItemMovieInfo@ioShopItemExtraInfoManager@@@std@@@std@@@Z
  0002e	e9 00 00 00 00	 jmp	 ___CxxFrameHandler3
text$x	ENDS
?LoadMovieInfoList@ioShopItemExtraInfoManager@@QAEXAAVioINILoader@@AAV?$vector@UtagShopItemMovieInfo@ioShopItemExtraInfoManager@@V?$allocator@UtagShopItemMovieInfo@ioShopItemExtraInfoManager@@@std@@@std@@@Z ENDP ; ioShopItemExtraInfoManager::LoadMovieInfoList
PUBLIC	??$_Cons_val@V?$allocator@UtagShopItemExtraInfo@ioShopItemExtraInfoManager@@@std@@UtagShopItemExtraInfo@ioShopItemExtraInfoManager@@AAU34@@std@@YAXAAV?$allocator@UtagShopItemExtraInfo@ioShopItemExtraInfoManager@@@0@PAUtagShopItemExtraInfo@ioShopItemExtraInfoManager@@AAU23@@Z ; std::_Cons_val<std::allocator<ioShopItemExtraInfoManager::tagShopItemExtraInfo>,ioShopItemExtraInfoManager::tagShopItemExtraInfo,ioShopItemExtraInfoManager::tagShopItemExtraInfo &>
;	COMDAT xdata$x
; File c:\program files (x86)\microsoft visual studio 10.0\vc\include\utility
xdata$x	SEGMENT
__unwindtable$??$_Cons_val@V?$allocator@UtagShopItemExtraInfo@ioShopItemExtraInfoManager@@@std@@UtagShopItemExtraInfo@ioShopItemExtraInfoManager@@AAU34@@std@@YAXAAV?$allocator@UtagShopItemExtraInfo@ioShopItemExtraInfoManager@@@0@PAUtagShopItemExtraInfo@ioShopItemExtraInfoManager@@AAU23@@Z DD 0ffffffffH
	DD	FLAT:__unwindfunclet$??$_Cons_val@V?$allocator@UtagShopItemExtraInfo@ioShopItemExtraInfoManager@@@std@@UtagShopItemExtraInfo@ioShopItemExtraInfoManager@@AAU34@@std@@YAXAAV?$allocator@UtagShopItemExtraInfo@ioShopItemExtraInfoManager@@@0@PAUtagShopItemExtraInfo@ioShopItemExtraInfoManager@@AAU23@@Z$0
__ehfuncinfo$??$_Cons_val@V?$allocator@UtagShopItemExtraInfo@ioShopItemExtraInfoManager@@@std@@UtagShopItemExtraInfo@ioShopItemExtraInfoManager@@AAU34@@std@@YAXAAV?$allocator@UtagShopItemExtraInfo@ioShopItemExtraInfoManager@@@0@PAUtagShopItemExtraInfo@ioShopItemExtraInfoManager@@AAU23@@Z DD 019930522H
	DD	01H
	DD	FLAT:__unwindtable$??$_Cons_val@V?$allocator@UtagShopItemExtraInfo@ioShopItemExtraInfoManager@@@std@@UtagShopItemExtraInfo@ioShopItemExtraInfoManager@@AAU34@@std@@YAXAAV?$allocator@UtagShopItemExtraInfo@ioShopItemExtraInfoManager@@@0@PAUtagShopItemExtraInfo@ioShopItemExtraInfoManager@@AAU23@@Z
	DD	2 DUP(00H)
	DD	2 DUP(00H)
	DD	00H
	DD	01H
; Function compile flags: /Ogsp
; File c:\program files (x86)\microsoft visual studio 10.0\vc\include\xmemory
xdata$x	ENDS
;	COMDAT ??$_Cons_val@V?$allocator@UtagShopItemExtraInfo@ioShopItemExtraInfoManager@@@std@@UtagShopItemExtraInfo@ioShopItemExtraInfoManager@@AAU34@@std@@YAXAAV?$allocator@UtagShopItemExtraInfo@ioShopItemExtraInfoManager@@@0@PAUtagShopItemExtraInfo@ioShopItemExtraInfoManager@@AAU23@@Z
_TEXT	SEGMENT
$T515347 = -16						; size = 4
__$EHRec$ = -12						; size = 12
__Alval$ = 8						; size = 4
__Pdest$ = 12						; size = 4
__Src$ = 16						; size = 4
??$_Cons_val@V?$allocator@UtagShopItemExtraInfo@ioShopItemExtraInfoManager@@@std@@UtagShopItemExtraInfo@ioShopItemExtraInfoManager@@AAU34@@std@@YAXAAV?$allocator@UtagShopItemExtraInfo@ioShopItemExtraInfoManager@@@0@PAUtagShopItemExtraInfo@ioShopItemExtraInfoManager@@AAU23@@Z PROC ; std::_Cons_val<std::allocator<ioShopItemExtraInfoManager::tagShopItemExtraInfo>,ioShopItemExtraInfoManager::tagShopItemExtraInfo,ioShopItemExtraInfoManager::tagShopItemExtraInfo &>, COMDAT

; 279  : 	{	// construct using allocator

  00000	6a 04		 push	 4
  00002	b8 00 00 00 00	 mov	 eax, __ehhandler$??$_Cons_val@V?$allocator@UtagShopItemExtraInfo@ioShopItemExtraInfoManager@@@std@@UtagShopItemExtraInfo@ioShopItemExtraInfoManager@@AAU34@@std@@YAXAAV?$allocator@UtagShopItemExtraInfo@ioShopItemExtraInfoManager@@@0@PAUtagShopItemExtraInfo@ioShopItemExtraInfoManager@@AAU23@@Z
  00007	e8 00 00 00 00	 call	 __EH_prolog3

; 280  : 	_Alval.construct(_Pdest, _STD forward<_Ty2>(_Src));

  0000c	8b 4d 0c	 mov	 ecx, DWORD PTR __Pdest$[ebp]
  0000f	89 4d f0	 mov	 DWORD PTR $T515347[ebp], ecx
  00012	83 65 fc 00	 and	 DWORD PTR __$EHRec$[ebp+8], 0
  00016	85 c9		 test	 ecx, ecx
  00018	74 08		 je	 SHORT $LN7@Cons_val@6
  0001a	ff 75 10	 push	 DWORD PTR __Src$[ebp]
  0001d	e8 00 00 00 00	 call	 ??0tagShopItemExtraInfo@ioShopItemExtraInfoManager@@QAE@ABU01@@Z
$LN7@Cons_val@6:

; 281  : 	}

  00022	e8 00 00 00 00	 call	 __EH_epilog3
  00027	c3		 ret	 0
_TEXT	ENDS
;	COMDAT text$x
text$x	SEGMENT
__unwindfunclet$??$_Cons_val@V?$allocator@UtagShopItemExtraInfo@ioShopItemExtraInfoManager@@@std@@UtagShopItemExtraInfo@ioShopItemExtraInfoManager@@AAU34@@std@@YAXAAV?$allocator@UtagShopItemExtraInfo@ioShopItemExtraInfoManager@@@0@PAUtagShopItemExtraInfo@ioShopItemExtraInfoManager@@AAU23@@Z$0:
  00000	ff 75 0c	 push	 DWORD PTR __Pdest$[ebp]
  00003	ff 75 f0	 push	 DWORD PTR $T515347[ebp]
  00006	e8 00 00 00 00	 call	 ??3@YAXPAX0@Z		; operator delete
  0000b	59		 pop	 ecx
  0000c	59		 pop	 ecx
  0000d	c3		 ret	 0
__ehhandler$??$_Cons_val@V?$allocator@UtagShopItemExtraInfo@ioShopItemExtraInfoManager@@@std@@UtagShopItemExtraInfo@ioShopItemExtraInfoManager@@AAU34@@std@@YAXAAV?$allocator@UtagShopItemExtraInfo@ioShopItemExtraInfoManager@@@0@PAUtagShopItemExtraInfo@ioShopItemExtraInfoManager@@AAU23@@Z:
  0000e	8b 54 24 08	 mov	 edx, DWORD PTR [esp+8]
  00012	8d 42 0c	 lea	 eax, DWORD PTR [edx+12]
  00015	8b 4a ec	 mov	 ecx, DWORD PTR [edx-20]
  00018	33 c8		 xor	 ecx, eax
  0001a	e8 00 00 00 00	 call	 @__security_check_cookie@4
  0001f	b8 00 00 00 00	 mov	 eax, OFFSET __ehfuncinfo$??$_Cons_val@V?$allocator@UtagShopItemExtraInfo@ioShopItemExtraInfoManager@@@std@@UtagShopItemExtraInfo@ioShopItemExtraInfoManager@@AAU34@@std@@YAXAAV?$allocator@UtagShopItemExtraInfo@ioShopItemExtraInfoManager@@@0@PAUtagShopItemExtraInfo@ioShopItemExtraInfoManager@@AAU23@@Z
  00024	e9 00 00 00 00	 jmp	 ___CxxFrameHandler3
text$x	ENDS
??$_Cons_val@V?$allocator@UtagShopItemExtraInfo@ioShopItemExtraInfoManager@@@std@@UtagShopItemExtraInfo@ioShopItemExtraInfoManager@@AAU34@@std@@YAXAAV?$allocator@UtagShopItemExtraInfo@ioShopItemExtraInfoManager@@@0@PAUtagShopItemExtraInfo@ioShopItemExtraInfoManager@@AAU23@@Z ENDP ; std::_Cons_val<std::allocator<ioShopItemExtraInfoManager::tagShopItemExtraInfo>,ioShopItemExtraInfoManager::tagShopItemExtraInfo,ioShopItemExtraInfoManager::tagShopItemExtraInfo &>
PUBLIC	?construct@?$allocator@UtagShopItemExtraInfo@ioShopItemExtraInfoManager@@@std@@QAEXPAUtagShopItemExtraInfo@ioShopItemExtraInfoManager@@ABU34@@Z ; std::allocator<ioShopItemExtraInfoManager::tagShopItemExtraInfo>::construct
; Function compile flags: /Ogsp
;	COMDAT ?construct@?$allocator@UtagShopItemExtraInfo@ioShopItemExtraInfoManager@@@std@@QAEXPAUtagShopItemExtraInfo@ioShopItemExtraInfoManager@@ABU34@@Z
_TEXT	SEGMENT
__Ptr$ = 8						; size = 4
__Val$ = 12						; size = 4
?construct@?$allocator@UtagShopItemExtraInfo@ioShopItemExtraInfoManager@@@std@@QAEXPAUtagShopItemExtraInfo@ioShopItemExtraInfoManager@@ABU34@@Z PROC ; std::allocator<ioShopItemExtraInfoManager::tagShopItemExtraInfo>::construct, COMDAT
; _this$ = ecx

; 196  : 		{	// construct object at _Ptr with value _Val

  00000	55		 push	 ebp
  00001	8b ec		 mov	 ebp, esp

; 197  : 		_Construct(_Ptr, _Val);

  00003	ff 75 0c	 push	 DWORD PTR __Val$[ebp]
  00006	ff 75 08	 push	 DWORD PTR __Ptr$[ebp]
  00009	e8 00 00 00 00	 call	 ??$_Construct@UtagShopItemExtraInfo@ioShopItemExtraInfoManager@@ABU12@@std@@YAXPAUtagShopItemExtraInfo@ioShopItemExtraInfoManager@@ABU12@@Z ; std::_Construct<ioShopItemExtraInfoManager::tagShopItemExtraInfo,ioShopItemExtraInfoManager::tagShopItemExtraInfo const &>
  0000e	59		 pop	 ecx
  0000f	59		 pop	 ecx

; 198  : 		}

  00010	5d		 pop	 ebp
  00011	c2 08 00	 ret	 8
?construct@?$allocator@UtagShopItemExtraInfo@ioShopItemExtraInfoManager@@@std@@QAEXPAUtagShopItemExtraInfo@ioShopItemExtraInfoManager@@ABU34@@Z ENDP ; std::allocator<ioShopItemExtraInfoManager::tagShopItemExtraInfo>::construct
_TEXT	ENDS
PUBLIC	??4tagShopItemExtraInfo@ioShopItemExtraInfoManager@@QAEAAU01@ABU01@@Z ; ioShopItemExtraInfoManager::tagShopItemExtraInfo::operator=
; Function compile flags: /Ogsp
;	COMDAT ??4tagShopItemExtraInfo@ioShopItemExtraInfoManager@@QAEAAU01@ABU01@@Z
_TEXT	SEGMENT
___that$ = 8						; size = 4
??4tagShopItemExtraInfo@ioShopItemExtraInfoManager@@QAEAAU01@ABU01@@Z PROC ; ioShopItemExtraInfoManager::tagShopItemExtraInfo::operator=, COMDAT
; _this$ = ecx
  00000	55		 push	 ebp
  00001	8b ec		 mov	 ebp, esp
  00003	56		 push	 esi
  00004	8b f1		 mov	 esi, ecx
  00006	57		 push	 edi
  00007	8b 7d 08	 mov	 edi, DWORD PTR ___that$[ebp]
  0000a	8b 07		 mov	 eax, DWORD PTR [edi]
  0000c	89 06		 mov	 DWORD PTR [esi], eax
  0000e	8b 47 04	 mov	 eax, DWORD PTR [edi+4]
  00011	89 46 04	 mov	 DWORD PTR [esi+4], eax
  00014	8a 47 08	 mov	 al, BYTE PTR [edi+8]
  00017	88 46 08	 mov	 BYTE PTR [esi+8], al
  0001a	8a 47 09	 mov	 al, BYTE PTR [edi+9]
  0001d	88 46 09	 mov	 BYTE PTR [esi+9], al
  00020	8a 47 0a	 mov	 al, BYTE PTR [edi+10]
  00023	88 46 0a	 mov	 BYTE PTR [esi+10], al
  00026	8a 47 0b	 mov	 al, BYTE PTR [edi+11]
  00029	88 46 0b	 mov	 BYTE PTR [esi+11], al
  0002c	8d 47 0c	 lea	 eax, DWORD PTR [edi+12]
  0002f	50		 push	 eax
  00030	8d 4e 0c	 lea	 ecx, DWORD PTR [esi+12]
  00033	e8 00 00 00 00	 call	 ??4?$vector@UtagShopItemMovieInfo@ioShopItemExtraInfoManager@@V?$allocator@UtagShopItemMovieInfo@ioShopItemExtraInfoManager@@@std@@@std@@QAEAAV01@ABV01@@Z ; std::vector<ioShopItemExtraInfoManager::tagShopItemMovieInfo,std::allocator<ioShopItemExtraInfoManager::tagShopItemMovieInfo> >::operator=
  00038	8d 47 1c	 lea	 eax, DWORD PTR [edi+28]
  0003b	50		 push	 eax
  0003c	8d 4e 1c	 lea	 ecx, DWORD PTR [esi+28]
  0003f	e8 00 00 00 00	 call	 ??4?$vector@HV?$allocator@H@std@@@std@@QAEAAV01@ABV01@@Z ; std::vector<int,std::allocator<int> >::operator=
  00044	83 c7 2c	 add	 edi, 44			; 0000002cH
  00047	57		 push	 edi
  00048	8d 4e 2c	 lea	 ecx, DWORD PTR [esi+44]
  0004b	e8 00 00 00 00	 call	 ??4?$vector@HV?$allocator@H@std@@@std@@QAEAAV01@ABV01@@Z ; std::vector<int,std::allocator<int> >::operator=
  00050	5f		 pop	 edi
  00051	8b c6		 mov	 eax, esi
  00053	5e		 pop	 esi
  00054	5d		 pop	 ebp
  00055	c2 04 00	 ret	 4
??4tagShopItemExtraInfo@ioShopItemExtraInfoManager@@QAEAAU01@ABU01@@Z ENDP ; ioShopItemExtraInfoManager::tagShopItemExtraInfo::operator=
_TEXT	ENDS
PUBLIC	??$_Destroy@UtagShopItemExtraInfo@ioShopItemExtraInfoManager@@@std@@YAXPAUtagShopItemExtraInfo@ioShopItemExtraInfoManager@@@Z ; std::_Destroy<ioShopItemExtraInfoManager::tagShopItemExtraInfo>
; Function compile flags: /Ogsp
;	COMDAT ??$_Destroy@UtagShopItemExtraInfo@ioShopItemExtraInfoManager@@@std@@YAXPAUtagShopItemExtraInfo@ioShopItemExtraInfoManager@@@Z
_TEXT	SEGMENT
__Ptr$ = 8						; size = 4
??$_Destroy@UtagShopItemExtraInfo@ioShopItemExtraInfoManager@@@std@@YAXPAUtagShopItemExtraInfo@ioShopItemExtraInfoManager@@@Z PROC ; std::_Destroy<ioShopItemExtraInfoManager::tagShopItemExtraInfo>, COMDAT

; 62   : 	{	// destroy object at _Ptr

  00000	55		 push	 ebp
  00001	8b ec		 mov	 ebp, esp

; 63   : 	_Ptr->~_Ty();

  00003	8b 4d 08	 mov	 ecx, DWORD PTR __Ptr$[ebp]

; 64   : 	}

  00006	5d		 pop	 ebp

; 63   : 	_Ptr->~_Ty();

  00007	e9 00 00 00 00	 jmp	 ??1tagShopItemExtraInfo@ioShopItemExtraInfoManager@@QAE@XZ
??$_Destroy@UtagShopItemExtraInfo@ioShopItemExtraInfoManager@@@std@@YAXPAUtagShopItemExtraInfo@ioShopItemExtraInfoManager@@@Z ENDP ; std::_Destroy<ioShopItemExtraInfoManager::tagShopItemExtraInfo>
_TEXT	ENDS
PUBLIC	??$_Cons_val@V?$allocator@UtagShopItemExtraInfo@ioShopItemExtraInfoManager@@@std@@UtagShopItemExtraInfo@ioShopItemExtraInfoManager@@ABU34@@std@@YAXAAV?$allocator@UtagShopItemExtraInfo@ioShopItemExtraInfoManager@@@0@PAUtagShopItemExtraInfo@ioShopItemExtraInfoManager@@ABU23@@Z ; std::_Cons_val<std::allocator<ioShopItemExtraInfoManager::tagShopItemExtraInfo>,ioShopItemExtraInfoManager::tagShopItemExtraInfo,ioShopItemExtraInfoManager::tagShopItemExtraInfo const &>
; Function compile flags: /Ogsp
;	COMDAT ??$_Cons_val@V?$allocator@UtagShopItemExtraInfo@ioShopItemExtraInfoManager@@@std@@UtagShopItemExtraInfo@ioShopItemExtraInfoManager@@ABU34@@std@@YAXAAV?$allocator@UtagShopItemExtraInfo@ioShopItemExtraInfoManager@@@0@PAUtagShopItemExtraInfo@ioShopItemExtraInfoManager@@ABU23@@Z
_TEXT	SEGMENT
__Alval$ = 8						; size = 4
__Pdest$ = 12						; size = 4
__Src$ = 16						; size = 4
??$_Cons_val@V?$allocator@UtagShopItemExtraInfo@ioShopItemExtraInfoManager@@@std@@UtagShopItemExtraInfo@ioShopItemExtraInfoManager@@ABU34@@std@@YAXAAV?$allocator@UtagShopItemExtraInfo@ioShopItemExtraInfoManager@@@0@PAUtagShopItemExtraInfo@ioShopItemExtraInfoManager@@ABU23@@Z PROC ; std::_Cons_val<std::allocator<ioShopItemExtraInfoManager::tagShopItemExtraInfo>,ioShopItemExtraInfoManager::tagShopItemExtraInfo,ioShopItemExtraInfoManager::tagShopItemExtraInfo const &>, COMDAT

; 279  : 	{	// construct using allocator

  00000	55		 push	 ebp
  00001	8b ec		 mov	 ebp, esp

; 280  : 	_Alval.construct(_Pdest, _STD forward<_Ty2>(_Src));

  00003	ff 75 10	 push	 DWORD PTR __Src$[ebp]
  00006	ff 75 0c	 push	 DWORD PTR __Pdest$[ebp]
  00009	e8 00 00 00 00	 call	 ??$_Construct@UtagShopItemExtraInfo@ioShopItemExtraInfoManager@@ABU12@@std@@YAXPAUtagShopItemExtraInfo@ioShopItemExtraInfoManager@@ABU12@@Z ; std::_Construct<ioShopItemExtraInfoManager::tagShopItemExtraInfo,ioShopItemExtraInfoManager::tagShopItemExtraInfo const &>
  0000e	59		 pop	 ecx
  0000f	59		 pop	 ecx

; 281  : 	}

  00010	5d		 pop	 ebp
  00011	c3		 ret	 0
??$_Cons_val@V?$allocator@UtagShopItemExtraInfo@ioShopItemExtraInfoManager@@@std@@UtagShopItemExtraInfo@ioShopItemExtraInfoManager@@ABU34@@std@@YAXAAV?$allocator@UtagShopItemExtraInfo@ioShopItemExtraInfoManager@@@0@PAUtagShopItemExtraInfo@ioShopItemExtraInfoManager@@ABU23@@Z ENDP ; std::_Cons_val<std::allocator<ioShopItemExtraInfoManager::tagShopItemExtraInfo>,ioShopItemExtraInfoManager::tagShopItemExtraInfo,ioShopItemExtraInfoManager::tagShopItemExtraInfo const &>
_TEXT	ENDS
PUBLIC	??$_Move@PAUtagShopItemExtraInfo@ioShopItemExtraInfoManager@@PAU12@@std@@YAPAUtagShopItemExtraInfo@ioShopItemExtraInfoManager@@PAU12@00U_Nonscalar_ptr_iterator_tag@0@@Z ; std::_Move<ioShopItemExtraInfoManager::tagShopItemExtraInfo *,ioShopItemExtraInfoManager::tagShopItemExtraInfo *>
; Function compile flags: /Ogsp
; File c:\program files (x86)\microsoft visual studio 10.0\vc\include\xutility
;	COMDAT ??$_Move@PAUtagShopItemExtraInfo@ioShopItemExtraInfoManager@@PAU12@@std@@YAPAUtagShopItemExtraInfo@ioShopItemExtraInfoManager@@PAU12@00U_Nonscalar_ptr_iterator_tag@0@@Z
_TEXT	SEGMENT
__First$ = 8						; size = 4
__Last$ = 12						; size = 4
__Dest$ = 16						; size = 4
___formal$ = 20						; size = 1
??$_Move@PAUtagShopItemExtraInfo@ioShopItemExtraInfoManager@@PAU12@@std@@YAPAUtagShopItemExtraInfo@ioShopItemExtraInfoManager@@PAU12@00U_Nonscalar_ptr_iterator_tag@0@@Z PROC ; std::_Move<ioShopItemExtraInfoManager::tagShopItemExtraInfo *,ioShopItemExtraInfoManager::tagShopItemExtraInfo *>, COMDAT

; 2512 : 	{	// move [_First, _Last) to [_Dest, ...), arbitrary iterators

  00000	55		 push	 ebp
  00001	8b ec		 mov	 ebp, esp
  00003	56		 push	 esi

; 2513 : 	for (; _First != _Last; ++_Dest, ++_First)

  00004	8b 75 08	 mov	 esi, DWORD PTR __First$[ebp]
  00007	eb 10		 jmp	 SHORT $LN11@Move@2
$LL3@Move@2:

; 2514 : 		*_Dest = _STD move(*_First);

  00009	8b 4d 10	 mov	 ecx, DWORD PTR __Dest$[ebp]
  0000c	56		 push	 esi
  0000d	e8 00 00 00 00	 call	 ??4tagShopItemExtraInfo@ioShopItemExtraInfoManager@@QAEAAU01@ABU01@@Z
  00012	83 45 10 3c	 add	 DWORD PTR __Dest$[ebp], 60 ; 0000003cH
  00016	83 c6 3c	 add	 esi, 60			; 0000003cH
$LN11@Move@2:

; 2513 : 	for (; _First != _Last; ++_Dest, ++_First)

  00019	3b 75 0c	 cmp	 esi, DWORD PTR __Last$[ebp]
  0001c	75 eb		 jne	 SHORT $LL3@Move@2

; 2515 : 	return (_Dest);

  0001e	8b 45 10	 mov	 eax, DWORD PTR __Dest$[ebp]
  00021	5e		 pop	 esi

; 2516 : 	}

  00022	5d		 pop	 ebp
  00023	c3		 ret	 0
??$_Move@PAUtagShopItemExtraInfo@ioShopItemExtraInfoManager@@PAU12@@std@@YAPAUtagShopItemExtraInfo@ioShopItemExtraInfoManager@@PAU12@00U_Nonscalar_ptr_iterator_tag@0@@Z ENDP ; std::_Move<ioShopItemExtraInfoManager::tagShopItemExtraInfo *,ioShopItemExtraInfoManager::tagShopItemExtraInfo *>
_TEXT	ENDS
PUBLIC	?destroy@?$allocator@UtagShopItemExtraInfo@ioShopItemExtraInfoManager@@@std@@QAEXPAUtagShopItemExtraInfo@ioShopItemExtraInfoManager@@@Z ; std::allocator<ioShopItemExtraInfoManager::tagShopItemExtraInfo>::destroy
; Function compile flags: /Ogsp
; File c:\program files (x86)\microsoft visual studio 10.0\vc\include\xmemory
;	COMDAT ?destroy@?$allocator@UtagShopItemExtraInfo@ioShopItemExtraInfoManager@@@std@@QAEXPAUtagShopItemExtraInfo@ioShopItemExtraInfoManager@@@Z
_TEXT	SEGMENT
__Ptr$ = 8						; size = 4
?destroy@?$allocator@UtagShopItemExtraInfo@ioShopItemExtraInfoManager@@@std@@QAEXPAUtagShopItemExtraInfo@ioShopItemExtraInfoManager@@@Z PROC ; std::allocator<ioShopItemExtraInfoManager::tagShopItemExtraInfo>::destroy, COMDAT
; _this$ = ecx

; 212  : 		{	// destroy object at _Ptr

  00000	55		 push	 ebp
  00001	8b ec		 mov	 ebp, esp

; 213  : 		_Destroy(_Ptr);

  00003	8b 4d 08	 mov	 ecx, DWORD PTR __Ptr$[ebp]
  00006	e8 00 00 00 00	 call	 ??1tagShopItemExtraInfo@ioShopItemExtraInfoManager@@QAE@XZ

; 214  : 		}

  0000b	5d		 pop	 ebp
  0000c	c2 04 00	 ret	 4
?destroy@?$allocator@UtagShopItemExtraInfo@ioShopItemExtraInfoManager@@@std@@QAEXPAUtagShopItemExtraInfo@ioShopItemExtraInfoManager@@@Z ENDP ; std::allocator<ioShopItemExtraInfoManager::tagShopItemExtraInfo>::destroy
_TEXT	ENDS
PUBLIC	??$_Move@PAUtagShopItemExtraInfo@ioShopItemExtraInfoManager@@PAU12@@std@@YAPAUtagShopItemExtraInfo@ioShopItemExtraInfoManager@@PAU12@00@Z ; std::_Move<ioShopItemExtraInfoManager::tagShopItemExtraInfo *,ioShopItemExtraInfoManager::tagShopItemExtraInfo *>
; Function compile flags: /Ogsp
; File c:\program files (x86)\microsoft visual studio 10.0\vc\include\xutility
;	COMDAT ??$_Move@PAUtagShopItemExtraInfo@ioShopItemExtraInfoManager@@PAU12@@std@@YAPAUtagShopItemExtraInfo@ioShopItemExtraInfoManager@@PAU12@00@Z
_TEXT	SEGMENT
__Cat$515408 = -4					; size = 1
__First$ = 8						; size = 4
__Last$ = 12						; size = 4
__Dest$ = 16						; size = 4
??$_Move@PAUtagShopItemExtraInfo@ioShopItemExtraInfoManager@@PAU12@@std@@YAPAUtagShopItemExtraInfo@ioShopItemExtraInfoManager@@PAU12@00@Z PROC ; std::_Move<ioShopItemExtraInfoManager::tagShopItemExtraInfo *,ioShopItemExtraInfoManager::tagShopItemExtraInfo *>, COMDAT

; 2533 : 	{	// move [_First, _Last) to [_Dest, ...), unchecked

  00000	55		 push	 ebp
  00001	8b ec		 mov	 ebp, esp
  00003	51		 push	 ecx

; 2534 : 	return (_Move(_First, _Last,
; 2535 : 		_Dest, _Ptr_cat(_First, _Dest)));

  00004	ff 75 fc	 push	 DWORD PTR __Cat$515408[ebp]
  00007	ff 75 10	 push	 DWORD PTR __Dest$[ebp]
  0000a	ff 75 0c	 push	 DWORD PTR __Last$[ebp]
  0000d	ff 75 08	 push	 DWORD PTR __First$[ebp]
  00010	e8 00 00 00 00	 call	 ??$_Move@PAUtagShopItemExtraInfo@ioShopItemExtraInfoManager@@PAU12@@std@@YAPAUtagShopItemExtraInfo@ioShopItemExtraInfoManager@@PAU12@00U_Nonscalar_ptr_iterator_tag@0@@Z ; std::_Move<ioShopItemExtraInfoManager::tagShopItemExtraInfo *,ioShopItemExtraInfoManager::tagShopItemExtraInfo *>
  00015	83 c4 10	 add	 esp, 16			; 00000010H

; 2536 : 	}

  00018	c9		 leave
  00019	c3		 ret	 0
??$_Move@PAUtagShopItemExtraInfo@ioShopItemExtraInfoManager@@PAU12@@std@@YAPAUtagShopItemExtraInfo@ioShopItemExtraInfoManager@@PAU12@00@Z ENDP ; std::_Move<ioShopItemExtraInfoManager::tagShopItemExtraInfo *,ioShopItemExtraInfoManager::tagShopItemExtraInfo *>
_TEXT	ENDS
PUBLIC	??$_Dest_val@V?$allocator@UtagShopItemExtraInfo@ioShopItemExtraInfoManager@@@std@@UtagShopItemExtraInfo@ioShopItemExtraInfoManager@@@std@@YAXAAV?$allocator@UtagShopItemExtraInfo@ioShopItemExtraInfoManager@@@0@PAUtagShopItemExtraInfo@ioShopItemExtraInfoManager@@@Z ; std::_Dest_val<std::allocator<ioShopItemExtraInfoManager::tagShopItemExtraInfo>,ioShopItemExtraInfoManager::tagShopItemExtraInfo>
; Function compile flags: /Ogsp
; File c:\program files (x86)\microsoft visual studio 10.0\vc\include\xmemory
;	COMDAT ??$_Dest_val@V?$allocator@UtagShopItemExtraInfo@ioShopItemExtraInfoManager@@@std@@UtagShopItemExtraInfo@ioShopItemExtraInfoManager@@@std@@YAXAAV?$allocator@UtagShopItemExtraInfo@ioShopItemExtraInfoManager@@@0@PAUtagShopItemExtraInfo@ioShopItemExtraInfoManager@@@Z
_TEXT	SEGMENT
__Alval$ = 8						; size = 4
__Pdest$ = 12						; size = 4
??$_Dest_val@V?$allocator@UtagShopItemExtraInfo@ioShopItemExtraInfoManager@@@std@@UtagShopItemExtraInfo@ioShopItemExtraInfoManager@@@std@@YAXAAV?$allocator@UtagShopItemExtraInfo@ioShopItemExtraInfoManager@@@0@PAUtagShopItemExtraInfo@ioShopItemExtraInfoManager@@@Z PROC ; std::_Dest_val<std::allocator<ioShopItemExtraInfoManager::tagShopItemExtraInfo>,ioShopItemExtraInfoManager::tagShopItemExtraInfo>, COMDAT

; 286  : 	{	// destroy using allocator

  00000	55		 push	 ebp
  00001	8b ec		 mov	 ebp, esp

; 287  : 	_Alval.destroy(_Pdest);

  00003	8b 4d 0c	 mov	 ecx, DWORD PTR __Pdest$[ebp]

; 288  : 	}

  00006	5d		 pop	 ebp

; 287  : 	_Alval.destroy(_Pdest);

  00007	e9 00 00 00 00	 jmp	 ??1tagShopItemExtraInfo@ioShopItemExtraInfoManager@@QAE@XZ
??$_Dest_val@V?$allocator@UtagShopItemExtraInfo@ioShopItemExtraInfoManager@@@std@@UtagShopItemExtraInfo@ioShopItemExtraInfoManager@@@std@@YAXAAV?$allocator@UtagShopItemExtraInfo@ioShopItemExtraInfoManager@@@0@PAUtagShopItemExtraInfo@ioShopItemExtraInfoManager@@@Z ENDP ; std::_Dest_val<std::allocator<ioShopItemExtraInfoManager::tagShopItemExtraInfo>,ioShopItemExtraInfoManager::tagShopItemExtraInfo>
_TEXT	ENDS
PUBLIC	??$_Destroy_range@V?$allocator@UtagShopItemExtraInfo@ioShopItemExtraInfoManager@@@std@@@std@@YAXPAUtagShopItemExtraInfo@ioShopItemExtraInfoManager@@0AAV?$allocator@UtagShopItemExtraInfo@ioShopItemExtraInfoManager@@@0@U_Nonscalar_ptr_iterator_tag@0@@Z ; std::_Destroy_range<std::allocator<ioShopItemExtraInfoManager::tagShopItemExtraInfo> >
; Function compile flags: /Ogsp
;	COMDAT ??$_Destroy_range@V?$allocator@UtagShopItemExtraInfo@ioShopItemExtraInfoManager@@@std@@@std@@YAXPAUtagShopItemExtraInfo@ioShopItemExtraInfoManager@@0AAV?$allocator@UtagShopItemExtraInfo@ioShopItemExtraInfoManager@@@0@U_Nonscalar_ptr_iterator_tag@0@@Z
_TEXT	SEGMENT
__First$ = 8						; size = 4
__Last$ = 12						; size = 4
__Al$ = 16						; size = 4
___formal$ = 20						; size = 1
??$_Destroy_range@V?$allocator@UtagShopItemExtraInfo@ioShopItemExtraInfoManager@@@std@@@std@@YAXPAUtagShopItemExtraInfo@ioShopItemExtraInfoManager@@0AAV?$allocator@UtagShopItemExtraInfo@ioShopItemExtraInfoManager@@@0@U_Nonscalar_ptr_iterator_tag@0@@Z PROC ; std::_Destroy_range<std::allocator<ioShopItemExtraInfoManager::tagShopItemExtraInfo> >, COMDAT

; 95   : 	{	// destroy [_First, _Last), arbitrary type

  00000	55		 push	 ebp
  00001	8b ec		 mov	 ebp, esp
  00003	56		 push	 esi

; 96   : 	for (; _First != _Last; ++_First)

  00004	8b 75 08	 mov	 esi, DWORD PTR __First$[ebp]
  00007	eb 0a		 jmp	 SHORT $LN17@Destroy_ra@3
$LL3@Destroy_ra@3:

; 97   : 		_Dest_val(_Al, _First);

  00009	8b ce		 mov	 ecx, esi
  0000b	e8 00 00 00 00	 call	 ??1tagShopItemExtraInfo@ioShopItemExtraInfoManager@@QAE@XZ
  00010	83 c6 3c	 add	 esi, 60			; 0000003cH
$LN17@Destroy_ra@3:

; 96   : 	for (; _First != _Last; ++_First)

  00013	3b 75 0c	 cmp	 esi, DWORD PTR __Last$[ebp]
  00016	75 f1		 jne	 SHORT $LL3@Destroy_ra@3
  00018	5e		 pop	 esi

; 98   : 	}

  00019	5d		 pop	 ebp
  0001a	c3		 ret	 0
??$_Destroy_range@V?$allocator@UtagShopItemExtraInfo@ioShopItemExtraInfoManager@@@std@@@std@@YAXPAUtagShopItemExtraInfo@ioShopItemExtraInfoManager@@0AAV?$allocator@UtagShopItemExtraInfo@ioShopItemExtraInfoManager@@@0@U_Nonscalar_ptr_iterator_tag@0@@Z ENDP ; std::_Destroy_range<std::allocator<ioShopItemExtraInfoManager::tagShopItemExtraInfo> >
_TEXT	ENDS
PUBLIC	??$_Uninit_move@PAUtagShopItemExtraInfo@ioShopItemExtraInfoManager@@PAU12@V?$allocator@UtagShopItemExtraInfo@ioShopItemExtraInfoManager@@@std@@U12@@std@@YAPAUtagShopItemExtraInfo@ioShopItemExtraInfoManager@@PAU12@00AAV?$allocator@UtagShopItemExtraInfo@ioShopItemExtraInfoManager@@@0@0U_Nonscalar_ptr_iterator_tag@0@@Z ; std::_Uninit_move<ioShopItemExtraInfoManager::tagShopItemExtraInfo *,ioShopItemExtraInfoManager::tagShopItemExtraInfo *,std::allocator<ioShopItemExtraInfoManager::tagShopItemExtraInfo>,ioShopItemExtraInfoManager::tagShopItemExtraInfo>
;	COMDAT xdata$x
xdata$x	SEGMENT
__catchsym$??$_Uninit_move@PAUtagShopItemExtraInfo@ioShopItemExtraInfoManager@@PAU12@V?$allocator@UtagShopItemExtraInfo@ioShopItemExtraInfoManager@@@std@@U12@@std@@YAPAUtagShopItemExtraInfo@ioShopItemExtraInfoManager@@PAU12@00AAV?$allocator@UtagShopItemExtraInfo@ioShopItemExtraInfoManager@@@0@0U_Nonscalar_ptr_iterator_tag@0@@Z$2 DD 040H
	DD	00H
	DD	00H
	DD	FLAT:__catch$??$_Uninit_move@PAUtagShopItemExtraInfo@ioShopItemExtraInfoManager@@PAU12@V?$allocator@UtagShopItemExtraInfo@ioShopItemExtraInfoManager@@@std@@U12@@std@@YAPAUtagShopItemExtraInfo@ioShopItemExtraInfoManager@@PAU12@00AAV?$allocator@UtagShopItemExtraInfo@ioShopItemExtraInfoManager@@@0@0U_Nonscalar_ptr_iterator_tag@0@@Z$0
__unwindtable$??$_Uninit_move@PAUtagShopItemExtraInfo@ioShopItemExtraInfoManager@@PAU12@V?$allocator@UtagShopItemExtraInfo@ioShopItemExtraInfoManager@@@std@@U12@@std@@YAPAUtagShopItemExtraInfo@ioShopItemExtraInfoManager@@PAU12@00AAV?$allocator@UtagShopItemExtraInfo@ioShopItemExtraInfoManager@@@0@0U_Nonscalar_ptr_iterator_tag@0@@Z DD 0ffffffffH
	DD	00H
	DD	0ffffffffH
	DD	00H
__tryblocktable$??$_Uninit_move@PAUtagShopItemExtraInfo@ioShopItemExtraInfoManager@@PAU12@V?$allocator@UtagShopItemExtraInfo@ioShopItemExtraInfoManager@@@std@@U12@@std@@YAPAUtagShopItemExtraInfo@ioShopItemExtraInfoManager@@PAU12@00AAV?$allocator@UtagShopItemExtraInfo@ioShopItemExtraInfoManager@@@0@0U_Nonscalar_ptr_iterator_tag@0@@Z DD 00H
	DD	00H
	DD	01H
	DD	01H
	DD	FLAT:__catchsym$??$_Uninit_move@PAUtagShopItemExtraInfo@ioShopItemExtraInfoManager@@PAU12@V?$allocator@UtagShopItemExtraInfo@ioShopItemExtraInfoManager@@@std@@U12@@std@@YAPAUtagShopItemExtraInfo@ioShopItemExtraInfoManager@@PAU12@00AAV?$allocator@UtagShopItemExtraInfo@ioShopItemExtraInfoManager@@@0@0U_Nonscalar_ptr_iterator_tag@0@@Z$2
__ehfuncinfo$??$_Uninit_move@PAUtagShopItemExtraInfo@ioShopItemExtraInfoManager@@PAU12@V?$allocator@UtagShopItemExtraInfo@ioShopItemExtraInfoManager@@@std@@U12@@std@@YAPAUtagShopItemExtraInfo@ioShopItemExtraInfoManager@@PAU12@00AAV?$allocator@UtagShopItemExtraInfo@ioShopItemExtraInfoManager@@@0@0U_Nonscalar_ptr_iterator_tag@0@@Z DD 019930522H
	DD	02H
	DD	FLAT:__unwindtable$??$_Uninit_move@PAUtagShopItemExtraInfo@ioShopItemExtraInfoManager@@PAU12@V?$allocator@UtagShopItemExtraInfo@ioShopItemExtraInfoManager@@@std@@U12@@std@@YAPAUtagShopItemExtraInfo@ioShopItemExtraInfoManager@@PAU12@00AAV?$allocator@UtagShopItemExtraInfo@ioShopItemExtraInfoManager@@@0@0U_Nonscalar_ptr_iterator_tag@0@@Z
	DD	01H
	DD	FLAT:__tryblocktable$??$_Uninit_move@PAUtagShopItemExtraInfo@ioShopItemExtraInfoManager@@PAU12@V?$allocator@UtagShopItemExtraInfo@ioShopItemExtraInfoManager@@@std@@U12@@std@@YAPAUtagShopItemExtraInfo@ioShopItemExtraInfoManager@@PAU12@00AAV?$allocator@UtagShopItemExtraInfo@ioShopItemExtraInfoManager@@@0@0U_Nonscalar_ptr_iterator_tag@0@@Z
	DD	2 DUP(00H)
	DD	00H
	DD	01H
; Function compile flags: /Ogsp
; File c:\program files (x86)\microsoft visual studio 10.0\vc\include\memory
xdata$x	ENDS
;	COMDAT ??$_Uninit_move@PAUtagShopItemExtraInfo@ioShopItemExtraInfoManager@@PAU12@V?$allocator@UtagShopItemExtraInfo@ioShopItemExtraInfoManager@@@std@@U12@@std@@YAPAUtagShopItemExtraInfo@ioShopItemExtraInfoManager@@PAU12@00AAV?$allocator@UtagShopItemExtraInfo@ioShopItemExtraInfoManager@@@0@0U_Nonscalar_ptr_iterator_tag@0@@Z
_TEXT	SEGMENT
__Next$ = -20						; size = 4
__$EHRec$ = -16						; size = 16
__First$ = 8						; size = 4
__Last$ = 12						; size = 4
__Dest$ = 16						; size = 4
__Al$ = 20						; size = 4
___formal$ = 24						; size = 4
___formal$ = 28						; size = 1
??$_Uninit_move@PAUtagShopItemExtraInfo@ioShopItemExtraInfoManager@@PAU12@V?$allocator@UtagShopItemExtraInfo@ioShopItemExtraInfoManager@@@std@@U12@@std@@YAPAUtagShopItemExtraInfo@ioShopItemExtraInfoManager@@PAU12@00AAV?$allocator@UtagShopItemExtraInfo@ioShopItemExtraInfoManager@@@0@0U_Nonscalar_ptr_iterator_tag@0@@Z PROC ; std::_Uninit_move<ioShopItemExtraInfoManager::tagShopItemExtraInfo *,ioShopItemExtraInfoManager::tagShopItemExtraInfo *,std::allocator<ioShopItemExtraInfoManager::tagShopItemExtraInfo>,ioShopItemExtraInfoManager::tagShopItemExtraInfo>, COMDAT

; 424  : 	{	// move [_First, _Last) to raw _Dest, using _Al, arbitrary type

  00000	6a 08		 push	 8
  00002	b8 00 00 00 00	 mov	 eax, __ehhandler$??$_Uninit_move@PAUtagShopItemExtraInfo@ioShopItemExtraInfoManager@@PAU12@V?$allocator@UtagShopItemExtraInfo@ioShopItemExtraInfoManager@@@std@@U12@@std@@YAPAUtagShopItemExtraInfo@ioShopItemExtraInfoManager@@PAU12@00AAV?$allocator@UtagShopItemExtraInfo@ioShopItemExtraInfoManager@@@0@0U_Nonscalar_ptr_iterator_tag@0@@Z
  00007	e8 00 00 00 00	 call	 __EH_prolog3_catch

; 425  : 	_DEBUG_RANGE(_First, _Last);
; 426  : 	_DEBUG_POINTER(_Dest);
; 427  : 	_FwdIt _Next = _Dest;

  0000c	8b 45 10	 mov	 eax, DWORD PTR __Dest$[ebp]

; 428  : 
; 429  : 	_TRY_BEGIN

  0000f	83 65 fc 00	 and	 DWORD PTR __$EHRec$[ebp+12], 0
  00013	8b 75 08	 mov	 esi, DWORD PTR __First$[ebp]
  00016	89 45 ec	 mov	 DWORD PTR __Next$[ebp], eax
$LL6@Uninit_mov@2:

; 430  : 	for (; _First != _Last; ++_Dest, ++_First)

  00019	3b 75 0c	 cmp	 esi, DWORD PTR __Last$[ebp]
  0001c	74 35		 je	 SHORT $LN4@Uninit_mov@2

; 431  : 		_Cons_val(_Al, _Dest, (_Valty &&)*_First);

  0001e	56		 push	 esi
  0001f	ff 75 10	 push	 DWORD PTR __Dest$[ebp]
  00022	ff 75 14	 push	 DWORD PTR __Al$[ebp]
  00025	e8 00 00 00 00	 call	 ??$_Cons_val@V?$allocator@UtagShopItemExtraInfo@ioShopItemExtraInfoManager@@@std@@UtagShopItemExtraInfo@ioShopItemExtraInfoManager@@U34@@std@@YAXAAV?$allocator@UtagShopItemExtraInfo@ioShopItemExtraInfoManager@@@0@PAUtagShopItemExtraInfo@ioShopItemExtraInfoManager@@$$QAU23@@Z ; std::_Cons_val<std::allocator<ioShopItemExtraInfoManager::tagShopItemExtraInfo>,ioShopItemExtraInfoManager::tagShopItemExtraInfo,ioShopItemExtraInfoManager::tagShopItemExtraInfo>
  0002a	83 45 10 3c	 add	 DWORD PTR __Dest$[ebp], 60 ; 0000003cH
  0002e	83 c4 0c	 add	 esp, 12			; 0000000cH
  00031	83 c6 3c	 add	 esi, 60			; 0000003cH
  00034	eb e3		 jmp	 SHORT $LL6@Uninit_mov@2
__catch$??$_Uninit_move@PAUtagShopItemExtraInfo@ioShopItemExtraInfoManager@@PAU12@V?$allocator@UtagShopItemExtraInfo@ioShopItemExtraInfoManager@@@std@@U12@@std@@YAPAUtagShopItemExtraInfo@ioShopItemExtraInfoManager@@PAU12@00AAV?$allocator@UtagShopItemExtraInfo@ioShopItemExtraInfoManager@@@0@0U_Nonscalar_ptr_iterator_tag@0@@Z$0:

; 432  : 	_CATCH_ALL
; 433  : 	for (; _Next != _Dest; ++_Next)

  00036	8b 75 ec	 mov	 esi, DWORD PTR __Next$[ebp]
  00039	eb 0a		 jmp	 SHORT $LN29@Uninit_mov@2
$LL3@Uninit_mov@2:

; 434  : 		_Dest_val(_Al, _Next);

  0003b	8b ce		 mov	 ecx, esi
  0003d	e8 00 00 00 00	 call	 ??1tagShopItemExtraInfo@ioShopItemExtraInfoManager@@QAE@XZ
  00042	83 c6 3c	 add	 esi, 60			; 0000003cH
$LN29@Uninit_mov@2:

; 432  : 	_CATCH_ALL
; 433  : 	for (; _Next != _Dest; ++_Next)

  00045	3b 75 10	 cmp	 esi, DWORD PTR __Dest$[ebp]
  00048	75 f1		 jne	 SHORT $LL3@Uninit_mov@2

; 435  : 	_RERAISE;

  0004a	6a 00		 push	 0
  0004c	6a 00		 push	 0
  0004e	e8 00 00 00 00	 call	 __CxxThrowException@8
$LN30@Uninit_mov@2:
$LN4@Uninit_mov@2:

; 436  : 	_CATCH_END
; 437  : 	return (_Dest);

  00053	8b 45 10	 mov	 eax, DWORD PTR __Dest$[ebp]

; 438  : 	}

  00056	e8 00 00 00 00	 call	 __EH_epilog3
  0005b	c3		 ret	 0
$LN28@Uninit_mov@2:
_TEXT	ENDS
;	COMDAT text$x
text$x	SEGMENT
__ehhandler$??$_Uninit_move@PAUtagShopItemExtraInfo@ioShopItemExtraInfoManager@@PAU12@V?$allocator@UtagShopItemExtraInfo@ioShopItemExtraInfoManager@@@std@@U12@@std@@YAPAUtagShopItemExtraInfo@ioShopItemExtraInfoManager@@PAU12@00AAV?$allocator@UtagShopItemExtraInfo@ioShopItemExtraInfoManager@@@0@0U_Nonscalar_ptr_iterator_tag@0@@Z:
  00000	8b 54 24 08	 mov	 edx, DWORD PTR [esp+8]
  00004	8d 42 0c	 lea	 eax, DWORD PTR [edx+12]
  00007	8b 4a e8	 mov	 ecx, DWORD PTR [edx-24]
  0000a	33 c8		 xor	 ecx, eax
  0000c	e8 00 00 00 00	 call	 @__security_check_cookie@4
  00011	b8 00 00 00 00	 mov	 eax, OFFSET __ehfuncinfo$??$_Uninit_move@PAUtagShopItemExtraInfo@ioShopItemExtraInfoManager@@PAU12@V?$allocator@UtagShopItemExtraInfo@ioShopItemExtraInfoManager@@@std@@U12@@std@@YAPAUtagShopItemExtraInfo@ioShopItemExtraInfoManager@@PAU12@00AAV?$allocator@UtagShopItemExtraInfo@ioShopItemExtraInfoManager@@@0@0U_Nonscalar_ptr_iterator_tag@0@@Z
  00016	e9 00 00 00 00	 jmp	 ___CxxFrameHandler3
text$x	ENDS
??$_Uninit_move@PAUtagShopItemExtraInfo@ioShopItemExtraInfoManager@@PAU12@V?$allocator@UtagShopItemExtraInfo@ioShopItemExtraInfoManager@@@std@@U12@@std@@YAPAUtagShopItemExtraInfo@ioShopItemExtraInfoManager@@PAU12@00AAV?$allocator@UtagShopItemExtraInfo@ioShopItemExtraInfoManager@@@0@0U_Nonscalar_ptr_iterator_tag@0@@Z ENDP ; std::_Uninit_move<ioShopItemExtraInfoManager::tagShopItemExtraInfo *,ioShopItemExtraInfoManager::tagShopItemExtraInfo *,std::allocator<ioShopItemExtraInfoManager::tagShopItemExtraInfo>,ioShopItemExtraInfoManager::tagShopItemExtraInfo>
PUBLIC	??$_Destroy_range@V?$allocator@UtagShopItemExtraInfo@ioShopItemExtraInfoManager@@@std@@@std@@YAXPAUtagShopItemExtraInfo@ioShopItemExtraInfoManager@@0AAV?$allocator@UtagShopItemExtraInfo@ioShopItemExtraInfoManager@@@0@@Z ; std::_Destroy_range<std::allocator<ioShopItemExtraInfoManager::tagShopItemExtraInfo> >
; Function compile flags: /Ogsp
; File c:\program files (x86)\microsoft visual studio 10.0\vc\include\xmemory
;	COMDAT ??$_Destroy_range@V?$allocator@UtagShopItemExtraInfo@ioShopItemExtraInfoManager@@@std@@@std@@YAXPAUtagShopItemExtraInfo@ioShopItemExtraInfoManager@@0AAV?$allocator@UtagShopItemExtraInfo@ioShopItemExtraInfoManager@@@0@@Z
_TEXT	SEGMENT
__First$ = 8						; size = 4
__Last$ = 12						; size = 4
__Al$ = 16						; size = 4
??$_Destroy_range@V?$allocator@UtagShopItemExtraInfo@ioShopItemExtraInfoManager@@@std@@@std@@YAXPAUtagShopItemExtraInfo@ioShopItemExtraInfoManager@@0AAV?$allocator@UtagShopItemExtraInfo@ioShopItemExtraInfoManager@@@0@@Z PROC ; std::_Destroy_range<std::allocator<ioShopItemExtraInfoManager::tagShopItemExtraInfo> >, COMDAT

; 87   : 	{	// destroy [_First, _Last)

  00000	55		 push	 ebp
  00001	8b ec		 mov	 ebp, esp
  00003	56		 push	 esi

; 88   : 	_Destroy_range(_First, _Last, _Al, _Ptr_cat(_First, _Last));

  00004	8b 75 08	 mov	 esi, DWORD PTR __First$[ebp]
  00007	eb 0a		 jmp	 SHORT $LN21@Destroy_ra@4
$LL7@Destroy_ra@4:
  00009	8b ce		 mov	 ecx, esi
  0000b	e8 00 00 00 00	 call	 ??1tagShopItemExtraInfo@ioShopItemExtraInfoManager@@QAE@XZ
  00010	83 c6 3c	 add	 esi, 60			; 0000003cH
$LN21@Destroy_ra@4:
  00013	3b 75 0c	 cmp	 esi, DWORD PTR __Last$[ebp]
  00016	75 f1		 jne	 SHORT $LL7@Destroy_ra@4
  00018	5e		 pop	 esi

; 89   : 	}

  00019	5d		 pop	 ebp
  0001a	c3		 ret	 0
??$_Destroy_range@V?$allocator@UtagShopItemExtraInfo@ioShopItemExtraInfoManager@@@std@@@std@@YAXPAUtagShopItemExtraInfo@ioShopItemExtraInfoManager@@0AAV?$allocator@UtagShopItemExtraInfo@ioShopItemExtraInfoManager@@@0@@Z ENDP ; std::_Destroy_range<std::allocator<ioShopItemExtraInfoManager::tagShopItemExtraInfo> >
_TEXT	ENDS
PUBLIC	??$_Uninitialized_move@PAUtagShopItemExtraInfo@ioShopItemExtraInfoManager@@PAU12@V?$allocator@UtagShopItemExtraInfo@ioShopItemExtraInfoManager@@@std@@@std@@YAPAUtagShopItemExtraInfo@ioShopItemExtraInfoManager@@PAU12@00AAV?$allocator@UtagShopItemExtraInfo@ioShopItemExtraInfoManager@@@0@@Z ; std::_Uninitialized_move<ioShopItemExtraInfoManager::tagShopItemExtraInfo *,ioShopItemExtraInfoManager::tagShopItemExtraInfo *,std::allocator<ioShopItemExtraInfoManager::tagShopItemExtraInfo> >
; Function compile flags: /Ogsp
; File c:\program files (x86)\microsoft visual studio 10.0\vc\include\memory
;	COMDAT ??$_Uninitialized_move@PAUtagShopItemExtraInfo@ioShopItemExtraInfoManager@@PAU12@V?$allocator@UtagShopItemExtraInfo@ioShopItemExtraInfoManager@@@std@@@std@@YAPAUtagShopItemExtraInfo@ioShopItemExtraInfoManager@@PAU12@00AAV?$allocator@UtagShopItemExtraInfo@ioShopItemExtraInfoManager@@@0@@Z
_TEXT	SEGMENT
__Cat$515572 = -4					; size = 1
__First$ = 8						; size = 4
__Last$ = 12						; size = 4
__Dest$ = 16						; size = 4
__Al$ = 20						; size = 4
??$_Uninitialized_move@PAUtagShopItemExtraInfo@ioShopItemExtraInfoManager@@PAU12@V?$allocator@UtagShopItemExtraInfo@ioShopItemExtraInfoManager@@@std@@@std@@YAPAUtagShopItemExtraInfo@ioShopItemExtraInfoManager@@PAU12@00AAV?$allocator@UtagShopItemExtraInfo@ioShopItemExtraInfoManager@@@0@@Z PROC ; std::_Uninitialized_move<ioShopItemExtraInfoManager::tagShopItemExtraInfo *,ioShopItemExtraInfoManager::tagShopItemExtraInfo *,std::allocator<ioShopItemExtraInfoManager::tagShopItemExtraInfo> >, COMDAT

; 469  : 	{	// move [_First, _Last) to raw _Dest, using _Al

  00000	55		 push	 ebp
  00001	8b ec		 mov	 ebp, esp
  00003	51		 push	 ecx

; 470  : 	return (_Uninit_move(_First, _Last, _Dest, _Al,
; 471  : 		_Val_type(_First), _Ptr_cat(_First, _Dest)));

  00004	ff 75 fc	 push	 DWORD PTR __Cat$515572[ebp]
  00007	6a 00		 push	 0
  00009	ff 75 14	 push	 DWORD PTR __Al$[ebp]
  0000c	ff 75 10	 push	 DWORD PTR __Dest$[ebp]
  0000f	ff 75 0c	 push	 DWORD PTR __Last$[ebp]
  00012	ff 75 08	 push	 DWORD PTR __First$[ebp]
  00015	e8 00 00 00 00	 call	 ??$_Uninit_move@PAUtagShopItemExtraInfo@ioShopItemExtraInfoManager@@PAU12@V?$allocator@UtagShopItemExtraInfo@ioShopItemExtraInfoManager@@@std@@U12@@std@@YAPAUtagShopItemExtraInfo@ioShopItemExtraInfoManager@@PAU12@00AAV?$allocator@UtagShopItemExtraInfo@ioShopItemExtraInfoManager@@@0@0U_Nonscalar_ptr_iterator_tag@0@@Z ; std::_Uninit_move<ioShopItemExtraInfoManager::tagShopItemExtraInfo *,ioShopItemExtraInfoManager::tagShopItemExtraInfo *,std::allocator<ioShopItemExtraInfoManager::tagShopItemExtraInfo>,ioShopItemExtraInfoManager::tagShopItemExtraInfo>
  0001a	83 c4 18	 add	 esp, 24			; 00000018H

; 472  : 	}

  0001d	c9		 leave
  0001e	c3		 ret	 0
??$_Uninitialized_move@PAUtagShopItemExtraInfo@ioShopItemExtraInfoManager@@PAU12@V?$allocator@UtagShopItemExtraInfo@ioShopItemExtraInfoManager@@@std@@@std@@YAPAUtagShopItemExtraInfo@ioShopItemExtraInfoManager@@PAU12@00AAV?$allocator@UtagShopItemExtraInfo@ioShopItemExtraInfoManager@@@0@@Z ENDP ; std::_Uninitialized_move<ioShopItemExtraInfoManager::tagShopItemExtraInfo *,ioShopItemExtraInfoManager::tagShopItemExtraInfo *,std::allocator<ioShopItemExtraInfoManager::tagShopItemExtraInfo> >
_TEXT	ENDS
PUBLIC	?_Destroy@?$vector@UtagShopItemExtraInfo@ioShopItemExtraInfoManager@@V?$allocator@UtagShopItemExtraInfo@ioShopItemExtraInfoManager@@@std@@@std@@IAEXPAUtagShopItemExtraInfo@ioShopItemExtraInfoManager@@0@Z ; std::vector<ioShopItemExtraInfoManager::tagShopItemExtraInfo,std::allocator<ioShopItemExtraInfoManager::tagShopItemExtraInfo> >::_Destroy
; Function compile flags: /Ogsp
; File c:\program files (x86)\microsoft visual studio 10.0\vc\include\vector
;	COMDAT ?_Destroy@?$vector@UtagShopItemExtraInfo@ioShopItemExtraInfoManager@@V?$allocator@UtagShopItemExtraInfo@ioShopItemExtraInfoManager@@@std@@@std@@IAEXPAUtagShopItemExtraInfo@ioShopItemExtraInfoManager@@0@Z
_TEXT	SEGMENT
__First$ = 8						; size = 4
__Last$ = 12						; size = 4
?_Destroy@?$vector@UtagShopItemExtraInfo@ioShopItemExtraInfoManager@@V?$allocator@UtagShopItemExtraInfo@ioShopItemExtraInfoManager@@@std@@@std@@IAEXPAUtagShopItemExtraInfo@ioShopItemExtraInfoManager@@0@Z PROC ; std::vector<ioShopItemExtraInfoManager::tagShopItemExtraInfo,std::allocator<ioShopItemExtraInfoManager::tagShopItemExtraInfo> >::_Destroy, COMDAT
; _this$ = ecx

; 1269 : 		{	// destroy [_First, _Last) using allocator

  00000	55		 push	 ebp
  00001	8b ec		 mov	 ebp, esp
  00003	56		 push	 esi

; 1270 : 		_Destroy_range(_First, _Last, this->_Alval);

  00004	8b 75 08	 mov	 esi, DWORD PTR __First$[ebp]
  00007	eb 0a		 jmp	 SHORT $LN23@Destroy@2
$LL9@Destroy@2:
  00009	8b ce		 mov	 ecx, esi
  0000b	e8 00 00 00 00	 call	 ??1tagShopItemExtraInfo@ioShopItemExtraInfoManager@@QAE@XZ
  00010	83 c6 3c	 add	 esi, 60			; 0000003cH
$LN23@Destroy@2:
  00013	3b 75 0c	 cmp	 esi, DWORD PTR __Last$[ebp]
  00016	75 f1		 jne	 SHORT $LL9@Destroy@2
  00018	5e		 pop	 esi

; 1271 : 		}

  00019	5d		 pop	 ebp
  0001a	c2 08 00	 ret	 8
?_Destroy@?$vector@UtagShopItemExtraInfo@ioShopItemExtraInfoManager@@V?$allocator@UtagShopItemExtraInfo@ioShopItemExtraInfoManager@@@std@@@std@@IAEXPAUtagShopItemExtraInfo@ioShopItemExtraInfoManager@@0@Z ENDP ; std::vector<ioShopItemExtraInfoManager::tagShopItemExtraInfo,std::allocator<ioShopItemExtraInfoManager::tagShopItemExtraInfo> >::_Destroy
_TEXT	ENDS
PUBLIC	??$_Umove@PAUtagShopItemExtraInfo@ioShopItemExtraInfoManager@@@?$vector@UtagShopItemExtraInfo@ioShopItemExtraInfoManager@@V?$allocator@UtagShopItemExtraInfo@ioShopItemExtraInfoManager@@@std@@@std@@IAEPAUtagShopItemExtraInfo@ioShopItemExtraInfoManager@@PAU23@00@Z ; std::vector<ioShopItemExtraInfoManager::tagShopItemExtraInfo,std::allocator<ioShopItemExtraInfoManager::tagShopItemExtraInfo> >::_Umove<ioShopItemExtraInfoManager::tagShopItemExtraInfo *>
; Function compile flags: /Ogsp
;	COMDAT ??$_Umove@PAUtagShopItemExtraInfo@ioShopItemExtraInfoManager@@@?$vector@UtagShopItemExtraInfo@ioShopItemExtraInfoManager@@V?$allocator@UtagShopItemExtraInfo@ioShopItemExtraInfoManager@@@std@@@std@@IAEPAUtagShopItemExtraInfo@ioShopItemExtraInfoManager@@PAU23@00@Z
_TEXT	SEGMENT
__First$ = 8						; size = 4
__Last$ = 12						; size = 4
__Ptr$ = 16						; size = 4
??$_Umove@PAUtagShopItemExtraInfo@ioShopItemExtraInfoManager@@@?$vector@UtagShopItemExtraInfo@ioShopItemExtraInfoManager@@V?$allocator@UtagShopItemExtraInfo@ioShopItemExtraInfoManager@@@std@@@std@@IAEPAUtagShopItemExtraInfo@ioShopItemExtraInfoManager@@PAU23@00@Z PROC ; std::vector<ioShopItemExtraInfoManager::tagShopItemExtraInfo,std::allocator<ioShopItemExtraInfoManager::tagShopItemExtraInfo> >::_Umove<ioShopItemExtraInfoManager::tagShopItemExtraInfo *>, COMDAT
; _this$ = ecx

; 1322 : 		pointer _Umove(_Iter _First, _Iter _Last, pointer _Ptr)

  00000	55		 push	 ebp
  00001	8b ec		 mov	 ebp, esp

; 1323 : 		{	// move initializing [_First, _Last), using allocator
; 1324 : 		return (_Uninitialized_move(_First, _Last,
; 1325 : 			_Ptr, this->_Alval));

  00003	83 c1 0c	 add	 ecx, 12			; 0000000cH
  00006	51		 push	 ecx
  00007	ff 75 10	 push	 DWORD PTR __Ptr$[ebp]
  0000a	ff 75 0c	 push	 DWORD PTR __Last$[ebp]
  0000d	ff 75 08	 push	 DWORD PTR __First$[ebp]
  00010	e8 00 00 00 00	 call	 ??$_Uninitialized_move@PAUtagShopItemExtraInfo@ioShopItemExtraInfoManager@@PAU12@V?$allocator@UtagShopItemExtraInfo@ioShopItemExtraInfoManager@@@std@@@std@@YAPAUtagShopItemExtraInfo@ioShopItemExtraInfoManager@@PAU12@00AAV?$allocator@UtagShopItemExtraInfo@ioShopItemExtraInfoManager@@@0@@Z ; std::_Uninitialized_move<ioShopItemExtraInfoManager::tagShopItemExtraInfo *,ioShopItemExtraInfoManager::tagShopItemExtraInfo *,std::allocator<ioShopItemExtraInfoManager::tagShopItemExtraInfo> >
  00015	83 c4 10	 add	 esp, 16			; 00000010H

; 1326 : 		}

  00018	5d		 pop	 ebp
  00019	c2 0c 00	 ret	 12			; 0000000cH
??$_Umove@PAUtagShopItemExtraInfo@ioShopItemExtraInfoManager@@@?$vector@UtagShopItemExtraInfo@ioShopItemExtraInfoManager@@V?$allocator@UtagShopItemExtraInfo@ioShopItemExtraInfoManager@@@std@@@std@@IAEPAUtagShopItemExtraInfo@ioShopItemExtraInfoManager@@PAU23@00@Z ENDP ; std::vector<ioShopItemExtraInfoManager::tagShopItemExtraInfo,std::allocator<ioShopItemExtraInfoManager::tagShopItemExtraInfo> >::_Umove<ioShopItemExtraInfoManager::tagShopItemExtraInfo *>
_TEXT	ENDS
PUBLIC	?erase@?$vector@UtagShopItemExtraInfo@ioShopItemExtraInfoManager@@V?$allocator@UtagShopItemExtraInfo@ioShopItemExtraInfoManager@@@std@@@std@@QAE?AV?$_Vector_iterator@V?$_Vector_val@UtagShopItemExtraInfo@ioShopItemExtraInfoManager@@V?$allocator@UtagShopItemExtraInfo@ioShopItemExtraInfoManager@@@std@@@std@@@2@V?$_Vector_const_iterator@V?$_Vector_val@UtagShopItemExtraInfo@ioShopItemExtraInfoManager@@V?$allocator@UtagShopItemExtraInfo@ioShopItemExtraInfoManager@@@std@@@std@@@2@0@Z ; std::vector<ioShopItemExtraInfoManager::tagShopItemExtraInfo,std::allocator<ioShopItemExtraInfoManager::tagShopItemExtraInfo> >::erase
; Function compile flags: /Ogsp
;	COMDAT ?erase@?$vector@UtagShopItemExtraInfo@ioShopItemExtraInfoManager@@V?$allocator@UtagShopItemExtraInfo@ioShopItemExtraInfoManager@@@std@@@std@@QAE?AV?$_Vector_iterator@V?$_Vector_val@UtagShopItemExtraInfo@ioShopItemExtraInfoManager@@V?$allocator@UtagShopItemExtraInfo@ioShopItemExtraInfoManager@@@std@@@std@@@2@V?$_Vector_const_iterator@V?$_Vector_val@UtagShopItemExtraInfo@ioShopItemExtraInfoManager@@V?$allocator@UtagShopItemExtraInfo@ioShopItemExtraInfoManager@@@std@@@std@@@2@0@Z
_TEXT	SEGMENT
$T515784 = -4						; size = 4
___$ReturnUdt$ = 8					; size = 4
__First_arg$ = 12					; size = 4
__Cat$515728 = 16					; size = 1
__Last_arg$ = 16					; size = 4
?erase@?$vector@UtagShopItemExtraInfo@ioShopItemExtraInfoManager@@V?$allocator@UtagShopItemExtraInfo@ioShopItemExtraInfoManager@@@std@@@std@@QAE?AV?$_Vector_iterator@V?$_Vector_val@UtagShopItemExtraInfo@ioShopItemExtraInfoManager@@V?$allocator@UtagShopItemExtraInfo@ioShopItemExtraInfoManager@@@std@@@std@@@2@V?$_Vector_const_iterator@V?$_Vector_val@UtagShopItemExtraInfo@ioShopItemExtraInfoManager@@V?$allocator@UtagShopItemExtraInfo@ioShopItemExtraInfoManager@@@std@@@std@@@2@0@Z PROC ; std::vector<ioShopItemExtraInfoManager::tagShopItemExtraInfo,std::allocator<ioShopItemExtraInfoManager::tagShopItemExtraInfo> >::erase, COMDAT
; _this$ = ecx

; 1190 : 		{	// erase [_First, _Last)

  00000	55		 push	 ebp
  00001	8b ec		 mov	 ebp, esp
  00003	51		 push	 ecx

; 1191 : 		iterator _First = _Make_iter(_First_arg);

  00004	8b 45 08	 mov	 eax, DWORD PTR ___$ReturnUdt$[ebp]
  00007	56		 push	 esi
  00008	8b f1		 mov	 esi, ecx
  0000a	8b 4d 0c	 mov	 ecx, DWORD PTR __First_arg$[ebp]
  0000d	89 08		 mov	 DWORD PTR [eax], ecx

; 1192 : 		iterator _Last = _Make_iter(_Last_arg);
; 1193 : 
; 1194 : 		if (_First != _Last)

  0000f	3b 4d 10	 cmp	 ecx, DWORD PTR __Last_arg$[ebp]
  00012	74 37		 je	 SHORT $LN1@erase@3

; 1195 : 			{	// worth doing, copy down over hole
; 1196 :  #if _ITERATOR_DEBUG_LEVEL == 2
; 1197 : 			if (_Last < _First || _VICONT(_First) != this
; 1198 : 				|| _VIPTR(_First) < this->_Myfirst
; 1199 : 				|| this->_Mylast < _VIPTR(_Last))
; 1200 : 				_DEBUG_ERROR("vector erase iterator outside range");
; 1201 : 			pointer _Ptr = _Move(_VIPTR(_Last), this->_Mylast,
; 1202 : 				_VIPTR(_First));
; 1203 : 			_Orphan_range(_VIPTR(_First), this->_Mylast);
; 1204 : 
; 1205 :  #else /* _ITERATOR_DEBUG_LEVEL == 2 */
; 1206 : 			pointer _Ptr = _Move(_VIPTR(_Last), this->_Mylast,
; 1207 : 				_VIPTR(_First));

  00014	8b 46 04	 mov	 eax, DWORD PTR [esi+4]
  00017	53		 push	 ebx
  00018	57		 push	 edi
  00019	ff 75 10	 push	 DWORD PTR __Cat$515728[ebp]
  0001c	51		 push	 ecx
  0001d	50		 push	 eax
  0001e	ff 75 10	 push	 DWORD PTR __Last_arg$[ebp]
  00021	e8 00 00 00 00	 call	 ??$_Move@PAUtagShopItemExtraInfo@ioShopItemExtraInfoManager@@PAU12@@std@@YAPAUtagShopItemExtraInfo@ioShopItemExtraInfoManager@@PAU12@00U_Nonscalar_ptr_iterator_tag@0@@Z ; std::_Move<ioShopItemExtraInfoManager::tagShopItemExtraInfo *,ioShopItemExtraInfoManager::tagShopItemExtraInfo *>

; 1208 :  #endif /* _ITERATOR_DEBUG_LEVEL == 2 */
; 1209 : 
; 1210 : 			_Destroy(_Ptr, this->_Mylast);

  00026	8b 7e 04	 mov	 edi, DWORD PTR [esi+4]
  00029	8b d8		 mov	 ebx, eax
  0002b	83 c4 10	 add	 esp, 16			; 00000010H
  0002e	89 5d fc	 mov	 DWORD PTR $T515784[ebp], ebx
  00031	3b df		 cmp	 ebx, edi
  00033	74 11		 je	 SHORT $LN36@erase@3
$LL52@erase@3:
  00035	8b 4d fc	 mov	 ecx, DWORD PTR $T515784[ebp]
  00038	e8 00 00 00 00	 call	 ??1tagShopItemExtraInfo@ioShopItemExtraInfoManager@@QAE@XZ
  0003d	83 45 fc 3c	 add	 DWORD PTR $T515784[ebp], 60 ; 0000003cH
  00041	39 7d fc	 cmp	 DWORD PTR $T515784[ebp], edi
  00044	75 ef		 jne	 SHORT $LL52@erase@3
$LN36@erase@3:

; 1211 : 			this->_Mylast = _Ptr;

  00046	5f		 pop	 edi
  00047	89 5e 04	 mov	 DWORD PTR [esi+4], ebx
  0004a	5b		 pop	 ebx
$LN1@erase@3:

; 1212 : 			}
; 1213 : 		return (_First);

  0004b	8b 45 08	 mov	 eax, DWORD PTR ___$ReturnUdt$[ebp]
  0004e	5e		 pop	 esi

; 1214 : 		}

  0004f	c9		 leave
  00050	c2 0c 00	 ret	 12			; 0000000cH
?erase@?$vector@UtagShopItemExtraInfo@ioShopItemExtraInfoManager@@V?$allocator@UtagShopItemExtraInfo@ioShopItemExtraInfoManager@@@std@@@std@@QAE?AV?$_Vector_iterator@V?$_Vector_val@UtagShopItemExtraInfo@ioShopItemExtraInfoManager@@V?$allocator@UtagShopItemExtraInfo@ioShopItemExtraInfoManager@@@std@@@std@@@2@V?$_Vector_const_iterator@V?$_Vector_val@UtagShopItemExtraInfo@ioShopItemExtraInfoManager@@V?$allocator@UtagShopItemExtraInfo@ioShopItemExtraInfoManager@@@std@@@std@@@2@0@Z ENDP ; std::vector<ioShopItemExtraInfoManager::tagShopItemExtraInfo,std::allocator<ioShopItemExtraInfoManager::tagShopItemExtraInfo> >::erase
_TEXT	ENDS
PUBLIC	?_Tidy@?$vector@UtagShopItemExtraInfo@ioShopItemExtraInfoManager@@V?$allocator@UtagShopItemExtraInfo@ioShopItemExtraInfoManager@@@std@@@std@@IAEXXZ ; std::vector<ioShopItemExtraInfoManager::tagShopItemExtraInfo,std::allocator<ioShopItemExtraInfoManager::tagShopItemExtraInfo> >::_Tidy
; Function compile flags: /Ogsp
;	COMDAT ?_Tidy@?$vector@UtagShopItemExtraInfo@ioShopItemExtraInfoManager@@V?$allocator@UtagShopItemExtraInfo@ioShopItemExtraInfoManager@@@std@@@std@@IAEXXZ
_TEXT	SEGMENT
?_Tidy@?$vector@UtagShopItemExtraInfo@ioShopItemExtraInfoManager@@V?$allocator@UtagShopItemExtraInfo@ioShopItemExtraInfoManager@@@std@@@std@@IAEXXZ PROC ; std::vector<ioShopItemExtraInfoManager::tagShopItemExtraInfo,std::allocator<ioShopItemExtraInfoManager::tagShopItemExtraInfo> >::_Tidy, COMDAT
; _this$ = ecx

; 1301 : 		{	// free all storage

  00000	56		 push	 esi
  00001	8b f1		 mov	 esi, ecx

; 1302 : 		if (this->_Myfirst != 0)

  00003	83 3e 00	 cmp	 DWORD PTR [esi], 0
  00006	74 27		 je	 SHORT $LN24@Tidy@3

; 1303 : 			{	// something to free, destroy and deallocate it
; 1304 : 			this->_Orphan_all();

  00008	53		 push	 ebx
  00009	57		 push	 edi
  0000a	ff 15 00 00 00
	00		 call	 DWORD PTR __imp_?_Orphan_all@_Container_base0@std@@QAEXXZ

; 1305 : 			_Destroy(this->_Myfirst, this->_Mylast);

  00010	8b 5e 04	 mov	 ebx, DWORD PTR [esi+4]
  00013	8b 3e		 mov	 edi, DWORD PTR [esi]
  00015	eb 0a		 jmp	 SHORT $LN28@Tidy@3
$LL12@Tidy@3:
  00017	8b cf		 mov	 ecx, edi
  00019	e8 00 00 00 00	 call	 ??1tagShopItemExtraInfo@ioShopItemExtraInfoManager@@QAE@XZ
  0001e	83 c7 3c	 add	 edi, 60			; 0000003cH
$LN28@Tidy@3:
  00021	3b fb		 cmp	 edi, ebx
  00023	75 f2		 jne	 SHORT $LL12@Tidy@3

; 1306 : 			this->_Alval.deallocate(this->_Myfirst,
; 1307 : 				this->_Myend - this->_Myfirst);

  00025	ff 36		 push	 DWORD PTR [esi]
  00027	e8 00 00 00 00	 call	 ??3@YAXPAX@Z		; operator delete
  0002c	59		 pop	 ecx
  0002d	5f		 pop	 edi
  0002e	5b		 pop	 ebx
$LN24@Tidy@3:

; 1308 : 			}
; 1309 : 		this->_Myfirst = 0;

  0002f	33 c0		 xor	 eax, eax
  00031	89 06		 mov	 DWORD PTR [esi], eax

; 1310 : 		this->_Mylast = 0;

  00033	89 46 04	 mov	 DWORD PTR [esi+4], eax

; 1311 : 		this->_Myend = 0;

  00036	89 46 08	 mov	 DWORD PTR [esi+8], eax
  00039	5e		 pop	 esi

; 1312 : 		}

  0003a	c3		 ret	 0
?_Tidy@?$vector@UtagShopItemExtraInfo@ioShopItemExtraInfoManager@@V?$allocator@UtagShopItemExtraInfo@ioShopItemExtraInfoManager@@@std@@@std@@IAEXXZ ENDP ; std::vector<ioShopItemExtraInfoManager::tagShopItemExtraInfo,std::allocator<ioShopItemExtraInfoManager::tagShopItemExtraInfo> >::_Tidy
_TEXT	ENDS
PUBLIC	?reserve@?$vector@UtagShopItemExtraInfo@ioShopItemExtraInfoManager@@V?$allocator@UtagShopItemExtraInfo@ioShopItemExtraInfoManager@@@std@@@std@@QAEXI@Z ; std::vector<ioShopItemExtraInfoManager::tagShopItemExtraInfo,std::allocator<ioShopItemExtraInfoManager::tagShopItemExtraInfo> >::reserve
;	COMDAT xdata$x
; File c:\program files (x86)\microsoft visual studio 10.0\vc\include\xmemory
xdata$x	SEGMENT
__catchsym$?reserve@?$vector@UtagShopItemExtraInfo@ioShopItemExtraInfoManager@@V?$allocator@UtagShopItemExtraInfo@ioShopItemExtraInfoManager@@@std@@@std@@QAEXI@Z$2 DD 040H
	DD	00H
	DD	00H
	DD	FLAT:__catch$?reserve@?$vector@UtagShopItemExtraInfo@ioShopItemExtraInfoManager@@V?$allocator@UtagShopItemExtraInfo@ioShopItemExtraInfoManager@@@std@@@std@@QAEXI@Z$0
__unwindtable$?reserve@?$vector@UtagShopItemExtraInfo@ioShopItemExtraInfoManager@@V?$allocator@UtagShopItemExtraInfo@ioShopItemExtraInfoManager@@@std@@@std@@QAEXI@Z DD 0ffffffffH
	DD	00H
	DD	0ffffffffH
	DD	00H
__tryblocktable$?reserve@?$vector@UtagShopItemExtraInfo@ioShopItemExtraInfoManager@@V?$allocator@UtagShopItemExtraInfo@ioShopItemExtraInfoManager@@@std@@@std@@QAEXI@Z DD 00H
	DD	00H
	DD	01H
	DD	01H
	DD	FLAT:__catchsym$?reserve@?$vector@UtagShopItemExtraInfo@ioShopItemExtraInfoManager@@V?$allocator@UtagShopItemExtraInfo@ioShopItemExtraInfoManager@@@std@@@std@@QAEXI@Z$2
__ehfuncinfo$?reserve@?$vector@UtagShopItemExtraInfo@ioShopItemExtraInfoManager@@V?$allocator@UtagShopItemExtraInfo@ioShopItemExtraInfoManager@@@std@@@std@@QAEXI@Z DD 019930522H
	DD	02H
	DD	FLAT:__unwindtable$?reserve@?$vector@UtagShopItemExtraInfo@ioShopItemExtraInfoManager@@V?$allocator@UtagShopItemExtraInfo@ioShopItemExtraInfoManager@@@std@@@std@@QAEXI@Z
	DD	01H
	DD	FLAT:__tryblocktable$?reserve@?$vector@UtagShopItemExtraInfo@ioShopItemExtraInfoManager@@V?$allocator@UtagShopItemExtraInfo@ioShopItemExtraInfoManager@@@std@@@std@@QAEXI@Z
	DD	2 DUP(00H)
	DD	00H
	DD	01H
; Function compile flags: /Ogsp
; File c:\program files (x86)\microsoft visual studio 10.0\vc\include\vector
xdata$x	ENDS
;	COMDAT ?reserve@?$vector@UtagShopItemExtraInfo@ioShopItemExtraInfoManager@@V?$allocator@UtagShopItemExtraInfo@ioShopItemExtraInfoManager@@@std@@@std@@QAEXI@Z
_TEXT	SEGMENT
__Ptr$507191 = -24					; size = 4
$T516030 = -20						; size = 4
__$EHRec$ = -16						; size = 16
__Count$ = 8						; size = 4
?reserve@?$vector@UtagShopItemExtraInfo@ioShopItemExtraInfoManager@@V?$allocator@UtagShopItemExtraInfo@ioShopItemExtraInfoManager@@@std@@@std@@QAEXI@Z PROC ; std::vector<ioShopItemExtraInfoManager::tagShopItemExtraInfo,std::allocator<ioShopItemExtraInfoManager::tagShopItemExtraInfo> >::reserve, COMDAT
; _this$ = ecx

; 746  : 		{	// determine new minimum length of allocated storage

  00000	6a 0c		 push	 12			; 0000000cH
  00002	b8 00 00 00 00	 mov	 eax, __ehhandler$?reserve@?$vector@UtagShopItemExtraInfo@ioShopItemExtraInfoManager@@V?$allocator@UtagShopItemExtraInfo@ioShopItemExtraInfoManager@@@std@@@std@@QAEXI@Z
  00007	e8 00 00 00 00	 call	 __EH_prolog3_catch
  0000c	8b f1		 mov	 esi, ecx

; 747  : 		if (max_size() < _Count)

  0000e	81 7d 08 44 44
	44 04		 cmp	 DWORD PTR __Count$[ebp], 71582788 ; 04444444H
  00015	76 0b		 jbe	 SHORT $LN5@reserve@3

; 748  : 			_Xlen();	// result too long

  00017	68 00 00 00 00	 push	 OFFSET ??_C@_0BD@OLBABOEK@vector?$DMT?$DO?5too?5long?$AA@
  0001c	ff 15 00 00 00
	00		 call	 DWORD PTR __imp_?_Xlength_error@std@@YAXPBD@Z
$LN59@reserve@3:
$LN5@reserve@3:

; 749  : 		else if (capacity() < _Count)

  00022	8b 46 08	 mov	 eax, DWORD PTR [esi+8]
  00025	2b 06		 sub	 eax, DWORD PTR [esi]
  00027	6a 3c		 push	 60			; 0000003cH
  00029	99		 cdq
  0002a	59		 pop	 ecx
  0002b	f7 f9		 idiv	 ecx
  0002d	3b 45 08	 cmp	 eax, DWORD PTR __Count$[ebp]
  00030	0f 83 80 00 00
	00		 jae	 $LN3@reserve@3

; 750  : 			{	// not enough room, reallocate
; 751  : 			pointer _Ptr = this->_Alval.allocate(_Count);

  00036	6a 00		 push	 0
  00038	ff 75 08	 push	 DWORD PTR __Count$[ebp]
  0003b	e8 00 00 00 00	 call	 ??$_Allocate@UtagShopItemExtraInfo@ioShopItemExtraInfoManager@@@std@@YAPAUtagShopItemExtraInfo@ioShopItemExtraInfoManager@@IPAU12@@Z ; std::_Allocate<ioShopItemExtraInfoManager::tagShopItemExtraInfo>

; 752  : 
; 753  : 			_TRY_BEGIN
; 754  : 			_Umove(this->_Myfirst, this->_Mylast, _Ptr);

  00040	8b 0e		 mov	 ecx, DWORD PTR [esi]
  00042	83 65 fc 00	 and	 DWORD PTR __$EHRec$[ebp+12], 0
  00046	8d 56 0c	 lea	 edx, DWORD PTR [esi+12]
  00049	52		 push	 edx
  0004a	89 45 e8	 mov	 DWORD PTR __Ptr$507191[ebp], eax
  0004d	ff 75 e8	 push	 DWORD PTR __Ptr$507191[ebp]
  00050	8b 46 04	 mov	 eax, DWORD PTR [esi+4]
  00053	50		 push	 eax
  00054	51		 push	 ecx
  00055	e8 00 00 00 00	 call	 ??$_Uninitialized_move@PAUtagShopItemExtraInfo@ioShopItemExtraInfoManager@@PAU12@V?$allocator@UtagShopItemExtraInfo@ioShopItemExtraInfoManager@@@std@@@std@@YAPAUtagShopItemExtraInfo@ioShopItemExtraInfoManager@@PAU12@00AAV?$allocator@UtagShopItemExtraInfo@ioShopItemExtraInfoManager@@@0@@Z ; std::_Uninitialized_move<ioShopItemExtraInfoManager::tagShopItemExtraInfo *,ioShopItemExtraInfoManager::tagShopItemExtraInfo *,std::allocator<ioShopItemExtraInfoManager::tagShopItemExtraInfo> >

; 758  : 			_CATCH_END
; 759  : 
; 760  : 			size_type _Size = size();

  0005a	8b 5e 04	 mov	 ebx, DWORD PTR [esi+4]
  0005d	8b 0e		 mov	 ecx, DWORD PTR [esi]
  0005f	83 c4 18	 add	 esp, 24			; 00000018H
  00062	8b c3		 mov	 eax, ebx
  00064	2b c1		 sub	 eax, ecx
  00066	6a 3c		 push	 60			; 0000003cH
  00068	99		 cdq
  00069	5f		 pop	 edi
  0006a	f7 ff		 idiv	 edi
  0006c	83 4d fc ff	 or	 DWORD PTR __$EHRec$[ebp+12], -1
  00070	8b f8		 mov	 edi, eax
  00072	85 c9		 test	 ecx, ecx
  00074	74 20		 je	 SHORT $LN51@reserve@3

; 761  : 			if (this->_Myfirst != 0)
; 762  : 				{	// destroy and deallocate old array
; 763  : 				_Destroy(this->_Myfirst, this->_Mylast);

  00076	89 4d ec	 mov	 DWORD PTR $T516030[ebp], ecx
  00079	3b cb		 cmp	 ecx, ebx
  0007b	74 11		 je	 SHORT $LN37@reserve@3
$LN39@reserve@3:
  0007d	8b 4d ec	 mov	 ecx, DWORD PTR $T516030[ebp]
  00080	e8 00 00 00 00	 call	 ??1tagShopItemExtraInfo@ioShopItemExtraInfoManager@@QAE@XZ
  00085	83 45 ec 3c	 add	 DWORD PTR $T516030[ebp], 60 ; 0000003cH
  00089	39 5d ec	 cmp	 DWORD PTR $T516030[ebp], ebx
  0008c	75 ef		 jne	 SHORT $LN39@reserve@3
$LN37@reserve@3:

; 764  : 				this->_Alval.deallocate(this->_Myfirst,
; 765  : 					this->_Myend - this->_Myfirst);

  0008e	ff 36		 push	 DWORD PTR [esi]
  00090	e8 00 00 00 00	 call	 ??3@YAXPAX@Z		; operator delete
  00095	59		 pop	 ecx
$LN51@reserve@3:

; 766  : 				}
; 767  : 
; 768  : 			this->_Orphan_all();

  00096	8b ce		 mov	 ecx, esi
  00098	ff 15 00 00 00
	00		 call	 DWORD PTR __imp_?_Orphan_all@_Container_base0@std@@QAEXXZ

; 769  : 			this->_Myend = _Ptr + _Count;
; 770  : 			this->_Mylast = _Ptr + _Size;

  0009e	6b ff 3c	 imul	 edi, 60			; 0000003cH
  000a1	8b 45 08	 mov	 eax, DWORD PTR __Count$[ebp]
  000a4	8b 4d e8	 mov	 ecx, DWORD PTR __Ptr$507191[ebp]
  000a7	6b c0 3c	 imul	 eax, 60			; 0000003cH
  000aa	03 c1		 add	 eax, ecx
  000ac	03 f9		 add	 edi, ecx
  000ae	89 46 08	 mov	 DWORD PTR [esi+8], eax
  000b1	89 7e 04	 mov	 DWORD PTR [esi+4], edi

; 771  : 			this->_Myfirst = _Ptr;

  000b4	89 0e		 mov	 DWORD PTR [esi], ecx
$LN3@reserve@3:

; 772  : 			}
; 773  : 		}

  000b6	e8 00 00 00 00	 call	 __EH_epilog3
  000bb	c2 04 00	 ret	 4
__catch$?reserve@?$vector@UtagShopItemExtraInfo@ioShopItemExtraInfoManager@@V?$allocator@UtagShopItemExtraInfo@ioShopItemExtraInfoManager@@@std@@@std@@QAEXI@Z$0:

; 755  : 			_CATCH_ALL
; 756  : 			this->_Alval.deallocate(_Ptr, _Count);

  000be	ff 75 e8	 push	 DWORD PTR __Ptr$507191[ebp]
  000c1	e8 00 00 00 00	 call	 ??3@YAXPAX@Z		; operator delete
  000c6	59		 pop	 ecx

; 757  : 			_RERAISE;

  000c7	6a 00		 push	 0
  000c9	6a 00		 push	 0
  000cb	e8 00 00 00 00	 call	 __CxxThrowException@8
$LN60@reserve@3:
$LN58@reserve@3:
  000d0	cc		 int	 3
_TEXT	ENDS
;	COMDAT text$x
text$x	SEGMENT
__ehhandler$?reserve@?$vector@UtagShopItemExtraInfo@ioShopItemExtraInfoManager@@V?$allocator@UtagShopItemExtraInfo@ioShopItemExtraInfoManager@@@std@@@std@@QAEXI@Z:
  00000	8b 54 24 08	 mov	 edx, DWORD PTR [esp+8]
  00004	8d 42 0c	 lea	 eax, DWORD PTR [edx+12]
  00007	8b 4a e4	 mov	 ecx, DWORD PTR [edx-28]
  0000a	33 c8		 xor	 ecx, eax
  0000c	e8 00 00 00 00	 call	 @__security_check_cookie@4
  00011	b8 00 00 00 00	 mov	 eax, OFFSET __ehfuncinfo$?reserve@?$vector@UtagShopItemExtraInfo@ioShopItemExtraInfoManager@@V?$allocator@UtagShopItemExtraInfo@ioShopItemExtraInfoManager@@@std@@@std@@QAEXI@Z
  00016	e9 00 00 00 00	 jmp	 ___CxxFrameHandler3
text$x	ENDS
?reserve@?$vector@UtagShopItemExtraInfo@ioShopItemExtraInfoManager@@V?$allocator@UtagShopItemExtraInfo@ioShopItemExtraInfoManager@@@std@@@std@@QAEXI@Z ENDP ; std::vector<ioShopItemExtraInfoManager::tagShopItemExtraInfo,std::allocator<ioShopItemExtraInfoManager::tagShopItemExtraInfo> >::reserve
PUBLIC	??1?$vector@UtagShopItemExtraInfo@ioShopItemExtraInfoManager@@V?$allocator@UtagShopItemExtraInfo@ioShopItemExtraInfoManager@@@std@@@std@@QAE@XZ ; std::vector<ioShopItemExtraInfoManager::tagShopItemExtraInfo,std::allocator<ioShopItemExtraInfoManager::tagShopItemExtraInfo> >::~vector<ioShopItemExtraInfoManager::tagShopItemExtraInfo,std::allocator<ioShopItemExtraInfoManager::tagShopItemExtraInfo> >
; Function compile flags: /Ogsp
;	COMDAT ??1?$vector@UtagShopItemExtraInfo@ioShopItemExtraInfoManager@@V?$allocator@UtagShopItemExtraInfo@ioShopItemExtraInfoManager@@@std@@@std@@QAE@XZ
_TEXT	SEGMENT
??1?$vector@UtagShopItemExtraInfo@ioShopItemExtraInfoManager@@V?$allocator@UtagShopItemExtraInfo@ioShopItemExtraInfoManager@@@std@@@std@@QAE@XZ PROC ; std::vector<ioShopItemExtraInfoManager::tagShopItemExtraInfo,std::allocator<ioShopItemExtraInfoManager::tagShopItemExtraInfo> >::~vector<ioShopItemExtraInfoManager::tagShopItemExtraInfo,std::allocator<ioShopItemExtraInfoManager::tagShopItemExtraInfo> >, COMDAT
; _this$ = ecx

; 705  : 		_Tidy();

  00000	e9 00 00 00 00	 jmp	 ?_Tidy@?$vector@UtagShopItemExtraInfo@ioShopItemExtraInfoManager@@V?$allocator@UtagShopItemExtraInfo@ioShopItemExtraInfoManager@@@std@@@std@@IAEXXZ ; std::vector<ioShopItemExtraInfoManager::tagShopItemExtraInfo,std::allocator<ioShopItemExtraInfoManager::tagShopItemExtraInfo> >::_Tidy
??1?$vector@UtagShopItemExtraInfo@ioShopItemExtraInfoManager@@V?$allocator@UtagShopItemExtraInfo@ioShopItemExtraInfoManager@@@std@@@std@@QAE@XZ ENDP ; std::vector<ioShopItemExtraInfoManager::tagShopItemExtraInfo,std::allocator<ioShopItemExtraInfoManager::tagShopItemExtraInfo> >::~vector<ioShopItemExtraInfoManager::tagShopItemExtraInfo,std::allocator<ioShopItemExtraInfoManager::tagShopItemExtraInfo> >
_TEXT	ENDS
PUBLIC	?clear@?$vector@UtagShopItemExtraInfo@ioShopItemExtraInfoManager@@V?$allocator@UtagShopItemExtraInfo@ioShopItemExtraInfoManager@@@std@@@std@@QAEXXZ ; std::vector<ioShopItemExtraInfoManager::tagShopItemExtraInfo,std::allocator<ioShopItemExtraInfoManager::tagShopItemExtraInfo> >::clear
; Function compile flags: /Ogsp
;	COMDAT ?clear@?$vector@UtagShopItemExtraInfo@ioShopItemExtraInfoManager@@V?$allocator@UtagShopItemExtraInfo@ioShopItemExtraInfoManager@@@std@@@std@@QAEXXZ
_TEXT	SEGMENT
$T516108 = -4						; size = 4
?clear@?$vector@UtagShopItemExtraInfo@ioShopItemExtraInfoManager@@V?$allocator@UtagShopItemExtraInfo@ioShopItemExtraInfoManager@@@std@@@std@@QAEXXZ PROC ; std::vector<ioShopItemExtraInfoManager::tagShopItemExtraInfo,std::allocator<ioShopItemExtraInfoManager::tagShopItemExtraInfo> >::clear, COMDAT
; _this$ = ecx

; 1217 : 		{	// erase all

  00000	55		 push	 ebp
  00001	8b ec		 mov	 ebp, esp
  00003	51		 push	 ecx

; 1218 : 		erase(begin(), end());

  00004	8b 41 04	 mov	 eax, DWORD PTR [ecx+4]
  00007	8b 11		 mov	 edx, DWORD PTR [ecx]
  00009	50		 push	 eax
  0000a	52		 push	 edx
  0000b	8d 45 fc	 lea	 eax, DWORD PTR $T516108[ebp]
  0000e	50		 push	 eax
  0000f	e8 00 00 00 00	 call	 ?erase@?$vector@UtagShopItemExtraInfo@ioShopItemExtraInfoManager@@V?$allocator@UtagShopItemExtraInfo@ioShopItemExtraInfoManager@@@std@@@std@@QAE?AV?$_Vector_iterator@V?$_Vector_val@UtagShopItemExtraInfo@ioShopItemExtraInfoManager@@V?$allocator@UtagShopItemExtraInfo@ioShopItemExtraInfoManager@@@std@@@std@@@2@V?$_Vector_const_iterator@V?$_Vector_val@UtagShopItemExtraInfo@ioShopItemExtraInfoManager@@V?$allocator@UtagShopItemExtraInfo@ioShopItemExtraInfoManager@@@std@@@std@@@2@0@Z ; std::vector<ioShopItemExtraInfoManager::tagShopItemExtraInfo,std::allocator<ioShopItemExtraInfoManager::tagShopItemExtraInfo> >::erase

; 1219 : 		}

  00014	c9		 leave
  00015	c3		 ret	 0
?clear@?$vector@UtagShopItemExtraInfo@ioShopItemExtraInfoManager@@V?$allocator@UtagShopItemExtraInfo@ioShopItemExtraInfoManager@@@std@@@std@@QAEXXZ ENDP ; std::vector<ioShopItemExtraInfoManager::tagShopItemExtraInfo,std::allocator<ioShopItemExtraInfoManager::tagShopItemExtraInfo> >::clear
_TEXT	ENDS
PUBLIC	?_Reserve@?$vector@UtagShopItemExtraInfo@ioShopItemExtraInfoManager@@V?$allocator@UtagShopItemExtraInfo@ioShopItemExtraInfoManager@@@std@@@std@@IAEXI@Z ; std::vector<ioShopItemExtraInfoManager::tagShopItemExtraInfo,std::allocator<ioShopItemExtraInfoManager::tagShopItemExtraInfo> >::_Reserve
; Function compile flags: /Ogsp
;	COMDAT ?_Reserve@?$vector@UtagShopItemExtraInfo@ioShopItemExtraInfoManager@@V?$allocator@UtagShopItemExtraInfo@ioShopItemExtraInfoManager@@@std@@@std@@IAEXI@Z
_TEXT	SEGMENT
__Count$ = 8						; size = 4
?_Reserve@?$vector@UtagShopItemExtraInfo@ioShopItemExtraInfoManager@@V?$allocator@UtagShopItemExtraInfo@ioShopItemExtraInfoManager@@@std@@@std@@IAEXI@Z PROC ; std::vector<ioShopItemExtraInfoManager::tagShopItemExtraInfo,std::allocator<ioShopItemExtraInfoManager::tagShopItemExtraInfo> >::_Reserve, COMDAT
; _this$ = ecx

; 1290 : 		{	// ensure room for _Count new elements, grow exponentially

  00000	55		 push	 ebp
  00001	8b ec		 mov	 ebp, esp
  00003	56		 push	 esi
  00004	8b f1		 mov	 esi, ecx

; 1291 : 		size_type _Size = size();

  00006	8b 0e		 mov	 ecx, DWORD PTR [esi]
  00008	8b 46 04	 mov	 eax, DWORD PTR [esi+4]
  0000b	2b c1		 sub	 eax, ecx
  0000d	57		 push	 edi
  0000e	99		 cdq
  0000f	6a 3c		 push	 60			; 0000003cH
  00011	5f		 pop	 edi
  00012	f7 ff		 idiv	 edi
  00014	8b f8		 mov	 edi, eax

; 1292 : 		if (max_size() - _Count < _Size)

  00016	b8 44 44 44 04	 mov	 eax, 71582788		; 04444444H
  0001b	2b 45 08	 sub	 eax, DWORD PTR __Count$[ebp]
  0001e	3b c7		 cmp	 eax, edi
  00020	73 0b		 jae	 SHORT $LN4@Reserve@3

; 1293 : 			_Xlen();

  00022	68 00 00 00 00	 push	 OFFSET ??_C@_0BD@OLBABOEK@vector?$DMT?$DO?5too?5long?$AA@
  00027	ff 15 00 00 00
	00		 call	 DWORD PTR __imp_?_Xlength_error@std@@YAXPBD@Z
$LN21@Reserve@3:
$LN4@Reserve@3:

; 1294 : 		else if ((_Size += _Count) <= capacity())

  0002d	8b 46 08	 mov	 eax, DWORD PTR [esi+8]
  00030	2b c1		 sub	 eax, ecx
  00032	6a 3c		 push	 60			; 0000003cH
  00034	99		 cdq
  00035	59		 pop	 ecx
  00036	f7 f9		 idiv	 ecx
  00038	03 7d 08	 add	 edi, DWORD PTR __Count$[ebp]
  0003b	3b f8		 cmp	 edi, eax
  0003d	76 10		 jbe	 SHORT $LN1@Reserve@3

; 1295 : 			;
; 1296 : 		else
; 1297 : 			reserve(_Grow_to(_Size));

  0003f	57		 push	 edi
  00040	8b ce		 mov	 ecx, esi
  00042	e8 00 00 00 00	 call	 ?_Grow_to@?$vector@UtagShopItemExtraInfo@ioShopItemExtraInfoManager@@V?$allocator@UtagShopItemExtraInfo@ioShopItemExtraInfoManager@@@std@@@std@@IBEII@Z ; std::vector<ioShopItemExtraInfoManager::tagShopItemExtraInfo,std::allocator<ioShopItemExtraInfoManager::tagShopItemExtraInfo> >::_Grow_to
  00047	50		 push	 eax
  00048	8b ce		 mov	 ecx, esi
  0004a	e8 00 00 00 00	 call	 ?reserve@?$vector@UtagShopItemExtraInfo@ioShopItemExtraInfoManager@@V?$allocator@UtagShopItemExtraInfo@ioShopItemExtraInfoManager@@@std@@@std@@QAEXI@Z ; std::vector<ioShopItemExtraInfoManager::tagShopItemExtraInfo,std::allocator<ioShopItemExtraInfoManager::tagShopItemExtraInfo> >::reserve
$LN1@Reserve@3:
  0004f	5f		 pop	 edi
  00050	5e		 pop	 esi

; 1298 : 		}

  00051	5d		 pop	 ebp
  00052	c2 04 00	 ret	 4
$LN20@Reserve@3:
?_Reserve@?$vector@UtagShopItemExtraInfo@ioShopItemExtraInfoManager@@V?$allocator@UtagShopItemExtraInfo@ioShopItemExtraInfoManager@@@std@@@std@@IAEXI@Z ENDP ; std::vector<ioShopItemExtraInfoManager::tagShopItemExtraInfo,std::allocator<ioShopItemExtraInfoManager::tagShopItemExtraInfo> >::_Reserve
_TEXT	ENDS
PUBLIC	?ClearData@ioShopItemExtraInfoManager@@QAEXXZ	; ioShopItemExtraInfoManager::ClearData
; Function compile flags: /Ogsp
; File d:\lost saga for developer\youtube\tutorial\source\src\lsclient\ioshopitemextrainfomanager.cpp
;	COMDAT ?ClearData@ioShopItemExtraInfoManager@@QAEXXZ
_TEXT	SEGMENT
$T516506 = -12						; size = 4
$T516425 = -12						; size = 4
$T516342 = -8						; size = 4
$T516259 = -4						; size = 4
?ClearData@ioShopItemExtraInfoManager@@QAEXXZ PROC	; ioShopItemExtraInfoManager::ClearData, COMDAT
; _this$ = ecx

; 26   : {

  00000	55		 push	 ebp
  00001	8b ec		 mov	 ebp, esp
  00003	83 ec 0c	 sub	 esp, 12			; 0000000cH
  00006	56		 push	 esi

; 27   : 	int nInfoDataCnt = (int)m_ShopItemExtraInfoData.size();

  00007	8d 71 04	 lea	 esi, DWORD PTR [ecx+4]
  0000a	8b 46 04	 mov	 eax, DWORD PTR [esi+4]
  0000d	2b 06		 sub	 eax, DWORD PTR [esi]
  0000f	6a 3c		 push	 60			; 0000003cH
  00011	99		 cdq
  00012	59		 pop	 ecx
  00013	f7 f9		 idiv	 ecx

; 28   : 	for ( int i=0; i<nInfoDataCnt; ++i )

  00015	85 c0		 test	 eax, eax
  00017	7e 50		 jle	 SHORT $LN1@ClearData

; 27   : 	int nInfoDataCnt = (int)m_ShopItemExtraInfoData.size();

  00019	53		 push	 ebx
  0001a	57		 push	 edi
  0001b	33 ff		 xor	 edi, edi
  0001d	8b d8		 mov	 ebx, eax
$LL3@ClearData:

; 29   : 	{
; 30   : 		m_ShopItemExtraInfoData[i].m_MachineList.clear();

  0001f	8b 06		 mov	 eax, DWORD PTR [esi]
  00021	8d 4c 07 1c	 lea	 ecx, DWORD PTR [edi+eax+28]
  00025	8b 41 04	 mov	 eax, DWORD PTR [ecx+4]
  00028	8b 11		 mov	 edx, DWORD PTR [ecx]
  0002a	50		 push	 eax
  0002b	52		 push	 edx
  0002c	8d 45 fc	 lea	 eax, DWORD PTR $T516259[ebp]
  0002f	50		 push	 eax
  00030	e8 00 00 00 00	 call	 ?erase@?$vector@HV?$allocator@H@std@@@std@@QAE?AV?$_Vector_iterator@V?$_Vector_val@HV?$allocator@H@std@@@std@@@2@V?$_Vector_const_iterator@V?$_Vector_val@HV?$allocator@H@std@@@std@@@2@0@Z ; std::vector<int,std::allocator<int> >::erase

; 31   : 		m_ShopItemExtraInfoData[i].m_SkillList.clear();

  00035	8b 06		 mov	 eax, DWORD PTR [esi]
  00037	8d 4c 07 2c	 lea	 ecx, DWORD PTR [edi+eax+44]
  0003b	8b 41 04	 mov	 eax, DWORD PTR [ecx+4]
  0003e	8b 11		 mov	 edx, DWORD PTR [ecx]
  00040	50		 push	 eax
  00041	52		 push	 edx
  00042	8d 45 f8	 lea	 eax, DWORD PTR $T516342[ebp]
  00045	50		 push	 eax
  00046	e8 00 00 00 00	 call	 ?erase@?$vector@HV?$allocator@H@std@@@std@@QAE?AV?$_Vector_iterator@V?$_Vector_val@HV?$allocator@H@std@@@std@@@2@V?$_Vector_const_iterator@V?$_Vector_val@HV?$allocator@H@std@@@std@@@2@0@Z ; std::vector<int,std::allocator<int> >::erase

; 32   : 		m_ShopItemExtraInfoData[i].m_ShopItemMovieInfoList.clear();

  0004b	8b 06		 mov	 eax, DWORD PTR [esi]
  0004d	8d 4c 07 0c	 lea	 ecx, DWORD PTR [edi+eax+12]
  00051	8b 41 04	 mov	 eax, DWORD PTR [ecx+4]
  00054	8b 11		 mov	 edx, DWORD PTR [ecx]
  00056	50		 push	 eax
  00057	52		 push	 edx
  00058	8d 45 f4	 lea	 eax, DWORD PTR $T516425[ebp]
  0005b	50		 push	 eax
  0005c	e8 00 00 00 00	 call	 ?erase@?$vector@UtagShopItemMovieInfo@ioShopItemExtraInfoManager@@V?$allocator@UtagShopItemMovieInfo@ioShopItemExtraInfoManager@@@std@@@std@@QAE?AV?$_Vector_iterator@V?$_Vector_val@UtagShopItemMovieInfo@ioShopItemExtraInfoManager@@V?$allocator@UtagShopItemMovieInfo@ioShopItemExtraInfoManager@@@std@@@std@@@2@V?$_Vector_const_iterator@V?$_Vector_val@UtagShopItemMovieInfo@ioShopItemExtraInfoManager@@V?$allocator@UtagShopItemMovieInfo@ioShopItemExtraInfoManager@@@std@@@std@@@2@0@Z ; std::vector<ioShopItemExtraInfoManager::tagShopItemMovieInfo,std::allocator<ioShopItemExtraInfoManager::tagShopItemMovieInfo> >::erase
  00061	83 c7 3c	 add	 edi, 60			; 0000003cH
  00064	4b		 dec	 ebx
  00065	75 b8		 jne	 SHORT $LL3@ClearData
  00067	5f		 pop	 edi
  00068	5b		 pop	 ebx
$LN1@ClearData:

; 33   : 	}
; 34   : 	m_ShopItemExtraInfoData.clear();

  00069	8b 46 04	 mov	 eax, DWORD PTR [esi+4]
  0006c	8b 0e		 mov	 ecx, DWORD PTR [esi]
  0006e	50		 push	 eax
  0006f	51		 push	 ecx
  00070	8d 45 f4	 lea	 eax, DWORD PTR $T516506[ebp]
  00073	50		 push	 eax
  00074	8b ce		 mov	 ecx, esi
  00076	e8 00 00 00 00	 call	 ?erase@?$vector@UtagShopItemExtraInfo@ioShopItemExtraInfoManager@@V?$allocator@UtagShopItemExtraInfo@ioShopItemExtraInfoManager@@@std@@@std@@QAE?AV?$_Vector_iterator@V?$_Vector_val@UtagShopItemExtraInfo@ioShopItemExtraInfoManager@@V?$allocator@UtagShopItemExtraInfo@ioShopItemExtraInfoManager@@@std@@@std@@@2@V?$_Vector_const_iterator@V?$_Vector_val@UtagShopItemExtraInfo@ioShopItemExtraInfoManager@@V?$allocator@UtagShopItemExtraInfo@ioShopItemExtraInfoManager@@@std@@@std@@@2@0@Z ; std::vector<ioShopItemExtraInfoManager::tagShopItemExtraInfo,std::allocator<ioShopItemExtraInfoManager::tagShopItemExtraInfo> >::erase
  0007b	5e		 pop	 esi

; 35   : }

  0007c	c9		 leave
  0007d	c3		 ret	 0
?ClearData@ioShopItemExtraInfoManager@@QAEXXZ ENDP	; ioShopItemExtraInfoManager::ClearData
_TEXT	ENDS
PUBLIC	?push_back@?$vector@UtagShopItemExtraInfo@ioShopItemExtraInfoManager@@V?$allocator@UtagShopItemExtraInfo@ioShopItemExtraInfoManager@@@std@@@std@@QAEXABUtagShopItemExtraInfo@ioShopItemExtraInfoManager@@@Z ; std::vector<ioShopItemExtraInfoManager::tagShopItemExtraInfo,std::allocator<ioShopItemExtraInfoManager::tagShopItemExtraInfo> >::push_back
; Function compile flags: /Ogsp
; File c:\program files (x86)\microsoft visual studio 10.0\vc\include\vector
;	COMDAT ?push_back@?$vector@UtagShopItemExtraInfo@ioShopItemExtraInfoManager@@V?$allocator@UtagShopItemExtraInfo@ioShopItemExtraInfoManager@@@std@@@std@@QAEXABUtagShopItemExtraInfo@ioShopItemExtraInfoManager@@@Z
_TEXT	SEGMENT
__Val$ = 8						; size = 4
?push_back@?$vector@UtagShopItemExtraInfo@ioShopItemExtraInfoManager@@V?$allocator@UtagShopItemExtraInfo@ioShopItemExtraInfoManager@@@std@@@std@@QAEXABUtagShopItemExtraInfo@ioShopItemExtraInfoManager@@@Z PROC ; std::vector<ioShopItemExtraInfoManager::tagShopItemExtraInfo,std::allocator<ioShopItemExtraInfoManager::tagShopItemExtraInfo> >::push_back, COMDAT
; _this$ = ecx

; 976  : 		{	// insert element at end

  00000	55		 push	 ebp
  00001	8b ec		 mov	 ebp, esp
  00003	56		 push	 esi
  00004	8b f1		 mov	 esi, ecx

; 977  : 		if (_Inside(_STD addressof(_Val)))

  00006	8b 4e 04	 mov	 ecx, DWORD PTR [esi+4]
  00009	57		 push	 edi
  0000a	8b 7d 08	 mov	 edi, DWORD PTR __Val$[ebp]
  0000d	3b f9		 cmp	 edi, ecx
  0000f	73 37		 jae	 SHORT $LN4@push_back@3
  00011	8b 16		 mov	 edx, DWORD PTR [esi]
  00013	3b d7		 cmp	 edx, edi
  00015	77 31		 ja	 SHORT $LN4@push_back@3

; 978  : 			{	// push back an element
; 979  : 			size_type _Idx = _STD addressof(_Val) - this->_Myfirst;

  00017	8b c7		 mov	 eax, edi
  00019	2b c2		 sub	 eax, edx
  0001b	6a 3c		 push	 60			; 0000003cH
  0001d	99		 cdq
  0001e	5f		 pop	 edi
  0001f	f7 ff		 idiv	 edi
  00021	8b f8		 mov	 edi, eax

; 980  : 			if (this->_Mylast == this->_Myend)

  00023	3b 4e 08	 cmp	 ecx, DWORD PTR [esi+8]
  00026	75 09		 jne	 SHORT $LN3@push_back@3

; 981  : 				_Reserve(1);

  00028	6a 01		 push	 1
  0002a	8b ce		 mov	 ecx, esi
  0002c	e8 00 00 00 00	 call	 ?_Reserve@?$vector@UtagShopItemExtraInfo@ioShopItemExtraInfoManager@@V?$allocator@UtagShopItemExtraInfo@ioShopItemExtraInfoManager@@@std@@@std@@IAEXI@Z ; std::vector<ioShopItemExtraInfoManager::tagShopItemExtraInfo,std::allocator<ioShopItemExtraInfoManager::tagShopItemExtraInfo> >::_Reserve
$LN3@push_back@3:

; 982  : 			_Orphan_range(this->_Mylast, this->_Mylast);
; 983  : 			_Cons_val(this->_Alval,
; 984  : 				this->_Mylast,
; 985  : 				this->_Myfirst[_Idx]);

  00031	6b ff 3c	 imul	 edi, 60			; 0000003cH
  00034	03 3e		 add	 edi, DWORD PTR [esi]
  00036	8d 46 0c	 lea	 eax, DWORD PTR [esi+12]
  00039	57		 push	 edi
  0003a	ff 76 04	 push	 DWORD PTR [esi+4]
  0003d	50		 push	 eax
  0003e	e8 00 00 00 00	 call	 ??$_Cons_val@V?$allocator@UtagShopItemExtraInfo@ioShopItemExtraInfoManager@@@std@@UtagShopItemExtraInfo@ioShopItemExtraInfoManager@@AAU34@@std@@YAXAAV?$allocator@UtagShopItemExtraInfo@ioShopItemExtraInfoManager@@@0@PAUtagShopItemExtraInfo@ioShopItemExtraInfoManager@@AAU23@@Z ; std::_Cons_val<std::allocator<ioShopItemExtraInfoManager::tagShopItemExtraInfo>,ioShopItemExtraInfoManager::tagShopItemExtraInfo,ioShopItemExtraInfoManager::tagShopItemExtraInfo &>
  00043	83 c4 0c	 add	 esp, 12			; 0000000cH

; 986  : 			++this->_Mylast;
; 987  : 			}
; 988  : 		else

  00046	eb 19		 jmp	 SHORT $LN26@push_back@3
$LN4@push_back@3:

; 989  : 			{	// push back a non-element
; 990  : 			if (this->_Mylast == this->_Myend)

  00048	3b 4e 08	 cmp	 ecx, DWORD PTR [esi+8]
  0004b	75 09		 jne	 SHORT $LN1@push_back@3

; 991  : 				_Reserve(1);

  0004d	6a 01		 push	 1
  0004f	8b ce		 mov	 ecx, esi
  00051	e8 00 00 00 00	 call	 ?_Reserve@?$vector@UtagShopItemExtraInfo@ioShopItemExtraInfoManager@@V?$allocator@UtagShopItemExtraInfo@ioShopItemExtraInfoManager@@@std@@@std@@IAEXI@Z ; std::vector<ioShopItemExtraInfoManager::tagShopItemExtraInfo,std::allocator<ioShopItemExtraInfoManager::tagShopItemExtraInfo> >::_Reserve
$LN1@push_back@3:

; 992  : 			_Orphan_range(this->_Mylast, this->_Mylast);
; 993  : 			_Cons_val(this->_Alval,
; 994  : 				this->_Mylast,
; 995  : 				_Val);

  00056	57		 push	 edi
  00057	ff 76 04	 push	 DWORD PTR [esi+4]
  0005a	e8 00 00 00 00	 call	 ??$_Construct@UtagShopItemExtraInfo@ioShopItemExtraInfoManager@@ABU12@@std@@YAXPAUtagShopItemExtraInfo@ioShopItemExtraInfoManager@@ABU12@@Z ; std::_Construct<ioShopItemExtraInfoManager::tagShopItemExtraInfo,ioShopItemExtraInfoManager::tagShopItemExtraInfo const &>
  0005f	59		 pop	 ecx
  00060	59		 pop	 ecx
$LN26@push_back@3:

; 996  : 			++this->_Mylast;

  00061	83 46 04 3c	 add	 DWORD PTR [esi+4], 60	; 0000003cH
  00065	5f		 pop	 edi
  00066	5e		 pop	 esi

; 997  : 			}
; 998  : 		}

  00067	5d		 pop	 ebp
  00068	c2 04 00	 ret	 4
?push_back@?$vector@UtagShopItemExtraInfo@ioShopItemExtraInfoManager@@V?$allocator@UtagShopItemExtraInfo@ioShopItemExtraInfoManager@@@std@@@std@@QAEXABUtagShopItemExtraInfo@ioShopItemExtraInfoManager@@@Z ENDP ; std::vector<ioShopItemExtraInfoManager::tagShopItemExtraInfo,std::allocator<ioShopItemExtraInfoManager::tagShopItemExtraInfo> >::push_back
_TEXT	ENDS
PUBLIC	??_7ioShopItemExtraInfoManager@@6B@		; ioShopItemExtraInfoManager::`vftable'
PUBLIC	??0ioShopItemExtraInfoManager@@QAE@XZ		; ioShopItemExtraInfoManager::ioShopItemExtraInfoManager
PUBLIC	??_R4ioShopItemExtraInfoManager@@6B@		; ioShopItemExtraInfoManager::`RTTI Complete Object Locator'
PUBLIC	??_R0?AVioShopItemExtraInfoManager@@@8		; ioShopItemExtraInfoManager `RTTI Type Descriptor'
PUBLIC	??_R3ioShopItemExtraInfoManager@@8		; ioShopItemExtraInfoManager::`RTTI Class Hierarchy Descriptor'
PUBLIC	??_R2ioShopItemExtraInfoManager@@8		; ioShopItemExtraInfoManager::`RTTI Base Class Array'
PUBLIC	??_R1A@?0A@EA@ioShopItemExtraInfoManager@@8	; ioShopItemExtraInfoManager::`RTTI Base Class Descriptor at (0,-1,0,64)'
PUBLIC	??_R13?0A@EA@?$Singleton@VioShopItemExtraInfoManager@@@@8 ; Singleton<ioShopItemExtraInfoManager>::`RTTI Base Class Descriptor at (4,-1,0,64)'
PUBLIC	??_R0?AV?$Singleton@VioShopItemExtraInfoManager@@@@@8 ; Singleton<ioShopItemExtraInfoManager> `RTTI Type Descriptor'
PUBLIC	??_R3?$Singleton@VioShopItemExtraInfoManager@@@@8 ; Singleton<ioShopItemExtraInfoManager>::`RTTI Class Hierarchy Descriptor'
PUBLIC	??_R2?$Singleton@VioShopItemExtraInfoManager@@@@8 ; Singleton<ioShopItemExtraInfoManager>::`RTTI Base Class Array'
PUBLIC	??_R1A@?0A@EA@?$Singleton@VioShopItemExtraInfoManager@@@@8 ; Singleton<ioShopItemExtraInfoManager>::`RTTI Base Class Descriptor at (0,-1,0,64)'
EXTRN	??_EioShopItemExtraInfoManager@@UAEPAXI@Z:PROC	; ioShopItemExtraInfoManager::`vector deleting destructor'
;	COMDAT ??_R1A@?0A@EA@?$Singleton@VioShopItemExtraInfoManager@@@@8
; File c:\program files (x86)\microsoft visual studio 10.0\vc\include\xmemory
rdata$r	SEGMENT
??_R1A@?0A@EA@?$Singleton@VioShopItemExtraInfoManager@@@@8 DD FLAT:??_R0?AV?$Singleton@VioShopItemExtraInfoManager@@@@@8 ; Singleton<ioShopItemExtraInfoManager>::`RTTI Base Class Descriptor at (0,-1,0,64)'
	DD	00H
	DD	00H
	DD	0ffffffffH
	DD	00H
	DD	040H
	DD	FLAT:??_R3?$Singleton@VioShopItemExtraInfoManager@@@@8
rdata$r	ENDS
;	COMDAT ??_R2?$Singleton@VioShopItemExtraInfoManager@@@@8
rdata$r	SEGMENT
??_R2?$Singleton@VioShopItemExtraInfoManager@@@@8 DD FLAT:??_R1A@?0A@EA@?$Singleton@VioShopItemExtraInfoManager@@@@8 ; Singleton<ioShopItemExtraInfoManager>::`RTTI Base Class Array'
rdata$r	ENDS
;	COMDAT ??_R3?$Singleton@VioShopItemExtraInfoManager@@@@8
rdata$r	SEGMENT
??_R3?$Singleton@VioShopItemExtraInfoManager@@@@8 DD 00H ; Singleton<ioShopItemExtraInfoManager>::`RTTI Class Hierarchy Descriptor'
	DD	00H
	DD	01H
	DD	FLAT:??_R2?$Singleton@VioShopItemExtraInfoManager@@@@8
rdata$r	ENDS
;	COMDAT ??_R0?AV?$Singleton@VioShopItemExtraInfoManager@@@@@8
_DATA	SEGMENT
??_R0?AV?$Singleton@VioShopItemExtraInfoManager@@@@@8 DD FLAT:??_7type_info@@6B@ ; Singleton<ioShopItemExtraInfoManager> `RTTI Type Descriptor'
	DD	00H
	DB	'.?AV?$Singleton@VioShopItemExtraInfoManager@@@@', 00H
_DATA	ENDS
;	COMDAT ??_R13?0A@EA@?$Singleton@VioShopItemExtraInfoManager@@@@8
rdata$r	SEGMENT
??_R13?0A@EA@?$Singleton@VioShopItemExtraInfoManager@@@@8 DD FLAT:??_R0?AV?$Singleton@VioShopItemExtraInfoManager@@@@@8 ; Singleton<ioShopItemExtraInfoManager>::`RTTI Base Class Descriptor at (4,-1,0,64)'
	DD	00H
	DD	04H
	DD	0ffffffffH
	DD	00H
	DD	040H
	DD	FLAT:??_R3?$Singleton@VioShopItemExtraInfoManager@@@@8
rdata$r	ENDS
;	COMDAT ??_R1A@?0A@EA@ioShopItemExtraInfoManager@@8
rdata$r	SEGMENT
??_R1A@?0A@EA@ioShopItemExtraInfoManager@@8 DD FLAT:??_R0?AVioShopItemExtraInfoManager@@@8 ; ioShopItemExtraInfoManager::`RTTI Base Class Descriptor at (0,-1,0,64)'
	DD	01H
	DD	00H
	DD	0ffffffffH
	DD	00H
	DD	040H
	DD	FLAT:??_R3ioShopItemExtraInfoManager@@8
rdata$r	ENDS
;	COMDAT ??_R2ioShopItemExtraInfoManager@@8
rdata$r	SEGMENT
??_R2ioShopItemExtraInfoManager@@8 DD FLAT:??_R1A@?0A@EA@ioShopItemExtraInfoManager@@8 ; ioShopItemExtraInfoManager::`RTTI Base Class Array'
	DD	FLAT:??_R13?0A@EA@?$Singleton@VioShopItemExtraInfoManager@@@@8
rdata$r	ENDS
;	COMDAT ??_R3ioShopItemExtraInfoManager@@8
rdata$r	SEGMENT
??_R3ioShopItemExtraInfoManager@@8 DD 00H		; ioShopItemExtraInfoManager::`RTTI Class Hierarchy Descriptor'
	DD	00H
	DD	02H
	DD	FLAT:??_R2ioShopItemExtraInfoManager@@8
rdata$r	ENDS
;	COMDAT ??_R0?AVioShopItemExtraInfoManager@@@8
_DATA	SEGMENT
??_R0?AVioShopItemExtraInfoManager@@@8 DD FLAT:??_7type_info@@6B@ ; ioShopItemExtraInfoManager `RTTI Type Descriptor'
	DD	00H
	DB	'.?AVioShopItemExtraInfoManager@@', 00H
_DATA	ENDS
;	COMDAT ??_R4ioShopItemExtraInfoManager@@6B@
rdata$r	SEGMENT
??_R4ioShopItemExtraInfoManager@@6B@ DD 00H		; ioShopItemExtraInfoManager::`RTTI Complete Object Locator'
	DD	00H
	DD	00H
	DD	FLAT:??_R0?AVioShopItemExtraInfoManager@@@8
	DD	FLAT:??_R3ioShopItemExtraInfoManager@@8
rdata$r	ENDS
;	COMDAT ??_7ioShopItemExtraInfoManager@@6B@
CONST	SEGMENT
??_7ioShopItemExtraInfoManager@@6B@ DD FLAT:??_R4ioShopItemExtraInfoManager@@6B@ ; ioShopItemExtraInfoManager::`vftable'
	DD	FLAT:??_EioShopItemExtraInfoManager@@UAEPAXI@Z
CONST	ENDS
;	COMDAT xdata$x
xdata$x	SEGMENT
__unwindtable$??0ioShopItemExtraInfoManager@@QAE@XZ DD 0ffffffffH
	DD	FLAT:__unwindfunclet$??0ioShopItemExtraInfoManager@@QAE@XZ$0
	DD	00H
	DD	FLAT:__unwindfunclet$??0ioShopItemExtraInfoManager@@QAE@XZ$1
__ehfuncinfo$??0ioShopItemExtraInfoManager@@QAE@XZ DD 019930522H
	DD	02H
	DD	FLAT:__unwindtable$??0ioShopItemExtraInfoManager@@QAE@XZ
	DD	2 DUP(00H)
	DD	2 DUP(00H)
	DD	00H
	DD	01H
; Function compile flags: /Ogsp
; File d:\lost saga for developer\youtube\tutorial\source\src\lsclient\ioshopitemextrainfomanager.cpp
xdata$x	ENDS
;	COMDAT ??0ioShopItemExtraInfoManager@@QAE@XZ
_TEXT	SEGMENT
_this$ = -16						; size = 4
__$EHRec$ = -12						; size = 12
??0ioShopItemExtraInfoManager@@QAE@XZ PROC		; ioShopItemExtraInfoManager::ioShopItemExtraInfoManager, COMDAT
; _this$ = ecx

; 9    : {

  00000	6a 04		 push	 4
  00002	b8 00 00 00 00	 mov	 eax, __ehhandler$??0ioShopItemExtraInfoManager@@QAE@XZ
  00007	e8 00 00 00 00	 call	 __EH_prolog3
  0000c	8b f1		 mov	 esi, ecx
  0000e	89 75 f0	 mov	 DWORD PTR _this$[ebp], esi
  00011	8b c6		 mov	 eax, esi
  00013	a3 00 00 00 00	 mov	 DWORD PTR ?ms_Singleton@?$Singleton@VioShopItemExtraInfoManager@@@@1PAVioShopItemExtraInfoManager@@A, eax ; Singleton<ioShopItemExtraInfoManager>::ms_Singleton
  00018	33 c0		 xor	 eax, eax
  0001a	c7 06 00 00 00
	00		 mov	 DWORD PTR [esi], OFFSET ??_7ioShopItemExtraInfoManager@@6B@
  00020	89 45 fc	 mov	 DWORD PTR __$EHRec$[ebp+8], eax
  00023	89 46 04	 mov	 DWORD PTR [esi+4], eax
  00026	89 46 08	 mov	 DWORD PTR [esi+8], eax
  00029	89 46 0c	 mov	 DWORD PTR [esi+12], eax
  0002c	c6 45 fc 01	 mov	 BYTE PTR __$EHRec$[ebp+8], 1

; 10   : 	ClearData();

  00030	e8 00 00 00 00	 call	 ?ClearData@ioShopItemExtraInfoManager@@QAEXXZ ; ioShopItemExtraInfoManager::ClearData

; 11   : }

  00035	8b c6		 mov	 eax, esi
  00037	e8 00 00 00 00	 call	 __EH_epilog3
  0003c	c3		 ret	 0
_TEXT	ENDS
;	COMDAT text$x
text$x	SEGMENT
__unwindfunclet$??0ioShopItemExtraInfoManager@@QAE@XZ$0:
  00000	8b 4d f0	 mov	 ecx, DWORD PTR _this$[ebp]
  00003	83 c1 04	 add	 ecx, 4
  00006	e9 00 00 00 00	 jmp	 ??1?$Singleton@VioShopItemExtraInfoManager@@@@QAE@XZ ; Singleton<ioShopItemExtraInfoManager>::~Singleton<ioShopItemExtraInfoManager>
__unwindfunclet$??0ioShopItemExtraInfoManager@@QAE@XZ$1:
  0000b	8b 4d f0	 mov	 ecx, DWORD PTR _this$[ebp]
  0000e	83 c1 04	 add	 ecx, 4
  00011	e9 00 00 00 00	 jmp	 ??1?$vector@UtagShopItemExtraInfo@ioShopItemExtraInfoManager@@V?$allocator@UtagShopItemExtraInfo@ioShopItemExtraInfoManager@@@std@@@std@@QAE@XZ ; std::vector<ioShopItemExtraInfoManager::tagShopItemExtraInfo,std::allocator<ioShopItemExtraInfoManager::tagShopItemExtraInfo> >::~vector<ioShopItemExtraInfoManager::tagShopItemExtraInfo,std::allocator<ioShopItemExtraInfoManager::tagShopItemExtraInfo> >
__ehhandler$??0ioShopItemExtraInfoManager@@QAE@XZ:
  00016	8b 54 24 08	 mov	 edx, DWORD PTR [esp+8]
  0001a	8d 42 0c	 lea	 eax, DWORD PTR [edx+12]
  0001d	8b 4a ec	 mov	 ecx, DWORD PTR [edx-20]
  00020	33 c8		 xor	 ecx, eax
  00022	e8 00 00 00 00	 call	 @__security_check_cookie@4
  00027	b8 00 00 00 00	 mov	 eax, OFFSET __ehfuncinfo$??0ioShopItemExtraInfoManager@@QAE@XZ
  0002c	e9 00 00 00 00	 jmp	 ___CxxFrameHandler3
text$x	ENDS
??0ioShopItemExtraInfoManager@@QAE@XZ ENDP		; ioShopItemExtraInfoManager::ioShopItemExtraInfoManager
PUBLIC	??1ioShopItemExtraInfoManager@@UAE@XZ		; ioShopItemExtraInfoManager::~ioShopItemExtraInfoManager
;	COMDAT xdata$x
; File d:\lost saga for developer\youtube\tutorial\source\src\io3dengine\iosingleton.h
xdata$x	SEGMENT
__unwindtable$??1ioShopItemExtraInfoManager@@UAE@XZ DD 0ffffffffH
	DD	FLAT:__unwindfunclet$??1ioShopItemExtraInfoManager@@UAE@XZ$0
	DD	00H
	DD	FLAT:__unwindfunclet$??1ioShopItemExtraInfoManager@@UAE@XZ$1
__ehfuncinfo$??1ioShopItemExtraInfoManager@@UAE@XZ DD 019930522H
	DD	02H
	DD	FLAT:__unwindtable$??1ioShopItemExtraInfoManager@@UAE@XZ
	DD	2 DUP(00H)
	DD	2 DUP(00H)
	DD	00H
	DD	01H
; Function compile flags: /Ogsp
; File d:\lost saga for developer\youtube\tutorial\source\src\lsclient\ioshopitemextrainfomanager.cpp
xdata$x	ENDS
;	COMDAT ??1ioShopItemExtraInfoManager@@UAE@XZ
_TEXT	SEGMENT
_this$ = -16						; size = 4
__$EHRec$ = -12						; size = 12
??1ioShopItemExtraInfoManager@@UAE@XZ PROC		; ioShopItemExtraInfoManager::~ioShopItemExtraInfoManager, COMDAT
; _this$ = ecx

; 14   : {

  00000	6a 04		 push	 4
  00002	b8 00 00 00 00	 mov	 eax, __ehhandler$??1ioShopItemExtraInfoManager@@UAE@XZ
  00007	e8 00 00 00 00	 call	 __EH_prolog3
  0000c	8b f1		 mov	 esi, ecx
  0000e	89 75 f0	 mov	 DWORD PTR _this$[ebp], esi
  00011	c7 06 00 00 00
	00		 mov	 DWORD PTR [esi], OFFSET ??_7ioShopItemExtraInfoManager@@6B@
  00017	c7 45 fc 01 00
	00 00		 mov	 DWORD PTR __$EHRec$[ebp+8], 1

; 15   : 	ClearData();

  0001e	e8 00 00 00 00	 call	 ?ClearData@ioShopItemExtraInfoManager@@QAEXXZ ; ioShopItemExtraInfoManager::ClearData

; 16   : }

  00023	8d 4e 04	 lea	 ecx, DWORD PTR [esi+4]
  00026	c6 45 fc 00	 mov	 BYTE PTR __$EHRec$[ebp+8], 0
  0002a	e8 00 00 00 00	 call	 ?_Tidy@?$vector@UtagShopItemExtraInfo@ioShopItemExtraInfoManager@@V?$allocator@UtagShopItemExtraInfo@ioShopItemExtraInfoManager@@@std@@@std@@IAEXXZ ; std::vector<ioShopItemExtraInfoManager::tagShopItemExtraInfo,std::allocator<ioShopItemExtraInfoManager::tagShopItemExtraInfo> >::_Tidy
  0002f	83 25 00 00 00
	00 00		 and	 DWORD PTR ?ms_Singleton@?$Singleton@VioShopItemExtraInfoManager@@@@1PAVioShopItemExtraInfoManager@@A, 0 ; Singleton<ioShopItemExtraInfoManager>::ms_Singleton
  00036	e8 00 00 00 00	 call	 __EH_epilog3
  0003b	c3		 ret	 0
_TEXT	ENDS
;	COMDAT text$x
text$x	SEGMENT
__unwindfunclet$??1ioShopItemExtraInfoManager@@UAE@XZ$0:
  00000	8b 4d f0	 mov	 ecx, DWORD PTR _this$[ebp]
  00003	83 c1 04	 add	 ecx, 4
  00006	e9 00 00 00 00	 jmp	 ??1?$Singleton@VioShopItemExtraInfoManager@@@@QAE@XZ ; Singleton<ioShopItemExtraInfoManager>::~Singleton<ioShopItemExtraInfoManager>
__unwindfunclet$??1ioShopItemExtraInfoManager@@UAE@XZ$1:
  0000b	8b 4d f0	 mov	 ecx, DWORD PTR _this$[ebp]
  0000e	83 c1 04	 add	 ecx, 4
  00011	e9 00 00 00 00	 jmp	 ??1?$vector@UtagShopItemExtraInfo@ioShopItemExtraInfoManager@@V?$allocator@UtagShopItemExtraInfo@ioShopItemExtraInfoManager@@@std@@@std@@QAE@XZ ; std::vector<ioShopItemExtraInfoManager::tagShopItemExtraInfo,std::allocator<ioShopItemExtraInfoManager::tagShopItemExtraInfo> >::~vector<ioShopItemExtraInfoManager::tagShopItemExtraInfo,std::allocator<ioShopItemExtraInfoManager::tagShopItemExtraInfo> >
__ehhandler$??1ioShopItemExtraInfoManager@@UAE@XZ:
  00016	8b 54 24 08	 mov	 edx, DWORD PTR [esp+8]
  0001a	8d 42 0c	 lea	 eax, DWORD PTR [edx+12]
  0001d	8b 4a ec	 mov	 ecx, DWORD PTR [edx-20]
  00020	33 c8		 xor	 ecx, eax
  00022	e8 00 00 00 00	 call	 @__security_check_cookie@4
  00027	b8 00 00 00 00	 mov	 eax, OFFSET __ehfuncinfo$??1ioShopItemExtraInfoManager@@UAE@XZ
  0002c	e9 00 00 00 00	 jmp	 ___CxxFrameHandler3
text$x	ENDS
??1ioShopItemExtraInfoManager@@UAE@XZ ENDP		; ioShopItemExtraInfoManager::~ioShopItemExtraInfoManager
PUBLIC	_this$GSCopy$
PUBLIC	?LoadFile@ioShopItemExtraInfoManager@@QAEXPBD@Z	; ioShopItemExtraInfoManager::LoadFile
;	COMDAT xdata$x
xdata$x	SEGMENT
__unwindtable$?LoadFile@ioShopItemExtraInfoManager@@QAEXPBD@Z DD 0ffffffffH
	DD	FLAT:__unwindfunclet$?LoadFile@ioShopItemExtraInfoManager@@QAEXPBD@Z$0
	DD	00H
	DD	FLAT:__unwindfunclet$?LoadFile@ioShopItemExtraInfoManager@@QAEXPBD@Z$1
	DD	0ffffffffH
	DD	FLAT:__unwindfunclet$?LoadFile@ioShopItemExtraInfoManager@@QAEXPBD@Z$1
	DD	02H
	DD	FLAT:__unwindfunclet$?LoadFile@ioShopItemExtraInfoManager@@QAEXPBD@Z$2
__ehfuncinfo$?LoadFile@ioShopItemExtraInfoManager@@QAEXPBD@Z DD 019930522H
	DD	04H
	DD	FLAT:__unwindtable$?LoadFile@ioShopItemExtraInfoManager@@QAEXPBD@Z
	DD	2 DUP(00H)
	DD	2 DUP(00H)
	DD	00H
	DD	01H
; Function compile flags: /Ogsp
xdata$x	ENDS
;	COMDAT ?LoadFile@ioShopItemExtraInfoManager@@QAEXPBD@Z
_TEXT	SEGMENT
_sShopItemExtraInfo$505594 = -2136			; size = 60
_this$GSCopy$ = -2076					; size = 4
tv6734 = -2072						; size = 4
_nMaxInfo$ = -2068					; size = 4
$T505430 = -2064					; size = 784
_rkLoader$ = -1280					; size = 912
_szBuf$ = -368						; size = 260
__k$517158 = -108					; size = 10
__k$517283 = -92					; size = 12
__k$517520 = -76					; size = 10
__k$517020 = -60					; size = 10
__t$516653 = -60					; size = 7
__k$516791 = -44					; size = 20
___encStr$505445 = -44					; size = 23
__k$517753 = -36					; size = 15
__k$517503 = -36					; size = 15
__$EHRec$ = -12						; size = 12
_szFilePath$ = 8					; size = 4
?LoadFile@ioShopItemExtraInfoManager@@QAEXPBD@Z PROC	; ioShopItemExtraInfoManager::LoadFile, COMDAT
; _this$ = ecx

; 60   : {

  00000	68 4c 08 00 00	 push	 2124			; 0000084cH
  00005	b8 00 00 00 00	 mov	 eax, __ehhandler$?LoadFile@ioShopItemExtraInfoManager@@QAEXPBD@Z
  0000a	e8 00 00 00 00	 call	 __EH_prolog3_GS
  0000f	8b 45 08	 mov	 eax, DWORD PTR _szFilePath$[ebp]

; 61   : 	ioINILoader_e rkLoader( szFilePath );

  00012	6a 01		 push	 1
  00014	89 8d e4 f7 ff
	ff		 mov	 DWORD PTR _this$GSCopy$[ebp], ecx
  0001a	50		 push	 eax
  0001b	8d 8d f0 f7 ff
	ff		 lea	 ecx, DWORD PTR $T505430[ebp]
  00021	ff 15 00 00 00
	00		 call	 DWORD PTR __imp_??0ioINILoader@@QAE@PBD_N@Z
  00027	8d 85 f0 f7 ff
	ff		 lea	 eax, DWORD PTR $T505430[ebp]
  0002d	33 db		 xor	 ebx, ebx
  0002f	50		 push	 eax
  00030	8d 8d 00 fb ff
	ff		 lea	 ecx, DWORD PTR _rkLoader$[ebp]
  00036	89 5d fc	 mov	 DWORD PTR __$EHRec$[ebp+8], ebx
  00039	ff 15 00 00 00
	00		 call	 DWORD PTR __imp_??0ioINILoader@@QAE@ABV0@@Z
  0003f	8d 8d f0 f7 ff
	ff		 lea	 ecx, DWORD PTR $T505430[ebp]
  00045	c6 45 fc 02	 mov	 BYTE PTR __$EHRec$[ebp+8], 2
  00049	ff 15 00 00 00
	00		 call	 DWORD PTR __imp_??1ioINILoader@@QAE@XZ

; 62   : 	
; 63   : 	rkLoader.SetTitle_e( "common" );

  0004f	be ed ec eb ea	 mov	 esi, -353637139		; eaebecedH
  00054	6a 04		 push	 4
  00056	c7 45 c4 8e 83
	86 87		 mov	 DWORD PTR __t$516653[ebp], -2021227634 ; 8786838eH
  0005d	31 75 c4	 xor	 DWORD PTR __t$516653[ebp], esi
  00060	66 c7 45 c8 82
	82		 mov	 WORD PTR __t$516653[ebp+4], 33410 ; 00008282H
  00066	88 5d ca	 mov	 BYTE PTR __t$516653[ebp+6], bl
  00069	5f		 pop	 edi
$LL211@LoadFile:
  0006a	8b c7		 mov	 eax, edi
  0006c	25 03 00 00 80	 and	 eax, -2147483645	; 80000003H
  00071	79 05		 jns	 SHORT $LN1035@LoadFile
  00073	48		 dec	 eax
  00074	83 c8 fc	 or	 eax, -4			; fffffffcH
  00077	40		 inc	 eax
$LN1035@LoadFile:
  00078	b1 ed		 mov	 cl, -19			; ffffffedH
  0007a	2a c8		 sub	 cl, al
  0007c	30 4c 3d c4	 xor	 BYTE PTR __t$516653[ebp+edi], cl
  00080	47		 inc	 edi
  00081	83 ff 06	 cmp	 edi, 6
  00084	7c e4		 jl	 SHORT $LL211@LoadFile
  00086	8d 45 c4	 lea	 eax, DWORD PTR __t$516653[ebp]
  00089	50		 push	 eax
  0008a	8d 8d 00 fb ff
	ff		 lea	 ecx, DWORD PTR _rkLoader$[ebp]
  00090	ff 15 00 00 00
	00		 call	 DWORD PTR __imp_?SetTitle@ioINILoader@@QAEXPBD@Z
  00096	6a 04		 push	 4

; 64   : 	
; 65   : 	char szBuf[MAX_PATH];
; 66   : 	int nMaxInfo = rkLoader.LoadInt_e( "max_shop_item_extra", 0 );

  00098	c7 45 d4 80 8d
	93 b5		 mov	 DWORD PTR __k$516791[ebp], -1248621184 ; b5938d80H
  0009f	c7 45 d8 9e 84
	84 9a		 mov	 DWORD PTR __k$516791[ebp+4], -1702591330 ; 9a84849eH
  000a6	c7 45 dc b2 85
	9f 8f		 mov	 DWORD PTR __k$516791[ebp+8], -1885370958 ; 8f9f85b2H
  000ad	c7 45 e0 80 b3
	8e 92		 mov	 DWORD PTR __k$516791[ebp+12], -1836141696 ; 928eb380H
  000b4	8d 45 d4	 lea	 eax, DWORD PTR __k$516791[ebp]
  000b7	c7 45 e4 99 9e
	8a 00		 mov	 DWORD PTR __k$516791[ebp+16], 9084569 ; 008a9e99H
  000be	59		 pop	 ecx
$LL320@LoadFile:
  000bf	31 30		 xor	 DWORD PTR [eax], esi
  000c1	83 c0 04	 add	 eax, 4
  000c4	49		 dec	 ecx
  000c5	75 f8		 jne	 SHORT $LL320@LoadFile
  000c7	6a 10		 push	 16			; 00000010H
  000c9	5e		 pop	 esi
$LL317@LoadFile:
  000ca	8b c6		 mov	 eax, esi
  000cc	25 03 00 00 80	 and	 eax, -2147483645	; 80000003H
  000d1	79 05		 jns	 SHORT $LN1036@LoadFile
  000d3	48		 dec	 eax
  000d4	83 c8 fc	 or	 eax, -4			; fffffffcH
  000d7	40		 inc	 eax
$LN1036@LoadFile:
  000d8	b1 ed		 mov	 cl, -19			; ffffffedH
  000da	2a c8		 sub	 cl, al
  000dc	30 4c 35 d4	 xor	 BYTE PTR __k$516791[ebp+esi], cl
  000e0	46		 inc	 esi
  000e1	83 fe 13	 cmp	 esi, 19			; 00000013H
  000e4	7c e4		 jl	 SHORT $LL317@LoadFile
  000e6	53		 push	 ebx
  000e7	8d 45 d4	 lea	 eax, DWORD PTR __k$516791[ebp]
  000ea	50		 push	 eax
  000eb	8d 8d 00 fb ff
	ff		 lea	 ecx, DWORD PTR _rkLoader$[ebp]
  000f1	ff 15 00 00 00
	00		 call	 DWORD PTR __imp_?LoadInt@ioINILoader@@QAEHPBDH@Z

; 67   : 	for ( int i=0; i<nMaxInfo; ++i )

  000f7	33 ff		 xor	 edi, edi
  000f9	89 85 ec f7 ff
	ff		 mov	 DWORD PTR _nMaxInfo$[ebp], eax
  000ff	3b c3		 cmp	 eax, ebx
  00101	0f 8e 1d 03 00
	00		 jle	 $LN100@LoadFile
  00107	8b 35 00 00 00
	00		 mov	 esi, DWORD PTR __imp_?LoadBool@ioINILoader@@QAE_NPBD_N@Z
$LL102@LoadFile:

; 64   : 	
; 65   : 	char szBuf[MAX_PATH];
; 66   : 	int nMaxInfo = rkLoader.LoadInt_e( "max_shop_item_extra", 0 );

  0010d	6a 05		 push	 5

; 68   : 	{
; 69   : 		wsprintf_e( szBuf, "shop_item_extra_info%d", i+1 );

  0010f	c7 45 d4 9e 84
	84 9a		 mov	 DWORD PTR ___encStr$505445[ebp], -1702591330 ; 9a84849eH
  00116	c7 45 d8 b2 85
	9f 8f		 mov	 DWORD PTR ___encStr$505445[ebp+4], -1885370958 ; 8f9f85b2H
  0011d	c7 45 dc 80 b3
	8e 92		 mov	 DWORD PTR ___encStr$505445[ebp+8], -1836141696 ; 928eb380H
  00124	c7 45 e0 99 9e
	8a b5		 mov	 DWORD PTR ___encStr$505445[ebp+12], -1249206631 ; b58a9e99H
  0012b	c7 45 e4 84 82
	8d 85		 mov	 DWORD PTR ___encStr$505445[ebp+16], -2054323580 ; 858d8284H
  00132	66 c7 45 e8 c8
	88		 mov	 WORD PTR ___encStr$505445[ebp+20], 35016 ; 000088c8H
  00138	8d 45 d4	 lea	 eax, DWORD PTR ___encStr$505445[ebp]
  0013b	88 5d ea	 mov	 BYTE PTR ___encStr$505445[ebp+22], bl
  0013e	59		 pop	 ecx
$LL328@LoadFile:
  0013f	81 30 ed ec eb
	ea		 xor	 DWORD PTR [eax], -353637139 ; eaebecedH
  00145	83 c0 04	 add	 eax, 4
  00148	49		 dec	 ecx
  00149	75 f4		 jne	 SHORT $LL328@LoadFile
  0014b	6a 14		 push	 20			; 00000014H
  0014d	58		 pop	 eax
$LL325@LoadFile:
  0014e	8b c8		 mov	 ecx, eax
  00150	81 e1 03 00 00
	80		 and	 ecx, -2147483645	; 80000003H
  00156	79 05		 jns	 SHORT $LN1037@LoadFile
  00158	49		 dec	 ecx
  00159	83 c9 fc	 or	 ecx, -4			; fffffffcH
  0015c	41		 inc	 ecx
$LN1037@LoadFile:
  0015d	b2 ed		 mov	 dl, -19			; ffffffedH
  0015f	2a d1		 sub	 dl, cl
  00161	30 54 05 d4	 xor	 BYTE PTR ___encStr$505445[ebp+eax], dl
  00165	40		 inc	 eax
  00166	83 f8 16	 cmp	 eax, 22			; 00000016H
  00169	7c e3		 jl	 SHORT $LL325@LoadFile
  0016b	47		 inc	 edi
  0016c	57		 push	 edi
  0016d	8d 45 d4	 lea	 eax, DWORD PTR ___encStr$505445[ebp]
  00170	50		 push	 eax
  00171	8d 85 90 fe ff
	ff		 lea	 eax, DWORD PTR _szBuf$[ebp]
  00177	50		 push	 eax
  00178	89 bd e8 f7 ff
	ff		 mov	 DWORD PTR tv6734[ebp], edi
  0017e	ff 15 00 00 00
	00		 call	 DWORD PTR __imp__wsprintfA
  00184	83 c4 0c	 add	 esp, 12			; 0000000cH

; 70   : 		rkLoader.SetTitle( szBuf );

  00187	8d 85 90 fe ff
	ff		 lea	 eax, DWORD PTR _szBuf$[ebp]
  0018d	50		 push	 eax
  0018e	8d 8d 00 fb ff
	ff		 lea	 ecx, DWORD PTR _rkLoader$[ebp]
  00194	ff 15 00 00 00
	00		 call	 DWORD PTR __imp_?SetTitle@ioINILoader@@QAEXPBD@Z

; 71   : 
; 72   : 		ShopItemExtraInfo sShopItemExtraInfo;

  0019a	89 9d b4 f7 ff
	ff		 mov	 DWORD PTR _sShopItemExtraInfo$505594[ebp+12], ebx
  001a0	89 9d b8 f7 ff
	ff		 mov	 DWORD PTR _sShopItemExtraInfo$505594[ebp+16], ebx
  001a6	89 9d bc f7 ff
	ff		 mov	 DWORD PTR _sShopItemExtraInfo$505594[ebp+20], ebx
  001ac	89 9d c4 f7 ff
	ff		 mov	 DWORD PTR _sShopItemExtraInfo$505594[ebp+28], ebx
  001b2	89 9d c8 f7 ff
	ff		 mov	 DWORD PTR _sShopItemExtraInfo$505594[ebp+32], ebx
  001b8	89 9d cc f7 ff
	ff		 mov	 DWORD PTR _sShopItemExtraInfo$505594[ebp+36], ebx
  001be	89 9d d4 f7 ff
	ff		 mov	 DWORD PTR _sShopItemExtraInfo$505594[ebp+44], ebx
  001c4	89 9d d8 f7 ff
	ff		 mov	 DWORD PTR _sShopItemExtraInfo$505594[ebp+48], ebx
  001ca	89 9d dc f7 ff
	ff		 mov	 DWORD PTR _sShopItemExtraInfo$505594[ebp+52], ebx
  001d0	6a 02		 push	 2
  001d2	c6 45 fc 03	 mov	 BYTE PTR __$EHRec$[ebp+8], 3

; 73   : 		sShopItemExtraInfo.m_nItemType = rkLoader.LoadInt_e( "item_type", -1 );

  001d6	c7 45 c4 84 98
	8e 87		 mov	 DWORD PTR __k$517020[ebp], -2020697980 ; 878e9884H
  001dd	c7 45 c8 b2 98
	92 9a		 mov	 DWORD PTR __k$517020[ebp+4], -1701668686 ; 9a9298b2H
  001e4	8d 45 c4	 lea	 eax, DWORD PTR __k$517020[ebp]
  001e7	66 c7 45 cc 88
	00		 mov	 WORD PTR __k$517020[ebp+8], 136 ; 00000088H
  001ed	59		 pop	 ecx
$LL460@LoadFile:
  001ee	81 30 ed ec eb
	ea		 xor	 DWORD PTR [eax], -353637139 ; eaebecedH
  001f4	83 c0 04	 add	 eax, 4
  001f7	49		 dec	 ecx
  001f8	75 f4		 jne	 SHORT $LL460@LoadFile
  001fa	8b 3d 00 00 00
	00		 mov	 edi, DWORD PTR __imp_?LoadInt@ioINILoader@@QAEHPBDH@Z
  00200	80 75 cc ed	 xor	 BYTE PTR __k$517020[ebp+8], -19 ; ffffffedH
  00204	6a ff		 push	 -1
  00206	8d 45 c4	 lea	 eax, DWORD PTR __k$517020[ebp]
  00209	50		 push	 eax
  0020a	8d 8d 00 fb ff
	ff		 lea	 ecx, DWORD PTR _rkLoader$[ebp]
  00210	ff d7		 call	 edi
  00212	6a 02		 push	 2
  00214	89 85 a8 f7 ff
	ff		 mov	 DWORD PTR _sShopItemExtraInfo$505594[ebp], eax

; 74   : 		sShopItemExtraInfo.m_dwItemCode = (DWORD)rkLoader.LoadInt_e( "item_code", 0 );

  0021a	c7 45 94 84 98
	8e 87		 mov	 DWORD PTR __k$517158[ebp], -2020697980 ; 878e9884H
  00221	c7 45 98 b2 8f
	84 8e		 mov	 DWORD PTR __k$517158[ebp+4], -1903915086 ; 8e848fb2H
  00228	8d 45 94	 lea	 eax, DWORD PTR __k$517158[ebp]
  0022b	66 c7 45 9c 88
	00		 mov	 WORD PTR __k$517158[ebp+8], 136 ; 00000088H
  00231	59		 pop	 ecx
$LL566@LoadFile:
  00232	81 30 ed ec eb
	ea		 xor	 DWORD PTR [eax], -353637139 ; eaebecedH
  00238	83 c0 04	 add	 eax, 4
  0023b	49		 dec	 ecx
  0023c	75 f4		 jne	 SHORT $LL566@LoadFile
  0023e	80 75 9c ed	 xor	 BYTE PTR __k$517158[ebp+8], -19 ; ffffffedH
  00242	53		 push	 ebx
  00243	8d 45 94	 lea	 eax, DWORD PTR __k$517158[ebp]
  00246	50		 push	 eax
  00247	8d 8d 00 fb ff
	ff		 lea	 ecx, DWORD PTR _rkLoader$[ebp]
  0024d	ff d7		 call	 edi
  0024f	6a 02		 push	 2
  00251	89 85 ac f7 ff
	ff		 mov	 DWORD PTR _sShopItemExtraInfo$505594[ebp+4], eax

; 75   : 		sShopItemExtraInfo.m_bSetPreview = rkLoader.LoadBool_e( "set_preview", false );

  00257	c7 45 a4 9e 89
	9f b5		 mov	 DWORD PTR __k$517283[ebp], -1247835746 ; b59f899eH
  0025e	c7 45 a8 9d 9e
	8e 9c		 mov	 DWORD PTR __k$517283[ebp+4], -1668374883 ; 9c8e9e9dH
  00265	8d 45 a4	 lea	 eax, DWORD PTR __k$517283[ebp]
  00268	c7 45 ac 84 89
	9c 00		 mov	 DWORD PTR __k$517283[ebp+8], 10258820 ; 009c8984H
  0026f	59		 pop	 ecx
$LL672@LoadFile:
  00270	81 30 ed ec eb
	ea		 xor	 DWORD PTR [eax], -353637139 ; eaebecedH
  00276	83 c0 04	 add	 eax, 4
  00279	49		 dec	 ecx
  0027a	75 f4		 jne	 SHORT $LL672@LoadFile
  0027c	6a 08		 push	 8
  0027e	5f		 pop	 edi
$LL669@LoadFile:
  0027f	8b c7		 mov	 eax, edi
  00281	25 03 00 00 80	 and	 eax, -2147483645	; 80000003H
  00286	79 05		 jns	 SHORT $LN1038@LoadFile
  00288	48		 dec	 eax
  00289	83 c8 fc	 or	 eax, -4			; fffffffcH
  0028c	40		 inc	 eax
$LN1038@LoadFile:
  0028d	b1 ed		 mov	 cl, -19			; ffffffedH
  0028f	2a c8		 sub	 cl, al
  00291	30 4c 3d a4	 xor	 BYTE PTR __k$517283[ebp+edi], cl
  00295	47		 inc	 edi
  00296	83 ff 0b	 cmp	 edi, 11			; 0000000bH
  00299	7c e4		 jl	 SHORT $LL669@LoadFile
  0029b	53		 push	 ebx
  0029c	8d 45 a4	 lea	 eax, DWORD PTR __k$517283[ebp]
  0029f	50		 push	 eax
  002a0	8d 8d 00 fb ff
	ff		 lea	 ecx, DWORD PTR _rkLoader$[ebp]
  002a6	ff d6		 call	 esi
  002a8	6a 03		 push	 3
  002aa	88 85 b0 f7 ff
	ff		 mov	 BYTE PTR _sShopItemExtraInfo$505594[ebp+8], al

; 76   : 		sShopItemExtraInfo.m_bSetChangeSex = rkLoader.LoadBool_e( "set_change_sex", false );

  002b0	c7 45 dc 9e 89
	9f b5		 mov	 DWORD PTR __k$517503[ebp], -1247835746 ; b59f899eH
  002b7	c7 45 e0 8e 84
	8a 84		 mov	 DWORD PTR __k$517503[ebp+4], -2071296882 ; 848a848eH
  002be	c7 45 e4 8a 89
	b4 99		 mov	 DWORD PTR __k$517503[ebp+8], -1716221558 ; 99b4898aH
  002c5	66 c7 45 e8 88
	94		 mov	 WORD PTR __k$517503[ebp+12], 38024 ; 00009488H
  002cb	8d 45 dc	 lea	 eax, DWORD PTR __k$517503[ebp]
  002ce	88 5d ea	 mov	 BYTE PTR __k$517503[ebp+14], bl
  002d1	59		 pop	 ecx
$LL778@LoadFile:
  002d2	81 30 ed ec eb
	ea		 xor	 DWORD PTR [eax], -353637139 ; eaebecedH
  002d8	83 c0 04	 add	 eax, 4
  002db	49		 dec	 ecx
  002dc	75 f4		 jne	 SHORT $LL778@LoadFile
  002de	6a 0c		 push	 12			; 0000000cH
  002e0	5f		 pop	 edi
$LL775@LoadFile:
  002e1	8b c7		 mov	 eax, edi
  002e3	25 03 00 00 80	 and	 eax, -2147483645	; 80000003H
  002e8	79 05		 jns	 SHORT $LN1039@LoadFile
  002ea	48		 dec	 eax
  002eb	83 c8 fc	 or	 eax, -4			; fffffffcH
  002ee	40		 inc	 eax
$LN1039@LoadFile:
  002ef	b1 ed		 mov	 cl, -19			; ffffffedH
  002f1	2a c8		 sub	 cl, al
  002f3	30 4c 3d dc	 xor	 BYTE PTR __k$517503[ebp+edi], cl
  002f7	47		 inc	 edi
  002f8	83 ff 0e	 cmp	 edi, 14			; 0000000eH
  002fb	7c e4		 jl	 SHORT $LL775@LoadFile
  002fd	53		 push	 ebx
  002fe	8d 45 dc	 lea	 eax, DWORD PTR __k$517503[ebp]
  00301	50		 push	 eax
  00302	8d 8d 00 fb ff
	ff		 lea	 ecx, DWORD PTR _rkLoader$[ebp]
  00308	ff d6		 call	 esi
  0030a	6a 02		 push	 2
  0030c	88 85 b1 f7 ff
	ff		 mov	 BYTE PTR _sShopItemExtraInfo$505594[ebp+9], al

; 77   : 		sShopItemExtraInfo.m_bSetMovie = rkLoader.LoadBool_e( "set_movie", false );

  00312	c7 45 b4 9e 89
	9f b5		 mov	 DWORD PTR __k$517520[ebp], -1247835746 ; b59f899eH
  00319	c7 45 b8 80 83
	9d 83		 mov	 DWORD PTR __k$517520[ebp+4], -2086829184 ; 839d8380H
  00320	8d 45 b4	 lea	 eax, DWORD PTR __k$517520[ebp]
  00323	66 c7 45 bc 88
	00		 mov	 WORD PTR __k$517520[ebp+8], 136 ; 00000088H
  00329	59		 pop	 ecx
$LL884@LoadFile:
  0032a	81 30 ed ec eb
	ea		 xor	 DWORD PTR [eax], -353637139 ; eaebecedH
  00330	83 c0 04	 add	 eax, 4
  00333	49		 dec	 ecx
  00334	75 f4		 jne	 SHORT $LL884@LoadFile
  00336	80 75 bc ed	 xor	 BYTE PTR __k$517520[ebp+8], -19 ; ffffffedH
  0033a	53		 push	 ebx
  0033b	8d 45 b4	 lea	 eax, DWORD PTR __k$517520[ebp]
  0033e	50		 push	 eax
  0033f	8d 8d 00 fb ff
	ff		 lea	 ecx, DWORD PTR _rkLoader$[ebp]
  00345	ff d6		 call	 esi
  00347	6a 03		 push	 3
  00349	88 85 b2 f7 ff
	ff		 mov	 BYTE PTR _sShopItemExtraInfo$505594[ebp+10], al

; 78   : 		sShopItemExtraInfo.m_bSetMovieDown = rkLoader.LoadBool_e( "set_movie_down", false );

  0034f	c7 45 dc 9e 89
	9f b5		 mov	 DWORD PTR __k$517753[ebp], -1247835746 ; b59f899eH
  00356	c7 45 e0 80 83
	9d 83		 mov	 DWORD PTR __k$517753[ebp+4], -2086829184 ; 839d8380H
  0035d	c7 45 e4 88 b3
	8f 85		 mov	 DWORD PTR __k$517753[ebp+8], -2054179960 ; 858fb388H
  00364	66 c7 45 e8 9a
	82		 mov	 WORD PTR __k$517753[ebp+12], 33434 ; 0000829aH
  0036a	8d 45 dc	 lea	 eax, DWORD PTR __k$517753[ebp]
  0036d	88 5d ea	 mov	 BYTE PTR __k$517753[ebp+14], bl
  00370	59		 pop	 ecx
$LL990@LoadFile:
  00371	81 30 ed ec eb
	ea		 xor	 DWORD PTR [eax], -353637139 ; eaebecedH
  00377	83 c0 04	 add	 eax, 4
  0037a	49		 dec	 ecx
  0037b	75 f4		 jne	 SHORT $LL990@LoadFile
  0037d	6a 0c		 push	 12			; 0000000cH
  0037f	5f		 pop	 edi
$LL987@LoadFile:
  00380	8b c7		 mov	 eax, edi
  00382	25 03 00 00 80	 and	 eax, -2147483645	; 80000003H
  00387	79 05		 jns	 SHORT $LN1040@LoadFile
  00389	48		 dec	 eax
  0038a	83 c8 fc	 or	 eax, -4			; fffffffcH
  0038d	40		 inc	 eax
$LN1040@LoadFile:
  0038e	b1 ed		 mov	 cl, -19			; ffffffedH
  00390	2a c8		 sub	 cl, al
  00392	30 4c 3d dc	 xor	 BYTE PTR __k$517753[ebp+edi], cl
  00396	47		 inc	 edi
  00397	83 ff 0e	 cmp	 edi, 14			; 0000000eH
  0039a	7c e4		 jl	 SHORT $LL987@LoadFile
  0039c	53		 push	 ebx
  0039d	8d 45 dc	 lea	 eax, DWORD PTR __k$517753[ebp]
  003a0	50		 push	 eax
  003a1	8d 8d 00 fb ff
	ff		 lea	 ecx, DWORD PTR _rkLoader$[ebp]
  003a7	ff d6		 call	 esi

; 79   : 		
; 80   : 		LoadMovieInfoList( rkLoader, sShopItemExtraInfo.m_ShopItemMovieInfoList );

  003a9	8b bd e4 f7 ff
	ff		 mov	 edi, DWORD PTR _this$GSCopy$[ebp]
  003af	88 85 b3 f7 ff
	ff		 mov	 BYTE PTR _sShopItemExtraInfo$505594[ebp+11], al
  003b5	8d 85 b4 f7 ff
	ff		 lea	 eax, DWORD PTR _sShopItemExtraInfo$505594[ebp+12]
  003bb	50		 push	 eax
  003bc	8d 85 00 fb ff
	ff		 lea	 eax, DWORD PTR _rkLoader$[ebp]
  003c2	50		 push	 eax
  003c3	8b cf		 mov	 ecx, edi
  003c5	e8 00 00 00 00	 call	 ?LoadMovieInfoList@ioShopItemExtraInfoManager@@QAEXAAVioINILoader@@AAV?$vector@UtagShopItemMovieInfo@ioShopItemExtraInfoManager@@V?$allocator@UtagShopItemMovieInfo@ioShopItemExtraInfoManager@@@std@@@std@@@Z ; ioShopItemExtraInfoManager::LoadMovieInfoList

; 81   : 		LoadMachineList( rkLoader, sShopItemExtraInfo.m_MachineList );

  003ca	8d 85 c4 f7 ff
	ff		 lea	 eax, DWORD PTR _sShopItemExtraInfo$505594[ebp+28]
  003d0	50		 push	 eax
  003d1	8d 85 00 fb ff
	ff		 lea	 eax, DWORD PTR _rkLoader$[ebp]
  003d7	50		 push	 eax
  003d8	8b cf		 mov	 ecx, edi
  003da	e8 00 00 00 00	 call	 ?LoadMachineList@ioShopItemExtraInfoManager@@QAEXAAVioINILoader@@AAV?$vector@HV?$allocator@H@std@@@std@@@Z ; ioShopItemExtraInfoManager::LoadMachineList

; 82   : 		LoadSkillList( rkLoader, sShopItemExtraInfo.m_SkillList );

  003df	8d 85 d4 f7 ff
	ff		 lea	 eax, DWORD PTR _sShopItemExtraInfo$505594[ebp+44]
  003e5	50		 push	 eax
  003e6	8d 85 00 fb ff
	ff		 lea	 eax, DWORD PTR _rkLoader$[ebp]
  003ec	50		 push	 eax
  003ed	8b cf		 mov	 ecx, edi
  003ef	e8 00 00 00 00	 call	 ?LoadSkillList@ioShopItemExtraInfoManager@@QAEXAAVioINILoader@@AAV?$vector@HV?$allocator@H@std@@@std@@@Z ; ioShopItemExtraInfoManager::LoadSkillList

; 83   : 
; 84   : 		m_ShopItemExtraInfoData.push_back( sShopItemExtraInfo );

  003f4	8d 85 a8 f7 ff
	ff		 lea	 eax, DWORD PTR _sShopItemExtraInfo$505594[ebp]
  003fa	50		 push	 eax
  003fb	8d 4f 04	 lea	 ecx, DWORD PTR [edi+4]
  003fe	e8 00 00 00 00	 call	 ?push_back@?$vector@UtagShopItemExtraInfo@ioShopItemExtraInfoManager@@V?$allocator@UtagShopItemExtraInfo@ioShopItemExtraInfoManager@@@std@@@std@@QAEXABUtagShopItemExtraInfo@ioShopItemExtraInfoManager@@@Z ; std::vector<ioShopItemExtraInfoManager::tagShopItemExtraInfo,std::allocator<ioShopItemExtraInfoManager::tagShopItemExtraInfo> >::push_back

; 85   : 	}

  00403	8d 8d a8 f7 ff
	ff		 lea	 ecx, DWORD PTR _sShopItemExtraInfo$505594[ebp]
  00409	c6 45 fc 02	 mov	 BYTE PTR __$EHRec$[ebp+8], 2
  0040d	e8 00 00 00 00	 call	 ??1tagShopItemExtraInfo@ioShopItemExtraInfoManager@@QAE@XZ
  00412	8b bd e8 f7 ff
	ff		 mov	 edi, DWORD PTR tv6734[ebp]
  00418	3b bd ec f7 ff
	ff		 cmp	 edi, DWORD PTR _nMaxInfo$[ebp]
  0041e	0f 8c e9 fc ff
	ff		 jl	 $LL102@LoadFile
$LN100@LoadFile:

; 86   : }

  00424	83 4d fc ff	 or	 DWORD PTR __$EHRec$[ebp+8], -1
  00428	8d 8d 00 fb ff
	ff		 lea	 ecx, DWORD PTR _rkLoader$[ebp]
  0042e	ff 15 00 00 00
	00		 call	 DWORD PTR __imp_??1ioINILoader@@QAE@XZ
  00434	e8 00 00 00 00	 call	 __EH_epilog3_GS
  00439	c2 04 00	 ret	 4
_TEXT	ENDS
;	COMDAT text$x
text$x	SEGMENT
__unwindfunclet$?LoadFile@ioShopItemExtraInfoManager@@QAEXPBD@Z$0:
  00000	8d 8d f0 f7 ff
	ff		 lea	 ecx, DWORD PTR $T505430[ebp]
  00006	ff 25 00 00 00
	00		 jmp	 DWORD PTR __imp_??1ioINILoader@@QAE@XZ
__unwindfunclet$?LoadFile@ioShopItemExtraInfoManager@@QAEXPBD@Z$1:
  0000c	8d 8d 00 fb ff
	ff		 lea	 ecx, DWORD PTR _rkLoader$[ebp]
  00012	e9 00 00 00 00	 jmp	 ??1ioINILoader_e@@QAE@XZ
__unwindfunclet$?LoadFile@ioShopItemExtraInfoManager@@QAEXPBD@Z$2:
  00017	8d 8d a8 f7 ff
	ff		 lea	 ecx, DWORD PTR _sShopItemExtraInfo$505594[ebp]
  0001d	e9 00 00 00 00	 jmp	 ??1tagShopItemExtraInfo@ioShopItemExtraInfoManager@@QAE@XZ
__ehhandler$?LoadFile@ioShopItemExtraInfoManager@@QAEXPBD@Z:
  00022	8b 54 24 08	 mov	 edx, DWORD PTR [esp+8]
  00026	8d 42 0c	 lea	 eax, DWORD PTR [edx+12]
  00029	8b 8a a4 f7 ff
	ff		 mov	 ecx, DWORD PTR [edx-2140]
  0002f	33 c8		 xor	 ecx, eax
  00031	e8 00 00 00 00	 call	 @__security_check_cookie@4
  00036	8b 4a fc	 mov	 ecx, DWORD PTR [edx-4]
  00039	33 c8		 xor	 ecx, eax
  0003b	e8 00 00 00 00	 call	 @__security_check_cookie@4
  00040	b8 00 00 00 00	 mov	 eax, OFFSET __ehfuncinfo$?LoadFile@ioShopItemExtraInfoManager@@QAEXPBD@Z
  00045	e9 00 00 00 00	 jmp	 ___CxxFrameHandler3
text$x	ENDS
?LoadFile@ioShopItemExtraInfoManager@@QAEXPBD@Z ENDP	; ioShopItemExtraInfoManager::LoadFile
; Function compile flags: /Ogsp
;	COMDAT ??_GioShopItemExtraInfoManager@@UAEPAXI@Z
_TEXT	SEGMENT
___flags$ = 8						; size = 4
??_GioShopItemExtraInfoManager@@UAEPAXI@Z PROC		; ioShopItemExtraInfoManager::`scalar deleting destructor', COMDAT
; _this$ = ecx
  00000	55		 push	 ebp
  00001	8b ec		 mov	 ebp, esp
  00003	56		 push	 esi
  00004	8b f1		 mov	 esi, ecx
  00006	e8 00 00 00 00	 call	 ??1ioShopItemExtraInfoManager@@UAE@XZ ; ioShopItemExtraInfoManager::~ioShopItemExtraInfoManager
  0000b	f6 45 08 01	 test	 BYTE PTR ___flags$[ebp], 1
  0000f	74 07		 je	 SHORT $LN1@scalar@4
  00011	56		 push	 esi
  00012	e8 00 00 00 00	 call	 ??3@YAXPAX@Z		; operator delete
  00017	59		 pop	 ecx
$LN1@scalar@4:
  00018	8b c6		 mov	 eax, esi
  0001a	5e		 pop	 esi
  0001b	5d		 pop	 ebp
  0001c	c2 04 00	 ret	 4
??_GioShopItemExtraInfoManager@@UAEPAXI@Z ENDP		; ioShopItemExtraInfoManager::`scalar deleting destructor'
_TEXT	ENDS
PUBLIC	_this$GSCopy$
PUBLIC	?LoadProperty@ioShopItemExtraInfoManager@@QAEXXZ ; ioShopItemExtraInfoManager::LoadProperty
EXTRN	_memset:PROC
;	COMDAT xdata$x
xdata$x	SEGMENT
__unwindtable$?LoadProperty@ioShopItemExtraInfoManager@@QAEXXZ DD 0ffffffffH
	DD	FLAT:__unwindfunclet$?LoadProperty@ioShopItemExtraInfoManager@@QAEXXZ$0
__ehfuncinfo$?LoadProperty@ioShopItemExtraInfoManager@@QAEXXZ DD 019930522H
	DD	01H
	DD	FLAT:__unwindtable$?LoadProperty@ioShopItemExtraInfoManager@@QAEXXZ
	DD	2 DUP(00H)
	DD	2 DUP(00H)
	DD	00H
	DD	01H
; Function compile flags: /Ogsp
xdata$x	ENDS
;	COMDAT ?LoadProperty@ioShopItemExtraInfoManager@@QAEXXZ
_TEXT	SEGMENT
_this$GSCopy$ = -1752					; size = 4
_nGroupCnt$ = -1748					; size = 4
_i$505114 = -1744					; size = 4
_kLoader$ = -1740					; size = 912
_szGroupName$ = -828					; size = 260
_szBuf$ = -568						; size = 260
_szTitle$ = -308					; size = 260
___encStr$505274 = -48					; size = 10
__k$518206 = -32					; size = 10
__t$518068 = -32					; size = 7
___encStr$505121 = -32					; size = 8
__$EHRec$ = -12						; size = 12
?LoadProperty@ioShopItemExtraInfoManager@@QAEXXZ PROC	; ioShopItemExtraInfoManager::LoadProperty, COMDAT
; _this$ = ecx

; 39   : {	

  00000	68 cc 06 00 00	 push	 1740			; 000006ccH
  00005	b8 00 00 00 00	 mov	 eax, __ehhandler$?LoadProperty@ioShopItemExtraInfoManager@@QAEXXZ
  0000a	e8 00 00 00 00	 call	 __EH_prolog3_GS

; 40   : 	ioINILoader_e kLoader( "config/sp2_shop_item_extra_info.ini" );

  0000f	6a 08		 push	 8
  00011	89 8d 28 f9 ff
	ff		 mov	 DWORD PTR _this$GSCopy$[ebp], ecx
  00017	c7 85 84 fc ff
	ff 8e 83 85 8c	 mov	 DWORD PTR _kLoader$[ebp+848], -1937407090 ; 8c85838eH
  00021	c7 85 88 fc ff
	ff 84 8b c4 99	 mov	 DWORD PTR _kLoader$[ebp+852], -1715172476 ; 99c48b84H
  0002b	c7 85 8c fc ff
	ff 9d de b4 99	 mov	 DWORD PTR _kLoader$[ebp+856], -1716199779 ; 99b4de9dH
  00035	c7 85 90 fc ff
	ff 85 83 9b b5	 mov	 DWORD PTR _kLoader$[ebp+860], -1248099451 ; b59b8385H
  0003f	c7 85 94 fc ff
	ff 84 98 8e 87	 mov	 DWORD PTR _kLoader$[ebp+864], -2020697980 ; 878e9884H
  00049	c7 85 98 fc ff
	ff b2 89 93 9e	 mov	 DWORD PTR _kLoader$[ebp+868], -1634498126 ; 9e9389b2H
  00053	c7 85 9c fc ff
	ff 9f 8d b4 83	 mov	 DWORD PTR _kLoader$[ebp+872], -2085319265 ; 83b48d9fH
  0005d	c7 85 a0 fc ff
	ff 83 8a 84 c4	 mov	 DWORD PTR _kLoader$[ebp+876], -997946749 ; c4848a83H
  00067	8d 85 84 fc ff
	ff		 lea	 eax, DWORD PTR _kLoader$[ebp+848]
  0006d	33 db		 xor	 ebx, ebx
  0006f	c7 85 a4 fc ff
	ff 84 82 82 00	 mov	 DWORD PTR _kLoader$[ebp+880], 8553092 ; 00828284H
  00079	59		 pop	 ecx
  0007a	bf ed ec eb ea	 mov	 edi, -353637139		; eaebecedH
$LL311@LoadProper:
  0007f	31 38		 xor	 DWORD PTR [eax], edi
  00081	83 c0 04	 add	 eax, 4
  00084	49		 dec	 ecx
  00085	75 f8		 jne	 SHORT $LL311@LoadProper
  00087	6a 20		 push	 32			; 00000020H
  00089	5e		 pop	 esi
$LL308@LoadProper:
  0008a	8b c6		 mov	 eax, esi
  0008c	25 03 00 00 80	 and	 eax, -2147483645	; 80000003H
  00091	79 05		 jns	 SHORT $LN569@LoadProper
  00093	48		 dec	 eax
  00094	83 c8 fc	 or	 eax, -4			; fffffffcH
  00097	40		 inc	 eax
$LN569@LoadProper:
  00098	b1 ed		 mov	 cl, -19			; ffffffedH
  0009a	2a c8		 sub	 cl, al
  0009c	30 8c 35 84 fc
	ff ff		 xor	 BYTE PTR _kLoader$[ebp+esi+848], cl
  000a3	46		 inc	 esi
  000a4	83 fe 23	 cmp	 esi, 35			; 00000023H
  000a7	7c e1		 jl	 SHORT $LL308@LoadProper
  000a9	6a 01		 push	 1
  000ab	8d 85 84 fc ff
	ff		 lea	 eax, DWORD PTR _kLoader$[ebp+848]
  000b1	50		 push	 eax
  000b2	8d 8d 34 f9 ff
	ff		 lea	 ecx, DWORD PTR _kLoader$[ebp]
  000b8	ff 15 00 00 00
	00		 call	 DWORD PTR __imp_??0ioINILoader@@QAE@PBD_N@Z

; 41   : 
; 42   : 	char szBuf[MAX_PATH] = "";

  000be	be 03 01 00 00	 mov	 esi, 259		; 00000103H
  000c3	56		 push	 esi
  000c4	8d 85 c9 fd ff
	ff		 lea	 eax, DWORD PTR _szBuf$[ebp+1]
  000ca	53		 push	 ebx
  000cb	50		 push	 eax
  000cc	89 5d fc	 mov	 DWORD PTR __$EHRec$[ebp+8], ebx
  000cf	88 9d c8 fd ff
	ff		 mov	 BYTE PTR _szBuf$[ebp], bl
  000d5	e8 00 00 00 00	 call	 _memset

; 43   : 	char szTitle[MAX_PATH] = "";

  000da	56		 push	 esi
  000db	8d 85 cd fe ff
	ff		 lea	 eax, DWORD PTR _szTitle$[ebp+1]
  000e1	53		 push	 ebx
  000e2	50		 push	 eax
  000e3	88 9d cc fe ff
	ff		 mov	 BYTE PTR _szTitle$[ebp], bl
  000e9	e8 00 00 00 00	 call	 _memset

; 44   : 	char szGroupName[MAX_PATH] = "";

  000ee	56		 push	 esi
  000ef	8d 85 c5 fc ff
	ff		 lea	 eax, DWORD PTR _szGroupName$[ebp+1]
  000f5	53		 push	 ebx
  000f6	50		 push	 eax
  000f7	88 9d c4 fc ff
	ff		 mov	 BYTE PTR _szGroupName$[ebp], bl
  000fd	e8 00 00 00 00	 call	 _memset
  00102	83 c4 24	 add	 esp, 36			; 00000024H

; 45   : 
; 46   : 	kLoader.SetTitle_e( "common" );

  00105	6a 04		 push	 4
  00107	c7 45 e0 8e 83
	86 87		 mov	 DWORD PTR __t$518068[ebp], -2021227634 ; 8786838eH
  0010e	31 7d e0	 xor	 DWORD PTR __t$518068[ebp], edi
  00111	66 c7 45 e4 82
	82		 mov	 WORD PTR __t$518068[ebp+4], 33410 ; 00008282H
  00117	88 5d e6	 mov	 BYTE PTR __t$518068[ebp+6], bl
  0011a	5e		 pop	 esi
$LL414@LoadProper:
  0011b	8b c6		 mov	 eax, esi
  0011d	25 03 00 00 80	 and	 eax, -2147483645	; 80000003H
  00122	79 05		 jns	 SHORT $LN570@LoadProper
  00124	48		 dec	 eax
  00125	83 c8 fc	 or	 eax, -4			; fffffffcH
  00128	40		 inc	 eax
$LN570@LoadProper:
  00129	b1 ed		 mov	 cl, -19			; ffffffedH
  0012b	2a c8		 sub	 cl, al
  0012d	30 4c 35 e0	 xor	 BYTE PTR __t$518068[ebp+esi], cl
  00131	46		 inc	 esi
  00132	83 fe 06	 cmp	 esi, 6
  00135	7c e4		 jl	 SHORT $LL414@LoadProper
  00137	8d 45 e0	 lea	 eax, DWORD PTR __t$518068[ebp]
  0013a	50		 push	 eax
  0013b	8d 8d 34 f9 ff
	ff		 lea	 ecx, DWORD PTR _kLoader$[ebp]
  00141	ff 15 00 00 00
	00		 call	 DWORD PTR __imp_?SetTitle@ioINILoader@@QAEXPBD@Z
  00147	6a 02		 push	 2

; 47   : 	int nGroupCnt = kLoader.LoadInt_e( "group_cnt", 0 );

  00149	c7 45 e0 8a 9e
	84 9f		 mov	 DWORD PTR __k$518206[ebp], -1618698614 ; 9f849e8aH
  00150	c7 45 e4 9d b3
	88 84		 mov	 DWORD PTR __k$518206[ebp+4], -2071415907 ; 8488b39dH
  00157	8d 45 e0	 lea	 eax, DWORD PTR __k$518206[ebp]
  0015a	66 c7 45 e8 99
	00		 mov	 WORD PTR __k$518206[ebp+8], 153 ; 00000099H
  00160	59		 pop	 ecx
$LL523@LoadProper:
  00161	31 38		 xor	 DWORD PTR [eax], edi
  00163	83 c0 04	 add	 eax, 4
  00166	49		 dec	 ecx
  00167	75 f8		 jne	 SHORT $LL523@LoadProper
  00169	80 75 e8 ed	 xor	 BYTE PTR __k$518206[ebp+8], -19 ; ffffffedH
  0016d	53		 push	 ebx
  0016e	8d 45 e0	 lea	 eax, DWORD PTR __k$518206[ebp]
  00171	50		 push	 eax
  00172	8d 8d 34 f9 ff
	ff		 lea	 ecx, DWORD PTR _kLoader$[ebp]
  00178	ff 15 00 00 00
	00		 call	 DWORD PTR __imp_?LoadInt@ioINILoader@@QAEHPBDH@Z
  0017e	89 85 2c f9 ff
	ff		 mov	 DWORD PTR _nGroupCnt$[ebp], eax

; 48   : 
; 49   : 	for( int i=0; i < nGroupCnt; ++i )

  00184	89 9d 30 f9 ff
	ff		 mov	 DWORD PTR _i$505114[ebp], ebx
  0018a	3b c3		 cmp	 eax, ebx
  0018c	0f 8e d8 00 00
	00		 jle	 $LN199@LoadProper
  00192	8b 35 00 00 00
	00		 mov	 esi, DWORD PTR __imp__wsprintfA
$LN201@LoadProper:

; 50   : 	{
; 51   : 		wsprintf_e( szTitle, "group%d", i );

  00198	6a 04		 push	 4
  0019a	c7 45 e0 8a 9e
	84 9f		 mov	 DWORD PTR ___encStr$505121[ebp], -1618698614 ; 9f849e8aH
  001a1	31 7d e0	 xor	 DWORD PTR ___encStr$505121[ebp], edi
  001a4	c7 45 e4 9d c9
	8f 00		 mov	 DWORD PTR ___encStr$505121[ebp+4], 9423261 ; 008fc99dH
  001ab	58		 pop	 eax
$LL528@LoadProper:
  001ac	8b c8		 mov	 ecx, eax
  001ae	81 e1 03 00 00
	80		 and	 ecx, -2147483645	; 80000003H
  001b4	79 05		 jns	 SHORT $LN571@LoadProper
  001b6	49		 dec	 ecx
  001b7	83 c9 fc	 or	 ecx, -4			; fffffffcH
  001ba	41		 inc	 ecx
$LN571@LoadProper:
  001bb	b2 ed		 mov	 dl, -19			; ffffffedH
  001bd	2a d1		 sub	 dl, cl
  001bf	30 54 05 e0	 xor	 BYTE PTR ___encStr$505121[ebp+eax], dl
  001c3	40		 inc	 eax
  001c4	83 f8 07	 cmp	 eax, 7
  001c7	7c e3		 jl	 SHORT $LL528@LoadProper
  001c9	ff b5 30 f9 ff
	ff		 push	 DWORD PTR _i$505114[ebp]
  001cf	8d 45 e0	 lea	 eax, DWORD PTR ___encStr$505121[ebp]
  001d2	50		 push	 eax
  001d3	8d 85 cc fe ff
	ff		 lea	 eax, DWORD PTR _szTitle$[ebp]
  001d9	50		 push	 eax
  001da	ff d6		 call	 esi
  001dc	83 c4 0c	 add	 esp, 12			; 0000000cH

; 52   : 		kLoader.LoadString( szTitle, "", szBuf, MAX_PATH );

  001df	68 04 01 00 00	 push	 260			; 00000104H
  001e4	8d 85 c8 fd ff
	ff		 lea	 eax, DWORD PTR _szBuf$[ebp]
  001ea	50		 push	 eax
  001eb	68 00 00 00 00	 push	 OFFSET ??_C@_00CNPNBAHC@?$AA@
  001f0	8d 85 cc fe ff
	ff		 lea	 eax, DWORD PTR _szTitle$[ebp]
  001f6	50		 push	 eax
  001f7	8d 8d 34 f9 ff
	ff		 lea	 ecx, DWORD PTR _kLoader$[ebp]
  001fd	ff 15 00 00 00
	00		 call	 DWORD PTR __imp_?LoadStringA@ioINILoader@@QAEXPBD0PADH@Z
  00203	6a 02		 push	 2

; 53   : 
; 54   : 		wsprintf_e( szGroupName, "config/%s", szBuf );

  00205	c7 45 d0 8e 83
	85 8c		 mov	 DWORD PTR ___encStr$505274[ebp], -1937407090 ; 8c85838eH
  0020c	c7 45 d4 84 8b
	c4 cf		 mov	 DWORD PTR ___encStr$505274[ebp+4], -809202812 ; cfc48b84H
  00213	8d 45 d0	 lea	 eax, DWORD PTR ___encStr$505274[ebp]
  00216	66 c7 45 d8 9e
	00		 mov	 WORD PTR ___encStr$505274[ebp+8], 158 ; 0000009eH
  0021c	59		 pop	 ecx
$LL539@LoadProper:
  0021d	31 38		 xor	 DWORD PTR [eax], edi
  0021f	83 c0 04	 add	 eax, 4
  00222	49		 dec	 ecx
  00223	75 f8		 jne	 SHORT $LL539@LoadProper
  00225	80 75 d8 ed	 xor	 BYTE PTR ___encStr$505274[ebp+8], -19 ; ffffffedH
  00229	8d 85 c8 fd ff
	ff		 lea	 eax, DWORD PTR _szBuf$[ebp]
  0022f	50		 push	 eax
  00230	8d 45 d0	 lea	 eax, DWORD PTR ___encStr$505274[ebp]
  00233	50		 push	 eax
  00234	8d 85 c4 fc ff
	ff		 lea	 eax, DWORD PTR _szGroupName$[ebp]
  0023a	50		 push	 eax
  0023b	ff d6		 call	 esi

; 55   : 		LoadFile( szGroupName );

  0023d	8b 8d 28 f9 ff
	ff		 mov	 ecx, DWORD PTR _this$GSCopy$[ebp]
  00243	83 c4 0c	 add	 esp, 12			; 0000000cH
  00246	8d 85 c4 fc ff
	ff		 lea	 eax, DWORD PTR _szGroupName$[ebp]
  0024c	50		 push	 eax
  0024d	e8 00 00 00 00	 call	 ?LoadFile@ioShopItemExtraInfoManager@@QAEXPBD@Z ; ioShopItemExtraInfoManager::LoadFile
  00252	ff 85 30 f9 ff
	ff		 inc	 DWORD PTR _i$505114[ebp]
  00258	8b 85 30 f9 ff
	ff		 mov	 eax, DWORD PTR _i$505114[ebp]
  0025e	3b 85 2c f9 ff
	ff		 cmp	 eax, DWORD PTR _nGroupCnt$[ebp]
  00264	0f 8c 2e ff ff
	ff		 jl	 $LN201@LoadProper
$LN199@LoadProper:

; 56   : 	}	
; 57   : }

  0026a	83 4d fc ff	 or	 DWORD PTR __$EHRec$[ebp+8], -1
  0026e	8d 8d 34 f9 ff
	ff		 lea	 ecx, DWORD PTR _kLoader$[ebp]
  00274	ff 15 00 00 00
	00		 call	 DWORD PTR __imp_??1ioINILoader@@QAE@XZ
  0027a	e8 00 00 00 00	 call	 __EH_epilog3_GS
  0027f	c3		 ret	 0
_TEXT	ENDS
;	COMDAT text$x
text$x	SEGMENT
__unwindfunclet$?LoadProperty@ioShopItemExtraInfoManager@@QAEXXZ$0:
  00000	8d 8d 34 f9 ff
	ff		 lea	 ecx, DWORD PTR _kLoader$[ebp]
  00006	e9 00 00 00 00	 jmp	 ??1ioINILoader_e@@QAE@XZ
__ehhandler$?LoadProperty@ioShopItemExtraInfoManager@@QAEXXZ:
  0000b	8b 54 24 08	 mov	 edx, DWORD PTR [esp+8]
  0000f	8d 42 0c	 lea	 eax, DWORD PTR [edx+12]
  00012	8b 8a 24 f9 ff
	ff		 mov	 ecx, DWORD PTR [edx-1756]
  00018	33 c8		 xor	 ecx, eax
  0001a	e8 00 00 00 00	 call	 @__security_check_cookie@4
  0001f	8b 4a fc	 mov	 ecx, DWORD PTR [edx-4]
  00022	33 c8		 xor	 ecx, eax
  00024	e8 00 00 00 00	 call	 @__security_check_cookie@4
  00029	b8 00 00 00 00	 mov	 eax, OFFSET __ehfuncinfo$?LoadProperty@ioShopItemExtraInfoManager@@QAEXXZ
  0002e	e9 00 00 00 00	 jmp	 ___CxxFrameHandler3
text$x	ENDS
?LoadProperty@ioShopItemExtraInfoManager@@QAEXXZ ENDP	; ioShopItemExtraInfoManager::LoadProperty
END
