; Listing generated by Microsoft (R) Optimizing Compiler Version 16.00.30319.01 

	TITLE	D:\Lost Saga For Developer\Youtube\Tutorial\Source\src\LSClient\ioSimpleEvent.cpp
	.686P
	.XMM
	include listing.inc
	.model	flat

INCLUDELIB MSVCRT
INCLUDELIB OLDNAMES

PUBLIC	?return1@@YAIXZ					; return1
; Function compile flags: /Ogsp
; File d:\lost saga for developer\youtube\tutorial\source\src\lsclient\stdafx.h
;	COMDAT ?return1@@YAIXZ
_TEXT	SEGMENT
?return1@@YAIXZ PROC					; return1, COMDAT

; 17   : 	__forceinline unsigned int return1() { __asm mov eax, 1 };

  00000	b8 01 00 00 00	 mov	 eax, 1
  00005	c3		 ret	 0
?return1@@YAIXZ ENDP					; return1
_TEXT	ENDS
PUBLIC	?return5@@YAIXZ					; return5
; Function compile flags: /Ogsp
;	COMDAT ?return5@@YAIXZ
_TEXT	SEGMENT
?return5@@YAIXZ PROC					; return5, COMDAT

; 18   : 	__forceinline unsigned int return5() { __asm mov eax, 5 };

  00000	b8 05 00 00 00	 mov	 eax, 5
  00005	c3		 ret	 0
?return5@@YAIXZ ENDP					; return5
_TEXT	ENDS
PUBLIC	?return10@@YAIXZ				; return10
; Function compile flags: /Ogsp
;	COMDAT ?return10@@YAIXZ
_TEXT	SEGMENT
?return10@@YAIXZ PROC					; return10, COMDAT

; 21   : 	__forceinline unsigned int return10() { __asm mov eax, 10 };

  00000	b8 0a 00 00 00	 mov	 eax, 10			; 0000000aH
  00005	c3		 ret	 0
?return10@@YAIXZ ENDP					; return10
_TEXT	ENDS
PUBLIC	??_7ioSimpleEvent@@6B@				; ioSimpleEvent::`vftable'
PUBLIC	??1ioSimpleEvent@@UAE@XZ			; ioSimpleEvent::~ioSimpleEvent
PUBLIC	??_R4ioSimpleEvent@@6B@				; ioSimpleEvent::`RTTI Complete Object Locator'
PUBLIC	??_R0?AVioSimpleEvent@@@8			; ioSimpleEvent `RTTI Type Descriptor'
PUBLIC	??_R3ioSimpleEvent@@8				; ioSimpleEvent::`RTTI Class Hierarchy Descriptor'
PUBLIC	??_R2ioSimpleEvent@@8				; ioSimpleEvent::`RTTI Base Class Array'
PUBLIC	??_R1A@?0A@EA@ioSimpleEvent@@8			; ioSimpleEvent::`RTTI Base Class Descriptor at (0,-1,0,64)'
PUBLIC	??_R1A@?0A@EA@ioCameraEvent@@8			; ioCameraEvent::`RTTI Base Class Descriptor at (0,-1,0,64)'
PUBLIC	??_R0?AVioCameraEvent@@@8			; ioCameraEvent `RTTI Type Descriptor'
PUBLIC	??_R3ioCameraEvent@@8				; ioCameraEvent::`RTTI Class Hierarchy Descriptor'
PUBLIC	??_R2ioCameraEvent@@8				; ioCameraEvent::`RTTI Base Class Array'
PUBLIC	?LoadProperty@ioSimpleEvent@@UAEXAAVioINILoader@@@Z ; ioSimpleEvent::LoadProperty
PUBLIC	?GetType@ioSimpleEvent@@UBE?AW4CameraEvnetType@ioCameraEvent@@XZ ; ioSimpleEvent::GetType
PUBLIC	?Clone@ioSimpleEvent@@UAEPAVioCameraEvent@@XZ	; ioSimpleEvent::Clone
PUBLIC	?ProcessCameraEvent@ioSimpleEvent@@UAE?AUD3DXVECTOR3@@U2@0MUD3DXQUATERNION@@@Z ; ioSimpleEvent::ProcessCameraEvent
PUBLIC	?CheckOffSet@ioSimpleEvent@@UAE?AUD3DXVECTOR3@@U2@UD3DXQUATERNION@@@Z ; ioSimpleEvent::CheckOffSet
PUBLIC	?IsForceLookTargetChar@ioSimpleEvent@@UBE_NXZ	; ioSimpleEvent::IsForceLookTargetChar
PUBLIC	?GetCameraFov@ioSimpleEvent@@UAEMXZ		; ioSimpleEvent::GetCameraFov
PUBLIC	?GetCameraRoll@ioSimpleEvent@@UAEMXZ		; ioSimpleEvent::GetCameraRoll
EXTRN	??1ioCameraEvent@@UAE@XZ:PROC			; ioCameraEvent::~ioCameraEvent
EXTRN	??_7type_info@@6B@:QWORD			; type_info::`vftable'
EXTRN	??_EioSimpleEvent@@UAEPAXI@Z:PROC		; ioSimpleEvent::`vector deleting destructor'
;	COMDAT ??_R2ioCameraEvent@@8
; File d:\lost saga for developer\youtube\tutorial\source\src\lsclient\iosimpleevent.cpp
rdata$r	SEGMENT
??_R2ioCameraEvent@@8 DD FLAT:??_R1A@?0A@EA@ioCameraEvent@@8 ; ioCameraEvent::`RTTI Base Class Array'
rdata$r	ENDS
;	COMDAT ??_R3ioCameraEvent@@8
rdata$r	SEGMENT
??_R3ioCameraEvent@@8 DD 00H				; ioCameraEvent::`RTTI Class Hierarchy Descriptor'
	DD	00H
	DD	01H
	DD	FLAT:??_R2ioCameraEvent@@8
rdata$r	ENDS
;	COMDAT ??_R0?AVioCameraEvent@@@8
_DATA	SEGMENT
??_R0?AVioCameraEvent@@@8 DD FLAT:??_7type_info@@6B@	; ioCameraEvent `RTTI Type Descriptor'
	DD	00H
	DB	'.?AVioCameraEvent@@', 00H
_DATA	ENDS
;	COMDAT ??_R1A@?0A@EA@ioCameraEvent@@8
rdata$r	SEGMENT
??_R1A@?0A@EA@ioCameraEvent@@8 DD FLAT:??_R0?AVioCameraEvent@@@8 ; ioCameraEvent::`RTTI Base Class Descriptor at (0,-1,0,64)'
	DD	00H
	DD	00H
	DD	0ffffffffH
	DD	00H
	DD	040H
	DD	FLAT:??_R3ioCameraEvent@@8
rdata$r	ENDS
;	COMDAT ??_R1A@?0A@EA@ioSimpleEvent@@8
rdata$r	SEGMENT
??_R1A@?0A@EA@ioSimpleEvent@@8 DD FLAT:??_R0?AVioSimpleEvent@@@8 ; ioSimpleEvent::`RTTI Base Class Descriptor at (0,-1,0,64)'
	DD	01H
	DD	00H
	DD	0ffffffffH
	DD	00H
	DD	040H
	DD	FLAT:??_R3ioSimpleEvent@@8
rdata$r	ENDS
;	COMDAT ??_R2ioSimpleEvent@@8
rdata$r	SEGMENT
??_R2ioSimpleEvent@@8 DD FLAT:??_R1A@?0A@EA@ioSimpleEvent@@8 ; ioSimpleEvent::`RTTI Base Class Array'
	DD	FLAT:??_R1A@?0A@EA@ioCameraEvent@@8
rdata$r	ENDS
;	COMDAT ??_R3ioSimpleEvent@@8
rdata$r	SEGMENT
??_R3ioSimpleEvent@@8 DD 00H				; ioSimpleEvent::`RTTI Class Hierarchy Descriptor'
	DD	00H
	DD	02H
	DD	FLAT:??_R2ioSimpleEvent@@8
rdata$r	ENDS
;	COMDAT ??_R0?AVioSimpleEvent@@@8
_DATA	SEGMENT
??_R0?AVioSimpleEvent@@@8 DD FLAT:??_7type_info@@6B@	; ioSimpleEvent `RTTI Type Descriptor'
	DD	00H
	DB	'.?AVioSimpleEvent@@', 00H
_DATA	ENDS
;	COMDAT ??_R4ioSimpleEvent@@6B@
rdata$r	SEGMENT
??_R4ioSimpleEvent@@6B@ DD 00H				; ioSimpleEvent::`RTTI Complete Object Locator'
	DD	00H
	DD	00H
	DD	FLAT:??_R0?AVioSimpleEvent@@@8
	DD	FLAT:??_R3ioSimpleEvent@@8
rdata$r	ENDS
;	COMDAT ??_7ioSimpleEvent@@6B@
CONST	SEGMENT
??_7ioSimpleEvent@@6B@ DD FLAT:??_R4ioSimpleEvent@@6B@	; ioSimpleEvent::`vftable'
	DD	FLAT:?LoadProperty@ioSimpleEvent@@UAEXAAVioINILoader@@@Z
	DD	FLAT:?GetType@ioSimpleEvent@@UBE?AW4CameraEvnetType@ioCameraEvent@@XZ
	DD	FLAT:?Clone@ioSimpleEvent@@UAEPAVioCameraEvent@@XZ
	DD	FLAT:?ProcessCameraEvent@ioSimpleEvent@@UAE?AUD3DXVECTOR3@@U2@0MUD3DXQUATERNION@@@Z
	DD	FLAT:?CheckOffSet@ioSimpleEvent@@UAE?AUD3DXVECTOR3@@U2@UD3DXQUATERNION@@@Z
	DD	FLAT:?IsForceLookTargetChar@ioSimpleEvent@@UBE_NXZ
	DD	FLAT:?GetCameraFov@ioSimpleEvent@@UAEMXZ
	DD	FLAT:?GetCameraRoll@ioSimpleEvent@@UAEMXZ
	DD	FLAT:??_EioSimpleEvent@@UAEPAXI@Z
; Function compile flags: /Ogsp
CONST	ENDS
;	COMDAT ??1ioSimpleEvent@@UAE@XZ
_TEXT	SEGMENT
??1ioSimpleEvent@@UAE@XZ PROC				; ioSimpleEvent::~ioSimpleEvent, COMDAT
; _this$ = ecx

; 62   : {

  00000	c7 01 00 00 00
	00		 mov	 DWORD PTR [ecx], OFFSET ??_7ioSimpleEvent@@6B@

; 63   : 	m_bSetOffSet = false;

  00006	c6 81 a4 00 00
	00 00		 mov	 BYTE PTR [ecx+164], 0

; 64   : }

  0000d	e9 00 00 00 00	 jmp	 ??1ioCameraEvent@@UAE@XZ ; ioCameraEvent::~ioCameraEvent
??1ioSimpleEvent@@UAE@XZ ENDP				; ioSimpleEvent::~ioSimpleEvent
; Function compile flags: /Ogsp
; File d:\lost saga for developer\youtube\tutorial\source\src\lsclient\iosimpleevent.h
_TEXT	ENDS
;	COMDAT ?IsForceLookTargetChar@ioSimpleEvent@@UBE_NXZ
_TEXT	SEGMENT
?IsForceLookTargetChar@ioSimpleEvent@@UBE_NXZ PROC	; ioSimpleEvent::IsForceLookTargetChar, COMDAT
; _this$ = ecx

; 69   : 	virtual bool  IsForceLookTargetChar() const { return m_bLookTargetChar; }

  00000	8a 81 a5 00 00
	00		 mov	 al, BYTE PTR [ecx+165]
  00006	c3		 ret	 0
?IsForceLookTargetChar@ioSimpleEvent@@UBE_NXZ ENDP	; ioSimpleEvent::IsForceLookTargetChar
_TEXT	ENDS
EXTRN	__fltused:DWORD
; Function compile flags: /Ogsp
;	COMDAT ?GetCameraFov@ioSimpleEvent@@UAEMXZ
_TEXT	SEGMENT
?GetCameraFov@ioSimpleEvent@@UAEMXZ PROC		; ioSimpleEvent::GetCameraFov, COMDAT
; _this$ = ecx

; 70   : 	virtual float GetCameraFov() { return m_fCurFov; }

  00000	d9 41 38	 fld	 DWORD PTR [ecx+56]
  00003	c3		 ret	 0
?GetCameraFov@ioSimpleEvent@@UAEMXZ ENDP		; ioSimpleEvent::GetCameraFov
; Function compile flags: /Ogsp
_TEXT	ENDS
;	COMDAT ?GetCameraRoll@ioSimpleEvent@@UAEMXZ
_TEXT	SEGMENT
?GetCameraRoll@ioSimpleEvent@@UAEMXZ PROC		; ioSimpleEvent::GetCameraRoll, COMDAT
; _this$ = ecx

; 71   : 	virtual float GetCameraRoll() { return m_fCurAngleZ; }

  00000	d9 81 8c 00 00
	00		 fld	 DWORD PTR [ecx+140]
  00006	c3		 ret	 0
?GetCameraRoll@ioSimpleEvent@@UAEMXZ ENDP		; ioSimpleEvent::GetCameraRoll
; Function compile flags: /Ogsp
; File d:\lost saga for developer\youtube\tutorial\source\src\lsclient\iosimpleevent.cpp
_TEXT	ENDS
;	COMDAT ?GetType@ioSimpleEvent@@UBE?AW4CameraEvnetType@ioCameraEvent@@XZ
_TEXT	SEGMENT
?GetType@ioSimpleEvent@@UBE?AW4CameraEvnetType@ioCameraEvent@@XZ PROC ; ioSimpleEvent::GetType, COMDAT
; _this$ = ecx

; 94   : 	return CET_SIMPLE;

  00000	33 c0		 xor	 eax, eax
  00002	40		 inc	 eax

; 95   : }

  00003	c3		 ret	 0
?GetType@ioSimpleEvent@@UBE?AW4CameraEvnetType@ioCameraEvent@@XZ ENDP ; ioSimpleEvent::GetType
_TEXT	ENDS
PUBLIC	_cosf
EXTRN	__CIcos:PROC
; Function compile flags: /Ogsp
; File c:\program files (x86)\microsoft visual studio 10.0\vc\include\math.h
;	COMDAT _cosf
_TEXT	SEGMENT
tv69 = 8						; size = 4
__X$ = 8						; size = 4
_cosf	PROC						; COMDAT

; 410  :         {return ((float)cos((double)_X)); }

  00000	55		 push	 ebp
  00001	8b ec		 mov	 ebp, esp
  00003	d9 45 08	 fld	 DWORD PTR __X$[ebp]
  00006	e8 00 00 00 00	 call	 __CIcos
  0000b	d9 5d 08	 fstp	 DWORD PTR tv69[ebp]
  0000e	d9 45 08	 fld	 DWORD PTR tv69[ebp]
  00011	5d		 pop	 ebp
  00012	c3		 ret	 0
_cosf	ENDP
_TEXT	ENDS
PUBLIC	_sqrtf
EXTRN	__CIsqrt:PROC
; Function compile flags: /Ogsp
;	COMDAT _sqrtf
_TEXT	SEGMENT
tv69 = 8						; size = 4
__X$ = 8						; size = 4
_sqrtf	PROC						; COMDAT

; 434  :         {return ((float)sqrt((double)_X)); }

  00000	55		 push	 ebp
  00001	8b ec		 mov	 ebp, esp
  00003	d9 45 08	 fld	 DWORD PTR __X$[ebp]
  00006	e8 00 00 00 00	 call	 __CIsqrt
  0000b	d9 5d 08	 fstp	 DWORD PTR tv69[ebp]
  0000e	d9 45 08	 fld	 DWORD PTR tv69[ebp]
  00011	5d		 pop	 ebp
  00012	c3		 ret	 0
_sqrtf	ENDP
_TEXT	ENDS
PUBLIC	__real@3f91df46a2526c7a
PUBLIC	??$DEGtoRAD@M@@YAMM@Z				; DEGtoRAD<float>
;	COMDAT __real@3f91df46a2526c7a
; File d:\lost saga for developer\youtube\tutorial\source\src\lsclient\veryoftenusedefine.h
CONST	SEGMENT
__real@3f91df46a2526c7a DQ 03f91df46a2526c7ar	; 0.0174533
; Function compile flags: /Ogsp
CONST	ENDS
;	COMDAT ??$DEGtoRAD@M@@YAMM@Z
_TEXT	SEGMENT
tv129 = 8						; size = 4
_val$ = 8						; size = 4
??$DEGtoRAD@M@@YAMM@Z PROC				; DEGtoRAD<float>, COMDAT

; 20   : type  DEGtoRAD (type val) {return (type) (val * 0.0174532925199);}

  00000	55		 push	 ebp
  00001	8b ec		 mov	 ebp, esp
  00003	d9 45 08	 fld	 DWORD PTR _val$[ebp]
  00006	dc 0d 00 00 00
	00		 fmul	 QWORD PTR __real@3f91df46a2526c7a
  0000c	d9 5d 08	 fstp	 DWORD PTR tv129[ebp]
  0000f	d9 45 08	 fld	 DWORD PTR tv129[ebp]
  00012	5d		 pop	 ebp
  00013	c3		 ret	 0
??$DEGtoRAD@M@@YAMM@Z ENDP				; DEGtoRAD<float>
_TEXT	ENDS
PUBLIC	??0D3DXVECTOR3@@QAE@XZ				; D3DXVECTOR3::D3DXVECTOR3
; Function compile flags: /Ogsp
; File c:\program files (x86)\microsoft directx sdk (june 2010)\include\d3dx9math.h
;	COMDAT ??0D3DXVECTOR3@@QAE@XZ
_TEXT	SEGMENT
??0D3DXVECTOR3@@QAE@XZ PROC				; D3DXVECTOR3::D3DXVECTOR3, COMDAT
; _this$ = ecx

; 165  :     D3DXVECTOR3() {};

  00000	8b c1		 mov	 eax, ecx
  00002	c3		 ret	 0
??0D3DXVECTOR3@@QAE@XZ ENDP				; D3DXVECTOR3::D3DXVECTOR3
_TEXT	ENDS
PUBLIC	??0D3DXQUATERNION@@QAE@XZ			; D3DXQUATERNION::D3DXQUATERNION
; Function compile flags: /Ogsp
;	COMDAT ??0D3DXQUATERNION@@QAE@XZ
_TEXT	SEGMENT
??0D3DXQUATERNION@@QAE@XZ PROC				; D3DXQUATERNION::D3DXQUATERNION, COMDAT
; _this$ = ecx

; 429  :     D3DXQUATERNION() {}

  00000	8b c1		 mov	 eax, ecx
  00002	c3		 ret	 0
??0D3DXQUATERNION@@QAE@XZ ENDP				; D3DXQUATERNION::D3DXQUATERNION
_TEXT	ENDS
PUBLIC	??0D3DXVECTOR3@@QAE@MMM@Z			; D3DXVECTOR3::D3DXVECTOR3
; Function compile flags: /Ogsp
; File c:\program files (x86)\microsoft directx sdk (june 2010)\include\d3dx9math.inl
;	COMDAT ??0D3DXVECTOR3@@QAE@MMM@Z
_TEXT	SEGMENT
_fx$ = 8						; size = 4
_fy$ = 12						; size = 4
_fz$ = 16						; size = 4
??0D3DXVECTOR3@@QAE@MMM@Z PROC				; D3DXVECTOR3::D3DXVECTOR3, COMDAT
; _this$ = ecx

; 303  : {

  00000	55		 push	 ebp
  00001	8b ec		 mov	 ebp, esp

; 304  :     x = fx;

  00003	f3 0f 10 45 08	 movss	 xmm0, DWORD PTR _fx$[ebp]
  00008	8b c1		 mov	 eax, ecx
  0000a	f3 0f 11 00	 movss	 DWORD PTR [eax], xmm0

; 305  :     y = fy;

  0000e	f3 0f 10 45 0c	 movss	 xmm0, DWORD PTR _fy$[ebp]
  00013	f3 0f 11 40 04	 movss	 DWORD PTR [eax+4], xmm0

; 306  :     z = fz;

  00018	f3 0f 10 45 10	 movss	 xmm0, DWORD PTR _fz$[ebp]
  0001d	f3 0f 11 40 08	 movss	 DWORD PTR [eax+8], xmm0

; 307  : }

  00022	5d		 pop	 ebp
  00023	c2 0c 00	 ret	 12			; 0000000cH
??0D3DXVECTOR3@@QAE@MMM@Z ENDP				; D3DXVECTOR3::D3DXVECTOR3
_TEXT	ENDS
PUBLIC	??HD3DXVECTOR3@@QBE?AU0@ABU0@@Z			; D3DXVECTOR3::operator+
; Function compile flags: /Ogsp
;	COMDAT ??HD3DXVECTOR3@@QBE?AU0@ABU0@@Z
_TEXT	SEGMENT
___$ReturnUdt$ = 8					; size = 4
_v$ = 12						; size = 4
??HD3DXVECTOR3@@QBE?AU0@ABU0@@Z PROC			; D3DXVECTOR3::operator+, COMDAT
; _this$ = ecx

; 380  : {

  00000	55		 push	 ebp
  00001	8b ec		 mov	 ebp, esp

; 381  :     return D3DXVECTOR3(x + v.x, y + v.y, z + v.z);

  00003	8b 55 0c	 mov	 edx, DWORD PTR _v$[ebp]
  00006	f3 0f 10 02	 movss	 xmm0, DWORD PTR [edx]
  0000a	f3 0f 10 09	 movss	 xmm1, DWORD PTR [ecx]
  0000e	8b 45 08	 mov	 eax, DWORD PTR ___$ReturnUdt$[ebp]
  00011	0f 5a c0	 cvtps2pd xmm0, xmm0
  00014	0f 5a c9	 cvtps2pd xmm1, xmm1
  00017	f2 0f 58 c1	 addsd	 xmm0, xmm1
  0001b	f3 0f 10 49 04	 movss	 xmm1, DWORD PTR [ecx+4]
  00020	66 0f 5a c0	 cvtpd2ps xmm0, xmm0
  00024	f3 0f 11 00	 movss	 DWORD PTR [eax], xmm0
  00028	f3 0f 10 42 04	 movss	 xmm0, DWORD PTR [edx+4]
  0002d	0f 5a c0	 cvtps2pd xmm0, xmm0
  00030	0f 5a c9	 cvtps2pd xmm1, xmm1
  00033	f2 0f 58 c1	 addsd	 xmm0, xmm1
  00037	f3 0f 10 49 08	 movss	 xmm1, DWORD PTR [ecx+8]
  0003c	66 0f 5a c0	 cvtpd2ps xmm0, xmm0
  00040	f3 0f 11 40 04	 movss	 DWORD PTR [eax+4], xmm0
  00045	f3 0f 10 42 08	 movss	 xmm0, DWORD PTR [edx+8]
  0004a	0f 5a c0	 cvtps2pd xmm0, xmm0
  0004d	0f 5a c9	 cvtps2pd xmm1, xmm1
  00050	f2 0f 58 c1	 addsd	 xmm0, xmm1
  00054	66 0f 5a c0	 cvtpd2ps xmm0, xmm0
  00058	f3 0f 11 40 08	 movss	 DWORD PTR [eax+8], xmm0

; 382  : }

  0005d	5d		 pop	 ebp
  0005e	c2 08 00	 ret	 8
??HD3DXVECTOR3@@QBE?AU0@ABU0@@Z ENDP			; D3DXVECTOR3::operator+
_TEXT	ENDS
PUBLIC	??GD3DXVECTOR3@@QBE?AU0@ABU0@@Z			; D3DXVECTOR3::operator-
; Function compile flags: /Ogsp
;	COMDAT ??GD3DXVECTOR3@@QBE?AU0@ABU0@@Z
_TEXT	SEGMENT
___$ReturnUdt$ = 8					; size = 4
_v$ = 12						; size = 4
??GD3DXVECTOR3@@QBE?AU0@ABU0@@Z PROC			; D3DXVECTOR3::operator-, COMDAT
; _this$ = ecx

; 386  : {

  00000	55		 push	 ebp
  00001	8b ec		 mov	 ebp, esp

; 387  :     return D3DXVECTOR3(x - v.x, y - v.y, z - v.z);

  00003	8b 55 0c	 mov	 edx, DWORD PTR _v$[ebp]
  00006	f3 0f 10 01	 movss	 xmm0, DWORD PTR [ecx]
  0000a	f3 0f 10 0a	 movss	 xmm1, DWORD PTR [edx]
  0000e	8b 45 08	 mov	 eax, DWORD PTR ___$ReturnUdt$[ebp]
  00011	0f 5a c0	 cvtps2pd xmm0, xmm0
  00014	0f 5a c9	 cvtps2pd xmm1, xmm1
  00017	f2 0f 5c c1	 subsd	 xmm0, xmm1
  0001b	f3 0f 10 4a 04	 movss	 xmm1, DWORD PTR [edx+4]
  00020	66 0f 5a c0	 cvtpd2ps xmm0, xmm0
  00024	f3 0f 11 00	 movss	 DWORD PTR [eax], xmm0
  00028	f3 0f 10 41 04	 movss	 xmm0, DWORD PTR [ecx+4]
  0002d	0f 5a c0	 cvtps2pd xmm0, xmm0
  00030	0f 5a c9	 cvtps2pd xmm1, xmm1
  00033	f2 0f 5c c1	 subsd	 xmm0, xmm1
  00037	f3 0f 10 4a 08	 movss	 xmm1, DWORD PTR [edx+8]
  0003c	66 0f 5a c0	 cvtpd2ps xmm0, xmm0
  00040	f3 0f 11 40 04	 movss	 DWORD PTR [eax+4], xmm0
  00045	f3 0f 10 41 08	 movss	 xmm0, DWORD PTR [ecx+8]
  0004a	0f 5a c0	 cvtps2pd xmm0, xmm0
  0004d	0f 5a c9	 cvtps2pd xmm1, xmm1
  00050	f2 0f 5c c1	 subsd	 xmm0, xmm1
  00054	66 0f 5a c0	 cvtpd2ps xmm0, xmm0
  00058	f3 0f 11 40 08	 movss	 DWORD PTR [eax+8], xmm0

; 388  : }

  0005d	5d		 pop	 ebp
  0005e	c2 08 00	 ret	 8
??GD3DXVECTOR3@@QBE?AU0@ABU0@@Z ENDP			; D3DXVECTOR3::operator-
_TEXT	ENDS
PUBLIC	??DD3DXVECTOR3@@QBE?AU0@M@Z			; D3DXVECTOR3::operator*
; Function compile flags: /Ogsp
;	COMDAT ??DD3DXVECTOR3@@QBE?AU0@M@Z
_TEXT	SEGMENT
___$ReturnUdt$ = 8					; size = 4
_f$ = 12						; size = 4
??DD3DXVECTOR3@@QBE?AU0@M@Z PROC			; D3DXVECTOR3::operator*, COMDAT
; _this$ = ecx

; 392  : {

  00000	55		 push	 ebp
  00001	8b ec		 mov	 ebp, esp

; 393  :     return D3DXVECTOR3(x * f, y * f, z * f);

  00003	f3 0f 10 4d 0c	 movss	 xmm1, DWORD PTR _f$[ebp]
  00008	f3 0f 10 01	 movss	 xmm0, DWORD PTR [ecx]
  0000c	8b 45 08	 mov	 eax, DWORD PTR ___$ReturnUdt$[ebp]
  0000f	0f 5a c0	 cvtps2pd xmm0, xmm0
  00012	0f 5a c9	 cvtps2pd xmm1, xmm1
  00015	f2 0f 59 c1	 mulsd	 xmm0, xmm1
  00019	f3 0f 10 4d 0c	 movss	 xmm1, DWORD PTR _f$[ebp]
  0001e	66 0f 5a c0	 cvtpd2ps xmm0, xmm0
  00022	f3 0f 11 00	 movss	 DWORD PTR [eax], xmm0
  00026	f3 0f 10 41 04	 movss	 xmm0, DWORD PTR [ecx+4]
  0002b	0f 5a c0	 cvtps2pd xmm0, xmm0
  0002e	0f 5a c9	 cvtps2pd xmm1, xmm1
  00031	f2 0f 59 c1	 mulsd	 xmm0, xmm1
  00035	f3 0f 10 4d 0c	 movss	 xmm1, DWORD PTR _f$[ebp]
  0003a	66 0f 5a c0	 cvtpd2ps xmm0, xmm0
  0003e	f3 0f 11 40 04	 movss	 DWORD PTR [eax+4], xmm0
  00043	f3 0f 10 41 08	 movss	 xmm0, DWORD PTR [ecx+8]
  00048	0f 5a c0	 cvtps2pd xmm0, xmm0
  0004b	0f 5a c9	 cvtps2pd xmm1, xmm1
  0004e	f2 0f 59 c1	 mulsd	 xmm0, xmm1
  00052	66 0f 5a c0	 cvtpd2ps xmm0, xmm0
  00056	f3 0f 11 40 08	 movss	 DWORD PTR [eax+8], xmm0

; 394  : }

  0005b	5d		 pop	 ebp
  0005c	c2 08 00	 ret	 8
??DD3DXVECTOR3@@QBE?AU0@M@Z ENDP			; D3DXVECTOR3::operator*
_TEXT	ENDS
PUBLIC	?D3DXVec3Length@@YAMPBUD3DXVECTOR3@@@Z		; D3DXVec3Length
; Function compile flags: /Ogsp
;	COMDAT ?D3DXVec3Length@@YAMPBUD3DXVECTOR3@@@Z
_TEXT	SEGMENT
tv169 = 8						; size = 4
tv160 = 8						; size = 4
_pV$ = 8						; size = 4
?D3DXVec3Length@@YAMPBUD3DXVECTOR3@@@Z PROC		; D3DXVec3Length, COMDAT

; 1710 : {

  00000	55		 push	 ebp
  00001	8b ec		 mov	 ebp, esp

; 1711 : #ifdef D3DX_DEBUG
; 1712 :     if(!pV)
; 1713 :         return 0.0f;
; 1714 : #endif
; 1715 : 
; 1716 : #ifdef __cplusplus
; 1717 :     return sqrtf(pV->x * pV->x + pV->y * pV->y + pV->z * pV->z);

  00003	8b 45 08	 mov	 eax, DWORD PTR _pV$[ebp]
  00006	d9 40 04	 fld	 DWORD PTR [eax+4]
  00009	d9 00		 fld	 DWORD PTR [eax]
  0000b	d9 40 08	 fld	 DWORD PTR [eax+8]
  0000e	d9 c1		 fld	 ST(1)
  00010	de ca		 fmulp	 ST(2), ST(0)
  00012	d9 c2		 fld	 ST(2)
  00014	de cb		 fmulp	 ST(3), ST(0)
  00016	d9 c9		 fxch	 ST(1)
  00018	de c2		 faddp	 ST(2), ST(0)
  0001a	d9 c0		 fld	 ST(0)
  0001c	de c9		 fmulp	 ST(1), ST(0)
  0001e	de c1		 faddp	 ST(1), ST(0)
  00020	d9 5d 08	 fstp	 DWORD PTR tv169[ebp]
  00023	d9 45 08	 fld	 DWORD PTR tv169[ebp]
  00026	e8 00 00 00 00	 call	 __CIsqrt
  0002b	d9 5d 08	 fstp	 DWORD PTR tv160[ebp]
  0002e	d9 45 08	 fld	 DWORD PTR tv160[ebp]

; 1718 : #else
; 1719 :     return (FLOAT) sqrt(pV->x * pV->x + pV->y * pV->y + pV->z * pV->z);
; 1720 : #endif
; 1721 : }

  00031	5d		 pop	 ebp
  00032	c3		 ret	 0
?D3DXVec3Length@@YAMPBUD3DXVECTOR3@@@Z ENDP		; D3DXVec3Length
_TEXT	ENDS
PUBLIC	__real@3f800000
PUBLIC	?D3DXQuaternionIdentity@@YAPAUD3DXQUATERNION@@PAU1@@Z ; D3DXQuaternionIdentity
;	COMDAT __real@3f800000
CONST	SEGMENT
__real@3f800000 DD 03f800000r			; 1
; Function compile flags: /Ogsp
CONST	ENDS
;	COMDAT ?D3DXQuaternionIdentity@@YAPAUD3DXQUATERNION@@PAU1@@Z
_TEXT	SEGMENT
_pOut$ = 8						; size = 4
?D3DXQuaternionIdentity@@YAPAUD3DXQUATERNION@@PAU1@@Z PROC ; D3DXQuaternionIdentity, COMDAT

; 2063 : {

  00000	55		 push	 ebp
  00001	8b ec		 mov	 ebp, esp

; 2064 : #ifdef D3DX_DEBUG
; 2065 :     if(!pOut)
; 2066 :         return NULL;
; 2067 : #endif
; 2068 : 
; 2069 :     pOut->x = pOut->y = pOut->z = 0.0f;

  00003	8b 45 08	 mov	 eax, DWORD PTR _pOut$[ebp]
  00006	0f 57 c0	 xorps	 xmm0, xmm0
  00009	f3 0f 11 40 08	 movss	 DWORD PTR [eax+8], xmm0
  0000e	f3 0f 11 40 04	 movss	 DWORD PTR [eax+4], xmm0
  00013	f3 0f 11 00	 movss	 DWORD PTR [eax], xmm0

; 2070 :     pOut->w = 1.0f;

  00017	f3 0f 10 05 00
	00 00 00	 movss	 xmm0, DWORD PTR __real@3f800000
  0001f	f3 0f 11 40 0c	 movss	 DWORD PTR [eax+12], xmm0

; 2071 :     return pOut;
; 2072 : }

  00024	5d		 pop	 ebp
  00025	c3		 ret	 0
?D3DXQuaternionIdentity@@YAPAUD3DXQUATERNION@@PAU1@@Z ENDP ; D3DXQuaternionIdentity
_TEXT	ENDS
PUBLIC	?_DECSTR@@YAXPADH@Z				; _DECSTR
; Function compile flags: /Ogsp
; File d:\lost saga for developer\youtube\tutorial\source\src\lsclient\stringprotect.h
;	COMDAT ?_DECSTR@@YAXPADH@Z
_TEXT	SEGMENT
_s$ = 8							; size = 4
_l$ = 12						; size = 4
?_DECSTR@@YAXPADH@Z PROC				; _DECSTR, COMDAT

; 40   : __forceinline void _DECSTR(char* s, int l){int i=0,l4=(l-1)/4,*p=(int*)s;s[l-1]=0;for(;i<l4;++i)*(p++)^=0xEAEBECED;for(i=l4*4;i<l-1;++i)s[i]^=0xED-i%4;}

  00000	55		 push	 ebp
  00001	8b ec		 mov	 ebp, esp
  00003	8b 4d 0c	 mov	 ecx, DWORD PTR _l$[ebp]
  00006	56		 push	 esi
  00007	8b 75 08	 mov	 esi, DWORD PTR _s$[ebp]
  0000a	57		 push	 edi
  0000b	8d 79 ff	 lea	 edi, DWORD PTR [ecx-1]
  0000e	8b c7		 mov	 eax, edi
  00010	99		 cdq
  00011	83 e2 03	 and	 edx, 3
  00014	03 c2		 add	 eax, edx
  00016	c1 f8 02	 sar	 eax, 2
  00019	8b d6		 mov	 edx, esi
  0001b	c6 44 0e ff 00	 mov	 BYTE PTR [esi+ecx-1], 0
  00020	85 c0		 test	 eax, eax
  00022	7e 0e		 jle	 SHORT $LN4@DECSTR
  00024	8b c8		 mov	 ecx, eax
$LL6@DECSTR:
  00026	81 32 ed ec eb
	ea		 xor	 DWORD PTR [edx], -353637139 ; eaebecedH
  0002c	83 c2 04	 add	 edx, 4
  0002f	49		 dec	 ecx
  00030	75 f4		 jne	 SHORT $LL6@DECSTR
$LN4@DECSTR:
  00032	c1 e0 02	 shl	 eax, 2
  00035	eb 17		 jmp	 SHORT $LN14@DECSTR
$LL3@DECSTR:
  00037	8b c8		 mov	 ecx, eax
  00039	81 e1 03 00 00
	80		 and	 ecx, -2147483645	; 80000003H
  0003f	79 05		 jns	 SHORT $LN13@DECSTR
  00041	49		 dec	 ecx
  00042	83 c9 fc	 or	 ecx, -4			; fffffffcH
  00045	41		 inc	 ecx
$LN13@DECSTR:
  00046	b2 ed		 mov	 dl, -19			; ffffffedH
  00048	2a d1		 sub	 dl, cl
  0004a	30 14 30	 xor	 BYTE PTR [eax+esi], dl
  0004d	40		 inc	 eax
$LN14@DECSTR:
  0004e	3b c7		 cmp	 eax, edi
  00050	7c e5		 jl	 SHORT $LL3@DECSTR
  00052	5f		 pop	 edi
  00053	5e		 pop	 esi
  00054	5d		 pop	 ebp
  00055	c3		 ret	 0
?_DECSTR@@YAXPADH@Z ENDP				; _DECSTR
_TEXT	ENDS
PUBLIC	??0ioSimpleEvent@@QAE@XZ			; ioSimpleEvent::ioSimpleEvent
EXTRN	??0ioCameraEvent@@QAE@XZ:PROC			; ioCameraEvent::ioCameraEvent
; Function compile flags: /Ogsp
; File d:\lost saga for developer\youtube\tutorial\source\src\lsclient\iosimpleevent.cpp
;	COMDAT ??0ioSimpleEvent@@QAE@XZ
_TEXT	SEGMENT
??0ioSimpleEvent@@QAE@XZ PROC				; ioSimpleEvent::ioSimpleEvent, COMDAT
; _this$ = ecx

; 8    : {

  00000	56		 push	 esi
  00001	8b f1		 mov	 esi, ecx
  00003	e8 00 00 00 00	 call	 ??0ioCameraEvent@@QAE@XZ ; ioCameraEvent::ioCameraEvent

; 9    : 	m_fZoomDistance = 0.0f;

  00008	0f 57 c0	 xorps	 xmm0, xmm0

; 10   : 	m_dwZoomInStartTime = 0;

  0000b	33 c0		 xor	 eax, eax
  0000d	f3 0f 11 46 28	 movss	 DWORD PTR [esi+40], xmm0
  00012	89 46 48	 mov	 DWORD PTR [esi+72], eax

; 11   : 	m_dwZoomStayStartTime = 0;

  00015	89 46 4c	 mov	 DWORD PTR [esi+76], eax

; 12   : 	m_dwZoomOutStartTime = 0;

  00018	89 46 50	 mov	 DWORD PTR [esi+80], eax

; 13   : 	m_fCurFov = 0.0f;

  0001b	f3 0f 11 46 38	 movss	 DWORD PTR [esi+56], xmm0

; 14   : 	m_fStartFov = 0.0f;

  00020	f3 0f 11 46 34	 movss	 DWORD PTR [esi+52], xmm0

; 15   : 	m_fCurAngleX = 0.0f;

  00025	f3 0f 11 46 7c	 movss	 DWORD PTR [esi+124], xmm0

; 16   : 	m_fCurAngleY = 0.0f;

  0002a	f3 0f 11 86 84
	00 00 00	 movss	 DWORD PTR [esi+132], xmm0

; 17   : 	m_fCurAngleZ = 0.0f;

  00032	f3 0f 11 86 8c
	00 00 00	 movss	 DWORD PTR [esi+140], xmm0

; 18   : 	m_bCameraEventStart = false;

  0003a	66 89 46 0c	 mov	 WORD PTR [esi+12], ax

; 19   : 	m_bCameraEventEnd = false;
; 20   : 	m_bSetOffSet = false;

  0003e	66 89 86 a4 00
	00 00		 mov	 WORD PTR [esi+164], ax

; 21   : 	m_bLookTargetChar = false;
; 22   : 	m_bAutoRepeat = false;

  00045	88 86 a6 00 00
	00		 mov	 BYTE PTR [esi+166], al
  0004b	c7 06 00 00 00
	00		 mov	 DWORD PTR [esi], OFFSET ??_7ioSimpleEvent@@6B@

; 23   : 
; 24   : 	D3DXQuaternionIdentity( &m_qtTarget );

  00051	f3 0f 11 46 60	 movss	 DWORD PTR [esi+96], xmm0
  00056	f3 0f 11 46 5c	 movss	 DWORD PTR [esi+92], xmm0
  0005b	f3 0f 11 46 58	 movss	 DWORD PTR [esi+88], xmm0
  00060	f3 0f 10 05 00
	00 00 00	 movss	 xmm0, DWORD PTR __real@3f800000
  00068	f3 0f 11 46 64	 movss	 DWORD PTR [esi+100], xmm0

; 25   : 	m_dwEventState = SE_NONE;

  0006d	89 46 54	 mov	 DWORD PTR [esi+84], eax

; 26   : }

  00070	8b c6		 mov	 eax, esi
  00072	5e		 pop	 esi
  00073	c3		 ret	 0
??0ioSimpleEvent@@QAE@XZ ENDP				; ioSimpleEvent::ioSimpleEvent
_TEXT	ENDS
EXTRN	??3@YAXPAX@Z:PROC				; operator delete
; Function compile flags: /Ogsp
;	COMDAT ??_GioSimpleEvent@@UAEPAXI@Z
_TEXT	SEGMENT
___flags$ = 8						; size = 4
??_GioSimpleEvent@@UAEPAXI@Z PROC			; ioSimpleEvent::`scalar deleting destructor', COMDAT
; _this$ = ecx
  00000	55		 push	 ebp
  00001	8b ec		 mov	 ebp, esp
  00003	56		 push	 esi
  00004	8b f1		 mov	 esi, ecx
  00006	e8 00 00 00 00	 call	 ??1ioSimpleEvent@@UAE@XZ ; ioSimpleEvent::~ioSimpleEvent
  0000b	f6 45 08 01	 test	 BYTE PTR ___flags$[ebp], 1
  0000f	74 07		 je	 SHORT $LN1@scalar
  00011	56		 push	 esi
  00012	e8 00 00 00 00	 call	 ??3@YAXPAX@Z		; operator delete
  00017	59		 pop	 ecx
$LN1@scalar:
  00018	8b c6		 mov	 eax, esi
  0001a	5e		 pop	 esi
  0001b	5d		 pop	 ebp
  0001c	c2 04 00	 ret	 4
??_GioSimpleEvent@@UAEPAXI@Z ENDP			; ioSimpleEvent::`scalar deleting destructor'
_TEXT	ENDS
PUBLIC	??0ioSimpleEvent@@QAE@ABV0@@Z			; ioSimpleEvent::ioSimpleEvent
EXTRN	??0ioCameraEvent@@QAE@ABV0@@Z:PROC		; ioCameraEvent::ioCameraEvent
; Function compile flags: /Ogsp
;	COMDAT ??0ioSimpleEvent@@QAE@ABV0@@Z
_TEXT	SEGMENT
_rhs$ = 8						; size = 4
??0ioSimpleEvent@@QAE@ABV0@@Z PROC			; ioSimpleEvent::ioSimpleEvent, COMDAT
; _this$ = ecx

; 41   : {

  00000	55		 push	 ebp
  00001	8b ec		 mov	 ebp, esp
  00003	56		 push	 esi
  00004	57		 push	 edi
  00005	8b 7d 08	 mov	 edi, DWORD PTR _rhs$[ebp]
  00008	57		 push	 edi
  00009	8b f1		 mov	 esi, ecx
  0000b	e8 00 00 00 00	 call	 ??0ioCameraEvent@@QAE@ABV0@@Z ; ioCameraEvent::ioCameraEvent
  00010	c7 06 00 00 00
	00		 mov	 DWORD PTR [esi], OFFSET ??_7ioSimpleEvent@@6B@
  00016	d9 47 2c	 fld	 DWORD PTR [edi+44]
  00019	d9 5e 2c	 fstp	 DWORD PTR [esi+44]

; 42   : 	m_iEventCode = rhs.m_iEventCode;
; 43   : 	m_bLookTargetChar = rhs.m_bLookTargetChar;
; 44   : 
; 45   : 	m_dwZoomInStartTime = 0;
; 46   : 	m_dwZoomStayStartTime = 0;
; 47   : 	m_dwZoomOutStartTime = 0;
; 48   : 	m_dwEventState = SE_NONE;
; 49   : 	m_bCameraEventStart = false;
; 50   : 	m_bCameraEventEnd = false;
; 51   : 	m_bSetOffSet = false;
; 52   : 	m_fZoomDistance = 0.0f;

  0001c	0f 57 c0	 xorps	 xmm0, xmm0
  0001f	d9 47 30	 fld	 DWORD PTR [edi+48]
  00022	d9 5e 30	 fstp	 DWORD PTR [esi+48]
  00025	8b 47 3c	 mov	 eax, DWORD PTR [edi+60]
  00028	89 46 3c	 mov	 DWORD PTR [esi+60], eax
  0002b	8b 47 40	 mov	 eax, DWORD PTR [edi+64]
  0002e	89 46 40	 mov	 DWORD PTR [esi+64], eax
  00031	8b 47 44	 mov	 eax, DWORD PTR [edi+68]
  00034	89 46 44	 mov	 DWORD PTR [esi+68], eax
  00037	d9 47 78	 fld	 DWORD PTR [edi+120]
  0003a	d9 5e 78	 fstp	 DWORD PTR [esi+120]
  0003d	d9 87 80 00 00
	00		 fld	 DWORD PTR [edi+128]
  00043	d9 9e 80 00 00
	00		 fstp	 DWORD PTR [esi+128]
  00049	d9 87 88 00 00
	00		 fld	 DWORD PTR [edi+136]
  0004f	d9 9e 88 00 00
	00		 fstp	 DWORD PTR [esi+136]
  00055	d9 87 90 00 00
	00		 fld	 DWORD PTR [edi+144]
  0005b	d9 9e 90 00 00
	00		 fstp	 DWORD PTR [esi+144]
  00061	d9 87 94 00 00
	00		 fld	 DWORD PTR [edi+148]
  00067	d9 9e 94 00 00
	00		 fstp	 DWORD PTR [esi+148]
  0006d	8a 87 a6 00 00
	00		 mov	 al, BYTE PTR [edi+166]
  00073	88 86 a6 00 00
	00		 mov	 BYTE PTR [esi+166], al
  00079	8b 47 08	 mov	 eax, DWORD PTR [edi+8]
  0007c	89 46 08	 mov	 DWORD PTR [esi+8], eax
  0007f	8a 87 a5 00 00
	00		 mov	 al, BYTE PTR [edi+165]
  00085	88 86 a5 00 00
	00		 mov	 BYTE PTR [esi+165], al
  0008b	33 c0		 xor	 eax, eax
  0008d	89 46 48	 mov	 DWORD PTR [esi+72], eax
  00090	89 46 4c	 mov	 DWORD PTR [esi+76], eax
  00093	89 46 50	 mov	 DWORD PTR [esi+80], eax
  00096	89 46 54	 mov	 DWORD PTR [esi+84], eax
  00099	66 89 46 0c	 mov	 WORD PTR [esi+12], ax
  0009d	88 86 a4 00 00
	00		 mov	 BYTE PTR [esi+164], al
  000a3	f3 0f 11 46 28	 movss	 DWORD PTR [esi+40], xmm0

; 53   : 	m_fCurFov = 0.0f;

  000a8	f3 0f 11 46 38	 movss	 DWORD PTR [esi+56], xmm0

; 54   : 	m_fStartFov = 0.0f;

  000ad	f3 0f 11 46 34	 movss	 DWORD PTR [esi+52], xmm0

; 55   : 	m_fCurAngleX = 0.0f;

  000b2	f3 0f 11 46 7c	 movss	 DWORD PTR [esi+124], xmm0

; 56   : 	m_fCurAngleY = 0.0f;

  000b7	f3 0f 11 86 84
	00 00 00	 movss	 DWORD PTR [esi+132], xmm0

; 57   : 	m_fCurAngleZ = 0.0f;

  000bf	f3 0f 11 86 8c
	00 00 00	 movss	 DWORD PTR [esi+140], xmm0

; 58   : 	D3DXQuaternionIdentity( &m_qtTarget );

  000c7	f3 0f 11 46 60	 movss	 DWORD PTR [esi+96], xmm0
  000cc	f3 0f 11 46 5c	 movss	 DWORD PTR [esi+92], xmm0
  000d1	f3 0f 11 46 58	 movss	 DWORD PTR [esi+88], xmm0
  000d6	f3 0f 10 05 00
	00 00 00	 movss	 xmm0, DWORD PTR __real@3f800000
  000de	5f		 pop	 edi
  000df	f3 0f 11 46 64	 movss	 DWORD PTR [esi+100], xmm0

; 59   : }

  000e4	8b c6		 mov	 eax, esi
  000e6	5e		 pop	 esi
  000e7	5d		 pop	 ebp
  000e8	c2 04 00	 ret	 4
??0ioSimpleEvent@@QAE@ABV0@@Z ENDP			; ioSimpleEvent::ioSimpleEvent
_TEXT	ENDS
EXTRN	??2@YAPAXI@Z:PROC				; operator new
EXTRN	___CxxFrameHandler3:PROC
EXTRN	@__security_check_cookie@4:PROC
EXTRN	__EH_epilog3:PROC
EXTRN	__EH_prolog3:PROC
;	COMDAT xdata$x
xdata$x	SEGMENT
__unwindtable$?Clone@ioSimpleEvent@@UAEPAVioCameraEvent@@XZ DD 0ffffffffH
	DD	FLAT:__unwindfunclet$?Clone@ioSimpleEvent@@UAEPAVioCameraEvent@@XZ$0
__ehfuncinfo$?Clone@ioSimpleEvent@@UAEPAVioCameraEvent@@XZ DD 019930522H
	DD	01H
	DD	FLAT:__unwindtable$?Clone@ioSimpleEvent@@UAEPAVioCameraEvent@@XZ
	DD	2 DUP(00H)
	DD	2 DUP(00H)
	DD	00H
	DD	01H
; Function compile flags: /Ogsp
xdata$x	ENDS
;	COMDAT ?Clone@ioSimpleEvent@@UAEPAVioCameraEvent@@XZ
_TEXT	SEGMENT
$T506818 = -16						; size = 4
__$EHRec$ = -12						; size = 12
?Clone@ioSimpleEvent@@UAEPAVioCameraEvent@@XZ PROC	; ioSimpleEvent::Clone, COMDAT
; _this$ = ecx

; 67   : {

  00000	6a 04		 push	 4
  00002	b8 00 00 00 00	 mov	 eax, __ehhandler$?Clone@ioSimpleEvent@@UAEPAVioCameraEvent@@XZ
  00007	e8 00 00 00 00	 call	 __EH_prolog3
  0000c	8b f1		 mov	 esi, ecx

; 68   : 	return new ioSimpleEvent( *this );

  0000e	68 a8 00 00 00	 push	 168			; 000000a8H
  00013	e8 00 00 00 00	 call	 ??2@YAPAXI@Z		; operator new
  00018	59		 pop	 ecx
  00019	8b c8		 mov	 ecx, eax
  0001b	89 4d f0	 mov	 DWORD PTR $T506818[ebp], ecx
  0001e	33 c0		 xor	 eax, eax
  00020	89 45 fc	 mov	 DWORD PTR __$EHRec$[ebp+8], eax
  00023	3b c8		 cmp	 ecx, eax
  00025	74 06		 je	 SHORT $LN3@Clone
  00027	56		 push	 esi
  00028	e8 00 00 00 00	 call	 ??0ioSimpleEvent@@QAE@ABV0@@Z ; ioSimpleEvent::ioSimpleEvent
$LN3@Clone:

; 69   : }

  0002d	e8 00 00 00 00	 call	 __EH_epilog3
  00032	c3		 ret	 0
_TEXT	ENDS
;	COMDAT text$x
text$x	SEGMENT
__unwindfunclet$?Clone@ioSimpleEvent@@UAEPAVioCameraEvent@@XZ$0:
  00000	ff 75 f0	 push	 DWORD PTR $T506818[ebp]
  00003	e8 00 00 00 00	 call	 ??3@YAXPAX@Z		; operator delete
  00008	59		 pop	 ecx
  00009	c3		 ret	 0
__ehhandler$?Clone@ioSimpleEvent@@UAEPAVioCameraEvent@@XZ:
  0000a	8b 54 24 08	 mov	 edx, DWORD PTR [esp+8]
  0000e	8d 42 0c	 lea	 eax, DWORD PTR [edx+12]
  00011	8b 4a ec	 mov	 ecx, DWORD PTR [edx-20]
  00014	33 c8		 xor	 ecx, eax
  00016	e8 00 00 00 00	 call	 @__security_check_cookie@4
  0001b	b8 00 00 00 00	 mov	 eax, OFFSET __ehfuncinfo$?Clone@ioSimpleEvent@@UAEPAVioCameraEvent@@XZ
  00020	e9 00 00 00 00	 jmp	 ___CxxFrameHandler3
text$x	ENDS
?Clone@ioSimpleEvent@@UAEPAVioCameraEvent@@XZ ENDP	; ioSimpleEvent::Clone
PUBLIC	___$ReturnUdt$GSCopy$
PUBLIC	__$ArrayPad$
PUBLIC	?ProcessZoomStay@ioSimpleEvent@@IAE?AUD3DXVECTOR3@@U2@0MUD3DXQUATERNION@@@Z ; ioSimpleEvent::ProcessZoomStay
EXTRN	__imp_??D@YA?AUD3DXVECTOR3@@ABUD3DXQUATERNION@@ABU0@@Z:PROC
EXTRN	__imp_?GetLoopSec@ioFrameTimer@@QBEKXZ:PROC
EXTRN	__imp_?GetSingleton@ioFrameTimer@@SAAAV1@XZ:PROC
EXTRN	_D3DXVec3Normalize@8:PROC
EXTRN	___security_cookie:DWORD
; Function compile flags: /Ogsp
;	COMDAT ?ProcessZoomStay@ioSimpleEvent@@IAE?AUD3DXVECTOR3@@U2@0MUD3DXQUATERNION@@@Z
_TEXT	SEGMENT
___$ReturnUdt$GSCopy$ = -36				; size = 4
$T505339 = -28						; size = 12
$T505338 = -28						; size = 12
$T505337 = -28						; size = 12
_vDir$ = -16						; size = 12
__$ArrayPad$ = -4					; size = 4
___$ReturnUdt$ = 8					; size = 4
_vLookAt$ = 12						; size = 12
_vPosition$ = 24					; size = 12
_fFov$ = 36						; size = 4
_qtTarget$ = 40						; size = 16
?ProcessZoomStay@ioSimpleEvent@@IAE?AUD3DXVECTOR3@@U2@0MUD3DXQUATERNION@@@Z PROC ; ioSimpleEvent::ProcessZoomStay, COMDAT
; _this$ = ecx

; 248  : {

  00000	55		 push	 ebp
  00001	8b ec		 mov	 ebp, esp
  00003	83 ec 24	 sub	 esp, 36			; 00000024H
  00006	a1 00 00 00 00	 mov	 eax, DWORD PTR ___security_cookie
  0000b	33 c5		 xor	 eax, ebp
  0000d	89 45 fc	 mov	 DWORD PTR __$ArrayPad$[ebp], eax
  00010	8b 45 08	 mov	 eax, DWORD PTR ___$ReturnUdt$[ebp]
  00013	53		 push	 ebx
  00014	56		 push	 esi
  00015	8b d9		 mov	 ebx, ecx

; 249  : 	D3DXVECTOR3 vNewPosition;
; 250  : 	
; 251  : 	if( !m_bCameraEventStart )

  00017	80 7b 0c 00	 cmp	 BYTE PTR [ebx+12], 0
  0001b	57		 push	 edi

; 275  : 	}
; 276  : 
; 277  : 	vNewPosition = m_vStartPosition + vDir * m_fZoomDistance;

  0001c	89 45 dc	 mov	 DWORD PTR ___$ReturnUdt$GSCopy$[ebp], eax
  0001f	8d 75 18	 lea	 esi, DWORD PTR _vPosition$[ebp]
  00022	0f 84 fc 01 00
	00		 je	 $LN29@ProcessZoo

; 252  : 		return vPosition;
; 253  : 
; 254  : 	m_vStartPosition = vPosition;

  00028	8d 7b 10	 lea	 edi, DWORD PTR [ebx+16]
  0002b	a5		 movsd
  0002c	a5		 movsd
  0002d	a5		 movsd

; 255  : 	m_vTargetPosition = vLookAt;

  0002e	8d 75 0c	 lea	 esi, DWORD PTR _vLookAt$[ebp]
  00031	8d 7b 1c	 lea	 edi, DWORD PTR [ebx+28]
  00034	a5		 movsd
  00035	a5		 movsd
  00036	a5		 movsd

; 256  : 	D3DXVECTOR3 vDir = m_vTargetPosition - m_vStartPosition;

  00037	f3 0f 10 43 1c	 movss	 xmm0, DWORD PTR [ebx+28]
  0003c	f3 0f 10 4b 10	 movss	 xmm1, DWORD PTR [ebx+16]
  00041	0f 5a c0	 cvtps2pd xmm0, xmm0
  00044	0f 5a c9	 cvtps2pd xmm1, xmm1
  00047	f2 0f 5c c1	 subsd	 xmm0, xmm1
  0004b	f3 0f 10 4b 14	 movss	 xmm1, DWORD PTR [ebx+20]
  00050	66 0f 5a c0	 cvtpd2ps xmm0, xmm0
  00054	f3 0f 11 45 f0	 movss	 DWORD PTR _vDir$[ebp], xmm0
  00059	f3 0f 10 43 20	 movss	 xmm0, DWORD PTR [ebx+32]
  0005e	0f 5a c0	 cvtps2pd xmm0, xmm0
  00061	0f 5a c9	 cvtps2pd xmm1, xmm1
  00064	f2 0f 5c c1	 subsd	 xmm0, xmm1
  00068	f3 0f 10 4b 18	 movss	 xmm1, DWORD PTR [ebx+24]
  0006d	66 0f 5a c0	 cvtpd2ps xmm0, xmm0
  00071	f3 0f 11 45 f4	 movss	 DWORD PTR _vDir$[ebp+4], xmm0
  00076	f3 0f 10 43 24	 movss	 xmm0, DWORD PTR [ebx+36]

; 257  : 	D3DXVec3Normalize( &vDir, &vDir );

  0007b	8d 45 f0	 lea	 eax, DWORD PTR _vDir$[ebp]
  0007e	0f 5a c0	 cvtps2pd xmm0, xmm0
  00081	0f 5a c9	 cvtps2pd xmm1, xmm1
  00084	50		 push	 eax
  00085	f2 0f 5c c1	 subsd	 xmm0, xmm1
  00089	66 0f 5a c0	 cvtpd2ps xmm0, xmm0
  0008d	50		 push	 eax
  0008e	f3 0f 11 45 f8	 movss	 DWORD PTR _vDir$[ebp+8], xmm0
  00093	e8 00 00 00 00	 call	 _D3DXVec3Normalize@8

; 258  : 
; 259  : 	DWORD dwCurTime = FRAMEGETTIME();

  00098	8b 3d 00 00 00
	00		 mov	 edi, DWORD PTR __imp_?GetSingleton@ioFrameTimer@@SAAAV1@XZ
  0009e	ff d7		 call	 edi
  000a0	8b c8		 mov	 ecx, eax
  000a2	ff 15 00 00 00
	00		 call	 DWORD PTR __imp_?GetLoopSec@ioFrameTimer@@QBEKXZ

; 260  : 	if( m_dwZoomStayStartTime > 0 )

  000a8	8b f3		 mov	 esi, ebx
  000aa	8b 4e 4c	 mov	 ecx, DWORD PTR [esi+76]
  000ad	85 c9		 test	 ecx, ecx
  000af	74 0d		 je	 SHORT $LN3@ProcessZoo

; 261  : 	{
; 262  : 		if( m_dwZoomStayStartTime + m_dwStayTime < dwCurTime )

  000b1	8b 56 44	 mov	 edx, DWORD PTR [esi+68]
  000b4	03 d1		 add	 edx, ecx
  000b6	3b d0		 cmp	 edx, eax
  000b8	73 18		 jae	 SHORT $LN1@ProcessZoo

; 263  : 		{
; 264  : 			m_dwZoomStayStartTime = 0;

  000ba	83 66 4c 00	 and	 DWORD PTR [esi+76], 0
$LN3@ProcessZoo:

; 265  : 			//change state
; 266  : 			m_dwZoomOutStartTime = FRAMEGETTIME();
; 267  : 			m_dwEventState = SE_ZOOMOUT;
; 268  : 		}
; 269  : 	}
; 270  : 	else
; 271  : 	{
; 272  : 		//change state
; 273  : 		m_dwZoomOutStartTime = FRAMEGETTIME();

  000be	ff d7		 call	 edi
  000c0	8b c8		 mov	 ecx, eax
  000c2	ff 15 00 00 00
	00		 call	 DWORD PTR __imp_?GetLoopSec@ioFrameTimer@@QBEKXZ

; 274  : 		m_dwEventState = SE_ZOOMOUT;

  000c8	c7 46 54 03 00
	00 00		 mov	 DWORD PTR [esi+84], 3
  000cf	89 46 50	 mov	 DWORD PTR [esi+80], eax
$LN1@ProcessZoo:

; 275  : 	}
; 276  : 
; 277  : 	vNewPosition = m_vStartPosition + vDir * m_fZoomDistance;

  000d2	f3 0f 10 46 28	 movss	 xmm0, DWORD PTR [esi+40]
  000d7	f3 0f 10 4d f0	 movss	 xmm1, DWORD PTR _vDir$[ebp]
  000dc	0f 5a d8	 cvtps2pd xmm3, xmm0
  000df	0f 5a d0	 cvtps2pd xmm2, xmm0
  000e2	0f 5a c9	 cvtps2pd xmm1, xmm1
  000e5	f2 0f 59 ca	 mulsd	 xmm1, xmm2
  000e9	f3 0f 10 55 f4	 movss	 xmm2, DWORD PTR _vDir$[ebp+4]
  000ee	0f 5a d2	 cvtps2pd xmm2, xmm2
  000f1	f2 0f 59 d3	 mulsd	 xmm2, xmm3
  000f5	f3 0f 10 5d f8	 movss	 xmm3, DWORD PTR _vDir$[ebp+8]
  000fa	0f 5a db	 cvtps2pd xmm3, xmm3
  000fd	0f 5a c0	 cvtps2pd xmm0, xmm0
  00100	f2 0f 59 d8	 mulsd	 xmm3, xmm0
  00104	66 0f 5a c9	 cvtpd2ps xmm1, xmm1
  00108	f3 0f 5a c9	 cvtss2sd xmm1, xmm1
  0010c	0f 57 c0	 xorps	 xmm0, xmm0
  0010f	66 0f 5a c3	 cvtpd2ps xmm0, xmm3
  00113	f3 0f 10 5e 10	 movss	 xmm3, DWORD PTR [esi+16]
  00118	0f 5a db	 cvtps2pd xmm3, xmm3
  0011b	f2 0f 58 d9	 addsd	 xmm3, xmm1
  0011f	0f 57 c9	 xorps	 xmm1, xmm1
  00122	66 0f 5a cb	 cvtpd2ps xmm1, xmm3
  00126	f3 0f 10 5e 14	 movss	 xmm3, DWORD PTR [esi+20]
  0012b	66 0f 5a d2	 cvtpd2ps xmm2, xmm2
  0012f	0f 5a db	 cvtps2pd xmm3, xmm3
  00132	f3 0f 5a d2	 cvtss2sd xmm2, xmm2
  00136	f2 0f 58 da	 addsd	 xmm3, xmm2
  0013a	0f 57 d2	 xorps	 xmm2, xmm2
  0013d	66 0f 5a d3	 cvtpd2ps xmm2, xmm3
  00141	f3 0f 10 5e 18	 movss	 xmm3, DWORD PTR [esi+24]
  00146	0f 5a c0	 cvtps2pd xmm0, xmm0
  00149	0f 5a db	 cvtps2pd xmm3, xmm3
  0014c	f2 0f 58 d8	 addsd	 xmm3, xmm0
  00150	0f 57 c0	 xorps	 xmm0, xmm0
  00153	66 0f 5a c3	 cvtpd2ps xmm0, xmm3

; 278  : 	vDir = vNewPosition - m_vTargetPosition;

  00157	f3 0f 10 5b 1c	 movss	 xmm3, DWORD PTR [ebx+28]
  0015c	0f 5a c9	 cvtps2pd xmm1, xmm1
  0015f	0f 5a db	 cvtps2pd xmm3, xmm3
  00162	f2 0f 5c cb	 subsd	 xmm1, xmm3
  00166	66 0f 5a c9	 cvtpd2ps xmm1, xmm1
  0016a	f3 0f 11 4d e4	 movss	 DWORD PTR $T505337[ebp], xmm1
  0016f	0f 5a c0	 cvtps2pd xmm0, xmm0
  00172	8d 75 e4	 lea	 esi, DWORD PTR $T505337[ebp]
  00175	8d 7d f0	 lea	 edi, DWORD PTR _vDir$[ebp]

; 279  : 	vDir = m_qtCurRot * vDir;

  00178	8d 45 f0	 lea	 eax, DWORD PTR _vDir$[ebp]
  0017b	0f 5a ca	 cvtps2pd xmm1, xmm2
  0017e	f3 0f 10 53 20	 movss	 xmm2, DWORD PTR [ebx+32]
  00183	0f 5a d2	 cvtps2pd xmm2, xmm2
  00186	f2 0f 5c ca	 subsd	 xmm1, xmm2
  0018a	66 0f 5a c9	 cvtpd2ps xmm1, xmm1
  0018e	f3 0f 11 4d e8	 movss	 DWORD PTR $T505337[ebp+4], xmm1
  00193	f3 0f 10 4b 24	 movss	 xmm1, DWORD PTR [ebx+36]
  00198	0f 5a c9	 cvtps2pd xmm1, xmm1
  0019b	f2 0f 5c c1	 subsd	 xmm0, xmm1
  0019f	50		 push	 eax
  001a0	66 0f 5a c0	 cvtpd2ps xmm0, xmm0
  001a4	f3 0f 11 45 ec	 movss	 DWORD PTR $T505337[ebp+8], xmm0
  001a9	a5		 movsd
  001aa	8b c3		 mov	 eax, ebx
  001ac	83 c0 68	 add	 eax, 104		; 00000068H
  001af	a5		 movsd
  001b0	50		 push	 eax
  001b1	8d 45 e4	 lea	 eax, DWORD PTR $T505338[ebp]
  001b4	50		 push	 eax
  001b5	a5		 movsd
  001b6	ff 15 00 00 00
	00		 call	 DWORD PTR __imp_??D@YA?AUD3DXVECTOR3@@ABUD3DXQUATERNION@@ABU0@@Z

; 280  : 	vNewPosition = m_vTargetPosition + vDir;

  001bc	f3 0f 10 43 1c	 movss	 xmm0, DWORD PTR [ebx+28]
  001c1	8b f0		 mov	 esi, eax
  001c3	8d 7d f0	 lea	 edi, DWORD PTR _vDir$[ebp]
  001c6	a5		 movsd
  001c7	a5		 movsd
  001c8	a5		 movsd
  001c9	f3 0f 10 4d f0	 movss	 xmm1, DWORD PTR _vDir$[ebp]
  001ce	0f 5a c0	 cvtps2pd xmm0, xmm0
  001d1	0f 5a c9	 cvtps2pd xmm1, xmm1
  001d4	f2 0f 58 c1	 addsd	 xmm0, xmm1
  001d8	66 0f 5a c0	 cvtpd2ps xmm0, xmm0
  001dc	f3 0f 11 45 e4	 movss	 DWORD PTR $T505339[ebp], xmm0
  001e1	f3 0f 10 43 20	 movss	 xmm0, DWORD PTR [ebx+32]
  001e6	83 c4 0c	 add	 esp, 12			; 0000000cH
  001e9	0f 5a c0	 cvtps2pd xmm0, xmm0
  001ec	f3 0f 10 4d f4	 movss	 xmm1, DWORD PTR _vDir$[ebp+4]

; 281  : 
; 282  : 	return vNewPosition;

  001f1	8b 45 dc	 mov	 eax, DWORD PTR ___$ReturnUdt$GSCopy$[ebp]
  001f4	0f 5a c9	 cvtps2pd xmm1, xmm1
  001f7	f2 0f 58 c1	 addsd	 xmm0, xmm1
  001fb	f3 0f 10 4d f8	 movss	 xmm1, DWORD PTR _vDir$[ebp+8]
  00200	66 0f 5a c0	 cvtpd2ps xmm0, xmm0
  00204	f3 0f 11 45 e8	 movss	 DWORD PTR $T505339[ebp+4], xmm0
  00209	f3 0f 10 43 24	 movss	 xmm0, DWORD PTR [ebx+36]
  0020e	0f 5a c0	 cvtps2pd xmm0, xmm0
  00211	0f 5a c9	 cvtps2pd xmm1, xmm1
  00214	f2 0f 58 c1	 addsd	 xmm0, xmm1
  00218	66 0f 5a c0	 cvtpd2ps xmm0, xmm0
  0021c	f3 0f 11 45 ec	 movss	 DWORD PTR $T505339[ebp+8], xmm0
  00221	8d 75 e4	 lea	 esi, DWORD PTR $T505339[ebp]
$LN29@ProcessZoo:

; 283  : }

  00224	8b 4d fc	 mov	 ecx, DWORD PTR __$ArrayPad$[ebp]
  00227	8b f8		 mov	 edi, eax
  00229	a5		 movsd
  0022a	a5		 movsd
  0022b	a5		 movsd
  0022c	5f		 pop	 edi
  0022d	5e		 pop	 esi
  0022e	33 cd		 xor	 ecx, ebp
  00230	5b		 pop	 ebx
  00231	e8 00 00 00 00	 call	 @__security_check_cookie@4
  00236	c9		 leave
  00237	c2 30 00	 ret	 48			; 00000030H
?ProcessZoomStay@ioSimpleEvent@@IAE?AUD3DXVECTOR3@@U2@0MUD3DXQUATERNION@@@Z ENDP ; ioSimpleEvent::ProcessZoomStay
_TEXT	ENDS
PUBLIC	__mask@@NegFloat@
PUBLIC	__real@0000000000000000
PUBLIC	__real@4f800000
PUBLIC	__$ArrayPad$
PUBLIC	?CheckCameraRot@ioSimpleEvent@@IAEXUD3DXQUATERNION@@@Z ; ioSimpleEvent::CheckCameraRot
EXTRN	_D3DXQuaternionRotationYawPitchRoll@16:PROC
;	COMDAT __mask@@NegFloat@
; File d:\lost saga for developer\youtube\tutorial\source\src\lsclient\veryoftenusedefine.h
CONST	SEGMENT
__mask@@NegFloat@ DB 00H, 00H, 00H, 080H, 00H, 00H, 00H, 080H, 00H, 00H, 00H
	DB	080H, 00H, 00H, 00H, 080H
CONST	ENDS
;	COMDAT __real@0000000000000000
CONST	SEGMENT
__real@0000000000000000 DQ 00000000000000000r	; 0
CONST	ENDS
;	COMDAT __real@4f800000
CONST	SEGMENT
__real@4f800000 DD 04f800000r			; 4.29497e+009
; Function compile flags: /Ogsp
; File d:\lost saga for developer\youtube\tutorial\source\src\lsclient\iosimpleevent.cpp
CONST	ENDS
;	COMDAT ?CheckCameraRot@ioSimpleEvent@@IAEXUD3DXQUATERNION@@@Z
_TEXT	SEGMENT
tv250 = -32						; size = 4
_vDir$ = -28						; size = 12
$T505368 = -16						; size = 12
__$ArrayPad$ = -4					; size = 4
_qtTarget$ = 8						; size = 16
?CheckCameraRot@ioSimpleEvent@@IAEXUD3DXQUATERNION@@@Z PROC ; ioSimpleEvent::CheckCameraRot, COMDAT
; _this$ = ecx

; 309  : {

  00000	55		 push	 ebp
  00001	8b ec		 mov	 ebp, esp
  00003	83 ec 20	 sub	 esp, 32			; 00000020H
  00006	a1 00 00 00 00	 mov	 eax, DWORD PTR ___security_cookie
  0000b	33 c5		 xor	 eax, ebp
  0000d	89 45 fc	 mov	 DWORD PTR __$ArrayPad$[ebp], eax
  00010	56		 push	 esi
  00011	8b f1		 mov	 esi, ecx

; 310  : 	bool bLeftRot = true;
; 311  : 	D3DXVECTOR3 vDir = qtTarget * D3DXVECTOR3( 0.0f, 0.0f, -FLOAT1 );

  00013	b8 01 00 00 00	 mov	 eax, 1
  00018	0f 57 c0	 xorps	 xmm0, xmm0
  0001b	89 45 e0	 mov	 DWORD PTR tv250[ebp], eax
  0001e	db 45 e0	 fild	 DWORD PTR tv250[ebp]
  00021	f3 0f 11 45 f0	 movss	 DWORD PTR $T505368[ebp], xmm0
  00026	f3 0f 11 45 f4	 movss	 DWORD PTR $T505368[ebp+4], xmm0
  0002b	85 c0		 test	 eax, eax
  0002d	79 06		 jns	 SHORT $LN24@CheckCamer
  0002f	d8 05 00 00 00
	00		 fadd	 DWORD PTR __real@4f800000
$LN24@CheckCamer:
  00035	8d 45 f0	 lea	 eax, DWORD PTR $T505368[ebp]
  00038	d9 e0		 fchs
  0003a	50		 push	 eax
  0003b	d9 5d f8	 fstp	 DWORD PTR $T505368[ebp+8]
  0003e	8d 45 08	 lea	 eax, DWORD PTR _qtTarget$[ebp]
  00041	50		 push	 eax
  00042	8d 45 e4	 lea	 eax, DWORD PTR _vDir$[ebp]
  00045	50		 push	 eax
  00046	ff 15 00 00 00
	00		 call	 DWORD PTR __imp_??D@YA?AUD3DXVECTOR3@@ABUD3DXQUATERNION@@ABU0@@Z

; 312  : 
; 313  : 	if( vDir.z == 0.0f )

  0004c	f3 0f 10 4d ec	 movss	 xmm1, DWORD PTR _vDir$[ebp+8]
  00051	0f 57 c0	 xorps	 xmm0, xmm0
  00054	83 c4 0c	 add	 esp, 12			; 0000000cH
  00057	0f 2e c8	 ucomiss xmm1, xmm0
  0005a	9f		 lahf
  0005b	f6 c4 44	 test	 ah, 68			; 00000044H
  0005e	7a 28		 jp	 SHORT $LN6@CheckCamer

; 314  : 	{
; 315  : 		D3DXQuaternionRotationYawPitchRoll( &m_qtCurRot, DEGtoRAD( 0.0f ), 0.0f, 0.0f );

  00060	83 ec 0c	 sub	 esp, 12			; 0000000cH
  00063	f3 0f 11 44 24
	08		 movss	 DWORD PTR [esp+8], xmm0
  00069	f3 0f 11 44 24
	04		 movss	 DWORD PTR [esp+4], xmm0
  0006f	f2 0f 10 05 00
	00 00 00	 movsd	 xmm0, QWORD PTR __real@3f91df46a2526c7a
  00077	f2 0f 59 05 00
	00 00 00	 mulsd	 xmm0, QWORD PTR __real@0000000000000000
  0007f	66 0f 5a c0	 cvtpd2ps xmm0, xmm0

; 316  : 		return;

  00083	e9 87 00 00 00	 jmp	 $LN25@CheckCamer
$LN6@CheckCamer:

; 317  : 	}
; 318  : 
; 319  : 	if( (vDir.x >= 0.0f && vDir.z > 0.0f) ||
; 320  : 		(vDir.x < 0.0f && vDir.z < 0.0f) )

  00088	f3 0f 10 55 e4	 movss	 xmm2, DWORD PTR _vDir$[ebp]
  0008d	0f 2f d0	 comiss	 xmm2, xmm0
  00090	72 05		 jb	 SHORT $LN3@CheckCamer
  00092	0f 2f c8	 comiss	 xmm1, xmm0
  00095	77 37		 ja	 SHORT $LN2@CheckCamer
$LN3@CheckCamer:
  00097	0f 2f c2	 comiss	 xmm0, xmm2
  0009a	76 05		 jbe	 SHORT $LN23@CheckCamer
  0009c	0f 2f c1	 comiss	 xmm0, xmm1

; 321  : 	{
; 322  : 		bLeftRot = false;
; 323  : 	}
; 324  : 
; 325  : 	if( bLeftRot )

  0009f	77 2d		 ja	 SHORT $LN2@CheckCamer
$LN23@CheckCamer:

; 326  : 		D3DXQuaternionRotationYawPitchRoll( &m_qtCurRot, DEGtoRAD(m_fCurAngleX), DEGtoRAD(m_fCurAngleY), 0.0f );

  000a1	83 ec 0c	 sub	 esp, 12			; 0000000cH
  000a4	f3 0f 11 44 24
	08		 movss	 DWORD PTR [esp+8], xmm0
  000aa	f3 0f 10 86 84
	00 00 00	 movss	 xmm0, DWORD PTR [esi+132]
  000b2	0f 5a c8	 cvtps2pd xmm1, xmm0
  000b5	f2 0f 59 0d 00
	00 00 00	 mulsd	 xmm1, QWORD PTR __real@3f91df46a2526c7a
  000bd	66 0f 5a c9	 cvtpd2ps xmm1, xmm1
  000c1	f3 0f 11 4c 24
	04		 movss	 DWORD PTR [esp+4], xmm1
  000c7	f3 0f 10 4e 7c	 movss	 xmm1, DWORD PTR [esi+124]

; 327  : 	else

  000cc	eb 32		 jmp	 SHORT $LN26@CheckCamer
$LN2@CheckCamer:

; 328  : 		D3DXQuaternionRotationYawPitchRoll( &m_qtCurRot, DEGtoRAD(-m_fCurAngleX), DEGtoRAD(m_fCurAngleY), 0.0f );

  000ce	83 ec 0c	 sub	 esp, 12			; 0000000cH
  000d1	f3 0f 11 44 24
	08		 movss	 DWORD PTR [esp+8], xmm0
  000d7	f3 0f 10 86 84
	00 00 00	 movss	 xmm0, DWORD PTR [esi+132]
  000df	0f 5a c8	 cvtps2pd xmm1, xmm0
  000e2	f2 0f 59 0d 00
	00 00 00	 mulsd	 xmm1, QWORD PTR __real@3f91df46a2526c7a
  000ea	66 0f 5a c9	 cvtpd2ps xmm1, xmm1
  000ee	f3 0f 11 4c 24
	04		 movss	 DWORD PTR [esp+4], xmm1
  000f4	f3 0f 10 4e 7c	 movss	 xmm1, DWORD PTR [esi+124]
  000f9	0f 57 0d 00 00
	00 00		 xorps	 xmm1, DWORD PTR __mask@@NegFloat@
$LN26@CheckCamer:
  00100	0f 5a c9	 cvtps2pd xmm1, xmm1
  00103	f2 0f 59 0d 00
	00 00 00	 mulsd	 xmm1, QWORD PTR __real@3f91df46a2526c7a
  0010b	66 0f 5a c1	 cvtpd2ps xmm0, xmm1
$LN25@CheckCamer:
  0010f	f3 0f 11 04 24	 movss	 DWORD PTR [esp], xmm0
  00114	83 c6 68	 add	 esi, 104		; 00000068H
  00117	56		 push	 esi
  00118	e8 00 00 00 00	 call	 _D3DXQuaternionRotationYawPitchRoll@16

; 329  : 
; 330  : }

  0011d	8b 4d fc	 mov	 ecx, DWORD PTR __$ArrayPad$[ebp]
  00120	33 cd		 xor	 ecx, ebp
  00122	5e		 pop	 esi
  00123	e8 00 00 00 00	 call	 @__security_check_cookie@4
  00128	c9		 leave
  00129	c2 10 00	 ret	 16			; 00000010H
?CheckCameraRot@ioSimpleEvent@@IAEXUD3DXQUATERNION@@@Z ENDP ; ioSimpleEvent::CheckCameraRot
_TEXT	ENDS
PUBLIC	__$ArrayPad$
; Function compile flags: /Ogsp
;	COMDAT ?CheckOffSet@ioSimpleEvent@@UAE?AUD3DXVECTOR3@@U2@UD3DXQUATERNION@@@Z
_TEXT	SEGMENT
tv357 = -32						; size = 4
_vDir$ = -28						; size = 12
$T505391 = -16						; size = 12
$T505390 = -16						; size = 12
$T505388 = -16						; size = 12
__$ArrayPad$ = -4					; size = 4
___$ReturnUdt$ = 8					; size = 4
_vLookAt$ = 12						; size = 12
_qtTarget$ = 24						; size = 16
?CheckOffSet@ioSimpleEvent@@UAE?AUD3DXVECTOR3@@U2@UD3DXQUATERNION@@@Z PROC ; ioSimpleEvent::CheckOffSet, COMDAT
; _this$ = ecx

; 333  : {

  00000	55		 push	 ebp
  00001	8b ec		 mov	 ebp, esp
  00003	83 ec 20	 sub	 esp, 32			; 00000020H
  00006	a1 00 00 00 00	 mov	 eax, DWORD PTR ___security_cookie
  0000b	33 c5		 xor	 eax, ebp
  0000d	89 45 fc	 mov	 DWORD PTR __$ArrayPad$[ebp], eax
  00010	53		 push	 ebx
  00011	56		 push	 esi
  00012	57		 push	 edi
  00013	8b d9		 mov	 ebx, ecx

; 334  : //	if( !m_bSetOffSet )
; 335  : //	{
; 336  : 		D3DXVECTOR3 vDir = qtTarget * D3DXVECTOR3( 0.0f, 0.0f, -FLOAT1 );

  00015	b8 01 00 00 00	 mov	 eax, 1
  0001a	0f 57 c0	 xorps	 xmm0, xmm0
  0001d	89 45 e0	 mov	 DWORD PTR tv357[ebp], eax
  00020	db 45 e0	 fild	 DWORD PTR tv357[ebp]
  00023	f3 0f 11 45 f0	 movss	 DWORD PTR $T505388[ebp], xmm0
  00028	f3 0f 11 45 f4	 movss	 DWORD PTR $T505388[ebp+4], xmm0
  0002d	85 c0		 test	 eax, eax
  0002f	79 06		 jns	 SHORT $LN15@CheckOffSe
  00031	d8 05 00 00 00
	00		 fadd	 DWORD PTR __real@4f800000
$LN15@CheckOffSe:
  00037	8d 45 f0	 lea	 eax, DWORD PTR $T505388[ebp]
  0003a	d9 e0		 fchs
  0003c	50		 push	 eax
  0003d	d9 5d f8	 fstp	 DWORD PTR $T505388[ebp+8]
  00040	8d 45 18	 lea	 eax, DWORD PTR _qtTarget$[ebp]
  00043	50		 push	 eax
  00044	8d 45 e4	 lea	 eax, DWORD PTR _vDir$[ebp]
  00047	50		 push	 eax
  00048	ff 15 00 00 00
	00		 call	 DWORD PTR __imp_??D@YA?AUD3DXVECTOR3@@ABUD3DXQUATERNION@@ABU0@@Z
  0004e	83 c4 0c	 add	 esp, 12			; 0000000cH

; 337  : 		D3DXVec3Normalize( &vDir, &vDir );

  00051	8d 45 e4	 lea	 eax, DWORD PTR _vDir$[ebp]
  00054	50		 push	 eax
  00055	50		 push	 eax
  00056	e8 00 00 00 00	 call	 _D3DXVec3Normalize@8

; 338  : 
; 339  : 		vDir = vDir * m_fOffSetLength;

  0005b	f3 0f 10 83 90
	00 00 00	 movss	 xmm0, DWORD PTR [ebx+144]
  00063	f3 0f 10 55 e4	 movss	 xmm2, DWORD PTR _vDir$[ebp]
  00068	0f 5a c8	 cvtps2pd xmm1, xmm0
  0006b	0f 5a d2	 cvtps2pd xmm2, xmm2
  0006e	f2 0f 59 ca	 mulsd	 xmm1, xmm2
  00072	f3 0f 10 55 e8	 movss	 xmm2, DWORD PTR _vDir$[ebp+4]
  00077	66 0f 5a c9	 cvtpd2ps xmm1, xmm1
  0007b	f3 0f 11 4d f0	 movss	 DWORD PTR $T505390[ebp], xmm1
  00080	0f 5a d2	 cvtps2pd xmm2, xmm2
  00083	8d 75 f0	 lea	 esi, DWORD PTR $T505390[ebp]
  00086	8d 7d e4	 lea	 edi, DWORD PTR _vDir$[ebp]

; 340  : 		vDir.y += m_fOffSetHeight;
; 341  : 		
; 342  : 		m_vLookAt = vLookAt + vDir;
; 343  : 		m_bSetOffSet = true;
; 344  : //	}
; 345  : 
; 346  : 	return m_vLookAt;

  00089	8b 45 08	 mov	 eax, DWORD PTR ___$ReturnUdt$[ebp]
  0008c	0f 5a c8	 cvtps2pd xmm1, xmm0
  0008f	f2 0f 59 ca	 mulsd	 xmm1, xmm2
  00093	f3 0f 10 55 ec	 movss	 xmm2, DWORD PTR _vDir$[ebp+8]
  00098	0f 5a c0	 cvtps2pd xmm0, xmm0
  0009b	66 0f 5a c9	 cvtpd2ps xmm1, xmm1
  0009f	f3 0f 11 4d f4	 movss	 DWORD PTR $T505390[ebp+4], xmm1
  000a4	0f 5a d2	 cvtps2pd xmm2, xmm2
  000a7	f2 0f 59 c2	 mulsd	 xmm0, xmm2
  000ab	66 0f 5a c0	 cvtpd2ps xmm0, xmm0
  000af	f3 0f 11 45 f8	 movss	 DWORD PTR $T505390[ebp+8], xmm0
  000b4	f3 0f 10 83 94
	00 00 00	 movss	 xmm0, DWORD PTR [ebx+148]
  000bc	a5		 movsd
  000bd	a5		 movsd
  000be	a5		 movsd
  000bf	f3 0f 10 55 e4	 movss	 xmm2, DWORD PTR _vDir$[ebp]
  000c4	f3 0f 5a c9	 cvtss2sd xmm1, xmm1
  000c8	0f 5a c0	 cvtps2pd xmm0, xmm0
  000cb	f2 0f 58 c1	 addsd	 xmm0, xmm1
  000cf	f3 0f 10 4d 0c	 movss	 xmm1, DWORD PTR _vLookAt$[ebp]
  000d4	0f 5a c9	 cvtps2pd xmm1, xmm1
  000d7	66 0f 5a c0	 cvtpd2ps xmm0, xmm0
  000db	f3 0f 5a c0	 cvtss2sd xmm0, xmm0
  000df	0f 5a d2	 cvtps2pd xmm2, xmm2
  000e2	f2 0f 58 ca	 addsd	 xmm1, xmm2
  000e6	66 0f 5a c9	 cvtpd2ps xmm1, xmm1
  000ea	f3 0f 11 4d f0	 movss	 DWORD PTR $T505391[ebp], xmm1
  000ef	f3 0f 10 4d 10	 movss	 xmm1, DWORD PTR _vLookAt$[ebp+4]
  000f4	0f 5a c9	 cvtps2pd xmm1, xmm1
  000f7	f2 0f 58 c8	 addsd	 xmm1, xmm0
  000fb	0f 57 c0	 xorps	 xmm0, xmm0
  000fe	66 0f 5a c1	 cvtpd2ps xmm0, xmm1
  00102	f3 0f 10 4d ec	 movss	 xmm1, DWORD PTR _vDir$[ebp+8]
  00107	f3 0f 11 45 f4	 movss	 DWORD PTR $T505391[ebp+4], xmm0
  0010c	f3 0f 10 45 14	 movss	 xmm0, DWORD PTR _vLookAt$[ebp+8]

; 347  : }

  00111	8b 4d fc	 mov	 ecx, DWORD PTR __$ArrayPad$[ebp]
  00114	0f 5a c0	 cvtps2pd xmm0, xmm0
  00117	0f 5a c9	 cvtps2pd xmm1, xmm1
  0011a	f2 0f 58 c1	 addsd	 xmm0, xmm1
  0011e	8d bb 98 00 00
	00		 lea	 edi, DWORD PTR [ebx+152]
  00124	66 0f 5a c0	 cvtpd2ps xmm0, xmm0
  00128	f3 0f 11 45 f8	 movss	 DWORD PTR $T505391[ebp+8], xmm0
  0012d	8d 75 f0	 lea	 esi, DWORD PTR $T505391[ebp]
  00130	a5		 movsd
  00131	a5		 movsd
  00132	a5		 movsd
  00133	8d 75 f0	 lea	 esi, DWORD PTR $T505391[ebp]
  00136	8b f8		 mov	 edi, eax
  00138	a5		 movsd
  00139	a5		 movsd
  0013a	a5		 movsd
  0013b	5f		 pop	 edi
  0013c	5e		 pop	 esi
  0013d	c6 83 a4 00 00
	00 01		 mov	 BYTE PTR [ebx+164], 1
  00144	5b		 pop	 ebx
  00145	33 cd		 xor	 ecx, ebp
  00147	e8 00 00 00 00	 call	 @__security_check_cookie@4
  0014c	c9		 leave
  0014d	c2 20 00	 ret	 32			; 00000020H
?CheckOffSet@ioSimpleEvent@@UAE?AUD3DXVECTOR3@@U2@UD3DXQUATERNION@@@Z ENDP ; ioSimpleEvent::CheckOffSet
_TEXT	ENDS
PUBLIC	__$ArrayPad$
PUBLIC	??$LoadFloat_e@$0BA@@ioINILoader@@QAEMAAY0BA@$$CBDM@Z ; ioINILoader::LoadFloat_e<16>
EXTRN	__imp_?LoadFloat@ioINILoader@@QAEMPBDM@Z:PROC
; Function compile flags: /Ogsp
; File d:\lost saga for developer\youtube\tutorial\source\src\io3dengine\ioiniloader.h
;	COMDAT ??$LoadFloat_e@$0BA@@ioINILoader@@QAEMAAY0BA@$$CBDM@Z
_TEXT	SEGMENT
__k$ = -24						; size = 16
__$ArrayPad$ = -4					; size = 4
_k$ = 8							; size = 4
_f$ = 12						; size = 4
??$LoadFloat_e@$0BA@@ioINILoader@@QAEMAAY0BA@$$CBDM@Z PROC ; ioINILoader::LoadFloat_e<16>, COMDAT
; _this$ = ecx

; 135  : 	{

  00000	55		 push	 ebp
  00001	8b ec		 mov	 ebp, esp
  00003	83 ec 18	 sub	 esp, 24			; 00000018H
  00006	a1 00 00 00 00	 mov	 eax, DWORD PTR ___security_cookie
  0000b	33 c5		 xor	 eax, ebp
  0000d	89 45 fc	 mov	 DWORD PTR __$ArrayPad$[ebp], eax
  00010	8b 45 08	 mov	 eax, DWORD PTR _k$[ebp]

; 136  : 		_ENCSTR(k, _k);

  00013	8a 10		 mov	 dl, BYTE PTR [eax]
  00015	56		 push	 esi
  00016	8b f1		 mov	 esi, ecx
  00018	84 d2		 test	 dl, dl
  0001a	0f 84 8c 01 00
	00		 je	 $LN96@LoadFloat_
  00020	80 f2 ed	 xor	 dl, -19			; ffffffedH
  00023	88 55 e8	 mov	 BYTE PTR __k$[ebp], dl
  00026	8a 50 01	 mov	 dl, BYTE PTR [eax+1]
  00029	84 d2		 test	 dl, dl
  0002b	0f 84 75 01 00
	00		 je	 $LN95@LoadFloat_
  00031	80 f2 ec	 xor	 dl, -20			; ffffffecH
  00034	88 55 e9	 mov	 BYTE PTR __k$[ebp+1], dl
  00037	8a 50 02	 mov	 dl, BYTE PTR [eax+2]
  0003a	84 d2		 test	 dl, dl
  0003c	0f 84 5e 01 00
	00		 je	 $LN94@LoadFloat_
  00042	b1 eb		 mov	 cl, -21			; ffffffebH
  00044	32 d1		 xor	 dl, cl
  00046	88 55 ea	 mov	 BYTE PTR __k$[ebp+2], dl
  00049	8a 50 03	 mov	 dl, BYTE PTR [eax+3]
  0004c	84 d2		 test	 dl, dl
  0004e	0f 84 46 01 00
	00		 je	 $LN93@LoadFloat_
  00054	80 f2 ea	 xor	 dl, -22			; ffffffeaH
  00057	88 55 eb	 mov	 BYTE PTR __k$[ebp+3], dl
  0005a	8a 50 04	 mov	 dl, BYTE PTR [eax+4]
  0005d	84 d2		 test	 dl, dl
  0005f	0f 84 2f 01 00
	00		 je	 $LN92@LoadFloat_
  00065	80 f2 ed	 xor	 dl, -19			; ffffffedH
  00068	88 55 ec	 mov	 BYTE PTR __k$[ebp+4], dl
  0006b	8a 50 05	 mov	 dl, BYTE PTR [eax+5]
  0006e	84 d2		 test	 dl, dl
  00070	0f 84 18 01 00
	00		 je	 $LN91@LoadFloat_
  00076	80 f2 ec	 xor	 dl, -20			; ffffffecH
  00079	88 55 ed	 mov	 BYTE PTR __k$[ebp+5], dl
  0007c	8a 50 06	 mov	 dl, BYTE PTR [eax+6]
  0007f	84 d2		 test	 dl, dl
  00081	0f 84 02 01 00
	00		 je	 $LN90@LoadFloat_
  00087	32 d1		 xor	 dl, cl
  00089	88 55 ee	 mov	 BYTE PTR __k$[ebp+6], dl
  0008c	8a 50 07	 mov	 dl, BYTE PTR [eax+7]
  0008f	84 d2		 test	 dl, dl
  00091	0f 84 ec 00 00
	00		 je	 $LN89@LoadFloat_
  00097	80 f2 ea	 xor	 dl, -22			; ffffffeaH
  0009a	88 55 ef	 mov	 BYTE PTR __k$[ebp+7], dl
  0009d	8a 50 08	 mov	 dl, BYTE PTR [eax+8]
  000a0	84 d2		 test	 dl, dl
  000a2	0f 84 d5 00 00
	00		 je	 $LN88@LoadFloat_
  000a8	80 f2 ed	 xor	 dl, -19			; ffffffedH
  000ab	88 55 f0	 mov	 BYTE PTR __k$[ebp+8], dl
  000ae	8a 50 09	 mov	 dl, BYTE PTR [eax+9]
  000b1	84 d2		 test	 dl, dl
  000b3	0f 84 be 00 00
	00		 je	 $LN87@LoadFloat_
  000b9	80 f2 ec	 xor	 dl, -20			; ffffffecH
  000bc	88 55 f1	 mov	 BYTE PTR __k$[ebp+9], dl
  000bf	8a 50 0a	 mov	 dl, BYTE PTR [eax+10]
  000c2	84 d2		 test	 dl, dl
  000c4	0f 84 a8 00 00
	00		 je	 $LN86@LoadFloat_
  000ca	32 d1		 xor	 dl, cl
  000cc	88 55 f2	 mov	 BYTE PTR __k$[ebp+10], dl
  000cf	8a 50 0b	 mov	 dl, BYTE PTR [eax+11]
  000d2	84 d2		 test	 dl, dl
  000d4	0f 84 92 00 00
	00		 je	 $LN85@LoadFloat_
  000da	80 f2 ea	 xor	 dl, -22			; ffffffeaH
  000dd	88 55 f3	 mov	 BYTE PTR __k$[ebp+11], dl
  000e0	8a 50 0c	 mov	 dl, BYTE PTR [eax+12]
  000e3	84 d2		 test	 dl, dl
  000e5	74 7f		 je	 SHORT $LN84@LoadFloat_
  000e7	80 f2 ed	 xor	 dl, -19			; ffffffedH
  000ea	88 55 f4	 mov	 BYTE PTR __k$[ebp+12], dl
  000ed	8a 50 0d	 mov	 dl, BYTE PTR [eax+13]
  000f0	84 d2		 test	 dl, dl
  000f2	74 6c		 je	 SHORT $LN83@LoadFloat_
  000f4	80 f2 ec	 xor	 dl, -20			; ffffffecH
  000f7	88 55 f5	 mov	 BYTE PTR __k$[ebp+13], dl
  000fa	8a 50 0e	 mov	 dl, BYTE PTR [eax+14]
  000fd	84 d2		 test	 dl, dl
  000ff	74 5a		 je	 SHORT $LN82@LoadFloat_
  00101	32 d1		 xor	 dl, cl
  00103	80 78 0f 00	 cmp	 BYTE PTR [eax+15], 0
  00107	88 55 f6	 mov	 BYTE PTR __k$[ebp+14], dl
  0010a	0f 84 a0 00 00
	00		 je	 $LN1@LoadFloat_
  00110	8a 50 10	 mov	 dl, BYTE PTR [eax+16]
  00113	84 d2		 test	 dl, dl
  00115	74 3e		 je	 SHORT $LN80@LoadFloat_
  00117	80 f2 ed	 xor	 dl, -19			; ffffffedH
  0011a	88 55 f8	 mov	 BYTE PTR __k$[ebp+16], dl
  0011d	8a 50 11	 mov	 dl, BYTE PTR [eax+17]
  00120	84 d2		 test	 dl, dl
  00122	74 2b		 je	 SHORT $LN79@LoadFloat_
  00124	80 f2 ec	 xor	 dl, -20			; ffffffecH
  00127	88 55 f9	 mov	 BYTE PTR __k$[ebp+17], dl
  0012a	8a 50 12	 mov	 dl, BYTE PTR [eax+18]
  0012d	84 d2		 test	 dl, dl
  0012f	74 19		 je	 SHORT $LN78@LoadFloat_
  00131	8a 40 13	 mov	 al, BYTE PTR [eax+19]
  00134	32 d1		 xor	 dl, cl
  00136	88 55 fa	 mov	 BYTE PTR __k$[ebp+18], dl
  00139	84 c0		 test	 al, al
  0013b	74 07		 je	 SHORT $LN77@LoadFloat_
  0013d	34 ea		 xor	 al, -22			; ffffffeaH
  0013f	88 45 fb	 mov	 BYTE PTR __k$[ebp+19], al
  00142	eb 6c		 jmp	 SHORT $LN1@LoadFloat_
$LN77@LoadFloat_:
  00144	c6 45 fb ea	 mov	 BYTE PTR __k$[ebp+19], -22 ; ffffffeaH
  00148	eb 66		 jmp	 SHORT $LN1@LoadFloat_
$LN78@LoadFloat_:
  0014a	88 4d fa	 mov	 BYTE PTR __k$[ebp+18], cl
  0014d	eb 61		 jmp	 SHORT $LN1@LoadFloat_
$LN79@LoadFloat_:
  0014f	c6 45 f9 ec	 mov	 BYTE PTR __k$[ebp+17], -20 ; ffffffecH
  00153	eb 5b		 jmp	 SHORT $LN1@LoadFloat_
$LN80@LoadFloat_:
  00155	c6 45 f8 ed	 mov	 BYTE PTR __k$[ebp+16], -19 ; ffffffedH
  00159	eb 55		 jmp	 SHORT $LN1@LoadFloat_
$LN82@LoadFloat_:
  0015b	88 4d f6	 mov	 BYTE PTR __k$[ebp+14], cl
  0015e	eb 50		 jmp	 SHORT $LN1@LoadFloat_
$LN83@LoadFloat_:
  00160	c6 45 f5 ec	 mov	 BYTE PTR __k$[ebp+13], -20 ; ffffffecH
  00164	eb 4a		 jmp	 SHORT $LN1@LoadFloat_
$LN84@LoadFloat_:
  00166	c6 45 f4 ed	 mov	 BYTE PTR __k$[ebp+12], -19 ; ffffffedH
  0016a	eb 44		 jmp	 SHORT $LN1@LoadFloat_
$LN85@LoadFloat_:
  0016c	c6 45 f3 ea	 mov	 BYTE PTR __k$[ebp+11], -22 ; ffffffeaH
  00170	eb 3e		 jmp	 SHORT $LN1@LoadFloat_
$LN86@LoadFloat_:
  00172	88 4d f2	 mov	 BYTE PTR __k$[ebp+10], cl
  00175	eb 39		 jmp	 SHORT $LN1@LoadFloat_
$LN87@LoadFloat_:
  00177	c6 45 f1 ec	 mov	 BYTE PTR __k$[ebp+9], -20 ; ffffffecH
  0017b	eb 33		 jmp	 SHORT $LN1@LoadFloat_
$LN88@LoadFloat_:
  0017d	c6 45 f0 ed	 mov	 BYTE PTR __k$[ebp+8], -19 ; ffffffedH
  00181	eb 2d		 jmp	 SHORT $LN1@LoadFloat_
$LN89@LoadFloat_:
  00183	c6 45 ef ea	 mov	 BYTE PTR __k$[ebp+7], -22 ; ffffffeaH
  00187	eb 27		 jmp	 SHORT $LN1@LoadFloat_
$LN90@LoadFloat_:
  00189	88 4d ee	 mov	 BYTE PTR __k$[ebp+6], cl
  0018c	eb 22		 jmp	 SHORT $LN1@LoadFloat_
$LN91@LoadFloat_:
  0018e	c6 45 ed ec	 mov	 BYTE PTR __k$[ebp+5], -20 ; ffffffecH
  00192	eb 1c		 jmp	 SHORT $LN1@LoadFloat_
$LN92@LoadFloat_:
  00194	c6 45 ec ed	 mov	 BYTE PTR __k$[ebp+4], -19 ; ffffffedH
  00198	eb 16		 jmp	 SHORT $LN1@LoadFloat_
$LN93@LoadFloat_:
  0019a	c6 45 eb ea	 mov	 BYTE PTR __k$[ebp+3], -22 ; ffffffeaH
  0019e	eb 10		 jmp	 SHORT $LN1@LoadFloat_
$LN94@LoadFloat_:
  001a0	c6 45 ea eb	 mov	 BYTE PTR __k$[ebp+2], -21 ; ffffffebH
  001a4	eb 0a		 jmp	 SHORT $LN1@LoadFloat_
$LN95@LoadFloat_:
  001a6	c6 45 e9 ec	 mov	 BYTE PTR __k$[ebp+1], -20 ; ffffffecH
  001aa	eb 04		 jmp	 SHORT $LN1@LoadFloat_
$LN96@LoadFloat_:
  001ac	c6 45 e8 ed	 mov	 BYTE PTR __k$[ebp], -19	; ffffffedH
$LN1@LoadFloat_:
  001b0	6a 03		 push	 3
  001b2	8d 45 e8	 lea	 eax, DWORD PTR __k$[ebp]
  001b5	c6 45 f7 00	 mov	 BYTE PTR __k$[ebp+15], 0
  001b9	5a		 pop	 edx
$LL104@LoadFloat_:
  001ba	81 30 ed ec eb
	ea		 xor	 DWORD PTR [eax], -353637139 ; eaebecedH
  001c0	83 c0 04	 add	 eax, 4
  001c3	4a		 dec	 edx
  001c4	75 f4		 jne	 SHORT $LL104@LoadFloat_
  001c6	6a 0c		 push	 12			; 0000000cH
  001c8	58		 pop	 eax
$LL101@LoadFloat_:
  001c9	8b c8		 mov	 ecx, eax
  001cb	81 e1 03 00 00
	80		 and	 ecx, -2147483645	; 80000003H
  001d1	79 05		 jns	 SHORT $LN111@LoadFloat_
  001d3	49		 dec	 ecx
  001d4	83 c9 fc	 or	 ecx, -4			; fffffffcH
  001d7	41		 inc	 ecx
$LN111@LoadFloat_:
  001d8	b2 ed		 mov	 dl, -19			; ffffffedH
  001da	2a d1		 sub	 dl, cl
  001dc	30 54 05 e8	 xor	 BYTE PTR __k$[ebp+eax], dl
  001e0	40		 inc	 eax
  001e1	83 f8 0f	 cmp	 eax, 15			; 0000000fH
  001e4	7c e3		 jl	 SHORT $LL101@LoadFloat_

; 137  : 		return LoadFloat(_k, f);

  001e6	f3 0f 10 45 0c	 movss	 xmm0, DWORD PTR _f$[ebp]
  001eb	51		 push	 ecx
  001ec	8d 45 e8	 lea	 eax, DWORD PTR __k$[ebp]
  001ef	f3 0f 11 04 24	 movss	 DWORD PTR [esp], xmm0
  001f4	50		 push	 eax
  001f5	8b ce		 mov	 ecx, esi
  001f7	ff 15 00 00 00
	00		 call	 DWORD PTR __imp_?LoadFloat@ioINILoader@@QAEMPBDM@Z

; 138  : 	}

  001fd	8b 4d fc	 mov	 ecx, DWORD PTR __$ArrayPad$[ebp]
  00200	33 cd		 xor	 ecx, ebp
  00202	5e		 pop	 esi
  00203	e8 00 00 00 00	 call	 @__security_check_cookie@4
  00208	c9		 leave
  00209	c2 08 00	 ret	 8
??$LoadFloat_e@$0BA@@ioINILoader@@QAEMAAY0BA@$$CBDM@Z ENDP ; ioINILoader::LoadFloat_e<16>
_TEXT	ENDS
PUBLIC	__$ArrayPad$
PUBLIC	??$LoadFloat_e@$0L@@ioINILoader@@QAEMAAY0L@$$CBDM@Z ; ioINILoader::LoadFloat_e<11>
; Function compile flags: /Ogsp
;	COMDAT ??$LoadFloat_e@$0L@@ioINILoader@@QAEMAAY0L@$$CBDM@Z
_TEXT	SEGMENT
__k$ = -20						; size = 11
__$ArrayPad$ = -4					; size = 4
_k$ = 8							; size = 4
_f$ = 12						; size = 4
??$LoadFloat_e@$0L@@ioINILoader@@QAEMAAY0L@$$CBDM@Z PROC ; ioINILoader::LoadFloat_e<11>, COMDAT
; _this$ = ecx

; 135  : 	{

  00000	55		 push	 ebp
  00001	8b ec		 mov	 ebp, esp
  00003	83 ec 14	 sub	 esp, 20			; 00000014H
  00006	a1 00 00 00 00	 mov	 eax, DWORD PTR ___security_cookie
  0000b	33 c5		 xor	 eax, ebp
  0000d	89 45 fc	 mov	 DWORD PTR __$ArrayPad$[ebp], eax
  00010	8b 45 08	 mov	 eax, DWORD PTR _k$[ebp]

; 136  : 		_ENCSTR(k, _k);

  00013	8a 10		 mov	 dl, BYTE PTR [eax]
  00015	56		 push	 esi
  00016	8b f1		 mov	 esi, ecx
  00018	84 d2		 test	 dl, dl
  0001a	0f 84 24 01 00
	00		 je	 $LN96@LoadFloat_@2
  00020	80 f2 ed	 xor	 dl, -19			; ffffffedH
  00023	88 55 ec	 mov	 BYTE PTR __k$[ebp], dl
  00026	8a 50 01	 mov	 dl, BYTE PTR [eax+1]
  00029	84 d2		 test	 dl, dl
  0002b	0f 84 0d 01 00
	00		 je	 $LN95@LoadFloat_@2
  00031	80 f2 ec	 xor	 dl, -20			; ffffffecH
  00034	88 55 ed	 mov	 BYTE PTR __k$[ebp+1], dl
  00037	8a 50 02	 mov	 dl, BYTE PTR [eax+2]
  0003a	84 d2		 test	 dl, dl
  0003c	0f 84 f6 00 00
	00		 je	 $LN94@LoadFloat_@2
  00042	80 f2 eb	 xor	 dl, -21			; ffffffebH
  00045	88 55 ee	 mov	 BYTE PTR __k$[ebp+2], dl
  00048	8a 50 03	 mov	 dl, BYTE PTR [eax+3]
  0004b	84 d2		 test	 dl, dl
  0004d	0f 84 df 00 00
	00		 je	 $LN93@LoadFloat_@2
  00053	80 f2 ea	 xor	 dl, -22			; ffffffeaH
  00056	88 55 ef	 mov	 BYTE PTR __k$[ebp+3], dl
  00059	8a 50 04	 mov	 dl, BYTE PTR [eax+4]
  0005c	84 d2		 test	 dl, dl
  0005e	0f 84 c8 00 00
	00		 je	 $LN92@LoadFloat_@2
  00064	80 f2 ed	 xor	 dl, -19			; ffffffedH
  00067	88 55 f0	 mov	 BYTE PTR __k$[ebp+4], dl
  0006a	8a 50 05	 mov	 dl, BYTE PTR [eax+5]
  0006d	84 d2		 test	 dl, dl
  0006f	0f 84 b1 00 00
	00		 je	 $LN91@LoadFloat_@2
  00075	80 f2 ec	 xor	 dl, -20			; ffffffecH
  00078	88 55 f1	 mov	 BYTE PTR __k$[ebp+5], dl
  0007b	8a 50 06	 mov	 dl, BYTE PTR [eax+6]
  0007e	84 d2		 test	 dl, dl
  00080	0f 84 9a 00 00
	00		 je	 $LN90@LoadFloat_@2
  00086	80 f2 eb	 xor	 dl, -21			; ffffffebH
  00089	88 55 f2	 mov	 BYTE PTR __k$[ebp+6], dl
  0008c	8a 50 07	 mov	 dl, BYTE PTR [eax+7]
  0008f	84 d2		 test	 dl, dl
  00091	0f 84 83 00 00
	00		 je	 $LN89@LoadFloat_@2
  00097	80 f2 ea	 xor	 dl, -22			; ffffffeaH
  0009a	88 55 f3	 mov	 BYTE PTR __k$[ebp+7], dl
  0009d	8a 50 08	 mov	 dl, BYTE PTR [eax+8]
  000a0	84 d2		 test	 dl, dl
  000a2	74 70		 je	 SHORT $LN88@LoadFloat_@2
  000a4	80 f2 ed	 xor	 dl, -19			; ffffffedH
  000a7	88 55 f4	 mov	 BYTE PTR __k$[ebp+8], dl
  000aa	8a 50 09	 mov	 dl, BYTE PTR [eax+9]
  000ad	84 d2		 test	 dl, dl
  000af	74 5d		 je	 SHORT $LN87@LoadFloat_@2
  000b1	80 f2 ec	 xor	 dl, -20			; ffffffecH
  000b4	80 78 0a 00	 cmp	 BYTE PTR [eax+10], 0
  000b8	88 55 f5	 mov	 BYTE PTR __k$[ebp+9], dl
  000bb	0f 84 87 00 00
	00		 je	 $LN1@LoadFloat_@2
  000c1	8a 50 0b	 mov	 dl, BYTE PTR [eax+11]
  000c4	84 d2		 test	 dl, dl
  000c6	74 40		 je	 SHORT $LN85@LoadFloat_@2
  000c8	80 f2 ea	 xor	 dl, -22			; ffffffeaH
  000cb	88 55 f7	 mov	 BYTE PTR __k$[ebp+11], dl
  000ce	8a 50 0c	 mov	 dl, BYTE PTR [eax+12]
  000d1	84 d2		 test	 dl, dl
  000d3	74 2d		 je	 SHORT $LN84@LoadFloat_@2
  000d5	80 f2 ed	 xor	 dl, -19			; ffffffedH
  000d8	88 55 f8	 mov	 BYTE PTR __k$[ebp+12], dl
  000db	8a 50 0d	 mov	 dl, BYTE PTR [eax+13]
  000de	84 d2		 test	 dl, dl
  000e0	74 1a		 je	 SHORT $LN83@LoadFloat_@2
  000e2	8a 40 0e	 mov	 al, BYTE PTR [eax+14]
  000e5	80 f2 ec	 xor	 dl, -20			; ffffffecH
  000e8	88 55 f9	 mov	 BYTE PTR __k$[ebp+13], dl
  000eb	84 c0		 test	 al, al
  000ed	74 07		 je	 SHORT $LN82@LoadFloat_@2
  000ef	34 eb		 xor	 al, -21			; ffffffebH
  000f1	88 45 fa	 mov	 BYTE PTR __k$[ebp+14], al
  000f4	eb 52		 jmp	 SHORT $LN1@LoadFloat_@2
$LN82@LoadFloat_@2:
  000f6	c6 45 fa eb	 mov	 BYTE PTR __k$[ebp+14], -21 ; ffffffebH
  000fa	eb 4c		 jmp	 SHORT $LN1@LoadFloat_@2
$LN83@LoadFloat_@2:
  000fc	c6 45 f9 ec	 mov	 BYTE PTR __k$[ebp+13], -20 ; ffffffecH
  00100	eb 46		 jmp	 SHORT $LN1@LoadFloat_@2
$LN84@LoadFloat_@2:
  00102	c6 45 f8 ed	 mov	 BYTE PTR __k$[ebp+12], -19 ; ffffffedH
  00106	eb 40		 jmp	 SHORT $LN1@LoadFloat_@2
$LN85@LoadFloat_@2:
  00108	c6 45 f7 ea	 mov	 BYTE PTR __k$[ebp+11], -22 ; ffffffeaH
  0010c	eb 3a		 jmp	 SHORT $LN1@LoadFloat_@2
$LN87@LoadFloat_@2:
  0010e	c6 45 f5 ec	 mov	 BYTE PTR __k$[ebp+9], -20 ; ffffffecH
  00112	eb 34		 jmp	 SHORT $LN1@LoadFloat_@2
$LN88@LoadFloat_@2:
  00114	c6 45 f4 ed	 mov	 BYTE PTR __k$[ebp+8], -19 ; ffffffedH
  00118	eb 2e		 jmp	 SHORT $LN1@LoadFloat_@2
$LN89@LoadFloat_@2:
  0011a	c6 45 f3 ea	 mov	 BYTE PTR __k$[ebp+7], -22 ; ffffffeaH
  0011e	eb 28		 jmp	 SHORT $LN1@LoadFloat_@2
$LN90@LoadFloat_@2:
  00120	c6 45 f2 eb	 mov	 BYTE PTR __k$[ebp+6], -21 ; ffffffebH
  00124	eb 22		 jmp	 SHORT $LN1@LoadFloat_@2
$LN91@LoadFloat_@2:
  00126	c6 45 f1 ec	 mov	 BYTE PTR __k$[ebp+5], -20 ; ffffffecH
  0012a	eb 1c		 jmp	 SHORT $LN1@LoadFloat_@2
$LN92@LoadFloat_@2:
  0012c	c6 45 f0 ed	 mov	 BYTE PTR __k$[ebp+4], -19 ; ffffffedH
  00130	eb 16		 jmp	 SHORT $LN1@LoadFloat_@2
$LN93@LoadFloat_@2:
  00132	c6 45 ef ea	 mov	 BYTE PTR __k$[ebp+3], -22 ; ffffffeaH
  00136	eb 10		 jmp	 SHORT $LN1@LoadFloat_@2
$LN94@LoadFloat_@2:
  00138	c6 45 ee eb	 mov	 BYTE PTR __k$[ebp+2], -21 ; ffffffebH
  0013c	eb 0a		 jmp	 SHORT $LN1@LoadFloat_@2
$LN95@LoadFloat_@2:
  0013e	c6 45 ed ec	 mov	 BYTE PTR __k$[ebp+1], -20 ; ffffffecH
  00142	eb 04		 jmp	 SHORT $LN1@LoadFloat_@2
$LN96@LoadFloat_@2:
  00144	c6 45 ec ed	 mov	 BYTE PTR __k$[ebp], -19	; ffffffedH
$LN1@LoadFloat_@2:
  00148	6a 02		 push	 2
  0014a	8d 45 ec	 lea	 eax, DWORD PTR __k$[ebp]
  0014d	c6 45 f6 00	 mov	 BYTE PTR __k$[ebp+10], 0
  00151	5a		 pop	 edx
$LL104@LoadFloat_@2:
  00152	81 30 ed ec eb
	ea		 xor	 DWORD PTR [eax], -353637139 ; eaebecedH
  00158	83 c0 04	 add	 eax, 4
  0015b	4a		 dec	 edx
  0015c	75 f4		 jne	 SHORT $LL104@LoadFloat_@2
  0015e	6a 08		 push	 8
  00160	58		 pop	 eax
$LL101@LoadFloat_@2:
  00161	8b c8		 mov	 ecx, eax
  00163	81 e1 03 00 00
	80		 and	 ecx, -2147483645	; 80000003H
  00169	79 05		 jns	 SHORT $LN111@LoadFloat_@2
  0016b	49		 dec	 ecx
  0016c	83 c9 fc	 or	 ecx, -4			; fffffffcH
  0016f	41		 inc	 ecx
$LN111@LoadFloat_@2:
  00170	b2 ed		 mov	 dl, -19			; ffffffedH
  00172	2a d1		 sub	 dl, cl
  00174	30 54 05 ec	 xor	 BYTE PTR __k$[ebp+eax], dl
  00178	40		 inc	 eax
  00179	83 f8 0a	 cmp	 eax, 10			; 0000000aH
  0017c	7c e3		 jl	 SHORT $LL101@LoadFloat_@2

; 137  : 		return LoadFloat(_k, f);

  0017e	f3 0f 10 45 0c	 movss	 xmm0, DWORD PTR _f$[ebp]
  00183	51		 push	 ecx
  00184	8d 45 ec	 lea	 eax, DWORD PTR __k$[ebp]
  00187	f3 0f 11 04 24	 movss	 DWORD PTR [esp], xmm0
  0018c	50		 push	 eax
  0018d	8b ce		 mov	 ecx, esi
  0018f	ff 15 00 00 00
	00		 call	 DWORD PTR __imp_?LoadFloat@ioINILoader@@QAEMPBDM@Z

; 138  : 	}

  00195	8b 4d fc	 mov	 ecx, DWORD PTR __$ArrayPad$[ebp]
  00198	33 cd		 xor	 ecx, ebp
  0019a	5e		 pop	 esi
  0019b	e8 00 00 00 00	 call	 @__security_check_cookie@4
  001a0	c9		 leave
  001a1	c2 08 00	 ret	 8
??$LoadFloat_e@$0L@@ioINILoader@@QAEMAAY0L@$$CBDM@Z ENDP ; ioINILoader::LoadFloat_e<11>
_TEXT	ENDS
PUBLIC	__$ArrayPad$
PUBLIC	??$LoadInt_e@$0N@@ioINILoader@@QAEHAAY0N@$$CBDH@Z ; ioINILoader::LoadInt_e<13>
EXTRN	__imp_?LoadInt@ioINILoader@@QAEHPBDH@Z:PROC
; Function compile flags: /Ogsp
;	COMDAT ??$LoadInt_e@$0N@@ioINILoader@@QAEHAAY0N@$$CBDH@Z
_TEXT	SEGMENT
__k$ = -24						; size = 13
__$ArrayPad$ = -4					; size = 4
_k$ = 8							; size = 4
_i$ = 12						; size = 4
??$LoadInt_e@$0N@@ioINILoader@@QAEHAAY0N@$$CBDH@Z PROC	; ioINILoader::LoadInt_e<13>, COMDAT
; _this$ = ecx

; 118  : 	{

  00000	55		 push	 ebp
  00001	8b ec		 mov	 ebp, esp
  00003	83 ec 18	 sub	 esp, 24			; 00000018H
  00006	a1 00 00 00 00	 mov	 eax, DWORD PTR ___security_cookie
  0000b	33 c5		 xor	 eax, ebp
  0000d	89 45 fc	 mov	 DWORD PTR __$ArrayPad$[ebp], eax
  00010	8b 45 08	 mov	 eax, DWORD PTR _k$[ebp]

; 119  : 		_ENCSTR(k, _k);

  00013	8a 10		 mov	 dl, BYTE PTR [eax]
  00015	56		 push	 esi
  00016	8b f1		 mov	 esi, ecx
  00018	84 d2		 test	 dl, dl
  0001a	0f 84 4d 01 00
	00		 je	 $LN96@LoadInt_e
  00020	80 f2 ed	 xor	 dl, -19			; ffffffedH
  00023	88 55 e8	 mov	 BYTE PTR __k$[ebp], dl
  00026	8a 50 01	 mov	 dl, BYTE PTR [eax+1]
  00029	84 d2		 test	 dl, dl
  0002b	0f 84 36 01 00
	00		 je	 $LN95@LoadInt_e
  00031	b1 ec		 mov	 cl, -20			; ffffffecH
  00033	32 d1		 xor	 dl, cl
  00035	88 55 e9	 mov	 BYTE PTR __k$[ebp+1], dl
  00038	8a 50 02	 mov	 dl, BYTE PTR [eax+2]
  0003b	84 d2		 test	 dl, dl
  0003d	0f 84 1e 01 00
	00		 je	 $LN94@LoadInt_e
  00043	80 f2 eb	 xor	 dl, -21			; ffffffebH
  00046	88 55 ea	 mov	 BYTE PTR __k$[ebp+2], dl
  00049	8a 50 03	 mov	 dl, BYTE PTR [eax+3]
  0004c	84 d2		 test	 dl, dl
  0004e	0f 84 07 01 00
	00		 je	 $LN93@LoadInt_e
  00054	80 f2 ea	 xor	 dl, -22			; ffffffeaH
  00057	88 55 eb	 mov	 BYTE PTR __k$[ebp+3], dl
  0005a	8a 50 04	 mov	 dl, BYTE PTR [eax+4]
  0005d	84 d2		 test	 dl, dl
  0005f	0f 84 f0 00 00
	00		 je	 $LN92@LoadInt_e
  00065	80 f2 ed	 xor	 dl, -19			; ffffffedH
  00068	88 55 ec	 mov	 BYTE PTR __k$[ebp+4], dl
  0006b	8a 50 05	 mov	 dl, BYTE PTR [eax+5]
  0006e	84 d2		 test	 dl, dl
  00070	0f 84 da 00 00
	00		 je	 $LN91@LoadInt_e
  00076	32 d1		 xor	 dl, cl
  00078	88 55 ed	 mov	 BYTE PTR __k$[ebp+5], dl
  0007b	8a 50 06	 mov	 dl, BYTE PTR [eax+6]
  0007e	84 d2		 test	 dl, dl
  00080	0f 84 c4 00 00
	00		 je	 $LN90@LoadInt_e
  00086	80 f2 eb	 xor	 dl, -21			; ffffffebH
  00089	88 55 ee	 mov	 BYTE PTR __k$[ebp+6], dl
  0008c	8a 50 07	 mov	 dl, BYTE PTR [eax+7]
  0008f	84 d2		 test	 dl, dl
  00091	0f 84 ad 00 00
	00		 je	 $LN89@LoadInt_e
  00097	80 f2 ea	 xor	 dl, -22			; ffffffeaH
  0009a	88 55 ef	 mov	 BYTE PTR __k$[ebp+7], dl
  0009d	8a 50 08	 mov	 dl, BYTE PTR [eax+8]
  000a0	84 d2		 test	 dl, dl
  000a2	0f 84 96 00 00
	00		 je	 $LN88@LoadInt_e
  000a8	80 f2 ed	 xor	 dl, -19			; ffffffedH
  000ab	88 55 f0	 mov	 BYTE PTR __k$[ebp+8], dl
  000ae	8a 50 09	 mov	 dl, BYTE PTR [eax+9]
  000b1	84 d2		 test	 dl, dl
  000b3	0f 84 80 00 00
	00		 je	 $LN87@LoadInt_e
  000b9	32 d1		 xor	 dl, cl
  000bb	88 55 f1	 mov	 BYTE PTR __k$[ebp+9], dl
  000be	8a 50 0a	 mov	 dl, BYTE PTR [eax+10]
  000c1	84 d2		 test	 dl, dl
  000c3	74 6e		 je	 SHORT $LN86@LoadInt_e
  000c5	80 f2 eb	 xor	 dl, -21			; ffffffebH
  000c8	88 55 f2	 mov	 BYTE PTR __k$[ebp+10], dl
  000cb	8a 50 0b	 mov	 dl, BYTE PTR [eax+11]
  000ce	84 d2		 test	 dl, dl
  000d0	74 5b		 je	 SHORT $LN85@LoadInt_e
  000d2	80 f2 ea	 xor	 dl, -22			; ffffffeaH
  000d5	80 78 0c 00	 cmp	 BYTE PTR [eax+12], 0
  000d9	88 55 f3	 mov	 BYTE PTR __k$[ebp+11], dl
  000dc	0f 84 8f 00 00
	00		 je	 $LN1@LoadInt_e
  000e2	8a 50 0d	 mov	 dl, BYTE PTR [eax+13]
  000e5	84 d2		 test	 dl, dl
  000e7	74 3f		 je	 SHORT $LN83@LoadInt_e
  000e9	32 d1		 xor	 dl, cl
  000eb	88 55 f5	 mov	 BYTE PTR __k$[ebp+13], dl
  000ee	8a 50 0e	 mov	 dl, BYTE PTR [eax+14]
  000f1	84 d2		 test	 dl, dl
  000f3	74 2d		 je	 SHORT $LN82@LoadInt_e
  000f5	80 f2 eb	 xor	 dl, -21			; ffffffebH
  000f8	88 55 f6	 mov	 BYTE PTR __k$[ebp+14], dl
  000fb	8a 50 0f	 mov	 dl, BYTE PTR [eax+15]
  000fe	84 d2		 test	 dl, dl
  00100	74 1a		 je	 SHORT $LN81@LoadInt_e
  00102	8a 40 10	 mov	 al, BYTE PTR [eax+16]
  00105	80 f2 ea	 xor	 dl, -22			; ffffffeaH
  00108	88 55 f7	 mov	 BYTE PTR __k$[ebp+15], dl
  0010b	84 c0		 test	 al, al
  0010d	74 07		 je	 SHORT $LN80@LoadInt_e
  0010f	34 ed		 xor	 al, -19			; ffffffedH
  00111	88 45 f8	 mov	 BYTE PTR __k$[ebp+16], al
  00114	eb 5b		 jmp	 SHORT $LN1@LoadInt_e
$LN80@LoadInt_e:
  00116	c6 45 f8 ed	 mov	 BYTE PTR __k$[ebp+16], -19 ; ffffffedH
  0011a	eb 55		 jmp	 SHORT $LN1@LoadInt_e
$LN81@LoadInt_e:
  0011c	c6 45 f7 ea	 mov	 BYTE PTR __k$[ebp+15], -22 ; ffffffeaH
  00120	eb 4f		 jmp	 SHORT $LN1@LoadInt_e
$LN82@LoadInt_e:
  00122	c6 45 f6 eb	 mov	 BYTE PTR __k$[ebp+14], -21 ; ffffffebH
  00126	eb 49		 jmp	 SHORT $LN1@LoadInt_e
$LN83@LoadInt_e:
  00128	88 4d f5	 mov	 BYTE PTR __k$[ebp+13], cl
  0012b	eb 44		 jmp	 SHORT $LN1@LoadInt_e
$LN85@LoadInt_e:
  0012d	c6 45 f3 ea	 mov	 BYTE PTR __k$[ebp+11], -22 ; ffffffeaH
  00131	eb 3e		 jmp	 SHORT $LN1@LoadInt_e
$LN86@LoadInt_e:
  00133	c6 45 f2 eb	 mov	 BYTE PTR __k$[ebp+10], -21 ; ffffffebH
  00137	eb 38		 jmp	 SHORT $LN1@LoadInt_e
$LN87@LoadInt_e:
  00139	88 4d f1	 mov	 BYTE PTR __k$[ebp+9], cl
  0013c	eb 33		 jmp	 SHORT $LN1@LoadInt_e
$LN88@LoadInt_e:
  0013e	c6 45 f0 ed	 mov	 BYTE PTR __k$[ebp+8], -19 ; ffffffedH
  00142	eb 2d		 jmp	 SHORT $LN1@LoadInt_e
$LN89@LoadInt_e:
  00144	c6 45 ef ea	 mov	 BYTE PTR __k$[ebp+7], -22 ; ffffffeaH
  00148	eb 27		 jmp	 SHORT $LN1@LoadInt_e
$LN90@LoadInt_e:
  0014a	c6 45 ee eb	 mov	 BYTE PTR __k$[ebp+6], -21 ; ffffffebH
  0014e	eb 21		 jmp	 SHORT $LN1@LoadInt_e
$LN91@LoadInt_e:
  00150	88 4d ed	 mov	 BYTE PTR __k$[ebp+5], cl
  00153	eb 1c		 jmp	 SHORT $LN1@LoadInt_e
$LN92@LoadInt_e:
  00155	c6 45 ec ed	 mov	 BYTE PTR __k$[ebp+4], -19 ; ffffffedH
  00159	eb 16		 jmp	 SHORT $LN1@LoadInt_e
$LN93@LoadInt_e:
  0015b	c6 45 eb ea	 mov	 BYTE PTR __k$[ebp+3], -22 ; ffffffeaH
  0015f	eb 10		 jmp	 SHORT $LN1@LoadInt_e
$LN94@LoadInt_e:
  00161	c6 45 ea eb	 mov	 BYTE PTR __k$[ebp+2], -21 ; ffffffebH
  00165	eb 0a		 jmp	 SHORT $LN1@LoadInt_e
$LN95@LoadInt_e:
  00167	c6 45 e9 ec	 mov	 BYTE PTR __k$[ebp+1], -20 ; ffffffecH
  0016b	eb 04		 jmp	 SHORT $LN1@LoadInt_e
$LN96@LoadInt_e:
  0016d	c6 45 e8 ed	 mov	 BYTE PTR __k$[ebp], -19	; ffffffedH
$LN1@LoadInt_e:
  00171	6a 03		 push	 3
  00173	8d 45 e8	 lea	 eax, DWORD PTR __k$[ebp]
  00176	c6 45 f4 00	 mov	 BYTE PTR __k$[ebp+12], 0
  0017a	5a		 pop	 edx
$LL104@LoadInt_e:
  0017b	81 30 ed ec eb
	ea		 xor	 DWORD PTR [eax], -353637139 ; eaebecedH
  00181	83 c0 04	 add	 eax, 4
  00184	4a		 dec	 edx
  00185	75 f4		 jne	 SHORT $LL104@LoadInt_e

; 120  : 		return LoadInt(_k, i);

  00187	ff 75 0c	 push	 DWORD PTR _i$[ebp]
  0018a	8d 45 e8	 lea	 eax, DWORD PTR __k$[ebp]
  0018d	50		 push	 eax
  0018e	8b ce		 mov	 ecx, esi
  00190	ff 15 00 00 00
	00		 call	 DWORD PTR __imp_?LoadInt@ioINILoader@@QAEHPBDH@Z

; 121  : 	}

  00196	8b 4d fc	 mov	 ecx, DWORD PTR __$ArrayPad$[ebp]
  00199	33 cd		 xor	 ecx, ebp
  0019b	5e		 pop	 esi
  0019c	e8 00 00 00 00	 call	 @__security_check_cookie@4
  001a1	c9		 leave
  001a2	c2 08 00	 ret	 8
??$LoadInt_e@$0N@@ioINILoader@@QAEHAAY0N@$$CBDH@Z ENDP	; ioINILoader::LoadInt_e<13>
_TEXT	ENDS
PUBLIC	__$ArrayPad$
PUBLIC	??$LoadInt_e@$0O@@ioINILoader@@QAEHAAY0O@$$CBDH@Z ; ioINILoader::LoadInt_e<14>
; Function compile flags: /Ogsp
;	COMDAT ??$LoadInt_e@$0O@@ioINILoader@@QAEHAAY0O@$$CBDH@Z
_TEXT	SEGMENT
__k$ = -24						; size = 14
__$ArrayPad$ = -4					; size = 4
_k$ = 8							; size = 4
_i$ = 12						; size = 4
??$LoadInt_e@$0O@@ioINILoader@@QAEHAAY0O@$$CBDH@Z PROC	; ioINILoader::LoadInt_e<14>, COMDAT
; _this$ = ecx

; 118  : 	{

  00000	55		 push	 ebp
  00001	8b ec		 mov	 ebp, esp
  00003	83 ec 18	 sub	 esp, 24			; 00000018H
  00006	a1 00 00 00 00	 mov	 eax, DWORD PTR ___security_cookie
  0000b	33 c5		 xor	 eax, ebp
  0000d	89 45 fc	 mov	 DWORD PTR __$ArrayPad$[ebp], eax
  00010	8b 45 08	 mov	 eax, DWORD PTR _k$[ebp]

; 119  : 		_ENCSTR(k, _k);

  00013	8a 10		 mov	 dl, BYTE PTR [eax]
  00015	56		 push	 esi
  00016	8b f1		 mov	 esi, ecx
  00018	84 d2		 test	 dl, dl
  0001a	0f 84 64 01 00
	00		 je	 $LN96@LoadInt_e@2
  00020	80 f2 ed	 xor	 dl, -19			; ffffffedH
  00023	88 55 e8	 mov	 BYTE PTR __k$[ebp], dl
  00026	8a 50 01	 mov	 dl, BYTE PTR [eax+1]
  00029	84 d2		 test	 dl, dl
  0002b	0f 84 4d 01 00
	00		 je	 $LN95@LoadInt_e@2
  00031	80 f2 ec	 xor	 dl, -20			; ffffffecH
  00034	88 55 e9	 mov	 BYTE PTR __k$[ebp+1], dl
  00037	8a 50 02	 mov	 dl, BYTE PTR [eax+2]
  0003a	84 d2		 test	 dl, dl
  0003c	0f 84 36 01 00
	00		 je	 $LN94@LoadInt_e@2
  00042	b1 eb		 mov	 cl, -21			; ffffffebH
  00044	32 d1		 xor	 dl, cl
  00046	88 55 ea	 mov	 BYTE PTR __k$[ebp+2], dl
  00049	8a 50 03	 mov	 dl, BYTE PTR [eax+3]
  0004c	84 d2		 test	 dl, dl
  0004e	0f 84 1e 01 00
	00		 je	 $LN93@LoadInt_e@2
  00054	80 f2 ea	 xor	 dl, -22			; ffffffeaH
  00057	88 55 eb	 mov	 BYTE PTR __k$[ebp+3], dl
  0005a	8a 50 04	 mov	 dl, BYTE PTR [eax+4]
  0005d	84 d2		 test	 dl, dl
  0005f	0f 84 07 01 00
	00		 je	 $LN92@LoadInt_e@2
  00065	80 f2 ed	 xor	 dl, -19			; ffffffedH
  00068	88 55 ec	 mov	 BYTE PTR __k$[ebp+4], dl
  0006b	8a 50 05	 mov	 dl, BYTE PTR [eax+5]
  0006e	84 d2		 test	 dl, dl
  00070	0f 84 f0 00 00
	00		 je	 $LN91@LoadInt_e@2
  00076	80 f2 ec	 xor	 dl, -20			; ffffffecH
  00079	88 55 ed	 mov	 BYTE PTR __k$[ebp+5], dl
  0007c	8a 50 06	 mov	 dl, BYTE PTR [eax+6]
  0007f	84 d2		 test	 dl, dl
  00081	0f 84 da 00 00
	00		 je	 $LN90@LoadInt_e@2
  00087	32 d1		 xor	 dl, cl
  00089	88 55 ee	 mov	 BYTE PTR __k$[ebp+6], dl
  0008c	8a 50 07	 mov	 dl, BYTE PTR [eax+7]
  0008f	84 d2		 test	 dl, dl
  00091	0f 84 c4 00 00
	00		 je	 $LN89@LoadInt_e@2
  00097	80 f2 ea	 xor	 dl, -22			; ffffffeaH
  0009a	88 55 ef	 mov	 BYTE PTR __k$[ebp+7], dl
  0009d	8a 50 08	 mov	 dl, BYTE PTR [eax+8]
  000a0	84 d2		 test	 dl, dl
  000a2	0f 84 ad 00 00
	00		 je	 $LN88@LoadInt_e@2
  000a8	80 f2 ed	 xor	 dl, -19			; ffffffedH
  000ab	88 55 f0	 mov	 BYTE PTR __k$[ebp+8], dl
  000ae	8a 50 09	 mov	 dl, BYTE PTR [eax+9]
  000b1	84 d2		 test	 dl, dl
  000b3	0f 84 96 00 00
	00		 je	 $LN87@LoadInt_e@2
  000b9	80 f2 ec	 xor	 dl, -20			; ffffffecH
  000bc	88 55 f1	 mov	 BYTE PTR __k$[ebp+9], dl
  000bf	8a 50 0a	 mov	 dl, BYTE PTR [eax+10]
  000c2	84 d2		 test	 dl, dl
  000c4	0f 84 80 00 00
	00		 je	 $LN86@LoadInt_e@2
  000ca	32 d1		 xor	 dl, cl
  000cc	88 55 f2	 mov	 BYTE PTR __k$[ebp+10], dl
  000cf	8a 50 0b	 mov	 dl, BYTE PTR [eax+11]
  000d2	84 d2		 test	 dl, dl
  000d4	74 6e		 je	 SHORT $LN85@LoadInt_e@2
  000d6	80 f2 ea	 xor	 dl, -22			; ffffffeaH
  000d9	88 55 f3	 mov	 BYTE PTR __k$[ebp+11], dl
  000dc	8a 50 0c	 mov	 dl, BYTE PTR [eax+12]
  000df	84 d2		 test	 dl, dl
  000e1	74 5b		 je	 SHORT $LN84@LoadInt_e@2
  000e3	80 f2 ed	 xor	 dl, -19			; ffffffedH
  000e6	80 78 0d 00	 cmp	 BYTE PTR [eax+13], 0
  000ea	88 55 f4	 mov	 BYTE PTR __k$[ebp+12], dl
  000ed	0f 84 95 00 00
	00		 je	 $LN1@LoadInt_e@2
  000f3	8a 50 0e	 mov	 dl, BYTE PTR [eax+14]
  000f6	84 d2		 test	 dl, dl
  000f8	74 3f		 je	 SHORT $LN82@LoadInt_e@2
  000fa	32 d1		 xor	 dl, cl
  000fc	88 55 f6	 mov	 BYTE PTR __k$[ebp+14], dl
  000ff	8a 50 0f	 mov	 dl, BYTE PTR [eax+15]
  00102	84 d2		 test	 dl, dl
  00104	74 2d		 je	 SHORT $LN81@LoadInt_e@2
  00106	80 f2 ea	 xor	 dl, -22			; ffffffeaH
  00109	88 55 f7	 mov	 BYTE PTR __k$[ebp+15], dl
  0010c	8a 50 10	 mov	 dl, BYTE PTR [eax+16]
  0010f	84 d2		 test	 dl, dl
  00111	74 1a		 je	 SHORT $LN80@LoadInt_e@2
  00113	8a 40 11	 mov	 al, BYTE PTR [eax+17]
  00116	80 f2 ed	 xor	 dl, -19			; ffffffedH
  00119	88 55 f8	 mov	 BYTE PTR __k$[ebp+16], dl
  0011c	84 c0		 test	 al, al
  0011e	74 07		 je	 SHORT $LN79@LoadInt_e@2
  00120	34 ec		 xor	 al, -20			; ffffffecH
  00122	88 45 f9	 mov	 BYTE PTR __k$[ebp+17], al
  00125	eb 61		 jmp	 SHORT $LN1@LoadInt_e@2
$LN79@LoadInt_e@2:
  00127	c6 45 f9 ec	 mov	 BYTE PTR __k$[ebp+17], -20 ; ffffffecH
  0012b	eb 5b		 jmp	 SHORT $LN1@LoadInt_e@2
$LN80@LoadInt_e@2:
  0012d	c6 45 f8 ed	 mov	 BYTE PTR __k$[ebp+16], -19 ; ffffffedH
  00131	eb 55		 jmp	 SHORT $LN1@LoadInt_e@2
$LN81@LoadInt_e@2:
  00133	c6 45 f7 ea	 mov	 BYTE PTR __k$[ebp+15], -22 ; ffffffeaH
  00137	eb 4f		 jmp	 SHORT $LN1@LoadInt_e@2
$LN82@LoadInt_e@2:
  00139	88 4d f6	 mov	 BYTE PTR __k$[ebp+14], cl
  0013c	eb 4a		 jmp	 SHORT $LN1@LoadInt_e@2
$LN84@LoadInt_e@2:
  0013e	c6 45 f4 ed	 mov	 BYTE PTR __k$[ebp+12], -19 ; ffffffedH
  00142	eb 44		 jmp	 SHORT $LN1@LoadInt_e@2
$LN85@LoadInt_e@2:
  00144	c6 45 f3 ea	 mov	 BYTE PTR __k$[ebp+11], -22 ; ffffffeaH
  00148	eb 3e		 jmp	 SHORT $LN1@LoadInt_e@2
$LN86@LoadInt_e@2:
  0014a	88 4d f2	 mov	 BYTE PTR __k$[ebp+10], cl
  0014d	eb 39		 jmp	 SHORT $LN1@LoadInt_e@2
$LN87@LoadInt_e@2:
  0014f	c6 45 f1 ec	 mov	 BYTE PTR __k$[ebp+9], -20 ; ffffffecH
  00153	eb 33		 jmp	 SHORT $LN1@LoadInt_e@2
$LN88@LoadInt_e@2:
  00155	c6 45 f0 ed	 mov	 BYTE PTR __k$[ebp+8], -19 ; ffffffedH
  00159	eb 2d		 jmp	 SHORT $LN1@LoadInt_e@2
$LN89@LoadInt_e@2:
  0015b	c6 45 ef ea	 mov	 BYTE PTR __k$[ebp+7], -22 ; ffffffeaH
  0015f	eb 27		 jmp	 SHORT $LN1@LoadInt_e@2
$LN90@LoadInt_e@2:
  00161	88 4d ee	 mov	 BYTE PTR __k$[ebp+6], cl
  00164	eb 22		 jmp	 SHORT $LN1@LoadInt_e@2
$LN91@LoadInt_e@2:
  00166	c6 45 ed ec	 mov	 BYTE PTR __k$[ebp+5], -20 ; ffffffecH
  0016a	eb 1c		 jmp	 SHORT $LN1@LoadInt_e@2
$LN92@LoadInt_e@2:
  0016c	c6 45 ec ed	 mov	 BYTE PTR __k$[ebp+4], -19 ; ffffffedH
  00170	eb 16		 jmp	 SHORT $LN1@LoadInt_e@2
$LN93@LoadInt_e@2:
  00172	c6 45 eb ea	 mov	 BYTE PTR __k$[ebp+3], -22 ; ffffffeaH
  00176	eb 10		 jmp	 SHORT $LN1@LoadInt_e@2
$LN94@LoadInt_e@2:
  00178	c6 45 ea eb	 mov	 BYTE PTR __k$[ebp+2], -21 ; ffffffebH
  0017c	eb 0a		 jmp	 SHORT $LN1@LoadInt_e@2
$LN95@LoadInt_e@2:
  0017e	c6 45 e9 ec	 mov	 BYTE PTR __k$[ebp+1], -20 ; ffffffecH
  00182	eb 04		 jmp	 SHORT $LN1@LoadInt_e@2
$LN96@LoadInt_e@2:
  00184	c6 45 e8 ed	 mov	 BYTE PTR __k$[ebp], -19	; ffffffedH
$LN1@LoadInt_e@2:
  00188	6a 03		 push	 3
  0018a	8d 45 e8	 lea	 eax, DWORD PTR __k$[ebp]
  0018d	c6 45 f5 00	 mov	 BYTE PTR __k$[ebp+13], 0
  00191	5a		 pop	 edx
$LL104@LoadInt_e@2:
  00192	81 30 ed ec eb
	ea		 xor	 DWORD PTR [eax], -353637139 ; eaebecedH
  00198	83 c0 04	 add	 eax, 4
  0019b	4a		 dec	 edx
  0019c	75 f4		 jne	 SHORT $LL104@LoadInt_e@2

; 120  : 		return LoadInt(_k, i);

  0019e	ff 75 0c	 push	 DWORD PTR _i$[ebp]
  001a1	80 75 f4 ed	 xor	 BYTE PTR __k$[ebp+12], -19 ; ffffffedH
  001a5	8d 45 e8	 lea	 eax, DWORD PTR __k$[ebp]
  001a8	50		 push	 eax
  001a9	8b ce		 mov	 ecx, esi
  001ab	ff 15 00 00 00
	00		 call	 DWORD PTR __imp_?LoadInt@ioINILoader@@QAEHPBDH@Z

; 121  : 	}

  001b1	8b 4d fc	 mov	 ecx, DWORD PTR __$ArrayPad$[ebp]
  001b4	33 cd		 xor	 ecx, ebp
  001b6	5e		 pop	 esi
  001b7	e8 00 00 00 00	 call	 @__security_check_cookie@4
  001bc	c9		 leave
  001bd	c2 08 00	 ret	 8
??$LoadInt_e@$0O@@ioINILoader@@QAEHAAY0O@$$CBDH@Z ENDP	; ioINILoader::LoadInt_e<14>
_TEXT	ENDS
PUBLIC	__$ArrayPad$
PUBLIC	??$LoadInt_e@$0P@@ioINILoader@@QAEHAAY0P@$$CBDH@Z ; ioINILoader::LoadInt_e<15>
; Function compile flags: /Ogsp
;	COMDAT ??$LoadInt_e@$0P@@ioINILoader@@QAEHAAY0P@$$CBDH@Z
_TEXT	SEGMENT
__k$ = -24						; size = 15
__$ArrayPad$ = -4					; size = 4
_k$ = 8							; size = 4
_i$ = 12						; size = 4
??$LoadInt_e@$0P@@ioINILoader@@QAEHAAY0P@$$CBDH@Z PROC	; ioINILoader::LoadInt_e<15>, COMDAT
; _this$ = ecx

; 118  : 	{

  00000	55		 push	 ebp
  00001	8b ec		 mov	 ebp, esp
  00003	83 ec 18	 sub	 esp, 24			; 00000018H
  00006	a1 00 00 00 00	 mov	 eax, DWORD PTR ___security_cookie
  0000b	33 c5		 xor	 eax, ebp
  0000d	89 45 fc	 mov	 DWORD PTR __$ArrayPad$[ebp], eax
  00010	8b 45 08	 mov	 eax, DWORD PTR _k$[ebp]

; 119  : 		_ENCSTR(k, _k);

  00013	8a 10		 mov	 dl, BYTE PTR [eax]
  00015	56		 push	 esi
  00016	8b f1		 mov	 esi, ecx
  00018	84 d2		 test	 dl, dl
  0001a	0f 84 75 01 00
	00		 je	 $LN96@LoadInt_e@3
  00020	80 f2 ed	 xor	 dl, -19			; ffffffedH
  00023	88 55 e8	 mov	 BYTE PTR __k$[ebp], dl
  00026	8a 50 01	 mov	 dl, BYTE PTR [eax+1]
  00029	84 d2		 test	 dl, dl
  0002b	0f 84 5e 01 00
	00		 je	 $LN95@LoadInt_e@3
  00031	b1 ec		 mov	 cl, -20			; ffffffecH
  00033	32 d1		 xor	 dl, cl
  00035	88 55 e9	 mov	 BYTE PTR __k$[ebp+1], dl
  00038	8a 50 02	 mov	 dl, BYTE PTR [eax+2]
  0003b	84 d2		 test	 dl, dl
  0003d	0f 84 46 01 00
	00		 je	 $LN94@LoadInt_e@3
  00043	80 f2 eb	 xor	 dl, -21			; ffffffebH
  00046	88 55 ea	 mov	 BYTE PTR __k$[ebp+2], dl
  00049	8a 50 03	 mov	 dl, BYTE PTR [eax+3]
  0004c	84 d2		 test	 dl, dl
  0004e	0f 84 2f 01 00
	00		 je	 $LN93@LoadInt_e@3
  00054	80 f2 ea	 xor	 dl, -22			; ffffffeaH
  00057	88 55 eb	 mov	 BYTE PTR __k$[ebp+3], dl
  0005a	8a 50 04	 mov	 dl, BYTE PTR [eax+4]
  0005d	84 d2		 test	 dl, dl
  0005f	0f 84 18 01 00
	00		 je	 $LN92@LoadInt_e@3
  00065	80 f2 ed	 xor	 dl, -19			; ffffffedH
  00068	88 55 ec	 mov	 BYTE PTR __k$[ebp+4], dl
  0006b	8a 50 05	 mov	 dl, BYTE PTR [eax+5]
  0006e	84 d2		 test	 dl, dl
  00070	0f 84 02 01 00
	00		 je	 $LN91@LoadInt_e@3
  00076	32 d1		 xor	 dl, cl
  00078	88 55 ed	 mov	 BYTE PTR __k$[ebp+5], dl
  0007b	8a 50 06	 mov	 dl, BYTE PTR [eax+6]
  0007e	84 d2		 test	 dl, dl
  00080	0f 84 ec 00 00
	00		 je	 $LN90@LoadInt_e@3
  00086	80 f2 eb	 xor	 dl, -21			; ffffffebH
  00089	88 55 ee	 mov	 BYTE PTR __k$[ebp+6], dl
  0008c	8a 50 07	 mov	 dl, BYTE PTR [eax+7]
  0008f	84 d2		 test	 dl, dl
  00091	0f 84 d5 00 00
	00		 je	 $LN89@LoadInt_e@3
  00097	80 f2 ea	 xor	 dl, -22			; ffffffeaH
  0009a	88 55 ef	 mov	 BYTE PTR __k$[ebp+7], dl
  0009d	8a 50 08	 mov	 dl, BYTE PTR [eax+8]
  000a0	84 d2		 test	 dl, dl
  000a2	0f 84 be 00 00
	00		 je	 $LN88@LoadInt_e@3
  000a8	80 f2 ed	 xor	 dl, -19			; ffffffedH
  000ab	88 55 f0	 mov	 BYTE PTR __k$[ebp+8], dl
  000ae	8a 50 09	 mov	 dl, BYTE PTR [eax+9]
  000b1	84 d2		 test	 dl, dl
  000b3	0f 84 a8 00 00
	00		 je	 $LN87@LoadInt_e@3
  000b9	32 d1		 xor	 dl, cl
  000bb	88 55 f1	 mov	 BYTE PTR __k$[ebp+9], dl
  000be	8a 50 0a	 mov	 dl, BYTE PTR [eax+10]
  000c1	84 d2		 test	 dl, dl
  000c3	0f 84 92 00 00
	00		 je	 $LN86@LoadInt_e@3
  000c9	80 f2 eb	 xor	 dl, -21			; ffffffebH
  000cc	88 55 f2	 mov	 BYTE PTR __k$[ebp+10], dl
  000cf	8a 50 0b	 mov	 dl, BYTE PTR [eax+11]
  000d2	84 d2		 test	 dl, dl
  000d4	74 7f		 je	 SHORT $LN85@LoadInt_e@3
  000d6	80 f2 ea	 xor	 dl, -22			; ffffffeaH
  000d9	88 55 f3	 mov	 BYTE PTR __k$[ebp+11], dl
  000dc	8a 50 0c	 mov	 dl, BYTE PTR [eax+12]
  000df	84 d2		 test	 dl, dl
  000e1	74 6c		 je	 SHORT $LN84@LoadInt_e@3
  000e3	80 f2 ed	 xor	 dl, -19			; ffffffedH
  000e6	88 55 f4	 mov	 BYTE PTR __k$[ebp+12], dl
  000e9	8a 50 0d	 mov	 dl, BYTE PTR [eax+13]
  000ec	84 d2		 test	 dl, dl
  000ee	74 5a		 je	 SHORT $LN83@LoadInt_e@3
  000f0	32 d1		 xor	 dl, cl
  000f2	80 78 0e 00	 cmp	 BYTE PTR [eax+14], 0
  000f6	88 55 f5	 mov	 BYTE PTR __k$[ebp+13], dl
  000f9	0f 84 9a 00 00
	00		 je	 $LN1@LoadInt_e@3
  000ff	8a 50 0f	 mov	 dl, BYTE PTR [eax+15]
  00102	84 d2		 test	 dl, dl
  00104	74 3e		 je	 SHORT $LN81@LoadInt_e@3
  00106	80 f2 ea	 xor	 dl, -22			; ffffffeaH
  00109	88 55 f7	 mov	 BYTE PTR __k$[ebp+15], dl
  0010c	8a 50 10	 mov	 dl, BYTE PTR [eax+16]
  0010f	84 d2		 test	 dl, dl
  00111	74 2b		 je	 SHORT $LN80@LoadInt_e@3
  00113	80 f2 ed	 xor	 dl, -19			; ffffffedH
  00116	88 55 f8	 mov	 BYTE PTR __k$[ebp+16], dl
  00119	8a 50 11	 mov	 dl, BYTE PTR [eax+17]
  0011c	84 d2		 test	 dl, dl
  0011e	74 19		 je	 SHORT $LN79@LoadInt_e@3
  00120	8a 40 12	 mov	 al, BYTE PTR [eax+18]
  00123	32 d1		 xor	 dl, cl
  00125	88 55 f9	 mov	 BYTE PTR __k$[ebp+17], dl
  00128	84 c0		 test	 al, al
  0012a	74 07		 je	 SHORT $LN78@LoadInt_e@3
  0012c	34 eb		 xor	 al, -21			; ffffffebH
  0012e	88 45 fa	 mov	 BYTE PTR __k$[ebp+18], al
  00131	eb 66		 jmp	 SHORT $LN1@LoadInt_e@3
$LN78@LoadInt_e@3:
  00133	c6 45 fa eb	 mov	 BYTE PTR __k$[ebp+18], -21 ; ffffffebH
  00137	eb 60		 jmp	 SHORT $LN1@LoadInt_e@3
$LN79@LoadInt_e@3:
  00139	88 4d f9	 mov	 BYTE PTR __k$[ebp+17], cl
  0013c	eb 5b		 jmp	 SHORT $LN1@LoadInt_e@3
$LN80@LoadInt_e@3:
  0013e	c6 45 f8 ed	 mov	 BYTE PTR __k$[ebp+16], -19 ; ffffffedH
  00142	eb 55		 jmp	 SHORT $LN1@LoadInt_e@3
$LN81@LoadInt_e@3:
  00144	c6 45 f7 ea	 mov	 BYTE PTR __k$[ebp+15], -22 ; ffffffeaH
  00148	eb 4f		 jmp	 SHORT $LN1@LoadInt_e@3
$LN83@LoadInt_e@3:
  0014a	88 4d f5	 mov	 BYTE PTR __k$[ebp+13], cl
  0014d	eb 4a		 jmp	 SHORT $LN1@LoadInt_e@3
$LN84@LoadInt_e@3:
  0014f	c6 45 f4 ed	 mov	 BYTE PTR __k$[ebp+12], -19 ; ffffffedH
  00153	eb 44		 jmp	 SHORT $LN1@LoadInt_e@3
$LN85@LoadInt_e@3:
  00155	c6 45 f3 ea	 mov	 BYTE PTR __k$[ebp+11], -22 ; ffffffeaH
  00159	eb 3e		 jmp	 SHORT $LN1@LoadInt_e@3
$LN86@LoadInt_e@3:
  0015b	c6 45 f2 eb	 mov	 BYTE PTR __k$[ebp+10], -21 ; ffffffebH
  0015f	eb 38		 jmp	 SHORT $LN1@LoadInt_e@3
$LN87@LoadInt_e@3:
  00161	88 4d f1	 mov	 BYTE PTR __k$[ebp+9], cl
  00164	eb 33		 jmp	 SHORT $LN1@LoadInt_e@3
$LN88@LoadInt_e@3:
  00166	c6 45 f0 ed	 mov	 BYTE PTR __k$[ebp+8], -19 ; ffffffedH
  0016a	eb 2d		 jmp	 SHORT $LN1@LoadInt_e@3
$LN89@LoadInt_e@3:
  0016c	c6 45 ef ea	 mov	 BYTE PTR __k$[ebp+7], -22 ; ffffffeaH
  00170	eb 27		 jmp	 SHORT $LN1@LoadInt_e@3
$LN90@LoadInt_e@3:
  00172	c6 45 ee eb	 mov	 BYTE PTR __k$[ebp+6], -21 ; ffffffebH
  00176	eb 21		 jmp	 SHORT $LN1@LoadInt_e@3
$LN91@LoadInt_e@3:
  00178	88 4d ed	 mov	 BYTE PTR __k$[ebp+5], cl
  0017b	eb 1c		 jmp	 SHORT $LN1@LoadInt_e@3
$LN92@LoadInt_e@3:
  0017d	c6 45 ec ed	 mov	 BYTE PTR __k$[ebp+4], -19 ; ffffffedH
  00181	eb 16		 jmp	 SHORT $LN1@LoadInt_e@3
$LN93@LoadInt_e@3:
  00183	c6 45 eb ea	 mov	 BYTE PTR __k$[ebp+3], -22 ; ffffffeaH
  00187	eb 10		 jmp	 SHORT $LN1@LoadInt_e@3
$LN94@LoadInt_e@3:
  00189	c6 45 ea eb	 mov	 BYTE PTR __k$[ebp+2], -21 ; ffffffebH
  0018d	eb 0a		 jmp	 SHORT $LN1@LoadInt_e@3
$LN95@LoadInt_e@3:
  0018f	c6 45 e9 ec	 mov	 BYTE PTR __k$[ebp+1], -20 ; ffffffecH
  00193	eb 04		 jmp	 SHORT $LN1@LoadInt_e@3
$LN96@LoadInt_e@3:
  00195	c6 45 e8 ed	 mov	 BYTE PTR __k$[ebp], -19	; ffffffedH
$LN1@LoadInt_e@3:
  00199	6a 03		 push	 3
  0019b	8d 45 e8	 lea	 eax, DWORD PTR __k$[ebp]
  0019e	c6 45 f6 00	 mov	 BYTE PTR __k$[ebp+14], 0
  001a2	5a		 pop	 edx
$LL104@LoadInt_e@3:
  001a3	81 30 ed ec eb
	ea		 xor	 DWORD PTR [eax], -353637139 ; eaebecedH
  001a9	83 c0 04	 add	 eax, 4
  001ac	4a		 dec	 edx
  001ad	75 f4		 jne	 SHORT $LL104@LoadInt_e@3
  001af	6a 0c		 push	 12			; 0000000cH
  001b1	58		 pop	 eax
$LL101@LoadInt_e@3:
  001b2	8b c8		 mov	 ecx, eax
  001b4	81 e1 03 00 00
	80		 and	 ecx, -2147483645	; 80000003H
  001ba	79 05		 jns	 SHORT $LN111@LoadInt_e@3
  001bc	49		 dec	 ecx
  001bd	83 c9 fc	 or	 ecx, -4			; fffffffcH
  001c0	41		 inc	 ecx
$LN111@LoadInt_e@3:
  001c1	b2 ed		 mov	 dl, -19			; ffffffedH
  001c3	2a d1		 sub	 dl, cl
  001c5	30 54 05 e8	 xor	 BYTE PTR __k$[ebp+eax], dl
  001c9	40		 inc	 eax
  001ca	83 f8 0e	 cmp	 eax, 14			; 0000000eH
  001cd	7c e3		 jl	 SHORT $LL101@LoadInt_e@3

; 120  : 		return LoadInt(_k, i);

  001cf	ff 75 0c	 push	 DWORD PTR _i$[ebp]
  001d2	8d 45 e8	 lea	 eax, DWORD PTR __k$[ebp]
  001d5	50		 push	 eax
  001d6	8b ce		 mov	 ecx, esi
  001d8	ff 15 00 00 00
	00		 call	 DWORD PTR __imp_?LoadInt@ioINILoader@@QAEHPBDH@Z

; 121  : 	}

  001de	8b 4d fc	 mov	 ecx, DWORD PTR __$ArrayPad$[ebp]
  001e1	33 cd		 xor	 ecx, ebp
  001e3	5e		 pop	 esi
  001e4	e8 00 00 00 00	 call	 @__security_check_cookie@4
  001e9	c9		 leave
  001ea	c2 08 00	 ret	 8
??$LoadInt_e@$0P@@ioINILoader@@QAEHAAY0P@$$CBDH@Z ENDP	; ioINILoader::LoadInt_e<15>
_TEXT	ENDS
PUBLIC	__$ArrayPad$
PUBLIC	??$LoadFloat_e@$0O@@ioINILoader@@QAEMAAY0O@$$CBDM@Z ; ioINILoader::LoadFloat_e<14>
; Function compile flags: /Ogsp
;	COMDAT ??$LoadFloat_e@$0O@@ioINILoader@@QAEMAAY0O@$$CBDM@Z
_TEXT	SEGMENT
__k$ = -24						; size = 14
__$ArrayPad$ = -4					; size = 4
_k$ = 8							; size = 4
_f$ = 12						; size = 4
??$LoadFloat_e@$0O@@ioINILoader@@QAEMAAY0O@$$CBDM@Z PROC ; ioINILoader::LoadFloat_e<14>, COMDAT
; _this$ = ecx

; 135  : 	{

  00000	55		 push	 ebp
  00001	8b ec		 mov	 ebp, esp
  00003	83 ec 18	 sub	 esp, 24			; 00000018H
  00006	a1 00 00 00 00	 mov	 eax, DWORD PTR ___security_cookie
  0000b	33 c5		 xor	 eax, ebp
  0000d	89 45 fc	 mov	 DWORD PTR __$ArrayPad$[ebp], eax
  00010	8b 45 08	 mov	 eax, DWORD PTR _k$[ebp]

; 136  : 		_ENCSTR(k, _k);

  00013	8a 10		 mov	 dl, BYTE PTR [eax]
  00015	56		 push	 esi
  00016	8b f1		 mov	 esi, ecx
  00018	84 d2		 test	 dl, dl
  0001a	0f 84 64 01 00
	00		 je	 $LN96@LoadFloat_@3
  00020	80 f2 ed	 xor	 dl, -19			; ffffffedH
  00023	88 55 e8	 mov	 BYTE PTR __k$[ebp], dl
  00026	8a 50 01	 mov	 dl, BYTE PTR [eax+1]
  00029	84 d2		 test	 dl, dl
  0002b	0f 84 4d 01 00
	00		 je	 $LN95@LoadFloat_@3
  00031	80 f2 ec	 xor	 dl, -20			; ffffffecH
  00034	88 55 e9	 mov	 BYTE PTR __k$[ebp+1], dl
  00037	8a 50 02	 mov	 dl, BYTE PTR [eax+2]
  0003a	84 d2		 test	 dl, dl
  0003c	0f 84 36 01 00
	00		 je	 $LN94@LoadFloat_@3
  00042	b1 eb		 mov	 cl, -21			; ffffffebH
  00044	32 d1		 xor	 dl, cl
  00046	88 55 ea	 mov	 BYTE PTR __k$[ebp+2], dl
  00049	8a 50 03	 mov	 dl, BYTE PTR [eax+3]
  0004c	84 d2		 test	 dl, dl
  0004e	0f 84 1e 01 00
	00		 je	 $LN93@LoadFloat_@3
  00054	80 f2 ea	 xor	 dl, -22			; ffffffeaH
  00057	88 55 eb	 mov	 BYTE PTR __k$[ebp+3], dl
  0005a	8a 50 04	 mov	 dl, BYTE PTR [eax+4]
  0005d	84 d2		 test	 dl, dl
  0005f	0f 84 07 01 00
	00		 je	 $LN92@LoadFloat_@3
  00065	80 f2 ed	 xor	 dl, -19			; ffffffedH
  00068	88 55 ec	 mov	 BYTE PTR __k$[ebp+4], dl
  0006b	8a 50 05	 mov	 dl, BYTE PTR [eax+5]
  0006e	84 d2		 test	 dl, dl
  00070	0f 84 f0 00 00
	00		 je	 $LN91@LoadFloat_@3
  00076	80 f2 ec	 xor	 dl, -20			; ffffffecH
  00079	88 55 ed	 mov	 BYTE PTR __k$[ebp+5], dl
  0007c	8a 50 06	 mov	 dl, BYTE PTR [eax+6]
  0007f	84 d2		 test	 dl, dl
  00081	0f 84 da 00 00
	00		 je	 $LN90@LoadFloat_@3
  00087	32 d1		 xor	 dl, cl
  00089	88 55 ee	 mov	 BYTE PTR __k$[ebp+6], dl
  0008c	8a 50 07	 mov	 dl, BYTE PTR [eax+7]
  0008f	84 d2		 test	 dl, dl
  00091	0f 84 c4 00 00
	00		 je	 $LN89@LoadFloat_@3
  00097	80 f2 ea	 xor	 dl, -22			; ffffffeaH
  0009a	88 55 ef	 mov	 BYTE PTR __k$[ebp+7], dl
  0009d	8a 50 08	 mov	 dl, BYTE PTR [eax+8]
  000a0	84 d2		 test	 dl, dl
  000a2	0f 84 ad 00 00
	00		 je	 $LN88@LoadFloat_@3
  000a8	80 f2 ed	 xor	 dl, -19			; ffffffedH
  000ab	88 55 f0	 mov	 BYTE PTR __k$[ebp+8], dl
  000ae	8a 50 09	 mov	 dl, BYTE PTR [eax+9]
  000b1	84 d2		 test	 dl, dl
  000b3	0f 84 96 00 00
	00		 je	 $LN87@LoadFloat_@3
  000b9	80 f2 ec	 xor	 dl, -20			; ffffffecH
  000bc	88 55 f1	 mov	 BYTE PTR __k$[ebp+9], dl
  000bf	8a 50 0a	 mov	 dl, BYTE PTR [eax+10]
  000c2	84 d2		 test	 dl, dl
  000c4	0f 84 80 00 00
	00		 je	 $LN86@LoadFloat_@3
  000ca	32 d1		 xor	 dl, cl
  000cc	88 55 f2	 mov	 BYTE PTR __k$[ebp+10], dl
  000cf	8a 50 0b	 mov	 dl, BYTE PTR [eax+11]
  000d2	84 d2		 test	 dl, dl
  000d4	74 6e		 je	 SHORT $LN85@LoadFloat_@3
  000d6	80 f2 ea	 xor	 dl, -22			; ffffffeaH
  000d9	88 55 f3	 mov	 BYTE PTR __k$[ebp+11], dl
  000dc	8a 50 0c	 mov	 dl, BYTE PTR [eax+12]
  000df	84 d2		 test	 dl, dl
  000e1	74 5b		 je	 SHORT $LN84@LoadFloat_@3
  000e3	80 f2 ed	 xor	 dl, -19			; ffffffedH
  000e6	80 78 0d 00	 cmp	 BYTE PTR [eax+13], 0
  000ea	88 55 f4	 mov	 BYTE PTR __k$[ebp+12], dl
  000ed	0f 84 95 00 00
	00		 je	 $LN1@LoadFloat_@3
  000f3	8a 50 0e	 mov	 dl, BYTE PTR [eax+14]
  000f6	84 d2		 test	 dl, dl
  000f8	74 3f		 je	 SHORT $LN82@LoadFloat_@3
  000fa	32 d1		 xor	 dl, cl
  000fc	88 55 f6	 mov	 BYTE PTR __k$[ebp+14], dl
  000ff	8a 50 0f	 mov	 dl, BYTE PTR [eax+15]
  00102	84 d2		 test	 dl, dl
  00104	74 2d		 je	 SHORT $LN81@LoadFloat_@3
  00106	80 f2 ea	 xor	 dl, -22			; ffffffeaH
  00109	88 55 f7	 mov	 BYTE PTR __k$[ebp+15], dl
  0010c	8a 50 10	 mov	 dl, BYTE PTR [eax+16]
  0010f	84 d2		 test	 dl, dl
  00111	74 1a		 je	 SHORT $LN80@LoadFloat_@3
  00113	8a 40 11	 mov	 al, BYTE PTR [eax+17]
  00116	80 f2 ed	 xor	 dl, -19			; ffffffedH
  00119	88 55 f8	 mov	 BYTE PTR __k$[ebp+16], dl
  0011c	84 c0		 test	 al, al
  0011e	74 07		 je	 SHORT $LN79@LoadFloat_@3
  00120	34 ec		 xor	 al, -20			; ffffffecH
  00122	88 45 f9	 mov	 BYTE PTR __k$[ebp+17], al
  00125	eb 61		 jmp	 SHORT $LN1@LoadFloat_@3
$LN79@LoadFloat_@3:
  00127	c6 45 f9 ec	 mov	 BYTE PTR __k$[ebp+17], -20 ; ffffffecH
  0012b	eb 5b		 jmp	 SHORT $LN1@LoadFloat_@3
$LN80@LoadFloat_@3:
  0012d	c6 45 f8 ed	 mov	 BYTE PTR __k$[ebp+16], -19 ; ffffffedH
  00131	eb 55		 jmp	 SHORT $LN1@LoadFloat_@3
$LN81@LoadFloat_@3:
  00133	c6 45 f7 ea	 mov	 BYTE PTR __k$[ebp+15], -22 ; ffffffeaH
  00137	eb 4f		 jmp	 SHORT $LN1@LoadFloat_@3
$LN82@LoadFloat_@3:
  00139	88 4d f6	 mov	 BYTE PTR __k$[ebp+14], cl
  0013c	eb 4a		 jmp	 SHORT $LN1@LoadFloat_@3
$LN84@LoadFloat_@3:
  0013e	c6 45 f4 ed	 mov	 BYTE PTR __k$[ebp+12], -19 ; ffffffedH
  00142	eb 44		 jmp	 SHORT $LN1@LoadFloat_@3
$LN85@LoadFloat_@3:
  00144	c6 45 f3 ea	 mov	 BYTE PTR __k$[ebp+11], -22 ; ffffffeaH
  00148	eb 3e		 jmp	 SHORT $LN1@LoadFloat_@3
$LN86@LoadFloat_@3:
  0014a	88 4d f2	 mov	 BYTE PTR __k$[ebp+10], cl
  0014d	eb 39		 jmp	 SHORT $LN1@LoadFloat_@3
$LN87@LoadFloat_@3:
  0014f	c6 45 f1 ec	 mov	 BYTE PTR __k$[ebp+9], -20 ; ffffffecH
  00153	eb 33		 jmp	 SHORT $LN1@LoadFloat_@3
$LN88@LoadFloat_@3:
  00155	c6 45 f0 ed	 mov	 BYTE PTR __k$[ebp+8], -19 ; ffffffedH
  00159	eb 2d		 jmp	 SHORT $LN1@LoadFloat_@3
$LN89@LoadFloat_@3:
  0015b	c6 45 ef ea	 mov	 BYTE PTR __k$[ebp+7], -22 ; ffffffeaH
  0015f	eb 27		 jmp	 SHORT $LN1@LoadFloat_@3
$LN90@LoadFloat_@3:
  00161	88 4d ee	 mov	 BYTE PTR __k$[ebp+6], cl
  00164	eb 22		 jmp	 SHORT $LN1@LoadFloat_@3
$LN91@LoadFloat_@3:
  00166	c6 45 ed ec	 mov	 BYTE PTR __k$[ebp+5], -20 ; ffffffecH
  0016a	eb 1c		 jmp	 SHORT $LN1@LoadFloat_@3
$LN92@LoadFloat_@3:
  0016c	c6 45 ec ed	 mov	 BYTE PTR __k$[ebp+4], -19 ; ffffffedH
  00170	eb 16		 jmp	 SHORT $LN1@LoadFloat_@3
$LN93@LoadFloat_@3:
  00172	c6 45 eb ea	 mov	 BYTE PTR __k$[ebp+3], -22 ; ffffffeaH
  00176	eb 10		 jmp	 SHORT $LN1@LoadFloat_@3
$LN94@LoadFloat_@3:
  00178	c6 45 ea eb	 mov	 BYTE PTR __k$[ebp+2], -21 ; ffffffebH
  0017c	eb 0a		 jmp	 SHORT $LN1@LoadFloat_@3
$LN95@LoadFloat_@3:
  0017e	c6 45 e9 ec	 mov	 BYTE PTR __k$[ebp+1], -20 ; ffffffecH
  00182	eb 04		 jmp	 SHORT $LN1@LoadFloat_@3
$LN96@LoadFloat_@3:
  00184	c6 45 e8 ed	 mov	 BYTE PTR __k$[ebp], -19	; ffffffedH
$LN1@LoadFloat_@3:
  00188	6a 03		 push	 3
  0018a	8d 45 e8	 lea	 eax, DWORD PTR __k$[ebp]
  0018d	c6 45 f5 00	 mov	 BYTE PTR __k$[ebp+13], 0
  00191	5a		 pop	 edx
$LL104@LoadFloat_@3:
  00192	81 30 ed ec eb
	ea		 xor	 DWORD PTR [eax], -353637139 ; eaebecedH
  00198	83 c0 04	 add	 eax, 4
  0019b	4a		 dec	 edx
  0019c	75 f4		 jne	 SHORT $LL104@LoadFloat_@3

; 137  : 		return LoadFloat(_k, f);

  0019e	f3 0f 10 45 0c	 movss	 xmm0, DWORD PTR _f$[ebp]
  001a3	80 75 f4 ed	 xor	 BYTE PTR __k$[ebp+12], -19 ; ffffffedH
  001a7	51		 push	 ecx
  001a8	8d 45 e8	 lea	 eax, DWORD PTR __k$[ebp]
  001ab	f3 0f 11 04 24	 movss	 DWORD PTR [esp], xmm0
  001b0	50		 push	 eax
  001b1	8b ce		 mov	 ecx, esi
  001b3	ff 15 00 00 00
	00		 call	 DWORD PTR __imp_?LoadFloat@ioINILoader@@QAEMPBDM@Z

; 138  : 	}

  001b9	8b 4d fc	 mov	 ecx, DWORD PTR __$ArrayPad$[ebp]
  001bc	33 cd		 xor	 ecx, ebp
  001be	5e		 pop	 esi
  001bf	e8 00 00 00 00	 call	 @__security_check_cookie@4
  001c4	c9		 leave
  001c5	c2 08 00	 ret	 8
??$LoadFloat_e@$0O@@ioINILoader@@QAEMAAY0O@$$CBDM@Z ENDP ; ioINILoader::LoadFloat_e<14>
_TEXT	ENDS
PUBLIC	__$ArrayPad$
PUBLIC	??$LoadBool_e@$0BB@@ioINILoader@@QAE_NAAY0BB@$$CBD_N@Z ; ioINILoader::LoadBool_e<17>
EXTRN	__imp_?LoadBool@ioINILoader@@QAE_NPBD_N@Z:PROC
; Function compile flags: /Ogsp
;	COMDAT ??$LoadBool_e@$0BB@@ioINILoader@@QAE_NAAY0BB@$$CBD_N@Z
_TEXT	SEGMENT
__k$ = -28						; size = 17
__$ArrayPad$ = -4					; size = 4
_k$ = 8							; size = 4
_b$ = 12						; size = 1
??$LoadBool_e@$0BB@@ioINILoader@@QAE_NAAY0BB@$$CBD_N@Z PROC ; ioINILoader::LoadBool_e<17>, COMDAT
; _this$ = ecx

; 101  : 	{

  00000	55		 push	 ebp
  00001	8b ec		 mov	 ebp, esp
  00003	83 ec 1c	 sub	 esp, 28			; 0000001cH
  00006	a1 00 00 00 00	 mov	 eax, DWORD PTR ___security_cookie
  0000b	33 c5		 xor	 eax, ebp
  0000d	89 45 fc	 mov	 DWORD PTR __$ArrayPad$[ebp], eax
  00010	8b 45 08	 mov	 eax, DWORD PTR _k$[ebp]

; 102  : 		_ENCSTR(k, _k);

  00013	8a 10		 mov	 dl, BYTE PTR [eax]
  00015	56		 push	 esi
  00016	8b f1		 mov	 esi, ecx
  00018	84 d2		 test	 dl, dl
  0001a	0f 84 a7 01 00
	00		 je	 $LN96@LoadBool_e
  00020	80 f2 ed	 xor	 dl, -19			; ffffffedH
  00023	88 55 e4	 mov	 BYTE PTR __k$[ebp], dl
  00026	8a 50 01	 mov	 dl, BYTE PTR [eax+1]
  00029	84 d2		 test	 dl, dl
  0002b	0f 84 90 01 00
	00		 je	 $LN95@LoadBool_e
  00031	b1 ec		 mov	 cl, -20			; ffffffecH
  00033	32 d1		 xor	 dl, cl
  00035	88 55 e5	 mov	 BYTE PTR __k$[ebp+1], dl
  00038	8a 50 02	 mov	 dl, BYTE PTR [eax+2]
  0003b	84 d2		 test	 dl, dl
  0003d	0f 84 78 01 00
	00		 je	 $LN94@LoadBool_e
  00043	80 f2 eb	 xor	 dl, -21			; ffffffebH
  00046	88 55 e6	 mov	 BYTE PTR __k$[ebp+2], dl
  00049	8a 50 03	 mov	 dl, BYTE PTR [eax+3]
  0004c	84 d2		 test	 dl, dl
  0004e	0f 84 61 01 00
	00		 je	 $LN93@LoadBool_e
  00054	80 f2 ea	 xor	 dl, -22			; ffffffeaH
  00057	88 55 e7	 mov	 BYTE PTR __k$[ebp+3], dl
  0005a	8a 50 04	 mov	 dl, BYTE PTR [eax+4]
  0005d	84 d2		 test	 dl, dl
  0005f	0f 84 4a 01 00
	00		 je	 $LN92@LoadBool_e
  00065	80 f2 ed	 xor	 dl, -19			; ffffffedH
  00068	88 55 e8	 mov	 BYTE PTR __k$[ebp+4], dl
  0006b	8a 50 05	 mov	 dl, BYTE PTR [eax+5]
  0006e	84 d2		 test	 dl, dl
  00070	0f 84 34 01 00
	00		 je	 $LN91@LoadBool_e
  00076	32 d1		 xor	 dl, cl
  00078	88 55 e9	 mov	 BYTE PTR __k$[ebp+5], dl
  0007b	8a 50 06	 mov	 dl, BYTE PTR [eax+6]
  0007e	84 d2		 test	 dl, dl
  00080	0f 84 1e 01 00
	00		 je	 $LN90@LoadBool_e
  00086	80 f2 eb	 xor	 dl, -21			; ffffffebH
  00089	88 55 ea	 mov	 BYTE PTR __k$[ebp+6], dl
  0008c	8a 50 07	 mov	 dl, BYTE PTR [eax+7]
  0008f	84 d2		 test	 dl, dl
  00091	0f 84 07 01 00
	00		 je	 $LN89@LoadBool_e
  00097	80 f2 ea	 xor	 dl, -22			; ffffffeaH
  0009a	88 55 eb	 mov	 BYTE PTR __k$[ebp+7], dl
  0009d	8a 50 08	 mov	 dl, BYTE PTR [eax+8]
  000a0	84 d2		 test	 dl, dl
  000a2	0f 84 f0 00 00
	00		 je	 $LN88@LoadBool_e
  000a8	80 f2 ed	 xor	 dl, -19			; ffffffedH
  000ab	88 55 ec	 mov	 BYTE PTR __k$[ebp+8], dl
  000ae	8a 50 09	 mov	 dl, BYTE PTR [eax+9]
  000b1	84 d2		 test	 dl, dl
  000b3	0f 84 da 00 00
	00		 je	 $LN87@LoadBool_e
  000b9	32 d1		 xor	 dl, cl
  000bb	88 55 ed	 mov	 BYTE PTR __k$[ebp+9], dl
  000be	8a 50 0a	 mov	 dl, BYTE PTR [eax+10]
  000c1	84 d2		 test	 dl, dl
  000c3	0f 84 c4 00 00
	00		 je	 $LN86@LoadBool_e
  000c9	80 f2 eb	 xor	 dl, -21			; ffffffebH
  000cc	88 55 ee	 mov	 BYTE PTR __k$[ebp+10], dl
  000cf	8a 50 0b	 mov	 dl, BYTE PTR [eax+11]
  000d2	84 d2		 test	 dl, dl
  000d4	0f 84 ad 00 00
	00		 je	 $LN85@LoadBool_e
  000da	80 f2 ea	 xor	 dl, -22			; ffffffeaH
  000dd	88 55 ef	 mov	 BYTE PTR __k$[ebp+11], dl
  000e0	8a 50 0c	 mov	 dl, BYTE PTR [eax+12]
  000e3	84 d2		 test	 dl, dl
  000e5	0f 84 96 00 00
	00		 je	 $LN84@LoadBool_e
  000eb	80 f2 ed	 xor	 dl, -19			; ffffffedH
  000ee	88 55 f0	 mov	 BYTE PTR __k$[ebp+12], dl
  000f1	8a 50 0d	 mov	 dl, BYTE PTR [eax+13]
  000f4	84 d2		 test	 dl, dl
  000f6	0f 84 80 00 00
	00		 je	 $LN83@LoadBool_e
  000fc	32 d1		 xor	 dl, cl
  000fe	88 55 f1	 mov	 BYTE PTR __k$[ebp+13], dl
  00101	8a 50 0e	 mov	 dl, BYTE PTR [eax+14]
  00104	84 d2		 test	 dl, dl
  00106	74 6e		 je	 SHORT $LN82@LoadBool_e
  00108	80 f2 eb	 xor	 dl, -21			; ffffffebH
  0010b	88 55 f2	 mov	 BYTE PTR __k$[ebp+14], dl
  0010e	8a 50 0f	 mov	 dl, BYTE PTR [eax+15]
  00111	84 d2		 test	 dl, dl
  00113	74 5b		 je	 SHORT $LN81@LoadBool_e
  00115	80 f2 ea	 xor	 dl, -22			; ffffffeaH
  00118	80 78 10 00	 cmp	 BYTE PTR [eax+16], 0
  0011c	88 55 f3	 mov	 BYTE PTR __k$[ebp+15], dl
  0011f	0f 84 a6 00 00
	00		 je	 $LN1@LoadBool_e
  00125	8a 50 11	 mov	 dl, BYTE PTR [eax+17]
  00128	84 d2		 test	 dl, dl
  0012a	74 3f		 je	 SHORT $LN79@LoadBool_e
  0012c	32 d1		 xor	 dl, cl
  0012e	88 55 f5	 mov	 BYTE PTR __k$[ebp+17], dl
  00131	8a 50 12	 mov	 dl, BYTE PTR [eax+18]
  00134	84 d2		 test	 dl, dl
  00136	74 2d		 je	 SHORT $LN78@LoadBool_e
  00138	80 f2 eb	 xor	 dl, -21			; ffffffebH
  0013b	88 55 f6	 mov	 BYTE PTR __k$[ebp+18], dl
  0013e	8a 50 13	 mov	 dl, BYTE PTR [eax+19]
  00141	84 d2		 test	 dl, dl
  00143	74 1a		 je	 SHORT $LN77@LoadBool_e
  00145	8a 40 14	 mov	 al, BYTE PTR [eax+20]
  00148	80 f2 ea	 xor	 dl, -22			; ffffffeaH
  0014b	88 55 f7	 mov	 BYTE PTR __k$[ebp+19], dl
  0014e	84 c0		 test	 al, al
  00150	74 07		 je	 SHORT $LN76@LoadBool_e
  00152	34 ed		 xor	 al, -19			; ffffffedH
  00154	88 45 f8	 mov	 BYTE PTR __k$[ebp+20], al
  00157	eb 72		 jmp	 SHORT $LN1@LoadBool_e
$LN76@LoadBool_e:
  00159	c6 45 f8 ed	 mov	 BYTE PTR __k$[ebp+20], -19 ; ffffffedH
  0015d	eb 6c		 jmp	 SHORT $LN1@LoadBool_e
$LN77@LoadBool_e:
  0015f	c6 45 f7 ea	 mov	 BYTE PTR __k$[ebp+19], -22 ; ffffffeaH
  00163	eb 66		 jmp	 SHORT $LN1@LoadBool_e
$LN78@LoadBool_e:
  00165	c6 45 f6 eb	 mov	 BYTE PTR __k$[ebp+18], -21 ; ffffffebH
  00169	eb 60		 jmp	 SHORT $LN1@LoadBool_e
$LN79@LoadBool_e:
  0016b	88 4d f5	 mov	 BYTE PTR __k$[ebp+17], cl
  0016e	eb 5b		 jmp	 SHORT $LN1@LoadBool_e
$LN81@LoadBool_e:
  00170	c6 45 f3 ea	 mov	 BYTE PTR __k$[ebp+15], -22 ; ffffffeaH
  00174	eb 55		 jmp	 SHORT $LN1@LoadBool_e
$LN82@LoadBool_e:
  00176	c6 45 f2 eb	 mov	 BYTE PTR __k$[ebp+14], -21 ; ffffffebH
  0017a	eb 4f		 jmp	 SHORT $LN1@LoadBool_e
$LN83@LoadBool_e:
  0017c	88 4d f1	 mov	 BYTE PTR __k$[ebp+13], cl
  0017f	eb 4a		 jmp	 SHORT $LN1@LoadBool_e
$LN84@LoadBool_e:
  00181	c6 45 f0 ed	 mov	 BYTE PTR __k$[ebp+12], -19 ; ffffffedH
  00185	eb 44		 jmp	 SHORT $LN1@LoadBool_e
$LN85@LoadBool_e:
  00187	c6 45 ef ea	 mov	 BYTE PTR __k$[ebp+11], -22 ; ffffffeaH
  0018b	eb 3e		 jmp	 SHORT $LN1@LoadBool_e
$LN86@LoadBool_e:
  0018d	c6 45 ee eb	 mov	 BYTE PTR __k$[ebp+10], -21 ; ffffffebH
  00191	eb 38		 jmp	 SHORT $LN1@LoadBool_e
$LN87@LoadBool_e:
  00193	88 4d ed	 mov	 BYTE PTR __k$[ebp+9], cl
  00196	eb 33		 jmp	 SHORT $LN1@LoadBool_e
$LN88@LoadBool_e:
  00198	c6 45 ec ed	 mov	 BYTE PTR __k$[ebp+8], -19 ; ffffffedH
  0019c	eb 2d		 jmp	 SHORT $LN1@LoadBool_e
$LN89@LoadBool_e:
  0019e	c6 45 eb ea	 mov	 BYTE PTR __k$[ebp+7], -22 ; ffffffeaH
  001a2	eb 27		 jmp	 SHORT $LN1@LoadBool_e
$LN90@LoadBool_e:
  001a4	c6 45 ea eb	 mov	 BYTE PTR __k$[ebp+6], -21 ; ffffffebH
  001a8	eb 21		 jmp	 SHORT $LN1@LoadBool_e
$LN91@LoadBool_e:
  001aa	88 4d e9	 mov	 BYTE PTR __k$[ebp+5], cl
  001ad	eb 1c		 jmp	 SHORT $LN1@LoadBool_e
$LN92@LoadBool_e:
  001af	c6 45 e8 ed	 mov	 BYTE PTR __k$[ebp+4], -19 ; ffffffedH
  001b3	eb 16		 jmp	 SHORT $LN1@LoadBool_e
$LN93@LoadBool_e:
  001b5	c6 45 e7 ea	 mov	 BYTE PTR __k$[ebp+3], -22 ; ffffffeaH
  001b9	eb 10		 jmp	 SHORT $LN1@LoadBool_e
$LN94@LoadBool_e:
  001bb	c6 45 e6 eb	 mov	 BYTE PTR __k$[ebp+2], -21 ; ffffffebH
  001bf	eb 0a		 jmp	 SHORT $LN1@LoadBool_e
$LN95@LoadBool_e:
  001c1	c6 45 e5 ec	 mov	 BYTE PTR __k$[ebp+1], -20 ; ffffffecH
  001c5	eb 04		 jmp	 SHORT $LN1@LoadBool_e
$LN96@LoadBool_e:
  001c7	c6 45 e4 ed	 mov	 BYTE PTR __k$[ebp], -19	; ffffffedH
$LN1@LoadBool_e:
  001cb	6a 04		 push	 4
  001cd	8d 45 e4	 lea	 eax, DWORD PTR __k$[ebp]
  001d0	c6 45 f4 00	 mov	 BYTE PTR __k$[ebp+16], 0
  001d4	5a		 pop	 edx
$LL104@LoadBool_e:
  001d5	81 30 ed ec eb
	ea		 xor	 DWORD PTR [eax], -353637139 ; eaebecedH
  001db	83 c0 04	 add	 eax, 4
  001de	4a		 dec	 edx
  001df	75 f4		 jne	 SHORT $LL104@LoadBool_e

; 103  : 		return LoadBool(_k, b);

  001e1	ff 75 0c	 push	 DWORD PTR _b$[ebp]
  001e4	8d 45 e4	 lea	 eax, DWORD PTR __k$[ebp]
  001e7	50		 push	 eax
  001e8	8b ce		 mov	 ecx, esi
  001ea	ff 15 00 00 00
	00		 call	 DWORD PTR __imp_?LoadBool@ioINILoader@@QAE_NPBD_N@Z

; 104  : 	}

  001f0	8b 4d fc	 mov	 ecx, DWORD PTR __$ArrayPad$[ebp]
  001f3	33 cd		 xor	 ecx, ebp
  001f5	5e		 pop	 esi
  001f6	e8 00 00 00 00	 call	 @__security_check_cookie@4
  001fb	c9		 leave
  001fc	c2 08 00	 ret	 8
??$LoadBool_e@$0BB@@ioINILoader@@QAE_NAAY0BB@$$CBD_N@Z ENDP ; ioINILoader::LoadBool_e<17>
_TEXT	ENDS
PUBLIC	__$ArrayPad$
PUBLIC	??$LoadBool_e@$0M@@ioINILoader@@QAE_NAAY0M@$$CBD_N@Z ; ioINILoader::LoadBool_e<12>
; Function compile flags: /Ogsp
;	COMDAT ??$LoadBool_e@$0M@@ioINILoader@@QAE_NAAY0M@$$CBD_N@Z
_TEXT	SEGMENT
__k$ = -20						; size = 12
__$ArrayPad$ = -4					; size = 4
_k$ = 8							; size = 4
_b$ = 12						; size = 1
??$LoadBool_e@$0M@@ioINILoader@@QAE_NAAY0M@$$CBD_N@Z PROC ; ioINILoader::LoadBool_e<12>, COMDAT
; _this$ = ecx

; 101  : 	{

  00000	55		 push	 ebp
  00001	8b ec		 mov	 ebp, esp
  00003	83 ec 14	 sub	 esp, 20			; 00000014H
  00006	a1 00 00 00 00	 mov	 eax, DWORD PTR ___security_cookie
  0000b	33 c5		 xor	 eax, ebp
  0000d	89 45 fc	 mov	 DWORD PTR __$ArrayPad$[ebp], eax
  00010	8b 45 08	 mov	 eax, DWORD PTR _k$[ebp]

; 102  : 		_ENCSTR(k, _k);

  00013	8a 10		 mov	 dl, BYTE PTR [eax]
  00015	56		 push	 esi
  00016	8b f1		 mov	 esi, ecx
  00018	84 d2		 test	 dl, dl
  0001a	0f 84 32 01 00
	00		 je	 $LN96@LoadBool_e@2
  00020	80 f2 ed	 xor	 dl, -19			; ffffffedH
  00023	88 55 ec	 mov	 BYTE PTR __k$[ebp], dl
  00026	8a 50 01	 mov	 dl, BYTE PTR [eax+1]
  00029	84 d2		 test	 dl, dl
  0002b	0f 84 1b 01 00
	00		 je	 $LN95@LoadBool_e@2
  00031	80 f2 ec	 xor	 dl, -20			; ffffffecH
  00034	88 55 ed	 mov	 BYTE PTR __k$[ebp+1], dl
  00037	8a 50 02	 mov	 dl, BYTE PTR [eax+2]
  0003a	84 d2		 test	 dl, dl
  0003c	0f 84 04 01 00
	00		 je	 $LN94@LoadBool_e@2
  00042	b1 eb		 mov	 cl, -21			; ffffffebH
  00044	32 d1		 xor	 dl, cl
  00046	88 55 ee	 mov	 BYTE PTR __k$[ebp+2], dl
  00049	8a 50 03	 mov	 dl, BYTE PTR [eax+3]
  0004c	84 d2		 test	 dl, dl
  0004e	0f 84 ec 00 00
	00		 je	 $LN93@LoadBool_e@2
  00054	80 f2 ea	 xor	 dl, -22			; ffffffeaH
  00057	88 55 ef	 mov	 BYTE PTR __k$[ebp+3], dl
  0005a	8a 50 04	 mov	 dl, BYTE PTR [eax+4]
  0005d	84 d2		 test	 dl, dl
  0005f	0f 84 d5 00 00
	00		 je	 $LN92@LoadBool_e@2
  00065	80 f2 ed	 xor	 dl, -19			; ffffffedH
  00068	88 55 f0	 mov	 BYTE PTR __k$[ebp+4], dl
  0006b	8a 50 05	 mov	 dl, BYTE PTR [eax+5]
  0006e	84 d2		 test	 dl, dl
  00070	0f 84 be 00 00
	00		 je	 $LN91@LoadBool_e@2
  00076	80 f2 ec	 xor	 dl, -20			; ffffffecH
  00079	88 55 f1	 mov	 BYTE PTR __k$[ebp+5], dl
  0007c	8a 50 06	 mov	 dl, BYTE PTR [eax+6]
  0007f	84 d2		 test	 dl, dl
  00081	0f 84 a8 00 00
	00		 je	 $LN90@LoadBool_e@2
  00087	32 d1		 xor	 dl, cl
  00089	88 55 f2	 mov	 BYTE PTR __k$[ebp+6], dl
  0008c	8a 50 07	 mov	 dl, BYTE PTR [eax+7]
  0008f	84 d2		 test	 dl, dl
  00091	0f 84 92 00 00
	00		 je	 $LN89@LoadBool_e@2
  00097	80 f2 ea	 xor	 dl, -22			; ffffffeaH
  0009a	88 55 f3	 mov	 BYTE PTR __k$[ebp+7], dl
  0009d	8a 50 08	 mov	 dl, BYTE PTR [eax+8]
  000a0	84 d2		 test	 dl, dl
  000a2	74 7f		 je	 SHORT $LN88@LoadBool_e@2
  000a4	80 f2 ed	 xor	 dl, -19			; ffffffedH
  000a7	88 55 f4	 mov	 BYTE PTR __k$[ebp+8], dl
  000aa	8a 50 09	 mov	 dl, BYTE PTR [eax+9]
  000ad	84 d2		 test	 dl, dl
  000af	74 6c		 je	 SHORT $LN87@LoadBool_e@2
  000b1	80 f2 ec	 xor	 dl, -20			; ffffffecH
  000b4	88 55 f5	 mov	 BYTE PTR __k$[ebp+9], dl
  000b7	8a 50 0a	 mov	 dl, BYTE PTR [eax+10]
  000ba	84 d2		 test	 dl, dl
  000bc	74 5a		 je	 SHORT $LN86@LoadBool_e@2
  000be	32 d1		 xor	 dl, cl
  000c0	80 78 0b 00	 cmp	 BYTE PTR [eax+11], 0
  000c4	88 55 f6	 mov	 BYTE PTR __k$[ebp+10], dl
  000c7	0f 84 89 00 00
	00		 je	 $LN1@LoadBool_e@2
  000cd	8a 50 0c	 mov	 dl, BYTE PTR [eax+12]
  000d0	84 d2		 test	 dl, dl
  000d2	74 3e		 je	 SHORT $LN84@LoadBool_e@2
  000d4	80 f2 ed	 xor	 dl, -19			; ffffffedH
  000d7	88 55 f8	 mov	 BYTE PTR __k$[ebp+12], dl
  000da	8a 50 0d	 mov	 dl, BYTE PTR [eax+13]
  000dd	84 d2		 test	 dl, dl
  000df	74 2b		 je	 SHORT $LN83@LoadBool_e@2
  000e1	80 f2 ec	 xor	 dl, -20			; ffffffecH
  000e4	88 55 f9	 mov	 BYTE PTR __k$[ebp+13], dl
  000e7	8a 50 0e	 mov	 dl, BYTE PTR [eax+14]
  000ea	84 d2		 test	 dl, dl
  000ec	74 19		 je	 SHORT $LN82@LoadBool_e@2
  000ee	8a 40 0f	 mov	 al, BYTE PTR [eax+15]
  000f1	32 d1		 xor	 dl, cl
  000f3	88 55 fa	 mov	 BYTE PTR __k$[ebp+14], dl
  000f6	84 c0		 test	 al, al
  000f8	74 07		 je	 SHORT $LN81@LoadBool_e@2
  000fa	34 ea		 xor	 al, -22			; ffffffeaH
  000fc	88 45 fb	 mov	 BYTE PTR __k$[ebp+15], al
  000ff	eb 55		 jmp	 SHORT $LN1@LoadBool_e@2
$LN81@LoadBool_e@2:
  00101	c6 45 fb ea	 mov	 BYTE PTR __k$[ebp+15], -22 ; ffffffeaH
  00105	eb 4f		 jmp	 SHORT $LN1@LoadBool_e@2
$LN82@LoadBool_e@2:
  00107	88 4d fa	 mov	 BYTE PTR __k$[ebp+14], cl
  0010a	eb 4a		 jmp	 SHORT $LN1@LoadBool_e@2
$LN83@LoadBool_e@2:
  0010c	c6 45 f9 ec	 mov	 BYTE PTR __k$[ebp+13], -20 ; ffffffecH
  00110	eb 44		 jmp	 SHORT $LN1@LoadBool_e@2
$LN84@LoadBool_e@2:
  00112	c6 45 f8 ed	 mov	 BYTE PTR __k$[ebp+12], -19 ; ffffffedH
  00116	eb 3e		 jmp	 SHORT $LN1@LoadBool_e@2
$LN86@LoadBool_e@2:
  00118	88 4d f6	 mov	 BYTE PTR __k$[ebp+10], cl
  0011b	eb 39		 jmp	 SHORT $LN1@LoadBool_e@2
$LN87@LoadBool_e@2:
  0011d	c6 45 f5 ec	 mov	 BYTE PTR __k$[ebp+9], -20 ; ffffffecH
  00121	eb 33		 jmp	 SHORT $LN1@LoadBool_e@2
$LN88@LoadBool_e@2:
  00123	c6 45 f4 ed	 mov	 BYTE PTR __k$[ebp+8], -19 ; ffffffedH
  00127	eb 2d		 jmp	 SHORT $LN1@LoadBool_e@2
$LN89@LoadBool_e@2:
  00129	c6 45 f3 ea	 mov	 BYTE PTR __k$[ebp+7], -22 ; ffffffeaH
  0012d	eb 27		 jmp	 SHORT $LN1@LoadBool_e@2
$LN90@LoadBool_e@2:
  0012f	88 4d f2	 mov	 BYTE PTR __k$[ebp+6], cl
  00132	eb 22		 jmp	 SHORT $LN1@LoadBool_e@2
$LN91@LoadBool_e@2:
  00134	c6 45 f1 ec	 mov	 BYTE PTR __k$[ebp+5], -20 ; ffffffecH
  00138	eb 1c		 jmp	 SHORT $LN1@LoadBool_e@2
$LN92@LoadBool_e@2:
  0013a	c6 45 f0 ed	 mov	 BYTE PTR __k$[ebp+4], -19 ; ffffffedH
  0013e	eb 16		 jmp	 SHORT $LN1@LoadBool_e@2
$LN93@LoadBool_e@2:
  00140	c6 45 ef ea	 mov	 BYTE PTR __k$[ebp+3], -22 ; ffffffeaH
  00144	eb 10		 jmp	 SHORT $LN1@LoadBool_e@2
$LN94@LoadBool_e@2:
  00146	c6 45 ee eb	 mov	 BYTE PTR __k$[ebp+2], -21 ; ffffffebH
  0014a	eb 0a		 jmp	 SHORT $LN1@LoadBool_e@2
$LN95@LoadBool_e@2:
  0014c	c6 45 ed ec	 mov	 BYTE PTR __k$[ebp+1], -20 ; ffffffecH
  00150	eb 04		 jmp	 SHORT $LN1@LoadBool_e@2
$LN96@LoadBool_e@2:
  00152	c6 45 ec ed	 mov	 BYTE PTR __k$[ebp], -19	; ffffffedH
$LN1@LoadBool_e@2:
  00156	6a 02		 push	 2
  00158	8d 45 ec	 lea	 eax, DWORD PTR __k$[ebp]
  0015b	c6 45 f7 00	 mov	 BYTE PTR __k$[ebp+11], 0
  0015f	5a		 pop	 edx
$LL104@LoadBool_e@2:
  00160	81 30 ed ec eb
	ea		 xor	 DWORD PTR [eax], -353637139 ; eaebecedH
  00166	83 c0 04	 add	 eax, 4
  00169	4a		 dec	 edx
  0016a	75 f4		 jne	 SHORT $LL104@LoadBool_e@2
  0016c	6a 08		 push	 8
  0016e	58		 pop	 eax
$LL101@LoadBool_e@2:
  0016f	8b c8		 mov	 ecx, eax
  00171	81 e1 03 00 00
	80		 and	 ecx, -2147483645	; 80000003H
  00177	79 05		 jns	 SHORT $LN111@LoadBool_e@2
  00179	49		 dec	 ecx
  0017a	83 c9 fc	 or	 ecx, -4			; fffffffcH
  0017d	41		 inc	 ecx
$LN111@LoadBool_e@2:
  0017e	b2 ed		 mov	 dl, -19			; ffffffedH
  00180	2a d1		 sub	 dl, cl
  00182	30 54 05 ec	 xor	 BYTE PTR __k$[ebp+eax], dl
  00186	40		 inc	 eax
  00187	83 f8 0b	 cmp	 eax, 11			; 0000000bH
  0018a	7c e3		 jl	 SHORT $LL101@LoadBool_e@2

; 103  : 		return LoadBool(_k, b);

  0018c	ff 75 0c	 push	 DWORD PTR _b$[ebp]
  0018f	8d 45 ec	 lea	 eax, DWORD PTR __k$[ebp]
  00192	50		 push	 eax
  00193	8b ce		 mov	 ecx, esi
  00195	ff 15 00 00 00
	00		 call	 DWORD PTR __imp_?LoadBool@ioINILoader@@QAE_NPBD_N@Z

; 104  : 	}

  0019b	8b 4d fc	 mov	 ecx, DWORD PTR __$ArrayPad$[ebp]
  0019e	33 cd		 xor	 ecx, ebp
  001a0	5e		 pop	 esi
  001a1	e8 00 00 00 00	 call	 @__security_check_cookie@4
  001a6	c9		 leave
  001a7	c2 08 00	 ret	 8
??$LoadBool_e@$0M@@ioINILoader@@QAE_NAAY0M@$$CBD_N@Z ENDP ; ioINILoader::LoadBool_e<12>
_TEXT	ENDS
PUBLIC	__real@42480000
PUBLIC	__real@43480000
PUBLIC	__$ArrayPad$
EXTRN	?LoadProperty@ioCameraEvent@@UAEXAAVioINILoader@@@Z:PROC ; ioCameraEvent::LoadProperty
;	COMDAT __real@42480000
; File d:\lost saga for developer\youtube\tutorial\source\src\lsclient\stringprotect.h
CONST	SEGMENT
__real@42480000 DD 042480000r			; 50
CONST	ENDS
;	COMDAT __real@43480000
CONST	SEGMENT
__real@43480000 DD 043480000r			; 200
; Function compile flags: /Ogsp
; File d:\lost saga for developer\youtube\tutorial\source\src\lsclient\iosimpleevent.cpp
CONST	ENDS
;	COMDAT ?LoadProperty@ioSimpleEvent@@UAEXAAVioINILoader@@@Z
_TEXT	SEGMENT
__k$508415 = -28					; size = 17
__k$508290 = -28					; size = 14
__k$508178 = -28					; size = 14
__k$508053 = -28					; size = 15
__k$508014 = -28					; size = 14
__k$507540 = -28					; size = 16
__k$507428 = -28					; size = 16
__k$507303 = -28					; size = 16
__k$507178 = -28					; size = 16
__k$508540 = -24					; size = 12
__k$507790 = -24					; size = 13
__k$507665 = -24					; size = 11
__$ArrayPad$ = -4					; size = 4
_rkLoader$ = 8						; size = 4
?LoadProperty@ioSimpleEvent@@UAEXAAVioINILoader@@@Z PROC ; ioSimpleEvent::LoadProperty, COMDAT
; _this$ = ecx

; 72   : {

  00000	55		 push	 ebp
  00001	8b ec		 mov	 ebp, esp
  00003	83 ec 1c	 sub	 esp, 28			; 0000001cH
  00006	a1 00 00 00 00	 mov	 eax, DWORD PTR ___security_cookie
  0000b	33 c5		 xor	 eax, ebp
  0000d	89 45 fc	 mov	 DWORD PTR __$ArrayPad$[ebp], eax
  00010	53		 push	 ebx
  00011	8b 5d 08	 mov	 ebx, DWORD PTR _rkLoader$[ebp]
  00014	56		 push	 esi
  00015	57		 push	 edi

; 73   : 	ioCameraEvent::LoadProperty( rkLoader );

  00016	53		 push	 ebx
  00017	8b f1		 mov	 esi, ecx
  00019	e8 00 00 00 00	 call	 ?LoadProperty@ioCameraEvent@@UAEXAAVioINILoader@@@Z ; ioCameraEvent::LoadProperty

; 74   : 	
; 75   : 	m_fCameraDistance = rkLoader.LoadFloat_e( "camera_distance", 200.0f );

  0001e	6a 03		 push	 3
  00020	c7 45 e4 8e 8d
	86 8f		 mov	 DWORD PTR __k$507178[ebp], -1887007346 ; 8f868d8eH
  00027	c7 45 e8 9f 8d
	b4 8e		 mov	 DWORD PTR __k$507178[ebp+4], -1900769889 ; 8eb48d9fH
  0002e	c7 45 ec 84 9f
	9f 8b		 mov	 DWORD PTR __k$507178[ebp+8], -1952473212 ; 8b9f9f84H
  00035	8d 45 e4	 lea	 eax, DWORD PTR __k$507178[ebp]
  00038	c7 45 f0 83 8f
	8e 00		 mov	 DWORD PTR __k$507178[ebp+12], 9342851 ; 008e8f83H
  0003f	59		 pop	 ecx
$LL106@LoadProper:
  00040	81 30 ed ec eb
	ea		 xor	 DWORD PTR [eax], -353637139 ; eaebecedH
  00046	83 c0 04	 add	 eax, 4
  00049	49		 dec	 ecx
  0004a	75 f4		 jne	 SHORT $LL106@LoadProper
  0004c	6a 0c		 push	 12			; 0000000cH
  0004e	5f		 pop	 edi
$LL103@LoadProper:
  0004f	8b c7		 mov	 eax, edi
  00051	25 03 00 00 80	 and	 eax, -2147483645	; 80000003H
  00056	79 05		 jns	 SHORT $LN1323@LoadProper
  00058	48		 dec	 eax
  00059	83 c8 fc	 or	 eax, -4			; fffffffcH
  0005c	40		 inc	 eax
$LN1323@LoadProper:
  0005d	b1 ed		 mov	 cl, -19			; ffffffedH
  0005f	2a c8		 sub	 cl, al
  00061	30 4c 3d e4	 xor	 BYTE PTR __k$507178[ebp+edi], cl
  00065	47		 inc	 edi
  00066	83 ff 0f	 cmp	 edi, 15			; 0000000fH
  00069	7c e4		 jl	 SHORT $LL103@LoadProper
  0006b	f3 0f 10 05 00
	00 00 00	 movss	 xmm0, DWORD PTR __real@43480000
  00073	51		 push	 ecx
  00074	8d 45 e4	 lea	 eax, DWORD PTR __k$507178[ebp]
  00077	f3 0f 11 04 24	 movss	 DWORD PTR [esp], xmm0
  0007c	50		 push	 eax
  0007d	8b cb		 mov	 ecx, ebx
  0007f	ff 15 00 00 00
	00		 call	 DWORD PTR __imp_?LoadFloat@ioINILoader@@QAEMPBDM@Z
  00085	d9 5e 2c	 fstp	 DWORD PTR [esi+44]
  00088	6a 03		 push	 3

; 76   : 	m_fRotAngleX = rkLoader.LoadFloat_e( "camera_rotate_x", 0.0f );

  0008a	c7 45 e4 8e 8d
	86 8f		 mov	 DWORD PTR __k$507303[ebp], -1887007346 ; 8f868d8eH
  00091	c7 45 e8 9f 8d
	b4 98		 mov	 DWORD PTR __k$507303[ebp+4], -1732997729 ; 98b48d9fH
  00098	c7 45 ec 82 98
	8a 9e		 mov	 DWORD PTR __k$507303[ebp+8], -1635084158 ; 9e8a9882H
  0009f	8d 45 e4	 lea	 eax, DWORD PTR __k$507303[ebp]
  000a2	c7 45 f0 88 b3
	93 00		 mov	 DWORD PTR __k$507303[ebp+12], 9679752 ; 0093b388H
  000a9	59		 pop	 ecx
$LL212@LoadProper:
  000aa	81 30 ed ec eb
	ea		 xor	 DWORD PTR [eax], -353637139 ; eaebecedH
  000b0	83 c0 04	 add	 eax, 4
  000b3	49		 dec	 ecx
  000b4	75 f4		 jne	 SHORT $LL212@LoadProper
  000b6	6a 0c		 push	 12			; 0000000cH
  000b8	5f		 pop	 edi
$LL209@LoadProper:
  000b9	8b c7		 mov	 eax, edi
  000bb	25 03 00 00 80	 and	 eax, -2147483645	; 80000003H
  000c0	79 05		 jns	 SHORT $LN1324@LoadProper
  000c2	48		 dec	 eax
  000c3	83 c8 fc	 or	 eax, -4			; fffffffcH
  000c6	40		 inc	 eax
$LN1324@LoadProper:
  000c7	b1 ed		 mov	 cl, -19			; ffffffedH
  000c9	2a c8		 sub	 cl, al
  000cb	30 4c 3d e4	 xor	 BYTE PTR __k$507303[ebp+edi], cl
  000cf	47		 inc	 edi
  000d0	83 ff 0f	 cmp	 edi, 15			; 0000000fH
  000d3	7c e4		 jl	 SHORT $LL209@LoadProper
  000d5	0f 57 c0	 xorps	 xmm0, xmm0
  000d8	51		 push	 ecx
  000d9	8d 45 e4	 lea	 eax, DWORD PTR __k$507303[ebp]
  000dc	f3 0f 11 04 24	 movss	 DWORD PTR [esp], xmm0
  000e1	50		 push	 eax
  000e2	8b cb		 mov	 ecx, ebx
  000e4	ff 15 00 00 00
	00		 call	 DWORD PTR __imp_?LoadFloat@ioINILoader@@QAEMPBDM@Z
  000ea	d9 5e 78	 fstp	 DWORD PTR [esi+120]
  000ed	6a 03		 push	 3

; 77   : 	m_fRotAngleY = rkLoader.LoadFloat_e( "camera_rotate_y", 0.0f );

  000ef	c7 45 e4 8e 8d
	86 8f		 mov	 DWORD PTR __k$507428[ebp], -1887007346 ; 8f868d8eH
  000f6	c7 45 e8 9f 8d
	b4 98		 mov	 DWORD PTR __k$507428[ebp+4], -1732997729 ; 98b48d9fH
  000fd	c7 45 ec 82 98
	8a 9e		 mov	 DWORD PTR __k$507428[ebp+8], -1635084158 ; 9e8a9882H
  00104	8d 45 e4	 lea	 eax, DWORD PTR __k$507428[ebp]
  00107	c7 45 f0 88 b3
	92 00		 mov	 DWORD PTR __k$507428[ebp+12], 9614216 ; 0092b388H
  0010e	59		 pop	 ecx
$LL318@LoadProper:
  0010f	81 30 ed ec eb
	ea		 xor	 DWORD PTR [eax], -353637139 ; eaebecedH
  00115	83 c0 04	 add	 eax, 4
  00118	49		 dec	 ecx
  00119	75 f4		 jne	 SHORT $LL318@LoadProper
  0011b	6a 0c		 push	 12			; 0000000cH
  0011d	5f		 pop	 edi
$LL315@LoadProper:
  0011e	8b c7		 mov	 eax, edi
  00120	25 03 00 00 80	 and	 eax, -2147483645	; 80000003H
  00125	79 05		 jns	 SHORT $LN1325@LoadProper
  00127	48		 dec	 eax
  00128	83 c8 fc	 or	 eax, -4			; fffffffcH
  0012b	40		 inc	 eax
$LN1325@LoadProper:
  0012c	b1 ed		 mov	 cl, -19			; ffffffedH
  0012e	2a c8		 sub	 cl, al
  00130	30 4c 3d e4	 xor	 BYTE PTR __k$507428[ebp+edi], cl
  00134	47		 inc	 edi
  00135	83 ff 0f	 cmp	 edi, 15			; 0000000fH
  00138	7c e4		 jl	 SHORT $LL315@LoadProper
  0013a	0f 57 c0	 xorps	 xmm0, xmm0
  0013d	51		 push	 ecx
  0013e	8d 45 e4	 lea	 eax, DWORD PTR __k$507428[ebp]
  00141	f3 0f 11 04 24	 movss	 DWORD PTR [esp], xmm0
  00146	50		 push	 eax
  00147	8b cb		 mov	 ecx, ebx
  00149	ff 15 00 00 00
	00		 call	 DWORD PTR __imp_?LoadFloat@ioINILoader@@QAEMPBDM@Z
  0014f	d9 9e 80 00 00
	00		 fstp	 DWORD PTR [esi+128]
  00155	6a 03		 push	 3

; 78   : 	m_fRotAngleZ = rkLoader.LoadFloat_e( "camera_rotate_z", 0.0f );

  00157	c7 45 e4 8e 8d
	86 8f		 mov	 DWORD PTR __k$507540[ebp], -1887007346 ; 8f868d8eH
  0015e	c7 45 e8 9f 8d
	b4 98		 mov	 DWORD PTR __k$507540[ebp+4], -1732997729 ; 98b48d9fH
  00165	c7 45 ec 82 98
	8a 9e		 mov	 DWORD PTR __k$507540[ebp+8], -1635084158 ; 9e8a9882H
  0016c	8d 45 e4	 lea	 eax, DWORD PTR __k$507540[ebp]
  0016f	c7 45 f0 88 b3
	91 00		 mov	 DWORD PTR __k$507540[ebp+12], 9548680 ; 0091b388H
  00176	59		 pop	 ecx
$LL424@LoadProper:
  00177	81 30 ed ec eb
	ea		 xor	 DWORD PTR [eax], -353637139 ; eaebecedH
  0017d	83 c0 04	 add	 eax, 4
  00180	49		 dec	 ecx
  00181	75 f4		 jne	 SHORT $LL424@LoadProper
  00183	6a 0c		 push	 12			; 0000000cH
  00185	5f		 pop	 edi
$LL421@LoadProper:
  00186	8b c7		 mov	 eax, edi
  00188	25 03 00 00 80	 and	 eax, -2147483645	; 80000003H
  0018d	79 05		 jns	 SHORT $LN1326@LoadProper
  0018f	48		 dec	 eax
  00190	83 c8 fc	 or	 eax, -4			; fffffffcH
  00193	40		 inc	 eax
$LN1326@LoadProper:
  00194	b1 ed		 mov	 cl, -19			; ffffffedH
  00196	2a c8		 sub	 cl, al
  00198	30 4c 3d e4	 xor	 BYTE PTR __k$507540[ebp+edi], cl
  0019c	47		 inc	 edi
  0019d	83 ff 0f	 cmp	 edi, 15			; 0000000fH
  001a0	7c e4		 jl	 SHORT $LL421@LoadProper
  001a2	0f 57 c0	 xorps	 xmm0, xmm0
  001a5	51		 push	 ecx
  001a6	8d 45 e4	 lea	 eax, DWORD PTR __k$507540[ebp]
  001a9	f3 0f 11 04 24	 movss	 DWORD PTR [esp], xmm0
  001ae	50		 push	 eax
  001af	8b cb		 mov	 ecx, ebx
  001b1	ff 15 00 00 00
	00		 call	 DWORD PTR __imp_?LoadFloat@ioINILoader@@QAEMPBDM@Z
  001b7	d9 9e 88 00 00
	00		 fstp	 DWORD PTR [esi+136]
  001bd	6a 02		 push	 2

; 79   : 
; 80   : 	m_fFov = rkLoader.LoadFloat_e( "camera_fov", 50.0f );

  001bf	c7 45 e8 8e 8d
	86 8f		 mov	 DWORD PTR __k$507665[ebp], -1887007346 ; 8f868d8eH
  001c6	c7 45 ec 9f 8d
	b4 8c		 mov	 DWORD PTR __k$507665[ebp+4], -1934324321 ; 8cb48d9fH
  001cd	66 c7 45 f0 82
	9a		 mov	 WORD PTR __k$507665[ebp+8], 39554 ; 00009a82H
  001d3	8d 45 e8	 lea	 eax, DWORD PTR __k$507665[ebp]
  001d6	c6 45 f2 00	 mov	 BYTE PTR __k$507665[ebp+10], 0
  001da	59		 pop	 ecx
$LL530@LoadProper:
  001db	81 30 ed ec eb
	ea		 xor	 DWORD PTR [eax], -353637139 ; eaebecedH
  001e1	83 c0 04	 add	 eax, 4
  001e4	49		 dec	 ecx
  001e5	75 f4		 jne	 SHORT $LL530@LoadProper
  001e7	6a 08		 push	 8
  001e9	5f		 pop	 edi
$LL527@LoadProper:
  001ea	8b c7		 mov	 eax, edi
  001ec	25 03 00 00 80	 and	 eax, -2147483645	; 80000003H
  001f1	79 05		 jns	 SHORT $LN1327@LoadProper
  001f3	48		 dec	 eax
  001f4	83 c8 fc	 or	 eax, -4			; fffffffcH
  001f7	40		 inc	 eax
$LN1327@LoadProper:
  001f8	b1 ed		 mov	 cl, -19			; ffffffedH
  001fa	2a c8		 sub	 cl, al
  001fc	30 4c 3d e8	 xor	 BYTE PTR __k$507665[ebp+edi], cl
  00200	47		 inc	 edi
  00201	83 ff 0a	 cmp	 edi, 10			; 0000000aH
  00204	7c e4		 jl	 SHORT $LL527@LoadProper
  00206	f3 0f 10 05 00
	00 00 00	 movss	 xmm0, DWORD PTR __real@42480000
  0020e	51		 push	 ecx
  0020f	8d 45 e8	 lea	 eax, DWORD PTR __k$507665[ebp]
  00212	f3 0f 11 04 24	 movss	 DWORD PTR [esp], xmm0
  00217	50		 push	 eax
  00218	8b cb		 mov	 ecx, ebx
  0021a	ff 15 00 00 00
	00		 call	 DWORD PTR __imp_?LoadFloat@ioINILoader@@QAEMPBDM@Z
  00220	d9 5e 30	 fstp	 DWORD PTR [esi+48]
  00223	6a 03		 push	 3

; 81   : 	m_dwZoomInTime = rkLoader.LoadInt_e( "zoom_in_time", 1000 );

  00225	c7 45 e8 97 83
	84 87		 mov	 DWORD PTR __k$507790[ebp], -2021358697 ; 87848397H
  0022c	c7 45 ec b2 85
	85 b5		 mov	 DWORD PTR __k$507790[ebp+4], -1249540686 ; b58585b2H
  00233	c7 45 f0 99 85
	86 8f		 mov	 DWORD PTR __k$507790[ebp+8], -1887009383 ; 8f868599H
  0023a	8d 45 e8	 lea	 eax, DWORD PTR __k$507790[ebp]
  0023d	c6 45 f4 00	 mov	 BYTE PTR __k$507790[ebp+12], 0
  00241	59		 pop	 ecx
$LL636@LoadProper:
  00242	81 30 ed ec eb
	ea		 xor	 DWORD PTR [eax], -353637139 ; eaebecedH
  00248	83 c0 04	 add	 eax, 4
  0024b	49		 dec	 ecx
  0024c	75 f4		 jne	 SHORT $LL636@LoadProper
  0024e	8b 3d 00 00 00
	00		 mov	 edi, DWORD PTR __imp_?LoadInt@ioINILoader@@QAEHPBDH@Z
  00254	68 e8 03 00 00	 push	 1000			; 000003e8H
  00259	8d 45 e8	 lea	 eax, DWORD PTR __k$507790[ebp]
  0025c	50		 push	 eax
  0025d	8b cb		 mov	 ecx, ebx
  0025f	ff d7		 call	 edi
  00261	6a 03		 push	 3
  00263	89 46 3c	 mov	 DWORD PTR [esi+60], eax

; 82   : 	m_dwZoomOutTime = rkLoader.LoadInt_e( "zoom_out_time", 1000 );

  00266	c7 45 e4 97 83
	84 87		 mov	 DWORD PTR __k$508014[ebp], -2021358697 ; 87848397H
  0026d	c7 45 e8 b2 83
	9e 9e		 mov	 DWORD PTR __k$508014[ebp+4], -1633778766 ; 9e9e83b2H
  00274	c7 45 ec b2 98
	82 87		 mov	 DWORD PTR __k$508014[ebp+8], -2021484366 ; 878298b2H
  0027b	8d 45 e4	 lea	 eax, DWORD PTR __k$508014[ebp]
  0027e	66 c7 45 f0 88
	00		 mov	 WORD PTR __k$508014[ebp+12], 136 ; 00000088H
  00284	59		 pop	 ecx
$LL742@LoadProper:
  00285	81 30 ed ec eb
	ea		 xor	 DWORD PTR [eax], -353637139 ; eaebecedH
  0028b	83 c0 04	 add	 eax, 4
  0028e	49		 dec	 ecx
  0028f	75 f4		 jne	 SHORT $LL742@LoadProper
  00291	80 75 f0 ed	 xor	 BYTE PTR __k$508014[ebp+12], -19 ; ffffffedH
  00295	68 e8 03 00 00	 push	 1000			; 000003e8H
  0029a	8d 45 e4	 lea	 eax, DWORD PTR __k$508014[ebp]
  0029d	50		 push	 eax
  0029e	8b cb		 mov	 ecx, ebx
  002a0	ff d7		 call	 edi
  002a2	6a 03		 push	 3
  002a4	89 46 40	 mov	 DWORD PTR [esi+64], eax

; 83   : 	m_dwStayTime = rkLoader.LoadInt_e( "zoom_stay_time", 2000 );

  002a7	c7 45 e4 97 83
	84 87		 mov	 DWORD PTR __k$508053[ebp], -2021358697 ; 87848397H
  002ae	c7 45 e8 b2 9f
	9f 8b		 mov	 DWORD PTR __k$508053[ebp+4], -1952473166 ; 8b9f9fb2H
  002b5	c7 45 ec 94 b3
	9f 83		 mov	 DWORD PTR __k$508053[ebp+8], -2086685804 ; 839fb394H
  002bc	66 c7 45 f0 80
	89		 mov	 WORD PTR __k$508053[ebp+12], 35200 ; 00008980H
  002c2	8d 45 e4	 lea	 eax, DWORD PTR __k$508053[ebp]
  002c5	c6 45 f2 00	 mov	 BYTE PTR __k$508053[ebp+14], 0
  002c9	59		 pop	 ecx
$LL848@LoadProper:
  002ca	81 30 ed ec eb
	ea		 xor	 DWORD PTR [eax], -353637139 ; eaebecedH
  002d0	83 c0 04	 add	 eax, 4
  002d3	49		 dec	 ecx
  002d4	75 f4		 jne	 SHORT $LL848@LoadProper
  002d6	6a 0c		 push	 12			; 0000000cH
  002d8	58		 pop	 eax
$LL845@LoadProper:
  002d9	8b c8		 mov	 ecx, eax
  002db	81 e1 03 00 00
	80		 and	 ecx, -2147483645	; 80000003H
  002e1	79 05		 jns	 SHORT $LN1328@LoadProper
  002e3	49		 dec	 ecx
  002e4	83 c9 fc	 or	 ecx, -4			; fffffffcH
  002e7	41		 inc	 ecx
$LN1328@LoadProper:
  002e8	b2 ed		 mov	 dl, -19			; ffffffedH
  002ea	2a d1		 sub	 dl, cl
  002ec	30 54 05 e4	 xor	 BYTE PTR __k$508053[ebp+eax], dl
  002f0	40		 inc	 eax
  002f1	83 f8 0e	 cmp	 eax, 14			; 0000000eH
  002f4	7c e3		 jl	 SHORT $LL845@LoadProper
  002f6	68 d0 07 00 00	 push	 2000			; 000007d0H
  002fb	8d 45 e4	 lea	 eax, DWORD PTR __k$508053[ebp]
  002fe	50		 push	 eax
  002ff	8b cb		 mov	 ecx, ebx
  00301	ff d7		 call	 edi
  00303	6a 03		 push	 3
  00305	89 46 44	 mov	 DWORD PTR [esi+68], eax

; 84   : 
; 85   : 	m_fOffSetLength = rkLoader.LoadFloat_e( "offset_length", 0.0f );

  00308	c7 45 e4 82 8a
	8d 99		 mov	 DWORD PTR __k$508178[ebp], -1718777214 ; 998d8a82H
  0030f	c7 45 e8 88 98
	b4 86		 mov	 DWORD PTR __k$508178[ebp+4], -2034984824 ; 86b49888H
  00316	c7 45 ec 88 82
	8c 9e		 mov	 DWORD PTR __k$508178[ebp+8], -1634958712 ; 9e8c8288H
  0031d	8d 45 e4	 lea	 eax, DWORD PTR __k$508178[ebp]
  00320	66 c7 45 f0 85
	00		 mov	 WORD PTR __k$508178[ebp+12], 133 ; 00000085H
  00326	59		 pop	 ecx
$LL954@LoadProper:
  00327	81 30 ed ec eb
	ea		 xor	 DWORD PTR [eax], -353637139 ; eaebecedH
  0032d	83 c0 04	 add	 eax, 4
  00330	49		 dec	 ecx
  00331	75 f4		 jne	 SHORT $LL954@LoadProper
  00333	0f 57 c0	 xorps	 xmm0, xmm0
  00336	80 75 f0 ed	 xor	 BYTE PTR __k$508178[ebp+12], -19 ; ffffffedH
  0033a	51		 push	 ecx
  0033b	8d 45 e4	 lea	 eax, DWORD PTR __k$508178[ebp]
  0033e	f3 0f 11 04 24	 movss	 DWORD PTR [esp], xmm0
  00343	50		 push	 eax
  00344	8b cb		 mov	 ecx, ebx
  00346	ff 15 00 00 00
	00		 call	 DWORD PTR __imp_?LoadFloat@ioINILoader@@QAEMPBDM@Z
  0034c	d9 9e 90 00 00
	00		 fstp	 DWORD PTR [esi+144]
  00352	6a 03		 push	 3

; 86   : 	m_fOffSetHeight = rkLoader.LoadFloat_e( "offset_height", 0.0f );

  00354	c7 45 e4 82 8a
	8d 99		 mov	 DWORD PTR __k$508290[ebp], -1718777214 ; 998d8a82H
  0035b	c7 45 e8 88 98
	b4 82		 mov	 DWORD PTR __k$508290[ebp+4], -2102093688 ; 82b49888H
  00362	c7 45 ec 88 85
	8c 82		 mov	 DWORD PTR __k$508290[ebp+8], -2104719992 ; 828c8588H
  00369	8d 45 e4	 lea	 eax, DWORD PTR __k$508290[ebp]
  0036c	66 c7 45 f0 99
	00		 mov	 WORD PTR __k$508290[ebp+12], 153 ; 00000099H
  00372	59		 pop	 ecx
$LL1060@LoadProper:
  00373	81 30 ed ec eb
	ea		 xor	 DWORD PTR [eax], -353637139 ; eaebecedH
  00379	83 c0 04	 add	 eax, 4
  0037c	49		 dec	 ecx
  0037d	75 f4		 jne	 SHORT $LL1060@LoadProper
  0037f	0f 57 c0	 xorps	 xmm0, xmm0
  00382	80 75 f0 ed	 xor	 BYTE PTR __k$508290[ebp+12], -19 ; ffffffedH
  00386	51		 push	 ecx
  00387	8d 45 e4	 lea	 eax, DWORD PTR __k$508290[ebp]
  0038a	f3 0f 11 04 24	 movss	 DWORD PTR [esp], xmm0
  0038f	50		 push	 eax
  00390	8b cb		 mov	 ecx, ebx
  00392	ff 15 00 00 00
	00		 call	 DWORD PTR __imp_?LoadFloat@ioINILoader@@QAEMPBDM@Z
  00398	d9 9e 94 00 00
	00		 fstp	 DWORD PTR [esi+148]
  0039e	6a 04		 push	 4

; 87   : 
; 88   : 	m_bLookTargetChar = rkLoader.LoadBool_e( "look_target_char", false );

  003a0	c7 45 e4 81 83
	84 81		 mov	 DWORD PTR __k$508415[ebp], -2122022015 ; 81848381H
  003a7	c7 45 e8 b2 98
	8a 98		 mov	 DWORD PTR __k$508415[ebp+4], -1735747406 ; 988a98b2H
  003ae	c7 45 ec 8a 89
	9f b5		 mov	 DWORD PTR __k$508415[ebp+8], -1247835766 ; b59f898aH
  003b5	c7 45 f0 8e 84
	8a 98		 mov	 DWORD PTR __k$508415[ebp+12], -1735752562 ; 988a848eH
  003bc	8d 45 e4	 lea	 eax, DWORD PTR __k$508415[ebp]
  003bf	c6 45 f4 00	 mov	 BYTE PTR __k$508415[ebp+16], 0
  003c3	59		 pop	 ecx
$LL1166@LoadProper:
  003c4	81 30 ed ec eb
	ea		 xor	 DWORD PTR [eax], -353637139 ; eaebecedH
  003ca	83 c0 04	 add	 eax, 4
  003cd	49		 dec	 ecx
  003ce	75 f4		 jne	 SHORT $LL1166@LoadProper
  003d0	8b 3d 00 00 00
	00		 mov	 edi, DWORD PTR __imp_?LoadBool@ioINILoader@@QAE_NPBD_N@Z
  003d6	51		 push	 ecx
  003d7	8d 45 e4	 lea	 eax, DWORD PTR __k$508415[ebp]
  003da	50		 push	 eax
  003db	8b cb		 mov	 ecx, ebx
  003dd	ff d7		 call	 edi
  003df	6a 02		 push	 2
  003e1	88 86 a5 00 00
	00		 mov	 BYTE PTR [esi+165], al

; 89   : 	m_bAutoRepeat     = rkLoader.LoadBool_e( "auto_repeat", false );

  003e7	c7 45 e8 8c 99
	9f 85		 mov	 DWORD PTR __k$508540[ebp], -2053138036 ; 859f998cH
  003ee	c7 45 ec b2 9e
	8e 9a		 mov	 DWORD PTR __k$508540[ebp+4], -1701929294 ; 9a8e9eb2H
  003f5	8d 45 e8	 lea	 eax, DWORD PTR __k$508540[ebp]
  003f8	c7 45 f0 88 8d
	9f 00		 mov	 DWORD PTR __k$508540[ebp+8], 10456456 ; 009f8d88H
  003ff	59		 pop	 ecx
$LL1272@LoadProper:
  00400	81 30 ed ec eb
	ea		 xor	 DWORD PTR [eax], -353637139 ; eaebecedH
  00406	83 c0 04	 add	 eax, 4
  00409	49		 dec	 ecx
  0040a	75 f4		 jne	 SHORT $LL1272@LoadProper
  0040c	6a 08		 push	 8
  0040e	58		 pop	 eax
$LL1269@LoadProper:
  0040f	8b c8		 mov	 ecx, eax
  00411	81 e1 03 00 00
	80		 and	 ecx, -2147483645	; 80000003H
  00417	79 05		 jns	 SHORT $LN1329@LoadProper
  00419	49		 dec	 ecx
  0041a	83 c9 fc	 or	 ecx, -4			; fffffffcH
  0041d	41		 inc	 ecx
$LN1329@LoadProper:
  0041e	b2 ed		 mov	 dl, -19			; ffffffedH
  00420	2a d1		 sub	 dl, cl
  00422	30 54 05 e8	 xor	 BYTE PTR __k$508540[ebp+eax], dl
  00426	40		 inc	 eax
  00427	83 f8 0b	 cmp	 eax, 11			; 0000000bH
  0042a	7c e3		 jl	 SHORT $LL1269@LoadProper
  0042c	6a 00		 push	 0
  0042e	8d 45 e8	 lea	 eax, DWORD PTR __k$508540[ebp]
  00431	50		 push	 eax
  00432	8b cb		 mov	 ecx, ebx
  00434	ff d7		 call	 edi

; 90   : }

  00436	8b 4d fc	 mov	 ecx, DWORD PTR __$ArrayPad$[ebp]
  00439	5f		 pop	 edi
  0043a	88 86 a6 00 00
	00		 mov	 BYTE PTR [esi+166], al
  00440	5e		 pop	 esi
  00441	33 cd		 xor	 ecx, ebp
  00443	5b		 pop	 ebx
  00444	e8 00 00 00 00	 call	 @__security_check_cookie@4
  00449	c9		 leave
  0044a	c2 04 00	 ret	 4
?LoadProperty@ioSimpleEvent@@UAEXAAVioINILoader@@@Z ENDP ; ioSimpleEvent::LoadProperty
_TEXT	ENDS
PUBLIC	__real@400921fb60000000
PUBLIC	___$ReturnUdt$GSCopy$
PUBLIC	__$ArrayPad$
PUBLIC	?ProcessZoomIn@ioSimpleEvent@@IAE?AUD3DXVECTOR3@@U2@0MUD3DXQUATERNION@@@Z ; ioSimpleEvent::ProcessZoomIn
;	COMDAT __real@400921fb60000000
; File c:\program files (x86)\microsoft directx sdk (june 2010)\include\d3dx9math.inl
CONST	SEGMENT
__real@400921fb60000000 DQ 0400921fb60000000r	; 3.14159
; Function compile flags: /Ogsp
; File d:\lost saga for developer\youtube\tutorial\source\src\lsclient\iosimpleevent.cpp
CONST	ENDS
;	COMDAT ?ProcessZoomIn@ioSimpleEvent@@IAE?AUD3DXVECTOR3@@U2@0MUD3DXQUATERNION@@@Z
_TEXT	SEGMENT
tv1186 = -48						; size = 4
___$ReturnUdt$GSCopy$ = -44				; size = 4
tv1577 = -40						; size = 4
tv1571 = -40						; size = 4
tv1566 = -40						; size = 4
tv1561 = -40						; size = 4
tv170 = -40						; size = 4
tv1627 = -36						; size = 4
tv1623 = -36						; size = 4
tv1618 = -36						; size = 4
tv1608 = -36						; size = 4
tv1600 = -36						; size = 4
tv1591 = -36						; size = 4
tv1586 = -36						; size = 4
tv1557 = -36						; size = 4
tv1553 = -36						; size = 4
tv1547 = -36						; size = 4
tv1520 = -36						; size = 4
tv1512 = -36						; size = 4
tv1505 = -36						; size = 4
tv1498 = -36						; size = 4
$T508793 = -36						; size = 4
tv1388 = -32						; size = 4
_fLength$ = -32						; size = 4
_fRate$505251 = -32					; size = 4
$T505280 = -28						; size = 12
$T505279 = -28						; size = 12
$T505278 = -28						; size = 12
$T505277 = -28						; size = 12
$T505274 = -28						; size = 12
$T505267 = -28						; size = 12
_vDir$ = -16						; size = 12
__$ArrayPad$ = -4					; size = 4
___$ReturnUdt$ = 8					; size = 4
_vLookAt$ = 12						; size = 12
_vPosition$ = 24					; size = 12
_fFov$ = 36						; size = 4
_qtTarget$ = 40						; size = 16
?ProcessZoomIn@ioSimpleEvent@@IAE?AUD3DXVECTOR3@@U2@0MUD3DXQUATERNION@@@Z PROC ; ioSimpleEvent::ProcessZoomIn, COMDAT
; _this$ = ecx

; 101  : {

  00000	55		 push	 ebp
  00001	8b ec		 mov	 ebp, esp
  00003	83 ec 30	 sub	 esp, 48			; 00000030H
  00006	a1 00 00 00 00	 mov	 eax, DWORD PTR ___security_cookie
  0000b	33 c5		 xor	 eax, ebp
  0000d	89 45 fc	 mov	 DWORD PTR __$ArrayPad$[ebp], eax
  00010	8b 45 08	 mov	 eax, DWORD PTR ___$ReturnUdt$[ebp]
  00013	53		 push	 ebx
  00014	56		 push	 esi
  00015	57		 push	 edi
  00016	8b d9		 mov	 ebx, ecx

; 102  : 	float fLength;
; 103  : 	D3DXVECTOR3 vNewPosition;
; 104  : 
; 105  : 	m_vStartPosition = vPosition;
; 106  : 	m_vTargetPosition = vLookAt;	
; 107  : 
; 108  : 	if( !m_bCameraEventStart )

  00018	80 7b 0c 00	 cmp	 BYTE PTR [ebx+12], 0
  0001c	8d 7b 10	 lea	 edi, DWORD PTR [ebx+16]
  0001f	8d 75 18	 lea	 esi, DWORD PTR _vPosition$[ebp]
  00022	a5		 movsd
  00023	a5		 movsd
  00024	a5		 movsd
  00025	89 45 d4	 mov	 DWORD PTR ___$ReturnUdt$GSCopy$[ebp], eax
  00028	8d 43 1c	 lea	 eax, DWORD PTR [ebx+28]
  0002b	8d 75 0c	 lea	 esi, DWORD PTR _vLookAt$[ebp]
  0002e	8b f8		 mov	 edi, eax
  00030	a5		 movsd
  00031	a5		 movsd
  00032	89 45 d0	 mov	 DWORD PTR tv1186[ebp], eax
  00035	a5		 movsd
  00036	0f 85 d8 00 00
	00		 jne	 $LN5@ProcessZoo@2

; 109  : 	{
; 110  : 		m_dwZoomInStartTime = FRAMEGETTIME();

  0003c	ff 15 00 00 00
	00		 call	 DWORD PTR __imp_?GetSingleton@ioFrameTimer@@SAAAV1@XZ
  00042	8b c8		 mov	 ecx, eax
  00044	ff 15 00 00 00
	00		 call	 DWORD PTR __imp_?GetLoopSec@ioFrameTimer@@QBEKXZ
  0004a	89 43 48	 mov	 DWORD PTR [ebx+72], eax

; 111  : 		m_bCameraEventStart = true;
; 112  : 		m_fZoomDistance = D3DXVec3Length( &(m_vTargetPosition - m_vStartPosition) );

  0004d	8b 45 d0	 mov	 eax, DWORD PTR tv1186[ebp]
  00050	c6 43 0c 01	 mov	 BYTE PTR [ebx+12], 1
  00054	f3 0f 10 00	 movss	 xmm0, DWORD PTR [eax]
  00058	f3 0f 10 4b 10	 movss	 xmm1, DWORD PTR [ebx+16]
  0005d	f3 0f 10 53 14	 movss	 xmm2, DWORD PTR [ebx+20]
  00062	f3 0f 10 5b 18	 movss	 xmm3, DWORD PTR [ebx+24]
  00067	0f 5a c0	 cvtps2pd xmm0, xmm0
  0006a	0f 5a c9	 cvtps2pd xmm1, xmm1
  0006d	f2 0f 5c c1	 subsd	 xmm0, xmm1
  00071	0f 57 c9	 xorps	 xmm1, xmm1
  00074	66 0f 5a c8	 cvtpd2ps xmm1, xmm0
  00078	f3 0f 10 40 04	 movss	 xmm0, DWORD PTR [eax+4]
  0007d	0f 5a c0	 cvtps2pd xmm0, xmm0
  00080	0f 5a d2	 cvtps2pd xmm2, xmm2
  00083	f2 0f 5c c2	 subsd	 xmm0, xmm2
  00087	f3 0f 10 50 08	 movss	 xmm2, DWORD PTR [eax+8]
  0008c	66 0f 5a c0	 cvtpd2ps xmm0, xmm0
  00090	f3 0f 5a c0	 cvtss2sd xmm0, xmm0
  00094	f2 0f 59 c0	 mulsd	 xmm0, xmm0
  00098	0f 5a d2	 cvtps2pd xmm2, xmm2
  0009b	0f 5a c9	 cvtps2pd xmm1, xmm1
  0009e	0f 5a db	 cvtps2pd xmm3, xmm3
  000a1	f2 0f 5c d3	 subsd	 xmm2, xmm3
  000a5	f2 0f 59 c9	 mulsd	 xmm1, xmm1
  000a9	f2 0f 58 c8	 addsd	 xmm1, xmm0

; 113  : 		m_fZoomDistance -= m_fCameraDistance;

  000ad	0f 57 c0	 xorps	 xmm0, xmm0

; 114  : 		m_fStartFov = fFov;
; 115  : 		m_qtTarget = qtTarget;

  000b0	8d 7b 58	 lea	 edi, DWORD PTR [ebx+88]
  000b3	8d 75 28	 lea	 esi, DWORD PTR _qtTarget$[ebp]
  000b6	a5		 movsd
  000b7	66 0f 5a d2	 cvtpd2ps xmm2, xmm2
  000bb	f3 0f 5a d2	 cvtss2sd xmm2, xmm2
  000bf	f2 0f 59 d2	 mulsd	 xmm2, xmm2
  000c3	f2 0f 58 ca	 addsd	 xmm1, xmm2
  000c7	66 0f 5a c1	 cvtpd2ps xmm0, xmm1
  000cb	f3 0f 10 4b 2c	 movss	 xmm1, DWORD PTR [ebx+44]
  000d0	0f 5a c0	 cvtps2pd xmm0, xmm0
  000d3	f2 0f 51 c0	 sqrtsd	 xmm0, xmm0
  000d7	66 0f 5a c0	 cvtpd2ps xmm0, xmm0
  000db	a5		 movsd
  000dc	f3 0f 5a c0	 cvtss2sd xmm0, xmm0
  000e0	0f 5a c9	 cvtps2pd xmm1, xmm1
  000e3	f2 0f 5c c1	 subsd	 xmm0, xmm1
  000e7	66 0f 5a c0	 cvtpd2ps xmm0, xmm0
  000eb	f3 0f 11 43 28	 movss	 DWORD PTR [ebx+40], xmm0
  000f0	f3 0f 10 45 24	 movss	 xmm0, DWORD PTR _fFov$[ebp]
  000f5	a5		 movsd
  000f6	f3 0f 11 43 34	 movss	 DWORD PTR [ebx+52], xmm0

; 116  : 		m_fCurAngleX = 0.0f;

  000fb	0f 57 c0	 xorps	 xmm0, xmm0
  000fe	a5		 movsd
  000ff	f3 0f 11 43 7c	 movss	 DWORD PTR [ebx+124], xmm0

; 117  : 		m_fCurAngleY = 0.0f;

  00104	f3 0f 11 83 84
	00 00 00	 movss	 DWORD PTR [ebx+132], xmm0

; 118  : 		m_fCurAngleZ = 0.0f;

  0010c	f3 0f 11 83 8c
	00 00 00	 movss	 DWORD PTR [ebx+140], xmm0
$LN5@ProcessZoo@2:

; 119  : 	}
; 120  : 
; 121  : 	D3DXVECTOR3 vDir = m_vTargetPosition - m_vStartPosition;

  00114	f3 0f 10 00	 movss	 xmm0, DWORD PTR [eax]
  00118	f3 0f 10 4b 10	 movss	 xmm1, DWORD PTR [ebx+16]
  0011d	0f 5a c0	 cvtps2pd xmm0, xmm0
  00120	0f 5a c9	 cvtps2pd xmm1, xmm1
  00123	f2 0f 5c c1	 subsd	 xmm0, xmm1
  00127	f3 0f 10 4b 14	 movss	 xmm1, DWORD PTR [ebx+20]
  0012c	66 0f 5a c0	 cvtpd2ps xmm0, xmm0
  00130	f3 0f 11 45 f0	 movss	 DWORD PTR _vDir$[ebp], xmm0
  00135	f3 0f 10 40 04	 movss	 xmm0, DWORD PTR [eax+4]
  0013a	0f 5a c0	 cvtps2pd xmm0, xmm0
  0013d	0f 5a c9	 cvtps2pd xmm1, xmm1
  00140	f2 0f 5c c1	 subsd	 xmm0, xmm1
  00144	f3 0f 10 4b 18	 movss	 xmm1, DWORD PTR [ebx+24]
  00149	66 0f 5a c0	 cvtpd2ps xmm0, xmm0
  0014d	f3 0f 11 45 f4	 movss	 DWORD PTR _vDir$[ebp+4], xmm0
  00152	f3 0f 10 40 08	 movss	 xmm0, DWORD PTR [eax+8]

; 122  : 	D3DXVec3Normalize( &vDir, &vDir );

  00157	8d 45 f0	 lea	 eax, DWORD PTR _vDir$[ebp]
  0015a	0f 5a c0	 cvtps2pd xmm0, xmm0
  0015d	0f 5a c9	 cvtps2pd xmm1, xmm1
  00160	50		 push	 eax
  00161	f2 0f 5c c1	 subsd	 xmm0, xmm1
  00165	66 0f 5a c0	 cvtpd2ps xmm0, xmm0
  00169	50		 push	 eax
  0016a	f3 0f 11 45 f8	 movss	 DWORD PTR _vDir$[ebp+8], xmm0
  0016f	e8 00 00 00 00	 call	 _D3DXVec3Normalize@8

; 123  : 
; 124  : 	if( m_dwZoomInStartTime > 0 && m_dwZoomInTime > 0 )

  00174	83 7b 48 00	 cmp	 DWORD PTR [ebx+72], 0
  00178	0f 86 5e 03 00
	00		 jbe	 $LN4@ProcessZoo@2
  0017e	83 7b 3c 00	 cmp	 DWORD PTR [ebx+60], 0
  00182	0f 86 54 03 00
	00		 jbe	 $LN4@ProcessZoo@2

; 125  : 	{
; 126  : 		DWORD dwGap = FRAMEGETTIME() - m_dwZoomInStartTime;

  00188	ff 15 00 00 00
	00		 call	 DWORD PTR __imp_?GetSingleton@ioFrameTimer@@SAAAV1@XZ
  0018e	8b c8		 mov	 ecx, eax
  00190	ff 15 00 00 00
	00		 call	 DWORD PTR __imp_?GetLoopSec@ioFrameTimer@@QBEKXZ
  00196	2b 43 48	 sub	 eax, DWORD PTR [ebx+72]

; 127  : 		float fRate = (float)dwGap / (float)m_dwZoomInTime;

  00199	89 45 dc	 mov	 DWORD PTR tv1627[ebp], eax
  0019c	db 45 dc	 fild	 DWORD PTR tv1627[ebp]
  0019f	79 06		 jns	 SHORT $LN88@ProcessZoo@2
  001a1	d8 05 00 00 00
	00		 fadd	 DWORD PTR __real@4f800000
$LN88@ProcessZoo@2:
  001a7	8b 43 3c	 mov	 eax, DWORD PTR [ebx+60]
  001aa	db 43 3c	 fild	 DWORD PTR [ebx+60]
  001ad	85 c0		 test	 eax, eax
  001af	79 06		 jns	 SHORT $LN89@ProcessZoo@2
  001b1	d8 05 00 00 00
	00		 fadd	 DWORD PTR __real@4f800000
$LN89@ProcessZoo@2:
  001b7	de f9		 fdivp	 ST(1), ST(0)
  001b9	d9 5d e0	 fstp	 DWORD PTR _fRate$505251[ebp]

; 128  : 		fRate = max( 0.0f, min( fRate, FLOAT1 ) );

  001bc	b8 01 00 00 00	 mov	 eax, 1
  001c1	d9 45 e0	 fld	 DWORD PTR _fRate$505251[ebp]
  001c4	89 45 dc	 mov	 DWORD PTR tv1618[ebp], eax
  001c7	db 45 dc	 fild	 DWORD PTR tv1618[ebp]
  001ca	85 c0		 test	 eax, eax
  001cc	79 06		 jns	 SHORT $LN90@ProcessZoo@2
  001ce	d8 05 00 00 00
	00		 fadd	 DWORD PTR __real@4f800000
$LN90@ProcessZoo@2:
  001d4	df f1		 fcomip	 ST(1)
  001d6	dd d8		 fstp	 ST(0)
  001d8	76 07		 jbe	 SHORT $LN8@ProcessZoo@2
  001da	f3 0f 10 45 e0	 movss	 xmm0, DWORD PTR _fRate$505251[ebp]
  001df	eb 1d		 jmp	 SHORT $LN9@ProcessZoo@2
$LN8@ProcessZoo@2:
  001e1	b8 01 00 00 00	 mov	 eax, 1
  001e6	89 45 dc	 mov	 DWORD PTR tv1608[ebp], eax
  001e9	db 45 dc	 fild	 DWORD PTR tv1608[ebp]
  001ec	85 c0		 test	 eax, eax
  001ee	79 06		 jns	 SHORT $LN91@ProcessZoo@2
  001f0	d8 05 00 00 00
	00		 fadd	 DWORD PTR __real@4f800000
$LN91@ProcessZoo@2:
  001f6	d9 5d d8	 fstp	 DWORD PTR tv170[ebp]
  001f9	f3 0f 10 45 d8	 movss	 xmm0, DWORD PTR tv170[ebp]
$LN9@ProcessZoo@2:
  001fe	0f 57 c9	 xorps	 xmm1, xmm1
  00201	0f 5a c0	 cvtps2pd xmm0, xmm0
  00204	66 0f 2f c8	 comisd	 xmm1, xmm0
  00208	76 0a		 jbe	 SHORT $LN12@ProcessZoo@2
  0020a	0f 57 c0	 xorps	 xmm0, xmm0
  0020d	f3 0f 11 45 e0	 movss	 DWORD PTR _fRate$505251[ebp], xmm0
  00212	eb 36		 jmp	 SHORT $LN11@ProcessZoo@2
$LN12@ProcessZoo@2:
  00214	b8 01 00 00 00	 mov	 eax, 1
  00219	d9 45 e0	 fld	 DWORD PTR _fRate$505251[ebp]
  0021c	89 45 dc	 mov	 DWORD PTR tv1600[ebp], eax
  0021f	db 45 dc	 fild	 DWORD PTR tv1600[ebp]
  00222	85 c0		 test	 eax, eax
  00224	79 06		 jns	 SHORT $LN92@ProcessZoo@2
  00226	d8 05 00 00 00
	00		 fadd	 DWORD PTR __real@4f800000
$LN92@ProcessZoo@2:
  0022c	df f1		 fcomip	 ST(1)
  0022e	dd d8		 fstp	 ST(0)
  00230	77 18		 ja	 SHORT $LN11@ProcessZoo@2
  00232	b8 01 00 00 00	 mov	 eax, 1
  00237	89 45 dc	 mov	 DWORD PTR tv1591[ebp], eax
  0023a	db 45 dc	 fild	 DWORD PTR tv1591[ebp]
  0023d	85 c0		 test	 eax, eax
  0023f	79 06		 jns	 SHORT $LN93@ProcessZoo@2
  00241	d8 05 00 00 00
	00		 fadd	 DWORD PTR __real@4f800000
$LN93@ProcessZoo@2:
  00247	d9 5d e0	 fstp	 DWORD PTR _fRate$505251[ebp]
$LN11@ProcessZoo@2:

; 129  : 
; 130  : 		if( fRate < FLOAT1 )

  0024a	b8 01 00 00 00	 mov	 eax, 1
  0024f	d9 45 e0	 fld	 DWORD PTR _fRate$505251[ebp]
  00252	89 45 dc	 mov	 DWORD PTR tv1586[ebp], eax
  00255	db 45 dc	 fild	 DWORD PTR tv1586[ebp]
  00258	85 c0		 test	 eax, eax
  0025a	79 06		 jns	 SHORT $LN94@ProcessZoo@2
  0025c	d8 05 00 00 00
	00		 fadd	 DWORD PTR __real@4f800000
$LN94@ProcessZoo@2:
  00262	df f1		 fcomip	 ST(1)
  00264	dd d8		 fstp	 ST(0)
  00266	0f 86 d0 01 00
	00		 jbe	 $LN3@ProcessZoo@2

; 131  : 		{
; 132  : 			fRate = ( cosf( D3DX_PI * fRate ) + FLOAT1 ) * FLOAT05;

  0026c	b8 01 00 00 00	 mov	 eax, 1
  00271	8b f0		 mov	 esi, eax
  00273	b8 05 00 00 00	 mov	 eax, 5
  00278	8b f8		 mov	 edi, eax
  0027a	b8 0a 00 00 00	 mov	 eax, 10			; 0000000aH
  0027f	d9 45 e0	 fld	 DWORD PTR _fRate$505251[ebp]
  00282	dc 0d 00 00 00
	00		 fmul	 QWORD PTR __real@400921fb60000000
  00288	89 45 dc	 mov	 DWORD PTR $T508793[ebp], eax
  0028b	d9 5d d8	 fstp	 DWORD PTR tv1577[ebp]
  0028e	d9 45 d8	 fld	 DWORD PTR tv1577[ebp]
  00291	e8 00 00 00 00	 call	 __CIcos
  00296	d9 5d d8	 fstp	 DWORD PTR tv1571[ebp]
  00299	d9 45 d8	 fld	 DWORD PTR tv1571[ebp]
  0029c	89 75 d8	 mov	 DWORD PTR tv1566[ebp], esi
  0029f	db 45 d8	 fild	 DWORD PTR tv1566[ebp]
  002a2	85 f6		 test	 esi, esi
  002a4	79 06		 jns	 SHORT $LN95@ProcessZoo@2
  002a6	d8 05 00 00 00
	00		 fadd	 DWORD PTR __real@4f800000
$LN95@ProcessZoo@2:
  002ac	89 7d d8	 mov	 DWORD PTR tv1561[ebp], edi
  002af	de c1		 faddp	 ST(1), ST(0)
  002b1	db 45 d8	 fild	 DWORD PTR tv1561[ebp]
  002b4	85 ff		 test	 edi, edi
  002b6	79 06		 jns	 SHORT $LN96@ProcessZoo@2
  002b8	d8 05 00 00 00
	00		 fadd	 DWORD PTR __real@4f800000
$LN96@ProcessZoo@2:
  002be	8b 45 dc	 mov	 eax, DWORD PTR $T508793[ebp]
  002c1	db 45 dc	 fild	 DWORD PTR $T508793[ebp]
  002c4	85 c0		 test	 eax, eax
  002c6	79 06		 jns	 SHORT $LN97@ProcessZoo@2
  002c8	d8 05 00 00 00
	00		 fadd	 DWORD PTR __real@4f800000
$LN97@ProcessZoo@2:
  002ce	de f9		 fdivp	 ST(1), ST(0)
  002d0	d9 5d dc	 fstp	 DWORD PTR tv1553[ebp]
  002d3	d8 4d dc	 fmul	 DWORD PTR tv1553[ebp]
  002d6	d9 5d e0	 fstp	 DWORD PTR _fRate$505251[ebp]

; 133  : 
; 134  : 			fLength = m_fZoomDistance * (FLOAT1 - fRate);

  002d9	b8 01 00 00 00	 mov	 eax, 1
  002de	89 45 dc	 mov	 DWORD PTR tv1547[ebp], eax
  002e1	db 45 dc	 fild	 DWORD PTR tv1547[ebp]
  002e4	85 c0		 test	 eax, eax
  002e6	79 06		 jns	 SHORT $LN98@ProcessZoo@2
  002e8	d8 05 00 00 00
	00		 fadd	 DWORD PTR __real@4f800000
$LN98@ProcessZoo@2:
  002ee	d9 45 e0	 fld	 DWORD PTR _fRate$505251[ebp]

; 135  : 			vNewPosition = m_vStartPosition + vDir * fLength;

  002f1	f3 0f 10 45 f0	 movss	 xmm0, DWORD PTR _vDir$[ebp]
  002f6	d9 c0		 fld	 ST(0)
  002f8	0f 5a c0	 cvtps2pd xmm0, xmm0
  002fb	de ea		 fsubp	 ST(2), ST(0)
  002fd	8b 4d d4	 mov	 ecx, DWORD PTR ___$ReturnUdt$GSCopy$[ebp]
  00300	d9 43 28	 fld	 DWORD PTR [ebx+40]
  00303	8d 75 e4	 lea	 esi, DWORD PTR $T505267[ebp]
  00306	8b f9		 mov	 edi, ecx
  00308	de ca		 fmulp	 ST(2), ST(0)
  0030a	d9 c9		 fxch	 ST(1)
  0030c	d9 5d e0	 fstp	 DWORD PTR _fLength$[ebp]
  0030f	f3 0f 10 4d e0	 movss	 xmm1, DWORD PTR _fLength$[ebp]
  00314	f3 0f 10 55 e0	 movss	 xmm2, DWORD PTR _fLength$[ebp]
  00319	f3 0f 10 5d e0	 movss	 xmm3, DWORD PTR _fLength$[ebp]
  0031e	0f 5a c9	 cvtps2pd xmm1, xmm1
  00321	f2 0f 59 c1	 mulsd	 xmm0, xmm1
  00325	f3 0f 10 4d f4	 movss	 xmm1, DWORD PTR _vDir$[ebp+4]
  0032a	66 0f 5a c0	 cvtpd2ps xmm0, xmm0
  0032e	0f 5a c9	 cvtps2pd xmm1, xmm1
  00331	0f 5a d2	 cvtps2pd xmm2, xmm2
  00334	f2 0f 59 ca	 mulsd	 xmm1, xmm2
  00338	f3 0f 10 55 f8	 movss	 xmm2, DWORD PTR _vDir$[ebp+8]
  0033d	f3 0f 5a c0	 cvtss2sd xmm0, xmm0
  00341	0f 5a db	 cvtps2pd xmm3, xmm3
  00344	0f 5a d2	 cvtps2pd xmm2, xmm2
  00347	f2 0f 59 d3	 mulsd	 xmm2, xmm3
  0034b	f3 0f 10 5b 10	 movss	 xmm3, DWORD PTR [ebx+16]
  00350	66 0f 5a c9	 cvtpd2ps xmm1, xmm1
  00354	0f 5a db	 cvtps2pd xmm3, xmm3
  00357	f2 0f 58 c3	 addsd	 xmm0, xmm3
  0035b	66 0f 5a c0	 cvtpd2ps xmm0, xmm0
  0035f	f3 0f 11 45 e4	 movss	 DWORD PTR $T505267[ebp], xmm0
  00364	0f 57 c0	 xorps	 xmm0, xmm0
  00367	f3 0f 5a c1	 cvtss2sd xmm0, xmm1
  0036b	f3 0f 10 4b 14	 movss	 xmm1, DWORD PTR [ebx+20]
  00370	0f 5a c9	 cvtps2pd xmm1, xmm1
  00373	f2 0f 58 c1	 addsd	 xmm0, xmm1
  00377	f3 0f 10 4b 18	 movss	 xmm1, DWORD PTR [ebx+24]
  0037c	66 0f 5a c0	 cvtpd2ps xmm0, xmm0
  00380	f3 0f 11 45 e8	 movss	 DWORD PTR $T505267[ebp+4], xmm0
  00385	0f 57 c0	 xorps	 xmm0, xmm0
  00388	66 0f 5a d2	 cvtpd2ps xmm2, xmm2
  0038c	f3 0f 5a c2	 cvtss2sd xmm0, xmm2
  00390	0f 5a c9	 cvtps2pd xmm1, xmm1
  00393	f2 0f 58 c1	 addsd	 xmm0, xmm1
  00397	66 0f 5a c0	 cvtpd2ps xmm0, xmm0
  0039b	f3 0f 11 45 ec	 movss	 DWORD PTR $T505267[ebp+8], xmm0
  003a0	a5		 movsd
  003a1	a5		 movsd
  003a2	a5		 movsd

; 136  : 			m_fCurFov = m_fStartFov + (m_fFov - m_fStartFov) * (FLOAT1 - fRate);

  003a3	b8 01 00 00 00	 mov	 eax, 1
  003a8	89 45 dc	 mov	 DWORD PTR tv1520[ebp], eax
  003ab	d9 43 34	 fld	 DWORD PTR [ebx+52]
  003ae	d9 5d e0	 fstp	 DWORD PTR tv1388[ebp]
  003b1	db 45 dc	 fild	 DWORD PTR tv1520[ebp]
  003b4	85 c0		 test	 eax, eax
  003b6	79 06		 jns	 SHORT $LN99@ProcessZoo@2
  003b8	d8 05 00 00 00
	00		 fadd	 DWORD PTR __real@4f800000
$LN99@ProcessZoo@2:
  003be	d9 c1		 fld	 ST(1)
  003c0	de e9		 fsubp	 ST(1), ST(0)
  003c2	d9 43 30	 fld	 DWORD PTR [ebx+48]
  003c5	d8 65 e0	 fsub	 DWORD PTR tv1388[ebp]
  003c8	de c9		 fmulp	 ST(1), ST(0)
  003ca	d8 45 e0	 fadd	 DWORD PTR tv1388[ebp]
  003cd	d9 5b 38	 fstp	 DWORD PTR [ebx+56]

; 137  : 			m_fCurAngleX = m_fRotAngleX * ( FLOAT1 - fRate );

  003d0	b8 01 00 00 00	 mov	 eax, 1
  003d5	89 45 dc	 mov	 DWORD PTR tv1512[ebp], eax
  003d8	db 45 dc	 fild	 DWORD PTR tv1512[ebp]
  003db	85 c0		 test	 eax, eax
  003dd	79 06		 jns	 SHORT $LN100@ProcessZoo@2
  003df	d8 05 00 00 00
	00		 fadd	 DWORD PTR __real@4f800000
$LN100@ProcessZoo@2:
  003e5	d9 c1		 fld	 ST(1)
  003e7	de e9		 fsubp	 ST(1), ST(0)
  003e9	d8 4b 78	 fmul	 DWORD PTR [ebx+120]
  003ec	d9 5b 7c	 fstp	 DWORD PTR [ebx+124]

; 138  : 			m_fCurAngleY = m_fRotAngleY * ( FLOAT1 - fRate );

  003ef	b8 01 00 00 00	 mov	 eax, 1
  003f4	89 45 dc	 mov	 DWORD PTR tv1505[ebp], eax
  003f7	db 45 dc	 fild	 DWORD PTR tv1505[ebp]
  003fa	85 c0		 test	 eax, eax
  003fc	79 06		 jns	 SHORT $LN101@ProcessZoo@2
  003fe	d8 05 00 00 00
	00		 fadd	 DWORD PTR __real@4f800000
$LN101@ProcessZoo@2:
  00404	d9 c1		 fld	 ST(1)
  00406	de e9		 fsubp	 ST(1), ST(0)
  00408	d8 8b 80 00 00
	00		 fmul	 DWORD PTR [ebx+128]
  0040e	d9 9b 84 00 00
	00		 fstp	 DWORD PTR [ebx+132]

; 139  : 			m_fCurAngleZ = m_fRotAngleZ * ( FLOAT1 - fRate );

  00414	b8 01 00 00 00	 mov	 eax, 1
  00419	89 45 dc	 mov	 DWORD PTR tv1498[ebp], eax
  0041c	db 45 dc	 fild	 DWORD PTR tv1498[ebp]
  0041f	85 c0		 test	 eax, eax
  00421	79 06		 jns	 SHORT $LN102@ProcessZoo@2
  00423	d8 05 00 00 00
	00		 fadd	 DWORD PTR __real@4f800000
$LN102@ProcessZoo@2:
  00429	de e1		 fsubrp	 ST(1), ST(0)
  0042b	d8 8b 88 00 00
	00		 fmul	 DWORD PTR [ebx+136]
  00431	d9 9b 8c 00 00
	00		 fstp	 DWORD PTR [ebx+140]

; 140  : 		}
; 141  : 		else

  00437	e9 76 01 00 00	 jmp	 $LN1@ProcessZoo@2
$LN3@ProcessZoo@2:

; 142  : 		{
; 143  : 			vNewPosition = m_vStartPosition + vDir * m_fZoomDistance;

  0043c	f3 0f 10 43 28	 movss	 xmm0, DWORD PTR [ebx+40]
  00441	f3 0f 10 55 f0	 movss	 xmm2, DWORD PTR _vDir$[ebp]
  00446	0f 5a c8	 cvtps2pd xmm1, xmm0
  00449	0f 5a d8	 cvtps2pd xmm3, xmm0
  0044c	8b 7d d4	 mov	 edi, DWORD PTR ___$ReturnUdt$GSCopy$[ebp]
  0044f	0f 5a d2	 cvtps2pd xmm2, xmm2
  00452	f2 0f 59 ca	 mulsd	 xmm1, xmm2
  00456	f3 0f 10 55 f4	 movss	 xmm2, DWORD PTR _vDir$[ebp+4]
  0045b	0f 5a d2	 cvtps2pd xmm2, xmm2
  0045e	f2 0f 59 d3	 mulsd	 xmm2, xmm3
  00462	f3 0f 10 5d f8	 movss	 xmm3, DWORD PTR _vDir$[ebp+8]
  00467	0f 5a c0	 cvtps2pd xmm0, xmm0
  0046a	66 0f 5a c9	 cvtpd2ps xmm1, xmm1
  0046e	0f 5a db	 cvtps2pd xmm3, xmm3
  00471	f2 0f 59 d8	 mulsd	 xmm3, xmm0
  00475	f3 0f 5a c9	 cvtss2sd xmm1, xmm1
  00479	0f 57 c0	 xorps	 xmm0, xmm0
  0047c	66 0f 5a c3	 cvtpd2ps xmm0, xmm3
  00480	f3 0f 10 5b 10	 movss	 xmm3, DWORD PTR [ebx+16]
  00485	0f 5a db	 cvtps2pd xmm3, xmm3
  00488	f2 0f 58 cb	 addsd	 xmm1, xmm3
  0048c	66 0f 5a c9	 cvtpd2ps xmm1, xmm1
  00490	f3 0f 11 4d e4	 movss	 DWORD PTR $T505274[ebp], xmm1
  00495	0f 57 c9	 xorps	 xmm1, xmm1
  00498	66 0f 5a d2	 cvtpd2ps xmm2, xmm2
  0049c	f3 0f 5a ca	 cvtss2sd xmm1, xmm2
  004a0	f3 0f 10 53 14	 movss	 xmm2, DWORD PTR [ebx+20]
  004a5	0f 5a d2	 cvtps2pd xmm2, xmm2
  004a8	f2 0f 58 ca	 addsd	 xmm1, xmm2
  004ac	66 0f 5a c9	 cvtpd2ps xmm1, xmm1
  004b0	f3 0f 11 4d e8	 movss	 DWORD PTR $T505274[ebp+4], xmm1
  004b5	f3 0f 10 4b 18	 movss	 xmm1, DWORD PTR [ebx+24]
  004ba	0f 5a c0	 cvtps2pd xmm0, xmm0
  004bd	0f 5a c9	 cvtps2pd xmm1, xmm1
  004c0	f2 0f 58 c1	 addsd	 xmm0, xmm1
  004c4	66 0f 5a c0	 cvtpd2ps xmm0, xmm0
  004c8	f3 0f 11 45 ec	 movss	 DWORD PTR $T505274[ebp+8], xmm0
  004cd	8d 75 e4	 lea	 esi, DWORD PTR $T505274[ebp]
  004d0	a5		 movsd
  004d1	a5		 movsd
  004d2	a5		 movsd

; 144  : 			m_fCurFov = m_fFov;
; 145  : 			m_fCurAngleX = m_fRotAngleX;
; 146  : 			m_fCurAngleY = m_fRotAngleY;
; 147  : 			m_fCurAngleZ = m_fRotAngleZ;
; 148  : 			m_dwZoomInStartTime = 0;

  004d3	83 63 48 00	 and	 DWORD PTR [ebx+72], 0

; 149  : 			//change state
; 150  : 			m_dwZoomStayStartTime = FRAMEGETTIME();
; 151  : 			m_dwEventState = SE_ZOOMSTAY;
; 152  : 		}
; 153  : 	}
; 154  : 	else

  004d7	e9 97 00 00 00	 jmp	 $LN103@ProcessZoo@2
$LN4@ProcessZoo@2:

; 155  : 	{
; 156  : 		vNewPosition = m_vStartPosition + vDir * m_fZoomDistance;

  004dc	f3 0f 10 43 28	 movss	 xmm0, DWORD PTR [ebx+40]
  004e1	f3 0f 10 55 f0	 movss	 xmm2, DWORD PTR _vDir$[ebp]
  004e6	0f 5a c8	 cvtps2pd xmm1, xmm0
  004e9	0f 5a d8	 cvtps2pd xmm3, xmm0
  004ec	8b 7d d4	 mov	 edi, DWORD PTR ___$ReturnUdt$GSCopy$[ebp]
  004ef	0f 5a d2	 cvtps2pd xmm2, xmm2
  004f2	f2 0f 59 ca	 mulsd	 xmm1, xmm2
  004f6	f3 0f 10 55 f4	 movss	 xmm2, DWORD PTR _vDir$[ebp+4]
  004fb	0f 5a d2	 cvtps2pd xmm2, xmm2
  004fe	f2 0f 59 d3	 mulsd	 xmm2, xmm3
  00502	f3 0f 10 5d f8	 movss	 xmm3, DWORD PTR _vDir$[ebp+8]
  00507	0f 5a c0	 cvtps2pd xmm0, xmm0
  0050a	66 0f 5a c9	 cvtpd2ps xmm1, xmm1
  0050e	0f 5a db	 cvtps2pd xmm3, xmm3
  00511	f2 0f 59 d8	 mulsd	 xmm3, xmm0
  00515	f3 0f 5a c9	 cvtss2sd xmm1, xmm1
  00519	0f 57 c0	 xorps	 xmm0, xmm0
  0051c	66 0f 5a c3	 cvtpd2ps xmm0, xmm3
  00520	f3 0f 10 5b 10	 movss	 xmm3, DWORD PTR [ebx+16]
  00525	0f 5a db	 cvtps2pd xmm3, xmm3
  00528	f2 0f 58 cb	 addsd	 xmm1, xmm3
  0052c	66 0f 5a c9	 cvtpd2ps xmm1, xmm1
  00530	f3 0f 11 4d e4	 movss	 DWORD PTR $T505277[ebp], xmm1
  00535	0f 57 c9	 xorps	 xmm1, xmm1
  00538	66 0f 5a d2	 cvtpd2ps xmm2, xmm2
  0053c	f3 0f 5a ca	 cvtss2sd xmm1, xmm2
  00540	f3 0f 10 53 14	 movss	 xmm2, DWORD PTR [ebx+20]
  00545	0f 5a d2	 cvtps2pd xmm2, xmm2
  00548	f2 0f 58 ca	 addsd	 xmm1, xmm2
  0054c	66 0f 5a c9	 cvtpd2ps xmm1, xmm1
  00550	f3 0f 11 4d e8	 movss	 DWORD PTR $T505277[ebp+4], xmm1
  00555	f3 0f 10 4b 18	 movss	 xmm1, DWORD PTR [ebx+24]
  0055a	0f 5a c0	 cvtps2pd xmm0, xmm0
  0055d	0f 5a c9	 cvtps2pd xmm1, xmm1
  00560	f2 0f 58 c1	 addsd	 xmm0, xmm1
  00564	66 0f 5a c0	 cvtpd2ps xmm0, xmm0
  00568	f3 0f 11 45 ec	 movss	 DWORD PTR $T505277[ebp+8], xmm0
  0056d	8d 75 e4	 lea	 esi, DWORD PTR $T505277[ebp]
  00570	a5		 movsd
  00571	a5		 movsd
  00572	a5		 movsd
$LN103@ProcessZoo@2:

; 157  : 		m_fCurFov = m_fFov;

  00573	d9 43 30	 fld	 DWORD PTR [ebx+48]
  00576	d9 5b 38	 fstp	 DWORD PTR [ebx+56]

; 158  : 		m_fCurAngleX = m_fRotAngleX;

  00579	d9 43 78	 fld	 DWORD PTR [ebx+120]
  0057c	d9 5b 7c	 fstp	 DWORD PTR [ebx+124]

; 159  : 		m_fCurAngleY = m_fRotAngleY;

  0057f	d9 83 80 00 00
	00		 fld	 DWORD PTR [ebx+128]
  00585	d9 9b 84 00 00
	00		 fstp	 DWORD PTR [ebx+132]

; 160  : 		m_fCurAngleZ = m_fRotAngleZ;

  0058b	d9 83 88 00 00
	00		 fld	 DWORD PTR [ebx+136]
  00591	d9 9b 8c 00 00
	00		 fstp	 DWORD PTR [ebx+140]

; 161  : 		//change state
; 162  : 		m_dwZoomStayStartTime = FRAMEGETTIME();

  00597	ff 15 00 00 00
	00		 call	 DWORD PTR __imp_?GetSingleton@ioFrameTimer@@SAAAV1@XZ
  0059d	8b c8		 mov	 ecx, eax
  0059f	ff 15 00 00 00
	00		 call	 DWORD PTR __imp_?GetLoopSec@ioFrameTimer@@QBEKXZ

; 163  : 		m_dwEventState = SE_ZOOMSTAY;

  005a5	8b 4d d4	 mov	 ecx, DWORD PTR ___$ReturnUdt$GSCopy$[ebp]
  005a8	c7 43 54 02 00
	00 00		 mov	 DWORD PTR [ebx+84], 2
  005af	89 43 4c	 mov	 DWORD PTR [ebx+76], eax
$LN1@ProcessZoo@2:

; 164  : 	}
; 165  : 
; 166  : 	vDir = vNewPosition - m_vTargetPosition;

  005b2	8b 45 d0	 mov	 eax, DWORD PTR tv1186[ebp]
  005b5	f3 0f 10 01	 movss	 xmm0, DWORD PTR [ecx]
  005b9	f3 0f 10 08	 movss	 xmm1, DWORD PTR [eax]
  005bd	0f 5a c0	 cvtps2pd xmm0, xmm0
  005c0	0f 5a c9	 cvtps2pd xmm1, xmm1
  005c3	f2 0f 5c c1	 subsd	 xmm0, xmm1
  005c7	f3 0f 10 48 04	 movss	 xmm1, DWORD PTR [eax+4]
  005cc	66 0f 5a c0	 cvtpd2ps xmm0, xmm0
  005d0	f3 0f 11 45 e4	 movss	 DWORD PTR $T505278[ebp], xmm0
  005d5	f3 0f 10 41 04	 movss	 xmm0, DWORD PTR [ecx+4]
  005da	0f 5a c0	 cvtps2pd xmm0, xmm0
  005dd	0f 5a c9	 cvtps2pd xmm1, xmm1
  005e0	f2 0f 5c c1	 subsd	 xmm0, xmm1
  005e4	f3 0f 10 48 08	 movss	 xmm1, DWORD PTR [eax+8]
  005e9	66 0f 5a c0	 cvtpd2ps xmm0, xmm0
  005ed	f3 0f 11 45 e8	 movss	 DWORD PTR $T505278[ebp+4], xmm0
  005f2	f3 0f 10 41 08	 movss	 xmm0, DWORD PTR [ecx+8]
  005f7	0f 5a c0	 cvtps2pd xmm0, xmm0
  005fa	0f 5a c9	 cvtps2pd xmm1, xmm1
  005fd	f2 0f 5c c1	 subsd	 xmm0, xmm1
  00601	66 0f 5a c0	 cvtpd2ps xmm0, xmm0
  00605	f3 0f 11 45 ec	 movss	 DWORD PTR $T505278[ebp+8], xmm0
  0060a	8d 75 e4	 lea	 esi, DWORD PTR $T505278[ebp]
  0060d	8d 7d f0	 lea	 edi, DWORD PTR _vDir$[ebp]
  00610	a5		 movsd
  00611	a5		 movsd
  00612	a5		 movsd

; 167  : 	CheckCameraRot( m_qtTarget );

  00613	83 ec 10	 sub	 esp, 16			; 00000010H
  00616	8b fc		 mov	 edi, esp
  00618	8d 73 58	 lea	 esi, DWORD PTR [ebx+88]
  0061b	a5		 movsd
  0061c	a5		 movsd
  0061d	a5		 movsd
  0061e	8b cb		 mov	 ecx, ebx
  00620	a5		 movsd
  00621	e8 00 00 00 00	 call	 ?CheckCameraRot@ioSimpleEvent@@IAEXUD3DXQUATERNION@@@Z ; ioSimpleEvent::CheckCameraRot

; 168  : 	vDir = m_qtCurRot * vDir;

  00626	8d 45 f0	 lea	 eax, DWORD PTR _vDir$[ebp]
  00629	50		 push	 eax
  0062a	83 c3 68	 add	 ebx, 104		; 00000068H
  0062d	8d 45 e4	 lea	 eax, DWORD PTR $T505279[ebp]
  00630	53		 push	 ebx
  00631	50		 push	 eax
  00632	ff 15 00 00 00
	00		 call	 DWORD PTR __imp_??D@YA?AUD3DXVECTOR3@@ABUD3DXQUATERNION@@ABU0@@Z
  00638	8b f0		 mov	 esi, eax

; 169  : 	vNewPosition = m_vTargetPosition + vDir;

  0063a	8b 45 d0	 mov	 eax, DWORD PTR tv1186[ebp]
  0063d	f3 0f 10 00	 movss	 xmm0, DWORD PTR [eax]
  00641	8d 7d f0	 lea	 edi, DWORD PTR _vDir$[ebp]
  00644	a5		 movsd
  00645	a5		 movsd
  00646	a5		 movsd
  00647	f3 0f 10 4d f0	 movss	 xmm1, DWORD PTR _vDir$[ebp]
  0064c	0f 5a c0	 cvtps2pd xmm0, xmm0
  0064f	0f 5a c9	 cvtps2pd xmm1, xmm1
  00652	f2 0f 58 c1	 addsd	 xmm0, xmm1
  00656	f3 0f 10 4d f4	 movss	 xmm1, DWORD PTR _vDir$[ebp+4]
  0065b	66 0f 5a c0	 cvtpd2ps xmm0, xmm0
  0065f	f3 0f 11 45 e4	 movss	 DWORD PTR $T505280[ebp], xmm0
  00664	f3 0f 10 40 04	 movss	 xmm0, DWORD PTR [eax+4]

; 170  : 	return vNewPosition;
; 171  : }

  00669	8b 4d fc	 mov	 ecx, DWORD PTR __$ArrayPad$[ebp]
  0066c	0f 5a c0	 cvtps2pd xmm0, xmm0
  0066f	0f 5a c9	 cvtps2pd xmm1, xmm1
  00672	f2 0f 58 c1	 addsd	 xmm0, xmm1
  00676	f3 0f 10 48 08	 movss	 xmm1, DWORD PTR [eax+8]
  0067b	8b 45 d4	 mov	 eax, DWORD PTR ___$ReturnUdt$GSCopy$[ebp]
  0067e	66 0f 5a c0	 cvtpd2ps xmm0, xmm0
  00682	f3 0f 11 45 e8	 movss	 DWORD PTR $T505280[ebp+4], xmm0
  00687	f3 0f 10 45 f8	 movss	 xmm0, DWORD PTR _vDir$[ebp+8]
  0068c	0f 5a c0	 cvtps2pd xmm0, xmm0
  0068f	0f 5a c9	 cvtps2pd xmm1, xmm1
  00692	f2 0f 58 c1	 addsd	 xmm0, xmm1
  00696	66 0f 5a c0	 cvtpd2ps xmm0, xmm0
  0069a	f3 0f 11 45 ec	 movss	 DWORD PTR $T505280[ebp+8], xmm0
  0069f	8d 75 e4	 lea	 esi, DWORD PTR $T505280[ebp]
  006a2	8b f8		 mov	 edi, eax
  006a4	a5		 movsd
  006a5	a5		 movsd
  006a6	83 c4 0c	 add	 esp, 12			; 0000000cH
  006a9	a5		 movsd
  006aa	5f		 pop	 edi
  006ab	5e		 pop	 esi
  006ac	5b		 pop	 ebx
  006ad	33 cd		 xor	 ecx, ebp
  006af	e8 00 00 00 00	 call	 @__security_check_cookie@4
  006b4	c9		 leave
  006b5	c2 30 00	 ret	 48			; 00000030H
?ProcessZoomIn@ioSimpleEvent@@IAE?AUD3DXVECTOR3@@U2@0MUD3DXQUATERNION@@@Z ENDP ; ioSimpleEvent::ProcessZoomIn
_TEXT	ENDS
PUBLIC	___$ReturnUdt$GSCopy$
PUBLIC	__$ArrayPad$
PUBLIC	?ProcessZoomOut@ioSimpleEvent@@IAE?AUD3DXVECTOR3@@U2@0MUD3DXQUATERNION@@@Z ; ioSimpleEvent::ProcessZoomOut
; Function compile flags: /Ogsp
;	COMDAT ?ProcessZoomOut@ioSimpleEvent@@IAE?AUD3DXVECTOR3@@U2@0MUD3DXQUATERNION@@@Z
_TEXT	SEGMENT
___$ReturnUdt$GSCopy$ = -60				; size = 4
_vNewPosition$ = -56					; size = 12
tv743 = -44						; size = 4
tv974 = -40						; size = 4
tv968 = -40						; size = 4
tv963 = -40						; size = 4
tv958 = -40						; size = 4
tv140 = -40						; size = 4
_fRate$505296 = -36					; size = 4
tv1024 = -32						; size = 4
tv1020 = -32						; size = 4
tv1015 = -32						; size = 4
tv1005 = -32						; size = 4
tv997 = -32						; size = 4
tv988 = -32						; size = 4
tv983 = -32						; size = 4
tv954 = -32						; size = 4
tv950 = -32						; size = 4
$T508989 = -32						; size = 4
$T505318 = -28						; size = 12
$T505317 = -28						; size = 12
$T505316 = -28						; size = 12
$T505311 = -28						; size = 12
_vDir$ = -16						; size = 12
__$ArrayPad$ = -4					; size = 4
___$ReturnUdt$ = 8					; size = 4
_vLookAt$ = 12						; size = 12
_vPosition$ = 24					; size = 12
_fFov$ = 36						; size = 4
_qtTarget$ = 40						; size = 16
?ProcessZoomOut@ioSimpleEvent@@IAE?AUD3DXVECTOR3@@U2@0MUD3DXQUATERNION@@@Z PROC ; ioSimpleEvent::ProcessZoomOut, COMDAT
; _this$ = ecx

; 177  : {

  00000	55		 push	 ebp
  00001	8b ec		 mov	 ebp, esp
  00003	83 ec 3c	 sub	 esp, 60			; 0000003cH
  00006	a1 00 00 00 00	 mov	 eax, DWORD PTR ___security_cookie
  0000b	33 c5		 xor	 eax, ebp
  0000d	89 45 fc	 mov	 DWORD PTR __$ArrayPad$[ebp], eax
  00010	8b 45 08	 mov	 eax, DWORD PTR ___$ReturnUdt$[ebp]
  00013	53		 push	 ebx
  00014	56		 push	 esi
  00015	8b d9		 mov	 ebx, ecx

; 178  : 	float fLength;
; 179  : 	D3DXVECTOR3 vNewPosition;
; 180  : 
; 181  : 	if( !m_bCameraEventStart )

  00017	80 7b 0c 00	 cmp	 BYTE PTR [ebx+12], 0
  0001b	57		 push	 edi

; 234  : 	}
; 235  : 
; 236  : 	vDir = vNewPosition - m_vTargetPosition;

  0001c	89 45 c4	 mov	 DWORD PTR ___$ReturnUdt$GSCopy$[ebp], eax
  0001f	8d 75 18	 lea	 esi, DWORD PTR _vPosition$[ebp]
  00022	0f 84 43 04 00
	00		 je	 $LN66@ProcessZoo@3

; 182  : 		return vPosition;
; 183  : 	
; 184  : 	m_vStartPosition = vPosition;

  00028	8d 7b 10	 lea	 edi, DWORD PTR [ebx+16]
  0002b	a5		 movsd
  0002c	a5		 movsd
  0002d	a5		 movsd

; 185  : 	m_vTargetPosition = vLookAt;

  0002e	8d 4b 1c	 lea	 ecx, DWORD PTR [ebx+28]
  00031	8b f9		 mov	 edi, ecx
  00033	8d 75 0c	 lea	 esi, DWORD PTR _vLookAt$[ebp]
  00036	a5		 movsd
  00037	a5		 movsd
  00038	a5		 movsd

; 186  : 	D3DXVECTOR3 vDir = m_vTargetPosition - m_vStartPosition;

  00039	f3 0f 10 01	 movss	 xmm0, DWORD PTR [ecx]
  0003d	f3 0f 10 4b 10	 movss	 xmm1, DWORD PTR [ebx+16]
  00042	0f 5a c0	 cvtps2pd xmm0, xmm0
  00045	0f 5a c9	 cvtps2pd xmm1, xmm1
  00048	f2 0f 5c c1	 subsd	 xmm0, xmm1
  0004c	f3 0f 10 4b 14	 movss	 xmm1, DWORD PTR [ebx+20]
  00051	66 0f 5a c0	 cvtpd2ps xmm0, xmm0
  00055	f3 0f 11 45 f0	 movss	 DWORD PTR _vDir$[ebp], xmm0
  0005a	f3 0f 10 41 04	 movss	 xmm0, DWORD PTR [ecx+4]
  0005f	0f 5a c0	 cvtps2pd xmm0, xmm0
  00062	0f 5a c9	 cvtps2pd xmm1, xmm1
  00065	f2 0f 5c c1	 subsd	 xmm0, xmm1
  00069	f3 0f 10 4b 18	 movss	 xmm1, DWORD PTR [ebx+24]
  0006e	66 0f 5a c0	 cvtpd2ps xmm0, xmm0
  00072	f3 0f 11 45 f4	 movss	 DWORD PTR _vDir$[ebp+4], xmm0
  00077	f3 0f 10 41 08	 movss	 xmm0, DWORD PTR [ecx+8]

; 187  : 	D3DXVec3Normalize( &vDir, &vDir );

  0007c	8d 45 f0	 lea	 eax, DWORD PTR _vDir$[ebp]
  0007f	0f 5a c0	 cvtps2pd xmm0, xmm0
  00082	0f 5a c9	 cvtps2pd xmm1, xmm1
  00085	50		 push	 eax
  00086	f2 0f 5c c1	 subsd	 xmm0, xmm1
  0008a	66 0f 5a c0	 cvtpd2ps xmm0, xmm0
  0008e	50		 push	 eax
  0008f	89 4d d4	 mov	 DWORD PTR tv743[ebp], ecx
  00092	f3 0f 11 45 f8	 movss	 DWORD PTR _vDir$[ebp+8], xmm0
  00097	e8 00 00 00 00	 call	 _D3DXVec3Normalize@8

; 188  : 
; 189  : 	if( m_dwZoomOutStartTime > 0 && m_dwZoomOutTime > 0 )

  0009c	33 c0		 xor	 eax, eax
  0009e	39 43 50	 cmp	 DWORD PTR [ebx+80], eax
  000a1	0f 86 9a 02 00
	00		 jbe	 $LN6@ProcessZoo@3
  000a7	39 43 40	 cmp	 DWORD PTR [ebx+64], eax
  000aa	0f 86 91 02 00
	00		 jbe	 $LN6@ProcessZoo@3

; 190  : 	{
; 191  : 		DWORD dwGap = FRAMEGETTIME() - m_dwZoomOutStartTime;

  000b0	ff 15 00 00 00
	00		 call	 DWORD PTR __imp_?GetSingleton@ioFrameTimer@@SAAAV1@XZ
  000b6	8b c8		 mov	 ecx, eax
  000b8	ff 15 00 00 00
	00		 call	 DWORD PTR __imp_?GetLoopSec@ioFrameTimer@@QBEKXZ
  000be	2b 43 50	 sub	 eax, DWORD PTR [ebx+80]

; 192  : 		float fRate = (float)dwGap / (float)m_dwZoomOutTime;

  000c1	89 45 e0	 mov	 DWORD PTR tv1024[ebp], eax
  000c4	db 45 e0	 fild	 DWORD PTR tv1024[ebp]
  000c7	79 06		 jns	 SHORT $LN56@ProcessZoo@3
  000c9	d8 05 00 00 00
	00		 fadd	 DWORD PTR __real@4f800000
$LN56@ProcessZoo@3:
  000cf	8b 43 40	 mov	 eax, DWORD PTR [ebx+64]
  000d2	db 43 40	 fild	 DWORD PTR [ebx+64]
  000d5	85 c0		 test	 eax, eax
  000d7	79 06		 jns	 SHORT $LN57@ProcessZoo@3
  000d9	d8 05 00 00 00
	00		 fadd	 DWORD PTR __real@4f800000
$LN57@ProcessZoo@3:
  000df	de f9		 fdivp	 ST(1), ST(0)
  000e1	d9 5d dc	 fstp	 DWORD PTR _fRate$505296[ebp]

; 193  : 
; 194  : 		fRate = max( 0.0f, min( fRate, FLOAT1 ) );

  000e4	b8 01 00 00 00	 mov	 eax, 1
  000e9	d9 45 dc	 fld	 DWORD PTR _fRate$505296[ebp]
  000ec	89 45 e0	 mov	 DWORD PTR tv1015[ebp], eax
  000ef	db 45 e0	 fild	 DWORD PTR tv1015[ebp]
  000f2	85 c0		 test	 eax, eax
  000f4	79 06		 jns	 SHORT $LN58@ProcessZoo@3
  000f6	d8 05 00 00 00
	00		 fadd	 DWORD PTR __real@4f800000
$LN58@ProcessZoo@3:
  000fc	df f1		 fcomip	 ST(1)
  000fe	dd d8		 fstp	 ST(0)
  00100	76 07		 jbe	 SHORT $LN10@ProcessZoo@3
  00102	f3 0f 10 45 dc	 movss	 xmm0, DWORD PTR _fRate$505296[ebp]
  00107	eb 1d		 jmp	 SHORT $LN11@ProcessZoo@3
$LN10@ProcessZoo@3:
  00109	b8 01 00 00 00	 mov	 eax, 1
  0010e	89 45 e0	 mov	 DWORD PTR tv1005[ebp], eax
  00111	db 45 e0	 fild	 DWORD PTR tv1005[ebp]
  00114	85 c0		 test	 eax, eax
  00116	79 06		 jns	 SHORT $LN59@ProcessZoo@3
  00118	d8 05 00 00 00
	00		 fadd	 DWORD PTR __real@4f800000
$LN59@ProcessZoo@3:
  0011e	d9 5d d8	 fstp	 DWORD PTR tv140[ebp]
  00121	f3 0f 10 45 d8	 movss	 xmm0, DWORD PTR tv140[ebp]
$LN11@ProcessZoo@3:
  00126	0f 57 c9	 xorps	 xmm1, xmm1
  00129	0f 5a c0	 cvtps2pd xmm0, xmm0
  0012c	66 0f 2f c8	 comisd	 xmm1, xmm0
  00130	0f 57 c0	 xorps	 xmm0, xmm0
  00133	76 07		 jbe	 SHORT $LN14@ProcessZoo@3
  00135	f3 0f 11 45 dc	 movss	 DWORD PTR _fRate$505296[ebp], xmm0
  0013a	eb 36		 jmp	 SHORT $LN13@ProcessZoo@3
$LN14@ProcessZoo@3:
  0013c	b8 01 00 00 00	 mov	 eax, 1
  00141	d9 45 dc	 fld	 DWORD PTR _fRate$505296[ebp]
  00144	89 45 e0	 mov	 DWORD PTR tv997[ebp], eax
  00147	db 45 e0	 fild	 DWORD PTR tv997[ebp]
  0014a	85 c0		 test	 eax, eax
  0014c	79 06		 jns	 SHORT $LN60@ProcessZoo@3
  0014e	d8 05 00 00 00
	00		 fadd	 DWORD PTR __real@4f800000
$LN60@ProcessZoo@3:
  00154	df f1		 fcomip	 ST(1)
  00156	dd d8		 fstp	 ST(0)
  00158	77 18		 ja	 SHORT $LN13@ProcessZoo@3
  0015a	b8 01 00 00 00	 mov	 eax, 1
  0015f	89 45 e0	 mov	 DWORD PTR tv988[ebp], eax
  00162	db 45 e0	 fild	 DWORD PTR tv988[ebp]
  00165	85 c0		 test	 eax, eax
  00167	79 06		 jns	 SHORT $LN61@ProcessZoo@3
  00169	d8 05 00 00 00
	00		 fadd	 DWORD PTR __real@4f800000
$LN61@ProcessZoo@3:
  0016f	d9 5d dc	 fstp	 DWORD PTR _fRate$505296[ebp]
$LN13@ProcessZoo@3:

; 195  : 
; 196  : 		if( fRate < FLOAT1 )

  00172	b8 01 00 00 00	 mov	 eax, 1
  00177	d9 45 dc	 fld	 DWORD PTR _fRate$505296[ebp]
  0017a	89 45 e0	 mov	 DWORD PTR tv983[ebp], eax
  0017d	db 45 e0	 fild	 DWORD PTR tv983[ebp]
  00180	85 c0		 test	 eax, eax
  00182	79 06		 jns	 SHORT $LN62@ProcessZoo@3
  00184	d8 05 00 00 00
	00		 fadd	 DWORD PTR __real@4f800000
$LN62@ProcessZoo@3:
  0018a	df f1		 fcomip	 ST(1)
  0018c	dd d8		 fstp	 ST(0)
  0018e	0f 86 98 01 00
	00		 jbe	 $LN5@ProcessZoo@3

; 197  : 		{
; 198  : 			fRate = ( cosf( D3DX_PI * fRate ) + FLOAT1 ) * FLOAT05;

  00194	b8 01 00 00 00	 mov	 eax, 1
  00199	8b f0		 mov	 esi, eax
  0019b	b8 05 00 00 00	 mov	 eax, 5
  001a0	8b f8		 mov	 edi, eax
  001a2	b8 0a 00 00 00	 mov	 eax, 10			; 0000000aH
  001a7	d9 45 dc	 fld	 DWORD PTR _fRate$505296[ebp]
  001aa	dc 0d 00 00 00
	00		 fmul	 QWORD PTR __real@400921fb60000000
  001b0	89 45 e0	 mov	 DWORD PTR $T508989[ebp], eax
  001b3	d9 5d d8	 fstp	 DWORD PTR tv974[ebp]
  001b6	d9 45 d8	 fld	 DWORD PTR tv974[ebp]
  001b9	e8 00 00 00 00	 call	 __CIcos
  001be	d9 5d d8	 fstp	 DWORD PTR tv968[ebp]
  001c1	d9 45 d8	 fld	 DWORD PTR tv968[ebp]
  001c4	89 75 d8	 mov	 DWORD PTR tv963[ebp], esi
  001c7	db 45 d8	 fild	 DWORD PTR tv963[ebp]
  001ca	85 f6		 test	 esi, esi
  001cc	79 06		 jns	 SHORT $LN63@ProcessZoo@3
  001ce	d8 05 00 00 00
	00		 fadd	 DWORD PTR __real@4f800000
$LN63@ProcessZoo@3:
  001d4	89 7d d8	 mov	 DWORD PTR tv958[ebp], edi
  001d7	de c1		 faddp	 ST(1), ST(0)
  001d9	db 45 d8	 fild	 DWORD PTR tv958[ebp]
  001dc	85 ff		 test	 edi, edi
  001de	79 06		 jns	 SHORT $LN64@ProcessZoo@3
  001e0	d8 05 00 00 00
	00		 fadd	 DWORD PTR __real@4f800000
$LN64@ProcessZoo@3:
  001e6	8b 45 e0	 mov	 eax, DWORD PTR $T508989[ebp]
  001e9	db 45 e0	 fild	 DWORD PTR $T508989[ebp]
  001ec	85 c0		 test	 eax, eax
  001ee	79 06		 jns	 SHORT $LN65@ProcessZoo@3
  001f0	d8 05 00 00 00
	00		 fadd	 DWORD PTR __real@4f800000
$LN65@ProcessZoo@3:
  001f6	de f9		 fdivp	 ST(1), ST(0)

; 199  : 
; 200  : 			fLength = m_fZoomDistance * fRate;

  001f8	f3 0f 10 43 28	 movss	 xmm0, DWORD PTR [ebx+40]
  001fd	0f 5a c0	 cvtps2pd xmm0, xmm0

; 201  : 			vNewPosition = m_vStartPosition + vDir * fLength;

  00200	0f 57 db	 xorps	 xmm3, xmm3
  00203	0f 57 e4	 xorps	 xmm4, xmm4
  00206	8d 75 e4	 lea	 esi, DWORD PTR $T505311[ebp]
  00209	8d 7d c8	 lea	 edi, DWORD PTR _vNewPosition$[ebp]
  0020c	d9 5d e0	 fstp	 DWORD PTR tv950[ebp]
  0020f	d8 4d e0	 fmul	 DWORD PTR tv950[ebp]
  00212	d9 5d dc	 fstp	 DWORD PTR _fRate$505296[ebp]
  00215	f3 0f 10 4d dc	 movss	 xmm1, DWORD PTR _fRate$505296[ebp]

; 202  : 			m_fCurFov = m_fStartFov + (m_fFov - m_fStartFov) * fRate;
; 203  : 			m_fCurAngleX = m_fRotAngleX * fRate;

  0021a	d9 43 78	 fld	 DWORD PTR [ebx+120]
  0021d	0f 5a d1	 cvtps2pd xmm2, xmm1
  00220	d8 4d dc	 fmul	 DWORD PTR _fRate$505296[ebp]
  00223	f2 0f 59 c2	 mulsd	 xmm0, xmm2
  00227	f3 0f 10 55 f0	 movss	 xmm2, DWORD PTR _vDir$[ebp]
  0022c	66 0f 5a c0	 cvtpd2ps xmm0, xmm0
  00230	f3 0f 5a d8	 cvtss2sd xmm3, xmm0
  00234	f3 0f 5a e0	 cvtss2sd xmm4, xmm0
  00238	0f 5a d2	 cvtps2pd xmm2, xmm2
  0023b	f2 0f 59 d3	 mulsd	 xmm2, xmm3
  0023f	f3 0f 10 5d f4	 movss	 xmm3, DWORD PTR _vDir$[ebp+4]
  00244	f3 0f 5a c0	 cvtss2sd xmm0, xmm0
  00248	66 0f 5a d2	 cvtpd2ps xmm2, xmm2
  0024c	f3 0f 5a d2	 cvtss2sd xmm2, xmm2
  00250	0f 5a db	 cvtps2pd xmm3, xmm3
  00253	f2 0f 59 dc	 mulsd	 xmm3, xmm4
  00257	f3 0f 10 65 f8	 movss	 xmm4, DWORD PTR _vDir$[ebp+8]
  0025c	0f 5a e4	 cvtps2pd xmm4, xmm4
  0025f	f2 0f 59 e0	 mulsd	 xmm4, xmm0
  00263	0f 57 c0	 xorps	 xmm0, xmm0
  00266	66 0f 5a c4	 cvtpd2ps xmm0, xmm4
  0026a	f3 0f 10 63 10	 movss	 xmm4, DWORD PTR [ebx+16]
  0026f	0f 5a c0	 cvtps2pd xmm0, xmm0
  00272	0f 5a e4	 cvtps2pd xmm4, xmm4
  00275	f2 0f 58 e2	 addsd	 xmm4, xmm2
  00279	0f 57 d2	 xorps	 xmm2, xmm2
  0027c	66 0f 5a d4	 cvtpd2ps xmm2, xmm4
  00280	f3 0f 11 55 e4	 movss	 DWORD PTR $T505311[ebp], xmm2
  00285	f3 0f 10 53 14	 movss	 xmm2, DWORD PTR [ebx+20]
  0028a	0f 5a d2	 cvtps2pd xmm2, xmm2
  0028d	66 0f 5a db	 cvtpd2ps xmm3, xmm3
  00291	f3 0f 5a db	 cvtss2sd xmm3, xmm3
  00295	f2 0f 58 d3	 addsd	 xmm2, xmm3
  00299	66 0f 5a d2	 cvtpd2ps xmm2, xmm2
  0029d	f3 0f 11 55 e8	 movss	 DWORD PTR $T505311[ebp+4], xmm2
  002a2	f3 0f 10 53 18	 movss	 xmm2, DWORD PTR [ebx+24]
  002a7	d9 5b 7c	 fstp	 DWORD PTR [ebx+124]
  002aa	0f 5a d2	 cvtps2pd xmm2, xmm2
  002ad	f2 0f 58 d0	 addsd	 xmm2, xmm0
  002b1	0f 57 c0	 xorps	 xmm0, xmm0
  002b4	66 0f 5a c2	 cvtpd2ps xmm0, xmm2
  002b8	f3 0f 10 53 30	 movss	 xmm2, DWORD PTR [ebx+48]
  002bd	f3 0f 11 45 ec	 movss	 DWORD PTR $T505311[ebp+8], xmm0
  002c2	f3 0f 10 43 34	 movss	 xmm0, DWORD PTR [ebx+52]
  002c7	0f 5a d8	 cvtps2pd xmm3, xmm0
  002ca	0f 5a c0	 cvtps2pd xmm0, xmm0
  002cd	0f 5a d2	 cvtps2pd xmm2, xmm2
  002d0	f2 0f 5c d3	 subsd	 xmm2, xmm3
  002d4	a5		 movsd
  002d5	0f 5a d9	 cvtps2pd xmm3, xmm1
  002d8	f2 0f 59 d3	 mulsd	 xmm2, xmm3
  002dc	f2 0f 58 d0	 addsd	 xmm2, xmm0
  002e0	0f 57 c0	 xorps	 xmm0, xmm0
  002e3	66 0f 5a c2	 cvtpd2ps xmm0, xmm2
  002e7	f3 0f 11 43 38	 movss	 DWORD PTR [ebx+56], xmm0

; 204  : 			m_fCurAngleY = m_fRotAngleY * fRate;

  002ec	f3 0f 10 83 80
	00 00 00	 movss	 xmm0, DWORD PTR [ebx+128]
  002f4	0f 5a c0	 cvtps2pd xmm0, xmm0
  002f7	0f 5a d1	 cvtps2pd xmm2, xmm1
  002fa	f2 0f 59 c2	 mulsd	 xmm0, xmm2
  002fe	66 0f 5a c0	 cvtpd2ps xmm0, xmm0
  00302	f3 0f 11 83 84
	00 00 00	 movss	 DWORD PTR [ebx+132], xmm0

; 205  : 			m_fCurAngleZ = m_fRotAngleZ * fRate;

  0030a	f3 0f 10 83 88
	00 00 00	 movss	 xmm0, DWORD PTR [ebx+136]
  00312	a5		 movsd
  00313	0f 5a c0	 cvtps2pd xmm0, xmm0
  00316	0f 5a c9	 cvtps2pd xmm1, xmm1
  00319	f2 0f 59 c1	 mulsd	 xmm0, xmm1
  0031d	66 0f 5a c0	 cvtpd2ps xmm0, xmm0
  00321	a5		 movsd
  00322	f3 0f 11 83 8c
	00 00 00	 movss	 DWORD PTR [ebx+140], xmm0

; 206  : 		}
; 207  : 		else

  0032a	eb 4e		 jmp	 SHORT $LN1@ProcessZoo@3
$LN5@ProcessZoo@3:

; 208  : 		{
; 209  : 			vNewPosition = m_vStartPosition;
; 210  : 			m_fCurFov = m_fStartFov;
; 211  : 			m_fCurAngleX = 0.0f;
; 212  : 			m_fCurAngleY = 0.0f;
; 213  : 			m_fCurAngleZ = 0.0f;
; 214  : 			m_dwZoomOutStartTime = 0;

  0032c	83 63 50 00	 and	 DWORD PTR [ebx+80], 0

; 215  : 			m_bCameraEventStart = false;
; 216  : 			//change state
; 217  : 			m_dwEventState = SE_NONE;

  00330	83 63 54 00	 and	 DWORD PTR [ebx+84], 0

; 218  : 			if( !m_bAutoRepeat )  

  00334	80 bb a6 00 00
	00 00		 cmp	 BYTE PTR [ebx+166], 0
  0033b	c6 43 0c 00	 mov	 BYTE PTR [ebx+12], 0

; 219  : 				m_bCameraEventEnd = true;
; 220  : 		}
; 221  : 	}
; 222  : 	else

  0033f	eb 0f		 jmp	 SHORT $LN67@ProcessZoo@3
$LN6@ProcessZoo@3:

; 226  : 		m_fCurAngleX = 0.0f;

  00341	0f 57 c0	 xorps	 xmm0, xmm0

; 229  : 		m_bCameraEventStart = false;
; 230  : 		//change state
; 231  : 		m_dwEventState = SE_NONE;
; 232  : 		if( !m_bAutoRepeat )  

  00344	38 83 a6 00 00
	00		 cmp	 BYTE PTR [ebx+166], al
  0034a	88 43 0c	 mov	 BYTE PTR [ebx+12], al
  0034d	89 43 54	 mov	 DWORD PTR [ebx+84], eax
$LN67@ProcessZoo@3:

; 223  : 	{
; 224  : 		vNewPosition = m_vStartPosition;

  00350	d9 43 34	 fld	 DWORD PTR [ebx+52]
  00353	8d 7d c8	 lea	 edi, DWORD PTR _vNewPosition$[ebp]
  00356	8d 73 10	 lea	 esi, DWORD PTR [ebx+16]

; 225  : 		m_fCurFov = m_fStartFov;

  00359	d9 5b 38	 fstp	 DWORD PTR [ebx+56]
  0035c	a5		 movsd
  0035d	a5		 movsd

; 227  : 		m_fCurAngleY = 0.0f;
; 228  : 		m_fCurAngleZ = 0.0f;

  0035e	f3 0f 11 83 8c
	00 00 00	 movss	 DWORD PTR [ebx+140], xmm0
  00366	f3 0f 11 83 84
	00 00 00	 movss	 DWORD PTR [ebx+132], xmm0
  0036e	f3 0f 11 43 7c	 movss	 DWORD PTR [ebx+124], xmm0
  00373	a5		 movsd

; 229  : 		m_bCameraEventStart = false;
; 230  : 		//change state
; 231  : 		m_dwEventState = SE_NONE;
; 232  : 		if( !m_bAutoRepeat )  

  00374	75 04		 jne	 SHORT $LN1@ProcessZoo@3

; 233  : 			m_bCameraEventEnd = true;

  00376	c6 43 0d 01	 mov	 BYTE PTR [ebx+13], 1
$LN1@ProcessZoo@3:

; 234  : 	}
; 235  : 
; 236  : 	vDir = vNewPosition - m_vTargetPosition;

  0037a	8b 45 d4	 mov	 eax, DWORD PTR tv743[ebp]
  0037d	f3 0f 10 45 c8	 movss	 xmm0, DWORD PTR _vNewPosition$[ebp]
  00382	f3 0f 10 08	 movss	 xmm1, DWORD PTR [eax]
  00386	0f 5a c0	 cvtps2pd xmm0, xmm0
  00389	0f 5a c9	 cvtps2pd xmm1, xmm1
  0038c	f2 0f 5c c1	 subsd	 xmm0, xmm1
  00390	f3 0f 10 48 04	 movss	 xmm1, DWORD PTR [eax+4]
  00395	66 0f 5a c0	 cvtpd2ps xmm0, xmm0
  00399	f3 0f 11 45 e4	 movss	 DWORD PTR $T505316[ebp], xmm0
  0039e	f3 0f 10 45 cc	 movss	 xmm0, DWORD PTR _vNewPosition$[ebp+4]
  003a3	0f 5a c0	 cvtps2pd xmm0, xmm0
  003a6	0f 5a c9	 cvtps2pd xmm1, xmm1
  003a9	f2 0f 5c c1	 subsd	 xmm0, xmm1
  003ad	f3 0f 10 48 08	 movss	 xmm1, DWORD PTR [eax+8]
  003b2	66 0f 5a c0	 cvtpd2ps xmm0, xmm0
  003b6	f3 0f 11 45 e8	 movss	 DWORD PTR $T505316[ebp+4], xmm0
  003bb	f3 0f 10 45 d0	 movss	 xmm0, DWORD PTR _vNewPosition$[ebp+8]
  003c0	0f 5a c0	 cvtps2pd xmm0, xmm0
  003c3	0f 5a c9	 cvtps2pd xmm1, xmm1
  003c6	f2 0f 5c c1	 subsd	 xmm0, xmm1
  003ca	66 0f 5a c0	 cvtpd2ps xmm0, xmm0
  003ce	f3 0f 11 45 ec	 movss	 DWORD PTR $T505316[ebp+8], xmm0
  003d3	8d 75 e4	 lea	 esi, DWORD PTR $T505316[ebp]
  003d6	8d 7d f0	 lea	 edi, DWORD PTR _vDir$[ebp]
  003d9	a5		 movsd
  003da	a5		 movsd
  003db	a5		 movsd

; 237  : 	CheckCameraRot( m_qtTarget );

  003dc	83 ec 10	 sub	 esp, 16			; 00000010H
  003df	8b fc		 mov	 edi, esp
  003e1	8d 73 58	 lea	 esi, DWORD PTR [ebx+88]
  003e4	a5		 movsd
  003e5	a5		 movsd
  003e6	a5		 movsd
  003e7	8b cb		 mov	 ecx, ebx
  003e9	a5		 movsd
  003ea	e8 00 00 00 00	 call	 ?CheckCameraRot@ioSimpleEvent@@IAEXUD3DXQUATERNION@@@Z ; ioSimpleEvent::CheckCameraRot

; 238  : 	vDir = m_qtCurRot * vDir;

  003ef	8d 45 f0	 lea	 eax, DWORD PTR _vDir$[ebp]
  003f2	50		 push	 eax
  003f3	83 c3 68	 add	 ebx, 104		; 00000068H
  003f6	8d 45 e4	 lea	 eax, DWORD PTR $T505317[ebp]
  003f9	53		 push	 ebx
  003fa	50		 push	 eax
  003fb	ff 15 00 00 00
	00		 call	 DWORD PTR __imp_??D@YA?AUD3DXVECTOR3@@ABUD3DXQUATERNION@@ABU0@@Z
  00401	8b f0		 mov	 esi, eax

; 239  : 	vNewPosition = m_vTargetPosition + vDir;

  00403	8b 45 d4	 mov	 eax, DWORD PTR tv743[ebp]
  00406	f3 0f 10 00	 movss	 xmm0, DWORD PTR [eax]
  0040a	8d 7d f0	 lea	 edi, DWORD PTR _vDir$[ebp]
  0040d	a5		 movsd
  0040e	a5		 movsd
  0040f	0f 5a c0	 cvtps2pd xmm0, xmm0
  00412	a5		 movsd
  00413	f3 0f 10 4d f0	 movss	 xmm1, DWORD PTR _vDir$[ebp]
  00418	0f 5a c9	 cvtps2pd xmm1, xmm1
  0041b	f2 0f 58 c1	 addsd	 xmm0, xmm1
  0041f	f3 0f 10 4d f4	 movss	 xmm1, DWORD PTR _vDir$[ebp+4]
  00424	66 0f 5a c0	 cvtpd2ps xmm0, xmm0
  00428	f3 0f 11 45 e4	 movss	 DWORD PTR $T505318[ebp], xmm0
  0042d	f3 0f 10 40 04	 movss	 xmm0, DWORD PTR [eax+4]
  00432	0f 5a c0	 cvtps2pd xmm0, xmm0
  00435	0f 5a c9	 cvtps2pd xmm1, xmm1
  00438	f2 0f 58 c1	 addsd	 xmm0, xmm1
  0043c	f3 0f 10 4d f8	 movss	 xmm1, DWORD PTR _vDir$[ebp+8]
  00441	66 0f 5a c0	 cvtpd2ps xmm0, xmm0
  00445	f3 0f 11 45 e8	 movss	 DWORD PTR $T505318[ebp+4], xmm0
  0044a	f3 0f 10 40 08	 movss	 xmm0, DWORD PTR [eax+8]

; 240  : 	
; 241  : 	return vNewPosition;

  0044f	8b 45 c4	 mov	 eax, DWORD PTR ___$ReturnUdt$GSCopy$[ebp]
  00452	0f 5a c0	 cvtps2pd xmm0, xmm0
  00455	0f 5a c9	 cvtps2pd xmm1, xmm1
  00458	f2 0f 58 c1	 addsd	 xmm0, xmm1
  0045c	66 0f 5a c0	 cvtpd2ps xmm0, xmm0
  00460	83 c4 0c	 add	 esp, 12			; 0000000cH
  00463	f3 0f 11 45 ec	 movss	 DWORD PTR $T505318[ebp+8], xmm0
  00468	8d 75 e4	 lea	 esi, DWORD PTR $T505318[ebp]
$LN66@ProcessZoo@3:

; 242  : }

  0046b	8b 4d fc	 mov	 ecx, DWORD PTR __$ArrayPad$[ebp]
  0046e	8b f8		 mov	 edi, eax
  00470	a5		 movsd
  00471	a5		 movsd
  00472	a5		 movsd
  00473	5f		 pop	 edi
  00474	5e		 pop	 esi
  00475	33 cd		 xor	 ecx, ebp
  00477	5b		 pop	 ebx
  00478	e8 00 00 00 00	 call	 @__security_check_cookie@4
  0047d	c9		 leave
  0047e	c2 30 00	 ret	 48			; 00000030H
?ProcessZoomOut@ioSimpleEvent@@IAE?AUD3DXVECTOR3@@U2@0MUD3DXQUATERNION@@@Z ENDP ; ioSimpleEvent::ProcessZoomOut
_TEXT	ENDS
PUBLIC	??_C@_0DA@PMKNNNOI@ioSimpleEvent?3?3ProcessCameraEven@ ; `string'
EXTRN	__imp_?PrintTimeAndLog@CLog@@QAAXHPADZZ:PROC
EXTRN	__imp_?LOG@@3VCLog@@A:BYTE
;	COMDAT ??_C@_0DA@PMKNNNOI@ioSimpleEvent?3?3ProcessCameraEven@
CONST	SEGMENT
??_C@_0DA@PMKNNNOI@ioSimpleEvent?3?3ProcessCameraEven@ DB 'ioSimpleEvent:'
	DB	':ProcessCameraEvent - UnkonwState', 00H	; `string'
; Function compile flags: /Ogsp
CONST	ENDS
;	COMDAT ?ProcessCameraEvent@ioSimpleEvent@@UAE?AUD3DXVECTOR3@@U2@0MUD3DXQUATERNION@@@Z
_TEXT	SEGMENT
___$ReturnUdt$ = 8					; size = 4
_vLookAt$ = 12						; size = 12
_vPosition$ = 24					; size = 12
_fFov$ = 36						; size = 4
_qtTarget$ = 40						; size = 16
?ProcessCameraEvent@ioSimpleEvent@@UAE?AUD3DXVECTOR3@@U2@0MUD3DXQUATERNION@@@Z PROC ; ioSimpleEvent::ProcessCameraEvent, COMDAT
; _this$ = ecx

; 289  : {

  00000	55		 push	 ebp
  00001	8b ec		 mov	 ebp, esp

; 290  : 	switch( m_dwEventState )

  00003	8b 41 54	 mov	 eax, DWORD PTR [ecx+84]
  00006	33 d2		 xor	 edx, edx
  00008	2b c2		 sub	 eax, edx
  0000a	56		 push	 esi
  0000b	57		 push	 edi
  0000c	0f 84 92 00 00
	00		 je	 $LN5@ProcessCam
  00012	48		 dec	 eax
  00013	0f 84 9d 00 00
	00		 je	 $LN4@ProcessCam
  00019	48		 dec	 eax
  0001a	74 51		 je	 SHORT $LN2@ProcessCam
  0001c	48		 dec	 eax
  0001d	74 17		 je	 SHORT $LN1@ProcessCam

; 302  : 	}
; 303  : 
; 304  : 	LOG.PrintTimeAndLog( 0, "ioSimpleEvent::ProcessCameraEvent - UnkonwState" );

  0001f	68 00 00 00 00	 push	 OFFSET ??_C@_0DA@PMKNNNOI@ioSimpleEvent?3?3ProcessCameraEven@
  00024	52		 push	 edx
  00025	ff 35 00 00 00
	00		 push	 DWORD PTR __imp_?LOG@@3VCLog@@A
  0002b	ff 15 00 00 00
	00		 call	 DWORD PTR __imp_?PrintTimeAndLog@CLog@@QAAXHPADZZ
  00031	83 c4 0c	 add	 esp, 12			; 0000000cH

; 305  : 	return vPosition;

  00034	eb 73		 jmp	 SHORT $LN11@ProcessCam
$LN1@ProcessCam:

; 300  : 	case SE_ZOOMOUT:
; 301  : 		return ProcessZoomOut( vLookAt, vPosition, fFov, qtTarget );

  00036	f3 0f 10 45 24	 movss	 xmm0, DWORD PTR _fFov$[ebp]
  0003b	83 ec 10	 sub	 esp, 16			; 00000010H
  0003e	8b fc		 mov	 edi, esp
  00040	8d 75 28	 lea	 esi, DWORD PTR _qtTarget$[ebp]
  00043	a5		 movsd
  00044	a5		 movsd
  00045	a5		 movsd
  00046	a5		 movsd
  00047	83 ec 10	 sub	 esp, 16			; 00000010H
  0004a	f3 0f 11 44 24
	0c		 movss	 DWORD PTR [esp+12], xmm0
  00050	8b fc		 mov	 edi, esp
  00052	8d 75 18	 lea	 esi, DWORD PTR _vPosition$[ebp]
  00055	a5		 movsd
  00056	a5		 movsd
  00057	a5		 movsd
  00058	83 ec 0c	 sub	 esp, 12			; 0000000cH
  0005b	8b fc		 mov	 edi, esp
  0005d	ff 75 08	 push	 DWORD PTR ___$ReturnUdt$[ebp]
  00060	8d 75 0c	 lea	 esi, DWORD PTR _vLookAt$[ebp]
  00063	a5		 movsd
  00064	a5		 movsd
  00065	a5		 movsd
  00066	e8 00 00 00 00	 call	 ?ProcessZoomOut@ioSimpleEvent@@IAE?AUD3DXVECTOR3@@U2@0MUD3DXQUATERNION@@@Z ; ioSimpleEvent::ProcessZoomOut
  0006b	eb 7e		 jmp	 SHORT $LN10@ProcessCam
$LN2@ProcessCam:

; 298  : 	case SE_ZOOMSTAY:
; 299  : 		return ProcessZoomStay( vLookAt, vPosition, fFov, qtTarget );

  0006d	f3 0f 10 45 24	 movss	 xmm0, DWORD PTR _fFov$[ebp]
  00072	83 ec 10	 sub	 esp, 16			; 00000010H
  00075	8b fc		 mov	 edi, esp
  00077	8d 75 28	 lea	 esi, DWORD PTR _qtTarget$[ebp]
  0007a	a5		 movsd
  0007b	a5		 movsd
  0007c	a5		 movsd
  0007d	a5		 movsd
  0007e	83 ec 10	 sub	 esp, 16			; 00000010H
  00081	f3 0f 11 44 24
	0c		 movss	 DWORD PTR [esp+12], xmm0
  00087	8b fc		 mov	 edi, esp
  00089	8d 75 18	 lea	 esi, DWORD PTR _vPosition$[ebp]
  0008c	a5		 movsd
  0008d	a5		 movsd
  0008e	a5		 movsd
  0008f	83 ec 0c	 sub	 esp, 12			; 0000000cH
  00092	8b fc		 mov	 edi, esp
  00094	ff 75 08	 push	 DWORD PTR ___$ReturnUdt$[ebp]
  00097	8d 75 0c	 lea	 esi, DWORD PTR _vLookAt$[ebp]
  0009a	a5		 movsd
  0009b	a5		 movsd
  0009c	a5		 movsd
  0009d	e8 00 00 00 00	 call	 ?ProcessZoomStay@ioSimpleEvent@@IAE?AUD3DXVECTOR3@@U2@0MUD3DXQUATERNION@@@Z ; ioSimpleEvent::ProcessZoomStay
  000a2	eb 47		 jmp	 SHORT $LN10@ProcessCam
$LN5@ProcessCam:

; 291  : 	{
; 292  : 	//HARDCODE: event    SE_ZOOMIN state  .
; 293  : 	case SE_NONE:
; 294  : 		if( m_bCameraEventEnd )

  000a4	38 51 0d	 cmp	 BYTE PTR [ecx+13], dl
  000a7	74 0d		 je	 SHORT $LN4@ProcessCam
$LN11@ProcessCam:

; 295  : 			return vPosition;

  000a9	8b 45 08	 mov	 eax, DWORD PTR ___$ReturnUdt$[ebp]
  000ac	8d 75 18	 lea	 esi, DWORD PTR _vPosition$[ebp]
  000af	8b f8		 mov	 edi, eax
  000b1	a5		 movsd
  000b2	a5		 movsd
  000b3	a5		 movsd
  000b4	eb 38		 jmp	 SHORT $LN8@ProcessCam
$LN4@ProcessCam:

; 296  : 	case SE_ZOOMIN:
; 297  : 		return ProcessZoomIn( vLookAt, vPosition, fFov, qtTarget );

  000b6	f3 0f 10 45 24	 movss	 xmm0, DWORD PTR _fFov$[ebp]
  000bb	83 ec 10	 sub	 esp, 16			; 00000010H
  000be	8b fc		 mov	 edi, esp
  000c0	8d 75 28	 lea	 esi, DWORD PTR _qtTarget$[ebp]
  000c3	a5		 movsd
  000c4	a5		 movsd
  000c5	a5		 movsd
  000c6	a5		 movsd
  000c7	83 ec 10	 sub	 esp, 16			; 00000010H
  000ca	f3 0f 11 44 24
	0c		 movss	 DWORD PTR [esp+12], xmm0
  000d0	8b fc		 mov	 edi, esp
  000d2	8d 75 18	 lea	 esi, DWORD PTR _vPosition$[ebp]
  000d5	a5		 movsd
  000d6	a5		 movsd
  000d7	a5		 movsd
  000d8	83 ec 0c	 sub	 esp, 12			; 0000000cH
  000db	8b fc		 mov	 edi, esp
  000dd	ff 75 08	 push	 DWORD PTR ___$ReturnUdt$[ebp]
  000e0	8d 75 0c	 lea	 esi, DWORD PTR _vLookAt$[ebp]
  000e3	a5		 movsd
  000e4	a5		 movsd
  000e5	a5		 movsd
  000e6	e8 00 00 00 00	 call	 ?ProcessZoomIn@ioSimpleEvent@@IAE?AUD3DXVECTOR3@@U2@0MUD3DXQUATERNION@@@Z ; ioSimpleEvent::ProcessZoomIn
$LN10@ProcessCam:
  000eb	8b 45 08	 mov	 eax, DWORD PTR ___$ReturnUdt$[ebp]
$LN8@ProcessCam:

; 306  : }

  000ee	5f		 pop	 edi
  000ef	5e		 pop	 esi
  000f0	5d		 pop	 ebp
  000f1	c2 30 00	 ret	 48			; 00000030H
?ProcessCameraEvent@ioSimpleEvent@@UAE?AUD3DXVECTOR3@@U2@0MUD3DXQUATERNION@@@Z ENDP ; ioSimpleEvent::ProcessCameraEvent
_TEXT	ENDS
END
