; Listing generated by Microsoft (R) Optimizing Compiler Version 16.00.30319.01 

	TITLE	D:\Lost Saga For Developer\Youtube\Tutorial\Source\src\LSClient\ioSpaceMasterAttack.cpp
	.686P
	.XMM
	include listing.inc
	.model	flat

INCLUDELIB MSVCRT
INCLUDELIB OLDNAMES

PUBLIC	?_EEM_DS@?$deque@UD3DXVECTOR3@@V?$allocator@UD3DXVECTOR3@@@std@@@std@@2HB ; std::deque<D3DXVECTOR3,std::allocator<D3DXVECTOR3> >::_EEM_DS
;	COMDAT ?_EEM_DS@?$deque@UD3DXVECTOR3@@V?$allocator@UD3DXVECTOR3@@@std@@@std@@2HB
CONST	SEGMENT
?_EEM_DS@?$deque@UD3DXVECTOR3@@V?$allocator@UD3DXVECTOR3@@@std@@@std@@2HB DD 01H ; std::deque<D3DXVECTOR3,std::allocator<D3DXVECTOR3> >::_EEM_DS
CONST	ENDS
PUBLIC	?return5@@YAIXZ					; return5
; Function compile flags: /Ogsp
; File d:\lost saga for developer\youtube\tutorial\source\src\lsclient\stdafx.h
;	COMDAT ?return5@@YAIXZ
_TEXT	SEGMENT
?return5@@YAIXZ PROC					; return5, COMDAT

; 18   : 	__forceinline unsigned int return5() { __asm mov eax, 5 };

  00000	b8 05 00 00 00	 mov	 eax, 5
  00005	c3		 ret	 0
?return5@@YAIXZ ENDP					; return5
_TEXT	ENDS
PUBLIC	?return10@@YAIXZ				; return10
; Function compile flags: /Ogsp
;	COMDAT ?return10@@YAIXZ
_TEXT	SEGMENT
?return10@@YAIXZ PROC					; return10, COMDAT

; 21   : 	__forceinline unsigned int return10() { __asm mov eax, 10 };

  00000	b8 0a 00 00 00	 mov	 eax, 10			; 0000000aH
  00005	c3		 ret	 0
?return10@@YAIXZ ENDP					; return10
_TEXT	ENDS
PUBLIC	?GetCharName@ioBaseChar@@QBEABVioHashString@@XZ	; ioBaseChar::GetCharName
; Function compile flags: /Ogsp
; File d:\lost saga for developer\youtube\tutorial\source\src\lsclient\iobasechar.h
;	COMDAT ?GetCharName@ioBaseChar@@QBEABVioHashString@@XZ
_TEXT	SEGMENT
?GetCharName@ioBaseChar@@QBEABVioHashString@@XZ PROC	; ioBaseChar::GetCharName, COMDAT
; _this$ = ecx

; 2594 : 	inline const ioHashString& GetCharName() const { return m_Name; }

  00000	8d 81 d4 02 00
	00		 lea	 eax, DWORD PTR [ecx+724]
  00006	c3		 ret	 0
?GetCharName@ioBaseChar@@QBEABVioHashString@@XZ ENDP	; ioBaseChar::GetCharName
_TEXT	ENDS
PUBLIC	?GetTargetRot@ioBaseChar@@QBEABUD3DXQUATERNION@@XZ ; ioBaseChar::GetTargetRot
; Function compile flags: /Ogsp
;	COMDAT ?GetTargetRot@ioBaseChar@@QBEABUD3DXQUATERNION@@XZ
_TEXT	SEGMENT
?GetTargetRot@ioBaseChar@@QBEABUD3DXQUATERNION@@XZ PROC	; ioBaseChar::GetTargetRot, COMDAT
; _this$ = ecx

; 2599 : 	inline const D3DXQUATERNION& GetTargetRot() const { return m_qtTargetRot; }

  00000	8d 81 a4 06 00
	00		 lea	 eax, DWORD PTR [ecx+1700]
  00006	c3		 ret	 0
?GetTargetRot@ioBaseChar@@QBEABUD3DXQUATERNION@@XZ ENDP	; ioBaseChar::GetTargetRot
_TEXT	ENDS
PUBLIC	?SetCurJumpPowerAmt@ioBaseChar@@QAEXM@Z		; ioBaseChar::SetCurJumpPowerAmt
EXTRN	__fltused:DWORD
; Function compile flags: /Ogsp
;	COMDAT ?SetCurJumpPowerAmt@ioBaseChar@@QAEXM@Z
_TEXT	SEGMENT
_fAmt$ = 8						; size = 4
?SetCurJumpPowerAmt@ioBaseChar@@QAEXM@Z PROC		; ioBaseChar::SetCurJumpPowerAmt, COMDAT
; _this$ = ecx

; 2628 : 	inline void SetCurJumpPowerAmt( float fAmt ) { m_fCurJumpPowerAmt = fAmt; }

  00000	55		 push	 ebp
  00001	8b ec		 mov	 ebp, esp
  00003	f3 0f 10 45 08	 movss	 xmm0, DWORD PTR _fAmt$[ebp]
  00008	f3 0f 11 81 90
	0e 00 00	 movss	 DWORD PTR [ecx+3728], xmm0
  00010	5d		 pop	 ebp
  00011	c2 04 00	 ret	 4
?SetCurJumpPowerAmt@ioBaseChar@@QAEXM@Z ENDP		; ioBaseChar::SetCurJumpPowerAmt
_TEXT	ENDS
PUBLIC	?GetAutoTargetName@ioBaseChar@@QBEABVioHashString@@XZ ; ioBaseChar::GetAutoTargetName
; Function compile flags: /Ogsp
;	COMDAT ?GetAutoTargetName@ioBaseChar@@QBEABVioHashString@@XZ
_TEXT	SEGMENT
?GetAutoTargetName@ioBaseChar@@QBEABVioHashString@@XZ PROC ; ioBaseChar::GetAutoTargetName, COMDAT
; _this$ = ecx

; 2769 : 	inline const ioHashString& GetAutoTargetName() const { return m_AutoTargetName; }

  00000	8d 81 58 0c 00
	00		 lea	 eax, DWORD PTR [ecx+3160]
  00006	c3		 ret	 0
?GetAutoTargetName@ioBaseChar@@QBEABVioHashString@@XZ ENDP ; ioBaseChar::GetAutoTargetName
_TEXT	ENDS
PUBLIC	??_7bad_alloc@std@@6B@				; std::bad_alloc::`vftable'
PUBLIC	??0bad_alloc@std@@QAE@PBD@Z			; std::bad_alloc::bad_alloc
PUBLIC	??_R4bad_alloc@std@@6B@				; std::bad_alloc::`RTTI Complete Object Locator'
PUBLIC	??_R0?AVbad_alloc@std@@@8			; std::bad_alloc `RTTI Type Descriptor'
PUBLIC	??_R3bad_alloc@std@@8				; std::bad_alloc::`RTTI Class Hierarchy Descriptor'
PUBLIC	??_R2bad_alloc@std@@8				; std::bad_alloc::`RTTI Base Class Array'
PUBLIC	??_R1A@?0A@EA@bad_alloc@std@@8			; std::bad_alloc::`RTTI Base Class Descriptor at (0,-1,0,64)'
PUBLIC	??_R1A@?0A@EA@exception@std@@8			; std::exception::`RTTI Base Class Descriptor at (0,-1,0,64)'
PUBLIC	??_R0?AVexception@std@@@8			; std::exception `RTTI Type Descriptor'
PUBLIC	??_R3exception@std@@8				; std::exception::`RTTI Class Hierarchy Descriptor'
PUBLIC	??_R2exception@std@@8				; std::exception::`RTTI Base Class Array'
EXTRN	__imp_??0exception@std@@QAE@ABQBD@Z:PROC
EXTRN	??_7type_info@@6B@:QWORD			; type_info::`vftable'
EXTRN	??_Ebad_alloc@std@@UAEPAXI@Z:PROC		; std::bad_alloc::`vector deleting destructor'
EXTRN	?what@exception@std@@UBEPBDXZ:PROC		; std::exception::what
;	COMDAT ??_R2exception@std@@8
; File c:\program files (x86)\microsoft visual studio 10.0\vc\include\exception
rdata$r	SEGMENT
??_R2exception@std@@8 DD FLAT:??_R1A@?0A@EA@exception@std@@8 ; std::exception::`RTTI Base Class Array'
rdata$r	ENDS
;	COMDAT ??_R3exception@std@@8
rdata$r	SEGMENT
??_R3exception@std@@8 DD 00H				; std::exception::`RTTI Class Hierarchy Descriptor'
	DD	00H
	DD	01H
	DD	FLAT:??_R2exception@std@@8
rdata$r	ENDS
;	COMDAT ??_R0?AVexception@std@@@8
_DATA	SEGMENT
??_R0?AVexception@std@@@8 DD FLAT:??_7type_info@@6B@	; std::exception `RTTI Type Descriptor'
	DD	00H
	DB	'.?AVexception@std@@', 00H
_DATA	ENDS
;	COMDAT ??_R1A@?0A@EA@exception@std@@8
rdata$r	SEGMENT
??_R1A@?0A@EA@exception@std@@8 DD FLAT:??_R0?AVexception@std@@@8 ; std::exception::`RTTI Base Class Descriptor at (0,-1,0,64)'
	DD	00H
	DD	00H
	DD	0ffffffffH
	DD	00H
	DD	040H
	DD	FLAT:??_R3exception@std@@8
rdata$r	ENDS
;	COMDAT ??_R1A@?0A@EA@bad_alloc@std@@8
rdata$r	SEGMENT
??_R1A@?0A@EA@bad_alloc@std@@8 DD FLAT:??_R0?AVbad_alloc@std@@@8 ; std::bad_alloc::`RTTI Base Class Descriptor at (0,-1,0,64)'
	DD	01H
	DD	00H
	DD	0ffffffffH
	DD	00H
	DD	040H
	DD	FLAT:??_R3bad_alloc@std@@8
rdata$r	ENDS
;	COMDAT ??_R2bad_alloc@std@@8
rdata$r	SEGMENT
??_R2bad_alloc@std@@8 DD FLAT:??_R1A@?0A@EA@bad_alloc@std@@8 ; std::bad_alloc::`RTTI Base Class Array'
	DD	FLAT:??_R1A@?0A@EA@exception@std@@8
rdata$r	ENDS
;	COMDAT ??_R3bad_alloc@std@@8
rdata$r	SEGMENT
??_R3bad_alloc@std@@8 DD 00H				; std::bad_alloc::`RTTI Class Hierarchy Descriptor'
	DD	00H
	DD	02H
	DD	FLAT:??_R2bad_alloc@std@@8
rdata$r	ENDS
;	COMDAT ??_R0?AVbad_alloc@std@@@8
_DATA	SEGMENT
??_R0?AVbad_alloc@std@@@8 DD FLAT:??_7type_info@@6B@	; std::bad_alloc `RTTI Type Descriptor'
	DD	00H
	DB	'.?AVbad_alloc@std@@', 00H
_DATA	ENDS
;	COMDAT ??_R4bad_alloc@std@@6B@
rdata$r	SEGMENT
??_R4bad_alloc@std@@6B@ DD 00H				; std::bad_alloc::`RTTI Complete Object Locator'
	DD	00H
	DD	00H
	DD	FLAT:??_R0?AVbad_alloc@std@@@8
	DD	FLAT:??_R3bad_alloc@std@@8
rdata$r	ENDS
;	COMDAT ??_7bad_alloc@std@@6B@
CONST	SEGMENT
??_7bad_alloc@std@@6B@ DD FLAT:??_R4bad_alloc@std@@6B@	; std::bad_alloc::`vftable'
	DD	FLAT:??_Ebad_alloc@std@@UAEPAXI@Z
	DD	FLAT:?what@exception@std@@UBEPBDXZ
; Function compile flags: /Ogsp
CONST	ENDS
;	COMDAT ??0bad_alloc@std@@QAE@PBD@Z
_TEXT	SEGMENT
__Message$ = 8						; size = 4
??0bad_alloc@std@@QAE@PBD@Z PROC			; std::bad_alloc::bad_alloc, COMDAT
; _this$ = ecx

; 345  : 		{	// construct from message string

  00000	55		 push	 ebp
  00001	8b ec		 mov	 ebp, esp
  00003	56		 push	 esi
  00004	8d 45 08	 lea	 eax, DWORD PTR __Message$[ebp]
  00007	50		 push	 eax
  00008	8b f1		 mov	 esi, ecx
  0000a	ff 15 00 00 00
	00		 call	 DWORD PTR __imp_??0exception@std@@QAE@ABQBD@Z
  00010	c7 06 00 00 00
	00		 mov	 DWORD PTR [esi], OFFSET ??_7bad_alloc@std@@6B@

; 346  : 		}

  00016	8b c6		 mov	 eax, esi
  00018	5e		 pop	 esi
  00019	5d		 pop	 ebp
  0001a	c2 04 00	 ret	 4
??0bad_alloc@std@@QAE@PBD@Z ENDP			; std::bad_alloc::bad_alloc
_TEXT	ENDS
PUBLIC	??1bad_alloc@std@@UAE@XZ			; std::bad_alloc::~bad_alloc
EXTRN	__imp_??1exception@std@@UAE@XZ:PROC
; Function compile flags: /Ogsp
;	COMDAT ??1bad_alloc@std@@UAE@XZ
_TEXT	SEGMENT
??1bad_alloc@std@@UAE@XZ PROC				; std::bad_alloc::~bad_alloc, COMDAT
; _this$ = ecx

; 354  : 		{	// destroy the object

  00000	c7 01 00 00 00
	00		 mov	 DWORD PTR [ecx], OFFSET ??_7bad_alloc@std@@6B@

; 355  : 		}

  00006	ff 25 00 00 00
	00		 jmp	 DWORD PTR __imp_??1exception@std@@UAE@XZ
??1bad_alloc@std@@UAE@XZ ENDP				; std::bad_alloc::~bad_alloc
_TEXT	ENDS
EXTRN	??3@YAXPAX@Z:PROC				; operator delete
; Function compile flags: /Ogsp
;	COMDAT ??_Gbad_alloc@std@@UAEPAXI@Z
_TEXT	SEGMENT
___flags$ = 8						; size = 4
??_Gbad_alloc@std@@UAEPAXI@Z PROC			; std::bad_alloc::`scalar deleting destructor', COMDAT
; _this$ = ecx
  00000	55		 push	 ebp
  00001	8b ec		 mov	 ebp, esp
  00003	56		 push	 esi
  00004	8b f1		 mov	 esi, ecx
  00006	c7 06 00 00 00
	00		 mov	 DWORD PTR [esi], OFFSET ??_7bad_alloc@std@@6B@
  0000c	ff 15 00 00 00
	00		 call	 DWORD PTR __imp_??1exception@std@@UAE@XZ
  00012	f6 45 08 01	 test	 BYTE PTR ___flags$[ebp], 1
  00016	74 07		 je	 SHORT $LN1@scalar
  00018	56		 push	 esi
  00019	e8 00 00 00 00	 call	 ??3@YAXPAX@Z		; operator delete
  0001e	59		 pop	 ecx
$LN1@scalar:
  0001f	8b c6		 mov	 eax, esi
  00021	5e		 pop	 esi
  00022	5d		 pop	 ebp
  00023	c2 04 00	 ret	 4
??_Gbad_alloc@std@@UAEPAXI@Z ENDP			; std::bad_alloc::`scalar deleting destructor'
_TEXT	ENDS
PUBLIC	??2@YAPAXIPAX@Z					; operator new
; Function compile flags: /Ogsp
; File c:\program files (x86)\microsoft visual studio 10.0\vc\include\new
;	COMDAT ??2@YAPAXIPAX@Z
_TEXT	SEGMENT
___formal$ = 8						; size = 4
__Where$ = 12						; size = 4
??2@YAPAXIPAX@Z PROC					; operator new, COMDAT

; 56   : 	{	// construct array with placement at _Where

  00000	55		 push	 ebp
  00001	8b ec		 mov	 ebp, esp

; 57   : 	return (_Where);

  00003	8b 45 0c	 mov	 eax, DWORD PTR __Where$[ebp]

; 58   : 	}

  00006	5d		 pop	 ebp
  00007	c3		 ret	 0
??2@YAPAXIPAX@Z ENDP					; operator new
_TEXT	ENDS
PUBLIC	??3@YAXPAX0@Z					; operator delete
; Function compile flags: /Ogsp
;	COMDAT ??3@YAXPAX0@Z
_TEXT	SEGMENT
___formal$ = 8						; size = 4
___formal$ = 12						; size = 4
??3@YAXPAX0@Z PROC					; operator delete, COMDAT

; 62   : 	}

  00000	c3		 ret	 0
??3@YAXPAX0@Z ENDP					; operator delete
_TEXT	ENDS
PUBLIC	?GetCreator@ioBaseChar@@QAEPAVioPlayStage@@XZ	; ioBaseChar::GetCreator
; Function compile flags: /Ogsp
; File d:\lost saga for developer\youtube\tutorial\source\src\lsclient\iobasechar.h
;	COMDAT ?GetCreator@ioBaseChar@@QAEPAVioPlayStage@@XZ
_TEXT	SEGMENT
?GetCreator@ioBaseChar@@QAEPAVioPlayStage@@XZ PROC	; ioBaseChar::GetCreator, COMDAT
; _this$ = ecx

; 4013 : 	inline ioPlayStage* GetCreator() { return m_pCreator; }

  00000	8b 81 44 03 00
	00		 mov	 eax, DWORD PTR [ecx+836]
  00006	c3		 ret	 0
?GetCreator@ioBaseChar@@QAEPAVioPlayStage@@XZ ENDP	; ioBaseChar::GetCreator
_TEXT	ENDS
PUBLIC	?_Adopt@_Iterator_base0@std@@QAEXPBX@Z		; std::_Iterator_base0::_Adopt
; Function compile flags: /Ogsp
; File c:\program files (x86)\microsoft visual studio 10.0\vc\include\xutility
;	COMDAT ?_Adopt@_Iterator_base0@std@@QAEXPBX@Z
_TEXT	SEGMENT
___formal$ = 8						; size = 4
?_Adopt@_Iterator_base0@std@@QAEXPBX@Z PROC		; std::_Iterator_base0::_Adopt, COMDAT
; _this$ = ecx

; 49   : 		}

  00000	c2 04 00	 ret	 4
?_Adopt@_Iterator_base0@std@@QAEXPBX@Z ENDP		; std::_Iterator_base0::_Adopt
_TEXT	ENDS
PUBLIC	?GetWeaponStyle@ioSelectPositionMoveWeapon@@QAEHXZ ; ioSelectPositionMoveWeapon::GetWeaponStyle
; Function compile flags: /Ogsp
; File d:\lost saga for developer\youtube\tutorial\source\src\lsclient\ioselectpositionmoveweapon.h
;	COMDAT ?GetWeaponStyle@ioSelectPositionMoveWeapon@@QAEHXZ
_TEXT	SEGMENT
?GetWeaponStyle@ioSelectPositionMoveWeapon@@QAEHXZ PROC	; ioSelectPositionMoveWeapon::GetWeaponStyle, COMDAT
; _this$ = ecx

; 67   : 	inline int GetWeaponStyle(){ return m_WeaponStyle; }

  00000	8b 81 98 08 00
	00		 mov	 eax, DWORD PTR [ecx+2200]
  00006	c3		 ret	 0
?GetWeaponStyle@ioSelectPositionMoveWeapon@@QAEHXZ ENDP	; ioSelectPositionMoveWeapon::GetWeaponStyle
_TEXT	ENDS
PUBLIC	?SetControlSkillName@ioSelectPositionMoveWeapon@@QAEXABVioHashString@@@Z ; ioSelectPositionMoveWeapon::SetControlSkillName
EXTRN	__imp_??4ioHashString@@QAEAAV0@ABV0@@Z:PROC
; Function compile flags: /Ogsp
;	COMDAT ?SetControlSkillName@ioSelectPositionMoveWeapon@@QAEXABVioHashString@@@Z
_TEXT	SEGMENT
_szName$ = 8						; size = 4
?SetControlSkillName@ioSelectPositionMoveWeapon@@QAEXABVioHashString@@@Z PROC ; ioSelectPositionMoveWeapon::SetControlSkillName, COMDAT
; _this$ = ecx

; 69   : 	inline void SetControlSkillName( const ioHashString& szName ){ m_bMoveControlSkillName = szName; }

  00000	55		 push	 ebp
  00001	8b ec		 mov	 ebp, esp
  00003	81 c1 48 0a 00
	00		 add	 ecx, 2632		; 00000a48H
  00009	5d		 pop	 ebp
  0000a	ff 25 00 00 00
	00		 jmp	 DWORD PTR __imp_??4ioHashString@@QAEAAV0@ABV0@@Z
?SetControlSkillName@ioSelectPositionMoveWeapon@@QAEXABVioHashString@@@Z ENDP ; ioSelectPositionMoveWeapon::SetControlSkillName
_TEXT	ENDS
PUBLIC	?SetMoveRangeBySkill@ioSelectPositionMoveWeapon@@QAEXM@Z ; ioSelectPositionMoveWeapon::SetMoveRangeBySkill
; Function compile flags: /Ogsp
;	COMDAT ?SetMoveRangeBySkill@ioSelectPositionMoveWeapon@@QAEXM@Z
_TEXT	SEGMENT
_fMoveRange$ = 8					; size = 4
?SetMoveRangeBySkill@ioSelectPositionMoveWeapon@@QAEXM@Z PROC ; ioSelectPositionMoveWeapon::SetMoveRangeBySkill, COMDAT
; _this$ = ecx

; 71   : 	inline void SetMoveRangeBySkill( float fMoveRange ){ m_fMoveRangeBySkill = fMoveRange; }

  00000	55		 push	 ebp
  00001	8b ec		 mov	 ebp, esp
  00003	f3 0f 10 45 08	 movss	 xmm0, DWORD PTR _fMoveRange$[ebp]
  00008	f3 0f 11 81 58
	0a 00 00	 movss	 DWORD PTR [ecx+2648], xmm0
  00010	5d		 pop	 ebp
  00011	c2 04 00	 ret	 4
?SetMoveRangeBySkill@ioSelectPositionMoveWeapon@@QAEXM@Z ENDP ; ioSelectPositionMoveWeapon::SetMoveRangeBySkill
_TEXT	ENDS
PUBLIC	??_R0?AVioWeapon@@@8				; ioWeapon `RTTI Type Descriptor'
PUBLIC	??_R0?AVioSelectPositionMoveWeapon@@@8		; ioSelectPositionMoveWeapon `RTTI Type Descriptor'
PUBLIC	?ToSelectPositionMoveWeapon@@YAPAVioSelectPositionMoveWeapon@@PAVioWeapon@@@Z ; ToSelectPositionMoveWeapon
EXTRN	___RTDynamicCast:PROC
;	COMDAT ??_R0?AVioWeapon@@@8
_DATA	SEGMENT
??_R0?AVioWeapon@@@8 DD FLAT:??_7type_info@@6B@		; ioWeapon `RTTI Type Descriptor'
	DD	00H
	DB	'.?AVioWeapon@@', 00H
_DATA	ENDS
;	COMDAT ??_R0?AVioSelectPositionMoveWeapon@@@8
_DATA	SEGMENT
??_R0?AVioSelectPositionMoveWeapon@@@8 DD FLAT:??_7type_info@@6B@ ; ioSelectPositionMoveWeapon `RTTI Type Descriptor'
	DD	00H
	DB	'.?AVioSelectPositionMoveWeapon@@', 00H
; Function compile flags: /Ogsp
_DATA	ENDS
;	COMDAT ?ToSelectPositionMoveWeapon@@YAPAVioSelectPositionMoveWeapon@@PAVioWeapon@@@Z
_TEXT	SEGMENT
_pWeapon$ = 8						; size = 4
?ToSelectPositionMoveWeapon@@YAPAVioSelectPositionMoveWeapon@@PAVioWeapon@@@Z PROC ; ToSelectPositionMoveWeapon, COMDAT

; 132  : {

  00000	55		 push	 ebp
  00001	8b ec		 mov	 ebp, esp
  00003	56		 push	 esi

; 133  : 	if( !pWeapon || pWeapon->GetType() != ioWeapon::WT_SELECT_POSITION_MOVE )

  00004	8b 75 08	 mov	 esi, DWORD PTR _pWeapon$[ebp]
  00007	85 f6		 test	 esi, esi
  00009	74 28		 je	 SHORT $LN1@ToSelectPo
  0000b	8b 06		 mov	 eax, DWORD PTR [esi]
  0000d	8b ce		 mov	 ecx, esi
  0000f	ff 90 10 01 00
	00		 call	 DWORD PTR [eax+272]
  00015	83 f8 48	 cmp	 eax, 72			; 00000048H
  00018	75 19		 jne	 SHORT $LN1@ToSelectPo

; 135  : 
; 136  : 	return dynamic_cast< ioSelectPositionMoveWeapon* >( pWeapon );

  0001a	6a 00		 push	 0
  0001c	68 00 00 00 00	 push	 OFFSET ??_R0?AVioSelectPositionMoveWeapon@@@8
  00021	68 00 00 00 00	 push	 OFFSET ??_R0?AVioWeapon@@@8
  00026	6a 00		 push	 0
  00028	56		 push	 esi
  00029	e8 00 00 00 00	 call	 ___RTDynamicCast
  0002e	83 c4 14	 add	 esp, 20			; 00000014H
  00031	eb 02		 jmp	 SHORT $LN3@ToSelectPo
$LN1@ToSelectPo:

; 134  : 		return NULL;

  00033	33 c0		 xor	 eax, eax
$LN3@ToSelectPo:
  00035	5e		 pop	 esi

; 137  : }

  00036	5d		 pop	 ebp
  00037	c3		 ret	 0
?ToSelectPositionMoveWeapon@@YAPAVioSelectPositionMoveWeapon@@PAVioWeapon@@@Z ENDP ; ToSelectPositionMoveWeapon
_TEXT	ENDS
PUBLIC	?RemoveWeapon@ioSpaceMasterAttack@@IAEXPAVioBaseChar@@@Z ; ioSpaceMasterAttack::RemoveWeapon
EXTRN	?FindWeapon@ioWeaponManager@@QAEPAVioWeapon@@PAVioBaseChar@@K@Z:PROC ; ioWeaponManager::FindWeapon
EXTRN	?GetSingleton@ioWeaponManager@@SAAAV1@XZ:PROC	; ioWeaponManager::GetSingleton
; Function compile flags: /Ogsp
; File d:\lost saga for developer\youtube\tutorial\source\src\lsclient\iospacemasterattack.cpp
;	COMDAT ?RemoveWeapon@ioSpaceMasterAttack@@IAEXPAVioBaseChar@@@Z
_TEXT	SEGMENT
_pChar$ = 8						; size = 4
?RemoveWeapon@ioSpaceMasterAttack@@IAEXPAVioBaseChar@@@Z PROC ; ioSpaceMasterAttack::RemoveWeapon, COMDAT
; _this$ = ecx

; 528  : {

  00000	55		 push	 ebp
  00001	8b ec		 mov	 ebp, esp

; 529  : 	ioWeapon* pWeapon = g_WeaponMgr.FindWeapon( pChar, m_dwSelectWeaponIdx );

  00003	ff b1 a8 11 00
	00		 push	 DWORD PTR [ecx+4520]
  00009	ff 75 08	 push	 DWORD PTR _pChar$[ebp]
  0000c	e8 00 00 00 00	 call	 ?GetSingleton@ioWeaponManager@@SAAAV1@XZ ; ioWeaponManager::GetSingleton
  00011	8b c8		 mov	 ecx, eax
  00013	e8 00 00 00 00	 call	 ?FindWeapon@ioWeaponManager@@QAEPAVioWeapon@@PAVioBaseChar@@K@Z ; ioWeaponManager::FindWeapon

; 530  : 	ioSelectPositionMoveWeapon* pSelectWepaon = ToSelectPositionMoveWeapon( pWeapon );

  00018	50		 push	 eax
  00019	e8 00 00 00 00	 call	 ?ToSelectPositionMoveWeapon@@YAPAVioSelectPositionMoveWeapon@@PAVioWeapon@@@Z ; ToSelectPositionMoveWeapon
  0001e	59		 pop	 ecx

; 531  : 	if( pSelectWepaon )

  0001f	85 c0		 test	 eax, eax
  00021	74 07		 je	 SHORT $LN1@RemoveWeap

; 532  : 	{
; 533  : 		pSelectWepaon->SetWeaponDead();

  00023	8b 10		 mov	 edx, DWORD PTR [eax]
  00025	8b c8		 mov	 ecx, eax
  00027	ff 52 4c	 call	 DWORD PTR [edx+76]
$LN1@RemoveWeap:

; 534  : 	}	
; 535  : }

  0002a	5d		 pop	 ebp
  0002b	c2 04 00	 ret	 4
?RemoveWeapon@ioSpaceMasterAttack@@IAEXPAVioBaseChar@@@Z ENDP ; ioSpaceMasterAttack::RemoveWeapon
_TEXT	ENDS
PUBLIC	?CheckAliveWeapon@ioSpaceMasterAttack@@IAE_NPAVioBaseChar@@@Z ; ioSpaceMasterAttack::CheckAliveWeapon
; Function compile flags: /Ogsp
;	COMDAT ?CheckAliveWeapon@ioSpaceMasterAttack@@IAE_NPAVioBaseChar@@@Z
_TEXT	SEGMENT
_pChar$ = 8						; size = 4
?CheckAliveWeapon@ioSpaceMasterAttack@@IAE_NPAVioBaseChar@@@Z PROC ; ioSpaceMasterAttack::CheckAliveWeapon, COMDAT
; _this$ = ecx

; 538  : {

  00000	55		 push	 ebp
  00001	8b ec		 mov	 ebp, esp

; 539  : 	ioWeapon* pWeapon = g_WeaponMgr.FindWeapon( pChar, m_dwSelectWeaponIdx );

  00003	ff b1 a8 11 00
	00		 push	 DWORD PTR [ecx+4520]
  00009	ff 75 08	 push	 DWORD PTR _pChar$[ebp]
  0000c	e8 00 00 00 00	 call	 ?GetSingleton@ioWeaponManager@@SAAAV1@XZ ; ioWeaponManager::GetSingleton
  00011	8b c8		 mov	 ecx, eax
  00013	e8 00 00 00 00	 call	 ?FindWeapon@ioWeaponManager@@QAEPAVioWeapon@@PAVioBaseChar@@K@Z ; ioWeaponManager::FindWeapon

; 540  : 	ioSelectPositionMoveWeapon* pSelectWepaon = ToSelectPositionMoveWeapon( pWeapon );

  00018	50		 push	 eax
  00019	e8 00 00 00 00	 call	 ?ToSelectPositionMoveWeapon@@YAPAVioSelectPositionMoveWeapon@@PAVioWeapon@@@Z ; ToSelectPositionMoveWeapon

; 541  : 	if( pSelectWepaon )

  0001e	85 c0		 test	 eax, eax
  00020	59		 pop	 ecx
  00021	0f 95 c0	 setne	 al

; 542  : 	{
; 543  : 		return true;
; 544  : 	}
; 545  : 
; 546  : 	return false;
; 547  : }

  00024	5d		 pop	 ebp
  00025	c2 04 00	 ret	 4
?CheckAliveWeapon@ioSpaceMasterAttack@@IAE_NPAVioBaseChar@@@Z ENDP ; ioSpaceMasterAttack::CheckAliveWeapon
_TEXT	ENDS
PUBLIC	__real@0000000000000000
PUBLIC	?IsEndState@ioSpaceMasterAttack@@UBE_NXZ	; ioSpaceMasterAttack::IsEndState
;	COMDAT __real@0000000000000000
CONST	SEGMENT
__real@0000000000000000 DQ 00000000000000000r	; 0
; Function compile flags: /Ogsp
CONST	ENDS
;	COMDAT ?IsEndState@ioSpaceMasterAttack@@UBE_NXZ
_TEXT	SEGMENT
?IsEndState@ioSpaceMasterAttack@@UBE_NXZ PROC		; ioSpaceMasterAttack::IsEndState, COMDAT
; _this$ = ecx

; 621  : 	if( 0.0f < m_fSkillEndNextJumpAmt )

  00000	f3 0f 10 81 4c
	05 00 00	 movss	 xmm0, DWORD PTR [ecx+1356]
  00008	0f 5a c0	 cvtps2pd xmm0, xmm0
  0000b	66 0f 2f 05 00
	00 00 00	 comisd	 xmm0, QWORD PTR __real@0000000000000000
  00013	76 03		 jbe	 SHORT $LN2@IsEndState

; 622  : 		return false;

  00015	32 c0		 xor	 al, al

; 625  : 		return true;
; 626  : 
; 627  : 	return false;
; 628  : }

  00017	c3		 ret	 0
$LN2@IsEndState:

; 623  : 
; 624  : 	if( m_SkillState == SS_END )

  00018	83 b9 e4 10 00
	00 04		 cmp	 DWORD PTR [ecx+4324], 4
  0001f	0f 94 c0	 sete	 al

; 625  : 		return true;
; 626  : 
; 627  : 	return false;
; 628  : }

  00022	c3		 ret	 0
?IsEndState@ioSpaceMasterAttack@@UBE_NXZ ENDP		; ioSpaceMasterAttack::IsEndState
_TEXT	ENDS
PUBLIC	__real@00000000
PUBLIC	?IsSkillMotionEnd@ioSpaceMasterAttack@@UBE_NKPAVioBaseChar@@@Z ; ioSpaceMasterAttack::IsSkillMotionEnd
;	COMDAT __real@00000000
CONST	SEGMENT
__real@00000000 DD 000000000r			; 0
; Function compile flags: /Ogsp
CONST	ENDS
;	COMDAT ?IsSkillMotionEnd@ioSpaceMasterAttack@@UBE_NKPAVioBaseChar@@@Z
_TEXT	SEGMENT
_dwActionStop$ = 8					; size = 4
_pOwner$ = 12						; size = 4
?IsSkillMotionEnd@ioSpaceMasterAttack@@UBE_NKPAVioBaseChar@@@Z PROC ; ioSpaceMasterAttack::IsSkillMotionEnd, COMDAT
; _this$ = ecx

; 632  : 	if( m_dwPreDelayStartTime > 0 )

  00000	83 b9 20 02 00
	00 00		 cmp	 DWORD PTR [ecx+544], 0

; 633  : 		return false;

  00007	77 22		 ja	 SHORT $LN1@IsSkillMot

; 634  : 
; 635  : 	switch( m_SkillState )

  00009	83 b9 e4 10 00
	00 03		 cmp	 DWORD PTR [ecx+4324], 3

; 636  : 	{
; 637  : 	case SS_PRE:
; 638  : 	case SS_ATTACK:
; 639  : 	case SS_LOOP:
; 640  : 	case SS_TARGET_THROW:
; 641  : 		return false;

  00010	76 19		 jbe	 SHORT $LN1@IsSkillMot

; 642  : 	}
; 643  : 
; 644  : 	if( m_fSkillEndNextJumpAmt == 0.0f )

  00012	f3 0f 10 81 4c
	05 00 00	 movss	 xmm0, DWORD PTR [ecx+1356]
  0001a	0f 2e 05 00 00
	00 00		 ucomiss xmm0, DWORD PTR __real@00000000
  00021	9f		 lahf
  00022	f6 c4 44	 test	 ah, 68			; 00000044H
  00025	7a 04		 jp	 SHORT $LN1@IsSkillMot

; 645  : 		return true;

  00027	b0 01		 mov	 al, 1
  00029	eb 02		 jmp	 SHORT $LN6@IsSkillMot
$LN1@IsSkillMot:

; 646  : 
; 647  : 	return false;

  0002b	32 c0		 xor	 al, al
$LN6@IsSkillMot:

; 648  : }

  0002d	c2 08 00	 ret	 8
?IsSkillMotionEnd@ioSpaceMasterAttack@@UBE_NKPAVioBaseChar@@@Z ENDP ; ioSpaceMasterAttack::IsSkillMotionEnd
_TEXT	ENDS
PUBLIC	?IsAttackEndState@ioSpaceMasterAttack@@UBE_NXZ	; ioSpaceMasterAttack::IsAttackEndState
; Function compile flags: /Ogsp
;	COMDAT ?IsAttackEndState@ioSpaceMasterAttack@@UBE_NXZ
_TEXT	SEGMENT
?IsAttackEndState@ioSpaceMasterAttack@@UBE_NXZ PROC	; ioSpaceMasterAttack::IsAttackEndState, COMDAT
; _this$ = ecx

; 652  : 	if( m_fSkillEndNextJumpAmt == 0.0f )

  00000	f3 0f 10 81 4c
	05 00 00	 movss	 xmm0, DWORD PTR [ecx+1356]
  00008	0f 2e 05 00 00
	00 00		 ucomiss xmm0, DWORD PTR __real@00000000
  0000f	9f		 lahf
  00010	f6 c4 44	 test	 ah, 68			; 00000044H
  00013	7a 03		 jp	 SHORT $LN4@IsAttackEn

; 653  : 		return false;

  00015	32 c0		 xor	 al, al

; 656  : 	{
; 657  : 	case SS_PRE:	
; 658  : 	case SS_ATTACK:
; 659  : 	case SS_LOOP:
; 660  : 	case SS_TARGET_THROW:
; 661  : 		return false;
; 662  : 	}
; 663  : 
; 664  : 	return true;
; 665  : }

  00017	c3		 ret	 0
$LN4@IsAttackEn:

; 654  : 
; 655  : 	switch( m_SkillState )

  00018	83 b9 e4 10 00
	00 03		 cmp	 DWORD PTR [ecx+4324], 3
  0001f	0f 97 c0	 seta	 al

; 656  : 	{
; 657  : 	case SS_PRE:	
; 658  : 	case SS_ATTACK:
; 659  : 	case SS_LOOP:
; 660  : 	case SS_TARGET_THROW:
; 661  : 		return false;
; 662  : 	}
; 663  : 
; 664  : 	return true;
; 665  : }

  00022	c3		 ret	 0
?IsAttackEndState@ioSpaceMasterAttack@@UBE_NXZ ENDP	; ioSpaceMasterAttack::IsAttackEndState
_TEXT	ENDS
PUBLIC	?IsNoDropState@ioSpaceMasterAttack@@UBE_NXZ	; ioSpaceMasterAttack::IsNoDropState
; Function compile flags: /Ogsp
;	COMDAT ?IsNoDropState@ioSpaceMasterAttack@@UBE_NXZ
_TEXT	SEGMENT
?IsNoDropState@ioSpaceMasterAttack@@UBE_NXZ PROC	; ioSpaceMasterAttack::IsNoDropState, COMDAT
; _this$ = ecx

; 669  : 	switch( m_SkillState )

  00000	8b 81 e4 10 00
	00		 mov	 eax, DWORD PTR [ecx+4324]
  00006	85 c0		 test	 eax, eax
  00008	74 1e		 je	 SHORT $LN4@IsNoDropSt
  0000a	48		 dec	 eax
  0000b	83 f8 02	 cmp	 eax, 2
  0000e	77 03		 ja	 SHORT $LN5@IsNoDropSt
$LN9@IsNoDropSt:

; 673  : 	case SS_ATTACK:
; 674  : 	case SS_LOOP:
; 675  : 	case SS_TARGET_THROW:
; 676  : 		return true;

  00010	b0 01		 mov	 al, 1

; 681  : 	else
; 682  : 		return false;
; 683  : }

  00012	c3		 ret	 0
$LN5@IsNoDropSt:

; 677  : 	}
; 678  : 
; 679  : 	if( 0 < m_fSkillEndNextJumpAmt )

  00013	f3 0f 10 81 4c
	05 00 00	 movss	 xmm0, DWORD PTR [ecx+1356]
  0001b	0f 5a c0	 cvtps2pd xmm0, xmm0
  0001e	66 0f 2f 05 00
	00 00 00	 comisd	 xmm0, QWORD PTR __real@0000000000000000

; 680  : 		return true;

  00026	77 e8		 ja	 SHORT $LN9@IsNoDropSt
$LN4@IsNoDropSt:

; 670  : 	{	
; 671  : 	case SS_PRE:
; 672  : 		return false;

  00028	32 c0		 xor	 al, al

; 681  : 	else
; 682  : 		return false;
; 683  : }

  0002a	c3		 ret	 0
?IsNoDropState@ioSpaceMasterAttack@@UBE_NXZ ENDP	; ioSpaceMasterAttack::IsNoDropState
_TEXT	ENDS
PUBLIC	?GetSkillEndNextJumpMustEnable@ioSpaceMasterAttack@@UAE?AW4SkillEndJumpType@@XZ ; ioSpaceMasterAttack::GetSkillEndNextJumpMustEnable
; Function compile flags: /Ogsp
;	COMDAT ?GetSkillEndNextJumpMustEnable@ioSpaceMasterAttack@@UAE?AW4SkillEndJumpType@@XZ
_TEXT	SEGMENT
?GetSkillEndNextJumpMustEnable@ioSpaceMasterAttack@@UAE?AW4SkillEndJumpType@@XZ PROC ; ioSpaceMasterAttack::GetSkillEndNextJumpMustEnable, COMDAT
; _this$ = ecx

; 687  : 	return m_SkillEndJumpType;

  00000	8b 81 e8 10 00
	00		 mov	 eax, DWORD PTR [ecx+4328]

; 688  : }

  00006	c3		 ret	 0
?GetSkillEndNextJumpMustEnable@ioSpaceMasterAttack@@UAE?AW4SkillEndJumpType@@XZ ENDP ; ioSpaceMasterAttack::GetSkillEndNextJumpMustEnable
_TEXT	ENDS
PUBLIC	?CheckUseItemMesh@ioSpaceMasterAttack@@UAE_NXZ	; ioSpaceMasterAttack::CheckUseItemMesh
; Function compile flags: /Ogsp
;	COMDAT ?CheckUseItemMesh@ioSpaceMasterAttack@@UAE_NXZ
_TEXT	SEGMENT
?CheckUseItemMesh@ioSpaceMasterAttack@@UAE_NXZ PROC	; ioSpaceMasterAttack::CheckUseItemMesh, COMDAT
; _this$ = ecx

; 692  : 	return m_bUseItemMesh;

  00000	8a 81 08 0f 00
	00		 mov	 al, BYTE PTR [ecx+3848]

; 693  : }

  00006	c3		 ret	 0
?CheckUseItemMesh@ioSpaceMasterAttack@@UAE_NXZ ENDP	; ioSpaceMasterAttack::CheckUseItemMesh
_TEXT	ENDS
PUBLIC	?empty@?$vector@VioHashString@@V?$allocator@VioHashString@@@std@@@std@@QBE_NXZ ; std::vector<ioHashString,std::allocator<ioHashString> >::empty
; Function compile flags: /Ogsp
; File c:\program files (x86)\microsoft visual studio 10.0\vc\include\vector
;	COMDAT ?empty@?$vector@VioHashString@@V?$allocator@VioHashString@@@std@@@std@@QBE_NXZ
_TEXT	SEGMENT
?empty@?$vector@VioHashString@@V?$allocator@VioHashString@@@std@@@std@@QBE_NXZ PROC ; std::vector<ioHashString,std::allocator<ioHashString> >::empty, COMDAT
; _this$ = ecx

; 889  : 		return (this->_Myfirst == this->_Mylast);

  00000	8b 01		 mov	 eax, DWORD PTR [ecx]
  00002	2b 41 04	 sub	 eax, DWORD PTR [ecx+4]
  00005	f7 d8		 neg	 eax
  00007	1b c0		 sbb	 eax, eax
  00009	40		 inc	 eax

; 890  : 		}

  0000a	c3		 ret	 0
?empty@?$vector@VioHashString@@V?$allocator@VioHashString@@@std@@@std@@QBE_NXZ ENDP ; std::vector<ioHashString,std::allocator<ioHashString> >::empty
_TEXT	ENDS
PUBLIC	?capacity@?$vector@VioHashString@@V?$allocator@VioHashString@@@std@@@std@@QBEIXZ ; std::vector<ioHashString,std::allocator<ioHashString> >::capacity
; Function compile flags: /Ogsp
;	COMDAT ?capacity@?$vector@VioHashString@@V?$allocator@VioHashString@@@std@@@std@@QBEIXZ
_TEXT	SEGMENT
?capacity@?$vector@VioHashString@@V?$allocator@VioHashString@@@std@@@std@@QBEIXZ PROC ; std::vector<ioHashString,std::allocator<ioHashString> >::capacity, COMDAT
; _this$ = ecx

; 777  : 		return (this->_Myend - this->_Myfirst);

  00000	8b 41 08	 mov	 eax, DWORD PTR [ecx+8]
  00003	2b 01		 sub	 eax, DWORD PTR [ecx]
  00005	c1 f8 04	 sar	 eax, 4

; 778  : 		}

  00008	c3		 ret	 0
?capacity@?$vector@VioHashString@@V?$allocator@VioHashString@@@std@@@std@@QBEIXZ ENDP ; std::vector<ioHashString,std::allocator<ioHashString> >::capacity
_TEXT	ENDS
PUBLIC	?_Inside@?$vector@VioHashString@@V?$allocator@VioHashString@@@std@@@std@@IBE_NPBVioHashString@@@Z ; std::vector<ioHashString,std::allocator<ioHashString> >::_Inside
; Function compile flags: /Ogsp
;	COMDAT ?_Inside@?$vector@VioHashString@@V?$allocator@VioHashString@@@std@@@std@@IBE_NPBVioHashString@@@Z
_TEXT	SEGMENT
__Ptr$ = 8						; size = 4
?_Inside@?$vector@VioHashString@@V?$allocator@VioHashString@@@std@@@std@@IBE_NPBVioHashString@@@Z PROC ; std::vector<ioHashString,std::allocator<ioHashString> >::_Inside, COMDAT
; _this$ = ecx

; 1285 : 		{	// test if _Ptr points inside vector

  00000	55		 push	 ebp
  00001	8b ec		 mov	 ebp, esp

; 1286 : 		return (_Ptr < this->_Mylast && this->_Myfirst <= _Ptr);

  00003	8b 45 08	 mov	 eax, DWORD PTR __Ptr$[ebp]
  00006	3b 41 04	 cmp	 eax, DWORD PTR [ecx+4]
  00009	73 09		 jae	 SHORT $LN3@Inside
  0000b	39 01		 cmp	 DWORD PTR [ecx], eax
  0000d	77 05		 ja	 SHORT $LN3@Inside
  0000f	33 c0		 xor	 eax, eax
  00011	40		 inc	 eax
  00012	eb 02		 jmp	 SHORT $LN4@Inside
$LN3@Inside:
  00014	33 c0		 xor	 eax, eax
$LN4@Inside:

; 1287 : 		}

  00016	5d		 pop	 ebp
  00017	c2 04 00	 ret	 4
?_Inside@?$vector@VioHashString@@V?$allocator@VioHashString@@@std@@@std@@IBE_NPBVioHashString@@@Z ENDP ; std::vector<ioHashString,std::allocator<ioHashString> >::_Inside
_TEXT	ENDS
PUBLIC	?_Orphan_range@?$vector@VioHashString@@V?$allocator@VioHashString@@@std@@@std@@IBEXPAVioHashString@@0@Z ; std::vector<ioHashString,std::allocator<ioHashString> >::_Orphan_range
; Function compile flags: /Ogsp
;	COMDAT ?_Orphan_range@?$vector@VioHashString@@V?$allocator@VioHashString@@@std@@@std@@IBEXPAVioHashString@@0@Z
_TEXT	SEGMENT
___formal$ = 8						; size = 4
___formal$ = 12						; size = 4
?_Orphan_range@?$vector@VioHashString@@V?$allocator@VioHashString@@@std@@@std@@IBEXPAVioHashString@@0@Z PROC ; std::vector<ioHashString,std::allocator<ioHashString> >::_Orphan_range, COMDAT
; _this$ = ecx

; 1454 : 		}

  00000	c2 08 00	 ret	 8
?_Orphan_range@?$vector@VioHashString@@V?$allocator@VioHashString@@@std@@@std@@IBEXPAVioHashString@@0@Z ENDP ; std::vector<ioHashString,std::allocator<ioHashString> >::_Orphan_range
_TEXT	ENDS
PUBLIC	??D?$_Vector_const_iterator@V?$_Vector_val@KV?$allocator@K@std@@@std@@@std@@QBEABKXZ ; std::_Vector_const_iterator<std::_Vector_val<unsigned long,std::allocator<unsigned long> > >::operator*
; Function compile flags: /Ogsp
;	COMDAT ??D?$_Vector_const_iterator@V?$_Vector_val@KV?$allocator@K@std@@@std@@@std@@QBEABKXZ
_TEXT	SEGMENT
??D?$_Vector_const_iterator@V?$_Vector_val@KV?$allocator@K@std@@@std@@@std@@QBEABKXZ PROC ; std::_Vector_const_iterator<std::_Vector_val<unsigned long,std::allocator<unsigned long> > >::operator*, COMDAT
; _this$ = ecx

; 64   :  #if _ITERATOR_DEBUG_LEVEL == 2
; 65   : 		if (this->_Getcont() == 0
; 66   : 			|| this->_Ptr == 0
; 67   : 			|| this->_Ptr < ((_Myvec *)this->_Getcont())->_Myfirst
; 68   : 			|| ((_Myvec *)this->_Getcont())->_Mylast <= this->_Ptr)
; 69   : 			{	// report error
; 70   : 			_DEBUG_ERROR("vector iterator not dereferencable");
; 71   : 			_SCL_SECURE_OUT_OF_RANGE;
; 72   : 			}
; 73   : 
; 74   :  #elif _ITERATOR_DEBUG_LEVEL == 1
; 75   : 		_SCL_SECURE_VALIDATE(this->_Getcont() != 0);
; 76   : 		_SCL_SECURE_VALIDATE_RANGE(
; 77   : 			this->_Ptr != 0
; 78   : 			&& ((_Myvec *)this->_Getcont())->_Myfirst <= this->_Ptr
; 79   : 			&& this->_Ptr < ((_Myvec *)this->_Getcont())->_Mylast);
; 80   :  #endif /* _ITERATOR_DEBUG_LEVEL */
; 81   : 
; 82   : 		__analysis_assume(this->_Ptr != 0);
; 83   : 
; 84   : 		return (*this->_Ptr);

  00000	8b 01		 mov	 eax, DWORD PTR [ecx]

; 85   : 		}

  00002	c3		 ret	 0
??D?$_Vector_const_iterator@V?$_Vector_val@KV?$allocator@K@std@@@std@@@std@@QBEABKXZ ENDP ; std::_Vector_const_iterator<std::_Vector_val<unsigned long,std::allocator<unsigned long> > >::operator*
_TEXT	ENDS
PUBLIC	??E?$_Vector_const_iterator@V?$_Vector_val@KV?$allocator@K@std@@@std@@@std@@QAEAAV01@XZ ; std::_Vector_const_iterator<std::_Vector_val<unsigned long,std::allocator<unsigned long> > >::operator++
; Function compile flags: /Ogsp
;	COMDAT ??E?$_Vector_const_iterator@V?$_Vector_val@KV?$allocator@K@std@@@std@@@std@@QAEAAV01@XZ
_TEXT	SEGMENT
??E?$_Vector_const_iterator@V?$_Vector_val@KV?$allocator@K@std@@@std@@@std@@QAEAAV01@XZ PROC ; std::_Vector_const_iterator<std::_Vector_val<unsigned long,std::allocator<unsigned long> > >::operator++, COMDAT
; _this$ = ecx

; 93   : 		{	// preincrement

  00000	8b c1		 mov	 eax, ecx

; 94   :  #if _ITERATOR_DEBUG_LEVEL == 2
; 95   : 		if (this->_Getcont() == 0
; 96   : 			|| this->_Ptr == 0
; 97   : 			|| ((_Myvec *)this->_Getcont())->_Mylast <= this->_Ptr)
; 98   : 			{	// report error
; 99   : 			_DEBUG_ERROR("vector iterator not incrementable");
; 100  : 			_SCL_SECURE_OUT_OF_RANGE;
; 101  : 			}
; 102  : 
; 103  :  #elif _ITERATOR_DEBUG_LEVEL == 1
; 104  : 		_SCL_SECURE_VALIDATE(this->_Getcont() != 0);
; 105  : 		_SCL_SECURE_VALIDATE_RANGE(
; 106  : 			this->_Ptr != 0
; 107  : 			&& this->_Ptr < ((_Myvec *)this->_Getcont())->_Mylast);
; 108  :  #endif /* _ITERATOR_DEBUG_LEVEL */
; 109  : 
; 110  : 		++this->_Ptr;

  00002	83 00 04	 add	 DWORD PTR [eax], 4

; 111  : 		return (*this);
; 112  : 		}

  00005	c3		 ret	 0
??E?$_Vector_const_iterator@V?$_Vector_val@KV?$allocator@K@std@@@std@@@std@@QAEAAV01@XZ ENDP ; std::_Vector_const_iterator<std::_Vector_val<unsigned long,std::allocator<unsigned long> > >::operator++
_TEXT	ENDS
PUBLIC	??D?$_Vector_const_iterator@V?$_Vector_val@UWeaponInfo@@V?$allocator@UWeaponInfo@@@std@@@std@@@std@@QBEABUWeaponInfo@@XZ ; std::_Vector_const_iterator<std::_Vector_val<WeaponInfo,std::allocator<WeaponInfo> > >::operator*
; Function compile flags: /Ogsp
;	COMDAT ??D?$_Vector_const_iterator@V?$_Vector_val@UWeaponInfo@@V?$allocator@UWeaponInfo@@@std@@@std@@@std@@QBEABUWeaponInfo@@XZ
_TEXT	SEGMENT
??D?$_Vector_const_iterator@V?$_Vector_val@UWeaponInfo@@V?$allocator@UWeaponInfo@@@std@@@std@@@std@@QBEABUWeaponInfo@@XZ PROC ; std::_Vector_const_iterator<std::_Vector_val<WeaponInfo,std::allocator<WeaponInfo> > >::operator*, COMDAT
; _this$ = ecx

; 64   :  #if _ITERATOR_DEBUG_LEVEL == 2
; 65   : 		if (this->_Getcont() == 0
; 66   : 			|| this->_Ptr == 0
; 67   : 			|| this->_Ptr < ((_Myvec *)this->_Getcont())->_Myfirst
; 68   : 			|| ((_Myvec *)this->_Getcont())->_Mylast <= this->_Ptr)
; 69   : 			{	// report error
; 70   : 			_DEBUG_ERROR("vector iterator not dereferencable");
; 71   : 			_SCL_SECURE_OUT_OF_RANGE;
; 72   : 			}
; 73   : 
; 74   :  #elif _ITERATOR_DEBUG_LEVEL == 1
; 75   : 		_SCL_SECURE_VALIDATE(this->_Getcont() != 0);
; 76   : 		_SCL_SECURE_VALIDATE_RANGE(
; 77   : 			this->_Ptr != 0
; 78   : 			&& ((_Myvec *)this->_Getcont())->_Myfirst <= this->_Ptr
; 79   : 			&& this->_Ptr < ((_Myvec *)this->_Getcont())->_Mylast);
; 80   :  #endif /* _ITERATOR_DEBUG_LEVEL */
; 81   : 
; 82   : 		__analysis_assume(this->_Ptr != 0);
; 83   : 
; 84   : 		return (*this->_Ptr);

  00000	8b 01		 mov	 eax, DWORD PTR [ecx]

; 85   : 		}

  00002	c3		 ret	 0
??D?$_Vector_const_iterator@V?$_Vector_val@UWeaponInfo@@V?$allocator@UWeaponInfo@@@std@@@std@@@std@@QBEABUWeaponInfo@@XZ ENDP ; std::_Vector_const_iterator<std::_Vector_val<WeaponInfo,std::allocator<WeaponInfo> > >::operator*
_TEXT	ENDS
PUBLIC	??E?$_Vector_const_iterator@V?$_Vector_val@UWeaponInfo@@V?$allocator@UWeaponInfo@@@std@@@std@@@std@@QAEAAV01@XZ ; std::_Vector_const_iterator<std::_Vector_val<WeaponInfo,std::allocator<WeaponInfo> > >::operator++
; Function compile flags: /Ogsp
;	COMDAT ??E?$_Vector_const_iterator@V?$_Vector_val@UWeaponInfo@@V?$allocator@UWeaponInfo@@@std@@@std@@@std@@QAEAAV01@XZ
_TEXT	SEGMENT
??E?$_Vector_const_iterator@V?$_Vector_val@UWeaponInfo@@V?$allocator@UWeaponInfo@@@std@@@std@@@std@@QAEAAV01@XZ PROC ; std::_Vector_const_iterator<std::_Vector_val<WeaponInfo,std::allocator<WeaponInfo> > >::operator++, COMDAT
; _this$ = ecx

; 93   : 		{	// preincrement

  00000	8b c1		 mov	 eax, ecx

; 94   :  #if _ITERATOR_DEBUG_LEVEL == 2
; 95   : 		if (this->_Getcont() == 0
; 96   : 			|| this->_Ptr == 0
; 97   : 			|| ((_Myvec *)this->_Getcont())->_Mylast <= this->_Ptr)
; 98   : 			{	// report error
; 99   : 			_DEBUG_ERROR("vector iterator not incrementable");
; 100  : 			_SCL_SECURE_OUT_OF_RANGE;
; 101  : 			}
; 102  : 
; 103  :  #elif _ITERATOR_DEBUG_LEVEL == 1
; 104  : 		_SCL_SECURE_VALIDATE(this->_Getcont() != 0);
; 105  : 		_SCL_SECURE_VALIDATE_RANGE(
; 106  : 			this->_Ptr != 0
; 107  : 			&& this->_Ptr < ((_Myvec *)this->_Getcont())->_Mylast);
; 108  :  #endif /* _ITERATOR_DEBUG_LEVEL */
; 109  : 
; 110  : 		++this->_Ptr;

  00002	83 00 28	 add	 DWORD PTR [eax], 40	; 00000028H

; 111  : 		return (*this);
; 112  : 		}

  00005	c3		 ret	 0
??E?$_Vector_const_iterator@V?$_Vector_val@UWeaponInfo@@V?$allocator@UWeaponInfo@@@std@@@std@@@std@@QAEAAV01@XZ ENDP ; std::_Vector_const_iterator<std::_Vector_val<WeaponInfo,std::allocator<WeaponInfo> > >::operator++
_TEXT	ENDS
PUBLIC	??0D3DXVECTOR3@@QAE@XZ				; D3DXVECTOR3::D3DXVECTOR3
; Function compile flags: /Ogsp
; File c:\program files (x86)\microsoft directx sdk (june 2010)\include\d3dx9math.h
;	COMDAT ??0D3DXVECTOR3@@QAE@XZ
_TEXT	SEGMENT
??0D3DXVECTOR3@@QAE@XZ PROC				; D3DXVECTOR3::D3DXVECTOR3, COMDAT
; _this$ = ecx

; 165  :     D3DXVECTOR3() {};

  00000	8b c1		 mov	 eax, ecx
  00002	c3		 ret	 0
??0D3DXVECTOR3@@QAE@XZ ENDP				; D3DXVECTOR3::D3DXVECTOR3
_TEXT	ENDS
PUBLIC	??0D3DXQUATERNION@@QAE@XZ			; D3DXQUATERNION::D3DXQUATERNION
; Function compile flags: /Ogsp
;	COMDAT ??0D3DXQUATERNION@@QAE@XZ
_TEXT	SEGMENT
??0D3DXQUATERNION@@QAE@XZ PROC				; D3DXQUATERNION::D3DXQUATERNION, COMDAT
; _this$ = ecx

; 429  :     D3DXQUATERNION() {}

  00000	8b c1		 mov	 eax, ecx
  00002	c3		 ret	 0
??0D3DXQUATERNION@@QAE@XZ ENDP				; D3DXQUATERNION::D3DXQUATERNION
_TEXT	ENDS
PUBLIC	??0D3DXVECTOR3@@QAE@MMM@Z			; D3DXVECTOR3::D3DXVECTOR3
; Function compile flags: /Ogsp
; File c:\program files (x86)\microsoft directx sdk (june 2010)\include\d3dx9math.inl
;	COMDAT ??0D3DXVECTOR3@@QAE@MMM@Z
_TEXT	SEGMENT
_fx$ = 8						; size = 4
_fy$ = 12						; size = 4
_fz$ = 16						; size = 4
??0D3DXVECTOR3@@QAE@MMM@Z PROC				; D3DXVECTOR3::D3DXVECTOR3, COMDAT
; _this$ = ecx

; 303  : {

  00000	55		 push	 ebp
  00001	8b ec		 mov	 ebp, esp

; 304  :     x = fx;

  00003	f3 0f 10 45 08	 movss	 xmm0, DWORD PTR _fx$[ebp]
  00008	8b c1		 mov	 eax, ecx
  0000a	f3 0f 11 00	 movss	 DWORD PTR [eax], xmm0

; 305  :     y = fy;

  0000e	f3 0f 10 45 0c	 movss	 xmm0, DWORD PTR _fy$[ebp]
  00013	f3 0f 11 40 04	 movss	 DWORD PTR [eax+4], xmm0

; 306  :     z = fz;

  00018	f3 0f 10 45 10	 movss	 xmm0, DWORD PTR _fz$[ebp]
  0001d	f3 0f 11 40 08	 movss	 DWORD PTR [eax+8], xmm0

; 307  : }

  00022	5d		 pop	 ebp
  00023	c2 0c 00	 ret	 12			; 0000000cH
??0D3DXVECTOR3@@QAE@MMM@Z ENDP				; D3DXVECTOR3::D3DXVECTOR3
_TEXT	ENDS
PUBLIC	??YD3DXVECTOR3@@QAEAAU0@ABU0@@Z			; D3DXVECTOR3::operator+=
; Function compile flags: /Ogsp
;	COMDAT ??YD3DXVECTOR3@@QAEAAU0@ABU0@@Z
_TEXT	SEGMENT
_v$ = 8							; size = 4
??YD3DXVECTOR3@@QAEAAU0@ABU0@@Z PROC			; D3DXVECTOR3::operator+=, COMDAT
; _this$ = ecx

; 327  : {

  00000	55		 push	 ebp
  00001	8b ec		 mov	 ebp, esp
  00003	8b c1		 mov	 eax, ecx

; 328  :     x += v.x;

  00005	8b 4d 08	 mov	 ecx, DWORD PTR _v$[ebp]
  00008	f3 0f 10 01	 movss	 xmm0, DWORD PTR [ecx]
  0000c	f3 0f 10 08	 movss	 xmm1, DWORD PTR [eax]
  00010	0f 5a c0	 cvtps2pd xmm0, xmm0
  00013	0f 5a c9	 cvtps2pd xmm1, xmm1
  00016	f2 0f 58 c1	 addsd	 xmm0, xmm1

; 329  :     y += v.y;

  0001a	f3 0f 10 48 04	 movss	 xmm1, DWORD PTR [eax+4]
  0001f	66 0f 5a c0	 cvtpd2ps xmm0, xmm0
  00023	f3 0f 11 00	 movss	 DWORD PTR [eax], xmm0
  00027	f3 0f 10 41 04	 movss	 xmm0, DWORD PTR [ecx+4]
  0002c	0f 5a c0	 cvtps2pd xmm0, xmm0
  0002f	0f 5a c9	 cvtps2pd xmm1, xmm1
  00032	f2 0f 58 c1	 addsd	 xmm0, xmm1

; 330  :     z += v.z;

  00036	f3 0f 10 48 08	 movss	 xmm1, DWORD PTR [eax+8]
  0003b	66 0f 5a c0	 cvtpd2ps xmm0, xmm0
  0003f	f3 0f 11 40 04	 movss	 DWORD PTR [eax+4], xmm0
  00044	f3 0f 10 41 08	 movss	 xmm0, DWORD PTR [ecx+8]
  00049	0f 5a c0	 cvtps2pd xmm0, xmm0
  0004c	0f 5a c9	 cvtps2pd xmm1, xmm1
  0004f	f2 0f 58 c1	 addsd	 xmm0, xmm1
  00053	66 0f 5a c0	 cvtpd2ps xmm0, xmm0
  00057	f3 0f 11 40 08	 movss	 DWORD PTR [eax+8], xmm0

; 331  :     return *this;
; 332  : }

  0005c	5d		 pop	 ebp
  0005d	c2 04 00	 ret	 4
??YD3DXVECTOR3@@QAEAAU0@ABU0@@Z ENDP			; D3DXVECTOR3::operator+=
_TEXT	ENDS
PUBLIC	__mask@@NegFloat@
PUBLIC	??GD3DXVECTOR3@@QBE?AU0@XZ			; D3DXVECTOR3::operator-
;	COMDAT __mask@@NegFloat@
CONST	SEGMENT
__mask@@NegFloat@ DB 00H, 00H, 00H, 080H, 00H, 00H, 00H, 080H, 00H, 00H, 00H
	DB	080H, 00H, 00H, 00H, 080H
; Function compile flags: /Ogsp
CONST	ENDS
;	COMDAT ??GD3DXVECTOR3@@QBE?AU0@XZ
_TEXT	SEGMENT
___$ReturnUdt$ = 8					; size = 4
??GD3DXVECTOR3@@QBE?AU0@XZ PROC				; D3DXVECTOR3::operator-, COMDAT
; _this$ = ecx

; 372  : {

  00000	55		 push	 ebp
  00001	8b ec		 mov	 ebp, esp

; 373  :     return D3DXVECTOR3(-x, -y, -z);

  00003	f3 0f 10 05 00
	00 00 00	 movss	 xmm0, DWORD PTR __mask@@NegFloat@
  0000b	8b 45 08	 mov	 eax, DWORD PTR ___$ReturnUdt$[ebp]
  0000e	f3 0f 10 09	 movss	 xmm1, DWORD PTR [ecx]
  00012	0f 57 c8	 xorps	 xmm1, xmm0
  00015	f3 0f 11 08	 movss	 DWORD PTR [eax], xmm1
  00019	f3 0f 10 49 04	 movss	 xmm1, DWORD PTR [ecx+4]
  0001e	0f 57 c8	 xorps	 xmm1, xmm0
  00021	f3 0f 11 48 04	 movss	 DWORD PTR [eax+4], xmm1
  00026	f3 0f 10 49 08	 movss	 xmm1, DWORD PTR [ecx+8]
  0002b	0f 57 c8	 xorps	 xmm1, xmm0
  0002e	f3 0f 11 48 08	 movss	 DWORD PTR [eax+8], xmm1

; 374  : }

  00033	5d		 pop	 ebp
  00034	c2 04 00	 ret	 4
??GD3DXVECTOR3@@QBE?AU0@XZ ENDP				; D3DXVECTOR3::operator-
_TEXT	ENDS
PUBLIC	??GD3DXVECTOR3@@QBE?AU0@ABU0@@Z			; D3DXVECTOR3::operator-
; Function compile flags: /Ogsp
;	COMDAT ??GD3DXVECTOR3@@QBE?AU0@ABU0@@Z
_TEXT	SEGMENT
___$ReturnUdt$ = 8					; size = 4
_v$ = 12						; size = 4
??GD3DXVECTOR3@@QBE?AU0@ABU0@@Z PROC			; D3DXVECTOR3::operator-, COMDAT
; _this$ = ecx

; 386  : {

  00000	55		 push	 ebp
  00001	8b ec		 mov	 ebp, esp

; 387  :     return D3DXVECTOR3(x - v.x, y - v.y, z - v.z);

  00003	8b 55 0c	 mov	 edx, DWORD PTR _v$[ebp]
  00006	f3 0f 10 01	 movss	 xmm0, DWORD PTR [ecx]
  0000a	f3 0f 10 0a	 movss	 xmm1, DWORD PTR [edx]
  0000e	8b 45 08	 mov	 eax, DWORD PTR ___$ReturnUdt$[ebp]
  00011	0f 5a c0	 cvtps2pd xmm0, xmm0
  00014	0f 5a c9	 cvtps2pd xmm1, xmm1
  00017	f2 0f 5c c1	 subsd	 xmm0, xmm1
  0001b	f3 0f 10 4a 04	 movss	 xmm1, DWORD PTR [edx+4]
  00020	66 0f 5a c0	 cvtpd2ps xmm0, xmm0
  00024	f3 0f 11 00	 movss	 DWORD PTR [eax], xmm0
  00028	f3 0f 10 41 04	 movss	 xmm0, DWORD PTR [ecx+4]
  0002d	0f 5a c0	 cvtps2pd xmm0, xmm0
  00030	0f 5a c9	 cvtps2pd xmm1, xmm1
  00033	f2 0f 5c c1	 subsd	 xmm0, xmm1
  00037	f3 0f 10 4a 08	 movss	 xmm1, DWORD PTR [edx+8]
  0003c	66 0f 5a c0	 cvtpd2ps xmm0, xmm0
  00040	f3 0f 11 40 04	 movss	 DWORD PTR [eax+4], xmm0
  00045	f3 0f 10 41 08	 movss	 xmm0, DWORD PTR [ecx+8]
  0004a	0f 5a c0	 cvtps2pd xmm0, xmm0
  0004d	0f 5a c9	 cvtps2pd xmm1, xmm1
  00050	f2 0f 5c c1	 subsd	 xmm0, xmm1
  00054	66 0f 5a c0	 cvtpd2ps xmm0, xmm0
  00058	f3 0f 11 40 08	 movss	 DWORD PTR [eax+8], xmm0

; 388  : }

  0005d	5d		 pop	 ebp
  0005e	c2 08 00	 ret	 8
??GD3DXVECTOR3@@QBE?AU0@ABU0@@Z ENDP			; D3DXVECTOR3::operator-
_TEXT	ENDS
PUBLIC	??DD3DXVECTOR3@@QBE?AU0@M@Z			; D3DXVECTOR3::operator*
; Function compile flags: /Ogsp
;	COMDAT ??DD3DXVECTOR3@@QBE?AU0@M@Z
_TEXT	SEGMENT
___$ReturnUdt$ = 8					; size = 4
_f$ = 12						; size = 4
??DD3DXVECTOR3@@QBE?AU0@M@Z PROC			; D3DXVECTOR3::operator*, COMDAT
; _this$ = ecx

; 392  : {

  00000	55		 push	 ebp
  00001	8b ec		 mov	 ebp, esp

; 393  :     return D3DXVECTOR3(x * f, y * f, z * f);

  00003	f3 0f 10 4d 0c	 movss	 xmm1, DWORD PTR _f$[ebp]
  00008	f3 0f 10 01	 movss	 xmm0, DWORD PTR [ecx]
  0000c	8b 45 08	 mov	 eax, DWORD PTR ___$ReturnUdt$[ebp]
  0000f	0f 5a c0	 cvtps2pd xmm0, xmm0
  00012	0f 5a c9	 cvtps2pd xmm1, xmm1
  00015	f2 0f 59 c1	 mulsd	 xmm0, xmm1
  00019	f3 0f 10 4d 0c	 movss	 xmm1, DWORD PTR _f$[ebp]
  0001e	66 0f 5a c0	 cvtpd2ps xmm0, xmm0
  00022	f3 0f 11 00	 movss	 DWORD PTR [eax], xmm0
  00026	f3 0f 10 41 04	 movss	 xmm0, DWORD PTR [ecx+4]
  0002b	0f 5a c0	 cvtps2pd xmm0, xmm0
  0002e	0f 5a c9	 cvtps2pd xmm1, xmm1
  00031	f2 0f 59 c1	 mulsd	 xmm0, xmm1
  00035	f3 0f 10 4d 0c	 movss	 xmm1, DWORD PTR _f$[ebp]
  0003a	66 0f 5a c0	 cvtpd2ps xmm0, xmm0
  0003e	f3 0f 11 40 04	 movss	 DWORD PTR [eax+4], xmm0
  00043	f3 0f 10 41 08	 movss	 xmm0, DWORD PTR [ecx+8]
  00048	0f 5a c0	 cvtps2pd xmm0, xmm0
  0004b	0f 5a c9	 cvtps2pd xmm1, xmm1
  0004e	f2 0f 59 c1	 mulsd	 xmm0, xmm1
  00052	66 0f 5a c0	 cvtpd2ps xmm0, xmm0
  00056	f3 0f 11 40 08	 movss	 DWORD PTR [eax+8], xmm0

; 394  : }

  0005b	5d		 pop	 ebp
  0005c	c2 08 00	 ret	 8
??DD3DXVECTOR3@@QBE?AU0@M@Z ENDP			; D3DXVECTOR3::operator*
_TEXT	ENDS
PUBLIC	__real@3f91df46a2526c7a
PUBLIC	??$DEGtoRAD@M@@YAMM@Z				; DEGtoRAD<float>
;	COMDAT __real@3f91df46a2526c7a
; File d:\lost saga for developer\youtube\tutorial\source\src\lsclient\veryoftenusedefine.h
CONST	SEGMENT
__real@3f91df46a2526c7a DQ 03f91df46a2526c7ar	; 0.0174533
; Function compile flags: /Ogsp
CONST	ENDS
;	COMDAT ??$DEGtoRAD@M@@YAMM@Z
_TEXT	SEGMENT
tv129 = 8						; size = 4
_val$ = 8						; size = 4
??$DEGtoRAD@M@@YAMM@Z PROC				; DEGtoRAD<float>, COMDAT

; 20   : type  DEGtoRAD (type val) {return (type) (val * 0.0174532925199);}

  00000	55		 push	 ebp
  00001	8b ec		 mov	 ebp, esp
  00003	d9 45 08	 fld	 DWORD PTR _val$[ebp]
  00006	dc 0d 00 00 00
	00		 fmul	 QWORD PTR __real@3f91df46a2526c7a
  0000c	d9 5d 08	 fstp	 DWORD PTR tv129[ebp]
  0000f	d9 45 08	 fld	 DWORD PTR tv129[ebp]
  00012	5d		 pop	 ebp
  00013	c3		 ret	 0
??$DEGtoRAD@M@@YAMM@Z ENDP				; DEGtoRAD<float>
_TEXT	ENDS
PUBLIC	??$addressof@$$CBVioHashString@@@std@@YAPBVioHashString@@ABV1@@Z ; std::addressof<ioHashString const >
; Function compile flags: /Ogsp
; File c:\program files (x86)\microsoft visual studio 10.0\vc\include\xmemory
;	COMDAT ??$addressof@$$CBVioHashString@@@std@@YAPBVioHashString@@ABV1@@Z
_TEXT	SEGMENT
__Val$ = 8						; size = 4
??$addressof@$$CBVioHashString@@@std@@YAPBVioHashString@@ABV1@@Z PROC ; std::addressof<ioHashString const >, COMDAT

; 110  : 	{	// return address of _Val

  00000	55		 push	 ebp
  00001	8b ec		 mov	 ebp, esp

; 111  : 	return ((_Ty *) &(char&)_Val);

  00003	8b 45 08	 mov	 eax, DWORD PTR __Val$[ebp]

; 112  : 	}

  00006	5d		 pop	 ebp
  00007	c3		 ret	 0
??$addressof@$$CBVioHashString@@@std@@YAPBVioHashString@@ABV1@@Z ENDP ; std::addressof<ioHashString const >
_TEXT	ENDS
PUBLIC	??$addressof@K@std@@YAPAKAAK@Z			; std::addressof<unsigned long>
; Function compile flags: /Ogsp
;	COMDAT ??$addressof@K@std@@YAPAKAAK@Z
_TEXT	SEGMENT
__Val$ = 8						; size = 4
??$addressof@K@std@@YAPAKAAK@Z PROC			; std::addressof<unsigned long>, COMDAT

; 110  : 	{	// return address of _Val

  00000	55		 push	 ebp
  00001	8b ec		 mov	 ebp, esp

; 111  : 	return ((_Ty *) &(char&)_Val);

  00003	8b 45 08	 mov	 eax, DWORD PTR __Val$[ebp]

; 112  : 	}

  00006	5d		 pop	 ebp
  00007	c3		 ret	 0
??$addressof@K@std@@YAPAKAAK@Z ENDP			; std::addressof<unsigned long>
_TEXT	ENDS
PUBLIC	??$forward@K@std@@YA$$QAKAAK@Z			; std::forward<unsigned long>
; Function compile flags: /Ogsp
; File c:\program files (x86)\microsoft visual studio 10.0\vc\include\utility
;	COMDAT ??$forward@K@std@@YA$$QAKAAK@Z
_TEXT	SEGMENT
__Arg$ = 8						; size = 4
??$forward@K@std@@YA$$QAKAAK@Z PROC			; std::forward<unsigned long>, COMDAT

; 78   : 	{	// forward _Arg, given explicitly specified type parameter

  00000	55		 push	 ebp
  00001	8b ec		 mov	 ebp, esp

; 79   : 	return ((_Ty&&)_Arg);

  00003	8b 45 08	 mov	 eax, DWORD PTR __Arg$[ebp]

; 80   : 	}

  00006	5d		 pop	 ebp
  00007	c3		 ret	 0
??$forward@K@std@@YA$$QAKAAK@Z ENDP			; std::forward<unsigned long>
_TEXT	ENDS
PUBLIC	?construct@?$allocator@K@std@@QAEXPAK$$QAK@Z	; std::allocator<unsigned long>::construct
; Function compile flags: /Ogsp
; File c:\program files (x86)\microsoft visual studio 10.0\vc\include\xmemory
;	COMDAT ?construct@?$allocator@K@std@@QAEXPAK$$QAK@Z
_TEXT	SEGMENT
__Ptr$ = 8						; size = 4
__Val$ = 12						; size = 4
?construct@?$allocator@K@std@@QAEXPAK$$QAK@Z PROC	; std::allocator<unsigned long>::construct, COMDAT
; _this$ = ecx

; 201  : 		{	// construct object at _Ptr with value _Val

  00000	55		 push	 ebp
  00001	8b ec		 mov	 ebp, esp

; 202  : 		::new ((void _FARQ *)_Ptr) _Ty(_STD forward<_Ty>(_Val));

  00003	8b 45 08	 mov	 eax, DWORD PTR __Ptr$[ebp]
  00006	85 c0		 test	 eax, eax
  00008	74 07		 je	 SHORT $LN3@construct
  0000a	8b 4d 0c	 mov	 ecx, DWORD PTR __Val$[ebp]
  0000d	8b 09		 mov	 ecx, DWORD PTR [ecx]
  0000f	89 08		 mov	 DWORD PTR [eax], ecx
$LN3@construct:

; 203  : 		}

  00011	5d		 pop	 ebp
  00012	c2 08 00	 ret	 8
?construct@?$allocator@K@std@@QAEXPAK$$QAK@Z ENDP	; std::allocator<unsigned long>::construct
_TEXT	ENDS
PUBLIC	??$_Copy_impl@PAVioHashString@@PAV1@@std@@YAPAVioHashString@@PAV1@00U_Nonscalar_ptr_iterator_tag@0@@Z ; std::_Copy_impl<ioHashString *,ioHashString *>
; Function compile flags: /Ogsp
; File c:\program files (x86)\microsoft visual studio 10.0\vc\include\xutility
;	COMDAT ??$_Copy_impl@PAVioHashString@@PAV1@@std@@YAPAVioHashString@@PAV1@00U_Nonscalar_ptr_iterator_tag@0@@Z
_TEXT	SEGMENT
__First$ = 8						; size = 4
__Last$ = 12						; size = 4
__Dest$ = 16						; size = 4
___formal$ = 20						; size = 1
??$_Copy_impl@PAVioHashString@@PAV1@@std@@YAPAVioHashString@@PAV1@00U_Nonscalar_ptr_iterator_tag@0@@Z PROC ; std::_Copy_impl<ioHashString *,ioHashString *>, COMDAT

; 2142 : 	{	// copy [_First, _Last) to [_Dest, ...), arbitrary iterators

  00000	55		 push	 ebp
  00001	8b ec		 mov	 ebp, esp
  00003	56		 push	 esi

; 2143 : 	for (; _First != _Last; ++_Dest, ++_First)

  00004	8b 75 08	 mov	 esi, DWORD PTR __First$[ebp]
  00007	eb 11		 jmp	 SHORT $LN9@Copy_impl
$LL3@Copy_impl:

; 2144 : 		*_Dest = *_First;

  00009	8b 4d 10	 mov	 ecx, DWORD PTR __Dest$[ebp]
  0000c	56		 push	 esi
  0000d	ff 15 00 00 00
	00		 call	 DWORD PTR __imp_??4ioHashString@@QAEAAV0@ABV0@@Z
  00013	83 45 10 10	 add	 DWORD PTR __Dest$[ebp], 16 ; 00000010H
  00017	83 c6 10	 add	 esi, 16			; 00000010H
$LN9@Copy_impl:

; 2143 : 	for (; _First != _Last; ++_Dest, ++_First)

  0001a	3b 75 0c	 cmp	 esi, DWORD PTR __Last$[ebp]
  0001d	75 ea		 jne	 SHORT $LL3@Copy_impl

; 2145 : 	return (_Dest);

  0001f	8b 45 10	 mov	 eax, DWORD PTR __Dest$[ebp]
  00022	5e		 pop	 esi

; 2146 : 	}

  00023	5d		 pop	 ebp
  00024	c3		 ret	 0
??$_Copy_impl@PAVioHashString@@PAV1@@std@@YAPAVioHashString@@PAV1@00U_Nonscalar_ptr_iterator_tag@0@@Z ENDP ; std::_Copy_impl<ioHashString *,ioHashString *>
_TEXT	ENDS
PUBLIC	??$_Ptr_cat@V?$_Vector_const_iterator@V?$_Vector_val@UWeaponInfo@@V?$allocator@UWeaponInfo@@@std@@@std@@@std@@PAUWeaponInfo@@@std@@YA?AU_Nonscalar_ptr_iterator_tag@0@AAV?$_Vector_const_iterator@V?$_Vector_val@UWeaponInfo@@V?$allocator@UWeaponInfo@@@std@@@std@@@0@AAPAUWeaponInfo@@@Z ; std::_Ptr_cat<std::_Vector_const_iterator<std::_Vector_val<WeaponInfo,std::allocator<WeaponInfo> > >,WeaponInfo *>
; Function compile flags: /Ogsp
;	COMDAT ??$_Ptr_cat@V?$_Vector_const_iterator@V?$_Vector_val@UWeaponInfo@@V?$allocator@UWeaponInfo@@@std@@@std@@@std@@PAUWeaponInfo@@@std@@YA?AU_Nonscalar_ptr_iterator_tag@0@AAV?$_Vector_const_iterator@V?$_Vector_val@UWeaponInfo@@V?$allocator@UWeaponInfo@@@std@@@std@@@0@AAPAUWeaponInfo@@@Z
_TEXT	SEGMENT
__Cat$ = -1						; size = 1
___formal$ = 8						; size = 4
___formal$ = 12						; size = 4
??$_Ptr_cat@V?$_Vector_const_iterator@V?$_Vector_val@UWeaponInfo@@V?$allocator@UWeaponInfo@@@std@@@std@@@std@@PAUWeaponInfo@@@std@@YA?AU_Nonscalar_ptr_iterator_tag@0@AAV?$_Vector_const_iterator@V?$_Vector_val@UWeaponInfo@@V?$allocator@UWeaponInfo@@@std@@@std@@@0@AAPAUWeaponInfo@@@Z PROC ; std::_Ptr_cat<std::_Vector_const_iterator<std::_Vector_val<WeaponInfo,std::allocator<WeaponInfo> > >,WeaponInfo *>, COMDAT

; 485  : 	{	// return pointer category from arbitrary arguments

  00000	55		 push	 ebp
  00001	8b ec		 mov	 ebp, esp
  00003	51		 push	 ecx

; 486  : 	_Nonscalar_ptr_iterator_tag _Cat;
; 487  : 	return (_Cat);

  00004	8a 45 ff	 mov	 al, BYTE PTR __Cat$[ebp]

; 488  : 	}

  00007	c9		 leave
  00008	c3		 ret	 0
??$_Ptr_cat@V?$_Vector_const_iterator@V?$_Vector_val@UWeaponInfo@@V?$allocator@UWeaponInfo@@@std@@@std@@@std@@PAUWeaponInfo@@@std@@YA?AU_Nonscalar_ptr_iterator_tag@0@AAV?$_Vector_const_iterator@V?$_Vector_val@UWeaponInfo@@V?$allocator@UWeaponInfo@@@std@@@std@@@0@AAPAUWeaponInfo@@@Z ENDP ; std::_Ptr_cat<std::_Vector_const_iterator<std::_Vector_val<WeaponInfo,std::allocator<WeaponInfo> > >,WeaponInfo *>
_TEXT	ENDS
PUBLIC	??$_Ptr_cat@V?$_Vector_const_iterator@V?$_Vector_val@UForceInfo@@V?$allocator@UForceInfo@@@std@@@std@@@std@@PAUForceInfo@@@std@@YA?AU_Nonscalar_ptr_iterator_tag@0@AAV?$_Vector_const_iterator@V?$_Vector_val@UForceInfo@@V?$allocator@UForceInfo@@@std@@@std@@@0@AAPAUForceInfo@@@Z ; std::_Ptr_cat<std::_Vector_const_iterator<std::_Vector_val<ForceInfo,std::allocator<ForceInfo> > >,ForceInfo *>
; Function compile flags: /Ogsp
;	COMDAT ??$_Ptr_cat@V?$_Vector_const_iterator@V?$_Vector_val@UForceInfo@@V?$allocator@UForceInfo@@@std@@@std@@@std@@PAUForceInfo@@@std@@YA?AU_Nonscalar_ptr_iterator_tag@0@AAV?$_Vector_const_iterator@V?$_Vector_val@UForceInfo@@V?$allocator@UForceInfo@@@std@@@std@@@0@AAPAUForceInfo@@@Z
_TEXT	SEGMENT
__Cat$ = -1						; size = 1
___formal$ = 8						; size = 4
___formal$ = 12						; size = 4
??$_Ptr_cat@V?$_Vector_const_iterator@V?$_Vector_val@UForceInfo@@V?$allocator@UForceInfo@@@std@@@std@@@std@@PAUForceInfo@@@std@@YA?AU_Nonscalar_ptr_iterator_tag@0@AAV?$_Vector_const_iterator@V?$_Vector_val@UForceInfo@@V?$allocator@UForceInfo@@@std@@@std@@@0@AAPAUForceInfo@@@Z PROC ; std::_Ptr_cat<std::_Vector_const_iterator<std::_Vector_val<ForceInfo,std::allocator<ForceInfo> > >,ForceInfo *>, COMDAT

; 485  : 	{	// return pointer category from arbitrary arguments

  00000	55		 push	 ebp
  00001	8b ec		 mov	 ebp, esp
  00003	51		 push	 ecx

; 486  : 	_Nonscalar_ptr_iterator_tag _Cat;
; 487  : 	return (_Cat);

  00004	8a 45 ff	 mov	 al, BYTE PTR __Cat$[ebp]

; 488  : 	}

  00007	c9		 leave
  00008	c3		 ret	 0
??$_Ptr_cat@V?$_Vector_const_iterator@V?$_Vector_val@UForceInfo@@V?$allocator@UForceInfo@@@std@@@std@@@std@@PAUForceInfo@@@std@@YA?AU_Nonscalar_ptr_iterator_tag@0@AAV?$_Vector_const_iterator@V?$_Vector_val@UForceInfo@@V?$allocator@UForceInfo@@@std@@@std@@@0@AAPAUForceInfo@@@Z ENDP ; std::_Ptr_cat<std::_Vector_const_iterator<std::_Vector_val<ForceInfo,std::allocator<ForceInfo> > >,ForceInfo *>
_TEXT	ENDS
PUBLIC	??$_Val_type@PAVioHashString@@@std@@YAPAVioHashString@@PAV1@@Z ; std::_Val_type<ioHashString *>
; Function compile flags: /Ogsp
;	COMDAT ??$_Val_type@PAVioHashString@@@std@@YAPAVioHashString@@PAV1@@Z
_TEXT	SEGMENT
___formal$ = 8						; size = 4
??$_Val_type@PAVioHashString@@@std@@YAPAVioHashString@@PAV1@@Z PROC ; std::_Val_type<ioHashString *>, COMDAT

; 790  : 	return (0);

  00000	33 c0		 xor	 eax, eax

; 791  : 	}

  00002	c3		 ret	 0
??$_Val_type@PAVioHashString@@@std@@YAPAVioHashString@@PAV1@@Z ENDP ; std::_Val_type<ioHashString *>
_TEXT	ENDS
PUBLIC	??D?$_Vector_const_iterator@V?$_Vector_val@UForceInfo@@V?$allocator@UForceInfo@@@std@@@std@@@std@@QBEABUForceInfo@@XZ ; std::_Vector_const_iterator<std::_Vector_val<ForceInfo,std::allocator<ForceInfo> > >::operator*
; Function compile flags: /Ogsp
; File c:\program files (x86)\microsoft visual studio 10.0\vc\include\vector
;	COMDAT ??D?$_Vector_const_iterator@V?$_Vector_val@UForceInfo@@V?$allocator@UForceInfo@@@std@@@std@@@std@@QBEABUForceInfo@@XZ
_TEXT	SEGMENT
??D?$_Vector_const_iterator@V?$_Vector_val@UForceInfo@@V?$allocator@UForceInfo@@@std@@@std@@@std@@QBEABUForceInfo@@XZ PROC ; std::_Vector_const_iterator<std::_Vector_val<ForceInfo,std::allocator<ForceInfo> > >::operator*, COMDAT
; _this$ = ecx

; 64   :  #if _ITERATOR_DEBUG_LEVEL == 2
; 65   : 		if (this->_Getcont() == 0
; 66   : 			|| this->_Ptr == 0
; 67   : 			|| this->_Ptr < ((_Myvec *)this->_Getcont())->_Myfirst
; 68   : 			|| ((_Myvec *)this->_Getcont())->_Mylast <= this->_Ptr)
; 69   : 			{	// report error
; 70   : 			_DEBUG_ERROR("vector iterator not dereferencable");
; 71   : 			_SCL_SECURE_OUT_OF_RANGE;
; 72   : 			}
; 73   : 
; 74   :  #elif _ITERATOR_DEBUG_LEVEL == 1
; 75   : 		_SCL_SECURE_VALIDATE(this->_Getcont() != 0);
; 76   : 		_SCL_SECURE_VALIDATE_RANGE(
; 77   : 			this->_Ptr != 0
; 78   : 			&& ((_Myvec *)this->_Getcont())->_Myfirst <= this->_Ptr
; 79   : 			&& this->_Ptr < ((_Myvec *)this->_Getcont())->_Mylast);
; 80   :  #endif /* _ITERATOR_DEBUG_LEVEL */
; 81   : 
; 82   : 		__analysis_assume(this->_Ptr != 0);
; 83   : 
; 84   : 		return (*this->_Ptr);

  00000	8b 01		 mov	 eax, DWORD PTR [ecx]

; 85   : 		}

  00002	c3		 ret	 0
??D?$_Vector_const_iterator@V?$_Vector_val@UForceInfo@@V?$allocator@UForceInfo@@@std@@@std@@@std@@QBEABUForceInfo@@XZ ENDP ; std::_Vector_const_iterator<std::_Vector_val<ForceInfo,std::allocator<ForceInfo> > >::operator*
_TEXT	ENDS
PUBLIC	??E?$_Vector_const_iterator@V?$_Vector_val@UForceInfo@@V?$allocator@UForceInfo@@@std@@@std@@@std@@QAEAAV01@XZ ; std::_Vector_const_iterator<std::_Vector_val<ForceInfo,std::allocator<ForceInfo> > >::operator++
; Function compile flags: /Ogsp
;	COMDAT ??E?$_Vector_const_iterator@V?$_Vector_val@UForceInfo@@V?$allocator@UForceInfo@@@std@@@std@@@std@@QAEAAV01@XZ
_TEXT	SEGMENT
??E?$_Vector_const_iterator@V?$_Vector_val@UForceInfo@@V?$allocator@UForceInfo@@@std@@@std@@@std@@QAEAAV01@XZ PROC ; std::_Vector_const_iterator<std::_Vector_val<ForceInfo,std::allocator<ForceInfo> > >::operator++, COMDAT
; _this$ = ecx

; 93   : 		{	// preincrement

  00000	8b c1		 mov	 eax, ecx

; 94   :  #if _ITERATOR_DEBUG_LEVEL == 2
; 95   : 		if (this->_Getcont() == 0
; 96   : 			|| this->_Ptr == 0
; 97   : 			|| ((_Myvec *)this->_Getcont())->_Mylast <= this->_Ptr)
; 98   : 			{	// report error
; 99   : 			_DEBUG_ERROR("vector iterator not incrementable");
; 100  : 			_SCL_SECURE_OUT_OF_RANGE;
; 101  : 			}
; 102  : 
; 103  :  #elif _ITERATOR_DEBUG_LEVEL == 1
; 104  : 		_SCL_SECURE_VALIDATE(this->_Getcont() != 0);
; 105  : 		_SCL_SECURE_VALIDATE_RANGE(
; 106  : 			this->_Ptr != 0
; 107  : 			&& this->_Ptr < ((_Myvec *)this->_Getcont())->_Mylast);
; 108  :  #endif /* _ITERATOR_DEBUG_LEVEL */
; 109  : 
; 110  : 		++this->_Ptr;

  00002	83 00 0c	 add	 DWORD PTR [eax], 12	; 0000000cH

; 111  : 		return (*this);
; 112  : 		}

  00005	c3		 ret	 0
??E?$_Vector_const_iterator@V?$_Vector_val@UForceInfo@@V?$allocator@UForceInfo@@@std@@@std@@@std@@QAEAAV01@XZ ENDP ; std::_Vector_const_iterator<std::_Vector_val<ForceInfo,std::allocator<ForceInfo> > >::operator++
_TEXT	ENDS
PUBLIC	??$forward@ABUWeaponInfo@@@std@@YAABUWeaponInfo@@ABU1@@Z ; std::forward<WeaponInfo const &>
; Function compile flags: /Ogsp
; File c:\program files (x86)\microsoft visual studio 10.0\vc\include\utility
;	COMDAT ??$forward@ABUWeaponInfo@@@std@@YAABUWeaponInfo@@ABU1@@Z
_TEXT	SEGMENT
__Arg$ = 8						; size = 4
??$forward@ABUWeaponInfo@@@std@@YAABUWeaponInfo@@ABU1@@Z PROC ; std::forward<WeaponInfo const &>, COMDAT

; 78   : 	{	// forward _Arg, given explicitly specified type parameter

  00000	55		 push	 ebp
  00001	8b ec		 mov	 ebp, esp

; 79   : 	return ((_Ty&&)_Arg);

  00003	8b 45 08	 mov	 eax, DWORD PTR __Arg$[ebp]

; 80   : 	}

  00006	5d		 pop	 ebp
  00007	c3		 ret	 0
??$forward@ABUWeaponInfo@@@std@@YAABUWeaponInfo@@ABU1@@Z ENDP ; std::forward<WeaponInfo const &>
_TEXT	ENDS
PUBLIC	??$forward@ABUForceInfo@@@std@@YAABUForceInfo@@ABU1@@Z ; std::forward<ForceInfo const &>
; Function compile flags: /Ogsp
;	COMDAT ??$forward@ABUForceInfo@@@std@@YAABUForceInfo@@ABU1@@Z
_TEXT	SEGMENT
__Arg$ = 8						; size = 4
??$forward@ABUForceInfo@@@std@@YAABUForceInfo@@ABU1@@Z PROC ; std::forward<ForceInfo const &>, COMDAT

; 78   : 	{	// forward _Arg, given explicitly specified type parameter

  00000	55		 push	 ebp
  00001	8b ec		 mov	 ebp, esp

; 79   : 	return ((_Ty&&)_Arg);

  00003	8b 45 08	 mov	 eax, DWORD PTR __Arg$[ebp]

; 80   : 	}

  00006	5d		 pop	 ebp
  00007	c3		 ret	 0
??$forward@ABUForceInfo@@@std@@YAABUForceInfo@@ABU1@@Z ENDP ; std::forward<ForceInfo const &>
_TEXT	ENDS
PUBLIC	??$forward@VioHashString@@@std@@YA$$QAVioHashString@@AAV1@@Z ; std::forward<ioHashString>
; Function compile flags: /Ogsp
;	COMDAT ??$forward@VioHashString@@@std@@YA$$QAVioHashString@@AAV1@@Z
_TEXT	SEGMENT
__Arg$ = 8						; size = 4
??$forward@VioHashString@@@std@@YA$$QAVioHashString@@AAV1@@Z PROC ; std::forward<ioHashString>, COMDAT

; 78   : 	{	// forward _Arg, given explicitly specified type parameter

  00000	55		 push	 ebp
  00001	8b ec		 mov	 ebp, esp

; 79   : 	return ((_Ty&&)_Arg);

  00003	8b 45 08	 mov	 eax, DWORD PTR __Arg$[ebp]

; 80   : 	}

  00006	5d		 pop	 ebp
  00007	c3		 ret	 0
??$forward@VioHashString@@@std@@YA$$QAVioHashString@@AAV1@@Z ENDP ; std::forward<ioHashString>
_TEXT	ENDS
PUBLIC	??$_Construct@UForceInfo@@ABU1@@std@@YAXPAUForceInfo@@ABU1@@Z ; std::_Construct<ForceInfo,ForceInfo const &>
; Function compile flags: /Ogsp
; File c:\program files (x86)\microsoft visual studio 10.0\vc\include\xmemory
;	COMDAT ??$_Construct@UForceInfo@@ABU1@@std@@YAXPAUForceInfo@@ABU1@@Z
_TEXT	SEGMENT
__Ptr$ = 8						; size = 4
__Val$ = 12						; size = 4
??$_Construct@UForceInfo@@ABU1@@std@@YAXPAUForceInfo@@ABU1@@Z PROC ; std::_Construct<ForceInfo,ForceInfo const &>, COMDAT

; 46   : 	{	// construct object at _Ptr with value _Val

  00000	55		 push	 ebp
  00001	8b ec		 mov	 ebp, esp
  00003	57		 push	 edi

; 47   : 	void _FARQ *_Vptr = _Ptr;
; 48   : 	::new (_Vptr) _Ty1(_STD forward<_Ty2>(_Val));

  00004	8b 7d 08	 mov	 edi, DWORD PTR __Ptr$[ebp]
  00007	85 ff		 test	 edi, edi
  00009	74 08		 je	 SHORT $LN3@Construct
  0000b	56		 push	 esi
  0000c	8b 75 0c	 mov	 esi, DWORD PTR __Val$[ebp]
  0000f	a5		 movsd
  00010	a5		 movsd
  00011	a5		 movsd
  00012	5e		 pop	 esi
$LN3@Construct:
  00013	5f		 pop	 edi

; 49   : 	}

  00014	5d		 pop	 ebp
  00015	c3		 ret	 0
??$_Construct@UForceInfo@@ABU1@@std@@YAXPAUForceInfo@@ABU1@@Z ENDP ; std::_Construct<ForceInfo,ForceInfo const &>
_TEXT	ENDS
PUBLIC	?_DECSTR@@YAXPADH@Z				; _DECSTR
; Function compile flags: /Ogsp
; File d:\lost saga for developer\youtube\tutorial\source\src\lsclient\stringprotect.h
;	COMDAT ?_DECSTR@@YAXPADH@Z
_TEXT	SEGMENT
_s$ = 8							; size = 4
_l$ = 12						; size = 4
?_DECSTR@@YAXPADH@Z PROC				; _DECSTR, COMDAT

; 40   : __forceinline void _DECSTR(char* s, int l){int i=0,l4=(l-1)/4,*p=(int*)s;s[l-1]=0;for(;i<l4;++i)*(p++)^=0xEAEBECED;for(i=l4*4;i<l-1;++i)s[i]^=0xED-i%4;}

  00000	55		 push	 ebp
  00001	8b ec		 mov	 ebp, esp
  00003	8b 4d 0c	 mov	 ecx, DWORD PTR _l$[ebp]
  00006	56		 push	 esi
  00007	8b 75 08	 mov	 esi, DWORD PTR _s$[ebp]
  0000a	57		 push	 edi
  0000b	8d 79 ff	 lea	 edi, DWORD PTR [ecx-1]
  0000e	8b c7		 mov	 eax, edi
  00010	99		 cdq
  00011	83 e2 03	 and	 edx, 3
  00014	03 c2		 add	 eax, edx
  00016	c1 f8 02	 sar	 eax, 2
  00019	8b d6		 mov	 edx, esi
  0001b	c6 44 0e ff 00	 mov	 BYTE PTR [esi+ecx-1], 0
  00020	85 c0		 test	 eax, eax
  00022	7e 0e		 jle	 SHORT $LN4@DECSTR
  00024	8b c8		 mov	 ecx, eax
$LL6@DECSTR:
  00026	81 32 ed ec eb
	ea		 xor	 DWORD PTR [edx], -353637139 ; eaebecedH
  0002c	83 c2 04	 add	 edx, 4
  0002f	49		 dec	 ecx
  00030	75 f4		 jne	 SHORT $LL6@DECSTR
$LN4@DECSTR:
  00032	c1 e0 02	 shl	 eax, 2
  00035	eb 17		 jmp	 SHORT $LN14@DECSTR
$LL3@DECSTR:
  00037	8b c8		 mov	 ecx, eax
  00039	81 e1 03 00 00
	80		 and	 ecx, -2147483645	; 80000003H
  0003f	79 05		 jns	 SHORT $LN13@DECSTR
  00041	49		 dec	 ecx
  00042	83 c9 fc	 or	 ecx, -4			; fffffffcH
  00045	41		 inc	 ecx
$LN13@DECSTR:
  00046	b2 ed		 mov	 dl, -19			; ffffffedH
  00048	2a d1		 sub	 dl, cl
  0004a	30 14 30	 xor	 BYTE PTR [eax+esi], dl
  0004d	40		 inc	 eax
$LN14@DECSTR:
  0004e	3b c7		 cmp	 eax, edi
  00050	7c e5		 jl	 SHORT $LL3@DECSTR
  00052	5f		 pop	 edi
  00053	5e		 pop	 esi
  00054	5d		 pop	 ebp
  00055	c3		 ret	 0
?_DECSTR@@YAXPADH@Z ENDP				; _DECSTR
_TEXT	ENDS
PUBLIC	?GetGroup@ioGameEntity@@QBEPAVioEntityGroup@@XZ	; ioGameEntity::GetGroup
; Function compile flags: /Ogsp
; File d:\lost saga for developer\youtube\tutorial\source\src\lsclient\iogameentity.h
;	COMDAT ?GetGroup@ioGameEntity@@QBEPAVioEntityGroup@@XZ
_TEXT	SEGMENT
?GetGroup@ioGameEntity@@QBEPAVioEntityGroup@@XZ PROC	; ioGameEntity::GetGroup, COMDAT
; _this$ = ecx

; 166  : 	inline ioEntityGroup* GetGroup() const { return m_pGroup; }

  00000	8b 41 04	 mov	 eax, DWORD PTR [ecx+4]
  00003	c3		 ret	 0
?GetGroup@ioGameEntity@@QBEPAVioEntityGroup@@XZ ENDP	; ioGameEntity::GetGroup
_TEXT	ENDS
PUBLIC	??1WeaponInfo@@QAE@XZ				; WeaponInfo::~WeaponInfo
EXTRN	__imp_??1ioHashString@@QAE@XZ:PROC
; Function compile flags: /Ogsp
;	COMDAT ??1WeaponInfo@@QAE@XZ
_TEXT	SEGMENT
??1WeaponInfo@@QAE@XZ PROC				; WeaponInfo::~WeaponInfo, COMDAT
; _this$ = ecx
  00000	83 c1 08	 add	 ecx, 8
  00003	ff 25 00 00 00
	00		 jmp	 DWORD PTR __imp_??1ioHashString@@QAE@XZ
??1WeaponInfo@@QAE@XZ ENDP				; WeaponInfo::~WeaponInfo
_TEXT	ENDS
PUBLIC	?GetWeaponIndex@ioWeapon@@QBEKXZ		; ioWeapon::GetWeaponIndex
; Function compile flags: /Ogsp
; File d:\lost saga for developer\youtube\tutorial\source\src\lsclient\ioweapon.h
;	COMDAT ?GetWeaponIndex@ioWeapon@@QBEKXZ
_TEXT	SEGMENT
?GetWeaponIndex@ioWeapon@@QBEKXZ PROC			; ioWeapon::GetWeaponIndex, COMDAT
; _this$ = ecx

; 536  : 	inline DWORD GetWeaponIndex() const { return m_dwWeaponIdx; }

  00000	8b 81 b8 04 00
	00		 mov	 eax, DWORD PTR [ecx+1208]
  00006	c3		 ret	 0
?GetWeaponIndex@ioWeapon@@QBEKXZ ENDP			; ioWeapon::GetWeaponIndex
_TEXT	ENDS
PUBLIC	?GetOwnerItem@ioSkill@@QBEPAVioItem@@XZ		; ioSkill::GetOwnerItem
; Function compile flags: /Ogsp
; File d:\lost saga for developer\youtube\tutorial\source\src\lsclient\ioskill.h
;	COMDAT ?GetOwnerItem@ioSkill@@QBEPAVioItem@@XZ
_TEXT	SEGMENT
?GetOwnerItem@ioSkill@@QBEPAVioItem@@XZ PROC		; ioSkill::GetOwnerItem, COMDAT
; _this$ = ecx

; 397  : 	inline ioItem *GetOwnerItem() const { return m_pOwnerItem; }

  00000	8b 81 a4 02 00
	00		 mov	 eax, DWORD PTR [ecx+676]
  00006	c3		 ret	 0
?GetOwnerItem@ioSkill@@QBEPAVioItem@@XZ ENDP		; ioSkill::GetOwnerItem
_TEXT	ENDS
PUBLIC	?GetName@ioSkill@@QBEABVioHashString@@XZ	; ioSkill::GetName
; Function compile flags: /Ogsp
;	COMDAT ?GetName@ioSkill@@QBEABVioHashString@@XZ
_TEXT	SEGMENT
?GetName@ioSkill@@QBEABVioHashString@@XZ PROC		; ioSkill::GetName, COMDAT
; _this$ = ecx

; 414  : 	inline const ioHashString& GetName() const { return m_Name; }

  00000	8d 41 24	 lea	 eax, DWORD PTR [ecx+36]
  00003	c3		 ret	 0
?GetName@ioSkill@@QBEABVioHashString@@XZ ENDP		; ioSkill::GetName
_TEXT	ENDS
PUBLIC	?GetSkillUseType@ioSkill@@QBE?AW4SkillUseType@@XZ ; ioSkill::GetSkillUseType
; Function compile flags: /Ogsp
;	COMDAT ?GetSkillUseType@ioSkill@@QBE?AW4SkillUseType@@XZ
_TEXT	SEGMENT
?GetSkillUseType@ioSkill@@QBE?AW4SkillUseType@@XZ PROC	; ioSkill::GetSkillUseType, COMDAT
; _this$ = ecx

; 454  : 	inline SkillUseType GetSkillUseType() const { return m_SkillUseType; }

  00000	8b 41 74	 mov	 eax, DWORD PTR [ecx+116]
  00003	c3		 ret	 0
?GetSkillUseType@ioSkill@@QBE?AW4SkillUseType@@XZ ENDP	; ioSkill::GetSkillUseType
_TEXT	ENDS
PUBLIC	?size@?$vector@VioHashString@@V?$allocator@VioHashString@@@std@@@std@@QBEIXZ ; std::vector<ioHashString,std::allocator<ioHashString> >::size
; Function compile flags: /Ogsp
; File c:\program files (x86)\microsoft visual studio 10.0\vc\include\vector
;	COMDAT ?size@?$vector@VioHashString@@V?$allocator@VioHashString@@@std@@@std@@QBEIXZ
_TEXT	SEGMENT
?size@?$vector@VioHashString@@V?$allocator@VioHashString@@@std@@@std@@QBEIXZ PROC ; std::vector<ioHashString,std::allocator<ioHashString> >::size, COMDAT
; _this$ = ecx

; 879  : 		return (this->_Mylast - this->_Myfirst);

  00000	8b 41 04	 mov	 eax, DWORD PTR [ecx+4]
  00003	2b 01		 sub	 eax, DWORD PTR [ecx]
  00005	c1 f8 04	 sar	 eax, 4

; 880  : 		}

  00008	c3		 ret	 0
?size@?$vector@VioHashString@@V?$allocator@VioHashString@@@std@@@std@@QBEIXZ ENDP ; std::vector<ioHashString,std::allocator<ioHashString> >::size
_TEXT	ENDS
PUBLIC	?size@?$vector@KV?$allocator@K@std@@@std@@QBEIXZ ; std::vector<unsigned long,std::allocator<unsigned long> >::size
; Function compile flags: /Ogsp
;	COMDAT ?size@?$vector@KV?$allocator@K@std@@@std@@QBEIXZ
_TEXT	SEGMENT
?size@?$vector@KV?$allocator@K@std@@@std@@QBEIXZ PROC	; std::vector<unsigned long,std::allocator<unsigned long> >::size, COMDAT
; _this$ = ecx

; 879  : 		return (this->_Mylast - this->_Myfirst);

  00000	8b 41 04	 mov	 eax, DWORD PTR [ecx+4]
  00003	2b 01		 sub	 eax, DWORD PTR [ecx]
  00005	c1 f8 02	 sar	 eax, 2

; 880  : 		}

  00008	c3		 ret	 0
?size@?$vector@KV?$allocator@K@std@@@std@@QBEIXZ ENDP	; std::vector<unsigned long,std::allocator<unsigned long> >::size
_TEXT	ENDS
PUBLIC	??1?$_Vector_val@VioHashString@@V?$allocator@VioHashString@@@std@@@std@@QAE@XZ ; std::_Vector_val<ioHashString,std::allocator<ioHashString> >::~_Vector_val<ioHashString,std::allocator<ioHashString> >
; Function compile flags: /Ogsp
;	COMDAT ??1?$_Vector_val@VioHashString@@V?$allocator@VioHashString@@@std@@@std@@QAE@XZ
_TEXT	SEGMENT
??1?$_Vector_val@VioHashString@@V?$allocator@VioHashString@@@std@@@std@@QAE@XZ PROC ; std::_Vector_val<ioHashString,std::allocator<ioHashString> >::~_Vector_val<ioHashString,std::allocator<ioHashString> >, COMDAT
; _this$ = ecx

; 434  : 		}

  00000	c3		 ret	 0
??1?$_Vector_val@VioHashString@@V?$allocator@VioHashString@@@std@@@std@@QAE@XZ ENDP ; std::_Vector_val<ioHashString,std::allocator<ioHashString> >::~_Vector_val<ioHashString,std::allocator<ioHashString> >
_TEXT	ENDS
PUBLIC	??0?$allocator@VioHashString@@@std@@QAE@XZ	; std::allocator<ioHashString>::allocator<ioHashString>
; Function compile flags: /Ogsp
; File c:\program files (x86)\microsoft visual studio 10.0\vc\include\xmemory
;	COMDAT ??0?$allocator@VioHashString@@@std@@QAE@XZ
_TEXT	SEGMENT
??0?$allocator@VioHashString@@@std@@QAE@XZ PROC		; std::allocator<ioHashString>::allocator<ioHashString>, COMDAT
; _this$ = ecx

; 161  : 	_ALLOCATOR() _THROW0()

  00000	8b c1		 mov	 eax, ecx

; 162  : 		{	// construct default allocator (do nothing)
; 163  : 		}

  00002	c3		 ret	 0
??0?$allocator@VioHashString@@@std@@QAE@XZ ENDP		; std::allocator<ioHashString>::allocator<ioHashString>
_TEXT	ENDS
PUBLIC	??0?$allocator@VioHashString@@@std@@QAE@ABV01@@Z ; std::allocator<ioHashString>::allocator<ioHashString>
; Function compile flags: /Ogsp
;	COMDAT ??0?$allocator@VioHashString@@@std@@QAE@ABV01@@Z
_TEXT	SEGMENT
___formal$ = 8						; size = 4
??0?$allocator@VioHashString@@@std@@QAE@ABV01@@Z PROC	; std::allocator<ioHashString>::allocator<ioHashString>, COMDAT
; _this$ = ecx

; 165  : 	_ALLOCATOR(const _ALLOCATOR<_Ty>&) _THROW0()

  00000	8b c1		 mov	 eax, ecx

; 166  : 		{	// construct by copying (do nothing)
; 167  : 		}

  00002	c2 04 00	 ret	 4
??0?$allocator@VioHashString@@@std@@QAE@ABV01@@Z ENDP	; std::allocator<ioHashString>::allocator<ioHashString>
_TEXT	ENDS
PUBLIC	??1?$_Vector_val@UWeaponInfo@@V?$allocator@UWeaponInfo@@@std@@@std@@QAE@XZ ; std::_Vector_val<WeaponInfo,std::allocator<WeaponInfo> >::~_Vector_val<WeaponInfo,std::allocator<WeaponInfo> >
; Function compile flags: /Ogsp
; File c:\program files (x86)\microsoft visual studio 10.0\vc\include\vector
;	COMDAT ??1?$_Vector_val@UWeaponInfo@@V?$allocator@UWeaponInfo@@@std@@@std@@QAE@XZ
_TEXT	SEGMENT
??1?$_Vector_val@UWeaponInfo@@V?$allocator@UWeaponInfo@@@std@@@std@@QAE@XZ PROC ; std::_Vector_val<WeaponInfo,std::allocator<WeaponInfo> >::~_Vector_val<WeaponInfo,std::allocator<WeaponInfo> >, COMDAT
; _this$ = ecx

; 434  : 		}

  00000	c3		 ret	 0
??1?$_Vector_val@UWeaponInfo@@V?$allocator@UWeaponInfo@@@std@@@std@@QAE@XZ ENDP ; std::_Vector_val<WeaponInfo,std::allocator<WeaponInfo> >::~_Vector_val<WeaponInfo,std::allocator<WeaponInfo> >
_TEXT	ENDS
PUBLIC	??0?$allocator@UWeaponInfo@@@std@@QAE@XZ	; std::allocator<WeaponInfo>::allocator<WeaponInfo>
; Function compile flags: /Ogsp
; File c:\program files (x86)\microsoft visual studio 10.0\vc\include\xmemory
;	COMDAT ??0?$allocator@UWeaponInfo@@@std@@QAE@XZ
_TEXT	SEGMENT
??0?$allocator@UWeaponInfo@@@std@@QAE@XZ PROC		; std::allocator<WeaponInfo>::allocator<WeaponInfo>, COMDAT
; _this$ = ecx

; 161  : 	_ALLOCATOR() _THROW0()

  00000	8b c1		 mov	 eax, ecx

; 162  : 		{	// construct default allocator (do nothing)
; 163  : 		}

  00002	c3		 ret	 0
??0?$allocator@UWeaponInfo@@@std@@QAE@XZ ENDP		; std::allocator<WeaponInfo>::allocator<WeaponInfo>
_TEXT	ENDS
PUBLIC	??1?$_Vector_val@UForceInfo@@V?$allocator@UForceInfo@@@std@@@std@@QAE@XZ ; std::_Vector_val<ForceInfo,std::allocator<ForceInfo> >::~_Vector_val<ForceInfo,std::allocator<ForceInfo> >
; Function compile flags: /Ogsp
; File c:\program files (x86)\microsoft visual studio 10.0\vc\include\vector
;	COMDAT ??1?$_Vector_val@UForceInfo@@V?$allocator@UForceInfo@@@std@@@std@@QAE@XZ
_TEXT	SEGMENT
??1?$_Vector_val@UForceInfo@@V?$allocator@UForceInfo@@@std@@@std@@QAE@XZ PROC ; std::_Vector_val<ForceInfo,std::allocator<ForceInfo> >::~_Vector_val<ForceInfo,std::allocator<ForceInfo> >, COMDAT
; _this$ = ecx

; 434  : 		}

  00000	c3		 ret	 0
??1?$_Vector_val@UForceInfo@@V?$allocator@UForceInfo@@@std@@@std@@QAE@XZ ENDP ; std::_Vector_val<ForceInfo,std::allocator<ForceInfo> >::~_Vector_val<ForceInfo,std::allocator<ForceInfo> >
_TEXT	ENDS
PUBLIC	??0?$allocator@UForceInfo@@@std@@QAE@XZ		; std::allocator<ForceInfo>::allocator<ForceInfo>
; Function compile flags: /Ogsp
; File c:\program files (x86)\microsoft visual studio 10.0\vc\include\xmemory
;	COMDAT ??0?$allocator@UForceInfo@@@std@@QAE@XZ
_TEXT	SEGMENT
??0?$allocator@UForceInfo@@@std@@QAE@XZ PROC		; std::allocator<ForceInfo>::allocator<ForceInfo>, COMDAT
; _this$ = ecx

; 161  : 	_ALLOCATOR() _THROW0()

  00000	8b c1		 mov	 eax, ecx

; 162  : 		{	// construct default allocator (do nothing)
; 163  : 		}

  00002	c3		 ret	 0
??0?$allocator@UForceInfo@@@std@@QAE@XZ ENDP		; std::allocator<ForceInfo>::allocator<ForceInfo>
_TEXT	ENDS
PUBLIC	?EncryptValueToPool@?$CEncrypt@M@@AAEXPBD@Z	; CEncrypt<float>::EncryptValueToPool
EXTRN	?EncryptByte@ccddaabb@@QAEXPBDPADH@Z:PROC	; ccddaabb::EncryptByte
; Function compile flags: /Ogsp
; File d:\lost saga for developer\youtube\tutorial\source\src\lsclient\encryptvalue.h
;	COMDAT ?EncryptValueToPool@?$CEncrypt@M@@AAEXPBD@Z
_TEXT	SEGMENT
_value$ = 8						; size = 4
?EncryptValueToPool@?$CEncrypt@M@@AAEXPBD@Z PROC	; CEncrypt<float>::EncryptValueToPool, COMDAT
; _this$ = ecx

; 67   : 	{

  00000	55		 push	 ebp
  00001	8b ec		 mov	 ebp, esp

; 68   : 		m_RC5.EncryptByte( value, m_MemPool, max(m_ValueSize, DEFAULT_ENCRYPT) );

  00003	0f b7 41 06	 movzx	 eax, WORD PTR [ecx+6]
  00007	83 f8 04	 cmp	 eax, 4
  0000a	77 03		 ja	 SHORT $LN4@EncryptVal
  0000c	6a 04		 push	 4
  0000e	58		 pop	 eax
$LN4@EncryptVal:
  0000f	50		 push	 eax
  00010	8d 41 1c	 lea	 eax, DWORD PTR [ecx+28]
  00013	50		 push	 eax
  00014	ff 75 08	 push	 DWORD PTR _value$[ebp]
  00017	83 c1 0c	 add	 ecx, 12			; 0000000cH
  0001a	e8 00 00 00 00	 call	 ?EncryptByte@ccddaabb@@QAEXPBDPADH@Z ; ccddaabb::EncryptByte

; 69   : 		
; 70   : 	}

  0001f	5d		 pop	 ebp
  00020	c2 04 00	 ret	 4
?EncryptValueToPool@?$CEncrypt@M@@AAEXPBD@Z ENDP	; CEncrypt<float>::EncryptValueToPool
_TEXT	ENDS
PUBLIC	?DecryptValueToPool@?$CEncrypt@K@@QAEXPAK@Z	; CEncrypt<unsigned long>::DecryptValueToPool
EXTRN	?DecryptByte@ccddaabb@@QBEXPBDPADH@Z:PROC	; ccddaabb::DecryptByte
; Function compile flags: /Ogsp
;	COMDAT ?DecryptValueToPool@?$CEncrypt@K@@QAEXPAK@Z
_TEXT	SEGMENT
_value$ = 8						; size = 4
?DecryptValueToPool@?$CEncrypt@K@@QAEXPAK@Z PROC	; CEncrypt<unsigned long>::DecryptValueToPool, COMDAT
; _this$ = ecx

; 1256 : 	{

  00000	55		 push	 ebp
  00001	8b ec		 mov	 ebp, esp
  00003	56		 push	 esi

; 1257 : 		m_RC5.DecryptByte( m_MemPool, m_TempMem, 4 );

  00004	8d 71 28	 lea	 esi, DWORD PTR [ecx+40]
  00007	6a 04		 push	 4
  00009	8d 41 1c	 lea	 eax, DWORD PTR [ecx+28]
  0000c	56		 push	 esi
  0000d	50		 push	 eax
  0000e	83 c1 0c	 add	 ecx, 12			; 0000000cH
  00011	e8 00 00 00 00	 call	 ?DecryptByte@ccddaabb@@QBEXPBDPADH@Z ; ccddaabb::DecryptByte

; 1258 : 		*value = *((DWORD*)m_TempMem);

  00016	8b 06		 mov	 eax, DWORD PTR [esi]
  00018	8b 4d 08	 mov	 ecx, DWORD PTR _value$[ebp]
  0001b	89 01		 mov	 DWORD PTR [ecx], eax
  0001d	5e		 pop	 esi

; 1259 : 	}

  0001e	5d		 pop	 ebp
  0001f	c2 04 00	 ret	 4
?DecryptValueToPool@?$CEncrypt@K@@QAEXPAK@Z ENDP	; CEncrypt<unsigned long>::DecryptValueToPool
_TEXT	ENDS
PUBLIC	?EncryptValueToPool@?$CEncrypt@_N@@AAEXPBD@Z	; CEncrypt<bool>::EncryptValueToPool
; Function compile flags: /Ogsp
;	COMDAT ?EncryptValueToPool@?$CEncrypt@_N@@AAEXPBD@Z
_TEXT	SEGMENT
_value$ = 8						; size = 4
?EncryptValueToPool@?$CEncrypt@_N@@AAEXPBD@Z PROC	; CEncrypt<bool>::EncryptValueToPool, COMDAT
; _this$ = ecx

; 67   : 	{

  00000	55		 push	 ebp
  00001	8b ec		 mov	 ebp, esp

; 68   : 		m_RC5.EncryptByte( value, m_MemPool, max(m_ValueSize, DEFAULT_ENCRYPT) );

  00003	0f b7 41 06	 movzx	 eax, WORD PTR [ecx+6]
  00007	83 f8 04	 cmp	 eax, 4
  0000a	77 03		 ja	 SHORT $LN4@EncryptVal@2
  0000c	6a 04		 push	 4
  0000e	58		 pop	 eax
$LN4@EncryptVal@2:
  0000f	50		 push	 eax
  00010	8d 41 1c	 lea	 eax, DWORD PTR [ecx+28]
  00013	50		 push	 eax
  00014	ff 75 08	 push	 DWORD PTR _value$[ebp]
  00017	83 c1 0c	 add	 ecx, 12			; 0000000cH
  0001a	e8 00 00 00 00	 call	 ?EncryptByte@ccddaabb@@QAEXPBDPADH@Z ; ccddaabb::EncryptByte

; 69   : 		
; 70   : 	}

  0001f	5d		 pop	 ebp
  00020	c2 04 00	 ret	 4
?EncryptValueToPool@?$CEncrypt@_N@@AAEXPBD@Z ENDP	; CEncrypt<bool>::EncryptValueToPool
_TEXT	ENDS
PUBLIC	?DecryptValueToPool@?$CEncrypt@_N@@QAEXPA_N@Z	; CEncrypt<bool>::DecryptValueToPool
; Function compile flags: /Ogsp
;	COMDAT ?DecryptValueToPool@?$CEncrypt@_N@@QAEXPA_N@Z
_TEXT	SEGMENT
_value$ = 8						; size = 4
?DecryptValueToPool@?$CEncrypt@_N@@QAEXPA_N@Z PROC	; CEncrypt<bool>::DecryptValueToPool, COMDAT
; _this$ = ecx

; 219  : 	{

  00000	55		 push	 ebp
  00001	8b ec		 mov	 ebp, esp
  00003	56		 push	 esi

; 220  : 		m_RC5.DecryptByte( m_MemPool, m_TempMem, 4 );

  00004	8d 71 28	 lea	 esi, DWORD PTR [ecx+40]
  00007	6a 04		 push	 4
  00009	8d 41 1c	 lea	 eax, DWORD PTR [ecx+28]
  0000c	56		 push	 esi
  0000d	50		 push	 eax
  0000e	83 c1 0c	 add	 ecx, 12			; 0000000cH
  00011	e8 00 00 00 00	 call	 ?DecryptByte@ccddaabb@@QBEXPBDPADH@Z ; ccddaabb::DecryptByte

; 221  : 		*value = *((bool*)m_TempMem);

  00016	8a 06		 mov	 al, BYTE PTR [esi]
  00018	8b 4d 08	 mov	 ecx, DWORD PTR _value$[ebp]
  0001b	88 01		 mov	 BYTE PTR [ecx], al
  0001d	5e		 pop	 esi

; 222  : 	}

  0001e	5d		 pop	 ebp
  0001f	c2 04 00	 ret	 4
?DecryptValueToPool@?$CEncrypt@_N@@QAEXPA_N@Z ENDP	; CEncrypt<bool>::DecryptValueToPool
_TEXT	ENDS
PUBLIC	?DecryptValueToPool@?$CEncrypt@W4TeamType@@@@QAEXPAW4TeamType@@@Z ; CEncrypt<enum TeamType>::DecryptValueToPool
; Function compile flags: /Ogsp
;	COMDAT ?DecryptValueToPool@?$CEncrypt@W4TeamType@@@@QAEXPAW4TeamType@@@Z
_TEXT	SEGMENT
_value$ = 8						; size = 4
?DecryptValueToPool@?$CEncrypt@W4TeamType@@@@QAEXPAW4TeamType@@@Z PROC ; CEncrypt<enum TeamType>::DecryptValueToPool, COMDAT
; _this$ = ecx

; 2959 : 	{

  00000	55		 push	 ebp
  00001	8b ec		 mov	 ebp, esp
  00003	56		 push	 esi

; 2960 : 		m_RC5.DecryptByte( m_MemPool, m_TempMem, sizeof(TeamType) );

  00004	8d 71 28	 lea	 esi, DWORD PTR [ecx+40]
  00007	6a 04		 push	 4
  00009	8d 41 1c	 lea	 eax, DWORD PTR [ecx+28]
  0000c	56		 push	 esi
  0000d	50		 push	 eax
  0000e	83 c1 0c	 add	 ecx, 12			; 0000000cH
  00011	e8 00 00 00 00	 call	 ?DecryptByte@ccddaabb@@QBEXPBDPADH@Z ; ccddaabb::DecryptByte

; 2961 : 		*value = *((TeamType*)m_TempMem);

  00016	8b 06		 mov	 eax, DWORD PTR [esi]
  00018	8b 4d 08	 mov	 ecx, DWORD PTR _value$[ebp]
  0001b	89 01		 mov	 DWORD PTR [ecx], eax
  0001d	5e		 pop	 esi

; 2962 : 	}

  0001e	5d		 pop	 ebp
  0001f	c2 04 00	 ret	 4
?DecryptValueToPool@?$CEncrypt@W4TeamType@@@@QAEXPAW4TeamType@@@Z ENDP ; CEncrypt<enum TeamType>::DecryptValueToPool
_TEXT	ENDS
PUBLIC	?_Inside@?$vector@KV?$allocator@K@std@@@std@@IBE_NPBK@Z ; std::vector<unsigned long,std::allocator<unsigned long> >::_Inside
; Function compile flags: /Ogsp
; File c:\program files (x86)\microsoft visual studio 10.0\vc\include\vector
;	COMDAT ?_Inside@?$vector@KV?$allocator@K@std@@@std@@IBE_NPBK@Z
_TEXT	SEGMENT
__Ptr$ = 8						; size = 4
?_Inside@?$vector@KV?$allocator@K@std@@@std@@IBE_NPBK@Z PROC ; std::vector<unsigned long,std::allocator<unsigned long> >::_Inside, COMDAT
; _this$ = ecx

; 1285 : 		{	// test if _Ptr points inside vector

  00000	55		 push	 ebp
  00001	8b ec		 mov	 ebp, esp

; 1286 : 		return (_Ptr < this->_Mylast && this->_Myfirst <= _Ptr);

  00003	8b 45 08	 mov	 eax, DWORD PTR __Ptr$[ebp]
  00006	3b 41 04	 cmp	 eax, DWORD PTR [ecx+4]
  00009	73 09		 jae	 SHORT $LN3@Inside@2
  0000b	39 01		 cmp	 DWORD PTR [ecx], eax
  0000d	77 05		 ja	 SHORT $LN3@Inside@2
  0000f	33 c0		 xor	 eax, eax
  00011	40		 inc	 eax
  00012	eb 02		 jmp	 SHORT $LN4@Inside@2
$LN3@Inside@2:
  00014	33 c0		 xor	 eax, eax
$LN4@Inside@2:

; 1287 : 		}

  00016	5d		 pop	 ebp
  00017	c2 04 00	 ret	 4
?_Inside@?$vector@KV?$allocator@K@std@@@std@@IBE_NPBK@Z ENDP ; std::vector<unsigned long,std::allocator<unsigned long> >::_Inside
_TEXT	ENDS
PUBLIC	?_Orphan_range@?$vector@KV?$allocator@K@std@@@std@@IBEXPAK0@Z ; std::vector<unsigned long,std::allocator<unsigned long> >::_Orphan_range
; Function compile flags: /Ogsp
;	COMDAT ?_Orphan_range@?$vector@KV?$allocator@K@std@@@std@@IBEXPAK0@Z
_TEXT	SEGMENT
___formal$ = 8						; size = 4
___formal$ = 12						; size = 4
?_Orphan_range@?$vector@KV?$allocator@K@std@@@std@@IBEXPAK0@Z PROC ; std::vector<unsigned long,std::allocator<unsigned long> >::_Orphan_range, COMDAT
; _this$ = ecx

; 1454 : 		}

  00000	c2 08 00	 ret	 8
?_Orphan_range@?$vector@KV?$allocator@K@std@@@std@@IBEXPAK0@Z ENDP ; std::vector<unsigned long,std::allocator<unsigned long> >::_Orphan_range
_TEXT	ENDS
PUBLIC	??1?$_Vector_val@KV?$allocator@K@std@@@std@@QAE@XZ ; std::_Vector_val<unsigned long,std::allocator<unsigned long> >::~_Vector_val<unsigned long,std::allocator<unsigned long> >
; Function compile flags: /Ogsp
;	COMDAT ??1?$_Vector_val@KV?$allocator@K@std@@@std@@QAE@XZ
_TEXT	SEGMENT
??1?$_Vector_val@KV?$allocator@K@std@@@std@@QAE@XZ PROC	; std::_Vector_val<unsigned long,std::allocator<unsigned long> >::~_Vector_val<unsigned long,std::allocator<unsigned long> >, COMDAT
; _this$ = ecx

; 434  : 		}

  00000	c3		 ret	 0
??1?$_Vector_val@KV?$allocator@K@std@@@std@@QAE@XZ ENDP	; std::_Vector_val<unsigned long,std::allocator<unsigned long> >::~_Vector_val<unsigned long,std::allocator<unsigned long> >
_TEXT	ENDS
PUBLIC	??0?$allocator@K@std@@QAE@XZ			; std::allocator<unsigned long>::allocator<unsigned long>
; Function compile flags: /Ogsp
; File c:\program files (x86)\microsoft visual studio 10.0\vc\include\xmemory
;	COMDAT ??0?$allocator@K@std@@QAE@XZ
_TEXT	SEGMENT
??0?$allocator@K@std@@QAE@XZ PROC			; std::allocator<unsigned long>::allocator<unsigned long>, COMDAT
; _this$ = ecx

; 161  : 	_ALLOCATOR() _THROW0()

  00000	8b c1		 mov	 eax, ecx

; 162  : 		{	// construct default allocator (do nothing)
; 163  : 		}

  00002	c3		 ret	 0
??0?$allocator@K@std@@QAE@XZ ENDP			; std::allocator<unsigned long>::allocator<unsigned long>
_TEXT	ENDS
PUBLIC	??_C@_0BD@OLBABOEK@vector?$DMT?$DO?5too?5long?$AA@ ; `string'
PUBLIC	?_Xlen@?$vector@VioHashString@@V?$allocator@VioHashString@@@std@@@std@@IBEXXZ ; std::vector<ioHashString,std::allocator<ioHashString> >::_Xlen
EXTRN	__imp_?_Xlength_error@std@@YAXPBD@Z:PROC
;	COMDAT ??_C@_0BD@OLBABOEK@vector?$DMT?$DO?5too?5long?$AA@
; File c:\program files (x86)\microsoft visual studio 10.0\vc\include\vector
CONST	SEGMENT
??_C@_0BD@OLBABOEK@vector?$DMT?$DO?5too?5long?$AA@ DB 'vector<T> too long'
	DB	00H						; `string'
; Function compile flags: /Ogsp
CONST	ENDS
;	COMDAT ?_Xlen@?$vector@VioHashString@@V?$allocator@VioHashString@@@std@@@std@@IBEXXZ
_TEXT	SEGMENT
?_Xlen@?$vector@VioHashString@@V?$allocator@VioHashString@@@std@@@std@@IBEXXZ PROC ; std::vector<ioHashString,std::allocator<ioHashString> >::_Xlen, COMDAT
; _this$ = ecx

; 1427 : 		_Xlength_error("vector<T> too long");

  00000	68 00 00 00 00	 push	 OFFSET ??_C@_0BD@OLBABOEK@vector?$DMT?$DO?5too?5long?$AA@
  00005	ff 15 00 00 00
	00		 call	 DWORD PTR __imp_?_Xlength_error@std@@YAXPBD@Z
$LN4@Xlen:
$LN3@Xlen:
  0000b	cc		 int	 3
?_Xlen@?$vector@VioHashString@@V?$allocator@VioHashString@@@std@@@std@@IBEXXZ ENDP ; std::vector<ioHashString,std::allocator<ioHashString> >::_Xlen
_TEXT	ENDS
PUBLIC	?deallocate@?$allocator@VioHashString@@@std@@QAEXPAVioHashString@@I@Z ; std::allocator<ioHashString>::deallocate
; Function compile flags: /Ogsp
; File c:\program files (x86)\microsoft visual studio 10.0\vc\include\xmemory
;	COMDAT ?deallocate@?$allocator@VioHashString@@@std@@QAEXPAVioHashString@@I@Z
_TEXT	SEGMENT
__Ptr$ = 8						; size = 4
___formal$ = 12						; size = 4
?deallocate@?$allocator@VioHashString@@@std@@QAEXPAVioHashString@@I@Z PROC ; std::allocator<ioHashString>::deallocate, COMDAT
; _this$ = ecx

; 181  : 		{	// deallocate object at _Ptr, ignore size

  00000	55		 push	 ebp
  00001	8b ec		 mov	 ebp, esp

; 182  : 		::operator delete(_Ptr);

  00003	ff 75 08	 push	 DWORD PTR __Ptr$[ebp]
  00006	e8 00 00 00 00	 call	 ??3@YAXPAX@Z		; operator delete
  0000b	59		 pop	 ecx

; 183  : 		}

  0000c	5d		 pop	 ebp
  0000d	c2 08 00	 ret	 8
?deallocate@?$allocator@VioHashString@@@std@@QAEXPAVioHashString@@I@Z ENDP ; std::allocator<ioHashString>::deallocate
_TEXT	ENDS
PUBLIC	??0?$allocator@UWeaponInfo@@@std@@QAE@ABV01@@Z	; std::allocator<WeaponInfo>::allocator<WeaponInfo>
; Function compile flags: /Ogsp
;	COMDAT ??0?$allocator@UWeaponInfo@@@std@@QAE@ABV01@@Z
_TEXT	SEGMENT
___formal$ = 8						; size = 4
??0?$allocator@UWeaponInfo@@@std@@QAE@ABV01@@Z PROC	; std::allocator<WeaponInfo>::allocator<WeaponInfo>, COMDAT
; _this$ = ecx

; 165  : 	_ALLOCATOR(const _ALLOCATOR<_Ty>&) _THROW0()

  00000	8b c1		 mov	 eax, ecx

; 166  : 		{	// construct by copying (do nothing)
; 167  : 		}

  00002	c2 04 00	 ret	 4
??0?$allocator@UWeaponInfo@@@std@@QAE@ABV01@@Z ENDP	; std::allocator<WeaponInfo>::allocator<WeaponInfo>
_TEXT	ENDS
PUBLIC	?deallocate@?$allocator@UWeaponInfo@@@std@@QAEXPAUWeaponInfo@@I@Z ; std::allocator<WeaponInfo>::deallocate
; Function compile flags: /Ogsp
;	COMDAT ?deallocate@?$allocator@UWeaponInfo@@@std@@QAEXPAUWeaponInfo@@I@Z
_TEXT	SEGMENT
__Ptr$ = 8						; size = 4
___formal$ = 12						; size = 4
?deallocate@?$allocator@UWeaponInfo@@@std@@QAEXPAUWeaponInfo@@I@Z PROC ; std::allocator<WeaponInfo>::deallocate, COMDAT
; _this$ = ecx

; 181  : 		{	// deallocate object at _Ptr, ignore size

  00000	55		 push	 ebp
  00001	8b ec		 mov	 ebp, esp

; 182  : 		::operator delete(_Ptr);

  00003	ff 75 08	 push	 DWORD PTR __Ptr$[ebp]
  00006	e8 00 00 00 00	 call	 ??3@YAXPAX@Z		; operator delete
  0000b	59		 pop	 ecx

; 183  : 		}

  0000c	5d		 pop	 ebp
  0000d	c2 08 00	 ret	 8
?deallocate@?$allocator@UWeaponInfo@@@std@@QAEXPAUWeaponInfo@@I@Z ENDP ; std::allocator<WeaponInfo>::deallocate
_TEXT	ENDS
PUBLIC	??0?$allocator@UForceInfo@@@std@@QAE@ABV01@@Z	; std::allocator<ForceInfo>::allocator<ForceInfo>
; Function compile flags: /Ogsp
;	COMDAT ??0?$allocator@UForceInfo@@@std@@QAE@ABV01@@Z
_TEXT	SEGMENT
___formal$ = 8						; size = 4
??0?$allocator@UForceInfo@@@std@@QAE@ABV01@@Z PROC	; std::allocator<ForceInfo>::allocator<ForceInfo>, COMDAT
; _this$ = ecx

; 165  : 	_ALLOCATOR(const _ALLOCATOR<_Ty>&) _THROW0()

  00000	8b c1		 mov	 eax, ecx

; 166  : 		{	// construct by copying (do nothing)
; 167  : 		}

  00002	c2 04 00	 ret	 4
??0?$allocator@UForceInfo@@@std@@QAE@ABV01@@Z ENDP	; std::allocator<ForceInfo>::allocator<ForceInfo>
_TEXT	ENDS
PUBLIC	?deallocate@?$allocator@UForceInfo@@@std@@QAEXPAUForceInfo@@I@Z ; std::allocator<ForceInfo>::deallocate
; Function compile flags: /Ogsp
;	COMDAT ?deallocate@?$allocator@UForceInfo@@@std@@QAEXPAUForceInfo@@I@Z
_TEXT	SEGMENT
__Ptr$ = 8						; size = 4
___formal$ = 12						; size = 4
?deallocate@?$allocator@UForceInfo@@@std@@QAEXPAUForceInfo@@I@Z PROC ; std::allocator<ForceInfo>::deallocate, COMDAT
; _this$ = ecx

; 181  : 		{	// deallocate object at _Ptr, ignore size

  00000	55		 push	 ebp
  00001	8b ec		 mov	 ebp, esp

; 182  : 		::operator delete(_Ptr);

  00003	ff 75 08	 push	 DWORD PTR __Ptr$[ebp]
  00006	e8 00 00 00 00	 call	 ??3@YAXPAX@Z		; operator delete
  0000b	59		 pop	 ecx

; 183  : 		}

  0000c	5d		 pop	 ebp
  0000d	c2 08 00	 ret	 8
?deallocate@?$allocator@UForceInfo@@@std@@QAEXPAUForceInfo@@I@Z ENDP ; std::allocator<ForceInfo>::deallocate
_TEXT	ENDS
PUBLIC	?capacity@?$vector@KV?$allocator@K@std@@@std@@QBEIXZ ; std::vector<unsigned long,std::allocator<unsigned long> >::capacity
; Function compile flags: /Ogsp
; File c:\program files (x86)\microsoft visual studio 10.0\vc\include\vector
;	COMDAT ?capacity@?$vector@KV?$allocator@K@std@@@std@@QBEIXZ
_TEXT	SEGMENT
?capacity@?$vector@KV?$allocator@K@std@@@std@@QBEIXZ PROC ; std::vector<unsigned long,std::allocator<unsigned long> >::capacity, COMDAT
; _this$ = ecx

; 777  : 		return (this->_Myend - this->_Myfirst);

  00000	8b 41 08	 mov	 eax, DWORD PTR [ecx+8]
  00003	2b 01		 sub	 eax, DWORD PTR [ecx]
  00005	c1 f8 02	 sar	 eax, 2

; 778  : 		}

  00008	c3		 ret	 0
?capacity@?$vector@KV?$allocator@K@std@@@std@@QBEIXZ ENDP ; std::vector<unsigned long,std::allocator<unsigned long> >::capacity
_TEXT	ENDS
PUBLIC	?_Xlen@?$vector@KV?$allocator@K@std@@@std@@IBEXXZ ; std::vector<unsigned long,std::allocator<unsigned long> >::_Xlen
; Function compile flags: /Ogsp
;	COMDAT ?_Xlen@?$vector@KV?$allocator@K@std@@@std@@IBEXXZ
_TEXT	SEGMENT
?_Xlen@?$vector@KV?$allocator@K@std@@@std@@IBEXXZ PROC	; std::vector<unsigned long,std::allocator<unsigned long> >::_Xlen, COMDAT
; _this$ = ecx

; 1427 : 		_Xlength_error("vector<T> too long");

  00000	68 00 00 00 00	 push	 OFFSET ??_C@_0BD@OLBABOEK@vector?$DMT?$DO?5too?5long?$AA@
  00005	ff 15 00 00 00
	00		 call	 DWORD PTR __imp_?_Xlength_error@std@@YAXPBD@Z
$LN4@Xlen@2:
$LN3@Xlen@2:
  0000b	cc		 int	 3
?_Xlen@?$vector@KV?$allocator@K@std@@@std@@IBEXXZ ENDP	; std::vector<unsigned long,std::allocator<unsigned long> >::_Xlen
_TEXT	ENDS
PUBLIC	??0?$allocator@K@std@@QAE@ABV01@@Z		; std::allocator<unsigned long>::allocator<unsigned long>
; Function compile flags: /Ogsp
; File c:\program files (x86)\microsoft visual studio 10.0\vc\include\xmemory
;	COMDAT ??0?$allocator@K@std@@QAE@ABV01@@Z
_TEXT	SEGMENT
___formal$ = 8						; size = 4
??0?$allocator@K@std@@QAE@ABV01@@Z PROC			; std::allocator<unsigned long>::allocator<unsigned long>, COMDAT
; _this$ = ecx

; 165  : 	_ALLOCATOR(const _ALLOCATOR<_Ty>&) _THROW0()

  00000	8b c1		 mov	 eax, ecx

; 166  : 		{	// construct by copying (do nothing)
; 167  : 		}

  00002	c2 04 00	 ret	 4
??0?$allocator@K@std@@QAE@ABV01@@Z ENDP			; std::allocator<unsigned long>::allocator<unsigned long>
_TEXT	ENDS
PUBLIC	?deallocate@?$allocator@K@std@@QAEXPAKI@Z	; std::allocator<unsigned long>::deallocate
; Function compile flags: /Ogsp
;	COMDAT ?deallocate@?$allocator@K@std@@QAEXPAKI@Z
_TEXT	SEGMENT
__Ptr$ = 8						; size = 4
___formal$ = 12						; size = 4
?deallocate@?$allocator@K@std@@QAEXPAKI@Z PROC		; std::allocator<unsigned long>::deallocate, COMDAT
; _this$ = ecx

; 181  : 		{	// deallocate object at _Ptr, ignore size

  00000	55		 push	 ebp
  00001	8b ec		 mov	 ebp, esp

; 182  : 		::operator delete(_Ptr);

  00003	ff 75 08	 push	 DWORD PTR __Ptr$[ebp]
  00006	e8 00 00 00 00	 call	 ??3@YAXPAX@Z		; operator delete
  0000b	59		 pop	 ecx

; 183  : 		}

  0000c	5d		 pop	 ebp
  0000d	c2 08 00	 ret	 8
?deallocate@?$allocator@K@std@@QAEXPAKI@Z ENDP		; std::allocator<unsigned long>::deallocate
_TEXT	ENDS
PUBLIC	??0?$_Vector_const_iterator@V?$_Vector_val@VioHashString@@V?$allocator@VioHashString@@@std@@@std@@@std@@QAE@PAVioHashString@@PBU_Container_base0@1@@Z ; std::_Vector_const_iterator<std::_Vector_val<ioHashString,std::allocator<ioHashString> > >::_Vector_const_iterator<std::_Vector_val<ioHashString,std::allocator<ioHashString> > >
; Function compile flags: /Ogsp
; File c:\program files (x86)\microsoft visual studio 10.0\vc\include\vector
;	COMDAT ??0?$_Vector_const_iterator@V?$_Vector_val@VioHashString@@V?$allocator@VioHashString@@@std@@@std@@@std@@QAE@PAVioHashString@@PBU_Container_base0@1@@Z
_TEXT	SEGMENT
__Parg$ = 8						; size = 4
__Pvector$ = 12						; size = 4
??0?$_Vector_const_iterator@V?$_Vector_val@VioHashString@@V?$allocator@VioHashString@@@std@@@std@@@std@@QAE@PAVioHashString@@PBU_Container_base0@1@@Z PROC ; std::_Vector_const_iterator<std::_Vector_val<ioHashString,std::allocator<ioHashString> > >::_Vector_const_iterator<std::_Vector_val<ioHashString,std::allocator<ioHashString> > >, COMDAT
; _this$ = ecx

; 45   : 		{	// construct with pointer _Parg

  00000	55		 push	 ebp
  00001	8b ec		 mov	 ebp, esp
  00003	8b c1		 mov	 eax, ecx
  00005	8b 4d 08	 mov	 ecx, DWORD PTR __Parg$[ebp]
  00008	89 08		 mov	 DWORD PTR [eax], ecx

; 46   : 		this->_Adopt(_Pvector);
; 47   : 		}

  0000a	5d		 pop	 ebp
  0000b	c2 08 00	 ret	 8
??0?$_Vector_const_iterator@V?$_Vector_val@VioHashString@@V?$allocator@VioHashString@@@std@@@std@@@std@@QAE@PAVioHashString@@PBU_Container_base0@1@@Z ENDP ; std::_Vector_const_iterator<std::_Vector_val<ioHashString,std::allocator<ioHashString> > >::_Vector_const_iterator<std::_Vector_val<ioHashString,std::allocator<ioHashString> > >
_TEXT	ENDS
PUBLIC	??0?$_Vector_iterator@V?$_Vector_val@VioHashString@@V?$allocator@VioHashString@@@std@@@std@@@std@@QAE@PAVioHashString@@PBU_Container_base0@1@@Z ; std::_Vector_iterator<std::_Vector_val<ioHashString,std::allocator<ioHashString> > >::_Vector_iterator<std::_Vector_val<ioHashString,std::allocator<ioHashString> > >
; Function compile flags: /Ogsp
;	COMDAT ??0?$_Vector_iterator@V?$_Vector_val@VioHashString@@V?$allocator@VioHashString@@@std@@@std@@@std@@QAE@PAVioHashString@@PBU_Container_base0@1@@Z
_TEXT	SEGMENT
__Parg$ = 8						; size = 4
__Pvector$ = 12						; size = 4
??0?$_Vector_iterator@V?$_Vector_val@VioHashString@@V?$allocator@VioHashString@@@std@@@std@@@std@@QAE@PAVioHashString@@PBU_Container_base0@1@@Z PROC ; std::_Vector_iterator<std::_Vector_val<ioHashString,std::allocator<ioHashString> > >::_Vector_iterator<std::_Vector_val<ioHashString,std::allocator<ioHashString> > >, COMDAT
; _this$ = ecx

; 304  : 		{	// construct with pointer _Parg

  00000	55		 push	 ebp
  00001	8b ec		 mov	 ebp, esp
  00003	8b c1		 mov	 eax, ecx
  00005	8b 4d 08	 mov	 ecx, DWORD PTR __Parg$[ebp]
  00008	89 08		 mov	 DWORD PTR [eax], ecx

; 305  : 		}

  0000a	5d		 pop	 ebp
  0000b	c2 08 00	 ret	 8
??0?$_Vector_iterator@V?$_Vector_val@VioHashString@@V?$allocator@VioHashString@@@std@@@std@@@std@@QAE@PAVioHashString@@PBU_Container_base0@1@@Z ENDP ; std::_Vector_iterator<std::_Vector_val<ioHashString,std::allocator<ioHashString> > >::_Vector_iterator<std::_Vector_val<ioHashString,std::allocator<ioHashString> > >
_TEXT	ENDS
PUBLIC	?max_size@?$allocator@VioHashString@@@std@@QBEIXZ ; std::allocator<ioHashString>::max_size
; Function compile flags: /Ogsp
; File c:\program files (x86)\microsoft visual studio 10.0\vc\include\xmemory
;	COMDAT ?max_size@?$allocator@VioHashString@@@std@@QBEIXZ
_TEXT	SEGMENT
?max_size@?$allocator@VioHashString@@@std@@QBEIXZ PROC	; std::allocator<ioHashString>::max_size, COMDAT
; _this$ = ecx

; 218  : 		_SIZT _Count = (_SIZT)(-1) / sizeof (_Ty);
; 219  : 		return (0 < _Count ? _Count : 1);

  00000	b8 ff ff ff 0f	 mov	 eax, 268435455		; 0fffffffH

; 220  : 		}

  00005	c3		 ret	 0
?max_size@?$allocator@VioHashString@@@std@@QBEIXZ ENDP	; std::allocator<ioHashString>::max_size
_TEXT	ENDS
PUBLIC	?max_size@?$allocator@K@std@@QBEIXZ		; std::allocator<unsigned long>::max_size
; Function compile flags: /Ogsp
;	COMDAT ?max_size@?$allocator@K@std@@QBEIXZ
_TEXT	SEGMENT
?max_size@?$allocator@K@std@@QBEIXZ PROC		; std::allocator<unsigned long>::max_size, COMDAT
; _this$ = ecx

; 218  : 		_SIZT _Count = (_SIZT)(-1) / sizeof (_Ty);
; 219  : 		return (0 < _Count ? _Count : 1);

  00000	b8 ff ff ff 3f	 mov	 eax, 1073741823		; 3fffffffH

; 220  : 		}

  00005	c3		 ret	 0
?max_size@?$allocator@K@std@@QBEIXZ ENDP		; std::allocator<unsigned long>::max_size
_TEXT	ENDS
PUBLIC	??0?$_Vector_const_iterator@V?$_Vector_val@KV?$allocator@K@std@@@std@@@std@@QAE@PAKPBU_Container_base0@1@@Z ; std::_Vector_const_iterator<std::_Vector_val<unsigned long,std::allocator<unsigned long> > >::_Vector_const_iterator<std::_Vector_val<unsigned long,std::allocator<unsigned long> > >
; Function compile flags: /Ogsp
; File c:\program files (x86)\microsoft visual studio 10.0\vc\include\vector
;	COMDAT ??0?$_Vector_const_iterator@V?$_Vector_val@KV?$allocator@K@std@@@std@@@std@@QAE@PAKPBU_Container_base0@1@@Z
_TEXT	SEGMENT
__Parg$ = 8						; size = 4
__Pvector$ = 12						; size = 4
??0?$_Vector_const_iterator@V?$_Vector_val@KV?$allocator@K@std@@@std@@@std@@QAE@PAKPBU_Container_base0@1@@Z PROC ; std::_Vector_const_iterator<std::_Vector_val<unsigned long,std::allocator<unsigned long> > >::_Vector_const_iterator<std::_Vector_val<unsigned long,std::allocator<unsigned long> > >, COMDAT
; _this$ = ecx

; 45   : 		{	// construct with pointer _Parg

  00000	55		 push	 ebp
  00001	8b ec		 mov	 ebp, esp
  00003	8b c1		 mov	 eax, ecx
  00005	8b 4d 08	 mov	 ecx, DWORD PTR __Parg$[ebp]
  00008	89 08		 mov	 DWORD PTR [eax], ecx

; 46   : 		this->_Adopt(_Pvector);
; 47   : 		}

  0000a	5d		 pop	 ebp
  0000b	c2 08 00	 ret	 8
??0?$_Vector_const_iterator@V?$_Vector_val@KV?$allocator@K@std@@@std@@@std@@QAE@PAKPBU_Container_base0@1@@Z ENDP ; std::_Vector_const_iterator<std::_Vector_val<unsigned long,std::allocator<unsigned long> > >::_Vector_const_iterator<std::_Vector_val<unsigned long,std::allocator<unsigned long> > >
_TEXT	ENDS
PUBLIC	?_Compat@?$_Vector_const_iterator@V?$_Vector_val@VioHashString@@V?$allocator@VioHashString@@@std@@@std@@@std@@QBEXABV12@@Z ; std::_Vector_const_iterator<std::_Vector_val<ioHashString,std::allocator<ioHashString> > >::_Compat
; Function compile flags: /Ogsp
;	COMDAT ?_Compat@?$_Vector_const_iterator@V?$_Vector_val@VioHashString@@V?$allocator@VioHashString@@@std@@@std@@@std@@QBEXABV12@@Z
_TEXT	SEGMENT
___formal$ = 8						; size = 4
?_Compat@?$_Vector_const_iterator@V?$_Vector_val@VioHashString@@V?$allocator@VioHashString@@@std@@@std@@@std@@QBEXABV12@@Z PROC ; std::_Vector_const_iterator<std::_Vector_val<ioHashString,std::allocator<ioHashString> > >::_Compat, COMDAT
; _this$ = ecx

; 253  : 		}

  00000	c2 04 00	 ret	 4
?_Compat@?$_Vector_const_iterator@V?$_Vector_val@VioHashString@@V?$allocator@VioHashString@@@std@@@std@@@std@@QBEXABV12@@Z ENDP ; std::_Vector_const_iterator<std::_Vector_val<ioHashString,std::allocator<ioHashString> > >::_Compat
_TEXT	ENDS
PUBLIC	?_Compat@?$_Vector_const_iterator@V?$_Vector_val@KV?$allocator@K@std@@@std@@@std@@QBEXABV12@@Z ; std::_Vector_const_iterator<std::_Vector_val<unsigned long,std::allocator<unsigned long> > >::_Compat
; Function compile flags: /Ogsp
;	COMDAT ?_Compat@?$_Vector_const_iterator@V?$_Vector_val@KV?$allocator@K@std@@@std@@@std@@QBEXABV12@@Z
_TEXT	SEGMENT
___formal$ = 8						; size = 4
?_Compat@?$_Vector_const_iterator@V?$_Vector_val@KV?$allocator@K@std@@@std@@@std@@QBEXABV12@@Z PROC ; std::_Vector_const_iterator<std::_Vector_val<unsigned long,std::allocator<unsigned long> > >::_Compat, COMDAT
; _this$ = ecx

; 253  : 		}

  00000	c2 04 00	 ret	 4
?_Compat@?$_Vector_const_iterator@V?$_Vector_val@KV?$allocator@K@std@@@std@@@std@@QBEXABV12@@Z ENDP ; std::_Vector_const_iterator<std::_Vector_val<unsigned long,std::allocator<unsigned long> > >::_Compat
_TEXT	ENDS
PUBLIC	__TI2?AVbad_alloc@std@@
PUBLIC	??$_Allocate@VioHashString@@@std@@YAPAVioHashString@@IPAV1@@Z ; std::_Allocate<ioHashString>
PUBLIC	__CTA2?AVbad_alloc@std@@
PUBLIC	__CT??_R0?AVbad_alloc@std@@@8??0bad_alloc@std@@QAE@ABV01@@Z12
PUBLIC	??0bad_alloc@std@@QAE@ABV01@@Z			; std::bad_alloc::bad_alloc
PUBLIC	__CT??_R0?AVexception@std@@@8??0exception@std@@QAE@ABV01@@Z12
EXTRN	??2@YAPAXI@Z:PROC				; operator new
EXTRN	__CxxThrowException@8:PROC
EXTRN	??0exception@std@@QAE@ABV01@@Z:PROC		; std::exception::exception
;	COMDAT __CT??_R0?AVexception@std@@@8??0exception@std@@QAE@ABV01@@Z12
; File c:\program files (x86)\microsoft visual studio 10.0\vc\include\exception
xdata$x	SEGMENT
__CT??_R0?AVexception@std@@@8??0exception@std@@QAE@ABV01@@Z12 DD 00H
	DD	FLAT:??_R0?AVexception@std@@@8
	DD	00H
	DD	0ffffffffH
	ORG $+4
	DD	0cH
	DD	FLAT:??0exception@std@@QAE@ABV01@@Z
xdata$x	ENDS
;	COMDAT __CT??_R0?AVbad_alloc@std@@@8??0bad_alloc@std@@QAE@ABV01@@Z12
xdata$x	SEGMENT
__CT??_R0?AVbad_alloc@std@@@8??0bad_alloc@std@@QAE@ABV01@@Z12 DD 00H
	DD	FLAT:??_R0?AVbad_alloc@std@@@8
	DD	00H
	DD	0ffffffffH
	ORG $+4
	DD	0cH
	DD	FLAT:??0bad_alloc@std@@QAE@ABV01@@Z
xdata$x	ENDS
;	COMDAT __CTA2?AVbad_alloc@std@@
xdata$x	SEGMENT
__CTA2?AVbad_alloc@std@@ DD 02H
	DD	FLAT:__CT??_R0?AVbad_alloc@std@@@8??0bad_alloc@std@@QAE@ABV01@@Z12
	DD	FLAT:__CT??_R0?AVexception@std@@@8??0exception@std@@QAE@ABV01@@Z12
xdata$x	ENDS
;	COMDAT __TI2?AVbad_alloc@std@@
xdata$x	SEGMENT
__TI2?AVbad_alloc@std@@ DD 00H
	DD	FLAT:??1bad_alloc@std@@UAE@XZ
	DD	00H
	DD	FLAT:__CTA2?AVbad_alloc@std@@
; Function compile flags: /Ogsp
; File c:\program files (x86)\microsoft visual studio 10.0\vc\include\xmemory
xdata$x	ENDS
;	COMDAT ??$_Allocate@VioHashString@@@std@@YAPAVioHashString@@IPAV1@@Z
_TEXT	SEGMENT
$T553107 = -12						; size = 12
$T553112 = 8						; size = 4
__Count$ = 8						; size = 4
___formal$ = 12						; size = 4
??$_Allocate@VioHashString@@@std@@YAPAVioHashString@@IPAV1@@Z PROC ; std::_Allocate<ioHashString>, COMDAT

; 30   : 	{	// allocate storage for _Count elements of type _Ty

  00000	55		 push	 ebp
  00001	8b ec		 mov	 ebp, esp

; 31   : 	void *_Ptr = 0;
; 32   : 
; 33   : 	if (_Count <= 0)

  00003	8b 4d 08	 mov	 ecx, DWORD PTR __Count$[ebp]
  00006	83 ec 0c	 sub	 esp, 12			; 0000000cH
  00009	33 c0		 xor	 eax, eax
  0000b	85 c9		 test	 ecx, ecx

; 34   : 		_Count = 0;
; 35   : 	else if (((_SIZT)(-1) / sizeof (_Ty) < _Count)

  0000d	74 3c		 je	 SHORT $LN5@Allocate

; 36   : 		|| (_Ptr = ::operator new(_Count * sizeof (_Ty))) == 0)

  0000f	81 f9 ff ff ff
	0f		 cmp	 ecx, 268435455		; 0fffffffH
  00015	77 0e		 ja	 SHORT $LN1@Allocate
  00017	c1 e1 04	 shl	 ecx, 4
  0001a	51		 push	 ecx
  0001b	e8 00 00 00 00	 call	 ??2@YAPAXI@Z		; operator new
  00020	59		 pop	 ecx
  00021	85 c0		 test	 eax, eax

; 38   : 
; 39   : 	return ((_Ty _FARQ *)_Ptr);

  00023	75 26		 jne	 SHORT $LN5@Allocate
$LN1@Allocate:

; 37   : 		_THROW_NCEE(bad_alloc, 0);

  00025	83 65 08 00	 and	 DWORD PTR $T553112[ebp], 0
  00029	8d 45 08	 lea	 eax, DWORD PTR $T553112[ebp]
  0002c	50		 push	 eax
  0002d	8d 4d f4	 lea	 ecx, DWORD PTR $T553107[ebp]
  00030	ff 15 00 00 00
	00		 call	 DWORD PTR __imp_??0exception@std@@QAE@ABQBD@Z
  00036	68 00 00 00 00	 push	 OFFSET __TI2?AVbad_alloc@std@@
  0003b	8d 45 f4	 lea	 eax, DWORD PTR $T553107[ebp]
  0003e	50		 push	 eax
  0003f	c7 45 f4 00 00
	00 00		 mov	 DWORD PTR $T553107[ebp], OFFSET ??_7bad_alloc@std@@6B@
  00046	e8 00 00 00 00	 call	 __CxxThrowException@8
$LN10@Allocate:
$LN5@Allocate:

; 40   : 	}

  0004b	c9		 leave
  0004c	c3		 ret	 0
$LN9@Allocate:
??$_Allocate@VioHashString@@@std@@YAPAVioHashString@@IPAV1@@Z ENDP ; std::_Allocate<ioHashString>
_TEXT	ENDS
PUBLIC	??$_Allocate@K@std@@YAPAKIPAK@Z			; std::_Allocate<unsigned long>
; Function compile flags: /Ogsp
;	COMDAT ??$_Allocate@K@std@@YAPAKIPAK@Z
_TEXT	SEGMENT
$T553117 = -12						; size = 12
$T553121 = 8						; size = 4
__Count$ = 8						; size = 4
___formal$ = 12						; size = 4
??$_Allocate@K@std@@YAPAKIPAK@Z PROC			; std::_Allocate<unsigned long>, COMDAT

; 30   : 	{	// allocate storage for _Count elements of type _Ty

  00000	55		 push	 ebp
  00001	8b ec		 mov	 ebp, esp

; 31   : 	void *_Ptr = 0;
; 32   : 
; 33   : 	if (_Count <= 0)

  00003	8b 4d 08	 mov	 ecx, DWORD PTR __Count$[ebp]
  00006	83 ec 0c	 sub	 esp, 12			; 0000000cH
  00009	33 c0		 xor	 eax, eax
  0000b	85 c9		 test	 ecx, ecx

; 34   : 		_Count = 0;
; 35   : 	else if (((_SIZT)(-1) / sizeof (_Ty) < _Count)

  0000d	74 3e		 je	 SHORT $LN5@Allocate@2

; 36   : 		|| (_Ptr = ::operator new(_Count * sizeof (_Ty))) == 0)

  0000f	81 f9 ff ff ff
	3f		 cmp	 ecx, 1073741823		; 3fffffffH
  00015	77 10		 ja	 SHORT $LN1@Allocate@2
  00017	8b c1		 mov	 eax, ecx
  00019	c1 e0 02	 shl	 eax, 2
  0001c	50		 push	 eax
  0001d	e8 00 00 00 00	 call	 ??2@YAPAXI@Z		; operator new
  00022	59		 pop	 ecx
  00023	85 c0		 test	 eax, eax

; 38   : 
; 39   : 	return ((_Ty _FARQ *)_Ptr);

  00025	75 26		 jne	 SHORT $LN5@Allocate@2
$LN1@Allocate@2:

; 37   : 		_THROW_NCEE(bad_alloc, 0);

  00027	83 65 08 00	 and	 DWORD PTR $T553121[ebp], 0
  0002b	8d 45 08	 lea	 eax, DWORD PTR $T553121[ebp]
  0002e	50		 push	 eax
  0002f	8d 4d f4	 lea	 ecx, DWORD PTR $T553117[ebp]
  00032	ff 15 00 00 00
	00		 call	 DWORD PTR __imp_??0exception@std@@QAE@ABQBD@Z
  00038	68 00 00 00 00	 push	 OFFSET __TI2?AVbad_alloc@std@@
  0003d	8d 45 f4	 lea	 eax, DWORD PTR $T553117[ebp]
  00040	50		 push	 eax
  00041	c7 45 f4 00 00
	00 00		 mov	 DWORD PTR $T553117[ebp], OFFSET ??_7bad_alloc@std@@6B@
  00048	e8 00 00 00 00	 call	 __CxxThrowException@8
$LN10@Allocate@2:
$LN5@Allocate@2:

; 40   : 	}

  0004d	c9		 leave
  0004e	c3		 ret	 0
$LN9@Allocate@2:
??$_Allocate@K@std@@YAPAKIPAK@Z ENDP			; std::_Allocate<unsigned long>
_TEXT	ENDS
EXTRN	__imp_??0exception@std@@QAE@ABV01@@Z:PROC
; Function compile flags: /Ogsp
;	COMDAT ??0bad_alloc@std@@QAE@ABV01@@Z
_TEXT	SEGMENT
___that$ = 8						; size = 4
??0bad_alloc@std@@QAE@ABV01@@Z PROC			; std::bad_alloc::bad_alloc, COMDAT
; _this$ = ecx
  00000	55		 push	 ebp
  00001	8b ec		 mov	 ebp, esp
  00003	56		 push	 esi
  00004	ff 75 08	 push	 DWORD PTR ___that$[ebp]
  00007	8b f1		 mov	 esi, ecx
  00009	ff 15 00 00 00
	00		 call	 DWORD PTR __imp_??0exception@std@@QAE@ABV01@@Z
  0000f	c7 06 00 00 00
	00		 mov	 DWORD PTR [esi], OFFSET ??_7bad_alloc@std@@6B@
  00015	8b c6		 mov	 eax, esi
  00017	5e		 pop	 esi
  00018	5d		 pop	 ebp
  00019	c2 04 00	 ret	 4
??0bad_alloc@std@@QAE@ABV01@@Z ENDP			; std::bad_alloc::bad_alloc
_TEXT	ENDS
PUBLIC	??$forward@ABVioHashString@@@std@@YAABVioHashString@@ABV1@@Z ; std::forward<ioHashString const &>
; Function compile flags: /Ogsp
; File c:\program files (x86)\microsoft visual studio 10.0\vc\include\utility
;	COMDAT ??$forward@ABVioHashString@@@std@@YAABVioHashString@@ABV1@@Z
_TEXT	SEGMENT
__Arg$ = 8						; size = 4
??$forward@ABVioHashString@@@std@@YAABVioHashString@@ABV1@@Z PROC ; std::forward<ioHashString const &>, COMDAT

; 78   : 	{	// forward _Arg, given explicitly specified type parameter

  00000	55		 push	 ebp
  00001	8b ec		 mov	 ebp, esp

; 79   : 	return ((_Ty&&)_Arg);

  00003	8b 45 08	 mov	 eax, DWORD PTR __Arg$[ebp]

; 80   : 	}

  00006	5d		 pop	 ebp
  00007	c3		 ret	 0
??$forward@ABVioHashString@@@std@@YAABVioHashString@@ABV1@@Z ENDP ; std::forward<ioHashString const &>
_TEXT	ENDS
PUBLIC	??$forward@AAVioHashString@@@std@@YAAAVioHashString@@AAV1@@Z ; std::forward<ioHashString &>
; Function compile flags: /Ogsp
;	COMDAT ??$forward@AAVioHashString@@@std@@YAAAVioHashString@@AAV1@@Z
_TEXT	SEGMENT
__Arg$ = 8						; size = 4
??$forward@AAVioHashString@@@std@@YAAAVioHashString@@AAV1@@Z PROC ; std::forward<ioHashString &>, COMDAT

; 78   : 	{	// forward _Arg, given explicitly specified type parameter

  00000	55		 push	 ebp
  00001	8b ec		 mov	 ebp, esp

; 79   : 	return ((_Ty&&)_Arg);

  00003	8b 45 08	 mov	 eax, DWORD PTR __Arg$[ebp]

; 80   : 	}

  00006	5d		 pop	 ebp
  00007	c3		 ret	 0
??$forward@AAVioHashString@@@std@@YAAAVioHashString@@AAV1@@Z ENDP ; std::forward<ioHashString &>
_TEXT	ENDS
PUBLIC	??$_Ptr_cat@VioHashString@@V1@@std@@YA?AU_Nonscalar_ptr_iterator_tag@0@PAVioHashString@@0@Z ; std::_Ptr_cat<ioHashString,ioHashString>
; Function compile flags: /Ogsp
; File c:\program files (x86)\microsoft visual studio 10.0\vc\include\xutility
;	COMDAT ??$_Ptr_cat@VioHashString@@V1@@std@@YA?AU_Nonscalar_ptr_iterator_tag@0@PAVioHashString@@0@Z
_TEXT	SEGMENT
__Cat$ = -1						; size = 1
___formal$ = 8						; size = 4
___formal$ = 12						; size = 4
??$_Ptr_cat@VioHashString@@V1@@std@@YA?AU_Nonscalar_ptr_iterator_tag@0@PAVioHashString@@0@Z PROC ; std::_Ptr_cat<ioHashString,ioHashString>, COMDAT

; 516  : 	{	// return pointer category from pointers

  00000	55		 push	 ebp
  00001	8b ec		 mov	 ebp, esp
  00003	51		 push	 ecx

; 517  : 	typename _Ptr_cat_helper<_Elem1, _Elem2>::_Type _Cat;
; 518  : 	return (_Cat);

  00004	8a 45 ff	 mov	 al, BYTE PTR __Cat$[ebp]

; 519  : 	}

  00007	c9		 leave
  00008	c3		 ret	 0
??$_Ptr_cat@VioHashString@@V1@@std@@YA?AU_Nonscalar_ptr_iterator_tag@0@PAVioHashString@@0@Z ENDP ; std::_Ptr_cat<ioHashString,ioHashString>
_TEXT	ENDS
PUBLIC	??$_Ptr_cat@KK@std@@YA?AU_Scalar_ptr_iterator_tag@0@PAK0@Z ; std::_Ptr_cat<unsigned long,unsigned long>
; Function compile flags: /Ogsp
;	COMDAT ??$_Ptr_cat@KK@std@@YA?AU_Scalar_ptr_iterator_tag@0@PAK0@Z
_TEXT	SEGMENT
__Cat$ = -1						; size = 1
___formal$ = 8						; size = 4
___formal$ = 12						; size = 4
??$_Ptr_cat@KK@std@@YA?AU_Scalar_ptr_iterator_tag@0@PAK0@Z PROC ; std::_Ptr_cat<unsigned long,unsigned long>, COMDAT

; 516  : 	{	// return pointer category from pointers

  00000	55		 push	 ebp
  00001	8b ec		 mov	 ebp, esp
  00003	51		 push	 ecx

; 517  : 	typename _Ptr_cat_helper<_Elem1, _Elem2>::_Type _Cat;
; 518  : 	return (_Cat);

  00004	8a 45 ff	 mov	 al, BYTE PTR __Cat$[ebp]

; 519  : 	}

  00007	c9		 leave
  00008	c3		 ret	 0
??$_Ptr_cat@KK@std@@YA?AU_Scalar_ptr_iterator_tag@0@PAK0@Z ENDP ; std::_Ptr_cat<unsigned long,unsigned long>
_TEXT	ENDS
PUBLIC	??$_Ptr_cat@UWeaponInfo@@U1@@std@@YA?AU_Nonscalar_ptr_iterator_tag@0@PAUWeaponInfo@@0@Z ; std::_Ptr_cat<WeaponInfo,WeaponInfo>
; Function compile flags: /Ogsp
;	COMDAT ??$_Ptr_cat@UWeaponInfo@@U1@@std@@YA?AU_Nonscalar_ptr_iterator_tag@0@PAUWeaponInfo@@0@Z
_TEXT	SEGMENT
__Cat$ = -1						; size = 1
___formal$ = 8						; size = 4
___formal$ = 12						; size = 4
??$_Ptr_cat@UWeaponInfo@@U1@@std@@YA?AU_Nonscalar_ptr_iterator_tag@0@PAUWeaponInfo@@0@Z PROC ; std::_Ptr_cat<WeaponInfo,WeaponInfo>, COMDAT

; 516  : 	{	// return pointer category from pointers

  00000	55		 push	 ebp
  00001	8b ec		 mov	 ebp, esp
  00003	51		 push	 ecx

; 517  : 	typename _Ptr_cat_helper<_Elem1, _Elem2>::_Type _Cat;
; 518  : 	return (_Cat);

  00004	8a 45 ff	 mov	 al, BYTE PTR __Cat$[ebp]

; 519  : 	}

  00007	c9		 leave
  00008	c3		 ret	 0
??$_Ptr_cat@UWeaponInfo@@U1@@std@@YA?AU_Nonscalar_ptr_iterator_tag@0@PAUWeaponInfo@@0@Z ENDP ; std::_Ptr_cat<WeaponInfo,WeaponInfo>
_TEXT	ENDS
PUBLIC	??$_Ptr_cat@UForceInfo@@U1@@std@@YA?AU_Nonscalar_ptr_iterator_tag@0@PAUForceInfo@@0@Z ; std::_Ptr_cat<ForceInfo,ForceInfo>
; Function compile flags: /Ogsp
;	COMDAT ??$_Ptr_cat@UForceInfo@@U1@@std@@YA?AU_Nonscalar_ptr_iterator_tag@0@PAUForceInfo@@0@Z
_TEXT	SEGMENT
__Cat$ = -1						; size = 1
___formal$ = 8						; size = 4
___formal$ = 12						; size = 4
??$_Ptr_cat@UForceInfo@@U1@@std@@YA?AU_Nonscalar_ptr_iterator_tag@0@PAUForceInfo@@0@Z PROC ; std::_Ptr_cat<ForceInfo,ForceInfo>, COMDAT

; 516  : 	{	// return pointer category from pointers

  00000	55		 push	 ebp
  00001	8b ec		 mov	 ebp, esp
  00003	51		 push	 ecx

; 517  : 	typename _Ptr_cat_helper<_Elem1, _Elem2>::_Type _Cat;
; 518  : 	return (_Cat);

  00004	8a 45 ff	 mov	 al, BYTE PTR __Cat$[ebp]

; 519  : 	}

  00007	c9		 leave
  00008	c3		 ret	 0
??$_Ptr_cat@UForceInfo@@U1@@std@@YA?AU_Nonscalar_ptr_iterator_tag@0@PAUForceInfo@@0@Z ENDP ; std::_Ptr_cat<ForceInfo,ForceInfo>
_TEXT	ENDS
PUBLIC	??$_Destroy_range@V?$allocator@K@std@@@std@@YAXPAK0AAV?$allocator@K@0@U_Scalar_ptr_iterator_tag@0@@Z ; std::_Destroy_range<std::allocator<unsigned long> >
; Function compile flags: /Ogsp
; File c:\program files (x86)\microsoft visual studio 10.0\vc\include\xmemory
;	COMDAT ??$_Destroy_range@V?$allocator@K@std@@@std@@YAXPAK0AAV?$allocator@K@0@U_Scalar_ptr_iterator_tag@0@@Z
_TEXT	SEGMENT
__First$ = 8						; size = 4
__Last$ = 12						; size = 4
__Al$ = 16						; size = 4
___formal$ = 20						; size = 1
??$_Destroy_range@V?$allocator@K@std@@@std@@YAXPAK0AAV?$allocator@K@0@U_Scalar_ptr_iterator_tag@0@@Z PROC ; std::_Destroy_range<std::allocator<unsigned long> >, COMDAT

; 105  : 	}

  00000	c3		 ret	 0
??$_Destroy_range@V?$allocator@K@std@@@std@@YAXPAK0AAV?$allocator@K@0@U_Scalar_ptr_iterator_tag@0@@Z ENDP ; std::_Destroy_range<std::allocator<unsigned long> >
_TEXT	ENDS
PUBLIC	?size@?$vector@UWeaponInfo@@V?$allocator@UWeaponInfo@@@std@@@std@@QBEIXZ ; std::vector<WeaponInfo,std::allocator<WeaponInfo> >::size
; Function compile flags: /Ogsp
; File c:\program files (x86)\microsoft visual studio 10.0\vc\include\vector
;	COMDAT ?size@?$vector@UWeaponInfo@@V?$allocator@UWeaponInfo@@@std@@@std@@QBEIXZ
_TEXT	SEGMENT
?size@?$vector@UWeaponInfo@@V?$allocator@UWeaponInfo@@@std@@@std@@QBEIXZ PROC ; std::vector<WeaponInfo,std::allocator<WeaponInfo> >::size, COMDAT
; _this$ = ecx

; 879  : 		return (this->_Mylast - this->_Myfirst);

  00000	8b 41 04	 mov	 eax, DWORD PTR [ecx+4]
  00003	2b 01		 sub	 eax, DWORD PTR [ecx]
  00005	6a 28		 push	 40			; 00000028H
  00007	99		 cdq
  00008	59		 pop	 ecx
  00009	f7 f9		 idiv	 ecx

; 880  : 		}

  0000b	c3		 ret	 0
?size@?$vector@UWeaponInfo@@V?$allocator@UWeaponInfo@@@std@@@std@@QBEIXZ ENDP ; std::vector<WeaponInfo,std::allocator<WeaponInfo> >::size
_TEXT	ENDS
PUBLIC	?size@?$vector@UForceInfo@@V?$allocator@UForceInfo@@@std@@@std@@QBEIXZ ; std::vector<ForceInfo,std::allocator<ForceInfo> >::size
; Function compile flags: /Ogsp
;	COMDAT ?size@?$vector@UForceInfo@@V?$allocator@UForceInfo@@@std@@@std@@QBEIXZ
_TEXT	SEGMENT
?size@?$vector@UForceInfo@@V?$allocator@UForceInfo@@@std@@@std@@QBEIXZ PROC ; std::vector<ForceInfo,std::allocator<ForceInfo> >::size, COMDAT
; _this$ = ecx

; 879  : 		return (this->_Mylast - this->_Myfirst);

  00000	8b 41 04	 mov	 eax, DWORD PTR [ecx+4]
  00003	2b 01		 sub	 eax, DWORD PTR [ecx]
  00005	6a 0c		 push	 12			; 0000000cH
  00007	99		 cdq
  00008	59		 pop	 ecx
  00009	f7 f9		 idiv	 ecx

; 880  : 		}

  0000b	c3		 ret	 0
?size@?$vector@UForceInfo@@V?$allocator@UForceInfo@@@std@@@std@@QBEIXZ ENDP ; std::vector<ForceInfo,std::allocator<ForceInfo> >::size
_TEXT	ENDS
PUBLIC	?_Xlen@?$vector@UWeaponInfo@@V?$allocator@UWeaponInfo@@@std@@@std@@IBEXXZ ; std::vector<WeaponInfo,std::allocator<WeaponInfo> >::_Xlen
; Function compile flags: /Ogsp
;	COMDAT ?_Xlen@?$vector@UWeaponInfo@@V?$allocator@UWeaponInfo@@@std@@@std@@IBEXXZ
_TEXT	SEGMENT
?_Xlen@?$vector@UWeaponInfo@@V?$allocator@UWeaponInfo@@@std@@@std@@IBEXXZ PROC ; std::vector<WeaponInfo,std::allocator<WeaponInfo> >::_Xlen, COMDAT
; _this$ = ecx

; 1427 : 		_Xlength_error("vector<T> too long");

  00000	68 00 00 00 00	 push	 OFFSET ??_C@_0BD@OLBABOEK@vector?$DMT?$DO?5too?5long?$AA@
  00005	ff 15 00 00 00
	00		 call	 DWORD PTR __imp_?_Xlength_error@std@@YAXPBD@Z
$LN4@Xlen@3:
$LN3@Xlen@3:
  0000b	cc		 int	 3
?_Xlen@?$vector@UWeaponInfo@@V?$allocator@UWeaponInfo@@@std@@@std@@IBEXXZ ENDP ; std::vector<WeaponInfo,std::allocator<WeaponInfo> >::_Xlen
_TEXT	ENDS
PUBLIC	?_Xlen@?$vector@UForceInfo@@V?$allocator@UForceInfo@@@std@@@std@@IBEXXZ ; std::vector<ForceInfo,std::allocator<ForceInfo> >::_Xlen
; Function compile flags: /Ogsp
;	COMDAT ?_Xlen@?$vector@UForceInfo@@V?$allocator@UForceInfo@@@std@@@std@@IBEXXZ
_TEXT	SEGMENT
?_Xlen@?$vector@UForceInfo@@V?$allocator@UForceInfo@@@std@@@std@@IBEXXZ PROC ; std::vector<ForceInfo,std::allocator<ForceInfo> >::_Xlen, COMDAT
; _this$ = ecx

; 1427 : 		_Xlength_error("vector<T> too long");

  00000	68 00 00 00 00	 push	 OFFSET ??_C@_0BD@OLBABOEK@vector?$DMT?$DO?5too?5long?$AA@
  00005	ff 15 00 00 00
	00		 call	 DWORD PTR __imp_?_Xlength_error@std@@YAXPBD@Z
$LN4@Xlen@4:
$LN3@Xlen@4:
  0000b	cc		 int	 3
?_Xlen@?$vector@UForceInfo@@V?$allocator@UForceInfo@@@std@@@std@@IBEXXZ ENDP ; std::vector<ForceInfo,std::allocator<ForceInfo> >::_Xlen
_TEXT	ENDS
PUBLIC	?max_size@?$allocator@UWeaponInfo@@@std@@QBEIXZ	; std::allocator<WeaponInfo>::max_size
; Function compile flags: /Ogsp
; File c:\program files (x86)\microsoft visual studio 10.0\vc\include\xmemory
;	COMDAT ?max_size@?$allocator@UWeaponInfo@@@std@@QBEIXZ
_TEXT	SEGMENT
?max_size@?$allocator@UWeaponInfo@@@std@@QBEIXZ PROC	; std::allocator<WeaponInfo>::max_size, COMDAT
; _this$ = ecx

; 218  : 		_SIZT _Count = (_SIZT)(-1) / sizeof (_Ty);
; 219  : 		return (0 < _Count ? _Count : 1);

  00000	b8 66 66 66 06	 mov	 eax, 107374182		; 06666666H

; 220  : 		}

  00005	c3		 ret	 0
?max_size@?$allocator@UWeaponInfo@@@std@@QBEIXZ ENDP	; std::allocator<WeaponInfo>::max_size
_TEXT	ENDS
PUBLIC	?max_size@?$allocator@UForceInfo@@@std@@QBEIXZ	; std::allocator<ForceInfo>::max_size
; Function compile flags: /Ogsp
;	COMDAT ?max_size@?$allocator@UForceInfo@@@std@@QBEIXZ
_TEXT	SEGMENT
?max_size@?$allocator@UForceInfo@@@std@@QBEIXZ PROC	; std::allocator<ForceInfo>::max_size, COMDAT
; _this$ = ecx

; 218  : 		_SIZT _Count = (_SIZT)(-1) / sizeof (_Ty);
; 219  : 		return (0 < _Count ? _Count : 1);

  00000	b8 55 55 55 15	 mov	 eax, 357913941		; 15555555H

; 220  : 		}

  00005	c3		 ret	 0
?max_size@?$allocator@UForceInfo@@@std@@QBEIXZ ENDP	; std::allocator<ForceInfo>::max_size
_TEXT	ENDS
PUBLIC	??0?$_Vector_const_iterator@V?$_Vector_val@UWeaponInfo@@V?$allocator@UWeaponInfo@@@std@@@std@@@std@@QAE@PAUWeaponInfo@@PBU_Container_base0@1@@Z ; std::_Vector_const_iterator<std::_Vector_val<WeaponInfo,std::allocator<WeaponInfo> > >::_Vector_const_iterator<std::_Vector_val<WeaponInfo,std::allocator<WeaponInfo> > >
; Function compile flags: /Ogsp
; File c:\program files (x86)\microsoft visual studio 10.0\vc\include\vector
;	COMDAT ??0?$_Vector_const_iterator@V?$_Vector_val@UWeaponInfo@@V?$allocator@UWeaponInfo@@@std@@@std@@@std@@QAE@PAUWeaponInfo@@PBU_Container_base0@1@@Z
_TEXT	SEGMENT
__Parg$ = 8						; size = 4
__Pvector$ = 12						; size = 4
??0?$_Vector_const_iterator@V?$_Vector_val@UWeaponInfo@@V?$allocator@UWeaponInfo@@@std@@@std@@@std@@QAE@PAUWeaponInfo@@PBU_Container_base0@1@@Z PROC ; std::_Vector_const_iterator<std::_Vector_val<WeaponInfo,std::allocator<WeaponInfo> > >::_Vector_const_iterator<std::_Vector_val<WeaponInfo,std::allocator<WeaponInfo> > >, COMDAT
; _this$ = ecx

; 45   : 		{	// construct with pointer _Parg

  00000	55		 push	 ebp
  00001	8b ec		 mov	 ebp, esp
  00003	8b c1		 mov	 eax, ecx
  00005	8b 4d 08	 mov	 ecx, DWORD PTR __Parg$[ebp]
  00008	89 08		 mov	 DWORD PTR [eax], ecx

; 46   : 		this->_Adopt(_Pvector);
; 47   : 		}

  0000a	5d		 pop	 ebp
  0000b	c2 08 00	 ret	 8
??0?$_Vector_const_iterator@V?$_Vector_val@UWeaponInfo@@V?$allocator@UWeaponInfo@@@std@@@std@@@std@@QAE@PAUWeaponInfo@@PBU_Container_base0@1@@Z ENDP ; std::_Vector_const_iterator<std::_Vector_val<WeaponInfo,std::allocator<WeaponInfo> > >::_Vector_const_iterator<std::_Vector_val<WeaponInfo,std::allocator<WeaponInfo> > >
_TEXT	ENDS
PUBLIC	??0?$_Vector_const_iterator@V?$_Vector_val@UForceInfo@@V?$allocator@UForceInfo@@@std@@@std@@@std@@QAE@PAUForceInfo@@PBU_Container_base0@1@@Z ; std::_Vector_const_iterator<std::_Vector_val<ForceInfo,std::allocator<ForceInfo> > >::_Vector_const_iterator<std::_Vector_val<ForceInfo,std::allocator<ForceInfo> > >
; Function compile flags: /Ogsp
;	COMDAT ??0?$_Vector_const_iterator@V?$_Vector_val@UForceInfo@@V?$allocator@UForceInfo@@@std@@@std@@@std@@QAE@PAUForceInfo@@PBU_Container_base0@1@@Z
_TEXT	SEGMENT
__Parg$ = 8						; size = 4
__Pvector$ = 12						; size = 4
??0?$_Vector_const_iterator@V?$_Vector_val@UForceInfo@@V?$allocator@UForceInfo@@@std@@@std@@@std@@QAE@PAUForceInfo@@PBU_Container_base0@1@@Z PROC ; std::_Vector_const_iterator<std::_Vector_val<ForceInfo,std::allocator<ForceInfo> > >::_Vector_const_iterator<std::_Vector_val<ForceInfo,std::allocator<ForceInfo> > >, COMDAT
; _this$ = ecx

; 45   : 		{	// construct with pointer _Parg

  00000	55		 push	 ebp
  00001	8b ec		 mov	 ebp, esp
  00003	8b c1		 mov	 eax, ecx
  00005	8b 4d 08	 mov	 ecx, DWORD PTR __Parg$[ebp]
  00008	89 08		 mov	 DWORD PTR [eax], ecx

; 46   : 		this->_Adopt(_Pvector);
; 47   : 		}

  0000a	5d		 pop	 ebp
  0000b	c2 08 00	 ret	 8
??0?$_Vector_const_iterator@V?$_Vector_val@UForceInfo@@V?$allocator@UForceInfo@@@std@@@std@@@std@@QAE@PAUForceInfo@@PBU_Container_base0@1@@Z ENDP ; std::_Vector_const_iterator<std::_Vector_val<ForceInfo,std::allocator<ForceInfo> > >::_Vector_const_iterator<std::_Vector_val<ForceInfo,std::allocator<ForceInfo> > >
_TEXT	ENDS
PUBLIC	?_Compat@?$_Vector_const_iterator@V?$_Vector_val@UWeaponInfo@@V?$allocator@UWeaponInfo@@@std@@@std@@@std@@QBEXABV12@@Z ; std::_Vector_const_iterator<std::_Vector_val<WeaponInfo,std::allocator<WeaponInfo> > >::_Compat
; Function compile flags: /Ogsp
;	COMDAT ?_Compat@?$_Vector_const_iterator@V?$_Vector_val@UWeaponInfo@@V?$allocator@UWeaponInfo@@@std@@@std@@@std@@QBEXABV12@@Z
_TEXT	SEGMENT
___formal$ = 8						; size = 4
?_Compat@?$_Vector_const_iterator@V?$_Vector_val@UWeaponInfo@@V?$allocator@UWeaponInfo@@@std@@@std@@@std@@QBEXABV12@@Z PROC ; std::_Vector_const_iterator<std::_Vector_val<WeaponInfo,std::allocator<WeaponInfo> > >::_Compat, COMDAT
; _this$ = ecx

; 253  : 		}

  00000	c2 04 00	 ret	 4
?_Compat@?$_Vector_const_iterator@V?$_Vector_val@UWeaponInfo@@V?$allocator@UWeaponInfo@@@std@@@std@@@std@@QBEXABV12@@Z ENDP ; std::_Vector_const_iterator<std::_Vector_val<WeaponInfo,std::allocator<WeaponInfo> > >::_Compat
_TEXT	ENDS
PUBLIC	?_Compat@?$_Vector_const_iterator@V?$_Vector_val@UForceInfo@@V?$allocator@UForceInfo@@@std@@@std@@@std@@QBEXABV12@@Z ; std::_Vector_const_iterator<std::_Vector_val<ForceInfo,std::allocator<ForceInfo> > >::_Compat
; Function compile flags: /Ogsp
;	COMDAT ?_Compat@?$_Vector_const_iterator@V?$_Vector_val@UForceInfo@@V?$allocator@UForceInfo@@@std@@@std@@@std@@QBEXABV12@@Z
_TEXT	SEGMENT
___formal$ = 8						; size = 4
?_Compat@?$_Vector_const_iterator@V?$_Vector_val@UForceInfo@@V?$allocator@UForceInfo@@@std@@@std@@@std@@QBEXABV12@@Z PROC ; std::_Vector_const_iterator<std::_Vector_val<ForceInfo,std::allocator<ForceInfo> > >::_Compat, COMDAT
; _this$ = ecx

; 253  : 		}

  00000	c2 04 00	 ret	 4
?_Compat@?$_Vector_const_iterator@V?$_Vector_val@UForceInfo@@V?$allocator@UForceInfo@@@std@@@std@@@std@@QBEXABV12@@Z ENDP ; std::_Vector_const_iterator<std::_Vector_val<ForceInfo,std::allocator<ForceInfo> > >::_Compat
_TEXT	ENDS
PUBLIC	??$move@AAVioHashString@@@std@@YA$$QAVioHashString@@AAV1@@Z ; std::move<ioHashString &>
; Function compile flags: /Ogsp
; File c:\program files (x86)\microsoft visual studio 10.0\vc\include\utility
;	COMDAT ??$move@AAVioHashString@@@std@@YA$$QAVioHashString@@AAV1@@Z
_TEXT	SEGMENT
__Arg$ = 8						; size = 4
??$move@AAVioHashString@@@std@@YA$$QAVioHashString@@AAV1@@Z PROC ; std::move<ioHashString &>, COMDAT

; 86   : 	{	// forward _Arg as movable

  00000	55		 push	 ebp
  00001	8b ec		 mov	 ebp, esp

; 87   : 	return ((typename tr1::_Remove_reference<_Ty>::_Type&&)_Arg);

  00003	8b 45 08	 mov	 eax, DWORD PTR __Arg$[ebp]

; 88   : 	}

  00006	5d		 pop	 ebp
  00007	c3		 ret	 0
??$move@AAVioHashString@@@std@@YA$$QAVioHashString@@AAV1@@Z ENDP ; std::move<ioHashString &>
_TEXT	ENDS
PUBLIC	??$_Val_type@PAK@std@@YAPAKPAK@Z		; std::_Val_type<unsigned long *>
; Function compile flags: /Ogsp
; File c:\program files (x86)\microsoft visual studio 10.0\vc\include\xutility
;	COMDAT ??$_Val_type@PAK@std@@YAPAKPAK@Z
_TEXT	SEGMENT
___formal$ = 8						; size = 4
??$_Val_type@PAK@std@@YAPAKPAK@Z PROC			; std::_Val_type<unsigned long *>, COMDAT

; 790  : 	return (0);

  00000	33 c0		 xor	 eax, eax

; 791  : 	}

  00002	c3		 ret	 0
??$_Val_type@PAK@std@@YAPAKPAK@Z ENDP			; std::_Val_type<unsigned long *>
_TEXT	ENDS
PUBLIC	??$_Uninit_move@KKK@std@@YAPAKPAK00AAV?$allocator@K@0@0U_Scalar_ptr_iterator_tag@0@@Z ; std::_Uninit_move<unsigned long,unsigned long,unsigned long>
EXTRN	__imp__memmove:PROC
; Function compile flags: /Ogsp
; File c:\program files (x86)\microsoft visual studio 10.0\vc\include\memory
;	COMDAT ??$_Uninit_move@KKK@std@@YAPAKPAK00AAV?$allocator@K@0@0U_Scalar_ptr_iterator_tag@0@@Z
_TEXT	SEGMENT
__First$ = 8						; size = 4
__Last$ = 12						; size = 4
__Dest$ = 16						; size = 4
___formal$ = 20						; size = 4
___formal$ = 24						; size = 4
___formal$ = 28						; size = 1
??$_Uninit_move@KKK@std@@YAPAKPAK00AAV?$allocator@K@0@0U_Scalar_ptr_iterator_tag@0@@Z PROC ; std::_Uninit_move<unsigned long,unsigned long,unsigned long>, COMDAT

; 456  : 	{	// move [_First, _Last) to raw _Dest, scalar type

  00000	55		 push	 ebp
  00001	8b ec		 mov	 ebp, esp
  00003	56		 push	 esi

; 457  : 	_DEBUG_RANGE(_First, _Last);
; 458  : 	_DEBUG_POINTER(_Dest);
; 459  : 	size_t _Count = (size_t)(_Last - _First);

  00004	8b 75 0c	 mov	 esi, DWORD PTR __Last$[ebp]
  00007	2b 75 08	 sub	 esi, DWORD PTR __First$[ebp]
  0000a	c1 fe 02	 sar	 esi, 2

; 460  : 	return ((_Ty2 *)_CSTD memmove(&*_Dest, &*_First,
; 461  : 		_Count * sizeof (*_First)) + _Count);	// NB: non-overlapping move

  0000d	c1 e6 02	 shl	 esi, 2
  00010	56		 push	 esi
  00011	ff 75 08	 push	 DWORD PTR __First$[ebp]
  00014	ff 75 10	 push	 DWORD PTR __Dest$[ebp]
  00017	ff 15 00 00 00
	00		 call	 DWORD PTR __imp__memmove
  0001d	83 c4 0c	 add	 esp, 12			; 0000000cH
  00020	03 c6		 add	 eax, esi
  00022	5e		 pop	 esi

; 462  : 	}

  00023	5d		 pop	 ebp
  00024	c3		 ret	 0
??$_Uninit_move@KKK@std@@YAPAKPAK00AAV?$allocator@K@0@0U_Scalar_ptr_iterator_tag@0@@Z ENDP ; std::_Uninit_move<unsigned long,unsigned long,unsigned long>
_TEXT	ENDS
PUBLIC	??$_Allocate@UWeaponInfo@@@std@@YAPAUWeaponInfo@@IPAU1@@Z ; std::_Allocate<WeaponInfo>
; Function compile flags: /Ogsp
; File c:\program files (x86)\microsoft visual studio 10.0\vc\include\xmemory
;	COMDAT ??$_Allocate@UWeaponInfo@@@std@@YAPAUWeaponInfo@@IPAU1@@Z
_TEXT	SEGMENT
$T553193 = -12						; size = 12
$T553197 = 8						; size = 4
__Count$ = 8						; size = 4
___formal$ = 12						; size = 4
??$_Allocate@UWeaponInfo@@@std@@YAPAUWeaponInfo@@IPAU1@@Z PROC ; std::_Allocate<WeaponInfo>, COMDAT

; 30   : 	{	// allocate storage for _Count elements of type _Ty

  00000	55		 push	 ebp
  00001	8b ec		 mov	 ebp, esp

; 31   : 	void *_Ptr = 0;
; 32   : 
; 33   : 	if (_Count <= 0)

  00003	8b 4d 08	 mov	 ecx, DWORD PTR __Count$[ebp]
  00006	83 ec 0c	 sub	 esp, 12			; 0000000cH
  00009	33 c0		 xor	 eax, eax
  0000b	85 c9		 test	 ecx, ecx

; 34   : 		_Count = 0;
; 35   : 	else if (((_SIZT)(-1) / sizeof (_Ty) < _Count)

  0000d	74 3c		 je	 SHORT $LN5@Allocate@3

; 36   : 		|| (_Ptr = ::operator new(_Count * sizeof (_Ty))) == 0)

  0000f	81 f9 66 66 66
	06		 cmp	 ecx, 107374182		; 06666666H
  00015	77 0e		 ja	 SHORT $LN1@Allocate@3
  00017	6b c9 28	 imul	 ecx, 40			; 00000028H
  0001a	51		 push	 ecx
  0001b	e8 00 00 00 00	 call	 ??2@YAPAXI@Z		; operator new
  00020	59		 pop	 ecx
  00021	85 c0		 test	 eax, eax

; 38   : 
; 39   : 	return ((_Ty _FARQ *)_Ptr);

  00023	75 26		 jne	 SHORT $LN5@Allocate@3
$LN1@Allocate@3:

; 37   : 		_THROW_NCEE(bad_alloc, 0);

  00025	83 65 08 00	 and	 DWORD PTR $T553197[ebp], 0
  00029	8d 45 08	 lea	 eax, DWORD PTR $T553197[ebp]
  0002c	50		 push	 eax
  0002d	8d 4d f4	 lea	 ecx, DWORD PTR $T553193[ebp]
  00030	ff 15 00 00 00
	00		 call	 DWORD PTR __imp_??0exception@std@@QAE@ABQBD@Z
  00036	68 00 00 00 00	 push	 OFFSET __TI2?AVbad_alloc@std@@
  0003b	8d 45 f4	 lea	 eax, DWORD PTR $T553193[ebp]
  0003e	50		 push	 eax
  0003f	c7 45 f4 00 00
	00 00		 mov	 DWORD PTR $T553193[ebp], OFFSET ??_7bad_alloc@std@@6B@
  00046	e8 00 00 00 00	 call	 __CxxThrowException@8
$LN10@Allocate@3:
$LN5@Allocate@3:

; 40   : 	}

  0004b	c9		 leave
  0004c	c3		 ret	 0
$LN9@Allocate@3:
??$_Allocate@UWeaponInfo@@@std@@YAPAUWeaponInfo@@IPAU1@@Z ENDP ; std::_Allocate<WeaponInfo>
_TEXT	ENDS
PUBLIC	??$_Allocate@UForceInfo@@@std@@YAPAUForceInfo@@IPAU1@@Z ; std::_Allocate<ForceInfo>
; Function compile flags: /Ogsp
;	COMDAT ??$_Allocate@UForceInfo@@@std@@YAPAUForceInfo@@IPAU1@@Z
_TEXT	SEGMENT
$T553202 = -12						; size = 12
$T553206 = 8						; size = 4
__Count$ = 8						; size = 4
___formal$ = 12						; size = 4
??$_Allocate@UForceInfo@@@std@@YAPAUForceInfo@@IPAU1@@Z PROC ; std::_Allocate<ForceInfo>, COMDAT

; 30   : 	{	// allocate storage for _Count elements of type _Ty

  00000	55		 push	 ebp
  00001	8b ec		 mov	 ebp, esp

; 31   : 	void *_Ptr = 0;
; 32   : 
; 33   : 	if (_Count <= 0)

  00003	8b 4d 08	 mov	 ecx, DWORD PTR __Count$[ebp]
  00006	83 ec 0c	 sub	 esp, 12			; 0000000cH
  00009	33 c0		 xor	 eax, eax
  0000b	85 c9		 test	 ecx, ecx

; 34   : 		_Count = 0;
; 35   : 	else if (((_SIZT)(-1) / sizeof (_Ty) < _Count)

  0000d	74 3c		 je	 SHORT $LN5@Allocate@4

; 36   : 		|| (_Ptr = ::operator new(_Count * sizeof (_Ty))) == 0)

  0000f	81 f9 55 55 55
	15		 cmp	 ecx, 357913941		; 15555555H
  00015	77 0e		 ja	 SHORT $LN1@Allocate@4
  00017	6b c9 0c	 imul	 ecx, 12			; 0000000cH
  0001a	51		 push	 ecx
  0001b	e8 00 00 00 00	 call	 ??2@YAPAXI@Z		; operator new
  00020	59		 pop	 ecx
  00021	85 c0		 test	 eax, eax

; 38   : 
; 39   : 	return ((_Ty _FARQ *)_Ptr);

  00023	75 26		 jne	 SHORT $LN5@Allocate@4
$LN1@Allocate@4:

; 37   : 		_THROW_NCEE(bad_alloc, 0);

  00025	83 65 08 00	 and	 DWORD PTR $T553206[ebp], 0
  00029	8d 45 08	 lea	 eax, DWORD PTR $T553206[ebp]
  0002c	50		 push	 eax
  0002d	8d 4d f4	 lea	 ecx, DWORD PTR $T553202[ebp]
  00030	ff 15 00 00 00
	00		 call	 DWORD PTR __imp_??0exception@std@@QAE@ABQBD@Z
  00036	68 00 00 00 00	 push	 OFFSET __TI2?AVbad_alloc@std@@
  0003b	8d 45 f4	 lea	 eax, DWORD PTR $T553202[ebp]
  0003e	50		 push	 eax
  0003f	c7 45 f4 00 00
	00 00		 mov	 DWORD PTR $T553202[ebp], OFFSET ??_7bad_alloc@std@@6B@
  00046	e8 00 00 00 00	 call	 __CxxThrowException@8
$LN10@Allocate@4:
$LN5@Allocate@4:

; 40   : 	}

  0004b	c9		 leave
  0004c	c3		 ret	 0
$LN9@Allocate@4:
??$_Allocate@UForceInfo@@@std@@YAPAUForceInfo@@IPAU1@@Z ENDP ; std::_Allocate<ForceInfo>
_TEXT	ENDS
PUBLIC	??D?$_Vector_const_iterator@V?$_Vector_val@VioHashString@@V?$allocator@VioHashString@@@std@@@std@@@std@@QBEABVioHashString@@XZ ; std::_Vector_const_iterator<std::_Vector_val<ioHashString,std::allocator<ioHashString> > >::operator*
; Function compile flags: /Ogsp
; File c:\program files (x86)\microsoft visual studio 10.0\vc\include\vector
;	COMDAT ??D?$_Vector_const_iterator@V?$_Vector_val@VioHashString@@V?$allocator@VioHashString@@@std@@@std@@@std@@QBEABVioHashString@@XZ
_TEXT	SEGMENT
??D?$_Vector_const_iterator@V?$_Vector_val@VioHashString@@V?$allocator@VioHashString@@@std@@@std@@@std@@QBEABVioHashString@@XZ PROC ; std::_Vector_const_iterator<std::_Vector_val<ioHashString,std::allocator<ioHashString> > >::operator*, COMDAT
; _this$ = ecx

; 64   :  #if _ITERATOR_DEBUG_LEVEL == 2
; 65   : 		if (this->_Getcont() == 0
; 66   : 			|| this->_Ptr == 0
; 67   : 			|| this->_Ptr < ((_Myvec *)this->_Getcont())->_Myfirst
; 68   : 			|| ((_Myvec *)this->_Getcont())->_Mylast <= this->_Ptr)
; 69   : 			{	// report error
; 70   : 			_DEBUG_ERROR("vector iterator not dereferencable");
; 71   : 			_SCL_SECURE_OUT_OF_RANGE;
; 72   : 			}
; 73   : 
; 74   :  #elif _ITERATOR_DEBUG_LEVEL == 1
; 75   : 		_SCL_SECURE_VALIDATE(this->_Getcont() != 0);
; 76   : 		_SCL_SECURE_VALIDATE_RANGE(
; 77   : 			this->_Ptr != 0
; 78   : 			&& ((_Myvec *)this->_Getcont())->_Myfirst <= this->_Ptr
; 79   : 			&& this->_Ptr < ((_Myvec *)this->_Getcont())->_Mylast);
; 80   :  #endif /* _ITERATOR_DEBUG_LEVEL */
; 81   : 
; 82   : 		__analysis_assume(this->_Ptr != 0);
; 83   : 
; 84   : 		return (*this->_Ptr);

  00000	8b 01		 mov	 eax, DWORD PTR [ecx]

; 85   : 		}

  00002	c3		 ret	 0
??D?$_Vector_const_iterator@V?$_Vector_val@VioHashString@@V?$allocator@VioHashString@@@std@@@std@@@std@@QBEABVioHashString@@XZ ENDP ; std::_Vector_const_iterator<std::_Vector_val<ioHashString,std::allocator<ioHashString> > >::operator*
_TEXT	ENDS
PUBLIC	??E?$_Vector_const_iterator@V?$_Vector_val@VioHashString@@V?$allocator@VioHashString@@@std@@@std@@@std@@QAEAAV01@XZ ; std::_Vector_const_iterator<std::_Vector_val<ioHashString,std::allocator<ioHashString> > >::operator++
; Function compile flags: /Ogsp
;	COMDAT ??E?$_Vector_const_iterator@V?$_Vector_val@VioHashString@@V?$allocator@VioHashString@@@std@@@std@@@std@@QAEAAV01@XZ
_TEXT	SEGMENT
??E?$_Vector_const_iterator@V?$_Vector_val@VioHashString@@V?$allocator@VioHashString@@@std@@@std@@@std@@QAEAAV01@XZ PROC ; std::_Vector_const_iterator<std::_Vector_val<ioHashString,std::allocator<ioHashString> > >::operator++, COMDAT
; _this$ = ecx

; 93   : 		{	// preincrement

  00000	8b c1		 mov	 eax, ecx

; 94   :  #if _ITERATOR_DEBUG_LEVEL == 2
; 95   : 		if (this->_Getcont() == 0
; 96   : 			|| this->_Ptr == 0
; 97   : 			|| ((_Myvec *)this->_Getcont())->_Mylast <= this->_Ptr)
; 98   : 			{	// report error
; 99   : 			_DEBUG_ERROR("vector iterator not incrementable");
; 100  : 			_SCL_SECURE_OUT_OF_RANGE;
; 101  : 			}
; 102  : 
; 103  :  #elif _ITERATOR_DEBUG_LEVEL == 1
; 104  : 		_SCL_SECURE_VALIDATE(this->_Getcont() != 0);
; 105  : 		_SCL_SECURE_VALIDATE_RANGE(
; 106  : 			this->_Ptr != 0
; 107  : 			&& this->_Ptr < ((_Myvec *)this->_Getcont())->_Mylast);
; 108  :  #endif /* _ITERATOR_DEBUG_LEVEL */
; 109  : 
; 110  : 		++this->_Ptr;

  00002	83 00 10	 add	 DWORD PTR [eax], 16	; 00000010H

; 111  : 		return (*this);
; 112  : 		}

  00005	c3		 ret	 0
??E?$_Vector_const_iterator@V?$_Vector_val@VioHashString@@V?$allocator@VioHashString@@@std@@@std@@@std@@QAEAAV01@XZ ENDP ; std::_Vector_const_iterator<std::_Vector_val<ioHashString,std::allocator<ioHashString> > >::operator++
_TEXT	ENDS
PUBLIC	??$_Destroy@UForceInfo@@@std@@YAXPAUForceInfo@@@Z ; std::_Destroy<ForceInfo>
; Function compile flags: /Ogsp
; File c:\program files (x86)\microsoft visual studio 10.0\vc\include\xmemory
;	COMDAT ??$_Destroy@UForceInfo@@@std@@YAXPAUForceInfo@@@Z
_TEXT	SEGMENT
__Ptr$ = 8						; size = 4
??$_Destroy@UForceInfo@@@std@@YAXPAUForceInfo@@@Z PROC	; std::_Destroy<ForceInfo>, COMDAT

; 63   : 	_Ptr->~_Ty();
; 64   : 	}

  00000	c3		 ret	 0
??$_Destroy@UForceInfo@@@std@@YAXPAUForceInfo@@@Z ENDP	; std::_Destroy<ForceInfo>
_TEXT	ENDS
PUBLIC	??_GioHashString@@QAEPAXI@Z			; ioHashString::`scalar deleting destructor'
; Function compile flags: /Ogsp
;	COMDAT ??_GioHashString@@QAEPAXI@Z
_TEXT	SEGMENT
___flags$ = 8						; size = 4
??_GioHashString@@QAEPAXI@Z PROC			; ioHashString::`scalar deleting destructor', COMDAT
; _this$ = ecx
  00000	55		 push	 ebp
  00001	8b ec		 mov	 ebp, esp
  00003	56		 push	 esi
  00004	8b f1		 mov	 esi, ecx
  00006	ff 15 00 00 00
	00		 call	 DWORD PTR __imp_??1ioHashString@@QAE@XZ
  0000c	f6 45 08 01	 test	 BYTE PTR ___flags$[ebp], 1
  00010	74 07		 je	 SHORT $LN1@scalar@2
  00012	56		 push	 esi
  00013	e8 00 00 00 00	 call	 ??3@YAXPAX@Z		; operator delete
  00018	59		 pop	 ecx
$LN1@scalar@2:
  00019	8b c6		 mov	 eax, esi
  0001b	5e		 pop	 esi
  0001c	5d		 pop	 ebp
  0001d	c2 04 00	 ret	 4
??_GioHashString@@QAEPAXI@Z ENDP			; ioHashString::`scalar deleting destructor'
_TEXT	ENDS
PUBLIC	??_GWeaponInfo@@QAEPAXI@Z			; WeaponInfo::`scalar deleting destructor'
; Function compile flags: /Ogsp
;	COMDAT ??_GWeaponInfo@@QAEPAXI@Z
_TEXT	SEGMENT
___flags$ = 8						; size = 4
??_GWeaponInfo@@QAEPAXI@Z PROC				; WeaponInfo::`scalar deleting destructor', COMDAT
; _this$ = ecx
  00000	55		 push	 ebp
  00001	8b ec		 mov	 ebp, esp
  00003	56		 push	 esi
  00004	8b f1		 mov	 esi, ecx
  00006	8d 4e 08	 lea	 ecx, DWORD PTR [esi+8]
  00009	ff 15 00 00 00
	00		 call	 DWORD PTR __imp_??1ioHashString@@QAE@XZ
  0000f	f6 45 08 01	 test	 BYTE PTR ___flags$[ebp], 1
  00013	74 07		 je	 SHORT $LN1@scalar@3
  00015	56		 push	 esi
  00016	e8 00 00 00 00	 call	 ??3@YAXPAX@Z		; operator delete
  0001b	59		 pop	 ecx
$LN1@scalar@3:
  0001c	8b c6		 mov	 eax, esi
  0001e	5e		 pop	 esi
  0001f	5d		 pop	 ebp
  00020	c2 04 00	 ret	 4
??_GWeaponInfo@@QAEPAXI@Z ENDP				; WeaponInfo::`scalar deleting destructor'
_TEXT	ENDS
PUBLIC	??$_Construct@VioHashString@@ABV1@@std@@YAXPAVioHashString@@ABV1@@Z ; std::_Construct<ioHashString,ioHashString const &>
EXTRN	__imp_??0ioHashString@@QAE@ABV0@@Z:PROC
EXTRN	___CxxFrameHandler3:PROC
EXTRN	@__security_check_cookie@4:PROC
EXTRN	__EH_epilog3:PROC
EXTRN	__EH_prolog3:PROC
;	COMDAT xdata$x
; File c:\program files (x86)\microsoft visual studio 10.0\vc\include\utility
xdata$x	SEGMENT
__unwindtable$??$_Construct@VioHashString@@ABV1@@std@@YAXPAVioHashString@@ABV1@@Z DD 0ffffffffH
	DD	FLAT:__unwindfunclet$??$_Construct@VioHashString@@ABV1@@std@@YAXPAVioHashString@@ABV1@@Z$0
__ehfuncinfo$??$_Construct@VioHashString@@ABV1@@std@@YAXPAVioHashString@@ABV1@@Z DD 019930522H
	DD	01H
	DD	FLAT:__unwindtable$??$_Construct@VioHashString@@ABV1@@std@@YAXPAVioHashString@@ABV1@@Z
	DD	2 DUP(00H)
	DD	2 DUP(00H)
	DD	00H
	DD	01H
; Function compile flags: /Ogsp
; File c:\program files (x86)\microsoft visual studio 10.0\vc\include\xmemory
xdata$x	ENDS
;	COMDAT ??$_Construct@VioHashString@@ABV1@@std@@YAXPAVioHashString@@ABV1@@Z
_TEXT	SEGMENT
$T553229 = -16						; size = 4
__$EHRec$ = -12						; size = 12
__Vptr$ = 8						; size = 4
__Ptr$ = 8						; size = 4
__Val$ = 12						; size = 4
??$_Construct@VioHashString@@ABV1@@std@@YAXPAVioHashString@@ABV1@@Z PROC ; std::_Construct<ioHashString,ioHashString const &>, COMDAT

; 46   : 	{	// construct object at _Ptr with value _Val

  00000	6a 04		 push	 4
  00002	b8 00 00 00 00	 mov	 eax, __ehhandler$??$_Construct@VioHashString@@ABV1@@std@@YAXPAVioHashString@@ABV1@@Z
  00007	e8 00 00 00 00	 call	 __EH_prolog3

; 47   : 	void _FARQ *_Vptr = _Ptr;

  0000c	8b 4d 08	 mov	 ecx, DWORD PTR __Ptr$[ebp]
  0000f	89 4d 08	 mov	 DWORD PTR __Vptr$[ebp], ecx

; 48   : 	::new (_Vptr) _Ty1(_STD forward<_Ty2>(_Val));

  00012	89 4d f0	 mov	 DWORD PTR $T553229[ebp], ecx
  00015	83 65 fc 00	 and	 DWORD PTR __$EHRec$[ebp+8], 0
  00019	85 c9		 test	 ecx, ecx
  0001b	74 09		 je	 SHORT $LN3@Construct@2
  0001d	ff 75 0c	 push	 DWORD PTR __Val$[ebp]
  00020	ff 15 00 00 00
	00		 call	 DWORD PTR __imp_??0ioHashString@@QAE@ABV0@@Z
$LN3@Construct@2:

; 49   : 	}

  00026	e8 00 00 00 00	 call	 __EH_epilog3
  0002b	c3		 ret	 0
_TEXT	ENDS
;	COMDAT text$x
text$x	SEGMENT
__unwindfunclet$??$_Construct@VioHashString@@ABV1@@std@@YAXPAVioHashString@@ABV1@@Z$0:
  00000	ff 75 08	 push	 DWORD PTR __Vptr$[ebp]
  00003	ff 75 f0	 push	 DWORD PTR $T553229[ebp]
  00006	e8 00 00 00 00	 call	 ??3@YAXPAX0@Z		; operator delete
  0000b	59		 pop	 ecx
  0000c	59		 pop	 ecx
  0000d	c3		 ret	 0
__ehhandler$??$_Construct@VioHashString@@ABV1@@std@@YAXPAVioHashString@@ABV1@@Z:
  0000e	8b 54 24 08	 mov	 edx, DWORD PTR [esp+8]
  00012	8d 42 0c	 lea	 eax, DWORD PTR [edx+12]
  00015	8b 4a ec	 mov	 ecx, DWORD PTR [edx-20]
  00018	33 c8		 xor	 ecx, eax
  0001a	e8 00 00 00 00	 call	 @__security_check_cookie@4
  0001f	b8 00 00 00 00	 mov	 eax, OFFSET __ehfuncinfo$??$_Construct@VioHashString@@ABV1@@std@@YAXPAVioHashString@@ABV1@@Z
  00024	e9 00 00 00 00	 jmp	 ___CxxFrameHandler3
text$x	ENDS
??$_Construct@VioHashString@@ABV1@@std@@YAXPAVioHashString@@ABV1@@Z ENDP ; std::_Construct<ioHashString,ioHashString const &>
PUBLIC	??0WeaponInfo@@QAE@ABU0@@Z			; WeaponInfo::WeaponInfo
; Function compile flags: /Ogsp
;	COMDAT ??0WeaponInfo@@QAE@ABU0@@Z
_TEXT	SEGMENT
___that$ = 8						; size = 4
??0WeaponInfo@@QAE@ABU0@@Z PROC				; WeaponInfo::WeaponInfo, COMDAT
; _this$ = ecx
  00000	55		 push	 ebp
  00001	8b ec		 mov	 ebp, esp
  00003	56		 push	 esi
  00004	57		 push	 edi
  00005	8b 7d 08	 mov	 edi, DWORD PTR ___that$[ebp]
  00008	8b 07		 mov	 eax, DWORD PTR [edi]
  0000a	8b f1		 mov	 esi, ecx
  0000c	89 06		 mov	 DWORD PTR [esi], eax
  0000e	8b 47 04	 mov	 eax, DWORD PTR [edi+4]
  00011	89 46 04	 mov	 DWORD PTR [esi+4], eax
  00014	8d 47 08	 lea	 eax, DWORD PTR [edi+8]
  00017	50		 push	 eax
  00018	8d 4e 08	 lea	 ecx, DWORD PTR [esi+8]
  0001b	ff 15 00 00 00
	00		 call	 DWORD PTR __imp_??0ioHashString@@QAE@ABV0@@Z
  00021	8b 47 18	 mov	 eax, DWORD PTR [edi+24]
  00024	89 46 18	 mov	 DWORD PTR [esi+24], eax
  00027	8b 47 1c	 mov	 eax, DWORD PTR [edi+28]
  0002a	89 46 1c	 mov	 DWORD PTR [esi+28], eax
  0002d	8a 47 20	 mov	 al, BYTE PTR [edi+32]
  00030	88 46 20	 mov	 BYTE PTR [esi+32], al
  00033	8b 47 24	 mov	 eax, DWORD PTR [edi+36]
  00036	89 46 24	 mov	 DWORD PTR [esi+36], eax
  00039	5f		 pop	 edi
  0003a	8b c6		 mov	 eax, esi
  0003c	5e		 pop	 esi
  0003d	5d		 pop	 ebp
  0003e	c2 04 00	 ret	 4
??0WeaponInfo@@QAE@ABU0@@Z ENDP				; WeaponInfo::WeaponInfo
_TEXT	ENDS
PUBLIC	__$ArrayPad$
PUBLIC	?SetSkillActionState@ioSpaceMasterAttack@@IAEXPAVioBaseChar@@PAVioPlayStage@@@Z ; ioSpaceMasterAttack::SetSkillActionState
EXTRN	??1SP2Packet@@UAE@XZ:PROC			; SP2Packet::~SP2Packet
EXTRN	?SendToAllPlayingUser@P2PNetwork@@YAXAAVSP2Packet@@PAVioBaseChar@@@Z:PROC ; P2PNetwork::SendToAllPlayingUser
EXTRN	??6SP2Packet@@QAEAAV0@E@Z:PROC			; SP2Packet::operator<<
EXTRN	??6SP2Packet@@QAEAAV0@ABUD3DXVECTOR3@@@Z:PROC	; SP2Packet::operator<<
EXTRN	??6SP2Packet@@QAEAAV0@ABUD3DXQUATERNION@@@Z:PROC ; SP2Packet::operator<<
EXTRN	??6SP2Packet@@QAEAAV0@ABVioHashString@@@Z:PROC	; SP2Packet::operator<<
EXTRN	??0SP2Packet@@QAE@K@Z:PROC			; SP2Packet::SP2Packet
EXTRN	?AttackSkillFire@ioAttackSkill@@MAEXPAVioBaseChar@@@Z:PROC ; ioAttackSkill::AttackSkillFire
EXTRN	?ChangeSkillWeaponMesh@ioBaseChar@@QAE_NPAVioSkill@@ABVioHashString@@_N@Z:PROC ; ioBaseChar::ChangeSkillWeaponMesh
EXTRN	__imp_?IsEmpty@ioHashString@@QBE_NXZ:PROC
EXTRN	___security_cookie:DWORD
EXTRN	__chkstk:PROC
;	COMDAT xdata$x
; File d:\lost saga for developer\youtube\tutorial\source\src\lsclient\ioskill.h
xdata$x	SEGMENT
__unwindtable$?SetSkillActionState@ioSpaceMasterAttack@@IAEXPAVioBaseChar@@PAVioPlayStage@@@Z DD 0ffffffffH
	DD	FLAT:__unwindfunclet$?SetSkillActionState@ioSpaceMasterAttack@@IAEXPAVioBaseChar@@PAVioPlayStage@@@Z$0
__ehfuncinfo$?SetSkillActionState@ioSpaceMasterAttack@@IAEXPAVioBaseChar@@PAVioPlayStage@@@Z DD 019930522H
	DD	01H
	DD	FLAT:__unwindtable$?SetSkillActionState@ioSpaceMasterAttack@@IAEXPAVioBaseChar@@PAVioPlayStage@@@Z
	DD	2 DUP(00H)
	DD	2 DUP(00H)
	DD	00H
	DD	01H
; Function compile flags: /Ogsp
; File d:\lost saga for developer\youtube\tutorial\source\src\lsclient\iospacemasterattack.cpp
xdata$x	ENDS
;	COMDAT ?SetSkillActionState@ioSpaceMasterAttack@@IAEXPAVioBaseChar@@PAVioPlayStage@@@Z
_TEXT	SEGMENT
_kPacket$548661 = -32808				; size = 32792
__$ArrayPad$ = -16					; size = 4
__$EHRec$ = -12						; size = 12
_pChar$ = 8						; size = 4
_pStage$ = 12						; size = 4
?SetSkillActionState@ioSpaceMasterAttack@@IAEXPAVioBaseChar@@PAVioPlayStage@@@Z PROC ; ioSpaceMasterAttack::SetSkillActionState, COMDAT
; _this$ = ecx

; 204  : {

  00000	55		 push	 ebp
  00001	8b ec		 mov	 ebp, esp
  00003	6a ff		 push	 -1
  00005	68 00 00 00 00	 push	 __ehhandler$?SetSkillActionState@ioSpaceMasterAttack@@IAEXPAVioBaseChar@@PAVioPlayStage@@@Z
  0000a	64 a1 00 00 00
	00		 mov	 eax, DWORD PTR fs:0
  00010	50		 push	 eax
  00011	b8 1c 80 00 00	 mov	 eax, 32796		; 0000801cH
  00016	e8 00 00 00 00	 call	 __chkstk
  0001b	a1 00 00 00 00	 mov	 eax, DWORD PTR ___security_cookie
  00020	33 c5		 xor	 eax, ebp
  00022	89 45 f0	 mov	 DWORD PTR __$ArrayPad$[ebp], eax
  00025	53		 push	 ebx
  00026	56		 push	 esi
  00027	57		 push	 edi
  00028	50		 push	 eax
  00029	8d 45 f4	 lea	 eax, DWORD PTR __$EHRec$[ebp]
  0002c	64 a3 00 00 00
	00		 mov	 DWORD PTR fs:0, eax
  00032	8b 7d 08	 mov	 edi, DWORD PTR _pChar$[ebp]
  00035	8b f1		 mov	 esi, ecx

; 205  : 	if( !m_bSetHandMesh && m_bUseItemMesh && !m_HandMesh.IsEmpty() )

  00037	80 be 0a 0f 00
	00 00		 cmp	 BYTE PTR [esi+3850], 0
  0003e	75 33		 jne	 SHORT $LN2@SetSkillAc
  00040	80 be 08 0f 00
	00 00		 cmp	 BYTE PTR [esi+3848], 0
  00047	74 2a		 je	 SHORT $LN2@SetSkillAc
  00049	8d 9e f8 0e 00
	00		 lea	 ebx, DWORD PTR [esi+3832]
  0004f	8b cb		 mov	 ecx, ebx
  00051	ff 15 00 00 00
	00		 call	 DWORD PTR __imp_?IsEmpty@ioHashString@@QBE_NXZ
  00057	84 c0		 test	 al, al
  00059	75 18		 jne	 SHORT $LN2@SetSkillAc

; 206  : 	{
; 207  : 		pChar->ChangeSkillWeaponMesh( this, m_HandMesh, m_bVisibleEquipMesh );

  0005b	0f b6 86 09 0f
	00 00		 movzx	 eax, BYTE PTR [esi+3849]
  00062	50		 push	 eax
  00063	53		 push	 ebx
  00064	56		 push	 esi
  00065	8b cf		 mov	 ecx, edi
  00067	e8 00 00 00 00	 call	 ?ChangeSkillWeaponMesh@ioBaseChar@@QAE_NPAVioSkill@@ABVioHashString@@_N@Z ; ioBaseChar::ChangeSkillWeaponMesh

; 208  : 		m_bSetHandMesh = true;

  0006c	c6 86 0a 0f 00
	00 01		 mov	 BYTE PTR [esi+3850], 1
$LN2@SetSkillAc:

; 209  : 	}
; 210  : 
; 211  : 	m_SkillState = SS_ATTACK;
; 212  : 	ioAttackSkill::AttackSkillFire( pChar );

  00073	57		 push	 edi
  00074	8b ce		 mov	 ecx, esi
  00076	c7 86 e4 10 00
	00 01 00 00 00	 mov	 DWORD PTR [esi+4324], 1
  00080	e8 00 00 00 00	 call	 ?AttackSkillFire@ioAttackSkill@@MAEXPAVioBaseChar@@@Z ; ioAttackSkill::AttackSkillFire

; 213  : 
; 214  : 	if( pChar->IsNeedSendNetwork() )

  00085	8b 07		 mov	 eax, DWORD PTR [edi]
  00087	8b cf		 mov	 ecx, edi
  00089	ff 90 04 01 00
	00		 call	 DWORD PTR [eax+260]
  0008f	84 c0		 test	 al, al
  00091	0f 84 86 00 00
	00		 je	 $LN1@SetSkillAc

; 215  : 	{
; 216  : 		SP2Packet kPacket( CUPK_SKILL_EXTRA_INFO );

  00097	68 39 41 00 00	 push	 16697			; 00004139H
  0009c	8d 8d d8 7f ff
	ff		 lea	 ecx, DWORD PTR _kPacket$548661[ebp]
  000a2	e8 00 00 00 00	 call	 ??0SP2Packet@@QAE@K@Z	; SP2Packet::SP2Packet

; 217  : 		kPacket << pChar->GetCharName();

  000a7	8d 87 d4 02 00
	00		 lea	 eax, DWORD PTR [edi+724]
  000ad	33 db		 xor	 ebx, ebx
  000af	50		 push	 eax
  000b0	8d 8d d8 7f ff
	ff		 lea	 ecx, DWORD PTR _kPacket$548661[ebp]
  000b6	89 5d fc	 mov	 DWORD PTR __$EHRec$[ebp+8], ebx
  000b9	e8 00 00 00 00	 call	 ??6SP2Packet@@QAEAAV0@ABVioHashString@@@Z ; SP2Packet::operator<<

; 218  : 		kPacket << GetName();

  000be	83 c6 24	 add	 esi, 36			; 00000024H
  000c1	56		 push	 esi
  000c2	8d 8d d8 7f ff
	ff		 lea	 ecx, DWORD PTR _kPacket$548661[ebp]
  000c8	e8 00 00 00 00	 call	 ??6SP2Packet@@QAEAAV0@ABVioHashString@@@Z ; SP2Packet::operator<<

; 219  : 		kPacket << pChar->GetWorldOrientation();

  000cd	8b 07		 mov	 eax, DWORD PTR [edi]
  000cf	8b cf		 mov	 ecx, edi
  000d1	ff 50 74	 call	 DWORD PTR [eax+116]
  000d4	50		 push	 eax
  000d5	8d 8d d8 7f ff
	ff		 lea	 ecx, DWORD PTR _kPacket$548661[ebp]
  000db	e8 00 00 00 00	 call	 ??6SP2Packet@@QAEAAV0@ABUD3DXQUATERNION@@@Z ; SP2Packet::operator<<

; 220  : 		kPacket << pChar->GetWorldPosition();

  000e0	8b 07		 mov	 eax, DWORD PTR [edi]
  000e2	8b cf		 mov	 ecx, edi
  000e4	ff 50 70	 call	 DWORD PTR [eax+112]
  000e7	50		 push	 eax
  000e8	8d 8d d8 7f ff
	ff		 lea	 ecx, DWORD PTR _kPacket$548661[ebp]
  000ee	e8 00 00 00 00	 call	 ??6SP2Packet@@QAEAAV0@ABUD3DXVECTOR3@@@Z ; SP2Packet::operator<<

; 221  : 		kPacket << (byte)SSS_ATTACK;

  000f3	53		 push	 ebx
  000f4	8d 8d d8 7f ff
	ff		 lea	 ecx, DWORD PTR _kPacket$548661[ebp]
  000fa	e8 00 00 00 00	 call	 ??6SP2Packet@@QAEAAV0@E@Z ; SP2Packet::operator<<

; 222  : 		P2PNetwork::SendToAllPlayingUser( kPacket );

  000ff	8d 85 d8 7f ff
	ff		 lea	 eax, DWORD PTR _kPacket$548661[ebp]
  00105	53		 push	 ebx
  00106	50		 push	 eax
  00107	e8 00 00 00 00	 call	 ?SendToAllPlayingUser@P2PNetwork@@YAXAAVSP2Packet@@PAVioBaseChar@@@Z ; P2PNetwork::SendToAllPlayingUser

; 223  : 	}

  0010c	83 4d fc ff	 or	 DWORD PTR __$EHRec$[ebp+8], -1
  00110	59		 pop	 ecx
  00111	59		 pop	 ecx
  00112	8d 8d d8 7f ff
	ff		 lea	 ecx, DWORD PTR _kPacket$548661[ebp]
  00118	e8 00 00 00 00	 call	 ??1SP2Packet@@UAE@XZ	; SP2Packet::~SP2Packet
$LN1@SetSkillAc:

; 224  : }

  0011d	8b 4d f4	 mov	 ecx, DWORD PTR __$EHRec$[ebp]
  00120	64 89 0d 00 00
	00 00		 mov	 DWORD PTR fs:0, ecx
  00127	59		 pop	 ecx
  00128	5f		 pop	 edi
  00129	5e		 pop	 esi
  0012a	5b		 pop	 ebx
  0012b	8b 4d f0	 mov	 ecx, DWORD PTR __$ArrayPad$[ebp]
  0012e	33 cd		 xor	 ecx, ebp
  00130	e8 00 00 00 00	 call	 @__security_check_cookie@4
  00135	c9		 leave
  00136	c2 08 00	 ret	 8
_TEXT	ENDS
;	COMDAT text$x
text$x	SEGMENT
__unwindfunclet$?SetSkillActionState@ioSpaceMasterAttack@@IAEXPAVioBaseChar@@PAVioPlayStage@@@Z$0:
  00000	8d 8d d8 7f ff
	ff		 lea	 ecx, DWORD PTR _kPacket$548661[ebp]
  00006	e9 00 00 00 00	 jmp	 ??1SP2Packet@@UAE@XZ	; SP2Packet::~SP2Packet
__ehhandler$?SetSkillActionState@ioSpaceMasterAttack@@IAEXPAVioBaseChar@@PAVioPlayStage@@@Z:
  0000b	8b 54 24 08	 mov	 edx, DWORD PTR [esp+8]
  0000f	8d 42 0c	 lea	 eax, DWORD PTR [edx+12]
  00012	8b 8a d4 7f ff
	ff		 mov	 ecx, DWORD PTR [edx-32812]
  00018	33 c8		 xor	 ecx, eax
  0001a	e8 00 00 00 00	 call	 @__security_check_cookie@4
  0001f	8b 4a fc	 mov	 ecx, DWORD PTR [edx-4]
  00022	33 c8		 xor	 ecx, eax
  00024	e8 00 00 00 00	 call	 @__security_check_cookie@4
  00029	b8 00 00 00 00	 mov	 eax, OFFSET __ehfuncinfo$?SetSkillActionState@ioSpaceMasterAttack@@IAEXPAVioBaseChar@@PAVioPlayStage@@@Z
  0002e	e9 00 00 00 00	 jmp	 ___CxxFrameHandler3
text$x	ENDS
?SetSkillActionState@ioSpaceMasterAttack@@IAEXPAVioBaseChar@@PAVioPlayStage@@@Z ENDP ; ioSpaceMasterAttack::SetSkillActionState
PUBLIC	__real@bf800000
PUBLIC	__real@4076800000000000
PUBLIC	__real@4f800000
PUBLIC	__real@408f400000000000
PUBLIC	__$ArrayPad$
PUBLIC	?ProcessCharRotate@ioSpaceMasterAttack@@IAEXPAVioBaseChar@@PAVioPlayStage@@@Z ; ioSpaceMasterAttack::ProcessCharRotate
EXTRN	?SetTargetRotToRotate@ioBaseChar@@QAEXABUD3DXQUATERNION@@_N1@Z:PROC ; ioBaseChar::SetTargetRotToRotate
EXTRN	__imp_?CalcDirectionQuaternion@ioMath@@SAXAAUD3DXQUATERNION@@ABUD3DXVECTOR3@@@Z:PROC
EXTRN	__imp_??D@YA?AUD3DXVECTOR3@@ABUD3DXQUATERNION@@ABU0@@Z:PROC
EXTRN	_D3DXQuaternionRotationAxis@12:PROC
EXTRN	__imp_?UNIT_Y@ioMath@@2UD3DXVECTOR3@@A:BYTE
EXTRN	__imp_?ArrangeHead@ioMath@@SAMM@Z:PROC
EXTRN	__imp_?GetSecPerFrame@ioFrameTimer@@QBEMXZ:PROC
EXTRN	__imp_?GetSingleton@ioFrameTimer@@SAAAV1@XZ:PROC
;	COMDAT __real@bf800000
; File c:\program files (x86)\microsoft directx sdk (june 2010)\include\d3dx9math.inl
CONST	SEGMENT
__real@bf800000 DD 0bf800000r			; -1
CONST	ENDS
;	COMDAT __real@4076800000000000
CONST	SEGMENT
__real@4076800000000000 DQ 04076800000000000r	; 360
CONST	ENDS
;	COMDAT __real@4f800000
CONST	SEGMENT
__real@4f800000 DD 04f800000r			; 4.29497e+009
CONST	ENDS
;	COMDAT __real@408f400000000000
CONST	SEGMENT
__real@408f400000000000 DQ 0408f400000000000r	; 1000
; Function compile flags: /Ogsp
; File d:\lost saga for developer\youtube\tutorial\source\src\lsclient\iospacemasterattack.cpp
CONST	ENDS
;	COMDAT ?ProcessCharRotate@ioSpaceMasterAttack@@IAEXPAVioBaseChar@@PAVioPlayStage@@@Z
_TEXT	SEGMENT
_qtCharRot$ = -76					; size = 16
_qtNewRot$ = -60					; size = 16
tv253 = -44						; size = 4
tv251 = -44						; size = 4
tv235 = -44						; size = 4
_fRotateAngle$ = -44					; size = 4
_fTimePerSec$ = -44					; size = 4
_vAxis$ = -40						; size = 12
_vDir$ = -28						; size = 12
$T548810 = -16						; size = 12
$T548809 = -16						; size = 12
$T548807 = -16						; size = 12
__$ArrayPad$ = -4					; size = 4
_pChar$ = 8						; size = 4
_pStage$ = 12						; size = 4
?ProcessCharRotate@ioSpaceMasterAttack@@IAEXPAVioBaseChar@@PAVioPlayStage@@@Z PROC ; ioSpaceMasterAttack::ProcessCharRotate, COMDAT
; _this$ = ecx

; 487  : {

  00000	55		 push	 ebp
  00001	8b ec		 mov	 ebp, esp
  00003	83 ec 4c	 sub	 esp, 76			; 0000004cH
  00006	a1 00 00 00 00	 mov	 eax, DWORD PTR ___security_cookie
  0000b	33 c5		 xor	 eax, ebp
  0000d	89 45 fc	 mov	 DWORD PTR __$ArrayPad$[ebp], eax
  00010	53		 push	 ebx
  00011	8b 5d 08	 mov	 ebx, DWORD PTR _pChar$[ebp]
  00014	56		 push	 esi
  00015	8b f1		 mov	 esi, ecx

; 488  : 	if( m_dwCharRotateTime == 0 )

  00017	83 be 98 11 00
	00 00		 cmp	 DWORD PTR [esi+4504], 0
  0001e	0f 84 22 01 00
	00		 je	 $LN2@ProcessCha

; 489  : 		return;
; 490  : 
; 491  : 	//  
; 492  : 	float fTimePerSec = g_FrameTimer.GetSecPerFrame();

  00024	57		 push	 edi
  00025	ff 15 00 00 00
	00		 call	 DWORD PTR __imp_?GetSingleton@ioFrameTimer@@SAAAV1@XZ
  0002b	8b c8		 mov	 ecx, eax
  0002d	ff 15 00 00 00
	00		 call	 DWORD PTR __imp_?GetSecPerFrame@ioFrameTimer@@QBEMXZ
  00033	d9 5d d4	 fstp	 DWORD PTR _fTimePerSec$[ebp]

; 495  : 	float fRotateAngle = 360.0f * fRate;

  00036	d9 45 d4	 fld	 DWORD PTR _fTimePerSec$[ebp]
  00039	8b 86 98 11 00
	00		 mov	 eax, DWORD PTR [esi+4504]
  0003f	dc 0d 00 00 00
	00		 fmul	 QWORD PTR __real@408f400000000000
  00045	db 86 98 11 00
	00		 fild	 DWORD PTR [esi+4504]
  0004b	85 c0		 test	 eax, eax
  0004d	79 06		 jns	 SHORT $LN16@ProcessCha
  0004f	d8 05 00 00 00
	00		 fadd	 DWORD PTR __real@4f800000
$LN16@ProcessCha:

; 493  : 
; 494  : 	float fRate = (fTimePerSec * 1000) / m_dwCharRotateTime;

  00055	de f9		 fdivp	 ST(1), ST(0)

; 496  : 
; 497  : 	fRotateAngle = ioMath::ArrangeHead( fRotateAngle );

  00057	51		 push	 ecx
  00058	d9 5d d4	 fstp	 DWORD PTR tv251[ebp]
  0005b	d9 45 d4	 fld	 DWORD PTR tv251[ebp]
  0005e	dc 0d 00 00 00
	00		 fmul	 QWORD PTR __real@4076800000000000
  00064	d9 5d d4	 fstp	 DWORD PTR _fRotateAngle$[ebp]
  00067	f3 0f 10 45 d4	 movss	 xmm0, DWORD PTR _fRotateAngle$[ebp]
  0006c	f3 0f 11 04 24	 movss	 DWORD PTR [esp], xmm0
  00071	ff 15 00 00 00
	00		 call	 DWORD PTR __imp_?ArrangeHead@ioMath@@SAMM@Z
  00077	d9 5d d4	 fstp	 DWORD PTR _fRotateAngle$[ebp]

; 498  : 
; 499  : 	D3DXQUATERNION qtNewRot;
; 500  : 	D3DXVECTOR3 vAxis = ioMath::UNIT_Y;
; 501  : 
; 502  : 	D3DXQuaternionRotationAxis( &qtNewRot, &vAxis, DEGtoRAD( fRotateAngle ) );

  0007a	d9 45 d4	 fld	 DWORD PTR _fRotateAngle$[ebp]
  0007d	8b 35 00 00 00
	00		 mov	 esi, DWORD PTR __imp_?UNIT_Y@ioMath@@2UD3DXVECTOR3@@A
  00083	dc 0d 00 00 00
	00		 fmul	 QWORD PTR __real@3f91df46a2526c7a
  00089	8d 7d d8	 lea	 edi, DWORD PTR _vAxis$[ebp]
  0008c	a5		 movsd
  0008d	d9 5d d4	 fstp	 DWORD PTR tv235[ebp]
  00090	8d 45 d8	 lea	 eax, DWORD PTR _vAxis$[ebp]
  00093	d9 45 d4	 fld	 DWORD PTR tv235[ebp]
  00096	a5		 movsd
  00097	d9 1c 24	 fstp	 DWORD PTR [esp]
  0009a	50		 push	 eax
  0009b	8d 45 c4	 lea	 eax, DWORD PTR _qtNewRot$[ebp]
  0009e	50		 push	 eax
  0009f	a5		 movsd
  000a0	e8 00 00 00 00	 call	 _D3DXQuaternionRotationAxis@12

; 503  : 
; 504  : 	D3DXQUATERNION qtCharRot = pChar->GetTargetRot();
; 505  : 	D3DXVECTOR3 vDir = qtCharRot * D3DXVECTOR3( 0.0f, 0.0f, -1.0f );

  000a5	0f 57 c0	 xorps	 xmm0, xmm0
  000a8	8d b3 a4 06 00
	00		 lea	 esi, DWORD PTR [ebx+1700]
  000ae	8d 7d b4	 lea	 edi, DWORD PTR _qtCharRot$[ebp]
  000b1	a5		 movsd
  000b2	a5		 movsd
  000b3	8d 45 f0	 lea	 eax, DWORD PTR $T548807[ebp]
  000b6	50		 push	 eax
  000b7	a5		 movsd
  000b8	8d 45 b4	 lea	 eax, DWORD PTR _qtCharRot$[ebp]
  000bb	50		 push	 eax
  000bc	8d 45 e4	 lea	 eax, DWORD PTR _vDir$[ebp]
  000bf	a5		 movsd
  000c0	8b 35 00 00 00
	00		 mov	 esi, DWORD PTR __imp_??D@YA?AUD3DXVECTOR3@@ABUD3DXQUATERNION@@ABU0@@Z
  000c6	f3 0f 11 45 f0	 movss	 DWORD PTR $T548807[ebp], xmm0
  000cb	f3 0f 11 45 f4	 movss	 DWORD PTR $T548807[ebp+4], xmm0
  000d0	f3 0f 10 05 00
	00 00 00	 movss	 xmm0, DWORD PTR __real@bf800000
  000d8	50		 push	 eax
  000d9	f3 0f 11 45 f8	 movss	 DWORD PTR $T548807[ebp+8], xmm0
  000de	ff d6		 call	 esi

; 506  : 	vDir = qtNewRot * vDir;

  000e0	8d 45 e4	 lea	 eax, DWORD PTR _vDir$[ebp]
  000e3	50		 push	 eax
  000e4	8d 45 c4	 lea	 eax, DWORD PTR _qtNewRot$[ebp]
  000e7	50		 push	 eax
  000e8	8d 45 f0	 lea	 eax, DWORD PTR $T548809[ebp]
  000eb	50		 push	 eax
  000ec	ff d6		 call	 esi

; 507  : 
; 508  : 	ioMath::CalcDirectionQuaternion( qtNewRot, -vDir );

  000ee	f3 0f 10 05 00
	00 00 00	 movss	 xmm0, DWORD PTR __mask@@NegFloat@
  000f6	8b f0		 mov	 esi, eax
  000f8	8d 7d e4	 lea	 edi, DWORD PTR _vDir$[ebp]
  000fb	a5		 movsd
  000fc	a5		 movsd
  000fd	a5		 movsd
  000fe	f3 0f 10 4d e4	 movss	 xmm1, DWORD PTR _vDir$[ebp]
  00103	0f 57 c8	 xorps	 xmm1, xmm0
  00106	f3 0f 11 4d f0	 movss	 DWORD PTR $T548810[ebp], xmm1
  0010b	f3 0f 10 4d e8	 movss	 xmm1, DWORD PTR _vDir$[ebp+4]
  00110	0f 57 c8	 xorps	 xmm1, xmm0
  00113	8d 45 f0	 lea	 eax, DWORD PTR $T548810[ebp]
  00116	50		 push	 eax
  00117	f3 0f 11 4d f4	 movss	 DWORD PTR $T548810[ebp+4], xmm1
  0011c	f3 0f 10 4d ec	 movss	 xmm1, DWORD PTR _vDir$[ebp+8]
  00121	8d 45 c4	 lea	 eax, DWORD PTR _qtNewRot$[ebp]
  00124	0f 57 c8	 xorps	 xmm1, xmm0
  00127	50		 push	 eax
  00128	f3 0f 11 4d f8	 movss	 DWORD PTR $T548810[ebp+8], xmm1
  0012d	ff 15 00 00 00
	00		 call	 DWORD PTR __imp_?CalcDirectionQuaternion@ioMath@@SAXAAUD3DXQUATERNION@@ABUD3DXVECTOR3@@@Z
  00133	83 c4 20	 add	 esp, 32			; 00000020H

; 509  : 	pChar->SetTargetRotToRotate( qtNewRot, true, true );

  00136	6a 01		 push	 1
  00138	6a 01		 push	 1
  0013a	8d 45 c4	 lea	 eax, DWORD PTR _qtNewRot$[ebp]
  0013d	50		 push	 eax
  0013e	8b cb		 mov	 ecx, ebx
  00140	e8 00 00 00 00	 call	 ?SetTargetRotToRotate@ioBaseChar@@QAEXABUD3DXQUATERNION@@_N1@Z ; ioBaseChar::SetTargetRotToRotate
  00145	5f		 pop	 edi
$LN2@ProcessCha:

; 510  : }

  00146	8b 4d fc	 mov	 ecx, DWORD PTR __$ArrayPad$[ebp]
  00149	5e		 pop	 esi
  0014a	33 cd		 xor	 ecx, ebp
  0014c	5b		 pop	 ebx
  0014d	e8 00 00 00 00	 call	 @__security_check_cookie@4
  00152	c9		 leave
  00153	c2 08 00	 ret	 8
?ProcessCharRotate@ioSpaceMasterAttack@@IAEXPAVioBaseChar@@PAVioPlayStage@@@Z ENDP ; ioSpaceMasterAttack::ProcessCharRotate
_TEXT	ENDS
PUBLIC	_this$GSCopy$
PUBLIC	__$ArrayPad$
PUBLIC	?ProcessWeaponPos@ioSpaceMasterAttack@@IAEXPAVioBaseChar@@@Z ; ioSpaceMasterAttack::ProcessWeaponPos
EXTRN	?SetPosition@ioWeapon@@QAEXABUD3DXVECTOR3@@@Z:PROC ; ioWeapon::SetPosition
; Function compile flags: /Ogsp
;	COMDAT ?ProcessWeaponPos@ioSpaceMasterAttack@@IAEXPAVioBaseChar@@@Z
_TEXT	SEGMENT
_pSelectWepaon$ = -48					; size = 4
_this$GSCopy$ = -44					; size = 4
$T548820 = -40						; size = 12
_vDir$548819 = -28					; size = 12
_vPos$548818 = -16					; size = 12
__$ArrayPad$ = -4					; size = 4
_pChar$ = 8						; size = 4
?ProcessWeaponPos@ioSpaceMasterAttack@@IAEXPAVioBaseChar@@@Z PROC ; ioSpaceMasterAttack::ProcessWeaponPos, COMDAT
; _this$ = ecx

; 513  : {

  00000	55		 push	 ebp
  00001	8b ec		 mov	 ebp, esp
  00003	83 ec 30	 sub	 esp, 48			; 00000030H
  00006	a1 00 00 00 00	 mov	 eax, DWORD PTR ___security_cookie
  0000b	33 c5		 xor	 eax, ebp
  0000d	89 45 fc	 mov	 DWORD PTR __$ArrayPad$[ebp], eax
  00010	53		 push	 ebx
  00011	8b 5d 08	 mov	 ebx, DWORD PTR _pChar$[ebp]
  00014	8b c1		 mov	 eax, ecx

; 514  : 	ioWeapon* pWeapon = g_WeaponMgr.FindWeapon( pChar, m_dwSelectWeaponIdx );

  00016	ff b0 a8 11 00
	00		 push	 DWORD PTR [eax+4520]

; 515  : 	ioSelectPositionMoveWeapon* pSelectWepaon = ToSelectPositionMoveWeapon( pWeapon );

  0001c	89 45 d4	 mov	 DWORD PTR _this$GSCopy$[ebp], eax
  0001f	53		 push	 ebx
  00020	e8 00 00 00 00	 call	 ?GetSingleton@ioWeaponManager@@SAAAV1@XZ ; ioWeaponManager::GetSingleton
  00025	8b c8		 mov	 ecx, eax
  00027	e8 00 00 00 00	 call	 ?FindWeapon@ioWeaponManager@@QAEPAVioWeapon@@PAVioBaseChar@@K@Z ; ioWeaponManager::FindWeapon
  0002c	50		 push	 eax
  0002d	e8 00 00 00 00	 call	 ?ToSelectPositionMoveWeapon@@YAPAVioSelectPositionMoveWeapon@@PAVioWeapon@@@Z ; ToSelectPositionMoveWeapon
  00032	59		 pop	 ecx
  00033	89 45 d0	 mov	 DWORD PTR _pSelectWepaon$[ebp], eax

; 516  : 	if( pSelectWepaon )

  00036	85 c0		 test	 eax, eax
  00038	0f 84 ff 00 00
	00		 je	 $LN1@ProcessWea

; 517  : 	{
; 518  : 		D3DXVECTOR3 vPos	= pChar->GetWorldPosition();

  0003e	8b 03		 mov	 eax, DWORD PTR [ebx]
  00040	56		 push	 esi
  00041	57		 push	 edi
  00042	8b cb		 mov	 ecx, ebx
  00044	ff 50 70	 call	 DWORD PTR [eax+112]

; 519  : 		D3DXVECTOR3 vDir	= pChar->GetTargetRot() * D3DXVECTOR3( 0.0f, 0.0f, -1.0f );

  00047	0f 57 c0	 xorps	 xmm0, xmm0
  0004a	8b f0		 mov	 esi, eax
  0004c	8d 7d f0	 lea	 edi, DWORD PTR _vPos$548818[ebp]
  0004f	a5		 movsd
  00050	8d 45 d8	 lea	 eax, DWORD PTR $T548820[ebp]
  00053	50		 push	 eax
  00054	a5		 movsd
  00055	81 c3 a4 06 00
	00		 add	 ebx, 1700		; 000006a4H
  0005b	8d 45 e4	 lea	 eax, DWORD PTR _vDir$548819[ebp]
  0005e	f3 0f 11 45 d8	 movss	 DWORD PTR $T548820[ebp], xmm0
  00063	f3 0f 11 45 dc	 movss	 DWORD PTR $T548820[ebp+4], xmm0
  00068	f3 0f 10 05 00
	00 00 00	 movss	 xmm0, DWORD PTR __real@bf800000
  00070	53		 push	 ebx
  00071	50		 push	 eax
  00072	a5		 movsd
  00073	f3 0f 11 45 e0	 movss	 DWORD PTR $T548820[ebp+8], xmm0
  00078	ff 15 00 00 00
	00		 call	 DWORD PTR __imp_??D@YA?AUD3DXVECTOR3@@ABUD3DXQUATERNION@@ABU0@@Z

; 520  : 		vPos				+= vDir * m_fCharAttachWeaponOffsetZ;

  0007e	8b 45 d4	 mov	 eax, DWORD PTR _this$GSCopy$[ebp]
  00081	f3 0f 10 80 a0
	11 00 00	 movss	 xmm0, DWORD PTR [eax+4512]
  00089	f3 0f 10 55 e4	 movss	 xmm2, DWORD PTR _vDir$548819[ebp]
  0008e	0f 5a c8	 cvtps2pd xmm1, xmm0
  00091	0f 5a d8	 cvtps2pd xmm3, xmm0
  00094	0f 5a d2	 cvtps2pd xmm2, xmm2
  00097	f2 0f 59 ca	 mulsd	 xmm1, xmm2
  0009b	f3 0f 10 55 e8	 movss	 xmm2, DWORD PTR _vDir$548819[ebp+4]
  000a0	0f 5a d2	 cvtps2pd xmm2, xmm2
  000a3	f2 0f 59 d3	 mulsd	 xmm2, xmm3
  000a7	f3 0f 10 5d ec	 movss	 xmm3, DWORD PTR _vDir$548819[ebp+8]
  000ac	0f 5a c0	 cvtps2pd xmm0, xmm0

; 521  : 		vPos.y				+= m_fCharAttachWeaponOffsetY;
; 522  : 
; 523  : 		pSelectWepaon->SetPosition( vPos );

  000af	8b 4d d0	 mov	 ecx, DWORD PTR _pSelectWepaon$[ebp]
  000b2	66 0f 5a c9	 cvtpd2ps xmm1, xmm1
  000b6	0f 5a db	 cvtps2pd xmm3, xmm3
  000b9	f2 0f 59 d8	 mulsd	 xmm3, xmm0
  000bd	0f 57 c0	 xorps	 xmm0, xmm0
  000c0	66 0f 5a c3	 cvtpd2ps xmm0, xmm3
  000c4	f3 0f 10 5d f0	 movss	 xmm3, DWORD PTR _vPos$548818[ebp]
  000c9	f3 0f 5a c9	 cvtss2sd xmm1, xmm1
  000cd	66 0f 5a d2	 cvtpd2ps xmm2, xmm2
  000d1	0f 5a db	 cvtps2pd xmm3, xmm3
  000d4	f2 0f 58 cb	 addsd	 xmm1, xmm3
  000d8	66 0f 5a c9	 cvtpd2ps xmm1, xmm1
  000dc	f3 0f 11 4d f0	 movss	 DWORD PTR _vPos$548818[ebp], xmm1
  000e1	0f 57 c9	 xorps	 xmm1, xmm1
  000e4	f3 0f 5a ca	 cvtss2sd xmm1, xmm2
  000e8	f3 0f 10 55 f4	 movss	 xmm2, DWORD PTR _vPos$548818[ebp+4]
  000ed	0f 5a d2	 cvtps2pd xmm2, xmm2
  000f0	f2 0f 58 ca	 addsd	 xmm1, xmm2
  000f4	f3 0f 10 55 f8	 movss	 xmm2, DWORD PTR _vPos$548818[ebp+8]
  000f9	0f 5a c0	 cvtps2pd xmm0, xmm0
  000fc	0f 5a d2	 cvtps2pd xmm2, xmm2
  000ff	f2 0f 58 d0	 addsd	 xmm2, xmm0
  00103	0f 57 c0	 xorps	 xmm0, xmm0
  00106	66 0f 5a c2	 cvtpd2ps xmm0, xmm2
  0010a	f3 0f 11 45 f8	 movss	 DWORD PTR _vPos$548818[ebp+8], xmm0
  0010f	f3 0f 10 80 a4
	11 00 00	 movss	 xmm0, DWORD PTR [eax+4516]
  00117	66 0f 5a c9	 cvtpd2ps xmm1, xmm1
  0011b	0f 5a c0	 cvtps2pd xmm0, xmm0
  0011e	83 c4 0c	 add	 esp, 12			; 0000000cH
  00121	f3 0f 5a c9	 cvtss2sd xmm1, xmm1
  00125	8d 45 f0	 lea	 eax, DWORD PTR _vPos$548818[ebp]
  00128	f2 0f 58 c1	 addsd	 xmm0, xmm1
  0012c	66 0f 5a c0	 cvtpd2ps xmm0, xmm0
  00130	50		 push	 eax
  00131	f3 0f 11 45 f4	 movss	 DWORD PTR _vPos$548818[ebp+4], xmm0
  00136	e8 00 00 00 00	 call	 ?SetPosition@ioWeapon@@QAEXABUD3DXVECTOR3@@@Z ; ioWeapon::SetPosition
  0013b	5f		 pop	 edi
  0013c	5e		 pop	 esi
$LN1@ProcessWea:

; 524  : 	}
; 525  : }

  0013d	8b 4d fc	 mov	 ecx, DWORD PTR __$ArrayPad$[ebp]
  00140	33 cd		 xor	 ecx, ebp
  00142	5b		 pop	 ebx
  00143	e8 00 00 00 00	 call	 @__security_check_cookie@4
  00148	c9		 leave
  00149	c2 04 00	 ret	 4
?ProcessWeaponPos@ioSpaceMasterAttack@@IAEXPAVioBaseChar@@@Z ENDP ; ioSpaceMasterAttack::ProcessWeaponPos
_TEXT	ENDS
PUBLIC	__$ArrayPad$
PUBLIC	?OnSkillEndByWounded@ioSpaceMasterAttack@@UAEXPAVioBaseChar@@@Z ; ioSpaceMasterAttack::OnSkillEndByWounded
EXTRN	?OnSkillEndByWounded@ioSkill@@UAEXPAVioBaseChar@@@Z:PROC ; ioSkill::OnSkillEndByWounded
;	COMDAT xdata$x
; File d:\lost saga for developer\youtube\tutorial\source\src\lsclient\ioskill.h
xdata$x	SEGMENT
__unwindtable$?OnSkillEndByWounded@ioSpaceMasterAttack@@UAEXPAVioBaseChar@@@Z DD 0ffffffffH
	DD	FLAT:__unwindfunclet$?OnSkillEndByWounded@ioSpaceMasterAttack@@UAEXPAVioBaseChar@@@Z$0
__ehfuncinfo$?OnSkillEndByWounded@ioSpaceMasterAttack@@UAEXPAVioBaseChar@@@Z DD 019930522H
	DD	01H
	DD	FLAT:__unwindtable$?OnSkillEndByWounded@ioSpaceMasterAttack@@UAEXPAVioBaseChar@@@Z
	DD	2 DUP(00H)
	DD	2 DUP(00H)
	DD	00H
	DD	01H
; Function compile flags: /Ogsp
; File d:\lost saga for developer\youtube\tutorial\source\src\lsclient\iospacemasterattack.cpp
xdata$x	ENDS
;	COMDAT ?OnSkillEndByWounded@ioSpaceMasterAttack@@UAEXPAVioBaseChar@@@Z
_TEXT	SEGMENT
_kPacket$548855 = -32808				; size = 32792
__$ArrayPad$ = -16					; size = 4
__$EHRec$ = -12						; size = 12
_pChar$ = 8						; size = 4
?OnSkillEndByWounded@ioSpaceMasterAttack@@UAEXPAVioBaseChar@@@Z PROC ; ioSpaceMasterAttack::OnSkillEndByWounded, COMDAT
; _this$ = ecx

; 564  : {

  00000	55		 push	 ebp
  00001	8b ec		 mov	 ebp, esp
  00003	6a ff		 push	 -1
  00005	68 00 00 00 00	 push	 __ehhandler$?OnSkillEndByWounded@ioSpaceMasterAttack@@UAEXPAVioBaseChar@@@Z
  0000a	64 a1 00 00 00
	00		 mov	 eax, DWORD PTR fs:0
  00010	50		 push	 eax
  00011	b8 1c 80 00 00	 mov	 eax, 32796		; 0000801cH
  00016	e8 00 00 00 00	 call	 __chkstk
  0001b	a1 00 00 00 00	 mov	 eax, DWORD PTR ___security_cookie
  00020	33 c5		 xor	 eax, ebp
  00022	89 45 f0	 mov	 DWORD PTR __$ArrayPad$[ebp], eax
  00025	56		 push	 esi
  00026	57		 push	 edi
  00027	50		 push	 eax
  00028	8d 45 f4	 lea	 eax, DWORD PTR __$EHRec$[ebp]
  0002b	64 a3 00 00 00
	00		 mov	 DWORD PTR fs:0, eax
  00031	8b 75 08	 mov	 esi, DWORD PTR _pChar$[ebp]

; 565  : 	ioAttackSkill::OnSkillEndByWounded( pChar );

  00034	56		 push	 esi
  00035	8b f9		 mov	 edi, ecx
  00037	e8 00 00 00 00	 call	 ?OnSkillEndByWounded@ioSkill@@UAEXPAVioBaseChar@@@Z ; ioSkill::OnSkillEndByWounded

; 566  : 
; 567  : 	if( pChar->IsNeedProcess() )

  0003c	8b 06		 mov	 eax, DWORD PTR [esi]
  0003e	8b ce		 mov	 ecx, esi
  00040	ff 90 00 01 00
	00		 call	 DWORD PTR [eax+256]
  00046	84 c0		 test	 al, al
  00048	0f 84 8f 00 00
	00		 je	 $LN1@OnSkillEnd

; 568  : 	{
; 569  : 		RemoveWeapon( pChar );

  0004e	56		 push	 esi
  0004f	8b cf		 mov	 ecx, edi
  00051	e8 00 00 00 00	 call	 ?RemoveWeapon@ioSpaceMasterAttack@@IAEXPAVioBaseChar@@@Z ; ioSpaceMasterAttack::RemoveWeapon

; 570  : 
; 571  : 		SP2Packet kPacket( CUPK_SKILL_EXTRA_INFO );

  00056	68 39 41 00 00	 push	 16697			; 00004139H
  0005b	8d 8d d8 7f ff
	ff		 lea	 ecx, DWORD PTR _kPacket$548855[ebp]
  00061	e8 00 00 00 00	 call	 ??0SP2Packet@@QAE@K@Z	; SP2Packet::SP2Packet
  00066	83 65 fc 00	 and	 DWORD PTR __$EHRec$[ebp+8], 0

; 572  : 		kPacket << pChar->GetCharName();

  0006a	8d 86 d4 02 00
	00		 lea	 eax, DWORD PTR [esi+724]
  00070	50		 push	 eax
  00071	8d 8d d8 7f ff
	ff		 lea	 ecx, DWORD PTR _kPacket$548855[ebp]
  00077	e8 00 00 00 00	 call	 ??6SP2Packet@@QAEAAV0@ABVioHashString@@@Z ; SP2Packet::operator<<

; 573  : 		kPacket << GetName();

  0007c	83 c7 24	 add	 edi, 36			; 00000024H
  0007f	57		 push	 edi
  00080	8d 8d d8 7f ff
	ff		 lea	 ecx, DWORD PTR _kPacket$548855[ebp]
  00086	e8 00 00 00 00	 call	 ??6SP2Packet@@QAEAAV0@ABVioHashString@@@Z ; SP2Packet::operator<<

; 574  : 		kPacket << pChar->GetWorldOrientation();

  0008b	8b 06		 mov	 eax, DWORD PTR [esi]
  0008d	8b ce		 mov	 ecx, esi
  0008f	ff 50 74	 call	 DWORD PTR [eax+116]
  00092	50		 push	 eax
  00093	8d 8d d8 7f ff
	ff		 lea	 ecx, DWORD PTR _kPacket$548855[ebp]
  00099	e8 00 00 00 00	 call	 ??6SP2Packet@@QAEAAV0@ABUD3DXQUATERNION@@@Z ; SP2Packet::operator<<

; 575  : 		kPacket << pChar->GetWorldPosition();

  0009e	8b 06		 mov	 eax, DWORD PTR [esi]
  000a0	8b ce		 mov	 ecx, esi
  000a2	ff 50 70	 call	 DWORD PTR [eax+112]
  000a5	50		 push	 eax
  000a6	8d 8d d8 7f ff
	ff		 lea	 ecx, DWORD PTR _kPacket$548855[ebp]
  000ac	e8 00 00 00 00	 call	 ??6SP2Packet@@QAEAAV0@ABUD3DXVECTOR3@@@Z ; SP2Packet::operator<<

; 576  : 		kPacket << (byte)SSS_REMOVE_WEAPON;

  000b1	6a 03		 push	 3
  000b3	8d 8d d8 7f ff
	ff		 lea	 ecx, DWORD PTR _kPacket$548855[ebp]
  000b9	e8 00 00 00 00	 call	 ??6SP2Packet@@QAEAAV0@E@Z ; SP2Packet::operator<<

; 577  : 		P2PNetwork::SendToAllPlayingUser( kPacket );

  000be	8d 85 d8 7f ff
	ff		 lea	 eax, DWORD PTR _kPacket$548855[ebp]
  000c4	6a 00		 push	 0
  000c6	50		 push	 eax
  000c7	e8 00 00 00 00	 call	 ?SendToAllPlayingUser@P2PNetwork@@YAXAAVSP2Packet@@PAVioBaseChar@@@Z ; P2PNetwork::SendToAllPlayingUser

; 578  : 	}

  000cc	83 4d fc ff	 or	 DWORD PTR __$EHRec$[ebp+8], -1
  000d0	59		 pop	 ecx
  000d1	59		 pop	 ecx
  000d2	8d 8d d8 7f ff
	ff		 lea	 ecx, DWORD PTR _kPacket$548855[ebp]
  000d8	e8 00 00 00 00	 call	 ??1SP2Packet@@UAE@XZ	; SP2Packet::~SP2Packet
$LN1@OnSkillEnd:

; 579  : }

  000dd	8b 4d f4	 mov	 ecx, DWORD PTR __$EHRec$[ebp]
  000e0	64 89 0d 00 00
	00 00		 mov	 DWORD PTR fs:0, ecx
  000e7	59		 pop	 ecx
  000e8	5f		 pop	 edi
  000e9	5e		 pop	 esi
  000ea	8b 4d f0	 mov	 ecx, DWORD PTR __$ArrayPad$[ebp]
  000ed	33 cd		 xor	 ecx, ebp
  000ef	e8 00 00 00 00	 call	 @__security_check_cookie@4
  000f4	c9		 leave
  000f5	c2 04 00	 ret	 4
_TEXT	ENDS
;	COMDAT text$x
text$x	SEGMENT
__unwindfunclet$?OnSkillEndByWounded@ioSpaceMasterAttack@@UAEXPAVioBaseChar@@@Z$0:
  00000	8d 8d d8 7f ff
	ff		 lea	 ecx, DWORD PTR _kPacket$548855[ebp]
  00006	e9 00 00 00 00	 jmp	 ??1SP2Packet@@UAE@XZ	; SP2Packet::~SP2Packet
__ehhandler$?OnSkillEndByWounded@ioSpaceMasterAttack@@UAEXPAVioBaseChar@@@Z:
  0000b	8b 54 24 08	 mov	 edx, DWORD PTR [esp+8]
  0000f	8d 42 0c	 lea	 eax, DWORD PTR [edx+12]
  00012	8b 8a d8 7f ff
	ff		 mov	 ecx, DWORD PTR [edx-32808]
  00018	33 c8		 xor	 ecx, eax
  0001a	e8 00 00 00 00	 call	 @__security_check_cookie@4
  0001f	8b 4a fc	 mov	 ecx, DWORD PTR [edx-4]
  00022	33 c8		 xor	 ecx, eax
  00024	e8 00 00 00 00	 call	 @__security_check_cookie@4
  00029	b8 00 00 00 00	 mov	 eax, OFFSET __ehfuncinfo$?OnSkillEndByWounded@ioSpaceMasterAttack@@UAEXPAVioBaseChar@@@Z
  0002e	e9 00 00 00 00	 jmp	 ___CxxFrameHandler3
text$x	ENDS
?OnSkillEndByWounded@ioSpaceMasterAttack@@UAEXPAVioBaseChar@@@Z ENDP ; ioSpaceMasterAttack::OnSkillEndByWounded
PUBLIC	?GetAutoTargetValue@ioSpaceMasterAttack@@UAEXAAM00@Z ; ioSpaceMasterAttack::GetAutoTargetValue
EXTRN	?GetAutoTargetValue@ioSkill@@UAEXAAM00@Z:PROC	; ioSkill::GetAutoTargetValue
; Function compile flags: /Ogsp
;	COMDAT ?GetAutoTargetValue@ioSpaceMasterAttack@@UAEXAAM00@Z
_TEXT	SEGMENT
_fRange$ = 8						; size = 4
_fMinAngle$ = 12					; size = 4
_fMaxAngle$ = 16					; size = 4
?GetAutoTargetValue@ioSpaceMasterAttack@@UAEXAAM00@Z PROC ; ioSpaceMasterAttack::GetAutoTargetValue, COMDAT
; _this$ = ecx

; 606  : {

  00000	55		 push	 ebp
  00001	8b ec		 mov	 ebp, esp

; 607  : 	if( GetSkillUseType() == SUT_JUMP )

  00003	83 79 74 01	 cmp	 DWORD PTR [ecx+116], 1
  00007	75 25		 jne	 SHORT $LN2@GetAutoTar

; 608  : 	{
; 609  : 		fRange		= m_fJumpAutoTargetRange;

  00009	d9 81 f4 10 00
	00		 fld	 DWORD PTR [ecx+4340]
  0000f	8b 45 08	 mov	 eax, DWORD PTR _fRange$[ebp]
  00012	d9 18		 fstp	 DWORD PTR [eax]

; 610  : 		fMinAngle	= m_fJumpAutoTargetMinAngle;

  00014	8b 45 0c	 mov	 eax, DWORD PTR _fMinAngle$[ebp]
  00017	d9 81 f8 10 00
	00		 fld	 DWORD PTR [ecx+4344]
  0001d	d9 18		 fstp	 DWORD PTR [eax]

; 611  : 		fMaxAngle	= m_fJumpAutoTargetMaxAngle;

  0001f	8b 45 10	 mov	 eax, DWORD PTR _fMaxAngle$[ebp]
  00022	d9 81 fc 10 00
	00		 fld	 DWORD PTR [ecx+4348]
  00028	d9 18		 fstp	 DWORD PTR [eax]

; 616  : 	}
; 617  : }

  0002a	5d		 pop	 ebp
  0002b	c2 0c 00	 ret	 12			; 0000000cH
$LN2@GetAutoTar:
  0002e	5d		 pop	 ebp

; 612  : 	}
; 613  : 	else
; 614  : 	{
; 615  : 		ioSkill::GetAutoTargetValue( fRange, fMinAngle, fMaxAngle );

  0002f	e9 00 00 00 00	 jmp	 ?GetAutoTargetValue@ioSkill@@UAEXAAM00@Z ; ioSkill::GetAutoTargetValue
?GetAutoTargetValue@ioSpaceMasterAttack@@UAEXAAM00@Z ENDP ; ioSpaceMasterAttack::GetAutoTargetValue
_TEXT	ENDS
PUBLIC	??D?$_Vector_iterator@V?$_Vector_val@VioHashString@@V?$allocator@VioHashString@@@std@@@std@@@std@@QBEAAVioHashString@@XZ ; std::_Vector_iterator<std::_Vector_val<ioHashString,std::allocator<ioHashString> > >::operator*
; Function compile flags: /Ogsp
; File c:\program files (x86)\microsoft visual studio 10.0\vc\include\vector
;	COMDAT ??D?$_Vector_iterator@V?$_Vector_val@VioHashString@@V?$allocator@VioHashString@@@std@@@std@@@std@@QBEAAVioHashString@@XZ
_TEXT	SEGMENT
??D?$_Vector_iterator@V?$_Vector_val@VioHashString@@V?$allocator@VioHashString@@@std@@@std@@@std@@QBEAAVioHashString@@XZ PROC ; std::_Vector_iterator<std::_Vector_val<ioHashString,std::allocator<ioHashString> > >::operator*, COMDAT
; _this$ = ecx

; 322  : 		return ((reference)**(_Mybase *)this);

  00000	8b 01		 mov	 eax, DWORD PTR [ecx]

; 323  : 		}

  00002	c3		 ret	 0
??D?$_Vector_iterator@V?$_Vector_val@VioHashString@@V?$allocator@VioHashString@@@std@@@std@@@std@@QBEAAVioHashString@@XZ ENDP ; std::_Vector_iterator<std::_Vector_val<ioHashString,std::allocator<ioHashString> > >::operator*
_TEXT	ENDS
PUBLIC	??E?$_Vector_iterator@V?$_Vector_val@VioHashString@@V?$allocator@VioHashString@@@std@@@std@@@std@@QAEAAV01@XZ ; std::_Vector_iterator<std::_Vector_val<ioHashString,std::allocator<ioHashString> > >::operator++
; Function compile flags: /Ogsp
;	COMDAT ??E?$_Vector_iterator@V?$_Vector_val@VioHashString@@V?$allocator@VioHashString@@@std@@@std@@@std@@QAEAAV01@XZ
_TEXT	SEGMENT
??E?$_Vector_iterator@V?$_Vector_val@VioHashString@@V?$allocator@VioHashString@@@std@@@std@@@std@@QAEAAV01@XZ PROC ; std::_Vector_iterator<std::_Vector_val<ioHashString,std::allocator<ioHashString> > >::operator++, COMDAT
; _this$ = ecx

; 331  : 		{	// preincrement

  00000	8b c1		 mov	 eax, ecx

; 332  : 		++*(_Mybase *)this;

  00002	83 00 10	 add	 DWORD PTR [eax], 16	; 00000010H

; 333  : 		return (*this);
; 334  : 		}

  00005	c3		 ret	 0
??E?$_Vector_iterator@V?$_Vector_val@VioHashString@@V?$allocator@VioHashString@@@std@@@std@@@std@@QAEAAV01@XZ ENDP ; std::_Vector_iterator<std::_Vector_val<ioHashString,std::allocator<ioHashString> > >::operator++
_TEXT	ENDS
PUBLIC	??D?$_Vector_iterator@V?$_Vector_val@KV?$allocator@K@std@@@std@@@std@@QBEAAKXZ ; std::_Vector_iterator<std::_Vector_val<unsigned long,std::allocator<unsigned long> > >::operator*
; Function compile flags: /Ogsp
;	COMDAT ??D?$_Vector_iterator@V?$_Vector_val@KV?$allocator@K@std@@@std@@@std@@QBEAAKXZ
_TEXT	SEGMENT
??D?$_Vector_iterator@V?$_Vector_val@KV?$allocator@K@std@@@std@@@std@@QBEAAKXZ PROC ; std::_Vector_iterator<std::_Vector_val<unsigned long,std::allocator<unsigned long> > >::operator*, COMDAT
; _this$ = ecx

; 322  : 		return ((reference)**(_Mybase *)this);

  00000	8b 01		 mov	 eax, DWORD PTR [ecx]

; 323  : 		}

  00002	c3		 ret	 0
??D?$_Vector_iterator@V?$_Vector_val@KV?$allocator@K@std@@@std@@@std@@QBEAAKXZ ENDP ; std::_Vector_iterator<std::_Vector_val<unsigned long,std::allocator<unsigned long> > >::operator*
_TEXT	ENDS
PUBLIC	??E?$_Vector_iterator@V?$_Vector_val@KV?$allocator@K@std@@@std@@@std@@QAEAAV01@XZ ; std::_Vector_iterator<std::_Vector_val<unsigned long,std::allocator<unsigned long> > >::operator++
; Function compile flags: /Ogsp
;	COMDAT ??E?$_Vector_iterator@V?$_Vector_val@KV?$allocator@K@std@@@std@@@std@@QAEAAV01@XZ
_TEXT	SEGMENT
??E?$_Vector_iterator@V?$_Vector_val@KV?$allocator@K@std@@@std@@@std@@QAEAAV01@XZ PROC ; std::_Vector_iterator<std::_Vector_val<unsigned long,std::allocator<unsigned long> > >::operator++, COMDAT
; _this$ = ecx

; 331  : 		{	// preincrement

  00000	8b c1		 mov	 eax, ecx

; 332  : 		++*(_Mybase *)this;

  00002	83 00 04	 add	 DWORD PTR [eax], 4

; 333  : 		return (*this);
; 334  : 		}

  00005	c3		 ret	 0
??E?$_Vector_iterator@V?$_Vector_val@KV?$allocator@K@std@@@std@@@std@@QAEAAV01@XZ ENDP ; std::_Vector_iterator<std::_Vector_val<unsigned long,std::allocator<unsigned long> > >::operator++
_TEXT	ENDS
PUBLIC	??D?$_Vector_iterator@V?$_Vector_val@UWeaponInfo@@V?$allocator@UWeaponInfo@@@std@@@std@@@std@@QBEAAUWeaponInfo@@XZ ; std::_Vector_iterator<std::_Vector_val<WeaponInfo,std::allocator<WeaponInfo> > >::operator*
; Function compile flags: /Ogsp
;	COMDAT ??D?$_Vector_iterator@V?$_Vector_val@UWeaponInfo@@V?$allocator@UWeaponInfo@@@std@@@std@@@std@@QBEAAUWeaponInfo@@XZ
_TEXT	SEGMENT
??D?$_Vector_iterator@V?$_Vector_val@UWeaponInfo@@V?$allocator@UWeaponInfo@@@std@@@std@@@std@@QBEAAUWeaponInfo@@XZ PROC ; std::_Vector_iterator<std::_Vector_val<WeaponInfo,std::allocator<WeaponInfo> > >::operator*, COMDAT
; _this$ = ecx

; 322  : 		return ((reference)**(_Mybase *)this);

  00000	8b 01		 mov	 eax, DWORD PTR [ecx]

; 323  : 		}

  00002	c3		 ret	 0
??D?$_Vector_iterator@V?$_Vector_val@UWeaponInfo@@V?$allocator@UWeaponInfo@@@std@@@std@@@std@@QBEAAUWeaponInfo@@XZ ENDP ; std::_Vector_iterator<std::_Vector_val<WeaponInfo,std::allocator<WeaponInfo> > >::operator*
_TEXT	ENDS
PUBLIC	??E?$_Vector_iterator@V?$_Vector_val@UWeaponInfo@@V?$allocator@UWeaponInfo@@@std@@@std@@@std@@QAEAAV01@XZ ; std::_Vector_iterator<std::_Vector_val<WeaponInfo,std::allocator<WeaponInfo> > >::operator++
; Function compile flags: /Ogsp
;	COMDAT ??E?$_Vector_iterator@V?$_Vector_val@UWeaponInfo@@V?$allocator@UWeaponInfo@@@std@@@std@@@std@@QAEAAV01@XZ
_TEXT	SEGMENT
??E?$_Vector_iterator@V?$_Vector_val@UWeaponInfo@@V?$allocator@UWeaponInfo@@@std@@@std@@@std@@QAEAAV01@XZ PROC ; std::_Vector_iterator<std::_Vector_val<WeaponInfo,std::allocator<WeaponInfo> > >::operator++, COMDAT
; _this$ = ecx

; 331  : 		{	// preincrement

  00000	8b c1		 mov	 eax, ecx

; 332  : 		++*(_Mybase *)this;

  00002	83 00 28	 add	 DWORD PTR [eax], 40	; 00000028H

; 333  : 		return (*this);
; 334  : 		}

  00005	c3		 ret	 0
??E?$_Vector_iterator@V?$_Vector_val@UWeaponInfo@@V?$allocator@UWeaponInfo@@@std@@@std@@@std@@QAEAAV01@XZ ENDP ; std::_Vector_iterator<std::_Vector_val<WeaponInfo,std::allocator<WeaponInfo> > >::operator++
_TEXT	ENDS
PUBLIC	?begin@?$vector@UWeaponInfo@@V?$allocator@UWeaponInfo@@@std@@@std@@QBE?AV?$_Vector_const_iterator@V?$_Vector_val@UWeaponInfo@@V?$allocator@UWeaponInfo@@@std@@@std@@@2@XZ ; std::vector<WeaponInfo,std::allocator<WeaponInfo> >::begin
; Function compile flags: /Ogsp
;	COMDAT ?begin@?$vector@UWeaponInfo@@V?$allocator@UWeaponInfo@@@std@@@std@@QBE?AV?$_Vector_const_iterator@V?$_Vector_val@UWeaponInfo@@V?$allocator@UWeaponInfo@@@std@@@std@@@2@XZ
_TEXT	SEGMENT
___$ReturnUdt$ = 8					; size = 4
?begin@?$vector@UWeaponInfo@@V?$allocator@UWeaponInfo@@@std@@@std@@QBE?AV?$_Vector_const_iterator@V?$_Vector_val@UWeaponInfo@@V?$allocator@UWeaponInfo@@@std@@@std@@@2@XZ PROC ; std::vector<WeaponInfo,std::allocator<WeaponInfo> >::begin, COMDAT
; _this$ = ecx

; 786  : 		{	// return iterator for beginning of nonmutable sequence

  00000	55		 push	 ebp
  00001	8b ec		 mov	 ebp, esp

; 787  : 		return (const_iterator(this->_Myfirst, this));

  00003	8b 09		 mov	 ecx, DWORD PTR [ecx]
  00005	8b 45 08	 mov	 eax, DWORD PTR ___$ReturnUdt$[ebp]
  00008	89 08		 mov	 DWORD PTR [eax], ecx

; 788  : 		}

  0000a	5d		 pop	 ebp
  0000b	c2 04 00	 ret	 4
?begin@?$vector@UWeaponInfo@@V?$allocator@UWeaponInfo@@@std@@@std@@QBE?AV?$_Vector_const_iterator@V?$_Vector_val@UWeaponInfo@@V?$allocator@UWeaponInfo@@@std@@@std@@@2@XZ ENDP ; std::vector<WeaponInfo,std::allocator<WeaponInfo> >::begin
_TEXT	ENDS
PUBLIC	?end@?$vector@UWeaponInfo@@V?$allocator@UWeaponInfo@@@std@@@std@@QBE?AV?$_Vector_const_iterator@V?$_Vector_val@UWeaponInfo@@V?$allocator@UWeaponInfo@@@std@@@std@@@2@XZ ; std::vector<WeaponInfo,std::allocator<WeaponInfo> >::end
; Function compile flags: /Ogsp
;	COMDAT ?end@?$vector@UWeaponInfo@@V?$allocator@UWeaponInfo@@@std@@@std@@QBE?AV?$_Vector_const_iterator@V?$_Vector_val@UWeaponInfo@@V?$allocator@UWeaponInfo@@@std@@@std@@@2@XZ
_TEXT	SEGMENT
___$ReturnUdt$ = 8					; size = 4
?end@?$vector@UWeaponInfo@@V?$allocator@UWeaponInfo@@@std@@@std@@QBE?AV?$_Vector_const_iterator@V?$_Vector_val@UWeaponInfo@@V?$allocator@UWeaponInfo@@@std@@@std@@@2@XZ PROC ; std::vector<WeaponInfo,std::allocator<WeaponInfo> >::end, COMDAT
; _this$ = ecx

; 796  : 		{	// return iterator for end of nonmutable sequence

  00000	55		 push	 ebp
  00001	8b ec		 mov	 ebp, esp

; 797  : 		return (const_iterator(this->_Mylast, this));

  00003	8b 49 04	 mov	 ecx, DWORD PTR [ecx+4]
  00006	8b 45 08	 mov	 eax, DWORD PTR ___$ReturnUdt$[ebp]
  00009	89 08		 mov	 DWORD PTR [eax], ecx

; 798  : 		}

  0000b	5d		 pop	 ebp
  0000c	c2 04 00	 ret	 4
?end@?$vector@UWeaponInfo@@V?$allocator@UWeaponInfo@@@std@@@std@@QBE?AV?$_Vector_const_iterator@V?$_Vector_val@UWeaponInfo@@V?$allocator@UWeaponInfo@@@std@@@std@@@2@XZ ENDP ; std::vector<WeaponInfo,std::allocator<WeaponInfo> >::end
_TEXT	ENDS
PUBLIC	?begin@?$vector@UForceInfo@@V?$allocator@UForceInfo@@@std@@@std@@QBE?AV?$_Vector_const_iterator@V?$_Vector_val@UForceInfo@@V?$allocator@UForceInfo@@@std@@@std@@@2@XZ ; std::vector<ForceInfo,std::allocator<ForceInfo> >::begin
; Function compile flags: /Ogsp
;	COMDAT ?begin@?$vector@UForceInfo@@V?$allocator@UForceInfo@@@std@@@std@@QBE?AV?$_Vector_const_iterator@V?$_Vector_val@UForceInfo@@V?$allocator@UForceInfo@@@std@@@std@@@2@XZ
_TEXT	SEGMENT
___$ReturnUdt$ = 8					; size = 4
?begin@?$vector@UForceInfo@@V?$allocator@UForceInfo@@@std@@@std@@QBE?AV?$_Vector_const_iterator@V?$_Vector_val@UForceInfo@@V?$allocator@UForceInfo@@@std@@@std@@@2@XZ PROC ; std::vector<ForceInfo,std::allocator<ForceInfo> >::begin, COMDAT
; _this$ = ecx

; 786  : 		{	// return iterator for beginning of nonmutable sequence

  00000	55		 push	 ebp
  00001	8b ec		 mov	 ebp, esp

; 787  : 		return (const_iterator(this->_Myfirst, this));

  00003	8b 09		 mov	 ecx, DWORD PTR [ecx]
  00005	8b 45 08	 mov	 eax, DWORD PTR ___$ReturnUdt$[ebp]
  00008	89 08		 mov	 DWORD PTR [eax], ecx

; 788  : 		}

  0000a	5d		 pop	 ebp
  0000b	c2 04 00	 ret	 4
?begin@?$vector@UForceInfo@@V?$allocator@UForceInfo@@@std@@@std@@QBE?AV?$_Vector_const_iterator@V?$_Vector_val@UForceInfo@@V?$allocator@UForceInfo@@@std@@@std@@@2@XZ ENDP ; std::vector<ForceInfo,std::allocator<ForceInfo> >::begin
_TEXT	ENDS
PUBLIC	?end@?$vector@UForceInfo@@V?$allocator@UForceInfo@@@std@@@std@@QBE?AV?$_Vector_const_iterator@V?$_Vector_val@UForceInfo@@V?$allocator@UForceInfo@@@std@@@std@@@2@XZ ; std::vector<ForceInfo,std::allocator<ForceInfo> >::end
; Function compile flags: /Ogsp
;	COMDAT ?end@?$vector@UForceInfo@@V?$allocator@UForceInfo@@@std@@@std@@QBE?AV?$_Vector_const_iterator@V?$_Vector_val@UForceInfo@@V?$allocator@UForceInfo@@@std@@@std@@@2@XZ
_TEXT	SEGMENT
___$ReturnUdt$ = 8					; size = 4
?end@?$vector@UForceInfo@@V?$allocator@UForceInfo@@@std@@@std@@QBE?AV?$_Vector_const_iterator@V?$_Vector_val@UForceInfo@@V?$allocator@UForceInfo@@@std@@@std@@@2@XZ PROC ; std::vector<ForceInfo,std::allocator<ForceInfo> >::end, COMDAT
; _this$ = ecx

; 796  : 		{	// return iterator for end of nonmutable sequence

  00000	55		 push	 ebp
  00001	8b ec		 mov	 ebp, esp

; 797  : 		return (const_iterator(this->_Mylast, this));

  00003	8b 49 04	 mov	 ecx, DWORD PTR [ecx+4]
  00006	8b 45 08	 mov	 eax, DWORD PTR ___$ReturnUdt$[ebp]
  00009	89 08		 mov	 DWORD PTR [eax], ecx

; 798  : 		}

  0000b	5d		 pop	 ebp
  0000c	c2 04 00	 ret	 4
?end@?$vector@UForceInfo@@V?$allocator@UForceInfo@@@std@@@std@@QBE?AV?$_Vector_const_iterator@V?$_Vector_val@UForceInfo@@V?$allocator@UForceInfo@@@std@@@std@@@2@XZ ENDP ; std::vector<ForceInfo,std::allocator<ForceInfo> >::end
_TEXT	ENDS
PUBLIC	__$ArrayPad$
PUBLIC	??$LoadInt_e@$0BD@@ioINILoader@@QAEHAAY0BD@$$CBDH@Z ; ioINILoader::LoadInt_e<19>
EXTRN	__imp_?LoadInt@ioINILoader@@QAEHPBDH@Z:PROC
; Function compile flags: /Ogsp
; File d:\lost saga for developer\youtube\tutorial\source\src\io3dengine\ioiniloader.h
;	COMDAT ??$LoadInt_e@$0BD@@ioINILoader@@QAEHAAY0BD@$$CBDH@Z
_TEXT	SEGMENT
__k$ = -28						; size = 19
__$ArrayPad$ = -4					; size = 4
_k$ = 8							; size = 4
_i$ = 12						; size = 4
??$LoadInt_e@$0BD@@ioINILoader@@QAEHAAY0BD@$$CBDH@Z PROC ; ioINILoader::LoadInt_e<19>, COMDAT
; _this$ = ecx

; 118  : 	{

  00000	55		 push	 ebp
  00001	8b ec		 mov	 ebp, esp
  00003	83 ec 1c	 sub	 esp, 28			; 0000001cH
  00006	a1 00 00 00 00	 mov	 eax, DWORD PTR ___security_cookie
  0000b	33 c5		 xor	 eax, ebp
  0000d	89 45 fc	 mov	 DWORD PTR __$ArrayPad$[ebp], eax
  00010	8b 45 08	 mov	 eax, DWORD PTR _k$[ebp]

; 119  : 		_ENCSTR(k, _k);

  00013	8a 10		 mov	 dl, BYTE PTR [eax]
  00015	56		 push	 esi
  00016	8b f1		 mov	 esi, ecx
  00018	84 d2		 test	 dl, dl
  0001a	0f 84 cf 01 00
	00		 je	 $LN96@LoadInt_e
  00020	80 f2 ed	 xor	 dl, -19			; ffffffedH
  00023	88 55 e4	 mov	 BYTE PTR __k$[ebp], dl
  00026	8a 50 01	 mov	 dl, BYTE PTR [eax+1]
  00029	84 d2		 test	 dl, dl
  0002b	0f 84 b8 01 00
	00		 je	 $LN95@LoadInt_e
  00031	b1 ec		 mov	 cl, -20			; ffffffecH
  00033	32 d1		 xor	 dl, cl
  00035	88 55 e5	 mov	 BYTE PTR __k$[ebp+1], dl
  00038	8a 50 02	 mov	 dl, BYTE PTR [eax+2]
  0003b	84 d2		 test	 dl, dl
  0003d	0f 84 a0 01 00
	00		 je	 $LN94@LoadInt_e
  00043	80 f2 eb	 xor	 dl, -21			; ffffffebH
  00046	88 55 e6	 mov	 BYTE PTR __k$[ebp+2], dl
  00049	8a 50 03	 mov	 dl, BYTE PTR [eax+3]
  0004c	84 d2		 test	 dl, dl
  0004e	0f 84 89 01 00
	00		 je	 $LN93@LoadInt_e
  00054	80 f2 ea	 xor	 dl, -22			; ffffffeaH
  00057	88 55 e7	 mov	 BYTE PTR __k$[ebp+3], dl
  0005a	8a 50 04	 mov	 dl, BYTE PTR [eax+4]
  0005d	84 d2		 test	 dl, dl
  0005f	0f 84 72 01 00
	00		 je	 $LN92@LoadInt_e
  00065	80 f2 ed	 xor	 dl, -19			; ffffffedH
  00068	88 55 e8	 mov	 BYTE PTR __k$[ebp+4], dl
  0006b	8a 50 05	 mov	 dl, BYTE PTR [eax+5]
  0006e	84 d2		 test	 dl, dl
  00070	0f 84 5c 01 00
	00		 je	 $LN91@LoadInt_e
  00076	32 d1		 xor	 dl, cl
  00078	88 55 e9	 mov	 BYTE PTR __k$[ebp+5], dl
  0007b	8a 50 06	 mov	 dl, BYTE PTR [eax+6]
  0007e	84 d2		 test	 dl, dl
  00080	0f 84 46 01 00
	00		 je	 $LN90@LoadInt_e
  00086	80 f2 eb	 xor	 dl, -21			; ffffffebH
  00089	88 55 ea	 mov	 BYTE PTR __k$[ebp+6], dl
  0008c	8a 50 07	 mov	 dl, BYTE PTR [eax+7]
  0008f	84 d2		 test	 dl, dl
  00091	0f 84 2f 01 00
	00		 je	 $LN89@LoadInt_e
  00097	80 f2 ea	 xor	 dl, -22			; ffffffeaH
  0009a	88 55 eb	 mov	 BYTE PTR __k$[ebp+7], dl
  0009d	8a 50 08	 mov	 dl, BYTE PTR [eax+8]
  000a0	84 d2		 test	 dl, dl
  000a2	0f 84 18 01 00
	00		 je	 $LN88@LoadInt_e
  000a8	80 f2 ed	 xor	 dl, -19			; ffffffedH
  000ab	88 55 ec	 mov	 BYTE PTR __k$[ebp+8], dl
  000ae	8a 50 09	 mov	 dl, BYTE PTR [eax+9]
  000b1	84 d2		 test	 dl, dl
  000b3	0f 84 02 01 00
	00		 je	 $LN87@LoadInt_e
  000b9	32 d1		 xor	 dl, cl
  000bb	88 55 ed	 mov	 BYTE PTR __k$[ebp+9], dl
  000be	8a 50 0a	 mov	 dl, BYTE PTR [eax+10]
  000c1	84 d2		 test	 dl, dl
  000c3	0f 84 ec 00 00
	00		 je	 $LN86@LoadInt_e
  000c9	80 f2 eb	 xor	 dl, -21			; ffffffebH
  000cc	88 55 ee	 mov	 BYTE PTR __k$[ebp+10], dl
  000cf	8a 50 0b	 mov	 dl, BYTE PTR [eax+11]
  000d2	84 d2		 test	 dl, dl
  000d4	0f 84 d5 00 00
	00		 je	 $LN85@LoadInt_e
  000da	80 f2 ea	 xor	 dl, -22			; ffffffeaH
  000dd	88 55 ef	 mov	 BYTE PTR __k$[ebp+11], dl
  000e0	8a 50 0c	 mov	 dl, BYTE PTR [eax+12]
  000e3	84 d2		 test	 dl, dl
  000e5	0f 84 be 00 00
	00		 je	 $LN84@LoadInt_e
  000eb	80 f2 ed	 xor	 dl, -19			; ffffffedH
  000ee	88 55 f0	 mov	 BYTE PTR __k$[ebp+12], dl
  000f1	8a 50 0d	 mov	 dl, BYTE PTR [eax+13]
  000f4	84 d2		 test	 dl, dl
  000f6	0f 84 a8 00 00
	00		 je	 $LN83@LoadInt_e
  000fc	32 d1		 xor	 dl, cl
  000fe	88 55 f1	 mov	 BYTE PTR __k$[ebp+13], dl
  00101	8a 50 0e	 mov	 dl, BYTE PTR [eax+14]
  00104	84 d2		 test	 dl, dl
  00106	0f 84 92 00 00
	00		 je	 $LN82@LoadInt_e
  0010c	80 f2 eb	 xor	 dl, -21			; ffffffebH
  0010f	88 55 f2	 mov	 BYTE PTR __k$[ebp+14], dl
  00112	8a 50 0f	 mov	 dl, BYTE PTR [eax+15]
  00115	84 d2		 test	 dl, dl
  00117	74 7f		 je	 SHORT $LN81@LoadInt_e
  00119	80 f2 ea	 xor	 dl, -22			; ffffffeaH
  0011c	88 55 f3	 mov	 BYTE PTR __k$[ebp+15], dl
  0011f	8a 50 10	 mov	 dl, BYTE PTR [eax+16]
  00122	84 d2		 test	 dl, dl
  00124	74 6c		 je	 SHORT $LN80@LoadInt_e
  00126	80 f2 ed	 xor	 dl, -19			; ffffffedH
  00129	88 55 f4	 mov	 BYTE PTR __k$[ebp+16], dl
  0012c	8a 50 11	 mov	 dl, BYTE PTR [eax+17]
  0012f	84 d2		 test	 dl, dl
  00131	74 5a		 je	 SHORT $LN79@LoadInt_e
  00133	32 d1		 xor	 dl, cl
  00135	80 78 12 00	 cmp	 BYTE PTR [eax+18], 0
  00139	88 55 f5	 mov	 BYTE PTR __k$[ebp+17], dl
  0013c	0f 84 b1 00 00
	00		 je	 $LN1@LoadInt_e
  00142	8a 50 13	 mov	 dl, BYTE PTR [eax+19]
  00145	84 d2		 test	 dl, dl
  00147	74 3e		 je	 SHORT $LN77@LoadInt_e
  00149	80 f2 ea	 xor	 dl, -22			; ffffffeaH
  0014c	88 55 f7	 mov	 BYTE PTR __k$[ebp+19], dl
  0014f	8a 50 14	 mov	 dl, BYTE PTR [eax+20]
  00152	84 d2		 test	 dl, dl
  00154	74 2b		 je	 SHORT $LN76@LoadInt_e
  00156	80 f2 ed	 xor	 dl, -19			; ffffffedH
  00159	88 55 f8	 mov	 BYTE PTR __k$[ebp+20], dl
  0015c	8a 50 15	 mov	 dl, BYTE PTR [eax+21]
  0015f	84 d2		 test	 dl, dl
  00161	74 19		 je	 SHORT $LN75@LoadInt_e
  00163	8a 40 16	 mov	 al, BYTE PTR [eax+22]
  00166	32 d1		 xor	 dl, cl
  00168	88 55 f9	 mov	 BYTE PTR __k$[ebp+21], dl
  0016b	84 c0		 test	 al, al
  0016d	74 07		 je	 SHORT $LN74@LoadInt_e
  0016f	34 eb		 xor	 al, -21			; ffffffebH
  00171	88 45 fa	 mov	 BYTE PTR __k$[ebp+22], al
  00174	eb 7d		 jmp	 SHORT $LN1@LoadInt_e
$LN74@LoadInt_e:
  00176	c6 45 fa eb	 mov	 BYTE PTR __k$[ebp+22], -21 ; ffffffebH
  0017a	eb 77		 jmp	 SHORT $LN1@LoadInt_e
$LN75@LoadInt_e:
  0017c	88 4d f9	 mov	 BYTE PTR __k$[ebp+21], cl
  0017f	eb 72		 jmp	 SHORT $LN1@LoadInt_e
$LN76@LoadInt_e:
  00181	c6 45 f8 ed	 mov	 BYTE PTR __k$[ebp+20], -19 ; ffffffedH
  00185	eb 6c		 jmp	 SHORT $LN1@LoadInt_e
$LN77@LoadInt_e:
  00187	c6 45 f7 ea	 mov	 BYTE PTR __k$[ebp+19], -22 ; ffffffeaH
  0018b	eb 66		 jmp	 SHORT $LN1@LoadInt_e
$LN79@LoadInt_e:
  0018d	88 4d f5	 mov	 BYTE PTR __k$[ebp+17], cl
  00190	eb 61		 jmp	 SHORT $LN1@LoadInt_e
$LN80@LoadInt_e:
  00192	c6 45 f4 ed	 mov	 BYTE PTR __k$[ebp+16], -19 ; ffffffedH
  00196	eb 5b		 jmp	 SHORT $LN1@LoadInt_e
$LN81@LoadInt_e:
  00198	c6 45 f3 ea	 mov	 BYTE PTR __k$[ebp+15], -22 ; ffffffeaH
  0019c	eb 55		 jmp	 SHORT $LN1@LoadInt_e
$LN82@LoadInt_e:
  0019e	c6 45 f2 eb	 mov	 BYTE PTR __k$[ebp+14], -21 ; ffffffebH
  001a2	eb 4f		 jmp	 SHORT $LN1@LoadInt_e
$LN83@LoadInt_e:
  001a4	88 4d f1	 mov	 BYTE PTR __k$[ebp+13], cl
  001a7	eb 4a		 jmp	 SHORT $LN1@LoadInt_e
$LN84@LoadInt_e:
  001a9	c6 45 f0 ed	 mov	 BYTE PTR __k$[ebp+12], -19 ; ffffffedH
  001ad	eb 44		 jmp	 SHORT $LN1@LoadInt_e
$LN85@LoadInt_e:
  001af	c6 45 ef ea	 mov	 BYTE PTR __k$[ebp+11], -22 ; ffffffeaH
  001b3	eb 3e		 jmp	 SHORT $LN1@LoadInt_e
$LN86@LoadInt_e:
  001b5	c6 45 ee eb	 mov	 BYTE PTR __k$[ebp+10], -21 ; ffffffebH
  001b9	eb 38		 jmp	 SHORT $LN1@LoadInt_e
$LN87@LoadInt_e:
  001bb	88 4d ed	 mov	 BYTE PTR __k$[ebp+9], cl
  001be	eb 33		 jmp	 SHORT $LN1@LoadInt_e
$LN88@LoadInt_e:
  001c0	c6 45 ec ed	 mov	 BYTE PTR __k$[ebp+8], -19 ; ffffffedH
  001c4	eb 2d		 jmp	 SHORT $LN1@LoadInt_e
$LN89@LoadInt_e:
  001c6	c6 45 eb ea	 mov	 BYTE PTR __k$[ebp+7], -22 ; ffffffeaH
  001ca	eb 27		 jmp	 SHORT $LN1@LoadInt_e
$LN90@LoadInt_e:
  001cc	c6 45 ea eb	 mov	 BYTE PTR __k$[ebp+6], -21 ; ffffffebH
  001d0	eb 21		 jmp	 SHORT $LN1@LoadInt_e
$LN91@LoadInt_e:
  001d2	88 4d e9	 mov	 BYTE PTR __k$[ebp+5], cl
  001d5	eb 1c		 jmp	 SHORT $LN1@LoadInt_e
$LN92@LoadInt_e:
  001d7	c6 45 e8 ed	 mov	 BYTE PTR __k$[ebp+4], -19 ; ffffffedH
  001db	eb 16		 jmp	 SHORT $LN1@LoadInt_e
$LN93@LoadInt_e:
  001dd	c6 45 e7 ea	 mov	 BYTE PTR __k$[ebp+3], -22 ; ffffffeaH
  001e1	eb 10		 jmp	 SHORT $LN1@LoadInt_e
$LN94@LoadInt_e:
  001e3	c6 45 e6 eb	 mov	 BYTE PTR __k$[ebp+2], -21 ; ffffffebH
  001e7	eb 0a		 jmp	 SHORT $LN1@LoadInt_e
$LN95@LoadInt_e:
  001e9	c6 45 e5 ec	 mov	 BYTE PTR __k$[ebp+1], -20 ; ffffffecH
  001ed	eb 04		 jmp	 SHORT $LN1@LoadInt_e
$LN96@LoadInt_e:
  001ef	c6 45 e4 ed	 mov	 BYTE PTR __k$[ebp], -19	; ffffffedH
$LN1@LoadInt_e:
  001f3	6a 04		 push	 4
  001f5	8d 45 e4	 lea	 eax, DWORD PTR __k$[ebp]
  001f8	c6 45 f6 00	 mov	 BYTE PTR __k$[ebp+18], 0
  001fc	5a		 pop	 edx
$LL104@LoadInt_e:
  001fd	81 30 ed ec eb
	ea		 xor	 DWORD PTR [eax], -353637139 ; eaebecedH
  00203	83 c0 04	 add	 eax, 4
  00206	4a		 dec	 edx
  00207	75 f4		 jne	 SHORT $LL104@LoadInt_e
  00209	6a 10		 push	 16			; 00000010H
  0020b	58		 pop	 eax
$LL101@LoadInt_e:
  0020c	8b c8		 mov	 ecx, eax
  0020e	81 e1 03 00 00
	80		 and	 ecx, -2147483645	; 80000003H
  00214	79 05		 jns	 SHORT $LN111@LoadInt_e
  00216	49		 dec	 ecx
  00217	83 c9 fc	 or	 ecx, -4			; fffffffcH
  0021a	41		 inc	 ecx
$LN111@LoadInt_e:
  0021b	b2 ed		 mov	 dl, -19			; ffffffedH
  0021d	2a d1		 sub	 dl, cl
  0021f	30 54 05 e4	 xor	 BYTE PTR __k$[ebp+eax], dl
  00223	40		 inc	 eax
  00224	83 f8 12	 cmp	 eax, 18			; 00000012H
  00227	7c e3		 jl	 SHORT $LL101@LoadInt_e

; 120  : 		return LoadInt(_k, i);

  00229	ff 75 0c	 push	 DWORD PTR _i$[ebp]
  0022c	8d 45 e4	 lea	 eax, DWORD PTR __k$[ebp]
  0022f	50		 push	 eax
  00230	8b ce		 mov	 ecx, esi
  00232	ff 15 00 00 00
	00		 call	 DWORD PTR __imp_?LoadInt@ioINILoader@@QAEHPBDH@Z

; 121  : 	}

  00238	8b 4d fc	 mov	 ecx, DWORD PTR __$ArrayPad$[ebp]
  0023b	33 cd		 xor	 ecx, ebp
  0023d	5e		 pop	 esi
  0023e	e8 00 00 00 00	 call	 @__security_check_cookie@4
  00243	c9		 leave
  00244	c2 08 00	 ret	 8
??$LoadInt_e@$0BD@@ioINILoader@@QAEHAAY0BD@$$CBDH@Z ENDP ; ioINILoader::LoadInt_e<19>
_TEXT	ENDS
PUBLIC	__$ArrayPad$
PUBLIC	??$LoadInt_e@$0BB@@ioINILoader@@QAEHAAY0BB@$$CBDH@Z ; ioINILoader::LoadInt_e<17>
; Function compile flags: /Ogsp
;	COMDAT ??$LoadInt_e@$0BB@@ioINILoader@@QAEHAAY0BB@$$CBDH@Z
_TEXT	SEGMENT
__k$ = -28						; size = 17
__$ArrayPad$ = -4					; size = 4
_k$ = 8							; size = 4
_i$ = 12						; size = 4
??$LoadInt_e@$0BB@@ioINILoader@@QAEHAAY0BB@$$CBDH@Z PROC ; ioINILoader::LoadInt_e<17>, COMDAT
; _this$ = ecx

; 118  : 	{

  00000	55		 push	 ebp
  00001	8b ec		 mov	 ebp, esp
  00003	83 ec 1c	 sub	 esp, 28			; 0000001cH
  00006	a1 00 00 00 00	 mov	 eax, DWORD PTR ___security_cookie
  0000b	33 c5		 xor	 eax, ebp
  0000d	89 45 fc	 mov	 DWORD PTR __$ArrayPad$[ebp], eax
  00010	8b 45 08	 mov	 eax, DWORD PTR _k$[ebp]

; 119  : 		_ENCSTR(k, _k);

  00013	8a 10		 mov	 dl, BYTE PTR [eax]
  00015	56		 push	 esi
  00016	8b f1		 mov	 esi, ecx
  00018	84 d2		 test	 dl, dl
  0001a	0f 84 a7 01 00
	00		 je	 $LN96@LoadInt_e@2
  00020	80 f2 ed	 xor	 dl, -19			; ffffffedH
  00023	88 55 e4	 mov	 BYTE PTR __k$[ebp], dl
  00026	8a 50 01	 mov	 dl, BYTE PTR [eax+1]
  00029	84 d2		 test	 dl, dl
  0002b	0f 84 90 01 00
	00		 je	 $LN95@LoadInt_e@2
  00031	b1 ec		 mov	 cl, -20			; ffffffecH
  00033	32 d1		 xor	 dl, cl
  00035	88 55 e5	 mov	 BYTE PTR __k$[ebp+1], dl
  00038	8a 50 02	 mov	 dl, BYTE PTR [eax+2]
  0003b	84 d2		 test	 dl, dl
  0003d	0f 84 78 01 00
	00		 je	 $LN94@LoadInt_e@2
  00043	80 f2 eb	 xor	 dl, -21			; ffffffebH
  00046	88 55 e6	 mov	 BYTE PTR __k$[ebp+2], dl
  00049	8a 50 03	 mov	 dl, BYTE PTR [eax+3]
  0004c	84 d2		 test	 dl, dl
  0004e	0f 84 61 01 00
	00		 je	 $LN93@LoadInt_e@2
  00054	80 f2 ea	 xor	 dl, -22			; ffffffeaH
  00057	88 55 e7	 mov	 BYTE PTR __k$[ebp+3], dl
  0005a	8a 50 04	 mov	 dl, BYTE PTR [eax+4]
  0005d	84 d2		 test	 dl, dl
  0005f	0f 84 4a 01 00
	00		 je	 $LN92@LoadInt_e@2
  00065	80 f2 ed	 xor	 dl, -19			; ffffffedH
  00068	88 55 e8	 mov	 BYTE PTR __k$[ebp+4], dl
  0006b	8a 50 05	 mov	 dl, BYTE PTR [eax+5]
  0006e	84 d2		 test	 dl, dl
  00070	0f 84 34 01 00
	00		 je	 $LN91@LoadInt_e@2
  00076	32 d1		 xor	 dl, cl
  00078	88 55 e9	 mov	 BYTE PTR __k$[ebp+5], dl
  0007b	8a 50 06	 mov	 dl, BYTE PTR [eax+6]
  0007e	84 d2		 test	 dl, dl
  00080	0f 84 1e 01 00
	00		 je	 $LN90@LoadInt_e@2
  00086	80 f2 eb	 xor	 dl, -21			; ffffffebH
  00089	88 55 ea	 mov	 BYTE PTR __k$[ebp+6], dl
  0008c	8a 50 07	 mov	 dl, BYTE PTR [eax+7]
  0008f	84 d2		 test	 dl, dl
  00091	0f 84 07 01 00
	00		 je	 $LN89@LoadInt_e@2
  00097	80 f2 ea	 xor	 dl, -22			; ffffffeaH
  0009a	88 55 eb	 mov	 BYTE PTR __k$[ebp+7], dl
  0009d	8a 50 08	 mov	 dl, BYTE PTR [eax+8]
  000a0	84 d2		 test	 dl, dl
  000a2	0f 84 f0 00 00
	00		 je	 $LN88@LoadInt_e@2
  000a8	80 f2 ed	 xor	 dl, -19			; ffffffedH
  000ab	88 55 ec	 mov	 BYTE PTR __k$[ebp+8], dl
  000ae	8a 50 09	 mov	 dl, BYTE PTR [eax+9]
  000b1	84 d2		 test	 dl, dl
  000b3	0f 84 da 00 00
	00		 je	 $LN87@LoadInt_e@2
  000b9	32 d1		 xor	 dl, cl
  000bb	88 55 ed	 mov	 BYTE PTR __k$[ebp+9], dl
  000be	8a 50 0a	 mov	 dl, BYTE PTR [eax+10]
  000c1	84 d2		 test	 dl, dl
  000c3	0f 84 c4 00 00
	00		 je	 $LN86@LoadInt_e@2
  000c9	80 f2 eb	 xor	 dl, -21			; ffffffebH
  000cc	88 55 ee	 mov	 BYTE PTR __k$[ebp+10], dl
  000cf	8a 50 0b	 mov	 dl, BYTE PTR [eax+11]
  000d2	84 d2		 test	 dl, dl
  000d4	0f 84 ad 00 00
	00		 je	 $LN85@LoadInt_e@2
  000da	80 f2 ea	 xor	 dl, -22			; ffffffeaH
  000dd	88 55 ef	 mov	 BYTE PTR __k$[ebp+11], dl
  000e0	8a 50 0c	 mov	 dl, BYTE PTR [eax+12]
  000e3	84 d2		 test	 dl, dl
  000e5	0f 84 96 00 00
	00		 je	 $LN84@LoadInt_e@2
  000eb	80 f2 ed	 xor	 dl, -19			; ffffffedH
  000ee	88 55 f0	 mov	 BYTE PTR __k$[ebp+12], dl
  000f1	8a 50 0d	 mov	 dl, BYTE PTR [eax+13]
  000f4	84 d2		 test	 dl, dl
  000f6	0f 84 80 00 00
	00		 je	 $LN83@LoadInt_e@2
  000fc	32 d1		 xor	 dl, cl
  000fe	88 55 f1	 mov	 BYTE PTR __k$[ebp+13], dl
  00101	8a 50 0e	 mov	 dl, BYTE PTR [eax+14]
  00104	84 d2		 test	 dl, dl
  00106	74 6e		 je	 SHORT $LN82@LoadInt_e@2
  00108	80 f2 eb	 xor	 dl, -21			; ffffffebH
  0010b	88 55 f2	 mov	 BYTE PTR __k$[ebp+14], dl
  0010e	8a 50 0f	 mov	 dl, BYTE PTR [eax+15]
  00111	84 d2		 test	 dl, dl
  00113	74 5b		 je	 SHORT $LN81@LoadInt_e@2
  00115	80 f2 ea	 xor	 dl, -22			; ffffffeaH
  00118	80 78 10 00	 cmp	 BYTE PTR [eax+16], 0
  0011c	88 55 f3	 mov	 BYTE PTR __k$[ebp+15], dl
  0011f	0f 84 a6 00 00
	00		 je	 $LN1@LoadInt_e@2
  00125	8a 50 11	 mov	 dl, BYTE PTR [eax+17]
  00128	84 d2		 test	 dl, dl
  0012a	74 3f		 je	 SHORT $LN79@LoadInt_e@2
  0012c	32 d1		 xor	 dl, cl
  0012e	88 55 f5	 mov	 BYTE PTR __k$[ebp+17], dl
  00131	8a 50 12	 mov	 dl, BYTE PTR [eax+18]
  00134	84 d2		 test	 dl, dl
  00136	74 2d		 je	 SHORT $LN78@LoadInt_e@2
  00138	80 f2 eb	 xor	 dl, -21			; ffffffebH
  0013b	88 55 f6	 mov	 BYTE PTR __k$[ebp+18], dl
  0013e	8a 50 13	 mov	 dl, BYTE PTR [eax+19]
  00141	84 d2		 test	 dl, dl
  00143	74 1a		 je	 SHORT $LN77@LoadInt_e@2
  00145	8a 40 14	 mov	 al, BYTE PTR [eax+20]
  00148	80 f2 ea	 xor	 dl, -22			; ffffffeaH
  0014b	88 55 f7	 mov	 BYTE PTR __k$[ebp+19], dl
  0014e	84 c0		 test	 al, al
  00150	74 07		 je	 SHORT $LN76@LoadInt_e@2
  00152	34 ed		 xor	 al, -19			; ffffffedH
  00154	88 45 f8	 mov	 BYTE PTR __k$[ebp+20], al
  00157	eb 72		 jmp	 SHORT $LN1@LoadInt_e@2
$LN76@LoadInt_e@2:
  00159	c6 45 f8 ed	 mov	 BYTE PTR __k$[ebp+20], -19 ; ffffffedH
  0015d	eb 6c		 jmp	 SHORT $LN1@LoadInt_e@2
$LN77@LoadInt_e@2:
  0015f	c6 45 f7 ea	 mov	 BYTE PTR __k$[ebp+19], -22 ; ffffffeaH
  00163	eb 66		 jmp	 SHORT $LN1@LoadInt_e@2
$LN78@LoadInt_e@2:
  00165	c6 45 f6 eb	 mov	 BYTE PTR __k$[ebp+18], -21 ; ffffffebH
  00169	eb 60		 jmp	 SHORT $LN1@LoadInt_e@2
$LN79@LoadInt_e@2:
  0016b	88 4d f5	 mov	 BYTE PTR __k$[ebp+17], cl
  0016e	eb 5b		 jmp	 SHORT $LN1@LoadInt_e@2
$LN81@LoadInt_e@2:
  00170	c6 45 f3 ea	 mov	 BYTE PTR __k$[ebp+15], -22 ; ffffffeaH
  00174	eb 55		 jmp	 SHORT $LN1@LoadInt_e@2
$LN82@LoadInt_e@2:
  00176	c6 45 f2 eb	 mov	 BYTE PTR __k$[ebp+14], -21 ; ffffffebH
  0017a	eb 4f		 jmp	 SHORT $LN1@LoadInt_e@2
$LN83@LoadInt_e@2:
  0017c	88 4d f1	 mov	 BYTE PTR __k$[ebp+13], cl
  0017f	eb 4a		 jmp	 SHORT $LN1@LoadInt_e@2
$LN84@LoadInt_e@2:
  00181	c6 45 f0 ed	 mov	 BYTE PTR __k$[ebp+12], -19 ; ffffffedH
  00185	eb 44		 jmp	 SHORT $LN1@LoadInt_e@2
$LN85@LoadInt_e@2:
  00187	c6 45 ef ea	 mov	 BYTE PTR __k$[ebp+11], -22 ; ffffffeaH
  0018b	eb 3e		 jmp	 SHORT $LN1@LoadInt_e@2
$LN86@LoadInt_e@2:
  0018d	c6 45 ee eb	 mov	 BYTE PTR __k$[ebp+10], -21 ; ffffffebH
  00191	eb 38		 jmp	 SHORT $LN1@LoadInt_e@2
$LN87@LoadInt_e@2:
  00193	88 4d ed	 mov	 BYTE PTR __k$[ebp+9], cl
  00196	eb 33		 jmp	 SHORT $LN1@LoadInt_e@2
$LN88@LoadInt_e@2:
  00198	c6 45 ec ed	 mov	 BYTE PTR __k$[ebp+8], -19 ; ffffffedH
  0019c	eb 2d		 jmp	 SHORT $LN1@LoadInt_e@2
$LN89@LoadInt_e@2:
  0019e	c6 45 eb ea	 mov	 BYTE PTR __k$[ebp+7], -22 ; ffffffeaH
  001a2	eb 27		 jmp	 SHORT $LN1@LoadInt_e@2
$LN90@LoadInt_e@2:
  001a4	c6 45 ea eb	 mov	 BYTE PTR __k$[ebp+6], -21 ; ffffffebH
  001a8	eb 21		 jmp	 SHORT $LN1@LoadInt_e@2
$LN91@LoadInt_e@2:
  001aa	88 4d e9	 mov	 BYTE PTR __k$[ebp+5], cl
  001ad	eb 1c		 jmp	 SHORT $LN1@LoadInt_e@2
$LN92@LoadInt_e@2:
  001af	c6 45 e8 ed	 mov	 BYTE PTR __k$[ebp+4], -19 ; ffffffedH
  001b3	eb 16		 jmp	 SHORT $LN1@LoadInt_e@2
$LN93@LoadInt_e@2:
  001b5	c6 45 e7 ea	 mov	 BYTE PTR __k$[ebp+3], -22 ; ffffffeaH
  001b9	eb 10		 jmp	 SHORT $LN1@LoadInt_e@2
$LN94@LoadInt_e@2:
  001bb	c6 45 e6 eb	 mov	 BYTE PTR __k$[ebp+2], -21 ; ffffffebH
  001bf	eb 0a		 jmp	 SHORT $LN1@LoadInt_e@2
$LN95@LoadInt_e@2:
  001c1	c6 45 e5 ec	 mov	 BYTE PTR __k$[ebp+1], -20 ; ffffffecH
  001c5	eb 04		 jmp	 SHORT $LN1@LoadInt_e@2
$LN96@LoadInt_e@2:
  001c7	c6 45 e4 ed	 mov	 BYTE PTR __k$[ebp], -19	; ffffffedH
$LN1@LoadInt_e@2:
  001cb	6a 04		 push	 4
  001cd	8d 45 e4	 lea	 eax, DWORD PTR __k$[ebp]
  001d0	c6 45 f4 00	 mov	 BYTE PTR __k$[ebp+16], 0
  001d4	5a		 pop	 edx
$LL104@LoadInt_e@2:
  001d5	81 30 ed ec eb
	ea		 xor	 DWORD PTR [eax], -353637139 ; eaebecedH
  001db	83 c0 04	 add	 eax, 4
  001de	4a		 dec	 edx
  001df	75 f4		 jne	 SHORT $LL104@LoadInt_e@2

; 120  : 		return LoadInt(_k, i);

  001e1	ff 75 0c	 push	 DWORD PTR _i$[ebp]
  001e4	8d 45 e4	 lea	 eax, DWORD PTR __k$[ebp]
  001e7	50		 push	 eax
  001e8	8b ce		 mov	 ecx, esi
  001ea	ff 15 00 00 00
	00		 call	 DWORD PTR __imp_?LoadInt@ioINILoader@@QAEHPBDH@Z

; 121  : 	}

  001f0	8b 4d fc	 mov	 ecx, DWORD PTR __$ArrayPad$[ebp]
  001f3	33 cd		 xor	 ecx, ebp
  001f5	5e		 pop	 esi
  001f6	e8 00 00 00 00	 call	 @__security_check_cookie@4
  001fb	c9		 leave
  001fc	c2 08 00	 ret	 8
??$LoadInt_e@$0BB@@ioINILoader@@QAEHAAY0BB@$$CBDH@Z ENDP ; ioINILoader::LoadInt_e<17>
_TEXT	ENDS
PUBLIC	__$ArrayPad$
PUBLIC	??$LoadFloat_e@$0BG@@ioINILoader@@QAEMAAY0BG@$$CBDM@Z ; ioINILoader::LoadFloat_e<22>
EXTRN	__imp_?LoadFloat@ioINILoader@@QAEMPBDM@Z:PROC
; Function compile flags: /Ogsp
;	COMDAT ??$LoadFloat_e@$0BG@@ioINILoader@@QAEMAAY0BG@$$CBDM@Z
_TEXT	SEGMENT
__k$ = -32						; size = 22
__$ArrayPad$ = -4					; size = 4
_k$ = 8							; size = 4
_f$ = 12						; size = 4
??$LoadFloat_e@$0BG@@ioINILoader@@QAEMAAY0BG@$$CBDM@Z PROC ; ioINILoader::LoadFloat_e<22>, COMDAT
; _this$ = ecx

; 135  : 	{

  00000	55		 push	 ebp
  00001	8b ec		 mov	 ebp, esp
  00003	83 ec 20	 sub	 esp, 32			; 00000020H
  00006	a1 00 00 00 00	 mov	 eax, DWORD PTR ___security_cookie
  0000b	33 c5		 xor	 eax, ebp
  0000d	89 45 fc	 mov	 DWORD PTR __$ArrayPad$[ebp], eax
  00010	8b 45 08	 mov	 eax, DWORD PTR _k$[ebp]

; 136  : 		_ENCSTR(k, _k);

  00013	8a 10		 mov	 dl, BYTE PTR [eax]
  00015	53		 push	 ebx
  00016	56		 push	 esi
  00017	8b f1		 mov	 esi, ecx
  00019	84 d2		 test	 dl, dl
  0001b	0f 84 15 02 00
	00		 je	 $LN96@LoadFloat_
  00021	80 f2 ed	 xor	 dl, -19			; ffffffedH
  00024	88 55 e0	 mov	 BYTE PTR __k$[ebp], dl
  00027	8a 50 01	 mov	 dl, BYTE PTR [eax+1]
  0002a	84 d2		 test	 dl, dl
  0002c	0f 84 fe 01 00
	00		 je	 $LN95@LoadFloat_
  00032	80 f2 ec	 xor	 dl, -20			; ffffffecH
  00035	88 55 e1	 mov	 BYTE PTR __k$[ebp+1], dl
  00038	8a 50 02	 mov	 dl, BYTE PTR [eax+2]
  0003b	84 d2		 test	 dl, dl
  0003d	0f 84 e7 01 00
	00		 je	 $LN94@LoadFloat_
  00043	b1 eb		 mov	 cl, -21			; ffffffebH
  00045	32 d1		 xor	 dl, cl
  00047	88 55 e2	 mov	 BYTE PTR __k$[ebp+2], dl
  0004a	8a 50 03	 mov	 dl, BYTE PTR [eax+3]
  0004d	84 d2		 test	 dl, dl
  0004f	0f 84 cf 01 00
	00		 je	 $LN93@LoadFloat_
  00055	b3 ea		 mov	 bl, -22			; ffffffeaH
  00057	32 d3		 xor	 dl, bl
  00059	88 55 e3	 mov	 BYTE PTR __k$[ebp+3], dl
  0005c	8a 50 04	 mov	 dl, BYTE PTR [eax+4]
  0005f	84 d2		 test	 dl, dl
  00061	0f 84 b7 01 00
	00		 je	 $LN92@LoadFloat_
  00067	80 f2 ed	 xor	 dl, -19			; ffffffedH
  0006a	88 55 e4	 mov	 BYTE PTR __k$[ebp+4], dl
  0006d	8a 50 05	 mov	 dl, BYTE PTR [eax+5]
  00070	84 d2		 test	 dl, dl
  00072	0f 84 a0 01 00
	00		 je	 $LN91@LoadFloat_
  00078	80 f2 ec	 xor	 dl, -20			; ffffffecH
  0007b	88 55 e5	 mov	 BYTE PTR __k$[ebp+5], dl
  0007e	8a 50 06	 mov	 dl, BYTE PTR [eax+6]
  00081	84 d2		 test	 dl, dl
  00083	0f 84 8a 01 00
	00		 je	 $LN90@LoadFloat_
  00089	32 d1		 xor	 dl, cl
  0008b	88 55 e6	 mov	 BYTE PTR __k$[ebp+6], dl
  0008e	8a 50 07	 mov	 dl, BYTE PTR [eax+7]
  00091	84 d2		 test	 dl, dl
  00093	0f 84 75 01 00
	00		 je	 $LN89@LoadFloat_
  00099	32 d3		 xor	 dl, bl
  0009b	88 55 e7	 mov	 BYTE PTR __k$[ebp+7], dl
  0009e	8a 50 08	 mov	 dl, BYTE PTR [eax+8]
  000a1	84 d2		 test	 dl, dl
  000a3	0f 84 5f 01 00
	00		 je	 $LN88@LoadFloat_
  000a9	80 f2 ed	 xor	 dl, -19			; ffffffedH
  000ac	88 55 e8	 mov	 BYTE PTR __k$[ebp+8], dl
  000af	8a 50 09	 mov	 dl, BYTE PTR [eax+9]
  000b2	84 d2		 test	 dl, dl
  000b4	0f 84 48 01 00
	00		 je	 $LN87@LoadFloat_
  000ba	80 f2 ec	 xor	 dl, -20			; ffffffecH
  000bd	88 55 e9	 mov	 BYTE PTR __k$[ebp+9], dl
  000c0	8a 50 0a	 mov	 dl, BYTE PTR [eax+10]
  000c3	84 d2		 test	 dl, dl
  000c5	0f 84 32 01 00
	00		 je	 $LN86@LoadFloat_
  000cb	32 d1		 xor	 dl, cl
  000cd	88 55 ea	 mov	 BYTE PTR __k$[ebp+10], dl
  000d0	8a 50 0b	 mov	 dl, BYTE PTR [eax+11]
  000d3	84 d2		 test	 dl, dl
  000d5	0f 84 1d 01 00
	00		 je	 $LN85@LoadFloat_
  000db	32 d3		 xor	 dl, bl
  000dd	88 55 eb	 mov	 BYTE PTR __k$[ebp+11], dl
  000e0	8a 50 0c	 mov	 dl, BYTE PTR [eax+12]
  000e3	84 d2		 test	 dl, dl
  000e5	0f 84 07 01 00
	00		 je	 $LN84@LoadFloat_
  000eb	80 f2 ed	 xor	 dl, -19			; ffffffedH
  000ee	88 55 ec	 mov	 BYTE PTR __k$[ebp+12], dl
  000f1	8a 50 0d	 mov	 dl, BYTE PTR [eax+13]
  000f4	84 d2		 test	 dl, dl
  000f6	0f 84 f0 00 00
	00		 je	 $LN83@LoadFloat_
  000fc	80 f2 ec	 xor	 dl, -20			; ffffffecH
  000ff	88 55 ed	 mov	 BYTE PTR __k$[ebp+13], dl
  00102	8a 50 0e	 mov	 dl, BYTE PTR [eax+14]
  00105	84 d2		 test	 dl, dl
  00107	0f 84 da 00 00
	00		 je	 $LN82@LoadFloat_
  0010d	32 d1		 xor	 dl, cl
  0010f	88 55 ee	 mov	 BYTE PTR __k$[ebp+14], dl
  00112	8a 50 0f	 mov	 dl, BYTE PTR [eax+15]
  00115	84 d2		 test	 dl, dl
  00117	0f 84 c5 00 00
	00		 je	 $LN81@LoadFloat_
  0011d	32 d3		 xor	 dl, bl
  0011f	88 55 ef	 mov	 BYTE PTR __k$[ebp+15], dl
  00122	8a 50 10	 mov	 dl, BYTE PTR [eax+16]
  00125	84 d2		 test	 dl, dl
  00127	0f 84 af 00 00
	00		 je	 $LN80@LoadFloat_
  0012d	80 f2 ed	 xor	 dl, -19			; ffffffedH
  00130	88 55 f0	 mov	 BYTE PTR __k$[ebp+16], dl
  00133	8a 50 11	 mov	 dl, BYTE PTR [eax+17]
  00136	84 d2		 test	 dl, dl
  00138	0f 84 98 00 00
	00		 je	 $LN79@LoadFloat_
  0013e	80 f2 ec	 xor	 dl, -20			; ffffffecH
  00141	88 55 f1	 mov	 BYTE PTR __k$[ebp+17], dl
  00144	8a 50 12	 mov	 dl, BYTE PTR [eax+18]
  00147	84 d2		 test	 dl, dl
  00149	0f 84 82 00 00
	00		 je	 $LN78@LoadFloat_
  0014f	32 d1		 xor	 dl, cl
  00151	88 55 f2	 mov	 BYTE PTR __k$[ebp+18], dl
  00154	8a 50 13	 mov	 dl, BYTE PTR [eax+19]
  00157	84 d2		 test	 dl, dl
  00159	74 71		 je	 SHORT $LN77@LoadFloat_
  0015b	32 d3		 xor	 dl, bl
  0015d	88 55 f3	 mov	 BYTE PTR __k$[ebp+19], dl
  00160	8a 50 14	 mov	 dl, BYTE PTR [eax+20]
  00163	84 d2		 test	 dl, dl
  00165	74 5f		 je	 SHORT $LN76@LoadFloat_
  00167	80 f2 ed	 xor	 dl, -19			; ffffffedH
  0016a	80 78 15 00	 cmp	 BYTE PTR [eax+21], 0
  0016e	88 55 f4	 mov	 BYTE PTR __k$[ebp+20], dl
  00171	0f 84 c3 00 00
	00		 je	 $LN1@LoadFloat_
  00177	8a 50 16	 mov	 dl, BYTE PTR [eax+22]
  0017a	84 d2		 test	 dl, dl
  0017c	74 43		 je	 SHORT $LN74@LoadFloat_
  0017e	32 d1		 xor	 dl, cl
  00180	88 55 f6	 mov	 BYTE PTR __k$[ebp+22], dl
  00183	8a 50 17	 mov	 dl, BYTE PTR [eax+23]
  00186	84 d2		 test	 dl, dl
  00188	74 32		 je	 SHORT $LN73@LoadFloat_
  0018a	32 d3		 xor	 dl, bl
  0018c	88 55 f7	 mov	 BYTE PTR __k$[ebp+23], dl
  0018f	8a 50 18	 mov	 dl, BYTE PTR [eax+24]
  00192	84 d2		 test	 dl, dl
  00194	74 20		 je	 SHORT $LN72@LoadFloat_
  00196	8a 40 19	 mov	 al, BYTE PTR [eax+25]
  00199	80 f2 ed	 xor	 dl, -19			; ffffffedH
  0019c	88 55 f8	 mov	 BYTE PTR __k$[ebp+24], dl
  0019f	84 c0		 test	 al, al
  001a1	74 0a		 je	 SHORT $LN71@LoadFloat_
  001a3	34 ec		 xor	 al, -20			; ffffffecH
  001a5	88 45 f9	 mov	 BYTE PTR __k$[ebp+25], al
  001a8	e9 8d 00 00 00	 jmp	 $LN1@LoadFloat_
$LN71@LoadFloat_:
  001ad	c6 45 f9 ec	 mov	 BYTE PTR __k$[ebp+25], -20 ; ffffffecH
  001b1	e9 84 00 00 00	 jmp	 $LN1@LoadFloat_
$LN72@LoadFloat_:
  001b6	c6 45 f8 ed	 mov	 BYTE PTR __k$[ebp+24], -19 ; ffffffedH
  001ba	eb 7e		 jmp	 SHORT $LN1@LoadFloat_
$LN73@LoadFloat_:
  001bc	88 5d f7	 mov	 BYTE PTR __k$[ebp+23], bl
  001bf	eb 79		 jmp	 SHORT $LN1@LoadFloat_
$LN74@LoadFloat_:
  001c1	88 4d f6	 mov	 BYTE PTR __k$[ebp+22], cl
  001c4	eb 74		 jmp	 SHORT $LN1@LoadFloat_
$LN76@LoadFloat_:
  001c6	c6 45 f4 ed	 mov	 BYTE PTR __k$[ebp+20], -19 ; ffffffedH
  001ca	eb 6e		 jmp	 SHORT $LN1@LoadFloat_
$LN77@LoadFloat_:
  001cc	88 5d f3	 mov	 BYTE PTR __k$[ebp+19], bl
  001cf	eb 69		 jmp	 SHORT $LN1@LoadFloat_
$LN78@LoadFloat_:
  001d1	88 4d f2	 mov	 BYTE PTR __k$[ebp+18], cl
  001d4	eb 64		 jmp	 SHORT $LN1@LoadFloat_
$LN79@LoadFloat_:
  001d6	c6 45 f1 ec	 mov	 BYTE PTR __k$[ebp+17], -20 ; ffffffecH
  001da	eb 5e		 jmp	 SHORT $LN1@LoadFloat_
$LN80@LoadFloat_:
  001dc	c6 45 f0 ed	 mov	 BYTE PTR __k$[ebp+16], -19 ; ffffffedH
  001e0	eb 58		 jmp	 SHORT $LN1@LoadFloat_
$LN81@LoadFloat_:
  001e2	88 5d ef	 mov	 BYTE PTR __k$[ebp+15], bl
  001e5	eb 53		 jmp	 SHORT $LN1@LoadFloat_
$LN82@LoadFloat_:
  001e7	88 4d ee	 mov	 BYTE PTR __k$[ebp+14], cl
  001ea	eb 4e		 jmp	 SHORT $LN1@LoadFloat_
$LN83@LoadFloat_:
  001ec	c6 45 ed ec	 mov	 BYTE PTR __k$[ebp+13], -20 ; ffffffecH
  001f0	eb 48		 jmp	 SHORT $LN1@LoadFloat_
$LN84@LoadFloat_:
  001f2	c6 45 ec ed	 mov	 BYTE PTR __k$[ebp+12], -19 ; ffffffedH
  001f6	eb 42		 jmp	 SHORT $LN1@LoadFloat_
$LN85@LoadFloat_:
  001f8	88 5d eb	 mov	 BYTE PTR __k$[ebp+11], bl
  001fb	eb 3d		 jmp	 SHORT $LN1@LoadFloat_
$LN86@LoadFloat_:
  001fd	88 4d ea	 mov	 BYTE PTR __k$[ebp+10], cl
  00200	eb 38		 jmp	 SHORT $LN1@LoadFloat_
$LN87@LoadFloat_:
  00202	c6 45 e9 ec	 mov	 BYTE PTR __k$[ebp+9], -20 ; ffffffecH
  00206	eb 32		 jmp	 SHORT $LN1@LoadFloat_
$LN88@LoadFloat_:
  00208	c6 45 e8 ed	 mov	 BYTE PTR __k$[ebp+8], -19 ; ffffffedH
  0020c	eb 2c		 jmp	 SHORT $LN1@LoadFloat_
$LN89@LoadFloat_:
  0020e	88 5d e7	 mov	 BYTE PTR __k$[ebp+7], bl
  00211	eb 27		 jmp	 SHORT $LN1@LoadFloat_
$LN90@LoadFloat_:
  00213	88 4d e6	 mov	 BYTE PTR __k$[ebp+6], cl
  00216	eb 22		 jmp	 SHORT $LN1@LoadFloat_
$LN91@LoadFloat_:
  00218	c6 45 e5 ec	 mov	 BYTE PTR __k$[ebp+5], -20 ; ffffffecH
  0021c	eb 1c		 jmp	 SHORT $LN1@LoadFloat_
$LN92@LoadFloat_:
  0021e	c6 45 e4 ed	 mov	 BYTE PTR __k$[ebp+4], -19 ; ffffffedH
  00222	eb 16		 jmp	 SHORT $LN1@LoadFloat_
$LN93@LoadFloat_:
  00224	c6 45 e3 ea	 mov	 BYTE PTR __k$[ebp+3], -22 ; ffffffeaH
  00228	eb 10		 jmp	 SHORT $LN1@LoadFloat_
$LN94@LoadFloat_:
  0022a	c6 45 e2 eb	 mov	 BYTE PTR __k$[ebp+2], -21 ; ffffffebH
  0022e	eb 0a		 jmp	 SHORT $LN1@LoadFloat_
$LN95@LoadFloat_:
  00230	c6 45 e1 ec	 mov	 BYTE PTR __k$[ebp+1], -20 ; ffffffecH
  00234	eb 04		 jmp	 SHORT $LN1@LoadFloat_
$LN96@LoadFloat_:
  00236	c6 45 e0 ed	 mov	 BYTE PTR __k$[ebp], -19	; ffffffedH
$LN1@LoadFloat_:
  0023a	6a 05		 push	 5
  0023c	8d 45 e0	 lea	 eax, DWORD PTR __k$[ebp]
  0023f	c6 45 f5 00	 mov	 BYTE PTR __k$[ebp+21], 0
  00243	5a		 pop	 edx
$LL104@LoadFloat_:
  00244	81 30 ed ec eb
	ea		 xor	 DWORD PTR [eax], -353637139 ; eaebecedH
  0024a	83 c0 04	 add	 eax, 4
  0024d	4a		 dec	 edx
  0024e	75 f4		 jne	 SHORT $LL104@LoadFloat_

; 137  : 		return LoadFloat(_k, f);

  00250	f3 0f 10 45 0c	 movss	 xmm0, DWORD PTR _f$[ebp]
  00255	80 75 f4 ed	 xor	 BYTE PTR __k$[ebp+20], -19 ; ffffffedH
  00259	51		 push	 ecx
  0025a	8d 45 e0	 lea	 eax, DWORD PTR __k$[ebp]
  0025d	f3 0f 11 04 24	 movss	 DWORD PTR [esp], xmm0
  00262	50		 push	 eax
  00263	8b ce		 mov	 ecx, esi
  00265	ff 15 00 00 00
	00		 call	 DWORD PTR __imp_?LoadFloat@ioINILoader@@QAEMPBDM@Z

; 138  : 	}

  0026b	8b 4d fc	 mov	 ecx, DWORD PTR __$ArrayPad$[ebp]
  0026e	5e		 pop	 esi
  0026f	33 cd		 xor	 ecx, ebp
  00271	5b		 pop	 ebx
  00272	e8 00 00 00 00	 call	 @__security_check_cookie@4
  00277	c9		 leave
  00278	c2 08 00	 ret	 8
??$LoadFloat_e@$0BG@@ioINILoader@@QAEMAAY0BG@$$CBDM@Z ENDP ; ioINILoader::LoadFloat_e<22>
_TEXT	ENDS
PUBLIC	__$ArrayPad$
PUBLIC	??$LoadFloat_e@$0BK@@ioINILoader@@QAEMAAY0BK@$$CBDM@Z ; ioINILoader::LoadFloat_e<26>
; Function compile flags: /Ogsp
;	COMDAT ??$LoadFloat_e@$0BK@@ioINILoader@@QAEMAAY0BK@$$CBDM@Z
_TEXT	SEGMENT
__k$ = -36						; size = 26
__$ArrayPad$ = -4					; size = 4
_k$ = 8							; size = 4
_f$ = 12						; size = 4
??$LoadFloat_e@$0BK@@ioINILoader@@QAEMAAY0BK@$$CBDM@Z PROC ; ioINILoader::LoadFloat_e<26>, COMDAT
; _this$ = ecx

; 135  : 	{

  00000	55		 push	 ebp
  00001	8b ec		 mov	 ebp, esp
  00003	83 ec 24	 sub	 esp, 36			; 00000024H
  00006	a1 00 00 00 00	 mov	 eax, DWORD PTR ___security_cookie
  0000b	33 c5		 xor	 eax, ebp
  0000d	89 45 fc	 mov	 DWORD PTR __$ArrayPad$[ebp], eax
  00010	8b 45 08	 mov	 eax, DWORD PTR _k$[ebp]

; 136  : 		_ENCSTR(k, _k);

  00013	8a 10		 mov	 dl, BYTE PTR [eax]
  00015	53		 push	 ebx
  00016	56		 push	 esi
  00017	8b f1		 mov	 esi, ecx
  00019	84 d2		 test	 dl, dl
  0001b	0f 84 79 02 00
	00		 je	 $LN96@LoadFloat_@2
  00021	80 f2 ed	 xor	 dl, -19			; ffffffedH
  00024	88 55 dc	 mov	 BYTE PTR __k$[ebp], dl
  00027	8a 50 01	 mov	 dl, BYTE PTR [eax+1]
  0002a	84 d2		 test	 dl, dl
  0002c	0f 84 62 02 00
	00		 je	 $LN95@LoadFloat_@2
  00032	80 f2 ec	 xor	 dl, -20			; ffffffecH
  00035	88 55 dd	 mov	 BYTE PTR __k$[ebp+1], dl
  00038	8a 50 02	 mov	 dl, BYTE PTR [eax+2]
  0003b	84 d2		 test	 dl, dl
  0003d	0f 84 4b 02 00
	00		 je	 $LN94@LoadFloat_@2
  00043	b1 eb		 mov	 cl, -21			; ffffffebH
  00045	32 d1		 xor	 dl, cl
  00047	88 55 de	 mov	 BYTE PTR __k$[ebp+2], dl
  0004a	8a 50 03	 mov	 dl, BYTE PTR [eax+3]
  0004d	84 d2		 test	 dl, dl
  0004f	0f 84 33 02 00
	00		 je	 $LN93@LoadFloat_@2
  00055	b3 ea		 mov	 bl, -22			; ffffffeaH
  00057	32 d3		 xor	 dl, bl
  00059	88 55 df	 mov	 BYTE PTR __k$[ebp+3], dl
  0005c	8a 50 04	 mov	 dl, BYTE PTR [eax+4]
  0005f	84 d2		 test	 dl, dl
  00061	0f 84 1b 02 00
	00		 je	 $LN92@LoadFloat_@2
  00067	80 f2 ed	 xor	 dl, -19			; ffffffedH
  0006a	88 55 e0	 mov	 BYTE PTR __k$[ebp+4], dl
  0006d	8a 50 05	 mov	 dl, BYTE PTR [eax+5]
  00070	84 d2		 test	 dl, dl
  00072	0f 84 04 02 00
	00		 je	 $LN91@LoadFloat_@2
  00078	80 f2 ec	 xor	 dl, -20			; ffffffecH
  0007b	88 55 e1	 mov	 BYTE PTR __k$[ebp+5], dl
  0007e	8a 50 06	 mov	 dl, BYTE PTR [eax+6]
  00081	84 d2		 test	 dl, dl
  00083	0f 84 ee 01 00
	00		 je	 $LN90@LoadFloat_@2
  00089	32 d1		 xor	 dl, cl
  0008b	88 55 e2	 mov	 BYTE PTR __k$[ebp+6], dl
  0008e	8a 50 07	 mov	 dl, BYTE PTR [eax+7]
  00091	84 d2		 test	 dl, dl
  00093	0f 84 d9 01 00
	00		 je	 $LN89@LoadFloat_@2
  00099	32 d3		 xor	 dl, bl
  0009b	88 55 e3	 mov	 BYTE PTR __k$[ebp+7], dl
  0009e	8a 50 08	 mov	 dl, BYTE PTR [eax+8]
  000a1	84 d2		 test	 dl, dl
  000a3	0f 84 c3 01 00
	00		 je	 $LN88@LoadFloat_@2
  000a9	80 f2 ed	 xor	 dl, -19			; ffffffedH
  000ac	88 55 e4	 mov	 BYTE PTR __k$[ebp+8], dl
  000af	8a 50 09	 mov	 dl, BYTE PTR [eax+9]
  000b2	84 d2		 test	 dl, dl
  000b4	0f 84 ac 01 00
	00		 je	 $LN87@LoadFloat_@2
  000ba	80 f2 ec	 xor	 dl, -20			; ffffffecH
  000bd	88 55 e5	 mov	 BYTE PTR __k$[ebp+9], dl
  000c0	8a 50 0a	 mov	 dl, BYTE PTR [eax+10]
  000c3	84 d2		 test	 dl, dl
  000c5	0f 84 96 01 00
	00		 je	 $LN86@LoadFloat_@2
  000cb	32 d1		 xor	 dl, cl
  000cd	88 55 e6	 mov	 BYTE PTR __k$[ebp+10], dl
  000d0	8a 50 0b	 mov	 dl, BYTE PTR [eax+11]
  000d3	84 d2		 test	 dl, dl
  000d5	0f 84 81 01 00
	00		 je	 $LN85@LoadFloat_@2
  000db	32 d3		 xor	 dl, bl
  000dd	88 55 e7	 mov	 BYTE PTR __k$[ebp+11], dl
  000e0	8a 50 0c	 mov	 dl, BYTE PTR [eax+12]
  000e3	84 d2		 test	 dl, dl
  000e5	0f 84 6b 01 00
	00		 je	 $LN84@LoadFloat_@2
  000eb	80 f2 ed	 xor	 dl, -19			; ffffffedH
  000ee	88 55 e8	 mov	 BYTE PTR __k$[ebp+12], dl
  000f1	8a 50 0d	 mov	 dl, BYTE PTR [eax+13]
  000f4	84 d2		 test	 dl, dl
  000f6	0f 84 54 01 00
	00		 je	 $LN83@LoadFloat_@2
  000fc	80 f2 ec	 xor	 dl, -20			; ffffffecH
  000ff	88 55 e9	 mov	 BYTE PTR __k$[ebp+13], dl
  00102	8a 50 0e	 mov	 dl, BYTE PTR [eax+14]
  00105	84 d2		 test	 dl, dl
  00107	0f 84 3e 01 00
	00		 je	 $LN82@LoadFloat_@2
  0010d	32 d1		 xor	 dl, cl
  0010f	88 55 ea	 mov	 BYTE PTR __k$[ebp+14], dl
  00112	8a 50 0f	 mov	 dl, BYTE PTR [eax+15]
  00115	84 d2		 test	 dl, dl
  00117	0f 84 29 01 00
	00		 je	 $LN81@LoadFloat_@2
  0011d	32 d3		 xor	 dl, bl
  0011f	88 55 eb	 mov	 BYTE PTR __k$[ebp+15], dl
  00122	8a 50 10	 mov	 dl, BYTE PTR [eax+16]
  00125	84 d2		 test	 dl, dl
  00127	0f 84 13 01 00
	00		 je	 $LN80@LoadFloat_@2
  0012d	80 f2 ed	 xor	 dl, -19			; ffffffedH
  00130	88 55 ec	 mov	 BYTE PTR __k$[ebp+16], dl
  00133	8a 50 11	 mov	 dl, BYTE PTR [eax+17]
  00136	84 d2		 test	 dl, dl
  00138	0f 84 fc 00 00
	00		 je	 $LN79@LoadFloat_@2
  0013e	80 f2 ec	 xor	 dl, -20			; ffffffecH
  00141	88 55 ed	 mov	 BYTE PTR __k$[ebp+17], dl
  00144	8a 50 12	 mov	 dl, BYTE PTR [eax+18]
  00147	84 d2		 test	 dl, dl
  00149	0f 84 e6 00 00
	00		 je	 $LN78@LoadFloat_@2
  0014f	32 d1		 xor	 dl, cl
  00151	88 55 ee	 mov	 BYTE PTR __k$[ebp+18], dl
  00154	8a 50 13	 mov	 dl, BYTE PTR [eax+19]
  00157	84 d2		 test	 dl, dl
  00159	0f 84 d1 00 00
	00		 je	 $LN77@LoadFloat_@2
  0015f	32 d3		 xor	 dl, bl
  00161	88 55 ef	 mov	 BYTE PTR __k$[ebp+19], dl
  00164	8a 50 14	 mov	 dl, BYTE PTR [eax+20]
  00167	84 d2		 test	 dl, dl
  00169	0f 84 bb 00 00
	00		 je	 $LN76@LoadFloat_@2
  0016f	80 f2 ed	 xor	 dl, -19			; ffffffedH
  00172	88 55 f0	 mov	 BYTE PTR __k$[ebp+20], dl
  00175	8a 50 15	 mov	 dl, BYTE PTR [eax+21]
  00178	84 d2		 test	 dl, dl
  0017a	0f 84 a4 00 00
	00		 je	 $LN75@LoadFloat_@2
  00180	80 f2 ec	 xor	 dl, -20			; ffffffecH
  00183	88 55 f1	 mov	 BYTE PTR __k$[ebp+21], dl
  00186	8a 50 16	 mov	 dl, BYTE PTR [eax+22]
  00189	84 d2		 test	 dl, dl
  0018b	0f 84 8e 00 00
	00		 je	 $LN74@LoadFloat_@2
  00191	32 d1		 xor	 dl, cl
  00193	88 55 f2	 mov	 BYTE PTR __k$[ebp+22], dl
  00196	8a 50 17	 mov	 dl, BYTE PTR [eax+23]
  00199	84 d2		 test	 dl, dl
  0019b	74 7d		 je	 SHORT $LN73@LoadFloat_@2
  0019d	32 d3		 xor	 dl, bl
  0019f	88 55 f3	 mov	 BYTE PTR __k$[ebp+23], dl
  001a2	8a 50 18	 mov	 dl, BYTE PTR [eax+24]
  001a5	84 d2		 test	 dl, dl
  001a7	74 68		 je	 SHORT $LN72@LoadFloat_@2
  001a9	80 f2 ed	 xor	 dl, -19			; ffffffedH
  001ac	80 78 19 00	 cmp	 BYTE PTR [eax+25], 0
  001b0	88 55 f4	 mov	 BYTE PTR __k$[ebp+24], dl
  001b3	0f 84 e5 00 00
	00		 je	 $LN1@LoadFloat_@2
  001b9	8a 50 1a	 mov	 dl, BYTE PTR [eax+26]
  001bc	84 d2		 test	 dl, dl
  001be	74 49		 je	 SHORT $LN70@LoadFloat_@2
  001c0	32 d1		 xor	 dl, cl
  001c2	88 55 f6	 mov	 BYTE PTR __k$[ebp+26], dl
  001c5	8a 50 1b	 mov	 dl, BYTE PTR [eax+27]
  001c8	84 d2		 test	 dl, dl
  001ca	74 35		 je	 SHORT $LN69@LoadFloat_@2
  001cc	32 d3		 xor	 dl, bl
  001ce	88 55 f7	 mov	 BYTE PTR __k$[ebp+27], dl
  001d1	8a 50 1c	 mov	 dl, BYTE PTR [eax+28]
  001d4	84 d2		 test	 dl, dl
  001d6	74 20		 je	 SHORT $LN68@LoadFloat_@2
  001d8	8a 40 1d	 mov	 al, BYTE PTR [eax+29]
  001db	80 f2 ed	 xor	 dl, -19			; ffffffedH
  001de	88 55 f8	 mov	 BYTE PTR __k$[ebp+28], dl
  001e1	84 c0		 test	 al, al
  001e3	74 0a		 je	 SHORT $LN67@LoadFloat_@2
  001e5	34 ec		 xor	 al, -20			; ffffffecH
  001e7	88 45 f9	 mov	 BYTE PTR __k$[ebp+29], al
  001ea	e9 af 00 00 00	 jmp	 $LN1@LoadFloat_@2
$LN67@LoadFloat_@2:
  001ef	c6 45 f9 ec	 mov	 BYTE PTR __k$[ebp+29], -20 ; ffffffecH
  001f3	e9 a6 00 00 00	 jmp	 $LN1@LoadFloat_@2
$LN68@LoadFloat_@2:
  001f8	c6 45 f8 ed	 mov	 BYTE PTR __k$[ebp+28], -19 ; ffffffedH
  001fc	e9 9d 00 00 00	 jmp	 $LN1@LoadFloat_@2
$LN69@LoadFloat_@2:
  00201	88 5d f7	 mov	 BYTE PTR __k$[ebp+27], bl
  00204	e9 95 00 00 00	 jmp	 $LN1@LoadFloat_@2
$LN70@LoadFloat_@2:
  00209	88 4d f6	 mov	 BYTE PTR __k$[ebp+26], cl
  0020c	e9 8d 00 00 00	 jmp	 $LN1@LoadFloat_@2
$LN72@LoadFloat_@2:
  00211	c6 45 f4 ed	 mov	 BYTE PTR __k$[ebp+24], -19 ; ffffffedH
  00215	e9 84 00 00 00	 jmp	 $LN1@LoadFloat_@2
$LN73@LoadFloat_@2:
  0021a	88 5d f3	 mov	 BYTE PTR __k$[ebp+23], bl
  0021d	eb 7f		 jmp	 SHORT $LN1@LoadFloat_@2
$LN74@LoadFloat_@2:
  0021f	88 4d f2	 mov	 BYTE PTR __k$[ebp+22], cl
  00222	eb 7a		 jmp	 SHORT $LN1@LoadFloat_@2
$LN75@LoadFloat_@2:
  00224	c6 45 f1 ec	 mov	 BYTE PTR __k$[ebp+21], -20 ; ffffffecH
  00228	eb 74		 jmp	 SHORT $LN1@LoadFloat_@2
$LN76@LoadFloat_@2:
  0022a	c6 45 f0 ed	 mov	 BYTE PTR __k$[ebp+20], -19 ; ffffffedH
  0022e	eb 6e		 jmp	 SHORT $LN1@LoadFloat_@2
$LN77@LoadFloat_@2:
  00230	88 5d ef	 mov	 BYTE PTR __k$[ebp+19], bl
  00233	eb 69		 jmp	 SHORT $LN1@LoadFloat_@2
$LN78@LoadFloat_@2:
  00235	88 4d ee	 mov	 BYTE PTR __k$[ebp+18], cl
  00238	eb 64		 jmp	 SHORT $LN1@LoadFloat_@2
$LN79@LoadFloat_@2:
  0023a	c6 45 ed ec	 mov	 BYTE PTR __k$[ebp+17], -20 ; ffffffecH
  0023e	eb 5e		 jmp	 SHORT $LN1@LoadFloat_@2
$LN80@LoadFloat_@2:
  00240	c6 45 ec ed	 mov	 BYTE PTR __k$[ebp+16], -19 ; ffffffedH
  00244	eb 58		 jmp	 SHORT $LN1@LoadFloat_@2
$LN81@LoadFloat_@2:
  00246	88 5d eb	 mov	 BYTE PTR __k$[ebp+15], bl
  00249	eb 53		 jmp	 SHORT $LN1@LoadFloat_@2
$LN82@LoadFloat_@2:
  0024b	88 4d ea	 mov	 BYTE PTR __k$[ebp+14], cl
  0024e	eb 4e		 jmp	 SHORT $LN1@LoadFloat_@2
$LN83@LoadFloat_@2:
  00250	c6 45 e9 ec	 mov	 BYTE PTR __k$[ebp+13], -20 ; ffffffecH
  00254	eb 48		 jmp	 SHORT $LN1@LoadFloat_@2
$LN84@LoadFloat_@2:
  00256	c6 45 e8 ed	 mov	 BYTE PTR __k$[ebp+12], -19 ; ffffffedH
  0025a	eb 42		 jmp	 SHORT $LN1@LoadFloat_@2
$LN85@LoadFloat_@2:
  0025c	88 5d e7	 mov	 BYTE PTR __k$[ebp+11], bl
  0025f	eb 3d		 jmp	 SHORT $LN1@LoadFloat_@2
$LN86@LoadFloat_@2:
  00261	88 4d e6	 mov	 BYTE PTR __k$[ebp+10], cl
  00264	eb 38		 jmp	 SHORT $LN1@LoadFloat_@2
$LN87@LoadFloat_@2:
  00266	c6 45 e5 ec	 mov	 BYTE PTR __k$[ebp+9], -20 ; ffffffecH
  0026a	eb 32		 jmp	 SHORT $LN1@LoadFloat_@2
$LN88@LoadFloat_@2:
  0026c	c6 45 e4 ed	 mov	 BYTE PTR __k$[ebp+8], -19 ; ffffffedH
  00270	eb 2c		 jmp	 SHORT $LN1@LoadFloat_@2
$LN89@LoadFloat_@2:
  00272	88 5d e3	 mov	 BYTE PTR __k$[ebp+7], bl
  00275	eb 27		 jmp	 SHORT $LN1@LoadFloat_@2
$LN90@LoadFloat_@2:
  00277	88 4d e2	 mov	 BYTE PTR __k$[ebp+6], cl
  0027a	eb 22		 jmp	 SHORT $LN1@LoadFloat_@2
$LN91@LoadFloat_@2:
  0027c	c6 45 e1 ec	 mov	 BYTE PTR __k$[ebp+5], -20 ; ffffffecH
  00280	eb 1c		 jmp	 SHORT $LN1@LoadFloat_@2
$LN92@LoadFloat_@2:
  00282	c6 45 e0 ed	 mov	 BYTE PTR __k$[ebp+4], -19 ; ffffffedH
  00286	eb 16		 jmp	 SHORT $LN1@LoadFloat_@2
$LN93@LoadFloat_@2:
  00288	c6 45 df ea	 mov	 BYTE PTR __k$[ebp+3], -22 ; ffffffeaH
  0028c	eb 10		 jmp	 SHORT $LN1@LoadFloat_@2
$LN94@LoadFloat_@2:
  0028e	c6 45 de eb	 mov	 BYTE PTR __k$[ebp+2], -21 ; ffffffebH
  00292	eb 0a		 jmp	 SHORT $LN1@LoadFloat_@2
$LN95@LoadFloat_@2:
  00294	c6 45 dd ec	 mov	 BYTE PTR __k$[ebp+1], -20 ; ffffffecH
  00298	eb 04		 jmp	 SHORT $LN1@LoadFloat_@2
$LN96@LoadFloat_@2:
  0029a	c6 45 dc ed	 mov	 BYTE PTR __k$[ebp], -19	; ffffffedH
$LN1@LoadFloat_@2:
  0029e	6a 06		 push	 6
  002a0	8d 45 dc	 lea	 eax, DWORD PTR __k$[ebp]
  002a3	c6 45 f5 00	 mov	 BYTE PTR __k$[ebp+25], 0
  002a7	5a		 pop	 edx
$LL104@LoadFloat_@2:
  002a8	81 30 ed ec eb
	ea		 xor	 DWORD PTR [eax], -353637139 ; eaebecedH
  002ae	83 c0 04	 add	 eax, 4
  002b1	4a		 dec	 edx
  002b2	75 f4		 jne	 SHORT $LL104@LoadFloat_@2

; 137  : 		return LoadFloat(_k, f);

  002b4	f3 0f 10 45 0c	 movss	 xmm0, DWORD PTR _f$[ebp]
  002b9	80 75 f4 ed	 xor	 BYTE PTR __k$[ebp+24], -19 ; ffffffedH
  002bd	51		 push	 ecx
  002be	8d 45 dc	 lea	 eax, DWORD PTR __k$[ebp]
  002c1	f3 0f 11 04 24	 movss	 DWORD PTR [esp], xmm0
  002c6	50		 push	 eax
  002c7	8b ce		 mov	 ecx, esi
  002c9	ff 15 00 00 00
	00		 call	 DWORD PTR __imp_?LoadFloat@ioINILoader@@QAEMPBDM@Z

; 138  : 	}

  002cf	8b 4d fc	 mov	 ecx, DWORD PTR __$ArrayPad$[ebp]
  002d2	5e		 pop	 esi
  002d3	33 cd		 xor	 ecx, ebp
  002d5	5b		 pop	 ebx
  002d6	e8 00 00 00 00	 call	 @__security_check_cookie@4
  002db	c9		 leave
  002dc	c2 08 00	 ret	 8
??$LoadFloat_e@$0BK@@ioINILoader@@QAEMAAY0BK@$$CBDM@Z ENDP ; ioINILoader::LoadFloat_e<26>
_TEXT	ENDS
PUBLIC	_this$GSCopy$
PUBLIC	__$ArrayPad$
PUBLIC	??$LoadString_e@$0P@@ioINILoader@@QAEXAAY0P@$$CBDAAY00$$CBDPADH@Z ; ioINILoader::LoadString_e<15>
EXTRN	__imp_?LoadStringA@ioINILoader@@QAEXPBD0PADH@Z:PROC
; Function compile flags: /Ogsp
;	COMDAT ??$LoadString_e@$0P@@ioINILoader@@QAEXAAY0P@$$CBDAAY00$$CBDPADH@Z
_TEXT	SEGMENT
_this$GSCopy$ = -28					; size = 4
__k$ = -24						; size = 15
__$ArrayPad$ = -4					; size = 4
_k$ = 8							; size = 4
_d$ = 12						; size = 4
_b$ = 16						; size = 4
_i$ = 20						; size = 4
??$LoadString_e@$0P@@ioINILoader@@QAEXAAY0P@$$CBDAAY00$$CBDPADH@Z PROC ; ioINILoader::LoadString_e<15>, COMDAT
; _this$ = ecx

; 161  : 	{

  00000	55		 push	 ebp
  00001	8b ec		 mov	 ebp, esp
  00003	83 ec 1c	 sub	 esp, 28			; 0000001cH
  00006	a1 00 00 00 00	 mov	 eax, DWORD PTR ___security_cookie
  0000b	33 c5		 xor	 eax, ebp
  0000d	89 45 fc	 mov	 DWORD PTR __$ArrayPad$[ebp], eax
  00010	8b 45 08	 mov	 eax, DWORD PTR _k$[ebp]

; 162  : 		_ENCSTR(k, _k);

  00013	8a 10		 mov	 dl, BYTE PTR [eax]
  00015	56		 push	 esi
  00016	8b 75 0c	 mov	 esi, DWORD PTR _d$[ebp]
  00019	57		 push	 edi
  0001a	8b 7d 10	 mov	 edi, DWORD PTR _b$[ebp]
  0001d	89 4d e4	 mov	 DWORD PTR _this$GSCopy$[ebp], ecx
  00020	84 d2		 test	 dl, dl
  00022	0f 84 75 01 00
	00		 je	 $LN96@LoadString
  00028	80 f2 ed	 xor	 dl, -19			; ffffffedH
  0002b	88 55 e8	 mov	 BYTE PTR __k$[ebp], dl
  0002e	8a 50 01	 mov	 dl, BYTE PTR [eax+1]
  00031	84 d2		 test	 dl, dl
  00033	0f 84 5e 01 00
	00		 je	 $LN95@LoadString
  00039	b1 ec		 mov	 cl, -20			; ffffffecH
  0003b	32 d1		 xor	 dl, cl
  0003d	88 55 e9	 mov	 BYTE PTR __k$[ebp+1], dl
  00040	8a 50 02	 mov	 dl, BYTE PTR [eax+2]
  00043	84 d2		 test	 dl, dl
  00045	0f 84 46 01 00
	00		 je	 $LN94@LoadString
  0004b	80 f2 eb	 xor	 dl, -21			; ffffffebH
  0004e	88 55 ea	 mov	 BYTE PTR __k$[ebp+2], dl
  00051	8a 50 03	 mov	 dl, BYTE PTR [eax+3]
  00054	84 d2		 test	 dl, dl
  00056	0f 84 2f 01 00
	00		 je	 $LN93@LoadString
  0005c	80 f2 ea	 xor	 dl, -22			; ffffffeaH
  0005f	88 55 eb	 mov	 BYTE PTR __k$[ebp+3], dl
  00062	8a 50 04	 mov	 dl, BYTE PTR [eax+4]
  00065	84 d2		 test	 dl, dl
  00067	0f 84 18 01 00
	00		 je	 $LN92@LoadString
  0006d	80 f2 ed	 xor	 dl, -19			; ffffffedH
  00070	88 55 ec	 mov	 BYTE PTR __k$[ebp+4], dl
  00073	8a 50 05	 mov	 dl, BYTE PTR [eax+5]
  00076	84 d2		 test	 dl, dl
  00078	0f 84 02 01 00
	00		 je	 $LN91@LoadString
  0007e	32 d1		 xor	 dl, cl
  00080	88 55 ed	 mov	 BYTE PTR __k$[ebp+5], dl
  00083	8a 50 06	 mov	 dl, BYTE PTR [eax+6]
  00086	84 d2		 test	 dl, dl
  00088	0f 84 ec 00 00
	00		 je	 $LN90@LoadString
  0008e	80 f2 eb	 xor	 dl, -21			; ffffffebH
  00091	88 55 ee	 mov	 BYTE PTR __k$[ebp+6], dl
  00094	8a 50 07	 mov	 dl, BYTE PTR [eax+7]
  00097	84 d2		 test	 dl, dl
  00099	0f 84 d5 00 00
	00		 je	 $LN89@LoadString
  0009f	80 f2 ea	 xor	 dl, -22			; ffffffeaH
  000a2	88 55 ef	 mov	 BYTE PTR __k$[ebp+7], dl
  000a5	8a 50 08	 mov	 dl, BYTE PTR [eax+8]
  000a8	84 d2		 test	 dl, dl
  000aa	0f 84 be 00 00
	00		 je	 $LN88@LoadString
  000b0	80 f2 ed	 xor	 dl, -19			; ffffffedH
  000b3	88 55 f0	 mov	 BYTE PTR __k$[ebp+8], dl
  000b6	8a 50 09	 mov	 dl, BYTE PTR [eax+9]
  000b9	84 d2		 test	 dl, dl
  000bb	0f 84 a8 00 00
	00		 je	 $LN87@LoadString
  000c1	32 d1		 xor	 dl, cl
  000c3	88 55 f1	 mov	 BYTE PTR __k$[ebp+9], dl
  000c6	8a 50 0a	 mov	 dl, BYTE PTR [eax+10]
  000c9	84 d2		 test	 dl, dl
  000cb	0f 84 92 00 00
	00		 je	 $LN86@LoadString
  000d1	80 f2 eb	 xor	 dl, -21			; ffffffebH
  000d4	88 55 f2	 mov	 BYTE PTR __k$[ebp+10], dl
  000d7	8a 50 0b	 mov	 dl, BYTE PTR [eax+11]
  000da	84 d2		 test	 dl, dl
  000dc	74 7f		 je	 SHORT $LN85@LoadString
  000de	80 f2 ea	 xor	 dl, -22			; ffffffeaH
  000e1	88 55 f3	 mov	 BYTE PTR __k$[ebp+11], dl
  000e4	8a 50 0c	 mov	 dl, BYTE PTR [eax+12]
  000e7	84 d2		 test	 dl, dl
  000e9	74 6c		 je	 SHORT $LN84@LoadString
  000eb	80 f2 ed	 xor	 dl, -19			; ffffffedH
  000ee	88 55 f4	 mov	 BYTE PTR __k$[ebp+12], dl
  000f1	8a 50 0d	 mov	 dl, BYTE PTR [eax+13]
  000f4	84 d2		 test	 dl, dl
  000f6	74 5a		 je	 SHORT $LN83@LoadString
  000f8	32 d1		 xor	 dl, cl
  000fa	80 78 0e 00	 cmp	 BYTE PTR [eax+14], 0
  000fe	88 55 f5	 mov	 BYTE PTR __k$[ebp+13], dl
  00101	0f 84 9a 00 00
	00		 je	 $LN111@LoadString
  00107	8a 50 0f	 mov	 dl, BYTE PTR [eax+15]
  0010a	84 d2		 test	 dl, dl
  0010c	74 3e		 je	 SHORT $LN81@LoadString
  0010e	80 f2 ea	 xor	 dl, -22			; ffffffeaH
  00111	88 55 f7	 mov	 BYTE PTR __k$[ebp+15], dl
  00114	8a 50 10	 mov	 dl, BYTE PTR [eax+16]
  00117	84 d2		 test	 dl, dl
  00119	74 2b		 je	 SHORT $LN80@LoadString
  0011b	80 f2 ed	 xor	 dl, -19			; ffffffedH
  0011e	88 55 f8	 mov	 BYTE PTR __k$[ebp+16], dl
  00121	8a 50 11	 mov	 dl, BYTE PTR [eax+17]
  00124	84 d2		 test	 dl, dl
  00126	74 19		 je	 SHORT $LN79@LoadString
  00128	8a 40 12	 mov	 al, BYTE PTR [eax+18]
  0012b	32 d1		 xor	 dl, cl
  0012d	88 55 f9	 mov	 BYTE PTR __k$[ebp+17], dl
  00130	84 c0		 test	 al, al
  00132	74 07		 je	 SHORT $LN78@LoadString
  00134	34 eb		 xor	 al, -21			; ffffffebH
  00136	88 45 fa	 mov	 BYTE PTR __k$[ebp+18], al
  00139	eb 66		 jmp	 SHORT $LN111@LoadString
$LN78@LoadString:
  0013b	c6 45 fa eb	 mov	 BYTE PTR __k$[ebp+18], -21 ; ffffffebH
  0013f	eb 60		 jmp	 SHORT $LN111@LoadString
$LN79@LoadString:
  00141	88 4d f9	 mov	 BYTE PTR __k$[ebp+17], cl
  00144	eb 5b		 jmp	 SHORT $LN111@LoadString
$LN80@LoadString:
  00146	c6 45 f8 ed	 mov	 BYTE PTR __k$[ebp+16], -19 ; ffffffedH
  0014a	eb 55		 jmp	 SHORT $LN111@LoadString
$LN81@LoadString:
  0014c	c6 45 f7 ea	 mov	 BYTE PTR __k$[ebp+15], -22 ; ffffffeaH
  00150	eb 4f		 jmp	 SHORT $LN111@LoadString
$LN83@LoadString:
  00152	88 4d f5	 mov	 BYTE PTR __k$[ebp+13], cl
  00155	eb 4a		 jmp	 SHORT $LN111@LoadString
$LN84@LoadString:
  00157	c6 45 f4 ed	 mov	 BYTE PTR __k$[ebp+12], -19 ; ffffffedH
  0015b	eb 44		 jmp	 SHORT $LN111@LoadString
$LN85@LoadString:
  0015d	c6 45 f3 ea	 mov	 BYTE PTR __k$[ebp+11], -22 ; ffffffeaH
  00161	eb 3e		 jmp	 SHORT $LN111@LoadString
$LN86@LoadString:
  00163	c6 45 f2 eb	 mov	 BYTE PTR __k$[ebp+10], -21 ; ffffffebH
  00167	eb 38		 jmp	 SHORT $LN111@LoadString
$LN87@LoadString:
  00169	88 4d f1	 mov	 BYTE PTR __k$[ebp+9], cl
  0016c	eb 33		 jmp	 SHORT $LN111@LoadString
$LN88@LoadString:
  0016e	c6 45 f0 ed	 mov	 BYTE PTR __k$[ebp+8], -19 ; ffffffedH
  00172	eb 2d		 jmp	 SHORT $LN111@LoadString
$LN89@LoadString:
  00174	c6 45 ef ea	 mov	 BYTE PTR __k$[ebp+7], -22 ; ffffffeaH
  00178	eb 27		 jmp	 SHORT $LN111@LoadString
$LN90@LoadString:
  0017a	c6 45 ee eb	 mov	 BYTE PTR __k$[ebp+6], -21 ; ffffffebH
  0017e	eb 21		 jmp	 SHORT $LN111@LoadString
$LN91@LoadString:
  00180	88 4d ed	 mov	 BYTE PTR __k$[ebp+5], cl
  00183	eb 1c		 jmp	 SHORT $LN111@LoadString
$LN92@LoadString:
  00185	c6 45 ec ed	 mov	 BYTE PTR __k$[ebp+4], -19 ; ffffffedH
  00189	eb 16		 jmp	 SHORT $LN111@LoadString
$LN93@LoadString:
  0018b	c6 45 eb ea	 mov	 BYTE PTR __k$[ebp+3], -22 ; ffffffeaH
  0018f	eb 10		 jmp	 SHORT $LN111@LoadString
$LN94@LoadString:
  00191	c6 45 ea eb	 mov	 BYTE PTR __k$[ebp+2], -21 ; ffffffebH
  00195	eb 0a		 jmp	 SHORT $LN111@LoadString
$LN95@LoadString:
  00197	c6 45 e9 ec	 mov	 BYTE PTR __k$[ebp+1], -20 ; ffffffecH
  0019b	eb 04		 jmp	 SHORT $LN111@LoadString
$LN96@LoadString:
  0019d	c6 45 e8 ed	 mov	 BYTE PTR __k$[ebp], -19	; ffffffedH
$LN111@LoadString:
  001a1	6a 03		 push	 3
  001a3	8d 45 e8	 lea	 eax, DWORD PTR __k$[ebp]
  001a6	c6 45 f6 00	 mov	 BYTE PTR __k$[ebp+14], 0
  001aa	5a		 pop	 edx
$LL104@LoadString:
  001ab	81 30 ed ec eb
	ea		 xor	 DWORD PTR [eax], -353637139 ; eaebecedH
  001b1	83 c0 04	 add	 eax, 4
  001b4	4a		 dec	 edx
  001b5	75 f4		 jne	 SHORT $LL104@LoadString
  001b7	6a 0c		 push	 12			; 0000000cH
  001b9	58		 pop	 eax
$LL101@LoadString:
  001ba	8b c8		 mov	 ecx, eax
  001bc	81 e1 03 00 00
	80		 and	 ecx, -2147483645	; 80000003H
  001c2	79 05		 jns	 SHORT $LN112@LoadString
  001c4	49		 dec	 ecx
  001c5	83 c9 fc	 or	 ecx, -4			; fffffffcH
  001c8	41		 inc	 ecx
$LN112@LoadString:
  001c9	b2 ed		 mov	 dl, -19			; ffffffedH
  001cb	2a d1		 sub	 dl, cl
  001cd	30 54 05 e8	 xor	 BYTE PTR __k$[ebp+eax], dl
  001d1	40		 inc	 eax
  001d2	83 f8 0e	 cmp	 eax, 14			; 0000000eH
  001d5	7c e3		 jl	 SHORT $LL101@LoadString

; 163  : 		LoadString(_k, d, b, i);

  001d7	ff 75 14	 push	 DWORD PTR _i$[ebp]
  001da	8b 4d e4	 mov	 ecx, DWORD PTR _this$GSCopy$[ebp]
  001dd	57		 push	 edi
  001de	56		 push	 esi
  001df	8d 45 e8	 lea	 eax, DWORD PTR __k$[ebp]
  001e2	50		 push	 eax
  001e3	ff 15 00 00 00
	00		 call	 DWORD PTR __imp_?LoadStringA@ioINILoader@@QAEXPBD0PADH@Z

; 164  : 	}

  001e9	8b 4d fc	 mov	 ecx, DWORD PTR __$ArrayPad$[ebp]
  001ec	5f		 pop	 edi
  001ed	33 cd		 xor	 ecx, ebp
  001ef	5e		 pop	 esi
  001f0	e8 00 00 00 00	 call	 @__security_check_cookie@4
  001f5	c9		 leave
  001f6	c2 10 00	 ret	 16			; 00000010H
??$LoadString_e@$0P@@ioINILoader@@QAEXAAY0P@$$CBDAAY00$$CBDPADH@Z ENDP ; ioINILoader::LoadString_e<15>
_TEXT	ENDS
PUBLIC	__$ArrayPad$
PUBLIC	??$LoadFloat_e@$0BE@@ioINILoader@@QAEMAAY0BE@$$CBDM@Z ; ioINILoader::LoadFloat_e<20>
; Function compile flags: /Ogsp
;	COMDAT ??$LoadFloat_e@$0BE@@ioINILoader@@QAEMAAY0BE@$$CBDM@Z
_TEXT	SEGMENT
__k$ = -28						; size = 20
__$ArrayPad$ = -4					; size = 4
_k$ = 8							; size = 4
_f$ = 12						; size = 4
??$LoadFloat_e@$0BE@@ioINILoader@@QAEMAAY0BE@$$CBDM@Z PROC ; ioINILoader::LoadFloat_e<20>, COMDAT
; _this$ = ecx

; 135  : 	{

  00000	55		 push	 ebp
  00001	8b ec		 mov	 ebp, esp
  00003	83 ec 1c	 sub	 esp, 28			; 0000001cH
  00006	a1 00 00 00 00	 mov	 eax, DWORD PTR ___security_cookie
  0000b	33 c5		 xor	 eax, ebp
  0000d	89 45 fc	 mov	 DWORD PTR __$ArrayPad$[ebp], eax
  00010	8b 45 08	 mov	 eax, DWORD PTR _k$[ebp]

; 136  : 		_ENCSTR(k, _k);

  00013	8a 10		 mov	 dl, BYTE PTR [eax]
  00015	53		 push	 ebx
  00016	56		 push	 esi
  00017	8b f1		 mov	 esi, ecx
  00019	84 d2		 test	 dl, dl
  0001b	0f 84 dd 01 00
	00		 je	 $LN96@LoadFloat_@3
  00021	80 f2 ed	 xor	 dl, -19			; ffffffedH
  00024	88 55 e4	 mov	 BYTE PTR __k$[ebp], dl
  00027	8a 50 01	 mov	 dl, BYTE PTR [eax+1]
  0002a	84 d2		 test	 dl, dl
  0002c	0f 84 c6 01 00
	00		 je	 $LN95@LoadFloat_@3
  00032	b3 ec		 mov	 bl, -20			; ffffffecH
  00034	32 d3		 xor	 dl, bl
  00036	88 55 e5	 mov	 BYTE PTR __k$[ebp+1], dl
  00039	8a 50 02	 mov	 dl, BYTE PTR [eax+2]
  0003c	84 d2		 test	 dl, dl
  0003e	0f 84 ae 01 00
	00		 je	 $LN94@LoadFloat_@3
  00044	b1 eb		 mov	 cl, -21			; ffffffebH
  00046	32 d1		 xor	 dl, cl
  00048	88 55 e6	 mov	 BYTE PTR __k$[ebp+2], dl
  0004b	8a 50 03	 mov	 dl, BYTE PTR [eax+3]
  0004e	84 d2		 test	 dl, dl
  00050	0f 84 96 01 00
	00		 je	 $LN93@LoadFloat_@3
  00056	80 f2 ea	 xor	 dl, -22			; ffffffeaH
  00059	88 55 e7	 mov	 BYTE PTR __k$[ebp+3], dl
  0005c	8a 50 04	 mov	 dl, BYTE PTR [eax+4]
  0005f	84 d2		 test	 dl, dl
  00061	0f 84 7f 01 00
	00		 je	 $LN92@LoadFloat_@3
  00067	80 f2 ed	 xor	 dl, -19			; ffffffedH
  0006a	88 55 e8	 mov	 BYTE PTR __k$[ebp+4], dl
  0006d	8a 50 05	 mov	 dl, BYTE PTR [eax+5]
  00070	84 d2		 test	 dl, dl
  00072	0f 84 69 01 00
	00		 je	 $LN91@LoadFloat_@3
  00078	32 d3		 xor	 dl, bl
  0007a	88 55 e9	 mov	 BYTE PTR __k$[ebp+5], dl
  0007d	8a 50 06	 mov	 dl, BYTE PTR [eax+6]
  00080	84 d2		 test	 dl, dl
  00082	0f 84 54 01 00
	00		 je	 $LN90@LoadFloat_@3
  00088	32 d1		 xor	 dl, cl
  0008a	88 55 ea	 mov	 BYTE PTR __k$[ebp+6], dl
  0008d	8a 50 07	 mov	 dl, BYTE PTR [eax+7]
  00090	84 d2		 test	 dl, dl
  00092	0f 84 3e 01 00
	00		 je	 $LN89@LoadFloat_@3
  00098	80 f2 ea	 xor	 dl, -22			; ffffffeaH
  0009b	88 55 eb	 mov	 BYTE PTR __k$[ebp+7], dl
  0009e	8a 50 08	 mov	 dl, BYTE PTR [eax+8]
  000a1	84 d2		 test	 dl, dl
  000a3	0f 84 27 01 00
	00		 je	 $LN88@LoadFloat_@3
  000a9	80 f2 ed	 xor	 dl, -19			; ffffffedH
  000ac	88 55 ec	 mov	 BYTE PTR __k$[ebp+8], dl
  000af	8a 50 09	 mov	 dl, BYTE PTR [eax+9]
  000b2	84 d2		 test	 dl, dl
  000b4	0f 84 11 01 00
	00		 je	 $LN87@LoadFloat_@3
  000ba	32 d3		 xor	 dl, bl
  000bc	88 55 ed	 mov	 BYTE PTR __k$[ebp+9], dl
  000bf	8a 50 0a	 mov	 dl, BYTE PTR [eax+10]
  000c2	84 d2		 test	 dl, dl
  000c4	0f 84 fc 00 00
	00		 je	 $LN86@LoadFloat_@3
  000ca	32 d1		 xor	 dl, cl
  000cc	88 55 ee	 mov	 BYTE PTR __k$[ebp+10], dl
  000cf	8a 50 0b	 mov	 dl, BYTE PTR [eax+11]
  000d2	84 d2		 test	 dl, dl
  000d4	0f 84 e6 00 00
	00		 je	 $LN85@LoadFloat_@3
  000da	80 f2 ea	 xor	 dl, -22			; ffffffeaH
  000dd	88 55 ef	 mov	 BYTE PTR __k$[ebp+11], dl
  000e0	8a 50 0c	 mov	 dl, BYTE PTR [eax+12]
  000e3	84 d2		 test	 dl, dl
  000e5	0f 84 cf 00 00
	00		 je	 $LN84@LoadFloat_@3
  000eb	80 f2 ed	 xor	 dl, -19			; ffffffedH
  000ee	88 55 f0	 mov	 BYTE PTR __k$[ebp+12], dl
  000f1	8a 50 0d	 mov	 dl, BYTE PTR [eax+13]
  000f4	84 d2		 test	 dl, dl
  000f6	0f 84 b9 00 00
	00		 je	 $LN83@LoadFloat_@3
  000fc	32 d3		 xor	 dl, bl
  000fe	88 55 f1	 mov	 BYTE PTR __k$[ebp+13], dl
  00101	8a 50 0e	 mov	 dl, BYTE PTR [eax+14]
  00104	84 d2		 test	 dl, dl
  00106	0f 84 a4 00 00
	00		 je	 $LN82@LoadFloat_@3
  0010c	32 d1		 xor	 dl, cl
  0010e	88 55 f2	 mov	 BYTE PTR __k$[ebp+14], dl
  00111	8a 50 0f	 mov	 dl, BYTE PTR [eax+15]
  00114	84 d2		 test	 dl, dl
  00116	0f 84 8e 00 00
	00		 je	 $LN81@LoadFloat_@3
  0011c	80 f2 ea	 xor	 dl, -22			; ffffffeaH
  0011f	88 55 f3	 mov	 BYTE PTR __k$[ebp+15], dl
  00122	8a 50 10	 mov	 dl, BYTE PTR [eax+16]
  00125	84 d2		 test	 dl, dl
  00127	74 7b		 je	 SHORT $LN80@LoadFloat_@3
  00129	80 f2 ed	 xor	 dl, -19			; ffffffedH
  0012c	88 55 f4	 mov	 BYTE PTR __k$[ebp+16], dl
  0012f	8a 50 11	 mov	 dl, BYTE PTR [eax+17]
  00132	84 d2		 test	 dl, dl
  00134	74 69		 je	 SHORT $LN79@LoadFloat_@3
  00136	32 d3		 xor	 dl, bl
  00138	88 55 f5	 mov	 BYTE PTR __k$[ebp+17], dl
  0013b	8a 50 12	 mov	 dl, BYTE PTR [eax+18]
  0013e	84 d2		 test	 dl, dl
  00140	74 58		 je	 SHORT $LN78@LoadFloat_@3
  00142	32 d1		 xor	 dl, cl
  00144	80 78 13 00	 cmp	 BYTE PTR [eax+19], 0
  00148	88 55 f6	 mov	 BYTE PTR __k$[ebp+18], dl
  0014b	0f 84 b1 00 00
	00		 je	 $LN1@LoadFloat_@3
  00151	8a 50 14	 mov	 dl, BYTE PTR [eax+20]
  00154	84 d2		 test	 dl, dl
  00156	74 3c		 je	 SHORT $LN76@LoadFloat_@3
  00158	80 f2 ed	 xor	 dl, -19			; ffffffedH
  0015b	88 55 f8	 mov	 BYTE PTR __k$[ebp+20], dl
  0015e	8a 50 15	 mov	 dl, BYTE PTR [eax+21]
  00161	84 d2		 test	 dl, dl
  00163	74 2a		 je	 SHORT $LN75@LoadFloat_@3
  00165	32 d3		 xor	 dl, bl
  00167	88 55 f9	 mov	 BYTE PTR __k$[ebp+21], dl
  0016a	8a 50 16	 mov	 dl, BYTE PTR [eax+22]
  0016d	84 d2		 test	 dl, dl
  0016f	74 19		 je	 SHORT $LN74@LoadFloat_@3
  00171	8a 40 17	 mov	 al, BYTE PTR [eax+23]
  00174	32 d1		 xor	 dl, cl
  00176	88 55 fa	 mov	 BYTE PTR __k$[ebp+22], dl
  00179	84 c0		 test	 al, al
  0017b	74 07		 je	 SHORT $LN73@LoadFloat_@3
  0017d	34 ea		 xor	 al, -22			; ffffffeaH
  0017f	88 45 fb	 mov	 BYTE PTR __k$[ebp+23], al
  00182	eb 7e		 jmp	 SHORT $LN1@LoadFloat_@3
$LN73@LoadFloat_@3:
  00184	c6 45 fb ea	 mov	 BYTE PTR __k$[ebp+23], -22 ; ffffffeaH
  00188	eb 78		 jmp	 SHORT $LN1@LoadFloat_@3
$LN74@LoadFloat_@3:
  0018a	88 4d fa	 mov	 BYTE PTR __k$[ebp+22], cl
  0018d	eb 73		 jmp	 SHORT $LN1@LoadFloat_@3
$LN75@LoadFloat_@3:
  0018f	88 5d f9	 mov	 BYTE PTR __k$[ebp+21], bl
  00192	eb 6e		 jmp	 SHORT $LN1@LoadFloat_@3
$LN76@LoadFloat_@3:
  00194	c6 45 f8 ed	 mov	 BYTE PTR __k$[ebp+20], -19 ; ffffffedH
  00198	eb 68		 jmp	 SHORT $LN1@LoadFloat_@3
$LN78@LoadFloat_@3:
  0019a	88 4d f6	 mov	 BYTE PTR __k$[ebp+18], cl
  0019d	eb 63		 jmp	 SHORT $LN1@LoadFloat_@3
$LN79@LoadFloat_@3:
  0019f	88 5d f5	 mov	 BYTE PTR __k$[ebp+17], bl
  001a2	eb 5e		 jmp	 SHORT $LN1@LoadFloat_@3
$LN80@LoadFloat_@3:
  001a4	c6 45 f4 ed	 mov	 BYTE PTR __k$[ebp+16], -19 ; ffffffedH
  001a8	eb 58		 jmp	 SHORT $LN1@LoadFloat_@3
$LN81@LoadFloat_@3:
  001aa	c6 45 f3 ea	 mov	 BYTE PTR __k$[ebp+15], -22 ; ffffffeaH
  001ae	eb 52		 jmp	 SHORT $LN1@LoadFloat_@3
$LN82@LoadFloat_@3:
  001b0	88 4d f2	 mov	 BYTE PTR __k$[ebp+14], cl
  001b3	eb 4d		 jmp	 SHORT $LN1@LoadFloat_@3
$LN83@LoadFloat_@3:
  001b5	88 5d f1	 mov	 BYTE PTR __k$[ebp+13], bl
  001b8	eb 48		 jmp	 SHORT $LN1@LoadFloat_@3
$LN84@LoadFloat_@3:
  001ba	c6 45 f0 ed	 mov	 BYTE PTR __k$[ebp+12], -19 ; ffffffedH
  001be	eb 42		 jmp	 SHORT $LN1@LoadFloat_@3
$LN85@LoadFloat_@3:
  001c0	c6 45 ef ea	 mov	 BYTE PTR __k$[ebp+11], -22 ; ffffffeaH
  001c4	eb 3c		 jmp	 SHORT $LN1@LoadFloat_@3
$LN86@LoadFloat_@3:
  001c6	88 4d ee	 mov	 BYTE PTR __k$[ebp+10], cl
  001c9	eb 37		 jmp	 SHORT $LN1@LoadFloat_@3
$LN87@LoadFloat_@3:
  001cb	88 5d ed	 mov	 BYTE PTR __k$[ebp+9], bl
  001ce	eb 32		 jmp	 SHORT $LN1@LoadFloat_@3
$LN88@LoadFloat_@3:
  001d0	c6 45 ec ed	 mov	 BYTE PTR __k$[ebp+8], -19 ; ffffffedH
  001d4	eb 2c		 jmp	 SHORT $LN1@LoadFloat_@3
$LN89@LoadFloat_@3:
  001d6	c6 45 eb ea	 mov	 BYTE PTR __k$[ebp+7], -22 ; ffffffeaH
  001da	eb 26		 jmp	 SHORT $LN1@LoadFloat_@3
$LN90@LoadFloat_@3:
  001dc	88 4d ea	 mov	 BYTE PTR __k$[ebp+6], cl
  001df	eb 21		 jmp	 SHORT $LN1@LoadFloat_@3
$LN91@LoadFloat_@3:
  001e1	88 5d e9	 mov	 BYTE PTR __k$[ebp+5], bl
  001e4	eb 1c		 jmp	 SHORT $LN1@LoadFloat_@3
$LN92@LoadFloat_@3:
  001e6	c6 45 e8 ed	 mov	 BYTE PTR __k$[ebp+4], -19 ; ffffffedH
  001ea	eb 16		 jmp	 SHORT $LN1@LoadFloat_@3
$LN93@LoadFloat_@3:
  001ec	c6 45 e7 ea	 mov	 BYTE PTR __k$[ebp+3], -22 ; ffffffeaH
  001f0	eb 10		 jmp	 SHORT $LN1@LoadFloat_@3
$LN94@LoadFloat_@3:
  001f2	c6 45 e6 eb	 mov	 BYTE PTR __k$[ebp+2], -21 ; ffffffebH
  001f6	eb 0a		 jmp	 SHORT $LN1@LoadFloat_@3
$LN95@LoadFloat_@3:
  001f8	c6 45 e5 ec	 mov	 BYTE PTR __k$[ebp+1], -20 ; ffffffecH
  001fc	eb 04		 jmp	 SHORT $LN1@LoadFloat_@3
$LN96@LoadFloat_@3:
  001fe	c6 45 e4 ed	 mov	 BYTE PTR __k$[ebp], -19	; ffffffedH
$LN1@LoadFloat_@3:
  00202	6a 04		 push	 4
  00204	8d 45 e4	 lea	 eax, DWORD PTR __k$[ebp]
  00207	c6 45 f7 00	 mov	 BYTE PTR __k$[ebp+19], 0
  0020b	5a		 pop	 edx
$LL104@LoadFloat_@3:
  0020c	81 30 ed ec eb
	ea		 xor	 DWORD PTR [eax], -353637139 ; eaebecedH
  00212	83 c0 04	 add	 eax, 4
  00215	4a		 dec	 edx
  00216	75 f4		 jne	 SHORT $LL104@LoadFloat_@3
  00218	6a 10		 push	 16			; 00000010H
  0021a	58		 pop	 eax
$LL101@LoadFloat_@3:
  0021b	8b c8		 mov	 ecx, eax
  0021d	81 e1 03 00 00
	80		 and	 ecx, -2147483645	; 80000003H
  00223	79 05		 jns	 SHORT $LN111@LoadFloat_@3
  00225	49		 dec	 ecx
  00226	83 c9 fc	 or	 ecx, -4			; fffffffcH
  00229	41		 inc	 ecx
$LN111@LoadFloat_@3:
  0022a	b2 ed		 mov	 dl, -19			; ffffffedH
  0022c	2a d1		 sub	 dl, cl
  0022e	30 54 05 e4	 xor	 BYTE PTR __k$[ebp+eax], dl
  00232	40		 inc	 eax
  00233	83 f8 13	 cmp	 eax, 19			; 00000013H
  00236	7c e3		 jl	 SHORT $LL101@LoadFloat_@3

; 137  : 		return LoadFloat(_k, f);

  00238	f3 0f 10 45 0c	 movss	 xmm0, DWORD PTR _f$[ebp]
  0023d	51		 push	 ecx
  0023e	8d 45 e4	 lea	 eax, DWORD PTR __k$[ebp]
  00241	f3 0f 11 04 24	 movss	 DWORD PTR [esp], xmm0
  00246	50		 push	 eax
  00247	8b ce		 mov	 ecx, esi
  00249	ff 15 00 00 00
	00		 call	 DWORD PTR __imp_?LoadFloat@ioINILoader@@QAEMPBDM@Z

; 138  : 	}

  0024f	8b 4d fc	 mov	 ecx, DWORD PTR __$ArrayPad$[ebp]
  00252	5e		 pop	 esi
  00253	33 cd		 xor	 ecx, ebp
  00255	5b		 pop	 ebx
  00256	e8 00 00 00 00	 call	 @__security_check_cookie@4
  0025b	c9		 leave
  0025c	c2 08 00	 ret	 8
??$LoadFloat_e@$0BE@@ioINILoader@@QAEMAAY0BE@$$CBDM@Z ENDP ; ioINILoader::LoadFloat_e<20>
_TEXT	ENDS
PUBLIC	__$ArrayPad$
PUBLIC	??$LoadInt_e@$0O@@ioINILoader@@QAEHAAY0O@$$CBDH@Z ; ioINILoader::LoadInt_e<14>
; Function compile flags: /Ogsp
;	COMDAT ??$LoadInt_e@$0O@@ioINILoader@@QAEHAAY0O@$$CBDH@Z
_TEXT	SEGMENT
__k$ = -24						; size = 14
__$ArrayPad$ = -4					; size = 4
_k$ = 8							; size = 4
_i$ = 12						; size = 4
??$LoadInt_e@$0O@@ioINILoader@@QAEHAAY0O@$$CBDH@Z PROC	; ioINILoader::LoadInt_e<14>, COMDAT
; _this$ = ecx

; 118  : 	{

  00000	55		 push	 ebp
  00001	8b ec		 mov	 ebp, esp
  00003	83 ec 18	 sub	 esp, 24			; 00000018H
  00006	a1 00 00 00 00	 mov	 eax, DWORD PTR ___security_cookie
  0000b	33 c5		 xor	 eax, ebp
  0000d	89 45 fc	 mov	 DWORD PTR __$ArrayPad$[ebp], eax
  00010	8b 45 08	 mov	 eax, DWORD PTR _k$[ebp]

; 119  : 		_ENCSTR(k, _k);

  00013	8a 10		 mov	 dl, BYTE PTR [eax]
  00015	56		 push	 esi
  00016	8b f1		 mov	 esi, ecx
  00018	84 d2		 test	 dl, dl
  0001a	0f 84 64 01 00
	00		 je	 $LN96@LoadInt_e@3
  00020	80 f2 ed	 xor	 dl, -19			; ffffffedH
  00023	88 55 e8	 mov	 BYTE PTR __k$[ebp], dl
  00026	8a 50 01	 mov	 dl, BYTE PTR [eax+1]
  00029	84 d2		 test	 dl, dl
  0002b	0f 84 4d 01 00
	00		 je	 $LN95@LoadInt_e@3
  00031	80 f2 ec	 xor	 dl, -20			; ffffffecH
  00034	88 55 e9	 mov	 BYTE PTR __k$[ebp+1], dl
  00037	8a 50 02	 mov	 dl, BYTE PTR [eax+2]
  0003a	84 d2		 test	 dl, dl
  0003c	0f 84 36 01 00
	00		 je	 $LN94@LoadInt_e@3
  00042	b1 eb		 mov	 cl, -21			; ffffffebH
  00044	32 d1		 xor	 dl, cl
  00046	88 55 ea	 mov	 BYTE PTR __k$[ebp+2], dl
  00049	8a 50 03	 mov	 dl, BYTE PTR [eax+3]
  0004c	84 d2		 test	 dl, dl
  0004e	0f 84 1e 01 00
	00		 je	 $LN93@LoadInt_e@3
  00054	80 f2 ea	 xor	 dl, -22			; ffffffeaH
  00057	88 55 eb	 mov	 BYTE PTR __k$[ebp+3], dl
  0005a	8a 50 04	 mov	 dl, BYTE PTR [eax+4]
  0005d	84 d2		 test	 dl, dl
  0005f	0f 84 07 01 00
	00		 je	 $LN92@LoadInt_e@3
  00065	80 f2 ed	 xor	 dl, -19			; ffffffedH
  00068	88 55 ec	 mov	 BYTE PTR __k$[ebp+4], dl
  0006b	8a 50 05	 mov	 dl, BYTE PTR [eax+5]
  0006e	84 d2		 test	 dl, dl
  00070	0f 84 f0 00 00
	00		 je	 $LN91@LoadInt_e@3
  00076	80 f2 ec	 xor	 dl, -20			; ffffffecH
  00079	88 55 ed	 mov	 BYTE PTR __k$[ebp+5], dl
  0007c	8a 50 06	 mov	 dl, BYTE PTR [eax+6]
  0007f	84 d2		 test	 dl, dl
  00081	0f 84 da 00 00
	00		 je	 $LN90@LoadInt_e@3
  00087	32 d1		 xor	 dl, cl
  00089	88 55 ee	 mov	 BYTE PTR __k$[ebp+6], dl
  0008c	8a 50 07	 mov	 dl, BYTE PTR [eax+7]
  0008f	84 d2		 test	 dl, dl
  00091	0f 84 c4 00 00
	00		 je	 $LN89@LoadInt_e@3
  00097	80 f2 ea	 xor	 dl, -22			; ffffffeaH
  0009a	88 55 ef	 mov	 BYTE PTR __k$[ebp+7], dl
  0009d	8a 50 08	 mov	 dl, BYTE PTR [eax+8]
  000a0	84 d2		 test	 dl, dl
  000a2	0f 84 ad 00 00
	00		 je	 $LN88@LoadInt_e@3
  000a8	80 f2 ed	 xor	 dl, -19			; ffffffedH
  000ab	88 55 f0	 mov	 BYTE PTR __k$[ebp+8], dl
  000ae	8a 50 09	 mov	 dl, BYTE PTR [eax+9]
  000b1	84 d2		 test	 dl, dl
  000b3	0f 84 96 00 00
	00		 je	 $LN87@LoadInt_e@3
  000b9	80 f2 ec	 xor	 dl, -20			; ffffffecH
  000bc	88 55 f1	 mov	 BYTE PTR __k$[ebp+9], dl
  000bf	8a 50 0a	 mov	 dl, BYTE PTR [eax+10]
  000c2	84 d2		 test	 dl, dl
  000c4	0f 84 80 00 00
	00		 je	 $LN86@LoadInt_e@3
  000ca	32 d1		 xor	 dl, cl
  000cc	88 55 f2	 mov	 BYTE PTR __k$[ebp+10], dl
  000cf	8a 50 0b	 mov	 dl, BYTE PTR [eax+11]
  000d2	84 d2		 test	 dl, dl
  000d4	74 6e		 je	 SHORT $LN85@LoadInt_e@3
  000d6	80 f2 ea	 xor	 dl, -22			; ffffffeaH
  000d9	88 55 f3	 mov	 BYTE PTR __k$[ebp+11], dl
  000dc	8a 50 0c	 mov	 dl, BYTE PTR [eax+12]
  000df	84 d2		 test	 dl, dl
  000e1	74 5b		 je	 SHORT $LN84@LoadInt_e@3
  000e3	80 f2 ed	 xor	 dl, -19			; ffffffedH
  000e6	80 78 0d 00	 cmp	 BYTE PTR [eax+13], 0
  000ea	88 55 f4	 mov	 BYTE PTR __k$[ebp+12], dl
  000ed	0f 84 95 00 00
	00		 je	 $LN1@LoadInt_e@3
  000f3	8a 50 0e	 mov	 dl, BYTE PTR [eax+14]
  000f6	84 d2		 test	 dl, dl
  000f8	74 3f		 je	 SHORT $LN82@LoadInt_e@3
  000fa	32 d1		 xor	 dl, cl
  000fc	88 55 f6	 mov	 BYTE PTR __k$[ebp+14], dl
  000ff	8a 50 0f	 mov	 dl, BYTE PTR [eax+15]
  00102	84 d2		 test	 dl, dl
  00104	74 2d		 je	 SHORT $LN81@LoadInt_e@3
  00106	80 f2 ea	 xor	 dl, -22			; ffffffeaH
  00109	88 55 f7	 mov	 BYTE PTR __k$[ebp+15], dl
  0010c	8a 50 10	 mov	 dl, BYTE PTR [eax+16]
  0010f	84 d2		 test	 dl, dl
  00111	74 1a		 je	 SHORT $LN80@LoadInt_e@3
  00113	8a 40 11	 mov	 al, BYTE PTR [eax+17]
  00116	80 f2 ed	 xor	 dl, -19			; ffffffedH
  00119	88 55 f8	 mov	 BYTE PTR __k$[ebp+16], dl
  0011c	84 c0		 test	 al, al
  0011e	74 07		 je	 SHORT $LN79@LoadInt_e@3
  00120	34 ec		 xor	 al, -20			; ffffffecH
  00122	88 45 f9	 mov	 BYTE PTR __k$[ebp+17], al
  00125	eb 61		 jmp	 SHORT $LN1@LoadInt_e@3
$LN79@LoadInt_e@3:
  00127	c6 45 f9 ec	 mov	 BYTE PTR __k$[ebp+17], -20 ; ffffffecH
  0012b	eb 5b		 jmp	 SHORT $LN1@LoadInt_e@3
$LN80@LoadInt_e@3:
  0012d	c6 45 f8 ed	 mov	 BYTE PTR __k$[ebp+16], -19 ; ffffffedH
  00131	eb 55		 jmp	 SHORT $LN1@LoadInt_e@3
$LN81@LoadInt_e@3:
  00133	c6 45 f7 ea	 mov	 BYTE PTR __k$[ebp+15], -22 ; ffffffeaH
  00137	eb 4f		 jmp	 SHORT $LN1@LoadInt_e@3
$LN82@LoadInt_e@3:
  00139	88 4d f6	 mov	 BYTE PTR __k$[ebp+14], cl
  0013c	eb 4a		 jmp	 SHORT $LN1@LoadInt_e@3
$LN84@LoadInt_e@3:
  0013e	c6 45 f4 ed	 mov	 BYTE PTR __k$[ebp+12], -19 ; ffffffedH
  00142	eb 44		 jmp	 SHORT $LN1@LoadInt_e@3
$LN85@LoadInt_e@3:
  00144	c6 45 f3 ea	 mov	 BYTE PTR __k$[ebp+11], -22 ; ffffffeaH
  00148	eb 3e		 jmp	 SHORT $LN1@LoadInt_e@3
$LN86@LoadInt_e@3:
  0014a	88 4d f2	 mov	 BYTE PTR __k$[ebp+10], cl
  0014d	eb 39		 jmp	 SHORT $LN1@LoadInt_e@3
$LN87@LoadInt_e@3:
  0014f	c6 45 f1 ec	 mov	 BYTE PTR __k$[ebp+9], -20 ; ffffffecH
  00153	eb 33		 jmp	 SHORT $LN1@LoadInt_e@3
$LN88@LoadInt_e@3:
  00155	c6 45 f0 ed	 mov	 BYTE PTR __k$[ebp+8], -19 ; ffffffedH
  00159	eb 2d		 jmp	 SHORT $LN1@LoadInt_e@3
$LN89@LoadInt_e@3:
  0015b	c6 45 ef ea	 mov	 BYTE PTR __k$[ebp+7], -22 ; ffffffeaH
  0015f	eb 27		 jmp	 SHORT $LN1@LoadInt_e@3
$LN90@LoadInt_e@3:
  00161	88 4d ee	 mov	 BYTE PTR __k$[ebp+6], cl
  00164	eb 22		 jmp	 SHORT $LN1@LoadInt_e@3
$LN91@LoadInt_e@3:
  00166	c6 45 ed ec	 mov	 BYTE PTR __k$[ebp+5], -20 ; ffffffecH
  0016a	eb 1c		 jmp	 SHORT $LN1@LoadInt_e@3
$LN92@LoadInt_e@3:
  0016c	c6 45 ec ed	 mov	 BYTE PTR __k$[ebp+4], -19 ; ffffffedH
  00170	eb 16		 jmp	 SHORT $LN1@LoadInt_e@3
$LN93@LoadInt_e@3:
  00172	c6 45 eb ea	 mov	 BYTE PTR __k$[ebp+3], -22 ; ffffffeaH
  00176	eb 10		 jmp	 SHORT $LN1@LoadInt_e@3
$LN94@LoadInt_e@3:
  00178	c6 45 ea eb	 mov	 BYTE PTR __k$[ebp+2], -21 ; ffffffebH
  0017c	eb 0a		 jmp	 SHORT $LN1@LoadInt_e@3
$LN95@LoadInt_e@3:
  0017e	c6 45 e9 ec	 mov	 BYTE PTR __k$[ebp+1], -20 ; ffffffecH
  00182	eb 04		 jmp	 SHORT $LN1@LoadInt_e@3
$LN96@LoadInt_e@3:
  00184	c6 45 e8 ed	 mov	 BYTE PTR __k$[ebp], -19	; ffffffedH
$LN1@LoadInt_e@3:
  00188	6a 03		 push	 3
  0018a	8d 45 e8	 lea	 eax, DWORD PTR __k$[ebp]
  0018d	c6 45 f5 00	 mov	 BYTE PTR __k$[ebp+13], 0
  00191	5a		 pop	 edx
$LL104@LoadInt_e@3:
  00192	81 30 ed ec eb
	ea		 xor	 DWORD PTR [eax], -353637139 ; eaebecedH
  00198	83 c0 04	 add	 eax, 4
  0019b	4a		 dec	 edx
  0019c	75 f4		 jne	 SHORT $LL104@LoadInt_e@3

; 120  : 		return LoadInt(_k, i);

  0019e	ff 75 0c	 push	 DWORD PTR _i$[ebp]
  001a1	80 75 f4 ed	 xor	 BYTE PTR __k$[ebp+12], -19 ; ffffffedH
  001a5	8d 45 e8	 lea	 eax, DWORD PTR __k$[ebp]
  001a8	50		 push	 eax
  001a9	8b ce		 mov	 ecx, esi
  001ab	ff 15 00 00 00
	00		 call	 DWORD PTR __imp_?LoadInt@ioINILoader@@QAEHPBDH@Z

; 121  : 	}

  001b1	8b 4d fc	 mov	 ecx, DWORD PTR __$ArrayPad$[ebp]
  001b4	33 cd		 xor	 ecx, ebp
  001b6	5e		 pop	 esi
  001b7	e8 00 00 00 00	 call	 @__security_check_cookie@4
  001bc	c9		 leave
  001bd	c2 08 00	 ret	 8
??$LoadInt_e@$0O@@ioINILoader@@QAEHAAY0O@$$CBDH@Z ENDP	; ioINILoader::LoadInt_e<14>
_TEXT	ENDS
PUBLIC	__$ArrayPad$
PUBLIC	??$LoadInt_e@$0BC@@ioINILoader@@QAEHAAY0BC@$$CBDH@Z ; ioINILoader::LoadInt_e<18>
; Function compile flags: /Ogsp
;	COMDAT ??$LoadInt_e@$0BC@@ioINILoader@@QAEHAAY0BC@$$CBDH@Z
_TEXT	SEGMENT
__k$ = -28						; size = 18
__$ArrayPad$ = -4					; size = 4
_k$ = 8							; size = 4
_i$ = 12						; size = 4
??$LoadInt_e@$0BC@@ioINILoader@@QAEHAAY0BC@$$CBDH@Z PROC ; ioINILoader::LoadInt_e<18>, COMDAT
; _this$ = ecx

; 118  : 	{

  00000	55		 push	 ebp
  00001	8b ec		 mov	 ebp, esp
  00003	83 ec 1c	 sub	 esp, 28			; 0000001cH
  00006	a1 00 00 00 00	 mov	 eax, DWORD PTR ___security_cookie
  0000b	33 c5		 xor	 eax, ebp
  0000d	89 45 fc	 mov	 DWORD PTR __$ArrayPad$[ebp], eax
  00010	8b 45 08	 mov	 eax, DWORD PTR _k$[ebp]

; 119  : 		_ENCSTR(k, _k);

  00013	8a 10		 mov	 dl, BYTE PTR [eax]
  00015	56		 push	 esi
  00016	8b f1		 mov	 esi, ecx
  00018	84 d2		 test	 dl, dl
  0001a	0f 84 be 01 00
	00		 je	 $LN96@LoadInt_e@4
  00020	80 f2 ed	 xor	 dl, -19			; ffffffedH
  00023	88 55 e4	 mov	 BYTE PTR __k$[ebp], dl
  00026	8a 50 01	 mov	 dl, BYTE PTR [eax+1]
  00029	84 d2		 test	 dl, dl
  0002b	0f 84 a7 01 00
	00		 je	 $LN95@LoadInt_e@4
  00031	80 f2 ec	 xor	 dl, -20			; ffffffecH
  00034	88 55 e5	 mov	 BYTE PTR __k$[ebp+1], dl
  00037	8a 50 02	 mov	 dl, BYTE PTR [eax+2]
  0003a	84 d2		 test	 dl, dl
  0003c	0f 84 90 01 00
	00		 je	 $LN94@LoadInt_e@4
  00042	b1 eb		 mov	 cl, -21			; ffffffebH
  00044	32 d1		 xor	 dl, cl
  00046	88 55 e6	 mov	 BYTE PTR __k$[ebp+2], dl
  00049	8a 50 03	 mov	 dl, BYTE PTR [eax+3]
  0004c	84 d2		 test	 dl, dl
  0004e	0f 84 78 01 00
	00		 je	 $LN93@LoadInt_e@4
  00054	80 f2 ea	 xor	 dl, -22			; ffffffeaH
  00057	88 55 e7	 mov	 BYTE PTR __k$[ebp+3], dl
  0005a	8a 50 04	 mov	 dl, BYTE PTR [eax+4]
  0005d	84 d2		 test	 dl, dl
  0005f	0f 84 61 01 00
	00		 je	 $LN92@LoadInt_e@4
  00065	80 f2 ed	 xor	 dl, -19			; ffffffedH
  00068	88 55 e8	 mov	 BYTE PTR __k$[ebp+4], dl
  0006b	8a 50 05	 mov	 dl, BYTE PTR [eax+5]
  0006e	84 d2		 test	 dl, dl
  00070	0f 84 4a 01 00
	00		 je	 $LN91@LoadInt_e@4
  00076	80 f2 ec	 xor	 dl, -20			; ffffffecH
  00079	88 55 e9	 mov	 BYTE PTR __k$[ebp+5], dl
  0007c	8a 50 06	 mov	 dl, BYTE PTR [eax+6]
  0007f	84 d2		 test	 dl, dl
  00081	0f 84 34 01 00
	00		 je	 $LN90@LoadInt_e@4
  00087	32 d1		 xor	 dl, cl
  00089	88 55 ea	 mov	 BYTE PTR __k$[ebp+6], dl
  0008c	8a 50 07	 mov	 dl, BYTE PTR [eax+7]
  0008f	84 d2		 test	 dl, dl
  00091	0f 84 1e 01 00
	00		 je	 $LN89@LoadInt_e@4
  00097	80 f2 ea	 xor	 dl, -22			; ffffffeaH
  0009a	88 55 eb	 mov	 BYTE PTR __k$[ebp+7], dl
  0009d	8a 50 08	 mov	 dl, BYTE PTR [eax+8]
  000a0	84 d2		 test	 dl, dl
  000a2	0f 84 07 01 00
	00		 je	 $LN88@LoadInt_e@4
  000a8	80 f2 ed	 xor	 dl, -19			; ffffffedH
  000ab	88 55 ec	 mov	 BYTE PTR __k$[ebp+8], dl
  000ae	8a 50 09	 mov	 dl, BYTE PTR [eax+9]
  000b1	84 d2		 test	 dl, dl
  000b3	0f 84 f0 00 00
	00		 je	 $LN87@LoadInt_e@4
  000b9	80 f2 ec	 xor	 dl, -20			; ffffffecH
  000bc	88 55 ed	 mov	 BYTE PTR __k$[ebp+9], dl
  000bf	8a 50 0a	 mov	 dl, BYTE PTR [eax+10]
  000c2	84 d2		 test	 dl, dl
  000c4	0f 84 da 00 00
	00		 je	 $LN86@LoadInt_e@4
  000ca	32 d1		 xor	 dl, cl
  000cc	88 55 ee	 mov	 BYTE PTR __k$[ebp+10], dl
  000cf	8a 50 0b	 mov	 dl, BYTE PTR [eax+11]
  000d2	84 d2		 test	 dl, dl
  000d4	0f 84 c4 00 00
	00		 je	 $LN85@LoadInt_e@4
  000da	80 f2 ea	 xor	 dl, -22			; ffffffeaH
  000dd	88 55 ef	 mov	 BYTE PTR __k$[ebp+11], dl
  000e0	8a 50 0c	 mov	 dl, BYTE PTR [eax+12]
  000e3	84 d2		 test	 dl, dl
  000e5	0f 84 ad 00 00
	00		 je	 $LN84@LoadInt_e@4
  000eb	80 f2 ed	 xor	 dl, -19			; ffffffedH
  000ee	88 55 f0	 mov	 BYTE PTR __k$[ebp+12], dl
  000f1	8a 50 0d	 mov	 dl, BYTE PTR [eax+13]
  000f4	84 d2		 test	 dl, dl
  000f6	0f 84 96 00 00
	00		 je	 $LN83@LoadInt_e@4
  000fc	80 f2 ec	 xor	 dl, -20			; ffffffecH
  000ff	88 55 f1	 mov	 BYTE PTR __k$[ebp+13], dl
  00102	8a 50 0e	 mov	 dl, BYTE PTR [eax+14]
  00105	84 d2		 test	 dl, dl
  00107	0f 84 80 00 00
	00		 je	 $LN82@LoadInt_e@4
  0010d	32 d1		 xor	 dl, cl
  0010f	88 55 f2	 mov	 BYTE PTR __k$[ebp+14], dl
  00112	8a 50 0f	 mov	 dl, BYTE PTR [eax+15]
  00115	84 d2		 test	 dl, dl
  00117	74 6e		 je	 SHORT $LN81@LoadInt_e@4
  00119	80 f2 ea	 xor	 dl, -22			; ffffffeaH
  0011c	88 55 f3	 mov	 BYTE PTR __k$[ebp+15], dl
  0011f	8a 50 10	 mov	 dl, BYTE PTR [eax+16]
  00122	84 d2		 test	 dl, dl
  00124	74 5b		 je	 SHORT $LN80@LoadInt_e@4
  00126	80 f2 ed	 xor	 dl, -19			; ffffffedH
  00129	80 78 11 00	 cmp	 BYTE PTR [eax+17], 0
  0012d	88 55 f4	 mov	 BYTE PTR __k$[ebp+16], dl
  00130	0f 84 ac 00 00
	00		 je	 $LN1@LoadInt_e@4
  00136	8a 50 12	 mov	 dl, BYTE PTR [eax+18]
  00139	84 d2		 test	 dl, dl
  0013b	74 3f		 je	 SHORT $LN78@LoadInt_e@4
  0013d	32 d1		 xor	 dl, cl
  0013f	88 55 f6	 mov	 BYTE PTR __k$[ebp+18], dl
  00142	8a 50 13	 mov	 dl, BYTE PTR [eax+19]
  00145	84 d2		 test	 dl, dl
  00147	74 2d		 je	 SHORT $LN77@LoadInt_e@4
  00149	80 f2 ea	 xor	 dl, -22			; ffffffeaH
  0014c	88 55 f7	 mov	 BYTE PTR __k$[ebp+19], dl
  0014f	8a 50 14	 mov	 dl, BYTE PTR [eax+20]
  00152	84 d2		 test	 dl, dl
  00154	74 1a		 je	 SHORT $LN76@LoadInt_e@4
  00156	8a 40 15	 mov	 al, BYTE PTR [eax+21]
  00159	80 f2 ed	 xor	 dl, -19			; ffffffedH
  0015c	88 55 f8	 mov	 BYTE PTR __k$[ebp+20], dl
  0015f	84 c0		 test	 al, al
  00161	74 07		 je	 SHORT $LN75@LoadInt_e@4
  00163	34 ec		 xor	 al, -20			; ffffffecH
  00165	88 45 f9	 mov	 BYTE PTR __k$[ebp+21], al
  00168	eb 78		 jmp	 SHORT $LN1@LoadInt_e@4
$LN75@LoadInt_e@4:
  0016a	c6 45 f9 ec	 mov	 BYTE PTR __k$[ebp+21], -20 ; ffffffecH
  0016e	eb 72		 jmp	 SHORT $LN1@LoadInt_e@4
$LN76@LoadInt_e@4:
  00170	c6 45 f8 ed	 mov	 BYTE PTR __k$[ebp+20], -19 ; ffffffedH
  00174	eb 6c		 jmp	 SHORT $LN1@LoadInt_e@4
$LN77@LoadInt_e@4:
  00176	c6 45 f7 ea	 mov	 BYTE PTR __k$[ebp+19], -22 ; ffffffeaH
  0017a	eb 66		 jmp	 SHORT $LN1@LoadInt_e@4
$LN78@LoadInt_e@4:
  0017c	88 4d f6	 mov	 BYTE PTR __k$[ebp+18], cl
  0017f	eb 61		 jmp	 SHORT $LN1@LoadInt_e@4
$LN80@LoadInt_e@4:
  00181	c6 45 f4 ed	 mov	 BYTE PTR __k$[ebp+16], -19 ; ffffffedH
  00185	eb 5b		 jmp	 SHORT $LN1@LoadInt_e@4
$LN81@LoadInt_e@4:
  00187	c6 45 f3 ea	 mov	 BYTE PTR __k$[ebp+15], -22 ; ffffffeaH
  0018b	eb 55		 jmp	 SHORT $LN1@LoadInt_e@4
$LN82@LoadInt_e@4:
  0018d	88 4d f2	 mov	 BYTE PTR __k$[ebp+14], cl
  00190	eb 50		 jmp	 SHORT $LN1@LoadInt_e@4
$LN83@LoadInt_e@4:
  00192	c6 45 f1 ec	 mov	 BYTE PTR __k$[ebp+13], -20 ; ffffffecH
  00196	eb 4a		 jmp	 SHORT $LN1@LoadInt_e@4
$LN84@LoadInt_e@4:
  00198	c6 45 f0 ed	 mov	 BYTE PTR __k$[ebp+12], -19 ; ffffffedH
  0019c	eb 44		 jmp	 SHORT $LN1@LoadInt_e@4
$LN85@LoadInt_e@4:
  0019e	c6 45 ef ea	 mov	 BYTE PTR __k$[ebp+11], -22 ; ffffffeaH
  001a2	eb 3e		 jmp	 SHORT $LN1@LoadInt_e@4
$LN86@LoadInt_e@4:
  001a4	88 4d ee	 mov	 BYTE PTR __k$[ebp+10], cl
  001a7	eb 39		 jmp	 SHORT $LN1@LoadInt_e@4
$LN87@LoadInt_e@4:
  001a9	c6 45 ed ec	 mov	 BYTE PTR __k$[ebp+9], -20 ; ffffffecH
  001ad	eb 33		 jmp	 SHORT $LN1@LoadInt_e@4
$LN88@LoadInt_e@4:
  001af	c6 45 ec ed	 mov	 BYTE PTR __k$[ebp+8], -19 ; ffffffedH
  001b3	eb 2d		 jmp	 SHORT $LN1@LoadInt_e@4
$LN89@LoadInt_e@4:
  001b5	c6 45 eb ea	 mov	 BYTE PTR __k$[ebp+7], -22 ; ffffffeaH
  001b9	eb 27		 jmp	 SHORT $LN1@LoadInt_e@4
$LN90@LoadInt_e@4:
  001bb	88 4d ea	 mov	 BYTE PTR __k$[ebp+6], cl
  001be	eb 22		 jmp	 SHORT $LN1@LoadInt_e@4
$LN91@LoadInt_e@4:
  001c0	c6 45 e9 ec	 mov	 BYTE PTR __k$[ebp+5], -20 ; ffffffecH
  001c4	eb 1c		 jmp	 SHORT $LN1@LoadInt_e@4
$LN92@LoadInt_e@4:
  001c6	c6 45 e8 ed	 mov	 BYTE PTR __k$[ebp+4], -19 ; ffffffedH
  001ca	eb 16		 jmp	 SHORT $LN1@LoadInt_e@4
$LN93@LoadInt_e@4:
  001cc	c6 45 e7 ea	 mov	 BYTE PTR __k$[ebp+3], -22 ; ffffffeaH
  001d0	eb 10		 jmp	 SHORT $LN1@LoadInt_e@4
$LN94@LoadInt_e@4:
  001d2	c6 45 e6 eb	 mov	 BYTE PTR __k$[ebp+2], -21 ; ffffffebH
  001d6	eb 0a		 jmp	 SHORT $LN1@LoadInt_e@4
$LN95@LoadInt_e@4:
  001d8	c6 45 e5 ec	 mov	 BYTE PTR __k$[ebp+1], -20 ; ffffffecH
  001dc	eb 04		 jmp	 SHORT $LN1@LoadInt_e@4
$LN96@LoadInt_e@4:
  001de	c6 45 e4 ed	 mov	 BYTE PTR __k$[ebp], -19	; ffffffedH
$LN1@LoadInt_e@4:
  001e2	6a 04		 push	 4
  001e4	8d 45 e4	 lea	 eax, DWORD PTR __k$[ebp]
  001e7	c6 45 f5 00	 mov	 BYTE PTR __k$[ebp+17], 0
  001eb	5a		 pop	 edx
$LL104@LoadInt_e@4:
  001ec	81 30 ed ec eb
	ea		 xor	 DWORD PTR [eax], -353637139 ; eaebecedH
  001f2	83 c0 04	 add	 eax, 4
  001f5	4a		 dec	 edx
  001f6	75 f4		 jne	 SHORT $LL104@LoadInt_e@4

; 120  : 		return LoadInt(_k, i);

  001f8	ff 75 0c	 push	 DWORD PTR _i$[ebp]
  001fb	80 75 f4 ed	 xor	 BYTE PTR __k$[ebp+16], -19 ; ffffffedH
  001ff	8d 45 e4	 lea	 eax, DWORD PTR __k$[ebp]
  00202	50		 push	 eax
  00203	8b ce		 mov	 ecx, esi
  00205	ff 15 00 00 00
	00		 call	 DWORD PTR __imp_?LoadInt@ioINILoader@@QAEHPBDH@Z

; 121  : 	}

  0020b	8b 4d fc	 mov	 ecx, DWORD PTR __$ArrayPad$[ebp]
  0020e	33 cd		 xor	 ecx, ebp
  00210	5e		 pop	 esi
  00211	e8 00 00 00 00	 call	 @__security_check_cookie@4
  00216	c9		 leave
  00217	c2 08 00	 ret	 8
??$LoadInt_e@$0BC@@ioINILoader@@QAEHAAY0BC@$$CBDH@Z ENDP ; ioINILoader::LoadInt_e<18>
_TEXT	ENDS
PUBLIC	__$ArrayPad$
PUBLIC	??$LoadFloat_e@$0BM@@ioINILoader@@QAEMAAY0BM@$$CBDM@Z ; ioINILoader::LoadFloat_e<28>
; Function compile flags: /Ogsp
;	COMDAT ??$LoadFloat_e@$0BM@@ioINILoader@@QAEMAAY0BM@$$CBDM@Z
_TEXT	SEGMENT
__k$ = -36						; size = 28
__$ArrayPad$ = -4					; size = 4
_k$ = 8							; size = 4
_f$ = 12						; size = 4
??$LoadFloat_e@$0BM@@ioINILoader@@QAEMAAY0BM@$$CBDM@Z PROC ; ioINILoader::LoadFloat_e<28>, COMDAT
; _this$ = ecx

; 135  : 	{

  00000	55		 push	 ebp
  00001	8b ec		 mov	 ebp, esp
  00003	83 ec 24	 sub	 esp, 36			; 00000024H
  00006	a1 00 00 00 00	 mov	 eax, DWORD PTR ___security_cookie
  0000b	33 c5		 xor	 eax, ebp
  0000d	89 45 fc	 mov	 DWORD PTR __$ArrayPad$[ebp], eax
  00010	8b 45 08	 mov	 eax, DWORD PTR _k$[ebp]

; 136  : 		_ENCSTR(k, _k);

  00013	8a 10		 mov	 dl, BYTE PTR [eax]
  00015	53		 push	 ebx
  00016	56		 push	 esi
  00017	8b f1		 mov	 esi, ecx
  00019	84 d2		 test	 dl, dl
  0001b	0f 84 a9 02 00
	00		 je	 $LN96@LoadFloat_@4
  00021	80 f2 ed	 xor	 dl, -19			; ffffffedH
  00024	88 55 dc	 mov	 BYTE PTR __k$[ebp], dl
  00027	8a 50 01	 mov	 dl, BYTE PTR [eax+1]
  0002a	84 d2		 test	 dl, dl
  0002c	0f 84 92 02 00
	00		 je	 $LN95@LoadFloat_@4
  00032	b3 ec		 mov	 bl, -20			; ffffffecH
  00034	32 d3		 xor	 dl, bl
  00036	88 55 dd	 mov	 BYTE PTR __k$[ebp+1], dl
  00039	8a 50 02	 mov	 dl, BYTE PTR [eax+2]
  0003c	84 d2		 test	 dl, dl
  0003e	0f 84 7a 02 00
	00		 je	 $LN94@LoadFloat_@4
  00044	b1 eb		 mov	 cl, -21			; ffffffebH
  00046	32 d1		 xor	 dl, cl
  00048	88 55 de	 mov	 BYTE PTR __k$[ebp+2], dl
  0004b	8a 50 03	 mov	 dl, BYTE PTR [eax+3]
  0004e	84 d2		 test	 dl, dl
  00050	0f 84 62 02 00
	00		 je	 $LN93@LoadFloat_@4
  00056	80 f2 ea	 xor	 dl, -22			; ffffffeaH
  00059	88 55 df	 mov	 BYTE PTR __k$[ebp+3], dl
  0005c	8a 50 04	 mov	 dl, BYTE PTR [eax+4]
  0005f	84 d2		 test	 dl, dl
  00061	0f 84 4b 02 00
	00		 je	 $LN92@LoadFloat_@4
  00067	80 f2 ed	 xor	 dl, -19			; ffffffedH
  0006a	88 55 e0	 mov	 BYTE PTR __k$[ebp+4], dl
  0006d	8a 50 05	 mov	 dl, BYTE PTR [eax+5]
  00070	84 d2		 test	 dl, dl
  00072	0f 84 35 02 00
	00		 je	 $LN91@LoadFloat_@4
  00078	32 d3		 xor	 dl, bl
  0007a	88 55 e1	 mov	 BYTE PTR __k$[ebp+5], dl
  0007d	8a 50 06	 mov	 dl, BYTE PTR [eax+6]
  00080	84 d2		 test	 dl, dl
  00082	0f 84 20 02 00
	00		 je	 $LN90@LoadFloat_@4
  00088	32 d1		 xor	 dl, cl
  0008a	88 55 e2	 mov	 BYTE PTR __k$[ebp+6], dl
  0008d	8a 50 07	 mov	 dl, BYTE PTR [eax+7]
  00090	84 d2		 test	 dl, dl
  00092	0f 84 0a 02 00
	00		 je	 $LN89@LoadFloat_@4
  00098	80 f2 ea	 xor	 dl, -22			; ffffffeaH
  0009b	88 55 e3	 mov	 BYTE PTR __k$[ebp+7], dl
  0009e	8a 50 08	 mov	 dl, BYTE PTR [eax+8]
  000a1	84 d2		 test	 dl, dl
  000a3	0f 84 f3 01 00
	00		 je	 $LN88@LoadFloat_@4
  000a9	80 f2 ed	 xor	 dl, -19			; ffffffedH
  000ac	88 55 e4	 mov	 BYTE PTR __k$[ebp+8], dl
  000af	8a 50 09	 mov	 dl, BYTE PTR [eax+9]
  000b2	84 d2		 test	 dl, dl
  000b4	0f 84 dd 01 00
	00		 je	 $LN87@LoadFloat_@4
  000ba	32 d3		 xor	 dl, bl
  000bc	88 55 e5	 mov	 BYTE PTR __k$[ebp+9], dl
  000bf	8a 50 0a	 mov	 dl, BYTE PTR [eax+10]
  000c2	84 d2		 test	 dl, dl
  000c4	0f 84 c8 01 00
	00		 je	 $LN86@LoadFloat_@4
  000ca	32 d1		 xor	 dl, cl
  000cc	88 55 e6	 mov	 BYTE PTR __k$[ebp+10], dl
  000cf	8a 50 0b	 mov	 dl, BYTE PTR [eax+11]
  000d2	84 d2		 test	 dl, dl
  000d4	0f 84 b2 01 00
	00		 je	 $LN85@LoadFloat_@4
  000da	80 f2 ea	 xor	 dl, -22			; ffffffeaH
  000dd	88 55 e7	 mov	 BYTE PTR __k$[ebp+11], dl
  000e0	8a 50 0c	 mov	 dl, BYTE PTR [eax+12]
  000e3	84 d2		 test	 dl, dl
  000e5	0f 84 9b 01 00
	00		 je	 $LN84@LoadFloat_@4
  000eb	80 f2 ed	 xor	 dl, -19			; ffffffedH
  000ee	88 55 e8	 mov	 BYTE PTR __k$[ebp+12], dl
  000f1	8a 50 0d	 mov	 dl, BYTE PTR [eax+13]
  000f4	84 d2		 test	 dl, dl
  000f6	0f 84 85 01 00
	00		 je	 $LN83@LoadFloat_@4
  000fc	32 d3		 xor	 dl, bl
  000fe	88 55 e9	 mov	 BYTE PTR __k$[ebp+13], dl
  00101	8a 50 0e	 mov	 dl, BYTE PTR [eax+14]
  00104	84 d2		 test	 dl, dl
  00106	0f 84 70 01 00
	00		 je	 $LN82@LoadFloat_@4
  0010c	32 d1		 xor	 dl, cl
  0010e	88 55 ea	 mov	 BYTE PTR __k$[ebp+14], dl
  00111	8a 50 0f	 mov	 dl, BYTE PTR [eax+15]
  00114	84 d2		 test	 dl, dl
  00116	0f 84 5a 01 00
	00		 je	 $LN81@LoadFloat_@4
  0011c	80 f2 ea	 xor	 dl, -22			; ffffffeaH
  0011f	88 55 eb	 mov	 BYTE PTR __k$[ebp+15], dl
  00122	8a 50 10	 mov	 dl, BYTE PTR [eax+16]
  00125	84 d2		 test	 dl, dl
  00127	0f 84 43 01 00
	00		 je	 $LN80@LoadFloat_@4
  0012d	80 f2 ed	 xor	 dl, -19			; ffffffedH
  00130	88 55 ec	 mov	 BYTE PTR __k$[ebp+16], dl
  00133	8a 50 11	 mov	 dl, BYTE PTR [eax+17]
  00136	84 d2		 test	 dl, dl
  00138	0f 84 2d 01 00
	00		 je	 $LN79@LoadFloat_@4
  0013e	32 d3		 xor	 dl, bl
  00140	88 55 ed	 mov	 BYTE PTR __k$[ebp+17], dl
  00143	8a 50 12	 mov	 dl, BYTE PTR [eax+18]
  00146	84 d2		 test	 dl, dl
  00148	0f 84 18 01 00
	00		 je	 $LN78@LoadFloat_@4
  0014e	32 d1		 xor	 dl, cl
  00150	88 55 ee	 mov	 BYTE PTR __k$[ebp+18], dl
  00153	8a 50 13	 mov	 dl, BYTE PTR [eax+19]
  00156	84 d2		 test	 dl, dl
  00158	0f 84 02 01 00
	00		 je	 $LN77@LoadFloat_@4
  0015e	80 f2 ea	 xor	 dl, -22			; ffffffeaH
  00161	88 55 ef	 mov	 BYTE PTR __k$[ebp+19], dl
  00164	8a 50 14	 mov	 dl, BYTE PTR [eax+20]
  00167	84 d2		 test	 dl, dl
  00169	0f 84 eb 00 00
	00		 je	 $LN76@LoadFloat_@4
  0016f	80 f2 ed	 xor	 dl, -19			; ffffffedH
  00172	88 55 f0	 mov	 BYTE PTR __k$[ebp+20], dl
  00175	8a 50 15	 mov	 dl, BYTE PTR [eax+21]
  00178	84 d2		 test	 dl, dl
  0017a	0f 84 d5 00 00
	00		 je	 $LN75@LoadFloat_@4
  00180	32 d3		 xor	 dl, bl
  00182	88 55 f1	 mov	 BYTE PTR __k$[ebp+21], dl
  00185	8a 50 16	 mov	 dl, BYTE PTR [eax+22]
  00188	84 d2		 test	 dl, dl
  0018a	0f 84 c0 00 00
	00		 je	 $LN74@LoadFloat_@4
  00190	32 d1		 xor	 dl, cl
  00192	88 55 f2	 mov	 BYTE PTR __k$[ebp+22], dl
  00195	8a 50 17	 mov	 dl, BYTE PTR [eax+23]
  00198	84 d2		 test	 dl, dl
  0019a	0f 84 aa 00 00
	00		 je	 $LN73@LoadFloat_@4
  001a0	80 f2 ea	 xor	 dl, -22			; ffffffeaH
  001a3	88 55 f3	 mov	 BYTE PTR __k$[ebp+23], dl
  001a6	8a 50 18	 mov	 dl, BYTE PTR [eax+24]
  001a9	84 d2		 test	 dl, dl
  001ab	0f 84 90 00 00
	00		 je	 $LN72@LoadFloat_@4
  001b1	80 f2 ed	 xor	 dl, -19			; ffffffedH
  001b4	88 55 f4	 mov	 BYTE PTR __k$[ebp+24], dl
  001b7	8a 50 19	 mov	 dl, BYTE PTR [eax+25]
  001ba	84 d2		 test	 dl, dl
  001bc	74 7b		 je	 SHORT $LN71@LoadFloat_@4
  001be	32 d3		 xor	 dl, bl
  001c0	88 55 f5	 mov	 BYTE PTR __k$[ebp+25], dl
  001c3	8a 50 1a	 mov	 dl, BYTE PTR [eax+26]
  001c6	84 d2		 test	 dl, dl
  001c8	74 67		 je	 SHORT $LN70@LoadFloat_@4
  001ca	32 d1		 xor	 dl, cl
  001cc	80 78 1b 00	 cmp	 BYTE PTR [eax+27], 0
  001d0	88 55 f6	 mov	 BYTE PTR __k$[ebp+26], dl
  001d3	0f 84 f5 00 00
	00		 je	 $LN1@LoadFloat_@4
  001d9	8a 50 1c	 mov	 dl, BYTE PTR [eax+28]
  001dc	84 d2		 test	 dl, dl
  001de	74 48		 je	 SHORT $LN68@LoadFloat_@4
  001e0	80 f2 ed	 xor	 dl, -19			; ffffffedH
  001e3	88 55 f8	 mov	 BYTE PTR __k$[ebp+28], dl
  001e6	8a 50 1d	 mov	 dl, BYTE PTR [eax+29]
  001e9	84 d2		 test	 dl, dl
  001eb	74 33		 je	 SHORT $LN67@LoadFloat_@4
  001ed	32 d3		 xor	 dl, bl
  001ef	88 55 f9	 mov	 BYTE PTR __k$[ebp+29], dl
  001f2	8a 50 1e	 mov	 dl, BYTE PTR [eax+30]
  001f5	84 d2		 test	 dl, dl
  001f7	74 1f		 je	 SHORT $LN66@LoadFloat_@4
  001f9	8a 40 1f	 mov	 al, BYTE PTR [eax+31]
  001fc	32 d1		 xor	 dl, cl
  001fe	88 55 fa	 mov	 BYTE PTR __k$[ebp+30], dl
  00201	84 c0		 test	 al, al
  00203	74 0a		 je	 SHORT $LN65@LoadFloat_@4
  00205	34 ea		 xor	 al, -22			; ffffffeaH
  00207	88 45 fb	 mov	 BYTE PTR __k$[ebp+31], al
  0020a	e9 bf 00 00 00	 jmp	 $LN1@LoadFloat_@4
$LN65@LoadFloat_@4:
  0020f	c6 45 fb ea	 mov	 BYTE PTR __k$[ebp+31], -22 ; ffffffeaH
  00213	e9 b6 00 00 00	 jmp	 $LN1@LoadFloat_@4
$LN66@LoadFloat_@4:
  00218	88 4d fa	 mov	 BYTE PTR __k$[ebp+30], cl
  0021b	e9 ae 00 00 00	 jmp	 $LN1@LoadFloat_@4
$LN67@LoadFloat_@4:
  00220	88 5d f9	 mov	 BYTE PTR __k$[ebp+29], bl
  00223	e9 a6 00 00 00	 jmp	 $LN1@LoadFloat_@4
$LN68@LoadFloat_@4:
  00228	c6 45 f8 ed	 mov	 BYTE PTR __k$[ebp+28], -19 ; ffffffedH
  0022c	e9 9d 00 00 00	 jmp	 $LN1@LoadFloat_@4
$LN70@LoadFloat_@4:
  00231	88 4d f6	 mov	 BYTE PTR __k$[ebp+26], cl
  00234	e9 95 00 00 00	 jmp	 $LN1@LoadFloat_@4
$LN71@LoadFloat_@4:
  00239	88 5d f5	 mov	 BYTE PTR __k$[ebp+25], bl
  0023c	e9 8d 00 00 00	 jmp	 $LN1@LoadFloat_@4
$LN72@LoadFloat_@4:
  00241	c6 45 f4 ed	 mov	 BYTE PTR __k$[ebp+24], -19 ; ffffffedH
  00245	e9 84 00 00 00	 jmp	 $LN1@LoadFloat_@4
$LN73@LoadFloat_@4:
  0024a	c6 45 f3 ea	 mov	 BYTE PTR __k$[ebp+23], -22 ; ffffffeaH
  0024e	eb 7e		 jmp	 SHORT $LN1@LoadFloat_@4
$LN74@LoadFloat_@4:
  00250	88 4d f2	 mov	 BYTE PTR __k$[ebp+22], cl
  00253	eb 79		 jmp	 SHORT $LN1@LoadFloat_@4
$LN75@LoadFloat_@4:
  00255	88 5d f1	 mov	 BYTE PTR __k$[ebp+21], bl
  00258	eb 74		 jmp	 SHORT $LN1@LoadFloat_@4
$LN76@LoadFloat_@4:
  0025a	c6 45 f0 ed	 mov	 BYTE PTR __k$[ebp+20], -19 ; ffffffedH
  0025e	eb 6e		 jmp	 SHORT $LN1@LoadFloat_@4
$LN77@LoadFloat_@4:
  00260	c6 45 ef ea	 mov	 BYTE PTR __k$[ebp+19], -22 ; ffffffeaH
  00264	eb 68		 jmp	 SHORT $LN1@LoadFloat_@4
$LN78@LoadFloat_@4:
  00266	88 4d ee	 mov	 BYTE PTR __k$[ebp+18], cl
  00269	eb 63		 jmp	 SHORT $LN1@LoadFloat_@4
$LN79@LoadFloat_@4:
  0026b	88 5d ed	 mov	 BYTE PTR __k$[ebp+17], bl
  0026e	eb 5e		 jmp	 SHORT $LN1@LoadFloat_@4
$LN80@LoadFloat_@4:
  00270	c6 45 ec ed	 mov	 BYTE PTR __k$[ebp+16], -19 ; ffffffedH
  00274	eb 58		 jmp	 SHORT $LN1@LoadFloat_@4
$LN81@LoadFloat_@4:
  00276	c6 45 eb ea	 mov	 BYTE PTR __k$[ebp+15], -22 ; ffffffeaH
  0027a	eb 52		 jmp	 SHORT $LN1@LoadFloat_@4
$LN82@LoadFloat_@4:
  0027c	88 4d ea	 mov	 BYTE PTR __k$[ebp+14], cl
  0027f	eb 4d		 jmp	 SHORT $LN1@LoadFloat_@4
$LN83@LoadFloat_@4:
  00281	88 5d e9	 mov	 BYTE PTR __k$[ebp+13], bl
  00284	eb 48		 jmp	 SHORT $LN1@LoadFloat_@4
$LN84@LoadFloat_@4:
  00286	c6 45 e8 ed	 mov	 BYTE PTR __k$[ebp+12], -19 ; ffffffedH
  0028a	eb 42		 jmp	 SHORT $LN1@LoadFloat_@4
$LN85@LoadFloat_@4:
  0028c	c6 45 e7 ea	 mov	 BYTE PTR __k$[ebp+11], -22 ; ffffffeaH
  00290	eb 3c		 jmp	 SHORT $LN1@LoadFloat_@4
$LN86@LoadFloat_@4:
  00292	88 4d e6	 mov	 BYTE PTR __k$[ebp+10], cl
  00295	eb 37		 jmp	 SHORT $LN1@LoadFloat_@4
$LN87@LoadFloat_@4:
  00297	88 5d e5	 mov	 BYTE PTR __k$[ebp+9], bl
  0029a	eb 32		 jmp	 SHORT $LN1@LoadFloat_@4
$LN88@LoadFloat_@4:
  0029c	c6 45 e4 ed	 mov	 BYTE PTR __k$[ebp+8], -19 ; ffffffedH
  002a0	eb 2c		 jmp	 SHORT $LN1@LoadFloat_@4
$LN89@LoadFloat_@4:
  002a2	c6 45 e3 ea	 mov	 BYTE PTR __k$[ebp+7], -22 ; ffffffeaH
  002a6	eb 26		 jmp	 SHORT $LN1@LoadFloat_@4
$LN90@LoadFloat_@4:
  002a8	88 4d e2	 mov	 BYTE PTR __k$[ebp+6], cl
  002ab	eb 21		 jmp	 SHORT $LN1@LoadFloat_@4
$LN91@LoadFloat_@4:
  002ad	88 5d e1	 mov	 BYTE PTR __k$[ebp+5], bl
  002b0	eb 1c		 jmp	 SHORT $LN1@LoadFloat_@4
$LN92@LoadFloat_@4:
  002b2	c6 45 e0 ed	 mov	 BYTE PTR __k$[ebp+4], -19 ; ffffffedH
  002b6	eb 16		 jmp	 SHORT $LN1@LoadFloat_@4
$LN93@LoadFloat_@4:
  002b8	c6 45 df ea	 mov	 BYTE PTR __k$[ebp+3], -22 ; ffffffeaH
  002bc	eb 10		 jmp	 SHORT $LN1@LoadFloat_@4
$LN94@LoadFloat_@4:
  002be	c6 45 de eb	 mov	 BYTE PTR __k$[ebp+2], -21 ; ffffffebH
  002c2	eb 0a		 jmp	 SHORT $LN1@LoadFloat_@4
$LN95@LoadFloat_@4:
  002c4	c6 45 dd ec	 mov	 BYTE PTR __k$[ebp+1], -20 ; ffffffecH
  002c8	eb 04		 jmp	 SHORT $LN1@LoadFloat_@4
$LN96@LoadFloat_@4:
  002ca	c6 45 dc ed	 mov	 BYTE PTR __k$[ebp], -19	; ffffffedH
$LN1@LoadFloat_@4:
  002ce	6a 06		 push	 6
  002d0	8d 45 dc	 lea	 eax, DWORD PTR __k$[ebp]
  002d3	c6 45 f7 00	 mov	 BYTE PTR __k$[ebp+27], 0
  002d7	5a		 pop	 edx
$LL104@LoadFloat_@4:
  002d8	81 30 ed ec eb
	ea		 xor	 DWORD PTR [eax], -353637139 ; eaebecedH
  002de	83 c0 04	 add	 eax, 4
  002e1	4a		 dec	 edx
  002e2	75 f4		 jne	 SHORT $LL104@LoadFloat_@4
  002e4	6a 18		 push	 24			; 00000018H
  002e6	58		 pop	 eax
$LL101@LoadFloat_@4:
  002e7	8b c8		 mov	 ecx, eax
  002e9	81 e1 03 00 00
	80		 and	 ecx, -2147483645	; 80000003H
  002ef	79 05		 jns	 SHORT $LN111@LoadFloat_@4
  002f1	49		 dec	 ecx
  002f2	83 c9 fc	 or	 ecx, -4			; fffffffcH
  002f5	41		 inc	 ecx
$LN111@LoadFloat_@4:
  002f6	b2 ed		 mov	 dl, -19			; ffffffedH
  002f8	2a d1		 sub	 dl, cl
  002fa	30 54 05 dc	 xor	 BYTE PTR __k$[ebp+eax], dl
  002fe	40		 inc	 eax
  002ff	83 f8 1b	 cmp	 eax, 27			; 0000001bH
  00302	7c e3		 jl	 SHORT $LL101@LoadFloat_@4

; 137  : 		return LoadFloat(_k, f);

  00304	f3 0f 10 45 0c	 movss	 xmm0, DWORD PTR _f$[ebp]
  00309	51		 push	 ecx
  0030a	8d 45 dc	 lea	 eax, DWORD PTR __k$[ebp]
  0030d	f3 0f 11 04 24	 movss	 DWORD PTR [esp], xmm0
  00312	50		 push	 eax
  00313	8b ce		 mov	 ecx, esi
  00315	ff 15 00 00 00
	00		 call	 DWORD PTR __imp_?LoadFloat@ioINILoader@@QAEMPBDM@Z

; 138  : 	}

  0031b	8b 4d fc	 mov	 ecx, DWORD PTR __$ArrayPad$[ebp]
  0031e	5e		 pop	 esi
  0031f	33 cd		 xor	 ecx, ebp
  00321	5b		 pop	 ebx
  00322	e8 00 00 00 00	 call	 @__security_check_cookie@4
  00327	c9		 leave
  00328	c2 08 00	 ret	 8
??$LoadFloat_e@$0BM@@ioINILoader@@QAEMAAY0BM@$$CBDM@Z ENDP ; ioINILoader::LoadFloat_e<28>
_TEXT	ENDS
PUBLIC	_this$GSCopy$
PUBLIC	__$ArrayPad$
PUBLIC	??$LoadString_e@$0BN@@ioINILoader@@QAEXAAY0BN@$$CBDAAY00$$CBDPADH@Z ; ioINILoader::LoadString_e<29>
; Function compile flags: /Ogsp
;	COMDAT ??$LoadString_e@$0BN@@ioINILoader@@QAEXAAY0BN@$$CBDAAY00$$CBDPADH@Z
_TEXT	SEGMENT
_this$GSCopy$ = -44					; size = 4
__k$ = -40						; size = 29
__$ArrayPad$ = -4					; size = 4
_k$ = 8							; size = 4
_d$ = 12						; size = 4
_b$ = 16						; size = 4
_i$ = 20						; size = 4
??$LoadString_e@$0BN@@ioINILoader@@QAEXAAY0BN@$$CBDAAY00$$CBDPADH@Z PROC ; ioINILoader::LoadString_e<29>, COMDAT
; _this$ = ecx

; 161  : 	{

  00000	55		 push	 ebp
  00001	8b ec		 mov	 ebp, esp
  00003	83 ec 2c	 sub	 esp, 44			; 0000002cH
  00006	a1 00 00 00 00	 mov	 eax, DWORD PTR ___security_cookie
  0000b	33 c5		 xor	 eax, ebp
  0000d	89 45 fc	 mov	 DWORD PTR __$ArrayPad$[ebp], eax
  00010	8b 45 08	 mov	 eax, DWORD PTR _k$[ebp]

; 162  : 		_ENCSTR(k, _k);

  00013	8a 10		 mov	 dl, BYTE PTR [eax]
  00015	53		 push	 ebx
  00016	56		 push	 esi
  00017	8b 75 0c	 mov	 esi, DWORD PTR _d$[ebp]
  0001a	57		 push	 edi
  0001b	8b 7d 10	 mov	 edi, DWORD PTR _b$[ebp]
  0001e	89 4d d4	 mov	 DWORD PTR _this$GSCopy$[ebp], ecx
  00021	84 d2		 test	 dl, dl
  00023	0f 84 c3 02 00
	00		 je	 $LN96@LoadString@2
  00029	80 f2 ed	 xor	 dl, -19			; ffffffedH
  0002c	88 55 d8	 mov	 BYTE PTR __k$[ebp], dl
  0002f	8a 50 01	 mov	 dl, BYTE PTR [eax+1]
  00032	84 d2		 test	 dl, dl
  00034	0f 84 ac 02 00
	00		 je	 $LN95@LoadString@2
  0003a	b1 ec		 mov	 cl, -20			; ffffffecH
  0003c	32 d1		 xor	 dl, cl
  0003e	88 55 d9	 mov	 BYTE PTR __k$[ebp+1], dl
  00041	8a 50 02	 mov	 dl, BYTE PTR [eax+2]
  00044	84 d2		 test	 dl, dl
  00046	0f 84 94 02 00
	00		 je	 $LN94@LoadString@2
  0004c	b3 eb		 mov	 bl, -21			; ffffffebH
  0004e	32 d3		 xor	 dl, bl
  00050	88 55 da	 mov	 BYTE PTR __k$[ebp+2], dl
  00053	8a 50 03	 mov	 dl, BYTE PTR [eax+3]
  00056	84 d2		 test	 dl, dl
  00058	0f 84 7c 02 00
	00		 je	 $LN93@LoadString@2
  0005e	80 f2 ea	 xor	 dl, -22			; ffffffeaH
  00061	88 55 db	 mov	 BYTE PTR __k$[ebp+3], dl
  00064	8a 50 04	 mov	 dl, BYTE PTR [eax+4]
  00067	84 d2		 test	 dl, dl
  00069	0f 84 65 02 00
	00		 je	 $LN92@LoadString@2
  0006f	80 f2 ed	 xor	 dl, -19			; ffffffedH
  00072	88 55 dc	 mov	 BYTE PTR __k$[ebp+4], dl
  00075	8a 50 05	 mov	 dl, BYTE PTR [eax+5]
  00078	84 d2		 test	 dl, dl
  0007a	0f 84 4f 02 00
	00		 je	 $LN91@LoadString@2
  00080	32 d1		 xor	 dl, cl
  00082	88 55 dd	 mov	 BYTE PTR __k$[ebp+5], dl
  00085	8a 50 06	 mov	 dl, BYTE PTR [eax+6]
  00088	84 d2		 test	 dl, dl
  0008a	0f 84 3a 02 00
	00		 je	 $LN90@LoadString@2
  00090	32 d3		 xor	 dl, bl
  00092	88 55 de	 mov	 BYTE PTR __k$[ebp+6], dl
  00095	8a 50 07	 mov	 dl, BYTE PTR [eax+7]
  00098	84 d2		 test	 dl, dl
  0009a	0f 84 24 02 00
	00		 je	 $LN89@LoadString@2
  000a0	80 f2 ea	 xor	 dl, -22			; ffffffeaH
  000a3	88 55 df	 mov	 BYTE PTR __k$[ebp+7], dl
  000a6	8a 50 08	 mov	 dl, BYTE PTR [eax+8]
  000a9	84 d2		 test	 dl, dl
  000ab	0f 84 0d 02 00
	00		 je	 $LN88@LoadString@2
  000b1	80 f2 ed	 xor	 dl, -19			; ffffffedH
  000b4	88 55 e0	 mov	 BYTE PTR __k$[ebp+8], dl
  000b7	8a 50 09	 mov	 dl, BYTE PTR [eax+9]
  000ba	84 d2		 test	 dl, dl
  000bc	0f 84 f7 01 00
	00		 je	 $LN87@LoadString@2
  000c2	32 d1		 xor	 dl, cl
  000c4	88 55 e1	 mov	 BYTE PTR __k$[ebp+9], dl
  000c7	8a 50 0a	 mov	 dl, BYTE PTR [eax+10]
  000ca	84 d2		 test	 dl, dl
  000cc	0f 84 e2 01 00
	00		 je	 $LN86@LoadString@2
  000d2	32 d3		 xor	 dl, bl
  000d4	88 55 e2	 mov	 BYTE PTR __k$[ebp+10], dl
  000d7	8a 50 0b	 mov	 dl, BYTE PTR [eax+11]
  000da	84 d2		 test	 dl, dl
  000dc	0f 84 cc 01 00
	00		 je	 $LN85@LoadString@2
  000e2	80 f2 ea	 xor	 dl, -22			; ffffffeaH
  000e5	88 55 e3	 mov	 BYTE PTR __k$[ebp+11], dl
  000e8	8a 50 0c	 mov	 dl, BYTE PTR [eax+12]
  000eb	84 d2		 test	 dl, dl
  000ed	0f 84 b5 01 00
	00		 je	 $LN84@LoadString@2
  000f3	80 f2 ed	 xor	 dl, -19			; ffffffedH
  000f6	88 55 e4	 mov	 BYTE PTR __k$[ebp+12], dl
  000f9	8a 50 0d	 mov	 dl, BYTE PTR [eax+13]
  000fc	84 d2		 test	 dl, dl
  000fe	0f 84 9f 01 00
	00		 je	 $LN83@LoadString@2
  00104	32 d1		 xor	 dl, cl
  00106	88 55 e5	 mov	 BYTE PTR __k$[ebp+13], dl
  00109	8a 50 0e	 mov	 dl, BYTE PTR [eax+14]
  0010c	84 d2		 test	 dl, dl
  0010e	0f 84 8a 01 00
	00		 je	 $LN82@LoadString@2
  00114	32 d3		 xor	 dl, bl
  00116	88 55 e6	 mov	 BYTE PTR __k$[ebp+14], dl
  00119	8a 50 0f	 mov	 dl, BYTE PTR [eax+15]
  0011c	84 d2		 test	 dl, dl
  0011e	0f 84 74 01 00
	00		 je	 $LN81@LoadString@2
  00124	80 f2 ea	 xor	 dl, -22			; ffffffeaH
  00127	88 55 e7	 mov	 BYTE PTR __k$[ebp+15], dl
  0012a	8a 50 10	 mov	 dl, BYTE PTR [eax+16]
  0012d	84 d2		 test	 dl, dl
  0012f	0f 84 5d 01 00
	00		 je	 $LN80@LoadString@2
  00135	80 f2 ed	 xor	 dl, -19			; ffffffedH
  00138	88 55 e8	 mov	 BYTE PTR __k$[ebp+16], dl
  0013b	8a 50 11	 mov	 dl, BYTE PTR [eax+17]
  0013e	84 d2		 test	 dl, dl
  00140	0f 84 47 01 00
	00		 je	 $LN79@LoadString@2
  00146	32 d1		 xor	 dl, cl
  00148	88 55 e9	 mov	 BYTE PTR __k$[ebp+17], dl
  0014b	8a 50 12	 mov	 dl, BYTE PTR [eax+18]
  0014e	84 d2		 test	 dl, dl
  00150	0f 84 32 01 00
	00		 je	 $LN78@LoadString@2
  00156	32 d3		 xor	 dl, bl
  00158	88 55 ea	 mov	 BYTE PTR __k$[ebp+18], dl
  0015b	8a 50 13	 mov	 dl, BYTE PTR [eax+19]
  0015e	84 d2		 test	 dl, dl
  00160	0f 84 1c 01 00
	00		 je	 $LN77@LoadString@2
  00166	80 f2 ea	 xor	 dl, -22			; ffffffeaH
  00169	88 55 eb	 mov	 BYTE PTR __k$[ebp+19], dl
  0016c	8a 50 14	 mov	 dl, BYTE PTR [eax+20]
  0016f	84 d2		 test	 dl, dl
  00171	0f 84 05 01 00
	00		 je	 $LN76@LoadString@2
  00177	80 f2 ed	 xor	 dl, -19			; ffffffedH
  0017a	88 55 ec	 mov	 BYTE PTR __k$[ebp+20], dl
  0017d	8a 50 15	 mov	 dl, BYTE PTR [eax+21]
  00180	84 d2		 test	 dl, dl
  00182	0f 84 ef 00 00
	00		 je	 $LN75@LoadString@2
  00188	32 d1		 xor	 dl, cl
  0018a	88 55 ed	 mov	 BYTE PTR __k$[ebp+21], dl
  0018d	8a 50 16	 mov	 dl, BYTE PTR [eax+22]
  00190	84 d2		 test	 dl, dl
  00192	0f 84 da 00 00
	00		 je	 $LN74@LoadString@2
  00198	32 d3		 xor	 dl, bl
  0019a	88 55 ee	 mov	 BYTE PTR __k$[ebp+22], dl
  0019d	8a 50 17	 mov	 dl, BYTE PTR [eax+23]
  001a0	84 d2		 test	 dl, dl
  001a2	0f 84 c4 00 00
	00		 je	 $LN73@LoadString@2
  001a8	80 f2 ea	 xor	 dl, -22			; ffffffeaH
  001ab	88 55 ef	 mov	 BYTE PTR __k$[ebp+23], dl
  001ae	8a 50 18	 mov	 dl, BYTE PTR [eax+24]
  001b1	84 d2		 test	 dl, dl
  001b3	0f 84 aa 00 00
	00		 je	 $LN72@LoadString@2
  001b9	80 f2 ed	 xor	 dl, -19			; ffffffedH
  001bc	88 55 f0	 mov	 BYTE PTR __k$[ebp+24], dl
  001bf	8a 50 19	 mov	 dl, BYTE PTR [eax+25]
  001c2	84 d2		 test	 dl, dl
  001c4	0f 84 91 00 00
	00		 je	 $LN71@LoadString@2
  001ca	32 d1		 xor	 dl, cl
  001cc	88 55 f1	 mov	 BYTE PTR __k$[ebp+25], dl
  001cf	8a 50 1a	 mov	 dl, BYTE PTR [eax+26]
  001d2	84 d2		 test	 dl, dl
  001d4	74 7d		 je	 SHORT $LN70@LoadString@2
  001d6	32 d3		 xor	 dl, bl
  001d8	88 55 f2	 mov	 BYTE PTR __k$[ebp+26], dl
  001db	8a 50 1b	 mov	 dl, BYTE PTR [eax+27]
  001de	84 d2		 test	 dl, dl
  001e0	74 68		 je	 SHORT $LN69@LoadString@2
  001e2	80 f2 ea	 xor	 dl, -22			; ffffffeaH
  001e5	80 78 1c 00	 cmp	 BYTE PTR [eax+28], 0
  001e9	88 55 f3	 mov	 BYTE PTR __k$[ebp+27], dl
  001ec	0f 84 fe 00 00
	00		 je	 $LN111@LoadString@2
  001f2	8a 50 1d	 mov	 dl, BYTE PTR [eax+29]
  001f5	84 d2		 test	 dl, dl
  001f7	74 49		 je	 SHORT $LN67@LoadString@2
  001f9	32 d1		 xor	 dl, cl
  001fb	88 55 f5	 mov	 BYTE PTR __k$[ebp+29], dl
  001fe	8a 50 1e	 mov	 dl, BYTE PTR [eax+30]
  00201	84 d2		 test	 dl, dl
  00203	74 35		 je	 SHORT $LN66@LoadString@2
  00205	32 d3		 xor	 dl, bl
  00207	88 55 f6	 mov	 BYTE PTR __k$[ebp+30], dl
  0020a	8a 50 1f	 mov	 dl, BYTE PTR [eax+31]
  0020d	84 d2		 test	 dl, dl
  0020f	74 20		 je	 SHORT $LN65@LoadString@2
  00211	8a 40 20	 mov	 al, BYTE PTR [eax+32]
  00214	80 f2 ea	 xor	 dl, -22			; ffffffeaH
  00217	88 55 f7	 mov	 BYTE PTR __k$[ebp+31], dl
  0021a	84 c0		 test	 al, al
  0021c	74 0a		 je	 SHORT $LN64@LoadString@2
  0021e	34 ed		 xor	 al, -19			; ffffffedH
  00220	88 45 f8	 mov	 BYTE PTR __k$[ebp+32], al
  00223	e9 c8 00 00 00	 jmp	 $LN111@LoadString@2
$LN64@LoadString@2:
  00228	c6 45 f8 ed	 mov	 BYTE PTR __k$[ebp+32], -19 ; ffffffedH
  0022c	e9 bf 00 00 00	 jmp	 $LN111@LoadString@2
$LN65@LoadString@2:
  00231	c6 45 f7 ea	 mov	 BYTE PTR __k$[ebp+31], -22 ; ffffffeaH
  00235	e9 b6 00 00 00	 jmp	 $LN111@LoadString@2
$LN66@LoadString@2:
  0023a	88 5d f6	 mov	 BYTE PTR __k$[ebp+30], bl
  0023d	e9 ae 00 00 00	 jmp	 $LN111@LoadString@2
$LN67@LoadString@2:
  00242	88 4d f5	 mov	 BYTE PTR __k$[ebp+29], cl
  00245	e9 a6 00 00 00	 jmp	 $LN111@LoadString@2
$LN69@LoadString@2:
  0024a	c6 45 f3 ea	 mov	 BYTE PTR __k$[ebp+27], -22 ; ffffffeaH
  0024e	e9 9d 00 00 00	 jmp	 $LN111@LoadString@2
$LN70@LoadString@2:
  00253	88 5d f2	 mov	 BYTE PTR __k$[ebp+26], bl
  00256	e9 95 00 00 00	 jmp	 $LN111@LoadString@2
$LN71@LoadString@2:
  0025b	88 4d f1	 mov	 BYTE PTR __k$[ebp+25], cl
  0025e	e9 8d 00 00 00	 jmp	 $LN111@LoadString@2
$LN72@LoadString@2:
  00263	c6 45 f0 ed	 mov	 BYTE PTR __k$[ebp+24], -19 ; ffffffedH
  00267	e9 84 00 00 00	 jmp	 $LN111@LoadString@2
$LN73@LoadString@2:
  0026c	c6 45 ef ea	 mov	 BYTE PTR __k$[ebp+23], -22 ; ffffffeaH
  00270	eb 7e		 jmp	 SHORT $LN111@LoadString@2
$LN74@LoadString@2:
  00272	88 5d ee	 mov	 BYTE PTR __k$[ebp+22], bl
  00275	eb 79		 jmp	 SHORT $LN111@LoadString@2
$LN75@LoadString@2:
  00277	88 4d ed	 mov	 BYTE PTR __k$[ebp+21], cl
  0027a	eb 74		 jmp	 SHORT $LN111@LoadString@2
$LN76@LoadString@2:
  0027c	c6 45 ec ed	 mov	 BYTE PTR __k$[ebp+20], -19 ; ffffffedH
  00280	eb 6e		 jmp	 SHORT $LN111@LoadString@2
$LN77@LoadString@2:
  00282	c6 45 eb ea	 mov	 BYTE PTR __k$[ebp+19], -22 ; ffffffeaH
  00286	eb 68		 jmp	 SHORT $LN111@LoadString@2
$LN78@LoadString@2:
  00288	88 5d ea	 mov	 BYTE PTR __k$[ebp+18], bl
  0028b	eb 63		 jmp	 SHORT $LN111@LoadString@2
$LN79@LoadString@2:
  0028d	88 4d e9	 mov	 BYTE PTR __k$[ebp+17], cl
  00290	eb 5e		 jmp	 SHORT $LN111@LoadString@2
$LN80@LoadString@2:
  00292	c6 45 e8 ed	 mov	 BYTE PTR __k$[ebp+16], -19 ; ffffffedH
  00296	eb 58		 jmp	 SHORT $LN111@LoadString@2
$LN81@LoadString@2:
  00298	c6 45 e7 ea	 mov	 BYTE PTR __k$[ebp+15], -22 ; ffffffeaH
  0029c	eb 52		 jmp	 SHORT $LN111@LoadString@2
$LN82@LoadString@2:
  0029e	88 5d e6	 mov	 BYTE PTR __k$[ebp+14], bl
  002a1	eb 4d		 jmp	 SHORT $LN111@LoadString@2
$LN83@LoadString@2:
  002a3	88 4d e5	 mov	 BYTE PTR __k$[ebp+13], cl
  002a6	eb 48		 jmp	 SHORT $LN111@LoadString@2
$LN84@LoadString@2:
  002a8	c6 45 e4 ed	 mov	 BYTE PTR __k$[ebp+12], -19 ; ffffffedH
  002ac	eb 42		 jmp	 SHORT $LN111@LoadString@2
$LN85@LoadString@2:
  002ae	c6 45 e3 ea	 mov	 BYTE PTR __k$[ebp+11], -22 ; ffffffeaH
  002b2	eb 3c		 jmp	 SHORT $LN111@LoadString@2
$LN86@LoadString@2:
  002b4	88 5d e2	 mov	 BYTE PTR __k$[ebp+10], bl
  002b7	eb 37		 jmp	 SHORT $LN111@LoadString@2
$LN87@LoadString@2:
  002b9	88 4d e1	 mov	 BYTE PTR __k$[ebp+9], cl
  002bc	eb 32		 jmp	 SHORT $LN111@LoadString@2
$LN88@LoadString@2:
  002be	c6 45 e0 ed	 mov	 BYTE PTR __k$[ebp+8], -19 ; ffffffedH
  002c2	eb 2c		 jmp	 SHORT $LN111@LoadString@2
$LN89@LoadString@2:
  002c4	c6 45 df ea	 mov	 BYTE PTR __k$[ebp+7], -22 ; ffffffeaH
  002c8	eb 26		 jmp	 SHORT $LN111@LoadString@2
$LN90@LoadString@2:
  002ca	88 5d de	 mov	 BYTE PTR __k$[ebp+6], bl
  002cd	eb 21		 jmp	 SHORT $LN111@LoadString@2
$LN91@LoadString@2:
  002cf	88 4d dd	 mov	 BYTE PTR __k$[ebp+5], cl
  002d2	eb 1c		 jmp	 SHORT $LN111@LoadString@2
$LN92@LoadString@2:
  002d4	c6 45 dc ed	 mov	 BYTE PTR __k$[ebp+4], -19 ; ffffffedH
  002d8	eb 16		 jmp	 SHORT $LN111@LoadString@2
$LN93@LoadString@2:
  002da	c6 45 db ea	 mov	 BYTE PTR __k$[ebp+3], -22 ; ffffffeaH
  002de	eb 10		 jmp	 SHORT $LN111@LoadString@2
$LN94@LoadString@2:
  002e0	c6 45 da eb	 mov	 BYTE PTR __k$[ebp+2], -21 ; ffffffebH
  002e4	eb 0a		 jmp	 SHORT $LN111@LoadString@2
$LN95@LoadString@2:
  002e6	c6 45 d9 ec	 mov	 BYTE PTR __k$[ebp+1], -20 ; ffffffecH
  002ea	eb 04		 jmp	 SHORT $LN111@LoadString@2
$LN96@LoadString@2:
  002ec	c6 45 d8 ed	 mov	 BYTE PTR __k$[ebp], -19	; ffffffedH
$LN111@LoadString@2:
  002f0	6a 07		 push	 7
  002f2	8d 45 d8	 lea	 eax, DWORD PTR __k$[ebp]
  002f5	c6 45 f4 00	 mov	 BYTE PTR __k$[ebp+28], 0
  002f9	5a		 pop	 edx
$LL104@LoadString@2:
  002fa	81 30 ed ec eb
	ea		 xor	 DWORD PTR [eax], -353637139 ; eaebecedH
  00300	83 c0 04	 add	 eax, 4
  00303	4a		 dec	 edx
  00304	75 f4		 jne	 SHORT $LL104@LoadString@2

; 163  : 		LoadString(_k, d, b, i);

  00306	ff 75 14	 push	 DWORD PTR _i$[ebp]
  00309	8b 4d d4	 mov	 ecx, DWORD PTR _this$GSCopy$[ebp]
  0030c	57		 push	 edi
  0030d	56		 push	 esi
  0030e	8d 45 d8	 lea	 eax, DWORD PTR __k$[ebp]
  00311	50		 push	 eax
  00312	ff 15 00 00 00
	00		 call	 DWORD PTR __imp_?LoadStringA@ioINILoader@@QAEXPBD0PADH@Z

; 164  : 	}

  00318	8b 4d fc	 mov	 ecx, DWORD PTR __$ArrayPad$[ebp]
  0031b	5f		 pop	 edi
  0031c	5e		 pop	 esi
  0031d	33 cd		 xor	 ecx, ebp
  0031f	5b		 pop	 ebx
  00320	e8 00 00 00 00	 call	 @__security_check_cookie@4
  00325	c9		 leave
  00326	c2 10 00	 ret	 16			; 00000010H
??$LoadString_e@$0BN@@ioINILoader@@QAEXAAY0BN@$$CBDAAY00$$CBDPADH@Z ENDP ; ioINILoader::LoadString_e<29>
_TEXT	ENDS
PUBLIC	__$ArrayPad$
PUBLIC	??$LoadFloat_e@$0CC@@ioINILoader@@QAEMAAY0CC@$$CBDM@Z ; ioINILoader::LoadFloat_e<34>
; Function compile flags: /Ogsp
;	COMDAT ??$LoadFloat_e@$0CC@@ioINILoader@@QAEMAAY0CC@$$CBDM@Z
_TEXT	SEGMENT
__k$ = -44						; size = 34
__$ArrayPad$ = -4					; size = 4
_k$ = 8							; size = 4
_f$ = 12						; size = 4
??$LoadFloat_e@$0CC@@ioINILoader@@QAEMAAY0CC@$$CBDM@Z PROC ; ioINILoader::LoadFloat_e<34>, COMDAT
; _this$ = ecx

; 135  : 	{

  00000	55		 push	 ebp
  00001	8b ec		 mov	 ebp, esp
  00003	83 ec 2c	 sub	 esp, 44			; 0000002cH
  00006	a1 00 00 00 00	 mov	 eax, DWORD PTR ___security_cookie
  0000b	33 c5		 xor	 eax, ebp
  0000d	89 45 fc	 mov	 DWORD PTR __$ArrayPad$[ebp], eax
  00010	8b 45 08	 mov	 eax, DWORD PTR _k$[ebp]

; 136  : 		_ENCSTR(k, _k);

  00013	8a 10		 mov	 dl, BYTE PTR [eax]
  00015	53		 push	 ebx
  00016	56		 push	 esi
  00017	8b f1		 mov	 esi, ecx
  00019	84 d2		 test	 dl, dl
  0001b	0f 84 41 03 00
	00		 je	 $LN96@LoadFloat_@5
  00021	80 f2 ed	 xor	 dl, -19			; ffffffedH
  00024	88 55 d4	 mov	 BYTE PTR __k$[ebp], dl
  00027	8a 50 01	 mov	 dl, BYTE PTR [eax+1]
  0002a	84 d2		 test	 dl, dl
  0002c	0f 84 2a 03 00
	00		 je	 $LN95@LoadFloat_@5
  00032	80 f2 ec	 xor	 dl, -20			; ffffffecH
  00035	88 55 d5	 mov	 BYTE PTR __k$[ebp+1], dl
  00038	8a 50 02	 mov	 dl, BYTE PTR [eax+2]
  0003b	84 d2		 test	 dl, dl
  0003d	0f 84 13 03 00
	00		 je	 $LN94@LoadFloat_@5
  00043	b1 eb		 mov	 cl, -21			; ffffffebH
  00045	32 d1		 xor	 dl, cl
  00047	88 55 d6	 mov	 BYTE PTR __k$[ebp+2], dl
  0004a	8a 50 03	 mov	 dl, BYTE PTR [eax+3]
  0004d	84 d2		 test	 dl, dl
  0004f	0f 84 fb 02 00
	00		 je	 $LN93@LoadFloat_@5
  00055	b3 ea		 mov	 bl, -22			; ffffffeaH
  00057	32 d3		 xor	 dl, bl
  00059	88 55 d7	 mov	 BYTE PTR __k$[ebp+3], dl
  0005c	8a 50 04	 mov	 dl, BYTE PTR [eax+4]
  0005f	84 d2		 test	 dl, dl
  00061	0f 84 e3 02 00
	00		 je	 $LN92@LoadFloat_@5
  00067	80 f2 ed	 xor	 dl, -19			; ffffffedH
  0006a	88 55 d8	 mov	 BYTE PTR __k$[ebp+4], dl
  0006d	8a 50 05	 mov	 dl, BYTE PTR [eax+5]
  00070	84 d2		 test	 dl, dl
  00072	0f 84 cc 02 00
	00		 je	 $LN91@LoadFloat_@5
  00078	80 f2 ec	 xor	 dl, -20			; ffffffecH
  0007b	88 55 d9	 mov	 BYTE PTR __k$[ebp+5], dl
  0007e	8a 50 06	 mov	 dl, BYTE PTR [eax+6]
  00081	84 d2		 test	 dl, dl
  00083	0f 84 b6 02 00
	00		 je	 $LN90@LoadFloat_@5
  00089	32 d1		 xor	 dl, cl
  0008b	88 55 da	 mov	 BYTE PTR __k$[ebp+6], dl
  0008e	8a 50 07	 mov	 dl, BYTE PTR [eax+7]
  00091	84 d2		 test	 dl, dl
  00093	0f 84 a1 02 00
	00		 je	 $LN89@LoadFloat_@5
  00099	32 d3		 xor	 dl, bl
  0009b	88 55 db	 mov	 BYTE PTR __k$[ebp+7], dl
  0009e	8a 50 08	 mov	 dl, BYTE PTR [eax+8]
  000a1	84 d2		 test	 dl, dl
  000a3	0f 84 8b 02 00
	00		 je	 $LN88@LoadFloat_@5
  000a9	80 f2 ed	 xor	 dl, -19			; ffffffedH
  000ac	88 55 dc	 mov	 BYTE PTR __k$[ebp+8], dl
  000af	8a 50 09	 mov	 dl, BYTE PTR [eax+9]
  000b2	84 d2		 test	 dl, dl
  000b4	0f 84 74 02 00
	00		 je	 $LN87@LoadFloat_@5
  000ba	80 f2 ec	 xor	 dl, -20			; ffffffecH
  000bd	88 55 dd	 mov	 BYTE PTR __k$[ebp+9], dl
  000c0	8a 50 0a	 mov	 dl, BYTE PTR [eax+10]
  000c3	84 d2		 test	 dl, dl
  000c5	0f 84 5e 02 00
	00		 je	 $LN86@LoadFloat_@5
  000cb	32 d1		 xor	 dl, cl
  000cd	88 55 de	 mov	 BYTE PTR __k$[ebp+10], dl
  000d0	8a 50 0b	 mov	 dl, BYTE PTR [eax+11]
  000d3	84 d2		 test	 dl, dl
  000d5	0f 84 49 02 00
	00		 je	 $LN85@LoadFloat_@5
  000db	32 d3		 xor	 dl, bl
  000dd	88 55 df	 mov	 BYTE PTR __k$[ebp+11], dl
  000e0	8a 50 0c	 mov	 dl, BYTE PTR [eax+12]
  000e3	84 d2		 test	 dl, dl
  000e5	0f 84 33 02 00
	00		 je	 $LN84@LoadFloat_@5
  000eb	80 f2 ed	 xor	 dl, -19			; ffffffedH
  000ee	88 55 e0	 mov	 BYTE PTR __k$[ebp+12], dl
  000f1	8a 50 0d	 mov	 dl, BYTE PTR [eax+13]
  000f4	84 d2		 test	 dl, dl
  000f6	0f 84 1c 02 00
	00		 je	 $LN83@LoadFloat_@5
  000fc	80 f2 ec	 xor	 dl, -20			; ffffffecH
  000ff	88 55 e1	 mov	 BYTE PTR __k$[ebp+13], dl
  00102	8a 50 0e	 mov	 dl, BYTE PTR [eax+14]
  00105	84 d2		 test	 dl, dl
  00107	0f 84 06 02 00
	00		 je	 $LN82@LoadFloat_@5
  0010d	32 d1		 xor	 dl, cl
  0010f	88 55 e2	 mov	 BYTE PTR __k$[ebp+14], dl
  00112	8a 50 0f	 mov	 dl, BYTE PTR [eax+15]
  00115	84 d2		 test	 dl, dl
  00117	0f 84 f1 01 00
	00		 je	 $LN81@LoadFloat_@5
  0011d	32 d3		 xor	 dl, bl
  0011f	88 55 e3	 mov	 BYTE PTR __k$[ebp+15], dl
  00122	8a 50 10	 mov	 dl, BYTE PTR [eax+16]
  00125	84 d2		 test	 dl, dl
  00127	0f 84 db 01 00
	00		 je	 $LN80@LoadFloat_@5
  0012d	80 f2 ed	 xor	 dl, -19			; ffffffedH
  00130	88 55 e4	 mov	 BYTE PTR __k$[ebp+16], dl
  00133	8a 50 11	 mov	 dl, BYTE PTR [eax+17]
  00136	84 d2		 test	 dl, dl
  00138	0f 84 c4 01 00
	00		 je	 $LN79@LoadFloat_@5
  0013e	80 f2 ec	 xor	 dl, -20			; ffffffecH
  00141	88 55 e5	 mov	 BYTE PTR __k$[ebp+17], dl
  00144	8a 50 12	 mov	 dl, BYTE PTR [eax+18]
  00147	84 d2		 test	 dl, dl
  00149	0f 84 ae 01 00
	00		 je	 $LN78@LoadFloat_@5
  0014f	32 d1		 xor	 dl, cl
  00151	88 55 e6	 mov	 BYTE PTR __k$[ebp+18], dl
  00154	8a 50 13	 mov	 dl, BYTE PTR [eax+19]
  00157	84 d2		 test	 dl, dl
  00159	0f 84 99 01 00
	00		 je	 $LN77@LoadFloat_@5
  0015f	32 d3		 xor	 dl, bl
  00161	88 55 e7	 mov	 BYTE PTR __k$[ebp+19], dl
  00164	8a 50 14	 mov	 dl, BYTE PTR [eax+20]
  00167	84 d2		 test	 dl, dl
  00169	0f 84 83 01 00
	00		 je	 $LN76@LoadFloat_@5
  0016f	80 f2 ed	 xor	 dl, -19			; ffffffedH
  00172	88 55 e8	 mov	 BYTE PTR __k$[ebp+20], dl
  00175	8a 50 15	 mov	 dl, BYTE PTR [eax+21]
  00178	84 d2		 test	 dl, dl
  0017a	0f 84 6c 01 00
	00		 je	 $LN75@LoadFloat_@5
  00180	80 f2 ec	 xor	 dl, -20			; ffffffecH
  00183	88 55 e9	 mov	 BYTE PTR __k$[ebp+21], dl
  00186	8a 50 16	 mov	 dl, BYTE PTR [eax+22]
  00189	84 d2		 test	 dl, dl
  0018b	0f 84 56 01 00
	00		 je	 $LN74@LoadFloat_@5
  00191	32 d1		 xor	 dl, cl
  00193	88 55 ea	 mov	 BYTE PTR __k$[ebp+22], dl
  00196	8a 50 17	 mov	 dl, BYTE PTR [eax+23]
  00199	84 d2		 test	 dl, dl
  0019b	0f 84 41 01 00
	00		 je	 $LN73@LoadFloat_@5
  001a1	32 d3		 xor	 dl, bl
  001a3	88 55 eb	 mov	 BYTE PTR __k$[ebp+23], dl
  001a6	8a 50 18	 mov	 dl, BYTE PTR [eax+24]
  001a9	84 d2		 test	 dl, dl
  001ab	0f 84 28 01 00
	00		 je	 $LN72@LoadFloat_@5
  001b1	80 f2 ed	 xor	 dl, -19			; ffffffedH
  001b4	88 55 ec	 mov	 BYTE PTR __k$[ebp+24], dl
  001b7	8a 50 19	 mov	 dl, BYTE PTR [eax+25]
  001ba	84 d2		 test	 dl, dl
  001bc	0f 84 0e 01 00
	00		 je	 $LN71@LoadFloat_@5
  001c2	80 f2 ec	 xor	 dl, -20			; ffffffecH
  001c5	88 55 ed	 mov	 BYTE PTR __k$[ebp+25], dl
  001c8	8a 50 1a	 mov	 dl, BYTE PTR [eax+26]
  001cb	84 d2		 test	 dl, dl
  001cd	0f 84 f5 00 00
	00		 je	 $LN70@LoadFloat_@5
  001d3	32 d1		 xor	 dl, cl
  001d5	88 55 ee	 mov	 BYTE PTR __k$[ebp+26], dl
  001d8	8a 50 1b	 mov	 dl, BYTE PTR [eax+27]
  001db	84 d2		 test	 dl, dl
  001dd	0f 84 dd 00 00
	00		 je	 $LN69@LoadFloat_@5
  001e3	32 d3		 xor	 dl, bl
  001e5	88 55 ef	 mov	 BYTE PTR __k$[ebp+27], dl
  001e8	8a 50 1c	 mov	 dl, BYTE PTR [eax+28]
  001eb	84 d2		 test	 dl, dl
  001ed	0f 84 c4 00 00
	00		 je	 $LN68@LoadFloat_@5
  001f3	80 f2 ed	 xor	 dl, -19			; ffffffedH
  001f6	88 55 f0	 mov	 BYTE PTR __k$[ebp+28], dl
  001f9	8a 50 1d	 mov	 dl, BYTE PTR [eax+29]
  001fc	84 d2		 test	 dl, dl
  001fe	0f 84 aa 00 00
	00		 je	 $LN67@LoadFloat_@5
  00204	80 f2 ec	 xor	 dl, -20			; ffffffecH
  00207	88 55 f1	 mov	 BYTE PTR __k$[ebp+29], dl
  0020a	8a 50 1e	 mov	 dl, BYTE PTR [eax+30]
  0020d	84 d2		 test	 dl, dl
  0020f	0f 84 91 00 00
	00		 je	 $LN66@LoadFloat_@5
  00215	32 d1		 xor	 dl, cl
  00217	88 55 f2	 mov	 BYTE PTR __k$[ebp+30], dl
  0021a	8a 50 1f	 mov	 dl, BYTE PTR [eax+31]
  0021d	84 d2		 test	 dl, dl
  0021f	74 7d		 je	 SHORT $LN65@LoadFloat_@5
  00221	32 d3		 xor	 dl, bl
  00223	88 55 f3	 mov	 BYTE PTR __k$[ebp+31], dl
  00226	8a 50 20	 mov	 dl, BYTE PTR [eax+32]
  00229	84 d2		 test	 dl, dl
  0022b	74 68		 je	 SHORT $LN64@LoadFloat_@5
  0022d	80 f2 ed	 xor	 dl, -19			; ffffffedH
  00230	80 78 21 00	 cmp	 BYTE PTR [eax+33], 0
  00234	88 55 f4	 mov	 BYTE PTR __k$[ebp+32], dl
  00237	0f 84 29 01 00
	00		 je	 $LN1@LoadFloat_@5
  0023d	8a 50 22	 mov	 dl, BYTE PTR [eax+34]
  00240	84 d2		 test	 dl, dl
  00242	74 49		 je	 SHORT $LN62@LoadFloat_@5
  00244	32 d1		 xor	 dl, cl
  00246	88 55 f6	 mov	 BYTE PTR __k$[ebp+34], dl
  00249	8a 50 23	 mov	 dl, BYTE PTR [eax+35]
  0024c	84 d2		 test	 dl, dl
  0024e	74 35		 je	 SHORT $LN61@LoadFloat_@5
  00250	32 d3		 xor	 dl, bl
  00252	88 55 f7	 mov	 BYTE PTR __k$[ebp+35], dl
  00255	8a 50 24	 mov	 dl, BYTE PTR [eax+36]
  00258	84 d2		 test	 dl, dl
  0025a	74 20		 je	 SHORT $LN60@LoadFloat_@5
  0025c	8a 40 25	 mov	 al, BYTE PTR [eax+37]
  0025f	80 f2 ed	 xor	 dl, -19			; ffffffedH
  00262	88 55 f8	 mov	 BYTE PTR __k$[ebp+36], dl
  00265	84 c0		 test	 al, al
  00267	74 0a		 je	 SHORT $LN59@LoadFloat_@5
  00269	34 ec		 xor	 al, -20			; ffffffecH
  0026b	88 45 f9	 mov	 BYTE PTR __k$[ebp+37], al
  0026e	e9 f3 00 00 00	 jmp	 $LN1@LoadFloat_@5
$LN59@LoadFloat_@5:
  00273	c6 45 f9 ec	 mov	 BYTE PTR __k$[ebp+37], -20 ; ffffffecH
  00277	e9 ea 00 00 00	 jmp	 $LN1@LoadFloat_@5
$LN60@LoadFloat_@5:
  0027c	c6 45 f8 ed	 mov	 BYTE PTR __k$[ebp+36], -19 ; ffffffedH
  00280	e9 e1 00 00 00	 jmp	 $LN1@LoadFloat_@5
$LN61@LoadFloat_@5:
  00285	88 5d f7	 mov	 BYTE PTR __k$[ebp+35], bl
  00288	e9 d9 00 00 00	 jmp	 $LN1@LoadFloat_@5
$LN62@LoadFloat_@5:
  0028d	88 4d f6	 mov	 BYTE PTR __k$[ebp+34], cl
  00290	e9 d1 00 00 00	 jmp	 $LN1@LoadFloat_@5
$LN64@LoadFloat_@5:
  00295	c6 45 f4 ed	 mov	 BYTE PTR __k$[ebp+32], -19 ; ffffffedH
  00299	e9 c8 00 00 00	 jmp	 $LN1@LoadFloat_@5
$LN65@LoadFloat_@5:
  0029e	88 5d f3	 mov	 BYTE PTR __k$[ebp+31], bl
  002a1	e9 c0 00 00 00	 jmp	 $LN1@LoadFloat_@5
$LN66@LoadFloat_@5:
  002a6	88 4d f2	 mov	 BYTE PTR __k$[ebp+30], cl
  002a9	e9 b8 00 00 00	 jmp	 $LN1@LoadFloat_@5
$LN67@LoadFloat_@5:
  002ae	c6 45 f1 ec	 mov	 BYTE PTR __k$[ebp+29], -20 ; ffffffecH
  002b2	e9 af 00 00 00	 jmp	 $LN1@LoadFloat_@5
$LN68@LoadFloat_@5:
  002b7	c6 45 f0 ed	 mov	 BYTE PTR __k$[ebp+28], -19 ; ffffffedH
  002bb	e9 a6 00 00 00	 jmp	 $LN1@LoadFloat_@5
$LN69@LoadFloat_@5:
  002c0	88 5d ef	 mov	 BYTE PTR __k$[ebp+27], bl
  002c3	e9 9e 00 00 00	 jmp	 $LN1@LoadFloat_@5
$LN70@LoadFloat_@5:
  002c8	88 4d ee	 mov	 BYTE PTR __k$[ebp+26], cl
  002cb	e9 96 00 00 00	 jmp	 $LN1@LoadFloat_@5
$LN71@LoadFloat_@5:
  002d0	c6 45 ed ec	 mov	 BYTE PTR __k$[ebp+25], -20 ; ffffffecH
  002d4	e9 8d 00 00 00	 jmp	 $LN1@LoadFloat_@5
$LN72@LoadFloat_@5:
  002d9	c6 45 ec ed	 mov	 BYTE PTR __k$[ebp+24], -19 ; ffffffedH
  002dd	e9 84 00 00 00	 jmp	 $LN1@LoadFloat_@5
$LN73@LoadFloat_@5:
  002e2	88 5d eb	 mov	 BYTE PTR __k$[ebp+23], bl
  002e5	eb 7f		 jmp	 SHORT $LN1@LoadFloat_@5
$LN74@LoadFloat_@5:
  002e7	88 4d ea	 mov	 BYTE PTR __k$[ebp+22], cl
  002ea	eb 7a		 jmp	 SHORT $LN1@LoadFloat_@5
$LN75@LoadFloat_@5:
  002ec	c6 45 e9 ec	 mov	 BYTE PTR __k$[ebp+21], -20 ; ffffffecH
  002f0	eb 74		 jmp	 SHORT $LN1@LoadFloat_@5
$LN76@LoadFloat_@5:
  002f2	c6 45 e8 ed	 mov	 BYTE PTR __k$[ebp+20], -19 ; ffffffedH
  002f6	eb 6e		 jmp	 SHORT $LN1@LoadFloat_@5
$LN77@LoadFloat_@5:
  002f8	88 5d e7	 mov	 BYTE PTR __k$[ebp+19], bl
  002fb	eb 69		 jmp	 SHORT $LN1@LoadFloat_@5
$LN78@LoadFloat_@5:
  002fd	88 4d e6	 mov	 BYTE PTR __k$[ebp+18], cl
  00300	eb 64		 jmp	 SHORT $LN1@LoadFloat_@5
$LN79@LoadFloat_@5:
  00302	c6 45 e5 ec	 mov	 BYTE PTR __k$[ebp+17], -20 ; ffffffecH
  00306	eb 5e		 jmp	 SHORT $LN1@LoadFloat_@5
$LN80@LoadFloat_@5:
  00308	c6 45 e4 ed	 mov	 BYTE PTR __k$[ebp+16], -19 ; ffffffedH
  0030c	eb 58		 jmp	 SHORT $LN1@LoadFloat_@5
$LN81@LoadFloat_@5:
  0030e	88 5d e3	 mov	 BYTE PTR __k$[ebp+15], bl
  00311	eb 53		 jmp	 SHORT $LN1@LoadFloat_@5
$LN82@LoadFloat_@5:
  00313	88 4d e2	 mov	 BYTE PTR __k$[ebp+14], cl
  00316	eb 4e		 jmp	 SHORT $LN1@LoadFloat_@5
$LN83@LoadFloat_@5:
  00318	c6 45 e1 ec	 mov	 BYTE PTR __k$[ebp+13], -20 ; ffffffecH
  0031c	eb 48		 jmp	 SHORT $LN1@LoadFloat_@5
$LN84@LoadFloat_@5:
  0031e	c6 45 e0 ed	 mov	 BYTE PTR __k$[ebp+12], -19 ; ffffffedH
  00322	eb 42		 jmp	 SHORT $LN1@LoadFloat_@5
$LN85@LoadFloat_@5:
  00324	88 5d df	 mov	 BYTE PTR __k$[ebp+11], bl
  00327	eb 3d		 jmp	 SHORT $LN1@LoadFloat_@5
$LN86@LoadFloat_@5:
  00329	88 4d de	 mov	 BYTE PTR __k$[ebp+10], cl
  0032c	eb 38		 jmp	 SHORT $LN1@LoadFloat_@5
$LN87@LoadFloat_@5:
  0032e	c6 45 dd ec	 mov	 BYTE PTR __k$[ebp+9], -20 ; ffffffecH
  00332	eb 32		 jmp	 SHORT $LN1@LoadFloat_@5
$LN88@LoadFloat_@5:
  00334	c6 45 dc ed	 mov	 BYTE PTR __k$[ebp+8], -19 ; ffffffedH
  00338	eb 2c		 jmp	 SHORT $LN1@LoadFloat_@5
$LN89@LoadFloat_@5:
  0033a	88 5d db	 mov	 BYTE PTR __k$[ebp+7], bl
  0033d	eb 27		 jmp	 SHORT $LN1@LoadFloat_@5
$LN90@LoadFloat_@5:
  0033f	88 4d da	 mov	 BYTE PTR __k$[ebp+6], cl
  00342	eb 22		 jmp	 SHORT $LN1@LoadFloat_@5
$LN91@LoadFloat_@5:
  00344	c6 45 d9 ec	 mov	 BYTE PTR __k$[ebp+5], -20 ; ffffffecH
  00348	eb 1c		 jmp	 SHORT $LN1@LoadFloat_@5
$LN92@LoadFloat_@5:
  0034a	c6 45 d8 ed	 mov	 BYTE PTR __k$[ebp+4], -19 ; ffffffedH
  0034e	eb 16		 jmp	 SHORT $LN1@LoadFloat_@5
$LN93@LoadFloat_@5:
  00350	c6 45 d7 ea	 mov	 BYTE PTR __k$[ebp+3], -22 ; ffffffeaH
  00354	eb 10		 jmp	 SHORT $LN1@LoadFloat_@5
$LN94@LoadFloat_@5:
  00356	c6 45 d6 eb	 mov	 BYTE PTR __k$[ebp+2], -21 ; ffffffebH
  0035a	eb 0a		 jmp	 SHORT $LN1@LoadFloat_@5
$LN95@LoadFloat_@5:
  0035c	c6 45 d5 ec	 mov	 BYTE PTR __k$[ebp+1], -20 ; ffffffecH
  00360	eb 04		 jmp	 SHORT $LN1@LoadFloat_@5
$LN96@LoadFloat_@5:
  00362	c6 45 d4 ed	 mov	 BYTE PTR __k$[ebp], -19	; ffffffedH
$LN1@LoadFloat_@5:
  00366	6a 08		 push	 8
  00368	8d 45 d4	 lea	 eax, DWORD PTR __k$[ebp]
  0036b	c6 45 f5 00	 mov	 BYTE PTR __k$[ebp+33], 0
  0036f	5a		 pop	 edx
$LL104@LoadFloat_@5:
  00370	81 30 ed ec eb
	ea		 xor	 DWORD PTR [eax], -353637139 ; eaebecedH
  00376	83 c0 04	 add	 eax, 4
  00379	4a		 dec	 edx
  0037a	75 f4		 jne	 SHORT $LL104@LoadFloat_@5

; 137  : 		return LoadFloat(_k, f);

  0037c	f3 0f 10 45 0c	 movss	 xmm0, DWORD PTR _f$[ebp]
  00381	80 75 f4 ed	 xor	 BYTE PTR __k$[ebp+32], -19 ; ffffffedH
  00385	51		 push	 ecx
  00386	8d 45 d4	 lea	 eax, DWORD PTR __k$[ebp]
  00389	f3 0f 11 04 24	 movss	 DWORD PTR [esp], xmm0
  0038e	50		 push	 eax
  0038f	8b ce		 mov	 ecx, esi
  00391	ff 15 00 00 00
	00		 call	 DWORD PTR __imp_?LoadFloat@ioINILoader@@QAEMPBDM@Z

; 138  : 	}

  00397	8b 4d fc	 mov	 ecx, DWORD PTR __$ArrayPad$[ebp]
  0039a	5e		 pop	 esi
  0039b	33 cd		 xor	 ecx, ebp
  0039d	5b		 pop	 ebx
  0039e	e8 00 00 00 00	 call	 @__security_check_cookie@4
  003a3	c9		 leave
  003a4	c2 08 00	 ret	 8
??$LoadFloat_e@$0CC@@ioINILoader@@QAEMAAY0CC@$$CBDM@Z ENDP ; ioINILoader::LoadFloat_e<34>
_TEXT	ENDS
PUBLIC	__$ArrayPad$
PUBLIC	??$LoadInt_e@$0BM@@ioINILoader@@QAEHAAY0BM@$$CBDH@Z ; ioINILoader::LoadInt_e<28>
; Function compile flags: /Ogsp
;	COMDAT ??$LoadInt_e@$0BM@@ioINILoader@@QAEHAAY0BM@$$CBDH@Z
_TEXT	SEGMENT
__k$ = -36						; size = 28
__$ArrayPad$ = -4					; size = 4
_k$ = 8							; size = 4
_i$ = 12						; size = 4
??$LoadInt_e@$0BM@@ioINILoader@@QAEHAAY0BM@$$CBDH@Z PROC ; ioINILoader::LoadInt_e<28>, COMDAT
; _this$ = ecx

; 118  : 	{

  00000	55		 push	 ebp
  00001	8b ec		 mov	 ebp, esp
  00003	83 ec 24	 sub	 esp, 36			; 00000024H
  00006	a1 00 00 00 00	 mov	 eax, DWORD PTR ___security_cookie
  0000b	33 c5		 xor	 eax, ebp
  0000d	89 45 fc	 mov	 DWORD PTR __$ArrayPad$[ebp], eax
  00010	8b 45 08	 mov	 eax, DWORD PTR _k$[ebp]

; 119  : 		_ENCSTR(k, _k);

  00013	8a 10		 mov	 dl, BYTE PTR [eax]
  00015	53		 push	 ebx
  00016	56		 push	 esi
  00017	8b f1		 mov	 esi, ecx
  00019	84 d2		 test	 dl, dl
  0001b	0f 84 a9 02 00
	00		 je	 $LN96@LoadInt_e@5
  00021	80 f2 ed	 xor	 dl, -19			; ffffffedH
  00024	88 55 dc	 mov	 BYTE PTR __k$[ebp], dl
  00027	8a 50 01	 mov	 dl, BYTE PTR [eax+1]
  0002a	84 d2		 test	 dl, dl
  0002c	0f 84 92 02 00
	00		 je	 $LN95@LoadInt_e@5
  00032	b3 ec		 mov	 bl, -20			; ffffffecH
  00034	32 d3		 xor	 dl, bl
  00036	88 55 dd	 mov	 BYTE PTR __k$[ebp+1], dl
  00039	8a 50 02	 mov	 dl, BYTE PTR [eax+2]
  0003c	84 d2		 test	 dl, dl
  0003e	0f 84 7a 02 00
	00		 je	 $LN94@LoadInt_e@5
  00044	b1 eb		 mov	 cl, -21			; ffffffebH
  00046	32 d1		 xor	 dl, cl
  00048	88 55 de	 mov	 BYTE PTR __k$[ebp+2], dl
  0004b	8a 50 03	 mov	 dl, BYTE PTR [eax+3]
  0004e	84 d2		 test	 dl, dl
  00050	0f 84 62 02 00
	00		 je	 $LN93@LoadInt_e@5
  00056	80 f2 ea	 xor	 dl, -22			; ffffffeaH
  00059	88 55 df	 mov	 BYTE PTR __k$[ebp+3], dl
  0005c	8a 50 04	 mov	 dl, BYTE PTR [eax+4]
  0005f	84 d2		 test	 dl, dl
  00061	0f 84 4b 02 00
	00		 je	 $LN92@LoadInt_e@5
  00067	80 f2 ed	 xor	 dl, -19			; ffffffedH
  0006a	88 55 e0	 mov	 BYTE PTR __k$[ebp+4], dl
  0006d	8a 50 05	 mov	 dl, BYTE PTR [eax+5]
  00070	84 d2		 test	 dl, dl
  00072	0f 84 35 02 00
	00		 je	 $LN91@LoadInt_e@5
  00078	32 d3		 xor	 dl, bl
  0007a	88 55 e1	 mov	 BYTE PTR __k$[ebp+5], dl
  0007d	8a 50 06	 mov	 dl, BYTE PTR [eax+6]
  00080	84 d2		 test	 dl, dl
  00082	0f 84 20 02 00
	00		 je	 $LN90@LoadInt_e@5
  00088	32 d1		 xor	 dl, cl
  0008a	88 55 e2	 mov	 BYTE PTR __k$[ebp+6], dl
  0008d	8a 50 07	 mov	 dl, BYTE PTR [eax+7]
  00090	84 d2		 test	 dl, dl
  00092	0f 84 0a 02 00
	00		 je	 $LN89@LoadInt_e@5
  00098	80 f2 ea	 xor	 dl, -22			; ffffffeaH
  0009b	88 55 e3	 mov	 BYTE PTR __k$[ebp+7], dl
  0009e	8a 50 08	 mov	 dl, BYTE PTR [eax+8]
  000a1	84 d2		 test	 dl, dl
  000a3	0f 84 f3 01 00
	00		 je	 $LN88@LoadInt_e@5
  000a9	80 f2 ed	 xor	 dl, -19			; ffffffedH
  000ac	88 55 e4	 mov	 BYTE PTR __k$[ebp+8], dl
  000af	8a 50 09	 mov	 dl, BYTE PTR [eax+9]
  000b2	84 d2		 test	 dl, dl
  000b4	0f 84 dd 01 00
	00		 je	 $LN87@LoadInt_e@5
  000ba	32 d3		 xor	 dl, bl
  000bc	88 55 e5	 mov	 BYTE PTR __k$[ebp+9], dl
  000bf	8a 50 0a	 mov	 dl, BYTE PTR [eax+10]
  000c2	84 d2		 test	 dl, dl
  000c4	0f 84 c8 01 00
	00		 je	 $LN86@LoadInt_e@5
  000ca	32 d1		 xor	 dl, cl
  000cc	88 55 e6	 mov	 BYTE PTR __k$[ebp+10], dl
  000cf	8a 50 0b	 mov	 dl, BYTE PTR [eax+11]
  000d2	84 d2		 test	 dl, dl
  000d4	0f 84 b2 01 00
	00		 je	 $LN85@LoadInt_e@5
  000da	80 f2 ea	 xor	 dl, -22			; ffffffeaH
  000dd	88 55 e7	 mov	 BYTE PTR __k$[ebp+11], dl
  000e0	8a 50 0c	 mov	 dl, BYTE PTR [eax+12]
  000e3	84 d2		 test	 dl, dl
  000e5	0f 84 9b 01 00
	00		 je	 $LN84@LoadInt_e@5
  000eb	80 f2 ed	 xor	 dl, -19			; ffffffedH
  000ee	88 55 e8	 mov	 BYTE PTR __k$[ebp+12], dl
  000f1	8a 50 0d	 mov	 dl, BYTE PTR [eax+13]
  000f4	84 d2		 test	 dl, dl
  000f6	0f 84 85 01 00
	00		 je	 $LN83@LoadInt_e@5
  000fc	32 d3		 xor	 dl, bl
  000fe	88 55 e9	 mov	 BYTE PTR __k$[ebp+13], dl
  00101	8a 50 0e	 mov	 dl, BYTE PTR [eax+14]
  00104	84 d2		 test	 dl, dl
  00106	0f 84 70 01 00
	00		 je	 $LN82@LoadInt_e@5
  0010c	32 d1		 xor	 dl, cl
  0010e	88 55 ea	 mov	 BYTE PTR __k$[ebp+14], dl
  00111	8a 50 0f	 mov	 dl, BYTE PTR [eax+15]
  00114	84 d2		 test	 dl, dl
  00116	0f 84 5a 01 00
	00		 je	 $LN81@LoadInt_e@5
  0011c	80 f2 ea	 xor	 dl, -22			; ffffffeaH
  0011f	88 55 eb	 mov	 BYTE PTR __k$[ebp+15], dl
  00122	8a 50 10	 mov	 dl, BYTE PTR [eax+16]
  00125	84 d2		 test	 dl, dl
  00127	0f 84 43 01 00
	00		 je	 $LN80@LoadInt_e@5
  0012d	80 f2 ed	 xor	 dl, -19			; ffffffedH
  00130	88 55 ec	 mov	 BYTE PTR __k$[ebp+16], dl
  00133	8a 50 11	 mov	 dl, BYTE PTR [eax+17]
  00136	84 d2		 test	 dl, dl
  00138	0f 84 2d 01 00
	00		 je	 $LN79@LoadInt_e@5
  0013e	32 d3		 xor	 dl, bl
  00140	88 55 ed	 mov	 BYTE PTR __k$[ebp+17], dl
  00143	8a 50 12	 mov	 dl, BYTE PTR [eax+18]
  00146	84 d2		 test	 dl, dl
  00148	0f 84 18 01 00
	00		 je	 $LN78@LoadInt_e@5
  0014e	32 d1		 xor	 dl, cl
  00150	88 55 ee	 mov	 BYTE PTR __k$[ebp+18], dl
  00153	8a 50 13	 mov	 dl, BYTE PTR [eax+19]
  00156	84 d2		 test	 dl, dl
  00158	0f 84 02 01 00
	00		 je	 $LN77@LoadInt_e@5
  0015e	80 f2 ea	 xor	 dl, -22			; ffffffeaH
  00161	88 55 ef	 mov	 BYTE PTR __k$[ebp+19], dl
  00164	8a 50 14	 mov	 dl, BYTE PTR [eax+20]
  00167	84 d2		 test	 dl, dl
  00169	0f 84 eb 00 00
	00		 je	 $LN76@LoadInt_e@5
  0016f	80 f2 ed	 xor	 dl, -19			; ffffffedH
  00172	88 55 f0	 mov	 BYTE PTR __k$[ebp+20], dl
  00175	8a 50 15	 mov	 dl, BYTE PTR [eax+21]
  00178	84 d2		 test	 dl, dl
  0017a	0f 84 d5 00 00
	00		 je	 $LN75@LoadInt_e@5
  00180	32 d3		 xor	 dl, bl
  00182	88 55 f1	 mov	 BYTE PTR __k$[ebp+21], dl
  00185	8a 50 16	 mov	 dl, BYTE PTR [eax+22]
  00188	84 d2		 test	 dl, dl
  0018a	0f 84 c0 00 00
	00		 je	 $LN74@LoadInt_e@5
  00190	32 d1		 xor	 dl, cl
  00192	88 55 f2	 mov	 BYTE PTR __k$[ebp+22], dl
  00195	8a 50 17	 mov	 dl, BYTE PTR [eax+23]
  00198	84 d2		 test	 dl, dl
  0019a	0f 84 aa 00 00
	00		 je	 $LN73@LoadInt_e@5
  001a0	80 f2 ea	 xor	 dl, -22			; ffffffeaH
  001a3	88 55 f3	 mov	 BYTE PTR __k$[ebp+23], dl
  001a6	8a 50 18	 mov	 dl, BYTE PTR [eax+24]
  001a9	84 d2		 test	 dl, dl
  001ab	0f 84 90 00 00
	00		 je	 $LN72@LoadInt_e@5
  001b1	80 f2 ed	 xor	 dl, -19			; ffffffedH
  001b4	88 55 f4	 mov	 BYTE PTR __k$[ebp+24], dl
  001b7	8a 50 19	 mov	 dl, BYTE PTR [eax+25]
  001ba	84 d2		 test	 dl, dl
  001bc	74 7b		 je	 SHORT $LN71@LoadInt_e@5
  001be	32 d3		 xor	 dl, bl
  001c0	88 55 f5	 mov	 BYTE PTR __k$[ebp+25], dl
  001c3	8a 50 1a	 mov	 dl, BYTE PTR [eax+26]
  001c6	84 d2		 test	 dl, dl
  001c8	74 67		 je	 SHORT $LN70@LoadInt_e@5
  001ca	32 d1		 xor	 dl, cl
  001cc	80 78 1b 00	 cmp	 BYTE PTR [eax+27], 0
  001d0	88 55 f6	 mov	 BYTE PTR __k$[ebp+26], dl
  001d3	0f 84 f5 00 00
	00		 je	 $LN1@LoadInt_e@5
  001d9	8a 50 1c	 mov	 dl, BYTE PTR [eax+28]
  001dc	84 d2		 test	 dl, dl
  001de	74 48		 je	 SHORT $LN68@LoadInt_e@5
  001e0	80 f2 ed	 xor	 dl, -19			; ffffffedH
  001e3	88 55 f8	 mov	 BYTE PTR __k$[ebp+28], dl
  001e6	8a 50 1d	 mov	 dl, BYTE PTR [eax+29]
  001e9	84 d2		 test	 dl, dl
  001eb	74 33		 je	 SHORT $LN67@LoadInt_e@5
  001ed	32 d3		 xor	 dl, bl
  001ef	88 55 f9	 mov	 BYTE PTR __k$[ebp+29], dl
  001f2	8a 50 1e	 mov	 dl, BYTE PTR [eax+30]
  001f5	84 d2		 test	 dl, dl
  001f7	74 1f		 je	 SHORT $LN66@LoadInt_e@5
  001f9	8a 40 1f	 mov	 al, BYTE PTR [eax+31]
  001fc	32 d1		 xor	 dl, cl
  001fe	88 55 fa	 mov	 BYTE PTR __k$[ebp+30], dl
  00201	84 c0		 test	 al, al
  00203	74 0a		 je	 SHORT $LN65@LoadInt_e@5
  00205	34 ea		 xor	 al, -22			; ffffffeaH
  00207	88 45 fb	 mov	 BYTE PTR __k$[ebp+31], al
  0020a	e9 bf 00 00 00	 jmp	 $LN1@LoadInt_e@5
$LN65@LoadInt_e@5:
  0020f	c6 45 fb ea	 mov	 BYTE PTR __k$[ebp+31], -22 ; ffffffeaH
  00213	e9 b6 00 00 00	 jmp	 $LN1@LoadInt_e@5
$LN66@LoadInt_e@5:
  00218	88 4d fa	 mov	 BYTE PTR __k$[ebp+30], cl
  0021b	e9 ae 00 00 00	 jmp	 $LN1@LoadInt_e@5
$LN67@LoadInt_e@5:
  00220	88 5d f9	 mov	 BYTE PTR __k$[ebp+29], bl
  00223	e9 a6 00 00 00	 jmp	 $LN1@LoadInt_e@5
$LN68@LoadInt_e@5:
  00228	c6 45 f8 ed	 mov	 BYTE PTR __k$[ebp+28], -19 ; ffffffedH
  0022c	e9 9d 00 00 00	 jmp	 $LN1@LoadInt_e@5
$LN70@LoadInt_e@5:
  00231	88 4d f6	 mov	 BYTE PTR __k$[ebp+26], cl
  00234	e9 95 00 00 00	 jmp	 $LN1@LoadInt_e@5
$LN71@LoadInt_e@5:
  00239	88 5d f5	 mov	 BYTE PTR __k$[ebp+25], bl
  0023c	e9 8d 00 00 00	 jmp	 $LN1@LoadInt_e@5
$LN72@LoadInt_e@5:
  00241	c6 45 f4 ed	 mov	 BYTE PTR __k$[ebp+24], -19 ; ffffffedH
  00245	e9 84 00 00 00	 jmp	 $LN1@LoadInt_e@5
$LN73@LoadInt_e@5:
  0024a	c6 45 f3 ea	 mov	 BYTE PTR __k$[ebp+23], -22 ; ffffffeaH
  0024e	eb 7e		 jmp	 SHORT $LN1@LoadInt_e@5
$LN74@LoadInt_e@5:
  00250	88 4d f2	 mov	 BYTE PTR __k$[ebp+22], cl
  00253	eb 79		 jmp	 SHORT $LN1@LoadInt_e@5
$LN75@LoadInt_e@5:
  00255	88 5d f1	 mov	 BYTE PTR __k$[ebp+21], bl
  00258	eb 74		 jmp	 SHORT $LN1@LoadInt_e@5
$LN76@LoadInt_e@5:
  0025a	c6 45 f0 ed	 mov	 BYTE PTR __k$[ebp+20], -19 ; ffffffedH
  0025e	eb 6e		 jmp	 SHORT $LN1@LoadInt_e@5
$LN77@LoadInt_e@5:
  00260	c6 45 ef ea	 mov	 BYTE PTR __k$[ebp+19], -22 ; ffffffeaH
  00264	eb 68		 jmp	 SHORT $LN1@LoadInt_e@5
$LN78@LoadInt_e@5:
  00266	88 4d ee	 mov	 BYTE PTR __k$[ebp+18], cl
  00269	eb 63		 jmp	 SHORT $LN1@LoadInt_e@5
$LN79@LoadInt_e@5:
  0026b	88 5d ed	 mov	 BYTE PTR __k$[ebp+17], bl
  0026e	eb 5e		 jmp	 SHORT $LN1@LoadInt_e@5
$LN80@LoadInt_e@5:
  00270	c6 45 ec ed	 mov	 BYTE PTR __k$[ebp+16], -19 ; ffffffedH
  00274	eb 58		 jmp	 SHORT $LN1@LoadInt_e@5
$LN81@LoadInt_e@5:
  00276	c6 45 eb ea	 mov	 BYTE PTR __k$[ebp+15], -22 ; ffffffeaH
  0027a	eb 52		 jmp	 SHORT $LN1@LoadInt_e@5
$LN82@LoadInt_e@5:
  0027c	88 4d ea	 mov	 BYTE PTR __k$[ebp+14], cl
  0027f	eb 4d		 jmp	 SHORT $LN1@LoadInt_e@5
$LN83@LoadInt_e@5:
  00281	88 5d e9	 mov	 BYTE PTR __k$[ebp+13], bl
  00284	eb 48		 jmp	 SHORT $LN1@LoadInt_e@5
$LN84@LoadInt_e@5:
  00286	c6 45 e8 ed	 mov	 BYTE PTR __k$[ebp+12], -19 ; ffffffedH
  0028a	eb 42		 jmp	 SHORT $LN1@LoadInt_e@5
$LN85@LoadInt_e@5:
  0028c	c6 45 e7 ea	 mov	 BYTE PTR __k$[ebp+11], -22 ; ffffffeaH
  00290	eb 3c		 jmp	 SHORT $LN1@LoadInt_e@5
$LN86@LoadInt_e@5:
  00292	88 4d e6	 mov	 BYTE PTR __k$[ebp+10], cl
  00295	eb 37		 jmp	 SHORT $LN1@LoadInt_e@5
$LN87@LoadInt_e@5:
  00297	88 5d e5	 mov	 BYTE PTR __k$[ebp+9], bl
  0029a	eb 32		 jmp	 SHORT $LN1@LoadInt_e@5
$LN88@LoadInt_e@5:
  0029c	c6 45 e4 ed	 mov	 BYTE PTR __k$[ebp+8], -19 ; ffffffedH
  002a0	eb 2c		 jmp	 SHORT $LN1@LoadInt_e@5
$LN89@LoadInt_e@5:
  002a2	c6 45 e3 ea	 mov	 BYTE PTR __k$[ebp+7], -22 ; ffffffeaH
  002a6	eb 26		 jmp	 SHORT $LN1@LoadInt_e@5
$LN90@LoadInt_e@5:
  002a8	88 4d e2	 mov	 BYTE PTR __k$[ebp+6], cl
  002ab	eb 21		 jmp	 SHORT $LN1@LoadInt_e@5
$LN91@LoadInt_e@5:
  002ad	88 5d e1	 mov	 BYTE PTR __k$[ebp+5], bl
  002b0	eb 1c		 jmp	 SHORT $LN1@LoadInt_e@5
$LN92@LoadInt_e@5:
  002b2	c6 45 e0 ed	 mov	 BYTE PTR __k$[ebp+4], -19 ; ffffffedH
  002b6	eb 16		 jmp	 SHORT $LN1@LoadInt_e@5
$LN93@LoadInt_e@5:
  002b8	c6 45 df ea	 mov	 BYTE PTR __k$[ebp+3], -22 ; ffffffeaH
  002bc	eb 10		 jmp	 SHORT $LN1@LoadInt_e@5
$LN94@LoadInt_e@5:
  002be	c6 45 de eb	 mov	 BYTE PTR __k$[ebp+2], -21 ; ffffffebH
  002c2	eb 0a		 jmp	 SHORT $LN1@LoadInt_e@5
$LN95@LoadInt_e@5:
  002c4	c6 45 dd ec	 mov	 BYTE PTR __k$[ebp+1], -20 ; ffffffecH
  002c8	eb 04		 jmp	 SHORT $LN1@LoadInt_e@5
$LN96@LoadInt_e@5:
  002ca	c6 45 dc ed	 mov	 BYTE PTR __k$[ebp], -19	; ffffffedH
$LN1@LoadInt_e@5:
  002ce	6a 06		 push	 6
  002d0	8d 45 dc	 lea	 eax, DWORD PTR __k$[ebp]
  002d3	c6 45 f7 00	 mov	 BYTE PTR __k$[ebp+27], 0
  002d7	5a		 pop	 edx
$LL104@LoadInt_e@5:
  002d8	81 30 ed ec eb
	ea		 xor	 DWORD PTR [eax], -353637139 ; eaebecedH
  002de	83 c0 04	 add	 eax, 4
  002e1	4a		 dec	 edx
  002e2	75 f4		 jne	 SHORT $LL104@LoadInt_e@5
  002e4	6a 18		 push	 24			; 00000018H
  002e6	58		 pop	 eax
$LL101@LoadInt_e@5:
  002e7	8b c8		 mov	 ecx, eax
  002e9	81 e1 03 00 00
	80		 and	 ecx, -2147483645	; 80000003H
  002ef	79 05		 jns	 SHORT $LN111@LoadInt_e@5
  002f1	49		 dec	 ecx
  002f2	83 c9 fc	 or	 ecx, -4			; fffffffcH
  002f5	41		 inc	 ecx
$LN111@LoadInt_e@5:
  002f6	b2 ed		 mov	 dl, -19			; ffffffedH
  002f8	2a d1		 sub	 dl, cl
  002fa	30 54 05 dc	 xor	 BYTE PTR __k$[ebp+eax], dl
  002fe	40		 inc	 eax
  002ff	83 f8 1b	 cmp	 eax, 27			; 0000001bH
  00302	7c e3		 jl	 SHORT $LL101@LoadInt_e@5

; 120  : 		return LoadInt(_k, i);

  00304	ff 75 0c	 push	 DWORD PTR _i$[ebp]
  00307	8d 45 dc	 lea	 eax, DWORD PTR __k$[ebp]
  0030a	50		 push	 eax
  0030b	8b ce		 mov	 ecx, esi
  0030d	ff 15 00 00 00
	00		 call	 DWORD PTR __imp_?LoadInt@ioINILoader@@QAEHPBDH@Z

; 121  : 	}

  00313	8b 4d fc	 mov	 ecx, DWORD PTR __$ArrayPad$[ebp]
  00316	5e		 pop	 esi
  00317	33 cd		 xor	 ecx, ebp
  00319	5b		 pop	 ebx
  0031a	e8 00 00 00 00	 call	 @__security_check_cookie@4
  0031f	c9		 leave
  00320	c2 08 00	 ret	 8
??$LoadInt_e@$0BM@@ioINILoader@@QAEHAAY0BM@$$CBDH@Z ENDP ; ioINILoader::LoadInt_e<28>
_TEXT	ENDS
PUBLIC	__$ArrayPad$
PUBLIC	??$LoadInt_e@$0BH@@ioINILoader@@QAEHAAY0BH@$$CBDH@Z ; ioINILoader::LoadInt_e<23>
; Function compile flags: /Ogsp
;	COMDAT ??$LoadInt_e@$0BH@@ioINILoader@@QAEHAAY0BH@$$CBDH@Z
_TEXT	SEGMENT
__k$ = -32						; size = 23
__$ArrayPad$ = -4					; size = 4
_k$ = 8							; size = 4
_i$ = 12						; size = 4
??$LoadInt_e@$0BH@@ioINILoader@@QAEHAAY0BH@$$CBDH@Z PROC ; ioINILoader::LoadInt_e<23>, COMDAT
; _this$ = ecx

; 118  : 	{

  00000	55		 push	 ebp
  00001	8b ec		 mov	 ebp, esp
  00003	83 ec 20	 sub	 esp, 32			; 00000020H
  00006	a1 00 00 00 00	 mov	 eax, DWORD PTR ___security_cookie
  0000b	33 c5		 xor	 eax, ebp
  0000d	89 45 fc	 mov	 DWORD PTR __$ArrayPad$[ebp], eax
  00010	8b 45 08	 mov	 eax, DWORD PTR _k$[ebp]

; 119  : 		_ENCSTR(k, _k);

  00013	8a 10		 mov	 dl, BYTE PTR [eax]
  00015	53		 push	 ebx
  00016	56		 push	 esi
  00017	8b f1		 mov	 esi, ecx
  00019	84 d2		 test	 dl, dl
  0001b	0f 84 2d 02 00
	00		 je	 $LN96@LoadInt_e@6
  00021	80 f2 ed	 xor	 dl, -19			; ffffffedH
  00024	88 55 e0	 mov	 BYTE PTR __k$[ebp], dl
  00027	8a 50 01	 mov	 dl, BYTE PTR [eax+1]
  0002a	84 d2		 test	 dl, dl
  0002c	0f 84 16 02 00
	00		 je	 $LN95@LoadInt_e@6
  00032	b1 ec		 mov	 cl, -20			; ffffffecH
  00034	32 d1		 xor	 dl, cl
  00036	88 55 e1	 mov	 BYTE PTR __k$[ebp+1], dl
  00039	8a 50 02	 mov	 dl, BYTE PTR [eax+2]
  0003c	84 d2		 test	 dl, dl
  0003e	0f 84 fe 01 00
	00		 je	 $LN94@LoadInt_e@6
  00044	80 f2 eb	 xor	 dl, -21			; ffffffebH
  00047	88 55 e2	 mov	 BYTE PTR __k$[ebp+2], dl
  0004a	8a 50 03	 mov	 dl, BYTE PTR [eax+3]
  0004d	84 d2		 test	 dl, dl
  0004f	0f 84 e7 01 00
	00		 je	 $LN93@LoadInt_e@6
  00055	b3 ea		 mov	 bl, -22			; ffffffeaH
  00057	32 d3		 xor	 dl, bl
  00059	88 55 e3	 mov	 BYTE PTR __k$[ebp+3], dl
  0005c	8a 50 04	 mov	 dl, BYTE PTR [eax+4]
  0005f	84 d2		 test	 dl, dl
  00061	0f 84 cf 01 00
	00		 je	 $LN92@LoadInt_e@6
  00067	80 f2 ed	 xor	 dl, -19			; ffffffedH
  0006a	88 55 e4	 mov	 BYTE PTR __k$[ebp+4], dl
  0006d	8a 50 05	 mov	 dl, BYTE PTR [eax+5]
  00070	84 d2		 test	 dl, dl
  00072	0f 84 b9 01 00
	00		 je	 $LN91@LoadInt_e@6
  00078	32 d1		 xor	 dl, cl
  0007a	88 55 e5	 mov	 BYTE PTR __k$[ebp+5], dl
  0007d	8a 50 06	 mov	 dl, BYTE PTR [eax+6]
  00080	84 d2		 test	 dl, dl
  00082	0f 84 a3 01 00
	00		 je	 $LN90@LoadInt_e@6
  00088	80 f2 eb	 xor	 dl, -21			; ffffffebH
  0008b	88 55 e6	 mov	 BYTE PTR __k$[ebp+6], dl
  0008e	8a 50 07	 mov	 dl, BYTE PTR [eax+7]
  00091	84 d2		 test	 dl, dl
  00093	0f 84 8d 01 00
	00		 je	 $LN89@LoadInt_e@6
  00099	32 d3		 xor	 dl, bl
  0009b	88 55 e7	 mov	 BYTE PTR __k$[ebp+7], dl
  0009e	8a 50 08	 mov	 dl, BYTE PTR [eax+8]
  000a1	84 d2		 test	 dl, dl
  000a3	0f 84 77 01 00
	00		 je	 $LN88@LoadInt_e@6
  000a9	80 f2 ed	 xor	 dl, -19			; ffffffedH
  000ac	88 55 e8	 mov	 BYTE PTR __k$[ebp+8], dl
  000af	8a 50 09	 mov	 dl, BYTE PTR [eax+9]
  000b2	84 d2		 test	 dl, dl
  000b4	0f 84 61 01 00
	00		 je	 $LN87@LoadInt_e@6
  000ba	32 d1		 xor	 dl, cl
  000bc	88 55 e9	 mov	 BYTE PTR __k$[ebp+9], dl
  000bf	8a 50 0a	 mov	 dl, BYTE PTR [eax+10]
  000c2	84 d2		 test	 dl, dl
  000c4	0f 84 4b 01 00
	00		 je	 $LN86@LoadInt_e@6
  000ca	80 f2 eb	 xor	 dl, -21			; ffffffebH
  000cd	88 55 ea	 mov	 BYTE PTR __k$[ebp+10], dl
  000d0	8a 50 0b	 mov	 dl, BYTE PTR [eax+11]
  000d3	84 d2		 test	 dl, dl
  000d5	0f 84 35 01 00
	00		 je	 $LN85@LoadInt_e@6
  000db	32 d3		 xor	 dl, bl
  000dd	88 55 eb	 mov	 BYTE PTR __k$[ebp+11], dl
  000e0	8a 50 0c	 mov	 dl, BYTE PTR [eax+12]
  000e3	84 d2		 test	 dl, dl
  000e5	0f 84 1f 01 00
	00		 je	 $LN84@LoadInt_e@6
  000eb	80 f2 ed	 xor	 dl, -19			; ffffffedH
  000ee	88 55 ec	 mov	 BYTE PTR __k$[ebp+12], dl
  000f1	8a 50 0d	 mov	 dl, BYTE PTR [eax+13]
  000f4	84 d2		 test	 dl, dl
  000f6	0f 84 09 01 00
	00		 je	 $LN83@LoadInt_e@6
  000fc	32 d1		 xor	 dl, cl
  000fe	88 55 ed	 mov	 BYTE PTR __k$[ebp+13], dl
  00101	8a 50 0e	 mov	 dl, BYTE PTR [eax+14]
  00104	84 d2		 test	 dl, dl
  00106	0f 84 f3 00 00
	00		 je	 $LN82@LoadInt_e@6
  0010c	80 f2 eb	 xor	 dl, -21			; ffffffebH
  0010f	88 55 ee	 mov	 BYTE PTR __k$[ebp+14], dl
  00112	8a 50 0f	 mov	 dl, BYTE PTR [eax+15]
  00115	84 d2		 test	 dl, dl
  00117	0f 84 dd 00 00
	00		 je	 $LN81@LoadInt_e@6
  0011d	32 d3		 xor	 dl, bl
  0011f	88 55 ef	 mov	 BYTE PTR __k$[ebp+15], dl
  00122	8a 50 10	 mov	 dl, BYTE PTR [eax+16]
  00125	84 d2		 test	 dl, dl
  00127	0f 84 c7 00 00
	00		 je	 $LN80@LoadInt_e@6
  0012d	80 f2 ed	 xor	 dl, -19			; ffffffedH
  00130	88 55 f0	 mov	 BYTE PTR __k$[ebp+16], dl
  00133	8a 50 11	 mov	 dl, BYTE PTR [eax+17]
  00136	84 d2		 test	 dl, dl
  00138	0f 84 b1 00 00
	00		 je	 $LN79@LoadInt_e@6
  0013e	32 d1		 xor	 dl, cl
  00140	88 55 f1	 mov	 BYTE PTR __k$[ebp+17], dl
  00143	8a 50 12	 mov	 dl, BYTE PTR [eax+18]
  00146	84 d2		 test	 dl, dl
  00148	0f 84 9b 00 00
	00		 je	 $LN78@LoadInt_e@6
  0014e	80 f2 eb	 xor	 dl, -21			; ffffffebH
  00151	88 55 f2	 mov	 BYTE PTR __k$[ebp+18], dl
  00154	8a 50 13	 mov	 dl, BYTE PTR [eax+19]
  00157	84 d2		 test	 dl, dl
  00159	0f 84 85 00 00
	00		 je	 $LN77@LoadInt_e@6
  0015f	32 d3		 xor	 dl, bl
  00161	88 55 f3	 mov	 BYTE PTR __k$[ebp+19], dl
  00164	8a 50 14	 mov	 dl, BYTE PTR [eax+20]
  00167	84 d2		 test	 dl, dl
  00169	74 73		 je	 SHORT $LN76@LoadInt_e@6
  0016b	80 f2 ed	 xor	 dl, -19			; ffffffedH
  0016e	88 55 f4	 mov	 BYTE PTR __k$[ebp+20], dl
  00171	8a 50 15	 mov	 dl, BYTE PTR [eax+21]
  00174	84 d2		 test	 dl, dl
  00176	74 61		 je	 SHORT $LN75@LoadInt_e@6
  00178	32 d1		 xor	 dl, cl
  0017a	80 78 16 00	 cmp	 BYTE PTR [eax+22], 0
  0017e	88 55 f5	 mov	 BYTE PTR __k$[ebp+21], dl
  00181	0f 84 cb 00 00
	00		 je	 $LN1@LoadInt_e@6
  00187	8a 50 17	 mov	 dl, BYTE PTR [eax+23]
  0018a	84 d2		 test	 dl, dl
  0018c	74 46		 je	 SHORT $LN73@LoadInt_e@6
  0018e	32 d3		 xor	 dl, bl
  00190	88 55 f7	 mov	 BYTE PTR __k$[ebp+23], dl
  00193	8a 50 18	 mov	 dl, BYTE PTR [eax+24]
  00196	84 d2		 test	 dl, dl
  00198	74 34		 je	 SHORT $LN72@LoadInt_e@6
  0019a	80 f2 ed	 xor	 dl, -19			; ffffffedH
  0019d	88 55 f8	 mov	 BYTE PTR __k$[ebp+24], dl
  001a0	8a 50 19	 mov	 dl, BYTE PTR [eax+25]
  001a3	84 d2		 test	 dl, dl
  001a5	74 1f		 je	 SHORT $LN71@LoadInt_e@6
  001a7	8a 40 1a	 mov	 al, BYTE PTR [eax+26]
  001aa	32 d1		 xor	 dl, cl
  001ac	88 55 f9	 mov	 BYTE PTR __k$[ebp+25], dl
  001af	84 c0		 test	 al, al
  001b1	74 0a		 je	 SHORT $LN70@LoadInt_e@6
  001b3	34 eb		 xor	 al, -21			; ffffffebH
  001b5	88 45 fa	 mov	 BYTE PTR __k$[ebp+26], al
  001b8	e9 95 00 00 00	 jmp	 $LN1@LoadInt_e@6
$LN70@LoadInt_e@6:
  001bd	c6 45 fa eb	 mov	 BYTE PTR __k$[ebp+26], -21 ; ffffffebH
  001c1	e9 8c 00 00 00	 jmp	 $LN1@LoadInt_e@6
$LN71@LoadInt_e@6:
  001c6	88 4d f9	 mov	 BYTE PTR __k$[ebp+25], cl
  001c9	e9 84 00 00 00	 jmp	 $LN1@LoadInt_e@6
$LN72@LoadInt_e@6:
  001ce	c6 45 f8 ed	 mov	 BYTE PTR __k$[ebp+24], -19 ; ffffffedH
  001d2	eb 7e		 jmp	 SHORT $LN1@LoadInt_e@6
$LN73@LoadInt_e@6:
  001d4	88 5d f7	 mov	 BYTE PTR __k$[ebp+23], bl
  001d7	eb 79		 jmp	 SHORT $LN1@LoadInt_e@6
$LN75@LoadInt_e@6:
  001d9	88 4d f5	 mov	 BYTE PTR __k$[ebp+21], cl
  001dc	eb 74		 jmp	 SHORT $LN1@LoadInt_e@6
$LN76@LoadInt_e@6:
  001de	c6 45 f4 ed	 mov	 BYTE PTR __k$[ebp+20], -19 ; ffffffedH
  001e2	eb 6e		 jmp	 SHORT $LN1@LoadInt_e@6
$LN77@LoadInt_e@6:
  001e4	88 5d f3	 mov	 BYTE PTR __k$[ebp+19], bl
  001e7	eb 69		 jmp	 SHORT $LN1@LoadInt_e@6
$LN78@LoadInt_e@6:
  001e9	c6 45 f2 eb	 mov	 BYTE PTR __k$[ebp+18], -21 ; ffffffebH
  001ed	eb 63		 jmp	 SHORT $LN1@LoadInt_e@6
$LN79@LoadInt_e@6:
  001ef	88 4d f1	 mov	 BYTE PTR __k$[ebp+17], cl
  001f2	eb 5e		 jmp	 SHORT $LN1@LoadInt_e@6
$LN80@LoadInt_e@6:
  001f4	c6 45 f0 ed	 mov	 BYTE PTR __k$[ebp+16], -19 ; ffffffedH
  001f8	eb 58		 jmp	 SHORT $LN1@LoadInt_e@6
$LN81@LoadInt_e@6:
  001fa	88 5d ef	 mov	 BYTE PTR __k$[ebp+15], bl
  001fd	eb 53		 jmp	 SHORT $LN1@LoadInt_e@6
$LN82@LoadInt_e@6:
  001ff	c6 45 ee eb	 mov	 BYTE PTR __k$[ebp+14], -21 ; ffffffebH
  00203	eb 4d		 jmp	 SHORT $LN1@LoadInt_e@6
$LN83@LoadInt_e@6:
  00205	88 4d ed	 mov	 BYTE PTR __k$[ebp+13], cl
  00208	eb 48		 jmp	 SHORT $LN1@LoadInt_e@6
$LN84@LoadInt_e@6:
  0020a	c6 45 ec ed	 mov	 BYTE PTR __k$[ebp+12], -19 ; ffffffedH
  0020e	eb 42		 jmp	 SHORT $LN1@LoadInt_e@6
$LN85@LoadInt_e@6:
  00210	88 5d eb	 mov	 BYTE PTR __k$[ebp+11], bl
  00213	eb 3d		 jmp	 SHORT $LN1@LoadInt_e@6
$LN86@LoadInt_e@6:
  00215	c6 45 ea eb	 mov	 BYTE PTR __k$[ebp+10], -21 ; ffffffebH
  00219	eb 37		 jmp	 SHORT $LN1@LoadInt_e@6
$LN87@LoadInt_e@6:
  0021b	88 4d e9	 mov	 BYTE PTR __k$[ebp+9], cl
  0021e	eb 32		 jmp	 SHORT $LN1@LoadInt_e@6
$LN88@LoadInt_e@6:
  00220	c6 45 e8 ed	 mov	 BYTE PTR __k$[ebp+8], -19 ; ffffffedH
  00224	eb 2c		 jmp	 SHORT $LN1@LoadInt_e@6
$LN89@LoadInt_e@6:
  00226	88 5d e7	 mov	 BYTE PTR __k$[ebp+7], bl
  00229	eb 27		 jmp	 SHORT $LN1@LoadInt_e@6
$LN90@LoadInt_e@6:
  0022b	c6 45 e6 eb	 mov	 BYTE PTR __k$[ebp+6], -21 ; ffffffebH
  0022f	eb 21		 jmp	 SHORT $LN1@LoadInt_e@6
$LN91@LoadInt_e@6:
  00231	88 4d e5	 mov	 BYTE PTR __k$[ebp+5], cl
  00234	eb 1c		 jmp	 SHORT $LN1@LoadInt_e@6
$LN92@LoadInt_e@6:
  00236	c6 45 e4 ed	 mov	 BYTE PTR __k$[ebp+4], -19 ; ffffffedH
  0023a	eb 16		 jmp	 SHORT $LN1@LoadInt_e@6
$LN93@LoadInt_e@6:
  0023c	c6 45 e3 ea	 mov	 BYTE PTR __k$[ebp+3], -22 ; ffffffeaH
  00240	eb 10		 jmp	 SHORT $LN1@LoadInt_e@6
$LN94@LoadInt_e@6:
  00242	c6 45 e2 eb	 mov	 BYTE PTR __k$[ebp+2], -21 ; ffffffebH
  00246	eb 0a		 jmp	 SHORT $LN1@LoadInt_e@6
$LN95@LoadInt_e@6:
  00248	c6 45 e1 ec	 mov	 BYTE PTR __k$[ebp+1], -20 ; ffffffecH
  0024c	eb 04		 jmp	 SHORT $LN1@LoadInt_e@6
$LN96@LoadInt_e@6:
  0024e	c6 45 e0 ed	 mov	 BYTE PTR __k$[ebp], -19	; ffffffedH
$LN1@LoadInt_e@6:
  00252	6a 05		 push	 5
  00254	8d 45 e0	 lea	 eax, DWORD PTR __k$[ebp]
  00257	c6 45 f6 00	 mov	 BYTE PTR __k$[ebp+22], 0
  0025b	5a		 pop	 edx
$LL104@LoadInt_e@6:
  0025c	81 30 ed ec eb
	ea		 xor	 DWORD PTR [eax], -353637139 ; eaebecedH
  00262	83 c0 04	 add	 eax, 4
  00265	4a		 dec	 edx
  00266	75 f4		 jne	 SHORT $LL104@LoadInt_e@6
  00268	6a 14		 push	 20			; 00000014H
  0026a	58		 pop	 eax
$LL101@LoadInt_e@6:
  0026b	8b c8		 mov	 ecx, eax
  0026d	81 e1 03 00 00
	80		 and	 ecx, -2147483645	; 80000003H
  00273	79 05		 jns	 SHORT $LN111@LoadInt_e@6
  00275	49		 dec	 ecx
  00276	83 c9 fc	 or	 ecx, -4			; fffffffcH
  00279	41		 inc	 ecx
$LN111@LoadInt_e@6:
  0027a	b2 ed		 mov	 dl, -19			; ffffffedH
  0027c	2a d1		 sub	 dl, cl
  0027e	30 54 05 e0	 xor	 BYTE PTR __k$[ebp+eax], dl
  00282	40		 inc	 eax
  00283	83 f8 16	 cmp	 eax, 22			; 00000016H
  00286	7c e3		 jl	 SHORT $LL101@LoadInt_e@6

; 120  : 		return LoadInt(_k, i);

  00288	ff 75 0c	 push	 DWORD PTR _i$[ebp]
  0028b	8d 45 e0	 lea	 eax, DWORD PTR __k$[ebp]
  0028e	50		 push	 eax
  0028f	8b ce		 mov	 ecx, esi
  00291	ff 15 00 00 00
	00		 call	 DWORD PTR __imp_?LoadInt@ioINILoader@@QAEHPBDH@Z

; 121  : 	}

  00297	8b 4d fc	 mov	 ecx, DWORD PTR __$ArrayPad$[ebp]
  0029a	5e		 pop	 esi
  0029b	33 cd		 xor	 ecx, ebp
  0029d	5b		 pop	 ebx
  0029e	e8 00 00 00 00	 call	 @__security_check_cookie@4
  002a3	c9		 leave
  002a4	c2 08 00	 ret	 8
??$LoadInt_e@$0BH@@ioINILoader@@QAEHAAY0BH@$$CBDH@Z ENDP ; ioINILoader::LoadInt_e<23>
_TEXT	ENDS
PUBLIC	_this$GSCopy$
PUBLIC	__$ArrayPad$
PUBLIC	??$LoadString_e@$0M@@ioINILoader@@QAEXAAY0M@$$CBDAAY00$$CBDPADH@Z ; ioINILoader::LoadString_e<12>
; Function compile flags: /Ogsp
;	COMDAT ??$LoadString_e@$0M@@ioINILoader@@QAEXAAY0M@$$CBDAAY00$$CBDPADH@Z
_TEXT	SEGMENT
_this$GSCopy$ = -24					; size = 4
__k$ = -20						; size = 12
__$ArrayPad$ = -4					; size = 4
_k$ = 8							; size = 4
_d$ = 12						; size = 4
_b$ = 16						; size = 4
_i$ = 20						; size = 4
??$LoadString_e@$0M@@ioINILoader@@QAEXAAY0M@$$CBDAAY00$$CBDPADH@Z PROC ; ioINILoader::LoadString_e<12>, COMDAT
; _this$ = ecx

; 161  : 	{

  00000	55		 push	 ebp
  00001	8b ec		 mov	 ebp, esp
  00003	83 ec 18	 sub	 esp, 24			; 00000018H
  00006	a1 00 00 00 00	 mov	 eax, DWORD PTR ___security_cookie
  0000b	33 c5		 xor	 eax, ebp
  0000d	89 45 fc	 mov	 DWORD PTR __$ArrayPad$[ebp], eax
  00010	8b 45 08	 mov	 eax, DWORD PTR _k$[ebp]

; 162  : 		_ENCSTR(k, _k);

  00013	8a 10		 mov	 dl, BYTE PTR [eax]
  00015	56		 push	 esi
  00016	8b 75 0c	 mov	 esi, DWORD PTR _d$[ebp]
  00019	57		 push	 edi
  0001a	8b 7d 10	 mov	 edi, DWORD PTR _b$[ebp]
  0001d	89 4d e8	 mov	 DWORD PTR _this$GSCopy$[ebp], ecx
  00020	84 d2		 test	 dl, dl
  00022	0f 84 32 01 00
	00		 je	 $LN96@LoadString@3
  00028	80 f2 ed	 xor	 dl, -19			; ffffffedH
  0002b	88 55 ec	 mov	 BYTE PTR __k$[ebp], dl
  0002e	8a 50 01	 mov	 dl, BYTE PTR [eax+1]
  00031	84 d2		 test	 dl, dl
  00033	0f 84 1b 01 00
	00		 je	 $LN95@LoadString@3
  00039	80 f2 ec	 xor	 dl, -20			; ffffffecH
  0003c	88 55 ed	 mov	 BYTE PTR __k$[ebp+1], dl
  0003f	8a 50 02	 mov	 dl, BYTE PTR [eax+2]
  00042	84 d2		 test	 dl, dl
  00044	0f 84 04 01 00
	00		 je	 $LN94@LoadString@3
  0004a	b1 eb		 mov	 cl, -21			; ffffffebH
  0004c	32 d1		 xor	 dl, cl
  0004e	88 55 ee	 mov	 BYTE PTR __k$[ebp+2], dl
  00051	8a 50 03	 mov	 dl, BYTE PTR [eax+3]
  00054	84 d2		 test	 dl, dl
  00056	0f 84 ec 00 00
	00		 je	 $LN93@LoadString@3
  0005c	80 f2 ea	 xor	 dl, -22			; ffffffeaH
  0005f	88 55 ef	 mov	 BYTE PTR __k$[ebp+3], dl
  00062	8a 50 04	 mov	 dl, BYTE PTR [eax+4]
  00065	84 d2		 test	 dl, dl
  00067	0f 84 d5 00 00
	00		 je	 $LN92@LoadString@3
  0006d	80 f2 ed	 xor	 dl, -19			; ffffffedH
  00070	88 55 f0	 mov	 BYTE PTR __k$[ebp+4], dl
  00073	8a 50 05	 mov	 dl, BYTE PTR [eax+5]
  00076	84 d2		 test	 dl, dl
  00078	0f 84 be 00 00
	00		 je	 $LN91@LoadString@3
  0007e	80 f2 ec	 xor	 dl, -20			; ffffffecH
  00081	88 55 f1	 mov	 BYTE PTR __k$[ebp+5], dl
  00084	8a 50 06	 mov	 dl, BYTE PTR [eax+6]
  00087	84 d2		 test	 dl, dl
  00089	0f 84 a8 00 00
	00		 je	 $LN90@LoadString@3
  0008f	32 d1		 xor	 dl, cl
  00091	88 55 f2	 mov	 BYTE PTR __k$[ebp+6], dl
  00094	8a 50 07	 mov	 dl, BYTE PTR [eax+7]
  00097	84 d2		 test	 dl, dl
  00099	0f 84 92 00 00
	00		 je	 $LN89@LoadString@3
  0009f	80 f2 ea	 xor	 dl, -22			; ffffffeaH
  000a2	88 55 f3	 mov	 BYTE PTR __k$[ebp+7], dl
  000a5	8a 50 08	 mov	 dl, BYTE PTR [eax+8]
  000a8	84 d2		 test	 dl, dl
  000aa	74 7f		 je	 SHORT $LN88@LoadString@3
  000ac	80 f2 ed	 xor	 dl, -19			; ffffffedH
  000af	88 55 f4	 mov	 BYTE PTR __k$[ebp+8], dl
  000b2	8a 50 09	 mov	 dl, BYTE PTR [eax+9]
  000b5	84 d2		 test	 dl, dl
  000b7	74 6c		 je	 SHORT $LN87@LoadString@3
  000b9	80 f2 ec	 xor	 dl, -20			; ffffffecH
  000bc	88 55 f5	 mov	 BYTE PTR __k$[ebp+9], dl
  000bf	8a 50 0a	 mov	 dl, BYTE PTR [eax+10]
  000c2	84 d2		 test	 dl, dl
  000c4	74 5a		 je	 SHORT $LN86@LoadString@3
  000c6	32 d1		 xor	 dl, cl
  000c8	80 78 0b 00	 cmp	 BYTE PTR [eax+11], 0
  000cc	88 55 f6	 mov	 BYTE PTR __k$[ebp+10], dl
  000cf	0f 84 89 00 00
	00		 je	 $LN111@LoadString@3
  000d5	8a 50 0c	 mov	 dl, BYTE PTR [eax+12]
  000d8	84 d2		 test	 dl, dl
  000da	74 3e		 je	 SHORT $LN84@LoadString@3
  000dc	80 f2 ed	 xor	 dl, -19			; ffffffedH
  000df	88 55 f8	 mov	 BYTE PTR __k$[ebp+12], dl
  000e2	8a 50 0d	 mov	 dl, BYTE PTR [eax+13]
  000e5	84 d2		 test	 dl, dl
  000e7	74 2b		 je	 SHORT $LN83@LoadString@3
  000e9	80 f2 ec	 xor	 dl, -20			; ffffffecH
  000ec	88 55 f9	 mov	 BYTE PTR __k$[ebp+13], dl
  000ef	8a 50 0e	 mov	 dl, BYTE PTR [eax+14]
  000f2	84 d2		 test	 dl, dl
  000f4	74 19		 je	 SHORT $LN82@LoadString@3
  000f6	8a 40 0f	 mov	 al, BYTE PTR [eax+15]
  000f9	32 d1		 xor	 dl, cl
  000fb	88 55 fa	 mov	 BYTE PTR __k$[ebp+14], dl
  000fe	84 c0		 test	 al, al
  00100	74 07		 je	 SHORT $LN81@LoadString@3
  00102	34 ea		 xor	 al, -22			; ffffffeaH
  00104	88 45 fb	 mov	 BYTE PTR __k$[ebp+15], al
  00107	eb 55		 jmp	 SHORT $LN111@LoadString@3
$LN81@LoadString@3:
  00109	c6 45 fb ea	 mov	 BYTE PTR __k$[ebp+15], -22 ; ffffffeaH
  0010d	eb 4f		 jmp	 SHORT $LN111@LoadString@3
$LN82@LoadString@3:
  0010f	88 4d fa	 mov	 BYTE PTR __k$[ebp+14], cl
  00112	eb 4a		 jmp	 SHORT $LN111@LoadString@3
$LN83@LoadString@3:
  00114	c6 45 f9 ec	 mov	 BYTE PTR __k$[ebp+13], -20 ; ffffffecH
  00118	eb 44		 jmp	 SHORT $LN111@LoadString@3
$LN84@LoadString@3:
  0011a	c6 45 f8 ed	 mov	 BYTE PTR __k$[ebp+12], -19 ; ffffffedH
  0011e	eb 3e		 jmp	 SHORT $LN111@LoadString@3
$LN86@LoadString@3:
  00120	88 4d f6	 mov	 BYTE PTR __k$[ebp+10], cl
  00123	eb 39		 jmp	 SHORT $LN111@LoadString@3
$LN87@LoadString@3:
  00125	c6 45 f5 ec	 mov	 BYTE PTR __k$[ebp+9], -20 ; ffffffecH
  00129	eb 33		 jmp	 SHORT $LN111@LoadString@3
$LN88@LoadString@3:
  0012b	c6 45 f4 ed	 mov	 BYTE PTR __k$[ebp+8], -19 ; ffffffedH
  0012f	eb 2d		 jmp	 SHORT $LN111@LoadString@3
$LN89@LoadString@3:
  00131	c6 45 f3 ea	 mov	 BYTE PTR __k$[ebp+7], -22 ; ffffffeaH
  00135	eb 27		 jmp	 SHORT $LN111@LoadString@3
$LN90@LoadString@3:
  00137	88 4d f2	 mov	 BYTE PTR __k$[ebp+6], cl
  0013a	eb 22		 jmp	 SHORT $LN111@LoadString@3
$LN91@LoadString@3:
  0013c	c6 45 f1 ec	 mov	 BYTE PTR __k$[ebp+5], -20 ; ffffffecH
  00140	eb 1c		 jmp	 SHORT $LN111@LoadString@3
$LN92@LoadString@3:
  00142	c6 45 f0 ed	 mov	 BYTE PTR __k$[ebp+4], -19 ; ffffffedH
  00146	eb 16		 jmp	 SHORT $LN111@LoadString@3
$LN93@LoadString@3:
  00148	c6 45 ef ea	 mov	 BYTE PTR __k$[ebp+3], -22 ; ffffffeaH
  0014c	eb 10		 jmp	 SHORT $LN111@LoadString@3
$LN94@LoadString@3:
  0014e	c6 45 ee eb	 mov	 BYTE PTR __k$[ebp+2], -21 ; ffffffebH
  00152	eb 0a		 jmp	 SHORT $LN111@LoadString@3
$LN95@LoadString@3:
  00154	c6 45 ed ec	 mov	 BYTE PTR __k$[ebp+1], -20 ; ffffffecH
  00158	eb 04		 jmp	 SHORT $LN111@LoadString@3
$LN96@LoadString@3:
  0015a	c6 45 ec ed	 mov	 BYTE PTR __k$[ebp], -19	; ffffffedH
$LN111@LoadString@3:
  0015e	6a 02		 push	 2
  00160	8d 45 ec	 lea	 eax, DWORD PTR __k$[ebp]
  00163	c6 45 f7 00	 mov	 BYTE PTR __k$[ebp+11], 0
  00167	5a		 pop	 edx
$LL104@LoadString@3:
  00168	81 30 ed ec eb
	ea		 xor	 DWORD PTR [eax], -353637139 ; eaebecedH
  0016e	83 c0 04	 add	 eax, 4
  00171	4a		 dec	 edx
  00172	75 f4		 jne	 SHORT $LL104@LoadString@3
  00174	6a 08		 push	 8
  00176	58		 pop	 eax
$LL101@LoadString@3:
  00177	8b c8		 mov	 ecx, eax
  00179	81 e1 03 00 00
	80		 and	 ecx, -2147483645	; 80000003H
  0017f	79 05		 jns	 SHORT $LN112@LoadString@3
  00181	49		 dec	 ecx
  00182	83 c9 fc	 or	 ecx, -4			; fffffffcH
  00185	41		 inc	 ecx
$LN112@LoadString@3:
  00186	b2 ed		 mov	 dl, -19			; ffffffedH
  00188	2a d1		 sub	 dl, cl
  0018a	30 54 05 ec	 xor	 BYTE PTR __k$[ebp+eax], dl
  0018e	40		 inc	 eax
  0018f	83 f8 0b	 cmp	 eax, 11			; 0000000bH
  00192	7c e3		 jl	 SHORT $LL101@LoadString@3

; 163  : 		LoadString(_k, d, b, i);

  00194	ff 75 14	 push	 DWORD PTR _i$[ebp]
  00197	8b 4d e8	 mov	 ecx, DWORD PTR _this$GSCopy$[ebp]
  0019a	57		 push	 edi
  0019b	56		 push	 esi
  0019c	8d 45 ec	 lea	 eax, DWORD PTR __k$[ebp]
  0019f	50		 push	 eax
  001a0	ff 15 00 00 00
	00		 call	 DWORD PTR __imp_?LoadStringA@ioINILoader@@QAEXPBD0PADH@Z

; 164  : 	}

  001a6	8b 4d fc	 mov	 ecx, DWORD PTR __$ArrayPad$[ebp]
  001a9	5f		 pop	 edi
  001aa	33 cd		 xor	 ecx, ebp
  001ac	5e		 pop	 esi
  001ad	e8 00 00 00 00	 call	 @__security_check_cookie@4
  001b2	c9		 leave
  001b3	c2 10 00	 ret	 16			; 00000010H
??$LoadString_e@$0M@@ioINILoader@@QAEXAAY0M@$$CBDAAY00$$CBDPADH@Z ENDP ; ioINILoader::LoadString_e<12>
_TEXT	ENDS
PUBLIC	??$_Copy_impl@PAVioHashString@@PAV1@@std@@YAPAVioHashString@@PAV1@00@Z ; std::_Copy_impl<ioHashString *,ioHashString *>
; Function compile flags: /Ogsp
; File c:\program files (x86)\microsoft visual studio 10.0\vc\include\xutility
;	COMDAT ??$_Copy_impl@PAVioHashString@@PAV1@@std@@YAPAVioHashString@@PAV1@00@Z
_TEXT	SEGMENT
__Cat$553761 = -4					; size = 1
__First$ = 8						; size = 4
__Last$ = 12						; size = 4
__Dest$ = 16						; size = 4
??$_Copy_impl@PAVioHashString@@PAV1@@std@@YAPAVioHashString@@PAV1@00@Z PROC ; std::_Copy_impl<ioHashString *,ioHashString *>, COMDAT

; 2163 : 	{	// copy [_First, _Last) to [_Dest, ...)

  00000	55		 push	 ebp
  00001	8b ec		 mov	 ebp, esp
  00003	51		 push	 ecx

; 2164 : 	return (_Copy_impl(_First, _Last,
; 2165 : 		_Dest, _Ptr_cat(_First, _Dest)));

  00004	ff 75 fc	 push	 DWORD PTR __Cat$553761[ebp]
  00007	ff 75 10	 push	 DWORD PTR __Dest$[ebp]
  0000a	ff 75 0c	 push	 DWORD PTR __Last$[ebp]
  0000d	ff 75 08	 push	 DWORD PTR __First$[ebp]
  00010	e8 00 00 00 00	 call	 ??$_Copy_impl@PAVioHashString@@PAV1@@std@@YAPAVioHashString@@PAV1@00U_Nonscalar_ptr_iterator_tag@0@@Z ; std::_Copy_impl<ioHashString *,ioHashString *>
  00015	83 c4 10	 add	 esp, 16			; 00000010H

; 2166 : 	}

  00018	c9		 leave
  00019	c3		 ret	 0
??$_Copy_impl@PAVioHashString@@PAV1@@std@@YAPAVioHashString@@PAV1@00@Z ENDP ; std::_Copy_impl<ioHashString *,ioHashString *>
_TEXT	ENDS
PUBLIC	??$_Cons_val@V?$allocator@K@std@@KK@std@@YAXAAV?$allocator@K@0@PAK$$QAK@Z ; std::_Cons_val<std::allocator<unsigned long>,unsigned long,unsigned long>
; Function compile flags: /Ogsp
; File c:\program files (x86)\microsoft visual studio 10.0\vc\include\xmemory
;	COMDAT ??$_Cons_val@V?$allocator@K@std@@KK@std@@YAXAAV?$allocator@K@0@PAK$$QAK@Z
_TEXT	SEGMENT
__Alval$ = 8						; size = 4
__Pdest$ = 12						; size = 4
__Src$ = 16						; size = 4
??$_Cons_val@V?$allocator@K@std@@KK@std@@YAXAAV?$allocator@K@0@PAK$$QAK@Z PROC ; std::_Cons_val<std::allocator<unsigned long>,unsigned long,unsigned long>, COMDAT

; 279  : 	{	// construct using allocator

  00000	55		 push	 ebp
  00001	8b ec		 mov	 ebp, esp

; 280  : 	_Alval.construct(_Pdest, _STD forward<_Ty2>(_Src));

  00003	8b 45 0c	 mov	 eax, DWORD PTR __Pdest$[ebp]
  00006	85 c0		 test	 eax, eax
  00008	74 07		 je	 SHORT $LN7@Cons_val
  0000a	8b 4d 10	 mov	 ecx, DWORD PTR __Src$[ebp]
  0000d	8b 09		 mov	 ecx, DWORD PTR [ecx]
  0000f	89 08		 mov	 DWORD PTR [eax], ecx
$LN7@Cons_val:

; 281  : 	}

  00011	5d		 pop	 ebp
  00012	c3		 ret	 0
??$_Cons_val@V?$allocator@K@std@@KK@std@@YAXAAV?$allocator@K@0@PAK$$QAK@Z ENDP ; std::_Cons_val<std::allocator<unsigned long>,unsigned long,unsigned long>
_TEXT	ENDS
PUBLIC	??$construct@AAVioHashString@@@?$allocator@VioHashString@@@std@@QAEXPAVioHashString@@AAV2@@Z ; std::allocator<ioHashString>::construct<ioHashString &>
;	COMDAT xdata$x
; File c:\program files (x86)\microsoft visual studio 10.0\vc\include\utility
xdata$x	SEGMENT
__unwindtable$??$construct@AAVioHashString@@@?$allocator@VioHashString@@@std@@QAEXPAVioHashString@@AAV2@@Z DD 0ffffffffH
	DD	FLAT:__unwindfunclet$??$construct@AAVioHashString@@@?$allocator@VioHashString@@@std@@QAEXPAVioHashString@@AAV2@@Z$0
__ehfuncinfo$??$construct@AAVioHashString@@@?$allocator@VioHashString@@@std@@QAEXPAVioHashString@@AAV2@@Z DD 019930522H
	DD	01H
	DD	FLAT:__unwindtable$??$construct@AAVioHashString@@@?$allocator@VioHashString@@@std@@QAEXPAVioHashString@@AAV2@@Z
	DD	2 DUP(00H)
	DD	2 DUP(00H)
	DD	00H
	DD	01H
; Function compile flags: /Ogsp
; File c:\program files (x86)\microsoft visual studio 10.0\vc\include\xmemory
xdata$x	ENDS
;	COMDAT ??$construct@AAVioHashString@@@?$allocator@VioHashString@@@std@@QAEXPAVioHashString@@AAV2@@Z
_TEXT	SEGMENT
$T553792 = -16						; size = 4
__$EHRec$ = -12						; size = 12
__Ptr$ = 8						; size = 4
__Val$ = 12						; size = 4
??$construct@AAVioHashString@@@?$allocator@VioHashString@@@std@@QAEXPAVioHashString@@AAV2@@Z PROC ; std::allocator<ioHashString>::construct<ioHashString &>, COMDAT
; _this$ = ecx

; 206  : 		void construct(pointer _Ptr, _Other&& _Val)

  00000	6a 04		 push	 4
  00002	b8 00 00 00 00	 mov	 eax, __ehhandler$??$construct@AAVioHashString@@@?$allocator@VioHashString@@@std@@QAEXPAVioHashString@@AAV2@@Z
  00007	e8 00 00 00 00	 call	 __EH_prolog3

; 207  : 		{	// construct object at _Ptr with value _Val
; 208  : 		::new ((void _FARQ *)_Ptr) _Ty(_STD forward<_Other>(_Val));

  0000c	8b 4d 08	 mov	 ecx, DWORD PTR __Ptr$[ebp]
  0000f	89 4d f0	 mov	 DWORD PTR $T553792[ebp], ecx
  00012	83 65 fc 00	 and	 DWORD PTR __$EHRec$[ebp+8], 0
  00016	85 c9		 test	 ecx, ecx
  00018	74 09		 je	 SHORT $LN3@construct@2
  0001a	ff 75 0c	 push	 DWORD PTR __Val$[ebp]
  0001d	ff 15 00 00 00
	00		 call	 DWORD PTR __imp_??0ioHashString@@QAE@ABV0@@Z
$LN3@construct@2:

; 209  : 		}

  00023	e8 00 00 00 00	 call	 __EH_epilog3
  00028	c2 08 00	 ret	 8
_TEXT	ENDS
;	COMDAT text$x
text$x	SEGMENT
__unwindfunclet$??$construct@AAVioHashString@@@?$allocator@VioHashString@@@std@@QAEXPAVioHashString@@AAV2@@Z$0:
  00000	ff 75 08	 push	 DWORD PTR __Ptr$[ebp]
  00003	ff 75 f0	 push	 DWORD PTR $T553792[ebp]
  00006	e8 00 00 00 00	 call	 ??3@YAXPAX0@Z		; operator delete
  0000b	59		 pop	 ecx
  0000c	59		 pop	 ecx
  0000d	c3		 ret	 0
__ehhandler$??$construct@AAVioHashString@@@?$allocator@VioHashString@@@std@@QAEXPAVioHashString@@AAV2@@Z:
  0000e	8b 54 24 08	 mov	 edx, DWORD PTR [esp+8]
  00012	8d 42 0c	 lea	 eax, DWORD PTR [edx+12]
  00015	8b 4a ec	 mov	 ecx, DWORD PTR [edx-20]
  00018	33 c8		 xor	 ecx, eax
  0001a	e8 00 00 00 00	 call	 @__security_check_cookie@4
  0001f	b8 00 00 00 00	 mov	 eax, OFFSET __ehfuncinfo$??$construct@AAVioHashString@@@?$allocator@VioHashString@@@std@@QAEXPAVioHashString@@AAV2@@Z
  00024	e9 00 00 00 00	 jmp	 ___CxxFrameHandler3
text$x	ENDS
??$construct@AAVioHashString@@@?$allocator@VioHashString@@@std@@QAEXPAVioHashString@@AAV2@@Z ENDP ; std::allocator<ioHashString>::construct<ioHashString &>
PUBLIC	?construct@?$allocator@VioHashString@@@std@@QAEXPAVioHashString@@$$QAV3@@Z ; std::allocator<ioHashString>::construct
;	COMDAT xdata$x
; File c:\program files (x86)\microsoft visual studio 10.0\vc\include\utility
xdata$x	SEGMENT
__unwindtable$?construct@?$allocator@VioHashString@@@std@@QAEXPAVioHashString@@$$QAV3@@Z DD 0ffffffffH
	DD	FLAT:__unwindfunclet$?construct@?$allocator@VioHashString@@@std@@QAEXPAVioHashString@@$$QAV3@@Z$0
__ehfuncinfo$?construct@?$allocator@VioHashString@@@std@@QAEXPAVioHashString@@$$QAV3@@Z DD 019930522H
	DD	01H
	DD	FLAT:__unwindtable$?construct@?$allocator@VioHashString@@@std@@QAEXPAVioHashString@@$$QAV3@@Z
	DD	2 DUP(00H)
	DD	2 DUP(00H)
	DD	00H
	DD	01H
; Function compile flags: /Ogsp
; File c:\program files (x86)\microsoft visual studio 10.0\vc\include\xmemory
xdata$x	ENDS
;	COMDAT ?construct@?$allocator@VioHashString@@@std@@QAEXPAVioHashString@@$$QAV3@@Z
_TEXT	SEGMENT
$T553811 = -16						; size = 4
__$EHRec$ = -12						; size = 12
__Ptr$ = 8						; size = 4
__Val$ = 12						; size = 4
?construct@?$allocator@VioHashString@@@std@@QAEXPAVioHashString@@$$QAV3@@Z PROC ; std::allocator<ioHashString>::construct, COMDAT
; _this$ = ecx

; 201  : 		{	// construct object at _Ptr with value _Val

  00000	6a 04		 push	 4
  00002	b8 00 00 00 00	 mov	 eax, __ehhandler$?construct@?$allocator@VioHashString@@@std@@QAEXPAVioHashString@@$$QAV3@@Z
  00007	e8 00 00 00 00	 call	 __EH_prolog3

; 202  : 		::new ((void _FARQ *)_Ptr) _Ty(_STD forward<_Ty>(_Val));

  0000c	8b 4d 08	 mov	 ecx, DWORD PTR __Ptr$[ebp]
  0000f	89 4d f0	 mov	 DWORD PTR $T553811[ebp], ecx
  00012	83 65 fc 00	 and	 DWORD PTR __$EHRec$[ebp+8], 0
  00016	85 c9		 test	 ecx, ecx
  00018	74 09		 je	 SHORT $LN3@construct@3
  0001a	ff 75 0c	 push	 DWORD PTR __Val$[ebp]
  0001d	ff 15 00 00 00
	00		 call	 DWORD PTR __imp_??0ioHashString@@QAE@ABV0@@Z
$LN3@construct@3:

; 203  : 		}

  00023	e8 00 00 00 00	 call	 __EH_epilog3
  00028	c2 08 00	 ret	 8
_TEXT	ENDS
;	COMDAT text$x
text$x	SEGMENT
__unwindfunclet$?construct@?$allocator@VioHashString@@@std@@QAEXPAVioHashString@@$$QAV3@@Z$0:
  00000	ff 75 08	 push	 DWORD PTR __Ptr$[ebp]
  00003	ff 75 f0	 push	 DWORD PTR $T553811[ebp]
  00006	e8 00 00 00 00	 call	 ??3@YAXPAX0@Z		; operator delete
  0000b	59		 pop	 ecx
  0000c	59		 pop	 ecx
  0000d	c3		 ret	 0
__ehhandler$?construct@?$allocator@VioHashString@@@std@@QAEXPAVioHashString@@$$QAV3@@Z:
  0000e	8b 54 24 08	 mov	 edx, DWORD PTR [esp+8]
  00012	8d 42 0c	 lea	 eax, DWORD PTR [edx+12]
  00015	8b 4a ec	 mov	 ecx, DWORD PTR [edx-20]
  00018	33 c8		 xor	 ecx, eax
  0001a	e8 00 00 00 00	 call	 @__security_check_cookie@4
  0001f	b8 00 00 00 00	 mov	 eax, OFFSET __ehfuncinfo$?construct@?$allocator@VioHashString@@@std@@QAEXPAVioHashString@@$$QAV3@@Z
  00024	e9 00 00 00 00	 jmp	 ___CxxFrameHandler3
text$x	ENDS
?construct@?$allocator@VioHashString@@@std@@QAEXPAVioHashString@@$$QAV3@@Z ENDP ; std::allocator<ioHashString>::construct
PUBLIC	?construct@?$allocator@UForceInfo@@@std@@QAEXPAUForceInfo@@ABU3@@Z ; std::allocator<ForceInfo>::construct
; Function compile flags: /Ogsp
;	COMDAT ?construct@?$allocator@UForceInfo@@@std@@QAEXPAUForceInfo@@ABU3@@Z
_TEXT	SEGMENT
__Ptr$ = 8						; size = 4
__Val$ = 12						; size = 4
?construct@?$allocator@UForceInfo@@@std@@QAEXPAUForceInfo@@ABU3@@Z PROC ; std::allocator<ForceInfo>::construct, COMDAT
; _this$ = ecx

; 196  : 		{	// construct object at _Ptr with value _Val

  00000	55		 push	 ebp
  00001	8b ec		 mov	 ebp, esp
  00003	57		 push	 edi

; 197  : 		_Construct(_Ptr, _Val);

  00004	8b 7d 08	 mov	 edi, DWORD PTR __Ptr$[ebp]
  00007	85 ff		 test	 edi, edi
  00009	74 08		 je	 SHORT $LN5@construct@4
  0000b	56		 push	 esi
  0000c	8b 75 0c	 mov	 esi, DWORD PTR __Val$[ebp]
  0000f	a5		 movsd
  00010	a5		 movsd
  00011	a5		 movsd
  00012	5e		 pop	 esi
$LN5@construct@4:
  00013	5f		 pop	 edi

; 198  : 		}

  00014	5d		 pop	 ebp
  00015	c2 08 00	 ret	 8
?construct@?$allocator@UForceInfo@@@std@@QAEXPAUForceInfo@@ABU3@@Z ENDP ; std::allocator<ForceInfo>::construct
_TEXT	ENDS
PUBLIC	??$_Construct@UWeaponInfo@@ABU1@@std@@YAXPAUWeaponInfo@@ABU1@@Z ; std::_Construct<WeaponInfo,WeaponInfo const &>
;	COMDAT xdata$x
; File c:\program files (x86)\microsoft visual studio 10.0\vc\include\utility
xdata$x	SEGMENT
__unwindtable$??$_Construct@UWeaponInfo@@ABU1@@std@@YAXPAUWeaponInfo@@ABU1@@Z DD 0ffffffffH
	DD	FLAT:__unwindfunclet$??$_Construct@UWeaponInfo@@ABU1@@std@@YAXPAUWeaponInfo@@ABU1@@Z$0
__ehfuncinfo$??$_Construct@UWeaponInfo@@ABU1@@std@@YAXPAUWeaponInfo@@ABU1@@Z DD 019930522H
	DD	01H
	DD	FLAT:__unwindtable$??$_Construct@UWeaponInfo@@ABU1@@std@@YAXPAUWeaponInfo@@ABU1@@Z
	DD	2 DUP(00H)
	DD	2 DUP(00H)
	DD	00H
	DD	01H
; Function compile flags: /Ogsp
; File c:\program files (x86)\microsoft visual studio 10.0\vc\include\xmemory
xdata$x	ENDS
;	COMDAT ??$_Construct@UWeaponInfo@@ABU1@@std@@YAXPAUWeaponInfo@@ABU1@@Z
_TEXT	SEGMENT
$T553854 = -16						; size = 4
__$EHRec$ = -12						; size = 12
__Vptr$ = 8						; size = 4
__Ptr$ = 8						; size = 4
__Val$ = 12						; size = 4
??$_Construct@UWeaponInfo@@ABU1@@std@@YAXPAUWeaponInfo@@ABU1@@Z PROC ; std::_Construct<WeaponInfo,WeaponInfo const &>, COMDAT

; 46   : 	{	// construct object at _Ptr with value _Val

  00000	6a 04		 push	 4
  00002	b8 00 00 00 00	 mov	 eax, __ehhandler$??$_Construct@UWeaponInfo@@ABU1@@std@@YAXPAUWeaponInfo@@ABU1@@Z
  00007	e8 00 00 00 00	 call	 __EH_prolog3

; 47   : 	void _FARQ *_Vptr = _Ptr;

  0000c	8b 4d 08	 mov	 ecx, DWORD PTR __Ptr$[ebp]
  0000f	89 4d 08	 mov	 DWORD PTR __Vptr$[ebp], ecx

; 48   : 	::new (_Vptr) _Ty1(_STD forward<_Ty2>(_Val));

  00012	89 4d f0	 mov	 DWORD PTR $T553854[ebp], ecx
  00015	83 65 fc 00	 and	 DWORD PTR __$EHRec$[ebp+8], 0
  00019	85 c9		 test	 ecx, ecx
  0001b	74 08		 je	 SHORT $LN3@Construct@3
  0001d	ff 75 0c	 push	 DWORD PTR __Val$[ebp]
  00020	e8 00 00 00 00	 call	 ??0WeaponInfo@@QAE@ABU0@@Z
$LN3@Construct@3:

; 49   : 	}

  00025	e8 00 00 00 00	 call	 __EH_epilog3
  0002a	c3		 ret	 0
_TEXT	ENDS
;	COMDAT text$x
text$x	SEGMENT
__unwindfunclet$??$_Construct@UWeaponInfo@@ABU1@@std@@YAXPAUWeaponInfo@@ABU1@@Z$0:
  00000	ff 75 08	 push	 DWORD PTR __Vptr$[ebp]
  00003	ff 75 f0	 push	 DWORD PTR $T553854[ebp]
  00006	e8 00 00 00 00	 call	 ??3@YAXPAX0@Z		; operator delete
  0000b	59		 pop	 ecx
  0000c	59		 pop	 ecx
  0000d	c3		 ret	 0
__ehhandler$??$_Construct@UWeaponInfo@@ABU1@@std@@YAXPAUWeaponInfo@@ABU1@@Z:
  0000e	8b 54 24 08	 mov	 edx, DWORD PTR [esp+8]
  00012	8d 42 0c	 lea	 eax, DWORD PTR [edx+12]
  00015	8b 4a ec	 mov	 ecx, DWORD PTR [edx-20]
  00018	33 c8		 xor	 ecx, eax
  0001a	e8 00 00 00 00	 call	 @__security_check_cookie@4
  0001f	b8 00 00 00 00	 mov	 eax, OFFSET __ehfuncinfo$??$_Construct@UWeaponInfo@@ABU1@@std@@YAXPAUWeaponInfo@@ABU1@@Z
  00024	e9 00 00 00 00	 jmp	 ___CxxFrameHandler3
text$x	ENDS
??$_Construct@UWeaponInfo@@ABU1@@std@@YAXPAUWeaponInfo@@ABU1@@Z ENDP ; std::_Construct<WeaponInfo,WeaponInfo const &>
PUBLIC	??4?$CEncrypt@M@@QAEMM@Z			; CEncrypt<float>::operator=
; Function compile flags: /Ogsp
; File d:\lost saga for developer\youtube\tutorial\source\src\lsclient\encryptvalue.h
;	COMDAT ??4?$CEncrypt@M@@QAEMM@Z
_TEXT	SEGMENT
_value$ = 8						; size = 4
_inValue$ = 8						; size = 4
??4?$CEncrypt@M@@QAEMM@Z PROC				; CEncrypt<float>::operator=, COMDAT
; _this$ = ecx

; 1654 : 	{	

  00000	55		 push	 ebp
  00001	8b ec		 mov	 ebp, esp

; 1655 : 		type value = inValue;

  00003	d9 45 08	 fld	 DWORD PTR _inValue$[ebp]

; 1656 : 		EncryptValueToPool((char*)&value);

  00006	8d 45 08	 lea	 eax, DWORD PTR _value$[ebp]
  00009	50		 push	 eax
  0000a	d9 5d 08	 fstp	 DWORD PTR _value$[ebp]
  0000d	e8 00 00 00 00	 call	 ?EncryptValueToPool@?$CEncrypt@M@@AAEXPBD@Z ; CEncrypt<float>::EncryptValueToPool

; 1657 : #ifdef _NOTUSE
; 1658 : 		m_value = inValue;
; 1659 : 		Debug();
; 1660 : #endif
; 1661 : 		return value;

  00012	d9 45 08	 fld	 DWORD PTR _value$[ebp]

; 1662 : 	}

  00015	5d		 pop	 ebp
  00016	c2 04 00	 ret	 4
??4?$CEncrypt@M@@QAEMM@Z ENDP				; CEncrypt<float>::operator=
_TEXT	ENDS
PUBLIC	??B?$CEncrypt@K@@QBEKXZ				; CEncrypt<unsigned long>::operator unsigned long
; Function compile flags: /Ogsp
;	COMDAT ??B?$CEncrypt@K@@QBEKXZ
_TEXT	SEGMENT
_value$ = -4						; size = 4
??B?$CEncrypt@K@@QBEKXZ PROC				; CEncrypt<unsigned long>::operator unsigned long, COMDAT
; _this$ = ecx

; 145  : 	{

  00000	55		 push	 ebp
  00001	8b ec		 mov	 ebp, esp
  00003	51		 push	 ecx

; 146  : 		//UJ 130829, const    --start
; 147  : 		type value;
; 148  : 		CEncrypt<type>* pThis = const_cast<CEncrypt<type>*>(this);
; 149  : 		pThis->DecryptValueToPool(&value);

  00004	8d 45 fc	 lea	 eax, DWORD PTR _value$[ebp]
  00007	50		 push	 eax
  00008	e8 00 00 00 00	 call	 ?DecryptValueToPool@?$CEncrypt@K@@QAEXPAK@Z ; CEncrypt<unsigned long>::DecryptValueToPool

; 150  : 		//// const DecryptValueToPool     .
; 151  :  		//type value;
; 152  : 		//char szTempMem[MAX_ENCRYPT];
; 153  : 		//m_RC5.DecryptByte( m_MemPool, szTempMem, max(m_ValueSize, DEFAULT_ENCRYPT) );
; 154  : 		//memcpy( &value, szTempMem, m_ValueSize );
; 155  : 		//UJ --end
; 156  : 
; 157  : #ifdef _NOTUSE
; 158  : 		Debug();
; 159  : #endif
; 160  : 		return value;

  0000d	8b 45 fc	 mov	 eax, DWORD PTR _value$[ebp]

; 161  : 	}

  00010	c9		 leave
  00011	c3		 ret	 0
??B?$CEncrypt@K@@QBEKXZ ENDP				; CEncrypt<unsigned long>::operator unsigned long
_TEXT	ENDS
PUBLIC	??B?$CEncrypt@_N@@QAE_NXZ			; CEncrypt<bool>::operator bool
; Function compile flags: /Ogsp
;	COMDAT ??B?$CEncrypt@_N@@QAE_NXZ
_TEXT	SEGMENT
_value$ = -1						; size = 1
??B?$CEncrypt@_N@@QAE_NXZ PROC				; CEncrypt<bool>::operator bool, COMDAT
; _this$ = ecx

; 134  : 	{

  00000	55		 push	 ebp
  00001	8b ec		 mov	 ebp, esp
  00003	51		 push	 ecx

; 135  : 		type value;
; 136  : 		DecryptValueToPool(&value);

  00004	8d 45 ff	 lea	 eax, DWORD PTR _value$[ebp]
  00007	50		 push	 eax
  00008	e8 00 00 00 00	 call	 ?DecryptValueToPool@?$CEncrypt@_N@@QAEXPA_N@Z ; CEncrypt<bool>::DecryptValueToPool

; 137  : 
; 138  : #ifdef _NOTUSE
; 139  : 		Debug();
; 140  : #endif
; 141  : 		return value;

  0000d	8a 45 ff	 mov	 al, BYTE PTR _value$[ebp]

; 142  : 	}

  00010	c9		 leave
  00011	c3		 ret	 0
??B?$CEncrypt@_N@@QAE_NXZ ENDP				; CEncrypt<bool>::operator bool
_TEXT	ENDS
PUBLIC	??B?$CEncrypt@_N@@QBE_NXZ			; CEncrypt<bool>::operator bool
; Function compile flags: /Ogsp
;	COMDAT ??B?$CEncrypt@_N@@QBE_NXZ
_TEXT	SEGMENT
_value$ = -1						; size = 1
??B?$CEncrypt@_N@@QBE_NXZ PROC				; CEncrypt<bool>::operator bool, COMDAT
; _this$ = ecx

; 145  : 	{

  00000	55		 push	 ebp
  00001	8b ec		 mov	 ebp, esp
  00003	51		 push	 ecx

; 146  : 		//UJ 130829, const    --start
; 147  : 		type value;
; 148  : 		CEncrypt<type>* pThis = const_cast<CEncrypt<type>*>(this);
; 149  : 		pThis->DecryptValueToPool(&value);

  00004	8d 45 ff	 lea	 eax, DWORD PTR _value$[ebp]
  00007	50		 push	 eax
  00008	e8 00 00 00 00	 call	 ?DecryptValueToPool@?$CEncrypt@_N@@QAEXPA_N@Z ; CEncrypt<bool>::DecryptValueToPool

; 150  : 		//// const DecryptValueToPool     .
; 151  :  		//type value;
; 152  : 		//char szTempMem[MAX_ENCRYPT];
; 153  : 		//m_RC5.DecryptByte( m_MemPool, szTempMem, max(m_ValueSize, DEFAULT_ENCRYPT) );
; 154  : 		//memcpy( &value, szTempMem, m_ValueSize );
; 155  : 		//UJ --end
; 156  : 
; 157  : #ifdef _NOTUSE
; 158  : 		Debug();
; 159  : #endif
; 160  : 		return value;

  0000d	8a 45 ff	 mov	 al, BYTE PTR _value$[ebp]

; 161  : 	}

  00010	c9		 leave
  00011	c3		 ret	 0
??B?$CEncrypt@_N@@QBE_NXZ ENDP				; CEncrypt<bool>::operator bool
_TEXT	ENDS
PUBLIC	??4?$CEncrypt@_N@@QAE_N_N@Z			; CEncrypt<bool>::operator=
; Function compile flags: /Ogsp
;	COMDAT ??4?$CEncrypt@_N@@QAE_N_N@Z
_TEXT	SEGMENT
_inValue$ = 8						; size = 1
_value$ = 11						; size = 1
??4?$CEncrypt@_N@@QAE_N_N@Z PROC			; CEncrypt<bool>::operator=, COMDAT
; _this$ = ecx

; 225  : 	{

  00000	55		 push	 ebp
  00001	8b ec		 mov	 ebp, esp

; 226  : 		type value = inValue;

  00003	8a 45 08	 mov	 al, BYTE PTR _inValue$[ebp]
  00006	88 45 0b	 mov	 BYTE PTR _value$[ebp], al

; 227  : 		EncryptValueToPool((char*)&value);

  00009	8d 45 0b	 lea	 eax, DWORD PTR _value$[ebp]
  0000c	50		 push	 eax
  0000d	e8 00 00 00 00	 call	 ?EncryptValueToPool@?$CEncrypt@_N@@AAEXPBD@Z ; CEncrypt<bool>::EncryptValueToPool

; 228  : #ifdef _NOTUSE
; 229  : 		m_value = inValue;
; 230  : 		Debug();
; 231  : #endif
; 232  : 		return value;

  00012	8a 45 0b	 mov	 al, BYTE PTR _value$[ebp]

; 233  : 	}

  00015	5d		 pop	 ebp
  00016	c2 04 00	 ret	 4
??4?$CEncrypt@_N@@QAE_N_N@Z ENDP			; CEncrypt<bool>::operator=
_TEXT	ENDS
PUBLIC	??B?$CEncrypt@W4TeamType@@@@QBE?AW4TeamType@@XZ	; CEncrypt<enum TeamType>::operator enum TeamType
; Function compile flags: /Ogsp
;	COMDAT ??B?$CEncrypt@W4TeamType@@@@QBE?AW4TeamType@@XZ
_TEXT	SEGMENT
_value$ = -4						; size = 4
??B?$CEncrypt@W4TeamType@@@@QBE?AW4TeamType@@XZ PROC	; CEncrypt<enum TeamType>::operator enum TeamType, COMDAT
; _this$ = ecx

; 145  : 	{

  00000	55		 push	 ebp
  00001	8b ec		 mov	 ebp, esp
  00003	51		 push	 ecx

; 146  : 		//UJ 130829, const    --start
; 147  : 		type value;
; 148  : 		CEncrypt<type>* pThis = const_cast<CEncrypt<type>*>(this);
; 149  : 		pThis->DecryptValueToPool(&value);

  00004	8d 45 fc	 lea	 eax, DWORD PTR _value$[ebp]
  00007	50		 push	 eax
  00008	e8 00 00 00 00	 call	 ?DecryptValueToPool@?$CEncrypt@W4TeamType@@@@QAEXPAW4TeamType@@@Z ; CEncrypt<enum TeamType>::DecryptValueToPool

; 150  : 		//// const DecryptValueToPool     .
; 151  :  		//type value;
; 152  : 		//char szTempMem[MAX_ENCRYPT];
; 153  : 		//m_RC5.DecryptByte( m_MemPool, szTempMem, max(m_ValueSize, DEFAULT_ENCRYPT) );
; 154  : 		//memcpy( &value, szTempMem, m_ValueSize );
; 155  : 		//UJ --end
; 156  : 
; 157  : #ifdef _NOTUSE
; 158  : 		Debug();
; 159  : #endif
; 160  : 		return value;

  0000d	8b 45 fc	 mov	 eax, DWORD PTR _value$[ebp]

; 161  : 	}

  00010	c9		 leave
  00011	c3		 ret	 0
??B?$CEncrypt@W4TeamType@@@@QBE?AW4TeamType@@XZ ENDP	; CEncrypt<enum TeamType>::operator enum TeamType
_TEXT	ENDS
PUBLIC	?begin@?$vector@VioHashString@@V?$allocator@VioHashString@@@std@@@std@@QAE?AV?$_Vector_iterator@V?$_Vector_val@VioHashString@@V?$allocator@VioHashString@@@std@@@std@@@2@XZ ; std::vector<ioHashString,std::allocator<ioHashString> >::begin
; Function compile flags: /Ogsp
; File c:\program files (x86)\microsoft visual studio 10.0\vc\include\vector
;	COMDAT ?begin@?$vector@VioHashString@@V?$allocator@VioHashString@@@std@@@std@@QAE?AV?$_Vector_iterator@V?$_Vector_val@VioHashString@@V?$allocator@VioHashString@@@std@@@std@@@2@XZ
_TEXT	SEGMENT
___$ReturnUdt$ = 8					; size = 4
?begin@?$vector@VioHashString@@V?$allocator@VioHashString@@@std@@@std@@QAE?AV?$_Vector_iterator@V?$_Vector_val@VioHashString@@V?$allocator@VioHashString@@@std@@@std@@@2@XZ PROC ; std::vector<ioHashString,std::allocator<ioHashString> >::begin, COMDAT
; _this$ = ecx

; 781  : 		{	// return iterator for beginning of mutable sequence

  00000	55		 push	 ebp
  00001	8b ec		 mov	 ebp, esp

; 782  : 		return (iterator(this->_Myfirst, this));

  00003	8b 09		 mov	 ecx, DWORD PTR [ecx]
  00005	8b 45 08	 mov	 eax, DWORD PTR ___$ReturnUdt$[ebp]
  00008	89 08		 mov	 DWORD PTR [eax], ecx

; 783  : 		}

  0000a	5d		 pop	 ebp
  0000b	c2 04 00	 ret	 4
?begin@?$vector@VioHashString@@V?$allocator@VioHashString@@@std@@@std@@QAE?AV?$_Vector_iterator@V?$_Vector_val@VioHashString@@V?$allocator@VioHashString@@@std@@@std@@@2@XZ ENDP ; std::vector<ioHashString,std::allocator<ioHashString> >::begin
_TEXT	ENDS
PUBLIC	?end@?$vector@VioHashString@@V?$allocator@VioHashString@@@std@@@std@@QAE?AV?$_Vector_iterator@V?$_Vector_val@VioHashString@@V?$allocator@VioHashString@@@std@@@std@@@2@XZ ; std::vector<ioHashString,std::allocator<ioHashString> >::end
; Function compile flags: /Ogsp
;	COMDAT ?end@?$vector@VioHashString@@V?$allocator@VioHashString@@@std@@@std@@QAE?AV?$_Vector_iterator@V?$_Vector_val@VioHashString@@V?$allocator@VioHashString@@@std@@@std@@@2@XZ
_TEXT	SEGMENT
___$ReturnUdt$ = 8					; size = 4
?end@?$vector@VioHashString@@V?$allocator@VioHashString@@@std@@@std@@QAE?AV?$_Vector_iterator@V?$_Vector_val@VioHashString@@V?$allocator@VioHashString@@@std@@@std@@@2@XZ PROC ; std::vector<ioHashString,std::allocator<ioHashString> >::end, COMDAT
; _this$ = ecx

; 791  : 		{	// return iterator for end of mutable sequence

  00000	55		 push	 ebp
  00001	8b ec		 mov	 ebp, esp

; 792  : 		return (iterator(this->_Mylast, this));

  00003	8b 49 04	 mov	 ecx, DWORD PTR [ecx+4]
  00006	8b 45 08	 mov	 eax, DWORD PTR ___$ReturnUdt$[ebp]
  00009	89 08		 mov	 DWORD PTR [eax], ecx

; 793  : 		}

  0000b	5d		 pop	 ebp
  0000c	c2 04 00	 ret	 4
?end@?$vector@VioHashString@@V?$allocator@VioHashString@@@std@@@std@@QAE?AV?$_Vector_iterator@V?$_Vector_val@VioHashString@@V?$allocator@VioHashString@@@std@@@std@@@2@XZ ENDP ; std::vector<ioHashString,std::allocator<ioHashString> >::end
_TEXT	ENDS
PUBLIC	??0?$_Vector_val@VioHashString@@V?$allocator@VioHashString@@@std@@@std@@QAE@V?$allocator@VioHashString@@@1@@Z ; std::_Vector_val<ioHashString,std::allocator<ioHashString> >::_Vector_val<ioHashString,std::allocator<ioHashString> >
; Function compile flags: /Ogsp
;	COMDAT ??0?$_Vector_val@VioHashString@@V?$allocator@VioHashString@@@std@@@std@@QAE@V?$allocator@VioHashString@@@1@@Z
_TEXT	SEGMENT
__Al$ = 8						; size = 1
??0?$_Vector_val@VioHashString@@V?$allocator@VioHashString@@@std@@@std@@QAE@V?$allocator@VioHashString@@@1@@Z PROC ; std::_Vector_val<ioHashString,std::allocator<ioHashString> >::_Vector_val<ioHashString,std::allocator<ioHashString> >, COMDAT
; _this$ = ecx

; 426  : 		{	// construct allocator from _Al

  00000	8b c1		 mov	 eax, ecx

; 427  : 		_Myfirst = 0;

  00002	33 c9		 xor	 ecx, ecx
  00004	89 08		 mov	 DWORD PTR [eax], ecx

; 428  : 		_Mylast = 0;

  00006	89 48 04	 mov	 DWORD PTR [eax+4], ecx

; 429  : 		_Myend = 0;

  00009	89 48 08	 mov	 DWORD PTR [eax+8], ecx

; 430  : 		}

  0000c	c2 04 00	 ret	 4
??0?$_Vector_val@VioHashString@@V?$allocator@VioHashString@@@std@@@std@@QAE@V?$allocator@VioHashString@@@1@@Z ENDP ; std::_Vector_val<ioHashString,std::allocator<ioHashString> >::_Vector_val<ioHashString,std::allocator<ioHashString> >
_TEXT	ENDS
PUBLIC	??0?$_Vector_val@UWeaponInfo@@V?$allocator@UWeaponInfo@@@std@@@std@@QAE@V?$allocator@UWeaponInfo@@@1@@Z ; std::_Vector_val<WeaponInfo,std::allocator<WeaponInfo> >::_Vector_val<WeaponInfo,std::allocator<WeaponInfo> >
; Function compile flags: /Ogsp
;	COMDAT ??0?$_Vector_val@UWeaponInfo@@V?$allocator@UWeaponInfo@@@std@@@std@@QAE@V?$allocator@UWeaponInfo@@@1@@Z
_TEXT	SEGMENT
__Al$ = 8						; size = 1
??0?$_Vector_val@UWeaponInfo@@V?$allocator@UWeaponInfo@@@std@@@std@@QAE@V?$allocator@UWeaponInfo@@@1@@Z PROC ; std::_Vector_val<WeaponInfo,std::allocator<WeaponInfo> >::_Vector_val<WeaponInfo,std::allocator<WeaponInfo> >, COMDAT
; _this$ = ecx

; 426  : 		{	// construct allocator from _Al

  00000	8b c1		 mov	 eax, ecx

; 427  : 		_Myfirst = 0;

  00002	33 c9		 xor	 ecx, ecx
  00004	89 08		 mov	 DWORD PTR [eax], ecx

; 428  : 		_Mylast = 0;

  00006	89 48 04	 mov	 DWORD PTR [eax+4], ecx

; 429  : 		_Myend = 0;

  00009	89 48 08	 mov	 DWORD PTR [eax+8], ecx

; 430  : 		}

  0000c	c2 04 00	 ret	 4
??0?$_Vector_val@UWeaponInfo@@V?$allocator@UWeaponInfo@@@std@@@std@@QAE@V?$allocator@UWeaponInfo@@@1@@Z ENDP ; std::_Vector_val<WeaponInfo,std::allocator<WeaponInfo> >::_Vector_val<WeaponInfo,std::allocator<WeaponInfo> >
_TEXT	ENDS
PUBLIC	??0?$_Vector_val@UForceInfo@@V?$allocator@UForceInfo@@@std@@@std@@QAE@V?$allocator@UForceInfo@@@1@@Z ; std::_Vector_val<ForceInfo,std::allocator<ForceInfo> >::_Vector_val<ForceInfo,std::allocator<ForceInfo> >
; Function compile flags: /Ogsp
;	COMDAT ??0?$_Vector_val@UForceInfo@@V?$allocator@UForceInfo@@@std@@@std@@QAE@V?$allocator@UForceInfo@@@1@@Z
_TEXT	SEGMENT
__Al$ = 8						; size = 1
??0?$_Vector_val@UForceInfo@@V?$allocator@UForceInfo@@@std@@@std@@QAE@V?$allocator@UForceInfo@@@1@@Z PROC ; std::_Vector_val<ForceInfo,std::allocator<ForceInfo> >::_Vector_val<ForceInfo,std::allocator<ForceInfo> >, COMDAT
; _this$ = ecx

; 426  : 		{	// construct allocator from _Al

  00000	8b c1		 mov	 eax, ecx

; 427  : 		_Myfirst = 0;

  00002	33 c9		 xor	 ecx, ecx
  00004	89 08		 mov	 DWORD PTR [eax], ecx

; 428  : 		_Mylast = 0;

  00006	89 48 04	 mov	 DWORD PTR [eax+4], ecx

; 429  : 		_Myend = 0;

  00009	89 48 08	 mov	 DWORD PTR [eax+8], ecx

; 430  : 		}

  0000c	c2 04 00	 ret	 4
??0?$_Vector_val@UForceInfo@@V?$allocator@UForceInfo@@@std@@@std@@QAE@V?$allocator@UForceInfo@@@1@@Z ENDP ; std::_Vector_val<ForceInfo,std::allocator<ForceInfo> >::_Vector_val<ForceInfo,std::allocator<ForceInfo> >
_TEXT	ENDS
PUBLIC	??0?$_Vector_val@KV?$allocator@K@std@@@std@@QAE@V?$allocator@K@1@@Z ; std::_Vector_val<unsigned long,std::allocator<unsigned long> >::_Vector_val<unsigned long,std::allocator<unsigned long> >
; Function compile flags: /Ogsp
;	COMDAT ??0?$_Vector_val@KV?$allocator@K@std@@@std@@QAE@V?$allocator@K@1@@Z
_TEXT	SEGMENT
__Al$ = 8						; size = 1
??0?$_Vector_val@KV?$allocator@K@std@@@std@@QAE@V?$allocator@K@1@@Z PROC ; std::_Vector_val<unsigned long,std::allocator<unsigned long> >::_Vector_val<unsigned long,std::allocator<unsigned long> >, COMDAT
; _this$ = ecx

; 426  : 		{	// construct allocator from _Al

  00000	8b c1		 mov	 eax, ecx

; 427  : 		_Myfirst = 0;

  00002	33 c9		 xor	 ecx, ecx
  00004	89 08		 mov	 DWORD PTR [eax], ecx

; 428  : 		_Mylast = 0;

  00006	89 48 04	 mov	 DWORD PTR [eax+4], ecx

; 429  : 		_Myend = 0;

  00009	89 48 08	 mov	 DWORD PTR [eax+8], ecx

; 430  : 		}

  0000c	c2 04 00	 ret	 4
??0?$_Vector_val@KV?$allocator@K@std@@@std@@QAE@V?$allocator@K@1@@Z ENDP ; std::_Vector_val<unsigned long,std::allocator<unsigned long> >::_Vector_val<unsigned long,std::allocator<unsigned long> >
_TEXT	ENDS
PUBLIC	?_Make_iter@?$vector@VioHashString@@V?$allocator@VioHashString@@@std@@@std@@QBE?AV?$_Vector_iterator@V?$_Vector_val@VioHashString@@V?$allocator@VioHashString@@@std@@@std@@@2@V?$_Vector_const_iterator@V?$_Vector_val@VioHashString@@V?$allocator@VioHashString@@@std@@@std@@@2@@Z ; std::vector<ioHashString,std::allocator<ioHashString> >::_Make_iter
; Function compile flags: /Ogsp
;	COMDAT ?_Make_iter@?$vector@VioHashString@@V?$allocator@VioHashString@@@std@@@std@@QBE?AV?$_Vector_iterator@V?$_Vector_val@VioHashString@@V?$allocator@VioHashString@@@std@@@std@@@2@V?$_Vector_const_iterator@V?$_Vector_val@VioHashString@@V?$allocator@VioHashString@@@std@@@std@@@2@@Z
_TEXT	SEGMENT
___$ReturnUdt$ = 8					; size = 4
__Where$ = 12						; size = 4
?_Make_iter@?$vector@VioHashString@@V?$allocator@VioHashString@@@std@@@std@@QBE?AV?$_Vector_iterator@V?$_Vector_val@VioHashString@@V?$allocator@VioHashString@@@std@@@std@@@2@V?$_Vector_const_iterator@V?$_Vector_val@VioHashString@@V?$allocator@VioHashString@@@std@@@std@@@2@@Z PROC ; std::vector<ioHashString,std::allocator<ioHashString> >::_Make_iter, COMDAT
; _this$ = ecx

; 801  : 		{	// make iterator from const_iterator

  00000	55		 push	 ebp
  00001	8b ec		 mov	 ebp, esp

; 802  : 		return (iterator(_Where._Ptr, this));

  00003	8b 45 08	 mov	 eax, DWORD PTR ___$ReturnUdt$[ebp]
  00006	8b 4d 0c	 mov	 ecx, DWORD PTR __Where$[ebp]
  00009	89 08		 mov	 DWORD PTR [eax], ecx

; 803  : 		}

  0000b	5d		 pop	 ebp
  0000c	c2 08 00	 ret	 8
?_Make_iter@?$vector@VioHashString@@V?$allocator@VioHashString@@@std@@@std@@QBE?AV?$_Vector_iterator@V?$_Vector_val@VioHashString@@V?$allocator@VioHashString@@@std@@@std@@@2@V?$_Vector_const_iterator@V?$_Vector_val@VioHashString@@V?$allocator@VioHashString@@@std@@@std@@@2@@Z ENDP ; std::vector<ioHashString,std::allocator<ioHashString> >::_Make_iter
_TEXT	ENDS
PUBLIC	?max_size@?$vector@VioHashString@@V?$allocator@VioHashString@@@std@@@std@@QBEIXZ ; std::vector<ioHashString,std::allocator<ioHashString> >::max_size
; Function compile flags: /Ogsp
;	COMDAT ?max_size@?$vector@VioHashString@@V?$allocator@VioHashString@@@std@@@std@@QBEIXZ
_TEXT	SEGMENT
?max_size@?$vector@VioHashString@@V?$allocator@VioHashString@@@std@@@std@@QBEIXZ PROC ; std::vector<ioHashString,std::allocator<ioHashString> >::max_size, COMDAT
; _this$ = ecx

; 884  : 		return (this->_Alval.max_size());

  00000	b8 ff ff ff 0f	 mov	 eax, 268435455		; 0fffffffH

; 885  : 		}

  00005	c3		 ret	 0
?max_size@?$vector@VioHashString@@V?$allocator@VioHashString@@@std@@@std@@QBEIXZ ENDP ; std::vector<ioHashString,std::allocator<ioHashString> >::max_size
_TEXT	ENDS
PUBLIC	?allocate@?$allocator@VioHashString@@@std@@QAEPAVioHashString@@I@Z ; std::allocator<ioHashString>::allocate
; Function compile flags: /Ogsp
; File c:\program files (x86)\microsoft visual studio 10.0\vc\include\xmemory
;	COMDAT ?allocate@?$allocator@VioHashString@@@std@@QAEPAVioHashString@@I@Z
_TEXT	SEGMENT
__Count$ = 8						; size = 4
?allocate@?$allocator@VioHashString@@@std@@QAEPAVioHashString@@I@Z PROC ; std::allocator<ioHashString>::allocate, COMDAT
; _this$ = ecx

; 186  : 		{	// allocate array of _Count elements

  00000	55		 push	 ebp
  00001	8b ec		 mov	 ebp, esp

; 187  : 		return (_Allocate(_Count, (pointer)0));

  00003	6a 00		 push	 0
  00005	ff 75 08	 push	 DWORD PTR __Count$[ebp]
  00008	e8 00 00 00 00	 call	 ??$_Allocate@VioHashString@@@std@@YAPAVioHashString@@IPAV1@@Z ; std::_Allocate<ioHashString>
  0000d	59		 pop	 ecx
  0000e	59		 pop	 ecx

; 188  : 		}

  0000f	5d		 pop	 ebp
  00010	c2 04 00	 ret	 4
?allocate@?$allocator@VioHashString@@@std@@QAEPAVioHashString@@I@Z ENDP ; std::allocator<ioHashString>::allocate
_TEXT	ENDS
PUBLIC	?max_size@?$vector@KV?$allocator@K@std@@@std@@QBEIXZ ; std::vector<unsigned long,std::allocator<unsigned long> >::max_size
; Function compile flags: /Ogsp
; File c:\program files (x86)\microsoft visual studio 10.0\vc\include\vector
;	COMDAT ?max_size@?$vector@KV?$allocator@K@std@@@std@@QBEIXZ
_TEXT	SEGMENT
?max_size@?$vector@KV?$allocator@K@std@@@std@@QBEIXZ PROC ; std::vector<unsigned long,std::allocator<unsigned long> >::max_size, COMDAT
; _this$ = ecx

; 884  : 		return (this->_Alval.max_size());

  00000	b8 ff ff ff 3f	 mov	 eax, 1073741823		; 3fffffffH

; 885  : 		}

  00005	c3		 ret	 0
?max_size@?$vector@KV?$allocator@K@std@@@std@@QBEIXZ ENDP ; std::vector<unsigned long,std::allocator<unsigned long> >::max_size
_TEXT	ENDS
PUBLIC	?_Grow_to@?$vector@KV?$allocator@K@std@@@std@@IBEII@Z ; std::vector<unsigned long,std::allocator<unsigned long> >::_Grow_to
; Function compile flags: /Ogsp
;	COMDAT ?_Grow_to@?$vector@KV?$allocator@K@std@@@std@@IBEII@Z
_TEXT	SEGMENT
__Count$ = 8						; size = 4
?_Grow_to@?$vector@KV?$allocator@K@std@@@std@@IBEII@Z PROC ; std::vector<unsigned long,std::allocator<unsigned long> >::_Grow_to, COMDAT
; _this$ = ecx

; 1274 : 		{	// grow by 50% or at least to _Count

  00000	55		 push	 ebp
  00001	8b ec		 mov	 ebp, esp

; 1275 : 		size_type _Capacity = capacity();

  00003	8b 41 08	 mov	 eax, DWORD PTR [ecx+8]
  00006	2b 01		 sub	 eax, DWORD PTR [ecx]

; 1276 : 
; 1277 : 		_Capacity = max_size() - _Capacity / 2 < _Capacity
; 1278 : 			? 0 : _Capacity + _Capacity / 2;	// try to grow by 50%

  00008	ba ff ff ff 3f	 mov	 edx, 1073741823		; 3fffffffH
  0000d	c1 f8 02	 sar	 eax, 2
  00010	8b c8		 mov	 ecx, eax
  00012	d1 e9		 shr	 ecx, 1
  00014	2b d1		 sub	 edx, ecx
  00016	3b d0		 cmp	 edx, eax
  00018	73 04		 jae	 SHORT $LN4@Grow_to
  0001a	33 c0		 xor	 eax, eax
  0001c	eb 02		 jmp	 SHORT $LN5@Grow_to
$LN4@Grow_to:
  0001e	03 c1		 add	 eax, ecx
$LN5@Grow_to:

; 1279 : 		if (_Capacity < _Count)

  00020	3b 45 08	 cmp	 eax, DWORD PTR __Count$[ebp]

; 1280 : 			_Capacity = _Count;

  00023	0f 42 45 08	 cmovb	 eax, DWORD PTR __Count$[ebp]

; 1281 : 		return (_Capacity);
; 1282 : 		}

  00027	5d		 pop	 ebp
  00028	c2 04 00	 ret	 4
?_Grow_to@?$vector@KV?$allocator@K@std@@@std@@IBEII@Z ENDP ; std::vector<unsigned long,std::allocator<unsigned long> >::_Grow_to
_TEXT	ENDS
PUBLIC	??0?$_Vector_iterator@V?$_Vector_val@KV?$allocator@K@std@@@std@@@std@@QAE@PAKPBU_Container_base0@1@@Z ; std::_Vector_iterator<std::_Vector_val<unsigned long,std::allocator<unsigned long> > >::_Vector_iterator<std::_Vector_val<unsigned long,std::allocator<unsigned long> > >
; Function compile flags: /Ogsp
;	COMDAT ??0?$_Vector_iterator@V?$_Vector_val@KV?$allocator@K@std@@@std@@@std@@QAE@PAKPBU_Container_base0@1@@Z
_TEXT	SEGMENT
__Parg$ = 8						; size = 4
__Pvector$ = 12						; size = 4
??0?$_Vector_iterator@V?$_Vector_val@KV?$allocator@K@std@@@std@@@std@@QAE@PAKPBU_Container_base0@1@@Z PROC ; std::_Vector_iterator<std::_Vector_val<unsigned long,std::allocator<unsigned long> > >::_Vector_iterator<std::_Vector_val<unsigned long,std::allocator<unsigned long> > >, COMDAT
; _this$ = ecx

; 304  : 		{	// construct with pointer _Parg

  00000	55		 push	 ebp
  00001	8b ec		 mov	 ebp, esp
  00003	8b c1		 mov	 eax, ecx
  00005	8b 4d 08	 mov	 ecx, DWORD PTR __Parg$[ebp]
  00008	89 08		 mov	 DWORD PTR [eax], ecx

; 305  : 		}

  0000a	5d		 pop	 ebp
  0000b	c2 08 00	 ret	 8
??0?$_Vector_iterator@V?$_Vector_val@KV?$allocator@K@std@@@std@@@std@@QAE@PAKPBU_Container_base0@1@@Z ENDP ; std::_Vector_iterator<std::_Vector_val<unsigned long,std::allocator<unsigned long> > >::_Vector_iterator<std::_Vector_val<unsigned long,std::allocator<unsigned long> > >
_TEXT	ENDS
PUBLIC	?allocate@?$allocator@K@std@@QAEPAKI@Z		; std::allocator<unsigned long>::allocate
; Function compile flags: /Ogsp
; File c:\program files (x86)\microsoft visual studio 10.0\vc\include\xmemory
;	COMDAT ?allocate@?$allocator@K@std@@QAEPAKI@Z
_TEXT	SEGMENT
__Count$ = 8						; size = 4
?allocate@?$allocator@K@std@@QAEPAKI@Z PROC		; std::allocator<unsigned long>::allocate, COMDAT
; _this$ = ecx

; 186  : 		{	// allocate array of _Count elements

  00000	55		 push	 ebp
  00001	8b ec		 mov	 ebp, esp

; 187  : 		return (_Allocate(_Count, (pointer)0));

  00003	6a 00		 push	 0
  00005	ff 75 08	 push	 DWORD PTR __Count$[ebp]
  00008	e8 00 00 00 00	 call	 ??$_Allocate@K@std@@YAPAKIPAK@Z ; std::_Allocate<unsigned long>
  0000d	59		 pop	 ecx
  0000e	59		 pop	 ecx

; 188  : 		}

  0000f	5d		 pop	 ebp
  00010	c2 04 00	 ret	 4
?allocate@?$allocator@K@std@@QAEPAKI@Z ENDP		; std::allocator<unsigned long>::allocate
_TEXT	ENDS
PUBLIC	??8?$_Vector_const_iterator@V?$_Vector_val@VioHashString@@V?$allocator@VioHashString@@@std@@@std@@@std@@QBE_NABV01@@Z ; std::_Vector_const_iterator<std::_Vector_val<ioHashString,std::allocator<ioHashString> > >::operator==
; Function compile flags: /Ogsp
; File c:\program files (x86)\microsoft visual studio 10.0\vc\include\vector
;	COMDAT ??8?$_Vector_const_iterator@V?$_Vector_val@VioHashString@@V?$allocator@VioHashString@@@std@@@std@@@std@@QBE_NABV01@@Z
_TEXT	SEGMENT
__Right$ = 8						; size = 4
??8?$_Vector_const_iterator@V?$_Vector_val@VioHashString@@V?$allocator@VioHashString@@@std@@@std@@@std@@QBE_NABV01@@Z PROC ; std::_Vector_const_iterator<std::_Vector_val<ioHashString,std::allocator<ioHashString> > >::operator==, COMDAT
; _this$ = ecx

; 201  : 		{	// test for iterator equality

  00000	55		 push	 ebp
  00001	8b ec		 mov	 ebp, esp

; 202  : 		_Compat(_Right);
; 203  : 		return (this->_Ptr == _Right._Ptr);

  00003	8b 01		 mov	 eax, DWORD PTR [ecx]
  00005	8b 4d 08	 mov	 ecx, DWORD PTR __Right$[ebp]
  00008	2b 01		 sub	 eax, DWORD PTR [ecx]
  0000a	f7 d8		 neg	 eax
  0000c	1b c0		 sbb	 eax, eax
  0000e	40		 inc	 eax

; 204  : 		}

  0000f	5d		 pop	 ebp
  00010	c2 04 00	 ret	 4
??8?$_Vector_const_iterator@V?$_Vector_val@VioHashString@@V?$allocator@VioHashString@@@std@@@std@@@std@@QBE_NABV01@@Z ENDP ; std::_Vector_const_iterator<std::_Vector_val<ioHashString,std::allocator<ioHashString> > >::operator==
_TEXT	ENDS
PUBLIC	??8?$_Vector_const_iterator@V?$_Vector_val@KV?$allocator@K@std@@@std@@@std@@QBE_NABV01@@Z ; std::_Vector_const_iterator<std::_Vector_val<unsigned long,std::allocator<unsigned long> > >::operator==
; Function compile flags: /Ogsp
;	COMDAT ??8?$_Vector_const_iterator@V?$_Vector_val@KV?$allocator@K@std@@@std@@@std@@QBE_NABV01@@Z
_TEXT	SEGMENT
__Right$ = 8						; size = 4
??8?$_Vector_const_iterator@V?$_Vector_val@KV?$allocator@K@std@@@std@@@std@@QBE_NABV01@@Z PROC ; std::_Vector_const_iterator<std::_Vector_val<unsigned long,std::allocator<unsigned long> > >::operator==, COMDAT
; _this$ = ecx

; 201  : 		{	// test for iterator equality

  00000	55		 push	 ebp
  00001	8b ec		 mov	 ebp, esp

; 202  : 		_Compat(_Right);
; 203  : 		return (this->_Ptr == _Right._Ptr);

  00003	8b 01		 mov	 eax, DWORD PTR [ecx]
  00005	8b 4d 08	 mov	 ecx, DWORD PTR __Right$[ebp]
  00008	2b 01		 sub	 eax, DWORD PTR [ecx]
  0000a	f7 d8		 neg	 eax
  0000c	1b c0		 sbb	 eax, eax
  0000e	40		 inc	 eax

; 204  : 		}

  0000f	5d		 pop	 ebp
  00010	c2 04 00	 ret	 4
??8?$_Vector_const_iterator@V?$_Vector_val@KV?$allocator@K@std@@@std@@@std@@QBE_NABV01@@Z ENDP ; std::_Vector_const_iterator<std::_Vector_val<unsigned long,std::allocator<unsigned long> > >::operator==
_TEXT	ENDS
PUBLIC	??$_Destroy_range@V?$allocator@K@std@@@std@@YAXPAK0AAV?$allocator@K@0@@Z ; std::_Destroy_range<std::allocator<unsigned long> >
; Function compile flags: /Ogsp
; File c:\program files (x86)\microsoft visual studio 10.0\vc\include\xmemory
;	COMDAT ??$_Destroy_range@V?$allocator@K@std@@@std@@YAXPAK0AAV?$allocator@K@0@@Z
_TEXT	SEGMENT
__First$ = 8						; size = 4
__Last$ = 12						; size = 4
__Al$ = 16						; size = 4
??$_Destroy_range@V?$allocator@K@std@@@std@@YAXPAK0AAV?$allocator@K@0@@Z PROC ; std::_Destroy_range<std::allocator<unsigned long> >, COMDAT

; 88   : 	_Destroy_range(_First, _Last, _Al, _Ptr_cat(_First, _Last));
; 89   : 	}

  00000	c3		 ret	 0
??$_Destroy_range@V?$allocator@K@std@@@std@@YAXPAK0AAV?$allocator@K@0@@Z ENDP ; std::_Destroy_range<std::allocator<unsigned long> >
_TEXT	ENDS
PUBLIC	??$_Move@PAVioHashString@@PAV1@@std@@YAPAVioHashString@@PAV1@00U_Nonscalar_ptr_iterator_tag@0@@Z ; std::_Move<ioHashString *,ioHashString *>
; Function compile flags: /Ogsp
; File c:\program files (x86)\microsoft visual studio 10.0\vc\include\xutility
;	COMDAT ??$_Move@PAVioHashString@@PAV1@@std@@YAPAVioHashString@@PAV1@00U_Nonscalar_ptr_iterator_tag@0@@Z
_TEXT	SEGMENT
__First$ = 8						; size = 4
__Last$ = 12						; size = 4
__Dest$ = 16						; size = 4
___formal$ = 20						; size = 1
??$_Move@PAVioHashString@@PAV1@@std@@YAPAVioHashString@@PAV1@00U_Nonscalar_ptr_iterator_tag@0@@Z PROC ; std::_Move<ioHashString *,ioHashString *>, COMDAT

; 2512 : 	{	// move [_First, _Last) to [_Dest, ...), arbitrary iterators

  00000	55		 push	 ebp
  00001	8b ec		 mov	 ebp, esp
  00003	56		 push	 esi

; 2513 : 	for (; _First != _Last; ++_Dest, ++_First)

  00004	8b 75 08	 mov	 esi, DWORD PTR __First$[ebp]
  00007	eb 11		 jmp	 SHORT $LN11@Move
$LL3@Move:

; 2514 : 		*_Dest = _STD move(*_First);

  00009	8b 4d 10	 mov	 ecx, DWORD PTR __Dest$[ebp]
  0000c	56		 push	 esi
  0000d	ff 15 00 00 00
	00		 call	 DWORD PTR __imp_??4ioHashString@@QAEAAV0@ABV0@@Z
  00013	83 45 10 10	 add	 DWORD PTR __Dest$[ebp], 16 ; 00000010H
  00017	83 c6 10	 add	 esi, 16			; 00000010H
$LN11@Move:

; 2513 : 	for (; _First != _Last; ++_Dest, ++_First)

  0001a	3b 75 0c	 cmp	 esi, DWORD PTR __Last$[ebp]
  0001d	75 ea		 jne	 SHORT $LL3@Move

; 2515 : 	return (_Dest);

  0001f	8b 45 10	 mov	 eax, DWORD PTR __Dest$[ebp]
  00022	5e		 pop	 esi

; 2516 : 	}

  00023	5d		 pop	 ebp
  00024	c3		 ret	 0
??$_Move@PAVioHashString@@PAV1@@std@@YAPAVioHashString@@PAV1@00U_Nonscalar_ptr_iterator_tag@0@@Z ENDP ; std::_Move<ioHashString *,ioHashString *>
_TEXT	ENDS
PUBLIC	??$_Uninitialized_move@PAKPAKV?$allocator@K@std@@@std@@YAPAKPAK00AAV?$allocator@K@0@@Z ; std::_Uninitialized_move<unsigned long *,unsigned long *,std::allocator<unsigned long> >
; Function compile flags: /Ogsp
; File c:\program files (x86)\microsoft visual studio 10.0\vc\include\memory
;	COMDAT ??$_Uninitialized_move@PAKPAKV?$allocator@K@std@@@std@@YAPAKPAK00AAV?$allocator@K@0@@Z
_TEXT	SEGMENT
__First$ = 8						; size = 4
__Last$ = 12						; size = 4
__Dest$ = 16						; size = 4
__Al$ = 20						; size = 4
??$_Uninitialized_move@PAKPAKV?$allocator@K@std@@@std@@YAPAKPAK00AAV?$allocator@K@0@@Z PROC ; std::_Uninitialized_move<unsigned long *,unsigned long *,std::allocator<unsigned long> >, COMDAT

; 469  : 	{	// move [_First, _Last) to raw _Dest, using _Al

  00000	55		 push	 ebp
  00001	8b ec		 mov	 ebp, esp
  00003	56		 push	 esi

; 470  : 	return (_Uninit_move(_First, _Last, _Dest, _Al,
; 471  : 		_Val_type(_First), _Ptr_cat(_First, _Dest)));

  00004	8b 75 0c	 mov	 esi, DWORD PTR __Last$[ebp]
  00007	2b 75 08	 sub	 esi, DWORD PTR __First$[ebp]
  0000a	c1 fe 02	 sar	 esi, 2
  0000d	c1 e6 02	 shl	 esi, 2
  00010	56		 push	 esi
  00011	ff 75 08	 push	 DWORD PTR __First$[ebp]
  00014	ff 75 10	 push	 DWORD PTR __Dest$[ebp]
  00017	ff 15 00 00 00
	00		 call	 DWORD PTR __imp__memmove
  0001d	83 c4 0c	 add	 esp, 12			; 0000000cH
  00020	03 c6		 add	 eax, esi
  00022	5e		 pop	 esi

; 472  : 	}

  00023	5d		 pop	 ebp
  00024	c3		 ret	 0
??$_Uninitialized_move@PAKPAKV?$allocator@K@std@@@std@@YAPAKPAK00AAV?$allocator@K@0@@Z ENDP ; std::_Uninitialized_move<unsigned long *,unsigned long *,std::allocator<unsigned long> >
_TEXT	ENDS
PUBLIC	?max_size@?$vector@UWeaponInfo@@V?$allocator@UWeaponInfo@@@std@@@std@@QBEIXZ ; std::vector<WeaponInfo,std::allocator<WeaponInfo> >::max_size
; Function compile flags: /Ogsp
; File c:\program files (x86)\microsoft visual studio 10.0\vc\include\vector
;	COMDAT ?max_size@?$vector@UWeaponInfo@@V?$allocator@UWeaponInfo@@@std@@@std@@QBEIXZ
_TEXT	SEGMENT
?max_size@?$vector@UWeaponInfo@@V?$allocator@UWeaponInfo@@@std@@@std@@QBEIXZ PROC ; std::vector<WeaponInfo,std::allocator<WeaponInfo> >::max_size, COMDAT
; _this$ = ecx

; 884  : 		return (this->_Alval.max_size());

  00000	b8 66 66 66 06	 mov	 eax, 107374182		; 06666666H

; 885  : 		}

  00005	c3		 ret	 0
?max_size@?$vector@UWeaponInfo@@V?$allocator@UWeaponInfo@@@std@@@std@@QBEIXZ ENDP ; std::vector<WeaponInfo,std::allocator<WeaponInfo> >::max_size
_TEXT	ENDS
PUBLIC	?allocate@?$allocator@UWeaponInfo@@@std@@QAEPAUWeaponInfo@@I@Z ; std::allocator<WeaponInfo>::allocate
; Function compile flags: /Ogsp
; File c:\program files (x86)\microsoft visual studio 10.0\vc\include\xmemory
;	COMDAT ?allocate@?$allocator@UWeaponInfo@@@std@@QAEPAUWeaponInfo@@I@Z
_TEXT	SEGMENT
__Count$ = 8						; size = 4
?allocate@?$allocator@UWeaponInfo@@@std@@QAEPAUWeaponInfo@@I@Z PROC ; std::allocator<WeaponInfo>::allocate, COMDAT
; _this$ = ecx

; 186  : 		{	// allocate array of _Count elements

  00000	55		 push	 ebp
  00001	8b ec		 mov	 ebp, esp

; 187  : 		return (_Allocate(_Count, (pointer)0));

  00003	6a 00		 push	 0
  00005	ff 75 08	 push	 DWORD PTR __Count$[ebp]
  00008	e8 00 00 00 00	 call	 ??$_Allocate@UWeaponInfo@@@std@@YAPAUWeaponInfo@@IPAU1@@Z ; std::_Allocate<WeaponInfo>
  0000d	59		 pop	 ecx
  0000e	59		 pop	 ecx

; 188  : 		}

  0000f	5d		 pop	 ebp
  00010	c2 04 00	 ret	 4
?allocate@?$allocator@UWeaponInfo@@@std@@QAEPAUWeaponInfo@@I@Z ENDP ; std::allocator<WeaponInfo>::allocate
_TEXT	ENDS
PUBLIC	?max_size@?$vector@UForceInfo@@V?$allocator@UForceInfo@@@std@@@std@@QBEIXZ ; std::vector<ForceInfo,std::allocator<ForceInfo> >::max_size
; Function compile flags: /Ogsp
; File c:\program files (x86)\microsoft visual studio 10.0\vc\include\vector
;	COMDAT ?max_size@?$vector@UForceInfo@@V?$allocator@UForceInfo@@@std@@@std@@QBEIXZ
_TEXT	SEGMENT
?max_size@?$vector@UForceInfo@@V?$allocator@UForceInfo@@@std@@@std@@QBEIXZ PROC ; std::vector<ForceInfo,std::allocator<ForceInfo> >::max_size, COMDAT
; _this$ = ecx

; 884  : 		return (this->_Alval.max_size());

  00000	b8 55 55 55 15	 mov	 eax, 357913941		; 15555555H

; 885  : 		}

  00005	c3		 ret	 0
?max_size@?$vector@UForceInfo@@V?$allocator@UForceInfo@@@std@@@std@@QBEIXZ ENDP ; std::vector<ForceInfo,std::allocator<ForceInfo> >::max_size
_TEXT	ENDS
PUBLIC	?allocate@?$allocator@UForceInfo@@@std@@QAEPAUForceInfo@@I@Z ; std::allocator<ForceInfo>::allocate
; Function compile flags: /Ogsp
; File c:\program files (x86)\microsoft visual studio 10.0\vc\include\xmemory
;	COMDAT ?allocate@?$allocator@UForceInfo@@@std@@QAEPAUForceInfo@@I@Z
_TEXT	SEGMENT
__Count$ = 8						; size = 4
?allocate@?$allocator@UForceInfo@@@std@@QAEPAUForceInfo@@I@Z PROC ; std::allocator<ForceInfo>::allocate, COMDAT
; _this$ = ecx

; 186  : 		{	// allocate array of _Count elements

  00000	55		 push	 ebp
  00001	8b ec		 mov	 ebp, esp

; 187  : 		return (_Allocate(_Count, (pointer)0));

  00003	6a 00		 push	 0
  00005	ff 75 08	 push	 DWORD PTR __Count$[ebp]
  00008	e8 00 00 00 00	 call	 ??$_Allocate@UForceInfo@@@std@@YAPAUForceInfo@@IPAU1@@Z ; std::_Allocate<ForceInfo>
  0000d	59		 pop	 ecx
  0000e	59		 pop	 ecx

; 188  : 		}

  0000f	5d		 pop	 ebp
  00010	c2 04 00	 ret	 4
?allocate@?$allocator@UForceInfo@@@std@@QAEPAUForceInfo@@I@Z ENDP ; std::allocator<ForceInfo>::allocate
_TEXT	ENDS
PUBLIC	??0?$_Vector_iterator@V?$_Vector_val@UWeaponInfo@@V?$allocator@UWeaponInfo@@@std@@@std@@@std@@QAE@PAUWeaponInfo@@PBU_Container_base0@1@@Z ; std::_Vector_iterator<std::_Vector_val<WeaponInfo,std::allocator<WeaponInfo> > >::_Vector_iterator<std::_Vector_val<WeaponInfo,std::allocator<WeaponInfo> > >
; Function compile flags: /Ogsp
; File c:\program files (x86)\microsoft visual studio 10.0\vc\include\vector
;	COMDAT ??0?$_Vector_iterator@V?$_Vector_val@UWeaponInfo@@V?$allocator@UWeaponInfo@@@std@@@std@@@std@@QAE@PAUWeaponInfo@@PBU_Container_base0@1@@Z
_TEXT	SEGMENT
__Parg$ = 8						; size = 4
__Pvector$ = 12						; size = 4
??0?$_Vector_iterator@V?$_Vector_val@UWeaponInfo@@V?$allocator@UWeaponInfo@@@std@@@std@@@std@@QAE@PAUWeaponInfo@@PBU_Container_base0@1@@Z PROC ; std::_Vector_iterator<std::_Vector_val<WeaponInfo,std::allocator<WeaponInfo> > >::_Vector_iterator<std::_Vector_val<WeaponInfo,std::allocator<WeaponInfo> > >, COMDAT
; _this$ = ecx

; 304  : 		{	// construct with pointer _Parg

  00000	55		 push	 ebp
  00001	8b ec		 mov	 ebp, esp
  00003	8b c1		 mov	 eax, ecx
  00005	8b 4d 08	 mov	 ecx, DWORD PTR __Parg$[ebp]
  00008	89 08		 mov	 DWORD PTR [eax], ecx

; 305  : 		}

  0000a	5d		 pop	 ebp
  0000b	c2 08 00	 ret	 8
??0?$_Vector_iterator@V?$_Vector_val@UWeaponInfo@@V?$allocator@UWeaponInfo@@@std@@@std@@@std@@QAE@PAUWeaponInfo@@PBU_Container_base0@1@@Z ENDP ; std::_Vector_iterator<std::_Vector_val<WeaponInfo,std::allocator<WeaponInfo> > >::_Vector_iterator<std::_Vector_val<WeaponInfo,std::allocator<WeaponInfo> > >
_TEXT	ENDS
PUBLIC	??8?$_Vector_const_iterator@V?$_Vector_val@UWeaponInfo@@V?$allocator@UWeaponInfo@@@std@@@std@@@std@@QBE_NABV01@@Z ; std::_Vector_const_iterator<std::_Vector_val<WeaponInfo,std::allocator<WeaponInfo> > >::operator==
; Function compile flags: /Ogsp
;	COMDAT ??8?$_Vector_const_iterator@V?$_Vector_val@UWeaponInfo@@V?$allocator@UWeaponInfo@@@std@@@std@@@std@@QBE_NABV01@@Z
_TEXT	SEGMENT
__Right$ = 8						; size = 4
??8?$_Vector_const_iterator@V?$_Vector_val@UWeaponInfo@@V?$allocator@UWeaponInfo@@@std@@@std@@@std@@QBE_NABV01@@Z PROC ; std::_Vector_const_iterator<std::_Vector_val<WeaponInfo,std::allocator<WeaponInfo> > >::operator==, COMDAT
; _this$ = ecx

; 201  : 		{	// test for iterator equality

  00000	55		 push	 ebp
  00001	8b ec		 mov	 ebp, esp

; 202  : 		_Compat(_Right);
; 203  : 		return (this->_Ptr == _Right._Ptr);

  00003	8b 01		 mov	 eax, DWORD PTR [ecx]
  00005	8b 4d 08	 mov	 ecx, DWORD PTR __Right$[ebp]
  00008	2b 01		 sub	 eax, DWORD PTR [ecx]
  0000a	f7 d8		 neg	 eax
  0000c	1b c0		 sbb	 eax, eax
  0000e	40		 inc	 eax

; 204  : 		}

  0000f	5d		 pop	 ebp
  00010	c2 04 00	 ret	 4
??8?$_Vector_const_iterator@V?$_Vector_val@UWeaponInfo@@V?$allocator@UWeaponInfo@@@std@@@std@@@std@@QBE_NABV01@@Z ENDP ; std::_Vector_const_iterator<std::_Vector_val<WeaponInfo,std::allocator<WeaponInfo> > >::operator==
_TEXT	ENDS
PUBLIC	??8?$_Vector_const_iterator@V?$_Vector_val@UForceInfo@@V?$allocator@UForceInfo@@@std@@@std@@@std@@QBE_NABV01@@Z ; std::_Vector_const_iterator<std::_Vector_val<ForceInfo,std::allocator<ForceInfo> > >::operator==
; Function compile flags: /Ogsp
;	COMDAT ??8?$_Vector_const_iterator@V?$_Vector_val@UForceInfo@@V?$allocator@UForceInfo@@@std@@@std@@@std@@QBE_NABV01@@Z
_TEXT	SEGMENT
__Right$ = 8						; size = 4
??8?$_Vector_const_iterator@V?$_Vector_val@UForceInfo@@V?$allocator@UForceInfo@@@std@@@std@@@std@@QBE_NABV01@@Z PROC ; std::_Vector_const_iterator<std::_Vector_val<ForceInfo,std::allocator<ForceInfo> > >::operator==, COMDAT
; _this$ = ecx

; 201  : 		{	// test for iterator equality

  00000	55		 push	 ebp
  00001	8b ec		 mov	 ebp, esp

; 202  : 		_Compat(_Right);
; 203  : 		return (this->_Ptr == _Right._Ptr);

  00003	8b 01		 mov	 eax, DWORD PTR [ecx]
  00005	8b 4d 08	 mov	 ecx, DWORD PTR __Right$[ebp]
  00008	2b 01		 sub	 eax, DWORD PTR [ecx]
  0000a	f7 d8		 neg	 eax
  0000c	1b c0		 sbb	 eax, eax
  0000e	40		 inc	 eax

; 204  : 		}

  0000f	5d		 pop	 ebp
  00010	c2 04 00	 ret	 4
??8?$_Vector_const_iterator@V?$_Vector_val@UForceInfo@@V?$allocator@UForceInfo@@@std@@@std@@@std@@QBE_NABV01@@Z ENDP ; std::_Vector_const_iterator<std::_Vector_val<ForceInfo,std::allocator<ForceInfo> > >::operator==
_TEXT	ENDS
PUBLIC	?destroy@?$allocator@UForceInfo@@@std@@QAEXPAUForceInfo@@@Z ; std::allocator<ForceInfo>::destroy
; Function compile flags: /Ogsp
; File c:\program files (x86)\microsoft visual studio 10.0\vc\include\xmemory
;	COMDAT ?destroy@?$allocator@UForceInfo@@@std@@QAEXPAUForceInfo@@@Z
_TEXT	SEGMENT
__Ptr$ = 8						; size = 4
?destroy@?$allocator@UForceInfo@@@std@@QAEXPAUForceInfo@@@Z PROC ; std::allocator<ForceInfo>::destroy, COMDAT
; _this$ = ecx

; 213  : 		_Destroy(_Ptr);
; 214  : 		}

  00000	c2 04 00	 ret	 4
?destroy@?$allocator@UForceInfo@@@std@@QAEXPAUForceInfo@@@Z ENDP ; std::allocator<ForceInfo>::destroy
_TEXT	ENDS
PUBLIC	??$_Destroy@VioHashString@@@std@@YAXPAVioHashString@@@Z ; std::_Destroy<ioHashString>
; Function compile flags: /Ogsp
;	COMDAT ??$_Destroy@VioHashString@@@std@@YAXPAVioHashString@@@Z
_TEXT	SEGMENT
__Ptr$ = 8						; size = 4
??$_Destroy@VioHashString@@@std@@YAXPAVioHashString@@@Z PROC ; std::_Destroy<ioHashString>, COMDAT

; 62   : 	{	// destroy object at _Ptr

  00000	55		 push	 ebp
  00001	8b ec		 mov	 ebp, esp

; 63   : 	_Ptr->~_Ty();

  00003	8b 4d 08	 mov	 ecx, DWORD PTR __Ptr$[ebp]

; 64   : 	}

  00006	5d		 pop	 ebp

; 63   : 	_Ptr->~_Ty();

  00007	ff 25 00 00 00
	00		 jmp	 DWORD PTR __imp_??1ioHashString@@QAE@XZ
??$_Destroy@VioHashString@@@std@@YAXPAVioHashString@@@Z ENDP ; std::_Destroy<ioHashString>
_TEXT	ENDS
PUBLIC	??$_Destroy@UWeaponInfo@@@std@@YAXPAUWeaponInfo@@@Z ; std::_Destroy<WeaponInfo>
; Function compile flags: /Ogsp
;	COMDAT ??$_Destroy@UWeaponInfo@@@std@@YAXPAUWeaponInfo@@@Z
_TEXT	SEGMENT
__Ptr$ = 8						; size = 4
??$_Destroy@UWeaponInfo@@@std@@YAXPAUWeaponInfo@@@Z PROC ; std::_Destroy<WeaponInfo>, COMDAT

; 62   : 	{	// destroy object at _Ptr

  00000	55		 push	 ebp
  00001	8b ec		 mov	 ebp, esp

; 63   : 	_Ptr->~_Ty();

  00003	8b 4d 08	 mov	 ecx, DWORD PTR __Ptr$[ebp]
  00006	83 c1 08	 add	 ecx, 8

; 64   : 	}

  00009	5d		 pop	 ebp

; 63   : 	_Ptr->~_Ty();

  0000a	ff 25 00 00 00
	00		 jmp	 DWORD PTR __imp_??1ioHashString@@QAE@XZ
??$_Destroy@UWeaponInfo@@@std@@YAXPAUWeaponInfo@@@Z ENDP ; std::_Destroy<WeaponInfo>
_TEXT	ENDS
PUBLIC	?construct@?$allocator@VioHashString@@@std@@QAEXPAVioHashString@@ABV3@@Z ; std::allocator<ioHashString>::construct
; Function compile flags: /Ogsp
;	COMDAT ?construct@?$allocator@VioHashString@@@std@@QAEXPAVioHashString@@ABV3@@Z
_TEXT	SEGMENT
__Ptr$ = 8						; size = 4
__Val$ = 12						; size = 4
?construct@?$allocator@VioHashString@@@std@@QAEXPAVioHashString@@ABV3@@Z PROC ; std::allocator<ioHashString>::construct, COMDAT
; _this$ = ecx

; 196  : 		{	// construct object at _Ptr with value _Val

  00000	55		 push	 ebp
  00001	8b ec		 mov	 ebp, esp

; 197  : 		_Construct(_Ptr, _Val);

  00003	ff 75 0c	 push	 DWORD PTR __Val$[ebp]
  00006	ff 75 08	 push	 DWORD PTR __Ptr$[ebp]
  00009	e8 00 00 00 00	 call	 ??$_Construct@VioHashString@@ABV1@@std@@YAXPAVioHashString@@ABV1@@Z ; std::_Construct<ioHashString,ioHashString const &>
  0000e	59		 pop	 ecx
  0000f	59		 pop	 ecx

; 198  : 		}

  00010	5d		 pop	 ebp
  00011	c2 08 00	 ret	 8
?construct@?$allocator@VioHashString@@@std@@QAEXPAVioHashString@@ABV3@@Z ENDP ; std::allocator<ioHashString>::construct
_TEXT	ENDS
PUBLIC	?SetGravityAmt@ioBaseChar@@QAEXM@Z		; ioBaseChar::SetGravityAmt
; Function compile flags: /Ogsp
; File d:\lost saga for developer\youtube\tutorial\source\src\lsclient\iobasechar.h
;	COMDAT ?SetGravityAmt@ioBaseChar@@QAEXM@Z
_TEXT	SEGMENT
_value$554141 = 8					; size = 4
_fAmt$ = 8						; size = 4
?SetGravityAmt@ioBaseChar@@QAEXM@Z PROC			; ioBaseChar::SetGravityAmt, COMDAT
; _this$ = ecx

; 2631 : 	inline void SetGravityAmt( float fAmt ) { m_fGravityAmt = fAmt; }

  00000	55		 push	 ebp
  00001	8b ec		 mov	 ebp, esp
  00003	f3 0f 10 45 08	 movss	 xmm0, DWORD PTR _fAmt$[ebp]
  00008	8d 45 08	 lea	 eax, DWORD PTR _value$554141[ebp]
  0000b	50		 push	 eax
  0000c	81 c1 e8 0b 00
	00		 add	 ecx, 3048		; 00000be8H
  00012	f3 0f 11 45 08	 movss	 DWORD PTR _value$554141[ebp], xmm0
  00017	e8 00 00 00 00	 call	 ?EncryptValueToPool@?$CEncrypt@M@@AAEXPBD@Z ; CEncrypt<float>::EncryptValueToPool
  0001c	5d		 pop	 ebp
  0001d	c2 04 00	 ret	 4
?SetGravityAmt@ioBaseChar@@QAEXM@Z ENDP			; ioBaseChar::SetGravityAmt
_TEXT	ENDS
PUBLIC	?SetForcePowerAmt@ioBaseChar@@QAEXM@Z		; ioBaseChar::SetForcePowerAmt
; Function compile flags: /Ogsp
;	COMDAT ?SetForcePowerAmt@ioBaseChar@@QAEXM@Z
_TEXT	SEGMENT
_value$554147 = 8					; size = 4
_fAmt$ = 8						; size = 4
?SetForcePowerAmt@ioBaseChar@@QAEXM@Z PROC		; ioBaseChar::SetForcePowerAmt, COMDAT
; _this$ = ecx

; 2641 : 	inline void SetForcePowerAmt( float fAmt ) { m_fForceAmt = fAmt; }

  00000	55		 push	 ebp
  00001	8b ec		 mov	 ebp, esp
  00003	f3 0f 10 45 08	 movss	 xmm0, DWORD PTR _fAmt$[ebp]
  00008	8d 45 08	 lea	 eax, DWORD PTR _value$554147[ebp]
  0000b	50		 push	 eax
  0000c	81 c1 88 0b 00
	00		 add	 ecx, 2952		; 00000b88H
  00012	f3 0f 11 45 08	 movss	 DWORD PTR _value$554147[ebp], xmm0
  00017	e8 00 00 00 00	 call	 ?EncryptValueToPool@?$CEncrypt@M@@AAEXPBD@Z ; CEncrypt<float>::EncryptValueToPool
  0001c	5d		 pop	 ebp
  0001d	c2 04 00	 ret	 4
?SetForcePowerAmt@ioBaseChar@@QAEXM@Z ENDP		; ioBaseChar::SetForcePowerAmt
_TEXT	ENDS
PUBLIC	?SetDisableMove@ioSelectPositionMoveWeapon@@QAEX_N@Z ; ioSelectPositionMoveWeapon::SetDisableMove
; Function compile flags: /Ogsp
; File d:\lost saga for developer\youtube\tutorial\source\src\lsclient\ioselectpositionmoveweapon.h
;	COMDAT ?SetDisableMove@ioSelectPositionMoveWeapon@@QAEX_N@Z
_TEXT	SEGMENT
_bDisable$ = 8						; size = 1
_value$554153 = 11					; size = 1
?SetDisableMove@ioSelectPositionMoveWeapon@@QAEX_N@Z PROC ; ioSelectPositionMoveWeapon::SetDisableMove, COMDAT
; _this$ = ecx

; 68   : 	inline void SetDisableMove( bool bDisable ){ m_bDisableMove = bDisable; }

  00000	55		 push	 ebp
  00001	8b ec		 mov	 ebp, esp
  00003	8a 45 08	 mov	 al, BYTE PTR _bDisable$[ebp]
  00006	88 45 0b	 mov	 BYTE PTR _value$554153[ebp], al
  00009	8d 45 0b	 lea	 eax, DWORD PTR _value$554153[ebp]
  0000c	50		 push	 eax
  0000d	81 c1 18 0a 00
	00		 add	 ecx, 2584		; 00000a18H
  00013	e8 00 00 00 00	 call	 ?EncryptValueToPool@?$CEncrypt@_N@@AAEXPBD@Z ; CEncrypt<bool>::EncryptValueToPool
  00018	5d		 pop	 ebp
  00019	c2 04 00	 ret	 4
?SetDisableMove@ioSelectPositionMoveWeapon@@QAEX_N@Z ENDP ; ioSelectPositionMoveWeapon::SetDisableMove
_TEXT	ENDS
PUBLIC	?SetCurrMoveRange@ioSelectPositionMoveWeapon@@QAEXM@Z ; ioSelectPositionMoveWeapon::SetCurrMoveRange
; Function compile flags: /Ogsp
;	COMDAT ?SetCurrMoveRange@ioSelectPositionMoveWeapon@@QAEXM@Z
_TEXT	SEGMENT
_value$554159 = 8					; size = 4
_fRange$ = 8						; size = 4
?SetCurrMoveRange@ioSelectPositionMoveWeapon@@QAEXM@Z PROC ; ioSelectPositionMoveWeapon::SetCurrMoveRange, COMDAT
; _this$ = ecx

; 70   : 	inline void SetCurrMoveRange( float fRange ){ m_fCurMoveRange = fRange; }

  00000	55		 push	 ebp
  00001	8b ec		 mov	 ebp, esp
  00003	f3 0f 10 45 08	 movss	 xmm0, DWORD PTR _fRange$[ebp]
  00008	8d 45 08	 lea	 eax, DWORD PTR _value$554159[ebp]
  0000b	50		 push	 eax
  0000c	81 c1 8c 0a 00
	00		 add	 ecx, 2700		; 00000a8cH
  00012	f3 0f 11 45 08	 movss	 DWORD PTR _value$554159[ebp], xmm0
  00017	e8 00 00 00 00	 call	 ?EncryptValueToPool@?$CEncrypt@M@@AAEXPBD@Z ; CEncrypt<float>::EncryptValueToPool
  0001c	5d		 pop	 ebp
  0001d	c2 04 00	 ret	 4
?SetCurrMoveRange@ioSelectPositionMoveWeapon@@QAEXM@Z ENDP ; ioSelectPositionMoveWeapon::SetCurrMoveRange
_TEXT	ENDS
PUBLIC	__real@42480000
PUBLIC	__real@3f800000
PUBLIC	??_C@_00CNPNBAHC@?$AA@				; `string'
PUBLIC	??_C@_0N@OEOJLPNA@space_weapon?$AA@		; `string'
PUBLIC	__real@43160000
PUBLIC	__real@42700000
PUBLIC	__real@43960000
PUBLIC	__$ArrayPad$
PUBLIC	?LoadProperty@ioSpaceMasterAttack@@UAEXAAVioINILoader@@@Z ; ioSpaceMasterAttack::LoadProperty
EXTRN	__imp_??4ioHashString@@QAEAAV0@PBD@Z:PROC
EXTRN	?LoadWeaponInfo@@YAXPBDAAUAttackAttribute@@AAVioINILoader@@@Z:PROC ; LoadWeaponInfo
EXTRN	?LoadProperty@ioAttackSkill@@UAEXAAVioINILoader@@@Z:PROC ; ioAttackSkill::LoadProperty
;	COMDAT __real@42480000
; File d:\lost saga for developer\youtube\tutorial\source\src\lsclient\stringprotect.h
CONST	SEGMENT
__real@42480000 DD 042480000r			; 50
CONST	ENDS
;	COMDAT __real@3f800000
CONST	SEGMENT
__real@3f800000 DD 03f800000r			; 1
CONST	ENDS
;	COMDAT ??_C@_00CNPNBAHC@?$AA@
CONST	SEGMENT
??_C@_00CNPNBAHC@?$AA@ DB 00H				; `string'
CONST	ENDS
;	COMDAT ??_C@_0N@OEOJLPNA@space_weapon?$AA@
CONST	SEGMENT
??_C@_0N@OEOJLPNA@space_weapon?$AA@ DB 'space_weapon', 00H ; `string'
CONST	ENDS
;	COMDAT __real@43160000
CONST	SEGMENT
__real@43160000 DD 043160000r			; 150
CONST	ENDS
;	COMDAT __real@42700000
CONST	SEGMENT
__real@42700000 DD 042700000r			; 60
CONST	ENDS
;	COMDAT __real@43960000
CONST	SEGMENT
__real@43960000 DD 043960000r			; 300
; Function compile flags: /Ogsp
; File d:\lost saga for developer\youtube\tutorial\source\src\lsclient\iospacemasterattack.cpp
CONST	ENDS
;	COMDAT ?LoadProperty@ioSpaceMasterAttack@@UAEXAAVioINILoader@@@Z
_TEXT	SEGMENT
_szBuf$ = -304						; size = 260
__k$555828 = -44					; size = 34
__k$555928 = -40					; size = 28
__k$555691 = -40					; size = 29
__k$555566 = -40					; size = 28
__k$555441 = -40					; size = 28
__k$556066 = -36					; size = 23
__k$554691 = -36					; size = 26
__k$554566 = -36					; size = 26
__k$556191 = -32					; size = 22
__k$555316 = -32					; size = 19
__k$554928 = -32					; size = 20
__k$554441 = -32					; size = 22
__k$554191 = -32					; size = 19
__k$555191 = -28					; size = 18
__k$554802 = -28					; size = 15
__k$554316 = -28					; size = 17
__k$556316 = -24					; size = 12
__k$555066 = -24					; size = 14
__$ArrayPad$ = -4					; size = 4
_rkLoader$ = 8						; size = 4
?LoadProperty@ioSpaceMasterAttack@@UAEXAAVioINILoader@@@Z PROC ; ioSpaceMasterAttack::LoadProperty, COMDAT
; _this$ = ecx

; 66   : {

  00000	55		 push	 ebp
  00001	8b ec		 mov	 ebp, esp
  00003	81 ec 30 01 00
	00		 sub	 esp, 304		; 00000130H
  00009	a1 00 00 00 00	 mov	 eax, DWORD PTR ___security_cookie
  0000e	33 c5		 xor	 eax, ebp
  00010	89 45 fc	 mov	 DWORD PTR __$ArrayPad$[ebp], eax
  00013	53		 push	 ebx
  00014	56		 push	 esi
  00015	57		 push	 edi
  00016	8b 7d 08	 mov	 edi, DWORD PTR _rkLoader$[ebp]

; 67   : 	ioAttackSkill::LoadProperty( rkLoader );

  00019	57		 push	 edi
  0001a	8b f1		 mov	 esi, ecx
  0001c	e8 00 00 00 00	 call	 ?LoadProperty@ioAttackSkill@@UAEXAAVioINILoader@@@Z ; ioAttackSkill::LoadProperty

; 68   : 
; 69   : 	char szBuf[MAX_PATH];
; 70   : 
; 71   : 	m_dwSkillProtectTime		= rkLoader.LoadInt_e( "skill_protect_time", 0 );

  00021	33 db		 xor	 ebx, ebx
  00023	6a 04		 push	 4
  00025	c7 45 e0 9e 87
	82 86		 mov	 DWORD PTR __k$554191[ebp], -2038265954 ; 8682879eH
  0002c	c7 45 e4 81 b3
	9b 98		 mov	 DWORD PTR __k$554191[ebp+4], -1734626431 ; 989bb381H
  00033	c7 45 e8 82 98
	8e 89		 mov	 DWORD PTR __k$554191[ebp+8], -1987143550 ; 898e9882H
  0003a	c7 45 ec 99 b3
	9f 83		 mov	 DWORD PTR __k$554191[ebp+12], -2086685799 ; 839fb399H
  00041	66 c7 45 f0 80
	89		 mov	 WORD PTR __k$554191[ebp+16], 35200 ; 00008980H
  00047	8d 45 e0	 lea	 eax, DWORD PTR __k$554191[ebp]
  0004a	88 5d f2	 mov	 BYTE PTR __k$554191[ebp+18], bl
  0004d	59		 pop	 ecx
$LL106@LoadProper:
  0004e	81 30 ed ec eb
	ea		 xor	 DWORD PTR [eax], -353637139 ; eaebecedH
  00054	83 c0 04	 add	 eax, 4
  00057	49		 dec	 ecx
  00058	75 f4		 jne	 SHORT $LL106@LoadProper
  0005a	6a 10		 push	 16			; 00000010H
  0005c	58		 pop	 eax
$LL103@LoadProper:
  0005d	8b c8		 mov	 ecx, eax
  0005f	81 e1 03 00 00
	80		 and	 ecx, -2147483645	; 80000003H
  00065	79 05		 jns	 SHORT $LN1983@LoadProper
  00067	49		 dec	 ecx
  00068	83 c9 fc	 or	 ecx, -4			; fffffffcH
  0006b	41		 inc	 ecx
$LN1983@LoadProper:
  0006c	b2 ed		 mov	 dl, -19			; ffffffedH
  0006e	2a d1		 sub	 dl, cl
  00070	30 54 05 e0	 xor	 BYTE PTR __k$554191[ebp+eax], dl
  00074	40		 inc	 eax
  00075	83 f8 12	 cmp	 eax, 18			; 00000012H
  00078	7c e3		 jl	 SHORT $LL103@LoadProper
  0007a	53		 push	 ebx
  0007b	8d 45 e0	 lea	 eax, DWORD PTR __k$554191[ebp]
  0007e	50		 push	 eax
  0007f	8b cf		 mov	 ecx, edi
  00081	ff 15 00 00 00
	00		 call	 DWORD PTR __imp_?LoadInt@ioINILoader@@QAEHPBDH@Z
  00087	6a 04		 push	 4
  00089	89 86 ec 10 00
	00		 mov	 DWORD PTR [esi+4332], eax

; 72   : 	m_dwSkillJumpPower			= rkLoader.LoadInt_e( "skill_jump_power", 0 );

  0008f	c7 45 e4 9e 87
	82 86		 mov	 DWORD PTR __k$554316[ebp], -2038265954 ; 8682879eH
  00096	c7 45 e8 81 b3
	81 9f		 mov	 DWORD PTR __k$554316[ebp+4], -1618889855 ; 9f81b381H
  0009d	c7 45 ec 80 9c
	b4 9a		 mov	 DWORD PTR __k$554316[ebp+8], -1699439488 ; 9ab49c80H
  000a4	c7 45 f0 82 9b
	8e 98		 mov	 DWORD PTR __k$554316[ebp+12], -1735484542 ; 988e9b82H
  000ab	8d 45 e4	 lea	 eax, DWORD PTR __k$554316[ebp]
  000ae	88 5d f4	 mov	 BYTE PTR __k$554316[ebp+16], bl
  000b1	59		 pop	 ecx
$LL212@LoadProper:
  000b2	81 30 ed ec eb
	ea		 xor	 DWORD PTR [eax], -353637139 ; eaebecedH
  000b8	83 c0 04	 add	 eax, 4
  000bb	49		 dec	 ecx
  000bc	75 f4		 jne	 SHORT $LL212@LoadProper
  000be	53		 push	 ebx
  000bf	8d 45 e4	 lea	 eax, DWORD PTR __k$554316[ebp]
  000c2	50		 push	 eax
  000c3	8b cf		 mov	 ecx, edi
  000c5	ff 15 00 00 00
	00		 call	 DWORD PTR __imp_?LoadInt@ioINILoader@@QAEHPBDH@Z
  000cb	6a 05		 push	 5
  000cd	89 86 f0 10 00
	00		 mov	 DWORD PTR [esi+4336], eax

; 73   : 
; 74   : 	//Auto Target
; 75   : 	m_fJumpAutoTargetRange		= rkLoader.LoadFloat_e( "jump_autotarget_range", 300.0f );

  000d3	c7 45 e0 87 99
	86 9a		 mov	 DWORD PTR __k$554441[ebp], -1702454905 ; 9a869987H
  000da	c7 45 e4 b2 8d
	9e 9e		 mov	 DWORD PTR __k$554441[ebp+4], -1633776206 ; 9e9e8db2H
  000e1	c7 45 e8 82 98
	8a 98		 mov	 DWORD PTR __k$554441[ebp+8], -1735747454 ; 988a9882H
  000e8	c7 45 ec 8a 89
	9f b5		 mov	 DWORD PTR __k$554441[ebp+12], -1247835766 ; b59f898aH
  000ef	c7 45 f0 9f 8d
	85 8d		 mov	 DWORD PTR __k$554441[ebp+16], -1920627297 ; 8d858d9fH
  000f6	8d 45 e0	 lea	 eax, DWORD PTR __k$554441[ebp]
  000f9	66 c7 45 f4 88
	00		 mov	 WORD PTR __k$554441[ebp+20], 136 ; 00000088H
  000ff	59		 pop	 ecx
$LL318@LoadProper:
  00100	81 30 ed ec eb
	ea		 xor	 DWORD PTR [eax], -353637139 ; eaebecedH
  00106	83 c0 04	 add	 eax, 4
  00109	49		 dec	 ecx
  0010a	75 f4		 jne	 SHORT $LL318@LoadProper
  0010c	f3 0f 10 05 00
	00 00 00	 movss	 xmm0, DWORD PTR __real@43960000
  00114	80 75 f4 ed	 xor	 BYTE PTR __k$554441[ebp+20], -19 ; ffffffedH
  00118	51		 push	 ecx
  00119	8d 45 e0	 lea	 eax, DWORD PTR __k$554441[ebp]
  0011c	f3 0f 11 04 24	 movss	 DWORD PTR [esp], xmm0
  00121	50		 push	 eax
  00122	8b cf		 mov	 ecx, edi
  00124	ff 15 00 00 00
	00		 call	 DWORD PTR __imp_?LoadFloat@ioINILoader@@QAEMPBDM@Z
  0012a	d9 9e f4 10 00
	00		 fstp	 DWORD PTR [esi+4340]
  00130	6a 06		 push	 6

; 76   : 	m_fJumpAutoTargetMinAngle	= rkLoader.LoadFloat_e( "jump_autotarget_min_angle", 60.0f );

  00132	c7 45 dc 87 99
	86 9a		 mov	 DWORD PTR __k$554566[ebp], -1702454905 ; 9a869987H
  00139	c7 45 e0 b2 8d
	9e 9e		 mov	 DWORD PTR __k$554566[ebp+4], -1633776206 ; 9e9e8db2H
  00140	c7 45 e4 82 98
	8a 98		 mov	 DWORD PTR __k$554566[ebp+8], -1735747454 ; 988a9882H
  00147	c7 45 e8 8a 89
	9f b5		 mov	 DWORD PTR __k$554566[ebp+12], -1247835766 ; b59f898aH
  0014e	c7 45 ec 80 85
	85 b5		 mov	 DWORD PTR __k$554566[ebp+16], -1249540736 ; b5858580H
  00155	c7 45 f0 8c 82
	8c 86		 mov	 DWORD PTR __k$554566[ebp+20], -2037611892 ; 868c828cH
  0015c	8d 45 dc	 lea	 eax, DWORD PTR __k$554566[ebp]
  0015f	66 c7 45 f4 88
	00		 mov	 WORD PTR __k$554566[ebp+24], 136 ; 00000088H
  00165	59		 pop	 ecx
$LL424@LoadProper:
  00166	81 30 ed ec eb
	ea		 xor	 DWORD PTR [eax], -353637139 ; eaebecedH
  0016c	83 c0 04	 add	 eax, 4
  0016f	49		 dec	 ecx
  00170	75 f4		 jne	 SHORT $LL424@LoadProper
  00172	f3 0f 10 05 00
	00 00 00	 movss	 xmm0, DWORD PTR __real@42700000
  0017a	80 75 f4 ed	 xor	 BYTE PTR __k$554566[ebp+24], -19 ; ffffffedH
  0017e	51		 push	 ecx
  0017f	8d 45 dc	 lea	 eax, DWORD PTR __k$554566[ebp]
  00182	f3 0f 11 04 24	 movss	 DWORD PTR [esp], xmm0
  00187	50		 push	 eax
  00188	8b cf		 mov	 ecx, edi
  0018a	ff 15 00 00 00
	00		 call	 DWORD PTR __imp_?LoadFloat@ioINILoader@@QAEMPBDM@Z
  00190	d9 9e f8 10 00
	00		 fstp	 DWORD PTR [esi+4344]
  00196	6a 06		 push	 6

; 77   : 	m_fJumpAutoTargetMaxAngle	= rkLoader.LoadFloat_e( "jump_autotarget_max_angle", 150.0f );

  00198	c7 45 dc 87 99
	86 9a		 mov	 DWORD PTR __k$554691[ebp], -1702454905 ; 9a869987H
  0019f	c7 45 e0 b2 8d
	9e 9e		 mov	 DWORD PTR __k$554691[ebp+4], -1633776206 ; 9e9e8db2H
  001a6	c7 45 e4 82 98
	8a 98		 mov	 DWORD PTR __k$554691[ebp+8], -1735747454 ; 988a9882H
  001ad	c7 45 e8 8a 89
	9f b5		 mov	 DWORD PTR __k$554691[ebp+12], -1247835766 ; b59f898aH
  001b4	c7 45 ec 80 8d
	93 b5		 mov	 DWORD PTR __k$554691[ebp+16], -1248621184 ; b5938d80H
  001bb	c7 45 f0 8c 82
	8c 86		 mov	 DWORD PTR __k$554691[ebp+20], -2037611892 ; 868c828cH
  001c2	8d 45 dc	 lea	 eax, DWORD PTR __k$554691[ebp]
  001c5	66 c7 45 f4 88
	00		 mov	 WORD PTR __k$554691[ebp+24], 136 ; 00000088H
  001cb	59		 pop	 ecx
$LL530@LoadProper:
  001cc	81 30 ed ec eb
	ea		 xor	 DWORD PTR [eax], -353637139 ; eaebecedH
  001d2	83 c0 04	 add	 eax, 4
  001d5	49		 dec	 ecx
  001d6	75 f4		 jne	 SHORT $LL530@LoadProper
  001d8	f3 0f 10 05 00
	00 00 00	 movss	 xmm0, DWORD PTR __real@43160000
  001e0	80 75 f4 ed	 xor	 BYTE PTR __k$554691[ebp+24], -19 ; ffffffedH
  001e4	51		 push	 ecx
  001e5	8d 45 dc	 lea	 eax, DWORD PTR __k$554691[ebp]
  001e8	f3 0f 11 04 24	 movss	 DWORD PTR [esp], xmm0
  001ed	50		 push	 eax
  001ee	8b cf		 mov	 ecx, edi
  001f0	ff 15 00 00 00
	00		 call	 DWORD PTR __imp_?LoadFloat@ioINILoader@@QAEMPBDM@Z
  001f6	d9 9e fc 10 00
	00		 fstp	 DWORD PTR [esi+4348]

; 78   : 
; 79   : 	//Space
; 80   : 	LoadWeaponInfo( "space_weapon", m_SpaceAttack, rkLoader );

  001fc	57		 push	 edi
  001fd	8d 86 1c 11 00
	00		 lea	 eax, DWORD PTR [esi+4380]
  00203	50		 push	 eax
  00204	68 00 00 00 00	 push	 OFFSET ??_C@_0N@OEOJLPNA@space_weapon?$AA@
  00209	e8 00 00 00 00	 call	 ?LoadWeaponInfo@@YAXPBDAAUAttackAttribute@@AAVioINILoader@@@Z ; LoadWeaponInfo
  0020e	83 c4 0c	 add	 esp, 12			; 0000000cH
  00211	6a 03		 push	 3

; 81   : 
; 82   : 	//Loop
; 83   : 	rkLoader.LoadString_e( "loop_animation", "", szBuf, MAX_PATH );

  00213	c7 45 e4 81 83
	84 9a		 mov	 DWORD PTR __k$554802[ebp], -1702591615 ; 9a848381H
  0021a	c7 45 e8 b2 8d
	85 83		 mov	 DWORD PTR __k$554802[ebp+4], -2088399438 ; 83858db2H
  00221	c7 45 ec 80 8d
	9f 83		 mov	 DWORD PTR __k$554802[ebp+8], -2086695552 ; 839f8d80H
  00228	66 c7 45 f0 82
	82		 mov	 WORD PTR __k$554802[ebp+12], 33410 ; 00008282H
  0022e	8d 45 e4	 lea	 eax, DWORD PTR __k$554802[ebp]
  00231	88 5d f2	 mov	 BYTE PTR __k$554802[ebp+14], bl
  00234	59		 pop	 ecx
$LL636@LoadProper:
  00235	81 30 ed ec eb
	ea		 xor	 DWORD PTR [eax], -353637139 ; eaebecedH
  0023b	83 c0 04	 add	 eax, 4
  0023e	49		 dec	 ecx
  0023f	75 f4		 jne	 SHORT $LL636@LoadProper
  00241	6a 0c		 push	 12			; 0000000cH
  00243	58		 pop	 eax
$LL633@LoadProper:
  00244	8b c8		 mov	 ecx, eax
  00246	81 e1 03 00 00
	80		 and	 ecx, -2147483645	; 80000003H
  0024c	79 05		 jns	 SHORT $LN1984@LoadProper
  0024e	49		 dec	 ecx
  0024f	83 c9 fc	 or	 ecx, -4			; fffffffcH
  00252	41		 inc	 ecx
$LN1984@LoadProper:
  00253	b2 ed		 mov	 dl, -19			; ffffffedH
  00255	2a d1		 sub	 dl, cl
  00257	30 54 05 e4	 xor	 BYTE PTR __k$554802[ebp+eax], dl
  0025b	40		 inc	 eax
  0025c	83 f8 0e	 cmp	 eax, 14			; 0000000eH
  0025f	7c e3		 jl	 SHORT $LL633@LoadProper
  00261	68 04 01 00 00	 push	 260			; 00000104H
  00266	8d 85 d0 fe ff
	ff		 lea	 eax, DWORD PTR _szBuf$[ebp]
  0026c	50		 push	 eax
  0026d	68 00 00 00 00	 push	 OFFSET ??_C@_00CNPNBAHC@?$AA@
  00272	8d 45 e4	 lea	 eax, DWORD PTR __k$554802[ebp]
  00275	50		 push	 eax
  00276	8b cf		 mov	 ecx, edi
  00278	ff 15 00 00 00
	00		 call	 DWORD PTR __imp_?LoadStringA@ioINILoader@@QAEXPBD0PADH@Z

; 84   : 	m_LoopAnimation				= szBuf;

  0027e	8d 85 d0 fe ff
	ff		 lea	 eax, DWORD PTR _szBuf$[ebp]
  00284	50		 push	 eax
  00285	8d 8e 7c 11 00
	00		 lea	 ecx, DWORD PTR [esi+4476]
  0028b	ff 15 00 00 00
	00		 call	 DWORD PTR __imp_??4ioHashString@@QAEAAV0@PBD@Z
  00291	6a 04		 push	 4

; 85   : 	m_fLoopAnimationRate		= rkLoader.LoadFloat_e( "loop_animation_rate", 1.0f );

  00293	c7 45 e0 81 83
	84 9a		 mov	 DWORD PTR __k$554928[ebp], -1702591615 ; 9a848381H
  0029a	c7 45 e4 b2 8d
	85 83		 mov	 DWORD PTR __k$554928[ebp+4], -2088399438 ; 83858db2H
  002a1	c7 45 e8 80 8d
	9f 83		 mov	 DWORD PTR __k$554928[ebp+8], -2086695552 ; 839f8d80H
  002a8	c7 45 ec 82 82
	b4 98		 mov	 DWORD PTR __k$554928[ebp+12], -1733000574 ; 98b48282H
  002af	8d 45 e0	 lea	 eax, DWORD PTR __k$554928[ebp]
  002b2	c7 45 f0 8c 98
	8e 00		 mov	 DWORD PTR __k$554928[ebp+16], 9345164 ; 008e988cH
  002b9	59		 pop	 ecx
$LL742@LoadProper:
  002ba	81 30 ed ec eb
	ea		 xor	 DWORD PTR [eax], -353637139 ; eaebecedH
  002c0	83 c0 04	 add	 eax, 4
  002c3	49		 dec	 ecx
  002c4	75 f4		 jne	 SHORT $LL742@LoadProper
  002c6	6a 10		 push	 16			; 00000010H
  002c8	58		 pop	 eax
$LL739@LoadProper:
  002c9	8b c8		 mov	 ecx, eax
  002cb	81 e1 03 00 00
	80		 and	 ecx, -2147483645	; 80000003H
  002d1	79 05		 jns	 SHORT $LN1985@LoadProper
  002d3	49		 dec	 ecx
  002d4	83 c9 fc	 or	 ecx, -4			; fffffffcH
  002d7	41		 inc	 ecx
$LN1985@LoadProper:
  002d8	b2 ed		 mov	 dl, -19			; ffffffedH
  002da	2a d1		 sub	 dl, cl
  002dc	30 54 05 e0	 xor	 BYTE PTR __k$554928[ebp+eax], dl
  002e0	40		 inc	 eax
  002e1	83 f8 13	 cmp	 eax, 19			; 00000013H
  002e4	7c e3		 jl	 SHORT $LL739@LoadProper
  002e6	f3 0f 10 05 00
	00 00 00	 movss	 xmm0, DWORD PTR __real@3f800000
  002ee	51		 push	 ecx
  002ef	8d 45 e0	 lea	 eax, DWORD PTR __k$554928[ebp]
  002f2	f3 0f 11 04 24	 movss	 DWORD PTR [esp], xmm0
  002f7	50		 push	 eax
  002f8	8b cf		 mov	 ecx, edi
  002fa	ff 15 00 00 00
	00		 call	 DWORD PTR __imp_?LoadFloat@ioINILoader@@QAEMPBDM@Z
  00300	d9 9e 8c 11 00
	00		 fstp	 DWORD PTR [esi+4492]
  00306	6a 03		 push	 3

; 86   : 	m_dwLoopDuration			= rkLoader.LoadInt_e( "loop_duration", 0 );

  00308	c7 45 e8 81 83
	84 9a		 mov	 DWORD PTR __k$555066[ebp], -1702591615 ; 9a848381H
  0030f	c7 45 ec b2 88
	9e 98		 mov	 DWORD PTR __k$555066[ebp+4], -1734440782 ; 989e88b2H
  00316	c7 45 f0 8c 98
	82 85		 mov	 DWORD PTR __k$555066[ebp+8], -2055038836 ; 8582988cH
  0031d	8d 45 e8	 lea	 eax, DWORD PTR __k$555066[ebp]
  00320	66 c7 45 f4 83
	00		 mov	 WORD PTR __k$555066[ebp+12], 131 ; 00000083H
  00326	59		 pop	 ecx
$LL848@LoadProper:
  00327	81 30 ed ec eb
	ea		 xor	 DWORD PTR [eax], -353637139 ; eaebecedH
  0032d	83 c0 04	 add	 eax, 4
  00330	49		 dec	 ecx
  00331	75 f4		 jne	 SHORT $LL848@LoadProper
  00333	80 75 f4 ed	 xor	 BYTE PTR __k$555066[ebp+12], -19 ; ffffffedH
  00337	53		 push	 ebx
  00338	8d 45 e8	 lea	 eax, DWORD PTR __k$555066[ebp]
  0033b	50		 push	 eax
  0033c	8b cf		 mov	 ecx, edi
  0033e	ff 15 00 00 00
	00		 call	 DWORD PTR __imp_?LoadInt@ioINILoader@@QAEHPBDH@Z
  00344	6a 04		 push	 4
  00346	89 86 94 11 00
	00		 mov	 DWORD PTR [esi+4500], eax

; 87   : 	m_dwCharRotateTime			= rkLoader.LoadInt_e( "char_rotate_speed", 0 );

  0034c	c7 45 e4 8e 84
	8a 98		 mov	 DWORD PTR __k$555191[ebp], -1735752562 ; 988a848eH
  00353	c7 45 e8 b2 9e
	84 9e		 mov	 DWORD PTR __k$555191[ebp+4], -1635475790 ; 9e849eb2H
  0035a	c7 45 ec 8c 98
	8e b5		 mov	 DWORD PTR __k$555191[ebp+8], -1248946036 ; b58e988cH
  00361	c7 45 f0 9e 9c
	8e 8f		 mov	 DWORD PTR __k$555191[ebp+12], -1886479202 ; 8f8e9c9eH
  00368	8d 45 e4	 lea	 eax, DWORD PTR __k$555191[ebp]
  0036b	66 c7 45 f4 89
	00		 mov	 WORD PTR __k$555191[ebp+16], 137 ; 00000089H
  00371	59		 pop	 ecx
$LL954@LoadProper:
  00372	81 30 ed ec eb
	ea		 xor	 DWORD PTR [eax], -353637139 ; eaebecedH
  00378	83 c0 04	 add	 eax, 4
  0037b	49		 dec	 ecx
  0037c	75 f4		 jne	 SHORT $LL954@LoadProper
  0037e	80 75 f4 ed	 xor	 BYTE PTR __k$555191[ebp+16], -19 ; ffffffedH
  00382	53		 push	 ebx
  00383	8d 45 e4	 lea	 eax, DWORD PTR __k$555191[ebp]
  00386	50		 push	 eax
  00387	8b cf		 mov	 ecx, edi
  00389	ff 15 00 00 00
	00		 call	 DWORD PTR __imp_?LoadInt@ioINILoader@@QAEHPBDH@Z
  0038f	6a 04		 push	 4
  00391	89 86 98 11 00
	00		 mov	 DWORD PTR [esi+4504], eax

; 88   : 	m_dwCharAttachWeaponIdx		= rkLoader.LoadInt_e( "char_attach_weapon", 0 );

  00397	c7 45 e0 8e 84
	8a 98		 mov	 DWORD PTR __k$555316[ebp], -1735752562 ; 988a848eH
  0039e	c7 45 e4 b2 8d
	9f 9e		 mov	 DWORD PTR __k$555316[ebp+4], -1633710670 ; 9e9f8db2H
  003a5	c7 45 e8 8c 8f
	83 b5		 mov	 DWORD PTR __k$555316[ebp+8], -1249669236 ; b5838f8cH
  003ac	c7 45 ec 9a 89
	8a 9a		 mov	 DWORD PTR __k$555316[ebp+12], -1702196838 ; 9a8a899aH
  003b3	66 c7 45 f0 82
	82		 mov	 WORD PTR __k$555316[ebp+16], 33410 ; 00008282H
  003b9	8d 45 e0	 lea	 eax, DWORD PTR __k$555316[ebp]
  003bc	88 5d f2	 mov	 BYTE PTR __k$555316[ebp+18], bl
  003bf	59		 pop	 ecx
$LL1060@LoadProper:
  003c0	81 30 ed ec eb
	ea		 xor	 DWORD PTR [eax], -353637139 ; eaebecedH
  003c6	83 c0 04	 add	 eax, 4
  003c9	49		 dec	 ecx
  003ca	75 f4		 jne	 SHORT $LL1060@LoadProper
  003cc	6a 10		 push	 16			; 00000010H
  003ce	58		 pop	 eax
$LL1057@LoadProper:
  003cf	8b c8		 mov	 ecx, eax
  003d1	81 e1 03 00 00
	80		 and	 ecx, -2147483645	; 80000003H
  003d7	79 05		 jns	 SHORT $LN1986@LoadProper
  003d9	49		 dec	 ecx
  003da	83 c9 fc	 or	 ecx, -4			; fffffffcH
  003dd	41		 inc	 ecx
$LN1986@LoadProper:
  003de	b2 ed		 mov	 dl, -19			; ffffffedH
  003e0	2a d1		 sub	 dl, cl
  003e2	30 54 05 e0	 xor	 BYTE PTR __k$555316[ebp+eax], dl
  003e6	40		 inc	 eax
  003e7	83 f8 12	 cmp	 eax, 18			; 00000012H
  003ea	7c e3		 jl	 SHORT $LL1057@LoadProper
  003ec	53		 push	 ebx
  003ed	8d 45 e0	 lea	 eax, DWORD PTR __k$555316[ebp]
  003f0	50		 push	 eax
  003f1	8b cf		 mov	 ecx, edi
  003f3	ff 15 00 00 00
	00		 call	 DWORD PTR __imp_?LoadInt@ioINILoader@@QAEHPBDH@Z
  003f9	6a 06		 push	 6
  003fb	89 86 9c 11 00
	00		 mov	 DWORD PTR [esi+4508], eax

; 89   : 	m_fCharAttachWeaponOffsetZ	= rkLoader.LoadFloat_e( "char_attach_weapon_offset_z", 50.0f );

  00401	c7 45 d8 8e 84
	8a 98		 mov	 DWORD PTR __k$555441[ebp], -1735752562 ; 988a848eH
  00408	c7 45 dc b2 8d
	9f 9e		 mov	 DWORD PTR __k$555441[ebp+4], -1633710670 ; 9e9f8db2H
  0040f	c7 45 e0 8c 8f
	83 b5		 mov	 DWORD PTR __k$555441[ebp+8], -1249669236 ; b5838f8cH
  00416	c7 45 e4 9a 89
	8a 9a		 mov	 DWORD PTR __k$555441[ebp+12], -1702196838 ; 9a8a899aH
  0041d	c7 45 e8 82 82
	b4 85		 mov	 DWORD PTR __k$555441[ebp+16], -2051767678 ; 85b48282H
  00424	c7 45 ec 8b 8a
	98 8f		 mov	 DWORD PTR __k$555441[ebp+20], -1885828469 ; 8f988a8bH
  0042b	8d 45 d8	 lea	 eax, DWORD PTR __k$555441[ebp]
  0042e	c7 45 f0 99 b3
	91 00		 mov	 DWORD PTR __k$555441[ebp+24], 9548697 ; 0091b399H
  00435	59		 pop	 ecx
$LL1166@LoadProper:
  00436	81 30 ed ec eb
	ea		 xor	 DWORD PTR [eax], -353637139 ; eaebecedH
  0043c	83 c0 04	 add	 eax, 4
  0043f	49		 dec	 ecx
  00440	75 f4		 jne	 SHORT $LL1166@LoadProper
  00442	6a 18		 push	 24			; 00000018H
  00444	58		 pop	 eax
$LL1163@LoadProper:
  00445	8b c8		 mov	 ecx, eax
  00447	81 e1 03 00 00
	80		 and	 ecx, -2147483645	; 80000003H
  0044d	79 05		 jns	 SHORT $LN1987@LoadProper
  0044f	49		 dec	 ecx
  00450	83 c9 fc	 or	 ecx, -4			; fffffffcH
  00453	41		 inc	 ecx
$LN1987@LoadProper:
  00454	b2 ed		 mov	 dl, -19			; ffffffedH
  00456	2a d1		 sub	 dl, cl
  00458	30 54 05 d8	 xor	 BYTE PTR __k$555441[ebp+eax], dl
  0045c	40		 inc	 eax
  0045d	83 f8 1b	 cmp	 eax, 27			; 0000001bH
  00460	7c e3		 jl	 SHORT $LL1163@LoadProper
  00462	f3 0f 10 05 00
	00 00 00	 movss	 xmm0, DWORD PTR __real@42480000
  0046a	51		 push	 ecx
  0046b	8d 45 d8	 lea	 eax, DWORD PTR __k$555441[ebp]
  0046e	f3 0f 11 04 24	 movss	 DWORD PTR [esp], xmm0
  00473	50		 push	 eax
  00474	8b cf		 mov	 ecx, edi
  00476	ff 15 00 00 00
	00		 call	 DWORD PTR __imp_?LoadFloat@ioINILoader@@QAEMPBDM@Z
  0047c	d9 9e a0 11 00
	00		 fstp	 DWORD PTR [esi+4512]
  00482	6a 06		 push	 6

; 90   : 	m_fCharAttachWeaponOffsetY	= rkLoader.LoadFloat_e( "char_attach_weapon_offset_y", 50.0f );

  00484	c7 45 d8 8e 84
	8a 98		 mov	 DWORD PTR __k$555566[ebp], -1735752562 ; 988a848eH
  0048b	c7 45 dc b2 8d
	9f 9e		 mov	 DWORD PTR __k$555566[ebp+4], -1633710670 ; 9e9f8db2H
  00492	c7 45 e0 8c 8f
	83 b5		 mov	 DWORD PTR __k$555566[ebp+8], -1249669236 ; b5838f8cH
  00499	c7 45 e4 9a 89
	8a 9a		 mov	 DWORD PTR __k$555566[ebp+12], -1702196838 ; 9a8a899aH
  004a0	c7 45 e8 82 82
	b4 85		 mov	 DWORD PTR __k$555566[ebp+16], -2051767678 ; 85b48282H
  004a7	c7 45 ec 8b 8a
	98 8f		 mov	 DWORD PTR __k$555566[ebp+20], -1885828469 ; 8f988a8bH
  004ae	8d 45 d8	 lea	 eax, DWORD PTR __k$555566[ebp]
  004b1	c7 45 f0 99 b3
	92 00		 mov	 DWORD PTR __k$555566[ebp+24], 9614233 ; 0092b399H
  004b8	59		 pop	 ecx
$LL1272@LoadProper:
  004b9	81 30 ed ec eb
	ea		 xor	 DWORD PTR [eax], -353637139 ; eaebecedH
  004bf	83 c0 04	 add	 eax, 4
  004c2	49		 dec	 ecx
  004c3	75 f4		 jne	 SHORT $LL1272@LoadProper
  004c5	6a 18		 push	 24			; 00000018H
  004c7	58		 pop	 eax
$LL1269@LoadProper:
  004c8	8b c8		 mov	 ecx, eax
  004ca	81 e1 03 00 00
	80		 and	 ecx, -2147483645	; 80000003H
  004d0	79 05		 jns	 SHORT $LN1988@LoadProper
  004d2	49		 dec	 ecx
  004d3	83 c9 fc	 or	 ecx, -4			; fffffffcH
  004d6	41		 inc	 ecx
$LN1988@LoadProper:
  004d7	b2 ed		 mov	 dl, -19			; ffffffedH
  004d9	2a d1		 sub	 dl, cl
  004db	30 54 05 d8	 xor	 BYTE PTR __k$555566[ebp+eax], dl
  004df	40		 inc	 eax
  004e0	83 f8 1b	 cmp	 eax, 27			; 0000001bH
  004e3	7c e3		 jl	 SHORT $LL1269@LoadProper
  004e5	f3 0f 10 05 00
	00 00 00	 movss	 xmm0, DWORD PTR __real@42480000
  004ed	51		 push	 ecx
  004ee	8d 45 d8	 lea	 eax, DWORD PTR __k$555566[ebp]
  004f1	f3 0f 11 04 24	 movss	 DWORD PTR [esp], xmm0
  004f6	50		 push	 eax
  004f7	8b cf		 mov	 ecx, edi
  004f9	ff 15 00 00 00
	00		 call	 DWORD PTR __imp_?LoadFloat@ioINILoader@@QAEMPBDM@Z
  004ff	d9 9e a4 11 00
	00		 fstp	 DWORD PTR [esi+4516]
  00505	6a 07		 push	 7

; 91   : 
; 92   : 	//Throw
; 93   : 	rkLoader.LoadString_e( "target_catch_delay_animation", "", szBuf, MAX_PATH );

  00507	c7 45 d8 99 8d
	99 8d		 mov	 DWORD PTR __k$555691[ebp], -1919316583 ; 8d998d99H
  0050e	c7 45 dc 88 98
	b4 89		 mov	 DWORD PTR __k$555691[ebp+4], -1984653176 ; 89b49888H
  00515	c7 45 e0 8c 98
	88 82		 mov	 DWORD PTR __k$555691[ebp+8], -2104977268 ; 8288988cH
  0051c	c7 45 e4 b2 88
	8e 86		 mov	 DWORD PTR __k$555691[ebp+12], -2037479246 ; 868e88b2H
  00523	c7 45 e8 8c 95
	b4 8b		 mov	 DWORD PTR __k$555691[ebp+16], -1951099508 ; 8bb4958cH
  0052a	c7 45 ec 83 85
	86 8b		 mov	 DWORD PTR __k$555691[ebp+20], -1954118269 ; 8b868583H
  00531	c7 45 f0 99 85
	84 84		 mov	 DWORD PTR __k$555691[ebp+24], -2071689831 ; 84848599H
  00538	8d 45 d8	 lea	 eax, DWORD PTR __k$555691[ebp]
  0053b	88 5d f4	 mov	 BYTE PTR __k$555691[ebp+28], bl
  0053e	59		 pop	 ecx
$LL1378@LoadProper:
  0053f	81 30 ed ec eb
	ea		 xor	 DWORD PTR [eax], -353637139 ; eaebecedH
  00545	83 c0 04	 add	 eax, 4
  00548	49		 dec	 ecx
  00549	75 f4		 jne	 SHORT $LL1378@LoadProper
  0054b	68 04 01 00 00	 push	 260			; 00000104H
  00550	8d 85 d0 fe ff
	ff		 lea	 eax, DWORD PTR _szBuf$[ebp]
  00556	50		 push	 eax
  00557	68 00 00 00 00	 push	 OFFSET ??_C@_00CNPNBAHC@?$AA@
  0055c	8d 45 d8	 lea	 eax, DWORD PTR __k$555691[ebp]
  0055f	50		 push	 eax
  00560	8b cf		 mov	 ecx, edi
  00562	ff 15 00 00 00
	00		 call	 DWORD PTR __imp_?LoadStringA@ioINILoader@@QAEXPBD0PADH@Z

; 94   : 	m_TargetCatchDelayAnimation			= szBuf;

  00568	8d 85 d0 fe ff
	ff		 lea	 eax, DWORD PTR _szBuf$[ebp]
  0056e	50		 push	 eax
  0056f	8d 8e c4 11 00
	00		 lea	 ecx, DWORD PTR [esi+4548]
  00575	ff 15 00 00 00
	00		 call	 DWORD PTR __imp_??4ioHashString@@QAEAAV0@PBD@Z
  0057b	6a 08		 push	 8

; 95   : 	m_fTargetCatchDelayAnimationRate	= rkLoader.LoadFloat_e( "target_catch_delay_animation_rate", 1.0f );

  0057d	c7 45 d4 99 8d
	99 8d		 mov	 DWORD PTR __k$555828[ebp], -1919316583 ; 8d998d99H
  00584	c7 45 d8 88 98
	b4 89		 mov	 DWORD PTR __k$555828[ebp+4], -1984653176 ; 89b49888H
  0058b	c7 45 dc 8c 98
	88 82		 mov	 DWORD PTR __k$555828[ebp+8], -2104977268 ; 8288988cH
  00592	c7 45 e0 b2 88
	8e 86		 mov	 DWORD PTR __k$555828[ebp+12], -2037479246 ; 868e88b2H
  00599	c7 45 e4 8c 95
	b4 8b		 mov	 DWORD PTR __k$555828[ebp+16], -1951099508 ; 8bb4958cH
  005a0	c7 45 e8 83 85
	86 8b		 mov	 DWORD PTR __k$555828[ebp+20], -1954118269 ; 8b868583H
  005a7	c7 45 ec 99 85
	84 84		 mov	 DWORD PTR __k$555828[ebp+24], -2071689831 ; 84848599H
  005ae	c7 45 f0 b2 9e
	8a 9e		 mov	 DWORD PTR __k$555828[ebp+28], -1635082574 ; 9e8a9eb2H
  005b5	8d 45 d4	 lea	 eax, DWORD PTR __k$555828[ebp]
  005b8	66 c7 45 f4 88
	00		 mov	 WORD PTR __k$555828[ebp+32], 136 ; 00000088H
  005be	59		 pop	 ecx
$LL1484@LoadProper:
  005bf	81 30 ed ec eb
	ea		 xor	 DWORD PTR [eax], -353637139 ; eaebecedH
  005c5	83 c0 04	 add	 eax, 4
  005c8	49		 dec	 ecx
  005c9	75 f4		 jne	 SHORT $LL1484@LoadProper
  005cb	f3 0f 10 05 00
	00 00 00	 movss	 xmm0, DWORD PTR __real@3f800000
  005d3	80 75 f4 ed	 xor	 BYTE PTR __k$555828[ebp+32], -19 ; ffffffedH
  005d7	51		 push	 ecx
  005d8	8d 45 d4	 lea	 eax, DWORD PTR __k$555828[ebp]
  005db	f3 0f 11 04 24	 movss	 DWORD PTR [esp], xmm0
  005e0	50		 push	 eax
  005e1	8b cf		 mov	 ecx, edi
  005e3	ff 15 00 00 00
	00		 call	 DWORD PTR __imp_?LoadFloat@ioINILoader@@QAEMPBDM@Z
  005e9	d9 9e d4 11 00
	00		 fstp	 DWORD PTR [esi+4564]
  005ef	6a 06		 push	 6

; 96   : 	m_dwTargetCatchDelayStartDuration	= rkLoader.LoadInt_e( "target_catch_delay_duration", 0 );	

  005f1	c7 45 d8 99 8d
	99 8d		 mov	 DWORD PTR __k$555928[ebp], -1919316583 ; 8d998d99H
  005f8	c7 45 dc 88 98
	b4 89		 mov	 DWORD PTR __k$555928[ebp+4], -1984653176 ; 89b49888H
  005ff	c7 45 e0 8c 98
	88 82		 mov	 DWORD PTR __k$555928[ebp+8], -2104977268 ; 8288988cH
  00606	c7 45 e4 b2 88
	8e 86		 mov	 DWORD PTR __k$555928[ebp+12], -2037479246 ; 868e88b2H
  0060d	c7 45 e8 8c 95
	b4 8e		 mov	 DWORD PTR __k$555928[ebp+16], -1900767860 ; 8eb4958cH
  00614	c7 45 ec 98 9e
	8a 9e		 mov	 DWORD PTR __k$555928[ebp+20], -1635082600 ; 9e8a9e98H
  0061b	8d 45 d8	 lea	 eax, DWORD PTR __k$555928[ebp]
  0061e	c7 45 f0 84 83
	85 00		 mov	 DWORD PTR __k$555928[ebp+24], 8749956 ; 00858384H
  00625	59		 pop	 ecx
$LL1590@LoadProper:
  00626	81 30 ed ec eb
	ea		 xor	 DWORD PTR [eax], -353637139 ; eaebecedH
  0062c	83 c0 04	 add	 eax, 4
  0062f	49		 dec	 ecx
  00630	75 f4		 jne	 SHORT $LL1590@LoadProper
  00632	6a 18		 push	 24			; 00000018H
  00634	58		 pop	 eax
$LL1587@LoadProper:
  00635	8b c8		 mov	 ecx, eax
  00637	81 e1 03 00 00
	80		 and	 ecx, -2147483645	; 80000003H
  0063d	79 05		 jns	 SHORT $LN1989@LoadProper
  0063f	49		 dec	 ecx
  00640	83 c9 fc	 or	 ecx, -4			; fffffffcH
  00643	41		 inc	 ecx
$LN1989@LoadProper:
  00644	b2 ed		 mov	 dl, -19			; ffffffedH
  00646	2a d1		 sub	 dl, cl
  00648	30 54 05 d8	 xor	 BYTE PTR __k$555928[ebp+eax], dl
  0064c	40		 inc	 eax
  0064d	83 f8 1b	 cmp	 eax, 27			; 0000001bH
  00650	7c e3		 jl	 SHORT $LL1587@LoadProper
  00652	53		 push	 ebx
  00653	8d 45 d8	 lea	 eax, DWORD PTR __k$555928[ebp]
  00656	50		 push	 eax
  00657	8b cf		 mov	 ecx, edi
  00659	ff 15 00 00 00
	00		 call	 DWORD PTR __imp_?LoadInt@ioINILoader@@QAEHPBDH@Z
  0065f	6a 05		 push	 5
  00661	89 86 e0 11 00
	00		 mov	 DWORD PTR [esi+4576], eax

; 97   : 	m_nTargetThrowMaxCount				= rkLoader.LoadInt_e( "target_catch_max_count", 2 );

  00667	c7 45 dc 99 8d
	99 8d		 mov	 DWORD PTR __k$556066[ebp], -1919316583 ; 8d998d99H
  0066e	c7 45 e0 88 98
	b4 89		 mov	 DWORD PTR __k$556066[ebp+4], -1984653176 ; 89b49888H
  00675	c7 45 e4 8c 98
	88 82		 mov	 DWORD PTR __k$556066[ebp+8], -2104977268 ; 8288988cH
  0067c	c7 45 e8 b2 81
	8a 92		 mov	 DWORD PTR __k$556066[ebp+12], -1836416590 ; 928a81b2H
  00683	c7 45 ec b2 8f
	84 9f		 mov	 DWORD PTR __k$556066[ebp+16], -1618702414 ; 9f848fb2H
  0068a	66 c7 45 f0 83
	98		 mov	 WORD PTR __k$556066[ebp+20], 39043 ; 00009883H
  00690	8d 45 dc	 lea	 eax, DWORD PTR __k$556066[ebp]
  00693	88 5d f2	 mov	 BYTE PTR __k$556066[ebp+22], bl
  00696	59		 pop	 ecx
$LL1696@LoadProper:
  00697	81 30 ed ec eb
	ea		 xor	 DWORD PTR [eax], -353637139 ; eaebecedH
  0069d	83 c0 04	 add	 eax, 4
  006a0	49		 dec	 ecx
  006a1	75 f4		 jne	 SHORT $LL1696@LoadProper
  006a3	6a 14		 push	 20			; 00000014H
  006a5	58		 pop	 eax
$LL1693@LoadProper:
  006a6	8b c8		 mov	 ecx, eax
  006a8	81 e1 03 00 00
	80		 and	 ecx, -2147483645	; 80000003H
  006ae	79 05		 jns	 SHORT $LN1990@LoadProper
  006b0	49		 dec	 ecx
  006b1	83 c9 fc	 or	 ecx, -4			; fffffffcH
  006b4	41		 inc	 ecx
$LN1990@LoadProper:
  006b5	b2 ed		 mov	 dl, -19			; ffffffedH
  006b7	2a d1		 sub	 dl, cl
  006b9	30 54 05 dc	 xor	 BYTE PTR __k$556066[ebp+eax], dl
  006bd	40		 inc	 eax
  006be	83 f8 16	 cmp	 eax, 22			; 00000016H
  006c1	7c e3		 jl	 SHORT $LL1693@LoadProper
  006c3	6a 02		 push	 2
  006c5	8d 45 dc	 lea	 eax, DWORD PTR __k$556066[ebp]
  006c8	50		 push	 eax
  006c9	8b cf		 mov	 ecx, edi
  006cb	ff 15 00 00 00
	00		 call	 DWORD PTR __imp_?LoadInt@ioINILoader@@QAEHPBDH@Z
  006d1	6a 05		 push	 5
  006d3	89 86 c0 11 00
	00		 mov	 DWORD PTR [esi+4544], eax

; 98   : 
; 99   : 	//End
; 100  : 	m_fEndTargetThrowMoveRange			= rkLoader.LoadFloat_e( "end_targe_thorw_range", 0.0f );

  006d9	c7 45 e0 88 82
	8f b5		 mov	 DWORD PTR __k$556191[ebp], -1248886136 ; b58f8288H
  006e0	c7 45 e4 99 8d
	99 8d		 mov	 DWORD PTR __k$556191[ebp+4], -1919316583 ; 8d998d99H
  006e7	c7 45 e8 88 b3
	9f 82		 mov	 DWORD PTR __k$556191[ebp+8], -2103463032 ; 829fb388H
  006ee	c7 45 ec 82 9e
	9c b5		 mov	 DWORD PTR __k$556191[ebp+12], -1248027006 ; b59c9e82H
  006f5	c7 45 f0 9f 8d
	85 8d		 mov	 DWORD PTR __k$556191[ebp+16], -1920627297 ; 8d858d9fH
  006fc	8d 45 e0	 lea	 eax, DWORD PTR __k$556191[ebp]
  006ff	66 c7 45 f4 88
	00		 mov	 WORD PTR __k$556191[ebp+20], 136 ; 00000088H
  00705	59		 pop	 ecx
$LL1802@LoadProper:
  00706	81 30 ed ec eb
	ea		 xor	 DWORD PTR [eax], -353637139 ; eaebecedH
  0070c	83 c0 04	 add	 eax, 4
  0070f	49		 dec	 ecx
  00710	75 f4		 jne	 SHORT $LL1802@LoadProper
  00712	0f 57 c0	 xorps	 xmm0, xmm0
  00715	80 75 f4 ed	 xor	 BYTE PTR __k$556191[ebp+20], -19 ; ffffffedH
  00719	51		 push	 ecx
  0071a	8d 45 e0	 lea	 eax, DWORD PTR __k$556191[ebp]
  0071d	f3 0f 11 04 24	 movss	 DWORD PTR [esp], xmm0
  00722	50		 push	 eax
  00723	8b cf		 mov	 ecx, edi
  00725	ff 15 00 00 00
	00		 call	 DWORD PTR __imp_?LoadFloat@ioINILoader@@QAEMPBDM@Z
  0072b	d9 9e d8 11 00
	00		 fstp	 DWORD PTR [esi+4568]
  00731	6a 02		 push	 2

; 101  : 
; 102  : 	//Buff
; 103  : 	rkLoader.LoadString_e( "target_buff", "", szBuf, MAX_PATH );

  00733	c7 45 e8 99 8d
	99 8d		 mov	 DWORD PTR __k$556316[ebp], -1919316583 ; 8d998d99H
  0073a	c7 45 ec 88 98
	b4 88		 mov	 DWORD PTR __k$556316[ebp+4], -2001430392 ; 88b49888H
  00741	8d 45 e8	 lea	 eax, DWORD PTR __k$556316[ebp]
  00744	c7 45 f0 98 8a
	8d 00		 mov	 DWORD PTR __k$556316[ebp+8], 9276056 ; 008d8a98H
  0074b	59		 pop	 ecx
$LL1908@LoadProper:
  0074c	81 30 ed ec eb
	ea		 xor	 DWORD PTR [eax], -353637139 ; eaebecedH
  00752	83 c0 04	 add	 eax, 4
  00755	49		 dec	 ecx
  00756	75 f4		 jne	 SHORT $LL1908@LoadProper
  00758	6a 08		 push	 8
  0075a	58		 pop	 eax
$LL1905@LoadProper:
  0075b	8b c8		 mov	 ecx, eax
  0075d	81 e1 03 00 00
	80		 and	 ecx, -2147483645	; 80000003H
  00763	79 05		 jns	 SHORT $LN1991@LoadProper
  00765	49		 dec	 ecx
  00766	83 c9 fc	 or	 ecx, -4			; fffffffcH
  00769	41		 inc	 ecx
$LN1991@LoadProper:
  0076a	b2 ed		 mov	 dl, -19			; ffffffedH
  0076c	2a d1		 sub	 dl, cl
  0076e	30 54 05 e8	 xor	 BYTE PTR __k$556316[ebp+eax], dl
  00772	40		 inc	 eax
  00773	83 f8 0b	 cmp	 eax, 11			; 0000000bH
  00776	7c e3		 jl	 SHORT $LL1905@LoadProper
  00778	68 04 01 00 00	 push	 260			; 00000104H
  0077d	8d 85 d0 fe ff
	ff		 lea	 eax, DWORD PTR _szBuf$[ebp]
  00783	50		 push	 eax
  00784	68 00 00 00 00	 push	 OFFSET ??_C@_00CNPNBAHC@?$AA@
  00789	8d 45 e8	 lea	 eax, DWORD PTR __k$556316[ebp]
  0078c	50		 push	 eax
  0078d	8b cf		 mov	 ecx, edi
  0078f	ff 15 00 00 00
	00		 call	 DWORD PTR __imp_?LoadStringA@ioINILoader@@QAEXPBD0PADH@Z

; 104  : 	m_TargetBuff = szBuf;

  00795	8d 85 d0 fe ff
	ff		 lea	 eax, DWORD PTR _szBuf$[ebp]
  0079b	50		 push	 eax
  0079c	8d 8e e4 11 00
	00		 lea	 ecx, DWORD PTR [esi+4580]
  007a2	ff 15 00 00 00
	00		 call	 DWORD PTR __imp_??4ioHashString@@QAEAAV0@PBD@Z

; 105  : }

  007a8	8b 4d fc	 mov	 ecx, DWORD PTR __$ArrayPad$[ebp]
  007ab	5f		 pop	 edi
  007ac	5e		 pop	 esi
  007ad	33 cd		 xor	 ecx, ebp
  007af	5b		 pop	 ebx
  007b0	e8 00 00 00 00	 call	 @__security_check_cookie@4
  007b5	c9		 leave
  007b6	c2 04 00	 ret	 4
?LoadProperty@ioSpaceMasterAttack@@UAEXAAVioINILoader@@@Z ENDP ; ioSpaceMasterAttack::LoadProperty
_TEXT	ENDS
PUBLIC	?CheckPreState@ioSpaceMasterAttack@@IAEXPAVioBaseChar@@PAVioPlayStage@@@Z ; ioSpaceMasterAttack::CheckPreState
EXTRN	__imp_?GetLoopSec@ioFrameTimer@@QBEKXZ:PROC
; Function compile flags: /Ogsp
;	COMDAT ?CheckPreState@ioSpaceMasterAttack@@IAEXPAVioBaseChar@@PAVioPlayStage@@@Z
_TEXT	SEGMENT
_pChar$ = 8						; size = 4
_pStage$ = 12						; size = 4
?CheckPreState@ioSpaceMasterAttack@@IAEXPAVioBaseChar@@PAVioPlayStage@@@Z PROC ; ioSpaceMasterAttack::CheckPreState, COMDAT
; _this$ = ecx

; 187  : {

  00000	55		 push	 ebp
  00001	8b ec		 mov	 ebp, esp
  00003	56		 push	 esi
  00004	57		 push	 edi
  00005	8b f1		 mov	 esi, ecx

; 188  : 	DWORD dwCurTime = FRAMEGETTIME();

  00007	ff 15 00 00 00
	00		 call	 DWORD PTR __imp_?GetSingleton@ioFrameTimer@@SAAAV1@XZ
  0000d	8b c8		 mov	 ecx, eax
  0000f	ff 15 00 00 00
	00		 call	 DWORD PTR __imp_?GetLoopSec@ioFrameTimer@@QBEKXZ
  00015	8b f8		 mov	 edi, eax

; 189  : 	DWORD dwPreDelay = GetPreDelayTime();

  00017	8b 06		 mov	 eax, DWORD PTR [esi]
  00019	8b ce		 mov	 ecx, esi
  0001b	ff 90 34 01 00
	00		 call	 DWORD PTR [eax+308]

; 190  : 
; 191  : 	if( m_dwPreDelayStartTime + dwPreDelay < dwCurTime )

  00021	8b 96 20 02 00
	00		 mov	 edx, DWORD PTR [esi+544]
  00027	03 d0		 add	 edx, eax
  00029	3b d7		 cmp	 edx, edi
  0002b	73 2e		 jae	 SHORT $LN1@CheckPreSt

; 192  : 	{	
; 193  : 		m_dwPreDelayStartTime = 0;
; 194  : 		EndPreDelayEffect( pChar );

  0002d	8b 7d 08	 mov	 edi, DWORD PTR _pChar$[ebp]
  00030	8b 06		 mov	 eax, DWORD PTR [esi]
  00032	83 a6 20 02 00
	00 00		 and	 DWORD PTR [esi+544], 0
  00039	57		 push	 edi
  0003a	8b ce		 mov	 ecx, esi
  0003c	ff 90 dc 00 00
	00		 call	 DWORD PTR [eax+220]

; 195  : 
; 196  : 		if( pChar->IsNeedProcess() )

  00042	8b 07		 mov	 eax, DWORD PTR [edi]
  00044	8b cf		 mov	 ecx, edi
  00046	ff 90 00 01 00
	00		 call	 DWORD PTR [eax+256]
  0004c	84 c0		 test	 al, al
  0004e	74 0b		 je	 SHORT $LN1@CheckPreSt

; 197  : 		{
; 198  : 			SetSkillActionState( pChar, pStage );

  00050	ff 75 0c	 push	 DWORD PTR _pStage$[ebp]
  00053	8b ce		 mov	 ecx, esi
  00055	57		 push	 edi
  00056	e8 00 00 00 00	 call	 ?SetSkillActionState@ioSpaceMasterAttack@@IAEXPAVioBaseChar@@PAVioPlayStage@@@Z ; ioSpaceMasterAttack::SetSkillActionState
$LN1@CheckPreSt:
  0005b	5f		 pop	 edi
  0005c	5e		 pop	 esi

; 199  : 		}
; 200  : 	}
; 201  : }

  0005d	5d		 pop	 ebp
  0005e	c2 08 00	 ret	 8
?CheckPreState@ioSpaceMasterAttack@@IAEXPAVioBaseChar@@PAVioPlayStage@@@Z ENDP ; ioSpaceMasterAttack::CheckPreState
_TEXT	ENDS
PUBLIC	__$ArrayPad$
PUBLIC	?SetWeaponDir@ioSpaceMasterAttack@@IAEXPAVioBaseChar@@PAVioPlayStage@@M@Z ; ioSpaceMasterAttack::SetWeaponDir
; Function compile flags: /Ogsp
;	COMDAT ?SetWeaponDir@ioSpaceMasterAttack@@IAEXPAVioBaseChar@@PAVioPlayStage@@M@Z
_TEXT	SEGMENT
_value$556536 = -36					; size = 4
_value$556526 = -29					; size = 1
_vDir$548773 = -28					; size = 12
$T548774 = -16						; size = 12
__$ArrayPad$ = -4					; size = 4
_pChar$ = 8						; size = 4
_pStage$ = 12						; size = 4
_fRange$ = 16						; size = 4
?SetWeaponDir@ioSpaceMasterAttack@@IAEXPAVioBaseChar@@PAVioPlayStage@@M@Z PROC ; ioSpaceMasterAttack::SetWeaponDir, COMDAT
; _this$ = ecx

; 439  : {

  00000	55		 push	 ebp
  00001	8b ec		 mov	 ebp, esp
  00003	83 ec 24	 sub	 esp, 36			; 00000024H
  00006	a1 00 00 00 00	 mov	 eax, DWORD PTR ___security_cookie
  0000b	33 c5		 xor	 eax, ebp
  0000d	89 45 fc	 mov	 DWORD PTR __$ArrayPad$[ebp], eax
  00010	56		 push	 esi
  00011	57		 push	 edi

; 440  : 	ioSelectPositionMoveWeapon* pWeapon = ToSelectPositionMoveWeapon( g_WeaponMgr.FindWeapon( pChar, m_dwSelectWeaponIdx ) );

  00012	ff b1 a8 11 00
	00		 push	 DWORD PTR [ecx+4520]
  00018	8b 7d 08	 mov	 edi, DWORD PTR _pChar$[ebp]
  0001b	57		 push	 edi
  0001c	e8 00 00 00 00	 call	 ?GetSingleton@ioWeaponManager@@SAAAV1@XZ ; ioWeaponManager::GetSingleton
  00021	8b c8		 mov	 ecx, eax
  00023	e8 00 00 00 00	 call	 ?FindWeapon@ioWeaponManager@@QAEPAVioWeapon@@PAVioBaseChar@@K@Z ; ioWeaponManager::FindWeapon
  00028	50		 push	 eax
  00029	e8 00 00 00 00	 call	 ?ToSelectPositionMoveWeapon@@YAPAVioSelectPositionMoveWeapon@@PAVioWeapon@@@Z ; ToSelectPositionMoveWeapon
  0002e	8b f0		 mov	 esi, eax
  00030	59		 pop	 ecx

; 441  : 	if( pWeapon )

  00031	85 f6		 test	 esi, esi
  00033	0f 84 84 00 00
	00		 je	 $LN17@SetWeaponD

; 442  : 	{	
; 443  : 		D3DXVECTOR3 vDir = pChar->GetTargetRot() * D3DXVECTOR3( 0.0f, 0.0f, -1.0f );			

  00039	0f 57 c0	 xorps	 xmm0, xmm0
  0003c	8d 45 f0	 lea	 eax, DWORD PTR $T548774[ebp]
  0003f	50		 push	 eax
  00040	81 c7 a4 06 00
	00		 add	 edi, 1700		; 000006a4H
  00046	8d 45 e4	 lea	 eax, DWORD PTR _vDir$548773[ebp]
  00049	f3 0f 11 45 f0	 movss	 DWORD PTR $T548774[ebp], xmm0
  0004e	f3 0f 11 45 f4	 movss	 DWORD PTR $T548774[ebp+4], xmm0
  00053	f3 0f 10 05 00
	00 00 00	 movss	 xmm0, DWORD PTR __real@bf800000
  0005b	57		 push	 edi
  0005c	50		 push	 eax
  0005d	f3 0f 11 45 f8	 movss	 DWORD PTR $T548774[ebp+8], xmm0
  00062	ff 15 00 00 00
	00		 call	 DWORD PTR __imp_??D@YA?AUD3DXVECTOR3@@ABUD3DXQUATERNION@@ABU0@@Z

; 444  : 
; 445  : 		pWeapon->SetMoveDir( vDir );

  00068	8b 06		 mov	 eax, DWORD PTR [esi]
  0006a	83 c4 0c	 add	 esp, 12			; 0000000cH
  0006d	8d 4d e4	 lea	 ecx, DWORD PTR _vDir$548773[ebp]
  00070	51		 push	 ecx
  00071	8b ce		 mov	 ecx, esi
  00073	ff 90 b0 00 00
	00		 call	 DWORD PTR [eax+176]

; 446  : 		pWeapon->SetDisableMove( false );

  00079	8d 45 e3	 lea	 eax, DWORD PTR _value$556526[ebp]
  0007c	50		 push	 eax
  0007d	8d 8e 18 0a 00
	00		 lea	 ecx, DWORD PTR [esi+2584]
  00083	c6 45 e3 00	 mov	 BYTE PTR _value$556526[ebp], 0
  00087	e8 00 00 00 00	 call	 ?EncryptValueToPool@?$CEncrypt@_N@@AAEXPBD@Z ; CEncrypt<bool>::EncryptValueToPool

; 447  : 		pWeapon->SetCurrMoveRange( 0.0f );

  0008c	0f 57 c0	 xorps	 xmm0, xmm0
  0008f	8d 45 dc	 lea	 eax, DWORD PTR _value$556536[ebp]
  00092	50		 push	 eax
  00093	8d 8e 8c 0a 00
	00		 lea	 ecx, DWORD PTR [esi+2700]
  00099	f3 0f 11 45 dc	 movss	 DWORD PTR _value$556536[ebp], xmm0
  0009e	e8 00 00 00 00	 call	 ?EncryptValueToPool@?$CEncrypt@M@@AAEXPBD@Z ; CEncrypt<float>::EncryptValueToPool

; 448  : 
; 449  : 		if( 0.0f < fRange )

  000a3	f3 0f 10 45 10	 movss	 xmm0, DWORD PTR _fRange$[ebp]
  000a8	0f 5a c8	 cvtps2pd xmm1, xmm0
  000ab	66 0f 2f 0d 00
	00 00 00	 comisd	 xmm1, QWORD PTR __real@0000000000000000
  000b3	76 08		 jbe	 SHORT $LN17@SetWeaponD

; 450  : 		{
; 451  : 			pWeapon->SetMoveRangeBySkill( fRange );

  000b5	f3 0f 11 86 58
	0a 00 00	 movss	 DWORD PTR [esi+2648], xmm0
$LN17@SetWeaponD:

; 452  : 		}
; 453  : 	}
; 454  : }

  000bd	8b 4d fc	 mov	 ecx, DWORD PTR __$ArrayPad$[ebp]
  000c0	5f		 pop	 edi
  000c1	33 cd		 xor	 ecx, ebp
  000c3	5e		 pop	 esi
  000c4	e8 00 00 00 00	 call	 @__security_check_cookie@4
  000c9	c9		 leave
  000ca	c2 0c 00	 ret	 12			; 0000000cH
?SetWeaponDir@ioSpaceMasterAttack@@IAEXPAVioBaseChar@@PAVioPlayStage@@M@Z ENDP ; ioSpaceMasterAttack::SetWeaponDir
_TEXT	ENDS
PUBLIC	?IsProtected@ioSpaceMasterAttack@@UBE_NH@Z	; ioSpaceMasterAttack::IsProtected
; Function compile flags: /Ogsp
;	COMDAT ?IsProtected@ioSpaceMasterAttack@@UBE_NH@Z
_TEXT	SEGMENT
_value$556547 = -1					; size = 1
_value$556552 = 8					; size = 4
_iDefenseBreakType$ = 8					; size = 4
?IsProtected@ioSpaceMasterAttack@@UBE_NH@Z PROC		; ioSpaceMasterAttack::IsProtected, COMDAT
; _this$ = ecx

; 764  : {

  00000	55		 push	 ebp
  00001	8b ec		 mov	 ebp, esp
  00003	51		 push	 ecx
  00004	56		 push	 esi
  00005	8b f1		 mov	 esi, ecx

; 765  : 	if( m_bDisableSkillProtect )

  00007	8d 45 ff	 lea	 eax, DWORD PTR _value$556547[ebp]
  0000a	50		 push	 eax
  0000b	8d 8e a8 00 00
	00		 lea	 ecx, DWORD PTR [esi+168]
  00011	e8 00 00 00 00	 call	 ?DecryptValueToPool@?$CEncrypt@_N@@QAEXPA_N@Z ; CEncrypt<bool>::DecryptValueToPool
  00016	80 7d ff 00	 cmp	 BYTE PTR _value$556547[ebp], 0

; 766  : 		return false;

  0001a	75 46		 jne	 SHORT $LN1@IsProtecte

; 767  : 
; 768  : 	//   
; 769  : 	if( DBT_NONE != (DefenseBreakType)m_ProtectCancelType )

  0001c	8b 86 a4 00 00
	00		 mov	 eax, DWORD PTR [esi+164]
  00022	85 c0		 test	 eax, eax
  00024	74 05		 je	 SHORT $LN2@IsProtecte

; 770  : 	{		
; 771  : 		if( iDefenseBreakType == m_ProtectCancelType )

  00026	39 45 08	 cmp	 DWORD PTR _iDefenseBreakType$[ebp], eax

; 772  : 			return false;

  00029	74 37		 je	 SHORT $LN1@IsProtecte
$LN2@IsProtecte:

; 773  : 	}
; 774  : 
; 775  : 	if( 0 < m_dwSkillProtectTime && FRAMEGETTIME() < m_dwSkillStartTime + m_dwSkillProtectTime )

  0002b	83 be ec 10 00
	00 00		 cmp	 DWORD PTR [esi+4332], 0
  00032	76 2e		 jbe	 SHORT $LN1@IsProtecte
  00034	8d 45 08	 lea	 eax, DWORD PTR _value$556552[ebp]
  00037	50		 push	 eax
  00038	8d 8e 94 0e 00
	00		 lea	 ecx, DWORD PTR [esi+3732]
  0003e	e8 00 00 00 00	 call	 ?DecryptValueToPool@?$CEncrypt@K@@QAEXPAK@Z ; CEncrypt<unsigned long>::DecryptValueToPool
  00043	ff 15 00 00 00
	00		 call	 DWORD PTR __imp_?GetSingleton@ioFrameTimer@@SAAAV1@XZ
  00049	8b c8		 mov	 ecx, eax
  0004b	ff 15 00 00 00
	00		 call	 DWORD PTR __imp_?GetLoopSec@ioFrameTimer@@QBEKXZ
  00051	8b 8e ec 10 00
	00		 mov	 ecx, DWORD PTR [esi+4332]
  00057	03 4d 08	 add	 ecx, DWORD PTR _value$556552[ebp]
  0005a	3b c1		 cmp	 eax, ecx
  0005c	73 04		 jae	 SHORT $LN1@IsProtecte

; 776  : 		return true;

  0005e	b0 01		 mov	 al, 1
  00060	eb 02		 jmp	 SHORT $LN5@IsProtecte
$LN1@IsProtecte:

; 777  : 
; 778  : 	return false;

  00062	32 c0		 xor	 al, al
$LN5@IsProtecte:
  00064	5e		 pop	 esi

; 779  : }

  00065	c9		 leave
  00066	c2 04 00	 ret	 4
?IsProtected@ioSpaceMasterAttack@@UBE_NH@Z ENDP		; ioSpaceMasterAttack::IsProtected
_TEXT	ENDS
PUBLIC	?_Grow_to@?$vector@VioHashString@@V?$allocator@VioHashString@@@std@@@std@@IBEII@Z ; std::vector<ioHashString,std::allocator<ioHashString> >::_Grow_to
; Function compile flags: /Ogsp
; File c:\program files (x86)\microsoft visual studio 10.0\vc\include\vector
;	COMDAT ?_Grow_to@?$vector@VioHashString@@V?$allocator@VioHashString@@@std@@@std@@IBEII@Z
_TEXT	SEGMENT
__Count$ = 8						; size = 4
?_Grow_to@?$vector@VioHashString@@V?$allocator@VioHashString@@@std@@@std@@IBEII@Z PROC ; std::vector<ioHashString,std::allocator<ioHashString> >::_Grow_to, COMDAT
; _this$ = ecx

; 1274 : 		{	// grow by 50% or at least to _Count

  00000	55		 push	 ebp
  00001	8b ec		 mov	 ebp, esp

; 1275 : 		size_type _Capacity = capacity();

  00003	8b 41 08	 mov	 eax, DWORD PTR [ecx+8]
  00006	2b 01		 sub	 eax, DWORD PTR [ecx]

; 1276 : 
; 1277 : 		_Capacity = max_size() - _Capacity / 2 < _Capacity
; 1278 : 			? 0 : _Capacity + _Capacity / 2;	// try to grow by 50%

  00008	ba ff ff ff 0f	 mov	 edx, 268435455		; 0fffffffH
  0000d	c1 f8 04	 sar	 eax, 4
  00010	8b c8		 mov	 ecx, eax
  00012	d1 e9		 shr	 ecx, 1
  00014	2b d1		 sub	 edx, ecx
  00016	3b d0		 cmp	 edx, eax
  00018	73 04		 jae	 SHORT $LN4@Grow_to@2
  0001a	33 c0		 xor	 eax, eax
  0001c	eb 02		 jmp	 SHORT $LN5@Grow_to@2
$LN4@Grow_to@2:
  0001e	03 c1		 add	 eax, ecx
$LN5@Grow_to@2:

; 1279 : 		if (_Capacity < _Count)

  00020	3b 45 08	 cmp	 eax, DWORD PTR __Count$[ebp]

; 1280 : 			_Capacity = _Count;

  00023	0f 42 45 08	 cmovb	 eax, DWORD PTR __Count$[ebp]

; 1281 : 		return (_Capacity);
; 1282 : 		}

  00027	5d		 pop	 ebp
  00028	c2 04 00	 ret	 4
?_Grow_to@?$vector@VioHashString@@V?$allocator@VioHashString@@@std@@@std@@IBEII@Z ENDP ; std::vector<ioHashString,std::allocator<ioHashString> >::_Grow_to
_TEXT	ENDS
PUBLIC	??$_Cons_val@V?$allocator@VioHashString@@@std@@VioHashString@@AAV3@@std@@YAXAAV?$allocator@VioHashString@@@0@PAVioHashString@@AAV2@@Z ; std::_Cons_val<std::allocator<ioHashString>,ioHashString,ioHashString &>
; Function compile flags: /Ogsp
; File c:\program files (x86)\microsoft visual studio 10.0\vc\include\xmemory
;	COMDAT ??$_Cons_val@V?$allocator@VioHashString@@@std@@VioHashString@@AAV3@@std@@YAXAAV?$allocator@VioHashString@@@0@PAVioHashString@@AAV2@@Z
_TEXT	SEGMENT
__Alval$ = 8						; size = 4
__Pdest$ = 12						; size = 4
__Src$ = 16						; size = 4
??$_Cons_val@V?$allocator@VioHashString@@@std@@VioHashString@@AAV3@@std@@YAXAAV?$allocator@VioHashString@@@0@PAVioHashString@@AAV2@@Z PROC ; std::_Cons_val<std::allocator<ioHashString>,ioHashString,ioHashString &>, COMDAT

; 279  : 	{	// construct using allocator

  00000	55		 push	 ebp
  00001	8b ec		 mov	 ebp, esp

; 280  : 	_Alval.construct(_Pdest, _STD forward<_Ty2>(_Src));

  00003	ff 75 10	 push	 DWORD PTR __Src$[ebp]
  00006	8b 4d 08	 mov	 ecx, DWORD PTR __Alval$[ebp]
  00009	ff 75 0c	 push	 DWORD PTR __Pdest$[ebp]
  0000c	e8 00 00 00 00	 call	 ??$construct@AAVioHashString@@@?$allocator@VioHashString@@@std@@QAEXPAVioHashString@@AAV2@@Z ; std::allocator<ioHashString>::construct<ioHashString &>

; 281  : 	}

  00011	5d		 pop	 ebp
  00012	c3		 ret	 0
??$_Cons_val@V?$allocator@VioHashString@@@std@@VioHashString@@AAV3@@std@@YAXAAV?$allocator@VioHashString@@@0@PAVioHashString@@AAV2@@Z ENDP ; std::_Cons_val<std::allocator<ioHashString>,ioHashString,ioHashString &>
_TEXT	ENDS
PUBLIC	??$_Cons_val@V?$allocator@UForceInfo@@@std@@UForceInfo@@ABU3@@std@@YAXAAV?$allocator@UForceInfo@@@0@PAUForceInfo@@ABU2@@Z ; std::_Cons_val<std::allocator<ForceInfo>,ForceInfo,ForceInfo const &>
; Function compile flags: /Ogsp
;	COMDAT ??$_Cons_val@V?$allocator@UForceInfo@@@std@@UForceInfo@@ABU3@@std@@YAXAAV?$allocator@UForceInfo@@@0@PAUForceInfo@@ABU2@@Z
_TEXT	SEGMENT
__Alval$ = 8						; size = 4
__Pdest$ = 12						; size = 4
__Src$ = 16						; size = 4
??$_Cons_val@V?$allocator@UForceInfo@@@std@@UForceInfo@@ABU3@@std@@YAXAAV?$allocator@UForceInfo@@@0@PAUForceInfo@@ABU2@@Z PROC ; std::_Cons_val<std::allocator<ForceInfo>,ForceInfo,ForceInfo const &>, COMDAT

; 279  : 	{	// construct using allocator

  00000	55		 push	 ebp
  00001	8b ec		 mov	 ebp, esp
  00003	57		 push	 edi

; 280  : 	_Alval.construct(_Pdest, _STD forward<_Ty2>(_Src));

  00004	8b 7d 0c	 mov	 edi, DWORD PTR __Pdest$[ebp]
  00007	85 ff		 test	 edi, edi
  00009	74 08		 je	 SHORT $LN9@Cons_val@2
  0000b	56		 push	 esi
  0000c	8b 75 10	 mov	 esi, DWORD PTR __Src$[ebp]
  0000f	a5		 movsd
  00010	a5		 movsd
  00011	a5		 movsd
  00012	5e		 pop	 esi
$LN9@Cons_val@2:
  00013	5f		 pop	 edi

; 281  : 	}

  00014	5d		 pop	 ebp
  00015	c3		 ret	 0
??$_Cons_val@V?$allocator@UForceInfo@@@std@@UForceInfo@@ABU3@@std@@YAXAAV?$allocator@UForceInfo@@@0@PAUForceInfo@@ABU2@@Z ENDP ; std::_Cons_val<std::allocator<ForceInfo>,ForceInfo,ForceInfo const &>
_TEXT	ENDS
PUBLIC	??$_Cons_val@V?$allocator@VioHashString@@@std@@VioHashString@@V3@@std@@YAXAAV?$allocator@VioHashString@@@0@PAVioHashString@@$$QAV2@@Z ; std::_Cons_val<std::allocator<ioHashString>,ioHashString,ioHashString>
; Function compile flags: /Ogsp
;	COMDAT ??$_Cons_val@V?$allocator@VioHashString@@@std@@VioHashString@@V3@@std@@YAXAAV?$allocator@VioHashString@@@0@PAVioHashString@@$$QAV2@@Z
_TEXT	SEGMENT
__Alval$ = 8						; size = 4
__Pdest$ = 12						; size = 4
__Src$ = 16						; size = 4
??$_Cons_val@V?$allocator@VioHashString@@@std@@VioHashString@@V3@@std@@YAXAAV?$allocator@VioHashString@@@0@PAVioHashString@@$$QAV2@@Z PROC ; std::_Cons_val<std::allocator<ioHashString>,ioHashString,ioHashString>, COMDAT

; 279  : 	{	// construct using allocator

  00000	55		 push	 ebp
  00001	8b ec		 mov	 ebp, esp

; 280  : 	_Alval.construct(_Pdest, _STD forward<_Ty2>(_Src));

  00003	ff 75 10	 push	 DWORD PTR __Src$[ebp]
  00006	8b 4d 08	 mov	 ecx, DWORD PTR __Alval$[ebp]
  00009	ff 75 0c	 push	 DWORD PTR __Pdest$[ebp]
  0000c	e8 00 00 00 00	 call	 ?construct@?$allocator@VioHashString@@@std@@QAEXPAVioHashString@@$$QAV3@@Z ; std::allocator<ioHashString>::construct

; 281  : 	}

  00011	5d		 pop	 ebp
  00012	c3		 ret	 0
??$_Cons_val@V?$allocator@VioHashString@@@std@@VioHashString@@V3@@std@@YAXAAV?$allocator@VioHashString@@@0@PAVioHashString@@$$QAV2@@Z ENDP ; std::_Cons_val<std::allocator<ioHashString>,ioHashString,ioHashString>
_TEXT	ENDS
PUBLIC	?construct@?$allocator@UWeaponInfo@@@std@@QAEXPAUWeaponInfo@@ABU3@@Z ; std::allocator<WeaponInfo>::construct
; Function compile flags: /Ogsp
;	COMDAT ?construct@?$allocator@UWeaponInfo@@@std@@QAEXPAUWeaponInfo@@ABU3@@Z
_TEXT	SEGMENT
__Ptr$ = 8						; size = 4
__Val$ = 12						; size = 4
?construct@?$allocator@UWeaponInfo@@@std@@QAEXPAUWeaponInfo@@ABU3@@Z PROC ; std::allocator<WeaponInfo>::construct, COMDAT
; _this$ = ecx

; 196  : 		{	// construct object at _Ptr with value _Val

  00000	55		 push	 ebp
  00001	8b ec		 mov	 ebp, esp

; 197  : 		_Construct(_Ptr, _Val);

  00003	ff 75 0c	 push	 DWORD PTR __Val$[ebp]
  00006	ff 75 08	 push	 DWORD PTR __Ptr$[ebp]
  00009	e8 00 00 00 00	 call	 ??$_Construct@UWeaponInfo@@ABU1@@std@@YAXPAUWeaponInfo@@ABU1@@Z ; std::_Construct<WeaponInfo,WeaponInfo const &>
  0000e	59		 pop	 ecx
  0000f	59		 pop	 ecx

; 198  : 		}

  00010	5d		 pop	 ebp
  00011	c2 08 00	 ret	 8
?construct@?$allocator@UWeaponInfo@@@std@@QAEXPAUWeaponInfo@@ABU3@@Z ENDP ; std::allocator<WeaponInfo>::construct
_TEXT	ENDS
PUBLIC	?GetTeam@ioPlayEntity@@QBE?AW4TeamType@@XZ	; ioPlayEntity::GetTeam
; Function compile flags: /Ogsp
; File d:\lost saga for developer\youtube\tutorial\source\src\lsclient\ioplayentity.h
;	COMDAT ?GetTeam@ioPlayEntity@@QBE?AW4TeamType@@XZ
_TEXT	SEGMENT
_value$556636 = -4					; size = 4
?GetTeam@ioPlayEntity@@QBE?AW4TeamType@@XZ PROC		; ioPlayEntity::GetTeam, COMDAT
; _this$ = ecx

; 107  : 	inline TeamType GetTeam() const { return m_TeamType; }

  00000	55		 push	 ebp
  00001	8b ec		 mov	 ebp, esp
  00003	51		 push	 ecx
  00004	8d 45 fc	 lea	 eax, DWORD PTR _value$556636[ebp]
  00007	50		 push	 eax
  00008	81 c1 90 00 00
	00		 add	 ecx, 144		; 00000090H
  0000e	e8 00 00 00 00	 call	 ?DecryptValueToPool@?$CEncrypt@W4TeamType@@@@QAEXPAW4TeamType@@@Z ; CEncrypt<enum TeamType>::DecryptValueToPool
  00013	8b 45 fc	 mov	 eax, DWORD PTR _value$556636[ebp]
  00016	c9		 leave
  00017	c3		 ret	 0
?GetTeam@ioPlayEntity@@QBE?AW4TeamType@@XZ ENDP		; ioPlayEntity::GetTeam
_TEXT	ENDS
PUBLIC	??0?$vector@VioHashString@@V?$allocator@VioHashString@@@std@@@std@@QAE@XZ ; std::vector<ioHashString,std::allocator<ioHashString> >::vector<ioHashString,std::allocator<ioHashString> >
; Function compile flags: /Ogsp
; File c:\program files (x86)\microsoft visual studio 10.0\vc\include\vector
;	COMDAT ??0?$vector@VioHashString@@V?$allocator@VioHashString@@@std@@@std@@QAE@XZ
_TEXT	SEGMENT
??0?$vector@VioHashString@@V?$allocator@VioHashString@@@std@@@std@@QAE@XZ PROC ; std::vector<ioHashString,std::allocator<ioHashString> >::vector<ioHashString,std::allocator<ioHashString> >, COMDAT
; _this$ = ecx

; 507  : 		{	// construct empty vector

  00000	8b c1		 mov	 eax, ecx
  00002	33 c9		 xor	 ecx, ecx
  00004	89 08		 mov	 DWORD PTR [eax], ecx
  00006	89 48 04	 mov	 DWORD PTR [eax+4], ecx
  00009	89 48 08	 mov	 DWORD PTR [eax+8], ecx

; 508  : 		}

  0000c	c3		 ret	 0
??0?$vector@VioHashString@@V?$allocator@VioHashString@@@std@@@std@@QAE@XZ ENDP ; std::vector<ioHashString,std::allocator<ioHashString> >::vector<ioHashString,std::allocator<ioHashString> >
_TEXT	ENDS
PUBLIC	??0?$vector@UWeaponInfo@@V?$allocator@UWeaponInfo@@@std@@@std@@QAE@XZ ; std::vector<WeaponInfo,std::allocator<WeaponInfo> >::vector<WeaponInfo,std::allocator<WeaponInfo> >
; Function compile flags: /Ogsp
;	COMDAT ??0?$vector@UWeaponInfo@@V?$allocator@UWeaponInfo@@@std@@@std@@QAE@XZ
_TEXT	SEGMENT
??0?$vector@UWeaponInfo@@V?$allocator@UWeaponInfo@@@std@@@std@@QAE@XZ PROC ; std::vector<WeaponInfo,std::allocator<WeaponInfo> >::vector<WeaponInfo,std::allocator<WeaponInfo> >, COMDAT
; _this$ = ecx

; 507  : 		{	// construct empty vector

  00000	8b c1		 mov	 eax, ecx
  00002	33 c9		 xor	 ecx, ecx
  00004	89 08		 mov	 DWORD PTR [eax], ecx
  00006	89 48 04	 mov	 DWORD PTR [eax+4], ecx
  00009	89 48 08	 mov	 DWORD PTR [eax+8], ecx

; 508  : 		}

  0000c	c3		 ret	 0
??0?$vector@UWeaponInfo@@V?$allocator@UWeaponInfo@@@std@@@std@@QAE@XZ ENDP ; std::vector<WeaponInfo,std::allocator<WeaponInfo> >::vector<WeaponInfo,std::allocator<WeaponInfo> >
_TEXT	ENDS
PUBLIC	??0?$vector@UForceInfo@@V?$allocator@UForceInfo@@@std@@@std@@QAE@XZ ; std::vector<ForceInfo,std::allocator<ForceInfo> >::vector<ForceInfo,std::allocator<ForceInfo> >
; Function compile flags: /Ogsp
;	COMDAT ??0?$vector@UForceInfo@@V?$allocator@UForceInfo@@@std@@@std@@QAE@XZ
_TEXT	SEGMENT
??0?$vector@UForceInfo@@V?$allocator@UForceInfo@@@std@@@std@@QAE@XZ PROC ; std::vector<ForceInfo,std::allocator<ForceInfo> >::vector<ForceInfo,std::allocator<ForceInfo> >, COMDAT
; _this$ = ecx

; 507  : 		{	// construct empty vector

  00000	8b c1		 mov	 eax, ecx
  00002	33 c9		 xor	 ecx, ecx
  00004	89 08		 mov	 DWORD PTR [eax], ecx
  00006	89 48 04	 mov	 DWORD PTR [eax+4], ecx
  00009	89 48 08	 mov	 DWORD PTR [eax+8], ecx

; 508  : 		}

  0000c	c3		 ret	 0
??0?$vector@UForceInfo@@V?$allocator@UForceInfo@@@std@@@std@@QAE@XZ ENDP ; std::vector<ForceInfo,std::allocator<ForceInfo> >::vector<ForceInfo,std::allocator<ForceInfo> >
_TEXT	ENDS
PUBLIC	??0?$vector@KV?$allocator@K@std@@@std@@QAE@XZ	; std::vector<unsigned long,std::allocator<unsigned long> >::vector<unsigned long,std::allocator<unsigned long> >
; Function compile flags: /Ogsp
;	COMDAT ??0?$vector@KV?$allocator@K@std@@@std@@QAE@XZ
_TEXT	SEGMENT
??0?$vector@KV?$allocator@K@std@@@std@@QAE@XZ PROC	; std::vector<unsigned long,std::allocator<unsigned long> >::vector<unsigned long,std::allocator<unsigned long> >, COMDAT
; _this$ = ecx

; 507  : 		{	// construct empty vector

  00000	8b c1		 mov	 eax, ecx
  00002	33 c9		 xor	 ecx, ecx
  00004	89 08		 mov	 DWORD PTR [eax], ecx
  00006	89 48 04	 mov	 DWORD PTR [eax+4], ecx
  00009	89 48 08	 mov	 DWORD PTR [eax+8], ecx

; 508  : 		}

  0000c	c3		 ret	 0
??0?$vector@KV?$allocator@K@std@@@std@@QAE@XZ ENDP	; std::vector<unsigned long,std::allocator<unsigned long> >::vector<unsigned long,std::allocator<unsigned long> >
_TEXT	ENDS
PUBLIC	?_Buy@?$vector@VioHashString@@V?$allocator@VioHashString@@@std@@@std@@IAE_NI@Z ; std::vector<ioHashString,std::allocator<ioHashString> >::_Buy
; Function compile flags: /Ogsp
;	COMDAT ?_Buy@?$vector@VioHashString@@V?$allocator@VioHashString@@@std@@@std@@IAE_NI@Z
_TEXT	SEGMENT
__Capacity$ = 8						; size = 4
?_Buy@?$vector@VioHashString@@V?$allocator@VioHashString@@@std@@@std@@IAE_NI@Z PROC ; std::vector<ioHashString,std::allocator<ioHashString> >::_Buy, COMDAT
; _this$ = ecx

; 1250 : 		{	// allocate array with _Capacity elements

  00000	55		 push	 ebp
  00001	8b ec		 mov	 ebp, esp
  00003	56		 push	 esi

; 1251 : 		this->_Myfirst = 0;

  00004	33 c0		 xor	 eax, eax
  00006	57		 push	 edi

; 1252 : 		this->_Mylast = 0;
; 1253 : 		this->_Myend = 0;
; 1254 : 
; 1255 : 		if (_Capacity == 0)

  00007	8b 7d 08	 mov	 edi, DWORD PTR __Capacity$[ebp]
  0000a	8b f1		 mov	 esi, ecx
  0000c	89 06		 mov	 DWORD PTR [esi], eax
  0000e	89 46 04	 mov	 DWORD PTR [esi+4], eax
  00011	89 46 08	 mov	 DWORD PTR [esi+8], eax
  00014	3b f8		 cmp	 edi, eax
  00016	75 04		 jne	 SHORT $LN4@Buy

; 1256 : 			return (false);

  00018	32 c0		 xor	 al, al
  0001a	eb 2b		 jmp	 SHORT $LN5@Buy
$LN4@Buy:

; 1257 : 		else if (max_size() < _Capacity)

  0001c	81 ff ff ff ff
	0f		 cmp	 edi, 268435455		; 0fffffffH
  00022	76 0b		 jbe	 SHORT $LN2@Buy

; 1258 : 			_Xlen();	// result too long

  00024	68 00 00 00 00	 push	 OFFSET ??_C@_0BD@OLBABOEK@vector?$DMT?$DO?5too?5long?$AA@
  00029	ff 15 00 00 00
	00		 call	 DWORD PTR __imp_?_Xlength_error@std@@YAXPBD@Z
$LN19@Buy:
$LN2@Buy:

; 1259 : 		else
; 1260 : 			{	// nonempty array, allocate storage
; 1261 : 			this->_Myfirst = this->_Alval.allocate(_Capacity);

  0002f	50		 push	 eax
  00030	57		 push	 edi
  00031	e8 00 00 00 00	 call	 ??$_Allocate@VioHashString@@@std@@YAPAVioHashString@@IPAV1@@Z ; std::_Allocate<ioHashString>

; 1262 : 			this->_Mylast = this->_Myfirst;
; 1263 : 			this->_Myend = this->_Myfirst + _Capacity;

  00036	c1 e7 04	 shl	 edi, 4
  00039	03 f8		 add	 edi, eax
  0003b	59		 pop	 ecx
  0003c	89 06		 mov	 DWORD PTR [esi], eax
  0003e	89 46 04	 mov	 DWORD PTR [esi+4], eax
  00041	59		 pop	 ecx
  00042	89 7e 08	 mov	 DWORD PTR [esi+8], edi

; 1264 : 			}
; 1265 : 		return (true);

  00045	b0 01		 mov	 al, 1
$LN5@Buy:
  00047	5f		 pop	 edi
  00048	5e		 pop	 esi

; 1266 : 		}

  00049	5d		 pop	 ebp
  0004a	c2 04 00	 ret	 4
$LN18@Buy:
?_Buy@?$vector@VioHashString@@V?$allocator@VioHashString@@@std@@@std@@IAE_NI@Z ENDP ; std::vector<ioHashString,std::allocator<ioHashString> >::_Buy
_TEXT	ENDS
PUBLIC	?begin@?$vector@KV?$allocator@K@std@@@std@@QAE?AV?$_Vector_iterator@V?$_Vector_val@KV?$allocator@K@std@@@std@@@2@XZ ; std::vector<unsigned long,std::allocator<unsigned long> >::begin
; Function compile flags: /Ogsp
;	COMDAT ?begin@?$vector@KV?$allocator@K@std@@@std@@QAE?AV?$_Vector_iterator@V?$_Vector_val@KV?$allocator@K@std@@@std@@@2@XZ
_TEXT	SEGMENT
___$ReturnUdt$ = 8					; size = 4
?begin@?$vector@KV?$allocator@K@std@@@std@@QAE?AV?$_Vector_iterator@V?$_Vector_val@KV?$allocator@K@std@@@std@@@2@XZ PROC ; std::vector<unsigned long,std::allocator<unsigned long> >::begin, COMDAT
; _this$ = ecx

; 781  : 		{	// return iterator for beginning of mutable sequence

  00000	55		 push	 ebp
  00001	8b ec		 mov	 ebp, esp

; 782  : 		return (iterator(this->_Myfirst, this));

  00003	8b 09		 mov	 ecx, DWORD PTR [ecx]
  00005	8b 45 08	 mov	 eax, DWORD PTR ___$ReturnUdt$[ebp]
  00008	89 08		 mov	 DWORD PTR [eax], ecx

; 783  : 		}

  0000a	5d		 pop	 ebp
  0000b	c2 04 00	 ret	 4
?begin@?$vector@KV?$allocator@K@std@@@std@@QAE?AV?$_Vector_iterator@V?$_Vector_val@KV?$allocator@K@std@@@std@@@2@XZ ENDP ; std::vector<unsigned long,std::allocator<unsigned long> >::begin
_TEXT	ENDS
PUBLIC	?end@?$vector@KV?$allocator@K@std@@@std@@QAE?AV?$_Vector_iterator@V?$_Vector_val@KV?$allocator@K@std@@@std@@@2@XZ ; std::vector<unsigned long,std::allocator<unsigned long> >::end
; Function compile flags: /Ogsp
;	COMDAT ?end@?$vector@KV?$allocator@K@std@@@std@@QAE?AV?$_Vector_iterator@V?$_Vector_val@KV?$allocator@K@std@@@std@@@2@XZ
_TEXT	SEGMENT
___$ReturnUdt$ = 8					; size = 4
?end@?$vector@KV?$allocator@K@std@@@std@@QAE?AV?$_Vector_iterator@V?$_Vector_val@KV?$allocator@K@std@@@std@@@2@XZ PROC ; std::vector<unsigned long,std::allocator<unsigned long> >::end, COMDAT
; _this$ = ecx

; 791  : 		{	// return iterator for end of mutable sequence

  00000	55		 push	 ebp
  00001	8b ec		 mov	 ebp, esp

; 792  : 		return (iterator(this->_Mylast, this));

  00003	8b 49 04	 mov	 ecx, DWORD PTR [ecx+4]
  00006	8b 45 08	 mov	 eax, DWORD PTR ___$ReturnUdt$[ebp]
  00009	89 08		 mov	 DWORD PTR [eax], ecx

; 793  : 		}

  0000b	5d		 pop	 ebp
  0000c	c2 04 00	 ret	 4
?end@?$vector@KV?$allocator@K@std@@@std@@QAE?AV?$_Vector_iterator@V?$_Vector_val@KV?$allocator@K@std@@@std@@@2@XZ ENDP ; std::vector<unsigned long,std::allocator<unsigned long> >::end
_TEXT	ENDS
PUBLIC	?_Destroy@?$vector@KV?$allocator@K@std@@@std@@IAEXPAK0@Z ; std::vector<unsigned long,std::allocator<unsigned long> >::_Destroy
; Function compile flags: /Ogsp
;	COMDAT ?_Destroy@?$vector@KV?$allocator@K@std@@@std@@IAEXPAK0@Z
_TEXT	SEGMENT
__First$ = 8						; size = 4
__Last$ = 12						; size = 4
?_Destroy@?$vector@KV?$allocator@K@std@@@std@@IAEXPAK0@Z PROC ; std::vector<unsigned long,std::allocator<unsigned long> >::_Destroy, COMDAT
; _this$ = ecx

; 1270 : 		_Destroy_range(_First, _Last, this->_Alval);
; 1271 : 		}

  00000	c2 08 00	 ret	 8
?_Destroy@?$vector@KV?$allocator@K@std@@@std@@IAEXPAK0@Z ENDP ; std::vector<unsigned long,std::allocator<unsigned long> >::_Destroy
_TEXT	ENDS
PUBLIC	??9?$_Vector_const_iterator@V?$_Vector_val@VioHashString@@V?$allocator@VioHashString@@@std@@@std@@@std@@QBE_NABV01@@Z ; std::_Vector_const_iterator<std::_Vector_val<ioHashString,std::allocator<ioHashString> > >::operator!=
; Function compile flags: /Ogsp
;	COMDAT ??9?$_Vector_const_iterator@V?$_Vector_val@VioHashString@@V?$allocator@VioHashString@@@std@@@std@@@std@@QBE_NABV01@@Z
_TEXT	SEGMENT
__Right$ = 8						; size = 4
??9?$_Vector_const_iterator@V?$_Vector_val@VioHashString@@V?$allocator@VioHashString@@@std@@@std@@@std@@QBE_NABV01@@Z PROC ; std::_Vector_const_iterator<std::_Vector_val<ioHashString,std::allocator<ioHashString> > >::operator!=, COMDAT
; _this$ = ecx

; 207  : 		{	// test for iterator inequality

  00000	55		 push	 ebp
  00001	8b ec		 mov	 ebp, esp

; 208  : 		return (!(*this == _Right));

  00003	8b 01		 mov	 eax, DWORD PTR [ecx]
  00005	8b 55 08	 mov	 edx, DWORD PTR __Right$[ebp]
  00008	33 c9		 xor	 ecx, ecx
  0000a	3b 02		 cmp	 eax, DWORD PTR [edx]
  0000c	0f 95 c0	 setne	 al

; 209  : 		}

  0000f	5d		 pop	 ebp
  00010	c2 04 00	 ret	 4
??9?$_Vector_const_iterator@V?$_Vector_val@VioHashString@@V?$allocator@VioHashString@@@std@@@std@@@std@@QBE_NABV01@@Z ENDP ; std::_Vector_const_iterator<std::_Vector_val<ioHashString,std::allocator<ioHashString> > >::operator!=
_TEXT	ENDS
PUBLIC	??9?$_Vector_const_iterator@V?$_Vector_val@KV?$allocator@K@std@@@std@@@std@@QBE_NABV01@@Z ; std::_Vector_const_iterator<std::_Vector_val<unsigned long,std::allocator<unsigned long> > >::operator!=
; Function compile flags: /Ogsp
;	COMDAT ??9?$_Vector_const_iterator@V?$_Vector_val@KV?$allocator@K@std@@@std@@@std@@QBE_NABV01@@Z
_TEXT	SEGMENT
__Right$ = 8						; size = 4
??9?$_Vector_const_iterator@V?$_Vector_val@KV?$allocator@K@std@@@std@@@std@@QBE_NABV01@@Z PROC ; std::_Vector_const_iterator<std::_Vector_val<unsigned long,std::allocator<unsigned long> > >::operator!=, COMDAT
; _this$ = ecx

; 207  : 		{	// test for iterator inequality

  00000	55		 push	 ebp
  00001	8b ec		 mov	 ebp, esp

; 208  : 		return (!(*this == _Right));

  00003	8b 01		 mov	 eax, DWORD PTR [ecx]
  00005	8b 55 08	 mov	 edx, DWORD PTR __Right$[ebp]
  00008	33 c9		 xor	 ecx, ecx
  0000a	3b 02		 cmp	 eax, DWORD PTR [edx]
  0000c	0f 95 c0	 setne	 al

; 209  : 		}

  0000f	5d		 pop	 ebp
  00010	c2 04 00	 ret	 4
??9?$_Vector_const_iterator@V?$_Vector_val@KV?$allocator@K@std@@@std@@@std@@QBE_NABV01@@Z ENDP ; std::_Vector_const_iterator<std::_Vector_val<unsigned long,std::allocator<unsigned long> > >::operator!=
_TEXT	ENDS
PUBLIC	??$_Move@PAVioHashString@@PAV1@@std@@YAPAVioHashString@@PAV1@00@Z ; std::_Move<ioHashString *,ioHashString *>
; Function compile flags: /Ogsp
; File c:\program files (x86)\microsoft visual studio 10.0\vc\include\xutility
;	COMDAT ??$_Move@PAVioHashString@@PAV1@@std@@YAPAVioHashString@@PAV1@00@Z
_TEXT	SEGMENT
__Cat$556814 = -4					; size = 1
__First$ = 8						; size = 4
__Last$ = 12						; size = 4
__Dest$ = 16						; size = 4
??$_Move@PAVioHashString@@PAV1@@std@@YAPAVioHashString@@PAV1@00@Z PROC ; std::_Move<ioHashString *,ioHashString *>, COMDAT

; 2533 : 	{	// move [_First, _Last) to [_Dest, ...), unchecked

  00000	55		 push	 ebp
  00001	8b ec		 mov	 ebp, esp
  00003	51		 push	 ecx

; 2534 : 	return (_Move(_First, _Last,
; 2535 : 		_Dest, _Ptr_cat(_First, _Dest)));

  00004	ff 75 fc	 push	 DWORD PTR __Cat$556814[ebp]
  00007	ff 75 10	 push	 DWORD PTR __Dest$[ebp]
  0000a	ff 75 0c	 push	 DWORD PTR __Last$[ebp]
  0000d	ff 75 08	 push	 DWORD PTR __First$[ebp]
  00010	e8 00 00 00 00	 call	 ??$_Move@PAVioHashString@@PAV1@@std@@YAPAVioHashString@@PAV1@00U_Nonscalar_ptr_iterator_tag@0@@Z ; std::_Move<ioHashString *,ioHashString *>
  00015	83 c4 10	 add	 esp, 16			; 00000010H

; 2536 : 	}

  00018	c9		 leave
  00019	c3		 ret	 0
??$_Move@PAVioHashString@@PAV1@@std@@YAPAVioHashString@@PAV1@00@Z ENDP ; std::_Move<ioHashString *,ioHashString *>
_TEXT	ENDS
PUBLIC	??$_Umove@PAK@?$vector@KV?$allocator@K@std@@@std@@IAEPAKPAK00@Z ; std::vector<unsigned long,std::allocator<unsigned long> >::_Umove<unsigned long *>
; Function compile flags: /Ogsp
; File c:\program files (x86)\microsoft visual studio 10.0\vc\include\vector
;	COMDAT ??$_Umove@PAK@?$vector@KV?$allocator@K@std@@@std@@IAEPAKPAK00@Z
_TEXT	SEGMENT
__First$ = 8						; size = 4
__Last$ = 12						; size = 4
__Ptr$ = 16						; size = 4
??$_Umove@PAK@?$vector@KV?$allocator@K@std@@@std@@IAEPAKPAK00@Z PROC ; std::vector<unsigned long,std::allocator<unsigned long> >::_Umove<unsigned long *>, COMDAT
; _this$ = ecx

; 1322 : 		pointer _Umove(_Iter _First, _Iter _Last, pointer _Ptr)

  00000	55		 push	 ebp
  00001	8b ec		 mov	 ebp, esp

; 1323 : 		{	// move initializing [_First, _Last), using allocator
; 1324 : 		return (_Uninitialized_move(_First, _Last,
; 1325 : 			_Ptr, this->_Alval));

  00003	83 c1 0c	 add	 ecx, 12			; 0000000cH
  00006	51		 push	 ecx
  00007	ff 75 10	 push	 DWORD PTR __Ptr$[ebp]
  0000a	ff 75 0c	 push	 DWORD PTR __Last$[ebp]
  0000d	ff 75 08	 push	 DWORD PTR __First$[ebp]
  00010	e8 00 00 00 00	 call	 ??$_Uninitialized_move@PAKPAKV?$allocator@K@std@@@std@@YAPAKPAK00AAV?$allocator@K@0@@Z ; std::_Uninitialized_move<unsigned long *,unsigned long *,std::allocator<unsigned long> >
  00015	83 c4 10	 add	 esp, 16			; 00000010H

; 1326 : 		}

  00018	5d		 pop	 ebp
  00019	c2 0c 00	 ret	 12			; 0000000cH
??$_Umove@PAK@?$vector@KV?$allocator@K@std@@@std@@IAEPAKPAK00@Z ENDP ; std::vector<unsigned long,std::allocator<unsigned long> >::_Umove<unsigned long *>
_TEXT	ENDS
PUBLIC	?_Buy@?$vector@UWeaponInfo@@V?$allocator@UWeaponInfo@@@std@@@std@@IAE_NI@Z ; std::vector<WeaponInfo,std::allocator<WeaponInfo> >::_Buy
; Function compile flags: /Ogsp
;	COMDAT ?_Buy@?$vector@UWeaponInfo@@V?$allocator@UWeaponInfo@@@std@@@std@@IAE_NI@Z
_TEXT	SEGMENT
__Capacity$ = 8						; size = 4
?_Buy@?$vector@UWeaponInfo@@V?$allocator@UWeaponInfo@@@std@@@std@@IAE_NI@Z PROC ; std::vector<WeaponInfo,std::allocator<WeaponInfo> >::_Buy, COMDAT
; _this$ = ecx

; 1250 : 		{	// allocate array with _Capacity elements

  00000	55		 push	 ebp
  00001	8b ec		 mov	 ebp, esp
  00003	56		 push	 esi

; 1251 : 		this->_Myfirst = 0;

  00004	33 c0		 xor	 eax, eax
  00006	57		 push	 edi

; 1252 : 		this->_Mylast = 0;
; 1253 : 		this->_Myend = 0;
; 1254 : 
; 1255 : 		if (_Capacity == 0)

  00007	8b 7d 08	 mov	 edi, DWORD PTR __Capacity$[ebp]
  0000a	8b f1		 mov	 esi, ecx
  0000c	89 06		 mov	 DWORD PTR [esi], eax
  0000e	89 46 04	 mov	 DWORD PTR [esi+4], eax
  00011	89 46 08	 mov	 DWORD PTR [esi+8], eax
  00014	3b f8		 cmp	 edi, eax
  00016	75 04		 jne	 SHORT $LN4@Buy@2

; 1256 : 			return (false);

  00018	32 c0		 xor	 al, al
  0001a	eb 2b		 jmp	 SHORT $LN5@Buy@2
$LN4@Buy@2:

; 1257 : 		else if (max_size() < _Capacity)

  0001c	81 ff 66 66 66
	06		 cmp	 edi, 107374182		; 06666666H
  00022	76 0b		 jbe	 SHORT $LN2@Buy@2

; 1258 : 			_Xlen();	// result too long

  00024	68 00 00 00 00	 push	 OFFSET ??_C@_0BD@OLBABOEK@vector?$DMT?$DO?5too?5long?$AA@
  00029	ff 15 00 00 00
	00		 call	 DWORD PTR __imp_?_Xlength_error@std@@YAXPBD@Z
$LN19@Buy@2:
$LN2@Buy@2:

; 1259 : 		else
; 1260 : 			{	// nonempty array, allocate storage
; 1261 : 			this->_Myfirst = this->_Alval.allocate(_Capacity);

  0002f	50		 push	 eax
  00030	57		 push	 edi
  00031	e8 00 00 00 00	 call	 ??$_Allocate@UWeaponInfo@@@std@@YAPAUWeaponInfo@@IPAU1@@Z ; std::_Allocate<WeaponInfo>

; 1262 : 			this->_Mylast = this->_Myfirst;
; 1263 : 			this->_Myend = this->_Myfirst + _Capacity;

  00036	6b ff 28	 imul	 edi, 40			; 00000028H
  00039	03 f8		 add	 edi, eax
  0003b	59		 pop	 ecx
  0003c	89 06		 mov	 DWORD PTR [esi], eax
  0003e	89 46 04	 mov	 DWORD PTR [esi+4], eax
  00041	59		 pop	 ecx
  00042	89 7e 08	 mov	 DWORD PTR [esi+8], edi

; 1264 : 			}
; 1265 : 		return (true);

  00045	b0 01		 mov	 al, 1
$LN5@Buy@2:
  00047	5f		 pop	 edi
  00048	5e		 pop	 esi

; 1266 : 		}

  00049	5d		 pop	 ebp
  0004a	c2 04 00	 ret	 4
$LN18@Buy@2:
?_Buy@?$vector@UWeaponInfo@@V?$allocator@UWeaponInfo@@@std@@@std@@IAE_NI@Z ENDP ; std::vector<WeaponInfo,std::allocator<WeaponInfo> >::_Buy
_TEXT	ENDS
PUBLIC	?_Buy@?$vector@UForceInfo@@V?$allocator@UForceInfo@@@std@@@std@@IAE_NI@Z ; std::vector<ForceInfo,std::allocator<ForceInfo> >::_Buy
; Function compile flags: /Ogsp
;	COMDAT ?_Buy@?$vector@UForceInfo@@V?$allocator@UForceInfo@@@std@@@std@@IAE_NI@Z
_TEXT	SEGMENT
__Capacity$ = 8						; size = 4
?_Buy@?$vector@UForceInfo@@V?$allocator@UForceInfo@@@std@@@std@@IAE_NI@Z PROC ; std::vector<ForceInfo,std::allocator<ForceInfo> >::_Buy, COMDAT
; _this$ = ecx

; 1250 : 		{	// allocate array with _Capacity elements

  00000	55		 push	 ebp
  00001	8b ec		 mov	 ebp, esp
  00003	56		 push	 esi

; 1251 : 		this->_Myfirst = 0;

  00004	33 c0		 xor	 eax, eax
  00006	57		 push	 edi

; 1252 : 		this->_Mylast = 0;
; 1253 : 		this->_Myend = 0;
; 1254 : 
; 1255 : 		if (_Capacity == 0)

  00007	8b 7d 08	 mov	 edi, DWORD PTR __Capacity$[ebp]
  0000a	8b f1		 mov	 esi, ecx
  0000c	89 06		 mov	 DWORD PTR [esi], eax
  0000e	89 46 04	 mov	 DWORD PTR [esi+4], eax
  00011	89 46 08	 mov	 DWORD PTR [esi+8], eax
  00014	3b f8		 cmp	 edi, eax
  00016	75 04		 jne	 SHORT $LN4@Buy@3

; 1256 : 			return (false);

  00018	32 c0		 xor	 al, al
  0001a	eb 2b		 jmp	 SHORT $LN5@Buy@3
$LN4@Buy@3:

; 1257 : 		else if (max_size() < _Capacity)

  0001c	81 ff 55 55 55
	15		 cmp	 edi, 357913941		; 15555555H
  00022	76 0b		 jbe	 SHORT $LN2@Buy@3

; 1258 : 			_Xlen();	// result too long

  00024	68 00 00 00 00	 push	 OFFSET ??_C@_0BD@OLBABOEK@vector?$DMT?$DO?5too?5long?$AA@
  00029	ff 15 00 00 00
	00		 call	 DWORD PTR __imp_?_Xlength_error@std@@YAXPBD@Z
$LN19@Buy@3:
$LN2@Buy@3:

; 1259 : 		else
; 1260 : 			{	// nonempty array, allocate storage
; 1261 : 			this->_Myfirst = this->_Alval.allocate(_Capacity);

  0002f	50		 push	 eax
  00030	57		 push	 edi
  00031	e8 00 00 00 00	 call	 ??$_Allocate@UForceInfo@@@std@@YAPAUForceInfo@@IPAU1@@Z ; std::_Allocate<ForceInfo>

; 1262 : 			this->_Mylast = this->_Myfirst;
; 1263 : 			this->_Myend = this->_Myfirst + _Capacity;

  00036	6b ff 0c	 imul	 edi, 12			; 0000000cH
  00039	03 f8		 add	 edi, eax
  0003b	59		 pop	 ecx
  0003c	89 06		 mov	 DWORD PTR [esi], eax
  0003e	89 46 04	 mov	 DWORD PTR [esi+4], eax
  00041	59		 pop	 ecx
  00042	89 7e 08	 mov	 DWORD PTR [esi+8], edi

; 1264 : 			}
; 1265 : 		return (true);

  00045	b0 01		 mov	 al, 1
$LN5@Buy@3:
  00047	5f		 pop	 edi
  00048	5e		 pop	 esi

; 1266 : 		}

  00049	5d		 pop	 ebp
  0004a	c2 04 00	 ret	 4
$LN18@Buy@3:
?_Buy@?$vector@UForceInfo@@V?$allocator@UForceInfo@@@std@@@std@@IAE_NI@Z ENDP ; std::vector<ForceInfo,std::allocator<ForceInfo> >::_Buy
_TEXT	ENDS
PUBLIC	?begin@?$vector@UWeaponInfo@@V?$allocator@UWeaponInfo@@@std@@@std@@QAE?AV?$_Vector_iterator@V?$_Vector_val@UWeaponInfo@@V?$allocator@UWeaponInfo@@@std@@@std@@@2@XZ ; std::vector<WeaponInfo,std::allocator<WeaponInfo> >::begin
; Function compile flags: /Ogsp
;	COMDAT ?begin@?$vector@UWeaponInfo@@V?$allocator@UWeaponInfo@@@std@@@std@@QAE?AV?$_Vector_iterator@V?$_Vector_val@UWeaponInfo@@V?$allocator@UWeaponInfo@@@std@@@std@@@2@XZ
_TEXT	SEGMENT
___$ReturnUdt$ = 8					; size = 4
?begin@?$vector@UWeaponInfo@@V?$allocator@UWeaponInfo@@@std@@@std@@QAE?AV?$_Vector_iterator@V?$_Vector_val@UWeaponInfo@@V?$allocator@UWeaponInfo@@@std@@@std@@@2@XZ PROC ; std::vector<WeaponInfo,std::allocator<WeaponInfo> >::begin, COMDAT
; _this$ = ecx

; 781  : 		{	// return iterator for beginning of mutable sequence

  00000	55		 push	 ebp
  00001	8b ec		 mov	 ebp, esp

; 782  : 		return (iterator(this->_Myfirst, this));

  00003	8b 09		 mov	 ecx, DWORD PTR [ecx]
  00005	8b 45 08	 mov	 eax, DWORD PTR ___$ReturnUdt$[ebp]
  00008	89 08		 mov	 DWORD PTR [eax], ecx

; 783  : 		}

  0000a	5d		 pop	 ebp
  0000b	c2 04 00	 ret	 4
?begin@?$vector@UWeaponInfo@@V?$allocator@UWeaponInfo@@@std@@@std@@QAE?AV?$_Vector_iterator@V?$_Vector_val@UWeaponInfo@@V?$allocator@UWeaponInfo@@@std@@@std@@@2@XZ ENDP ; std::vector<WeaponInfo,std::allocator<WeaponInfo> >::begin
_TEXT	ENDS
PUBLIC	?end@?$vector@UWeaponInfo@@V?$allocator@UWeaponInfo@@@std@@@std@@QAE?AV?$_Vector_iterator@V?$_Vector_val@UWeaponInfo@@V?$allocator@UWeaponInfo@@@std@@@std@@@2@XZ ; std::vector<WeaponInfo,std::allocator<WeaponInfo> >::end
; Function compile flags: /Ogsp
;	COMDAT ?end@?$vector@UWeaponInfo@@V?$allocator@UWeaponInfo@@@std@@@std@@QAE?AV?$_Vector_iterator@V?$_Vector_val@UWeaponInfo@@V?$allocator@UWeaponInfo@@@std@@@std@@@2@XZ
_TEXT	SEGMENT
___$ReturnUdt$ = 8					; size = 4
?end@?$vector@UWeaponInfo@@V?$allocator@UWeaponInfo@@@std@@@std@@QAE?AV?$_Vector_iterator@V?$_Vector_val@UWeaponInfo@@V?$allocator@UWeaponInfo@@@std@@@std@@@2@XZ PROC ; std::vector<WeaponInfo,std::allocator<WeaponInfo> >::end, COMDAT
; _this$ = ecx

; 791  : 		{	// return iterator for end of mutable sequence

  00000	55		 push	 ebp
  00001	8b ec		 mov	 ebp, esp

; 792  : 		return (iterator(this->_Mylast, this));

  00003	8b 49 04	 mov	 ecx, DWORD PTR [ecx+4]
  00006	8b 45 08	 mov	 eax, DWORD PTR ___$ReturnUdt$[ebp]
  00009	89 08		 mov	 DWORD PTR [eax], ecx

; 793  : 		}

  0000b	5d		 pop	 ebp
  0000c	c2 04 00	 ret	 4
?end@?$vector@UWeaponInfo@@V?$allocator@UWeaponInfo@@@std@@@std@@QAE?AV?$_Vector_iterator@V?$_Vector_val@UWeaponInfo@@V?$allocator@UWeaponInfo@@@std@@@std@@@2@XZ ENDP ; std::vector<WeaponInfo,std::allocator<WeaponInfo> >::end
_TEXT	ENDS
PUBLIC	??9?$_Vector_const_iterator@V?$_Vector_val@UWeaponInfo@@V?$allocator@UWeaponInfo@@@std@@@std@@@std@@QBE_NABV01@@Z ; std::_Vector_const_iterator<std::_Vector_val<WeaponInfo,std::allocator<WeaponInfo> > >::operator!=
; Function compile flags: /Ogsp
;	COMDAT ??9?$_Vector_const_iterator@V?$_Vector_val@UWeaponInfo@@V?$allocator@UWeaponInfo@@@std@@@std@@@std@@QBE_NABV01@@Z
_TEXT	SEGMENT
__Right$ = 8						; size = 4
??9?$_Vector_const_iterator@V?$_Vector_val@UWeaponInfo@@V?$allocator@UWeaponInfo@@@std@@@std@@@std@@QBE_NABV01@@Z PROC ; std::_Vector_const_iterator<std::_Vector_val<WeaponInfo,std::allocator<WeaponInfo> > >::operator!=, COMDAT
; _this$ = ecx

; 207  : 		{	// test for iterator inequality

  00000	55		 push	 ebp
  00001	8b ec		 mov	 ebp, esp

; 208  : 		return (!(*this == _Right));

  00003	8b 01		 mov	 eax, DWORD PTR [ecx]
  00005	8b 55 08	 mov	 edx, DWORD PTR __Right$[ebp]
  00008	33 c9		 xor	 ecx, ecx
  0000a	3b 02		 cmp	 eax, DWORD PTR [edx]
  0000c	0f 95 c0	 setne	 al

; 209  : 		}

  0000f	5d		 pop	 ebp
  00010	c2 04 00	 ret	 4
??9?$_Vector_const_iterator@V?$_Vector_val@UWeaponInfo@@V?$allocator@UWeaponInfo@@@std@@@std@@@std@@QBE_NABV01@@Z ENDP ; std::_Vector_const_iterator<std::_Vector_val<WeaponInfo,std::allocator<WeaponInfo> > >::operator!=
_TEXT	ENDS
PUBLIC	??9?$_Vector_const_iterator@V?$_Vector_val@UForceInfo@@V?$allocator@UForceInfo@@@std@@@std@@@std@@QBE_NABV01@@Z ; std::_Vector_const_iterator<std::_Vector_val<ForceInfo,std::allocator<ForceInfo> > >::operator!=
; Function compile flags: /Ogsp
;	COMDAT ??9?$_Vector_const_iterator@V?$_Vector_val@UForceInfo@@V?$allocator@UForceInfo@@@std@@@std@@@std@@QBE_NABV01@@Z
_TEXT	SEGMENT
__Right$ = 8						; size = 4
??9?$_Vector_const_iterator@V?$_Vector_val@UForceInfo@@V?$allocator@UForceInfo@@@std@@@std@@@std@@QBE_NABV01@@Z PROC ; std::_Vector_const_iterator<std::_Vector_val<ForceInfo,std::allocator<ForceInfo> > >::operator!=, COMDAT
; _this$ = ecx

; 207  : 		{	// test for iterator inequality

  00000	55		 push	 ebp
  00001	8b ec		 mov	 ebp, esp

; 208  : 		return (!(*this == _Right));

  00003	8b 01		 mov	 eax, DWORD PTR [ecx]
  00005	8b 55 08	 mov	 edx, DWORD PTR __Right$[ebp]
  00008	33 c9		 xor	 ecx, ecx
  0000a	3b 02		 cmp	 eax, DWORD PTR [edx]
  0000c	0f 95 c0	 setne	 al

; 209  : 		}

  0000f	5d		 pop	 ebp
  00010	c2 04 00	 ret	 4
??9?$_Vector_const_iterator@V?$_Vector_val@UForceInfo@@V?$allocator@UForceInfo@@@std@@@std@@@std@@QBE_NABV01@@Z ENDP ; std::_Vector_const_iterator<std::_Vector_val<ForceInfo,std::allocator<ForceInfo> > >::operator!=
_TEXT	ENDS
PUBLIC	??$_Dest_val@V?$allocator@UForceInfo@@@std@@UForceInfo@@@std@@YAXAAV?$allocator@UForceInfo@@@0@PAUForceInfo@@@Z ; std::_Dest_val<std::allocator<ForceInfo>,ForceInfo>
; Function compile flags: /Ogsp
; File c:\program files (x86)\microsoft visual studio 10.0\vc\include\xmemory
;	COMDAT ??$_Dest_val@V?$allocator@UForceInfo@@@std@@UForceInfo@@@std@@YAXAAV?$allocator@UForceInfo@@@0@PAUForceInfo@@@Z
_TEXT	SEGMENT
__Alval$ = 8						; size = 4
__Pdest$ = 12						; size = 4
??$_Dest_val@V?$allocator@UForceInfo@@@std@@UForceInfo@@@std@@YAXAAV?$allocator@UForceInfo@@@0@PAUForceInfo@@@Z PROC ; std::_Dest_val<std::allocator<ForceInfo>,ForceInfo>, COMDAT

; 287  : 	_Alval.destroy(_Pdest);
; 288  : 	}

  00000	c3		 ret	 0
??$_Dest_val@V?$allocator@UForceInfo@@@std@@UForceInfo@@@std@@YAXAAV?$allocator@UForceInfo@@@0@PAUForceInfo@@@Z ENDP ; std::_Dest_val<std::allocator<ForceInfo>,ForceInfo>
_TEXT	ENDS
PUBLIC	?destroy@?$allocator@VioHashString@@@std@@QAEXPAVioHashString@@@Z ; std::allocator<ioHashString>::destroy
; Function compile flags: /Ogsp
;	COMDAT ?destroy@?$allocator@VioHashString@@@std@@QAEXPAVioHashString@@@Z
_TEXT	SEGMENT
__Ptr$ = 8						; size = 4
?destroy@?$allocator@VioHashString@@@std@@QAEXPAVioHashString@@@Z PROC ; std::allocator<ioHashString>::destroy, COMDAT
; _this$ = ecx

; 212  : 		{	// destroy object at _Ptr

  00000	55		 push	 ebp
  00001	8b ec		 mov	 ebp, esp

; 213  : 		_Destroy(_Ptr);

  00003	8b 4d 08	 mov	 ecx, DWORD PTR __Ptr$[ebp]
  00006	ff 15 00 00 00
	00		 call	 DWORD PTR __imp_??1ioHashString@@QAE@XZ

; 214  : 		}

  0000c	5d		 pop	 ebp
  0000d	c2 04 00	 ret	 4
?destroy@?$allocator@VioHashString@@@std@@QAEXPAVioHashString@@@Z ENDP ; std::allocator<ioHashString>::destroy
_TEXT	ENDS
PUBLIC	?destroy@?$allocator@UWeaponInfo@@@std@@QAEXPAUWeaponInfo@@@Z ; std::allocator<WeaponInfo>::destroy
; Function compile flags: /Ogsp
;	COMDAT ?destroy@?$allocator@UWeaponInfo@@@std@@QAEXPAUWeaponInfo@@@Z
_TEXT	SEGMENT
__Ptr$ = 8						; size = 4
?destroy@?$allocator@UWeaponInfo@@@std@@QAEXPAUWeaponInfo@@@Z PROC ; std::allocator<WeaponInfo>::destroy, COMDAT
; _this$ = ecx

; 212  : 		{	// destroy object at _Ptr

  00000	55		 push	 ebp
  00001	8b ec		 mov	 ebp, esp

; 213  : 		_Destroy(_Ptr);

  00003	8b 4d 08	 mov	 ecx, DWORD PTR __Ptr$[ebp]
  00006	83 c1 08	 add	 ecx, 8
  00009	ff 15 00 00 00
	00		 call	 DWORD PTR __imp_??1ioHashString@@QAE@XZ

; 214  : 		}

  0000f	5d		 pop	 ebp
  00010	c2 04 00	 ret	 4
?destroy@?$allocator@UWeaponInfo@@@std@@QAEXPAUWeaponInfo@@@Z ENDP ; std::allocator<WeaponInfo>::destroy
_TEXT	ENDS
PUBLIC	??$_Cons_val@V?$allocator@VioHashString@@@std@@VioHashString@@ABV3@@std@@YAXAAV?$allocator@VioHashString@@@0@PAVioHashString@@ABV2@@Z ; std::_Cons_val<std::allocator<ioHashString>,ioHashString,ioHashString const &>
; Function compile flags: /Ogsp
;	COMDAT ??$_Cons_val@V?$allocator@VioHashString@@@std@@VioHashString@@ABV3@@std@@YAXAAV?$allocator@VioHashString@@@0@PAVioHashString@@ABV2@@Z
_TEXT	SEGMENT
__Alval$ = 8						; size = 4
__Pdest$ = 12						; size = 4
__Src$ = 16						; size = 4
??$_Cons_val@V?$allocator@VioHashString@@@std@@VioHashString@@ABV3@@std@@YAXAAV?$allocator@VioHashString@@@0@PAVioHashString@@ABV2@@Z PROC ; std::_Cons_val<std::allocator<ioHashString>,ioHashString,ioHashString const &>, COMDAT

; 279  : 	{	// construct using allocator

  00000	55		 push	 ebp
  00001	8b ec		 mov	 ebp, esp

; 280  : 	_Alval.construct(_Pdest, _STD forward<_Ty2>(_Src));

  00003	ff 75 10	 push	 DWORD PTR __Src$[ebp]
  00006	ff 75 0c	 push	 DWORD PTR __Pdest$[ebp]
  00009	e8 00 00 00 00	 call	 ??$_Construct@VioHashString@@ABV1@@std@@YAXPAVioHashString@@ABV1@@Z ; std::_Construct<ioHashString,ioHashString const &>
  0000e	59		 pop	 ecx
  0000f	59		 pop	 ecx

; 281  : 	}

  00010	5d		 pop	 ebp
  00011	c3		 ret	 0
??$_Cons_val@V?$allocator@VioHashString@@@std@@VioHashString@@ABV3@@std@@YAXAAV?$allocator@VioHashString@@@0@PAVioHashString@@ABV2@@Z ENDP ; std::_Cons_val<std::allocator<ioHashString>,ioHashString,ioHashString const &>
_TEXT	ENDS
PUBLIC	__$ArrayPad$
PUBLIC	?SetEndState@ioSpaceMasterAttack@@IAEXPAVioBaseChar@@PAVioPlayStage@@_N2@Z ; ioSpaceMasterAttack::SetEndState
EXTRN	??6SP2Packet@@QAEAAV0@_N@Z:PROC			; SP2Packet::operator<<
EXTRN	?IsCharDropZonePos@ioBaseChar@@QAE_NXZ:PROC	; ioBaseChar::IsCharDropZonePos
EXTRN	?SetExtraMoveSpeed@ioBaseChar@@QAEXMM@Z:PROC	; ioBaseChar::SetExtraMoveSpeed
EXTRN	?SetCurMoveSpeed@ioBaseChar@@QAEXM@Z:PROC	; ioBaseChar::SetCurMoveSpeed
;	COMDAT xdata$x
; File d:\lost saga for developer\youtube\tutorial\source\src\lsclient\ioskill.h
xdata$x	SEGMENT
__unwindtable$?SetEndState@ioSpaceMasterAttack@@IAEXPAVioBaseChar@@PAVioPlayStage@@_N2@Z DD 0ffffffffH
	DD	FLAT:__unwindfunclet$?SetEndState@ioSpaceMasterAttack@@IAEXPAVioBaseChar@@PAVioPlayStage@@_N2@Z$0
__ehfuncinfo$?SetEndState@ioSpaceMasterAttack@@IAEXPAVioBaseChar@@PAVioPlayStage@@_N2@Z DD 019930522H
	DD	01H
	DD	FLAT:__unwindtable$?SetEndState@ioSpaceMasterAttack@@IAEXPAVioBaseChar@@PAVioPlayStage@@_N2@Z
	DD	2 DUP(00H)
	DD	2 DUP(00H)
	DD	00H
	DD	01H
; Function compile flags: /Ogsp
; File d:\lost saga for developer\youtube\tutorial\source\src\lsclient\iospacemasterattack.cpp
xdata$x	ENDS
;	COMDAT ?SetEndState@ioSpaceMasterAttack@@IAEXPAVioBaseChar@@PAVioPlayStage@@_N2@Z
_TEXT	SEGMENT
_value$556991 = -32812					; size = 4
_kPacket$548749 = -32808				; size = 32792
__$ArrayPad$ = -16					; size = 4
__$EHRec$ = -12						; size = 12
_pChar$ = 8						; size = 4
_pStage$ = 12						; size = 4
_bThrow$ = 16						; size = 1
_bSendNetWork$ = 20					; size = 1
?SetEndState@ioSpaceMasterAttack@@IAEXPAVioBaseChar@@PAVioPlayStage@@_N2@Z PROC ; ioSpaceMasterAttack::SetEndState, COMDAT
; _this$ = ecx

; 370  : {

  00000	55		 push	 ebp
  00001	8b ec		 mov	 ebp, esp
  00003	6a ff		 push	 -1
  00005	68 00 00 00 00	 push	 __ehhandler$?SetEndState@ioSpaceMasterAttack@@IAEXPAVioBaseChar@@PAVioPlayStage@@_N2@Z
  0000a	64 a1 00 00 00
	00		 mov	 eax, DWORD PTR fs:0
  00010	50		 push	 eax
  00011	b8 20 80 00 00	 mov	 eax, 32800		; 00008020H
  00016	e8 00 00 00 00	 call	 __chkstk
  0001b	a1 00 00 00 00	 mov	 eax, DWORD PTR ___security_cookie
  00020	33 c5		 xor	 eax, ebp
  00022	89 45 f0	 mov	 DWORD PTR __$ArrayPad$[ebp], eax
  00025	56		 push	 esi
  00026	57		 push	 edi
  00027	50		 push	 eax
  00028	8d 45 f4	 lea	 eax, DWORD PTR __$EHRec$[ebp]
  0002b	64 a3 00 00 00
	00		 mov	 DWORD PTR fs:0, eax
  00031	8b 75 08	 mov	 esi, DWORD PTR _pChar$[ebp]

; 371  : 	SetWeaponDir( pChar, pStage, m_fEndTargetThrowMoveRange );

  00034	51		 push	 ecx
  00035	8b f9		 mov	 edi, ecx
  00037	f3 0f 10 87 d8
	11 00 00	 movss	 xmm0, DWORD PTR [edi+4568]
  0003f	f3 0f 11 04 24	 movss	 DWORD PTR [esp], xmm0
  00044	ff 75 0c	 push	 DWORD PTR _pStage$[ebp]
  00047	56		 push	 esi
  00048	e8 00 00 00 00	 call	 ?SetWeaponDir@ioSpaceMasterAttack@@IAEXPAVioBaseChar@@PAVioPlayStage@@M@Z ; ioSpaceMasterAttack::SetWeaponDir

; 372  : 
; 373  : 	m_SkillState = SS_END;
; 374  : 
; 375  : 	pChar->SetCurMoveSpeed( 0.0f );

  0004d	0f 57 c0	 xorps	 xmm0, xmm0
  00050	51		 push	 ecx
  00051	8b ce		 mov	 ecx, esi
  00053	c7 87 e4 10 00
	00 04 00 00 00	 mov	 DWORD PTR [edi+4324], 4
  0005d	f3 0f 11 04 24	 movss	 DWORD PTR [esp], xmm0
  00062	e8 00 00 00 00	 call	 ?SetCurMoveSpeed@ioBaseChar@@QAEXM@Z ; ioBaseChar::SetCurMoveSpeed

; 376  : 	pChar->SetForcePowerAmt( 0.0f );

  00067	0f 57 c0	 xorps	 xmm0, xmm0
  0006a	8d 85 d4 7f ff
	ff		 lea	 eax, DWORD PTR _value$556991[ebp]
  00070	50		 push	 eax
  00071	8d 8e 88 0b 00
	00		 lea	 ecx, DWORD PTR [esi+2952]
  00077	f3 0f 11 85 d4
	7f ff ff	 movss	 DWORD PTR _value$556991[ebp], xmm0
  0007f	e8 00 00 00 00	 call	 ?EncryptValueToPool@?$CEncrypt@M@@AAEXPBD@Z ; CEncrypt<float>::EncryptValueToPool

; 377  : 	pChar->SetExtraMoveSpeed( 0.0f );

  00084	f3 0f 10 05 00
	00 00 00	 movss	 xmm0, DWORD PTR __real@3f800000
  0008c	51		 push	 ecx
  0008d	51		 push	 ecx
  0008e	f3 0f 11 44 24
	04		 movss	 DWORD PTR [esp+4], xmm0
  00094	0f 57 c0	 xorps	 xmm0, xmm0
  00097	8b ce		 mov	 ecx, esi
  00099	f3 0f 11 04 24	 movss	 DWORD PTR [esp], xmm0
  0009e	e8 00 00 00 00	 call	 ?SetExtraMoveSpeed@ioBaseChar@@QAEXMM@Z ; ioBaseChar::SetExtraMoveSpeed

; 378  : 
; 379  : 	if( GetSkillUseType()  == SUT_JUMP || pChar->IsCharDropZonePos() )

  000a3	83 7f 74 01	 cmp	 DWORD PTR [edi+116], 1
  000a7	74 17		 je	 SHORT $LN3@SetEndStat
  000a9	8b ce		 mov	 ecx, esi
  000ab	e8 00 00 00 00	 call	 ?IsCharDropZonePos@ioBaseChar@@QAE_NXZ ; ioBaseChar::IsCharDropZonePos
  000b0	84 c0		 test	 al, al
  000b2	75 0c		 jne	 SHORT $LN3@SetEndStat

; 382  : 	}
; 383  : 	else
; 384  : 	{
; 385  : 		m_SkillEndJumpType = SEJT_NOT_JUMP;

  000b4	c7 87 e8 10 00
	00 01 00 00 00	 mov	 DWORD PTR [edi+4328], 1
  000be	eb 0a		 jmp	 SHORT $LN2@SetEndStat
$LN3@SetEndStat:

; 380  : 	{
; 381  : 		m_SkillEndJumpType = SEJT_JUMP;

  000c0	c7 87 e8 10 00
	00 02 00 00 00	 mov	 DWORD PTR [edi+4328], 2
$LN2@SetEndStat:

; 386  : 	}
; 387  : 
; 388  : 	if( bSendNetWork )

  000ca	80 7d 14 00	 cmp	 BYTE PTR _bSendNetWork$[ebp], 0
  000ce	0f 84 95 00 00
	00		 je	 $LN1@SetEndStat

; 389  : 	{
; 390  : 		SP2Packet kPacket( CUPK_SKILL_EXTRA_INFO );

  000d4	68 39 41 00 00	 push	 16697			; 00004139H
  000d9	8d 8d d8 7f ff
	ff		 lea	 ecx, DWORD PTR _kPacket$548749[ebp]
  000df	e8 00 00 00 00	 call	 ??0SP2Packet@@QAE@K@Z	; SP2Packet::SP2Packet
  000e4	83 65 fc 00	 and	 DWORD PTR __$EHRec$[ebp+8], 0

; 391  : 		kPacket << pChar->GetCharName();

  000e8	8d 86 d4 02 00
	00		 lea	 eax, DWORD PTR [esi+724]
  000ee	50		 push	 eax
  000ef	8d 8d d8 7f ff
	ff		 lea	 ecx, DWORD PTR _kPacket$548749[ebp]
  000f5	e8 00 00 00 00	 call	 ??6SP2Packet@@QAEAAV0@ABVioHashString@@@Z ; SP2Packet::operator<<

; 392  : 		kPacket << GetName();

  000fa	83 c7 24	 add	 edi, 36			; 00000024H
  000fd	57		 push	 edi
  000fe	8d 8d d8 7f ff
	ff		 lea	 ecx, DWORD PTR _kPacket$548749[ebp]
  00104	e8 00 00 00 00	 call	 ??6SP2Packet@@QAEAAV0@ABVioHashString@@@Z ; SP2Packet::operator<<

; 393  : 		kPacket << pChar->GetWorldOrientation();

  00109	8b 06		 mov	 eax, DWORD PTR [esi]
  0010b	8b ce		 mov	 ecx, esi
  0010d	ff 50 74	 call	 DWORD PTR [eax+116]
  00110	50		 push	 eax
  00111	8d 8d d8 7f ff
	ff		 lea	 ecx, DWORD PTR _kPacket$548749[ebp]
  00117	e8 00 00 00 00	 call	 ??6SP2Packet@@QAEAAV0@ABUD3DXQUATERNION@@@Z ; SP2Packet::operator<<

; 394  : 		kPacket << pChar->GetWorldPosition();

  0011c	8b 06		 mov	 eax, DWORD PTR [esi]
  0011e	8b ce		 mov	 ecx, esi
  00120	ff 50 70	 call	 DWORD PTR [eax+112]
  00123	50		 push	 eax
  00124	8d 8d d8 7f ff
	ff		 lea	 ecx, DWORD PTR _kPacket$548749[ebp]
  0012a	e8 00 00 00 00	 call	 ??6SP2Packet@@QAEAAV0@ABUD3DXVECTOR3@@@Z ; SP2Packet::operator<<

; 395  : 		kPacket << (byte)SSS_END;

  0012f	6a 04		 push	 4
  00131	8d 8d d8 7f ff
	ff		 lea	 ecx, DWORD PTR _kPacket$548749[ebp]
  00137	e8 00 00 00 00	 call	 ??6SP2Packet@@QAEAAV0@E@Z ; SP2Packet::operator<<

; 396  : 		kPacket << bThrow;

  0013c	ff 75 10	 push	 DWORD PTR _bThrow$[ebp]
  0013f	8d 8d d8 7f ff
	ff		 lea	 ecx, DWORD PTR _kPacket$548749[ebp]
  00145	e8 00 00 00 00	 call	 ??6SP2Packet@@QAEAAV0@_N@Z ; SP2Packet::operator<<

; 397  : 		P2PNetwork::SendToAllPlayingUser( kPacket );

  0014a	8d 85 d8 7f ff
	ff		 lea	 eax, DWORD PTR _kPacket$548749[ebp]
  00150	6a 00		 push	 0
  00152	50		 push	 eax
  00153	e8 00 00 00 00	 call	 ?SendToAllPlayingUser@P2PNetwork@@YAXAAVSP2Packet@@PAVioBaseChar@@@Z ; P2PNetwork::SendToAllPlayingUser

; 398  : 	}

  00158	83 4d fc ff	 or	 DWORD PTR __$EHRec$[ebp+8], -1
  0015c	59		 pop	 ecx
  0015d	59		 pop	 ecx
  0015e	8d 8d d8 7f ff
	ff		 lea	 ecx, DWORD PTR _kPacket$548749[ebp]
  00164	e8 00 00 00 00	 call	 ??1SP2Packet@@UAE@XZ	; SP2Packet::~SP2Packet
$LN1@SetEndStat:

; 399  : }

  00169	8b 4d f4	 mov	 ecx, DWORD PTR __$EHRec$[ebp]
  0016c	64 89 0d 00 00
	00 00		 mov	 DWORD PTR fs:0, ecx
  00173	59		 pop	 ecx
  00174	5f		 pop	 edi
  00175	5e		 pop	 esi
  00176	8b 4d f0	 mov	 ecx, DWORD PTR __$ArrayPad$[ebp]
  00179	33 cd		 xor	 ecx, ebp
  0017b	e8 00 00 00 00	 call	 @__security_check_cookie@4
  00180	c9		 leave
  00181	c2 10 00	 ret	 16			; 00000010H
_TEXT	ENDS
;	COMDAT text$x
text$x	SEGMENT
__unwindfunclet$?SetEndState@ioSpaceMasterAttack@@IAEXPAVioBaseChar@@PAVioPlayStage@@_N2@Z$0:
  00000	8d 8d d8 7f ff
	ff		 lea	 ecx, DWORD PTR _kPacket$548749[ebp]
  00006	e9 00 00 00 00	 jmp	 ??1SP2Packet@@UAE@XZ	; SP2Packet::~SP2Packet
__ehhandler$?SetEndState@ioSpaceMasterAttack@@IAEXPAVioBaseChar@@PAVioPlayStage@@_N2@Z:
  0000b	8b 54 24 08	 mov	 edx, DWORD PTR [esp+8]
  0000f	8d 42 0c	 lea	 eax, DWORD PTR [edx+12]
  00012	8b 8a d4 7f ff
	ff		 mov	 ecx, DWORD PTR [edx-32812]
  00018	33 c8		 xor	 ecx, eax
  0001a	e8 00 00 00 00	 call	 @__security_check_cookie@4
  0001f	8b 4a fc	 mov	 ecx, DWORD PTR [edx-4]
  00022	33 c8		 xor	 ecx, eax
  00024	e8 00 00 00 00	 call	 @__security_check_cookie@4
  00029	b8 00 00 00 00	 mov	 eax, OFFSET __ehfuncinfo$?SetEndState@ioSpaceMasterAttack@@IAEXPAVioBaseChar@@PAVioPlayStage@@_N2@Z
  0002e	e9 00 00 00 00	 jmp	 ___CxxFrameHandler3
text$x	ENDS
?SetEndState@ioSpaceMasterAttack@@IAEXPAVioBaseChar@@PAVioPlayStage@@_N2@Z ENDP ; ioSpaceMasterAttack::SetEndState
PUBLIC	__real@41200000
PUBLIC	__real@3ff0000000000000
PUBLIC	__real@42c80000
PUBLIC	__$ArrayPad$
PUBLIC	?SetTargetThrowState@ioSpaceMasterAttack@@IAEXPAVioBaseChar@@PAVioPlayStage@@@Z ; ioSpaceMasterAttack::SetTargetThrowState
EXTRN	__imp_?SetLoopAni@ioEntityGroup@@QAE_NHMMMM@Z:PROC
EXTRN	__imp_?ClearAllActionAni@ioEntityGroup@@QAEXM_N@Z:PROC
EXTRN	__imp_?ClearAllLoopAni@ioEntityGroup@@QAEXM_N@Z:PROC
EXTRN	__imp_?GetAnimationIdx@ioEntityGroup@@QAEHABVioHashString@@@Z:PROC
;	COMDAT __real@41200000
; File d:\lost saga for developer\youtube\tutorial\source\src\lsclient\ioskill.h
CONST	SEGMENT
__real@41200000 DD 041200000r			; 10
CONST	ENDS
;	COMDAT __real@3ff0000000000000
CONST	SEGMENT
__real@3ff0000000000000 DQ 03ff0000000000000r	; 1
CONST	ENDS
;	COMDAT __real@42c80000
CONST	SEGMENT
__real@42c80000 DD 042c80000r			; 100
CONST	ENDS
;	COMDAT xdata$x
xdata$x	SEGMENT
__unwindtable$?SetTargetThrowState@ioSpaceMasterAttack@@IAEXPAVioBaseChar@@PAVioPlayStage@@@Z DD 0ffffffffH
	DD	FLAT:__unwindfunclet$?SetTargetThrowState@ioSpaceMasterAttack@@IAEXPAVioBaseChar@@PAVioPlayStage@@@Z$0
__ehfuncinfo$?SetTargetThrowState@ioSpaceMasterAttack@@IAEXPAVioBaseChar@@PAVioPlayStage@@@Z DD 019930522H
	DD	01H
	DD	FLAT:__unwindtable$?SetTargetThrowState@ioSpaceMasterAttack@@IAEXPAVioBaseChar@@PAVioPlayStage@@@Z
	DD	2 DUP(00H)
	DD	2 DUP(00H)
	DD	00H
	DD	01H
; Function compile flags: /Ogsp
; File d:\lost saga for developer\youtube\tutorial\source\src\lsclient\iospacemasterattack.cpp
xdata$x	ENDS
;	COMDAT ?SetTargetThrowState@ioSpaceMasterAttack@@IAEXPAVioBaseChar@@PAVioPlayStage@@@Z
_TEXT	SEGMENT
_iAniID$ = -32812					; size = 4
_kPacket$548763 = -32808				; size = 32792
__$ArrayPad$ = -16					; size = 4
__$EHRec$ = -12						; size = 12
_pChar$ = 8						; size = 4
_pStage$ = 12						; size = 4
?SetTargetThrowState@ioSpaceMasterAttack@@IAEXPAVioBaseChar@@PAVioPlayStage@@@Z PROC ; ioSpaceMasterAttack::SetTargetThrowState, COMDAT
; _this$ = ecx

; 402  : {

  00000	55		 push	 ebp
  00001	8b ec		 mov	 ebp, esp
  00003	6a ff		 push	 -1
  00005	68 00 00 00 00	 push	 __ehhandler$?SetTargetThrowState@ioSpaceMasterAttack@@IAEXPAVioBaseChar@@PAVioPlayStage@@@Z
  0000a	64 a1 00 00 00
	00		 mov	 eax, DWORD PTR fs:0
  00010	50		 push	 eax
  00011	b8 20 80 00 00	 mov	 eax, 32800		; 00008020H
  00016	e8 00 00 00 00	 call	 __chkstk
  0001b	a1 00 00 00 00	 mov	 eax, DWORD PTR ___security_cookie
  00020	33 c5		 xor	 eax, ebp
  00022	89 45 f0	 mov	 DWORD PTR __$ArrayPad$[ebp], eax
  00025	53		 push	 ebx
  00026	56		 push	 esi
  00027	57		 push	 edi
  00028	50		 push	 eax
  00029	8d 45 f4	 lea	 eax, DWORD PTR __$EHRec$[ebp]
  0002c	64 a3 00 00 00
	00		 mov	 DWORD PTR fs:0, eax
  00032	8b 7d 08	 mov	 edi, DWORD PTR _pChar$[ebp]
  00035	8b f1		 mov	 esi, ecx

; 403  : 	m_nTargetThrowCount++;

  00037	ff 86 bc 11 00
	00		 inc	 DWORD PTR [esi+4540]

; 404  : 	m_SkillState					= SS_TARGET_THROW;

  0003d	c7 86 e4 10 00
	00 03 00 00 00	 mov	 DWORD PTR [esi+4324], 3

; 405  : 	m_dwTargetCatchDelayStartTime	= FRAMEGETTIME();

  00047	ff 15 00 00 00
	00		 call	 DWORD PTR __imp_?GetSingleton@ioFrameTimer@@SAAAV1@XZ
  0004d	8b c8		 mov	 ecx, eax
  0004f	ff 15 00 00 00
	00		 call	 DWORD PTR __imp_?GetLoopSec@ioFrameTimer@@QBEKXZ

; 406  : 
; 407  : 	if( m_LoopAnimation.IsEmpty() || !pChar )

  00055	8d 8e 7c 11 00
	00		 lea	 ecx, DWORD PTR [esi+4476]
  0005b	89 86 dc 11 00
	00		 mov	 DWORD PTR [esi+4572], eax
  00061	ff 15 00 00 00
	00		 call	 DWORD PTR __imp_?IsEmpty@ioHashString@@QBE_NXZ
  00067	84 c0		 test	 al, al
  00069	0f 85 64 01 00
	00		 jne	 $LN4@SetTargetT
  0006f	85 ff		 test	 edi, edi
  00071	0f 84 5c 01 00
	00		 je	 $LN4@SetTargetT

; 408  : 	{
; 409  : 		return;
; 410  : 	}
; 411  : 
; 412  : 	ioEntityGroup *pGrp = pChar->GetGroup();

  00077	8b 5f 04	 mov	 ebx, DWORD PTR [edi+4]

; 413  : 	if( !pGrp )

  0007a	85 db		 test	 ebx, ebx
  0007c	0f 84 51 01 00
	00		 je	 $LN4@SetTargetT

; 414  : 		return;
; 415  : 
; 416  : 	int iAniID = pGrp->GetAnimationIdx( m_TargetCatchDelayAnimation );

  00082	8d 86 c4 11 00
	00		 lea	 eax, DWORD PTR [esi+4548]
  00088	50		 push	 eax
  00089	8b cb		 mov	 ecx, ebx
  0008b	ff 15 00 00 00
	00		 call	 DWORD PTR __imp_?GetAnimationIdx@ioEntityGroup@@QAEHABVioHashString@@@Z
  00091	89 85 d4 7f ff
	ff		 mov	 DWORD PTR _iAniID$[ebp], eax

; 417  : 	if( iAniID == -1 )

  00097	83 f8 ff	 cmp	 eax, -1
  0009a	0f 84 33 01 00
	00		 je	 $LN4@SetTargetT

; 418  : 		return;
; 419  : 
; 420  : 	pGrp->ClearAllLoopAni( 100.0f, true );

  000a0	f3 0f 10 05 00
	00 00 00	 movss	 xmm0, DWORD PTR __real@42c80000
  000a8	6a 01		 push	 1
  000aa	51		 push	 ecx
  000ab	8b cb		 mov	 ecx, ebx
  000ad	f3 0f 11 04 24	 movss	 DWORD PTR [esp], xmm0
  000b2	ff 15 00 00 00
	00		 call	 DWORD PTR __imp_?ClearAllLoopAni@ioEntityGroup@@QAEXM_N@Z

; 421  : 	pGrp->ClearAllActionAni( 100.0f, true );

  000b8	f3 0f 10 05 00
	00 00 00	 movss	 xmm0, DWORD PTR __real@42c80000
  000c0	6a 01		 push	 1
  000c2	51		 push	 ecx
  000c3	8b cb		 mov	 ecx, ebx
  000c5	f3 0f 11 04 24	 movss	 DWORD PTR [esp], xmm0
  000ca	ff 15 00 00 00
	00		 call	 DWORD PTR __imp_?ClearAllActionAni@ioEntityGroup@@QAEXM_N@Z

; 422  : 	pGrp->SetLoopAni( iAniID, 10.0f, 1.0f, 1.0f/m_fTargetCatchDelayAnimationRate );

  000d0	0f 57 c0	 xorps	 xmm0, xmm0
  000d3	f2 0f 10 0d 00
	00 00 00	 movsd	 xmm1, QWORD PTR __real@3ff0000000000000
  000db	83 ec 10	 sub	 esp, 16			; 00000010H
  000de	f3 0f 11 44 24
	0c		 movss	 DWORD PTR [esp+12], xmm0
  000e4	f3 0f 10 86 d4
	11 00 00	 movss	 xmm0, DWORD PTR [esi+4564]
  000ec	0f 5a c0	 cvtps2pd xmm0, xmm0
  000ef	f2 0f 5e c8	 divsd	 xmm1, xmm0
  000f3	8b cb		 mov	 ecx, ebx
  000f5	66 0f 5a c1	 cvtpd2ps xmm0, xmm1
  000f9	f3 0f 11 44 24
	08		 movss	 DWORD PTR [esp+8], xmm0
  000ff	f3 0f 10 05 00
	00 00 00	 movss	 xmm0, DWORD PTR __real@3f800000
  00107	f3 0f 11 44 24
	04		 movss	 DWORD PTR [esp+4], xmm0
  0010d	f3 0f 10 05 00
	00 00 00	 movss	 xmm0, DWORD PTR __real@41200000
  00115	f3 0f 11 04 24	 movss	 DWORD PTR [esp], xmm0
  0011a	ff b5 d4 7f ff
	ff		 push	 DWORD PTR _iAniID$[ebp]
  00120	ff 15 00 00 00
	00		 call	 DWORD PTR __imp_?SetLoopAni@ioEntityGroup@@QAE_NHMMMM@Z

; 423  : 	
; 424  : 	SetWeaponDir( pChar, pStage );

  00126	0f 57 c0	 xorps	 xmm0, xmm0
  00129	51		 push	 ecx
  0012a	f3 0f 11 04 24	 movss	 DWORD PTR [esp], xmm0
  0012f	ff 75 0c	 push	 DWORD PTR _pStage$[ebp]
  00132	8b ce		 mov	 ecx, esi
  00134	57		 push	 edi
  00135	e8 00 00 00 00	 call	 ?SetWeaponDir@ioSpaceMasterAttack@@IAEXPAVioBaseChar@@PAVioPlayStage@@M@Z ; ioSpaceMasterAttack::SetWeaponDir

; 425  : 
; 426  : 	if( pChar->IsNeedSendNetwork() )

  0013a	8b 07		 mov	 eax, DWORD PTR [edi]
  0013c	8b cf		 mov	 ecx, edi
  0013e	ff 90 04 01 00
	00		 call	 DWORD PTR [eax+260]
  00144	84 c0		 test	 al, al
  00146	0f 84 87 00 00
	00		 je	 $LN4@SetTargetT

; 427  : 	{
; 428  : 		SP2Packet kPacket( CUPK_SKILL_EXTRA_INFO );

  0014c	68 39 41 00 00	 push	 16697			; 00004139H
  00151	8d 8d d8 7f ff
	ff		 lea	 ecx, DWORD PTR _kPacket$548763[ebp]
  00157	e8 00 00 00 00	 call	 ??0SP2Packet@@QAE@K@Z	; SP2Packet::SP2Packet
  0015c	83 65 fc 00	 and	 DWORD PTR __$EHRec$[ebp+8], 0

; 429  : 		kPacket << pChar->GetCharName();

  00160	8d 87 d4 02 00
	00		 lea	 eax, DWORD PTR [edi+724]
  00166	50		 push	 eax
  00167	8d 8d d8 7f ff
	ff		 lea	 ecx, DWORD PTR _kPacket$548763[ebp]
  0016d	e8 00 00 00 00	 call	 ??6SP2Packet@@QAEAAV0@ABVioHashString@@@Z ; SP2Packet::operator<<

; 430  : 		kPacket << GetName();

  00172	83 c6 24	 add	 esi, 36			; 00000024H
  00175	56		 push	 esi
  00176	8d 8d d8 7f ff
	ff		 lea	 ecx, DWORD PTR _kPacket$548763[ebp]
  0017c	e8 00 00 00 00	 call	 ??6SP2Packet@@QAEAAV0@ABVioHashString@@@Z ; SP2Packet::operator<<

; 431  : 		kPacket << pChar->GetWorldOrientation();

  00181	8b 07		 mov	 eax, DWORD PTR [edi]
  00183	8b cf		 mov	 ecx, edi
  00185	ff 50 74	 call	 DWORD PTR [eax+116]
  00188	50		 push	 eax
  00189	8d 8d d8 7f ff
	ff		 lea	 ecx, DWORD PTR _kPacket$548763[ebp]
  0018f	e8 00 00 00 00	 call	 ??6SP2Packet@@QAEAAV0@ABUD3DXQUATERNION@@@Z ; SP2Packet::operator<<

; 432  : 		kPacket << pChar->GetWorldPosition();

  00194	8b 07		 mov	 eax, DWORD PTR [edi]
  00196	8b cf		 mov	 ecx, edi
  00198	ff 50 70	 call	 DWORD PTR [eax+112]
  0019b	50		 push	 eax
  0019c	8d 8d d8 7f ff
	ff		 lea	 ecx, DWORD PTR _kPacket$548763[ebp]
  001a2	e8 00 00 00 00	 call	 ??6SP2Packet@@QAEAAV0@ABUD3DXVECTOR3@@@Z ; SP2Packet::operator<<

; 433  : 		kPacket << (byte)SSS_TARGET_THROW;

  001a7	6a 02		 push	 2
  001a9	8d 8d d8 7f ff
	ff		 lea	 ecx, DWORD PTR _kPacket$548763[ebp]
  001af	e8 00 00 00 00	 call	 ??6SP2Packet@@QAEAAV0@E@Z ; SP2Packet::operator<<

; 434  : 		P2PNetwork::SendToAllPlayingUser( kPacket );

  001b4	8d 85 d8 7f ff
	ff		 lea	 eax, DWORD PTR _kPacket$548763[ebp]
  001ba	6a 00		 push	 0
  001bc	50		 push	 eax
  001bd	e8 00 00 00 00	 call	 ?SendToAllPlayingUser@P2PNetwork@@YAXAAVSP2Packet@@PAVioBaseChar@@@Z ; P2PNetwork::SendToAllPlayingUser

; 435  : 	}

  001c2	83 4d fc ff	 or	 DWORD PTR __$EHRec$[ebp+8], -1
  001c6	59		 pop	 ecx
  001c7	59		 pop	 ecx
  001c8	8d 8d d8 7f ff
	ff		 lea	 ecx, DWORD PTR _kPacket$548763[ebp]
  001ce	e8 00 00 00 00	 call	 ??1SP2Packet@@UAE@XZ	; SP2Packet::~SP2Packet
$LN4@SetTargetT:

; 436  : }

  001d3	8b 4d f4	 mov	 ecx, DWORD PTR __$EHRec$[ebp]
  001d6	64 89 0d 00 00
	00 00		 mov	 DWORD PTR fs:0, ecx
  001dd	59		 pop	 ecx
  001de	5f		 pop	 edi
  001df	5e		 pop	 esi
  001e0	5b		 pop	 ebx
  001e1	8b 4d f0	 mov	 ecx, DWORD PTR __$ArrayPad$[ebp]
  001e4	33 cd		 xor	 ecx, ebp
  001e6	e8 00 00 00 00	 call	 @__security_check_cookie@4
  001eb	c9		 leave
  001ec	c2 08 00	 ret	 8
_TEXT	ENDS
;	COMDAT text$x
text$x	SEGMENT
__unwindfunclet$?SetTargetThrowState@ioSpaceMasterAttack@@IAEXPAVioBaseChar@@PAVioPlayStage@@@Z$0:
  00000	8d 8d d8 7f ff
	ff		 lea	 ecx, DWORD PTR _kPacket$548763[ebp]
  00006	e9 00 00 00 00	 jmp	 ??1SP2Packet@@UAE@XZ	; SP2Packet::~SP2Packet
__ehhandler$?SetTargetThrowState@ioSpaceMasterAttack@@IAEXPAVioBaseChar@@PAVioPlayStage@@@Z:
  0000b	8b 54 24 08	 mov	 edx, DWORD PTR [esp+8]
  0000f	8d 42 0c	 lea	 eax, DWORD PTR [edx+12]
  00012	8b 8a d0 7f ff
	ff		 mov	 ecx, DWORD PTR [edx-32816]
  00018	33 c8		 xor	 ecx, eax
  0001a	e8 00 00 00 00	 call	 @__security_check_cookie@4
  0001f	8b 4a fc	 mov	 ecx, DWORD PTR [edx-4]
  00022	33 c8		 xor	 ecx, eax
  00024	e8 00 00 00 00	 call	 @__security_check_cookie@4
  00029	b8 00 00 00 00	 mov	 eax, OFFSET __ehfuncinfo$?SetTargetThrowState@ioSpaceMasterAttack@@IAEXPAVioBaseChar@@PAVioPlayStage@@@Z
  0002e	e9 00 00 00 00	 jmp	 ___CxxFrameHandler3
text$x	ENDS
?SetTargetThrowState@ioSpaceMasterAttack@@IAEXPAVioBaseChar@@PAVioPlayStage@@@Z ENDP ; ioSpaceMasterAttack::SetTargetThrowState
PUBLIC	??$_Uninit_copy@V?$_Vector_const_iterator@V?$_Vector_val@UForceInfo@@V?$allocator@UForceInfo@@@std@@@std@@@std@@PAUForceInfo@@V?$allocator@UForceInfo@@@2@@std@@YAPAUForceInfo@@V?$_Vector_const_iterator@V?$_Vector_val@UForceInfo@@V?$allocator@UForceInfo@@@std@@@std@@@0@0PAU1@AAV?$allocator@UForceInfo@@@0@U_Nonscalar_ptr_iterator_tag@0@@Z ; std::_Uninit_copy<std::_Vector_const_iterator<std::_Vector_val<ForceInfo,std::allocator<ForceInfo> > >,ForceInfo *,std::allocator<ForceInfo> >
; Function compile flags: /Ogsp
; File c:\program files (x86)\microsoft visual studio 10.0\vc\include\memory
;	COMDAT ??$_Uninit_copy@V?$_Vector_const_iterator@V?$_Vector_val@UForceInfo@@V?$allocator@UForceInfo@@@std@@@std@@@std@@PAUForceInfo@@V?$allocator@UForceInfo@@@2@@std@@YAPAUForceInfo@@V?$_Vector_const_iterator@V?$_Vector_val@UForceInfo@@V?$allocator@UForceInfo@@@std@@@std@@@0@0PAU1@AAV?$allocator@UForceInfo@@@0@U_Nonscalar_ptr_iterator_tag@0@@Z
_TEXT	SEGMENT
__First$ = 8						; size = 4
__Last$ = 12						; size = 4
__Dest$ = 16						; size = 4
__Al$ = 20						; size = 4
___formal$ = 24						; size = 1
??$_Uninit_copy@V?$_Vector_const_iterator@V?$_Vector_val@UForceInfo@@V?$allocator@UForceInfo@@@std@@@std@@@std@@PAUForceInfo@@V?$allocator@UForceInfo@@@2@@std@@YAPAUForceInfo@@V?$_Vector_const_iterator@V?$_Vector_val@UForceInfo@@V?$allocator@UForceInfo@@@std@@@std@@@0@0PAU1@AAV?$allocator@UForceInfo@@@0@U_Nonscalar_ptr_iterator_tag@0@@Z PROC ; std::_Uninit_copy<std::_Vector_const_iterator<std::_Vector_val<ForceInfo,std::allocator<ForceInfo> > >,ForceInfo *,std::allocator<ForceInfo> >, COMDAT

; 369  : 	{	// copy [_First, _Last) to raw _Dest, using _Al, arbitrary type

  00000	55		 push	 ebp
  00001	8b ec		 mov	 ebp, esp

; 370  : 	_DEBUG_RANGE(_First, _Last);
; 371  : 	_DEBUG_POINTER(_Dest);
; 372  : 	_FwdIt _Next = _Dest;
; 373  : 
; 374  : 	_TRY_BEGIN
; 375  : 	for (; _First != _Last; ++_Dest, ++_First)

  00003	eb 19		 jmp	 SHORT $LN35@Uninit_cop
$LL14@Uninit_cop:

; 376  : 		_Cons_val(_Al, _Dest, *_First);

  00005	ff 75 08	 push	 DWORD PTR __First$[ebp]
  00008	ff 75 10	 push	 DWORD PTR __Dest$[ebp]
  0000b	ff 75 14	 push	 DWORD PTR __Al$[ebp]
  0000e	e8 00 00 00 00	 call	 ??$_Cons_val@V?$allocator@UForceInfo@@@std@@UForceInfo@@ABU3@@std@@YAXAAV?$allocator@UForceInfo@@@0@PAUForceInfo@@ABU2@@Z ; std::_Cons_val<std::allocator<ForceInfo>,ForceInfo,ForceInfo const &>
  00013	83 45 10 0c	 add	 DWORD PTR __Dest$[ebp], 12 ; 0000000cH
  00017	83 c4 0c	 add	 esp, 12			; 0000000cH
  0001a	83 45 08 0c	 add	 DWORD PTR __First$[ebp], 12 ; 0000000cH
$LN35@Uninit_cop:

; 370  : 	_DEBUG_RANGE(_First, _Last);
; 371  : 	_DEBUG_POINTER(_Dest);
; 372  : 	_FwdIt _Next = _Dest;
; 373  : 
; 374  : 	_TRY_BEGIN
; 375  : 	for (; _First != _Last; ++_Dest, ++_First)

  0001e	8b 45 08	 mov	 eax, DWORD PTR __First$[ebp]
  00021	3b 45 0c	 cmp	 eax, DWORD PTR __Last$[ebp]
  00024	75 df		 jne	 SHORT $LL14@Uninit_cop

; 377  : 	_CATCH_ALL
; 378  : 	for (; _Next != _Dest; ++_Next)
; 379  : 		_Dest_val(_Al, _Next);
; 380  : 	_RERAISE;
; 381  : 	_CATCH_END
; 382  : 	return (_Dest);

  00026	8b 45 10	 mov	 eax, DWORD PTR __Dest$[ebp]

; 383  : 	}

  00029	5d		 pop	 ebp
  0002a	c3		 ret	 0
??$_Uninit_copy@V?$_Vector_const_iterator@V?$_Vector_val@UForceInfo@@V?$allocator@UForceInfo@@@std@@@std@@@std@@PAUForceInfo@@V?$allocator@UForceInfo@@@2@@std@@YAPAUForceInfo@@V?$_Vector_const_iterator@V?$_Vector_val@UForceInfo@@V?$allocator@UForceInfo@@@std@@@std@@@0@0PAU1@AAV?$allocator@UForceInfo@@@0@U_Nonscalar_ptr_iterator_tag@0@@Z ENDP ; std::_Uninit_copy<std::_Vector_const_iterator<std::_Vector_val<ForceInfo,std::allocator<ForceInfo> > >,ForceInfo *,std::allocator<ForceInfo> >
_TEXT	ENDS
PUBLIC	??$_Cons_val@V?$allocator@UWeaponInfo@@@std@@UWeaponInfo@@ABU3@@std@@YAXAAV?$allocator@UWeaponInfo@@@0@PAUWeaponInfo@@ABU2@@Z ; std::_Cons_val<std::allocator<WeaponInfo>,WeaponInfo,WeaponInfo const &>
; Function compile flags: /Ogsp
; File c:\program files (x86)\microsoft visual studio 10.0\vc\include\xmemory
;	COMDAT ??$_Cons_val@V?$allocator@UWeaponInfo@@@std@@UWeaponInfo@@ABU3@@std@@YAXAAV?$allocator@UWeaponInfo@@@0@PAUWeaponInfo@@ABU2@@Z
_TEXT	SEGMENT
__Alval$ = 8						; size = 4
__Pdest$ = 12						; size = 4
__Src$ = 16						; size = 4
??$_Cons_val@V?$allocator@UWeaponInfo@@@std@@UWeaponInfo@@ABU3@@std@@YAXAAV?$allocator@UWeaponInfo@@@0@PAUWeaponInfo@@ABU2@@Z PROC ; std::_Cons_val<std::allocator<WeaponInfo>,WeaponInfo,WeaponInfo const &>, COMDAT

; 279  : 	{	// construct using allocator

  00000	55		 push	 ebp
  00001	8b ec		 mov	 ebp, esp

; 280  : 	_Alval.construct(_Pdest, _STD forward<_Ty2>(_Src));

  00003	ff 75 10	 push	 DWORD PTR __Src$[ebp]
  00006	ff 75 0c	 push	 DWORD PTR __Pdest$[ebp]
  00009	e8 00 00 00 00	 call	 ??$_Construct@UWeaponInfo@@ABU1@@std@@YAXPAUWeaponInfo@@ABU1@@Z ; std::_Construct<WeaponInfo,WeaponInfo const &>
  0000e	59		 pop	 ecx
  0000f	59		 pop	 ecx

; 281  : 	}

  00010	5d		 pop	 ebp
  00011	c3		 ret	 0
??$_Cons_val@V?$allocator@UWeaponInfo@@@std@@UWeaponInfo@@ABU3@@std@@YAXAAV?$allocator@UWeaponInfo@@@0@PAUWeaponInfo@@ABU2@@Z ENDP ; std::_Cons_val<std::allocator<WeaponInfo>,WeaponInfo,WeaponInfo const &>
_TEXT	ENDS
PUBLIC	?_Tidy@?$vector@KV?$allocator@K@std@@@std@@IAEXXZ ; std::vector<unsigned long,std::allocator<unsigned long> >::_Tidy
EXTRN	__imp_?_Orphan_all@_Container_base0@std@@QAEXXZ:PROC
; Function compile flags: /Ogsp
; File c:\program files (x86)\microsoft visual studio 10.0\vc\include\vector
;	COMDAT ?_Tidy@?$vector@KV?$allocator@K@std@@@std@@IAEXXZ
_TEXT	SEGMENT
?_Tidy@?$vector@KV?$allocator@K@std@@@std@@IAEXXZ PROC	; std::vector<unsigned long,std::allocator<unsigned long> >::_Tidy, COMDAT
; _this$ = ecx

; 1301 : 		{	// free all storage

  00000	56		 push	 esi
  00001	8b f1		 mov	 esi, ecx

; 1302 : 		if (this->_Myfirst != 0)

  00003	83 3e 00	 cmp	 DWORD PTR [esi], 0
  00006	74 0e		 je	 SHORT $LN12@Tidy

; 1303 : 			{	// something to free, destroy and deallocate it
; 1304 : 			this->_Orphan_all();

  00008	ff 15 00 00 00
	00		 call	 DWORD PTR __imp_?_Orphan_all@_Container_base0@std@@QAEXXZ

; 1305 : 			_Destroy(this->_Myfirst, this->_Mylast);
; 1306 : 			this->_Alval.deallocate(this->_Myfirst,
; 1307 : 				this->_Myend - this->_Myfirst);

  0000e	ff 36		 push	 DWORD PTR [esi]
  00010	e8 00 00 00 00	 call	 ??3@YAXPAX@Z		; operator delete
  00015	59		 pop	 ecx
$LN12@Tidy:

; 1308 : 			}
; 1309 : 		this->_Myfirst = 0;

  00016	83 26 00	 and	 DWORD PTR [esi], 0

; 1310 : 		this->_Mylast = 0;

  00019	83 66 04 00	 and	 DWORD PTR [esi+4], 0

; 1311 : 		this->_Myend = 0;

  0001d	83 66 08 00	 and	 DWORD PTR [esi+8], 0
  00021	5e		 pop	 esi

; 1312 : 		}

  00022	c3		 ret	 0
?_Tidy@?$vector@KV?$allocator@K@std@@@std@@IAEXXZ ENDP	; std::vector<unsigned long,std::allocator<unsigned long> >::_Tidy
_TEXT	ENDS
PUBLIC	?reserve@?$vector@KV?$allocator@K@std@@@std@@QAEXI@Z ; std::vector<unsigned long,std::allocator<unsigned long> >::reserve
; Function compile flags: /Ogsp
;	COMDAT ?reserve@?$vector@KV?$allocator@K@std@@@std@@QAEXI@Z
_TEXT	SEGMENT
__Count$ = 8						; size = 4
?reserve@?$vector@KV?$allocator@K@std@@@std@@QAEXI@Z PROC ; std::vector<unsigned long,std::allocator<unsigned long> >::reserve, COMDAT
; _this$ = ecx

; 746  : 		{	// determine new minimum length of allocated storage

  00000	55		 push	 ebp
  00001	8b ec		 mov	 ebp, esp

; 747  : 		if (max_size() < _Count)

  00003	81 7d 08 ff ff
	ff 3f		 cmp	 DWORD PTR __Count$[ebp], 1073741823 ; 3fffffffH
  0000a	56		 push	 esi
  0000b	8b f1		 mov	 esi, ecx
  0000d	76 0b		 jbe	 SHORT $LN5@reserve

; 748  : 			_Xlen();	// result too long

  0000f	68 00 00 00 00	 push	 OFFSET ??_C@_0BD@OLBABOEK@vector?$DMT?$DO?5too?5long?$AA@
  00014	ff 15 00 00 00
	00		 call	 DWORD PTR __imp_?_Xlength_error@std@@YAXPBD@Z
$LN43@reserve:
$LN5@reserve:

; 749  : 		else if (capacity() < _Count)

  0001a	8b 46 08	 mov	 eax, DWORD PTR [esi+8]
  0001d	2b 06		 sub	 eax, DWORD PTR [esi]
  0001f	c1 f8 02	 sar	 eax, 2
  00022	3b 45 08	 cmp	 eax, DWORD PTR __Count$[ebp]
  00025	73 52		 jae	 SHORT $LN3@reserve

; 750  : 			{	// not enough room, reallocate
; 751  : 			pointer _Ptr = this->_Alval.allocate(_Count);

  00027	53		 push	 ebx
  00028	57		 push	 edi
  00029	6a 00		 push	 0
  0002b	ff 75 08	 push	 DWORD PTR __Count$[ebp]
  0002e	e8 00 00 00 00	 call	 ??$_Allocate@K@std@@YAPAKIPAK@Z ; std::_Allocate<unsigned long>

; 752  : 
; 753  : 			_TRY_BEGIN
; 754  : 			_Umove(this->_Myfirst, this->_Mylast, _Ptr);

  00033	8b 0e		 mov	 ecx, DWORD PTR [esi]
  00035	8d 56 0c	 lea	 edx, DWORD PTR [esi+12]
  00038	52		 push	 edx
  00039	8b d8		 mov	 ebx, eax
  0003b	8b 46 04	 mov	 eax, DWORD PTR [esi+4]
  0003e	53		 push	 ebx
  0003f	50		 push	 eax
  00040	51		 push	 ecx
  00041	e8 00 00 00 00	 call	 ??$_Uninitialized_move@PAKPAKV?$allocator@K@std@@@std@@YAPAKPAK00AAV?$allocator@K@0@@Z ; std::_Uninitialized_move<unsigned long *,unsigned long *,std::allocator<unsigned long> >

; 755  : 			_CATCH_ALL
; 756  : 			this->_Alval.deallocate(_Ptr, _Count);
; 757  : 			_RERAISE;
; 758  : 			_CATCH_END
; 759  : 
; 760  : 			size_type _Size = size();

  00046	8b 06		 mov	 eax, DWORD PTR [esi]
  00048	8b 7e 04	 mov	 edi, DWORD PTR [esi+4]
  0004b	2b f8		 sub	 edi, eax
  0004d	83 c4 18	 add	 esp, 24			; 00000018H
  00050	c1 ff 02	 sar	 edi, 2

; 761  : 			if (this->_Myfirst != 0)

  00053	85 c0		 test	 eax, eax
  00055	74 07		 je	 SHORT $LN39@reserve

; 762  : 				{	// destroy and deallocate old array
; 763  : 				_Destroy(this->_Myfirst, this->_Mylast);
; 764  : 				this->_Alval.deallocate(this->_Myfirst,
; 765  : 					this->_Myend - this->_Myfirst);

  00057	50		 push	 eax
  00058	e8 00 00 00 00	 call	 ??3@YAXPAX@Z		; operator delete
  0005d	59		 pop	 ecx
$LN39@reserve:

; 766  : 				}
; 767  : 
; 768  : 			this->_Orphan_all();

  0005e	8b ce		 mov	 ecx, esi
  00060	ff 15 00 00 00
	00		 call	 DWORD PTR __imp_?_Orphan_all@_Container_base0@std@@QAEXXZ

; 769  : 			this->_Myend = _Ptr + _Count;

  00066	8b 45 08	 mov	 eax, DWORD PTR __Count$[ebp]
  00069	8d 04 83	 lea	 eax, DWORD PTR [ebx+eax*4]
  0006c	89 46 08	 mov	 DWORD PTR [esi+8], eax

; 770  : 			this->_Mylast = _Ptr + _Size;

  0006f	8d 04 bb	 lea	 eax, DWORD PTR [ebx+edi*4]
  00072	5f		 pop	 edi

; 771  : 			this->_Myfirst = _Ptr;

  00073	89 1e		 mov	 DWORD PTR [esi], ebx
  00075	89 46 04	 mov	 DWORD PTR [esi+4], eax
  00078	5b		 pop	 ebx
$LN3@reserve:
  00079	5e		 pop	 esi

; 772  : 			}
; 773  : 		}

  0007a	5d		 pop	 ebp
  0007b	c2 04 00	 ret	 4
$LN42@reserve:
?reserve@?$vector@KV?$allocator@K@std@@@std@@QAEXI@Z ENDP ; std::vector<unsigned long,std::allocator<unsigned long> >::reserve
_TEXT	ENDS
PUBLIC	??$_Destroy_range@V?$allocator@UForceInfo@@@std@@@std@@YAXPAUForceInfo@@0AAV?$allocator@UForceInfo@@@0@U_Nonscalar_ptr_iterator_tag@0@@Z ; std::_Destroy_range<std::allocator<ForceInfo> >
; Function compile flags: /Ogsp
; File c:\program files (x86)\microsoft visual studio 10.0\vc\include\xmemory
;	COMDAT ??$_Destroy_range@V?$allocator@UForceInfo@@@std@@@std@@YAXPAUForceInfo@@0AAV?$allocator@UForceInfo@@@0@U_Nonscalar_ptr_iterator_tag@0@@Z
_TEXT	SEGMENT
__First$ = 8						; size = 4
__Last$ = 12						; size = 4
__Al$ = 16						; size = 4
___formal$ = 20						; size = 1
??$_Destroy_range@V?$allocator@UForceInfo@@@std@@@std@@YAXPAUForceInfo@@0AAV?$allocator@UForceInfo@@@0@U_Nonscalar_ptr_iterator_tag@0@@Z PROC ; std::_Destroy_range<std::allocator<ForceInfo> >, COMDAT

; 96   : 	for (; _First != _Last; ++_First)
; 97   : 		_Dest_val(_Al, _First);
; 98   : 	}

  00000	c3		 ret	 0
??$_Destroy_range@V?$allocator@UForceInfo@@@std@@@std@@YAXPAUForceInfo@@0AAV?$allocator@UForceInfo@@@0@U_Nonscalar_ptr_iterator_tag@0@@Z ENDP ; std::_Destroy_range<std::allocator<ForceInfo> >
_TEXT	ENDS
PUBLIC	??$_Dest_val@V?$allocator@VioHashString@@@std@@VioHashString@@@std@@YAXAAV?$allocator@VioHashString@@@0@PAVioHashString@@@Z ; std::_Dest_val<std::allocator<ioHashString>,ioHashString>
; Function compile flags: /Ogsp
;	COMDAT ??$_Dest_val@V?$allocator@VioHashString@@@std@@VioHashString@@@std@@YAXAAV?$allocator@VioHashString@@@0@PAVioHashString@@@Z
_TEXT	SEGMENT
__Alval$ = 8						; size = 4
__Pdest$ = 12						; size = 4
??$_Dest_val@V?$allocator@VioHashString@@@std@@VioHashString@@@std@@YAXAAV?$allocator@VioHashString@@@0@PAVioHashString@@@Z PROC ; std::_Dest_val<std::allocator<ioHashString>,ioHashString>, COMDAT

; 286  : 	{	// destroy using allocator

  00000	55		 push	 ebp
  00001	8b ec		 mov	 ebp, esp

; 287  : 	_Alval.destroy(_Pdest);

  00003	8b 4d 0c	 mov	 ecx, DWORD PTR __Pdest$[ebp]

; 288  : 	}

  00006	5d		 pop	 ebp

; 287  : 	_Alval.destroy(_Pdest);

  00007	ff 25 00 00 00
	00		 jmp	 DWORD PTR __imp_??1ioHashString@@QAE@XZ
??$_Dest_val@V?$allocator@VioHashString@@@std@@VioHashString@@@std@@YAXAAV?$allocator@VioHashString@@@0@PAVioHashString@@@Z ENDP ; std::_Dest_val<std::allocator<ioHashString>,ioHashString>
_TEXT	ENDS
PUBLIC	??$_Dest_val@V?$allocator@UWeaponInfo@@@std@@UWeaponInfo@@@std@@YAXAAV?$allocator@UWeaponInfo@@@0@PAUWeaponInfo@@@Z ; std::_Dest_val<std::allocator<WeaponInfo>,WeaponInfo>
; Function compile flags: /Ogsp
;	COMDAT ??$_Dest_val@V?$allocator@UWeaponInfo@@@std@@UWeaponInfo@@@std@@YAXAAV?$allocator@UWeaponInfo@@@0@PAUWeaponInfo@@@Z
_TEXT	SEGMENT
__Alval$ = 8						; size = 4
__Pdest$ = 12						; size = 4
??$_Dest_val@V?$allocator@UWeaponInfo@@@std@@UWeaponInfo@@@std@@YAXAAV?$allocator@UWeaponInfo@@@0@PAUWeaponInfo@@@Z PROC ; std::_Dest_val<std::allocator<WeaponInfo>,WeaponInfo>, COMDAT

; 286  : 	{	// destroy using allocator

  00000	55		 push	 ebp
  00001	8b ec		 mov	 ebp, esp

; 287  : 	_Alval.destroy(_Pdest);

  00003	8b 4d 0c	 mov	 ecx, DWORD PTR __Pdest$[ebp]
  00006	83 c1 08	 add	 ecx, 8

; 288  : 	}

  00009	5d		 pop	 ebp

; 287  : 	_Alval.destroy(_Pdest);

  0000a	ff 25 00 00 00
	00		 jmp	 DWORD PTR __imp_??1ioHashString@@QAE@XZ
??$_Dest_val@V?$allocator@UWeaponInfo@@@std@@UWeaponInfo@@@std@@YAXAAV?$allocator@UWeaponInfo@@@0@PAUWeaponInfo@@@Z ENDP ; std::_Dest_val<std::allocator<WeaponInfo>,WeaponInfo>
_TEXT	ENDS
PUBLIC	?CheckLoopState@ioSpaceMasterAttack@@IAEXPAVioBaseChar@@PAVioPlayStage@@@Z ; ioSpaceMasterAttack::CheckLoopState
EXTRN	?IsAttackKey@ioBaseChar@@QBE_NXZ:PROC		; ioBaseChar::IsAttackKey
; Function compile flags: /Ogsp
; File d:\lost saga for developer\youtube\tutorial\source\src\lsclient\iospacemasterattack.cpp
;	COMDAT ?CheckLoopState@ioSpaceMasterAttack@@IAEXPAVioBaseChar@@PAVioPlayStage@@@Z
_TEXT	SEGMENT
_pChar$ = 8						; size = 4
_pStage$ = 12						; size = 4
?CheckLoopState@ioSpaceMasterAttack@@IAEXPAVioBaseChar@@PAVioPlayStage@@@Z PROC ; ioSpaceMasterAttack::CheckLoopState, COMDAT
; _this$ = ecx

; 328  : {

  00000	55		 push	 ebp
  00001	8b ec		 mov	 ebp, esp
  00003	56		 push	 esi
  00004	57		 push	 edi
  00005	8b f1		 mov	 esi, ecx

; 329  : 	if( m_dwLoopStartTime + m_dwLoopDuration < FRAMEGETTIME() )

  00007	ff 15 00 00 00
	00		 call	 DWORD PTR __imp_?GetSingleton@ioFrameTimer@@SAAAV1@XZ
  0000d	8b c8		 mov	 ecx, eax
  0000f	ff 15 00 00 00
	00		 call	 DWORD PTR __imp_?GetLoopSec@ioFrameTimer@@QBEKXZ
  00015	8b 8e 94 11 00
	00		 mov	 ecx, DWORD PTR [esi+4500]
  0001b	03 8e 90 11 00
	00		 add	 ecx, DWORD PTR [esi+4496]

; 330  : 	{				
; 331  : 		if( CheckAliveWeapon( pChar ) && m_nTargetThrowCount < m_nTargetThrowMaxCount )

  00021	8b 7d 08	 mov	 edi, DWORD PTR _pChar$[ebp]
  00024	3b c8		 cmp	 ecx, eax
  00026	73 50		 jae	 SHORT $LN10@CheckLoopS
  00028	57		 push	 edi
  00029	8b ce		 mov	 ecx, esi
  0002b	e8 00 00 00 00	 call	 ?CheckAliveWeapon@ioSpaceMasterAttack@@IAE_NPAVioBaseChar@@@Z ; ioSpaceMasterAttack::CheckAliveWeapon
  00030	84 c0		 test	 al, al
  00032	74 30		 je	 SHORT $LN9@CheckLoopS
  00034	8b 86 bc 11 00
	00		 mov	 eax, DWORD PTR [esi+4540]
  0003a	3b 86 c0 11 00
	00		 cmp	 eax, DWORD PTR [esi+4544]
  00040	7d 22		 jge	 SHORT $LN9@CheckLoopS

; 332  : 		{
; 333  : 			if( pChar->IsNeedProcess() )

  00042	8b 07		 mov	 eax, DWORD PTR [edi]
  00044	8b cf		 mov	 ecx, edi
  00046	ff 90 00 01 00
	00		 call	 DWORD PTR [eax+256]
  0004c	84 c0		 test	 al, al
  0004e	0f 84 96 00 00
	00		 je	 $LN1@CheckLoopS

; 334  : 			{
; 335  : 				SetTargetThrowState( pChar, pStage );

  00054	ff 75 0c	 push	 DWORD PTR _pStage$[ebp]
  00057	8b ce		 mov	 ecx, esi
  00059	57		 push	 edi
  0005a	e8 00 00 00 00	 call	 ?SetTargetThrowState@ioSpaceMasterAttack@@IAEXPAVioBaseChar@@PAVioPlayStage@@@Z ; ioSpaceMasterAttack::SetTargetThrowState

; 336  : 			}
; 337  : 		}
; 338  : 		else

  0005f	e9 86 00 00 00	 jmp	 $LN1@CheckLoopS
$LN9@CheckLoopS:

; 339  : 		{
; 340  : 			if( pChar->IsNeedProcess() )

  00064	8b 07		 mov	 eax, DWORD PTR [edi]
  00066	8b cf		 mov	 ecx, edi
  00068	ff 90 00 01 00
	00		 call	 DWORD PTR [eax+256]
  0006e	84 c0		 test	 al, al
  00070	74 78		 je	 SHORT $LN1@CheckLoopS

; 341  : 			{
; 342  : 				SetEndState( pChar, pStage, true, true );

  00072	6a 01		 push	 1
  00074	6a 01		 push	 1

; 343  : 			}
; 344  : 		}
; 345  : 	}
; 346  : 	else

  00076	eb 67		 jmp	 SHORT $LN13@CheckLoopS
$LN10@CheckLoopS:

; 347  : 	{
; 348  : 		if( pChar->IsAttackKey() && pChar->IsNeedProcess() )

  00078	8b cf		 mov	 ecx, edi
  0007a	e8 00 00 00 00	 call	 ?IsAttackKey@ioBaseChar@@QBE_NXZ ; ioBaseChar::IsAttackKey
  0007f	84 c0		 test	 al, al
  00081	74 36		 je	 SHORT $LN2@CheckLoopS
  00083	8b 07		 mov	 eax, DWORD PTR [edi]
  00085	8b cf		 mov	 ecx, edi
  00087	ff 90 00 01 00
	00		 call	 DWORD PTR [eax+256]
  0008d	84 c0		 test	 al, al
  0008f	74 28		 je	 SHORT $LN2@CheckLoopS

; 349  : 		{
; 350  : 			if( m_nTargetThrowCount < m_nTargetThrowMaxCount )

  00091	8b 86 bc 11 00
	00		 mov	 eax, DWORD PTR [esi+4540]

; 351  : 			{
; 352  : 				SetTargetThrowState( pChar, pStage );

  00097	8b ce		 mov	 ecx, esi
  00099	3b 86 c0 11 00
	00		 cmp	 eax, DWORD PTR [esi+4544]
  0009f	7d 0b		 jge	 SHORT $LN3@CheckLoopS
  000a1	ff 75 0c	 push	 DWORD PTR _pStage$[ebp]
  000a4	57		 push	 edi
  000a5	e8 00 00 00 00	 call	 ?SetTargetThrowState@ioSpaceMasterAttack@@IAEXPAVioBaseChar@@PAVioPlayStage@@@Z ; ioSpaceMasterAttack::SetTargetThrowState

; 353  : 			}
; 354  : 			else

  000aa	eb 0d		 jmp	 SHORT $LN2@CheckLoopS
$LN3@CheckLoopS:

; 355  : 			{
; 356  : 				SetEndState( pChar, pStage, true, true );

  000ac	6a 01		 push	 1
  000ae	6a 01		 push	 1
  000b0	ff 75 0c	 push	 DWORD PTR _pStage$[ebp]
  000b3	57		 push	 edi
  000b4	e8 00 00 00 00	 call	 ?SetEndState@ioSpaceMasterAttack@@IAEXPAVioBaseChar@@PAVioPlayStage@@_N2@Z ; ioSpaceMasterAttack::SetEndState
$LN2@CheckLoopS:

; 357  : 			}
; 358  : 		}
; 359  : 
; 360  : 		ProcessWeaponPos( pChar );

  000b9	57		 push	 edi
  000ba	8b ce		 mov	 ecx, esi
  000bc	e8 00 00 00 00	 call	 ?ProcessWeaponPos@ioSpaceMasterAttack@@IAEXPAVioBaseChar@@@Z ; ioSpaceMasterAttack::ProcessWeaponPos

; 361  : 
; 362  : 		if( !CheckAliveWeapon( pChar ) && pChar-> IsNeedProcess() )

  000c1	57		 push	 edi
  000c2	8b ce		 mov	 ecx, esi
  000c4	e8 00 00 00 00	 call	 ?CheckAliveWeapon@ioSpaceMasterAttack@@IAE_NPAVioBaseChar@@@Z ; ioSpaceMasterAttack::CheckAliveWeapon
  000c9	84 c0		 test	 al, al
  000cb	75 1d		 jne	 SHORT $LN1@CheckLoopS
  000cd	8b 07		 mov	 eax, DWORD PTR [edi]
  000cf	8b cf		 mov	 ecx, edi
  000d1	ff 90 00 01 00
	00		 call	 DWORD PTR [eax+256]
  000d7	84 c0		 test	 al, al
  000d9	74 0f		 je	 SHORT $LN1@CheckLoopS

; 363  : 		{
; 364  : 			SetEndState( pChar, pStage, false, true );

  000db	6a 01		 push	 1
  000dd	6a 00		 push	 0
$LN13@CheckLoopS:
  000df	ff 75 0c	 push	 DWORD PTR _pStage$[ebp]
  000e2	8b ce		 mov	 ecx, esi
  000e4	57		 push	 edi
  000e5	e8 00 00 00 00	 call	 ?SetEndState@ioSpaceMasterAttack@@IAEXPAVioBaseChar@@PAVioPlayStage@@_N2@Z ; ioSpaceMasterAttack::SetEndState
$LN1@CheckLoopS:
  000ea	5f		 pop	 edi
  000eb	5e		 pop	 esi

; 365  : 		}
; 366  : 	}
; 367  : }

  000ec	5d		 pop	 ebp
  000ed	c2 08 00	 ret	 8
?CheckLoopState@ioSpaceMasterAttack@@IAEXPAVioBaseChar@@PAVioPlayStage@@@Z ENDP ; ioSpaceMasterAttack::CheckLoopState
_TEXT	ENDS
PUBLIC	??$_Uninitialized_copy@V?$_Vector_const_iterator@V?$_Vector_val@UForceInfo@@V?$allocator@UForceInfo@@@std@@@std@@@std@@PAUForceInfo@@V?$allocator@UForceInfo@@@2@@std@@YAPAUForceInfo@@V?$_Vector_const_iterator@V?$_Vector_val@UForceInfo@@V?$allocator@UForceInfo@@@std@@@std@@@0@0PAU1@AAV?$allocator@UForceInfo@@@0@@Z ; std::_Uninitialized_copy<std::_Vector_const_iterator<std::_Vector_val<ForceInfo,std::allocator<ForceInfo> > >,ForceInfo *,std::allocator<ForceInfo> >
; Function compile flags: /Ogsp
; File c:\program files (x86)\microsoft visual studio 10.0\vc\include\memory
;	COMDAT ??$_Uninitialized_copy@V?$_Vector_const_iterator@V?$_Vector_val@UForceInfo@@V?$allocator@UForceInfo@@@std@@@std@@@std@@PAUForceInfo@@V?$allocator@UForceInfo@@@2@@std@@YAPAUForceInfo@@V?$_Vector_const_iterator@V?$_Vector_val@UForceInfo@@V?$allocator@UForceInfo@@@std@@@std@@@0@0PAU1@AAV?$allocator@UForceInfo@@@0@@Z
_TEXT	SEGMENT
__Cat$557294 = -4					; size = 1
__First$ = 8						; size = 4
__Last$ = 12						; size = 4
__Dest$ = 16						; size = 4
__Al$ = 20						; size = 4
??$_Uninitialized_copy@V?$_Vector_const_iterator@V?$_Vector_val@UForceInfo@@V?$allocator@UForceInfo@@@std@@@std@@@std@@PAUForceInfo@@V?$allocator@UForceInfo@@@2@@std@@YAPAUForceInfo@@V?$_Vector_const_iterator@V?$_Vector_val@UForceInfo@@V?$allocator@UForceInfo@@@std@@@std@@@0@0PAU1@AAV?$allocator@UForceInfo@@@0@@Z PROC ; std::_Uninitialized_copy<std::_Vector_const_iterator<std::_Vector_val<ForceInfo,std::allocator<ForceInfo> > >,ForceInfo *,std::allocator<ForceInfo> >, COMDAT

; 412  : 	{	// copy [_First, _Last) to raw _Dest, using _Al

  00000	55		 push	 ebp
  00001	8b ec		 mov	 ebp, esp
  00003	51		 push	 ecx

; 413  : 	return (_Uninit_copy(_First, _Last, _Dest, _Al,
; 414  : 		_Ptr_cat(_First, _Dest)));

  00004	ff 75 fc	 push	 DWORD PTR __Cat$557294[ebp]
  00007	ff 75 14	 push	 DWORD PTR __Al$[ebp]
  0000a	ff 75 10	 push	 DWORD PTR __Dest$[ebp]
  0000d	ff 75 0c	 push	 DWORD PTR __Last$[ebp]
  00010	ff 75 08	 push	 DWORD PTR __First$[ebp]
  00013	e8 00 00 00 00	 call	 ??$_Uninit_copy@V?$_Vector_const_iterator@V?$_Vector_val@UForceInfo@@V?$allocator@UForceInfo@@@std@@@std@@@std@@PAUForceInfo@@V?$allocator@UForceInfo@@@2@@std@@YAPAUForceInfo@@V?$_Vector_const_iterator@V?$_Vector_val@UForceInfo@@V?$allocator@UForceInfo@@@std@@@std@@@0@0PAU1@AAV?$allocator@UForceInfo@@@0@U_Nonscalar_ptr_iterator_tag@0@@Z ; std::_Uninit_copy<std::_Vector_const_iterator<std::_Vector_val<ForceInfo,std::allocator<ForceInfo> > >,ForceInfo *,std::allocator<ForceInfo> >
  00018	83 c4 14	 add	 esp, 20			; 00000014H

; 415  : 	}

  0001b	c9		 leave
  0001c	c3		 ret	 0
??$_Uninitialized_copy@V?$_Vector_const_iterator@V?$_Vector_val@UForceInfo@@V?$allocator@UForceInfo@@@std@@@std@@@std@@PAUForceInfo@@V?$allocator@UForceInfo@@@2@@std@@YAPAUForceInfo@@V?$_Vector_const_iterator@V?$_Vector_val@UForceInfo@@V?$allocator@UForceInfo@@@std@@@std@@@0@0PAU1@AAV?$allocator@UForceInfo@@@0@@Z ENDP ; std::_Uninitialized_copy<std::_Vector_const_iterator<std::_Vector_val<ForceInfo,std::allocator<ForceInfo> > >,ForceInfo *,std::allocator<ForceInfo> >
_TEXT	ENDS
PUBLIC	??$_Uninit_copy@PAVioHashString@@PAV1@V?$allocator@VioHashString@@@std@@@std@@YAPAVioHashString@@PAV1@00AAV?$allocator@VioHashString@@@0@U_Nonscalar_ptr_iterator_tag@0@@Z ; std::_Uninit_copy<ioHashString *,ioHashString *,std::allocator<ioHashString> >
EXTRN	__EH_prolog3_catch:PROC
;	COMDAT xdata$x
; File c:\program files (x86)\microsoft visual studio 10.0\vc\include\vector
xdata$x	SEGMENT
__catchsym$??$_Uninit_copy@PAVioHashString@@PAV1@V?$allocator@VioHashString@@@std@@@std@@YAPAVioHashString@@PAV1@00AAV?$allocator@VioHashString@@@0@U_Nonscalar_ptr_iterator_tag@0@@Z$2 DD 040H
	DD	00H
	DD	00H
	DD	FLAT:__catch$??$_Uninit_copy@PAVioHashString@@PAV1@V?$allocator@VioHashString@@@std@@@std@@YAPAVioHashString@@PAV1@00AAV?$allocator@VioHashString@@@0@U_Nonscalar_ptr_iterator_tag@0@@Z$0
__unwindtable$??$_Uninit_copy@PAVioHashString@@PAV1@V?$allocator@VioHashString@@@std@@@std@@YAPAVioHashString@@PAV1@00AAV?$allocator@VioHashString@@@0@U_Nonscalar_ptr_iterator_tag@0@@Z DD 0ffffffffH
	DD	00H
	DD	0ffffffffH
	DD	00H
__tryblocktable$??$_Uninit_copy@PAVioHashString@@PAV1@V?$allocator@VioHashString@@@std@@@std@@YAPAVioHashString@@PAV1@00AAV?$allocator@VioHashString@@@0@U_Nonscalar_ptr_iterator_tag@0@@Z DD 00H
	DD	00H
	DD	01H
	DD	01H
	DD	FLAT:__catchsym$??$_Uninit_copy@PAVioHashString@@PAV1@V?$allocator@VioHashString@@@std@@@std@@YAPAVioHashString@@PAV1@00AAV?$allocator@VioHashString@@@0@U_Nonscalar_ptr_iterator_tag@0@@Z$2
__ehfuncinfo$??$_Uninit_copy@PAVioHashString@@PAV1@V?$allocator@VioHashString@@@std@@@std@@YAPAVioHashString@@PAV1@00AAV?$allocator@VioHashString@@@0@U_Nonscalar_ptr_iterator_tag@0@@Z DD 019930522H
	DD	02H
	DD	FLAT:__unwindtable$??$_Uninit_copy@PAVioHashString@@PAV1@V?$allocator@VioHashString@@@std@@@std@@YAPAVioHashString@@PAV1@00AAV?$allocator@VioHashString@@@0@U_Nonscalar_ptr_iterator_tag@0@@Z
	DD	01H
	DD	FLAT:__tryblocktable$??$_Uninit_copy@PAVioHashString@@PAV1@V?$allocator@VioHashString@@@std@@@std@@YAPAVioHashString@@PAV1@00AAV?$allocator@VioHashString@@@0@U_Nonscalar_ptr_iterator_tag@0@@Z
	DD	2 DUP(00H)
	DD	00H
	DD	01H
; Function compile flags: /Ogsp
; File c:\program files (x86)\microsoft visual studio 10.0\vc\include\memory
xdata$x	ENDS
;	COMDAT ??$_Uninit_copy@PAVioHashString@@PAV1@V?$allocator@VioHashString@@@std@@@std@@YAPAVioHashString@@PAV1@00AAV?$allocator@VioHashString@@@0@U_Nonscalar_ptr_iterator_tag@0@@Z
_TEXT	SEGMENT
__Next$ = -20						; size = 4
__$EHRec$ = -16						; size = 16
__First$ = 8						; size = 4
__Last$ = 12						; size = 4
__Dest$ = 16						; size = 4
__Al$ = 20						; size = 4
___formal$ = 24						; size = 1
??$_Uninit_copy@PAVioHashString@@PAV1@V?$allocator@VioHashString@@@std@@@std@@YAPAVioHashString@@PAV1@00AAV?$allocator@VioHashString@@@0@U_Nonscalar_ptr_iterator_tag@0@@Z PROC ; std::_Uninit_copy<ioHashString *,ioHashString *,std::allocator<ioHashString> >, COMDAT

; 369  : 	{	// copy [_First, _Last) to raw _Dest, using _Al, arbitrary type

  00000	6a 08		 push	 8
  00002	b8 00 00 00 00	 mov	 eax, __ehhandler$??$_Uninit_copy@PAVioHashString@@PAV1@V?$allocator@VioHashString@@@std@@@std@@YAPAVioHashString@@PAV1@00AAV?$allocator@VioHashString@@@0@U_Nonscalar_ptr_iterator_tag@0@@Z
  00007	e8 00 00 00 00	 call	 __EH_prolog3_catch

; 370  : 	_DEBUG_RANGE(_First, _Last);
; 371  : 	_DEBUG_POINTER(_Dest);
; 372  : 	_FwdIt _Next = _Dest;

  0000c	8b 45 10	 mov	 eax, DWORD PTR __Dest$[ebp]

; 373  : 
; 374  : 	_TRY_BEGIN

  0000f	83 65 fc 00	 and	 DWORD PTR __$EHRec$[ebp+12], 0
  00013	8b 75 08	 mov	 esi, DWORD PTR __First$[ebp]
  00016	89 45 ec	 mov	 DWORD PTR __Next$[ebp], eax
$LL6@Uninit_cop@2:

; 375  : 	for (; _First != _Last; ++_Dest, ++_First)

  00019	3b 75 0c	 cmp	 esi, DWORD PTR __Last$[ebp]
  0001c	74 33		 je	 SHORT $LN4@Uninit_cop@2

; 376  : 		_Cons_val(_Al, _Dest, *_First);

  0001e	8b 4d 14	 mov	 ecx, DWORD PTR __Al$[ebp]
  00021	56		 push	 esi
  00022	ff 75 10	 push	 DWORD PTR __Dest$[ebp]
  00025	e8 00 00 00 00	 call	 ??$construct@AAVioHashString@@@?$allocator@VioHashString@@@std@@QAEXPAVioHashString@@AAV2@@Z ; std::allocator<ioHashString>::construct<ioHashString &>
  0002a	83 45 10 10	 add	 DWORD PTR __Dest$[ebp], 16 ; 00000010H
  0002e	83 c6 10	 add	 esi, 16			; 00000010H
  00031	eb e6		 jmp	 SHORT $LL6@Uninit_cop@2
__catch$??$_Uninit_copy@PAVioHashString@@PAV1@V?$allocator@VioHashString@@@std@@@std@@YAPAVioHashString@@PAV1@00AAV?$allocator@VioHashString@@@0@U_Nonscalar_ptr_iterator_tag@0@@Z$0:

; 377  : 	_CATCH_ALL
; 378  : 	for (; _Next != _Dest; ++_Next)

  00033	8b 75 ec	 mov	 esi, DWORD PTR __Next$[ebp]
  00036	eb 0b		 jmp	 SHORT $LN33@Uninit_cop@2
$LL3@Uninit_cop@2:

; 379  : 		_Dest_val(_Al, _Next);

  00038	8b ce		 mov	 ecx, esi
  0003a	ff 15 00 00 00
	00		 call	 DWORD PTR __imp_??1ioHashString@@QAE@XZ
  00040	83 c6 10	 add	 esi, 16			; 00000010H
$LN33@Uninit_cop@2:

; 377  : 	_CATCH_ALL
; 378  : 	for (; _Next != _Dest; ++_Next)

  00043	3b 75 10	 cmp	 esi, DWORD PTR __Dest$[ebp]
  00046	75 f0		 jne	 SHORT $LL3@Uninit_cop@2

; 380  : 	_RERAISE;

  00048	6a 00		 push	 0
  0004a	6a 00		 push	 0
  0004c	e8 00 00 00 00	 call	 __CxxThrowException@8
$LN34@Uninit_cop@2:
$LN4@Uninit_cop@2:

; 381  : 	_CATCH_END
; 382  : 	return (_Dest);

  00051	8b 45 10	 mov	 eax, DWORD PTR __Dest$[ebp]

; 383  : 	}

  00054	e8 00 00 00 00	 call	 __EH_epilog3
  00059	c3		 ret	 0
$LN32@Uninit_cop@2:
_TEXT	ENDS
;	COMDAT text$x
text$x	SEGMENT
__ehhandler$??$_Uninit_copy@PAVioHashString@@PAV1@V?$allocator@VioHashString@@@std@@@std@@YAPAVioHashString@@PAV1@00AAV?$allocator@VioHashString@@@0@U_Nonscalar_ptr_iterator_tag@0@@Z:
  00000	8b 54 24 08	 mov	 edx, DWORD PTR [esp+8]
  00004	8d 42 0c	 lea	 eax, DWORD PTR [edx+12]
  00007	8b 4a e8	 mov	 ecx, DWORD PTR [edx-24]
  0000a	33 c8		 xor	 ecx, eax
  0000c	e8 00 00 00 00	 call	 @__security_check_cookie@4
  00011	b8 00 00 00 00	 mov	 eax, OFFSET __ehfuncinfo$??$_Uninit_copy@PAVioHashString@@PAV1@V?$allocator@VioHashString@@@std@@@std@@YAPAVioHashString@@PAV1@00AAV?$allocator@VioHashString@@@0@U_Nonscalar_ptr_iterator_tag@0@@Z
  00016	e9 00 00 00 00	 jmp	 ___CxxFrameHandler3
text$x	ENDS
??$_Uninit_copy@PAVioHashString@@PAV1@V?$allocator@VioHashString@@@std@@@std@@YAPAVioHashString@@PAV1@00AAV?$allocator@VioHashString@@@0@U_Nonscalar_ptr_iterator_tag@0@@Z ENDP ; std::_Uninit_copy<ioHashString *,ioHashString *,std::allocator<ioHashString> >
PUBLIC	??$_Uninit_copy@V?$_Vector_const_iterator@V?$_Vector_val@UWeaponInfo@@V?$allocator@UWeaponInfo@@@std@@@std@@@std@@PAUWeaponInfo@@V?$allocator@UWeaponInfo@@@2@@std@@YAPAUWeaponInfo@@V?$_Vector_const_iterator@V?$_Vector_val@UWeaponInfo@@V?$allocator@UWeaponInfo@@@std@@@std@@@0@0PAU1@AAV?$allocator@UWeaponInfo@@@0@U_Nonscalar_ptr_iterator_tag@0@@Z ; std::_Uninit_copy<std::_Vector_const_iterator<std::_Vector_val<WeaponInfo,std::allocator<WeaponInfo> > >,WeaponInfo *,std::allocator<WeaponInfo> >
;	COMDAT xdata$x
; File d:\lost saga for developer\youtube\tutorial\source\src\lsclient\playentityhelpstruct.h
xdata$x	SEGMENT
__catchsym$??$_Uninit_copy@V?$_Vector_const_iterator@V?$_Vector_val@UWeaponInfo@@V?$allocator@UWeaponInfo@@@std@@@std@@@std@@PAUWeaponInfo@@V?$allocator@UWeaponInfo@@@2@@std@@YAPAUWeaponInfo@@V?$_Vector_const_iterator@V?$_Vector_val@UWeaponInfo@@V?$allocator@UWeaponInfo@@@std@@@std@@@0@0PAU1@AAV?$allocator@UWeaponInfo@@@0@U_Nonscalar_ptr_iterator_tag@0@@Z$3 DD 040H
	DD	00H
	DD	00H
	DD	FLAT:__catch$??$_Uninit_copy@V?$_Vector_const_iterator@V?$_Vector_val@UWeaponInfo@@V?$allocator@UWeaponInfo@@@std@@@std@@@std@@PAUWeaponInfo@@V?$allocator@UWeaponInfo@@@2@@std@@YAPAUWeaponInfo@@V?$_Vector_const_iterator@V?$_Vector_val@UWeaponInfo@@V?$allocator@UWeaponInfo@@@std@@@std@@@0@0PAU1@AAV?$allocator@UWeaponInfo@@@0@U_Nonscalar_ptr_iterator_tag@0@@Z$0
__unwindtable$??$_Uninit_copy@V?$_Vector_const_iterator@V?$_Vector_val@UWeaponInfo@@V?$allocator@UWeaponInfo@@@std@@@std@@@std@@PAUWeaponInfo@@V?$allocator@UWeaponInfo@@@2@@std@@YAPAUWeaponInfo@@V?$_Vector_const_iterator@V?$_Vector_val@UWeaponInfo@@V?$allocator@UWeaponInfo@@@std@@@std@@@0@0PAU1@AAV?$allocator@UWeaponInfo@@@0@U_Nonscalar_ptr_iterator_tag@0@@Z DD 0ffffffffH
	DD	00H
	DD	0ffffffffH
	DD	00H
__tryblocktable$??$_Uninit_copy@V?$_Vector_const_iterator@V?$_Vector_val@UWeaponInfo@@V?$allocator@UWeaponInfo@@@std@@@std@@@std@@PAUWeaponInfo@@V?$allocator@UWeaponInfo@@@2@@std@@YAPAUWeaponInfo@@V?$_Vector_const_iterator@V?$_Vector_val@UWeaponInfo@@V?$allocator@UWeaponInfo@@@std@@@std@@@0@0PAU1@AAV?$allocator@UWeaponInfo@@@0@U_Nonscalar_ptr_iterator_tag@0@@Z DD 00H
	DD	00H
	DD	01H
	DD	01H
	DD	FLAT:__catchsym$??$_Uninit_copy@V?$_Vector_const_iterator@V?$_Vector_val@UWeaponInfo@@V?$allocator@UWeaponInfo@@@std@@@std@@@std@@PAUWeaponInfo@@V?$allocator@UWeaponInfo@@@2@@std@@YAPAUWeaponInfo@@V?$_Vector_const_iterator@V?$_Vector_val@UWeaponInfo@@V?$allocator@UWeaponInfo@@@std@@@std@@@0@0PAU1@AAV?$allocator@UWeaponInfo@@@0@U_Nonscalar_ptr_iterator_tag@0@@Z$3
__ehfuncinfo$??$_Uninit_copy@V?$_Vector_const_iterator@V?$_Vector_val@UWeaponInfo@@V?$allocator@UWeaponInfo@@@std@@@std@@@std@@PAUWeaponInfo@@V?$allocator@UWeaponInfo@@@2@@std@@YAPAUWeaponInfo@@V?$_Vector_const_iterator@V?$_Vector_val@UWeaponInfo@@V?$allocator@UWeaponInfo@@@std@@@std@@@0@0PAU1@AAV?$allocator@UWeaponInfo@@@0@U_Nonscalar_ptr_iterator_tag@0@@Z DD 019930522H
	DD	02H
	DD	FLAT:__unwindtable$??$_Uninit_copy@V?$_Vector_const_iterator@V?$_Vector_val@UWeaponInfo@@V?$allocator@UWeaponInfo@@@std@@@std@@@std@@PAUWeaponInfo@@V?$allocator@UWeaponInfo@@@2@@std@@YAPAUWeaponInfo@@V?$_Vector_const_iterator@V?$_Vector_val@UWeaponInfo@@V?$allocator@UWeaponInfo@@@std@@@std@@@0@0PAU1@AAV?$allocator@UWeaponInfo@@@0@U_Nonscalar_ptr_iterator_tag@0@@Z
	DD	01H
	DD	FLAT:__tryblocktable$??$_Uninit_copy@V?$_Vector_const_iterator@V?$_Vector_val@UWeaponInfo@@V?$allocator@UWeaponInfo@@@std@@@std@@@std@@PAUWeaponInfo@@V?$allocator@UWeaponInfo@@@2@@std@@YAPAUWeaponInfo@@V?$_Vector_const_iterator@V?$_Vector_val@UWeaponInfo@@V?$allocator@UWeaponInfo@@@std@@@std@@@0@0PAU1@AAV?$allocator@UWeaponInfo@@@0@U_Nonscalar_ptr_iterator_tag@0@@Z
	DD	2 DUP(00H)
	DD	00H
	DD	01H
; Function compile flags: /Ogsp
; File c:\program files (x86)\microsoft visual studio 10.0\vc\include\memory
xdata$x	ENDS
;	COMDAT ??$_Uninit_copy@V?$_Vector_const_iterator@V?$_Vector_val@UWeaponInfo@@V?$allocator@UWeaponInfo@@@std@@@std@@@std@@PAUWeaponInfo@@V?$allocator@UWeaponInfo@@@2@@std@@YAPAUWeaponInfo@@V?$_Vector_const_iterator@V?$_Vector_val@UWeaponInfo@@V?$allocator@UWeaponInfo@@@std@@@std@@@0@0PAU1@AAV?$allocator@UWeaponInfo@@@0@U_Nonscalar_ptr_iterator_tag@0@@Z
_TEXT	SEGMENT
__Next$ = -20						; size = 4
__$EHRec$ = -16						; size = 16
__First$ = 8						; size = 4
__Last$ = 12						; size = 4
__Dest$ = 16						; size = 4
__Al$ = 20						; size = 4
___formal$ = 24						; size = 1
??$_Uninit_copy@V?$_Vector_const_iterator@V?$_Vector_val@UWeaponInfo@@V?$allocator@UWeaponInfo@@@std@@@std@@@std@@PAUWeaponInfo@@V?$allocator@UWeaponInfo@@@2@@std@@YAPAUWeaponInfo@@V?$_Vector_const_iterator@V?$_Vector_val@UWeaponInfo@@V?$allocator@UWeaponInfo@@@std@@@std@@@0@0PAU1@AAV?$allocator@UWeaponInfo@@@0@U_Nonscalar_ptr_iterator_tag@0@@Z PROC ; std::_Uninit_copy<std::_Vector_const_iterator<std::_Vector_val<WeaponInfo,std::allocator<WeaponInfo> > >,WeaponInfo *,std::allocator<WeaponInfo> >, COMDAT

; 369  : 	{	// copy [_First, _Last) to raw _Dest, using _Al, arbitrary type

  00000	6a 08		 push	 8
  00002	b8 00 00 00 00	 mov	 eax, __ehhandler$??$_Uninit_copy@V?$_Vector_const_iterator@V?$_Vector_val@UWeaponInfo@@V?$allocator@UWeaponInfo@@@std@@@std@@@std@@PAUWeaponInfo@@V?$allocator@UWeaponInfo@@@2@@std@@YAPAUWeaponInfo@@V?$_Vector_const_iterator@V?$_Vector_val@UWeaponInfo@@V?$allocator@UWeaponInfo@@@std@@@std@@@0@0PAU1@AAV?$allocator@UWeaponInfo@@@0@U_Nonscalar_ptr_iterator_tag@0@@Z
  00007	e8 00 00 00 00	 call	 __EH_prolog3_catch

; 370  : 	_DEBUG_RANGE(_First, _Last);
; 371  : 	_DEBUG_POINTER(_Dest);
; 372  : 	_FwdIt _Next = _Dest;

  0000c	8b 45 10	 mov	 eax, DWORD PTR __Dest$[ebp]

; 373  : 
; 374  : 	_TRY_BEGIN

  0000f	83 65 fc 00	 and	 DWORD PTR __$EHRec$[ebp+12], 0
  00013	89 45 ec	 mov	 DWORD PTR __Next$[ebp], eax

; 375  : 	for (; _First != _Last; ++_Dest, ++_First)

$LL14@Uninit_cop@3:
  00016	8b 45 08	 mov	 eax, DWORD PTR __First$[ebp]
  00019	3b 45 0c	 cmp	 eax, DWORD PTR __Last$[ebp]
  0001c	74 34		 je	 SHORT $LN4@Uninit_cop@3

; 376  : 		_Cons_val(_Al, _Dest, *_First);

  0001e	50		 push	 eax
  0001f	ff 75 10	 push	 DWORD PTR __Dest$[ebp]
  00022	e8 00 00 00 00	 call	 ??$_Construct@UWeaponInfo@@ABU1@@std@@YAXPAUWeaponInfo@@ABU1@@Z ; std::_Construct<WeaponInfo,WeaponInfo const &>
  00027	83 45 10 28	 add	 DWORD PTR __Dest$[ebp], 40 ; 00000028H
  0002b	83 45 08 28	 add	 DWORD PTR __First$[ebp], 40 ; 00000028H
  0002f	59		 pop	 ecx
  00030	59		 pop	 ecx
  00031	eb e3		 jmp	 SHORT $LL14@Uninit_cop@3
__catch$??$_Uninit_copy@V?$_Vector_const_iterator@V?$_Vector_val@UWeaponInfo@@V?$allocator@UWeaponInfo@@@std@@@std@@@std@@PAUWeaponInfo@@V?$allocator@UWeaponInfo@@@2@@std@@YAPAUWeaponInfo@@V?$_Vector_const_iterator@V?$_Vector_val@UWeaponInfo@@V?$allocator@UWeaponInfo@@@std@@@std@@@0@0PAU1@AAV?$allocator@UWeaponInfo@@@0@U_Nonscalar_ptr_iterator_tag@0@@Z$0:

; 377  : 	_CATCH_ALL
; 378  : 	for (; _Next != _Dest; ++_Next)

  00033	8b 75 ec	 mov	 esi, DWORD PTR __Next$[ebp]
  00036	eb 0c		 jmp	 SHORT $LN48@Uninit_cop@3
$LL3@Uninit_cop@3:

; 379  : 		_Dest_val(_Al, _Next);

  00038	8d 4e 08	 lea	 ecx, DWORD PTR [esi+8]
  0003b	ff 15 00 00 00
	00		 call	 DWORD PTR __imp_??1ioHashString@@QAE@XZ
  00041	83 c6 28	 add	 esi, 40			; 00000028H
$LN48@Uninit_cop@3:

; 377  : 	_CATCH_ALL
; 378  : 	for (; _Next != _Dest; ++_Next)

  00044	3b 75 10	 cmp	 esi, DWORD PTR __Dest$[ebp]
  00047	75 ef		 jne	 SHORT $LL3@Uninit_cop@3

; 380  : 	_RERAISE;

  00049	6a 00		 push	 0
  0004b	6a 00		 push	 0
  0004d	e8 00 00 00 00	 call	 __CxxThrowException@8
$LN49@Uninit_cop@3:
$LN4@Uninit_cop@3:

; 381  : 	_CATCH_END
; 382  : 	return (_Dest);

  00052	8b 45 10	 mov	 eax, DWORD PTR __Dest$[ebp]

; 383  : 	}

  00055	e8 00 00 00 00	 call	 __EH_epilog3
  0005a	c3		 ret	 0
$LN47@Uninit_cop@3:
_TEXT	ENDS
;	COMDAT text$x
text$x	SEGMENT
__ehhandler$??$_Uninit_copy@V?$_Vector_const_iterator@V?$_Vector_val@UWeaponInfo@@V?$allocator@UWeaponInfo@@@std@@@std@@@std@@PAUWeaponInfo@@V?$allocator@UWeaponInfo@@@2@@std@@YAPAUWeaponInfo@@V?$_Vector_const_iterator@V?$_Vector_val@UWeaponInfo@@V?$allocator@UWeaponInfo@@@std@@@std@@@0@0PAU1@AAV?$allocator@UWeaponInfo@@@0@U_Nonscalar_ptr_iterator_tag@0@@Z:
  00000	8b 54 24 08	 mov	 edx, DWORD PTR [esp+8]
  00004	8d 42 0c	 lea	 eax, DWORD PTR [edx+12]
  00007	8b 4a e8	 mov	 ecx, DWORD PTR [edx-24]
  0000a	33 c8		 xor	 ecx, eax
  0000c	e8 00 00 00 00	 call	 @__security_check_cookie@4
  00011	b8 00 00 00 00	 mov	 eax, OFFSET __ehfuncinfo$??$_Uninit_copy@V?$_Vector_const_iterator@V?$_Vector_val@UWeaponInfo@@V?$allocator@UWeaponInfo@@@std@@@std@@@std@@PAUWeaponInfo@@V?$allocator@UWeaponInfo@@@2@@std@@YAPAUWeaponInfo@@V?$_Vector_const_iterator@V?$_Vector_val@UWeaponInfo@@V?$allocator@UWeaponInfo@@@std@@@std@@@0@0PAU1@AAV?$allocator@UWeaponInfo@@@0@U_Nonscalar_ptr_iterator_tag@0@@Z
  00016	e9 00 00 00 00	 jmp	 ___CxxFrameHandler3
text$x	ENDS
??$_Uninit_copy@V?$_Vector_const_iterator@V?$_Vector_val@UWeaponInfo@@V?$allocator@UWeaponInfo@@@std@@@std@@@std@@PAUWeaponInfo@@V?$allocator@UWeaponInfo@@@2@@std@@YAPAUWeaponInfo@@V?$_Vector_const_iterator@V?$_Vector_val@UWeaponInfo@@V?$allocator@UWeaponInfo@@@std@@@std@@@0@0PAU1@AAV?$allocator@UWeaponInfo@@@0@U_Nonscalar_ptr_iterator_tag@0@@Z ENDP ; std::_Uninit_copy<std::_Vector_const_iterator<std::_Vector_val<WeaponInfo,std::allocator<WeaponInfo> > >,WeaponInfo *,std::allocator<WeaponInfo> >
PUBLIC	??$_Uninit_move@PAVioHashString@@PAV1@V?$allocator@VioHashString@@@std@@V1@@std@@YAPAVioHashString@@PAV1@00AAV?$allocator@VioHashString@@@0@0U_Nonscalar_ptr_iterator_tag@0@@Z ; std::_Uninit_move<ioHashString *,ioHashString *,std::allocator<ioHashString>,ioHashString>
;	COMDAT xdata$x
; File c:\program files (x86)\microsoft visual studio 10.0\vc\include\vector
xdata$x	SEGMENT
__catchsym$??$_Uninit_move@PAVioHashString@@PAV1@V?$allocator@VioHashString@@@std@@V1@@std@@YAPAVioHashString@@PAV1@00AAV?$allocator@VioHashString@@@0@0U_Nonscalar_ptr_iterator_tag@0@@Z$2 DD 040H
	DD	00H
	DD	00H
	DD	FLAT:__catch$??$_Uninit_move@PAVioHashString@@PAV1@V?$allocator@VioHashString@@@std@@V1@@std@@YAPAVioHashString@@PAV1@00AAV?$allocator@VioHashString@@@0@0U_Nonscalar_ptr_iterator_tag@0@@Z$0
__unwindtable$??$_Uninit_move@PAVioHashString@@PAV1@V?$allocator@VioHashString@@@std@@V1@@std@@YAPAVioHashString@@PAV1@00AAV?$allocator@VioHashString@@@0@0U_Nonscalar_ptr_iterator_tag@0@@Z DD 0ffffffffH
	DD	00H
	DD	0ffffffffH
	DD	00H
__tryblocktable$??$_Uninit_move@PAVioHashString@@PAV1@V?$allocator@VioHashString@@@std@@V1@@std@@YAPAVioHashString@@PAV1@00AAV?$allocator@VioHashString@@@0@0U_Nonscalar_ptr_iterator_tag@0@@Z DD 00H
	DD	00H
	DD	01H
	DD	01H
	DD	FLAT:__catchsym$??$_Uninit_move@PAVioHashString@@PAV1@V?$allocator@VioHashString@@@std@@V1@@std@@YAPAVioHashString@@PAV1@00AAV?$allocator@VioHashString@@@0@0U_Nonscalar_ptr_iterator_tag@0@@Z$2
__ehfuncinfo$??$_Uninit_move@PAVioHashString@@PAV1@V?$allocator@VioHashString@@@std@@V1@@std@@YAPAVioHashString@@PAV1@00AAV?$allocator@VioHashString@@@0@0U_Nonscalar_ptr_iterator_tag@0@@Z DD 019930522H
	DD	02H
	DD	FLAT:__unwindtable$??$_Uninit_move@PAVioHashString@@PAV1@V?$allocator@VioHashString@@@std@@V1@@std@@YAPAVioHashString@@PAV1@00AAV?$allocator@VioHashString@@@0@0U_Nonscalar_ptr_iterator_tag@0@@Z
	DD	01H
	DD	FLAT:__tryblocktable$??$_Uninit_move@PAVioHashString@@PAV1@V?$allocator@VioHashString@@@std@@V1@@std@@YAPAVioHashString@@PAV1@00AAV?$allocator@VioHashString@@@0@0U_Nonscalar_ptr_iterator_tag@0@@Z
	DD	2 DUP(00H)
	DD	00H
	DD	01H
; Function compile flags: /Ogsp
; File c:\program files (x86)\microsoft visual studio 10.0\vc\include\memory
xdata$x	ENDS
;	COMDAT ??$_Uninit_move@PAVioHashString@@PAV1@V?$allocator@VioHashString@@@std@@V1@@std@@YAPAVioHashString@@PAV1@00AAV?$allocator@VioHashString@@@0@0U_Nonscalar_ptr_iterator_tag@0@@Z
_TEXT	SEGMENT
__Next$ = -20						; size = 4
__$EHRec$ = -16						; size = 16
__First$ = 8						; size = 4
__Last$ = 12						; size = 4
__Dest$ = 16						; size = 4
__Al$ = 20						; size = 4
___formal$ = 24						; size = 4
___formal$ = 28						; size = 1
??$_Uninit_move@PAVioHashString@@PAV1@V?$allocator@VioHashString@@@std@@V1@@std@@YAPAVioHashString@@PAV1@00AAV?$allocator@VioHashString@@@0@0U_Nonscalar_ptr_iterator_tag@0@@Z PROC ; std::_Uninit_move<ioHashString *,ioHashString *,std::allocator<ioHashString>,ioHashString>, COMDAT

; 424  : 	{	// move [_First, _Last) to raw _Dest, using _Al, arbitrary type

  00000	6a 08		 push	 8
  00002	b8 00 00 00 00	 mov	 eax, __ehhandler$??$_Uninit_move@PAVioHashString@@PAV1@V?$allocator@VioHashString@@@std@@V1@@std@@YAPAVioHashString@@PAV1@00AAV?$allocator@VioHashString@@@0@0U_Nonscalar_ptr_iterator_tag@0@@Z
  00007	e8 00 00 00 00	 call	 __EH_prolog3_catch

; 425  : 	_DEBUG_RANGE(_First, _Last);
; 426  : 	_DEBUG_POINTER(_Dest);
; 427  : 	_FwdIt _Next = _Dest;

  0000c	8b 45 10	 mov	 eax, DWORD PTR __Dest$[ebp]

; 428  : 
; 429  : 	_TRY_BEGIN

  0000f	83 65 fc 00	 and	 DWORD PTR __$EHRec$[ebp+12], 0
  00013	8b 75 08	 mov	 esi, DWORD PTR __First$[ebp]
  00016	89 45 ec	 mov	 DWORD PTR __Next$[ebp], eax
$LL6@Uninit_mov:

; 430  : 	for (; _First != _Last; ++_Dest, ++_First)

  00019	3b 75 0c	 cmp	 esi, DWORD PTR __Last$[ebp]
  0001c	74 33		 je	 SHORT $LN4@Uninit_mov

; 431  : 		_Cons_val(_Al, _Dest, (_Valty &&)*_First);

  0001e	8b 4d 14	 mov	 ecx, DWORD PTR __Al$[ebp]
  00021	56		 push	 esi
  00022	ff 75 10	 push	 DWORD PTR __Dest$[ebp]
  00025	e8 00 00 00 00	 call	 ?construct@?$allocator@VioHashString@@@std@@QAEXPAVioHashString@@$$QAV3@@Z ; std::allocator<ioHashString>::construct
  0002a	83 45 10 10	 add	 DWORD PTR __Dest$[ebp], 16 ; 00000010H
  0002e	83 c6 10	 add	 esi, 16			; 00000010H
  00031	eb e6		 jmp	 SHORT $LL6@Uninit_mov
__catch$??$_Uninit_move@PAVioHashString@@PAV1@V?$allocator@VioHashString@@@std@@V1@@std@@YAPAVioHashString@@PAV1@00AAV?$allocator@VioHashString@@@0@0U_Nonscalar_ptr_iterator_tag@0@@Z$0:

; 432  : 	_CATCH_ALL
; 433  : 	for (; _Next != _Dest; ++_Next)

  00033	8b 75 ec	 mov	 esi, DWORD PTR __Next$[ebp]
  00036	eb 0b		 jmp	 SHORT $LN33@Uninit_mov
$LL3@Uninit_mov:

; 434  : 		_Dest_val(_Al, _Next);

  00038	8b ce		 mov	 ecx, esi
  0003a	ff 15 00 00 00
	00		 call	 DWORD PTR __imp_??1ioHashString@@QAE@XZ
  00040	83 c6 10	 add	 esi, 16			; 00000010H
$LN33@Uninit_mov:

; 432  : 	_CATCH_ALL
; 433  : 	for (; _Next != _Dest; ++_Next)

  00043	3b 75 10	 cmp	 esi, DWORD PTR __Dest$[ebp]
  00046	75 f0		 jne	 SHORT $LL3@Uninit_mov

; 435  : 	_RERAISE;

  00048	6a 00		 push	 0
  0004a	6a 00		 push	 0
  0004c	e8 00 00 00 00	 call	 __CxxThrowException@8
$LN34@Uninit_mov:
$LN4@Uninit_mov:

; 436  : 	_CATCH_END
; 437  : 	return (_Dest);

  00051	8b 45 10	 mov	 eax, DWORD PTR __Dest$[ebp]

; 438  : 	}

  00054	e8 00 00 00 00	 call	 __EH_epilog3
  00059	c3		 ret	 0
$LN32@Uninit_mov:
_TEXT	ENDS
;	COMDAT text$x
text$x	SEGMENT
__ehhandler$??$_Uninit_move@PAVioHashString@@PAV1@V?$allocator@VioHashString@@@std@@V1@@std@@YAPAVioHashString@@PAV1@00AAV?$allocator@VioHashString@@@0@0U_Nonscalar_ptr_iterator_tag@0@@Z:
  00000	8b 54 24 08	 mov	 edx, DWORD PTR [esp+8]
  00004	8d 42 0c	 lea	 eax, DWORD PTR [edx+12]
  00007	8b 4a e8	 mov	 ecx, DWORD PTR [edx-24]
  0000a	33 c8		 xor	 ecx, eax
  0000c	e8 00 00 00 00	 call	 @__security_check_cookie@4
  00011	b8 00 00 00 00	 mov	 eax, OFFSET __ehfuncinfo$??$_Uninit_move@PAVioHashString@@PAV1@V?$allocator@VioHashString@@@std@@V1@@std@@YAPAVioHashString@@PAV1@00AAV?$allocator@VioHashString@@@0@0U_Nonscalar_ptr_iterator_tag@0@@Z
  00016	e9 00 00 00 00	 jmp	 ___CxxFrameHandler3
text$x	ENDS
??$_Uninit_move@PAVioHashString@@PAV1@V?$allocator@VioHashString@@@std@@V1@@std@@YAPAVioHashString@@PAV1@00AAV?$allocator@VioHashString@@@0@0U_Nonscalar_ptr_iterator_tag@0@@Z ENDP ; std::_Uninit_move<ioHashString *,ioHashString *,std::allocator<ioHashString>,ioHashString>
PUBLIC	??1?$vector@KV?$allocator@K@std@@@std@@QAE@XZ	; std::vector<unsigned long,std::allocator<unsigned long> >::~vector<unsigned long,std::allocator<unsigned long> >
; Function compile flags: /Ogsp
; File c:\program files (x86)\microsoft visual studio 10.0\vc\include\vector
;	COMDAT ??1?$vector@KV?$allocator@K@std@@@std@@QAE@XZ
_TEXT	SEGMENT
??1?$vector@KV?$allocator@K@std@@@std@@QAE@XZ PROC	; std::vector<unsigned long,std::allocator<unsigned long> >::~vector<unsigned long,std::allocator<unsigned long> >, COMDAT
; _this$ = ecx

; 705  : 		_Tidy();

  00000	e9 00 00 00 00	 jmp	 ?_Tidy@?$vector@KV?$allocator@K@std@@@std@@IAEXXZ ; std::vector<unsigned long,std::allocator<unsigned long> >::_Tidy
??1?$vector@KV?$allocator@K@std@@@std@@QAE@XZ ENDP	; std::vector<unsigned long,std::allocator<unsigned long> >::~vector<unsigned long,std::allocator<unsigned long> >
_TEXT	ENDS
PUBLIC	?_Reserve@?$vector@KV?$allocator@K@std@@@std@@IAEXI@Z ; std::vector<unsigned long,std::allocator<unsigned long> >::_Reserve
; Function compile flags: /Ogsp
;	COMDAT ?_Reserve@?$vector@KV?$allocator@K@std@@@std@@IAEXI@Z
_TEXT	SEGMENT
__Count$ = 8						; size = 4
?_Reserve@?$vector@KV?$allocator@K@std@@@std@@IAEXI@Z PROC ; std::vector<unsigned long,std::allocator<unsigned long> >::_Reserve, COMDAT
; _this$ = ecx

; 1290 : 		{	// ensure room for _Count new elements, grow exponentially

  00000	55		 push	 ebp
  00001	8b ec		 mov	 ebp, esp
  00003	56		 push	 esi
  00004	8b f1		 mov	 esi, ecx

; 1291 : 		size_type _Size = size();

  00006	8b 0e		 mov	 ecx, DWORD PTR [esi]
  00008	8b 46 04	 mov	 eax, DWORD PTR [esi+4]
  0000b	2b c1		 sub	 eax, ecx

; 1292 : 		if (max_size() - _Count < _Size)

  0000d	ba ff ff ff 3f	 mov	 edx, 1073741823		; 3fffffffH
  00012	2b 55 08	 sub	 edx, DWORD PTR __Count$[ebp]
  00015	c1 f8 02	 sar	 eax, 2
  00018	3b d0		 cmp	 edx, eax
  0001a	73 0b		 jae	 SHORT $LN4@Reserve

; 1293 : 			_Xlen();

  0001c	68 00 00 00 00	 push	 OFFSET ??_C@_0BD@OLBABOEK@vector?$DMT?$DO?5too?5long?$AA@
  00021	ff 15 00 00 00
	00		 call	 DWORD PTR __imp_?_Xlength_error@std@@YAXPBD@Z
$LN21@Reserve:
$LN4@Reserve:

; 1294 : 		else if ((_Size += _Count) <= capacity())

  00027	8b 56 08	 mov	 edx, DWORD PTR [esi+8]
  0002a	03 45 08	 add	 eax, DWORD PTR __Count$[ebp]
  0002d	2b d1		 sub	 edx, ecx
  0002f	c1 fa 02	 sar	 edx, 2
  00032	3b c2		 cmp	 eax, edx
  00034	76 10		 jbe	 SHORT $LN1@Reserve

; 1295 : 			;
; 1296 : 		else
; 1297 : 			reserve(_Grow_to(_Size));

  00036	50		 push	 eax
  00037	8b ce		 mov	 ecx, esi
  00039	e8 00 00 00 00	 call	 ?_Grow_to@?$vector@KV?$allocator@K@std@@@std@@IBEII@Z ; std::vector<unsigned long,std::allocator<unsigned long> >::_Grow_to
  0003e	50		 push	 eax
  0003f	8b ce		 mov	 ecx, esi
  00041	e8 00 00 00 00	 call	 ?reserve@?$vector@KV?$allocator@K@std@@@std@@QAEXI@Z ; std::vector<unsigned long,std::allocator<unsigned long> >::reserve
$LN1@Reserve:
  00046	5e		 pop	 esi

; 1298 : 		}

  00047	5d		 pop	 ebp
  00048	c2 04 00	 ret	 4
$LN20@Reserve:
?_Reserve@?$vector@KV?$allocator@K@std@@@std@@IAEXI@Z ENDP ; std::vector<unsigned long,std::allocator<unsigned long> >::_Reserve
_TEXT	ENDS
PUBLIC	??$_Destroy_range@V?$allocator@UForceInfo@@@std@@@std@@YAXPAUForceInfo@@0AAV?$allocator@UForceInfo@@@0@@Z ; std::_Destroy_range<std::allocator<ForceInfo> >
; Function compile flags: /Ogsp
; File c:\program files (x86)\microsoft visual studio 10.0\vc\include\xmemory
;	COMDAT ??$_Destroy_range@V?$allocator@UForceInfo@@@std@@@std@@YAXPAUForceInfo@@0AAV?$allocator@UForceInfo@@@0@@Z
_TEXT	SEGMENT
__First$ = 8						; size = 4
__Last$ = 12						; size = 4
__Al$ = 16						; size = 4
??$_Destroy_range@V?$allocator@UForceInfo@@@std@@@std@@YAXPAUForceInfo@@0AAV?$allocator@UForceInfo@@@0@@Z PROC ; std::_Destroy_range<std::allocator<ForceInfo> >, COMDAT

; 88   : 	_Destroy_range(_First, _Last, _Al, _Ptr_cat(_First, _Last));
; 89   : 	}

  00000	c3		 ret	 0
??$_Destroy_range@V?$allocator@UForceInfo@@@std@@@std@@YAXPAUForceInfo@@0AAV?$allocator@UForceInfo@@@0@@Z ENDP ; std::_Destroy_range<std::allocator<ForceInfo> >
_TEXT	ENDS
PUBLIC	??$_Destroy_range@V?$allocator@VioHashString@@@std@@@std@@YAXPAVioHashString@@0AAV?$allocator@VioHashString@@@0@U_Nonscalar_ptr_iterator_tag@0@@Z ; std::_Destroy_range<std::allocator<ioHashString> >
; Function compile flags: /Ogsp
;	COMDAT ??$_Destroy_range@V?$allocator@VioHashString@@@std@@@std@@YAXPAVioHashString@@0AAV?$allocator@VioHashString@@@0@U_Nonscalar_ptr_iterator_tag@0@@Z
_TEXT	SEGMENT
__First$ = 8						; size = 4
__Last$ = 12						; size = 4
__Al$ = 16						; size = 4
___formal$ = 20						; size = 1
??$_Destroy_range@V?$allocator@VioHashString@@@std@@@std@@YAXPAVioHashString@@0AAV?$allocator@VioHashString@@@0@U_Nonscalar_ptr_iterator_tag@0@@Z PROC ; std::_Destroy_range<std::allocator<ioHashString> >, COMDAT

; 95   : 	{	// destroy [_First, _Last), arbitrary type

  00000	55		 push	 ebp
  00001	8b ec		 mov	 ebp, esp
  00003	56		 push	 esi

; 96   : 	for (; _First != _Last; ++_First)

  00004	8b 75 08	 mov	 esi, DWORD PTR __First$[ebp]
  00007	eb 0b		 jmp	 SHORT $LN17@Destroy_ra
$LL3@Destroy_ra:

; 97   : 		_Dest_val(_Al, _First);

  00009	8b ce		 mov	 ecx, esi
  0000b	ff 15 00 00 00
	00		 call	 DWORD PTR __imp_??1ioHashString@@QAE@XZ
  00011	83 c6 10	 add	 esi, 16			; 00000010H
$LN17@Destroy_ra:

; 96   : 	for (; _First != _Last; ++_First)

  00014	3b 75 0c	 cmp	 esi, DWORD PTR __Last$[ebp]
  00017	75 f0		 jne	 SHORT $LL3@Destroy_ra
  00019	5e		 pop	 esi

; 98   : 	}

  0001a	5d		 pop	 ebp
  0001b	c3		 ret	 0
??$_Destroy_range@V?$allocator@VioHashString@@@std@@@std@@YAXPAVioHashString@@0AAV?$allocator@VioHashString@@@0@U_Nonscalar_ptr_iterator_tag@0@@Z ENDP ; std::_Destroy_range<std::allocator<ioHashString> >
_TEXT	ENDS
PUBLIC	??$_Destroy_range@V?$allocator@UWeaponInfo@@@std@@@std@@YAXPAUWeaponInfo@@0AAV?$allocator@UWeaponInfo@@@0@U_Nonscalar_ptr_iterator_tag@0@@Z ; std::_Destroy_range<std::allocator<WeaponInfo> >
; Function compile flags: /Ogsp
;	COMDAT ??$_Destroy_range@V?$allocator@UWeaponInfo@@@std@@@std@@YAXPAUWeaponInfo@@0AAV?$allocator@UWeaponInfo@@@0@U_Nonscalar_ptr_iterator_tag@0@@Z
_TEXT	SEGMENT
__First$ = 8						; size = 4
__Last$ = 12						; size = 4
__Al$ = 16						; size = 4
___formal$ = 20						; size = 1
??$_Destroy_range@V?$allocator@UWeaponInfo@@@std@@@std@@YAXPAUWeaponInfo@@0AAV?$allocator@UWeaponInfo@@@0@U_Nonscalar_ptr_iterator_tag@0@@Z PROC ; std::_Destroy_range<std::allocator<WeaponInfo> >, COMDAT

; 95   : 	{	// destroy [_First, _Last), arbitrary type

  00000	55		 push	 ebp
  00001	8b ec		 mov	 ebp, esp
  00003	56		 push	 esi

; 96   : 	for (; _First != _Last; ++_First)

  00004	8b 75 08	 mov	 esi, DWORD PTR __First$[ebp]
  00007	eb 0c		 jmp	 SHORT $LN20@Destroy_ra@2
$LL3@Destroy_ra@2:

; 97   : 		_Dest_val(_Al, _First);

  00009	8d 4e 08	 lea	 ecx, DWORD PTR [esi+8]
  0000c	ff 15 00 00 00
	00		 call	 DWORD PTR __imp_??1ioHashString@@QAE@XZ
  00012	83 c6 28	 add	 esi, 40			; 00000028H
$LN20@Destroy_ra@2:

; 96   : 	for (; _First != _Last; ++_First)

  00015	3b 75 0c	 cmp	 esi, DWORD PTR __Last$[ebp]
  00018	75 ef		 jne	 SHORT $LL3@Destroy_ra@2
  0001a	5e		 pop	 esi

; 98   : 	}

  0001b	5d		 pop	 ebp
  0001c	c3		 ret	 0
??$_Destroy_range@V?$allocator@UWeaponInfo@@@std@@@std@@YAXPAUWeaponInfo@@0AAV?$allocator@UWeaponInfo@@@0@U_Nonscalar_ptr_iterator_tag@0@@Z ENDP ; std::_Destroy_range<std::allocator<WeaponInfo> >
_TEXT	ENDS
PUBLIC	?push_back@?$vector@KV?$allocator@K@std@@@std@@QAEX$$QAK@Z ; std::vector<unsigned long,std::allocator<unsigned long> >::push_back
; Function compile flags: /Ogsp
; File c:\program files (x86)\microsoft visual studio 10.0\vc\include\vector
;	COMDAT ?push_back@?$vector@KV?$allocator@K@std@@@std@@QAEX$$QAK@Z
_TEXT	SEGMENT
__Val$ = 8						; size = 4
?push_back@?$vector@KV?$allocator@K@std@@@std@@QAEX$$QAK@Z PROC ; std::vector<unsigned long,std::allocator<unsigned long> >::push_back, COMDAT
; _this$ = ecx

; 631  : 		{	// insert element at end

  00000	55		 push	 ebp
  00001	8b ec		 mov	 ebp, esp
  00003	56		 push	 esi
  00004	8b f1		 mov	 esi, ecx

; 632  : 		if (_Inside(_STD addressof(_Val)))

  00006	8b 46 04	 mov	 eax, DWORD PTR [esi+4]
  00009	57		 push	 edi
  0000a	8b 7d 08	 mov	 edi, DWORD PTR __Val$[ebp]
  0000d	3b f8		 cmp	 edi, eax
  0000f	73 27		 jae	 SHORT $LN4@push_back
  00011	8b 0e		 mov	 ecx, DWORD PTR [esi]
  00013	3b cf		 cmp	 ecx, edi
  00015	77 21		 ja	 SHORT $LN4@push_back

; 633  : 			{	// push back an element
; 634  : 			size_type _Idx = _STD addressof(_Val) - this->_Myfirst;

  00017	2b f9		 sub	 edi, ecx
  00019	c1 ff 02	 sar	 edi, 2

; 635  : 			if (this->_Mylast == this->_Myend)

  0001c	3b 46 08	 cmp	 eax, DWORD PTR [esi+8]
  0001f	75 09		 jne	 SHORT $LN3@push_back

; 636  : 				_Reserve(1);

  00021	6a 01		 push	 1
  00023	8b ce		 mov	 ecx, esi
  00025	e8 00 00 00 00	 call	 ?_Reserve@?$vector@KV?$allocator@K@std@@@std@@IAEXI@Z ; std::vector<unsigned long,std::allocator<unsigned long> >::_Reserve
$LN3@push_back:

; 637  : 			_Orphan_range(this->_Mylast, this->_Mylast);
; 638  : 			_Cons_val(this->_Alval,
; 639  : 				this->_Mylast,
; 640  : 				_STD forward<_Ty>(this->_Myfirst[_Idx]));

  0002a	8b 46 04	 mov	 eax, DWORD PTR [esi+4]
  0002d	85 c0		 test	 eax, eax
  0002f	74 20		 je	 SHORT $LN41@push_back
  00031	8b 0e		 mov	 ecx, DWORD PTR [esi]
  00033	8b 0c b9	 mov	 ecx, DWORD PTR [ecx+edi*4]

; 641  : 			++this->_Mylast;
; 642  : 			}
; 643  : 		else

  00036	eb 17		 jmp	 SHORT $LN48@push_back
$LN4@push_back:

; 644  : 			{	// push back a non-element
; 645  : 			if (this->_Mylast == this->_Myend)

  00038	3b 46 08	 cmp	 eax, DWORD PTR [esi+8]
  0003b	75 09		 jne	 SHORT $LN1@push_back

; 646  : 				_Reserve(1);

  0003d	6a 01		 push	 1
  0003f	8b ce		 mov	 ecx, esi
  00041	e8 00 00 00 00	 call	 ?_Reserve@?$vector@KV?$allocator@K@std@@@std@@IAEXI@Z ; std::vector<unsigned long,std::allocator<unsigned long> >::_Reserve
$LN1@push_back:

; 647  : 			_Orphan_range(this->_Mylast, this->_Mylast);
; 648  : 			_Cons_val(this->_Alval,
; 649  : 				this->_Mylast,
; 650  : 				_STD forward<_Ty>(_Val));

  00046	8b 46 04	 mov	 eax, DWORD PTR [esi+4]
  00049	85 c0		 test	 eax, eax
  0004b	74 04		 je	 SHORT $LN41@push_back
  0004d	8b 0f		 mov	 ecx, DWORD PTR [edi]
$LN48@push_back:
  0004f	89 08		 mov	 DWORD PTR [eax], ecx
$LN41@push_back:

; 651  : 			++this->_Mylast;

  00051	83 46 04 04	 add	 DWORD PTR [esi+4], 4
  00055	5f		 pop	 edi
  00056	5e		 pop	 esi

; 652  : 			}
; 653  : 		}

  00057	5d		 pop	 ebp
  00058	c2 04 00	 ret	 4
?push_back@?$vector@KV?$allocator@K@std@@@std@@QAEX$$QAK@Z ENDP ; std::vector<unsigned long,std::allocator<unsigned long> >::push_back
_TEXT	ENDS
PUBLIC	??$_Ucopy@V?$_Vector_const_iterator@V?$_Vector_val@UForceInfo@@V?$allocator@UForceInfo@@@std@@@std@@@std@@@?$vector@UForceInfo@@V?$allocator@UForceInfo@@@std@@@std@@IAEPAUForceInfo@@V?$_Vector_const_iterator@V?$_Vector_val@UForceInfo@@V?$allocator@UForceInfo@@@std@@@std@@@1@0PAU2@@Z ; std::vector<ForceInfo,std::allocator<ForceInfo> >::_Ucopy<std::_Vector_const_iterator<std::_Vector_val<ForceInfo,std::allocator<ForceInfo> > > >
; Function compile flags: /Ogsp
;	COMDAT ??$_Ucopy@V?$_Vector_const_iterator@V?$_Vector_val@UForceInfo@@V?$allocator@UForceInfo@@@std@@@std@@@std@@@?$vector@UForceInfo@@V?$allocator@UForceInfo@@@std@@@std@@IAEPAUForceInfo@@V?$_Vector_const_iterator@V?$_Vector_val@UForceInfo@@V?$allocator@UForceInfo@@@std@@@std@@@1@0PAU2@@Z
_TEXT	SEGMENT
__First$ = 8						; size = 4
__Last$ = 12						; size = 4
__Cat$557781 = 16					; size = 1
__Ptr$ = 16						; size = 4
??$_Ucopy@V?$_Vector_const_iterator@V?$_Vector_val@UForceInfo@@V?$allocator@UForceInfo@@@std@@@std@@@std@@@?$vector@UForceInfo@@V?$allocator@UForceInfo@@@std@@@std@@IAEPAUForceInfo@@V?$_Vector_const_iterator@V?$_Vector_val@UForceInfo@@V?$allocator@UForceInfo@@@std@@@std@@@1@0PAU2@@Z PROC ; std::vector<ForceInfo,std::allocator<ForceInfo> >::_Ucopy<std::_Vector_const_iterator<std::_Vector_val<ForceInfo,std::allocator<ForceInfo> > > >, COMDAT
; _this$ = ecx

; 1315 : 		pointer _Ucopy(_Iter _First, _Iter _Last, pointer _Ptr)

  00000	55		 push	 ebp
  00001	8b ec		 mov	 ebp, esp

; 1316 : 		{	// copy initializing [_First, _Last), using allocator
; 1317 : 		return (_Uninitialized_copy(_First, _Last,
; 1318 : 			_Ptr, this->_Alval));

  00003	ff 75 10	 push	 DWORD PTR __Cat$557781[ebp]
  00006	83 c1 0c	 add	 ecx, 12			; 0000000cH
  00009	51		 push	 ecx
  0000a	ff 75 10	 push	 DWORD PTR __Ptr$[ebp]
  0000d	ff 75 0c	 push	 DWORD PTR __Last$[ebp]
  00010	ff 75 08	 push	 DWORD PTR __First$[ebp]
  00013	e8 00 00 00 00	 call	 ??$_Uninit_copy@V?$_Vector_const_iterator@V?$_Vector_val@UForceInfo@@V?$allocator@UForceInfo@@@std@@@std@@@std@@PAUForceInfo@@V?$allocator@UForceInfo@@@2@@std@@YAPAUForceInfo@@V?$_Vector_const_iterator@V?$_Vector_val@UForceInfo@@V?$allocator@UForceInfo@@@std@@@std@@@0@0PAU1@AAV?$allocator@UForceInfo@@@0@U_Nonscalar_ptr_iterator_tag@0@@Z ; std::_Uninit_copy<std::_Vector_const_iterator<std::_Vector_val<ForceInfo,std::allocator<ForceInfo> > >,ForceInfo *,std::allocator<ForceInfo> >
  00018	83 c4 14	 add	 esp, 20			; 00000014H

; 1319 : 		}

  0001b	5d		 pop	 ebp
  0001c	c2 0c 00	 ret	 12			; 0000000cH
??$_Ucopy@V?$_Vector_const_iterator@V?$_Vector_val@UForceInfo@@V?$allocator@UForceInfo@@@std@@@std@@@std@@@?$vector@UForceInfo@@V?$allocator@UForceInfo@@@std@@@std@@IAEPAUForceInfo@@V?$_Vector_const_iterator@V?$_Vector_val@UForceInfo@@V?$allocator@UForceInfo@@@std@@@std@@@1@0PAU2@@Z ENDP ; std::vector<ForceInfo,std::allocator<ForceInfo> >::_Ucopy<std::_Vector_const_iterator<std::_Vector_val<ForceInfo,std::allocator<ForceInfo> > > >
_TEXT	ENDS
PUBLIC	??$_Uninitialized_copy@PAVioHashString@@PAV1@V?$allocator@VioHashString@@@std@@@std@@YAPAVioHashString@@PAV1@00AAV?$allocator@VioHashString@@@0@@Z ; std::_Uninitialized_copy<ioHashString *,ioHashString *,std::allocator<ioHashString> >
; Function compile flags: /Ogsp
; File c:\program files (x86)\microsoft visual studio 10.0\vc\include\memory
;	COMDAT ??$_Uninitialized_copy@PAVioHashString@@PAV1@V?$allocator@VioHashString@@@std@@@std@@YAPAVioHashString@@PAV1@00AAV?$allocator@VioHashString@@@0@@Z
_TEXT	SEGMENT
__Cat$557790 = -4					; size = 1
__First$ = 8						; size = 4
__Last$ = 12						; size = 4
__Dest$ = 16						; size = 4
__Al$ = 20						; size = 4
??$_Uninitialized_copy@PAVioHashString@@PAV1@V?$allocator@VioHashString@@@std@@@std@@YAPAVioHashString@@PAV1@00AAV?$allocator@VioHashString@@@0@@Z PROC ; std::_Uninitialized_copy<ioHashString *,ioHashString *,std::allocator<ioHashString> >, COMDAT

; 412  : 	{	// copy [_First, _Last) to raw _Dest, using _Al

  00000	55		 push	 ebp
  00001	8b ec		 mov	 ebp, esp
  00003	51		 push	 ecx

; 413  : 	return (_Uninit_copy(_First, _Last, _Dest, _Al,
; 414  : 		_Ptr_cat(_First, _Dest)));

  00004	ff 75 fc	 push	 DWORD PTR __Cat$557790[ebp]
  00007	ff 75 14	 push	 DWORD PTR __Al$[ebp]
  0000a	ff 75 10	 push	 DWORD PTR __Dest$[ebp]
  0000d	ff 75 0c	 push	 DWORD PTR __Last$[ebp]
  00010	ff 75 08	 push	 DWORD PTR __First$[ebp]
  00013	e8 00 00 00 00	 call	 ??$_Uninit_copy@PAVioHashString@@PAV1@V?$allocator@VioHashString@@@std@@@std@@YAPAVioHashString@@PAV1@00AAV?$allocator@VioHashString@@@0@U_Nonscalar_ptr_iterator_tag@0@@Z ; std::_Uninit_copy<ioHashString *,ioHashString *,std::allocator<ioHashString> >
  00018	83 c4 14	 add	 esp, 20			; 00000014H

; 415  : 	}

  0001b	c9		 leave
  0001c	c3		 ret	 0
??$_Uninitialized_copy@PAVioHashString@@PAV1@V?$allocator@VioHashString@@@std@@@std@@YAPAVioHashString@@PAV1@00AAV?$allocator@VioHashString@@@0@@Z ENDP ; std::_Uninitialized_copy<ioHashString *,ioHashString *,std::allocator<ioHashString> >
_TEXT	ENDS
PUBLIC	??$_Uninitialized_copy@V?$_Vector_const_iterator@V?$_Vector_val@UWeaponInfo@@V?$allocator@UWeaponInfo@@@std@@@std@@@std@@PAUWeaponInfo@@V?$allocator@UWeaponInfo@@@2@@std@@YAPAUWeaponInfo@@V?$_Vector_const_iterator@V?$_Vector_val@UWeaponInfo@@V?$allocator@UWeaponInfo@@@std@@@std@@@0@0PAU1@AAV?$allocator@UWeaponInfo@@@0@@Z ; std::_Uninitialized_copy<std::_Vector_const_iterator<std::_Vector_val<WeaponInfo,std::allocator<WeaponInfo> > >,WeaponInfo *,std::allocator<WeaponInfo> >
; Function compile flags: /Ogsp
;	COMDAT ??$_Uninitialized_copy@V?$_Vector_const_iterator@V?$_Vector_val@UWeaponInfo@@V?$allocator@UWeaponInfo@@@std@@@std@@@std@@PAUWeaponInfo@@V?$allocator@UWeaponInfo@@@2@@std@@YAPAUWeaponInfo@@V?$_Vector_const_iterator@V?$_Vector_val@UWeaponInfo@@V?$allocator@UWeaponInfo@@@std@@@std@@@0@0PAU1@AAV?$allocator@UWeaponInfo@@@0@@Z
_TEXT	SEGMENT
__Cat$557798 = -4					; size = 1
__First$ = 8						; size = 4
__Last$ = 12						; size = 4
__Dest$ = 16						; size = 4
__Al$ = 20						; size = 4
??$_Uninitialized_copy@V?$_Vector_const_iterator@V?$_Vector_val@UWeaponInfo@@V?$allocator@UWeaponInfo@@@std@@@std@@@std@@PAUWeaponInfo@@V?$allocator@UWeaponInfo@@@2@@std@@YAPAUWeaponInfo@@V?$_Vector_const_iterator@V?$_Vector_val@UWeaponInfo@@V?$allocator@UWeaponInfo@@@std@@@std@@@0@0PAU1@AAV?$allocator@UWeaponInfo@@@0@@Z PROC ; std::_Uninitialized_copy<std::_Vector_const_iterator<std::_Vector_val<WeaponInfo,std::allocator<WeaponInfo> > >,WeaponInfo *,std::allocator<WeaponInfo> >, COMDAT

; 412  : 	{	// copy [_First, _Last) to raw _Dest, using _Al

  00000	55		 push	 ebp
  00001	8b ec		 mov	 ebp, esp
  00003	51		 push	 ecx

; 413  : 	return (_Uninit_copy(_First, _Last, _Dest, _Al,
; 414  : 		_Ptr_cat(_First, _Dest)));

  00004	ff 75 fc	 push	 DWORD PTR __Cat$557798[ebp]
  00007	ff 75 14	 push	 DWORD PTR __Al$[ebp]
  0000a	ff 75 10	 push	 DWORD PTR __Dest$[ebp]
  0000d	ff 75 0c	 push	 DWORD PTR __Last$[ebp]
  00010	ff 75 08	 push	 DWORD PTR __First$[ebp]
  00013	e8 00 00 00 00	 call	 ??$_Uninit_copy@V?$_Vector_const_iterator@V?$_Vector_val@UWeaponInfo@@V?$allocator@UWeaponInfo@@@std@@@std@@@std@@PAUWeaponInfo@@V?$allocator@UWeaponInfo@@@2@@std@@YAPAUWeaponInfo@@V?$_Vector_const_iterator@V?$_Vector_val@UWeaponInfo@@V?$allocator@UWeaponInfo@@@std@@@std@@@0@0PAU1@AAV?$allocator@UWeaponInfo@@@0@U_Nonscalar_ptr_iterator_tag@0@@Z ; std::_Uninit_copy<std::_Vector_const_iterator<std::_Vector_val<WeaponInfo,std::allocator<WeaponInfo> > >,WeaponInfo *,std::allocator<WeaponInfo> >
  00018	83 c4 14	 add	 esp, 20			; 00000014H

; 415  : 	}

  0001b	c9		 leave
  0001c	c3		 ret	 0
??$_Uninitialized_copy@V?$_Vector_const_iterator@V?$_Vector_val@UWeaponInfo@@V?$allocator@UWeaponInfo@@@std@@@std@@@std@@PAUWeaponInfo@@V?$allocator@UWeaponInfo@@@2@@std@@YAPAUWeaponInfo@@V?$_Vector_const_iterator@V?$_Vector_val@UWeaponInfo@@V?$allocator@UWeaponInfo@@@std@@@std@@@0@0PAU1@AAV?$allocator@UWeaponInfo@@@0@@Z ENDP ; std::_Uninitialized_copy<std::_Vector_const_iterator<std::_Vector_val<WeaponInfo,std::allocator<WeaponInfo> > >,WeaponInfo *,std::allocator<WeaponInfo> >
_TEXT	ENDS
PUBLIC	??$_Uninitialized_move@PAVioHashString@@PAV1@V?$allocator@VioHashString@@@std@@@std@@YAPAVioHashString@@PAV1@00AAV?$allocator@VioHashString@@@0@@Z ; std::_Uninitialized_move<ioHashString *,ioHashString *,std::allocator<ioHashString> >
; Function compile flags: /Ogsp
;	COMDAT ??$_Uninitialized_move@PAVioHashString@@PAV1@V?$allocator@VioHashString@@@std@@@std@@YAPAVioHashString@@PAV1@00AAV?$allocator@VioHashString@@@0@@Z
_TEXT	SEGMENT
__Cat$557804 = -4					; size = 1
__First$ = 8						; size = 4
__Last$ = 12						; size = 4
__Dest$ = 16						; size = 4
__Al$ = 20						; size = 4
??$_Uninitialized_move@PAVioHashString@@PAV1@V?$allocator@VioHashString@@@std@@@std@@YAPAVioHashString@@PAV1@00AAV?$allocator@VioHashString@@@0@@Z PROC ; std::_Uninitialized_move<ioHashString *,ioHashString *,std::allocator<ioHashString> >, COMDAT

; 469  : 	{	// move [_First, _Last) to raw _Dest, using _Al

  00000	55		 push	 ebp
  00001	8b ec		 mov	 ebp, esp
  00003	51		 push	 ecx

; 470  : 	return (_Uninit_move(_First, _Last, _Dest, _Al,
; 471  : 		_Val_type(_First), _Ptr_cat(_First, _Dest)));

  00004	ff 75 fc	 push	 DWORD PTR __Cat$557804[ebp]
  00007	6a 00		 push	 0
  00009	ff 75 14	 push	 DWORD PTR __Al$[ebp]
  0000c	ff 75 10	 push	 DWORD PTR __Dest$[ebp]
  0000f	ff 75 0c	 push	 DWORD PTR __Last$[ebp]
  00012	ff 75 08	 push	 DWORD PTR __First$[ebp]
  00015	e8 00 00 00 00	 call	 ??$_Uninit_move@PAVioHashString@@PAV1@V?$allocator@VioHashString@@@std@@V1@@std@@YAPAVioHashString@@PAV1@00AAV?$allocator@VioHashString@@@0@0U_Nonscalar_ptr_iterator_tag@0@@Z ; std::_Uninit_move<ioHashString *,ioHashString *,std::allocator<ioHashString>,ioHashString>
  0001a	83 c4 18	 add	 esp, 24			; 00000018H

; 472  : 	}

  0001d	c9		 leave
  0001e	c3		 ret	 0
??$_Uninitialized_move@PAVioHashString@@PAV1@V?$allocator@VioHashString@@@std@@@std@@YAPAVioHashString@@PAV1@00AAV?$allocator@VioHashString@@@0@@Z ENDP ; std::_Uninitialized_move<ioHashString *,ioHashString *,std::allocator<ioHashString> >
_TEXT	ENDS
PUBLIC	?_Destroy@?$vector@UForceInfo@@V?$allocator@UForceInfo@@@std@@@std@@IAEXPAUForceInfo@@0@Z ; std::vector<ForceInfo,std::allocator<ForceInfo> >::_Destroy
; Function compile flags: /Ogsp
; File c:\program files (x86)\microsoft visual studio 10.0\vc\include\vector
;	COMDAT ?_Destroy@?$vector@UForceInfo@@V?$allocator@UForceInfo@@@std@@@std@@IAEXPAUForceInfo@@0@Z
_TEXT	SEGMENT
__First$ = 8						; size = 4
__Last$ = 12						; size = 4
?_Destroy@?$vector@UForceInfo@@V?$allocator@UForceInfo@@@std@@@std@@IAEXPAUForceInfo@@0@Z PROC ; std::vector<ForceInfo,std::allocator<ForceInfo> >::_Destroy, COMDAT
; _this$ = ecx

; 1270 : 		_Destroy_range(_First, _Last, this->_Alval);
; 1271 : 		}

  00000	c2 08 00	 ret	 8
?_Destroy@?$vector@UForceInfo@@V?$allocator@UForceInfo@@@std@@@std@@IAEXPAUForceInfo@@0@Z ENDP ; std::vector<ForceInfo,std::allocator<ForceInfo> >::_Destroy
_TEXT	ENDS
PUBLIC	??$_Destroy_range@V?$allocator@VioHashString@@@std@@@std@@YAXPAVioHashString@@0AAV?$allocator@VioHashString@@@0@@Z ; std::_Destroy_range<std::allocator<ioHashString> >
; Function compile flags: /Ogsp
; File c:\program files (x86)\microsoft visual studio 10.0\vc\include\xmemory
;	COMDAT ??$_Destroy_range@V?$allocator@VioHashString@@@std@@@std@@YAXPAVioHashString@@0AAV?$allocator@VioHashString@@@0@@Z
_TEXT	SEGMENT
__First$ = 8						; size = 4
__Last$ = 12						; size = 4
__Al$ = 16						; size = 4
??$_Destroy_range@V?$allocator@VioHashString@@@std@@@std@@YAXPAVioHashString@@0AAV?$allocator@VioHashString@@@0@@Z PROC ; std::_Destroy_range<std::allocator<ioHashString> >, COMDAT

; 87   : 	{	// destroy [_First, _Last)

  00000	55		 push	 ebp
  00001	8b ec		 mov	 ebp, esp
  00003	56		 push	 esi

; 88   : 	_Destroy_range(_First, _Last, _Al, _Ptr_cat(_First, _Last));

  00004	8b 75 08	 mov	 esi, DWORD PTR __First$[ebp]
  00007	eb 0b		 jmp	 SHORT $LN21@Destroy_ra@3
$LL7@Destroy_ra@3:
  00009	8b ce		 mov	 ecx, esi
  0000b	ff 15 00 00 00
	00		 call	 DWORD PTR __imp_??1ioHashString@@QAE@XZ
  00011	83 c6 10	 add	 esi, 16			; 00000010H
$LN21@Destroy_ra@3:
  00014	3b 75 0c	 cmp	 esi, DWORD PTR __Last$[ebp]
  00017	75 f0		 jne	 SHORT $LL7@Destroy_ra@3
  00019	5e		 pop	 esi

; 89   : 	}

  0001a	5d		 pop	 ebp
  0001b	c3		 ret	 0
??$_Destroy_range@V?$allocator@VioHashString@@@std@@@std@@YAXPAVioHashString@@0AAV?$allocator@VioHashString@@@0@@Z ENDP ; std::_Destroy_range<std::allocator<ioHashString> >
_TEXT	ENDS
PUBLIC	??$_Destroy_range@V?$allocator@UWeaponInfo@@@std@@@std@@YAXPAUWeaponInfo@@0AAV?$allocator@UWeaponInfo@@@0@@Z ; std::_Destroy_range<std::allocator<WeaponInfo> >
; Function compile flags: /Ogsp
;	COMDAT ??$_Destroy_range@V?$allocator@UWeaponInfo@@@std@@@std@@YAXPAUWeaponInfo@@0AAV?$allocator@UWeaponInfo@@@0@@Z
_TEXT	SEGMENT
__First$ = 8						; size = 4
__Last$ = 12						; size = 4
__Al$ = 16						; size = 4
??$_Destroy_range@V?$allocator@UWeaponInfo@@@std@@@std@@YAXPAUWeaponInfo@@0AAV?$allocator@UWeaponInfo@@@0@@Z PROC ; std::_Destroy_range<std::allocator<WeaponInfo> >, COMDAT

; 87   : 	{	// destroy [_First, _Last)

  00000	55		 push	 ebp
  00001	8b ec		 mov	 ebp, esp
  00003	56		 push	 esi

; 88   : 	_Destroy_range(_First, _Last, _Al, _Ptr_cat(_First, _Last));

  00004	8b 75 08	 mov	 esi, DWORD PTR __First$[ebp]
  00007	eb 0c		 jmp	 SHORT $LN24@Destroy_ra@4
$LL7@Destroy_ra@4:
  00009	8d 4e 08	 lea	 ecx, DWORD PTR [esi+8]
  0000c	ff 15 00 00 00
	00		 call	 DWORD PTR __imp_??1ioHashString@@QAE@XZ
  00012	83 c6 28	 add	 esi, 40			; 00000028H
$LN24@Destroy_ra@4:
  00015	3b 75 0c	 cmp	 esi, DWORD PTR __Last$[ebp]
  00018	75 ef		 jne	 SHORT $LL7@Destroy_ra@4
  0001a	5e		 pop	 esi

; 89   : 	}

  0001b	5d		 pop	 ebp
  0001c	c3		 ret	 0
??$_Destroy_range@V?$allocator@UWeaponInfo@@@std@@@std@@YAXPAUWeaponInfo@@0AAV?$allocator@UWeaponInfo@@@0@@Z ENDP ; std::_Destroy_range<std::allocator<WeaponInfo> >
_TEXT	ENDS
PUBLIC	?ApplyAttributeToWeapon@ioSpaceMasterAttack@@UAEXPAVioWeapon@@PAVioPlayStage@@@Z ; ioSpaceMasterAttack::ApplyAttributeToWeapon
EXTRN	?ApplyAttributeToWeapon@ioSkill@@UAEXPAVioWeapon@@PAVioPlayStage@@@Z:PROC ; ioSkill::ApplyAttributeToWeapon
; Function compile flags: /Ogsp
; File d:\lost saga for developer\youtube\tutorial\source\src\lsclient\iospacemasterattack.cpp
;	COMDAT ?ApplyAttributeToWeapon@ioSpaceMasterAttack@@UAEXPAVioWeapon@@PAVioPlayStage@@@Z
_TEXT	SEGMENT
_pWeapon$ = 8						; size = 4
$T557989 = 12						; size = 4
_pStage$ = 12						; size = 4
_value$558002 = 15					; size = 1
?ApplyAttributeToWeapon@ioSpaceMasterAttack@@UAEXPAVioWeapon@@PAVioPlayStage@@@Z PROC ; ioSpaceMasterAttack::ApplyAttributeToWeapon, COMDAT
; _this$ = ecx

; 696  : {

  00000	55		 push	 ebp
  00001	8b ec		 mov	 ebp, esp
  00003	56		 push	 esi
  00004	57		 push	 edi

; 697  : 	ioAttackSkill::ApplyAttributeToWeapon( pWeapon, pStage );

  00005	ff 75 0c	 push	 DWORD PTR _pStage$[ebp]
  00008	8b 7d 08	 mov	 edi, DWORD PTR _pWeapon$[ebp]
  0000b	57		 push	 edi
  0000c	8b f1		 mov	 esi, ecx
  0000e	e8 00 00 00 00	 call	 ?ApplyAttributeToWeapon@ioSkill@@UAEXPAVioWeapon@@PAVioPlayStage@@@Z ; ioSkill::ApplyAttributeToWeapon

; 698  : 
; 699  : 	if( pWeapon )

  00013	85 ff		 test	 edi, edi
  00015	74 5b		 je	 SHORT $LN1@ApplyAttri

; 700  : 	{
; 701  : 		ioSelectPositionMoveWeapon* pSelect = ToSelectPositionMoveWeapon( pWeapon );

  00017	57		 push	 edi
  00018	e8 00 00 00 00	 call	 ?ToSelectPositionMoveWeapon@@YAPAVioSelectPositionMoveWeapon@@PAVioWeapon@@@Z ; ToSelectPositionMoveWeapon
  0001d	59		 pop	 ecx

; 702  : 		if( pSelect && pSelect->GetWeaponStyle() == ioSelectPositionMoveWeapon::WS_SPACE_MASTER && m_dwSelectWeaponIdx == 0 )

  0001e	85 c0		 test	 eax, eax
  00020	74 27		 je	 SHORT $LN2@ApplyAttri
  00022	83 b8 98 08 00
	00 01		 cmp	 DWORD PTR [eax+2200], 1
  00029	75 1e		 jne	 SHORT $LN2@ApplyAttri
  0002b	83 be a8 11 00
	00 00		 cmp	 DWORD PTR [esi+4520], 0
  00032	75 15		 jne	 SHORT $LN2@ApplyAttri

; 703  : 		{
; 704  : 			pSelect->SetDisableMove( true );

  00034	8d 4d 0f	 lea	 ecx, DWORD PTR _value$558002[ebp]
  00037	51		 push	 ecx
  00038	8d 88 18 0a 00
	00		 lea	 ecx, DWORD PTR [eax+2584]
  0003e	c6 45 0f 01	 mov	 BYTE PTR _value$558002[ebp], 1
  00042	e8 00 00 00 00	 call	 ?EncryptValueToPool@?$CEncrypt@_N@@AAEXPBD@Z ; CEncrypt<bool>::EncryptValueToPool

; 705  : 		}
; 706  : 		else

  00047	eb 29		 jmp	 SHORT $LN1@ApplyAttri
$LN2@ApplyAttri:

; 707  : 		{
; 708  : 			m_MissileWeaponList.push_back( pWeapon->GetWeaponIndex() );

  00049	8b 87 b8 04 00
	00		 mov	 eax, DWORD PTR [edi+1208]
  0004f	89 45 0c	 mov	 DWORD PTR $T557989[ebp], eax
  00052	8d 45 0c	 lea	 eax, DWORD PTR $T557989[ebp]
  00055	50		 push	 eax
  00056	8d 8e ac 11 00
	00		 lea	 ecx, DWORD PTR [esi+4524]
  0005c	e8 00 00 00 00	 call	 ?push_back@?$vector@KV?$allocator@K@std@@@std@@QAEX$$QAK@Z ; std::vector<unsigned long,std::allocator<unsigned long> >::push_back

; 709  : 			pWeapon->SetMoveDir( m_vAutoTargetDir );

  00061	8b 07		 mov	 eax, DWORD PTR [edi]
  00063	81 c6 00 11 00
	00		 add	 esi, 4352		; 00001100H
  00069	56		 push	 esi
  0006a	8b cf		 mov	 ecx, edi
  0006c	ff 90 b0 00 00
	00		 call	 DWORD PTR [eax+176]
$LN1@ApplyAttri:
  00072	5f		 pop	 edi
  00073	5e		 pop	 esi

; 710  : 		}
; 711  : 	}
; 712  : }

  00074	5d		 pop	 ebp
  00075	c2 08 00	 ret	 8
?ApplyAttributeToWeapon@ioSpaceMasterAttack@@UAEXPAVioWeapon@@PAVioPlayStage@@@Z ENDP ; ioSpaceMasterAttack::ApplyAttributeToWeapon
_TEXT	ENDS
PUBLIC	??$_Ucopy@PAVioHashString@@@?$vector@VioHashString@@V?$allocator@VioHashString@@@std@@@std@@IAEPAVioHashString@@PAV2@00@Z ; std::vector<ioHashString,std::allocator<ioHashString> >::_Ucopy<ioHashString *>
; Function compile flags: /Ogsp
; File c:\program files (x86)\microsoft visual studio 10.0\vc\include\vector
;	COMDAT ??$_Ucopy@PAVioHashString@@@?$vector@VioHashString@@V?$allocator@VioHashString@@@std@@@std@@IAEPAVioHashString@@PAV2@00@Z
_TEXT	SEGMENT
__First$ = 8						; size = 4
__Last$ = 12						; size = 4
__Cat$558020 = 16					; size = 1
__Ptr$ = 16						; size = 4
??$_Ucopy@PAVioHashString@@@?$vector@VioHashString@@V?$allocator@VioHashString@@@std@@@std@@IAEPAVioHashString@@PAV2@00@Z PROC ; std::vector<ioHashString,std::allocator<ioHashString> >::_Ucopy<ioHashString *>, COMDAT
; _this$ = ecx

; 1315 : 		pointer _Ucopy(_Iter _First, _Iter _Last, pointer _Ptr)

  00000	55		 push	 ebp
  00001	8b ec		 mov	 ebp, esp

; 1316 : 		{	// copy initializing [_First, _Last), using allocator
; 1317 : 		return (_Uninitialized_copy(_First, _Last,
; 1318 : 			_Ptr, this->_Alval));

  00003	ff 75 10	 push	 DWORD PTR __Cat$558020[ebp]
  00006	83 c1 0c	 add	 ecx, 12			; 0000000cH
  00009	51		 push	 ecx
  0000a	ff 75 10	 push	 DWORD PTR __Ptr$[ebp]
  0000d	ff 75 0c	 push	 DWORD PTR __Last$[ebp]
  00010	ff 75 08	 push	 DWORD PTR __First$[ebp]
  00013	e8 00 00 00 00	 call	 ??$_Uninit_copy@PAVioHashString@@PAV1@V?$allocator@VioHashString@@@std@@@std@@YAPAVioHashString@@PAV1@00AAV?$allocator@VioHashString@@@0@U_Nonscalar_ptr_iterator_tag@0@@Z ; std::_Uninit_copy<ioHashString *,ioHashString *,std::allocator<ioHashString> >
  00018	83 c4 14	 add	 esp, 20			; 00000014H

; 1319 : 		}

  0001b	5d		 pop	 ebp
  0001c	c2 0c 00	 ret	 12			; 0000000cH
??$_Ucopy@PAVioHashString@@@?$vector@VioHashString@@V?$allocator@VioHashString@@@std@@@std@@IAEPAVioHashString@@PAV2@00@Z ENDP ; std::vector<ioHashString,std::allocator<ioHashString> >::_Ucopy<ioHashString *>
_TEXT	ENDS
PUBLIC	??$_Ucopy@V?$_Vector_const_iterator@V?$_Vector_val@UWeaponInfo@@V?$allocator@UWeaponInfo@@@std@@@std@@@std@@@?$vector@UWeaponInfo@@V?$allocator@UWeaponInfo@@@std@@@std@@IAEPAUWeaponInfo@@V?$_Vector_const_iterator@V?$_Vector_val@UWeaponInfo@@V?$allocator@UWeaponInfo@@@std@@@std@@@1@0PAU2@@Z ; std::vector<WeaponInfo,std::allocator<WeaponInfo> >::_Ucopy<std::_Vector_const_iterator<std::_Vector_val<WeaponInfo,std::allocator<WeaponInfo> > > >
; Function compile flags: /Ogsp
;	COMDAT ??$_Ucopy@V?$_Vector_const_iterator@V?$_Vector_val@UWeaponInfo@@V?$allocator@UWeaponInfo@@@std@@@std@@@std@@@?$vector@UWeaponInfo@@V?$allocator@UWeaponInfo@@@std@@@std@@IAEPAUWeaponInfo@@V?$_Vector_const_iterator@V?$_Vector_val@UWeaponInfo@@V?$allocator@UWeaponInfo@@@std@@@std@@@1@0PAU2@@Z
_TEXT	SEGMENT
__First$ = 8						; size = 4
__Last$ = 12						; size = 4
__Cat$558034 = 16					; size = 1
__Ptr$ = 16						; size = 4
??$_Ucopy@V?$_Vector_const_iterator@V?$_Vector_val@UWeaponInfo@@V?$allocator@UWeaponInfo@@@std@@@std@@@std@@@?$vector@UWeaponInfo@@V?$allocator@UWeaponInfo@@@std@@@std@@IAEPAUWeaponInfo@@V?$_Vector_const_iterator@V?$_Vector_val@UWeaponInfo@@V?$allocator@UWeaponInfo@@@std@@@std@@@1@0PAU2@@Z PROC ; std::vector<WeaponInfo,std::allocator<WeaponInfo> >::_Ucopy<std::_Vector_const_iterator<std::_Vector_val<WeaponInfo,std::allocator<WeaponInfo> > > >, COMDAT
; _this$ = ecx

; 1315 : 		pointer _Ucopy(_Iter _First, _Iter _Last, pointer _Ptr)

  00000	55		 push	 ebp
  00001	8b ec		 mov	 ebp, esp

; 1316 : 		{	// copy initializing [_First, _Last), using allocator
; 1317 : 		return (_Uninitialized_copy(_First, _Last,
; 1318 : 			_Ptr, this->_Alval));

  00003	ff 75 10	 push	 DWORD PTR __Cat$558034[ebp]
  00006	83 c1 0c	 add	 ecx, 12			; 0000000cH
  00009	51		 push	 ecx
  0000a	ff 75 10	 push	 DWORD PTR __Ptr$[ebp]
  0000d	ff 75 0c	 push	 DWORD PTR __Last$[ebp]
  00010	ff 75 08	 push	 DWORD PTR __First$[ebp]
  00013	e8 00 00 00 00	 call	 ??$_Uninit_copy@V?$_Vector_const_iterator@V?$_Vector_val@UWeaponInfo@@V?$allocator@UWeaponInfo@@@std@@@std@@@std@@PAUWeaponInfo@@V?$allocator@UWeaponInfo@@@2@@std@@YAPAUWeaponInfo@@V?$_Vector_const_iterator@V?$_Vector_val@UWeaponInfo@@V?$allocator@UWeaponInfo@@@std@@@std@@@0@0PAU1@AAV?$allocator@UWeaponInfo@@@0@U_Nonscalar_ptr_iterator_tag@0@@Z ; std::_Uninit_copy<std::_Vector_const_iterator<std::_Vector_val<WeaponInfo,std::allocator<WeaponInfo> > >,WeaponInfo *,std::allocator<WeaponInfo> >
  00018	83 c4 14	 add	 esp, 20			; 00000014H

; 1319 : 		}

  0001b	5d		 pop	 ebp
  0001c	c2 0c 00	 ret	 12			; 0000000cH
??$_Ucopy@V?$_Vector_const_iterator@V?$_Vector_val@UWeaponInfo@@V?$allocator@UWeaponInfo@@@std@@@std@@@std@@@?$vector@UWeaponInfo@@V?$allocator@UWeaponInfo@@@std@@@std@@IAEPAUWeaponInfo@@V?$_Vector_const_iterator@V?$_Vector_val@UWeaponInfo@@V?$allocator@UWeaponInfo@@@std@@@std@@@1@0PAU2@@Z ENDP ; std::vector<WeaponInfo,std::allocator<WeaponInfo> >::_Ucopy<std::_Vector_const_iterator<std::_Vector_val<WeaponInfo,std::allocator<WeaponInfo> > > >
_TEXT	ENDS
PUBLIC	??$_Umove@PAVioHashString@@@?$vector@VioHashString@@V?$allocator@VioHashString@@@std@@@std@@IAEPAVioHashString@@PAV2@00@Z ; std::vector<ioHashString,std::allocator<ioHashString> >::_Umove<ioHashString *>
; Function compile flags: /Ogsp
;	COMDAT ??$_Umove@PAVioHashString@@@?$vector@VioHashString@@V?$allocator@VioHashString@@@std@@@std@@IAEPAVioHashString@@PAV2@00@Z
_TEXT	SEGMENT
__First$ = 8						; size = 4
__Last$ = 12						; size = 4
__Ptr$ = 16						; size = 4
??$_Umove@PAVioHashString@@@?$vector@VioHashString@@V?$allocator@VioHashString@@@std@@@std@@IAEPAVioHashString@@PAV2@00@Z PROC ; std::vector<ioHashString,std::allocator<ioHashString> >::_Umove<ioHashString *>, COMDAT
; _this$ = ecx

; 1322 : 		pointer _Umove(_Iter _First, _Iter _Last, pointer _Ptr)

  00000	55		 push	 ebp
  00001	8b ec		 mov	 ebp, esp

; 1323 : 		{	// move initializing [_First, _Last), using allocator
; 1324 : 		return (_Uninitialized_move(_First, _Last,
; 1325 : 			_Ptr, this->_Alval));

  00003	83 c1 0c	 add	 ecx, 12			; 0000000cH
  00006	51		 push	 ecx
  00007	ff 75 10	 push	 DWORD PTR __Ptr$[ebp]
  0000a	ff 75 0c	 push	 DWORD PTR __Last$[ebp]
  0000d	ff 75 08	 push	 DWORD PTR __First$[ebp]
  00010	e8 00 00 00 00	 call	 ??$_Uninitialized_move@PAVioHashString@@PAV1@V?$allocator@VioHashString@@@std@@@std@@YAPAVioHashString@@PAV1@00AAV?$allocator@VioHashString@@@0@@Z ; std::_Uninitialized_move<ioHashString *,ioHashString *,std::allocator<ioHashString> >
  00015	83 c4 10	 add	 esp, 16			; 00000010H

; 1326 : 		}

  00018	5d		 pop	 ebp
  00019	c2 0c 00	 ret	 12			; 0000000cH
??$_Umove@PAVioHashString@@@?$vector@VioHashString@@V?$allocator@VioHashString@@@std@@@std@@IAEPAVioHashString@@PAV2@00@Z ENDP ; std::vector<ioHashString,std::allocator<ioHashString> >::_Umove<ioHashString *>
_TEXT	ENDS
PUBLIC	?_Tidy@?$vector@UForceInfo@@V?$allocator@UForceInfo@@@std@@@std@@IAEXXZ ; std::vector<ForceInfo,std::allocator<ForceInfo> >::_Tidy
; Function compile flags: /Ogsp
;	COMDAT ?_Tidy@?$vector@UForceInfo@@V?$allocator@UForceInfo@@@std@@@std@@IAEXXZ
_TEXT	SEGMENT
?_Tidy@?$vector@UForceInfo@@V?$allocator@UForceInfo@@@std@@@std@@IAEXXZ PROC ; std::vector<ForceInfo,std::allocator<ForceInfo> >::_Tidy, COMDAT
; _this$ = ecx

; 1301 : 		{	// free all storage

  00000	56		 push	 esi
  00001	8b f1		 mov	 esi, ecx

; 1302 : 		if (this->_Myfirst != 0)

  00003	83 3e 00	 cmp	 DWORD PTR [esi], 0
  00006	74 0e		 je	 SHORT $LN21@Tidy@2

; 1303 : 			{	// something to free, destroy and deallocate it
; 1304 : 			this->_Orphan_all();

  00008	ff 15 00 00 00
	00		 call	 DWORD PTR __imp_?_Orphan_all@_Container_base0@std@@QAEXXZ

; 1305 : 			_Destroy(this->_Myfirst, this->_Mylast);
; 1306 : 			this->_Alval.deallocate(this->_Myfirst,
; 1307 : 				this->_Myend - this->_Myfirst);

  0000e	ff 36		 push	 DWORD PTR [esi]
  00010	e8 00 00 00 00	 call	 ??3@YAXPAX@Z		; operator delete
  00015	59		 pop	 ecx
$LN21@Tidy@2:

; 1308 : 			}
; 1309 : 		this->_Myfirst = 0;

  00016	83 26 00	 and	 DWORD PTR [esi], 0

; 1310 : 		this->_Mylast = 0;

  00019	83 66 04 00	 and	 DWORD PTR [esi+4], 0

; 1311 : 		this->_Myend = 0;

  0001d	83 66 08 00	 and	 DWORD PTR [esi+8], 0
  00021	5e		 pop	 esi

; 1312 : 		}

  00022	c3		 ret	 0
?_Tidy@?$vector@UForceInfo@@V?$allocator@UForceInfo@@@std@@@std@@IAEXXZ ENDP ; std::vector<ForceInfo,std::allocator<ForceInfo> >::_Tidy
_TEXT	ENDS
PUBLIC	?_Destroy@?$vector@VioHashString@@V?$allocator@VioHashString@@@std@@@std@@IAEXPAVioHashString@@0@Z ; std::vector<ioHashString,std::allocator<ioHashString> >::_Destroy
; Function compile flags: /Ogsp
;	COMDAT ?_Destroy@?$vector@VioHashString@@V?$allocator@VioHashString@@@std@@@std@@IAEXPAVioHashString@@0@Z
_TEXT	SEGMENT
__First$ = 8						; size = 4
__Last$ = 12						; size = 4
?_Destroy@?$vector@VioHashString@@V?$allocator@VioHashString@@@std@@@std@@IAEXPAVioHashString@@0@Z PROC ; std::vector<ioHashString,std::allocator<ioHashString> >::_Destroy, COMDAT
; _this$ = ecx

; 1269 : 		{	// destroy [_First, _Last) using allocator

  00000	55		 push	 ebp
  00001	8b ec		 mov	 ebp, esp
  00003	56		 push	 esi

; 1270 : 		_Destroy_range(_First, _Last, this->_Alval);

  00004	8b 75 08	 mov	 esi, DWORD PTR __First$[ebp]
  00007	eb 0b		 jmp	 SHORT $LN23@Destroy
$LL9@Destroy:
  00009	8b ce		 mov	 ecx, esi
  0000b	ff 15 00 00 00
	00		 call	 DWORD PTR __imp_??1ioHashString@@QAE@XZ
  00011	83 c6 10	 add	 esi, 16			; 00000010H
$LN23@Destroy:
  00014	3b 75 0c	 cmp	 esi, DWORD PTR __Last$[ebp]
  00017	75 f0		 jne	 SHORT $LL9@Destroy
  00019	5e		 pop	 esi

; 1271 : 		}

  0001a	5d		 pop	 ebp
  0001b	c2 08 00	 ret	 8
?_Destroy@?$vector@VioHashString@@V?$allocator@VioHashString@@@std@@@std@@IAEXPAVioHashString@@0@Z ENDP ; std::vector<ioHashString,std::allocator<ioHashString> >::_Destroy
_TEXT	ENDS
PUBLIC	?_Destroy@?$vector@UWeaponInfo@@V?$allocator@UWeaponInfo@@@std@@@std@@IAEXPAUWeaponInfo@@0@Z ; std::vector<WeaponInfo,std::allocator<WeaponInfo> >::_Destroy
; Function compile flags: /Ogsp
;	COMDAT ?_Destroy@?$vector@UWeaponInfo@@V?$allocator@UWeaponInfo@@@std@@@std@@IAEXPAUWeaponInfo@@0@Z
_TEXT	SEGMENT
__First$ = 8						; size = 4
__Last$ = 12						; size = 4
?_Destroy@?$vector@UWeaponInfo@@V?$allocator@UWeaponInfo@@@std@@@std@@IAEXPAUWeaponInfo@@0@Z PROC ; std::vector<WeaponInfo,std::allocator<WeaponInfo> >::_Destroy, COMDAT
; _this$ = ecx

; 1269 : 		{	// destroy [_First, _Last) using allocator

  00000	55		 push	 ebp
  00001	8b ec		 mov	 ebp, esp

; 1270 : 		_Destroy_range(_First, _Last, this->_Alval);

  00003	83 c1 0c	 add	 ecx, 12			; 0000000cH
  00006	51		 push	 ecx
  00007	ff 75 0c	 push	 DWORD PTR __Last$[ebp]
  0000a	ff 75 08	 push	 DWORD PTR __First$[ebp]
  0000d	e8 00 00 00 00	 call	 ??$_Destroy_range@V?$allocator@UWeaponInfo@@@std@@@std@@YAXPAUWeaponInfo@@0AAV?$allocator@UWeaponInfo@@@0@@Z ; std::_Destroy_range<std::allocator<WeaponInfo> >
  00012	83 c4 0c	 add	 esp, 12			; 0000000cH

; 1271 : 		}

  00015	5d		 pop	 ebp
  00016	c2 08 00	 ret	 8
?_Destroy@?$vector@UWeaponInfo@@V?$allocator@UWeaponInfo@@@std@@@std@@IAEXPAUWeaponInfo@@0@Z ENDP ; std::vector<WeaponInfo,std::allocator<WeaponInfo> >::_Destroy
_TEXT	ENDS
PUBLIC	??0?$vector@UForceInfo@@V?$allocator@UForceInfo@@@std@@@std@@QAE@ABV01@@Z ; std::vector<ForceInfo,std::allocator<ForceInfo> >::vector<ForceInfo,std::allocator<ForceInfo> >
;	COMDAT xdata$x
; File c:\program files (x86)\microsoft visual studio 10.0\vc\include\xutility
xdata$x	SEGMENT
__catchsym$??0?$vector@UForceInfo@@V?$allocator@UForceInfo@@@std@@@std@@QAE@ABV01@@Z$2 DD 040H
	DD	00H
	DD	00H
	DD	FLAT:__catch$??0?$vector@UForceInfo@@V?$allocator@UForceInfo@@@std@@@std@@QAE@ABV01@@Z$0
__unwindtable$??0?$vector@UForceInfo@@V?$allocator@UForceInfo@@@std@@@std@@QAE@ABV01@@Z DD 0ffffffffH
	DD	00H
	DD	0ffffffffH
	DD	00H
__tryblocktable$??0?$vector@UForceInfo@@V?$allocator@UForceInfo@@@std@@@std@@QAE@ABV01@@Z DD 00H
	DD	00H
	DD	01H
	DD	01H
	DD	FLAT:__catchsym$??0?$vector@UForceInfo@@V?$allocator@UForceInfo@@@std@@@std@@QAE@ABV01@@Z$2
__ehfuncinfo$??0?$vector@UForceInfo@@V?$allocator@UForceInfo@@@std@@@std@@QAE@ABV01@@Z DD 019930522H
	DD	02H
	DD	FLAT:__unwindtable$??0?$vector@UForceInfo@@V?$allocator@UForceInfo@@@std@@@std@@QAE@ABV01@@Z
	DD	01H
	DD	FLAT:__tryblocktable$??0?$vector@UForceInfo@@V?$allocator@UForceInfo@@@std@@@std@@QAE@ABV01@@Z
	DD	2 DUP(00H)
	DD	00H
	DD	01H
; Function compile flags: /Ogsp
; File c:\program files (x86)\microsoft visual studio 10.0\vc\include\vector
xdata$x	ENDS
;	COMDAT ??0?$vector@UForceInfo@@V?$allocator@UForceInfo@@@std@@@std@@QAE@ABV01@@Z
_TEXT	SEGMENT
_this$ = -20						; size = 4
__$EHRec$ = -16						; size = 16
__Cat$558276 = 8					; size = 1
__Right$ = 8						; size = 4
??0?$vector@UForceInfo@@V?$allocator@UForceInfo@@@std@@@std@@QAE@ABV01@@Z PROC ; std::vector<ForceInfo,std::allocator<ForceInfo> >::vector<ForceInfo,std::allocator<ForceInfo> >, COMDAT
; _this$ = ecx

; 535  : 		{	// construct by copying _Right

  00000	6a 08		 push	 8
  00002	b8 00 00 00 00	 mov	 eax, __ehhandler$??0?$vector@UForceInfo@@V?$allocator@UForceInfo@@@std@@@std@@QAE@ABV01@@Z
  00007	e8 00 00 00 00	 call	 __EH_prolog3_catch
  0000c	8b f1		 mov	 esi, ecx
  0000e	89 75 ec	 mov	 DWORD PTR _this$[ebp], esi

; 536  : 		if (_Buy(_Right.size()))

  00011	8b 7d 08	 mov	 edi, DWORD PTR __Right$[ebp]
  00014	33 db		 xor	 ebx, ebx
  00016	89 1e		 mov	 DWORD PTR [esi], ebx
  00018	89 5e 04	 mov	 DWORD PTR [esi+4], ebx
  0001b	89 5e 08	 mov	 DWORD PTR [esi+8], ebx
  0001e	8b 47 04	 mov	 eax, DWORD PTR [edi+4]
  00021	2b 07		 sub	 eax, DWORD PTR [edi]
  00023	6a 0c		 push	 12			; 0000000cH
  00025	59		 pop	 ecx
  00026	99		 cdq
  00027	f7 f9		 idiv	 ecx
  00029	8b ce		 mov	 ecx, esi
  0002b	50		 push	 eax
  0002c	e8 00 00 00 00	 call	 ?_Buy@?$vector@UForceInfo@@V?$allocator@UForceInfo@@@std@@@std@@IAE_NI@Z ; std::vector<ForceInfo,std::allocator<ForceInfo> >::_Buy
  00031	84 c0		 test	 al, al
  00033	74 1f		 je	 SHORT $LN7@vector

; 537  : 			_TRY_BEGIN
; 538  : 			this->_Mylast = _Ucopy(_Right.begin(), _Right.end(),
; 539  : 				this->_Myfirst);

  00035	ff 75 08	 push	 DWORD PTR __Cat$558276[ebp]
  00038	8b 0e		 mov	 ecx, DWORD PTR [esi]
  0003a	8b 47 04	 mov	 eax, DWORD PTR [edi+4]
  0003d	8b 3f		 mov	 edi, DWORD PTR [edi]
  0003f	8d 56 0c	 lea	 edx, DWORD PTR [esi+12]
  00042	52		 push	 edx
  00043	51		 push	 ecx
  00044	50		 push	 eax
  00045	57		 push	 edi
  00046	89 5d fc	 mov	 DWORD PTR __$EHRec$[ebp+12], ebx
  00049	e8 00 00 00 00	 call	 ??$_Uninit_copy@V?$_Vector_const_iterator@V?$_Vector_val@UForceInfo@@V?$allocator@UForceInfo@@@std@@@std@@@std@@PAUForceInfo@@V?$allocator@UForceInfo@@@2@@std@@YAPAUForceInfo@@V?$_Vector_const_iterator@V?$_Vector_val@UForceInfo@@V?$allocator@UForceInfo@@@std@@@std@@@0@0PAU1@AAV?$allocator@UForceInfo@@@0@U_Nonscalar_ptr_iterator_tag@0@@Z ; std::_Uninit_copy<std::_Vector_const_iterator<std::_Vector_val<ForceInfo,std::allocator<ForceInfo> > >,ForceInfo *,std::allocator<ForceInfo> >
  0004e	83 c4 14	 add	 esp, 20			; 00000014H
  00051	89 46 04	 mov	 DWORD PTR [esi+4], eax
$LN7@vector:

; 543  : 			_CATCH_END
; 544  : 		}

  00054	8b c6		 mov	 eax, esi
  00056	e8 00 00 00 00	 call	 __EH_epilog3
  0005b	c2 04 00	 ret	 4
__catch$??0?$vector@UForceInfo@@V?$allocator@UForceInfo@@@std@@@std@@QAE@ABV01@@Z$0:

; 540  : 			_CATCH_ALL
; 541  : 			_Tidy();

  0005e	8b 4d ec	 mov	 ecx, DWORD PTR _this$[ebp]
  00061	e8 00 00 00 00	 call	 ?_Tidy@?$vector@UForceInfo@@V?$allocator@UForceInfo@@@std@@@std@@IAEXXZ ; std::vector<ForceInfo,std::allocator<ForceInfo> >::_Tidy

; 542  : 			_RERAISE;

  00066	33 db		 xor	 ebx, ebx
  00068	53		 push	 ebx
  00069	53		 push	 ebx
  0006a	e8 00 00 00 00	 call	 __CxxThrowException@8
$LN38@vector:
$LN37@vector:
  0006f	cc		 int	 3
_TEXT	ENDS
;	COMDAT text$x
text$x	SEGMENT
__ehhandler$??0?$vector@UForceInfo@@V?$allocator@UForceInfo@@@std@@@std@@QAE@ABV01@@Z:
  00000	8b 54 24 08	 mov	 edx, DWORD PTR [esp+8]
  00004	8d 42 0c	 lea	 eax, DWORD PTR [edx+12]
  00007	8b 4a e8	 mov	 ecx, DWORD PTR [edx-24]
  0000a	33 c8		 xor	 ecx, eax
  0000c	e8 00 00 00 00	 call	 @__security_check_cookie@4
  00011	b8 00 00 00 00	 mov	 eax, OFFSET __ehfuncinfo$??0?$vector@UForceInfo@@V?$allocator@UForceInfo@@@std@@@std@@QAE@ABV01@@Z
  00016	e9 00 00 00 00	 jmp	 ___CxxFrameHandler3
text$x	ENDS
??0?$vector@UForceInfo@@V?$allocator@UForceInfo@@@std@@@std@@QAE@ABV01@@Z ENDP ; std::vector<ForceInfo,std::allocator<ForceInfo> >::vector<ForceInfo,std::allocator<ForceInfo> >
PUBLIC	?reserve@?$vector@VioHashString@@V?$allocator@VioHashString@@@std@@@std@@QAEXI@Z ; std::vector<ioHashString,std::allocator<ioHashString> >::reserve
;	COMDAT xdata$x
; File c:\program files (x86)\microsoft visual studio 10.0\vc\include\xmemory
xdata$x	SEGMENT
__catchsym$?reserve@?$vector@VioHashString@@V?$allocator@VioHashString@@@std@@@std@@QAEXI@Z$2 DD 040H
	DD	00H
	DD	00H
	DD	FLAT:__catch$?reserve@?$vector@VioHashString@@V?$allocator@VioHashString@@@std@@@std@@QAEXI@Z$0
__unwindtable$?reserve@?$vector@VioHashString@@V?$allocator@VioHashString@@@std@@@std@@QAEXI@Z DD 0ffffffffH
	DD	00H
	DD	0ffffffffH
	DD	00H
__tryblocktable$?reserve@?$vector@VioHashString@@V?$allocator@VioHashString@@@std@@@std@@QAEXI@Z DD 00H
	DD	00H
	DD	01H
	DD	01H
	DD	FLAT:__catchsym$?reserve@?$vector@VioHashString@@V?$allocator@VioHashString@@@std@@@std@@QAEXI@Z$2
__ehfuncinfo$?reserve@?$vector@VioHashString@@V?$allocator@VioHashString@@@std@@@std@@QAEXI@Z DD 019930522H
	DD	02H
	DD	FLAT:__unwindtable$?reserve@?$vector@VioHashString@@V?$allocator@VioHashString@@@std@@@std@@QAEXI@Z
	DD	01H
	DD	FLAT:__tryblocktable$?reserve@?$vector@VioHashString@@V?$allocator@VioHashString@@@std@@@std@@QAEXI@Z
	DD	2 DUP(00H)
	DD	00H
	DD	01H
; Function compile flags: /Ogsp
; File c:\program files (x86)\microsoft visual studio 10.0\vc\include\vector
xdata$x	ENDS
;	COMDAT ?reserve@?$vector@VioHashString@@V?$allocator@VioHashString@@@std@@@std@@QAEXI@Z
_TEXT	SEGMENT
tv300 = -24						; size = 4
__Ptr$549260 = -20					; size = 4
__$EHRec$ = -16						; size = 16
$T558386 = 8						; size = 4
__Count$ = 8						; size = 4
?reserve@?$vector@VioHashString@@V?$allocator@VioHashString@@@std@@@std@@QAEXI@Z PROC ; std::vector<ioHashString,std::allocator<ioHashString> >::reserve, COMDAT
; _this$ = ecx

; 746  : 		{	// determine new minimum length of allocated storage

  00000	6a 0c		 push	 12			; 0000000cH
  00002	b8 00 00 00 00	 mov	 eax, __ehhandler$?reserve@?$vector@VioHashString@@V?$allocator@VioHashString@@@std@@@std@@QAEXI@Z
  00007	e8 00 00 00 00	 call	 __EH_prolog3_catch
  0000c	8b f1		 mov	 esi, ecx

; 747  : 		if (max_size() < _Count)

  0000e	8b 5d 08	 mov	 ebx, DWORD PTR __Count$[ebp]
  00011	81 fb ff ff ff
	0f		 cmp	 ebx, 268435455		; 0fffffffH
  00017	76 0b		 jbe	 SHORT $LN5@reserve@2

; 748  : 			_Xlen();	// result too long

  00019	68 00 00 00 00	 push	 OFFSET ??_C@_0BD@OLBABOEK@vector?$DMT?$DO?5too?5long?$AA@
  0001e	ff 15 00 00 00
	00		 call	 DWORD PTR __imp_?_Xlength_error@std@@YAXPBD@Z
$LN59@reserve@2:
$LN5@reserve@2:

; 749  : 		else if (capacity() < _Count)

  00024	8b 46 08	 mov	 eax, DWORD PTR [esi+8]
  00027	2b 06		 sub	 eax, DWORD PTR [esi]
  00029	c1 f8 04	 sar	 eax, 4
  0002c	3b c3		 cmp	 eax, ebx
  0002e	73 7a		 jae	 SHORT $LN3@reserve@2

; 750  : 			{	// not enough room, reallocate
; 751  : 			pointer _Ptr = this->_Alval.allocate(_Count);

  00030	6a 00		 push	 0
  00032	53		 push	 ebx
  00033	e8 00 00 00 00	 call	 ??$_Allocate@VioHashString@@@std@@YAPAVioHashString@@IPAV1@@Z ; std::_Allocate<ioHashString>

; 752  : 
; 753  : 			_TRY_BEGIN
; 754  : 			_Umove(this->_Myfirst, this->_Mylast, _Ptr);

  00038	8b 0e		 mov	 ecx, DWORD PTR [esi]
  0003a	83 65 fc 00	 and	 DWORD PTR __$EHRec$[ebp+12], 0
  0003e	8d 56 0c	 lea	 edx, DWORD PTR [esi+12]
  00041	52		 push	 edx
  00042	89 45 ec	 mov	 DWORD PTR __Ptr$549260[ebp], eax
  00045	ff 75 ec	 push	 DWORD PTR __Ptr$549260[ebp]
  00048	8b 46 04	 mov	 eax, DWORD PTR [esi+4]
  0004b	50		 push	 eax
  0004c	51		 push	 ecx
  0004d	e8 00 00 00 00	 call	 ??$_Uninitialized_move@PAVioHashString@@PAV1@V?$allocator@VioHashString@@@std@@@std@@YAPAVioHashString@@PAV1@00AAV?$allocator@VioHashString@@@0@@Z ; std::_Uninitialized_move<ioHashString *,ioHashString *,std::allocator<ioHashString> >

; 758  : 			_CATCH_END
; 759  : 
; 760  : 			size_type _Size = size();

  00052	8b 4e 04	 mov	 ecx, DWORD PTR [esi+4]
  00055	8b 06		 mov	 eax, DWORD PTR [esi]
  00057	83 4d fc ff	 or	 DWORD PTR __$EHRec$[ebp+12], -1
  0005b	8b f9		 mov	 edi, ecx
  0005d	83 c4 18	 add	 esp, 24			; 00000018H
  00060	2b f8		 sub	 edi, eax
  00062	89 4d e8	 mov	 DWORD PTR tv300[ebp], ecx
  00065	85 c0		 test	 eax, eax
  00067	74 24		 je	 SHORT $LN51@reserve@2

; 761  : 			if (this->_Myfirst != 0)
; 762  : 				{	// destroy and deallocate old array
; 763  : 				_Destroy(this->_Myfirst, this->_Mylast);

  00069	89 45 08	 mov	 DWORD PTR $T558386[ebp], eax
  0006c	3b c1		 cmp	 eax, ecx
  0006e	74 15		 je	 SHORT $LN37@reserve@2
$LN39@reserve@2:
  00070	8b 4d 08	 mov	 ecx, DWORD PTR $T558386[ebp]
  00073	ff 15 00 00 00
	00		 call	 DWORD PTR __imp_??1ioHashString@@QAE@XZ
  00079	83 45 08 10	 add	 DWORD PTR $T558386[ebp], 16 ; 00000010H
  0007d	8b 45 08	 mov	 eax, DWORD PTR $T558386[ebp]
  00080	3b 45 e8	 cmp	 eax, DWORD PTR tv300[ebp]
  00083	75 eb		 jne	 SHORT $LN39@reserve@2
$LN37@reserve@2:

; 764  : 				this->_Alval.deallocate(this->_Myfirst,
; 765  : 					this->_Myend - this->_Myfirst);

  00085	ff 36		 push	 DWORD PTR [esi]
  00087	e8 00 00 00 00	 call	 ??3@YAXPAX@Z		; operator delete
  0008c	59		 pop	 ecx
$LN51@reserve@2:

; 766  : 				}
; 767  : 
; 768  : 			this->_Orphan_all();

  0008d	8b ce		 mov	 ecx, esi
  0008f	ff 15 00 00 00
	00		 call	 DWORD PTR __imp_?_Orphan_all@_Container_base0@std@@QAEXXZ

; 769  : 			this->_Myend = _Ptr + _Count;

  00095	8b 45 ec	 mov	 eax, DWORD PTR __Ptr$549260[ebp]
  00098	c1 e3 04	 shl	 ebx, 4
  0009b	03 d8		 add	 ebx, eax

; 770  : 			this->_Mylast = _Ptr + _Size;

  0009d	83 e7 f0	 and	 edi, -16		; fffffff0H
  000a0	03 f8		 add	 edi, eax
  000a2	89 5e 08	 mov	 DWORD PTR [esi+8], ebx
  000a5	89 7e 04	 mov	 DWORD PTR [esi+4], edi

; 771  : 			this->_Myfirst = _Ptr;

  000a8	89 06		 mov	 DWORD PTR [esi], eax
$LN3@reserve@2:

; 772  : 			}
; 773  : 		}

  000aa	e8 00 00 00 00	 call	 __EH_epilog3
  000af	c2 04 00	 ret	 4
__catch$?reserve@?$vector@VioHashString@@V?$allocator@VioHashString@@@std@@@std@@QAEXI@Z$0:

; 755  : 			_CATCH_ALL
; 756  : 			this->_Alval.deallocate(_Ptr, _Count);

  000b2	ff 75 ec	 push	 DWORD PTR __Ptr$549260[ebp]
  000b5	e8 00 00 00 00	 call	 ??3@YAXPAX@Z		; operator delete
  000ba	59		 pop	 ecx

; 757  : 			_RERAISE;

  000bb	6a 00		 push	 0
  000bd	6a 00		 push	 0
  000bf	e8 00 00 00 00	 call	 __CxxThrowException@8
$LN60@reserve@2:
$LN58@reserve@2:
  000c4	cc		 int	 3
_TEXT	ENDS
;	COMDAT text$x
text$x	SEGMENT
__ehhandler$?reserve@?$vector@VioHashString@@V?$allocator@VioHashString@@@std@@@std@@QAEXI@Z:
  00000	8b 54 24 08	 mov	 edx, DWORD PTR [esp+8]
  00004	8d 42 0c	 lea	 eax, DWORD PTR [edx+12]
  00007	8b 4a e4	 mov	 ecx, DWORD PTR [edx-28]
  0000a	33 c8		 xor	 ecx, eax
  0000c	e8 00 00 00 00	 call	 @__security_check_cookie@4
  00011	b8 00 00 00 00	 mov	 eax, OFFSET __ehfuncinfo$?reserve@?$vector@VioHashString@@V?$allocator@VioHashString@@@std@@@std@@QAEXI@Z
  00016	e9 00 00 00 00	 jmp	 ___CxxFrameHandler3
text$x	ENDS
?reserve@?$vector@VioHashString@@V?$allocator@VioHashString@@@std@@@std@@QAEXI@Z ENDP ; std::vector<ioHashString,std::allocator<ioHashString> >::reserve
PUBLIC	??1?$vector@UForceInfo@@V?$allocator@UForceInfo@@@std@@@std@@QAE@XZ ; std::vector<ForceInfo,std::allocator<ForceInfo> >::~vector<ForceInfo,std::allocator<ForceInfo> >
; Function compile flags: /Ogsp
;	COMDAT ??1?$vector@UForceInfo@@V?$allocator@UForceInfo@@@std@@@std@@QAE@XZ
_TEXT	SEGMENT
??1?$vector@UForceInfo@@V?$allocator@UForceInfo@@@std@@@std@@QAE@XZ PROC ; std::vector<ForceInfo,std::allocator<ForceInfo> >::~vector<ForceInfo,std::allocator<ForceInfo> >, COMDAT
; _this$ = ecx

; 705  : 		_Tidy();

  00000	e9 00 00 00 00	 jmp	 ?_Tidy@?$vector@UForceInfo@@V?$allocator@UForceInfo@@@std@@@std@@IAEXXZ ; std::vector<ForceInfo,std::allocator<ForceInfo> >::_Tidy
??1?$vector@UForceInfo@@V?$allocator@UForceInfo@@@std@@@std@@QAE@XZ ENDP ; std::vector<ForceInfo,std::allocator<ForceInfo> >::~vector<ForceInfo,std::allocator<ForceInfo> >
_TEXT	ENDS
PUBLIC	?erase@?$vector@VioHashString@@V?$allocator@VioHashString@@@std@@@std@@QAE?AV?$_Vector_iterator@V?$_Vector_val@VioHashString@@V?$allocator@VioHashString@@@std@@@std@@@2@V?$_Vector_const_iterator@V?$_Vector_val@VioHashString@@V?$allocator@VioHashString@@@std@@@std@@@2@0@Z ; std::vector<ioHashString,std::allocator<ioHashString> >::erase
; Function compile flags: /Ogsp
;	COMDAT ?erase@?$vector@VioHashString@@V?$allocator@VioHashString@@@std@@@std@@QAE?AV?$_Vector_iterator@V?$_Vector_val@VioHashString@@V?$allocator@VioHashString@@@std@@@std@@@2@V?$_Vector_const_iterator@V?$_Vector_val@VioHashString@@V?$allocator@VioHashString@@@std@@@std@@@2@0@Z
_TEXT	SEGMENT
$T558588 = -4						; size = 4
___$ReturnUdt$ = 8					; size = 4
__First_arg$ = 12					; size = 4
__Cat$558532 = 16					; size = 1
__Last_arg$ = 16					; size = 4
?erase@?$vector@VioHashString@@V?$allocator@VioHashString@@@std@@@std@@QAE?AV?$_Vector_iterator@V?$_Vector_val@VioHashString@@V?$allocator@VioHashString@@@std@@@std@@@2@V?$_Vector_const_iterator@V?$_Vector_val@VioHashString@@V?$allocator@VioHashString@@@std@@@std@@@2@0@Z PROC ; std::vector<ioHashString,std::allocator<ioHashString> >::erase, COMDAT
; _this$ = ecx

; 1190 : 		{	// erase [_First, _Last)

  00000	55		 push	 ebp
  00001	8b ec		 mov	 ebp, esp
  00003	51		 push	 ecx

; 1191 : 		iterator _First = _Make_iter(_First_arg);

  00004	8b 45 08	 mov	 eax, DWORD PTR ___$ReturnUdt$[ebp]
  00007	56		 push	 esi
  00008	8b f1		 mov	 esi, ecx
  0000a	8b 4d 0c	 mov	 ecx, DWORD PTR __First_arg$[ebp]
  0000d	89 08		 mov	 DWORD PTR [eax], ecx

; 1192 : 		iterator _Last = _Make_iter(_Last_arg);
; 1193 : 
; 1194 : 		if (_First != _Last)

  0000f	3b 4d 10	 cmp	 ecx, DWORD PTR __Last_arg$[ebp]
  00012	74 38		 je	 SHORT $LN1@erase

; 1195 : 			{	// worth doing, copy down over hole
; 1196 :  #if _ITERATOR_DEBUG_LEVEL == 2
; 1197 : 			if (_Last < _First || _VICONT(_First) != this
; 1198 : 				|| _VIPTR(_First) < this->_Myfirst
; 1199 : 				|| this->_Mylast < _VIPTR(_Last))
; 1200 : 				_DEBUG_ERROR("vector erase iterator outside range");
; 1201 : 			pointer _Ptr = _Move(_VIPTR(_Last), this->_Mylast,
; 1202 : 				_VIPTR(_First));
; 1203 : 			_Orphan_range(_VIPTR(_First), this->_Mylast);
; 1204 : 
; 1205 :  #else /* _ITERATOR_DEBUG_LEVEL == 2 */
; 1206 : 			pointer _Ptr = _Move(_VIPTR(_Last), this->_Mylast,
; 1207 : 				_VIPTR(_First));

  00014	8b 46 04	 mov	 eax, DWORD PTR [esi+4]
  00017	53		 push	 ebx
  00018	57		 push	 edi
  00019	ff 75 10	 push	 DWORD PTR __Cat$558532[ebp]
  0001c	51		 push	 ecx
  0001d	50		 push	 eax
  0001e	ff 75 10	 push	 DWORD PTR __Last_arg$[ebp]
  00021	e8 00 00 00 00	 call	 ??$_Move@PAVioHashString@@PAV1@@std@@YAPAVioHashString@@PAV1@00U_Nonscalar_ptr_iterator_tag@0@@Z ; std::_Move<ioHashString *,ioHashString *>

; 1208 :  #endif /* _ITERATOR_DEBUG_LEVEL == 2 */
; 1209 : 
; 1210 : 			_Destroy(_Ptr, this->_Mylast);

  00026	8b 7e 04	 mov	 edi, DWORD PTR [esi+4]
  00029	8b d8		 mov	 ebx, eax
  0002b	83 c4 10	 add	 esp, 16			; 00000010H
  0002e	89 5d fc	 mov	 DWORD PTR $T558588[ebp], ebx
  00031	3b df		 cmp	 ebx, edi
  00033	74 12		 je	 SHORT $LN36@erase
$LL52@erase:
  00035	8b 4d fc	 mov	 ecx, DWORD PTR $T558588[ebp]
  00038	ff 15 00 00 00
	00		 call	 DWORD PTR __imp_??1ioHashString@@QAE@XZ
  0003e	83 45 fc 10	 add	 DWORD PTR $T558588[ebp], 16 ; 00000010H
  00042	39 7d fc	 cmp	 DWORD PTR $T558588[ebp], edi
  00045	75 ee		 jne	 SHORT $LL52@erase
$LN36@erase:

; 1211 : 			this->_Mylast = _Ptr;

  00047	5f		 pop	 edi
  00048	89 5e 04	 mov	 DWORD PTR [esi+4], ebx
  0004b	5b		 pop	 ebx
$LN1@erase:

; 1212 : 			}
; 1213 : 		return (_First);

  0004c	8b 45 08	 mov	 eax, DWORD PTR ___$ReturnUdt$[ebp]
  0004f	5e		 pop	 esi

; 1214 : 		}

  00050	c9		 leave
  00051	c2 0c 00	 ret	 12			; 0000000cH
?erase@?$vector@VioHashString@@V?$allocator@VioHashString@@@std@@@std@@QAE?AV?$_Vector_iterator@V?$_Vector_val@VioHashString@@V?$allocator@VioHashString@@@std@@@std@@@2@V?$_Vector_const_iterator@V?$_Vector_val@VioHashString@@V?$allocator@VioHashString@@@std@@@std@@@2@0@Z ENDP ; std::vector<ioHashString,std::allocator<ioHashString> >::erase
_TEXT	ENDS
PUBLIC	?_Tidy@?$vector@VioHashString@@V?$allocator@VioHashString@@@std@@@std@@IAEXXZ ; std::vector<ioHashString,std::allocator<ioHashString> >::_Tidy
; Function compile flags: /Ogsp
;	COMDAT ?_Tidy@?$vector@VioHashString@@V?$allocator@VioHashString@@@std@@@std@@IAEXXZ
_TEXT	SEGMENT
?_Tidy@?$vector@VioHashString@@V?$allocator@VioHashString@@@std@@@std@@IAEXXZ PROC ; std::vector<ioHashString,std::allocator<ioHashString> >::_Tidy, COMDAT
; _this$ = ecx

; 1301 : 		{	// free all storage

  00000	56		 push	 esi
  00001	8b f1		 mov	 esi, ecx

; 1302 : 		if (this->_Myfirst != 0)

  00003	83 3e 00	 cmp	 DWORD PTR [esi], 0
  00006	74 28		 je	 SHORT $LN24@Tidy@3

; 1303 : 			{	// something to free, destroy and deallocate it
; 1304 : 			this->_Orphan_all();

  00008	53		 push	 ebx
  00009	57		 push	 edi
  0000a	ff 15 00 00 00
	00		 call	 DWORD PTR __imp_?_Orphan_all@_Container_base0@std@@QAEXXZ

; 1305 : 			_Destroy(this->_Myfirst, this->_Mylast);

  00010	8b 5e 04	 mov	 ebx, DWORD PTR [esi+4]
  00013	8b 3e		 mov	 edi, DWORD PTR [esi]
  00015	eb 0b		 jmp	 SHORT $LN28@Tidy@3
$LL12@Tidy@3:
  00017	8b cf		 mov	 ecx, edi
  00019	ff 15 00 00 00
	00		 call	 DWORD PTR __imp_??1ioHashString@@QAE@XZ
  0001f	83 c7 10	 add	 edi, 16			; 00000010H
$LN28@Tidy@3:
  00022	3b fb		 cmp	 edi, ebx
  00024	75 f1		 jne	 SHORT $LL12@Tidy@3

; 1306 : 			this->_Alval.deallocate(this->_Myfirst,
; 1307 : 				this->_Myend - this->_Myfirst);

  00026	ff 36		 push	 DWORD PTR [esi]
  00028	e8 00 00 00 00	 call	 ??3@YAXPAX@Z		; operator delete
  0002d	59		 pop	 ecx
  0002e	5f		 pop	 edi
  0002f	5b		 pop	 ebx
$LN24@Tidy@3:

; 1308 : 			}
; 1309 : 		this->_Myfirst = 0;

  00030	33 c0		 xor	 eax, eax
  00032	89 06		 mov	 DWORD PTR [esi], eax

; 1310 : 		this->_Mylast = 0;

  00034	89 46 04	 mov	 DWORD PTR [esi+4], eax

; 1311 : 		this->_Myend = 0;

  00037	89 46 08	 mov	 DWORD PTR [esi+8], eax
  0003a	5e		 pop	 esi

; 1312 : 		}

  0003b	c3		 ret	 0
?_Tidy@?$vector@VioHashString@@V?$allocator@VioHashString@@@std@@@std@@IAEXXZ ENDP ; std::vector<ioHashString,std::allocator<ioHashString> >::_Tidy
_TEXT	ENDS
PUBLIC	?_Tidy@?$vector@UWeaponInfo@@V?$allocator@UWeaponInfo@@@std@@@std@@IAEXXZ ; std::vector<WeaponInfo,std::allocator<WeaponInfo> >::_Tidy
; Function compile flags: /Ogsp
;	COMDAT ?_Tidy@?$vector@UWeaponInfo@@V?$allocator@UWeaponInfo@@@std@@@std@@IAEXXZ
_TEXT	SEGMENT
?_Tidy@?$vector@UWeaponInfo@@V?$allocator@UWeaponInfo@@@std@@@std@@IAEXXZ PROC ; std::vector<WeaponInfo,std::allocator<WeaponInfo> >::_Tidy, COMDAT
; _this$ = ecx

; 1301 : 		{	// free all storage

  00000	56		 push	 esi
  00001	8b f1		 mov	 esi, ecx

; 1302 : 		if (this->_Myfirst != 0)

  00003	83 3e 00	 cmp	 DWORD PTR [esi], 0
  00006	74 1e		 je	 SHORT $LN6@Tidy@4

; 1303 : 			{	// something to free, destroy and deallocate it
; 1304 : 			this->_Orphan_all();

  00008	ff 15 00 00 00
	00		 call	 DWORD PTR __imp_?_Orphan_all@_Container_base0@std@@QAEXXZ

; 1305 : 			_Destroy(this->_Myfirst, this->_Mylast);

  0000e	8d 46 0c	 lea	 eax, DWORD PTR [esi+12]
  00011	50		 push	 eax
  00012	ff 76 04	 push	 DWORD PTR [esi+4]
  00015	ff 36		 push	 DWORD PTR [esi]
  00017	e8 00 00 00 00	 call	 ??$_Destroy_range@V?$allocator@UWeaponInfo@@@std@@@std@@YAXPAUWeaponInfo@@0AAV?$allocator@UWeaponInfo@@@0@@Z ; std::_Destroy_range<std::allocator<WeaponInfo> >

; 1306 : 			this->_Alval.deallocate(this->_Myfirst,
; 1307 : 				this->_Myend - this->_Myfirst);

  0001c	ff 36		 push	 DWORD PTR [esi]
  0001e	e8 00 00 00 00	 call	 ??3@YAXPAX@Z		; operator delete
  00023	83 c4 10	 add	 esp, 16			; 00000010H
$LN6@Tidy@4:

; 1308 : 			}
; 1309 : 		this->_Myfirst = 0;

  00026	83 26 00	 and	 DWORD PTR [esi], 0

; 1310 : 		this->_Mylast = 0;

  00029	83 66 04 00	 and	 DWORD PTR [esi+4], 0

; 1311 : 		this->_Myend = 0;

  0002d	83 66 08 00	 and	 DWORD PTR [esi+8], 0
  00031	5e		 pop	 esi

; 1312 : 		}

  00032	c3		 ret	 0
?_Tidy@?$vector@UWeaponInfo@@V?$allocator@UWeaponInfo@@@std@@@std@@IAEXXZ ENDP ; std::vector<WeaponInfo,std::allocator<WeaponInfo> >::_Tidy
_TEXT	ENDS
PUBLIC	??0?$vector@UWeaponInfo@@V?$allocator@UWeaponInfo@@@std@@@std@@QAE@ABV01@@Z ; std::vector<WeaponInfo,std::allocator<WeaponInfo> >::vector<WeaponInfo,std::allocator<WeaponInfo> >
;	COMDAT xdata$x
; File c:\program files (x86)\microsoft visual studio 10.0\vc\include\xutility
xdata$x	SEGMENT
__catchsym$??0?$vector@UWeaponInfo@@V?$allocator@UWeaponInfo@@@std@@@std@@QAE@ABV01@@Z$2 DD 040H
	DD	00H
	DD	00H
	DD	FLAT:__catch$??0?$vector@UWeaponInfo@@V?$allocator@UWeaponInfo@@@std@@@std@@QAE@ABV01@@Z$0
__unwindtable$??0?$vector@UWeaponInfo@@V?$allocator@UWeaponInfo@@@std@@@std@@QAE@ABV01@@Z DD 0ffffffffH
	DD	00H
	DD	0ffffffffH
	DD	00H
__tryblocktable$??0?$vector@UWeaponInfo@@V?$allocator@UWeaponInfo@@@std@@@std@@QAE@ABV01@@Z DD 00H
	DD	00H
	DD	01H
	DD	01H
	DD	FLAT:__catchsym$??0?$vector@UWeaponInfo@@V?$allocator@UWeaponInfo@@@std@@@std@@QAE@ABV01@@Z$2
__ehfuncinfo$??0?$vector@UWeaponInfo@@V?$allocator@UWeaponInfo@@@std@@@std@@QAE@ABV01@@Z DD 019930522H
	DD	02H
	DD	FLAT:__unwindtable$??0?$vector@UWeaponInfo@@V?$allocator@UWeaponInfo@@@std@@@std@@QAE@ABV01@@Z
	DD	01H
	DD	FLAT:__tryblocktable$??0?$vector@UWeaponInfo@@V?$allocator@UWeaponInfo@@@std@@@std@@QAE@ABV01@@Z
	DD	2 DUP(00H)
	DD	00H
	DD	01H
; Function compile flags: /Ogsp
; File c:\program files (x86)\microsoft visual studio 10.0\vc\include\vector
xdata$x	ENDS
;	COMDAT ??0?$vector@UWeaponInfo@@V?$allocator@UWeaponInfo@@@std@@@std@@QAE@ABV01@@Z
_TEXT	SEGMENT
_this$ = -20						; size = 4
__$EHRec$ = -16						; size = 16
__Cat$558833 = 8					; size = 1
__Right$ = 8						; size = 4
??0?$vector@UWeaponInfo@@V?$allocator@UWeaponInfo@@@std@@@std@@QAE@ABV01@@Z PROC ; std::vector<WeaponInfo,std::allocator<WeaponInfo> >::vector<WeaponInfo,std::allocator<WeaponInfo> >, COMDAT
; _this$ = ecx

; 535  : 		{	// construct by copying _Right

  00000	6a 08		 push	 8
  00002	b8 00 00 00 00	 mov	 eax, __ehhandler$??0?$vector@UWeaponInfo@@V?$allocator@UWeaponInfo@@@std@@@std@@QAE@ABV01@@Z
  00007	e8 00 00 00 00	 call	 __EH_prolog3_catch
  0000c	8b f1		 mov	 esi, ecx
  0000e	89 75 ec	 mov	 DWORD PTR _this$[ebp], esi

; 536  : 		if (_Buy(_Right.size()))

  00011	8b 7d 08	 mov	 edi, DWORD PTR __Right$[ebp]
  00014	33 db		 xor	 ebx, ebx
  00016	89 1e		 mov	 DWORD PTR [esi], ebx
  00018	89 5e 04	 mov	 DWORD PTR [esi+4], ebx
  0001b	89 5e 08	 mov	 DWORD PTR [esi+8], ebx
  0001e	8b 47 04	 mov	 eax, DWORD PTR [edi+4]
  00021	2b 07		 sub	 eax, DWORD PTR [edi]
  00023	6a 28		 push	 40			; 00000028H
  00025	59		 pop	 ecx
  00026	99		 cdq
  00027	f7 f9		 idiv	 ecx
  00029	8b ce		 mov	 ecx, esi
  0002b	50		 push	 eax
  0002c	e8 00 00 00 00	 call	 ?_Buy@?$vector@UWeaponInfo@@V?$allocator@UWeaponInfo@@@std@@@std@@IAE_NI@Z ; std::vector<WeaponInfo,std::allocator<WeaponInfo> >::_Buy
  00031	84 c0		 test	 al, al
  00033	74 1f		 je	 SHORT $LN7@vector@2

; 537  : 			_TRY_BEGIN
; 538  : 			this->_Mylast = _Ucopy(_Right.begin(), _Right.end(),
; 539  : 				this->_Myfirst);

  00035	ff 75 08	 push	 DWORD PTR __Cat$558833[ebp]
  00038	8b 0e		 mov	 ecx, DWORD PTR [esi]
  0003a	8b 47 04	 mov	 eax, DWORD PTR [edi+4]
  0003d	8b 3f		 mov	 edi, DWORD PTR [edi]
  0003f	8d 56 0c	 lea	 edx, DWORD PTR [esi+12]
  00042	52		 push	 edx
  00043	51		 push	 ecx
  00044	50		 push	 eax
  00045	57		 push	 edi
  00046	89 5d fc	 mov	 DWORD PTR __$EHRec$[ebp+12], ebx
  00049	e8 00 00 00 00	 call	 ??$_Uninit_copy@V?$_Vector_const_iterator@V?$_Vector_val@UWeaponInfo@@V?$allocator@UWeaponInfo@@@std@@@std@@@std@@PAUWeaponInfo@@V?$allocator@UWeaponInfo@@@2@@std@@YAPAUWeaponInfo@@V?$_Vector_const_iterator@V?$_Vector_val@UWeaponInfo@@V?$allocator@UWeaponInfo@@@std@@@std@@@0@0PAU1@AAV?$allocator@UWeaponInfo@@@0@U_Nonscalar_ptr_iterator_tag@0@@Z ; std::_Uninit_copy<std::_Vector_const_iterator<std::_Vector_val<WeaponInfo,std::allocator<WeaponInfo> > >,WeaponInfo *,std::allocator<WeaponInfo> >
  0004e	83 c4 14	 add	 esp, 20			; 00000014H
  00051	89 46 04	 mov	 DWORD PTR [esi+4], eax
$LN7@vector@2:

; 543  : 			_CATCH_END
; 544  : 		}

  00054	8b c6		 mov	 eax, esi
  00056	e8 00 00 00 00	 call	 __EH_epilog3
  0005b	c2 04 00	 ret	 4
__catch$??0?$vector@UWeaponInfo@@V?$allocator@UWeaponInfo@@@std@@@std@@QAE@ABV01@@Z$0:

; 540  : 			_CATCH_ALL
; 541  : 			_Tidy();

  0005e	8b 4d ec	 mov	 ecx, DWORD PTR _this$[ebp]
  00061	e8 00 00 00 00	 call	 ?_Tidy@?$vector@UWeaponInfo@@V?$allocator@UWeaponInfo@@@std@@@std@@IAEXXZ ; std::vector<WeaponInfo,std::allocator<WeaponInfo> >::_Tidy

; 542  : 			_RERAISE;

  00066	33 db		 xor	 ebx, ebx
  00068	53		 push	 ebx
  00069	53		 push	 ebx
  0006a	e8 00 00 00 00	 call	 __CxxThrowException@8
$LN38@vector@2:
$LN37@vector@2:
  0006f	cc		 int	 3
_TEXT	ENDS
;	COMDAT text$x
text$x	SEGMENT
__ehhandler$??0?$vector@UWeaponInfo@@V?$allocator@UWeaponInfo@@@std@@@std@@QAE@ABV01@@Z:
  00000	8b 54 24 08	 mov	 edx, DWORD PTR [esp+8]
  00004	8d 42 0c	 lea	 eax, DWORD PTR [edx+12]
  00007	8b 4a e8	 mov	 ecx, DWORD PTR [edx-24]
  0000a	33 c8		 xor	 ecx, eax
  0000c	e8 00 00 00 00	 call	 @__security_check_cookie@4
  00011	b8 00 00 00 00	 mov	 eax, OFFSET __ehfuncinfo$??0?$vector@UWeaponInfo@@V?$allocator@UWeaponInfo@@@std@@@std@@QAE@ABV01@@Z
  00016	e9 00 00 00 00	 jmp	 ___CxxFrameHandler3
text$x	ENDS
??0?$vector@UWeaponInfo@@V?$allocator@UWeaponInfo@@@std@@@std@@QAE@ABV01@@Z ENDP ; std::vector<WeaponInfo,std::allocator<WeaponInfo> >::vector<WeaponInfo,std::allocator<WeaponInfo> >
PUBLIC	?_Reserve@?$vector@VioHashString@@V?$allocator@VioHashString@@@std@@@std@@IAEXI@Z ; std::vector<ioHashString,std::allocator<ioHashString> >::_Reserve
; Function compile flags: /Ogsp
;	COMDAT ?_Reserve@?$vector@VioHashString@@V?$allocator@VioHashString@@@std@@@std@@IAEXI@Z
_TEXT	SEGMENT
__Count$ = 8						; size = 4
?_Reserve@?$vector@VioHashString@@V?$allocator@VioHashString@@@std@@@std@@IAEXI@Z PROC ; std::vector<ioHashString,std::allocator<ioHashString> >::_Reserve, COMDAT
; _this$ = ecx

; 1290 : 		{	// ensure room for _Count new elements, grow exponentially

  00000	55		 push	 ebp
  00001	8b ec		 mov	 ebp, esp
  00003	56		 push	 esi
  00004	8b f1		 mov	 esi, ecx

; 1291 : 		size_type _Size = size();

  00006	8b 0e		 mov	 ecx, DWORD PTR [esi]
  00008	8b 46 04	 mov	 eax, DWORD PTR [esi+4]
  0000b	2b c1		 sub	 eax, ecx

; 1292 : 		if (max_size() - _Count < _Size)

  0000d	ba ff ff ff 0f	 mov	 edx, 268435455		; 0fffffffH
  00012	2b 55 08	 sub	 edx, DWORD PTR __Count$[ebp]
  00015	c1 f8 04	 sar	 eax, 4
  00018	3b d0		 cmp	 edx, eax
  0001a	73 0b		 jae	 SHORT $LN4@Reserve@2

; 1293 : 			_Xlen();

  0001c	68 00 00 00 00	 push	 OFFSET ??_C@_0BD@OLBABOEK@vector?$DMT?$DO?5too?5long?$AA@
  00021	ff 15 00 00 00
	00		 call	 DWORD PTR __imp_?_Xlength_error@std@@YAXPBD@Z
$LN21@Reserve@2:
$LN4@Reserve@2:

; 1294 : 		else if ((_Size += _Count) <= capacity())

  00027	8b 56 08	 mov	 edx, DWORD PTR [esi+8]
  0002a	03 45 08	 add	 eax, DWORD PTR __Count$[ebp]
  0002d	2b d1		 sub	 edx, ecx
  0002f	c1 fa 04	 sar	 edx, 4
  00032	3b c2		 cmp	 eax, edx
  00034	76 10		 jbe	 SHORT $LN1@Reserve@2

; 1295 : 			;
; 1296 : 		else
; 1297 : 			reserve(_Grow_to(_Size));

  00036	50		 push	 eax
  00037	8b ce		 mov	 ecx, esi
  00039	e8 00 00 00 00	 call	 ?_Grow_to@?$vector@VioHashString@@V?$allocator@VioHashString@@@std@@@std@@IBEII@Z ; std::vector<ioHashString,std::allocator<ioHashString> >::_Grow_to
  0003e	50		 push	 eax
  0003f	8b ce		 mov	 ecx, esi
  00041	e8 00 00 00 00	 call	 ?reserve@?$vector@VioHashString@@V?$allocator@VioHashString@@@std@@@std@@QAEXI@Z ; std::vector<ioHashString,std::allocator<ioHashString> >::reserve
$LN1@Reserve@2:
  00046	5e		 pop	 esi

; 1298 : 		}

  00047	5d		 pop	 ebp
  00048	c2 04 00	 ret	 4
$LN20@Reserve@2:
?_Reserve@?$vector@VioHashString@@V?$allocator@VioHashString@@@std@@@std@@IAEXI@Z ENDP ; std::vector<ioHashString,std::allocator<ioHashString> >::_Reserve
_TEXT	ENDS
PUBLIC	??1?$vector@VioHashString@@V?$allocator@VioHashString@@@std@@@std@@QAE@XZ ; std::vector<ioHashString,std::allocator<ioHashString> >::~vector<ioHashString,std::allocator<ioHashString> >
; Function compile flags: /Ogsp
;	COMDAT ??1?$vector@VioHashString@@V?$allocator@VioHashString@@@std@@@std@@QAE@XZ
_TEXT	SEGMENT
??1?$vector@VioHashString@@V?$allocator@VioHashString@@@std@@@std@@QAE@XZ PROC ; std::vector<ioHashString,std::allocator<ioHashString> >::~vector<ioHashString,std::allocator<ioHashString> >, COMDAT
; _this$ = ecx

; 705  : 		_Tidy();

  00000	e9 00 00 00 00	 jmp	 ?_Tidy@?$vector@VioHashString@@V?$allocator@VioHashString@@@std@@@std@@IAEXXZ ; std::vector<ioHashString,std::allocator<ioHashString> >::_Tidy
??1?$vector@VioHashString@@V?$allocator@VioHashString@@@std@@@std@@QAE@XZ ENDP ; std::vector<ioHashString,std::allocator<ioHashString> >::~vector<ioHashString,std::allocator<ioHashString> >
_TEXT	ENDS
PUBLIC	?clear@?$vector@VioHashString@@V?$allocator@VioHashString@@@std@@@std@@QAEXXZ ; std::vector<ioHashString,std::allocator<ioHashString> >::clear
; Function compile flags: /Ogsp
;	COMDAT ?clear@?$vector@VioHashString@@V?$allocator@VioHashString@@@std@@@std@@QAEXXZ
_TEXT	SEGMENT
$T558892 = -4						; size = 4
?clear@?$vector@VioHashString@@V?$allocator@VioHashString@@@std@@@std@@QAEXXZ PROC ; std::vector<ioHashString,std::allocator<ioHashString> >::clear, COMDAT
; _this$ = ecx

; 1217 : 		{	// erase all

  00000	55		 push	 ebp
  00001	8b ec		 mov	 ebp, esp
  00003	51		 push	 ecx

; 1218 : 		erase(begin(), end());

  00004	8b 41 04	 mov	 eax, DWORD PTR [ecx+4]
  00007	8b 11		 mov	 edx, DWORD PTR [ecx]
  00009	50		 push	 eax
  0000a	52		 push	 edx
  0000b	8d 45 fc	 lea	 eax, DWORD PTR $T558892[ebp]
  0000e	50		 push	 eax
  0000f	e8 00 00 00 00	 call	 ?erase@?$vector@VioHashString@@V?$allocator@VioHashString@@@std@@@std@@QAE?AV?$_Vector_iterator@V?$_Vector_val@VioHashString@@V?$allocator@VioHashString@@@std@@@std@@@2@V?$_Vector_const_iterator@V?$_Vector_val@VioHashString@@V?$allocator@VioHashString@@@std@@@std@@@2@0@Z ; std::vector<ioHashString,std::allocator<ioHashString> >::erase

; 1219 : 		}

  00014	c9		 leave
  00015	c3		 ret	 0
?clear@?$vector@VioHashString@@V?$allocator@VioHashString@@@std@@@std@@QAEXXZ ENDP ; std::vector<ioHashString,std::allocator<ioHashString> >::clear
_TEXT	ENDS
PUBLIC	??1?$vector@UWeaponInfo@@V?$allocator@UWeaponInfo@@@std@@@std@@QAE@XZ ; std::vector<WeaponInfo,std::allocator<WeaponInfo> >::~vector<WeaponInfo,std::allocator<WeaponInfo> >
; Function compile flags: /Ogsp
;	COMDAT ??1?$vector@UWeaponInfo@@V?$allocator@UWeaponInfo@@@std@@@std@@QAE@XZ
_TEXT	SEGMENT
??1?$vector@UWeaponInfo@@V?$allocator@UWeaponInfo@@@std@@@std@@QAE@XZ PROC ; std::vector<WeaponInfo,std::allocator<WeaponInfo> >::~vector<WeaponInfo,std::allocator<WeaponInfo> >, COMDAT
; _this$ = ecx

; 705  : 		_Tidy();

  00000	e9 00 00 00 00	 jmp	 ?_Tidy@?$vector@UWeaponInfo@@V?$allocator@UWeaponInfo@@@std@@@std@@IAEXXZ ; std::vector<WeaponInfo,std::allocator<WeaponInfo> >::_Tidy
??1?$vector@UWeaponInfo@@V?$allocator@UWeaponInfo@@@std@@@std@@QAE@XZ ENDP ; std::vector<WeaponInfo,std::allocator<WeaponInfo> >::~vector<WeaponInfo,std::allocator<WeaponInfo> >
_TEXT	ENDS
PUBLIC	??0AttackAttribute@@QAE@ABU0@@Z			; AttackAttribute::AttackAttribute
;	COMDAT xdata$x
xdata$x	SEGMENT
__unwindtable$??0AttackAttribute@@QAE@ABU0@@Z DD 0ffffffffH
	DD	FLAT:__unwindfunclet$??0AttackAttribute@@QAE@ABU0@@Z$0
	DD	00H
	DD	FLAT:__unwindfunclet$??0AttackAttribute@@QAE@ABU0@@Z$1
	DD	01H
	DD	FLAT:__unwindfunclet$??0AttackAttribute@@QAE@ABU0@@Z$2
__ehfuncinfo$??0AttackAttribute@@QAE@ABU0@@Z DD 019930522H
	DD	03H
	DD	FLAT:__unwindtable$??0AttackAttribute@@QAE@ABU0@@Z
	DD	2 DUP(00H)
	DD	2 DUP(00H)
	DD	00H
	DD	01H
; Function compile flags: /Ogsp
xdata$x	ENDS
;	COMDAT ??0AttackAttribute@@QAE@ABU0@@Z
_TEXT	SEGMENT
_this$ = -16						; size = 4
__$EHRec$ = -12						; size = 12
___that$ = 8						; size = 4
??0AttackAttribute@@QAE@ABU0@@Z PROC			; AttackAttribute::AttackAttribute, COMDAT
; _this$ = ecx
  00000	6a 04		 push	 4
  00002	b8 00 00 00 00	 mov	 eax, __ehhandler$??0AttackAttribute@@QAE@ABU0@@Z
  00007	e8 00 00 00 00	 call	 __EH_prolog3
  0000c	8b f1		 mov	 esi, ecx
  0000e	89 75 f0	 mov	 DWORD PTR _this$[ebp], esi
  00011	8b 7d 08	 mov	 edi, DWORD PTR ___that$[ebp]
  00014	8b 1d 00 00 00
	00		 mov	 ebx, DWORD PTR __imp_??0ioHashString@@QAE@ABV0@@Z
  0001a	57		 push	 edi
  0001b	ff d3		 call	 ebx
  0001d	d9 47 10	 fld	 DWORD PTR [edi+16]
  00020	83 65 fc 00	 and	 DWORD PTR __$EHRec$[ebp+8], 0
  00024	d9 5e 10	 fstp	 DWORD PTR [esi+16]
  00027	8d 47 14	 lea	 eax, DWORD PTR [edi+20]
  0002a	50		 push	 eax
  0002b	8d 4e 14	 lea	 ecx, DWORD PTR [esi+20]
  0002e	ff d3		 call	 ebx
  00030	d9 47 24	 fld	 DWORD PTR [edi+36]
  00033	8d 47 28	 lea	 eax, DWORD PTR [edi+40]
  00036	d9 5e 24	 fstp	 DWORD PTR [esi+36]
  00039	50		 push	 eax
  0003a	8d 4e 28	 lea	 ecx, DWORD PTR [esi+40]
  0003d	c6 45 fc 01	 mov	 BYTE PTR __$EHRec$[ebp+8], 1
  00041	e8 00 00 00 00	 call	 ??0?$vector@UWeaponInfo@@V?$allocator@UWeaponInfo@@@std@@@std@@QAE@ABV01@@Z ; std::vector<WeaponInfo,std::allocator<WeaponInfo> >::vector<WeaponInfo,std::allocator<WeaponInfo> >
  00046	8d 47 38	 lea	 eax, DWORD PTR [edi+56]
  00049	50		 push	 eax
  0004a	8d 4e 38	 lea	 ecx, DWORD PTR [esi+56]
  0004d	c6 45 fc 02	 mov	 BYTE PTR __$EHRec$[ebp+8], 2
  00051	e8 00 00 00 00	 call	 ??0?$vector@UForceInfo@@V?$allocator@UForceInfo@@@std@@@std@@QAE@ABV01@@Z ; std::vector<ForceInfo,std::allocator<ForceInfo> >::vector<ForceInfo,std::allocator<ForceInfo> >
  00056	8b 47 48	 mov	 eax, DWORD PTR [edi+72]
  00059	89 46 48	 mov	 DWORD PTR [esi+72], eax
  0005c	8b 47 4c	 mov	 eax, DWORD PTR [edi+76]
  0005f	89 46 4c	 mov	 DWORD PTR [esi+76], eax
  00062	8b c6		 mov	 eax, esi
  00064	e8 00 00 00 00	 call	 __EH_epilog3
  00069	c2 04 00	 ret	 4
_TEXT	ENDS
;	COMDAT text$x
text$x	SEGMENT
__unwindfunclet$??0AttackAttribute@@QAE@ABU0@@Z$0:
  00000	8b 4d f0	 mov	 ecx, DWORD PTR _this$[ebp]
  00003	ff 25 00 00 00
	00		 jmp	 DWORD PTR __imp_??1ioHashString@@QAE@XZ
__unwindfunclet$??0AttackAttribute@@QAE@ABU0@@Z$1:
  00009	8b 4d f0	 mov	 ecx, DWORD PTR _this$[ebp]
  0000c	83 c1 14	 add	 ecx, 20			; 00000014H
  0000f	ff 25 00 00 00
	00		 jmp	 DWORD PTR __imp_??1ioHashString@@QAE@XZ
__unwindfunclet$??0AttackAttribute@@QAE@ABU0@@Z$2:
  00015	8b 4d f0	 mov	 ecx, DWORD PTR _this$[ebp]
  00018	83 c1 28	 add	 ecx, 40			; 00000028H
  0001b	e9 00 00 00 00	 jmp	 ??1?$vector@UWeaponInfo@@V?$allocator@UWeaponInfo@@@std@@@std@@QAE@XZ ; std::vector<WeaponInfo,std::allocator<WeaponInfo> >::~vector<WeaponInfo,std::allocator<WeaponInfo> >
__ehhandler$??0AttackAttribute@@QAE@ABU0@@Z:
  00020	8b 54 24 08	 mov	 edx, DWORD PTR [esp+8]
  00024	8d 42 0c	 lea	 eax, DWORD PTR [edx+12]
  00027	8b 4a ec	 mov	 ecx, DWORD PTR [edx-20]
  0002a	33 c8		 xor	 ecx, eax
  0002c	e8 00 00 00 00	 call	 @__security_check_cookie@4
  00031	b8 00 00 00 00	 mov	 eax, OFFSET __ehfuncinfo$??0AttackAttribute@@QAE@ABU0@@Z
  00036	e9 00 00 00 00	 jmp	 ___CxxFrameHandler3
text$x	ENDS
??0AttackAttribute@@QAE@ABU0@@Z ENDP			; AttackAttribute::AttackAttribute
PUBLIC	?Init@ioSpaceMasterAttack@@QAEXXZ		; ioSpaceMasterAttack::Init
; Function compile flags: /Ogsp
; File d:\lost saga for developer\youtube\tutorial\source\src\lsclient\iospacemasterattack.cpp
;	COMDAT ?Init@ioSpaceMasterAttack@@QAEXXZ
_TEXT	SEGMENT
$T548500 = -16						; size = 12
$T559030 = -4						; size = 4
?Init@ioSpaceMasterAttack@@QAEXXZ PROC			; ioSpaceMasterAttack::Init, COMDAT
; _this$ = ecx

; 50   : {

  00000	55		 push	 ebp
  00001	8b ec		 mov	 ebp, esp
  00003	83 ec 10	 sub	 esp, 16			; 00000010H

; 51   : 	m_SkillState					= SS_PRE;
; 52   : 	
; 53   : 	m_dwLoopStartTime				= 0;
; 54   : 	m_dwTargetCatchDelayStartTime	= 0;
; 55   : 
; 56   : 	m_dwSelectWeaponIdx				= 0;
; 57   : 
; 58   : 	m_nTargetThrowCount				= 1;
; 59   : 
; 60   : 	m_vAutoTargetDir				= D3DXVECTOR3( 0.0f, 0.0f, -1.0f );

  00006	0f 57 c0	 xorps	 xmm0, xmm0
  00009	56		 push	 esi
  0000a	57		 push	 edi
  0000b	f3 0f 11 45 f0	 movss	 DWORD PTR $T548500[ebp], xmm0
  00010	f3 0f 11 45 f4	 movss	 DWORD PTR $T548500[ebp+4], xmm0
  00015	f3 0f 10 05 00
	00 00 00	 movss	 xmm0, DWORD PTR __real@bf800000
  0001d	f3 0f 11 45 f8	 movss	 DWORD PTR $T548500[ebp+8], xmm0
  00022	8d b9 00 11 00
	00		 lea	 edi, DWORD PTR [ecx+4352]
  00028	8d 75 f0	 lea	 esi, DWORD PTR $T548500[ebp]
  0002b	a5		 movsd
  0002c	33 c0		 xor	 eax, eax
  0002e	a5		 movsd
  0002f	89 81 e4 10 00
	00		 mov	 DWORD PTR [ecx+4324], eax
  00035	89 81 90 11 00
	00		 mov	 DWORD PTR [ecx+4496], eax
  0003b	89 81 dc 11 00
	00		 mov	 DWORD PTR [ecx+4572], eax
  00041	89 81 a8 11 00
	00		 mov	 DWORD PTR [ecx+4520], eax
  00047	c7 81 bc 11 00
	00 01 00 00 00	 mov	 DWORD PTR [ecx+4540], 1

; 61   : 
; 62   : 	m_TargetCharNameList.clear();

  00051	81 c1 f4 11 00
	00		 add	 ecx, 4596		; 000011f4H
  00057	a5		 movsd
  00058	8b 41 04	 mov	 eax, DWORD PTR [ecx+4]
  0005b	8b 11		 mov	 edx, DWORD PTR [ecx]
  0005d	50		 push	 eax
  0005e	52		 push	 edx
  0005f	8d 45 fc	 lea	 eax, DWORD PTR $T559030[ebp]
  00062	50		 push	 eax
  00063	e8 00 00 00 00	 call	 ?erase@?$vector@VioHashString@@V?$allocator@VioHashString@@@std@@@std@@QAE?AV?$_Vector_iterator@V?$_Vector_val@VioHashString@@V?$allocator@VioHashString@@@std@@@std@@@2@V?$_Vector_const_iterator@V?$_Vector_val@VioHashString@@V?$allocator@VioHashString@@@std@@@std@@@2@0@Z ; std::vector<ioHashString,std::allocator<ioHashString> >::erase
  00068	5f		 pop	 edi
  00069	5e		 pop	 esi

; 63   : }

  0006a	c9		 leave
  0006b	c3		 ret	 0
?Init@ioSpaceMasterAttack@@QAEXXZ ENDP			; ioSpaceMasterAttack::Init
_TEXT	ENDS
PUBLIC	__$ArrayPad$
PUBLIC	?OnSkillStart@ioSpaceMasterAttack@@UAE_NPAVioBaseChar@@@Z ; ioSpaceMasterAttack::OnSkillStart
EXTRN	_D3DXVec3Normalize@8:PROC
EXTRN	?GetMidPositionByRate@ioGameEntity@@QBE?AUD3DXVECTOR3@@M@Z:PROC ; ioGameEntity::GetMidPositionByRate
EXTRN	?GetBaseChar@ioBaseChar@@QAEPAV1@ABVioHashString@@@Z:PROC ; ioBaseChar::GetBaseChar
EXTRN	?SetJumpPower@ioBaseChar@@QAEXM@Z:PROC		; ioBaseChar::SetJumpPower
EXTRN	?ShowWeaponItemMesh@ioBaseChar@@QAEX_N0@Z:PROC	; ioBaseChar::ShowWeaponItemMesh
EXTRN	?OnSkillStart@ioAttackSkill@@UAE_NPAVioBaseChar@@@Z:PROC ; ioAttackSkill::OnSkillStart
; Function compile flags: /Ogsp
;	COMDAT ?OnSkillStart@ioSpaceMasterAttack@@UAE_NPAVioBaseChar@@@Z
_TEXT	SEGMENT
tv395 = -56						; size = 4
_pTarget$ = -56						; size = 4
tv367 = -52						; size = 4
tv363 = -52						; size = 4
$T559090 = -52						; size = 4
tv385 = -48						; size = 4
tv381 = -48						; size = 4
tv377 = -48						; size = 4
tv371 = -48						; size = 4
_value$559066 = -48					; size = 4
_value$559053 = -41					; size = 1
$T548629 = -40						; size = 12
$T548627 = -40						; size = 12
$T548626 = -28						; size = 12
$T548630 = -16						; size = 12
$T548625 = -16						; size = 12
__$ArrayPad$ = -4					; size = 4
_pChar$ = 8						; size = 4
?OnSkillStart@ioSpaceMasterAttack@@UAE_NPAVioBaseChar@@@Z PROC ; ioSpaceMasterAttack::OnSkillStart, COMDAT
; _this$ = ecx

; 113  : {

  00000	55		 push	 ebp
  00001	8b ec		 mov	 ebp, esp
  00003	83 ec 38	 sub	 esp, 56			; 00000038H
  00006	a1 00 00 00 00	 mov	 eax, DWORD PTR ___security_cookie
  0000b	33 c5		 xor	 eax, ebp
  0000d	89 45 fc	 mov	 DWORD PTR __$ArrayPad$[ebp], eax
  00010	56		 push	 esi
  00011	8b 75 08	 mov	 esi, DWORD PTR _pChar$[ebp]
  00014	57		 push	 edi

; 114  : 	if( !ioAttackSkill::OnSkillStart( pChar ) )

  00015	56		 push	 esi
  00016	8b f9		 mov	 edi, ecx
  00018	e8 00 00 00 00	 call	 ?OnSkillStart@ioAttackSkill@@UAE_NPAVioBaseChar@@@Z ; ioAttackSkill::OnSkillStart
  0001d	84 c0		 test	 al, al
  0001f	0f 84 d4 01 00
	00		 je	 $LN7@OnSkillSta
$LN6@OnSkillSta:
  00025	53		 push	 ebx

; 115  : 		return false;
; 116  : 
; 117  : 	RemoveWeapon( pChar );

  00026	56		 push	 esi
  00027	8b cf		 mov	 ecx, edi
  00029	e8 00 00 00 00	 call	 ?RemoveWeapon@ioSpaceMasterAttack@@IAEXPAVioBaseChar@@@Z ; ioSpaceMasterAttack::RemoveWeapon

; 118  : 
; 119  : 	Init();

  0002e	8b cf		 mov	 ecx, edi
  00030	e8 00 00 00 00	 call	 ?Init@ioSpaceMasterAttack@@QAEXXZ ; ioSpaceMasterAttack::Init

; 120  : 	
; 121  : 	//    
; 122  : 	if( m_bUseItemMesh )

  00035	33 db		 xor	 ebx, ebx
  00037	38 9f 08 0f 00
	00		 cmp	 BYTE PTR [edi+3848], bl
  0003d	74 09		 je	 SHORT $LN5@OnSkillSta

; 123  : 	{
; 124  : 		pChar->ShowWeaponItemMesh( false );

  0003f	53		 push	 ebx
  00040	53		 push	 ebx
  00041	8b ce		 mov	 ecx, esi
  00043	e8 00 00 00 00	 call	 ?ShowWeaponItemMesh@ioBaseChar@@QAEX_N0@Z ; ioBaseChar::ShowWeaponItemMesh
$LN5@OnSkillSta:

; 125  : 	}
; 126  : 
; 127  : 	if( m_bInitJumpPower )

  00048	8d 45 d7	 lea	 eax, DWORD PTR _value$559053[ebp]
  0004b	50		 push	 eax
  0004c	8d 8f f4 05 00
	00		 lea	 ecx, DWORD PTR [edi+1524]
  00052	e8 00 00 00 00	 call	 ?DecryptValueToPool@?$CEncrypt@_N@@QAEXPA_N@Z ; CEncrypt<bool>::DecryptValueToPool
  00057	0f 57 c0	 xorps	 xmm0, xmm0
  0005a	38 5d d7	 cmp	 BYTE PTR _value$559053[ebp], bl
  0005d	74 1c		 je	 SHORT $LN15@OnSkillSta

; 128  : 	{
; 129  : 		pChar->SetCurJumpPowerAmt( 0.0f );
; 130  : 		pChar->SetGravityAmt( 0.0f );

  0005f	8d 45 d0	 lea	 eax, DWORD PTR _value$559066[ebp]
  00062	50		 push	 eax
  00063	8d 8e e8 0b 00
	00		 lea	 ecx, DWORD PTR [esi+3048]
  00069	f3 0f 11 86 90
	0e 00 00	 movss	 DWORD PTR [esi+3728], xmm0
  00071	f3 0f 11 45 d0	 movss	 DWORD PTR _value$559066[ebp], xmm0
  00076	e8 00 00 00 00	 call	 ?EncryptValueToPool@?$CEncrypt@M@@AAEXPBD@Z ; CEncrypt<float>::EncryptValueToPool
$LN15@OnSkillSta:

; 131  : 	}
; 132  : 
; 133  : 	if( GetSkillUseType() == SUT_NORMAL && 0 < m_dwSkillJumpPower )

  0007b	39 5f 74	 cmp	 DWORD PTR [edi+116], ebx
  0007e	75 25		 jne	 SHORT $LN3@OnSkillSta
  00080	8b 87 f0 10 00
	00		 mov	 eax, DWORD PTR [edi+4336]
  00086	3b c3		 cmp	 eax, ebx
  00088	76 1b		 jbe	 SHORT $LN3@OnSkillSta

; 134  : 	{
; 135  : 		pChar->SetJumpPower( m_dwSkillJumpPower );

  0008a	89 45 c8	 mov	 DWORD PTR tv395[ebp], eax
  0008d	db 45 c8	 fild	 DWORD PTR tv395[ebp]
  00090	85 c0		 test	 eax, eax
  00092	79 06		 jns	 SHORT $LN37@OnSkillSta
  00094	d8 05 00 00 00
	00		 fadd	 DWORD PTR __real@4f800000
$LN37@OnSkillSta:
  0009a	51		 push	 ecx
  0009b	8b ce		 mov	 ecx, esi
  0009d	d9 1c 24	 fstp	 DWORD PTR [esp]
  000a0	e8 00 00 00 00	 call	 ?SetJumpPower@ioBaseChar@@QAEXM@Z ; ioBaseChar::SetJumpPower
$LN3@OnSkillSta:

; 136  : 	}
; 137  : 
; 138  : 	//AutoTarget Direction
; 139  : 	ioBaseChar* pTarget = pChar->GetBaseChar( pChar->GetAutoTargetName() );

  000a5	8d 86 58 0c 00
	00		 lea	 eax, DWORD PTR [esi+3160]
  000ab	50		 push	 eax
  000ac	8b ce		 mov	 ecx, esi
  000ae	e8 00 00 00 00	 call	 ?GetBaseChar@ioBaseChar@@QAEPAV1@ABVioHashString@@@Z ; ioBaseChar::GetBaseChar
  000b3	89 45 c8	 mov	 DWORD PTR _pTarget$[ebp], eax

; 140  : 	if( pTarget )

  000b6	3b c3		 cmp	 eax, ebx
  000b8	0f 84 f2 00 00
	00		 je	 $LN2@OnSkillSta

; 141  : 	{
; 142  : 		m_vAutoTargetDir = pTarget->GetMidPositionByRate() - pChar->GetMidPositionByRate();

  000be	b8 05 00 00 00	 mov	 eax, 5
  000c3	8b c8		 mov	 ecx, eax
  000c5	b8 0a 00 00 00	 mov	 eax, 10			; 0000000aH
  000ca	8b d0		 mov	 edx, eax
  000cc	b8 05 00 00 00	 mov	 eax, 5
  000d1	8b d8		 mov	 ebx, eax
  000d3	b8 0a 00 00 00	 mov	 eax, 10			; 0000000aH
  000d8	89 4d d0	 mov	 DWORD PTR tv385[ebp], ecx
  000db	db 45 d0	 fild	 DWORD PTR tv385[ebp]
  000de	89 45 cc	 mov	 DWORD PTR $T559090[ebp], eax
  000e1	85 c9		 test	 ecx, ecx
  000e3	79 06		 jns	 SHORT $LN38@OnSkillSta
  000e5	d8 05 00 00 00
	00		 fadd	 DWORD PTR __real@4f800000
$LN38@OnSkillSta:
  000eb	89 55 d0	 mov	 DWORD PTR tv381[ebp], edx
  000ee	db 45 d0	 fild	 DWORD PTR tv381[ebp]
  000f1	85 d2		 test	 edx, edx
  000f3	79 06		 jns	 SHORT $LN39@OnSkillSta
  000f5	d8 05 00 00 00
	00		 fadd	 DWORD PTR __real@4f800000
$LN39@OnSkillSta:
  000fb	de f9		 fdivp	 ST(1), ST(0)
  000fd	51		 push	 ecx
  000fe	8d 45 e4	 lea	 eax, DWORD PTR $T548626[ebp]
  00101	8b ce		 mov	 ecx, esi
  00103	d9 5d d0	 fstp	 DWORD PTR tv377[ebp]
  00106	d9 45 d0	 fld	 DWORD PTR tv377[ebp]
  00109	d9 1c 24	 fstp	 DWORD PTR [esp]
  0010c	50		 push	 eax
  0010d	e8 00 00 00 00	 call	 ?GetMidPositionByRate@ioGameEntity@@QBE?AUD3DXVECTOR3@@M@Z ; ioGameEntity::GetMidPositionByRate
  00112	89 5d d0	 mov	 DWORD PTR tv371[ebp], ebx
  00115	db 45 d0	 fild	 DWORD PTR tv371[ebp]
  00118	8b f0		 mov	 esi, eax
  0011a	85 db		 test	 ebx, ebx
  0011c	79 06		 jns	 SHORT $LN40@OnSkillSta
  0011e	d8 05 00 00 00
	00		 fadd	 DWORD PTR __real@4f800000
$LN40@OnSkillSta:
  00124	8b 45 cc	 mov	 eax, DWORD PTR $T559090[ebp]
  00127	db 45 cc	 fild	 DWORD PTR $T559090[ebp]
  0012a	85 c0		 test	 eax, eax
  0012c	79 06		 jns	 SHORT $LN41@OnSkillSta
  0012e	d8 05 00 00 00
	00		 fadd	 DWORD PTR __real@4f800000
$LN41@OnSkillSta:
  00134	de f9		 fdivp	 ST(1), ST(0)
  00136	51		 push	 ecx
  00137	8b 4d c8	 mov	 ecx, DWORD PTR _pTarget$[ebp]
  0013a	8d 45 f0	 lea	 eax, DWORD PTR $T548625[ebp]
  0013d	d9 5d cc	 fstp	 DWORD PTR tv363[ebp]
  00140	d9 45 cc	 fld	 DWORD PTR tv363[ebp]
  00143	d9 1c 24	 fstp	 DWORD PTR [esp]
  00146	50		 push	 eax
  00147	e8 00 00 00 00	 call	 ?GetMidPositionByRate@ioGameEntity@@QBE?AUD3DXVECTOR3@@M@Z ; ioGameEntity::GetMidPositionByRate
  0014c	f3 0f 10 00	 movss	 xmm0, DWORD PTR [eax]
  00150	f3 0f 10 0e	 movss	 xmm1, DWORD PTR [esi]
  00154	0f 5a c0	 cvtps2pd xmm0, xmm0
  00157	0f 5a c9	 cvtps2pd xmm1, xmm1
  0015a	f2 0f 5c c1	 subsd	 xmm0, xmm1
  0015e	f3 0f 10 4e 04	 movss	 xmm1, DWORD PTR [esi+4]
  00163	66 0f 5a c0	 cvtpd2ps xmm0, xmm0
  00167	f3 0f 11 45 d8	 movss	 DWORD PTR $T548627[ebp], xmm0
  0016c	f3 0f 10 40 04	 movss	 xmm0, DWORD PTR [eax+4]
  00171	0f 5a c0	 cvtps2pd xmm0, xmm0
  00174	0f 5a c9	 cvtps2pd xmm1, xmm1
  00177	f2 0f 5c c1	 subsd	 xmm0, xmm1
  0017b	f3 0f 10 4e 08	 movss	 xmm1, DWORD PTR [esi+8]
  00180	66 0f 5a c0	 cvtpd2ps xmm0, xmm0
  00184	f3 0f 11 45 dc	 movss	 DWORD PTR $T548627[ebp+4], xmm0
  00189	f3 0f 10 40 08	 movss	 xmm0, DWORD PTR [eax+8]
  0018e	8d 87 00 11 00
	00		 lea	 eax, DWORD PTR [edi+4352]
  00194	0f 5a c0	 cvtps2pd xmm0, xmm0
  00197	0f 5a c9	 cvtps2pd xmm1, xmm1
  0019a	f2 0f 5c c1	 subsd	 xmm0, xmm1

; 143  : 		D3DXVec3Normalize( &m_vAutoTargetDir, &m_vAutoTargetDir );

  0019e	50		 push	 eax
  0019f	66 0f 5a c0	 cvtpd2ps xmm0, xmm0
  001a3	f3 0f 11 45 e0	 movss	 DWORD PTR $T548627[ebp+8], xmm0
  001a8	8d 75 d8	 lea	 esi, DWORD PTR $T548627[ebp]
  001ab	8b f8		 mov	 edi, eax
  001ad	50		 push	 eax

; 144  : 	}
; 145  : 	else

  001ae	eb 3e		 jmp	 SHORT $LN42@OnSkillSta
$LN2@OnSkillSta:

; 146  : 	{
; 147  : 		m_vAutoTargetDir = pChar->GetTargetRot() * D3DXVECTOR3( 0.0f, 0.0f, -1.0f );

  001b0	0f 57 c0	 xorps	 xmm0, xmm0
  001b3	8d 45 d8	 lea	 eax, DWORD PTR $T548629[ebp]
  001b6	50		 push	 eax
  001b7	81 c6 a4 06 00
	00		 add	 esi, 1700		; 000006a4H
  001bd	8d 45 f0	 lea	 eax, DWORD PTR $T548630[ebp]
  001c0	f3 0f 11 45 d8	 movss	 DWORD PTR $T548629[ebp], xmm0
  001c5	f3 0f 11 45 dc	 movss	 DWORD PTR $T548629[ebp+4], xmm0
  001ca	f3 0f 10 05 00
	00 00 00	 movss	 xmm0, DWORD PTR __real@bf800000
  001d2	56		 push	 esi
  001d3	50		 push	 eax
  001d4	f3 0f 11 45 e0	 movss	 DWORD PTR $T548629[ebp+8], xmm0
  001d9	ff 15 00 00 00
	00		 call	 DWORD PTR __imp_??D@YA?AUD3DXVECTOR3@@ABUD3DXQUATERNION@@ABU0@@Z
  001df	8d 8f 00 11 00
	00		 lea	 ecx, DWORD PTR [edi+4352]
  001e5	83 c4 0c	 add	 esp, 12			; 0000000cH

; 148  : 		D3DXVec3Normalize( &m_vAutoTargetDir, &m_vAutoTargetDir );

  001e8	51		 push	 ecx
  001e9	8b f0		 mov	 esi, eax
  001eb	8b f9		 mov	 edi, ecx
  001ed	51		 push	 ecx
$LN42@OnSkillSta:

; 146  : 	{
; 147  : 		m_vAutoTargetDir = pChar->GetTargetRot() * D3DXVECTOR3( 0.0f, 0.0f, -1.0f );

  001ee	a5		 movsd
  001ef	a5		 movsd
  001f0	a5		 movsd

; 148  : 		D3DXVec3Normalize( &m_vAutoTargetDir, &m_vAutoTargetDir );

  001f1	e8 00 00 00 00	 call	 _D3DXVec3Normalize@8

; 149  : 	}
; 150  : 
; 151  : 	return true;

  001f6	b0 01		 mov	 al, 1
  001f8	5b		 pop	 ebx
$LN7@OnSkillSta:

; 152  : }

  001f9	8b 4d fc	 mov	 ecx, DWORD PTR __$ArrayPad$[ebp]
  001fc	5f		 pop	 edi
  001fd	33 cd		 xor	 ecx, ebp
  001ff	5e		 pop	 esi
  00200	e8 00 00 00 00	 call	 @__security_check_cookie@4
  00205	c9		 leave
  00206	c2 04 00	 ret	 4
?OnSkillStart@ioSpaceMasterAttack@@UAE_NPAVioBaseChar@@@Z ENDP ; ioSpaceMasterAttack::OnSkillStart
_TEXT	ENDS
PUBLIC	?OnSkillEnd@ioSpaceMasterAttack@@UAEXPAVioBaseChar@@@Z ; ioSpaceMasterAttack::OnSkillEnd
EXTRN	?RestoreSkillWeaponMesh@ioBaseChar@@QAE_NPAVioSkill@@ABVioHashString@@_N2@Z:PROC ; ioBaseChar::RestoreSkillWeaponMesh
EXTRN	?OnSkillEnd@ioAttackSkill@@UAEXPAVioBaseChar@@@Z:PROC ; ioAttackSkill::OnSkillEnd
; Function compile flags: /Ogsp
;	COMDAT ?OnSkillEnd@ioSpaceMasterAttack@@UAEXPAVioBaseChar@@@Z
_TEXT	SEGMENT
_pChar$ = 8						; size = 4
?OnSkillEnd@ioSpaceMasterAttack@@UAEXPAVioBaseChar@@@Z PROC ; ioSpaceMasterAttack::OnSkillEnd, COMDAT
; _this$ = ecx

; 582  : {

  00000	55		 push	 ebp
  00001	8b ec		 mov	 ebp, esp
  00003	53		 push	 ebx

; 583  : 	ioAttackSkill::OnSkillEnd( pChar );

  00004	8b 5d 08	 mov	 ebx, DWORD PTR _pChar$[ebp]
  00007	56		 push	 esi
  00008	57		 push	 edi
  00009	53		 push	 ebx
  0000a	8b f1		 mov	 esi, ecx
  0000c	e8 00 00 00 00	 call	 ?OnSkillEnd@ioAttackSkill@@UAEXPAVioBaseChar@@@Z ; ioAttackSkill::OnSkillEnd

; 584  : 
; 585  : 	if( pChar )

  00011	85 db		 test	 ebx, ebx
  00013	74 17		 je	 SHORT $LN4@OnSkillEnd@2

; 586  : 		SetWeaponDir( pChar, pChar->GetCreator() );

  00015	0f 57 c0	 xorps	 xmm0, xmm0
  00018	51		 push	 ecx
  00019	f3 0f 11 04 24	 movss	 DWORD PTR [esp], xmm0
  0001e	ff b3 44 03 00
	00		 push	 DWORD PTR [ebx+836]
  00024	8b ce		 mov	 ecx, esi
  00026	53		 push	 ebx
  00027	e8 00 00 00 00	 call	 ?SetWeaponDir@ioSpaceMasterAttack@@IAEXPAVioBaseChar@@PAVioPlayStage@@M@Z ; ioSpaceMasterAttack::SetWeaponDir
$LN4@OnSkillEnd@2:

; 587  : 
; 588  : 	if( GetOwnerItem() )

  0002c	8b 8e a4 02 00
	00		 mov	 ecx, DWORD PTR [esi+676]
  00032	85 c9		 test	 ecx, ecx
  00034	74 08		 je	 SHORT $LN3@OnSkillEnd@2

; 589  : 		GetOwnerItem()->ClearCurChargeRateForSkill();

  00036	8b 01		 mov	 eax, DWORD PTR [ecx]
  00038	ff 90 84 00 00
	00		 call	 DWORD PTR [eax+132]
$LN3@OnSkillEnd@2:

; 590  : 
; 591  : 	//  
; 592  : 	if( m_bUseItemMesh )

  0003e	80 be 08 0f 00
	00 00		 cmp	 BYTE PTR [esi+3848], 0
  00045	74 0b		 je	 SHORT $LN2@OnSkillEnd@2

; 593  : 	{
; 594  : 		pChar->ShowWeaponItemMesh( true );

  00047	6a 00		 push	 0
  00049	6a 01		 push	 1
  0004b	8b cb		 mov	 ecx, ebx
  0004d	e8 00 00 00 00	 call	 ?ShowWeaponItemMesh@ioBaseChar@@QAEX_N0@Z ; ioBaseChar::ShowWeaponItemMesh
$LN2@OnSkillEnd@2:

; 595  : 	}
; 596  : 
; 597  : 	if( !m_HandMesh.IsEmpty() )

  00052	8d be f8 0e 00
	00		 lea	 edi, DWORD PTR [esi+3832]
  00058	8b cf		 mov	 ecx, edi
  0005a	ff 15 00 00 00
	00		 call	 DWORD PTR __imp_?IsEmpty@ioHashString@@QBE_NXZ
  00060	84 c0		 test	 al, al
  00062	75 13		 jne	 SHORT $LN1@OnSkillEnd@2

; 598  : 	{
; 599  : 		pChar->RestoreSkillWeaponMesh( this, m_HandMesh, m_bVisibleEquipMesh );

  00064	0f b6 86 09 0f
	00 00		 movzx	 eax, BYTE PTR [esi+3849]
  0006b	6a 00		 push	 0
  0006d	50		 push	 eax
  0006e	57		 push	 edi
  0006f	56		 push	 esi
  00070	8b cb		 mov	 ecx, ebx
  00072	e8 00 00 00 00	 call	 ?RestoreSkillWeaponMesh@ioBaseChar@@QAE_NPAVioSkill@@ABVioHashString@@_N2@Z ; ioBaseChar::RestoreSkillWeaponMesh
$LN1@OnSkillEnd@2:

; 600  : 	}
; 601  : 
; 602  : 	Init();

  00077	8b ce		 mov	 ecx, esi
  00079	e8 00 00 00 00	 call	 ?Init@ioSpaceMasterAttack@@QAEXXZ ; ioSpaceMasterAttack::Init
  0007e	5f		 pop	 edi
  0007f	5e		 pop	 esi
  00080	5b		 pop	 ebx

; 603  : }

  00081	5d		 pop	 ebp
  00082	c2 04 00	 ret	 4
?OnSkillEnd@ioSpaceMasterAttack@@UAEXPAVioBaseChar@@@Z ENDP ; ioSpaceMasterAttack::OnSkillEnd
_TEXT	ENDS
PUBLIC	??4?$vector@VioHashString@@V?$allocator@VioHashString@@@std@@@std@@QAEAAV01@ABV01@@Z ; std::vector<ioHashString,std::allocator<ioHashString> >::operator=
; Function compile flags: /Ogsp
; File c:\program files (x86)\microsoft visual studio 10.0\vc\include\vector
;	COMDAT ??4?$vector@VioHashString@@V?$allocator@VioHashString@@@std@@@std@@QAEAAV01@ABV01@@Z
_TEXT	SEGMENT
tv555 = 8						; size = 4
__Cat$559502 = 8					; size = 1
__Cat$559375 = 8					; size = 1
__Cat$559353 = 8					; size = 1
__Cat$559232 = 8					; size = 1
$T559287 = 8						; size = 4
$T559198 = 8						; size = 4
__Right$ = 8						; size = 4
??4?$vector@VioHashString@@V?$allocator@VioHashString@@@std@@@std@@QAEAAV01@ABV01@@Z PROC ; std::vector<ioHashString,std::allocator<ioHashString> >::operator=, COMDAT
; _this$ = ecx

; 709  : 		{	// assign _Right

  00000	55		 push	 ebp
  00001	8b ec		 mov	 ebp, esp
  00003	56		 push	 esi
  00004	57		 push	 edi

; 710  : 		if (this != &_Right)

  00005	8b 7d 08	 mov	 edi, DWORD PTR __Right$[ebp]
  00008	8b f1		 mov	 esi, ecx
  0000a	3b f7		 cmp	 esi, edi
  0000c	0f 84 fd 00 00
	00		 je	 $LN1@operator

; 711  : 			{	// worth doing
; 712  : 			this->_Orphan_all();

  00012	53		 push	 ebx
  00013	ff 15 00 00 00
	00		 call	 DWORD PTR __imp_?_Orphan_all@_Container_base0@std@@QAEXXZ

; 713  : 
; 714  : 			if (_Right.size() == 0)

  00019	8b 5f 04	 mov	 ebx, DWORD PTR [edi+4]

; 715  : 				clear();	// new sequence empty, erase existing sequence

  0001c	8b 46 04	 mov	 eax, DWORD PTR [esi+4]
  0001f	8b cb		 mov	 ecx, ebx
  00021	2b 0f		 sub	 ecx, DWORD PTR [edi]
  00023	c1 f9 04	 sar	 ecx, 4
  00026	85 c9		 test	 ecx, ecx
  00028	75 14		 jne	 SHORT $LN8@operator
  0002a	8b 0e		 mov	 ecx, DWORD PTR [esi]
  0002c	50		 push	 eax
  0002d	51		 push	 ecx
  0002e	8d 45 08	 lea	 eax, DWORD PTR $T559198[ebp]
  00031	50		 push	 eax
  00032	8b ce		 mov	 ecx, esi
  00034	e8 00 00 00 00	 call	 ?erase@?$vector@VioHashString@@V?$allocator@VioHashString@@@std@@@std@@QAE?AV?$_Vector_iterator@V?$_Vector_val@VioHashString@@V?$allocator@VioHashString@@@std@@@std@@@2@V?$_Vector_const_iterator@V?$_Vector_val@VioHashString@@V?$allocator@VioHashString@@@std@@@std@@@2@0@Z ; std::vector<ioHashString,std::allocator<ioHashString> >::erase

; 716  : 			else if (_Right.size() <= size())

  00039	e9 d0 00 00 00	 jmp	 $LN113@operator
$LN8@operator:
  0003e	8b 16		 mov	 edx, DWORD PTR [esi]
  00040	89 45 08	 mov	 DWORD PTR tv555[ebp], eax
  00043	2b c2		 sub	 eax, edx
  00045	c1 f8 04	 sar	 eax, 4
  00048	3b c8		 cmp	 ecx, eax
  0004a	77 3a		 ja	 SHORT $LN6@operator

; 717  : 				{	// enough elements, copy new and destroy old
; 718  : 				pointer _Ptr = _STD _Copy_impl(_Right._Myfirst, _Right._Mylast,
; 719  : 					this->_Myfirst);	// copy new

  0004c	ff 75 08	 push	 DWORD PTR __Cat$559232[ebp]
  0004f	52		 push	 edx
  00050	53		 push	 ebx
  00051	ff 37		 push	 DWORD PTR [edi]
  00053	e8 00 00 00 00	 call	 ??$_Copy_impl@PAVioHashString@@PAV1@@std@@YAPAVioHashString@@PAV1@00U_Nonscalar_ptr_iterator_tag@0@@Z ; std::_Copy_impl<ioHashString *,ioHashString *>

; 720  : 				_Destroy(_Ptr, this->_Mylast);	// destroy old

  00058	8b 5e 04	 mov	 ebx, DWORD PTR [esi+4]
  0005b	83 c4 10	 add	 esp, 16			; 00000010H
  0005e	89 45 08	 mov	 DWORD PTR $T559287[ebp], eax
  00061	3b c3		 cmp	 eax, ebx
  00063	74 12		 je	 SHORT $LN46@operator
$LL112@operator:
  00065	8b 4d 08	 mov	 ecx, DWORD PTR $T559287[ebp]
  00068	ff 15 00 00 00
	00		 call	 DWORD PTR __imp_??1ioHashString@@QAE@XZ
  0006e	83 45 08 10	 add	 DWORD PTR $T559287[ebp], 16 ; 00000010H
  00072	39 5d 08	 cmp	 DWORD PTR $T559287[ebp], ebx
  00075	75 ee		 jne	 SHORT $LL112@operator
$LN46@operator:

; 721  : 				this->_Mylast = this->_Myfirst + _Right.size();

  00077	8b 47 04	 mov	 eax, DWORD PTR [edi+4]
  0007a	2b 07		 sub	 eax, DWORD PTR [edi]
  0007c	83 e0 f0	 and	 eax, -16		; fffffff0H
  0007f	03 06		 add	 eax, DWORD PTR [esi]

; 722  : 				}
; 723  : 			else if (_Right.size() <= capacity())

  00081	e9 85 00 00 00	 jmp	 $LN114@operator
$LN6@operator:
  00086	8b 5e 08	 mov	 ebx, DWORD PTR [esi+8]
  00089	2b da		 sub	 ebx, edx
  0008b	c1 fb 04	 sar	 ebx, 4
  0008e	3b cb		 cmp	 ecx, ebx
  00090	77 2c		 ja	 SHORT $LN4@operator

; 724  : 				{	// enough room, copy and construct new
; 725  : 				pointer _Ptr = _Right._Myfirst + size();
; 726  : 				_STD _Copy_impl(_Right._Myfirst, _Ptr, this->_Myfirst);

  00092	ff 75 08	 push	 DWORD PTR __Cat$559353[ebp]
  00095	8b 0f		 mov	 ecx, DWORD PTR [edi]
  00097	03 c0		 add	 eax, eax
  00099	52		 push	 edx
  0009a	8d 1c c1	 lea	 ebx, DWORD PTR [ecx+eax*8]
  0009d	53		 push	 ebx
  0009e	51		 push	 ecx
  0009f	e8 00 00 00 00	 call	 ??$_Copy_impl@PAVioHashString@@PAV1@@std@@YAPAVioHashString@@PAV1@00U_Nonscalar_ptr_iterator_tag@0@@Z ; std::_Copy_impl<ioHashString *,ioHashString *>

; 727  : 				this->_Mylast = _Ucopy(_Ptr, _Right._Mylast, this->_Mylast);

  000a4	ff 75 08	 push	 DWORD PTR __Cat$559375[ebp]
  000a7	8b 46 04	 mov	 eax, DWORD PTR [esi+4]
  000aa	8b 7f 04	 mov	 edi, DWORD PTR [edi+4]
  000ad	8d 4e 0c	 lea	 ecx, DWORD PTR [esi+12]
  000b0	51		 push	 ecx
  000b1	50		 push	 eax
  000b2	57		 push	 edi
  000b3	53		 push	 ebx
  000b4	e8 00 00 00 00	 call	 ??$_Uninit_copy@PAVioHashString@@PAV1@V?$allocator@VioHashString@@@std@@@std@@YAPAVioHashString@@PAV1@00AAV?$allocator@VioHashString@@@0@U_Nonscalar_ptr_iterator_tag@0@@Z ; std::_Uninit_copy<ioHashString *,ioHashString *,std::allocator<ioHashString> >
  000b9	83 c4 24	 add	 esp, 36			; 00000024H

; 728  : 				}
; 729  : 			else

  000bc	eb 4d		 jmp	 SHORT $LN114@operator
$LN4@operator:

; 730  : 				{	// not enough room, allocate new array and construct new
; 731  : 				if (this->_Myfirst != 0)

  000be	85 d2		 test	 edx, edx
  000c0	74 1c		 je	 SHORT $LN98@operator

; 732  : 					{	// discard old array
; 733  : 					_Destroy(this->_Myfirst, this->_Mylast);

  000c2	8b da		 mov	 ebx, edx
  000c4	eb 0b		 jmp	 SHORT $LN115@operator
$LL86@operator:
  000c6	8b cb		 mov	 ecx, ebx
  000c8	ff 15 00 00 00
	00		 call	 DWORD PTR __imp_??1ioHashString@@QAE@XZ
  000ce	83 c3 10	 add	 ebx, 16			; 00000010H
$LN115@operator:
  000d1	3b 5d 08	 cmp	 ebx, DWORD PTR tv555[ebp]
  000d4	75 f0		 jne	 SHORT $LL86@operator

; 734  : 					this->_Alval.deallocate(this->_Myfirst,
; 735  : 						this->_Myend - this->_Myfirst);

  000d6	ff 36		 push	 DWORD PTR [esi]
  000d8	e8 00 00 00 00	 call	 ??3@YAXPAX@Z		; operator delete
  000dd	59		 pop	 ecx
$LN98@operator:

; 736  : 					}
; 737  : 				if (_Buy(_Right.size()))

  000de	8b 47 04	 mov	 eax, DWORD PTR [edi+4]
  000e1	2b 07		 sub	 eax, DWORD PTR [edi]
  000e3	8b ce		 mov	 ecx, esi
  000e5	c1 f8 04	 sar	 eax, 4
  000e8	50		 push	 eax
  000e9	e8 00 00 00 00	 call	 ?_Buy@?$vector@VioHashString@@V?$allocator@VioHashString@@@std@@@std@@IAE_NI@Z ; std::vector<ioHashString,std::allocator<ioHashString> >::_Buy
  000ee	84 c0		 test	 al, al
  000f0	74 1c		 je	 SHORT $LN113@operator

; 738  : 					this->_Mylast = _Ucopy(_Right._Myfirst, _Right._Mylast,
; 739  : 						this->_Myfirst);

  000f2	ff 75 08	 push	 DWORD PTR __Cat$559502[ebp]
  000f5	8b 06		 mov	 eax, DWORD PTR [esi]
  000f7	8b 4f 04	 mov	 ecx, DWORD PTR [edi+4]
  000fa	8b 3f		 mov	 edi, DWORD PTR [edi]
  000fc	8d 56 0c	 lea	 edx, DWORD PTR [esi+12]
  000ff	52		 push	 edx
  00100	50		 push	 eax
  00101	51		 push	 ecx
  00102	57		 push	 edi
  00103	e8 00 00 00 00	 call	 ??$_Uninit_copy@PAVioHashString@@PAV1@V?$allocator@VioHashString@@@std@@@std@@YAPAVioHashString@@PAV1@00AAV?$allocator@VioHashString@@@0@U_Nonscalar_ptr_iterator_tag@0@@Z ; std::_Uninit_copy<ioHashString *,ioHashString *,std::allocator<ioHashString> >
  00108	83 c4 14	 add	 esp, 20			; 00000014H
$LN114@operator:
  0010b	89 46 04	 mov	 DWORD PTR [esi+4], eax
$LN113@operator:
  0010e	5b		 pop	 ebx
$LN1@operator:
  0010f	5f		 pop	 edi

; 740  : 				}
; 741  : 			}
; 742  : 		return (*this);

  00110	8b c6		 mov	 eax, esi
  00112	5e		 pop	 esi

; 743  : 		}

  00113	5d		 pop	 ebp
  00114	c2 04 00	 ret	 4
??4?$vector@VioHashString@@V?$allocator@VioHashString@@@std@@@std@@QAEAAV01@ABV01@@Z ENDP ; std::vector<ioHashString,std::allocator<ioHashString> >::operator=
_TEXT	ENDS
PUBLIC	?push_back@?$vector@VioHashString@@V?$allocator@VioHashString@@@std@@@std@@QAEXABVioHashString@@@Z ; std::vector<ioHashString,std::allocator<ioHashString> >::push_back
; Function compile flags: /Ogsp
;	COMDAT ?push_back@?$vector@VioHashString@@V?$allocator@VioHashString@@@std@@@std@@QAEXABVioHashString@@@Z
_TEXT	SEGMENT
__Val$ = 8						; size = 4
?push_back@?$vector@VioHashString@@V?$allocator@VioHashString@@@std@@@std@@QAEXABVioHashString@@@Z PROC ; std::vector<ioHashString,std::allocator<ioHashString> >::push_back, COMDAT
; _this$ = ecx

; 976  : 		{	// insert element at end

  00000	55		 push	 ebp
  00001	8b ec		 mov	 ebp, esp
  00003	56		 push	 esi
  00004	8b f1		 mov	 esi, ecx

; 977  : 		if (_Inside(_STD addressof(_Val)))

  00006	8b 46 04	 mov	 eax, DWORD PTR [esi+4]
  00009	57		 push	 edi
  0000a	8b 7d 08	 mov	 edi, DWORD PTR __Val$[ebp]
  0000d	3b f8		 cmp	 edi, eax
  0000f	73 29		 jae	 SHORT $LN4@push_back@2
  00011	8b 0e		 mov	 ecx, DWORD PTR [esi]
  00013	3b cf		 cmp	 ecx, edi
  00015	77 23		 ja	 SHORT $LN4@push_back@2

; 978  : 			{	// push back an element
; 979  : 			size_type _Idx = _STD addressof(_Val) - this->_Myfirst;

  00017	2b f9		 sub	 edi, ecx

; 980  : 			if (this->_Mylast == this->_Myend)

  00019	3b 46 08	 cmp	 eax, DWORD PTR [esi+8]
  0001c	75 09		 jne	 SHORT $LN3@push_back@2

; 981  : 				_Reserve(1);

  0001e	6a 01		 push	 1
  00020	8b ce		 mov	 ecx, esi
  00022	e8 00 00 00 00	 call	 ?_Reserve@?$vector@VioHashString@@V?$allocator@VioHashString@@@std@@@std@@IAEXI@Z ; std::vector<ioHashString,std::allocator<ioHashString> >::_Reserve
$LN3@push_back@2:

; 982  : 			_Orphan_range(this->_Mylast, this->_Mylast);
; 983  : 			_Cons_val(this->_Alval,
; 984  : 				this->_Mylast,
; 985  : 				this->_Myfirst[_Idx]);

  00027	83 e7 f0	 and	 edi, -16		; fffffff0H
  0002a	03 3e		 add	 edi, DWORD PTR [esi]
  0002c	8d 4e 0c	 lea	 ecx, DWORD PTR [esi+12]
  0002f	57		 push	 edi
  00030	ff 76 04	 push	 DWORD PTR [esi+4]
  00033	e8 00 00 00 00	 call	 ??$construct@AAVioHashString@@@?$allocator@VioHashString@@@std@@QAEXPAVioHashString@@AAV2@@Z ; std::allocator<ioHashString>::construct<ioHashString &>

; 986  : 			++this->_Mylast;
; 987  : 			}
; 988  : 		else

  00038	eb 19		 jmp	 SHORT $LN30@push_back@2
$LN4@push_back@2:

; 989  : 			{	// push back a non-element
; 990  : 			if (this->_Mylast == this->_Myend)

  0003a	3b 46 08	 cmp	 eax, DWORD PTR [esi+8]
  0003d	75 09		 jne	 SHORT $LN1@push_back@2

; 991  : 				_Reserve(1);

  0003f	6a 01		 push	 1
  00041	8b ce		 mov	 ecx, esi
  00043	e8 00 00 00 00	 call	 ?_Reserve@?$vector@VioHashString@@V?$allocator@VioHashString@@@std@@@std@@IAEXI@Z ; std::vector<ioHashString,std::allocator<ioHashString> >::_Reserve
$LN1@push_back@2:

; 992  : 			_Orphan_range(this->_Mylast, this->_Mylast);
; 993  : 			_Cons_val(this->_Alval,
; 994  : 				this->_Mylast,
; 995  : 				_Val);

  00048	57		 push	 edi
  00049	ff 76 04	 push	 DWORD PTR [esi+4]
  0004c	e8 00 00 00 00	 call	 ??$_Construct@VioHashString@@ABV1@@std@@YAXPAVioHashString@@ABV1@@Z ; std::_Construct<ioHashString,ioHashString const &>
  00051	59		 pop	 ecx
  00052	59		 pop	 ecx
$LN30@push_back@2:

; 996  : 			++this->_Mylast;

  00053	83 46 04 10	 add	 DWORD PTR [esi+4], 16	; 00000010H
  00057	5f		 pop	 edi
  00058	5e		 pop	 esi

; 997  : 			}
; 998  : 		}

  00059	5d		 pop	 ebp
  0005a	c2 04 00	 ret	 4
?push_back@?$vector@VioHashString@@V?$allocator@VioHashString@@@std@@@std@@QAEXABVioHashString@@@Z ENDP ; std::vector<ioHashString,std::allocator<ioHashString> >::push_back
_TEXT	ENDS
PUBLIC	??0AttackAttribute@@QAE@XZ			; AttackAttribute::AttackAttribute
EXTRN	?Init@AttackAttribute@@QAEXXZ:PROC		; AttackAttribute::Init
EXTRN	__imp_??0ioHashString@@QAE@XZ:PROC
;	COMDAT xdata$x
; File c:\program files (x86)\microsoft visual studio 10.0\vc\include\xmemory
xdata$x	SEGMENT
__unwindtable$??0AttackAttribute@@QAE@XZ DD 0ffffffffH
	DD	FLAT:__unwindfunclet$??0AttackAttribute@@QAE@XZ$0
	DD	00H
	DD	FLAT:__unwindfunclet$??0AttackAttribute@@QAE@XZ$1
	DD	01H
	DD	FLAT:__unwindfunclet$??0AttackAttribute@@QAE@XZ$2
	DD	02H
	DD	FLAT:__unwindfunclet$??0AttackAttribute@@QAE@XZ$3
__ehfuncinfo$??0AttackAttribute@@QAE@XZ DD 019930522H
	DD	04H
	DD	FLAT:__unwindtable$??0AttackAttribute@@QAE@XZ
	DD	2 DUP(00H)
	DD	2 DUP(00H)
	DD	00H
	DD	01H
; Function compile flags: /Ogsp
; File d:\lost saga for developer\youtube\tutorial\source\src\lsclient\ioattackattribute.h
xdata$x	ENDS
;	COMDAT ??0AttackAttribute@@QAE@XZ
_TEXT	SEGMENT
_this$ = -16						; size = 4
__$EHRec$ = -12						; size = 12
??0AttackAttribute@@QAE@XZ PROC				; AttackAttribute::AttackAttribute, COMDAT
; _this$ = ecx

; 107  : 	AttackAttribute()

  00000	6a 04		 push	 4
  00002	b8 00 00 00 00	 mov	 eax, __ehhandler$??0AttackAttribute@@QAE@XZ
  00007	e8 00 00 00 00	 call	 __EH_prolog3
  0000c	8b f1		 mov	 esi, ecx
  0000e	89 75 f0	 mov	 DWORD PTR _this$[ebp], esi
  00011	8b 3d 00 00 00
	00		 mov	 edi, DWORD PTR __imp_??0ioHashString@@QAE@XZ
  00017	ff d7		 call	 edi
  00019	33 db		 xor	 ebx, ebx
  0001b	8d 4e 14	 lea	 ecx, DWORD PTR [esi+20]
  0001e	89 5d fc	 mov	 DWORD PTR __$EHRec$[ebp+8], ebx
  00021	ff d7		 call	 edi
  00023	89 5e 28	 mov	 DWORD PTR [esi+40], ebx
  00026	89 5e 2c	 mov	 DWORD PTR [esi+44], ebx
  00029	89 5e 30	 mov	 DWORD PTR [esi+48], ebx
  0002c	89 5e 38	 mov	 DWORD PTR [esi+56], ebx
  0002f	89 5e 3c	 mov	 DWORD PTR [esi+60], ebx
  00032	89 5e 40	 mov	 DWORD PTR [esi+64], ebx

; 108  : 	{
; 109  : 		Init();

  00035	8b ce		 mov	 ecx, esi
  00037	c6 45 fc 03	 mov	 BYTE PTR __$EHRec$[ebp+8], 3
  0003b	e8 00 00 00 00	 call	 ?Init@AttackAttribute@@QAEXXZ ; AttackAttribute::Init

; 110  : 	}

  00040	8b c6		 mov	 eax, esi
  00042	e8 00 00 00 00	 call	 __EH_epilog3
  00047	c3		 ret	 0
_TEXT	ENDS
;	COMDAT text$x
text$x	SEGMENT
__unwindfunclet$??0AttackAttribute@@QAE@XZ$0:
  00000	8b 4d f0	 mov	 ecx, DWORD PTR _this$[ebp]
  00003	ff 25 00 00 00
	00		 jmp	 DWORD PTR __imp_??1ioHashString@@QAE@XZ
__unwindfunclet$??0AttackAttribute@@QAE@XZ$1:
  00009	8b 4d f0	 mov	 ecx, DWORD PTR _this$[ebp]
  0000c	83 c1 14	 add	 ecx, 20			; 00000014H
  0000f	ff 25 00 00 00
	00		 jmp	 DWORD PTR __imp_??1ioHashString@@QAE@XZ
__unwindfunclet$??0AttackAttribute@@QAE@XZ$2:
  00015	8b 4d f0	 mov	 ecx, DWORD PTR _this$[ebp]
  00018	83 c1 28	 add	 ecx, 40			; 00000028H
  0001b	e9 00 00 00 00	 jmp	 ??1?$vector@UWeaponInfo@@V?$allocator@UWeaponInfo@@@std@@@std@@QAE@XZ ; std::vector<WeaponInfo,std::allocator<WeaponInfo> >::~vector<WeaponInfo,std::allocator<WeaponInfo> >
__unwindfunclet$??0AttackAttribute@@QAE@XZ$3:
  00020	8b 4d f0	 mov	 ecx, DWORD PTR _this$[ebp]
  00023	83 c1 38	 add	 ecx, 56			; 00000038H
  00026	e9 00 00 00 00	 jmp	 ??1?$vector@UForceInfo@@V?$allocator@UForceInfo@@@std@@@std@@QAE@XZ ; std::vector<ForceInfo,std::allocator<ForceInfo> >::~vector<ForceInfo,std::allocator<ForceInfo> >
__ehhandler$??0AttackAttribute@@QAE@XZ:
  0002b	8b 54 24 08	 mov	 edx, DWORD PTR [esp+8]
  0002f	8d 42 0c	 lea	 eax, DWORD PTR [edx+12]
  00032	8b 4a ec	 mov	 ecx, DWORD PTR [edx-20]
  00035	33 c8		 xor	 ecx, eax
  00037	e8 00 00 00 00	 call	 @__security_check_cookie@4
  0003c	b8 00 00 00 00	 mov	 eax, OFFSET __ehfuncinfo$??0AttackAttribute@@QAE@XZ
  00041	e9 00 00 00 00	 jmp	 ___CxxFrameHandler3
text$x	ENDS
??0AttackAttribute@@QAE@XZ ENDP				; AttackAttribute::AttackAttribute
PUBLIC	??1AttackAttribute@@QAE@XZ			; AttackAttribute::~AttackAttribute
;	COMDAT xdata$x
xdata$x	SEGMENT
__unwindtable$??1AttackAttribute@@QAE@XZ DD 0ffffffffH
	DD	FLAT:__unwindfunclet$??1AttackAttribute@@QAE@XZ$0
	DD	00H
	DD	FLAT:__unwindfunclet$??1AttackAttribute@@QAE@XZ$1
	DD	01H
	DD	FLAT:__unwindfunclet$??1AttackAttribute@@QAE@XZ$2
__ehfuncinfo$??1AttackAttribute@@QAE@XZ DD 019930522H
	DD	03H
	DD	FLAT:__unwindtable$??1AttackAttribute@@QAE@XZ
	DD	2 DUP(00H)
	DD	2 DUP(00H)
	DD	00H
	DD	01H
; Function compile flags: /Ogsp
xdata$x	ENDS
;	COMDAT ??1AttackAttribute@@QAE@XZ
_TEXT	SEGMENT
_this$ = -16						; size = 4
__$EHRec$ = -12						; size = 12
??1AttackAttribute@@QAE@XZ PROC				; AttackAttribute::~AttackAttribute, COMDAT
; _this$ = ecx
  00000	6a 04		 push	 4
  00002	b8 00 00 00 00	 mov	 eax, __ehhandler$??1AttackAttribute@@QAE@XZ
  00007	e8 00 00 00 00	 call	 __EH_prolog3
  0000c	8b f1		 mov	 esi, ecx
  0000e	89 75 f0	 mov	 DWORD PTR _this$[ebp], esi
  00011	8d 4e 38	 lea	 ecx, DWORD PTR [esi+56]
  00014	c7 45 fc 02 00
	00 00		 mov	 DWORD PTR __$EHRec$[ebp+8], 2
  0001b	e8 00 00 00 00	 call	 ?_Tidy@?$vector@UForceInfo@@V?$allocator@UForceInfo@@@std@@@std@@IAEXXZ ; std::vector<ForceInfo,std::allocator<ForceInfo> >::_Tidy
  00020	8d 4e 28	 lea	 ecx, DWORD PTR [esi+40]
  00023	c6 45 fc 01	 mov	 BYTE PTR __$EHRec$[ebp+8], 1
  00027	e8 00 00 00 00	 call	 ?_Tidy@?$vector@UWeaponInfo@@V?$allocator@UWeaponInfo@@@std@@@std@@IAEXXZ ; std::vector<WeaponInfo,std::allocator<WeaponInfo> >::_Tidy
  0002c	8b 3d 00 00 00
	00		 mov	 edi, DWORD PTR __imp_??1ioHashString@@QAE@XZ
  00032	8d 4e 14	 lea	 ecx, DWORD PTR [esi+20]
  00035	c6 45 fc 00	 mov	 BYTE PTR __$EHRec$[ebp+8], 0
  00039	ff d7		 call	 edi
  0003b	83 4d fc ff	 or	 DWORD PTR __$EHRec$[ebp+8], -1
  0003f	8b ce		 mov	 ecx, esi
  00041	ff d7		 call	 edi
  00043	e8 00 00 00 00	 call	 __EH_epilog3
  00048	c3		 ret	 0
_TEXT	ENDS
;	COMDAT text$x
text$x	SEGMENT
__unwindfunclet$??1AttackAttribute@@QAE@XZ$0:
  00000	8b 4d f0	 mov	 ecx, DWORD PTR _this$[ebp]
  00003	ff 25 00 00 00
	00		 jmp	 DWORD PTR __imp_??1ioHashString@@QAE@XZ
__unwindfunclet$??1AttackAttribute@@QAE@XZ$1:
  00009	8b 4d f0	 mov	 ecx, DWORD PTR _this$[ebp]
  0000c	83 c1 14	 add	 ecx, 20			; 00000014H
  0000f	ff 25 00 00 00
	00		 jmp	 DWORD PTR __imp_??1ioHashString@@QAE@XZ
__unwindfunclet$??1AttackAttribute@@QAE@XZ$2:
  00015	8b 4d f0	 mov	 ecx, DWORD PTR _this$[ebp]
  00018	83 c1 28	 add	 ecx, 40			; 00000028H
  0001b	e9 00 00 00 00	 jmp	 ??1?$vector@UWeaponInfo@@V?$allocator@UWeaponInfo@@@std@@@std@@QAE@XZ ; std::vector<WeaponInfo,std::allocator<WeaponInfo> >::~vector<WeaponInfo,std::allocator<WeaponInfo> >
__ehhandler$??1AttackAttribute@@QAE@XZ:
  00020	8b 54 24 08	 mov	 edx, DWORD PTR [esp+8]
  00024	8d 42 0c	 lea	 eax, DWORD PTR [edx+12]
  00027	8b 4a ec	 mov	 ecx, DWORD PTR [edx-20]
  0002a	33 c8		 xor	 ecx, eax
  0002c	e8 00 00 00 00	 call	 @__security_check_cookie@4
  00031	b8 00 00 00 00	 mov	 eax, OFFSET __ehfuncinfo$??1AttackAttribute@@QAE@XZ
  00036	e9 00 00 00 00	 jmp	 ___CxxFrameHandler3
text$x	ENDS
??1AttackAttribute@@QAE@XZ ENDP				; AttackAttribute::~AttackAttribute
PUBLIC	?SetTargetList@ioSelectPositionMoveWeapon@@QAEXABV?$vector@VioHashString@@V?$allocator@VioHashString@@@std@@@std@@@Z ; ioSelectPositionMoveWeapon::SetTargetList
; Function compile flags: /Ogsp
; File d:\lost saga for developer\youtube\tutorial\source\src\lsclient\ioselectpositionmoveweapon.h
;	COMDAT ?SetTargetList@ioSelectPositionMoveWeapon@@QAEXABV?$vector@VioHashString@@V?$allocator@VioHashString@@@std@@@std@@@Z
_TEXT	SEGMENT
_TargetList$ = 8					; size = 4
?SetTargetList@ioSelectPositionMoveWeapon@@QAEXABV?$vector@VioHashString@@V?$allocator@VioHashString@@@std@@@std@@@Z PROC ; ioSelectPositionMoveWeapon::SetTargetList, COMDAT
; _this$ = ecx

; 121  : 	inline void SetTargetList( const ioHashStringVec& TargetList ){ m_TargetNameList = TargetList; }

  00000	55		 push	 ebp
  00001	8b ec		 mov	 ebp, esp
  00003	81 c1 64 0b 00
	00		 add	 ecx, 2916		; 00000b64H
  00009	5d		 pop	 ebp
  0000a	e9 00 00 00 00	 jmp	 ??4?$vector@VioHashString@@V?$allocator@VioHashString@@@std@@@std@@QAEAAV01@ABV01@@Z ; std::vector<ioHashString,std::allocator<ioHashString> >::operator=
?SetTargetList@ioSelectPositionMoveWeapon@@QAEXABV?$vector@VioHashString@@V?$allocator@VioHashString@@@std@@@std@@@Z ENDP ; ioSelectPositionMoveWeapon::SetTargetList
_TEXT	ENDS
PUBLIC	??_7ioSpaceMasterAttack@@6B@			; ioSpaceMasterAttack::`vftable'
PUBLIC	??0ioSpaceMasterAttack@@QAE@XZ			; ioSpaceMasterAttack::ioSpaceMasterAttack
PUBLIC	??_R4ioSpaceMasterAttack@@6B@			; ioSpaceMasterAttack::`RTTI Complete Object Locator'
PUBLIC	??_R0?AVioSpaceMasterAttack@@@8			; ioSpaceMasterAttack `RTTI Type Descriptor'
PUBLIC	??_R3ioSpaceMasterAttack@@8			; ioSpaceMasterAttack::`RTTI Class Hierarchy Descriptor'
PUBLIC	??_R2ioSpaceMasterAttack@@8			; ioSpaceMasterAttack::`RTTI Base Class Array'
PUBLIC	??_R1A@?0A@EA@ioSpaceMasterAttack@@8		; ioSpaceMasterAttack::`RTTI Base Class Descriptor at (0,-1,0,64)'
PUBLIC	??_R1A@?0A@EA@ioAttackSkill@@8			; ioAttackSkill::`RTTI Base Class Descriptor at (0,-1,0,64)'
PUBLIC	??_R0?AVioAttackSkill@@@8			; ioAttackSkill `RTTI Type Descriptor'
PUBLIC	??_R3ioAttackSkill@@8				; ioAttackSkill::`RTTI Class Hierarchy Descriptor'
PUBLIC	??_R2ioAttackSkill@@8				; ioAttackSkill::`RTTI Base Class Array'
PUBLIC	??_R1A@?0A@EA@ioSkill@@8			; ioSkill::`RTTI Base Class Descriptor at (0,-1,0,64)'
PUBLIC	??_R0?AVioSkill@@@8				; ioSkill `RTTI Type Descriptor'
PUBLIC	??_R3ioSkill@@8					; ioSkill::`RTTI Class Hierarchy Descriptor'
PUBLIC	??_R2ioSkill@@8					; ioSkill::`RTTI Base Class Array'
PUBLIC	?Clone@ioSpaceMasterAttack@@UAEPAVioSkill@@XZ	; ioSpaceMasterAttack::Clone
PUBLIC	?GetDefenseSkillBreakeType@ioSkill@@UBE?AW4DefenseBreakType@@XZ ; ioSkill::GetDefenseSkillBreakeType
PUBLIC	?GetSkillEndNextJumpAmt@ioSkill@@UBEMXZ		; ioSkill::GetSkillEndNextJumpAmt
PUBLIC	?GetSkillEndNextLandRate@ioSkill@@UBEMXZ	; ioSkill::GetSkillEndNextLandRate
PUBLIC	?EnableChangeGrapplingTargetPos@ioSkill@@UBE_NXZ ; ioSkill::EnableChangeGrapplingTargetPos
PUBLIC	?OnProcessState@ioSpaceMasterAttack@@UAEXPAVioBaseChar@@PAVioPlayStage@@@Z ; ioSpaceMasterAttack::OnProcessState
PUBLIC	?ApplyExtraSkillInfo@ioSpaceMasterAttack@@UAEXPAVioBaseChar@@PAVioPlayStage@@AAVSP2Packet@@@Z ; ioSpaceMasterAttack::ApplyExtraSkillInfo
PUBLIC	?IsInvisibleBottomCircle@ioSkill@@UAE_NPAVioBaseChar@@@Z ; ioSkill::IsInvisibleBottomCircle
PUBLIC	?IsCanJumpingSkill@ioSkill@@UBE_NXZ		; ioSkill::IsCanJumpingSkill
PUBLIC	?IsCanJumpingSkillOnBlowWound@ioSkill@@UBE_NXZ	; ioSkill::IsCanJumpingSkillOnBlowWound
PUBLIC	?IsCanDownSkill@ioSkill@@UBE_NXZ		; ioSkill::IsCanDownSkill
PUBLIC	?IsCanBlowWoundSkill@ioSkill@@UBE_NXZ		; ioSkill::IsCanBlowWoundSkill
PUBLIC	?IsCanWoundSkill@ioSkill@@UBE_NXZ		; ioSkill::IsCanWoundSkill
PUBLIC	?SetInfoByApplyWeapon@ioSpaceMasterAttack@@UAEXPAVioBaseChar@@0K_N@Z ; ioSpaceMasterAttack::SetInfoByApplyWeapon
PUBLIC	?IsUseActiveCnt@ioSkill@@UBE_NXZ		; ioSkill::IsUseActiveCnt
PUBLIC	?GetMaxActiveCnt@ioSkill@@UBEHPAVioBaseChar@@@Z	; ioSkill::GetMaxActiveCnt
PUBLIC	?GetCurActiveCnt@ioSkill@@UBEHPAVioBaseChar@@@Z	; ioSkill::GetCurActiveCnt
EXTRN	??1ioAttackSkill@@UAE@XZ:PROC			; ioAttackSkill::~ioAttackSkill
EXTRN	??0ioAttackSkill@@QAE@XZ:PROC			; ioAttackSkill::ioAttackSkill
EXTRN	?GetTypeID@ioAttackSkill@@UBEHXZ:PROC		; ioAttackSkill::GetTypeID
EXTRN	?IsCanSwitchSkill@ioSkill@@UBE_NXZ:PROC		; ioSkill::IsCanSwitchSkill
EXTRN	?IsCanSemiSwitchSkill@ioSkill@@UBE_NXZ:PROC	; ioSkill::IsCanSemiSwitchSkill
EXTRN	?IsCanCancelBySkill@ioSkill@@UBE_NPAVioBaseChar@@AAH@Z:PROC ; ioSkill::IsCanCancelBySkill
EXTRN	?IsCanUseZeroHP@ioSkill@@UBE_NPAVioBaseChar@@@Z:PROC ; ioSkill::IsCanUseZeroHP
EXTRN	?IsCanUseSkillWithCrown@ioSkill@@UAE_NPAVioBaseChar@@@Z:PROC ; ioSkill::IsCanUseSkillWithCrown
EXTRN	?IsCanUseBoss@ioSkill@@UBE_NPAVioBaseChar@@@Z:PROC ; ioSkill::IsCanUseBoss
EXTRN	?IsCanUseFootball@ioSkill@@UBE_NXZ:PROC		; ioSkill::IsCanUseFootball
EXTRN	?IsCanUseGangSiMode@ioSkill@@UBE_NXZ:PROC	; ioSkill::IsCanUseGangSiMode
EXTRN	?IsCanUseByWeaponType@ioSkill@@UBE_NPAVioBaseChar@@@Z:PROC ; ioSkill::IsCanUseByWeaponType
EXTRN	?IsCanUseThunderBirdHold@ioSkill@@UBE_NPAVioBaseChar@@@Z:PROC ; ioSkill::IsCanUseThunderBirdHold
EXTRN	?IsCanUseLimitHP@ioSkill@@UBE_NPAVioBaseChar@@@Z:PROC ; ioSkill::IsCanUseLimitHP
EXTRN	?IsCanUseSkill@ioAttackSkill@@UAE_NPAVioBaseChar@@_N@Z:PROC ; ioAttackSkill::IsCanUseSkill
EXTRN	?IsOnOffEnable@ioSkill@@UAE_NXZ:PROC		; ioSkill::IsOnOffEnable
EXTRN	?IsCanDefenseStateSkill@ioSkill@@UAE_NXZ:PROC	; ioSkill::IsCanDefenseStateSkill
EXTRN	?SetDefenseStateSkill@ioSkill@@UAEXPAVioBaseChar@@@Z:PROC ; ioSkill::SetDefenseStateSkill
EXTRN	?HasBuff@ioSkill@@UBE_NH@Z:PROC			; ioSkill::HasBuff
EXTRN	?GetBuffType@ioSkill@@UAEHH@Z:PROC		; ioSkill::GetBuffType
EXTRN	?IsEnableReserve@ioSkill@@UBE_NXZ:PROC		; ioSkill::IsEnableReserve
EXTRN	?IsCharSkipState@ioSkill@@UBE?AW4SkillCharColType@@XZ:PROC ; ioSkill::IsCharSkipState
EXTRN	?IsEntityCollisionSkipState@ioSkill@@UBE_NXZ:PROC ; ioSkill::IsEntityCollisionSkipState
EXTRN	?IsJumpState@ioSkill@@UBE_NXZ:PROC		; ioSkill::IsJumpState
EXTRN	?IsDownState@ioSkill@@UBE_NXZ:PROC		; ioSkill::IsDownState
EXTRN	?IsCanSendControl@ioSkill@@UBE_NXZ:PROC		; ioSkill::IsCanSendControl
EXTRN	?IsSkipState@ioSkill@@UBE_NXZ:PROC		; ioSkill::IsSkipState
EXTRN	?GetSkillMoveRate@ioSkill@@UBEMXZ:PROC		; ioSkill::GetSkillMoveRate
EXTRN	?SetSkillGrapplingState@ioSkill@@UAE_NPAVioBaseChar@@ABVioHashString@@@Z:PROC ; ioSkill::SetSkillGrapplingState
EXTRN	?GetGrapplingTargetPos@ioSkill@@UAE?AUD3DXVECTOR3@@PAVioBaseChar@@0@Z:PROC ; ioSkill::GetGrapplingTargetPos
EXTRN	?GetGrapplingTargetPos@ioSkill@@UAE?AUD3DXVECTOR3@@PAVioBaseChar@@@Z:PROC ; ioSkill::GetGrapplingTargetPos
EXTRN	?GetSkillWoundGrapplingInfo@ioSkill@@UAE?AUGrapplingSkillWoundedInfo@@XZ:PROC ; ioSkill::GetSkillWoundGrapplingInfo
EXTRN	?SetCreateWeaponDependency@ioSkill@@UAEXPAVioBaseChar@@PAVioPlayStage@@@Z:PROC ; ioSkill::SetCreateWeaponDependency
EXTRN	?SetNextSkillState@ioSkill@@UAEXPAVioBaseChar@@PAVioWeapon@@@Z:PROC ; ioSkill::SetNextSkillState
EXTRN	?OnProcessNotUseSkill@ioSkill@@UAEXPAVioBaseChar@@PAVioPlayStage@@@Z:PROC ; ioSkill::OnProcessNotUseSkill
EXTRN	?OnSkillItemRelease@ioSkill@@UAEXPAVioBaseChar@@@Z:PROC ; ioSkill::OnSkillItemRelease
EXTRN	?ApplyEquipSlotSkillExtraInfo@ioSkill@@UAEXPAVioBaseChar@@PAVioPlayStage@@AAVSP2Packet@@@Z:PROC ; ioSkill::ApplyEquipSlotSkillExtraInfo
EXTRN	?ApplyExtraPassiveSkillInfo@ioSkill@@UAEXPAVioBaseChar@@PAVioPlayStage@@AAVSP2Packet@@@Z:PROC ; ioSkill::ApplyExtraPassiveSkillInfo
EXTRN	?StartPreDelayEffect@ioAttackSkill@@UAEXPAVioBaseChar@@@Z:PROC ; ioAttackSkill::StartPreDelayEffect
EXTRN	?EndPreDelayEffect@ioAttackSkill@@UAEXPAVioBaseChar@@@Z:PROC ; ioAttackSkill::EndPreDelayEffect
EXTRN	?IsUseAutoTargetValue@ioAttackSkill@@UAE_NXZ:PROC ; ioAttackSkill::IsUseAutoTargetValue
EXTRN	?IsAutoTargetDownState@ioSkill@@UAE_NXZ:PROC	; ioSkill::IsAutoTargetDownState
EXTRN	?CheckUseBuff@ioSkill@@UAE_NPAVioBaseChar@@@Z:PROC ; ioSkill::CheckUseBuff
EXTRN	?CheckUseActiveCount@ioSkill@@UAE_NXZ:PROC	; ioSkill::CheckUseActiveCount
EXTRN	?CheckAniRotate@ioSkill@@UAEXPAVioBaseChar@@@Z:PROC ; ioSkill::CheckAniRotate
EXTRN	?IsEnableDashCheck@ioSkill@@UAE_NPAVioBaseChar@@@Z:PROC ; ioSkill::IsEnableDashCheck
EXTRN	?IsEnableMultiActive@ioSkill@@UAE_NPAVioBaseChar@@@Z:PROC ; ioSkill::IsEnableMultiActive
EXTRN	?GetSkillGravityRate@ioSkill@@UAEMXZ:PROC	; ioSkill::GetSkillGravityRate
EXTRN	?GetSkillMotionName@ioSkill@@UBEABVioHashString@@XZ:PROC ; ioSkill::GetSkillMotionName
EXTRN	?HasSkillMotion@ioSkill@@UBE_NXZ:PROC		; ioSkill::HasSkillMotion
EXTRN	?GetSkillMotionRate@ioSkill@@UBEMXZ:PROC	; ioSkill::GetSkillMotionRate
EXTRN	?IsPreDelayProtect@ioSkill@@UBE_NXZ:PROC	; ioSkill::IsPreDelayProtect
EXTRN	?GetPreDelayAniName@ioSkill@@UBEABVioHashString@@XZ:PROC ; ioSkill::GetPreDelayAniName
EXTRN	?GetPreDelayTime@ioSkill@@UBEKXZ:PROC		; ioSkill::GetPreDelayTime
EXTRN	?GetPreDelayOwnerEffect@ioSkill@@UBEABVioHashString@@XZ:PROC ; ioSkill::GetPreDelayOwnerEffect
EXTRN	?GetPreDelayOtherEffect@ioSkill@@UBEABVioHashString@@XZ:PROC ; ioSkill::GetPreDelayOtherEffect
EXTRN	?SetCancelSkill@ioSkill@@UAEXPAVioBaseChar@@@Z:PROC ; ioSkill::SetCancelSkill
EXTRN	?ClearAirJump@ioSkill@@MAEXXZ:PROC		; ioSkill::ClearAirJump
EXTRN	?SetAirJump@ioSkill@@MAEXPAVioBaseChar@@HM@Z:PROC ; ioSkill::SetAirJump
EXTRN	?CheckAirJump@ioSkill@@MAEXPAVioBaseChar@@@Z:PROC ; ioSkill::CheckAirJump
EXTRN	?UseActiveCount@ioSkill@@UAE_NPAVioBaseChar@@@Z:PROC ; ioSkill::UseActiveCount
EXTRN	?GetMaxActiveCount@ioSkill@@UAEHPAVioBaseChar@@@Z:PROC ; ioSkill::GetMaxActiveCount
EXTRN	?GetCurActiveCount@ioSkill@@UAEHPAVioBaseChar@@@Z:PROC ; ioSkill::GetCurActiveCount
EXTRN	?HideHPGauge@ioSkill@@UAE_NXZ:PROC		; ioSkill::HideHPGauge
EXTRN	?SetCollisionByApplySkill@ioSkill@@UAEXXZ:PROC	; ioSkill::SetCollisionByApplySkill
EXTRN	?SetChargingRateForWeapon@ioSkill@@UAEXPAVioWeapon@@@Z:PROC ; ioSkill::SetChargingRateForWeapon
EXTRN	?CheckExceptionCamera@ioSkill@@UAE_NXZ:PROC	; ioSkill::CheckExceptionCamera
EXTRN	?GetExceptionCameraPos@ioSkill@@UAE?AUD3DXVECTOR3@@PAVioBaseChar@@@Z:PROC ; ioSkill::GetExceptionCameraPos
EXTRN	?IsFixedExceptionCamera@ioSkill@@UAE_NXZ:PROC	; ioSkill::IsFixedExceptionCamera
EXTRN	??_EioSpaceMasterAttack@@UAEPAXI@Z:PROC		; ioSpaceMasterAttack::`vector deleting destructor'
EXTRN	?StartPreDelayAnimation@ioAttackSkill@@MAE_NPAVioBaseChar@@@Z:PROC ; ioAttackSkill::StartPreDelayAnimation
EXTRN	?GetAttackTimeRate@ioAttackSkill@@MBEMXZ:PROC	; ioAttackSkill::GetAttackTimeRate
EXTRN	?GetAttackEndTimeRate@ioAttackSkill@@MBEMXZ:PROC ; ioAttackSkill::GetAttackEndTimeRate
EXTRN	?LoadNormalAttribute@ioAttackSkill@@MAEXAAVioINILoader@@@Z:PROC ; ioAttackSkill::LoadNormalAttribute
EXTRN	?LoadDownAttribute@ioAttackSkill@@MAEXAAVioINILoader@@@Z:PROC ; ioAttackSkill::LoadDownAttribute
EXTRN	?LoadJumpAttribute@ioAttackSkill@@MAEXAAVioINILoader@@@Z:PROC ; ioAttackSkill::LoadJumpAttribute
EXTRN	?GetAttribute@ioAttackSkill@@UAEAAUAttackAttribute@@XZ:PROC ; ioAttackSkill::GetAttribute
EXTRN	?GetAttributeConst@ioAttackSkill@@UBEABUAttackAttribute@@XZ:PROC ; ioAttackSkill::GetAttributeConst
EXTRN	?IsCanStateEscape@ioAttackSkill@@UBE_NXZ:PROC	; ioAttackSkill::IsCanStateEscape
EXTRN	?IsCanStateEscapeOnStand@ioAttackSkill@@UBE_NPAVioBaseChar@@@Z:PROC ; ioAttackSkill::IsCanStateEscapeOnStand
EXTRN	?IsCanStateEscapeOnAir@ioAttackSkill@@UBE_NPAVioBaseChar@@@Z:PROC ; ioAttackSkill::IsCanStateEscapeOnAir
EXTRN	?IsCanStateEscapeOnDown@ioAttackSkill@@UBE_NPAVioBaseChar@@@Z:PROC ; ioAttackSkill::IsCanStateEscapeOnDown
;	COMDAT ??_R2ioSkill@@8
; File c:\program files (x86)\microsoft visual studio 10.0\vc\include\xmemory
rdata$r	SEGMENT
??_R2ioSkill@@8 DD FLAT:??_R1A@?0A@EA@ioSkill@@8	; ioSkill::`RTTI Base Class Array'
rdata$r	ENDS
;	COMDAT ??_R3ioSkill@@8
rdata$r	SEGMENT
??_R3ioSkill@@8 DD 00H					; ioSkill::`RTTI Class Hierarchy Descriptor'
	DD	00H
	DD	01H
	DD	FLAT:??_R2ioSkill@@8
rdata$r	ENDS
;	COMDAT ??_R0?AVioSkill@@@8
_DATA	SEGMENT
??_R0?AVioSkill@@@8 DD FLAT:??_7type_info@@6B@		; ioSkill `RTTI Type Descriptor'
	DD	00H
	DB	'.?AVioSkill@@', 00H
_DATA	ENDS
;	COMDAT ??_R1A@?0A@EA@ioSkill@@8
rdata$r	SEGMENT
??_R1A@?0A@EA@ioSkill@@8 DD FLAT:??_R0?AVioSkill@@@8	; ioSkill::`RTTI Base Class Descriptor at (0,-1,0,64)'
	DD	00H
	DD	00H
	DD	0ffffffffH
	DD	00H
	DD	040H
	DD	FLAT:??_R3ioSkill@@8
rdata$r	ENDS
;	COMDAT ??_R2ioAttackSkill@@8
rdata$r	SEGMENT
??_R2ioAttackSkill@@8 DD FLAT:??_R1A@?0A@EA@ioAttackSkill@@8 ; ioAttackSkill::`RTTI Base Class Array'
	DD	FLAT:??_R1A@?0A@EA@ioSkill@@8
rdata$r	ENDS
;	COMDAT ??_R3ioAttackSkill@@8
rdata$r	SEGMENT
??_R3ioAttackSkill@@8 DD 00H				; ioAttackSkill::`RTTI Class Hierarchy Descriptor'
	DD	00H
	DD	02H
	DD	FLAT:??_R2ioAttackSkill@@8
rdata$r	ENDS
;	COMDAT ??_R0?AVioAttackSkill@@@8
_DATA	SEGMENT
??_R0?AVioAttackSkill@@@8 DD FLAT:??_7type_info@@6B@	; ioAttackSkill `RTTI Type Descriptor'
	DD	00H
	DB	'.?AVioAttackSkill@@', 00H
_DATA	ENDS
;	COMDAT ??_R1A@?0A@EA@ioAttackSkill@@8
rdata$r	SEGMENT
??_R1A@?0A@EA@ioAttackSkill@@8 DD FLAT:??_R0?AVioAttackSkill@@@8 ; ioAttackSkill::`RTTI Base Class Descriptor at (0,-1,0,64)'
	DD	01H
	DD	00H
	DD	0ffffffffH
	DD	00H
	DD	040H
	DD	FLAT:??_R3ioAttackSkill@@8
rdata$r	ENDS
;	COMDAT ??_R1A@?0A@EA@ioSpaceMasterAttack@@8
rdata$r	SEGMENT
??_R1A@?0A@EA@ioSpaceMasterAttack@@8 DD FLAT:??_R0?AVioSpaceMasterAttack@@@8 ; ioSpaceMasterAttack::`RTTI Base Class Descriptor at (0,-1,0,64)'
	DD	02H
	DD	00H
	DD	0ffffffffH
	DD	00H
	DD	040H
	DD	FLAT:??_R3ioSpaceMasterAttack@@8
rdata$r	ENDS
;	COMDAT ??_R2ioSpaceMasterAttack@@8
rdata$r	SEGMENT
??_R2ioSpaceMasterAttack@@8 DD FLAT:??_R1A@?0A@EA@ioSpaceMasterAttack@@8 ; ioSpaceMasterAttack::`RTTI Base Class Array'
	DD	FLAT:??_R1A@?0A@EA@ioAttackSkill@@8
	DD	FLAT:??_R1A@?0A@EA@ioSkill@@8
rdata$r	ENDS
;	COMDAT ??_R3ioSpaceMasterAttack@@8
rdata$r	SEGMENT
??_R3ioSpaceMasterAttack@@8 DD 00H			; ioSpaceMasterAttack::`RTTI Class Hierarchy Descriptor'
	DD	00H
	DD	03H
	DD	FLAT:??_R2ioSpaceMasterAttack@@8
rdata$r	ENDS
;	COMDAT ??_R0?AVioSpaceMasterAttack@@@8
_DATA	SEGMENT
??_R0?AVioSpaceMasterAttack@@@8 DD FLAT:??_7type_info@@6B@ ; ioSpaceMasterAttack `RTTI Type Descriptor'
	DD	00H
	DB	'.?AVioSpaceMasterAttack@@', 00H
_DATA	ENDS
;	COMDAT ??_R4ioSpaceMasterAttack@@6B@
rdata$r	SEGMENT
??_R4ioSpaceMasterAttack@@6B@ DD 00H			; ioSpaceMasterAttack::`RTTI Complete Object Locator'
	DD	00H
	DD	00H
	DD	FLAT:??_R0?AVioSpaceMasterAttack@@@8
	DD	FLAT:??_R3ioSpaceMasterAttack@@8
rdata$r	ENDS
;	COMDAT ??_7ioSpaceMasterAttack@@6B@
CONST	SEGMENT
??_7ioSpaceMasterAttack@@6B@ DD FLAT:??_R4ioSpaceMasterAttack@@6B@ ; ioSpaceMasterAttack::`vftable'
	DD	FLAT:?LoadProperty@ioSpaceMasterAttack@@UAEXAAVioINILoader@@@Z
	DD	FLAT:?Clone@ioSpaceMasterAttack@@UAEPAVioSkill@@XZ
	DD	FLAT:?GetTypeID@ioAttackSkill@@UBEHXZ
	DD	FLAT:?IsProtected@ioSpaceMasterAttack@@UBE_NH@Z
	DD	FLAT:?IsCanSwitchSkill@ioSkill@@UBE_NXZ
	DD	FLAT:?IsCanSemiSwitchSkill@ioSkill@@UBE_NXZ
	DD	FLAT:?IsCanCancelBySkill@ioSkill@@UBE_NPAVioBaseChar@@AAH@Z
	DD	FLAT:?IsCanUseZeroHP@ioSkill@@UBE_NPAVioBaseChar@@@Z
	DD	FLAT:?IsCanUseSkillWithCrown@ioSkill@@UAE_NPAVioBaseChar@@@Z
	DD	FLAT:?IsCanUseBoss@ioSkill@@UBE_NPAVioBaseChar@@@Z
	DD	FLAT:?IsCanUseFootball@ioSkill@@UBE_NXZ
	DD	FLAT:?IsCanUseGangSiMode@ioSkill@@UBE_NXZ
	DD	FLAT:?IsCanUseByWeaponType@ioSkill@@UBE_NPAVioBaseChar@@@Z
	DD	FLAT:?IsCanUseThunderBirdHold@ioSkill@@UBE_NPAVioBaseChar@@@Z
	DD	FLAT:?IsCanUseLimitHP@ioSkill@@UBE_NPAVioBaseChar@@@Z
	DD	FLAT:?IsCanUseSkill@ioAttackSkill@@UAE_NPAVioBaseChar@@_N@Z
	DD	FLAT:?IsOnOffEnable@ioSkill@@UAE_NXZ
	DD	FLAT:?IsCanDefenseStateSkill@ioSkill@@UAE_NXZ
	DD	FLAT:?SetDefenseStateSkill@ioSkill@@UAEXPAVioBaseChar@@@Z
	DD	FLAT:?GetDefenseSkillBreakeType@ioSkill@@UBE?AW4DefenseBreakType@@XZ
	DD	FLAT:?HasBuff@ioSkill@@UBE_NH@Z
	DD	FLAT:?GetBuffType@ioSkill@@UAEHH@Z
	DD	FLAT:?IsEnableReserve@ioSkill@@UBE_NXZ
	DD	FLAT:?IsSkillMotionEnd@ioSpaceMasterAttack@@UBE_NKPAVioBaseChar@@@Z
	DD	FLAT:?IsCharSkipState@ioSkill@@UBE?AW4SkillCharColType@@XZ
	DD	FLAT:?IsEntityCollisionSkipState@ioSkill@@UBE_NXZ
	DD	FLAT:?GetSkillEndNextJumpAmt@ioSkill@@UBEMXZ
	DD	FLAT:?GetSkillEndNextLandRate@ioSkill@@UBEMXZ
	DD	FLAT:?GetSkillEndNextJumpMustEnable@ioSpaceMasterAttack@@UAE?AW4SkillEndJumpType@@XZ
	DD	FLAT:?IsEndState@ioSpaceMasterAttack@@UBE_NXZ
	DD	FLAT:?IsAttackEndState@ioSpaceMasterAttack@@UBE_NXZ
	DD	FLAT:?IsJumpState@ioSkill@@UBE_NXZ
	DD	FLAT:?IsDownState@ioSkill@@UBE_NXZ
	DD	FLAT:?IsNoDropState@ioSpaceMasterAttack@@UBE_NXZ
	DD	FLAT:?IsCanSendControl@ioSkill@@UBE_NXZ
	DD	FLAT:?IsSkipState@ioSkill@@UBE_NXZ
	DD	FLAT:?GetSkillMoveRate@ioSkill@@UBEMXZ
	DD	FLAT:?SetSkillGrapplingState@ioSkill@@UAE_NPAVioBaseChar@@ABVioHashString@@@Z
	DD	FLAT:?GetGrapplingTargetPos@ioSkill@@UAE?AUD3DXVECTOR3@@PAVioBaseChar@@0@Z
	DD	FLAT:?GetGrapplingTargetPos@ioSkill@@UAE?AUD3DXVECTOR3@@PAVioBaseChar@@@Z
	DD	FLAT:?EnableChangeGrapplingTargetPos@ioSkill@@UBE_NXZ
	DD	FLAT:?GetSkillWoundGrapplingInfo@ioSkill@@UAE?AUGrapplingSkillWoundedInfo@@XZ
	DD	FLAT:?SetCreateWeaponDependency@ioSkill@@UAEXPAVioBaseChar@@PAVioPlayStage@@@Z
	DD	FLAT:?SetNextSkillState@ioSkill@@UAEXPAVioBaseChar@@PAVioWeapon@@@Z
	DD	FLAT:?OnSkillStart@ioSpaceMasterAttack@@UAE_NPAVioBaseChar@@@Z
	DD	FLAT:?OnProcessState@ioSpaceMasterAttack@@UAEXPAVioBaseChar@@PAVioPlayStage@@@Z
	DD	FLAT:?OnSkillEndByWounded@ioSpaceMasterAttack@@UAEXPAVioBaseChar@@@Z
	DD	FLAT:?OnSkillEnd@ioSpaceMasterAttack@@UAEXPAVioBaseChar@@@Z
	DD	FLAT:?OnProcessNotUseSkill@ioSkill@@UAEXPAVioBaseChar@@PAVioPlayStage@@@Z
	DD	FLAT:?OnSkillItemRelease@ioSkill@@UAEXPAVioBaseChar@@@Z
	DD	FLAT:?ApplyAttributeToWeapon@ioSpaceMasterAttack@@UAEXPAVioWeapon@@PAVioPlayStage@@@Z
	DD	FLAT:?ApplyExtraSkillInfo@ioSpaceMasterAttack@@UAEXPAVioBaseChar@@PAVioPlayStage@@AAVSP2Packet@@@Z
	DD	FLAT:?ApplyEquipSlotSkillExtraInfo@ioSkill@@UAEXPAVioBaseChar@@PAVioPlayStage@@AAVSP2Packet@@@Z
	DD	FLAT:?ApplyExtraPassiveSkillInfo@ioSkill@@UAEXPAVioBaseChar@@PAVioPlayStage@@AAVSP2Packet@@@Z
	DD	FLAT:?StartPreDelayEffect@ioAttackSkill@@UAEXPAVioBaseChar@@@Z
	DD	FLAT:?EndPreDelayEffect@ioAttackSkill@@UAEXPAVioBaseChar@@@Z
	DD	FLAT:?IsUseAutoTargetValue@ioAttackSkill@@UAE_NXZ
	DD	FLAT:?IsAutoTargetDownState@ioSkill@@UAE_NXZ
	DD	FLAT:?CheckUseBuff@ioSkill@@UAE_NPAVioBaseChar@@@Z
	DD	FLAT:?CheckUseItemMesh@ioSpaceMasterAttack@@UAE_NXZ
	DD	FLAT:?CheckUseActiveCount@ioSkill@@UAE_NXZ
	DD	FLAT:?CheckAniRotate@ioSkill@@UAEXPAVioBaseChar@@@Z
	DD	FLAT:?IsEnableDashCheck@ioSkill@@UAE_NPAVioBaseChar@@@Z
	DD	FLAT:?IsEnableMultiActive@ioSkill@@UAE_NPAVioBaseChar@@@Z
	DD	FLAT:?IsInvisibleBottomCircle@ioSkill@@UAE_NPAVioBaseChar@@@Z
	DD	FLAT:?GetAutoTargetValue@ioSpaceMasterAttack@@UAEXAAM00@Z
	DD	FLAT:?IsCanJumpingSkill@ioSkill@@UBE_NXZ
	DD	FLAT:?IsCanJumpingSkillOnBlowWound@ioSkill@@UBE_NXZ
	DD	FLAT:?IsCanDownSkill@ioSkill@@UBE_NXZ
	DD	FLAT:?IsCanBlowWoundSkill@ioSkill@@UBE_NXZ
	DD	FLAT:?IsCanWoundSkill@ioSkill@@UBE_NXZ
	DD	FLAT:?GetSkillGravityRate@ioSkill@@UAEMXZ
	DD	FLAT:?GetSkillMotionName@ioSkill@@UBEABVioHashString@@XZ
	DD	FLAT:?HasSkillMotion@ioSkill@@UBE_NXZ
	DD	FLAT:?GetSkillMotionRate@ioSkill@@UBEMXZ
	DD	FLAT:?IsPreDelayProtect@ioSkill@@UBE_NXZ
	DD	FLAT:?GetPreDelayAniName@ioSkill@@UBEABVioHashString@@XZ
	DD	FLAT:?GetPreDelayTime@ioSkill@@UBEKXZ
	DD	FLAT:?GetPreDelayOwnerEffect@ioSkill@@UBEABVioHashString@@XZ
	DD	FLAT:?GetPreDelayOtherEffect@ioSkill@@UBEABVioHashString@@XZ
	DD	FLAT:?SetCancelSkill@ioSkill@@UAEXPAVioBaseChar@@@Z
	DD	FLAT:?ClearAirJump@ioSkill@@MAEXXZ
	DD	FLAT:?SetAirJump@ioSkill@@MAEXPAVioBaseChar@@HM@Z
	DD	FLAT:?CheckAirJump@ioSkill@@MAEXPAVioBaseChar@@@Z
	DD	FLAT:?UseActiveCount@ioSkill@@UAE_NPAVioBaseChar@@@Z
	DD	FLAT:?GetMaxActiveCount@ioSkill@@UAEHPAVioBaseChar@@@Z
	DD	FLAT:?GetCurActiveCount@ioSkill@@UAEHPAVioBaseChar@@@Z
	DD	FLAT:?HideHPGauge@ioSkill@@UAE_NXZ
	DD	FLAT:?SetInfoByApplyWeapon@ioSpaceMasterAttack@@UAEXPAVioBaseChar@@0K_N@Z
	DD	FLAT:?SetCollisionByApplySkill@ioSkill@@UAEXXZ
	DD	FLAT:?SetChargingRateForWeapon@ioSkill@@UAEXPAVioWeapon@@@Z
	DD	FLAT:?CheckExceptionCamera@ioSkill@@UAE_NXZ
	DD	FLAT:?GetExceptionCameraPos@ioSkill@@UAE?AUD3DXVECTOR3@@PAVioBaseChar@@@Z
	DD	FLAT:?IsFixedExceptionCamera@ioSkill@@UAE_NXZ
	DD	FLAT:?IsUseActiveCnt@ioSkill@@UBE_NXZ
	DD	FLAT:?GetMaxActiveCnt@ioSkill@@UBEHPAVioBaseChar@@@Z
	DD	FLAT:?GetCurActiveCnt@ioSkill@@UBEHPAVioBaseChar@@@Z
	DD	FLAT:??_EioSpaceMasterAttack@@UAEPAXI@Z
	DD	FLAT:?StartPreDelayAnimation@ioAttackSkill@@MAE_NPAVioBaseChar@@@Z
	DD	FLAT:?AttackSkillFire@ioAttackSkill@@MAEXPAVioBaseChar@@@Z
	DD	FLAT:?GetAttackTimeRate@ioAttackSkill@@MBEMXZ
	DD	FLAT:?GetAttackEndTimeRate@ioAttackSkill@@MBEMXZ
	DD	FLAT:?LoadNormalAttribute@ioAttackSkill@@MAEXAAVioINILoader@@@Z
	DD	FLAT:?LoadDownAttribute@ioAttackSkill@@MAEXAAVioINILoader@@@Z
	DD	FLAT:?LoadJumpAttribute@ioAttackSkill@@MAEXAAVioINILoader@@@Z
	DD	FLAT:?GetAttribute@ioAttackSkill@@UAEAAUAttackAttribute@@XZ
	DD	FLAT:?GetAttributeConst@ioAttackSkill@@UBEABUAttackAttribute@@XZ
	DD	FLAT:?IsCanStateEscape@ioAttackSkill@@UBE_NXZ
	DD	FLAT:?IsCanStateEscapeOnStand@ioAttackSkill@@UBE_NPAVioBaseChar@@@Z
	DD	FLAT:?IsCanStateEscapeOnAir@ioAttackSkill@@UBE_NPAVioBaseChar@@@Z
	DD	FLAT:?IsCanStateEscapeOnDown@ioAttackSkill@@UBE_NPAVioBaseChar@@@Z
CONST	ENDS
;	COMDAT xdata$x
xdata$x	SEGMENT
__ehfuncinfo$??0ioSpaceMasterAttack@@QAE@XZ DD 019930522H
	DD	09H
	DD	FLAT:__unwindtable$??0ioSpaceMasterAttack@@QAE@XZ
	DD	2 DUP(00H)
	DD	2 DUP(00H)
	DD	00H
	DD	01H
__unwindtable$??0ioSpaceMasterAttack@@QAE@XZ DD 0ffffffffH
	DD	FLAT:__unwindfunclet$??0ioSpaceMasterAttack@@QAE@XZ$0
	DD	00H
	DD	FLAT:__unwindfunclet$??0ioSpaceMasterAttack@@QAE@XZ$1
	DD	01H
	DD	FLAT:__unwindfunclet$??0ioSpaceMasterAttack@@QAE@XZ$2
	DD	02H
	DD	FLAT:__unwindfunclet$??0ioSpaceMasterAttack@@QAE@XZ$3
	DD	03H
	DD	FLAT:__unwindfunclet$??0ioSpaceMasterAttack@@QAE@XZ$4
	DD	04H
	DD	FLAT:__unwindfunclet$??0ioSpaceMasterAttack@@QAE@XZ$5
	DD	05H
	DD	FLAT:__unwindfunclet$??0ioSpaceMasterAttack@@QAE@XZ$6
	DD	06H
	DD	FLAT:__unwindfunclet$??0ioSpaceMasterAttack@@QAE@XZ$7
	DD	07H
	DD	FLAT:__unwindfunclet$??0ioSpaceMasterAttack@@QAE@XZ$8
; Function compile flags: /Ogsp
; File d:\lost saga for developer\youtube\tutorial\source\src\lsclient\iospacemasterattack.cpp
xdata$x	ENDS
;	COMDAT ??0ioSpaceMasterAttack@@QAE@XZ
_TEXT	SEGMENT
_this$ = -16						; size = 4
__$EHRec$ = -12						; size = 12
??0ioSpaceMasterAttack@@QAE@XZ PROC			; ioSpaceMasterAttack::ioSpaceMasterAttack, COMDAT
; _this$ = ecx

; 16   : {

  00000	6a 04		 push	 4
  00002	b8 00 00 00 00	 mov	 eax, __ehhandler$??0ioSpaceMasterAttack@@QAE@XZ
  00007	e8 00 00 00 00	 call	 __EH_prolog3
  0000c	8b f1		 mov	 esi, ecx
  0000e	89 75 f0	 mov	 DWORD PTR _this$[ebp], esi
  00011	e8 00 00 00 00	 call	 ??0ioAttackSkill@@QAE@XZ ; ioAttackSkill::ioAttackSkill
  00016	8b 3d 00 00 00
	00		 mov	 edi, DWORD PTR __imp_??0ioHashString@@QAE@XZ
  0001c	33 db		 xor	 ebx, ebx
  0001e	8d 8e 0c 11 00
	00		 lea	 ecx, DWORD PTR [esi+4364]
  00024	89 5d fc	 mov	 DWORD PTR __$EHRec$[ebp+8], ebx
  00027	c7 06 00 00 00
	00		 mov	 DWORD PTR [esi], OFFSET ??_7ioSpaceMasterAttack@@6B@
  0002d	ff d7		 call	 edi
  0002f	8d 8e 1c 11 00
	00		 lea	 ecx, DWORD PTR [esi+4380]
  00035	c6 45 fc 01	 mov	 BYTE PTR __$EHRec$[ebp+8], 1
  00039	e8 00 00 00 00	 call	 ??0AttackAttribute@@QAE@XZ ; AttackAttribute::AttackAttribute
  0003e	89 9e 6c 11 00
	00		 mov	 DWORD PTR [esi+4460], ebx
  00044	89 9e 70 11 00
	00		 mov	 DWORD PTR [esi+4464], ebx
  0004a	89 9e 74 11 00
	00		 mov	 DWORD PTR [esi+4468], ebx
  00050	8d 8e 7c 11 00
	00		 lea	 ecx, DWORD PTR [esi+4476]
  00056	c6 45 fc 03	 mov	 BYTE PTR __$EHRec$[ebp+8], 3
  0005a	ff d7		 call	 edi
  0005c	89 9e ac 11 00
	00		 mov	 DWORD PTR [esi+4524], ebx
  00062	89 9e b0 11 00
	00		 mov	 DWORD PTR [esi+4528], ebx
  00068	89 9e b4 11 00
	00		 mov	 DWORD PTR [esi+4532], ebx
  0006e	8d 8e c4 11 00
	00		 lea	 ecx, DWORD PTR [esi+4548]
  00074	c6 45 fc 05	 mov	 BYTE PTR __$EHRec$[ebp+8], 5
  00078	ff d7		 call	 edi
  0007a	8d 8e e4 11 00
	00		 lea	 ecx, DWORD PTR [esi+4580]
  00080	c6 45 fc 06	 mov	 BYTE PTR __$EHRec$[ebp+8], 6
  00084	ff d7		 call	 edi
  00086	89 9e f4 11 00
	00		 mov	 DWORD PTR [esi+4596], ebx
  0008c	89 9e f8 11 00
	00		 mov	 DWORD PTR [esi+4600], ebx
  00092	89 9e fc 11 00
	00		 mov	 DWORD PTR [esi+4604], ebx

; 17   : 	Init();

  00098	8b ce		 mov	 ecx, esi
  0009a	c6 45 fc 08	 mov	 BYTE PTR __$EHRec$[ebp+8], 8
  0009e	e8 00 00 00 00	 call	 ?Init@ioSpaceMasterAttack@@QAEXXZ ; ioSpaceMasterAttack::Init

; 18   : }

  000a3	8b c6		 mov	 eax, esi
  000a5	e8 00 00 00 00	 call	 __EH_epilog3
  000aa	c3		 ret	 0
_TEXT	ENDS
;	COMDAT text$x
text$x	SEGMENT
__unwindfunclet$??0ioSpaceMasterAttack@@QAE@XZ$0:
  00000	8b 4d f0	 mov	 ecx, DWORD PTR _this$[ebp]
  00003	e9 00 00 00 00	 jmp	 ??1ioAttackSkill@@UAE@XZ ; ioAttackSkill::~ioAttackSkill
__unwindfunclet$??0ioSpaceMasterAttack@@QAE@XZ$1:
  00008	8b 4d f0	 mov	 ecx, DWORD PTR _this$[ebp]
  0000b	81 c1 0c 11 00
	00		 add	 ecx, 4364		; 0000110cH
  00011	ff 25 00 00 00
	00		 jmp	 DWORD PTR __imp_??1ioHashString@@QAE@XZ
__unwindfunclet$??0ioSpaceMasterAttack@@QAE@XZ$2:
  00017	8b 4d f0	 mov	 ecx, DWORD PTR _this$[ebp]
  0001a	81 c1 1c 11 00
	00		 add	 ecx, 4380		; 0000111cH
  00020	e9 00 00 00 00	 jmp	 ??1AttackAttribute@@QAE@XZ
__unwindfunclet$??0ioSpaceMasterAttack@@QAE@XZ$3:
  00025	8b 4d f0	 mov	 ecx, DWORD PTR _this$[ebp]
  00028	81 c1 6c 11 00
	00		 add	 ecx, 4460		; 0000116cH
  0002e	e9 00 00 00 00	 jmp	 ??1?$vector@KV?$allocator@K@std@@@std@@QAE@XZ ; std::vector<unsigned long,std::allocator<unsigned long> >::~vector<unsigned long,std::allocator<unsigned long> >
__unwindfunclet$??0ioSpaceMasterAttack@@QAE@XZ$4:
  00033	8b 4d f0	 mov	 ecx, DWORD PTR _this$[ebp]
  00036	81 c1 7c 11 00
	00		 add	 ecx, 4476		; 0000117cH
  0003c	ff 25 00 00 00
	00		 jmp	 DWORD PTR __imp_??1ioHashString@@QAE@XZ
__unwindfunclet$??0ioSpaceMasterAttack@@QAE@XZ$5:
  00042	8b 4d f0	 mov	 ecx, DWORD PTR _this$[ebp]
  00045	81 c1 ac 11 00
	00		 add	 ecx, 4524		; 000011acH
  0004b	e9 00 00 00 00	 jmp	 ??1?$vector@KV?$allocator@K@std@@@std@@QAE@XZ ; std::vector<unsigned long,std::allocator<unsigned long> >::~vector<unsigned long,std::allocator<unsigned long> >
__unwindfunclet$??0ioSpaceMasterAttack@@QAE@XZ$6:
  00050	8b 4d f0	 mov	 ecx, DWORD PTR _this$[ebp]
  00053	81 c1 c4 11 00
	00		 add	 ecx, 4548		; 000011c4H
  00059	ff 25 00 00 00
	00		 jmp	 DWORD PTR __imp_??1ioHashString@@QAE@XZ
__unwindfunclet$??0ioSpaceMasterAttack@@QAE@XZ$7:
  0005f	8b 4d f0	 mov	 ecx, DWORD PTR _this$[ebp]
  00062	81 c1 e4 11 00
	00		 add	 ecx, 4580		; 000011e4H
  00068	ff 25 00 00 00
	00		 jmp	 DWORD PTR __imp_??1ioHashString@@QAE@XZ
__unwindfunclet$??0ioSpaceMasterAttack@@QAE@XZ$8:
  0006e	8b 4d f0	 mov	 ecx, DWORD PTR _this$[ebp]
  00071	81 c1 f4 11 00
	00		 add	 ecx, 4596		; 000011f4H
  00077	e9 00 00 00 00	 jmp	 ??1?$vector@VioHashString@@V?$allocator@VioHashString@@@std@@@std@@QAE@XZ ; std::vector<ioHashString,std::allocator<ioHashString> >::~vector<ioHashString,std::allocator<ioHashString> >
__ehhandler$??0ioSpaceMasterAttack@@QAE@XZ:
  0007c	8b 54 24 08	 mov	 edx, DWORD PTR [esp+8]
  00080	8d 42 0c	 lea	 eax, DWORD PTR [edx+12]
  00083	8b 4a ec	 mov	 ecx, DWORD PTR [edx-20]
  00086	33 c8		 xor	 ecx, eax
  00088	e8 00 00 00 00	 call	 @__security_check_cookie@4
  0008d	b8 00 00 00 00	 mov	 eax, OFFSET __ehfuncinfo$??0ioSpaceMasterAttack@@QAE@XZ
  00092	e9 00 00 00 00	 jmp	 ___CxxFrameHandler3
text$x	ENDS
??0ioSpaceMasterAttack@@QAE@XZ ENDP			; ioSpaceMasterAttack::ioSpaceMasterAttack
; Function compile flags: /Ogsp
; File d:\lost saga for developer\youtube\tutorial\source\src\lsclient\ioskill.h
;	COMDAT ?GetDefenseSkillBreakeType@ioSkill@@UBE?AW4DefenseBreakType@@XZ
_TEXT	SEGMENT
?GetDefenseSkillBreakeType@ioSkill@@UBE?AW4DefenseBreakType@@XZ PROC ; ioSkill::GetDefenseSkillBreakeType, COMDAT
; _this$ = ecx

; 327  : 	virtual DefenseBreakType GetDefenseSkillBreakeType() const { return m_eDefenseSkillBreakType; }

  00000	8b 81 30 0e 00
	00		 mov	 eax, DWORD PTR [ecx+3632]
  00006	c3		 ret	 0
?GetDefenseSkillBreakeType@ioSkill@@UBE?AW4DefenseBreakType@@XZ ENDP ; ioSkill::GetDefenseSkillBreakeType
; Function compile flags: /Ogsp
_TEXT	ENDS
;	COMDAT ?GetSkillEndNextJumpAmt@ioSkill@@UBEMXZ
_TEXT	SEGMENT
?GetSkillEndNextJumpAmt@ioSkill@@UBEMXZ PROC		; ioSkill::GetSkillEndNextJumpAmt, COMDAT
; _this$ = ecx

; 335  : 	virtual float GetSkillEndNextJumpAmt() const { return m_fSkillEndNextJumpAmt; }

  00000	d9 81 4c 05 00
	00		 fld	 DWORD PTR [ecx+1356]
  00006	c3		 ret	 0
?GetSkillEndNextJumpAmt@ioSkill@@UBEMXZ ENDP		; ioSkill::GetSkillEndNextJumpAmt
; Function compile flags: /Ogsp
_TEXT	ENDS
;	COMDAT ?GetSkillEndNextLandRate@ioSkill@@UBEMXZ
_TEXT	SEGMENT
?GetSkillEndNextLandRate@ioSkill@@UBEMXZ PROC		; ioSkill::GetSkillEndNextLandRate, COMDAT
; _this$ = ecx

; 336  : 	virtual float GetSkillEndNextLandRate() const { return m_fSkillEndNextLandRate; }

  00000	d9 81 50 05 00
	00		 fld	 DWORD PTR [ecx+1360]
  00006	c3		 ret	 0
?GetSkillEndNextLandRate@ioSkill@@UBEMXZ ENDP		; ioSkill::GetSkillEndNextLandRate
; Function compile flags: /Ogsp
_TEXT	ENDS
;	COMDAT ?EnableChangeGrapplingTargetPos@ioSkill@@UBE_NXZ
_TEXT	SEGMENT
?EnableChangeGrapplingTargetPos@ioSkill@@UBE_NXZ PROC	; ioSkill::EnableChangeGrapplingTargetPos, COMDAT
; _this$ = ecx

; 355  : 	virtual bool EnableChangeGrapplingTargetPos() const { return m_bChangeGrapplingTargetPos; }

  00000	8a 81 40 09 00
	00		 mov	 al, BYTE PTR [ecx+2368]
  00006	c3		 ret	 0
?EnableChangeGrapplingTargetPos@ioSkill@@UBE_NXZ ENDP	; ioSkill::EnableChangeGrapplingTargetPos
; Function compile flags: /Ogsp
_TEXT	ENDS
;	COMDAT ?IsInvisibleBottomCircle@ioSkill@@UAE_NPAVioBaseChar@@@Z
_TEXT	SEGMENT
_pChar$ = 8						; size = 4
?IsInvisibleBottomCircle@ioSkill@@UAE_NPAVioBaseChar@@@Z PROC ; ioSkill::IsInvisibleBottomCircle, COMDAT
; _this$ = ecx

; 393  : 	virtual bool IsInvisibleBottomCircle( ioBaseChar *pChar ) { return false; }

  00000	32 c0		 xor	 al, al
  00002	c2 04 00	 ret	 4
?IsInvisibleBottomCircle@ioSkill@@UAE_NPAVioBaseChar@@@Z ENDP ; ioSkill::IsInvisibleBottomCircle
; Function compile flags: /Ogsp
_TEXT	ENDS
;	COMDAT ?IsUseActiveCnt@ioSkill@@UBE_NXZ
_TEXT	SEGMENT
?IsUseActiveCnt@ioSkill@@UBE_NXZ PROC			; ioSkill::IsUseActiveCnt, COMDAT
; _this$ = ecx

; 544  : 	virtual bool IsUseActiveCnt() const { return false; }

  00000	32 c0		 xor	 al, al
  00002	c3		 ret	 0
?IsUseActiveCnt@ioSkill@@UBE_NXZ ENDP			; ioSkill::IsUseActiveCnt
; Function compile flags: /Ogsp
_TEXT	ENDS
;	COMDAT ?GetMaxActiveCnt@ioSkill@@UBEHPAVioBaseChar@@@Z
_TEXT	SEGMENT
_pChar$ = 8						; size = 4
?GetMaxActiveCnt@ioSkill@@UBEHPAVioBaseChar@@@Z PROC	; ioSkill::GetMaxActiveCnt, COMDAT
; _this$ = ecx

; 545  : 	virtual int GetMaxActiveCnt( ioBaseChar *pChar ) const { return 0; }

  00000	33 c0		 xor	 eax, eax
  00002	c2 04 00	 ret	 4
?GetMaxActiveCnt@ioSkill@@UBEHPAVioBaseChar@@@Z ENDP	; ioSkill::GetMaxActiveCnt
; Function compile flags: /Ogsp
_TEXT	ENDS
;	COMDAT ?GetCurActiveCnt@ioSkill@@UBEHPAVioBaseChar@@@Z
_TEXT	SEGMENT
_pChar$ = 8						; size = 4
?GetCurActiveCnt@ioSkill@@UBEHPAVioBaseChar@@@Z PROC	; ioSkill::GetCurActiveCnt, COMDAT
; _this$ = ecx

; 546  : 	virtual int GetCurActiveCnt( ioBaseChar *pChar ) const { return 0; }

  00000	33 c0		 xor	 eax, eax
  00002	c2 04 00	 ret	 4
?GetCurActiveCnt@ioSkill@@UBEHPAVioBaseChar@@@Z ENDP	; ioSkill::GetCurActiveCnt
; Function compile flags: /Ogsp
_TEXT	ENDS
;	COMDAT ?IsCanJumpingSkill@ioSkill@@UBE_NXZ
_TEXT	SEGMENT
_value$559781 = -1					; size = 1
?IsCanJumpingSkill@ioSkill@@UBE_NXZ PROC		; ioSkill::IsCanJumpingSkill, COMDAT
; _this$ = ecx

; 431  : 	virtual bool IsCanJumpingSkill() const { return m_bEnableJumpingSkill; }

  00000	55		 push	 ebp
  00001	8b ec		 mov	 ebp, esp
  00003	51		 push	 ecx
  00004	8d 45 ff	 lea	 eax, DWORD PTR _value$559781[ebp]
  00007	50		 push	 eax
  00008	81 c1 9c 03 00
	00		 add	 ecx, 924		; 0000039cH
  0000e	e8 00 00 00 00	 call	 ?DecryptValueToPool@?$CEncrypt@_N@@QAEXPA_N@Z ; CEncrypt<bool>::DecryptValueToPool
  00013	8a 45 ff	 mov	 al, BYTE PTR _value$559781[ebp]
  00016	c9		 leave
  00017	c3		 ret	 0
?IsCanJumpingSkill@ioSkill@@UBE_NXZ ENDP		; ioSkill::IsCanJumpingSkill
; Function compile flags: /Ogsp
_TEXT	ENDS
;	COMDAT ?IsCanJumpingSkillOnBlowWound@ioSkill@@UBE_NXZ
_TEXT	SEGMENT
_value$559788 = -1					; size = 1
?IsCanJumpingSkillOnBlowWound@ioSkill@@UBE_NXZ PROC	; ioSkill::IsCanJumpingSkillOnBlowWound, COMDAT
; _this$ = ecx

; 432  : 	virtual bool IsCanJumpingSkillOnBlowWound() const { return m_bEnableJumpingSkillOnBlowWound; }

  00000	55		 push	 ebp
  00001	8b ec		 mov	 ebp, esp
  00003	51		 push	 ecx
  00004	8d 45 ff	 lea	 eax, DWORD PTR _value$559788[ebp]
  00007	50		 push	 eax
  00008	81 c1 cc 03 00
	00		 add	 ecx, 972		; 000003ccH
  0000e	e8 00 00 00 00	 call	 ?DecryptValueToPool@?$CEncrypt@_N@@QAEXPA_N@Z ; CEncrypt<bool>::DecryptValueToPool
  00013	8a 45 ff	 mov	 al, BYTE PTR _value$559788[ebp]
  00016	c9		 leave
  00017	c3		 ret	 0
?IsCanJumpingSkillOnBlowWound@ioSkill@@UBE_NXZ ENDP	; ioSkill::IsCanJumpingSkillOnBlowWound
; Function compile flags: /Ogsp
_TEXT	ENDS
;	COMDAT ?IsCanDownSkill@ioSkill@@UBE_NXZ
_TEXT	SEGMENT
_value$559795 = -1					; size = 1
?IsCanDownSkill@ioSkill@@UBE_NXZ PROC			; ioSkill::IsCanDownSkill, COMDAT
; _this$ = ecx

; 437  : 	virtual bool IsCanDownSkill() const { return m_bEnableDownSkill; }

  00000	55		 push	 ebp
  00001	8b ec		 mov	 ebp, esp
  00003	51		 push	 ecx
  00004	8d 45 ff	 lea	 eax, DWORD PTR _value$559795[ebp]
  00007	50		 push	 eax
  00008	81 c1 5c 04 00
	00		 add	 ecx, 1116		; 0000045cH
  0000e	e8 00 00 00 00	 call	 ?DecryptValueToPool@?$CEncrypt@_N@@QAEXPA_N@Z ; CEncrypt<bool>::DecryptValueToPool
  00013	8a 45 ff	 mov	 al, BYTE PTR _value$559795[ebp]
  00016	c9		 leave
  00017	c3		 ret	 0
?IsCanDownSkill@ioSkill@@UBE_NXZ ENDP			; ioSkill::IsCanDownSkill
; Function compile flags: /Ogsp
_TEXT	ENDS
;	COMDAT ?IsCanBlowWoundSkill@ioSkill@@UBE_NXZ
_TEXT	SEGMENT
_value$559802 = -1					; size = 1
?IsCanBlowWoundSkill@ioSkill@@UBE_NXZ PROC		; ioSkill::IsCanBlowWoundSkill, COMDAT
; _this$ = ecx

; 440  : 	virtual bool IsCanBlowWoundSkill() const { return m_bEnableBlowWoundSkill; }

  00000	55		 push	 ebp
  00001	8b ec		 mov	 ebp, esp
  00003	51		 push	 ecx
  00004	8d 45 ff	 lea	 eax, DWORD PTR _value$559802[ebp]
  00007	50		 push	 eax
  00008	81 c1 8c 04 00
	00		 add	 ecx, 1164		; 0000048cH
  0000e	e8 00 00 00 00	 call	 ?DecryptValueToPool@?$CEncrypt@_N@@QAEXPA_N@Z ; CEncrypt<bool>::DecryptValueToPool
  00013	8a 45 ff	 mov	 al, BYTE PTR _value$559802[ebp]
  00016	c9		 leave
  00017	c3		 ret	 0
?IsCanBlowWoundSkill@ioSkill@@UBE_NXZ ENDP		; ioSkill::IsCanBlowWoundSkill
; Function compile flags: /Ogsp
_TEXT	ENDS
;	COMDAT ?IsCanWoundSkill@ioSkill@@UBE_NXZ
_TEXT	SEGMENT
_value$559809 = -1					; size = 1
?IsCanWoundSkill@ioSkill@@UBE_NXZ PROC			; ioSkill::IsCanWoundSkill, COMDAT
; _this$ = ecx

; 446  : 	virtual bool IsCanWoundSkill() const { return m_bEnableWoundSkill; }

  00000	55		 push	 ebp
  00001	8b ec		 mov	 ebp, esp
  00003	51		 push	 ecx
  00004	8d 45 ff	 lea	 eax, DWORD PTR _value$559809[ebp]
  00007	50		 push	 eax
  00008	81 c1 54 05 00
	00		 add	 ecx, 1364		; 00000554H
  0000e	e8 00 00 00 00	 call	 ?DecryptValueToPool@?$CEncrypt@_N@@QAEXPA_N@Z ; CEncrypt<bool>::DecryptValueToPool
  00013	8a 45 ff	 mov	 al, BYTE PTR _value$559809[ebp]
  00016	c9		 leave
  00017	c3		 ret	 0
?IsCanWoundSkill@ioSkill@@UBE_NXZ ENDP			; ioSkill::IsCanWoundSkill
_TEXT	ENDS
PUBLIC	??0ioSpaceMasterAttack@@QAE@ABV0@@Z		; ioSpaceMasterAttack::ioSpaceMasterAttack
EXTRN	??0ioAttackSkill@@QAE@ABV0@@Z:PROC		; ioAttackSkill::ioAttackSkill
;	COMDAT xdata$x
; File c:\program files (x86)\microsoft visual studio 10.0\vc\include\xmemory
xdata$x	SEGMENT
__ehfuncinfo$??0ioSpaceMasterAttack@@QAE@ABV0@@Z DD 019930522H
	DD	09H
	DD	FLAT:__unwindtable$??0ioSpaceMasterAttack@@QAE@ABV0@@Z
	DD	2 DUP(00H)
	DD	2 DUP(00H)
	DD	00H
	DD	01H
__unwindtable$??0ioSpaceMasterAttack@@QAE@ABV0@@Z DD 0ffffffffH
	DD	FLAT:__unwindfunclet$??0ioSpaceMasterAttack@@QAE@ABV0@@Z$0
	DD	00H
	DD	FLAT:__unwindfunclet$??0ioSpaceMasterAttack@@QAE@ABV0@@Z$1
	DD	01H
	DD	FLAT:__unwindfunclet$??0ioSpaceMasterAttack@@QAE@ABV0@@Z$2
	DD	02H
	DD	FLAT:__unwindfunclet$??0ioSpaceMasterAttack@@QAE@ABV0@@Z$3
	DD	03H
	DD	FLAT:__unwindfunclet$??0ioSpaceMasterAttack@@QAE@ABV0@@Z$4
	DD	04H
	DD	FLAT:__unwindfunclet$??0ioSpaceMasterAttack@@QAE@ABV0@@Z$5
	DD	05H
	DD	FLAT:__unwindfunclet$??0ioSpaceMasterAttack@@QAE@ABV0@@Z$6
	DD	06H
	DD	FLAT:__unwindfunclet$??0ioSpaceMasterAttack@@QAE@ABV0@@Z$7
	DD	07H
	DD	FLAT:__unwindfunclet$??0ioSpaceMasterAttack@@QAE@ABV0@@Z$8
; Function compile flags: /Ogsp
; File d:\lost saga for developer\youtube\tutorial\source\src\lsclient\iospacemasterattack.cpp
xdata$x	ENDS
;	COMDAT ??0ioSpaceMasterAttack@@QAE@ABV0@@Z
_TEXT	SEGMENT
_this$ = -16						; size = 4
__$EHRec$ = -12						; size = 12
_rhs$ = 8						; size = 4
??0ioSpaceMasterAttack@@QAE@ABV0@@Z PROC		; ioSpaceMasterAttack::ioSpaceMasterAttack, COMDAT
; _this$ = ecx

; 41   : {

  00000	6a 04		 push	 4
  00002	b8 00 00 00 00	 mov	 eax, __ehhandler$??0ioSpaceMasterAttack@@QAE@ABV0@@Z
  00007	e8 00 00 00 00	 call	 __EH_prolog3
  0000c	8b f1		 mov	 esi, ecx
  0000e	89 75 f0	 mov	 DWORD PTR _this$[ebp], esi
  00011	8b 7d 08	 mov	 edi, DWORD PTR _rhs$[ebp]
  00014	57		 push	 edi
  00015	e8 00 00 00 00	 call	 ??0ioAttackSkill@@QAE@ABV0@@Z ; ioAttackSkill::ioAttackSkill
  0001a	c7 06 00 00 00
	00		 mov	 DWORD PTR [esi], OFFSET ??_7ioSpaceMasterAttack@@6B@
  00020	8b 87 ec 10 00
	00		 mov	 eax, DWORD PTR [edi+4332]
  00026	89 86 ec 10 00
	00		 mov	 DWORD PTR [esi+4332], eax
  0002c	8b 87 f0 10 00
	00		 mov	 eax, DWORD PTR [edi+4336]
  00032	89 86 f0 10 00
	00		 mov	 DWORD PTR [esi+4336], eax
  00038	d9 87 f4 10 00
	00		 fld	 DWORD PTR [edi+4340]
  0003e	d9 9e f4 10 00
	00		 fstp	 DWORD PTR [esi+4340]
  00044	33 db		 xor	 ebx, ebx
  00046	d9 87 f8 10 00
	00		 fld	 DWORD PTR [edi+4344]
  0004c	8d 8e 0c 11 00
	00		 lea	 ecx, DWORD PTR [esi+4364]
  00052	d9 9e f8 10 00
	00		 fstp	 DWORD PTR [esi+4344]
  00058	89 5d fc	 mov	 DWORD PTR __$EHRec$[ebp+8], ebx
  0005b	d9 87 fc 10 00
	00		 fld	 DWORD PTR [edi+4348]
  00061	d9 9e fc 10 00
	00		 fstp	 DWORD PTR [esi+4348]
  00067	ff 15 00 00 00
	00		 call	 DWORD PTR __imp_??0ioHashString@@QAE@XZ
  0006d	8d 87 1c 11 00
	00		 lea	 eax, DWORD PTR [edi+4380]
  00073	50		 push	 eax
  00074	8d 8e 1c 11 00
	00		 lea	 ecx, DWORD PTR [esi+4380]
  0007a	c6 45 fc 01	 mov	 BYTE PTR __$EHRec$[ebp+8], 1
  0007e	e8 00 00 00 00	 call	 ??0AttackAttribute@@QAE@ABU0@@Z
  00083	89 9e 6c 11 00
	00		 mov	 DWORD PTR [esi+4460], ebx
  00089	89 9e 70 11 00
	00		 mov	 DWORD PTR [esi+4464], ebx
  0008f	89 9e 74 11 00
	00		 mov	 DWORD PTR [esi+4468], ebx
  00095	8b 1d 00 00 00
	00		 mov	 ebx, DWORD PTR __imp_??0ioHashString@@QAE@ABV0@@Z
  0009b	8d 87 7c 11 00
	00		 lea	 eax, DWORD PTR [edi+4476]
  000a1	50		 push	 eax
  000a2	8d 8e 7c 11 00
	00		 lea	 ecx, DWORD PTR [esi+4476]
  000a8	c6 45 fc 03	 mov	 BYTE PTR __$EHRec$[ebp+8], 3
  000ac	ff d3		 call	 ebx
  000ae	d9 87 8c 11 00
	00		 fld	 DWORD PTR [edi+4492]
  000b4	d9 9e 8c 11 00
	00		 fstp	 DWORD PTR [esi+4492]
  000ba	8b 87 94 11 00
	00		 mov	 eax, DWORD PTR [edi+4500]
  000c0	89 86 94 11 00
	00		 mov	 DWORD PTR [esi+4500], eax
  000c6	8b 87 98 11 00
	00		 mov	 eax, DWORD PTR [edi+4504]
  000cc	89 86 98 11 00
	00		 mov	 DWORD PTR [esi+4504], eax
  000d2	8b 87 9c 11 00
	00		 mov	 eax, DWORD PTR [edi+4508]
  000d8	89 86 9c 11 00
	00		 mov	 DWORD PTR [esi+4508], eax
  000de	d9 87 a0 11 00
	00		 fld	 DWORD PTR [edi+4512]
  000e4	d9 9e a0 11 00
	00		 fstp	 DWORD PTR [esi+4512]
  000ea	33 c9		 xor	 ecx, ecx
  000ec	d9 87 a4 11 00
	00		 fld	 DWORD PTR [edi+4516]
  000f2	d9 9e a4 11 00
	00		 fstp	 DWORD PTR [esi+4516]
  000f8	89 8e ac 11 00
	00		 mov	 DWORD PTR [esi+4524], ecx
  000fe	89 8e b0 11 00
	00		 mov	 DWORD PTR [esi+4528], ecx
  00104	89 8e b4 11 00
	00		 mov	 DWORD PTR [esi+4532], ecx
  0010a	8b 87 c0 11 00
	00		 mov	 eax, DWORD PTR [edi+4544]
  00110	89 86 c0 11 00
	00		 mov	 DWORD PTR [esi+4544], eax
  00116	8d 87 c4 11 00
	00		 lea	 eax, DWORD PTR [edi+4548]
  0011c	50		 push	 eax
  0011d	8d 8e c4 11 00
	00		 lea	 ecx, DWORD PTR [esi+4548]
  00123	c6 45 fc 05	 mov	 BYTE PTR __$EHRec$[ebp+8], 5
  00127	ff d3		 call	 ebx
  00129	d9 87 d4 11 00
	00		 fld	 DWORD PTR [edi+4564]
  0012f	d9 9e d4 11 00
	00		 fstp	 DWORD PTR [esi+4564]
  00135	81 c7 e4 11 00
	00		 add	 edi, 4580		; 000011e4H
  0013b	d9 47 f4	 fld	 DWORD PTR [edi-12]
  0013e	57		 push	 edi
  0013f	d9 9e d8 11 00
	00		 fstp	 DWORD PTR [esi+4568]
  00145	8b 47 fc	 mov	 eax, DWORD PTR [edi-4]
  00148	8d 8e e4 11 00
	00		 lea	 ecx, DWORD PTR [esi+4580]
  0014e	c6 45 fc 06	 mov	 BYTE PTR __$EHRec$[ebp+8], 6
  00152	89 86 e0 11 00
	00		 mov	 DWORD PTR [esi+4576], eax
  00158	ff d3		 call	 ebx
  0015a	33 c9		 xor	 ecx, ecx
  0015c	89 8e f4 11 00
	00		 mov	 DWORD PTR [esi+4596], ecx
  00162	89 8e f8 11 00
	00		 mov	 DWORD PTR [esi+4600], ecx
  00168	89 8e fc 11 00
	00		 mov	 DWORD PTR [esi+4604], ecx
  0016e	c6 45 fc 08	 mov	 BYTE PTR __$EHRec$[ebp+8], 8

; 42   : 	Init();

  00172	8b ce		 mov	 ecx, esi
  00174	e8 00 00 00 00	 call	 ?Init@ioSpaceMasterAttack@@QAEXXZ ; ioSpaceMasterAttack::Init

; 43   : }

  00179	8b c6		 mov	 eax, esi
  0017b	e8 00 00 00 00	 call	 __EH_epilog3
  00180	c2 04 00	 ret	 4
_TEXT	ENDS
;	COMDAT text$x
text$x	SEGMENT
__unwindfunclet$??0ioSpaceMasterAttack@@QAE@ABV0@@Z$0:
  00000	8b 4d f0	 mov	 ecx, DWORD PTR _this$[ebp]
  00003	e9 00 00 00 00	 jmp	 ??1ioAttackSkill@@UAE@XZ ; ioAttackSkill::~ioAttackSkill
__unwindfunclet$??0ioSpaceMasterAttack@@QAE@ABV0@@Z$1:
  00008	8b 4d f0	 mov	 ecx, DWORD PTR _this$[ebp]
  0000b	81 c1 0c 11 00
	00		 add	 ecx, 4364		; 0000110cH
  00011	ff 25 00 00 00
	00		 jmp	 DWORD PTR __imp_??1ioHashString@@QAE@XZ
__unwindfunclet$??0ioSpaceMasterAttack@@QAE@ABV0@@Z$2:
  00017	8b 4d f0	 mov	 ecx, DWORD PTR _this$[ebp]
  0001a	81 c1 1c 11 00
	00		 add	 ecx, 4380		; 0000111cH
  00020	e9 00 00 00 00	 jmp	 ??1AttackAttribute@@QAE@XZ
__unwindfunclet$??0ioSpaceMasterAttack@@QAE@ABV0@@Z$3:
  00025	8b 4d f0	 mov	 ecx, DWORD PTR _this$[ebp]
  00028	81 c1 6c 11 00
	00		 add	 ecx, 4460		; 0000116cH
  0002e	e9 00 00 00 00	 jmp	 ??1?$vector@KV?$allocator@K@std@@@std@@QAE@XZ ; std::vector<unsigned long,std::allocator<unsigned long> >::~vector<unsigned long,std::allocator<unsigned long> >
__unwindfunclet$??0ioSpaceMasterAttack@@QAE@ABV0@@Z$4:
  00033	8b 4d f0	 mov	 ecx, DWORD PTR _this$[ebp]
  00036	81 c1 7c 11 00
	00		 add	 ecx, 4476		; 0000117cH
  0003c	ff 25 00 00 00
	00		 jmp	 DWORD PTR __imp_??1ioHashString@@QAE@XZ
__unwindfunclet$??0ioSpaceMasterAttack@@QAE@ABV0@@Z$5:
  00042	8b 4d f0	 mov	 ecx, DWORD PTR _this$[ebp]
  00045	81 c1 ac 11 00
	00		 add	 ecx, 4524		; 000011acH
  0004b	e9 00 00 00 00	 jmp	 ??1?$vector@KV?$allocator@K@std@@@std@@QAE@XZ ; std::vector<unsigned long,std::allocator<unsigned long> >::~vector<unsigned long,std::allocator<unsigned long> >
__unwindfunclet$??0ioSpaceMasterAttack@@QAE@ABV0@@Z$6:
  00050	8b 4d f0	 mov	 ecx, DWORD PTR _this$[ebp]
  00053	81 c1 c4 11 00
	00		 add	 ecx, 4548		; 000011c4H
  00059	ff 25 00 00 00
	00		 jmp	 DWORD PTR __imp_??1ioHashString@@QAE@XZ
__unwindfunclet$??0ioSpaceMasterAttack@@QAE@ABV0@@Z$7:
  0005f	8b 4d f0	 mov	 ecx, DWORD PTR _this$[ebp]
  00062	81 c1 e4 11 00
	00		 add	 ecx, 4580		; 000011e4H
  00068	ff 25 00 00 00
	00		 jmp	 DWORD PTR __imp_??1ioHashString@@QAE@XZ
__unwindfunclet$??0ioSpaceMasterAttack@@QAE@ABV0@@Z$8:
  0006e	8b 4d f0	 mov	 ecx, DWORD PTR _this$[ebp]
  00071	81 c1 f4 11 00
	00		 add	 ecx, 4596		; 000011f4H
  00077	e9 00 00 00 00	 jmp	 ??1?$vector@VioHashString@@V?$allocator@VioHashString@@@std@@@std@@QAE@XZ ; std::vector<ioHashString,std::allocator<ioHashString> >::~vector<ioHashString,std::allocator<ioHashString> >
__ehhandler$??0ioSpaceMasterAttack@@QAE@ABV0@@Z:
  0007c	8b 54 24 08	 mov	 edx, DWORD PTR [esp+8]
  00080	8d 42 0c	 lea	 eax, DWORD PTR [edx+12]
  00083	8b 4a ec	 mov	 ecx, DWORD PTR [edx-20]
  00086	33 c8		 xor	 ecx, eax
  00088	e8 00 00 00 00	 call	 @__security_check_cookie@4
  0008d	b8 00 00 00 00	 mov	 eax, OFFSET __ehfuncinfo$??0ioSpaceMasterAttack@@QAE@ABV0@@Z
  00092	e9 00 00 00 00	 jmp	 ___CxxFrameHandler3
text$x	ENDS
??0ioSpaceMasterAttack@@QAE@ABV0@@Z ENDP		; ioSpaceMasterAttack::ioSpaceMasterAttack
PUBLIC	??1ioSpaceMasterAttack@@UAE@XZ			; ioSpaceMasterAttack::~ioSpaceMasterAttack
;	COMDAT xdata$x
; File c:\program files (x86)\microsoft visual studio 10.0\vc\include\vector
xdata$x	SEGMENT
__ehfuncinfo$??1ioSpaceMasterAttack@@UAE@XZ DD 019930522H
	DD	08H
	DD	FLAT:__unwindtable$??1ioSpaceMasterAttack@@UAE@XZ
	DD	2 DUP(00H)
	DD	2 DUP(00H)
	DD	00H
	DD	01H
__unwindtable$??1ioSpaceMasterAttack@@UAE@XZ DD 0ffffffffH
	DD	FLAT:__unwindfunclet$??1ioSpaceMasterAttack@@UAE@XZ$0
	DD	00H
	DD	FLAT:__unwindfunclet$??1ioSpaceMasterAttack@@UAE@XZ$1
	DD	01H
	DD	FLAT:__unwindfunclet$??1ioSpaceMasterAttack@@UAE@XZ$2
	DD	02H
	DD	FLAT:__unwindfunclet$??1ioSpaceMasterAttack@@UAE@XZ$3
	DD	03H
	DD	FLAT:__unwindfunclet$??1ioSpaceMasterAttack@@UAE@XZ$4
	DD	04H
	DD	FLAT:__unwindfunclet$??1ioSpaceMasterAttack@@UAE@XZ$5
	DD	05H
	DD	FLAT:__unwindfunclet$??1ioSpaceMasterAttack@@UAE@XZ$6
	DD	06H
	DD	FLAT:__unwindfunclet$??1ioSpaceMasterAttack@@UAE@XZ$7
; Function compile flags: /Ogsp
; File d:\lost saga for developer\youtube\tutorial\source\src\lsclient\iospacemasterattack.cpp
xdata$x	ENDS
;	COMDAT ??1ioSpaceMasterAttack@@UAE@XZ
_TEXT	SEGMENT
_this$ = -16						; size = 4
__$EHRec$ = -12						; size = 12
??1ioSpaceMasterAttack@@UAE@XZ PROC			; ioSpaceMasterAttack::~ioSpaceMasterAttack, COMDAT
; _this$ = ecx

; 46   : {

  00000	6a 04		 push	 4
  00002	b8 00 00 00 00	 mov	 eax, __ehhandler$??1ioSpaceMasterAttack@@UAE@XZ
  00007	e8 00 00 00 00	 call	 __EH_prolog3
  0000c	8b f1		 mov	 esi, ecx
  0000e	89 75 f0	 mov	 DWORD PTR _this$[ebp], esi
  00011	c7 06 00 00 00
	00		 mov	 DWORD PTR [esi], OFFSET ??_7ioSpaceMasterAttack@@6B@

; 47   : }

  00017	8d 8e f4 11 00
	00		 lea	 ecx, DWORD PTR [esi+4596]
  0001d	c7 45 fc 07 00
	00 00		 mov	 DWORD PTR __$EHRec$[ebp+8], 7
  00024	e8 00 00 00 00	 call	 ?_Tidy@?$vector@VioHashString@@V?$allocator@VioHashString@@@std@@@std@@IAEXXZ ; std::vector<ioHashString,std::allocator<ioHashString> >::_Tidy
  00029	8b 3d 00 00 00
	00		 mov	 edi, DWORD PTR __imp_??1ioHashString@@QAE@XZ
  0002f	8d 8e e4 11 00
	00		 lea	 ecx, DWORD PTR [esi+4580]
  00035	c6 45 fc 06	 mov	 BYTE PTR __$EHRec$[ebp+8], 6
  00039	ff d7		 call	 edi
  0003b	8d 8e c4 11 00
	00		 lea	 ecx, DWORD PTR [esi+4548]
  00041	c6 45 fc 05	 mov	 BYTE PTR __$EHRec$[ebp+8], 5
  00045	ff d7		 call	 edi
  00047	8d 8e ac 11 00
	00		 lea	 ecx, DWORD PTR [esi+4524]
  0004d	c6 45 fc 04	 mov	 BYTE PTR __$EHRec$[ebp+8], 4
  00051	e8 00 00 00 00	 call	 ?_Tidy@?$vector@KV?$allocator@K@std@@@std@@IAEXXZ ; std::vector<unsigned long,std::allocator<unsigned long> >::_Tidy
  00056	8d 8e 7c 11 00
	00		 lea	 ecx, DWORD PTR [esi+4476]
  0005c	c6 45 fc 03	 mov	 BYTE PTR __$EHRec$[ebp+8], 3
  00060	ff d7		 call	 edi
  00062	8d 8e 6c 11 00
	00		 lea	 ecx, DWORD PTR [esi+4460]
  00068	c6 45 fc 02	 mov	 BYTE PTR __$EHRec$[ebp+8], 2
  0006c	e8 00 00 00 00	 call	 ?_Tidy@?$vector@KV?$allocator@K@std@@@std@@IAEXXZ ; std::vector<unsigned long,std::allocator<unsigned long> >::_Tidy
  00071	8d 8e 1c 11 00
	00		 lea	 ecx, DWORD PTR [esi+4380]
  00077	c6 45 fc 01	 mov	 BYTE PTR __$EHRec$[ebp+8], 1
  0007b	e8 00 00 00 00	 call	 ??1AttackAttribute@@QAE@XZ
  00080	8d 8e 0c 11 00
	00		 lea	 ecx, DWORD PTR [esi+4364]
  00086	c6 45 fc 00	 mov	 BYTE PTR __$EHRec$[ebp+8], 0
  0008a	ff d7		 call	 edi
  0008c	83 4d fc ff	 or	 DWORD PTR __$EHRec$[ebp+8], -1
  00090	8b ce		 mov	 ecx, esi
  00092	e8 00 00 00 00	 call	 ??1ioAttackSkill@@UAE@XZ ; ioAttackSkill::~ioAttackSkill
  00097	e8 00 00 00 00	 call	 __EH_epilog3
  0009c	c3		 ret	 0
_TEXT	ENDS
;	COMDAT text$x
text$x	SEGMENT
__unwindfunclet$??1ioSpaceMasterAttack@@UAE@XZ$0:
  00000	8b 4d f0	 mov	 ecx, DWORD PTR _this$[ebp]
  00003	e9 00 00 00 00	 jmp	 ??1ioAttackSkill@@UAE@XZ ; ioAttackSkill::~ioAttackSkill
__unwindfunclet$??1ioSpaceMasterAttack@@UAE@XZ$1:
  00008	8b 4d f0	 mov	 ecx, DWORD PTR _this$[ebp]
  0000b	81 c1 0c 11 00
	00		 add	 ecx, 4364		; 0000110cH
  00011	ff 25 00 00 00
	00		 jmp	 DWORD PTR __imp_??1ioHashString@@QAE@XZ
__unwindfunclet$??1ioSpaceMasterAttack@@UAE@XZ$2:
  00017	8b 4d f0	 mov	 ecx, DWORD PTR _this$[ebp]
  0001a	81 c1 1c 11 00
	00		 add	 ecx, 4380		; 0000111cH
  00020	e9 00 00 00 00	 jmp	 ??1AttackAttribute@@QAE@XZ
__unwindfunclet$??1ioSpaceMasterAttack@@UAE@XZ$3:
  00025	8b 4d f0	 mov	 ecx, DWORD PTR _this$[ebp]
  00028	81 c1 6c 11 00
	00		 add	 ecx, 4460		; 0000116cH
  0002e	e9 00 00 00 00	 jmp	 ??1?$vector@KV?$allocator@K@std@@@std@@QAE@XZ ; std::vector<unsigned long,std::allocator<unsigned long> >::~vector<unsigned long,std::allocator<unsigned long> >
__unwindfunclet$??1ioSpaceMasterAttack@@UAE@XZ$4:
  00033	8b 4d f0	 mov	 ecx, DWORD PTR _this$[ebp]
  00036	81 c1 7c 11 00
	00		 add	 ecx, 4476		; 0000117cH
  0003c	ff 25 00 00 00
	00		 jmp	 DWORD PTR __imp_??1ioHashString@@QAE@XZ
__unwindfunclet$??1ioSpaceMasterAttack@@UAE@XZ$5:
  00042	8b 4d f0	 mov	 ecx, DWORD PTR _this$[ebp]
  00045	81 c1 ac 11 00
	00		 add	 ecx, 4524		; 000011acH
  0004b	e9 00 00 00 00	 jmp	 ??1?$vector@KV?$allocator@K@std@@@std@@QAE@XZ ; std::vector<unsigned long,std::allocator<unsigned long> >::~vector<unsigned long,std::allocator<unsigned long> >
__unwindfunclet$??1ioSpaceMasterAttack@@UAE@XZ$6:
  00050	8b 4d f0	 mov	 ecx, DWORD PTR _this$[ebp]
  00053	81 c1 c4 11 00
	00		 add	 ecx, 4548		; 000011c4H
  00059	ff 25 00 00 00
	00		 jmp	 DWORD PTR __imp_??1ioHashString@@QAE@XZ
__unwindfunclet$??1ioSpaceMasterAttack@@UAE@XZ$7:
  0005f	8b 4d f0	 mov	 ecx, DWORD PTR _this$[ebp]
  00062	81 c1 e4 11 00
	00		 add	 ecx, 4580		; 000011e4H
  00068	ff 25 00 00 00
	00		 jmp	 DWORD PTR __imp_??1ioHashString@@QAE@XZ
__ehhandler$??1ioSpaceMasterAttack@@UAE@XZ:
  0006e	8b 54 24 08	 mov	 edx, DWORD PTR [esp+8]
  00072	8d 42 0c	 lea	 eax, DWORD PTR [edx+12]
  00075	8b 4a ec	 mov	 ecx, DWORD PTR [edx-20]
  00078	33 c8		 xor	 ecx, eax
  0007a	e8 00 00 00 00	 call	 @__security_check_cookie@4
  0007f	b8 00 00 00 00	 mov	 eax, OFFSET __ehfuncinfo$??1ioSpaceMasterAttack@@UAE@XZ
  00084	e9 00 00 00 00	 jmp	 ___CxxFrameHandler3
text$x	ENDS
??1ioSpaceMasterAttack@@UAE@XZ ENDP			; ioSpaceMasterAttack::~ioSpaceMasterAttack
;	COMDAT xdata$x
xdata$x	SEGMENT
__unwindtable$?Clone@ioSpaceMasterAttack@@UAEPAVioSkill@@XZ DD 0ffffffffH
	DD	FLAT:__unwindfunclet$?Clone@ioSpaceMasterAttack@@UAEPAVioSkill@@XZ$0
__ehfuncinfo$?Clone@ioSpaceMasterAttack@@UAEPAVioSkill@@XZ DD 019930522H
	DD	01H
	DD	FLAT:__unwindtable$?Clone@ioSpaceMasterAttack@@UAEPAVioSkill@@XZ
	DD	2 DUP(00H)
	DD	2 DUP(00H)
	DD	00H
	DD	01H
; Function compile flags: /Ogsp
xdata$x	ENDS
;	COMDAT ?Clone@ioSpaceMasterAttack@@UAEPAVioSkill@@XZ
_TEXT	SEGMENT
$T559950 = -16						; size = 4
__$EHRec$ = -12						; size = 12
?Clone@ioSpaceMasterAttack@@UAEPAVioSkill@@XZ PROC	; ioSpaceMasterAttack::Clone, COMDAT
; _this$ = ecx

; 108  : {

  00000	6a 04		 push	 4
  00002	b8 00 00 00 00	 mov	 eax, __ehhandler$?Clone@ioSpaceMasterAttack@@UAEPAVioSkill@@XZ
  00007	e8 00 00 00 00	 call	 __EH_prolog3
  0000c	8b f1		 mov	 esi, ecx

; 109  : 	return new ioSpaceMasterAttack( *this );

  0000e	68 04 12 00 00	 push	 4612			; 00001204H
  00013	e8 00 00 00 00	 call	 ??2@YAPAXI@Z		; operator new
  00018	59		 pop	 ecx
  00019	8b c8		 mov	 ecx, eax
  0001b	89 4d f0	 mov	 DWORD PTR $T559950[ebp], ecx
  0001e	33 c0		 xor	 eax, eax
  00020	89 45 fc	 mov	 DWORD PTR __$EHRec$[ebp+8], eax
  00023	3b c8		 cmp	 ecx, eax
  00025	74 06		 je	 SHORT $LN3@Clone
  00027	56		 push	 esi
  00028	e8 00 00 00 00	 call	 ??0ioSpaceMasterAttack@@QAE@ABV0@@Z ; ioSpaceMasterAttack::ioSpaceMasterAttack
$LN3@Clone:

; 110  : }

  0002d	e8 00 00 00 00	 call	 __EH_epilog3
  00032	c3		 ret	 0
_TEXT	ENDS
;	COMDAT text$x
text$x	SEGMENT
__unwindfunclet$?Clone@ioSpaceMasterAttack@@UAEPAVioSkill@@XZ$0:
  00000	ff 75 f0	 push	 DWORD PTR $T559950[ebp]
  00003	e8 00 00 00 00	 call	 ??3@YAXPAX@Z		; operator delete
  00008	59		 pop	 ecx
  00009	c3		 ret	 0
__ehhandler$?Clone@ioSpaceMasterAttack@@UAEPAVioSkill@@XZ:
  0000a	8b 54 24 08	 mov	 edx, DWORD PTR [esp+8]
  0000e	8d 42 0c	 lea	 eax, DWORD PTR [edx+12]
  00011	8b 4a ec	 mov	 ecx, DWORD PTR [edx-20]
  00014	33 c8		 xor	 ecx, eax
  00016	e8 00 00 00 00	 call	 @__security_check_cookie@4
  0001b	b8 00 00 00 00	 mov	 eax, OFFSET __ehfuncinfo$?Clone@ioSpaceMasterAttack@@UAEPAVioSkill@@XZ
  00020	e9 00 00 00 00	 jmp	 ___CxxFrameHandler3
text$x	ENDS
?Clone@ioSpaceMasterAttack@@UAEPAVioSkill@@XZ ENDP	; ioSpaceMasterAttack::Clone
PUBLIC	_this$GSCopy$
PUBLIC	__$ArrayPad$
PUBLIC	?SetSkillLoopState@ioSpaceMasterAttack@@IAEXPAVioBaseChar@@PAVioPlayStage@@_N@Z ; ioSpaceMasterAttack::SetSkillLoopState
EXTRN	?SkillFireExplicit@ioBaseChar@@QAEPAVioWeapon@@ABUWeaponInfo@@ABVioHashString@@KABUD3DXVECTOR3@@2@Z:PROC ; ioBaseChar::SkillFireExplicit
EXTRN	?IncreaseWeaponIndexBase@ioBaseChar@@QAEKXZ:PROC ; ioBaseChar::IncreaseWeaponIndexBase
;	COMDAT xdata$x
; File d:\lost saga for developer\youtube\tutorial\source\src\lsclient\ioskill.h
xdata$x	SEGMENT
__unwindtable$?SetSkillLoopState@ioSpaceMasterAttack@@IAEXPAVioBaseChar@@PAVioPlayStage@@_N@Z DD 0ffffffffH
	DD	FLAT:__unwindfunclet$?SetSkillLoopState@ioSpaceMasterAttack@@IAEXPAVioBaseChar@@PAVioPlayStage@@_N@Z$0
__ehfuncinfo$?SetSkillLoopState@ioSpaceMasterAttack@@IAEXPAVioBaseChar@@PAVioPlayStage@@_N@Z DD 019930522H
	DD	01H
	DD	FLAT:__unwindtable$?SetSkillLoopState@ioSpaceMasterAttack@@IAEXPAVioBaseChar@@PAVioPlayStage@@_N@Z
	DD	2 DUP(00H)
	DD	2 DUP(00H)
	DD	00H
	DD	01H
; Function compile flags: /Ogsp
; File d:\lost saga for developer\youtube\tutorial\source\src\lsclient\iospacemasterattack.cpp
xdata$x	ENDS
;	COMDAT ?SetSkillLoopState@ioSpaceMasterAttack@@IAEXPAVioBaseChar@@PAVioPlayStage@@_N@Z
_TEXT	SEGMENT
_this$GSCopy$ = -32856					; size = 4
_value$560089 = -32852					; size = 4
_iAniID$ = -32852					; size = 4
_value$560073 = -32845					; size = 1
_kPacket$548721 = -32844				; size = 32792
_vPos$ = -52						; size = 12
_vDir$ = -40						; size = 12
$T548706 = -28						; size = 12
__$ArrayPad$ = -16					; size = 4
__$EHRec$ = -12						; size = 12
_pChar$ = 8						; size = 4
_pStage$ = 12						; size = 4
_bCallSpaceWeapon$ = 16					; size = 1
?SetSkillLoopState@ioSpaceMasterAttack@@IAEXPAVioBaseChar@@PAVioPlayStage@@_N@Z PROC ; ioSpaceMasterAttack::SetSkillLoopState, COMDAT
; _this$ = ecx

; 269  : {

  00000	55		 push	 ebp
  00001	8b ec		 mov	 ebp, esp
  00003	6a ff		 push	 -1
  00005	68 00 00 00 00	 push	 __ehhandler$?SetSkillLoopState@ioSpaceMasterAttack@@IAEXPAVioBaseChar@@PAVioPlayStage@@_N@Z
  0000a	64 a1 00 00 00
	00		 mov	 eax, DWORD PTR fs:0
  00010	50		 push	 eax
  00011	b8 4c 80 00 00	 mov	 eax, 32844		; 0000804cH
  00016	e8 00 00 00 00	 call	 __chkstk
  0001b	a1 00 00 00 00	 mov	 eax, DWORD PTR ___security_cookie
  00020	33 c5		 xor	 eax, ebp
  00022	89 45 f0	 mov	 DWORD PTR __$ArrayPad$[ebp], eax
  00025	53		 push	 ebx
  00026	56		 push	 esi
  00027	57		 push	 edi
  00028	50		 push	 eax
  00029	8d 45 f4	 lea	 eax, DWORD PTR __$EHRec$[ebp]
  0002c	64 a3 00 00 00
	00		 mov	 DWORD PTR fs:0, eax
  00032	8b 5d 08	 mov	 ebx, DWORD PTR _pChar$[ebp]
  00035	8b f1		 mov	 esi, ecx

; 315  : 	{
; 316  : 		SP2Packet kPacket( CUPK_SKILL_EXTRA_INFO );

  00037	89 b5 a8 7f ff
	ff		 mov	 DWORD PTR _this$GSCopy$[ebp], esi
  0003d	c7 86 e4 10 00
	00 02 00 00 00	 mov	 DWORD PTR [esi+4324], 2
  00047	ff 15 00 00 00
	00		 call	 DWORD PTR __imp_?GetSingleton@ioFrameTimer@@SAAAV1@XZ
  0004d	8b c8		 mov	 ecx, eax
  0004f	ff 15 00 00 00
	00		 call	 DWORD PTR __imp_?GetLoopSec@ioFrameTimer@@QBEKXZ
  00055	8d 8e 7c 11 00
	00		 lea	 ecx, DWORD PTR [esi+4476]
  0005b	89 86 90 11 00
	00		 mov	 DWORD PTR [esi+4496], eax
  00061	ff 15 00 00 00
	00		 call	 DWORD PTR __imp_?IsEmpty@ioHashString@@QBE_NXZ
  00067	84 c0		 test	 al, al
  00069	0f 85 74 02 00
	00		 jne	 $LN10@SetSkillLo

; 270  : 	m_SkillState		= SS_LOOP;
; 271  : 	m_dwLoopStartTime	= FRAMEGETTIME();
; 272  : 
; 273  : 	if( m_LoopAnimation.IsEmpty() || !pChar )

  0006f	85 db		 test	 ebx, ebx
  00071	0f 84 6c 02 00
	00		 je	 $LN10@SetSkillLo

; 274  : 		return;
; 275  : 
; 276  : 	ioEntityGroup *pGrp = pChar->GetGroup();

  00077	8b 7b 04	 mov	 edi, DWORD PTR [ebx+4]

; 277  : 	if( !pGrp )

  0007a	85 ff		 test	 edi, edi
  0007c	0f 84 61 02 00
	00		 je	 $LN10@SetSkillLo

; 278  : 		return;
; 279  : 
; 280  : 	int iAniID = pGrp->GetAnimationIdx( m_LoopAnimation );

  00082	8d 86 7c 11 00
	00		 lea	 eax, DWORD PTR [esi+4476]
  00088	50		 push	 eax
  00089	8b cf		 mov	 ecx, edi
  0008b	ff 15 00 00 00
	00		 call	 DWORD PTR __imp_?GetAnimationIdx@ioEntityGroup@@QAEHABVioHashString@@@Z
  00091	89 85 ac 7f ff
	ff		 mov	 DWORD PTR _iAniID$[ebp], eax

; 281  : 	if( iAniID == -1 )

  00097	83 f8 ff	 cmp	 eax, -1
  0009a	0f 84 43 02 00
	00		 je	 $LN10@SetSkillLo

; 282  : 		return;
; 283  : 
; 284  : 	pGrp->ClearAllLoopAni( 100.0f, true );

  000a0	f3 0f 10 05 00
	00 00 00	 movss	 xmm0, DWORD PTR __real@42c80000
  000a8	6a 01		 push	 1
  000aa	51		 push	 ecx
  000ab	8b cf		 mov	 ecx, edi
  000ad	f3 0f 11 04 24	 movss	 DWORD PTR [esp], xmm0
  000b2	ff 15 00 00 00
	00		 call	 DWORD PTR __imp_?ClearAllLoopAni@ioEntityGroup@@QAEXM_N@Z

; 285  : 	pGrp->ClearAllActionAni( 100.0f, true );

  000b8	f3 0f 10 05 00
	00 00 00	 movss	 xmm0, DWORD PTR __real@42c80000
  000c0	6a 01		 push	 1
  000c2	51		 push	 ecx
  000c3	8b cf		 mov	 ecx, edi
  000c5	f3 0f 11 04 24	 movss	 DWORD PTR [esp], xmm0
  000ca	ff 15 00 00 00
	00		 call	 DWORD PTR __imp_?ClearAllActionAni@ioEntityGroup@@QAEXM_N@Z

; 286  : 	pGrp->SetLoopAni( iAniID, 10.0f, 1.0f, 1.0f/m_fLoopAnimationRate );

  000d0	0f 57 c0	 xorps	 xmm0, xmm0
  000d3	f2 0f 10 0d 00
	00 00 00	 movsd	 xmm1, QWORD PTR __real@3ff0000000000000
  000db	83 ec 10	 sub	 esp, 16			; 00000010H
  000de	f3 0f 11 44 24
	0c		 movss	 DWORD PTR [esp+12], xmm0
  000e4	f3 0f 10 86 8c
	11 00 00	 movss	 xmm0, DWORD PTR [esi+4492]
  000ec	0f 5a c0	 cvtps2pd xmm0, xmm0
  000ef	f2 0f 5e c8	 divsd	 xmm1, xmm0
  000f3	8b cf		 mov	 ecx, edi
  000f5	66 0f 5a c1	 cvtpd2ps xmm0, xmm1
  000f9	f3 0f 11 44 24
	08		 movss	 DWORD PTR [esp+8], xmm0
  000ff	f3 0f 10 05 00
	00 00 00	 movss	 xmm0, DWORD PTR __real@3f800000
  00107	f3 0f 11 44 24
	04		 movss	 DWORD PTR [esp+4], xmm0
  0010d	f3 0f 10 05 00
	00 00 00	 movss	 xmm0, DWORD PTR __real@41200000
  00115	f3 0f 11 04 24	 movss	 DWORD PTR [esp], xmm0
  0011a	ff b5 ac 7f ff
	ff		 push	 DWORD PTR _iAniID$[ebp]
  00120	ff 15 00 00 00
	00		 call	 DWORD PTR __imp_?SetLoopAni@ioEntityGroup@@QAE_NHMMMM@Z

; 287  : 
; 288  : 	D3DXVECTOR3 vPos = pChar->GetWorldPosition();

  00126	8b 03		 mov	 eax, DWORD PTR [ebx]
  00128	8b cb		 mov	 ecx, ebx
  0012a	ff 50 70	 call	 DWORD PTR [eax+112]

; 289  : 	D3DXVECTOR3 vDir = pChar->GetTargetRot() * D3DXVECTOR3( 0.0f, 0.0f, -1.0f );

  0012d	0f 57 c0	 xorps	 xmm0, xmm0
  00130	8b f0		 mov	 esi, eax
  00132	8d 7d cc	 lea	 edi, DWORD PTR _vPos$[ebp]
  00135	a5		 movsd
  00136	8d 45 e4	 lea	 eax, DWORD PTR $T548706[ebp]
  00139	50		 push	 eax
  0013a	8d 83 a4 06 00
	00		 lea	 eax, DWORD PTR [ebx+1700]
  00140	a5		 movsd
  00141	50		 push	 eax
  00142	8d 45 d8	 lea	 eax, DWORD PTR _vDir$[ebp]
  00145	f3 0f 11 45 e4	 movss	 DWORD PTR $T548706[ebp], xmm0
  0014a	f3 0f 11 45 e8	 movss	 DWORD PTR $T548706[ebp+4], xmm0
  0014f	f3 0f 10 05 00
	00 00 00	 movss	 xmm0, DWORD PTR __real@bf800000
  00157	50		 push	 eax
  00158	a5		 movsd
  00159	f3 0f 11 45 ec	 movss	 DWORD PTR $T548706[ebp+8], xmm0
  0015e	ff 15 00 00 00
	00		 call	 DWORD PTR __imp_??D@YA?AUD3DXVECTOR3@@ABUD3DXQUATERNION@@ABU0@@Z
  00164	83 c4 0c	 add	 esp, 12			; 0000000cH

; 290  : 	D3DXVec3Normalize( &vDir, &vDir );

  00167	8d 45 d8	 lea	 eax, DWORD PTR _vDir$[ebp]
  0016a	50		 push	 eax
  0016b	50		 push	 eax
  0016c	e8 00 00 00 00	 call	 _D3DXVec3Normalize@8

; 291  : 
; 292  : 	if( bCallSpaceWeapon )

  00171	80 7d 10 00	 cmp	 BYTE PTR _bCallSpaceWeapon$[ebp], 0

; 293  : 	{
; 294  : 		for( WeaponInfoList::iterator iter = m_SpaceAttack.m_vWeaponInfoList.begin(); iter != m_SpaceAttack.m_vWeaponInfoList.end(); ++iter )

  00175	8b b5 a8 7f ff
	ff		 mov	 esi, DWORD PTR _this$GSCopy$[ebp]
  0017b	74 59		 je	 SHORT $LN4@SetSkillLo
  0017d	8b be 44 11 00
	00		 mov	 edi, DWORD PTR [esi+4420]
  00183	eb 49		 jmp	 SHORT $LN78@SetSkillLo
$LL31@SetSkillLo:

; 295  : 		{
; 296  : 			const WeaponInfo& Info = *iter;
; 297  : 			ioSelectPositionMoveWeapon* pWeapon = ToSelectPositionMoveWeapon( pChar->SkillFireExplicit( Info, GetName(), pChar->IncreaseWeaponIndexBase()+1, vPos, vDir ) );

  00185	8d 45 d8	 lea	 eax, DWORD PTR _vDir$[ebp]
  00188	50		 push	 eax
  00189	8d 45 cc	 lea	 eax, DWORD PTR _vPos$[ebp]
  0018c	50		 push	 eax
  0018d	8b cb		 mov	 ecx, ebx
  0018f	e8 00 00 00 00	 call	 ?IncreaseWeaponIndexBase@ioBaseChar@@QAEKXZ ; ioBaseChar::IncreaseWeaponIndexBase
  00194	40		 inc	 eax
  00195	50		 push	 eax
  00196	8d 46 24	 lea	 eax, DWORD PTR [esi+36]
  00199	50		 push	 eax
  0019a	57		 push	 edi
  0019b	8b cb		 mov	 ecx, ebx
  0019d	e8 00 00 00 00	 call	 ?SkillFireExplicit@ioBaseChar@@QAEPAVioWeapon@@ABUWeaponInfo@@ABVioHashString@@KABUD3DXVECTOR3@@2@Z ; ioBaseChar::SkillFireExplicit
  001a2	50		 push	 eax
  001a3	e8 00 00 00 00	 call	 ?ToSelectPositionMoveWeapon@@YAPAVioSelectPositionMoveWeapon@@PAVioWeapon@@@Z ; ToSelectPositionMoveWeapon
  001a8	59		 pop	 ecx

; 298  : 			if( pWeapon )

  001a9	85 c0		 test	 eax, eax
  001ab	74 1e		 je	 SHORT $LN5@SetSkillLo

; 299  : 			{
; 300  : 				m_dwSelectWeaponIdx = pWeapon->GetWeaponIndex();

  001ad	8b 88 b8 04 00
	00		 mov	 ecx, DWORD PTR [eax+1208]
  001b3	89 8e a8 11 00
	00		 mov	 DWORD PTR [esi+4520], ecx

; 301  : 				pWeapon->SetTargetList( m_TargetCharNameList );

  001b9	8d 8e f4 11 00
	00		 lea	 ecx, DWORD PTR [esi+4596]
  001bf	51		 push	 ecx
  001c0	8d 88 64 0b 00
	00		 lea	 ecx, DWORD PTR [eax+2916]
  001c6	e8 00 00 00 00	 call	 ??4?$vector@VioHashString@@V?$allocator@VioHashString@@@std@@@std@@QAEAAV01@ABV01@@Z ; std::vector<ioHashString,std::allocator<ioHashString> >::operator=
$LN5@SetSkillLo:

; 293  : 	{
; 294  : 		for( WeaponInfoList::iterator iter = m_SpaceAttack.m_vWeaponInfoList.begin(); iter != m_SpaceAttack.m_vWeaponInfoList.end(); ++iter )

  001cb	83 c7 28	 add	 edi, 40			; 00000028H
$LN78@SetSkillLo:
  001ce	3b be 48 11 00
	00		 cmp	 edi, DWORD PTR [esi+4424]
  001d4	75 af		 jne	 SHORT $LL31@SetSkillLo
$LN4@SetSkillLo:

; 302  : 			}
; 303  : 		}
; 304  : 	}
; 305  : 
; 306  : 	ioSelectPositionMoveWeapon* pWeapon = ToSelectPositionMoveWeapon( g_WeaponMgr.FindWeapon( pChar, m_dwSelectWeaponIdx ) );

  001d6	ff b6 a8 11 00
	00		 push	 DWORD PTR [esi+4520]
  001dc	53		 push	 ebx
  001dd	e8 00 00 00 00	 call	 ?GetSingleton@ioWeaponManager@@SAAAV1@XZ ; ioWeaponManager::GetSingleton
  001e2	8b c8		 mov	 ecx, eax
  001e4	e8 00 00 00 00	 call	 ?FindWeapon@ioWeaponManager@@QAEPAVioWeapon@@PAVioBaseChar@@K@Z ; ioWeaponManager::FindWeapon
  001e9	50		 push	 eax
  001ea	e8 00 00 00 00	 call	 ?ToSelectPositionMoveWeapon@@YAPAVioSelectPositionMoveWeapon@@PAVioWeapon@@@Z ; ToSelectPositionMoveWeapon
  001ef	8b f8		 mov	 edi, eax
  001f1	59		 pop	 ecx

; 307  : 	if( pWeapon )

  001f2	85 ff		 test	 edi, edi
  001f4	74 46		 je	 SHORT $LN67@SetSkillLo

; 308  : 	{
; 309  : 		pWeapon->SetDisableMove( true );

  001f6	8d 85 b3 7f ff
	ff		 lea	 eax, DWORD PTR _value$560073[ebp]
  001fc	50		 push	 eax
  001fd	8d 8f 18 0a 00
	00		 lea	 ecx, DWORD PTR [edi+2584]
  00203	c6 85 b3 7f ff
	ff 01		 mov	 BYTE PTR _value$560073[ebp], 1
  0020a	e8 00 00 00 00	 call	 ?EncryptValueToPool@?$CEncrypt@_N@@AAEXPBD@Z ; CEncrypt<bool>::EncryptValueToPool

; 310  : 		pWeapon->SetControlSkillName( GetName() );

  0020f	8d 46 24	 lea	 eax, DWORD PTR [esi+36]
  00212	50		 push	 eax
  00213	8d 8f 48 0a 00
	00		 lea	 ecx, DWORD PTR [edi+2632]
  00219	ff 15 00 00 00
	00		 call	 DWORD PTR __imp_??4ioHashString@@QAEAAV0@ABV0@@Z

; 311  : 		pWeapon->SetCurrMoveRange( 0.0f );

  0021f	0f 57 c0	 xorps	 xmm0, xmm0
  00222	8d 85 ac 7f ff
	ff		 lea	 eax, DWORD PTR _value$560089[ebp]
  00228	50		 push	 eax
  00229	8d 8f 8c 0a 00
	00		 lea	 ecx, DWORD PTR [edi+2700]
  0022f	f3 0f 11 85 ac
	7f ff ff	 movss	 DWORD PTR _value$560089[ebp], xmm0
  00237	e8 00 00 00 00	 call	 ?EncryptValueToPool@?$CEncrypt@M@@AAEXPBD@Z ; CEncrypt<float>::EncryptValueToPool
$LN67@SetSkillLo:

; 312  : 	}
; 313  : 
; 314  : 	if( pChar->IsNeedSendNetwork() )

  0023c	8b 03		 mov	 eax, DWORD PTR [ebx]
  0023e	8b cb		 mov	 ecx, ebx
  00240	ff 90 04 01 00
	00		 call	 DWORD PTR [eax+260]
  00246	84 c0		 test	 al, al
  00248	0f 84 95 00 00
	00		 je	 $LN10@SetSkillLo

; 315  : 	{
; 316  : 		SP2Packet kPacket( CUPK_SKILL_EXTRA_INFO );

  0024e	68 39 41 00 00	 push	 16697			; 00004139H
  00253	8d 8d b4 7f ff
	ff		 lea	 ecx, DWORD PTR _kPacket$548721[ebp]
  00259	e8 00 00 00 00	 call	 ??0SP2Packet@@QAE@K@Z	; SP2Packet::SP2Packet
  0025e	83 65 fc 00	 and	 DWORD PTR __$EHRec$[ebp+8], 0

; 317  : 		kPacket << pChar->GetCharName();

  00262	8d 83 d4 02 00
	00		 lea	 eax, DWORD PTR [ebx+724]
  00268	50		 push	 eax
  00269	8d 8d b4 7f ff
	ff		 lea	 ecx, DWORD PTR _kPacket$548721[ebp]
  0026f	e8 00 00 00 00	 call	 ??6SP2Packet@@QAEAAV0@ABVioHashString@@@Z ; SP2Packet::operator<<

; 318  : 		kPacket << GetName();

  00274	83 c6 24	 add	 esi, 36			; 00000024H
  00277	56		 push	 esi
  00278	8d 8d b4 7f ff
	ff		 lea	 ecx, DWORD PTR _kPacket$548721[ebp]
  0027e	e8 00 00 00 00	 call	 ??6SP2Packet@@QAEAAV0@ABVioHashString@@@Z ; SP2Packet::operator<<

; 319  : 		kPacket << pChar->GetWorldOrientation();

  00283	8b 03		 mov	 eax, DWORD PTR [ebx]
  00285	8b cb		 mov	 ecx, ebx
  00287	ff 50 74	 call	 DWORD PTR [eax+116]
  0028a	50		 push	 eax
  0028b	8d 8d b4 7f ff
	ff		 lea	 ecx, DWORD PTR _kPacket$548721[ebp]
  00291	e8 00 00 00 00	 call	 ??6SP2Packet@@QAEAAV0@ABUD3DXQUATERNION@@@Z ; SP2Packet::operator<<

; 320  : 		kPacket << pChar->GetWorldPosition();

  00296	8b 03		 mov	 eax, DWORD PTR [ebx]
  00298	8b cb		 mov	 ecx, ebx
  0029a	ff 50 70	 call	 DWORD PTR [eax+112]
  0029d	50		 push	 eax
  0029e	8d 8d b4 7f ff
	ff		 lea	 ecx, DWORD PTR _kPacket$548721[ebp]
  002a4	e8 00 00 00 00	 call	 ??6SP2Packet@@QAEAAV0@ABUD3DXVECTOR3@@@Z ; SP2Packet::operator<<

; 321  : 		kPacket << (byte)SSS_LOOP;

  002a9	6a 01		 push	 1
  002ab	8d 8d b4 7f ff
	ff		 lea	 ecx, DWORD PTR _kPacket$548721[ebp]
  002b1	e8 00 00 00 00	 call	 ??6SP2Packet@@QAEAAV0@E@Z ; SP2Packet::operator<<

; 322  : 		kPacket << bCallSpaceWeapon;

  002b6	ff 75 10	 push	 DWORD PTR _bCallSpaceWeapon$[ebp]
  002b9	8d 8d b4 7f ff
	ff		 lea	 ecx, DWORD PTR _kPacket$548721[ebp]
  002bf	e8 00 00 00 00	 call	 ??6SP2Packet@@QAEAAV0@_N@Z ; SP2Packet::operator<<

; 323  : 		P2PNetwork::SendToAllPlayingUser( kPacket );

  002c4	8d 85 b4 7f ff
	ff		 lea	 eax, DWORD PTR _kPacket$548721[ebp]
  002ca	6a 00		 push	 0
  002cc	50		 push	 eax
  002cd	e8 00 00 00 00	 call	 ?SendToAllPlayingUser@P2PNetwork@@YAXAAVSP2Packet@@PAVioBaseChar@@@Z ; P2PNetwork::SendToAllPlayingUser

; 324  : 	}

  002d2	83 4d fc ff	 or	 DWORD PTR __$EHRec$[ebp+8], -1
  002d6	59		 pop	 ecx
  002d7	59		 pop	 ecx
  002d8	8d 8d b4 7f ff
	ff		 lea	 ecx, DWORD PTR _kPacket$548721[ebp]
  002de	e8 00 00 00 00	 call	 ??1SP2Packet@@UAE@XZ	; SP2Packet::~SP2Packet
$LN10@SetSkillLo:

; 325  : }

  002e3	8b 4d f4	 mov	 ecx, DWORD PTR __$EHRec$[ebp]
  002e6	64 89 0d 00 00
	00 00		 mov	 DWORD PTR fs:0, ecx
  002ed	59		 pop	 ecx
  002ee	5f		 pop	 edi
  002ef	5e		 pop	 esi
  002f0	5b		 pop	 ebx
  002f1	8b 4d f0	 mov	 ecx, DWORD PTR __$ArrayPad$[ebp]
  002f4	33 cd		 xor	 ecx, ebp
  002f6	e8 00 00 00 00	 call	 @__security_check_cookie@4
  002fb	c9		 leave
  002fc	c2 0c 00	 ret	 12			; 0000000cH
_TEXT	ENDS
;	COMDAT text$x
text$x	SEGMENT
__unwindfunclet$?SetSkillLoopState@ioSpaceMasterAttack@@IAEXPAVioBaseChar@@PAVioPlayStage@@_N@Z$0:
  00000	8d 8d b4 7f ff
	ff		 lea	 ecx, DWORD PTR _kPacket$548721[ebp]
  00006	e9 00 00 00 00	 jmp	 ??1SP2Packet@@UAE@XZ	; SP2Packet::~SP2Packet
__ehhandler$?SetSkillLoopState@ioSpaceMasterAttack@@IAEXPAVioBaseChar@@PAVioPlayStage@@_N@Z:
  0000b	8b 54 24 08	 mov	 edx, DWORD PTR [esp+8]
  0000f	8d 42 0c	 lea	 eax, DWORD PTR [edx+12]
  00012	8b 8a a4 7f ff
	ff		 mov	 ecx, DWORD PTR [edx-32860]
  00018	33 c8		 xor	 ecx, eax
  0001a	e8 00 00 00 00	 call	 @__security_check_cookie@4
  0001f	8b 4a fc	 mov	 ecx, DWORD PTR [edx-4]
  00022	33 c8		 xor	 ecx, eax
  00024	e8 00 00 00 00	 call	 @__security_check_cookie@4
  00029	b8 00 00 00 00	 mov	 eax, OFFSET __ehfuncinfo$?SetSkillLoopState@ioSpaceMasterAttack@@IAEXPAVioBaseChar@@PAVioPlayStage@@_N@Z
  0002e	e9 00 00 00 00	 jmp	 ___CxxFrameHandler3
text$x	ENDS
?SetSkillLoopState@ioSpaceMasterAttack@@IAEXPAVioBaseChar@@PAVioPlayStage@@_N@Z ENDP ; ioSpaceMasterAttack::SetSkillLoopState
PUBLIC	_pChar$GSCopy$
PUBLIC	__$ArrayPad$
PUBLIC	?CheckTargetThrowState@ioSpaceMasterAttack@@IAEXPAVioBaseChar@@PAVioPlayStage@@@Z ; ioSpaceMasterAttack::CheckTargetThrowState
; Function compile flags: /Ogsp
;	COMDAT ?CheckTargetThrowState@ioSpaceMasterAttack@@IAEXPAVioBaseChar@@PAVioPlayStage@@@Z
_TEXT	SEGMENT
_pChar$GSCopy$ = -20					; size = 4
_vPos$548786 = -16					; size = 12
__$ArrayPad$ = -4					; size = 4
_pChar$ = 8						; size = 4
_pStage$ = 12						; size = 4
?CheckTargetThrowState@ioSpaceMasterAttack@@IAEXPAVioBaseChar@@PAVioPlayStage@@@Z PROC ; ioSpaceMasterAttack::CheckTargetThrowState, COMDAT
; _this$ = ecx

; 457  : {

  00000	55		 push	 ebp
  00001	8b ec		 mov	 ebp, esp
  00003	83 ec 14	 sub	 esp, 20			; 00000014H
  00006	a1 00 00 00 00	 mov	 eax, DWORD PTR ___security_cookie
  0000b	33 c5		 xor	 eax, ebp
  0000d	89 45 fc	 mov	 DWORD PTR __$ArrayPad$[ebp], eax
  00010	53		 push	 ebx
  00011	56		 push	 esi
  00012	8b 75 08	 mov	 esi, DWORD PTR _pChar$[ebp]
  00015	8b d9		 mov	 ebx, ecx

; 480  : 		{
; 481  : 			SetEndState( pChar, pStage, false, true );

  00017	89 75 ec	 mov	 DWORD PTR _pChar$GSCopy$[ebp], esi
  0001a	ff 15 00 00 00
	00		 call	 DWORD PTR __imp_?GetSingleton@ioFrameTimer@@SAAAV1@XZ
  00020	8b c8		 mov	 ecx, eax
  00022	ff 15 00 00 00
	00		 call	 DWORD PTR __imp_?GetLoopSec@ioFrameTimer@@QBEKXZ
  00028	8b 8b e0 11 00
	00		 mov	 ecx, DWORD PTR [ebx+4576]
  0002e	03 8b dc 11 00
	00		 add	 ecx, DWORD PTR [ebx+4572]
  00034	3b c8		 cmp	 ecx, eax
  00036	0f 83 84 00 00
	00		 jae	 $LN6@CheckTarge

; 458  : 	if( m_dwTargetCatchDelayStartTime + m_dwTargetCatchDelayStartDuration < FRAMEGETTIME() )
; 459  : 	{
; 460  : 		if( pChar->IsNeedProcess() )

  0003c	8b 06		 mov	 eax, DWORD PTR [esi]
  0003e	8b ce		 mov	 ecx, esi
  00040	ff 90 00 01 00
	00		 call	 DWORD PTR [eax+256]
  00046	84 c0		 test	 al, al
  00048	0f 84 9b 00 00
	00		 je	 $LN1@CheckTarge

; 461  : 		{
; 462  : 			ioSelectPositionMoveWeapon* pWeapon = ToSelectPositionMoveWeapon( g_WeaponMgr.FindWeapon( pChar, m_dwSelectWeaponIdx ) );

  0004e	ff b3 a8 11 00
	00		 push	 DWORD PTR [ebx+4520]
  00054	56		 push	 esi
  00055	e8 00 00 00 00	 call	 ?GetSingleton@ioWeaponManager@@SAAAV1@XZ ; ioWeaponManager::GetSingleton
  0005a	8b c8		 mov	 ecx, eax
  0005c	e8 00 00 00 00	 call	 ?FindWeapon@ioWeaponManager@@QAEPAVioWeapon@@PAVioBaseChar@@K@Z ; ioWeaponManager::FindWeapon
  00061	50		 push	 eax
  00062	e8 00 00 00 00	 call	 ?ToSelectPositionMoveWeapon@@YAPAVioSelectPositionMoveWeapon@@PAVioWeapon@@@Z ; ToSelectPositionMoveWeapon
  00067	59		 pop	 ecx

; 463  : 			if( pWeapon )

  00068	85 c0		 test	 eax, eax
  0006a	74 4e		 je	 SHORT $LN4@CheckTarge

; 464  : 			{
; 465  : 				D3DXVECTOR3 vPos = pWeapon->GetPosition();

  0006c	8b 10		 mov	 edx, DWORD PTR [eax]
  0006e	57		 push	 edi
  0006f	8b c8		 mov	 ecx, eax
  00071	ff 52 70	 call	 DWORD PTR [edx+112]

; 466  : 				vPos.y -= m_fCharAttachWeaponOffsetY;

  00074	f3 0f 10 8b a4
	11 00 00	 movss	 xmm1, DWORD PTR [ebx+4516]
  0007c	8b f0		 mov	 esi, eax
  0007e	8d 7d f0	 lea	 edi, DWORD PTR _vPos$548786[ebp]
  00081	a5		 movsd
  00082	a5		 movsd
  00083	a5		 movsd
  00084	f3 0f 10 45 f4	 movss	 xmm0, DWORD PTR _vPos$548786[ebp+4]

; 467  : 
; 468  : 				pChar->SetWorldPosition( vPos );			

  00089	8b 75 ec	 mov	 esi, DWORD PTR _pChar$GSCopy$[ebp]
  0008c	8b 06		 mov	 eax, DWORD PTR [esi]
  0008e	0f 5a c0	 cvtps2pd xmm0, xmm0
  00091	8d 4d f0	 lea	 ecx, DWORD PTR _vPos$548786[ebp]
  00094	0f 5a c9	 cvtps2pd xmm1, xmm1
  00097	f2 0f 5c c1	 subsd	 xmm0, xmm1
  0009b	51		 push	 ecx
  0009c	66 0f 5a c0	 cvtpd2ps xmm0, xmm0
  000a0	8b ce		 mov	 ecx, esi
  000a2	f3 0f 11 45 f4	 movss	 DWORD PTR _vPos$548786[ebp+4], xmm0
  000a7	ff 50 44	 call	 DWORD PTR [eax+68]

; 469  : 				SetSkillLoopState( pChar, pStage, false );

  000aa	6a 00		 push	 0
  000ac	ff 75 0c	 push	 DWORD PTR _pStage$[ebp]
  000af	8b cb		 mov	 ecx, ebx
  000b1	56		 push	 esi
  000b2	e8 00 00 00 00	 call	 ?SetSkillLoopState@ioSpaceMasterAttack@@IAEXPAVioBaseChar@@PAVioPlayStage@@_N@Z ; ioSpaceMasterAttack::SetSkillLoopState
  000b7	5f		 pop	 edi

; 470  : 			}
; 471  : 			else

  000b8	eb 2f		 jmp	 SHORT $LN1@CheckTarge
$LN4@CheckTarge:

; 472  : 			{
; 473  : 				SetEndState( pChar, pStage, true, true );

  000ba	6a 01		 push	 1
  000bc	6a 01		 push	 1

; 474  : 			}
; 475  : 		}
; 476  : 	}
; 477  : 	else

  000be	eb 1e		 jmp	 SHORT $LN9@CheckTarge
$LN6@CheckTarge:

; 478  : 	{
; 479  : 		if( !CheckAliveWeapon( pChar ) && pChar->IsNeedProcess() )

  000c0	56		 push	 esi
  000c1	8b cb		 mov	 ecx, ebx
  000c3	e8 00 00 00 00	 call	 ?CheckAliveWeapon@ioSpaceMasterAttack@@IAE_NPAVioBaseChar@@@Z ; ioSpaceMasterAttack::CheckAliveWeapon
  000c8	84 c0		 test	 al, al
  000ca	75 1d		 jne	 SHORT $LN1@CheckTarge
  000cc	8b 06		 mov	 eax, DWORD PTR [esi]
  000ce	8b ce		 mov	 ecx, esi
  000d0	ff 90 00 01 00
	00		 call	 DWORD PTR [eax+256]
  000d6	84 c0		 test	 al, al
  000d8	74 0f		 je	 SHORT $LN1@CheckTarge

; 480  : 		{
; 481  : 			SetEndState( pChar, pStage, false, true );

  000da	6a 01		 push	 1
  000dc	6a 00		 push	 0
$LN9@CheckTarge:
  000de	ff 75 0c	 push	 DWORD PTR _pStage$[ebp]
  000e1	8b cb		 mov	 ecx, ebx
  000e3	56		 push	 esi
  000e4	e8 00 00 00 00	 call	 ?SetEndState@ioSpaceMasterAttack@@IAEXPAVioBaseChar@@PAVioPlayStage@@_N2@Z ; ioSpaceMasterAttack::SetEndState
$LN1@CheckTarge:

; 482  : 		}
; 483  : 	}
; 484  : }

  000e9	8b 4d fc	 mov	 ecx, DWORD PTR __$ArrayPad$[ebp]
  000ec	5e		 pop	 esi
  000ed	33 cd		 xor	 ecx, ebp
  000ef	5b		 pop	 ebx
  000f0	e8 00 00 00 00	 call	 @__security_check_cookie@4
  000f5	c9		 leave
  000f6	c2 08 00	 ret	 8
?CheckTargetThrowState@ioSpaceMasterAttack@@IAEXPAVioBaseChar@@PAVioPlayStage@@@Z ENDP ; ioSpaceMasterAttack::CheckTargetThrowState
_TEXT	ENDS
PUBLIC	?AddTarget@ioSpaceMasterAttack@@IAEXPAVioBaseChar@@@Z ; ioSpaceMasterAttack::AddTarget
EXTRN	__imp_??8ioHashString@@QBE_NABV0@@Z:PROC
; Function compile flags: /Ogsp
;	COMDAT ?AddTarget@ioSpaceMasterAttack@@IAEXPAVioBaseChar@@@Z
_TEXT	SEGMENT
_pTarget$ = 8						; size = 4
?AddTarget@ioSpaceMasterAttack@@IAEXPAVioBaseChar@@@Z PROC ; ioSpaceMasterAttack::AddTarget, COMDAT
; _this$ = ecx

; 550  : {

  00000	55		 push	 ebp
  00001	8b ec		 mov	 ebp, esp

; 551  : 	if( !pTarget )

  00003	83 7d 08 00	 cmp	 DWORD PTR _pTarget$[ebp], 0
  00007	57		 push	 edi
  00008	8b f9		 mov	 edi, ecx
  0000a	74 37		 je	 SHORT $LN6@AddTarget

; 552  : 		return;
; 553  : 
; 554  : 	for( ioHashStringVec::iterator iter = m_TargetCharNameList.begin(); iter != m_TargetCharNameList.end(); ++iter )

  0000c	53		 push	 ebx
  0000d	56		 push	 esi
  0000e	8b b7 f4 11 00
	00		 mov	 esi, DWORD PTR [edi+4596]
  00014	eb 0f		 jmp	 SHORT $LN48@AddTarget
$LL45@AddTarget:

; 555  : 	{
; 556  : 		const ioHashString&	TargetName = *iter;
; 557  : 		if( TargetName == pTarget->GetCharName() )

  00016	8b ce		 mov	 ecx, esi
  00018	ff 15 00 00 00
	00		 call	 DWORD PTR __imp_??8ioHashString@@QBE_NABV0@@Z
  0001e	84 c0		 test	 al, al
  00020	75 1f		 jne	 SHORT $LN46@AddTarget

; 552  : 		return;
; 553  : 
; 554  : 	for( ioHashStringVec::iterator iter = m_TargetCharNameList.begin(); iter != m_TargetCharNameList.end(); ++iter )

  00022	83 c6 10	 add	 esi, 16			; 00000010H
$LN48@AddTarget:

; 558  : 			return;
; 559  : 	}
; 560  : 	m_TargetCharNameList.push_back( pTarget->GetCharName() );

  00025	8b 45 08	 mov	 eax, DWORD PTR _pTarget$[ebp]
  00028	05 d4 02 00 00	 add	 eax, 724		; 000002d4H
  0002d	50		 push	 eax
  0002e	3b b7 f8 11 00
	00		 cmp	 esi, DWORD PTR [edi+4600]
  00034	75 e0		 jne	 SHORT $LL45@AddTarget
  00036	8d 8f f4 11 00
	00		 lea	 ecx, DWORD PTR [edi+4596]
  0003c	e8 00 00 00 00	 call	 ?push_back@?$vector@VioHashString@@V?$allocator@VioHashString@@@std@@@std@@QAEXABVioHashString@@@Z ; std::vector<ioHashString,std::allocator<ioHashString> >::push_back
$LN46@AddTarget:
  00041	5e		 pop	 esi
  00042	5b		 pop	 ebx
$LN6@AddTarget:
  00043	5f		 pop	 edi

; 561  : }

  00044	5d		 pop	 ebp
  00045	c2 04 00	 ret	 4
?AddTarget@ioSpaceMasterAttack@@IAEXPAVioBaseChar@@@Z ENDP ; ioSpaceMasterAttack::AddTarget
_TEXT	ENDS
PUBLIC	__$ArrayPad$
EXTRN	??5SP2Packet@@QAEAAV0@AA_N@Z:PROC		; SP2Packet::operator>>
EXTRN	??5SP2Packet@@QAEAAV0@AAE@Z:PROC		; SP2Packet::operator>>
EXTRN	??5SP2Packet@@QAEAAV0@AAUD3DXVECTOR3@@@Z:PROC	; SP2Packet::operator>>
EXTRN	??5SP2Packet@@QAEAAV0@AAUD3DXQUATERNION@@@Z:PROC ; SP2Packet::operator>>
; Function compile flags: /Ogsp
;	COMDAT ?ApplyExtraSkillInfo@ioSpaceMasterAttack@@UAEXPAVioBaseChar@@PAVioPlayStage@@AAVSP2Packet@@@Z
_TEXT	SEGMENT
_qtRot$ = -40						; size = 16
_bCallSpaceWeapon$548941 = -21				; size = 1
_bThrow$548945 = -21					; size = 1
_eState$ = -17						; size = 1
_vPos$ = -16						; size = 12
__$ArrayPad$ = -4					; size = 4
_pChar$ = 8						; size = 4
_pStage$ = 12						; size = 4
_rkPacket$ = 16						; size = 4
?ApplyExtraSkillInfo@ioSpaceMasterAttack@@UAEXPAVioBaseChar@@PAVioPlayStage@@AAVSP2Packet@@@Z PROC ; ioSpaceMasterAttack::ApplyExtraSkillInfo, COMDAT
; _this$ = ecx

; 715  : {

  00000	55		 push	 ebp
  00001	8b ec		 mov	 ebp, esp
  00003	83 ec 28	 sub	 esp, 40			; 00000028H
  00006	a1 00 00 00 00	 mov	 eax, DWORD PTR ___security_cookie
  0000b	33 c5		 xor	 eax, ebp
  0000d	89 45 fc	 mov	 DWORD PTR __$ArrayPad$[ebp], eax
  00010	53		 push	 ebx
  00011	56		 push	 esi
  00012	8b 75 08	 mov	 esi, DWORD PTR _pChar$[ebp]
  00015	57		 push	 edi
  00016	8b 7d 10	 mov	 edi, DWORD PTR _rkPacket$[ebp]

; 716  : 	D3DXQUATERNION qtRot;
; 717  : 	rkPacket >> qtRot;

  00019	8d 45 d8	 lea	 eax, DWORD PTR _qtRot$[ebp]
  0001c	8b d9		 mov	 ebx, ecx
  0001e	50		 push	 eax
  0001f	8b cf		 mov	 ecx, edi
  00021	e8 00 00 00 00	 call	 ??5SP2Packet@@QAEAAV0@AAUD3DXQUATERNION@@@Z ; SP2Packet::operator>>

; 718  : 
; 719  : 	D3DXVECTOR3 vPos;
; 720  : 	rkPacket >> vPos;

  00026	8d 45 f0	 lea	 eax, DWORD PTR _vPos$[ebp]
  00029	50		 push	 eax
  0002a	8b cf		 mov	 ecx, edi
  0002c	e8 00 00 00 00	 call	 ??5SP2Packet@@QAEAAV0@AAUD3DXVECTOR3@@@Z ; SP2Packet::operator>>

; 721  : 
; 722  : 	byte eState;
; 723  : 	rkPacket >> eState;

  00031	8d 45 ef	 lea	 eax, DWORD PTR _eState$[ebp]
  00034	50		 push	 eax
  00035	8b cf		 mov	 ecx, edi
  00037	e8 00 00 00 00	 call	 ??5SP2Packet@@QAEAAV0@AAE@Z ; SP2Packet::operator>>

; 724  : 
; 725  : 	pChar->SetTargetRotToRotate( qtRot, true, true );

  0003c	6a 01		 push	 1
  0003e	6a 01		 push	 1
  00040	8d 45 d8	 lea	 eax, DWORD PTR _qtRot$[ebp]
  00043	50		 push	 eax
  00044	8b ce		 mov	 ecx, esi
  00046	e8 00 00 00 00	 call	 ?SetTargetRotToRotate@ioBaseChar@@QAEXABUD3DXQUATERNION@@_N1@Z ; ioBaseChar::SetTargetRotToRotate

; 726  : 	pChar->SetWorldPosition( vPos );

  0004b	8b 06		 mov	 eax, DWORD PTR [esi]
  0004d	8d 4d f0	 lea	 ecx, DWORD PTR _vPos$[ebp]
  00050	51		 push	 ecx
  00051	8b ce		 mov	 ecx, esi
  00053	ff 50 44	 call	 DWORD PTR [eax+68]

; 727  : 
; 728  : 	switch( eState )

  00056	0f b6 45 ef	 movzx	 eax, BYTE PTR _eState$[ebp]
  0005a	83 e8 00	 sub	 eax, 0
  0005d	74 5b		 je	 SHORT $LN5@ApplyExtra
  0005f	48		 dec	 eax
  00060	74 3d		 je	 SHORT $LN4@ApplyExtra
  00062	48		 dec	 eax
  00063	74 2d		 je	 SHORT $LN3@ApplyExtra
  00065	48		 dec	 eax
  00066	74 20		 je	 SHORT $LN2@ApplyExtra
  00068	48		 dec	 eax
  00069	75 5a		 jne	 SHORT $LN6@ApplyExtra

; 753  : 	case SSS_END:
; 754  : 		{
; 755  : 			bool bThrow;
; 756  : 			rkPacket >> bThrow;

  0006b	8d 45 eb	 lea	 eax, DWORD PTR _bThrow$548945[ebp]
  0006e	50		 push	 eax
  0006f	8b cf		 mov	 ecx, edi
  00071	e8 00 00 00 00	 call	 ??5SP2Packet@@QAEAAV0@AA_N@Z ; SP2Packet::operator>>

; 757  : 			SetEndState( pChar, pStage, bThrow, false );

  00076	6a 00		 push	 0
  00078	ff 75 eb	 push	 DWORD PTR _bThrow$548945[ebp]
  0007b	8b cb		 mov	 ecx, ebx
  0007d	ff 75 0c	 push	 DWORD PTR _pStage$[ebp]
  00080	56		 push	 esi
  00081	e8 00 00 00 00	 call	 ?SetEndState@ioSpaceMasterAttack@@IAEXPAVioBaseChar@@PAVioPlayStage@@_N2@Z ; ioSpaceMasterAttack::SetEndState

; 758  : 		}
; 759  : 		break;

  00086	eb 3d		 jmp	 SHORT $LN6@ApplyExtra
$LN2@ApplyExtra:

; 748  : 	case SSS_REMOVE_WEAPON:
; 749  : 		{
; 750  : 			RemoveWeapon( pChar );

  00088	56		 push	 esi
  00089	8b cb		 mov	 ecx, ebx
  0008b	e8 00 00 00 00	 call	 ?RemoveWeapon@ioSpaceMasterAttack@@IAEXPAVioBaseChar@@@Z ; ioSpaceMasterAttack::RemoveWeapon

; 751  : 		}
; 752  : 		break;

  00090	eb 33		 jmp	 SHORT $LN6@ApplyExtra
$LN3@ApplyExtra:

; 743  : 	case SSS_TARGET_THROW:
; 744  : 		{
; 745  : 			SetTargetThrowState( pChar, pStage );

  00092	ff 75 0c	 push	 DWORD PTR _pStage$[ebp]
  00095	8b cb		 mov	 ecx, ebx
  00097	56		 push	 esi
  00098	e8 00 00 00 00	 call	 ?SetTargetThrowState@ioSpaceMasterAttack@@IAEXPAVioBaseChar@@PAVioPlayStage@@@Z ; ioSpaceMasterAttack::SetTargetThrowState

; 746  : 		}
; 747  : 		break;

  0009d	eb 26		 jmp	 SHORT $LN6@ApplyExtra
$LN4@ApplyExtra:

; 733  : 		}
; 734  : 		break;
; 735  : 	case SSS_LOOP:
; 736  : 		{
; 737  : 			bool bCallSpaceWeapon;
; 738  : 			rkPacket >> bCallSpaceWeapon;

  0009f	8d 45 eb	 lea	 eax, DWORD PTR _bCallSpaceWeapon$548941[ebp]
  000a2	50		 push	 eax
  000a3	8b cf		 mov	 ecx, edi
  000a5	e8 00 00 00 00	 call	 ??5SP2Packet@@QAEAAV0@AA_N@Z ; SP2Packet::operator>>

; 739  : 
; 740  : 			SetSkillLoopState( pChar, pStage, bCallSpaceWeapon );

  000aa	ff 75 eb	 push	 DWORD PTR _bCallSpaceWeapon$548941[ebp]
  000ad	8b cb		 mov	 ecx, ebx
  000af	ff 75 0c	 push	 DWORD PTR _pStage$[ebp]
  000b2	56		 push	 esi
  000b3	e8 00 00 00 00	 call	 ?SetSkillLoopState@ioSpaceMasterAttack@@IAEXPAVioBaseChar@@PAVioPlayStage@@_N@Z ; ioSpaceMasterAttack::SetSkillLoopState

; 741  : 		}
; 742  : 		break;

  000b8	eb 0b		 jmp	 SHORT $LN6@ApplyExtra
$LN5@ApplyExtra:

; 729  : 	{
; 730  : 	case SSS_ATTACK:
; 731  : 		{
; 732  : 			SetSkillActionState( pChar, pStage );

  000ba	ff 75 0c	 push	 DWORD PTR _pStage$[ebp]
  000bd	8b cb		 mov	 ecx, ebx
  000bf	56		 push	 esi
  000c0	e8 00 00 00 00	 call	 ?SetSkillActionState@ioSpaceMasterAttack@@IAEXPAVioBaseChar@@PAVioPlayStage@@@Z ; ioSpaceMasterAttack::SetSkillActionState
$LN6@ApplyExtra:

; 760  : 	}
; 761  : }

  000c5	8b 4d fc	 mov	 ecx, DWORD PTR __$ArrayPad$[ebp]
  000c8	5f		 pop	 edi
  000c9	5e		 pop	 esi
  000ca	33 cd		 xor	 ecx, ebp
  000cc	5b		 pop	 ebx
  000cd	e8 00 00 00 00	 call	 @__security_check_cookie@4
  000d2	c9		 leave
  000d3	c2 0c 00	 ret	 12			; 0000000cH
?ApplyExtraSkillInfo@ioSpaceMasterAttack@@UAEXPAVioBaseChar@@PAVioPlayStage@@AAVSP2Packet@@@Z ENDP ; ioSpaceMasterAttack::ApplyExtraSkillInfo
; Function compile flags: /Ogsp
_TEXT	ENDS
;	COMDAT ??_GioSpaceMasterAttack@@UAEPAXI@Z
_TEXT	SEGMENT
___flags$ = 8						; size = 4
??_GioSpaceMasterAttack@@UAEPAXI@Z PROC			; ioSpaceMasterAttack::`scalar deleting destructor', COMDAT
; _this$ = ecx
  00000	55		 push	 ebp
  00001	8b ec		 mov	 ebp, esp
  00003	56		 push	 esi
  00004	8b f1		 mov	 esi, ecx
  00006	e8 00 00 00 00	 call	 ??1ioSpaceMasterAttack@@UAE@XZ ; ioSpaceMasterAttack::~ioSpaceMasterAttack
  0000b	f6 45 08 01	 test	 BYTE PTR ___flags$[ebp], 1
  0000f	74 07		 je	 SHORT $LN1@scalar@4
  00011	56		 push	 esi
  00012	e8 00 00 00 00	 call	 ??3@YAXPAX@Z		; operator delete
  00017	59		 pop	 ecx
$LN1@scalar@4:
  00018	8b c6		 mov	 eax, esi
  0001a	5e		 pop	 esi
  0001b	5d		 pop	 ebp
  0001c	c2 04 00	 ret	 4
??_GioSpaceMasterAttack@@UAEPAXI@Z ENDP			; ioSpaceMasterAttack::`scalar deleting destructor'
_TEXT	ENDS
PUBLIC	?CheckActionState@ioSpaceMasterAttack@@IAEXPAVioBaseChar@@PAVioPlayStage@@@Z ; ioSpaceMasterAttack::CheckActionState
; Function compile flags: /Ogsp
;	COMDAT ?CheckActionState@ioSpaceMasterAttack@@IAEXPAVioBaseChar@@PAVioPlayStage@@@Z
_TEXT	SEGMENT
_pChar$ = 8						; size = 4
_pStage$ = 12						; size = 4
?CheckActionState@ioSpaceMasterAttack@@IAEXPAVioBaseChar@@PAVioPlayStage@@@Z PROC ; ioSpaceMasterAttack::CheckActionState, COMDAT
; _this$ = ecx

; 227  : {

  00000	55		 push	 ebp
  00001	8b ec		 mov	 ebp, esp
  00003	53		 push	 ebx

; 228  : 	if( !pChar )

  00004	33 db		 xor	 ebx, ebx
  00006	56		 push	 esi
  00007	8b f1		 mov	 esi, ecx
  00009	39 5d 08	 cmp	 DWORD PTR _pChar$[ebp], ebx
  0000c	0f 84 96 00 00
	00		 je	 $LN1@CheckActio

; 229  : 		return;
; 230  : 
; 231  : 	if( 0 < m_dwMotionEndTime && m_dwMotionEndTime < FRAMEGETTIME() )

  00012	57		 push	 edi
  00013	39 9e d8 02 00
	00		 cmp	 DWORD PTR [esi+728], ebx
  00019	0f 86 88 00 00
	00		 jbe	 $LN49@CheckActio
  0001f	ff 15 00 00 00
	00		 call	 DWORD PTR __imp_?GetSingleton@ioFrameTimer@@SAAAV1@XZ
  00025	8b c8		 mov	 ecx, eax
  00027	ff 15 00 00 00
	00		 call	 DWORD PTR __imp_?GetLoopSec@ioFrameTimer@@QBEKXZ
  0002d	39 86 d8 02 00
	00		 cmp	 DWORD PTR [esi+728], eax
  00033	73 72		 jae	 SHORT $LN49@CheckActio

; 232  : 	{
; 233  : 		DWORD dwAttackCount = 0;
; 234  : 		for( DWORDVec::iterator iter = m_MissileWeaponList.begin(); iter != m_MissileWeaponList.end(); ++iter )

  00035	8b be ac 11 00
	00		 mov	 edi, DWORD PTR [esi+4524]
  0003b	3b be b0 11 00
	00		 cmp	 edi, DWORD PTR [esi+4528]
  00041	74 25		 je	 SHORT $LN48@CheckActio
$LL23@CheckActio:

; 235  : 		{
; 236  : 			ioWeapon* pWeapon = g_WeaponMgr.FindWeapon( pChar, *iter );

  00043	ff 37		 push	 DWORD PTR [edi]
  00045	ff 75 08	 push	 DWORD PTR _pChar$[ebp]
  00048	e8 00 00 00 00	 call	 ?GetSingleton@ioWeaponManager@@SAAAV1@XZ ; ioWeaponManager::GetSingleton
  0004d	8b c8		 mov	 ecx, eax
  0004f	e8 00 00 00 00	 call	 ?FindWeapon@ioWeaponManager@@QAEPAVioWeapon@@PAVioBaseChar@@K@Z ; ioWeaponManager::FindWeapon

; 237  : 			if( pWeapon )

  00054	85 c0		 test	 eax, eax
  00056	74 01		 je	 SHORT $LN7@CheckActio

; 238  : 			{
; 239  : 				dwAttackCount++;

  00058	43		 inc	 ebx
$LN7@CheckActio:

; 232  : 	{
; 233  : 		DWORD dwAttackCount = 0;
; 234  : 		for( DWORDVec::iterator iter = m_MissileWeaponList.begin(); iter != m_MissileWeaponList.end(); ++iter )

  00059	83 c7 04	 add	 edi, 4
  0005c	3b be b0 11 00
	00		 cmp	 edi, DWORD PTR [esi+4528]
  00062	75 df		 jne	 SHORT $LL23@CheckActio

; 240  : 			}
; 241  : 		}
; 242  : 
; 243  : 		if( dwAttackCount == 0 )

  00064	85 db		 test	 ebx, ebx
  00066	75 3f		 jne	 SHORT $LN49@CheckActio
$LN48@CheckActio:

; 244  : 		{
; 245  : 			if( m_TargetCharNameList.empty() )

  00068	8b 8e f4 11 00
	00		 mov	 ecx, DWORD PTR [esi+4596]
  0006e	3b 8e f8 11 00
	00		 cmp	 ecx, DWORD PTR [esi+4600]
  00074	75 13		 jne	 SHORT $LN3@CheckActio

; 246  : 			{
; 247  : 				SetEndState( pChar, pStage, false, true );

  00076	6a 01		 push	 1
  00078	6a 00		 push	 0
  0007a	ff 75 0c	 push	 DWORD PTR _pStage$[ebp]
  0007d	8b ce		 mov	 ecx, esi
  0007f	ff 75 08	 push	 DWORD PTR _pChar$[ebp]
  00082	e8 00 00 00 00	 call	 ?SetEndState@ioSpaceMasterAttack@@IAEXPAVioBaseChar@@PAVioPlayStage@@_N2@Z ; ioSpaceMasterAttack::SetEndState

; 248  : 			}
; 249  : 			else

  00087	eb 1e		 jmp	 SHORT $LN49@CheckActio
$LN3@CheckActio:

; 250  : 			{
; 251  : 				if( pChar->IsNeedProcess() )

  00089	8b 7d 08	 mov	 edi, DWORD PTR _pChar$[ebp]
  0008c	8b 07		 mov	 eax, DWORD PTR [edi]
  0008e	8b cf		 mov	 ecx, edi
  00090	ff 90 00 01 00
	00		 call	 DWORD PTR [eax+256]
  00096	84 c0		 test	 al, al
  00098	74 0d		 je	 SHORT $LN49@CheckActio

; 252  : 				{
; 253  : 					SetSkillLoopState( pChar, pStage, true );

  0009a	6a 01		 push	 1
  0009c	ff 75 0c	 push	 DWORD PTR _pStage$[ebp]
  0009f	8b ce		 mov	 ecx, esi
  000a1	57		 push	 edi
  000a2	e8 00 00 00 00	 call	 ?SetSkillLoopState@ioSpaceMasterAttack@@IAEXPAVioBaseChar@@PAVioPlayStage@@_N@Z ; ioSpaceMasterAttack::SetSkillLoopState
$LN49@CheckActio:
  000a7	5f		 pop	 edi
$LN1@CheckActio:
  000a8	5e		 pop	 esi
  000a9	5b		 pop	 ebx

; 254  : 				}
; 255  : 			}
; 256  : 		}
; 257  : 	}
; 258  : }

  000aa	5d		 pop	 ebp
  000ab	c2 08 00	 ret	 8
?CheckActionState@ioSpaceMasterAttack@@IAEXPAVioBaseChar@@PAVioPlayStage@@@Z ENDP ; ioSpaceMasterAttack::CheckActionState
_TEXT	ENDS
EXTRN	?HasBuff@ioBaseChar@@QBE_NABVioHashString@@@Z:PROC ; ioBaseChar::HasBuff
; Function compile flags: /Ogsp
;	COMDAT ?SetInfoByApplyWeapon@ioSpaceMasterAttack@@UAEXPAVioBaseChar@@0K_N@Z
_TEXT	SEGMENT
_value$560332 = 8					; size = 4
_pOwner$ = 8						; size = 4
_value$560345 = 12					; size = 4
_pTarget$ = 12						; size = 4
_dwWeaponBaseIndex$ = 16				; size = 4
_bBlock$ = 20						; size = 1
?SetInfoByApplyWeapon@ioSpaceMasterAttack@@UAEXPAVioBaseChar@@0K_N@Z PROC ; ioSpaceMasterAttack::SetInfoByApplyWeapon, COMDAT
; _this$ = ecx

; 261  : {

  00000	55		 push	 ebp
  00001	8b ec		 mov	 ebp, esp

; 262  : 	if( !pOwner || !pTarget || pOwner->GetTeam() == pTarget->GetTeam() || !pTarget->HasBuff( m_TargetBuff ) )

  00003	8b 45 08	 mov	 eax, DWORD PTR _pOwner$[ebp]
  00006	57		 push	 edi
  00007	8b f9		 mov	 edi, ecx
  00009	85 c0		 test	 eax, eax
  0000b	74 49		 je	 SHORT $LN1@SetInfoByA
  0000d	56		 push	 esi
  0000e	8b 75 0c	 mov	 esi, DWORD PTR _pTarget$[ebp]
  00011	85 f6		 test	 esi, esi
  00013	74 40		 je	 SHORT $LN13@SetInfoByA
  00015	8d 4d 08	 lea	 ecx, DWORD PTR _value$560332[ebp]
  00018	51		 push	 ecx
  00019	8d 88 90 00 00
	00		 lea	 ecx, DWORD PTR [eax+144]
  0001f	e8 00 00 00 00	 call	 ?DecryptValueToPool@?$CEncrypt@W4TeamType@@@@QAEXPAW4TeamType@@@Z ; CEncrypt<enum TeamType>::DecryptValueToPool
  00024	8d 45 0c	 lea	 eax, DWORD PTR _value$560345[ebp]
  00027	50		 push	 eax
  00028	8d 8e 90 00 00
	00		 lea	 ecx, DWORD PTR [esi+144]
  0002e	e8 00 00 00 00	 call	 ?DecryptValueToPool@?$CEncrypt@W4TeamType@@@@QAEXPAW4TeamType@@@Z ; CEncrypt<enum TeamType>::DecryptValueToPool
  00033	8b 45 08	 mov	 eax, DWORD PTR _value$560332[ebp]
  00036	3b 45 0c	 cmp	 eax, DWORD PTR _value$560345[ebp]
  00039	74 1a		 je	 SHORT $LN13@SetInfoByA
  0003b	8d 87 e4 11 00
	00		 lea	 eax, DWORD PTR [edi+4580]
  00041	50		 push	 eax
  00042	8b ce		 mov	 ecx, esi
  00044	e8 00 00 00 00	 call	 ?HasBuff@ioBaseChar@@QBE_NABVioHashString@@@Z ; ioBaseChar::HasBuff
  00049	84 c0		 test	 al, al
  0004b	74 08		 je	 SHORT $LN13@SetInfoByA

; 263  : 		return;
; 264  : 
; 265  : 	AddTarget( pTarget );

  0004d	56		 push	 esi
  0004e	8b cf		 mov	 ecx, edi
  00050	e8 00 00 00 00	 call	 ?AddTarget@ioSpaceMasterAttack@@IAEXPAVioBaseChar@@@Z ; ioSpaceMasterAttack::AddTarget
$LN13@SetInfoByA:
  00055	5e		 pop	 esi
$LN1@SetInfoByA:
  00056	5f		 pop	 edi

; 266  : }

  00057	5d		 pop	 ebp
  00058	c2 10 00	 ret	 16			; 00000010H
?SetInfoByApplyWeapon@ioSpaceMasterAttack@@UAEXPAVioBaseChar@@0K_N@Z ENDP ; ioSpaceMasterAttack::SetInfoByApplyWeapon
; Function compile flags: /Ogsp
_TEXT	ENDS
;	COMDAT ?OnProcessState@ioSpaceMasterAttack@@UAEXPAVioBaseChar@@PAVioPlayStage@@@Z
_TEXT	SEGMENT
_pChar$ = 8						; size = 4
_pStage$ = 12						; size = 4
?OnProcessState@ioSpaceMasterAttack@@UAEXPAVioBaseChar@@PAVioPlayStage@@@Z PROC ; ioSpaceMasterAttack::OnProcessState, COMDAT
; _this$ = ecx

; 155  : {

  00000	55		 push	 ebp
  00001	8b ec		 mov	 ebp, esp
  00003	56		 push	 esi
  00004	8b f1		 mov	 esi, ecx

; 156  : 	switch( m_SkillState )

  00006	8b 86 e4 10 00
	00		 mov	 eax, DWORD PTR [esi+4324]
  0000c	83 e8 00	 sub	 eax, 0
  0000f	74 3d		 je	 SHORT $LN5@OnProcessS
  00011	48		 dec	 eax
  00012	74 2d		 je	 SHORT $LN4@OnProcessS
  00014	48		 dec	 eax
  00015	74 10		 je	 SHORT $LN3@OnProcessS
  00017	48		 dec	 eax
  00018	75 3f		 jne	 SHORT $LN6@OnProcessS

; 174  : 	case SS_TARGET_THROW:
; 175  : 		{
; 176  : 			CheckTargetThrowState( pChar, pStage );

  0001a	ff 75 0c	 push	 DWORD PTR _pStage$[ebp]
  0001d	ff 75 08	 push	 DWORD PTR _pChar$[ebp]
  00020	e8 00 00 00 00	 call	 ?CheckTargetThrowState@ioSpaceMasterAttack@@IAEXPAVioBaseChar@@PAVioPlayStage@@@Z ; ioSpaceMasterAttack::CheckTargetThrowState

; 177  : 		}
; 178  : 		break;

  00025	eb 32		 jmp	 SHORT $LN6@OnProcessS
$LN3@OnProcessS:

; 168  : 	case SS_LOOP:
; 169  : 		{
; 170  : 			ProcessCharRotate( pChar, pStage );

  00027	ff 75 0c	 push	 DWORD PTR _pStage$[ebp]
  0002a	ff 75 08	 push	 DWORD PTR _pChar$[ebp]
  0002d	e8 00 00 00 00	 call	 ?ProcessCharRotate@ioSpaceMasterAttack@@IAEXPAVioBaseChar@@PAVioPlayStage@@@Z ; ioSpaceMasterAttack::ProcessCharRotate

; 171  : 			CheckLoopState( pChar, pStage );

  00032	ff 75 0c	 push	 DWORD PTR _pStage$[ebp]
  00035	8b ce		 mov	 ecx, esi
  00037	ff 75 08	 push	 DWORD PTR _pChar$[ebp]
  0003a	e8 00 00 00 00	 call	 ?CheckLoopState@ioSpaceMasterAttack@@IAEXPAVioBaseChar@@PAVioPlayStage@@@Z ; ioSpaceMasterAttack::CheckLoopState

; 172  : 		}
; 173  : 		break;

  0003f	eb 18		 jmp	 SHORT $LN6@OnProcessS
$LN4@OnProcessS:

; 161  : 		}
; 162  : 		break;
; 163  : 	case SS_ATTACK:
; 164  : 		{
; 165  : 			CheckActionState( pChar, pStage );

  00041	ff 75 0c	 push	 DWORD PTR _pStage$[ebp]
  00044	ff 75 08	 push	 DWORD PTR _pChar$[ebp]
  00047	e8 00 00 00 00	 call	 ?CheckActionState@ioSpaceMasterAttack@@IAEXPAVioBaseChar@@PAVioPlayStage@@@Z ; ioSpaceMasterAttack::CheckActionState

; 166  : 		}
; 167  : 		break;

  0004c	eb 0b		 jmp	 SHORT $LN6@OnProcessS
$LN5@OnProcessS:

; 157  : 	{
; 158  : 	case SS_PRE:
; 159  : 		{
; 160  : 			CheckPreState( pChar, pStage );

  0004e	ff 75 0c	 push	 DWORD PTR _pStage$[ebp]
  00051	ff 75 08	 push	 DWORD PTR _pChar$[ebp]
  00054	e8 00 00 00 00	 call	 ?CheckPreState@ioSpaceMasterAttack@@IAEXPAVioBaseChar@@PAVioPlayStage@@@Z ; ioSpaceMasterAttack::CheckPreState
$LN6@OnProcessS:
  00059	5e		 pop	 esi

; 179  : 	case SS_END:
; 180  : 		{
; 181  : 		}
; 182  : 		break;
; 183  : 	}
; 184  : }

  0005a	5d		 pop	 ebp
  0005b	c2 08 00	 ret	 8
?OnProcessState@ioSpaceMasterAttack@@UAEXPAVioBaseChar@@PAVioPlayStage@@@Z ENDP ; ioSpaceMasterAttack::OnProcessState
_TEXT	ENDS
END
