; Listing generated by Microsoft (R) Optimizing Compiler Version 16.00.30319.01 

	TITLE	D:\Lost Saga For Developer\Youtube\Tutorial\Source\src\LSClient\ioSpeedAccumlateBuff.cpp
	.686P
	.XMM
	include listing.inc
	.model	flat

INCLUDELIB MSVCRT
INCLUDELIB OLDNAMES

PUBLIC	?GetBlowStopMotionState@ioBaseChar@@QBE_NXZ	; ioBaseChar::GetBlowStopMotionState
; Function compile flags: /Ogsp
; File d:\lost saga for developer\youtube\tutorial\source\src\lsclient\iobasechar.h
;	COMDAT ?GetBlowStopMotionState@ioBaseChar@@QBE_NXZ
_TEXT	SEGMENT
?GetBlowStopMotionState@ioBaseChar@@QBE_NXZ PROC	; ioBaseChar::GetBlowStopMotionState, COMDAT
; _this$ = ecx

; 1566 : 	inline bool GetBlowStopMotionState() const { return m_bBlowStopMotion; }

  00000	8a 81 c7 15 00
	00		 mov	 al, BYTE PTR [ecx+5575]
  00006	c3		 ret	 0
?GetBlowStopMotionState@ioBaseChar@@QBE_NXZ ENDP	; ioBaseChar::GetBlowStopMotionState
_TEXT	ENDS
PUBLIC	?GetBlowFrozenState@ioBaseChar@@QBE_NXZ		; ioBaseChar::GetBlowFrozenState
; Function compile flags: /Ogsp
;	COMDAT ?GetBlowFrozenState@ioBaseChar@@QBE_NXZ
_TEXT	SEGMENT
?GetBlowFrozenState@ioBaseChar@@QBE_NXZ PROC		; ioBaseChar::GetBlowFrozenState, COMDAT
; _this$ = ecx

; 1571 : 	inline bool GetBlowFrozenState() const { return m_bBlowFrozenState; }

  00000	8a 81 c5 15 00
	00		 mov	 al, BYTE PTR [ecx+5573]
  00006	c3		 ret	 0
?GetBlowFrozenState@ioBaseChar@@QBE_NXZ ENDP		; ioBaseChar::GetBlowFrozenState
_TEXT	ENDS
PUBLIC	?GetState@ioBaseChar@@QBE?AW4CharState@@XZ	; ioBaseChar::GetState
; Function compile flags: /Ogsp
;	COMDAT ?GetState@ioBaseChar@@QBE?AW4CharState@@XZ
_TEXT	SEGMENT
?GetState@ioBaseChar@@QBE?AW4CharState@@XZ PROC		; ioBaseChar::GetState, COMDAT
; _this$ = ecx

; 2156 : 	inline CharState GetState() const { return m_CharState; }	

  00000	8a 81 10 03 00
	00		 mov	 al, BYTE PTR [ecx+784]
  00006	c3		 ret	 0
?GetState@ioBaseChar@@QBE?AW4CharState@@XZ ENDP		; ioBaseChar::GetState
_TEXT	ENDS
PUBLIC	?IsMonsterHalfBoss@ioNpcChar@@QAE_NXZ		; ioNpcChar::IsMonsterHalfBoss
; Function compile flags: /Ogsp
; File d:\lost saga for developer\youtube\tutorial\source\src\lsclient\ionpcchar.h
;	COMDAT ?IsMonsterHalfBoss@ioNpcChar@@QAE_NXZ
_TEXT	SEGMENT
?IsMonsterHalfBoss@ioNpcChar@@QAE_NXZ PROC		; ioNpcChar::IsMonsterHalfBoss, COMDAT
; _this$ = ecx

; 305  : 	bool IsMonsterHalfBoss(){ return ( m_iBossMonsterType == NBT_HALF_BOSS ); }

  00000	33 c0		 xor	 eax, eax
  00002	83 b9 68 48 00
	00 01		 cmp	 DWORD PTR [ecx+18536], 1
  00009	0f 94 c0	 sete	 al
  0000c	c3		 ret	 0
?IsMonsterHalfBoss@ioNpcChar@@QAE_NXZ ENDP		; ioNpcChar::IsMonsterHalfBoss
_TEXT	ENDS
PUBLIC	?IsMonsterLastBoss@ioNpcChar@@QAE_NXZ		; ioNpcChar::IsMonsterLastBoss
; Function compile flags: /Ogsp
;	COMDAT ?IsMonsterLastBoss@ioNpcChar@@QAE_NXZ
_TEXT	SEGMENT
?IsMonsterLastBoss@ioNpcChar@@QAE_NXZ PROC		; ioNpcChar::IsMonsterLastBoss, COMDAT
; _this$ = ecx

; 306  : 	bool IsMonsterLastBoss(){ return ( m_iBossMonsterType == NBT_LAST_BOSS ); }

  00000	33 c0		 xor	 eax, eax
  00002	83 b9 68 48 00
	00 02		 cmp	 DWORD PTR [ecx+18536], 2
  00009	0f 94 c0	 sete	 al
  0000c	c3		 ret	 0
?IsMonsterLastBoss@ioNpcChar@@QAE_NXZ ENDP		; ioNpcChar::IsMonsterLastBoss
_TEXT	ENDS
PUBLIC	?CheckRestoreStateCheck@ioSpeedAccumlateBuff@@IAE_NXZ ; ioSpeedAccumlateBuff::CheckRestoreStateCheck
; Function compile flags: /Ogsp
; File d:\lost saga for developer\youtube\tutorial\source\src\lsclient\iospeedaccumlatebuff.cpp
;	COMDAT ?CheckRestoreStateCheck@ioSpeedAccumlateBuff@@IAE_NXZ
_TEXT	SEGMENT
?CheckRestoreStateCheck@ioSpeedAccumlateBuff@@IAE_NXZ PROC ; ioSpeedAccumlateBuff::CheckRestoreStateCheck, COMDAT
; _this$ = ecx

; 173  : 	if( !m_pOwner ) return false;

  00000	8b 81 74 02 00
	00		 mov	 eax, DWORD PTR [ecx+628]
  00006	85 c0		 test	 eax, eax
  00008	75 03		 jne	 SHORT $LN4@CheckResto
  0000a	32 c0		 xor	 al, al

; 178  : 	{
; 179  : 	case CS_DELAY:
; 180  : 	case CS_RUN:
; 181  : 	case CS_DASH:
; 182  : 		return true;
; 183  : 	}
; 184  : 
; 185  : 	return false;
; 186  : }

  0000c	c3		 ret	 0
$LN4@CheckResto:

; 174  : 
; 175  : 	CharState eState = m_pOwner->GetState();

  0000d	8a 80 10 03 00
	00		 mov	 al, BYTE PTR [eax+784]

; 176  : 
; 177  : 	switch( eState )

  00013	b1 02		 mov	 cl, 2
  00015	3a c8		 cmp	 cl, al
  00017	1a c0		 sbb	 al, al
  00019	fe c0		 inc	 al

; 178  : 	{
; 179  : 	case CS_DELAY:
; 180  : 	case CS_RUN:
; 181  : 	case CS_DASH:
; 182  : 		return true;
; 183  : 	}
; 184  : 
; 185  : 	return false;
; 186  : }

  0001b	c3		 ret	 0
?CheckRestoreStateCheck@ioSpeedAccumlateBuff@@IAE_NXZ ENDP ; ioSpeedAccumlateBuff::CheckRestoreStateCheck
_TEXT	ENDS
PUBLIC	?_DECSTR@@YAXPADH@Z				; _DECSTR
; Function compile flags: /Ogsp
; File d:\lost saga for developer\youtube\tutorial\source\src\lsclient\stringprotect.h
;	COMDAT ?_DECSTR@@YAXPADH@Z
_TEXT	SEGMENT
_s$ = 8							; size = 4
_l$ = 12						; size = 4
?_DECSTR@@YAXPADH@Z PROC				; _DECSTR, COMDAT

; 40   : __forceinline void _DECSTR(char* s, int l){int i=0,l4=(l-1)/4,*p=(int*)s;s[l-1]=0;for(;i<l4;++i)*(p++)^=0xEAEBECED;for(i=l4*4;i<l-1;++i)s[i]^=0xED-i%4;}

  00000	55		 push	 ebp
  00001	8b ec		 mov	 ebp, esp
  00003	8b 4d 0c	 mov	 ecx, DWORD PTR _l$[ebp]
  00006	56		 push	 esi
  00007	8b 75 08	 mov	 esi, DWORD PTR _s$[ebp]
  0000a	57		 push	 edi
  0000b	8d 79 ff	 lea	 edi, DWORD PTR [ecx-1]
  0000e	8b c7		 mov	 eax, edi
  00010	99		 cdq
  00011	83 e2 03	 and	 edx, 3
  00014	03 c2		 add	 eax, edx
  00016	c1 f8 02	 sar	 eax, 2
  00019	8b d6		 mov	 edx, esi
  0001b	c6 44 0e ff 00	 mov	 BYTE PTR [esi+ecx-1], 0
  00020	85 c0		 test	 eax, eax
  00022	7e 0e		 jle	 SHORT $LN4@DECSTR
  00024	8b c8		 mov	 ecx, eax
$LL6@DECSTR:
  00026	81 32 ed ec eb
	ea		 xor	 DWORD PTR [edx], -353637139 ; eaebecedH
  0002c	83 c2 04	 add	 edx, 4
  0002f	49		 dec	 ecx
  00030	75 f4		 jne	 SHORT $LL6@DECSTR
$LN4@DECSTR:
  00032	c1 e0 02	 shl	 eax, 2
  00035	eb 17		 jmp	 SHORT $LN14@DECSTR
$LL3@DECSTR:
  00037	8b c8		 mov	 ecx, eax
  00039	81 e1 03 00 00
	80		 and	 ecx, -2147483645	; 80000003H
  0003f	79 05		 jns	 SHORT $LN13@DECSTR
  00041	49		 dec	 ecx
  00042	83 c9 fc	 or	 ecx, -4			; fffffffcH
  00045	41		 inc	 ecx
$LN13@DECSTR:
  00046	b2 ed		 mov	 dl, -19			; ffffffedH
  00048	2a d1		 sub	 dl, cl
  0004a	30 14 30	 xor	 BYTE PTR [eax+esi], dl
  0004d	40		 inc	 eax
$LN14@DECSTR:
  0004e	3b c7		 cmp	 eax, edi
  00050	7c e5		 jl	 SHORT $LL3@DECSTR
  00052	5f		 pop	 edi
  00053	5e		 pop	 esi
  00054	5d		 pop	 ebp
  00055	c3		 ret	 0
?_DECSTR@@YAXPADH@Z ENDP				; _DECSTR
_TEXT	ENDS
PUBLIC	??_R0?AVioGameEntity@@@8			; ioGameEntity `RTTI Type Descriptor'
PUBLIC	??_R0?AVioPlayEntity@@@8			; ioPlayEntity `RTTI Type Descriptor'
PUBLIC	?ToPlayEntity@@YAPAVioPlayEntity@@PAVioGameEntity@@@Z ; ToPlayEntity
EXTRN	___RTDynamicCast:PROC
EXTRN	??_7type_info@@6B@:QWORD			; type_info::`vftable'
;	COMDAT ??_R0?AVioGameEntity@@@8
; File d:\lost saga for developer\youtube\tutorial\source\src\lsclient\ioplayentity.h
_DATA	SEGMENT
??_R0?AVioGameEntity@@@8 DD FLAT:??_7type_info@@6B@	; ioGameEntity `RTTI Type Descriptor'
	DD	00H
	DB	'.?AVioGameEntity@@', 00H
_DATA	ENDS
;	COMDAT ??_R0?AVioPlayEntity@@@8
_DATA	SEGMENT
??_R0?AVioPlayEntity@@@8 DD FLAT:??_7type_info@@6B@	; ioPlayEntity `RTTI Type Descriptor'
	DD	00H
	DB	'.?AVioPlayEntity@@', 00H
; Function compile flags: /Ogsp
_DATA	ENDS
;	COMDAT ?ToPlayEntity@@YAPAVioPlayEntity@@PAVioGameEntity@@@Z
_TEXT	SEGMENT
_pObj$ = 8						; size = 4
?ToPlayEntity@@YAPAVioPlayEntity@@PAVioGameEntity@@@Z PROC ; ToPlayEntity, COMDAT

; 121  : {

  00000	55		 push	 ebp
  00001	8b ec		 mov	 ebp, esp
  00003	56		 push	 esi

; 122  : 	if( !pObj || pObj->GetTypeID() != ioGameEntity::GET_PLAY_ENTITY )

  00004	8b 75 08	 mov	 esi, DWORD PTR _pObj$[ebp]
  00007	85 f6		 test	 esi, esi
  00009	74 25		 je	 SHORT $LN1@ToPlayEnti
  0000b	8b 06		 mov	 eax, DWORD PTR [esi]
  0000d	8b ce		 mov	 ecx, esi
  0000f	ff 50 10	 call	 DWORD PTR [eax+16]
  00012	83 f8 01	 cmp	 eax, 1
  00015	75 19		 jne	 SHORT $LN1@ToPlayEnti

; 124  : 
; 125  : 	return dynamic_cast< ioPlayEntity* >( pObj );

  00017	6a 00		 push	 0
  00019	68 00 00 00 00	 push	 OFFSET ??_R0?AVioPlayEntity@@@8
  0001e	68 00 00 00 00	 push	 OFFSET ??_R0?AVioGameEntity@@@8
  00023	6a 00		 push	 0
  00025	56		 push	 esi
  00026	e8 00 00 00 00	 call	 ___RTDynamicCast
  0002b	83 c4 14	 add	 esp, 20			; 00000014H
  0002e	eb 02		 jmp	 SHORT $LN3@ToPlayEnti
$LN1@ToPlayEnti:

; 123  : 		return NULL;

  00030	33 c0		 xor	 eax, eax
$LN3@ToPlayEnti:
  00032	5e		 pop	 esi

; 126  : }

  00033	5d		 pop	 ebp
  00034	c3		 ret	 0
?ToPlayEntity@@YAPAVioPlayEntity@@PAVioGameEntity@@@Z ENDP ; ToPlayEntity
_TEXT	ENDS
PUBLIC	??_7?$CEncrypt@M@@6B@				; CEncrypt<float>::`vftable'
PUBLIC	??1?$CEncrypt@M@@UAE@XZ				; CEncrypt<float>::~CEncrypt<float>
PUBLIC	??_R4?$CEncrypt@M@@6B@				; CEncrypt<float>::`RTTI Complete Object Locator'
PUBLIC	??_R0?AV?$CEncrypt@M@@@8			; CEncrypt<float> `RTTI Type Descriptor'
PUBLIC	??_R3?$CEncrypt@M@@8				; CEncrypt<float>::`RTTI Class Hierarchy Descriptor'
PUBLIC	??_R2?$CEncrypt@M@@8				; CEncrypt<float>::`RTTI Base Class Array'
PUBLIC	??_R1A@?0A@EA@?$CEncrypt@M@@8			; CEncrypt<float>::`RTTI Base Class Descriptor at (0,-1,0,64)'
EXTRN	??1ccddaabb@@UAE@XZ:PROC			; ccddaabb::~ccddaabb
EXTRN	??_E?$CEncrypt@M@@UAEPAXI@Z:PROC		; CEncrypt<float>::`vector deleting destructor'
;	COMDAT ??_R1A@?0A@EA@?$CEncrypt@M@@8
; File d:\lost saga for developer\youtube\tutorial\source\src\lsclient\encryptvalue.h
rdata$r	SEGMENT
??_R1A@?0A@EA@?$CEncrypt@M@@8 DD FLAT:??_R0?AV?$CEncrypt@M@@@8 ; CEncrypt<float>::`RTTI Base Class Descriptor at (0,-1,0,64)'
	DD	00H
	DD	00H
	DD	0ffffffffH
	DD	00H
	DD	040H
	DD	FLAT:??_R3?$CEncrypt@M@@8
rdata$r	ENDS
;	COMDAT ??_R2?$CEncrypt@M@@8
rdata$r	SEGMENT
??_R2?$CEncrypt@M@@8 DD FLAT:??_R1A@?0A@EA@?$CEncrypt@M@@8 ; CEncrypt<float>::`RTTI Base Class Array'
rdata$r	ENDS
;	COMDAT ??_R3?$CEncrypt@M@@8
rdata$r	SEGMENT
??_R3?$CEncrypt@M@@8 DD 00H				; CEncrypt<float>::`RTTI Class Hierarchy Descriptor'
	DD	00H
	DD	01H
	DD	FLAT:??_R2?$CEncrypt@M@@8
rdata$r	ENDS
;	COMDAT ??_R0?AV?$CEncrypt@M@@@8
_DATA	SEGMENT
??_R0?AV?$CEncrypt@M@@@8 DD FLAT:??_7type_info@@6B@	; CEncrypt<float> `RTTI Type Descriptor'
	DD	00H
	DB	'.?AV?$CEncrypt@M@@', 00H
_DATA	ENDS
;	COMDAT ??_R4?$CEncrypt@M@@6B@
rdata$r	SEGMENT
??_R4?$CEncrypt@M@@6B@ DD 00H				; CEncrypt<float>::`RTTI Complete Object Locator'
	DD	00H
	DD	00H
	DD	FLAT:??_R0?AV?$CEncrypt@M@@@8
	DD	FLAT:??_R3?$CEncrypt@M@@8
rdata$r	ENDS
;	COMDAT ??_7?$CEncrypt@M@@6B@
CONST	SEGMENT
??_7?$CEncrypt@M@@6B@ DD FLAT:??_R4?$CEncrypt@M@@6B@	; CEncrypt<float>::`vftable'
	DD	FLAT:??_E?$CEncrypt@M@@UAEPAXI@Z
; Function compile flags: /Ogsp
CONST	ENDS
;	COMDAT ??1?$CEncrypt@M@@UAE@XZ
_TEXT	SEGMENT
??1?$CEncrypt@M@@UAE@XZ PROC				; CEncrypt<float>::~CEncrypt<float>, COMDAT
; _this$ = ecx

; 127  : 	{

  00000	c7 01 00 00 00
	00		 mov	 DWORD PTR [ecx], OFFSET ??_7?$CEncrypt@M@@6B@

; 128  : 	}

  00006	83 c1 0c	 add	 ecx, 12			; 0000000cH
  00009	e9 00 00 00 00	 jmp	 ??1ccddaabb@@UAE@XZ	; ccddaabb::~ccddaabb
??1?$CEncrypt@M@@UAE@XZ ENDP				; CEncrypt<float>::~CEncrypt<float>
_TEXT	ENDS
PUBLIC	??_7?$CEncrypt@K@@6B@				; CEncrypt<unsigned long>::`vftable'
PUBLIC	??1?$CEncrypt@K@@UAE@XZ				; CEncrypt<unsigned long>::~CEncrypt<unsigned long>
PUBLIC	??_R4?$CEncrypt@K@@6B@				; CEncrypt<unsigned long>::`RTTI Complete Object Locator'
PUBLIC	??_R0?AV?$CEncrypt@K@@@8			; CEncrypt<unsigned long> `RTTI Type Descriptor'
PUBLIC	??_R3?$CEncrypt@K@@8				; CEncrypt<unsigned long>::`RTTI Class Hierarchy Descriptor'
PUBLIC	??_R2?$CEncrypt@K@@8				; CEncrypt<unsigned long>::`RTTI Base Class Array'
PUBLIC	??_R1A@?0A@EA@?$CEncrypt@K@@8			; CEncrypt<unsigned long>::`RTTI Base Class Descriptor at (0,-1,0,64)'
EXTRN	??_E?$CEncrypt@K@@UAEPAXI@Z:PROC		; CEncrypt<unsigned long>::`vector deleting destructor'
;	COMDAT ??_R1A@?0A@EA@?$CEncrypt@K@@8
rdata$r	SEGMENT
??_R1A@?0A@EA@?$CEncrypt@K@@8 DD FLAT:??_R0?AV?$CEncrypt@K@@@8 ; CEncrypt<unsigned long>::`RTTI Base Class Descriptor at (0,-1,0,64)'
	DD	00H
	DD	00H
	DD	0ffffffffH
	DD	00H
	DD	040H
	DD	FLAT:??_R3?$CEncrypt@K@@8
rdata$r	ENDS
;	COMDAT ??_R2?$CEncrypt@K@@8
rdata$r	SEGMENT
??_R2?$CEncrypt@K@@8 DD FLAT:??_R1A@?0A@EA@?$CEncrypt@K@@8 ; CEncrypt<unsigned long>::`RTTI Base Class Array'
rdata$r	ENDS
;	COMDAT ??_R3?$CEncrypt@K@@8
rdata$r	SEGMENT
??_R3?$CEncrypt@K@@8 DD 00H				; CEncrypt<unsigned long>::`RTTI Class Hierarchy Descriptor'
	DD	00H
	DD	01H
	DD	FLAT:??_R2?$CEncrypt@K@@8
rdata$r	ENDS
;	COMDAT ??_R0?AV?$CEncrypt@K@@@8
_DATA	SEGMENT
??_R0?AV?$CEncrypt@K@@@8 DD FLAT:??_7type_info@@6B@	; CEncrypt<unsigned long> `RTTI Type Descriptor'
	DD	00H
	DB	'.?AV?$CEncrypt@K@@', 00H
_DATA	ENDS
;	COMDAT ??_R4?$CEncrypt@K@@6B@
rdata$r	SEGMENT
??_R4?$CEncrypt@K@@6B@ DD 00H				; CEncrypt<unsigned long>::`RTTI Complete Object Locator'
	DD	00H
	DD	00H
	DD	FLAT:??_R0?AV?$CEncrypt@K@@@8
	DD	FLAT:??_R3?$CEncrypt@K@@8
rdata$r	ENDS
;	COMDAT ??_7?$CEncrypt@K@@6B@
CONST	SEGMENT
??_7?$CEncrypt@K@@6B@ DD FLAT:??_R4?$CEncrypt@K@@6B@	; CEncrypt<unsigned long>::`vftable'
	DD	FLAT:??_E?$CEncrypt@K@@UAEPAXI@Z
; Function compile flags: /Ogsp
CONST	ENDS
;	COMDAT ??1?$CEncrypt@K@@UAE@XZ
_TEXT	SEGMENT
??1?$CEncrypt@K@@UAE@XZ PROC				; CEncrypt<unsigned long>::~CEncrypt<unsigned long>, COMDAT
; _this$ = ecx

; 127  : 	{

  00000	c7 01 00 00 00
	00		 mov	 DWORD PTR [ecx], OFFSET ??_7?$CEncrypt@K@@6B@

; 128  : 	}

  00006	83 c1 0c	 add	 ecx, 12			; 0000000cH
  00009	e9 00 00 00 00	 jmp	 ??1ccddaabb@@UAE@XZ	; ccddaabb::~ccddaabb
??1?$CEncrypt@K@@UAE@XZ ENDP				; CEncrypt<unsigned long>::~CEncrypt<unsigned long>
_TEXT	ENDS
PUBLIC	??_7?$CEncrypt@H@@6B@				; CEncrypt<int>::`vftable'
PUBLIC	??1?$CEncrypt@H@@UAE@XZ				; CEncrypt<int>::~CEncrypt<int>
PUBLIC	??_R4?$CEncrypt@H@@6B@				; CEncrypt<int>::`RTTI Complete Object Locator'
PUBLIC	??_R0?AV?$CEncrypt@H@@@8			; CEncrypt<int> `RTTI Type Descriptor'
PUBLIC	??_R3?$CEncrypt@H@@8				; CEncrypt<int>::`RTTI Class Hierarchy Descriptor'
PUBLIC	??_R2?$CEncrypt@H@@8				; CEncrypt<int>::`RTTI Base Class Array'
PUBLIC	??_R1A@?0A@EA@?$CEncrypt@H@@8			; CEncrypt<int>::`RTTI Base Class Descriptor at (0,-1,0,64)'
EXTRN	??_E?$CEncrypt@H@@UAEPAXI@Z:PROC		; CEncrypt<int>::`vector deleting destructor'
;	COMDAT ??_R1A@?0A@EA@?$CEncrypt@H@@8
rdata$r	SEGMENT
??_R1A@?0A@EA@?$CEncrypt@H@@8 DD FLAT:??_R0?AV?$CEncrypt@H@@@8 ; CEncrypt<int>::`RTTI Base Class Descriptor at (0,-1,0,64)'
	DD	00H
	DD	00H
	DD	0ffffffffH
	DD	00H
	DD	040H
	DD	FLAT:??_R3?$CEncrypt@H@@8
rdata$r	ENDS
;	COMDAT ??_R2?$CEncrypt@H@@8
rdata$r	SEGMENT
??_R2?$CEncrypt@H@@8 DD FLAT:??_R1A@?0A@EA@?$CEncrypt@H@@8 ; CEncrypt<int>::`RTTI Base Class Array'
rdata$r	ENDS
;	COMDAT ??_R3?$CEncrypt@H@@8
rdata$r	SEGMENT
??_R3?$CEncrypt@H@@8 DD 00H				; CEncrypt<int>::`RTTI Class Hierarchy Descriptor'
	DD	00H
	DD	01H
	DD	FLAT:??_R2?$CEncrypt@H@@8
rdata$r	ENDS
;	COMDAT ??_R0?AV?$CEncrypt@H@@@8
_DATA	SEGMENT
??_R0?AV?$CEncrypt@H@@@8 DD FLAT:??_7type_info@@6B@	; CEncrypt<int> `RTTI Type Descriptor'
	DD	00H
	DB	'.?AV?$CEncrypt@H@@', 00H
_DATA	ENDS
;	COMDAT ??_R4?$CEncrypt@H@@6B@
rdata$r	SEGMENT
??_R4?$CEncrypt@H@@6B@ DD 00H				; CEncrypt<int>::`RTTI Complete Object Locator'
	DD	00H
	DD	00H
	DD	FLAT:??_R0?AV?$CEncrypt@H@@@8
	DD	FLAT:??_R3?$CEncrypt@H@@8
rdata$r	ENDS
;	COMDAT ??_7?$CEncrypt@H@@6B@
CONST	SEGMENT
??_7?$CEncrypt@H@@6B@ DD FLAT:??_R4?$CEncrypt@H@@6B@	; CEncrypt<int>::`vftable'
	DD	FLAT:??_E?$CEncrypt@H@@UAEPAXI@Z
; Function compile flags: /Ogsp
CONST	ENDS
;	COMDAT ??1?$CEncrypt@H@@UAE@XZ
_TEXT	SEGMENT
??1?$CEncrypt@H@@UAE@XZ PROC				; CEncrypt<int>::~CEncrypt<int>, COMDAT
; _this$ = ecx

; 127  : 	{

  00000	c7 01 00 00 00
	00		 mov	 DWORD PTR [ecx], OFFSET ??_7?$CEncrypt@H@@6B@

; 128  : 	}

  00006	83 c1 0c	 add	 ecx, 12			; 0000000cH
  00009	e9 00 00 00 00	 jmp	 ??1ccddaabb@@UAE@XZ	; ccddaabb::~ccddaabb
??1?$CEncrypt@H@@UAE@XZ ENDP				; CEncrypt<int>::~CEncrypt<int>
_TEXT	ENDS
EXTRN	??3@YAXPAX@Z:PROC				; operator delete
; Function compile flags: /Ogsp
;	COMDAT ??_G?$CEncrypt@M@@UAEPAXI@Z
_TEXT	SEGMENT
___flags$ = 8						; size = 4
??_G?$CEncrypt@M@@UAEPAXI@Z PROC			; CEncrypt<float>::`scalar deleting destructor', COMDAT
; _this$ = ecx
  00000	55		 push	 ebp
  00001	8b ec		 mov	 ebp, esp
  00003	56		 push	 esi
  00004	8b f1		 mov	 esi, ecx
  00006	8d 4e 0c	 lea	 ecx, DWORD PTR [esi+12]
  00009	c7 06 00 00 00
	00		 mov	 DWORD PTR [esi], OFFSET ??_7?$CEncrypt@M@@6B@
  0000f	e8 00 00 00 00	 call	 ??1ccddaabb@@UAE@XZ	; ccddaabb::~ccddaabb
  00014	f6 45 08 01	 test	 BYTE PTR ___flags$[ebp], 1
  00018	74 07		 je	 SHORT $LN1@scalar
  0001a	56		 push	 esi
  0001b	e8 00 00 00 00	 call	 ??3@YAXPAX@Z		; operator delete
  00020	59		 pop	 ecx
$LN1@scalar:
  00021	8b c6		 mov	 eax, esi
  00023	5e		 pop	 esi
  00024	5d		 pop	 ebp
  00025	c2 04 00	 ret	 4
??_G?$CEncrypt@M@@UAEPAXI@Z ENDP			; CEncrypt<float>::`scalar deleting destructor'
; Function compile flags: /Ogsp
_TEXT	ENDS
;	COMDAT ??_G?$CEncrypt@K@@UAEPAXI@Z
_TEXT	SEGMENT
___flags$ = 8						; size = 4
??_G?$CEncrypt@K@@UAEPAXI@Z PROC			; CEncrypt<unsigned long>::`scalar deleting destructor', COMDAT
; _this$ = ecx
  00000	55		 push	 ebp
  00001	8b ec		 mov	 ebp, esp
  00003	56		 push	 esi
  00004	8b f1		 mov	 esi, ecx
  00006	8d 4e 0c	 lea	 ecx, DWORD PTR [esi+12]
  00009	c7 06 00 00 00
	00		 mov	 DWORD PTR [esi], OFFSET ??_7?$CEncrypt@K@@6B@
  0000f	e8 00 00 00 00	 call	 ??1ccddaabb@@UAE@XZ	; ccddaabb::~ccddaabb
  00014	f6 45 08 01	 test	 BYTE PTR ___flags$[ebp], 1
  00018	74 07		 je	 SHORT $LN1@scalar@2
  0001a	56		 push	 esi
  0001b	e8 00 00 00 00	 call	 ??3@YAXPAX@Z		; operator delete
  00020	59		 pop	 ecx
$LN1@scalar@2:
  00021	8b c6		 mov	 eax, esi
  00023	5e		 pop	 esi
  00024	5d		 pop	 ebp
  00025	c2 04 00	 ret	 4
??_G?$CEncrypt@K@@UAEPAXI@Z ENDP			; CEncrypt<unsigned long>::`scalar deleting destructor'
; Function compile flags: /Ogsp
_TEXT	ENDS
;	COMDAT ??_G?$CEncrypt@H@@UAEPAXI@Z
_TEXT	SEGMENT
___flags$ = 8						; size = 4
??_G?$CEncrypt@H@@UAEPAXI@Z PROC			; CEncrypt<int>::`scalar deleting destructor', COMDAT
; _this$ = ecx
  00000	55		 push	 ebp
  00001	8b ec		 mov	 ebp, esp
  00003	56		 push	 esi
  00004	8b f1		 mov	 esi, ecx
  00006	8d 4e 0c	 lea	 ecx, DWORD PTR [esi+12]
  00009	c7 06 00 00 00
	00		 mov	 DWORD PTR [esi], OFFSET ??_7?$CEncrypt@H@@6B@
  0000f	e8 00 00 00 00	 call	 ??1ccddaabb@@UAE@XZ	; ccddaabb::~ccddaabb
  00014	f6 45 08 01	 test	 BYTE PTR ___flags$[ebp], 1
  00018	74 07		 je	 SHORT $LN1@scalar@3
  0001a	56		 push	 esi
  0001b	e8 00 00 00 00	 call	 ??3@YAXPAX@Z		; operator delete
  00020	59		 pop	 ecx
$LN1@scalar@3:
  00021	8b c6		 mov	 eax, esi
  00023	5e		 pop	 esi
  00024	5d		 pop	 ebp
  00025	c2 04 00	 ret	 4
??_G?$CEncrypt@H@@UAEPAXI@Z ENDP			; CEncrypt<int>::`scalar deleting destructor'
_TEXT	ENDS
PUBLIC	?EncryptValueToPool@?$CEncrypt@M@@AAEXPBD@Z	; CEncrypt<float>::EncryptValueToPool
EXTRN	?EncryptByte@ccddaabb@@QAEXPBDPADH@Z:PROC	; ccddaabb::EncryptByte
; Function compile flags: /Ogsp
;	COMDAT ?EncryptValueToPool@?$CEncrypt@M@@AAEXPBD@Z
_TEXT	SEGMENT
_value$ = 8						; size = 4
?EncryptValueToPool@?$CEncrypt@M@@AAEXPBD@Z PROC	; CEncrypt<float>::EncryptValueToPool, COMDAT
; _this$ = ecx

; 67   : 	{

  00000	55		 push	 ebp
  00001	8b ec		 mov	 ebp, esp

; 68   : 		m_RC5.EncryptByte( value, m_MemPool, max(m_ValueSize, DEFAULT_ENCRYPT) );

  00003	0f b7 41 06	 movzx	 eax, WORD PTR [ecx+6]
  00007	83 f8 04	 cmp	 eax, 4
  0000a	77 03		 ja	 SHORT $LN4@EncryptVal
  0000c	6a 04		 push	 4
  0000e	58		 pop	 eax
$LN4@EncryptVal:
  0000f	50		 push	 eax
  00010	8d 41 1c	 lea	 eax, DWORD PTR [ecx+28]
  00013	50		 push	 eax
  00014	ff 75 08	 push	 DWORD PTR _value$[ebp]
  00017	83 c1 0c	 add	 ecx, 12			; 0000000cH
  0001a	e8 00 00 00 00	 call	 ?EncryptByte@ccddaabb@@QAEXPBDPADH@Z ; ccddaabb::EncryptByte

; 69   : 		
; 70   : 	}

  0001f	5d		 pop	 ebp
  00020	c2 04 00	 ret	 4
?EncryptValueToPool@?$CEncrypt@M@@AAEXPBD@Z ENDP	; CEncrypt<float>::EncryptValueToPool
_TEXT	ENDS
PUBLIC	?Init@?$CEncrypt@M@@AAEXXZ			; CEncrypt<float>::Init
EXTRN	?Setup@ccddaabb@@QAEXPBDHH@Z:PROC		; ccddaabb::Setup
EXTRN	__imp__rand:PROC
EXTRN	__imp__timeGetTime@0:PROC
EXTRN	__imp__GetCurrentProcessId@0:PROC
; Function compile flags: /Ogsp
;	COMDAT ?Init@?$CEncrypt@M@@AAEXXZ
_TEXT	SEGMENT
_pid$ = -8						; size = 4
_tick$ = -4						; size = 4
?Init@?$CEncrypt@M@@AAEXXZ PROC				; CEncrypt<float>::Init, COMDAT
; _this$ = ecx

; 73   : 	{

  00000	55		 push	 ebp
  00001	8b ec		 mov	 ebp, esp
  00003	51		 push	 ecx
  00004	51		 push	 ecx
  00005	53		 push	 ebx
  00006	56		 push	 esi
  00007	57		 push	 edi
  00008	8b f1		 mov	 esi, ecx

; 74   : 		DWORD pid = GetCurrentProcessId();

  0000a	ff 15 00 00 00
	00		 call	 DWORD PTR __imp__GetCurrentProcessId@0
  00010	89 45 f8	 mov	 DWORD PTR _pid$[ebp], eax

; 75   : 		DWORD tick = timeGetTime();

  00013	ff 15 00 00 00
	00		 call	 DWORD PTR __imp__timeGetTime@0

; 76   : 		m_ValueSize    = sizeof(type);
; 77   : 		m_MemPoolPos   = (unsigned short)( rand()+pid+tick )%(MAX_MEM_POOL-m_ValueSize);

  00019	8b 3d 00 00 00
	00		 mov	 edi, DWORD PTR __imp__rand
  0001f	89 45 fc	 mov	 DWORD PTR _tick$[ebp], eax
  00022	6a 04		 push	 4
  00024	58		 pop	 eax
  00025	66 89 46 06	 mov	 WORD PTR [esi+6], ax
  00029	ff d7		 call	 edi
  0002b	03 45 f8	 add	 eax, DWORD PTR _pid$[ebp]
  0002e	0f b7 4e 06	 movzx	 ecx, WORD PTR [esi+6]
  00032	03 45 fc	 add	 eax, DWORD PTR _tick$[ebp]
  00035	6a 0c		 push	 12			; 0000000cH
  00037	0f b7 c0	 movzx	 eax, ax
  0003a	5b		 pop	 ebx
  0003b	99		 cdq
  0003c	2b d9		 sub	 ebx, ecx
  0003e	f7 fb		 idiv	 ebx
  00040	66 89 56 04	 mov	 WORD PTR [esi+4], dx

; 78   : 		m_EncryptSeed  = (char)( rand()+pid+tick )%256;

  00044	ff d7		 call	 edi
  00046	02 45 f8	 add	 al, BYTE PTR _pid$[ebp]
  00049	02 45 fc	 add	 al, BYTE PTR _tick$[ebp]
  0004c	0f be c0	 movsx	 eax, al
  0004f	25 ff 00 00 80	 and	 eax, -2147483393	; 800000ffH
  00054	79 07		 jns	 SHORT $LN8@Init
  00056	48		 dec	 eax
  00057	0d 00 ff ff ff	 or	 eax, -256		; ffffff00H
  0005c	40		 inc	 eax
$LN8@Init:
  0005d	88 46 08	 mov	 BYTE PTR [esi+8], al

; 79   : 
; 80   : 		for (int i = 0; i < MAX_MEM_POOL ; i++)

  00060	33 db		 xor	 ebx, ebx
$LL3@Init:

; 81   : 			m_MemPool[i] = (char)( rand()+pid+tick )%256; // 더미

  00062	ff d7		 call	 edi
  00064	02 45 f8	 add	 al, BYTE PTR _pid$[ebp]
  00067	02 45 fc	 add	 al, BYTE PTR _tick$[ebp]
  0006a	0f be c0	 movsx	 eax, al
  0006d	25 ff 00 00 80	 and	 eax, -2147483393	; 800000ffH
  00072	79 07		 jns	 SHORT $LN9@Init
  00074	48		 dec	 eax
  00075	0d 00 ff ff ff	 or	 eax, -256		; ffffff00H
  0007a	40		 inc	 eax
$LN9@Init:
  0007b	88 44 1e 1c	 mov	 BYTE PTR [esi+ebx+28], al
  0007f	43		 inc	 ebx
  00080	83 fb 0c	 cmp	 ebx, 12			; 0000000cH
  00083	7c dd		 jl	 SHORT $LL3@Init

; 82   : 
; 83   : 		//UJ 130913, 최적화: szKey 사용안하도록 간략화
; 84   : 		//char szKey[ccddaabb::KEY_SIZE];//="";
; 85   : 		//for (int i = 0; i < ccddaabb::KEY_SIZE  ; i++)
; 86   : 		//	szKey[i] = (char)( rand()+pid+tick )%256; // 더미
; 87   : 		m_RC5.Setup( NULL, pid, tick );

  00085	ff 75 fc	 push	 DWORD PTR _tick$[ebp]
  00088	8d 4e 0c	 lea	 ecx, DWORD PTR [esi+12]
  0008b	ff 75 f8	 push	 DWORD PTR _pid$[ebp]
  0008e	6a 00		 push	 0
  00090	e8 00 00 00 00	 call	 ?Setup@ccddaabb@@QAEXPBDHH@Z ; ccddaabb::Setup
  00095	5f		 pop	 edi
  00096	5e		 pop	 esi
  00097	5b		 pop	 ebx

; 88   : 
; 89   : #ifdef _NOTUSE
; 90   : 		m_value        = 0;
; 91   : 		EncryptValueToPool((char*)&m_value);
; 92   : 		Debug();
; 93   : #endif
; 94   : 	}

  00098	c9		 leave
  00099	c3		 ret	 0
?Init@?$CEncrypt@M@@AAEXXZ ENDP				; CEncrypt<float>::Init
_TEXT	ENDS
PUBLIC	?DecryptValueToPool@?$CEncrypt@M@@QAEXPAM@Z	; CEncrypt<float>::DecryptValueToPool
EXTRN	?DecryptByte@ccddaabb@@QBEXPBDPADH@Z:PROC	; ccddaabb::DecryptByte
EXTRN	__fltused:DWORD
; Function compile flags: /Ogsp
;	COMDAT ?DecryptValueToPool@?$CEncrypt@M@@QAEXPAM@Z
_TEXT	SEGMENT
_value$ = 8						; size = 4
?DecryptValueToPool@?$CEncrypt@M@@QAEXPAM@Z PROC	; CEncrypt<float>::DecryptValueToPool, COMDAT
; _this$ = ecx

; 1648 : 	{

  00000	55		 push	 ebp
  00001	8b ec		 mov	 ebp, esp
  00003	56		 push	 esi

; 1649 : 		m_RC5.DecryptByte( m_MemPool, m_TempMem, 4 );

  00004	8d 71 28	 lea	 esi, DWORD PTR [ecx+40]
  00007	6a 04		 push	 4
  00009	8d 41 1c	 lea	 eax, DWORD PTR [ecx+28]
  0000c	56		 push	 esi
  0000d	50		 push	 eax
  0000e	83 c1 0c	 add	 ecx, 12			; 0000000cH
  00011	e8 00 00 00 00	 call	 ?DecryptByte@ccddaabb@@QBEXPBDPADH@Z ; ccddaabb::DecryptByte

; 1650 : 		*value = *((float*)m_TempMem);

  00016	d9 06		 fld	 DWORD PTR [esi]
  00018	8b 45 08	 mov	 eax, DWORD PTR _value$[ebp]
  0001b	d9 18		 fstp	 DWORD PTR [eax]
  0001d	5e		 pop	 esi

; 1651 : 	}

  0001e	5d		 pop	 ebp
  0001f	c2 04 00	 ret	 4
?DecryptValueToPool@?$CEncrypt@M@@QAEXPAM@Z ENDP	; CEncrypt<float>::DecryptValueToPool
_TEXT	ENDS
PUBLIC	?EncryptValueToPool@?$CEncrypt@K@@AAEXPBD@Z	; CEncrypt<unsigned long>::EncryptValueToPool
; Function compile flags: /Ogsp
;	COMDAT ?EncryptValueToPool@?$CEncrypt@K@@AAEXPBD@Z
_TEXT	SEGMENT
_value$ = 8						; size = 4
?EncryptValueToPool@?$CEncrypt@K@@AAEXPBD@Z PROC	; CEncrypt<unsigned long>::EncryptValueToPool, COMDAT
; _this$ = ecx

; 67   : 	{

  00000	55		 push	 ebp
  00001	8b ec		 mov	 ebp, esp

; 68   : 		m_RC5.EncryptByte( value, m_MemPool, max(m_ValueSize, DEFAULT_ENCRYPT) );

  00003	0f b7 41 06	 movzx	 eax, WORD PTR [ecx+6]
  00007	83 f8 04	 cmp	 eax, 4
  0000a	77 03		 ja	 SHORT $LN4@EncryptVal@2
  0000c	6a 04		 push	 4
  0000e	58		 pop	 eax
$LN4@EncryptVal@2:
  0000f	50		 push	 eax
  00010	8d 41 1c	 lea	 eax, DWORD PTR [ecx+28]
  00013	50		 push	 eax
  00014	ff 75 08	 push	 DWORD PTR _value$[ebp]
  00017	83 c1 0c	 add	 ecx, 12			; 0000000cH
  0001a	e8 00 00 00 00	 call	 ?EncryptByte@ccddaabb@@QAEXPBDPADH@Z ; ccddaabb::EncryptByte

; 69   : 		
; 70   : 	}

  0001f	5d		 pop	 ebp
  00020	c2 04 00	 ret	 4
?EncryptValueToPool@?$CEncrypt@K@@AAEXPBD@Z ENDP	; CEncrypt<unsigned long>::EncryptValueToPool
_TEXT	ENDS
PUBLIC	?Init@?$CEncrypt@K@@AAEXXZ			; CEncrypt<unsigned long>::Init
; Function compile flags: /Ogsp
;	COMDAT ?Init@?$CEncrypt@K@@AAEXXZ
_TEXT	SEGMENT
_pid$ = -8						; size = 4
_tick$ = -4						; size = 4
?Init@?$CEncrypt@K@@AAEXXZ PROC				; CEncrypt<unsigned long>::Init, COMDAT
; _this$ = ecx

; 73   : 	{

  00000	55		 push	 ebp
  00001	8b ec		 mov	 ebp, esp
  00003	51		 push	 ecx
  00004	51		 push	 ecx
  00005	53		 push	 ebx
  00006	56		 push	 esi
  00007	57		 push	 edi
  00008	8b f1		 mov	 esi, ecx

; 74   : 		DWORD pid = GetCurrentProcessId();

  0000a	ff 15 00 00 00
	00		 call	 DWORD PTR __imp__GetCurrentProcessId@0
  00010	89 45 f8	 mov	 DWORD PTR _pid$[ebp], eax

; 75   : 		DWORD tick = timeGetTime();

  00013	ff 15 00 00 00
	00		 call	 DWORD PTR __imp__timeGetTime@0

; 76   : 		m_ValueSize    = sizeof(type);
; 77   : 		m_MemPoolPos   = (unsigned short)( rand()+pid+tick )%(MAX_MEM_POOL-m_ValueSize);

  00019	8b 3d 00 00 00
	00		 mov	 edi, DWORD PTR __imp__rand
  0001f	89 45 fc	 mov	 DWORD PTR _tick$[ebp], eax
  00022	6a 04		 push	 4
  00024	58		 pop	 eax
  00025	66 89 46 06	 mov	 WORD PTR [esi+6], ax
  00029	ff d7		 call	 edi
  0002b	03 45 f8	 add	 eax, DWORD PTR _pid$[ebp]
  0002e	0f b7 4e 06	 movzx	 ecx, WORD PTR [esi+6]
  00032	03 45 fc	 add	 eax, DWORD PTR _tick$[ebp]
  00035	6a 0c		 push	 12			; 0000000cH
  00037	0f b7 c0	 movzx	 eax, ax
  0003a	5b		 pop	 ebx
  0003b	99		 cdq
  0003c	2b d9		 sub	 ebx, ecx
  0003e	f7 fb		 idiv	 ebx
  00040	66 89 56 04	 mov	 WORD PTR [esi+4], dx

; 78   : 		m_EncryptSeed  = (char)( rand()+pid+tick )%256;

  00044	ff d7		 call	 edi
  00046	02 45 f8	 add	 al, BYTE PTR _pid$[ebp]
  00049	02 45 fc	 add	 al, BYTE PTR _tick$[ebp]
  0004c	0f be c0	 movsx	 eax, al
  0004f	25 ff 00 00 80	 and	 eax, -2147483393	; 800000ffH
  00054	79 07		 jns	 SHORT $LN8@Init@2
  00056	48		 dec	 eax
  00057	0d 00 ff ff ff	 or	 eax, -256		; ffffff00H
  0005c	40		 inc	 eax
$LN8@Init@2:
  0005d	88 46 08	 mov	 BYTE PTR [esi+8], al

; 79   : 
; 80   : 		for (int i = 0; i < MAX_MEM_POOL ; i++)

  00060	33 db		 xor	 ebx, ebx
$LL3@Init@2:

; 81   : 			m_MemPool[i] = (char)( rand()+pid+tick )%256; // 더미

  00062	ff d7		 call	 edi
  00064	02 45 f8	 add	 al, BYTE PTR _pid$[ebp]
  00067	02 45 fc	 add	 al, BYTE PTR _tick$[ebp]
  0006a	0f be c0	 movsx	 eax, al
  0006d	25 ff 00 00 80	 and	 eax, -2147483393	; 800000ffH
  00072	79 07		 jns	 SHORT $LN9@Init@2
  00074	48		 dec	 eax
  00075	0d 00 ff ff ff	 or	 eax, -256		; ffffff00H
  0007a	40		 inc	 eax
$LN9@Init@2:
  0007b	88 44 1e 1c	 mov	 BYTE PTR [esi+ebx+28], al
  0007f	43		 inc	 ebx
  00080	83 fb 0c	 cmp	 ebx, 12			; 0000000cH
  00083	7c dd		 jl	 SHORT $LL3@Init@2

; 82   : 
; 83   : 		//UJ 130913, 최적화: szKey 사용안하도록 간략화
; 84   : 		//char szKey[ccddaabb::KEY_SIZE];//="";
; 85   : 		//for (int i = 0; i < ccddaabb::KEY_SIZE  ; i++)
; 86   : 		//	szKey[i] = (char)( rand()+pid+tick )%256; // 더미
; 87   : 		m_RC5.Setup( NULL, pid, tick );

  00085	ff 75 fc	 push	 DWORD PTR _tick$[ebp]
  00088	8d 4e 0c	 lea	 ecx, DWORD PTR [esi+12]
  0008b	ff 75 f8	 push	 DWORD PTR _pid$[ebp]
  0008e	6a 00		 push	 0
  00090	e8 00 00 00 00	 call	 ?Setup@ccddaabb@@QAEXPBDHH@Z ; ccddaabb::Setup
  00095	5f		 pop	 edi
  00096	5e		 pop	 esi
  00097	5b		 pop	 ebx

; 88   : 
; 89   : #ifdef _NOTUSE
; 90   : 		m_value        = 0;
; 91   : 		EncryptValueToPool((char*)&m_value);
; 92   : 		Debug();
; 93   : #endif
; 94   : 	}

  00098	c9		 leave
  00099	c3		 ret	 0
?Init@?$CEncrypt@K@@AAEXXZ ENDP				; CEncrypt<unsigned long>::Init
_TEXT	ENDS
PUBLIC	?DecryptValueToPool@?$CEncrypt@K@@QAEXPAK@Z	; CEncrypt<unsigned long>::DecryptValueToPool
; Function compile flags: /Ogsp
;	COMDAT ?DecryptValueToPool@?$CEncrypt@K@@QAEXPAK@Z
_TEXT	SEGMENT
_value$ = 8						; size = 4
?DecryptValueToPool@?$CEncrypt@K@@QAEXPAK@Z PROC	; CEncrypt<unsigned long>::DecryptValueToPool, COMDAT
; _this$ = ecx

; 1256 : 	{

  00000	55		 push	 ebp
  00001	8b ec		 mov	 ebp, esp
  00003	56		 push	 esi

; 1257 : 		m_RC5.DecryptByte( m_MemPool, m_TempMem, 4 );

  00004	8d 71 28	 lea	 esi, DWORD PTR [ecx+40]
  00007	6a 04		 push	 4
  00009	8d 41 1c	 lea	 eax, DWORD PTR [ecx+28]
  0000c	56		 push	 esi
  0000d	50		 push	 eax
  0000e	83 c1 0c	 add	 ecx, 12			; 0000000cH
  00011	e8 00 00 00 00	 call	 ?DecryptByte@ccddaabb@@QBEXPBDPADH@Z ; ccddaabb::DecryptByte

; 1258 : 		*value = *((DWORD*)m_TempMem);

  00016	8b 06		 mov	 eax, DWORD PTR [esi]
  00018	8b 4d 08	 mov	 ecx, DWORD PTR _value$[ebp]
  0001b	89 01		 mov	 DWORD PTR [ecx], eax
  0001d	5e		 pop	 esi

; 1259 : 	}

  0001e	5d		 pop	 ebp
  0001f	c2 04 00	 ret	 4
?DecryptValueToPool@?$CEncrypt@K@@QAEXPAK@Z ENDP	; CEncrypt<unsigned long>::DecryptValueToPool
_TEXT	ENDS
PUBLIC	?DecryptValueToPool@?$CEncrypt@_N@@QAEXPA_N@Z	; CEncrypt<bool>::DecryptValueToPool
; Function compile flags: /Ogsp
;	COMDAT ?DecryptValueToPool@?$CEncrypt@_N@@QAEXPA_N@Z
_TEXT	SEGMENT
_value$ = 8						; size = 4
?DecryptValueToPool@?$CEncrypt@_N@@QAEXPA_N@Z PROC	; CEncrypt<bool>::DecryptValueToPool, COMDAT
; _this$ = ecx

; 219  : 	{

  00000	55		 push	 ebp
  00001	8b ec		 mov	 ebp, esp
  00003	56		 push	 esi

; 220  : 		m_RC5.DecryptByte( m_MemPool, m_TempMem, 4 );

  00004	8d 71 28	 lea	 esi, DWORD PTR [ecx+40]
  00007	6a 04		 push	 4
  00009	8d 41 1c	 lea	 eax, DWORD PTR [ecx+28]
  0000c	56		 push	 esi
  0000d	50		 push	 eax
  0000e	83 c1 0c	 add	 ecx, 12			; 0000000cH
  00011	e8 00 00 00 00	 call	 ?DecryptByte@ccddaabb@@QBEXPBDPADH@Z ; ccddaabb::DecryptByte

; 221  : 		*value = *((bool*)m_TempMem);

  00016	8a 06		 mov	 al, BYTE PTR [esi]
  00018	8b 4d 08	 mov	 ecx, DWORD PTR _value$[ebp]
  0001b	88 01		 mov	 BYTE PTR [ecx], al
  0001d	5e		 pop	 esi

; 222  : 	}

  0001e	5d		 pop	 ebp
  0001f	c2 04 00	 ret	 4
?DecryptValueToPool@?$CEncrypt@_N@@QAEXPA_N@Z ENDP	; CEncrypt<bool>::DecryptValueToPool
_TEXT	ENDS
PUBLIC	?EncryptValueToPool@?$CEncrypt@H@@AAEXPBD@Z	; CEncrypt<int>::EncryptValueToPool
; Function compile flags: /Ogsp
;	COMDAT ?EncryptValueToPool@?$CEncrypt@H@@AAEXPBD@Z
_TEXT	SEGMENT
_value$ = 8						; size = 4
?EncryptValueToPool@?$CEncrypt@H@@AAEXPBD@Z PROC	; CEncrypt<int>::EncryptValueToPool, COMDAT
; _this$ = ecx

; 67   : 	{

  00000	55		 push	 ebp
  00001	8b ec		 mov	 ebp, esp

; 68   : 		m_RC5.EncryptByte( value, m_MemPool, max(m_ValueSize, DEFAULT_ENCRYPT) );

  00003	0f b7 41 06	 movzx	 eax, WORD PTR [ecx+6]
  00007	83 f8 04	 cmp	 eax, 4
  0000a	77 03		 ja	 SHORT $LN4@EncryptVal@3
  0000c	6a 04		 push	 4
  0000e	58		 pop	 eax
$LN4@EncryptVal@3:
  0000f	50		 push	 eax
  00010	8d 41 1c	 lea	 eax, DWORD PTR [ecx+28]
  00013	50		 push	 eax
  00014	ff 75 08	 push	 DWORD PTR _value$[ebp]
  00017	83 c1 0c	 add	 ecx, 12			; 0000000cH
  0001a	e8 00 00 00 00	 call	 ?EncryptByte@ccddaabb@@QAEXPBDPADH@Z ; ccddaabb::EncryptByte

; 69   : 		
; 70   : 	}

  0001f	5d		 pop	 ebp
  00020	c2 04 00	 ret	 4
?EncryptValueToPool@?$CEncrypt@H@@AAEXPBD@Z ENDP	; CEncrypt<int>::EncryptValueToPool
_TEXT	ENDS
PUBLIC	?Init@?$CEncrypt@H@@AAEXXZ			; CEncrypt<int>::Init
; Function compile flags: /Ogsp
;	COMDAT ?Init@?$CEncrypt@H@@AAEXXZ
_TEXT	SEGMENT
_pid$ = -8						; size = 4
_tick$ = -4						; size = 4
?Init@?$CEncrypt@H@@AAEXXZ PROC				; CEncrypt<int>::Init, COMDAT
; _this$ = ecx

; 73   : 	{

  00000	55		 push	 ebp
  00001	8b ec		 mov	 ebp, esp
  00003	51		 push	 ecx
  00004	51		 push	 ecx
  00005	53		 push	 ebx
  00006	56		 push	 esi
  00007	57		 push	 edi
  00008	8b f1		 mov	 esi, ecx

; 74   : 		DWORD pid = GetCurrentProcessId();

  0000a	ff 15 00 00 00
	00		 call	 DWORD PTR __imp__GetCurrentProcessId@0
  00010	89 45 f8	 mov	 DWORD PTR _pid$[ebp], eax

; 75   : 		DWORD tick = timeGetTime();

  00013	ff 15 00 00 00
	00		 call	 DWORD PTR __imp__timeGetTime@0

; 76   : 		m_ValueSize    = sizeof(type);
; 77   : 		m_MemPoolPos   = (unsigned short)( rand()+pid+tick )%(MAX_MEM_POOL-m_ValueSize);

  00019	8b 3d 00 00 00
	00		 mov	 edi, DWORD PTR __imp__rand
  0001f	89 45 fc	 mov	 DWORD PTR _tick$[ebp], eax
  00022	6a 04		 push	 4
  00024	58		 pop	 eax
  00025	66 89 46 06	 mov	 WORD PTR [esi+6], ax
  00029	ff d7		 call	 edi
  0002b	03 45 f8	 add	 eax, DWORD PTR _pid$[ebp]
  0002e	0f b7 4e 06	 movzx	 ecx, WORD PTR [esi+6]
  00032	03 45 fc	 add	 eax, DWORD PTR _tick$[ebp]
  00035	6a 0c		 push	 12			; 0000000cH
  00037	0f b7 c0	 movzx	 eax, ax
  0003a	5b		 pop	 ebx
  0003b	99		 cdq
  0003c	2b d9		 sub	 ebx, ecx
  0003e	f7 fb		 idiv	 ebx
  00040	66 89 56 04	 mov	 WORD PTR [esi+4], dx

; 78   : 		m_EncryptSeed  = (char)( rand()+pid+tick )%256;

  00044	ff d7		 call	 edi
  00046	02 45 f8	 add	 al, BYTE PTR _pid$[ebp]
  00049	02 45 fc	 add	 al, BYTE PTR _tick$[ebp]
  0004c	0f be c0	 movsx	 eax, al
  0004f	25 ff 00 00 80	 and	 eax, -2147483393	; 800000ffH
  00054	79 07		 jns	 SHORT $LN8@Init@3
  00056	48		 dec	 eax
  00057	0d 00 ff ff ff	 or	 eax, -256		; ffffff00H
  0005c	40		 inc	 eax
$LN8@Init@3:
  0005d	88 46 08	 mov	 BYTE PTR [esi+8], al

; 79   : 
; 80   : 		for (int i = 0; i < MAX_MEM_POOL ; i++)

  00060	33 db		 xor	 ebx, ebx
$LL3@Init@3:

; 81   : 			m_MemPool[i] = (char)( rand()+pid+tick )%256; // 더미

  00062	ff d7		 call	 edi
  00064	02 45 f8	 add	 al, BYTE PTR _pid$[ebp]
  00067	02 45 fc	 add	 al, BYTE PTR _tick$[ebp]
  0006a	0f be c0	 movsx	 eax, al
  0006d	25 ff 00 00 80	 and	 eax, -2147483393	; 800000ffH
  00072	79 07		 jns	 SHORT $LN9@Init@3
  00074	48		 dec	 eax
  00075	0d 00 ff ff ff	 or	 eax, -256		; ffffff00H
  0007a	40		 inc	 eax
$LN9@Init@3:
  0007b	88 44 1e 1c	 mov	 BYTE PTR [esi+ebx+28], al
  0007f	43		 inc	 ebx
  00080	83 fb 0c	 cmp	 ebx, 12			; 0000000cH
  00083	7c dd		 jl	 SHORT $LL3@Init@3

; 82   : 
; 83   : 		//UJ 130913, 최적화: szKey 사용안하도록 간략화
; 84   : 		//char szKey[ccddaabb::KEY_SIZE];//="";
; 85   : 		//for (int i = 0; i < ccddaabb::KEY_SIZE  ; i++)
; 86   : 		//	szKey[i] = (char)( rand()+pid+tick )%256; // 더미
; 87   : 		m_RC5.Setup( NULL, pid, tick );

  00085	ff 75 fc	 push	 DWORD PTR _tick$[ebp]
  00088	8d 4e 0c	 lea	 ecx, DWORD PTR [esi+12]
  0008b	ff 75 f8	 push	 DWORD PTR _pid$[ebp]
  0008e	6a 00		 push	 0
  00090	e8 00 00 00 00	 call	 ?Setup@ccddaabb@@QAEXPBDHH@Z ; ccddaabb::Setup
  00095	5f		 pop	 edi
  00096	5e		 pop	 esi
  00097	5b		 pop	 ebx

; 88   : 
; 89   : #ifdef _NOTUSE
; 90   : 		m_value        = 0;
; 91   : 		EncryptValueToPool((char*)&m_value);
; 92   : 		Debug();
; 93   : #endif
; 94   : 	}

  00098	c9		 leave
  00099	c3		 ret	 0
?Init@?$CEncrypt@H@@AAEXXZ ENDP				; CEncrypt<int>::Init
_TEXT	ENDS
PUBLIC	?DecryptValueToPool@?$CEncrypt@H@@QAEXPAH@Z	; CEncrypt<int>::DecryptValueToPool
; Function compile flags: /Ogsp
;	COMDAT ?DecryptValueToPool@?$CEncrypt@H@@QAEXPAH@Z
_TEXT	SEGMENT
_value$ = 8						; size = 4
?DecryptValueToPool@?$CEncrypt@H@@QAEXPAH@Z PROC	; CEncrypt<int>::DecryptValueToPool, COMDAT
; _this$ = ecx

; 837  : 	{

  00000	55		 push	 ebp
  00001	8b ec		 mov	 ebp, esp
  00003	56		 push	 esi

; 838  : 		m_RC5.DecryptByte( m_MemPool, m_TempMem, 4 );

  00004	8d 71 28	 lea	 esi, DWORD PTR [ecx+40]
  00007	6a 04		 push	 4
  00009	8d 41 1c	 lea	 eax, DWORD PTR [ecx+28]
  0000c	56		 push	 esi
  0000d	50		 push	 eax
  0000e	83 c1 0c	 add	 ecx, 12			; 0000000cH
  00011	e8 00 00 00 00	 call	 ?DecryptByte@ccddaabb@@QBEXPBDPADH@Z ; ccddaabb::DecryptByte

; 839  : 		*value = *((int*)m_TempMem);

  00016	8b 06		 mov	 eax, DWORD PTR [esi]
  00018	8b 4d 08	 mov	 ecx, DWORD PTR _value$[ebp]
  0001b	89 01		 mov	 DWORD PTR [ecx], eax
  0001d	5e		 pop	 esi

; 840  : 	}

  0001e	5d		 pop	 ebp
  0001f	c2 04 00	 ret	 4
?DecryptValueToPool@?$CEncrypt@H@@QAEXPAH@Z ENDP	; CEncrypt<int>::DecryptValueToPool
_TEXT	ENDS
PUBLIC	??_R0?AVioBaseChar@@@8				; ioBaseChar `RTTI Type Descriptor'
PUBLIC	?ToBaseChar@@YAPAVioBaseChar@@PAVioGameEntity@@@Z ; ToBaseChar
;	COMDAT ??_R0?AVioBaseChar@@@8
; File d:\lost saga for developer\youtube\tutorial\source\src\lsclient\iobasechar.h
_DATA	SEGMENT
??_R0?AVioBaseChar@@@8 DD FLAT:??_7type_info@@6B@	; ioBaseChar `RTTI Type Descriptor'
	DD	00H
	DB	'.?AVioBaseChar@@', 00H
; Function compile flags: /Ogsp
_DATA	ENDS
;	COMDAT ?ToBaseChar@@YAPAVioBaseChar@@PAVioGameEntity@@@Z
_TEXT	SEGMENT
_pObj$ = 8						; size = 4
?ToBaseChar@@YAPAVioBaseChar@@PAVioGameEntity@@@Z PROC	; ToBaseChar, COMDAT

; 4326 : {

  00000	55		 push	 ebp
  00001	8b ec		 mov	 ebp, esp
  00003	56		 push	 esi

; 4327 : 	ioPlayEntity *pPlay = ToPlayEntity( pObj );

  00004	ff 75 08	 push	 DWORD PTR _pObj$[ebp]
  00007	e8 00 00 00 00	 call	 ?ToPlayEntity@@YAPAVioPlayEntity@@PAVioGameEntity@@@Z ; ToPlayEntity
  0000c	8b f0		 mov	 esi, eax
  0000e	59		 pop	 ecx

; 4328 : 	if( !pPlay || pPlay->GetSubType() != ioPlayEntity::PST_CHAR )

  0000f	85 f6		 test	 esi, esi
  00011	74 25		 je	 SHORT $LN1@ToBaseChar
  00013	8b 06		 mov	 eax, DWORD PTR [esi]
  00015	8b ce		 mov	 ecx, esi
  00017	ff 90 a4 00 00
	00		 call	 DWORD PTR [eax+164]
  0001d	85 c0		 test	 eax, eax
  0001f	75 17		 jne	 SHORT $LN1@ToBaseChar

; 4330 : 
; 4331 : 	return dynamic_cast< ioBaseChar* >( pPlay );

  00021	50		 push	 eax
  00022	68 00 00 00 00	 push	 OFFSET ??_R0?AVioBaseChar@@@8
  00027	68 00 00 00 00	 push	 OFFSET ??_R0?AVioPlayEntity@@@8
  0002c	50		 push	 eax
  0002d	56		 push	 esi
  0002e	e8 00 00 00 00	 call	 ___RTDynamicCast
  00033	83 c4 14	 add	 esp, 20			; 00000014H
  00036	eb 02		 jmp	 SHORT $LN3@ToBaseChar
$LN1@ToBaseChar:

; 4329 : 		return NULL;

  00038	33 c0		 xor	 eax, eax
$LN3@ToBaseChar:
  0003a	5e		 pop	 esi

; 4332 : }

  0003b	5d		 pop	 ebp
  0003c	c3		 ret	 0
?ToBaseChar@@YAPAVioBaseChar@@PAVioGameEntity@@@Z ENDP	; ToBaseChar
_TEXT	ENDS
PUBLIC	??_R0?AVioNpcChar@@@8				; ioNpcChar `RTTI Type Descriptor'
PUBLIC	?ToNpcChar@@YAPAVioNpcChar@@PAVioGameEntity@@@Z	; ToNpcChar
;	COMDAT ??_R0?AVioNpcChar@@@8
; File d:\lost saga for developer\youtube\tutorial\source\src\lsclient\ionpcchar.h
_DATA	SEGMENT
??_R0?AVioNpcChar@@@8 DD FLAT:??_7type_info@@6B@	; ioNpcChar `RTTI Type Descriptor'
	DD	00H
	DB	'.?AVioNpcChar@@', 00H
; Function compile flags: /Ogsp
_DATA	ENDS
;	COMDAT ?ToNpcChar@@YAPAVioNpcChar@@PAVioGameEntity@@@Z
_TEXT	SEGMENT
_pObj$ = 8						; size = 4
?ToNpcChar@@YAPAVioNpcChar@@PAVioGameEntity@@@Z PROC	; ToNpcChar, COMDAT

; 361  : {

  00000	55		 push	 ebp
  00001	8b ec		 mov	 ebp, esp
  00003	56		 push	 esi

; 362  : 	ioBaseChar *pChar = ToBaseChar( pObj );

  00004	ff 75 08	 push	 DWORD PTR _pObj$[ebp]
  00007	e8 00 00 00 00	 call	 ?ToBaseChar@@YAPAVioBaseChar@@PAVioGameEntity@@@Z ; ToBaseChar
  0000c	8b f0		 mov	 esi, eax
  0000e	59		 pop	 ecx

; 363  : 	if( !pChar || pChar->GetControlType() != CONTROL_AI )

  0000f	85 f6		 test	 esi, esi
  00011	74 28		 je	 SHORT $LN1@ToNpcChar
  00013	8b 06		 mov	 eax, DWORD PTR [esi]
  00015	8b ce		 mov	 ecx, esi
  00017	ff 90 ec 00 00
	00		 call	 DWORD PTR [eax+236]
  0001d	83 f8 02	 cmp	 eax, 2
  00020	75 19		 jne	 SHORT $LN1@ToNpcChar

; 365  : 
; 366  : 	return dynamic_cast< ioNpcChar* >(pChar);

  00022	6a 00		 push	 0
  00024	68 00 00 00 00	 push	 OFFSET ??_R0?AVioNpcChar@@@8
  00029	68 00 00 00 00	 push	 OFFSET ??_R0?AVioBaseChar@@@8
  0002e	6a 00		 push	 0
  00030	56		 push	 esi
  00031	e8 00 00 00 00	 call	 ___RTDynamicCast
  00036	83 c4 14	 add	 esp, 20			; 00000014H
  00039	eb 02		 jmp	 SHORT $LN3@ToNpcChar
$LN1@ToNpcChar:

; 364  : 		return NULL;

  0003b	33 c0		 xor	 eax, eax
$LN3@ToNpcChar:
  0003d	5e		 pop	 esi

; 367  : }

  0003e	5d		 pop	 ebp
  0003f	c3		 ret	 0
?ToNpcChar@@YAPAVioNpcChar@@PAVioGameEntity@@@Z ENDP	; ToNpcChar
_TEXT	ENDS
PUBLIC	??_7ioSpeedAccumlateBuff@@6B@			; ioSpeedAccumlateBuff::`vftable'
PUBLIC	??1ioSpeedAccumlateBuff@@UAE@XZ			; ioSpeedAccumlateBuff::~ioSpeedAccumlateBuff
PUBLIC	??_R4ioSpeedAccumlateBuff@@6B@			; ioSpeedAccumlateBuff::`RTTI Complete Object Locator'
PUBLIC	??_R0?AVioSpeedAccumlateBuff@@@8		; ioSpeedAccumlateBuff `RTTI Type Descriptor'
PUBLIC	??_R3ioSpeedAccumlateBuff@@8			; ioSpeedAccumlateBuff::`RTTI Class Hierarchy Descriptor'
PUBLIC	??_R2ioSpeedAccumlateBuff@@8			; ioSpeedAccumlateBuff::`RTTI Base Class Array'
PUBLIC	??_R1A@?0A@EA@ioSpeedAccumlateBuff@@8		; ioSpeedAccumlateBuff::`RTTI Base Class Descriptor at (0,-1,0,64)'
PUBLIC	??_R1A@?0A@EA@ioBuff@@8				; ioBuff::`RTTI Base Class Descriptor at (0,-1,0,64)'
PUBLIC	??_R0?AVioBuff@@@8				; ioBuff `RTTI Type Descriptor'
PUBLIC	??_R3ioBuff@@8					; ioBuff::`RTTI Class Hierarchy Descriptor'
PUBLIC	??_R2ioBuff@@8					; ioBuff::`RTTI Base Class Array'
PUBLIC	?LoadProperty@ioSpeedAccumlateBuff@@UAEXAAVioINILoader@@@Z ; ioSpeedAccumlateBuff::LoadProperty
PUBLIC	?Clone@ioSpeedAccumlateBuff@@UAEPAVioBuff@@XZ	; ioSpeedAccumlateBuff::Clone
PUBLIC	?StartBuff@ioSpeedAccumlateBuff@@UAEXPAVioBaseChar@@@Z ; ioSpeedAccumlateBuff::StartBuff
PUBLIC	?ApplyStartBuff@ioSpeedAccumlateBuff@@UAE_NPAVioBaseChar@@KK@Z ; ioSpeedAccumlateBuff::ApplyStartBuff
PUBLIC	?ProcessBuff@ioSpeedAccumlateBuff@@UAEXM@Z	; ioSpeedAccumlateBuff::ProcessBuff
PUBLIC	?EndBuff@ioSpeedAccumlateBuff@@UAEXXZ		; ioSpeedAccumlateBuff::EndBuff
PUBLIC	?AccumulateBuff@ioSpeedAccumlateBuff@@UAEXXZ	; ioSpeedAccumlateBuff::AccumulateBuff
PUBLIC	?IsWaitSelfRemove@ioBuff@@UAE_NXZ		; ioBuff::IsWaitSelfRemove
EXTRN	??1ioBuff@@UAE@XZ:PROC				; ioBuff::~ioBuff
EXTRN	___CxxFrameHandler3:PROC
EXTRN	@__security_check_cookie@4:PROC
EXTRN	__EH_epilog3:PROC
EXTRN	__EH_prolog3:PROC
EXTRN	?StartBuffWithAniTime@ioBuff@@UAEXPAVioBaseChar@@K@Z:PROC ; ioBuff::StartBuffWithAniTime
EXTRN	?CancelBuff@ioBuff@@UAEXXZ:PROC			; ioBuff::CancelBuff
EXTRN	?GetBuffInfo@ioBuff@@UAEXAAVSP2Packet@@@Z:PROC	; ioBuff::GetBuffInfo
EXTRN	?ApplyBuffInfo@ioBuff@@UAEXAAVSP2Packet@@@Z:PROC ; ioBuff::ApplyBuffInfo
EXTRN	?IsLiveButStopped@ioBuff@@UBE_NXZ:PROC		; ioBuff::IsLiveButStopped
EXTRN	?IsCanJumpAttack@ioBuff@@UBE_NXZ:PROC		; ioBuff::IsCanJumpAttack
EXTRN	?SetAction@ioBuff@@MAEXXZ:PROC			; ioBuff::SetAction
EXTRN	?ProcessDelay@ioBuff@@MAEXM@Z:PROC		; ioBuff::ProcessDelay
EXTRN	?SetExtraDurationByGrowth@ioBuff@@UAEXM@Z:PROC	; ioBuff::SetExtraDurationByGrowth
EXTRN	?SetWeaponIndex@ioBuff@@UAEXK@Z:PROC		; ioBuff::SetWeaponIndex
EXTRN	?OnReduceGauge@ioBuff@@UBE_NXZ:PROC		; ioBuff::OnReduceGauge
EXTRN	?IsCharCollisionSkip@ioBuff@@UBE_NXZ:PROC	; ioBuff::IsCharCollisionSkip
EXTRN	?IsCollisionAvailableWeapon@ioBuff@@UBE_NXZ:PROC ; ioBuff::IsCollisionAvailableWeapon
EXTRN	?IsProtected@ioBuff@@UBE_NXZ:PROC		; ioBuff::IsProtected
EXTRN	?UseActiveCount@ioBuff@@UBE_NXZ:PROC		; ioBuff::UseActiveCount
EXTRN	?CheckActiveCount@ioBuff@@UAEXXZ:PROC		; ioBuff::CheckActiveCount
EXTRN	?CheckRemoveEquipSkillBuff@ioBuff@@UAEX_N@Z:PROC ; ioBuff::CheckRemoveEquipSkillBuff
EXTRN	?ApplyExtraBuffInfo@ioBuff@@UAEXAAVSP2Packet@@@Z:PROC ; ioBuff::ApplyExtraBuffInfo
EXTRN	?SetBuffGrapplingState@ioBuff@@UAE_NPAVioBaseChar@@ABVioHashString@@@Z:PROC ; ioBuff::SetBuffGrapplingState
EXTRN	?GetGrapplingTargetPos@ioBuff@@UAE?AUD3DXVECTOR3@@PAVioBaseChar@@@Z:PROC ; ioBuff::GetGrapplingTargetPos
EXTRN	??_EioSpeedAccumlateBuff@@UAEPAXI@Z:PROC	; ioSpeedAccumlateBuff::`vector deleting destructor'
;	COMDAT ??_R2ioBuff@@8
; File d:\lost saga for developer\youtube\tutorial\source\src\lsclient\encryptvalue.h
rdata$r	SEGMENT
??_R2ioBuff@@8 DD FLAT:??_R1A@?0A@EA@ioBuff@@8		; ioBuff::`RTTI Base Class Array'
rdata$r	ENDS
;	COMDAT ??_R3ioBuff@@8
rdata$r	SEGMENT
??_R3ioBuff@@8 DD 00H					; ioBuff::`RTTI Class Hierarchy Descriptor'
	DD	00H
	DD	01H
	DD	FLAT:??_R2ioBuff@@8
rdata$r	ENDS
;	COMDAT ??_R0?AVioBuff@@@8
_DATA	SEGMENT
??_R0?AVioBuff@@@8 DD FLAT:??_7type_info@@6B@		; ioBuff `RTTI Type Descriptor'
	DD	00H
	DB	'.?AVioBuff@@', 00H
_DATA	ENDS
;	COMDAT ??_R1A@?0A@EA@ioBuff@@8
rdata$r	SEGMENT
??_R1A@?0A@EA@ioBuff@@8 DD FLAT:??_R0?AVioBuff@@@8	; ioBuff::`RTTI Base Class Descriptor at (0,-1,0,64)'
	DD	00H
	DD	00H
	DD	0ffffffffH
	DD	00H
	DD	040H
	DD	FLAT:??_R3ioBuff@@8
rdata$r	ENDS
;	COMDAT ??_R1A@?0A@EA@ioSpeedAccumlateBuff@@8
rdata$r	SEGMENT
??_R1A@?0A@EA@ioSpeedAccumlateBuff@@8 DD FLAT:??_R0?AVioSpeedAccumlateBuff@@@8 ; ioSpeedAccumlateBuff::`RTTI Base Class Descriptor at (0,-1,0,64)'
	DD	01H
	DD	00H
	DD	0ffffffffH
	DD	00H
	DD	040H
	DD	FLAT:??_R3ioSpeedAccumlateBuff@@8
rdata$r	ENDS
;	COMDAT ??_R2ioSpeedAccumlateBuff@@8
rdata$r	SEGMENT
??_R2ioSpeedAccumlateBuff@@8 DD FLAT:??_R1A@?0A@EA@ioSpeedAccumlateBuff@@8 ; ioSpeedAccumlateBuff::`RTTI Base Class Array'
	DD	FLAT:??_R1A@?0A@EA@ioBuff@@8
rdata$r	ENDS
;	COMDAT ??_R3ioSpeedAccumlateBuff@@8
rdata$r	SEGMENT
??_R3ioSpeedAccumlateBuff@@8 DD 00H			; ioSpeedAccumlateBuff::`RTTI Class Hierarchy Descriptor'
	DD	00H
	DD	02H
	DD	FLAT:??_R2ioSpeedAccumlateBuff@@8
rdata$r	ENDS
;	COMDAT ??_R0?AVioSpeedAccumlateBuff@@@8
_DATA	SEGMENT
??_R0?AVioSpeedAccumlateBuff@@@8 DD FLAT:??_7type_info@@6B@ ; ioSpeedAccumlateBuff `RTTI Type Descriptor'
	DD	00H
	DB	'.?AVioSpeedAccumlateBuff@@', 00H
_DATA	ENDS
;	COMDAT ??_R4ioSpeedAccumlateBuff@@6B@
rdata$r	SEGMENT
??_R4ioSpeedAccumlateBuff@@6B@ DD 00H			; ioSpeedAccumlateBuff::`RTTI Complete Object Locator'
	DD	00H
	DD	00H
	DD	FLAT:??_R0?AVioSpeedAccumlateBuff@@@8
	DD	FLAT:??_R3ioSpeedAccumlateBuff@@8
rdata$r	ENDS
;	COMDAT ??_7ioSpeedAccumlateBuff@@6B@
CONST	SEGMENT
??_7ioSpeedAccumlateBuff@@6B@ DD FLAT:??_R4ioSpeedAccumlateBuff@@6B@ ; ioSpeedAccumlateBuff::`vftable'
	DD	FLAT:?LoadProperty@ioSpeedAccumlateBuff@@UAEXAAVioINILoader@@@Z
	DD	FLAT:?Clone@ioSpeedAccumlateBuff@@UAEPAVioBuff@@XZ
	DD	FLAT:?StartBuff@ioSpeedAccumlateBuff@@UAEXPAVioBaseChar@@@Z
	DD	FLAT:?StartBuffWithAniTime@ioBuff@@UAEXPAVioBaseChar@@K@Z
	DD	FLAT:?ApplyStartBuff@ioSpeedAccumlateBuff@@UAE_NPAVioBaseChar@@KK@Z
	DD	FLAT:?ProcessBuff@ioSpeedAccumlateBuff@@UAEXM@Z
	DD	FLAT:?EndBuff@ioSpeedAccumlateBuff@@UAEXXZ
	DD	FLAT:?CancelBuff@ioBuff@@UAEXXZ
	DD	FLAT:?GetBuffInfo@ioBuff@@UAEXAAVSP2Packet@@@Z
	DD	FLAT:?ApplyBuffInfo@ioBuff@@UAEXAAVSP2Packet@@@Z
	DD	FLAT:?AccumulateBuff@ioSpeedAccumlateBuff@@UAEXXZ
	DD	FLAT:?IsLiveButStopped@ioBuff@@UBE_NXZ
	DD	FLAT:?IsCanJumpAttack@ioBuff@@UBE_NXZ
	DD	FLAT:?SetAction@ioBuff@@MAEXXZ
	DD	FLAT:?ProcessDelay@ioBuff@@MAEXM@Z
	DD	FLAT:?SetExtraDurationByGrowth@ioBuff@@UAEXM@Z
	DD	FLAT:?SetWeaponIndex@ioBuff@@UAEXK@Z
	DD	FLAT:?OnReduceGauge@ioBuff@@UBE_NXZ
	DD	FLAT:?IsCharCollisionSkip@ioBuff@@UBE_NXZ
	DD	FLAT:?IsCollisionAvailableWeapon@ioBuff@@UBE_NXZ
	DD	FLAT:?IsProtected@ioBuff@@UBE_NXZ
	DD	FLAT:?UseActiveCount@ioBuff@@UBE_NXZ
	DD	FLAT:?CheckActiveCount@ioBuff@@UAEXXZ
	DD	FLAT:?CheckRemoveEquipSkillBuff@ioBuff@@UAEX_N@Z
	DD	FLAT:?ApplyExtraBuffInfo@ioBuff@@UAEXAAVSP2Packet@@@Z
	DD	FLAT:?SetBuffGrapplingState@ioBuff@@UAE_NPAVioBaseChar@@ABVioHashString@@@Z
	DD	FLAT:?GetGrapplingTargetPos@ioBuff@@UAE?AUD3DXVECTOR3@@PAVioBaseChar@@@Z
	DD	FLAT:?IsWaitSelfRemove@ioBuff@@UAE_NXZ
	DD	FLAT:??_EioSpeedAccumlateBuff@@UAEPAXI@Z
CONST	ENDS
;	COMDAT xdata$x
xdata$x	SEGMENT
__ehfuncinfo$??1ioSpeedAccumlateBuff@@UAE@XZ DD 019930522H
	DD	05H
	DD	FLAT:__unwindtable$??1ioSpeedAccumlateBuff@@UAE@XZ
	DD	2 DUP(00H)
	DD	2 DUP(00H)
	DD	00H
	DD	01H
__unwindtable$??1ioSpeedAccumlateBuff@@UAE@XZ DD 0ffffffffH
	DD	FLAT:__unwindfunclet$??1ioSpeedAccumlateBuff@@UAE@XZ$0
	DD	00H
	DD	FLAT:__unwindfunclet$??1ioSpeedAccumlateBuff@@UAE@XZ$1
	DD	01H
	DD	FLAT:__unwindfunclet$??1ioSpeedAccumlateBuff@@UAE@XZ$2
	DD	02H
	DD	FLAT:__unwindfunclet$??1ioSpeedAccumlateBuff@@UAE@XZ$3
	DD	03H
	DD	FLAT:__unwindfunclet$??1ioSpeedAccumlateBuff@@UAE@XZ$4
; Function compile flags: /Ogsp
; File d:\lost saga for developer\youtube\tutorial\source\src\lsclient\iospeedaccumlatebuff.cpp
xdata$x	ENDS
;	COMDAT ??1ioSpeedAccumlateBuff@@UAE@XZ
_TEXT	SEGMENT
_this$ = -16						; size = 4
__$EHRec$ = -12						; size = 12
??1ioSpeedAccumlateBuff@@UAE@XZ PROC			; ioSpeedAccumlateBuff::~ioSpeedAccumlateBuff, COMDAT
; _this$ = ecx

; 26   : {

  00000	6a 04		 push	 4
  00002	b8 00 00 00 00	 mov	 eax, __ehhandler$??1ioSpeedAccumlateBuff@@UAE@XZ
  00007	e8 00 00 00 00	 call	 __EH_prolog3
  0000c	8b f1		 mov	 esi, ecx
  0000e	89 75 f0	 mov	 DWORD PTR _this$[ebp], esi
  00011	c7 06 00 00 00
	00		 mov	 DWORD PTR [esi], OFFSET ??_7ioSpeedAccumlateBuff@@6B@

; 27   : }

  00017	8d 8e 40 0a 00
	00		 lea	 ecx, DWORD PTR [esi+2624]
  0001d	c7 45 fc 04 00
	00 00		 mov	 DWORD PTR __$EHRec$[ebp+8], 4
  00024	c7 86 34 0a 00
	00 00 00 00 00	 mov	 DWORD PTR [esi+2612], OFFSET ??_7?$CEncrypt@M@@6B@
  0002e	e8 00 00 00 00	 call	 ??1ccddaabb@@UAE@XZ	; ccddaabb::~ccddaabb
  00033	bf 00 00 00 00	 mov	 edi, OFFSET ??_7?$CEncrypt@K@@6B@
  00038	8d 8e 10 0a 00
	00		 lea	 ecx, DWORD PTR [esi+2576]
  0003e	c6 45 fc 03	 mov	 BYTE PTR __$EHRec$[ebp+8], 3
  00042	89 be 04 0a 00
	00		 mov	 DWORD PTR [esi+2564], edi
  00048	e8 00 00 00 00	 call	 ??1ccddaabb@@UAE@XZ	; ccddaabb::~ccddaabb
  0004d	8d 8e e0 09 00
	00		 lea	 ecx, DWORD PTR [esi+2528]
  00053	c6 45 fc 02	 mov	 BYTE PTR __$EHRec$[ebp+8], 2
  00057	89 be d4 09 00
	00		 mov	 DWORD PTR [esi+2516], edi
  0005d	e8 00 00 00 00	 call	 ??1ccddaabb@@UAE@XZ	; ccddaabb::~ccddaabb
  00062	8d 8e b0 09 00
	00		 lea	 ecx, DWORD PTR [esi+2480]
  00068	c6 45 fc 01	 mov	 BYTE PTR __$EHRec$[ebp+8], 1
  0006c	89 be a4 09 00
	00		 mov	 DWORD PTR [esi+2468], edi
  00072	e8 00 00 00 00	 call	 ??1ccddaabb@@UAE@XZ	; ccddaabb::~ccddaabb
  00077	8d 8e 80 09 00
	00		 lea	 ecx, DWORD PTR [esi+2432]
  0007d	c6 45 fc 00	 mov	 BYTE PTR __$EHRec$[ebp+8], 0
  00081	c7 86 74 09 00
	00 00 00 00 00	 mov	 DWORD PTR [esi+2420], OFFSET ??_7?$CEncrypt@H@@6B@
  0008b	e8 00 00 00 00	 call	 ??1ccddaabb@@UAE@XZ	; ccddaabb::~ccddaabb
  00090	83 4d fc ff	 or	 DWORD PTR __$EHRec$[ebp+8], -1
  00094	8b ce		 mov	 ecx, esi
  00096	e8 00 00 00 00	 call	 ??1ioBuff@@UAE@XZ	; ioBuff::~ioBuff
  0009b	e8 00 00 00 00	 call	 __EH_epilog3
  000a0	c3		 ret	 0
_TEXT	ENDS
;	COMDAT text$x
text$x	SEGMENT
__unwindfunclet$??1ioSpeedAccumlateBuff@@UAE@XZ$0:
  00000	8b 4d f0	 mov	 ecx, DWORD PTR _this$[ebp]
  00003	e9 00 00 00 00	 jmp	 ??1ioBuff@@UAE@XZ	; ioBuff::~ioBuff
__unwindfunclet$??1ioSpeedAccumlateBuff@@UAE@XZ$1:
  00008	8b 4d f0	 mov	 ecx, DWORD PTR _this$[ebp]
  0000b	81 c1 74 09 00
	00		 add	 ecx, 2420		; 00000974H
  00011	e9 00 00 00 00	 jmp	 ??1?$CEncrypt@H@@UAE@XZ	; CEncrypt<int>::~CEncrypt<int>
__unwindfunclet$??1ioSpeedAccumlateBuff@@UAE@XZ$2:
  00016	8b 4d f0	 mov	 ecx, DWORD PTR _this$[ebp]
  00019	81 c1 a4 09 00
	00		 add	 ecx, 2468		; 000009a4H
  0001f	e9 00 00 00 00	 jmp	 ??1?$CEncrypt@K@@UAE@XZ	; CEncrypt<unsigned long>::~CEncrypt<unsigned long>
__unwindfunclet$??1ioSpeedAccumlateBuff@@UAE@XZ$3:
  00024	8b 4d f0	 mov	 ecx, DWORD PTR _this$[ebp]
  00027	81 c1 d4 09 00
	00		 add	 ecx, 2516		; 000009d4H
  0002d	e9 00 00 00 00	 jmp	 ??1?$CEncrypt@K@@UAE@XZ	; CEncrypt<unsigned long>::~CEncrypt<unsigned long>
__unwindfunclet$??1ioSpeedAccumlateBuff@@UAE@XZ$4:
  00032	8b 4d f0	 mov	 ecx, DWORD PTR _this$[ebp]
  00035	81 c1 04 0a 00
	00		 add	 ecx, 2564		; 00000a04H
  0003b	e9 00 00 00 00	 jmp	 ??1?$CEncrypt@K@@UAE@XZ	; CEncrypt<unsigned long>::~CEncrypt<unsigned long>
__ehhandler$??1ioSpeedAccumlateBuff@@UAE@XZ:
  00040	8b 54 24 08	 mov	 edx, DWORD PTR [esp+8]
  00044	8d 42 0c	 lea	 eax, DWORD PTR [edx+12]
  00047	8b 4a ec	 mov	 ecx, DWORD PTR [edx-20]
  0004a	33 c8		 xor	 ecx, eax
  0004c	e8 00 00 00 00	 call	 @__security_check_cookie@4
  00051	b8 00 00 00 00	 mov	 eax, OFFSET __ehfuncinfo$??1ioSpeedAccumlateBuff@@UAE@XZ
  00056	e9 00 00 00 00	 jmp	 ___CxxFrameHandler3
text$x	ENDS
??1ioSpeedAccumlateBuff@@UAE@XZ ENDP			; ioSpeedAccumlateBuff::~ioSpeedAccumlateBuff
; Function compile flags: /Ogsp
; File d:\lost saga for developer\youtube\tutorial\source\src\lsclient\iobuff.h
;	COMDAT ?IsWaitSelfRemove@ioBuff@@UAE_NXZ
_TEXT	SEGMENT
?IsWaitSelfRemove@ioBuff@@UAE_NXZ PROC			; ioBuff::IsWaitSelfRemove, COMDAT
; _this$ = ecx

; 519  : 	virtual bool IsWaitSelfRemove() { return m_bWaitSelfRemove; }

  00000	8a 81 65 09 00
	00		 mov	 al, BYTE PTR [ecx+2405]
  00006	c3		 ret	 0
?IsWaitSelfRemove@ioBuff@@UAE_NXZ ENDP			; ioBuff::IsWaitSelfRemove
_TEXT	ENDS
PUBLIC	?CheckOwnerStateCheck@ioSpeedAccumlateBuff@@IAE_NXZ ; ioSpeedAccumlateBuff::CheckOwnerStateCheck
EXTRN	?SetReserveEndBuff@ioBuff@@QAEXXZ:PROC		; ioBuff::SetReserveEndBuff
EXTRN	?CheckUseBuffSkill@ioBaseChar@@QAEXABVioHashString@@_N@Z:PROC ; ioBaseChar::CheckUseBuffSkill
EXTRN	?SetState@ioBaseChar@@QAEXH_N@Z:PROC		; ioBaseChar::SetState
EXTRN	?IsApplyDownState@ioBaseChar@@QAE_N_N@Z:PROC	; ioBaseChar::IsApplyDownState
EXTRN	?IsFloatingState@ioBaseChar@@QBE_NXZ:PROC	; ioBaseChar::IsFloatingState
; Function compile flags: /Ogsp
; File d:\lost saga for developer\youtube\tutorial\source\src\lsclient\iospeedaccumlatebuff.cpp
;	COMDAT ?CheckOwnerStateCheck@ioSpeedAccumlateBuff@@IAE_NXZ
_TEXT	SEGMENT
?CheckOwnerStateCheck@ioSpeedAccumlateBuff@@IAE_NXZ PROC ; ioSpeedAccumlateBuff::CheckOwnerStateCheck, COMDAT
; _this$ = ecx

; 132  : {

  00000	53		 push	 ebx
  00001	56		 push	 esi
  00002	8b f1		 mov	 esi, ecx

; 133  : 	if( !m_pOwner ) return false;

  00004	8b 8e 74 02 00
	00		 mov	 ecx, DWORD PTR [esi+628]
  0000a	33 db		 xor	 ebx, ebx
  0000c	3b cb		 cmp	 ecx, ebx
  0000e	74 27		 je	 SHORT $LN2@CheckOwner

; 134  : 
; 135  : 	CharState eState = m_pOwner->GetState();

  00010	8a 81 10 03 00
	00		 mov	 al, BYTE PTR [ecx+784]

; 136  : 
; 137  : 	bool bDown = false;
; 138  : 	if( m_bDisableDownState )

  00016	38 9e 6c 09 00
	00		 cmp	 BYTE PTR [esi+2412], bl
  0001c	74 19		 je	 SHORT $LN2@CheckOwner

; 139  : 	{
; 140  : 		if( eState == CS_FROZEN && m_pOwner->GetBlowFrozenState() )

  0001e	3c 17		 cmp	 al, 23			; 00000017H
  00020	75 08		 jne	 SHORT $LN15@CheckOwner
  00022	38 99 c5 15 00
	00		 cmp	 BYTE PTR [ecx+5573], bl

; 141  : 			bDown = true;

  00028	eb 36		 jmp	 SHORT $LN29@CheckOwner
$LN15@CheckOwner:

; 142  : 		else if( eState == CS_BLOW_WOUNDED && !m_pOwner->IsFloatingState() )

  0002a	3c 0c		 cmp	 al, 12			; 0000000cH
  0002c	75 0e		 jne	 SHORT $LN13@CheckOwner
$LN31@CheckOwner:
  0002e	e8 00 00 00 00	 call	 ?IsFloatingState@ioBaseChar@@QBE_NXZ ; ioBaseChar::IsFloatingState
  00033	84 c0		 test	 al, al
  00035	74 2b		 je	 SHORT $LN3@CheckOwner
$LN2@CheckOwner:

; 165  : 		}
; 166  : 	}
; 167  : 
; 168  : 	return false;

  00037	32 c0		 xor	 al, al
$LN18@CheckOwner:
  00039	5e		 pop	 esi
  0003a	5b		 pop	 ebx

; 169  : }

  0003b	c3		 ret	 0
$LN13@CheckOwner:

; 143  : 			bDown = true;
; 144  : 		else if( eState == CS_BOUND_BLOW_WOUNDED && !m_pOwner->IsFloatingState() )

  0003c	3c 31		 cmp	 al, 49			; 00000031H

; 145  : 			bDown = true;

  0003e	74 ee		 je	 SHORT $LN31@CheckOwner

; 146  : 		else if( eState == CS_ETC_STATE && m_pOwner->IsApplyDownState(false) )

  00040	3c 0f		 cmp	 al, 15			; 0000000fH
  00042	75 0a		 jne	 SHORT $LN9@CheckOwner
  00044	53		 push	 ebx
  00045	e8 00 00 00 00	 call	 ?IsApplyDownState@ioBaseChar@@QAE_N_N@Z ; ioBaseChar::IsApplyDownState
  0004a	84 c0		 test	 al, al

; 147  : 			bDown = true;

  0004c	eb 12		 jmp	 SHORT $LN29@CheckOwner
$LN9@CheckOwner:

; 148  : 		else if( eState == CS_STOP_MOTION && m_pOwner->GetBlowStopMotionState() )

  0004e	3c 26		 cmp	 al, 38			; 00000026H

; 149  : 			bDown = true;

  00050	74 08		 je	 SHORT $LN30@CheckOwner

; 150  : 		else if( eState == CS_DROP_ZONE_DOWN )

  00052	3c 10		 cmp	 al, 16			; 00000010H

; 151  : 			bDown = true;

  00054	74 0c		 je	 SHORT $LN3@CheckOwner

; 152  : 		else if( eState == CS_ICE_STATE && m_pOwner->GetBlowStopMotionState() )

  00056	3c 3b		 cmp	 al, 59			; 0000003bH
  00058	75 dd		 jne	 SHORT $LN2@CheckOwner
$LN30@CheckOwner:
  0005a	38 99 c7 15 00
	00		 cmp	 BYTE PTR [ecx+5575], bl
$LN29@CheckOwner:
  00060	74 d5		 je	 SHORT $LN2@CheckOwner
$LN3@CheckOwner:

; 153  : 			bDown = true;
; 154  : 
; 155  : 		if( bDown )
; 156  : 		{
; 157  : 			if( CheckRestoreStateCheck() )

  00062	8b ce		 mov	 ecx, esi
  00064	e8 00 00 00 00	 call	 ?CheckRestoreStateCheck@ioSpeedAccumlateBuff@@IAE_NXZ ; ioSpeedAccumlateBuff::CheckRestoreStateCheck
  00069	84 c0		 test	 al, al
  0006b	74 14		 je	 SHORT $LN1@CheckOwner

; 158  : 			{
; 159  : 				m_pOwner->SetState( CS_DELAY, m_bSendDelayNetWork );

  0006d	0f b6 86 f9 08
	00 00		 movzx	 eax, BYTE PTR [esi+2297]
  00074	8b 8e 74 02 00
	00		 mov	 ecx, DWORD PTR [esi+628]
  0007a	50		 push	 eax
  0007b	53		 push	 ebx
  0007c	e8 00 00 00 00	 call	 ?SetState@ioBaseChar@@QAEXH_N@Z ; ioBaseChar::SetState
$LN1@CheckOwner:

; 160  : 			}
; 161  : 
; 162  : 			m_pOwner->CheckUseBuffSkill( m_Name, false );

  00081	8b 8e 74 02 00
	00		 mov	 ecx, DWORD PTR [esi+628]
  00087	53		 push	 ebx
  00088	8d 86 34 02 00
	00		 lea	 eax, DWORD PTR [esi+564]
  0008e	50		 push	 eax
  0008f	e8 00 00 00 00	 call	 ?CheckUseBuffSkill@ioBaseChar@@QAEXABVioHashString@@_N@Z ; ioBaseChar::CheckUseBuffSkill

; 163  : 			SetReserveEndBuff();

  00094	8b ce		 mov	 ecx, esi
  00096	e8 00 00 00 00	 call	 ?SetReserveEndBuff@ioBuff@@QAEXXZ ; ioBuff::SetReserveEndBuff

; 164  : 			return true;

  0009b	b0 01		 mov	 al, 1
  0009d	eb 9a		 jmp	 SHORT $LN18@CheckOwner
?CheckOwnerStateCheck@ioSpeedAccumlateBuff@@IAE_NXZ ENDP ; ioSpeedAccumlateBuff::CheckOwnerStateCheck
_TEXT	ENDS
PUBLIC	??M?$CEncrypt@M@@QAE_NABM@Z			; CEncrypt<float>::operator<
; Function compile flags: /Ogsp
; File d:\lost saga for developer\youtube\tutorial\source\src\lsclient\encryptvalue.h
;	COMDAT ??M?$CEncrypt@M@@QAE_NABM@Z
_TEXT	SEGMENT
_value$ = -4						; size = 4
_inValue$ = 8						; size = 4
??M?$CEncrypt@M@@QAE_NABM@Z PROC			; CEncrypt<float>::operator<, COMDAT
; _this$ = ecx

; 1791 : 	{

  00000	55		 push	 ebp
  00001	8b ec		 mov	 ebp, esp
  00003	51		 push	 ecx

; 1792 : 		type value;
; 1793 : 		DecryptValueToPool(&value);

  00004	8d 45 fc	 lea	 eax, DWORD PTR _value$[ebp]
  00007	50		 push	 eax
  00008	e8 00 00 00 00	 call	 ?DecryptValueToPool@?$CEncrypt@M@@QAEXPAM@Z ; CEncrypt<float>::DecryptValueToPool

; 1794 : #ifdef _NOTUSE
; 1795 : 		Debug();
; 1796 : #endif
; 1797 : 		return (value < inValue);

  0000d	8b 45 08	 mov	 eax, DWORD PTR _inValue$[ebp]
  00010	f3 0f 10 08	 movss	 xmm1, DWORD PTR [eax]
  00014	f3 0f 10 45 fc	 movss	 xmm0, DWORD PTR _value$[ebp]
  00019	0f 5a c0	 cvtps2pd xmm0, xmm0
  0001c	0f 5a c9	 cvtps2pd xmm1, xmm1
  0001f	33 c0		 xor	 eax, eax
  00021	66 0f 2f c8	 comisd	 xmm1, xmm0
  00025	76 01		 jbe	 SHORT $LN4@operator
  00027	40		 inc	 eax
$LN4@operator:

; 1798 : 	} 

  00028	c9		 leave
  00029	c2 04 00	 ret	 4
??M?$CEncrypt@M@@QAE_NABM@Z ENDP			; CEncrypt<float>::operator<
_TEXT	ENDS
PUBLIC	??Y?$CEncrypt@K@@QAEAAKABK@Z			; CEncrypt<unsigned long>::operator+=
; Function compile flags: /Ogsp
;	COMDAT ??Y?$CEncrypt@K@@QAEAAKABK@Z
_TEXT	SEGMENT
_value$ = -4						; size = 4
_inValue$ = 8						; size = 4
??Y?$CEncrypt@K@@QAEAAKABK@Z PROC			; CEncrypt<unsigned long>::operator+=, COMDAT
; _this$ = ecx

; 1325 : 	{

  00000	55		 push	 ebp
  00001	8b ec		 mov	 ebp, esp
  00003	51		 push	 ecx
  00004	56		 push	 esi

; 1326 : 		type value;
; 1327 : 		DecryptValueToPool(&value);

  00005	8d 45 fc	 lea	 eax, DWORD PTR _value$[ebp]
  00008	50		 push	 eax
  00009	8b f1		 mov	 esi, ecx
  0000b	e8 00 00 00 00	 call	 ?DecryptValueToPool@?$CEncrypt@K@@QAEXPAK@Z ; CEncrypt<unsigned long>::DecryptValueToPool

; 1328 : 		value += inValue;

  00010	8b 45 08	 mov	 eax, DWORD PTR _inValue$[ebp]
  00013	8b 00		 mov	 eax, DWORD PTR [eax]
  00015	01 45 fc	 add	 DWORD PTR _value$[ebp], eax

; 1329 : 		EncryptValueToPool((char*)&value);

  00018	8d 45 fc	 lea	 eax, DWORD PTR _value$[ebp]
  0001b	50		 push	 eax
  0001c	8b ce		 mov	 ecx, esi
  0001e	e8 00 00 00 00	 call	 ?EncryptValueToPool@?$CEncrypt@K@@AAEXPBD@Z ; CEncrypt<unsigned long>::EncryptValueToPool

; 1330 : #ifdef _NOTUSE
; 1331 : 		m_value += inValue;
; 1332 : 		Debug();
; 1333 : #endif
; 1334 : 		return value;

  00023	8d 45 fc	 lea	 eax, DWORD PTR _value$[ebp]
  00026	5e		 pop	 esi

; 1335 : 	} 

  00027	c9		 leave
  00028	c2 04 00	 ret	 4
??Y?$CEncrypt@K@@QAEAAKABK@Z ENDP			; CEncrypt<unsigned long>::operator+=
_TEXT	ENDS
PUBLIC	??N?$CEncrypt@K@@QAE_NABK@Z			; CEncrypt<unsigned long>::operator<=
; Function compile flags: /Ogsp
;	COMDAT ??N?$CEncrypt@K@@QAE_NABK@Z
_TEXT	SEGMENT
_value$ = -4						; size = 4
_inValue$ = 8						; size = 4
??N?$CEncrypt@K@@QAE_NABK@Z PROC			; CEncrypt<unsigned long>::operator<=, COMDAT
; _this$ = ecx

; 1431 : 	{

  00000	55		 push	 ebp
  00001	8b ec		 mov	 ebp, esp
  00003	51		 push	 ecx

; 1432 : 		
; 1433 : 		type value;
; 1434 : 		DecryptValueToPool(&value);

  00004	8d 45 fc	 lea	 eax, DWORD PTR _value$[ebp]
  00007	50		 push	 eax
  00008	e8 00 00 00 00	 call	 ?DecryptValueToPool@?$CEncrypt@K@@QAEXPAK@Z ; CEncrypt<unsigned long>::DecryptValueToPool

; 1435 : #ifdef _NOTUSE
; 1436 : 		Debug();
; 1437 : #endif
; 1438 : 		return (value <= inValue);

  0000d	8b 45 08	 mov	 eax, DWORD PTR _inValue$[ebp]
  00010	8b 00		 mov	 eax, DWORD PTR [eax]
  00012	3b 45 fc	 cmp	 eax, DWORD PTR _value$[ebp]
  00015	1b c0		 sbb	 eax, eax
  00017	40		 inc	 eax

; 1439 : 	}		

  00018	c9		 leave
  00019	c2 04 00	 ret	 4
??N?$CEncrypt@K@@QAE_NABK@Z ENDP			; CEncrypt<unsigned long>::operator<=
_TEXT	ENDS
PUBLIC	__$ArrayPad$
PUBLIC	??$LoadBool_e@$0BD@@ioINILoader@@QAE_NAAY0BD@$$CBD_N@Z ; ioINILoader::LoadBool_e<19>
EXTRN	__imp_?LoadBool@ioINILoader@@QAE_NPBD_N@Z:PROC
EXTRN	___security_cookie:DWORD
; Function compile flags: /Ogsp
; File d:\lost saga for developer\youtube\tutorial\source\src\io3dengine\ioiniloader.h
;	COMDAT ??$LoadBool_e@$0BD@@ioINILoader@@QAE_NAAY0BD@$$CBD_N@Z
_TEXT	SEGMENT
__k$ = -28						; size = 19
__$ArrayPad$ = -4					; size = 4
_k$ = 8							; size = 4
_b$ = 12						; size = 1
??$LoadBool_e@$0BD@@ioINILoader@@QAE_NAAY0BD@$$CBD_N@Z PROC ; ioINILoader::LoadBool_e<19>, COMDAT
; _this$ = ecx

; 101  : 	{

  00000	55		 push	 ebp
  00001	8b ec		 mov	 ebp, esp
  00003	83 ec 1c	 sub	 esp, 28			; 0000001cH
  00006	a1 00 00 00 00	 mov	 eax, DWORD PTR ___security_cookie
  0000b	33 c5		 xor	 eax, ebp
  0000d	89 45 fc	 mov	 DWORD PTR __$ArrayPad$[ebp], eax
  00010	8b 45 08	 mov	 eax, DWORD PTR _k$[ebp]

; 102  : 		_ENCSTR(k, _k);

  00013	8a 10		 mov	 dl, BYTE PTR [eax]
  00015	56		 push	 esi
  00016	8b f1		 mov	 esi, ecx
  00018	84 d2		 test	 dl, dl
  0001a	0f 84 cf 01 00
	00		 je	 $LN96@LoadBool_e
  00020	80 f2 ed	 xor	 dl, -19			; ffffffedH
  00023	88 55 e4	 mov	 BYTE PTR __k$[ebp], dl
  00026	8a 50 01	 mov	 dl, BYTE PTR [eax+1]
  00029	84 d2		 test	 dl, dl
  0002b	0f 84 b8 01 00
	00		 je	 $LN95@LoadBool_e
  00031	b1 ec		 mov	 cl, -20			; ffffffecH
  00033	32 d1		 xor	 dl, cl
  00035	88 55 e5	 mov	 BYTE PTR __k$[ebp+1], dl
  00038	8a 50 02	 mov	 dl, BYTE PTR [eax+2]
  0003b	84 d2		 test	 dl, dl
  0003d	0f 84 a0 01 00
	00		 je	 $LN94@LoadBool_e
  00043	80 f2 eb	 xor	 dl, -21			; ffffffebH
  00046	88 55 e6	 mov	 BYTE PTR __k$[ebp+2], dl
  00049	8a 50 03	 mov	 dl, BYTE PTR [eax+3]
  0004c	84 d2		 test	 dl, dl
  0004e	0f 84 89 01 00
	00		 je	 $LN93@LoadBool_e
  00054	80 f2 ea	 xor	 dl, -22			; ffffffeaH
  00057	88 55 e7	 mov	 BYTE PTR __k$[ebp+3], dl
  0005a	8a 50 04	 mov	 dl, BYTE PTR [eax+4]
  0005d	84 d2		 test	 dl, dl
  0005f	0f 84 72 01 00
	00		 je	 $LN92@LoadBool_e
  00065	80 f2 ed	 xor	 dl, -19			; ffffffedH
  00068	88 55 e8	 mov	 BYTE PTR __k$[ebp+4], dl
  0006b	8a 50 05	 mov	 dl, BYTE PTR [eax+5]
  0006e	84 d2		 test	 dl, dl
  00070	0f 84 5c 01 00
	00		 je	 $LN91@LoadBool_e
  00076	32 d1		 xor	 dl, cl
  00078	88 55 e9	 mov	 BYTE PTR __k$[ebp+5], dl
  0007b	8a 50 06	 mov	 dl, BYTE PTR [eax+6]
  0007e	84 d2		 test	 dl, dl
  00080	0f 84 46 01 00
	00		 je	 $LN90@LoadBool_e
  00086	80 f2 eb	 xor	 dl, -21			; ffffffebH
  00089	88 55 ea	 mov	 BYTE PTR __k$[ebp+6], dl
  0008c	8a 50 07	 mov	 dl, BYTE PTR [eax+7]
  0008f	84 d2		 test	 dl, dl
  00091	0f 84 2f 01 00
	00		 je	 $LN89@LoadBool_e
  00097	80 f2 ea	 xor	 dl, -22			; ffffffeaH
  0009a	88 55 eb	 mov	 BYTE PTR __k$[ebp+7], dl
  0009d	8a 50 08	 mov	 dl, BYTE PTR [eax+8]
  000a0	84 d2		 test	 dl, dl
  000a2	0f 84 18 01 00
	00		 je	 $LN88@LoadBool_e
  000a8	80 f2 ed	 xor	 dl, -19			; ffffffedH
  000ab	88 55 ec	 mov	 BYTE PTR __k$[ebp+8], dl
  000ae	8a 50 09	 mov	 dl, BYTE PTR [eax+9]
  000b1	84 d2		 test	 dl, dl
  000b3	0f 84 02 01 00
	00		 je	 $LN87@LoadBool_e
  000b9	32 d1		 xor	 dl, cl
  000bb	88 55 ed	 mov	 BYTE PTR __k$[ebp+9], dl
  000be	8a 50 0a	 mov	 dl, BYTE PTR [eax+10]
  000c1	84 d2		 test	 dl, dl
  000c3	0f 84 ec 00 00
	00		 je	 $LN86@LoadBool_e
  000c9	80 f2 eb	 xor	 dl, -21			; ffffffebH
  000cc	88 55 ee	 mov	 BYTE PTR __k$[ebp+10], dl
  000cf	8a 50 0b	 mov	 dl, BYTE PTR [eax+11]
  000d2	84 d2		 test	 dl, dl
  000d4	0f 84 d5 00 00
	00		 je	 $LN85@LoadBool_e
  000da	80 f2 ea	 xor	 dl, -22			; ffffffeaH
  000dd	88 55 ef	 mov	 BYTE PTR __k$[ebp+11], dl
  000e0	8a 50 0c	 mov	 dl, BYTE PTR [eax+12]
  000e3	84 d2		 test	 dl, dl
  000e5	0f 84 be 00 00
	00		 je	 $LN84@LoadBool_e
  000eb	80 f2 ed	 xor	 dl, -19			; ffffffedH
  000ee	88 55 f0	 mov	 BYTE PTR __k$[ebp+12], dl
  000f1	8a 50 0d	 mov	 dl, BYTE PTR [eax+13]
  000f4	84 d2		 test	 dl, dl
  000f6	0f 84 a8 00 00
	00		 je	 $LN83@LoadBool_e
  000fc	32 d1		 xor	 dl, cl
  000fe	88 55 f1	 mov	 BYTE PTR __k$[ebp+13], dl
  00101	8a 50 0e	 mov	 dl, BYTE PTR [eax+14]
  00104	84 d2		 test	 dl, dl
  00106	0f 84 92 00 00
	00		 je	 $LN82@LoadBool_e
  0010c	80 f2 eb	 xor	 dl, -21			; ffffffebH
  0010f	88 55 f2	 mov	 BYTE PTR __k$[ebp+14], dl
  00112	8a 50 0f	 mov	 dl, BYTE PTR [eax+15]
  00115	84 d2		 test	 dl, dl
  00117	74 7f		 je	 SHORT $LN81@LoadBool_e
  00119	80 f2 ea	 xor	 dl, -22			; ffffffeaH
  0011c	88 55 f3	 mov	 BYTE PTR __k$[ebp+15], dl
  0011f	8a 50 10	 mov	 dl, BYTE PTR [eax+16]
  00122	84 d2		 test	 dl, dl
  00124	74 6c		 je	 SHORT $LN80@LoadBool_e
  00126	80 f2 ed	 xor	 dl, -19			; ffffffedH
  00129	88 55 f4	 mov	 BYTE PTR __k$[ebp+16], dl
  0012c	8a 50 11	 mov	 dl, BYTE PTR [eax+17]
  0012f	84 d2		 test	 dl, dl
  00131	74 5a		 je	 SHORT $LN79@LoadBool_e
  00133	32 d1		 xor	 dl, cl
  00135	80 78 12 00	 cmp	 BYTE PTR [eax+18], 0
  00139	88 55 f5	 mov	 BYTE PTR __k$[ebp+17], dl
  0013c	0f 84 b1 00 00
	00		 je	 $LN1@LoadBool_e
  00142	8a 50 13	 mov	 dl, BYTE PTR [eax+19]
  00145	84 d2		 test	 dl, dl
  00147	74 3e		 je	 SHORT $LN77@LoadBool_e
  00149	80 f2 ea	 xor	 dl, -22			; ffffffeaH
  0014c	88 55 f7	 mov	 BYTE PTR __k$[ebp+19], dl
  0014f	8a 50 14	 mov	 dl, BYTE PTR [eax+20]
  00152	84 d2		 test	 dl, dl
  00154	74 2b		 je	 SHORT $LN76@LoadBool_e
  00156	80 f2 ed	 xor	 dl, -19			; ffffffedH
  00159	88 55 f8	 mov	 BYTE PTR __k$[ebp+20], dl
  0015c	8a 50 15	 mov	 dl, BYTE PTR [eax+21]
  0015f	84 d2		 test	 dl, dl
  00161	74 19		 je	 SHORT $LN75@LoadBool_e
  00163	8a 40 16	 mov	 al, BYTE PTR [eax+22]
  00166	32 d1		 xor	 dl, cl
  00168	88 55 f9	 mov	 BYTE PTR __k$[ebp+21], dl
  0016b	84 c0		 test	 al, al
  0016d	74 07		 je	 SHORT $LN74@LoadBool_e
  0016f	34 eb		 xor	 al, -21			; ffffffebH
  00171	88 45 fa	 mov	 BYTE PTR __k$[ebp+22], al
  00174	eb 7d		 jmp	 SHORT $LN1@LoadBool_e
$LN74@LoadBool_e:
  00176	c6 45 fa eb	 mov	 BYTE PTR __k$[ebp+22], -21 ; ffffffebH
  0017a	eb 77		 jmp	 SHORT $LN1@LoadBool_e
$LN75@LoadBool_e:
  0017c	88 4d f9	 mov	 BYTE PTR __k$[ebp+21], cl
  0017f	eb 72		 jmp	 SHORT $LN1@LoadBool_e
$LN76@LoadBool_e:
  00181	c6 45 f8 ed	 mov	 BYTE PTR __k$[ebp+20], -19 ; ffffffedH
  00185	eb 6c		 jmp	 SHORT $LN1@LoadBool_e
$LN77@LoadBool_e:
  00187	c6 45 f7 ea	 mov	 BYTE PTR __k$[ebp+19], -22 ; ffffffeaH
  0018b	eb 66		 jmp	 SHORT $LN1@LoadBool_e
$LN79@LoadBool_e:
  0018d	88 4d f5	 mov	 BYTE PTR __k$[ebp+17], cl
  00190	eb 61		 jmp	 SHORT $LN1@LoadBool_e
$LN80@LoadBool_e:
  00192	c6 45 f4 ed	 mov	 BYTE PTR __k$[ebp+16], -19 ; ffffffedH
  00196	eb 5b		 jmp	 SHORT $LN1@LoadBool_e
$LN81@LoadBool_e:
  00198	c6 45 f3 ea	 mov	 BYTE PTR __k$[ebp+15], -22 ; ffffffeaH
  0019c	eb 55		 jmp	 SHORT $LN1@LoadBool_e
$LN82@LoadBool_e:
  0019e	c6 45 f2 eb	 mov	 BYTE PTR __k$[ebp+14], -21 ; ffffffebH
  001a2	eb 4f		 jmp	 SHORT $LN1@LoadBool_e
$LN83@LoadBool_e:
  001a4	88 4d f1	 mov	 BYTE PTR __k$[ebp+13], cl
  001a7	eb 4a		 jmp	 SHORT $LN1@LoadBool_e
$LN84@LoadBool_e:
  001a9	c6 45 f0 ed	 mov	 BYTE PTR __k$[ebp+12], -19 ; ffffffedH
  001ad	eb 44		 jmp	 SHORT $LN1@LoadBool_e
$LN85@LoadBool_e:
  001af	c6 45 ef ea	 mov	 BYTE PTR __k$[ebp+11], -22 ; ffffffeaH
  001b3	eb 3e		 jmp	 SHORT $LN1@LoadBool_e
$LN86@LoadBool_e:
  001b5	c6 45 ee eb	 mov	 BYTE PTR __k$[ebp+10], -21 ; ffffffebH
  001b9	eb 38		 jmp	 SHORT $LN1@LoadBool_e
$LN87@LoadBool_e:
  001bb	88 4d ed	 mov	 BYTE PTR __k$[ebp+9], cl
  001be	eb 33		 jmp	 SHORT $LN1@LoadBool_e
$LN88@LoadBool_e:
  001c0	c6 45 ec ed	 mov	 BYTE PTR __k$[ebp+8], -19 ; ffffffedH
  001c4	eb 2d		 jmp	 SHORT $LN1@LoadBool_e
$LN89@LoadBool_e:
  001c6	c6 45 eb ea	 mov	 BYTE PTR __k$[ebp+7], -22 ; ffffffeaH
  001ca	eb 27		 jmp	 SHORT $LN1@LoadBool_e
$LN90@LoadBool_e:
  001cc	c6 45 ea eb	 mov	 BYTE PTR __k$[ebp+6], -21 ; ffffffebH
  001d0	eb 21		 jmp	 SHORT $LN1@LoadBool_e
$LN91@LoadBool_e:
  001d2	88 4d e9	 mov	 BYTE PTR __k$[ebp+5], cl
  001d5	eb 1c		 jmp	 SHORT $LN1@LoadBool_e
$LN92@LoadBool_e:
  001d7	c6 45 e8 ed	 mov	 BYTE PTR __k$[ebp+4], -19 ; ffffffedH
  001db	eb 16		 jmp	 SHORT $LN1@LoadBool_e
$LN93@LoadBool_e:
  001dd	c6 45 e7 ea	 mov	 BYTE PTR __k$[ebp+3], -22 ; ffffffeaH
  001e1	eb 10		 jmp	 SHORT $LN1@LoadBool_e
$LN94@LoadBool_e:
  001e3	c6 45 e6 eb	 mov	 BYTE PTR __k$[ebp+2], -21 ; ffffffebH
  001e7	eb 0a		 jmp	 SHORT $LN1@LoadBool_e
$LN95@LoadBool_e:
  001e9	c6 45 e5 ec	 mov	 BYTE PTR __k$[ebp+1], -20 ; ffffffecH
  001ed	eb 04		 jmp	 SHORT $LN1@LoadBool_e
$LN96@LoadBool_e:
  001ef	c6 45 e4 ed	 mov	 BYTE PTR __k$[ebp], -19	; ffffffedH
$LN1@LoadBool_e:
  001f3	6a 04		 push	 4
  001f5	8d 45 e4	 lea	 eax, DWORD PTR __k$[ebp]
  001f8	c6 45 f6 00	 mov	 BYTE PTR __k$[ebp+18], 0
  001fc	5a		 pop	 edx
$LL104@LoadBool_e:
  001fd	81 30 ed ec eb
	ea		 xor	 DWORD PTR [eax], -353637139 ; eaebecedH
  00203	83 c0 04	 add	 eax, 4
  00206	4a		 dec	 edx
  00207	75 f4		 jne	 SHORT $LL104@LoadBool_e
  00209	6a 10		 push	 16			; 00000010H
  0020b	58		 pop	 eax
$LL101@LoadBool_e:
  0020c	8b c8		 mov	 ecx, eax
  0020e	81 e1 03 00 00
	80		 and	 ecx, -2147483645	; 80000003H
  00214	79 05		 jns	 SHORT $LN111@LoadBool_e
  00216	49		 dec	 ecx
  00217	83 c9 fc	 or	 ecx, -4			; fffffffcH
  0021a	41		 inc	 ecx
$LN111@LoadBool_e:
  0021b	b2 ed		 mov	 dl, -19			; ffffffedH
  0021d	2a d1		 sub	 dl, cl
  0021f	30 54 05 e4	 xor	 BYTE PTR __k$[ebp+eax], dl
  00223	40		 inc	 eax
  00224	83 f8 12	 cmp	 eax, 18			; 00000012H
  00227	7c e3		 jl	 SHORT $LL101@LoadBool_e

; 103  : 		return LoadBool(_k, b);

  00229	ff 75 0c	 push	 DWORD PTR _b$[ebp]
  0022c	8d 45 e4	 lea	 eax, DWORD PTR __k$[ebp]
  0022f	50		 push	 eax
  00230	8b ce		 mov	 ecx, esi
  00232	ff 15 00 00 00
	00		 call	 DWORD PTR __imp_?LoadBool@ioINILoader@@QAE_NPBD_N@Z

; 104  : 	}

  00238	8b 4d fc	 mov	 ecx, DWORD PTR __$ArrayPad$[ebp]
  0023b	33 cd		 xor	 ecx, ebp
  0023d	5e		 pop	 esi
  0023e	e8 00 00 00 00	 call	 @__security_check_cookie@4
  00243	c9		 leave
  00244	c2 08 00	 ret	 8
??$LoadBool_e@$0BD@@ioINILoader@@QAE_NAAY0BD@$$CBD_N@Z ENDP ; ioINILoader::LoadBool_e<19>
_TEXT	ENDS
PUBLIC	__$ArrayPad$
PUBLIC	??$LoadBool_e@$0BG@@ioINILoader@@QAE_NAAY0BG@$$CBD_N@Z ; ioINILoader::LoadBool_e<22>
; Function compile flags: /Ogsp
;	COMDAT ??$LoadBool_e@$0BG@@ioINILoader@@QAE_NAAY0BG@$$CBD_N@Z
_TEXT	SEGMENT
__k$ = -32						; size = 22
__$ArrayPad$ = -4					; size = 4
_k$ = 8							; size = 4
_b$ = 12						; size = 1
??$LoadBool_e@$0BG@@ioINILoader@@QAE_NAAY0BG@$$CBD_N@Z PROC ; ioINILoader::LoadBool_e<22>, COMDAT
; _this$ = ecx

; 101  : 	{

  00000	55		 push	 ebp
  00001	8b ec		 mov	 ebp, esp
  00003	83 ec 20	 sub	 esp, 32			; 00000020H
  00006	a1 00 00 00 00	 mov	 eax, DWORD PTR ___security_cookie
  0000b	33 c5		 xor	 eax, ebp
  0000d	89 45 fc	 mov	 DWORD PTR __$ArrayPad$[ebp], eax
  00010	8b 45 08	 mov	 eax, DWORD PTR _k$[ebp]

; 102  : 		_ENCSTR(k, _k);

  00013	8a 10		 mov	 dl, BYTE PTR [eax]
  00015	53		 push	 ebx
  00016	56		 push	 esi
  00017	8b f1		 mov	 esi, ecx
  00019	84 d2		 test	 dl, dl
  0001b	0f 84 15 02 00
	00		 je	 $LN96@LoadBool_e@2
  00021	80 f2 ed	 xor	 dl, -19			; ffffffedH
  00024	88 55 e0	 mov	 BYTE PTR __k$[ebp], dl
  00027	8a 50 01	 mov	 dl, BYTE PTR [eax+1]
  0002a	84 d2		 test	 dl, dl
  0002c	0f 84 fe 01 00
	00		 je	 $LN95@LoadBool_e@2
  00032	80 f2 ec	 xor	 dl, -20			; ffffffecH
  00035	88 55 e1	 mov	 BYTE PTR __k$[ebp+1], dl
  00038	8a 50 02	 mov	 dl, BYTE PTR [eax+2]
  0003b	84 d2		 test	 dl, dl
  0003d	0f 84 e7 01 00
	00		 je	 $LN94@LoadBool_e@2
  00043	b1 eb		 mov	 cl, -21			; ffffffebH
  00045	32 d1		 xor	 dl, cl
  00047	88 55 e2	 mov	 BYTE PTR __k$[ebp+2], dl
  0004a	8a 50 03	 mov	 dl, BYTE PTR [eax+3]
  0004d	84 d2		 test	 dl, dl
  0004f	0f 84 cf 01 00
	00		 je	 $LN93@LoadBool_e@2
  00055	b3 ea		 mov	 bl, -22			; ffffffeaH
  00057	32 d3		 xor	 dl, bl
  00059	88 55 e3	 mov	 BYTE PTR __k$[ebp+3], dl
  0005c	8a 50 04	 mov	 dl, BYTE PTR [eax+4]
  0005f	84 d2		 test	 dl, dl
  00061	0f 84 b7 01 00
	00		 je	 $LN92@LoadBool_e@2
  00067	80 f2 ed	 xor	 dl, -19			; ffffffedH
  0006a	88 55 e4	 mov	 BYTE PTR __k$[ebp+4], dl
  0006d	8a 50 05	 mov	 dl, BYTE PTR [eax+5]
  00070	84 d2		 test	 dl, dl
  00072	0f 84 a0 01 00
	00		 je	 $LN91@LoadBool_e@2
  00078	80 f2 ec	 xor	 dl, -20			; ffffffecH
  0007b	88 55 e5	 mov	 BYTE PTR __k$[ebp+5], dl
  0007e	8a 50 06	 mov	 dl, BYTE PTR [eax+6]
  00081	84 d2		 test	 dl, dl
  00083	0f 84 8a 01 00
	00		 je	 $LN90@LoadBool_e@2
  00089	32 d1		 xor	 dl, cl
  0008b	88 55 e6	 mov	 BYTE PTR __k$[ebp+6], dl
  0008e	8a 50 07	 mov	 dl, BYTE PTR [eax+7]
  00091	84 d2		 test	 dl, dl
  00093	0f 84 75 01 00
	00		 je	 $LN89@LoadBool_e@2
  00099	32 d3		 xor	 dl, bl
  0009b	88 55 e7	 mov	 BYTE PTR __k$[ebp+7], dl
  0009e	8a 50 08	 mov	 dl, BYTE PTR [eax+8]
  000a1	84 d2		 test	 dl, dl
  000a3	0f 84 5f 01 00
	00		 je	 $LN88@LoadBool_e@2
  000a9	80 f2 ed	 xor	 dl, -19			; ffffffedH
  000ac	88 55 e8	 mov	 BYTE PTR __k$[ebp+8], dl
  000af	8a 50 09	 mov	 dl, BYTE PTR [eax+9]
  000b2	84 d2		 test	 dl, dl
  000b4	0f 84 48 01 00
	00		 je	 $LN87@LoadBool_e@2
  000ba	80 f2 ec	 xor	 dl, -20			; ffffffecH
  000bd	88 55 e9	 mov	 BYTE PTR __k$[ebp+9], dl
  000c0	8a 50 0a	 mov	 dl, BYTE PTR [eax+10]
  000c3	84 d2		 test	 dl, dl
  000c5	0f 84 32 01 00
	00		 je	 $LN86@LoadBool_e@2
  000cb	32 d1		 xor	 dl, cl
  000cd	88 55 ea	 mov	 BYTE PTR __k$[ebp+10], dl
  000d0	8a 50 0b	 mov	 dl, BYTE PTR [eax+11]
  000d3	84 d2		 test	 dl, dl
  000d5	0f 84 1d 01 00
	00		 je	 $LN85@LoadBool_e@2
  000db	32 d3		 xor	 dl, bl
  000dd	88 55 eb	 mov	 BYTE PTR __k$[ebp+11], dl
  000e0	8a 50 0c	 mov	 dl, BYTE PTR [eax+12]
  000e3	84 d2		 test	 dl, dl
  000e5	0f 84 07 01 00
	00		 je	 $LN84@LoadBool_e@2
  000eb	80 f2 ed	 xor	 dl, -19			; ffffffedH
  000ee	88 55 ec	 mov	 BYTE PTR __k$[ebp+12], dl
  000f1	8a 50 0d	 mov	 dl, BYTE PTR [eax+13]
  000f4	84 d2		 test	 dl, dl
  000f6	0f 84 f0 00 00
	00		 je	 $LN83@LoadBool_e@2
  000fc	80 f2 ec	 xor	 dl, -20			; ffffffecH
  000ff	88 55 ed	 mov	 BYTE PTR __k$[ebp+13], dl
  00102	8a 50 0e	 mov	 dl, BYTE PTR [eax+14]
  00105	84 d2		 test	 dl, dl
  00107	0f 84 da 00 00
	00		 je	 $LN82@LoadBool_e@2
  0010d	32 d1		 xor	 dl, cl
  0010f	88 55 ee	 mov	 BYTE PTR __k$[ebp+14], dl
  00112	8a 50 0f	 mov	 dl, BYTE PTR [eax+15]
  00115	84 d2		 test	 dl, dl
  00117	0f 84 c5 00 00
	00		 je	 $LN81@LoadBool_e@2
  0011d	32 d3		 xor	 dl, bl
  0011f	88 55 ef	 mov	 BYTE PTR __k$[ebp+15], dl
  00122	8a 50 10	 mov	 dl, BYTE PTR [eax+16]
  00125	84 d2		 test	 dl, dl
  00127	0f 84 af 00 00
	00		 je	 $LN80@LoadBool_e@2
  0012d	80 f2 ed	 xor	 dl, -19			; ffffffedH
  00130	88 55 f0	 mov	 BYTE PTR __k$[ebp+16], dl
  00133	8a 50 11	 mov	 dl, BYTE PTR [eax+17]
  00136	84 d2		 test	 dl, dl
  00138	0f 84 98 00 00
	00		 je	 $LN79@LoadBool_e@2
  0013e	80 f2 ec	 xor	 dl, -20			; ffffffecH
  00141	88 55 f1	 mov	 BYTE PTR __k$[ebp+17], dl
  00144	8a 50 12	 mov	 dl, BYTE PTR [eax+18]
  00147	84 d2		 test	 dl, dl
  00149	0f 84 82 00 00
	00		 je	 $LN78@LoadBool_e@2
  0014f	32 d1		 xor	 dl, cl
  00151	88 55 f2	 mov	 BYTE PTR __k$[ebp+18], dl
  00154	8a 50 13	 mov	 dl, BYTE PTR [eax+19]
  00157	84 d2		 test	 dl, dl
  00159	74 71		 je	 SHORT $LN77@LoadBool_e@2
  0015b	32 d3		 xor	 dl, bl
  0015d	88 55 f3	 mov	 BYTE PTR __k$[ebp+19], dl
  00160	8a 50 14	 mov	 dl, BYTE PTR [eax+20]
  00163	84 d2		 test	 dl, dl
  00165	74 5f		 je	 SHORT $LN76@LoadBool_e@2
  00167	80 f2 ed	 xor	 dl, -19			; ffffffedH
  0016a	80 78 15 00	 cmp	 BYTE PTR [eax+21], 0
  0016e	88 55 f4	 mov	 BYTE PTR __k$[ebp+20], dl
  00171	0f 84 c3 00 00
	00		 je	 $LN1@LoadBool_e@2
  00177	8a 50 16	 mov	 dl, BYTE PTR [eax+22]
  0017a	84 d2		 test	 dl, dl
  0017c	74 43		 je	 SHORT $LN74@LoadBool_e@2
  0017e	32 d1		 xor	 dl, cl
  00180	88 55 f6	 mov	 BYTE PTR __k$[ebp+22], dl
  00183	8a 50 17	 mov	 dl, BYTE PTR [eax+23]
  00186	84 d2		 test	 dl, dl
  00188	74 32		 je	 SHORT $LN73@LoadBool_e@2
  0018a	32 d3		 xor	 dl, bl
  0018c	88 55 f7	 mov	 BYTE PTR __k$[ebp+23], dl
  0018f	8a 50 18	 mov	 dl, BYTE PTR [eax+24]
  00192	84 d2		 test	 dl, dl
  00194	74 20		 je	 SHORT $LN72@LoadBool_e@2
  00196	8a 40 19	 mov	 al, BYTE PTR [eax+25]
  00199	80 f2 ed	 xor	 dl, -19			; ffffffedH
  0019c	88 55 f8	 mov	 BYTE PTR __k$[ebp+24], dl
  0019f	84 c0		 test	 al, al
  001a1	74 0a		 je	 SHORT $LN71@LoadBool_e@2
  001a3	34 ec		 xor	 al, -20			; ffffffecH
  001a5	88 45 f9	 mov	 BYTE PTR __k$[ebp+25], al
  001a8	e9 8d 00 00 00	 jmp	 $LN1@LoadBool_e@2
$LN71@LoadBool_e@2:
  001ad	c6 45 f9 ec	 mov	 BYTE PTR __k$[ebp+25], -20 ; ffffffecH
  001b1	e9 84 00 00 00	 jmp	 $LN1@LoadBool_e@2
$LN72@LoadBool_e@2:
  001b6	c6 45 f8 ed	 mov	 BYTE PTR __k$[ebp+24], -19 ; ffffffedH
  001ba	eb 7e		 jmp	 SHORT $LN1@LoadBool_e@2
$LN73@LoadBool_e@2:
  001bc	88 5d f7	 mov	 BYTE PTR __k$[ebp+23], bl
  001bf	eb 79		 jmp	 SHORT $LN1@LoadBool_e@2
$LN74@LoadBool_e@2:
  001c1	88 4d f6	 mov	 BYTE PTR __k$[ebp+22], cl
  001c4	eb 74		 jmp	 SHORT $LN1@LoadBool_e@2
$LN76@LoadBool_e@2:
  001c6	c6 45 f4 ed	 mov	 BYTE PTR __k$[ebp+20], -19 ; ffffffedH
  001ca	eb 6e		 jmp	 SHORT $LN1@LoadBool_e@2
$LN77@LoadBool_e@2:
  001cc	88 5d f3	 mov	 BYTE PTR __k$[ebp+19], bl
  001cf	eb 69		 jmp	 SHORT $LN1@LoadBool_e@2
$LN78@LoadBool_e@2:
  001d1	88 4d f2	 mov	 BYTE PTR __k$[ebp+18], cl
  001d4	eb 64		 jmp	 SHORT $LN1@LoadBool_e@2
$LN79@LoadBool_e@2:
  001d6	c6 45 f1 ec	 mov	 BYTE PTR __k$[ebp+17], -20 ; ffffffecH
  001da	eb 5e		 jmp	 SHORT $LN1@LoadBool_e@2
$LN80@LoadBool_e@2:
  001dc	c6 45 f0 ed	 mov	 BYTE PTR __k$[ebp+16], -19 ; ffffffedH
  001e0	eb 58		 jmp	 SHORT $LN1@LoadBool_e@2
$LN81@LoadBool_e@2:
  001e2	88 5d ef	 mov	 BYTE PTR __k$[ebp+15], bl
  001e5	eb 53		 jmp	 SHORT $LN1@LoadBool_e@2
$LN82@LoadBool_e@2:
  001e7	88 4d ee	 mov	 BYTE PTR __k$[ebp+14], cl
  001ea	eb 4e		 jmp	 SHORT $LN1@LoadBool_e@2
$LN83@LoadBool_e@2:
  001ec	c6 45 ed ec	 mov	 BYTE PTR __k$[ebp+13], -20 ; ffffffecH
  001f0	eb 48		 jmp	 SHORT $LN1@LoadBool_e@2
$LN84@LoadBool_e@2:
  001f2	c6 45 ec ed	 mov	 BYTE PTR __k$[ebp+12], -19 ; ffffffedH
  001f6	eb 42		 jmp	 SHORT $LN1@LoadBool_e@2
$LN85@LoadBool_e@2:
  001f8	88 5d eb	 mov	 BYTE PTR __k$[ebp+11], bl
  001fb	eb 3d		 jmp	 SHORT $LN1@LoadBool_e@2
$LN86@LoadBool_e@2:
  001fd	88 4d ea	 mov	 BYTE PTR __k$[ebp+10], cl
  00200	eb 38		 jmp	 SHORT $LN1@LoadBool_e@2
$LN87@LoadBool_e@2:
  00202	c6 45 e9 ec	 mov	 BYTE PTR __k$[ebp+9], -20 ; ffffffecH
  00206	eb 32		 jmp	 SHORT $LN1@LoadBool_e@2
$LN88@LoadBool_e@2:
  00208	c6 45 e8 ed	 mov	 BYTE PTR __k$[ebp+8], -19 ; ffffffedH
  0020c	eb 2c		 jmp	 SHORT $LN1@LoadBool_e@2
$LN89@LoadBool_e@2:
  0020e	88 5d e7	 mov	 BYTE PTR __k$[ebp+7], bl
  00211	eb 27		 jmp	 SHORT $LN1@LoadBool_e@2
$LN90@LoadBool_e@2:
  00213	88 4d e6	 mov	 BYTE PTR __k$[ebp+6], cl
  00216	eb 22		 jmp	 SHORT $LN1@LoadBool_e@2
$LN91@LoadBool_e@2:
  00218	c6 45 e5 ec	 mov	 BYTE PTR __k$[ebp+5], -20 ; ffffffecH
  0021c	eb 1c		 jmp	 SHORT $LN1@LoadBool_e@2
$LN92@LoadBool_e@2:
  0021e	c6 45 e4 ed	 mov	 BYTE PTR __k$[ebp+4], -19 ; ffffffedH
  00222	eb 16		 jmp	 SHORT $LN1@LoadBool_e@2
$LN93@LoadBool_e@2:
  00224	c6 45 e3 ea	 mov	 BYTE PTR __k$[ebp+3], -22 ; ffffffeaH
  00228	eb 10		 jmp	 SHORT $LN1@LoadBool_e@2
$LN94@LoadBool_e@2:
  0022a	c6 45 e2 eb	 mov	 BYTE PTR __k$[ebp+2], -21 ; ffffffebH
  0022e	eb 0a		 jmp	 SHORT $LN1@LoadBool_e@2
$LN95@LoadBool_e@2:
  00230	c6 45 e1 ec	 mov	 BYTE PTR __k$[ebp+1], -20 ; ffffffecH
  00234	eb 04		 jmp	 SHORT $LN1@LoadBool_e@2
$LN96@LoadBool_e@2:
  00236	c6 45 e0 ed	 mov	 BYTE PTR __k$[ebp], -19	; ffffffedH
$LN1@LoadBool_e@2:
  0023a	6a 05		 push	 5
  0023c	8d 45 e0	 lea	 eax, DWORD PTR __k$[ebp]
  0023f	c6 45 f5 00	 mov	 BYTE PTR __k$[ebp+21], 0
  00243	5a		 pop	 edx
$LL104@LoadBool_e@2:
  00244	81 30 ed ec eb
	ea		 xor	 DWORD PTR [eax], -353637139 ; eaebecedH
  0024a	83 c0 04	 add	 eax, 4
  0024d	4a		 dec	 edx
  0024e	75 f4		 jne	 SHORT $LL104@LoadBool_e@2

; 103  : 		return LoadBool(_k, b);

  00250	ff 75 0c	 push	 DWORD PTR _b$[ebp]
  00253	80 75 f4 ed	 xor	 BYTE PTR __k$[ebp+20], -19 ; ffffffedH
  00257	8d 45 e0	 lea	 eax, DWORD PTR __k$[ebp]
  0025a	50		 push	 eax
  0025b	8b ce		 mov	 ecx, esi
  0025d	ff 15 00 00 00
	00		 call	 DWORD PTR __imp_?LoadBool@ioINILoader@@QAE_NPBD_N@Z

; 104  : 	}

  00263	8b 4d fc	 mov	 ecx, DWORD PTR __$ArrayPad$[ebp]
  00266	5e		 pop	 esi
  00267	33 cd		 xor	 ecx, ebp
  00269	5b		 pop	 ebx
  0026a	e8 00 00 00 00	 call	 @__security_check_cookie@4
  0026f	c9		 leave
  00270	c2 08 00	 ret	 8
??$LoadBool_e@$0BG@@ioINILoader@@QAE_NAAY0BG@$$CBD_N@Z ENDP ; ioINILoader::LoadBool_e<22>
_TEXT	ENDS
PUBLIC	__$ArrayPad$
PUBLIC	??$LoadInt_e@$0BF@@ioINILoader@@QAEHAAY0BF@$$CBDH@Z ; ioINILoader::LoadInt_e<21>
EXTRN	__imp_?LoadInt@ioINILoader@@QAEHPBDH@Z:PROC
; Function compile flags: /Ogsp
;	COMDAT ??$LoadInt_e@$0BF@@ioINILoader@@QAEHAAY0BF@$$CBDH@Z
_TEXT	SEGMENT
__k$ = -32						; size = 21
__$ArrayPad$ = -4					; size = 4
_k$ = 8							; size = 4
_i$ = 12						; size = 4
??$LoadInt_e@$0BF@@ioINILoader@@QAEHAAY0BF@$$CBDH@Z PROC ; ioINILoader::LoadInt_e<21>, COMDAT
; _this$ = ecx

; 118  : 	{

  00000	55		 push	 ebp
  00001	8b ec		 mov	 ebp, esp
  00003	83 ec 20	 sub	 esp, 32			; 00000020H
  00006	a1 00 00 00 00	 mov	 eax, DWORD PTR ___security_cookie
  0000b	33 c5		 xor	 eax, ebp
  0000d	89 45 fc	 mov	 DWORD PTR __$ArrayPad$[ebp], eax
  00010	8b 45 08	 mov	 eax, DWORD PTR _k$[ebp]

; 119  : 		_ENCSTR(k, _k);

  00013	8a 10		 mov	 dl, BYTE PTR [eax]
  00015	53		 push	 ebx
  00016	56		 push	 esi
  00017	8b f1		 mov	 esi, ecx
  00019	84 d2		 test	 dl, dl
  0001b	0f 84 f7 01 00
	00		 je	 $LN96@LoadInt_e
  00021	80 f2 ed	 xor	 dl, -19			; ffffffedH
  00024	88 55 e0	 mov	 BYTE PTR __k$[ebp], dl
  00027	8a 50 01	 mov	 dl, BYTE PTR [eax+1]
  0002a	84 d2		 test	 dl, dl
  0002c	0f 84 e0 01 00
	00		 je	 $LN95@LoadInt_e
  00032	b1 ec		 mov	 cl, -20			; ffffffecH
  00034	32 d1		 xor	 dl, cl
  00036	88 55 e1	 mov	 BYTE PTR __k$[ebp+1], dl
  00039	8a 50 02	 mov	 dl, BYTE PTR [eax+2]
  0003c	84 d2		 test	 dl, dl
  0003e	0f 84 c8 01 00
	00		 je	 $LN94@LoadInt_e
  00044	b3 eb		 mov	 bl, -21			; ffffffebH
  00046	32 d3		 xor	 dl, bl
  00048	88 55 e2	 mov	 BYTE PTR __k$[ebp+2], dl
  0004b	8a 50 03	 mov	 dl, BYTE PTR [eax+3]
  0004e	84 d2		 test	 dl, dl
  00050	0f 84 b0 01 00
	00		 je	 $LN93@LoadInt_e
  00056	80 f2 ea	 xor	 dl, -22			; ffffffeaH
  00059	88 55 e3	 mov	 BYTE PTR __k$[ebp+3], dl
  0005c	8a 50 04	 mov	 dl, BYTE PTR [eax+4]
  0005f	84 d2		 test	 dl, dl
  00061	0f 84 99 01 00
	00		 je	 $LN92@LoadInt_e
  00067	80 f2 ed	 xor	 dl, -19			; ffffffedH
  0006a	88 55 e4	 mov	 BYTE PTR __k$[ebp+4], dl
  0006d	8a 50 05	 mov	 dl, BYTE PTR [eax+5]
  00070	84 d2		 test	 dl, dl
  00072	0f 84 83 01 00
	00		 je	 $LN91@LoadInt_e
  00078	32 d1		 xor	 dl, cl
  0007a	88 55 e5	 mov	 BYTE PTR __k$[ebp+5], dl
  0007d	8a 50 06	 mov	 dl, BYTE PTR [eax+6]
  00080	84 d2		 test	 dl, dl
  00082	0f 84 6e 01 00
	00		 je	 $LN90@LoadInt_e
  00088	32 d3		 xor	 dl, bl
  0008a	88 55 e6	 mov	 BYTE PTR __k$[ebp+6], dl
  0008d	8a 50 07	 mov	 dl, BYTE PTR [eax+7]
  00090	84 d2		 test	 dl, dl
  00092	0f 84 58 01 00
	00		 je	 $LN89@LoadInt_e
  00098	80 f2 ea	 xor	 dl, -22			; ffffffeaH
  0009b	88 55 e7	 mov	 BYTE PTR __k$[ebp+7], dl
  0009e	8a 50 08	 mov	 dl, BYTE PTR [eax+8]
  000a1	84 d2		 test	 dl, dl
  000a3	0f 84 41 01 00
	00		 je	 $LN88@LoadInt_e
  000a9	80 f2 ed	 xor	 dl, -19			; ffffffedH
  000ac	88 55 e8	 mov	 BYTE PTR __k$[ebp+8], dl
  000af	8a 50 09	 mov	 dl, BYTE PTR [eax+9]
  000b2	84 d2		 test	 dl, dl
  000b4	0f 84 2b 01 00
	00		 je	 $LN87@LoadInt_e
  000ba	32 d1		 xor	 dl, cl
  000bc	88 55 e9	 mov	 BYTE PTR __k$[ebp+9], dl
  000bf	8a 50 0a	 mov	 dl, BYTE PTR [eax+10]
  000c2	84 d2		 test	 dl, dl
  000c4	0f 84 16 01 00
	00		 je	 $LN86@LoadInt_e
  000ca	32 d3		 xor	 dl, bl
  000cc	88 55 ea	 mov	 BYTE PTR __k$[ebp+10], dl
  000cf	8a 50 0b	 mov	 dl, BYTE PTR [eax+11]
  000d2	84 d2		 test	 dl, dl
  000d4	0f 84 00 01 00
	00		 je	 $LN85@LoadInt_e
  000da	80 f2 ea	 xor	 dl, -22			; ffffffeaH
  000dd	88 55 eb	 mov	 BYTE PTR __k$[ebp+11], dl
  000e0	8a 50 0c	 mov	 dl, BYTE PTR [eax+12]
  000e3	84 d2		 test	 dl, dl
  000e5	0f 84 e9 00 00
	00		 je	 $LN84@LoadInt_e
  000eb	80 f2 ed	 xor	 dl, -19			; ffffffedH
  000ee	88 55 ec	 mov	 BYTE PTR __k$[ebp+12], dl
  000f1	8a 50 0d	 mov	 dl, BYTE PTR [eax+13]
  000f4	84 d2		 test	 dl, dl
  000f6	0f 84 d3 00 00
	00		 je	 $LN83@LoadInt_e
  000fc	32 d1		 xor	 dl, cl
  000fe	88 55 ed	 mov	 BYTE PTR __k$[ebp+13], dl
  00101	8a 50 0e	 mov	 dl, BYTE PTR [eax+14]
  00104	84 d2		 test	 dl, dl
  00106	0f 84 be 00 00
	00		 je	 $LN82@LoadInt_e
  0010c	32 d3		 xor	 dl, bl
  0010e	88 55 ee	 mov	 BYTE PTR __k$[ebp+14], dl
  00111	8a 50 0f	 mov	 dl, BYTE PTR [eax+15]
  00114	84 d2		 test	 dl, dl
  00116	0f 84 a8 00 00
	00		 je	 $LN81@LoadInt_e
  0011c	80 f2 ea	 xor	 dl, -22			; ffffffeaH
  0011f	88 55 ef	 mov	 BYTE PTR __k$[ebp+15], dl
  00122	8a 50 10	 mov	 dl, BYTE PTR [eax+16]
  00125	84 d2		 test	 dl, dl
  00127	0f 84 91 00 00
	00		 je	 $LN80@LoadInt_e
  0012d	80 f2 ed	 xor	 dl, -19			; ffffffedH
  00130	88 55 f0	 mov	 BYTE PTR __k$[ebp+16], dl
  00133	8a 50 11	 mov	 dl, BYTE PTR [eax+17]
  00136	84 d2		 test	 dl, dl
  00138	74 7f		 je	 SHORT $LN79@LoadInt_e
  0013a	32 d1		 xor	 dl, cl
  0013c	88 55 f1	 mov	 BYTE PTR __k$[ebp+17], dl
  0013f	8a 50 12	 mov	 dl, BYTE PTR [eax+18]
  00142	84 d2		 test	 dl, dl
  00144	74 6e		 je	 SHORT $LN78@LoadInt_e
  00146	32 d3		 xor	 dl, bl
  00148	88 55 f2	 mov	 BYTE PTR __k$[ebp+18], dl
  0014b	8a 50 13	 mov	 dl, BYTE PTR [eax+19]
  0014e	84 d2		 test	 dl, dl
  00150	74 5c		 je	 SHORT $LN77@LoadInt_e
  00152	80 f2 ea	 xor	 dl, -22			; ffffffeaH
  00155	80 78 14 00	 cmp	 BYTE PTR [eax+20], 0
  00159	88 55 f3	 mov	 BYTE PTR __k$[ebp+19], dl
  0015c	0f 84 ba 00 00
	00		 je	 $LN1@LoadInt_e
  00162	8a 50 15	 mov	 dl, BYTE PTR [eax+21]
  00165	84 d2		 test	 dl, dl
  00167	74 40		 je	 SHORT $LN75@LoadInt_e
  00169	32 d1		 xor	 dl, cl
  0016b	88 55 f5	 mov	 BYTE PTR __k$[ebp+21], dl
  0016e	8a 50 16	 mov	 dl, BYTE PTR [eax+22]
  00171	84 d2		 test	 dl, dl
  00173	74 2f		 je	 SHORT $LN74@LoadInt_e
  00175	32 d3		 xor	 dl, bl
  00177	88 55 f6	 mov	 BYTE PTR __k$[ebp+22], dl
  0017a	8a 50 17	 mov	 dl, BYTE PTR [eax+23]
  0017d	84 d2		 test	 dl, dl
  0017f	74 1d		 je	 SHORT $LN73@LoadInt_e
  00181	8a 40 18	 mov	 al, BYTE PTR [eax+24]
  00184	80 f2 ea	 xor	 dl, -22			; ffffffeaH
  00187	88 55 f7	 mov	 BYTE PTR __k$[ebp+23], dl
  0018a	84 c0		 test	 al, al
  0018c	74 0a		 je	 SHORT $LN72@LoadInt_e
  0018e	34 ed		 xor	 al, -19			; ffffffedH
  00190	88 45 f8	 mov	 BYTE PTR __k$[ebp+24], al
  00193	e9 84 00 00 00	 jmp	 $LN1@LoadInt_e
$LN72@LoadInt_e:
  00198	c6 45 f8 ed	 mov	 BYTE PTR __k$[ebp+24], -19 ; ffffffedH
  0019c	eb 7e		 jmp	 SHORT $LN1@LoadInt_e
$LN73@LoadInt_e:
  0019e	c6 45 f7 ea	 mov	 BYTE PTR __k$[ebp+23], -22 ; ffffffeaH
  001a2	eb 78		 jmp	 SHORT $LN1@LoadInt_e
$LN74@LoadInt_e:
  001a4	88 5d f6	 mov	 BYTE PTR __k$[ebp+22], bl
  001a7	eb 73		 jmp	 SHORT $LN1@LoadInt_e
$LN75@LoadInt_e:
  001a9	88 4d f5	 mov	 BYTE PTR __k$[ebp+21], cl
  001ac	eb 6e		 jmp	 SHORT $LN1@LoadInt_e
$LN77@LoadInt_e:
  001ae	c6 45 f3 ea	 mov	 BYTE PTR __k$[ebp+19], -22 ; ffffffeaH
  001b2	eb 68		 jmp	 SHORT $LN1@LoadInt_e
$LN78@LoadInt_e:
  001b4	88 5d f2	 mov	 BYTE PTR __k$[ebp+18], bl
  001b7	eb 63		 jmp	 SHORT $LN1@LoadInt_e
$LN79@LoadInt_e:
  001b9	88 4d f1	 mov	 BYTE PTR __k$[ebp+17], cl
  001bc	eb 5e		 jmp	 SHORT $LN1@LoadInt_e
$LN80@LoadInt_e:
  001be	c6 45 f0 ed	 mov	 BYTE PTR __k$[ebp+16], -19 ; ffffffedH
  001c2	eb 58		 jmp	 SHORT $LN1@LoadInt_e
$LN81@LoadInt_e:
  001c4	c6 45 ef ea	 mov	 BYTE PTR __k$[ebp+15], -22 ; ffffffeaH
  001c8	eb 52		 jmp	 SHORT $LN1@LoadInt_e
$LN82@LoadInt_e:
  001ca	88 5d ee	 mov	 BYTE PTR __k$[ebp+14], bl
  001cd	eb 4d		 jmp	 SHORT $LN1@LoadInt_e
$LN83@LoadInt_e:
  001cf	88 4d ed	 mov	 BYTE PTR __k$[ebp+13], cl
  001d2	eb 48		 jmp	 SHORT $LN1@LoadInt_e
$LN84@LoadInt_e:
  001d4	c6 45 ec ed	 mov	 BYTE PTR __k$[ebp+12], -19 ; ffffffedH
  001d8	eb 42		 jmp	 SHORT $LN1@LoadInt_e
$LN85@LoadInt_e:
  001da	c6 45 eb ea	 mov	 BYTE PTR __k$[ebp+11], -22 ; ffffffeaH
  001de	eb 3c		 jmp	 SHORT $LN1@LoadInt_e
$LN86@LoadInt_e:
  001e0	88 5d ea	 mov	 BYTE PTR __k$[ebp+10], bl
  001e3	eb 37		 jmp	 SHORT $LN1@LoadInt_e
$LN87@LoadInt_e:
  001e5	88 4d e9	 mov	 BYTE PTR __k$[ebp+9], cl
  001e8	eb 32		 jmp	 SHORT $LN1@LoadInt_e
$LN88@LoadInt_e:
  001ea	c6 45 e8 ed	 mov	 BYTE PTR __k$[ebp+8], -19 ; ffffffedH
  001ee	eb 2c		 jmp	 SHORT $LN1@LoadInt_e
$LN89@LoadInt_e:
  001f0	c6 45 e7 ea	 mov	 BYTE PTR __k$[ebp+7], -22 ; ffffffeaH
  001f4	eb 26		 jmp	 SHORT $LN1@LoadInt_e
$LN90@LoadInt_e:
  001f6	88 5d e6	 mov	 BYTE PTR __k$[ebp+6], bl
  001f9	eb 21		 jmp	 SHORT $LN1@LoadInt_e
$LN91@LoadInt_e:
  001fb	88 4d e5	 mov	 BYTE PTR __k$[ebp+5], cl
  001fe	eb 1c		 jmp	 SHORT $LN1@LoadInt_e
$LN92@LoadInt_e:
  00200	c6 45 e4 ed	 mov	 BYTE PTR __k$[ebp+4], -19 ; ffffffedH
  00204	eb 16		 jmp	 SHORT $LN1@LoadInt_e
$LN93@LoadInt_e:
  00206	c6 45 e3 ea	 mov	 BYTE PTR __k$[ebp+3], -22 ; ffffffeaH
  0020a	eb 10		 jmp	 SHORT $LN1@LoadInt_e
$LN94@LoadInt_e:
  0020c	c6 45 e2 eb	 mov	 BYTE PTR __k$[ebp+2], -21 ; ffffffebH
  00210	eb 0a		 jmp	 SHORT $LN1@LoadInt_e
$LN95@LoadInt_e:
  00212	c6 45 e1 ec	 mov	 BYTE PTR __k$[ebp+1], -20 ; ffffffecH
  00216	eb 04		 jmp	 SHORT $LN1@LoadInt_e
$LN96@LoadInt_e:
  00218	c6 45 e0 ed	 mov	 BYTE PTR __k$[ebp], -19	; ffffffedH
$LN1@LoadInt_e:
  0021c	6a 05		 push	 5
  0021e	8d 45 e0	 lea	 eax, DWORD PTR __k$[ebp]
  00221	c6 45 f4 00	 mov	 BYTE PTR __k$[ebp+20], 0
  00225	5a		 pop	 edx
$LL104@LoadInt_e:
  00226	81 30 ed ec eb
	ea		 xor	 DWORD PTR [eax], -353637139 ; eaebecedH
  0022c	83 c0 04	 add	 eax, 4
  0022f	4a		 dec	 edx
  00230	75 f4		 jne	 SHORT $LL104@LoadInt_e

; 120  : 		return LoadInt(_k, i);

  00232	ff 75 0c	 push	 DWORD PTR _i$[ebp]
  00235	8d 45 e0	 lea	 eax, DWORD PTR __k$[ebp]
  00238	50		 push	 eax
  00239	8b ce		 mov	 ecx, esi
  0023b	ff 15 00 00 00
	00		 call	 DWORD PTR __imp_?LoadInt@ioINILoader@@QAEHPBDH@Z

; 121  : 	}

  00241	8b 4d fc	 mov	 ecx, DWORD PTR __$ArrayPad$[ebp]
  00244	5e		 pop	 esi
  00245	33 cd		 xor	 ecx, ebp
  00247	5b		 pop	 ebx
  00248	e8 00 00 00 00	 call	 @__security_check_cookie@4
  0024d	c9		 leave
  0024e	c2 08 00	 ret	 8
??$LoadInt_e@$0BF@@ioINILoader@@QAEHAAY0BF@$$CBDH@Z ENDP ; ioINILoader::LoadInt_e<21>
_TEXT	ENDS
PUBLIC	__$ArrayPad$
PUBLIC	??$LoadInt_e@$0BE@@ioINILoader@@QAEHAAY0BE@$$CBDH@Z ; ioINILoader::LoadInt_e<20>
; Function compile flags: /Ogsp
;	COMDAT ??$LoadInt_e@$0BE@@ioINILoader@@QAEHAAY0BE@$$CBDH@Z
_TEXT	SEGMENT
__k$ = -28						; size = 20
__$ArrayPad$ = -4					; size = 4
_k$ = 8							; size = 4
_i$ = 12						; size = 4
??$LoadInt_e@$0BE@@ioINILoader@@QAEHAAY0BE@$$CBDH@Z PROC ; ioINILoader::LoadInt_e<20>, COMDAT
; _this$ = ecx

; 118  : 	{

  00000	55		 push	 ebp
  00001	8b ec		 mov	 ebp, esp
  00003	83 ec 1c	 sub	 esp, 28			; 0000001cH
  00006	a1 00 00 00 00	 mov	 eax, DWORD PTR ___security_cookie
  0000b	33 c5		 xor	 eax, ebp
  0000d	89 45 fc	 mov	 DWORD PTR __$ArrayPad$[ebp], eax
  00010	8b 45 08	 mov	 eax, DWORD PTR _k$[ebp]

; 119  : 		_ENCSTR(k, _k);

  00013	8a 10		 mov	 dl, BYTE PTR [eax]
  00015	53		 push	 ebx
  00016	56		 push	 esi
  00017	8b f1		 mov	 esi, ecx
  00019	84 d2		 test	 dl, dl
  0001b	0f 84 dd 01 00
	00		 je	 $LN96@LoadInt_e@2
  00021	80 f2 ed	 xor	 dl, -19			; ffffffedH
  00024	88 55 e4	 mov	 BYTE PTR __k$[ebp], dl
  00027	8a 50 01	 mov	 dl, BYTE PTR [eax+1]
  0002a	84 d2		 test	 dl, dl
  0002c	0f 84 c6 01 00
	00		 je	 $LN95@LoadInt_e@2
  00032	b3 ec		 mov	 bl, -20			; ffffffecH
  00034	32 d3		 xor	 dl, bl
  00036	88 55 e5	 mov	 BYTE PTR __k$[ebp+1], dl
  00039	8a 50 02	 mov	 dl, BYTE PTR [eax+2]
  0003c	84 d2		 test	 dl, dl
  0003e	0f 84 ae 01 00
	00		 je	 $LN94@LoadInt_e@2
  00044	b1 eb		 mov	 cl, -21			; ffffffebH
  00046	32 d1		 xor	 dl, cl
  00048	88 55 e6	 mov	 BYTE PTR __k$[ebp+2], dl
  0004b	8a 50 03	 mov	 dl, BYTE PTR [eax+3]
  0004e	84 d2		 test	 dl, dl
  00050	0f 84 96 01 00
	00		 je	 $LN93@LoadInt_e@2
  00056	80 f2 ea	 xor	 dl, -22			; ffffffeaH
  00059	88 55 e7	 mov	 BYTE PTR __k$[ebp+3], dl
  0005c	8a 50 04	 mov	 dl, BYTE PTR [eax+4]
  0005f	84 d2		 test	 dl, dl
  00061	0f 84 7f 01 00
	00		 je	 $LN92@LoadInt_e@2
  00067	80 f2 ed	 xor	 dl, -19			; ffffffedH
  0006a	88 55 e8	 mov	 BYTE PTR __k$[ebp+4], dl
  0006d	8a 50 05	 mov	 dl, BYTE PTR [eax+5]
  00070	84 d2		 test	 dl, dl
  00072	0f 84 69 01 00
	00		 je	 $LN91@LoadInt_e@2
  00078	32 d3		 xor	 dl, bl
  0007a	88 55 e9	 mov	 BYTE PTR __k$[ebp+5], dl
  0007d	8a 50 06	 mov	 dl, BYTE PTR [eax+6]
  00080	84 d2		 test	 dl, dl
  00082	0f 84 54 01 00
	00		 je	 $LN90@LoadInt_e@2
  00088	32 d1		 xor	 dl, cl
  0008a	88 55 ea	 mov	 BYTE PTR __k$[ebp+6], dl
  0008d	8a 50 07	 mov	 dl, BYTE PTR [eax+7]
  00090	84 d2		 test	 dl, dl
  00092	0f 84 3e 01 00
	00		 je	 $LN89@LoadInt_e@2
  00098	80 f2 ea	 xor	 dl, -22			; ffffffeaH
  0009b	88 55 eb	 mov	 BYTE PTR __k$[ebp+7], dl
  0009e	8a 50 08	 mov	 dl, BYTE PTR [eax+8]
  000a1	84 d2		 test	 dl, dl
  000a3	0f 84 27 01 00
	00		 je	 $LN88@LoadInt_e@2
  000a9	80 f2 ed	 xor	 dl, -19			; ffffffedH
  000ac	88 55 ec	 mov	 BYTE PTR __k$[ebp+8], dl
  000af	8a 50 09	 mov	 dl, BYTE PTR [eax+9]
  000b2	84 d2		 test	 dl, dl
  000b4	0f 84 11 01 00
	00		 je	 $LN87@LoadInt_e@2
  000ba	32 d3		 xor	 dl, bl
  000bc	88 55 ed	 mov	 BYTE PTR __k$[ebp+9], dl
  000bf	8a 50 0a	 mov	 dl, BYTE PTR [eax+10]
  000c2	84 d2		 test	 dl, dl
  000c4	0f 84 fc 00 00
	00		 je	 $LN86@LoadInt_e@2
  000ca	32 d1		 xor	 dl, cl
  000cc	88 55 ee	 mov	 BYTE PTR __k$[ebp+10], dl
  000cf	8a 50 0b	 mov	 dl, BYTE PTR [eax+11]
  000d2	84 d2		 test	 dl, dl
  000d4	0f 84 e6 00 00
	00		 je	 $LN85@LoadInt_e@2
  000da	80 f2 ea	 xor	 dl, -22			; ffffffeaH
  000dd	88 55 ef	 mov	 BYTE PTR __k$[ebp+11], dl
  000e0	8a 50 0c	 mov	 dl, BYTE PTR [eax+12]
  000e3	84 d2		 test	 dl, dl
  000e5	0f 84 cf 00 00
	00		 je	 $LN84@LoadInt_e@2
  000eb	80 f2 ed	 xor	 dl, -19			; ffffffedH
  000ee	88 55 f0	 mov	 BYTE PTR __k$[ebp+12], dl
  000f1	8a 50 0d	 mov	 dl, BYTE PTR [eax+13]
  000f4	84 d2		 test	 dl, dl
  000f6	0f 84 b9 00 00
	00		 je	 $LN83@LoadInt_e@2
  000fc	32 d3		 xor	 dl, bl
  000fe	88 55 f1	 mov	 BYTE PTR __k$[ebp+13], dl
  00101	8a 50 0e	 mov	 dl, BYTE PTR [eax+14]
  00104	84 d2		 test	 dl, dl
  00106	0f 84 a4 00 00
	00		 je	 $LN82@LoadInt_e@2
  0010c	32 d1		 xor	 dl, cl
  0010e	88 55 f2	 mov	 BYTE PTR __k$[ebp+14], dl
  00111	8a 50 0f	 mov	 dl, BYTE PTR [eax+15]
  00114	84 d2		 test	 dl, dl
  00116	0f 84 8e 00 00
	00		 je	 $LN81@LoadInt_e@2
  0011c	80 f2 ea	 xor	 dl, -22			; ffffffeaH
  0011f	88 55 f3	 mov	 BYTE PTR __k$[ebp+15], dl
  00122	8a 50 10	 mov	 dl, BYTE PTR [eax+16]
  00125	84 d2		 test	 dl, dl
  00127	74 7b		 je	 SHORT $LN80@LoadInt_e@2
  00129	80 f2 ed	 xor	 dl, -19			; ffffffedH
  0012c	88 55 f4	 mov	 BYTE PTR __k$[ebp+16], dl
  0012f	8a 50 11	 mov	 dl, BYTE PTR [eax+17]
  00132	84 d2		 test	 dl, dl
  00134	74 69		 je	 SHORT $LN79@LoadInt_e@2
  00136	32 d3		 xor	 dl, bl
  00138	88 55 f5	 mov	 BYTE PTR __k$[ebp+17], dl
  0013b	8a 50 12	 mov	 dl, BYTE PTR [eax+18]
  0013e	84 d2		 test	 dl, dl
  00140	74 58		 je	 SHORT $LN78@LoadInt_e@2
  00142	32 d1		 xor	 dl, cl
  00144	80 78 13 00	 cmp	 BYTE PTR [eax+19], 0
  00148	88 55 f6	 mov	 BYTE PTR __k$[ebp+18], dl
  0014b	0f 84 b1 00 00
	00		 je	 $LN1@LoadInt_e@2
  00151	8a 50 14	 mov	 dl, BYTE PTR [eax+20]
  00154	84 d2		 test	 dl, dl
  00156	74 3c		 je	 SHORT $LN76@LoadInt_e@2
  00158	80 f2 ed	 xor	 dl, -19			; ffffffedH
  0015b	88 55 f8	 mov	 BYTE PTR __k$[ebp+20], dl
  0015e	8a 50 15	 mov	 dl, BYTE PTR [eax+21]
  00161	84 d2		 test	 dl, dl
  00163	74 2a		 je	 SHORT $LN75@LoadInt_e@2
  00165	32 d3		 xor	 dl, bl
  00167	88 55 f9	 mov	 BYTE PTR __k$[ebp+21], dl
  0016a	8a 50 16	 mov	 dl, BYTE PTR [eax+22]
  0016d	84 d2		 test	 dl, dl
  0016f	74 19		 je	 SHORT $LN74@LoadInt_e@2
  00171	8a 40 17	 mov	 al, BYTE PTR [eax+23]
  00174	32 d1		 xor	 dl, cl
  00176	88 55 fa	 mov	 BYTE PTR __k$[ebp+22], dl
  00179	84 c0		 test	 al, al
  0017b	74 07		 je	 SHORT $LN73@LoadInt_e@2
  0017d	34 ea		 xor	 al, -22			; ffffffeaH
  0017f	88 45 fb	 mov	 BYTE PTR __k$[ebp+23], al
  00182	eb 7e		 jmp	 SHORT $LN1@LoadInt_e@2
$LN73@LoadInt_e@2:
  00184	c6 45 fb ea	 mov	 BYTE PTR __k$[ebp+23], -22 ; ffffffeaH
  00188	eb 78		 jmp	 SHORT $LN1@LoadInt_e@2
$LN74@LoadInt_e@2:
  0018a	88 4d fa	 mov	 BYTE PTR __k$[ebp+22], cl
  0018d	eb 73		 jmp	 SHORT $LN1@LoadInt_e@2
$LN75@LoadInt_e@2:
  0018f	88 5d f9	 mov	 BYTE PTR __k$[ebp+21], bl
  00192	eb 6e		 jmp	 SHORT $LN1@LoadInt_e@2
$LN76@LoadInt_e@2:
  00194	c6 45 f8 ed	 mov	 BYTE PTR __k$[ebp+20], -19 ; ffffffedH
  00198	eb 68		 jmp	 SHORT $LN1@LoadInt_e@2
$LN78@LoadInt_e@2:
  0019a	88 4d f6	 mov	 BYTE PTR __k$[ebp+18], cl
  0019d	eb 63		 jmp	 SHORT $LN1@LoadInt_e@2
$LN79@LoadInt_e@2:
  0019f	88 5d f5	 mov	 BYTE PTR __k$[ebp+17], bl
  001a2	eb 5e		 jmp	 SHORT $LN1@LoadInt_e@2
$LN80@LoadInt_e@2:
  001a4	c6 45 f4 ed	 mov	 BYTE PTR __k$[ebp+16], -19 ; ffffffedH
  001a8	eb 58		 jmp	 SHORT $LN1@LoadInt_e@2
$LN81@LoadInt_e@2:
  001aa	c6 45 f3 ea	 mov	 BYTE PTR __k$[ebp+15], -22 ; ffffffeaH
  001ae	eb 52		 jmp	 SHORT $LN1@LoadInt_e@2
$LN82@LoadInt_e@2:
  001b0	88 4d f2	 mov	 BYTE PTR __k$[ebp+14], cl
  001b3	eb 4d		 jmp	 SHORT $LN1@LoadInt_e@2
$LN83@LoadInt_e@2:
  001b5	88 5d f1	 mov	 BYTE PTR __k$[ebp+13], bl
  001b8	eb 48		 jmp	 SHORT $LN1@LoadInt_e@2
$LN84@LoadInt_e@2:
  001ba	c6 45 f0 ed	 mov	 BYTE PTR __k$[ebp+12], -19 ; ffffffedH
  001be	eb 42		 jmp	 SHORT $LN1@LoadInt_e@2
$LN85@LoadInt_e@2:
  001c0	c6 45 ef ea	 mov	 BYTE PTR __k$[ebp+11], -22 ; ffffffeaH
  001c4	eb 3c		 jmp	 SHORT $LN1@LoadInt_e@2
$LN86@LoadInt_e@2:
  001c6	88 4d ee	 mov	 BYTE PTR __k$[ebp+10], cl
  001c9	eb 37		 jmp	 SHORT $LN1@LoadInt_e@2
$LN87@LoadInt_e@2:
  001cb	88 5d ed	 mov	 BYTE PTR __k$[ebp+9], bl
  001ce	eb 32		 jmp	 SHORT $LN1@LoadInt_e@2
$LN88@LoadInt_e@2:
  001d0	c6 45 ec ed	 mov	 BYTE PTR __k$[ebp+8], -19 ; ffffffedH
  001d4	eb 2c		 jmp	 SHORT $LN1@LoadInt_e@2
$LN89@LoadInt_e@2:
  001d6	c6 45 eb ea	 mov	 BYTE PTR __k$[ebp+7], -22 ; ffffffeaH
  001da	eb 26		 jmp	 SHORT $LN1@LoadInt_e@2
$LN90@LoadInt_e@2:
  001dc	88 4d ea	 mov	 BYTE PTR __k$[ebp+6], cl
  001df	eb 21		 jmp	 SHORT $LN1@LoadInt_e@2
$LN91@LoadInt_e@2:
  001e1	88 5d e9	 mov	 BYTE PTR __k$[ebp+5], bl
  001e4	eb 1c		 jmp	 SHORT $LN1@LoadInt_e@2
$LN92@LoadInt_e@2:
  001e6	c6 45 e8 ed	 mov	 BYTE PTR __k$[ebp+4], -19 ; ffffffedH
  001ea	eb 16		 jmp	 SHORT $LN1@LoadInt_e@2
$LN93@LoadInt_e@2:
  001ec	c6 45 e7 ea	 mov	 BYTE PTR __k$[ebp+3], -22 ; ffffffeaH
  001f0	eb 10		 jmp	 SHORT $LN1@LoadInt_e@2
$LN94@LoadInt_e@2:
  001f2	c6 45 e6 eb	 mov	 BYTE PTR __k$[ebp+2], -21 ; ffffffebH
  001f6	eb 0a		 jmp	 SHORT $LN1@LoadInt_e@2
$LN95@LoadInt_e@2:
  001f8	c6 45 e5 ec	 mov	 BYTE PTR __k$[ebp+1], -20 ; ffffffecH
  001fc	eb 04		 jmp	 SHORT $LN1@LoadInt_e@2
$LN96@LoadInt_e@2:
  001fe	c6 45 e4 ed	 mov	 BYTE PTR __k$[ebp], -19	; ffffffedH
$LN1@LoadInt_e@2:
  00202	6a 04		 push	 4
  00204	8d 45 e4	 lea	 eax, DWORD PTR __k$[ebp]
  00207	c6 45 f7 00	 mov	 BYTE PTR __k$[ebp+19], 0
  0020b	5a		 pop	 edx
$LL104@LoadInt_e@2:
  0020c	81 30 ed ec eb
	ea		 xor	 DWORD PTR [eax], -353637139 ; eaebecedH
  00212	83 c0 04	 add	 eax, 4
  00215	4a		 dec	 edx
  00216	75 f4		 jne	 SHORT $LL104@LoadInt_e@2
  00218	6a 10		 push	 16			; 00000010H
  0021a	58		 pop	 eax
$LL101@LoadInt_e@2:
  0021b	8b c8		 mov	 ecx, eax
  0021d	81 e1 03 00 00
	80		 and	 ecx, -2147483645	; 80000003H
  00223	79 05		 jns	 SHORT $LN111@LoadInt_e@2
  00225	49		 dec	 ecx
  00226	83 c9 fc	 or	 ecx, -4			; fffffffcH
  00229	41		 inc	 ecx
$LN111@LoadInt_e@2:
  0022a	b2 ed		 mov	 dl, -19			; ffffffedH
  0022c	2a d1		 sub	 dl, cl
  0022e	30 54 05 e4	 xor	 BYTE PTR __k$[ebp+eax], dl
  00232	40		 inc	 eax
  00233	83 f8 13	 cmp	 eax, 19			; 00000013H
  00236	7c e3		 jl	 SHORT $LL101@LoadInt_e@2

; 120  : 		return LoadInt(_k, i);

  00238	ff 75 0c	 push	 DWORD PTR _i$[ebp]
  0023b	8d 45 e4	 lea	 eax, DWORD PTR __k$[ebp]
  0023e	50		 push	 eax
  0023f	8b ce		 mov	 ecx, esi
  00241	ff 15 00 00 00
	00		 call	 DWORD PTR __imp_?LoadInt@ioINILoader@@QAEHPBDH@Z

; 121  : 	}

  00247	8b 4d fc	 mov	 ecx, DWORD PTR __$ArrayPad$[ebp]
  0024a	5e		 pop	 esi
  0024b	33 cd		 xor	 ecx, ebp
  0024d	5b		 pop	 ebx
  0024e	e8 00 00 00 00	 call	 @__security_check_cookie@4
  00253	c9		 leave
  00254	c2 08 00	 ret	 8
??$LoadInt_e@$0BE@@ioINILoader@@QAEHAAY0BE@$$CBDH@Z ENDP ; ioINILoader::LoadInt_e<20>
_TEXT	ENDS
PUBLIC	__$ArrayPad$
PUBLIC	??$LoadInt_e@$0BI@@ioINILoader@@QAEHAAY0BI@$$CBDH@Z ; ioINILoader::LoadInt_e<24>
; Function compile flags: /Ogsp
;	COMDAT ??$LoadInt_e@$0BI@@ioINILoader@@QAEHAAY0BI@$$CBDH@Z
_TEXT	SEGMENT
__k$ = -32						; size = 24
__$ArrayPad$ = -4					; size = 4
_k$ = 8							; size = 4
_i$ = 12						; size = 4
??$LoadInt_e@$0BI@@ioINILoader@@QAEHAAY0BI@$$CBDH@Z PROC ; ioINILoader::LoadInt_e<24>, COMDAT
; _this$ = ecx

; 118  : 	{

  00000	55		 push	 ebp
  00001	8b ec		 mov	 ebp, esp
  00003	83 ec 20	 sub	 esp, 32			; 00000020H
  00006	a1 00 00 00 00	 mov	 eax, DWORD PTR ___security_cookie
  0000b	33 c5		 xor	 eax, ebp
  0000d	89 45 fc	 mov	 DWORD PTR __$ArrayPad$[ebp], eax
  00010	8b 45 08	 mov	 eax, DWORD PTR _k$[ebp]

; 119  : 		_ENCSTR(k, _k);

  00013	8a 10		 mov	 dl, BYTE PTR [eax]
  00015	53		 push	 ebx
  00016	56		 push	 esi
  00017	8b f1		 mov	 esi, ecx
  00019	84 d2		 test	 dl, dl
  0001b	0f 84 45 02 00
	00		 je	 $LN96@LoadInt_e@3
  00021	80 f2 ed	 xor	 dl, -19			; ffffffedH
  00024	88 55 e0	 mov	 BYTE PTR __k$[ebp], dl
  00027	8a 50 01	 mov	 dl, BYTE PTR [eax+1]
  0002a	84 d2		 test	 dl, dl
  0002c	0f 84 2e 02 00
	00		 je	 $LN95@LoadInt_e@3
  00032	b3 ec		 mov	 bl, -20			; ffffffecH
  00034	32 d3		 xor	 dl, bl
  00036	88 55 e1	 mov	 BYTE PTR __k$[ebp+1], dl
  00039	8a 50 02	 mov	 dl, BYTE PTR [eax+2]
  0003c	84 d2		 test	 dl, dl
  0003e	0f 84 16 02 00
	00		 je	 $LN94@LoadInt_e@3
  00044	b1 eb		 mov	 cl, -21			; ffffffebH
  00046	32 d1		 xor	 dl, cl
  00048	88 55 e2	 mov	 BYTE PTR __k$[ebp+2], dl
  0004b	8a 50 03	 mov	 dl, BYTE PTR [eax+3]
  0004e	84 d2		 test	 dl, dl
  00050	0f 84 fe 01 00
	00		 je	 $LN93@LoadInt_e@3
  00056	80 f2 ea	 xor	 dl, -22			; ffffffeaH
  00059	88 55 e3	 mov	 BYTE PTR __k$[ebp+3], dl
  0005c	8a 50 04	 mov	 dl, BYTE PTR [eax+4]
  0005f	84 d2		 test	 dl, dl
  00061	0f 84 e7 01 00
	00		 je	 $LN92@LoadInt_e@3
  00067	80 f2 ed	 xor	 dl, -19			; ffffffedH
  0006a	88 55 e4	 mov	 BYTE PTR __k$[ebp+4], dl
  0006d	8a 50 05	 mov	 dl, BYTE PTR [eax+5]
  00070	84 d2		 test	 dl, dl
  00072	0f 84 d1 01 00
	00		 je	 $LN91@LoadInt_e@3
  00078	32 d3		 xor	 dl, bl
  0007a	88 55 e5	 mov	 BYTE PTR __k$[ebp+5], dl
  0007d	8a 50 06	 mov	 dl, BYTE PTR [eax+6]
  00080	84 d2		 test	 dl, dl
  00082	0f 84 bc 01 00
	00		 je	 $LN90@LoadInt_e@3
  00088	32 d1		 xor	 dl, cl
  0008a	88 55 e6	 mov	 BYTE PTR __k$[ebp+6], dl
  0008d	8a 50 07	 mov	 dl, BYTE PTR [eax+7]
  00090	84 d2		 test	 dl, dl
  00092	0f 84 a6 01 00
	00		 je	 $LN89@LoadInt_e@3
  00098	80 f2 ea	 xor	 dl, -22			; ffffffeaH
  0009b	88 55 e7	 mov	 BYTE PTR __k$[ebp+7], dl
  0009e	8a 50 08	 mov	 dl, BYTE PTR [eax+8]
  000a1	84 d2		 test	 dl, dl
  000a3	0f 84 8f 01 00
	00		 je	 $LN88@LoadInt_e@3
  000a9	80 f2 ed	 xor	 dl, -19			; ffffffedH
  000ac	88 55 e8	 mov	 BYTE PTR __k$[ebp+8], dl
  000af	8a 50 09	 mov	 dl, BYTE PTR [eax+9]
  000b2	84 d2		 test	 dl, dl
  000b4	0f 84 79 01 00
	00		 je	 $LN87@LoadInt_e@3
  000ba	32 d3		 xor	 dl, bl
  000bc	88 55 e9	 mov	 BYTE PTR __k$[ebp+9], dl
  000bf	8a 50 0a	 mov	 dl, BYTE PTR [eax+10]
  000c2	84 d2		 test	 dl, dl
  000c4	0f 84 64 01 00
	00		 je	 $LN86@LoadInt_e@3
  000ca	32 d1		 xor	 dl, cl
  000cc	88 55 ea	 mov	 BYTE PTR __k$[ebp+10], dl
  000cf	8a 50 0b	 mov	 dl, BYTE PTR [eax+11]
  000d2	84 d2		 test	 dl, dl
  000d4	0f 84 4e 01 00
	00		 je	 $LN85@LoadInt_e@3
  000da	80 f2 ea	 xor	 dl, -22			; ffffffeaH
  000dd	88 55 eb	 mov	 BYTE PTR __k$[ebp+11], dl
  000e0	8a 50 0c	 mov	 dl, BYTE PTR [eax+12]
  000e3	84 d2		 test	 dl, dl
  000e5	0f 84 37 01 00
	00		 je	 $LN84@LoadInt_e@3
  000eb	80 f2 ed	 xor	 dl, -19			; ffffffedH
  000ee	88 55 ec	 mov	 BYTE PTR __k$[ebp+12], dl
  000f1	8a 50 0d	 mov	 dl, BYTE PTR [eax+13]
  000f4	84 d2		 test	 dl, dl
  000f6	0f 84 21 01 00
	00		 je	 $LN83@LoadInt_e@3
  000fc	32 d3		 xor	 dl, bl
  000fe	88 55 ed	 mov	 BYTE PTR __k$[ebp+13], dl
  00101	8a 50 0e	 mov	 dl, BYTE PTR [eax+14]
  00104	84 d2		 test	 dl, dl
  00106	0f 84 0c 01 00
	00		 je	 $LN82@LoadInt_e@3
  0010c	32 d1		 xor	 dl, cl
  0010e	88 55 ee	 mov	 BYTE PTR __k$[ebp+14], dl
  00111	8a 50 0f	 mov	 dl, BYTE PTR [eax+15]
  00114	84 d2		 test	 dl, dl
  00116	0f 84 f6 00 00
	00		 je	 $LN81@LoadInt_e@3
  0011c	80 f2 ea	 xor	 dl, -22			; ffffffeaH
  0011f	88 55 ef	 mov	 BYTE PTR __k$[ebp+15], dl
  00122	8a 50 10	 mov	 dl, BYTE PTR [eax+16]
  00125	84 d2		 test	 dl, dl
  00127	0f 84 df 00 00
	00		 je	 $LN80@LoadInt_e@3
  0012d	80 f2 ed	 xor	 dl, -19			; ffffffedH
  00130	88 55 f0	 mov	 BYTE PTR __k$[ebp+16], dl
  00133	8a 50 11	 mov	 dl, BYTE PTR [eax+17]
  00136	84 d2		 test	 dl, dl
  00138	0f 84 c9 00 00
	00		 je	 $LN79@LoadInt_e@3
  0013e	32 d3		 xor	 dl, bl
  00140	88 55 f1	 mov	 BYTE PTR __k$[ebp+17], dl
  00143	8a 50 12	 mov	 dl, BYTE PTR [eax+18]
  00146	84 d2		 test	 dl, dl
  00148	0f 84 b4 00 00
	00		 je	 $LN78@LoadInt_e@3
  0014e	32 d1		 xor	 dl, cl
  00150	88 55 f2	 mov	 BYTE PTR __k$[ebp+18], dl
  00153	8a 50 13	 mov	 dl, BYTE PTR [eax+19]
  00156	84 d2		 test	 dl, dl
  00158	0f 84 9e 00 00
	00		 je	 $LN77@LoadInt_e@3
  0015e	80 f2 ea	 xor	 dl, -22			; ffffffeaH
  00161	88 55 f3	 mov	 BYTE PTR __k$[ebp+19], dl
  00164	8a 50 14	 mov	 dl, BYTE PTR [eax+20]
  00167	84 d2		 test	 dl, dl
  00169	0f 84 87 00 00
	00		 je	 $LN76@LoadInt_e@3
  0016f	80 f2 ed	 xor	 dl, -19			; ffffffedH
  00172	88 55 f4	 mov	 BYTE PTR __k$[ebp+20], dl
  00175	8a 50 15	 mov	 dl, BYTE PTR [eax+21]
  00178	84 d2		 test	 dl, dl
  0017a	74 75		 je	 SHORT $LN75@LoadInt_e@3
  0017c	32 d3		 xor	 dl, bl
  0017e	88 55 f5	 mov	 BYTE PTR __k$[ebp+21], dl
  00181	8a 50 16	 mov	 dl, BYTE PTR [eax+22]
  00184	84 d2		 test	 dl, dl
  00186	74 64		 je	 SHORT $LN74@LoadInt_e@3
  00188	32 d1		 xor	 dl, cl
  0018a	80 78 17 00	 cmp	 BYTE PTR [eax+23], 0
  0018e	88 55 f6	 mov	 BYTE PTR __k$[ebp+22], dl
  00191	0f 84 d3 00 00
	00		 je	 $LN1@LoadInt_e@3
  00197	8a 50 18	 mov	 dl, BYTE PTR [eax+24]
  0019a	84 d2		 test	 dl, dl
  0019c	74 48		 je	 SHORT $LN72@LoadInt_e@3
  0019e	80 f2 ed	 xor	 dl, -19			; ffffffedH
  001a1	88 55 f8	 mov	 BYTE PTR __k$[ebp+24], dl
  001a4	8a 50 19	 mov	 dl, BYTE PTR [eax+25]
  001a7	84 d2		 test	 dl, dl
  001a9	74 33		 je	 SHORT $LN71@LoadInt_e@3
  001ab	32 d3		 xor	 dl, bl
  001ad	88 55 f9	 mov	 BYTE PTR __k$[ebp+25], dl
  001b0	8a 50 1a	 mov	 dl, BYTE PTR [eax+26]
  001b3	84 d2		 test	 dl, dl
  001b5	74 1f		 je	 SHORT $LN70@LoadInt_e@3
  001b7	8a 40 1b	 mov	 al, BYTE PTR [eax+27]
  001ba	32 d1		 xor	 dl, cl
  001bc	88 55 fa	 mov	 BYTE PTR __k$[ebp+26], dl
  001bf	84 c0		 test	 al, al
  001c1	74 0a		 je	 SHORT $LN69@LoadInt_e@3
  001c3	34 ea		 xor	 al, -22			; ffffffeaH
  001c5	88 45 fb	 mov	 BYTE PTR __k$[ebp+27], al
  001c8	e9 9d 00 00 00	 jmp	 $LN1@LoadInt_e@3
$LN69@LoadInt_e@3:
  001cd	c6 45 fb ea	 mov	 BYTE PTR __k$[ebp+27], -22 ; ffffffeaH
  001d1	e9 94 00 00 00	 jmp	 $LN1@LoadInt_e@3
$LN70@LoadInt_e@3:
  001d6	88 4d fa	 mov	 BYTE PTR __k$[ebp+26], cl
  001d9	e9 8c 00 00 00	 jmp	 $LN1@LoadInt_e@3
$LN71@LoadInt_e@3:
  001de	88 5d f9	 mov	 BYTE PTR __k$[ebp+25], bl
  001e1	e9 84 00 00 00	 jmp	 $LN1@LoadInt_e@3
$LN72@LoadInt_e@3:
  001e6	c6 45 f8 ed	 mov	 BYTE PTR __k$[ebp+24], -19 ; ffffffedH
  001ea	eb 7e		 jmp	 SHORT $LN1@LoadInt_e@3
$LN74@LoadInt_e@3:
  001ec	88 4d f6	 mov	 BYTE PTR __k$[ebp+22], cl
  001ef	eb 79		 jmp	 SHORT $LN1@LoadInt_e@3
$LN75@LoadInt_e@3:
  001f1	88 5d f5	 mov	 BYTE PTR __k$[ebp+21], bl
  001f4	eb 74		 jmp	 SHORT $LN1@LoadInt_e@3
$LN76@LoadInt_e@3:
  001f6	c6 45 f4 ed	 mov	 BYTE PTR __k$[ebp+20], -19 ; ffffffedH
  001fa	eb 6e		 jmp	 SHORT $LN1@LoadInt_e@3
$LN77@LoadInt_e@3:
  001fc	c6 45 f3 ea	 mov	 BYTE PTR __k$[ebp+19], -22 ; ffffffeaH
  00200	eb 68		 jmp	 SHORT $LN1@LoadInt_e@3
$LN78@LoadInt_e@3:
  00202	88 4d f2	 mov	 BYTE PTR __k$[ebp+18], cl
  00205	eb 63		 jmp	 SHORT $LN1@LoadInt_e@3
$LN79@LoadInt_e@3:
  00207	88 5d f1	 mov	 BYTE PTR __k$[ebp+17], bl
  0020a	eb 5e		 jmp	 SHORT $LN1@LoadInt_e@3
$LN80@LoadInt_e@3:
  0020c	c6 45 f0 ed	 mov	 BYTE PTR __k$[ebp+16], -19 ; ffffffedH
  00210	eb 58		 jmp	 SHORT $LN1@LoadInt_e@3
$LN81@LoadInt_e@3:
  00212	c6 45 ef ea	 mov	 BYTE PTR __k$[ebp+15], -22 ; ffffffeaH
  00216	eb 52		 jmp	 SHORT $LN1@LoadInt_e@3
$LN82@LoadInt_e@3:
  00218	88 4d ee	 mov	 BYTE PTR __k$[ebp+14], cl
  0021b	eb 4d		 jmp	 SHORT $LN1@LoadInt_e@3
$LN83@LoadInt_e@3:
  0021d	88 5d ed	 mov	 BYTE PTR __k$[ebp+13], bl
  00220	eb 48		 jmp	 SHORT $LN1@LoadInt_e@3
$LN84@LoadInt_e@3:
  00222	c6 45 ec ed	 mov	 BYTE PTR __k$[ebp+12], -19 ; ffffffedH
  00226	eb 42		 jmp	 SHORT $LN1@LoadInt_e@3
$LN85@LoadInt_e@3:
  00228	c6 45 eb ea	 mov	 BYTE PTR __k$[ebp+11], -22 ; ffffffeaH
  0022c	eb 3c		 jmp	 SHORT $LN1@LoadInt_e@3
$LN86@LoadInt_e@3:
  0022e	88 4d ea	 mov	 BYTE PTR __k$[ebp+10], cl
  00231	eb 37		 jmp	 SHORT $LN1@LoadInt_e@3
$LN87@LoadInt_e@3:
  00233	88 5d e9	 mov	 BYTE PTR __k$[ebp+9], bl
  00236	eb 32		 jmp	 SHORT $LN1@LoadInt_e@3
$LN88@LoadInt_e@3:
  00238	c6 45 e8 ed	 mov	 BYTE PTR __k$[ebp+8], -19 ; ffffffedH
  0023c	eb 2c		 jmp	 SHORT $LN1@LoadInt_e@3
$LN89@LoadInt_e@3:
  0023e	c6 45 e7 ea	 mov	 BYTE PTR __k$[ebp+7], -22 ; ffffffeaH
  00242	eb 26		 jmp	 SHORT $LN1@LoadInt_e@3
$LN90@LoadInt_e@3:
  00244	88 4d e6	 mov	 BYTE PTR __k$[ebp+6], cl
  00247	eb 21		 jmp	 SHORT $LN1@LoadInt_e@3
$LN91@LoadInt_e@3:
  00249	88 5d e5	 mov	 BYTE PTR __k$[ebp+5], bl
  0024c	eb 1c		 jmp	 SHORT $LN1@LoadInt_e@3
$LN92@LoadInt_e@3:
  0024e	c6 45 e4 ed	 mov	 BYTE PTR __k$[ebp+4], -19 ; ffffffedH
  00252	eb 16		 jmp	 SHORT $LN1@LoadInt_e@3
$LN93@LoadInt_e@3:
  00254	c6 45 e3 ea	 mov	 BYTE PTR __k$[ebp+3], -22 ; ffffffeaH
  00258	eb 10		 jmp	 SHORT $LN1@LoadInt_e@3
$LN94@LoadInt_e@3:
  0025a	c6 45 e2 eb	 mov	 BYTE PTR __k$[ebp+2], -21 ; ffffffebH
  0025e	eb 0a		 jmp	 SHORT $LN1@LoadInt_e@3
$LN95@LoadInt_e@3:
  00260	c6 45 e1 ec	 mov	 BYTE PTR __k$[ebp+1], -20 ; ffffffecH
  00264	eb 04		 jmp	 SHORT $LN1@LoadInt_e@3
$LN96@LoadInt_e@3:
  00266	c6 45 e0 ed	 mov	 BYTE PTR __k$[ebp], -19	; ffffffedH
$LN1@LoadInt_e@3:
  0026a	6a 05		 push	 5
  0026c	8d 45 e0	 lea	 eax, DWORD PTR __k$[ebp]
  0026f	c6 45 f7 00	 mov	 BYTE PTR __k$[ebp+23], 0
  00273	5a		 pop	 edx
$LL104@LoadInt_e@3:
  00274	81 30 ed ec eb
	ea		 xor	 DWORD PTR [eax], -353637139 ; eaebecedH
  0027a	83 c0 04	 add	 eax, 4
  0027d	4a		 dec	 edx
  0027e	75 f4		 jne	 SHORT $LL104@LoadInt_e@3
  00280	6a 14		 push	 20			; 00000014H
  00282	58		 pop	 eax
$LL101@LoadInt_e@3:
  00283	8b c8		 mov	 ecx, eax
  00285	81 e1 03 00 00
	80		 and	 ecx, -2147483645	; 80000003H
  0028b	79 05		 jns	 SHORT $LN111@LoadInt_e@3
  0028d	49		 dec	 ecx
  0028e	83 c9 fc	 or	 ecx, -4			; fffffffcH
  00291	41		 inc	 ecx
$LN111@LoadInt_e@3:
  00292	b2 ed		 mov	 dl, -19			; ffffffedH
  00294	2a d1		 sub	 dl, cl
  00296	30 54 05 e0	 xor	 BYTE PTR __k$[ebp+eax], dl
  0029a	40		 inc	 eax
  0029b	83 f8 17	 cmp	 eax, 23			; 00000017H
  0029e	7c e3		 jl	 SHORT $LL101@LoadInt_e@3

; 120  : 		return LoadInt(_k, i);

  002a0	ff 75 0c	 push	 DWORD PTR _i$[ebp]
  002a3	8d 45 e0	 lea	 eax, DWORD PTR __k$[ebp]
  002a6	50		 push	 eax
  002a7	8b ce		 mov	 ecx, esi
  002a9	ff 15 00 00 00
	00		 call	 DWORD PTR __imp_?LoadInt@ioINILoader@@QAEHPBDH@Z

; 121  : 	}

  002af	8b 4d fc	 mov	 ecx, DWORD PTR __$ArrayPad$[ebp]
  002b2	5e		 pop	 esi
  002b3	33 cd		 xor	 ecx, ebp
  002b5	5b		 pop	 ebx
  002b6	e8 00 00 00 00	 call	 @__security_check_cookie@4
  002bb	c9		 leave
  002bc	c2 08 00	 ret	 8
??$LoadInt_e@$0BI@@ioINILoader@@QAEHAAY0BI@$$CBDH@Z ENDP ; ioINILoader::LoadInt_e<24>
_TEXT	ENDS
PUBLIC	__$ArrayPad$
PUBLIC	??$LoadInt_e@$0BN@@ioINILoader@@QAEHAAY0BN@$$CBDH@Z ; ioINILoader::LoadInt_e<29>
; Function compile flags: /Ogsp
;	COMDAT ??$LoadInt_e@$0BN@@ioINILoader@@QAEHAAY0BN@$$CBDH@Z
_TEXT	SEGMENT
__k$ = -40						; size = 29
__$ArrayPad$ = -4					; size = 4
_k$ = 8							; size = 4
_i$ = 12						; size = 4
??$LoadInt_e@$0BN@@ioINILoader@@QAEHAAY0BN@$$CBDH@Z PROC ; ioINILoader::LoadInt_e<29>, COMDAT
; _this$ = ecx

; 118  : 	{

  00000	55		 push	 ebp
  00001	8b ec		 mov	 ebp, esp
  00003	83 ec 28	 sub	 esp, 40			; 00000028H
  00006	a1 00 00 00 00	 mov	 eax, DWORD PTR ___security_cookie
  0000b	33 c5		 xor	 eax, ebp
  0000d	89 45 fc	 mov	 DWORD PTR __$ArrayPad$[ebp], eax
  00010	8b 45 08	 mov	 eax, DWORD PTR _k$[ebp]

; 119  : 		_ENCSTR(k, _k);

  00013	8a 10		 mov	 dl, BYTE PTR [eax]
  00015	53		 push	 ebx
  00016	56		 push	 esi
  00017	8b f1		 mov	 esi, ecx
  00019	84 d2		 test	 dl, dl
  0001b	0f 84 c3 02 00
	00		 je	 $LN96@LoadInt_e@4
  00021	80 f2 ed	 xor	 dl, -19			; ffffffedH
  00024	88 55 d8	 mov	 BYTE PTR __k$[ebp], dl
  00027	8a 50 01	 mov	 dl, BYTE PTR [eax+1]
  0002a	84 d2		 test	 dl, dl
  0002c	0f 84 ac 02 00
	00		 je	 $LN95@LoadInt_e@4
  00032	b1 ec		 mov	 cl, -20			; ffffffecH
  00034	32 d1		 xor	 dl, cl
  00036	88 55 d9	 mov	 BYTE PTR __k$[ebp+1], dl
  00039	8a 50 02	 mov	 dl, BYTE PTR [eax+2]
  0003c	84 d2		 test	 dl, dl
  0003e	0f 84 94 02 00
	00		 je	 $LN94@LoadInt_e@4
  00044	b3 eb		 mov	 bl, -21			; ffffffebH
  00046	32 d3		 xor	 dl, bl
  00048	88 55 da	 mov	 BYTE PTR __k$[ebp+2], dl
  0004b	8a 50 03	 mov	 dl, BYTE PTR [eax+3]
  0004e	84 d2		 test	 dl, dl
  00050	0f 84 7c 02 00
	00		 je	 $LN93@LoadInt_e@4
  00056	80 f2 ea	 xor	 dl, -22			; ffffffeaH
  00059	88 55 db	 mov	 BYTE PTR __k$[ebp+3], dl
  0005c	8a 50 04	 mov	 dl, BYTE PTR [eax+4]
  0005f	84 d2		 test	 dl, dl
  00061	0f 84 65 02 00
	00		 je	 $LN92@LoadInt_e@4
  00067	80 f2 ed	 xor	 dl, -19			; ffffffedH
  0006a	88 55 dc	 mov	 BYTE PTR __k$[ebp+4], dl
  0006d	8a 50 05	 mov	 dl, BYTE PTR [eax+5]
  00070	84 d2		 test	 dl, dl
  00072	0f 84 4f 02 00
	00		 je	 $LN91@LoadInt_e@4
  00078	32 d1		 xor	 dl, cl
  0007a	88 55 dd	 mov	 BYTE PTR __k$[ebp+5], dl
  0007d	8a 50 06	 mov	 dl, BYTE PTR [eax+6]
  00080	84 d2		 test	 dl, dl
  00082	0f 84 3a 02 00
	00		 je	 $LN90@LoadInt_e@4
  00088	32 d3		 xor	 dl, bl
  0008a	88 55 de	 mov	 BYTE PTR __k$[ebp+6], dl
  0008d	8a 50 07	 mov	 dl, BYTE PTR [eax+7]
  00090	84 d2		 test	 dl, dl
  00092	0f 84 24 02 00
	00		 je	 $LN89@LoadInt_e@4
  00098	80 f2 ea	 xor	 dl, -22			; ffffffeaH
  0009b	88 55 df	 mov	 BYTE PTR __k$[ebp+7], dl
  0009e	8a 50 08	 mov	 dl, BYTE PTR [eax+8]
  000a1	84 d2		 test	 dl, dl
  000a3	0f 84 0d 02 00
	00		 je	 $LN88@LoadInt_e@4
  000a9	80 f2 ed	 xor	 dl, -19			; ffffffedH
  000ac	88 55 e0	 mov	 BYTE PTR __k$[ebp+8], dl
  000af	8a 50 09	 mov	 dl, BYTE PTR [eax+9]
  000b2	84 d2		 test	 dl, dl
  000b4	0f 84 f7 01 00
	00		 je	 $LN87@LoadInt_e@4
  000ba	32 d1		 xor	 dl, cl
  000bc	88 55 e1	 mov	 BYTE PTR __k$[ebp+9], dl
  000bf	8a 50 0a	 mov	 dl, BYTE PTR [eax+10]
  000c2	84 d2		 test	 dl, dl
  000c4	0f 84 e2 01 00
	00		 je	 $LN86@LoadInt_e@4
  000ca	32 d3		 xor	 dl, bl
  000cc	88 55 e2	 mov	 BYTE PTR __k$[ebp+10], dl
  000cf	8a 50 0b	 mov	 dl, BYTE PTR [eax+11]
  000d2	84 d2		 test	 dl, dl
  000d4	0f 84 cc 01 00
	00		 je	 $LN85@LoadInt_e@4
  000da	80 f2 ea	 xor	 dl, -22			; ffffffeaH
  000dd	88 55 e3	 mov	 BYTE PTR __k$[ebp+11], dl
  000e0	8a 50 0c	 mov	 dl, BYTE PTR [eax+12]
  000e3	84 d2		 test	 dl, dl
  000e5	0f 84 b5 01 00
	00		 je	 $LN84@LoadInt_e@4
  000eb	80 f2 ed	 xor	 dl, -19			; ffffffedH
  000ee	88 55 e4	 mov	 BYTE PTR __k$[ebp+12], dl
  000f1	8a 50 0d	 mov	 dl, BYTE PTR [eax+13]
  000f4	84 d2		 test	 dl, dl
  000f6	0f 84 9f 01 00
	00		 je	 $LN83@LoadInt_e@4
  000fc	32 d1		 xor	 dl, cl
  000fe	88 55 e5	 mov	 BYTE PTR __k$[ebp+13], dl
  00101	8a 50 0e	 mov	 dl, BYTE PTR [eax+14]
  00104	84 d2		 test	 dl, dl
  00106	0f 84 8a 01 00
	00		 je	 $LN82@LoadInt_e@4
  0010c	32 d3		 xor	 dl, bl
  0010e	88 55 e6	 mov	 BYTE PTR __k$[ebp+14], dl
  00111	8a 50 0f	 mov	 dl, BYTE PTR [eax+15]
  00114	84 d2		 test	 dl, dl
  00116	0f 84 74 01 00
	00		 je	 $LN81@LoadInt_e@4
  0011c	80 f2 ea	 xor	 dl, -22			; ffffffeaH
  0011f	88 55 e7	 mov	 BYTE PTR __k$[ebp+15], dl
  00122	8a 50 10	 mov	 dl, BYTE PTR [eax+16]
  00125	84 d2		 test	 dl, dl
  00127	0f 84 5d 01 00
	00		 je	 $LN80@LoadInt_e@4
  0012d	80 f2 ed	 xor	 dl, -19			; ffffffedH
  00130	88 55 e8	 mov	 BYTE PTR __k$[ebp+16], dl
  00133	8a 50 11	 mov	 dl, BYTE PTR [eax+17]
  00136	84 d2		 test	 dl, dl
  00138	0f 84 47 01 00
	00		 je	 $LN79@LoadInt_e@4
  0013e	32 d1		 xor	 dl, cl
  00140	88 55 e9	 mov	 BYTE PTR __k$[ebp+17], dl
  00143	8a 50 12	 mov	 dl, BYTE PTR [eax+18]
  00146	84 d2		 test	 dl, dl
  00148	0f 84 32 01 00
	00		 je	 $LN78@LoadInt_e@4
  0014e	32 d3		 xor	 dl, bl
  00150	88 55 ea	 mov	 BYTE PTR __k$[ebp+18], dl
  00153	8a 50 13	 mov	 dl, BYTE PTR [eax+19]
  00156	84 d2		 test	 dl, dl
  00158	0f 84 1c 01 00
	00		 je	 $LN77@LoadInt_e@4
  0015e	80 f2 ea	 xor	 dl, -22			; ffffffeaH
  00161	88 55 eb	 mov	 BYTE PTR __k$[ebp+19], dl
  00164	8a 50 14	 mov	 dl, BYTE PTR [eax+20]
  00167	84 d2		 test	 dl, dl
  00169	0f 84 05 01 00
	00		 je	 $LN76@LoadInt_e@4
  0016f	80 f2 ed	 xor	 dl, -19			; ffffffedH
  00172	88 55 ec	 mov	 BYTE PTR __k$[ebp+20], dl
  00175	8a 50 15	 mov	 dl, BYTE PTR [eax+21]
  00178	84 d2		 test	 dl, dl
  0017a	0f 84 ef 00 00
	00		 je	 $LN75@LoadInt_e@4
  00180	32 d1		 xor	 dl, cl
  00182	88 55 ed	 mov	 BYTE PTR __k$[ebp+21], dl
  00185	8a 50 16	 mov	 dl, BYTE PTR [eax+22]
  00188	84 d2		 test	 dl, dl
  0018a	0f 84 da 00 00
	00		 je	 $LN74@LoadInt_e@4
  00190	32 d3		 xor	 dl, bl
  00192	88 55 ee	 mov	 BYTE PTR __k$[ebp+22], dl
  00195	8a 50 17	 mov	 dl, BYTE PTR [eax+23]
  00198	84 d2		 test	 dl, dl
  0019a	0f 84 c4 00 00
	00		 je	 $LN73@LoadInt_e@4
  001a0	80 f2 ea	 xor	 dl, -22			; ffffffeaH
  001a3	88 55 ef	 mov	 BYTE PTR __k$[ebp+23], dl
  001a6	8a 50 18	 mov	 dl, BYTE PTR [eax+24]
  001a9	84 d2		 test	 dl, dl
  001ab	0f 84 aa 00 00
	00		 je	 $LN72@LoadInt_e@4
  001b1	80 f2 ed	 xor	 dl, -19			; ffffffedH
  001b4	88 55 f0	 mov	 BYTE PTR __k$[ebp+24], dl
  001b7	8a 50 19	 mov	 dl, BYTE PTR [eax+25]
  001ba	84 d2		 test	 dl, dl
  001bc	0f 84 91 00 00
	00		 je	 $LN71@LoadInt_e@4
  001c2	32 d1		 xor	 dl, cl
  001c4	88 55 f1	 mov	 BYTE PTR __k$[ebp+25], dl
  001c7	8a 50 1a	 mov	 dl, BYTE PTR [eax+26]
  001ca	84 d2		 test	 dl, dl
  001cc	74 7d		 je	 SHORT $LN70@LoadInt_e@4
  001ce	32 d3		 xor	 dl, bl
  001d0	88 55 f2	 mov	 BYTE PTR __k$[ebp+26], dl
  001d3	8a 50 1b	 mov	 dl, BYTE PTR [eax+27]
  001d6	84 d2		 test	 dl, dl
  001d8	74 68		 je	 SHORT $LN69@LoadInt_e@4
  001da	80 f2 ea	 xor	 dl, -22			; ffffffeaH
  001dd	80 78 1c 00	 cmp	 BYTE PTR [eax+28], 0
  001e1	88 55 f3	 mov	 BYTE PTR __k$[ebp+27], dl
  001e4	0f 84 fe 00 00
	00		 je	 $LN1@LoadInt_e@4
  001ea	8a 50 1d	 mov	 dl, BYTE PTR [eax+29]
  001ed	84 d2		 test	 dl, dl
  001ef	74 49		 je	 SHORT $LN67@LoadInt_e@4
  001f1	32 d1		 xor	 dl, cl
  001f3	88 55 f5	 mov	 BYTE PTR __k$[ebp+29], dl
  001f6	8a 50 1e	 mov	 dl, BYTE PTR [eax+30]
  001f9	84 d2		 test	 dl, dl
  001fb	74 35		 je	 SHORT $LN66@LoadInt_e@4
  001fd	32 d3		 xor	 dl, bl
  001ff	88 55 f6	 mov	 BYTE PTR __k$[ebp+30], dl
  00202	8a 50 1f	 mov	 dl, BYTE PTR [eax+31]
  00205	84 d2		 test	 dl, dl
  00207	74 20		 je	 SHORT $LN65@LoadInt_e@4
  00209	8a 40 20	 mov	 al, BYTE PTR [eax+32]
  0020c	80 f2 ea	 xor	 dl, -22			; ffffffeaH
  0020f	88 55 f7	 mov	 BYTE PTR __k$[ebp+31], dl
  00212	84 c0		 test	 al, al
  00214	74 0a		 je	 SHORT $LN64@LoadInt_e@4
  00216	34 ed		 xor	 al, -19			; ffffffedH
  00218	88 45 f8	 mov	 BYTE PTR __k$[ebp+32], al
  0021b	e9 c8 00 00 00	 jmp	 $LN1@LoadInt_e@4
$LN64@LoadInt_e@4:
  00220	c6 45 f8 ed	 mov	 BYTE PTR __k$[ebp+32], -19 ; ffffffedH
  00224	e9 bf 00 00 00	 jmp	 $LN1@LoadInt_e@4
$LN65@LoadInt_e@4:
  00229	c6 45 f7 ea	 mov	 BYTE PTR __k$[ebp+31], -22 ; ffffffeaH
  0022d	e9 b6 00 00 00	 jmp	 $LN1@LoadInt_e@4
$LN66@LoadInt_e@4:
  00232	88 5d f6	 mov	 BYTE PTR __k$[ebp+30], bl
  00235	e9 ae 00 00 00	 jmp	 $LN1@LoadInt_e@4
$LN67@LoadInt_e@4:
  0023a	88 4d f5	 mov	 BYTE PTR __k$[ebp+29], cl
  0023d	e9 a6 00 00 00	 jmp	 $LN1@LoadInt_e@4
$LN69@LoadInt_e@4:
  00242	c6 45 f3 ea	 mov	 BYTE PTR __k$[ebp+27], -22 ; ffffffeaH
  00246	e9 9d 00 00 00	 jmp	 $LN1@LoadInt_e@4
$LN70@LoadInt_e@4:
  0024b	88 5d f2	 mov	 BYTE PTR __k$[ebp+26], bl
  0024e	e9 95 00 00 00	 jmp	 $LN1@LoadInt_e@4
$LN71@LoadInt_e@4:
  00253	88 4d f1	 mov	 BYTE PTR __k$[ebp+25], cl
  00256	e9 8d 00 00 00	 jmp	 $LN1@LoadInt_e@4
$LN72@LoadInt_e@4:
  0025b	c6 45 f0 ed	 mov	 BYTE PTR __k$[ebp+24], -19 ; ffffffedH
  0025f	e9 84 00 00 00	 jmp	 $LN1@LoadInt_e@4
$LN73@LoadInt_e@4:
  00264	c6 45 ef ea	 mov	 BYTE PTR __k$[ebp+23], -22 ; ffffffeaH
  00268	eb 7e		 jmp	 SHORT $LN1@LoadInt_e@4
$LN74@LoadInt_e@4:
  0026a	88 5d ee	 mov	 BYTE PTR __k$[ebp+22], bl
  0026d	eb 79		 jmp	 SHORT $LN1@LoadInt_e@4
$LN75@LoadInt_e@4:
  0026f	88 4d ed	 mov	 BYTE PTR __k$[ebp+21], cl
  00272	eb 74		 jmp	 SHORT $LN1@LoadInt_e@4
$LN76@LoadInt_e@4:
  00274	c6 45 ec ed	 mov	 BYTE PTR __k$[ebp+20], -19 ; ffffffedH
  00278	eb 6e		 jmp	 SHORT $LN1@LoadInt_e@4
$LN77@LoadInt_e@4:
  0027a	c6 45 eb ea	 mov	 BYTE PTR __k$[ebp+19], -22 ; ffffffeaH
  0027e	eb 68		 jmp	 SHORT $LN1@LoadInt_e@4
$LN78@LoadInt_e@4:
  00280	88 5d ea	 mov	 BYTE PTR __k$[ebp+18], bl
  00283	eb 63		 jmp	 SHORT $LN1@LoadInt_e@4
$LN79@LoadInt_e@4:
  00285	88 4d e9	 mov	 BYTE PTR __k$[ebp+17], cl
  00288	eb 5e		 jmp	 SHORT $LN1@LoadInt_e@4
$LN80@LoadInt_e@4:
  0028a	c6 45 e8 ed	 mov	 BYTE PTR __k$[ebp+16], -19 ; ffffffedH
  0028e	eb 58		 jmp	 SHORT $LN1@LoadInt_e@4
$LN81@LoadInt_e@4:
  00290	c6 45 e7 ea	 mov	 BYTE PTR __k$[ebp+15], -22 ; ffffffeaH
  00294	eb 52		 jmp	 SHORT $LN1@LoadInt_e@4
$LN82@LoadInt_e@4:
  00296	88 5d e6	 mov	 BYTE PTR __k$[ebp+14], bl
  00299	eb 4d		 jmp	 SHORT $LN1@LoadInt_e@4
$LN83@LoadInt_e@4:
  0029b	88 4d e5	 mov	 BYTE PTR __k$[ebp+13], cl
  0029e	eb 48		 jmp	 SHORT $LN1@LoadInt_e@4
$LN84@LoadInt_e@4:
  002a0	c6 45 e4 ed	 mov	 BYTE PTR __k$[ebp+12], -19 ; ffffffedH
  002a4	eb 42		 jmp	 SHORT $LN1@LoadInt_e@4
$LN85@LoadInt_e@4:
  002a6	c6 45 e3 ea	 mov	 BYTE PTR __k$[ebp+11], -22 ; ffffffeaH
  002aa	eb 3c		 jmp	 SHORT $LN1@LoadInt_e@4
$LN86@LoadInt_e@4:
  002ac	88 5d e2	 mov	 BYTE PTR __k$[ebp+10], bl
  002af	eb 37		 jmp	 SHORT $LN1@LoadInt_e@4
$LN87@LoadInt_e@4:
  002b1	88 4d e1	 mov	 BYTE PTR __k$[ebp+9], cl
  002b4	eb 32		 jmp	 SHORT $LN1@LoadInt_e@4
$LN88@LoadInt_e@4:
  002b6	c6 45 e0 ed	 mov	 BYTE PTR __k$[ebp+8], -19 ; ffffffedH
  002ba	eb 2c		 jmp	 SHORT $LN1@LoadInt_e@4
$LN89@LoadInt_e@4:
  002bc	c6 45 df ea	 mov	 BYTE PTR __k$[ebp+7], -22 ; ffffffeaH
  002c0	eb 26		 jmp	 SHORT $LN1@LoadInt_e@4
$LN90@LoadInt_e@4:
  002c2	88 5d de	 mov	 BYTE PTR __k$[ebp+6], bl
  002c5	eb 21		 jmp	 SHORT $LN1@LoadInt_e@4
$LN91@LoadInt_e@4:
  002c7	88 4d dd	 mov	 BYTE PTR __k$[ebp+5], cl
  002ca	eb 1c		 jmp	 SHORT $LN1@LoadInt_e@4
$LN92@LoadInt_e@4:
  002cc	c6 45 dc ed	 mov	 BYTE PTR __k$[ebp+4], -19 ; ffffffedH
  002d0	eb 16		 jmp	 SHORT $LN1@LoadInt_e@4
$LN93@LoadInt_e@4:
  002d2	c6 45 db ea	 mov	 BYTE PTR __k$[ebp+3], -22 ; ffffffeaH
  002d6	eb 10		 jmp	 SHORT $LN1@LoadInt_e@4
$LN94@LoadInt_e@4:
  002d8	c6 45 da eb	 mov	 BYTE PTR __k$[ebp+2], -21 ; ffffffebH
  002dc	eb 0a		 jmp	 SHORT $LN1@LoadInt_e@4
$LN95@LoadInt_e@4:
  002de	c6 45 d9 ec	 mov	 BYTE PTR __k$[ebp+1], -20 ; ffffffecH
  002e2	eb 04		 jmp	 SHORT $LN1@LoadInt_e@4
$LN96@LoadInt_e@4:
  002e4	c6 45 d8 ed	 mov	 BYTE PTR __k$[ebp], -19	; ffffffedH
$LN1@LoadInt_e@4:
  002e8	6a 07		 push	 7
  002ea	8d 45 d8	 lea	 eax, DWORD PTR __k$[ebp]
  002ed	c6 45 f4 00	 mov	 BYTE PTR __k$[ebp+28], 0
  002f1	5a		 pop	 edx
$LL104@LoadInt_e@4:
  002f2	81 30 ed ec eb
	ea		 xor	 DWORD PTR [eax], -353637139 ; eaebecedH
  002f8	83 c0 04	 add	 eax, 4
  002fb	4a		 dec	 edx
  002fc	75 f4		 jne	 SHORT $LL104@LoadInt_e@4

; 120  : 		return LoadInt(_k, i);

  002fe	ff 75 0c	 push	 DWORD PTR _i$[ebp]
  00301	8d 45 d8	 lea	 eax, DWORD PTR __k$[ebp]
  00304	50		 push	 eax
  00305	8b ce		 mov	 ecx, esi
  00307	ff 15 00 00 00
	00		 call	 DWORD PTR __imp_?LoadInt@ioINILoader@@QAEHPBDH@Z

; 121  : 	}

  0030d	8b 4d fc	 mov	 ecx, DWORD PTR __$ArrayPad$[ebp]
  00310	5e		 pop	 esi
  00311	33 cd		 xor	 ecx, ebp
  00313	5b		 pop	 ebx
  00314	e8 00 00 00 00	 call	 @__security_check_cookie@4
  00319	c9		 leave
  0031a	c2 08 00	 ret	 8
??$LoadInt_e@$0BN@@ioINILoader@@QAEHAAY0BN@$$CBDH@Z ENDP ; ioINILoader::LoadInt_e<29>
_TEXT	ENDS
PUBLIC	__$ArrayPad$
PUBLIC	??$LoadFloat_e@$0BF@@ioINILoader@@QAEMAAY0BF@$$CBDM@Z ; ioINILoader::LoadFloat_e<21>
EXTRN	__imp_?LoadFloat@ioINILoader@@QAEMPBDM@Z:PROC
; Function compile flags: /Ogsp
;	COMDAT ??$LoadFloat_e@$0BF@@ioINILoader@@QAEMAAY0BF@$$CBDM@Z
_TEXT	SEGMENT
__k$ = -32						; size = 21
__$ArrayPad$ = -4					; size = 4
_k$ = 8							; size = 4
_f$ = 12						; size = 4
??$LoadFloat_e@$0BF@@ioINILoader@@QAEMAAY0BF@$$CBDM@Z PROC ; ioINILoader::LoadFloat_e<21>, COMDAT
; _this$ = ecx

; 135  : 	{

  00000	55		 push	 ebp
  00001	8b ec		 mov	 ebp, esp
  00003	83 ec 20	 sub	 esp, 32			; 00000020H
  00006	a1 00 00 00 00	 mov	 eax, DWORD PTR ___security_cookie
  0000b	33 c5		 xor	 eax, ebp
  0000d	89 45 fc	 mov	 DWORD PTR __$ArrayPad$[ebp], eax
  00010	8b 45 08	 mov	 eax, DWORD PTR _k$[ebp]

; 136  : 		_ENCSTR(k, _k);

  00013	8a 10		 mov	 dl, BYTE PTR [eax]
  00015	53		 push	 ebx
  00016	56		 push	 esi
  00017	8b f1		 mov	 esi, ecx
  00019	84 d2		 test	 dl, dl
  0001b	0f 84 f7 01 00
	00		 je	 $LN96@LoadFloat_
  00021	80 f2 ed	 xor	 dl, -19			; ffffffedH
  00024	88 55 e0	 mov	 BYTE PTR __k$[ebp], dl
  00027	8a 50 01	 mov	 dl, BYTE PTR [eax+1]
  0002a	84 d2		 test	 dl, dl
  0002c	0f 84 e0 01 00
	00		 je	 $LN95@LoadFloat_
  00032	b1 ec		 mov	 cl, -20			; ffffffecH
  00034	32 d1		 xor	 dl, cl
  00036	88 55 e1	 mov	 BYTE PTR __k$[ebp+1], dl
  00039	8a 50 02	 mov	 dl, BYTE PTR [eax+2]
  0003c	84 d2		 test	 dl, dl
  0003e	0f 84 c8 01 00
	00		 je	 $LN94@LoadFloat_
  00044	b3 eb		 mov	 bl, -21			; ffffffebH
  00046	32 d3		 xor	 dl, bl
  00048	88 55 e2	 mov	 BYTE PTR __k$[ebp+2], dl
  0004b	8a 50 03	 mov	 dl, BYTE PTR [eax+3]
  0004e	84 d2		 test	 dl, dl
  00050	0f 84 b0 01 00
	00		 je	 $LN93@LoadFloat_
  00056	80 f2 ea	 xor	 dl, -22			; ffffffeaH
  00059	88 55 e3	 mov	 BYTE PTR __k$[ebp+3], dl
  0005c	8a 50 04	 mov	 dl, BYTE PTR [eax+4]
  0005f	84 d2		 test	 dl, dl
  00061	0f 84 99 01 00
	00		 je	 $LN92@LoadFloat_
  00067	80 f2 ed	 xor	 dl, -19			; ffffffedH
  0006a	88 55 e4	 mov	 BYTE PTR __k$[ebp+4], dl
  0006d	8a 50 05	 mov	 dl, BYTE PTR [eax+5]
  00070	84 d2		 test	 dl, dl
  00072	0f 84 83 01 00
	00		 je	 $LN91@LoadFloat_
  00078	32 d1		 xor	 dl, cl
  0007a	88 55 e5	 mov	 BYTE PTR __k$[ebp+5], dl
  0007d	8a 50 06	 mov	 dl, BYTE PTR [eax+6]
  00080	84 d2		 test	 dl, dl
  00082	0f 84 6e 01 00
	00		 je	 $LN90@LoadFloat_
  00088	32 d3		 xor	 dl, bl
  0008a	88 55 e6	 mov	 BYTE PTR __k$[ebp+6], dl
  0008d	8a 50 07	 mov	 dl, BYTE PTR [eax+7]
  00090	84 d2		 test	 dl, dl
  00092	0f 84 58 01 00
	00		 je	 $LN89@LoadFloat_
  00098	80 f2 ea	 xor	 dl, -22			; ffffffeaH
  0009b	88 55 e7	 mov	 BYTE PTR __k$[ebp+7], dl
  0009e	8a 50 08	 mov	 dl, BYTE PTR [eax+8]
  000a1	84 d2		 test	 dl, dl
  000a3	0f 84 41 01 00
	00		 je	 $LN88@LoadFloat_
  000a9	80 f2 ed	 xor	 dl, -19			; ffffffedH
  000ac	88 55 e8	 mov	 BYTE PTR __k$[ebp+8], dl
  000af	8a 50 09	 mov	 dl, BYTE PTR [eax+9]
  000b2	84 d2		 test	 dl, dl
  000b4	0f 84 2b 01 00
	00		 je	 $LN87@LoadFloat_
  000ba	32 d1		 xor	 dl, cl
  000bc	88 55 e9	 mov	 BYTE PTR __k$[ebp+9], dl
  000bf	8a 50 0a	 mov	 dl, BYTE PTR [eax+10]
  000c2	84 d2		 test	 dl, dl
  000c4	0f 84 16 01 00
	00		 je	 $LN86@LoadFloat_
  000ca	32 d3		 xor	 dl, bl
  000cc	88 55 ea	 mov	 BYTE PTR __k$[ebp+10], dl
  000cf	8a 50 0b	 mov	 dl, BYTE PTR [eax+11]
  000d2	84 d2		 test	 dl, dl
  000d4	0f 84 00 01 00
	00		 je	 $LN85@LoadFloat_
  000da	80 f2 ea	 xor	 dl, -22			; ffffffeaH
  000dd	88 55 eb	 mov	 BYTE PTR __k$[ebp+11], dl
  000e0	8a 50 0c	 mov	 dl, BYTE PTR [eax+12]
  000e3	84 d2		 test	 dl, dl
  000e5	0f 84 e9 00 00
	00		 je	 $LN84@LoadFloat_
  000eb	80 f2 ed	 xor	 dl, -19			; ffffffedH
  000ee	88 55 ec	 mov	 BYTE PTR __k$[ebp+12], dl
  000f1	8a 50 0d	 mov	 dl, BYTE PTR [eax+13]
  000f4	84 d2		 test	 dl, dl
  000f6	0f 84 d3 00 00
	00		 je	 $LN83@LoadFloat_
  000fc	32 d1		 xor	 dl, cl
  000fe	88 55 ed	 mov	 BYTE PTR __k$[ebp+13], dl
  00101	8a 50 0e	 mov	 dl, BYTE PTR [eax+14]
  00104	84 d2		 test	 dl, dl
  00106	0f 84 be 00 00
	00		 je	 $LN82@LoadFloat_
  0010c	32 d3		 xor	 dl, bl
  0010e	88 55 ee	 mov	 BYTE PTR __k$[ebp+14], dl
  00111	8a 50 0f	 mov	 dl, BYTE PTR [eax+15]
  00114	84 d2		 test	 dl, dl
  00116	0f 84 a8 00 00
	00		 je	 $LN81@LoadFloat_
  0011c	80 f2 ea	 xor	 dl, -22			; ffffffeaH
  0011f	88 55 ef	 mov	 BYTE PTR __k$[ebp+15], dl
  00122	8a 50 10	 mov	 dl, BYTE PTR [eax+16]
  00125	84 d2		 test	 dl, dl
  00127	0f 84 91 00 00
	00		 je	 $LN80@LoadFloat_
  0012d	80 f2 ed	 xor	 dl, -19			; ffffffedH
  00130	88 55 f0	 mov	 BYTE PTR __k$[ebp+16], dl
  00133	8a 50 11	 mov	 dl, BYTE PTR [eax+17]
  00136	84 d2		 test	 dl, dl
  00138	74 7f		 je	 SHORT $LN79@LoadFloat_
  0013a	32 d1		 xor	 dl, cl
  0013c	88 55 f1	 mov	 BYTE PTR __k$[ebp+17], dl
  0013f	8a 50 12	 mov	 dl, BYTE PTR [eax+18]
  00142	84 d2		 test	 dl, dl
  00144	74 6e		 je	 SHORT $LN78@LoadFloat_
  00146	32 d3		 xor	 dl, bl
  00148	88 55 f2	 mov	 BYTE PTR __k$[ebp+18], dl
  0014b	8a 50 13	 mov	 dl, BYTE PTR [eax+19]
  0014e	84 d2		 test	 dl, dl
  00150	74 5c		 je	 SHORT $LN77@LoadFloat_
  00152	80 f2 ea	 xor	 dl, -22			; ffffffeaH
  00155	80 78 14 00	 cmp	 BYTE PTR [eax+20], 0
  00159	88 55 f3	 mov	 BYTE PTR __k$[ebp+19], dl
  0015c	0f 84 ba 00 00
	00		 je	 $LN1@LoadFloat_
  00162	8a 50 15	 mov	 dl, BYTE PTR [eax+21]
  00165	84 d2		 test	 dl, dl
  00167	74 40		 je	 SHORT $LN75@LoadFloat_
  00169	32 d1		 xor	 dl, cl
  0016b	88 55 f5	 mov	 BYTE PTR __k$[ebp+21], dl
  0016e	8a 50 16	 mov	 dl, BYTE PTR [eax+22]
  00171	84 d2		 test	 dl, dl
  00173	74 2f		 je	 SHORT $LN74@LoadFloat_
  00175	32 d3		 xor	 dl, bl
  00177	88 55 f6	 mov	 BYTE PTR __k$[ebp+22], dl
  0017a	8a 50 17	 mov	 dl, BYTE PTR [eax+23]
  0017d	84 d2		 test	 dl, dl
  0017f	74 1d		 je	 SHORT $LN73@LoadFloat_
  00181	8a 40 18	 mov	 al, BYTE PTR [eax+24]
  00184	80 f2 ea	 xor	 dl, -22			; ffffffeaH
  00187	88 55 f7	 mov	 BYTE PTR __k$[ebp+23], dl
  0018a	84 c0		 test	 al, al
  0018c	74 0a		 je	 SHORT $LN72@LoadFloat_
  0018e	34 ed		 xor	 al, -19			; ffffffedH
  00190	88 45 f8	 mov	 BYTE PTR __k$[ebp+24], al
  00193	e9 84 00 00 00	 jmp	 $LN1@LoadFloat_
$LN72@LoadFloat_:
  00198	c6 45 f8 ed	 mov	 BYTE PTR __k$[ebp+24], -19 ; ffffffedH
  0019c	eb 7e		 jmp	 SHORT $LN1@LoadFloat_
$LN73@LoadFloat_:
  0019e	c6 45 f7 ea	 mov	 BYTE PTR __k$[ebp+23], -22 ; ffffffeaH
  001a2	eb 78		 jmp	 SHORT $LN1@LoadFloat_
$LN74@LoadFloat_:
  001a4	88 5d f6	 mov	 BYTE PTR __k$[ebp+22], bl
  001a7	eb 73		 jmp	 SHORT $LN1@LoadFloat_
$LN75@LoadFloat_:
  001a9	88 4d f5	 mov	 BYTE PTR __k$[ebp+21], cl
  001ac	eb 6e		 jmp	 SHORT $LN1@LoadFloat_
$LN77@LoadFloat_:
  001ae	c6 45 f3 ea	 mov	 BYTE PTR __k$[ebp+19], -22 ; ffffffeaH
  001b2	eb 68		 jmp	 SHORT $LN1@LoadFloat_
$LN78@LoadFloat_:
  001b4	88 5d f2	 mov	 BYTE PTR __k$[ebp+18], bl
  001b7	eb 63		 jmp	 SHORT $LN1@LoadFloat_
$LN79@LoadFloat_:
  001b9	88 4d f1	 mov	 BYTE PTR __k$[ebp+17], cl
  001bc	eb 5e		 jmp	 SHORT $LN1@LoadFloat_
$LN80@LoadFloat_:
  001be	c6 45 f0 ed	 mov	 BYTE PTR __k$[ebp+16], -19 ; ffffffedH
  001c2	eb 58		 jmp	 SHORT $LN1@LoadFloat_
$LN81@LoadFloat_:
  001c4	c6 45 ef ea	 mov	 BYTE PTR __k$[ebp+15], -22 ; ffffffeaH
  001c8	eb 52		 jmp	 SHORT $LN1@LoadFloat_
$LN82@LoadFloat_:
  001ca	88 5d ee	 mov	 BYTE PTR __k$[ebp+14], bl
  001cd	eb 4d		 jmp	 SHORT $LN1@LoadFloat_
$LN83@LoadFloat_:
  001cf	88 4d ed	 mov	 BYTE PTR __k$[ebp+13], cl
  001d2	eb 48		 jmp	 SHORT $LN1@LoadFloat_
$LN84@LoadFloat_:
  001d4	c6 45 ec ed	 mov	 BYTE PTR __k$[ebp+12], -19 ; ffffffedH
  001d8	eb 42		 jmp	 SHORT $LN1@LoadFloat_
$LN85@LoadFloat_:
  001da	c6 45 eb ea	 mov	 BYTE PTR __k$[ebp+11], -22 ; ffffffeaH
  001de	eb 3c		 jmp	 SHORT $LN1@LoadFloat_
$LN86@LoadFloat_:
  001e0	88 5d ea	 mov	 BYTE PTR __k$[ebp+10], bl
  001e3	eb 37		 jmp	 SHORT $LN1@LoadFloat_
$LN87@LoadFloat_:
  001e5	88 4d e9	 mov	 BYTE PTR __k$[ebp+9], cl
  001e8	eb 32		 jmp	 SHORT $LN1@LoadFloat_
$LN88@LoadFloat_:
  001ea	c6 45 e8 ed	 mov	 BYTE PTR __k$[ebp+8], -19 ; ffffffedH
  001ee	eb 2c		 jmp	 SHORT $LN1@LoadFloat_
$LN89@LoadFloat_:
  001f0	c6 45 e7 ea	 mov	 BYTE PTR __k$[ebp+7], -22 ; ffffffeaH
  001f4	eb 26		 jmp	 SHORT $LN1@LoadFloat_
$LN90@LoadFloat_:
  001f6	88 5d e6	 mov	 BYTE PTR __k$[ebp+6], bl
  001f9	eb 21		 jmp	 SHORT $LN1@LoadFloat_
$LN91@LoadFloat_:
  001fb	88 4d e5	 mov	 BYTE PTR __k$[ebp+5], cl
  001fe	eb 1c		 jmp	 SHORT $LN1@LoadFloat_
$LN92@LoadFloat_:
  00200	c6 45 e4 ed	 mov	 BYTE PTR __k$[ebp+4], -19 ; ffffffedH
  00204	eb 16		 jmp	 SHORT $LN1@LoadFloat_
$LN93@LoadFloat_:
  00206	c6 45 e3 ea	 mov	 BYTE PTR __k$[ebp+3], -22 ; ffffffeaH
  0020a	eb 10		 jmp	 SHORT $LN1@LoadFloat_
$LN94@LoadFloat_:
  0020c	c6 45 e2 eb	 mov	 BYTE PTR __k$[ebp+2], -21 ; ffffffebH
  00210	eb 0a		 jmp	 SHORT $LN1@LoadFloat_
$LN95@LoadFloat_:
  00212	c6 45 e1 ec	 mov	 BYTE PTR __k$[ebp+1], -20 ; ffffffecH
  00216	eb 04		 jmp	 SHORT $LN1@LoadFloat_
$LN96@LoadFloat_:
  00218	c6 45 e0 ed	 mov	 BYTE PTR __k$[ebp], -19	; ffffffedH
$LN1@LoadFloat_:
  0021c	6a 05		 push	 5
  0021e	8d 45 e0	 lea	 eax, DWORD PTR __k$[ebp]
  00221	c6 45 f4 00	 mov	 BYTE PTR __k$[ebp+20], 0
  00225	5a		 pop	 edx
$LL104@LoadFloat_:
  00226	81 30 ed ec eb
	ea		 xor	 DWORD PTR [eax], -353637139 ; eaebecedH
  0022c	83 c0 04	 add	 eax, 4
  0022f	4a		 dec	 edx
  00230	75 f4		 jne	 SHORT $LL104@LoadFloat_

; 137  : 		return LoadFloat(_k, f);

  00232	f3 0f 10 45 0c	 movss	 xmm0, DWORD PTR _f$[ebp]
  00237	51		 push	 ecx
  00238	8d 45 e0	 lea	 eax, DWORD PTR __k$[ebp]
  0023b	f3 0f 11 04 24	 movss	 DWORD PTR [esp], xmm0
  00240	50		 push	 eax
  00241	8b ce		 mov	 ecx, esi
  00243	ff 15 00 00 00
	00		 call	 DWORD PTR __imp_?LoadFloat@ioINILoader@@QAEMPBDM@Z

; 138  : 	}

  00249	8b 4d fc	 mov	 ecx, DWORD PTR __$ArrayPad$[ebp]
  0024c	5e		 pop	 esi
  0024d	33 cd		 xor	 ecx, ebp
  0024f	5b		 pop	 ebx
  00250	e8 00 00 00 00	 call	 @__security_check_cookie@4
  00255	c9		 leave
  00256	c2 08 00	 ret	 8
??$LoadFloat_e@$0BF@@ioINILoader@@QAEMAAY0BF@$$CBDM@Z ENDP ; ioINILoader::LoadFloat_e<21>
_TEXT	ENDS
PUBLIC	??0?$CEncrypt@M@@QAE@XZ				; CEncrypt<float>::CEncrypt<float>
EXTRN	??0ccddaabb@@QAE@XZ:PROC			; ccddaabb::ccddaabb
;	COMDAT xdata$x
; File d:\lost saga for developer\youtube\tutorial\source\src\lsclient\encryptvalue.h
xdata$x	SEGMENT
__unwindtable$??0?$CEncrypt@M@@QAE@XZ DD 0ffffffffH
	DD	FLAT:__unwindfunclet$??0?$CEncrypt@M@@QAE@XZ$0
__ehfuncinfo$??0?$CEncrypt@M@@QAE@XZ DD 019930522H
	DD	01H
	DD	FLAT:__unwindtable$??0?$CEncrypt@M@@QAE@XZ
	DD	2 DUP(00H)
	DD	2 DUP(00H)
	DD	00H
	DD	01H
; Function compile flags: /Ogsp
xdata$x	ENDS
;	COMDAT ??0?$CEncrypt@M@@QAE@XZ
_TEXT	SEGMENT
_this$ = -16						; size = 4
__$EHRec$ = -12						; size = 12
??0?$CEncrypt@M@@QAE@XZ PROC				; CEncrypt<float>::CEncrypt<float>, COMDAT
; _this$ = ecx

; 109  : 	CEncrypt()

  00000	6a 04		 push	 4
  00002	b8 00 00 00 00	 mov	 eax, __ehhandler$??0?$CEncrypt@M@@QAE@XZ
  00007	e8 00 00 00 00	 call	 __EH_prolog3
  0000c	8b f1		 mov	 esi, ecx
  0000e	89 75 f0	 mov	 DWORD PTR _this$[ebp], esi
  00011	8d 4e 0c	 lea	 ecx, DWORD PTR [esi+12]
  00014	c7 06 00 00 00
	00		 mov	 DWORD PTR [esi], OFFSET ??_7?$CEncrypt@M@@6B@
  0001a	e8 00 00 00 00	 call	 ??0ccddaabb@@QAE@XZ	; ccddaabb::ccddaabb
  0001f	83 65 fc 00	 and	 DWORD PTR __$EHRec$[ebp+8], 0

; 110  : 	{
; 111  : 		Init();

  00023	8b ce		 mov	 ecx, esi
  00025	e8 00 00 00 00	 call	 ?Init@?$CEncrypt@M@@AAEXXZ ; CEncrypt<float>::Init

; 112  : 	}

  0002a	8b c6		 mov	 eax, esi
  0002c	e8 00 00 00 00	 call	 __EH_epilog3
  00031	c3		 ret	 0
_TEXT	ENDS
;	COMDAT text$x
text$x	SEGMENT
__unwindfunclet$??0?$CEncrypt@M@@QAE@XZ$0:
  00000	8b 4d f0	 mov	 ecx, DWORD PTR _this$[ebp]
  00003	83 c1 0c	 add	 ecx, 12			; 0000000cH
  00006	e9 00 00 00 00	 jmp	 ??1ccddaabb@@UAE@XZ	; ccddaabb::~ccddaabb
__ehhandler$??0?$CEncrypt@M@@QAE@XZ:
  0000b	8b 54 24 08	 mov	 edx, DWORD PTR [esp+8]
  0000f	8d 42 0c	 lea	 eax, DWORD PTR [edx+12]
  00012	8b 4a ec	 mov	 ecx, DWORD PTR [edx-20]
  00015	33 c8		 xor	 ecx, eax
  00017	e8 00 00 00 00	 call	 @__security_check_cookie@4
  0001c	b8 00 00 00 00	 mov	 eax, OFFSET __ehfuncinfo$??0?$CEncrypt@M@@QAE@XZ
  00021	e9 00 00 00 00	 jmp	 ___CxxFrameHandler3
text$x	ENDS
??0?$CEncrypt@M@@QAE@XZ ENDP				; CEncrypt<float>::CEncrypt<float>
PUBLIC	??B?$CEncrypt@M@@QAEMXZ				; CEncrypt<float>::operator float
; Function compile flags: /Ogsp
;	COMDAT ??B?$CEncrypt@M@@QAEMXZ
_TEXT	SEGMENT
_value$ = -4						; size = 4
??B?$CEncrypt@M@@QAEMXZ PROC				; CEncrypt<float>::operator float, COMDAT
; _this$ = ecx

; 134  : 	{

  00000	55		 push	 ebp
  00001	8b ec		 mov	 ebp, esp
  00003	51		 push	 ecx

; 135  : 		type value;
; 136  : 		DecryptValueToPool(&value);

  00004	8d 45 fc	 lea	 eax, DWORD PTR _value$[ebp]
  00007	50		 push	 eax
  00008	e8 00 00 00 00	 call	 ?DecryptValueToPool@?$CEncrypt@M@@QAEXPAM@Z ; CEncrypt<float>::DecryptValueToPool

; 137  : 
; 138  : #ifdef _NOTUSE
; 139  : 		Debug();
; 140  : #endif
; 141  : 		return value;

  0000d	d9 45 fc	 fld	 DWORD PTR _value$[ebp]

; 142  : 	}

  00010	c9		 leave
  00011	c3		 ret	 0
??B?$CEncrypt@M@@QAEMXZ ENDP				; CEncrypt<float>::operator float
_TEXT	ENDS
PUBLIC	??B?$CEncrypt@M@@QBEMXZ				; CEncrypt<float>::operator float
; Function compile flags: /Ogsp
;	COMDAT ??B?$CEncrypt@M@@QBEMXZ
_TEXT	SEGMENT
_value$ = -4						; size = 4
??B?$CEncrypt@M@@QBEMXZ PROC				; CEncrypt<float>::operator float, COMDAT
; _this$ = ecx

; 145  : 	{

  00000	55		 push	 ebp
  00001	8b ec		 mov	 ebp, esp
  00003	51		 push	 ecx

; 146  : 		//UJ 130829, const도 똑같이 하면 된다 --start
; 147  : 		type value;
; 148  : 		CEncrypt<type>* pThis = const_cast<CEncrypt<type>*>(this);
; 149  : 		pThis->DecryptValueToPool(&value);

  00004	8d 45 fc	 lea	 eax, DWORD PTR _value$[ebp]
  00007	50		 push	 eax
  00008	e8 00 00 00 00	 call	 ?DecryptValueToPool@?$CEncrypt@M@@QAEXPAM@Z ; CEncrypt<float>::DecryptValueToPool

; 150  : 		//// const에서 DecryptValueToPool 사용할 수 없으므로 아래와 같이함.
; 151  :  		//type value;
; 152  : 		//char szTempMem[MAX_ENCRYPT];
; 153  : 		//m_RC5.DecryptByte( m_MemPool, szTempMem, max(m_ValueSize, DEFAULT_ENCRYPT) );
; 154  : 		//memcpy( &value, szTempMem, m_ValueSize );
; 155  : 		//UJ --end
; 156  : 
; 157  : #ifdef _NOTUSE
; 158  : 		Debug();
; 159  : #endif
; 160  : 		return value;

  0000d	d9 45 fc	 fld	 DWORD PTR _value$[ebp]

; 161  : 	}

  00010	c9		 leave
  00011	c3		 ret	 0
??B?$CEncrypt@M@@QBEMXZ ENDP				; CEncrypt<float>::operator float
_TEXT	ENDS
PUBLIC	??4?$CEncrypt@M@@QAEMM@Z			; CEncrypt<float>::operator=
; Function compile flags: /Ogsp
;	COMDAT ??4?$CEncrypt@M@@QAEMM@Z
_TEXT	SEGMENT
_value$ = 8						; size = 4
_inValue$ = 8						; size = 4
??4?$CEncrypt@M@@QAEMM@Z PROC				; CEncrypt<float>::operator=, COMDAT
; _this$ = ecx

; 1654 : 	{	

  00000	55		 push	 ebp
  00001	8b ec		 mov	 ebp, esp

; 1655 : 		type value = inValue;

  00003	d9 45 08	 fld	 DWORD PTR _inValue$[ebp]

; 1656 : 		EncryptValueToPool((char*)&value);

  00006	8d 45 08	 lea	 eax, DWORD PTR _value$[ebp]
  00009	50		 push	 eax
  0000a	d9 5d 08	 fstp	 DWORD PTR _value$[ebp]
  0000d	e8 00 00 00 00	 call	 ?EncryptValueToPool@?$CEncrypt@M@@AAEXPBD@Z ; CEncrypt<float>::EncryptValueToPool

; 1657 : #ifdef _NOTUSE
; 1658 : 		m_value = inValue;
; 1659 : 		Debug();
; 1660 : #endif
; 1661 : 		return value;

  00012	d9 45 08	 fld	 DWORD PTR _value$[ebp]

; 1662 : 	}

  00015	5d		 pop	 ebp
  00016	c2 04 00	 ret	 4
??4?$CEncrypt@M@@QAEMM@Z ENDP				; CEncrypt<float>::operator=
_TEXT	ENDS
PUBLIC	??Y?$CEncrypt@M@@QAEAAMABM@Z			; CEncrypt<float>::operator+=
; Function compile flags: /Ogsp
;	COMDAT ??Y?$CEncrypt@M@@QAEAAMABM@Z
_TEXT	SEGMENT
_value$ = -4						; size = 4
_inValue$ = 8						; size = 4
??Y?$CEncrypt@M@@QAEAAMABM@Z PROC			; CEncrypt<float>::operator+=, COMDAT
; _this$ = ecx

; 1715 : 	{

  00000	55		 push	 ebp
  00001	8b ec		 mov	 ebp, esp
  00003	51		 push	 ecx
  00004	56		 push	 esi

; 1716 : 		type value;
; 1717 : 		DecryptValueToPool(&value);

  00005	8d 45 fc	 lea	 eax, DWORD PTR _value$[ebp]
  00008	50		 push	 eax
  00009	8b f1		 mov	 esi, ecx
  0000b	e8 00 00 00 00	 call	 ?DecryptValueToPool@?$CEncrypt@M@@QAEXPAM@Z ; CEncrypt<float>::DecryptValueToPool

; 1718 : 		value += inValue;

  00010	8b 45 08	 mov	 eax, DWORD PTR _inValue$[ebp]
  00013	f3 0f 10 00	 movss	 xmm0, DWORD PTR [eax]
  00017	f3 0f 10 4d fc	 movss	 xmm1, DWORD PTR _value$[ebp]
  0001c	0f 5a c0	 cvtps2pd xmm0, xmm0
  0001f	0f 5a c9	 cvtps2pd xmm1, xmm1

; 1719 : 		EncryptValueToPool((char*)&value);

  00022	8d 45 fc	 lea	 eax, DWORD PTR _value$[ebp]
  00025	f2 0f 58 c1	 addsd	 xmm0, xmm1
  00029	66 0f 5a c0	 cvtpd2ps xmm0, xmm0
  0002d	50		 push	 eax
  0002e	8b ce		 mov	 ecx, esi
  00030	f3 0f 11 45 fc	 movss	 DWORD PTR _value$[ebp], xmm0
  00035	e8 00 00 00 00	 call	 ?EncryptValueToPool@?$CEncrypt@M@@AAEXPBD@Z ; CEncrypt<float>::EncryptValueToPool

; 1720 : #ifdef _NOTUSE
; 1721 : 		m_value += inValue;
; 1722 : 		Debug();
; 1723 : #endif
; 1724 : 		return value;

  0003a	8d 45 fc	 lea	 eax, DWORD PTR _value$[ebp]
  0003d	5e		 pop	 esi

; 1725 : 	} 

  0003e	c9		 leave
  0003f	c2 04 00	 ret	 4
??Y?$CEncrypt@M@@QAEAAMABM@Z ENDP			; CEncrypt<float>::operator+=
_TEXT	ENDS
PUBLIC	??O?$CEncrypt@M@@QAE_NABM@Z			; CEncrypt<float>::operator>
; Function compile flags: /Ogsp
;	COMDAT ??O?$CEncrypt@M@@QAE_NABM@Z
_TEXT	SEGMENT
_value$ = -4						; size = 4
_inValue$ = 8						; size = 4
??O?$CEncrypt@M@@QAE_NABM@Z PROC			; CEncrypt<float>::operator>, COMDAT
; _this$ = ecx

; 1811 : 	{

  00000	55		 push	 ebp
  00001	8b ec		 mov	 ebp, esp
  00003	51		 push	 ecx

; 1812 : 		type value;
; 1813 : 		DecryptValueToPool(&value);

  00004	8d 45 fc	 lea	 eax, DWORD PTR _value$[ebp]
  00007	50		 push	 eax
  00008	e8 00 00 00 00	 call	 ?DecryptValueToPool@?$CEncrypt@M@@QAEXPAM@Z ; CEncrypt<float>::DecryptValueToPool

; 1814 : #ifdef _NOTUSE
; 1815 : 		Debug();
; 1816 : #endif
; 1817 : 		return (value > inValue);

  0000d	8b 45 08	 mov	 eax, DWORD PTR _inValue$[ebp]
  00010	f3 0f 10 08	 movss	 xmm1, DWORD PTR [eax]
  00014	f3 0f 10 45 fc	 movss	 xmm0, DWORD PTR _value$[ebp]
  00019	0f 5a c0	 cvtps2pd xmm0, xmm0
  0001c	0f 5a c9	 cvtps2pd xmm1, xmm1
  0001f	33 c0		 xor	 eax, eax
  00021	66 0f 2f c1	 comisd	 xmm0, xmm1
  00025	76 01		 jbe	 SHORT $LN4@operator@2
  00027	40		 inc	 eax
$LN4@operator@2:

; 1818 : 	}		

  00028	c9		 leave
  00029	c2 04 00	 ret	 4
??O?$CEncrypt@M@@QAE_NABM@Z ENDP			; CEncrypt<float>::operator>
_TEXT	ENDS
PUBLIC	??0?$CEncrypt@K@@QAE@XZ				; CEncrypt<unsigned long>::CEncrypt<unsigned long>
;	COMDAT xdata$x
xdata$x	SEGMENT
__unwindtable$??0?$CEncrypt@K@@QAE@XZ DD 0ffffffffH
	DD	FLAT:__unwindfunclet$??0?$CEncrypt@K@@QAE@XZ$0
__ehfuncinfo$??0?$CEncrypt@K@@QAE@XZ DD 019930522H
	DD	01H
	DD	FLAT:__unwindtable$??0?$CEncrypt@K@@QAE@XZ
	DD	2 DUP(00H)
	DD	2 DUP(00H)
	DD	00H
	DD	01H
; Function compile flags: /Ogsp
xdata$x	ENDS
;	COMDAT ??0?$CEncrypt@K@@QAE@XZ
_TEXT	SEGMENT
_this$ = -16						; size = 4
__$EHRec$ = -12						; size = 12
??0?$CEncrypt@K@@QAE@XZ PROC				; CEncrypt<unsigned long>::CEncrypt<unsigned long>, COMDAT
; _this$ = ecx

; 109  : 	CEncrypt()

  00000	6a 04		 push	 4
  00002	b8 00 00 00 00	 mov	 eax, __ehhandler$??0?$CEncrypt@K@@QAE@XZ
  00007	e8 00 00 00 00	 call	 __EH_prolog3
  0000c	8b f1		 mov	 esi, ecx
  0000e	89 75 f0	 mov	 DWORD PTR _this$[ebp], esi
  00011	8d 4e 0c	 lea	 ecx, DWORD PTR [esi+12]
  00014	c7 06 00 00 00
	00		 mov	 DWORD PTR [esi], OFFSET ??_7?$CEncrypt@K@@6B@
  0001a	e8 00 00 00 00	 call	 ??0ccddaabb@@QAE@XZ	; ccddaabb::ccddaabb
  0001f	83 65 fc 00	 and	 DWORD PTR __$EHRec$[ebp+8], 0

; 110  : 	{
; 111  : 		Init();

  00023	8b ce		 mov	 ecx, esi
  00025	e8 00 00 00 00	 call	 ?Init@?$CEncrypt@K@@AAEXXZ ; CEncrypt<unsigned long>::Init

; 112  : 	}

  0002a	8b c6		 mov	 eax, esi
  0002c	e8 00 00 00 00	 call	 __EH_epilog3
  00031	c3		 ret	 0
_TEXT	ENDS
;	COMDAT text$x
text$x	SEGMENT
__unwindfunclet$??0?$CEncrypt@K@@QAE@XZ$0:
  00000	8b 4d f0	 mov	 ecx, DWORD PTR _this$[ebp]
  00003	83 c1 0c	 add	 ecx, 12			; 0000000cH
  00006	e9 00 00 00 00	 jmp	 ??1ccddaabb@@UAE@XZ	; ccddaabb::~ccddaabb
__ehhandler$??0?$CEncrypt@K@@QAE@XZ:
  0000b	8b 54 24 08	 mov	 edx, DWORD PTR [esp+8]
  0000f	8d 42 0c	 lea	 eax, DWORD PTR [edx+12]
  00012	8b 4a ec	 mov	 ecx, DWORD PTR [edx-20]
  00015	33 c8		 xor	 ecx, eax
  00017	e8 00 00 00 00	 call	 @__security_check_cookie@4
  0001c	b8 00 00 00 00	 mov	 eax, OFFSET __ehfuncinfo$??0?$CEncrypt@K@@QAE@XZ
  00021	e9 00 00 00 00	 jmp	 ___CxxFrameHandler3
text$x	ENDS
??0?$CEncrypt@K@@QAE@XZ ENDP				; CEncrypt<unsigned long>::CEncrypt<unsigned long>
PUBLIC	??B?$CEncrypt@K@@QAEKXZ				; CEncrypt<unsigned long>::operator unsigned long
; Function compile flags: /Ogsp
;	COMDAT ??B?$CEncrypt@K@@QAEKXZ
_TEXT	SEGMENT
_value$ = -4						; size = 4
??B?$CEncrypt@K@@QAEKXZ PROC				; CEncrypt<unsigned long>::operator unsigned long, COMDAT
; _this$ = ecx

; 134  : 	{

  00000	55		 push	 ebp
  00001	8b ec		 mov	 ebp, esp
  00003	51		 push	 ecx

; 135  : 		type value;
; 136  : 		DecryptValueToPool(&value);

  00004	8d 45 fc	 lea	 eax, DWORD PTR _value$[ebp]
  00007	50		 push	 eax
  00008	e8 00 00 00 00	 call	 ?DecryptValueToPool@?$CEncrypt@K@@QAEXPAK@Z ; CEncrypt<unsigned long>::DecryptValueToPool

; 137  : 
; 138  : #ifdef _NOTUSE
; 139  : 		Debug();
; 140  : #endif
; 141  : 		return value;

  0000d	8b 45 fc	 mov	 eax, DWORD PTR _value$[ebp]

; 142  : 	}

  00010	c9		 leave
  00011	c3		 ret	 0
??B?$CEncrypt@K@@QAEKXZ ENDP				; CEncrypt<unsigned long>::operator unsigned long
_TEXT	ENDS
PUBLIC	??B?$CEncrypt@K@@QBEKXZ				; CEncrypt<unsigned long>::operator unsigned long
; Function compile flags: /Ogsp
;	COMDAT ??B?$CEncrypt@K@@QBEKXZ
_TEXT	SEGMENT
_value$ = -4						; size = 4
??B?$CEncrypt@K@@QBEKXZ PROC				; CEncrypt<unsigned long>::operator unsigned long, COMDAT
; _this$ = ecx

; 145  : 	{

  00000	55		 push	 ebp
  00001	8b ec		 mov	 ebp, esp
  00003	51		 push	 ecx

; 146  : 		//UJ 130829, const도 똑같이 하면 된다 --start
; 147  : 		type value;
; 148  : 		CEncrypt<type>* pThis = const_cast<CEncrypt<type>*>(this);
; 149  : 		pThis->DecryptValueToPool(&value);

  00004	8d 45 fc	 lea	 eax, DWORD PTR _value$[ebp]
  00007	50		 push	 eax
  00008	e8 00 00 00 00	 call	 ?DecryptValueToPool@?$CEncrypt@K@@QAEXPAK@Z ; CEncrypt<unsigned long>::DecryptValueToPool

; 150  : 		//// const에서 DecryptValueToPool 사용할 수 없으므로 아래와 같이함.
; 151  :  		//type value;
; 152  : 		//char szTempMem[MAX_ENCRYPT];
; 153  : 		//m_RC5.DecryptByte( m_MemPool, szTempMem, max(m_ValueSize, DEFAULT_ENCRYPT) );
; 154  : 		//memcpy( &value, szTempMem, m_ValueSize );
; 155  : 		//UJ --end
; 156  : 
; 157  : #ifdef _NOTUSE
; 158  : 		Debug();
; 159  : #endif
; 160  : 		return value;

  0000d	8b 45 fc	 mov	 eax, DWORD PTR _value$[ebp]

; 161  : 	}

  00010	c9		 leave
  00011	c3		 ret	 0
??B?$CEncrypt@K@@QBEKXZ ENDP				; CEncrypt<unsigned long>::operator unsigned long
_TEXT	ENDS
PUBLIC	??4?$CEncrypt@K@@QAEKK@Z			; CEncrypt<unsigned long>::operator=
; Function compile flags: /Ogsp
;	COMDAT ??4?$CEncrypt@K@@QAEKK@Z
_TEXT	SEGMENT
_value$ = 8						; size = 4
_inValue$ = 8						; size = 4
??4?$CEncrypt@K@@QAEKK@Z PROC				; CEncrypt<unsigned long>::operator=, COMDAT
; _this$ = ecx

; 1262 : 	{

  00000	55		 push	 ebp
  00001	8b ec		 mov	 ebp, esp

; 1263 : 		
; 1264 : 		type value = inValue;

  00003	8b 45 08	 mov	 eax, DWORD PTR _inValue$[ebp]
  00006	89 45 08	 mov	 DWORD PTR _value$[ebp], eax

; 1265 : 		EncryptValueToPool((char*)&value);

  00009	8d 45 08	 lea	 eax, DWORD PTR _value$[ebp]
  0000c	50		 push	 eax
  0000d	e8 00 00 00 00	 call	 ?EncryptValueToPool@?$CEncrypt@K@@AAEXPBD@Z ; CEncrypt<unsigned long>::EncryptValueToPool

; 1266 : #ifdef _NOTUSE
; 1267 : 		m_value = inValue;
; 1268 : 		Debug();
; 1269 : #endif
; 1270 : 		return value;

  00012	8b 45 08	 mov	 eax, DWORD PTR _value$[ebp]

; 1271 : 	}

  00015	5d		 pop	 ebp
  00016	c2 04 00	 ret	 4
??4?$CEncrypt@K@@QAEKK@Z ENDP				; CEncrypt<unsigned long>::operator=
_TEXT	ENDS
PUBLIC	??B?$CEncrypt@_N@@QBE_NXZ			; CEncrypt<bool>::operator bool
; Function compile flags: /Ogsp
;	COMDAT ??B?$CEncrypt@_N@@QBE_NXZ
_TEXT	SEGMENT
_value$ = -1						; size = 1
??B?$CEncrypt@_N@@QBE_NXZ PROC				; CEncrypt<bool>::operator bool, COMDAT
; _this$ = ecx

; 145  : 	{

  00000	55		 push	 ebp
  00001	8b ec		 mov	 ebp, esp
  00003	51		 push	 ecx

; 146  : 		//UJ 130829, const도 똑같이 하면 된다 --start
; 147  : 		type value;
; 148  : 		CEncrypt<type>* pThis = const_cast<CEncrypt<type>*>(this);
; 149  : 		pThis->DecryptValueToPool(&value);

  00004	8d 45 ff	 lea	 eax, DWORD PTR _value$[ebp]
  00007	50		 push	 eax
  00008	e8 00 00 00 00	 call	 ?DecryptValueToPool@?$CEncrypt@_N@@QAEXPA_N@Z ; CEncrypt<bool>::DecryptValueToPool

; 150  : 		//// const에서 DecryptValueToPool 사용할 수 없으므로 아래와 같이함.
; 151  :  		//type value;
; 152  : 		//char szTempMem[MAX_ENCRYPT];
; 153  : 		//m_RC5.DecryptByte( m_MemPool, szTempMem, max(m_ValueSize, DEFAULT_ENCRYPT) );
; 154  : 		//memcpy( &value, szTempMem, m_ValueSize );
; 155  : 		//UJ --end
; 156  : 
; 157  : #ifdef _NOTUSE
; 158  : 		Debug();
; 159  : #endif
; 160  : 		return value;

  0000d	8a 45 ff	 mov	 al, BYTE PTR _value$[ebp]

; 161  : 	}

  00010	c9		 leave
  00011	c3		 ret	 0
??B?$CEncrypt@_N@@QBE_NXZ ENDP				; CEncrypt<bool>::operator bool
_TEXT	ENDS
PUBLIC	??0?$CEncrypt@H@@QAE@XZ				; CEncrypt<int>::CEncrypt<int>
;	COMDAT xdata$x
xdata$x	SEGMENT
__unwindtable$??0?$CEncrypt@H@@QAE@XZ DD 0ffffffffH
	DD	FLAT:__unwindfunclet$??0?$CEncrypt@H@@QAE@XZ$0
__ehfuncinfo$??0?$CEncrypt@H@@QAE@XZ DD 019930522H
	DD	01H
	DD	FLAT:__unwindtable$??0?$CEncrypt@H@@QAE@XZ
	DD	2 DUP(00H)
	DD	2 DUP(00H)
	DD	00H
	DD	01H
; Function compile flags: /Ogsp
xdata$x	ENDS
;	COMDAT ??0?$CEncrypt@H@@QAE@XZ
_TEXT	SEGMENT
_this$ = -16						; size = 4
__$EHRec$ = -12						; size = 12
??0?$CEncrypt@H@@QAE@XZ PROC				; CEncrypt<int>::CEncrypt<int>, COMDAT
; _this$ = ecx

; 109  : 	CEncrypt()

  00000	6a 04		 push	 4
  00002	b8 00 00 00 00	 mov	 eax, __ehhandler$??0?$CEncrypt@H@@QAE@XZ
  00007	e8 00 00 00 00	 call	 __EH_prolog3
  0000c	8b f1		 mov	 esi, ecx
  0000e	89 75 f0	 mov	 DWORD PTR _this$[ebp], esi
  00011	8d 4e 0c	 lea	 ecx, DWORD PTR [esi+12]
  00014	c7 06 00 00 00
	00		 mov	 DWORD PTR [esi], OFFSET ??_7?$CEncrypt@H@@6B@
  0001a	e8 00 00 00 00	 call	 ??0ccddaabb@@QAE@XZ	; ccddaabb::ccddaabb
  0001f	83 65 fc 00	 and	 DWORD PTR __$EHRec$[ebp+8], 0

; 110  : 	{
; 111  : 		Init();

  00023	8b ce		 mov	 ecx, esi
  00025	e8 00 00 00 00	 call	 ?Init@?$CEncrypt@H@@AAEXXZ ; CEncrypt<int>::Init

; 112  : 	}

  0002a	8b c6		 mov	 eax, esi
  0002c	e8 00 00 00 00	 call	 __EH_epilog3
  00031	c3		 ret	 0
_TEXT	ENDS
;	COMDAT text$x
text$x	SEGMENT
__unwindfunclet$??0?$CEncrypt@H@@QAE@XZ$0:
  00000	8b 4d f0	 mov	 ecx, DWORD PTR _this$[ebp]
  00003	83 c1 0c	 add	 ecx, 12			; 0000000cH
  00006	e9 00 00 00 00	 jmp	 ??1ccddaabb@@UAE@XZ	; ccddaabb::~ccddaabb
__ehhandler$??0?$CEncrypt@H@@QAE@XZ:
  0000b	8b 54 24 08	 mov	 edx, DWORD PTR [esp+8]
  0000f	8d 42 0c	 lea	 eax, DWORD PTR [edx+12]
  00012	8b 4a ec	 mov	 ecx, DWORD PTR [edx-20]
  00015	33 c8		 xor	 ecx, eax
  00017	e8 00 00 00 00	 call	 @__security_check_cookie@4
  0001c	b8 00 00 00 00	 mov	 eax, OFFSET __ehfuncinfo$??0?$CEncrypt@H@@QAE@XZ
  00021	e9 00 00 00 00	 jmp	 ___CxxFrameHandler3
text$x	ENDS
??0?$CEncrypt@H@@QAE@XZ ENDP				; CEncrypt<int>::CEncrypt<int>
PUBLIC	??B?$CEncrypt@H@@QAEHXZ				; CEncrypt<int>::operator int
; Function compile flags: /Ogsp
;	COMDAT ??B?$CEncrypt@H@@QAEHXZ
_TEXT	SEGMENT
_value$ = -4						; size = 4
??B?$CEncrypt@H@@QAEHXZ PROC				; CEncrypt<int>::operator int, COMDAT
; _this$ = ecx

; 134  : 	{

  00000	55		 push	 ebp
  00001	8b ec		 mov	 ebp, esp
  00003	51		 push	 ecx

; 135  : 		type value;
; 136  : 		DecryptValueToPool(&value);

  00004	8d 45 fc	 lea	 eax, DWORD PTR _value$[ebp]
  00007	50		 push	 eax
  00008	e8 00 00 00 00	 call	 ?DecryptValueToPool@?$CEncrypt@H@@QAEXPAH@Z ; CEncrypt<int>::DecryptValueToPool

; 137  : 
; 138  : #ifdef _NOTUSE
; 139  : 		Debug();
; 140  : #endif
; 141  : 		return value;

  0000d	8b 45 fc	 mov	 eax, DWORD PTR _value$[ebp]

; 142  : 	}

  00010	c9		 leave
  00011	c3		 ret	 0
??B?$CEncrypt@H@@QAEHXZ ENDP				; CEncrypt<int>::operator int
_TEXT	ENDS
PUBLIC	??B?$CEncrypt@H@@QBEHXZ				; CEncrypt<int>::operator int
; Function compile flags: /Ogsp
;	COMDAT ??B?$CEncrypt@H@@QBEHXZ
_TEXT	SEGMENT
_value$ = -4						; size = 4
??B?$CEncrypt@H@@QBEHXZ PROC				; CEncrypt<int>::operator int, COMDAT
; _this$ = ecx

; 145  : 	{

  00000	55		 push	 ebp
  00001	8b ec		 mov	 ebp, esp
  00003	51		 push	 ecx

; 146  : 		//UJ 130829, const도 똑같이 하면 된다 --start
; 147  : 		type value;
; 148  : 		CEncrypt<type>* pThis = const_cast<CEncrypt<type>*>(this);
; 149  : 		pThis->DecryptValueToPool(&value);

  00004	8d 45 fc	 lea	 eax, DWORD PTR _value$[ebp]
  00007	50		 push	 eax
  00008	e8 00 00 00 00	 call	 ?DecryptValueToPool@?$CEncrypt@H@@QAEXPAH@Z ; CEncrypt<int>::DecryptValueToPool

; 150  : 		//// const에서 DecryptValueToPool 사용할 수 없으므로 아래와 같이함.
; 151  :  		//type value;
; 152  : 		//char szTempMem[MAX_ENCRYPT];
; 153  : 		//m_RC5.DecryptByte( m_MemPool, szTempMem, max(m_ValueSize, DEFAULT_ENCRYPT) );
; 154  : 		//memcpy( &value, szTempMem, m_ValueSize );
; 155  : 		//UJ --end
; 156  : 
; 157  : #ifdef _NOTUSE
; 158  : 		Debug();
; 159  : #endif
; 160  : 		return value;

  0000d	8b 45 fc	 mov	 eax, DWORD PTR _value$[ebp]

; 161  : 	}

  00010	c9		 leave
  00011	c3		 ret	 0
??B?$CEncrypt@H@@QBEHXZ ENDP				; CEncrypt<int>::operator int
_TEXT	ENDS
PUBLIC	??4?$CEncrypt@H@@QAEHH@Z			; CEncrypt<int>::operator=
; Function compile flags: /Ogsp
;	COMDAT ??4?$CEncrypt@H@@QAEHH@Z
_TEXT	SEGMENT
_value$ = 8						; size = 4
_inValue$ = 8						; size = 4
??4?$CEncrypt@H@@QAEHH@Z PROC				; CEncrypt<int>::operator=, COMDAT
; _this$ = ecx

; 843  : 	{

  00000	55		 push	 ebp
  00001	8b ec		 mov	 ebp, esp

; 844  : 		type value = inValue;

  00003	8b 45 08	 mov	 eax, DWORD PTR _inValue$[ebp]
  00006	89 45 08	 mov	 DWORD PTR _value$[ebp], eax

; 845  : 		EncryptValueToPool((char*)&value);

  00009	8d 45 08	 lea	 eax, DWORD PTR _value$[ebp]
  0000c	50		 push	 eax
  0000d	e8 00 00 00 00	 call	 ?EncryptValueToPool@?$CEncrypt@H@@AAEXPBD@Z ; CEncrypt<int>::EncryptValueToPool

; 846  : #ifdef _NOTUSE
; 847  : 		m_value = inValue;
; 848  : 		Debug();
; 849  : #endif
; 850  : 		return value;

  00012	8b 45 08	 mov	 eax, DWORD PTR _value$[ebp]

; 851  : 	}

  00015	5d		 pop	 ebp
  00016	c2 04 00	 ret	 4
??4?$CEncrypt@H@@QAEHH@Z ENDP				; CEncrypt<int>::operator=
_TEXT	ENDS
PUBLIC	??0ioSpeedAccumlateBuff@@QAE@XZ			; ioSpeedAccumlateBuff::ioSpeedAccumlateBuff
EXTRN	??0ioBuff@@QAE@XZ:PROC				; ioBuff::ioBuff
;	COMDAT xdata$x
; File d:\lost saga for developer\youtube\tutorial\source\src\lsclient\iospeedaccumlatebuff.cpp
xdata$x	SEGMENT
__ehfuncinfo$??0ioSpeedAccumlateBuff@@QAE@XZ DD 019930522H
	DD	05H
	DD	FLAT:__unwindtable$??0ioSpeedAccumlateBuff@@QAE@XZ
	DD	2 DUP(00H)
	DD	2 DUP(00H)
	DD	00H
	DD	01H
__unwindtable$??0ioSpeedAccumlateBuff@@QAE@XZ DD 0ffffffffH
	DD	FLAT:__unwindfunclet$??0ioSpeedAccumlateBuff@@QAE@XZ$0
	DD	00H
	DD	FLAT:__unwindfunclet$??0ioSpeedAccumlateBuff@@QAE@XZ$1
	DD	01H
	DD	FLAT:__unwindfunclet$??0ioSpeedAccumlateBuff@@QAE@XZ$2
	DD	02H
	DD	FLAT:__unwindfunclet$??0ioSpeedAccumlateBuff@@QAE@XZ$3
	DD	03H
	DD	FLAT:__unwindfunclet$??0ioSpeedAccumlateBuff@@QAE@XZ$4
; Function compile flags: /Ogsp
xdata$x	ENDS
;	COMDAT ??0ioSpeedAccumlateBuff@@QAE@XZ
_TEXT	SEGMENT
_this$ = -16						; size = 4
__$EHRec$ = -12						; size = 12
??0ioSpeedAccumlateBuff@@QAE@XZ PROC			; ioSpeedAccumlateBuff::ioSpeedAccumlateBuff, COMDAT
; _this$ = ecx

; 10   : {

  00000	6a 04		 push	 4
  00002	b8 00 00 00 00	 mov	 eax, __ehhandler$??0ioSpeedAccumlateBuff@@QAE@XZ
  00007	e8 00 00 00 00	 call	 __EH_prolog3
  0000c	8b f1		 mov	 esi, ecx
  0000e	89 75 f0	 mov	 DWORD PTR _this$[ebp], esi
  00011	e8 00 00 00 00	 call	 ??0ioBuff@@QAE@XZ	; ioBuff::ioBuff
  00016	83 65 fc 00	 and	 DWORD PTR __$EHRec$[ebp+8], 0
  0001a	8d 8e 74 09 00
	00		 lea	 ecx, DWORD PTR [esi+2420]
  00020	c7 06 00 00 00
	00		 mov	 DWORD PTR [esi], OFFSET ??_7ioSpeedAccumlateBuff@@6B@
  00026	e8 00 00 00 00	 call	 ??0?$CEncrypt@H@@QAE@XZ	; CEncrypt<int>::CEncrypt<int>
  0002b	8d 8e a4 09 00
	00		 lea	 ecx, DWORD PTR [esi+2468]
  00031	c6 45 fc 01	 mov	 BYTE PTR __$EHRec$[ebp+8], 1
  00035	e8 00 00 00 00	 call	 ??0?$CEncrypt@K@@QAE@XZ	; CEncrypt<unsigned long>::CEncrypt<unsigned long>
  0003a	8d 8e d4 09 00
	00		 lea	 ecx, DWORD PTR [esi+2516]
  00040	c6 45 fc 02	 mov	 BYTE PTR __$EHRec$[ebp+8], 2
  00044	e8 00 00 00 00	 call	 ??0?$CEncrypt@K@@QAE@XZ	; CEncrypt<unsigned long>::CEncrypt<unsigned long>
  00049	8d 8e 04 0a 00
	00		 lea	 ecx, DWORD PTR [esi+2564]
  0004f	c6 45 fc 03	 mov	 BYTE PTR __$EHRec$[ebp+8], 3
  00053	e8 00 00 00 00	 call	 ??0?$CEncrypt@K@@QAE@XZ	; CEncrypt<unsigned long>::CEncrypt<unsigned long>
  00058	8d 8e 34 0a 00
	00		 lea	 ecx, DWORD PTR [esi+2612]
  0005e	c6 45 fc 04	 mov	 BYTE PTR __$EHRec$[ebp+8], 4
  00062	e8 00 00 00 00	 call	 ??0?$CEncrypt@M@@QAE@XZ	; CEncrypt<float>::CEncrypt<float>

; 11   : }

  00067	8b c6		 mov	 eax, esi
  00069	e8 00 00 00 00	 call	 __EH_epilog3
  0006e	c3		 ret	 0
_TEXT	ENDS
;	COMDAT text$x
text$x	SEGMENT
__unwindfunclet$??0ioSpeedAccumlateBuff@@QAE@XZ$0:
  00000	8b 4d f0	 mov	 ecx, DWORD PTR _this$[ebp]
  00003	e9 00 00 00 00	 jmp	 ??1ioBuff@@UAE@XZ	; ioBuff::~ioBuff
__unwindfunclet$??0ioSpeedAccumlateBuff@@QAE@XZ$1:
  00008	8b 4d f0	 mov	 ecx, DWORD PTR _this$[ebp]
  0000b	81 c1 74 09 00
	00		 add	 ecx, 2420		; 00000974H
  00011	e9 00 00 00 00	 jmp	 ??1?$CEncrypt@H@@UAE@XZ	; CEncrypt<int>::~CEncrypt<int>
__unwindfunclet$??0ioSpeedAccumlateBuff@@QAE@XZ$2:
  00016	8b 4d f0	 mov	 ecx, DWORD PTR _this$[ebp]
  00019	81 c1 a4 09 00
	00		 add	 ecx, 2468		; 000009a4H
  0001f	e9 00 00 00 00	 jmp	 ??1?$CEncrypt@K@@UAE@XZ	; CEncrypt<unsigned long>::~CEncrypt<unsigned long>
__unwindfunclet$??0ioSpeedAccumlateBuff@@QAE@XZ$3:
  00024	8b 4d f0	 mov	 ecx, DWORD PTR _this$[ebp]
  00027	81 c1 d4 09 00
	00		 add	 ecx, 2516		; 000009d4H
  0002d	e9 00 00 00 00	 jmp	 ??1?$CEncrypt@K@@UAE@XZ	; CEncrypt<unsigned long>::~CEncrypt<unsigned long>
__unwindfunclet$??0ioSpeedAccumlateBuff@@QAE@XZ$4:
  00032	8b 4d f0	 mov	 ecx, DWORD PTR _this$[ebp]
  00035	81 c1 04 0a 00
	00		 add	 ecx, 2564		; 00000a04H
  0003b	e9 00 00 00 00	 jmp	 ??1?$CEncrypt@K@@UAE@XZ	; CEncrypt<unsigned long>::~CEncrypt<unsigned long>
__ehhandler$??0ioSpeedAccumlateBuff@@QAE@XZ:
  00040	8b 54 24 08	 mov	 edx, DWORD PTR [esp+8]
  00044	8d 42 0c	 lea	 eax, DWORD PTR [edx+12]
  00047	8b 4a ec	 mov	 ecx, DWORD PTR [edx-20]
  0004a	33 c8		 xor	 ecx, eax
  0004c	e8 00 00 00 00	 call	 @__security_check_cookie@4
  00051	b8 00 00 00 00	 mov	 eax, OFFSET __ehfuncinfo$??0ioSpeedAccumlateBuff@@QAE@XZ
  00056	e9 00 00 00 00	 jmp	 ___CxxFrameHandler3
text$x	ENDS
??0ioSpeedAccumlateBuff@@QAE@XZ ENDP			; ioSpeedAccumlateBuff::ioSpeedAccumlateBuff
; Function compile flags: /Ogsp
;	COMDAT ??_GioSpeedAccumlateBuff@@UAEPAXI@Z
_TEXT	SEGMENT
___flags$ = 8						; size = 4
??_GioSpeedAccumlateBuff@@UAEPAXI@Z PROC		; ioSpeedAccumlateBuff::`scalar deleting destructor', COMDAT
; _this$ = ecx
  00000	55		 push	 ebp
  00001	8b ec		 mov	 ebp, esp
  00003	56		 push	 esi
  00004	8b f1		 mov	 esi, ecx
  00006	e8 00 00 00 00	 call	 ??1ioSpeedAccumlateBuff@@UAE@XZ ; ioSpeedAccumlateBuff::~ioSpeedAccumlateBuff
  0000b	f6 45 08 01	 test	 BYTE PTR ___flags$[ebp], 1
  0000f	74 07		 je	 SHORT $LN1@scalar@4
  00011	56		 push	 esi
  00012	e8 00 00 00 00	 call	 ??3@YAXPAX@Z		; operator delete
  00017	59		 pop	 ecx
$LN1@scalar@4:
  00018	8b c6		 mov	 eax, esi
  0001a	5e		 pop	 esi
  0001b	5d		 pop	 ebp
  0001c	c2 04 00	 ret	 4
??_GioSpeedAccumlateBuff@@UAEPAXI@Z ENDP		; ioSpeedAccumlateBuff::`scalar deleting destructor'
_TEXT	ENDS
PUBLIC	_rkLoader$GSCopy$
PUBLIC	__$ArrayPad$
EXTRN	?LoadProperty@ioBuff@@UAEXAAVioINILoader@@@Z:PROC ; ioBuff::LoadProperty
; Function compile flags: /Ogsp
;	COMDAT ?LoadProperty@ioSpeedAccumlateBuff@@UAEXAAVioINILoader@@@Z
_TEXT	SEGMENT
_rkLoader$GSCopy$ = -48					; size = 4
_value$527959 = -44					; size = 4
_value$527829 = -44					; size = 4
_value$527699 = -44					; size = 4
_value$527569 = -44					; size = 4
_value$527439 = -44					; size = 4
__k$527729 = -40					; size = 29
__k$527599 = -36					; size = 24
__k$527201 = -36					; size = 22
__k$527859 = -32					; size = 21
__k$527469 = -32					; size = 20
__k$527326 = -32					; size = 21
__k$527154 = -32					; size = 19
__$ArrayPad$ = -4					; size = 4
_rkLoader$ = 8						; size = 4
?LoadProperty@ioSpeedAccumlateBuff@@UAEXAAVioINILoader@@@Z PROC ; ioSpeedAccumlateBuff::LoadProperty, COMDAT
; _this$ = ecx

; 30   : {

  00000	55		 push	 ebp
  00001	8b ec		 mov	 ebp, esp
  00003	83 ec 30	 sub	 esp, 48			; 00000030H
  00006	a1 00 00 00 00	 mov	 eax, DWORD PTR ___security_cookie
  0000b	33 c5		 xor	 eax, ebp
  0000d	89 45 fc	 mov	 DWORD PTR __$ArrayPad$[ebp], eax
  00010	53		 push	 ebx
  00011	56		 push	 esi
  00012	57		 push	 edi
  00013	8b 7d 08	 mov	 edi, DWORD PTR _rkLoader$[ebp]

; 31   : 	ioBuff::LoadProperty( rkLoader );

  00016	57		 push	 edi
  00017	8b f1		 mov	 esi, ecx

; 39   : 	m_dwAccumulateDurationBossNpc = (DWORD)rkLoader.LoadInt_e( "accumulate_duration_boss_npc", 0.0f );

  00019	89 7d d0	 mov	 DWORD PTR _rkLoader$GSCopy$[ebp], edi
  0001c	e8 00 00 00 00	 call	 ?LoadProperty@ioBuff@@UAEXAAVioINILoader@@@Z ; ioBuff::LoadProperty
  00021	33 db		 xor	 ebx, ebx
  00023	6a 04		 push	 4
  00025	c7 45 e0 89 85
	98 8b		 mov	 DWORD PTR __k$527154[ebp], -1952938615 ; 8b988589H
  0002c	c7 45 e4 8f 80
	8e b5		 mov	 DWORD PTR __k$527154[ebp+4], -1248952177 ; b58e808fH
  00033	c7 45 e8 89 83
	9c 84		 mov	 DWORD PTR __k$527154[ebp+8], -2070117495 ; 849c8389H
  0003a	c7 45 ec b2 9f
	9f 8b		 mov	 DWORD PTR __k$527154[ebp+12], -1952473166 ; 8b9f9fb2H
  00041	66 c7 45 f0 99
	89		 mov	 WORD PTR __k$527154[ebp+16], 35225 ; 00008999H
  00047	8d 45 e0	 lea	 eax, DWORD PTR __k$527154[ebp]
  0004a	88 5d f2	 mov	 BYTE PTR __k$527154[ebp+18], bl
  0004d	59		 pop	 ecx
$LL106@LoadProper:

; 32   : 
; 33   : 	m_bDisableDownState  = rkLoader.LoadBool_e( "disable_down_state", false );

  0004e	81 30 ed ec eb
	ea		 xor	 DWORD PTR [eax], -353637139 ; eaebecedH
  00054	83 c0 04	 add	 eax, 4
  00057	49		 dec	 ecx
  00058	75 f4		 jne	 SHORT $LL106@LoadProper
  0005a	6a 10		 push	 16			; 00000010H
  0005c	58		 pop	 eax
$LL103@LoadProper:
  0005d	8b c8		 mov	 ecx, eax
  0005f	81 e1 03 00 00
	80		 and	 ecx, -2147483645	; 80000003H
  00065	79 05		 jns	 SHORT $LN783@LoadProper
  00067	49		 dec	 ecx
  00068	83 c9 fc	 or	 ecx, -4			; fffffffcH
  0006b	41		 inc	 ecx
$LN783@LoadProper:
  0006c	b2 ed		 mov	 dl, -19			; ffffffedH
  0006e	2a d1		 sub	 dl, cl
  00070	30 54 05 e0	 xor	 BYTE PTR __k$527154[ebp+eax], dl
  00074	40		 inc	 eax
  00075	83 f8 12	 cmp	 eax, 18			; 00000012H
  00078	7c e3		 jl	 SHORT $LL103@LoadProper
  0007a	53		 push	 ebx
  0007b	8d 45 e0	 lea	 eax, DWORD PTR __k$527154[ebp]
  0007e	8b cf		 mov	 ecx, edi
  00080	8b 3d 00 00 00
	00		 mov	 edi, DWORD PTR __imp_?LoadBool@ioINILoader@@QAE_NPBD_N@Z
  00086	50		 push	 eax
  00087	ff d7		 call	 edi
  00089	6a 05		 push	 5
  0008b	88 86 6c 09 00
	00		 mov	 BYTE PTR [esi+2412], al

; 34   : 	m_bUseWeaponEquipMesh = rkLoader.LoadBool_e( "use_weapon_equip_mesh", false );

  00091	c7 45 dc 98 9f
	8e b5		 mov	 DWORD PTR __k$527201[ebp], -1248944232 ; b58e9f98H
  00098	c7 45 e0 9a 89
	8a 9a		 mov	 DWORD PTR __k$527201[ebp+4], -1702196838 ; 9a8a899aH
  0009f	c7 45 e4 82 82
	b4 8f		 mov	 DWORD PTR __k$527201[ebp+8], -1883995518 ; 8fb48282H
  000a6	c7 45 e8 9c 99
	82 9a		 mov	 DWORD PTR __k$527201[ebp+12], -1702717028 ; 9a82999cH
  000ad	c7 45 ec b2 81
	8e 99		 mov	 DWORD PTR __k$527201[ebp+16], -1718713934 ; 998e81b2H
  000b4	8d 45 dc	 lea	 eax, DWORD PTR __k$527201[ebp]
  000b7	66 c7 45 f0 85
	00		 mov	 WORD PTR __k$527201[ebp+20], 133 ; 00000085H
  000bd	59		 pop	 ecx
$LL212@LoadProper:
  000be	81 30 ed ec eb
	ea		 xor	 DWORD PTR [eax], -353637139 ; eaebecedH
  000c4	83 c0 04	 add	 eax, 4
  000c7	49		 dec	 ecx
  000c8	75 f4		 jne	 SHORT $LL212@LoadProper
  000ca	8b 4d d0	 mov	 ecx, DWORD PTR _rkLoader$GSCopy$[ebp]
  000cd	80 75 f0 ed	 xor	 BYTE PTR __k$527201[ebp+20], -19 ; ffffffedH
  000d1	53		 push	 ebx
  000d2	8d 45 dc	 lea	 eax, DWORD PTR __k$527201[ebp]
  000d5	50		 push	 eax
  000d6	ff d7		 call	 edi
  000d8	6a 05		 push	 5
  000da	88 86 6d 09 00
	00		 mov	 BYTE PTR [esi+2413], al

; 35   : 
; 36   : 	m_iMaxCount = rkLoader.LoadInt_e( "max_accumulate_count", 0 );

  000e0	c7 45 e0 80 8d
	93 b5		 mov	 DWORD PTR __k$527326[ebp], -1248621184 ; b5938d80H
  000e7	c7 45 e4 8c 8f
	88 9f		 mov	 DWORD PTR __k$527326[ebp+4], -1618440308 ; 9f888f8cH
  000ee	c7 45 e8 80 99
	87 8b		 mov	 DWORD PTR __k$527326[ebp+8], -1954047616 ; 8b879980H
  000f5	c7 45 ec 99 89
	b4 89		 mov	 DWORD PTR __k$527326[ebp+12], -1984656999 ; 89b48999H
  000fc	c7 45 f0 82 99
	85 9e		 mov	 DWORD PTR __k$527326[ebp+16], -1635411582 ; 9e859982H
  00103	8d 45 e0	 lea	 eax, DWORD PTR __k$527326[ebp]
  00106	88 5d f4	 mov	 BYTE PTR __k$527326[ebp+20], bl
  00109	59		 pop	 ecx
$LL318@LoadProper:
  0010a	81 30 ed ec eb
	ea		 xor	 DWORD PTR [eax], -353637139 ; eaebecedH
  00110	83 c0 04	 add	 eax, 4
  00113	49		 dec	 ecx
  00114	75 f4		 jne	 SHORT $LL318@LoadProper
  00116	8b 4d d0	 mov	 ecx, DWORD PTR _rkLoader$GSCopy$[ebp]
  00119	8b 3d 00 00 00
	00		 mov	 edi, DWORD PTR __imp_?LoadInt@ioINILoader@@QAEHPBDH@Z
  0011f	53		 push	 ebx
  00120	8d 45 e0	 lea	 eax, DWORD PTR __k$527326[ebp]
  00123	50		 push	 eax
  00124	ff d7		 call	 edi
  00126	89 45 d4	 mov	 DWORD PTR _value$527439[ebp], eax
  00129	8d 45 d4	 lea	 eax, DWORD PTR _value$527439[ebp]
  0012c	50		 push	 eax
  0012d	8d 8e 74 09 00
	00		 lea	 ecx, DWORD PTR [esi+2420]
  00133	e8 00 00 00 00	 call	 ?EncryptValueToPool@?$CEncrypt@H@@AAEXPBD@Z ; CEncrypt<int>::EncryptValueToPool
  00138	6a 04		 push	 4

; 37   : 	m_dwAccumulateDuration = (DWORD)rkLoader.LoadInt_e( "accumulate_duration", 0.0f );

  0013a	c7 45 e0 8c 8f
	88 9f		 mov	 DWORD PTR __k$527469[ebp], -1618440308 ; 9f888f8cH
  00141	c7 45 e4 80 99
	87 8b		 mov	 DWORD PTR __k$527469[ebp+4], -1954047616 ; 8b879980H
  00148	c7 45 e8 99 89
	b4 8e		 mov	 DWORD PTR __k$527469[ebp+8], -1900770919 ; 8eb48999H
  0014f	c7 45 ec 98 9e
	8a 9e		 mov	 DWORD PTR __k$527469[ebp+12], -1635082600 ; 9e8a9e98H
  00156	8d 45 e0	 lea	 eax, DWORD PTR __k$527469[ebp]
  00159	c7 45 f0 84 83
	85 00		 mov	 DWORD PTR __k$527469[ebp+16], 8749956 ; 00858384H
  00160	59		 pop	 ecx
$LL426@LoadProper:
  00161	81 30 ed ec eb
	ea		 xor	 DWORD PTR [eax], -353637139 ; eaebecedH
  00167	83 c0 04	 add	 eax, 4
  0016a	49		 dec	 ecx
  0016b	75 f4		 jne	 SHORT $LL426@LoadProper
  0016d	6a 10		 push	 16			; 00000010H
  0016f	58		 pop	 eax
$LL423@LoadProper:
  00170	8b c8		 mov	 ecx, eax
  00172	81 e1 03 00 00
	80		 and	 ecx, -2147483645	; 80000003H
  00178	79 05		 jns	 SHORT $LN784@LoadProper
  0017a	49		 dec	 ecx
  0017b	83 c9 fc	 or	 ecx, -4			; fffffffcH
  0017e	41		 inc	 ecx
$LN784@LoadProper:
  0017f	b2 ed		 mov	 dl, -19			; ffffffedH
  00181	2a d1		 sub	 dl, cl
  00183	30 54 05 e0	 xor	 BYTE PTR __k$527469[ebp+eax], dl
  00187	40		 inc	 eax
  00188	83 f8 13	 cmp	 eax, 19			; 00000013H
  0018b	7c e3		 jl	 SHORT $LL423@LoadProper
  0018d	8b 4d d0	 mov	 ecx, DWORD PTR _rkLoader$GSCopy$[ebp]
  00190	53		 push	 ebx
  00191	8d 45 e0	 lea	 eax, DWORD PTR __k$527469[ebp]
  00194	50		 push	 eax
  00195	ff d7		 call	 edi
  00197	89 45 d4	 mov	 DWORD PTR _value$527569[ebp], eax
  0019a	8d 45 d4	 lea	 eax, DWORD PTR _value$527569[ebp]
  0019d	50		 push	 eax
  0019e	8d 8e a4 09 00
	00		 lea	 ecx, DWORD PTR [esi+2468]
  001a4	e8 00 00 00 00	 call	 ?EncryptValueToPool@?$CEncrypt@K@@AAEXPBD@Z ; CEncrypt<unsigned long>::EncryptValueToPool
  001a9	6a 05		 push	 5

; 38   : 	m_dwAccumulateDurationNpc = (DWORD)rkLoader.LoadInt_e( "accumulate_duration_npc", 0.0f );

  001ab	c7 45 dc 8c 8f
	88 9f		 mov	 DWORD PTR __k$527599[ebp], -1618440308 ; 9f888f8cH
  001b2	c7 45 e0 80 99
	87 8b		 mov	 DWORD PTR __k$527599[ebp+4], -1954047616 ; 8b879980H
  001b9	c7 45 e4 99 89
	b4 8e		 mov	 DWORD PTR __k$527599[ebp+8], -1900770919 ; 8eb48999H
  001c0	c7 45 e8 98 9e
	8a 9e		 mov	 DWORD PTR __k$527599[ebp+12], -1635082600 ; 9e8a9e98H
  001c7	c7 45 ec 84 83
	85 b5		 mov	 DWORD PTR __k$527599[ebp+16], -1249541244 ; b5858384H
  001ce	8d 45 dc	 lea	 eax, DWORD PTR __k$527599[ebp]
  001d1	c7 45 f0 83 9c
	88 00		 mov	 DWORD PTR __k$527599[ebp+20], 8952963 ; 00889c83H
  001d8	59		 pop	 ecx
$LL534@LoadProper:
  001d9	81 30 ed ec eb
	ea		 xor	 DWORD PTR [eax], -353637139 ; eaebecedH
  001df	83 c0 04	 add	 eax, 4
  001e2	49		 dec	 ecx
  001e3	75 f4		 jne	 SHORT $LL534@LoadProper
  001e5	6a 14		 push	 20			; 00000014H
  001e7	58		 pop	 eax
$LL531@LoadProper:
  001e8	8b c8		 mov	 ecx, eax
  001ea	81 e1 03 00 00
	80		 and	 ecx, -2147483645	; 80000003H
  001f0	79 05		 jns	 SHORT $LN785@LoadProper
  001f2	49		 dec	 ecx
  001f3	83 c9 fc	 or	 ecx, -4			; fffffffcH
  001f6	41		 inc	 ecx
$LN785@LoadProper:
  001f7	b2 ed		 mov	 dl, -19			; ffffffedH
  001f9	2a d1		 sub	 dl, cl
  001fb	30 54 05 dc	 xor	 BYTE PTR __k$527599[ebp+eax], dl
  001ff	40		 inc	 eax
  00200	83 f8 17	 cmp	 eax, 23			; 00000017H
  00203	7c e3		 jl	 SHORT $LL531@LoadProper
  00205	8b 4d d0	 mov	 ecx, DWORD PTR _rkLoader$GSCopy$[ebp]
  00208	53		 push	 ebx
  00209	8d 45 dc	 lea	 eax, DWORD PTR __k$527599[ebp]
  0020c	50		 push	 eax
  0020d	ff d7		 call	 edi
  0020f	89 45 d4	 mov	 DWORD PTR _value$527699[ebp], eax
  00212	8d 45 d4	 lea	 eax, DWORD PTR _value$527699[ebp]
  00215	50		 push	 eax
  00216	8d 8e d4 09 00
	00		 lea	 ecx, DWORD PTR [esi+2516]
  0021c	e8 00 00 00 00	 call	 ?EncryptValueToPool@?$CEncrypt@K@@AAEXPBD@Z ; CEncrypt<unsigned long>::EncryptValueToPool
  00221	6a 07		 push	 7

; 39   : 	m_dwAccumulateDurationBossNpc = (DWORD)rkLoader.LoadInt_e( "accumulate_duration_boss_npc", 0.0f );

  00223	c7 45 d8 8c 8f
	88 9f		 mov	 DWORD PTR __k$527729[ebp], -1618440308 ; 9f888f8cH
  0022a	c7 45 dc 80 99
	87 8b		 mov	 DWORD PTR __k$527729[ebp+4], -1954047616 ; 8b879980H
  00231	c7 45 e0 99 89
	b4 8e		 mov	 DWORD PTR __k$527729[ebp+8], -1900770919 ; 8eb48999H
  00238	c7 45 e4 98 9e
	8a 9e		 mov	 DWORD PTR __k$527729[ebp+12], -1635082600 ; 9e8a9e98H
  0023f	c7 45 e8 84 83
	85 b5		 mov	 DWORD PTR __k$527729[ebp+16], -1249541244 ; b5858384H
  00246	c7 45 ec 8f 83
	98 99		 mov	 DWORD PTR __k$527729[ebp+20], -1718058097 ; 9998838fH
  0024d	c7 45 f0 b2 82
	9b 89		 mov	 DWORD PTR __k$527729[ebp+24], -1986297166 ; 899b82b2H
  00254	8d 45 d8	 lea	 eax, DWORD PTR __k$527729[ebp]
  00257	88 5d f4	 mov	 BYTE PTR __k$527729[ebp+28], bl
  0025a	59		 pop	 ecx
$LL642@LoadProper:
  0025b	81 30 ed ec eb
	ea		 xor	 DWORD PTR [eax], -353637139 ; eaebecedH
  00261	83 c0 04	 add	 eax, 4
  00264	49		 dec	 ecx
  00265	75 f4		 jne	 SHORT $LL642@LoadProper
  00267	8b 4d d0	 mov	 ecx, DWORD PTR _rkLoader$GSCopy$[ebp]
  0026a	53		 push	 ebx
  0026b	8d 45 d8	 lea	 eax, DWORD PTR __k$527729[ebp]
  0026e	50		 push	 eax
  0026f	ff d7		 call	 edi
  00271	89 45 d4	 mov	 DWORD PTR _value$527829[ebp], eax
  00274	8d 45 d4	 lea	 eax, DWORD PTR _value$527829[ebp]
  00277	50		 push	 eax
  00278	8d 8e 04 0a 00
	00		 lea	 ecx, DWORD PTR [esi+2564]
  0027e	e8 00 00 00 00	 call	 ?EncryptValueToPool@?$CEncrypt@K@@AAEXPBD@Z ; CEncrypt<unsigned long>::EncryptValueToPool
  00283	6a 05		 push	 5

; 40   : 
; 41   : 	m_fSpeedRate = rkLoader.LoadFloat_e( "accumlate_speed_rate", 0.0f );

  00285	c7 45 e0 8c 8f
	88 9f		 mov	 DWORD PTR __k$527859[ebp], -1618440308 ; 9f888f8cH
  0028c	c7 45 e4 80 80
	8a 9e		 mov	 DWORD PTR __k$527859[ebp+4], -1635090304 ; 9e8a8080H
  00293	c7 45 e8 88 b3
	98 9a		 mov	 DWORD PTR __k$527859[ebp+8], -1701268600 ; 9a98b388H
  0029a	c7 45 ec 88 89
	8f b5		 mov	 DWORD PTR __k$527859[ebp+12], -1248884344 ; b58f8988H
  002a1	c7 45 f0 9f 8d
	9f 8f		 mov	 DWORD PTR __k$527859[ebp+16], -1885368929 ; 8f9f8d9fH
  002a8	8d 45 e0	 lea	 eax, DWORD PTR __k$527859[ebp]
  002ab	88 5d f4	 mov	 BYTE PTR __k$527859[ebp+20], bl
  002ae	59		 pop	 ecx
$LL750@LoadProper:
  002af	81 30 ed ec eb
	ea		 xor	 DWORD PTR [eax], -353637139 ; eaebecedH
  002b5	83 c0 04	 add	 eax, 4
  002b8	49		 dec	 ecx
  002b9	75 f4		 jne	 SHORT $LL750@LoadProper
  002bb	0f 57 c0	 xorps	 xmm0, xmm0
  002be	51		 push	 ecx
  002bf	8b 4d d0	 mov	 ecx, DWORD PTR _rkLoader$GSCopy$[ebp]
  002c2	8d 45 e0	 lea	 eax, DWORD PTR __k$527859[ebp]
  002c5	f3 0f 11 04 24	 movss	 DWORD PTR [esp], xmm0
  002ca	50		 push	 eax
  002cb	ff 15 00 00 00
	00		 call	 DWORD PTR __imp_?LoadFloat@ioINILoader@@QAEMPBDM@Z
  002d1	d9 5d d4	 fstp	 DWORD PTR _value$527959[ebp]
  002d4	8d 45 d4	 lea	 eax, DWORD PTR _value$527959[ebp]
  002d7	50		 push	 eax
  002d8	8d 8e 34 0a 00
	00		 lea	 ecx, DWORD PTR [esi+2612]
  002de	e8 00 00 00 00	 call	 ?EncryptValueToPool@?$CEncrypt@M@@AAEXPBD@Z ; CEncrypt<float>::EncryptValueToPool

; 42   : }

  002e3	8b 4d fc	 mov	 ecx, DWORD PTR __$ArrayPad$[ebp]
  002e6	5f		 pop	 edi
  002e7	5e		 pop	 esi
  002e8	33 cd		 xor	 ecx, ebp
  002ea	5b		 pop	 ebx
  002eb	e8 00 00 00 00	 call	 @__security_check_cookie@4
  002f0	c9		 leave
  002f1	c2 04 00	 ret	 4
?LoadProperty@ioSpeedAccumlateBuff@@UAEXAAVioINILoader@@@Z ENDP ; ioSpeedAccumlateBuff::LoadProperty
_TEXT	ENDS
EXTRN	?SetChangeEquipMesh@ioBaseChar@@QAEXABVioHashString@@_N@Z:PROC ; ioBaseChar::SetChangeEquipMesh
EXTRN	?ApplyStartBuff@ioBuff@@UAE_NPAVioBaseChar@@KK@Z:PROC ; ioBuff::ApplyStartBuff
; Function compile flags: /Ogsp
;	COMDAT ?ApplyStartBuff@ioSpeedAccumlateBuff@@UAE_NPAVioBaseChar@@KK@Z
_TEXT	SEGMENT
_value$528001 = 8					; size = 4
_pOwner$ = 8						; size = 4
_dwGlobalTime$ = 12					; size = 4
_dwGapTime$ = 16					; size = 4
?ApplyStartBuff@ioSpeedAccumlateBuff@@UAE_NPAVioBaseChar@@KK@Z PROC ; ioSpeedAccumlateBuff::ApplyStartBuff, COMDAT
; _this$ = ecx

; 66   : {

  00000	55		 push	 ebp
  00001	8b ec		 mov	 ebp, esp
  00003	56		 push	 esi

; 67   : 	if( !ioBuff::ApplyStartBuff( pOwner, dwGlobalTime, dwGapTime ) )

  00004	ff 75 10	 push	 DWORD PTR _dwGapTime$[ebp]
  00007	8b f1		 mov	 esi, ecx
  00009	ff 75 0c	 push	 DWORD PTR _dwGlobalTime$[ebp]
  0000c	ff 75 08	 push	 DWORD PTR _pOwner$[ebp]
  0000f	e8 00 00 00 00	 call	 ?ApplyStartBuff@ioBuff@@UAE_NPAVioBaseChar@@KK@Z ; ioBuff::ApplyStartBuff
  00014	84 c0		 test	 al, al
  00016	74 40		 je	 SHORT $LN3@ApplyStart
$LN2@ApplyStart:

; 68   : 		return false;
; 69   : 
; 70   : 	if( m_bUseWeaponEquipMesh && pOwner )

  00018	80 be 6d 09 00
	00 00		 cmp	 BYTE PTR [esi+2413], 0
  0001f	74 17		 je	 SHORT $LN1@ApplyStart
  00021	83 7d 08 00	 cmp	 DWORD PTR _pOwner$[ebp], 0
  00025	74 11		 je	 SHORT $LN1@ApplyStart

; 71   : 	{
; 72   : 		pOwner->SetChangeEquipMesh( m_ItemName, true );

  00027	8b 4d 08	 mov	 ecx, DWORD PTR _pOwner$[ebp]
  0002a	6a 01		 push	 1
  0002c	8d 86 44 02 00
	00		 lea	 eax, DWORD PTR [esi+580]
  00032	50		 push	 eax
  00033	e8 00 00 00 00	 call	 ?SetChangeEquipMesh@ioBaseChar@@QAEXABVioHashString@@_N@Z ; ioBaseChar::SetChangeEquipMesh
$LN1@ApplyStart:

; 73   : 	}
; 74   : 
; 75   : 	m_iCurCount = 0;
; 76   : 	m_fCurAccumSpeedRate = 0.0f;

  00038	0f 57 c0	 xorps	 xmm0, xmm0
  0003b	83 a6 70 09 00
	00 00		 and	 DWORD PTR [esi+2416], 0
  00042	8d 45 08	 lea	 eax, DWORD PTR _value$528001[ebp]
  00045	50		 push	 eax
  00046	8d 8e 10 06 00
	00		 lea	 ecx, DWORD PTR [esi+1552]
  0004c	f3 0f 11 45 08	 movss	 DWORD PTR _value$528001[ebp], xmm0
  00051	e8 00 00 00 00	 call	 ?EncryptValueToPool@?$CEncrypt@M@@AAEXPBD@Z ; CEncrypt<float>::EncryptValueToPool

; 77   : 
; 78   : 	return true;

  00056	b0 01		 mov	 al, 1
$LN3@ApplyStart:
  00058	5e		 pop	 esi

; 79   : }

  00059	5d		 pop	 ebp
  0005a	c2 0c 00	 ret	 12			; 0000000cH
?ApplyStartBuff@ioSpeedAccumlateBuff@@UAE_NPAVioBaseChar@@KK@Z ENDP ; ioSpeedAccumlateBuff::ApplyStartBuff
_TEXT	ENDS
EXTRN	?CheckCallingAreaWeapon@ioBuff@@IAEXXZ:PROC	; ioBuff::CheckCallingAreaWeapon
EXTRN	?GetOwner@ioBuff@@QAEPAVioBaseChar@@XZ:PROC	; ioBuff::GetOwner
EXTRN	?CheckSwitchType@ioBuff@@IAE_NM@Z:PROC		; ioBuff::CheckSwitchType
EXTRN	__imp_?GetLoopSec@ioFrameTimer@@QBEKXZ:PROC
EXTRN	__imp_?GetSingleton@ioFrameTimer@@SAAAV1@XZ:PROC
EXTRN	?GetBuffDuration@ioBuff@@IAEKXZ:PROC		; ioBuff::GetBuffDuration
EXTRN	?CheckCallingProcess@ioBuff@@IAEXXZ:PROC	; ioBuff::CheckCallingProcess
EXTRN	?CheckEnableDelayState@ioBuff@@IAE_NXZ:PROC	; ioBuff::CheckEnableDelayState
; Function compile flags: /Ogsp
;	COMDAT ?ProcessBuff@ioSpeedAccumlateBuff@@UAEXM@Z
_TEXT	SEGMENT
_value$528008 = 8					; size = 4
_fTimePerSec$ = 8					; size = 4
?ProcessBuff@ioSpeedAccumlateBuff@@UAEXM@Z PROC		; ioSpeedAccumlateBuff::ProcessBuff, COMDAT
; _this$ = ecx

; 82   : {

  00000	55		 push	 ebp
  00001	8b ec		 mov	 ebp, esp
  00003	56		 push	 esi
  00004	8b f1		 mov	 esi, ecx

; 83   : 	if( CheckOwnerStateCheck() )

  00006	e8 00 00 00 00	 call	 ?CheckOwnerStateCheck@ioSpeedAccumlateBuff@@IAE_NXZ ; ioSpeedAccumlateBuff::CheckOwnerStateCheck
  0000b	84 c0		 test	 al, al
  0000d	0f 85 fb 00 00
	00		 jne	 $LN10@ProcessBuf

; 84   : 		return;
; 85   : 
; 86   : 	switch( m_iOperationType )

  00013	8b 86 d0 03 00
	00		 mov	 eax, DWORD PTR [esi+976]
  00019	53		 push	 ebx
  0001a	33 db		 xor	 ebx, ebx
  0001c	2b c3		 sub	 eax, ebx
  0001e	0f 84 e2 00 00
	00		 je	 $LN1@ProcessBuf
  00024	48		 dec	 eax
  00025	74 0e		 je	 SHORT $LN6@ProcessBuf
  00027	48		 dec	 eax
  00028	0f 84 91 00 00
	00		 je	 $LN9@ProcessBuf
  0002e	48		 dec	 eax
  0002f	0f 85 d8 00 00
	00		 jne	 $LN17@ProcessBuf
$LN6@ProcessBuf:

; 101  : 	case OT_DELAY:
; 102  : 	case OT_ACTIVE:
; 103  : 		{
; 104  : 			if( CheckEnableDelayState() )

  00035	8b ce		 mov	 ecx, esi
  00037	e8 00 00 00 00	 call	 ?CheckEnableDelayState@ioBuff@@IAE_NXZ ; ioBuff::CheckEnableDelayState
  0003c	84 c0		 test	 al, al
  0003e	0f 85 c9 00 00
	00		 jne	 $LN17@ProcessBuf

; 105  : 				return;
; 106  : 
; 107  : 			CheckCallingProcess();

  00044	8b ce		 mov	 ecx, esi
  00046	e8 00 00 00 00	 call	 ?CheckCallingProcess@ioBuff@@IAEXXZ ; ioBuff::CheckCallingProcess

; 108  : 
; 109  : 			if( GetBuffDuration() == 0 )

  0004b	8b ce		 mov	 ecx, esi
  0004d	e8 00 00 00 00	 call	 ?GetBuffDuration@ioBuff@@IAEKXZ ; ioBuff::GetBuffDuration
  00052	85 c0		 test	 eax, eax
  00054	0f 84 b3 00 00
	00		 je	 $LN17@ProcessBuf

; 110  : 				return;
; 111  : 
; 112  : 			if( m_dwBuffEndTime <= FRAMEGETTIME() )

  0005a	57		 push	 edi
  0005b	ff 15 00 00 00
	00		 call	 DWORD PTR __imp_?GetSingleton@ioFrameTimer@@SAAAV1@XZ
  00061	8b c8		 mov	 ecx, eax
  00063	ff 15 00 00 00
	00		 call	 DWORD PTR __imp_?GetLoopSec@ioFrameTimer@@QBEKXZ
  00069	8b f8		 mov	 edi, eax
  0006b	8d 45 08	 lea	 eax, DWORD PTR _value$528008[ebp]
  0006e	50		 push	 eax
  0006f	8d 8e 9c 03 00
	00		 lea	 ecx, DWORD PTR [esi+924]
  00075	e8 00 00 00 00	 call	 ?DecryptValueToPool@?$CEncrypt@K@@QAEXPAK@Z ; CEncrypt<unsigned long>::DecryptValueToPool
  0007a	39 7d 08	 cmp	 DWORD PTR _value$528008[ebp], edi
  0007d	5f		 pop	 edi
  0007e	0f 87 89 00 00
	00		 ja	 $LN17@ProcessBuf

; 113  : 			{
; 114  : 				if( CheckRestoreStateCheck() )

  00084	8b ce		 mov	 ecx, esi
  00086	e8 00 00 00 00	 call	 ?CheckRestoreStateCheck@ioSpeedAccumlateBuff@@IAE_NXZ ; ioSpeedAccumlateBuff::CheckRestoreStateCheck
  0008b	84 c0		 test	 al, al
  0008d	74 14		 je	 SHORT $LN2@ProcessBuf

; 115  : 				{
; 116  : 					m_pOwner->SetState( CS_DELAY, m_bSendDelayNetWork );

  0008f	0f b6 86 f9 08
	00 00		 movzx	 eax, BYTE PTR [esi+2297]
  00096	8b 8e 74 02 00
	00		 mov	 ecx, DWORD PTR [esi+628]
  0009c	50		 push	 eax
  0009d	53		 push	 ebx
$LN18@ProcessBuf:
  0009e	e8 00 00 00 00	 call	 ?SetState@ioBaseChar@@QAEXH_N@Z ; ioBaseChar::SetState
$LN2@ProcessBuf:

; 117  : 				}
; 118  : 
; 119  : 				m_pOwner->CheckUseBuffSkill( m_Name, false );

  000a3	8b 8e 74 02 00
	00		 mov	 ecx, DWORD PTR [esi+628]
  000a9	53		 push	 ebx
  000aa	8d 86 34 02 00
	00		 lea	 eax, DWORD PTR [esi+564]
  000b0	50		 push	 eax
  000b1	e8 00 00 00 00	 call	 ?CheckUseBuffSkill@ioBaseChar@@QAEXABVioHashString@@_N@Z ; ioBaseChar::CheckUseBuffSkill

; 120  : 				SetReserveEndBuff();

  000b6	8b ce		 mov	 ecx, esi
  000b8	e8 00 00 00 00	 call	 ?SetReserveEndBuff@ioBuff@@QAEXXZ ; ioBuff::SetReserveEndBuff

; 121  : 				return;

  000bd	eb 4e		 jmp	 SHORT $LN17@ProcessBuf
$LN9@ProcessBuf:

; 87   : 	{
; 88   : 	case OT_SWITCH:
; 89   : 		if( !CheckSwitchType( fTimePerSec ) )

  000bf	f3 0f 10 45 08	 movss	 xmm0, DWORD PTR _fTimePerSec$[ebp]
  000c4	51		 push	 ecx
  000c5	8b ce		 mov	 ecx, esi
  000c7	f3 0f 11 04 24	 movss	 DWORD PTR [esp], xmm0
  000cc	e8 00 00 00 00	 call	 ?CheckSwitchType@ioBuff@@IAE_NM@Z ; ioBuff::CheckSwitchType

; 90   : 		{
; 91   : 			if( GetOwner() && CheckRestoreStateCheck() )

  000d1	8b ce		 mov	 ecx, esi
  000d3	84 c0		 test	 al, al
  000d5	75 28		 jne	 SHORT $LN8@ProcessBuf
  000d7	e8 00 00 00 00	 call	 ?GetOwner@ioBuff@@QAEPAVioBaseChar@@XZ ; ioBuff::GetOwner
  000dc	85 c0		 test	 eax, eax
  000de	74 c3		 je	 SHORT $LN2@ProcessBuf
  000e0	8b ce		 mov	 ecx, esi
  000e2	e8 00 00 00 00	 call	 ?CheckRestoreStateCheck@ioSpeedAccumlateBuff@@IAE_NXZ ; ioSpeedAccumlateBuff::CheckRestoreStateCheck
  000e7	84 c0		 test	 al, al
  000e9	74 b8		 je	 SHORT $LN2@ProcessBuf

; 92   : 				GetOwner()->SetState( CS_DELAY, m_bSendDelayNetWork );

  000eb	0f b6 86 f9 08
	00 00		 movzx	 eax, BYTE PTR [esi+2297]
  000f2	50		 push	 eax
  000f3	53		 push	 ebx
  000f4	8b ce		 mov	 ecx, esi
  000f6	e8 00 00 00 00	 call	 ?GetOwner@ioBuff@@QAEPAVioBaseChar@@XZ ; ioBuff::GetOwner
  000fb	8b c8		 mov	 ecx, eax

; 93   : 
; 94   : 			m_pOwner->CheckUseBuffSkill( m_Name, false );
; 95   : 			SetReserveEndBuff();
; 96   : 			return;

  000fd	eb 9f		 jmp	 SHORT $LN18@ProcessBuf
$LN8@ProcessBuf:

; 97   : 		}
; 98   : 
; 99   : 		CheckCallingProcess();

  000ff	e8 00 00 00 00	 call	 ?CheckCallingProcess@ioBuff@@IAEXXZ ; ioBuff::CheckCallingProcess

; 100  : 		break;

  00104	eb 07		 jmp	 SHORT $LN17@ProcessBuf
$LN1@ProcessBuf:

; 122  : 			}
; 123  : 		}
; 124  : 		break;
; 125  : 	case OT_PASSIVE:
; 126  : 		CheckCallingAreaWeapon();

  00106	8b ce		 mov	 ecx, esi
  00108	e8 00 00 00 00	 call	 ?CheckCallingAreaWeapon@ioBuff@@IAEXXZ ; ioBuff::CheckCallingAreaWeapon
$LN17@ProcessBuf:
  0010d	5b		 pop	 ebx
$LN10@ProcessBuf:
  0010e	5e		 pop	 esi

; 127  : 		break;
; 128  : 	}
; 129  : }

  0010f	5d		 pop	 ebp
  00110	c2 04 00	 ret	 4
?ProcessBuff@ioSpeedAccumlateBuff@@UAEXM@Z ENDP		; ioSpeedAccumlateBuff::ProcessBuff
_TEXT	ENDS
EXTRN	?EndBuff@ioBuff@@UAEXXZ:PROC			; ioBuff::EndBuff
EXTRN	?CheckRefreshExtendDashState@ioBaseChar@@QAEXXZ:PROC ; ioBaseChar::CheckRefreshExtendDashState
; Function compile flags: /Ogsp
;	COMDAT ?EndBuff@ioSpeedAccumlateBuff@@UAEXXZ
_TEXT	SEGMENT
_value$528016 = -4					; size = 4
?EndBuff@ioSpeedAccumlateBuff@@UAEXXZ PROC		; ioSpeedAccumlateBuff::EndBuff, COMDAT
; _this$ = ecx

; 189  : {

  00000	55		 push	 ebp
  00001	8b ec		 mov	 ebp, esp
  00003	51		 push	 ecx
  00004	56		 push	 esi
  00005	8b f1		 mov	 esi, ecx

; 190  : 	if( m_bUseWeaponEquipMesh && m_pOwner )

  00007	80 be 6d 09 00
	00 00		 cmp	 BYTE PTR [esi+2413], 0
  0000e	74 18		 je	 SHORT $LN9@EndBuff
  00010	8b 8e 74 02 00
	00		 mov	 ecx, DWORD PTR [esi+628]
  00016	85 c9		 test	 ecx, ecx
  00018	74 0e		 je	 SHORT $LN9@EndBuff

; 191  : 	{
; 192  : 		m_pOwner->SetChangeEquipMesh( m_ItemName, false );

  0001a	6a 00		 push	 0
  0001c	8d 86 44 02 00
	00		 lea	 eax, DWORD PTR [esi+580]
  00022	50		 push	 eax
  00023	e8 00 00 00 00	 call	 ?SetChangeEquipMesh@ioBaseChar@@QAEXABVioHashString@@_N@Z ; ioBaseChar::SetChangeEquipMesh
$LN9@EndBuff:

; 193  : 	}
; 194  : 
; 195  : 	m_iCurCount = 0;
; 196  : 	m_fCurAccumSpeedRate = 0.0f;

  00028	0f 57 c0	 xorps	 xmm0, xmm0
  0002b	83 a6 70 09 00
	00 00		 and	 DWORD PTR [esi+2416], 0
  00032	8d 45 fc	 lea	 eax, DWORD PTR _value$528016[ebp]
  00035	50		 push	 eax
  00036	8d 8e 10 06 00
	00		 lea	 ecx, DWORD PTR [esi+1552]
  0003c	f3 0f 11 45 fc	 movss	 DWORD PTR _value$528016[ebp], xmm0
  00041	e8 00 00 00 00	 call	 ?EncryptValueToPool@?$CEncrypt@M@@AAEXPBD@Z ; CEncrypt<float>::EncryptValueToPool

; 197  : 
; 198  : 	ioBaseChar *pOwner = GetOwner();

  00046	8b ce		 mov	 ecx, esi
  00048	e8 00 00 00 00	 call	 ?GetOwner@ioBuff@@QAEPAVioBaseChar@@XZ ; ioBuff::GetOwner
  0004d	8b c8		 mov	 ecx, eax

; 199  : 	if( pOwner )

  0004f	85 c9		 test	 ecx, ecx
  00051	74 38		 je	 SHORT $LN1@EndBuff

; 200  : 	{
; 201  : 		if( pOwner->GetState() == CS_DELAY )

  00053	8a 81 10 03 00
	00		 mov	 al, BYTE PTR [ecx+784]
  00059	84 c0		 test	 al, al
  0005b	75 0c		 jne	 SHORT $LN7@EndBuff

; 202  : 			pOwner->SetState( CS_DELAY, m_bSendDelayNetWork );

  0005d	0f b6 86 f9 08
	00 00		 movzx	 eax, BYTE PTR [esi+2297]
  00064	50		 push	 eax
  00065	6a 00		 push	 0
  00067	eb 12		 jmp	 SHORT $LN22@EndBuff
$LN7@EndBuff:

; 203  : 		else if( pOwner->GetState() == CS_RUN )

  00069	33 d2		 xor	 edx, edx
  0006b	42		 inc	 edx
  0006c	3a c2		 cmp	 al, dl
  0006e	75 04		 jne	 SHORT $LN5@EndBuff

; 204  : 			pOwner->SetState( CS_RUN );

  00070	52		 push	 edx
  00071	52		 push	 edx
  00072	eb 07		 jmp	 SHORT $LN22@EndBuff
$LN5@EndBuff:

; 205  : 		else if( pOwner->GetState() == CS_DASH )

  00074	3c 02		 cmp	 al, 2
  00076	75 0a		 jne	 SHORT $LN3@EndBuff

; 206  : 			pOwner->SetState( CS_DASH );

  00078	52		 push	 edx
  00079	6a 02		 push	 2
$LN22@EndBuff:
  0007b	e8 00 00 00 00	 call	 ?SetState@ioBaseChar@@QAEXH_N@Z ; ioBaseChar::SetState
  00080	eb 09		 jmp	 SHORT $LN1@EndBuff
$LN3@EndBuff:

; 207  : 		else if( pOwner->GetState() == CS_EXTEND_DASH )

  00082	3c 03		 cmp	 al, 3
  00084	75 05		 jne	 SHORT $LN1@EndBuff

; 208  : 			pOwner->CheckRefreshExtendDashState();

  00086	e8 00 00 00 00	 call	 ?CheckRefreshExtendDashState@ioBaseChar@@QAEXXZ ; ioBaseChar::CheckRefreshExtendDashState
$LN1@EndBuff:

; 209  : 	}
; 210  : 
; 211  : 	ioBuff::EndBuff();

  0008b	8b ce		 mov	 ecx, esi
  0008d	e8 00 00 00 00	 call	 ?EndBuff@ioBuff@@UAEXXZ	; ioBuff::EndBuff
  00092	5e		 pop	 esi

; 212  : }

  00093	c9		 leave
  00094	c3		 ret	 0
?EndBuff@ioSpeedAccumlateBuff@@UAEXXZ ENDP		; ioSpeedAccumlateBuff::EndBuff
_TEXT	ENDS
PUBLIC	__real@00000000
PUBLIC	??4?$CEncrypt@M@@QAE_NAAV0@@Z			; CEncrypt<float>::operator=
;	COMDAT __real@00000000
; File d:\lost saga for developer\youtube\tutorial\source\src\lsclient\encryptvalue.h
CONST	SEGMENT
__real@00000000 DD 000000000r			; 0
; Function compile flags: /Ogsp
CONST	ENDS
;	COMDAT ??4?$CEncrypt@M@@QAE_NAAV0@@Z
_TEXT	SEGMENT
_value$528041 = -4					; size = 4
_value$ = 8						; size = 4
_inValue$ = 8						; size = 4
??4?$CEncrypt@M@@QAE_NAAV0@@Z PROC			; CEncrypt<float>::operator=, COMDAT
; _this$ = ecx

; 3314 : 	 {

  00000	55		 push	 ebp
  00001	8b ec		 mov	 ebp, esp
  00003	51		 push	 ecx
  00004	56		 push	 esi

; 3315 : 		 type value = inValue;

  00005	8d 45 fc	 lea	 eax, DWORD PTR _value$528041[ebp]
  00008	8b f1		 mov	 esi, ecx
  0000a	8b 4d 08	 mov	 ecx, DWORD PTR _inValue$[ebp]
  0000d	50		 push	 eax
  0000e	e8 00 00 00 00	 call	 ?DecryptValueToPool@?$CEncrypt@M@@QAEXPAM@Z ; CEncrypt<float>::DecryptValueToPool
  00013	f3 0f 10 45 fc	 movss	 xmm0, DWORD PTR _value$528041[ebp]

; 3316 : 		 EncryptValueToPool((char*)&value);

  00018	8d 45 08	 lea	 eax, DWORD PTR _value$[ebp]
  0001b	50		 push	 eax
  0001c	8b ce		 mov	 ecx, esi
  0001e	f3 0f 11 45 08	 movss	 DWORD PTR _value$[ebp], xmm0
  00023	e8 00 00 00 00	 call	 ?EncryptValueToPool@?$CEncrypt@M@@AAEXPBD@Z ; CEncrypt<float>::EncryptValueToPool

; 3317 : #ifdef _NOTUSE
; 3318 : 		 m_value = inValue;
; 3319 : 		 Debug();
; 3320 : #endif
; 3321 : 		 return value;

  00028	f3 0f 10 45 08	 movss	 xmm0, DWORD PTR _value$[ebp]
  0002d	0f 2e 05 00 00
	00 00		 ucomiss xmm0, DWORD PTR __real@00000000
  00034	9f		 lahf
  00035	5e		 pop	 esi
  00036	f6 c4 44	 test	 ah, 68			; 00000044H
  00039	7b 04		 jnp	 SHORT $LN3@operator@3
  0003b	b0 01		 mov	 al, 1
  0003d	eb 02		 jmp	 SHORT $LN4@operator@3
$LN3@operator@3:
  0003f	32 c0		 xor	 al, al
$LN4@operator@3:

; 3322 : 	 }

  00041	c9		 leave
  00042	c2 04 00	 ret	 4
??4?$CEncrypt@M@@QAE_NAAV0@@Z ENDP			; CEncrypt<float>::operator=
_TEXT	ENDS
PUBLIC	??0?$CEncrypt@K@@QAE@ABV0@@Z			; CEncrypt<unsigned long>::CEncrypt<unsigned long>
;	COMDAT xdata$x
xdata$x	SEGMENT
__unwindtable$??0?$CEncrypt@K@@QAE@ABV0@@Z DD 0ffffffffH
	DD	FLAT:__unwindfunclet$??0?$CEncrypt@K@@QAE@ABV0@@Z$0
__ehfuncinfo$??0?$CEncrypt@K@@QAE@ABV0@@Z DD 019930522H
	DD	01H
	DD	FLAT:__unwindtable$??0?$CEncrypt@K@@QAE@ABV0@@Z
	DD	2 DUP(00H)
	DD	2 DUP(00H)
	DD	00H
	DD	01H
; Function compile flags: /Ogsp
xdata$x	ENDS
;	COMDAT ??0?$CEncrypt@K@@QAE@ABV0@@Z
_TEXT	SEGMENT
_this$ = -16						; size = 4
__$EHRec$ = -12						; size = 12
_value$528053 = 8					; size = 4
_value$528048 = 8					; size = 4
_inValue$ = 8						; size = 4
??0?$CEncrypt@K@@QAE@ABV0@@Z PROC			; CEncrypt<unsigned long>::CEncrypt<unsigned long>, COMDAT
; _this$ = ecx

; 120  : 	CEncrypt( const CEncrypt<type> &inValue )   // 선언과 동시에 값을 대입하기 위해서

  00000	6a 04		 push	 4
  00002	b8 00 00 00 00	 mov	 eax, __ehhandler$??0?$CEncrypt@K@@QAE@ABV0@@Z
  00007	e8 00 00 00 00	 call	 __EH_prolog3
  0000c	8b f1		 mov	 esi, ecx
  0000e	89 75 f0	 mov	 DWORD PTR _this$[ebp], esi
  00011	8d 4e 0c	 lea	 ecx, DWORD PTR [esi+12]
  00014	c7 06 00 00 00
	00		 mov	 DWORD PTR [esi], OFFSET ??_7?$CEncrypt@K@@6B@
  0001a	e8 00 00 00 00	 call	 ??0ccddaabb@@QAE@XZ	; ccddaabb::ccddaabb
  0001f	83 65 fc 00	 and	 DWORD PTR __$EHRec$[ebp+8], 0

; 121  : 	{
; 122  : 		Init();

  00023	8b ce		 mov	 ecx, esi
  00025	e8 00 00 00 00	 call	 ?Init@?$CEncrypt@K@@AAEXXZ ; CEncrypt<unsigned long>::Init

; 123  : 		*this = inValue;

  0002a	8b 4d 08	 mov	 ecx, DWORD PTR _inValue$[ebp]
  0002d	8d 45 08	 lea	 eax, DWORD PTR _value$528048[ebp]
  00030	50		 push	 eax
  00031	e8 00 00 00 00	 call	 ?DecryptValueToPool@?$CEncrypt@K@@QAEXPAK@Z ; CEncrypt<unsigned long>::DecryptValueToPool
  00036	8b 45 08	 mov	 eax, DWORD PTR _value$528048[ebp]
  00039	89 45 08	 mov	 DWORD PTR _value$528053[ebp], eax
  0003c	8d 45 08	 lea	 eax, DWORD PTR _value$528053[ebp]
  0003f	50		 push	 eax
  00040	8b ce		 mov	 ecx, esi
  00042	e8 00 00 00 00	 call	 ?EncryptValueToPool@?$CEncrypt@K@@AAEXPBD@Z ; CEncrypt<unsigned long>::EncryptValueToPool

; 124  : 	}

  00047	8b c6		 mov	 eax, esi
  00049	e8 00 00 00 00	 call	 __EH_epilog3
  0004e	c2 04 00	 ret	 4
_TEXT	ENDS
;	COMDAT text$x
text$x	SEGMENT
__unwindfunclet$??0?$CEncrypt@K@@QAE@ABV0@@Z$0:
  00000	8b 4d f0	 mov	 ecx, DWORD PTR _this$[ebp]
  00003	83 c1 0c	 add	 ecx, 12			; 0000000cH
  00006	e9 00 00 00 00	 jmp	 ??1ccddaabb@@UAE@XZ	; ccddaabb::~ccddaabb
__ehhandler$??0?$CEncrypt@K@@QAE@ABV0@@Z:
  0000b	8b 54 24 08	 mov	 edx, DWORD PTR [esp+8]
  0000f	8d 42 0c	 lea	 eax, DWORD PTR [edx+12]
  00012	8b 4a ec	 mov	 ecx, DWORD PTR [edx-20]
  00015	33 c8		 xor	 ecx, eax
  00017	e8 00 00 00 00	 call	 @__security_check_cookie@4
  0001c	b8 00 00 00 00	 mov	 eax, OFFSET __ehfuncinfo$??0?$CEncrypt@K@@QAE@ABV0@@Z
  00021	e9 00 00 00 00	 jmp	 ___CxxFrameHandler3
text$x	ENDS
??0?$CEncrypt@K@@QAE@ABV0@@Z ENDP			; CEncrypt<unsigned long>::CEncrypt<unsigned long>
PUBLIC	??0?$CEncrypt@H@@QAE@ABV0@@Z			; CEncrypt<int>::CEncrypt<int>
;	COMDAT xdata$x
xdata$x	SEGMENT
__unwindtable$??0?$CEncrypt@H@@QAE@ABV0@@Z DD 0ffffffffH
	DD	FLAT:__unwindfunclet$??0?$CEncrypt@H@@QAE@ABV0@@Z$0
__ehfuncinfo$??0?$CEncrypt@H@@QAE@ABV0@@Z DD 019930522H
	DD	01H
	DD	FLAT:__unwindtable$??0?$CEncrypt@H@@QAE@ABV0@@Z
	DD	2 DUP(00H)
	DD	2 DUP(00H)
	DD	00H
	DD	01H
; Function compile flags: /Ogsp
xdata$x	ENDS
;	COMDAT ??0?$CEncrypt@H@@QAE@ABV0@@Z
_TEXT	SEGMENT
_this$ = -16						; size = 4
__$EHRec$ = -12						; size = 12
_value$528072 = 8					; size = 4
_value$528067 = 8					; size = 4
_inValue$ = 8						; size = 4
??0?$CEncrypt@H@@QAE@ABV0@@Z PROC			; CEncrypt<int>::CEncrypt<int>, COMDAT
; _this$ = ecx

; 120  : 	CEncrypt( const CEncrypt<type> &inValue )   // 선언과 동시에 값을 대입하기 위해서

  00000	6a 04		 push	 4
  00002	b8 00 00 00 00	 mov	 eax, __ehhandler$??0?$CEncrypt@H@@QAE@ABV0@@Z
  00007	e8 00 00 00 00	 call	 __EH_prolog3
  0000c	8b f1		 mov	 esi, ecx
  0000e	89 75 f0	 mov	 DWORD PTR _this$[ebp], esi
  00011	8d 4e 0c	 lea	 ecx, DWORD PTR [esi+12]
  00014	c7 06 00 00 00
	00		 mov	 DWORD PTR [esi], OFFSET ??_7?$CEncrypt@H@@6B@
  0001a	e8 00 00 00 00	 call	 ??0ccddaabb@@QAE@XZ	; ccddaabb::ccddaabb
  0001f	83 65 fc 00	 and	 DWORD PTR __$EHRec$[ebp+8], 0

; 121  : 	{
; 122  : 		Init();

  00023	8b ce		 mov	 ecx, esi
  00025	e8 00 00 00 00	 call	 ?Init@?$CEncrypt@H@@AAEXXZ ; CEncrypt<int>::Init

; 123  : 		*this = inValue;

  0002a	8b 4d 08	 mov	 ecx, DWORD PTR _inValue$[ebp]
  0002d	8d 45 08	 lea	 eax, DWORD PTR _value$528067[ebp]
  00030	50		 push	 eax
  00031	e8 00 00 00 00	 call	 ?DecryptValueToPool@?$CEncrypt@H@@QAEXPAH@Z ; CEncrypt<int>::DecryptValueToPool
  00036	8b 45 08	 mov	 eax, DWORD PTR _value$528067[ebp]
  00039	89 45 08	 mov	 DWORD PTR _value$528072[ebp], eax
  0003c	8d 45 08	 lea	 eax, DWORD PTR _value$528072[ebp]
  0003f	50		 push	 eax
  00040	8b ce		 mov	 ecx, esi
  00042	e8 00 00 00 00	 call	 ?EncryptValueToPool@?$CEncrypt@H@@AAEXPBD@Z ; CEncrypt<int>::EncryptValueToPool

; 124  : 	}

  00047	8b c6		 mov	 eax, esi
  00049	e8 00 00 00 00	 call	 __EH_epilog3
  0004e	c2 04 00	 ret	 4
_TEXT	ENDS
;	COMDAT text$x
text$x	SEGMENT
__unwindfunclet$??0?$CEncrypt@H@@QAE@ABV0@@Z$0:
  00000	8b 4d f0	 mov	 ecx, DWORD PTR _this$[ebp]
  00003	83 c1 0c	 add	 ecx, 12			; 0000000cH
  00006	e9 00 00 00 00	 jmp	 ??1ccddaabb@@UAE@XZ	; ccddaabb::~ccddaabb
__ehhandler$??0?$CEncrypt@H@@QAE@ABV0@@Z:
  0000b	8b 54 24 08	 mov	 edx, DWORD PTR [esp+8]
  0000f	8d 42 0c	 lea	 eax, DWORD PTR [edx+12]
  00012	8b 4a ec	 mov	 ecx, DWORD PTR [edx-20]
  00015	33 c8		 xor	 ecx, eax
  00017	e8 00 00 00 00	 call	 @__security_check_cookie@4
  0001c	b8 00 00 00 00	 mov	 eax, OFFSET __ehfuncinfo$??0?$CEncrypt@H@@QAE@ABV0@@Z
  00021	e9 00 00 00 00	 jmp	 ___CxxFrameHandler3
text$x	ENDS
??0?$CEncrypt@H@@QAE@ABV0@@Z ENDP			; CEncrypt<int>::CEncrypt<int>
PUBLIC	?IsLive@ioBuff@@QBE_NXZ				; ioBuff::IsLive
; Function compile flags: /Ogsp
; File d:\lost saga for developer\youtube\tutorial\source\src\lsclient\iobuff.h
;	COMDAT ?IsLive@ioBuff@@QBE_NXZ
_TEXT	SEGMENT
_value$528085 = -1					; size = 1
?IsLive@ioBuff@@QBE_NXZ PROC				; ioBuff::IsLive, COMDAT
; _this$ = ecx

; 428  : 	inline bool IsLive() const { return m_bLive; }

  00000	55		 push	 ebp
  00001	8b ec		 mov	 ebp, esp
  00003	51		 push	 ecx
  00004	8d 45 ff	 lea	 eax, DWORD PTR _value$528085[ebp]
  00007	50		 push	 eax
  00008	81 c1 70 07 00
	00		 add	 ecx, 1904		; 00000770H
  0000e	e8 00 00 00 00	 call	 ?DecryptValueToPool@?$CEncrypt@_N@@QAEXPA_N@Z ; CEncrypt<bool>::DecryptValueToPool
  00013	8a 45 ff	 mov	 al, BYTE PTR _value$528085[ebp]
  00016	c9		 leave
  00017	c3		 ret	 0
?IsLive@ioBuff@@QBE_NXZ ENDP				; ioBuff::IsLive
_TEXT	ENDS
PUBLIC	??0?$CEncrypt@M@@QAE@ABV0@@Z			; CEncrypt<float>::CEncrypt<float>
;	COMDAT xdata$x
; File d:\lost saga for developer\youtube\tutorial\source\src\lsclient\encryptvalue.h
xdata$x	SEGMENT
__unwindtable$??0?$CEncrypt@M@@QAE@ABV0@@Z DD 0ffffffffH
	DD	FLAT:__unwindfunclet$??0?$CEncrypt@M@@QAE@ABV0@@Z$0
__ehfuncinfo$??0?$CEncrypt@M@@QAE@ABV0@@Z DD 019930522H
	DD	01H
	DD	FLAT:__unwindtable$??0?$CEncrypt@M@@QAE@ABV0@@Z
	DD	2 DUP(00H)
	DD	2 DUP(00H)
	DD	00H
	DD	01H
; Function compile flags: /Ogsp
xdata$x	ENDS
;	COMDAT ??0?$CEncrypt@M@@QAE@ABV0@@Z
_TEXT	SEGMENT
_this$ = -16						; size = 4
__$EHRec$ = -12						; size = 12
_value$528098 = 8					; size = 4
_value$528093 = 8					; size = 4
_inValue$ = 8						; size = 4
??0?$CEncrypt@M@@QAE@ABV0@@Z PROC			; CEncrypt<float>::CEncrypt<float>, COMDAT
; _this$ = ecx

; 120  : 	CEncrypt( const CEncrypt<type> &inValue )   // 선언과 동시에 값을 대입하기 위해서

  00000	6a 04		 push	 4
  00002	b8 00 00 00 00	 mov	 eax, __ehhandler$??0?$CEncrypt@M@@QAE@ABV0@@Z
  00007	e8 00 00 00 00	 call	 __EH_prolog3
  0000c	8b f1		 mov	 esi, ecx
  0000e	89 75 f0	 mov	 DWORD PTR _this$[ebp], esi
  00011	8d 4e 0c	 lea	 ecx, DWORD PTR [esi+12]
  00014	c7 06 00 00 00
	00		 mov	 DWORD PTR [esi], OFFSET ??_7?$CEncrypt@M@@6B@
  0001a	e8 00 00 00 00	 call	 ??0ccddaabb@@QAE@XZ	; ccddaabb::ccddaabb
  0001f	83 65 fc 00	 and	 DWORD PTR __$EHRec$[ebp+8], 0

; 121  : 	{
; 122  : 		Init();

  00023	8b ce		 mov	 ecx, esi
  00025	e8 00 00 00 00	 call	 ?Init@?$CEncrypt@M@@AAEXXZ ; CEncrypt<float>::Init

; 123  : 		*this = inValue;

  0002a	8b 4d 08	 mov	 ecx, DWORD PTR _inValue$[ebp]
  0002d	8d 45 08	 lea	 eax, DWORD PTR _value$528093[ebp]
  00030	50		 push	 eax
  00031	e8 00 00 00 00	 call	 ?DecryptValueToPool@?$CEncrypt@M@@QAEXPAM@Z ; CEncrypt<float>::DecryptValueToPool
  00036	f3 0f 10 45 08	 movss	 xmm0, DWORD PTR _value$528093[ebp]
  0003b	8d 45 08	 lea	 eax, DWORD PTR _value$528098[ebp]
  0003e	50		 push	 eax
  0003f	8b ce		 mov	 ecx, esi
  00041	f3 0f 11 45 08	 movss	 DWORD PTR _value$528098[ebp], xmm0
  00046	e8 00 00 00 00	 call	 ?EncryptValueToPool@?$CEncrypt@M@@AAEXPBD@Z ; CEncrypt<float>::EncryptValueToPool

; 124  : 	}

  0004b	8b c6		 mov	 eax, esi
  0004d	e8 00 00 00 00	 call	 __EH_epilog3
  00052	c2 04 00	 ret	 4
_TEXT	ENDS
;	COMDAT text$x
text$x	SEGMENT
__unwindfunclet$??0?$CEncrypt@M@@QAE@ABV0@@Z$0:
  00000	8b 4d f0	 mov	 ecx, DWORD PTR _this$[ebp]
  00003	83 c1 0c	 add	 ecx, 12			; 0000000cH
  00006	e9 00 00 00 00	 jmp	 ??1ccddaabb@@UAE@XZ	; ccddaabb::~ccddaabb
__ehhandler$??0?$CEncrypt@M@@QAE@ABV0@@Z:
  0000b	8b 54 24 08	 mov	 edx, DWORD PTR [esp+8]
  0000f	8d 42 0c	 lea	 eax, DWORD PTR [edx+12]
  00012	8b 4a ec	 mov	 ecx, DWORD PTR [edx-20]
  00015	33 c8		 xor	 ecx, eax
  00017	e8 00 00 00 00	 call	 @__security_check_cookie@4
  0001c	b8 00 00 00 00	 mov	 eax, OFFSET __ehfuncinfo$??0?$CEncrypt@M@@QAE@ABV0@@Z
  00021	e9 00 00 00 00	 jmp	 ___CxxFrameHandler3
text$x	ENDS
??0?$CEncrypt@M@@QAE@ABV0@@Z ENDP			; CEncrypt<float>::CEncrypt<float>
PUBLIC	??0ioSpeedAccumlateBuff@@QAE@ABV0@@Z		; ioSpeedAccumlateBuff::ioSpeedAccumlateBuff
EXTRN	??0ioBuff@@QAE@ABV0@@Z:PROC			; ioBuff::ioBuff
;	COMDAT xdata$x
; File d:\lost saga for developer\youtube\tutorial\source\src\lsclient\iospeedaccumlatebuff.cpp
xdata$x	SEGMENT
__ehfuncinfo$??0ioSpeedAccumlateBuff@@QAE@ABV0@@Z DD 019930522H
	DD	05H
	DD	FLAT:__unwindtable$??0ioSpeedAccumlateBuff@@QAE@ABV0@@Z
	DD	2 DUP(00H)
	DD	2 DUP(00H)
	DD	00H
	DD	01H
__unwindtable$??0ioSpeedAccumlateBuff@@QAE@ABV0@@Z DD 0ffffffffH
	DD	FLAT:__unwindfunclet$??0ioSpeedAccumlateBuff@@QAE@ABV0@@Z$0
	DD	00H
	DD	FLAT:__unwindfunclet$??0ioSpeedAccumlateBuff@@QAE@ABV0@@Z$1
	DD	01H
	DD	FLAT:__unwindfunclet$??0ioSpeedAccumlateBuff@@QAE@ABV0@@Z$2
	DD	02H
	DD	FLAT:__unwindfunclet$??0ioSpeedAccumlateBuff@@QAE@ABV0@@Z$3
	DD	03H
	DD	FLAT:__unwindfunclet$??0ioSpeedAccumlateBuff@@QAE@ABV0@@Z$4
; Function compile flags: /Ogsp
xdata$x	ENDS
;	COMDAT ??0ioSpeedAccumlateBuff@@QAE@ABV0@@Z
_TEXT	SEGMENT
_this$ = -16						; size = 4
__$EHRec$ = -12						; size = 12
_rhs$ = 8						; size = 4
??0ioSpeedAccumlateBuff@@QAE@ABV0@@Z PROC		; ioSpeedAccumlateBuff::ioSpeedAccumlateBuff, COMDAT
; _this$ = ecx

; 22   : {

  00000	6a 04		 push	 4
  00002	b8 00 00 00 00	 mov	 eax, __ehhandler$??0ioSpeedAccumlateBuff@@QAE@ABV0@@Z
  00007	e8 00 00 00 00	 call	 __EH_prolog3
  0000c	8b f1		 mov	 esi, ecx
  0000e	89 75 f0	 mov	 DWORD PTR _this$[ebp], esi
  00011	8b 7d 08	 mov	 edi, DWORD PTR _rhs$[ebp]
  00014	57		 push	 edi
  00015	e8 00 00 00 00	 call	 ??0ioBuff@@QAE@ABV0@@Z	; ioBuff::ioBuff
  0001a	83 65 fc 00	 and	 DWORD PTR __$EHRec$[ebp+8], 0
  0001e	c7 06 00 00 00
	00		 mov	 DWORD PTR [esi], OFFSET ??_7ioSpeedAccumlateBuff@@6B@
  00024	8a 87 6c 09 00
	00		 mov	 al, BYTE PTR [edi+2412]
  0002a	88 86 6c 09 00
	00		 mov	 BYTE PTR [esi+2412], al
  00030	8a 87 6d 09 00
	00		 mov	 al, BYTE PTR [edi+2413]
  00036	88 86 6d 09 00
	00		 mov	 BYTE PTR [esi+2413], al
  0003c	8d 87 74 09 00
	00		 lea	 eax, DWORD PTR [edi+2420]
  00042	50		 push	 eax
  00043	8d 8e 74 09 00
	00		 lea	 ecx, DWORD PTR [esi+2420]
  00049	e8 00 00 00 00	 call	 ??0?$CEncrypt@H@@QAE@ABV0@@Z ; CEncrypt<int>::CEncrypt<int>
  0004e	8d 87 a4 09 00
	00		 lea	 eax, DWORD PTR [edi+2468]
  00054	50		 push	 eax
  00055	8d 8e a4 09 00
	00		 lea	 ecx, DWORD PTR [esi+2468]
  0005b	c6 45 fc 01	 mov	 BYTE PTR __$EHRec$[ebp+8], 1
  0005f	e8 00 00 00 00	 call	 ??0?$CEncrypt@K@@QAE@ABV0@@Z ; CEncrypt<unsigned long>::CEncrypt<unsigned long>
  00064	8d 87 d4 09 00
	00		 lea	 eax, DWORD PTR [edi+2516]
  0006a	50		 push	 eax
  0006b	8d 8e d4 09 00
	00		 lea	 ecx, DWORD PTR [esi+2516]
  00071	c6 45 fc 02	 mov	 BYTE PTR __$EHRec$[ebp+8], 2
  00075	e8 00 00 00 00	 call	 ??0?$CEncrypt@K@@QAE@ABV0@@Z ; CEncrypt<unsigned long>::CEncrypt<unsigned long>
  0007a	8d 87 04 0a 00
	00		 lea	 eax, DWORD PTR [edi+2564]
  00080	50		 push	 eax
  00081	8d 8e 04 0a 00
	00		 lea	 ecx, DWORD PTR [esi+2564]
  00087	c6 45 fc 03	 mov	 BYTE PTR __$EHRec$[ebp+8], 3
  0008b	e8 00 00 00 00	 call	 ??0?$CEncrypt@K@@QAE@ABV0@@Z ; CEncrypt<unsigned long>::CEncrypt<unsigned long>
  00090	81 c7 34 0a 00
	00		 add	 edi, 2612		; 00000a34H
  00096	57		 push	 edi
  00097	8d 8e 34 0a 00
	00		 lea	 ecx, DWORD PTR [esi+2612]
  0009d	c6 45 fc 04	 mov	 BYTE PTR __$EHRec$[ebp+8], 4
  000a1	e8 00 00 00 00	 call	 ??0?$CEncrypt@M@@QAE@ABV0@@Z ; CEncrypt<float>::CEncrypt<float>

; 23   : }

  000a6	8b c6		 mov	 eax, esi
  000a8	e8 00 00 00 00	 call	 __EH_epilog3
  000ad	c2 04 00	 ret	 4
_TEXT	ENDS
;	COMDAT text$x
text$x	SEGMENT
__unwindfunclet$??0ioSpeedAccumlateBuff@@QAE@ABV0@@Z$0:
  00000	8b 4d f0	 mov	 ecx, DWORD PTR _this$[ebp]
  00003	e9 00 00 00 00	 jmp	 ??1ioBuff@@UAE@XZ	; ioBuff::~ioBuff
__unwindfunclet$??0ioSpeedAccumlateBuff@@QAE@ABV0@@Z$1:
  00008	8b 4d f0	 mov	 ecx, DWORD PTR _this$[ebp]
  0000b	81 c1 74 09 00
	00		 add	 ecx, 2420		; 00000974H
  00011	e9 00 00 00 00	 jmp	 ??1?$CEncrypt@H@@UAE@XZ	; CEncrypt<int>::~CEncrypt<int>
__unwindfunclet$??0ioSpeedAccumlateBuff@@QAE@ABV0@@Z$2:
  00016	8b 4d f0	 mov	 ecx, DWORD PTR _this$[ebp]
  00019	81 c1 a4 09 00
	00		 add	 ecx, 2468		; 000009a4H
  0001f	e9 00 00 00 00	 jmp	 ??1?$CEncrypt@K@@UAE@XZ	; CEncrypt<unsigned long>::~CEncrypt<unsigned long>
__unwindfunclet$??0ioSpeedAccumlateBuff@@QAE@ABV0@@Z$3:
  00024	8b 4d f0	 mov	 ecx, DWORD PTR _this$[ebp]
  00027	81 c1 d4 09 00
	00		 add	 ecx, 2516		; 000009d4H
  0002d	e9 00 00 00 00	 jmp	 ??1?$CEncrypt@K@@UAE@XZ	; CEncrypt<unsigned long>::~CEncrypt<unsigned long>
__unwindfunclet$??0ioSpeedAccumlateBuff@@QAE@ABV0@@Z$4:
  00032	8b 4d f0	 mov	 ecx, DWORD PTR _this$[ebp]
  00035	81 c1 04 0a 00
	00		 add	 ecx, 2564		; 00000a04H
  0003b	e9 00 00 00 00	 jmp	 ??1?$CEncrypt@K@@UAE@XZ	; CEncrypt<unsigned long>::~CEncrypt<unsigned long>
__ehhandler$??0ioSpeedAccumlateBuff@@QAE@ABV0@@Z:
  00040	8b 54 24 08	 mov	 edx, DWORD PTR [esp+8]
  00044	8d 42 0c	 lea	 eax, DWORD PTR [edx+12]
  00047	8b 4a ec	 mov	 ecx, DWORD PTR [edx-20]
  0004a	33 c8		 xor	 ecx, eax
  0004c	e8 00 00 00 00	 call	 @__security_check_cookie@4
  00051	b8 00 00 00 00	 mov	 eax, OFFSET __ehfuncinfo$??0ioSpeedAccumlateBuff@@QAE@ABV0@@Z
  00056	e9 00 00 00 00	 jmp	 ___CxxFrameHandler3
text$x	ENDS
??0ioSpeedAccumlateBuff@@QAE@ABV0@@Z ENDP		; ioSpeedAccumlateBuff::ioSpeedAccumlateBuff
EXTRN	??2@YAPAXI@Z:PROC				; operator new
;	COMDAT xdata$x
xdata$x	SEGMENT
__unwindtable$?Clone@ioSpeedAccumlateBuff@@UAEPAVioBuff@@XZ DD 0ffffffffH
	DD	FLAT:__unwindfunclet$?Clone@ioSpeedAccumlateBuff@@UAEPAVioBuff@@XZ$0
__ehfuncinfo$?Clone@ioSpeedAccumlateBuff@@UAEPAVioBuff@@XZ DD 019930522H
	DD	01H
	DD	FLAT:__unwindtable$?Clone@ioSpeedAccumlateBuff@@UAEPAVioBuff@@XZ
	DD	2 DUP(00H)
	DD	2 DUP(00H)
	DD	00H
	DD	01H
; Function compile flags: /Ogsp
xdata$x	ENDS
;	COMDAT ?Clone@ioSpeedAccumlateBuff@@UAEPAVioBuff@@XZ
_TEXT	SEGMENT
$T528123 = -16						; size = 4
__$EHRec$ = -12						; size = 12
?Clone@ioSpeedAccumlateBuff@@UAEPAVioBuff@@XZ PROC	; ioSpeedAccumlateBuff::Clone, COMDAT
; _this$ = ecx

; 45   : {

  00000	6a 04		 push	 4
  00002	b8 00 00 00 00	 mov	 eax, __ehhandler$?Clone@ioSpeedAccumlateBuff@@UAEPAVioBuff@@XZ
  00007	e8 00 00 00 00	 call	 __EH_prolog3
  0000c	8b f1		 mov	 esi, ecx

; 46   : 	return new ioSpeedAccumlateBuff( *this );

  0000e	68 64 0a 00 00	 push	 2660			; 00000a64H
  00013	e8 00 00 00 00	 call	 ??2@YAPAXI@Z		; operator new
  00018	59		 pop	 ecx
  00019	8b c8		 mov	 ecx, eax
  0001b	89 4d f0	 mov	 DWORD PTR $T528123[ebp], ecx
  0001e	33 c0		 xor	 eax, eax
  00020	89 45 fc	 mov	 DWORD PTR __$EHRec$[ebp+8], eax
  00023	3b c8		 cmp	 ecx, eax
  00025	74 06		 je	 SHORT $LN3@Clone
  00027	56		 push	 esi
  00028	e8 00 00 00 00	 call	 ??0ioSpeedAccumlateBuff@@QAE@ABV0@@Z ; ioSpeedAccumlateBuff::ioSpeedAccumlateBuff
$LN3@Clone:

; 47   : }

  0002d	e8 00 00 00 00	 call	 __EH_epilog3
  00032	c3		 ret	 0
_TEXT	ENDS
;	COMDAT text$x
text$x	SEGMENT
__unwindfunclet$?Clone@ioSpeedAccumlateBuff@@UAEPAVioBuff@@XZ$0:
  00000	ff 75 f0	 push	 DWORD PTR $T528123[ebp]
  00003	e8 00 00 00 00	 call	 ??3@YAXPAX@Z		; operator delete
  00008	59		 pop	 ecx
  00009	c3		 ret	 0
__ehhandler$?Clone@ioSpeedAccumlateBuff@@UAEPAVioBuff@@XZ:
  0000a	8b 54 24 08	 mov	 edx, DWORD PTR [esp+8]
  0000e	8d 42 0c	 lea	 eax, DWORD PTR [edx+12]
  00011	8b 4a ec	 mov	 ecx, DWORD PTR [edx-20]
  00014	33 c8		 xor	 ecx, eax
  00016	e8 00 00 00 00	 call	 @__security_check_cookie@4
  0001b	b8 00 00 00 00	 mov	 eax, OFFSET __ehfuncinfo$?Clone@ioSpeedAccumlateBuff@@UAEPAVioBuff@@XZ
  00020	e9 00 00 00 00	 jmp	 ___CxxFrameHandler3
text$x	ENDS
?Clone@ioSpeedAccumlateBuff@@UAEPAVioBuff@@XZ ENDP	; ioSpeedAccumlateBuff::Clone
EXTRN	?StartBuff@ioBuff@@UAEXPAVioBaseChar@@@Z:PROC	; ioBuff::StartBuff
; Function compile flags: /Ogsp
;	COMDAT ?StartBuff@ioSpeedAccumlateBuff@@UAEXPAVioBaseChar@@@Z
_TEXT	SEGMENT
_value$528187 = -4					; size = 4
_value$528163 = -4					; size = 4
_value$528175 = -4					; size = 4
_value$528154 = -4					; size = 4
_value$528196 = 8					; size = 4
_value$528181 = 8					; size = 4
_value$528172 = 8					; size = 4
_value$528158 = 8					; size = 4
_value$528150 = 8					; size = 4
_pOwner$ = 8						; size = 4
?StartBuff@ioSpeedAccumlateBuff@@UAEXPAVioBaseChar@@@Z PROC ; ioSpeedAccumlateBuff::StartBuff, COMDAT
; _this$ = ecx

; 50   : {

  00000	55		 push	 ebp
  00001	8b ec		 mov	 ebp, esp
  00003	51		 push	 ecx
  00004	53		 push	 ebx
  00005	56		 push	 esi
  00006	57		 push	 edi

; 51   : 	ioBuff::StartBuff( pOwner );

  00007	ff 75 08	 push	 DWORD PTR _pOwner$[ebp]
  0000a	8b f1		 mov	 esi, ecx
  0000c	e8 00 00 00 00	 call	 ?StartBuff@ioBuff@@UAEXPAVioBaseChar@@@Z ; ioBuff::StartBuff

; 52   : 
; 53   : 	if( m_bUseWeaponEquipMesh && pOwner )

  00011	33 db		 xor	 ebx, ebx
  00013	38 9e 6d 09 00
	00		 cmp	 BYTE PTR [esi+2413], bl
  00019	74 16		 je	 SHORT $LN1@StartBuff
  0001b	39 5d 08	 cmp	 DWORD PTR _pOwner$[ebp], ebx
  0001e	74 11		 je	 SHORT $LN1@StartBuff

; 54   : 	{
; 55   : 		pOwner->SetChangeEquipMesh( m_ItemName, true );

  00020	8b 4d 08	 mov	 ecx, DWORD PTR _pOwner$[ebp]
  00023	6a 01		 push	 1
  00025	8d 86 44 02 00
	00		 lea	 eax, DWORD PTR [esi+580]
  0002b	50		 push	 eax
  0002c	e8 00 00 00 00	 call	 ?SetChangeEquipMesh@ioBaseChar@@QAEXABVioHashString@@_N@Z ; ioBaseChar::SetChangeEquipMesh
$LN1@StartBuff:

; 56   : 	}
; 57   : 
; 58   : 	m_iCurCount = 0;
; 59   : 	m_fCurAccumSpeedRate = 0.0f;

  00031	0f 57 c0	 xorps	 xmm0, xmm0
  00034	8d 45 08	 lea	 eax, DWORD PTR _value$528150[ebp]
  00037	8d be 10 06 00
	00		 lea	 edi, DWORD PTR [esi+1552]
  0003d	50		 push	 eax
  0003e	8b cf		 mov	 ecx, edi
  00040	89 9e 70 09 00
	00		 mov	 DWORD PTR [esi+2416], ebx
  00046	f3 0f 11 45 08	 movss	 DWORD PTR _value$528150[ebp], xmm0
  0004b	e8 00 00 00 00	 call	 ?EncryptValueToPool@?$CEncrypt@M@@AAEXPBD@Z ; CEncrypt<float>::EncryptValueToPool

; 60   : 
; 61   : 	m_fCurAccumSpeedRate += m_fSpeedRate;

  00050	8d 45 fc	 lea	 eax, DWORD PTR _value$528154[ebp]
  00053	50		 push	 eax
  00054	8d 8e 34 0a 00
	00		 lea	 ecx, DWORD PTR [esi+2612]
  0005a	e8 00 00 00 00	 call	 ?DecryptValueToPool@?$CEncrypt@M@@QAEXPAM@Z ; CEncrypt<float>::DecryptValueToPool
  0005f	8d 45 08	 lea	 eax, DWORD PTR _value$528158[ebp]
  00062	50		 push	 eax
  00063	8b cf		 mov	 ecx, edi
  00065	e8 00 00 00 00	 call	 ?DecryptValueToPool@?$CEncrypt@M@@QAEXPAM@Z ; CEncrypt<float>::DecryptValueToPool
  0006a	f3 0f 10 45 08	 movss	 xmm0, DWORD PTR _value$528158[ebp]
  0006f	f3 0f 10 4d fc	 movss	 xmm1, DWORD PTR _value$528154[ebp]
  00074	0f 5a c0	 cvtps2pd xmm0, xmm0
  00077	0f 5a c9	 cvtps2pd xmm1, xmm1
  0007a	8d 45 08	 lea	 eax, DWORD PTR _value$528158[ebp]
  0007d	f2 0f 58 c1	 addsd	 xmm0, xmm1
  00081	66 0f 5a c0	 cvtpd2ps xmm0, xmm0
  00085	50		 push	 eax
  00086	8b cf		 mov	 ecx, edi
  00088	f3 0f 11 45 08	 movss	 DWORD PTR _value$528158[ebp], xmm0
  0008d	e8 00 00 00 00	 call	 ?EncryptValueToPool@?$CEncrypt@M@@AAEXPBD@Z ; CEncrypt<float>::EncryptValueToPool

; 62   : 	m_fCurAccumSpeedRate = max( m_fMinAccumSpeedRate, min(m_fCurAccumSpeedRate, m_fMaxAccumSpeedRate) );

  00092	8d 45 fc	 lea	 eax, DWORD PTR _value$528163[ebp]
  00095	8d 9e 70 06 00
	00		 lea	 ebx, DWORD PTR [esi+1648]
  0009b	50		 push	 eax
  0009c	8b cb		 mov	 ecx, ebx
  0009e	e8 00 00 00 00	 call	 ?DecryptValueToPool@?$CEncrypt@M@@QAEXPAM@Z ; CEncrypt<float>::DecryptValueToPool
  000a3	8d 45 08	 lea	 eax, DWORD PTR _value$528172[ebp]
  000a6	50		 push	 eax
  000a7	8b cf		 mov	 ecx, edi
  000a9	e8 00 00 00 00	 call	 ?DecryptValueToPool@?$CEncrypt@M@@QAEXPAM@Z ; CEncrypt<float>::DecryptValueToPool
  000ae	f3 0f 10 45 08	 movss	 xmm0, DWORD PTR _value$528172[ebp]
  000b3	f3 0f 10 4d fc	 movss	 xmm1, DWORD PTR _value$528163[ebp]
  000b8	8d 45 fc	 lea	 eax, DWORD PTR _value$528175[ebp]
  000bb	0f 5a c0	 cvtps2pd xmm0, xmm0
  000be	0f 5a c9	 cvtps2pd xmm1, xmm1
  000c1	66 0f 2f c8	 comisd	 xmm1, xmm0
  000c5	8b cf		 mov	 ecx, edi
  000c7	50		 push	 eax
  000c8	0f 46 cb	 cmovbe	 ecx, ebx
  000cb	e8 00 00 00 00	 call	 ?DecryptValueToPool@?$CEncrypt@M@@QAEXPAM@Z ; CEncrypt<float>::DecryptValueToPool
  000d0	8d 45 08	 lea	 eax, DWORD PTR _value$528181[ebp]
  000d3	81 c6 40 06 00
	00		 add	 esi, 1600		; 00000640H
  000d9	50		 push	 eax
  000da	8b ce		 mov	 ecx, esi
  000dc	e8 00 00 00 00	 call	 ?DecryptValueToPool@?$CEncrypt@M@@QAEXPAM@Z ; CEncrypt<float>::DecryptValueToPool
  000e1	f3 0f 10 45 08	 movss	 xmm0, DWORD PTR _value$528181[ebp]
  000e6	f3 0f 10 4d fc	 movss	 xmm1, DWORD PTR _value$528175[ebp]
  000eb	0f 5a c0	 cvtps2pd xmm0, xmm0
  000ee	0f 5a c9	 cvtps2pd xmm1, xmm1
  000f1	66 0f 2f c1	 comisd	 xmm0, xmm1
  000f5	77 2f		 ja	 SHORT $LN9@StartBuff
  000f7	8d 45 fc	 lea	 eax, DWORD PTR _value$528187[ebp]
  000fa	50		 push	 eax
  000fb	8b cb		 mov	 ecx, ebx
  000fd	e8 00 00 00 00	 call	 ?DecryptValueToPool@?$CEncrypt@M@@QAEXPAM@Z ; CEncrypt<float>::DecryptValueToPool
  00102	8d 45 08	 lea	 eax, DWORD PTR _value$528196[ebp]
  00105	50		 push	 eax
  00106	8b cf		 mov	 ecx, edi
  00108	e8 00 00 00 00	 call	 ?DecryptValueToPool@?$CEncrypt@M@@QAEXPAM@Z ; CEncrypt<float>::DecryptValueToPool
  0010d	f3 0f 10 45 08	 movss	 xmm0, DWORD PTR _value$528196[ebp]
  00112	f3 0f 10 4d fc	 movss	 xmm1, DWORD PTR _value$528187[ebp]
  00117	0f 5a c0	 cvtps2pd xmm0, xmm0
  0011a	0f 5a c9	 cvtps2pd xmm1, xmm1
  0011d	8b f7		 mov	 esi, edi
  0011f	66 0f 2f c8	 comisd	 xmm1, xmm0
  00123	0f 46 f3	 cmovbe	 esi, ebx
$LN9@StartBuff:
  00126	56		 push	 esi
  00127	8b cf		 mov	 ecx, edi
  00129	e8 00 00 00 00	 call	 ??4?$CEncrypt@M@@QAE_NAAV0@@Z ; CEncrypt<float>::operator=
  0012e	5f		 pop	 edi
  0012f	5e		 pop	 esi
  00130	5b		 pop	 ebx

; 63   : }

  00131	c9		 leave
  00132	c2 04 00	 ret	 4
?StartBuff@ioSpeedAccumlateBuff@@UAEXPAVioBaseChar@@@Z ENDP ; ioSpeedAccumlateBuff::StartBuff
; Function compile flags: /Ogsp
_TEXT	ENDS
;	COMDAT ?AccumulateBuff@ioSpeedAccumlateBuff@@UAEXXZ
_TEXT	SEGMENT
_value$528275 = -12					; size = 4
_value$528263 = -12					; size = 4
_value$528281 = -12					; size = 4
_value$528251 = -12					; size = 4
_value$528236 = -12					; size = 4
$T528215 = -12						; size = 4
_value$528269 = -8					; size = 4
_value$528245 = -8					; size = 4
_value$528240 = -8					; size = 4
_value$528257 = -8					; size = 4
_value$528220 = -8					; size = 4
_value$528230 = -1					; size = 1
?AccumulateBuff@ioSpeedAccumlateBuff@@UAEXXZ PROC	; ioSpeedAccumlateBuff::AccumulateBuff, COMDAT
; _this$ = ecx

; 215  : {

  00000	55		 push	 ebp
  00001	8b ec		 mov	 ebp, esp
  00003	83 ec 0c	 sub	 esp, 12			; 0000000cH
  00006	56		 push	 esi
  00007	8b f1		 mov	 esi, ecx

; 216  : 	if( m_iCurCount+1 >= m_iMaxCount )

  00009	8d 45 f8	 lea	 eax, DWORD PTR _value$528220[ebp]
  0000c	50		 push	 eax
  0000d	8d 8e 74 09 00
	00		 lea	 ecx, DWORD PTR [esi+2420]
  00013	e8 00 00 00 00	 call	 ?DecryptValueToPool@?$CEncrypt@H@@QAEXPAH@Z ; CEncrypt<int>::DecryptValueToPool
  00018	8b 86 70 09 00
	00		 mov	 eax, DWORD PTR [esi+2416]
  0001e	40		 inc	 eax
  0001f	3b 45 f8	 cmp	 eax, DWORD PTR _value$528220[ebp]
  00022	0f 8d 70 01 00
	00		 jge	 $LN1@Accumulate

; 217  : 		return;
; 218  : 	if( !IsLive() )

  00028	8d 45 ff	 lea	 eax, DWORD PTR _value$528230[ebp]
  0002b	50		 push	 eax
  0002c	8d 8e 70 07 00
	00		 lea	 ecx, DWORD PTR [esi+1904]
  00032	e8 00 00 00 00	 call	 ?DecryptValueToPool@?$CEncrypt@_N@@QAEXPA_N@Z ; CEncrypt<bool>::DecryptValueToPool
  00037	80 7d ff 00	 cmp	 BYTE PTR _value$528230[ebp], 0
  0003b	0f 84 57 01 00
	00		 je	 $LN1@Accumulate

; 219  : 		return;
; 220  : 
; 221  : 	m_iCurCount++;

  00041	ff 86 70 09 00
	00		 inc	 DWORD PTR [esi+2416]
  00047	53		 push	 ebx
  00048	57		 push	 edi

; 222  : 
; 223  : 	m_fCurAccumSpeedRate += m_fSpeedRate;

  00049	8d 45 f4	 lea	 eax, DWORD PTR _value$528236[ebp]
  0004c	50		 push	 eax
  0004d	8d 8e 34 0a 00
	00		 lea	 ecx, DWORD PTR [esi+2612]
  00053	e8 00 00 00 00	 call	 ?DecryptValueToPool@?$CEncrypt@M@@QAEXPAM@Z ; CEncrypt<float>::DecryptValueToPool
  00058	8d 45 f8	 lea	 eax, DWORD PTR _value$528240[ebp]
  0005b	8d be 10 06 00
	00		 lea	 edi, DWORD PTR [esi+1552]
  00061	50		 push	 eax
  00062	8b cf		 mov	 ecx, edi
  00064	e8 00 00 00 00	 call	 ?DecryptValueToPool@?$CEncrypt@M@@QAEXPAM@Z ; CEncrypt<float>::DecryptValueToPool
  00069	f3 0f 10 45 f8	 movss	 xmm0, DWORD PTR _value$528240[ebp]
  0006e	f3 0f 10 4d f4	 movss	 xmm1, DWORD PTR _value$528236[ebp]
  00073	0f 5a c0	 cvtps2pd xmm0, xmm0
  00076	0f 5a c9	 cvtps2pd xmm1, xmm1
  00079	8d 45 f8	 lea	 eax, DWORD PTR _value$528240[ebp]
  0007c	f2 0f 58 c1	 addsd	 xmm0, xmm1
  00080	66 0f 5a c0	 cvtpd2ps xmm0, xmm0
  00084	50		 push	 eax
  00085	8b cf		 mov	 ecx, edi
  00087	f3 0f 11 45 f8	 movss	 DWORD PTR _value$528240[ebp], xmm0
  0008c	e8 00 00 00 00	 call	 ?EncryptValueToPool@?$CEncrypt@M@@AAEXPBD@Z ; CEncrypt<float>::EncryptValueToPool

; 224  : 	m_fCurAccumSpeedRate = max( m_fMinAccumSpeedRate, min(m_fCurAccumSpeedRate, m_fMaxAccumSpeedRate) );

  00091	8d 45 f8	 lea	 eax, DWORD PTR _value$528245[ebp]
  00094	8d 9e 70 06 00
	00		 lea	 ebx, DWORD PTR [esi+1648]
  0009a	50		 push	 eax
  0009b	8b cb		 mov	 ecx, ebx
  0009d	e8 00 00 00 00	 call	 ?DecryptValueToPool@?$CEncrypt@M@@QAEXPAM@Z ; CEncrypt<float>::DecryptValueToPool
  000a2	8d 45 f4	 lea	 eax, DWORD PTR _value$528251[ebp]
  000a5	50		 push	 eax
  000a6	8b cf		 mov	 ecx, edi
  000a8	e8 00 00 00 00	 call	 ?DecryptValueToPool@?$CEncrypt@M@@QAEXPAM@Z ; CEncrypt<float>::DecryptValueToPool
  000ad	f3 0f 10 45 f4	 movss	 xmm0, DWORD PTR _value$528251[ebp]
  000b2	f3 0f 10 4d f8	 movss	 xmm1, DWORD PTR _value$528245[ebp]
  000b7	8d 45 f8	 lea	 eax, DWORD PTR _value$528257[ebp]
  000ba	0f 5a c0	 cvtps2pd xmm0, xmm0
  000bd	0f 5a c9	 cvtps2pd xmm1, xmm1
  000c0	66 0f 2f c8	 comisd	 xmm1, xmm0
  000c4	8b cf		 mov	 ecx, edi
  000c6	50		 push	 eax
  000c7	0f 46 cb	 cmovbe	 ecx, ebx
  000ca	e8 00 00 00 00	 call	 ?DecryptValueToPool@?$CEncrypt@M@@QAEXPAM@Z ; CEncrypt<float>::DecryptValueToPool
  000cf	8d 45 f4	 lea	 eax, DWORD PTR _value$528263[ebp]
  000d2	8d 9e 40 06 00
	00		 lea	 ebx, DWORD PTR [esi+1600]
  000d8	50		 push	 eax
  000d9	8b cb		 mov	 ecx, ebx
  000db	e8 00 00 00 00	 call	 ?DecryptValueToPool@?$CEncrypt@M@@QAEXPAM@Z ; CEncrypt<float>::DecryptValueToPool
  000e0	f3 0f 10 45 f4	 movss	 xmm0, DWORD PTR _value$528263[ebp]
  000e5	f3 0f 10 4d f8	 movss	 xmm1, DWORD PTR _value$528257[ebp]
  000ea	0f 5a c0	 cvtps2pd xmm0, xmm0
  000ed	0f 5a c9	 cvtps2pd xmm1, xmm1
  000f0	66 0f 2f c1	 comisd	 xmm0, xmm1
  000f4	77 33		 ja	 SHORT $LN16@Accumulate
  000f6	8d 45 f8	 lea	 eax, DWORD PTR _value$528269[ebp]
  000f9	8d 9e 70 06 00
	00		 lea	 ebx, DWORD PTR [esi+1648]
  000ff	50		 push	 eax
  00100	8b cb		 mov	 ecx, ebx
  00102	e8 00 00 00 00	 call	 ?DecryptValueToPool@?$CEncrypt@M@@QAEXPAM@Z ; CEncrypt<float>::DecryptValueToPool
  00107	8d 45 f4	 lea	 eax, DWORD PTR _value$528275[ebp]
  0010a	50		 push	 eax
  0010b	8b cf		 mov	 ecx, edi
  0010d	e8 00 00 00 00	 call	 ?DecryptValueToPool@?$CEncrypt@M@@QAEXPAM@Z ; CEncrypt<float>::DecryptValueToPool
  00112	f3 0f 10 45 f4	 movss	 xmm0, DWORD PTR _value$528275[ebp]
  00117	f3 0f 10 4d f8	 movss	 xmm1, DWORD PTR _value$528269[ebp]
  0011c	0f 5a c0	 cvtps2pd xmm0, xmm0
  0011f	0f 5a c9	 cvtps2pd xmm1, xmm1
  00122	66 0f 2f c8	 comisd	 xmm1, xmm0
  00126	0f 47 df	 cmova	 ebx, edi
$LN16@Accumulate:
  00129	53		 push	 ebx
  0012a	8b cf		 mov	 ecx, edi
  0012c	e8 00 00 00 00	 call	 ??4?$CEncrypt@M@@QAE_NAAV0@@Z ; CEncrypt<float>::operator=

; 225  : 
; 226  : 	ioNpcChar *pNpc = ToNpcChar( m_pOwner );

  00131	ff b6 74 02 00
	00		 push	 DWORD PTR [esi+628]
  00137	e8 00 00 00 00	 call	 ?ToNpcChar@@YAPAVioNpcChar@@PAVioGameEntity@@@Z ; ToNpcChar
  0013c	8b f8		 mov	 edi, eax
  0013e	59		 pop	 ecx

; 227  : 	if( !pNpc || pNpc->GetNpcType() == NT_DEVELOPER_K )

  0013f	85 ff		 test	 edi, edi
  00141	74 2f		 je	 SHORT $LN5@Accumulate
  00143	8b 07		 mov	 eax, DWORD PTR [edi]
  00145	8b cf		 mov	 ecx, edi
  00147	ff 90 98 01 00
	00		 call	 DWORD PTR [eax+408]
  0014d	83 f8 01	 cmp	 eax, 1
  00150	74 20		 je	 SHORT $LN5@Accumulate

; 230  : 	}
; 231  : 	else
; 232  : 	{
; 233  : 		if( pNpc->IsMonsterLastBoss() || pNpc->IsMonsterHalfBoss() )

  00152	8b bf 68 48 00
	00		 mov	 edi, DWORD PTR [edi+18536]
  00158	83 ff 02	 cmp	 edi, 2
  0015b	74 0d		 je	 SHORT $LN2@Accumulate
  0015d	83 ff 01	 cmp	 edi, 1
  00160	74 08		 je	 SHORT $LN2@Accumulate

; 238  : 		{
; 239  : 			m_dwBuffEndTime += m_dwAccumulateDurationNpc;

  00162	8d 8e d4 09 00
	00		 lea	 ecx, DWORD PTR [esi+2516]
  00168	eb 0e		 jmp	 SHORT $LN59@Accumulate
$LN2@Accumulate:

; 234  : 		{
; 235  : 			m_dwBuffEndTime += m_dwAccumulateDurationBossNpc;

  0016a	8d 8e 04 0a 00
	00		 lea	 ecx, DWORD PTR [esi+2564]

; 236  : 		}
; 237  : 		else

  00170	eb 06		 jmp	 SHORT $LN59@Accumulate
$LN5@Accumulate:

; 228  : 	{
; 229  : 		m_dwBuffEndTime += m_dwAccumulateDuration;

  00172	8d 8e a4 09 00
	00		 lea	 ecx, DWORD PTR [esi+2468]
$LN59@Accumulate:
  00178	8d 45 f4	 lea	 eax, DWORD PTR _value$528281[ebp]
  0017b	50		 push	 eax
  0017c	e8 00 00 00 00	 call	 ?DecryptValueToPool@?$CEncrypt@K@@QAEXPAK@Z ; CEncrypt<unsigned long>::DecryptValueToPool
  00181	8b 45 f4	 mov	 eax, DWORD PTR _value$528281[ebp]
  00184	89 45 f4	 mov	 DWORD PTR $T528215[ebp], eax
  00187	8d 45 f4	 lea	 eax, DWORD PTR $T528215[ebp]
  0018a	50		 push	 eax
  0018b	8d 8e 9c 03 00
	00		 lea	 ecx, DWORD PTR [esi+924]
  00191	e8 00 00 00 00	 call	 ??Y?$CEncrypt@K@@QAEAAKABK@Z ; CEncrypt<unsigned long>::operator+=
  00196	5f		 pop	 edi
  00197	5b		 pop	 ebx
$LN1@Accumulate:
  00198	5e		 pop	 esi

; 240  : 		}
; 241  : 	}
; 242  : }

  00199	c9		 leave
  0019a	c3		 ret	 0
?AccumulateBuff@ioSpeedAccumlateBuff@@UAEXXZ ENDP	; ioSpeedAccumlateBuff::AccumulateBuff
_TEXT	ENDS
END
