; Listing generated by Microsoft (R) Optimizing Compiler Version 16.00.30319.01 

	TITLE	D:\Lost Saga For Developer\Youtube\Tutorial\Source\src\LSClient\ioStunBuff.cpp
	.686P
	.XMM
	include listing.inc
	.model	flat

INCLUDELIB MSVCRT
INCLUDELIB OLDNAMES

PUBLIC	?return100@@YAIXZ				; return100
; Function compile flags: /Ogsp
; File d:\lost saga for developer\youtube\tutorial\source\src\lsclient\stdafx.h
;	COMDAT ?return100@@YAIXZ
_TEXT	SEGMENT
?return100@@YAIXZ PROC					; return100, COMDAT

; 25   : 	__forceinline unsigned int return100() { __asm mov eax, 100 };

  00000	b8 64 00 00 00	 mov	 eax, 100		; 00000064H
  00005	c3		 ret	 0
?return100@@YAIXZ ENDP					; return100
_TEXT	ENDS
PUBLIC	?IsOwnerChar@ioBaseChar@@QBE_NXZ		; ioBaseChar::IsOwnerChar
; Function compile flags: /Ogsp
; File d:\lost saga for developer\youtube\tutorial\source\src\lsclient\iobasechar.h
;	COMDAT ?IsOwnerChar@ioBaseChar@@QBE_NXZ
_TEXT	SEGMENT
?IsOwnerChar@ioBaseChar@@QBE_NXZ PROC			; ioBaseChar::IsOwnerChar, COMDAT
; _this$ = ecx

; 1467 : 	inline bool IsOwnerChar() const { return m_bOwnerChar; }

  00000	8a 81 84 13 00
	00		 mov	 al, BYTE PTR [ecx+4996]
  00006	c3		 ret	 0
?IsOwnerChar@ioBaseChar@@QBE_NXZ ENDP			; ioBaseChar::IsOwnerChar
_TEXT	ENDS
PUBLIC	?IsCatchMode@ioBaseChar@@QBE_NXZ		; ioBaseChar::IsCatchMode
; Function compile flags: /Ogsp
;	COMDAT ?IsCatchMode@ioBaseChar@@QBE_NXZ
_TEXT	SEGMENT
?IsCatchMode@ioBaseChar@@QBE_NXZ PROC			; ioBaseChar::IsCatchMode, COMDAT
; _this$ = ecx

; 2131 : 	inline bool IsCatchMode() const { return m_bCatchState; }

  00000	8a 81 78 23 00
	00		 mov	 al, BYTE PTR [ecx+9080]
  00006	c3		 ret	 0
?IsCatchMode@ioBaseChar@@QBE_NXZ ENDP			; ioBaseChar::IsCatchMode
_TEXT	ENDS
PUBLIC	?GetState@ioBaseChar@@QBE?AW4CharState@@XZ	; ioBaseChar::GetState
; Function compile flags: /Ogsp
;	COMDAT ?GetState@ioBaseChar@@QBE?AW4CharState@@XZ
_TEXT	SEGMENT
?GetState@ioBaseChar@@QBE?AW4CharState@@XZ PROC		; ioBaseChar::GetState, COMDAT
; _this$ = ecx

; 2156 : 	inline CharState GetState() const { return m_CharState; }	

  00000	8a 81 10 03 00
	00		 mov	 al, BYTE PTR [ecx+784]
  00006	c3		 ret	 0
?GetState@ioBaseChar@@QBE?AW4CharState@@XZ ENDP		; ioBaseChar::GetState
_TEXT	ENDS
PUBLIC	?GetCharName@ioBaseChar@@QBEABVioHashString@@XZ	; ioBaseChar::GetCharName
; Function compile flags: /Ogsp
;	COMDAT ?GetCharName@ioBaseChar@@QBEABVioHashString@@XZ
_TEXT	SEGMENT
?GetCharName@ioBaseChar@@QBEABVioHashString@@XZ PROC	; ioBaseChar::GetCharName, COMDAT
; _this$ = ecx

; 2594 : 	inline const ioHashString& GetCharName() const { return m_Name; }

  00000	8d 81 d4 02 00
	00		 lea	 eax, DWORD PTR [ecx+724]
  00006	c3		 ret	 0
?GetCharName@ioBaseChar@@QBEABVioHashString@@XZ ENDP	; ioBaseChar::GetCharName
_TEXT	ENDS
PUBLIC	?IsMale@ioBaseChar@@QBE_NXZ			; ioBaseChar::IsMale
; Function compile flags: /Ogsp
;	COMDAT ?IsMale@ioBaseChar@@QBE_NXZ
_TEXT	SEGMENT
?IsMale@ioBaseChar@@QBE_NXZ PROC			; ioBaseChar::IsMale, COMDAT
; _this$ = ecx

; 2775 : 	inline bool IsMale() const { return m_bMale; }

  00000	8a 81 20 03 00
	00		 mov	 al, BYTE PTR [ecx+800]
  00006	c3		 ret	 0
?IsMale@ioBaseChar@@QBE_NXZ ENDP			; ioBaseChar::IsMale
_TEXT	ENDS
PUBLIC	?GetCurEtcStateCnt@ioBaseChar@@QAEHXZ		; ioBaseChar::GetCurEtcStateCnt
; Function compile flags: /Ogsp
;	COMDAT ?GetCurEtcStateCnt@ioBaseChar@@QAEHXZ
_TEXT	SEGMENT
?GetCurEtcStateCnt@ioBaseChar@@QAEHXZ PROC		; ioBaseChar::GetCurEtcStateCnt, COMDAT
; _this$ = ecx

; 2977 : 	inline int GetCurEtcStateCnt() { return m_iEtcStateCnt; }

  00000	8b 81 ac 19 00
	00		 mov	 eax, DWORD PTR [ecx+6572]
  00006	c3		 ret	 0
?GetCurEtcStateCnt@ioBaseChar@@QAEHXZ ENDP		; ioBaseChar::GetCurEtcStateCnt
_TEXT	ENDS
PUBLIC	??_7ioStunBuff@@6B@				; ioStunBuff::`vftable'
PUBLIC	??0ioStunBuff@@QAE@XZ				; ioStunBuff::ioStunBuff
PUBLIC	??_R4ioStunBuff@@6B@				; ioStunBuff::`RTTI Complete Object Locator'
PUBLIC	??_R0?AVioStunBuff@@@8				; ioStunBuff `RTTI Type Descriptor'
PUBLIC	??_R3ioStunBuff@@8				; ioStunBuff::`RTTI Class Hierarchy Descriptor'
PUBLIC	??_R2ioStunBuff@@8				; ioStunBuff::`RTTI Base Class Array'
PUBLIC	??_R1A@?0A@EA@ioStunBuff@@8			; ioStunBuff::`RTTI Base Class Descriptor at (0,-1,0,64)'
PUBLIC	??_R1A@?0A@EA@ioBuff@@8				; ioBuff::`RTTI Base Class Descriptor at (0,-1,0,64)'
PUBLIC	??_R0?AVioBuff@@@8				; ioBuff `RTTI Type Descriptor'
PUBLIC	??_R3ioBuff@@8					; ioBuff::`RTTI Class Hierarchy Descriptor'
PUBLIC	??_R2ioBuff@@8					; ioBuff::`RTTI Base Class Array'
PUBLIC	?LoadProperty@ioStunBuff@@UAEXAAVioINILoader@@@Z ; ioStunBuff::LoadProperty
PUBLIC	?Clone@ioStunBuff@@UAEPAVioBuff@@XZ		; ioStunBuff::Clone
PUBLIC	?StartBuff@ioStunBuff@@UAEXPAVioBaseChar@@@Z	; ioStunBuff::StartBuff
PUBLIC	?ApplyStartBuff@ioStunBuff@@UAE_NPAVioBaseChar@@KK@Z ; ioStunBuff::ApplyStartBuff
PUBLIC	?ProcessBuff@ioStunBuff@@UAEXM@Z		; ioStunBuff::ProcessBuff
PUBLIC	?EndBuff@ioStunBuff@@UAEXXZ			; ioStunBuff::EndBuff
PUBLIC	?SetAction@ioStunBuff@@MAEXXZ			; ioStunBuff::SetAction
PUBLIC	?ProcessDelay@ioStunBuff@@MAEXM@Z		; ioStunBuff::ProcessDelay
PUBLIC	?IsWaitSelfRemove@ioBuff@@UAE_NXZ		; ioBuff::IsWaitSelfRemove
EXTRN	__imp_??1ioHashString@@QAE@XZ:PROC
EXTRN	??1ioBuff@@UAE@XZ:PROC				; ioBuff::~ioBuff
EXTRN	__imp_??0ioHashString@@QAE@XZ:PROC
EXTRN	??0ioBuff@@QAE@XZ:PROC				; ioBuff::ioBuff
EXTRN	___CxxFrameHandler3:PROC
EXTRN	@__security_check_cookie@4:PROC
EXTRN	__EH_epilog3:PROC
EXTRN	__EH_prolog3:PROC
EXTRN	??_7type_info@@6B@:QWORD			; type_info::`vftable'
EXTRN	?StartBuffWithAniTime@ioBuff@@UAEXPAVioBaseChar@@K@Z:PROC ; ioBuff::StartBuffWithAniTime
EXTRN	?CancelBuff@ioBuff@@UAEXXZ:PROC			; ioBuff::CancelBuff
EXTRN	?GetBuffInfo@ioBuff@@UAEXAAVSP2Packet@@@Z:PROC	; ioBuff::GetBuffInfo
EXTRN	?ApplyBuffInfo@ioBuff@@UAEXAAVSP2Packet@@@Z:PROC ; ioBuff::ApplyBuffInfo
EXTRN	?AccumulateBuff@ioBuff@@UAEXXZ:PROC		; ioBuff::AccumulateBuff
EXTRN	?IsLiveButStopped@ioBuff@@UBE_NXZ:PROC		; ioBuff::IsLiveButStopped
EXTRN	?IsCanJumpAttack@ioBuff@@UBE_NXZ:PROC		; ioBuff::IsCanJumpAttack
EXTRN	?SetExtraDurationByGrowth@ioBuff@@UAEXM@Z:PROC	; ioBuff::SetExtraDurationByGrowth
EXTRN	?SetWeaponIndex@ioBuff@@UAEXK@Z:PROC		; ioBuff::SetWeaponIndex
EXTRN	?OnReduceGauge@ioBuff@@UBE_NXZ:PROC		; ioBuff::OnReduceGauge
EXTRN	?IsCharCollisionSkip@ioBuff@@UBE_NXZ:PROC	; ioBuff::IsCharCollisionSkip
EXTRN	?IsCollisionAvailableWeapon@ioBuff@@UBE_NXZ:PROC ; ioBuff::IsCollisionAvailableWeapon
EXTRN	?IsProtected@ioBuff@@UBE_NXZ:PROC		; ioBuff::IsProtected
EXTRN	?UseActiveCount@ioBuff@@UBE_NXZ:PROC		; ioBuff::UseActiveCount
EXTRN	?CheckActiveCount@ioBuff@@UAEXXZ:PROC		; ioBuff::CheckActiveCount
EXTRN	?CheckRemoveEquipSkillBuff@ioBuff@@UAEX_N@Z:PROC ; ioBuff::CheckRemoveEquipSkillBuff
EXTRN	?ApplyExtraBuffInfo@ioBuff@@UAEXAAVSP2Packet@@@Z:PROC ; ioBuff::ApplyExtraBuffInfo
EXTRN	?SetBuffGrapplingState@ioBuff@@UAE_NPAVioBaseChar@@ABVioHashString@@@Z:PROC ; ioBuff::SetBuffGrapplingState
EXTRN	?GetGrapplingTargetPos@ioBuff@@UAE?AUD3DXVECTOR3@@PAVioBaseChar@@@Z:PROC ; ioBuff::GetGrapplingTargetPos
EXTRN	??_EioStunBuff@@UAEPAXI@Z:PROC			; ioStunBuff::`vector deleting destructor'
;	COMDAT ??_R2ioBuff@@8
; File d:\lost saga for developer\youtube\tutorial\source\src\lsclient\iostunbuff.cpp
rdata$r	SEGMENT
??_R2ioBuff@@8 DD FLAT:??_R1A@?0A@EA@ioBuff@@8		; ioBuff::`RTTI Base Class Array'
rdata$r	ENDS
;	COMDAT ??_R3ioBuff@@8
rdata$r	SEGMENT
??_R3ioBuff@@8 DD 00H					; ioBuff::`RTTI Class Hierarchy Descriptor'
	DD	00H
	DD	01H
	DD	FLAT:??_R2ioBuff@@8
rdata$r	ENDS
;	COMDAT ??_R0?AVioBuff@@@8
_DATA	SEGMENT
??_R0?AVioBuff@@@8 DD FLAT:??_7type_info@@6B@		; ioBuff `RTTI Type Descriptor'
	DD	00H
	DB	'.?AVioBuff@@', 00H
_DATA	ENDS
;	COMDAT ??_R1A@?0A@EA@ioBuff@@8
rdata$r	SEGMENT
??_R1A@?0A@EA@ioBuff@@8 DD FLAT:??_R0?AVioBuff@@@8	; ioBuff::`RTTI Base Class Descriptor at (0,-1,0,64)'
	DD	00H
	DD	00H
	DD	0ffffffffH
	DD	00H
	DD	040H
	DD	FLAT:??_R3ioBuff@@8
rdata$r	ENDS
;	COMDAT ??_R1A@?0A@EA@ioStunBuff@@8
rdata$r	SEGMENT
??_R1A@?0A@EA@ioStunBuff@@8 DD FLAT:??_R0?AVioStunBuff@@@8 ; ioStunBuff::`RTTI Base Class Descriptor at (0,-1,0,64)'
	DD	01H
	DD	00H
	DD	0ffffffffH
	DD	00H
	DD	040H
	DD	FLAT:??_R3ioStunBuff@@8
rdata$r	ENDS
;	COMDAT ??_R2ioStunBuff@@8
rdata$r	SEGMENT
??_R2ioStunBuff@@8 DD FLAT:??_R1A@?0A@EA@ioStunBuff@@8	; ioStunBuff::`RTTI Base Class Array'
	DD	FLAT:??_R1A@?0A@EA@ioBuff@@8
rdata$r	ENDS
;	COMDAT ??_R3ioStunBuff@@8
rdata$r	SEGMENT
??_R3ioStunBuff@@8 DD 00H				; ioStunBuff::`RTTI Class Hierarchy Descriptor'
	DD	00H
	DD	02H
	DD	FLAT:??_R2ioStunBuff@@8
rdata$r	ENDS
;	COMDAT ??_R0?AVioStunBuff@@@8
_DATA	SEGMENT
??_R0?AVioStunBuff@@@8 DD FLAT:??_7type_info@@6B@	; ioStunBuff `RTTI Type Descriptor'
	DD	00H
	DB	'.?AVioStunBuff@@', 00H
_DATA	ENDS
;	COMDAT ??_R4ioStunBuff@@6B@
rdata$r	SEGMENT
??_R4ioStunBuff@@6B@ DD 00H				; ioStunBuff::`RTTI Complete Object Locator'
	DD	00H
	DD	00H
	DD	FLAT:??_R0?AVioStunBuff@@@8
	DD	FLAT:??_R3ioStunBuff@@8
rdata$r	ENDS
;	COMDAT ??_7ioStunBuff@@6B@
CONST	SEGMENT
??_7ioStunBuff@@6B@ DD FLAT:??_R4ioStunBuff@@6B@	; ioStunBuff::`vftable'
	DD	FLAT:?LoadProperty@ioStunBuff@@UAEXAAVioINILoader@@@Z
	DD	FLAT:?Clone@ioStunBuff@@UAEPAVioBuff@@XZ
	DD	FLAT:?StartBuff@ioStunBuff@@UAEXPAVioBaseChar@@@Z
	DD	FLAT:?StartBuffWithAniTime@ioBuff@@UAEXPAVioBaseChar@@K@Z
	DD	FLAT:?ApplyStartBuff@ioStunBuff@@UAE_NPAVioBaseChar@@KK@Z
	DD	FLAT:?ProcessBuff@ioStunBuff@@UAEXM@Z
	DD	FLAT:?EndBuff@ioStunBuff@@UAEXXZ
	DD	FLAT:?CancelBuff@ioBuff@@UAEXXZ
	DD	FLAT:?GetBuffInfo@ioBuff@@UAEXAAVSP2Packet@@@Z
	DD	FLAT:?ApplyBuffInfo@ioBuff@@UAEXAAVSP2Packet@@@Z
	DD	FLAT:?AccumulateBuff@ioBuff@@UAEXXZ
	DD	FLAT:?IsLiveButStopped@ioBuff@@UBE_NXZ
	DD	FLAT:?IsCanJumpAttack@ioBuff@@UBE_NXZ
	DD	FLAT:?SetAction@ioStunBuff@@MAEXXZ
	DD	FLAT:?ProcessDelay@ioStunBuff@@MAEXM@Z
	DD	FLAT:?SetExtraDurationByGrowth@ioBuff@@UAEXM@Z
	DD	FLAT:?SetWeaponIndex@ioBuff@@UAEXK@Z
	DD	FLAT:?OnReduceGauge@ioBuff@@UBE_NXZ
	DD	FLAT:?IsCharCollisionSkip@ioBuff@@UBE_NXZ
	DD	FLAT:?IsCollisionAvailableWeapon@ioBuff@@UBE_NXZ
	DD	FLAT:?IsProtected@ioBuff@@UBE_NXZ
	DD	FLAT:?UseActiveCount@ioBuff@@UBE_NXZ
	DD	FLAT:?CheckActiveCount@ioBuff@@UAEXXZ
	DD	FLAT:?CheckRemoveEquipSkillBuff@ioBuff@@UAEX_N@Z
	DD	FLAT:?ApplyExtraBuffInfo@ioBuff@@UAEXAAVSP2Packet@@@Z
	DD	FLAT:?SetBuffGrapplingState@ioBuff@@UAE_NPAVioBaseChar@@ABVioHashString@@@Z
	DD	FLAT:?GetGrapplingTargetPos@ioBuff@@UAE?AUD3DXVECTOR3@@PAVioBaseChar@@@Z
	DD	FLAT:?IsWaitSelfRemove@ioBuff@@UAE_NXZ
	DD	FLAT:??_EioStunBuff@@UAEPAXI@Z
CONST	ENDS
;	COMDAT xdata$x
xdata$x	SEGMENT
__ehfuncinfo$??0ioStunBuff@@QAE@XZ DD 019930522H
	DD	06H
	DD	FLAT:__unwindtable$??0ioStunBuff@@QAE@XZ
	DD	2 DUP(00H)
	DD	2 DUP(00H)
	DD	00H
	DD	01H
__unwindtable$??0ioStunBuff@@QAE@XZ DD 0ffffffffH
	DD	FLAT:__unwindfunclet$??0ioStunBuff@@QAE@XZ$0
	DD	00H
	DD	FLAT:__unwindfunclet$??0ioStunBuff@@QAE@XZ$1
	DD	01H
	DD	FLAT:__unwindfunclet$??0ioStunBuff@@QAE@XZ$2
	DD	02H
	DD	FLAT:__unwindfunclet$??0ioStunBuff@@QAE@XZ$3
	DD	03H
	DD	FLAT:__unwindfunclet$??0ioStunBuff@@QAE@XZ$4
	DD	04H
	DD	FLAT:__unwindfunclet$??0ioStunBuff@@QAE@XZ$5
; Function compile flags: /Ogsp
xdata$x	ENDS
;	COMDAT ??0ioStunBuff@@QAE@XZ
_TEXT	SEGMENT
_this$ = -16						; size = 4
__$EHRec$ = -12						; size = 12
??0ioStunBuff@@QAE@XZ PROC				; ioStunBuff::ioStunBuff, COMDAT
; _this$ = ecx

; 11   : {

  00000	6a 04		 push	 4
  00002	b8 00 00 00 00	 mov	 eax, __ehhandler$??0ioStunBuff@@QAE@XZ
  00007	e8 00 00 00 00	 call	 __EH_prolog3
  0000c	8b f1		 mov	 esi, ecx
  0000e	89 75 f0	 mov	 DWORD PTR _this$[ebp], esi
  00011	e8 00 00 00 00	 call	 ??0ioBuff@@QAE@XZ	; ioBuff::ioBuff
  00016	8b 3d 00 00 00
	00		 mov	 edi, DWORD PTR __imp_??0ioHashString@@QAE@XZ
  0001c	83 65 fc 00	 and	 DWORD PTR __$EHRec$[ebp+8], 0
  00020	8d 8e 6c 09 00
	00		 lea	 ecx, DWORD PTR [esi+2412]
  00026	c7 06 00 00 00
	00		 mov	 DWORD PTR [esi], OFFSET ??_7ioStunBuff@@6B@
  0002c	ff d7		 call	 edi
  0002e	8d 8e 7c 09 00
	00		 lea	 ecx, DWORD PTR [esi+2428]
  00034	c6 45 fc 01	 mov	 BYTE PTR __$EHRec$[ebp+8], 1
  00038	ff d7		 call	 edi
  0003a	8d 8e 8c 09 00
	00		 lea	 ecx, DWORD PTR [esi+2444]
  00040	c6 45 fc 02	 mov	 BYTE PTR __$EHRec$[ebp+8], 2
  00044	ff d7		 call	 edi
  00046	8d 8e 9c 09 00
	00		 lea	 ecx, DWORD PTR [esi+2460]
  0004c	c6 45 fc 03	 mov	 BYTE PTR __$EHRec$[ebp+8], 3
  00050	ff d7		 call	 edi
  00052	8d 8e ac 09 00
	00		 lea	 ecx, DWORD PTR [esi+2476]
  00058	c6 45 fc 04	 mov	 BYTE PTR __$EHRec$[ebp+8], 4
  0005c	ff d7		 call	 edi
  0005e	8d 8e bc 09 00
	00		 lea	 ecx, DWORD PTR [esi+2492]
  00064	c6 45 fc 05	 mov	 BYTE PTR __$EHRec$[ebp+8], 5
  00068	ff d7		 call	 edi

; 12   : 	m_BuffEffectID = -1;

  0006a	83 8e cc 09 00
	00 ff		 or	 DWORD PTR [esi+2508], -1

; 13   : }

  00071	8b c6		 mov	 eax, esi
  00073	e8 00 00 00 00	 call	 __EH_epilog3
  00078	c3		 ret	 0
_TEXT	ENDS
;	COMDAT text$x
text$x	SEGMENT
__unwindfunclet$??0ioStunBuff@@QAE@XZ$0:
  00000	8b 4d f0	 mov	 ecx, DWORD PTR _this$[ebp]
  00003	e9 00 00 00 00	 jmp	 ??1ioBuff@@UAE@XZ	; ioBuff::~ioBuff
__unwindfunclet$??0ioStunBuff@@QAE@XZ$1:
  00008	8b 4d f0	 mov	 ecx, DWORD PTR _this$[ebp]
  0000b	81 c1 6c 09 00
	00		 add	 ecx, 2412		; 0000096cH
  00011	ff 25 00 00 00
	00		 jmp	 DWORD PTR __imp_??1ioHashString@@QAE@XZ
__unwindfunclet$??0ioStunBuff@@QAE@XZ$2:
  00017	8b 4d f0	 mov	 ecx, DWORD PTR _this$[ebp]
  0001a	81 c1 7c 09 00
	00		 add	 ecx, 2428		; 0000097cH
  00020	ff 25 00 00 00
	00		 jmp	 DWORD PTR __imp_??1ioHashString@@QAE@XZ
__unwindfunclet$??0ioStunBuff@@QAE@XZ$3:
  00026	8b 4d f0	 mov	 ecx, DWORD PTR _this$[ebp]
  00029	81 c1 8c 09 00
	00		 add	 ecx, 2444		; 0000098cH
  0002f	ff 25 00 00 00
	00		 jmp	 DWORD PTR __imp_??1ioHashString@@QAE@XZ
__unwindfunclet$??0ioStunBuff@@QAE@XZ$4:
  00035	8b 4d f0	 mov	 ecx, DWORD PTR _this$[ebp]
  00038	81 c1 9c 09 00
	00		 add	 ecx, 2460		; 0000099cH
  0003e	ff 25 00 00 00
	00		 jmp	 DWORD PTR __imp_??1ioHashString@@QAE@XZ
__unwindfunclet$??0ioStunBuff@@QAE@XZ$5:
  00044	8b 4d f0	 mov	 ecx, DWORD PTR _this$[ebp]
  00047	81 c1 ac 09 00
	00		 add	 ecx, 2476		; 000009acH
  0004d	ff 25 00 00 00
	00		 jmp	 DWORD PTR __imp_??1ioHashString@@QAE@XZ
__ehhandler$??0ioStunBuff@@QAE@XZ:
  00053	8b 54 24 08	 mov	 edx, DWORD PTR [esp+8]
  00057	8d 42 0c	 lea	 eax, DWORD PTR [edx+12]
  0005a	8b 4a ec	 mov	 ecx, DWORD PTR [edx-20]
  0005d	33 c8		 xor	 ecx, eax
  0005f	e8 00 00 00 00	 call	 @__security_check_cookie@4
  00064	b8 00 00 00 00	 mov	 eax, OFFSET __ehfuncinfo$??0ioStunBuff@@QAE@XZ
  00069	e9 00 00 00 00	 jmp	 ___CxxFrameHandler3
text$x	ENDS
??0ioStunBuff@@QAE@XZ ENDP				; ioStunBuff::ioStunBuff
PUBLIC	??0ioStunBuff@@QAE@ABV0@@Z			; ioStunBuff::ioStunBuff
EXTRN	__imp_??0ioHashString@@QAE@ABV0@@Z:PROC
EXTRN	??0ioBuff@@QAE@ABV0@@Z:PROC			; ioBuff::ioBuff
;	COMDAT xdata$x
xdata$x	SEGMENT
__ehfuncinfo$??0ioStunBuff@@QAE@ABV0@@Z DD 019930522H
	DD	06H
	DD	FLAT:__unwindtable$??0ioStunBuff@@QAE@ABV0@@Z
	DD	2 DUP(00H)
	DD	2 DUP(00H)
	DD	00H
	DD	01H
__unwindtable$??0ioStunBuff@@QAE@ABV0@@Z DD 0ffffffffH
	DD	FLAT:__unwindfunclet$??0ioStunBuff@@QAE@ABV0@@Z$0
	DD	00H
	DD	FLAT:__unwindfunclet$??0ioStunBuff@@QAE@ABV0@@Z$1
	DD	01H
	DD	FLAT:__unwindfunclet$??0ioStunBuff@@QAE@ABV0@@Z$2
	DD	02H
	DD	FLAT:__unwindfunclet$??0ioStunBuff@@QAE@ABV0@@Z$3
	DD	03H
	DD	FLAT:__unwindfunclet$??0ioStunBuff@@QAE@ABV0@@Z$4
	DD	04H
	DD	FLAT:__unwindfunclet$??0ioStunBuff@@QAE@ABV0@@Z$5
; Function compile flags: /Ogsp
xdata$x	ENDS
;	COMDAT ??0ioStunBuff@@QAE@ABV0@@Z
_TEXT	SEGMENT
_this$ = -16						; size = 4
__$EHRec$ = -12						; size = 12
_rhs$ = 8						; size = 4
??0ioStunBuff@@QAE@ABV0@@Z PROC				; ioStunBuff::ioStunBuff, COMDAT
; _this$ = ecx

; 24   : {

  00000	6a 04		 push	 4
  00002	b8 00 00 00 00	 mov	 eax, __ehhandler$??0ioStunBuff@@QAE@ABV0@@Z
  00007	e8 00 00 00 00	 call	 __EH_prolog3
  0000c	8b f1		 mov	 esi, ecx
  0000e	89 75 f0	 mov	 DWORD PTR _this$[ebp], esi
  00011	8b 5d 08	 mov	 ebx, DWORD PTR _rhs$[ebp]
  00014	53		 push	 ebx
  00015	e8 00 00 00 00	 call	 ??0ioBuff@@QAE@ABV0@@Z	; ioBuff::ioBuff
  0001a	8b 3d 00 00 00
	00		 mov	 edi, DWORD PTR __imp_??0ioHashString@@QAE@ABV0@@Z
  00020	83 65 fc 00	 and	 DWORD PTR __$EHRec$[ebp+8], 0
  00024	8d 83 6c 09 00
	00		 lea	 eax, DWORD PTR [ebx+2412]
  0002a	50		 push	 eax
  0002b	8d 8e 6c 09 00
	00		 lea	 ecx, DWORD PTR [esi+2412]
  00031	c7 06 00 00 00
	00		 mov	 DWORD PTR [esi], OFFSET ??_7ioStunBuff@@6B@
  00037	ff d7		 call	 edi
  00039	8d 83 7c 09 00
	00		 lea	 eax, DWORD PTR [ebx+2428]
  0003f	50		 push	 eax
  00040	8d 8e 7c 09 00
	00		 lea	 ecx, DWORD PTR [esi+2428]
  00046	c6 45 fc 01	 mov	 BYTE PTR __$EHRec$[ebp+8], 1
  0004a	ff d7		 call	 edi
  0004c	8d 83 8c 09 00
	00		 lea	 eax, DWORD PTR [ebx+2444]
  00052	50		 push	 eax
  00053	8d 8e 8c 09 00
	00		 lea	 ecx, DWORD PTR [esi+2444]
  00059	c6 45 fc 02	 mov	 BYTE PTR __$EHRec$[ebp+8], 2
  0005d	ff d7		 call	 edi
  0005f	8d 83 9c 09 00
	00		 lea	 eax, DWORD PTR [ebx+2460]
  00065	50		 push	 eax
  00066	8d 8e 9c 09 00
	00		 lea	 ecx, DWORD PTR [esi+2460]
  0006c	c6 45 fc 03	 mov	 BYTE PTR __$EHRec$[ebp+8], 3
  00070	ff d7		 call	 edi
  00072	8d 83 ac 09 00
	00		 lea	 eax, DWORD PTR [ebx+2476]
  00078	50		 push	 eax
  00079	8d 8e ac 09 00
	00		 lea	 ecx, DWORD PTR [esi+2476]
  0007f	c6 45 fc 04	 mov	 BYTE PTR __$EHRec$[ebp+8], 4
  00083	ff d7		 call	 edi
  00085	81 c3 bc 09 00
	00		 add	 ebx, 2492		; 000009bcH
  0008b	53		 push	 ebx
  0008c	8d 8e bc 09 00
	00		 lea	 ecx, DWORD PTR [esi+2492]
  00092	c6 45 fc 05	 mov	 BYTE PTR __$EHRec$[ebp+8], 5
  00096	ff d7		 call	 edi

; 25   : 	m_BuffEffectID = -1;

  00098	83 8e cc 09 00
	00 ff		 or	 DWORD PTR [esi+2508], -1

; 26   : }

  0009f	8b c6		 mov	 eax, esi
  000a1	e8 00 00 00 00	 call	 __EH_epilog3
  000a6	c2 04 00	 ret	 4
_TEXT	ENDS
;	COMDAT text$x
text$x	SEGMENT
__unwindfunclet$??0ioStunBuff@@QAE@ABV0@@Z$0:
  00000	8b 4d f0	 mov	 ecx, DWORD PTR _this$[ebp]
  00003	e9 00 00 00 00	 jmp	 ??1ioBuff@@UAE@XZ	; ioBuff::~ioBuff
__unwindfunclet$??0ioStunBuff@@QAE@ABV0@@Z$1:
  00008	8b 4d f0	 mov	 ecx, DWORD PTR _this$[ebp]
  0000b	81 c1 6c 09 00
	00		 add	 ecx, 2412		; 0000096cH
  00011	ff 25 00 00 00
	00		 jmp	 DWORD PTR __imp_??1ioHashString@@QAE@XZ
__unwindfunclet$??0ioStunBuff@@QAE@ABV0@@Z$2:
  00017	8b 4d f0	 mov	 ecx, DWORD PTR _this$[ebp]
  0001a	81 c1 7c 09 00
	00		 add	 ecx, 2428		; 0000097cH
  00020	ff 25 00 00 00
	00		 jmp	 DWORD PTR __imp_??1ioHashString@@QAE@XZ
__unwindfunclet$??0ioStunBuff@@QAE@ABV0@@Z$3:
  00026	8b 4d f0	 mov	 ecx, DWORD PTR _this$[ebp]
  00029	81 c1 8c 09 00
	00		 add	 ecx, 2444		; 0000098cH
  0002f	ff 25 00 00 00
	00		 jmp	 DWORD PTR __imp_??1ioHashString@@QAE@XZ
__unwindfunclet$??0ioStunBuff@@QAE@ABV0@@Z$4:
  00035	8b 4d f0	 mov	 ecx, DWORD PTR _this$[ebp]
  00038	81 c1 9c 09 00
	00		 add	 ecx, 2460		; 0000099cH
  0003e	ff 25 00 00 00
	00		 jmp	 DWORD PTR __imp_??1ioHashString@@QAE@XZ
__unwindfunclet$??0ioStunBuff@@QAE@ABV0@@Z$5:
  00044	8b 4d f0	 mov	 ecx, DWORD PTR _this$[ebp]
  00047	81 c1 ac 09 00
	00		 add	 ecx, 2476		; 000009acH
  0004d	ff 25 00 00 00
	00		 jmp	 DWORD PTR __imp_??1ioHashString@@QAE@XZ
__ehhandler$??0ioStunBuff@@QAE@ABV0@@Z:
  00053	8b 54 24 08	 mov	 edx, DWORD PTR [esp+8]
  00057	8d 42 0c	 lea	 eax, DWORD PTR [edx+12]
  0005a	8b 4a ec	 mov	 ecx, DWORD PTR [edx-20]
  0005d	33 c8		 xor	 ecx, eax
  0005f	e8 00 00 00 00	 call	 @__security_check_cookie@4
  00064	b8 00 00 00 00	 mov	 eax, OFFSET __ehfuncinfo$??0ioStunBuff@@QAE@ABV0@@Z
  00069	e9 00 00 00 00	 jmp	 ___CxxFrameHandler3
text$x	ENDS
??0ioStunBuff@@QAE@ABV0@@Z ENDP				; ioStunBuff::ioStunBuff
PUBLIC	??1ioStunBuff@@UAE@XZ				; ioStunBuff::~ioStunBuff
;	COMDAT xdata$x
xdata$x	SEGMENT
__ehfuncinfo$??1ioStunBuff@@UAE@XZ DD 019930522H
	DD	06H
	DD	FLAT:__unwindtable$??1ioStunBuff@@UAE@XZ
	DD	2 DUP(00H)
	DD	2 DUP(00H)
	DD	00H
	DD	01H
__unwindtable$??1ioStunBuff@@UAE@XZ DD 0ffffffffH
	DD	FLAT:__unwindfunclet$??1ioStunBuff@@UAE@XZ$0
	DD	00H
	DD	FLAT:__unwindfunclet$??1ioStunBuff@@UAE@XZ$1
	DD	01H
	DD	FLAT:__unwindfunclet$??1ioStunBuff@@UAE@XZ$2
	DD	02H
	DD	FLAT:__unwindfunclet$??1ioStunBuff@@UAE@XZ$3
	DD	03H
	DD	FLAT:__unwindfunclet$??1ioStunBuff@@UAE@XZ$4
	DD	04H
	DD	FLAT:__unwindfunclet$??1ioStunBuff@@UAE@XZ$5
; Function compile flags: /Ogsp
xdata$x	ENDS
;	COMDAT ??1ioStunBuff@@UAE@XZ
_TEXT	SEGMENT
_this$ = -16						; size = 4
__$EHRec$ = -12						; size = 12
??1ioStunBuff@@UAE@XZ PROC				; ioStunBuff::~ioStunBuff, COMDAT
; _this$ = ecx

; 29   : {

  00000	6a 04		 push	 4
  00002	b8 00 00 00 00	 mov	 eax, __ehhandler$??1ioStunBuff@@UAE@XZ
  00007	e8 00 00 00 00	 call	 __EH_prolog3
  0000c	8b f9		 mov	 edi, ecx
  0000e	89 7d f0	 mov	 DWORD PTR _this$[ebp], edi
  00011	c7 07 00 00 00
	00		 mov	 DWORD PTR [edi], OFFSET ??_7ioStunBuff@@6B@

; 30   : }

  00017	8b 35 00 00 00
	00		 mov	 esi, DWORD PTR __imp_??1ioHashString@@QAE@XZ
  0001d	8d 8f bc 09 00
	00		 lea	 ecx, DWORD PTR [edi+2492]
  00023	c7 45 fc 05 00
	00 00		 mov	 DWORD PTR __$EHRec$[ebp+8], 5
  0002a	ff d6		 call	 esi
  0002c	8d 8f ac 09 00
	00		 lea	 ecx, DWORD PTR [edi+2476]
  00032	c6 45 fc 04	 mov	 BYTE PTR __$EHRec$[ebp+8], 4
  00036	ff d6		 call	 esi
  00038	8d 8f 9c 09 00
	00		 lea	 ecx, DWORD PTR [edi+2460]
  0003e	c6 45 fc 03	 mov	 BYTE PTR __$EHRec$[ebp+8], 3
  00042	ff d6		 call	 esi
  00044	8d 8f 8c 09 00
	00		 lea	 ecx, DWORD PTR [edi+2444]
  0004a	c6 45 fc 02	 mov	 BYTE PTR __$EHRec$[ebp+8], 2
  0004e	ff d6		 call	 esi
  00050	8d 8f 7c 09 00
	00		 lea	 ecx, DWORD PTR [edi+2428]
  00056	c6 45 fc 01	 mov	 BYTE PTR __$EHRec$[ebp+8], 1
  0005a	ff d6		 call	 esi
  0005c	8d 8f 6c 09 00
	00		 lea	 ecx, DWORD PTR [edi+2412]
  00062	c6 45 fc 00	 mov	 BYTE PTR __$EHRec$[ebp+8], 0
  00066	ff d6		 call	 esi
  00068	83 4d fc ff	 or	 DWORD PTR __$EHRec$[ebp+8], -1
  0006c	8b cf		 mov	 ecx, edi
  0006e	e8 00 00 00 00	 call	 ??1ioBuff@@UAE@XZ	; ioBuff::~ioBuff
  00073	e8 00 00 00 00	 call	 __EH_epilog3
  00078	c3		 ret	 0
_TEXT	ENDS
;	COMDAT text$x
text$x	SEGMENT
__unwindfunclet$??1ioStunBuff@@UAE@XZ$0:
  00000	8b 4d f0	 mov	 ecx, DWORD PTR _this$[ebp]
  00003	e9 00 00 00 00	 jmp	 ??1ioBuff@@UAE@XZ	; ioBuff::~ioBuff
__unwindfunclet$??1ioStunBuff@@UAE@XZ$1:
  00008	8b 4d f0	 mov	 ecx, DWORD PTR _this$[ebp]
  0000b	81 c1 6c 09 00
	00		 add	 ecx, 2412		; 0000096cH
  00011	ff 25 00 00 00
	00		 jmp	 DWORD PTR __imp_??1ioHashString@@QAE@XZ
__unwindfunclet$??1ioStunBuff@@UAE@XZ$2:
  00017	8b 4d f0	 mov	 ecx, DWORD PTR _this$[ebp]
  0001a	81 c1 7c 09 00
	00		 add	 ecx, 2428		; 0000097cH
  00020	ff 25 00 00 00
	00		 jmp	 DWORD PTR __imp_??1ioHashString@@QAE@XZ
__unwindfunclet$??1ioStunBuff@@UAE@XZ$3:
  00026	8b 4d f0	 mov	 ecx, DWORD PTR _this$[ebp]
  00029	81 c1 8c 09 00
	00		 add	 ecx, 2444		; 0000098cH
  0002f	ff 25 00 00 00
	00		 jmp	 DWORD PTR __imp_??1ioHashString@@QAE@XZ
__unwindfunclet$??1ioStunBuff@@UAE@XZ$4:
  00035	8b 4d f0	 mov	 ecx, DWORD PTR _this$[ebp]
  00038	81 c1 9c 09 00
	00		 add	 ecx, 2460		; 0000099cH
  0003e	ff 25 00 00 00
	00		 jmp	 DWORD PTR __imp_??1ioHashString@@QAE@XZ
__unwindfunclet$??1ioStunBuff@@UAE@XZ$5:
  00044	8b 4d f0	 mov	 ecx, DWORD PTR _this$[ebp]
  00047	81 c1 ac 09 00
	00		 add	 ecx, 2476		; 000009acH
  0004d	ff 25 00 00 00
	00		 jmp	 DWORD PTR __imp_??1ioHashString@@QAE@XZ
__ehhandler$??1ioStunBuff@@UAE@XZ:
  00053	8b 54 24 08	 mov	 edx, DWORD PTR [esp+8]
  00057	8d 42 0c	 lea	 eax, DWORD PTR [edx+12]
  0005a	8b 4a ec	 mov	 ecx, DWORD PTR [edx-20]
  0005d	33 c8		 xor	 ecx, eax
  0005f	e8 00 00 00 00	 call	 @__security_check_cookie@4
  00064	b8 00 00 00 00	 mov	 eax, OFFSET __ehfuncinfo$??1ioStunBuff@@UAE@XZ
  00069	e9 00 00 00 00	 jmp	 ___CxxFrameHandler3
text$x	ENDS
??1ioStunBuff@@UAE@XZ ENDP				; ioStunBuff::~ioStunBuff
EXTRN	??3@YAXPAX@Z:PROC				; operator delete
EXTRN	??2@YAPAXI@Z:PROC				; operator new
;	COMDAT xdata$x
xdata$x	SEGMENT
__unwindtable$?Clone@ioStunBuff@@UAEPAVioBuff@@XZ DD 0ffffffffH
	DD	FLAT:__unwindfunclet$?Clone@ioStunBuff@@UAEPAVioBuff@@XZ$0
__ehfuncinfo$?Clone@ioStunBuff@@UAEPAVioBuff@@XZ DD 019930522H
	DD	01H
	DD	FLAT:__unwindtable$?Clone@ioStunBuff@@UAEPAVioBuff@@XZ
	DD	2 DUP(00H)
	DD	2 DUP(00H)
	DD	00H
	DD	01H
; Function compile flags: /Ogsp
xdata$x	ENDS
;	COMDAT ?Clone@ioStunBuff@@UAEPAVioBuff@@XZ
_TEXT	SEGMENT
$T525101 = -16						; size = 4
__$EHRec$ = -12						; size = 12
?Clone@ioStunBuff@@UAEPAVioBuff@@XZ PROC		; ioStunBuff::Clone, COMDAT
; _this$ = ecx

; 57   : {

  00000	6a 04		 push	 4
  00002	b8 00 00 00 00	 mov	 eax, __ehhandler$?Clone@ioStunBuff@@UAEPAVioBuff@@XZ
  00007	e8 00 00 00 00	 call	 __EH_prolog3
  0000c	8b f1		 mov	 esi, ecx

; 58   : 	return new ioStunBuff( *this );

  0000e	68 d4 09 00 00	 push	 2516			; 000009d4H
  00013	e8 00 00 00 00	 call	 ??2@YAPAXI@Z		; operator new
  00018	59		 pop	 ecx
  00019	8b c8		 mov	 ecx, eax
  0001b	89 4d f0	 mov	 DWORD PTR $T525101[ebp], ecx
  0001e	33 c0		 xor	 eax, eax
  00020	89 45 fc	 mov	 DWORD PTR __$EHRec$[ebp+8], eax
  00023	3b c8		 cmp	 ecx, eax
  00025	74 06		 je	 SHORT $LN3@Clone
  00027	56		 push	 esi
  00028	e8 00 00 00 00	 call	 ??0ioStunBuff@@QAE@ABV0@@Z ; ioStunBuff::ioStunBuff
$LN3@Clone:

; 59   : }

  0002d	e8 00 00 00 00	 call	 __EH_epilog3
  00032	c3		 ret	 0
_TEXT	ENDS
;	COMDAT text$x
text$x	SEGMENT
__unwindfunclet$?Clone@ioStunBuff@@UAEPAVioBuff@@XZ$0:
  00000	ff 75 f0	 push	 DWORD PTR $T525101[ebp]
  00003	e8 00 00 00 00	 call	 ??3@YAXPAX@Z		; operator delete
  00008	59		 pop	 ecx
  00009	c3		 ret	 0
__ehhandler$?Clone@ioStunBuff@@UAEPAVioBuff@@XZ:
  0000a	8b 54 24 08	 mov	 edx, DWORD PTR [esp+8]
  0000e	8d 42 0c	 lea	 eax, DWORD PTR [edx+12]
  00011	8b 4a ec	 mov	 ecx, DWORD PTR [edx-20]
  00014	33 c8		 xor	 ecx, eax
  00016	e8 00 00 00 00	 call	 @__security_check_cookie@4
  0001b	b8 00 00 00 00	 mov	 eax, OFFSET __ehfuncinfo$?Clone@ioStunBuff@@UAEPAVioBuff@@XZ
  00020	e9 00 00 00 00	 jmp	 ___CxxFrameHandler3
text$x	ENDS
?Clone@ioStunBuff@@UAEPAVioBuff@@XZ ENDP		; ioStunBuff::Clone
EXTRN	?SetReserveEndBuff@ioBuff@@QAEXXZ:PROC		; ioBuff::SetReserveEndBuff
EXTRN	?CheckCallingAreaWeapon@ioBuff@@IAEXXZ:PROC	; ioBuff::CheckCallingAreaWeapon
EXTRN	?ProcessBuff@ioBuff@@UAEXM@Z:PROC		; ioBuff::ProcessBuff
EXTRN	?CheckCallingProcess@ioBuff@@IAEXXZ:PROC	; ioBuff::CheckCallingProcess
EXTRN	?CheckSwitchType@ioBuff@@IAE_NM@Z:PROC		; ioBuff::CheckSwitchType
EXTRN	?GetOwner@ioBuff@@QAEPAVioBaseChar@@XZ:PROC	; ioBuff::GetOwner
EXTRN	__fltused:DWORD
; Function compile flags: /Ogsp
;	COMDAT ?ProcessBuff@ioStunBuff@@UAEXM@Z
_TEXT	SEGMENT
_fTimePerSec$ = 8					; size = 4
?ProcessBuff@ioStunBuff@@UAEXM@Z PROC			; ioStunBuff::ProcessBuff, COMDAT
; _this$ = ecx

; 121  : {

  00000	55		 push	 ebp
  00001	8b ec		 mov	 ebp, esp
  00003	56		 push	 esi
  00004	8b f1		 mov	 esi, ecx

; 122  : 	ioBaseChar *pOwner = GetOwner();

  00006	e8 00 00 00 00	 call	 ?GetOwner@ioBuff@@QAEPAVioBaseChar@@XZ ; ioBuff::GetOwner

; 123  : 	if( !pOwner )

  0000b	85 c0		 test	 eax, eax

; 124  : 	{
; 125  : 		SetReserveEndBuff();
; 126  : 		return;

  0000d	0f 84 8b 00 00
	00		 je	 $LN8@ProcessBuf

; 127  : 	}
; 128  : 
; 129  : 	if( m_iOperationType == OT_DELAY )

  00013	8b 8e d0 03 00
	00		 mov	 ecx, DWORD PTR [esi+976]
  00019	83 f9 03	 cmp	 ecx, 3
  0001c	75 09		 jne	 SHORT $LN14@ProcessBuf

; 130  : 	{
; 131  : 		if( m_bBuffStart )

  0001e	80 be d5 02 00
	00 00		 cmp	 BYTE PTR [esi+725], 0
  00025	74 17		 je	 SHORT $LN9@ProcessBuf
$LN14@ProcessBuf:

; 132  : 		{
; 133  : 			if( pOwner->GetState() != CS_ETC_STATE ||
; 134  : 				pOwner->GetCurEtcStateCnt() != m_iEtcStateCnt )

  00027	80 b8 10 03 00
	00 0f		 cmp	 BYTE PTR [eax+784], 15	; 0000000fH
  0002e	75 6e		 jne	 SHORT $LN8@ProcessBuf
  00030	8b 80 ac 19 00
	00		 mov	 eax, DWORD PTR [eax+6572]
  00036	3b 86 d0 09 00
	00		 cmp	 eax, DWORD PTR [esi+2512]

; 135  : 			{
; 136  : 				SetReserveEndBuff();
; 137  : 				return;

  0003c	75 60		 jne	 SHORT $LN8@ProcessBuf
$LN9@ProcessBuf:

; 147  : 			return;
; 148  : 		}
; 149  : 	}
; 150  : 
; 151  : 	switch( m_iOperationType )

  0003e	8b c1		 mov	 eax, ecx
  00040	83 e8 00	 sub	 eax, 0
  00043	74 50		 je	 SHORT $LN1@ProcessBuf
  00045	48		 dec	 eax
  00046	74 39		 je	 SHORT $LN2@ProcessBuf
  00048	48		 dec	 eax
  00049	74 17		 je	 SHORT $LN5@ProcessBuf
  0004b	48		 dec	 eax
  0004c	75 57		 jne	 SHORT $LN6@ProcessBuf

; 162  : 	case OT_DELAY:
; 163  : 		ProcessDelay( fTimePerSec );

  0004e	f3 0f 10 45 08	 movss	 xmm0, DWORD PTR _fTimePerSec$[ebp]
  00053	8b 06		 mov	 eax, DWORD PTR [esi]
  00055	51		 push	 ecx
  00056	8b ce		 mov	 ecx, esi
  00058	f3 0f 11 04 24	 movss	 DWORD PTR [esp], xmm0
  0005d	ff 50 38	 call	 DWORD PTR [eax+56]

; 164  : 		break;

  00060	eb 43		 jmp	 SHORT $LN6@ProcessBuf
$LN5@ProcessBuf:

; 152  : 	{
; 153  : 	case OT_SWITCH:
; 154  : 		if( !CheckSwitchType( fTimePerSec ) )

  00062	f3 0f 10 45 08	 movss	 xmm0, DWORD PTR _fTimePerSec$[ebp]
  00067	51		 push	 ecx
  00068	8b ce		 mov	 ecx, esi
  0006a	f3 0f 11 04 24	 movss	 DWORD PTR [esp], xmm0
  0006f	e8 00 00 00 00	 call	 ?CheckSwitchType@ioBuff@@IAE_NM@Z ; ioBuff::CheckSwitchType

; 155  : 		{
; 156  : 			SetReserveEndBuff();

  00074	8b ce		 mov	 ecx, esi
  00076	84 c0		 test	 al, al

; 157  : 			return;

  00078	74 26		 je	 SHORT $LN27@ProcessBuf

; 158  : 		}
; 159  : 
; 160  : 		CheckCallingProcess();

  0007a	e8 00 00 00 00	 call	 ?CheckCallingProcess@ioBuff@@IAEXXZ ; ioBuff::CheckCallingProcess

; 161  : 		break;

  0007f	eb 24		 jmp	 SHORT $LN6@ProcessBuf
$LN2@ProcessBuf:

; 165  : 	case OT_ACTIVE:
; 166  : 		ioBuff::ProcessBuff( fTimePerSec );

  00081	f3 0f 10 45 08	 movss	 xmm0, DWORD PTR _fTimePerSec$[ebp]
  00086	51		 push	 ecx
  00087	8b ce		 mov	 ecx, esi
  00089	f3 0f 11 04 24	 movss	 DWORD PTR [esp], xmm0
  0008e	e8 00 00 00 00	 call	 ?ProcessBuff@ioBuff@@UAEXM@Z ; ioBuff::ProcessBuff

; 167  : 		break;

  00093	eb 10		 jmp	 SHORT $LN6@ProcessBuf
$LN1@ProcessBuf:

; 168  : 	case OT_PASSIVE:
; 169  : 		CheckCallingAreaWeapon();

  00095	8b ce		 mov	 ecx, esi
  00097	e8 00 00 00 00	 call	 ?CheckCallingAreaWeapon@ioBuff@@IAEXXZ ; ioBuff::CheckCallingAreaWeapon

; 170  : 		break;

  0009c	eb 07		 jmp	 SHORT $LN6@ProcessBuf
$LN8@ProcessBuf:

; 138  : 			}
; 139  : 		}
; 140  : 	}
; 141  : 	else
; 142  : 	{
; 143  : 		if( pOwner->GetState() != CS_ETC_STATE ||
; 144  : 			pOwner->GetCurEtcStateCnt() != m_iEtcStateCnt )
; 145  : 		{
; 146  : 			SetReserveEndBuff();

  0009e	8b ce		 mov	 ecx, esi
$LN27@ProcessBuf:
  000a0	e8 00 00 00 00	 call	 ?SetReserveEndBuff@ioBuff@@QAEXXZ ; ioBuff::SetReserveEndBuff
$LN6@ProcessBuf:
  000a5	5e		 pop	 esi

; 171  : 	}
; 172  : }

  000a6	5d		 pop	 ebp
  000a7	c2 04 00	 ret	 4
?ProcessBuff@ioStunBuff@@UAEXM@Z ENDP			; ioStunBuff::ProcessBuff
_TEXT	ENDS
PUBLIC	?_DECSTR@@YAXPADH@Z				; _DECSTR
; Function compile flags: /Ogsp
; File d:\lost saga for developer\youtube\tutorial\source\src\lsclient\stringprotect.h
;	COMDAT ?_DECSTR@@YAXPADH@Z
_TEXT	SEGMENT
_s$ = 8							; size = 4
_l$ = 12						; size = 4
?_DECSTR@@YAXPADH@Z PROC				; _DECSTR, COMDAT

; 40   : __forceinline void _DECSTR(char* s, int l){int i=0,l4=(l-1)/4,*p=(int*)s;s[l-1]=0;for(;i<l4;++i)*(p++)^=0xEAEBECED;for(i=l4*4;i<l-1;++i)s[i]^=0xED-i%4;}

  00000	55		 push	 ebp
  00001	8b ec		 mov	 ebp, esp
  00003	8b 4d 0c	 mov	 ecx, DWORD PTR _l$[ebp]
  00006	56		 push	 esi
  00007	8b 75 08	 mov	 esi, DWORD PTR _s$[ebp]
  0000a	57		 push	 edi
  0000b	8d 79 ff	 lea	 edi, DWORD PTR [ecx-1]
  0000e	8b c7		 mov	 eax, edi
  00010	99		 cdq
  00011	83 e2 03	 and	 edx, 3
  00014	03 c2		 add	 eax, edx
  00016	c1 f8 02	 sar	 eax, 2
  00019	8b d6		 mov	 edx, esi
  0001b	c6 44 0e ff 00	 mov	 BYTE PTR [esi+ecx-1], 0
  00020	85 c0		 test	 eax, eax
  00022	7e 0e		 jle	 SHORT $LN4@DECSTR
  00024	8b c8		 mov	 ecx, eax
$LL6@DECSTR:
  00026	81 32 ed ec eb
	ea		 xor	 DWORD PTR [edx], -353637139 ; eaebecedH
  0002c	83 c2 04	 add	 edx, 4
  0002f	49		 dec	 ecx
  00030	75 f4		 jne	 SHORT $LL6@DECSTR
$LN4@DECSTR:
  00032	c1 e0 02	 shl	 eax, 2
  00035	eb 17		 jmp	 SHORT $LN14@DECSTR
$LL3@DECSTR:
  00037	8b c8		 mov	 ecx, eax
  00039	81 e1 03 00 00
	80		 and	 ecx, -2147483645	; 80000003H
  0003f	79 05		 jns	 SHORT $LN13@DECSTR
  00041	49		 dec	 ecx
  00042	83 c9 fc	 or	 ecx, -4			; fffffffcH
  00045	41		 inc	 ecx
$LN13@DECSTR:
  00046	b2 ed		 mov	 dl, -19			; ffffffedH
  00048	2a d1		 sub	 dl, cl
  0004a	30 14 30	 xor	 BYTE PTR [eax+esi], dl
  0004d	40		 inc	 eax
$LN14@DECSTR:
  0004e	3b c7		 cmp	 eax, edi
  00050	7c e5		 jl	 SHORT $LL3@DECSTR
  00052	5f		 pop	 edi
  00053	5e		 pop	 esi
  00054	5d		 pop	 ebp
  00055	c3		 ret	 0
?_DECSTR@@YAXPADH@Z ENDP				; _DECSTR
_TEXT	ENDS
PUBLIC	?GetGroup@ioGameEntity@@QBEPAVioEntityGroup@@XZ	; ioGameEntity::GetGroup
; Function compile flags: /Ogsp
; File d:\lost saga for developer\youtube\tutorial\source\src\lsclient\iogameentity.h
;	COMDAT ?GetGroup@ioGameEntity@@QBEPAVioEntityGroup@@XZ
_TEXT	SEGMENT
?GetGroup@ioGameEntity@@QBEPAVioEntityGroup@@XZ PROC	; ioGameEntity::GetGroup, COMDAT
; _this$ = ecx

; 166  : 	inline ioEntityGroup* GetGroup() const { return m_pGroup; }

  00000	8b 41 04	 mov	 eax, DWORD PTR [ecx+4]
  00003	c3		 ret	 0
?GetGroup@ioGameEntity@@QBEPAVioEntityGroup@@XZ ENDP	; ioGameEntity::GetGroup
_TEXT	ENDS
PUBLIC	?IsBadStateBuff@ioBuff@@QBE_NXZ			; ioBuff::IsBadStateBuff
; Function compile flags: /Ogsp
; File d:\lost saga for developer\youtube\tutorial\source\src\lsclient\iobuff.h
;	COMDAT ?IsBadStateBuff@ioBuff@@QBE_NXZ
_TEXT	SEGMENT
?IsBadStateBuff@ioBuff@@QBE_NXZ PROC			; ioBuff::IsBadStateBuff, COMDAT
; _this$ = ecx

; 432  : 	inline bool IsBadStateBuff() const { return m_bBadStateBuff; }

  00000	8a 81 a3 06 00
	00		 mov	 al, BYTE PTR [ecx+1699]
  00006	c3		 ret	 0
?IsBadStateBuff@ioBuff@@QBE_NXZ ENDP			; ioBuff::IsBadStateBuff
; Function compile flags: /Ogsp
_TEXT	ENDS
;	COMDAT ?IsWaitSelfRemove@ioBuff@@UAE_NXZ
_TEXT	SEGMENT
?IsWaitSelfRemove@ioBuff@@UAE_NXZ PROC			; ioBuff::IsWaitSelfRemove, COMDAT
; _this$ = ecx

; 519  : 	virtual bool IsWaitSelfRemove() { return m_bWaitSelfRemove; }

  00000	8a 81 65 09 00
	00		 mov	 al, BYTE PTR [ecx+2405]
  00006	c3		 ret	 0
?IsWaitSelfRemove@ioBuff@@UAE_NXZ ENDP			; ioBuff::IsWaitSelfRemove
_TEXT	ENDS
PUBLIC	?EncryptValueToPool@?$CEncrypt@K@@AAEXPBD@Z	; CEncrypt<unsigned long>::EncryptValueToPool
EXTRN	?EncryptByte@ccddaabb@@QAEXPBDPADH@Z:PROC	; ccddaabb::EncryptByte
; Function compile flags: /Ogsp
; File d:\lost saga for developer\youtube\tutorial\source\src\lsclient\encryptvalue.h
;	COMDAT ?EncryptValueToPool@?$CEncrypt@K@@AAEXPBD@Z
_TEXT	SEGMENT
_value$ = 8						; size = 4
?EncryptValueToPool@?$CEncrypt@K@@AAEXPBD@Z PROC	; CEncrypt<unsigned long>::EncryptValueToPool, COMDAT
; _this$ = ecx

; 67   : 	{

  00000	55		 push	 ebp
  00001	8b ec		 mov	 ebp, esp

; 68   : 		m_RC5.EncryptByte( value, m_MemPool, max(m_ValueSize, DEFAULT_ENCRYPT) );

  00003	0f b7 41 06	 movzx	 eax, WORD PTR [ecx+6]
  00007	83 f8 04	 cmp	 eax, 4
  0000a	77 03		 ja	 SHORT $LN4@EncryptVal
  0000c	6a 04		 push	 4
  0000e	58		 pop	 eax
$LN4@EncryptVal:
  0000f	50		 push	 eax
  00010	8d 41 1c	 lea	 eax, DWORD PTR [ecx+28]
  00013	50		 push	 eax
  00014	ff 75 08	 push	 DWORD PTR _value$[ebp]
  00017	83 c1 0c	 add	 ecx, 12			; 0000000cH
  0001a	e8 00 00 00 00	 call	 ?EncryptByte@ccddaabb@@QAEXPBDPADH@Z ; ccddaabb::EncryptByte

; 69   : 		
; 70   : 	}

  0001f	5d		 pop	 ebp
  00020	c2 04 00	 ret	 4
?EncryptValueToPool@?$CEncrypt@K@@AAEXPBD@Z ENDP	; CEncrypt<unsigned long>::EncryptValueToPool
_TEXT	ENDS
PUBLIC	?DecryptValueToPool@?$CEncrypt@K@@QAEXPAK@Z	; CEncrypt<unsigned long>::DecryptValueToPool
EXTRN	?DecryptByte@ccddaabb@@QBEXPBDPADH@Z:PROC	; ccddaabb::DecryptByte
; Function compile flags: /Ogsp
;	COMDAT ?DecryptValueToPool@?$CEncrypt@K@@QAEXPAK@Z
_TEXT	SEGMENT
_value$ = 8						; size = 4
?DecryptValueToPool@?$CEncrypt@K@@QAEXPAK@Z PROC	; CEncrypt<unsigned long>::DecryptValueToPool, COMDAT
; _this$ = ecx

; 1256 : 	{

  00000	55		 push	 ebp
  00001	8b ec		 mov	 ebp, esp
  00003	56		 push	 esi

; 1257 : 		m_RC5.DecryptByte( m_MemPool, m_TempMem, 4 );

  00004	8d 71 28	 lea	 esi, DWORD PTR [ecx+40]
  00007	6a 04		 push	 4
  00009	8d 41 1c	 lea	 eax, DWORD PTR [ecx+28]
  0000c	56		 push	 esi
  0000d	50		 push	 eax
  0000e	83 c1 0c	 add	 ecx, 12			; 0000000cH
  00011	e8 00 00 00 00	 call	 ?DecryptByte@ccddaabb@@QBEXPBDPADH@Z ; ccddaabb::DecryptByte

; 1258 : 		*value = *((DWORD*)m_TempMem);

  00016	8b 06		 mov	 eax, DWORD PTR [esi]
  00018	8b 4d 08	 mov	 ecx, DWORD PTR _value$[ebp]
  0001b	89 01		 mov	 DWORD PTR [ecx], eax
  0001d	5e		 pop	 esi

; 1259 : 	}

  0001e	5d		 pop	 ebp
  0001f	c2 04 00	 ret	 4
?DecryptValueToPool@?$CEncrypt@K@@QAEXPAK@Z ENDP	; CEncrypt<unsigned long>::DecryptValueToPool
_TEXT	ENDS
PUBLIC	?EncryptValueToPool@?$CEncrypt@_N@@AAEXPBD@Z	; CEncrypt<bool>::EncryptValueToPool
; Function compile flags: /Ogsp
;	COMDAT ?EncryptValueToPool@?$CEncrypt@_N@@AAEXPBD@Z
_TEXT	SEGMENT
_value$ = 8						; size = 4
?EncryptValueToPool@?$CEncrypt@_N@@AAEXPBD@Z PROC	; CEncrypt<bool>::EncryptValueToPool, COMDAT
; _this$ = ecx

; 67   : 	{

  00000	55		 push	 ebp
  00001	8b ec		 mov	 ebp, esp

; 68   : 		m_RC5.EncryptByte( value, m_MemPool, max(m_ValueSize, DEFAULT_ENCRYPT) );

  00003	0f b7 41 06	 movzx	 eax, WORD PTR [ecx+6]
  00007	83 f8 04	 cmp	 eax, 4
  0000a	77 03		 ja	 SHORT $LN4@EncryptVal@2
  0000c	6a 04		 push	 4
  0000e	58		 pop	 eax
$LN4@EncryptVal@2:
  0000f	50		 push	 eax
  00010	8d 41 1c	 lea	 eax, DWORD PTR [ecx+28]
  00013	50		 push	 eax
  00014	ff 75 08	 push	 DWORD PTR _value$[ebp]
  00017	83 c1 0c	 add	 ecx, 12			; 0000000cH
  0001a	e8 00 00 00 00	 call	 ?EncryptByte@ccddaabb@@QAEXPBDPADH@Z ; ccddaabb::EncryptByte

; 69   : 		
; 70   : 	}

  0001f	5d		 pop	 ebp
  00020	c2 04 00	 ret	 4
?EncryptValueToPool@?$CEncrypt@_N@@AAEXPBD@Z ENDP	; CEncrypt<bool>::EncryptValueToPool
_TEXT	ENDS
PUBLIC	?DecryptValueToPool@?$CEncrypt@_N@@QAEXPA_N@Z	; CEncrypt<bool>::DecryptValueToPool
; Function compile flags: /Ogsp
;	COMDAT ?DecryptValueToPool@?$CEncrypt@_N@@QAEXPA_N@Z
_TEXT	SEGMENT
_value$ = 8						; size = 4
?DecryptValueToPool@?$CEncrypt@_N@@QAEXPA_N@Z PROC	; CEncrypt<bool>::DecryptValueToPool, COMDAT
; _this$ = ecx

; 219  : 	{

  00000	55		 push	 ebp
  00001	8b ec		 mov	 ebp, esp
  00003	56		 push	 esi

; 220  : 		m_RC5.DecryptByte( m_MemPool, m_TempMem, 4 );

  00004	8d 71 28	 lea	 esi, DWORD PTR [ecx+40]
  00007	6a 04		 push	 4
  00009	8d 41 1c	 lea	 eax, DWORD PTR [ecx+28]
  0000c	56		 push	 esi
  0000d	50		 push	 eax
  0000e	83 c1 0c	 add	 ecx, 12			; 0000000cH
  00011	e8 00 00 00 00	 call	 ?DecryptByte@ccddaabb@@QBEXPBDPADH@Z ; ccddaabb::DecryptByte

; 221  : 		*value = *((bool*)m_TempMem);

  00016	8a 06		 mov	 al, BYTE PTR [esi]
  00018	8b 4d 08	 mov	 ecx, DWORD PTR _value$[ebp]
  0001b	88 01		 mov	 BYTE PTR [ecx], al
  0001d	5e		 pop	 esi

; 222  : 	}

  0001e	5d		 pop	 ebp
  0001f	c2 04 00	 ret	 4
?DecryptValueToPool@?$CEncrypt@_N@@QAEXPA_N@Z ENDP	; CEncrypt<bool>::DecryptValueToPool
; Function compile flags: /Ogsp
_TEXT	ENDS
;	COMDAT ??_GioStunBuff@@UAEPAXI@Z
_TEXT	SEGMENT
___flags$ = 8						; size = 4
??_GioStunBuff@@UAEPAXI@Z PROC				; ioStunBuff::`scalar deleting destructor', COMDAT
; _this$ = ecx
  00000	55		 push	 ebp
  00001	8b ec		 mov	 ebp, esp
  00003	56		 push	 esi
  00004	8b f1		 mov	 esi, ecx
  00006	e8 00 00 00 00	 call	 ??1ioStunBuff@@UAE@XZ	; ioStunBuff::~ioStunBuff
  0000b	f6 45 08 01	 test	 BYTE PTR ___flags$[ebp], 1
  0000f	74 07		 je	 SHORT $LN1@scalar
  00011	56		 push	 esi
  00012	e8 00 00 00 00	 call	 ??3@YAXPAX@Z		; operator delete
  00017	59		 pop	 ecx
$LN1@scalar:
  00018	8b c6		 mov	 eax, esi
  0001a	5e		 pop	 esi
  0001b	5d		 pop	 ebp
  0001c	c2 04 00	 ret	 4
??_GioStunBuff@@UAEPAXI@Z ENDP				; ioStunBuff::`scalar deleting destructor'
_TEXT	ENDS
PUBLIC	??G?$CEncrypt@K@@QAEKABK@Z			; CEncrypt<unsigned long>::operator-
; Function compile flags: /Ogsp
;	COMDAT ??G?$CEncrypt@K@@QAEKABK@Z
_TEXT	SEGMENT
_value$ = -4						; size = 4
_inValue$ = 8						; size = 4
??G?$CEncrypt@K@@QAEKABK@Z PROC				; CEncrypt<unsigned long>::operator-, COMDAT
; _this$ = ecx

; 1274 : 	{

  00000	55		 push	 ebp
  00001	8b ec		 mov	 ebp, esp
  00003	51		 push	 ecx

; 1275 : 		
; 1276 : 		type value;
; 1277 : 		DecryptValueToPool(&value);

  00004	8d 45 fc	 lea	 eax, DWORD PTR _value$[ebp]
  00007	50		 push	 eax
  00008	e8 00 00 00 00	 call	 ?DecryptValueToPool@?$CEncrypt@K@@QAEXPAK@Z ; CEncrypt<unsigned long>::DecryptValueToPool

; 1278 : #ifdef _NOTUSE
; 1279 : 		Debug();
; 1280 : #endif
; 1281 : 		return value - inValue;

  0000d	8b 45 fc	 mov	 eax, DWORD PTR _value$[ebp]
  00010	8b 4d 08	 mov	 ecx, DWORD PTR _inValue$[ebp]
  00013	2b 01		 sub	 eax, DWORD PTR [ecx]

; 1282 : 	}

  00015	c9		 leave
  00016	c2 04 00	 ret	 4
??G?$CEncrypt@K@@QAEKABK@Z ENDP				; CEncrypt<unsigned long>::operator-
_TEXT	ENDS
PUBLIC	??H?$CEncrypt@K@@QAEKABK@Z			; CEncrypt<unsigned long>::operator+
; Function compile flags: /Ogsp
;	COMDAT ??H?$CEncrypt@K@@QAEKABK@Z
_TEXT	SEGMENT
_value$ = -4						; size = 4
_inValue$ = 8						; size = 4
??H?$CEncrypt@K@@QAEKABK@Z PROC				; CEncrypt<unsigned long>::operator+, COMDAT
; _this$ = ecx

; 1285 : 	{

  00000	55		 push	 ebp
  00001	8b ec		 mov	 ebp, esp
  00003	51		 push	 ecx

; 1286 : 		type value;
; 1287 : 		DecryptValueToPool(&value);

  00004	8d 45 fc	 lea	 eax, DWORD PTR _value$[ebp]
  00007	50		 push	 eax
  00008	e8 00 00 00 00	 call	 ?DecryptValueToPool@?$CEncrypt@K@@QAEXPAK@Z ; CEncrypt<unsigned long>::DecryptValueToPool

; 1288 : #ifdef _NOTUSE
; 1289 : 		Debug();
; 1290 : #endif
; 1291 : 		return value + inValue;

  0000d	8b 45 08	 mov	 eax, DWORD PTR _inValue$[ebp]
  00010	8b 00		 mov	 eax, DWORD PTR [eax]
  00012	03 45 fc	 add	 eax, DWORD PTR _value$[ebp]

; 1292 : 	}

  00015	c9		 leave
  00016	c2 04 00	 ret	 4
??H?$CEncrypt@K@@QAEKABK@Z ENDP				; CEncrypt<unsigned long>::operator+
_TEXT	ENDS
PUBLIC	??Y?$CEncrypt@K@@QAEAAKABK@Z			; CEncrypt<unsigned long>::operator+=
; Function compile flags: /Ogsp
;	COMDAT ??Y?$CEncrypt@K@@QAEAAKABK@Z
_TEXT	SEGMENT
_value$ = -4						; size = 4
_inValue$ = 8						; size = 4
??Y?$CEncrypt@K@@QAEAAKABK@Z PROC			; CEncrypt<unsigned long>::operator+=, COMDAT
; _this$ = ecx

; 1325 : 	{

  00000	55		 push	 ebp
  00001	8b ec		 mov	 ebp, esp
  00003	51		 push	 ecx
  00004	56		 push	 esi

; 1326 : 		type value;
; 1327 : 		DecryptValueToPool(&value);

  00005	8d 45 fc	 lea	 eax, DWORD PTR _value$[ebp]
  00008	50		 push	 eax
  00009	8b f1		 mov	 esi, ecx
  0000b	e8 00 00 00 00	 call	 ?DecryptValueToPool@?$CEncrypt@K@@QAEXPAK@Z ; CEncrypt<unsigned long>::DecryptValueToPool

; 1328 : 		value += inValue;

  00010	8b 45 08	 mov	 eax, DWORD PTR _inValue$[ebp]
  00013	8b 00		 mov	 eax, DWORD PTR [eax]
  00015	01 45 fc	 add	 DWORD PTR _value$[ebp], eax

; 1329 : 		EncryptValueToPool((char*)&value);

  00018	8d 45 fc	 lea	 eax, DWORD PTR _value$[ebp]
  0001b	50		 push	 eax
  0001c	8b ce		 mov	 ecx, esi
  0001e	e8 00 00 00 00	 call	 ?EncryptValueToPool@?$CEncrypt@K@@AAEXPBD@Z ; CEncrypt<unsigned long>::EncryptValueToPool

; 1330 : #ifdef _NOTUSE
; 1331 : 		m_value += inValue;
; 1332 : 		Debug();
; 1333 : #endif
; 1334 : 		return value;

  00023	8d 45 fc	 lea	 eax, DWORD PTR _value$[ebp]
  00026	5e		 pop	 esi

; 1335 : 	} 

  00027	c9		 leave
  00028	c2 04 00	 ret	 4
??Y?$CEncrypt@K@@QAEAAKABK@Z ENDP			; CEncrypt<unsigned long>::operator+=
_TEXT	ENDS
PUBLIC	??M?$CEncrypt@K@@QAE_NABK@Z			; CEncrypt<unsigned long>::operator<
; Function compile flags: /Ogsp
;	COMDAT ??M?$CEncrypt@K@@QAE_NABK@Z
_TEXT	SEGMENT
_value$ = -4						; size = 4
_inValue$ = 8						; size = 4
??M?$CEncrypt@K@@QAE_NABK@Z PROC			; CEncrypt<unsigned long>::operator<, COMDAT
; _this$ = ecx

; 1401 : 	{

  00000	55		 push	 ebp
  00001	8b ec		 mov	 ebp, esp
  00003	51		 push	 ecx

; 1402 : 		type value;
; 1403 : 		DecryptValueToPool(&value);

  00004	8d 45 fc	 lea	 eax, DWORD PTR _value$[ebp]
  00007	50		 push	 eax
  00008	e8 00 00 00 00	 call	 ?DecryptValueToPool@?$CEncrypt@K@@QAEXPAK@Z ; CEncrypt<unsigned long>::DecryptValueToPool

; 1404 : #ifdef _NOTUSE
; 1405 : 		Debug();
; 1406 : #endif
; 1407 : 		return (value < inValue);

  0000d	8b 45 08	 mov	 eax, DWORD PTR _inValue$[ebp]
  00010	8b 4d fc	 mov	 ecx, DWORD PTR _value$[ebp]
  00013	3b 08		 cmp	 ecx, DWORD PTR [eax]
  00015	1b c0		 sbb	 eax, eax
  00017	f7 d8		 neg	 eax

; 1408 : 	} 

  00019	c9		 leave
  0001a	c2 04 00	 ret	 4
??M?$CEncrypt@K@@QAE_NABK@Z ENDP			; CEncrypt<unsigned long>::operator<
_TEXT	ENDS
PUBLIC	??N?$CEncrypt@K@@QAE_NABK@Z			; CEncrypt<unsigned long>::operator<=
; Function compile flags: /Ogsp
;	COMDAT ??N?$CEncrypt@K@@QAE_NABK@Z
_TEXT	SEGMENT
_value$ = -4						; size = 4
_inValue$ = 8						; size = 4
??N?$CEncrypt@K@@QAE_NABK@Z PROC			; CEncrypt<unsigned long>::operator<=, COMDAT
; _this$ = ecx

; 1431 : 	{

  00000	55		 push	 ebp
  00001	8b ec		 mov	 ebp, esp
  00003	51		 push	 ecx

; 1432 : 		
; 1433 : 		type value;
; 1434 : 		DecryptValueToPool(&value);

  00004	8d 45 fc	 lea	 eax, DWORD PTR _value$[ebp]
  00007	50		 push	 eax
  00008	e8 00 00 00 00	 call	 ?DecryptValueToPool@?$CEncrypt@K@@QAEXPAK@Z ; CEncrypt<unsigned long>::DecryptValueToPool

; 1435 : #ifdef _NOTUSE
; 1436 : 		Debug();
; 1437 : #endif
; 1438 : 		return (value <= inValue);

  0000d	8b 45 08	 mov	 eax, DWORD PTR _inValue$[ebp]
  00010	8b 00		 mov	 eax, DWORD PTR [eax]
  00012	3b 45 fc	 cmp	 eax, DWORD PTR _value$[ebp]
  00015	1b c0		 sbb	 eax, eax
  00017	40		 inc	 eax

; 1439 : 	}		

  00018	c9		 leave
  00019	c2 04 00	 ret	 4
??N?$CEncrypt@K@@QAE_NABK@Z ENDP			; CEncrypt<unsigned long>::operator<=
_TEXT	ENDS
PUBLIC	_this$GSCopy$
PUBLIC	__$ArrayPad$
PUBLIC	??$LoadString_e@$0P@@ioINILoader@@QAEXAAY0P@$$CBDAAY00$$CBDPADH@Z ; ioINILoader::LoadString_e<15>
EXTRN	__imp_?LoadStringA@ioINILoader@@QAEXPBD0PADH@Z:PROC
EXTRN	___security_cookie:DWORD
; Function compile flags: /Ogsp
; File d:\lost saga for developer\youtube\tutorial\source\src\io3dengine\ioiniloader.h
;	COMDAT ??$LoadString_e@$0P@@ioINILoader@@QAEXAAY0P@$$CBDAAY00$$CBDPADH@Z
_TEXT	SEGMENT
_this$GSCopy$ = -28					; size = 4
__k$ = -24						; size = 15
__$ArrayPad$ = -4					; size = 4
_k$ = 8							; size = 4
_d$ = 12						; size = 4
_b$ = 16						; size = 4
_i$ = 20						; size = 4
??$LoadString_e@$0P@@ioINILoader@@QAEXAAY0P@$$CBDAAY00$$CBDPADH@Z PROC ; ioINILoader::LoadString_e<15>, COMDAT
; _this$ = ecx

; 161  : 	{

  00000	55		 push	 ebp
  00001	8b ec		 mov	 ebp, esp
  00003	83 ec 1c	 sub	 esp, 28			; 0000001cH
  00006	a1 00 00 00 00	 mov	 eax, DWORD PTR ___security_cookie
  0000b	33 c5		 xor	 eax, ebp
  0000d	89 45 fc	 mov	 DWORD PTR __$ArrayPad$[ebp], eax
  00010	8b 45 08	 mov	 eax, DWORD PTR _k$[ebp]

; 162  : 		_ENCSTR(k, _k);

  00013	8a 10		 mov	 dl, BYTE PTR [eax]
  00015	56		 push	 esi
  00016	8b 75 0c	 mov	 esi, DWORD PTR _d$[ebp]
  00019	57		 push	 edi
  0001a	8b 7d 10	 mov	 edi, DWORD PTR _b$[ebp]
  0001d	89 4d e4	 mov	 DWORD PTR _this$GSCopy$[ebp], ecx
  00020	84 d2		 test	 dl, dl
  00022	0f 84 75 01 00
	00		 je	 $LN96@LoadString
  00028	80 f2 ed	 xor	 dl, -19			; ffffffedH
  0002b	88 55 e8	 mov	 BYTE PTR __k$[ebp], dl
  0002e	8a 50 01	 mov	 dl, BYTE PTR [eax+1]
  00031	84 d2		 test	 dl, dl
  00033	0f 84 5e 01 00
	00		 je	 $LN95@LoadString
  00039	b1 ec		 mov	 cl, -20			; ffffffecH
  0003b	32 d1		 xor	 dl, cl
  0003d	88 55 e9	 mov	 BYTE PTR __k$[ebp+1], dl
  00040	8a 50 02	 mov	 dl, BYTE PTR [eax+2]
  00043	84 d2		 test	 dl, dl
  00045	0f 84 46 01 00
	00		 je	 $LN94@LoadString
  0004b	80 f2 eb	 xor	 dl, -21			; ffffffebH
  0004e	88 55 ea	 mov	 BYTE PTR __k$[ebp+2], dl
  00051	8a 50 03	 mov	 dl, BYTE PTR [eax+3]
  00054	84 d2		 test	 dl, dl
  00056	0f 84 2f 01 00
	00		 je	 $LN93@LoadString
  0005c	80 f2 ea	 xor	 dl, -22			; ffffffeaH
  0005f	88 55 eb	 mov	 BYTE PTR __k$[ebp+3], dl
  00062	8a 50 04	 mov	 dl, BYTE PTR [eax+4]
  00065	84 d2		 test	 dl, dl
  00067	0f 84 18 01 00
	00		 je	 $LN92@LoadString
  0006d	80 f2 ed	 xor	 dl, -19			; ffffffedH
  00070	88 55 ec	 mov	 BYTE PTR __k$[ebp+4], dl
  00073	8a 50 05	 mov	 dl, BYTE PTR [eax+5]
  00076	84 d2		 test	 dl, dl
  00078	0f 84 02 01 00
	00		 je	 $LN91@LoadString
  0007e	32 d1		 xor	 dl, cl
  00080	88 55 ed	 mov	 BYTE PTR __k$[ebp+5], dl
  00083	8a 50 06	 mov	 dl, BYTE PTR [eax+6]
  00086	84 d2		 test	 dl, dl
  00088	0f 84 ec 00 00
	00		 je	 $LN90@LoadString
  0008e	80 f2 eb	 xor	 dl, -21			; ffffffebH
  00091	88 55 ee	 mov	 BYTE PTR __k$[ebp+6], dl
  00094	8a 50 07	 mov	 dl, BYTE PTR [eax+7]
  00097	84 d2		 test	 dl, dl
  00099	0f 84 d5 00 00
	00		 je	 $LN89@LoadString
  0009f	80 f2 ea	 xor	 dl, -22			; ffffffeaH
  000a2	88 55 ef	 mov	 BYTE PTR __k$[ebp+7], dl
  000a5	8a 50 08	 mov	 dl, BYTE PTR [eax+8]
  000a8	84 d2		 test	 dl, dl
  000aa	0f 84 be 00 00
	00		 je	 $LN88@LoadString
  000b0	80 f2 ed	 xor	 dl, -19			; ffffffedH
  000b3	88 55 f0	 mov	 BYTE PTR __k$[ebp+8], dl
  000b6	8a 50 09	 mov	 dl, BYTE PTR [eax+9]
  000b9	84 d2		 test	 dl, dl
  000bb	0f 84 a8 00 00
	00		 je	 $LN87@LoadString
  000c1	32 d1		 xor	 dl, cl
  000c3	88 55 f1	 mov	 BYTE PTR __k$[ebp+9], dl
  000c6	8a 50 0a	 mov	 dl, BYTE PTR [eax+10]
  000c9	84 d2		 test	 dl, dl
  000cb	0f 84 92 00 00
	00		 je	 $LN86@LoadString
  000d1	80 f2 eb	 xor	 dl, -21			; ffffffebH
  000d4	88 55 f2	 mov	 BYTE PTR __k$[ebp+10], dl
  000d7	8a 50 0b	 mov	 dl, BYTE PTR [eax+11]
  000da	84 d2		 test	 dl, dl
  000dc	74 7f		 je	 SHORT $LN85@LoadString
  000de	80 f2 ea	 xor	 dl, -22			; ffffffeaH
  000e1	88 55 f3	 mov	 BYTE PTR __k$[ebp+11], dl
  000e4	8a 50 0c	 mov	 dl, BYTE PTR [eax+12]
  000e7	84 d2		 test	 dl, dl
  000e9	74 6c		 je	 SHORT $LN84@LoadString
  000eb	80 f2 ed	 xor	 dl, -19			; ffffffedH
  000ee	88 55 f4	 mov	 BYTE PTR __k$[ebp+12], dl
  000f1	8a 50 0d	 mov	 dl, BYTE PTR [eax+13]
  000f4	84 d2		 test	 dl, dl
  000f6	74 5a		 je	 SHORT $LN83@LoadString
  000f8	32 d1		 xor	 dl, cl
  000fa	80 78 0e 00	 cmp	 BYTE PTR [eax+14], 0
  000fe	88 55 f5	 mov	 BYTE PTR __k$[ebp+13], dl
  00101	0f 84 9a 00 00
	00		 je	 $LN111@LoadString
  00107	8a 50 0f	 mov	 dl, BYTE PTR [eax+15]
  0010a	84 d2		 test	 dl, dl
  0010c	74 3e		 je	 SHORT $LN81@LoadString
  0010e	80 f2 ea	 xor	 dl, -22			; ffffffeaH
  00111	88 55 f7	 mov	 BYTE PTR __k$[ebp+15], dl
  00114	8a 50 10	 mov	 dl, BYTE PTR [eax+16]
  00117	84 d2		 test	 dl, dl
  00119	74 2b		 je	 SHORT $LN80@LoadString
  0011b	80 f2 ed	 xor	 dl, -19			; ffffffedH
  0011e	88 55 f8	 mov	 BYTE PTR __k$[ebp+16], dl
  00121	8a 50 11	 mov	 dl, BYTE PTR [eax+17]
  00124	84 d2		 test	 dl, dl
  00126	74 19		 je	 SHORT $LN79@LoadString
  00128	8a 40 12	 mov	 al, BYTE PTR [eax+18]
  0012b	32 d1		 xor	 dl, cl
  0012d	88 55 f9	 mov	 BYTE PTR __k$[ebp+17], dl
  00130	84 c0		 test	 al, al
  00132	74 07		 je	 SHORT $LN78@LoadString
  00134	34 eb		 xor	 al, -21			; ffffffebH
  00136	88 45 fa	 mov	 BYTE PTR __k$[ebp+18], al
  00139	eb 66		 jmp	 SHORT $LN111@LoadString
$LN78@LoadString:
  0013b	c6 45 fa eb	 mov	 BYTE PTR __k$[ebp+18], -21 ; ffffffebH
  0013f	eb 60		 jmp	 SHORT $LN111@LoadString
$LN79@LoadString:
  00141	88 4d f9	 mov	 BYTE PTR __k$[ebp+17], cl
  00144	eb 5b		 jmp	 SHORT $LN111@LoadString
$LN80@LoadString:
  00146	c6 45 f8 ed	 mov	 BYTE PTR __k$[ebp+16], -19 ; ffffffedH
  0014a	eb 55		 jmp	 SHORT $LN111@LoadString
$LN81@LoadString:
  0014c	c6 45 f7 ea	 mov	 BYTE PTR __k$[ebp+15], -22 ; ffffffeaH
  00150	eb 4f		 jmp	 SHORT $LN111@LoadString
$LN83@LoadString:
  00152	88 4d f5	 mov	 BYTE PTR __k$[ebp+13], cl
  00155	eb 4a		 jmp	 SHORT $LN111@LoadString
$LN84@LoadString:
  00157	c6 45 f4 ed	 mov	 BYTE PTR __k$[ebp+12], -19 ; ffffffedH
  0015b	eb 44		 jmp	 SHORT $LN111@LoadString
$LN85@LoadString:
  0015d	c6 45 f3 ea	 mov	 BYTE PTR __k$[ebp+11], -22 ; ffffffeaH
  00161	eb 3e		 jmp	 SHORT $LN111@LoadString
$LN86@LoadString:
  00163	c6 45 f2 eb	 mov	 BYTE PTR __k$[ebp+10], -21 ; ffffffebH
  00167	eb 38		 jmp	 SHORT $LN111@LoadString
$LN87@LoadString:
  00169	88 4d f1	 mov	 BYTE PTR __k$[ebp+9], cl
  0016c	eb 33		 jmp	 SHORT $LN111@LoadString
$LN88@LoadString:
  0016e	c6 45 f0 ed	 mov	 BYTE PTR __k$[ebp+8], -19 ; ffffffedH
  00172	eb 2d		 jmp	 SHORT $LN111@LoadString
$LN89@LoadString:
  00174	c6 45 ef ea	 mov	 BYTE PTR __k$[ebp+7], -22 ; ffffffeaH
  00178	eb 27		 jmp	 SHORT $LN111@LoadString
$LN90@LoadString:
  0017a	c6 45 ee eb	 mov	 BYTE PTR __k$[ebp+6], -21 ; ffffffebH
  0017e	eb 21		 jmp	 SHORT $LN111@LoadString
$LN91@LoadString:
  00180	88 4d ed	 mov	 BYTE PTR __k$[ebp+5], cl
  00183	eb 1c		 jmp	 SHORT $LN111@LoadString
$LN92@LoadString:
  00185	c6 45 ec ed	 mov	 BYTE PTR __k$[ebp+4], -19 ; ffffffedH
  00189	eb 16		 jmp	 SHORT $LN111@LoadString
$LN93@LoadString:
  0018b	c6 45 eb ea	 mov	 BYTE PTR __k$[ebp+3], -22 ; ffffffeaH
  0018f	eb 10		 jmp	 SHORT $LN111@LoadString
$LN94@LoadString:
  00191	c6 45 ea eb	 mov	 BYTE PTR __k$[ebp+2], -21 ; ffffffebH
  00195	eb 0a		 jmp	 SHORT $LN111@LoadString
$LN95@LoadString:
  00197	c6 45 e9 ec	 mov	 BYTE PTR __k$[ebp+1], -20 ; ffffffecH
  0019b	eb 04		 jmp	 SHORT $LN111@LoadString
$LN96@LoadString:
  0019d	c6 45 e8 ed	 mov	 BYTE PTR __k$[ebp], -19	; ffffffedH
$LN111@LoadString:
  001a1	6a 03		 push	 3
  001a3	8d 45 e8	 lea	 eax, DWORD PTR __k$[ebp]
  001a6	c6 45 f6 00	 mov	 BYTE PTR __k$[ebp+14], 0
  001aa	5a		 pop	 edx
$LL104@LoadString:
  001ab	81 30 ed ec eb
	ea		 xor	 DWORD PTR [eax], -353637139 ; eaebecedH
  001b1	83 c0 04	 add	 eax, 4
  001b4	4a		 dec	 edx
  001b5	75 f4		 jne	 SHORT $LL104@LoadString
  001b7	6a 0c		 push	 12			; 0000000cH
  001b9	58		 pop	 eax
$LL101@LoadString:
  001ba	8b c8		 mov	 ecx, eax
  001bc	81 e1 03 00 00
	80		 and	 ecx, -2147483645	; 80000003H
  001c2	79 05		 jns	 SHORT $LN112@LoadString
  001c4	49		 dec	 ecx
  001c5	83 c9 fc	 or	 ecx, -4			; fffffffcH
  001c8	41		 inc	 ecx
$LN112@LoadString:
  001c9	b2 ed		 mov	 dl, -19			; ffffffedH
  001cb	2a d1		 sub	 dl, cl
  001cd	30 54 05 e8	 xor	 BYTE PTR __k$[ebp+eax], dl
  001d1	40		 inc	 eax
  001d2	83 f8 0e	 cmp	 eax, 14			; 0000000eH
  001d5	7c e3		 jl	 SHORT $LL101@LoadString

; 163  : 		LoadString(_k, d, b, i);

  001d7	ff 75 14	 push	 DWORD PTR _i$[ebp]
  001da	8b 4d e4	 mov	 ecx, DWORD PTR _this$GSCopy$[ebp]
  001dd	57		 push	 edi
  001de	56		 push	 esi
  001df	8d 45 e8	 lea	 eax, DWORD PTR __k$[ebp]
  001e2	50		 push	 eax
  001e3	ff 15 00 00 00
	00		 call	 DWORD PTR __imp_?LoadStringA@ioINILoader@@QAEXPBD0PADH@Z

; 164  : 	}

  001e9	8b 4d fc	 mov	 ecx, DWORD PTR __$ArrayPad$[ebp]
  001ec	5f		 pop	 edi
  001ed	33 cd		 xor	 ecx, ebp
  001ef	5e		 pop	 esi
  001f0	e8 00 00 00 00	 call	 @__security_check_cookie@4
  001f5	c9		 leave
  001f6	c2 10 00	 ret	 16			; 00000010H
??$LoadString_e@$0P@@ioINILoader@@QAEXAAY0P@$$CBDAAY00$$CBDPADH@Z ENDP ; ioINILoader::LoadString_e<15>
_TEXT	ENDS
PUBLIC	_this$GSCopy$
PUBLIC	__$ArrayPad$
PUBLIC	??$LoadString_e@$0BF@@ioINILoader@@QAEXAAY0BF@$$CBDAAY00$$CBDPADH@Z ; ioINILoader::LoadString_e<21>
; Function compile flags: /Ogsp
;	COMDAT ??$LoadString_e@$0BF@@ioINILoader@@QAEXAAY0BF@$$CBDAAY00$$CBDPADH@Z
_TEXT	SEGMENT
_this$GSCopy$ = -36					; size = 4
__k$ = -32						; size = 21
__$ArrayPad$ = -4					; size = 4
_k$ = 8							; size = 4
_d$ = 12						; size = 4
_b$ = 16						; size = 4
_i$ = 20						; size = 4
??$LoadString_e@$0BF@@ioINILoader@@QAEXAAY0BF@$$CBDAAY00$$CBDPADH@Z PROC ; ioINILoader::LoadString_e<21>, COMDAT
; _this$ = ecx

; 161  : 	{

  00000	55		 push	 ebp
  00001	8b ec		 mov	 ebp, esp
  00003	83 ec 24	 sub	 esp, 36			; 00000024H
  00006	a1 00 00 00 00	 mov	 eax, DWORD PTR ___security_cookie
  0000b	33 c5		 xor	 eax, ebp
  0000d	89 45 fc	 mov	 DWORD PTR __$ArrayPad$[ebp], eax
  00010	8b 45 08	 mov	 eax, DWORD PTR _k$[ebp]

; 162  : 		_ENCSTR(k, _k);

  00013	8a 10		 mov	 dl, BYTE PTR [eax]
  00015	53		 push	 ebx
  00016	56		 push	 esi
  00017	8b 75 0c	 mov	 esi, DWORD PTR _d$[ebp]
  0001a	57		 push	 edi
  0001b	8b 7d 10	 mov	 edi, DWORD PTR _b$[ebp]
  0001e	89 4d dc	 mov	 DWORD PTR _this$GSCopy$[ebp], ecx
  00021	84 d2		 test	 dl, dl
  00023	0f 84 f7 01 00
	00		 je	 $LN96@LoadString@2
  00029	80 f2 ed	 xor	 dl, -19			; ffffffedH
  0002c	88 55 e0	 mov	 BYTE PTR __k$[ebp], dl
  0002f	8a 50 01	 mov	 dl, BYTE PTR [eax+1]
  00032	84 d2		 test	 dl, dl
  00034	0f 84 e0 01 00
	00		 je	 $LN95@LoadString@2
  0003a	b1 ec		 mov	 cl, -20			; ffffffecH
  0003c	32 d1		 xor	 dl, cl
  0003e	88 55 e1	 mov	 BYTE PTR __k$[ebp+1], dl
  00041	8a 50 02	 mov	 dl, BYTE PTR [eax+2]
  00044	84 d2		 test	 dl, dl
  00046	0f 84 c8 01 00
	00		 je	 $LN94@LoadString@2
  0004c	b3 eb		 mov	 bl, -21			; ffffffebH
  0004e	32 d3		 xor	 dl, bl
  00050	88 55 e2	 mov	 BYTE PTR __k$[ebp+2], dl
  00053	8a 50 03	 mov	 dl, BYTE PTR [eax+3]
  00056	84 d2		 test	 dl, dl
  00058	0f 84 b0 01 00
	00		 je	 $LN93@LoadString@2
  0005e	80 f2 ea	 xor	 dl, -22			; ffffffeaH
  00061	88 55 e3	 mov	 BYTE PTR __k$[ebp+3], dl
  00064	8a 50 04	 mov	 dl, BYTE PTR [eax+4]
  00067	84 d2		 test	 dl, dl
  00069	0f 84 99 01 00
	00		 je	 $LN92@LoadString@2
  0006f	80 f2 ed	 xor	 dl, -19			; ffffffedH
  00072	88 55 e4	 mov	 BYTE PTR __k$[ebp+4], dl
  00075	8a 50 05	 mov	 dl, BYTE PTR [eax+5]
  00078	84 d2		 test	 dl, dl
  0007a	0f 84 83 01 00
	00		 je	 $LN91@LoadString@2
  00080	32 d1		 xor	 dl, cl
  00082	88 55 e5	 mov	 BYTE PTR __k$[ebp+5], dl
  00085	8a 50 06	 mov	 dl, BYTE PTR [eax+6]
  00088	84 d2		 test	 dl, dl
  0008a	0f 84 6e 01 00
	00		 je	 $LN90@LoadString@2
  00090	32 d3		 xor	 dl, bl
  00092	88 55 e6	 mov	 BYTE PTR __k$[ebp+6], dl
  00095	8a 50 07	 mov	 dl, BYTE PTR [eax+7]
  00098	84 d2		 test	 dl, dl
  0009a	0f 84 58 01 00
	00		 je	 $LN89@LoadString@2
  000a0	80 f2 ea	 xor	 dl, -22			; ffffffeaH
  000a3	88 55 e7	 mov	 BYTE PTR __k$[ebp+7], dl
  000a6	8a 50 08	 mov	 dl, BYTE PTR [eax+8]
  000a9	84 d2		 test	 dl, dl
  000ab	0f 84 41 01 00
	00		 je	 $LN88@LoadString@2
  000b1	80 f2 ed	 xor	 dl, -19			; ffffffedH
  000b4	88 55 e8	 mov	 BYTE PTR __k$[ebp+8], dl
  000b7	8a 50 09	 mov	 dl, BYTE PTR [eax+9]
  000ba	84 d2		 test	 dl, dl
  000bc	0f 84 2b 01 00
	00		 je	 $LN87@LoadString@2
  000c2	32 d1		 xor	 dl, cl
  000c4	88 55 e9	 mov	 BYTE PTR __k$[ebp+9], dl
  000c7	8a 50 0a	 mov	 dl, BYTE PTR [eax+10]
  000ca	84 d2		 test	 dl, dl
  000cc	0f 84 16 01 00
	00		 je	 $LN86@LoadString@2
  000d2	32 d3		 xor	 dl, bl
  000d4	88 55 ea	 mov	 BYTE PTR __k$[ebp+10], dl
  000d7	8a 50 0b	 mov	 dl, BYTE PTR [eax+11]
  000da	84 d2		 test	 dl, dl
  000dc	0f 84 00 01 00
	00		 je	 $LN85@LoadString@2
  000e2	80 f2 ea	 xor	 dl, -22			; ffffffeaH
  000e5	88 55 eb	 mov	 BYTE PTR __k$[ebp+11], dl
  000e8	8a 50 0c	 mov	 dl, BYTE PTR [eax+12]
  000eb	84 d2		 test	 dl, dl
  000ed	0f 84 e9 00 00
	00		 je	 $LN84@LoadString@2
  000f3	80 f2 ed	 xor	 dl, -19			; ffffffedH
  000f6	88 55 ec	 mov	 BYTE PTR __k$[ebp+12], dl
  000f9	8a 50 0d	 mov	 dl, BYTE PTR [eax+13]
  000fc	84 d2		 test	 dl, dl
  000fe	0f 84 d3 00 00
	00		 je	 $LN83@LoadString@2
  00104	32 d1		 xor	 dl, cl
  00106	88 55 ed	 mov	 BYTE PTR __k$[ebp+13], dl
  00109	8a 50 0e	 mov	 dl, BYTE PTR [eax+14]
  0010c	84 d2		 test	 dl, dl
  0010e	0f 84 be 00 00
	00		 je	 $LN82@LoadString@2
  00114	32 d3		 xor	 dl, bl
  00116	88 55 ee	 mov	 BYTE PTR __k$[ebp+14], dl
  00119	8a 50 0f	 mov	 dl, BYTE PTR [eax+15]
  0011c	84 d2		 test	 dl, dl
  0011e	0f 84 a8 00 00
	00		 je	 $LN81@LoadString@2
  00124	80 f2 ea	 xor	 dl, -22			; ffffffeaH
  00127	88 55 ef	 mov	 BYTE PTR __k$[ebp+15], dl
  0012a	8a 50 10	 mov	 dl, BYTE PTR [eax+16]
  0012d	84 d2		 test	 dl, dl
  0012f	0f 84 91 00 00
	00		 je	 $LN80@LoadString@2
  00135	80 f2 ed	 xor	 dl, -19			; ffffffedH
  00138	88 55 f0	 mov	 BYTE PTR __k$[ebp+16], dl
  0013b	8a 50 11	 mov	 dl, BYTE PTR [eax+17]
  0013e	84 d2		 test	 dl, dl
  00140	74 7f		 je	 SHORT $LN79@LoadString@2
  00142	32 d1		 xor	 dl, cl
  00144	88 55 f1	 mov	 BYTE PTR __k$[ebp+17], dl
  00147	8a 50 12	 mov	 dl, BYTE PTR [eax+18]
  0014a	84 d2		 test	 dl, dl
  0014c	74 6e		 je	 SHORT $LN78@LoadString@2
  0014e	32 d3		 xor	 dl, bl
  00150	88 55 f2	 mov	 BYTE PTR __k$[ebp+18], dl
  00153	8a 50 13	 mov	 dl, BYTE PTR [eax+19]
  00156	84 d2		 test	 dl, dl
  00158	74 5c		 je	 SHORT $LN77@LoadString@2
  0015a	80 f2 ea	 xor	 dl, -22			; ffffffeaH
  0015d	80 78 14 00	 cmp	 BYTE PTR [eax+20], 0
  00161	88 55 f3	 mov	 BYTE PTR __k$[ebp+19], dl
  00164	0f 84 ba 00 00
	00		 je	 $LN111@LoadString@2
  0016a	8a 50 15	 mov	 dl, BYTE PTR [eax+21]
  0016d	84 d2		 test	 dl, dl
  0016f	74 40		 je	 SHORT $LN75@LoadString@2
  00171	32 d1		 xor	 dl, cl
  00173	88 55 f5	 mov	 BYTE PTR __k$[ebp+21], dl
  00176	8a 50 16	 mov	 dl, BYTE PTR [eax+22]
  00179	84 d2		 test	 dl, dl
  0017b	74 2f		 je	 SHORT $LN74@LoadString@2
  0017d	32 d3		 xor	 dl, bl
  0017f	88 55 f6	 mov	 BYTE PTR __k$[ebp+22], dl
  00182	8a 50 17	 mov	 dl, BYTE PTR [eax+23]
  00185	84 d2		 test	 dl, dl
  00187	74 1d		 je	 SHORT $LN73@LoadString@2
  00189	8a 40 18	 mov	 al, BYTE PTR [eax+24]
  0018c	80 f2 ea	 xor	 dl, -22			; ffffffeaH
  0018f	88 55 f7	 mov	 BYTE PTR __k$[ebp+23], dl
  00192	84 c0		 test	 al, al
  00194	74 0a		 je	 SHORT $LN72@LoadString@2
  00196	34 ed		 xor	 al, -19			; ffffffedH
  00198	88 45 f8	 mov	 BYTE PTR __k$[ebp+24], al
  0019b	e9 84 00 00 00	 jmp	 $LN111@LoadString@2
$LN72@LoadString@2:
  001a0	c6 45 f8 ed	 mov	 BYTE PTR __k$[ebp+24], -19 ; ffffffedH
  001a4	eb 7e		 jmp	 SHORT $LN111@LoadString@2
$LN73@LoadString@2:
  001a6	c6 45 f7 ea	 mov	 BYTE PTR __k$[ebp+23], -22 ; ffffffeaH
  001aa	eb 78		 jmp	 SHORT $LN111@LoadString@2
$LN74@LoadString@2:
  001ac	88 5d f6	 mov	 BYTE PTR __k$[ebp+22], bl
  001af	eb 73		 jmp	 SHORT $LN111@LoadString@2
$LN75@LoadString@2:
  001b1	88 4d f5	 mov	 BYTE PTR __k$[ebp+21], cl
  001b4	eb 6e		 jmp	 SHORT $LN111@LoadString@2
$LN77@LoadString@2:
  001b6	c6 45 f3 ea	 mov	 BYTE PTR __k$[ebp+19], -22 ; ffffffeaH
  001ba	eb 68		 jmp	 SHORT $LN111@LoadString@2
$LN78@LoadString@2:
  001bc	88 5d f2	 mov	 BYTE PTR __k$[ebp+18], bl
  001bf	eb 63		 jmp	 SHORT $LN111@LoadString@2
$LN79@LoadString@2:
  001c1	88 4d f1	 mov	 BYTE PTR __k$[ebp+17], cl
  001c4	eb 5e		 jmp	 SHORT $LN111@LoadString@2
$LN80@LoadString@2:
  001c6	c6 45 f0 ed	 mov	 BYTE PTR __k$[ebp+16], -19 ; ffffffedH
  001ca	eb 58		 jmp	 SHORT $LN111@LoadString@2
$LN81@LoadString@2:
  001cc	c6 45 ef ea	 mov	 BYTE PTR __k$[ebp+15], -22 ; ffffffeaH
  001d0	eb 52		 jmp	 SHORT $LN111@LoadString@2
$LN82@LoadString@2:
  001d2	88 5d ee	 mov	 BYTE PTR __k$[ebp+14], bl
  001d5	eb 4d		 jmp	 SHORT $LN111@LoadString@2
$LN83@LoadString@2:
  001d7	88 4d ed	 mov	 BYTE PTR __k$[ebp+13], cl
  001da	eb 48		 jmp	 SHORT $LN111@LoadString@2
$LN84@LoadString@2:
  001dc	c6 45 ec ed	 mov	 BYTE PTR __k$[ebp+12], -19 ; ffffffedH
  001e0	eb 42		 jmp	 SHORT $LN111@LoadString@2
$LN85@LoadString@2:
  001e2	c6 45 eb ea	 mov	 BYTE PTR __k$[ebp+11], -22 ; ffffffeaH
  001e6	eb 3c		 jmp	 SHORT $LN111@LoadString@2
$LN86@LoadString@2:
  001e8	88 5d ea	 mov	 BYTE PTR __k$[ebp+10], bl
  001eb	eb 37		 jmp	 SHORT $LN111@LoadString@2
$LN87@LoadString@2:
  001ed	88 4d e9	 mov	 BYTE PTR __k$[ebp+9], cl
  001f0	eb 32		 jmp	 SHORT $LN111@LoadString@2
$LN88@LoadString@2:
  001f2	c6 45 e8 ed	 mov	 BYTE PTR __k$[ebp+8], -19 ; ffffffedH
  001f6	eb 2c		 jmp	 SHORT $LN111@LoadString@2
$LN89@LoadString@2:
  001f8	c6 45 e7 ea	 mov	 BYTE PTR __k$[ebp+7], -22 ; ffffffeaH
  001fc	eb 26		 jmp	 SHORT $LN111@LoadString@2
$LN90@LoadString@2:
  001fe	88 5d e6	 mov	 BYTE PTR __k$[ebp+6], bl
  00201	eb 21		 jmp	 SHORT $LN111@LoadString@2
$LN91@LoadString@2:
  00203	88 4d e5	 mov	 BYTE PTR __k$[ebp+5], cl
  00206	eb 1c		 jmp	 SHORT $LN111@LoadString@2
$LN92@LoadString@2:
  00208	c6 45 e4 ed	 mov	 BYTE PTR __k$[ebp+4], -19 ; ffffffedH
  0020c	eb 16		 jmp	 SHORT $LN111@LoadString@2
$LN93@LoadString@2:
  0020e	c6 45 e3 ea	 mov	 BYTE PTR __k$[ebp+3], -22 ; ffffffeaH
  00212	eb 10		 jmp	 SHORT $LN111@LoadString@2
$LN94@LoadString@2:
  00214	c6 45 e2 eb	 mov	 BYTE PTR __k$[ebp+2], -21 ; ffffffebH
  00218	eb 0a		 jmp	 SHORT $LN111@LoadString@2
$LN95@LoadString@2:
  0021a	c6 45 e1 ec	 mov	 BYTE PTR __k$[ebp+1], -20 ; ffffffecH
  0021e	eb 04		 jmp	 SHORT $LN111@LoadString@2
$LN96@LoadString@2:
  00220	c6 45 e0 ed	 mov	 BYTE PTR __k$[ebp], -19	; ffffffedH
$LN111@LoadString@2:
  00224	6a 05		 push	 5
  00226	8d 45 e0	 lea	 eax, DWORD PTR __k$[ebp]
  00229	c6 45 f4 00	 mov	 BYTE PTR __k$[ebp+20], 0
  0022d	5a		 pop	 edx
$LL104@LoadString@2:
  0022e	81 30 ed ec eb
	ea		 xor	 DWORD PTR [eax], -353637139 ; eaebecedH
  00234	83 c0 04	 add	 eax, 4
  00237	4a		 dec	 edx
  00238	75 f4		 jne	 SHORT $LL104@LoadString@2

; 163  : 		LoadString(_k, d, b, i);

  0023a	ff 75 14	 push	 DWORD PTR _i$[ebp]
  0023d	8b 4d dc	 mov	 ecx, DWORD PTR _this$GSCopy$[ebp]
  00240	57		 push	 edi
  00241	56		 push	 esi
  00242	8d 45 e0	 lea	 eax, DWORD PTR __k$[ebp]
  00245	50		 push	 eax
  00246	ff 15 00 00 00
	00		 call	 DWORD PTR __imp_?LoadStringA@ioINILoader@@QAEXPBD0PADH@Z

; 164  : 	}

  0024c	8b 4d fc	 mov	 ecx, DWORD PTR __$ArrayPad$[ebp]
  0024f	5f		 pop	 edi
  00250	5e		 pop	 esi
  00251	33 cd		 xor	 ecx, ebp
  00253	5b		 pop	 ebx
  00254	e8 00 00 00 00	 call	 @__security_check_cookie@4
  00259	c9		 leave
  0025a	c2 10 00	 ret	 16			; 00000010H
??$LoadString_e@$0BF@@ioINILoader@@QAEXAAY0BF@$$CBDAAY00$$CBDPADH@Z ENDP ; ioINILoader::LoadString_e<21>
_TEXT	ENDS
PUBLIC	_this$GSCopy$
PUBLIC	__$ArrayPad$
PUBLIC	??$LoadString_e@$0CB@@ioINILoader@@QAEXAAY0CB@$$CBDAAY00$$CBDPADH@Z ; ioINILoader::LoadString_e<33>
; Function compile flags: /Ogsp
;	COMDAT ??$LoadString_e@$0CB@@ioINILoader@@QAEXAAY0CB@$$CBDAAY00$$CBDPADH@Z
_TEXT	SEGMENT
_this$GSCopy$ = -48					; size = 4
__k$ = -44						; size = 33
__$ArrayPad$ = -4					; size = 4
_k$ = 8							; size = 4
_d$ = 12						; size = 4
_b$ = 16						; size = 4
_i$ = 20						; size = 4
??$LoadString_e@$0CB@@ioINILoader@@QAEXAAY0CB@$$CBDAAY00$$CBDPADH@Z PROC ; ioINILoader::LoadString_e<33>, COMDAT
; _this$ = ecx

; 161  : 	{

  00000	55		 push	 ebp
  00001	8b ec		 mov	 ebp, esp
  00003	83 ec 30	 sub	 esp, 48			; 00000030H
  00006	a1 00 00 00 00	 mov	 eax, DWORD PTR ___security_cookie
  0000b	33 c5		 xor	 eax, ebp
  0000d	89 45 fc	 mov	 DWORD PTR __$ArrayPad$[ebp], eax
  00010	8b 45 08	 mov	 eax, DWORD PTR _k$[ebp]

; 162  : 		_ENCSTR(k, _k);

  00013	8a 10		 mov	 dl, BYTE PTR [eax]
  00015	53		 push	 ebx
  00016	56		 push	 esi
  00017	8b 75 0c	 mov	 esi, DWORD PTR _d$[ebp]
  0001a	57		 push	 edi
  0001b	8b 7d 10	 mov	 edi, DWORD PTR _b$[ebp]
  0001e	89 4d d0	 mov	 DWORD PTR _this$GSCopy$[ebp], ecx
  00021	84 d2		 test	 dl, dl
  00023	0f 84 27 03 00
	00		 je	 $LN96@LoadString@3
  00029	80 f2 ed	 xor	 dl, -19			; ffffffedH
  0002c	88 55 d4	 mov	 BYTE PTR __k$[ebp], dl
  0002f	8a 50 01	 mov	 dl, BYTE PTR [eax+1]
  00032	84 d2		 test	 dl, dl
  00034	0f 84 10 03 00
	00		 je	 $LN95@LoadString@3
  0003a	b1 ec		 mov	 cl, -20			; ffffffecH
  0003c	32 d1		 xor	 dl, cl
  0003e	88 55 d5	 mov	 BYTE PTR __k$[ebp+1], dl
  00041	8a 50 02	 mov	 dl, BYTE PTR [eax+2]
  00044	84 d2		 test	 dl, dl
  00046	0f 84 f8 02 00
	00		 je	 $LN94@LoadString@3
  0004c	b3 eb		 mov	 bl, -21			; ffffffebH
  0004e	32 d3		 xor	 dl, bl
  00050	88 55 d6	 mov	 BYTE PTR __k$[ebp+2], dl
  00053	8a 50 03	 mov	 dl, BYTE PTR [eax+3]
  00056	84 d2		 test	 dl, dl
  00058	0f 84 e0 02 00
	00		 je	 $LN93@LoadString@3
  0005e	80 f2 ea	 xor	 dl, -22			; ffffffeaH
  00061	88 55 d7	 mov	 BYTE PTR __k$[ebp+3], dl
  00064	8a 50 04	 mov	 dl, BYTE PTR [eax+4]
  00067	84 d2		 test	 dl, dl
  00069	0f 84 c9 02 00
	00		 je	 $LN92@LoadString@3
  0006f	80 f2 ed	 xor	 dl, -19			; ffffffedH
  00072	88 55 d8	 mov	 BYTE PTR __k$[ebp+4], dl
  00075	8a 50 05	 mov	 dl, BYTE PTR [eax+5]
  00078	84 d2		 test	 dl, dl
  0007a	0f 84 b3 02 00
	00		 je	 $LN91@LoadString@3
  00080	32 d1		 xor	 dl, cl
  00082	88 55 d9	 mov	 BYTE PTR __k$[ebp+5], dl
  00085	8a 50 06	 mov	 dl, BYTE PTR [eax+6]
  00088	84 d2		 test	 dl, dl
  0008a	0f 84 9e 02 00
	00		 je	 $LN90@LoadString@3
  00090	32 d3		 xor	 dl, bl
  00092	88 55 da	 mov	 BYTE PTR __k$[ebp+6], dl
  00095	8a 50 07	 mov	 dl, BYTE PTR [eax+7]
  00098	84 d2		 test	 dl, dl
  0009a	0f 84 88 02 00
	00		 je	 $LN89@LoadString@3
  000a0	80 f2 ea	 xor	 dl, -22			; ffffffeaH
  000a3	88 55 db	 mov	 BYTE PTR __k$[ebp+7], dl
  000a6	8a 50 08	 mov	 dl, BYTE PTR [eax+8]
  000a9	84 d2		 test	 dl, dl
  000ab	0f 84 71 02 00
	00		 je	 $LN88@LoadString@3
  000b1	80 f2 ed	 xor	 dl, -19			; ffffffedH
  000b4	88 55 dc	 mov	 BYTE PTR __k$[ebp+8], dl
  000b7	8a 50 09	 mov	 dl, BYTE PTR [eax+9]
  000ba	84 d2		 test	 dl, dl
  000bc	0f 84 5b 02 00
	00		 je	 $LN87@LoadString@3
  000c2	32 d1		 xor	 dl, cl
  000c4	88 55 dd	 mov	 BYTE PTR __k$[ebp+9], dl
  000c7	8a 50 0a	 mov	 dl, BYTE PTR [eax+10]
  000ca	84 d2		 test	 dl, dl
  000cc	0f 84 46 02 00
	00		 je	 $LN86@LoadString@3
  000d2	32 d3		 xor	 dl, bl
  000d4	88 55 de	 mov	 BYTE PTR __k$[ebp+10], dl
  000d7	8a 50 0b	 mov	 dl, BYTE PTR [eax+11]
  000da	84 d2		 test	 dl, dl
  000dc	0f 84 30 02 00
	00		 je	 $LN85@LoadString@3
  000e2	80 f2 ea	 xor	 dl, -22			; ffffffeaH
  000e5	88 55 df	 mov	 BYTE PTR __k$[ebp+11], dl
  000e8	8a 50 0c	 mov	 dl, BYTE PTR [eax+12]
  000eb	84 d2		 test	 dl, dl
  000ed	0f 84 19 02 00
	00		 je	 $LN84@LoadString@3
  000f3	80 f2 ed	 xor	 dl, -19			; ffffffedH
  000f6	88 55 e0	 mov	 BYTE PTR __k$[ebp+12], dl
  000f9	8a 50 0d	 mov	 dl, BYTE PTR [eax+13]
  000fc	84 d2		 test	 dl, dl
  000fe	0f 84 03 02 00
	00		 je	 $LN83@LoadString@3
  00104	32 d1		 xor	 dl, cl
  00106	88 55 e1	 mov	 BYTE PTR __k$[ebp+13], dl
  00109	8a 50 0e	 mov	 dl, BYTE PTR [eax+14]
  0010c	84 d2		 test	 dl, dl
  0010e	0f 84 ee 01 00
	00		 je	 $LN82@LoadString@3
  00114	32 d3		 xor	 dl, bl
  00116	88 55 e2	 mov	 BYTE PTR __k$[ebp+14], dl
  00119	8a 50 0f	 mov	 dl, BYTE PTR [eax+15]
  0011c	84 d2		 test	 dl, dl
  0011e	0f 84 d8 01 00
	00		 je	 $LN81@LoadString@3
  00124	80 f2 ea	 xor	 dl, -22			; ffffffeaH
  00127	88 55 e3	 mov	 BYTE PTR __k$[ebp+15], dl
  0012a	8a 50 10	 mov	 dl, BYTE PTR [eax+16]
  0012d	84 d2		 test	 dl, dl
  0012f	0f 84 c1 01 00
	00		 je	 $LN80@LoadString@3
  00135	80 f2 ed	 xor	 dl, -19			; ffffffedH
  00138	88 55 e4	 mov	 BYTE PTR __k$[ebp+16], dl
  0013b	8a 50 11	 mov	 dl, BYTE PTR [eax+17]
  0013e	84 d2		 test	 dl, dl
  00140	0f 84 ab 01 00
	00		 je	 $LN79@LoadString@3
  00146	32 d1		 xor	 dl, cl
  00148	88 55 e5	 mov	 BYTE PTR __k$[ebp+17], dl
  0014b	8a 50 12	 mov	 dl, BYTE PTR [eax+18]
  0014e	84 d2		 test	 dl, dl
  00150	0f 84 96 01 00
	00		 je	 $LN78@LoadString@3
  00156	32 d3		 xor	 dl, bl
  00158	88 55 e6	 mov	 BYTE PTR __k$[ebp+18], dl
  0015b	8a 50 13	 mov	 dl, BYTE PTR [eax+19]
  0015e	84 d2		 test	 dl, dl
  00160	0f 84 80 01 00
	00		 je	 $LN77@LoadString@3
  00166	80 f2 ea	 xor	 dl, -22			; ffffffeaH
  00169	88 55 e7	 mov	 BYTE PTR __k$[ebp+19], dl
  0016c	8a 50 14	 mov	 dl, BYTE PTR [eax+20]
  0016f	84 d2		 test	 dl, dl
  00171	0f 84 69 01 00
	00		 je	 $LN76@LoadString@3
  00177	80 f2 ed	 xor	 dl, -19			; ffffffedH
  0017a	88 55 e8	 mov	 BYTE PTR __k$[ebp+20], dl
  0017d	8a 50 15	 mov	 dl, BYTE PTR [eax+21]
  00180	84 d2		 test	 dl, dl
  00182	0f 84 53 01 00
	00		 je	 $LN75@LoadString@3
  00188	32 d1		 xor	 dl, cl
  0018a	88 55 e9	 mov	 BYTE PTR __k$[ebp+21], dl
  0018d	8a 50 16	 mov	 dl, BYTE PTR [eax+22]
  00190	84 d2		 test	 dl, dl
  00192	0f 84 3e 01 00
	00		 je	 $LN74@LoadString@3
  00198	32 d3		 xor	 dl, bl
  0019a	88 55 ea	 mov	 BYTE PTR __k$[ebp+22], dl
  0019d	8a 50 17	 mov	 dl, BYTE PTR [eax+23]
  001a0	84 d2		 test	 dl, dl
  001a2	0f 84 28 01 00
	00		 je	 $LN73@LoadString@3
  001a8	80 f2 ea	 xor	 dl, -22			; ffffffeaH
  001ab	88 55 eb	 mov	 BYTE PTR __k$[ebp+23], dl
  001ae	8a 50 18	 mov	 dl, BYTE PTR [eax+24]
  001b1	84 d2		 test	 dl, dl
  001b3	0f 84 0e 01 00
	00		 je	 $LN72@LoadString@3
  001b9	80 f2 ed	 xor	 dl, -19			; ffffffedH
  001bc	88 55 ec	 mov	 BYTE PTR __k$[ebp+24], dl
  001bf	8a 50 19	 mov	 dl, BYTE PTR [eax+25]
  001c2	84 d2		 test	 dl, dl
  001c4	0f 84 f5 00 00
	00		 je	 $LN71@LoadString@3
  001ca	32 d1		 xor	 dl, cl
  001cc	88 55 ed	 mov	 BYTE PTR __k$[ebp+25], dl
  001cf	8a 50 1a	 mov	 dl, BYTE PTR [eax+26]
  001d2	84 d2		 test	 dl, dl
  001d4	0f 84 dd 00 00
	00		 je	 $LN70@LoadString@3
  001da	32 d3		 xor	 dl, bl
  001dc	88 55 ee	 mov	 BYTE PTR __k$[ebp+26], dl
  001df	8a 50 1b	 mov	 dl, BYTE PTR [eax+27]
  001e2	84 d2		 test	 dl, dl
  001e4	0f 84 c4 00 00
	00		 je	 $LN69@LoadString@3
  001ea	80 f2 ea	 xor	 dl, -22			; ffffffeaH
  001ed	88 55 ef	 mov	 BYTE PTR __k$[ebp+27], dl
  001f0	8a 50 1c	 mov	 dl, BYTE PTR [eax+28]
  001f3	84 d2		 test	 dl, dl
  001f5	0f 84 aa 00 00
	00		 je	 $LN68@LoadString@3
  001fb	80 f2 ed	 xor	 dl, -19			; ffffffedH
  001fe	88 55 f0	 mov	 BYTE PTR __k$[ebp+28], dl
  00201	8a 50 1d	 mov	 dl, BYTE PTR [eax+29]
  00204	84 d2		 test	 dl, dl
  00206	0f 84 91 00 00
	00		 je	 $LN67@LoadString@3
  0020c	32 d1		 xor	 dl, cl
  0020e	88 55 f1	 mov	 BYTE PTR __k$[ebp+29], dl
  00211	8a 50 1e	 mov	 dl, BYTE PTR [eax+30]
  00214	84 d2		 test	 dl, dl
  00216	74 7d		 je	 SHORT $LN66@LoadString@3
  00218	32 d3		 xor	 dl, bl
  0021a	88 55 f2	 mov	 BYTE PTR __k$[ebp+30], dl
  0021d	8a 50 1f	 mov	 dl, BYTE PTR [eax+31]
  00220	84 d2		 test	 dl, dl
  00222	74 68		 je	 SHORT $LN65@LoadString@3
  00224	80 f2 ea	 xor	 dl, -22			; ffffffeaH
  00227	80 78 20 00	 cmp	 BYTE PTR [eax+32], 0
  0022b	88 55 f3	 mov	 BYTE PTR __k$[ebp+31], dl
  0022e	0f 84 20 01 00
	00		 je	 $LN111@LoadString@3
  00234	8a 50 21	 mov	 dl, BYTE PTR [eax+33]
  00237	84 d2		 test	 dl, dl
  00239	74 49		 je	 SHORT $LN63@LoadString@3
  0023b	32 d1		 xor	 dl, cl
  0023d	88 55 f5	 mov	 BYTE PTR __k$[ebp+33], dl
  00240	8a 50 22	 mov	 dl, BYTE PTR [eax+34]
  00243	84 d2		 test	 dl, dl
  00245	74 35		 je	 SHORT $LN62@LoadString@3
  00247	32 d3		 xor	 dl, bl
  00249	88 55 f6	 mov	 BYTE PTR __k$[ebp+34], dl
  0024c	8a 50 23	 mov	 dl, BYTE PTR [eax+35]
  0024f	84 d2		 test	 dl, dl
  00251	74 20		 je	 SHORT $LN61@LoadString@3
  00253	8a 40 24	 mov	 al, BYTE PTR [eax+36]
  00256	80 f2 ea	 xor	 dl, -22			; ffffffeaH
  00259	88 55 f7	 mov	 BYTE PTR __k$[ebp+35], dl
  0025c	84 c0		 test	 al, al
  0025e	74 0a		 je	 SHORT $LN60@LoadString@3
  00260	34 ed		 xor	 al, -19			; ffffffedH
  00262	88 45 f8	 mov	 BYTE PTR __k$[ebp+36], al
  00265	e9 ea 00 00 00	 jmp	 $LN111@LoadString@3
$LN60@LoadString@3:
  0026a	c6 45 f8 ed	 mov	 BYTE PTR __k$[ebp+36], -19 ; ffffffedH
  0026e	e9 e1 00 00 00	 jmp	 $LN111@LoadString@3
$LN61@LoadString@3:
  00273	c6 45 f7 ea	 mov	 BYTE PTR __k$[ebp+35], -22 ; ffffffeaH
  00277	e9 d8 00 00 00	 jmp	 $LN111@LoadString@3
$LN62@LoadString@3:
  0027c	88 5d f6	 mov	 BYTE PTR __k$[ebp+34], bl
  0027f	e9 d0 00 00 00	 jmp	 $LN111@LoadString@3
$LN63@LoadString@3:
  00284	88 4d f5	 mov	 BYTE PTR __k$[ebp+33], cl
  00287	e9 c8 00 00 00	 jmp	 $LN111@LoadString@3
$LN65@LoadString@3:
  0028c	c6 45 f3 ea	 mov	 BYTE PTR __k$[ebp+31], -22 ; ffffffeaH
  00290	e9 bf 00 00 00	 jmp	 $LN111@LoadString@3
$LN66@LoadString@3:
  00295	88 5d f2	 mov	 BYTE PTR __k$[ebp+30], bl
  00298	e9 b7 00 00 00	 jmp	 $LN111@LoadString@3
$LN67@LoadString@3:
  0029d	88 4d f1	 mov	 BYTE PTR __k$[ebp+29], cl
  002a0	e9 af 00 00 00	 jmp	 $LN111@LoadString@3
$LN68@LoadString@3:
  002a5	c6 45 f0 ed	 mov	 BYTE PTR __k$[ebp+28], -19 ; ffffffedH
  002a9	e9 a6 00 00 00	 jmp	 $LN111@LoadString@3
$LN69@LoadString@3:
  002ae	c6 45 ef ea	 mov	 BYTE PTR __k$[ebp+27], -22 ; ffffffeaH
  002b2	e9 9d 00 00 00	 jmp	 $LN111@LoadString@3
$LN70@LoadString@3:
  002b7	88 5d ee	 mov	 BYTE PTR __k$[ebp+26], bl
  002ba	e9 95 00 00 00	 jmp	 $LN111@LoadString@3
$LN71@LoadString@3:
  002bf	88 4d ed	 mov	 BYTE PTR __k$[ebp+25], cl
  002c2	e9 8d 00 00 00	 jmp	 $LN111@LoadString@3
$LN72@LoadString@3:
  002c7	c6 45 ec ed	 mov	 BYTE PTR __k$[ebp+24], -19 ; ffffffedH
  002cb	e9 84 00 00 00	 jmp	 $LN111@LoadString@3
$LN73@LoadString@3:
  002d0	c6 45 eb ea	 mov	 BYTE PTR __k$[ebp+23], -22 ; ffffffeaH
  002d4	eb 7e		 jmp	 SHORT $LN111@LoadString@3
$LN74@LoadString@3:
  002d6	88 5d ea	 mov	 BYTE PTR __k$[ebp+22], bl
  002d9	eb 79		 jmp	 SHORT $LN111@LoadString@3
$LN75@LoadString@3:
  002db	88 4d e9	 mov	 BYTE PTR __k$[ebp+21], cl
  002de	eb 74		 jmp	 SHORT $LN111@LoadString@3
$LN76@LoadString@3:
  002e0	c6 45 e8 ed	 mov	 BYTE PTR __k$[ebp+20], -19 ; ffffffedH
  002e4	eb 6e		 jmp	 SHORT $LN111@LoadString@3
$LN77@LoadString@3:
  002e6	c6 45 e7 ea	 mov	 BYTE PTR __k$[ebp+19], -22 ; ffffffeaH
  002ea	eb 68		 jmp	 SHORT $LN111@LoadString@3
$LN78@LoadString@3:
  002ec	88 5d e6	 mov	 BYTE PTR __k$[ebp+18], bl
  002ef	eb 63		 jmp	 SHORT $LN111@LoadString@3
$LN79@LoadString@3:
  002f1	88 4d e5	 mov	 BYTE PTR __k$[ebp+17], cl
  002f4	eb 5e		 jmp	 SHORT $LN111@LoadString@3
$LN80@LoadString@3:
  002f6	c6 45 e4 ed	 mov	 BYTE PTR __k$[ebp+16], -19 ; ffffffedH
  002fa	eb 58		 jmp	 SHORT $LN111@LoadString@3
$LN81@LoadString@3:
  002fc	c6 45 e3 ea	 mov	 BYTE PTR __k$[ebp+15], -22 ; ffffffeaH
  00300	eb 52		 jmp	 SHORT $LN111@LoadString@3
$LN82@LoadString@3:
  00302	88 5d e2	 mov	 BYTE PTR __k$[ebp+14], bl
  00305	eb 4d		 jmp	 SHORT $LN111@LoadString@3
$LN83@LoadString@3:
  00307	88 4d e1	 mov	 BYTE PTR __k$[ebp+13], cl
  0030a	eb 48		 jmp	 SHORT $LN111@LoadString@3
$LN84@LoadString@3:
  0030c	c6 45 e0 ed	 mov	 BYTE PTR __k$[ebp+12], -19 ; ffffffedH
  00310	eb 42		 jmp	 SHORT $LN111@LoadString@3
$LN85@LoadString@3:
  00312	c6 45 df ea	 mov	 BYTE PTR __k$[ebp+11], -22 ; ffffffeaH
  00316	eb 3c		 jmp	 SHORT $LN111@LoadString@3
$LN86@LoadString@3:
  00318	88 5d de	 mov	 BYTE PTR __k$[ebp+10], bl
  0031b	eb 37		 jmp	 SHORT $LN111@LoadString@3
$LN87@LoadString@3:
  0031d	88 4d dd	 mov	 BYTE PTR __k$[ebp+9], cl
  00320	eb 32		 jmp	 SHORT $LN111@LoadString@3
$LN88@LoadString@3:
  00322	c6 45 dc ed	 mov	 BYTE PTR __k$[ebp+8], -19 ; ffffffedH
  00326	eb 2c		 jmp	 SHORT $LN111@LoadString@3
$LN89@LoadString@3:
  00328	c6 45 db ea	 mov	 BYTE PTR __k$[ebp+7], -22 ; ffffffeaH
  0032c	eb 26		 jmp	 SHORT $LN111@LoadString@3
$LN90@LoadString@3:
  0032e	88 5d da	 mov	 BYTE PTR __k$[ebp+6], bl
  00331	eb 21		 jmp	 SHORT $LN111@LoadString@3
$LN91@LoadString@3:
  00333	88 4d d9	 mov	 BYTE PTR __k$[ebp+5], cl
  00336	eb 1c		 jmp	 SHORT $LN111@LoadString@3
$LN92@LoadString@3:
  00338	c6 45 d8 ed	 mov	 BYTE PTR __k$[ebp+4], -19 ; ffffffedH
  0033c	eb 16		 jmp	 SHORT $LN111@LoadString@3
$LN93@LoadString@3:
  0033e	c6 45 d7 ea	 mov	 BYTE PTR __k$[ebp+3], -22 ; ffffffeaH
  00342	eb 10		 jmp	 SHORT $LN111@LoadString@3
$LN94@LoadString@3:
  00344	c6 45 d6 eb	 mov	 BYTE PTR __k$[ebp+2], -21 ; ffffffebH
  00348	eb 0a		 jmp	 SHORT $LN111@LoadString@3
$LN95@LoadString@3:
  0034a	c6 45 d5 ec	 mov	 BYTE PTR __k$[ebp+1], -20 ; ffffffecH
  0034e	eb 04		 jmp	 SHORT $LN111@LoadString@3
$LN96@LoadString@3:
  00350	c6 45 d4 ed	 mov	 BYTE PTR __k$[ebp], -19	; ffffffedH
$LN111@LoadString@3:
  00354	6a 08		 push	 8
  00356	8d 45 d4	 lea	 eax, DWORD PTR __k$[ebp]
  00359	c6 45 f4 00	 mov	 BYTE PTR __k$[ebp+32], 0
  0035d	5a		 pop	 edx
$LL104@LoadString@3:
  0035e	81 30 ed ec eb
	ea		 xor	 DWORD PTR [eax], -353637139 ; eaebecedH
  00364	83 c0 04	 add	 eax, 4
  00367	4a		 dec	 edx
  00368	75 f4		 jne	 SHORT $LL104@LoadString@3

; 163  : 		LoadString(_k, d, b, i);

  0036a	ff 75 14	 push	 DWORD PTR _i$[ebp]
  0036d	8b 4d d0	 mov	 ecx, DWORD PTR _this$GSCopy$[ebp]
  00370	57		 push	 edi
  00371	56		 push	 esi
  00372	8d 45 d4	 lea	 eax, DWORD PTR __k$[ebp]
  00375	50		 push	 eax
  00376	ff 15 00 00 00
	00		 call	 DWORD PTR __imp_?LoadStringA@ioINILoader@@QAEXPBD0PADH@Z

; 164  : 	}

  0037c	8b 4d fc	 mov	 ecx, DWORD PTR __$ArrayPad$[ebp]
  0037f	5f		 pop	 edi
  00380	5e		 pop	 esi
  00381	33 cd		 xor	 ecx, ebp
  00383	5b		 pop	 ebx
  00384	e8 00 00 00 00	 call	 @__security_check_cookie@4
  00389	c9		 leave
  0038a	c2 10 00	 ret	 16			; 00000010H
??$LoadString_e@$0CB@@ioINILoader@@QAEXAAY0CB@$$CBDAAY00$$CBDPADH@Z ENDP ; ioINILoader::LoadString_e<33>
_TEXT	ENDS
PUBLIC	_this$GSCopy$
PUBLIC	__$ArrayPad$
PUBLIC	??$LoadString_e@$0CD@@ioINILoader@@QAEXAAY0CD@$$CBDAAY00$$CBDPADH@Z ; ioINILoader::LoadString_e<35>
; Function compile flags: /Ogsp
;	COMDAT ??$LoadString_e@$0CD@@ioINILoader@@QAEXAAY0CD@$$CBDAAY00$$CBDPADH@Z
_TEXT	SEGMENT
_this$GSCopy$ = -48					; size = 4
__k$ = -44						; size = 35
__$ArrayPad$ = -4					; size = 4
_k$ = 8							; size = 4
_d$ = 12						; size = 4
_b$ = 16						; size = 4
_i$ = 20						; size = 4
??$LoadString_e@$0CD@@ioINILoader@@QAEXAAY0CD@$$CBDAAY00$$CBDPADH@Z PROC ; ioINILoader::LoadString_e<35>, COMDAT
; _this$ = ecx

; 161  : 	{

  00000	55		 push	 ebp
  00001	8b ec		 mov	 ebp, esp
  00003	83 ec 30	 sub	 esp, 48			; 00000030H
  00006	a1 00 00 00 00	 mov	 eax, DWORD PTR ___security_cookie
  0000b	33 c5		 xor	 eax, ebp
  0000d	89 45 fc	 mov	 DWORD PTR __$ArrayPad$[ebp], eax
  00010	8b 45 08	 mov	 eax, DWORD PTR _k$[ebp]

; 162  : 		_ENCSTR(k, _k);

  00013	8a 10		 mov	 dl, BYTE PTR [eax]
  00015	53		 push	 ebx
  00016	56		 push	 esi
  00017	8b 75 0c	 mov	 esi, DWORD PTR _d$[ebp]
  0001a	57		 push	 edi
  0001b	8b 7d 10	 mov	 edi, DWORD PTR _b$[ebp]
  0001e	89 4d d0	 mov	 DWORD PTR _this$GSCopy$[ebp], ecx
  00021	84 d2		 test	 dl, dl
  00023	0f 84 59 03 00
	00		 je	 $LN96@LoadString@4
  00029	80 f2 ed	 xor	 dl, -19			; ffffffedH
  0002c	88 55 d4	 mov	 BYTE PTR __k$[ebp], dl
  0002f	8a 50 01	 mov	 dl, BYTE PTR [eax+1]
  00032	84 d2		 test	 dl, dl
  00034	0f 84 42 03 00
	00		 je	 $LN95@LoadString@4
  0003a	b1 ec		 mov	 cl, -20			; ffffffecH
  0003c	32 d1		 xor	 dl, cl
  0003e	88 55 d5	 mov	 BYTE PTR __k$[ebp+1], dl
  00041	8a 50 02	 mov	 dl, BYTE PTR [eax+2]
  00044	84 d2		 test	 dl, dl
  00046	0f 84 2a 03 00
	00		 je	 $LN94@LoadString@4
  0004c	80 f2 eb	 xor	 dl, -21			; ffffffebH
  0004f	88 55 d6	 mov	 BYTE PTR __k$[ebp+2], dl
  00052	8a 50 03	 mov	 dl, BYTE PTR [eax+3]
  00055	84 d2		 test	 dl, dl
  00057	0f 84 13 03 00
	00		 je	 $LN93@LoadString@4
  0005d	b3 ea		 mov	 bl, -22			; ffffffeaH
  0005f	32 d3		 xor	 dl, bl
  00061	88 55 d7	 mov	 BYTE PTR __k$[ebp+3], dl
  00064	8a 50 04	 mov	 dl, BYTE PTR [eax+4]
  00067	84 d2		 test	 dl, dl
  00069	0f 84 fb 02 00
	00		 je	 $LN92@LoadString@4
  0006f	80 f2 ed	 xor	 dl, -19			; ffffffedH
  00072	88 55 d8	 mov	 BYTE PTR __k$[ebp+4], dl
  00075	8a 50 05	 mov	 dl, BYTE PTR [eax+5]
  00078	84 d2		 test	 dl, dl
  0007a	0f 84 e5 02 00
	00		 je	 $LN91@LoadString@4
  00080	32 d1		 xor	 dl, cl
  00082	88 55 d9	 mov	 BYTE PTR __k$[ebp+5], dl
  00085	8a 50 06	 mov	 dl, BYTE PTR [eax+6]
  00088	84 d2		 test	 dl, dl
  0008a	0f 84 cf 02 00
	00		 je	 $LN90@LoadString@4
  00090	80 f2 eb	 xor	 dl, -21			; ffffffebH
  00093	88 55 da	 mov	 BYTE PTR __k$[ebp+6], dl
  00096	8a 50 07	 mov	 dl, BYTE PTR [eax+7]
  00099	84 d2		 test	 dl, dl
  0009b	0f 84 b9 02 00
	00		 je	 $LN89@LoadString@4
  000a1	32 d3		 xor	 dl, bl
  000a3	88 55 db	 mov	 BYTE PTR __k$[ebp+7], dl
  000a6	8a 50 08	 mov	 dl, BYTE PTR [eax+8]
  000a9	84 d2		 test	 dl, dl
  000ab	0f 84 a3 02 00
	00		 je	 $LN88@LoadString@4
  000b1	80 f2 ed	 xor	 dl, -19			; ffffffedH
  000b4	88 55 dc	 mov	 BYTE PTR __k$[ebp+8], dl
  000b7	8a 50 09	 mov	 dl, BYTE PTR [eax+9]
  000ba	84 d2		 test	 dl, dl
  000bc	0f 84 8d 02 00
	00		 je	 $LN87@LoadString@4
  000c2	32 d1		 xor	 dl, cl
  000c4	88 55 dd	 mov	 BYTE PTR __k$[ebp+9], dl
  000c7	8a 50 0a	 mov	 dl, BYTE PTR [eax+10]
  000ca	84 d2		 test	 dl, dl
  000cc	0f 84 77 02 00
	00		 je	 $LN86@LoadString@4
  000d2	80 f2 eb	 xor	 dl, -21			; ffffffebH
  000d5	88 55 de	 mov	 BYTE PTR __k$[ebp+10], dl
  000d8	8a 50 0b	 mov	 dl, BYTE PTR [eax+11]
  000db	84 d2		 test	 dl, dl
  000dd	0f 84 61 02 00
	00		 je	 $LN85@LoadString@4
  000e3	32 d3		 xor	 dl, bl
  000e5	88 55 df	 mov	 BYTE PTR __k$[ebp+11], dl
  000e8	8a 50 0c	 mov	 dl, BYTE PTR [eax+12]
  000eb	84 d2		 test	 dl, dl
  000ed	0f 84 4b 02 00
	00		 je	 $LN84@LoadString@4
  000f3	80 f2 ed	 xor	 dl, -19			; ffffffedH
  000f6	88 55 e0	 mov	 BYTE PTR __k$[ebp+12], dl
  000f9	8a 50 0d	 mov	 dl, BYTE PTR [eax+13]
  000fc	84 d2		 test	 dl, dl
  000fe	0f 84 35 02 00
	00		 je	 $LN83@LoadString@4
  00104	32 d1		 xor	 dl, cl
  00106	88 55 e1	 mov	 BYTE PTR __k$[ebp+13], dl
  00109	8a 50 0e	 mov	 dl, BYTE PTR [eax+14]
  0010c	84 d2		 test	 dl, dl
  0010e	0f 84 1f 02 00
	00		 je	 $LN82@LoadString@4
  00114	80 f2 eb	 xor	 dl, -21			; ffffffebH
  00117	88 55 e2	 mov	 BYTE PTR __k$[ebp+14], dl
  0011a	8a 50 0f	 mov	 dl, BYTE PTR [eax+15]
  0011d	84 d2		 test	 dl, dl
  0011f	0f 84 09 02 00
	00		 je	 $LN81@LoadString@4
  00125	32 d3		 xor	 dl, bl
  00127	88 55 e3	 mov	 BYTE PTR __k$[ebp+15], dl
  0012a	8a 50 10	 mov	 dl, BYTE PTR [eax+16]
  0012d	84 d2		 test	 dl, dl
  0012f	0f 84 f3 01 00
	00		 je	 $LN80@LoadString@4
  00135	80 f2 ed	 xor	 dl, -19			; ffffffedH
  00138	88 55 e4	 mov	 BYTE PTR __k$[ebp+16], dl
  0013b	8a 50 11	 mov	 dl, BYTE PTR [eax+17]
  0013e	84 d2		 test	 dl, dl
  00140	0f 84 dd 01 00
	00		 je	 $LN79@LoadString@4
  00146	32 d1		 xor	 dl, cl
  00148	88 55 e5	 mov	 BYTE PTR __k$[ebp+17], dl
  0014b	8a 50 12	 mov	 dl, BYTE PTR [eax+18]
  0014e	84 d2		 test	 dl, dl
  00150	0f 84 c7 01 00
	00		 je	 $LN78@LoadString@4
  00156	80 f2 eb	 xor	 dl, -21			; ffffffebH
  00159	88 55 e6	 mov	 BYTE PTR __k$[ebp+18], dl
  0015c	8a 50 13	 mov	 dl, BYTE PTR [eax+19]
  0015f	84 d2		 test	 dl, dl
  00161	0f 84 b1 01 00
	00		 je	 $LN77@LoadString@4
  00167	32 d3		 xor	 dl, bl
  00169	88 55 e7	 mov	 BYTE PTR __k$[ebp+19], dl
  0016c	8a 50 14	 mov	 dl, BYTE PTR [eax+20]
  0016f	84 d2		 test	 dl, dl
  00171	0f 84 9b 01 00
	00		 je	 $LN76@LoadString@4
  00177	80 f2 ed	 xor	 dl, -19			; ffffffedH
  0017a	88 55 e8	 mov	 BYTE PTR __k$[ebp+20], dl
  0017d	8a 50 15	 mov	 dl, BYTE PTR [eax+21]
  00180	84 d2		 test	 dl, dl
  00182	0f 84 85 01 00
	00		 je	 $LN75@LoadString@4
  00188	32 d1		 xor	 dl, cl
  0018a	88 55 e9	 mov	 BYTE PTR __k$[ebp+21], dl
  0018d	8a 50 16	 mov	 dl, BYTE PTR [eax+22]
  00190	84 d2		 test	 dl, dl
  00192	0f 84 6f 01 00
	00		 je	 $LN74@LoadString@4
  00198	80 f2 eb	 xor	 dl, -21			; ffffffebH
  0019b	88 55 ea	 mov	 BYTE PTR __k$[ebp+22], dl
  0019e	8a 50 17	 mov	 dl, BYTE PTR [eax+23]
  001a1	84 d2		 test	 dl, dl
  001a3	0f 84 59 01 00
	00		 je	 $LN73@LoadString@4
  001a9	32 d3		 xor	 dl, bl
  001ab	88 55 eb	 mov	 BYTE PTR __k$[ebp+23], dl
  001ae	8a 50 18	 mov	 dl, BYTE PTR [eax+24]
  001b1	84 d2		 test	 dl, dl
  001b3	0f 84 40 01 00
	00		 je	 $LN72@LoadString@4
  001b9	80 f2 ed	 xor	 dl, -19			; ffffffedH
  001bc	88 55 ec	 mov	 BYTE PTR __k$[ebp+24], dl
  001bf	8a 50 19	 mov	 dl, BYTE PTR [eax+25]
  001c2	84 d2		 test	 dl, dl
  001c4	0f 84 27 01 00
	00		 je	 $LN71@LoadString@4
  001ca	32 d1		 xor	 dl, cl
  001cc	88 55 ed	 mov	 BYTE PTR __k$[ebp+25], dl
  001cf	8a 50 1a	 mov	 dl, BYTE PTR [eax+26]
  001d2	84 d2		 test	 dl, dl
  001d4	0f 84 0e 01 00
	00		 je	 $LN70@LoadString@4
  001da	80 f2 eb	 xor	 dl, -21			; ffffffebH
  001dd	88 55 ee	 mov	 BYTE PTR __k$[ebp+26], dl
  001e0	8a 50 1b	 mov	 dl, BYTE PTR [eax+27]
  001e3	84 d2		 test	 dl, dl
  001e5	0f 84 f5 00 00
	00		 je	 $LN69@LoadString@4
  001eb	32 d3		 xor	 dl, bl
  001ed	88 55 ef	 mov	 BYTE PTR __k$[ebp+27], dl
  001f0	8a 50 1c	 mov	 dl, BYTE PTR [eax+28]
  001f3	84 d2		 test	 dl, dl
  001f5	0f 84 dc 00 00
	00		 je	 $LN68@LoadString@4
  001fb	80 f2 ed	 xor	 dl, -19			; ffffffedH
  001fe	88 55 f0	 mov	 BYTE PTR __k$[ebp+28], dl
  00201	8a 50 1d	 mov	 dl, BYTE PTR [eax+29]
  00204	84 d2		 test	 dl, dl
  00206	0f 84 c3 00 00
	00		 je	 $LN67@LoadString@4
  0020c	32 d1		 xor	 dl, cl
  0020e	88 55 f1	 mov	 BYTE PTR __k$[ebp+29], dl
  00211	8a 50 1e	 mov	 dl, BYTE PTR [eax+30]
  00214	84 d2		 test	 dl, dl
  00216	0f 84 aa 00 00
	00		 je	 $LN66@LoadString@4
  0021c	80 f2 eb	 xor	 dl, -21			; ffffffebH
  0021f	88 55 f2	 mov	 BYTE PTR __k$[ebp+30], dl
  00222	8a 50 1f	 mov	 dl, BYTE PTR [eax+31]
  00225	84 d2		 test	 dl, dl
  00227	0f 84 91 00 00
	00		 je	 $LN65@LoadString@4
  0022d	32 d3		 xor	 dl, bl
  0022f	88 55 f3	 mov	 BYTE PTR __k$[ebp+31], dl
  00232	8a 50 20	 mov	 dl, BYTE PTR [eax+32]
  00235	84 d2		 test	 dl, dl
  00237	74 7c		 je	 SHORT $LN64@LoadString@4
  00239	80 f2 ed	 xor	 dl, -19			; ffffffedH
  0023c	88 55 f4	 mov	 BYTE PTR __k$[ebp+32], dl
  0023f	8a 50 21	 mov	 dl, BYTE PTR [eax+33]
  00242	84 d2		 test	 dl, dl
  00244	74 67		 je	 SHORT $LN63@LoadString@4
  00246	32 d1		 xor	 dl, cl
  00248	80 78 22 00	 cmp	 BYTE PTR [eax+34], 0
  0024c	88 55 f5	 mov	 BYTE PTR __k$[ebp+33], dl
  0024f	0f 84 31 01 00
	00		 je	 $LN111@LoadString@4
  00255	8a 50 23	 mov	 dl, BYTE PTR [eax+35]
  00258	84 d2		 test	 dl, dl
  0025a	74 49		 je	 SHORT $LN61@LoadString@4
  0025c	32 d3		 xor	 dl, bl
  0025e	88 55 f7	 mov	 BYTE PTR __k$[ebp+35], dl
  00261	8a 50 24	 mov	 dl, BYTE PTR [eax+36]
  00264	84 d2		 test	 dl, dl
  00266	74 34		 je	 SHORT $LN60@LoadString@4
  00268	80 f2 ed	 xor	 dl, -19			; ffffffedH
  0026b	88 55 f8	 mov	 BYTE PTR __k$[ebp+36], dl
  0026e	8a 50 25	 mov	 dl, BYTE PTR [eax+37]
  00271	84 d2		 test	 dl, dl
  00273	74 1f		 je	 SHORT $LN59@LoadString@4
  00275	8a 40 26	 mov	 al, BYTE PTR [eax+38]
  00278	32 d1		 xor	 dl, cl
  0027a	88 55 f9	 mov	 BYTE PTR __k$[ebp+37], dl
  0027d	84 c0		 test	 al, al
  0027f	74 0a		 je	 SHORT $LN58@LoadString@4
  00281	34 eb		 xor	 al, -21			; ffffffebH
  00283	88 45 fa	 mov	 BYTE PTR __k$[ebp+38], al
  00286	e9 fb 00 00 00	 jmp	 $LN111@LoadString@4
$LN58@LoadString@4:
  0028b	c6 45 fa eb	 mov	 BYTE PTR __k$[ebp+38], -21 ; ffffffebH
  0028f	e9 f2 00 00 00	 jmp	 $LN111@LoadString@4
$LN59@LoadString@4:
  00294	88 4d f9	 mov	 BYTE PTR __k$[ebp+37], cl
  00297	e9 ea 00 00 00	 jmp	 $LN111@LoadString@4
$LN60@LoadString@4:
  0029c	c6 45 f8 ed	 mov	 BYTE PTR __k$[ebp+36], -19 ; ffffffedH
  002a0	e9 e1 00 00 00	 jmp	 $LN111@LoadString@4
$LN61@LoadString@4:
  002a5	88 5d f7	 mov	 BYTE PTR __k$[ebp+35], bl
  002a8	e9 d9 00 00 00	 jmp	 $LN111@LoadString@4
$LN63@LoadString@4:
  002ad	88 4d f5	 mov	 BYTE PTR __k$[ebp+33], cl
  002b0	e9 d1 00 00 00	 jmp	 $LN111@LoadString@4
$LN64@LoadString@4:
  002b5	c6 45 f4 ed	 mov	 BYTE PTR __k$[ebp+32], -19 ; ffffffedH
  002b9	e9 c8 00 00 00	 jmp	 $LN111@LoadString@4
$LN65@LoadString@4:
  002be	88 5d f3	 mov	 BYTE PTR __k$[ebp+31], bl
  002c1	e9 c0 00 00 00	 jmp	 $LN111@LoadString@4
$LN66@LoadString@4:
  002c6	c6 45 f2 eb	 mov	 BYTE PTR __k$[ebp+30], -21 ; ffffffebH
  002ca	e9 b7 00 00 00	 jmp	 $LN111@LoadString@4
$LN67@LoadString@4:
  002cf	88 4d f1	 mov	 BYTE PTR __k$[ebp+29], cl
  002d2	e9 af 00 00 00	 jmp	 $LN111@LoadString@4
$LN68@LoadString@4:
  002d7	c6 45 f0 ed	 mov	 BYTE PTR __k$[ebp+28], -19 ; ffffffedH
  002db	e9 a6 00 00 00	 jmp	 $LN111@LoadString@4
$LN69@LoadString@4:
  002e0	88 5d ef	 mov	 BYTE PTR __k$[ebp+27], bl
  002e3	e9 9e 00 00 00	 jmp	 $LN111@LoadString@4
$LN70@LoadString@4:
  002e8	c6 45 ee eb	 mov	 BYTE PTR __k$[ebp+26], -21 ; ffffffebH
  002ec	e9 95 00 00 00	 jmp	 $LN111@LoadString@4
$LN71@LoadString@4:
  002f1	88 4d ed	 mov	 BYTE PTR __k$[ebp+25], cl
  002f4	e9 8d 00 00 00	 jmp	 $LN111@LoadString@4
$LN72@LoadString@4:
  002f9	c6 45 ec ed	 mov	 BYTE PTR __k$[ebp+24], -19 ; ffffffedH
  002fd	e9 84 00 00 00	 jmp	 $LN111@LoadString@4
$LN73@LoadString@4:
  00302	88 5d eb	 mov	 BYTE PTR __k$[ebp+23], bl
  00305	eb 7f		 jmp	 SHORT $LN111@LoadString@4
$LN74@LoadString@4:
  00307	c6 45 ea eb	 mov	 BYTE PTR __k$[ebp+22], -21 ; ffffffebH
  0030b	eb 79		 jmp	 SHORT $LN111@LoadString@4
$LN75@LoadString@4:
  0030d	88 4d e9	 mov	 BYTE PTR __k$[ebp+21], cl
  00310	eb 74		 jmp	 SHORT $LN111@LoadString@4
$LN76@LoadString@4:
  00312	c6 45 e8 ed	 mov	 BYTE PTR __k$[ebp+20], -19 ; ffffffedH
  00316	eb 6e		 jmp	 SHORT $LN111@LoadString@4
$LN77@LoadString@4:
  00318	88 5d e7	 mov	 BYTE PTR __k$[ebp+19], bl
  0031b	eb 69		 jmp	 SHORT $LN111@LoadString@4
$LN78@LoadString@4:
  0031d	c6 45 e6 eb	 mov	 BYTE PTR __k$[ebp+18], -21 ; ffffffebH
  00321	eb 63		 jmp	 SHORT $LN111@LoadString@4
$LN79@LoadString@4:
  00323	88 4d e5	 mov	 BYTE PTR __k$[ebp+17], cl
  00326	eb 5e		 jmp	 SHORT $LN111@LoadString@4
$LN80@LoadString@4:
  00328	c6 45 e4 ed	 mov	 BYTE PTR __k$[ebp+16], -19 ; ffffffedH
  0032c	eb 58		 jmp	 SHORT $LN111@LoadString@4
$LN81@LoadString@4:
  0032e	88 5d e3	 mov	 BYTE PTR __k$[ebp+15], bl
  00331	eb 53		 jmp	 SHORT $LN111@LoadString@4
$LN82@LoadString@4:
  00333	c6 45 e2 eb	 mov	 BYTE PTR __k$[ebp+14], -21 ; ffffffebH
  00337	eb 4d		 jmp	 SHORT $LN111@LoadString@4
$LN83@LoadString@4:
  00339	88 4d e1	 mov	 BYTE PTR __k$[ebp+13], cl
  0033c	eb 48		 jmp	 SHORT $LN111@LoadString@4
$LN84@LoadString@4:
  0033e	c6 45 e0 ed	 mov	 BYTE PTR __k$[ebp+12], -19 ; ffffffedH
  00342	eb 42		 jmp	 SHORT $LN111@LoadString@4
$LN85@LoadString@4:
  00344	88 5d df	 mov	 BYTE PTR __k$[ebp+11], bl
  00347	eb 3d		 jmp	 SHORT $LN111@LoadString@4
$LN86@LoadString@4:
  00349	c6 45 de eb	 mov	 BYTE PTR __k$[ebp+10], -21 ; ffffffebH
  0034d	eb 37		 jmp	 SHORT $LN111@LoadString@4
$LN87@LoadString@4:
  0034f	88 4d dd	 mov	 BYTE PTR __k$[ebp+9], cl
  00352	eb 32		 jmp	 SHORT $LN111@LoadString@4
$LN88@LoadString@4:
  00354	c6 45 dc ed	 mov	 BYTE PTR __k$[ebp+8], -19 ; ffffffedH
  00358	eb 2c		 jmp	 SHORT $LN111@LoadString@4
$LN89@LoadString@4:
  0035a	88 5d db	 mov	 BYTE PTR __k$[ebp+7], bl
  0035d	eb 27		 jmp	 SHORT $LN111@LoadString@4
$LN90@LoadString@4:
  0035f	c6 45 da eb	 mov	 BYTE PTR __k$[ebp+6], -21 ; ffffffebH
  00363	eb 21		 jmp	 SHORT $LN111@LoadString@4
$LN91@LoadString@4:
  00365	88 4d d9	 mov	 BYTE PTR __k$[ebp+5], cl
  00368	eb 1c		 jmp	 SHORT $LN111@LoadString@4
$LN92@LoadString@4:
  0036a	c6 45 d8 ed	 mov	 BYTE PTR __k$[ebp+4], -19 ; ffffffedH
  0036e	eb 16		 jmp	 SHORT $LN111@LoadString@4
$LN93@LoadString@4:
  00370	c6 45 d7 ea	 mov	 BYTE PTR __k$[ebp+3], -22 ; ffffffeaH
  00374	eb 10		 jmp	 SHORT $LN111@LoadString@4
$LN94@LoadString@4:
  00376	c6 45 d6 eb	 mov	 BYTE PTR __k$[ebp+2], -21 ; ffffffebH
  0037a	eb 0a		 jmp	 SHORT $LN111@LoadString@4
$LN95@LoadString@4:
  0037c	c6 45 d5 ec	 mov	 BYTE PTR __k$[ebp+1], -20 ; ffffffecH
  00380	eb 04		 jmp	 SHORT $LN111@LoadString@4
$LN96@LoadString@4:
  00382	c6 45 d4 ed	 mov	 BYTE PTR __k$[ebp], -19	; ffffffedH
$LN111@LoadString@4:
  00386	6a 08		 push	 8
  00388	8d 45 d4	 lea	 eax, DWORD PTR __k$[ebp]
  0038b	c6 45 f6 00	 mov	 BYTE PTR __k$[ebp+34], 0
  0038f	5a		 pop	 edx
$LL104@LoadString@4:
  00390	81 30 ed ec eb
	ea		 xor	 DWORD PTR [eax], -353637139 ; eaebecedH
  00396	83 c0 04	 add	 eax, 4
  00399	4a		 dec	 edx
  0039a	75 f4		 jne	 SHORT $LL104@LoadString@4
  0039c	6a 20		 push	 32			; 00000020H
  0039e	58		 pop	 eax
$LL101@LoadString@4:
  0039f	8b c8		 mov	 ecx, eax
  003a1	81 e1 03 00 00
	80		 and	 ecx, -2147483645	; 80000003H
  003a7	79 05		 jns	 SHORT $LN112@LoadString@4
  003a9	49		 dec	 ecx
  003aa	83 c9 fc	 or	 ecx, -4			; fffffffcH
  003ad	41		 inc	 ecx
$LN112@LoadString@4:
  003ae	b2 ed		 mov	 dl, -19			; ffffffedH
  003b0	2a d1		 sub	 dl, cl
  003b2	30 54 05 d4	 xor	 BYTE PTR __k$[ebp+eax], dl
  003b6	40		 inc	 eax
  003b7	83 f8 22	 cmp	 eax, 34			; 00000022H
  003ba	7c e3		 jl	 SHORT $LL101@LoadString@4

; 163  : 		LoadString(_k, d, b, i);

  003bc	ff 75 14	 push	 DWORD PTR _i$[ebp]
  003bf	8b 4d d0	 mov	 ecx, DWORD PTR _this$GSCopy$[ebp]
  003c2	57		 push	 edi
  003c3	56		 push	 esi
  003c4	8d 45 d4	 lea	 eax, DWORD PTR __k$[ebp]
  003c7	50		 push	 eax
  003c8	ff 15 00 00 00
	00		 call	 DWORD PTR __imp_?LoadStringA@ioINILoader@@QAEXPBD0PADH@Z

; 164  : 	}

  003ce	8b 4d fc	 mov	 ecx, DWORD PTR __$ArrayPad$[ebp]
  003d1	5f		 pop	 edi
  003d2	5e		 pop	 esi
  003d3	33 cd		 xor	 ecx, ebp
  003d5	5b		 pop	 ebx
  003d6	e8 00 00 00 00	 call	 @__security_check_cookie@4
  003db	c9		 leave
  003dc	c2 10 00	 ret	 16			; 00000010H
??$LoadString_e@$0CD@@ioINILoader@@QAEXAAY0CD@$$CBDAAY00$$CBDPADH@Z ENDP ; ioINILoader::LoadString_e<35>
_TEXT	ENDS
PUBLIC	_this$GSCopy$
PUBLIC	__$ArrayPad$
PUBLIC	??$LoadString_e@$0CF@@ioINILoader@@QAEXAAY0CF@$$CBDAAY00$$CBDPADH@Z ; ioINILoader::LoadString_e<37>
; Function compile flags: /Ogsp
;	COMDAT ??$LoadString_e@$0CF@@ioINILoader@@QAEXAAY0CF@$$CBDAAY00$$CBDPADH@Z
_TEXT	SEGMENT
_this$GSCopy$ = -52					; size = 4
__k$ = -48						; size = 37
__$ArrayPad$ = -4					; size = 4
_k$ = 8							; size = 4
_d$ = 12						; size = 4
_b$ = 16						; size = 4
_i$ = 20						; size = 4
??$LoadString_e@$0CF@@ioINILoader@@QAEXAAY0CF@$$CBDAAY00$$CBDPADH@Z PROC ; ioINILoader::LoadString_e<37>, COMDAT
; _this$ = ecx

; 161  : 	{

  00000	55		 push	 ebp
  00001	8b ec		 mov	 ebp, esp
  00003	83 ec 34	 sub	 esp, 52			; 00000034H
  00006	a1 00 00 00 00	 mov	 eax, DWORD PTR ___security_cookie
  0000b	33 c5		 xor	 eax, ebp
  0000d	89 45 fc	 mov	 DWORD PTR __$ArrayPad$[ebp], eax
  00010	8b 45 08	 mov	 eax, DWORD PTR _k$[ebp]

; 162  : 		_ENCSTR(k, _k);

  00013	8a 10		 mov	 dl, BYTE PTR [eax]
  00015	53		 push	 ebx
  00016	56		 push	 esi
  00017	8b 75 0c	 mov	 esi, DWORD PTR _d$[ebp]
  0001a	57		 push	 edi
  0001b	8b 7d 10	 mov	 edi, DWORD PTR _b$[ebp]
  0001e	89 4d cc	 mov	 DWORD PTR _this$GSCopy$[ebp], ecx
  00021	84 d2		 test	 dl, dl
  00023	0f 84 8b 03 00
	00		 je	 $LN96@LoadString@5
  00029	80 f2 ed	 xor	 dl, -19			; ffffffedH
  0002c	88 55 d0	 mov	 BYTE PTR __k$[ebp], dl
  0002f	8a 50 01	 mov	 dl, BYTE PTR [eax+1]
  00032	84 d2		 test	 dl, dl
  00034	0f 84 74 03 00
	00		 je	 $LN95@LoadString@5
  0003a	b1 ec		 mov	 cl, -20			; ffffffecH
  0003c	32 d1		 xor	 dl, cl
  0003e	88 55 d1	 mov	 BYTE PTR __k$[ebp+1], dl
  00041	8a 50 02	 mov	 dl, BYTE PTR [eax+2]
  00044	84 d2		 test	 dl, dl
  00046	0f 84 5c 03 00
	00		 je	 $LN94@LoadString@5
  0004c	b3 eb		 mov	 bl, -21			; ffffffebH
  0004e	32 d3		 xor	 dl, bl
  00050	88 55 d2	 mov	 BYTE PTR __k$[ebp+2], dl
  00053	8a 50 03	 mov	 dl, BYTE PTR [eax+3]
  00056	84 d2		 test	 dl, dl
  00058	0f 84 44 03 00
	00		 je	 $LN93@LoadString@5
  0005e	80 f2 ea	 xor	 dl, -22			; ffffffeaH
  00061	88 55 d3	 mov	 BYTE PTR __k$[ebp+3], dl
  00064	8a 50 04	 mov	 dl, BYTE PTR [eax+4]
  00067	84 d2		 test	 dl, dl
  00069	0f 84 2d 03 00
	00		 je	 $LN92@LoadString@5
  0006f	80 f2 ed	 xor	 dl, -19			; ffffffedH
  00072	88 55 d4	 mov	 BYTE PTR __k$[ebp+4], dl
  00075	8a 50 05	 mov	 dl, BYTE PTR [eax+5]
  00078	84 d2		 test	 dl, dl
  0007a	0f 84 17 03 00
	00		 je	 $LN91@LoadString@5
  00080	32 d1		 xor	 dl, cl
  00082	88 55 d5	 mov	 BYTE PTR __k$[ebp+5], dl
  00085	8a 50 06	 mov	 dl, BYTE PTR [eax+6]
  00088	84 d2		 test	 dl, dl
  0008a	0f 84 02 03 00
	00		 je	 $LN90@LoadString@5
  00090	32 d3		 xor	 dl, bl
  00092	88 55 d6	 mov	 BYTE PTR __k$[ebp+6], dl
  00095	8a 50 07	 mov	 dl, BYTE PTR [eax+7]
  00098	84 d2		 test	 dl, dl
  0009a	0f 84 ec 02 00
	00		 je	 $LN89@LoadString@5
  000a0	80 f2 ea	 xor	 dl, -22			; ffffffeaH
  000a3	88 55 d7	 mov	 BYTE PTR __k$[ebp+7], dl
  000a6	8a 50 08	 mov	 dl, BYTE PTR [eax+8]
  000a9	84 d2		 test	 dl, dl
  000ab	0f 84 d5 02 00
	00		 je	 $LN88@LoadString@5
  000b1	80 f2 ed	 xor	 dl, -19			; ffffffedH
  000b4	88 55 d8	 mov	 BYTE PTR __k$[ebp+8], dl
  000b7	8a 50 09	 mov	 dl, BYTE PTR [eax+9]
  000ba	84 d2		 test	 dl, dl
  000bc	0f 84 bf 02 00
	00		 je	 $LN87@LoadString@5
  000c2	32 d1		 xor	 dl, cl
  000c4	88 55 d9	 mov	 BYTE PTR __k$[ebp+9], dl
  000c7	8a 50 0a	 mov	 dl, BYTE PTR [eax+10]
  000ca	84 d2		 test	 dl, dl
  000cc	0f 84 aa 02 00
	00		 je	 $LN86@LoadString@5
  000d2	32 d3		 xor	 dl, bl
  000d4	88 55 da	 mov	 BYTE PTR __k$[ebp+10], dl
  000d7	8a 50 0b	 mov	 dl, BYTE PTR [eax+11]
  000da	84 d2		 test	 dl, dl
  000dc	0f 84 94 02 00
	00		 je	 $LN85@LoadString@5
  000e2	80 f2 ea	 xor	 dl, -22			; ffffffeaH
  000e5	88 55 db	 mov	 BYTE PTR __k$[ebp+11], dl
  000e8	8a 50 0c	 mov	 dl, BYTE PTR [eax+12]
  000eb	84 d2		 test	 dl, dl
  000ed	0f 84 7d 02 00
	00		 je	 $LN84@LoadString@5
  000f3	80 f2 ed	 xor	 dl, -19			; ffffffedH
  000f6	88 55 dc	 mov	 BYTE PTR __k$[ebp+12], dl
  000f9	8a 50 0d	 mov	 dl, BYTE PTR [eax+13]
  000fc	84 d2		 test	 dl, dl
  000fe	0f 84 67 02 00
	00		 je	 $LN83@LoadString@5
  00104	32 d1		 xor	 dl, cl
  00106	88 55 dd	 mov	 BYTE PTR __k$[ebp+13], dl
  00109	8a 50 0e	 mov	 dl, BYTE PTR [eax+14]
  0010c	84 d2		 test	 dl, dl
  0010e	0f 84 52 02 00
	00		 je	 $LN82@LoadString@5
  00114	32 d3		 xor	 dl, bl
  00116	88 55 de	 mov	 BYTE PTR __k$[ebp+14], dl
  00119	8a 50 0f	 mov	 dl, BYTE PTR [eax+15]
  0011c	84 d2		 test	 dl, dl
  0011e	0f 84 3c 02 00
	00		 je	 $LN81@LoadString@5
  00124	80 f2 ea	 xor	 dl, -22			; ffffffeaH
  00127	88 55 df	 mov	 BYTE PTR __k$[ebp+15], dl
  0012a	8a 50 10	 mov	 dl, BYTE PTR [eax+16]
  0012d	84 d2		 test	 dl, dl
  0012f	0f 84 25 02 00
	00		 je	 $LN80@LoadString@5
  00135	80 f2 ed	 xor	 dl, -19			; ffffffedH
  00138	88 55 e0	 mov	 BYTE PTR __k$[ebp+16], dl
  0013b	8a 50 11	 mov	 dl, BYTE PTR [eax+17]
  0013e	84 d2		 test	 dl, dl
  00140	0f 84 0f 02 00
	00		 je	 $LN79@LoadString@5
  00146	32 d1		 xor	 dl, cl
  00148	88 55 e1	 mov	 BYTE PTR __k$[ebp+17], dl
  0014b	8a 50 12	 mov	 dl, BYTE PTR [eax+18]
  0014e	84 d2		 test	 dl, dl
  00150	0f 84 fa 01 00
	00		 je	 $LN78@LoadString@5
  00156	32 d3		 xor	 dl, bl
  00158	88 55 e2	 mov	 BYTE PTR __k$[ebp+18], dl
  0015b	8a 50 13	 mov	 dl, BYTE PTR [eax+19]
  0015e	84 d2		 test	 dl, dl
  00160	0f 84 e4 01 00
	00		 je	 $LN77@LoadString@5
  00166	80 f2 ea	 xor	 dl, -22			; ffffffeaH
  00169	88 55 e3	 mov	 BYTE PTR __k$[ebp+19], dl
  0016c	8a 50 14	 mov	 dl, BYTE PTR [eax+20]
  0016f	84 d2		 test	 dl, dl
  00171	0f 84 cd 01 00
	00		 je	 $LN76@LoadString@5
  00177	80 f2 ed	 xor	 dl, -19			; ffffffedH
  0017a	88 55 e4	 mov	 BYTE PTR __k$[ebp+20], dl
  0017d	8a 50 15	 mov	 dl, BYTE PTR [eax+21]
  00180	84 d2		 test	 dl, dl
  00182	0f 84 b7 01 00
	00		 je	 $LN75@LoadString@5
  00188	32 d1		 xor	 dl, cl
  0018a	88 55 e5	 mov	 BYTE PTR __k$[ebp+21], dl
  0018d	8a 50 16	 mov	 dl, BYTE PTR [eax+22]
  00190	84 d2		 test	 dl, dl
  00192	0f 84 a2 01 00
	00		 je	 $LN74@LoadString@5
  00198	32 d3		 xor	 dl, bl
  0019a	88 55 e6	 mov	 BYTE PTR __k$[ebp+22], dl
  0019d	8a 50 17	 mov	 dl, BYTE PTR [eax+23]
  001a0	84 d2		 test	 dl, dl
  001a2	0f 84 8c 01 00
	00		 je	 $LN73@LoadString@5
  001a8	80 f2 ea	 xor	 dl, -22			; ffffffeaH
  001ab	88 55 e7	 mov	 BYTE PTR __k$[ebp+23], dl
  001ae	8a 50 18	 mov	 dl, BYTE PTR [eax+24]
  001b1	84 d2		 test	 dl, dl
  001b3	0f 84 72 01 00
	00		 je	 $LN72@LoadString@5
  001b9	80 f2 ed	 xor	 dl, -19			; ffffffedH
  001bc	88 55 e8	 mov	 BYTE PTR __k$[ebp+24], dl
  001bf	8a 50 19	 mov	 dl, BYTE PTR [eax+25]
  001c2	84 d2		 test	 dl, dl
  001c4	0f 84 59 01 00
	00		 je	 $LN71@LoadString@5
  001ca	32 d1		 xor	 dl, cl
  001cc	88 55 e9	 mov	 BYTE PTR __k$[ebp+25], dl
  001cf	8a 50 1a	 mov	 dl, BYTE PTR [eax+26]
  001d2	84 d2		 test	 dl, dl
  001d4	0f 84 41 01 00
	00		 je	 $LN70@LoadString@5
  001da	32 d3		 xor	 dl, bl
  001dc	88 55 ea	 mov	 BYTE PTR __k$[ebp+26], dl
  001df	8a 50 1b	 mov	 dl, BYTE PTR [eax+27]
  001e2	84 d2		 test	 dl, dl
  001e4	0f 84 28 01 00
	00		 je	 $LN69@LoadString@5
  001ea	80 f2 ea	 xor	 dl, -22			; ffffffeaH
  001ed	88 55 eb	 mov	 BYTE PTR __k$[ebp+27], dl
  001f0	8a 50 1c	 mov	 dl, BYTE PTR [eax+28]
  001f3	84 d2		 test	 dl, dl
  001f5	0f 84 0e 01 00
	00		 je	 $LN68@LoadString@5
  001fb	80 f2 ed	 xor	 dl, -19			; ffffffedH
  001fe	88 55 ec	 mov	 BYTE PTR __k$[ebp+28], dl
  00201	8a 50 1d	 mov	 dl, BYTE PTR [eax+29]
  00204	84 d2		 test	 dl, dl
  00206	0f 84 f5 00 00
	00		 je	 $LN67@LoadString@5
  0020c	32 d1		 xor	 dl, cl
  0020e	88 55 ed	 mov	 BYTE PTR __k$[ebp+29], dl
  00211	8a 50 1e	 mov	 dl, BYTE PTR [eax+30]
  00214	84 d2		 test	 dl, dl
  00216	0f 84 dd 00 00
	00		 je	 $LN66@LoadString@5
  0021c	32 d3		 xor	 dl, bl
  0021e	88 55 ee	 mov	 BYTE PTR __k$[ebp+30], dl
  00221	8a 50 1f	 mov	 dl, BYTE PTR [eax+31]
  00224	84 d2		 test	 dl, dl
  00226	0f 84 c4 00 00
	00		 je	 $LN65@LoadString@5
  0022c	80 f2 ea	 xor	 dl, -22			; ffffffeaH
  0022f	88 55 ef	 mov	 BYTE PTR __k$[ebp+31], dl
  00232	8a 50 20	 mov	 dl, BYTE PTR [eax+32]
  00235	84 d2		 test	 dl, dl
  00237	0f 84 aa 00 00
	00		 je	 $LN64@LoadString@5
  0023d	80 f2 ed	 xor	 dl, -19			; ffffffedH
  00240	88 55 f0	 mov	 BYTE PTR __k$[ebp+32], dl
  00243	8a 50 21	 mov	 dl, BYTE PTR [eax+33]
  00246	84 d2		 test	 dl, dl
  00248	0f 84 91 00 00
	00		 je	 $LN63@LoadString@5
  0024e	32 d1		 xor	 dl, cl
  00250	88 55 f1	 mov	 BYTE PTR __k$[ebp+33], dl
  00253	8a 50 22	 mov	 dl, BYTE PTR [eax+34]
  00256	84 d2		 test	 dl, dl
  00258	74 7d		 je	 SHORT $LN62@LoadString@5
  0025a	32 d3		 xor	 dl, bl
  0025c	88 55 f2	 mov	 BYTE PTR __k$[ebp+34], dl
  0025f	8a 50 23	 mov	 dl, BYTE PTR [eax+35]
  00262	84 d2		 test	 dl, dl
  00264	74 68		 je	 SHORT $LN61@LoadString@5
  00266	80 f2 ea	 xor	 dl, -22			; ffffffeaH
  00269	80 78 24 00	 cmp	 BYTE PTR [eax+36], 0
  0026d	88 55 f3	 mov	 BYTE PTR __k$[ebp+35], dl
  00270	0f 84 42 01 00
	00		 je	 $LN111@LoadString@5
  00276	8a 50 25	 mov	 dl, BYTE PTR [eax+37]
  00279	84 d2		 test	 dl, dl
  0027b	74 49		 je	 SHORT $LN59@LoadString@5
  0027d	32 d1		 xor	 dl, cl
  0027f	88 55 f5	 mov	 BYTE PTR __k$[ebp+37], dl
  00282	8a 50 26	 mov	 dl, BYTE PTR [eax+38]
  00285	84 d2		 test	 dl, dl
  00287	74 35		 je	 SHORT $LN58@LoadString@5
  00289	32 d3		 xor	 dl, bl
  0028b	88 55 f6	 mov	 BYTE PTR __k$[ebp+38], dl
  0028e	8a 50 27	 mov	 dl, BYTE PTR [eax+39]
  00291	84 d2		 test	 dl, dl
  00293	74 20		 je	 SHORT $LN57@LoadString@5
  00295	8a 40 28	 mov	 al, BYTE PTR [eax+40]
  00298	80 f2 ea	 xor	 dl, -22			; ffffffeaH
  0029b	88 55 f7	 mov	 BYTE PTR __k$[ebp+39], dl
  0029e	84 c0		 test	 al, al
  002a0	74 0a		 je	 SHORT $LN56@LoadString@5
  002a2	34 ed		 xor	 al, -19			; ffffffedH
  002a4	88 45 f8	 mov	 BYTE PTR __k$[ebp+40], al
  002a7	e9 0c 01 00 00	 jmp	 $LN111@LoadString@5
$LN56@LoadString@5:
  002ac	c6 45 f8 ed	 mov	 BYTE PTR __k$[ebp+40], -19 ; ffffffedH
  002b0	e9 03 01 00 00	 jmp	 $LN111@LoadString@5
$LN57@LoadString@5:
  002b5	c6 45 f7 ea	 mov	 BYTE PTR __k$[ebp+39], -22 ; ffffffeaH
  002b9	e9 fa 00 00 00	 jmp	 $LN111@LoadString@5
$LN58@LoadString@5:
  002be	88 5d f6	 mov	 BYTE PTR __k$[ebp+38], bl
  002c1	e9 f2 00 00 00	 jmp	 $LN111@LoadString@5
$LN59@LoadString@5:
  002c6	88 4d f5	 mov	 BYTE PTR __k$[ebp+37], cl
  002c9	e9 ea 00 00 00	 jmp	 $LN111@LoadString@5
$LN61@LoadString@5:
  002ce	c6 45 f3 ea	 mov	 BYTE PTR __k$[ebp+35], -22 ; ffffffeaH
  002d2	e9 e1 00 00 00	 jmp	 $LN111@LoadString@5
$LN62@LoadString@5:
  002d7	88 5d f2	 mov	 BYTE PTR __k$[ebp+34], bl
  002da	e9 d9 00 00 00	 jmp	 $LN111@LoadString@5
$LN63@LoadString@5:
  002df	88 4d f1	 mov	 BYTE PTR __k$[ebp+33], cl
  002e2	e9 d1 00 00 00	 jmp	 $LN111@LoadString@5
$LN64@LoadString@5:
  002e7	c6 45 f0 ed	 mov	 BYTE PTR __k$[ebp+32], -19 ; ffffffedH
  002eb	e9 c8 00 00 00	 jmp	 $LN111@LoadString@5
$LN65@LoadString@5:
  002f0	c6 45 ef ea	 mov	 BYTE PTR __k$[ebp+31], -22 ; ffffffeaH
  002f4	e9 bf 00 00 00	 jmp	 $LN111@LoadString@5
$LN66@LoadString@5:
  002f9	88 5d ee	 mov	 BYTE PTR __k$[ebp+30], bl
  002fc	e9 b7 00 00 00	 jmp	 $LN111@LoadString@5
$LN67@LoadString@5:
  00301	88 4d ed	 mov	 BYTE PTR __k$[ebp+29], cl
  00304	e9 af 00 00 00	 jmp	 $LN111@LoadString@5
$LN68@LoadString@5:
  00309	c6 45 ec ed	 mov	 BYTE PTR __k$[ebp+28], -19 ; ffffffedH
  0030d	e9 a6 00 00 00	 jmp	 $LN111@LoadString@5
$LN69@LoadString@5:
  00312	c6 45 eb ea	 mov	 BYTE PTR __k$[ebp+27], -22 ; ffffffeaH
  00316	e9 9d 00 00 00	 jmp	 $LN111@LoadString@5
$LN70@LoadString@5:
  0031b	88 5d ea	 mov	 BYTE PTR __k$[ebp+26], bl
  0031e	e9 95 00 00 00	 jmp	 $LN111@LoadString@5
$LN71@LoadString@5:
  00323	88 4d e9	 mov	 BYTE PTR __k$[ebp+25], cl
  00326	e9 8d 00 00 00	 jmp	 $LN111@LoadString@5
$LN72@LoadString@5:
  0032b	c6 45 e8 ed	 mov	 BYTE PTR __k$[ebp+24], -19 ; ffffffedH
  0032f	e9 84 00 00 00	 jmp	 $LN111@LoadString@5
$LN73@LoadString@5:
  00334	c6 45 e7 ea	 mov	 BYTE PTR __k$[ebp+23], -22 ; ffffffeaH
  00338	eb 7e		 jmp	 SHORT $LN111@LoadString@5
$LN74@LoadString@5:
  0033a	88 5d e6	 mov	 BYTE PTR __k$[ebp+22], bl
  0033d	eb 79		 jmp	 SHORT $LN111@LoadString@5
$LN75@LoadString@5:
  0033f	88 4d e5	 mov	 BYTE PTR __k$[ebp+21], cl
  00342	eb 74		 jmp	 SHORT $LN111@LoadString@5
$LN76@LoadString@5:
  00344	c6 45 e4 ed	 mov	 BYTE PTR __k$[ebp+20], -19 ; ffffffedH
  00348	eb 6e		 jmp	 SHORT $LN111@LoadString@5
$LN77@LoadString@5:
  0034a	c6 45 e3 ea	 mov	 BYTE PTR __k$[ebp+19], -22 ; ffffffeaH
  0034e	eb 68		 jmp	 SHORT $LN111@LoadString@5
$LN78@LoadString@5:
  00350	88 5d e2	 mov	 BYTE PTR __k$[ebp+18], bl
  00353	eb 63		 jmp	 SHORT $LN111@LoadString@5
$LN79@LoadString@5:
  00355	88 4d e1	 mov	 BYTE PTR __k$[ebp+17], cl
  00358	eb 5e		 jmp	 SHORT $LN111@LoadString@5
$LN80@LoadString@5:
  0035a	c6 45 e0 ed	 mov	 BYTE PTR __k$[ebp+16], -19 ; ffffffedH
  0035e	eb 58		 jmp	 SHORT $LN111@LoadString@5
$LN81@LoadString@5:
  00360	c6 45 df ea	 mov	 BYTE PTR __k$[ebp+15], -22 ; ffffffeaH
  00364	eb 52		 jmp	 SHORT $LN111@LoadString@5
$LN82@LoadString@5:
  00366	88 5d de	 mov	 BYTE PTR __k$[ebp+14], bl
  00369	eb 4d		 jmp	 SHORT $LN111@LoadString@5
$LN83@LoadString@5:
  0036b	88 4d dd	 mov	 BYTE PTR __k$[ebp+13], cl
  0036e	eb 48		 jmp	 SHORT $LN111@LoadString@5
$LN84@LoadString@5:
  00370	c6 45 dc ed	 mov	 BYTE PTR __k$[ebp+12], -19 ; ffffffedH
  00374	eb 42		 jmp	 SHORT $LN111@LoadString@5
$LN85@LoadString@5:
  00376	c6 45 db ea	 mov	 BYTE PTR __k$[ebp+11], -22 ; ffffffeaH
  0037a	eb 3c		 jmp	 SHORT $LN111@LoadString@5
$LN86@LoadString@5:
  0037c	88 5d da	 mov	 BYTE PTR __k$[ebp+10], bl
  0037f	eb 37		 jmp	 SHORT $LN111@LoadString@5
$LN87@LoadString@5:
  00381	88 4d d9	 mov	 BYTE PTR __k$[ebp+9], cl
  00384	eb 32		 jmp	 SHORT $LN111@LoadString@5
$LN88@LoadString@5:
  00386	c6 45 d8 ed	 mov	 BYTE PTR __k$[ebp+8], -19 ; ffffffedH
  0038a	eb 2c		 jmp	 SHORT $LN111@LoadString@5
$LN89@LoadString@5:
  0038c	c6 45 d7 ea	 mov	 BYTE PTR __k$[ebp+7], -22 ; ffffffeaH
  00390	eb 26		 jmp	 SHORT $LN111@LoadString@5
$LN90@LoadString@5:
  00392	88 5d d6	 mov	 BYTE PTR __k$[ebp+6], bl
  00395	eb 21		 jmp	 SHORT $LN111@LoadString@5
$LN91@LoadString@5:
  00397	88 4d d5	 mov	 BYTE PTR __k$[ebp+5], cl
  0039a	eb 1c		 jmp	 SHORT $LN111@LoadString@5
$LN92@LoadString@5:
  0039c	c6 45 d4 ed	 mov	 BYTE PTR __k$[ebp+4], -19 ; ffffffedH
  003a0	eb 16		 jmp	 SHORT $LN111@LoadString@5
$LN93@LoadString@5:
  003a2	c6 45 d3 ea	 mov	 BYTE PTR __k$[ebp+3], -22 ; ffffffeaH
  003a6	eb 10		 jmp	 SHORT $LN111@LoadString@5
$LN94@LoadString@5:
  003a8	c6 45 d2 eb	 mov	 BYTE PTR __k$[ebp+2], -21 ; ffffffebH
  003ac	eb 0a		 jmp	 SHORT $LN111@LoadString@5
$LN95@LoadString@5:
  003ae	c6 45 d1 ec	 mov	 BYTE PTR __k$[ebp+1], -20 ; ffffffecH
  003b2	eb 04		 jmp	 SHORT $LN111@LoadString@5
$LN96@LoadString@5:
  003b4	c6 45 d0 ed	 mov	 BYTE PTR __k$[ebp], -19	; ffffffedH
$LN111@LoadString@5:
  003b8	6a 09		 push	 9
  003ba	8d 45 d0	 lea	 eax, DWORD PTR __k$[ebp]
  003bd	c6 45 f4 00	 mov	 BYTE PTR __k$[ebp+36], 0
  003c1	5a		 pop	 edx
$LL104@LoadString@5:
  003c2	81 30 ed ec eb
	ea		 xor	 DWORD PTR [eax], -353637139 ; eaebecedH
  003c8	83 c0 04	 add	 eax, 4
  003cb	4a		 dec	 edx
  003cc	75 f4		 jne	 SHORT $LL104@LoadString@5

; 163  : 		LoadString(_k, d, b, i);

  003ce	ff 75 14	 push	 DWORD PTR _i$[ebp]
  003d1	8b 4d cc	 mov	 ecx, DWORD PTR _this$GSCopy$[ebp]
  003d4	57		 push	 edi
  003d5	56		 push	 esi
  003d6	8d 45 d0	 lea	 eax, DWORD PTR __k$[ebp]
  003d9	50		 push	 eax
  003da	ff 15 00 00 00
	00		 call	 DWORD PTR __imp_?LoadStringA@ioINILoader@@QAEXPBD0PADH@Z

; 164  : 	}

  003e0	8b 4d fc	 mov	 ecx, DWORD PTR __$ArrayPad$[ebp]
  003e3	5f		 pop	 edi
  003e4	5e		 pop	 esi
  003e5	33 cd		 xor	 ecx, ebp
  003e7	5b		 pop	 ebx
  003e8	e8 00 00 00 00	 call	 @__security_check_cookie@4
  003ed	c9		 leave
  003ee	c2 10 00	 ret	 16			; 00000010H
??$LoadString_e@$0CF@@ioINILoader@@QAEXAAY0CF@$$CBDAAY00$$CBDPADH@Z ENDP ; ioINILoader::LoadString_e<37>
_TEXT	ENDS
PUBLIC	??4?$CEncrypt@K@@QAEKK@Z			; CEncrypt<unsigned long>::operator=
; Function compile flags: /Ogsp
; File d:\lost saga for developer\youtube\tutorial\source\src\lsclient\encryptvalue.h
;	COMDAT ??4?$CEncrypt@K@@QAEKK@Z
_TEXT	SEGMENT
_value$ = 8						; size = 4
_inValue$ = 8						; size = 4
??4?$CEncrypt@K@@QAEKK@Z PROC				; CEncrypt<unsigned long>::operator=, COMDAT
; _this$ = ecx

; 1262 : 	{

  00000	55		 push	 ebp
  00001	8b ec		 mov	 ebp, esp

; 1263 : 		
; 1264 : 		type value = inValue;

  00003	8b 45 08	 mov	 eax, DWORD PTR _inValue$[ebp]
  00006	89 45 08	 mov	 DWORD PTR _value$[ebp], eax

; 1265 : 		EncryptValueToPool((char*)&value);

  00009	8d 45 08	 lea	 eax, DWORD PTR _value$[ebp]
  0000c	50		 push	 eax
  0000d	e8 00 00 00 00	 call	 ?EncryptValueToPool@?$CEncrypt@K@@AAEXPBD@Z ; CEncrypt<unsigned long>::EncryptValueToPool

; 1266 : #ifdef _NOTUSE
; 1267 : 		m_value = inValue;
; 1268 : 		Debug();
; 1269 : #endif
; 1270 : 		return value;

  00012	8b 45 08	 mov	 eax, DWORD PTR _value$[ebp]

; 1271 : 	}

  00015	5d		 pop	 ebp
  00016	c2 04 00	 ret	 4
??4?$CEncrypt@K@@QAEKK@Z ENDP				; CEncrypt<unsigned long>::operator=
_TEXT	ENDS
PUBLIC	??B?$CEncrypt@_N@@QAE_NXZ			; CEncrypt<bool>::operator bool
; Function compile flags: /Ogsp
;	COMDAT ??B?$CEncrypt@_N@@QAE_NXZ
_TEXT	SEGMENT
_value$ = -1						; size = 1
??B?$CEncrypt@_N@@QAE_NXZ PROC				; CEncrypt<bool>::operator bool, COMDAT
; _this$ = ecx

; 134  : 	{

  00000	55		 push	 ebp
  00001	8b ec		 mov	 ebp, esp
  00003	51		 push	 ecx

; 135  : 		type value;
; 136  : 		DecryptValueToPool(&value);

  00004	8d 45 ff	 lea	 eax, DWORD PTR _value$[ebp]
  00007	50		 push	 eax
  00008	e8 00 00 00 00	 call	 ?DecryptValueToPool@?$CEncrypt@_N@@QAEXPA_N@Z ; CEncrypt<bool>::DecryptValueToPool

; 137  : 
; 138  : #ifdef _NOTUSE
; 139  : 		Debug();
; 140  : #endif
; 141  : 		return value;

  0000d	8a 45 ff	 mov	 al, BYTE PTR _value$[ebp]

; 142  : 	}

  00010	c9		 leave
  00011	c3		 ret	 0
??B?$CEncrypt@_N@@QAE_NXZ ENDP				; CEncrypt<bool>::operator bool
_TEXT	ENDS
PUBLIC	??B?$CEncrypt@_N@@QBE_NXZ			; CEncrypt<bool>::operator bool
; Function compile flags: /Ogsp
;	COMDAT ??B?$CEncrypt@_N@@QBE_NXZ
_TEXT	SEGMENT
_value$ = -1						; size = 1
??B?$CEncrypt@_N@@QBE_NXZ PROC				; CEncrypt<bool>::operator bool, COMDAT
; _this$ = ecx

; 145  : 	{

  00000	55		 push	 ebp
  00001	8b ec		 mov	 ebp, esp
  00003	51		 push	 ecx

; 146  : 		//UJ 130829, const    --start
; 147  : 		type value;
; 148  : 		CEncrypt<type>* pThis = const_cast<CEncrypt<type>*>(this);
; 149  : 		pThis->DecryptValueToPool(&value);

  00004	8d 45 ff	 lea	 eax, DWORD PTR _value$[ebp]
  00007	50		 push	 eax
  00008	e8 00 00 00 00	 call	 ?DecryptValueToPool@?$CEncrypt@_N@@QAEXPA_N@Z ; CEncrypt<bool>::DecryptValueToPool

; 150  : 		//// const DecryptValueToPool     .
; 151  :  		//type value;
; 152  : 		//char szTempMem[MAX_ENCRYPT];
; 153  : 		//m_RC5.DecryptByte( m_MemPool, szTempMem, max(m_ValueSize, DEFAULT_ENCRYPT) );
; 154  : 		//memcpy( &value, szTempMem, m_ValueSize );
; 155  : 		//UJ --end
; 156  : 
; 157  : #ifdef _NOTUSE
; 158  : 		Debug();
; 159  : #endif
; 160  : 		return value;

  0000d	8a 45 ff	 mov	 al, BYTE PTR _value$[ebp]

; 161  : 	}

  00010	c9		 leave
  00011	c3		 ret	 0
??B?$CEncrypt@_N@@QBE_NXZ ENDP				; CEncrypt<bool>::operator bool
_TEXT	ENDS
PUBLIC	??4?$CEncrypt@_N@@QAE_N_N@Z			; CEncrypt<bool>::operator=
; Function compile flags: /Ogsp
;	COMDAT ??4?$CEncrypt@_N@@QAE_N_N@Z
_TEXT	SEGMENT
_inValue$ = 8						; size = 1
_value$ = 11						; size = 1
??4?$CEncrypt@_N@@QAE_N_N@Z PROC			; CEncrypt<bool>::operator=, COMDAT
; _this$ = ecx

; 225  : 	{

  00000	55		 push	 ebp
  00001	8b ec		 mov	 ebp, esp

; 226  : 		type value = inValue;

  00003	8a 45 08	 mov	 al, BYTE PTR _inValue$[ebp]
  00006	88 45 0b	 mov	 BYTE PTR _value$[ebp], al

; 227  : 		EncryptValueToPool((char*)&value);

  00009	8d 45 0b	 lea	 eax, DWORD PTR _value$[ebp]
  0000c	50		 push	 eax
  0000d	e8 00 00 00 00	 call	 ?EncryptValueToPool@?$CEncrypt@_N@@AAEXPBD@Z ; CEncrypt<bool>::EncryptValueToPool

; 228  : #ifdef _NOTUSE
; 229  : 		m_value = inValue;
; 230  : 		Debug();
; 231  : #endif
; 232  : 		return value;

  00012	8a 45 0b	 mov	 al, BYTE PTR _value$[ebp]

; 233  : 	}

  00015	5d		 pop	 ebp
  00016	c2 04 00	 ret	 4
??4?$CEncrypt@_N@@QAE_N_N@Z ENDP			; CEncrypt<bool>::operator=
_TEXT	ENDS
PUBLIC	?IsPrisonerMode@ioBaseChar@@QBE_NXZ		; ioBaseChar::IsPrisonerMode
; Function compile flags: /Ogsp
; File d:\lost saga for developer\youtube\tutorial\source\src\lsclient\iobasechar.h
;	COMDAT ?IsPrisonerMode@ioBaseChar@@QBE_NXZ
_TEXT	SEGMENT
_value$525308 = -1					; size = 1
?IsPrisonerMode@ioBaseChar@@QBE_NXZ PROC		; ioBaseChar::IsPrisonerMode, COMDAT
; _this$ = ecx

; 2130 : 	inline bool IsPrisonerMode() const { return m_bPrisonerMode; }

  00000	55		 push	 ebp
  00001	8b ec		 mov	 ebp, esp
  00003	51		 push	 ecx
  00004	8d 45 ff	 lea	 eax, DWORD PTR _value$525308[ebp]
  00007	50		 push	 eax
  00008	81 c1 cc 14 00
	00		 add	 ecx, 5324		; 000014ccH
  0000e	e8 00 00 00 00	 call	 ?DecryptValueToPool@?$CEncrypt@_N@@QAEXPA_N@Z ; CEncrypt<bool>::DecryptValueToPool
  00013	8a 45 ff	 mov	 al, BYTE PTR _value$525308[ebp]
  00016	c9		 leave
  00017	c3		 ret	 0
?IsPrisonerMode@ioBaseChar@@QBE_NXZ ENDP		; ioBaseChar::IsPrisonerMode
_TEXT	ENDS
PUBLIC	??_C@_00CNPNBAHC@?$AA@				; `string'
PUBLIC	_rkLoader$GSCopy$
PUBLIC	_this$GSCopy$
PUBLIC	__$ArrayPad$
EXTRN	__imp_??4ioHashString@@QAEAAV0@PBD@Z:PROC
EXTRN	?LoadProperty@ioBuff@@UAEXAAVioINILoader@@@Z:PROC ; ioBuff::LoadProperty
;	COMDAT ??_C@_00CNPNBAHC@?$AA@
; File d:\lost saga for developer\youtube\tutorial\source\src\lsclient\stringprotect.h
CONST	SEGMENT
??_C@_00CNPNBAHC@?$AA@ DB 00H				; `string'
; Function compile flags: /Ogsp
; File d:\lost saga for developer\youtube\tutorial\source\src\lsclient\iostunbuff.cpp
CONST	ENDS
;	COMDAT ?LoadProperty@ioStunBuff@@UAEXAAVioINILoader@@@Z
_TEXT	SEGMENT
_rkLoader$GSCopy$ = -316				; size = 4
_this$GSCopy$ = -312					; size = 4
_szBuf$ = -308						; size = 260
__k$525954 = -48					; size = 37
__k$525829 = -48					; size = 35
__k$525704 = -48					; size = 35
__k$525579 = -44					; size = 33
__k$525493 = -32					; size = 21
__k$525342 = -28					; size = 15
__$ArrayPad$ = -4					; size = 4
_rkLoader$ = 8						; size = 4
?LoadProperty@ioStunBuff@@UAEXAAVioINILoader@@@Z PROC	; ioStunBuff::LoadProperty, COMDAT
; _this$ = ecx

; 33   : {

  00000	55		 push	 ebp
  00001	8b ec		 mov	 ebp, esp
  00003	81 ec 3c 01 00
	00		 sub	 esp, 316		; 0000013cH
  00009	a1 00 00 00 00	 mov	 eax, DWORD PTR ___security_cookie
  0000e	33 c5		 xor	 eax, ebp
  00010	89 45 fc	 mov	 DWORD PTR __$ArrayPad$[ebp], eax
  00013	53		 push	 ebx
  00014	56		 push	 esi
  00015	8b 75 08	 mov	 esi, DWORD PTR _rkLoader$[ebp]
  00018	57		 push	 edi
  00019	8b f9		 mov	 edi, ecx

; 34   : 	ioBuff::LoadProperty( rkLoader );

  0001b	56		 push	 esi

; 51   : 
; 52   : 	rkLoader.LoadString_e( "creator_female_stun_female_animation", "", szBuf, MAX_PATH );

  0001c	89 bd c8 fe ff
	ff		 mov	 DWORD PTR _this$GSCopy$[ebp], edi
  00022	89 b5 c4 fe ff
	ff		 mov	 DWORD PTR _rkLoader$GSCopy$[ebp], esi
  00028	e8 00 00 00 00	 call	 ?LoadProperty@ioBuff@@UAEXAAVioINILoader@@@Z ; ioBuff::LoadProperty
  0002d	6a 03		 push	 3
  0002f	c7 45 e4 9e 98
	9e 84		 mov	 DWORD PTR __k$525342[ebp], -2069981026 ; 849e989eH
  00036	c7 45 e8 b2 8d
	85 83		 mov	 DWORD PTR __k$525342[ebp+4], -2088399438 ; 83858db2H
  0003d	c7 45 ec 80 8d
	9f 83		 mov	 DWORD PTR __k$525342[ebp+8], -2086695552 ; 839f8d80H
  00044	66 c7 45 f0 82
	82		 mov	 WORD PTR __k$525342[ebp+12], 33410 ; 00008282H
  0004a	8d 45 e4	 lea	 eax, DWORD PTR __k$525342[ebp]
  0004d	c6 45 f2 00	 mov	 BYTE PTR __k$525342[ebp+14], 0
  00051	59		 pop	 ecx
$LL106@LoadProper:

; 35   : 
; 36   : 	char szBuf[MAX_PATH];
; 37   : 	rkLoader.LoadString_e( "stun_animation", "", szBuf, MAX_PATH );

  00052	81 30 ed ec eb
	ea		 xor	 DWORD PTR [eax], -353637139 ; eaebecedH
  00058	83 c0 04	 add	 eax, 4
  0005b	49		 dec	 ecx
  0005c	75 f4		 jne	 SHORT $LL106@LoadProper
  0005e	6a 0c		 push	 12			; 0000000cH
  00060	58		 pop	 eax
$LL103@LoadProper:
  00061	8b c8		 mov	 ecx, eax
  00063	81 e1 03 00 00
	80		 and	 ecx, -2147483645	; 80000003H
  00069	79 05		 jns	 SHORT $LN663@LoadProper
  0006b	49		 dec	 ecx
  0006c	83 c9 fc	 or	 ecx, -4			; fffffffcH
  0006f	41		 inc	 ecx
$LN663@LoadProper:
  00070	b2 ed		 mov	 dl, -19			; ffffffedH
  00072	2a d1		 sub	 dl, cl
  00074	30 54 05 e4	 xor	 BYTE PTR __k$525342[ebp+eax], dl
  00078	40		 inc	 eax
  00079	83 f8 0e	 cmp	 eax, 14			; 0000000eH
  0007c	7c e3		 jl	 SHORT $LL103@LoadProper
  0007e	68 04 01 00 00	 push	 260			; 00000104H
  00083	8d 85 cc fe ff
	ff		 lea	 eax, DWORD PTR _szBuf$[ebp]
  00089	50		 push	 eax
  0008a	bb 00 00 00 00	 mov	 ebx, OFFSET ??_C@_00CNPNBAHC@?$AA@
  0008f	53		 push	 ebx
  00090	8d 45 e4	 lea	 eax, DWORD PTR __k$525342[ebp]
  00093	8b ce		 mov	 ecx, esi
  00095	8b 35 00 00 00
	00		 mov	 esi, DWORD PTR __imp_?LoadStringA@ioINILoader@@QAEXPBD0PADH@Z
  0009b	50		 push	 eax
  0009c	ff d6		 call	 esi

; 38   : 	m_StunAnimation = szBuf;

  0009e	8d 85 cc fe ff
	ff		 lea	 eax, DWORD PTR _szBuf$[ebp]
  000a4	8d 8f 6c 09 00
	00		 lea	 ecx, DWORD PTR [edi+2412]
  000aa	8b 3d 00 00 00
	00		 mov	 edi, DWORD PTR __imp_??4ioHashString@@QAEAAV0@PBD@Z
  000b0	50		 push	 eax
  000b1	ff d7		 call	 edi
  000b3	6a 05		 push	 5

; 39   : 
; 40   : 	rkLoader.LoadString_e( "stun_catch_animation", "", szBuf, MAX_PATH );

  000b5	c7 45 e0 9e 98
	9e 84		 mov	 DWORD PTR __k$525493[ebp], -2069981026 ; 849e989eH
  000bc	c7 45 e4 b2 8f
	8a 9e		 mov	 DWORD PTR __k$525493[ebp+4], -1635086414 ; 9e8a8fb2H
  000c3	c7 45 e8 8e 84
	b4 8b		 mov	 DWORD PTR __k$525493[ebp+8], -1951103858 ; 8bb4848eH
  000ca	c7 45 ec 83 85
	86 8b		 mov	 DWORD PTR __k$525493[ebp+12], -1954118269 ; 8b868583H
  000d1	c7 45 f0 99 85
	84 84		 mov	 DWORD PTR __k$525493[ebp+16], -2071689831 ; 84848599H
  000d8	8d 45 e0	 lea	 eax, DWORD PTR __k$525493[ebp]
  000db	c6 45 f4 00	 mov	 BYTE PTR __k$525493[ebp+20], 0
  000df	59		 pop	 ecx
$LL212@LoadProper:
  000e0	81 30 ed ec eb
	ea		 xor	 DWORD PTR [eax], -353637139 ; eaebecedH
  000e6	83 c0 04	 add	 eax, 4
  000e9	49		 dec	 ecx
  000ea	75 f4		 jne	 SHORT $LL212@LoadProper
  000ec	8b 8d c4 fe ff
	ff		 mov	 ecx, DWORD PTR _rkLoader$GSCopy$[ebp]
  000f2	68 04 01 00 00	 push	 260			; 00000104H
  000f7	8d 85 cc fe ff
	ff		 lea	 eax, DWORD PTR _szBuf$[ebp]
  000fd	50		 push	 eax
  000fe	53		 push	 ebx
  000ff	8d 45 e0	 lea	 eax, DWORD PTR __k$525493[ebp]
  00102	50		 push	 eax
  00103	ff d6		 call	 esi

; 41   : 	m_CatchAnimation = szBuf;

  00105	8b 8d c8 fe ff
	ff		 mov	 ecx, DWORD PTR _this$GSCopy$[ebp]
  0010b	8d 85 cc fe ff
	ff		 lea	 eax, DWORD PTR _szBuf$[ebp]
  00111	50		 push	 eax
  00112	81 c1 7c 09 00
	00		 add	 ecx, 2428		; 0000097cH
  00118	ff d7		 call	 edi
  0011a	6a 08		 push	 8

; 42   : 
; 43   : 	rkLoader.LoadString_e( "creator_male_stun_male_animation", "", szBuf, MAX_PATH );

  0011c	c7 45 d4 8e 9e
	8e 8b		 mov	 DWORD PTR __k$525579[ebp], -1953587570 ; 8b8e9e8eH
  00123	c7 45 d8 99 83
	99 b5		 mov	 DWORD PTR __k$525579[ebp+4], -1248230503 ; b5998399H
  0012a	c7 45 dc 80 8d
	87 8f		 mov	 DWORD PTR __k$525579[ebp+8], -1886941824 ; 8f878d80H
  00131	c7 45 e0 b2 9f
	9f 9f		 mov	 DWORD PTR __k$525579[ebp+12], -1616928846 ; 9f9f9fb2H
  00138	c7 45 e4 83 b3
	86 8b		 mov	 DWORD PTR __k$525579[ebp+16], -1954106493 ; 8b86b383H
  0013f	c7 45 e8 81 89
	b4 8b		 mov	 DWORD PTR __k$525579[ebp+20], -1951102591 ; 8bb48981H
  00146	c7 45 ec 83 85
	86 8b		 mov	 DWORD PTR __k$525579[ebp+24], -1954118269 ; 8b868583H
  0014d	c7 45 f0 99 85
	84 84		 mov	 DWORD PTR __k$525579[ebp+28], -2071689831 ; 84848599H
  00154	8d 45 d4	 lea	 eax, DWORD PTR __k$525579[ebp]
  00157	c6 45 f4 00	 mov	 BYTE PTR __k$525579[ebp+32], 0
  0015b	59		 pop	 ecx
$LL318@LoadProper:
  0015c	81 30 ed ec eb
	ea		 xor	 DWORD PTR [eax], -353637139 ; eaebecedH
  00162	83 c0 04	 add	 eax, 4
  00165	49		 dec	 ecx
  00166	75 f4		 jne	 SHORT $LL318@LoadProper
  00168	8b 8d c4 fe ff
	ff		 mov	 ecx, DWORD PTR _rkLoader$GSCopy$[ebp]
  0016e	68 04 01 00 00	 push	 260			; 00000104H
  00173	8d 85 cc fe ff
	ff		 lea	 eax, DWORD PTR _szBuf$[ebp]
  00179	50		 push	 eax
  0017a	53		 push	 ebx
  0017b	8d 45 d4	 lea	 eax, DWORD PTR __k$525579[ebp]
  0017e	50		 push	 eax
  0017f	ff d6		 call	 esi

; 44   : 	m_CMSMAnimation = szBuf;

  00181	8b 8d c8 fe ff
	ff		 mov	 ecx, DWORD PTR _this$GSCopy$[ebp]
  00187	8d 85 cc fe ff
	ff		 lea	 eax, DWORD PTR _szBuf$[ebp]
  0018d	50		 push	 eax
  0018e	81 c1 8c 09 00
	00		 add	 ecx, 2444		; 0000098cH
  00194	ff d7		 call	 edi
  00196	6a 08		 push	 8

; 45   : 
; 46   : 	rkLoader.LoadString_e( "creator_male_stun_female_animation", "", szBuf, MAX_PATH );

  00198	c7 45 d0 8e 9e
	8e 8b		 mov	 DWORD PTR __k$525704[ebp], -1953587570 ; 8b8e9e8eH
  0019f	c7 45 d4 99 83
	99 b5		 mov	 DWORD PTR __k$525704[ebp+4], -1248230503 ; b5998399H
  001a6	c7 45 d8 80 8d
	87 8f		 mov	 DWORD PTR __k$525704[ebp+8], -1886941824 ; 8f878d80H
  001ad	c7 45 dc b2 9f
	9f 9f		 mov	 DWORD PTR __k$525704[ebp+12], -1616928846 ; 9f9f9fb2H
  001b4	c7 45 e0 83 b3
	8d 8f		 mov	 DWORD PTR __k$525704[ebp+16], -1886538877 ; 8f8db383H
  001bb	c7 45 e4 80 8d
	87 8f		 mov	 DWORD PTR __k$525704[ebp+20], -1886941824 ; 8f878d80H
  001c2	c7 45 e8 b2 8d
	85 83		 mov	 DWORD PTR __k$525704[ebp+24], -2088399438 ; 83858db2H
  001c9	c7 45 ec 80 8d
	9f 83		 mov	 DWORD PTR __k$525704[ebp+28], -2086695552 ; 839f8d80H
  001d0	66 c7 45 f0 82
	82		 mov	 WORD PTR __k$525704[ebp+32], 33410 ; 00008282H
  001d6	8d 45 d0	 lea	 eax, DWORD PTR __k$525704[ebp]
  001d9	c6 45 f2 00	 mov	 BYTE PTR __k$525704[ebp+34], 0
  001dd	59		 pop	 ecx
$LL424@LoadProper:
  001de	81 30 ed ec eb
	ea		 xor	 DWORD PTR [eax], -353637139 ; eaebecedH
  001e4	83 c0 04	 add	 eax, 4
  001e7	49		 dec	 ecx
  001e8	75 f4		 jne	 SHORT $LL424@LoadProper
  001ea	6a 20		 push	 32			; 00000020H
  001ec	58		 pop	 eax
$LL421@LoadProper:
  001ed	8b c8		 mov	 ecx, eax
  001ef	81 e1 03 00 00
	80		 and	 ecx, -2147483645	; 80000003H
  001f5	79 05		 jns	 SHORT $LN664@LoadProper
  001f7	49		 dec	 ecx
  001f8	83 c9 fc	 or	 ecx, -4			; fffffffcH
  001fb	41		 inc	 ecx
$LN664@LoadProper:
  001fc	b2 ed		 mov	 dl, -19			; ffffffedH
  001fe	2a d1		 sub	 dl, cl
  00200	30 54 05 d0	 xor	 BYTE PTR __k$525704[ebp+eax], dl
  00204	40		 inc	 eax
  00205	83 f8 22	 cmp	 eax, 34			; 00000022H
  00208	7c e3		 jl	 SHORT $LL421@LoadProper
  0020a	8b 8d c4 fe ff
	ff		 mov	 ecx, DWORD PTR _rkLoader$GSCopy$[ebp]
  00210	68 04 01 00 00	 push	 260			; 00000104H
  00215	8d 85 cc fe ff
	ff		 lea	 eax, DWORD PTR _szBuf$[ebp]
  0021b	50		 push	 eax
  0021c	53		 push	 ebx
  0021d	8d 45 d0	 lea	 eax, DWORD PTR __k$525704[ebp]
  00220	50		 push	 eax
  00221	ff d6		 call	 esi

; 47   : 	m_CMSFAnimation = szBuf;

  00223	8b 8d c8 fe ff
	ff		 mov	 ecx, DWORD PTR _this$GSCopy$[ebp]
  00229	8d 85 cc fe ff
	ff		 lea	 eax, DWORD PTR _szBuf$[ebp]
  0022f	50		 push	 eax
  00230	81 c1 9c 09 00
	00		 add	 ecx, 2460		; 0000099cH
  00236	ff d7		 call	 edi
  00238	6a 08		 push	 8

; 48   : 
; 49   : 	rkLoader.LoadString_e( "creator_female_stun_male_animation", "", szBuf, MAX_PATH );

  0023a	c7 45 d0 8e 9e
	8e 8b		 mov	 DWORD PTR __k$525829[ebp], -1953587570 ; 8b8e9e8eH
  00241	c7 45 d4 99 83
	99 b5		 mov	 DWORD PTR __k$525829[ebp+4], -1248230503 ; b5998399H
  00248	c7 45 d8 8b 89
	86 8b		 mov	 DWORD PTR __k$525829[ebp+8], -1954117237 ; 8b86898bH
  0024f	c7 45 dc 81 89
	b4 99		 mov	 DWORD PTR __k$525829[ebp+12], -1716221567 ; 99b48981H
  00256	c7 45 e0 99 99
	85 b5		 mov	 DWORD PTR __k$525829[ebp+16], -1249535591 ; b5859999H
  0025d	c7 45 e4 80 8d
	87 8f		 mov	 DWORD PTR __k$525829[ebp+20], -1886941824 ; 8f878d80H
  00264	c7 45 e8 b2 8d
	85 83		 mov	 DWORD PTR __k$525829[ebp+24], -2088399438 ; 83858db2H
  0026b	c7 45 ec 80 8d
	9f 83		 mov	 DWORD PTR __k$525829[ebp+28], -2086695552 ; 839f8d80H
  00272	66 c7 45 f0 82
	82		 mov	 WORD PTR __k$525829[ebp+32], 33410 ; 00008282H
  00278	8d 45 d0	 lea	 eax, DWORD PTR __k$525829[ebp]
  0027b	c6 45 f2 00	 mov	 BYTE PTR __k$525829[ebp+34], 0
  0027f	59		 pop	 ecx
$LL530@LoadProper:
  00280	81 30 ed ec eb
	ea		 xor	 DWORD PTR [eax], -353637139 ; eaebecedH
  00286	83 c0 04	 add	 eax, 4
  00289	49		 dec	 ecx
  0028a	75 f4		 jne	 SHORT $LL530@LoadProper
  0028c	6a 20		 push	 32			; 00000020H
  0028e	58		 pop	 eax
$LL527@LoadProper:
  0028f	8b c8		 mov	 ecx, eax
  00291	81 e1 03 00 00
	80		 and	 ecx, -2147483645	; 80000003H
  00297	79 05		 jns	 SHORT $LN665@LoadProper
  00299	49		 dec	 ecx
  0029a	83 c9 fc	 or	 ecx, -4			; fffffffcH
  0029d	41		 inc	 ecx
$LN665@LoadProper:
  0029e	b2 ed		 mov	 dl, -19			; ffffffedH
  002a0	2a d1		 sub	 dl, cl
  002a2	30 54 05 d0	 xor	 BYTE PTR __k$525829[ebp+eax], dl
  002a6	40		 inc	 eax
  002a7	83 f8 22	 cmp	 eax, 34			; 00000022H
  002aa	7c e3		 jl	 SHORT $LL527@LoadProper
  002ac	8b 8d c4 fe ff
	ff		 mov	 ecx, DWORD PTR _rkLoader$GSCopy$[ebp]
  002b2	68 04 01 00 00	 push	 260			; 00000104H
  002b7	8d 85 cc fe ff
	ff		 lea	 eax, DWORD PTR _szBuf$[ebp]
  002bd	50		 push	 eax
  002be	53		 push	 ebx
  002bf	8d 45 d0	 lea	 eax, DWORD PTR __k$525829[ebp]
  002c2	50		 push	 eax
  002c3	ff d6		 call	 esi

; 50   : 	m_CFSMAnimation = szBuf;

  002c5	8b 8d c8 fe ff
	ff		 mov	 ecx, DWORD PTR _this$GSCopy$[ebp]
  002cb	8d 85 cc fe ff
	ff		 lea	 eax, DWORD PTR _szBuf$[ebp]
  002d1	50		 push	 eax
  002d2	81 c1 ac 09 00
	00		 add	 ecx, 2476		; 000009acH
  002d8	ff d7		 call	 edi
  002da	6a 09		 push	 9

; 51   : 
; 52   : 	rkLoader.LoadString_e( "creator_female_stun_female_animation", "", szBuf, MAX_PATH );

  002dc	c7 45 d0 8e 9e
	8e 8b		 mov	 DWORD PTR __k$525954[ebp], -1953587570 ; 8b8e9e8eH
  002e3	c7 45 d4 99 83
	99 b5		 mov	 DWORD PTR __k$525954[ebp+4], -1248230503 ; b5998399H
  002ea	c7 45 d8 8b 89
	86 8b		 mov	 DWORD PTR __k$525954[ebp+8], -1954117237 ; 8b86898bH
  002f1	c7 45 dc 81 89
	b4 99		 mov	 DWORD PTR __k$525954[ebp+12], -1716221567 ; 99b48981H
  002f8	c7 45 e0 99 99
	85 b5		 mov	 DWORD PTR __k$525954[ebp+16], -1249535591 ; b5859999H
  002ff	c7 45 e4 8b 89
	86 8b		 mov	 DWORD PTR __k$525954[ebp+20], -1954117237 ; 8b86898bH
  00306	c7 45 e8 81 89
	b4 8b		 mov	 DWORD PTR __k$525954[ebp+24], -1951102591 ; 8bb48981H
  0030d	c7 45 ec 83 85
	86 8b		 mov	 DWORD PTR __k$525954[ebp+28], -1954118269 ; 8b868583H
  00314	c7 45 f0 99 85
	84 84		 mov	 DWORD PTR __k$525954[ebp+32], -2071689831 ; 84848599H
  0031b	8d 45 d0	 lea	 eax, DWORD PTR __k$525954[ebp]
  0031e	c6 45 f4 00	 mov	 BYTE PTR __k$525954[ebp+36], 0
  00322	59		 pop	 ecx
$LL636@LoadProper:
  00323	81 30 ed ec eb
	ea		 xor	 DWORD PTR [eax], -353637139 ; eaebecedH
  00329	83 c0 04	 add	 eax, 4
  0032c	49		 dec	 ecx
  0032d	75 f4		 jne	 SHORT $LL636@LoadProper
  0032f	8b 8d c4 fe ff
	ff		 mov	 ecx, DWORD PTR _rkLoader$GSCopy$[ebp]
  00335	68 04 01 00 00	 push	 260			; 00000104H
  0033a	8d 85 cc fe ff
	ff		 lea	 eax, DWORD PTR _szBuf$[ebp]
  00340	50		 push	 eax
  00341	53		 push	 ebx
  00342	8d 45 d0	 lea	 eax, DWORD PTR __k$525954[ebp]
  00345	50		 push	 eax
  00346	ff d6		 call	 esi

; 53   : 	m_CFSFAnimation = szBuf;

  00348	8b 8d c8 fe ff
	ff		 mov	 ecx, DWORD PTR _this$GSCopy$[ebp]
  0034e	8d 85 cc fe ff
	ff		 lea	 eax, DWORD PTR _szBuf$[ebp]
  00354	50		 push	 eax
  00355	81 c1 bc 09 00
	00		 add	 ecx, 2492		; 000009bcH
  0035b	ff d7		 call	 edi

; 54   : }

  0035d	8b 4d fc	 mov	 ecx, DWORD PTR __$ArrayPad$[ebp]
  00360	5f		 pop	 edi
  00361	5e		 pop	 esi
  00362	33 cd		 xor	 ecx, ebp
  00364	5b		 pop	 ebx
  00365	e8 00 00 00 00	 call	 @__security_check_cookie@4
  0036a	c9		 leave
  0036b	c2 04 00	 ret	 4
?LoadProperty@ioStunBuff@@UAEXAAVioINILoader@@@Z ENDP	; ioStunBuff::LoadProperty
_TEXT	ENDS
EXTRN	?GetBuffDuration@ioBuff@@IAEKXZ:PROC		; ioBuff::GetBuffDuration
EXTRN	__imp_??4ioHashString@@QAEAAV0@ABV0@@Z:PROC
EXTRN	__imp_?GetLoopSec@ioFrameTimer@@QBEKXZ:PROC
EXTRN	__imp_?GetSingleton@ioFrameTimer@@SAAAV1@XZ:PROC
; Function compile flags: /Ogsp
;	COMDAT ?StartBuff@ioStunBuff@@UAEXPAVioBaseChar@@@Z
_TEXT	SEGMENT
$T526095 = -4						; size = 4
_value$526114 = 8					; size = 4
_value$526109 = 8					; size = 4
_value$526105 = 8					; size = 4
_value$526101 = 8					; size = 4
_pOwner$ = 8						; size = 4
_value$526118 = 11					; size = 1
?StartBuff@ioStunBuff@@UAEXPAVioBaseChar@@@Z PROC	; ioStunBuff::StartBuff, COMDAT
; _this$ = ecx

; 62   : {

  00000	55		 push	 ebp
  00001	8b ec		 mov	 ebp, esp
  00003	51		 push	 ecx
  00004	53		 push	 ebx

; 63   : #ifndef SHIPPING 
; 64   : 	if( Setting::ShowExtraInfo() )
; 65   : 	{
; 66   : 		LOG.PrintTimeAndLog( 0, "BuffCheck - %s, StartTime: %d", m_Name.c_str(), FRAMEGETTIME() );
; 67   : 	}
; 68   : #endif
; 69   : 
; 70   : 	if( !pOwner )

  00005	8b 5d 08	 mov	 ebx, DWORD PTR _pOwner$[ebp]
  00008	56		 push	 esi
  00009	8b f1		 mov	 esi, ecx
  0000b	85 db		 test	 ebx, ebx
  0000d	0f 84 c5 00 00
	00		 je	 $LN1@StartBuff

; 71   : 		return;
; 72   : 
; 73   : 	DWORD dwCurTime = FRAMEGETTIME();

  00013	57		 push	 edi
  00014	ff 15 00 00 00
	00		 call	 DWORD PTR __imp_?GetSingleton@ioFrameTimer@@SAAAV1@XZ
  0001a	8b c8		 mov	 ecx, eax
  0001c	ff 15 00 00 00
	00		 call	 DWORD PTR __imp_?GetLoopSec@ioFrameTimer@@QBEKXZ

; 74   : 	m_pOwner = pOwner;

  00022	89 9e 74 02 00
	00		 mov	 DWORD PTR [esi+628], ebx

; 75   : 	m_OwnerName = pOwner->GetCharName();

  00028	81 c3 d4 02 00
	00		 add	 ebx, 724		; 000002d4H
  0002e	53		 push	 ebx
  0002f	8d 8e 78 02 00
	00		 lea	 ecx, DWORD PTR [esi+632]
  00035	8b f8		 mov	 edi, eax
  00037	ff 15 00 00 00
	00		 call	 DWORD PTR __imp_??4ioHashString@@QAEAAV0@ABV0@@Z

; 76   : 
; 77   : 	m_dwBuffStartTime = dwCurTime;

  0003d	8d 45 08	 lea	 eax, DWORD PTR _value$526101[ebp]
  00040	50		 push	 eax
  00041	8d 8e 6c 03 00
	00		 lea	 ecx, DWORD PTR [esi+876]
  00047	89 7d 08	 mov	 DWORD PTR _value$526101[ebp], edi
  0004a	e8 00 00 00 00	 call	 ?EncryptValueToPool@?$CEncrypt@K@@AAEXPBD@Z ; CEncrypt<unsigned long>::EncryptValueToPool

; 78   : 	if( m_iOperationType == OT_DELAY )

  0004f	83 be d0 03 00
	00 03		 cmp	 DWORD PTR [esi+976], 3
  00056	75 12		 jne	 SHORT $LN2@StartBuff

; 79   : 		m_dwBuffStartTime += m_dwDelayDuration;

  00058	8d 86 d8 02 00
	00		 lea	 eax, DWORD PTR [esi+728]
  0005e	50		 push	 eax
  0005f	8d 8e 6c 03 00
	00		 lea	 ecx, DWORD PTR [esi+876]
  00065	e8 00 00 00 00	 call	 ??Y?$CEncrypt@K@@QAEAAKABK@Z ; CEncrypt<unsigned long>::operator+=
$LN2@StartBuff:

; 80   : 
; 81   : 	m_dwBuffEndTime = m_dwBuffStartTime + GetBuffDuration();

  0006a	8b ce		 mov	 ecx, esi
  0006c	e8 00 00 00 00	 call	 ?GetBuffDuration@ioBuff@@IAEKXZ ; ioBuff::GetBuffDuration
  00071	89 45 fc	 mov	 DWORD PTR $T526095[ebp], eax
  00074	8d 45 08	 lea	 eax, DWORD PTR _value$526105[ebp]
  00077	50		 push	 eax
  00078	8d 8e 6c 03 00
	00		 lea	 ecx, DWORD PTR [esi+876]
  0007e	e8 00 00 00 00	 call	 ?DecryptValueToPool@?$CEncrypt@K@@QAEXPAK@Z ; CEncrypt<unsigned long>::DecryptValueToPool
  00083	8b 45 08	 mov	 eax, DWORD PTR _value$526105[ebp]
  00086	03 45 fc	 add	 eax, DWORD PTR $T526095[ebp]
  00089	8d 8e 9c 03 00
	00		 lea	 ecx, DWORD PTR [esi+924]
  0008f	89 45 08	 mov	 DWORD PTR _value$526109[ebp], eax
  00092	8d 45 08	 lea	 eax, DWORD PTR _value$526109[ebp]
  00095	50		 push	 eax
  00096	e8 00 00 00 00	 call	 ?EncryptValueToPool@?$CEncrypt@K@@AAEXPBD@Z ; CEncrypt<unsigned long>::EncryptValueToPool

; 82   : 	m_dwCheckTime = dwCurTime;

  0009b	8d 45 08	 lea	 eax, DWORD PTR _value$526114[ebp]
  0009e	50		 push	 eax
  0009f	8d 8e 3c 03 00
	00		 lea	 ecx, DWORD PTR [esi+828]
  000a5	89 7d 08	 mov	 DWORD PTR _value$526114[ebp], edi
  000a8	e8 00 00 00 00	 call	 ?EncryptValueToPool@?$CEncrypt@K@@AAEXPBD@Z ; CEncrypt<unsigned long>::EncryptValueToPool

; 83   : 
; 84   : 	m_BuffEffectID = -1;

  000ad	83 8e cc 09 00
	00 ff		 or	 DWORD PTR [esi+2508], -1

; 85   : 	
; 86   : 	m_bLive = true;

  000b4	8d 45 0b	 lea	 eax, DWORD PTR _value$526118[ebp]
  000b7	50		 push	 eax
  000b8	8d 8e 70 07 00
	00		 lea	 ecx, DWORD PTR [esi+1904]
  000be	c6 45 0b 01	 mov	 BYTE PTR _value$526118[ebp], 1
  000c2	e8 00 00 00 00	 call	 ?EncryptValueToPool@?$CEncrypt@_N@@AAEXPBD@Z ; CEncrypt<bool>::EncryptValueToPool

; 87   : 
; 88   : 	if( m_iOperationType != OT_DELAY )

  000c7	83 be d0 03 00
	00 03		 cmp	 DWORD PTR [esi+976], 3
  000ce	5f		 pop	 edi
  000cf	74 07		 je	 SHORT $LN1@StartBuff

; 89   : 	{
; 90   : 		SetAction();

  000d1	8b 06		 mov	 eax, DWORD PTR [esi]
  000d3	8b ce		 mov	 ecx, esi
  000d5	ff 50 34	 call	 DWORD PTR [eax+52]
$LN1@StartBuff:
  000d8	5e		 pop	 esi
  000d9	5b		 pop	 ebx

; 91   : 	}
; 92   : }

  000da	c9		 leave
  000db	c2 04 00	 ret	 4
?StartBuff@ioStunBuff@@UAEXPAVioBaseChar@@@Z ENDP	; ioStunBuff::StartBuff
_TEXT	ENDS
EXTRN	?CalcGlobalGapTime@ioGlobalTimer@@QBEKK@Z:PROC	; ioGlobalTimer::CalcGlobalGapTime
EXTRN	?GetSingleton@ioGlobalTimer@@SAAAV1@XZ:PROC	; ioGlobalTimer::GetSingleton
; Function compile flags: /Ogsp
;	COMDAT ?ApplyStartBuff@ioStunBuff@@UAE_NPAVioBaseChar@@KK@Z
_TEXT	SEGMENT
_value$526139 = 8					; size = 4
_value$526134 = 8					; size = 4
_value$526130 = 8					; size = 4
_value$526125 = 8					; size = 4
_dwGlobalTimeGap$ = 8					; size = 4
_pOwner$ = 8						; size = 4
_value$526144 = 11					; size = 1
$T526122 = 12						; size = 4
_dwGlobalTime$ = 12					; size = 4
_dwGapTime$ = 16					; size = 4
?ApplyStartBuff@ioStunBuff@@UAE_NPAVioBaseChar@@KK@Z PROC ; ioStunBuff::ApplyStartBuff, COMDAT
; _this$ = ecx

; 95   : {

  00000	55		 push	 ebp
  00001	8b ec		 mov	 ebp, esp

; 96   : 	m_pOwner = pOwner;

  00003	8b 45 08	 mov	 eax, DWORD PTR _pOwner$[ebp]
  00006	53		 push	 ebx
  00007	56		 push	 esi
  00008	57		 push	 edi

; 97   : 	DWORD dwGlobalTimeGap = g_GlobalTimer.CalcGlobalGapTime( dwGlobalTime );

  00009	ff 75 0c	 push	 DWORD PTR _dwGlobalTime$[ebp]
  0000c	8b f1		 mov	 esi, ecx
  0000e	89 86 74 02 00
	00		 mov	 DWORD PTR [esi+628], eax
  00014	e8 00 00 00 00	 call	 ?GetSingleton@ioGlobalTimer@@SAAAV1@XZ ; ioGlobalTimer::GetSingleton
  00019	8b c8		 mov	 ecx, eax
  0001b	e8 00 00 00 00	 call	 ?CalcGlobalGapTime@ioGlobalTimer@@QBEKK@Z ; ioGlobalTimer::CalcGlobalGapTime

; 98   : 
; 99   : 	if( m_iOperationType != OT_SWITCH )

  00020	83 be d0 03 00
	00 02		 cmp	 DWORD PTR [esi+976], 2
  00027	8b 1d 00 00 00
	00		 mov	 ebx, DWORD PTR __imp_?GetSingleton@ioFrameTimer@@SAAAV1@XZ
  0002d	89 45 08	 mov	 DWORD PTR _dwGlobalTimeGap$[ebp], eax
  00030	74 60		 je	 SHORT $LN10@ApplyStart

; 100  : 	{
; 101  : 		if( dwGlobalTimeGap > dwGapTime )

  00032	8b 7d 10	 mov	 edi, DWORD PTR _dwGapTime$[ebp]
  00035	3b c7		 cmp	 eax, edi
  00037	76 07		 jbe	 SHORT $LN2@ApplyStart

; 102  : 			return false;

  00039	32 c0		 xor	 al, al
  0003b	e9 93 00 00 00	 jmp	 $LN4@ApplyStart
$LN2@ApplyStart:

; 103  : 
; 104  : 		dwGapTime -= dwGlobalTimeGap;
; 105  : 		m_dwBuffEndTime = FRAMEGETTIME() + dwGapTime;

  00040	ff d3		 call	 ebx
  00042	8b c8		 mov	 ecx, eax
  00044	ff 15 00 00 00
	00		 call	 DWORD PTR __imp_?GetLoopSec@ioFrameTimer@@QBEKXZ
  0004a	2b 7d 08	 sub	 edi, DWORD PTR _dwGlobalTimeGap$[ebp]
  0004d	8d 8e 9c 03 00
	00		 lea	 ecx, DWORD PTR [esi+924]
  00053	03 c7		 add	 eax, edi
  00055	89 45 08	 mov	 DWORD PTR _value$526125[ebp], eax
  00058	8d 45 08	 lea	 eax, DWORD PTR _value$526125[ebp]
  0005b	50		 push	 eax
  0005c	e8 00 00 00 00	 call	 ?EncryptValueToPool@?$CEncrypt@K@@AAEXPBD@Z ; CEncrypt<unsigned long>::EncryptValueToPool

; 106  : 		m_dwBuffStartTime = m_dwBuffEndTime - GetBuffDuration();

  00061	8b ce		 mov	 ecx, esi
  00063	e8 00 00 00 00	 call	 ?GetBuffDuration@ioBuff@@IAEKXZ ; ioBuff::GetBuffDuration
  00068	89 45 0c	 mov	 DWORD PTR $T526122[ebp], eax
  0006b	8d 45 08	 lea	 eax, DWORD PTR _value$526130[ebp]
  0006e	50		 push	 eax
  0006f	8d 8e 9c 03 00
	00		 lea	 ecx, DWORD PTR [esi+924]
  00075	e8 00 00 00 00	 call	 ?DecryptValueToPool@?$CEncrypt@K@@QAEXPAK@Z ; CEncrypt<unsigned long>::DecryptValueToPool
  0007a	8b 45 08	 mov	 eax, DWORD PTR _value$526130[ebp]
  0007d	2b 45 0c	 sub	 eax, DWORD PTR $T526122[ebp]
  00080	8d 8e 6c 03 00
	00		 lea	 ecx, DWORD PTR [esi+876]
  00086	89 45 08	 mov	 DWORD PTR _value$526134[ebp], eax
  00089	8d 45 08	 lea	 eax, DWORD PTR _value$526134[ebp]
  0008c	50		 push	 eax
  0008d	e8 00 00 00 00	 call	 ?EncryptValueToPool@?$CEncrypt@K@@AAEXPBD@Z ; CEncrypt<unsigned long>::EncryptValueToPool
$LN10@ApplyStart:

; 107  : 	}
; 108  : 
; 109  : 	m_dwCheckTime = FRAMEGETTIME();

  00092	ff d3		 call	 ebx
  00094	8b c8		 mov	 ecx, eax
  00096	ff 15 00 00 00
	00		 call	 DWORD PTR __imp_?GetLoopSec@ioFrameTimer@@QBEKXZ
  0009c	89 45 08	 mov	 DWORD PTR _value$526139[ebp], eax
  0009f	8d 45 08	 lea	 eax, DWORD PTR _value$526139[ebp]
  000a2	50		 push	 eax
  000a3	8d 8e 3c 03 00
	00		 lea	 ecx, DWORD PTR [esi+828]
  000a9	e8 00 00 00 00	 call	 ?EncryptValueToPool@?$CEncrypt@K@@AAEXPBD@Z ; CEncrypt<unsigned long>::EncryptValueToPool

; 110  : 	m_bLive = true;

  000ae	8d 45 0b	 lea	 eax, DWORD PTR _value$526144[ebp]
  000b1	50		 push	 eax
  000b2	8d 8e 70 07 00
	00		 lea	 ecx, DWORD PTR [esi+1904]
  000b8	c6 45 0b 01	 mov	 BYTE PTR _value$526144[ebp], 1
  000bc	e8 00 00 00 00	 call	 ?EncryptValueToPool@?$CEncrypt@_N@@AAEXPBD@Z ; CEncrypt<bool>::EncryptValueToPool

; 111  : 
; 112  : 	if( m_iOperationType != OT_DELAY )

  000c1	83 be d0 03 00
	00 03		 cmp	 DWORD PTR [esi+976], 3
  000c8	74 07		 je	 SHORT $LN1@ApplyStart

; 113  : 	{
; 114  : 		SetAction();

  000ca	8b 06		 mov	 eax, DWORD PTR [esi]
  000cc	8b ce		 mov	 ecx, esi
  000ce	ff 50 34	 call	 DWORD PTR [eax+52]
$LN1@ApplyStart:

; 115  : 	}
; 116  : 
; 117  : 	return true;

  000d1	b0 01		 mov	 al, 1
$LN4@ApplyStart:
  000d3	5f		 pop	 edi
  000d4	5e		 pop	 esi
  000d5	5b		 pop	 ebx

; 118  : }

  000d6	5d		 pop	 ebp
  000d7	c2 0c 00	 ret	 12			; 0000000cH
?ApplyStartBuff@ioStunBuff@@UAE_NPAVioBaseChar@@KK@Z ENDP ; ioStunBuff::ApplyStartBuff
_TEXT	ENDS
EXTRN	?SetDashFailStart@ioBaseChar@@QAEXXZ:PROC	; ioBaseChar::SetDashFailStart
EXTRN	?SetState@ioBaseChar@@QAEXH_N@Z:PROC		; ioBaseChar::SetState
EXTRN	?CheckCallWeaponEnd@ioBuff@@IAEXXZ:PROC		; ioBuff::CheckCallWeaponEnd
EXTRN	?CheckBuffEndBuff@ioBuff@@IAEXXZ:PROC		; ioBuff::CheckBuffEndBuff
EXTRN	?DestroyAreaWeapon@ioBuff@@IAEXXZ:PROC		; ioBuff::DestroyAreaWeapon
EXTRN	?SetEmoticon@ioBaseGUISupport@@QAEXABVioHashString@@W4EmoticonType@@K@Z:PROC ; ioBaseGUISupport::SetEmoticon
EXTRN	__imp_?StopSound@ioSoundManager@@QAEXABVioHashString@@K@Z:PROC
EXTRN	__imp_?GetSingleton@ioSoundManager@@SAAAV1@XZ:PROC
EXTRN	__imp_?IsEmpty@ioHashString@@QBE_NXZ:PROC
EXTRN	?EndEmoticonByName@ioBaseGUISupport@@QAEXABVioHashString@@@Z:PROC ; ioBaseGUISupport::EndEmoticonByName
EXTRN	?AttachEffect@ioBaseChar@@QAEPAVioEffect@@ABVioHashString@@PAVioEntityEvent@@_N@Z:PROC ; ioBaseChar::AttachEffect
EXTRN	?GetEffectEventOwner@ioBuff@@IAEPAVioBaseChar@@XZ:PROC ; ioBuff::GetEffectEventOwner
EXTRN	?EndEffect@ioBaseChar@@QAEXK_N@Z:PROC		; ioBaseChar::EndEffect
EXTRN	?CheckChangeColor@ioBuff@@IAEX_N@Z:PROC		; ioBuff::CheckChangeColor
EXTRN	?CheckChangeSkill@ioBuff@@IAEX_N@Z:PROC		; ioBuff::CheckChangeSkill
EXTRN	?CheckInvisibleHelmet@ioBuff@@IAEX_N@Z:PROC	; ioBuff::CheckInvisibleHelmet
EXTRN	?CheckInvisibleCloak@ioBuff@@IAEX_N@Z:PROC	; ioBuff::CheckInvisibleCloak
EXTRN	?CheckInvisibleWeapon@ioBuff@@IAEX_N@Z:PROC	; ioBuff::CheckInvisibleWeapon
; Function compile flags: /Ogsp
;	COMDAT ?EndBuff@ioStunBuff@@UAEXXZ
_TEXT	SEGMENT
_value$526150 = -1					; size = 1
?EndBuff@ioStunBuff@@UAEXXZ PROC			; ioStunBuff::EndBuff, COMDAT
; _this$ = ecx

; 175  : {

  00000	55		 push	 ebp
  00001	8b ec		 mov	 ebp, esp
  00003	51		 push	 ecx
  00004	53		 push	 ebx
  00005	56		 push	 esi
  00006	57		 push	 edi

; 176  : #ifndef SHIPPING 
; 177  : 	if( Setting::ShowExtraInfo() )
; 178  : 	{
; 179  : 		if( m_iBuffType != BT_CAMERA_BUFF )
; 180  : 			LOG.PrintTimeAndLog( 0, "BuffCheck - %s, EndTime: %d", m_Name.c_str(), FRAMEGETTIME() );
; 181  : 	}
; 182  : #endif
; 183  : 
; 184  : 	CheckInvisibleWeapon( true );

  00007	33 ff		 xor	 edi, edi
  00009	47		 inc	 edi
  0000a	57		 push	 edi
  0000b	8b f1		 mov	 esi, ecx
  0000d	e8 00 00 00 00	 call	 ?CheckInvisibleWeapon@ioBuff@@IAEX_N@Z ; ioBuff::CheckInvisibleWeapon

; 185  : 	CheckInvisibleCloak( true );

  00012	57		 push	 edi
  00013	8b ce		 mov	 ecx, esi
  00015	e8 00 00 00 00	 call	 ?CheckInvisibleCloak@ioBuff@@IAEX_N@Z ; ioBuff::CheckInvisibleCloak

; 186  : 	CheckInvisibleHelmet( true );

  0001a	57		 push	 edi
  0001b	8b ce		 mov	 ecx, esi
  0001d	e8 00 00 00 00	 call	 ?CheckInvisibleHelmet@ioBuff@@IAEX_N@Z ; ioBuff::CheckInvisibleHelmet

; 187  : 	CheckChangeSkill( false );

  00022	33 db		 xor	 ebx, ebx
  00024	53		 push	 ebx
  00025	8b ce		 mov	 ecx, esi
  00027	e8 00 00 00 00	 call	 ?CheckChangeSkill@ioBuff@@IAEX_N@Z ; ioBuff::CheckChangeSkill

; 188  : 	CheckChangeColor( false );

  0002c	53		 push	 ebx
  0002d	8b ce		 mov	 ecx, esi
  0002f	e8 00 00 00 00	 call	 ?CheckChangeColor@ioBuff@@IAEX_N@Z ; ioBuff::CheckChangeColor

; 189  : 
; 190  : 	if( m_BuffEffectID != -1) m_pOwner->EndEffect( m_BuffEffectID, false );

  00034	8b 86 cc 09 00
	00		 mov	 eax, DWORD PTR [esi+2508]
  0003a	83 f8 ff	 cmp	 eax, -1
  0003d	74 0d		 je	 SHORT $LN8@EndBuff
  0003f	8b 8e 74 02 00
	00		 mov	 ecx, DWORD PTR [esi+628]
  00045	53		 push	 ebx
  00046	50		 push	 eax
  00047	e8 00 00 00 00	 call	 ?EndEffect@ioBaseChar@@QAEXK_N@Z ; ioBaseChar::EndEffect
$LN8@EndBuff:

; 191  : 	m_pOwner->AttachEffect( m_BuffEndEffect, GetEffectEventOwner() );

  0004c	57		 push	 edi
  0004d	8b ce		 mov	 ecx, esi
  0004f	e8 00 00 00 00	 call	 ?GetEffectEventOwner@ioBuff@@IAEPAVioBaseChar@@XZ ; ioBuff::GetEffectEventOwner
  00054	8b 8e 74 02 00
	00		 mov	 ecx, DWORD PTR [esi+628]
  0005a	50		 push	 eax
  0005b	8d 86 ec 05 00
	00		 lea	 eax, DWORD PTR [esi+1516]
  00061	50		 push	 eax
  00062	e8 00 00 00 00	 call	 ?AttachEffect@ioBaseChar@@QAEPAVioEffect@@ABVioHashString@@PAVioEntityEvent@@_N@Z ; ioBaseChar::AttachEffect

; 192  : 
; 193  : 	if( m_bDescEqualDuration )

  00067	38 9e d4 02 00
	00		 cmp	 BYTE PTR [esi+724], bl
  0006d	74 18		 je	 SHORT $LN7@EndBuff

; 194  : 		m_pOwner->EndEmoticonByName( m_DescName );

  0006f	8b 8e 74 02 00
	00		 mov	 ecx, DWORD PTR [esi+628]
  00075	8d 86 a4 02 00
	00		 lea	 eax, DWORD PTR [esi+676]
  0007b	50		 push	 eax
  0007c	81 c1 cc 01 00
	00		 add	 ecx, 460		; 000001ccH
  00082	e8 00 00 00 00	 call	 ?EndEmoticonByName@ioBaseGUISupport@@QAEXABVioHashString@@@Z ; ioBaseGUISupport::EndEmoticonByName
$LN7@EndBuff:

; 195  : 
; 196  : 	if( m_bLoopSoundPlayed && !m_LoopSound.IsEmpty() )

  00087	8d 45 ff	 lea	 eax, DWORD PTR _value$526150[ebp]
  0008a	50		 push	 eax
  0008b	8d 8e 60 08 00
	00		 lea	 ecx, DWORD PTR [esi+2144]
  00091	e8 00 00 00 00	 call	 ?DecryptValueToPool@?$CEncrypt@_N@@QAEXPA_N@Z ; CEncrypt<bool>::DecryptValueToPool
  00096	38 5d ff	 cmp	 BYTE PTR _value$526150[ebp], bl
  00099	74 27		 je	 SHORT $LN6@EndBuff
  0009b	8d be fc 05 00
	00		 lea	 edi, DWORD PTR [esi+1532]
  000a1	8b cf		 mov	 ecx, edi
  000a3	ff 15 00 00 00
	00		 call	 DWORD PTR __imp_?IsEmpty@ioHashString@@QBE_NXZ
  000a9	84 c0		 test	 al, al
  000ab	75 15		 jne	 SHORT $LN6@EndBuff

; 197  : 	{
; 198  : 		g_SoundMgr.StopSound( m_LoopSound, m_LoopSoundID );

  000ad	ff b6 0c 06 00
	00		 push	 DWORD PTR [esi+1548]
  000b3	57		 push	 edi
  000b4	ff 15 00 00 00
	00		 call	 DWORD PTR __imp_?GetSingleton@ioSoundManager@@SAAAV1@XZ
  000ba	8b c8		 mov	 ecx, eax
  000bc	ff 15 00 00 00
	00		 call	 DWORD PTR __imp_?StopSound@ioSoundManager@@QAEXABVioHashString@@K@Z
$LN6@EndBuff:

; 199  : 		//g_SoundMgr.StopSound( m_LoopSound, 0 );
; 200  : 	}
; 201  : 
; 202  : 	if( IsBadStateBuff() )
; 203  : 	{
; 204  : 		if( !m_pOwner->IsOwnerChar() )

  000c2	8b 86 74 02 00
	00		 mov	 eax, DWORD PTR [esi+628]
  000c8	38 9e a3 06 00
	00		 cmp	 BYTE PTR [esi+1699], bl
  000ce	74 0d		 je	 SHORT $LN5@EndBuff
  000d0	38 98 84 13 00
	00		 cmp	 BYTE PTR [eax+4996], bl
  000d6	75 22		 jne	 SHORT $LN2@EndBuff

; 205  : 			m_pOwner->SetEmoticon( m_EndEmoticon, EMT_BAD_STATE );

  000d8	53		 push	 ebx
  000d9	6a 03		 push	 3

; 206  : 	}
; 207  : 	else

  000db	eb 0b		 jmp	 SHORT $LN23@EndBuff
$LN5@EndBuff:

; 208  : 	{
; 209  : 		if( !m_pOwner->IsOwnerChar() )

  000dd	38 98 84 13 00
	00		 cmp	 BYTE PTR [eax+4996], bl
  000e3	75 15		 jne	 SHORT $LN2@EndBuff

; 210  : 			m_pOwner->SetEmoticon( m_EndEmoticon, EMT_SKILL_BUFF );

  000e5	53		 push	 ebx
  000e6	6a 02		 push	 2
$LN23@EndBuff:
  000e8	8d 8e 64 02 00
	00		 lea	 ecx, DWORD PTR [esi+612]
  000ee	51		 push	 ecx
  000ef	8d 88 cc 01 00
	00		 lea	 ecx, DWORD PTR [eax+460]
  000f5	e8 00 00 00 00	 call	 ?SetEmoticon@ioBaseGUISupport@@QAEXABVioHashString@@W4EmoticonType@@K@Z ; ioBaseGUISupport::SetEmoticon
$LN2@EndBuff:

; 211  : 	}
; 212  : 
; 213  : 	DestroyAreaWeapon();

  000fa	8b ce		 mov	 ecx, esi
  000fc	e8 00 00 00 00	 call	 ?DestroyAreaWeapon@ioBuff@@IAEXXZ ; ioBuff::DestroyAreaWeapon

; 214  : 
; 215  : 	CheckBuffEndBuff();

  00101	8b ce		 mov	 ecx, esi
  00103	e8 00 00 00 00	 call	 ?CheckBuffEndBuff@ioBuff@@IAEXXZ ; ioBuff::CheckBuffEndBuff

; 216  : 	CheckCallWeaponEnd();

  00108	8b ce		 mov	 ecx, esi
  0010a	e8 00 00 00 00	 call	 ?CheckCallWeaponEnd@ioBuff@@IAEXXZ ; ioBuff::CheckCallWeaponEnd

; 217  : 
; 218  : 	if( m_pOwner->GetState() == CS_ETC_STATE && m_pOwner->GetCurEtcStateCnt() == m_iEtcStateCnt )

  0010f	8b 8e 74 02 00
	00		 mov	 ecx, DWORD PTR [esi+628]
  00115	80 b9 10 03 00
	00 0f		 cmp	 BYTE PTR [ecx+784], 15	; 0000000fH
  0011c	75 27		 jne	 SHORT $LN1@EndBuff
  0011e	8b 81 ac 19 00
	00		 mov	 eax, DWORD PTR [ecx+6572]
  00124	3b 86 d0 09 00
	00		 cmp	 eax, DWORD PTR [esi+2512]
  0012a	75 19		 jne	 SHORT $LN1@EndBuff

; 219  : 	{
; 220  : 		m_pOwner->SetState( CS_DELAY, m_bSendDelayNetWork );

  0012c	0f b6 86 f9 08
	00 00		 movzx	 eax, BYTE PTR [esi+2297]
  00133	50		 push	 eax
  00134	53		 push	 ebx
  00135	e8 00 00 00 00	 call	 ?SetState@ioBaseChar@@QAEXH_N@Z ; ioBaseChar::SetState

; 221  : 		m_pOwner->SetDashFailStart();

  0013a	8b 8e 74 02 00
	00		 mov	 ecx, DWORD PTR [esi+628]
  00140	e8 00 00 00 00	 call	 ?SetDashFailStart@ioBaseChar@@QAEXXZ ; ioBaseChar::SetDashFailStart
$LN1@EndBuff:
  00145	5f		 pop	 edi
  00146	5e		 pop	 esi
  00147	5b		 pop	 ebx

; 222  : 	}
; 223  : }

  00148	c9		 leave
  00149	c3		 ret	 0
?EndBuff@ioStunBuff@@UAEXXZ ENDP			; ioStunBuff::EndBuff
_TEXT	ENDS
PUBLIC	__real@3f800000
PUBLIC	__real@4f800000
EXTRN	__imp_?SetLoopAni@ioEntityGroup@@QAE_NABVioHashString@@MMMM@Z:PROC
EXTRN	?GetBaseChar@ioBaseChar@@QAEPAV1@ABVioHashString@@@Z:PROC ; ioBaseChar::GetBaseChar
EXTRN	__imp_?ClearAllLoopAni@ioEntityGroup@@QAEXM_N@Z:PROC
EXTRN	__imp_?ClearAllActionAni@ioEntityGroup@@QAEXM_N@Z:PROC
EXTRN	?PlaySoundA@ioGameEntity@@QAEKABVioHashString@@_N@Z:PROC ; ioGameEntity::PlaySoundA
EXTRN	__imp_?GetUniqueID@ioMovableObject@@QBEKXZ:PROC
EXTRN	?RotateByBuffCollision@ioBaseChar@@QAEXABVioHashString@@H@Z:PROC ; ioBaseChar::RotateByBuffCollision
EXTRN	__imp_??9ioHashString@@QBE_NABV0@@Z:PROC
EXTRN	?CheckBuffDesc@ioBuff@@IAEXXZ:PROC		; ioBuff::CheckBuffDesc
;	COMDAT __real@3f800000
; File d:\lost saga for developer\youtube\tutorial\source\src\lsclient\iobasechar.h
CONST	SEGMENT
__real@3f800000 DD 03f800000r			; 1
CONST	ENDS
;	COMDAT __real@4f800000
CONST	SEGMENT
__real@4f800000 DD 04f800000r			; 4.29497e+009
CONST	ENDS
;	COMDAT xdata$x
xdata$x	SEGMENT
__unwindtable$?SetAction@ioStunBuff@@MAEXXZ DD 0ffffffffH
	DD	FLAT:__unwindfunclet$?SetAction@ioStunBuff@@MAEXXZ$0
	DD	0ffffffffH
	DD	FLAT:__unwindfunclet$?SetAction@ioStunBuff@@MAEXXZ$1
__ehfuncinfo$?SetAction@ioStunBuff@@MAEXXZ DD 019930522H
	DD	02H
	DD	FLAT:__unwindtable$?SetAction@ioStunBuff@@MAEXXZ
	DD	2 DUP(00H)
	DD	2 DUP(00H)
	DD	00H
	DD	01H
; Function compile flags: /Ogsp
; File d:\lost saga for developer\youtube\tutorial\source\src\lsclient\iostunbuff.cpp
xdata$x	ENDS
;	COMDAT ?SetAction@ioStunBuff@@MAEXXZ
_TEXT	SEGMENT
_szLoopAnimaion$523909 = -56				; size = 16
_szLoopAnimaion$523901 = -40				; size = 16
tv720 = -24						; size = 4
tv715 = -24						; size = 4
tv704 = -24						; size = 4
tv688 = -24						; size = 4
_pGrp$523896 = -20					; size = 4
_value$526221 = -13					; size = 1
_value$526183 = -13					; size = 1
__$EHRec$ = -12						; size = 12
?SetAction@ioStunBuff@@MAEXXZ PROC			; ioStunBuff::SetAction, COMDAT
; _this$ = ecx

; 226  : {

  00000	6a 2c		 push	 44			; 0000002cH
  00002	b8 00 00 00 00	 mov	 eax, __ehhandler$?SetAction@ioStunBuff@@MAEXXZ
  00007	e8 00 00 00 00	 call	 __EH_prolog3
  0000c	8b f1		 mov	 esi, ecx

; 227  : 	CheckInvisibleWeapon( false );

  0000e	33 db		 xor	 ebx, ebx
  00010	53		 push	 ebx
  00011	e8 00 00 00 00	 call	 ?CheckInvisibleWeapon@ioBuff@@IAEX_N@Z ; ioBuff::CheckInvisibleWeapon

; 228  : 	CheckInvisibleCloak( false );

  00016	53		 push	 ebx
  00017	8b ce		 mov	 ecx, esi
  00019	e8 00 00 00 00	 call	 ?CheckInvisibleCloak@ioBuff@@IAEX_N@Z ; ioBuff::CheckInvisibleCloak

; 229  : 	CheckInvisibleHelmet( false );

  0001e	53		 push	 ebx
  0001f	8b ce		 mov	 ecx, esi
  00021	e8 00 00 00 00	 call	 ?CheckInvisibleHelmet@ioBuff@@IAEX_N@Z ; ioBuff::CheckInvisibleHelmet

; 230  : 
; 231  : 	CheckChangeSkill( true );

  00026	6a 01		 push	 1
  00028	8b ce		 mov	 ecx, esi
  0002a	e8 00 00 00 00	 call	 ?CheckChangeSkill@ioBuff@@IAEX_N@Z ; ioBuff::CheckChangeSkill

; 232  : 	CheckChangeColor( true );

  0002f	6a 01		 push	 1
  00031	8b ce		 mov	 ecx, esi
  00033	e8 00 00 00 00	 call	 ?CheckChangeColor@ioBuff@@IAEX_N@Z ; ioBuff::CheckChangeColor

; 233  : 	CheckBuffDesc();

  00038	8b ce		 mov	 ecx, esi
  0003a	e8 00 00 00 00	 call	 ?CheckBuffDesc@ioBuff@@IAEXXZ ; ioBuff::CheckBuffDesc

; 234  : 
; 235  : 	if( m_CreatorLookType != CLT_NONE && !m_CreateChar.IsEmpty() )

  0003f	39 9e f4 08 00
	00		 cmp	 DWORD PTR [esi+2292], ebx
  00045	74 3c		 je	 SHORT $LN16@SetAction
  00047	8d be 88 02 00
	00		 lea	 edi, DWORD PTR [esi+648]
  0004d	8b cf		 mov	 ecx, edi
  0004f	ff 15 00 00 00
	00		 call	 DWORD PTR __imp_?IsEmpty@ioHashString@@QBE_NXZ
  00055	84 c0		 test	 al, al
  00057	75 2a		 jne	 SHORT $LN16@SetAction

; 236  : 	{
; 237  : 		if( m_CreateChar != m_pOwner->GetCharName() )

  00059	8b 86 74 02 00
	00		 mov	 eax, DWORD PTR [esi+628]
  0005f	05 d4 02 00 00	 add	 eax, 724		; 000002d4H
  00064	50		 push	 eax
  00065	8b cf		 mov	 ecx, edi
  00067	ff 15 00 00 00
	00		 call	 DWORD PTR __imp_??9ioHashString@@QBE_NABV0@@Z
  0006d	84 c0		 test	 al, al
  0006f	74 12		 je	 SHORT $LN16@SetAction

; 238  : 			m_pOwner->RotateByBuffCollision( m_CreateChar, m_CreatorLookType );

  00071	ff b6 f4 08 00
	00		 push	 DWORD PTR [esi+2292]
  00077	8b 8e 74 02 00
	00		 mov	 ecx, DWORD PTR [esi+628]
  0007d	57		 push	 edi
  0007e	e8 00 00 00 00	 call	 ?RotateByBuffCollision@ioBaseChar@@QAEXABVioHashString@@H@Z ; ioBaseChar::RotateByBuffCollision
$LN16@SetAction:

; 239  : 	}
; 240  : 
; 241  : 	ioEffect *pEffect = m_pOwner->AttachEffect( m_BuffEffect, GetEffectEventOwner() );

  00083	6a 01		 push	 1
  00085	8b ce		 mov	 ecx, esi
  00087	e8 00 00 00 00	 call	 ?GetEffectEventOwner@ioBuff@@IAEPAVioBaseChar@@XZ ; ioBuff::GetEffectEventOwner
  0008c	8b 8e 74 02 00
	00		 mov	 ecx, DWORD PTR [esi+628]
  00092	50		 push	 eax
  00093	8d 86 7c 05 00
	00		 lea	 eax, DWORD PTR [esi+1404]
  00099	50		 push	 eax
  0009a	e8 00 00 00 00	 call	 ?AttachEffect@ioBaseChar@@QAEPAVioEffect@@ABVioHashString@@PAVioEntityEvent@@_N@Z ; ioBaseChar::AttachEffect

; 242  : 	if(pEffect)	m_BuffEffectID = pEffect->GetUniqueID();

  0009f	3b c3		 cmp	 eax, ebx
  000a1	74 0f		 je	 SHORT $LN15@SetAction
  000a3	8d 48 14	 lea	 ecx, DWORD PTR [eax+20]
  000a6	ff 15 00 00 00
	00		 call	 DWORD PTR __imp_?GetUniqueID@ioMovableObject@@QBEKXZ
  000ac	89 86 cc 09 00
	00		 mov	 DWORD PTR [esi+2508], eax
$LN15@SetAction:

; 243  : 
; 244  : 	if( !m_LoopSound.IsEmpty() )

  000b2	8d be fc 05 00
	00		 lea	 edi, DWORD PTR [esi+1532]
  000b8	8b cf		 mov	 ecx, edi
  000ba	ff 15 00 00 00
	00		 call	 DWORD PTR __imp_?IsEmpty@ioHashString@@QBE_NXZ
  000c0	84 c0		 test	 al, al
  000c2	75 27		 jne	 SHORT $LN24@SetAction

; 245  : 	{
; 246  : 		m_LoopSoundID = m_pOwner->PlaySound( m_LoopSound, true );

  000c4	8b 8e 74 02 00
	00		 mov	 ecx, DWORD PTR [esi+628]
  000ca	6a 01		 push	 1
  000cc	57		 push	 edi
  000cd	e8 00 00 00 00	 call	 ?PlaySoundA@ioGameEntity@@QAEKABVioHashString@@_N@Z ; ioGameEntity::PlaySoundA
  000d2	89 86 0c 06 00
	00		 mov	 DWORD PTR [esi+1548], eax

; 247  : 		m_bLoopSoundPlayed = true;

  000d8	8d 45 f3	 lea	 eax, DWORD PTR _value$526183[ebp]
  000db	50		 push	 eax
  000dc	8d 8e 60 08 00
	00		 lea	 ecx, DWORD PTR [esi+2144]
  000e2	c6 45 f3 01	 mov	 BYTE PTR _value$526183[ebp], 1
  000e6	e8 00 00 00 00	 call	 ?EncryptValueToPool@?$CEncrypt@_N@@AAEXPBD@Z ; CEncrypt<bool>::EncryptValueToPool
$LN24@SetAction:

; 248  : 	}
; 249  : 
; 250  : 	if( m_pOwner->GetState() != CS_DIE &&
; 251  : 		m_pOwner->GetState() != CS_LOADING &&
; 252  : 		m_pOwner->GetState() != CS_OBSERVER &&
; 253  : 		m_pOwner->GetState() != CS_VIEW )

  000eb	8b 86 74 02 00
	00		 mov	 eax, DWORD PTR [esi+628]
  000f1	8a 88 10 03 00
	00		 mov	 cl, BYTE PTR [eax+784]
  000f7	80 f9 0e	 cmp	 cl, 14			; 0000000eH
  000fa	0f 84 45 03 00
	00		 je	 $LN13@SetAction
  00100	80 f9 24	 cmp	 cl, 36			; 00000024H
  00103	0f 84 3c 03 00
	00		 je	 $LN13@SetAction
  00109	80 f9 2a	 cmp	 cl, 42			; 0000002aH
  0010c	0f 84 33 03 00
	00		 je	 $LN13@SetAction
  00112	80 f9 1a	 cmp	 cl, 26			; 0000001aH
  00115	0f 84 2a 03 00
	00		 je	 $LN13@SetAction

; 254  : 	{
; 255  : 		ioEntityGroup *pGrp = m_pOwner->GetGroup();

  0011b	8b 78 04	 mov	 edi, DWORD PTR [eax+4]
  0011e	89 7d ec	 mov	 DWORD PTR _pGrp$523896[ebp], edi

; 256  : 		pGrp->ClearAllActionAni( FLOAT100, true );

  00121	b8 64 00 00 00	 mov	 eax, 100		; 00000064H
  00126	89 45 e8	 mov	 DWORD PTR tv720[ebp], eax
  00129	db 45 e8	 fild	 DWORD PTR tv720[ebp]
  0012c	6a 01		 push	 1
  0012e	85 c0		 test	 eax, eax
  00130	79 06		 jns	 SHORT $LN94@SetAction
  00132	d8 05 00 00 00
	00		 fadd	 DWORD PTR __real@4f800000
$LN94@SetAction:
  00138	51		 push	 ecx
  00139	8b cf		 mov	 ecx, edi
  0013b	d9 1c 24	 fstp	 DWORD PTR [esp]
  0013e	ff 15 00 00 00
	00		 call	 DWORD PTR __imp_?ClearAllActionAni@ioEntityGroup@@QAEXM_N@Z

; 257  : 		pGrp->ClearAllLoopAni( FLOAT100, true );

  00144	b8 64 00 00 00	 mov	 eax, 100		; 00000064H
  00149	89 45 e8	 mov	 DWORD PTR tv715[ebp], eax
  0014c	db 45 e8	 fild	 DWORD PTR tv715[ebp]
  0014f	6a 01		 push	 1
  00151	85 c0		 test	 eax, eax
  00153	79 06		 jns	 SHORT $LN95@SetAction
  00155	d8 05 00 00 00
	00		 fadd	 DWORD PTR __real@4f800000
$LN95@SetAction:
  0015b	51		 push	 ecx
  0015c	8b cf		 mov	 ecx, edi
  0015e	d9 1c 24	 fstp	 DWORD PTR [esp]
  00161	ff 15 00 00 00
	00		 call	 DWORD PTR __imp_?ClearAllLoopAni@ioEntityGroup@@QAEXM_N@Z

; 258  : 		
; 259  : 		ioBaseChar *pCreater = m_pOwner->GetBaseChar( m_CreateChar );

  00167	8b 8e 74 02 00
	00		 mov	 ecx, DWORD PTR [esi+628]
  0016d	8d 86 88 02 00
	00		 lea	 eax, DWORD PTR [esi+648]
  00173	50		 push	 eax
  00174	e8 00 00 00 00	 call	 ?GetBaseChar@ioBaseChar@@QAEPAV1@ABVioHashString@@@Z ; ioBaseChar::GetBaseChar

; 260  : 		
; 261  : 		if( !m_pOwner->IsPrisonerMode() && !m_pOwner->IsCatchMode() )

  00179	8b 8e 74 02 00
	00		 mov	 ecx, DWORD PTR [esi+628]
  0017f	8b f8		 mov	 edi, eax
  00181	8d 45 f3	 lea	 eax, DWORD PTR _value$526221[ebp]
  00184	8d 89 cc 14 00
	00		 lea	 ecx, DWORD PTR [ecx+5324]
  0018a	50		 push	 eax
  0018b	e8 00 00 00 00	 call	 ?DecryptValueToPool@?$CEncrypt@_N@@QAEXPA_N@Z ; CEncrypt<bool>::DecryptValueToPool
  00190	38 5d f3	 cmp	 BYTE PTR _value$526221[ebp], bl
  00193	0f 85 4a 01 00
	00		 jne	 $LN12@SetAction
  00199	8b 86 74 02 00
	00		 mov	 eax, DWORD PTR [esi+628]
  0019f	38 98 78 23 00
	00		 cmp	 BYTE PTR [eax+9080], bl
  001a5	0f 85 38 01 00
	00		 jne	 $LN12@SetAction

; 262  : 		{
; 263  : 			ioHashString szLoopAnimaion = m_StunAnimation;

  001ab	8d 86 6c 09 00
	00		 lea	 eax, DWORD PTR [esi+2412]
  001b1	50		 push	 eax
  001b2	8d 4d d8	 lea	 ecx, DWORD PTR _szLoopAnimaion$523901[ebp]
  001b5	ff 15 00 00 00
	00		 call	 DWORD PTR __imp_??0ioHashString@@QAE@ABV0@@Z
  001bb	89 5d fc	 mov	 DWORD PTR __$EHRec$[ebp+8], ebx

; 264  : 			if ( pCreater )

  001be	3b fb		 cmp	 edi, ebx
  001c0	0f 84 d0 00 00
	00		 je	 $LN7@SetAction

; 265  : 			{
; 266  : 				if ( pCreater->IsMale() && m_pOwner->IsMale() && !m_CMSMAnimation.IsEmpty() )

  001c6	80 bf 20 03 00
	00 00		 cmp	 BYTE PTR [edi+800], 0
  001cd	74 68		 je	 SHORT $LN100@SetAction
  001cf	8b 86 74 02 00
	00		 mov	 eax, DWORD PTR [esi+628]
  001d5	80 b8 20 03 00
	00 00		 cmp	 BYTE PTR [eax+800], 0
  001dc	74 1c		 je	 SHORT $LN10@SetAction
  001de	8d 9e 8c 09 00
	00		 lea	 ebx, DWORD PTR [esi+2444]
  001e4	8b cb		 mov	 ecx, ebx
  001e6	ff 15 00 00 00
	00		 call	 DWORD PTR __imp_?IsEmpty@ioHashString@@QBE_NXZ
  001ec	84 c0		 test	 al, al
  001ee	75 0a		 jne	 SHORT $LN10@SetAction

; 267  : 					szLoopAnimaion = m_CMSMAnimation;

  001f0	53		 push	 ebx
  001f1	8d 4d d8	 lea	 ecx, DWORD PTR _szLoopAnimaion$523901[ebp]
  001f4	ff 15 00 00 00
	00		 call	 DWORD PTR __imp_??4ioHashString@@QAEAAV0@ABV0@@Z
$LN10@SetAction:

; 268  : 				if ( pCreater->IsMale() && !m_pOwner->IsMale() && !m_CMSFAnimation.IsEmpty() )

  001fa	80 bf 20 03 00
	00 00		 cmp	 BYTE PTR [edi+800], 0
  00201	74 34		 je	 SHORT $LN100@SetAction
  00203	8b 86 74 02 00
	00		 mov	 eax, DWORD PTR [esi+628]
  00209	80 b8 20 03 00
	00 00		 cmp	 BYTE PTR [eax+800], 0
  00210	75 1c		 jne	 SHORT $LN9@SetAction
  00212	8d 9e 9c 09 00
	00		 lea	 ebx, DWORD PTR [esi+2460]
  00218	8b cb		 mov	 ecx, ebx
  0021a	ff 15 00 00 00
	00		 call	 DWORD PTR __imp_?IsEmpty@ioHashString@@QBE_NXZ
  00220	84 c0		 test	 al, al
  00222	75 0a		 jne	 SHORT $LN9@SetAction

; 269  : 					szLoopAnimaion = m_CMSFAnimation;

  00224	53		 push	 ebx
  00225	8d 4d d8	 lea	 ecx, DWORD PTR _szLoopAnimaion$523901[ebp]
  00228	ff 15 00 00 00
	00		 call	 DWORD PTR __imp_??4ioHashString@@QAEAAV0@ABV0@@Z
$LN9@SetAction:

; 270  : 				if ( !pCreater->IsMale() && m_pOwner->IsMale() && !m_CFSMAnimation.IsEmpty() )

  0022e	80 bf 20 03 00
	00 00		 cmp	 BYTE PTR [edi+800], 0
  00235	75 5f		 jne	 SHORT $LN7@SetAction
$LN100@SetAction:
  00237	8b 86 74 02 00
	00		 mov	 eax, DWORD PTR [esi+628]
  0023d	80 b8 20 03 00
	00 00		 cmp	 BYTE PTR [eax+800], 0
  00244	74 1c		 je	 SHORT $LN8@SetAction
  00246	8d 9e ac 09 00
	00		 lea	 ebx, DWORD PTR [esi+2476]
  0024c	8b cb		 mov	 ecx, ebx
  0024e	ff 15 00 00 00
	00		 call	 DWORD PTR __imp_?IsEmpty@ioHashString@@QBE_NXZ
  00254	84 c0		 test	 al, al
  00256	75 0a		 jne	 SHORT $LN8@SetAction

; 271  : 					szLoopAnimaion = m_CFSMAnimation;

  00258	53		 push	 ebx
  00259	8d 4d d8	 lea	 ecx, DWORD PTR _szLoopAnimaion$523901[ebp]
  0025c	ff 15 00 00 00
	00		 call	 DWORD PTR __imp_??4ioHashString@@QAEAAV0@ABV0@@Z
$LN8@SetAction:

; 272  : 				if ( !pCreater->IsMale() && !m_pOwner->IsMale() && !m_CFSFAnimation.IsEmpty() )

  00262	80 bf 20 03 00
	00 00		 cmp	 BYTE PTR [edi+800], 0
  00269	75 2b		 jne	 SHORT $LN7@SetAction
  0026b	8b 86 74 02 00
	00		 mov	 eax, DWORD PTR [esi+628]
  00271	80 b8 20 03 00
	00 00		 cmp	 BYTE PTR [eax+800], 0
  00278	75 1c		 jne	 SHORT $LN7@SetAction
  0027a	8d be bc 09 00
	00		 lea	 edi, DWORD PTR [esi+2492]
  00280	8b cf		 mov	 ecx, edi
  00282	ff 15 00 00 00
	00		 call	 DWORD PTR __imp_?IsEmpty@ioHashString@@QBE_NXZ
  00288	84 c0		 test	 al, al
  0028a	75 0a		 jne	 SHORT $LN7@SetAction

; 273  : 					szLoopAnimaion = m_CFSFAnimation;

  0028c	57		 push	 edi
  0028d	8d 4d d8	 lea	 ecx, DWORD PTR _szLoopAnimaion$523901[ebp]
  00290	ff 15 00 00 00
	00		 call	 DWORD PTR __imp_??4ioHashString@@QAEAAV0@ABV0@@Z
$LN7@SetAction:

; 274  : 			}
; 275  : 			pGrp->SetLoopAni( szLoopAnimaion, FLOAT100 );

  00296	b8 64 00 00 00	 mov	 eax, 100		; 00000064H
  0029b	0f 57 c0	 xorps	 xmm0, xmm0
  0029e	83 ec 10	 sub	 esp, 16			; 00000010H
  002a1	f3 0f 11 44 24
	0c		 movss	 DWORD PTR [esp+12], xmm0
  002a7	f3 0f 10 05 00
	00 00 00	 movss	 xmm0, DWORD PTR __real@3f800000
  002af	89 45 e8	 mov	 DWORD PTR tv704[ebp], eax
  002b2	db 45 e8	 fild	 DWORD PTR tv704[ebp]
  002b5	f3 0f 11 44 24
	08		 movss	 DWORD PTR [esp+8], xmm0
  002bb	f3 0f 11 44 24
	04		 movss	 DWORD PTR [esp+4], xmm0
  002c1	85 c0		 test	 eax, eax
  002c3	79 06		 jns	 SHORT $LN96@SetAction
  002c5	d8 05 00 00 00
	00		 fadd	 DWORD PTR __real@4f800000
$LN96@SetAction:
  002cb	8b 4d ec	 mov	 ecx, DWORD PTR _pGrp$523896[ebp]
  002ce	d9 1c 24	 fstp	 DWORD PTR [esp]
  002d1	8d 45 d8	 lea	 eax, DWORD PTR _szLoopAnimaion$523901[ebp]
  002d4	50		 push	 eax
  002d5	ff 15 00 00 00
	00		 call	 DWORD PTR __imp_?SetLoopAni@ioEntityGroup@@QAE_NABVioHashString@@MMMM@Z

; 276  : 		}

  002db	8d 4d d8	 lea	 ecx, DWORD PTR _szLoopAnimaion$523901[ebp]

; 277  : 		else

  002de	e9 37 01 00 00	 jmp	 $LN102@SetAction
$LN12@SetAction:

; 278  : 		{
; 279  : 			ioHashString szLoopAnimaion = m_CatchAnimation;

  002e3	8d 86 7c 09 00
	00		 lea	 eax, DWORD PTR [esi+2428]
  002e9	50		 push	 eax
  002ea	8d 4d c8	 lea	 ecx, DWORD PTR _szLoopAnimaion$523909[ebp]
  002ed	ff 15 00 00 00
	00		 call	 DWORD PTR __imp_??0ioHashString@@QAE@ABV0@@Z
  002f3	c7 45 fc 01 00
	00 00		 mov	 DWORD PTR __$EHRec$[ebp+8], 1

; 280  : 			if ( pCreater )

  002fa	3b fb		 cmp	 edi, ebx
  002fc	0f 84 d0 00 00
	00		 je	 $LN1@SetAction

; 281  : 			{
; 282  : 				if ( pCreater->IsMale() && m_pOwner->IsMale() && !m_CMSMAnimation.IsEmpty() )

  00302	80 bf 20 03 00
	00 00		 cmp	 BYTE PTR [edi+800], 0
  00309	74 68		 je	 SHORT $LN105@SetAction
  0030b	8b 86 74 02 00
	00		 mov	 eax, DWORD PTR [esi+628]
  00311	80 b8 20 03 00
	00 00		 cmp	 BYTE PTR [eax+800], 0
  00318	74 1c		 je	 SHORT $LN4@SetAction
  0031a	8d 9e 8c 09 00
	00		 lea	 ebx, DWORD PTR [esi+2444]
  00320	8b cb		 mov	 ecx, ebx
  00322	ff 15 00 00 00
	00		 call	 DWORD PTR __imp_?IsEmpty@ioHashString@@QBE_NXZ
  00328	84 c0		 test	 al, al
  0032a	75 0a		 jne	 SHORT $LN4@SetAction

; 283  : 					szLoopAnimaion = m_CMSMAnimation;

  0032c	53		 push	 ebx
  0032d	8d 4d c8	 lea	 ecx, DWORD PTR _szLoopAnimaion$523909[ebp]
  00330	ff 15 00 00 00
	00		 call	 DWORD PTR __imp_??4ioHashString@@QAEAAV0@ABV0@@Z
$LN4@SetAction:

; 284  : 				if ( pCreater->IsMale() && !m_pOwner->IsMale() && !m_CMSFAnimation.IsEmpty() )

  00336	80 bf 20 03 00
	00 00		 cmp	 BYTE PTR [edi+800], 0
  0033d	74 34		 je	 SHORT $LN105@SetAction
  0033f	8b 86 74 02 00
	00		 mov	 eax, DWORD PTR [esi+628]
  00345	80 b8 20 03 00
	00 00		 cmp	 BYTE PTR [eax+800], 0
  0034c	75 1c		 jne	 SHORT $LN3@SetAction
  0034e	8d 9e 9c 09 00
	00		 lea	 ebx, DWORD PTR [esi+2460]
  00354	8b cb		 mov	 ecx, ebx
  00356	ff 15 00 00 00
	00		 call	 DWORD PTR __imp_?IsEmpty@ioHashString@@QBE_NXZ
  0035c	84 c0		 test	 al, al
  0035e	75 0a		 jne	 SHORT $LN3@SetAction

; 285  : 					szLoopAnimaion = m_CMSFAnimation;

  00360	53		 push	 ebx
  00361	8d 4d c8	 lea	 ecx, DWORD PTR _szLoopAnimaion$523909[ebp]
  00364	ff 15 00 00 00
	00		 call	 DWORD PTR __imp_??4ioHashString@@QAEAAV0@ABV0@@Z
$LN3@SetAction:

; 286  : 				if ( !pCreater->IsMale() && m_pOwner->IsMale() && !m_CFSMAnimation.IsEmpty() )

  0036a	80 bf 20 03 00
	00 00		 cmp	 BYTE PTR [edi+800], 0
  00371	75 5f		 jne	 SHORT $LN1@SetAction
$LN105@SetAction:
  00373	8b 86 74 02 00
	00		 mov	 eax, DWORD PTR [esi+628]
  00379	80 b8 20 03 00
	00 00		 cmp	 BYTE PTR [eax+800], 0
  00380	74 1c		 je	 SHORT $LN2@SetAction
  00382	8d 9e ac 09 00
	00		 lea	 ebx, DWORD PTR [esi+2476]
  00388	8b cb		 mov	 ecx, ebx
  0038a	ff 15 00 00 00
	00		 call	 DWORD PTR __imp_?IsEmpty@ioHashString@@QBE_NXZ
  00390	84 c0		 test	 al, al
  00392	75 0a		 jne	 SHORT $LN2@SetAction

; 287  : 					szLoopAnimaion = m_CFSMAnimation;

  00394	53		 push	 ebx
  00395	8d 4d c8	 lea	 ecx, DWORD PTR _szLoopAnimaion$523909[ebp]
  00398	ff 15 00 00 00
	00		 call	 DWORD PTR __imp_??4ioHashString@@QAEAAV0@ABV0@@Z
$LN2@SetAction:

; 288  : 				if ( !pCreater->IsMale() && !m_pOwner->IsMale() && !m_CFSFAnimation.IsEmpty() )

  0039e	80 bf 20 03 00
	00 00		 cmp	 BYTE PTR [edi+800], 0
  003a5	75 2b		 jne	 SHORT $LN1@SetAction
  003a7	8b 86 74 02 00
	00		 mov	 eax, DWORD PTR [esi+628]
  003ad	80 b8 20 03 00
	00 00		 cmp	 BYTE PTR [eax+800], 0
  003b4	75 1c		 jne	 SHORT $LN1@SetAction
  003b6	8d be bc 09 00
	00		 lea	 edi, DWORD PTR [esi+2492]
  003bc	8b cf		 mov	 ecx, edi
  003be	ff 15 00 00 00
	00		 call	 DWORD PTR __imp_?IsEmpty@ioHashString@@QBE_NXZ
  003c4	84 c0		 test	 al, al
  003c6	75 0a		 jne	 SHORT $LN1@SetAction

; 289  : 					szLoopAnimaion = m_CFSFAnimation;

  003c8	57		 push	 edi
  003c9	8d 4d c8	 lea	 ecx, DWORD PTR _szLoopAnimaion$523909[ebp]
  003cc	ff 15 00 00 00
	00		 call	 DWORD PTR __imp_??4ioHashString@@QAEAAV0@ABV0@@Z
$LN1@SetAction:

; 290  : 			}
; 291  : 			pGrp->SetLoopAni( szLoopAnimaion, FLOAT100 );

  003d2	b8 64 00 00 00	 mov	 eax, 100		; 00000064H
  003d7	0f 57 c0	 xorps	 xmm0, xmm0
  003da	83 ec 10	 sub	 esp, 16			; 00000010H
  003dd	f3 0f 11 44 24
	0c		 movss	 DWORD PTR [esp+12], xmm0
  003e3	f3 0f 10 05 00
	00 00 00	 movss	 xmm0, DWORD PTR __real@3f800000
  003eb	89 45 e8	 mov	 DWORD PTR tv688[ebp], eax
  003ee	db 45 e8	 fild	 DWORD PTR tv688[ebp]
  003f1	f3 0f 11 44 24
	08		 movss	 DWORD PTR [esp+8], xmm0
  003f7	f3 0f 11 44 24
	04		 movss	 DWORD PTR [esp+4], xmm0
  003fd	85 c0		 test	 eax, eax
  003ff	79 06		 jns	 SHORT $LN97@SetAction
  00401	d8 05 00 00 00
	00		 fadd	 DWORD PTR __real@4f800000
$LN97@SetAction:
  00407	8b 4d ec	 mov	 ecx, DWORD PTR _pGrp$523896[ebp]
  0040a	d9 1c 24	 fstp	 DWORD PTR [esp]
  0040d	8d 45 c8	 lea	 eax, DWORD PTR _szLoopAnimaion$523909[ebp]
  00410	50		 push	 eax
  00411	ff 15 00 00 00
	00		 call	 DWORD PTR __imp_?SetLoopAni@ioEntityGroup@@QAE_NABVioHashString@@MMMM@Z

; 292  : 		}

  00417	8d 4d c8	 lea	 ecx, DWORD PTR _szLoopAnimaion$523909[ebp]
$LN102@SetAction:
  0041a	83 4d fc ff	 or	 DWORD PTR __$EHRec$[ebp+8], -1
  0041e	ff 15 00 00 00
	00		 call	 DWORD PTR __imp_??1ioHashString@@QAE@XZ

; 293  : 
; 294  : 		m_pOwner->SetState( CS_ETC_STATE );

  00424	8b 8e 74 02 00
	00		 mov	 ecx, DWORD PTR [esi+628]
  0042a	6a 01		 push	 1
  0042c	6a 0f		 push	 15			; 0000000fH
  0042e	e8 00 00 00 00	 call	 ?SetState@ioBaseChar@@QAEXH_N@Z ; ioBaseChar::SetState

; 295  : 		m_iEtcStateCnt = m_pOwner->GetCurEtcStateCnt();

  00433	8b 86 74 02 00
	00		 mov	 eax, DWORD PTR [esi+628]
  00439	8b 80 ac 19 00
	00		 mov	 eax, DWORD PTR [eax+6572]
  0043f	89 86 d0 09 00
	00		 mov	 DWORD PTR [esi+2512], eax
$LN13@SetAction:

; 296  : 	}
; 297  : 
; 298  : 	m_bBuffStart = true;

  00445	c6 86 d5 02 00
	00 01		 mov	 BYTE PTR [esi+725], 1

; 299  : }

  0044c	e8 00 00 00 00	 call	 __EH_epilog3
  00451	c3		 ret	 0
_TEXT	ENDS
;	COMDAT text$x
text$x	SEGMENT
__unwindfunclet$?SetAction@ioStunBuff@@MAEXXZ$0:
  00000	8d 4d d8	 lea	 ecx, DWORD PTR _szLoopAnimaion$523901[ebp]
  00003	ff 25 00 00 00
	00		 jmp	 DWORD PTR __imp_??1ioHashString@@QAE@XZ
__unwindfunclet$?SetAction@ioStunBuff@@MAEXXZ$1:
  00009	8d 4d c8	 lea	 ecx, DWORD PTR _szLoopAnimaion$523909[ebp]
  0000c	ff 25 00 00 00
	00		 jmp	 DWORD PTR __imp_??1ioHashString@@QAE@XZ
__ehhandler$?SetAction@ioStunBuff@@MAEXXZ:
  00012	8b 54 24 08	 mov	 edx, DWORD PTR [esp+8]
  00016	8d 42 0c	 lea	 eax, DWORD PTR [edx+12]
  00019	8b 4a c4	 mov	 ecx, DWORD PTR [edx-60]
  0001c	33 c8		 xor	 ecx, eax
  0001e	e8 00 00 00 00	 call	 @__security_check_cookie@4
  00023	b8 00 00 00 00	 mov	 eax, OFFSET __ehfuncinfo$?SetAction@ioStunBuff@@MAEXXZ
  00028	e9 00 00 00 00	 jmp	 ___CxxFrameHandler3
text$x	ENDS
?SetAction@ioStunBuff@@MAEXXZ ENDP			; ioStunBuff::SetAction
EXTRN	?CheckEnableDelayState@ioBuff@@IAE_NXZ:PROC	; ioBuff::CheckEnableDelayState
; Function compile flags: /Ogsp
;	COMDAT ?ProcessDelay@ioStunBuff@@MAEXM@Z
_TEXT	SEGMENT
_value$526352 = -4					; size = 4
_value$526348 = -4					; size = 4
_value$526344 = -4					; size = 4
_fTimePerSec$ = 8					; size = 4
?ProcessDelay@ioStunBuff@@MAEXM@Z PROC			; ioStunBuff::ProcessDelay, COMDAT
; _this$ = ecx

; 302  : {

  00000	55		 push	 ebp
  00001	8b ec		 mov	 ebp, esp
  00003	51		 push	 ecx
  00004	56		 push	 esi
  00005	57		 push	 edi
  00006	8b f1		 mov	 esi, ecx

; 303  : 	DWORD dwCurTime = FRAMEGETTIME();

  00008	ff 15 00 00 00
	00		 call	 DWORD PTR __imp_?GetSingleton@ioFrameTimer@@SAAAV1@XZ
  0000e	8b c8		 mov	 ecx, eax
  00010	ff 15 00 00 00
	00		 call	 DWORD PTR __imp_?GetLoopSec@ioFrameTimer@@QBEKXZ

; 304  : 
; 305  : 	if( CheckEnableDelayState() )

  00016	8b ce		 mov	 ecx, esi
  00018	8b f8		 mov	 edi, eax
  0001a	e8 00 00 00 00	 call	 ?CheckEnableDelayState@ioBuff@@IAE_NXZ ; ioBuff::CheckEnableDelayState
  0001f	84 c0		 test	 al, al
  00021	75 76		 jne	 SHORT $LN6@ProcessDel

; 306  : 		return;
; 307  : 
; 308  : 	if( GetBuffDuration() == 0 )

  00023	8b ce		 mov	 ecx, esi
  00025	e8 00 00 00 00	 call	 ?GetBuffDuration@ioBuff@@IAEKXZ ; ioBuff::GetBuffDuration
  0002a	85 c0		 test	 eax, eax
  0002c	75 25		 jne	 SHORT $LN4@ProcessDel

; 309  : 	{
; 310  : 		if( !m_bBuffStart && m_dwBuffStartTime < dwCurTime )

  0002e	38 86 d5 02 00
	00		 cmp	 BYTE PTR [esi+725], al
  00034	75 63		 jne	 SHORT $LN6@ProcessDel
  00036	8d 45 fc	 lea	 eax, DWORD PTR _value$526344[ebp]
  00039	50		 push	 eax
  0003a	8d 8e 6c 03 00
	00		 lea	 ecx, DWORD PTR [esi+876]
  00040	e8 00 00 00 00	 call	 ?DecryptValueToPool@?$CEncrypt@K@@QAEXPAK@Z ; CEncrypt<unsigned long>::DecryptValueToPool
  00045	39 7d fc	 cmp	 DWORD PTR _value$526344[ebp], edi
  00048	73 4f		 jae	 SHORT $LN6@ProcessDel

; 311  : 			SetAction();

  0004a	8b 06		 mov	 eax, DWORD PTR [esi]
  0004c	8b ce		 mov	 ecx, esi
  0004e	ff 50 34	 call	 DWORD PTR [eax+52]

; 312  : 		return;

  00051	eb 46		 jmp	 SHORT $LN6@ProcessDel
$LN4@ProcessDel:

; 313  : 	}
; 314  : 
; 315  : 	if( !m_bBuffStart && m_dwBuffStartTime < dwCurTime )

  00053	80 be d5 02 00
	00 00		 cmp	 BYTE PTR [esi+725], 0
  0005a	75 1b		 jne	 SHORT $LN2@ProcessDel
  0005c	8d 45 fc	 lea	 eax, DWORD PTR _value$526348[ebp]
  0005f	50		 push	 eax
  00060	8d 8e 6c 03 00
	00		 lea	 ecx, DWORD PTR [esi+876]
  00066	e8 00 00 00 00	 call	 ?DecryptValueToPool@?$CEncrypt@K@@QAEXPAK@Z ; CEncrypt<unsigned long>::DecryptValueToPool
  0006b	39 7d fc	 cmp	 DWORD PTR _value$526348[ebp], edi
  0006e	73 07		 jae	 SHORT $LN2@ProcessDel

; 316  : 		SetAction();

  00070	8b 06		 mov	 eax, DWORD PTR [esi]
  00072	8b ce		 mov	 ecx, esi
  00074	ff 50 34	 call	 DWORD PTR [eax+52]
$LN2@ProcessDel:

; 317  : 
; 318  : 	if( m_dwBuffEndTime <= dwCurTime )

  00077	8d 45 fc	 lea	 eax, DWORD PTR _value$526352[ebp]
  0007a	50		 push	 eax
  0007b	8d 8e 9c 03 00
	00		 lea	 ecx, DWORD PTR [esi+924]
  00081	e8 00 00 00 00	 call	 ?DecryptValueToPool@?$CEncrypt@K@@QAEXPAK@Z ; CEncrypt<unsigned long>::DecryptValueToPool

; 319  : 	{
; 320  : 		SetReserveEndBuff();

  00086	8b ce		 mov	 ecx, esi
  00088	39 7d fc	 cmp	 DWORD PTR _value$526352[ebp], edi
  0008b	77 07		 ja	 SHORT $LN1@ProcessDel
  0008d	e8 00 00 00 00	 call	 ?SetReserveEndBuff@ioBuff@@QAEXXZ ; ioBuff::SetReserveEndBuff

; 321  : 		return;

  00092	eb 05		 jmp	 SHORT $LN6@ProcessDel
$LN1@ProcessDel:

; 322  : 	}
; 323  : 
; 324  : 	CheckCallingProcess();

  00094	e8 00 00 00 00	 call	 ?CheckCallingProcess@ioBuff@@IAEXXZ ; ioBuff::CheckCallingProcess
$LN6@ProcessDel:
  00099	5f		 pop	 edi
  0009a	5e		 pop	 esi

; 325  : }

  0009b	c9		 leave
  0009c	c2 04 00	 ret	 4
?ProcessDelay@ioStunBuff@@MAEXM@Z ENDP			; ioStunBuff::ProcessDelay
_TEXT	ENDS
END
