; Listing generated by Microsoft (R) Optimizing Compiler Version 16.00.30319.01 

	TITLE	D:\Lost Saga For Developer\Youtube\Tutorial\Source\src\LSClient\ioSummonChargeItem.cpp
	.686P
	.XMM
	include listing.inc
	.model	flat

INCLUDELIB MSVCRT
INCLUDELIB OLDNAMES

PUBLIC	?return1@@YAIXZ					; return1
; Function compile flags: /Ogsp
; File d:\lost saga for developer\youtube\tutorial\source\src\lsclient\stdafx.h
;	COMDAT ?return1@@YAIXZ
_TEXT	SEGMENT
?return1@@YAIXZ PROC					; return1, COMDAT

; 17   : 	__forceinline unsigned int return1() { __asm mov eax, 1 };

  00000	b8 01 00 00 00	 mov	 eax, 1
  00005	c3		 ret	 0
?return1@@YAIXZ ENDP					; return1
_TEXT	ENDS
PUBLIC	?return100@@YAIXZ				; return100
; Function compile flags: /Ogsp
;	COMDAT ?return100@@YAIXZ
_TEXT	SEGMENT
?return100@@YAIXZ PROC					; return100, COMDAT

; 25   : 	__forceinline unsigned int return100() { __asm mov eax, 100 };

  00000	b8 64 00 00 00	 mov	 eax, 100		; 00000064H
  00005	c3		 ret	 0
?return100@@YAIXZ ENDP					; return100
_TEXT	ENDS
PUBLIC	?GetState@ioBaseChar@@QBE?AW4CharState@@XZ	; ioBaseChar::GetState
; Function compile flags: /Ogsp
; File d:\lost saga for developer\youtube\tutorial\source\src\lsclient\iobasechar.h
;	COMDAT ?GetState@ioBaseChar@@QBE?AW4CharState@@XZ
_TEXT	SEGMENT
?GetState@ioBaseChar@@QBE?AW4CharState@@XZ PROC		; ioBaseChar::GetState, COMDAT
; _this$ = ecx

; 2156 : 	inline CharState GetState() const { return m_CharState; }	

  00000	8a 81 10 03 00
	00		 mov	 al, BYTE PTR [ecx+784]
  00006	c3		 ret	 0
?GetState@ioBaseChar@@QBE?AW4CharState@@XZ ENDP		; ioBaseChar::GetState
_TEXT	ENDS
PUBLIC	?GetTargetRot@ioBaseChar@@QBEABUD3DXQUATERNION@@XZ ; ioBaseChar::GetTargetRot
; Function compile flags: /Ogsp
;	COMDAT ?GetTargetRot@ioBaseChar@@QBEABUD3DXQUATERNION@@XZ
_TEXT	SEGMENT
?GetTargetRot@ioBaseChar@@QBEABUD3DXQUATERNION@@XZ PROC	; ioBaseChar::GetTargetRot, COMDAT
; _this$ = ecx

; 2599 : 	inline const D3DXQUATERNION& GetTargetRot() const { return m_qtTargetRot; }

  00000	8d 81 a4 06 00
	00		 lea	 eax, DWORD PTR [ecx+1700]
  00006	c3		 ret	 0
?GetTargetRot@ioBaseChar@@QBEABUD3DXQUATERNION@@XZ ENDP	; ioBaseChar::GetTargetRot
_TEXT	ENDS
PUBLIC	?SetChargingState@ioBaseChar@@QAEX_N@Z		; ioBaseChar::SetChargingState
; Function compile flags: /Ogsp
;	COMDAT ?SetChargingState@ioBaseChar@@QAEX_N@Z
_TEXT	SEGMENT
_bState$ = 8						; size = 1
?SetChargingState@ioBaseChar@@QAEX_N@Z PROC		; ioBaseChar::SetChargingState, COMDAT
; _this$ = ecx

; 2937 : 	inline void SetChargingState( bool bState ) { m_bChargingState = bState; }

  00000	55		 push	 ebp
  00001	8b ec		 mov	 ebp, esp
  00003	8a 45 08	 mov	 al, BYTE PTR _bState$[ebp]
  00006	88 81 54 20 00
	00		 mov	 BYTE PTR [ecx+8276], al
  0000c	5d		 pop	 ebp
  0000d	c2 04 00	 ret	 4
?SetChargingState@ioBaseChar@@QAEX_N@Z ENDP		; ioBaseChar::SetChargingState
_TEXT	ENDS
PUBLIC	?IsDirKeyDoubleClick@ioBaseChar@@QBE_NXZ	; ioBaseChar::IsDirKeyDoubleClick
EXTRN	?IsDirDoubleClick@ioUserKeyInput@@QBE_NXZ:PROC	; ioUserKeyInput::IsDirDoubleClick
; Function compile flags: /Ogsp
;	COMDAT ?IsDirKeyDoubleClick@ioBaseChar@@QBE_NXZ
_TEXT	SEGMENT
?IsDirKeyDoubleClick@ioBaseChar@@QBE_NXZ PROC		; ioBaseChar::IsDirKeyDoubleClick, COMDAT
; _this$ = ecx

; 3398 : 	bool IsDirKeyDoubleClick() const { return m_KeyInput.IsDirDoubleClick(); }

  00000	81 c1 80 0c 00
	00		 add	 ecx, 3200		; 00000c80H
  00006	e9 00 00 00 00	 jmp	 ?IsDirDoubleClick@ioUserKeyInput@@QBE_NXZ ; ioUserKeyInput::IsDirDoubleClick
?IsDirKeyDoubleClick@ioBaseChar@@QBE_NXZ ENDP		; ioBaseChar::IsDirKeyDoubleClick
_TEXT	ENDS
PUBLIC	??_7bad_alloc@std@@6B@				; std::bad_alloc::`vftable'
PUBLIC	??0bad_alloc@std@@QAE@PBD@Z			; std::bad_alloc::bad_alloc
PUBLIC	??_R4bad_alloc@std@@6B@				; std::bad_alloc::`RTTI Complete Object Locator'
PUBLIC	??_R0?AVbad_alloc@std@@@8			; std::bad_alloc `RTTI Type Descriptor'
PUBLIC	??_R3bad_alloc@std@@8				; std::bad_alloc::`RTTI Class Hierarchy Descriptor'
PUBLIC	??_R2bad_alloc@std@@8				; std::bad_alloc::`RTTI Base Class Array'
PUBLIC	??_R1A@?0A@EA@bad_alloc@std@@8			; std::bad_alloc::`RTTI Base Class Descriptor at (0,-1,0,64)'
PUBLIC	??_R1A@?0A@EA@exception@std@@8			; std::exception::`RTTI Base Class Descriptor at (0,-1,0,64)'
PUBLIC	??_R0?AVexception@std@@@8			; std::exception `RTTI Type Descriptor'
PUBLIC	??_R3exception@std@@8				; std::exception::`RTTI Class Hierarchy Descriptor'
PUBLIC	??_R2exception@std@@8				; std::exception::`RTTI Base Class Array'
EXTRN	__imp_??0exception@std@@QAE@ABQBD@Z:PROC
EXTRN	??_7type_info@@6B@:QWORD			; type_info::`vftable'
EXTRN	??_Ebad_alloc@std@@UAEPAXI@Z:PROC		; std::bad_alloc::`vector deleting destructor'
EXTRN	?what@exception@std@@UBEPBDXZ:PROC		; std::exception::what
;	COMDAT ??_R2exception@std@@8
; File c:\program files (x86)\microsoft visual studio 10.0\vc\include\exception
rdata$r	SEGMENT
??_R2exception@std@@8 DD FLAT:??_R1A@?0A@EA@exception@std@@8 ; std::exception::`RTTI Base Class Array'
rdata$r	ENDS
;	COMDAT ??_R3exception@std@@8
rdata$r	SEGMENT
??_R3exception@std@@8 DD 00H				; std::exception::`RTTI Class Hierarchy Descriptor'
	DD	00H
	DD	01H
	DD	FLAT:??_R2exception@std@@8
rdata$r	ENDS
;	COMDAT ??_R0?AVexception@std@@@8
_DATA	SEGMENT
??_R0?AVexception@std@@@8 DD FLAT:??_7type_info@@6B@	; std::exception `RTTI Type Descriptor'
	DD	00H
	DB	'.?AVexception@std@@', 00H
_DATA	ENDS
;	COMDAT ??_R1A@?0A@EA@exception@std@@8
rdata$r	SEGMENT
??_R1A@?0A@EA@exception@std@@8 DD FLAT:??_R0?AVexception@std@@@8 ; std::exception::`RTTI Base Class Descriptor at (0,-1,0,64)'
	DD	00H
	DD	00H
	DD	0ffffffffH
	DD	00H
	DD	040H
	DD	FLAT:??_R3exception@std@@8
rdata$r	ENDS
;	COMDAT ??_R1A@?0A@EA@bad_alloc@std@@8
rdata$r	SEGMENT
??_R1A@?0A@EA@bad_alloc@std@@8 DD FLAT:??_R0?AVbad_alloc@std@@@8 ; std::bad_alloc::`RTTI Base Class Descriptor at (0,-1,0,64)'
	DD	01H
	DD	00H
	DD	0ffffffffH
	DD	00H
	DD	040H
	DD	FLAT:??_R3bad_alloc@std@@8
rdata$r	ENDS
;	COMDAT ??_R2bad_alloc@std@@8
rdata$r	SEGMENT
??_R2bad_alloc@std@@8 DD FLAT:??_R1A@?0A@EA@bad_alloc@std@@8 ; std::bad_alloc::`RTTI Base Class Array'
	DD	FLAT:??_R1A@?0A@EA@exception@std@@8
rdata$r	ENDS
;	COMDAT ??_R3bad_alloc@std@@8
rdata$r	SEGMENT
??_R3bad_alloc@std@@8 DD 00H				; std::bad_alloc::`RTTI Class Hierarchy Descriptor'
	DD	00H
	DD	02H
	DD	FLAT:??_R2bad_alloc@std@@8
rdata$r	ENDS
;	COMDAT ??_R0?AVbad_alloc@std@@@8
_DATA	SEGMENT
??_R0?AVbad_alloc@std@@@8 DD FLAT:??_7type_info@@6B@	; std::bad_alloc `RTTI Type Descriptor'
	DD	00H
	DB	'.?AVbad_alloc@std@@', 00H
_DATA	ENDS
;	COMDAT ??_R4bad_alloc@std@@6B@
rdata$r	SEGMENT
??_R4bad_alloc@std@@6B@ DD 00H				; std::bad_alloc::`RTTI Complete Object Locator'
	DD	00H
	DD	00H
	DD	FLAT:??_R0?AVbad_alloc@std@@@8
	DD	FLAT:??_R3bad_alloc@std@@8
rdata$r	ENDS
;	COMDAT ??_7bad_alloc@std@@6B@
CONST	SEGMENT
??_7bad_alloc@std@@6B@ DD FLAT:??_R4bad_alloc@std@@6B@	; std::bad_alloc::`vftable'
	DD	FLAT:??_Ebad_alloc@std@@UAEPAXI@Z
	DD	FLAT:?what@exception@std@@UBEPBDXZ
; Function compile flags: /Ogsp
CONST	ENDS
;	COMDAT ??0bad_alloc@std@@QAE@PBD@Z
_TEXT	SEGMENT
__Message$ = 8						; size = 4
??0bad_alloc@std@@QAE@PBD@Z PROC			; std::bad_alloc::bad_alloc, COMDAT
; _this$ = ecx

; 345  : 		{	// construct from message string

  00000	55		 push	 ebp
  00001	8b ec		 mov	 ebp, esp
  00003	56		 push	 esi
  00004	8d 45 08	 lea	 eax, DWORD PTR __Message$[ebp]
  00007	50		 push	 eax
  00008	8b f1		 mov	 esi, ecx
  0000a	ff 15 00 00 00
	00		 call	 DWORD PTR __imp_??0exception@std@@QAE@ABQBD@Z
  00010	c7 06 00 00 00
	00		 mov	 DWORD PTR [esi], OFFSET ??_7bad_alloc@std@@6B@

; 346  : 		}

  00016	8b c6		 mov	 eax, esi
  00018	5e		 pop	 esi
  00019	5d		 pop	 ebp
  0001a	c2 04 00	 ret	 4
??0bad_alloc@std@@QAE@PBD@Z ENDP			; std::bad_alloc::bad_alloc
_TEXT	ENDS
PUBLIC	??1bad_alloc@std@@UAE@XZ			; std::bad_alloc::~bad_alloc
EXTRN	__imp_??1exception@std@@UAE@XZ:PROC
; Function compile flags: /Ogsp
;	COMDAT ??1bad_alloc@std@@UAE@XZ
_TEXT	SEGMENT
??1bad_alloc@std@@UAE@XZ PROC				; std::bad_alloc::~bad_alloc, COMDAT
; _this$ = ecx

; 354  : 		{	// destroy the object

  00000	c7 01 00 00 00
	00		 mov	 DWORD PTR [ecx], OFFSET ??_7bad_alloc@std@@6B@

; 355  : 		}

  00006	ff 25 00 00 00
	00		 jmp	 DWORD PTR __imp_??1exception@std@@UAE@XZ
??1bad_alloc@std@@UAE@XZ ENDP				; std::bad_alloc::~bad_alloc
_TEXT	ENDS
EXTRN	??3@YAXPAX@Z:PROC				; operator delete
; Function compile flags: /Ogsp
;	COMDAT ??_Gbad_alloc@std@@UAEPAXI@Z
_TEXT	SEGMENT
___flags$ = 8						; size = 4
??_Gbad_alloc@std@@UAEPAXI@Z PROC			; std::bad_alloc::`scalar deleting destructor', COMDAT
; _this$ = ecx
  00000	55		 push	 ebp
  00001	8b ec		 mov	 ebp, esp
  00003	56		 push	 esi
  00004	8b f1		 mov	 esi, ecx
  00006	c7 06 00 00 00
	00		 mov	 DWORD PTR [esi], OFFSET ??_7bad_alloc@std@@6B@
  0000c	ff 15 00 00 00
	00		 call	 DWORD PTR __imp_??1exception@std@@UAE@XZ
  00012	f6 45 08 01	 test	 BYTE PTR ___flags$[ebp], 1
  00016	74 07		 je	 SHORT $LN1@scalar
  00018	56		 push	 esi
  00019	e8 00 00 00 00	 call	 ??3@YAXPAX@Z		; operator delete
  0001e	59		 pop	 ecx
$LN1@scalar:
  0001f	8b c6		 mov	 eax, esi
  00021	5e		 pop	 esi
  00022	5d		 pop	 ebp
  00023	c2 04 00	 ret	 4
??_Gbad_alloc@std@@UAEPAXI@Z ENDP			; std::bad_alloc::`scalar deleting destructor'
_TEXT	ENDS
PUBLIC	??2@YAPAXIPAX@Z					; operator new
; Function compile flags: /Ogsp
; File c:\program files (x86)\microsoft visual studio 10.0\vc\include\new
;	COMDAT ??2@YAPAXIPAX@Z
_TEXT	SEGMENT
___formal$ = 8						; size = 4
__Where$ = 12						; size = 4
??2@YAPAXIPAX@Z PROC					; operator new, COMDAT

; 56   : 	{	// construct array with placement at _Where

  00000	55		 push	 ebp
  00001	8b ec		 mov	 ebp, esp

; 57   : 	return (_Where);

  00003	8b 45 0c	 mov	 eax, DWORD PTR __Where$[ebp]

; 58   : 	}

  00006	5d		 pop	 ebp
  00007	c3		 ret	 0
??2@YAPAXIPAX@Z ENDP					; operator new
_TEXT	ENDS
PUBLIC	??3@YAXPAX0@Z					; operator delete
; Function compile flags: /Ogsp
;	COMDAT ??3@YAXPAX0@Z
_TEXT	SEGMENT
___formal$ = 8						; size = 4
___formal$ = 12						; size = 4
??3@YAXPAX0@Z PROC					; operator delete, COMDAT

; 62   : 	}

  00000	c3		 ret	 0
??3@YAXPAX0@Z ENDP					; operator delete
_TEXT	ENDS
PUBLIC	??_R0?AVioWeapon@@@8				; ioWeapon `RTTI Type Descriptor'
PUBLIC	??_R0?AVioZoneEffectWeapon@@@8			; ioZoneEffectWeapon `RTTI Type Descriptor'
PUBLIC	?ToZoneEffectWeapon@@YAPAVioZoneEffectWeapon@@PAVioWeapon@@@Z ; ToZoneEffectWeapon
EXTRN	___RTDynamicCast:PROC
;	COMDAT ??_R0?AVioWeapon@@@8
; File d:\lost saga for developer\youtube\tutorial\source\src\lsclient\iozoneeffectweapon.h
_DATA	SEGMENT
??_R0?AVioWeapon@@@8 DD FLAT:??_7type_info@@6B@		; ioWeapon `RTTI Type Descriptor'
	DD	00H
	DB	'.?AVioWeapon@@', 00H
_DATA	ENDS
;	COMDAT ??_R0?AVioZoneEffectWeapon@@@8
_DATA	SEGMENT
??_R0?AVioZoneEffectWeapon@@@8 DD FLAT:??_7type_info@@6B@ ; ioZoneEffectWeapon `RTTI Type Descriptor'
	DD	00H
	DB	'.?AVioZoneEffectWeapon@@', 00H
; Function compile flags: /Ogsp
_DATA	ENDS
;	COMDAT ?ToZoneEffectWeapon@@YAPAVioZoneEffectWeapon@@PAVioWeapon@@@Z
_TEXT	SEGMENT
_pWeapon$ = 8						; size = 4
?ToZoneEffectWeapon@@YAPAVioZoneEffectWeapon@@PAVioWeapon@@@Z PROC ; ToZoneEffectWeapon, COMDAT

; 217  : {

  00000	55		 push	 ebp
  00001	8b ec		 mov	 ebp, esp
  00003	56		 push	 esi

; 218  : 	if( !pWeapon || pWeapon->GetType() != ioWeapon::WT_ZONE_EFFECT )

  00004	8b 75 08	 mov	 esi, DWORD PTR _pWeapon$[ebp]
  00007	85 f6		 test	 esi, esi
  00009	74 28		 je	 SHORT $LN1@ToZoneEffe
  0000b	8b 06		 mov	 eax, DWORD PTR [esi]
  0000d	8b ce		 mov	 ecx, esi
  0000f	ff 90 10 01 00
	00		 call	 DWORD PTR [eax+272]
  00015	83 f8 08	 cmp	 eax, 8
  00018	75 19		 jne	 SHORT $LN1@ToZoneEffe

; 220  : 
; 221  : 	return dynamic_cast< ioZoneEffectWeapon* >( pWeapon );

  0001a	6a 00		 push	 0
  0001c	68 00 00 00 00	 push	 OFFSET ??_R0?AVioZoneEffectWeapon@@@8
  00021	68 00 00 00 00	 push	 OFFSET ??_R0?AVioWeapon@@@8
  00026	6a 00		 push	 0
  00028	56		 push	 esi
  00029	e8 00 00 00 00	 call	 ___RTDynamicCast
  0002e	83 c4 14	 add	 esp, 20			; 00000014H
  00031	eb 02		 jmp	 SHORT $LN3@ToZoneEffe
$LN1@ToZoneEffe:

; 219  : 		return NULL;

  00033	33 c0		 xor	 eax, eax
$LN3@ToZoneEffe:
  00035	5e		 pop	 esi

; 222  : }

  00036	5d		 pop	 ebp
  00037	c3		 ret	 0
?ToZoneEffectWeapon@@YAPAVioZoneEffectWeapon@@PAVioWeapon@@@Z ENDP ; ToZoneEffectWeapon
_TEXT	ENDS
PUBLIC	??_R0?AVioSummonMissileWeapon@@@8		; ioSummonMissileWeapon `RTTI Type Descriptor'
PUBLIC	?ToSummonMissileWeapon@@YAPAVioSummonMissileWeapon@@PAVioWeapon@@@Z ; ToSummonMissileWeapon
;	COMDAT ??_R0?AVioSummonMissileWeapon@@@8
; File d:\lost saga for developer\youtube\tutorial\source\src\lsclient\iosummonmissileweapon.h
_DATA	SEGMENT
??_R0?AVioSummonMissileWeapon@@@8 DD FLAT:??_7type_info@@6B@ ; ioSummonMissileWeapon `RTTI Type Descriptor'
	DD	00H
	DB	'.?AVioSummonMissileWeapon@@', 00H
; Function compile flags: /Ogsp
_DATA	ENDS
;	COMDAT ?ToSummonMissileWeapon@@YAPAVioSummonMissileWeapon@@PAVioWeapon@@@Z
_TEXT	SEGMENT
_pWeapon$ = 8						; size = 4
?ToSummonMissileWeapon@@YAPAVioSummonMissileWeapon@@PAVioWeapon@@@Z PROC ; ToSummonMissileWeapon, COMDAT

; 123  : {

  00000	55		 push	 ebp
  00001	8b ec		 mov	 ebp, esp
  00003	56		 push	 esi

; 124  : 	if( !pWeapon || pWeapon->GetType() != ioWeapon::WT_SUMMON_MISSILE )

  00004	8b 75 08	 mov	 esi, DWORD PTR _pWeapon$[ebp]
  00007	85 f6		 test	 esi, esi
  00009	74 28		 je	 SHORT $LN1@ToSummonMi
  0000b	8b 06		 mov	 eax, DWORD PTR [esi]
  0000d	8b ce		 mov	 ecx, esi
  0000f	ff 90 10 01 00
	00		 call	 DWORD PTR [eax+272]
  00015	83 f8 21	 cmp	 eax, 33			; 00000021H
  00018	75 19		 jne	 SHORT $LN1@ToSummonMi

; 126  : 
; 127  : 	return dynamic_cast< ioSummonMissileWeapon* >( pWeapon );

  0001a	6a 00		 push	 0
  0001c	68 00 00 00 00	 push	 OFFSET ??_R0?AVioSummonMissileWeapon@@@8
  00021	68 00 00 00 00	 push	 OFFSET ??_R0?AVioWeapon@@@8
  00026	6a 00		 push	 0
  00028	56		 push	 esi
  00029	e8 00 00 00 00	 call	 ___RTDynamicCast
  0002e	83 c4 14	 add	 esp, 20			; 00000014H
  00031	eb 02		 jmp	 SHORT $LN3@ToSummonMi
$LN1@ToSummonMi:

; 125  : 		return NULL;

  00033	33 c0		 xor	 eax, eax
$LN3@ToSummonMi:
  00035	5e		 pop	 esi

; 128  : }

  00036	5d		 pop	 ebp
  00037	c3		 ret	 0
?ToSummonMissileWeapon@@YAPAVioSummonMissileWeapon@@PAVioWeapon@@@Z ENDP ; ToSummonMissileWeapon
_TEXT	ENDS
PUBLIC	?_Adopt@_Iterator_base0@std@@QAEXPBX@Z		; std::_Iterator_base0::_Adopt
; Function compile flags: /Ogsp
; File c:\program files (x86)\microsoft visual studio 10.0\vc\include\xutility
;	COMDAT ?_Adopt@_Iterator_base0@std@@QAEXPBX@Z
_TEXT	SEGMENT
___formal$ = 8						; size = 4
?_Adopt@_Iterator_base0@std@@QAEXPBX@Z PROC		; std::_Iterator_base0::_Adopt, COMDAT
; _this$ = ecx

; 49   : 		}

  00000	c2 04 00	 ret	 4
?_Adopt@_Iterator_base0@std@@QAEXPBX@Z ENDP		; std::_Iterator_base0::_Adopt
_TEXT	ENDS
PUBLIC	?GetSubType@ioSummonChargeItem@@UBE?AW4WeaponSubType@ioWeaponItem@@XZ ; ioSummonChargeItem::GetSubType
; Function compile flags: /Ogsp
; File d:\lost saga for developer\youtube\tutorial\source\src\lsclient\iosummonchargeitem.cpp
;	COMDAT ?GetSubType@ioSummonChargeItem@@UBE?AW4WeaponSubType@ioWeaponItem@@XZ
_TEXT	SEGMENT
?GetSubType@ioSummonChargeItem@@UBE?AW4WeaponSubType@ioWeaponItem@@XZ PROC ; ioSummonChargeItem::GetSubType, COMDAT
; _this$ = ecx

; 139  : 	return WST_SUMMON_CHARGE;

  00000	6a 13		 push	 19			; 00000013H
  00002	58		 pop	 eax

; 140  : }

  00003	c3		 ret	 0
?GetSubType@ioSummonChargeItem@@UBE?AW4WeaponSubType@ioWeaponItem@@XZ ENDP ; ioSummonChargeItem::GetSubType
_TEXT	ENDS
PUBLIC	?IsChargeAttackState@ioSummonChargeItem@@UAE_NPAVioBaseChar@@@Z ; ioSummonChargeItem::IsChargeAttackState
; Function compile flags: /Ogsp
;	COMDAT ?IsChargeAttackState@ioSummonChargeItem@@UAE_NPAVioBaseChar@@@Z
_TEXT	SEGMENT
_pOwner$ = 8						; size = 4
?IsChargeAttackState@ioSummonChargeItem@@UAE_NPAVioBaseChar@@@Z PROC ; ioSummonChargeItem::IsChargeAttackState, COMDAT
; _this$ = ecx

; 524  : {

  00000	55		 push	 ebp
  00001	8b ec		 mov	 ebp, esp

; 525  : 	if( pOwner->GetState() == CS_ATTACK )

  00003	8b 45 08	 mov	 eax, DWORD PTR _pOwner$[ebp]
  00006	80 b8 10 03 00
	00 05		 cmp	 BYTE PTR [eax+784], 5
  0000d	75 10		 jne	 SHORT $LN2@IsChargeAt

; 526  : 	{
; 527  : 		switch( m_ChargeState )

  0000f	8b 81 54 19 00
	00		 mov	 eax, DWORD PTR [ecx+6484]
  00015	48		 dec	 eax
  00016	83 f8 02	 cmp	 eax, 2
  00019	77 04		 ja	 SHORT $LN2@IsChargeAt

; 528  : 		{
; 529  : 		case CS_CHARGING:
; 530  : 		case CS_GATHERING:
; 531  : 		case CS_ATTACK_FIRE:
; 532  : 			return true;

  0001b	b0 01		 mov	 al, 1
  0001d	eb 02		 jmp	 SHORT $LN5@IsChargeAt
$LN2@IsChargeAt:

; 533  : 		}
; 534  : 	}
; 535  : 
; 536  : 	return false;

  0001f	32 c0		 xor	 al, al
$LN5@IsChargeAt:

; 537  : }

  00021	5d		 pop	 ebp
  00022	c2 04 00	 ret	 4
?IsChargeAttackState@ioSummonChargeItem@@UAE_NPAVioBaseChar@@@Z ENDP ; ioSummonChargeItem::IsChargeAttackState
_TEXT	ENDS
PUBLIC	?IsEnableAttackDashCheck@ioSummonChargeItem@@UAE_NPAVioBaseChar@@_N@Z ; ioSummonChargeItem::IsEnableAttackDashCheck
; Function compile flags: /Ogsp
;	COMDAT ?IsEnableAttackDashCheck@ioSummonChargeItem@@UAE_NPAVioBaseChar@@_N@Z
_TEXT	SEGMENT
_pOwner$ = 8						; size = 4
_bCheck$ = 12						; size = 1
?IsEnableAttackDashCheck@ioSummonChargeItem@@UAE_NPAVioBaseChar@@_N@Z PROC ; ioSummonChargeItem::IsEnableAttackDashCheck, COMDAT
; _this$ = ecx

; 540  : {

  00000	55		 push	 ebp
  00001	8b ec		 mov	 ebp, esp

; 541  : 	if( !bCheck ) return false;

  00003	80 7d 0c 00	 cmp	 BYTE PTR _bCheck$[ebp], 0
  00007	74 1a		 je	 SHORT $LN2@IsEnableAt

; 542  : 
; 543  : 	if( pOwner->GetState() == CS_ATTACK )

  00009	8b 45 08	 mov	 eax, DWORD PTR _pOwner$[ebp]
  0000c	80 b8 10 03 00
	00 05		 cmp	 BYTE PTR [eax+784], 5
  00013	75 0e		 jne	 SHORT $LN2@IsEnableAt

; 544  : 	{
; 545  : 		switch( m_ChargeState )

  00015	8b 81 54 19 00
	00		 mov	 eax, DWORD PTR [ecx+6484]
  0001b	48		 dec	 eax
  0001c	48		 dec	 eax
  0001d	75 04		 jne	 SHORT $LN2@IsEnableAt

; 546  : 		{
; 547  : 		case CS_GATHERING:
; 548  : 			return true;

  0001f	b0 01		 mov	 al, 1
  00021	eb 02		 jmp	 SHORT $LN6@IsEnableAt
$LN2@IsEnableAt:

; 549  : 		}
; 550  : 	}
; 551  : 
; 552  : 	return false;

  00023	32 c0		 xor	 al, al
$LN6@IsEnableAt:

; 553  : }

  00025	5d		 pop	 ebp
  00026	c2 08 00	 ret	 8
?IsEnableAttackDashCheck@ioSummonChargeItem@@UAE_NPAVioBaseChar@@_N@Z ENDP ; ioSummonChargeItem::IsEnableAttackDashCheck
_TEXT	ENDS
PUBLIC	?IsEnableAttackRotateCheck@ioSummonChargeItem@@UAE_NPAVioBaseChar@@@Z ; ioSummonChargeItem::IsEnableAttackRotateCheck
; Function compile flags: /Ogsp
;	COMDAT ?IsEnableAttackRotateCheck@ioSummonChargeItem@@UAE_NPAVioBaseChar@@@Z
_TEXT	SEGMENT
_pOwner$ = 8						; size = 4
?IsEnableAttackRotateCheck@ioSummonChargeItem@@UAE_NPAVioBaseChar@@@Z PROC ; ioSummonChargeItem::IsEnableAttackRotateCheck, COMDAT
; _this$ = ecx

; 556  : {

  00000	55		 push	 ebp
  00001	8b ec		 mov	 ebp, esp

; 557  : 	if( pOwner->GetState() == CS_ATTACK )

  00003	8b 45 08	 mov	 eax, DWORD PTR _pOwner$[ebp]
  00006	80 b8 10 03 00
	00 05		 cmp	 BYTE PTR [eax+784], 5
  0000d	75 0e		 jne	 SHORT $LN2@IsEnableAt@2

; 558  : 	{
; 559  : 		switch( m_ChargeState )

  0000f	8b 81 54 19 00
	00		 mov	 eax, DWORD PTR [ecx+6484]
  00015	48		 dec	 eax
  00016	48		 dec	 eax
  00017	75 04		 jne	 SHORT $LN2@IsEnableAt@2

; 560  : 		{
; 561  : 		case CS_GATHERING:
; 562  : 			return true;

  00019	b0 01		 mov	 al, 1
  0001b	eb 02		 jmp	 SHORT $LN5@IsEnableAt@2
$LN2@IsEnableAt@2:

; 563  : 		}
; 564  : 	}
; 565  : 
; 566  : 	return false;

  0001d	32 c0		 xor	 al, al
$LN5@IsEnableAt@2:

; 567  : }

  0001f	5d		 pop	 ebp
  00020	c2 04 00	 ret	 4
?IsEnableAttackRotateCheck@ioSummonChargeItem@@UAE_NPAVioBaseChar@@@Z ENDP ; ioSummonChargeItem::IsEnableAttackRotateCheck
_TEXT	ENDS
PUBLIC	?OnEndExtendAttack@ioSummonChargeItem@@UAEXPAVioBaseChar@@_N@Z ; ioSummonChargeItem::OnEndExtendAttack
EXTRN	?EndEffect@ioBaseChar@@QAEXK_N@Z:PROC		; ioBaseChar::EndEffect
; Function compile flags: /Ogsp
;	COMDAT ?OnEndExtendAttack@ioSummonChargeItem@@UAEXPAVioBaseChar@@_N@Z
_TEXT	SEGMENT
_pOwner$ = 8						; size = 4
_bReleaseItem$ = 12					; size = 1
?OnEndExtendAttack@ioSummonChargeItem@@UAEXPAVioBaseChar@@_N@Z PROC ; ioSummonChargeItem::OnEndExtendAttack, COMDAT
; _this$ = ecx

; 630  : {

  00000	55		 push	 ebp
  00001	8b ec		 mov	 ebp, esp
  00003	8b c1		 mov	 eax, ecx

; 631  : 	//pOwner->SetAttackMoveEnable( false );
; 632  : 	pOwner->SetChargingState( false );

  00005	8b 4d 08	 mov	 ecx, DWORD PTR _pOwner$[ebp]
  00008	33 d2		 xor	 edx, edx
  0000a	56		 push	 esi
  0000b	88 91 54 20 00
	00		 mov	 BYTE PTR [ecx+8276], dl

; 633  : 	m_bSetChargingMoveAni = false;
; 634  : 
; 635  : 	if( m_GatheringEffectID != -1 )

  00011	8d b0 74 19 00
	00		 lea	 esi, DWORD PTR [eax+6516]
  00017	88 90 8c 19 00
	00		 mov	 BYTE PTR [eax+6540], dl
  0001d	8b 06		 mov	 eax, DWORD PTR [esi]
  0001f	83 f8 ff	 cmp	 eax, -1
  00022	74 0a		 je	 SHORT $LN1@OnEndExten

; 636  : 	{
; 637  : 		pOwner->EndEffect( m_GatheringEffectID, false );

  00024	52		 push	 edx
  00025	50		 push	 eax
  00026	e8 00 00 00 00	 call	 ?EndEffect@ioBaseChar@@QAEXK_N@Z ; ioBaseChar::EndEffect

; 638  : 		m_GatheringEffectID = -1;

  0002b	83 0e ff	 or	 DWORD PTR [esi], -1
$LN1@OnEndExten:
  0002e	5e		 pop	 esi

; 639  : 	}
; 640  : }

  0002f	5d		 pop	 ebp
  00030	c2 08 00	 ret	 8
?OnEndExtendAttack@ioSummonChargeItem@@UAEXPAVioBaseChar@@_N@Z ENDP ; ioSummonChargeItem::OnEndExtendAttack
_TEXT	ENDS
PUBLIC	?GetAutoTargetValue@ioSummonChargeItem@@UAEXPAVioBaseChar@@AAM11W4AutoTargetType@@@Z ; ioSummonChargeItem::GetAutoTargetValue
EXTRN	__fltused:DWORD
; Function compile flags: /Ogsp
;	COMDAT ?GetAutoTargetValue@ioSummonChargeItem@@UAEXPAVioBaseChar@@AAM11W4AutoTargetType@@@Z
_TEXT	SEGMENT
_pOwner$ = 8						; size = 4
_fRange$ = 12						; size = 4
_fMinAngle$ = 16					; size = 4
_fMaxAngle$ = 20					; size = 4
_eType$ = 24						; size = 4
?GetAutoTargetValue@ioSummonChargeItem@@UAEXPAVioBaseChar@@AAM11W4AutoTargetType@@@Z PROC ; ioSummonChargeItem::GetAutoTargetValue, COMDAT
; _this$ = ecx

; 645  : {

  00000	55		 push	 ebp
  00001	8b ec		 mov	 ebp, esp

; 646  : 	fRange = m_fAutoTargetRange;

  00003	d9 81 94 12 00
	00		 fld	 DWORD PTR [ecx+4756]
  00009	8b 45 0c	 mov	 eax, DWORD PTR _fRange$[ebp]
  0000c	d9 18		 fstp	 DWORD PTR [eax]

; 647  : 	fMinAngle = m_fAutoTargetMinAngle;

  0000e	8b 45 10	 mov	 eax, DWORD PTR _fMinAngle$[ebp]
  00011	d9 81 8c 12 00
	00		 fld	 DWORD PTR [ecx+4748]
  00017	d9 18		 fstp	 DWORD PTR [eax]

; 648  : 	fMaxAngle = m_fAutoTargetMaxAngle;

  00019	8b 45 14	 mov	 eax, DWORD PTR _fMaxAngle$[ebp]
  0001c	d9 81 90 12 00
	00		 fld	 DWORD PTR [ecx+4752]
  00022	d9 18		 fstp	 DWORD PTR [eax]

; 649  : }

  00024	5d		 pop	 ebp
  00025	c2 14 00	 ret	 20			; 00000014H
?GetAutoTargetValue@ioSummonChargeItem@@UAEXPAVioBaseChar@@AAM11W4AutoTargetType@@@Z ENDP ; ioSummonChargeItem::GetAutoTargetValue
_TEXT	ENDS
PUBLIC	?CheckReserve@ioSummonChargeItem@@MAEXPAVioBaseChar@@@Z ; ioSummonChargeItem::CheckReserve
EXTRN	?IsJumpKey@ioBaseChar@@QBE_NXZ:PROC		; ioBaseChar::IsJumpKey
EXTRN	?IsAttackKey@ioBaseChar@@QBE_NXZ:PROC		; ioBaseChar::IsAttackKey
EXTRN	?IsDefenseKeyDown@ioBaseChar@@QBE_NXZ:PROC	; ioBaseChar::IsDefenseKeyDown
EXTRN	?GetSkillKeyInput@ioBaseChar@@QAEHXZ:PROC	; ioBaseChar::GetSkillKeyInput
; Function compile flags: /Ogsp
;	COMDAT ?CheckReserve@ioSummonChargeItem@@MAEXPAVioBaseChar@@@Z
_TEXT	SEGMENT
_bReserveSkill$ = -1					; size = 1
_pOwner$ = 8						; size = 4
?CheckReserve@ioSummonChargeItem@@MAEXPAVioBaseChar@@@Z PROC ; ioSummonChargeItem::CheckReserve, COMDAT
; _this$ = ecx

; 916  : {

  00000	55		 push	 ebp
  00001	8b ec		 mov	 ebp, esp
  00003	51		 push	 ecx
  00004	53		 push	 ebx
  00005	56		 push	 esi
  00006	57		 push	 edi

; 917  : 	bool bReserveSkill = false;
; 918  : 	int iSkillNum = pOwner->GetSkillKeyInput();

  00007	8b 7d 08	 mov	 edi, DWORD PTR _pOwner$[ebp]
  0000a	8b f1		 mov	 esi, ecx
  0000c	33 db		 xor	 ebx, ebx
  0000e	8b cf		 mov	 ecx, edi
  00010	88 5d ff	 mov	 BYTE PTR _bReserveSkill$[ebp], bl
  00013	e8 00 00 00 00	 call	 ?GetSkillKeyInput@ioBaseChar@@QAEHXZ ; ioBaseChar::GetSkillKeyInput

; 919  : 	if( iSkillNum >= 0 )

  00018	3b c3		 cmp	 eax, ebx
  0001a	7c 0a		 jl	 SHORT $LN6@CheckReser

; 920  : 	{
; 921  : 		m_iSkillInput = iSkillNum;

  0001c	89 86 fc 0e 00
	00		 mov	 DWORD PTR [esi+3836], eax

; 922  : 		bReserveSkill = true;

  00022	c6 45 ff 01	 mov	 BYTE PTR _bReserveSkill$[ebp], 1
$LN6@CheckReser:

; 923  : 	}
; 924  : 
; 925  : 	if( pOwner->IsDefenseKeyDown() && !m_bEnableDefenseState && !bReserveSkill )

  00026	8b cf		 mov	 ecx, edi
  00028	e8 00 00 00 00	 call	 ?IsDefenseKeyDown@ioBaseChar@@QBE_NXZ ; ioBaseChar::IsDefenseKeyDown
  0002d	84 c0		 test	 al, al
  0002f	74 1e		 je	 SHORT $LN5@CheckReser
  00031	38 9e 00 0f 00
	00		 cmp	 BYTE PTR [esi+3840], bl
  00037	75 16		 jne	 SHORT $LN5@CheckReser
  00039	38 5d ff	 cmp	 BYTE PTR _bReserveSkill$[ebp], bl
  0003c	75 11		 jne	 SHORT $LN5@CheckReser

; 926  : 	{
; 927  : 		m_bEnableDefenseState = true;

  0003e	66 c7 86 00 0f
	00 00 01 00	 mov	 WORD PTR [esi+3840], 1
$LN10@CheckReser:

; 928  : 		m_bEnableAttackState = false;
; 929  : 		m_bEnableJumpState = false;

  00047	88 9e 02 0f 00
	00		 mov	 BYTE PTR [esi+3842], bl

; 930  : 
; 931  : 		m_iSkillInput = -1;

  0004d	eb 4a		 jmp	 SHORT $LN9@CheckReser
$LN5@CheckReser:

; 932  : 	}
; 933  : 	else if( pOwner->IsAttackKey() && !m_bEnableAttackState && !bReserveSkill )

  0004f	8b cf		 mov	 ecx, edi
  00051	e8 00 00 00 00	 call	 ?IsAttackKey@ioBaseChar@@QBE_NXZ ; ioBaseChar::IsAttackKey
  00056	84 c0		 test	 al, al
  00058	74 18		 je	 SHORT $LN3@CheckReser
  0005a	38 9e 01 0f 00
	00		 cmp	 BYTE PTR [esi+3841], bl
  00060	75 10		 jne	 SHORT $LN3@CheckReser
  00062	38 5d ff	 cmp	 BYTE PTR _bReserveSkill$[ebp], bl
  00065	75 0b		 jne	 SHORT $LN3@CheckReser

; 934  : 	{
; 935  : 		m_bEnableAttackState = true;

  00067	66 c7 86 00 0f
	00 00 00 01	 mov	 WORD PTR [esi+3840], 256 ; 00000100H

; 936  : 		m_bEnableDefenseState = false;
; 937  : 		m_bEnableJumpState = false;
; 938  : 
; 939  : 		m_iSkillInput = -1;

  00070	eb d5		 jmp	 SHORT $LN10@CheckReser
$LN3@CheckReser:

; 940  : 	}
; 941  : 	else if( pOwner->IsJumpKey() && !m_bEnableJumpState && !bReserveSkill )

  00072	8b cf		 mov	 ecx, edi
  00074	e8 00 00 00 00	 call	 ?IsJumpKey@ioBaseChar@@QBE_NXZ ; ioBaseChar::IsJumpKey
  00079	84 c0		 test	 al, al
  0007b	74 23		 je	 SHORT $LN1@CheckReser
  0007d	38 9e 02 0f 00
	00		 cmp	 BYTE PTR [esi+3842], bl
  00083	75 1b		 jne	 SHORT $LN1@CheckReser
  00085	38 5d ff	 cmp	 BYTE PTR _bReserveSkill$[ebp], bl
  00088	75 16		 jne	 SHORT $LN1@CheckReser

; 942  : 	{
; 943  : 		m_bEnableJumpState = true;

  0008a	66 c7 86 01 0f
	00 00 00 01	 mov	 WORD PTR [esi+3841], 256 ; 00000100H

; 944  : 		m_bEnableAttackState = false;
; 945  : 		m_bEnableDefenseState = false;

  00093	88 9e 00 0f 00
	00		 mov	 BYTE PTR [esi+3840], bl
$LN9@CheckReser:

; 946  : 		m_iSkillInput = -1;

  00099	83 8e fc 0e 00
	00 ff		 or	 DWORD PTR [esi+3836], -1
$LN1@CheckReser:
  000a0	5f		 pop	 edi
  000a1	5e		 pop	 esi
  000a2	5b		 pop	 ebx

; 947  : 	}
; 948  : }

  000a3	c9		 leave
  000a4	c2 04 00	 ret	 4
?CheckReserve@ioSummonChargeItem@@MAEXPAVioBaseChar@@@Z ENDP ; ioSummonChargeItem::CheckReserve
_TEXT	ENDS
PUBLIC	?ClearState@ioSummonChargeItem@@IAEXXZ		; ioSummonChargeItem::ClearState
; Function compile flags: /Ogsp
;	COMDAT ?ClearState@ioSummonChargeItem@@IAEXXZ
_TEXT	SEGMENT
?ClearState@ioSummonChargeItem@@IAEXXZ PROC		; ioSummonChargeItem::ClearState, COMDAT
; _this$ = ecx

; 952  : 	m_ChargeState = CS_NONE;
; 953  : 
; 954  : 	m_iSkillInput = -1;

  00000	83 89 fc 0e 00
	00 ff		 or	 DWORD PTR [ecx+3836], -1
  00007	33 c0		 xor	 eax, eax
  00009	89 81 54 19 00
	00		 mov	 DWORD PTR [ecx+6484], eax

; 955  : 	m_bEnableDefenseState = false;

  0000f	66 89 81 00 0f
	00 00		 mov	 WORD PTR [ecx+3840], ax

; 956  : 	m_bEnableAttackState = false;
; 957  : 	m_bEnableJumpState = false;

  00016	88 81 02 0f 00
	00		 mov	 BYTE PTR [ecx+3842], al

; 958  : }

  0001c	c3		 ret	 0
?ClearState@ioSummonChargeItem@@IAEXXZ ENDP		; ioSummonChargeItem::ClearState
_TEXT	ENDS
PUBLIC	?ProcessJumpAttack@ioSummonChargeItem@@UAEXPAVioBaseChar@@M@Z ; ioSummonChargeItem::ProcessJumpAttack
; Function compile flags: /Ogsp
;	COMDAT ?ProcessJumpAttack@ioSummonChargeItem@@UAEXPAVioBaseChar@@M@Z
_TEXT	SEGMENT
_pOwner$ = 8						; size = 4
_fHeightGap$ = 12					; size = 4
?ProcessJumpAttack@ioSummonChargeItem@@UAEXPAVioBaseChar@@M@Z PROC ; ioSummonChargeItem::ProcessJumpAttack, COMDAT
; _this$ = ecx

; 994  : {

  00000	55		 push	 ebp
  00001	8b ec		 mov	 ebp, esp
  00003	56		 push	 esi
  00004	8b f1		 mov	 esi, ecx

; 995  : 	if( m_pExtendJump )

  00006	83 be c8 0b 00
	00 00		 cmp	 DWORD PTR [esi+3016], 0
  0000d	74 1b		 je	 SHORT $LN1@ProcessJum

; 996  : 	{
; 997  : 		m_pExtendJump->ProcessJumpAttack( pOwner, fHeightGap );

  0000f	8b 86 c8 0b 00
	00		 mov	 eax, DWORD PTR [esi+3016]
  00015	f3 0f 10 45 0c	 movss	 xmm0, DWORD PTR _fHeightGap$[ebp]
  0001a	8b 10		 mov	 edx, DWORD PTR [eax]
  0001c	51		 push	 ecx
  0001d	f3 0f 11 04 24	 movss	 DWORD PTR [esp], xmm0
  00022	ff 75 08	 push	 DWORD PTR _pOwner$[ebp]
  00025	8b c8		 mov	 ecx, eax
  00027	ff 52 24	 call	 DWORD PTR [edx+36]
$LN1@ProcessJum:

; 998  : 	}
; 999  : 
; 1000 : 	CheckAirJump( pOwner );

  0002a	ff 75 08	 push	 DWORD PTR _pOwner$[ebp]
  0002d	8b 06		 mov	 eax, DWORD PTR [esi]
  0002f	8b ce		 mov	 ecx, esi
  00031	ff 90 b0 02 00
	00		 call	 DWORD PTR [eax+688]
  00037	5e		 pop	 esi

; 1001 : }

  00038	5d		 pop	 ebp
  00039	c2 08 00	 ret	 8
?ProcessJumpAttack@ioSummonChargeItem@@UAEXPAVioBaseChar@@M@Z ENDP ; ioSummonChargeItem::ProcessJumpAttack
_TEXT	ENDS
PUBLIC	?IsEnableExtraGauge@ioSummonChargeItem@@UAE_NPAVioBaseChar@@@Z ; ioSummonChargeItem::IsEnableExtraGauge
; Function compile flags: /Ogsp
;	COMDAT ?IsEnableExtraGauge@ioSummonChargeItem@@UAE_NPAVioBaseChar@@@Z
_TEXT	SEGMENT
_pChar$ = 8						; size = 4
?IsEnableExtraGauge@ioSummonChargeItem@@UAE_NPAVioBaseChar@@@Z PROC ; ioSummonChargeItem::IsEnableExtraGauge, COMDAT
; _this$ = ecx

; 1081 : {

  00000	55		 push	 ebp
  00001	8b ec		 mov	 ebp, esp

; 1082 : 	if( m_bGaugeUpdateChargeAttack && IsChargeAttackState( pChar ) )

  00003	80 b9 67 0c 00
	00 00		 cmp	 BYTE PTR [ecx+3175], 0
  0000a	74 13		 je	 SHORT $LN1@IsEnableEx
  0000c	ff 75 08	 push	 DWORD PTR _pChar$[ebp]
  0000f	8b 01		 mov	 eax, DWORD PTR [ecx]
  00011	ff 90 54 01 00
	00		 call	 DWORD PTR [eax+340]
  00017	84 c0		 test	 al, al
  00019	74 04		 je	 SHORT $LN1@IsEnableEx

; 1083 : 		return false;

  0001b	32 c0		 xor	 al, al
  0001d	eb 02		 jmp	 SHORT $LN2@IsEnableEx
$LN1@IsEnableEx:

; 1084 : 
; 1085 : 	return true;

  0001f	b0 01		 mov	 al, 1
$LN2@IsEnableEx:

; 1086 : }

  00021	5d		 pop	 ebp
  00022	c2 04 00	 ret	 4
?IsEnableExtraGauge@ioSummonChargeItem@@UAE_NPAVioBaseChar@@@Z ENDP ; ioSummonChargeItem::IsEnableExtraGauge
_TEXT	ENDS
PUBLIC	?size@?$vector@UtagSummonAttackInfo@@V?$allocator@UtagSummonAttackInfo@@@std@@@std@@QBEIXZ ; std::vector<tagSummonAttackInfo,std::allocator<tagSummonAttackInfo> >::size
; Function compile flags: /Ogsp
; File c:\program files (x86)\microsoft visual studio 10.0\vc\include\vector
;	COMDAT ?size@?$vector@UtagSummonAttackInfo@@V?$allocator@UtagSummonAttackInfo@@@std@@@std@@QBEIXZ
_TEXT	SEGMENT
?size@?$vector@UtagSummonAttackInfo@@V?$allocator@UtagSummonAttackInfo@@@std@@@std@@QBEIXZ PROC ; std::vector<tagSummonAttackInfo,std::allocator<tagSummonAttackInfo> >::size, COMDAT
; _this$ = ecx

; 879  : 		return (this->_Mylast - this->_Myfirst);

  00000	8b 41 04	 mov	 eax, DWORD PTR [ecx+4]
  00003	2b 01		 sub	 eax, DWORD PTR [ecx]
  00005	6a 74		 push	 116			; 00000074H
  00007	99		 cdq
  00008	59		 pop	 ecx
  00009	f7 f9		 idiv	 ecx

; 880  : 		}

  0000b	c3		 ret	 0
?size@?$vector@UtagSummonAttackInfo@@V?$allocator@UtagSummonAttackInfo@@@std@@@std@@QBEIXZ ENDP ; std::vector<tagSummonAttackInfo,std::allocator<tagSummonAttackInfo> >::size
_TEXT	ENDS
PUBLIC	?empty@?$vector@UtagSummonAttackInfo@@V?$allocator@UtagSummonAttackInfo@@@std@@@std@@QBE_NXZ ; std::vector<tagSummonAttackInfo,std::allocator<tagSummonAttackInfo> >::empty
; Function compile flags: /Ogsp
;	COMDAT ?empty@?$vector@UtagSummonAttackInfo@@V?$allocator@UtagSummonAttackInfo@@@std@@@std@@QBE_NXZ
_TEXT	SEGMENT
?empty@?$vector@UtagSummonAttackInfo@@V?$allocator@UtagSummonAttackInfo@@@std@@@std@@QBE_NXZ PROC ; std::vector<tagSummonAttackInfo,std::allocator<tagSummonAttackInfo> >::empty, COMDAT
; _this$ = ecx

; 889  : 		return (this->_Myfirst == this->_Mylast);

  00000	8b 01		 mov	 eax, DWORD PTR [ecx]
  00002	2b 41 04	 sub	 eax, DWORD PTR [ecx+4]
  00005	f7 d8		 neg	 eax
  00007	1b c0		 sbb	 eax, eax
  00009	40		 inc	 eax

; 890  : 		}

  0000a	c3		 ret	 0
?empty@?$vector@UtagSummonAttackInfo@@V?$allocator@UtagSummonAttackInfo@@@std@@@std@@QBE_NXZ ENDP ; std::vector<tagSummonAttackInfo,std::allocator<tagSummonAttackInfo> >::empty
_TEXT	ENDS
PUBLIC	??A?$vector@UtagSummonAttackInfo@@V?$allocator@UtagSummonAttackInfo@@@std@@@std@@QAEAAUtagSummonAttackInfo@@I@Z ; std::vector<tagSummonAttackInfo,std::allocator<tagSummonAttackInfo> >::operator[]
; Function compile flags: /Ogsp
;	COMDAT ??A?$vector@UtagSummonAttackInfo@@V?$allocator@UtagSummonAttackInfo@@@std@@@std@@QAEAAUtagSummonAttackInfo@@I@Z
_TEXT	SEGMENT
__Pos$ = 8						; size = 4
??A?$vector@UtagSummonAttackInfo@@V?$allocator@UtagSummonAttackInfo@@@std@@@std@@QAEAAUtagSummonAttackInfo@@I@Z PROC ; std::vector<tagSummonAttackInfo,std::allocator<tagSummonAttackInfo> >::operator[], COMDAT
; _this$ = ecx

; 928  : 		{	// subscript mutable sequence

  00000	55		 push	 ebp
  00001	8b ec		 mov	 ebp, esp

; 929  :  #if _ITERATOR_DEBUG_LEVEL == 2
; 930  : 		if (size() <= _Pos)
; 931  : 			{	// report error
; 932  : 			_DEBUG_ERROR("vector subscript out of range");
; 933  : 			_SCL_SECURE_OUT_OF_RANGE;
; 934  : 			}
; 935  : 
; 936  :  #elif _ITERATOR_DEBUG_LEVEL == 1
; 937  : 		_SCL_SECURE_VALIDATE_RANGE(_Pos < size());
; 938  :  #endif /* _ITERATOR_DEBUG_LEVEL */
; 939  : 
; 940  : 		return (*(this->_Myfirst + _Pos));

  00003	8b 45 08	 mov	 eax, DWORD PTR __Pos$[ebp]
  00006	6b c0 74	 imul	 eax, 116		; 00000074H
  00009	03 01		 add	 eax, DWORD PTR [ecx]

; 941  : 		}

  0000b	5d		 pop	 ebp
  0000c	c2 04 00	 ret	 4
??A?$vector@UtagSummonAttackInfo@@V?$allocator@UtagSummonAttackInfo@@@std@@@std@@QAEAAUtagSummonAttackInfo@@I@Z ENDP ; std::vector<tagSummonAttackInfo,std::allocator<tagSummonAttackInfo> >::operator[]
_TEXT	ENDS
PUBLIC	?capacity@?$vector@UtagSummonAttackInfo@@V?$allocator@UtagSummonAttackInfo@@@std@@@std@@QBEIXZ ; std::vector<tagSummonAttackInfo,std::allocator<tagSummonAttackInfo> >::capacity
; Function compile flags: /Ogsp
;	COMDAT ?capacity@?$vector@UtagSummonAttackInfo@@V?$allocator@UtagSummonAttackInfo@@@std@@@std@@QBEIXZ
_TEXT	SEGMENT
?capacity@?$vector@UtagSummonAttackInfo@@V?$allocator@UtagSummonAttackInfo@@@std@@@std@@QBEIXZ PROC ; std::vector<tagSummonAttackInfo,std::allocator<tagSummonAttackInfo> >::capacity, COMDAT
; _this$ = ecx

; 777  : 		return (this->_Myend - this->_Myfirst);

  00000	8b 41 08	 mov	 eax, DWORD PTR [ecx+8]
  00003	2b 01		 sub	 eax, DWORD PTR [ecx]
  00005	6a 74		 push	 116			; 00000074H
  00007	99		 cdq
  00008	59		 pop	 ecx
  00009	f7 f9		 idiv	 ecx

; 778  : 		}

  0000b	c3		 ret	 0
?capacity@?$vector@UtagSummonAttackInfo@@V?$allocator@UtagSummonAttackInfo@@@std@@@std@@QBEIXZ ENDP ; std::vector<tagSummonAttackInfo,std::allocator<tagSummonAttackInfo> >::capacity
_TEXT	ENDS
PUBLIC	?_Inside@?$vector@UtagSummonAttackInfo@@V?$allocator@UtagSummonAttackInfo@@@std@@@std@@IBE_NPBUtagSummonAttackInfo@@@Z ; std::vector<tagSummonAttackInfo,std::allocator<tagSummonAttackInfo> >::_Inside
; Function compile flags: /Ogsp
;	COMDAT ?_Inside@?$vector@UtagSummonAttackInfo@@V?$allocator@UtagSummonAttackInfo@@@std@@@std@@IBE_NPBUtagSummonAttackInfo@@@Z
_TEXT	SEGMENT
__Ptr$ = 8						; size = 4
?_Inside@?$vector@UtagSummonAttackInfo@@V?$allocator@UtagSummonAttackInfo@@@std@@@std@@IBE_NPBUtagSummonAttackInfo@@@Z PROC ; std::vector<tagSummonAttackInfo,std::allocator<tagSummonAttackInfo> >::_Inside, COMDAT
; _this$ = ecx

; 1285 : 		{	// test if _Ptr points inside vector

  00000	55		 push	 ebp
  00001	8b ec		 mov	 ebp, esp

; 1286 : 		return (_Ptr < this->_Mylast && this->_Myfirst <= _Ptr);

  00003	8b 45 08	 mov	 eax, DWORD PTR __Ptr$[ebp]
  00006	3b 41 04	 cmp	 eax, DWORD PTR [ecx+4]
  00009	73 09		 jae	 SHORT $LN3@Inside
  0000b	39 01		 cmp	 DWORD PTR [ecx], eax
  0000d	77 05		 ja	 SHORT $LN3@Inside
  0000f	33 c0		 xor	 eax, eax
  00011	40		 inc	 eax
  00012	eb 02		 jmp	 SHORT $LN4@Inside
$LN3@Inside:
  00014	33 c0		 xor	 eax, eax
$LN4@Inside:

; 1287 : 		}

  00016	5d		 pop	 ebp
  00017	c2 04 00	 ret	 4
?_Inside@?$vector@UtagSummonAttackInfo@@V?$allocator@UtagSummonAttackInfo@@@std@@@std@@IBE_NPBUtagSummonAttackInfo@@@Z ENDP ; std::vector<tagSummonAttackInfo,std::allocator<tagSummonAttackInfo> >::_Inside
_TEXT	ENDS
PUBLIC	??_C@_0BD@OLBABOEK@vector?$DMT?$DO?5too?5long?$AA@ ; `string'
PUBLIC	?_Xlen@?$vector@UtagSummonAttackInfo@@V?$allocator@UtagSummonAttackInfo@@@std@@@std@@IBEXXZ ; std::vector<tagSummonAttackInfo,std::allocator<tagSummonAttackInfo> >::_Xlen
EXTRN	__imp_?_Xlength_error@std@@YAXPBD@Z:PROC
;	COMDAT ??_C@_0BD@OLBABOEK@vector?$DMT?$DO?5too?5long?$AA@
CONST	SEGMENT
??_C@_0BD@OLBABOEK@vector?$DMT?$DO?5too?5long?$AA@ DB 'vector<T> too long'
	DB	00H						; `string'
; Function compile flags: /Ogsp
CONST	ENDS
;	COMDAT ?_Xlen@?$vector@UtagSummonAttackInfo@@V?$allocator@UtagSummonAttackInfo@@@std@@@std@@IBEXXZ
_TEXT	SEGMENT
?_Xlen@?$vector@UtagSummonAttackInfo@@V?$allocator@UtagSummonAttackInfo@@@std@@@std@@IBEXXZ PROC ; std::vector<tagSummonAttackInfo,std::allocator<tagSummonAttackInfo> >::_Xlen, COMDAT
; _this$ = ecx

; 1427 : 		_Xlength_error("vector<T> too long");

  00000	68 00 00 00 00	 push	 OFFSET ??_C@_0BD@OLBABOEK@vector?$DMT?$DO?5too?5long?$AA@
  00005	ff 15 00 00 00
	00		 call	 DWORD PTR __imp_?_Xlength_error@std@@YAXPBD@Z
$LN4@Xlen:
$LN3@Xlen:
  0000b	cc		 int	 3
?_Xlen@?$vector@UtagSummonAttackInfo@@V?$allocator@UtagSummonAttackInfo@@@std@@@std@@IBEXXZ ENDP ; std::vector<tagSummonAttackInfo,std::allocator<tagSummonAttackInfo> >::_Xlen
_TEXT	ENDS
PUBLIC	?_Orphan_range@?$vector@UtagSummonAttackInfo@@V?$allocator@UtagSummonAttackInfo@@@std@@@std@@IBEXPAUtagSummonAttackInfo@@0@Z ; std::vector<tagSummonAttackInfo,std::allocator<tagSummonAttackInfo> >::_Orphan_range
; Function compile flags: /Ogsp
;	COMDAT ?_Orphan_range@?$vector@UtagSummonAttackInfo@@V?$allocator@UtagSummonAttackInfo@@@std@@@std@@IBEXPAUtagSummonAttackInfo@@0@Z
_TEXT	SEGMENT
___formal$ = 8						; size = 4
___formal$ = 12						; size = 4
?_Orphan_range@?$vector@UtagSummonAttackInfo@@V?$allocator@UtagSummonAttackInfo@@@std@@@std@@IBEXPAUtagSummonAttackInfo@@0@Z PROC ; std::vector<tagSummonAttackInfo,std::allocator<tagSummonAttackInfo> >::_Orphan_range, COMDAT
; _this$ = ecx

; 1454 : 		}

  00000	c2 08 00	 ret	 8
?_Orphan_range@?$vector@UtagSummonAttackInfo@@V?$allocator@UtagSummonAttackInfo@@@std@@@std@@IBEXPAUtagSummonAttackInfo@@0@Z ENDP ; std::vector<tagSummonAttackInfo,std::allocator<tagSummonAttackInfo> >::_Orphan_range
_TEXT	ENDS
PUBLIC	??1?$_Vector_val@UtagSummonAttackInfo@@V?$allocator@UtagSummonAttackInfo@@@std@@@std@@QAE@XZ ; std::_Vector_val<tagSummonAttackInfo,std::allocator<tagSummonAttackInfo> >::~_Vector_val<tagSummonAttackInfo,std::allocator<tagSummonAttackInfo> >
; Function compile flags: /Ogsp
;	COMDAT ??1?$_Vector_val@UtagSummonAttackInfo@@V?$allocator@UtagSummonAttackInfo@@@std@@@std@@QAE@XZ
_TEXT	SEGMENT
??1?$_Vector_val@UtagSummonAttackInfo@@V?$allocator@UtagSummonAttackInfo@@@std@@@std@@QAE@XZ PROC ; std::_Vector_val<tagSummonAttackInfo,std::allocator<tagSummonAttackInfo> >::~_Vector_val<tagSummonAttackInfo,std::allocator<tagSummonAttackInfo> >, COMDAT
; _this$ = ecx

; 434  : 		}

  00000	c3		 ret	 0
??1?$_Vector_val@UtagSummonAttackInfo@@V?$allocator@UtagSummonAttackInfo@@@std@@@std@@QAE@XZ ENDP ; std::_Vector_val<tagSummonAttackInfo,std::allocator<tagSummonAttackInfo> >::~_Vector_val<tagSummonAttackInfo,std::allocator<tagSummonAttackInfo> >
_TEXT	ENDS
PUBLIC	??0?$allocator@UtagSummonAttackInfo@@@std@@QAE@XZ ; std::allocator<tagSummonAttackInfo>::allocator<tagSummonAttackInfo>
; Function compile flags: /Ogsp
; File c:\program files (x86)\microsoft visual studio 10.0\vc\include\xmemory
;	COMDAT ??0?$allocator@UtagSummonAttackInfo@@@std@@QAE@XZ
_TEXT	SEGMENT
??0?$allocator@UtagSummonAttackInfo@@@std@@QAE@XZ PROC	; std::allocator<tagSummonAttackInfo>::allocator<tagSummonAttackInfo>, COMDAT
; _this$ = ecx

; 161  : 	_ALLOCATOR() _THROW0()

  00000	8b c1		 mov	 eax, ecx

; 162  : 		{	// construct default allocator (do nothing)
; 163  : 		}

  00002	c3		 ret	 0
??0?$allocator@UtagSummonAttackInfo@@@std@@QAE@XZ ENDP	; std::allocator<tagSummonAttackInfo>::allocator<tagSummonAttackInfo>
_TEXT	ENDS
PUBLIC	??0?$allocator@UtagSummonAttackInfo@@@std@@QAE@ABV01@@Z ; std::allocator<tagSummonAttackInfo>::allocator<tagSummonAttackInfo>
; Function compile flags: /Ogsp
;	COMDAT ??0?$allocator@UtagSummonAttackInfo@@@std@@QAE@ABV01@@Z
_TEXT	SEGMENT
___formal$ = 8						; size = 4
??0?$allocator@UtagSummonAttackInfo@@@std@@QAE@ABV01@@Z PROC ; std::allocator<tagSummonAttackInfo>::allocator<tagSummonAttackInfo>, COMDAT
; _this$ = ecx

; 165  : 	_ALLOCATOR(const _ALLOCATOR<_Ty>&) _THROW0()

  00000	8b c1		 mov	 eax, ecx

; 166  : 		{	// construct by copying (do nothing)
; 167  : 		}

  00002	c2 04 00	 ret	 4
??0?$allocator@UtagSummonAttackInfo@@@std@@QAE@ABV01@@Z ENDP ; std::allocator<tagSummonAttackInfo>::allocator<tagSummonAttackInfo>
_TEXT	ENDS
PUBLIC	?deallocate@?$allocator@UtagSummonAttackInfo@@@std@@QAEXPAUtagSummonAttackInfo@@I@Z ; std::allocator<tagSummonAttackInfo>::deallocate
; Function compile flags: /Ogsp
;	COMDAT ?deallocate@?$allocator@UtagSummonAttackInfo@@@std@@QAEXPAUtagSummonAttackInfo@@I@Z
_TEXT	SEGMENT
__Ptr$ = 8						; size = 4
___formal$ = 12						; size = 4
?deallocate@?$allocator@UtagSummonAttackInfo@@@std@@QAEXPAUtagSummonAttackInfo@@I@Z PROC ; std::allocator<tagSummonAttackInfo>::deallocate, COMDAT
; _this$ = ecx

; 181  : 		{	// deallocate object at _Ptr, ignore size

  00000	55		 push	 ebp
  00001	8b ec		 mov	 ebp, esp

; 182  : 		::operator delete(_Ptr);

  00003	ff 75 08	 push	 DWORD PTR __Ptr$[ebp]
  00006	e8 00 00 00 00	 call	 ??3@YAXPAX@Z		; operator delete
  0000b	59		 pop	 ecx

; 183  : 		}

  0000c	5d		 pop	 ebp
  0000d	c2 08 00	 ret	 8
?deallocate@?$allocator@UtagSummonAttackInfo@@@std@@QAEXPAUtagSummonAttackInfo@@I@Z ENDP ; std::allocator<tagSummonAttackInfo>::deallocate
_TEXT	ENDS
PUBLIC	?max_size@?$allocator@UtagSummonAttackInfo@@@std@@QBEIXZ ; std::allocator<tagSummonAttackInfo>::max_size
; Function compile flags: /Ogsp
;	COMDAT ?max_size@?$allocator@UtagSummonAttackInfo@@@std@@QBEIXZ
_TEXT	SEGMENT
?max_size@?$allocator@UtagSummonAttackInfo@@@std@@QBEIXZ PROC ; std::allocator<tagSummonAttackInfo>::max_size, COMDAT
; _this$ = ecx

; 218  : 		_SIZT _Count = (_SIZT)(-1) / sizeof (_Ty);
; 219  : 		return (0 < _Count ? _Count : 1);

  00000	b8 2c f7 34 02	 mov	 eax, 37025580		; 0234f72cH

; 220  : 		}

  00005	c3		 ret	 0
?max_size@?$allocator@UtagSummonAttackInfo@@@std@@QBEIXZ ENDP ; std::allocator<tagSummonAttackInfo>::max_size
_TEXT	ENDS
PUBLIC	??0?$_Vector_const_iterator@V?$_Vector_val@UtagSummonAttackInfo@@V?$allocator@UtagSummonAttackInfo@@@std@@@std@@@std@@QAE@PAUtagSummonAttackInfo@@PBU_Container_base0@1@@Z ; std::_Vector_const_iterator<std::_Vector_val<tagSummonAttackInfo,std::allocator<tagSummonAttackInfo> > >::_Vector_const_iterator<std::_Vector_val<tagSummonAttackInfo,std::allocator<tagSummonAttackInfo> > >
; Function compile flags: /Ogsp
; File c:\program files (x86)\microsoft visual studio 10.0\vc\include\vector
;	COMDAT ??0?$_Vector_const_iterator@V?$_Vector_val@UtagSummonAttackInfo@@V?$allocator@UtagSummonAttackInfo@@@std@@@std@@@std@@QAE@PAUtagSummonAttackInfo@@PBU_Container_base0@1@@Z
_TEXT	SEGMENT
__Parg$ = 8						; size = 4
__Pvector$ = 12						; size = 4
??0?$_Vector_const_iterator@V?$_Vector_val@UtagSummonAttackInfo@@V?$allocator@UtagSummonAttackInfo@@@std@@@std@@@std@@QAE@PAUtagSummonAttackInfo@@PBU_Container_base0@1@@Z PROC ; std::_Vector_const_iterator<std::_Vector_val<tagSummonAttackInfo,std::allocator<tagSummonAttackInfo> > >::_Vector_const_iterator<std::_Vector_val<tagSummonAttackInfo,std::allocator<tagSummonAttackInfo> > >, COMDAT
; _this$ = ecx

; 45   : 		{	// construct with pointer _Parg

  00000	55		 push	 ebp
  00001	8b ec		 mov	 ebp, esp
  00003	8b c1		 mov	 eax, ecx
  00005	8b 4d 08	 mov	 ecx, DWORD PTR __Parg$[ebp]
  00008	89 08		 mov	 DWORD PTR [eax], ecx

; 46   : 		this->_Adopt(_Pvector);
; 47   : 		}

  0000a	5d		 pop	 ebp
  0000b	c2 08 00	 ret	 8
??0?$_Vector_const_iterator@V?$_Vector_val@UtagSummonAttackInfo@@V?$allocator@UtagSummonAttackInfo@@@std@@@std@@@std@@QAE@PAUtagSummonAttackInfo@@PBU_Container_base0@1@@Z ENDP ; std::_Vector_const_iterator<std::_Vector_val<tagSummonAttackInfo,std::allocator<tagSummonAttackInfo> > >::_Vector_const_iterator<std::_Vector_val<tagSummonAttackInfo,std::allocator<tagSummonAttackInfo> > >
_TEXT	ENDS
PUBLIC	??0?$_Vector_iterator@V?$_Vector_val@UtagSummonAttackInfo@@V?$allocator@UtagSummonAttackInfo@@@std@@@std@@@std@@QAE@PAUtagSummonAttackInfo@@PBU_Container_base0@1@@Z ; std::_Vector_iterator<std::_Vector_val<tagSummonAttackInfo,std::allocator<tagSummonAttackInfo> > >::_Vector_iterator<std::_Vector_val<tagSummonAttackInfo,std::allocator<tagSummonAttackInfo> > >
; Function compile flags: /Ogsp
;	COMDAT ??0?$_Vector_iterator@V?$_Vector_val@UtagSummonAttackInfo@@V?$allocator@UtagSummonAttackInfo@@@std@@@std@@@std@@QAE@PAUtagSummonAttackInfo@@PBU_Container_base0@1@@Z
_TEXT	SEGMENT
__Parg$ = 8						; size = 4
__Pvector$ = 12						; size = 4
??0?$_Vector_iterator@V?$_Vector_val@UtagSummonAttackInfo@@V?$allocator@UtagSummonAttackInfo@@@std@@@std@@@std@@QAE@PAUtagSummonAttackInfo@@PBU_Container_base0@1@@Z PROC ; std::_Vector_iterator<std::_Vector_val<tagSummonAttackInfo,std::allocator<tagSummonAttackInfo> > >::_Vector_iterator<std::_Vector_val<tagSummonAttackInfo,std::allocator<tagSummonAttackInfo> > >, COMDAT
; _this$ = ecx

; 304  : 		{	// construct with pointer _Parg

  00000	55		 push	 ebp
  00001	8b ec		 mov	 ebp, esp
  00003	8b c1		 mov	 eax, ecx
  00005	8b 4d 08	 mov	 ecx, DWORD PTR __Parg$[ebp]
  00008	89 08		 mov	 DWORD PTR [eax], ecx

; 305  : 		}

  0000a	5d		 pop	 ebp
  0000b	c2 08 00	 ret	 8
??0?$_Vector_iterator@V?$_Vector_val@UtagSummonAttackInfo@@V?$allocator@UtagSummonAttackInfo@@@std@@@std@@@std@@QAE@PAUtagSummonAttackInfo@@PBU_Container_base0@1@@Z ENDP ; std::_Vector_iterator<std::_Vector_val<tagSummonAttackInfo,std::allocator<tagSummonAttackInfo> > >::_Vector_iterator<std::_Vector_val<tagSummonAttackInfo,std::allocator<tagSummonAttackInfo> > >
_TEXT	ENDS
PUBLIC	?_Compat@?$_Vector_const_iterator@V?$_Vector_val@UtagSummonAttackInfo@@V?$allocator@UtagSummonAttackInfo@@@std@@@std@@@std@@QBEXABV12@@Z ; std::_Vector_const_iterator<std::_Vector_val<tagSummonAttackInfo,std::allocator<tagSummonAttackInfo> > >::_Compat
; Function compile flags: /Ogsp
;	COMDAT ?_Compat@?$_Vector_const_iterator@V?$_Vector_val@UtagSummonAttackInfo@@V?$allocator@UtagSummonAttackInfo@@@std@@@std@@@std@@QBEXABV12@@Z
_TEXT	SEGMENT
___formal$ = 8						; size = 4
?_Compat@?$_Vector_const_iterator@V?$_Vector_val@UtagSummonAttackInfo@@V?$allocator@UtagSummonAttackInfo@@@std@@@std@@@std@@QBEXABV12@@Z PROC ; std::_Vector_const_iterator<std::_Vector_val<tagSummonAttackInfo,std::allocator<tagSummonAttackInfo> > >::_Compat, COMDAT
; _this$ = ecx

; 253  : 		}

  00000	c2 04 00	 ret	 4
?_Compat@?$_Vector_const_iterator@V?$_Vector_val@UtagSummonAttackInfo@@V?$allocator@UtagSummonAttackInfo@@@std@@@std@@@std@@QBEXABV12@@Z ENDP ; std::_Vector_const_iterator<std::_Vector_val<tagSummonAttackInfo,std::allocator<tagSummonAttackInfo> > >::_Compat
_TEXT	ENDS
PUBLIC	??0D3DXVECTOR3@@QAE@XZ				; D3DXVECTOR3::D3DXVECTOR3
; Function compile flags: /Ogsp
; File c:\program files (x86)\microsoft directx sdk (june 2010)\include\d3dx9math.h
;	COMDAT ??0D3DXVECTOR3@@QAE@XZ
_TEXT	SEGMENT
??0D3DXVECTOR3@@QAE@XZ PROC				; D3DXVECTOR3::D3DXVECTOR3, COMDAT
; _this$ = ecx

; 165  :     D3DXVECTOR3() {};

  00000	8b c1		 mov	 eax, ecx
  00002	c3		 ret	 0
??0D3DXVECTOR3@@QAE@XZ ENDP				; D3DXVECTOR3::D3DXVECTOR3
_TEXT	ENDS
PUBLIC	??0D3DXQUATERNION@@QAE@XZ			; D3DXQUATERNION::D3DXQUATERNION
; Function compile flags: /Ogsp
;	COMDAT ??0D3DXQUATERNION@@QAE@XZ
_TEXT	SEGMENT
??0D3DXQUATERNION@@QAE@XZ PROC				; D3DXQUATERNION::D3DXQUATERNION, COMDAT
; _this$ = ecx

; 429  :     D3DXQUATERNION() {}

  00000	8b c1		 mov	 eax, ecx
  00002	c3		 ret	 0
??0D3DXQUATERNION@@QAE@XZ ENDP				; D3DXQUATERNION::D3DXQUATERNION
_TEXT	ENDS
PUBLIC	??0D3DXVECTOR3@@QAE@MMM@Z			; D3DXVECTOR3::D3DXVECTOR3
; Function compile flags: /Ogsp
; File c:\program files (x86)\microsoft directx sdk (june 2010)\include\d3dx9math.inl
;	COMDAT ??0D3DXVECTOR3@@QAE@MMM@Z
_TEXT	SEGMENT
_fx$ = 8						; size = 4
_fy$ = 12						; size = 4
_fz$ = 16						; size = 4
??0D3DXVECTOR3@@QAE@MMM@Z PROC				; D3DXVECTOR3::D3DXVECTOR3, COMDAT
; _this$ = ecx

; 303  : {

  00000	55		 push	 ebp
  00001	8b ec		 mov	 ebp, esp

; 304  :     x = fx;

  00003	f3 0f 10 45 08	 movss	 xmm0, DWORD PTR _fx$[ebp]
  00008	8b c1		 mov	 eax, ecx
  0000a	f3 0f 11 00	 movss	 DWORD PTR [eax], xmm0

; 305  :     y = fy;

  0000e	f3 0f 10 45 0c	 movss	 xmm0, DWORD PTR _fy$[ebp]
  00013	f3 0f 11 40 04	 movss	 DWORD PTR [eax+4], xmm0

; 306  :     z = fz;

  00018	f3 0f 10 45 10	 movss	 xmm0, DWORD PTR _fz$[ebp]
  0001d	f3 0f 11 40 08	 movss	 DWORD PTR [eax+8], xmm0

; 307  : }

  00022	5d		 pop	 ebp
  00023	c2 0c 00	 ret	 12			; 0000000cH
??0D3DXVECTOR3@@QAE@MMM@Z ENDP				; D3DXVECTOR3::D3DXVECTOR3
_TEXT	ENDS
PUBLIC	__real@3f91df46a2526c7a
PUBLIC	??$DEGtoRAD@M@@YAMM@Z				; DEGtoRAD<float>
;	COMDAT __real@3f91df46a2526c7a
; File d:\lost saga for developer\youtube\tutorial\source\src\lsclient\veryoftenusedefine.h
CONST	SEGMENT
__real@3f91df46a2526c7a DQ 03f91df46a2526c7ar	; 0.0174533
; Function compile flags: /Ogsp
CONST	ENDS
;	COMDAT ??$DEGtoRAD@M@@YAMM@Z
_TEXT	SEGMENT
tv129 = 8						; size = 4
_val$ = 8						; size = 4
??$DEGtoRAD@M@@YAMM@Z PROC				; DEGtoRAD<float>, COMDAT

; 20   : type  DEGtoRAD (type val) {return (type) (val * 0.0174532925199);}

  00000	55		 push	 ebp
  00001	8b ec		 mov	 ebp, esp
  00003	d9 45 08	 fld	 DWORD PTR _val$[ebp]
  00006	dc 0d 00 00 00
	00		 fmul	 QWORD PTR __real@3f91df46a2526c7a
  0000c	d9 5d 08	 fstp	 DWORD PTR tv129[ebp]
  0000f	d9 45 08	 fld	 DWORD PTR tv129[ebp]
  00012	5d		 pop	 ebp
  00013	c3		 ret	 0
??$DEGtoRAD@M@@YAMM@Z ENDP				; DEGtoRAD<float>
_TEXT	ENDS
PUBLIC	??$addressof@$$CBUtagSummonAttackInfo@@@std@@YAPBUtagSummonAttackInfo@@ABU1@@Z ; std::addressof<tagSummonAttackInfo const >
; Function compile flags: /Ogsp
; File c:\program files (x86)\microsoft visual studio 10.0\vc\include\xmemory
;	COMDAT ??$addressof@$$CBUtagSummonAttackInfo@@@std@@YAPBUtagSummonAttackInfo@@ABU1@@Z
_TEXT	SEGMENT
__Val$ = 8						; size = 4
??$addressof@$$CBUtagSummonAttackInfo@@@std@@YAPBUtagSummonAttackInfo@@ABU1@@Z PROC ; std::addressof<tagSummonAttackInfo const >, COMDAT

; 110  : 	{	// return address of _Val

  00000	55		 push	 ebp
  00001	8b ec		 mov	 ebp, esp

; 111  : 	return ((_Ty *) &(char&)_Val);

  00003	8b 45 08	 mov	 eax, DWORD PTR __Val$[ebp]

; 112  : 	}

  00006	5d		 pop	 ebp
  00007	c3		 ret	 0
??$addressof@$$CBUtagSummonAttackInfo@@@std@@YAPBUtagSummonAttackInfo@@ABU1@@Z ENDP ; std::addressof<tagSummonAttackInfo const >
_TEXT	ENDS
PUBLIC	__TI2?AVbad_alloc@std@@
PUBLIC	??$_Allocate@UtagSummonAttackInfo@@@std@@YAPAUtagSummonAttackInfo@@IPAU1@@Z ; std::_Allocate<tagSummonAttackInfo>
PUBLIC	__CTA2?AVbad_alloc@std@@
PUBLIC	__CT??_R0?AVbad_alloc@std@@@8??0bad_alloc@std@@QAE@ABV01@@Z12
PUBLIC	??0bad_alloc@std@@QAE@ABV01@@Z			; std::bad_alloc::bad_alloc
PUBLIC	__CT??_R0?AVexception@std@@@8??0exception@std@@QAE@ABV01@@Z12
EXTRN	??2@YAPAXI@Z:PROC				; operator new
EXTRN	__CxxThrowException@8:PROC
EXTRN	??0exception@std@@QAE@ABV01@@Z:PROC		; std::exception::exception
;	COMDAT __CT??_R0?AVexception@std@@@8??0exception@std@@QAE@ABV01@@Z12
; File c:\program files (x86)\microsoft visual studio 10.0\vc\include\exception
xdata$x	SEGMENT
__CT??_R0?AVexception@std@@@8??0exception@std@@QAE@ABV01@@Z12 DD 00H
	DD	FLAT:??_R0?AVexception@std@@@8
	DD	00H
	DD	0ffffffffH
	ORG $+4
	DD	0cH
	DD	FLAT:??0exception@std@@QAE@ABV01@@Z
xdata$x	ENDS
;	COMDAT __CT??_R0?AVbad_alloc@std@@@8??0bad_alloc@std@@QAE@ABV01@@Z12
xdata$x	SEGMENT
__CT??_R0?AVbad_alloc@std@@@8??0bad_alloc@std@@QAE@ABV01@@Z12 DD 00H
	DD	FLAT:??_R0?AVbad_alloc@std@@@8
	DD	00H
	DD	0ffffffffH
	ORG $+4
	DD	0cH
	DD	FLAT:??0bad_alloc@std@@QAE@ABV01@@Z
xdata$x	ENDS
;	COMDAT __CTA2?AVbad_alloc@std@@
xdata$x	SEGMENT
__CTA2?AVbad_alloc@std@@ DD 02H
	DD	FLAT:__CT??_R0?AVbad_alloc@std@@@8??0bad_alloc@std@@QAE@ABV01@@Z12
	DD	FLAT:__CT??_R0?AVexception@std@@@8??0exception@std@@QAE@ABV01@@Z12
xdata$x	ENDS
;	COMDAT __TI2?AVbad_alloc@std@@
xdata$x	SEGMENT
__TI2?AVbad_alloc@std@@ DD 00H
	DD	FLAT:??1bad_alloc@std@@UAE@XZ
	DD	00H
	DD	FLAT:__CTA2?AVbad_alloc@std@@
; Function compile flags: /Ogsp
; File c:\program files (x86)\microsoft visual studio 10.0\vc\include\xmemory
xdata$x	ENDS
;	COMDAT ??$_Allocate@UtagSummonAttackInfo@@@std@@YAPAUtagSummonAttackInfo@@IPAU1@@Z
_TEXT	SEGMENT
$T547504 = -12						; size = 12
$T547509 = 8						; size = 4
__Count$ = 8						; size = 4
___formal$ = 12						; size = 4
??$_Allocate@UtagSummonAttackInfo@@@std@@YAPAUtagSummonAttackInfo@@IPAU1@@Z PROC ; std::_Allocate<tagSummonAttackInfo>, COMDAT

; 30   : 	{	// allocate storage for _Count elements of type _Ty

  00000	55		 push	 ebp
  00001	8b ec		 mov	 ebp, esp

; 31   : 	void *_Ptr = 0;
; 32   : 
; 33   : 	if (_Count <= 0)

  00003	8b 4d 08	 mov	 ecx, DWORD PTR __Count$[ebp]
  00006	83 ec 0c	 sub	 esp, 12			; 0000000cH
  00009	33 c0		 xor	 eax, eax
  0000b	85 c9		 test	 ecx, ecx

; 34   : 		_Count = 0;
; 35   : 	else if (((_SIZT)(-1) / sizeof (_Ty) < _Count)

  0000d	74 3c		 je	 SHORT $LN5@Allocate

; 36   : 		|| (_Ptr = ::operator new(_Count * sizeof (_Ty))) == 0)

  0000f	81 f9 2c f7 34
	02		 cmp	 ecx, 37025580		; 0234f72cH
  00015	77 0e		 ja	 SHORT $LN1@Allocate
  00017	6b c9 74	 imul	 ecx, 116		; 00000074H
  0001a	51		 push	 ecx
  0001b	e8 00 00 00 00	 call	 ??2@YAPAXI@Z		; operator new
  00020	59		 pop	 ecx
  00021	85 c0		 test	 eax, eax

; 38   : 
; 39   : 	return ((_Ty _FARQ *)_Ptr);

  00023	75 26		 jne	 SHORT $LN5@Allocate
$LN1@Allocate:

; 37   : 		_THROW_NCEE(bad_alloc, 0);

  00025	83 65 08 00	 and	 DWORD PTR $T547509[ebp], 0
  00029	8d 45 08	 lea	 eax, DWORD PTR $T547509[ebp]
  0002c	50		 push	 eax
  0002d	8d 4d f4	 lea	 ecx, DWORD PTR $T547504[ebp]
  00030	ff 15 00 00 00
	00		 call	 DWORD PTR __imp_??0exception@std@@QAE@ABQBD@Z
  00036	68 00 00 00 00	 push	 OFFSET __TI2?AVbad_alloc@std@@
  0003b	8d 45 f4	 lea	 eax, DWORD PTR $T547504[ebp]
  0003e	50		 push	 eax
  0003f	c7 45 f4 00 00
	00 00		 mov	 DWORD PTR $T547504[ebp], OFFSET ??_7bad_alloc@std@@6B@
  00046	e8 00 00 00 00	 call	 __CxxThrowException@8
$LN10@Allocate:
$LN5@Allocate:

; 40   : 	}

  0004b	c9		 leave
  0004c	c3		 ret	 0
$LN9@Allocate:
??$_Allocate@UtagSummonAttackInfo@@@std@@YAPAUtagSummonAttackInfo@@IPAU1@@Z ENDP ; std::_Allocate<tagSummonAttackInfo>
_TEXT	ENDS
PUBLIC	??$forward@AAUtagSummonAttackInfo@@@std@@YAAAUtagSummonAttackInfo@@AAU1@@Z ; std::forward<tagSummonAttackInfo &>
; Function compile flags: /Ogsp
; File c:\program files (x86)\microsoft visual studio 10.0\vc\include\utility
;	COMDAT ??$forward@AAUtagSummonAttackInfo@@@std@@YAAAUtagSummonAttackInfo@@AAU1@@Z
_TEXT	SEGMENT
__Arg$ = 8						; size = 4
??$forward@AAUtagSummonAttackInfo@@@std@@YAAAUtagSummonAttackInfo@@AAU1@@Z PROC ; std::forward<tagSummonAttackInfo &>, COMDAT

; 78   : 	{	// forward _Arg, given explicitly specified type parameter

  00000	55		 push	 ebp
  00001	8b ec		 mov	 ebp, esp

; 79   : 	return ((_Ty&&)_Arg);

  00003	8b 45 08	 mov	 eax, DWORD PTR __Arg$[ebp]

; 80   : 	}

  00006	5d		 pop	 ebp
  00007	c3		 ret	 0
??$forward@AAUtagSummonAttackInfo@@@std@@YAAAUtagSummonAttackInfo@@AAU1@@Z ENDP ; std::forward<tagSummonAttackInfo &>
_TEXT	ENDS
PUBLIC	??$forward@ABUtagSummonAttackInfo@@@std@@YAABUtagSummonAttackInfo@@ABU1@@Z ; std::forward<tagSummonAttackInfo const &>
; Function compile flags: /Ogsp
;	COMDAT ??$forward@ABUtagSummonAttackInfo@@@std@@YAABUtagSummonAttackInfo@@ABU1@@Z
_TEXT	SEGMENT
__Arg$ = 8						; size = 4
??$forward@ABUtagSummonAttackInfo@@@std@@YAABUtagSummonAttackInfo@@ABU1@@Z PROC ; std::forward<tagSummonAttackInfo const &>, COMDAT

; 78   : 	{	// forward _Arg, given explicitly specified type parameter

  00000	55		 push	 ebp
  00001	8b ec		 mov	 ebp, esp

; 79   : 	return ((_Ty&&)_Arg);

  00003	8b 45 08	 mov	 eax, DWORD PTR __Arg$[ebp]

; 80   : 	}

  00006	5d		 pop	 ebp
  00007	c3		 ret	 0
??$forward@ABUtagSummonAttackInfo@@@std@@YAABUtagSummonAttackInfo@@ABU1@@Z ENDP ; std::forward<tagSummonAttackInfo const &>
_TEXT	ENDS
PUBLIC	??$_Ptr_cat@UtagSummonAttackInfo@@U1@@std@@YA?AU_Nonscalar_ptr_iterator_tag@0@PAUtagSummonAttackInfo@@0@Z ; std::_Ptr_cat<tagSummonAttackInfo,tagSummonAttackInfo>
; Function compile flags: /Ogsp
; File c:\program files (x86)\microsoft visual studio 10.0\vc\include\xutility
;	COMDAT ??$_Ptr_cat@UtagSummonAttackInfo@@U1@@std@@YA?AU_Nonscalar_ptr_iterator_tag@0@PAUtagSummonAttackInfo@@0@Z
_TEXT	SEGMENT
__Cat$ = -1						; size = 1
___formal$ = 8						; size = 4
___formal$ = 12						; size = 4
??$_Ptr_cat@UtagSummonAttackInfo@@U1@@std@@YA?AU_Nonscalar_ptr_iterator_tag@0@PAUtagSummonAttackInfo@@0@Z PROC ; std::_Ptr_cat<tagSummonAttackInfo,tagSummonAttackInfo>, COMDAT

; 516  : 	{	// return pointer category from pointers

  00000	55		 push	 ebp
  00001	8b ec		 mov	 ebp, esp
  00003	51		 push	 ecx

; 517  : 	typename _Ptr_cat_helper<_Elem1, _Elem2>::_Type _Cat;
; 518  : 	return (_Cat);

  00004	8a 45 ff	 mov	 al, BYTE PTR __Cat$[ebp]

; 519  : 	}

  00007	c9		 leave
  00008	c3		 ret	 0
??$_Ptr_cat@UtagSummonAttackInfo@@U1@@std@@YA?AU_Nonscalar_ptr_iterator_tag@0@PAUtagSummonAttackInfo@@0@Z ENDP ; std::_Ptr_cat<tagSummonAttackInfo,tagSummonAttackInfo>
_TEXT	ENDS
PUBLIC	??$_Ptr_cat@V?$_Vector_const_iterator@V?$_Vector_val@UtagSummonAttackInfo@@V?$allocator@UtagSummonAttackInfo@@@std@@@std@@@std@@PAUtagSummonAttackInfo@@@std@@YA?AU_Nonscalar_ptr_iterator_tag@0@AAV?$_Vector_const_iterator@V?$_Vector_val@UtagSummonAttackInfo@@V?$allocator@UtagSummonAttackInfo@@@std@@@std@@@0@AAPAUtagSummonAttackInfo@@@Z ; std::_Ptr_cat<std::_Vector_const_iterator<std::_Vector_val<tagSummonAttackInfo,std::allocator<tagSummonAttackInfo> > >,tagSummonAttackInfo *>
; Function compile flags: /Ogsp
;	COMDAT ??$_Ptr_cat@V?$_Vector_const_iterator@V?$_Vector_val@UtagSummonAttackInfo@@V?$allocator@UtagSummonAttackInfo@@@std@@@std@@@std@@PAUtagSummonAttackInfo@@@std@@YA?AU_Nonscalar_ptr_iterator_tag@0@AAV?$_Vector_const_iterator@V?$_Vector_val@UtagSummonAttackInfo@@V?$allocator@UtagSummonAttackInfo@@@std@@@std@@@0@AAPAUtagSummonAttackInfo@@@Z
_TEXT	SEGMENT
__Cat$ = -1						; size = 1
___formal$ = 8						; size = 4
___formal$ = 12						; size = 4
??$_Ptr_cat@V?$_Vector_const_iterator@V?$_Vector_val@UtagSummonAttackInfo@@V?$allocator@UtagSummonAttackInfo@@@std@@@std@@@std@@PAUtagSummonAttackInfo@@@std@@YA?AU_Nonscalar_ptr_iterator_tag@0@AAV?$_Vector_const_iterator@V?$_Vector_val@UtagSummonAttackInfo@@V?$allocator@UtagSummonAttackInfo@@@std@@@std@@@0@AAPAUtagSummonAttackInfo@@@Z PROC ; std::_Ptr_cat<std::_Vector_const_iterator<std::_Vector_val<tagSummonAttackInfo,std::allocator<tagSummonAttackInfo> > >,tagSummonAttackInfo *>, COMDAT

; 485  : 	{	// return pointer category from arbitrary arguments

  00000	55		 push	 ebp
  00001	8b ec		 mov	 ebp, esp
  00003	51		 push	 ecx

; 486  : 	_Nonscalar_ptr_iterator_tag _Cat;
; 487  : 	return (_Cat);

  00004	8a 45 ff	 mov	 al, BYTE PTR __Cat$[ebp]

; 488  : 	}

  00007	c9		 leave
  00008	c3		 ret	 0
??$_Ptr_cat@V?$_Vector_const_iterator@V?$_Vector_val@UtagSummonAttackInfo@@V?$allocator@UtagSummonAttackInfo@@@std@@@std@@@std@@PAUtagSummonAttackInfo@@@std@@YA?AU_Nonscalar_ptr_iterator_tag@0@AAV?$_Vector_const_iterator@V?$_Vector_val@UtagSummonAttackInfo@@V?$allocator@UtagSummonAttackInfo@@@std@@@std@@@0@AAPAUtagSummonAttackInfo@@@Z ENDP ; std::_Ptr_cat<std::_Vector_const_iterator<std::_Vector_val<tagSummonAttackInfo,std::allocator<tagSummonAttackInfo> > >,tagSummonAttackInfo *>
_TEXT	ENDS
PUBLIC	??$_Val_type@PAUtagSummonAttackInfo@@@std@@YAPAUtagSummonAttackInfo@@PAU1@@Z ; std::_Val_type<tagSummonAttackInfo *>
; Function compile flags: /Ogsp
;	COMDAT ??$_Val_type@PAUtagSummonAttackInfo@@@std@@YAPAUtagSummonAttackInfo@@PAU1@@Z
_TEXT	SEGMENT
___formal$ = 8						; size = 4
??$_Val_type@PAUtagSummonAttackInfo@@@std@@YAPAUtagSummonAttackInfo@@PAU1@@Z PROC ; std::_Val_type<tagSummonAttackInfo *>, COMDAT

; 790  : 	return (0);

  00000	33 c0		 xor	 eax, eax

; 791  : 	}

  00002	c3		 ret	 0
??$_Val_type@PAUtagSummonAttackInfo@@@std@@YAPAUtagSummonAttackInfo@@PAU1@@Z ENDP ; std::_Val_type<tagSummonAttackInfo *>
_TEXT	ENDS
PUBLIC	??$move@AAUtagSummonAttackInfo@@@std@@YA$$QAUtagSummonAttackInfo@@AAU1@@Z ; std::move<tagSummonAttackInfo &>
; Function compile flags: /Ogsp
; File c:\program files (x86)\microsoft visual studio 10.0\vc\include\utility
;	COMDAT ??$move@AAUtagSummonAttackInfo@@@std@@YA$$QAUtagSummonAttackInfo@@AAU1@@Z
_TEXT	SEGMENT
__Arg$ = 8						; size = 4
??$move@AAUtagSummonAttackInfo@@@std@@YA$$QAUtagSummonAttackInfo@@AAU1@@Z PROC ; std::move<tagSummonAttackInfo &>, COMDAT

; 86   : 	{	// forward _Arg as movable

  00000	55		 push	 ebp
  00001	8b ec		 mov	 ebp, esp

; 87   : 	return ((typename tr1::_Remove_reference<_Ty>::_Type&&)_Arg);

  00003	8b 45 08	 mov	 eax, DWORD PTR __Arg$[ebp]

; 88   : 	}

  00006	5d		 pop	 ebp
  00007	c3		 ret	 0
??$move@AAUtagSummonAttackInfo@@@std@@YA$$QAUtagSummonAttackInfo@@AAU1@@Z ENDP ; std::move<tagSummonAttackInfo &>
_TEXT	ENDS
PUBLIC	??D?$_Vector_const_iterator@V?$_Vector_val@UtagSummonAttackInfo@@V?$allocator@UtagSummonAttackInfo@@@std@@@std@@@std@@QBEABUtagSummonAttackInfo@@XZ ; std::_Vector_const_iterator<std::_Vector_val<tagSummonAttackInfo,std::allocator<tagSummonAttackInfo> > >::operator*
; Function compile flags: /Ogsp
; File c:\program files (x86)\microsoft visual studio 10.0\vc\include\vector
;	COMDAT ??D?$_Vector_const_iterator@V?$_Vector_val@UtagSummonAttackInfo@@V?$allocator@UtagSummonAttackInfo@@@std@@@std@@@std@@QBEABUtagSummonAttackInfo@@XZ
_TEXT	SEGMENT
??D?$_Vector_const_iterator@V?$_Vector_val@UtagSummonAttackInfo@@V?$allocator@UtagSummonAttackInfo@@@std@@@std@@@std@@QBEABUtagSummonAttackInfo@@XZ PROC ; std::_Vector_const_iterator<std::_Vector_val<tagSummonAttackInfo,std::allocator<tagSummonAttackInfo> > >::operator*, COMDAT
; _this$ = ecx

; 64   :  #if _ITERATOR_DEBUG_LEVEL == 2
; 65   : 		if (this->_Getcont() == 0
; 66   : 			|| this->_Ptr == 0
; 67   : 			|| this->_Ptr < ((_Myvec *)this->_Getcont())->_Myfirst
; 68   : 			|| ((_Myvec *)this->_Getcont())->_Mylast <= this->_Ptr)
; 69   : 			{	// report error
; 70   : 			_DEBUG_ERROR("vector iterator not dereferencable");
; 71   : 			_SCL_SECURE_OUT_OF_RANGE;
; 72   : 			}
; 73   : 
; 74   :  #elif _ITERATOR_DEBUG_LEVEL == 1
; 75   : 		_SCL_SECURE_VALIDATE(this->_Getcont() != 0);
; 76   : 		_SCL_SECURE_VALIDATE_RANGE(
; 77   : 			this->_Ptr != 0
; 78   : 			&& ((_Myvec *)this->_Getcont())->_Myfirst <= this->_Ptr
; 79   : 			&& this->_Ptr < ((_Myvec *)this->_Getcont())->_Mylast);
; 80   :  #endif /* _ITERATOR_DEBUG_LEVEL */
; 81   : 
; 82   : 		__analysis_assume(this->_Ptr != 0);
; 83   : 
; 84   : 		return (*this->_Ptr);

  00000	8b 01		 mov	 eax, DWORD PTR [ecx]

; 85   : 		}

  00002	c3		 ret	 0
??D?$_Vector_const_iterator@V?$_Vector_val@UtagSummonAttackInfo@@V?$allocator@UtagSummonAttackInfo@@@std@@@std@@@std@@QBEABUtagSummonAttackInfo@@XZ ENDP ; std::_Vector_const_iterator<std::_Vector_val<tagSummonAttackInfo,std::allocator<tagSummonAttackInfo> > >::operator*
_TEXT	ENDS
PUBLIC	??E?$_Vector_const_iterator@V?$_Vector_val@UtagSummonAttackInfo@@V?$allocator@UtagSummonAttackInfo@@@std@@@std@@@std@@QAEAAV01@XZ ; std::_Vector_const_iterator<std::_Vector_val<tagSummonAttackInfo,std::allocator<tagSummonAttackInfo> > >::operator++
; Function compile flags: /Ogsp
;	COMDAT ??E?$_Vector_const_iterator@V?$_Vector_val@UtagSummonAttackInfo@@V?$allocator@UtagSummonAttackInfo@@@std@@@std@@@std@@QAEAAV01@XZ
_TEXT	SEGMENT
??E?$_Vector_const_iterator@V?$_Vector_val@UtagSummonAttackInfo@@V?$allocator@UtagSummonAttackInfo@@@std@@@std@@@std@@QAEAAV01@XZ PROC ; std::_Vector_const_iterator<std::_Vector_val<tagSummonAttackInfo,std::allocator<tagSummonAttackInfo> > >::operator++, COMDAT
; _this$ = ecx

; 93   : 		{	// preincrement

  00000	8b c1		 mov	 eax, ecx

; 94   :  #if _ITERATOR_DEBUG_LEVEL == 2
; 95   : 		if (this->_Getcont() == 0
; 96   : 			|| this->_Ptr == 0
; 97   : 			|| ((_Myvec *)this->_Getcont())->_Mylast <= this->_Ptr)
; 98   : 			{	// report error
; 99   : 			_DEBUG_ERROR("vector iterator not incrementable");
; 100  : 			_SCL_SECURE_OUT_OF_RANGE;
; 101  : 			}
; 102  : 
; 103  :  #elif _ITERATOR_DEBUG_LEVEL == 1
; 104  : 		_SCL_SECURE_VALIDATE(this->_Getcont() != 0);
; 105  : 		_SCL_SECURE_VALIDATE_RANGE(
; 106  : 			this->_Ptr != 0
; 107  : 			&& this->_Ptr < ((_Myvec *)this->_Getcont())->_Mylast);
; 108  :  #endif /* _ITERATOR_DEBUG_LEVEL */
; 109  : 
; 110  : 		++this->_Ptr;

  00002	83 00 74	 add	 DWORD PTR [eax], 116	; 00000074H

; 111  : 		return (*this);
; 112  : 		}

  00005	c3		 ret	 0
??E?$_Vector_const_iterator@V?$_Vector_val@UtagSummonAttackInfo@@V?$allocator@UtagSummonAttackInfo@@@std@@@std@@@std@@QAEAAV01@XZ ENDP ; std::_Vector_const_iterator<std::_Vector_val<tagSummonAttackInfo,std::allocator<tagSummonAttackInfo> > >::operator++
_TEXT	ENDS
PUBLIC	??$forward@UtagSummonAttackInfo@@@std@@YA$$QAUtagSummonAttackInfo@@AAU1@@Z ; std::forward<tagSummonAttackInfo>
; Function compile flags: /Ogsp
; File c:\program files (x86)\microsoft visual studio 10.0\vc\include\utility
;	COMDAT ??$forward@UtagSummonAttackInfo@@@std@@YA$$QAUtagSummonAttackInfo@@AAU1@@Z
_TEXT	SEGMENT
__Arg$ = 8						; size = 4
??$forward@UtagSummonAttackInfo@@@std@@YA$$QAUtagSummonAttackInfo@@AAU1@@Z PROC ; std::forward<tagSummonAttackInfo>, COMDAT

; 78   : 	{	// forward _Arg, given explicitly specified type parameter

  00000	55		 push	 ebp
  00001	8b ec		 mov	 ebp, esp

; 79   : 	return ((_Ty&&)_Arg);

  00003	8b 45 08	 mov	 eax, DWORD PTR __Arg$[ebp]

; 80   : 	}

  00006	5d		 pop	 ebp
  00007	c3		 ret	 0
??$forward@UtagSummonAttackInfo@@@std@@YA$$QAUtagSummonAttackInfo@@AAU1@@Z ENDP ; std::forward<tagSummonAttackInfo>
_TEXT	ENDS
PUBLIC	??$_Ptr_cat@V?$_Vector_const_iterator@V?$_Vector_val@UWeaponInfo@@V?$allocator@UWeaponInfo@@@std@@@std@@@std@@PAUWeaponInfo@@@std@@YA?AU_Nonscalar_ptr_iterator_tag@0@AAV?$_Vector_const_iterator@V?$_Vector_val@UWeaponInfo@@V?$allocator@UWeaponInfo@@@std@@@std@@@0@AAPAUWeaponInfo@@@Z ; std::_Ptr_cat<std::_Vector_const_iterator<std::_Vector_val<WeaponInfo,std::allocator<WeaponInfo> > >,WeaponInfo *>
; Function compile flags: /Ogsp
; File c:\program files (x86)\microsoft visual studio 10.0\vc\include\xutility
;	COMDAT ??$_Ptr_cat@V?$_Vector_const_iterator@V?$_Vector_val@UWeaponInfo@@V?$allocator@UWeaponInfo@@@std@@@std@@@std@@PAUWeaponInfo@@@std@@YA?AU_Nonscalar_ptr_iterator_tag@0@AAV?$_Vector_const_iterator@V?$_Vector_val@UWeaponInfo@@V?$allocator@UWeaponInfo@@@std@@@std@@@0@AAPAUWeaponInfo@@@Z
_TEXT	SEGMENT
__Cat$ = -1						; size = 1
___formal$ = 8						; size = 4
___formal$ = 12						; size = 4
??$_Ptr_cat@V?$_Vector_const_iterator@V?$_Vector_val@UWeaponInfo@@V?$allocator@UWeaponInfo@@@std@@@std@@@std@@PAUWeaponInfo@@@std@@YA?AU_Nonscalar_ptr_iterator_tag@0@AAV?$_Vector_const_iterator@V?$_Vector_val@UWeaponInfo@@V?$allocator@UWeaponInfo@@@std@@@std@@@0@AAPAUWeaponInfo@@@Z PROC ; std::_Ptr_cat<std::_Vector_const_iterator<std::_Vector_val<WeaponInfo,std::allocator<WeaponInfo> > >,WeaponInfo *>, COMDAT

; 485  : 	{	// return pointer category from arbitrary arguments

  00000	55		 push	 ebp
  00001	8b ec		 mov	 ebp, esp
  00003	51		 push	 ecx

; 486  : 	_Nonscalar_ptr_iterator_tag _Cat;
; 487  : 	return (_Cat);

  00004	8a 45 ff	 mov	 al, BYTE PTR __Cat$[ebp]

; 488  : 	}

  00007	c9		 leave
  00008	c3		 ret	 0
??$_Ptr_cat@V?$_Vector_const_iterator@V?$_Vector_val@UWeaponInfo@@V?$allocator@UWeaponInfo@@@std@@@std@@@std@@PAUWeaponInfo@@@std@@YA?AU_Nonscalar_ptr_iterator_tag@0@AAV?$_Vector_const_iterator@V?$_Vector_val@UWeaponInfo@@V?$allocator@UWeaponInfo@@@std@@@std@@@0@AAPAUWeaponInfo@@@Z ENDP ; std::_Ptr_cat<std::_Vector_const_iterator<std::_Vector_val<WeaponInfo,std::allocator<WeaponInfo> > >,WeaponInfo *>
_TEXT	ENDS
PUBLIC	??$_Ptr_cat@V?$_Vector_const_iterator@V?$_Vector_val@UForceInfo@@V?$allocator@UForceInfo@@@std@@@std@@@std@@PAUForceInfo@@@std@@YA?AU_Nonscalar_ptr_iterator_tag@0@AAV?$_Vector_const_iterator@V?$_Vector_val@UForceInfo@@V?$allocator@UForceInfo@@@std@@@std@@@0@AAPAUForceInfo@@@Z ; std::_Ptr_cat<std::_Vector_const_iterator<std::_Vector_val<ForceInfo,std::allocator<ForceInfo> > >,ForceInfo *>
; Function compile flags: /Ogsp
;	COMDAT ??$_Ptr_cat@V?$_Vector_const_iterator@V?$_Vector_val@UForceInfo@@V?$allocator@UForceInfo@@@std@@@std@@@std@@PAUForceInfo@@@std@@YA?AU_Nonscalar_ptr_iterator_tag@0@AAV?$_Vector_const_iterator@V?$_Vector_val@UForceInfo@@V?$allocator@UForceInfo@@@std@@@std@@@0@AAPAUForceInfo@@@Z
_TEXT	SEGMENT
__Cat$ = -1						; size = 1
___formal$ = 8						; size = 4
___formal$ = 12						; size = 4
??$_Ptr_cat@V?$_Vector_const_iterator@V?$_Vector_val@UForceInfo@@V?$allocator@UForceInfo@@@std@@@std@@@std@@PAUForceInfo@@@std@@YA?AU_Nonscalar_ptr_iterator_tag@0@AAV?$_Vector_const_iterator@V?$_Vector_val@UForceInfo@@V?$allocator@UForceInfo@@@std@@@std@@@0@AAPAUForceInfo@@@Z PROC ; std::_Ptr_cat<std::_Vector_const_iterator<std::_Vector_val<ForceInfo,std::allocator<ForceInfo> > >,ForceInfo *>, COMDAT

; 485  : 	{	// return pointer category from arbitrary arguments

  00000	55		 push	 ebp
  00001	8b ec		 mov	 ebp, esp
  00003	51		 push	 ecx

; 486  : 	_Nonscalar_ptr_iterator_tag _Cat;
; 487  : 	return (_Cat);

  00004	8a 45 ff	 mov	 al, BYTE PTR __Cat$[ebp]

; 488  : 	}

  00007	c9		 leave
  00008	c3		 ret	 0
??$_Ptr_cat@V?$_Vector_const_iterator@V?$_Vector_val@UForceInfo@@V?$allocator@UForceInfo@@@std@@@std@@@std@@PAUForceInfo@@@std@@YA?AU_Nonscalar_ptr_iterator_tag@0@AAV?$_Vector_const_iterator@V?$_Vector_val@UForceInfo@@V?$allocator@UForceInfo@@@std@@@std@@@0@AAPAUForceInfo@@@Z ENDP ; std::_Ptr_cat<std::_Vector_const_iterator<std::_Vector_val<ForceInfo,std::allocator<ForceInfo> > >,ForceInfo *>
_TEXT	ENDS
PUBLIC	??D?$_Vector_const_iterator@V?$_Vector_val@UWeaponInfo@@V?$allocator@UWeaponInfo@@@std@@@std@@@std@@QBEABUWeaponInfo@@XZ ; std::_Vector_const_iterator<std::_Vector_val<WeaponInfo,std::allocator<WeaponInfo> > >::operator*
; Function compile flags: /Ogsp
; File c:\program files (x86)\microsoft visual studio 10.0\vc\include\vector
;	COMDAT ??D?$_Vector_const_iterator@V?$_Vector_val@UWeaponInfo@@V?$allocator@UWeaponInfo@@@std@@@std@@@std@@QBEABUWeaponInfo@@XZ
_TEXT	SEGMENT
??D?$_Vector_const_iterator@V?$_Vector_val@UWeaponInfo@@V?$allocator@UWeaponInfo@@@std@@@std@@@std@@QBEABUWeaponInfo@@XZ PROC ; std::_Vector_const_iterator<std::_Vector_val<WeaponInfo,std::allocator<WeaponInfo> > >::operator*, COMDAT
; _this$ = ecx

; 64   :  #if _ITERATOR_DEBUG_LEVEL == 2
; 65   : 		if (this->_Getcont() == 0
; 66   : 			|| this->_Ptr == 0
; 67   : 			|| this->_Ptr < ((_Myvec *)this->_Getcont())->_Myfirst
; 68   : 			|| ((_Myvec *)this->_Getcont())->_Mylast <= this->_Ptr)
; 69   : 			{	// report error
; 70   : 			_DEBUG_ERROR("vector iterator not dereferencable");
; 71   : 			_SCL_SECURE_OUT_OF_RANGE;
; 72   : 			}
; 73   : 
; 74   :  #elif _ITERATOR_DEBUG_LEVEL == 1
; 75   : 		_SCL_SECURE_VALIDATE(this->_Getcont() != 0);
; 76   : 		_SCL_SECURE_VALIDATE_RANGE(
; 77   : 			this->_Ptr != 0
; 78   : 			&& ((_Myvec *)this->_Getcont())->_Myfirst <= this->_Ptr
; 79   : 			&& this->_Ptr < ((_Myvec *)this->_Getcont())->_Mylast);
; 80   :  #endif /* _ITERATOR_DEBUG_LEVEL */
; 81   : 
; 82   : 		__analysis_assume(this->_Ptr != 0);
; 83   : 
; 84   : 		return (*this->_Ptr);

  00000	8b 01		 mov	 eax, DWORD PTR [ecx]

; 85   : 		}

  00002	c3		 ret	 0
??D?$_Vector_const_iterator@V?$_Vector_val@UWeaponInfo@@V?$allocator@UWeaponInfo@@@std@@@std@@@std@@QBEABUWeaponInfo@@XZ ENDP ; std::_Vector_const_iterator<std::_Vector_val<WeaponInfo,std::allocator<WeaponInfo> > >::operator*
_TEXT	ENDS
PUBLIC	??E?$_Vector_const_iterator@V?$_Vector_val@UWeaponInfo@@V?$allocator@UWeaponInfo@@@std@@@std@@@std@@QAEAAV01@XZ ; std::_Vector_const_iterator<std::_Vector_val<WeaponInfo,std::allocator<WeaponInfo> > >::operator++
; Function compile flags: /Ogsp
;	COMDAT ??E?$_Vector_const_iterator@V?$_Vector_val@UWeaponInfo@@V?$allocator@UWeaponInfo@@@std@@@std@@@std@@QAEAAV01@XZ
_TEXT	SEGMENT
??E?$_Vector_const_iterator@V?$_Vector_val@UWeaponInfo@@V?$allocator@UWeaponInfo@@@std@@@std@@@std@@QAEAAV01@XZ PROC ; std::_Vector_const_iterator<std::_Vector_val<WeaponInfo,std::allocator<WeaponInfo> > >::operator++, COMDAT
; _this$ = ecx

; 93   : 		{	// preincrement

  00000	8b c1		 mov	 eax, ecx

; 94   :  #if _ITERATOR_DEBUG_LEVEL == 2
; 95   : 		if (this->_Getcont() == 0
; 96   : 			|| this->_Ptr == 0
; 97   : 			|| ((_Myvec *)this->_Getcont())->_Mylast <= this->_Ptr)
; 98   : 			{	// report error
; 99   : 			_DEBUG_ERROR("vector iterator not incrementable");
; 100  : 			_SCL_SECURE_OUT_OF_RANGE;
; 101  : 			}
; 102  : 
; 103  :  #elif _ITERATOR_DEBUG_LEVEL == 1
; 104  : 		_SCL_SECURE_VALIDATE(this->_Getcont() != 0);
; 105  : 		_SCL_SECURE_VALIDATE_RANGE(
; 106  : 			this->_Ptr != 0
; 107  : 			&& this->_Ptr < ((_Myvec *)this->_Getcont())->_Mylast);
; 108  :  #endif /* _ITERATOR_DEBUG_LEVEL */
; 109  : 
; 110  : 		++this->_Ptr;

  00002	83 00 28	 add	 DWORD PTR [eax], 40	; 00000028H

; 111  : 		return (*this);
; 112  : 		}

  00005	c3		 ret	 0
??E?$_Vector_const_iterator@V?$_Vector_val@UWeaponInfo@@V?$allocator@UWeaponInfo@@@std@@@std@@@std@@QAEAAV01@XZ ENDP ; std::_Vector_const_iterator<std::_Vector_val<WeaponInfo,std::allocator<WeaponInfo> > >::operator++
_TEXT	ENDS
PUBLIC	??D?$_Vector_const_iterator@V?$_Vector_val@UForceInfo@@V?$allocator@UForceInfo@@@std@@@std@@@std@@QBEABUForceInfo@@XZ ; std::_Vector_const_iterator<std::_Vector_val<ForceInfo,std::allocator<ForceInfo> > >::operator*
; Function compile flags: /Ogsp
;	COMDAT ??D?$_Vector_const_iterator@V?$_Vector_val@UForceInfo@@V?$allocator@UForceInfo@@@std@@@std@@@std@@QBEABUForceInfo@@XZ
_TEXT	SEGMENT
??D?$_Vector_const_iterator@V?$_Vector_val@UForceInfo@@V?$allocator@UForceInfo@@@std@@@std@@@std@@QBEABUForceInfo@@XZ PROC ; std::_Vector_const_iterator<std::_Vector_val<ForceInfo,std::allocator<ForceInfo> > >::operator*, COMDAT
; _this$ = ecx

; 64   :  #if _ITERATOR_DEBUG_LEVEL == 2
; 65   : 		if (this->_Getcont() == 0
; 66   : 			|| this->_Ptr == 0
; 67   : 			|| this->_Ptr < ((_Myvec *)this->_Getcont())->_Myfirst
; 68   : 			|| ((_Myvec *)this->_Getcont())->_Mylast <= this->_Ptr)
; 69   : 			{	// report error
; 70   : 			_DEBUG_ERROR("vector iterator not dereferencable");
; 71   : 			_SCL_SECURE_OUT_OF_RANGE;
; 72   : 			}
; 73   : 
; 74   :  #elif _ITERATOR_DEBUG_LEVEL == 1
; 75   : 		_SCL_SECURE_VALIDATE(this->_Getcont() != 0);
; 76   : 		_SCL_SECURE_VALIDATE_RANGE(
; 77   : 			this->_Ptr != 0
; 78   : 			&& ((_Myvec *)this->_Getcont())->_Myfirst <= this->_Ptr
; 79   : 			&& this->_Ptr < ((_Myvec *)this->_Getcont())->_Mylast);
; 80   :  #endif /* _ITERATOR_DEBUG_LEVEL */
; 81   : 
; 82   : 		__analysis_assume(this->_Ptr != 0);
; 83   : 
; 84   : 		return (*this->_Ptr);

  00000	8b 01		 mov	 eax, DWORD PTR [ecx]

; 85   : 		}

  00002	c3		 ret	 0
??D?$_Vector_const_iterator@V?$_Vector_val@UForceInfo@@V?$allocator@UForceInfo@@@std@@@std@@@std@@QBEABUForceInfo@@XZ ENDP ; std::_Vector_const_iterator<std::_Vector_val<ForceInfo,std::allocator<ForceInfo> > >::operator*
_TEXT	ENDS
PUBLIC	??E?$_Vector_const_iterator@V?$_Vector_val@UForceInfo@@V?$allocator@UForceInfo@@@std@@@std@@@std@@QAEAAV01@XZ ; std::_Vector_const_iterator<std::_Vector_val<ForceInfo,std::allocator<ForceInfo> > >::operator++
; Function compile flags: /Ogsp
;	COMDAT ??E?$_Vector_const_iterator@V?$_Vector_val@UForceInfo@@V?$allocator@UForceInfo@@@std@@@std@@@std@@QAEAAV01@XZ
_TEXT	SEGMENT
??E?$_Vector_const_iterator@V?$_Vector_val@UForceInfo@@V?$allocator@UForceInfo@@@std@@@std@@@std@@QAEAAV01@XZ PROC ; std::_Vector_const_iterator<std::_Vector_val<ForceInfo,std::allocator<ForceInfo> > >::operator++, COMDAT
; _this$ = ecx

; 93   : 		{	// preincrement

  00000	8b c1		 mov	 eax, ecx

; 94   :  #if _ITERATOR_DEBUG_LEVEL == 2
; 95   : 		if (this->_Getcont() == 0
; 96   : 			|| this->_Ptr == 0
; 97   : 			|| ((_Myvec *)this->_Getcont())->_Mylast <= this->_Ptr)
; 98   : 			{	// report error
; 99   : 			_DEBUG_ERROR("vector iterator not incrementable");
; 100  : 			_SCL_SECURE_OUT_OF_RANGE;
; 101  : 			}
; 102  : 
; 103  :  #elif _ITERATOR_DEBUG_LEVEL == 1
; 104  : 		_SCL_SECURE_VALIDATE(this->_Getcont() != 0);
; 105  : 		_SCL_SECURE_VALIDATE_RANGE(
; 106  : 			this->_Ptr != 0
; 107  : 			&& this->_Ptr < ((_Myvec *)this->_Getcont())->_Mylast);
; 108  :  #endif /* _ITERATOR_DEBUG_LEVEL */
; 109  : 
; 110  : 		++this->_Ptr;

  00002	83 00 0c	 add	 DWORD PTR [eax], 12	; 0000000cH

; 111  : 		return (*this);
; 112  : 		}

  00005	c3		 ret	 0
??E?$_Vector_const_iterator@V?$_Vector_val@UForceInfo@@V?$allocator@UForceInfo@@@std@@@std@@@std@@QAEAAV01@XZ ENDP ; std::_Vector_const_iterator<std::_Vector_val<ForceInfo,std::allocator<ForceInfo> > >::operator++
_TEXT	ENDS
PUBLIC	??$forward@ABUWeaponInfo@@@std@@YAABUWeaponInfo@@ABU1@@Z ; std::forward<WeaponInfo const &>
; Function compile flags: /Ogsp
; File c:\program files (x86)\microsoft visual studio 10.0\vc\include\utility
;	COMDAT ??$forward@ABUWeaponInfo@@@std@@YAABUWeaponInfo@@ABU1@@Z
_TEXT	SEGMENT
__Arg$ = 8						; size = 4
??$forward@ABUWeaponInfo@@@std@@YAABUWeaponInfo@@ABU1@@Z PROC ; std::forward<WeaponInfo const &>, COMDAT

; 78   : 	{	// forward _Arg, given explicitly specified type parameter

  00000	55		 push	 ebp
  00001	8b ec		 mov	 ebp, esp

; 79   : 	return ((_Ty&&)_Arg);

  00003	8b 45 08	 mov	 eax, DWORD PTR __Arg$[ebp]

; 80   : 	}

  00006	5d		 pop	 ebp
  00007	c3		 ret	 0
??$forward@ABUWeaponInfo@@@std@@YAABUWeaponInfo@@ABU1@@Z ENDP ; std::forward<WeaponInfo const &>
_TEXT	ENDS
PUBLIC	??$forward@ABUForceInfo@@@std@@YAABUForceInfo@@ABU1@@Z ; std::forward<ForceInfo const &>
; Function compile flags: /Ogsp
;	COMDAT ??$forward@ABUForceInfo@@@std@@YAABUForceInfo@@ABU1@@Z
_TEXT	SEGMENT
__Arg$ = 8						; size = 4
??$forward@ABUForceInfo@@@std@@YAABUForceInfo@@ABU1@@Z PROC ; std::forward<ForceInfo const &>, COMDAT

; 78   : 	{	// forward _Arg, given explicitly specified type parameter

  00000	55		 push	 ebp
  00001	8b ec		 mov	 ebp, esp

; 79   : 	return ((_Ty&&)_Arg);

  00003	8b 45 08	 mov	 eax, DWORD PTR __Arg$[ebp]

; 80   : 	}

  00006	5d		 pop	 ebp
  00007	c3		 ret	 0
??$forward@ABUForceInfo@@@std@@YAABUForceInfo@@ABU1@@Z ENDP ; std::forward<ForceInfo const &>
_TEXT	ENDS
PUBLIC	??$_Construct@UForceInfo@@ABU1@@std@@YAXPAUForceInfo@@ABU1@@Z ; std::_Construct<ForceInfo,ForceInfo const &>
; Function compile flags: /Ogsp
; File c:\program files (x86)\microsoft visual studio 10.0\vc\include\xmemory
;	COMDAT ??$_Construct@UForceInfo@@ABU1@@std@@YAXPAUForceInfo@@ABU1@@Z
_TEXT	SEGMENT
__Ptr$ = 8						; size = 4
__Val$ = 12						; size = 4
??$_Construct@UForceInfo@@ABU1@@std@@YAXPAUForceInfo@@ABU1@@Z PROC ; std::_Construct<ForceInfo,ForceInfo const &>, COMDAT

; 46   : 	{	// construct object at _Ptr with value _Val

  00000	55		 push	 ebp
  00001	8b ec		 mov	 ebp, esp
  00003	57		 push	 edi

; 47   : 	void _FARQ *_Vptr = _Ptr;
; 48   : 	::new (_Vptr) _Ty1(_STD forward<_Ty2>(_Val));

  00004	8b 7d 08	 mov	 edi, DWORD PTR __Ptr$[ebp]
  00007	85 ff		 test	 edi, edi
  00009	74 08		 je	 SHORT $LN3@Construct
  0000b	56		 push	 esi
  0000c	8b 75 0c	 mov	 esi, DWORD PTR __Val$[ebp]
  0000f	a5		 movsd
  00010	a5		 movsd
  00011	a5		 movsd
  00012	5e		 pop	 esi
$LN3@Construct:
  00013	5f		 pop	 edi

; 49   : 	}

  00014	5d		 pop	 ebp
  00015	c3		 ret	 0
??$_Construct@UForceInfo@@ABU1@@std@@YAXPAUForceInfo@@ABU1@@Z ENDP ; std::_Construct<ForceInfo,ForceInfo const &>
_TEXT	ENDS
PUBLIC	?_DECSTR@@YAXPADH@Z				; _DECSTR
; Function compile flags: /Ogsp
; File d:\lost saga for developer\youtube\tutorial\source\src\lsclient\stringprotect.h
;	COMDAT ?_DECSTR@@YAXPADH@Z
_TEXT	SEGMENT
_s$ = 8							; size = 4
_l$ = 12						; size = 4
?_DECSTR@@YAXPADH@Z PROC				; _DECSTR, COMDAT

; 40   : __forceinline void _DECSTR(char* s, int l){int i=0,l4=(l-1)/4,*p=(int*)s;s[l-1]=0;for(;i<l4;++i)*(p++)^=0xEAEBECED;for(i=l4*4;i<l-1;++i)s[i]^=0xED-i%4;}

  00000	55		 push	 ebp
  00001	8b ec		 mov	 ebp, esp
  00003	8b 4d 0c	 mov	 ecx, DWORD PTR _l$[ebp]
  00006	56		 push	 esi
  00007	8b 75 08	 mov	 esi, DWORD PTR _s$[ebp]
  0000a	57		 push	 edi
  0000b	8d 79 ff	 lea	 edi, DWORD PTR [ecx-1]
  0000e	8b c7		 mov	 eax, edi
  00010	99		 cdq
  00011	83 e2 03	 and	 edx, 3
  00014	03 c2		 add	 eax, edx
  00016	c1 f8 02	 sar	 eax, 2
  00019	8b d6		 mov	 edx, esi
  0001b	c6 44 0e ff 00	 mov	 BYTE PTR [esi+ecx-1], 0
  00020	85 c0		 test	 eax, eax
  00022	7e 0e		 jle	 SHORT $LN4@DECSTR
  00024	8b c8		 mov	 ecx, eax
$LL6@DECSTR:
  00026	81 32 ed ec eb
	ea		 xor	 DWORD PTR [edx], -353637139 ; eaebecedH
  0002c	83 c2 04	 add	 edx, 4
  0002f	49		 dec	 ecx
  00030	75 f4		 jne	 SHORT $LL6@DECSTR
$LN4@DECSTR:
  00032	c1 e0 02	 shl	 eax, 2
  00035	eb 17		 jmp	 SHORT $LN14@DECSTR
$LL3@DECSTR:
  00037	8b c8		 mov	 ecx, eax
  00039	81 e1 03 00 00
	80		 and	 ecx, -2147483645	; 80000003H
  0003f	79 05		 jns	 SHORT $LN13@DECSTR
  00041	49		 dec	 ecx
  00042	83 c9 fc	 or	 ecx, -4			; fffffffcH
  00045	41		 inc	 ecx
$LN13@DECSTR:
  00046	b2 ed		 mov	 dl, -19			; ffffffedH
  00048	2a d1		 sub	 dl, cl
  0004a	30 14 30	 xor	 BYTE PTR [eax+esi], dl
  0004d	40		 inc	 eax
$LN14@DECSTR:
  0004e	3b c7		 cmp	 eax, edi
  00050	7c e5		 jl	 SHORT $LL3@DECSTR
  00052	5f		 pop	 edi
  00053	5e		 pop	 esi
  00054	5d		 pop	 ebp
  00055	c3		 ret	 0
?_DECSTR@@YAXPADH@Z ENDP				; _DECSTR
_TEXT	ENDS
PUBLIC	?GetGroup@ioGameEntity@@QBEPAVioEntityGroup@@XZ	; ioGameEntity::GetGroup
; Function compile flags: /Ogsp
; File d:\lost saga for developer\youtube\tutorial\source\src\lsclient\iogameentity.h
;	COMDAT ?GetGroup@ioGameEntity@@QBEPAVioEntityGroup@@XZ
_TEXT	SEGMENT
?GetGroup@ioGameEntity@@QBEPAVioEntityGroup@@XZ PROC	; ioGameEntity::GetGroup, COMDAT
; _this$ = ecx

; 166  : 	inline ioEntityGroup* GetGroup() const { return m_pGroup; }

  00000	8b 41 04	 mov	 eax, DWORD PTR [ecx+4]
  00003	c3		 ret	 0
?GetGroup@ioGameEntity@@QBEPAVioEntityGroup@@XZ ENDP	; ioGameEntity::GetGroup
_TEXT	ENDS
PUBLIC	??1WeaponInfo@@QAE@XZ				; WeaponInfo::~WeaponInfo
EXTRN	__imp_??1ioHashString@@QAE@XZ:PROC
; Function compile flags: /Ogsp
;	COMDAT ??1WeaponInfo@@QAE@XZ
_TEXT	SEGMENT
??1WeaponInfo@@QAE@XZ PROC				; WeaponInfo::~WeaponInfo, COMDAT
; _this$ = ecx
  00000	83 c1 08	 add	 ecx, 8
  00003	ff 25 00 00 00
	00		 jmp	 DWORD PTR __imp_??1ioHashString@@QAE@XZ
??1WeaponInfo@@QAE@XZ ENDP				; WeaponInfo::~WeaponInfo
_TEXT	ENDS
PUBLIC	??_7?$CEncrypt@M@@6B@				; CEncrypt<float>::`vftable'
PUBLIC	??1?$CEncrypt@M@@UAE@XZ				; CEncrypt<float>::~CEncrypt<float>
PUBLIC	??_R4?$CEncrypt@M@@6B@				; CEncrypt<float>::`RTTI Complete Object Locator'
PUBLIC	??_R0?AV?$CEncrypt@M@@@8			; CEncrypt<float> `RTTI Type Descriptor'
PUBLIC	??_R3?$CEncrypt@M@@8				; CEncrypt<float>::`RTTI Class Hierarchy Descriptor'
PUBLIC	??_R2?$CEncrypt@M@@8				; CEncrypt<float>::`RTTI Base Class Array'
PUBLIC	??_R1A@?0A@EA@?$CEncrypt@M@@8			; CEncrypt<float>::`RTTI Base Class Descriptor at (0,-1,0,64)'
EXTRN	??1ccddaabb@@UAE@XZ:PROC			; ccddaabb::~ccddaabb
EXTRN	??_E?$CEncrypt@M@@UAEPAXI@Z:PROC		; CEncrypt<float>::`vector deleting destructor'
;	COMDAT ??_R1A@?0A@EA@?$CEncrypt@M@@8
; File d:\lost saga for developer\youtube\tutorial\source\src\lsclient\encryptvalue.h
rdata$r	SEGMENT
??_R1A@?0A@EA@?$CEncrypt@M@@8 DD FLAT:??_R0?AV?$CEncrypt@M@@@8 ; CEncrypt<float>::`RTTI Base Class Descriptor at (0,-1,0,64)'
	DD	00H
	DD	00H
	DD	0ffffffffH
	DD	00H
	DD	040H
	DD	FLAT:??_R3?$CEncrypt@M@@8
rdata$r	ENDS
;	COMDAT ??_R2?$CEncrypt@M@@8
rdata$r	SEGMENT
??_R2?$CEncrypt@M@@8 DD FLAT:??_R1A@?0A@EA@?$CEncrypt@M@@8 ; CEncrypt<float>::`RTTI Base Class Array'
rdata$r	ENDS
;	COMDAT ??_R3?$CEncrypt@M@@8
rdata$r	SEGMENT
??_R3?$CEncrypt@M@@8 DD 00H				; CEncrypt<float>::`RTTI Class Hierarchy Descriptor'
	DD	00H
	DD	01H
	DD	FLAT:??_R2?$CEncrypt@M@@8
rdata$r	ENDS
;	COMDAT ??_R0?AV?$CEncrypt@M@@@8
_DATA	SEGMENT
??_R0?AV?$CEncrypt@M@@@8 DD FLAT:??_7type_info@@6B@	; CEncrypt<float> `RTTI Type Descriptor'
	DD	00H
	DB	'.?AV?$CEncrypt@M@@', 00H
_DATA	ENDS
;	COMDAT ??_R4?$CEncrypt@M@@6B@
rdata$r	SEGMENT
??_R4?$CEncrypt@M@@6B@ DD 00H				; CEncrypt<float>::`RTTI Complete Object Locator'
	DD	00H
	DD	00H
	DD	FLAT:??_R0?AV?$CEncrypt@M@@@8
	DD	FLAT:??_R3?$CEncrypt@M@@8
rdata$r	ENDS
;	COMDAT ??_7?$CEncrypt@M@@6B@
CONST	SEGMENT
??_7?$CEncrypt@M@@6B@ DD FLAT:??_R4?$CEncrypt@M@@6B@	; CEncrypt<float>::`vftable'
	DD	FLAT:??_E?$CEncrypt@M@@UAEPAXI@Z
; Function compile flags: /Ogsp
CONST	ENDS
;	COMDAT ??1?$CEncrypt@M@@UAE@XZ
_TEXT	SEGMENT
??1?$CEncrypt@M@@UAE@XZ PROC				; CEncrypt<float>::~CEncrypt<float>, COMDAT
; _this$ = ecx

; 127  : 	{

  00000	c7 01 00 00 00
	00		 mov	 DWORD PTR [ecx], OFFSET ??_7?$CEncrypt@M@@6B@

; 128  : 	}

  00006	83 c1 0c	 add	 ecx, 12			; 0000000cH
  00009	e9 00 00 00 00	 jmp	 ??1ccddaabb@@UAE@XZ	; ccddaabb::~ccddaabb
??1?$CEncrypt@M@@UAE@XZ ENDP				; CEncrypt<float>::~CEncrypt<float>
_TEXT	ENDS
PUBLIC	??_7?$CEncrypt@H@@6B@				; CEncrypt<int>::`vftable'
PUBLIC	??1?$CEncrypt@H@@UAE@XZ				; CEncrypt<int>::~CEncrypt<int>
PUBLIC	??_R4?$CEncrypt@H@@6B@				; CEncrypt<int>::`RTTI Complete Object Locator'
PUBLIC	??_R0?AV?$CEncrypt@H@@@8			; CEncrypt<int> `RTTI Type Descriptor'
PUBLIC	??_R3?$CEncrypt@H@@8				; CEncrypt<int>::`RTTI Class Hierarchy Descriptor'
PUBLIC	??_R2?$CEncrypt@H@@8				; CEncrypt<int>::`RTTI Base Class Array'
PUBLIC	??_R1A@?0A@EA@?$CEncrypt@H@@8			; CEncrypt<int>::`RTTI Base Class Descriptor at (0,-1,0,64)'
EXTRN	??_E?$CEncrypt@H@@UAEPAXI@Z:PROC		; CEncrypt<int>::`vector deleting destructor'
;	COMDAT ??_R1A@?0A@EA@?$CEncrypt@H@@8
rdata$r	SEGMENT
??_R1A@?0A@EA@?$CEncrypt@H@@8 DD FLAT:??_R0?AV?$CEncrypt@H@@@8 ; CEncrypt<int>::`RTTI Base Class Descriptor at (0,-1,0,64)'
	DD	00H
	DD	00H
	DD	0ffffffffH
	DD	00H
	DD	040H
	DD	FLAT:??_R3?$CEncrypt@H@@8
rdata$r	ENDS
;	COMDAT ??_R2?$CEncrypt@H@@8
rdata$r	SEGMENT
??_R2?$CEncrypt@H@@8 DD FLAT:??_R1A@?0A@EA@?$CEncrypt@H@@8 ; CEncrypt<int>::`RTTI Base Class Array'
rdata$r	ENDS
;	COMDAT ??_R3?$CEncrypt@H@@8
rdata$r	SEGMENT
??_R3?$CEncrypt@H@@8 DD 00H				; CEncrypt<int>::`RTTI Class Hierarchy Descriptor'
	DD	00H
	DD	01H
	DD	FLAT:??_R2?$CEncrypt@H@@8
rdata$r	ENDS
;	COMDAT ??_R0?AV?$CEncrypt@H@@@8
_DATA	SEGMENT
??_R0?AV?$CEncrypt@H@@@8 DD FLAT:??_7type_info@@6B@	; CEncrypt<int> `RTTI Type Descriptor'
	DD	00H
	DB	'.?AV?$CEncrypt@H@@', 00H
_DATA	ENDS
;	COMDAT ??_R4?$CEncrypt@H@@6B@
rdata$r	SEGMENT
??_R4?$CEncrypt@H@@6B@ DD 00H				; CEncrypt<int>::`RTTI Complete Object Locator'
	DD	00H
	DD	00H
	DD	FLAT:??_R0?AV?$CEncrypt@H@@@8
	DD	FLAT:??_R3?$CEncrypt@H@@8
rdata$r	ENDS
;	COMDAT ??_7?$CEncrypt@H@@6B@
CONST	SEGMENT
??_7?$CEncrypt@H@@6B@ DD FLAT:??_R4?$CEncrypt@H@@6B@	; CEncrypt<int>::`vftable'
	DD	FLAT:??_E?$CEncrypt@H@@UAEPAXI@Z
; Function compile flags: /Ogsp
CONST	ENDS
;	COMDAT ??1?$CEncrypt@H@@UAE@XZ
_TEXT	SEGMENT
??1?$CEncrypt@H@@UAE@XZ PROC				; CEncrypt<int>::~CEncrypt<int>, COMDAT
; _this$ = ecx

; 127  : 	{

  00000	c7 01 00 00 00
	00		 mov	 DWORD PTR [ecx], OFFSET ??_7?$CEncrypt@H@@6B@

; 128  : 	}

  00006	83 c1 0c	 add	 ecx, 12			; 0000000cH
  00009	e9 00 00 00 00	 jmp	 ??1ccddaabb@@UAE@XZ	; ccddaabb::~ccddaabb
??1?$CEncrypt@H@@UAE@XZ ENDP				; CEncrypt<int>::~CEncrypt<int>
; Function compile flags: /Ogsp
_TEXT	ENDS
;	COMDAT ??_G?$CEncrypt@M@@UAEPAXI@Z
_TEXT	SEGMENT
___flags$ = 8						; size = 4
??_G?$CEncrypt@M@@UAEPAXI@Z PROC			; CEncrypt<float>::`scalar deleting destructor', COMDAT
; _this$ = ecx
  00000	55		 push	 ebp
  00001	8b ec		 mov	 ebp, esp
  00003	56		 push	 esi
  00004	8b f1		 mov	 esi, ecx
  00006	8d 4e 0c	 lea	 ecx, DWORD PTR [esi+12]
  00009	c7 06 00 00 00
	00		 mov	 DWORD PTR [esi], OFFSET ??_7?$CEncrypt@M@@6B@
  0000f	e8 00 00 00 00	 call	 ??1ccddaabb@@UAE@XZ	; ccddaabb::~ccddaabb
  00014	f6 45 08 01	 test	 BYTE PTR ___flags$[ebp], 1
  00018	74 07		 je	 SHORT $LN1@scalar@2
  0001a	56		 push	 esi
  0001b	e8 00 00 00 00	 call	 ??3@YAXPAX@Z		; operator delete
  00020	59		 pop	 ecx
$LN1@scalar@2:
  00021	8b c6		 mov	 eax, esi
  00023	5e		 pop	 esi
  00024	5d		 pop	 ebp
  00025	c2 04 00	 ret	 4
??_G?$CEncrypt@M@@UAEPAXI@Z ENDP			; CEncrypt<float>::`scalar deleting destructor'
; Function compile flags: /Ogsp
_TEXT	ENDS
;	COMDAT ??_G?$CEncrypt@H@@UAEPAXI@Z
_TEXT	SEGMENT
___flags$ = 8						; size = 4
??_G?$CEncrypt@H@@UAEPAXI@Z PROC			; CEncrypt<int>::`scalar deleting destructor', COMDAT
; _this$ = ecx
  00000	55		 push	 ebp
  00001	8b ec		 mov	 ebp, esp
  00003	56		 push	 esi
  00004	8b f1		 mov	 esi, ecx
  00006	8d 4e 0c	 lea	 ecx, DWORD PTR [esi+12]
  00009	c7 06 00 00 00
	00		 mov	 DWORD PTR [esi], OFFSET ??_7?$CEncrypt@H@@6B@
  0000f	e8 00 00 00 00	 call	 ??1ccddaabb@@UAE@XZ	; ccddaabb::~ccddaabb
  00014	f6 45 08 01	 test	 BYTE PTR ___flags$[ebp], 1
  00018	74 07		 je	 SHORT $LN1@scalar@3
  0001a	56		 push	 esi
  0001b	e8 00 00 00 00	 call	 ??3@YAXPAX@Z		; operator delete
  00020	59		 pop	 ecx
$LN1@scalar@3:
  00021	8b c6		 mov	 eax, esi
  00023	5e		 pop	 esi
  00024	5d		 pop	 ebp
  00025	c2 04 00	 ret	 4
??_G?$CEncrypt@H@@UAEPAXI@Z ENDP			; CEncrypt<int>::`scalar deleting destructor'
_TEXT	ENDS
PUBLIC	??1?$_Vector_val@UWeaponInfo@@V?$allocator@UWeaponInfo@@@std@@@std@@QAE@XZ ; std::_Vector_val<WeaponInfo,std::allocator<WeaponInfo> >::~_Vector_val<WeaponInfo,std::allocator<WeaponInfo> >
; Function compile flags: /Ogsp
; File c:\program files (x86)\microsoft visual studio 10.0\vc\include\vector
;	COMDAT ??1?$_Vector_val@UWeaponInfo@@V?$allocator@UWeaponInfo@@@std@@@std@@QAE@XZ
_TEXT	SEGMENT
??1?$_Vector_val@UWeaponInfo@@V?$allocator@UWeaponInfo@@@std@@@std@@QAE@XZ PROC ; std::_Vector_val<WeaponInfo,std::allocator<WeaponInfo> >::~_Vector_val<WeaponInfo,std::allocator<WeaponInfo> >, COMDAT
; _this$ = ecx

; 434  : 		}

  00000	c3		 ret	 0
??1?$_Vector_val@UWeaponInfo@@V?$allocator@UWeaponInfo@@@std@@@std@@QAE@XZ ENDP ; std::_Vector_val<WeaponInfo,std::allocator<WeaponInfo> >::~_Vector_val<WeaponInfo,std::allocator<WeaponInfo> >
_TEXT	ENDS
PUBLIC	??0?$allocator@UWeaponInfo@@@std@@QAE@XZ	; std::allocator<WeaponInfo>::allocator<WeaponInfo>
; Function compile flags: /Ogsp
; File c:\program files (x86)\microsoft visual studio 10.0\vc\include\xmemory
;	COMDAT ??0?$allocator@UWeaponInfo@@@std@@QAE@XZ
_TEXT	SEGMENT
??0?$allocator@UWeaponInfo@@@std@@QAE@XZ PROC		; std::allocator<WeaponInfo>::allocator<WeaponInfo>, COMDAT
; _this$ = ecx

; 161  : 	_ALLOCATOR() _THROW0()

  00000	8b c1		 mov	 eax, ecx

; 162  : 		{	// construct default allocator (do nothing)
; 163  : 		}

  00002	c3		 ret	 0
??0?$allocator@UWeaponInfo@@@std@@QAE@XZ ENDP		; std::allocator<WeaponInfo>::allocator<WeaponInfo>
_TEXT	ENDS
PUBLIC	??1?$_Vector_val@UForceInfo@@V?$allocator@UForceInfo@@@std@@@std@@QAE@XZ ; std::_Vector_val<ForceInfo,std::allocator<ForceInfo> >::~_Vector_val<ForceInfo,std::allocator<ForceInfo> >
; Function compile flags: /Ogsp
; File c:\program files (x86)\microsoft visual studio 10.0\vc\include\vector
;	COMDAT ??1?$_Vector_val@UForceInfo@@V?$allocator@UForceInfo@@@std@@@std@@QAE@XZ
_TEXT	SEGMENT
??1?$_Vector_val@UForceInfo@@V?$allocator@UForceInfo@@@std@@@std@@QAE@XZ PROC ; std::_Vector_val<ForceInfo,std::allocator<ForceInfo> >::~_Vector_val<ForceInfo,std::allocator<ForceInfo> >, COMDAT
; _this$ = ecx

; 434  : 		}

  00000	c3		 ret	 0
??1?$_Vector_val@UForceInfo@@V?$allocator@UForceInfo@@@std@@@std@@QAE@XZ ENDP ; std::_Vector_val<ForceInfo,std::allocator<ForceInfo> >::~_Vector_val<ForceInfo,std::allocator<ForceInfo> >
_TEXT	ENDS
PUBLIC	??0?$allocator@UForceInfo@@@std@@QAE@XZ		; std::allocator<ForceInfo>::allocator<ForceInfo>
; Function compile flags: /Ogsp
; File c:\program files (x86)\microsoft visual studio 10.0\vc\include\xmemory
;	COMDAT ??0?$allocator@UForceInfo@@@std@@QAE@XZ
_TEXT	SEGMENT
??0?$allocator@UForceInfo@@@std@@QAE@XZ PROC		; std::allocator<ForceInfo>::allocator<ForceInfo>, COMDAT
; _this$ = ecx

; 161  : 	_ALLOCATOR() _THROW0()

  00000	8b c1		 mov	 eax, ecx

; 162  : 		{	// construct default allocator (do nothing)
; 163  : 		}

  00002	c3		 ret	 0
??0?$allocator@UForceInfo@@@std@@QAE@XZ ENDP		; std::allocator<ForceInfo>::allocator<ForceInfo>
_TEXT	ENDS
PUBLIC	?EncryptValueToPool@?$CEncrypt@M@@AAEXPBD@Z	; CEncrypt<float>::EncryptValueToPool
EXTRN	?EncryptByte@ccddaabb@@QAEXPBDPADH@Z:PROC	; ccddaabb::EncryptByte
; Function compile flags: /Ogsp
; File d:\lost saga for developer\youtube\tutorial\source\src\lsclient\encryptvalue.h
;	COMDAT ?EncryptValueToPool@?$CEncrypt@M@@AAEXPBD@Z
_TEXT	SEGMENT
_value$ = 8						; size = 4
?EncryptValueToPool@?$CEncrypt@M@@AAEXPBD@Z PROC	; CEncrypt<float>::EncryptValueToPool, COMDAT
; _this$ = ecx

; 67   : 	{

  00000	55		 push	 ebp
  00001	8b ec		 mov	 ebp, esp

; 68   : 		m_RC5.EncryptByte( value, m_MemPool, max(m_ValueSize, DEFAULT_ENCRYPT) );

  00003	0f b7 41 06	 movzx	 eax, WORD PTR [ecx+6]
  00007	83 f8 04	 cmp	 eax, 4
  0000a	77 03		 ja	 SHORT $LN4@EncryptVal
  0000c	6a 04		 push	 4
  0000e	58		 pop	 eax
$LN4@EncryptVal:
  0000f	50		 push	 eax
  00010	8d 41 1c	 lea	 eax, DWORD PTR [ecx+28]
  00013	50		 push	 eax
  00014	ff 75 08	 push	 DWORD PTR _value$[ebp]
  00017	83 c1 0c	 add	 ecx, 12			; 0000000cH
  0001a	e8 00 00 00 00	 call	 ?EncryptByte@ccddaabb@@QAEXPBDPADH@Z ; ccddaabb::EncryptByte

; 69   : 		
; 70   : 	}

  0001f	5d		 pop	 ebp
  00020	c2 04 00	 ret	 4
?EncryptValueToPool@?$CEncrypt@M@@AAEXPBD@Z ENDP	; CEncrypt<float>::EncryptValueToPool
_TEXT	ENDS
PUBLIC	?Init@?$CEncrypt@M@@AAEXXZ			; CEncrypt<float>::Init
EXTRN	?Setup@ccddaabb@@QAEXPBDHH@Z:PROC		; ccddaabb::Setup
EXTRN	__imp__rand:PROC
EXTRN	__imp__timeGetTime@0:PROC
EXTRN	__imp__GetCurrentProcessId@0:PROC
; Function compile flags: /Ogsp
;	COMDAT ?Init@?$CEncrypt@M@@AAEXXZ
_TEXT	SEGMENT
_pid$ = -8						; size = 4
_tick$ = -4						; size = 4
?Init@?$CEncrypt@M@@AAEXXZ PROC				; CEncrypt<float>::Init, COMDAT
; _this$ = ecx

; 73   : 	{

  00000	55		 push	 ebp
  00001	8b ec		 mov	 ebp, esp
  00003	51		 push	 ecx
  00004	51		 push	 ecx
  00005	53		 push	 ebx
  00006	56		 push	 esi
  00007	57		 push	 edi
  00008	8b f1		 mov	 esi, ecx

; 74   : 		DWORD pid = GetCurrentProcessId();

  0000a	ff 15 00 00 00
	00		 call	 DWORD PTR __imp__GetCurrentProcessId@0
  00010	89 45 f8	 mov	 DWORD PTR _pid$[ebp], eax

; 75   : 		DWORD tick = timeGetTime();

  00013	ff 15 00 00 00
	00		 call	 DWORD PTR __imp__timeGetTime@0

; 76   : 		m_ValueSize    = sizeof(type);
; 77   : 		m_MemPoolPos   = (unsigned short)( rand()+pid+tick )%(MAX_MEM_POOL-m_ValueSize);

  00019	8b 3d 00 00 00
	00		 mov	 edi, DWORD PTR __imp__rand
  0001f	89 45 fc	 mov	 DWORD PTR _tick$[ebp], eax
  00022	6a 04		 push	 4
  00024	58		 pop	 eax
  00025	66 89 46 06	 mov	 WORD PTR [esi+6], ax
  00029	ff d7		 call	 edi
  0002b	03 45 f8	 add	 eax, DWORD PTR _pid$[ebp]
  0002e	0f b7 4e 06	 movzx	 ecx, WORD PTR [esi+6]
  00032	03 45 fc	 add	 eax, DWORD PTR _tick$[ebp]
  00035	6a 0c		 push	 12			; 0000000cH
  00037	0f b7 c0	 movzx	 eax, ax
  0003a	5b		 pop	 ebx
  0003b	99		 cdq
  0003c	2b d9		 sub	 ebx, ecx
  0003e	f7 fb		 idiv	 ebx
  00040	66 89 56 04	 mov	 WORD PTR [esi+4], dx

; 78   : 		m_EncryptSeed  = (char)( rand()+pid+tick )%256;

  00044	ff d7		 call	 edi
  00046	02 45 f8	 add	 al, BYTE PTR _pid$[ebp]
  00049	02 45 fc	 add	 al, BYTE PTR _tick$[ebp]
  0004c	0f be c0	 movsx	 eax, al
  0004f	25 ff 00 00 80	 and	 eax, -2147483393	; 800000ffH
  00054	79 07		 jns	 SHORT $LN8@Init
  00056	48		 dec	 eax
  00057	0d 00 ff ff ff	 or	 eax, -256		; ffffff00H
  0005c	40		 inc	 eax
$LN8@Init:
  0005d	88 46 08	 mov	 BYTE PTR [esi+8], al

; 79   : 
; 80   : 		for (int i = 0; i < MAX_MEM_POOL ; i++)

  00060	33 db		 xor	 ebx, ebx
$LL3@Init:

; 81   : 			m_MemPool[i] = (char)( rand()+pid+tick )%256; // 

  00062	ff d7		 call	 edi
  00064	02 45 f8	 add	 al, BYTE PTR _pid$[ebp]
  00067	02 45 fc	 add	 al, BYTE PTR _tick$[ebp]
  0006a	0f be c0	 movsx	 eax, al
  0006d	25 ff 00 00 80	 and	 eax, -2147483393	; 800000ffH
  00072	79 07		 jns	 SHORT $LN9@Init
  00074	48		 dec	 eax
  00075	0d 00 ff ff ff	 or	 eax, -256		; ffffff00H
  0007a	40		 inc	 eax
$LN9@Init:
  0007b	88 44 1e 1c	 mov	 BYTE PTR [esi+ebx+28], al
  0007f	43		 inc	 ebx
  00080	83 fb 0c	 cmp	 ebx, 12			; 0000000cH
  00083	7c dd		 jl	 SHORT $LL3@Init

; 82   : 
; 83   : 		//UJ 130913, : szKey  
; 84   : 		//char szKey[ccddaabb::KEY_SIZE];//="";
; 85   : 		//for (int i = 0; i < ccddaabb::KEY_SIZE  ; i++)
; 86   : 		//	szKey[i] = (char)( rand()+pid+tick )%256; // 
; 87   : 		m_RC5.Setup( NULL, pid, tick );

  00085	ff 75 fc	 push	 DWORD PTR _tick$[ebp]
  00088	8d 4e 0c	 lea	 ecx, DWORD PTR [esi+12]
  0008b	ff 75 f8	 push	 DWORD PTR _pid$[ebp]
  0008e	6a 00		 push	 0
  00090	e8 00 00 00 00	 call	 ?Setup@ccddaabb@@QAEXPBDHH@Z ; ccddaabb::Setup
  00095	5f		 pop	 edi
  00096	5e		 pop	 esi
  00097	5b		 pop	 ebx

; 88   : 
; 89   : #ifdef _NOTUSE
; 90   : 		m_value        = 0;
; 91   : 		EncryptValueToPool((char*)&m_value);
; 92   : 		Debug();
; 93   : #endif
; 94   : 	}

  00098	c9		 leave
  00099	c3		 ret	 0
?Init@?$CEncrypt@M@@AAEXXZ ENDP				; CEncrypt<float>::Init
_TEXT	ENDS
PUBLIC	?DecryptValueToPool@?$CEncrypt@M@@QAEXPAM@Z	; CEncrypt<float>::DecryptValueToPool
EXTRN	?DecryptByte@ccddaabb@@QBEXPBDPADH@Z:PROC	; ccddaabb::DecryptByte
; Function compile flags: /Ogsp
;	COMDAT ?DecryptValueToPool@?$CEncrypt@M@@QAEXPAM@Z
_TEXT	SEGMENT
_value$ = 8						; size = 4
?DecryptValueToPool@?$CEncrypt@M@@QAEXPAM@Z PROC	; CEncrypt<float>::DecryptValueToPool, COMDAT
; _this$ = ecx

; 1648 : 	{

  00000	55		 push	 ebp
  00001	8b ec		 mov	 ebp, esp
  00003	56		 push	 esi

; 1649 : 		m_RC5.DecryptByte( m_MemPool, m_TempMem, 4 );

  00004	8d 71 28	 lea	 esi, DWORD PTR [ecx+40]
  00007	6a 04		 push	 4
  00009	8d 41 1c	 lea	 eax, DWORD PTR [ecx+28]
  0000c	56		 push	 esi
  0000d	50		 push	 eax
  0000e	83 c1 0c	 add	 ecx, 12			; 0000000cH
  00011	e8 00 00 00 00	 call	 ?DecryptByte@ccddaabb@@QBEXPBDPADH@Z ; ccddaabb::DecryptByte

; 1650 : 		*value = *((float*)m_TempMem);

  00016	d9 06		 fld	 DWORD PTR [esi]
  00018	8b 45 08	 mov	 eax, DWORD PTR _value$[ebp]
  0001b	d9 18		 fstp	 DWORD PTR [eax]
  0001d	5e		 pop	 esi

; 1651 : 	}

  0001e	5d		 pop	 ebp
  0001f	c2 04 00	 ret	 4
?DecryptValueToPool@?$CEncrypt@M@@QAEXPAM@Z ENDP	; CEncrypt<float>::DecryptValueToPool
_TEXT	ENDS
PUBLIC	?EncryptValueToPool@?$CEncrypt@K@@AAEXPBD@Z	; CEncrypt<unsigned long>::EncryptValueToPool
; Function compile flags: /Ogsp
;	COMDAT ?EncryptValueToPool@?$CEncrypt@K@@AAEXPBD@Z
_TEXT	SEGMENT
_value$ = 8						; size = 4
?EncryptValueToPool@?$CEncrypt@K@@AAEXPBD@Z PROC	; CEncrypt<unsigned long>::EncryptValueToPool, COMDAT
; _this$ = ecx

; 67   : 	{

  00000	55		 push	 ebp
  00001	8b ec		 mov	 ebp, esp

; 68   : 		m_RC5.EncryptByte( value, m_MemPool, max(m_ValueSize, DEFAULT_ENCRYPT) );

  00003	0f b7 41 06	 movzx	 eax, WORD PTR [ecx+6]
  00007	83 f8 04	 cmp	 eax, 4
  0000a	77 03		 ja	 SHORT $LN4@EncryptVal@2
  0000c	6a 04		 push	 4
  0000e	58		 pop	 eax
$LN4@EncryptVal@2:
  0000f	50		 push	 eax
  00010	8d 41 1c	 lea	 eax, DWORD PTR [ecx+28]
  00013	50		 push	 eax
  00014	ff 75 08	 push	 DWORD PTR _value$[ebp]
  00017	83 c1 0c	 add	 ecx, 12			; 0000000cH
  0001a	e8 00 00 00 00	 call	 ?EncryptByte@ccddaabb@@QAEXPBDPADH@Z ; ccddaabb::EncryptByte

; 69   : 		
; 70   : 	}

  0001f	5d		 pop	 ebp
  00020	c2 04 00	 ret	 4
?EncryptValueToPool@?$CEncrypt@K@@AAEXPBD@Z ENDP	; CEncrypt<unsigned long>::EncryptValueToPool
_TEXT	ENDS
PUBLIC	?DecryptValueToPool@?$CEncrypt@K@@QAEXPAK@Z	; CEncrypt<unsigned long>::DecryptValueToPool
; Function compile flags: /Ogsp
;	COMDAT ?DecryptValueToPool@?$CEncrypt@K@@QAEXPAK@Z
_TEXT	SEGMENT
_value$ = 8						; size = 4
?DecryptValueToPool@?$CEncrypt@K@@QAEXPAK@Z PROC	; CEncrypt<unsigned long>::DecryptValueToPool, COMDAT
; _this$ = ecx

; 1256 : 	{

  00000	55		 push	 ebp
  00001	8b ec		 mov	 ebp, esp
  00003	56		 push	 esi

; 1257 : 		m_RC5.DecryptByte( m_MemPool, m_TempMem, 4 );

  00004	8d 71 28	 lea	 esi, DWORD PTR [ecx+40]
  00007	6a 04		 push	 4
  00009	8d 41 1c	 lea	 eax, DWORD PTR [ecx+28]
  0000c	56		 push	 esi
  0000d	50		 push	 eax
  0000e	83 c1 0c	 add	 ecx, 12			; 0000000cH
  00011	e8 00 00 00 00	 call	 ?DecryptByte@ccddaabb@@QBEXPBDPADH@Z ; ccddaabb::DecryptByte

; 1258 : 		*value = *((DWORD*)m_TempMem);

  00016	8b 06		 mov	 eax, DWORD PTR [esi]
  00018	8b 4d 08	 mov	 ecx, DWORD PTR _value$[ebp]
  0001b	89 01		 mov	 DWORD PTR [ecx], eax
  0001d	5e		 pop	 esi

; 1259 : 	}

  0001e	5d		 pop	 ebp
  0001f	c2 04 00	 ret	 4
?DecryptValueToPool@?$CEncrypt@K@@QAEXPAK@Z ENDP	; CEncrypt<unsigned long>::DecryptValueToPool
_TEXT	ENDS
PUBLIC	?EncryptValueToPool@?$CEncrypt@_N@@AAEXPBD@Z	; CEncrypt<bool>::EncryptValueToPool
; Function compile flags: /Ogsp
;	COMDAT ?EncryptValueToPool@?$CEncrypt@_N@@AAEXPBD@Z
_TEXT	SEGMENT
_value$ = 8						; size = 4
?EncryptValueToPool@?$CEncrypt@_N@@AAEXPBD@Z PROC	; CEncrypt<bool>::EncryptValueToPool, COMDAT
; _this$ = ecx

; 67   : 	{

  00000	55		 push	 ebp
  00001	8b ec		 mov	 ebp, esp

; 68   : 		m_RC5.EncryptByte( value, m_MemPool, max(m_ValueSize, DEFAULT_ENCRYPT) );

  00003	0f b7 41 06	 movzx	 eax, WORD PTR [ecx+6]
  00007	83 f8 04	 cmp	 eax, 4
  0000a	77 03		 ja	 SHORT $LN4@EncryptVal@3
  0000c	6a 04		 push	 4
  0000e	58		 pop	 eax
$LN4@EncryptVal@3:
  0000f	50		 push	 eax
  00010	8d 41 1c	 lea	 eax, DWORD PTR [ecx+28]
  00013	50		 push	 eax
  00014	ff 75 08	 push	 DWORD PTR _value$[ebp]
  00017	83 c1 0c	 add	 ecx, 12			; 0000000cH
  0001a	e8 00 00 00 00	 call	 ?EncryptByte@ccddaabb@@QAEXPBDPADH@Z ; ccddaabb::EncryptByte

; 69   : 		
; 70   : 	}

  0001f	5d		 pop	 ebp
  00020	c2 04 00	 ret	 4
?EncryptValueToPool@?$CEncrypt@_N@@AAEXPBD@Z ENDP	; CEncrypt<bool>::EncryptValueToPool
_TEXT	ENDS
PUBLIC	?EncryptValueToPool@?$CEncrypt@H@@AAEXPBD@Z	; CEncrypt<int>::EncryptValueToPool
; Function compile flags: /Ogsp
;	COMDAT ?EncryptValueToPool@?$CEncrypt@H@@AAEXPBD@Z
_TEXT	SEGMENT
_value$ = 8						; size = 4
?EncryptValueToPool@?$CEncrypt@H@@AAEXPBD@Z PROC	; CEncrypt<int>::EncryptValueToPool, COMDAT
; _this$ = ecx

; 67   : 	{

  00000	55		 push	 ebp
  00001	8b ec		 mov	 ebp, esp

; 68   : 		m_RC5.EncryptByte( value, m_MemPool, max(m_ValueSize, DEFAULT_ENCRYPT) );

  00003	0f b7 41 06	 movzx	 eax, WORD PTR [ecx+6]
  00007	83 f8 04	 cmp	 eax, 4
  0000a	77 03		 ja	 SHORT $LN4@EncryptVal@4
  0000c	6a 04		 push	 4
  0000e	58		 pop	 eax
$LN4@EncryptVal@4:
  0000f	50		 push	 eax
  00010	8d 41 1c	 lea	 eax, DWORD PTR [ecx+28]
  00013	50		 push	 eax
  00014	ff 75 08	 push	 DWORD PTR _value$[ebp]
  00017	83 c1 0c	 add	 ecx, 12			; 0000000cH
  0001a	e8 00 00 00 00	 call	 ?EncryptByte@ccddaabb@@QAEXPBDPADH@Z ; ccddaabb::EncryptByte

; 69   : 		
; 70   : 	}

  0001f	5d		 pop	 ebp
  00020	c2 04 00	 ret	 4
?EncryptValueToPool@?$CEncrypt@H@@AAEXPBD@Z ENDP	; CEncrypt<int>::EncryptValueToPool
_TEXT	ENDS
PUBLIC	?Init@?$CEncrypt@H@@AAEXXZ			; CEncrypt<int>::Init
; Function compile flags: /Ogsp
;	COMDAT ?Init@?$CEncrypt@H@@AAEXXZ
_TEXT	SEGMENT
_pid$ = -8						; size = 4
_tick$ = -4						; size = 4
?Init@?$CEncrypt@H@@AAEXXZ PROC				; CEncrypt<int>::Init, COMDAT
; _this$ = ecx

; 73   : 	{

  00000	55		 push	 ebp
  00001	8b ec		 mov	 ebp, esp
  00003	51		 push	 ecx
  00004	51		 push	 ecx
  00005	53		 push	 ebx
  00006	56		 push	 esi
  00007	57		 push	 edi
  00008	8b f1		 mov	 esi, ecx

; 74   : 		DWORD pid = GetCurrentProcessId();

  0000a	ff 15 00 00 00
	00		 call	 DWORD PTR __imp__GetCurrentProcessId@0
  00010	89 45 f8	 mov	 DWORD PTR _pid$[ebp], eax

; 75   : 		DWORD tick = timeGetTime();

  00013	ff 15 00 00 00
	00		 call	 DWORD PTR __imp__timeGetTime@0

; 76   : 		m_ValueSize    = sizeof(type);
; 77   : 		m_MemPoolPos   = (unsigned short)( rand()+pid+tick )%(MAX_MEM_POOL-m_ValueSize);

  00019	8b 3d 00 00 00
	00		 mov	 edi, DWORD PTR __imp__rand
  0001f	89 45 fc	 mov	 DWORD PTR _tick$[ebp], eax
  00022	6a 04		 push	 4
  00024	58		 pop	 eax
  00025	66 89 46 06	 mov	 WORD PTR [esi+6], ax
  00029	ff d7		 call	 edi
  0002b	03 45 f8	 add	 eax, DWORD PTR _pid$[ebp]
  0002e	0f b7 4e 06	 movzx	 ecx, WORD PTR [esi+6]
  00032	03 45 fc	 add	 eax, DWORD PTR _tick$[ebp]
  00035	6a 0c		 push	 12			; 0000000cH
  00037	0f b7 c0	 movzx	 eax, ax
  0003a	5b		 pop	 ebx
  0003b	99		 cdq
  0003c	2b d9		 sub	 ebx, ecx
  0003e	f7 fb		 idiv	 ebx
  00040	66 89 56 04	 mov	 WORD PTR [esi+4], dx

; 78   : 		m_EncryptSeed  = (char)( rand()+pid+tick )%256;

  00044	ff d7		 call	 edi
  00046	02 45 f8	 add	 al, BYTE PTR _pid$[ebp]
  00049	02 45 fc	 add	 al, BYTE PTR _tick$[ebp]
  0004c	0f be c0	 movsx	 eax, al
  0004f	25 ff 00 00 80	 and	 eax, -2147483393	; 800000ffH
  00054	79 07		 jns	 SHORT $LN8@Init@2
  00056	48		 dec	 eax
  00057	0d 00 ff ff ff	 or	 eax, -256		; ffffff00H
  0005c	40		 inc	 eax
$LN8@Init@2:
  0005d	88 46 08	 mov	 BYTE PTR [esi+8], al

; 79   : 
; 80   : 		for (int i = 0; i < MAX_MEM_POOL ; i++)

  00060	33 db		 xor	 ebx, ebx
$LL3@Init@2:

; 81   : 			m_MemPool[i] = (char)( rand()+pid+tick )%256; // 

  00062	ff d7		 call	 edi
  00064	02 45 f8	 add	 al, BYTE PTR _pid$[ebp]
  00067	02 45 fc	 add	 al, BYTE PTR _tick$[ebp]
  0006a	0f be c0	 movsx	 eax, al
  0006d	25 ff 00 00 80	 and	 eax, -2147483393	; 800000ffH
  00072	79 07		 jns	 SHORT $LN9@Init@2
  00074	48		 dec	 eax
  00075	0d 00 ff ff ff	 or	 eax, -256		; ffffff00H
  0007a	40		 inc	 eax
$LN9@Init@2:
  0007b	88 44 1e 1c	 mov	 BYTE PTR [esi+ebx+28], al
  0007f	43		 inc	 ebx
  00080	83 fb 0c	 cmp	 ebx, 12			; 0000000cH
  00083	7c dd		 jl	 SHORT $LL3@Init@2

; 82   : 
; 83   : 		//UJ 130913, : szKey  
; 84   : 		//char szKey[ccddaabb::KEY_SIZE];//="";
; 85   : 		//for (int i = 0; i < ccddaabb::KEY_SIZE  ; i++)
; 86   : 		//	szKey[i] = (char)( rand()+pid+tick )%256; // 
; 87   : 		m_RC5.Setup( NULL, pid, tick );

  00085	ff 75 fc	 push	 DWORD PTR _tick$[ebp]
  00088	8d 4e 0c	 lea	 ecx, DWORD PTR [esi+12]
  0008b	ff 75 f8	 push	 DWORD PTR _pid$[ebp]
  0008e	6a 00		 push	 0
  00090	e8 00 00 00 00	 call	 ?Setup@ccddaabb@@QAEXPBDHH@Z ; ccddaabb::Setup
  00095	5f		 pop	 edi
  00096	5e		 pop	 esi
  00097	5b		 pop	 ebx

; 88   : 
; 89   : #ifdef _NOTUSE
; 90   : 		m_value        = 0;
; 91   : 		EncryptValueToPool((char*)&m_value);
; 92   : 		Debug();
; 93   : #endif
; 94   : 	}

  00098	c9		 leave
  00099	c3		 ret	 0
?Init@?$CEncrypt@H@@AAEXXZ ENDP				; CEncrypt<int>::Init
_TEXT	ENDS
PUBLIC	?DecryptValueToPool@?$CEncrypt@H@@QAEXPAH@Z	; CEncrypt<int>::DecryptValueToPool
; Function compile flags: /Ogsp
;	COMDAT ?DecryptValueToPool@?$CEncrypt@H@@QAEXPAH@Z
_TEXT	SEGMENT
_value$ = 8						; size = 4
?DecryptValueToPool@?$CEncrypt@H@@QAEXPAH@Z PROC	; CEncrypt<int>::DecryptValueToPool, COMDAT
; _this$ = ecx

; 837  : 	{

  00000	55		 push	 ebp
  00001	8b ec		 mov	 ebp, esp
  00003	56		 push	 esi

; 838  : 		m_RC5.DecryptByte( m_MemPool, m_TempMem, 4 );

  00004	8d 71 28	 lea	 esi, DWORD PTR [ecx+40]
  00007	6a 04		 push	 4
  00009	8d 41 1c	 lea	 eax, DWORD PTR [ecx+28]
  0000c	56		 push	 esi
  0000d	50		 push	 eax
  0000e	83 c1 0c	 add	 ecx, 12			; 0000000cH
  00011	e8 00 00 00 00	 call	 ?DecryptByte@ccddaabb@@QBEXPBDPADH@Z ; ccddaabb::DecryptByte

; 839  : 		*value = *((int*)m_TempMem);

  00016	8b 06		 mov	 eax, DWORD PTR [esi]
  00018	8b 4d 08	 mov	 ecx, DWORD PTR _value$[ebp]
  0001b	89 01		 mov	 DWORD PTR [ecx], eax
  0001d	5e		 pop	 esi

; 840  : 	}

  0001e	5d		 pop	 ebp
  0001f	c2 04 00	 ret	 4
?DecryptValueToPool@?$CEncrypt@H@@QAEXPAH@Z ENDP	; CEncrypt<int>::DecryptValueToPool
_TEXT	ENDS
PUBLIC	??0?$allocator@UWeaponInfo@@@std@@QAE@ABV01@@Z	; std::allocator<WeaponInfo>::allocator<WeaponInfo>
; Function compile flags: /Ogsp
; File c:\program files (x86)\microsoft visual studio 10.0\vc\include\xmemory
;	COMDAT ??0?$allocator@UWeaponInfo@@@std@@QAE@ABV01@@Z
_TEXT	SEGMENT
___formal$ = 8						; size = 4
??0?$allocator@UWeaponInfo@@@std@@QAE@ABV01@@Z PROC	; std::allocator<WeaponInfo>::allocator<WeaponInfo>, COMDAT
; _this$ = ecx

; 165  : 	_ALLOCATOR(const _ALLOCATOR<_Ty>&) _THROW0()

  00000	8b c1		 mov	 eax, ecx

; 166  : 		{	// construct by copying (do nothing)
; 167  : 		}

  00002	c2 04 00	 ret	 4
??0?$allocator@UWeaponInfo@@@std@@QAE@ABV01@@Z ENDP	; std::allocator<WeaponInfo>::allocator<WeaponInfo>
_TEXT	ENDS
PUBLIC	?deallocate@?$allocator@UWeaponInfo@@@std@@QAEXPAUWeaponInfo@@I@Z ; std::allocator<WeaponInfo>::deallocate
; Function compile flags: /Ogsp
;	COMDAT ?deallocate@?$allocator@UWeaponInfo@@@std@@QAEXPAUWeaponInfo@@I@Z
_TEXT	SEGMENT
__Ptr$ = 8						; size = 4
___formal$ = 12						; size = 4
?deallocate@?$allocator@UWeaponInfo@@@std@@QAEXPAUWeaponInfo@@I@Z PROC ; std::allocator<WeaponInfo>::deallocate, COMDAT
; _this$ = ecx

; 181  : 		{	// deallocate object at _Ptr, ignore size

  00000	55		 push	 ebp
  00001	8b ec		 mov	 ebp, esp

; 182  : 		::operator delete(_Ptr);

  00003	ff 75 08	 push	 DWORD PTR __Ptr$[ebp]
  00006	e8 00 00 00 00	 call	 ??3@YAXPAX@Z		; operator delete
  0000b	59		 pop	 ecx

; 183  : 		}

  0000c	5d		 pop	 ebp
  0000d	c2 08 00	 ret	 8
?deallocate@?$allocator@UWeaponInfo@@@std@@QAEXPAUWeaponInfo@@I@Z ENDP ; std::allocator<WeaponInfo>::deallocate
_TEXT	ENDS
PUBLIC	??0?$allocator@UForceInfo@@@std@@QAE@ABV01@@Z	; std::allocator<ForceInfo>::allocator<ForceInfo>
; Function compile flags: /Ogsp
;	COMDAT ??0?$allocator@UForceInfo@@@std@@QAE@ABV01@@Z
_TEXT	SEGMENT
___formal$ = 8						; size = 4
??0?$allocator@UForceInfo@@@std@@QAE@ABV01@@Z PROC	; std::allocator<ForceInfo>::allocator<ForceInfo>, COMDAT
; _this$ = ecx

; 165  : 	_ALLOCATOR(const _ALLOCATOR<_Ty>&) _THROW0()

  00000	8b c1		 mov	 eax, ecx

; 166  : 		{	// construct by copying (do nothing)
; 167  : 		}

  00002	c2 04 00	 ret	 4
??0?$allocator@UForceInfo@@@std@@QAE@ABV01@@Z ENDP	; std::allocator<ForceInfo>::allocator<ForceInfo>
_TEXT	ENDS
PUBLIC	?deallocate@?$allocator@UForceInfo@@@std@@QAEXPAUForceInfo@@I@Z ; std::allocator<ForceInfo>::deallocate
; Function compile flags: /Ogsp
;	COMDAT ?deallocate@?$allocator@UForceInfo@@@std@@QAEXPAUForceInfo@@I@Z
_TEXT	SEGMENT
__Ptr$ = 8						; size = 4
___formal$ = 12						; size = 4
?deallocate@?$allocator@UForceInfo@@@std@@QAEXPAUForceInfo@@I@Z PROC ; std::allocator<ForceInfo>::deallocate, COMDAT
; _this$ = ecx

; 181  : 		{	// deallocate object at _Ptr, ignore size

  00000	55		 push	 ebp
  00001	8b ec		 mov	 ebp, esp

; 182  : 		::operator delete(_Ptr);

  00003	ff 75 08	 push	 DWORD PTR __Ptr$[ebp]
  00006	e8 00 00 00 00	 call	 ??3@YAXPAX@Z		; operator delete
  0000b	59		 pop	 ecx

; 183  : 		}

  0000c	5d		 pop	 ebp
  0000d	c2 08 00	 ret	 8
?deallocate@?$allocator@UForceInfo@@@std@@QAEXPAUForceInfo@@I@Z ENDP ; std::allocator<ForceInfo>::deallocate
_TEXT	ENDS
EXTRN	__imp_??0exception@std@@QAE@ABV01@@Z:PROC
; Function compile flags: /Ogsp
;	COMDAT ??0bad_alloc@std@@QAE@ABV01@@Z
_TEXT	SEGMENT
___that$ = 8						; size = 4
??0bad_alloc@std@@QAE@ABV01@@Z PROC			; std::bad_alloc::bad_alloc, COMDAT
; _this$ = ecx
  00000	55		 push	 ebp
  00001	8b ec		 mov	 ebp, esp
  00003	56		 push	 esi
  00004	ff 75 08	 push	 DWORD PTR ___that$[ebp]
  00007	8b f1		 mov	 esi, ecx
  00009	ff 15 00 00 00
	00		 call	 DWORD PTR __imp_??0exception@std@@QAE@ABV01@@Z
  0000f	c7 06 00 00 00
	00		 mov	 DWORD PTR [esi], OFFSET ??_7bad_alloc@std@@6B@
  00015	8b c6		 mov	 eax, esi
  00017	5e		 pop	 esi
  00018	5d		 pop	 ebp
  00019	c2 04 00	 ret	 4
??0bad_alloc@std@@QAE@ABV01@@Z ENDP			; std::bad_alloc::bad_alloc
_TEXT	ENDS
PUBLIC	??$_Ptr_cat@UWeaponInfo@@U1@@std@@YA?AU_Nonscalar_ptr_iterator_tag@0@PAUWeaponInfo@@0@Z ; std::_Ptr_cat<WeaponInfo,WeaponInfo>
; Function compile flags: /Ogsp
; File c:\program files (x86)\microsoft visual studio 10.0\vc\include\xutility
;	COMDAT ??$_Ptr_cat@UWeaponInfo@@U1@@std@@YA?AU_Nonscalar_ptr_iterator_tag@0@PAUWeaponInfo@@0@Z
_TEXT	SEGMENT
__Cat$ = -1						; size = 1
___formal$ = 8						; size = 4
___formal$ = 12						; size = 4
??$_Ptr_cat@UWeaponInfo@@U1@@std@@YA?AU_Nonscalar_ptr_iterator_tag@0@PAUWeaponInfo@@0@Z PROC ; std::_Ptr_cat<WeaponInfo,WeaponInfo>, COMDAT

; 516  : 	{	// return pointer category from pointers

  00000	55		 push	 ebp
  00001	8b ec		 mov	 ebp, esp
  00003	51		 push	 ecx

; 517  : 	typename _Ptr_cat_helper<_Elem1, _Elem2>::_Type _Cat;
; 518  : 	return (_Cat);

  00004	8a 45 ff	 mov	 al, BYTE PTR __Cat$[ebp]

; 519  : 	}

  00007	c9		 leave
  00008	c3		 ret	 0
??$_Ptr_cat@UWeaponInfo@@U1@@std@@YA?AU_Nonscalar_ptr_iterator_tag@0@PAUWeaponInfo@@0@Z ENDP ; std::_Ptr_cat<WeaponInfo,WeaponInfo>
_TEXT	ENDS
PUBLIC	??$_Ptr_cat@UForceInfo@@U1@@std@@YA?AU_Nonscalar_ptr_iterator_tag@0@PAUForceInfo@@0@Z ; std::_Ptr_cat<ForceInfo,ForceInfo>
; Function compile flags: /Ogsp
;	COMDAT ??$_Ptr_cat@UForceInfo@@U1@@std@@YA?AU_Nonscalar_ptr_iterator_tag@0@PAUForceInfo@@0@Z
_TEXT	SEGMENT
__Cat$ = -1						; size = 1
___formal$ = 8						; size = 4
___formal$ = 12						; size = 4
??$_Ptr_cat@UForceInfo@@U1@@std@@YA?AU_Nonscalar_ptr_iterator_tag@0@PAUForceInfo@@0@Z PROC ; std::_Ptr_cat<ForceInfo,ForceInfo>, COMDAT

; 516  : 	{	// return pointer category from pointers

  00000	55		 push	 ebp
  00001	8b ec		 mov	 ebp, esp
  00003	51		 push	 ecx

; 517  : 	typename _Ptr_cat_helper<_Elem1, _Elem2>::_Type _Cat;
; 518  : 	return (_Cat);

  00004	8a 45 ff	 mov	 al, BYTE PTR __Cat$[ebp]

; 519  : 	}

  00007	c9		 leave
  00008	c3		 ret	 0
??$_Ptr_cat@UForceInfo@@U1@@std@@YA?AU_Nonscalar_ptr_iterator_tag@0@PAUForceInfo@@0@Z ENDP ; std::_Ptr_cat<ForceInfo,ForceInfo>
_TEXT	ENDS
PUBLIC	?capacity@?$vector@UWeaponInfo@@V?$allocator@UWeaponInfo@@@std@@@std@@QBEIXZ ; std::vector<WeaponInfo,std::allocator<WeaponInfo> >::capacity
; Function compile flags: /Ogsp
; File c:\program files (x86)\microsoft visual studio 10.0\vc\include\vector
;	COMDAT ?capacity@?$vector@UWeaponInfo@@V?$allocator@UWeaponInfo@@@std@@@std@@QBEIXZ
_TEXT	SEGMENT
?capacity@?$vector@UWeaponInfo@@V?$allocator@UWeaponInfo@@@std@@@std@@QBEIXZ PROC ; std::vector<WeaponInfo,std::allocator<WeaponInfo> >::capacity, COMDAT
; _this$ = ecx

; 777  : 		return (this->_Myend - this->_Myfirst);

  00000	8b 41 08	 mov	 eax, DWORD PTR [ecx+8]
  00003	2b 01		 sub	 eax, DWORD PTR [ecx]
  00005	6a 28		 push	 40			; 00000028H
  00007	99		 cdq
  00008	59		 pop	 ecx
  00009	f7 f9		 idiv	 ecx

; 778  : 		}

  0000b	c3		 ret	 0
?capacity@?$vector@UWeaponInfo@@V?$allocator@UWeaponInfo@@@std@@@std@@QBEIXZ ENDP ; std::vector<WeaponInfo,std::allocator<WeaponInfo> >::capacity
_TEXT	ENDS
PUBLIC	?size@?$vector@UWeaponInfo@@V?$allocator@UWeaponInfo@@@std@@@std@@QBEIXZ ; std::vector<WeaponInfo,std::allocator<WeaponInfo> >::size
; Function compile flags: /Ogsp
;	COMDAT ?size@?$vector@UWeaponInfo@@V?$allocator@UWeaponInfo@@@std@@@std@@QBEIXZ
_TEXT	SEGMENT
?size@?$vector@UWeaponInfo@@V?$allocator@UWeaponInfo@@@std@@@std@@QBEIXZ PROC ; std::vector<WeaponInfo,std::allocator<WeaponInfo> >::size, COMDAT
; _this$ = ecx

; 879  : 		return (this->_Mylast - this->_Myfirst);

  00000	8b 41 04	 mov	 eax, DWORD PTR [ecx+4]
  00003	2b 01		 sub	 eax, DWORD PTR [ecx]
  00005	6a 28		 push	 40			; 00000028H
  00007	99		 cdq
  00008	59		 pop	 ecx
  00009	f7 f9		 idiv	 ecx

; 880  : 		}

  0000b	c3		 ret	 0
?size@?$vector@UWeaponInfo@@V?$allocator@UWeaponInfo@@@std@@@std@@QBEIXZ ENDP ; std::vector<WeaponInfo,std::allocator<WeaponInfo> >::size
_TEXT	ENDS
PUBLIC	?capacity@?$vector@UForceInfo@@V?$allocator@UForceInfo@@@std@@@std@@QBEIXZ ; std::vector<ForceInfo,std::allocator<ForceInfo> >::capacity
; Function compile flags: /Ogsp
;	COMDAT ?capacity@?$vector@UForceInfo@@V?$allocator@UForceInfo@@@std@@@std@@QBEIXZ
_TEXT	SEGMENT
?capacity@?$vector@UForceInfo@@V?$allocator@UForceInfo@@@std@@@std@@QBEIXZ PROC ; std::vector<ForceInfo,std::allocator<ForceInfo> >::capacity, COMDAT
; _this$ = ecx

; 777  : 		return (this->_Myend - this->_Myfirst);

  00000	8b 41 08	 mov	 eax, DWORD PTR [ecx+8]
  00003	2b 01		 sub	 eax, DWORD PTR [ecx]
  00005	6a 0c		 push	 12			; 0000000cH
  00007	99		 cdq
  00008	59		 pop	 ecx
  00009	f7 f9		 idiv	 ecx

; 778  : 		}

  0000b	c3		 ret	 0
?capacity@?$vector@UForceInfo@@V?$allocator@UForceInfo@@@std@@@std@@QBEIXZ ENDP ; std::vector<ForceInfo,std::allocator<ForceInfo> >::capacity
_TEXT	ENDS
PUBLIC	?size@?$vector@UForceInfo@@V?$allocator@UForceInfo@@@std@@@std@@QBEIXZ ; std::vector<ForceInfo,std::allocator<ForceInfo> >::size
; Function compile flags: /Ogsp
;	COMDAT ?size@?$vector@UForceInfo@@V?$allocator@UForceInfo@@@std@@@std@@QBEIXZ
_TEXT	SEGMENT
?size@?$vector@UForceInfo@@V?$allocator@UForceInfo@@@std@@@std@@QBEIXZ PROC ; std::vector<ForceInfo,std::allocator<ForceInfo> >::size, COMDAT
; _this$ = ecx

; 879  : 		return (this->_Mylast - this->_Myfirst);

  00000	8b 41 04	 mov	 eax, DWORD PTR [ecx+4]
  00003	2b 01		 sub	 eax, DWORD PTR [ecx]
  00005	6a 0c		 push	 12			; 0000000cH
  00007	99		 cdq
  00008	59		 pop	 ecx
  00009	f7 f9		 idiv	 ecx

; 880  : 		}

  0000b	c3		 ret	 0
?size@?$vector@UForceInfo@@V?$allocator@UForceInfo@@@std@@@std@@QBEIXZ ENDP ; std::vector<ForceInfo,std::allocator<ForceInfo> >::size
_TEXT	ENDS
PUBLIC	?_Xlen@?$vector@UWeaponInfo@@V?$allocator@UWeaponInfo@@@std@@@std@@IBEXXZ ; std::vector<WeaponInfo,std::allocator<WeaponInfo> >::_Xlen
; Function compile flags: /Ogsp
;	COMDAT ?_Xlen@?$vector@UWeaponInfo@@V?$allocator@UWeaponInfo@@@std@@@std@@IBEXXZ
_TEXT	SEGMENT
?_Xlen@?$vector@UWeaponInfo@@V?$allocator@UWeaponInfo@@@std@@@std@@IBEXXZ PROC ; std::vector<WeaponInfo,std::allocator<WeaponInfo> >::_Xlen, COMDAT
; _this$ = ecx

; 1427 : 		_Xlength_error("vector<T> too long");

  00000	68 00 00 00 00	 push	 OFFSET ??_C@_0BD@OLBABOEK@vector?$DMT?$DO?5too?5long?$AA@
  00005	ff 15 00 00 00
	00		 call	 DWORD PTR __imp_?_Xlength_error@std@@YAXPBD@Z
$LN4@Xlen@2:
$LN3@Xlen@2:
  0000b	cc		 int	 3
?_Xlen@?$vector@UWeaponInfo@@V?$allocator@UWeaponInfo@@@std@@@std@@IBEXXZ ENDP ; std::vector<WeaponInfo,std::allocator<WeaponInfo> >::_Xlen
_TEXT	ENDS
PUBLIC	?_Xlen@?$vector@UForceInfo@@V?$allocator@UForceInfo@@@std@@@std@@IBEXXZ ; std::vector<ForceInfo,std::allocator<ForceInfo> >::_Xlen
; Function compile flags: /Ogsp
;	COMDAT ?_Xlen@?$vector@UForceInfo@@V?$allocator@UForceInfo@@@std@@@std@@IBEXXZ
_TEXT	SEGMENT
?_Xlen@?$vector@UForceInfo@@V?$allocator@UForceInfo@@@std@@@std@@IBEXXZ PROC ; std::vector<ForceInfo,std::allocator<ForceInfo> >::_Xlen, COMDAT
; _this$ = ecx

; 1427 : 		_Xlength_error("vector<T> too long");

  00000	68 00 00 00 00	 push	 OFFSET ??_C@_0BD@OLBABOEK@vector?$DMT?$DO?5too?5long?$AA@
  00005	ff 15 00 00 00
	00		 call	 DWORD PTR __imp_?_Xlength_error@std@@YAXPBD@Z
$LN4@Xlen@3:
$LN3@Xlen@3:
  0000b	cc		 int	 3
?_Xlen@?$vector@UForceInfo@@V?$allocator@UForceInfo@@@std@@@std@@IBEXXZ ENDP ; std::vector<ForceInfo,std::allocator<ForceInfo> >::_Xlen
_TEXT	ENDS
PUBLIC	?max_size@?$allocator@UWeaponInfo@@@std@@QBEIXZ	; std::allocator<WeaponInfo>::max_size
; Function compile flags: /Ogsp
; File c:\program files (x86)\microsoft visual studio 10.0\vc\include\xmemory
;	COMDAT ?max_size@?$allocator@UWeaponInfo@@@std@@QBEIXZ
_TEXT	SEGMENT
?max_size@?$allocator@UWeaponInfo@@@std@@QBEIXZ PROC	; std::allocator<WeaponInfo>::max_size, COMDAT
; _this$ = ecx

; 218  : 		_SIZT _Count = (_SIZT)(-1) / sizeof (_Ty);
; 219  : 		return (0 < _Count ? _Count : 1);

  00000	b8 66 66 66 06	 mov	 eax, 107374182		; 06666666H

; 220  : 		}

  00005	c3		 ret	 0
?max_size@?$allocator@UWeaponInfo@@@std@@QBEIXZ ENDP	; std::allocator<WeaponInfo>::max_size
_TEXT	ENDS
PUBLIC	?max_size@?$allocator@UForceInfo@@@std@@QBEIXZ	; std::allocator<ForceInfo>::max_size
; Function compile flags: /Ogsp
;	COMDAT ?max_size@?$allocator@UForceInfo@@@std@@QBEIXZ
_TEXT	SEGMENT
?max_size@?$allocator@UForceInfo@@@std@@QBEIXZ PROC	; std::allocator<ForceInfo>::max_size, COMDAT
; _this$ = ecx

; 218  : 		_SIZT _Count = (_SIZT)(-1) / sizeof (_Ty);
; 219  : 		return (0 < _Count ? _Count : 1);

  00000	b8 55 55 55 15	 mov	 eax, 357913941		; 15555555H

; 220  : 		}

  00005	c3		 ret	 0
?max_size@?$allocator@UForceInfo@@@std@@QBEIXZ ENDP	; std::allocator<ForceInfo>::max_size
_TEXT	ENDS
PUBLIC	??0?$_Vector_const_iterator@V?$_Vector_val@UWeaponInfo@@V?$allocator@UWeaponInfo@@@std@@@std@@@std@@QAE@PAUWeaponInfo@@PBU_Container_base0@1@@Z ; std::_Vector_const_iterator<std::_Vector_val<WeaponInfo,std::allocator<WeaponInfo> > >::_Vector_const_iterator<std::_Vector_val<WeaponInfo,std::allocator<WeaponInfo> > >
; Function compile flags: /Ogsp
; File c:\program files (x86)\microsoft visual studio 10.0\vc\include\vector
;	COMDAT ??0?$_Vector_const_iterator@V?$_Vector_val@UWeaponInfo@@V?$allocator@UWeaponInfo@@@std@@@std@@@std@@QAE@PAUWeaponInfo@@PBU_Container_base0@1@@Z
_TEXT	SEGMENT
__Parg$ = 8						; size = 4
__Pvector$ = 12						; size = 4
??0?$_Vector_const_iterator@V?$_Vector_val@UWeaponInfo@@V?$allocator@UWeaponInfo@@@std@@@std@@@std@@QAE@PAUWeaponInfo@@PBU_Container_base0@1@@Z PROC ; std::_Vector_const_iterator<std::_Vector_val<WeaponInfo,std::allocator<WeaponInfo> > >::_Vector_const_iterator<std::_Vector_val<WeaponInfo,std::allocator<WeaponInfo> > >, COMDAT
; _this$ = ecx

; 45   : 		{	// construct with pointer _Parg

  00000	55		 push	 ebp
  00001	8b ec		 mov	 ebp, esp
  00003	8b c1		 mov	 eax, ecx
  00005	8b 4d 08	 mov	 ecx, DWORD PTR __Parg$[ebp]
  00008	89 08		 mov	 DWORD PTR [eax], ecx

; 46   : 		this->_Adopt(_Pvector);
; 47   : 		}

  0000a	5d		 pop	 ebp
  0000b	c2 08 00	 ret	 8
??0?$_Vector_const_iterator@V?$_Vector_val@UWeaponInfo@@V?$allocator@UWeaponInfo@@@std@@@std@@@std@@QAE@PAUWeaponInfo@@PBU_Container_base0@1@@Z ENDP ; std::_Vector_const_iterator<std::_Vector_val<WeaponInfo,std::allocator<WeaponInfo> > >::_Vector_const_iterator<std::_Vector_val<WeaponInfo,std::allocator<WeaponInfo> > >
_TEXT	ENDS
PUBLIC	??0?$_Vector_const_iterator@V?$_Vector_val@UForceInfo@@V?$allocator@UForceInfo@@@std@@@std@@@std@@QAE@PAUForceInfo@@PBU_Container_base0@1@@Z ; std::_Vector_const_iterator<std::_Vector_val<ForceInfo,std::allocator<ForceInfo> > >::_Vector_const_iterator<std::_Vector_val<ForceInfo,std::allocator<ForceInfo> > >
; Function compile flags: /Ogsp
;	COMDAT ??0?$_Vector_const_iterator@V?$_Vector_val@UForceInfo@@V?$allocator@UForceInfo@@@std@@@std@@@std@@QAE@PAUForceInfo@@PBU_Container_base0@1@@Z
_TEXT	SEGMENT
__Parg$ = 8						; size = 4
__Pvector$ = 12						; size = 4
??0?$_Vector_const_iterator@V?$_Vector_val@UForceInfo@@V?$allocator@UForceInfo@@@std@@@std@@@std@@QAE@PAUForceInfo@@PBU_Container_base0@1@@Z PROC ; std::_Vector_const_iterator<std::_Vector_val<ForceInfo,std::allocator<ForceInfo> > >::_Vector_const_iterator<std::_Vector_val<ForceInfo,std::allocator<ForceInfo> > >, COMDAT
; _this$ = ecx

; 45   : 		{	// construct with pointer _Parg

  00000	55		 push	 ebp
  00001	8b ec		 mov	 ebp, esp
  00003	8b c1		 mov	 eax, ecx
  00005	8b 4d 08	 mov	 ecx, DWORD PTR __Parg$[ebp]
  00008	89 08		 mov	 DWORD PTR [eax], ecx

; 46   : 		this->_Adopt(_Pvector);
; 47   : 		}

  0000a	5d		 pop	 ebp
  0000b	c2 08 00	 ret	 8
??0?$_Vector_const_iterator@V?$_Vector_val@UForceInfo@@V?$allocator@UForceInfo@@@std@@@std@@@std@@QAE@PAUForceInfo@@PBU_Container_base0@1@@Z ENDP ; std::_Vector_const_iterator<std::_Vector_val<ForceInfo,std::allocator<ForceInfo> > >::_Vector_const_iterator<std::_Vector_val<ForceInfo,std::allocator<ForceInfo> > >
_TEXT	ENDS
PUBLIC	?_Compat@?$_Vector_const_iterator@V?$_Vector_val@UWeaponInfo@@V?$allocator@UWeaponInfo@@@std@@@std@@@std@@QBEXABV12@@Z ; std::_Vector_const_iterator<std::_Vector_val<WeaponInfo,std::allocator<WeaponInfo> > >::_Compat
; Function compile flags: /Ogsp
;	COMDAT ?_Compat@?$_Vector_const_iterator@V?$_Vector_val@UWeaponInfo@@V?$allocator@UWeaponInfo@@@std@@@std@@@std@@QBEXABV12@@Z
_TEXT	SEGMENT
___formal$ = 8						; size = 4
?_Compat@?$_Vector_const_iterator@V?$_Vector_val@UWeaponInfo@@V?$allocator@UWeaponInfo@@@std@@@std@@@std@@QBEXABV12@@Z PROC ; std::_Vector_const_iterator<std::_Vector_val<WeaponInfo,std::allocator<WeaponInfo> > >::_Compat, COMDAT
; _this$ = ecx

; 253  : 		}

  00000	c2 04 00	 ret	 4
?_Compat@?$_Vector_const_iterator@V?$_Vector_val@UWeaponInfo@@V?$allocator@UWeaponInfo@@@std@@@std@@@std@@QBEXABV12@@Z ENDP ; std::_Vector_const_iterator<std::_Vector_val<WeaponInfo,std::allocator<WeaponInfo> > >::_Compat
_TEXT	ENDS
PUBLIC	?_Compat@?$_Vector_const_iterator@V?$_Vector_val@UForceInfo@@V?$allocator@UForceInfo@@@std@@@std@@@std@@QBEXABV12@@Z ; std::_Vector_const_iterator<std::_Vector_val<ForceInfo,std::allocator<ForceInfo> > >::_Compat
; Function compile flags: /Ogsp
;	COMDAT ?_Compat@?$_Vector_const_iterator@V?$_Vector_val@UForceInfo@@V?$allocator@UForceInfo@@@std@@@std@@@std@@QBEXABV12@@Z
_TEXT	SEGMENT
___formal$ = 8						; size = 4
?_Compat@?$_Vector_const_iterator@V?$_Vector_val@UForceInfo@@V?$allocator@UForceInfo@@@std@@@std@@@std@@QBEXABV12@@Z PROC ; std::_Vector_const_iterator<std::_Vector_val<ForceInfo,std::allocator<ForceInfo> > >::_Compat, COMDAT
; _this$ = ecx

; 253  : 		}

  00000	c2 04 00	 ret	 4
?_Compat@?$_Vector_const_iterator@V?$_Vector_val@UForceInfo@@V?$allocator@UForceInfo@@@std@@@std@@@std@@QBEXABV12@@Z ENDP ; std::_Vector_const_iterator<std::_Vector_val<ForceInfo,std::allocator<ForceInfo> > >::_Compat
_TEXT	ENDS
PUBLIC	??$_Allocate@UWeaponInfo@@@std@@YAPAUWeaponInfo@@IPAU1@@Z ; std::_Allocate<WeaponInfo>
; Function compile flags: /Ogsp
; File c:\program files (x86)\microsoft visual studio 10.0\vc\include\xmemory
;	COMDAT ??$_Allocate@UWeaponInfo@@@std@@YAPAUWeaponInfo@@IPAU1@@Z
_TEXT	SEGMENT
$T547716 = -12						; size = 12
$T547720 = 8						; size = 4
__Count$ = 8						; size = 4
___formal$ = 12						; size = 4
??$_Allocate@UWeaponInfo@@@std@@YAPAUWeaponInfo@@IPAU1@@Z PROC ; std::_Allocate<WeaponInfo>, COMDAT

; 30   : 	{	// allocate storage for _Count elements of type _Ty

  00000	55		 push	 ebp
  00001	8b ec		 mov	 ebp, esp

; 31   : 	void *_Ptr = 0;
; 32   : 
; 33   : 	if (_Count <= 0)

  00003	8b 4d 08	 mov	 ecx, DWORD PTR __Count$[ebp]
  00006	83 ec 0c	 sub	 esp, 12			; 0000000cH
  00009	33 c0		 xor	 eax, eax
  0000b	85 c9		 test	 ecx, ecx

; 34   : 		_Count = 0;
; 35   : 	else if (((_SIZT)(-1) / sizeof (_Ty) < _Count)

  0000d	74 3c		 je	 SHORT $LN5@Allocate@2

; 36   : 		|| (_Ptr = ::operator new(_Count * sizeof (_Ty))) == 0)

  0000f	81 f9 66 66 66
	06		 cmp	 ecx, 107374182		; 06666666H
  00015	77 0e		 ja	 SHORT $LN1@Allocate@2
  00017	6b c9 28	 imul	 ecx, 40			; 00000028H
  0001a	51		 push	 ecx
  0001b	e8 00 00 00 00	 call	 ??2@YAPAXI@Z		; operator new
  00020	59		 pop	 ecx
  00021	85 c0		 test	 eax, eax

; 38   : 
; 39   : 	return ((_Ty _FARQ *)_Ptr);

  00023	75 26		 jne	 SHORT $LN5@Allocate@2
$LN1@Allocate@2:

; 37   : 		_THROW_NCEE(bad_alloc, 0);

  00025	83 65 08 00	 and	 DWORD PTR $T547720[ebp], 0
  00029	8d 45 08	 lea	 eax, DWORD PTR $T547720[ebp]
  0002c	50		 push	 eax
  0002d	8d 4d f4	 lea	 ecx, DWORD PTR $T547716[ebp]
  00030	ff 15 00 00 00
	00		 call	 DWORD PTR __imp_??0exception@std@@QAE@ABQBD@Z
  00036	68 00 00 00 00	 push	 OFFSET __TI2?AVbad_alloc@std@@
  0003b	8d 45 f4	 lea	 eax, DWORD PTR $T547716[ebp]
  0003e	50		 push	 eax
  0003f	c7 45 f4 00 00
	00 00		 mov	 DWORD PTR $T547716[ebp], OFFSET ??_7bad_alloc@std@@6B@
  00046	e8 00 00 00 00	 call	 __CxxThrowException@8
$LN10@Allocate@2:
$LN5@Allocate@2:

; 40   : 	}

  0004b	c9		 leave
  0004c	c3		 ret	 0
$LN9@Allocate@2:
??$_Allocate@UWeaponInfo@@@std@@YAPAUWeaponInfo@@IPAU1@@Z ENDP ; std::_Allocate<WeaponInfo>
_TEXT	ENDS
PUBLIC	??$_Allocate@UForceInfo@@@std@@YAPAUForceInfo@@IPAU1@@Z ; std::_Allocate<ForceInfo>
; Function compile flags: /Ogsp
;	COMDAT ??$_Allocate@UForceInfo@@@std@@YAPAUForceInfo@@IPAU1@@Z
_TEXT	SEGMENT
$T547725 = -12						; size = 12
$T547729 = 8						; size = 4
__Count$ = 8						; size = 4
___formal$ = 12						; size = 4
??$_Allocate@UForceInfo@@@std@@YAPAUForceInfo@@IPAU1@@Z PROC ; std::_Allocate<ForceInfo>, COMDAT

; 30   : 	{	// allocate storage for _Count elements of type _Ty

  00000	55		 push	 ebp
  00001	8b ec		 mov	 ebp, esp

; 31   : 	void *_Ptr = 0;
; 32   : 
; 33   : 	if (_Count <= 0)

  00003	8b 4d 08	 mov	 ecx, DWORD PTR __Count$[ebp]
  00006	83 ec 0c	 sub	 esp, 12			; 0000000cH
  00009	33 c0		 xor	 eax, eax
  0000b	85 c9		 test	 ecx, ecx

; 34   : 		_Count = 0;
; 35   : 	else if (((_SIZT)(-1) / sizeof (_Ty) < _Count)

  0000d	74 3c		 je	 SHORT $LN5@Allocate@3

; 36   : 		|| (_Ptr = ::operator new(_Count * sizeof (_Ty))) == 0)

  0000f	81 f9 55 55 55
	15		 cmp	 ecx, 357913941		; 15555555H
  00015	77 0e		 ja	 SHORT $LN1@Allocate@3
  00017	6b c9 0c	 imul	 ecx, 12			; 0000000cH
  0001a	51		 push	 ecx
  0001b	e8 00 00 00 00	 call	 ??2@YAPAXI@Z		; operator new
  00020	59		 pop	 ecx
  00021	85 c0		 test	 eax, eax

; 38   : 
; 39   : 	return ((_Ty _FARQ *)_Ptr);

  00023	75 26		 jne	 SHORT $LN5@Allocate@3
$LN1@Allocate@3:

; 37   : 		_THROW_NCEE(bad_alloc, 0);

  00025	83 65 08 00	 and	 DWORD PTR $T547729[ebp], 0
  00029	8d 45 08	 lea	 eax, DWORD PTR $T547729[ebp]
  0002c	50		 push	 eax
  0002d	8d 4d f4	 lea	 ecx, DWORD PTR $T547725[ebp]
  00030	ff 15 00 00 00
	00		 call	 DWORD PTR __imp_??0exception@std@@QAE@ABQBD@Z
  00036	68 00 00 00 00	 push	 OFFSET __TI2?AVbad_alloc@std@@
  0003b	8d 45 f4	 lea	 eax, DWORD PTR $T547725[ebp]
  0003e	50		 push	 eax
  0003f	c7 45 f4 00 00
	00 00		 mov	 DWORD PTR $T547725[ebp], OFFSET ??_7bad_alloc@std@@6B@
  00046	e8 00 00 00 00	 call	 __CxxThrowException@8
$LN10@Allocate@3:
$LN5@Allocate@3:

; 40   : 	}

  0004b	c9		 leave
  0004c	c3		 ret	 0
$LN9@Allocate@3:
??$_Allocate@UForceInfo@@@std@@YAPAUForceInfo@@IPAU1@@Z ENDP ; std::_Allocate<ForceInfo>
_TEXT	ENDS
PUBLIC	??$_Copy_impl@PAUForceInfo@@PAU1@@std@@YAPAUForceInfo@@PAU1@00U_Nonscalar_ptr_iterator_tag@0@@Z ; std::_Copy_impl<ForceInfo *,ForceInfo *>
; Function compile flags: /Ogsp
; File c:\program files (x86)\microsoft visual studio 10.0\vc\include\xutility
;	COMDAT ??$_Copy_impl@PAUForceInfo@@PAU1@@std@@YAPAUForceInfo@@PAU1@00U_Nonscalar_ptr_iterator_tag@0@@Z
_TEXT	SEGMENT
__First$ = 8						; size = 4
__Last$ = 12						; size = 4
__Dest$ = 16						; size = 4
___formal$ = 20						; size = 1
??$_Copy_impl@PAUForceInfo@@PAU1@@std@@YAPAUForceInfo@@PAU1@00U_Nonscalar_ptr_iterator_tag@0@@Z PROC ; std::_Copy_impl<ForceInfo *,ForceInfo *>, COMDAT

; 2142 : 	{	// copy [_First, _Last) to [_Dest, ...), arbitrary iterators

  00000	55		 push	 ebp
  00001	8b ec		 mov	 ebp, esp

; 2143 : 	for (; _First != _Last; ++_Dest, ++_First)

  00003	8b 45 08	 mov	 eax, DWORD PTR __First$[ebp]
  00006	3b 45 0c	 cmp	 eax, DWORD PTR __Last$[ebp]
  00009	74 18		 je	 SHORT $LN8@Copy_impl
  0000b	56		 push	 esi
  0000c	57		 push	 edi
$LL3@Copy_impl:

; 2144 : 		*_Dest = *_First;

  0000d	8b 7d 10	 mov	 edi, DWORD PTR __Dest$[ebp]
  00010	83 45 10 0c	 add	 DWORD PTR __Dest$[ebp], 12 ; 0000000cH
  00014	8b f0		 mov	 esi, eax
  00016	a5		 movsd
  00017	a5		 movsd
  00018	83 c0 0c	 add	 eax, 12			; 0000000cH
  0001b	a5		 movsd
  0001c	3b 45 0c	 cmp	 eax, DWORD PTR __Last$[ebp]
  0001f	75 ec		 jne	 SHORT $LL3@Copy_impl
  00021	5f		 pop	 edi
  00022	5e		 pop	 esi
$LN8@Copy_impl:

; 2145 : 	return (_Dest);

  00023	8b 45 10	 mov	 eax, DWORD PTR __Dest$[ebp]

; 2146 : 	}

  00026	5d		 pop	 ebp
  00027	c3		 ret	 0
??$_Copy_impl@PAUForceInfo@@PAU1@@std@@YAPAUForceInfo@@PAU1@00U_Nonscalar_ptr_iterator_tag@0@@Z ENDP ; std::_Copy_impl<ForceInfo *,ForceInfo *>
_TEXT	ENDS
PUBLIC	??$_Destroy@UForceInfo@@@std@@YAXPAUForceInfo@@@Z ; std::_Destroy<ForceInfo>
; Function compile flags: /Ogsp
; File c:\program files (x86)\microsoft visual studio 10.0\vc\include\xmemory
;	COMDAT ??$_Destroy@UForceInfo@@@std@@YAXPAUForceInfo@@@Z
_TEXT	SEGMENT
__Ptr$ = 8						; size = 4
??$_Destroy@UForceInfo@@@std@@YAXPAUForceInfo@@@Z PROC	; std::_Destroy<ForceInfo>, COMDAT

; 63   : 	_Ptr->~_Ty();
; 64   : 	}

  00000	c3		 ret	 0
??$_Destroy@UForceInfo@@@std@@YAXPAUForceInfo@@@Z ENDP	; std::_Destroy<ForceInfo>
_TEXT	ENDS
PUBLIC	??4WeaponInfo@@QAEAAU0@ABU0@@Z			; WeaponInfo::operator=
EXTRN	__imp_??4ioHashString@@QAEAAV0@ABV0@@Z:PROC
; Function compile flags: /Ogsp
;	COMDAT ??4WeaponInfo@@QAEAAU0@ABU0@@Z
_TEXT	SEGMENT
___that$ = 8						; size = 4
??4WeaponInfo@@QAEAAU0@ABU0@@Z PROC			; WeaponInfo::operator=, COMDAT
; _this$ = ecx
  00000	55		 push	 ebp
  00001	8b ec		 mov	 ebp, esp
  00003	56		 push	 esi
  00004	57		 push	 edi
  00005	8b 7d 08	 mov	 edi, DWORD PTR ___that$[ebp]
  00008	8b 07		 mov	 eax, DWORD PTR [edi]
  0000a	8b f1		 mov	 esi, ecx
  0000c	89 06		 mov	 DWORD PTR [esi], eax
  0000e	8b 47 04	 mov	 eax, DWORD PTR [edi+4]
  00011	89 46 04	 mov	 DWORD PTR [esi+4], eax
  00014	8d 47 08	 lea	 eax, DWORD PTR [edi+8]
  00017	50		 push	 eax
  00018	8d 4e 08	 lea	 ecx, DWORD PTR [esi+8]
  0001b	ff 15 00 00 00
	00		 call	 DWORD PTR __imp_??4ioHashString@@QAEAAV0@ABV0@@Z
  00021	8b 47 18	 mov	 eax, DWORD PTR [edi+24]
  00024	89 46 18	 mov	 DWORD PTR [esi+24], eax
  00027	8b 47 1c	 mov	 eax, DWORD PTR [edi+28]
  0002a	89 46 1c	 mov	 DWORD PTR [esi+28], eax
  0002d	8a 47 20	 mov	 al, BYTE PTR [edi+32]
  00030	88 46 20	 mov	 BYTE PTR [esi+32], al
  00033	8b 47 24	 mov	 eax, DWORD PTR [edi+36]
  00036	89 46 24	 mov	 DWORD PTR [esi+36], eax
  00039	5f		 pop	 edi
  0003a	8b c6		 mov	 eax, esi
  0003c	5e		 pop	 esi
  0003d	5d		 pop	 ebp
  0003e	c2 04 00	 ret	 4
??4WeaponInfo@@QAEAAU0@ABU0@@Z ENDP			; WeaponInfo::operator=
_TEXT	ENDS
PUBLIC	??_GWeaponInfo@@QAEPAXI@Z			; WeaponInfo::`scalar deleting destructor'
; Function compile flags: /Ogsp
;	COMDAT ??_GWeaponInfo@@QAEPAXI@Z
_TEXT	SEGMENT
___flags$ = 8						; size = 4
??_GWeaponInfo@@QAEPAXI@Z PROC				; WeaponInfo::`scalar deleting destructor', COMDAT
; _this$ = ecx
  00000	55		 push	 ebp
  00001	8b ec		 mov	 ebp, esp
  00003	56		 push	 esi
  00004	8b f1		 mov	 esi, ecx
  00006	8d 4e 08	 lea	 ecx, DWORD PTR [esi+8]
  00009	ff 15 00 00 00
	00		 call	 DWORD PTR __imp_??1ioHashString@@QAE@XZ
  0000f	f6 45 08 01	 test	 BYTE PTR ___flags$[ebp], 1
  00013	74 07		 je	 SHORT $LN1@scalar@4
  00015	56		 push	 esi
  00016	e8 00 00 00 00	 call	 ??3@YAXPAX@Z		; operator delete
  0001b	59		 pop	 ecx
$LN1@scalar@4:
  0001c	8b c6		 mov	 eax, esi
  0001e	5e		 pop	 esi
  0001f	5d		 pop	 ebp
  00020	c2 04 00	 ret	 4
??_GWeaponInfo@@QAEPAXI@Z ENDP				; WeaponInfo::`scalar deleting destructor'
_TEXT	ENDS
PUBLIC	??$move@AAUWeaponInfo@@@std@@YA$$QAUWeaponInfo@@AAU1@@Z ; std::move<WeaponInfo &>
; Function compile flags: /Ogsp
; File c:\program files (x86)\microsoft visual studio 10.0\vc\include\utility
;	COMDAT ??$move@AAUWeaponInfo@@@std@@YA$$QAUWeaponInfo@@AAU1@@Z
_TEXT	SEGMENT
__Arg$ = 8						; size = 4
??$move@AAUWeaponInfo@@@std@@YA$$QAUWeaponInfo@@AAU1@@Z PROC ; std::move<WeaponInfo &>, COMDAT

; 86   : 	{	// forward _Arg as movable

  00000	55		 push	 ebp
  00001	8b ec		 mov	 ebp, esp

; 87   : 	return ((typename tr1::_Remove_reference<_Ty>::_Type&&)_Arg);

  00003	8b 45 08	 mov	 eax, DWORD PTR __Arg$[ebp]

; 88   : 	}

  00006	5d		 pop	 ebp
  00007	c3		 ret	 0
??$move@AAUWeaponInfo@@@std@@YA$$QAUWeaponInfo@@AAU1@@Z ENDP ; std::move<WeaponInfo &>
_TEXT	ENDS
PUBLIC	??$move@AAUForceInfo@@@std@@YA$$QAUForceInfo@@AAU1@@Z ; std::move<ForceInfo &>
; Function compile flags: /Ogsp
;	COMDAT ??$move@AAUForceInfo@@@std@@YA$$QAUForceInfo@@AAU1@@Z
_TEXT	SEGMENT
__Arg$ = 8						; size = 4
??$move@AAUForceInfo@@@std@@YA$$QAUForceInfo@@AAU1@@Z PROC ; std::move<ForceInfo &>, COMDAT

; 86   : 	{	// forward _Arg as movable

  00000	55		 push	 ebp
  00001	8b ec		 mov	 ebp, esp

; 87   : 	return ((typename tr1::_Remove_reference<_Ty>::_Type&&)_Arg);

  00003	8b 45 08	 mov	 eax, DWORD PTR __Arg$[ebp]

; 88   : 	}

  00006	5d		 pop	 ebp
  00007	c3		 ret	 0
??$move@AAUForceInfo@@@std@@YA$$QAUForceInfo@@AAU1@@Z ENDP ; std::move<ForceInfo &>
_TEXT	ENDS
PUBLIC	??$forward@AAUWeaponInfo@@@std@@YAAAUWeaponInfo@@AAU1@@Z ; std::forward<WeaponInfo &>
; Function compile flags: /Ogsp
;	COMDAT ??$forward@AAUWeaponInfo@@@std@@YAAAUWeaponInfo@@AAU1@@Z
_TEXT	SEGMENT
__Arg$ = 8						; size = 4
??$forward@AAUWeaponInfo@@@std@@YAAAUWeaponInfo@@AAU1@@Z PROC ; std::forward<WeaponInfo &>, COMDAT

; 78   : 	{	// forward _Arg, given explicitly specified type parameter

  00000	55		 push	 ebp
  00001	8b ec		 mov	 ebp, esp

; 79   : 	return ((_Ty&&)_Arg);

  00003	8b 45 08	 mov	 eax, DWORD PTR __Arg$[ebp]

; 80   : 	}

  00006	5d		 pop	 ebp
  00007	c3		 ret	 0
??$forward@AAUWeaponInfo@@@std@@YAAAUWeaponInfo@@AAU1@@Z ENDP ; std::forward<WeaponInfo &>
_TEXT	ENDS
PUBLIC	??$forward@AAUForceInfo@@@std@@YAAAUForceInfo@@AAU1@@Z ; std::forward<ForceInfo &>
; Function compile flags: /Ogsp
;	COMDAT ??$forward@AAUForceInfo@@@std@@YAAAUForceInfo@@AAU1@@Z
_TEXT	SEGMENT
__Arg$ = 8						; size = 4
??$forward@AAUForceInfo@@@std@@YAAAUForceInfo@@AAU1@@Z PROC ; std::forward<ForceInfo &>, COMDAT

; 78   : 	{	// forward _Arg, given explicitly specified type parameter

  00000	55		 push	 ebp
  00001	8b ec		 mov	 ebp, esp

; 79   : 	return ((_Ty&&)_Arg);

  00003	8b 45 08	 mov	 eax, DWORD PTR __Arg$[ebp]

; 80   : 	}

  00006	5d		 pop	 ebp
  00007	c3		 ret	 0
??$forward@AAUForceInfo@@@std@@YAAAUForceInfo@@AAU1@@Z ENDP ; std::forward<ForceInfo &>
_TEXT	ENDS
PUBLIC	??$construct@AAUForceInfo@@@?$allocator@UForceInfo@@@std@@QAEXPAUForceInfo@@AAU2@@Z ; std::allocator<ForceInfo>::construct<ForceInfo &>
; Function compile flags: /Ogsp
; File c:\program files (x86)\microsoft visual studio 10.0\vc\include\xmemory
;	COMDAT ??$construct@AAUForceInfo@@@?$allocator@UForceInfo@@@std@@QAEXPAUForceInfo@@AAU2@@Z
_TEXT	SEGMENT
__Ptr$ = 8						; size = 4
__Val$ = 12						; size = 4
??$construct@AAUForceInfo@@@?$allocator@UForceInfo@@@std@@QAEXPAUForceInfo@@AAU2@@Z PROC ; std::allocator<ForceInfo>::construct<ForceInfo &>, COMDAT
; _this$ = ecx

; 206  : 		void construct(pointer _Ptr, _Other&& _Val)

  00000	55		 push	 ebp
  00001	8b ec		 mov	 ebp, esp
  00003	57		 push	 edi

; 207  : 		{	// construct object at _Ptr with value _Val
; 208  : 		::new ((void _FARQ *)_Ptr) _Ty(_STD forward<_Other>(_Val));

  00004	8b 7d 08	 mov	 edi, DWORD PTR __Ptr$[ebp]
  00007	85 ff		 test	 edi, edi
  00009	74 08		 je	 SHORT $LN3@construct
  0000b	56		 push	 esi
  0000c	8b 75 0c	 mov	 esi, DWORD PTR __Val$[ebp]
  0000f	a5		 movsd
  00010	a5		 movsd
  00011	a5		 movsd
  00012	5e		 pop	 esi
$LN3@construct:
  00013	5f		 pop	 edi

; 209  : 		}

  00014	5d		 pop	 ebp
  00015	c2 08 00	 ret	 8
??$construct@AAUForceInfo@@@?$allocator@UForceInfo@@@std@@QAEXPAUForceInfo@@AAU2@@Z ENDP ; std::allocator<ForceInfo>::construct<ForceInfo &>
_TEXT	ENDS
PUBLIC	??0WeaponInfo@@QAE@ABU0@@Z			; WeaponInfo::WeaponInfo
EXTRN	__imp_??0ioHashString@@QAE@ABV0@@Z:PROC
; Function compile flags: /Ogsp
;	COMDAT ??0WeaponInfo@@QAE@ABU0@@Z
_TEXT	SEGMENT
___that$ = 8						; size = 4
??0WeaponInfo@@QAE@ABU0@@Z PROC				; WeaponInfo::WeaponInfo, COMDAT
; _this$ = ecx
  00000	55		 push	 ebp
  00001	8b ec		 mov	 ebp, esp
  00003	56		 push	 esi
  00004	57		 push	 edi
  00005	8b 7d 08	 mov	 edi, DWORD PTR ___that$[ebp]
  00008	8b 07		 mov	 eax, DWORD PTR [edi]
  0000a	8b f1		 mov	 esi, ecx
  0000c	89 06		 mov	 DWORD PTR [esi], eax
  0000e	8b 47 04	 mov	 eax, DWORD PTR [edi+4]
  00011	89 46 04	 mov	 DWORD PTR [esi+4], eax
  00014	8d 47 08	 lea	 eax, DWORD PTR [edi+8]
  00017	50		 push	 eax
  00018	8d 4e 08	 lea	 ecx, DWORD PTR [esi+8]
  0001b	ff 15 00 00 00
	00		 call	 DWORD PTR __imp_??0ioHashString@@QAE@ABV0@@Z
  00021	8b 47 18	 mov	 eax, DWORD PTR [edi+24]
  00024	89 46 18	 mov	 DWORD PTR [esi+24], eax
  00027	8b 47 1c	 mov	 eax, DWORD PTR [edi+28]
  0002a	89 46 1c	 mov	 DWORD PTR [esi+28], eax
  0002d	8a 47 20	 mov	 al, BYTE PTR [edi+32]
  00030	88 46 20	 mov	 BYTE PTR [esi+32], al
  00033	8b 47 24	 mov	 eax, DWORD PTR [edi+36]
  00036	89 46 24	 mov	 DWORD PTR [esi+36], eax
  00039	5f		 pop	 edi
  0003a	8b c6		 mov	 eax, esi
  0003c	5e		 pop	 esi
  0003d	5d		 pop	 ebp
  0003e	c2 04 00	 ret	 4
??0WeaponInfo@@QAE@ABU0@@Z ENDP				; WeaponInfo::WeaponInfo
_TEXT	ENDS
PUBLIC	__real@4f800000
PUBLIC	__$ArrayPad$
PUBLIC	?SetExtraInfoToWeapon@ioSummonChargeItem@@UAEXPAVioWeapon@@_N@Z ; ioSummonChargeItem::SetExtraInfoToWeapon
EXTRN	?CheckMaxSummonWeaponCnt@ioWeaponManager@@QAEXPAVioWeapon@@H@Z:PROC ; ioWeaponManager::CheckMaxSummonWeaponCnt
EXTRN	?GetSingleton@ioWeaponManager@@SAAAV1@XZ:PROC	; ioWeaponManager::GetSingleton
EXTRN	?SetZoneValue@ioZoneEffectWeapon@@QAEX_N0@Z:PROC ; ioZoneEffectWeapon::SetZoneValue
EXTRN	?SetCollisionDir@ioZoneEffectWeapon@@QAEXAAUD3DXVECTOR3@@@Z:PROC ; ioZoneEffectWeapon::SetCollisionDir
EXTRN	__imp_??D@YA?AUD3DXVECTOR3@@ABUD3DXQUATERNION@@ABU0@@Z:PROC
EXTRN	?GetOwner@ioWeapon@@QBEPAVioBaseChar@@XZ:PROC	; ioWeapon::GetOwner
EXTRN	?SetExtraInfoToWeapon@ioAttackableItem@@UAEXPAVioWeapon@@_N@Z:PROC ; ioAttackableItem::SetExtraInfoToWeapon
EXTRN	___security_cookie:DWORD
EXTRN	@__security_check_cookie@4:PROC
;	COMDAT __real@4f800000
; File d:\lost saga for developer\youtube\tutorial\source\src\lsclient\iobasechar.h
CONST	SEGMENT
__real@4f800000 DD 04f800000r			; 4.29497e+009
; Function compile flags: /Ogsp
; File d:\lost saga for developer\youtube\tutorial\source\src\lsclient\iosummonchargeitem.cpp
CONST	ENDS
;	COMDAT ?SetExtraInfoToWeapon@ioSummonChargeItem@@UAEXPAVioWeapon@@_N@Z
_TEXT	SEGMENT
tv174 = -32						; size = 4
_vDir$542576 = -28					; size = 12
$T542578 = -16						; size = 12
__$ArrayPad$ = -4					; size = 4
_pWeapon$ = 8						; size = 4
_bJumpAttack$ = 12					; size = 1
?SetExtraInfoToWeapon@ioSummonChargeItem@@UAEXPAVioWeapon@@_N@Z PROC ; ioSummonChargeItem::SetExtraInfoToWeapon, COMDAT
; _this$ = ecx

; 500  : {

  00000	55		 push	 ebp
  00001	8b ec		 mov	 ebp, esp
  00003	83 ec 20	 sub	 esp, 32			; 00000020H
  00006	a1 00 00 00 00	 mov	 eax, DWORD PTR ___security_cookie
  0000b	33 c5		 xor	 eax, ebp
  0000d	89 45 fc	 mov	 DWORD PTR __$ArrayPad$[ebp], eax
  00010	53		 push	 ebx
  00011	56		 push	 esi
  00012	57		 push	 edi

; 501  : 	ioAttackableItem::SetExtraInfoToWeapon( pWeapon, bJumpAttack );

  00013	ff 75 0c	 push	 DWORD PTR _bJumpAttack$[ebp]
  00016	8b 7d 08	 mov	 edi, DWORD PTR _pWeapon$[ebp]
  00019	57		 push	 edi
  0001a	8b d9		 mov	 ebx, ecx
  0001c	e8 00 00 00 00	 call	 ?SetExtraInfoToWeapon@ioAttackableItem@@UAEXPAVioWeapon@@_N@Z ; ioAttackableItem::SetExtraInfoToWeapon

; 502  : 
; 503  : 	//
; 504  : 	ioZoneEffectWeapon *pZone = ToZoneEffectWeapon( pWeapon );

  00021	57		 push	 edi
  00022	e8 00 00 00 00	 call	 ?ToZoneEffectWeapon@@YAPAVioZoneEffectWeapon@@PAVioWeapon@@@Z ; ToZoneEffectWeapon
  00027	8b f0		 mov	 esi, eax
  00029	59		 pop	 ecx

; 505  : 	if( pZone )

  0002a	85 f6		 test	 esi, esi
  0002c	74 62		 je	 SHORT $LN2@SetExtraIn

; 506  : 	{
; 507  : 		ioBaseChar *pChar = pZone->GetOwner();

  0002e	8b ce		 mov	 ecx, esi
  00030	e8 00 00 00 00	 call	 ?GetOwner@ioWeapon@@QBEPAVioBaseChar@@XZ ; ioWeapon::GetOwner
  00035	8b c8		 mov	 ecx, eax

; 508  : 		if( pChar )

  00037	85 c9		 test	 ecx, ecx
  00039	74 55		 je	 SHORT $LN2@SetExtraIn

; 509  : 		{
; 510  : 			D3DXVECTOR3 vDir = pChar->GetTargetRot() * D3DXVECTOR3( 0.0f, 0.0f, -FLOAT1 );

  0003b	b8 01 00 00 00	 mov	 eax, 1
  00040	0f 57 c0	 xorps	 xmm0, xmm0
  00043	89 45 e0	 mov	 DWORD PTR tv174[ebp], eax
  00046	db 45 e0	 fild	 DWORD PTR tv174[ebp]
  00049	f3 0f 11 45 f0	 movss	 DWORD PTR $T542578[ebp], xmm0
  0004e	f3 0f 11 45 f4	 movss	 DWORD PTR $T542578[ebp+4], xmm0
  00053	85 c0		 test	 eax, eax
  00055	79 06		 jns	 SHORT $LN12@SetExtraIn
  00057	d8 05 00 00 00
	00		 fadd	 DWORD PTR __real@4f800000
$LN12@SetExtraIn:
  0005d	8d 45 f0	 lea	 eax, DWORD PTR $T542578[ebp]
  00060	d9 e0		 fchs
  00062	50		 push	 eax
  00063	d9 5d f8	 fstp	 DWORD PTR $T542578[ebp+8]
  00066	81 c1 a4 06 00
	00		 add	 ecx, 1700		; 000006a4H
  0006c	51		 push	 ecx
  0006d	8d 45 e4	 lea	 eax, DWORD PTR _vDir$542576[ebp]
  00070	50		 push	 eax
  00071	ff 15 00 00 00
	00		 call	 DWORD PTR __imp_??D@YA?AUD3DXVECTOR3@@ABUD3DXQUATERNION@@ABU0@@Z
  00077	83 c4 0c	 add	 esp, 12			; 0000000cH

; 511  : 			pZone->SetCollisionDir( vDir );

  0007a	8d 45 e4	 lea	 eax, DWORD PTR _vDir$542576[ebp]
  0007d	50		 push	 eax
  0007e	8b ce		 mov	 ecx, esi
  00080	e8 00 00 00 00	 call	 ?SetCollisionDir@ioZoneEffectWeapon@@QAEXAAUD3DXVECTOR3@@@Z ; ioZoneEffectWeapon::SetCollisionDir

; 512  : 			pZone->SetZoneValue( false, false );

  00085	6a 00		 push	 0
  00087	6a 00		 push	 0
  00089	8b ce		 mov	 ecx, esi
  0008b	e8 00 00 00 00	 call	 ?SetZoneValue@ioZoneEffectWeapon@@QAEX_N0@Z ; ioZoneEffectWeapon::SetZoneValue
$LN2@SetExtraIn:

; 513  : 		}
; 514  : 	}
; 515  : 
; 516  : 	ioSummonMissileWeapon *pSummon = ToSummonMissileWeapon( pWeapon );

  00090	57		 push	 edi
  00091	e8 00 00 00 00	 call	 ?ToSummonMissileWeapon@@YAPAVioSummonMissileWeapon@@PAVioWeapon@@@Z ; ToSummonMissileWeapon
  00096	59		 pop	 ecx

; 517  : 	if( pSummon && m_iLimitSummonCnt > 0 )

  00097	85 c0		 test	 eax, eax
  00099	74 18		 je	 SHORT $LN1@SetExtraIn
  0009b	8b 83 14 1a 00
	00		 mov	 eax, DWORD PTR [ebx+6676]
  000a1	85 c0		 test	 eax, eax
  000a3	7e 0e		 jle	 SHORT $LN1@SetExtraIn

; 518  : 	{
; 519  : 		g_WeaponMgr.CheckMaxSummonWeaponCnt( pWeapon, m_iLimitSummonCnt );

  000a5	50		 push	 eax
  000a6	57		 push	 edi
  000a7	e8 00 00 00 00	 call	 ?GetSingleton@ioWeaponManager@@SAAAV1@XZ ; ioWeaponManager::GetSingleton
  000ac	8b c8		 mov	 ecx, eax
  000ae	e8 00 00 00 00	 call	 ?CheckMaxSummonWeaponCnt@ioWeaponManager@@QAEXPAVioWeapon@@H@Z ; ioWeaponManager::CheckMaxSummonWeaponCnt
$LN1@SetExtraIn:

; 520  : 	}
; 521  : }

  000b3	8b 4d fc	 mov	 ecx, DWORD PTR __$ArrayPad$[ebp]
  000b6	5f		 pop	 edi
  000b7	5e		 pop	 esi
  000b8	33 cd		 xor	 ecx, ebp
  000ba	5b		 pop	 ebx
  000bb	e8 00 00 00 00	 call	 @__security_check_cookie@4
  000c0	c9		 leave
  000c1	c2 08 00	 ret	 8
?SetExtraInfoToWeapon@ioSummonChargeItem@@UAEXPAVioWeapon@@_N@Z ENDP ; ioSummonChargeItem::SetExtraInfoToWeapon
_TEXT	ENDS
PUBLIC	__real@00000000
PUBLIC	?CheckChargingMoveState@ioSummonChargeItem@@IAEXPAVioBaseChar@@@Z ; ioSummonChargeItem::CheckChargingMoveState
EXTRN	__imp_?SetLoopAniInMid@ioEntityGroup@@QAE_NHMMMM@Z:PROC
EXTRN	__imp_?ClearAllLoopAni@ioEntityGroup@@QAEXM_N@Z:PROC
EXTRN	__imp_?ClearAllActionAni@ioEntityGroup@@QAEXM_N@Z:PROC
EXTRN	__imp_?GetCurTime@ioAnimation@@QBEMXZ:PROC
EXTRN	__imp_?GetLoopInPlay@ioEntityGroup@@QAEPAVioAnimation@@ABVioHashString@@@Z:PROC
EXTRN	__imp_?GetAnimationIdx@ioEntityGroup@@QAEHABVioHashString@@@Z:PROC
EXTRN	?IsSettedDirection@ioBaseChar@@QBE_NXZ:PROC	; ioBaseChar::IsSettedDirection
EXTRN	__imp_?GetLoopSec@ioFrameTimer@@QBEKXZ:PROC
EXTRN	__imp_?GetSingleton@ioFrameTimer@@SAAAV1@XZ:PROC
EXTRN	?IsCanAttackMove@ioBaseChar@@QBE_NXZ:PROC	; ioBaseChar::IsCanAttackMove
EXTRN	__ftol2:PROC
;	COMDAT __real@00000000
; File d:\lost saga for developer\youtube\tutorial\source\src\lsclient\stdafx.h
CONST	SEGMENT
__real@00000000 DD 000000000r			; 0
; Function compile flags: /Ogsp
; File d:\lost saga for developer\youtube\tutorial\source\src\lsclient\iosummonchargeitem.cpp
CONST	ENDS
;	COMDAT ?CheckChargingMoveState@ioSummonChargeItem@@IAEXPAVioBaseChar@@@Z
_TEXT	SEGMENT
tv272 = -8						; size = 4
tv267 = -8						; size = 4
tv265 = -8						; size = 4
tv263 = -8						; size = 4
tv244 = -8						; size = 4
tv234 = -8						; size = 4
tv229 = -8						; size = 4
tv201 = -8						; size = 4
tv187 = -8						; size = 4
tv163 = -8						; size = 4
tv159 = -8						; size = 4
tv292 = -4						; size = 4
tv287 = -4						; size = 4
tv282 = -4						; size = 4
tv269 = -4						; size = 4
tv193 = -4						; size = 4
_fCurRate$542644 = -4					; size = 4
_fCurRate$542630 = -4					; size = 4
_iAniID$ = 8						; size = 4
_pOwner$ = 8						; size = 4
?CheckChargingMoveState@ioSummonChargeItem@@IAEXPAVioBaseChar@@@Z PROC ; ioSummonChargeItem::CheckChargingMoveState, COMDAT
; _this$ = ecx

; 570  : {

  00000	55		 push	 ebp
  00001	8b ec		 mov	 ebp, esp
  00003	51		 push	 ecx
  00004	51		 push	 ecx
  00005	53		 push	 ebx

; 571  : 	if( !pOwner->IsCanAttackMove() ) return;

  00006	8b 5d 08	 mov	 ebx, DWORD PTR _pOwner$[ebp]
  00009	56		 push	 esi
  0000a	8b f1		 mov	 esi, ecx
  0000c	8b cb		 mov	 ecx, ebx
  0000e	e8 00 00 00 00	 call	 ?IsCanAttackMove@ioBaseChar@@QBE_NXZ ; ioBaseChar::IsCanAttackMove
  00013	84 c0		 test	 al, al
  00015	0f 84 a7 02 00
	00		 je	 $LN4@CheckCharg

; 572  : 
; 573  : 	DWORD dwCurTime = FRAMEGETTIME();

  0001b	57		 push	 edi
  0001c	ff 15 00 00 00
	00		 call	 DWORD PTR __imp_?GetSingleton@ioFrameTimer@@SAAAV1@XZ
  00022	8b c8		 mov	 ecx, eax
  00024	ff 15 00 00 00
	00		 call	 DWORD PTR __imp_?GetLoopSec@ioFrameTimer@@QBEKXZ

; 574  : 	ioEntityGroup *pGrp = pOwner->GetGroup();

  0002a	8b 7b 04	 mov	 edi, DWORD PTR [ebx+4]

; 575  : 	int iAniID = 0;
; 576  : 
; 577  : 	if( pOwner->IsSettedDirection() )

  0002d	8b cb		 mov	 ecx, ebx
  0002f	e8 00 00 00 00	 call	 ?IsSettedDirection@ioBaseChar@@QBE_NXZ ; ioBaseChar::IsSettedDirection
  00034	84 c0		 test	 al, al
  00036	0f 84 45 01 00
	00		 je	 $LN10@CheckCharg

; 578  : 	{
; 579  : 		if( !m_bSetChargingMoveAni )

  0003c	80 be 8c 19 00
	00 00		 cmp	 BYTE PTR [esi+6540], 0
  00043	0f 85 78 02 00
	00		 jne	 $LN40@CheckCharg

; 580  : 		{
; 581  : 			iAniID = pGrp->GetAnimationIdx(m_ChargingMoveAnimation);

  00049	8d 86 7c 19 00
	00		 lea	 eax, DWORD PTR [esi+6524]
  0004f	50		 push	 eax
  00050	8b cf		 mov	 ecx, edi
  00052	ff 15 00 00 00
	00		 call	 DWORD PTR __imp_?GetAnimationIdx@ioEntityGroup@@QAEHABVioHashString@@@Z
  00058	89 45 08	 mov	 DWORD PTR _iAniID$[ebp], eax

; 582  : 			if( iAniID == -1 )

  0005b	83 f8 ff	 cmp	 eax, -1
  0005e	0f 84 5d 02 00
	00		 je	 $LN40@CheckCharg

; 583  : 				return;
; 584  : 
; 585  : 			DWORD dwPlayTime = 0;
; 586  : 			ioAnimation *pAni = pGrp->GetLoopInPlay( m_GatherAnimation );

  00064	8d 86 60 19 00
	00		 lea	 eax, DWORD PTR [esi+6496]
  0006a	50		 push	 eax
  0006b	8b cf		 mov	 ecx, edi
  0006d	33 db		 xor	 ebx, ebx
  0006f	ff 15 00 00 00
	00		 call	 DWORD PTR __imp_?GetLoopInPlay@ioEntityGroup@@QAEPAVioAnimation@@ABVioHashString@@@Z

; 587  : 			if( pAni )

  00075	85 c0		 test	 eax, eax
  00077	74 0f		 je	 SHORT $LN7@CheckCharg

; 588  : 			{
; 589  : 				dwPlayTime = pAni->GetCurTime();

  00079	8b c8		 mov	 ecx, eax
  0007b	ff 15 00 00 00
	00		 call	 DWORD PTR __imp_?GetCurTime@ioAnimation@@QBEMXZ
  00081	e8 00 00 00 00	 call	 __ftol2
  00086	8b d8		 mov	 ebx, eax
$LN7@CheckCharg:

; 590  : 			}
; 591  : 
; 592  : 			pGrp->ClearAllActionAni( FLOAT100, true );

  00088	b8 64 00 00 00	 mov	 eax, 100		; 00000064H
  0008d	89 45 fc	 mov	 DWORD PTR tv292[ebp], eax
  00090	db 45 fc	 fild	 DWORD PTR tv292[ebp]
  00093	6a 01		 push	 1
  00095	85 c0		 test	 eax, eax
  00097	79 06		 jns	 SHORT $LN41@CheckCharg
  00099	d8 05 00 00 00
	00		 fadd	 DWORD PTR __real@4f800000
$LN41@CheckCharg:
  0009f	51		 push	 ecx
  000a0	8b cf		 mov	 ecx, edi
  000a2	d9 1c 24	 fstp	 DWORD PTR [esp]
  000a5	ff 15 00 00 00
	00		 call	 DWORD PTR __imp_?ClearAllActionAni@ioEntityGroup@@QAEXM_N@Z

; 593  : 			pGrp->ClearAllLoopAni( FLOAT100, true );

  000ab	b8 64 00 00 00	 mov	 eax, 100		; 00000064H
  000b0	89 45 fc	 mov	 DWORD PTR tv287[ebp], eax
  000b3	db 45 fc	 fild	 DWORD PTR tv287[ebp]
  000b6	6a 01		 push	 1
  000b8	85 c0		 test	 eax, eax
  000ba	79 06		 jns	 SHORT $LN42@CheckCharg
  000bc	d8 05 00 00 00
	00		 fadd	 DWORD PTR __real@4f800000
$LN42@CheckCharg:
  000c2	51		 push	 ecx
  000c3	8b cf		 mov	 ecx, edi
  000c5	d9 1c 24	 fstp	 DWORD PTR [esp]
  000c8	ff 15 00 00 00
	00		 call	 DWORD PTR __imp_?ClearAllLoopAni@ioEntityGroup@@QAEXM_N@Z

; 594  : 
; 595  : 			float fCurRate = FLOAT1;

  000ce	b8 01 00 00 00	 mov	 eax, 1
  000d3	89 45 fc	 mov	 DWORD PTR tv282[ebp], eax
  000d6	db 45 fc	 fild	 DWORD PTR tv282[ebp]
  000d9	85 c0		 test	 eax, eax
  000db	79 06		 jns	 SHORT $LN43@CheckCharg
  000dd	d8 05 00 00 00
	00		 fadd	 DWORD PTR __real@4f800000
$LN43@CheckCharg:

; 596  : 			if( m_fGatherAniRate > 0.0f )

  000e3	f3 0f 10 86 70
	19 00 00	 movss	 xmm0, DWORD PTR [esi+6512]
  000eb	d9 5d fc	 fstp	 DWORD PTR _fCurRate$542630[ebp]
  000ee	0f 2f 05 00 00
	00 00		 comiss	 xmm0, DWORD PTR __real@00000000
  000f5	76 05		 jbe	 SHORT $LN6@CheckCharg

; 597  : 				fCurRate = m_fGatherAniRate;

  000f7	f3 0f 11 45 fc	 movss	 DWORD PTR _fCurRate$542630[ebp], xmm0
$LN6@CheckCharg:

; 598  : 
; 599  : 			pGrp->SetLoopAniInMid( iAniID, dwPlayTime, FLOAT100, FLOAT1, FLOAT1/fCurRate );

  000fc	b8 01 00 00 00	 mov	 eax, 1
  00101	8b c8		 mov	 ecx, eax
  00103	b8 01 00 00 00	 mov	 eax, 1
  00108	8b d0		 mov	 edx, eax
  0010a	b8 64 00 00 00	 mov	 eax, 100		; 00000064H
  0010f	89 4d f8	 mov	 DWORD PTR tv272[ebp], ecx
  00112	db 45 f8	 fild	 DWORD PTR tv272[ebp]
  00115	85 c9		 test	 ecx, ecx
  00117	79 06		 jns	 SHORT $LN44@CheckCharg
  00119	d8 05 00 00 00
	00		 fadd	 DWORD PTR __real@4f800000
$LN44@CheckCharg:
  0011f	d8 75 fc	 fdiv	 DWORD PTR _fCurRate$542630[ebp]
  00122	83 ec 10	 sub	 esp, 16			; 00000010H
  00125	89 55 f8	 mov	 DWORD PTR tv267[ebp], edx
  00128	d9 5d fc	 fstp	 DWORD PTR tv269[ebp]
  0012b	d9 45 fc	 fld	 DWORD PTR tv269[ebp]
  0012e	d9 5c 24 0c	 fstp	 DWORD PTR [esp+12]
  00132	db 45 f8	 fild	 DWORD PTR tv267[ebp]
  00135	85 d2		 test	 edx, edx
  00137	79 06		 jns	 SHORT $LN45@CheckCharg
  00139	d8 05 00 00 00
	00		 fadd	 DWORD PTR __real@4f800000
$LN45@CheckCharg:
  0013f	89 45 f8	 mov	 DWORD PTR tv265[ebp], eax
  00142	d9 5c 24 08	 fstp	 DWORD PTR [esp+8]
  00146	db 45 f8	 fild	 DWORD PTR tv265[ebp]
  00149	85 c0		 test	 eax, eax
  0014b	79 06		 jns	 SHORT $LN46@CheckCharg
  0014d	d8 05 00 00 00
	00		 fadd	 DWORD PTR __real@4f800000
$LN46@CheckCharg:
  00153	89 5d f8	 mov	 DWORD PTR tv263[ebp], ebx
  00156	d9 5c 24 04	 fstp	 DWORD PTR [esp+4]
  0015a	db 45 f8	 fild	 DWORD PTR tv263[ebp]
  0015d	85 db		 test	 ebx, ebx
  0015f	79 06		 jns	 SHORT $LN47@CheckCharg
  00161	d8 05 00 00 00
	00		 fadd	 DWORD PTR __real@4f800000
$LN47@CheckCharg:
  00167	d9 1c 24	 fstp	 DWORD PTR [esp]
  0016a	ff 75 08	 push	 DWORD PTR _iAniID$[ebp]
  0016d	8b cf		 mov	 ecx, edi
  0016f	ff 15 00 00 00
	00		 call	 DWORD PTR __imp_?SetLoopAniInMid@ioEntityGroup@@QAE_NHMMMM@Z

; 600  : 			m_bSetChargingMoveAni = true;

  00175	c6 86 8c 19 00
	00 01		 mov	 BYTE PTR [esi+6540], 1

; 601  : 		}
; 602  : 	}
; 603  : 	else

  0017c	e9 40 01 00 00	 jmp	 $LN40@CheckCharg
$LN10@CheckCharg:

; 604  : 	{
; 605  : 		if( m_bSetChargingMoveAni )

  00181	80 be 8c 19 00
	00 00		 cmp	 BYTE PTR [esi+6540], 0
  00188	0f 84 33 01 00
	00		 je	 $LN40@CheckCharg

; 606  : 		{
; 607  : 			iAniID = pGrp->GetAnimationIdx( m_GatherAnimation );

  0018e	8d 86 60 19 00
	00		 lea	 eax, DWORD PTR [esi+6496]
  00194	50		 push	 eax
  00195	8b cf		 mov	 ecx, edi
  00197	ff 15 00 00 00
	00		 call	 DWORD PTR __imp_?GetAnimationIdx@ioEntityGroup@@QAEHABVioHashString@@@Z
  0019d	89 45 08	 mov	 DWORD PTR _iAniID$[ebp], eax

; 608  : 			if( iAniID == -1 )

  001a0	83 f8 ff	 cmp	 eax, -1
  001a3	0f 84 18 01 00
	00		 je	 $LN40@CheckCharg

; 609  : 				return;
; 610  : 
; 611  : 			DWORD dwPlayTime = 0;
; 612  : 			ioAnimation *pAni = pGrp->GetLoopInPlay( m_ChargingMoveAnimation );

  001a9	8d 86 7c 19 00
	00		 lea	 eax, DWORD PTR [esi+6524]
  001af	50		 push	 eax
  001b0	8b cf		 mov	 ecx, edi
  001b2	33 db		 xor	 ebx, ebx
  001b4	ff 15 00 00 00
	00		 call	 DWORD PTR __imp_?GetLoopInPlay@ioEntityGroup@@QAEPAVioAnimation@@ABVioHashString@@@Z

; 613  : 			if( pAni )

  001ba	85 c0		 test	 eax, eax
  001bc	74 0f		 je	 SHORT $LN2@CheckCharg

; 614  : 				dwPlayTime = pAni->GetCurTime();

  001be	8b c8		 mov	 ecx, eax
  001c0	ff 15 00 00 00
	00		 call	 DWORD PTR __imp_?GetCurTime@ioAnimation@@QBEMXZ
  001c6	e8 00 00 00 00	 call	 __ftol2
  001cb	8b d8		 mov	 ebx, eax
$LN2@CheckCharg:

; 615  : 
; 616  : 			pGrp->ClearAllActionAni( FLOAT100, true );

  001cd	b8 64 00 00 00	 mov	 eax, 100		; 00000064H
  001d2	89 45 f8	 mov	 DWORD PTR tv244[ebp], eax
  001d5	db 45 f8	 fild	 DWORD PTR tv244[ebp]
  001d8	6a 01		 push	 1
  001da	85 c0		 test	 eax, eax
  001dc	79 06		 jns	 SHORT $LN48@CheckCharg
  001de	d8 05 00 00 00
	00		 fadd	 DWORD PTR __real@4f800000
$LN48@CheckCharg:
  001e4	51		 push	 ecx
  001e5	8b cf		 mov	 ecx, edi
  001e7	d9 1c 24	 fstp	 DWORD PTR [esp]
  001ea	ff 15 00 00 00
	00		 call	 DWORD PTR __imp_?ClearAllActionAni@ioEntityGroup@@QAEXM_N@Z

; 617  : 			pGrp->ClearAllLoopAni( FLOAT100, true );

  001f0	b8 64 00 00 00	 mov	 eax, 100		; 00000064H
  001f5	89 45 f8	 mov	 DWORD PTR tv234[ebp], eax
  001f8	db 45 f8	 fild	 DWORD PTR tv234[ebp]
  001fb	6a 01		 push	 1
  001fd	85 c0		 test	 eax, eax
  001ff	79 06		 jns	 SHORT $LN49@CheckCharg
  00201	d8 05 00 00 00
	00		 fadd	 DWORD PTR __real@4f800000
$LN49@CheckCharg:
  00207	51		 push	 ecx
  00208	8b cf		 mov	 ecx, edi
  0020a	d9 1c 24	 fstp	 DWORD PTR [esp]
  0020d	ff 15 00 00 00
	00		 call	 DWORD PTR __imp_?ClearAllLoopAni@ioEntityGroup@@QAEXM_N@Z

; 618  : 
; 619  : 			float fCurRate = FLOAT1;

  00213	b8 01 00 00 00	 mov	 eax, 1
  00218	89 45 f8	 mov	 DWORD PTR tv229[ebp], eax
  0021b	db 45 f8	 fild	 DWORD PTR tv229[ebp]
  0021e	85 c0		 test	 eax, eax
  00220	79 06		 jns	 SHORT $LN50@CheckCharg
  00222	d8 05 00 00 00
	00		 fadd	 DWORD PTR __real@4f800000
$LN50@CheckCharg:

; 620  : 			if( m_fGatherAniRate > 0.0f )

  00228	f3 0f 10 86 70
	19 00 00	 movss	 xmm0, DWORD PTR [esi+6512]
  00230	d9 5d fc	 fstp	 DWORD PTR _fCurRate$542644[ebp]
  00233	0f 2f 05 00 00
	00 00		 comiss	 xmm0, DWORD PTR __real@00000000
  0023a	76 05		 jbe	 SHORT $LN1@CheckCharg

; 621  : 				fCurRate = m_fGatherAniRate;

  0023c	f3 0f 11 45 fc	 movss	 DWORD PTR _fCurRate$542644[ebp], xmm0
$LN1@CheckCharg:

; 622  : 
; 623  : 			pGrp->SetLoopAniInMid( iAniID, dwPlayTime, FLOAT100, FLOAT1, FLOAT1/fCurRate );

  00241	b8 01 00 00 00	 mov	 eax, 1
  00246	8b c8		 mov	 ecx, eax
  00248	b8 01 00 00 00	 mov	 eax, 1
  0024d	8b d0		 mov	 edx, eax
  0024f	b8 64 00 00 00	 mov	 eax, 100		; 00000064H
  00254	89 4d f8	 mov	 DWORD PTR tv201[ebp], ecx
  00257	db 45 f8	 fild	 DWORD PTR tv201[ebp]
  0025a	85 c9		 test	 ecx, ecx
  0025c	79 06		 jns	 SHORT $LN51@CheckCharg
  0025e	d8 05 00 00 00
	00		 fadd	 DWORD PTR __real@4f800000
$LN51@CheckCharg:
  00264	d8 75 fc	 fdiv	 DWORD PTR _fCurRate$542644[ebp]
  00267	83 ec 10	 sub	 esp, 16			; 00000010H
  0026a	89 55 f8	 mov	 DWORD PTR tv187[ebp], edx
  0026d	d9 5d fc	 fstp	 DWORD PTR tv193[ebp]
  00270	d9 45 fc	 fld	 DWORD PTR tv193[ebp]
  00273	d9 5c 24 0c	 fstp	 DWORD PTR [esp+12]
  00277	db 45 f8	 fild	 DWORD PTR tv187[ebp]
  0027a	85 d2		 test	 edx, edx
  0027c	79 06		 jns	 SHORT $LN52@CheckCharg
  0027e	d8 05 00 00 00
	00		 fadd	 DWORD PTR __real@4f800000
$LN52@CheckCharg:
  00284	89 45 f8	 mov	 DWORD PTR tv163[ebp], eax
  00287	d9 5c 24 08	 fstp	 DWORD PTR [esp+8]
  0028b	db 45 f8	 fild	 DWORD PTR tv163[ebp]
  0028e	85 c0		 test	 eax, eax
  00290	79 06		 jns	 SHORT $LN53@CheckCharg
  00292	d8 05 00 00 00
	00		 fadd	 DWORD PTR __real@4f800000
$LN53@CheckCharg:
  00298	89 5d f8	 mov	 DWORD PTR tv159[ebp], ebx
  0029b	d9 5c 24 04	 fstp	 DWORD PTR [esp+4]
  0029f	db 45 f8	 fild	 DWORD PTR tv159[ebp]
  002a2	85 db		 test	 ebx, ebx
  002a4	79 06		 jns	 SHORT $LN54@CheckCharg
  002a6	d8 05 00 00 00
	00		 fadd	 DWORD PTR __real@4f800000
$LN54@CheckCharg:
  002ac	d9 1c 24	 fstp	 DWORD PTR [esp]
  002af	ff 75 08	 push	 DWORD PTR _iAniID$[ebp]
  002b2	8b cf		 mov	 ecx, edi
  002b4	ff 15 00 00 00
	00		 call	 DWORD PTR __imp_?SetLoopAniInMid@ioEntityGroup@@QAE_NHMMMM@Z

; 624  : 			m_bSetChargingMoveAni = false;

  002ba	c6 86 8c 19 00
	00 00		 mov	 BYTE PTR [esi+6540], 0
$LN40@CheckCharg:
  002c1	5f		 pop	 edi
$LN4@CheckCharg:
  002c2	5e		 pop	 esi
  002c3	5b		 pop	 ebx

; 625  : 		}
; 626  : 	}
; 627  : }

  002c4	c9		 leave
  002c5	c2 04 00	 ret	 4
?CheckChargingMoveState@ioSummonChargeItem@@IAEXPAVioBaseChar@@@Z ENDP ; ioSummonChargeItem::CheckChargingMoveState
_TEXT	ENDS
PUBLIC	?OnRetreatState@ioSummonChargeItem@@IAEXPAVioBaseChar@@@Z ; ioSummonChargeItem::OnRetreatState
EXTRN	?SetForcePower@ioBaseChar@@QAEXABUD3DXVECTOR3@@MM_N@Z:PROC ; ioBaseChar::SetForcePower
EXTRN	?SetState@ioBaseChar@@QAEXH_N@Z:PROC		; ioBaseChar::SetState
EXTRN	?SetJumpState@ioBaseChar@@QAEX_N@Z:PROC		; ioBaseChar::SetJumpState
EXTRN	?IsBuffLimitJump@ioBaseChar@@QBE_NXZ:PROC	; ioBaseChar::IsBuffLimitJump
EXTRN	?IsCanJumpState@ioBaseChar@@QAE_NXZ:PROC	; ioBaseChar::IsCanJumpState
EXTRN	?SetDefenseState@ioBaseChar@@QAEXXZ:PROC	; ioBaseChar::SetDefenseState
EXTRN	?IsBuffLimitDefense@ioBaseChar@@QBE_NXZ:PROC	; ioBaseChar::IsBuffLimitDefense
EXTRN	?IsEnableDefenseByObject@ioBaseChar@@QAE_NXZ:PROC ; ioBaseChar::IsEnableDefenseByObject
EXTRN	?SetUseSkill@ioBaseChar@@QAE_NHW4SkillUseType@@_N1@Z:PROC ; ioBaseChar::SetUseSkill
EXTRN	?IsBuffLimitSkill@ioBaseChar@@QBE_NXZ:PROC	; ioBaseChar::IsBuffLimitSkill
EXTRN	?SetNormalAttack@ioBaseChar@@QAEXH@Z:PROC	; ioBaseChar::SetNormalAttack
EXTRN	?IsBuffLimitAttack@ioBaseChar@@QBE_NXZ:PROC	; ioBaseChar::IsBuffLimitAttack
EXTRN	?IsCanNormalAttack@ioBaseChar@@QBE_NXZ:PROC	; ioBaseChar::IsCanNormalAttack
EXTRN	?IsChatModeState@ioBaseChar@@QBE_N_N@Z:PROC	; ioBaseChar::IsChatModeState
EXTRN	?IsJumpKeyDown@ioBaseChar@@QBE_NXZ:PROC		; ioBaseChar::IsJumpKeyDown
EXTRN	?IsAttackKeyDown@ioBaseChar@@QBE_NXZ:PROC	; ioBaseChar::IsAttackKeyDown
EXTRN	?NormalAttackOver@ioBaseChar@@QAEX_N@Z:PROC	; ioBaseChar::NormalAttackOver
; Function compile flags: /Ogsp
;	COMDAT ?OnRetreatState@ioSummonChargeItem@@IAEXPAVioBaseChar@@@Z
_TEXT	SEGMENT
_pOwner$ = 8						; size = 4
?OnRetreatState@ioSummonChargeItem@@IAEXPAVioBaseChar@@@Z PROC ; ioSummonChargeItem::OnRetreatState, COMDAT
; _this$ = ecx

; 744  : {

  00000	55		 push	 ebp
  00001	8b ec		 mov	 ebp, esp
  00003	53		 push	 ebx
  00004	56		 push	 esi
  00005	57		 push	 edi
  00006	8b f1		 mov	 esi, ecx

; 745  : 	DWORD dwCurTime = FRAMEGETTIME();

  00008	ff 15 00 00 00
	00		 call	 DWORD PTR __imp_?GetSingleton@ioFrameTimer@@SAAAV1@XZ
  0000e	8b c8		 mov	 ecx, eax
  00010	ff 15 00 00 00
	00		 call	 DWORD PTR __imp_?GetLoopSec@ioFrameTimer@@QBEKXZ
  00016	8b f8		 mov	 edi, eax

; 746  : 
; 747  : 	if( m_dwRetreatEndTime > 0 && m_dwRetreatEndTime < dwCurTime )

  00018	8b 86 2c 1a 00
	00		 mov	 eax, DWORD PTR [esi+6700]
  0001e	33 db		 xor	 ebx, ebx
  00020	3b c3		 cmp	 eax, ebx
  00022	0f 86 2e 01 00
	00		 jbe	 $LN11@OnRetreatS
  00028	3b c7		 cmp	 eax, edi
  0002a	0f 83 26 01 00
	00		 jae	 $LN11@OnRetreatS

; 748  : 	{
; 749  : 		pOwner->NormalAttackOver();

  00030	8b 7d 08	 mov	 edi, DWORD PTR _pOwner$[ebp]
  00033	6a 01		 push	 1
  00035	8b cf		 mov	 ecx, edi
  00037	e8 00 00 00 00	 call	 ?NormalAttackOver@ioBaseChar@@QAEX_N@Z ; ioBaseChar::NormalAttackOver

; 750  : 
; 751  : 		//      
; 752  : 		if( pOwner->IsAttackKeyDown() && 
; 753  : 			!pOwner->IsJumpKeyDown() &&
; 754  : 			!pOwner->IsDefenseKeyDown() &&
; 755  : 			!pOwner->IsChatModeState(true) )

  0003c	8b cf		 mov	 ecx, edi
  0003e	e8 00 00 00 00	 call	 ?IsAttackKeyDown@ioBaseChar@@QBE_NXZ ; ioBaseChar::IsAttackKeyDown
  00043	84 c0		 test	 al, al
  00045	74 55		 je	 SHORT $LN10@OnRetreatS
  00047	8b cf		 mov	 ecx, edi
  00049	e8 00 00 00 00	 call	 ?IsJumpKeyDown@ioBaseChar@@QBE_NXZ ; ioBaseChar::IsJumpKeyDown
  0004e	84 c0		 test	 al, al
  00050	75 4a		 jne	 SHORT $LN10@OnRetreatS
  00052	8b cf		 mov	 ecx, edi
  00054	e8 00 00 00 00	 call	 ?IsDefenseKeyDown@ioBaseChar@@QBE_NXZ ; ioBaseChar::IsDefenseKeyDown
  00059	84 c0		 test	 al, al
  0005b	75 3f		 jne	 SHORT $LN10@OnRetreatS
  0005d	6a 01		 push	 1
  0005f	8b cf		 mov	 ecx, edi
  00061	e8 00 00 00 00	 call	 ?IsChatModeState@ioBaseChar@@QBE_N_N@Z ; ioBaseChar::IsChatModeState
  00066	84 c0		 test	 al, al
  00068	75 32		 jne	 SHORT $LN10@OnRetreatS

; 756  : 		{
; 757  : 			ClearState();

  0006a	8b ce		 mov	 ecx, esi
$LN14@OnRetreatS:
  0006c	e8 00 00 00 00	 call	 ?ClearState@ioSummonChargeItem@@IAEXXZ ; ioSummonChargeItem::ClearState

; 758  : 
; 759  : 			if( pOwner->IsCanNormalAttack() && !pOwner->IsBuffLimitAttack() )

  00071	8b cf		 mov	 ecx, edi
  00073	e8 00 00 00 00	 call	 ?IsCanNormalAttack@ioBaseChar@@QBE_NXZ ; ioBaseChar::IsCanNormalAttack
  00078	84 c0		 test	 al, al
  0007a	0f 84 32 01 00
	00		 je	 $LN1@OnRetreatS
  00080	8b cf		 mov	 ecx, edi
  00082	e8 00 00 00 00	 call	 ?IsBuffLimitAttack@ioBaseChar@@QBE_NXZ ; ioBaseChar::IsBuffLimitAttack
  00087	84 c0		 test	 al, al
  00089	0f 85 23 01 00
	00		 jne	 $LN1@OnRetreatS

; 760  : 			{
; 761  : 				pOwner->SetNormalAttack( 0 );

  0008f	53		 push	 ebx
  00090	8b cf		 mov	 ecx, edi
  00092	e8 00 00 00 00	 call	 ?SetNormalAttack@ioBaseChar@@QAEXH@Z ; ioBaseChar::SetNormalAttack

; 762  : 			}
; 763  : 			return;

  00097	e9 16 01 00 00	 jmp	 $LN1@OnRetreatS
$LN10@OnRetreatS:

; 764  : 		}
; 765  : 
; 766  : 		//    
; 767  : 		if( m_iSkillInput >= 0 && !pOwner->IsBuffLimitSkill() && pOwner->SetUseSkill( m_iSkillInput, SUT_NORMAL ) )

  0009c	39 9e fc 0e 00
	00		 cmp	 DWORD PTR [esi+3836], ebx
  000a2	7c 32		 jl	 SHORT $LN8@OnRetreatS
  000a4	8b cf		 mov	 ecx, edi
  000a6	e8 00 00 00 00	 call	 ?IsBuffLimitSkill@ioBaseChar@@QBE_NXZ ; ioBaseChar::IsBuffLimitSkill
  000ab	84 c0		 test	 al, al
  000ad	75 27		 jne	 SHORT $LN8@OnRetreatS
  000af	53		 push	 ebx
  000b0	53		 push	 ebx
  000b1	53		 push	 ebx
  000b2	ff b6 fc 0e 00
	00		 push	 DWORD PTR [esi+3836]
  000b8	8b cf		 mov	 ecx, edi
  000ba	e8 00 00 00 00	 call	 ?SetUseSkill@ioBaseChar@@QAE_NHW4SkillUseType@@_N1@Z ; ioBaseChar::SetUseSkill
  000bf	84 c0		 test	 al, al
  000c1	74 13		 je	 SHORT $LN8@OnRetreatS

; 768  : 		{
; 769  : 			ClearState();

  000c3	8b ce		 mov	 ecx, esi
  000c5	e8 00 00 00 00	 call	 ?ClearState@ioSummonChargeItem@@IAEXXZ ; ioSummonChargeItem::ClearState

; 770  : 			m_iSkillInput = -1;

  000ca	83 8e fc 0e 00
	00 ff		 or	 DWORD PTR [esi+3836], -1

; 771  : 			return;

  000d1	e9 dc 00 00 00	 jmp	 $LN1@OnRetreatS
$LN8@OnRetreatS:

; 772  : 		}
; 773  : 
; 774  : 		// 
; 775  : 		if( m_bEnableDefenseState && pOwner->IsEnableDefenseByObject() && !pOwner->IsBuffLimitDefense() )

  000d6	38 9e 00 0f 00
	00		 cmp	 BYTE PTR [esi+3840], bl
  000dc	74 29		 je	 SHORT $LN7@OnRetreatS
  000de	8b cf		 mov	 ecx, edi
  000e0	e8 00 00 00 00	 call	 ?IsEnableDefenseByObject@ioBaseChar@@QAE_NXZ ; ioBaseChar::IsEnableDefenseByObject
  000e5	84 c0		 test	 al, al
  000e7	74 1e		 je	 SHORT $LN7@OnRetreatS
  000e9	8b cf		 mov	 ecx, edi
  000eb	e8 00 00 00 00	 call	 ?IsBuffLimitDefense@ioBaseChar@@QBE_NXZ ; ioBaseChar::IsBuffLimitDefense
  000f0	84 c0		 test	 al, al
  000f2	75 13		 jne	 SHORT $LN7@OnRetreatS

; 776  : 		{
; 777  : 			ClearState();

  000f4	8b ce		 mov	 ecx, esi
  000f6	e8 00 00 00 00	 call	 ?ClearState@ioSummonChargeItem@@IAEXXZ ; ioSummonChargeItem::ClearState

; 778  : 			pOwner->SetDefenseState();

  000fb	8b cf		 mov	 ecx, edi
  000fd	e8 00 00 00 00	 call	 ?SetDefenseState@ioBaseChar@@QAEXXZ ; ioBaseChar::SetDefenseState

; 779  : 			return;

  00102	e9 ab 00 00 00	 jmp	 $LN1@OnRetreatS
$LN7@OnRetreatS:

; 780  : 		}
; 781  : 
; 782  : 		// 
; 783  : 		if( m_bEnableJumpState && pOwner->IsCanJumpState() && !pOwner->IsBuffLimitJump() )

  00107	38 9e 02 0f 00
	00		 cmp	 BYTE PTR [esi+3842], bl
  0010d	74 28		 je	 SHORT $LN6@OnRetreatS
  0010f	8b cf		 mov	 ecx, edi
  00111	e8 00 00 00 00	 call	 ?IsCanJumpState@ioBaseChar@@QAE_NXZ ; ioBaseChar::IsCanJumpState
  00116	84 c0		 test	 al, al
  00118	74 1d		 je	 SHORT $LN6@OnRetreatS
  0011a	8b cf		 mov	 ecx, edi
  0011c	e8 00 00 00 00	 call	 ?IsBuffLimitJump@ioBaseChar@@QBE_NXZ ; ioBaseChar::IsBuffLimitJump
  00121	84 c0		 test	 al, al
  00123	75 12		 jne	 SHORT $LN6@OnRetreatS

; 784  : 		{
; 785  : 			ClearState();

  00125	8b ce		 mov	 ecx, esi
  00127	e8 00 00 00 00	 call	 ?ClearState@ioSummonChargeItem@@IAEXXZ ; ioSummonChargeItem::ClearState

; 786  : 			pOwner->SetJumpState();

  0012c	6a 01		 push	 1
  0012e	8b cf		 mov	 ecx, edi
  00130	e8 00 00 00 00	 call	 ?SetJumpState@ioBaseChar@@QAEX_N@Z ; ioBaseChar::SetJumpState

; 787  : 			return;

  00135	eb 7b		 jmp	 SHORT $LN1@OnRetreatS
$LN6@OnRetreatS:

; 788  : 		}
; 789  : 
; 790  : 		// 
; 791  : 		if( m_bEnableAttackState )
; 792  : 		{
; 793  : 			ClearState();

  00137	8b ce		 mov	 ecx, esi
  00139	38 9e 01 0f 00
	00		 cmp	 BYTE PTR [esi+3841], bl

; 794  : 			if( pOwner->IsCanNormalAttack() && !pOwner->IsBuffLimitAttack() )
; 795  : 			{
; 796  : 				pOwner->SetNormalAttack( 0 );
; 797  : 			}
; 798  : 			return;

  0013f	0f 85 27 ff ff
	ff		 jne	 $LN14@OnRetreatS

; 799  : 		}
; 800  : 
; 801  : 		ClearState();

  00145	e8 00 00 00 00	 call	 ?ClearState@ioSummonChargeItem@@IAEXXZ ; ioSummonChargeItem::ClearState

; 802  : 		pOwner->SetState( CS_DELAY );

  0014a	6a 01		 push	 1
  0014c	53		 push	 ebx
  0014d	8b cf		 mov	 ecx, edi
  0014f	e8 00 00 00 00	 call	 ?SetState@ioBaseChar@@QAEXH_N@Z ; ioBaseChar::SetState

; 803  : 		return;

  00154	eb 5c		 jmp	 SHORT $LN1@OnRetreatS
$LN11@OnRetreatS:

; 804  : 	}
; 805  : 	else
; 806  : 	{
; 807  : 		if( m_dwKeyReserveTime > 0 && m_dwKeyReserveTime < dwCurTime )

  00156	8b 86 f8 0e 00
	00		 mov	 eax, DWORD PTR [esi+3832]
  0015c	3b c3		 cmp	 eax, ebx
  0015e	76 11		 jbe	 SHORT $LN2@OnRetreatS
  00160	3b c7		 cmp	 eax, edi
  00162	73 0d		 jae	 SHORT $LN2@OnRetreatS

; 808  : 		{
; 809  : 			CheckReserve( pOwner );

  00164	ff 75 08	 push	 DWORD PTR _pOwner$[ebp]
  00167	8b 06		 mov	 eax, DWORD PTR [esi]
  00169	8b ce		 mov	 ecx, esi
  0016b	ff 90 ac 01 00
	00		 call	 DWORD PTR [eax+428]
$LN2@OnRetreatS:

; 810  : 		}
; 811  : 
; 812  : 		if( m_dwRetreatForceTime > 0 && m_dwRetreatForceTime < dwCurTime )

  00171	8b 8e 44 1a 00
	00		 mov	 ecx, DWORD PTR [esi+6724]
  00177	3b cb		 cmp	 ecx, ebx
  00179	76 37		 jbe	 SHORT $LN1@OnRetreatS
  0017b	3b cf		 cmp	 ecx, edi
  0017d	73 33		 jae	 SHORT $LN1@OnRetreatS

; 813  : 		{
; 814  : 			m_dwRetreatForceTime = 0;
; 815  : 			pOwner->SetForcePower( m_vForceDir, m_fRetreatForceAmt, m_fRetreatForceFric );

  0017f	f3 0f 10 86 40
	1a 00 00	 movss	 xmm0, DWORD PTR [esi+6720]
  00187	53		 push	 ebx
  00188	51		 push	 ecx
  00189	51		 push	 ecx
  0018a	8b 4d 08	 mov	 ecx, DWORD PTR _pOwner$[ebp]
  0018d	f3 0f 11 44 24
	04		 movss	 DWORD PTR [esp+4], xmm0
  00193	f3 0f 10 86 3c
	1a 00 00	 movss	 xmm0, DWORD PTR [esi+6716]
  0019b	89 9e 44 1a 00
	00		 mov	 DWORD PTR [esi+6724], ebx
  001a1	81 c6 30 1a 00
	00		 add	 esi, 6704		; 00001a30H
  001a7	f3 0f 11 04 24	 movss	 DWORD PTR [esp], xmm0
  001ac	56		 push	 esi
  001ad	e8 00 00 00 00	 call	 ?SetForcePower@ioBaseChar@@QAEXABUD3DXVECTOR3@@MM_N@Z ; ioBaseChar::SetForcePower
$LN1@OnRetreatS:
  001b2	5f		 pop	 edi
  001b3	5e		 pop	 esi
  001b4	5b		 pop	 ebx

; 816  : 		}
; 817  : 	}
; 818  : }

  001b5	5d		 pop	 ebp
  001b6	c2 04 00	 ret	 4
?OnRetreatState@ioSummonChargeItem@@IAEXPAVioBaseChar@@@Z ENDP ; ioSummonChargeItem::OnRetreatState
_TEXT	ENDS
PUBLIC	??_C@_0ED@IMBBOAED@ioSummonChargeItem?3?3SetJumpAttac@ ; `string'
PUBLIC	??_C@_0DO@MEKGPMGH@ioSummonChargeItem?3?3SetJumpAttac@ ; `string'
PUBLIC	?SetJumpAttack@ioSummonChargeItem@@UAE_NPAVioBaseChar@@HMW4AttackType@@@Z ; ioSummonChargeItem::SetJumpAttack
EXTRN	__imp_?PrintTimeAndLog@CLog@@QAAXHPADZZ:PROC
EXTRN	__imp_?LOG@@3VCLog@@A:BYTE
;	COMDAT ??_C@_0ED@IMBBOAED@ioSummonChargeItem?3?3SetJumpAttac@
; File d:\lost saga for developer\youtube\tutorial\source\src\lsclient\iogameentity.h
CONST	SEGMENT
??_C@_0ED@IMBBOAED@ioSummonChargeItem?3?3SetJumpAttac@ DB 'ioSummonCharge'
	DB	'Item::SetJumpAttack - JumpAttack Animation Not Exist', 00H ; `string'
CONST	ENDS
;	COMDAT ??_C@_0DO@MEKGPMGH@ioSummonChargeItem?3?3SetJumpAttac@
CONST	SEGMENT
??_C@_0DO@MEKGPMGH@ioSummonChargeItem?3?3SetJumpAttac@ DB 'ioSummonCharge'
	DB	'Item::SetJumpAttack - AttackAttribute Not Exist', 00H ; `string'
; Function compile flags: /Ogsp
; File d:\lost saga for developer\youtube\tutorial\source\src\lsclient\iosummonchargeitem.cpp
CONST	ENDS
;	COMDAT ?SetJumpAttack@ioSummonChargeItem@@UAE_NPAVioBaseChar@@HMW4AttackType@@@Z
_TEXT	SEGMENT
_pOwner$ = 8						; size = 4
_iAniID$ = 12						; size = 4
_fTimeRate$ = 16					; size = 4
_eType$ = 20						; size = 4
?SetJumpAttack@ioSummonChargeItem@@UAE_NPAVioBaseChar@@HMW4AttackType@@@Z PROC ; ioSummonChargeItem::SetJumpAttack, COMDAT
; _this$ = ecx

; 961  : {

  00000	55		 push	 ebp
  00001	8b ec		 mov	 ebp, esp
  00003	53		 push	 ebx

; 962  : 	if( !pOwner ) return false;

  00004	8b 5d 08	 mov	 ebx, DWORD PTR _pOwner$[ebp]
  00007	56		 push	 esi
  00008	8b f1		 mov	 esi, ecx
  0000a	85 db		 test	 ebx, ebx
  0000c	74 73		 je	 SHORT $LN11@SetJumpAtt

; 963  : 
; 964  : 	DWORD dwCurTime = FRAMEGETTIME();

  0000e	57		 push	 edi
  0000f	ff 15 00 00 00
	00		 call	 DWORD PTR __imp_?GetSingleton@ioFrameTimer@@SAAAV1@XZ
  00015	8b c8		 mov	 ecx, eax
  00017	ff 15 00 00 00
	00		 call	 DWORD PTR __imp_?GetLoopSec@ioFrameTimer@@QBEKXZ

; 965  : 	ClearAirJump();

  0001d	8b 06		 mov	 eax, DWORD PTR [esi]
  0001f	8b ce		 mov	 ecx, esi
  00021	ff 90 a8 02 00
	00		 call	 DWORD PTR [eax+680]

; 966  : 
; 967  : 	AttackType eExtendType = AT_JUMP_ATTACK;
; 968  : 
; 969  : 	const AttackAttribute *pAttr = GetAttackAttribute( eExtendType );

  00027	8b 06		 mov	 eax, DWORD PTR [esi]
  00029	6a 00		 push	 0
  0002b	6a 03		 push	 3
  0002d	8b ce		 mov	 ecx, esi
  0002f	ff 90 08 02 00
	00		 call	 DWORD PTR [eax+520]
  00035	8b f8		 mov	 edi, eax

; 970  : 	if( !pAttr )

  00037	85 ff		 test	 edi, edi
  00039	75 18		 jne	 SHORT $LN2@SetJumpAtt

; 971  : 	{
; 972  : 		LOG.PrintTimeAndLog( 0, "ioSummonChargeItem::SetJumpAttack - AttackAttribute Not Exist" );

  0003b	68 00 00 00 00	 push	 OFFSET ??_C@_0DO@MEKGPMGH@ioSummonChargeItem?3?3SetJumpAttac@
$LN10@SetJumpAtt:
  00040	6a 00		 push	 0
  00042	ff 35 00 00 00
	00		 push	 DWORD PTR __imp_?LOG@@3VCLog@@A
  00048	ff 15 00 00 00
	00		 call	 DWORD PTR __imp_?PrintTimeAndLog@CLog@@QAAXHPADZZ
  0004e	83 c4 0c	 add	 esp, 12			; 0000000cH

; 973  : 		return false;

  00051	eb 2d		 jmp	 SHORT $LN9@SetJumpAtt
$LN2@SetJumpAtt:

; 974  : 	}
; 975  : 
; 976  : 	ioEntityGroup *pGrp = pOwner->GetGroup();

  00053	8b 4b 04	 mov	 ecx, DWORD PTR [ebx+4]

; 977  : 	iAniID = pGrp->GetAnimationIdx( pAttr->m_AttackAnimation );

  00056	57		 push	 edi
  00057	ff 15 00 00 00
	00		 call	 DWORD PTR __imp_?GetAnimationIdx@ioEntityGroup@@QAEHABVioHashString@@@Z

; 978  : 	if( iAniID == -1 )

  0005d	83 f8 ff	 cmp	 eax, -1
  00060	75 07		 jne	 SHORT $LN1@SetJumpAtt

; 979  : 	{
; 980  : 		LOG.PrintTimeAndLog( 0, "ioSummonChargeItem::SetJumpAttack - JumpAttack Animation Not Exist" );

  00062	68 00 00 00 00	 push	 OFFSET ??_C@_0ED@IMBBOAED@ioSummonChargeItem?3?3SetJumpAttac@

; 981  : 		return false;

  00067	eb d7		 jmp	 SHORT $LN10@SetJumpAtt
$LN1@SetJumpAtt:

; 982  : 	}
; 983  : 
; 984  : 	fTimeRate   = pAttr->m_fAttackAniRate;
; 985  : 	DWORD dwPreDelay  = pAttr->m_dwPreDelay;
; 986  : 
; 987  : 	// For AirJumpPower
; 988  : 	SetAirJump( pOwner, iAniID, fTimeRate );

  00069	f3 0f 10 47 10	 movss	 xmm0, DWORD PTR [edi+16]
  0006e	8b 16		 mov	 edx, DWORD PTR [esi]
  00070	51		 push	 ecx
  00071	f3 0f 11 04 24	 movss	 DWORD PTR [esp], xmm0
  00076	50		 push	 eax
  00077	53		 push	 ebx
  00078	8b ce		 mov	 ecx, esi
  0007a	ff 92 ac 02 00
	00		 call	 DWORD PTR [edx+684]
$LN9@SetJumpAtt:
  00080	5f		 pop	 edi
$LN11@SetJumpAtt:
  00081	5e		 pop	 esi

; 989  : 
; 990  : 	return false;

  00082	32 c0		 xor	 al, al
  00084	5b		 pop	 ebx

; 991  : }

  00085	5d		 pop	 ebp
  00086	c2 10 00	 ret	 16			; 00000010H
?SetJumpAttack@ioSummonChargeItem@@UAE_NPAVioBaseChar@@HMW4AttackType@@@Z ENDP ; ioSummonChargeItem::SetJumpAttack
_TEXT	ENDS
PUBLIC	??H?$CEncrypt@M@@QAEMABM@Z			; CEncrypt<float>::operator+
; Function compile flags: /Ogsp
; File d:\lost saga for developer\youtube\tutorial\source\src\lsclient\encryptvalue.h
;	COMDAT ??H?$CEncrypt@M@@QAEMABM@Z
_TEXT	SEGMENT
_value$ = -4						; size = 4
tv130 = 8						; size = 4
_inValue$ = 8						; size = 4
??H?$CEncrypt@M@@QAEMABM@Z PROC				; CEncrypt<float>::operator+, COMDAT
; _this$ = ecx

; 1675 : 	{	

  00000	55		 push	 ebp
  00001	8b ec		 mov	 ebp, esp
  00003	51		 push	 ecx

; 1676 : 		type value;
; 1677 : 		DecryptValueToPool(&value);

  00004	8d 45 fc	 lea	 eax, DWORD PTR _value$[ebp]
  00007	50		 push	 eax
  00008	e8 00 00 00 00	 call	 ?DecryptValueToPool@?$CEncrypt@M@@QAEXPAM@Z ; CEncrypt<float>::DecryptValueToPool

; 1678 : #ifdef _NOTUSE
; 1679 : 		Debug();
; 1680 : #endif
; 1681 : 		return value + inValue;

  0000d	8b 45 08	 mov	 eax, DWORD PTR _inValue$[ebp]
  00010	d9 00		 fld	 DWORD PTR [eax]
  00012	d8 45 fc	 fadd	 DWORD PTR _value$[ebp]
  00015	d9 5d 08	 fstp	 DWORD PTR tv130[ebp]
  00018	d9 45 08	 fld	 DWORD PTR tv130[ebp]

; 1682 : 	}

  0001b	c9		 leave
  0001c	c2 04 00	 ret	 4
??H?$CEncrypt@M@@QAEMABM@Z ENDP				; CEncrypt<float>::operator+
_TEXT	ENDS
PUBLIC	??D?$CEncrypt@M@@QAEMABM@Z			; CEncrypt<float>::operator*
; Function compile flags: /Ogsp
;	COMDAT ??D?$CEncrypt@M@@QAEMABM@Z
_TEXT	SEGMENT
_value$ = -4						; size = 4
tv130 = 8						; size = 4
_inValue$ = 8						; size = 4
??D?$CEncrypt@M@@QAEMABM@Z PROC				; CEncrypt<float>::operator*, COMDAT
; _this$ = ecx

; 1685 : 	{	

  00000	55		 push	 ebp
  00001	8b ec		 mov	 ebp, esp
  00003	51		 push	 ecx

; 1686 : 		type value;
; 1687 : 		DecryptValueToPool(&value);

  00004	8d 45 fc	 lea	 eax, DWORD PTR _value$[ebp]
  00007	50		 push	 eax
  00008	e8 00 00 00 00	 call	 ?DecryptValueToPool@?$CEncrypt@M@@QAEXPAM@Z ; CEncrypt<float>::DecryptValueToPool

; 1688 : #ifdef _NOTUSE
; 1689 : 		Debug();
; 1690 : #endif
; 1691 : 		return value * inValue;

  0000d	8b 45 08	 mov	 eax, DWORD PTR _inValue$[ebp]
  00010	d9 00		 fld	 DWORD PTR [eax]
  00012	d8 4d fc	 fmul	 DWORD PTR _value$[ebp]
  00015	d9 5d 08	 fstp	 DWORD PTR tv130[ebp]
  00018	d9 45 08	 fld	 DWORD PTR tv130[ebp]

; 1692 : 	}

  0001b	c9		 leave
  0001c	c2 04 00	 ret	 4
??D?$CEncrypt@M@@QAEMABM@Z ENDP				; CEncrypt<float>::operator*
_TEXT	ENDS
PUBLIC	??8?$CEncrypt@K@@QAE_NABH@Z			; CEncrypt<unsigned long>::operator==
; Function compile flags: /Ogsp
;	COMDAT ??8?$CEncrypt@K@@QAE_NABH@Z
_TEXT	SEGMENT
_value$ = -4						; size = 4
_inValue$ = 8						; size = 4
??8?$CEncrypt@K@@QAE_NABH@Z PROC			; CEncrypt<unsigned long>::operator==, COMDAT
; _this$ = ecx

; 976  : 	{

  00000	55		 push	 ebp
  00001	8b ec		 mov	 ebp, esp
  00003	51		 push	 ecx

; 977  : 		
; 978  : 		type value;
; 979  : 		DecryptValueToPool(&value);

  00004	8d 45 fc	 lea	 eax, DWORD PTR _value$[ebp]
  00007	50		 push	 eax
  00008	e8 00 00 00 00	 call	 ?DecryptValueToPool@?$CEncrypt@K@@QAEXPAK@Z ; CEncrypt<unsigned long>::DecryptValueToPool

; 980  : #ifdef _NOTUSE
; 981  : 		Debug();
; 982  : #endif
; 983  : 		return (value == inValue);

  0000d	8b 4d 08	 mov	 ecx, DWORD PTR _inValue$[ebp]
  00010	8b 55 fc	 mov	 edx, DWORD PTR _value$[ebp]
  00013	33 c0		 xor	 eax, eax
  00015	3b 11		 cmp	 edx, DWORD PTR [ecx]
  00017	0f 94 c0	 sete	 al

; 984  : 	} 

  0001a	c9		 leave
  0001b	c2 04 00	 ret	 4
??8?$CEncrypt@K@@QAE_NABH@Z ENDP			; CEncrypt<unsigned long>::operator==
_TEXT	ENDS
PUBLIC	??G?$CEncrypt@H@@QAEHABH@Z			; CEncrypt<int>::operator-
; Function compile flags: /Ogsp
;	COMDAT ??G?$CEncrypt@H@@QAEHABH@Z
_TEXT	SEGMENT
_value$ = -4						; size = 4
_inValue$ = 8						; size = 4
??G?$CEncrypt@H@@QAEHABH@Z PROC				; CEncrypt<int>::operator-, COMDAT
; _this$ = ecx

; 854  : 	{

  00000	55		 push	 ebp
  00001	8b ec		 mov	 ebp, esp
  00003	51		 push	 ecx

; 855  : 		type value;
; 856  : 		DecryptValueToPool(&value);

  00004	8d 45 fc	 lea	 eax, DWORD PTR _value$[ebp]
  00007	50		 push	 eax
  00008	e8 00 00 00 00	 call	 ?DecryptValueToPool@?$CEncrypt@H@@QAEXPAH@Z ; CEncrypt<int>::DecryptValueToPool

; 857  : #ifdef _NOTUSE
; 858  : 		Debug();
; 859  : #endif
; 860  : 		return value - inValue;

  0000d	8b 45 fc	 mov	 eax, DWORD PTR _value$[ebp]
  00010	8b 4d 08	 mov	 ecx, DWORD PTR _inValue$[ebp]
  00013	2b 01		 sub	 eax, DWORD PTR [ecx]

; 861  : 	}

  00015	c9		 leave
  00016	c2 04 00	 ret	 4
??G?$CEncrypt@H@@QAEHABH@Z ENDP				; CEncrypt<int>::operator-
_TEXT	ENDS
PUBLIC	?begin@?$vector@UtagSummonAttackInfo@@V?$allocator@UtagSummonAttackInfo@@@std@@@std@@QAE?AV?$_Vector_iterator@V?$_Vector_val@UtagSummonAttackInfo@@V?$allocator@UtagSummonAttackInfo@@@std@@@std@@@2@XZ ; std::vector<tagSummonAttackInfo,std::allocator<tagSummonAttackInfo> >::begin
; Function compile flags: /Ogsp
; File c:\program files (x86)\microsoft visual studio 10.0\vc\include\vector
;	COMDAT ?begin@?$vector@UtagSummonAttackInfo@@V?$allocator@UtagSummonAttackInfo@@@std@@@std@@QAE?AV?$_Vector_iterator@V?$_Vector_val@UtagSummonAttackInfo@@V?$allocator@UtagSummonAttackInfo@@@std@@@std@@@2@XZ
_TEXT	SEGMENT
___$ReturnUdt$ = 8					; size = 4
?begin@?$vector@UtagSummonAttackInfo@@V?$allocator@UtagSummonAttackInfo@@@std@@@std@@QAE?AV?$_Vector_iterator@V?$_Vector_val@UtagSummonAttackInfo@@V?$allocator@UtagSummonAttackInfo@@@std@@@std@@@2@XZ PROC ; std::vector<tagSummonAttackInfo,std::allocator<tagSummonAttackInfo> >::begin, COMDAT
; _this$ = ecx

; 781  : 		{	// return iterator for beginning of mutable sequence

  00000	55		 push	 ebp
  00001	8b ec		 mov	 ebp, esp

; 782  : 		return (iterator(this->_Myfirst, this));

  00003	8b 09		 mov	 ecx, DWORD PTR [ecx]
  00005	8b 45 08	 mov	 eax, DWORD PTR ___$ReturnUdt$[ebp]
  00008	89 08		 mov	 DWORD PTR [eax], ecx

; 783  : 		}

  0000a	5d		 pop	 ebp
  0000b	c2 04 00	 ret	 4
?begin@?$vector@UtagSummonAttackInfo@@V?$allocator@UtagSummonAttackInfo@@@std@@@std@@QAE?AV?$_Vector_iterator@V?$_Vector_val@UtagSummonAttackInfo@@V?$allocator@UtagSummonAttackInfo@@@std@@@std@@@2@XZ ENDP ; std::vector<tagSummonAttackInfo,std::allocator<tagSummonAttackInfo> >::begin
_TEXT	ENDS
PUBLIC	?begin@?$vector@UtagSummonAttackInfo@@V?$allocator@UtagSummonAttackInfo@@@std@@@std@@QBE?AV?$_Vector_const_iterator@V?$_Vector_val@UtagSummonAttackInfo@@V?$allocator@UtagSummonAttackInfo@@@std@@@std@@@2@XZ ; std::vector<tagSummonAttackInfo,std::allocator<tagSummonAttackInfo> >::begin
; Function compile flags: /Ogsp
;	COMDAT ?begin@?$vector@UtagSummonAttackInfo@@V?$allocator@UtagSummonAttackInfo@@@std@@@std@@QBE?AV?$_Vector_const_iterator@V?$_Vector_val@UtagSummonAttackInfo@@V?$allocator@UtagSummonAttackInfo@@@std@@@std@@@2@XZ
_TEXT	SEGMENT
___$ReturnUdt$ = 8					; size = 4
?begin@?$vector@UtagSummonAttackInfo@@V?$allocator@UtagSummonAttackInfo@@@std@@@std@@QBE?AV?$_Vector_const_iterator@V?$_Vector_val@UtagSummonAttackInfo@@V?$allocator@UtagSummonAttackInfo@@@std@@@std@@@2@XZ PROC ; std::vector<tagSummonAttackInfo,std::allocator<tagSummonAttackInfo> >::begin, COMDAT
; _this$ = ecx

; 786  : 		{	// return iterator for beginning of nonmutable sequence

  00000	55		 push	 ebp
  00001	8b ec		 mov	 ebp, esp

; 787  : 		return (const_iterator(this->_Myfirst, this));

  00003	8b 09		 mov	 ecx, DWORD PTR [ecx]
  00005	8b 45 08	 mov	 eax, DWORD PTR ___$ReturnUdt$[ebp]
  00008	89 08		 mov	 DWORD PTR [eax], ecx

; 788  : 		}

  0000a	5d		 pop	 ebp
  0000b	c2 04 00	 ret	 4
?begin@?$vector@UtagSummonAttackInfo@@V?$allocator@UtagSummonAttackInfo@@@std@@@std@@QBE?AV?$_Vector_const_iterator@V?$_Vector_val@UtagSummonAttackInfo@@V?$allocator@UtagSummonAttackInfo@@@std@@@std@@@2@XZ ENDP ; std::vector<tagSummonAttackInfo,std::allocator<tagSummonAttackInfo> >::begin
_TEXT	ENDS
PUBLIC	?end@?$vector@UtagSummonAttackInfo@@V?$allocator@UtagSummonAttackInfo@@@std@@@std@@QAE?AV?$_Vector_iterator@V?$_Vector_val@UtagSummonAttackInfo@@V?$allocator@UtagSummonAttackInfo@@@std@@@std@@@2@XZ ; std::vector<tagSummonAttackInfo,std::allocator<tagSummonAttackInfo> >::end
; Function compile flags: /Ogsp
;	COMDAT ?end@?$vector@UtagSummonAttackInfo@@V?$allocator@UtagSummonAttackInfo@@@std@@@std@@QAE?AV?$_Vector_iterator@V?$_Vector_val@UtagSummonAttackInfo@@V?$allocator@UtagSummonAttackInfo@@@std@@@std@@@2@XZ
_TEXT	SEGMENT
___$ReturnUdt$ = 8					; size = 4
?end@?$vector@UtagSummonAttackInfo@@V?$allocator@UtagSummonAttackInfo@@@std@@@std@@QAE?AV?$_Vector_iterator@V?$_Vector_val@UtagSummonAttackInfo@@V?$allocator@UtagSummonAttackInfo@@@std@@@std@@@2@XZ PROC ; std::vector<tagSummonAttackInfo,std::allocator<tagSummonAttackInfo> >::end, COMDAT
; _this$ = ecx

; 791  : 		{	// return iterator for end of mutable sequence

  00000	55		 push	 ebp
  00001	8b ec		 mov	 ebp, esp

; 792  : 		return (iterator(this->_Mylast, this));

  00003	8b 49 04	 mov	 ecx, DWORD PTR [ecx+4]
  00006	8b 45 08	 mov	 eax, DWORD PTR ___$ReturnUdt$[ebp]
  00009	89 08		 mov	 DWORD PTR [eax], ecx

; 793  : 		}

  0000b	5d		 pop	 ebp
  0000c	c2 04 00	 ret	 4
?end@?$vector@UtagSummonAttackInfo@@V?$allocator@UtagSummonAttackInfo@@@std@@@std@@QAE?AV?$_Vector_iterator@V?$_Vector_val@UtagSummonAttackInfo@@V?$allocator@UtagSummonAttackInfo@@@std@@@std@@@2@XZ ENDP ; std::vector<tagSummonAttackInfo,std::allocator<tagSummonAttackInfo> >::end
_TEXT	ENDS
PUBLIC	?end@?$vector@UtagSummonAttackInfo@@V?$allocator@UtagSummonAttackInfo@@@std@@@std@@QBE?AV?$_Vector_const_iterator@V?$_Vector_val@UtagSummonAttackInfo@@V?$allocator@UtagSummonAttackInfo@@@std@@@std@@@2@XZ ; std::vector<tagSummonAttackInfo,std::allocator<tagSummonAttackInfo> >::end
; Function compile flags: /Ogsp
;	COMDAT ?end@?$vector@UtagSummonAttackInfo@@V?$allocator@UtagSummonAttackInfo@@@std@@@std@@QBE?AV?$_Vector_const_iterator@V?$_Vector_val@UtagSummonAttackInfo@@V?$allocator@UtagSummonAttackInfo@@@std@@@std@@@2@XZ
_TEXT	SEGMENT
___$ReturnUdt$ = 8					; size = 4
?end@?$vector@UtagSummonAttackInfo@@V?$allocator@UtagSummonAttackInfo@@@std@@@std@@QBE?AV?$_Vector_const_iterator@V?$_Vector_val@UtagSummonAttackInfo@@V?$allocator@UtagSummonAttackInfo@@@std@@@std@@@2@XZ PROC ; std::vector<tagSummonAttackInfo,std::allocator<tagSummonAttackInfo> >::end, COMDAT
; _this$ = ecx

; 796  : 		{	// return iterator for end of nonmutable sequence

  00000	55		 push	 ebp
  00001	8b ec		 mov	 ebp, esp

; 797  : 		return (const_iterator(this->_Mylast, this));

  00003	8b 49 04	 mov	 ecx, DWORD PTR [ecx+4]
  00006	8b 45 08	 mov	 eax, DWORD PTR ___$ReturnUdt$[ebp]
  00009	89 08		 mov	 DWORD PTR [eax], ecx

; 798  : 		}

  0000b	5d		 pop	 ebp
  0000c	c2 04 00	 ret	 4
?end@?$vector@UtagSummonAttackInfo@@V?$allocator@UtagSummonAttackInfo@@@std@@@std@@QBE?AV?$_Vector_const_iterator@V?$_Vector_val@UtagSummonAttackInfo@@V?$allocator@UtagSummonAttackInfo@@@std@@@std@@@2@XZ ENDP ; std::vector<tagSummonAttackInfo,std::allocator<tagSummonAttackInfo> >::end
_TEXT	ENDS
PUBLIC	?max_size@?$vector@UtagSummonAttackInfo@@V?$allocator@UtagSummonAttackInfo@@@std@@@std@@QBEIXZ ; std::vector<tagSummonAttackInfo,std::allocator<tagSummonAttackInfo> >::max_size
; Function compile flags: /Ogsp
;	COMDAT ?max_size@?$vector@UtagSummonAttackInfo@@V?$allocator@UtagSummonAttackInfo@@@std@@@std@@QBEIXZ
_TEXT	SEGMENT
?max_size@?$vector@UtagSummonAttackInfo@@V?$allocator@UtagSummonAttackInfo@@@std@@@std@@QBEIXZ PROC ; std::vector<tagSummonAttackInfo,std::allocator<tagSummonAttackInfo> >::max_size, COMDAT
; _this$ = ecx

; 884  : 		return (this->_Alval.max_size());

  00000	b8 2c f7 34 02	 mov	 eax, 37025580		; 0234f72cH

; 885  : 		}

  00005	c3		 ret	 0
?max_size@?$vector@UtagSummonAttackInfo@@V?$allocator@UtagSummonAttackInfo@@@std@@@std@@QBEIXZ ENDP ; std::vector<tagSummonAttackInfo,std::allocator<tagSummonAttackInfo> >::max_size
_TEXT	ENDS
PUBLIC	??0?$_Vector_val@UtagSummonAttackInfo@@V?$allocator@UtagSummonAttackInfo@@@std@@@std@@QAE@V?$allocator@UtagSummonAttackInfo@@@1@@Z ; std::_Vector_val<tagSummonAttackInfo,std::allocator<tagSummonAttackInfo> >::_Vector_val<tagSummonAttackInfo,std::allocator<tagSummonAttackInfo> >
; Function compile flags: /Ogsp
;	COMDAT ??0?$_Vector_val@UtagSummonAttackInfo@@V?$allocator@UtagSummonAttackInfo@@@std@@@std@@QAE@V?$allocator@UtagSummonAttackInfo@@@1@@Z
_TEXT	SEGMENT
__Al$ = 8						; size = 1
??0?$_Vector_val@UtagSummonAttackInfo@@V?$allocator@UtagSummonAttackInfo@@@std@@@std@@QAE@V?$allocator@UtagSummonAttackInfo@@@1@@Z PROC ; std::_Vector_val<tagSummonAttackInfo,std::allocator<tagSummonAttackInfo> >::_Vector_val<tagSummonAttackInfo,std::allocator<tagSummonAttackInfo> >, COMDAT
; _this$ = ecx

; 426  : 		{	// construct allocator from _Al

  00000	8b c1		 mov	 eax, ecx

; 427  : 		_Myfirst = 0;

  00002	33 c9		 xor	 ecx, ecx
  00004	89 08		 mov	 DWORD PTR [eax], ecx

; 428  : 		_Mylast = 0;

  00006	89 48 04	 mov	 DWORD PTR [eax+4], ecx

; 429  : 		_Myend = 0;

  00009	89 48 08	 mov	 DWORD PTR [eax+8], ecx

; 430  : 		}

  0000c	c2 04 00	 ret	 4
??0?$_Vector_val@UtagSummonAttackInfo@@V?$allocator@UtagSummonAttackInfo@@@std@@@std@@QAE@V?$allocator@UtagSummonAttackInfo@@@1@@Z ENDP ; std::_Vector_val<tagSummonAttackInfo,std::allocator<tagSummonAttackInfo> >::_Vector_val<tagSummonAttackInfo,std::allocator<tagSummonAttackInfo> >
_TEXT	ENDS
PUBLIC	?allocate@?$allocator@UtagSummonAttackInfo@@@std@@QAEPAUtagSummonAttackInfo@@I@Z ; std::allocator<tagSummonAttackInfo>::allocate
; Function compile flags: /Ogsp
; File c:\program files (x86)\microsoft visual studio 10.0\vc\include\xmemory
;	COMDAT ?allocate@?$allocator@UtagSummonAttackInfo@@@std@@QAEPAUtagSummonAttackInfo@@I@Z
_TEXT	SEGMENT
__Count$ = 8						; size = 4
?allocate@?$allocator@UtagSummonAttackInfo@@@std@@QAEPAUtagSummonAttackInfo@@I@Z PROC ; std::allocator<tagSummonAttackInfo>::allocate, COMDAT
; _this$ = ecx

; 186  : 		{	// allocate array of _Count elements

  00000	55		 push	 ebp
  00001	8b ec		 mov	 ebp, esp

; 187  : 		return (_Allocate(_Count, (pointer)0));

  00003	6a 00		 push	 0
  00005	ff 75 08	 push	 DWORD PTR __Count$[ebp]
  00008	e8 00 00 00 00	 call	 ??$_Allocate@UtagSummonAttackInfo@@@std@@YAPAUtagSummonAttackInfo@@IPAU1@@Z ; std::_Allocate<tagSummonAttackInfo>
  0000d	59		 pop	 ecx
  0000e	59		 pop	 ecx

; 188  : 		}

  0000f	5d		 pop	 ebp
  00010	c2 04 00	 ret	 4
?allocate@?$allocator@UtagSummonAttackInfo@@@std@@QAEPAUtagSummonAttackInfo@@I@Z ENDP ; std::allocator<tagSummonAttackInfo>::allocate
_TEXT	ENDS
PUBLIC	?_Make_iter@?$vector@UtagSummonAttackInfo@@V?$allocator@UtagSummonAttackInfo@@@std@@@std@@QBE?AV?$_Vector_iterator@V?$_Vector_val@UtagSummonAttackInfo@@V?$allocator@UtagSummonAttackInfo@@@std@@@std@@@2@V?$_Vector_const_iterator@V?$_Vector_val@UtagSummonAttackInfo@@V?$allocator@UtagSummonAttackInfo@@@std@@@std@@@2@@Z ; std::vector<tagSummonAttackInfo,std::allocator<tagSummonAttackInfo> >::_Make_iter
; Function compile flags: /Ogsp
; File c:\program files (x86)\microsoft visual studio 10.0\vc\include\vector
;	COMDAT ?_Make_iter@?$vector@UtagSummonAttackInfo@@V?$allocator@UtagSummonAttackInfo@@@std@@@std@@QBE?AV?$_Vector_iterator@V?$_Vector_val@UtagSummonAttackInfo@@V?$allocator@UtagSummonAttackInfo@@@std@@@std@@@2@V?$_Vector_const_iterator@V?$_Vector_val@UtagSummonAttackInfo@@V?$allocator@UtagSummonAttackInfo@@@std@@@std@@@2@@Z
_TEXT	SEGMENT
___$ReturnUdt$ = 8					; size = 4
__Where$ = 12						; size = 4
?_Make_iter@?$vector@UtagSummonAttackInfo@@V?$allocator@UtagSummonAttackInfo@@@std@@@std@@QBE?AV?$_Vector_iterator@V?$_Vector_val@UtagSummonAttackInfo@@V?$allocator@UtagSummonAttackInfo@@@std@@@std@@@2@V?$_Vector_const_iterator@V?$_Vector_val@UtagSummonAttackInfo@@V?$allocator@UtagSummonAttackInfo@@@std@@@std@@@2@@Z PROC ; std::vector<tagSummonAttackInfo,std::allocator<tagSummonAttackInfo> >::_Make_iter, COMDAT
; _this$ = ecx

; 801  : 		{	// make iterator from const_iterator

  00000	55		 push	 ebp
  00001	8b ec		 mov	 ebp, esp

; 802  : 		return (iterator(_Where._Ptr, this));

  00003	8b 45 08	 mov	 eax, DWORD PTR ___$ReturnUdt$[ebp]
  00006	8b 4d 0c	 mov	 ecx, DWORD PTR __Where$[ebp]
  00009	89 08		 mov	 DWORD PTR [eax], ecx

; 803  : 		}

  0000b	5d		 pop	 ebp
  0000c	c2 08 00	 ret	 8
?_Make_iter@?$vector@UtagSummonAttackInfo@@V?$allocator@UtagSummonAttackInfo@@@std@@@std@@QBE?AV?$_Vector_iterator@V?$_Vector_val@UtagSummonAttackInfo@@V?$allocator@UtagSummonAttackInfo@@@std@@@std@@@2@V?$_Vector_const_iterator@V?$_Vector_val@UtagSummonAttackInfo@@V?$allocator@UtagSummonAttackInfo@@@std@@@std@@@2@@Z ENDP ; std::vector<tagSummonAttackInfo,std::allocator<tagSummonAttackInfo> >::_Make_iter
_TEXT	ENDS
PUBLIC	?_Grow_to@?$vector@UtagSummonAttackInfo@@V?$allocator@UtagSummonAttackInfo@@@std@@@std@@IBEII@Z ; std::vector<tagSummonAttackInfo,std::allocator<tagSummonAttackInfo> >::_Grow_to
; Function compile flags: /Ogsp
;	COMDAT ?_Grow_to@?$vector@UtagSummonAttackInfo@@V?$allocator@UtagSummonAttackInfo@@@std@@@std@@IBEII@Z
_TEXT	SEGMENT
__Count$ = 8						; size = 4
?_Grow_to@?$vector@UtagSummonAttackInfo@@V?$allocator@UtagSummonAttackInfo@@@std@@@std@@IBEII@Z PROC ; std::vector<tagSummonAttackInfo,std::allocator<tagSummonAttackInfo> >::_Grow_to, COMDAT
; _this$ = ecx

; 1274 : 		{	// grow by 50% or at least to _Count

  00000	55		 push	 ebp
  00001	8b ec		 mov	 ebp, esp

; 1275 : 		size_type _Capacity = capacity();

  00003	8b 41 08	 mov	 eax, DWORD PTR [ecx+8]
  00006	2b 01		 sub	 eax, DWORD PTR [ecx]
  00008	6a 74		 push	 116			; 00000074H
  0000a	99		 cdq
  0000b	59		 pop	 ecx
  0000c	f7 f9		 idiv	 ecx

; 1276 : 
; 1277 : 		_Capacity = max_size() - _Capacity / 2 < _Capacity
; 1278 : 			? 0 : _Capacity + _Capacity / 2;	// try to grow by 50%

  0000e	ba 2c f7 34 02	 mov	 edx, 37025580		; 0234f72cH
  00013	8b c8		 mov	 ecx, eax
  00015	d1 e9		 shr	 ecx, 1
  00017	2b d1		 sub	 edx, ecx
  00019	3b d0		 cmp	 edx, eax
  0001b	73 04		 jae	 SHORT $LN4@Grow_to
  0001d	33 c0		 xor	 eax, eax
  0001f	eb 02		 jmp	 SHORT $LN5@Grow_to
$LN4@Grow_to:
  00021	03 c1		 add	 eax, ecx
$LN5@Grow_to:

; 1279 : 		if (_Capacity < _Count)

  00023	3b 45 08	 cmp	 eax, DWORD PTR __Count$[ebp]

; 1280 : 			_Capacity = _Count;

  00026	0f 42 45 08	 cmovb	 eax, DWORD PTR __Count$[ebp]

; 1281 : 		return (_Capacity);
; 1282 : 		}

  0002a	5d		 pop	 ebp
  0002b	c2 04 00	 ret	 4
?_Grow_to@?$vector@UtagSummonAttackInfo@@V?$allocator@UtagSummonAttackInfo@@@std@@@std@@IBEII@Z ENDP ; std::vector<tagSummonAttackInfo,std::allocator<tagSummonAttackInfo> >::_Grow_to
_TEXT	ENDS
PUBLIC	??8?$_Vector_const_iterator@V?$_Vector_val@UtagSummonAttackInfo@@V?$allocator@UtagSummonAttackInfo@@@std@@@std@@@std@@QBE_NABV01@@Z ; std::_Vector_const_iterator<std::_Vector_val<tagSummonAttackInfo,std::allocator<tagSummonAttackInfo> > >::operator==
; Function compile flags: /Ogsp
;	COMDAT ??8?$_Vector_const_iterator@V?$_Vector_val@UtagSummonAttackInfo@@V?$allocator@UtagSummonAttackInfo@@@std@@@std@@@std@@QBE_NABV01@@Z
_TEXT	SEGMENT
__Right$ = 8						; size = 4
??8?$_Vector_const_iterator@V?$_Vector_val@UtagSummonAttackInfo@@V?$allocator@UtagSummonAttackInfo@@@std@@@std@@@std@@QBE_NABV01@@Z PROC ; std::_Vector_const_iterator<std::_Vector_val<tagSummonAttackInfo,std::allocator<tagSummonAttackInfo> > >::operator==, COMDAT
; _this$ = ecx

; 201  : 		{	// test for iterator equality

  00000	55		 push	 ebp
  00001	8b ec		 mov	 ebp, esp

; 202  : 		_Compat(_Right);
; 203  : 		return (this->_Ptr == _Right._Ptr);

  00003	8b 01		 mov	 eax, DWORD PTR [ecx]
  00005	8b 4d 08	 mov	 ecx, DWORD PTR __Right$[ebp]
  00008	2b 01		 sub	 eax, DWORD PTR [ecx]
  0000a	f7 d8		 neg	 eax
  0000c	1b c0		 sbb	 eax, eax
  0000e	40		 inc	 eax

; 204  : 		}

  0000f	5d		 pop	 ebp
  00010	c2 04 00	 ret	 4
??8?$_Vector_const_iterator@V?$_Vector_val@UtagSummonAttackInfo@@V?$allocator@UtagSummonAttackInfo@@@std@@@std@@@std@@QBE_NABV01@@Z ENDP ; std::_Vector_const_iterator<std::_Vector_val<tagSummonAttackInfo,std::allocator<tagSummonAttackInfo> > >::operator==
_TEXT	ENDS
PUBLIC	_this$GSCopy$
PUBLIC	__$ArrayPad$
PUBLIC	??$LoadString_e@$0BH@@ioINILoader@@QAEXAAY0BH@$$CBDAAY00$$CBDPADH@Z ; ioINILoader::LoadString_e<23>
EXTRN	__imp_?LoadStringA@ioINILoader@@QAEXPBD0PADH@Z:PROC
; Function compile flags: /Ogsp
; File d:\lost saga for developer\youtube\tutorial\source\src\io3dengine\ioiniloader.h
;	COMDAT ??$LoadString_e@$0BH@@ioINILoader@@QAEXAAY0BH@$$CBDAAY00$$CBDPADH@Z
_TEXT	SEGMENT
_this$GSCopy$ = -36					; size = 4
__k$ = -32						; size = 23
__$ArrayPad$ = -4					; size = 4
_k$ = 8							; size = 4
_d$ = 12						; size = 4
_b$ = 16						; size = 4
_i$ = 20						; size = 4
??$LoadString_e@$0BH@@ioINILoader@@QAEXAAY0BH@$$CBDAAY00$$CBDPADH@Z PROC ; ioINILoader::LoadString_e<23>, COMDAT
; _this$ = ecx

; 161  : 	{

  00000	55		 push	 ebp
  00001	8b ec		 mov	 ebp, esp
  00003	83 ec 24	 sub	 esp, 36			; 00000024H
  00006	a1 00 00 00 00	 mov	 eax, DWORD PTR ___security_cookie
  0000b	33 c5		 xor	 eax, ebp
  0000d	89 45 fc	 mov	 DWORD PTR __$ArrayPad$[ebp], eax
  00010	8b 45 08	 mov	 eax, DWORD PTR _k$[ebp]

; 162  : 		_ENCSTR(k, _k);

  00013	8a 10		 mov	 dl, BYTE PTR [eax]
  00015	53		 push	 ebx
  00016	56		 push	 esi
  00017	8b 75 0c	 mov	 esi, DWORD PTR _d$[ebp]
  0001a	57		 push	 edi
  0001b	8b 7d 10	 mov	 edi, DWORD PTR _b$[ebp]
  0001e	89 4d dc	 mov	 DWORD PTR _this$GSCopy$[ebp], ecx
  00021	84 d2		 test	 dl, dl
  00023	0f 84 2d 02 00
	00		 je	 $LN96@LoadString
  00029	80 f2 ed	 xor	 dl, -19			; ffffffedH
  0002c	88 55 e0	 mov	 BYTE PTR __k$[ebp], dl
  0002f	8a 50 01	 mov	 dl, BYTE PTR [eax+1]
  00032	84 d2		 test	 dl, dl
  00034	0f 84 16 02 00
	00		 je	 $LN95@LoadString
  0003a	b1 ec		 mov	 cl, -20			; ffffffecH
  0003c	32 d1		 xor	 dl, cl
  0003e	88 55 e1	 mov	 BYTE PTR __k$[ebp+1], dl
  00041	8a 50 02	 mov	 dl, BYTE PTR [eax+2]
  00044	84 d2		 test	 dl, dl
  00046	0f 84 fe 01 00
	00		 je	 $LN94@LoadString
  0004c	80 f2 eb	 xor	 dl, -21			; ffffffebH
  0004f	88 55 e2	 mov	 BYTE PTR __k$[ebp+2], dl
  00052	8a 50 03	 mov	 dl, BYTE PTR [eax+3]
  00055	84 d2		 test	 dl, dl
  00057	0f 84 e7 01 00
	00		 je	 $LN93@LoadString
  0005d	b3 ea		 mov	 bl, -22			; ffffffeaH
  0005f	32 d3		 xor	 dl, bl
  00061	88 55 e3	 mov	 BYTE PTR __k$[ebp+3], dl
  00064	8a 50 04	 mov	 dl, BYTE PTR [eax+4]
  00067	84 d2		 test	 dl, dl
  00069	0f 84 cf 01 00
	00		 je	 $LN92@LoadString
  0006f	80 f2 ed	 xor	 dl, -19			; ffffffedH
  00072	88 55 e4	 mov	 BYTE PTR __k$[ebp+4], dl
  00075	8a 50 05	 mov	 dl, BYTE PTR [eax+5]
  00078	84 d2		 test	 dl, dl
  0007a	0f 84 b9 01 00
	00		 je	 $LN91@LoadString
  00080	32 d1		 xor	 dl, cl
  00082	88 55 e5	 mov	 BYTE PTR __k$[ebp+5], dl
  00085	8a 50 06	 mov	 dl, BYTE PTR [eax+6]
  00088	84 d2		 test	 dl, dl
  0008a	0f 84 a3 01 00
	00		 je	 $LN90@LoadString
  00090	80 f2 eb	 xor	 dl, -21			; ffffffebH
  00093	88 55 e6	 mov	 BYTE PTR __k$[ebp+6], dl
  00096	8a 50 07	 mov	 dl, BYTE PTR [eax+7]
  00099	84 d2		 test	 dl, dl
  0009b	0f 84 8d 01 00
	00		 je	 $LN89@LoadString
  000a1	32 d3		 xor	 dl, bl
  000a3	88 55 e7	 mov	 BYTE PTR __k$[ebp+7], dl
  000a6	8a 50 08	 mov	 dl, BYTE PTR [eax+8]
  000a9	84 d2		 test	 dl, dl
  000ab	0f 84 77 01 00
	00		 je	 $LN88@LoadString
  000b1	80 f2 ed	 xor	 dl, -19			; ffffffedH
  000b4	88 55 e8	 mov	 BYTE PTR __k$[ebp+8], dl
  000b7	8a 50 09	 mov	 dl, BYTE PTR [eax+9]
  000ba	84 d2		 test	 dl, dl
  000bc	0f 84 61 01 00
	00		 je	 $LN87@LoadString
  000c2	32 d1		 xor	 dl, cl
  000c4	88 55 e9	 mov	 BYTE PTR __k$[ebp+9], dl
  000c7	8a 50 0a	 mov	 dl, BYTE PTR [eax+10]
  000ca	84 d2		 test	 dl, dl
  000cc	0f 84 4b 01 00
	00		 je	 $LN86@LoadString
  000d2	80 f2 eb	 xor	 dl, -21			; ffffffebH
  000d5	88 55 ea	 mov	 BYTE PTR __k$[ebp+10], dl
  000d8	8a 50 0b	 mov	 dl, BYTE PTR [eax+11]
  000db	84 d2		 test	 dl, dl
  000dd	0f 84 35 01 00
	00		 je	 $LN85@LoadString
  000e3	32 d3		 xor	 dl, bl
  000e5	88 55 eb	 mov	 BYTE PTR __k$[ebp+11], dl
  000e8	8a 50 0c	 mov	 dl, BYTE PTR [eax+12]
  000eb	84 d2		 test	 dl, dl
  000ed	0f 84 1f 01 00
	00		 je	 $LN84@LoadString
  000f3	80 f2 ed	 xor	 dl, -19			; ffffffedH
  000f6	88 55 ec	 mov	 BYTE PTR __k$[ebp+12], dl
  000f9	8a 50 0d	 mov	 dl, BYTE PTR [eax+13]
  000fc	84 d2		 test	 dl, dl
  000fe	0f 84 09 01 00
	00		 je	 $LN83@LoadString
  00104	32 d1		 xor	 dl, cl
  00106	88 55 ed	 mov	 BYTE PTR __k$[ebp+13], dl
  00109	8a 50 0e	 mov	 dl, BYTE PTR [eax+14]
  0010c	84 d2		 test	 dl, dl
  0010e	0f 84 f3 00 00
	00		 je	 $LN82@LoadString
  00114	80 f2 eb	 xor	 dl, -21			; ffffffebH
  00117	88 55 ee	 mov	 BYTE PTR __k$[ebp+14], dl
  0011a	8a 50 0f	 mov	 dl, BYTE PTR [eax+15]
  0011d	84 d2		 test	 dl, dl
  0011f	0f 84 dd 00 00
	00		 je	 $LN81@LoadString
  00125	32 d3		 xor	 dl, bl
  00127	88 55 ef	 mov	 BYTE PTR __k$[ebp+15], dl
  0012a	8a 50 10	 mov	 dl, BYTE PTR [eax+16]
  0012d	84 d2		 test	 dl, dl
  0012f	0f 84 c7 00 00
	00		 je	 $LN80@LoadString
  00135	80 f2 ed	 xor	 dl, -19			; ffffffedH
  00138	88 55 f0	 mov	 BYTE PTR __k$[ebp+16], dl
  0013b	8a 50 11	 mov	 dl, BYTE PTR [eax+17]
  0013e	84 d2		 test	 dl, dl
  00140	0f 84 b1 00 00
	00		 je	 $LN79@LoadString
  00146	32 d1		 xor	 dl, cl
  00148	88 55 f1	 mov	 BYTE PTR __k$[ebp+17], dl
  0014b	8a 50 12	 mov	 dl, BYTE PTR [eax+18]
  0014e	84 d2		 test	 dl, dl
  00150	0f 84 9b 00 00
	00		 je	 $LN78@LoadString
  00156	80 f2 eb	 xor	 dl, -21			; ffffffebH
  00159	88 55 f2	 mov	 BYTE PTR __k$[ebp+18], dl
  0015c	8a 50 13	 mov	 dl, BYTE PTR [eax+19]
  0015f	84 d2		 test	 dl, dl
  00161	0f 84 85 00 00
	00		 je	 $LN77@LoadString
  00167	32 d3		 xor	 dl, bl
  00169	88 55 f3	 mov	 BYTE PTR __k$[ebp+19], dl
  0016c	8a 50 14	 mov	 dl, BYTE PTR [eax+20]
  0016f	84 d2		 test	 dl, dl
  00171	74 73		 je	 SHORT $LN76@LoadString
  00173	80 f2 ed	 xor	 dl, -19			; ffffffedH
  00176	88 55 f4	 mov	 BYTE PTR __k$[ebp+20], dl
  00179	8a 50 15	 mov	 dl, BYTE PTR [eax+21]
  0017c	84 d2		 test	 dl, dl
  0017e	74 61		 je	 SHORT $LN75@LoadString
  00180	32 d1		 xor	 dl, cl
  00182	80 78 16 00	 cmp	 BYTE PTR [eax+22], 0
  00186	88 55 f5	 mov	 BYTE PTR __k$[ebp+21], dl
  00189	0f 84 cb 00 00
	00		 je	 $LN111@LoadString
  0018f	8a 50 17	 mov	 dl, BYTE PTR [eax+23]
  00192	84 d2		 test	 dl, dl
  00194	74 46		 je	 SHORT $LN73@LoadString
  00196	32 d3		 xor	 dl, bl
  00198	88 55 f7	 mov	 BYTE PTR __k$[ebp+23], dl
  0019b	8a 50 18	 mov	 dl, BYTE PTR [eax+24]
  0019e	84 d2		 test	 dl, dl
  001a0	74 34		 je	 SHORT $LN72@LoadString
  001a2	80 f2 ed	 xor	 dl, -19			; ffffffedH
  001a5	88 55 f8	 mov	 BYTE PTR __k$[ebp+24], dl
  001a8	8a 50 19	 mov	 dl, BYTE PTR [eax+25]
  001ab	84 d2		 test	 dl, dl
  001ad	74 1f		 je	 SHORT $LN71@LoadString
  001af	8a 40 1a	 mov	 al, BYTE PTR [eax+26]
  001b2	32 d1		 xor	 dl, cl
  001b4	88 55 f9	 mov	 BYTE PTR __k$[ebp+25], dl
  001b7	84 c0		 test	 al, al
  001b9	74 0a		 je	 SHORT $LN70@LoadString
  001bb	34 eb		 xor	 al, -21			; ffffffebH
  001bd	88 45 fa	 mov	 BYTE PTR __k$[ebp+26], al
  001c0	e9 95 00 00 00	 jmp	 $LN111@LoadString
$LN70@LoadString:
  001c5	c6 45 fa eb	 mov	 BYTE PTR __k$[ebp+26], -21 ; ffffffebH
  001c9	e9 8c 00 00 00	 jmp	 $LN111@LoadString
$LN71@LoadString:
  001ce	88 4d f9	 mov	 BYTE PTR __k$[ebp+25], cl
  001d1	e9 84 00 00 00	 jmp	 $LN111@LoadString
$LN72@LoadString:
  001d6	c6 45 f8 ed	 mov	 BYTE PTR __k$[ebp+24], -19 ; ffffffedH
  001da	eb 7e		 jmp	 SHORT $LN111@LoadString
$LN73@LoadString:
  001dc	88 5d f7	 mov	 BYTE PTR __k$[ebp+23], bl
  001df	eb 79		 jmp	 SHORT $LN111@LoadString
$LN75@LoadString:
  001e1	88 4d f5	 mov	 BYTE PTR __k$[ebp+21], cl
  001e4	eb 74		 jmp	 SHORT $LN111@LoadString
$LN76@LoadString:
  001e6	c6 45 f4 ed	 mov	 BYTE PTR __k$[ebp+20], -19 ; ffffffedH
  001ea	eb 6e		 jmp	 SHORT $LN111@LoadString
$LN77@LoadString:
  001ec	88 5d f3	 mov	 BYTE PTR __k$[ebp+19], bl
  001ef	eb 69		 jmp	 SHORT $LN111@LoadString
$LN78@LoadString:
  001f1	c6 45 f2 eb	 mov	 BYTE PTR __k$[ebp+18], -21 ; ffffffebH
  001f5	eb 63		 jmp	 SHORT $LN111@LoadString
$LN79@LoadString:
  001f7	88 4d f1	 mov	 BYTE PTR __k$[ebp+17], cl
  001fa	eb 5e		 jmp	 SHORT $LN111@LoadString
$LN80@LoadString:
  001fc	c6 45 f0 ed	 mov	 BYTE PTR __k$[ebp+16], -19 ; ffffffedH
  00200	eb 58		 jmp	 SHORT $LN111@LoadString
$LN81@LoadString:
  00202	88 5d ef	 mov	 BYTE PTR __k$[ebp+15], bl
  00205	eb 53		 jmp	 SHORT $LN111@LoadString
$LN82@LoadString:
  00207	c6 45 ee eb	 mov	 BYTE PTR __k$[ebp+14], -21 ; ffffffebH
  0020b	eb 4d		 jmp	 SHORT $LN111@LoadString
$LN83@LoadString:
  0020d	88 4d ed	 mov	 BYTE PTR __k$[ebp+13], cl
  00210	eb 48		 jmp	 SHORT $LN111@LoadString
$LN84@LoadString:
  00212	c6 45 ec ed	 mov	 BYTE PTR __k$[ebp+12], -19 ; ffffffedH
  00216	eb 42		 jmp	 SHORT $LN111@LoadString
$LN85@LoadString:
  00218	88 5d eb	 mov	 BYTE PTR __k$[ebp+11], bl
  0021b	eb 3d		 jmp	 SHORT $LN111@LoadString
$LN86@LoadString:
  0021d	c6 45 ea eb	 mov	 BYTE PTR __k$[ebp+10], -21 ; ffffffebH
  00221	eb 37		 jmp	 SHORT $LN111@LoadString
$LN87@LoadString:
  00223	88 4d e9	 mov	 BYTE PTR __k$[ebp+9], cl
  00226	eb 32		 jmp	 SHORT $LN111@LoadString
$LN88@LoadString:
  00228	c6 45 e8 ed	 mov	 BYTE PTR __k$[ebp+8], -19 ; ffffffedH
  0022c	eb 2c		 jmp	 SHORT $LN111@LoadString
$LN89@LoadString:
  0022e	88 5d e7	 mov	 BYTE PTR __k$[ebp+7], bl
  00231	eb 27		 jmp	 SHORT $LN111@LoadString
$LN90@LoadString:
  00233	c6 45 e6 eb	 mov	 BYTE PTR __k$[ebp+6], -21 ; ffffffebH
  00237	eb 21		 jmp	 SHORT $LN111@LoadString
$LN91@LoadString:
  00239	88 4d e5	 mov	 BYTE PTR __k$[ebp+5], cl
  0023c	eb 1c		 jmp	 SHORT $LN111@LoadString
$LN92@LoadString:
  0023e	c6 45 e4 ed	 mov	 BYTE PTR __k$[ebp+4], -19 ; ffffffedH
  00242	eb 16		 jmp	 SHORT $LN111@LoadString
$LN93@LoadString:
  00244	c6 45 e3 ea	 mov	 BYTE PTR __k$[ebp+3], -22 ; ffffffeaH
  00248	eb 10		 jmp	 SHORT $LN111@LoadString
$LN94@LoadString:
  0024a	c6 45 e2 eb	 mov	 BYTE PTR __k$[ebp+2], -21 ; ffffffebH
  0024e	eb 0a		 jmp	 SHORT $LN111@LoadString
$LN95@LoadString:
  00250	c6 45 e1 ec	 mov	 BYTE PTR __k$[ebp+1], -20 ; ffffffecH
  00254	eb 04		 jmp	 SHORT $LN111@LoadString
$LN96@LoadString:
  00256	c6 45 e0 ed	 mov	 BYTE PTR __k$[ebp], -19	; ffffffedH
$LN111@LoadString:
  0025a	6a 05		 push	 5
  0025c	8d 45 e0	 lea	 eax, DWORD PTR __k$[ebp]
  0025f	c6 45 f6 00	 mov	 BYTE PTR __k$[ebp+22], 0
  00263	5a		 pop	 edx
$LL104@LoadString:
  00264	81 30 ed ec eb
	ea		 xor	 DWORD PTR [eax], -353637139 ; eaebecedH
  0026a	83 c0 04	 add	 eax, 4
  0026d	4a		 dec	 edx
  0026e	75 f4		 jne	 SHORT $LL104@LoadString
  00270	6a 14		 push	 20			; 00000014H
  00272	58		 pop	 eax
$LL101@LoadString:
  00273	8b c8		 mov	 ecx, eax
  00275	81 e1 03 00 00
	80		 and	 ecx, -2147483645	; 80000003H
  0027b	79 05		 jns	 SHORT $LN112@LoadString
  0027d	49		 dec	 ecx
  0027e	83 c9 fc	 or	 ecx, -4			; fffffffcH
  00281	41		 inc	 ecx
$LN112@LoadString:
  00282	b2 ed		 mov	 dl, -19			; ffffffedH
  00284	2a d1		 sub	 dl, cl
  00286	30 54 05 e0	 xor	 BYTE PTR __k$[ebp+eax], dl
  0028a	40		 inc	 eax
  0028b	83 f8 16	 cmp	 eax, 22			; 00000016H
  0028e	7c e3		 jl	 SHORT $LL101@LoadString

; 163  : 		LoadString(_k, d, b, i);

  00290	ff 75 14	 push	 DWORD PTR _i$[ebp]
  00293	8b 4d dc	 mov	 ecx, DWORD PTR _this$GSCopy$[ebp]
  00296	57		 push	 edi
  00297	56		 push	 esi
  00298	8d 45 e0	 lea	 eax, DWORD PTR __k$[ebp]
  0029b	50		 push	 eax
  0029c	ff 15 00 00 00
	00		 call	 DWORD PTR __imp_?LoadStringA@ioINILoader@@QAEXPBD0PADH@Z

; 164  : 	}

  002a2	8b 4d fc	 mov	 ecx, DWORD PTR __$ArrayPad$[ebp]
  002a5	5f		 pop	 edi
  002a6	5e		 pop	 esi
  002a7	33 cd		 xor	 ecx, ebp
  002a9	5b		 pop	 ebx
  002aa	e8 00 00 00 00	 call	 @__security_check_cookie@4
  002af	c9		 leave
  002b0	c2 10 00	 ret	 16			; 00000010H
??$LoadString_e@$0BH@@ioINILoader@@QAEXAAY0BH@$$CBDAAY00$$CBDPADH@Z ENDP ; ioINILoader::LoadString_e<23>
_TEXT	ENDS
PUBLIC	_this$GSCopy$
PUBLIC	__$ArrayPad$
PUBLIC	??$LoadString_e@$0BE@@ioINILoader@@QAEXAAY0BE@$$CBDAAY00$$CBDPADH@Z ; ioINILoader::LoadString_e<20>
; Function compile flags: /Ogsp
;	COMDAT ??$LoadString_e@$0BE@@ioINILoader@@QAEXAAY0BE@$$CBDAAY00$$CBDPADH@Z
_TEXT	SEGMENT
_this$GSCopy$ = -32					; size = 4
__k$ = -28						; size = 20
__$ArrayPad$ = -4					; size = 4
_k$ = 8							; size = 4
_d$ = 12						; size = 4
_b$ = 16						; size = 4
_i$ = 20						; size = 4
??$LoadString_e@$0BE@@ioINILoader@@QAEXAAY0BE@$$CBDAAY00$$CBDPADH@Z PROC ; ioINILoader::LoadString_e<20>, COMDAT
; _this$ = ecx

; 161  : 	{

  00000	55		 push	 ebp
  00001	8b ec		 mov	 ebp, esp
  00003	83 ec 20	 sub	 esp, 32			; 00000020H
  00006	a1 00 00 00 00	 mov	 eax, DWORD PTR ___security_cookie
  0000b	33 c5		 xor	 eax, ebp
  0000d	89 45 fc	 mov	 DWORD PTR __$ArrayPad$[ebp], eax
  00010	8b 45 08	 mov	 eax, DWORD PTR _k$[ebp]

; 162  : 		_ENCSTR(k, _k);

  00013	8a 10		 mov	 dl, BYTE PTR [eax]
  00015	53		 push	 ebx
  00016	56		 push	 esi
  00017	8b 75 0c	 mov	 esi, DWORD PTR _d$[ebp]
  0001a	57		 push	 edi
  0001b	8b 7d 10	 mov	 edi, DWORD PTR _b$[ebp]
  0001e	89 4d e0	 mov	 DWORD PTR _this$GSCopy$[ebp], ecx
  00021	84 d2		 test	 dl, dl
  00023	0f 84 dd 01 00
	00		 je	 $LN96@LoadString@2
  00029	80 f2 ed	 xor	 dl, -19			; ffffffedH
  0002c	88 55 e4	 mov	 BYTE PTR __k$[ebp], dl
  0002f	8a 50 01	 mov	 dl, BYTE PTR [eax+1]
  00032	84 d2		 test	 dl, dl
  00034	0f 84 c6 01 00
	00		 je	 $LN95@LoadString@2
  0003a	b3 ec		 mov	 bl, -20			; ffffffecH
  0003c	32 d3		 xor	 dl, bl
  0003e	88 55 e5	 mov	 BYTE PTR __k$[ebp+1], dl
  00041	8a 50 02	 mov	 dl, BYTE PTR [eax+2]
  00044	84 d2		 test	 dl, dl
  00046	0f 84 ae 01 00
	00		 je	 $LN94@LoadString@2
  0004c	b1 eb		 mov	 cl, -21			; ffffffebH
  0004e	32 d1		 xor	 dl, cl
  00050	88 55 e6	 mov	 BYTE PTR __k$[ebp+2], dl
  00053	8a 50 03	 mov	 dl, BYTE PTR [eax+3]
  00056	84 d2		 test	 dl, dl
  00058	0f 84 96 01 00
	00		 je	 $LN93@LoadString@2
  0005e	80 f2 ea	 xor	 dl, -22			; ffffffeaH
  00061	88 55 e7	 mov	 BYTE PTR __k$[ebp+3], dl
  00064	8a 50 04	 mov	 dl, BYTE PTR [eax+4]
  00067	84 d2		 test	 dl, dl
  00069	0f 84 7f 01 00
	00		 je	 $LN92@LoadString@2
  0006f	80 f2 ed	 xor	 dl, -19			; ffffffedH
  00072	88 55 e8	 mov	 BYTE PTR __k$[ebp+4], dl
  00075	8a 50 05	 mov	 dl, BYTE PTR [eax+5]
  00078	84 d2		 test	 dl, dl
  0007a	0f 84 69 01 00
	00		 je	 $LN91@LoadString@2
  00080	32 d3		 xor	 dl, bl
  00082	88 55 e9	 mov	 BYTE PTR __k$[ebp+5], dl
  00085	8a 50 06	 mov	 dl, BYTE PTR [eax+6]
  00088	84 d2		 test	 dl, dl
  0008a	0f 84 54 01 00
	00		 je	 $LN90@LoadString@2
  00090	32 d1		 xor	 dl, cl
  00092	88 55 ea	 mov	 BYTE PTR __k$[ebp+6], dl
  00095	8a 50 07	 mov	 dl, BYTE PTR [eax+7]
  00098	84 d2		 test	 dl, dl
  0009a	0f 84 3e 01 00
	00		 je	 $LN89@LoadString@2
  000a0	80 f2 ea	 xor	 dl, -22			; ffffffeaH
  000a3	88 55 eb	 mov	 BYTE PTR __k$[ebp+7], dl
  000a6	8a 50 08	 mov	 dl, BYTE PTR [eax+8]
  000a9	84 d2		 test	 dl, dl
  000ab	0f 84 27 01 00
	00		 je	 $LN88@LoadString@2
  000b1	80 f2 ed	 xor	 dl, -19			; ffffffedH
  000b4	88 55 ec	 mov	 BYTE PTR __k$[ebp+8], dl
  000b7	8a 50 09	 mov	 dl, BYTE PTR [eax+9]
  000ba	84 d2		 test	 dl, dl
  000bc	0f 84 11 01 00
	00		 je	 $LN87@LoadString@2
  000c2	32 d3		 xor	 dl, bl
  000c4	88 55 ed	 mov	 BYTE PTR __k$[ebp+9], dl
  000c7	8a 50 0a	 mov	 dl, BYTE PTR [eax+10]
  000ca	84 d2		 test	 dl, dl
  000cc	0f 84 fc 00 00
	00		 je	 $LN86@LoadString@2
  000d2	32 d1		 xor	 dl, cl
  000d4	88 55 ee	 mov	 BYTE PTR __k$[ebp+10], dl
  000d7	8a 50 0b	 mov	 dl, BYTE PTR [eax+11]
  000da	84 d2		 test	 dl, dl
  000dc	0f 84 e6 00 00
	00		 je	 $LN85@LoadString@2
  000e2	80 f2 ea	 xor	 dl, -22			; ffffffeaH
  000e5	88 55 ef	 mov	 BYTE PTR __k$[ebp+11], dl
  000e8	8a 50 0c	 mov	 dl, BYTE PTR [eax+12]
  000eb	84 d2		 test	 dl, dl
  000ed	0f 84 cf 00 00
	00		 je	 $LN84@LoadString@2
  000f3	80 f2 ed	 xor	 dl, -19			; ffffffedH
  000f6	88 55 f0	 mov	 BYTE PTR __k$[ebp+12], dl
  000f9	8a 50 0d	 mov	 dl, BYTE PTR [eax+13]
  000fc	84 d2		 test	 dl, dl
  000fe	0f 84 b9 00 00
	00		 je	 $LN83@LoadString@2
  00104	32 d3		 xor	 dl, bl
  00106	88 55 f1	 mov	 BYTE PTR __k$[ebp+13], dl
  00109	8a 50 0e	 mov	 dl, BYTE PTR [eax+14]
  0010c	84 d2		 test	 dl, dl
  0010e	0f 84 a4 00 00
	00		 je	 $LN82@LoadString@2
  00114	32 d1		 xor	 dl, cl
  00116	88 55 f2	 mov	 BYTE PTR __k$[ebp+14], dl
  00119	8a 50 0f	 mov	 dl, BYTE PTR [eax+15]
  0011c	84 d2		 test	 dl, dl
  0011e	0f 84 8e 00 00
	00		 je	 $LN81@LoadString@2
  00124	80 f2 ea	 xor	 dl, -22			; ffffffeaH
  00127	88 55 f3	 mov	 BYTE PTR __k$[ebp+15], dl
  0012a	8a 50 10	 mov	 dl, BYTE PTR [eax+16]
  0012d	84 d2		 test	 dl, dl
  0012f	74 7b		 je	 SHORT $LN80@LoadString@2
  00131	80 f2 ed	 xor	 dl, -19			; ffffffedH
  00134	88 55 f4	 mov	 BYTE PTR __k$[ebp+16], dl
  00137	8a 50 11	 mov	 dl, BYTE PTR [eax+17]
  0013a	84 d2		 test	 dl, dl
  0013c	74 69		 je	 SHORT $LN79@LoadString@2
  0013e	32 d3		 xor	 dl, bl
  00140	88 55 f5	 mov	 BYTE PTR __k$[ebp+17], dl
  00143	8a 50 12	 mov	 dl, BYTE PTR [eax+18]
  00146	84 d2		 test	 dl, dl
  00148	74 58		 je	 SHORT $LN78@LoadString@2
  0014a	32 d1		 xor	 dl, cl
  0014c	80 78 13 00	 cmp	 BYTE PTR [eax+19], 0
  00150	88 55 f6	 mov	 BYTE PTR __k$[ebp+18], dl
  00153	0f 84 b1 00 00
	00		 je	 $LN111@LoadString@2
  00159	8a 50 14	 mov	 dl, BYTE PTR [eax+20]
  0015c	84 d2		 test	 dl, dl
  0015e	74 3c		 je	 SHORT $LN76@LoadString@2
  00160	80 f2 ed	 xor	 dl, -19			; ffffffedH
  00163	88 55 f8	 mov	 BYTE PTR __k$[ebp+20], dl
  00166	8a 50 15	 mov	 dl, BYTE PTR [eax+21]
  00169	84 d2		 test	 dl, dl
  0016b	74 2a		 je	 SHORT $LN75@LoadString@2
  0016d	32 d3		 xor	 dl, bl
  0016f	88 55 f9	 mov	 BYTE PTR __k$[ebp+21], dl
  00172	8a 50 16	 mov	 dl, BYTE PTR [eax+22]
  00175	84 d2		 test	 dl, dl
  00177	74 19		 je	 SHORT $LN74@LoadString@2
  00179	8a 40 17	 mov	 al, BYTE PTR [eax+23]
  0017c	32 d1		 xor	 dl, cl
  0017e	88 55 fa	 mov	 BYTE PTR __k$[ebp+22], dl
  00181	84 c0		 test	 al, al
  00183	74 07		 je	 SHORT $LN73@LoadString@2
  00185	34 ea		 xor	 al, -22			; ffffffeaH
  00187	88 45 fb	 mov	 BYTE PTR __k$[ebp+23], al
  0018a	eb 7e		 jmp	 SHORT $LN111@LoadString@2
$LN73@LoadString@2:
  0018c	c6 45 fb ea	 mov	 BYTE PTR __k$[ebp+23], -22 ; ffffffeaH
  00190	eb 78		 jmp	 SHORT $LN111@LoadString@2
$LN74@LoadString@2:
  00192	88 4d fa	 mov	 BYTE PTR __k$[ebp+22], cl
  00195	eb 73		 jmp	 SHORT $LN111@LoadString@2
$LN75@LoadString@2:
  00197	88 5d f9	 mov	 BYTE PTR __k$[ebp+21], bl
  0019a	eb 6e		 jmp	 SHORT $LN111@LoadString@2
$LN76@LoadString@2:
  0019c	c6 45 f8 ed	 mov	 BYTE PTR __k$[ebp+20], -19 ; ffffffedH
  001a0	eb 68		 jmp	 SHORT $LN111@LoadString@2
$LN78@LoadString@2:
  001a2	88 4d f6	 mov	 BYTE PTR __k$[ebp+18], cl
  001a5	eb 63		 jmp	 SHORT $LN111@LoadString@2
$LN79@LoadString@2:
  001a7	88 5d f5	 mov	 BYTE PTR __k$[ebp+17], bl
  001aa	eb 5e		 jmp	 SHORT $LN111@LoadString@2
$LN80@LoadString@2:
  001ac	c6 45 f4 ed	 mov	 BYTE PTR __k$[ebp+16], -19 ; ffffffedH
  001b0	eb 58		 jmp	 SHORT $LN111@LoadString@2
$LN81@LoadString@2:
  001b2	c6 45 f3 ea	 mov	 BYTE PTR __k$[ebp+15], -22 ; ffffffeaH
  001b6	eb 52		 jmp	 SHORT $LN111@LoadString@2
$LN82@LoadString@2:
  001b8	88 4d f2	 mov	 BYTE PTR __k$[ebp+14], cl
  001bb	eb 4d		 jmp	 SHORT $LN111@LoadString@2
$LN83@LoadString@2:
  001bd	88 5d f1	 mov	 BYTE PTR __k$[ebp+13], bl
  001c0	eb 48		 jmp	 SHORT $LN111@LoadString@2
$LN84@LoadString@2:
  001c2	c6 45 f0 ed	 mov	 BYTE PTR __k$[ebp+12], -19 ; ffffffedH
  001c6	eb 42		 jmp	 SHORT $LN111@LoadString@2
$LN85@LoadString@2:
  001c8	c6 45 ef ea	 mov	 BYTE PTR __k$[ebp+11], -22 ; ffffffeaH
  001cc	eb 3c		 jmp	 SHORT $LN111@LoadString@2
$LN86@LoadString@2:
  001ce	88 4d ee	 mov	 BYTE PTR __k$[ebp+10], cl
  001d1	eb 37		 jmp	 SHORT $LN111@LoadString@2
$LN87@LoadString@2:
  001d3	88 5d ed	 mov	 BYTE PTR __k$[ebp+9], bl
  001d6	eb 32		 jmp	 SHORT $LN111@LoadString@2
$LN88@LoadString@2:
  001d8	c6 45 ec ed	 mov	 BYTE PTR __k$[ebp+8], -19 ; ffffffedH
  001dc	eb 2c		 jmp	 SHORT $LN111@LoadString@2
$LN89@LoadString@2:
  001de	c6 45 eb ea	 mov	 BYTE PTR __k$[ebp+7], -22 ; ffffffeaH
  001e2	eb 26		 jmp	 SHORT $LN111@LoadString@2
$LN90@LoadString@2:
  001e4	88 4d ea	 mov	 BYTE PTR __k$[ebp+6], cl
  001e7	eb 21		 jmp	 SHORT $LN111@LoadString@2
$LN91@LoadString@2:
  001e9	88 5d e9	 mov	 BYTE PTR __k$[ebp+5], bl
  001ec	eb 1c		 jmp	 SHORT $LN111@LoadString@2
$LN92@LoadString@2:
  001ee	c6 45 e8 ed	 mov	 BYTE PTR __k$[ebp+4], -19 ; ffffffedH
  001f2	eb 16		 jmp	 SHORT $LN111@LoadString@2
$LN93@LoadString@2:
  001f4	c6 45 e7 ea	 mov	 BYTE PTR __k$[ebp+3], -22 ; ffffffeaH
  001f8	eb 10		 jmp	 SHORT $LN111@LoadString@2
$LN94@LoadString@2:
  001fa	c6 45 e6 eb	 mov	 BYTE PTR __k$[ebp+2], -21 ; ffffffebH
  001fe	eb 0a		 jmp	 SHORT $LN111@LoadString@2
$LN95@LoadString@2:
  00200	c6 45 e5 ec	 mov	 BYTE PTR __k$[ebp+1], -20 ; ffffffecH
  00204	eb 04		 jmp	 SHORT $LN111@LoadString@2
$LN96@LoadString@2:
  00206	c6 45 e4 ed	 mov	 BYTE PTR __k$[ebp], -19	; ffffffedH
$LN111@LoadString@2:
  0020a	6a 04		 push	 4
  0020c	8d 45 e4	 lea	 eax, DWORD PTR __k$[ebp]
  0020f	c6 45 f7 00	 mov	 BYTE PTR __k$[ebp+19], 0
  00213	5a		 pop	 edx
$LL104@LoadString@2:
  00214	81 30 ed ec eb
	ea		 xor	 DWORD PTR [eax], -353637139 ; eaebecedH
  0021a	83 c0 04	 add	 eax, 4
  0021d	4a		 dec	 edx
  0021e	75 f4		 jne	 SHORT $LL104@LoadString@2
  00220	6a 10		 push	 16			; 00000010H
  00222	58		 pop	 eax
$LL101@LoadString@2:
  00223	8b c8		 mov	 ecx, eax
  00225	81 e1 03 00 00
	80		 and	 ecx, -2147483645	; 80000003H
  0022b	79 05		 jns	 SHORT $LN112@LoadString@2
  0022d	49		 dec	 ecx
  0022e	83 c9 fc	 or	 ecx, -4			; fffffffcH
  00231	41		 inc	 ecx
$LN112@LoadString@2:
  00232	b2 ed		 mov	 dl, -19			; ffffffedH
  00234	2a d1		 sub	 dl, cl
  00236	30 54 05 e4	 xor	 BYTE PTR __k$[ebp+eax], dl
  0023a	40		 inc	 eax
  0023b	83 f8 13	 cmp	 eax, 19			; 00000013H
  0023e	7c e3		 jl	 SHORT $LL101@LoadString@2

; 163  : 		LoadString(_k, d, b, i);

  00240	ff 75 14	 push	 DWORD PTR _i$[ebp]
  00243	8b 4d e0	 mov	 ecx, DWORD PTR _this$GSCopy$[ebp]
  00246	57		 push	 edi
  00247	56		 push	 esi
  00248	8d 45 e4	 lea	 eax, DWORD PTR __k$[ebp]
  0024b	50		 push	 eax
  0024c	ff 15 00 00 00
	00		 call	 DWORD PTR __imp_?LoadStringA@ioINILoader@@QAEXPBD0PADH@Z

; 164  : 	}

  00252	8b 4d fc	 mov	 ecx, DWORD PTR __$ArrayPad$[ebp]
  00255	5f		 pop	 edi
  00256	5e		 pop	 esi
  00257	33 cd		 xor	 ecx, ebp
  00259	5b		 pop	 ebx
  0025a	e8 00 00 00 00	 call	 @__security_check_cookie@4
  0025f	c9		 leave
  00260	c2 10 00	 ret	 16			; 00000010H
??$LoadString_e@$0BE@@ioINILoader@@QAEXAAY0BE@$$CBDAAY00$$CBDPADH@Z ENDP ; ioINILoader::LoadString_e<20>
_TEXT	ENDS
PUBLIC	__$ArrayPad$
PUBLIC	??$LoadFloat_e@$0BD@@ioINILoader@@QAEMAAY0BD@$$CBDM@Z ; ioINILoader::LoadFloat_e<19>
EXTRN	__imp_?LoadFloat@ioINILoader@@QAEMPBDM@Z:PROC
; Function compile flags: /Ogsp
;	COMDAT ??$LoadFloat_e@$0BD@@ioINILoader@@QAEMAAY0BD@$$CBDM@Z
_TEXT	SEGMENT
__k$ = -28						; size = 19
__$ArrayPad$ = -4					; size = 4
_k$ = 8							; size = 4
_f$ = 12						; size = 4
??$LoadFloat_e@$0BD@@ioINILoader@@QAEMAAY0BD@$$CBDM@Z PROC ; ioINILoader::LoadFloat_e<19>, COMDAT
; _this$ = ecx

; 135  : 	{

  00000	55		 push	 ebp
  00001	8b ec		 mov	 ebp, esp
  00003	83 ec 1c	 sub	 esp, 28			; 0000001cH
  00006	a1 00 00 00 00	 mov	 eax, DWORD PTR ___security_cookie
  0000b	33 c5		 xor	 eax, ebp
  0000d	89 45 fc	 mov	 DWORD PTR __$ArrayPad$[ebp], eax
  00010	8b 45 08	 mov	 eax, DWORD PTR _k$[ebp]

; 136  : 		_ENCSTR(k, _k);

  00013	8a 10		 mov	 dl, BYTE PTR [eax]
  00015	56		 push	 esi
  00016	8b f1		 mov	 esi, ecx
  00018	84 d2		 test	 dl, dl
  0001a	0f 84 cf 01 00
	00		 je	 $LN96@LoadFloat_
  00020	80 f2 ed	 xor	 dl, -19			; ffffffedH
  00023	88 55 e4	 mov	 BYTE PTR __k$[ebp], dl
  00026	8a 50 01	 mov	 dl, BYTE PTR [eax+1]
  00029	84 d2		 test	 dl, dl
  0002b	0f 84 b8 01 00
	00		 je	 $LN95@LoadFloat_
  00031	b1 ec		 mov	 cl, -20			; ffffffecH
  00033	32 d1		 xor	 dl, cl
  00035	88 55 e5	 mov	 BYTE PTR __k$[ebp+1], dl
  00038	8a 50 02	 mov	 dl, BYTE PTR [eax+2]
  0003b	84 d2		 test	 dl, dl
  0003d	0f 84 a0 01 00
	00		 je	 $LN94@LoadFloat_
  00043	80 f2 eb	 xor	 dl, -21			; ffffffebH
  00046	88 55 e6	 mov	 BYTE PTR __k$[ebp+2], dl
  00049	8a 50 03	 mov	 dl, BYTE PTR [eax+3]
  0004c	84 d2		 test	 dl, dl
  0004e	0f 84 89 01 00
	00		 je	 $LN93@LoadFloat_
  00054	80 f2 ea	 xor	 dl, -22			; ffffffeaH
  00057	88 55 e7	 mov	 BYTE PTR __k$[ebp+3], dl
  0005a	8a 50 04	 mov	 dl, BYTE PTR [eax+4]
  0005d	84 d2		 test	 dl, dl
  0005f	0f 84 72 01 00
	00		 je	 $LN92@LoadFloat_
  00065	80 f2 ed	 xor	 dl, -19			; ffffffedH
  00068	88 55 e8	 mov	 BYTE PTR __k$[ebp+4], dl
  0006b	8a 50 05	 mov	 dl, BYTE PTR [eax+5]
  0006e	84 d2		 test	 dl, dl
  00070	0f 84 5c 01 00
	00		 je	 $LN91@LoadFloat_
  00076	32 d1		 xor	 dl, cl
  00078	88 55 e9	 mov	 BYTE PTR __k$[ebp+5], dl
  0007b	8a 50 06	 mov	 dl, BYTE PTR [eax+6]
  0007e	84 d2		 test	 dl, dl
  00080	0f 84 46 01 00
	00		 je	 $LN90@LoadFloat_
  00086	80 f2 eb	 xor	 dl, -21			; ffffffebH
  00089	88 55 ea	 mov	 BYTE PTR __k$[ebp+6], dl
  0008c	8a 50 07	 mov	 dl, BYTE PTR [eax+7]
  0008f	84 d2		 test	 dl, dl
  00091	0f 84 2f 01 00
	00		 je	 $LN89@LoadFloat_
  00097	80 f2 ea	 xor	 dl, -22			; ffffffeaH
  0009a	88 55 eb	 mov	 BYTE PTR __k$[ebp+7], dl
  0009d	8a 50 08	 mov	 dl, BYTE PTR [eax+8]
  000a0	84 d2		 test	 dl, dl
  000a2	0f 84 18 01 00
	00		 je	 $LN88@LoadFloat_
  000a8	80 f2 ed	 xor	 dl, -19			; ffffffedH
  000ab	88 55 ec	 mov	 BYTE PTR __k$[ebp+8], dl
  000ae	8a 50 09	 mov	 dl, BYTE PTR [eax+9]
  000b1	84 d2		 test	 dl, dl
  000b3	0f 84 02 01 00
	00		 je	 $LN87@LoadFloat_
  000b9	32 d1		 xor	 dl, cl
  000bb	88 55 ed	 mov	 BYTE PTR __k$[ebp+9], dl
  000be	8a 50 0a	 mov	 dl, BYTE PTR [eax+10]
  000c1	84 d2		 test	 dl, dl
  000c3	0f 84 ec 00 00
	00		 je	 $LN86@LoadFloat_
  000c9	80 f2 eb	 xor	 dl, -21			; ffffffebH
  000cc	88 55 ee	 mov	 BYTE PTR __k$[ebp+10], dl
  000cf	8a 50 0b	 mov	 dl, BYTE PTR [eax+11]
  000d2	84 d2		 test	 dl, dl
  000d4	0f 84 d5 00 00
	00		 je	 $LN85@LoadFloat_
  000da	80 f2 ea	 xor	 dl, -22			; ffffffeaH
  000dd	88 55 ef	 mov	 BYTE PTR __k$[ebp+11], dl
  000e0	8a 50 0c	 mov	 dl, BYTE PTR [eax+12]
  000e3	84 d2		 test	 dl, dl
  000e5	0f 84 be 00 00
	00		 je	 $LN84@LoadFloat_
  000eb	80 f2 ed	 xor	 dl, -19			; ffffffedH
  000ee	88 55 f0	 mov	 BYTE PTR __k$[ebp+12], dl
  000f1	8a 50 0d	 mov	 dl, BYTE PTR [eax+13]
  000f4	84 d2		 test	 dl, dl
  000f6	0f 84 a8 00 00
	00		 je	 $LN83@LoadFloat_
  000fc	32 d1		 xor	 dl, cl
  000fe	88 55 f1	 mov	 BYTE PTR __k$[ebp+13], dl
  00101	8a 50 0e	 mov	 dl, BYTE PTR [eax+14]
  00104	84 d2		 test	 dl, dl
  00106	0f 84 92 00 00
	00		 je	 $LN82@LoadFloat_
  0010c	80 f2 eb	 xor	 dl, -21			; ffffffebH
  0010f	88 55 f2	 mov	 BYTE PTR __k$[ebp+14], dl
  00112	8a 50 0f	 mov	 dl, BYTE PTR [eax+15]
  00115	84 d2		 test	 dl, dl
  00117	74 7f		 je	 SHORT $LN81@LoadFloat_
  00119	80 f2 ea	 xor	 dl, -22			; ffffffeaH
  0011c	88 55 f3	 mov	 BYTE PTR __k$[ebp+15], dl
  0011f	8a 50 10	 mov	 dl, BYTE PTR [eax+16]
  00122	84 d2		 test	 dl, dl
  00124	74 6c		 je	 SHORT $LN80@LoadFloat_
  00126	80 f2 ed	 xor	 dl, -19			; ffffffedH
  00129	88 55 f4	 mov	 BYTE PTR __k$[ebp+16], dl
  0012c	8a 50 11	 mov	 dl, BYTE PTR [eax+17]
  0012f	84 d2		 test	 dl, dl
  00131	74 5a		 je	 SHORT $LN79@LoadFloat_
  00133	32 d1		 xor	 dl, cl
  00135	80 78 12 00	 cmp	 BYTE PTR [eax+18], 0
  00139	88 55 f5	 mov	 BYTE PTR __k$[ebp+17], dl
  0013c	0f 84 b1 00 00
	00		 je	 $LN1@LoadFloat_
  00142	8a 50 13	 mov	 dl, BYTE PTR [eax+19]
  00145	84 d2		 test	 dl, dl
  00147	74 3e		 je	 SHORT $LN77@LoadFloat_
  00149	80 f2 ea	 xor	 dl, -22			; ffffffeaH
  0014c	88 55 f7	 mov	 BYTE PTR __k$[ebp+19], dl
  0014f	8a 50 14	 mov	 dl, BYTE PTR [eax+20]
  00152	84 d2		 test	 dl, dl
  00154	74 2b		 je	 SHORT $LN76@LoadFloat_
  00156	80 f2 ed	 xor	 dl, -19			; ffffffedH
  00159	88 55 f8	 mov	 BYTE PTR __k$[ebp+20], dl
  0015c	8a 50 15	 mov	 dl, BYTE PTR [eax+21]
  0015f	84 d2		 test	 dl, dl
  00161	74 19		 je	 SHORT $LN75@LoadFloat_
  00163	8a 40 16	 mov	 al, BYTE PTR [eax+22]
  00166	32 d1		 xor	 dl, cl
  00168	88 55 f9	 mov	 BYTE PTR __k$[ebp+21], dl
  0016b	84 c0		 test	 al, al
  0016d	74 07		 je	 SHORT $LN74@LoadFloat_
  0016f	34 eb		 xor	 al, -21			; ffffffebH
  00171	88 45 fa	 mov	 BYTE PTR __k$[ebp+22], al
  00174	eb 7d		 jmp	 SHORT $LN1@LoadFloat_
$LN74@LoadFloat_:
  00176	c6 45 fa eb	 mov	 BYTE PTR __k$[ebp+22], -21 ; ffffffebH
  0017a	eb 77		 jmp	 SHORT $LN1@LoadFloat_
$LN75@LoadFloat_:
  0017c	88 4d f9	 mov	 BYTE PTR __k$[ebp+21], cl
  0017f	eb 72		 jmp	 SHORT $LN1@LoadFloat_
$LN76@LoadFloat_:
  00181	c6 45 f8 ed	 mov	 BYTE PTR __k$[ebp+20], -19 ; ffffffedH
  00185	eb 6c		 jmp	 SHORT $LN1@LoadFloat_
$LN77@LoadFloat_:
  00187	c6 45 f7 ea	 mov	 BYTE PTR __k$[ebp+19], -22 ; ffffffeaH
  0018b	eb 66		 jmp	 SHORT $LN1@LoadFloat_
$LN79@LoadFloat_:
  0018d	88 4d f5	 mov	 BYTE PTR __k$[ebp+17], cl
  00190	eb 61		 jmp	 SHORT $LN1@LoadFloat_
$LN80@LoadFloat_:
  00192	c6 45 f4 ed	 mov	 BYTE PTR __k$[ebp+16], -19 ; ffffffedH
  00196	eb 5b		 jmp	 SHORT $LN1@LoadFloat_
$LN81@LoadFloat_:
  00198	c6 45 f3 ea	 mov	 BYTE PTR __k$[ebp+15], -22 ; ffffffeaH
  0019c	eb 55		 jmp	 SHORT $LN1@LoadFloat_
$LN82@LoadFloat_:
  0019e	c6 45 f2 eb	 mov	 BYTE PTR __k$[ebp+14], -21 ; ffffffebH
  001a2	eb 4f		 jmp	 SHORT $LN1@LoadFloat_
$LN83@LoadFloat_:
  001a4	88 4d f1	 mov	 BYTE PTR __k$[ebp+13], cl
  001a7	eb 4a		 jmp	 SHORT $LN1@LoadFloat_
$LN84@LoadFloat_:
  001a9	c6 45 f0 ed	 mov	 BYTE PTR __k$[ebp+12], -19 ; ffffffedH
  001ad	eb 44		 jmp	 SHORT $LN1@LoadFloat_
$LN85@LoadFloat_:
  001af	c6 45 ef ea	 mov	 BYTE PTR __k$[ebp+11], -22 ; ffffffeaH
  001b3	eb 3e		 jmp	 SHORT $LN1@LoadFloat_
$LN86@LoadFloat_:
  001b5	c6 45 ee eb	 mov	 BYTE PTR __k$[ebp+10], -21 ; ffffffebH
  001b9	eb 38		 jmp	 SHORT $LN1@LoadFloat_
$LN87@LoadFloat_:
  001bb	88 4d ed	 mov	 BYTE PTR __k$[ebp+9], cl
  001be	eb 33		 jmp	 SHORT $LN1@LoadFloat_
$LN88@LoadFloat_:
  001c0	c6 45 ec ed	 mov	 BYTE PTR __k$[ebp+8], -19 ; ffffffedH
  001c4	eb 2d		 jmp	 SHORT $LN1@LoadFloat_
$LN89@LoadFloat_:
  001c6	c6 45 eb ea	 mov	 BYTE PTR __k$[ebp+7], -22 ; ffffffeaH
  001ca	eb 27		 jmp	 SHORT $LN1@LoadFloat_
$LN90@LoadFloat_:
  001cc	c6 45 ea eb	 mov	 BYTE PTR __k$[ebp+6], -21 ; ffffffebH
  001d0	eb 21		 jmp	 SHORT $LN1@LoadFloat_
$LN91@LoadFloat_:
  001d2	88 4d e9	 mov	 BYTE PTR __k$[ebp+5], cl
  001d5	eb 1c		 jmp	 SHORT $LN1@LoadFloat_
$LN92@LoadFloat_:
  001d7	c6 45 e8 ed	 mov	 BYTE PTR __k$[ebp+4], -19 ; ffffffedH
  001db	eb 16		 jmp	 SHORT $LN1@LoadFloat_
$LN93@LoadFloat_:
  001dd	c6 45 e7 ea	 mov	 BYTE PTR __k$[ebp+3], -22 ; ffffffeaH
  001e1	eb 10		 jmp	 SHORT $LN1@LoadFloat_
$LN94@LoadFloat_:
  001e3	c6 45 e6 eb	 mov	 BYTE PTR __k$[ebp+2], -21 ; ffffffebH
  001e7	eb 0a		 jmp	 SHORT $LN1@LoadFloat_
$LN95@LoadFloat_:
  001e9	c6 45 e5 ec	 mov	 BYTE PTR __k$[ebp+1], -20 ; ffffffecH
  001ed	eb 04		 jmp	 SHORT $LN1@LoadFloat_
$LN96@LoadFloat_:
  001ef	c6 45 e4 ed	 mov	 BYTE PTR __k$[ebp], -19	; ffffffedH
$LN1@LoadFloat_:
  001f3	6a 04		 push	 4
  001f5	8d 45 e4	 lea	 eax, DWORD PTR __k$[ebp]
  001f8	c6 45 f6 00	 mov	 BYTE PTR __k$[ebp+18], 0
  001fc	5a		 pop	 edx
$LL104@LoadFloat_:
  001fd	81 30 ed ec eb
	ea		 xor	 DWORD PTR [eax], -353637139 ; eaebecedH
  00203	83 c0 04	 add	 eax, 4
  00206	4a		 dec	 edx
  00207	75 f4		 jne	 SHORT $LL104@LoadFloat_
  00209	6a 10		 push	 16			; 00000010H
  0020b	58		 pop	 eax
$LL101@LoadFloat_:
  0020c	8b c8		 mov	 ecx, eax
  0020e	81 e1 03 00 00
	80		 and	 ecx, -2147483645	; 80000003H
  00214	79 05		 jns	 SHORT $LN111@LoadFloat_
  00216	49		 dec	 ecx
  00217	83 c9 fc	 or	 ecx, -4			; fffffffcH
  0021a	41		 inc	 ecx
$LN111@LoadFloat_:
  0021b	b2 ed		 mov	 dl, -19			; ffffffedH
  0021d	2a d1		 sub	 dl, cl
  0021f	30 54 05 e4	 xor	 BYTE PTR __k$[ebp+eax], dl
  00223	40		 inc	 eax
  00224	83 f8 12	 cmp	 eax, 18			; 00000012H
  00227	7c e3		 jl	 SHORT $LL101@LoadFloat_

; 137  : 		return LoadFloat(_k, f);

  00229	f3 0f 10 45 0c	 movss	 xmm0, DWORD PTR _f$[ebp]
  0022e	51		 push	 ecx
  0022f	8d 45 e4	 lea	 eax, DWORD PTR __k$[ebp]
  00232	f3 0f 11 04 24	 movss	 DWORD PTR [esp], xmm0
  00237	50		 push	 eax
  00238	8b ce		 mov	 ecx, esi
  0023a	ff 15 00 00 00
	00		 call	 DWORD PTR __imp_?LoadFloat@ioINILoader@@QAEMPBDM@Z

; 138  : 	}

  00240	8b 4d fc	 mov	 ecx, DWORD PTR __$ArrayPad$[ebp]
  00243	33 cd		 xor	 ecx, ebp
  00245	5e		 pop	 esi
  00246	e8 00 00 00 00	 call	 @__security_check_cookie@4
  0024b	c9		 leave
  0024c	c2 08 00	 ret	 8
??$LoadFloat_e@$0BD@@ioINILoader@@QAEMAAY0BD@$$CBDM@Z ENDP ; ioINILoader::LoadFloat_e<19>
_TEXT	ENDS
PUBLIC	_this$GSCopy$
PUBLIC	__$ArrayPad$
PUBLIC	??$LoadString_e@$0BA@@ioINILoader@@QAEXAAY0BA@$$CBDAAY00$$CBDPADH@Z ; ioINILoader::LoadString_e<16>
; Function compile flags: /Ogsp
;	COMDAT ??$LoadString_e@$0BA@@ioINILoader@@QAEXAAY0BA@$$CBDAAY00$$CBDPADH@Z
_TEXT	SEGMENT
_this$GSCopy$ = -28					; size = 4
__k$ = -24						; size = 16
__$ArrayPad$ = -4					; size = 4
_k$ = 8							; size = 4
_d$ = 12						; size = 4
_b$ = 16						; size = 4
_i$ = 20						; size = 4
??$LoadString_e@$0BA@@ioINILoader@@QAEXAAY0BA@$$CBDAAY00$$CBDPADH@Z PROC ; ioINILoader::LoadString_e<16>, COMDAT
; _this$ = ecx

; 161  : 	{

  00000	55		 push	 ebp
  00001	8b ec		 mov	 ebp, esp
  00003	83 ec 1c	 sub	 esp, 28			; 0000001cH
  00006	a1 00 00 00 00	 mov	 eax, DWORD PTR ___security_cookie
  0000b	33 c5		 xor	 eax, ebp
  0000d	89 45 fc	 mov	 DWORD PTR __$ArrayPad$[ebp], eax
  00010	8b 45 08	 mov	 eax, DWORD PTR _k$[ebp]

; 162  : 		_ENCSTR(k, _k);

  00013	8a 10		 mov	 dl, BYTE PTR [eax]
  00015	56		 push	 esi
  00016	8b 75 0c	 mov	 esi, DWORD PTR _d$[ebp]
  00019	57		 push	 edi
  0001a	8b 7d 10	 mov	 edi, DWORD PTR _b$[ebp]
  0001d	89 4d e4	 mov	 DWORD PTR _this$GSCopy$[ebp], ecx
  00020	84 d2		 test	 dl, dl
  00022	0f 84 8c 01 00
	00		 je	 $LN96@LoadString@3
  00028	80 f2 ed	 xor	 dl, -19			; ffffffedH
  0002b	88 55 e8	 mov	 BYTE PTR __k$[ebp], dl
  0002e	8a 50 01	 mov	 dl, BYTE PTR [eax+1]
  00031	84 d2		 test	 dl, dl
  00033	0f 84 75 01 00
	00		 je	 $LN95@LoadString@3
  00039	80 f2 ec	 xor	 dl, -20			; ffffffecH
  0003c	88 55 e9	 mov	 BYTE PTR __k$[ebp+1], dl
  0003f	8a 50 02	 mov	 dl, BYTE PTR [eax+2]
  00042	84 d2		 test	 dl, dl
  00044	0f 84 5e 01 00
	00		 je	 $LN94@LoadString@3
  0004a	b1 eb		 mov	 cl, -21			; ffffffebH
  0004c	32 d1		 xor	 dl, cl
  0004e	88 55 ea	 mov	 BYTE PTR __k$[ebp+2], dl
  00051	8a 50 03	 mov	 dl, BYTE PTR [eax+3]
  00054	84 d2		 test	 dl, dl
  00056	0f 84 46 01 00
	00		 je	 $LN93@LoadString@3
  0005c	80 f2 ea	 xor	 dl, -22			; ffffffeaH
  0005f	88 55 eb	 mov	 BYTE PTR __k$[ebp+3], dl
  00062	8a 50 04	 mov	 dl, BYTE PTR [eax+4]
  00065	84 d2		 test	 dl, dl
  00067	0f 84 2f 01 00
	00		 je	 $LN92@LoadString@3
  0006d	80 f2 ed	 xor	 dl, -19			; ffffffedH
  00070	88 55 ec	 mov	 BYTE PTR __k$[ebp+4], dl
  00073	8a 50 05	 mov	 dl, BYTE PTR [eax+5]
  00076	84 d2		 test	 dl, dl
  00078	0f 84 18 01 00
	00		 je	 $LN91@LoadString@3
  0007e	80 f2 ec	 xor	 dl, -20			; ffffffecH
  00081	88 55 ed	 mov	 BYTE PTR __k$[ebp+5], dl
  00084	8a 50 06	 mov	 dl, BYTE PTR [eax+6]
  00087	84 d2		 test	 dl, dl
  00089	0f 84 02 01 00
	00		 je	 $LN90@LoadString@3
  0008f	32 d1		 xor	 dl, cl
  00091	88 55 ee	 mov	 BYTE PTR __k$[ebp+6], dl
  00094	8a 50 07	 mov	 dl, BYTE PTR [eax+7]
  00097	84 d2		 test	 dl, dl
  00099	0f 84 ec 00 00
	00		 je	 $LN89@LoadString@3
  0009f	80 f2 ea	 xor	 dl, -22			; ffffffeaH
  000a2	88 55 ef	 mov	 BYTE PTR __k$[ebp+7], dl
  000a5	8a 50 08	 mov	 dl, BYTE PTR [eax+8]
  000a8	84 d2		 test	 dl, dl
  000aa	0f 84 d5 00 00
	00		 je	 $LN88@LoadString@3
  000b0	80 f2 ed	 xor	 dl, -19			; ffffffedH
  000b3	88 55 f0	 mov	 BYTE PTR __k$[ebp+8], dl
  000b6	8a 50 09	 mov	 dl, BYTE PTR [eax+9]
  000b9	84 d2		 test	 dl, dl
  000bb	0f 84 be 00 00
	00		 je	 $LN87@LoadString@3
  000c1	80 f2 ec	 xor	 dl, -20			; ffffffecH
  000c4	88 55 f1	 mov	 BYTE PTR __k$[ebp+9], dl
  000c7	8a 50 0a	 mov	 dl, BYTE PTR [eax+10]
  000ca	84 d2		 test	 dl, dl
  000cc	0f 84 a8 00 00
	00		 je	 $LN86@LoadString@3
  000d2	32 d1		 xor	 dl, cl
  000d4	88 55 f2	 mov	 BYTE PTR __k$[ebp+10], dl
  000d7	8a 50 0b	 mov	 dl, BYTE PTR [eax+11]
  000da	84 d2		 test	 dl, dl
  000dc	0f 84 92 00 00
	00		 je	 $LN85@LoadString@3
  000e2	80 f2 ea	 xor	 dl, -22			; ffffffeaH
  000e5	88 55 f3	 mov	 BYTE PTR __k$[ebp+11], dl
  000e8	8a 50 0c	 mov	 dl, BYTE PTR [eax+12]
  000eb	84 d2		 test	 dl, dl
  000ed	74 7f		 je	 SHORT $LN84@LoadString@3
  000ef	80 f2 ed	 xor	 dl, -19			; ffffffedH
  000f2	88 55 f4	 mov	 BYTE PTR __k$[ebp+12], dl
  000f5	8a 50 0d	 mov	 dl, BYTE PTR [eax+13]
  000f8	84 d2		 test	 dl, dl
  000fa	74 6c		 je	 SHORT $LN83@LoadString@3
  000fc	80 f2 ec	 xor	 dl, -20			; ffffffecH
  000ff	88 55 f5	 mov	 BYTE PTR __k$[ebp+13], dl
  00102	8a 50 0e	 mov	 dl, BYTE PTR [eax+14]
  00105	84 d2		 test	 dl, dl
  00107	74 5a		 je	 SHORT $LN82@LoadString@3
  00109	32 d1		 xor	 dl, cl
  0010b	80 78 0f 00	 cmp	 BYTE PTR [eax+15], 0
  0010f	88 55 f6	 mov	 BYTE PTR __k$[ebp+14], dl
  00112	0f 84 a0 00 00
	00		 je	 $LN111@LoadString@3
  00118	8a 50 10	 mov	 dl, BYTE PTR [eax+16]
  0011b	84 d2		 test	 dl, dl
  0011d	74 3e		 je	 SHORT $LN80@LoadString@3
  0011f	80 f2 ed	 xor	 dl, -19			; ffffffedH
  00122	88 55 f8	 mov	 BYTE PTR __k$[ebp+16], dl
  00125	8a 50 11	 mov	 dl, BYTE PTR [eax+17]
  00128	84 d2		 test	 dl, dl
  0012a	74 2b		 je	 SHORT $LN79@LoadString@3
  0012c	80 f2 ec	 xor	 dl, -20			; ffffffecH
  0012f	88 55 f9	 mov	 BYTE PTR __k$[ebp+17], dl
  00132	8a 50 12	 mov	 dl, BYTE PTR [eax+18]
  00135	84 d2		 test	 dl, dl
  00137	74 19		 je	 SHORT $LN78@LoadString@3
  00139	8a 40 13	 mov	 al, BYTE PTR [eax+19]
  0013c	32 d1		 xor	 dl, cl
  0013e	88 55 fa	 mov	 BYTE PTR __k$[ebp+18], dl
  00141	84 c0		 test	 al, al
  00143	74 07		 je	 SHORT $LN77@LoadString@3
  00145	34 ea		 xor	 al, -22			; ffffffeaH
  00147	88 45 fb	 mov	 BYTE PTR __k$[ebp+19], al
  0014a	eb 6c		 jmp	 SHORT $LN111@LoadString@3
$LN77@LoadString@3:
  0014c	c6 45 fb ea	 mov	 BYTE PTR __k$[ebp+19], -22 ; ffffffeaH
  00150	eb 66		 jmp	 SHORT $LN111@LoadString@3
$LN78@LoadString@3:
  00152	88 4d fa	 mov	 BYTE PTR __k$[ebp+18], cl
  00155	eb 61		 jmp	 SHORT $LN111@LoadString@3
$LN79@LoadString@3:
  00157	c6 45 f9 ec	 mov	 BYTE PTR __k$[ebp+17], -20 ; ffffffecH
  0015b	eb 5b		 jmp	 SHORT $LN111@LoadString@3
$LN80@LoadString@3:
  0015d	c6 45 f8 ed	 mov	 BYTE PTR __k$[ebp+16], -19 ; ffffffedH
  00161	eb 55		 jmp	 SHORT $LN111@LoadString@3
$LN82@LoadString@3:
  00163	88 4d f6	 mov	 BYTE PTR __k$[ebp+14], cl
  00166	eb 50		 jmp	 SHORT $LN111@LoadString@3
$LN83@LoadString@3:
  00168	c6 45 f5 ec	 mov	 BYTE PTR __k$[ebp+13], -20 ; ffffffecH
  0016c	eb 4a		 jmp	 SHORT $LN111@LoadString@3
$LN84@LoadString@3:
  0016e	c6 45 f4 ed	 mov	 BYTE PTR __k$[ebp+12], -19 ; ffffffedH
  00172	eb 44		 jmp	 SHORT $LN111@LoadString@3
$LN85@LoadString@3:
  00174	c6 45 f3 ea	 mov	 BYTE PTR __k$[ebp+11], -22 ; ffffffeaH
  00178	eb 3e		 jmp	 SHORT $LN111@LoadString@3
$LN86@LoadString@3:
  0017a	88 4d f2	 mov	 BYTE PTR __k$[ebp+10], cl
  0017d	eb 39		 jmp	 SHORT $LN111@LoadString@3
$LN87@LoadString@3:
  0017f	c6 45 f1 ec	 mov	 BYTE PTR __k$[ebp+9], -20 ; ffffffecH
  00183	eb 33		 jmp	 SHORT $LN111@LoadString@3
$LN88@LoadString@3:
  00185	c6 45 f0 ed	 mov	 BYTE PTR __k$[ebp+8], -19 ; ffffffedH
  00189	eb 2d		 jmp	 SHORT $LN111@LoadString@3
$LN89@LoadString@3:
  0018b	c6 45 ef ea	 mov	 BYTE PTR __k$[ebp+7], -22 ; ffffffeaH
  0018f	eb 27		 jmp	 SHORT $LN111@LoadString@3
$LN90@LoadString@3:
  00191	88 4d ee	 mov	 BYTE PTR __k$[ebp+6], cl
  00194	eb 22		 jmp	 SHORT $LN111@LoadString@3
$LN91@LoadString@3:
  00196	c6 45 ed ec	 mov	 BYTE PTR __k$[ebp+5], -20 ; ffffffecH
  0019a	eb 1c		 jmp	 SHORT $LN111@LoadString@3
$LN92@LoadString@3:
  0019c	c6 45 ec ed	 mov	 BYTE PTR __k$[ebp+4], -19 ; ffffffedH
  001a0	eb 16		 jmp	 SHORT $LN111@LoadString@3
$LN93@LoadString@3:
  001a2	c6 45 eb ea	 mov	 BYTE PTR __k$[ebp+3], -22 ; ffffffeaH
  001a6	eb 10		 jmp	 SHORT $LN111@LoadString@3
$LN94@LoadString@3:
  001a8	c6 45 ea eb	 mov	 BYTE PTR __k$[ebp+2], -21 ; ffffffebH
  001ac	eb 0a		 jmp	 SHORT $LN111@LoadString@3
$LN95@LoadString@3:
  001ae	c6 45 e9 ec	 mov	 BYTE PTR __k$[ebp+1], -20 ; ffffffecH
  001b2	eb 04		 jmp	 SHORT $LN111@LoadString@3
$LN96@LoadString@3:
  001b4	c6 45 e8 ed	 mov	 BYTE PTR __k$[ebp], -19	; ffffffedH
$LN111@LoadString@3:
  001b8	6a 03		 push	 3
  001ba	8d 45 e8	 lea	 eax, DWORD PTR __k$[ebp]
  001bd	c6 45 f7 00	 mov	 BYTE PTR __k$[ebp+15], 0
  001c1	5a		 pop	 edx
$LL104@LoadString@3:
  001c2	81 30 ed ec eb
	ea		 xor	 DWORD PTR [eax], -353637139 ; eaebecedH
  001c8	83 c0 04	 add	 eax, 4
  001cb	4a		 dec	 edx
  001cc	75 f4		 jne	 SHORT $LL104@LoadString@3
  001ce	6a 0c		 push	 12			; 0000000cH
  001d0	58		 pop	 eax
$LL101@LoadString@3:
  001d1	8b c8		 mov	 ecx, eax
  001d3	81 e1 03 00 00
	80		 and	 ecx, -2147483645	; 80000003H
  001d9	79 05		 jns	 SHORT $LN112@LoadString@3
  001db	49		 dec	 ecx
  001dc	83 c9 fc	 or	 ecx, -4			; fffffffcH
  001df	41		 inc	 ecx
$LN112@LoadString@3:
  001e0	b2 ed		 mov	 dl, -19			; ffffffedH
  001e2	2a d1		 sub	 dl, cl
  001e4	30 54 05 e8	 xor	 BYTE PTR __k$[ebp+eax], dl
  001e8	40		 inc	 eax
  001e9	83 f8 0f	 cmp	 eax, 15			; 0000000fH
  001ec	7c e3		 jl	 SHORT $LL101@LoadString@3

; 163  : 		LoadString(_k, d, b, i);

  001ee	ff 75 14	 push	 DWORD PTR _i$[ebp]
  001f1	8b 4d e4	 mov	 ecx, DWORD PTR _this$GSCopy$[ebp]
  001f4	57		 push	 edi
  001f5	56		 push	 esi
  001f6	8d 45 e8	 lea	 eax, DWORD PTR __k$[ebp]
  001f9	50		 push	 eax
  001fa	ff 15 00 00 00
	00		 call	 DWORD PTR __imp_?LoadStringA@ioINILoader@@QAEXPBD0PADH@Z

; 164  : 	}

  00200	8b 4d fc	 mov	 ecx, DWORD PTR __$ArrayPad$[ebp]
  00203	5f		 pop	 edi
  00204	33 cd		 xor	 ecx, ebp
  00206	5e		 pop	 esi
  00207	e8 00 00 00 00	 call	 @__security_check_cookie@4
  0020c	c9		 leave
  0020d	c2 10 00	 ret	 16			; 00000010H
??$LoadString_e@$0BA@@ioINILoader@@QAEXAAY0BA@$$CBDAAY00$$CBDPADH@Z ENDP ; ioINILoader::LoadString_e<16>
_TEXT	ENDS
PUBLIC	__$ArrayPad$
PUBLIC	??$LoadInt_e@$0BB@@ioINILoader@@QAEHAAY0BB@$$CBDH@Z ; ioINILoader::LoadInt_e<17>
EXTRN	__imp_?LoadInt@ioINILoader@@QAEHPBDH@Z:PROC
; Function compile flags: /Ogsp
;	COMDAT ??$LoadInt_e@$0BB@@ioINILoader@@QAEHAAY0BB@$$CBDH@Z
_TEXT	SEGMENT
__k$ = -28						; size = 17
__$ArrayPad$ = -4					; size = 4
_k$ = 8							; size = 4
_i$ = 12						; size = 4
??$LoadInt_e@$0BB@@ioINILoader@@QAEHAAY0BB@$$CBDH@Z PROC ; ioINILoader::LoadInt_e<17>, COMDAT
; _this$ = ecx

; 118  : 	{

  00000	55		 push	 ebp
  00001	8b ec		 mov	 ebp, esp
  00003	83 ec 1c	 sub	 esp, 28			; 0000001cH
  00006	a1 00 00 00 00	 mov	 eax, DWORD PTR ___security_cookie
  0000b	33 c5		 xor	 eax, ebp
  0000d	89 45 fc	 mov	 DWORD PTR __$ArrayPad$[ebp], eax
  00010	8b 45 08	 mov	 eax, DWORD PTR _k$[ebp]

; 119  : 		_ENCSTR(k, _k);

  00013	8a 10		 mov	 dl, BYTE PTR [eax]
  00015	56		 push	 esi
  00016	8b f1		 mov	 esi, ecx
  00018	84 d2		 test	 dl, dl
  0001a	0f 84 a7 01 00
	00		 je	 $LN96@LoadInt_e
  00020	80 f2 ed	 xor	 dl, -19			; ffffffedH
  00023	88 55 e4	 mov	 BYTE PTR __k$[ebp], dl
  00026	8a 50 01	 mov	 dl, BYTE PTR [eax+1]
  00029	84 d2		 test	 dl, dl
  0002b	0f 84 90 01 00
	00		 je	 $LN95@LoadInt_e
  00031	b1 ec		 mov	 cl, -20			; ffffffecH
  00033	32 d1		 xor	 dl, cl
  00035	88 55 e5	 mov	 BYTE PTR __k$[ebp+1], dl
  00038	8a 50 02	 mov	 dl, BYTE PTR [eax+2]
  0003b	84 d2		 test	 dl, dl
  0003d	0f 84 78 01 00
	00		 je	 $LN94@LoadInt_e
  00043	80 f2 eb	 xor	 dl, -21			; ffffffebH
  00046	88 55 e6	 mov	 BYTE PTR __k$[ebp+2], dl
  00049	8a 50 03	 mov	 dl, BYTE PTR [eax+3]
  0004c	84 d2		 test	 dl, dl
  0004e	0f 84 61 01 00
	00		 je	 $LN93@LoadInt_e
  00054	80 f2 ea	 xor	 dl, -22			; ffffffeaH
  00057	88 55 e7	 mov	 BYTE PTR __k$[ebp+3], dl
  0005a	8a 50 04	 mov	 dl, BYTE PTR [eax+4]
  0005d	84 d2		 test	 dl, dl
  0005f	0f 84 4a 01 00
	00		 je	 $LN92@LoadInt_e
  00065	80 f2 ed	 xor	 dl, -19			; ffffffedH
  00068	88 55 e8	 mov	 BYTE PTR __k$[ebp+4], dl
  0006b	8a 50 05	 mov	 dl, BYTE PTR [eax+5]
  0006e	84 d2		 test	 dl, dl
  00070	0f 84 34 01 00
	00		 je	 $LN91@LoadInt_e
  00076	32 d1		 xor	 dl, cl
  00078	88 55 e9	 mov	 BYTE PTR __k$[ebp+5], dl
  0007b	8a 50 06	 mov	 dl, BYTE PTR [eax+6]
  0007e	84 d2		 test	 dl, dl
  00080	0f 84 1e 01 00
	00		 je	 $LN90@LoadInt_e
  00086	80 f2 eb	 xor	 dl, -21			; ffffffebH
  00089	88 55 ea	 mov	 BYTE PTR __k$[ebp+6], dl
  0008c	8a 50 07	 mov	 dl, BYTE PTR [eax+7]
  0008f	84 d2		 test	 dl, dl
  00091	0f 84 07 01 00
	00		 je	 $LN89@LoadInt_e
  00097	80 f2 ea	 xor	 dl, -22			; ffffffeaH
  0009a	88 55 eb	 mov	 BYTE PTR __k$[ebp+7], dl
  0009d	8a 50 08	 mov	 dl, BYTE PTR [eax+8]
  000a0	84 d2		 test	 dl, dl
  000a2	0f 84 f0 00 00
	00		 je	 $LN88@LoadInt_e
  000a8	80 f2 ed	 xor	 dl, -19			; ffffffedH
  000ab	88 55 ec	 mov	 BYTE PTR __k$[ebp+8], dl
  000ae	8a 50 09	 mov	 dl, BYTE PTR [eax+9]
  000b1	84 d2		 test	 dl, dl
  000b3	0f 84 da 00 00
	00		 je	 $LN87@LoadInt_e
  000b9	32 d1		 xor	 dl, cl
  000bb	88 55 ed	 mov	 BYTE PTR __k$[ebp+9], dl
  000be	8a 50 0a	 mov	 dl, BYTE PTR [eax+10]
  000c1	84 d2		 test	 dl, dl
  000c3	0f 84 c4 00 00
	00		 je	 $LN86@LoadInt_e
  000c9	80 f2 eb	 xor	 dl, -21			; ffffffebH
  000cc	88 55 ee	 mov	 BYTE PTR __k$[ebp+10], dl
  000cf	8a 50 0b	 mov	 dl, BYTE PTR [eax+11]
  000d2	84 d2		 test	 dl, dl
  000d4	0f 84 ad 00 00
	00		 je	 $LN85@LoadInt_e
  000da	80 f2 ea	 xor	 dl, -22			; ffffffeaH
  000dd	88 55 ef	 mov	 BYTE PTR __k$[ebp+11], dl
  000e0	8a 50 0c	 mov	 dl, BYTE PTR [eax+12]
  000e3	84 d2		 test	 dl, dl
  000e5	0f 84 96 00 00
	00		 je	 $LN84@LoadInt_e
  000eb	80 f2 ed	 xor	 dl, -19			; ffffffedH
  000ee	88 55 f0	 mov	 BYTE PTR __k$[ebp+12], dl
  000f1	8a 50 0d	 mov	 dl, BYTE PTR [eax+13]
  000f4	84 d2		 test	 dl, dl
  000f6	0f 84 80 00 00
	00		 je	 $LN83@LoadInt_e
  000fc	32 d1		 xor	 dl, cl
  000fe	88 55 f1	 mov	 BYTE PTR __k$[ebp+13], dl
  00101	8a 50 0e	 mov	 dl, BYTE PTR [eax+14]
  00104	84 d2		 test	 dl, dl
  00106	74 6e		 je	 SHORT $LN82@LoadInt_e
  00108	80 f2 eb	 xor	 dl, -21			; ffffffebH
  0010b	88 55 f2	 mov	 BYTE PTR __k$[ebp+14], dl
  0010e	8a 50 0f	 mov	 dl, BYTE PTR [eax+15]
  00111	84 d2		 test	 dl, dl
  00113	74 5b		 je	 SHORT $LN81@LoadInt_e
  00115	80 f2 ea	 xor	 dl, -22			; ffffffeaH
  00118	80 78 10 00	 cmp	 BYTE PTR [eax+16], 0
  0011c	88 55 f3	 mov	 BYTE PTR __k$[ebp+15], dl
  0011f	0f 84 a6 00 00
	00		 je	 $LN1@LoadInt_e
  00125	8a 50 11	 mov	 dl, BYTE PTR [eax+17]
  00128	84 d2		 test	 dl, dl
  0012a	74 3f		 je	 SHORT $LN79@LoadInt_e
  0012c	32 d1		 xor	 dl, cl
  0012e	88 55 f5	 mov	 BYTE PTR __k$[ebp+17], dl
  00131	8a 50 12	 mov	 dl, BYTE PTR [eax+18]
  00134	84 d2		 test	 dl, dl
  00136	74 2d		 je	 SHORT $LN78@LoadInt_e
  00138	80 f2 eb	 xor	 dl, -21			; ffffffebH
  0013b	88 55 f6	 mov	 BYTE PTR __k$[ebp+18], dl
  0013e	8a 50 13	 mov	 dl, BYTE PTR [eax+19]
  00141	84 d2		 test	 dl, dl
  00143	74 1a		 je	 SHORT $LN77@LoadInt_e
  00145	8a 40 14	 mov	 al, BYTE PTR [eax+20]
  00148	80 f2 ea	 xor	 dl, -22			; ffffffeaH
  0014b	88 55 f7	 mov	 BYTE PTR __k$[ebp+19], dl
  0014e	84 c0		 test	 al, al
  00150	74 07		 je	 SHORT $LN76@LoadInt_e
  00152	34 ed		 xor	 al, -19			; ffffffedH
  00154	88 45 f8	 mov	 BYTE PTR __k$[ebp+20], al
  00157	eb 72		 jmp	 SHORT $LN1@LoadInt_e
$LN76@LoadInt_e:
  00159	c6 45 f8 ed	 mov	 BYTE PTR __k$[ebp+20], -19 ; ffffffedH
  0015d	eb 6c		 jmp	 SHORT $LN1@LoadInt_e
$LN77@LoadInt_e:
  0015f	c6 45 f7 ea	 mov	 BYTE PTR __k$[ebp+19], -22 ; ffffffeaH
  00163	eb 66		 jmp	 SHORT $LN1@LoadInt_e
$LN78@LoadInt_e:
  00165	c6 45 f6 eb	 mov	 BYTE PTR __k$[ebp+18], -21 ; ffffffebH
  00169	eb 60		 jmp	 SHORT $LN1@LoadInt_e
$LN79@LoadInt_e:
  0016b	88 4d f5	 mov	 BYTE PTR __k$[ebp+17], cl
  0016e	eb 5b		 jmp	 SHORT $LN1@LoadInt_e
$LN81@LoadInt_e:
  00170	c6 45 f3 ea	 mov	 BYTE PTR __k$[ebp+15], -22 ; ffffffeaH
  00174	eb 55		 jmp	 SHORT $LN1@LoadInt_e
$LN82@LoadInt_e:
  00176	c6 45 f2 eb	 mov	 BYTE PTR __k$[ebp+14], -21 ; ffffffebH
  0017a	eb 4f		 jmp	 SHORT $LN1@LoadInt_e
$LN83@LoadInt_e:
  0017c	88 4d f1	 mov	 BYTE PTR __k$[ebp+13], cl
  0017f	eb 4a		 jmp	 SHORT $LN1@LoadInt_e
$LN84@LoadInt_e:
  00181	c6 45 f0 ed	 mov	 BYTE PTR __k$[ebp+12], -19 ; ffffffedH
  00185	eb 44		 jmp	 SHORT $LN1@LoadInt_e
$LN85@LoadInt_e:
  00187	c6 45 ef ea	 mov	 BYTE PTR __k$[ebp+11], -22 ; ffffffeaH
  0018b	eb 3e		 jmp	 SHORT $LN1@LoadInt_e
$LN86@LoadInt_e:
  0018d	c6 45 ee eb	 mov	 BYTE PTR __k$[ebp+10], -21 ; ffffffebH
  00191	eb 38		 jmp	 SHORT $LN1@LoadInt_e
$LN87@LoadInt_e:
  00193	88 4d ed	 mov	 BYTE PTR __k$[ebp+9], cl
  00196	eb 33		 jmp	 SHORT $LN1@LoadInt_e
$LN88@LoadInt_e:
  00198	c6 45 ec ed	 mov	 BYTE PTR __k$[ebp+8], -19 ; ffffffedH
  0019c	eb 2d		 jmp	 SHORT $LN1@LoadInt_e
$LN89@LoadInt_e:
  0019e	c6 45 eb ea	 mov	 BYTE PTR __k$[ebp+7], -22 ; ffffffeaH
  001a2	eb 27		 jmp	 SHORT $LN1@LoadInt_e
$LN90@LoadInt_e:
  001a4	c6 45 ea eb	 mov	 BYTE PTR __k$[ebp+6], -21 ; ffffffebH
  001a8	eb 21		 jmp	 SHORT $LN1@LoadInt_e
$LN91@LoadInt_e:
  001aa	88 4d e9	 mov	 BYTE PTR __k$[ebp+5], cl
  001ad	eb 1c		 jmp	 SHORT $LN1@LoadInt_e
$LN92@LoadInt_e:
  001af	c6 45 e8 ed	 mov	 BYTE PTR __k$[ebp+4], -19 ; ffffffedH
  001b3	eb 16		 jmp	 SHORT $LN1@LoadInt_e
$LN93@LoadInt_e:
  001b5	c6 45 e7 ea	 mov	 BYTE PTR __k$[ebp+3], -22 ; ffffffeaH
  001b9	eb 10		 jmp	 SHORT $LN1@LoadInt_e
$LN94@LoadInt_e:
  001bb	c6 45 e6 eb	 mov	 BYTE PTR __k$[ebp+2], -21 ; ffffffebH
  001bf	eb 0a		 jmp	 SHORT $LN1@LoadInt_e
$LN95@LoadInt_e:
  001c1	c6 45 e5 ec	 mov	 BYTE PTR __k$[ebp+1], -20 ; ffffffecH
  001c5	eb 04		 jmp	 SHORT $LN1@LoadInt_e
$LN96@LoadInt_e:
  001c7	c6 45 e4 ed	 mov	 BYTE PTR __k$[ebp], -19	; ffffffedH
$LN1@LoadInt_e:
  001cb	6a 04		 push	 4
  001cd	8d 45 e4	 lea	 eax, DWORD PTR __k$[ebp]
  001d0	c6 45 f4 00	 mov	 BYTE PTR __k$[ebp+16], 0
  001d4	5a		 pop	 edx
$LL104@LoadInt_e:
  001d5	81 30 ed ec eb
	ea		 xor	 DWORD PTR [eax], -353637139 ; eaebecedH
  001db	83 c0 04	 add	 eax, 4
  001de	4a		 dec	 edx
  001df	75 f4		 jne	 SHORT $LL104@LoadInt_e

; 120  : 		return LoadInt(_k, i);

  001e1	ff 75 0c	 push	 DWORD PTR _i$[ebp]
  001e4	8d 45 e4	 lea	 eax, DWORD PTR __k$[ebp]
  001e7	50		 push	 eax
  001e8	8b ce		 mov	 ecx, esi
  001ea	ff 15 00 00 00
	00		 call	 DWORD PTR __imp_?LoadInt@ioINILoader@@QAEHPBDH@Z

; 121  : 	}

  001f0	8b 4d fc	 mov	 ecx, DWORD PTR __$ArrayPad$[ebp]
  001f3	33 cd		 xor	 ecx, ebp
  001f5	5e		 pop	 esi
  001f6	e8 00 00 00 00	 call	 @__security_check_cookie@4
  001fb	c9		 leave
  001fc	c2 08 00	 ret	 8
??$LoadInt_e@$0BB@@ioINILoader@@QAEHAAY0BB@$$CBDH@Z ENDP ; ioINILoader::LoadInt_e<17>
_TEXT	ENDS
PUBLIC	__$ArrayPad$
PUBLIC	??$LoadInt_e@$0P@@ioINILoader@@QAEHAAY0P@$$CBDH@Z ; ioINILoader::LoadInt_e<15>
; Function compile flags: /Ogsp
;	COMDAT ??$LoadInt_e@$0P@@ioINILoader@@QAEHAAY0P@$$CBDH@Z
_TEXT	SEGMENT
__k$ = -24						; size = 15
__$ArrayPad$ = -4					; size = 4
_k$ = 8							; size = 4
_i$ = 12						; size = 4
??$LoadInt_e@$0P@@ioINILoader@@QAEHAAY0P@$$CBDH@Z PROC	; ioINILoader::LoadInt_e<15>, COMDAT
; _this$ = ecx

; 118  : 	{

  00000	55		 push	 ebp
  00001	8b ec		 mov	 ebp, esp
  00003	83 ec 18	 sub	 esp, 24			; 00000018H
  00006	a1 00 00 00 00	 mov	 eax, DWORD PTR ___security_cookie
  0000b	33 c5		 xor	 eax, ebp
  0000d	89 45 fc	 mov	 DWORD PTR __$ArrayPad$[ebp], eax
  00010	8b 45 08	 mov	 eax, DWORD PTR _k$[ebp]

; 119  : 		_ENCSTR(k, _k);

  00013	8a 10		 mov	 dl, BYTE PTR [eax]
  00015	56		 push	 esi
  00016	8b f1		 mov	 esi, ecx
  00018	84 d2		 test	 dl, dl
  0001a	0f 84 75 01 00
	00		 je	 $LN96@LoadInt_e@2
  00020	80 f2 ed	 xor	 dl, -19			; ffffffedH
  00023	88 55 e8	 mov	 BYTE PTR __k$[ebp], dl
  00026	8a 50 01	 mov	 dl, BYTE PTR [eax+1]
  00029	84 d2		 test	 dl, dl
  0002b	0f 84 5e 01 00
	00		 je	 $LN95@LoadInt_e@2
  00031	b1 ec		 mov	 cl, -20			; ffffffecH
  00033	32 d1		 xor	 dl, cl
  00035	88 55 e9	 mov	 BYTE PTR __k$[ebp+1], dl
  00038	8a 50 02	 mov	 dl, BYTE PTR [eax+2]
  0003b	84 d2		 test	 dl, dl
  0003d	0f 84 46 01 00
	00		 je	 $LN94@LoadInt_e@2
  00043	80 f2 eb	 xor	 dl, -21			; ffffffebH
  00046	88 55 ea	 mov	 BYTE PTR __k$[ebp+2], dl
  00049	8a 50 03	 mov	 dl, BYTE PTR [eax+3]
  0004c	84 d2		 test	 dl, dl
  0004e	0f 84 2f 01 00
	00		 je	 $LN93@LoadInt_e@2
  00054	80 f2 ea	 xor	 dl, -22			; ffffffeaH
  00057	88 55 eb	 mov	 BYTE PTR __k$[ebp+3], dl
  0005a	8a 50 04	 mov	 dl, BYTE PTR [eax+4]
  0005d	84 d2		 test	 dl, dl
  0005f	0f 84 18 01 00
	00		 je	 $LN92@LoadInt_e@2
  00065	80 f2 ed	 xor	 dl, -19			; ffffffedH
  00068	88 55 ec	 mov	 BYTE PTR __k$[ebp+4], dl
  0006b	8a 50 05	 mov	 dl, BYTE PTR [eax+5]
  0006e	84 d2		 test	 dl, dl
  00070	0f 84 02 01 00
	00		 je	 $LN91@LoadInt_e@2
  00076	32 d1		 xor	 dl, cl
  00078	88 55 ed	 mov	 BYTE PTR __k$[ebp+5], dl
  0007b	8a 50 06	 mov	 dl, BYTE PTR [eax+6]
  0007e	84 d2		 test	 dl, dl
  00080	0f 84 ec 00 00
	00		 je	 $LN90@LoadInt_e@2
  00086	80 f2 eb	 xor	 dl, -21			; ffffffebH
  00089	88 55 ee	 mov	 BYTE PTR __k$[ebp+6], dl
  0008c	8a 50 07	 mov	 dl, BYTE PTR [eax+7]
  0008f	84 d2		 test	 dl, dl
  00091	0f 84 d5 00 00
	00		 je	 $LN89@LoadInt_e@2
  00097	80 f2 ea	 xor	 dl, -22			; ffffffeaH
  0009a	88 55 ef	 mov	 BYTE PTR __k$[ebp+7], dl
  0009d	8a 50 08	 mov	 dl, BYTE PTR [eax+8]
  000a0	84 d2		 test	 dl, dl
  000a2	0f 84 be 00 00
	00		 je	 $LN88@LoadInt_e@2
  000a8	80 f2 ed	 xor	 dl, -19			; ffffffedH
  000ab	88 55 f0	 mov	 BYTE PTR __k$[ebp+8], dl
  000ae	8a 50 09	 mov	 dl, BYTE PTR [eax+9]
  000b1	84 d2		 test	 dl, dl
  000b3	0f 84 a8 00 00
	00		 je	 $LN87@LoadInt_e@2
  000b9	32 d1		 xor	 dl, cl
  000bb	88 55 f1	 mov	 BYTE PTR __k$[ebp+9], dl
  000be	8a 50 0a	 mov	 dl, BYTE PTR [eax+10]
  000c1	84 d2		 test	 dl, dl
  000c3	0f 84 92 00 00
	00		 je	 $LN86@LoadInt_e@2
  000c9	80 f2 eb	 xor	 dl, -21			; ffffffebH
  000cc	88 55 f2	 mov	 BYTE PTR __k$[ebp+10], dl
  000cf	8a 50 0b	 mov	 dl, BYTE PTR [eax+11]
  000d2	84 d2		 test	 dl, dl
  000d4	74 7f		 je	 SHORT $LN85@LoadInt_e@2
  000d6	80 f2 ea	 xor	 dl, -22			; ffffffeaH
  000d9	88 55 f3	 mov	 BYTE PTR __k$[ebp+11], dl
  000dc	8a 50 0c	 mov	 dl, BYTE PTR [eax+12]
  000df	84 d2		 test	 dl, dl
  000e1	74 6c		 je	 SHORT $LN84@LoadInt_e@2
  000e3	80 f2 ed	 xor	 dl, -19			; ffffffedH
  000e6	88 55 f4	 mov	 BYTE PTR __k$[ebp+12], dl
  000e9	8a 50 0d	 mov	 dl, BYTE PTR [eax+13]
  000ec	84 d2		 test	 dl, dl
  000ee	74 5a		 je	 SHORT $LN83@LoadInt_e@2
  000f0	32 d1		 xor	 dl, cl
  000f2	80 78 0e 00	 cmp	 BYTE PTR [eax+14], 0
  000f6	88 55 f5	 mov	 BYTE PTR __k$[ebp+13], dl
  000f9	0f 84 9a 00 00
	00		 je	 $LN1@LoadInt_e@2
  000ff	8a 50 0f	 mov	 dl, BYTE PTR [eax+15]
  00102	84 d2		 test	 dl, dl
  00104	74 3e		 je	 SHORT $LN81@LoadInt_e@2
  00106	80 f2 ea	 xor	 dl, -22			; ffffffeaH
  00109	88 55 f7	 mov	 BYTE PTR __k$[ebp+15], dl
  0010c	8a 50 10	 mov	 dl, BYTE PTR [eax+16]
  0010f	84 d2		 test	 dl, dl
  00111	74 2b		 je	 SHORT $LN80@LoadInt_e@2
  00113	80 f2 ed	 xor	 dl, -19			; ffffffedH
  00116	88 55 f8	 mov	 BYTE PTR __k$[ebp+16], dl
  00119	8a 50 11	 mov	 dl, BYTE PTR [eax+17]
  0011c	84 d2		 test	 dl, dl
  0011e	74 19		 je	 SHORT $LN79@LoadInt_e@2
  00120	8a 40 12	 mov	 al, BYTE PTR [eax+18]
  00123	32 d1		 xor	 dl, cl
  00125	88 55 f9	 mov	 BYTE PTR __k$[ebp+17], dl
  00128	84 c0		 test	 al, al
  0012a	74 07		 je	 SHORT $LN78@LoadInt_e@2
  0012c	34 eb		 xor	 al, -21			; ffffffebH
  0012e	88 45 fa	 mov	 BYTE PTR __k$[ebp+18], al
  00131	eb 66		 jmp	 SHORT $LN1@LoadInt_e@2
$LN78@LoadInt_e@2:
  00133	c6 45 fa eb	 mov	 BYTE PTR __k$[ebp+18], -21 ; ffffffebH
  00137	eb 60		 jmp	 SHORT $LN1@LoadInt_e@2
$LN79@LoadInt_e@2:
  00139	88 4d f9	 mov	 BYTE PTR __k$[ebp+17], cl
  0013c	eb 5b		 jmp	 SHORT $LN1@LoadInt_e@2
$LN80@LoadInt_e@2:
  0013e	c6 45 f8 ed	 mov	 BYTE PTR __k$[ebp+16], -19 ; ffffffedH
  00142	eb 55		 jmp	 SHORT $LN1@LoadInt_e@2
$LN81@LoadInt_e@2:
  00144	c6 45 f7 ea	 mov	 BYTE PTR __k$[ebp+15], -22 ; ffffffeaH
  00148	eb 4f		 jmp	 SHORT $LN1@LoadInt_e@2
$LN83@LoadInt_e@2:
  0014a	88 4d f5	 mov	 BYTE PTR __k$[ebp+13], cl
  0014d	eb 4a		 jmp	 SHORT $LN1@LoadInt_e@2
$LN84@LoadInt_e@2:
  0014f	c6 45 f4 ed	 mov	 BYTE PTR __k$[ebp+12], -19 ; ffffffedH
  00153	eb 44		 jmp	 SHORT $LN1@LoadInt_e@2
$LN85@LoadInt_e@2:
  00155	c6 45 f3 ea	 mov	 BYTE PTR __k$[ebp+11], -22 ; ffffffeaH
  00159	eb 3e		 jmp	 SHORT $LN1@LoadInt_e@2
$LN86@LoadInt_e@2:
  0015b	c6 45 f2 eb	 mov	 BYTE PTR __k$[ebp+10], -21 ; ffffffebH
  0015f	eb 38		 jmp	 SHORT $LN1@LoadInt_e@2
$LN87@LoadInt_e@2:
  00161	88 4d f1	 mov	 BYTE PTR __k$[ebp+9], cl
  00164	eb 33		 jmp	 SHORT $LN1@LoadInt_e@2
$LN88@LoadInt_e@2:
  00166	c6 45 f0 ed	 mov	 BYTE PTR __k$[ebp+8], -19 ; ffffffedH
  0016a	eb 2d		 jmp	 SHORT $LN1@LoadInt_e@2
$LN89@LoadInt_e@2:
  0016c	c6 45 ef ea	 mov	 BYTE PTR __k$[ebp+7], -22 ; ffffffeaH
  00170	eb 27		 jmp	 SHORT $LN1@LoadInt_e@2
$LN90@LoadInt_e@2:
  00172	c6 45 ee eb	 mov	 BYTE PTR __k$[ebp+6], -21 ; ffffffebH
  00176	eb 21		 jmp	 SHORT $LN1@LoadInt_e@2
$LN91@LoadInt_e@2:
  00178	88 4d ed	 mov	 BYTE PTR __k$[ebp+5], cl
  0017b	eb 1c		 jmp	 SHORT $LN1@LoadInt_e@2
$LN92@LoadInt_e@2:
  0017d	c6 45 ec ed	 mov	 BYTE PTR __k$[ebp+4], -19 ; ffffffedH
  00181	eb 16		 jmp	 SHORT $LN1@LoadInt_e@2
$LN93@LoadInt_e@2:
  00183	c6 45 eb ea	 mov	 BYTE PTR __k$[ebp+3], -22 ; ffffffeaH
  00187	eb 10		 jmp	 SHORT $LN1@LoadInt_e@2
$LN94@LoadInt_e@2:
  00189	c6 45 ea eb	 mov	 BYTE PTR __k$[ebp+2], -21 ; ffffffebH
  0018d	eb 0a		 jmp	 SHORT $LN1@LoadInt_e@2
$LN95@LoadInt_e@2:
  0018f	c6 45 e9 ec	 mov	 BYTE PTR __k$[ebp+1], -20 ; ffffffecH
  00193	eb 04		 jmp	 SHORT $LN1@LoadInt_e@2
$LN96@LoadInt_e@2:
  00195	c6 45 e8 ed	 mov	 BYTE PTR __k$[ebp], -19	; ffffffedH
$LN1@LoadInt_e@2:
  00199	6a 03		 push	 3
  0019b	8d 45 e8	 lea	 eax, DWORD PTR __k$[ebp]
  0019e	c6 45 f6 00	 mov	 BYTE PTR __k$[ebp+14], 0
  001a2	5a		 pop	 edx
$LL104@LoadInt_e@2:
  001a3	81 30 ed ec eb
	ea		 xor	 DWORD PTR [eax], -353637139 ; eaebecedH
  001a9	83 c0 04	 add	 eax, 4
  001ac	4a		 dec	 edx
  001ad	75 f4		 jne	 SHORT $LL104@LoadInt_e@2
  001af	6a 0c		 push	 12			; 0000000cH
  001b1	58		 pop	 eax
$LL101@LoadInt_e@2:
  001b2	8b c8		 mov	 ecx, eax
  001b4	81 e1 03 00 00
	80		 and	 ecx, -2147483645	; 80000003H
  001ba	79 05		 jns	 SHORT $LN111@LoadInt_e@2
  001bc	49		 dec	 ecx
  001bd	83 c9 fc	 or	 ecx, -4			; fffffffcH
  001c0	41		 inc	 ecx
$LN111@LoadInt_e@2:
  001c1	b2 ed		 mov	 dl, -19			; ffffffedH
  001c3	2a d1		 sub	 dl, cl
  001c5	30 54 05 e8	 xor	 BYTE PTR __k$[ebp+eax], dl
  001c9	40		 inc	 eax
  001ca	83 f8 0e	 cmp	 eax, 14			; 0000000eH
  001cd	7c e3		 jl	 SHORT $LL101@LoadInt_e@2

; 120  : 		return LoadInt(_k, i);

  001cf	ff 75 0c	 push	 DWORD PTR _i$[ebp]
  001d2	8d 45 e8	 lea	 eax, DWORD PTR __k$[ebp]
  001d5	50		 push	 eax
  001d6	8b ce		 mov	 ecx, esi
  001d8	ff 15 00 00 00
	00		 call	 DWORD PTR __imp_?LoadInt@ioINILoader@@QAEHPBDH@Z

; 121  : 	}

  001de	8b 4d fc	 mov	 ecx, DWORD PTR __$ArrayPad$[ebp]
  001e1	33 cd		 xor	 ecx, ebp
  001e3	5e		 pop	 esi
  001e4	e8 00 00 00 00	 call	 @__security_check_cookie@4
  001e9	c9		 leave
  001ea	c2 08 00	 ret	 8
??$LoadInt_e@$0P@@ioINILoader@@QAEHAAY0P@$$CBDH@Z ENDP	; ioINILoader::LoadInt_e<15>
_TEXT	ENDS
PUBLIC	_this$GSCopy$
PUBLIC	__$ArrayPad$
PUBLIC	??$LoadString_e@$0BI@@ioINILoader@@QAEXAAY0BI@$$CBDAAY00$$CBDPADH@Z ; ioINILoader::LoadString_e<24>
; Function compile flags: /Ogsp
;	COMDAT ??$LoadString_e@$0BI@@ioINILoader@@QAEXAAY0BI@$$CBDAAY00$$CBDPADH@Z
_TEXT	SEGMENT
_this$GSCopy$ = -36					; size = 4
__k$ = -32						; size = 24
__$ArrayPad$ = -4					; size = 4
_k$ = 8							; size = 4
_d$ = 12						; size = 4
_b$ = 16						; size = 4
_i$ = 20						; size = 4
??$LoadString_e@$0BI@@ioINILoader@@QAEXAAY0BI@$$CBDAAY00$$CBDPADH@Z PROC ; ioINILoader::LoadString_e<24>, COMDAT
; _this$ = ecx

; 161  : 	{

  00000	55		 push	 ebp
  00001	8b ec		 mov	 ebp, esp
  00003	83 ec 24	 sub	 esp, 36			; 00000024H
  00006	a1 00 00 00 00	 mov	 eax, DWORD PTR ___security_cookie
  0000b	33 c5		 xor	 eax, ebp
  0000d	89 45 fc	 mov	 DWORD PTR __$ArrayPad$[ebp], eax
  00010	8b 45 08	 mov	 eax, DWORD PTR _k$[ebp]

; 162  : 		_ENCSTR(k, _k);

  00013	8a 10		 mov	 dl, BYTE PTR [eax]
  00015	53		 push	 ebx
  00016	56		 push	 esi
  00017	8b 75 0c	 mov	 esi, DWORD PTR _d$[ebp]
  0001a	57		 push	 edi
  0001b	8b 7d 10	 mov	 edi, DWORD PTR _b$[ebp]
  0001e	89 4d dc	 mov	 DWORD PTR _this$GSCopy$[ebp], ecx
  00021	84 d2		 test	 dl, dl
  00023	0f 84 45 02 00
	00		 je	 $LN96@LoadString@4
  00029	80 f2 ed	 xor	 dl, -19			; ffffffedH
  0002c	88 55 e0	 mov	 BYTE PTR __k$[ebp], dl
  0002f	8a 50 01	 mov	 dl, BYTE PTR [eax+1]
  00032	84 d2		 test	 dl, dl
  00034	0f 84 2e 02 00
	00		 je	 $LN95@LoadString@4
  0003a	b3 ec		 mov	 bl, -20			; ffffffecH
  0003c	32 d3		 xor	 dl, bl
  0003e	88 55 e1	 mov	 BYTE PTR __k$[ebp+1], dl
  00041	8a 50 02	 mov	 dl, BYTE PTR [eax+2]
  00044	84 d2		 test	 dl, dl
  00046	0f 84 16 02 00
	00		 je	 $LN94@LoadString@4
  0004c	b1 eb		 mov	 cl, -21			; ffffffebH
  0004e	32 d1		 xor	 dl, cl
  00050	88 55 e2	 mov	 BYTE PTR __k$[ebp+2], dl
  00053	8a 50 03	 mov	 dl, BYTE PTR [eax+3]
  00056	84 d2		 test	 dl, dl
  00058	0f 84 fe 01 00
	00		 je	 $LN93@LoadString@4
  0005e	80 f2 ea	 xor	 dl, -22			; ffffffeaH
  00061	88 55 e3	 mov	 BYTE PTR __k$[ebp+3], dl
  00064	8a 50 04	 mov	 dl, BYTE PTR [eax+4]
  00067	84 d2		 test	 dl, dl
  00069	0f 84 e7 01 00
	00		 je	 $LN92@LoadString@4
  0006f	80 f2 ed	 xor	 dl, -19			; ffffffedH
  00072	88 55 e4	 mov	 BYTE PTR __k$[ebp+4], dl
  00075	8a 50 05	 mov	 dl, BYTE PTR [eax+5]
  00078	84 d2		 test	 dl, dl
  0007a	0f 84 d1 01 00
	00		 je	 $LN91@LoadString@4
  00080	32 d3		 xor	 dl, bl
  00082	88 55 e5	 mov	 BYTE PTR __k$[ebp+5], dl
  00085	8a 50 06	 mov	 dl, BYTE PTR [eax+6]
  00088	84 d2		 test	 dl, dl
  0008a	0f 84 bc 01 00
	00		 je	 $LN90@LoadString@4
  00090	32 d1		 xor	 dl, cl
  00092	88 55 e6	 mov	 BYTE PTR __k$[ebp+6], dl
  00095	8a 50 07	 mov	 dl, BYTE PTR [eax+7]
  00098	84 d2		 test	 dl, dl
  0009a	0f 84 a6 01 00
	00		 je	 $LN89@LoadString@4
  000a0	80 f2 ea	 xor	 dl, -22			; ffffffeaH
  000a3	88 55 e7	 mov	 BYTE PTR __k$[ebp+7], dl
  000a6	8a 50 08	 mov	 dl, BYTE PTR [eax+8]
  000a9	84 d2		 test	 dl, dl
  000ab	0f 84 8f 01 00
	00		 je	 $LN88@LoadString@4
  000b1	80 f2 ed	 xor	 dl, -19			; ffffffedH
  000b4	88 55 e8	 mov	 BYTE PTR __k$[ebp+8], dl
  000b7	8a 50 09	 mov	 dl, BYTE PTR [eax+9]
  000ba	84 d2		 test	 dl, dl
  000bc	0f 84 79 01 00
	00		 je	 $LN87@LoadString@4
  000c2	32 d3		 xor	 dl, bl
  000c4	88 55 e9	 mov	 BYTE PTR __k$[ebp+9], dl
  000c7	8a 50 0a	 mov	 dl, BYTE PTR [eax+10]
  000ca	84 d2		 test	 dl, dl
  000cc	0f 84 64 01 00
	00		 je	 $LN86@LoadString@4
  000d2	32 d1		 xor	 dl, cl
  000d4	88 55 ea	 mov	 BYTE PTR __k$[ebp+10], dl
  000d7	8a 50 0b	 mov	 dl, BYTE PTR [eax+11]
  000da	84 d2		 test	 dl, dl
  000dc	0f 84 4e 01 00
	00		 je	 $LN85@LoadString@4
  000e2	80 f2 ea	 xor	 dl, -22			; ffffffeaH
  000e5	88 55 eb	 mov	 BYTE PTR __k$[ebp+11], dl
  000e8	8a 50 0c	 mov	 dl, BYTE PTR [eax+12]
  000eb	84 d2		 test	 dl, dl
  000ed	0f 84 37 01 00
	00		 je	 $LN84@LoadString@4
  000f3	80 f2 ed	 xor	 dl, -19			; ffffffedH
  000f6	88 55 ec	 mov	 BYTE PTR __k$[ebp+12], dl
  000f9	8a 50 0d	 mov	 dl, BYTE PTR [eax+13]
  000fc	84 d2		 test	 dl, dl
  000fe	0f 84 21 01 00
	00		 je	 $LN83@LoadString@4
  00104	32 d3		 xor	 dl, bl
  00106	88 55 ed	 mov	 BYTE PTR __k$[ebp+13], dl
  00109	8a 50 0e	 mov	 dl, BYTE PTR [eax+14]
  0010c	84 d2		 test	 dl, dl
  0010e	0f 84 0c 01 00
	00		 je	 $LN82@LoadString@4
  00114	32 d1		 xor	 dl, cl
  00116	88 55 ee	 mov	 BYTE PTR __k$[ebp+14], dl
  00119	8a 50 0f	 mov	 dl, BYTE PTR [eax+15]
  0011c	84 d2		 test	 dl, dl
  0011e	0f 84 f6 00 00
	00		 je	 $LN81@LoadString@4
  00124	80 f2 ea	 xor	 dl, -22			; ffffffeaH
  00127	88 55 ef	 mov	 BYTE PTR __k$[ebp+15], dl
  0012a	8a 50 10	 mov	 dl, BYTE PTR [eax+16]
  0012d	84 d2		 test	 dl, dl
  0012f	0f 84 df 00 00
	00		 je	 $LN80@LoadString@4
  00135	80 f2 ed	 xor	 dl, -19			; ffffffedH
  00138	88 55 f0	 mov	 BYTE PTR __k$[ebp+16], dl
  0013b	8a 50 11	 mov	 dl, BYTE PTR [eax+17]
  0013e	84 d2		 test	 dl, dl
  00140	0f 84 c9 00 00
	00		 je	 $LN79@LoadString@4
  00146	32 d3		 xor	 dl, bl
  00148	88 55 f1	 mov	 BYTE PTR __k$[ebp+17], dl
  0014b	8a 50 12	 mov	 dl, BYTE PTR [eax+18]
  0014e	84 d2		 test	 dl, dl
  00150	0f 84 b4 00 00
	00		 je	 $LN78@LoadString@4
  00156	32 d1		 xor	 dl, cl
  00158	88 55 f2	 mov	 BYTE PTR __k$[ebp+18], dl
  0015b	8a 50 13	 mov	 dl, BYTE PTR [eax+19]
  0015e	84 d2		 test	 dl, dl
  00160	0f 84 9e 00 00
	00		 je	 $LN77@LoadString@4
  00166	80 f2 ea	 xor	 dl, -22			; ffffffeaH
  00169	88 55 f3	 mov	 BYTE PTR __k$[ebp+19], dl
  0016c	8a 50 14	 mov	 dl, BYTE PTR [eax+20]
  0016f	84 d2		 test	 dl, dl
  00171	0f 84 87 00 00
	00		 je	 $LN76@LoadString@4
  00177	80 f2 ed	 xor	 dl, -19			; ffffffedH
  0017a	88 55 f4	 mov	 BYTE PTR __k$[ebp+20], dl
  0017d	8a 50 15	 mov	 dl, BYTE PTR [eax+21]
  00180	84 d2		 test	 dl, dl
  00182	74 75		 je	 SHORT $LN75@LoadString@4
  00184	32 d3		 xor	 dl, bl
  00186	88 55 f5	 mov	 BYTE PTR __k$[ebp+21], dl
  00189	8a 50 16	 mov	 dl, BYTE PTR [eax+22]
  0018c	84 d2		 test	 dl, dl
  0018e	74 64		 je	 SHORT $LN74@LoadString@4
  00190	32 d1		 xor	 dl, cl
  00192	80 78 17 00	 cmp	 BYTE PTR [eax+23], 0
  00196	88 55 f6	 mov	 BYTE PTR __k$[ebp+22], dl
  00199	0f 84 d3 00 00
	00		 je	 $LN111@LoadString@4
  0019f	8a 50 18	 mov	 dl, BYTE PTR [eax+24]
  001a2	84 d2		 test	 dl, dl
  001a4	74 48		 je	 SHORT $LN72@LoadString@4
  001a6	80 f2 ed	 xor	 dl, -19			; ffffffedH
  001a9	88 55 f8	 mov	 BYTE PTR __k$[ebp+24], dl
  001ac	8a 50 19	 mov	 dl, BYTE PTR [eax+25]
  001af	84 d2		 test	 dl, dl
  001b1	74 33		 je	 SHORT $LN71@LoadString@4
  001b3	32 d3		 xor	 dl, bl
  001b5	88 55 f9	 mov	 BYTE PTR __k$[ebp+25], dl
  001b8	8a 50 1a	 mov	 dl, BYTE PTR [eax+26]
  001bb	84 d2		 test	 dl, dl
  001bd	74 1f		 je	 SHORT $LN70@LoadString@4
  001bf	8a 40 1b	 mov	 al, BYTE PTR [eax+27]
  001c2	32 d1		 xor	 dl, cl
  001c4	88 55 fa	 mov	 BYTE PTR __k$[ebp+26], dl
  001c7	84 c0		 test	 al, al
  001c9	74 0a		 je	 SHORT $LN69@LoadString@4
  001cb	34 ea		 xor	 al, -22			; ffffffeaH
  001cd	88 45 fb	 mov	 BYTE PTR __k$[ebp+27], al
  001d0	e9 9d 00 00 00	 jmp	 $LN111@LoadString@4
$LN69@LoadString@4:
  001d5	c6 45 fb ea	 mov	 BYTE PTR __k$[ebp+27], -22 ; ffffffeaH
  001d9	e9 94 00 00 00	 jmp	 $LN111@LoadString@4
$LN70@LoadString@4:
  001de	88 4d fa	 mov	 BYTE PTR __k$[ebp+26], cl
  001e1	e9 8c 00 00 00	 jmp	 $LN111@LoadString@4
$LN71@LoadString@4:
  001e6	88 5d f9	 mov	 BYTE PTR __k$[ebp+25], bl
  001e9	e9 84 00 00 00	 jmp	 $LN111@LoadString@4
$LN72@LoadString@4:
  001ee	c6 45 f8 ed	 mov	 BYTE PTR __k$[ebp+24], -19 ; ffffffedH
  001f2	eb 7e		 jmp	 SHORT $LN111@LoadString@4
$LN74@LoadString@4:
  001f4	88 4d f6	 mov	 BYTE PTR __k$[ebp+22], cl
  001f7	eb 79		 jmp	 SHORT $LN111@LoadString@4
$LN75@LoadString@4:
  001f9	88 5d f5	 mov	 BYTE PTR __k$[ebp+21], bl
  001fc	eb 74		 jmp	 SHORT $LN111@LoadString@4
$LN76@LoadString@4:
  001fe	c6 45 f4 ed	 mov	 BYTE PTR __k$[ebp+20], -19 ; ffffffedH
  00202	eb 6e		 jmp	 SHORT $LN111@LoadString@4
$LN77@LoadString@4:
  00204	c6 45 f3 ea	 mov	 BYTE PTR __k$[ebp+19], -22 ; ffffffeaH
  00208	eb 68		 jmp	 SHORT $LN111@LoadString@4
$LN78@LoadString@4:
  0020a	88 4d f2	 mov	 BYTE PTR __k$[ebp+18], cl
  0020d	eb 63		 jmp	 SHORT $LN111@LoadString@4
$LN79@LoadString@4:
  0020f	88 5d f1	 mov	 BYTE PTR __k$[ebp+17], bl
  00212	eb 5e		 jmp	 SHORT $LN111@LoadString@4
$LN80@LoadString@4:
  00214	c6 45 f0 ed	 mov	 BYTE PTR __k$[ebp+16], -19 ; ffffffedH
  00218	eb 58		 jmp	 SHORT $LN111@LoadString@4
$LN81@LoadString@4:
  0021a	c6 45 ef ea	 mov	 BYTE PTR __k$[ebp+15], -22 ; ffffffeaH
  0021e	eb 52		 jmp	 SHORT $LN111@LoadString@4
$LN82@LoadString@4:
  00220	88 4d ee	 mov	 BYTE PTR __k$[ebp+14], cl
  00223	eb 4d		 jmp	 SHORT $LN111@LoadString@4
$LN83@LoadString@4:
  00225	88 5d ed	 mov	 BYTE PTR __k$[ebp+13], bl
  00228	eb 48		 jmp	 SHORT $LN111@LoadString@4
$LN84@LoadString@4:
  0022a	c6 45 ec ed	 mov	 BYTE PTR __k$[ebp+12], -19 ; ffffffedH
  0022e	eb 42		 jmp	 SHORT $LN111@LoadString@4
$LN85@LoadString@4:
  00230	c6 45 eb ea	 mov	 BYTE PTR __k$[ebp+11], -22 ; ffffffeaH
  00234	eb 3c		 jmp	 SHORT $LN111@LoadString@4
$LN86@LoadString@4:
  00236	88 4d ea	 mov	 BYTE PTR __k$[ebp+10], cl
  00239	eb 37		 jmp	 SHORT $LN111@LoadString@4
$LN87@LoadString@4:
  0023b	88 5d e9	 mov	 BYTE PTR __k$[ebp+9], bl
  0023e	eb 32		 jmp	 SHORT $LN111@LoadString@4
$LN88@LoadString@4:
  00240	c6 45 e8 ed	 mov	 BYTE PTR __k$[ebp+8], -19 ; ffffffedH
  00244	eb 2c		 jmp	 SHORT $LN111@LoadString@4
$LN89@LoadString@4:
  00246	c6 45 e7 ea	 mov	 BYTE PTR __k$[ebp+7], -22 ; ffffffeaH
  0024a	eb 26		 jmp	 SHORT $LN111@LoadString@4
$LN90@LoadString@4:
  0024c	88 4d e6	 mov	 BYTE PTR __k$[ebp+6], cl
  0024f	eb 21		 jmp	 SHORT $LN111@LoadString@4
$LN91@LoadString@4:
  00251	88 5d e5	 mov	 BYTE PTR __k$[ebp+5], bl
  00254	eb 1c		 jmp	 SHORT $LN111@LoadString@4
$LN92@LoadString@4:
  00256	c6 45 e4 ed	 mov	 BYTE PTR __k$[ebp+4], -19 ; ffffffedH
  0025a	eb 16		 jmp	 SHORT $LN111@LoadString@4
$LN93@LoadString@4:
  0025c	c6 45 e3 ea	 mov	 BYTE PTR __k$[ebp+3], -22 ; ffffffeaH
  00260	eb 10		 jmp	 SHORT $LN111@LoadString@4
$LN94@LoadString@4:
  00262	c6 45 e2 eb	 mov	 BYTE PTR __k$[ebp+2], -21 ; ffffffebH
  00266	eb 0a		 jmp	 SHORT $LN111@LoadString@4
$LN95@LoadString@4:
  00268	c6 45 e1 ec	 mov	 BYTE PTR __k$[ebp+1], -20 ; ffffffecH
  0026c	eb 04		 jmp	 SHORT $LN111@LoadString@4
$LN96@LoadString@4:
  0026e	c6 45 e0 ed	 mov	 BYTE PTR __k$[ebp], -19	; ffffffedH
$LN111@LoadString@4:
  00272	6a 05		 push	 5
  00274	8d 45 e0	 lea	 eax, DWORD PTR __k$[ebp]
  00277	c6 45 f7 00	 mov	 BYTE PTR __k$[ebp+23], 0
  0027b	5a		 pop	 edx
$LL104@LoadString@4:
  0027c	81 30 ed ec eb
	ea		 xor	 DWORD PTR [eax], -353637139 ; eaebecedH
  00282	83 c0 04	 add	 eax, 4
  00285	4a		 dec	 edx
  00286	75 f4		 jne	 SHORT $LL104@LoadString@4
  00288	6a 14		 push	 20			; 00000014H
  0028a	58		 pop	 eax
$LL101@LoadString@4:
  0028b	8b c8		 mov	 ecx, eax
  0028d	81 e1 03 00 00
	80		 and	 ecx, -2147483645	; 80000003H
  00293	79 05		 jns	 SHORT $LN112@LoadString@4
  00295	49		 dec	 ecx
  00296	83 c9 fc	 or	 ecx, -4			; fffffffcH
  00299	41		 inc	 ecx
$LN112@LoadString@4:
  0029a	b2 ed		 mov	 dl, -19			; ffffffedH
  0029c	2a d1		 sub	 dl, cl
  0029e	30 54 05 e0	 xor	 BYTE PTR __k$[ebp+eax], dl
  002a2	40		 inc	 eax
  002a3	83 f8 17	 cmp	 eax, 23			; 00000017H
  002a6	7c e3		 jl	 SHORT $LL101@LoadString@4

; 163  : 		LoadString(_k, d, b, i);

  002a8	ff 75 14	 push	 DWORD PTR _i$[ebp]
  002ab	8b 4d dc	 mov	 ecx, DWORD PTR _this$GSCopy$[ebp]
  002ae	57		 push	 edi
  002af	56		 push	 esi
  002b0	8d 45 e0	 lea	 eax, DWORD PTR __k$[ebp]
  002b3	50		 push	 eax
  002b4	ff 15 00 00 00
	00		 call	 DWORD PTR __imp_?LoadStringA@ioINILoader@@QAEXPBD0PADH@Z

; 164  : 	}

  002ba	8b 4d fc	 mov	 ecx, DWORD PTR __$ArrayPad$[ebp]
  002bd	5f		 pop	 edi
  002be	5e		 pop	 esi
  002bf	33 cd		 xor	 ecx, ebp
  002c1	5b		 pop	 ebx
  002c2	e8 00 00 00 00	 call	 @__security_check_cookie@4
  002c7	c9		 leave
  002c8	c2 10 00	 ret	 16			; 00000010H
??$LoadString_e@$0BI@@ioINILoader@@QAEXAAY0BI@$$CBDAAY00$$CBDPADH@Z ENDP ; ioINILoader::LoadString_e<24>
_TEXT	ENDS
PUBLIC	__$ArrayPad$
PUBLIC	??$LoadFloat_e@$0BN@@ioINILoader@@QAEMAAY0BN@$$CBDM@Z ; ioINILoader::LoadFloat_e<29>
; Function compile flags: /Ogsp
;	COMDAT ??$LoadFloat_e@$0BN@@ioINILoader@@QAEMAAY0BN@$$CBDM@Z
_TEXT	SEGMENT
__k$ = -40						; size = 29
__$ArrayPad$ = -4					; size = 4
_k$ = 8							; size = 4
_f$ = 12						; size = 4
??$LoadFloat_e@$0BN@@ioINILoader@@QAEMAAY0BN@$$CBDM@Z PROC ; ioINILoader::LoadFloat_e<29>, COMDAT
; _this$ = ecx

; 135  : 	{

  00000	55		 push	 ebp
  00001	8b ec		 mov	 ebp, esp
  00003	83 ec 28	 sub	 esp, 40			; 00000028H
  00006	a1 00 00 00 00	 mov	 eax, DWORD PTR ___security_cookie
  0000b	33 c5		 xor	 eax, ebp
  0000d	89 45 fc	 mov	 DWORD PTR __$ArrayPad$[ebp], eax
  00010	8b 45 08	 mov	 eax, DWORD PTR _k$[ebp]

; 136  : 		_ENCSTR(k, _k);

  00013	8a 10		 mov	 dl, BYTE PTR [eax]
  00015	53		 push	 ebx
  00016	56		 push	 esi
  00017	8b f1		 mov	 esi, ecx
  00019	84 d2		 test	 dl, dl
  0001b	0f 84 c3 02 00
	00		 je	 $LN96@LoadFloat_@2
  00021	80 f2 ed	 xor	 dl, -19			; ffffffedH
  00024	88 55 d8	 mov	 BYTE PTR __k$[ebp], dl
  00027	8a 50 01	 mov	 dl, BYTE PTR [eax+1]
  0002a	84 d2		 test	 dl, dl
  0002c	0f 84 ac 02 00
	00		 je	 $LN95@LoadFloat_@2
  00032	b1 ec		 mov	 cl, -20			; ffffffecH
  00034	32 d1		 xor	 dl, cl
  00036	88 55 d9	 mov	 BYTE PTR __k$[ebp+1], dl
  00039	8a 50 02	 mov	 dl, BYTE PTR [eax+2]
  0003c	84 d2		 test	 dl, dl
  0003e	0f 84 94 02 00
	00		 je	 $LN94@LoadFloat_@2
  00044	b3 eb		 mov	 bl, -21			; ffffffebH
  00046	32 d3		 xor	 dl, bl
  00048	88 55 da	 mov	 BYTE PTR __k$[ebp+2], dl
  0004b	8a 50 03	 mov	 dl, BYTE PTR [eax+3]
  0004e	84 d2		 test	 dl, dl
  00050	0f 84 7c 02 00
	00		 je	 $LN93@LoadFloat_@2
  00056	80 f2 ea	 xor	 dl, -22			; ffffffeaH
  00059	88 55 db	 mov	 BYTE PTR __k$[ebp+3], dl
  0005c	8a 50 04	 mov	 dl, BYTE PTR [eax+4]
  0005f	84 d2		 test	 dl, dl
  00061	0f 84 65 02 00
	00		 je	 $LN92@LoadFloat_@2
  00067	80 f2 ed	 xor	 dl, -19			; ffffffedH
  0006a	88 55 dc	 mov	 BYTE PTR __k$[ebp+4], dl
  0006d	8a 50 05	 mov	 dl, BYTE PTR [eax+5]
  00070	84 d2		 test	 dl, dl
  00072	0f 84 4f 02 00
	00		 je	 $LN91@LoadFloat_@2
  00078	32 d1		 xor	 dl, cl
  0007a	88 55 dd	 mov	 BYTE PTR __k$[ebp+5], dl
  0007d	8a 50 06	 mov	 dl, BYTE PTR [eax+6]
  00080	84 d2		 test	 dl, dl
  00082	0f 84 3a 02 00
	00		 je	 $LN90@LoadFloat_@2
  00088	32 d3		 xor	 dl, bl
  0008a	88 55 de	 mov	 BYTE PTR __k$[ebp+6], dl
  0008d	8a 50 07	 mov	 dl, BYTE PTR [eax+7]
  00090	84 d2		 test	 dl, dl
  00092	0f 84 24 02 00
	00		 je	 $LN89@LoadFloat_@2
  00098	80 f2 ea	 xor	 dl, -22			; ffffffeaH
  0009b	88 55 df	 mov	 BYTE PTR __k$[ebp+7], dl
  0009e	8a 50 08	 mov	 dl, BYTE PTR [eax+8]
  000a1	84 d2		 test	 dl, dl
  000a3	0f 84 0d 02 00
	00		 je	 $LN88@LoadFloat_@2
  000a9	80 f2 ed	 xor	 dl, -19			; ffffffedH
  000ac	88 55 e0	 mov	 BYTE PTR __k$[ebp+8], dl
  000af	8a 50 09	 mov	 dl, BYTE PTR [eax+9]
  000b2	84 d2		 test	 dl, dl
  000b4	0f 84 f7 01 00
	00		 je	 $LN87@LoadFloat_@2
  000ba	32 d1		 xor	 dl, cl
  000bc	88 55 e1	 mov	 BYTE PTR __k$[ebp+9], dl
  000bf	8a 50 0a	 mov	 dl, BYTE PTR [eax+10]
  000c2	84 d2		 test	 dl, dl
  000c4	0f 84 e2 01 00
	00		 je	 $LN86@LoadFloat_@2
  000ca	32 d3		 xor	 dl, bl
  000cc	88 55 e2	 mov	 BYTE PTR __k$[ebp+10], dl
  000cf	8a 50 0b	 mov	 dl, BYTE PTR [eax+11]
  000d2	84 d2		 test	 dl, dl
  000d4	0f 84 cc 01 00
	00		 je	 $LN85@LoadFloat_@2
  000da	80 f2 ea	 xor	 dl, -22			; ffffffeaH
  000dd	88 55 e3	 mov	 BYTE PTR __k$[ebp+11], dl
  000e0	8a 50 0c	 mov	 dl, BYTE PTR [eax+12]
  000e3	84 d2		 test	 dl, dl
  000e5	0f 84 b5 01 00
	00		 je	 $LN84@LoadFloat_@2
  000eb	80 f2 ed	 xor	 dl, -19			; ffffffedH
  000ee	88 55 e4	 mov	 BYTE PTR __k$[ebp+12], dl
  000f1	8a 50 0d	 mov	 dl, BYTE PTR [eax+13]
  000f4	84 d2		 test	 dl, dl
  000f6	0f 84 9f 01 00
	00		 je	 $LN83@LoadFloat_@2
  000fc	32 d1		 xor	 dl, cl
  000fe	88 55 e5	 mov	 BYTE PTR __k$[ebp+13], dl
  00101	8a 50 0e	 mov	 dl, BYTE PTR [eax+14]
  00104	84 d2		 test	 dl, dl
  00106	0f 84 8a 01 00
	00		 je	 $LN82@LoadFloat_@2
  0010c	32 d3		 xor	 dl, bl
  0010e	88 55 e6	 mov	 BYTE PTR __k$[ebp+14], dl
  00111	8a 50 0f	 mov	 dl, BYTE PTR [eax+15]
  00114	84 d2		 test	 dl, dl
  00116	0f 84 74 01 00
	00		 je	 $LN81@LoadFloat_@2
  0011c	80 f2 ea	 xor	 dl, -22			; ffffffeaH
  0011f	88 55 e7	 mov	 BYTE PTR __k$[ebp+15], dl
  00122	8a 50 10	 mov	 dl, BYTE PTR [eax+16]
  00125	84 d2		 test	 dl, dl
  00127	0f 84 5d 01 00
	00		 je	 $LN80@LoadFloat_@2
  0012d	80 f2 ed	 xor	 dl, -19			; ffffffedH
  00130	88 55 e8	 mov	 BYTE PTR __k$[ebp+16], dl
  00133	8a 50 11	 mov	 dl, BYTE PTR [eax+17]
  00136	84 d2		 test	 dl, dl
  00138	0f 84 47 01 00
	00		 je	 $LN79@LoadFloat_@2
  0013e	32 d1		 xor	 dl, cl
  00140	88 55 e9	 mov	 BYTE PTR __k$[ebp+17], dl
  00143	8a 50 12	 mov	 dl, BYTE PTR [eax+18]
  00146	84 d2		 test	 dl, dl
  00148	0f 84 32 01 00
	00		 je	 $LN78@LoadFloat_@2
  0014e	32 d3		 xor	 dl, bl
  00150	88 55 ea	 mov	 BYTE PTR __k$[ebp+18], dl
  00153	8a 50 13	 mov	 dl, BYTE PTR [eax+19]
  00156	84 d2		 test	 dl, dl
  00158	0f 84 1c 01 00
	00		 je	 $LN77@LoadFloat_@2
  0015e	80 f2 ea	 xor	 dl, -22			; ffffffeaH
  00161	88 55 eb	 mov	 BYTE PTR __k$[ebp+19], dl
  00164	8a 50 14	 mov	 dl, BYTE PTR [eax+20]
  00167	84 d2		 test	 dl, dl
  00169	0f 84 05 01 00
	00		 je	 $LN76@LoadFloat_@2
  0016f	80 f2 ed	 xor	 dl, -19			; ffffffedH
  00172	88 55 ec	 mov	 BYTE PTR __k$[ebp+20], dl
  00175	8a 50 15	 mov	 dl, BYTE PTR [eax+21]
  00178	84 d2		 test	 dl, dl
  0017a	0f 84 ef 00 00
	00		 je	 $LN75@LoadFloat_@2
  00180	32 d1		 xor	 dl, cl
  00182	88 55 ed	 mov	 BYTE PTR __k$[ebp+21], dl
  00185	8a 50 16	 mov	 dl, BYTE PTR [eax+22]
  00188	84 d2		 test	 dl, dl
  0018a	0f 84 da 00 00
	00		 je	 $LN74@LoadFloat_@2
  00190	32 d3		 xor	 dl, bl
  00192	88 55 ee	 mov	 BYTE PTR __k$[ebp+22], dl
  00195	8a 50 17	 mov	 dl, BYTE PTR [eax+23]
  00198	84 d2		 test	 dl, dl
  0019a	0f 84 c4 00 00
	00		 je	 $LN73@LoadFloat_@2
  001a0	80 f2 ea	 xor	 dl, -22			; ffffffeaH
  001a3	88 55 ef	 mov	 BYTE PTR __k$[ebp+23], dl
  001a6	8a 50 18	 mov	 dl, BYTE PTR [eax+24]
  001a9	84 d2		 test	 dl, dl
  001ab	0f 84 aa 00 00
	00		 je	 $LN72@LoadFloat_@2
  001b1	80 f2 ed	 xor	 dl, -19			; ffffffedH
  001b4	88 55 f0	 mov	 BYTE PTR __k$[ebp+24], dl
  001b7	8a 50 19	 mov	 dl, BYTE PTR [eax+25]
  001ba	84 d2		 test	 dl, dl
  001bc	0f 84 91 00 00
	00		 je	 $LN71@LoadFloat_@2
  001c2	32 d1		 xor	 dl, cl
  001c4	88 55 f1	 mov	 BYTE PTR __k$[ebp+25], dl
  001c7	8a 50 1a	 mov	 dl, BYTE PTR [eax+26]
  001ca	84 d2		 test	 dl, dl
  001cc	74 7d		 je	 SHORT $LN70@LoadFloat_@2
  001ce	32 d3		 xor	 dl, bl
  001d0	88 55 f2	 mov	 BYTE PTR __k$[ebp+26], dl
  001d3	8a 50 1b	 mov	 dl, BYTE PTR [eax+27]
  001d6	84 d2		 test	 dl, dl
  001d8	74 68		 je	 SHORT $LN69@LoadFloat_@2
  001da	80 f2 ea	 xor	 dl, -22			; ffffffeaH
  001dd	80 78 1c 00	 cmp	 BYTE PTR [eax+28], 0
  001e1	88 55 f3	 mov	 BYTE PTR __k$[ebp+27], dl
  001e4	0f 84 fe 00 00
	00		 je	 $LN1@LoadFloat_@2
  001ea	8a 50 1d	 mov	 dl, BYTE PTR [eax+29]
  001ed	84 d2		 test	 dl, dl
  001ef	74 49		 je	 SHORT $LN67@LoadFloat_@2
  001f1	32 d1		 xor	 dl, cl
  001f3	88 55 f5	 mov	 BYTE PTR __k$[ebp+29], dl
  001f6	8a 50 1e	 mov	 dl, BYTE PTR [eax+30]
  001f9	84 d2		 test	 dl, dl
  001fb	74 35		 je	 SHORT $LN66@LoadFloat_@2
  001fd	32 d3		 xor	 dl, bl
  001ff	88 55 f6	 mov	 BYTE PTR __k$[ebp+30], dl
  00202	8a 50 1f	 mov	 dl, BYTE PTR [eax+31]
  00205	84 d2		 test	 dl, dl
  00207	74 20		 je	 SHORT $LN65@LoadFloat_@2
  00209	8a 40 20	 mov	 al, BYTE PTR [eax+32]
  0020c	80 f2 ea	 xor	 dl, -22			; ffffffeaH
  0020f	88 55 f7	 mov	 BYTE PTR __k$[ebp+31], dl
  00212	84 c0		 test	 al, al
  00214	74 0a		 je	 SHORT $LN64@LoadFloat_@2
  00216	34 ed		 xor	 al, -19			; ffffffedH
  00218	88 45 f8	 mov	 BYTE PTR __k$[ebp+32], al
  0021b	e9 c8 00 00 00	 jmp	 $LN1@LoadFloat_@2
$LN64@LoadFloat_@2:
  00220	c6 45 f8 ed	 mov	 BYTE PTR __k$[ebp+32], -19 ; ffffffedH
  00224	e9 bf 00 00 00	 jmp	 $LN1@LoadFloat_@2
$LN65@LoadFloat_@2:
  00229	c6 45 f7 ea	 mov	 BYTE PTR __k$[ebp+31], -22 ; ffffffeaH
  0022d	e9 b6 00 00 00	 jmp	 $LN1@LoadFloat_@2
$LN66@LoadFloat_@2:
  00232	88 5d f6	 mov	 BYTE PTR __k$[ebp+30], bl
  00235	e9 ae 00 00 00	 jmp	 $LN1@LoadFloat_@2
$LN67@LoadFloat_@2:
  0023a	88 4d f5	 mov	 BYTE PTR __k$[ebp+29], cl
  0023d	e9 a6 00 00 00	 jmp	 $LN1@LoadFloat_@2
$LN69@LoadFloat_@2:
  00242	c6 45 f3 ea	 mov	 BYTE PTR __k$[ebp+27], -22 ; ffffffeaH
  00246	e9 9d 00 00 00	 jmp	 $LN1@LoadFloat_@2
$LN70@LoadFloat_@2:
  0024b	88 5d f2	 mov	 BYTE PTR __k$[ebp+26], bl
  0024e	e9 95 00 00 00	 jmp	 $LN1@LoadFloat_@2
$LN71@LoadFloat_@2:
  00253	88 4d f1	 mov	 BYTE PTR __k$[ebp+25], cl
  00256	e9 8d 00 00 00	 jmp	 $LN1@LoadFloat_@2
$LN72@LoadFloat_@2:
  0025b	c6 45 f0 ed	 mov	 BYTE PTR __k$[ebp+24], -19 ; ffffffedH
  0025f	e9 84 00 00 00	 jmp	 $LN1@LoadFloat_@2
$LN73@LoadFloat_@2:
  00264	c6 45 ef ea	 mov	 BYTE PTR __k$[ebp+23], -22 ; ffffffeaH
  00268	eb 7e		 jmp	 SHORT $LN1@LoadFloat_@2
$LN74@LoadFloat_@2:
  0026a	88 5d ee	 mov	 BYTE PTR __k$[ebp+22], bl
  0026d	eb 79		 jmp	 SHORT $LN1@LoadFloat_@2
$LN75@LoadFloat_@2:
  0026f	88 4d ed	 mov	 BYTE PTR __k$[ebp+21], cl
  00272	eb 74		 jmp	 SHORT $LN1@LoadFloat_@2
$LN76@LoadFloat_@2:
  00274	c6 45 ec ed	 mov	 BYTE PTR __k$[ebp+20], -19 ; ffffffedH
  00278	eb 6e		 jmp	 SHORT $LN1@LoadFloat_@2
$LN77@LoadFloat_@2:
  0027a	c6 45 eb ea	 mov	 BYTE PTR __k$[ebp+19], -22 ; ffffffeaH
  0027e	eb 68		 jmp	 SHORT $LN1@LoadFloat_@2
$LN78@LoadFloat_@2:
  00280	88 5d ea	 mov	 BYTE PTR __k$[ebp+18], bl
  00283	eb 63		 jmp	 SHORT $LN1@LoadFloat_@2
$LN79@LoadFloat_@2:
  00285	88 4d e9	 mov	 BYTE PTR __k$[ebp+17], cl
  00288	eb 5e		 jmp	 SHORT $LN1@LoadFloat_@2
$LN80@LoadFloat_@2:
  0028a	c6 45 e8 ed	 mov	 BYTE PTR __k$[ebp+16], -19 ; ffffffedH
  0028e	eb 58		 jmp	 SHORT $LN1@LoadFloat_@2
$LN81@LoadFloat_@2:
  00290	c6 45 e7 ea	 mov	 BYTE PTR __k$[ebp+15], -22 ; ffffffeaH
  00294	eb 52		 jmp	 SHORT $LN1@LoadFloat_@2
$LN82@LoadFloat_@2:
  00296	88 5d e6	 mov	 BYTE PTR __k$[ebp+14], bl
  00299	eb 4d		 jmp	 SHORT $LN1@LoadFloat_@2
$LN83@LoadFloat_@2:
  0029b	88 4d e5	 mov	 BYTE PTR __k$[ebp+13], cl
  0029e	eb 48		 jmp	 SHORT $LN1@LoadFloat_@2
$LN84@LoadFloat_@2:
  002a0	c6 45 e4 ed	 mov	 BYTE PTR __k$[ebp+12], -19 ; ffffffedH
  002a4	eb 42		 jmp	 SHORT $LN1@LoadFloat_@2
$LN85@LoadFloat_@2:
  002a6	c6 45 e3 ea	 mov	 BYTE PTR __k$[ebp+11], -22 ; ffffffeaH
  002aa	eb 3c		 jmp	 SHORT $LN1@LoadFloat_@2
$LN86@LoadFloat_@2:
  002ac	88 5d e2	 mov	 BYTE PTR __k$[ebp+10], bl
  002af	eb 37		 jmp	 SHORT $LN1@LoadFloat_@2
$LN87@LoadFloat_@2:
  002b1	88 4d e1	 mov	 BYTE PTR __k$[ebp+9], cl
  002b4	eb 32		 jmp	 SHORT $LN1@LoadFloat_@2
$LN88@LoadFloat_@2:
  002b6	c6 45 e0 ed	 mov	 BYTE PTR __k$[ebp+8], -19 ; ffffffedH
  002ba	eb 2c		 jmp	 SHORT $LN1@LoadFloat_@2
$LN89@LoadFloat_@2:
  002bc	c6 45 df ea	 mov	 BYTE PTR __k$[ebp+7], -22 ; ffffffeaH
  002c0	eb 26		 jmp	 SHORT $LN1@LoadFloat_@2
$LN90@LoadFloat_@2:
  002c2	88 5d de	 mov	 BYTE PTR __k$[ebp+6], bl
  002c5	eb 21		 jmp	 SHORT $LN1@LoadFloat_@2
$LN91@LoadFloat_@2:
  002c7	88 4d dd	 mov	 BYTE PTR __k$[ebp+5], cl
  002ca	eb 1c		 jmp	 SHORT $LN1@LoadFloat_@2
$LN92@LoadFloat_@2:
  002cc	c6 45 dc ed	 mov	 BYTE PTR __k$[ebp+4], -19 ; ffffffedH
  002d0	eb 16		 jmp	 SHORT $LN1@LoadFloat_@2
$LN93@LoadFloat_@2:
  002d2	c6 45 db ea	 mov	 BYTE PTR __k$[ebp+3], -22 ; ffffffeaH
  002d6	eb 10		 jmp	 SHORT $LN1@LoadFloat_@2
$LN94@LoadFloat_@2:
  002d8	c6 45 da eb	 mov	 BYTE PTR __k$[ebp+2], -21 ; ffffffebH
  002dc	eb 0a		 jmp	 SHORT $LN1@LoadFloat_@2
$LN95@LoadFloat_@2:
  002de	c6 45 d9 ec	 mov	 BYTE PTR __k$[ebp+1], -20 ; ffffffecH
  002e2	eb 04		 jmp	 SHORT $LN1@LoadFloat_@2
$LN96@LoadFloat_@2:
  002e4	c6 45 d8 ed	 mov	 BYTE PTR __k$[ebp], -19	; ffffffedH
$LN1@LoadFloat_@2:
  002e8	6a 07		 push	 7
  002ea	8d 45 d8	 lea	 eax, DWORD PTR __k$[ebp]
  002ed	c6 45 f4 00	 mov	 BYTE PTR __k$[ebp+28], 0
  002f1	5a		 pop	 edx
$LL104@LoadFloat_@2:
  002f2	81 30 ed ec eb
	ea		 xor	 DWORD PTR [eax], -353637139 ; eaebecedH
  002f8	83 c0 04	 add	 eax, 4
  002fb	4a		 dec	 edx
  002fc	75 f4		 jne	 SHORT $LL104@LoadFloat_@2

; 137  : 		return LoadFloat(_k, f);

  002fe	f3 0f 10 45 0c	 movss	 xmm0, DWORD PTR _f$[ebp]
  00303	51		 push	 ecx
  00304	8d 45 d8	 lea	 eax, DWORD PTR __k$[ebp]
  00307	f3 0f 11 04 24	 movss	 DWORD PTR [esp], xmm0
  0030c	50		 push	 eax
  0030d	8b ce		 mov	 ecx, esi
  0030f	ff 15 00 00 00
	00		 call	 DWORD PTR __imp_?LoadFloat@ioINILoader@@QAEMPBDM@Z

; 138  : 	}

  00315	8b 4d fc	 mov	 ecx, DWORD PTR __$ArrayPad$[ebp]
  00318	5e		 pop	 esi
  00319	33 cd		 xor	 ecx, ebp
  0031b	5b		 pop	 ebx
  0031c	e8 00 00 00 00	 call	 @__security_check_cookie@4
  00321	c9		 leave
  00322	c2 08 00	 ret	 8
??$LoadFloat_e@$0BN@@ioINILoader@@QAEMAAY0BN@$$CBDM@Z ENDP ; ioINILoader::LoadFloat_e<29>
_TEXT	ENDS
PUBLIC	__$ArrayPad$
PUBLIC	??$LoadFloat_e@$0BC@@ioINILoader@@QAEMAAY0BC@$$CBDM@Z ; ioINILoader::LoadFloat_e<18>
; Function compile flags: /Ogsp
;	COMDAT ??$LoadFloat_e@$0BC@@ioINILoader@@QAEMAAY0BC@$$CBDM@Z
_TEXT	SEGMENT
__k$ = -28						; size = 18
__$ArrayPad$ = -4					; size = 4
_k$ = 8							; size = 4
_f$ = 12						; size = 4
??$LoadFloat_e@$0BC@@ioINILoader@@QAEMAAY0BC@$$CBDM@Z PROC ; ioINILoader::LoadFloat_e<18>, COMDAT
; _this$ = ecx

; 135  : 	{

  00000	55		 push	 ebp
  00001	8b ec		 mov	 ebp, esp
  00003	83 ec 1c	 sub	 esp, 28			; 0000001cH
  00006	a1 00 00 00 00	 mov	 eax, DWORD PTR ___security_cookie
  0000b	33 c5		 xor	 eax, ebp
  0000d	89 45 fc	 mov	 DWORD PTR __$ArrayPad$[ebp], eax
  00010	8b 45 08	 mov	 eax, DWORD PTR _k$[ebp]

; 136  : 		_ENCSTR(k, _k);

  00013	8a 10		 mov	 dl, BYTE PTR [eax]
  00015	56		 push	 esi
  00016	8b f1		 mov	 esi, ecx
  00018	84 d2		 test	 dl, dl
  0001a	0f 84 be 01 00
	00		 je	 $LN96@LoadFloat_@3
  00020	80 f2 ed	 xor	 dl, -19			; ffffffedH
  00023	88 55 e4	 mov	 BYTE PTR __k$[ebp], dl
  00026	8a 50 01	 mov	 dl, BYTE PTR [eax+1]
  00029	84 d2		 test	 dl, dl
  0002b	0f 84 a7 01 00
	00		 je	 $LN95@LoadFloat_@3
  00031	80 f2 ec	 xor	 dl, -20			; ffffffecH
  00034	88 55 e5	 mov	 BYTE PTR __k$[ebp+1], dl
  00037	8a 50 02	 mov	 dl, BYTE PTR [eax+2]
  0003a	84 d2		 test	 dl, dl
  0003c	0f 84 90 01 00
	00		 je	 $LN94@LoadFloat_@3
  00042	b1 eb		 mov	 cl, -21			; ffffffebH
  00044	32 d1		 xor	 dl, cl
  00046	88 55 e6	 mov	 BYTE PTR __k$[ebp+2], dl
  00049	8a 50 03	 mov	 dl, BYTE PTR [eax+3]
  0004c	84 d2		 test	 dl, dl
  0004e	0f 84 78 01 00
	00		 je	 $LN93@LoadFloat_@3
  00054	80 f2 ea	 xor	 dl, -22			; ffffffeaH
  00057	88 55 e7	 mov	 BYTE PTR __k$[ebp+3], dl
  0005a	8a 50 04	 mov	 dl, BYTE PTR [eax+4]
  0005d	84 d2		 test	 dl, dl
  0005f	0f 84 61 01 00
	00		 je	 $LN92@LoadFloat_@3
  00065	80 f2 ed	 xor	 dl, -19			; ffffffedH
  00068	88 55 e8	 mov	 BYTE PTR __k$[ebp+4], dl
  0006b	8a 50 05	 mov	 dl, BYTE PTR [eax+5]
  0006e	84 d2		 test	 dl, dl
  00070	0f 84 4a 01 00
	00		 je	 $LN91@LoadFloat_@3
  00076	80 f2 ec	 xor	 dl, -20			; ffffffecH
  00079	88 55 e9	 mov	 BYTE PTR __k$[ebp+5], dl
  0007c	8a 50 06	 mov	 dl, BYTE PTR [eax+6]
  0007f	84 d2		 test	 dl, dl
  00081	0f 84 34 01 00
	00		 je	 $LN90@LoadFloat_@3
  00087	32 d1		 xor	 dl, cl
  00089	88 55 ea	 mov	 BYTE PTR __k$[ebp+6], dl
  0008c	8a 50 07	 mov	 dl, BYTE PTR [eax+7]
  0008f	84 d2		 test	 dl, dl
  00091	0f 84 1e 01 00
	00		 je	 $LN89@LoadFloat_@3
  00097	80 f2 ea	 xor	 dl, -22			; ffffffeaH
  0009a	88 55 eb	 mov	 BYTE PTR __k$[ebp+7], dl
  0009d	8a 50 08	 mov	 dl, BYTE PTR [eax+8]
  000a0	84 d2		 test	 dl, dl
  000a2	0f 84 07 01 00
	00		 je	 $LN88@LoadFloat_@3
  000a8	80 f2 ed	 xor	 dl, -19			; ffffffedH
  000ab	88 55 ec	 mov	 BYTE PTR __k$[ebp+8], dl
  000ae	8a 50 09	 mov	 dl, BYTE PTR [eax+9]
  000b1	84 d2		 test	 dl, dl
  000b3	0f 84 f0 00 00
	00		 je	 $LN87@LoadFloat_@3
  000b9	80 f2 ec	 xor	 dl, -20			; ffffffecH
  000bc	88 55 ed	 mov	 BYTE PTR __k$[ebp+9], dl
  000bf	8a 50 0a	 mov	 dl, BYTE PTR [eax+10]
  000c2	84 d2		 test	 dl, dl
  000c4	0f 84 da 00 00
	00		 je	 $LN86@LoadFloat_@3
  000ca	32 d1		 xor	 dl, cl
  000cc	88 55 ee	 mov	 BYTE PTR __k$[ebp+10], dl
  000cf	8a 50 0b	 mov	 dl, BYTE PTR [eax+11]
  000d2	84 d2		 test	 dl, dl
  000d4	0f 84 c4 00 00
	00		 je	 $LN85@LoadFloat_@3
  000da	80 f2 ea	 xor	 dl, -22			; ffffffeaH
  000dd	88 55 ef	 mov	 BYTE PTR __k$[ebp+11], dl
  000e0	8a 50 0c	 mov	 dl, BYTE PTR [eax+12]
  000e3	84 d2		 test	 dl, dl
  000e5	0f 84 ad 00 00
	00		 je	 $LN84@LoadFloat_@3
  000eb	80 f2 ed	 xor	 dl, -19			; ffffffedH
  000ee	88 55 f0	 mov	 BYTE PTR __k$[ebp+12], dl
  000f1	8a 50 0d	 mov	 dl, BYTE PTR [eax+13]
  000f4	84 d2		 test	 dl, dl
  000f6	0f 84 96 00 00
	00		 je	 $LN83@LoadFloat_@3
  000fc	80 f2 ec	 xor	 dl, -20			; ffffffecH
  000ff	88 55 f1	 mov	 BYTE PTR __k$[ebp+13], dl
  00102	8a 50 0e	 mov	 dl, BYTE PTR [eax+14]
  00105	84 d2		 test	 dl, dl
  00107	0f 84 80 00 00
	00		 je	 $LN82@LoadFloat_@3
  0010d	32 d1		 xor	 dl, cl
  0010f	88 55 f2	 mov	 BYTE PTR __k$[ebp+14], dl
  00112	8a 50 0f	 mov	 dl, BYTE PTR [eax+15]
  00115	84 d2		 test	 dl, dl
  00117	74 6e		 je	 SHORT $LN81@LoadFloat_@3
  00119	80 f2 ea	 xor	 dl, -22			; ffffffeaH
  0011c	88 55 f3	 mov	 BYTE PTR __k$[ebp+15], dl
  0011f	8a 50 10	 mov	 dl, BYTE PTR [eax+16]
  00122	84 d2		 test	 dl, dl
  00124	74 5b		 je	 SHORT $LN80@LoadFloat_@3
  00126	80 f2 ed	 xor	 dl, -19			; ffffffedH
  00129	80 78 11 00	 cmp	 BYTE PTR [eax+17], 0
  0012d	88 55 f4	 mov	 BYTE PTR __k$[ebp+16], dl
  00130	0f 84 ac 00 00
	00		 je	 $LN1@LoadFloat_@3
  00136	8a 50 12	 mov	 dl, BYTE PTR [eax+18]
  00139	84 d2		 test	 dl, dl
  0013b	74 3f		 je	 SHORT $LN78@LoadFloat_@3
  0013d	32 d1		 xor	 dl, cl
  0013f	88 55 f6	 mov	 BYTE PTR __k$[ebp+18], dl
  00142	8a 50 13	 mov	 dl, BYTE PTR [eax+19]
  00145	84 d2		 test	 dl, dl
  00147	74 2d		 je	 SHORT $LN77@LoadFloat_@3
  00149	80 f2 ea	 xor	 dl, -22			; ffffffeaH
  0014c	88 55 f7	 mov	 BYTE PTR __k$[ebp+19], dl
  0014f	8a 50 14	 mov	 dl, BYTE PTR [eax+20]
  00152	84 d2		 test	 dl, dl
  00154	74 1a		 je	 SHORT $LN76@LoadFloat_@3
  00156	8a 40 15	 mov	 al, BYTE PTR [eax+21]
  00159	80 f2 ed	 xor	 dl, -19			; ffffffedH
  0015c	88 55 f8	 mov	 BYTE PTR __k$[ebp+20], dl
  0015f	84 c0		 test	 al, al
  00161	74 07		 je	 SHORT $LN75@LoadFloat_@3
  00163	34 ec		 xor	 al, -20			; ffffffecH
  00165	88 45 f9	 mov	 BYTE PTR __k$[ebp+21], al
  00168	eb 78		 jmp	 SHORT $LN1@LoadFloat_@3
$LN75@LoadFloat_@3:
  0016a	c6 45 f9 ec	 mov	 BYTE PTR __k$[ebp+21], -20 ; ffffffecH
  0016e	eb 72		 jmp	 SHORT $LN1@LoadFloat_@3
$LN76@LoadFloat_@3:
  00170	c6 45 f8 ed	 mov	 BYTE PTR __k$[ebp+20], -19 ; ffffffedH
  00174	eb 6c		 jmp	 SHORT $LN1@LoadFloat_@3
$LN77@LoadFloat_@3:
  00176	c6 45 f7 ea	 mov	 BYTE PTR __k$[ebp+19], -22 ; ffffffeaH
  0017a	eb 66		 jmp	 SHORT $LN1@LoadFloat_@3
$LN78@LoadFloat_@3:
  0017c	88 4d f6	 mov	 BYTE PTR __k$[ebp+18], cl
  0017f	eb 61		 jmp	 SHORT $LN1@LoadFloat_@3
$LN80@LoadFloat_@3:
  00181	c6 45 f4 ed	 mov	 BYTE PTR __k$[ebp+16], -19 ; ffffffedH
  00185	eb 5b		 jmp	 SHORT $LN1@LoadFloat_@3
$LN81@LoadFloat_@3:
  00187	c6 45 f3 ea	 mov	 BYTE PTR __k$[ebp+15], -22 ; ffffffeaH
  0018b	eb 55		 jmp	 SHORT $LN1@LoadFloat_@3
$LN82@LoadFloat_@3:
  0018d	88 4d f2	 mov	 BYTE PTR __k$[ebp+14], cl
  00190	eb 50		 jmp	 SHORT $LN1@LoadFloat_@3
$LN83@LoadFloat_@3:
  00192	c6 45 f1 ec	 mov	 BYTE PTR __k$[ebp+13], -20 ; ffffffecH
  00196	eb 4a		 jmp	 SHORT $LN1@LoadFloat_@3
$LN84@LoadFloat_@3:
  00198	c6 45 f0 ed	 mov	 BYTE PTR __k$[ebp+12], -19 ; ffffffedH
  0019c	eb 44		 jmp	 SHORT $LN1@LoadFloat_@3
$LN85@LoadFloat_@3:
  0019e	c6 45 ef ea	 mov	 BYTE PTR __k$[ebp+11], -22 ; ffffffeaH
  001a2	eb 3e		 jmp	 SHORT $LN1@LoadFloat_@3
$LN86@LoadFloat_@3:
  001a4	88 4d ee	 mov	 BYTE PTR __k$[ebp+10], cl
  001a7	eb 39		 jmp	 SHORT $LN1@LoadFloat_@3
$LN87@LoadFloat_@3:
  001a9	c6 45 ed ec	 mov	 BYTE PTR __k$[ebp+9], -20 ; ffffffecH
  001ad	eb 33		 jmp	 SHORT $LN1@LoadFloat_@3
$LN88@LoadFloat_@3:
  001af	c6 45 ec ed	 mov	 BYTE PTR __k$[ebp+8], -19 ; ffffffedH
  001b3	eb 2d		 jmp	 SHORT $LN1@LoadFloat_@3
$LN89@LoadFloat_@3:
  001b5	c6 45 eb ea	 mov	 BYTE PTR __k$[ebp+7], -22 ; ffffffeaH
  001b9	eb 27		 jmp	 SHORT $LN1@LoadFloat_@3
$LN90@LoadFloat_@3:
  001bb	88 4d ea	 mov	 BYTE PTR __k$[ebp+6], cl
  001be	eb 22		 jmp	 SHORT $LN1@LoadFloat_@3
$LN91@LoadFloat_@3:
  001c0	c6 45 e9 ec	 mov	 BYTE PTR __k$[ebp+5], -20 ; ffffffecH
  001c4	eb 1c		 jmp	 SHORT $LN1@LoadFloat_@3
$LN92@LoadFloat_@3:
  001c6	c6 45 e8 ed	 mov	 BYTE PTR __k$[ebp+4], -19 ; ffffffedH
  001ca	eb 16		 jmp	 SHORT $LN1@LoadFloat_@3
$LN93@LoadFloat_@3:
  001cc	c6 45 e7 ea	 mov	 BYTE PTR __k$[ebp+3], -22 ; ffffffeaH
  001d0	eb 10		 jmp	 SHORT $LN1@LoadFloat_@3
$LN94@LoadFloat_@3:
  001d2	c6 45 e6 eb	 mov	 BYTE PTR __k$[ebp+2], -21 ; ffffffebH
  001d6	eb 0a		 jmp	 SHORT $LN1@LoadFloat_@3
$LN95@LoadFloat_@3:
  001d8	c6 45 e5 ec	 mov	 BYTE PTR __k$[ebp+1], -20 ; ffffffecH
  001dc	eb 04		 jmp	 SHORT $LN1@LoadFloat_@3
$LN96@LoadFloat_@3:
  001de	c6 45 e4 ed	 mov	 BYTE PTR __k$[ebp], -19	; ffffffedH
$LN1@LoadFloat_@3:
  001e2	6a 04		 push	 4
  001e4	8d 45 e4	 lea	 eax, DWORD PTR __k$[ebp]
  001e7	c6 45 f5 00	 mov	 BYTE PTR __k$[ebp+17], 0
  001eb	5a		 pop	 edx
$LL104@LoadFloat_@3:
  001ec	81 30 ed ec eb
	ea		 xor	 DWORD PTR [eax], -353637139 ; eaebecedH
  001f2	83 c0 04	 add	 eax, 4
  001f5	4a		 dec	 edx
  001f6	75 f4		 jne	 SHORT $LL104@LoadFloat_@3

; 137  : 		return LoadFloat(_k, f);

  001f8	f3 0f 10 45 0c	 movss	 xmm0, DWORD PTR _f$[ebp]
  001fd	80 75 f4 ed	 xor	 BYTE PTR __k$[ebp+16], -19 ; ffffffedH
  00201	51		 push	 ecx
  00202	8d 45 e4	 lea	 eax, DWORD PTR __k$[ebp]
  00205	f3 0f 11 04 24	 movss	 DWORD PTR [esp], xmm0
  0020a	50		 push	 eax
  0020b	8b ce		 mov	 ecx, esi
  0020d	ff 15 00 00 00
	00		 call	 DWORD PTR __imp_?LoadFloat@ioINILoader@@QAEMPBDM@Z

; 138  : 	}

  00213	8b 4d fc	 mov	 ecx, DWORD PTR __$ArrayPad$[ebp]
  00216	33 cd		 xor	 ecx, ebp
  00218	5e		 pop	 esi
  00219	e8 00 00 00 00	 call	 @__security_check_cookie@4
  0021e	c9		 leave
  0021f	c2 08 00	 ret	 8
??$LoadFloat_e@$0BC@@ioINILoader@@QAEMAAY0BC@$$CBDM@Z ENDP ; ioINILoader::LoadFloat_e<18>
_TEXT	ENDS
PUBLIC	__$ArrayPad$
PUBLIC	??$LoadFloat_e@$0BH@@ioINILoader@@QAEMAAY0BH@$$CBDM@Z ; ioINILoader::LoadFloat_e<23>
; Function compile flags: /Ogsp
;	COMDAT ??$LoadFloat_e@$0BH@@ioINILoader@@QAEMAAY0BH@$$CBDM@Z
_TEXT	SEGMENT
__k$ = -32						; size = 23
__$ArrayPad$ = -4					; size = 4
_k$ = 8							; size = 4
_f$ = 12						; size = 4
??$LoadFloat_e@$0BH@@ioINILoader@@QAEMAAY0BH@$$CBDM@Z PROC ; ioINILoader::LoadFloat_e<23>, COMDAT
; _this$ = ecx

; 135  : 	{

  00000	55		 push	 ebp
  00001	8b ec		 mov	 ebp, esp
  00003	83 ec 20	 sub	 esp, 32			; 00000020H
  00006	a1 00 00 00 00	 mov	 eax, DWORD PTR ___security_cookie
  0000b	33 c5		 xor	 eax, ebp
  0000d	89 45 fc	 mov	 DWORD PTR __$ArrayPad$[ebp], eax
  00010	8b 45 08	 mov	 eax, DWORD PTR _k$[ebp]

; 136  : 		_ENCSTR(k, _k);

  00013	8a 10		 mov	 dl, BYTE PTR [eax]
  00015	53		 push	 ebx
  00016	56		 push	 esi
  00017	8b f1		 mov	 esi, ecx
  00019	84 d2		 test	 dl, dl
  0001b	0f 84 2d 02 00
	00		 je	 $LN96@LoadFloat_@4
  00021	80 f2 ed	 xor	 dl, -19			; ffffffedH
  00024	88 55 e0	 mov	 BYTE PTR __k$[ebp], dl
  00027	8a 50 01	 mov	 dl, BYTE PTR [eax+1]
  0002a	84 d2		 test	 dl, dl
  0002c	0f 84 16 02 00
	00		 je	 $LN95@LoadFloat_@4
  00032	b1 ec		 mov	 cl, -20			; ffffffecH
  00034	32 d1		 xor	 dl, cl
  00036	88 55 e1	 mov	 BYTE PTR __k$[ebp+1], dl
  00039	8a 50 02	 mov	 dl, BYTE PTR [eax+2]
  0003c	84 d2		 test	 dl, dl
  0003e	0f 84 fe 01 00
	00		 je	 $LN94@LoadFloat_@4
  00044	80 f2 eb	 xor	 dl, -21			; ffffffebH
  00047	88 55 e2	 mov	 BYTE PTR __k$[ebp+2], dl
  0004a	8a 50 03	 mov	 dl, BYTE PTR [eax+3]
  0004d	84 d2		 test	 dl, dl
  0004f	0f 84 e7 01 00
	00		 je	 $LN93@LoadFloat_@4
  00055	b3 ea		 mov	 bl, -22			; ffffffeaH
  00057	32 d3		 xor	 dl, bl
  00059	88 55 e3	 mov	 BYTE PTR __k$[ebp+3], dl
  0005c	8a 50 04	 mov	 dl, BYTE PTR [eax+4]
  0005f	84 d2		 test	 dl, dl
  00061	0f 84 cf 01 00
	00		 je	 $LN92@LoadFloat_@4
  00067	80 f2 ed	 xor	 dl, -19			; ffffffedH
  0006a	88 55 e4	 mov	 BYTE PTR __k$[ebp+4], dl
  0006d	8a 50 05	 mov	 dl, BYTE PTR [eax+5]
  00070	84 d2		 test	 dl, dl
  00072	0f 84 b9 01 00
	00		 je	 $LN91@LoadFloat_@4
  00078	32 d1		 xor	 dl, cl
  0007a	88 55 e5	 mov	 BYTE PTR __k$[ebp+5], dl
  0007d	8a 50 06	 mov	 dl, BYTE PTR [eax+6]
  00080	84 d2		 test	 dl, dl
  00082	0f 84 a3 01 00
	00		 je	 $LN90@LoadFloat_@4
  00088	80 f2 eb	 xor	 dl, -21			; ffffffebH
  0008b	88 55 e6	 mov	 BYTE PTR __k$[ebp+6], dl
  0008e	8a 50 07	 mov	 dl, BYTE PTR [eax+7]
  00091	84 d2		 test	 dl, dl
  00093	0f 84 8d 01 00
	00		 je	 $LN89@LoadFloat_@4
  00099	32 d3		 xor	 dl, bl
  0009b	88 55 e7	 mov	 BYTE PTR __k$[ebp+7], dl
  0009e	8a 50 08	 mov	 dl, BYTE PTR [eax+8]
  000a1	84 d2		 test	 dl, dl
  000a3	0f 84 77 01 00
	00		 je	 $LN88@LoadFloat_@4
  000a9	80 f2 ed	 xor	 dl, -19			; ffffffedH
  000ac	88 55 e8	 mov	 BYTE PTR __k$[ebp+8], dl
  000af	8a 50 09	 mov	 dl, BYTE PTR [eax+9]
  000b2	84 d2		 test	 dl, dl
  000b4	0f 84 61 01 00
	00		 je	 $LN87@LoadFloat_@4
  000ba	32 d1		 xor	 dl, cl
  000bc	88 55 e9	 mov	 BYTE PTR __k$[ebp+9], dl
  000bf	8a 50 0a	 mov	 dl, BYTE PTR [eax+10]
  000c2	84 d2		 test	 dl, dl
  000c4	0f 84 4b 01 00
	00		 je	 $LN86@LoadFloat_@4
  000ca	80 f2 eb	 xor	 dl, -21			; ffffffebH
  000cd	88 55 ea	 mov	 BYTE PTR __k$[ebp+10], dl
  000d0	8a 50 0b	 mov	 dl, BYTE PTR [eax+11]
  000d3	84 d2		 test	 dl, dl
  000d5	0f 84 35 01 00
	00		 je	 $LN85@LoadFloat_@4
  000db	32 d3		 xor	 dl, bl
  000dd	88 55 eb	 mov	 BYTE PTR __k$[ebp+11], dl
  000e0	8a 50 0c	 mov	 dl, BYTE PTR [eax+12]
  000e3	84 d2		 test	 dl, dl
  000e5	0f 84 1f 01 00
	00		 je	 $LN84@LoadFloat_@4
  000eb	80 f2 ed	 xor	 dl, -19			; ffffffedH
  000ee	88 55 ec	 mov	 BYTE PTR __k$[ebp+12], dl
  000f1	8a 50 0d	 mov	 dl, BYTE PTR [eax+13]
  000f4	84 d2		 test	 dl, dl
  000f6	0f 84 09 01 00
	00		 je	 $LN83@LoadFloat_@4
  000fc	32 d1		 xor	 dl, cl
  000fe	88 55 ed	 mov	 BYTE PTR __k$[ebp+13], dl
  00101	8a 50 0e	 mov	 dl, BYTE PTR [eax+14]
  00104	84 d2		 test	 dl, dl
  00106	0f 84 f3 00 00
	00		 je	 $LN82@LoadFloat_@4
  0010c	80 f2 eb	 xor	 dl, -21			; ffffffebH
  0010f	88 55 ee	 mov	 BYTE PTR __k$[ebp+14], dl
  00112	8a 50 0f	 mov	 dl, BYTE PTR [eax+15]
  00115	84 d2		 test	 dl, dl
  00117	0f 84 dd 00 00
	00		 je	 $LN81@LoadFloat_@4
  0011d	32 d3		 xor	 dl, bl
  0011f	88 55 ef	 mov	 BYTE PTR __k$[ebp+15], dl
  00122	8a 50 10	 mov	 dl, BYTE PTR [eax+16]
  00125	84 d2		 test	 dl, dl
  00127	0f 84 c7 00 00
	00		 je	 $LN80@LoadFloat_@4
  0012d	80 f2 ed	 xor	 dl, -19			; ffffffedH
  00130	88 55 f0	 mov	 BYTE PTR __k$[ebp+16], dl
  00133	8a 50 11	 mov	 dl, BYTE PTR [eax+17]
  00136	84 d2		 test	 dl, dl
  00138	0f 84 b1 00 00
	00		 je	 $LN79@LoadFloat_@4
  0013e	32 d1		 xor	 dl, cl
  00140	88 55 f1	 mov	 BYTE PTR __k$[ebp+17], dl
  00143	8a 50 12	 mov	 dl, BYTE PTR [eax+18]
  00146	84 d2		 test	 dl, dl
  00148	0f 84 9b 00 00
	00		 je	 $LN78@LoadFloat_@4
  0014e	80 f2 eb	 xor	 dl, -21			; ffffffebH
  00151	88 55 f2	 mov	 BYTE PTR __k$[ebp+18], dl
  00154	8a 50 13	 mov	 dl, BYTE PTR [eax+19]
  00157	84 d2		 test	 dl, dl
  00159	0f 84 85 00 00
	00		 je	 $LN77@LoadFloat_@4
  0015f	32 d3		 xor	 dl, bl
  00161	88 55 f3	 mov	 BYTE PTR __k$[ebp+19], dl
  00164	8a 50 14	 mov	 dl, BYTE PTR [eax+20]
  00167	84 d2		 test	 dl, dl
  00169	74 73		 je	 SHORT $LN76@LoadFloat_@4
  0016b	80 f2 ed	 xor	 dl, -19			; ffffffedH
  0016e	88 55 f4	 mov	 BYTE PTR __k$[ebp+20], dl
  00171	8a 50 15	 mov	 dl, BYTE PTR [eax+21]
  00174	84 d2		 test	 dl, dl
  00176	74 61		 je	 SHORT $LN75@LoadFloat_@4
  00178	32 d1		 xor	 dl, cl
  0017a	80 78 16 00	 cmp	 BYTE PTR [eax+22], 0
  0017e	88 55 f5	 mov	 BYTE PTR __k$[ebp+21], dl
  00181	0f 84 cb 00 00
	00		 je	 $LN1@LoadFloat_@4
  00187	8a 50 17	 mov	 dl, BYTE PTR [eax+23]
  0018a	84 d2		 test	 dl, dl
  0018c	74 46		 je	 SHORT $LN73@LoadFloat_@4
  0018e	32 d3		 xor	 dl, bl
  00190	88 55 f7	 mov	 BYTE PTR __k$[ebp+23], dl
  00193	8a 50 18	 mov	 dl, BYTE PTR [eax+24]
  00196	84 d2		 test	 dl, dl
  00198	74 34		 je	 SHORT $LN72@LoadFloat_@4
  0019a	80 f2 ed	 xor	 dl, -19			; ffffffedH
  0019d	88 55 f8	 mov	 BYTE PTR __k$[ebp+24], dl
  001a0	8a 50 19	 mov	 dl, BYTE PTR [eax+25]
  001a3	84 d2		 test	 dl, dl
  001a5	74 1f		 je	 SHORT $LN71@LoadFloat_@4
  001a7	8a 40 1a	 mov	 al, BYTE PTR [eax+26]
  001aa	32 d1		 xor	 dl, cl
  001ac	88 55 f9	 mov	 BYTE PTR __k$[ebp+25], dl
  001af	84 c0		 test	 al, al
  001b1	74 0a		 je	 SHORT $LN70@LoadFloat_@4
  001b3	34 eb		 xor	 al, -21			; ffffffebH
  001b5	88 45 fa	 mov	 BYTE PTR __k$[ebp+26], al
  001b8	e9 95 00 00 00	 jmp	 $LN1@LoadFloat_@4
$LN70@LoadFloat_@4:
  001bd	c6 45 fa eb	 mov	 BYTE PTR __k$[ebp+26], -21 ; ffffffebH
  001c1	e9 8c 00 00 00	 jmp	 $LN1@LoadFloat_@4
$LN71@LoadFloat_@4:
  001c6	88 4d f9	 mov	 BYTE PTR __k$[ebp+25], cl
  001c9	e9 84 00 00 00	 jmp	 $LN1@LoadFloat_@4
$LN72@LoadFloat_@4:
  001ce	c6 45 f8 ed	 mov	 BYTE PTR __k$[ebp+24], -19 ; ffffffedH
  001d2	eb 7e		 jmp	 SHORT $LN1@LoadFloat_@4
$LN73@LoadFloat_@4:
  001d4	88 5d f7	 mov	 BYTE PTR __k$[ebp+23], bl
  001d7	eb 79		 jmp	 SHORT $LN1@LoadFloat_@4
$LN75@LoadFloat_@4:
  001d9	88 4d f5	 mov	 BYTE PTR __k$[ebp+21], cl
  001dc	eb 74		 jmp	 SHORT $LN1@LoadFloat_@4
$LN76@LoadFloat_@4:
  001de	c6 45 f4 ed	 mov	 BYTE PTR __k$[ebp+20], -19 ; ffffffedH
  001e2	eb 6e		 jmp	 SHORT $LN1@LoadFloat_@4
$LN77@LoadFloat_@4:
  001e4	88 5d f3	 mov	 BYTE PTR __k$[ebp+19], bl
  001e7	eb 69		 jmp	 SHORT $LN1@LoadFloat_@4
$LN78@LoadFloat_@4:
  001e9	c6 45 f2 eb	 mov	 BYTE PTR __k$[ebp+18], -21 ; ffffffebH
  001ed	eb 63		 jmp	 SHORT $LN1@LoadFloat_@4
$LN79@LoadFloat_@4:
  001ef	88 4d f1	 mov	 BYTE PTR __k$[ebp+17], cl
  001f2	eb 5e		 jmp	 SHORT $LN1@LoadFloat_@4
$LN80@LoadFloat_@4:
  001f4	c6 45 f0 ed	 mov	 BYTE PTR __k$[ebp+16], -19 ; ffffffedH
  001f8	eb 58		 jmp	 SHORT $LN1@LoadFloat_@4
$LN81@LoadFloat_@4:
  001fa	88 5d ef	 mov	 BYTE PTR __k$[ebp+15], bl
  001fd	eb 53		 jmp	 SHORT $LN1@LoadFloat_@4
$LN82@LoadFloat_@4:
  001ff	c6 45 ee eb	 mov	 BYTE PTR __k$[ebp+14], -21 ; ffffffebH
  00203	eb 4d		 jmp	 SHORT $LN1@LoadFloat_@4
$LN83@LoadFloat_@4:
  00205	88 4d ed	 mov	 BYTE PTR __k$[ebp+13], cl
  00208	eb 48		 jmp	 SHORT $LN1@LoadFloat_@4
$LN84@LoadFloat_@4:
  0020a	c6 45 ec ed	 mov	 BYTE PTR __k$[ebp+12], -19 ; ffffffedH
  0020e	eb 42		 jmp	 SHORT $LN1@LoadFloat_@4
$LN85@LoadFloat_@4:
  00210	88 5d eb	 mov	 BYTE PTR __k$[ebp+11], bl
  00213	eb 3d		 jmp	 SHORT $LN1@LoadFloat_@4
$LN86@LoadFloat_@4:
  00215	c6 45 ea eb	 mov	 BYTE PTR __k$[ebp+10], -21 ; ffffffebH
  00219	eb 37		 jmp	 SHORT $LN1@LoadFloat_@4
$LN87@LoadFloat_@4:
  0021b	88 4d e9	 mov	 BYTE PTR __k$[ebp+9], cl
  0021e	eb 32		 jmp	 SHORT $LN1@LoadFloat_@4
$LN88@LoadFloat_@4:
  00220	c6 45 e8 ed	 mov	 BYTE PTR __k$[ebp+8], -19 ; ffffffedH
  00224	eb 2c		 jmp	 SHORT $LN1@LoadFloat_@4
$LN89@LoadFloat_@4:
  00226	88 5d e7	 mov	 BYTE PTR __k$[ebp+7], bl
  00229	eb 27		 jmp	 SHORT $LN1@LoadFloat_@4
$LN90@LoadFloat_@4:
  0022b	c6 45 e6 eb	 mov	 BYTE PTR __k$[ebp+6], -21 ; ffffffebH
  0022f	eb 21		 jmp	 SHORT $LN1@LoadFloat_@4
$LN91@LoadFloat_@4:
  00231	88 4d e5	 mov	 BYTE PTR __k$[ebp+5], cl
  00234	eb 1c		 jmp	 SHORT $LN1@LoadFloat_@4
$LN92@LoadFloat_@4:
  00236	c6 45 e4 ed	 mov	 BYTE PTR __k$[ebp+4], -19 ; ffffffedH
  0023a	eb 16		 jmp	 SHORT $LN1@LoadFloat_@4
$LN93@LoadFloat_@4:
  0023c	c6 45 e3 ea	 mov	 BYTE PTR __k$[ebp+3], -22 ; ffffffeaH
  00240	eb 10		 jmp	 SHORT $LN1@LoadFloat_@4
$LN94@LoadFloat_@4:
  00242	c6 45 e2 eb	 mov	 BYTE PTR __k$[ebp+2], -21 ; ffffffebH
  00246	eb 0a		 jmp	 SHORT $LN1@LoadFloat_@4
$LN95@LoadFloat_@4:
  00248	c6 45 e1 ec	 mov	 BYTE PTR __k$[ebp+1], -20 ; ffffffecH
  0024c	eb 04		 jmp	 SHORT $LN1@LoadFloat_@4
$LN96@LoadFloat_@4:
  0024e	c6 45 e0 ed	 mov	 BYTE PTR __k$[ebp], -19	; ffffffedH
$LN1@LoadFloat_@4:
  00252	6a 05		 push	 5
  00254	8d 45 e0	 lea	 eax, DWORD PTR __k$[ebp]
  00257	c6 45 f6 00	 mov	 BYTE PTR __k$[ebp+22], 0
  0025b	5a		 pop	 edx
$LL104@LoadFloat_@4:
  0025c	81 30 ed ec eb
	ea		 xor	 DWORD PTR [eax], -353637139 ; eaebecedH
  00262	83 c0 04	 add	 eax, 4
  00265	4a		 dec	 edx
  00266	75 f4		 jne	 SHORT $LL104@LoadFloat_@4
  00268	6a 14		 push	 20			; 00000014H
  0026a	58		 pop	 eax
$LL101@LoadFloat_@4:
  0026b	8b c8		 mov	 ecx, eax
  0026d	81 e1 03 00 00
	80		 and	 ecx, -2147483645	; 80000003H
  00273	79 05		 jns	 SHORT $LN111@LoadFloat_@4
  00275	49		 dec	 ecx
  00276	83 c9 fc	 or	 ecx, -4			; fffffffcH
  00279	41		 inc	 ecx
$LN111@LoadFloat_@4:
  0027a	b2 ed		 mov	 dl, -19			; ffffffedH
  0027c	2a d1		 sub	 dl, cl
  0027e	30 54 05 e0	 xor	 BYTE PTR __k$[ebp+eax], dl
  00282	40		 inc	 eax
  00283	83 f8 16	 cmp	 eax, 22			; 00000016H
  00286	7c e3		 jl	 SHORT $LL101@LoadFloat_@4

; 137  : 		return LoadFloat(_k, f);

  00288	f3 0f 10 45 0c	 movss	 xmm0, DWORD PTR _f$[ebp]
  0028d	51		 push	 ecx
  0028e	8d 45 e0	 lea	 eax, DWORD PTR __k$[ebp]
  00291	f3 0f 11 04 24	 movss	 DWORD PTR [esp], xmm0
  00296	50		 push	 eax
  00297	8b ce		 mov	 ecx, esi
  00299	ff 15 00 00 00
	00		 call	 DWORD PTR __imp_?LoadFloat@ioINILoader@@QAEMPBDM@Z

; 138  : 	}

  0029f	8b 4d fc	 mov	 ecx, DWORD PTR __$ArrayPad$[ebp]
  002a2	5e		 pop	 esi
  002a3	33 cd		 xor	 ecx, ebp
  002a5	5b		 pop	 ebx
  002a6	e8 00 00 00 00	 call	 @__security_check_cookie@4
  002ab	c9		 leave
  002ac	c2 08 00	 ret	 8
??$LoadFloat_e@$0BH@@ioINILoader@@QAEMAAY0BH@$$CBDM@Z ENDP ; ioINILoader::LoadFloat_e<23>
_TEXT	ENDS
PUBLIC	__$ArrayPad$
PUBLIC	??$LoadFloat_e@$0BB@@ioINILoader@@QAEMAAY0BB@$$CBDM@Z ; ioINILoader::LoadFloat_e<17>
; Function compile flags: /Ogsp
;	COMDAT ??$LoadFloat_e@$0BB@@ioINILoader@@QAEMAAY0BB@$$CBDM@Z
_TEXT	SEGMENT
__k$ = -28						; size = 17
__$ArrayPad$ = -4					; size = 4
_k$ = 8							; size = 4
_f$ = 12						; size = 4
??$LoadFloat_e@$0BB@@ioINILoader@@QAEMAAY0BB@$$CBDM@Z PROC ; ioINILoader::LoadFloat_e<17>, COMDAT
; _this$ = ecx

; 135  : 	{

  00000	55		 push	 ebp
  00001	8b ec		 mov	 ebp, esp
  00003	83 ec 1c	 sub	 esp, 28			; 0000001cH
  00006	a1 00 00 00 00	 mov	 eax, DWORD PTR ___security_cookie
  0000b	33 c5		 xor	 eax, ebp
  0000d	89 45 fc	 mov	 DWORD PTR __$ArrayPad$[ebp], eax
  00010	8b 45 08	 mov	 eax, DWORD PTR _k$[ebp]

; 136  : 		_ENCSTR(k, _k);

  00013	8a 10		 mov	 dl, BYTE PTR [eax]
  00015	56		 push	 esi
  00016	8b f1		 mov	 esi, ecx
  00018	84 d2		 test	 dl, dl
  0001a	0f 84 a7 01 00
	00		 je	 $LN96@LoadFloat_@5
  00020	80 f2 ed	 xor	 dl, -19			; ffffffedH
  00023	88 55 e4	 mov	 BYTE PTR __k$[ebp], dl
  00026	8a 50 01	 mov	 dl, BYTE PTR [eax+1]
  00029	84 d2		 test	 dl, dl
  0002b	0f 84 90 01 00
	00		 je	 $LN95@LoadFloat_@5
  00031	b1 ec		 mov	 cl, -20			; ffffffecH
  00033	32 d1		 xor	 dl, cl
  00035	88 55 e5	 mov	 BYTE PTR __k$[ebp+1], dl
  00038	8a 50 02	 mov	 dl, BYTE PTR [eax+2]
  0003b	84 d2		 test	 dl, dl
  0003d	0f 84 78 01 00
	00		 je	 $LN94@LoadFloat_@5
  00043	80 f2 eb	 xor	 dl, -21			; ffffffebH
  00046	88 55 e6	 mov	 BYTE PTR __k$[ebp+2], dl
  00049	8a 50 03	 mov	 dl, BYTE PTR [eax+3]
  0004c	84 d2		 test	 dl, dl
  0004e	0f 84 61 01 00
	00		 je	 $LN93@LoadFloat_@5
  00054	80 f2 ea	 xor	 dl, -22			; ffffffeaH
  00057	88 55 e7	 mov	 BYTE PTR __k$[ebp+3], dl
  0005a	8a 50 04	 mov	 dl, BYTE PTR [eax+4]
  0005d	84 d2		 test	 dl, dl
  0005f	0f 84 4a 01 00
	00		 je	 $LN92@LoadFloat_@5
  00065	80 f2 ed	 xor	 dl, -19			; ffffffedH
  00068	88 55 e8	 mov	 BYTE PTR __k$[ebp+4], dl
  0006b	8a 50 05	 mov	 dl, BYTE PTR [eax+5]
  0006e	84 d2		 test	 dl, dl
  00070	0f 84 34 01 00
	00		 je	 $LN91@LoadFloat_@5
  00076	32 d1		 xor	 dl, cl
  00078	88 55 e9	 mov	 BYTE PTR __k$[ebp+5], dl
  0007b	8a 50 06	 mov	 dl, BYTE PTR [eax+6]
  0007e	84 d2		 test	 dl, dl
  00080	0f 84 1e 01 00
	00		 je	 $LN90@LoadFloat_@5
  00086	80 f2 eb	 xor	 dl, -21			; ffffffebH
  00089	88 55 ea	 mov	 BYTE PTR __k$[ebp+6], dl
  0008c	8a 50 07	 mov	 dl, BYTE PTR [eax+7]
  0008f	84 d2		 test	 dl, dl
  00091	0f 84 07 01 00
	00		 je	 $LN89@LoadFloat_@5
  00097	80 f2 ea	 xor	 dl, -22			; ffffffeaH
  0009a	88 55 eb	 mov	 BYTE PTR __k$[ebp+7], dl
  0009d	8a 50 08	 mov	 dl, BYTE PTR [eax+8]
  000a0	84 d2		 test	 dl, dl
  000a2	0f 84 f0 00 00
	00		 je	 $LN88@LoadFloat_@5
  000a8	80 f2 ed	 xor	 dl, -19			; ffffffedH
  000ab	88 55 ec	 mov	 BYTE PTR __k$[ebp+8], dl
  000ae	8a 50 09	 mov	 dl, BYTE PTR [eax+9]
  000b1	84 d2		 test	 dl, dl
  000b3	0f 84 da 00 00
	00		 je	 $LN87@LoadFloat_@5
  000b9	32 d1		 xor	 dl, cl
  000bb	88 55 ed	 mov	 BYTE PTR __k$[ebp+9], dl
  000be	8a 50 0a	 mov	 dl, BYTE PTR [eax+10]
  000c1	84 d2		 test	 dl, dl
  000c3	0f 84 c4 00 00
	00		 je	 $LN86@LoadFloat_@5
  000c9	80 f2 eb	 xor	 dl, -21			; ffffffebH
  000cc	88 55 ee	 mov	 BYTE PTR __k$[ebp+10], dl
  000cf	8a 50 0b	 mov	 dl, BYTE PTR [eax+11]
  000d2	84 d2		 test	 dl, dl
  000d4	0f 84 ad 00 00
	00		 je	 $LN85@LoadFloat_@5
  000da	80 f2 ea	 xor	 dl, -22			; ffffffeaH
  000dd	88 55 ef	 mov	 BYTE PTR __k$[ebp+11], dl
  000e0	8a 50 0c	 mov	 dl, BYTE PTR [eax+12]
  000e3	84 d2		 test	 dl, dl
  000e5	0f 84 96 00 00
	00		 je	 $LN84@LoadFloat_@5
  000eb	80 f2 ed	 xor	 dl, -19			; ffffffedH
  000ee	88 55 f0	 mov	 BYTE PTR __k$[ebp+12], dl
  000f1	8a 50 0d	 mov	 dl, BYTE PTR [eax+13]
  000f4	84 d2		 test	 dl, dl
  000f6	0f 84 80 00 00
	00		 je	 $LN83@LoadFloat_@5
  000fc	32 d1		 xor	 dl, cl
  000fe	88 55 f1	 mov	 BYTE PTR __k$[ebp+13], dl
  00101	8a 50 0e	 mov	 dl, BYTE PTR [eax+14]
  00104	84 d2		 test	 dl, dl
  00106	74 6e		 je	 SHORT $LN82@LoadFloat_@5
  00108	80 f2 eb	 xor	 dl, -21			; ffffffebH
  0010b	88 55 f2	 mov	 BYTE PTR __k$[ebp+14], dl
  0010e	8a 50 0f	 mov	 dl, BYTE PTR [eax+15]
  00111	84 d2		 test	 dl, dl
  00113	74 5b		 je	 SHORT $LN81@LoadFloat_@5
  00115	80 f2 ea	 xor	 dl, -22			; ffffffeaH
  00118	80 78 10 00	 cmp	 BYTE PTR [eax+16], 0
  0011c	88 55 f3	 mov	 BYTE PTR __k$[ebp+15], dl
  0011f	0f 84 a6 00 00
	00		 je	 $LN1@LoadFloat_@5
  00125	8a 50 11	 mov	 dl, BYTE PTR [eax+17]
  00128	84 d2		 test	 dl, dl
  0012a	74 3f		 je	 SHORT $LN79@LoadFloat_@5
  0012c	32 d1		 xor	 dl, cl
  0012e	88 55 f5	 mov	 BYTE PTR __k$[ebp+17], dl
  00131	8a 50 12	 mov	 dl, BYTE PTR [eax+18]
  00134	84 d2		 test	 dl, dl
  00136	74 2d		 je	 SHORT $LN78@LoadFloat_@5
  00138	80 f2 eb	 xor	 dl, -21			; ffffffebH
  0013b	88 55 f6	 mov	 BYTE PTR __k$[ebp+18], dl
  0013e	8a 50 13	 mov	 dl, BYTE PTR [eax+19]
  00141	84 d2		 test	 dl, dl
  00143	74 1a		 je	 SHORT $LN77@LoadFloat_@5
  00145	8a 40 14	 mov	 al, BYTE PTR [eax+20]
  00148	80 f2 ea	 xor	 dl, -22			; ffffffeaH
  0014b	88 55 f7	 mov	 BYTE PTR __k$[ebp+19], dl
  0014e	84 c0		 test	 al, al
  00150	74 07		 je	 SHORT $LN76@LoadFloat_@5
  00152	34 ed		 xor	 al, -19			; ffffffedH
  00154	88 45 f8	 mov	 BYTE PTR __k$[ebp+20], al
  00157	eb 72		 jmp	 SHORT $LN1@LoadFloat_@5
$LN76@LoadFloat_@5:
  00159	c6 45 f8 ed	 mov	 BYTE PTR __k$[ebp+20], -19 ; ffffffedH
  0015d	eb 6c		 jmp	 SHORT $LN1@LoadFloat_@5
$LN77@LoadFloat_@5:
  0015f	c6 45 f7 ea	 mov	 BYTE PTR __k$[ebp+19], -22 ; ffffffeaH
  00163	eb 66		 jmp	 SHORT $LN1@LoadFloat_@5
$LN78@LoadFloat_@5:
  00165	c6 45 f6 eb	 mov	 BYTE PTR __k$[ebp+18], -21 ; ffffffebH
  00169	eb 60		 jmp	 SHORT $LN1@LoadFloat_@5
$LN79@LoadFloat_@5:
  0016b	88 4d f5	 mov	 BYTE PTR __k$[ebp+17], cl
  0016e	eb 5b		 jmp	 SHORT $LN1@LoadFloat_@5
$LN81@LoadFloat_@5:
  00170	c6 45 f3 ea	 mov	 BYTE PTR __k$[ebp+15], -22 ; ffffffeaH
  00174	eb 55		 jmp	 SHORT $LN1@LoadFloat_@5
$LN82@LoadFloat_@5:
  00176	c6 45 f2 eb	 mov	 BYTE PTR __k$[ebp+14], -21 ; ffffffebH
  0017a	eb 4f		 jmp	 SHORT $LN1@LoadFloat_@5
$LN83@LoadFloat_@5:
  0017c	88 4d f1	 mov	 BYTE PTR __k$[ebp+13], cl
  0017f	eb 4a		 jmp	 SHORT $LN1@LoadFloat_@5
$LN84@LoadFloat_@5:
  00181	c6 45 f0 ed	 mov	 BYTE PTR __k$[ebp+12], -19 ; ffffffedH
  00185	eb 44		 jmp	 SHORT $LN1@LoadFloat_@5
$LN85@LoadFloat_@5:
  00187	c6 45 ef ea	 mov	 BYTE PTR __k$[ebp+11], -22 ; ffffffeaH
  0018b	eb 3e		 jmp	 SHORT $LN1@LoadFloat_@5
$LN86@LoadFloat_@5:
  0018d	c6 45 ee eb	 mov	 BYTE PTR __k$[ebp+10], -21 ; ffffffebH
  00191	eb 38		 jmp	 SHORT $LN1@LoadFloat_@5
$LN87@LoadFloat_@5:
  00193	88 4d ed	 mov	 BYTE PTR __k$[ebp+9], cl
  00196	eb 33		 jmp	 SHORT $LN1@LoadFloat_@5
$LN88@LoadFloat_@5:
  00198	c6 45 ec ed	 mov	 BYTE PTR __k$[ebp+8], -19 ; ffffffedH
  0019c	eb 2d		 jmp	 SHORT $LN1@LoadFloat_@5
$LN89@LoadFloat_@5:
  0019e	c6 45 eb ea	 mov	 BYTE PTR __k$[ebp+7], -22 ; ffffffeaH
  001a2	eb 27		 jmp	 SHORT $LN1@LoadFloat_@5
$LN90@LoadFloat_@5:
  001a4	c6 45 ea eb	 mov	 BYTE PTR __k$[ebp+6], -21 ; ffffffebH
  001a8	eb 21		 jmp	 SHORT $LN1@LoadFloat_@5
$LN91@LoadFloat_@5:
  001aa	88 4d e9	 mov	 BYTE PTR __k$[ebp+5], cl
  001ad	eb 1c		 jmp	 SHORT $LN1@LoadFloat_@5
$LN92@LoadFloat_@5:
  001af	c6 45 e8 ed	 mov	 BYTE PTR __k$[ebp+4], -19 ; ffffffedH
  001b3	eb 16		 jmp	 SHORT $LN1@LoadFloat_@5
$LN93@LoadFloat_@5:
  001b5	c6 45 e7 ea	 mov	 BYTE PTR __k$[ebp+3], -22 ; ffffffeaH
  001b9	eb 10		 jmp	 SHORT $LN1@LoadFloat_@5
$LN94@LoadFloat_@5:
  001bb	c6 45 e6 eb	 mov	 BYTE PTR __k$[ebp+2], -21 ; ffffffebH
  001bf	eb 0a		 jmp	 SHORT $LN1@LoadFloat_@5
$LN95@LoadFloat_@5:
  001c1	c6 45 e5 ec	 mov	 BYTE PTR __k$[ebp+1], -20 ; ffffffecH
  001c5	eb 04		 jmp	 SHORT $LN1@LoadFloat_@5
$LN96@LoadFloat_@5:
  001c7	c6 45 e4 ed	 mov	 BYTE PTR __k$[ebp], -19	; ffffffedH
$LN1@LoadFloat_@5:
  001cb	6a 04		 push	 4
  001cd	8d 45 e4	 lea	 eax, DWORD PTR __k$[ebp]
  001d0	c6 45 f4 00	 mov	 BYTE PTR __k$[ebp+16], 0
  001d4	5a		 pop	 edx
$LL104@LoadFloat_@5:
  001d5	81 30 ed ec eb
	ea		 xor	 DWORD PTR [eax], -353637139 ; eaebecedH
  001db	83 c0 04	 add	 eax, 4
  001de	4a		 dec	 edx
  001df	75 f4		 jne	 SHORT $LL104@LoadFloat_@5

; 137  : 		return LoadFloat(_k, f);

  001e1	f3 0f 10 45 0c	 movss	 xmm0, DWORD PTR _f$[ebp]
  001e6	51		 push	 ecx
  001e7	8d 45 e4	 lea	 eax, DWORD PTR __k$[ebp]
  001ea	f3 0f 11 04 24	 movss	 DWORD PTR [esp], xmm0
  001ef	50		 push	 eax
  001f0	8b ce		 mov	 ecx, esi
  001f2	ff 15 00 00 00
	00		 call	 DWORD PTR __imp_?LoadFloat@ioINILoader@@QAEMPBDM@Z

; 138  : 	}

  001f8	8b 4d fc	 mov	 ecx, DWORD PTR __$ArrayPad$[ebp]
  001fb	33 cd		 xor	 ecx, ebp
  001fd	5e		 pop	 esi
  001fe	e8 00 00 00 00	 call	 @__security_check_cookie@4
  00203	c9		 leave
  00204	c2 08 00	 ret	 8
??$LoadFloat_e@$0BB@@ioINILoader@@QAEMAAY0BB@$$CBDM@Z ENDP ; ioINILoader::LoadFloat_e<17>
_TEXT	ENDS
PUBLIC	??$GetAnimationEventTime_e@$0L@@ioEntityGroup@@QAEMHAAY0L@$$CBD@Z ; ioEntityGroup::GetAnimationEventTime_e<11>
EXTRN	__imp_?GetAnimationEventTime@ioEntityGroup@@QAEMHABVioHashString@@@Z:PROC
EXTRN	__imp_??0ioHashString@@QAE@PBD@Z:PROC
EXTRN	___CxxFrameHandler3:PROC
EXTRN	__EH_epilog3_GS:PROC
EXTRN	__EH_prolog3_GS:PROC
;	COMDAT xdata$x
; File d:\lost saga for developer\youtube\tutorial\source\src\lsclient\stringprotect.h
xdata$x	SEGMENT
__unwindtable$??$GetAnimationEventTime_e@$0L@@ioEntityGroup@@QAEMHAAY0L@$$CBD@Z DD 0ffffffffH
	DD	FLAT:__unwindfunclet$??$GetAnimationEventTime_e@$0L@@ioEntityGroup@@QAEMHAAY0L@$$CBD@Z$0
__ehfuncinfo$??$GetAnimationEventTime_e@$0L@@ioEntityGroup@@QAEMHAAY0L@$$CBD@Z DD 019930522H
	DD	01H
	DD	FLAT:__unwindtable$??$GetAnimationEventTime_e@$0L@@ioEntityGroup@@QAEMHAAY0L@$$CBD@Z
	DD	2 DUP(00H)
	DD	2 DUP(00H)
	DD	00H
	DD	01H
; Function compile flags: /Ogsp
; File d:\lost saga for developer\youtube\tutorial\source\src\io3dengine\ioentitygroup.h
xdata$x	ENDS
;	COMDAT ??$GetAnimationEventTime_e@$0L@@ioEntityGroup@@QAEMHAAY0L@$$CBD@Z
_TEXT	SEGMENT
$T548259 = -52						; size = 16
$T548258 = -36						; size = 4
_szEncEventType$ = -32					; size = 11
__$EHRec$ = -12						; size = 12
_id$ = 8						; size = 4
_szEventType$ = 12					; size = 4
??$GetAnimationEventTime_e@$0L@@ioEntityGroup@@QAEMHAAY0L@$$CBD@Z PROC ; ioEntityGroup::GetAnimationEventTime_e<11>, COMDAT
; _this$ = ecx

; 414  : 	{

  00000	6a 28		 push	 40			; 00000028H
  00002	b8 00 00 00 00	 mov	 eax, __ehhandler$??$GetAnimationEventTime_e@$0L@@ioEntityGroup@@QAEMHAAY0L@$$CBD@Z
  00007	e8 00 00 00 00	 call	 __EH_prolog3_GS
  0000c	8b 45 0c	 mov	 eax, DWORD PTR _szEventType$[ebp]
  0000f	8b f1		 mov	 esi, ecx

; 415  : 		_ENCSTR(szEventType, szEncEventType);

  00011	8a 08		 mov	 cl, BYTE PTR [eax]
  00013	84 c9		 test	 cl, cl
  00015	0f 84 1b 01 00
	00		 je	 $LN96@GetAnimati
  0001b	b2 ed		 mov	 dl, -19			; ffffffedH
  0001d	32 ca		 xor	 cl, dl
  0001f	88 4d e0	 mov	 BYTE PTR _szEncEventType$[ebp], cl
  00022	8a 48 01	 mov	 cl, BYTE PTR [eax+1]
  00025	84 c9		 test	 cl, cl
  00027	0f 84 03 01 00
	00		 je	 $LN95@GetAnimati
  0002d	80 f1 ec	 xor	 cl, -20			; ffffffecH
  00030	88 4d e1	 mov	 BYTE PTR _szEncEventType$[ebp+1], cl
  00033	8a 48 02	 mov	 cl, BYTE PTR [eax+2]
  00036	84 c9		 test	 cl, cl
  00038	0f 84 ec 00 00
	00		 je	 $LN94@GetAnimati
  0003e	80 f1 eb	 xor	 cl, -21			; ffffffebH
  00041	88 4d e2	 mov	 BYTE PTR _szEncEventType$[ebp+2], cl
  00044	8a 48 03	 mov	 cl, BYTE PTR [eax+3]
  00047	84 c9		 test	 cl, cl
  00049	0f 84 d5 00 00
	00		 je	 $LN93@GetAnimati
  0004f	80 f1 ea	 xor	 cl, -22			; ffffffeaH
  00052	88 4d e3	 mov	 BYTE PTR _szEncEventType$[ebp+3], cl
  00055	8a 48 04	 mov	 cl, BYTE PTR [eax+4]
  00058	84 c9		 test	 cl, cl
  0005a	0f 84 bf 00 00
	00		 je	 $LN92@GetAnimati
  00060	32 ca		 xor	 cl, dl
  00062	88 4d e4	 mov	 BYTE PTR _szEncEventType$[ebp+4], cl
  00065	8a 48 05	 mov	 cl, BYTE PTR [eax+5]
  00068	84 c9		 test	 cl, cl
  0006a	0f 84 a9 00 00
	00		 je	 $LN91@GetAnimati
  00070	80 f1 ec	 xor	 cl, -20			; ffffffecH
  00073	88 4d e5	 mov	 BYTE PTR _szEncEventType$[ebp+5], cl
  00076	8a 48 06	 mov	 cl, BYTE PTR [eax+6]
  00079	84 c9		 test	 cl, cl
  0007b	0f 84 92 00 00
	00		 je	 $LN90@GetAnimati
  00081	80 f1 eb	 xor	 cl, -21			; ffffffebH
  00084	88 4d e6	 mov	 BYTE PTR _szEncEventType$[ebp+6], cl
  00087	8a 48 07	 mov	 cl, BYTE PTR [eax+7]
  0008a	84 c9		 test	 cl, cl
  0008c	74 7f		 je	 SHORT $LN89@GetAnimati
  0008e	80 f1 ea	 xor	 cl, -22			; ffffffeaH
  00091	88 4d e7	 mov	 BYTE PTR _szEncEventType$[ebp+7], cl
  00094	8a 48 08	 mov	 cl, BYTE PTR [eax+8]
  00097	84 c9		 test	 cl, cl
  00099	74 6d		 je	 SHORT $LN88@GetAnimati
  0009b	32 ca		 xor	 cl, dl
  0009d	88 4d e8	 mov	 BYTE PTR _szEncEventType$[ebp+8], cl
  000a0	8a 48 09	 mov	 cl, BYTE PTR [eax+9]
  000a3	84 c9		 test	 cl, cl
  000a5	74 5b		 je	 SHORT $LN87@GetAnimati
  000a7	80 f1 ec	 xor	 cl, -20			; ffffffecH
  000aa	80 78 0a 00	 cmp	 BYTE PTR [eax+10], 0
  000ae	88 4d e9	 mov	 BYTE PTR _szEncEventType$[ebp+9], cl
  000b1	0f 84 83 00 00
	00		 je	 $LN1@GetAnimati
  000b7	8a 48 0b	 mov	 cl, BYTE PTR [eax+11]
  000ba	84 c9		 test	 cl, cl
  000bc	74 3e		 je	 SHORT $LN85@GetAnimati
  000be	80 f1 ea	 xor	 cl, -22			; ffffffeaH
  000c1	88 4d eb	 mov	 BYTE PTR _szEncEventType$[ebp+11], cl
  000c4	8a 48 0c	 mov	 cl, BYTE PTR [eax+12]
  000c7	84 c9		 test	 cl, cl
  000c9	74 2c		 je	 SHORT $LN84@GetAnimati
  000cb	32 ca		 xor	 cl, dl
  000cd	88 4d ec	 mov	 BYTE PTR _szEncEventType$[ebp+12], cl
  000d0	8a 48 0d	 mov	 cl, BYTE PTR [eax+13]
  000d3	84 c9		 test	 cl, cl
  000d5	74 1a		 je	 SHORT $LN83@GetAnimati
  000d7	8a 40 0e	 mov	 al, BYTE PTR [eax+14]
  000da	80 f1 ec	 xor	 cl, -20			; ffffffecH
  000dd	88 4d ed	 mov	 BYTE PTR _szEncEventType$[ebp+13], cl
  000e0	84 c0		 test	 al, al
  000e2	74 07		 je	 SHORT $LN82@GetAnimati
  000e4	34 eb		 xor	 al, -21			; ffffffebH
  000e6	88 45 ee	 mov	 BYTE PTR _szEncEventType$[ebp+14], al
  000e9	eb 4f		 jmp	 SHORT $LN1@GetAnimati
$LN82@GetAnimati:
  000eb	c6 45 ee eb	 mov	 BYTE PTR _szEncEventType$[ebp+14], -21 ; ffffffebH
  000ef	eb 49		 jmp	 SHORT $LN1@GetAnimati
$LN83@GetAnimati:
  000f1	c6 45 ed ec	 mov	 BYTE PTR _szEncEventType$[ebp+13], -20 ; ffffffecH
  000f5	eb 43		 jmp	 SHORT $LN1@GetAnimati
$LN84@GetAnimati:
  000f7	88 55 ec	 mov	 BYTE PTR _szEncEventType$[ebp+12], dl
  000fa	eb 3e		 jmp	 SHORT $LN1@GetAnimati
$LN85@GetAnimati:
  000fc	c6 45 eb ea	 mov	 BYTE PTR _szEncEventType$[ebp+11], -22 ; ffffffeaH
  00100	eb 38		 jmp	 SHORT $LN1@GetAnimati
$LN87@GetAnimati:
  00102	c6 45 e9 ec	 mov	 BYTE PTR _szEncEventType$[ebp+9], -20 ; ffffffecH
  00106	eb 32		 jmp	 SHORT $LN1@GetAnimati
$LN88@GetAnimati:
  00108	88 55 e8	 mov	 BYTE PTR _szEncEventType$[ebp+8], dl
  0010b	eb 2d		 jmp	 SHORT $LN1@GetAnimati
$LN89@GetAnimati:
  0010d	c6 45 e7 ea	 mov	 BYTE PTR _szEncEventType$[ebp+7], -22 ; ffffffeaH
  00111	eb 27		 jmp	 SHORT $LN1@GetAnimati
$LN90@GetAnimati:
  00113	c6 45 e6 eb	 mov	 BYTE PTR _szEncEventType$[ebp+6], -21 ; ffffffebH
  00117	eb 21		 jmp	 SHORT $LN1@GetAnimati
$LN91@GetAnimati:
  00119	c6 45 e5 ec	 mov	 BYTE PTR _szEncEventType$[ebp+5], -20 ; ffffffecH
  0011d	eb 1b		 jmp	 SHORT $LN1@GetAnimati
$LN92@GetAnimati:
  0011f	88 55 e4	 mov	 BYTE PTR _szEncEventType$[ebp+4], dl
  00122	eb 16		 jmp	 SHORT $LN1@GetAnimati
$LN93@GetAnimati:
  00124	c6 45 e3 ea	 mov	 BYTE PTR _szEncEventType$[ebp+3], -22 ; ffffffeaH
  00128	eb 10		 jmp	 SHORT $LN1@GetAnimati
$LN94@GetAnimati:
  0012a	c6 45 e2 eb	 mov	 BYTE PTR _szEncEventType$[ebp+2], -21 ; ffffffebH
  0012e	eb 0a		 jmp	 SHORT $LN1@GetAnimati
$LN95@GetAnimati:
  00130	c6 45 e1 ec	 mov	 BYTE PTR _szEncEventType$[ebp+1], -20 ; ffffffecH
  00134	eb 04		 jmp	 SHORT $LN1@GetAnimati
$LN96@GetAnimati:
  00136	c6 45 e0 ed	 mov	 BYTE PTR _szEncEventType$[ebp], -19 ; ffffffedH
$LN1@GetAnimati:
  0013a	6a 02		 push	 2
  0013c	8d 45 e0	 lea	 eax, DWORD PTR _szEncEventType$[ebp]
  0013f	c6 45 ea 00	 mov	 BYTE PTR _szEncEventType$[ebp+10], 0
  00143	59		 pop	 ecx
$LL105@GetAnimati:
  00144	81 30 ed ec eb
	ea		 xor	 DWORD PTR [eax], -353637139 ; eaebecedH
  0014a	83 c0 04	 add	 eax, 4
  0014d	49		 dec	 ecx
  0014e	75 f4		 jne	 SHORT $LL105@GetAnimati
  00150	6a 08		 push	 8
  00152	58		 pop	 eax
$LL102@GetAnimati:
  00153	8b c8		 mov	 ecx, eax
  00155	81 e1 03 00 00
	80		 and	 ecx, -2147483645	; 80000003H
  0015b	79 05		 jns	 SHORT $LN113@GetAnimati
  0015d	49		 dec	 ecx
  0015e	83 c9 fc	 or	 ecx, -4			; fffffffcH
  00161	41		 inc	 ecx
$LN113@GetAnimati:
  00162	b2 ed		 mov	 dl, -19			; ffffffedH
  00164	2a d1		 sub	 dl, cl
  00166	30 54 05 e0	 xor	 BYTE PTR _szEncEventType$[ebp+eax], dl
  0016a	40		 inc	 eax
  0016b	83 f8 0a	 cmp	 eax, 10			; 0000000aH
  0016e	7c e3		 jl	 SHORT $LL102@GetAnimati

; 416  : 		return GetAnimationEventTime(id, szEncEventType);

  00170	8d 45 e0	 lea	 eax, DWORD PTR _szEncEventType$[ebp]
  00173	50		 push	 eax
  00174	8d 4d cc	 lea	 ecx, DWORD PTR $T548259[ebp]
  00177	ff 15 00 00 00
	00		 call	 DWORD PTR __imp_??0ioHashString@@QAE@PBD@Z
  0017d	83 65 fc 00	 and	 DWORD PTR __$EHRec$[ebp+8], 0
  00181	8d 45 cc	 lea	 eax, DWORD PTR $T548259[ebp]
  00184	50		 push	 eax
  00185	ff 75 08	 push	 DWORD PTR _id$[ebp]
  00188	8b ce		 mov	 ecx, esi
  0018a	ff 15 00 00 00
	00		 call	 DWORD PTR __imp_?GetAnimationEventTime@ioEntityGroup@@QAEMHABVioHashString@@@Z
  00190	d9 5d dc	 fstp	 DWORD PTR $T548258[ebp]
  00193	83 4d fc ff	 or	 DWORD PTR __$EHRec$[ebp+8], -1
  00197	8d 4d cc	 lea	 ecx, DWORD PTR $T548259[ebp]
  0019a	ff 15 00 00 00
	00		 call	 DWORD PTR __imp_??1ioHashString@@QAE@XZ
  001a0	d9 45 dc	 fld	 DWORD PTR $T548258[ebp]

; 417  : 	}

  001a3	e8 00 00 00 00	 call	 __EH_epilog3_GS
  001a8	c2 08 00	 ret	 8
_TEXT	ENDS
;	COMDAT text$x
text$x	SEGMENT
__unwindfunclet$??$GetAnimationEventTime_e@$0L@@ioEntityGroup@@QAEMHAAY0L@$$CBD@Z$0:
  00000	8d 4d cc	 lea	 ecx, DWORD PTR $T548259[ebp]
  00003	ff 25 00 00 00
	00		 jmp	 DWORD PTR __imp_??1ioHashString@@QAE@XZ
__ehhandler$??$GetAnimationEventTime_e@$0L@@ioEntityGroup@@QAEMHAAY0L@$$CBD@Z:
  00009	8b 54 24 08	 mov	 edx, DWORD PTR [esp+8]
  0000d	8d 42 0c	 lea	 eax, DWORD PTR [edx+12]
  00010	8b 4a c8	 mov	 ecx, DWORD PTR [edx-56]
  00013	33 c8		 xor	 ecx, eax
  00015	e8 00 00 00 00	 call	 @__security_check_cookie@4
  0001a	8b 4a fc	 mov	 ecx, DWORD PTR [edx-4]
  0001d	33 c8		 xor	 ecx, eax
  0001f	e8 00 00 00 00	 call	 @__security_check_cookie@4
  00024	b8 00 00 00 00	 mov	 eax, OFFSET __ehfuncinfo$??$GetAnimationEventTime_e@$0L@@ioEntityGroup@@QAEMHAAY0L@$$CBD@Z
  00029	e9 00 00 00 00	 jmp	 ___CxxFrameHandler3
text$x	ENDS
??$GetAnimationEventTime_e@$0L@@ioEntityGroup@@QAEMHAAY0L@$$CBD@Z ENDP ; ioEntityGroup::GetAnimationEventTime_e<11>
PUBLIC	??$GetAnimationEventTime_e@$0N@@ioEntityGroup@@QAEMHAAY0N@$$CBD@Z ; ioEntityGroup::GetAnimationEventTime_e<13>
;	COMDAT xdata$x
; File d:\lost saga for developer\youtube\tutorial\source\src\lsclient\stringprotect.h
xdata$x	SEGMENT
__unwindtable$??$GetAnimationEventTime_e@$0N@@ioEntityGroup@@QAEMHAAY0N@$$CBD@Z DD 0ffffffffH
	DD	FLAT:__unwindfunclet$??$GetAnimationEventTime_e@$0N@@ioEntityGroup@@QAEMHAAY0N@$$CBD@Z$0
__ehfuncinfo$??$GetAnimationEventTime_e@$0N@@ioEntityGroup@@QAEMHAAY0N@$$CBD@Z DD 019930522H
	DD	01H
	DD	FLAT:__unwindtable$??$GetAnimationEventTime_e@$0N@@ioEntityGroup@@QAEMHAAY0N@$$CBD@Z
	DD	2 DUP(00H)
	DD	2 DUP(00H)
	DD	00H
	DD	01H
; Function compile flags: /Ogsp
; File d:\lost saga for developer\youtube\tutorial\source\src\io3dengine\ioentitygroup.h
xdata$x	ENDS
;	COMDAT ??$GetAnimationEventTime_e@$0N@@ioEntityGroup@@QAEMHAAY0N@$$CBD@Z
_TEXT	SEGMENT
$T548295 = -56						; size = 16
$T548294 = -40						; size = 4
_szEncEventType$ = -36					; size = 13
__$EHRec$ = -12						; size = 12
_id$ = 8						; size = 4
_szEventType$ = 12					; size = 4
??$GetAnimationEventTime_e@$0N@@ioEntityGroup@@QAEMHAAY0N@$$CBD@Z PROC ; ioEntityGroup::GetAnimationEventTime_e<13>, COMDAT
; _this$ = ecx

; 414  : 	{

  00000	6a 2c		 push	 44			; 0000002cH
  00002	b8 00 00 00 00	 mov	 eax, __ehhandler$??$GetAnimationEventTime_e@$0N@@ioEntityGroup@@QAEMHAAY0N@$$CBD@Z
  00007	e8 00 00 00 00	 call	 __EH_prolog3_GS
  0000c	8b 45 0c	 mov	 eax, DWORD PTR _szEventType$[ebp]
  0000f	8b f1		 mov	 esi, ecx

; 415  : 		_ENCSTR(szEventType, szEncEventType);

  00011	8a 08		 mov	 cl, BYTE PTR [eax]
  00013	84 c9		 test	 cl, cl
  00015	0f 84 49 01 00
	00		 je	 $LN96@GetAnimati@2
  0001b	80 f1 ed	 xor	 cl, -19			; ffffffedH
  0001e	88 4d dc	 mov	 BYTE PTR _szEncEventType$[ebp], cl
  00021	8a 48 01	 mov	 cl, BYTE PTR [eax+1]
  00024	84 c9		 test	 cl, cl
  00026	0f 84 32 01 00
	00		 je	 $LN95@GetAnimati@2
  0002c	80 f1 ec	 xor	 cl, -20			; ffffffecH
  0002f	88 4d dd	 mov	 BYTE PTR _szEncEventType$[ebp+1], cl
  00032	8a 48 02	 mov	 cl, BYTE PTR [eax+2]
  00035	84 c9		 test	 cl, cl
  00037	0f 84 1b 01 00
	00		 je	 $LN94@GetAnimati@2
  0003d	b2 eb		 mov	 dl, -21			; ffffffebH
  0003f	32 ca		 xor	 cl, dl
  00041	88 4d de	 mov	 BYTE PTR _szEncEventType$[ebp+2], cl
  00044	8a 48 03	 mov	 cl, BYTE PTR [eax+3]
  00047	84 c9		 test	 cl, cl
  00049	0f 84 03 01 00
	00		 je	 $LN93@GetAnimati@2
  0004f	80 f1 ea	 xor	 cl, -22			; ffffffeaH
  00052	88 4d df	 mov	 BYTE PTR _szEncEventType$[ebp+3], cl
  00055	8a 48 04	 mov	 cl, BYTE PTR [eax+4]
  00058	84 c9		 test	 cl, cl
  0005a	0f 84 ec 00 00
	00		 je	 $LN92@GetAnimati@2
  00060	80 f1 ed	 xor	 cl, -19			; ffffffedH
  00063	88 4d e0	 mov	 BYTE PTR _szEncEventType$[ebp+4], cl
  00066	8a 48 05	 mov	 cl, BYTE PTR [eax+5]
  00069	84 c9		 test	 cl, cl
  0006b	0f 84 d5 00 00
	00		 je	 $LN91@GetAnimati@2
  00071	80 f1 ec	 xor	 cl, -20			; ffffffecH
  00074	88 4d e1	 mov	 BYTE PTR _szEncEventType$[ebp+5], cl
  00077	8a 48 06	 mov	 cl, BYTE PTR [eax+6]
  0007a	84 c9		 test	 cl, cl
  0007c	0f 84 bf 00 00
	00		 je	 $LN90@GetAnimati@2
  00082	32 ca		 xor	 cl, dl
  00084	88 4d e2	 mov	 BYTE PTR _szEncEventType$[ebp+6], cl
  00087	8a 48 07	 mov	 cl, BYTE PTR [eax+7]
  0008a	84 c9		 test	 cl, cl
  0008c	0f 84 a9 00 00
	00		 je	 $LN89@GetAnimati@2
  00092	80 f1 ea	 xor	 cl, -22			; ffffffeaH
  00095	88 4d e3	 mov	 BYTE PTR _szEncEventType$[ebp+7], cl
  00098	8a 48 08	 mov	 cl, BYTE PTR [eax+8]
  0009b	84 c9		 test	 cl, cl
  0009d	0f 84 92 00 00
	00		 je	 $LN88@GetAnimati@2
  000a3	80 f1 ed	 xor	 cl, -19			; ffffffedH
  000a6	88 4d e4	 mov	 BYTE PTR _szEncEventType$[ebp+8], cl
  000a9	8a 48 09	 mov	 cl, BYTE PTR [eax+9]
  000ac	84 c9		 test	 cl, cl
  000ae	74 7f		 je	 SHORT $LN87@GetAnimati@2
  000b0	80 f1 ec	 xor	 cl, -20			; ffffffecH
  000b3	88 4d e5	 mov	 BYTE PTR _szEncEventType$[ebp+9], cl
  000b6	8a 48 0a	 mov	 cl, BYTE PTR [eax+10]
  000b9	84 c9		 test	 cl, cl
  000bb	74 6d		 je	 SHORT $LN86@GetAnimati@2
  000bd	32 ca		 xor	 cl, dl
  000bf	88 4d e6	 mov	 BYTE PTR _szEncEventType$[ebp+10], cl
  000c2	8a 48 0b	 mov	 cl, BYTE PTR [eax+11]
  000c5	84 c9		 test	 cl, cl
  000c7	74 5b		 je	 SHORT $LN85@GetAnimati@2
  000c9	80 f1 ea	 xor	 cl, -22			; ffffffeaH
  000cc	80 78 0c 00	 cmp	 BYTE PTR [eax+12], 0
  000d0	88 4d e7	 mov	 BYTE PTR _szEncEventType$[ebp+11], cl
  000d3	0f 84 8f 00 00
	00		 je	 $LN1@GetAnimati@2
  000d9	8a 48 0d	 mov	 cl, BYTE PTR [eax+13]
  000dc	84 c9		 test	 cl, cl
  000de	74 3e		 je	 SHORT $LN83@GetAnimati@2
  000e0	80 f1 ec	 xor	 cl, -20			; ffffffecH
  000e3	88 4d e9	 mov	 BYTE PTR _szEncEventType$[ebp+13], cl
  000e6	8a 48 0e	 mov	 cl, BYTE PTR [eax+14]
  000e9	84 c9		 test	 cl, cl
  000eb	74 2c		 je	 SHORT $LN82@GetAnimati@2
  000ed	32 ca		 xor	 cl, dl
  000ef	88 4d ea	 mov	 BYTE PTR _szEncEventType$[ebp+14], cl
  000f2	8a 48 0f	 mov	 cl, BYTE PTR [eax+15]
  000f5	84 c9		 test	 cl, cl
  000f7	74 1a		 je	 SHORT $LN81@GetAnimati@2
  000f9	8a 40 10	 mov	 al, BYTE PTR [eax+16]
  000fc	80 f1 ea	 xor	 cl, -22			; ffffffeaH
  000ff	88 4d eb	 mov	 BYTE PTR _szEncEventType$[ebp+15], cl
  00102	84 c0		 test	 al, al
  00104	74 07		 je	 SHORT $LN80@GetAnimati@2
  00106	34 ed		 xor	 al, -19			; ffffffedH
  00108	88 45 ec	 mov	 BYTE PTR _szEncEventType$[ebp+16], al
  0010b	eb 5b		 jmp	 SHORT $LN1@GetAnimati@2
$LN80@GetAnimati@2:
  0010d	c6 45 ec ed	 mov	 BYTE PTR _szEncEventType$[ebp+16], -19 ; ffffffedH
  00111	eb 55		 jmp	 SHORT $LN1@GetAnimati@2
$LN81@GetAnimati@2:
  00113	c6 45 eb ea	 mov	 BYTE PTR _szEncEventType$[ebp+15], -22 ; ffffffeaH
  00117	eb 4f		 jmp	 SHORT $LN1@GetAnimati@2
$LN82@GetAnimati@2:
  00119	88 55 ea	 mov	 BYTE PTR _szEncEventType$[ebp+14], dl
  0011c	eb 4a		 jmp	 SHORT $LN1@GetAnimati@2
$LN83@GetAnimati@2:
  0011e	c6 45 e9 ec	 mov	 BYTE PTR _szEncEventType$[ebp+13], -20 ; ffffffecH
  00122	eb 44		 jmp	 SHORT $LN1@GetAnimati@2
$LN85@GetAnimati@2:
  00124	c6 45 e7 ea	 mov	 BYTE PTR _szEncEventType$[ebp+11], -22 ; ffffffeaH
  00128	eb 3e		 jmp	 SHORT $LN1@GetAnimati@2
$LN86@GetAnimati@2:
  0012a	88 55 e6	 mov	 BYTE PTR _szEncEventType$[ebp+10], dl
  0012d	eb 39		 jmp	 SHORT $LN1@GetAnimati@2
$LN87@GetAnimati@2:
  0012f	c6 45 e5 ec	 mov	 BYTE PTR _szEncEventType$[ebp+9], -20 ; ffffffecH
  00133	eb 33		 jmp	 SHORT $LN1@GetAnimati@2
$LN88@GetAnimati@2:
  00135	c6 45 e4 ed	 mov	 BYTE PTR _szEncEventType$[ebp+8], -19 ; ffffffedH
  00139	eb 2d		 jmp	 SHORT $LN1@GetAnimati@2
$LN89@GetAnimati@2:
  0013b	c6 45 e3 ea	 mov	 BYTE PTR _szEncEventType$[ebp+7], -22 ; ffffffeaH
  0013f	eb 27		 jmp	 SHORT $LN1@GetAnimati@2
$LN90@GetAnimati@2:
  00141	88 55 e2	 mov	 BYTE PTR _szEncEventType$[ebp+6], dl
  00144	eb 22		 jmp	 SHORT $LN1@GetAnimati@2
$LN91@GetAnimati@2:
  00146	c6 45 e1 ec	 mov	 BYTE PTR _szEncEventType$[ebp+5], -20 ; ffffffecH
  0014a	eb 1c		 jmp	 SHORT $LN1@GetAnimati@2
$LN92@GetAnimati@2:
  0014c	c6 45 e0 ed	 mov	 BYTE PTR _szEncEventType$[ebp+4], -19 ; ffffffedH
  00150	eb 16		 jmp	 SHORT $LN1@GetAnimati@2
$LN93@GetAnimati@2:
  00152	c6 45 df ea	 mov	 BYTE PTR _szEncEventType$[ebp+3], -22 ; ffffffeaH
  00156	eb 10		 jmp	 SHORT $LN1@GetAnimati@2
$LN94@GetAnimati@2:
  00158	c6 45 de eb	 mov	 BYTE PTR _szEncEventType$[ebp+2], -21 ; ffffffebH
  0015c	eb 0a		 jmp	 SHORT $LN1@GetAnimati@2
$LN95@GetAnimati@2:
  0015e	c6 45 dd ec	 mov	 BYTE PTR _szEncEventType$[ebp+1], -20 ; ffffffecH
  00162	eb 04		 jmp	 SHORT $LN1@GetAnimati@2
$LN96@GetAnimati@2:
  00164	c6 45 dc ed	 mov	 BYTE PTR _szEncEventType$[ebp], -19 ; ffffffedH
$LN1@GetAnimati@2:
  00168	6a 03		 push	 3
  0016a	8d 45 dc	 lea	 eax, DWORD PTR _szEncEventType$[ebp]
  0016d	c6 45 e8 00	 mov	 BYTE PTR _szEncEventType$[ebp+12], 0
  00171	59		 pop	 ecx
$LL105@GetAnimati@2:
  00172	81 30 ed ec eb
	ea		 xor	 DWORD PTR [eax], -353637139 ; eaebecedH
  00178	83 c0 04	 add	 eax, 4
  0017b	49		 dec	 ecx
  0017c	75 f4		 jne	 SHORT $LL105@GetAnimati@2

; 416  : 		return GetAnimationEventTime(id, szEncEventType);

  0017e	8d 45 dc	 lea	 eax, DWORD PTR _szEncEventType$[ebp]
  00181	50		 push	 eax
  00182	8d 4d c8	 lea	 ecx, DWORD PTR $T548295[ebp]
  00185	ff 15 00 00 00
	00		 call	 DWORD PTR __imp_??0ioHashString@@QAE@PBD@Z
  0018b	83 65 fc 00	 and	 DWORD PTR __$EHRec$[ebp+8], 0
  0018f	8d 45 c8	 lea	 eax, DWORD PTR $T548295[ebp]
  00192	50		 push	 eax
  00193	ff 75 08	 push	 DWORD PTR _id$[ebp]
  00196	8b ce		 mov	 ecx, esi
  00198	ff 15 00 00 00
	00		 call	 DWORD PTR __imp_?GetAnimationEventTime@ioEntityGroup@@QAEMHABVioHashString@@@Z
  0019e	d9 5d d8	 fstp	 DWORD PTR $T548294[ebp]
  001a1	83 4d fc ff	 or	 DWORD PTR __$EHRec$[ebp+8], -1
  001a5	8d 4d c8	 lea	 ecx, DWORD PTR $T548295[ebp]
  001a8	ff 15 00 00 00
	00		 call	 DWORD PTR __imp_??1ioHashString@@QAE@XZ
  001ae	d9 45 d8	 fld	 DWORD PTR $T548294[ebp]

; 417  : 	}

  001b1	e8 00 00 00 00	 call	 __EH_epilog3_GS
  001b6	c2 08 00	 ret	 8
_TEXT	ENDS
;	COMDAT text$x
text$x	SEGMENT
__unwindfunclet$??$GetAnimationEventTime_e@$0N@@ioEntityGroup@@QAEMHAAY0N@$$CBD@Z$0:
  00000	8d 4d c8	 lea	 ecx, DWORD PTR $T548295[ebp]
  00003	ff 25 00 00 00
	00		 jmp	 DWORD PTR __imp_??1ioHashString@@QAE@XZ
__ehhandler$??$GetAnimationEventTime_e@$0N@@ioEntityGroup@@QAEMHAAY0N@$$CBD@Z:
  00009	8b 54 24 08	 mov	 edx, DWORD PTR [esp+8]
  0000d	8d 42 0c	 lea	 eax, DWORD PTR [edx+12]
  00010	8b 4a c4	 mov	 ecx, DWORD PTR [edx-60]
  00013	33 c8		 xor	 ecx, eax
  00015	e8 00 00 00 00	 call	 @__security_check_cookie@4
  0001a	8b 4a fc	 mov	 ecx, DWORD PTR [edx-4]
  0001d	33 c8		 xor	 ecx, eax
  0001f	e8 00 00 00 00	 call	 @__security_check_cookie@4
  00024	b8 00 00 00 00	 mov	 eax, OFFSET __ehfuncinfo$??$GetAnimationEventTime_e@$0N@@ioEntityGroup@@QAEMHAAY0N@$$CBD@Z
  00029	e9 00 00 00 00	 jmp	 ___CxxFrameHandler3
text$x	ENDS
??$GetAnimationEventTime_e@$0N@@ioEntityGroup@@QAEMHAAY0N@$$CBD@Z ENDP ; ioEntityGroup::GetAnimationEventTime_e<13>
PUBLIC	??$GetAnimationEventTime_e@$0M@@ioEntityGroup@@QAEMHAAY0M@$$CBD@Z ; ioEntityGroup::GetAnimationEventTime_e<12>
;	COMDAT xdata$x
; File d:\lost saga for developer\youtube\tutorial\source\src\lsclient\stringprotect.h
xdata$x	SEGMENT
__unwindtable$??$GetAnimationEventTime_e@$0M@@ioEntityGroup@@QAEMHAAY0M@$$CBD@Z DD 0ffffffffH
	DD	FLAT:__unwindfunclet$??$GetAnimationEventTime_e@$0M@@ioEntityGroup@@QAEMHAAY0M@$$CBD@Z$0
__ehfuncinfo$??$GetAnimationEventTime_e@$0M@@ioEntityGroup@@QAEMHAAY0M@$$CBD@Z DD 019930522H
	DD	01H
	DD	FLAT:__unwindtable$??$GetAnimationEventTime_e@$0M@@ioEntityGroup@@QAEMHAAY0M@$$CBD@Z
	DD	2 DUP(00H)
	DD	2 DUP(00H)
	DD	00H
	DD	01H
; Function compile flags: /Ogsp
; File d:\lost saga for developer\youtube\tutorial\source\src\io3dengine\ioentitygroup.h
xdata$x	ENDS
;	COMDAT ??$GetAnimationEventTime_e@$0M@@ioEntityGroup@@QAEMHAAY0M@$$CBD@Z
_TEXT	SEGMENT
$T548325 = -52						; size = 16
$T548324 = -36						; size = 4
_szEncEventType$ = -32					; size = 12
__$EHRec$ = -12						; size = 12
_id$ = 8						; size = 4
_szEventType$ = 12					; size = 4
??$GetAnimationEventTime_e@$0M@@ioEntityGroup@@QAEMHAAY0M@$$CBD@Z PROC ; ioEntityGroup::GetAnimationEventTime_e<12>, COMDAT
; _this$ = ecx

; 414  : 	{

  00000	6a 28		 push	 40			; 00000028H
  00002	b8 00 00 00 00	 mov	 eax, __ehhandler$??$GetAnimationEventTime_e@$0M@@ioEntityGroup@@QAEMHAAY0M@$$CBD@Z
  00007	e8 00 00 00 00	 call	 __EH_prolog3_GS
  0000c	8b 45 0c	 mov	 eax, DWORD PTR _szEventType$[ebp]
  0000f	8b f1		 mov	 esi, ecx

; 415  : 		_ENCSTR(szEventType, szEncEventType);

  00011	8a 08		 mov	 cl, BYTE PTR [eax]
  00013	84 c9		 test	 cl, cl
  00015	0f 84 36 01 00
	00		 je	 $LN96@GetAnimati@3
  0001b	b2 ed		 mov	 dl, -19			; ffffffedH
  0001d	32 ca		 xor	 cl, dl
  0001f	88 4d e0	 mov	 BYTE PTR _szEncEventType$[ebp], cl
  00022	8a 48 01	 mov	 cl, BYTE PTR [eax+1]
  00025	84 c9		 test	 cl, cl
  00027	0f 84 1e 01 00
	00		 je	 $LN95@GetAnimati@3
  0002d	80 f1 ec	 xor	 cl, -20			; ffffffecH
  00030	88 4d e1	 mov	 BYTE PTR _szEncEventType$[ebp+1], cl
  00033	8a 48 02	 mov	 cl, BYTE PTR [eax+2]
  00036	84 c9		 test	 cl, cl
  00038	0f 84 07 01 00
	00		 je	 $LN94@GetAnimati@3
  0003e	80 f1 eb	 xor	 cl, -21			; ffffffebH
  00041	88 4d e2	 mov	 BYTE PTR _szEncEventType$[ebp+2], cl
  00044	8a 48 03	 mov	 cl, BYTE PTR [eax+3]
  00047	84 c9		 test	 cl, cl
  00049	0f 84 f0 00 00
	00		 je	 $LN93@GetAnimati@3
  0004f	80 f1 ea	 xor	 cl, -22			; ffffffeaH
  00052	88 4d e3	 mov	 BYTE PTR _szEncEventType$[ebp+3], cl
  00055	8a 48 04	 mov	 cl, BYTE PTR [eax+4]
  00058	84 c9		 test	 cl, cl
  0005a	0f 84 da 00 00
	00		 je	 $LN92@GetAnimati@3
  00060	32 ca		 xor	 cl, dl
  00062	88 4d e4	 mov	 BYTE PTR _szEncEventType$[ebp+4], cl
  00065	8a 48 05	 mov	 cl, BYTE PTR [eax+5]
  00068	84 c9		 test	 cl, cl
  0006a	0f 84 c4 00 00
	00		 je	 $LN91@GetAnimati@3
  00070	80 f1 ec	 xor	 cl, -20			; ffffffecH
  00073	88 4d e5	 mov	 BYTE PTR _szEncEventType$[ebp+5], cl
  00076	8a 48 06	 mov	 cl, BYTE PTR [eax+6]
  00079	84 c9		 test	 cl, cl
  0007b	0f 84 ad 00 00
	00		 je	 $LN90@GetAnimati@3
  00081	80 f1 eb	 xor	 cl, -21			; ffffffebH
  00084	88 4d e6	 mov	 BYTE PTR _szEncEventType$[ebp+6], cl
  00087	8a 48 07	 mov	 cl, BYTE PTR [eax+7]
  0008a	84 c9		 test	 cl, cl
  0008c	0f 84 96 00 00
	00		 je	 $LN89@GetAnimati@3
  00092	80 f1 ea	 xor	 cl, -22			; ffffffeaH
  00095	88 4d e7	 mov	 BYTE PTR _szEncEventType$[ebp+7], cl
  00098	8a 48 08	 mov	 cl, BYTE PTR [eax+8]
  0009b	84 c9		 test	 cl, cl
  0009d	0f 84 80 00 00
	00		 je	 $LN88@GetAnimati@3
  000a3	32 ca		 xor	 cl, dl
  000a5	88 4d e8	 mov	 BYTE PTR _szEncEventType$[ebp+8], cl
  000a8	8a 48 09	 mov	 cl, BYTE PTR [eax+9]
  000ab	84 c9		 test	 cl, cl
  000ad	74 6e		 je	 SHORT $LN87@GetAnimati@3
  000af	80 f1 ec	 xor	 cl, -20			; ffffffecH
  000b2	88 4d e9	 mov	 BYTE PTR _szEncEventType$[ebp+9], cl
  000b5	8a 48 0a	 mov	 cl, BYTE PTR [eax+10]
  000b8	84 c9		 test	 cl, cl
  000ba	74 5b		 je	 SHORT $LN86@GetAnimati@3
  000bc	80 f1 eb	 xor	 cl, -21			; ffffffebH
  000bf	80 78 0b 00	 cmp	 BYTE PTR [eax+11], 0
  000c3	88 4d ea	 mov	 BYTE PTR _szEncEventType$[ebp+10], cl
  000c6	0f 84 89 00 00
	00		 je	 $LN1@GetAnimati@3
  000cc	8a 48 0c	 mov	 cl, BYTE PTR [eax+12]
  000cf	84 c9		 test	 cl, cl
  000d1	74 3f		 je	 SHORT $LN84@GetAnimati@3
  000d3	32 ca		 xor	 cl, dl
  000d5	88 4d ec	 mov	 BYTE PTR _szEncEventType$[ebp+12], cl
  000d8	8a 48 0d	 mov	 cl, BYTE PTR [eax+13]
  000db	84 c9		 test	 cl, cl
  000dd	74 2d		 je	 SHORT $LN83@GetAnimati@3
  000df	80 f1 ec	 xor	 cl, -20			; ffffffecH
  000e2	88 4d ed	 mov	 BYTE PTR _szEncEventType$[ebp+13], cl
  000e5	8a 48 0e	 mov	 cl, BYTE PTR [eax+14]
  000e8	84 c9		 test	 cl, cl
  000ea	74 1a		 je	 SHORT $LN82@GetAnimati@3
  000ec	8a 40 0f	 mov	 al, BYTE PTR [eax+15]
  000ef	80 f1 eb	 xor	 cl, -21			; ffffffebH
  000f2	88 4d ee	 mov	 BYTE PTR _szEncEventType$[ebp+14], cl
  000f5	84 c0		 test	 al, al
  000f7	74 07		 je	 SHORT $LN81@GetAnimati@3
  000f9	34 ea		 xor	 al, -22			; ffffffeaH
  000fb	88 45 ef	 mov	 BYTE PTR _szEncEventType$[ebp+15], al
  000fe	eb 55		 jmp	 SHORT $LN1@GetAnimati@3
$LN81@GetAnimati@3:
  00100	c6 45 ef ea	 mov	 BYTE PTR _szEncEventType$[ebp+15], -22 ; ffffffeaH
  00104	eb 4f		 jmp	 SHORT $LN1@GetAnimati@3
$LN82@GetAnimati@3:
  00106	c6 45 ee eb	 mov	 BYTE PTR _szEncEventType$[ebp+14], -21 ; ffffffebH
  0010a	eb 49		 jmp	 SHORT $LN1@GetAnimati@3
$LN83@GetAnimati@3:
  0010c	c6 45 ed ec	 mov	 BYTE PTR _szEncEventType$[ebp+13], -20 ; ffffffecH
  00110	eb 43		 jmp	 SHORT $LN1@GetAnimati@3
$LN84@GetAnimati@3:
  00112	88 55 ec	 mov	 BYTE PTR _szEncEventType$[ebp+12], dl
  00115	eb 3e		 jmp	 SHORT $LN1@GetAnimati@3
$LN86@GetAnimati@3:
  00117	c6 45 ea eb	 mov	 BYTE PTR _szEncEventType$[ebp+10], -21 ; ffffffebH
  0011b	eb 38		 jmp	 SHORT $LN1@GetAnimati@3
$LN87@GetAnimati@3:
  0011d	c6 45 e9 ec	 mov	 BYTE PTR _szEncEventType$[ebp+9], -20 ; ffffffecH
  00121	eb 32		 jmp	 SHORT $LN1@GetAnimati@3
$LN88@GetAnimati@3:
  00123	88 55 e8	 mov	 BYTE PTR _szEncEventType$[ebp+8], dl
  00126	eb 2d		 jmp	 SHORT $LN1@GetAnimati@3
$LN89@GetAnimati@3:
  00128	c6 45 e7 ea	 mov	 BYTE PTR _szEncEventType$[ebp+7], -22 ; ffffffeaH
  0012c	eb 27		 jmp	 SHORT $LN1@GetAnimati@3
$LN90@GetAnimati@3:
  0012e	c6 45 e6 eb	 mov	 BYTE PTR _szEncEventType$[ebp+6], -21 ; ffffffebH
  00132	eb 21		 jmp	 SHORT $LN1@GetAnimati@3
$LN91@GetAnimati@3:
  00134	c6 45 e5 ec	 mov	 BYTE PTR _szEncEventType$[ebp+5], -20 ; ffffffecH
  00138	eb 1b		 jmp	 SHORT $LN1@GetAnimati@3
$LN92@GetAnimati@3:
  0013a	88 55 e4	 mov	 BYTE PTR _szEncEventType$[ebp+4], dl
  0013d	eb 16		 jmp	 SHORT $LN1@GetAnimati@3
$LN93@GetAnimati@3:
  0013f	c6 45 e3 ea	 mov	 BYTE PTR _szEncEventType$[ebp+3], -22 ; ffffffeaH
  00143	eb 10		 jmp	 SHORT $LN1@GetAnimati@3
$LN94@GetAnimati@3:
  00145	c6 45 e2 eb	 mov	 BYTE PTR _szEncEventType$[ebp+2], -21 ; ffffffebH
  00149	eb 0a		 jmp	 SHORT $LN1@GetAnimati@3
$LN95@GetAnimati@3:
  0014b	c6 45 e1 ec	 mov	 BYTE PTR _szEncEventType$[ebp+1], -20 ; ffffffecH
  0014f	eb 04		 jmp	 SHORT $LN1@GetAnimati@3
$LN96@GetAnimati@3:
  00151	c6 45 e0 ed	 mov	 BYTE PTR _szEncEventType$[ebp], -19 ; ffffffedH
$LN1@GetAnimati@3:
  00155	6a 02		 push	 2
  00157	8d 45 e0	 lea	 eax, DWORD PTR _szEncEventType$[ebp]
  0015a	c6 45 eb 00	 mov	 BYTE PTR _szEncEventType$[ebp+11], 0
  0015e	59		 pop	 ecx
$LL105@GetAnimati@3:
  0015f	81 30 ed ec eb
	ea		 xor	 DWORD PTR [eax], -353637139 ; eaebecedH
  00165	83 c0 04	 add	 eax, 4
  00168	49		 dec	 ecx
  00169	75 f4		 jne	 SHORT $LL105@GetAnimati@3
  0016b	6a 08		 push	 8
  0016d	58		 pop	 eax
$LL102@GetAnimati@3:
  0016e	8b c8		 mov	 ecx, eax
  00170	81 e1 03 00 00
	80		 and	 ecx, -2147483645	; 80000003H
  00176	79 05		 jns	 SHORT $LN113@GetAnimati@3
  00178	49		 dec	 ecx
  00179	83 c9 fc	 or	 ecx, -4			; fffffffcH
  0017c	41		 inc	 ecx
$LN113@GetAnimati@3:
  0017d	b2 ed		 mov	 dl, -19			; ffffffedH
  0017f	2a d1		 sub	 dl, cl
  00181	30 54 05 e0	 xor	 BYTE PTR _szEncEventType$[ebp+eax], dl
  00185	40		 inc	 eax
  00186	83 f8 0b	 cmp	 eax, 11			; 0000000bH
  00189	7c e3		 jl	 SHORT $LL102@GetAnimati@3

; 416  : 		return GetAnimationEventTime(id, szEncEventType);

  0018b	8d 45 e0	 lea	 eax, DWORD PTR _szEncEventType$[ebp]
  0018e	50		 push	 eax
  0018f	8d 4d cc	 lea	 ecx, DWORD PTR $T548325[ebp]
  00192	ff 15 00 00 00
	00		 call	 DWORD PTR __imp_??0ioHashString@@QAE@PBD@Z
  00198	83 65 fc 00	 and	 DWORD PTR __$EHRec$[ebp+8], 0
  0019c	8d 45 cc	 lea	 eax, DWORD PTR $T548325[ebp]
  0019f	50		 push	 eax
  001a0	ff 75 08	 push	 DWORD PTR _id$[ebp]
  001a3	8b ce		 mov	 ecx, esi
  001a5	ff 15 00 00 00
	00		 call	 DWORD PTR __imp_?GetAnimationEventTime@ioEntityGroup@@QAEMHABVioHashString@@@Z
  001ab	d9 5d dc	 fstp	 DWORD PTR $T548324[ebp]
  001ae	83 4d fc ff	 or	 DWORD PTR __$EHRec$[ebp+8], -1
  001b2	8d 4d cc	 lea	 ecx, DWORD PTR $T548325[ebp]
  001b5	ff 15 00 00 00
	00		 call	 DWORD PTR __imp_??1ioHashString@@QAE@XZ
  001bb	d9 45 dc	 fld	 DWORD PTR $T548324[ebp]

; 417  : 	}

  001be	e8 00 00 00 00	 call	 __EH_epilog3_GS
  001c3	c2 08 00	 ret	 8
_TEXT	ENDS
;	COMDAT text$x
text$x	SEGMENT
__unwindfunclet$??$GetAnimationEventTime_e@$0M@@ioEntityGroup@@QAEMHAAY0M@$$CBD@Z$0:
  00000	8d 4d cc	 lea	 ecx, DWORD PTR $T548325[ebp]
  00003	ff 25 00 00 00
	00		 jmp	 DWORD PTR __imp_??1ioHashString@@QAE@XZ
__ehhandler$??$GetAnimationEventTime_e@$0M@@ioEntityGroup@@QAEMHAAY0M@$$CBD@Z:
  00009	8b 54 24 08	 mov	 edx, DWORD PTR [esp+8]
  0000d	8d 42 0c	 lea	 eax, DWORD PTR [edx+12]
  00010	8b 4a c8	 mov	 ecx, DWORD PTR [edx-56]
  00013	33 c8		 xor	 ecx, eax
  00015	e8 00 00 00 00	 call	 @__security_check_cookie@4
  0001a	8b 4a fc	 mov	 ecx, DWORD PTR [edx-4]
  0001d	33 c8		 xor	 ecx, eax
  0001f	e8 00 00 00 00	 call	 @__security_check_cookie@4
  00024	b8 00 00 00 00	 mov	 eax, OFFSET __ehfuncinfo$??$GetAnimationEventTime_e@$0M@@ioEntityGroup@@QAEMHAAY0M@$$CBD@Z
  00029	e9 00 00 00 00	 jmp	 ___CxxFrameHandler3
text$x	ENDS
??$GetAnimationEventTime_e@$0M@@ioEntityGroup@@QAEMHAAY0M@$$CBD@Z ENDP ; ioEntityGroup::GetAnimationEventTime_e<12>
PUBLIC	?begin@?$vector@UWeaponInfo@@V?$allocator@UWeaponInfo@@@std@@@std@@QBE?AV?$_Vector_const_iterator@V?$_Vector_val@UWeaponInfo@@V?$allocator@UWeaponInfo@@@std@@@std@@@2@XZ ; std::vector<WeaponInfo,std::allocator<WeaponInfo> >::begin
; Function compile flags: /Ogsp
; File c:\program files (x86)\microsoft visual studio 10.0\vc\include\vector
;	COMDAT ?begin@?$vector@UWeaponInfo@@V?$allocator@UWeaponInfo@@@std@@@std@@QBE?AV?$_Vector_const_iterator@V?$_Vector_val@UWeaponInfo@@V?$allocator@UWeaponInfo@@@std@@@std@@@2@XZ
_TEXT	SEGMENT
___$ReturnUdt$ = 8					; size = 4
?begin@?$vector@UWeaponInfo@@V?$allocator@UWeaponInfo@@@std@@@std@@QBE?AV?$_Vector_const_iterator@V?$_Vector_val@UWeaponInfo@@V?$allocator@UWeaponInfo@@@std@@@std@@@2@XZ PROC ; std::vector<WeaponInfo,std::allocator<WeaponInfo> >::begin, COMDAT
; _this$ = ecx

; 786  : 		{	// return iterator for beginning of nonmutable sequence

  00000	55		 push	 ebp
  00001	8b ec		 mov	 ebp, esp

; 787  : 		return (const_iterator(this->_Myfirst, this));

  00003	8b 09		 mov	 ecx, DWORD PTR [ecx]
  00005	8b 45 08	 mov	 eax, DWORD PTR ___$ReturnUdt$[ebp]
  00008	89 08		 mov	 DWORD PTR [eax], ecx

; 788  : 		}

  0000a	5d		 pop	 ebp
  0000b	c2 04 00	 ret	 4
?begin@?$vector@UWeaponInfo@@V?$allocator@UWeaponInfo@@@std@@@std@@QBE?AV?$_Vector_const_iterator@V?$_Vector_val@UWeaponInfo@@V?$allocator@UWeaponInfo@@@std@@@std@@@2@XZ ENDP ; std::vector<WeaponInfo,std::allocator<WeaponInfo> >::begin
_TEXT	ENDS
PUBLIC	?end@?$vector@UWeaponInfo@@V?$allocator@UWeaponInfo@@@std@@@std@@QBE?AV?$_Vector_const_iterator@V?$_Vector_val@UWeaponInfo@@V?$allocator@UWeaponInfo@@@std@@@std@@@2@XZ ; std::vector<WeaponInfo,std::allocator<WeaponInfo> >::end
; Function compile flags: /Ogsp
;	COMDAT ?end@?$vector@UWeaponInfo@@V?$allocator@UWeaponInfo@@@std@@@std@@QBE?AV?$_Vector_const_iterator@V?$_Vector_val@UWeaponInfo@@V?$allocator@UWeaponInfo@@@std@@@std@@@2@XZ
_TEXT	SEGMENT
___$ReturnUdt$ = 8					; size = 4
?end@?$vector@UWeaponInfo@@V?$allocator@UWeaponInfo@@@std@@@std@@QBE?AV?$_Vector_const_iterator@V?$_Vector_val@UWeaponInfo@@V?$allocator@UWeaponInfo@@@std@@@std@@@2@XZ PROC ; std::vector<WeaponInfo,std::allocator<WeaponInfo> >::end, COMDAT
; _this$ = ecx

; 796  : 		{	// return iterator for end of nonmutable sequence

  00000	55		 push	 ebp
  00001	8b ec		 mov	 ebp, esp

; 797  : 		return (const_iterator(this->_Mylast, this));

  00003	8b 49 04	 mov	 ecx, DWORD PTR [ecx+4]
  00006	8b 45 08	 mov	 eax, DWORD PTR ___$ReturnUdt$[ebp]
  00009	89 08		 mov	 DWORD PTR [eax], ecx

; 798  : 		}

  0000b	5d		 pop	 ebp
  0000c	c2 04 00	 ret	 4
?end@?$vector@UWeaponInfo@@V?$allocator@UWeaponInfo@@@std@@@std@@QBE?AV?$_Vector_const_iterator@V?$_Vector_val@UWeaponInfo@@V?$allocator@UWeaponInfo@@@std@@@std@@@2@XZ ENDP ; std::vector<WeaponInfo,std::allocator<WeaponInfo> >::end
_TEXT	ENDS
PUBLIC	?begin@?$vector@UForceInfo@@V?$allocator@UForceInfo@@@std@@@std@@QBE?AV?$_Vector_const_iterator@V?$_Vector_val@UForceInfo@@V?$allocator@UForceInfo@@@std@@@std@@@2@XZ ; std::vector<ForceInfo,std::allocator<ForceInfo> >::begin
; Function compile flags: /Ogsp
;	COMDAT ?begin@?$vector@UForceInfo@@V?$allocator@UForceInfo@@@std@@@std@@QBE?AV?$_Vector_const_iterator@V?$_Vector_val@UForceInfo@@V?$allocator@UForceInfo@@@std@@@std@@@2@XZ
_TEXT	SEGMENT
___$ReturnUdt$ = 8					; size = 4
?begin@?$vector@UForceInfo@@V?$allocator@UForceInfo@@@std@@@std@@QBE?AV?$_Vector_const_iterator@V?$_Vector_val@UForceInfo@@V?$allocator@UForceInfo@@@std@@@std@@@2@XZ PROC ; std::vector<ForceInfo,std::allocator<ForceInfo> >::begin, COMDAT
; _this$ = ecx

; 786  : 		{	// return iterator for beginning of nonmutable sequence

  00000	55		 push	 ebp
  00001	8b ec		 mov	 ebp, esp

; 787  : 		return (const_iterator(this->_Myfirst, this));

  00003	8b 09		 mov	 ecx, DWORD PTR [ecx]
  00005	8b 45 08	 mov	 eax, DWORD PTR ___$ReturnUdt$[ebp]
  00008	89 08		 mov	 DWORD PTR [eax], ecx

; 788  : 		}

  0000a	5d		 pop	 ebp
  0000b	c2 04 00	 ret	 4
?begin@?$vector@UForceInfo@@V?$allocator@UForceInfo@@@std@@@std@@QBE?AV?$_Vector_const_iterator@V?$_Vector_val@UForceInfo@@V?$allocator@UForceInfo@@@std@@@std@@@2@XZ ENDP ; std::vector<ForceInfo,std::allocator<ForceInfo> >::begin
_TEXT	ENDS
PUBLIC	?end@?$vector@UForceInfo@@V?$allocator@UForceInfo@@@std@@@std@@QBE?AV?$_Vector_const_iterator@V?$_Vector_val@UForceInfo@@V?$allocator@UForceInfo@@@std@@@std@@@2@XZ ; std::vector<ForceInfo,std::allocator<ForceInfo> >::end
; Function compile flags: /Ogsp
;	COMDAT ?end@?$vector@UForceInfo@@V?$allocator@UForceInfo@@@std@@@std@@QBE?AV?$_Vector_const_iterator@V?$_Vector_val@UForceInfo@@V?$allocator@UForceInfo@@@std@@@std@@@2@XZ
_TEXT	SEGMENT
___$ReturnUdt$ = 8					; size = 4
?end@?$vector@UForceInfo@@V?$allocator@UForceInfo@@@std@@@std@@QBE?AV?$_Vector_const_iterator@V?$_Vector_val@UForceInfo@@V?$allocator@UForceInfo@@@std@@@std@@@2@XZ PROC ; std::vector<ForceInfo,std::allocator<ForceInfo> >::end, COMDAT
; _this$ = ecx

; 796  : 		{	// return iterator for end of nonmutable sequence

  00000	55		 push	 ebp
  00001	8b ec		 mov	 ebp, esp

; 797  : 		return (const_iterator(this->_Mylast, this));

  00003	8b 49 04	 mov	 ecx, DWORD PTR [ecx+4]
  00006	8b 45 08	 mov	 eax, DWORD PTR ___$ReturnUdt$[ebp]
  00009	89 08		 mov	 DWORD PTR [eax], ecx

; 798  : 		}

  0000b	5d		 pop	 ebp
  0000c	c2 04 00	 ret	 4
?end@?$vector@UForceInfo@@V?$allocator@UForceInfo@@@std@@@std@@QBE?AV?$_Vector_const_iterator@V?$_Vector_val@UForceInfo@@V?$allocator@UForceInfo@@@std@@@std@@@2@XZ ENDP ; std::vector<ForceInfo,std::allocator<ForceInfo> >::end
_TEXT	ENDS
PUBLIC	?construct@?$allocator@UForceInfo@@@std@@QAEXPAUForceInfo@@ABU3@@Z ; std::allocator<ForceInfo>::construct
; Function compile flags: /Ogsp
; File c:\program files (x86)\microsoft visual studio 10.0\vc\include\xmemory
;	COMDAT ?construct@?$allocator@UForceInfo@@@std@@QAEXPAUForceInfo@@ABU3@@Z
_TEXT	SEGMENT
__Ptr$ = 8						; size = 4
__Val$ = 12						; size = 4
?construct@?$allocator@UForceInfo@@@std@@QAEXPAUForceInfo@@ABU3@@Z PROC ; std::allocator<ForceInfo>::construct, COMDAT
; _this$ = ecx

; 196  : 		{	// construct object at _Ptr with value _Val

  00000	55		 push	 ebp
  00001	8b ec		 mov	 ebp, esp
  00003	57		 push	 edi

; 197  : 		_Construct(_Ptr, _Val);

  00004	8b 7d 08	 mov	 edi, DWORD PTR __Ptr$[ebp]
  00007	85 ff		 test	 edi, edi
  00009	74 08		 je	 SHORT $LN5@construct@2
  0000b	56		 push	 esi
  0000c	8b 75 0c	 mov	 esi, DWORD PTR __Val$[ebp]
  0000f	a5		 movsd
  00010	a5		 movsd
  00011	a5		 movsd
  00012	5e		 pop	 esi
$LN5@construct@2:
  00013	5f		 pop	 edi

; 198  : 		}

  00014	5d		 pop	 ebp
  00015	c2 08 00	 ret	 8
?construct@?$allocator@UForceInfo@@@std@@QAEXPAUForceInfo@@ABU3@@Z ENDP ; std::allocator<ForceInfo>::construct
_TEXT	ENDS
PUBLIC	??$_Construct@UWeaponInfo@@ABU1@@std@@YAXPAUWeaponInfo@@ABU1@@Z ; std::_Construct<WeaponInfo,WeaponInfo const &>
EXTRN	__EH_epilog3:PROC
EXTRN	__EH_prolog3:PROC
;	COMDAT xdata$x
; File c:\program files (x86)\microsoft visual studio 10.0\vc\include\utility
xdata$x	SEGMENT
__unwindtable$??$_Construct@UWeaponInfo@@ABU1@@std@@YAXPAUWeaponInfo@@ABU1@@Z DD 0ffffffffH
	DD	FLAT:__unwindfunclet$??$_Construct@UWeaponInfo@@ABU1@@std@@YAXPAUWeaponInfo@@ABU1@@Z$0
__ehfuncinfo$??$_Construct@UWeaponInfo@@ABU1@@std@@YAXPAUWeaponInfo@@ABU1@@Z DD 019930522H
	DD	01H
	DD	FLAT:__unwindtable$??$_Construct@UWeaponInfo@@ABU1@@std@@YAXPAUWeaponInfo@@ABU1@@Z
	DD	2 DUP(00H)
	DD	2 DUP(00H)
	DD	00H
	DD	01H
; Function compile flags: /Ogsp
; File c:\program files (x86)\microsoft visual studio 10.0\vc\include\xmemory
xdata$x	ENDS
;	COMDAT ??$_Construct@UWeaponInfo@@ABU1@@std@@YAXPAUWeaponInfo@@ABU1@@Z
_TEXT	SEGMENT
$T548423 = -16						; size = 4
__$EHRec$ = -12						; size = 12
__Vptr$ = 8						; size = 4
__Ptr$ = 8						; size = 4
__Val$ = 12						; size = 4
??$_Construct@UWeaponInfo@@ABU1@@std@@YAXPAUWeaponInfo@@ABU1@@Z PROC ; std::_Construct<WeaponInfo,WeaponInfo const &>, COMDAT

; 46   : 	{	// construct object at _Ptr with value _Val

  00000	6a 04		 push	 4
  00002	b8 00 00 00 00	 mov	 eax, __ehhandler$??$_Construct@UWeaponInfo@@ABU1@@std@@YAXPAUWeaponInfo@@ABU1@@Z
  00007	e8 00 00 00 00	 call	 __EH_prolog3

; 47   : 	void _FARQ *_Vptr = _Ptr;

  0000c	8b 4d 08	 mov	 ecx, DWORD PTR __Ptr$[ebp]
  0000f	89 4d 08	 mov	 DWORD PTR __Vptr$[ebp], ecx

; 48   : 	::new (_Vptr) _Ty1(_STD forward<_Ty2>(_Val));

  00012	89 4d f0	 mov	 DWORD PTR $T548423[ebp], ecx
  00015	83 65 fc 00	 and	 DWORD PTR __$EHRec$[ebp+8], 0
  00019	85 c9		 test	 ecx, ecx
  0001b	74 08		 je	 SHORT $LN3@Construct@2
  0001d	ff 75 0c	 push	 DWORD PTR __Val$[ebp]
  00020	e8 00 00 00 00	 call	 ??0WeaponInfo@@QAE@ABU0@@Z
$LN3@Construct@2:

; 49   : 	}

  00025	e8 00 00 00 00	 call	 __EH_epilog3
  0002a	c3		 ret	 0
_TEXT	ENDS
;	COMDAT text$x
text$x	SEGMENT
__unwindfunclet$??$_Construct@UWeaponInfo@@ABU1@@std@@YAXPAUWeaponInfo@@ABU1@@Z$0:
  00000	ff 75 08	 push	 DWORD PTR __Vptr$[ebp]
  00003	ff 75 f0	 push	 DWORD PTR $T548423[ebp]
  00006	e8 00 00 00 00	 call	 ??3@YAXPAX0@Z		; operator delete
  0000b	59		 pop	 ecx
  0000c	59		 pop	 ecx
  0000d	c3		 ret	 0
__ehhandler$??$_Construct@UWeaponInfo@@ABU1@@std@@YAXPAUWeaponInfo@@ABU1@@Z:
  0000e	8b 54 24 08	 mov	 edx, DWORD PTR [esp+8]
  00012	8d 42 0c	 lea	 eax, DWORD PTR [edx+12]
  00015	8b 4a ec	 mov	 ecx, DWORD PTR [edx-20]
  00018	33 c8		 xor	 ecx, eax
  0001a	e8 00 00 00 00	 call	 @__security_check_cookie@4
  0001f	b8 00 00 00 00	 mov	 eax, OFFSET __ehfuncinfo$??$_Construct@UWeaponInfo@@ABU1@@std@@YAXPAUWeaponInfo@@ABU1@@Z
  00024	e9 00 00 00 00	 jmp	 ___CxxFrameHandler3
text$x	ENDS
??$_Construct@UWeaponInfo@@ABU1@@std@@YAXPAUWeaponInfo@@ABU1@@Z ENDP ; std::_Construct<WeaponInfo,WeaponInfo const &>
PUBLIC	??0?$CEncrypt@M@@QAE@XZ				; CEncrypt<float>::CEncrypt<float>
EXTRN	??0ccddaabb@@QAE@XZ:PROC			; ccddaabb::ccddaabb
;	COMDAT xdata$x
; File d:\lost saga for developer\youtube\tutorial\source\src\lsclient\encryptvalue.h
xdata$x	SEGMENT
__unwindtable$??0?$CEncrypt@M@@QAE@XZ DD 0ffffffffH
	DD	FLAT:__unwindfunclet$??0?$CEncrypt@M@@QAE@XZ$0
__ehfuncinfo$??0?$CEncrypt@M@@QAE@XZ DD 019930522H
	DD	01H
	DD	FLAT:__unwindtable$??0?$CEncrypt@M@@QAE@XZ
	DD	2 DUP(00H)
	DD	2 DUP(00H)
	DD	00H
	DD	01H
; Function compile flags: /Ogsp
xdata$x	ENDS
;	COMDAT ??0?$CEncrypt@M@@QAE@XZ
_TEXT	SEGMENT
_this$ = -16						; size = 4
__$EHRec$ = -12						; size = 12
??0?$CEncrypt@M@@QAE@XZ PROC				; CEncrypt<float>::CEncrypt<float>, COMDAT
; _this$ = ecx

; 109  : 	CEncrypt()

  00000	6a 04		 push	 4
  00002	b8 00 00 00 00	 mov	 eax, __ehhandler$??0?$CEncrypt@M@@QAE@XZ
  00007	e8 00 00 00 00	 call	 __EH_prolog3
  0000c	8b f1		 mov	 esi, ecx
  0000e	89 75 f0	 mov	 DWORD PTR _this$[ebp], esi
  00011	8d 4e 0c	 lea	 ecx, DWORD PTR [esi+12]
  00014	c7 06 00 00 00
	00		 mov	 DWORD PTR [esi], OFFSET ??_7?$CEncrypt@M@@6B@
  0001a	e8 00 00 00 00	 call	 ??0ccddaabb@@QAE@XZ	; ccddaabb::ccddaabb
  0001f	83 65 fc 00	 and	 DWORD PTR __$EHRec$[ebp+8], 0

; 110  : 	{
; 111  : 		Init();

  00023	8b ce		 mov	 ecx, esi
  00025	e8 00 00 00 00	 call	 ?Init@?$CEncrypt@M@@AAEXXZ ; CEncrypt<float>::Init

; 112  : 	}

  0002a	8b c6		 mov	 eax, esi
  0002c	e8 00 00 00 00	 call	 __EH_epilog3
  00031	c3		 ret	 0
_TEXT	ENDS
;	COMDAT text$x
text$x	SEGMENT
__unwindfunclet$??0?$CEncrypt@M@@QAE@XZ$0:
  00000	8b 4d f0	 mov	 ecx, DWORD PTR _this$[ebp]
  00003	83 c1 0c	 add	 ecx, 12			; 0000000cH
  00006	e9 00 00 00 00	 jmp	 ??1ccddaabb@@UAE@XZ	; ccddaabb::~ccddaabb
__ehhandler$??0?$CEncrypt@M@@QAE@XZ:
  0000b	8b 54 24 08	 mov	 edx, DWORD PTR [esp+8]
  0000f	8d 42 0c	 lea	 eax, DWORD PTR [edx+12]
  00012	8b 4a ec	 mov	 ecx, DWORD PTR [edx-20]
  00015	33 c8		 xor	 ecx, eax
  00017	e8 00 00 00 00	 call	 @__security_check_cookie@4
  0001c	b8 00 00 00 00	 mov	 eax, OFFSET __ehfuncinfo$??0?$CEncrypt@M@@QAE@XZ
  00021	e9 00 00 00 00	 jmp	 ___CxxFrameHandler3
text$x	ENDS
??0?$CEncrypt@M@@QAE@XZ ENDP				; CEncrypt<float>::CEncrypt<float>
PUBLIC	??B?$CEncrypt@M@@QAEMXZ				; CEncrypt<float>::operator float
; Function compile flags: /Ogsp
;	COMDAT ??B?$CEncrypt@M@@QAEMXZ
_TEXT	SEGMENT
_value$ = -4						; size = 4
??B?$CEncrypt@M@@QAEMXZ PROC				; CEncrypt<float>::operator float, COMDAT
; _this$ = ecx

; 134  : 	{

  00000	55		 push	 ebp
  00001	8b ec		 mov	 ebp, esp
  00003	51		 push	 ecx

; 135  : 		type value;
; 136  : 		DecryptValueToPool(&value);

  00004	8d 45 fc	 lea	 eax, DWORD PTR _value$[ebp]
  00007	50		 push	 eax
  00008	e8 00 00 00 00	 call	 ?DecryptValueToPool@?$CEncrypt@M@@QAEXPAM@Z ; CEncrypt<float>::DecryptValueToPool

; 137  : 
; 138  : #ifdef _NOTUSE
; 139  : 		Debug();
; 140  : #endif
; 141  : 		return value;

  0000d	d9 45 fc	 fld	 DWORD PTR _value$[ebp]

; 142  : 	}

  00010	c9		 leave
  00011	c3		 ret	 0
??B?$CEncrypt@M@@QAEMXZ ENDP				; CEncrypt<float>::operator float
_TEXT	ENDS
PUBLIC	??B?$CEncrypt@M@@QBEMXZ				; CEncrypt<float>::operator float
; Function compile flags: /Ogsp
;	COMDAT ??B?$CEncrypt@M@@QBEMXZ
_TEXT	SEGMENT
_value$ = -4						; size = 4
??B?$CEncrypt@M@@QBEMXZ PROC				; CEncrypt<float>::operator float, COMDAT
; _this$ = ecx

; 145  : 	{

  00000	55		 push	 ebp
  00001	8b ec		 mov	 ebp, esp
  00003	51		 push	 ecx

; 146  : 		//UJ 130829, const    --start
; 147  : 		type value;
; 148  : 		CEncrypt<type>* pThis = const_cast<CEncrypt<type>*>(this);
; 149  : 		pThis->DecryptValueToPool(&value);

  00004	8d 45 fc	 lea	 eax, DWORD PTR _value$[ebp]
  00007	50		 push	 eax
  00008	e8 00 00 00 00	 call	 ?DecryptValueToPool@?$CEncrypt@M@@QAEXPAM@Z ; CEncrypt<float>::DecryptValueToPool

; 150  : 		//// const DecryptValueToPool     .
; 151  :  		//type value;
; 152  : 		//char szTempMem[MAX_ENCRYPT];
; 153  : 		//m_RC5.DecryptByte( m_MemPool, szTempMem, max(m_ValueSize, DEFAULT_ENCRYPT) );
; 154  : 		//memcpy( &value, szTempMem, m_ValueSize );
; 155  : 		//UJ --end
; 156  : 
; 157  : #ifdef _NOTUSE
; 158  : 		Debug();
; 159  : #endif
; 160  : 		return value;

  0000d	d9 45 fc	 fld	 DWORD PTR _value$[ebp]

; 161  : 	}

  00010	c9		 leave
  00011	c3		 ret	 0
??B?$CEncrypt@M@@QBEMXZ ENDP				; CEncrypt<float>::operator float
_TEXT	ENDS
PUBLIC	??4?$CEncrypt@M@@QAEMM@Z			; CEncrypt<float>::operator=
; Function compile flags: /Ogsp
;	COMDAT ??4?$CEncrypt@M@@QAEMM@Z
_TEXT	SEGMENT
_value$ = 8						; size = 4
_inValue$ = 8						; size = 4
??4?$CEncrypt@M@@QAEMM@Z PROC				; CEncrypt<float>::operator=, COMDAT
; _this$ = ecx

; 1654 : 	{	

  00000	55		 push	 ebp
  00001	8b ec		 mov	 ebp, esp

; 1655 : 		type value = inValue;

  00003	d9 45 08	 fld	 DWORD PTR _inValue$[ebp]

; 1656 : 		EncryptValueToPool((char*)&value);

  00006	8d 45 08	 lea	 eax, DWORD PTR _value$[ebp]
  00009	50		 push	 eax
  0000a	d9 5d 08	 fstp	 DWORD PTR _value$[ebp]
  0000d	e8 00 00 00 00	 call	 ?EncryptValueToPool@?$CEncrypt@M@@AAEXPBD@Z ; CEncrypt<float>::EncryptValueToPool

; 1657 : #ifdef _NOTUSE
; 1658 : 		m_value = inValue;
; 1659 : 		Debug();
; 1660 : #endif
; 1661 : 		return value;

  00012	d9 45 08	 fld	 DWORD PTR _value$[ebp]

; 1662 : 	}

  00015	5d		 pop	 ebp
  00016	c2 04 00	 ret	 4
??4?$CEncrypt@M@@QAEMM@Z ENDP				; CEncrypt<float>::operator=
_TEXT	ENDS
PUBLIC	??B?$CEncrypt@K@@QAEKXZ				; CEncrypt<unsigned long>::operator unsigned long
; Function compile flags: /Ogsp
;	COMDAT ??B?$CEncrypt@K@@QAEKXZ
_TEXT	SEGMENT
_value$ = -4						; size = 4
??B?$CEncrypt@K@@QAEKXZ PROC				; CEncrypt<unsigned long>::operator unsigned long, COMDAT
; _this$ = ecx

; 134  : 	{

  00000	55		 push	 ebp
  00001	8b ec		 mov	 ebp, esp
  00003	51		 push	 ecx

; 135  : 		type value;
; 136  : 		DecryptValueToPool(&value);

  00004	8d 45 fc	 lea	 eax, DWORD PTR _value$[ebp]
  00007	50		 push	 eax
  00008	e8 00 00 00 00	 call	 ?DecryptValueToPool@?$CEncrypt@K@@QAEXPAK@Z ; CEncrypt<unsigned long>::DecryptValueToPool

; 137  : 
; 138  : #ifdef _NOTUSE
; 139  : 		Debug();
; 140  : #endif
; 141  : 		return value;

  0000d	8b 45 fc	 mov	 eax, DWORD PTR _value$[ebp]

; 142  : 	}

  00010	c9		 leave
  00011	c3		 ret	 0
??B?$CEncrypt@K@@QAEKXZ ENDP				; CEncrypt<unsigned long>::operator unsigned long
_TEXT	ENDS
PUBLIC	??4?$CEncrypt@K@@QAEKK@Z			; CEncrypt<unsigned long>::operator=
; Function compile flags: /Ogsp
;	COMDAT ??4?$CEncrypt@K@@QAEKK@Z
_TEXT	SEGMENT
_value$ = 8						; size = 4
_inValue$ = 8						; size = 4
??4?$CEncrypt@K@@QAEKK@Z PROC				; CEncrypt<unsigned long>::operator=, COMDAT
; _this$ = ecx

; 1262 : 	{

  00000	55		 push	 ebp
  00001	8b ec		 mov	 ebp, esp

; 1263 : 		
; 1264 : 		type value = inValue;

  00003	8b 45 08	 mov	 eax, DWORD PTR _inValue$[ebp]
  00006	89 45 08	 mov	 DWORD PTR _value$[ebp], eax

; 1265 : 		EncryptValueToPool((char*)&value);

  00009	8d 45 08	 lea	 eax, DWORD PTR _value$[ebp]
  0000c	50		 push	 eax
  0000d	e8 00 00 00 00	 call	 ?EncryptValueToPool@?$CEncrypt@K@@AAEXPBD@Z ; CEncrypt<unsigned long>::EncryptValueToPool

; 1266 : #ifdef _NOTUSE
; 1267 : 		m_value = inValue;
; 1268 : 		Debug();
; 1269 : #endif
; 1270 : 		return value;

  00012	8b 45 08	 mov	 eax, DWORD PTR _value$[ebp]

; 1271 : 	}

  00015	5d		 pop	 ebp
  00016	c2 04 00	 ret	 4
??4?$CEncrypt@K@@QAEKK@Z ENDP				; CEncrypt<unsigned long>::operator=
_TEXT	ENDS
PUBLIC	??4?$CEncrypt@_N@@QAE_N_N@Z			; CEncrypt<bool>::operator=
; Function compile flags: /Ogsp
;	COMDAT ??4?$CEncrypt@_N@@QAE_N_N@Z
_TEXT	SEGMENT
_inValue$ = 8						; size = 1
_value$ = 11						; size = 1
??4?$CEncrypt@_N@@QAE_N_N@Z PROC			; CEncrypt<bool>::operator=, COMDAT
; _this$ = ecx

; 225  : 	{

  00000	55		 push	 ebp
  00001	8b ec		 mov	 ebp, esp

; 226  : 		type value = inValue;

  00003	8a 45 08	 mov	 al, BYTE PTR _inValue$[ebp]
  00006	88 45 0b	 mov	 BYTE PTR _value$[ebp], al

; 227  : 		EncryptValueToPool((char*)&value);

  00009	8d 45 0b	 lea	 eax, DWORD PTR _value$[ebp]
  0000c	50		 push	 eax
  0000d	e8 00 00 00 00	 call	 ?EncryptValueToPool@?$CEncrypt@_N@@AAEXPBD@Z ; CEncrypt<bool>::EncryptValueToPool

; 228  : #ifdef _NOTUSE
; 229  : 		m_value = inValue;
; 230  : 		Debug();
; 231  : #endif
; 232  : 		return value;

  00012	8a 45 0b	 mov	 al, BYTE PTR _value$[ebp]

; 233  : 	}

  00015	5d		 pop	 ebp
  00016	c2 04 00	 ret	 4
??4?$CEncrypt@_N@@QAE_N_N@Z ENDP			; CEncrypt<bool>::operator=
_TEXT	ENDS
PUBLIC	??0?$CEncrypt@H@@QAE@XZ				; CEncrypt<int>::CEncrypt<int>
;	COMDAT xdata$x
xdata$x	SEGMENT
__unwindtable$??0?$CEncrypt@H@@QAE@XZ DD 0ffffffffH
	DD	FLAT:__unwindfunclet$??0?$CEncrypt@H@@QAE@XZ$0
__ehfuncinfo$??0?$CEncrypt@H@@QAE@XZ DD 019930522H
	DD	01H
	DD	FLAT:__unwindtable$??0?$CEncrypt@H@@QAE@XZ
	DD	2 DUP(00H)
	DD	2 DUP(00H)
	DD	00H
	DD	01H
; Function compile flags: /Ogsp
xdata$x	ENDS
;	COMDAT ??0?$CEncrypt@H@@QAE@XZ
_TEXT	SEGMENT
_this$ = -16						; size = 4
__$EHRec$ = -12						; size = 12
??0?$CEncrypt@H@@QAE@XZ PROC				; CEncrypt<int>::CEncrypt<int>, COMDAT
; _this$ = ecx

; 109  : 	CEncrypt()

  00000	6a 04		 push	 4
  00002	b8 00 00 00 00	 mov	 eax, __ehhandler$??0?$CEncrypt@H@@QAE@XZ
  00007	e8 00 00 00 00	 call	 __EH_prolog3
  0000c	8b f1		 mov	 esi, ecx
  0000e	89 75 f0	 mov	 DWORD PTR _this$[ebp], esi
  00011	8d 4e 0c	 lea	 ecx, DWORD PTR [esi+12]
  00014	c7 06 00 00 00
	00		 mov	 DWORD PTR [esi], OFFSET ??_7?$CEncrypt@H@@6B@
  0001a	e8 00 00 00 00	 call	 ??0ccddaabb@@QAE@XZ	; ccddaabb::ccddaabb
  0001f	83 65 fc 00	 and	 DWORD PTR __$EHRec$[ebp+8], 0

; 110  : 	{
; 111  : 		Init();

  00023	8b ce		 mov	 ecx, esi
  00025	e8 00 00 00 00	 call	 ?Init@?$CEncrypt@H@@AAEXXZ ; CEncrypt<int>::Init

; 112  : 	}

  0002a	8b c6		 mov	 eax, esi
  0002c	e8 00 00 00 00	 call	 __EH_epilog3
  00031	c3		 ret	 0
_TEXT	ENDS
;	COMDAT text$x
text$x	SEGMENT
__unwindfunclet$??0?$CEncrypt@H@@QAE@XZ$0:
  00000	8b 4d f0	 mov	 ecx, DWORD PTR _this$[ebp]
  00003	83 c1 0c	 add	 ecx, 12			; 0000000cH
  00006	e9 00 00 00 00	 jmp	 ??1ccddaabb@@UAE@XZ	; ccddaabb::~ccddaabb
__ehhandler$??0?$CEncrypt@H@@QAE@XZ:
  0000b	8b 54 24 08	 mov	 edx, DWORD PTR [esp+8]
  0000f	8d 42 0c	 lea	 eax, DWORD PTR [edx+12]
  00012	8b 4a ec	 mov	 ecx, DWORD PTR [edx-20]
  00015	33 c8		 xor	 ecx, eax
  00017	e8 00 00 00 00	 call	 @__security_check_cookie@4
  0001c	b8 00 00 00 00	 mov	 eax, OFFSET __ehfuncinfo$??0?$CEncrypt@H@@QAE@XZ
  00021	e9 00 00 00 00	 jmp	 ___CxxFrameHandler3
text$x	ENDS
??0?$CEncrypt@H@@QAE@XZ ENDP				; CEncrypt<int>::CEncrypt<int>
PUBLIC	??B?$CEncrypt@H@@QAEHXZ				; CEncrypt<int>::operator int
; Function compile flags: /Ogsp
;	COMDAT ??B?$CEncrypt@H@@QAEHXZ
_TEXT	SEGMENT
_value$ = -4						; size = 4
??B?$CEncrypt@H@@QAEHXZ PROC				; CEncrypt<int>::operator int, COMDAT
; _this$ = ecx

; 134  : 	{

  00000	55		 push	 ebp
  00001	8b ec		 mov	 ebp, esp
  00003	51		 push	 ecx

; 135  : 		type value;
; 136  : 		DecryptValueToPool(&value);

  00004	8d 45 fc	 lea	 eax, DWORD PTR _value$[ebp]
  00007	50		 push	 eax
  00008	e8 00 00 00 00	 call	 ?DecryptValueToPool@?$CEncrypt@H@@QAEXPAH@Z ; CEncrypt<int>::DecryptValueToPool

; 137  : 
; 138  : #ifdef _NOTUSE
; 139  : 		Debug();
; 140  : #endif
; 141  : 		return value;

  0000d	8b 45 fc	 mov	 eax, DWORD PTR _value$[ebp]

; 142  : 	}

  00010	c9		 leave
  00011	c3		 ret	 0
??B?$CEncrypt@H@@QAEHXZ ENDP				; CEncrypt<int>::operator int
_TEXT	ENDS
PUBLIC	??B?$CEncrypt@H@@QBEHXZ				; CEncrypt<int>::operator int
; Function compile flags: /Ogsp
;	COMDAT ??B?$CEncrypt@H@@QBEHXZ
_TEXT	SEGMENT
_value$ = -4						; size = 4
??B?$CEncrypt@H@@QBEHXZ PROC				; CEncrypt<int>::operator int, COMDAT
; _this$ = ecx

; 145  : 	{

  00000	55		 push	 ebp
  00001	8b ec		 mov	 ebp, esp
  00003	51		 push	 ecx

; 146  : 		//UJ 130829, const    --start
; 147  : 		type value;
; 148  : 		CEncrypt<type>* pThis = const_cast<CEncrypt<type>*>(this);
; 149  : 		pThis->DecryptValueToPool(&value);

  00004	8d 45 fc	 lea	 eax, DWORD PTR _value$[ebp]
  00007	50		 push	 eax
  00008	e8 00 00 00 00	 call	 ?DecryptValueToPool@?$CEncrypt@H@@QAEXPAH@Z ; CEncrypt<int>::DecryptValueToPool

; 150  : 		//// const DecryptValueToPool     .
; 151  :  		//type value;
; 152  : 		//char szTempMem[MAX_ENCRYPT];
; 153  : 		//m_RC5.DecryptByte( m_MemPool, szTempMem, max(m_ValueSize, DEFAULT_ENCRYPT) );
; 154  : 		//memcpy( &value, szTempMem, m_ValueSize );
; 155  : 		//UJ --end
; 156  : 
; 157  : #ifdef _NOTUSE
; 158  : 		Debug();
; 159  : #endif
; 160  : 		return value;

  0000d	8b 45 fc	 mov	 eax, DWORD PTR _value$[ebp]

; 161  : 	}

  00010	c9		 leave
  00011	c3		 ret	 0
??B?$CEncrypt@H@@QBEHXZ ENDP				; CEncrypt<int>::operator int
_TEXT	ENDS
PUBLIC	??E?$CEncrypt@H@@QAEHH@Z			; CEncrypt<int>::operator++
; Function compile flags: /Ogsp
;	COMDAT ??E?$CEncrypt@H@@QAEHH@Z
_TEXT	SEGMENT
_value$ = -4						; size = 4
___formal$ = 8						; size = 4
??E?$CEncrypt@H@@QAEHH@Z PROC				; CEncrypt<int>::operator++, COMDAT
; _this$ = ecx

; 190  : 	{

  00000	55		 push	 ebp
  00001	8b ec		 mov	 ebp, esp
  00003	51		 push	 ecx
  00004	56		 push	 esi

; 191  : 		type value;
; 192  : 		DecryptValueToPool(&value);

  00005	8d 45 fc	 lea	 eax, DWORD PTR _value$[ebp]
  00008	50		 push	 eax
  00009	8b f1		 mov	 esi, ecx
  0000b	e8 00 00 00 00	 call	 ?DecryptValueToPool@?$CEncrypt@H@@QAEXPAH@Z ; CEncrypt<int>::DecryptValueToPool

; 193  : 		++value;

  00010	ff 45 fc	 inc	 DWORD PTR _value$[ebp]

; 194  : 		EncryptValueToPool((char*)&value);

  00013	8d 45 fc	 lea	 eax, DWORD PTR _value$[ebp]
  00016	50		 push	 eax
  00017	8b ce		 mov	 ecx, esi
  00019	e8 00 00 00 00	 call	 ?EncryptValueToPool@?$CEncrypt@H@@AAEXPBD@Z ; CEncrypt<int>::EncryptValueToPool

; 195  : #ifdef _NOTUSE
; 196  : 		++m_value;
; 197  : 		Debug();
; 198  : #endif
; 199  : 		return value;

  0001e	8b 45 fc	 mov	 eax, DWORD PTR _value$[ebp]
  00021	5e		 pop	 esi

; 200  : 	}	

  00022	c9		 leave
  00023	c2 04 00	 ret	 4
??E?$CEncrypt@H@@QAEHH@Z ENDP				; CEncrypt<int>::operator++
_TEXT	ENDS
PUBLIC	??4?$CEncrypt@H@@QAEHH@Z			; CEncrypt<int>::operator=
; Function compile flags: /Ogsp
;	COMDAT ??4?$CEncrypt@H@@QAEHH@Z
_TEXT	SEGMENT
_value$ = 8						; size = 4
_inValue$ = 8						; size = 4
??4?$CEncrypt@H@@QAEHH@Z PROC				; CEncrypt<int>::operator=, COMDAT
; _this$ = ecx

; 843  : 	{

  00000	55		 push	 ebp
  00001	8b ec		 mov	 ebp, esp

; 844  : 		type value = inValue;

  00003	8b 45 08	 mov	 eax, DWORD PTR _inValue$[ebp]
  00006	89 45 08	 mov	 DWORD PTR _value$[ebp], eax

; 845  : 		EncryptValueToPool((char*)&value);

  00009	8d 45 08	 lea	 eax, DWORD PTR _value$[ebp]
  0000c	50		 push	 eax
  0000d	e8 00 00 00 00	 call	 ?EncryptValueToPool@?$CEncrypt@H@@AAEXPBD@Z ; CEncrypt<int>::EncryptValueToPool

; 846  : #ifdef _NOTUSE
; 847  : 		m_value = inValue;
; 848  : 		Debug();
; 849  : #endif
; 850  : 		return value;

  00012	8b 45 08	 mov	 eax, DWORD PTR _value$[ebp]

; 851  : 	}

  00015	5d		 pop	 ebp
  00016	c2 04 00	 ret	 4
??4?$CEncrypt@H@@QAEHH@Z ENDP				; CEncrypt<int>::operator=
_TEXT	ENDS
PUBLIC	??0?$_Vector_val@UWeaponInfo@@V?$allocator@UWeaponInfo@@@std@@@std@@QAE@V?$allocator@UWeaponInfo@@@1@@Z ; std::_Vector_val<WeaponInfo,std::allocator<WeaponInfo> >::_Vector_val<WeaponInfo,std::allocator<WeaponInfo> >
; Function compile flags: /Ogsp
; File c:\program files (x86)\microsoft visual studio 10.0\vc\include\vector
;	COMDAT ??0?$_Vector_val@UWeaponInfo@@V?$allocator@UWeaponInfo@@@std@@@std@@QAE@V?$allocator@UWeaponInfo@@@1@@Z
_TEXT	SEGMENT
__Al$ = 8						; size = 1
??0?$_Vector_val@UWeaponInfo@@V?$allocator@UWeaponInfo@@@std@@@std@@QAE@V?$allocator@UWeaponInfo@@@1@@Z PROC ; std::_Vector_val<WeaponInfo,std::allocator<WeaponInfo> >::_Vector_val<WeaponInfo,std::allocator<WeaponInfo> >, COMDAT
; _this$ = ecx

; 426  : 		{	// construct allocator from _Al

  00000	8b c1		 mov	 eax, ecx

; 427  : 		_Myfirst = 0;

  00002	33 c9		 xor	 ecx, ecx
  00004	89 08		 mov	 DWORD PTR [eax], ecx

; 428  : 		_Mylast = 0;

  00006	89 48 04	 mov	 DWORD PTR [eax+4], ecx

; 429  : 		_Myend = 0;

  00009	89 48 08	 mov	 DWORD PTR [eax+8], ecx

; 430  : 		}

  0000c	c2 04 00	 ret	 4
??0?$_Vector_val@UWeaponInfo@@V?$allocator@UWeaponInfo@@@std@@@std@@QAE@V?$allocator@UWeaponInfo@@@1@@Z ENDP ; std::_Vector_val<WeaponInfo,std::allocator<WeaponInfo> >::_Vector_val<WeaponInfo,std::allocator<WeaponInfo> >
_TEXT	ENDS
PUBLIC	??0?$_Vector_val@UForceInfo@@V?$allocator@UForceInfo@@@std@@@std@@QAE@V?$allocator@UForceInfo@@@1@@Z ; std::_Vector_val<ForceInfo,std::allocator<ForceInfo> >::_Vector_val<ForceInfo,std::allocator<ForceInfo> >
; Function compile flags: /Ogsp
;	COMDAT ??0?$_Vector_val@UForceInfo@@V?$allocator@UForceInfo@@@std@@@std@@QAE@V?$allocator@UForceInfo@@@1@@Z
_TEXT	SEGMENT
__Al$ = 8						; size = 1
??0?$_Vector_val@UForceInfo@@V?$allocator@UForceInfo@@@std@@@std@@QAE@V?$allocator@UForceInfo@@@1@@Z PROC ; std::_Vector_val<ForceInfo,std::allocator<ForceInfo> >::_Vector_val<ForceInfo,std::allocator<ForceInfo> >, COMDAT
; _this$ = ecx

; 426  : 		{	// construct allocator from _Al

  00000	8b c1		 mov	 eax, ecx

; 427  : 		_Myfirst = 0;

  00002	33 c9		 xor	 ecx, ecx
  00004	89 08		 mov	 DWORD PTR [eax], ecx

; 428  : 		_Mylast = 0;

  00006	89 48 04	 mov	 DWORD PTR [eax+4], ecx

; 429  : 		_Myend = 0;

  00009	89 48 08	 mov	 DWORD PTR [eax+8], ecx

; 430  : 		}

  0000c	c2 04 00	 ret	 4
??0?$_Vector_val@UForceInfo@@V?$allocator@UForceInfo@@@std@@@std@@QAE@V?$allocator@UForceInfo@@@1@@Z ENDP ; std::_Vector_val<ForceInfo,std::allocator<ForceInfo> >::_Vector_val<ForceInfo,std::allocator<ForceInfo> >
_TEXT	ENDS
PUBLIC	?max_size@?$vector@UWeaponInfo@@V?$allocator@UWeaponInfo@@@std@@@std@@QBEIXZ ; std::vector<WeaponInfo,std::allocator<WeaponInfo> >::max_size
; Function compile flags: /Ogsp
;	COMDAT ?max_size@?$vector@UWeaponInfo@@V?$allocator@UWeaponInfo@@@std@@@std@@QBEIXZ
_TEXT	SEGMENT
?max_size@?$vector@UWeaponInfo@@V?$allocator@UWeaponInfo@@@std@@@std@@QBEIXZ PROC ; std::vector<WeaponInfo,std::allocator<WeaponInfo> >::max_size, COMDAT
; _this$ = ecx

; 884  : 		return (this->_Alval.max_size());

  00000	b8 66 66 66 06	 mov	 eax, 107374182		; 06666666H

; 885  : 		}

  00005	c3		 ret	 0
?max_size@?$vector@UWeaponInfo@@V?$allocator@UWeaponInfo@@@std@@@std@@QBEIXZ ENDP ; std::vector<WeaponInfo,std::allocator<WeaponInfo> >::max_size
_TEXT	ENDS
PUBLIC	?allocate@?$allocator@UWeaponInfo@@@std@@QAEPAUWeaponInfo@@I@Z ; std::allocator<WeaponInfo>::allocate
; Function compile flags: /Ogsp
; File c:\program files (x86)\microsoft visual studio 10.0\vc\include\xmemory
;	COMDAT ?allocate@?$allocator@UWeaponInfo@@@std@@QAEPAUWeaponInfo@@I@Z
_TEXT	SEGMENT
__Count$ = 8						; size = 4
?allocate@?$allocator@UWeaponInfo@@@std@@QAEPAUWeaponInfo@@I@Z PROC ; std::allocator<WeaponInfo>::allocate, COMDAT
; _this$ = ecx

; 186  : 		{	// allocate array of _Count elements

  00000	55		 push	 ebp
  00001	8b ec		 mov	 ebp, esp

; 187  : 		return (_Allocate(_Count, (pointer)0));

  00003	6a 00		 push	 0
  00005	ff 75 08	 push	 DWORD PTR __Count$[ebp]
  00008	e8 00 00 00 00	 call	 ??$_Allocate@UWeaponInfo@@@std@@YAPAUWeaponInfo@@IPAU1@@Z ; std::_Allocate<WeaponInfo>
  0000d	59		 pop	 ecx
  0000e	59		 pop	 ecx

; 188  : 		}

  0000f	5d		 pop	 ebp
  00010	c2 04 00	 ret	 4
?allocate@?$allocator@UWeaponInfo@@@std@@QAEPAUWeaponInfo@@I@Z ENDP ; std::allocator<WeaponInfo>::allocate
_TEXT	ENDS
PUBLIC	?max_size@?$vector@UForceInfo@@V?$allocator@UForceInfo@@@std@@@std@@QBEIXZ ; std::vector<ForceInfo,std::allocator<ForceInfo> >::max_size
; Function compile flags: /Ogsp
; File c:\program files (x86)\microsoft visual studio 10.0\vc\include\vector
;	COMDAT ?max_size@?$vector@UForceInfo@@V?$allocator@UForceInfo@@@std@@@std@@QBEIXZ
_TEXT	SEGMENT
?max_size@?$vector@UForceInfo@@V?$allocator@UForceInfo@@@std@@@std@@QBEIXZ PROC ; std::vector<ForceInfo,std::allocator<ForceInfo> >::max_size, COMDAT
; _this$ = ecx

; 884  : 		return (this->_Alval.max_size());

  00000	b8 55 55 55 15	 mov	 eax, 357913941		; 15555555H

; 885  : 		}

  00005	c3		 ret	 0
?max_size@?$vector@UForceInfo@@V?$allocator@UForceInfo@@@std@@@std@@QBEIXZ ENDP ; std::vector<ForceInfo,std::allocator<ForceInfo> >::max_size
_TEXT	ENDS
PUBLIC	?allocate@?$allocator@UForceInfo@@@std@@QAEPAUForceInfo@@I@Z ; std::allocator<ForceInfo>::allocate
; Function compile flags: /Ogsp
; File c:\program files (x86)\microsoft visual studio 10.0\vc\include\xmemory
;	COMDAT ?allocate@?$allocator@UForceInfo@@@std@@QAEPAUForceInfo@@I@Z
_TEXT	SEGMENT
__Count$ = 8						; size = 4
?allocate@?$allocator@UForceInfo@@@std@@QAEPAUForceInfo@@I@Z PROC ; std::allocator<ForceInfo>::allocate, COMDAT
; _this$ = ecx

; 186  : 		{	// allocate array of _Count elements

  00000	55		 push	 ebp
  00001	8b ec		 mov	 ebp, esp

; 187  : 		return (_Allocate(_Count, (pointer)0));

  00003	6a 00		 push	 0
  00005	ff 75 08	 push	 DWORD PTR __Count$[ebp]
  00008	e8 00 00 00 00	 call	 ??$_Allocate@UForceInfo@@@std@@YAPAUForceInfo@@IPAU1@@Z ; std::_Allocate<ForceInfo>
  0000d	59		 pop	 ecx
  0000e	59		 pop	 ecx

; 188  : 		}

  0000f	5d		 pop	 ebp
  00010	c2 04 00	 ret	 4
?allocate@?$allocator@UForceInfo@@@std@@QAEPAUForceInfo@@I@Z ENDP ; std::allocator<ForceInfo>::allocate
_TEXT	ENDS
PUBLIC	??0?$_Vector_iterator@V?$_Vector_val@UWeaponInfo@@V?$allocator@UWeaponInfo@@@std@@@std@@@std@@QAE@PAUWeaponInfo@@PBU_Container_base0@1@@Z ; std::_Vector_iterator<std::_Vector_val<WeaponInfo,std::allocator<WeaponInfo> > >::_Vector_iterator<std::_Vector_val<WeaponInfo,std::allocator<WeaponInfo> > >
; Function compile flags: /Ogsp
; File c:\program files (x86)\microsoft visual studio 10.0\vc\include\vector
;	COMDAT ??0?$_Vector_iterator@V?$_Vector_val@UWeaponInfo@@V?$allocator@UWeaponInfo@@@std@@@std@@@std@@QAE@PAUWeaponInfo@@PBU_Container_base0@1@@Z
_TEXT	SEGMENT
__Parg$ = 8						; size = 4
__Pvector$ = 12						; size = 4
??0?$_Vector_iterator@V?$_Vector_val@UWeaponInfo@@V?$allocator@UWeaponInfo@@@std@@@std@@@std@@QAE@PAUWeaponInfo@@PBU_Container_base0@1@@Z PROC ; std::_Vector_iterator<std::_Vector_val<WeaponInfo,std::allocator<WeaponInfo> > >::_Vector_iterator<std::_Vector_val<WeaponInfo,std::allocator<WeaponInfo> > >, COMDAT
; _this$ = ecx

; 304  : 		{	// construct with pointer _Parg

  00000	55		 push	 ebp
  00001	8b ec		 mov	 ebp, esp
  00003	8b c1		 mov	 eax, ecx
  00005	8b 4d 08	 mov	 ecx, DWORD PTR __Parg$[ebp]
  00008	89 08		 mov	 DWORD PTR [eax], ecx

; 305  : 		}

  0000a	5d		 pop	 ebp
  0000b	c2 08 00	 ret	 8
??0?$_Vector_iterator@V?$_Vector_val@UWeaponInfo@@V?$allocator@UWeaponInfo@@@std@@@std@@@std@@QAE@PAUWeaponInfo@@PBU_Container_base0@1@@Z ENDP ; std::_Vector_iterator<std::_Vector_val<WeaponInfo,std::allocator<WeaponInfo> > >::_Vector_iterator<std::_Vector_val<WeaponInfo,std::allocator<WeaponInfo> > >
_TEXT	ENDS
PUBLIC	??0?$_Vector_iterator@V?$_Vector_val@UForceInfo@@V?$allocator@UForceInfo@@@std@@@std@@@std@@QAE@PAUForceInfo@@PBU_Container_base0@1@@Z ; std::_Vector_iterator<std::_Vector_val<ForceInfo,std::allocator<ForceInfo> > >::_Vector_iterator<std::_Vector_val<ForceInfo,std::allocator<ForceInfo> > >
; Function compile flags: /Ogsp
;	COMDAT ??0?$_Vector_iterator@V?$_Vector_val@UForceInfo@@V?$allocator@UForceInfo@@@std@@@std@@@std@@QAE@PAUForceInfo@@PBU_Container_base0@1@@Z
_TEXT	SEGMENT
__Parg$ = 8						; size = 4
__Pvector$ = 12						; size = 4
??0?$_Vector_iterator@V?$_Vector_val@UForceInfo@@V?$allocator@UForceInfo@@@std@@@std@@@std@@QAE@PAUForceInfo@@PBU_Container_base0@1@@Z PROC ; std::_Vector_iterator<std::_Vector_val<ForceInfo,std::allocator<ForceInfo> > >::_Vector_iterator<std::_Vector_val<ForceInfo,std::allocator<ForceInfo> > >, COMDAT
; _this$ = ecx

; 304  : 		{	// construct with pointer _Parg

  00000	55		 push	 ebp
  00001	8b ec		 mov	 ebp, esp
  00003	8b c1		 mov	 eax, ecx
  00005	8b 4d 08	 mov	 ecx, DWORD PTR __Parg$[ebp]
  00008	89 08		 mov	 DWORD PTR [eax], ecx

; 305  : 		}

  0000a	5d		 pop	 ebp
  0000b	c2 08 00	 ret	 8
??0?$_Vector_iterator@V?$_Vector_val@UForceInfo@@V?$allocator@UForceInfo@@@std@@@std@@@std@@QAE@PAUForceInfo@@PBU_Container_base0@1@@Z ENDP ; std::_Vector_iterator<std::_Vector_val<ForceInfo,std::allocator<ForceInfo> > >::_Vector_iterator<std::_Vector_val<ForceInfo,std::allocator<ForceInfo> > >
_TEXT	ENDS
PUBLIC	??8?$_Vector_const_iterator@V?$_Vector_val@UWeaponInfo@@V?$allocator@UWeaponInfo@@@std@@@std@@@std@@QBE_NABV01@@Z ; std::_Vector_const_iterator<std::_Vector_val<WeaponInfo,std::allocator<WeaponInfo> > >::operator==
; Function compile flags: /Ogsp
;	COMDAT ??8?$_Vector_const_iterator@V?$_Vector_val@UWeaponInfo@@V?$allocator@UWeaponInfo@@@std@@@std@@@std@@QBE_NABV01@@Z
_TEXT	SEGMENT
__Right$ = 8						; size = 4
??8?$_Vector_const_iterator@V?$_Vector_val@UWeaponInfo@@V?$allocator@UWeaponInfo@@@std@@@std@@@std@@QBE_NABV01@@Z PROC ; std::_Vector_const_iterator<std::_Vector_val<WeaponInfo,std::allocator<WeaponInfo> > >::operator==, COMDAT
; _this$ = ecx

; 201  : 		{	// test for iterator equality

  00000	55		 push	 ebp
  00001	8b ec		 mov	 ebp, esp

; 202  : 		_Compat(_Right);
; 203  : 		return (this->_Ptr == _Right._Ptr);

  00003	8b 01		 mov	 eax, DWORD PTR [ecx]
  00005	8b 4d 08	 mov	 ecx, DWORD PTR __Right$[ebp]
  00008	2b 01		 sub	 eax, DWORD PTR [ecx]
  0000a	f7 d8		 neg	 eax
  0000c	1b c0		 sbb	 eax, eax
  0000e	40		 inc	 eax

; 204  : 		}

  0000f	5d		 pop	 ebp
  00010	c2 04 00	 ret	 4
??8?$_Vector_const_iterator@V?$_Vector_val@UWeaponInfo@@V?$allocator@UWeaponInfo@@@std@@@std@@@std@@QBE_NABV01@@Z ENDP ; std::_Vector_const_iterator<std::_Vector_val<WeaponInfo,std::allocator<WeaponInfo> > >::operator==
_TEXT	ENDS
PUBLIC	??8?$_Vector_const_iterator@V?$_Vector_val@UForceInfo@@V?$allocator@UForceInfo@@@std@@@std@@@std@@QBE_NABV01@@Z ; std::_Vector_const_iterator<std::_Vector_val<ForceInfo,std::allocator<ForceInfo> > >::operator==
; Function compile flags: /Ogsp
;	COMDAT ??8?$_Vector_const_iterator@V?$_Vector_val@UForceInfo@@V?$allocator@UForceInfo@@@std@@@std@@@std@@QBE_NABV01@@Z
_TEXT	SEGMENT
__Right$ = 8						; size = 4
??8?$_Vector_const_iterator@V?$_Vector_val@UForceInfo@@V?$allocator@UForceInfo@@@std@@@std@@@std@@QBE_NABV01@@Z PROC ; std::_Vector_const_iterator<std::_Vector_val<ForceInfo,std::allocator<ForceInfo> > >::operator==, COMDAT
; _this$ = ecx

; 201  : 		{	// test for iterator equality

  00000	55		 push	 ebp
  00001	8b ec		 mov	 ebp, esp

; 202  : 		_Compat(_Right);
; 203  : 		return (this->_Ptr == _Right._Ptr);

  00003	8b 01		 mov	 eax, DWORD PTR [ecx]
  00005	8b 4d 08	 mov	 ecx, DWORD PTR __Right$[ebp]
  00008	2b 01		 sub	 eax, DWORD PTR [ecx]
  0000a	f7 d8		 neg	 eax
  0000c	1b c0		 sbb	 eax, eax
  0000e	40		 inc	 eax

; 204  : 		}

  0000f	5d		 pop	 ebp
  00010	c2 04 00	 ret	 4
??8?$_Vector_const_iterator@V?$_Vector_val@UForceInfo@@V?$allocator@UForceInfo@@@std@@@std@@@std@@QBE_NABV01@@Z ENDP ; std::_Vector_const_iterator<std::_Vector_val<ForceInfo,std::allocator<ForceInfo> > >::operator==
_TEXT	ENDS
PUBLIC	??$_Copy_impl@PAUForceInfo@@PAU1@@std@@YAPAUForceInfo@@PAU1@00@Z ; std::_Copy_impl<ForceInfo *,ForceInfo *>
; Function compile flags: /Ogsp
; File c:\program files (x86)\microsoft visual studio 10.0\vc\include\xutility
;	COMDAT ??$_Copy_impl@PAUForceInfo@@PAU1@@std@@YAPAUForceInfo@@PAU1@00@Z
_TEXT	SEGMENT
__Cat$548553 = -4					; size = 1
__First$ = 8						; size = 4
__Last$ = 12						; size = 4
__Dest$ = 16						; size = 4
??$_Copy_impl@PAUForceInfo@@PAU1@@std@@YAPAUForceInfo@@PAU1@00@Z PROC ; std::_Copy_impl<ForceInfo *,ForceInfo *>, COMDAT

; 2163 : 	{	// copy [_First, _Last) to [_Dest, ...)

  00000	55		 push	 ebp
  00001	8b ec		 mov	 ebp, esp
  00003	51		 push	 ecx

; 2164 : 	return (_Copy_impl(_First, _Last,
; 2165 : 		_Dest, _Ptr_cat(_First, _Dest)));

  00004	ff 75 fc	 push	 DWORD PTR __Cat$548553[ebp]
  00007	ff 75 10	 push	 DWORD PTR __Dest$[ebp]
  0000a	ff 75 0c	 push	 DWORD PTR __Last$[ebp]
  0000d	ff 75 08	 push	 DWORD PTR __First$[ebp]
  00010	e8 00 00 00 00	 call	 ??$_Copy_impl@PAUForceInfo@@PAU1@@std@@YAPAUForceInfo@@PAU1@00U_Nonscalar_ptr_iterator_tag@0@@Z ; std::_Copy_impl<ForceInfo *,ForceInfo *>
  00015	83 c4 10	 add	 esp, 16			; 00000010H

; 2166 : 	}

  00018	c9		 leave
  00019	c3		 ret	 0
??$_Copy_impl@PAUForceInfo@@PAU1@@std@@YAPAUForceInfo@@PAU1@00@Z ENDP ; std::_Copy_impl<ForceInfo *,ForceInfo *>
_TEXT	ENDS
PUBLIC	?destroy@?$allocator@UForceInfo@@@std@@QAEXPAUForceInfo@@@Z ; std::allocator<ForceInfo>::destroy
; Function compile flags: /Ogsp
; File c:\program files (x86)\microsoft visual studio 10.0\vc\include\xmemory
;	COMDAT ?destroy@?$allocator@UForceInfo@@@std@@QAEXPAUForceInfo@@@Z
_TEXT	SEGMENT
__Ptr$ = 8						; size = 4
?destroy@?$allocator@UForceInfo@@@std@@QAEXPAUForceInfo@@@Z PROC ; std::allocator<ForceInfo>::destroy, COMDAT
; _this$ = ecx

; 213  : 		_Destroy(_Ptr);
; 214  : 		}

  00000	c2 04 00	 ret	 4
?destroy@?$allocator@UForceInfo@@@std@@QAEXPAUForceInfo@@@Z ENDP ; std::allocator<ForceInfo>::destroy
_TEXT	ENDS
PUBLIC	??$_Copy_impl@PAUWeaponInfo@@PAU1@@std@@YAPAUWeaponInfo@@PAU1@00U_Nonscalar_ptr_iterator_tag@0@@Z ; std::_Copy_impl<WeaponInfo *,WeaponInfo *>
; Function compile flags: /Ogsp
; File c:\program files (x86)\microsoft visual studio 10.0\vc\include\xutility
;	COMDAT ??$_Copy_impl@PAUWeaponInfo@@PAU1@@std@@YAPAUWeaponInfo@@PAU1@00U_Nonscalar_ptr_iterator_tag@0@@Z
_TEXT	SEGMENT
__First$ = 8						; size = 4
__Last$ = 12						; size = 4
__Dest$ = 16						; size = 4
___formal$ = 20						; size = 1
??$_Copy_impl@PAUWeaponInfo@@PAU1@@std@@YAPAUWeaponInfo@@PAU1@00U_Nonscalar_ptr_iterator_tag@0@@Z PROC ; std::_Copy_impl<WeaponInfo *,WeaponInfo *>, COMDAT

; 2142 : 	{	// copy [_First, _Last) to [_Dest, ...), arbitrary iterators

  00000	55		 push	 ebp
  00001	8b ec		 mov	 ebp, esp
  00003	56		 push	 esi

; 2143 : 	for (; _First != _Last; ++_Dest, ++_First)

  00004	8b 75 08	 mov	 esi, DWORD PTR __First$[ebp]
  00007	eb 10		 jmp	 SHORT $LN9@Copy_impl@2
$LL3@Copy_impl@2:

; 2144 : 		*_Dest = *_First;

  00009	8b 4d 10	 mov	 ecx, DWORD PTR __Dest$[ebp]
  0000c	56		 push	 esi
  0000d	e8 00 00 00 00	 call	 ??4WeaponInfo@@QAEAAU0@ABU0@@Z
  00012	83 45 10 28	 add	 DWORD PTR __Dest$[ebp], 40 ; 00000028H
  00016	83 c6 28	 add	 esi, 40			; 00000028H
$LN9@Copy_impl@2:

; 2143 : 	for (; _First != _Last; ++_Dest, ++_First)

  00019	3b 75 0c	 cmp	 esi, DWORD PTR __Last$[ebp]
  0001c	75 eb		 jne	 SHORT $LL3@Copy_impl@2

; 2145 : 	return (_Dest);

  0001e	8b 45 10	 mov	 eax, DWORD PTR __Dest$[ebp]
  00021	5e		 pop	 esi

; 2146 : 	}

  00022	5d		 pop	 ebp
  00023	c3		 ret	 0
??$_Copy_impl@PAUWeaponInfo@@PAU1@@std@@YAPAUWeaponInfo@@PAU1@00U_Nonscalar_ptr_iterator_tag@0@@Z ENDP ; std::_Copy_impl<WeaponInfo *,WeaponInfo *>
_TEXT	ENDS
PUBLIC	??$_Move@PAUWeaponInfo@@PAU1@@std@@YAPAUWeaponInfo@@PAU1@00U_Nonscalar_ptr_iterator_tag@0@@Z ; std::_Move<WeaponInfo *,WeaponInfo *>
; Function compile flags: /Ogsp
;	COMDAT ??$_Move@PAUWeaponInfo@@PAU1@@std@@YAPAUWeaponInfo@@PAU1@00U_Nonscalar_ptr_iterator_tag@0@@Z
_TEXT	SEGMENT
__First$ = 8						; size = 4
__Last$ = 12						; size = 4
__Dest$ = 16						; size = 4
___formal$ = 20						; size = 1
??$_Move@PAUWeaponInfo@@PAU1@@std@@YAPAUWeaponInfo@@PAU1@00U_Nonscalar_ptr_iterator_tag@0@@Z PROC ; std::_Move<WeaponInfo *,WeaponInfo *>, COMDAT

; 2512 : 	{	// move [_First, _Last) to [_Dest, ...), arbitrary iterators

  00000	55		 push	 ebp
  00001	8b ec		 mov	 ebp, esp
  00003	56		 push	 esi

; 2513 : 	for (; _First != _Last; ++_Dest, ++_First)

  00004	8b 75 08	 mov	 esi, DWORD PTR __First$[ebp]
  00007	eb 10		 jmp	 SHORT $LN11@Move
$LL3@Move:

; 2514 : 		*_Dest = _STD move(*_First);

  00009	8b 4d 10	 mov	 ecx, DWORD PTR __Dest$[ebp]
  0000c	56		 push	 esi
  0000d	e8 00 00 00 00	 call	 ??4WeaponInfo@@QAEAAU0@ABU0@@Z
  00012	83 45 10 28	 add	 DWORD PTR __Dest$[ebp], 40 ; 00000028H
  00016	83 c6 28	 add	 esi, 40			; 00000028H
$LN11@Move:

; 2513 : 	for (; _First != _Last; ++_Dest, ++_First)

  00019	3b 75 0c	 cmp	 esi, DWORD PTR __Last$[ebp]
  0001c	75 eb		 jne	 SHORT $LL3@Move

; 2515 : 	return (_Dest);

  0001e	8b 45 10	 mov	 eax, DWORD PTR __Dest$[ebp]
  00021	5e		 pop	 esi

; 2516 : 	}

  00022	5d		 pop	 ebp
  00023	c3		 ret	 0
??$_Move@PAUWeaponInfo@@PAU1@@std@@YAPAUWeaponInfo@@PAU1@00U_Nonscalar_ptr_iterator_tag@0@@Z ENDP ; std::_Move<WeaponInfo *,WeaponInfo *>
_TEXT	ENDS
PUBLIC	??$_Move@PAUForceInfo@@PAU1@@std@@YAPAUForceInfo@@PAU1@00U_Nonscalar_ptr_iterator_tag@0@@Z ; std::_Move<ForceInfo *,ForceInfo *>
; Function compile flags: /Ogsp
;	COMDAT ??$_Move@PAUForceInfo@@PAU1@@std@@YAPAUForceInfo@@PAU1@00U_Nonscalar_ptr_iterator_tag@0@@Z
_TEXT	SEGMENT
__First$ = 8						; size = 4
__Last$ = 12						; size = 4
__Dest$ = 16						; size = 4
___formal$ = 20						; size = 1
??$_Move@PAUForceInfo@@PAU1@@std@@YAPAUForceInfo@@PAU1@00U_Nonscalar_ptr_iterator_tag@0@@Z PROC ; std::_Move<ForceInfo *,ForceInfo *>, COMDAT

; 2512 : 	{	// move [_First, _Last) to [_Dest, ...), arbitrary iterators

  00000	55		 push	 ebp
  00001	8b ec		 mov	 ebp, esp

; 2513 : 	for (; _First != _Last; ++_Dest, ++_First)

  00003	8b 45 08	 mov	 eax, DWORD PTR __First$[ebp]
  00006	3b 45 0c	 cmp	 eax, DWORD PTR __Last$[ebp]
  00009	74 18		 je	 SHORT $LN10@Move@2
  0000b	56		 push	 esi
  0000c	57		 push	 edi
$LL3@Move@2:

; 2514 : 		*_Dest = _STD move(*_First);

  0000d	8b 7d 10	 mov	 edi, DWORD PTR __Dest$[ebp]
  00010	83 45 10 0c	 add	 DWORD PTR __Dest$[ebp], 12 ; 0000000cH
  00014	8b f0		 mov	 esi, eax
  00016	a5		 movsd
  00017	a5		 movsd
  00018	83 c0 0c	 add	 eax, 12			; 0000000cH
  0001b	a5		 movsd
  0001c	3b 45 0c	 cmp	 eax, DWORD PTR __Last$[ebp]
  0001f	75 ec		 jne	 SHORT $LL3@Move@2
  00021	5f		 pop	 edi
  00022	5e		 pop	 esi
$LN10@Move@2:

; 2515 : 	return (_Dest);

  00023	8b 45 10	 mov	 eax, DWORD PTR __Dest$[ebp]

; 2516 : 	}

  00026	5d		 pop	 ebp
  00027	c3		 ret	 0
??$_Move@PAUForceInfo@@PAU1@@std@@YAPAUForceInfo@@PAU1@00U_Nonscalar_ptr_iterator_tag@0@@Z ENDP ; std::_Move<ForceInfo *,ForceInfo *>
_TEXT	ENDS
PUBLIC	??$_Destroy@UWeaponInfo@@@std@@YAXPAUWeaponInfo@@@Z ; std::_Destroy<WeaponInfo>
; Function compile flags: /Ogsp
; File c:\program files (x86)\microsoft visual studio 10.0\vc\include\xmemory
;	COMDAT ??$_Destroy@UWeaponInfo@@@std@@YAXPAUWeaponInfo@@@Z
_TEXT	SEGMENT
__Ptr$ = 8						; size = 4
??$_Destroy@UWeaponInfo@@@std@@YAXPAUWeaponInfo@@@Z PROC ; std::_Destroy<WeaponInfo>, COMDAT

; 62   : 	{	// destroy object at _Ptr

  00000	55		 push	 ebp
  00001	8b ec		 mov	 ebp, esp

; 63   : 	_Ptr->~_Ty();

  00003	8b 4d 08	 mov	 ecx, DWORD PTR __Ptr$[ebp]
  00006	83 c1 08	 add	 ecx, 8

; 64   : 	}

  00009	5d		 pop	 ebp

; 63   : 	_Ptr->~_Ty();

  0000a	ff 25 00 00 00
	00		 jmp	 DWORD PTR __imp_??1ioHashString@@QAE@XZ
??$_Destroy@UWeaponInfo@@@std@@YAXPAUWeaponInfo@@@Z ENDP ; std::_Destroy<WeaponInfo>
_TEXT	ENDS
PUBLIC	??$_Cons_val@V?$allocator@UForceInfo@@@std@@UForceInfo@@AAU3@@std@@YAXAAV?$allocator@UForceInfo@@@0@PAUForceInfo@@AAU2@@Z ; std::_Cons_val<std::allocator<ForceInfo>,ForceInfo,ForceInfo &>
; Function compile flags: /Ogsp
;	COMDAT ??$_Cons_val@V?$allocator@UForceInfo@@@std@@UForceInfo@@AAU3@@std@@YAXAAV?$allocator@UForceInfo@@@0@PAUForceInfo@@AAU2@@Z
_TEXT	SEGMENT
__Alval$ = 8						; size = 4
__Pdest$ = 12						; size = 4
__Src$ = 16						; size = 4
??$_Cons_val@V?$allocator@UForceInfo@@@std@@UForceInfo@@AAU3@@std@@YAXAAV?$allocator@UForceInfo@@@0@PAUForceInfo@@AAU2@@Z PROC ; std::_Cons_val<std::allocator<ForceInfo>,ForceInfo,ForceInfo &>, COMDAT

; 279  : 	{	// construct using allocator

  00000	55		 push	 ebp
  00001	8b ec		 mov	 ebp, esp
  00003	57		 push	 edi

; 280  : 	_Alval.construct(_Pdest, _STD forward<_Ty2>(_Src));

  00004	8b 7d 0c	 mov	 edi, DWORD PTR __Pdest$[ebp]
  00007	85 ff		 test	 edi, edi
  00009	74 08		 je	 SHORT $LN7@Cons_val
  0000b	56		 push	 esi
  0000c	8b 75 10	 mov	 esi, DWORD PTR __Src$[ebp]
  0000f	a5		 movsd
  00010	a5		 movsd
  00011	a5		 movsd
  00012	5e		 pop	 esi
$LN7@Cons_val:
  00013	5f		 pop	 edi

; 281  : 	}

  00014	5d		 pop	 ebp
  00015	c3		 ret	 0
??$_Cons_val@V?$allocator@UForceInfo@@@std@@UForceInfo@@AAU3@@std@@YAXAAV?$allocator@UForceInfo@@@0@PAUForceInfo@@AAU2@@Z ENDP ; std::_Cons_val<std::allocator<ForceInfo>,ForceInfo,ForceInfo &>
_TEXT	ENDS
PUBLIC	??$construct@AAUWeaponInfo@@@?$allocator@UWeaponInfo@@@std@@QAEXPAUWeaponInfo@@AAU2@@Z ; std::allocator<WeaponInfo>::construct<WeaponInfo &>
;	COMDAT xdata$x
; File c:\program files (x86)\microsoft visual studio 10.0\vc\include\utility
xdata$x	SEGMENT
__unwindtable$??$construct@AAUWeaponInfo@@@?$allocator@UWeaponInfo@@@std@@QAEXPAUWeaponInfo@@AAU2@@Z DD 0ffffffffH
	DD	FLAT:__unwindfunclet$??$construct@AAUWeaponInfo@@@?$allocator@UWeaponInfo@@@std@@QAEXPAUWeaponInfo@@AAU2@@Z$0
__ehfuncinfo$??$construct@AAUWeaponInfo@@@?$allocator@UWeaponInfo@@@std@@QAEXPAUWeaponInfo@@AAU2@@Z DD 019930522H
	DD	01H
	DD	FLAT:__unwindtable$??$construct@AAUWeaponInfo@@@?$allocator@UWeaponInfo@@@std@@QAEXPAUWeaponInfo@@AAU2@@Z
	DD	2 DUP(00H)
	DD	2 DUP(00H)
	DD	00H
	DD	01H
; Function compile flags: /Ogsp
; File c:\program files (x86)\microsoft visual studio 10.0\vc\include\xmemory
xdata$x	ENDS
;	COMDAT ??$construct@AAUWeaponInfo@@@?$allocator@UWeaponInfo@@@std@@QAEXPAUWeaponInfo@@AAU2@@Z
_TEXT	SEGMENT
$T548625 = -16						; size = 4
__$EHRec$ = -12						; size = 12
__Ptr$ = 8						; size = 4
__Val$ = 12						; size = 4
??$construct@AAUWeaponInfo@@@?$allocator@UWeaponInfo@@@std@@QAEXPAUWeaponInfo@@AAU2@@Z PROC ; std::allocator<WeaponInfo>::construct<WeaponInfo &>, COMDAT
; _this$ = ecx

; 206  : 		void construct(pointer _Ptr, _Other&& _Val)

  00000	6a 04		 push	 4
  00002	b8 00 00 00 00	 mov	 eax, __ehhandler$??$construct@AAUWeaponInfo@@@?$allocator@UWeaponInfo@@@std@@QAEXPAUWeaponInfo@@AAU2@@Z
  00007	e8 00 00 00 00	 call	 __EH_prolog3

; 207  : 		{	// construct object at _Ptr with value _Val
; 208  : 		::new ((void _FARQ *)_Ptr) _Ty(_STD forward<_Other>(_Val));

  0000c	8b 4d 08	 mov	 ecx, DWORD PTR __Ptr$[ebp]
  0000f	89 4d f0	 mov	 DWORD PTR $T548625[ebp], ecx
  00012	83 65 fc 00	 and	 DWORD PTR __$EHRec$[ebp+8], 0
  00016	85 c9		 test	 ecx, ecx
  00018	74 08		 je	 SHORT $LN3@construct@3
  0001a	ff 75 0c	 push	 DWORD PTR __Val$[ebp]
  0001d	e8 00 00 00 00	 call	 ??0WeaponInfo@@QAE@ABU0@@Z
$LN3@construct@3:

; 209  : 		}

  00022	e8 00 00 00 00	 call	 __EH_epilog3
  00027	c2 08 00	 ret	 8
_TEXT	ENDS
;	COMDAT text$x
text$x	SEGMENT
__unwindfunclet$??$construct@AAUWeaponInfo@@@?$allocator@UWeaponInfo@@@std@@QAEXPAUWeaponInfo@@AAU2@@Z$0:
  00000	ff 75 08	 push	 DWORD PTR __Ptr$[ebp]
  00003	ff 75 f0	 push	 DWORD PTR $T548625[ebp]
  00006	e8 00 00 00 00	 call	 ??3@YAXPAX0@Z		; operator delete
  0000b	59		 pop	 ecx
  0000c	59		 pop	 ecx
  0000d	c3		 ret	 0
__ehhandler$??$construct@AAUWeaponInfo@@@?$allocator@UWeaponInfo@@@std@@QAEXPAUWeaponInfo@@AAU2@@Z:
  0000e	8b 54 24 08	 mov	 edx, DWORD PTR [esp+8]
  00012	8d 42 0c	 lea	 eax, DWORD PTR [edx+12]
  00015	8b 4a ec	 mov	 ecx, DWORD PTR [edx-20]
  00018	33 c8		 xor	 ecx, eax
  0001a	e8 00 00 00 00	 call	 @__security_check_cookie@4
  0001f	b8 00 00 00 00	 mov	 eax, OFFSET __ehfuncinfo$??$construct@AAUWeaponInfo@@@?$allocator@UWeaponInfo@@@std@@QAEXPAUWeaponInfo@@AAU2@@Z
  00024	e9 00 00 00 00	 jmp	 ___CxxFrameHandler3
text$x	ENDS
??$construct@AAUWeaponInfo@@@?$allocator@UWeaponInfo@@@std@@QAEXPAUWeaponInfo@@AAU2@@Z ENDP ; std::allocator<WeaponInfo>::construct<WeaponInfo &>
PUBLIC	?SetForcePowerAmt@ioBaseChar@@QAEXM@Z		; ioBaseChar::SetForcePowerAmt
; Function compile flags: /Ogsp
; File d:\lost saga for developer\youtube\tutorial\source\src\lsclient\iobasechar.h
;	COMDAT ?SetForcePowerAmt@ioBaseChar@@QAEXM@Z
_TEXT	SEGMENT
_value$548645 = 8					; size = 4
_fAmt$ = 8						; size = 4
?SetForcePowerAmt@ioBaseChar@@QAEXM@Z PROC		; ioBaseChar::SetForcePowerAmt, COMDAT
; _this$ = ecx

; 2641 : 	inline void SetForcePowerAmt( float fAmt ) { m_fForceAmt = fAmt; }

  00000	55		 push	 ebp
  00001	8b ec		 mov	 ebp, esp
  00003	f3 0f 10 45 08	 movss	 xmm0, DWORD PTR _fAmt$[ebp]
  00008	8d 45 08	 lea	 eax, DWORD PTR _value$548645[ebp]
  0000b	50		 push	 eax
  0000c	81 c1 88 0b 00
	00		 add	 ecx, 2952		; 00000b88H
  00012	f3 0f 11 45 08	 movss	 DWORD PTR _value$548645[ebp], xmm0
  00017	e8 00 00 00 00	 call	 ?EncryptValueToPool@?$CEncrypt@M@@AAEXPBD@Z ; CEncrypt<float>::EncryptValueToPool
  0001c	5d		 pop	 ebp
  0001d	c2 04 00	 ret	 4
?SetForcePowerAmt@ioBaseChar@@QAEXM@Z ENDP		; ioBaseChar::SetForcePowerAmt
_TEXT	ENDS
PUBLIC	?GetDefaultRecoveryGaugeTic@ioBaseChar@@QBEKXZ	; ioBaseChar::GetDefaultRecoveryGaugeTic
EXTRN	?m_dwDefaultRecoveryGaugeTic@ioBaseChar@@1V?$CEncrypt@K@@A:BYTE ; ioBaseChar::m_dwDefaultRecoveryGaugeTic
; Function compile flags: /Ogsp
;	COMDAT ?GetDefaultRecoveryGaugeTic@ioBaseChar@@QBEKXZ
_TEXT	SEGMENT
?GetDefaultRecoveryGaugeTic@ioBaseChar@@QBEKXZ PROC	; ioBaseChar::GetDefaultRecoveryGaugeTic, COMDAT
; _this$ = ecx

; 2656 : 	inline DWORD GetDefaultRecoveryGaugeTic() const { return m_dwDefaultRecoveryGaugeTic; }

  00000	6a 04		 push	 4
  00002	68 28 00 00 00	 push	 OFFSET ?m_dwDefaultRecoveryGaugeTic@ioBaseChar@@1V?$CEncrypt@K@@A+40
  00007	68 1c 00 00 00	 push	 OFFSET ?m_dwDefaultRecoveryGaugeTic@ioBaseChar@@1V?$CEncrypt@K@@A+28
  0000c	b9 0c 00 00 00	 mov	 ecx, OFFSET ?m_dwDefaultRecoveryGaugeTic@ioBaseChar@@1V?$CEncrypt@K@@A+12
  00011	e8 00 00 00 00	 call	 ?DecryptByte@ccddaabb@@QBEXPBDPADH@Z ; ccddaabb::DecryptByte
  00016	a1 28 00 00 00	 mov	 eax, DWORD PTR ?m_dwDefaultRecoveryGaugeTic@ioBaseChar@@1V?$CEncrypt@K@@A+40
  0001b	c3		 ret	 0
?GetDefaultRecoveryGaugeTic@ioBaseChar@@QBEKXZ ENDP	; ioBaseChar::GetDefaultRecoveryGaugeTic
_TEXT	ENDS
PUBLIC	?GetDelayRunGaugeRate@ioBaseChar@@QBEMXZ	; ioBaseChar::GetDelayRunGaugeRate
EXTRN	?m_fDelayRunGaugeRate@ioBaseChar@@1V?$CEncrypt@M@@A:BYTE ; ioBaseChar::m_fDelayRunGaugeRate
; Function compile flags: /Ogsp
;	COMDAT ?GetDelayRunGaugeRate@ioBaseChar@@QBEMXZ
_TEXT	SEGMENT
?GetDelayRunGaugeRate@ioBaseChar@@QBEMXZ PROC		; ioBaseChar::GetDelayRunGaugeRate, COMDAT
; _this$ = ecx

; 2658 : 	inline float GetDelayRunGaugeRate() const { return m_fDelayRunGaugeRate; }

  00000	6a 04		 push	 4
  00002	68 28 00 00 00	 push	 OFFSET ?m_fDelayRunGaugeRate@ioBaseChar@@1V?$CEncrypt@M@@A+40
  00007	68 1c 00 00 00	 push	 OFFSET ?m_fDelayRunGaugeRate@ioBaseChar@@1V?$CEncrypt@M@@A+28
  0000c	b9 0c 00 00 00	 mov	 ecx, OFFSET ?m_fDelayRunGaugeRate@ioBaseChar@@1V?$CEncrypt@M@@A+12
  00011	e8 00 00 00 00	 call	 ?DecryptByte@ccddaabb@@QBEXPBDPADH@Z ; ccddaabb::DecryptByte
  00016	d9 05 28 00 00
	00		 fld	 DWORD PTR ?m_fDelayRunGaugeRate@ioBaseChar@@1V?$CEncrypt@M@@A+40
  0001c	c3		 ret	 0
?GetDelayRunGaugeRate@ioBaseChar@@QBEMXZ ENDP		; ioBaseChar::GetDelayRunGaugeRate
_TEXT	ENDS
PUBLIC	?GetEtcGaugeRate@ioBaseChar@@QBEMXZ		; ioBaseChar::GetEtcGaugeRate
EXTRN	?m_fEtcGaugeRate@ioBaseChar@@1V?$CEncrypt@M@@A:BYTE ; ioBaseChar::m_fEtcGaugeRate
; Function compile flags: /Ogsp
;	COMDAT ?GetEtcGaugeRate@ioBaseChar@@QBEMXZ
_TEXT	SEGMENT
?GetEtcGaugeRate@ioBaseChar@@QBEMXZ PROC		; ioBaseChar::GetEtcGaugeRate, COMDAT
; _this$ = ecx

; 2659 : 	inline float GetEtcGaugeRate() const { return m_fEtcGaugeRate; }

  00000	6a 04		 push	 4
  00002	68 28 00 00 00	 push	 OFFSET ?m_fEtcGaugeRate@ioBaseChar@@1V?$CEncrypt@M@@A+40
  00007	68 1c 00 00 00	 push	 OFFSET ?m_fEtcGaugeRate@ioBaseChar@@1V?$CEncrypt@M@@A+28
  0000c	b9 0c 00 00 00	 mov	 ecx, OFFSET ?m_fEtcGaugeRate@ioBaseChar@@1V?$CEncrypt@M@@A+12
  00011	e8 00 00 00 00	 call	 ?DecryptByte@ccddaabb@@QBEXPBDPADH@Z ; ccddaabb::DecryptByte
  00016	d9 05 28 00 00
	00		 fld	 DWORD PTR ?m_fEtcGaugeRate@ioBaseChar@@1V?$CEncrypt@M@@A+40
  0001c	c3		 ret	 0
?GetEtcGaugeRate@ioBaseChar@@QBEMXZ ENDP		; ioBaseChar::GetEtcGaugeRate
_TEXT	ENDS
PUBLIC	__real@41f0000000000000
PUBLIC	?SetNormalAttack@ioSummonChargeItem@@UAEXPAVioBaseChar@@H@Z ; ioSummonChargeItem::SetNormalAttack
EXTRN	?SetAutoTargetTrackingEndTime@ioBaseChar@@QAEXK@Z:PROC ; ioBaseChar::SetAutoTargetTrackingEndTime
EXTRN	__imp_?SetActionAni@ioEntityGroup@@QAE_NHMMMMMM_N0@Z:PROC
EXTRN	__imp_?GetAnimationFullTime@ioEntityGroup@@QAEMH@Z:PROC
EXTRN	?SetNormalAttack@ioAttackableItem@@UAEXPAVioBaseChar@@H@Z:PROC ; ioAttackableItem::SetNormalAttack
;	COMDAT __real@41f0000000000000
; File d:\lost saga for developer\youtube\tutorial\source\src\lsclient\stringprotect.h
CONST	SEGMENT
__real@41f0000000000000 DQ 041f0000000000000r	; 4.29497e+009
CONST	ENDS
;	COMDAT xdata$x
xdata$x	SEGMENT
__unwindtable$?SetNormalAttack@ioSummonChargeItem@@UAEXPAVioBaseChar@@H@Z DD 0ffffffffH
	DD	FLAT:__unwindfunclet$?SetNormalAttack@ioSummonChargeItem@@UAEXPAVioBaseChar@@H@Z$0
__ehfuncinfo$?SetNormalAttack@ioSummonChargeItem@@UAEXPAVioBaseChar@@H@Z DD 019930522H
	DD	01H
	DD	FLAT:__unwindtable$?SetNormalAttack@ioSummonChargeItem@@UAEXPAVioBaseChar@@H@Z
	DD	2 DUP(00H)
	DD	2 DUP(00H)
	DD	00H
	DD	01H
; Function compile flags: /Ogsp
; File d:\lost saga for developer\youtube\tutorial\source\src\lsclient\iosummonchargeitem.cpp
xdata$x	ENDS
;	COMDAT ?SetNormalAttack@ioSummonChargeItem@@UAEXPAVioBaseChar@@H@Z
_TEXT	SEGMENT
$T548849 = -68						; size = 16
_iAniID$542433 = -52					; size = 4
tv1191 = -48						; size = 4
tv1188 = -48						; size = 4
tv1186 = -48						; size = 4
_pGrp$542430 = -44					; size = 4
tv1152 = -40						; size = 4
_value$548709 = -40					; size = 4
_value$548687 = -40					; size = 4
_fTimeRate$542434 = -40					; size = 4
tv1213 = -36						; size = 4
tv1208 = -36						; size = 4
tv1202 = -36						; size = 4
tv1184 = -36						; size = 4
tv1182 = -36						; size = 4
tv1158 = -36						; size = 4
$T548848 = -36						; size = 4
$T548723 = -36						; size = 4
_szEncEventType$548749 = -32				; size = 11
__$EHRec$ = -12						; size = 12
_pOwner$ = 8						; size = 4
_iCurCombo$ = 12					; size = 4
?SetNormalAttack@ioSummonChargeItem@@UAEXPAVioBaseChar@@H@Z PROC ; ioSummonChargeItem::SetNormalAttack, COMDAT
; _this$ = ecx

; 143  : {

  00000	6a 38		 push	 56			; 00000038H
  00002	b8 00 00 00 00	 mov	 eax, __ehhandler$?SetNormalAttack@ioSummonChargeItem@@UAEXPAVioBaseChar@@H@Z
  00007	e8 00 00 00 00	 call	 __EH_prolog3_GS
  0000c	8b 7d 08	 mov	 edi, DWORD PTR _pOwner$[ebp]
  0000f	8b f1		 mov	 esi, ecx

; 144  : 	if( !pOwner ) return;

  00011	85 ff		 test	 edi, edi
  00013	0f 84 8f 02 00
	00		 je	 $LN1@SetNormalA

; 145  : 
; 146  : 	m_iCurSummonCnt = 1;

  00019	33 db		 xor	 ebx, ebx
  0001b	8d 45 d8	 lea	 eax, DWORD PTR _value$548687[ebp]
  0001e	43		 inc	 ebx
  0001f	50		 push	 eax
  00020	8d 8e e0 19 00
	00		 lea	 ecx, DWORD PTR [esi+6624]
  00026	89 5d d8	 mov	 DWORD PTR _value$548687[ebp], ebx
  00029	e8 00 00 00 00	 call	 ?EncryptValueToPool@?$CEncrypt@H@@AAEXPBD@Z ; CEncrypt<int>::EncryptValueToPool

; 147  : 
; 148  : 	m_dwKeyReserveTime = 0;
; 149  : 
; 150  : 	m_iSkillInput = -1;
; 151  : 	m_bEnableDefenseState = false;
; 152  : 	m_bEnableAttackState = false;
; 153  : 	m_bEnableJumpState = false;
; 154  : 
; 155  : 	if( m_GatheringEffectID != -1 )

  0002e	8b 86 74 19 00
	00		 mov	 eax, DWORD PTR [esi+6516]
  00034	83 a6 f8 0e 00
	00 00		 and	 DWORD PTR [esi+3832], 0
  0003b	83 8e fc 0e 00
	00 ff		 or	 DWORD PTR [esi+3836], -1
  00042	66 c7 86 00 0f
	00 00 00 00	 mov	 WORD PTR [esi+3840], 0
  0004b	c6 86 02 0f 00
	00 00		 mov	 BYTE PTR [esi+3842], 0
  00052	83 f8 ff	 cmp	 eax, -1
  00055	74 11		 je	 SHORT $LN3@SetNormalA

; 156  : 	{
; 157  : 		pOwner->EndEffect( m_GatheringEffectID, false );

  00057	6a 00		 push	 0
  00059	50		 push	 eax
  0005a	8b cf		 mov	 ecx, edi
  0005c	e8 00 00 00 00	 call	 ?EndEffect@ioBaseChar@@QAEXK_N@Z ; ioBaseChar::EndEffect

; 158  : 		m_GatheringEffectID = -1;

  00061	83 8e 74 19 00
	00 ff		 or	 DWORD PTR [esi+6516], -1
$LN3@SetNormalA:

; 159  : 	}
; 160  : 
; 161  : 	if( m_vSummonAttackInfoList.empty() )

  00068	8b 8e a0 19 00
	00		 mov	 ecx, DWORD PTR [esi+6560]
  0006e	3b 8e a4 19 00
	00		 cmp	 ecx, DWORD PTR [esi+6564]
  00074	75 2c		 jne	 SHORT $LN2@SetNormalA

; 162  : 	{
; 163  : 		ioWeaponItem::SetNormalAttack( pOwner, iCurCombo );

  00076	8b 5d 0c	 mov	 ebx, DWORD PTR _iCurCombo$[ebp]
  00079	53		 push	 ebx
  0007a	57		 push	 edi
  0007b	8b ce		 mov	 ecx, esi
  0007d	e8 00 00 00 00	 call	 ?SetNormalAttack@ioAttackableItem@@UAEXPAVioBaseChar@@H@Z ; ioAttackableItem::SetNormalAttack

; 164  : 
; 165  : 		m_ChargeState = CS_NONE;

  00082	83 a6 54 19 00
	00 00		 and	 DWORD PTR [esi+6484], 0

; 166  : 		m_iCurCombo = iCurCombo;

  00089	89 9e 5c 19 00
	00		 mov	 DWORD PTR [esi+6492], ebx

; 167  : 
; 168  : 		//pOwner->SetAttackMoveEnable( false );
; 169  : 		pOwner->SetChargingState( false );

  0008f	c6 87 54 20 00
	00 00		 mov	 BYTE PTR [edi+8276], 0

; 170  : 
; 171  : 		m_bSetChargingMoveAni = false;

  00096	c6 86 8c 19 00
	00 00		 mov	 BYTE PTR [esi+6540], 0

; 172  : 	}
; 173  : 	else

  0009d	e9 06 02 00 00	 jmp	 $LN1@SetNormalA
$LN2@SetNormalA:

; 174  : 	{
; 175  : 		ioEntityGroup *pGrp = pOwner->GetGroup();

  000a2	8b 4f 04	 mov	 ecx, DWORD PTR [edi+4]
  000a5	89 4d d4	 mov	 DWORD PTR _pGrp$542430[ebp], ecx

; 176  : 		pGrp->ClearAllLoopAni( FLOAT100, true );

  000a8	b8 64 00 00 00	 mov	 eax, 100		; 00000064H
  000ad	89 45 dc	 mov	 DWORD PTR tv1213[ebp], eax
  000b0	db 45 dc	 fild	 DWORD PTR tv1213[ebp]
  000b3	53		 push	 ebx
  000b4	85 c0		 test	 eax, eax
  000b6	79 06		 jns	 SHORT $LN143@SetNormalA
  000b8	d8 05 00 00 00
	00		 fadd	 DWORD PTR __real@4f800000
$LN143@SetNormalA:
  000be	51		 push	 ecx
  000bf	d9 1c 24	 fstp	 DWORD PTR [esp]
  000c2	ff 15 00 00 00
	00		 call	 DWORD PTR __imp_?ClearAllLoopAni@ioEntityGroup@@QAEXM_N@Z

; 177  : 		pGrp->ClearAllActionAni( FLOAT100, true );

  000c8	b8 64 00 00 00	 mov	 eax, 100		; 00000064H
  000cd	89 45 dc	 mov	 DWORD PTR tv1208[ebp], eax
  000d0	db 45 dc	 fild	 DWORD PTR tv1208[ebp]
  000d3	53		 push	 ebx
  000d4	85 c0		 test	 eax, eax
  000d6	79 06		 jns	 SHORT $LN144@SetNormalA
  000d8	d8 05 00 00 00
	00		 fadd	 DWORD PTR __real@4f800000
$LN144@SetNormalA:
  000de	51		 push	 ecx
  000df	8b 4d d4	 mov	 ecx, DWORD PTR _pGrp$542430[ebp]
  000e2	d9 1c 24	 fstp	 DWORD PTR [esp]
  000e5	ff 15 00 00 00
	00		 call	 DWORD PTR __imp_?ClearAllActionAni@ioEntityGroup@@QAEXM_N@Z

; 178  : 
; 179  : 		int iAniID = pGrp->GetAnimationIdx( m_AttackReadyAni );

  000eb	8b 4d d4	 mov	 ecx, DWORD PTR _pGrp$542430[ebp]
  000ee	8d 86 90 19 00
	00		 lea	 eax, DWORD PTR [esi+6544]
  000f4	50		 push	 eax
  000f5	ff 15 00 00 00
	00		 call	 DWORD PTR __imp_?GetAnimationIdx@ioEntityGroup@@QAEHABVioHashString@@@Z
  000fb	89 45 cc	 mov	 DWORD PTR _iAniID$542433[ebp], eax

; 180  : 		float fTimeRate = (float)m_dwChargeTime / pGrp->GetAnimationFullTime( iAniID );

  000fe	8d 45 d8	 lea	 eax, DWORD PTR _value$548709[ebp]
  00101	50		 push	 eax
  00102	8d 8e b0 18 00
	00		 lea	 ecx, DWORD PTR [esi+6320]
  00108	e8 00 00 00 00	 call	 ?DecryptValueToPool@?$CEncrypt@K@@QAEXPAK@Z ; CEncrypt<unsigned long>::DecryptValueToPool
  0010d	db 45 d8	 fild	 DWORD PTR _value$548709[ebp]
  00110	8b 45 d8	 mov	 eax, DWORD PTR _value$548709[ebp]
  00113	85 c0		 test	 eax, eax
  00115	79 06		 jns	 SHORT $LN145@SetNormalA
  00117	d8 05 00 00 00
	00		 fadd	 DWORD PTR __real@4f800000
$LN145@SetNormalA:
  0011d	ff 75 cc	 push	 DWORD PTR _iAniID$542433[ebp]
  00120	d9 5d d8	 fstp	 DWORD PTR tv1152[ebp]
  00123	8b 4d d4	 mov	 ecx, DWORD PTR _pGrp$542430[ebp]
  00126	ff 15 00 00 00
	00		 call	 DWORD PTR __imp_?GetAnimationFullTime@ioEntityGroup@@QAEMH@Z
  0012c	d8 7d d8	 fdivr	 DWORD PTR tv1152[ebp]
  0012f	d9 5d d8	 fstp	 DWORD PTR _fTimeRate$542434[ebp]

; 181  : 		pGrp->SetActionAni( iAniID, FLOAT100, FLOAT100, FLOAT1, FLOAT1/fTimeRate, 0.0f, 0.0f, true );

  00132	b8 01 00 00 00	 mov	 eax, 1
  00137	8b c8		 mov	 ecx, eax
  00139	b8 01 00 00 00	 mov	 eax, 1
  0013e	8b d0		 mov	 edx, eax
  00140	b8 64 00 00 00	 mov	 eax, 100		; 00000064H
  00145	89 45 dc	 mov	 DWORD PTR $T548723[ebp], eax
  00148	b8 64 00 00 00	 mov	 eax, 100		; 00000064H
  0014d	0f 57 c0	 xorps	 xmm0, xmm0
  00150	53		 push	 ebx
  00151	53		 push	 ebx
  00152	83 ec 18	 sub	 esp, 24			; 00000018H
  00155	89 4d d0	 mov	 DWORD PTR tv1191[ebp], ecx
  00158	db 45 d0	 fild	 DWORD PTR tv1191[ebp]
  0015b	f3 0f 11 44 24
	14		 movss	 DWORD PTR [esp+20], xmm0
  00161	f3 0f 11 44 24
	10		 movss	 DWORD PTR [esp+16], xmm0
  00167	85 c9		 test	 ecx, ecx
  00169	79 06		 jns	 SHORT $LN146@SetNormalA
  0016b	d8 05 00 00 00
	00		 fadd	 DWORD PTR __real@4f800000
$LN146@SetNormalA:
  00171	d8 75 d8	 fdiv	 DWORD PTR _fTimeRate$542434[ebp]
  00174	d9 5d d0	 fstp	 DWORD PTR tv1188[ebp]
  00177	d9 45 d0	 fld	 DWORD PTR tv1188[ebp]
  0017a	d9 5c 24 0c	 fstp	 DWORD PTR [esp+12]
  0017e	89 55 d0	 mov	 DWORD PTR tv1186[ebp], edx
  00181	db 45 d0	 fild	 DWORD PTR tv1186[ebp]
  00184	85 d2		 test	 edx, edx
  00186	79 06		 jns	 SHORT $LN147@SetNormalA
  00188	d8 05 00 00 00
	00		 fadd	 DWORD PTR __real@4f800000
$LN147@SetNormalA:
  0018e	8b 4d dc	 mov	 ecx, DWORD PTR $T548723[ebp]
  00191	d9 5c 24 08	 fstp	 DWORD PTR [esp+8]
  00195	db 45 dc	 fild	 DWORD PTR $T548723[ebp]
  00198	85 c9		 test	 ecx, ecx
  0019a	79 06		 jns	 SHORT $LN148@SetNormalA
  0019c	d8 05 00 00 00
	00		 fadd	 DWORD PTR __real@4f800000
$LN148@SetNormalA:
  001a2	89 45 dc	 mov	 DWORD PTR tv1182[ebp], eax
  001a5	d9 5c 24 04	 fstp	 DWORD PTR [esp+4]
  001a9	db 45 dc	 fild	 DWORD PTR tv1182[ebp]
  001ac	85 c0		 test	 eax, eax
  001ae	79 06		 jns	 SHORT $LN149@SetNormalA
  001b0	d8 05 00 00 00
	00		 fadd	 DWORD PTR __real@4f800000
$LN149@SetNormalA:
  001b6	8b 4d d4	 mov	 ecx, DWORD PTR _pGrp$542430[ebp]
  001b9	d9 1c 24	 fstp	 DWORD PTR [esp]
  001bc	ff 75 cc	 push	 DWORD PTR _iAniID$542433[ebp]
  001bf	ff 15 00 00 00
	00		 call	 DWORD PTR __imp_?SetActionAni@ioEntityGroup@@QAE_NHMMMMMM_N0@Z

; 182  : 
; 183  : 		m_ChargeState = CS_CHARGING;

  001c5	89 9e 54 19 00
	00		 mov	 DWORD PTR [esi+6484], ebx

; 184  : 		m_dwAttackStartTime = FRAMEGETTIME();

  001cb	ff 15 00 00 00
	00		 call	 DWORD PTR __imp_?GetSingleton@ioFrameTimer@@SAAAV1@XZ
  001d1	8b c8		 mov	 ecx, eax
  001d3	ff 15 00 00 00
	00		 call	 DWORD PTR __imp_?GetLoopSec@ioFrameTimer@@QBEKXZ
  001d9	89 86 58 19 00
	00		 mov	 DWORD PTR [esi+6488], eax

; 185  : 		m_iCurCombo = iCurCombo;

  001df	8b 45 0c	 mov	 eax, DWORD PTR _iCurCombo$[ebp]

; 186  : 		pOwner->SetState( CS_ATTACK );

  001e2	53		 push	 ebx
  001e3	6a 05		 push	 5
  001e5	8b cf		 mov	 ecx, edi
  001e7	89 86 5c 19 00
	00		 mov	 DWORD PTR [esi+6492], eax
  001ed	e8 00 00 00 00	 call	 ?SetState@ioBaseChar@@QAEXH_N@Z ; ioBaseChar::SetState

; 187  : 		//pOwner->SetAttackMoveEnable( false );
; 188  : 		pOwner->SetChargingState( true );

  001f2	88 9f 54 20 00
	00		 mov	 BYTE PTR [edi+8276], bl

; 189  : 
; 190  : 		DWORD dwTrackingTime = FRAMEGETTIME();

  001f8	ff 15 00 00 00
	00		 call	 DWORD PTR __imp_?GetSingleton@ioFrameTimer@@SAAAV1@XZ
  001fe	8b c8		 mov	 ecx, eax
  00200	ff 15 00 00 00
	00		 call	 DWORD PTR __imp_?GetLoopSec@ioFrameTimer@@QBEKXZ
  00206	6a 02		 push	 2
  00208	8b f0		 mov	 esi, eax

; 191  : 		dwTrackingTime += pGrp->GetAnimationEventTime_e( iAniID, "tracking_e" ) * fTimeRate;

  0020a	c7 45 e0 99 9e
	8a 89		 mov	 DWORD PTR _szEncEventType$548749[ebp], -1987404135 ; 898a9e99H
  00211	c7 45 e4 86 85
	85 8d		 mov	 DWORD PTR _szEncEventType$548749[ebp+4], -1920629370 ; 8d858586H
  00218	66 c7 45 e8 b2
	89		 mov	 WORD PTR _szEncEventType$548749[ebp+8], 35250 ; 000089b2H
  0021e	8d 45 e0	 lea	 eax, DWORD PTR _szEncEventType$548749[ebp]
  00221	c6 45 ea 00	 mov	 BYTE PTR _szEncEventType$548749[ebp+10], 0
  00225	59		 pop	 ecx
$LL135@SetNormalA:
  00226	81 30 ed ec eb
	ea		 xor	 DWORD PTR [eax], -353637139 ; eaebecedH
  0022c	83 c0 04	 add	 eax, 4
  0022f	49		 dec	 ecx
  00230	75 f4		 jne	 SHORT $LL135@SetNormalA
  00232	6a 08		 push	 8
  00234	58		 pop	 eax
$LL132@SetNormalA:
  00235	8b c8		 mov	 ecx, eax
  00237	81 e1 03 00 00
	80		 and	 ecx, -2147483645	; 80000003H
  0023d	79 05		 jns	 SHORT $LN150@SetNormalA
  0023f	49		 dec	 ecx
  00240	83 c9 fc	 or	 ecx, -4			; fffffffcH
  00243	41		 inc	 ecx
$LN150@SetNormalA:
  00244	b2 ed		 mov	 dl, -19			; ffffffedH
  00246	2a d1		 sub	 dl, cl
  00248	30 54 05 e0	 xor	 BYTE PTR _szEncEventType$548749[ebp+eax], dl
  0024c	40		 inc	 eax
  0024d	83 f8 0a	 cmp	 eax, 10			; 0000000aH
  00250	7c e3		 jl	 SHORT $LL132@SetNormalA
  00252	8d 45 e0	 lea	 eax, DWORD PTR _szEncEventType$548749[ebp]
  00255	50		 push	 eax
  00256	8d 4d bc	 lea	 ecx, DWORD PTR $T548849[ebp]
  00259	ff 15 00 00 00
	00		 call	 DWORD PTR __imp_??0ioHashString@@QAE@PBD@Z
  0025f	8b 4d d4	 mov	 ecx, DWORD PTR _pGrp$542430[ebp]
  00262	83 65 fc 00	 and	 DWORD PTR __$EHRec$[ebp+8], 0
  00266	8d 45 bc	 lea	 eax, DWORD PTR $T548849[ebp]
  00269	50		 push	 eax
  0026a	ff 75 cc	 push	 DWORD PTR _iAniID$542433[ebp]
  0026d	ff 15 00 00 00
	00		 call	 DWORD PTR __imp_?GetAnimationEventTime@ioEntityGroup@@QAEMHABVioHashString@@@Z
  00273	d9 5d dc	 fstp	 DWORD PTR $T548848[ebp]
  00276	83 4d fc ff	 or	 DWORD PTR __$EHRec$[ebp+8], -1
  0027a	8d 4d bc	 lea	 ecx, DWORD PTR $T548849[ebp]
  0027d	ff 15 00 00 00
	00		 call	 DWORD PTR __imp_??1ioHashString@@QAE@XZ

; 192  : 		pOwner->SetAutoTargetTrackingEndTime( dwTrackingTime );

  00283	d9 45 dc	 fld	 DWORD PTR $T548848[ebp]
  00286	d8 4d d8	 fmul	 DWORD PTR _fTimeRate$542434[ebp]
  00289	89 75 dc	 mov	 DWORD PTR tv1158[ebp], esi
  0028c	db 45 dc	 fild	 DWORD PTR tv1158[ebp]
  0028f	85 f6		 test	 esi, esi
  00291	79 06		 jns	 SHORT $LN151@SetNormalA
  00293	dc 05 00 00 00
	00		 fadd	 QWORD PTR __real@41f0000000000000
$LN151@SetNormalA:

; 191  : 		dwTrackingTime += pGrp->GetAnimationEventTime_e( iAniID, "tracking_e" ) * fTimeRate;

  00299	de c1		 faddp	 ST(1), ST(0)

; 192  : 		pOwner->SetAutoTargetTrackingEndTime( dwTrackingTime );

  0029b	e8 00 00 00 00	 call	 __ftol2
  002a0	50		 push	 eax
  002a1	8b cf		 mov	 ecx, edi
  002a3	e8 00 00 00 00	 call	 ?SetAutoTargetTrackingEndTime@ioBaseChar@@QAEXK@Z ; ioBaseChar::SetAutoTargetTrackingEndTime
$LN1@SetNormalA:

; 193  : 	}
; 194  : }

  002a8	e8 00 00 00 00	 call	 __EH_epilog3_GS
  002ad	c2 08 00	 ret	 8
_TEXT	ENDS
;	COMDAT text$x
text$x	SEGMENT
__unwindfunclet$?SetNormalAttack@ioSummonChargeItem@@UAEXPAVioBaseChar@@H@Z$0:
  00000	8d 4d bc	 lea	 ecx, DWORD PTR $T548849[ebp]
  00003	ff 25 00 00 00
	00		 jmp	 DWORD PTR __imp_??1ioHashString@@QAE@XZ
__ehhandler$?SetNormalAttack@ioSummonChargeItem@@UAEXPAVioBaseChar@@H@Z:
  00009	8b 54 24 08	 mov	 edx, DWORD PTR [esp+8]
  0000d	8d 42 0c	 lea	 eax, DWORD PTR [edx+12]
  00010	8b 4a b8	 mov	 ecx, DWORD PTR [edx-72]
  00013	33 c8		 xor	 ecx, eax
  00015	e8 00 00 00 00	 call	 @__security_check_cookie@4
  0001a	8b 4a fc	 mov	 ecx, DWORD PTR [edx-4]
  0001d	33 c8		 xor	 ecx, eax
  0001f	e8 00 00 00 00	 call	 @__security_check_cookie@4
  00024	b8 00 00 00 00	 mov	 eax, OFFSET __ehfuncinfo$?SetNormalAttack@ioSummonChargeItem@@UAEXPAVioBaseChar@@H@Z
  00029	e9 00 00 00 00	 jmp	 ___CxxFrameHandler3
text$x	ENDS
?SetNormalAttack@ioSummonChargeItem@@UAEXPAVioBaseChar@@H@Z ENDP ; ioSummonChargeItem::SetNormalAttack
PUBLIC	__real@3f800000
PUBLIC	__$ArrayPad$
PUBLIC	?ChangeToAttackFire@ioSummonChargeItem@@IAEXPAVioBaseChar@@_N@Z ; ioSummonChargeItem::ChangeToAttackFire
EXTRN	??1SP2Packet@@UAE@XZ:PROC			; SP2Packet::~SP2Packet
EXTRN	?SendToAllPlayingUser@P2PNetwork@@YAXAAVSP2Packet@@PAVioBaseChar@@@Z:PROC ; P2PNetwork::SendToAllPlayingUser
EXTRN	??6SP2Packet@@QAEAAV0@_N@Z:PROC			; SP2Packet::operator<<
EXTRN	??6SP2Packet@@QAEAAV0@AAV?$CEncrypt@H@@@Z:PROC	; SP2Packet::operator<<
EXTRN	??6SP2Packet@@QAEAAV0@H@Z:PROC			; SP2Packet::operator<<
EXTRN	?FillItemGaugePacketHeader@ioAttackableItem@@QAEXPAVioBaseChar@@AAVSP2Packet@@@Z:PROC ; ioAttackableItem::FillItemGaugePacketHeader
EXTRN	??0SP2Packet@@QAE@K@Z:PROC			; SP2Packet::SP2Packet
EXTRN	?ApplyNormalAttackResult@ioBaseChar@@QAEXH_N@Z:PROC ; ioBaseChar::ApplyNormalAttackResult
EXTRN	?GetAttribute@ioFormalAttackGrp@@QBEPBUAttackAttribute@@W4AttackType@@H@Z:PROC ; ioFormalAttackGrp::GetAttribute
EXTRN	?SetNormalAttackByAttribute@ioBaseChar@@QAEKABUAttackAttribute@@_NMM@Z:PROC ; ioBaseChar::SetNormalAttackByAttribute
EXTRN	?SetAutoTarget@ioBaseChar@@QAEXW4AutoTargetType@@@Z:PROC ; ioBaseChar::SetAutoTarget
EXTRN	__chkstk:PROC
;	COMDAT __real@3f800000
; File c:\program files (x86)\microsoft visual studio 10.0\vc\include\vector
CONST	SEGMENT
__real@3f800000 DD 03f800000r			; 1
CONST	ENDS
;	COMDAT xdata$x
xdata$x	SEGMENT
__unwindtable$?ChangeToAttackFire@ioSummonChargeItem@@IAEXPAVioBaseChar@@_N@Z DD 0ffffffffH
	DD	FLAT:__unwindfunclet$?ChangeToAttackFire@ioSummonChargeItem@@IAEXPAVioBaseChar@@_N@Z$0
__ehfuncinfo$?ChangeToAttackFire@ioSummonChargeItem@@IAEXPAVioBaseChar@@_N@Z DD 019930522H
	DD	01H
	DD	FLAT:__unwindtable$?ChangeToAttackFire@ioSummonChargeItem@@IAEXPAVioBaseChar@@_N@Z
	DD	2 DUP(00H)
	DD	2 DUP(00H)
	DD	00H
	DD	01H
; Function compile flags: /Ogsp
; File d:\lost saga for developer\youtube\tutorial\source\src\lsclient\iosummonchargeitem.cpp
xdata$x	ENDS
;	COMDAT ?ChangeToAttackFire@ioSummonChargeItem@@IAEXPAVioBaseChar@@_N@Z
_TEXT	SEGMENT
_value$548903 = -32820					; size = 4
tv297 = -32816						; size = 4
_fCurChargeAniRate$542521 = -32816			; size = 4
tv293 = -32812						; size = 4
_fCurForceSlidingRate$542523 = -32812			; size = 4
_kPacket$542533 = -32808				; size = 32792
__$ArrayPad$ = -16					; size = 4
__$EHRec$ = -12						; size = 12
_pOwner$ = 8						; size = 4
_bCharged$ = 12						; size = 1
?ChangeToAttackFire@ioSummonChargeItem@@IAEXPAVioBaseChar@@_N@Z PROC ; ioSummonChargeItem::ChangeToAttackFire, COMDAT
; _this$ = ecx

; 364  : {

  00000	55		 push	 ebp
  00001	8b ec		 mov	 ebp, esp
  00003	6a ff		 push	 -1
  00005	68 00 00 00 00	 push	 __ehhandler$?ChangeToAttackFire@ioSummonChargeItem@@IAEXPAVioBaseChar@@_N@Z
  0000a	64 a1 00 00 00
	00		 mov	 eax, DWORD PTR fs:0
  00010	50		 push	 eax
  00011	b8 28 80 00 00	 mov	 eax, 32808		; 00008028H
  00016	e8 00 00 00 00	 call	 __chkstk
  0001b	a1 00 00 00 00	 mov	 eax, DWORD PTR ___security_cookie
  00020	33 c5		 xor	 eax, ebp
  00022	89 45 f0	 mov	 DWORD PTR __$ArrayPad$[ebp], eax
  00025	53		 push	 ebx
  00026	56		 push	 esi
  00027	57		 push	 edi
  00028	50		 push	 eax
  00029	8d 45 f4	 lea	 eax, DWORD PTR __$EHRec$[ebp]
  0002c	64 a3 00 00 00
	00		 mov	 DWORD PTR fs:0, eax
  00032	8b 5d 08	 mov	 ebx, DWORD PTR _pOwner$[ebp]
  00035	8b f1		 mov	 esi, ecx

; 365  : 	DWORD dwCurTime = FRAMEGETTIME();

  00037	ff 15 00 00 00
	00		 call	 DWORD PTR __imp_?GetSingleton@ioFrameTimer@@SAAAV1@XZ
  0003d	8b c8		 mov	 ecx, eax
  0003f	ff 15 00 00 00
	00		 call	 DWORD PTR __imp_?GetLoopSec@ioFrameTimer@@QBEKXZ

; 366  : 
; 367  : 	//
; 368  : 	//pOwner->SetAttackMoveEnable( false );
; 369  : 	pOwner->SetChargingState( false );

  00045	c6 83 54 20 00
	00 00		 mov	 BYTE PTR [ebx+8276], 0

; 370  : 	m_bSetChargingMoveAni = false;
; 371  : 
; 372  : 	if( m_GatheringEffectID != -1 )

  0004c	8b 86 74 19 00
	00		 mov	 eax, DWORD PTR [esi+6516]
  00052	c6 86 8c 19 00
	00 00		 mov	 BYTE PTR [esi+6540], 0
  00059	83 f8 ff	 cmp	 eax, -1
  0005c	74 11		 je	 SHORT $LN6@ChangeToAt

; 373  : 	{
; 374  : 		pOwner->EndEffect( m_GatheringEffectID, false );

  0005e	6a 00		 push	 0
  00060	50		 push	 eax
  00061	8b cb		 mov	 ecx, ebx
  00063	e8 00 00 00 00	 call	 ?EndEffect@ioBaseChar@@QAEXK_N@Z ; ioBaseChar::EndEffect

; 375  : 		m_GatheringEffectID = -1;

  00068	83 8e 74 19 00
	00 ff		 or	 DWORD PTR [esi+6516], -1
$LN6@ChangeToAt:

; 376  : 	}
; 377  : 	//
; 378  : 
; 379  : 	if( bCharged )

  0006f	80 7d 0c 00	 cmp	 BYTE PTR _bCharged$[ebp], 0
  00073	0f 84 b4 00 00
	00		 je	 $LN5@ChangeToAt

; 380  : 	{
; 381  : 		float fCurChargeAniRate = FLOAT1;

  00079	b8 01 00 00 00	 mov	 eax, 1
  0007e	89 85 d0 7f ff
	ff		 mov	 DWORD PTR tv297[ebp], eax
  00084	db 85 d0 7f ff
	ff		 fild	 DWORD PTR tv297[ebp]
  0008a	85 c0		 test	 eax, eax
  0008c	79 06		 jns	 SHORT $LN24@ChangeToAt
  0008e	d8 05 00 00 00
	00		 fadd	 DWORD PTR __real@4f800000
$LN24@ChangeToAt:
  00094	d9 9d d0 7f ff
	ff		 fstp	 DWORD PTR _fCurChargeAniRate$542521[ebp]

; 382  : 		float fCurForceSlidingRate = FLOAT1;

  0009a	b8 01 00 00 00	 mov	 eax, 1
  0009f	89 85 d4 7f ff
	ff		 mov	 DWORD PTR tv293[ebp], eax
  000a5	db 85 d4 7f ff
	ff		 fild	 DWORD PTR tv293[ebp]
  000ab	85 c0		 test	 eax, eax
  000ad	79 06		 jns	 SHORT $LN25@ChangeToAt
  000af	d8 05 00 00 00
	00		 fadd	 DWORD PTR __real@4f800000
$LN25@ChangeToAt:

; 383  : 
; 384  : 		int iIndex = m_iCurSummonCnt - 1;

  000b5	8d 85 cc 7f ff
	ff		 lea	 eax, DWORD PTR _value$548903[ebp]
  000bb	d9 9d d4 7f ff
	ff		 fstp	 DWORD PTR _fCurForceSlidingRate$542523[ebp]
  000c1	50		 push	 eax
  000c2	8d 8e e0 19 00
	00		 lea	 ecx, DWORD PTR [esi+6624]
  000c8	e8 00 00 00 00	 call	 ?DecryptValueToPool@?$CEncrypt@H@@QAEXPAH@Z ; CEncrypt<int>::DecryptValueToPool
  000cd	8b bd cc 7f ff
	ff		 mov	 edi, DWORD PTR _value$548903[ebp]
  000d3	4f		 dec	 edi

; 385  : 		if( COMPARE( iIndex, 0, (int)m_vSummonAttackInfoList.size() ) )

  000d4	78 53		 js	 SHORT $LN4@ChangeToAt
  000d6	8b 86 a4 19 00
	00		 mov	 eax, DWORD PTR [esi+6564]
  000dc	2b 86 a0 19 00
	00		 sub	 eax, DWORD PTR [esi+6560]
  000e2	6a 74		 push	 116			; 00000074H
  000e4	99		 cdq
  000e5	59		 pop	 ecx
  000e6	f7 f9		 idiv	 ecx
  000e8	3b f8		 cmp	 edi, eax
  000ea	7d 3d		 jge	 SHORT $LN4@ChangeToAt

; 386  : 		{
; 387  : 			pOwner->SetAutoTarget( ATT_NORMAL );

  000ec	6a 00		 push	 0
  000ee	8b cb		 mov	 ecx, ebx
  000f0	e8 00 00 00 00	 call	 ?SetAutoTarget@ioBaseChar@@QAEXW4AutoTargetType@@@Z ; ioBaseChar::SetAutoTarget

; 388  : 			pOwner->SetNormalAttackByAttribute( m_vSummonAttackInfoList[iIndex].m_SummonAttribute, true, fCurChargeAniRate, fCurForceSlidingRate );

  000f5	6b ff 74	 imul	 edi, 116		; 00000074H
  000f8	f3 0f 10 85 d4
	7f ff ff	 movss	 xmm0, DWORD PTR _fCurForceSlidingRate$542523[ebp]
  00100	8b 86 a0 19 00
	00		 mov	 eax, DWORD PTR [esi+6560]
  00106	51		 push	 ecx
  00107	51		 push	 ecx
  00108	f3 0f 11 44 24
	04		 movss	 DWORD PTR [esp+4], xmm0
  0010e	f3 0f 10 85 d0
	7f ff ff	 movss	 xmm0, DWORD PTR _fCurChargeAniRate$542521[ebp]
  00116	f3 0f 11 04 24	 movss	 DWORD PTR [esp], xmm0
  0011b	6a 01		 push	 1
  0011d	8d 44 07 24	 lea	 eax, DWORD PTR [edi+eax+36]
  00121	50		 push	 eax
  00122	8b cb		 mov	 ecx, ebx
  00124	e8 00 00 00 00	 call	 ?SetNormalAttackByAttribute@ioBaseChar@@QAEKABUAttackAttribute@@_NMM@Z ; ioBaseChar::SetNormalAttackByAttribute
$LN4@ChangeToAt:

; 389  : 		}
; 390  : 
; 391  : 		pOwner->ApplyNormalAttackResult( m_iCurCombo, true );

  00129	6a 01		 push	 1

; 392  : 	}
; 393  : 	else

  0012b	eb 38		 jmp	 SHORT $LN26@ChangeToAt
$LN5@ChangeToAt:

; 394  : 	{
; 395  : 		const AttackAttribute *pAttribute = m_FormalAttack.GetAttribute( AT_NORMAL, m_iCurCombo );

  0012d	ff b6 5c 19 00
	00		 push	 DWORD PTR [esi+6492]
  00133	8d 8e 2c 06 00
	00		 lea	 ecx, DWORD PTR [esi+1580]
  00139	6a 00		 push	 0
  0013b	e8 00 00 00 00	 call	 ?GetAttribute@ioFormalAttackGrp@@QBEPBUAttackAttribute@@W4AttackType@@H@Z ; ioFormalAttackGrp::GetAttribute

; 396  : 		if( pAttribute )

  00140	85 c0		 test	 eax, eax
  00142	74 1f		 je	 SHORT $LN2@ChangeToAt

; 397  : 		{
; 398  : 			pOwner->SetNormalAttackByAttribute( *pAttribute );

  00144	f3 0f 10 05 00
	00 00 00	 movss	 xmm0, DWORD PTR __real@3f800000
  0014c	51		 push	 ecx
  0014d	51		 push	 ecx
  0014e	f3 0f 11 44 24
	04		 movss	 DWORD PTR [esp+4], xmm0
  00154	f3 0f 11 04 24	 movss	 DWORD PTR [esp], xmm0
  00159	6a 01		 push	 1
  0015b	50		 push	 eax
  0015c	8b cb		 mov	 ecx, ebx
  0015e	e8 00 00 00 00	 call	 ?SetNormalAttackByAttribute@ioBaseChar@@QAEKABUAttackAttribute@@_NMM@Z ; ioBaseChar::SetNormalAttackByAttribute
$LN2@ChangeToAt:

; 399  : 		}
; 400  : 
; 401  : 		pOwner->ApplyNormalAttackResult( m_iCurCombo );

  00163	6a 00		 push	 0
$LN26@ChangeToAt:
  00165	ff b6 5c 19 00
	00		 push	 DWORD PTR [esi+6492]
  0016b	8b cb		 mov	 ecx, ebx
  0016d	e8 00 00 00 00	 call	 ?ApplyNormalAttackResult@ioBaseChar@@QAEXH_N@Z ; ioBaseChar::ApplyNormalAttackResult

; 402  : 	}
; 403  : 
; 404  : 	m_ChargeState = CS_ATTACK_FIRE;

  00172	c7 86 54 19 00
	00 03 00 00 00	 mov	 DWORD PTR [esi+6484], 3

; 405  : 
; 406  : 	if( pOwner->IsNeedSendNetwork() )

  0017c	8b 03		 mov	 eax, DWORD PTR [ebx]
  0017e	8b cb		 mov	 ecx, ebx
  00180	ff 90 04 01 00
	00		 call	 DWORD PTR [eax+260]
  00186	84 c0		 test	 al, al
  00188	0f 84 84 00 00
	00		 je	 $LN1@ChangeToAt

; 407  : 	{
; 408  : 		SP2Packet kPacket( CUPK_ITEM_GAUGE_OK );

  0018e	68 27 41 00 00	 push	 16679			; 00004127H
  00193	8d 8d d8 7f ff
	ff		 lea	 ecx, DWORD PTR _kPacket$542533[ebp]
  00199	e8 00 00 00 00	 call	 ??0SP2Packet@@QAE@K@Z	; SP2Packet::SP2Packet
  0019e	83 65 fc 00	 and	 DWORD PTR __$EHRec$[ebp+8], 0

; 409  : 		FillItemGaugePacketHeader( pOwner, kPacket );

  001a2	8d 85 d8 7f ff
	ff		 lea	 eax, DWORD PTR _kPacket$542533[ebp]
  001a8	50		 push	 eax
  001a9	53		 push	 ebx
  001aa	8b ce		 mov	 ecx, esi
  001ac	e8 00 00 00 00	 call	 ?FillItemGaugePacketHeader@ioAttackableItem@@QAEXPAVioBaseChar@@AAVSP2Packet@@@Z ; ioAttackableItem::FillItemGaugePacketHeader

; 410  : 		kPacket << m_ChargeState;

  001b1	ff b6 54 19 00
	00		 push	 DWORD PTR [esi+6484]
  001b7	8d 8d d8 7f ff
	ff		 lea	 ecx, DWORD PTR _kPacket$542533[ebp]
  001bd	e8 00 00 00 00	 call	 ??6SP2Packet@@QAEAAV0@H@Z ; SP2Packet::operator<<

; 411  : 		kPacket << m_iCurCombo;

  001c2	ff b6 5c 19 00
	00		 push	 DWORD PTR [esi+6492]
  001c8	8d 8d d8 7f ff
	ff		 lea	 ecx, DWORD PTR _kPacket$542533[ebp]
  001ce	e8 00 00 00 00	 call	 ??6SP2Packet@@QAEAAV0@H@Z ; SP2Packet::operator<<

; 412  : 		kPacket << m_iCurSummonCnt;

  001d3	81 c6 e0 19 00
	00		 add	 esi, 6624		; 000019e0H
  001d9	56		 push	 esi
  001da	8d 8d d8 7f ff
	ff		 lea	 ecx, DWORD PTR _kPacket$542533[ebp]
  001e0	e8 00 00 00 00	 call	 ??6SP2Packet@@QAEAAV0@AAV?$CEncrypt@H@@@Z ; SP2Packet::operator<<

; 413  : 		kPacket << bCharged;

  001e5	ff 75 0c	 push	 DWORD PTR _bCharged$[ebp]
  001e8	8d 8d d8 7f ff
	ff		 lea	 ecx, DWORD PTR _kPacket$542533[ebp]
  001ee	e8 00 00 00 00	 call	 ??6SP2Packet@@QAEAAV0@_N@Z ; SP2Packet::operator<<

; 414  : 		P2PNetwork::SendToAllPlayingUser( kPacket );

  001f3	8d 85 d8 7f ff
	ff		 lea	 eax, DWORD PTR _kPacket$542533[ebp]
  001f9	6a 00		 push	 0
  001fb	50		 push	 eax
  001fc	e8 00 00 00 00	 call	 ?SendToAllPlayingUser@P2PNetwork@@YAXAAVSP2Packet@@PAVioBaseChar@@@Z ; P2PNetwork::SendToAllPlayingUser

; 415  : 	}

  00201	83 4d fc ff	 or	 DWORD PTR __$EHRec$[ebp+8], -1
  00205	59		 pop	 ecx
  00206	59		 pop	 ecx
  00207	8d 8d d8 7f ff
	ff		 lea	 ecx, DWORD PTR _kPacket$542533[ebp]
  0020d	e8 00 00 00 00	 call	 ??1SP2Packet@@UAE@XZ	; SP2Packet::~SP2Packet
$LN1@ChangeToAt:

; 416  : }

  00212	8b 4d f4	 mov	 ecx, DWORD PTR __$EHRec$[ebp]
  00215	64 89 0d 00 00
	00 00		 mov	 DWORD PTR fs:0, ecx
  0021c	59		 pop	 ecx
  0021d	5f		 pop	 edi
  0021e	5e		 pop	 esi
  0021f	5b		 pop	 ebx
  00220	8b 4d f0	 mov	 ecx, DWORD PTR __$ArrayPad$[ebp]
  00223	33 cd		 xor	 ecx, ebp
  00225	e8 00 00 00 00	 call	 @__security_check_cookie@4
  0022a	c9		 leave
  0022b	c2 08 00	 ret	 8
_TEXT	ENDS
;	COMDAT text$x
text$x	SEGMENT
__unwindfunclet$?ChangeToAttackFire@ioSummonChargeItem@@IAEXPAVioBaseChar@@_N@Z$0:
  00000	8d 8d d8 7f ff
	ff		 lea	 ecx, DWORD PTR _kPacket$542533[ebp]
  00006	e9 00 00 00 00	 jmp	 ??1SP2Packet@@UAE@XZ	; SP2Packet::~SP2Packet
__ehhandler$?ChangeToAttackFire@ioSummonChargeItem@@IAEXPAVioBaseChar@@_N@Z:
  0000b	8b 54 24 08	 mov	 edx, DWORD PTR [esp+8]
  0000f	8d 42 0c	 lea	 eax, DWORD PTR [edx+12]
  00012	8b 8a c8 7f ff
	ff		 mov	 ecx, DWORD PTR [edx-32824]
  00018	33 c8		 xor	 ecx, eax
  0001a	e8 00 00 00 00	 call	 @__security_check_cookie@4
  0001f	8b 4a fc	 mov	 ecx, DWORD PTR [edx-4]
  00022	33 c8		 xor	 ecx, eax
  00024	e8 00 00 00 00	 call	 @__security_check_cookie@4
  00029	b8 00 00 00 00	 mov	 eax, OFFSET __ehfuncinfo$?ChangeToAttackFire@ioSummonChargeItem@@IAEXPAVioBaseChar@@_N@Z
  0002e	e9 00 00 00 00	 jmp	 ___CxxFrameHandler3
text$x	ENDS
?ChangeToAttackFire@ioSummonChargeItem@@IAEXPAVioBaseChar@@_N@Z ENDP ; ioSummonChargeItem::ChangeToAttackFire
PUBLIC	?GetCurSummonEffect@ioSummonChargeItem@@IAE?AVioHashString@@XZ ; ioSummonChargeItem::GetCurSummonEffect
EXTRN	__imp_??0ioHashString@@QAE@XZ:PROC
;	COMDAT xdata$x
; File c:\program files (x86)\microsoft visual studio 10.0\vc\include\vector
xdata$x	SEGMENT
__unwindtable$?GetCurSummonEffect@ioSummonChargeItem@@IAE?AVioHashString@@XZ DD 0ffffffffH
	DD	FLAT:__unwindfunclet$?GetCurSummonEffect@ioSummonChargeItem@@IAE?AVioHashString@@XZ$1
	DD	00H
	DD	FLAT:__unwindfunclet$?GetCurSummonEffect@ioSummonChargeItem@@IAE?AVioHashString@@XZ$0
__ehfuncinfo$?GetCurSummonEffect@ioSummonChargeItem@@IAE?AVioHashString@@XZ DD 019930522H
	DD	02H
	DD	FLAT:__unwindtable$?GetCurSummonEffect@ioSummonChargeItem@@IAE?AVioHashString@@XZ
	DD	2 DUP(00H)
	DD	2 DUP(00H)
	DD	00H
	DD	01H
; Function compile flags: /Ogsp
; File d:\lost saga for developer\youtube\tutorial\source\src\lsclient\iosummonchargeitem.cpp
xdata$x	ENDS
;	COMDAT ?GetCurSummonEffect@ioSummonChargeItem@@IAE?AVioHashString@@XZ
_TEXT	SEGMENT
_szName$ = -36						; size = 16
_value$548940 = -20					; size = 4
$T548931 = -16						; size = 4
__$EHRec$ = -12						; size = 12
___$ReturnUdt$ = 8					; size = 4
?GetCurSummonEffect@ioSummonChargeItem@@IAE?AVioHashString@@XZ PROC ; ioSummonChargeItem::GetCurSummonEffect, COMDAT
; _this$ = ecx

; 652  : {

  00000	6a 18		 push	 24			; 00000018H
  00002	b8 00 00 00 00	 mov	 eax, __ehhandler$?GetCurSummonEffect@ioSummonChargeItem@@IAE?AVioHashString@@XZ
  00007	e8 00 00 00 00	 call	 __EH_prolog3
  0000c	8b f1		 mov	 esi, ecx
  0000e	83 65 f0 00	 and	 DWORD PTR $T548931[ebp], 0

; 653  : 	ioHashString szName;

  00012	8d 4d dc	 lea	 ecx, DWORD PTR _szName$[ebp]
  00015	ff 15 00 00 00
	00		 call	 DWORD PTR __imp_??0ioHashString@@QAE@XZ

; 654  : 
; 655  : 	if( m_vSummonAttackInfoList.empty() )

  0001b	8b 86 a0 19 00
	00		 mov	 eax, DWORD PTR [esi+6560]
  00021	33 db		 xor	 ebx, ebx
  00023	43		 inc	 ebx
  00024	89 5d fc	 mov	 DWORD PTR __$EHRec$[ebp+8], ebx
  00027	3b 86 a4 19 00
	00		 cmp	 eax, DWORD PTR [esi+6564]
  0002d	75 0f		 jne	 SHORT $LN2@GetCurSumm

; 656  : 		return szName;

  0002f	8b 4d 08	 mov	 ecx, DWORD PTR ___$ReturnUdt$[ebp]
  00032	8d 45 dc	 lea	 eax, DWORD PTR _szName$[ebp]
  00035	50		 push	 eax
  00036	ff 15 00 00 00
	00		 call	 DWORD PTR __imp_??0ioHashString@@QAE@ABV0@@Z
  0003c	eb 4b		 jmp	 SHORT $LN17@GetCurSumm
$LN2@GetCurSumm:

; 657  : 
; 658  : 	int iIndex = m_iCurSummonCnt - 1;

  0003e	8d 45 ec	 lea	 eax, DWORD PTR _value$548940[ebp]
  00041	50		 push	 eax
  00042	8d 8e e0 19 00
	00		 lea	 ecx, DWORD PTR [esi+6624]
  00048	e8 00 00 00 00	 call	 ?DecryptValueToPool@?$CEncrypt@H@@QAEXPAH@Z ; CEncrypt<int>::DecryptValueToPool
  0004d	8b 4d ec	 mov	 ecx, DWORD PTR _value$548940[ebp]
  00050	49		 dec	 ecx

; 659  : 	if( COMPARE( iIndex, 0, (int)m_vSummonAttackInfoList.size() ) )

  00051	78 29		 js	 SHORT $LN1@GetCurSumm
  00053	8b be a0 19 00
	00		 mov	 edi, DWORD PTR [esi+6560]
  00059	8b 86 a4 19 00
	00		 mov	 eax, DWORD PTR [esi+6564]
  0005f	2b c7		 sub	 eax, edi
  00061	6a 74		 push	 116			; 00000074H
  00063	99		 cdq
  00064	5e		 pop	 esi
  00065	f7 fe		 idiv	 esi
  00067	3b c8		 cmp	 ecx, eax
  00069	7d 11		 jge	 SHORT $LN1@GetCurSumm

; 660  : 		szName = m_vSummonAttackInfoList[iIndex].m_SummonEffect;

  0006b	6b c9 74	 imul	 ecx, 116		; 00000074H
  0006e	8d 44 39 04	 lea	 eax, DWORD PTR [ecx+edi+4]
  00072	50		 push	 eax
  00073	8d 4d dc	 lea	 ecx, DWORD PTR _szName$[ebp]
  00076	ff 15 00 00 00
	00		 call	 DWORD PTR __imp_??4ioHashString@@QAEAAV0@ABV0@@Z
$LN1@GetCurSumm:

; 661  : 
; 662  : 	return szName;

  0007c	8b 4d 08	 mov	 ecx, DWORD PTR ___$ReturnUdt$[ebp]
  0007f	8d 45 dc	 lea	 eax, DWORD PTR _szName$[ebp]
  00082	50		 push	 eax
  00083	ff 15 00 00 00
	00		 call	 DWORD PTR __imp_??0ioHashString@@QAE@ABV0@@Z
$LN17@GetCurSumm:
  00089	8d 4d dc	 lea	 ecx, DWORD PTR _szName$[ebp]
  0008c	89 5d f0	 mov	 DWORD PTR $T548931[ebp], ebx
  0008f	c6 45 fc 00	 mov	 BYTE PTR __$EHRec$[ebp+8], 0
  00093	ff 15 00 00 00
	00		 call	 DWORD PTR __imp_??1ioHashString@@QAE@XZ
  00099	8b 45 08	 mov	 eax, DWORD PTR ___$ReturnUdt$[ebp]

; 663  : }

  0009c	e8 00 00 00 00	 call	 __EH_epilog3
  000a1	c2 04 00	 ret	 4
_TEXT	ENDS
;	COMDAT text$x
text$x	SEGMENT
__unwindfunclet$?GetCurSummonEffect@ioSummonChargeItem@@IAE?AVioHashString@@XZ$0:
  00000	8d 4d dc	 lea	 ecx, DWORD PTR _szName$[ebp]
  00003	ff 25 00 00 00
	00		 jmp	 DWORD PTR __imp_??1ioHashString@@QAE@XZ
__unwindfunclet$?GetCurSummonEffect@ioSummonChargeItem@@IAE?AVioHashString@@XZ$1:
  00009	8b 45 f0	 mov	 eax, DWORD PTR $T548931[ebp]
  0000c	83 e0 01	 and	 eax, 1
  0000f	0f 84 0d 00 00
	00		 je	 $LN7@GetCurSumm
  00015	83 65 f0 fe	 and	 DWORD PTR $T548931[ebp], -2 ; fffffffeH
  00019	8b 4d 08	 mov	 ecx, DWORD PTR ___$ReturnUdt$[ebp]
  0001c	ff 25 00 00 00
	00		 jmp	 DWORD PTR __imp_??1ioHashString@@QAE@XZ
$LN7@GetCurSumm:
  00022	c3		 ret	 0
__ehhandler$?GetCurSummonEffect@ioSummonChargeItem@@IAE?AVioHashString@@XZ:
  00023	8b 54 24 08	 mov	 edx, DWORD PTR [esp+8]
  00027	8d 42 0c	 lea	 eax, DWORD PTR [edx+12]
  0002a	8b 4a d8	 mov	 ecx, DWORD PTR [edx-40]
  0002d	33 c8		 xor	 ecx, eax
  0002f	e8 00 00 00 00	 call	 @__security_check_cookie@4
  00034	b8 00 00 00 00	 mov	 eax, OFFSET __ehfuncinfo$?GetCurSummonEffect@ioSummonChargeItem@@IAE?AVioHashString@@XZ
  00039	e9 00 00 00 00	 jmp	 ___CxxFrameHandler3
text$x	ENDS
?GetCurSummonEffect@ioSummonChargeItem@@IAE?AVioHashString@@XZ ENDP ; ioSummonChargeItem::GetCurSummonEffect
PUBLIC	?GetCurSummonSound@ioSummonChargeItem@@IAE?AVioHashString@@XZ ; ioSummonChargeItem::GetCurSummonSound
;	COMDAT xdata$x
; File c:\program files (x86)\microsoft visual studio 10.0\vc\include\vector
xdata$x	SEGMENT
__unwindtable$?GetCurSummonSound@ioSummonChargeItem@@IAE?AVioHashString@@XZ DD 0ffffffffH
	DD	FLAT:__unwindfunclet$?GetCurSummonSound@ioSummonChargeItem@@IAE?AVioHashString@@XZ$1
	DD	00H
	DD	FLAT:__unwindfunclet$?GetCurSummonSound@ioSummonChargeItem@@IAE?AVioHashString@@XZ$0
__ehfuncinfo$?GetCurSummonSound@ioSummonChargeItem@@IAE?AVioHashString@@XZ DD 019930522H
	DD	02H
	DD	FLAT:__unwindtable$?GetCurSummonSound@ioSummonChargeItem@@IAE?AVioHashString@@XZ
	DD	2 DUP(00H)
	DD	2 DUP(00H)
	DD	00H
	DD	01H
; Function compile flags: /Ogsp
; File d:\lost saga for developer\youtube\tutorial\source\src\lsclient\iosummonchargeitem.cpp
xdata$x	ENDS
;	COMDAT ?GetCurSummonSound@ioSummonChargeItem@@IAE?AVioHashString@@XZ
_TEXT	SEGMENT
_szName$ = -36						; size = 16
_value$548969 = -20					; size = 4
$T548960 = -16						; size = 4
__$EHRec$ = -12						; size = 12
___$ReturnUdt$ = 8					; size = 4
?GetCurSummonSound@ioSummonChargeItem@@IAE?AVioHashString@@XZ PROC ; ioSummonChargeItem::GetCurSummonSound, COMDAT
; _this$ = ecx

; 666  : {

  00000	6a 18		 push	 24			; 00000018H
  00002	b8 00 00 00 00	 mov	 eax, __ehhandler$?GetCurSummonSound@ioSummonChargeItem@@IAE?AVioHashString@@XZ
  00007	e8 00 00 00 00	 call	 __EH_prolog3
  0000c	8b f1		 mov	 esi, ecx
  0000e	83 65 f0 00	 and	 DWORD PTR $T548960[ebp], 0

; 667  : 	ioHashString szName;

  00012	8d 4d dc	 lea	 ecx, DWORD PTR _szName$[ebp]
  00015	ff 15 00 00 00
	00		 call	 DWORD PTR __imp_??0ioHashString@@QAE@XZ

; 668  : 
; 669  : 	if( m_vSummonAttackInfoList.empty() )

  0001b	8b 86 a0 19 00
	00		 mov	 eax, DWORD PTR [esi+6560]
  00021	33 db		 xor	 ebx, ebx
  00023	43		 inc	 ebx
  00024	89 5d fc	 mov	 DWORD PTR __$EHRec$[ebp+8], ebx
  00027	3b 86 a4 19 00
	00		 cmp	 eax, DWORD PTR [esi+6564]
  0002d	75 0f		 jne	 SHORT $LN2@GetCurSumm@2

; 670  : 		return szName;

  0002f	8b 4d 08	 mov	 ecx, DWORD PTR ___$ReturnUdt$[ebp]
  00032	8d 45 dc	 lea	 eax, DWORD PTR _szName$[ebp]
  00035	50		 push	 eax
  00036	ff 15 00 00 00
	00		 call	 DWORD PTR __imp_??0ioHashString@@QAE@ABV0@@Z
  0003c	eb 4b		 jmp	 SHORT $LN17@GetCurSumm@2
$LN2@GetCurSumm@2:

; 671  : 
; 672  : 	int iIndex = m_iCurSummonCnt - 1;

  0003e	8d 45 ec	 lea	 eax, DWORD PTR _value$548969[ebp]
  00041	50		 push	 eax
  00042	8d 8e e0 19 00
	00		 lea	 ecx, DWORD PTR [esi+6624]
  00048	e8 00 00 00 00	 call	 ?DecryptValueToPool@?$CEncrypt@H@@QAEXPAH@Z ; CEncrypt<int>::DecryptValueToPool
  0004d	8b 4d ec	 mov	 ecx, DWORD PTR _value$548969[ebp]
  00050	49		 dec	 ecx

; 673  : 	if( COMPARE( iIndex, 0, (int)m_vSummonAttackInfoList.size() ) )

  00051	78 29		 js	 SHORT $LN1@GetCurSumm@2
  00053	8b be a0 19 00
	00		 mov	 edi, DWORD PTR [esi+6560]
  00059	8b 86 a4 19 00
	00		 mov	 eax, DWORD PTR [esi+6564]
  0005f	2b c7		 sub	 eax, edi
  00061	6a 74		 push	 116			; 00000074H
  00063	99		 cdq
  00064	5e		 pop	 esi
  00065	f7 fe		 idiv	 esi
  00067	3b c8		 cmp	 ecx, eax
  00069	7d 11		 jge	 SHORT $LN1@GetCurSumm@2

; 674  : 		szName = m_vSummonAttackInfoList[iIndex].m_SummonSound;

  0006b	6b c9 74	 imul	 ecx, 116		; 00000074H
  0006e	8d 44 39 14	 lea	 eax, DWORD PTR [ecx+edi+20]
  00072	50		 push	 eax
  00073	8d 4d dc	 lea	 ecx, DWORD PTR _szName$[ebp]
  00076	ff 15 00 00 00
	00		 call	 DWORD PTR __imp_??4ioHashString@@QAEAAV0@ABV0@@Z
$LN1@GetCurSumm@2:

; 675  : 
; 676  : 	return szName;

  0007c	8b 4d 08	 mov	 ecx, DWORD PTR ___$ReturnUdt$[ebp]
  0007f	8d 45 dc	 lea	 eax, DWORD PTR _szName$[ebp]
  00082	50		 push	 eax
  00083	ff 15 00 00 00
	00		 call	 DWORD PTR __imp_??0ioHashString@@QAE@ABV0@@Z
$LN17@GetCurSumm@2:
  00089	8d 4d dc	 lea	 ecx, DWORD PTR _szName$[ebp]
  0008c	89 5d f0	 mov	 DWORD PTR $T548960[ebp], ebx
  0008f	c6 45 fc 00	 mov	 BYTE PTR __$EHRec$[ebp+8], 0
  00093	ff 15 00 00 00
	00		 call	 DWORD PTR __imp_??1ioHashString@@QAE@XZ
  00099	8b 45 08	 mov	 eax, DWORD PTR ___$ReturnUdt$[ebp]

; 677  : }

  0009c	e8 00 00 00 00	 call	 __EH_epilog3
  000a1	c2 04 00	 ret	 4
_TEXT	ENDS
;	COMDAT text$x
text$x	SEGMENT
__unwindfunclet$?GetCurSummonSound@ioSummonChargeItem@@IAE?AVioHashString@@XZ$0:
  00000	8d 4d dc	 lea	 ecx, DWORD PTR _szName$[ebp]
  00003	ff 25 00 00 00
	00		 jmp	 DWORD PTR __imp_??1ioHashString@@QAE@XZ
__unwindfunclet$?GetCurSummonSound@ioSummonChargeItem@@IAE?AVioHashString@@XZ$1:
  00009	8b 45 f0	 mov	 eax, DWORD PTR $T548960[ebp]
  0000c	83 e0 01	 and	 eax, 1
  0000f	0f 84 0d 00 00
	00		 je	 $LN7@GetCurSumm@2
  00015	83 65 f0 fe	 and	 DWORD PTR $T548960[ebp], -2 ; fffffffeH
  00019	8b 4d 08	 mov	 ecx, DWORD PTR ___$ReturnUdt$[ebp]
  0001c	ff 25 00 00 00
	00		 jmp	 DWORD PTR __imp_??1ioHashString@@QAE@XZ
$LN7@GetCurSumm@2:
  00022	c3		 ret	 0
__ehhandler$?GetCurSummonSound@ioSummonChargeItem@@IAE?AVioHashString@@XZ:
  00023	8b 54 24 08	 mov	 edx, DWORD PTR [esp+8]
  00027	8d 42 0c	 lea	 eax, DWORD PTR [edx+12]
  0002a	8b 4a d8	 mov	 ecx, DWORD PTR [edx-40]
  0002d	33 c8		 xor	 ecx, eax
  0002f	e8 00 00 00 00	 call	 @__security_check_cookie@4
  00034	b8 00 00 00 00	 mov	 eax, OFFSET __ehfuncinfo$?GetCurSummonSound@ioSummonChargeItem@@IAE?AVioHashString@@XZ
  00039	e9 00 00 00 00	 jmp	 ___CxxFrameHandler3
text$x	ENDS
?GetCurSummonSound@ioSummonChargeItem@@IAE?AVioHashString@@XZ ENDP ; ioSummonChargeItem::GetCurSummonSound
PUBLIC	?CheckNextSummonTime@ioSummonChargeItem@@IAE_NXZ ; ioSummonChargeItem::CheckNextSummonTime
; Function compile flags: /Ogsp
;	COMDAT ?CheckNextSummonTime@ioSummonChargeItem@@IAE_NXZ
_TEXT	SEGMENT
_value$548993 = -4					; size = 4
?CheckNextSummonTime@ioSummonChargeItem@@IAE_NXZ PROC	; ioSummonChargeItem::CheckNextSummonTime, COMDAT
; _this$ = ecx

; 727  : {

  00000	55		 push	 ebp
  00001	8b ec		 mov	 ebp, esp
  00003	51		 push	 ecx
  00004	56		 push	 esi
  00005	8b f1		 mov	 esi, ecx

; 728  : 	m_dwGatheringStartTime;
; 729  : 
; 730  : 	if( m_vSummonAttackInfoList.empty() )

  00007	8b 86 a0 19 00
	00		 mov	 eax, DWORD PTR [esi+6560]
  0000d	3b 86 a4 19 00
	00		 cmp	 eax, DWORD PTR [esi+6564]

; 731  : 		return false;

  00013	74 4a		 je	 SHORT $LN1@CheckNextS

; 732  : 
; 733  : 	int iIndex = m_iCurSummonCnt;

  00015	8d 45 fc	 lea	 eax, DWORD PTR _value$548993[ebp]
  00018	50		 push	 eax
  00019	8d 8e e0 19 00
	00		 lea	 ecx, DWORD PTR [esi+6624]
  0001f	e8 00 00 00 00	 call	 ?DecryptValueToPool@?$CEncrypt@H@@QAEXPAH@Z ; CEncrypt<int>::DecryptValueToPool

; 734  : 	if( COMPARE( iIndex, 0, (int)m_vSummonAttackInfoList.size() ) )

  00024	8b 4d fc	 mov	 ecx, DWORD PTR _value$548993[ebp]
  00027	85 c9		 test	 ecx, ecx
  00029	78 34		 js	 SHORT $LN1@CheckNextS
  0002b	8b 86 a4 19 00
	00		 mov	 eax, DWORD PTR [esi+6564]
  00031	2b 86 a0 19 00
	00		 sub	 eax, DWORD PTR [esi+6560]
  00037	57		 push	 edi
  00038	6a 74		 push	 116			; 00000074H
  0003a	99		 cdq
  0003b	5f		 pop	 edi
  0003c	f7 ff		 idiv	 edi
  0003e	5f		 pop	 edi
  0003f	3b c8		 cmp	 ecx, eax
  00041	7d 1c		 jge	 SHORT $LN1@CheckNextS

; 735  : 	{
; 736  : 		m_dwNextSummonTime = m_dwGatheringStartTime + m_vSummonAttackInfoList[iIndex].m_dwCreateTime;

  00043	8b 86 a0 19 00
	00		 mov	 eax, DWORD PTR [esi+6560]
  00049	6b c9 74	 imul	 ecx, 116		; 00000074H
  0004c	8b 04 01	 mov	 eax, DWORD PTR [ecx+eax]
  0004f	03 86 78 19 00
	00		 add	 eax, DWORD PTR [esi+6520]
  00055	89 86 10 1a 00
	00		 mov	 DWORD PTR [esi+6672], eax

; 737  : 		return true;

  0005b	b0 01		 mov	 al, 1
  0005d	eb 02		 jmp	 SHORT $LN3@CheckNextS
$LN1@CheckNextS:

; 738  : 	}
; 739  : 
; 740  : 	return false;

  0005f	32 c0		 xor	 al, al
$LN3@CheckNextS:
  00061	5e		 pop	 esi

; 741  : }

  00062	c9		 leave
  00063	c3		 ret	 0
?CheckNextSummonTime@ioSummonChargeItem@@IAE_NXZ ENDP	; ioSummonChargeItem::CheckNextSummonTime
_TEXT	ENDS
PUBLIC	_szAni$GSCopy$
PUBLIC	_pOwner$GSCopy$
PUBLIC	__$ArrayPad$
PUBLIC	?ChangeToRetreatState@ioSummonChargeItem@@IAEXPAVioBaseChar@@ABVioHashString@@MUD3DXVECTOR3@@@Z ; ioSummonChargeItem::ChangeToRetreatState
EXTRN	??6SP2Packet@@QAEAAV0@ABUD3DXVECTOR3@@@Z:PROC	; SP2Packet::operator<<
EXTRN	??6SP2Packet@@QAEAAV0@M@Z:PROC			; SP2Packet::operator<<
EXTRN	??6SP2Packet@@QAEAAV0@ABVioHashString@@@Z:PROC	; SP2Packet::operator<<
EXTRN	?ClearReservedSliding@ioBaseChar@@QAEXXZ:PROC	; ioBaseChar::ClearReservedSliding
EXTRN	?ClearDirDoubleClick@ioBaseChar@@QAEXXZ:PROC	; ioBaseChar::ClearDirDoubleClick
;	COMDAT xdata$x
; File d:\lost saga for developer\youtube\tutorial\source\src\lsclient\stringprotect.h
xdata$x	SEGMENT
__unwindtable$?ChangeToRetreatState@ioSummonChargeItem@@IAEXPAVioBaseChar@@ABVioHashString@@MUD3DXVECTOR3@@@Z DD 0ffffffffH
	DD	FLAT:__unwindfunclet$?ChangeToRetreatState@ioSummonChargeItem@@IAEXPAVioBaseChar@@ABVioHashString@@MUD3DXVECTOR3@@@Z$1
	DD	0ffffffffH
	DD	FLAT:__unwindfunclet$?ChangeToRetreatState@ioSummonChargeItem@@IAEXPAVioBaseChar@@ABVioHashString@@MUD3DXVECTOR3@@@Z$2
	DD	0ffffffffH
	DD	FLAT:__unwindfunclet$?ChangeToRetreatState@ioSummonChargeItem@@IAEXPAVioBaseChar@@ABVioHashString@@MUD3DXVECTOR3@@@Z$0
__ehfuncinfo$?ChangeToRetreatState@ioSummonChargeItem@@IAEXPAVioBaseChar@@ABVioHashString@@MUD3DXVECTOR3@@@Z DD 019930522H
	DD	03H
	DD	FLAT:__unwindtable$?ChangeToRetreatState@ioSummonChargeItem@@IAEXPAVioBaseChar@@ABVioHashString@@MUD3DXVECTOR3@@@Z
	DD	2 DUP(00H)
	DD	2 DUP(00H)
	DD	00H
	DD	01H
; Function compile flags: /Ogsp
; File d:\lost saga for developer\youtube\tutorial\source\src\lsclient\iosummonchargeitem.cpp
xdata$x	ENDS
;	COMDAT ?ChangeToRetreatState@ioSummonChargeItem@@IAEXPAVioBaseChar@@ABVioHashString@@MUD3DXVECTOR3@@@Z
_TEXT	SEGMENT
_pOwner$GSCopy$ = -32876				; size = 4
_szAni$GSCopy$ = -32872					; size = 4
tv2078 = -32868						; size = 4
_iAniID$ = -32868					; size = 4
tv2066 = -32864						; size = 4
tv2063 = -32864						; size = 4
tv2061 = -32864						; size = 4
$T549190 = -32860					; size = 4
_pGrp$ = -32860						; size = 4
_dwCurTime$ = -32856					; size = 4
tv2059 = -32852						; size = 4
tv2057 = -32852						; size = 4
tv2040 = -32852						; size = 4
$T549060 = -32852					; size = 4
$T549036 = -32852					; size = 4
_value$549016 = -32848					; size = 4
_fCurRate$ = -32848					; size = 4
_kPacket$542762 = -32844				; size = 32792
$T549191 = -52						; size = 16
_szEncEventType$549074 = -52				; size = 13
_szEncEventType$549204 = -32				; size = 12
$T549061 = -32						; size = 16
__$ArrayPad$ = -16					; size = 4
__$EHRec$ = -12						; size = 12
_pOwner$ = 8						; size = 4
_szAni$ = 12						; size = 4
_fAniRate$ = 16						; size = 4
_vDir$ = 20						; size = 12
?ChangeToRetreatState@ioSummonChargeItem@@IAEXPAVioBaseChar@@ABVioHashString@@MUD3DXVECTOR3@@@Z PROC ; ioSummonChargeItem::ChangeToRetreatState, COMDAT
; _this$ = ecx

; 821  : {

  00000	55		 push	 ebp
  00001	8b ec		 mov	 ebp, esp
  00003	6a ff		 push	 -1
  00005	68 00 00 00 00	 push	 __ehhandler$?ChangeToRetreatState@ioSummonChargeItem@@IAEXPAVioBaseChar@@ABVioHashString@@MUD3DXVECTOR3@@@Z
  0000a	64 a1 00 00 00
	00		 mov	 eax, DWORD PTR fs:0
  00010	50		 push	 eax
  00011	b8 60 80 00 00	 mov	 eax, 32864		; 00008060H
  00016	e8 00 00 00 00	 call	 __chkstk
  0001b	a1 00 00 00 00	 mov	 eax, DWORD PTR ___security_cookie
  00020	33 c5		 xor	 eax, ebp
  00022	89 45 f0	 mov	 DWORD PTR __$ArrayPad$[ebp], eax
  00025	53		 push	 ebx
  00026	56		 push	 esi
  00027	57		 push	 edi
  00028	50		 push	 eax
  00029	8d 45 f4	 lea	 eax, DWORD PTR __$EHRec$[ebp]
  0002c	64 a3 00 00 00
	00		 mov	 DWORD PTR fs:0, eax
  00032	8b 7d 08	 mov	 edi, DWORD PTR _pOwner$[ebp]

; 825  : 
; 826  : 	DWORD dwCurTime = FRAMEGETTIME();

  00035	8b 45 0c	 mov	 eax, DWORD PTR _szAni$[ebp]
  00038	8b d9		 mov	 ebx, ecx

; 867  : 	{
; 868  : 		SP2Packet kPacket( CUPK_ITEM_GAUGE_OK );

  0003a	89 bd 94 7f ff
	ff		 mov	 DWORD PTR _pOwner$GSCopy$[ebp], edi
  00040	89 85 98 7f ff
	ff		 mov	 DWORD PTR _szAni$GSCopy$[ebp], eax
  00046	85 ff		 test	 edi, edi
  00048	0f 84 d0 03 00
	00		 je	 $LN1@ChangeToRe

; 822  : 	if( !pOwner ) return;
; 823  : 	ioEntityGroup *pGrp = pOwner->GetGroup();

  0004e	8b 77 04	 mov	 esi, DWORD PTR [edi+4]
  00051	89 b5 a4 7f ff
	ff		 mov	 DWORD PTR _pGrp$[ebp], esi

; 824  : 	if( !pGrp ) return;

  00057	85 f6		 test	 esi, esi
  00059	0f 84 bf 03 00
	00		 je	 $LN1@ChangeToRe

; 825  : 
; 826  : 	DWORD dwCurTime = FRAMEGETTIME();

  0005f	ff 15 00 00 00
	00		 call	 DWORD PTR __imp_?GetSingleton@ioFrameTimer@@SAAAV1@XZ
  00065	8b c8		 mov	 ecx, eax
  00067	ff 15 00 00 00
	00		 call	 DWORD PTR __imp_?GetLoopSec@ioFrameTimer@@QBEKXZ

; 827  : 
; 828  : 	pOwner->ClearDirDoubleClick();

  0006d	8b cf		 mov	 ecx, edi
  0006f	89 85 a8 7f ff
	ff		 mov	 DWORD PTR _dwCurTime$[ebp], eax
  00075	e8 00 00 00 00	 call	 ?ClearDirDoubleClick@ioBaseChar@@QAEXXZ ; ioBaseChar::ClearDirDoubleClick

; 829  : 	pOwner->ClearReservedSliding();

  0007a	8b cf		 mov	 ecx, edi
  0007c	e8 00 00 00 00	 call	 ?ClearReservedSliding@ioBaseChar@@QAEXXZ ; ioBaseChar::ClearReservedSliding

; 830  : 
; 831  : 	pOwner->SetForcePowerAmt( 0.0f );

  00081	0f 57 c0	 xorps	 xmm0, xmm0
  00084	8d 85 b0 7f ff
	ff		 lea	 eax, DWORD PTR _value$549016[ebp]
  0008a	50		 push	 eax
  0008b	8d 8f 88 0b 00
	00		 lea	 ecx, DWORD PTR [edi+2952]
  00091	f3 0f 11 85 b0
	7f ff ff	 movss	 DWORD PTR _value$549016[ebp], xmm0
  00099	e8 00 00 00 00	 call	 ?EncryptValueToPool@?$CEncrypt@M@@AAEXPBD@Z ; CEncrypt<float>::EncryptValueToPool

; 832  : 
; 833  : 	//pOwner->SetAttackMoveEnable( false );
; 834  : 	pOwner->SetChargingState( false );
; 835  : 	m_bSetChargingMoveAni = false;
; 836  : 
; 837  : 	m_dwKeyReserveTime = 0;
; 838  : 
; 839  : 	m_dwRetreatEndTime = 0;
; 840  : 	m_dwRetreatForceTime = 0;
; 841  : 
; 842  : 	float fCurRate = fAniRate;

  0009e	f3 0f 10 45 10	 movss	 xmm0, DWORD PTR _fAniRate$[ebp]

; 843  : 	if( fCurRate <= 0.0f )

  000a3	0f 57 c9	 xorps	 xmm1, xmm1
  000a6	33 c0		 xor	 eax, eax
  000a8	0f 2f c8	 comiss	 xmm1, xmm0
  000ab	c6 87 54 20 00
	00 00		 mov	 BYTE PTR [edi+8276], 0
  000b2	c6 83 8c 19 00
	00 00		 mov	 BYTE PTR [ebx+6540], 0
  000b9	89 83 f8 0e 00
	00		 mov	 DWORD PTR [ebx+3832], eax
  000bf	89 83 2c 1a 00
	00		 mov	 DWORD PTR [ebx+6700], eax
  000c5	89 83 44 1a 00
	00		 mov	 DWORD PTR [ebx+6724], eax
  000cb	f3 0f 11 85 b0
	7f ff ff	 movss	 DWORD PTR _fCurRate$[ebp], xmm0
  000d3	72 21		 jb	 SHORT $LN3@ChangeToRe

; 844  : 		fCurRate = FLOAT1;

  000d5	b8 01 00 00 00	 mov	 eax, 1
  000da	89 85 9c 7f ff
	ff		 mov	 DWORD PTR tv2078[ebp], eax
  000e0	db 85 9c 7f ff
	ff		 fild	 DWORD PTR tv2078[ebp]
  000e6	85 c0		 test	 eax, eax
  000e8	79 06		 jns	 SHORT $LN250@ChangeToRe
  000ea	d8 05 00 00 00
	00		 fadd	 DWORD PTR __real@4f800000
$LN250@ChangeToRe:
  000f0	d9 9d b0 7f ff
	ff		 fstp	 DWORD PTR _fCurRate$[ebp]
$LN3@ChangeToRe:

; 845  : 
; 846  : 	m_ChargeState = CS_RETREAT;
; 847  : 
; 848  : 	int iAniID = pGrp->GetAnimationIdx( szAni );

  000f6	ff b5 98 7f ff
	ff		 push	 DWORD PTR _szAni$GSCopy$[ebp]
  000fc	8b ce		 mov	 ecx, esi
  000fe	c7 83 54 19 00
	00 04 00 00 00	 mov	 DWORD PTR [ebx+6484], 4
  00108	ff 15 00 00 00
	00		 call	 DWORD PTR __imp_?GetAnimationIdx@ioEntityGroup@@QAEHABVioHashString@@@Z

; 849  : 	pGrp->ClearAllActionAni( 0.0f, true );

  0010e	0f 57 c0	 xorps	 xmm0, xmm0
  00111	6a 01		 push	 1
  00113	51		 push	 ecx
  00114	8b f8		 mov	 edi, eax
  00116	8b ce		 mov	 ecx, esi
  00118	89 bd 9c 7f ff
	ff		 mov	 DWORD PTR _iAniID$[ebp], edi
  0011e	f3 0f 11 04 24	 movss	 DWORD PTR [esp], xmm0
  00123	ff 15 00 00 00
	00		 call	 DWORD PTR __imp_?ClearAllActionAni@ioEntityGroup@@QAEXM_N@Z

; 850  : 	pGrp->ClearAllLoopAni( 0.0f, true );

  00129	0f 57 c0	 xorps	 xmm0, xmm0
  0012c	6a 01		 push	 1
  0012e	51		 push	 ecx
  0012f	8b ce		 mov	 ecx, esi
  00131	f3 0f 11 04 24	 movss	 DWORD PTR [esp], xmm0
  00136	ff 15 00 00 00
	00		 call	 DWORD PTR __imp_?ClearAllLoopAni@ioEntityGroup@@QAEXM_N@Z

; 851  : 	pGrp->SetActionAni( iAniID, FLOAT100, FLOAT100, FLOAT1, FLOAT1/fCurRate );

  0013c	b8 01 00 00 00	 mov	 eax, 1
  00141	8b c8		 mov	 ecx, eax
  00143	b8 01 00 00 00	 mov	 eax, 1
  00148	8b d0		 mov	 edx, eax
  0014a	b8 64 00 00 00	 mov	 eax, 100		; 00000064H
  0014f	89 85 ac 7f ff
	ff		 mov	 DWORD PTR $T549036[ebp], eax
  00155	b8 64 00 00 00	 mov	 eax, 100		; 00000064H
  0015a	0f 57 c0	 xorps	 xmm0, xmm0
  0015d	6a 01		 push	 1
  0015f	6a 00		 push	 0
  00161	83 ec 18	 sub	 esp, 24			; 00000018H
  00164	89 8d a0 7f ff
	ff		 mov	 DWORD PTR tv2066[ebp], ecx
  0016a	db 85 a0 7f ff
	ff		 fild	 DWORD PTR tv2066[ebp]
  00170	f3 0f 11 44 24
	14		 movss	 DWORD PTR [esp+20], xmm0
  00176	f3 0f 11 44 24
	10		 movss	 DWORD PTR [esp+16], xmm0
  0017c	85 c9		 test	 ecx, ecx
  0017e	79 06		 jns	 SHORT $LN251@ChangeToRe
  00180	d8 05 00 00 00
	00		 fadd	 DWORD PTR __real@4f800000
$LN251@ChangeToRe:
  00186	d8 b5 b0 7f ff
	ff		 fdiv	 DWORD PTR _fCurRate$[ebp]
  0018c	d9 9d a0 7f ff
	ff		 fstp	 DWORD PTR tv2063[ebp]
  00192	d9 85 a0 7f ff
	ff		 fld	 DWORD PTR tv2063[ebp]
  00198	d9 5c 24 0c	 fstp	 DWORD PTR [esp+12]
  0019c	89 95 a0 7f ff
	ff		 mov	 DWORD PTR tv2061[ebp], edx
  001a2	db 85 a0 7f ff
	ff		 fild	 DWORD PTR tv2061[ebp]
  001a8	85 d2		 test	 edx, edx
  001aa	79 06		 jns	 SHORT $LN252@ChangeToRe
  001ac	d8 05 00 00 00
	00		 fadd	 DWORD PTR __real@4f800000
$LN252@ChangeToRe:
  001b2	8b 8d ac 7f ff
	ff		 mov	 ecx, DWORD PTR $T549036[ebp]
  001b8	d9 5c 24 08	 fstp	 DWORD PTR [esp+8]
  001bc	db 85 ac 7f ff
	ff		 fild	 DWORD PTR $T549036[ebp]
  001c2	85 c9		 test	 ecx, ecx
  001c4	79 06		 jns	 SHORT $LN253@ChangeToRe
  001c6	d8 05 00 00 00
	00		 fadd	 DWORD PTR __real@4f800000
$LN253@ChangeToRe:
  001cc	89 85 ac 7f ff
	ff		 mov	 DWORD PTR tv2057[ebp], eax
  001d2	d9 5c 24 04	 fstp	 DWORD PTR [esp+4]
  001d6	db 85 ac 7f ff
	ff		 fild	 DWORD PTR tv2057[ebp]
  001dc	85 c0		 test	 eax, eax
  001de	79 06		 jns	 SHORT $LN254@ChangeToRe
  001e0	d8 05 00 00 00
	00		 fadd	 DWORD PTR __real@4f800000
$LN254@ChangeToRe:
  001e6	d9 1c 24	 fstp	 DWORD PTR [esp]
  001e9	57		 push	 edi
  001ea	8b ce		 mov	 ecx, esi
  001ec	ff 15 00 00 00
	00		 call	 DWORD PTR __imp_?SetActionAni@ioEntityGroup@@QAE_NHMMMMMM_N0@Z

; 852  : 
; 853  : 	m_dwRetreatEndTime = dwCurTime + pGrp->GetAnimationFullTime(iAniID) * fCurRate;

  001f2	57		 push	 edi
  001f3	8b ce		 mov	 ecx, esi
  001f5	ff 15 00 00 00
	00		 call	 DWORD PTR __imp_?GetAnimationFullTime@ioEntityGroup@@QAEMH@Z
  001fb	d8 8d b0 7f ff
	ff		 fmul	 DWORD PTR _fCurRate$[ebp]
  00201	8b 85 a8 7f ff
	ff		 mov	 eax, DWORD PTR _dwCurTime$[ebp]
  00207	db 85 a8 7f ff
	ff		 fild	 DWORD PTR _dwCurTime$[ebp]
  0020d	85 c0		 test	 eax, eax
  0020f	79 06		 jns	 SHORT $LN255@ChangeToRe
  00211	d8 05 00 00 00
	00		 fadd	 DWORD PTR __real@4f800000
$LN255@ChangeToRe:
  00217	de c1		 faddp	 ST(1), ST(0)
  00219	e8 00 00 00 00	 call	 __ftol2
  0021e	6a 03		 push	 3
  00220	89 83 2c 1a 00
	00		 mov	 DWORD PTR [ebx+6700], eax

; 854  : 
; 855  : 	DWORD dwTime = (DWORD)pGrp->GetAnimationEventTime_e( iAniID, "fire_sliding" );

  00226	c7 45 cc 8b 85
	99 8f		 mov	 DWORD PTR _szEncEventType$549074[ebp], -1885764213 ; 8f99858bH
  0022d	c7 45 d0 b2 9f
	87 83		 mov	 DWORD PTR _szEncEventType$549074[ebp+4], -2088263758 ; 83879fb2H
  00234	c7 45 d4 89 85
	85 8d		 mov	 DWORD PTR _szEncEventType$549074[ebp+8], -1920629367 ; 8d858589H
  0023b	8d 45 cc	 lea	 eax, DWORD PTR _szEncEventType$549074[ebp]
  0023e	c6 45 d8 00	 mov	 BYTE PTR _szEncEventType$549074[ebp+12], 0
  00242	59		 pop	 ecx
$LL131@ChangeToRe:
  00243	81 30 ed ec eb
	ea		 xor	 DWORD PTR [eax], -353637139 ; eaebecedH
  00249	83 c0 04	 add	 eax, 4
  0024c	49		 dec	 ecx
  0024d	75 f4		 jne	 SHORT $LL131@ChangeToRe
  0024f	8d 45 cc	 lea	 eax, DWORD PTR _szEncEventType$549074[ebp]
  00252	50		 push	 eax
  00253	8d 4d e0	 lea	 ecx, DWORD PTR $T549061[ebp]
  00256	ff 15 00 00 00
	00		 call	 DWORD PTR __imp_??0ioHashString@@QAE@PBD@Z
  0025c	83 65 fc 00	 and	 DWORD PTR __$EHRec$[ebp+8], 0
  00260	8d 45 e0	 lea	 eax, DWORD PTR $T549061[ebp]
  00263	50		 push	 eax
  00264	57		 push	 edi
  00265	8b ce		 mov	 ecx, esi
  00267	ff 15 00 00 00
	00		 call	 DWORD PTR __imp_?GetAnimationEventTime@ioEntityGroup@@QAEMHABVioHashString@@@Z
  0026d	d9 9d ac 7f ff
	ff		 fstp	 DWORD PTR $T549060[ebp]
  00273	83 4d fc ff	 or	 DWORD PTR __$EHRec$[ebp+8], -1
  00277	8d 4d e0	 lea	 ecx, DWORD PTR $T549061[ebp]
  0027a	ff 15 00 00 00
	00		 call	 DWORD PTR __imp_??1ioHashString@@QAE@XZ
  00280	d9 85 ac 7f ff
	ff		 fld	 DWORD PTR $T549060[ebp]
  00286	e8 00 00 00 00	 call	 __ftol2

; 856  : 	m_dwRetreatForceTime = dwCurTime + dwTime;

  0028b	03 85 a8 7f ff
	ff		 add	 eax, DWORD PTR _dwCurTime$[ebp]

; 857  : 
; 858  : 	m_vForceDir = vDir;

  00291	8d bb 30 1a 00
	00		 lea	 edi, DWORD PTR [ebx+6704]
  00297	8d 75 14	 lea	 esi, DWORD PTR _vDir$[ebp]
  0029a	a5		 movsd
  0029b	a5		 movsd
  0029c	6a 02		 push	 2
  0029e	a5		 movsd
  0029f	5f		 pop	 edi
  002a0	89 83 44 1a 00
	00		 mov	 DWORD PTR [ebx+6724], eax

; 859  : 
; 860  : 	DWORD dwKeyReserve = pGrp->GetAnimationEventTime_e( iAniID, "key_reserve" ) * fCurRate;

  002a6	c7 45 e0 86 89
	92 b5		 mov	 DWORD PTR _szEncEventType$549204[ebp], -1248687738 ; b5928986H
  002ad	c7 45 e4 9f 89
	98 8f		 mov	 DWORD PTR _szEncEventType$549204[ebp+4], -1885828705 ; 8f98899fH
  002b4	8d 45 e0	 lea	 eax, DWORD PTR _szEncEventType$549204[ebp]
  002b7	c7 45 e8 9f 9a
	8e 00		 mov	 DWORD PTR _szEncEventType$549204[ebp+8], 9345695 ; 008e9a9fH
  002be	8b cf		 mov	 ecx, edi
$LL238@ChangeToRe:
  002c0	81 30 ed ec eb
	ea		 xor	 DWORD PTR [eax], -353637139 ; eaebecedH
  002c6	83 c0 04	 add	 eax, 4
  002c9	49		 dec	 ecx
  002ca	75 f4		 jne	 SHORT $LL238@ChangeToRe
  002cc	6a 08		 push	 8
  002ce	5e		 pop	 esi
$LL235@ChangeToRe:
  002cf	8b c6		 mov	 eax, esi
  002d1	25 03 00 00 80	 and	 eax, -2147483645	; 80000003H
  002d6	79 05		 jns	 SHORT $LN256@ChangeToRe
  002d8	48		 dec	 eax
  002d9	83 c8 fc	 or	 eax, -4			; fffffffcH
  002dc	40		 inc	 eax
$LN256@ChangeToRe:
  002dd	b1 ed		 mov	 cl, -19			; ffffffedH
  002df	2a c8		 sub	 cl, al
  002e1	30 4c 35 e0	 xor	 BYTE PTR _szEncEventType$549204[ebp+esi], cl
  002e5	46		 inc	 esi
  002e6	83 fe 0b	 cmp	 esi, 11			; 0000000bH
  002e9	7c e4		 jl	 SHORT $LL235@ChangeToRe
  002eb	8d 45 e0	 lea	 eax, DWORD PTR _szEncEventType$549204[ebp]
  002ee	50		 push	 eax
  002ef	8d 4d cc	 lea	 ecx, DWORD PTR $T549191[ebp]
  002f2	ff 15 00 00 00
	00		 call	 DWORD PTR __imp_??0ioHashString@@QAE@PBD@Z
  002f8	8b 8d a4 7f ff
	ff		 mov	 ecx, DWORD PTR _pGrp$[ebp]
  002fe	8d 45 cc	 lea	 eax, DWORD PTR $T549191[ebp]
  00301	50		 push	 eax
  00302	ff b5 9c 7f ff
	ff		 push	 DWORD PTR _iAniID$[ebp]
  00308	c7 45 fc 01 00
	00 00		 mov	 DWORD PTR __$EHRec$[ebp+8], 1
  0030f	ff 15 00 00 00
	00		 call	 DWORD PTR __imp_?GetAnimationEventTime@ioEntityGroup@@QAEMHABVioHashString@@@Z
  00315	d9 9d a4 7f ff
	ff		 fstp	 DWORD PTR $T549190[ebp]
  0031b	83 4d fc ff	 or	 DWORD PTR __$EHRec$[ebp+8], -1
  0031f	8d 4d cc	 lea	 ecx, DWORD PTR $T549191[ebp]
  00322	ff 15 00 00 00
	00		 call	 DWORD PTR __imp_??1ioHashString@@QAE@XZ
  00328	d9 85 a4 7f ff
	ff		 fld	 DWORD PTR $T549190[ebp]
  0032e	d8 8d b0 7f ff
	ff		 fmul	 DWORD PTR _fCurRate$[ebp]
  00334	e8 00 00 00 00	 call	 __ftol2

; 861  : 	if( dwKeyReserve > 0 )

  00339	85 c0		 test	 eax, eax
  0033b	74 0c		 je	 SHORT $LN2@ChangeToRe

; 862  : 		m_dwKeyReserveTime = dwCurTime + dwKeyReserve;

  0033d	03 85 a8 7f ff
	ff		 add	 eax, DWORD PTR _dwCurTime$[ebp]
  00343	89 83 f8 0e 00
	00		 mov	 DWORD PTR [ebx+3832], eax
$LN2@ChangeToRe:

; 863  : 
; 864  : 	pOwner->ApplyNormalAttackResult( m_iCurCombo );

  00349	8b b5 94 7f ff
	ff		 mov	 esi, DWORD PTR _pOwner$GSCopy$[ebp]
  0034f	6a 00		 push	 0
  00351	ff b3 5c 19 00
	00		 push	 DWORD PTR [ebx+6492]
  00357	8b ce		 mov	 ecx, esi
  00359	e8 00 00 00 00	 call	 ?ApplyNormalAttackResult@ioBaseChar@@QAEXH_N@Z ; ioBaseChar::ApplyNormalAttackResult

; 865  : 
; 866  : 	if( pOwner->IsNeedSendNetwork() )

  0035e	8b 06		 mov	 eax, DWORD PTR [esi]
  00360	8b ce		 mov	 ecx, esi
  00362	ff 90 04 01 00
	00		 call	 DWORD PTR [eax+260]
  00368	84 c0		 test	 al, al
  0036a	0f 84 ae 00 00
	00		 je	 $LN1@ChangeToRe

; 867  : 	{
; 868  : 		SP2Packet kPacket( CUPK_ITEM_GAUGE_OK );

  00370	68 27 41 00 00	 push	 16679			; 00004127H
  00375	8d 8d b4 7f ff
	ff		 lea	 ecx, DWORD PTR _kPacket$542762[ebp]
  0037b	e8 00 00 00 00	 call	 ??0SP2Packet@@QAE@K@Z	; SP2Packet::SP2Packet

; 869  : 		FillItemGaugePacketHeader( pOwner, kPacket );

  00380	8d 85 b4 7f ff
	ff		 lea	 eax, DWORD PTR _kPacket$542762[ebp]
  00386	50		 push	 eax
  00387	56		 push	 esi
  00388	8b cb		 mov	 ecx, ebx
  0038a	89 7d fc	 mov	 DWORD PTR __$EHRec$[ebp+8], edi
  0038d	e8 00 00 00 00	 call	 ?FillItemGaugePacketHeader@ioAttackableItem@@QAEXPAVioBaseChar@@AAVSP2Packet@@@Z ; ioAttackableItem::FillItemGaugePacketHeader

; 870  : 		kPacket << (int)m_ChargeState;

  00392	ff b3 54 19 00
	00		 push	 DWORD PTR [ebx+6484]
  00398	8d 8d b4 7f ff
	ff		 lea	 ecx, DWORD PTR _kPacket$542762[ebp]
  0039e	e8 00 00 00 00	 call	 ??6SP2Packet@@QAEAAV0@H@Z ; SP2Packet::operator<<

; 871  : 		kPacket << m_iCurCombo;

  003a3	ff b3 5c 19 00
	00		 push	 DWORD PTR [ebx+6492]
  003a9	8d 8d b4 7f ff
	ff		 lea	 ecx, DWORD PTR _kPacket$542762[ebp]
  003af	e8 00 00 00 00	 call	 ??6SP2Packet@@QAEAAV0@H@Z ; SP2Packet::operator<<

; 872  : 		kPacket << m_iCurSummonCnt;

  003b4	81 c3 e0 19 00
	00		 add	 ebx, 6624		; 000019e0H
  003ba	53		 push	 ebx
  003bb	8d 8d b4 7f ff
	ff		 lea	 ecx, DWORD PTR _kPacket$542762[ebp]
  003c1	e8 00 00 00 00	 call	 ??6SP2Packet@@QAEAAV0@AAV?$CEncrypt@H@@@Z ; SP2Packet::operator<<

; 873  : 		kPacket << szAni;

  003c6	ff b5 98 7f ff
	ff		 push	 DWORD PTR _szAni$GSCopy$[ebp]
  003cc	8d 8d b4 7f ff
	ff		 lea	 ecx, DWORD PTR _kPacket$542762[ebp]
  003d2	e8 00 00 00 00	 call	 ??6SP2Packet@@QAEAAV0@ABVioHashString@@@Z ; SP2Packet::operator<<

; 874  : 		kPacket << fCurRate;

  003d7	f3 0f 10 85 b0
	7f ff ff	 movss	 xmm0, DWORD PTR _fCurRate$[ebp]
  003df	51		 push	 ecx
  003e0	8d 8d b4 7f ff
	ff		 lea	 ecx, DWORD PTR _kPacket$542762[ebp]
  003e6	f3 0f 11 04 24	 movss	 DWORD PTR [esp], xmm0
  003eb	e8 00 00 00 00	 call	 ??6SP2Packet@@QAEAAV0@M@Z ; SP2Packet::operator<<

; 875  : 		kPacket << vDir;

  003f0	8d 45 14	 lea	 eax, DWORD PTR _vDir$[ebp]
  003f3	50		 push	 eax
  003f4	8d 8d b4 7f ff
	ff		 lea	 ecx, DWORD PTR _kPacket$542762[ebp]
  003fa	e8 00 00 00 00	 call	 ??6SP2Packet@@QAEAAV0@ABUD3DXVECTOR3@@@Z ; SP2Packet::operator<<

; 876  : 		P2PNetwork::SendToAllPlayingUser( kPacket );

  003ff	8d 85 b4 7f ff
	ff		 lea	 eax, DWORD PTR _kPacket$542762[ebp]
  00405	6a 00		 push	 0
  00407	50		 push	 eax
  00408	e8 00 00 00 00	 call	 ?SendToAllPlayingUser@P2PNetwork@@YAXAAVSP2Packet@@PAVioBaseChar@@@Z ; P2PNetwork::SendToAllPlayingUser

; 877  : 	}

  0040d	83 4d fc ff	 or	 DWORD PTR __$EHRec$[ebp+8], -1
  00411	59		 pop	 ecx
  00412	59		 pop	 ecx
  00413	8d 8d b4 7f ff
	ff		 lea	 ecx, DWORD PTR _kPacket$542762[ebp]
  00419	e8 00 00 00 00	 call	 ??1SP2Packet@@UAE@XZ	; SP2Packet::~SP2Packet
$LN1@ChangeToRe:

; 878  : }

  0041e	8b 4d f4	 mov	 ecx, DWORD PTR __$EHRec$[ebp]
  00421	64 89 0d 00 00
	00 00		 mov	 DWORD PTR fs:0, ecx
  00428	59		 pop	 ecx
  00429	5f		 pop	 edi
  0042a	5e		 pop	 esi
  0042b	5b		 pop	 ebx
  0042c	8b 4d f0	 mov	 ecx, DWORD PTR __$ArrayPad$[ebp]
  0042f	33 cd		 xor	 ecx, ebp
  00431	e8 00 00 00 00	 call	 @__security_check_cookie@4
  00436	c9		 leave
  00437	c2 18 00	 ret	 24			; 00000018H
_TEXT	ENDS
;	COMDAT text$x
text$x	SEGMENT
__unwindfunclet$?ChangeToRetreatState@ioSummonChargeItem@@IAEXPAVioBaseChar@@ABVioHashString@@MUD3DXVECTOR3@@@Z$1:
  00000	8d 4d e0	 lea	 ecx, DWORD PTR $T549061[ebp]
  00003	ff 25 00 00 00
	00		 jmp	 DWORD PTR __imp_??1ioHashString@@QAE@XZ
__unwindfunclet$?ChangeToRetreatState@ioSummonChargeItem@@IAEXPAVioBaseChar@@ABVioHashString@@MUD3DXVECTOR3@@@Z$2:
  00009	8d 4d cc	 lea	 ecx, DWORD PTR $T549191[ebp]
  0000c	ff 25 00 00 00
	00		 jmp	 DWORD PTR __imp_??1ioHashString@@QAE@XZ
__unwindfunclet$?ChangeToRetreatState@ioSummonChargeItem@@IAEXPAVioBaseChar@@ABVioHashString@@MUD3DXVECTOR3@@@Z$0:
  00012	8d 8d b4 7f ff
	ff		 lea	 ecx, DWORD PTR _kPacket$542762[ebp]
  00018	e9 00 00 00 00	 jmp	 ??1SP2Packet@@UAE@XZ	; SP2Packet::~SP2Packet
__ehhandler$?ChangeToRetreatState@ioSummonChargeItem@@IAEXPAVioBaseChar@@ABVioHashString@@MUD3DXVECTOR3@@@Z:
  0001d	8b 54 24 08	 mov	 edx, DWORD PTR [esp+8]
  00021	8d 42 0c	 lea	 eax, DWORD PTR [edx+12]
  00024	8b 8a 90 7f ff
	ff		 mov	 ecx, DWORD PTR [edx-32880]
  0002a	33 c8		 xor	 ecx, eax
  0002c	e8 00 00 00 00	 call	 @__security_check_cookie@4
  00031	8b 4a fc	 mov	 ecx, DWORD PTR [edx-4]
  00034	33 c8		 xor	 ecx, eax
  00036	e8 00 00 00 00	 call	 @__security_check_cookie@4
  0003b	b8 00 00 00 00	 mov	 eax, OFFSET __ehfuncinfo$?ChangeToRetreatState@ioSummonChargeItem@@IAEXPAVioBaseChar@@ABVioHashString@@MUD3DXVECTOR3@@@Z
  00040	e9 00 00 00 00	 jmp	 ___CxxFrameHandler3
text$x	ENDS
?ChangeToRetreatState@ioSummonChargeItem@@IAEXPAVioBaseChar@@ABVioHashString@@MUD3DXVECTOR3@@@Z ENDP ; ioSummonChargeItem::ChangeToRetreatState
PUBLIC	__real@4066800000000000
PUBLIC	__real@4046800000000000
PUBLIC	_pOwner$GSCopy$
PUBLIC	__$ArrayPad$
PUBLIC	?CheckRetreat@ioSummonChargeItem@@IAE_NPAVioBaseChar@@_N@Z ; ioSummonChargeItem::CheckRetreat
EXTRN	_D3DXVec3Normalize@8:PROC
EXTRN	_D3DXQuaternionRotationYawPitchRoll@16:PROC
EXTRN	__imp_?ArrangeHead@ioMath@@SAMM@Z:PROC
EXTRN	?CheckCurDirKey@ioBaseChar@@QAE?AW4DirKeyInput@ioUserKeyInput@@XZ:PROC ; ioBaseChar::CheckCurDirKey
;	COMDAT __real@4066800000000000
; File c:\program files (x86)\microsoft directx sdk (june 2010)\include\d3dx9math.inl
CONST	SEGMENT
__real@4066800000000000 DQ 04066800000000000r	; 180
CONST	ENDS
;	COMDAT __real@4046800000000000
CONST	SEGMENT
__real@4046800000000000 DQ 04046800000000000r	; 45
; Function compile flags: /Ogsp
; File d:\lost saga for developer\youtube\tutorial\source\src\lsclient\iosummonchargeitem.cpp
CONST	ENDS
;	COMDAT ?CheckRetreat@ioSummonChargeItem@@IAE_NPAVioBaseChar@@_N@Z
_TEXT	SEGMENT
_qtRotate$ = -64					; size = 16
_pOwner$GSCopy$ = -48					; size = 4
tv252 = -44						; size = 4
tv240 = -44						; size = 4
_fYawD$ = -44						; size = 4
_vSightDir$ = -40					; size = 12
$T542783 = -28						; size = 12
_vMoveDir$ = -16					; size = 12
__$ArrayPad$ = -4					; size = 4
_pOwner$ = 8						; size = 4
_bFront$ = 12						; size = 1
?CheckRetreat@ioSummonChargeItem@@IAE_NPAVioBaseChar@@_N@Z PROC ; ioSummonChargeItem::CheckRetreat, COMDAT
; _this$ = ecx

; 881  : {

  00000	55		 push	 ebp
  00001	8b ec		 mov	 ebp, esp
  00003	83 ec 40	 sub	 esp, 64			; 00000040H
  00006	a1 00 00 00 00	 mov	 eax, DWORD PTR ___security_cookie
  0000b	33 c5		 xor	 eax, ebp
  0000d	89 45 fc	 mov	 DWORD PTR __$ArrayPad$[ebp], eax
  00010	53		 push	 ebx
  00011	56		 push	 esi
  00012	57		 push	 edi
  00013	8b 7d 08	 mov	 edi, DWORD PTR _pOwner$[ebp]
  00016	8b d9		 mov	 ebx, ecx

; 894  : 	}
; 895  : 
; 896  : 	ioEntityGroup *pGrp = pOwner->GetGroup();
; 897  : 	int iAniID = 0;
; 898  : 
; 899  : 	// KeyDir
; 900  : 	ioUserKeyInput::DirKeyInput eDir = pOwner->CheckCurDirKey();

  00018	89 7d d0	 mov	 DWORD PTR _pOwner$GSCopy$[ebp], edi
  0001b	85 ff		 test	 edi, edi
  0001d	75 07		 jne	 SHORT $LN2@CheckRetre

; 882  : 	if( !pOwner ) return false;

  0001f	32 c0		 xor	 al, al
  00021	e9 26 01 00 00	 jmp	 $LN3@CheckRetre
$LN2@CheckRetre:

; 883  : 
; 884  : 	DWORD dwCurTime = FRAMEGETTIME();

  00026	ff 15 00 00 00
	00		 call	 DWORD PTR __imp_?GetSingleton@ioFrameTimer@@SAAAV1@XZ
  0002c	8b c8		 mov	 ecx, eax
  0002e	ff 15 00 00 00
	00		 call	 DWORD PTR __imp_?GetLoopSec@ioFrameTimer@@QBEKXZ

; 885  : 
; 886  : 	//pOwner->SetAttackMoveEnable( false );
; 887  : 	pOwner->SetChargingState( false );

  00034	c6 87 54 20 00
	00 00		 mov	 BYTE PTR [edi+8276], 0

; 888  : 	m_bSetChargingMoveAni = false;
; 889  : 
; 890  : 	if( m_GatheringEffectID != -1 )

  0003b	8b 83 74 19 00
	00		 mov	 eax, DWORD PTR [ebx+6516]
  00041	c6 83 8c 19 00
	00 00		 mov	 BYTE PTR [ebx+6540], 0
  00048	83 f8 ff	 cmp	 eax, -1
  0004b	74 11		 je	 SHORT $LN1@CheckRetre

; 891  : 	{
; 892  : 		pOwner->EndEffect( m_GatheringEffectID, false );

  0004d	6a 00		 push	 0
  0004f	50		 push	 eax
  00050	8b cf		 mov	 ecx, edi
  00052	e8 00 00 00 00	 call	 ?EndEffect@ioBaseChar@@QAEXK_N@Z ; ioBaseChar::EndEffect

; 893  : 		m_GatheringEffectID = -1;

  00057	83 8b 74 19 00
	00 ff		 or	 DWORD PTR [ebx+6516], -1
$LN1@CheckRetre:

; 894  : 	}
; 895  : 
; 896  : 	ioEntityGroup *pGrp = pOwner->GetGroup();
; 897  : 	int iAniID = 0;
; 898  : 
; 899  : 	// KeyDir
; 900  : 	ioUserKeyInput::DirKeyInput eDir = pOwner->CheckCurDirKey();

  0005e	8b cf		 mov	 ecx, edi
  00060	e8 00 00 00 00	 call	 ?CheckCurDirKey@ioBaseChar@@QAE?AW4DirKeyInput@ioUserKeyInput@@XZ ; ioBaseChar::CheckCurDirKey

; 901  : 	float fYawD = 180.0f + 45.0f * ( eDir - ioUserKeyInput::DKI_UP );

  00065	0f 57 c0	 xorps	 xmm0, xmm0
  00068	48		 dec	 eax
  00069	f3 0f 2a c0	 cvtsi2ss xmm0, eax
  0006d	0f 5a c0	 cvtps2pd xmm0, xmm0
  00070	f2 0f 59 05 00
	00 00 00	 mulsd	 xmm0, QWORD PTR __real@4046800000000000
  00078	f2 0f 58 05 00
	00 00 00	 addsd	 xmm0, QWORD PTR __real@4066800000000000

; 902  : 	fYawD = ioMath::ArrangeHead( fYawD );

  00080	51		 push	 ecx
  00081	66 0f 5a c0	 cvtpd2ps xmm0, xmm0
  00085	f3 0f 11 04 24	 movss	 DWORD PTR [esp], xmm0
  0008a	ff 15 00 00 00
	00		 call	 DWORD PTR __imp_?ArrangeHead@ioMath@@SAMM@Z
  00090	d9 5d d4	 fstp	 DWORD PTR _fYawD$[ebp]

; 903  : 
; 904  : 	D3DXQUATERNION qtRotate;
; 905  : 	D3DXQuaternionRotationYawPitchRoll( &qtRotate, DEGtoRAD( fYawD ), 0.0f, 0.0f );

  00093	d9 45 d4	 fld	 DWORD PTR _fYawD$[ebp]
  00096	0f 57 c0	 xorps	 xmm0, xmm0
  00099	dc 0d 00 00 00
	00		 fmul	 QWORD PTR __real@3f91df46a2526c7a
  0009f	f3 0f 11 04 24	 movss	 DWORD PTR [esp], xmm0
  000a4	51		 push	 ecx
  000a5	51		 push	 ecx
  000a6	d9 5d d4	 fstp	 DWORD PTR tv252[ebp]
  000a9	f3 0f 11 44 24
	04		 movss	 DWORD PTR [esp+4], xmm0
  000af	d9 45 d4	 fld	 DWORD PTR tv252[ebp]
  000b2	8d 45 c0	 lea	 eax, DWORD PTR _qtRotate$[ebp]
  000b5	d9 1c 24	 fstp	 DWORD PTR [esp]
  000b8	50		 push	 eax
  000b9	e8 00 00 00 00	 call	 _D3DXQuaternionRotationYawPitchRoll@16

; 906  : 	D3DXVECTOR3 vSightDir = qtRotate * D3DXVECTOR3( 0.0f, 0.0f, -FLOAT1 );

  000be	b8 01 00 00 00	 mov	 eax, 1
  000c3	0f 57 c0	 xorps	 xmm0, xmm0
  000c6	89 45 d4	 mov	 DWORD PTR tv240[ebp], eax
  000c9	db 45 d4	 fild	 DWORD PTR tv240[ebp]
  000cc	f3 0f 11 45 e4	 movss	 DWORD PTR $T542783[ebp], xmm0
  000d1	f3 0f 11 45 e8	 movss	 DWORD PTR $T542783[ebp+4], xmm0
  000d6	85 c0		 test	 eax, eax
  000d8	79 06		 jns	 SHORT $LN19@CheckRetre
  000da	d8 05 00 00 00
	00		 fadd	 DWORD PTR __real@4f800000
$LN19@CheckRetre:
  000e0	8d 45 e4	 lea	 eax, DWORD PTR $T542783[ebp]
  000e3	d9 e0		 fchs
  000e5	50		 push	 eax
  000e6	d9 5d ec	 fstp	 DWORD PTR $T542783[ebp+8]
  000e9	8d 45 c0	 lea	 eax, DWORD PTR _qtRotate$[ebp]
  000ec	50		 push	 eax
  000ed	8d 45 d8	 lea	 eax, DWORD PTR _vSightDir$[ebp]
  000f0	50		 push	 eax
  000f1	ff 15 00 00 00
	00		 call	 DWORD PTR __imp_??D@YA?AUD3DXVECTOR3@@ABUD3DXQUATERNION@@ABU0@@Z

; 907  : 	D3DXVECTOR3 vMoveDir( vSightDir.x, 0.0f, vSightDir.z );

  000f7	f3 0f 10 45 d8	 movss	 xmm0, DWORD PTR _vSightDir$[ebp]
  000fc	83 c4 0c	 add	 esp, 12			; 0000000cH

; 908  : 	D3DXVec3Normalize( &vMoveDir, &vMoveDir );

  000ff	8d 45 f0	 lea	 eax, DWORD PTR _vMoveDir$[ebp]
  00102	f3 0f 11 45 f0	 movss	 DWORD PTR _vMoveDir$[ebp], xmm0
  00107	0f 57 c0	 xorps	 xmm0, xmm0
  0010a	50		 push	 eax
  0010b	f3 0f 11 45 f4	 movss	 DWORD PTR _vMoveDir$[ebp+4], xmm0
  00110	f3 0f 10 45 e0	 movss	 xmm0, DWORD PTR _vSightDir$[ebp+8]
  00115	50		 push	 eax
  00116	f3 0f 11 45 f8	 movss	 DWORD PTR _vMoveDir$[ebp+8], xmm0
  0011b	e8 00 00 00 00	 call	 _D3DXVec3Normalize@8

; 909  : 
; 910  : 	ChangeToRetreatState( pOwner, m_szRetreatFr, m_fRetreatFrRate, vMoveDir );

  00120	f3 0f 10 83 28
	1a 00 00	 movss	 xmm0, DWORD PTR [ebx+6696]
  00128	83 ec 0c	 sub	 esp, 12			; 0000000cH
  0012b	8b fc		 mov	 edi, esp
  0012d	8d 75 f0	 lea	 esi, DWORD PTR _vMoveDir$[ebp]
  00130	a5		 movsd
  00131	a5		 movsd
  00132	51		 push	 ecx
  00133	a5		 movsd
  00134	f3 0f 11 04 24	 movss	 DWORD PTR [esp], xmm0
  00139	8d 83 18 1a 00
	00		 lea	 eax, DWORD PTR [ebx+6680]
  0013f	50		 push	 eax
  00140	ff 75 d0	 push	 DWORD PTR _pOwner$GSCopy$[ebp]
  00143	8b cb		 mov	 ecx, ebx
  00145	e8 00 00 00 00	 call	 ?ChangeToRetreatState@ioSummonChargeItem@@IAEXPAVioBaseChar@@ABVioHashString@@MUD3DXVECTOR3@@@Z ; ioSummonChargeItem::ChangeToRetreatState

; 911  : 
; 912  : 	return true;

  0014a	b0 01		 mov	 al, 1
$LN3@CheckRetre:

; 913  : }

  0014c	8b 4d fc	 mov	 ecx, DWORD PTR __$ArrayPad$[ebp]
  0014f	5f		 pop	 edi
  00150	5e		 pop	 esi
  00151	33 cd		 xor	 ecx, ebp
  00153	5b		 pop	 ebx
  00154	e8 00 00 00 00	 call	 @__security_check_cookie@4
  00159	c9		 leave
  0015a	c2 08 00	 ret	 8
?CheckRetreat@ioSummonChargeItem@@IAE_NPAVioBaseChar@@_N@Z ENDP ; ioSummonChargeItem::CheckRetreat
_TEXT	ENDS
PUBLIC	?UpdateSkillGauge@ioSummonChargeItem@@UAEXPAVioBaseChar@@M_N@Z ; ioSummonChargeItem::UpdateSkillGauge
; Function compile flags: /Ogsp
;	COMDAT ?UpdateSkillGauge@ioSummonChargeItem@@UAEXPAVioBaseChar@@M_N@Z
_TEXT	SEGMENT
_value$549438 = -20					; size = 4
_value$549413 = -20					; size = 4
_value$549429 = -16					; size = 4
tv394 = -12						; size = 4
tv390 = -12						; size = 4
tv377 = -12						; size = 4
$T549439 = -12						; size = 4
_value$549420 = -8					; size = 4
_value$549417 = -8					; size = 4
_value$549368 = -4					; size = 4
_fNewRecovery$ = -4					; size = 4
$T549362 = -4						; size = 4
_fRecoveryGauge$ = -4					; size = 4
_value$549443 = 8					; size = 4
_value$549388 = 8					; size = 4
_iCurRecoveryTic$ = 8					; size = 4
_pOwner$ = 8						; size = 4
_fRate$ = 12						; size = 4
_bUpdate$ = 16						; size = 1
_value$549451 = 19					; size = 1
_value$549447 = 19					; size = 1
?UpdateSkillGauge@ioSummonChargeItem@@UAEXPAVioBaseChar@@M_N@Z PROC ; ioSummonChargeItem::UpdateSkillGauge, COMDAT
; _this$ = ecx

; 1004 : {

  00000	55		 push	 ebp
  00001	8b ec		 mov	 ebp, esp
  00003	83 ec 14	 sub	 esp, 20			; 00000014H
  00006	57		 push	 edi
  00007	8b f9		 mov	 edi, ecx

; 1005 : 	if( m_dwTicCheckTime == 0 )

  00009	8d 45 fc	 lea	 eax, DWORD PTR _value$549368[ebp]
  0000c	8d 8f 84 04 00
	00		 lea	 ecx, DWORD PTR [edi+1156]
  00012	50		 push	 eax
  00013	e8 00 00 00 00	 call	 ?DecryptValueToPool@?$CEncrypt@K@@QAEXPAK@Z ; CEncrypt<unsigned long>::DecryptValueToPool
  00018	83 7d fc 00	 cmp	 DWORD PTR _value$549368[ebp], 0
  0001c	0f 84 c1 01 00
	00		 je	 $LN58@UpdateSkil

; 1006 : 		return;
; 1007 : 
; 1008 : 	float fRecoveryGauge = 0.0f;

  00022	0f 57 c0	 xorps	 xmm0, xmm0
  00025	53		 push	 ebx
  00026	56		 push	 esi

; 1009 : 
; 1010 : 	if( pOwner->GetState() == CS_RUN ||
; 1011 : 		pOwner->GetState() == CS_DELAY ||
; 1012 : 		pOwner->GetState() == CS_SPECIAL_MOTION ||
; 1013 : 		pOwner->GetState() == CS_ETCITEM_MOTION ||
; 1014 : 		IsCanUpdateGauge(pOwner) )

  00027	8b 75 08	 mov	 esi, DWORD PTR _pOwner$[ebp]
  0002a	8a 86 10 03 00
	00		 mov	 al, BYTE PTR [esi+784]
  00030	f3 0f 11 45 fc	 movss	 DWORD PTR _fRecoveryGauge$[ebp], xmm0
  00035	3c 01		 cmp	 al, 1
  00037	74 40		 je	 SHORT $LN11@UpdateSkil
  00039	84 c0		 test	 al, al
  0003b	74 3c		 je	 SHORT $LN11@UpdateSkil
  0003d	3c 29		 cmp	 al, 41			; 00000029H
  0003f	74 38		 je	 SHORT $LN11@UpdateSkil
  00041	3c 39		 cmp	 al, 57			; 00000039H
  00043	74 34		 je	 SHORT $LN11@UpdateSkil
  00045	8b 07		 mov	 eax, DWORD PTR [edi]
  00047	56		 push	 esi
  00048	8b cf		 mov	 ecx, edi
  0004a	ff 90 5c 01 00
	00		 call	 DWORD PTR [eax+348]
  00050	84 c0		 test	 al, al
  00052	75 25		 jne	 SHORT $LN11@UpdateSkil

; 1017 : 	}
; 1018 : 	else if( pOwner->GetState() == CS_DIE ||
; 1019 : 		pOwner->GetState() == CS_VIEW ||
; 1020 : 		pOwner->GetState() == CS_LOADING ||
; 1021 : 		pOwner->GetState() == CS_OBSERVER )

  00054	8a 86 10 03 00
	00		 mov	 al, BYTE PTR [esi+784]
  0005a	3c 0e		 cmp	 al, 14			; 0000000eH
  0005c	74 15		 je	 SHORT $LN8@UpdateSkil
  0005e	3c 1a		 cmp	 al, 26			; 0000001aH
  00060	74 11		 je	 SHORT $LN8@UpdateSkil
  00062	3c 24		 cmp	 al, 36			; 00000024H
  00064	74 0d		 je	 SHORT $LN8@UpdateSkil
  00066	3c 2a		 cmp	 al, 42			; 0000002aH
  00068	74 09		 je	 SHORT $LN8@UpdateSkil

; 1026 : 	{
; 1027 : 		fRecoveryGauge = m_fDefaultGauge * pOwner->GetEtcGaugeRate();

  0006a	8b ce		 mov	 ecx, esi
  0006c	e8 00 00 00 00	 call	 ?GetEtcGaugeRate@ioBaseChar@@QBEMXZ ; ioBaseChar::GetEtcGaugeRate
  00071	eb 0d		 jmp	 SHORT $LN64@UpdateSkil
$LN8@UpdateSkil:

; 1022 : 	{
; 1023 : 		bUpdate = false;

  00073	c6 45 10 00	 mov	 BYTE PTR _bUpdate$[ebp], 0

; 1024 : 	}
; 1025 : 	else

  00077	eb 22		 jmp	 SHORT $LN7@UpdateSkil
$LN11@UpdateSkil:

; 1015 : 	{
; 1016 : 		fRecoveryGauge = m_fDefaultGauge * pOwner->GetDelayRunGaugeRate();

  00079	8b ce		 mov	 ecx, esi
  0007b	e8 00 00 00 00	 call	 ?GetDelayRunGaugeRate@ioBaseChar@@QBEMXZ ; ioBaseChar::GetDelayRunGaugeRate
$LN64@UpdateSkil:
  00080	8d 45 08	 lea	 eax, DWORD PTR _value$549388[ebp]
  00083	d9 5d fc	 fstp	 DWORD PTR $T549362[ebp]
  00086	50		 push	 eax
  00087	8d 8f 54 04 00
	00		 lea	 ecx, DWORD PTR [edi+1108]
  0008d	e8 00 00 00 00	 call	 ?DecryptValueToPool@?$CEncrypt@M@@QAEXPAM@Z ; CEncrypt<float>::DecryptValueToPool
  00092	d9 45 08	 fld	 DWORD PTR _value$549388[ebp]
  00095	d8 4d fc	 fmul	 DWORD PTR $T549362[ebp]
  00098	d9 5d fc	 fstp	 DWORD PTR _fRecoveryGauge$[ebp]
$LN7@UpdateSkil:

; 1028 : 	}
; 1029 : 
; 1030 : 
; 1031 : 	DWORD dwCurTime = FRAMEGETTIME();

  0009b	ff 15 00 00 00
	00		 call	 DWORD PTR __imp_?GetSingleton@ioFrameTimer@@SAAAV1@XZ
  000a1	8b c8		 mov	 ecx, eax
  000a3	ff 15 00 00 00
	00		 call	 DWORD PTR __imp_?GetLoopSec@ioFrameTimer@@QBEKXZ

; 1032 : 	int iCurRecoveryTic = (int)pOwner->GetDefaultRecoveryGaugeTic();

  000a9	8b ce		 mov	 ecx, esi
  000ab	8b d8		 mov	 ebx, eax
  000ad	e8 00 00 00 00	 call	 ?GetDefaultRecoveryGaugeTic@ioBaseChar@@QBEKXZ ; ioBaseChar::GetDefaultRecoveryGaugeTic
  000b2	89 45 08	 mov	 DWORD PTR _iCurRecoveryTic$[ebp], eax

; 1033 : 
; 1034 : 	float fPreGauge = m_fCurSkillGauge;

  000b5	8d 45 ec	 lea	 eax, DWORD PTR _value$549413[ebp]
  000b8	8d 8f f4 03 00
	00		 lea	 ecx, DWORD PTR [edi+1012]
  000be	50		 push	 eax
  000bf	e8 00 00 00 00	 call	 ?DecryptValueToPool@?$CEncrypt@M@@QAEXPAM@Z ; CEncrypt<float>::DecryptValueToPool

; 1035 : 	float fNewRecovery = fRecoveryGauge * fRate;

  000c4	f3 0f 10 45 fc	 movss	 xmm0, DWORD PTR _fRecoveryGauge$[ebp]
  000c9	f3 0f 10 4d 0c	 movss	 xmm1, DWORD PTR _fRate$[ebp]
  000ce	0f 5a c0	 cvtps2pd xmm0, xmm0
  000d1	0f 5a c9	 cvtps2pd xmm1, xmm1

; 1036 : 
; 1037 : 	int iTickGap = (int)( dwCurTime - m_dwTicCheckTime );

  000d4	8d 45 f8	 lea	 eax, DWORD PTR _value$549417[ebp]
  000d7	f2 0f 59 c1	 mulsd	 xmm0, xmm1
  000db	f2 0f 5a c0	 cvtsd2ss xmm0, xmm0
  000df	50		 push	 eax
  000e0	8d 8f 84 04 00
	00		 lea	 ecx, DWORD PTR [edi+1156]
  000e6	f3 0f 11 45 fc	 movss	 DWORD PTR _fNewRecovery$[ebp], xmm0
  000eb	e8 00 00 00 00	 call	 ?DecryptValueToPool@?$CEncrypt@K@@QAEXPAK@Z ; CEncrypt<unsigned long>::DecryptValueToPool
  000f0	8b f3		 mov	 esi, ebx
  000f2	2b 75 f8	 sub	 esi, DWORD PTR _value$549417[ebp]

; 1038 : 	if( iTickGap >= iCurRecoveryTic )

  000f5	3b 75 08	 cmp	 esi, DWORD PTR _iCurRecoveryTic$[ebp]
  000f8	0f 8c ba 00 00
	00		 jl	 $LN54@UpdateSkil
$LL5@UpdateSkil:

; 1039 : 	{
; 1040 : 		while( iTickGap >= iCurRecoveryTic )
; 1041 : 		{
; 1042 : 			if( bUpdate )

  000fe	80 7d 10 00	 cmp	 BYTE PTR _bUpdate$[ebp], 0
  00102	0f 84 90 00 00
	00		 je	 $LN52@UpdateSkil

; 1043 : 			{
; 1044 : 				m_fCurSkillGauge = min( m_fCurSkillGauge+fNewRecovery, FLOAT100 );

  00108	8d 45 f8	 lea	 eax, DWORD PTR _value$549420[ebp]
  0010b	50		 push	 eax
  0010c	8d 8f f4 03 00
	00		 lea	 ecx, DWORD PTR [edi+1012]
  00112	e8 00 00 00 00	 call	 ?DecryptValueToPool@?$CEncrypt@M@@QAEXPAM@Z ; CEncrypt<float>::DecryptValueToPool
  00117	b8 64 00 00 00	 mov	 eax, 100		; 00000064H
  0011c	d9 45 f8	 fld	 DWORD PTR _value$549420[ebp]
  0011f	d8 45 fc	 fadd	 DWORD PTR _fNewRecovery$[ebp]
  00122	d9 5d f4	 fstp	 DWORD PTR tv394[ebp]
  00125	d9 45 f4	 fld	 DWORD PTR tv394[ebp]
  00128	89 45 f4	 mov	 DWORD PTR tv390[ebp], eax
  0012b	db 45 f4	 fild	 DWORD PTR tv390[ebp]
  0012e	85 c0		 test	 eax, eax
  00130	79 06		 jns	 SHORT $LN62@UpdateSkil
  00132	d8 05 00 00 00
	00		 fadd	 DWORD PTR __real@4f800000
$LN62@UpdateSkil:
  00138	df f1		 fcomip	 ST(1)
  0013a	dd d8		 fstp	 ST(0)
  0013c	76 29		 jbe	 SHORT $LN16@UpdateSkil
  0013e	8d 45 f0	 lea	 eax, DWORD PTR _value$549429[ebp]
  00141	50		 push	 eax
  00142	8d 8f f4 03 00
	00		 lea	 ecx, DWORD PTR [edi+1012]
  00148	e8 00 00 00 00	 call	 ?DecryptValueToPool@?$CEncrypt@M@@QAEXPAM@Z ; CEncrypt<float>::DecryptValueToPool
  0014d	f3 0f 10 45 f0	 movss	 xmm0, DWORD PTR _value$549429[ebp]
  00152	f3 0f 10 4d fc	 movss	 xmm1, DWORD PTR _fNewRecovery$[ebp]
  00157	0f 5a c0	 cvtps2pd xmm0, xmm0
  0015a	0f 5a c9	 cvtps2pd xmm1, xmm1
  0015d	f2 0f 58 c1	 addsd	 xmm0, xmm1
  00161	66 0f 5a c0	 cvtpd2ps xmm0, xmm0
  00165	eb 1d		 jmp	 SHORT $LN17@UpdateSkil
$LN16@UpdateSkil:
  00167	b8 64 00 00 00	 mov	 eax, 100		; 00000064H
  0016c	89 45 f4	 mov	 DWORD PTR tv377[ebp], eax
  0016f	db 45 f4	 fild	 DWORD PTR tv377[ebp]
  00172	85 c0		 test	 eax, eax
  00174	79 06		 jns	 SHORT $LN63@UpdateSkil
  00176	d8 05 00 00 00
	00		 fadd	 DWORD PTR __real@4f800000
$LN63@UpdateSkil:
  0017c	d9 5d f4	 fstp	 DWORD PTR $T549439[ebp]
  0017f	f3 0f 10 45 f4	 movss	 xmm0, DWORD PTR $T549439[ebp]
$LN17@UpdateSkil:
  00184	8d 45 ec	 lea	 eax, DWORD PTR _value$549438[ebp]
  00187	50		 push	 eax
  00188	8d 8f f4 03 00
	00		 lea	 ecx, DWORD PTR [edi+1012]
  0018e	f3 0f 11 45 ec	 movss	 DWORD PTR _value$549438[ebp], xmm0
  00193	e8 00 00 00 00	 call	 ?EncryptValueToPool@?$CEncrypt@M@@AAEXPBD@Z ; CEncrypt<float>::EncryptValueToPool
$LN52@UpdateSkil:

; 1045 : 			}
; 1046 : 
; 1047 : 			iTickGap -= iCurRecoveryTic;

  00198	2b 75 08	 sub	 esi, DWORD PTR _iCurRecoveryTic$[ebp]
  0019b	3b 75 08	 cmp	 esi, DWORD PTR _iCurRecoveryTic$[ebp]
  0019e	0f 8d 5a ff ff
	ff		 jge	 $LL5@UpdateSkil

; 1048 : 		}
; 1049 : 
; 1050 : 		m_dwTicCheckTime = dwCurTime - iTickGap;

  001a4	8d 45 08	 lea	 eax, DWORD PTR _value$549443[ebp]
  001a7	2b de		 sub	 ebx, esi
  001a9	50		 push	 eax
  001aa	8d 8f 84 04 00
	00		 lea	 ecx, DWORD PTR [edi+1156]
  001b0	89 5d 08	 mov	 DWORD PTR _value$549443[ebp], ebx
  001b3	e8 00 00 00 00	 call	 ?EncryptValueToPool@?$CEncrypt@K@@AAEXPBD@Z ; CEncrypt<unsigned long>::EncryptValueToPool
$LN54@UpdateSkil:

; 1051 : 	}
; 1052 : 
; 1053 : //#ifndef SHIPPING 
; 1054 : //	if( Setting::ShowExtraInfo() )
; 1055 : //	{
; 1056 : //		float fMaxGauge = GetMaxSkillGauge( pOwner->GetCharName() );
; 1057 : //
; 1058 : //		if( fMaxGauge < 100.0f )
; 1059 : //		{
; 1060 : //			if( fPreGauge == 0.0f && m_fCurSkillGauge > 0.0f )
; 1061 : //			{
; 1062 : //				LOG.PrintTimeAndLog( 0, "SkillCheck - %s, MaxGauge: %f", GetSkillName().c_str(), fMaxGauge );
; 1063 : //				LOG.PrintTimeAndLog( 0, "SkillCheck - %s, RecoveryStart: %d", GetSkillName().c_str(), FRAMEGETTIME() );
; 1064 : //			}
; 1065 : //
; 1066 : //			if( fPreGauge < fMaxGauge && m_fCurSkillGauge >= fMaxGauge )
; 1067 : //			{
; 1068 : //				LOG.PrintTimeAndLog( 0, "SkillCheck - %s, RecoveryEnd: %d", GetSkillName().c_str(), FRAMEGETTIME() );
; 1069 : //			}
; 1070 : //		}
; 1071 : //	}
; 1072 : //#endif
; 1073 : 
; 1074 : 	if( fRate > 0.0f )

  001b8	f3 0f 10 45 0c	 movss	 xmm0, DWORD PTR _fRate$[ebp]
  001bd	0f 2f 05 00 00
	00 00		 comiss	 xmm0, DWORD PTR __real@00000000
  001c4	5e		 pop	 esi
  001c5	5b		 pop	 ebx

; 1075 : 		m_bUpdateEnableSkillGauge = bUpdate;

  001c6	8d 8f 94 03 00
	00		 lea	 ecx, DWORD PTR [edi+916]
  001cc	76 08		 jbe	 SHORT $LN2@UpdateSkil
  001ce	8a 45 10	 mov	 al, BYTE PTR _bUpdate$[ebp]
  001d1	88 45 13	 mov	 BYTE PTR _value$549447[ebp], al

; 1076 : 	else

  001d4	eb 04		 jmp	 SHORT $LN65@UpdateSkil
$LN2@UpdateSkil:

; 1077 : 		m_bUpdateEnableSkillGauge = false;

  001d6	c6 45 13 00	 mov	 BYTE PTR _value$549451[ebp], 0
$LN65@UpdateSkil:
  001da	8d 45 13	 lea	 eax, DWORD PTR _value$549451[ebp]
  001dd	50		 push	 eax
  001de	e8 00 00 00 00	 call	 ?EncryptValueToPool@?$CEncrypt@_N@@AAEXPBD@Z ; CEncrypt<bool>::EncryptValueToPool
$LN58@UpdateSkil:
  001e3	5f		 pop	 edi

; 1078 : }

  001e4	c9		 leave
  001e5	c2 0c 00	 ret	 12			; 0000000cH
?UpdateSkillGauge@ioSummonChargeItem@@UAEXPAVioBaseChar@@M_N@Z ENDP ; ioSummonChargeItem::UpdateSkillGauge
_TEXT	ENDS
PUBLIC	??0?$CEncrypt@H@@QAE@ABV0@@Z			; CEncrypt<int>::CEncrypt<int>
;	COMDAT xdata$x
; File d:\lost saga for developer\youtube\tutorial\source\src\lsclient\encryptvalue.h
xdata$x	SEGMENT
__unwindtable$??0?$CEncrypt@H@@QAE@ABV0@@Z DD 0ffffffffH
	DD	FLAT:__unwindfunclet$??0?$CEncrypt@H@@QAE@ABV0@@Z$0
__ehfuncinfo$??0?$CEncrypt@H@@QAE@ABV0@@Z DD 019930522H
	DD	01H
	DD	FLAT:__unwindtable$??0?$CEncrypt@H@@QAE@ABV0@@Z
	DD	2 DUP(00H)
	DD	2 DUP(00H)
	DD	00H
	DD	01H
; Function compile flags: /Ogsp
xdata$x	ENDS
;	COMDAT ??0?$CEncrypt@H@@QAE@ABV0@@Z
_TEXT	SEGMENT
_this$ = -16						; size = 4
__$EHRec$ = -12						; size = 12
_value$549469 = 8					; size = 4
_value$549464 = 8					; size = 4
_inValue$ = 8						; size = 4
??0?$CEncrypt@H@@QAE@ABV0@@Z PROC			; CEncrypt<int>::CEncrypt<int>, COMDAT
; _this$ = ecx

; 120  : 	CEncrypt( const CEncrypt<type> &inValue )   //     

  00000	6a 04		 push	 4
  00002	b8 00 00 00 00	 mov	 eax, __ehhandler$??0?$CEncrypt@H@@QAE@ABV0@@Z
  00007	e8 00 00 00 00	 call	 __EH_prolog3
  0000c	8b f1		 mov	 esi, ecx
  0000e	89 75 f0	 mov	 DWORD PTR _this$[ebp], esi
  00011	8d 4e 0c	 lea	 ecx, DWORD PTR [esi+12]
  00014	c7 06 00 00 00
	00		 mov	 DWORD PTR [esi], OFFSET ??_7?$CEncrypt@H@@6B@
  0001a	e8 00 00 00 00	 call	 ??0ccddaabb@@QAE@XZ	; ccddaabb::ccddaabb
  0001f	83 65 fc 00	 and	 DWORD PTR __$EHRec$[ebp+8], 0

; 121  : 	{
; 122  : 		Init();

  00023	8b ce		 mov	 ecx, esi
  00025	e8 00 00 00 00	 call	 ?Init@?$CEncrypt@H@@AAEXXZ ; CEncrypt<int>::Init

; 123  : 		*this = inValue;

  0002a	8b 4d 08	 mov	 ecx, DWORD PTR _inValue$[ebp]
  0002d	8d 45 08	 lea	 eax, DWORD PTR _value$549464[ebp]
  00030	50		 push	 eax
  00031	e8 00 00 00 00	 call	 ?DecryptValueToPool@?$CEncrypt@H@@QAEXPAH@Z ; CEncrypt<int>::DecryptValueToPool
  00036	8b 45 08	 mov	 eax, DWORD PTR _value$549464[ebp]
  00039	89 45 08	 mov	 DWORD PTR _value$549469[ebp], eax
  0003c	8d 45 08	 lea	 eax, DWORD PTR _value$549469[ebp]
  0003f	50		 push	 eax
  00040	8b ce		 mov	 ecx, esi
  00042	e8 00 00 00 00	 call	 ?EncryptValueToPool@?$CEncrypt@H@@AAEXPBD@Z ; CEncrypt<int>::EncryptValueToPool

; 124  : 	}

  00047	8b c6		 mov	 eax, esi
  00049	e8 00 00 00 00	 call	 __EH_epilog3
  0004e	c2 04 00	 ret	 4
_TEXT	ENDS
;	COMDAT text$x
text$x	SEGMENT
__unwindfunclet$??0?$CEncrypt@H@@QAE@ABV0@@Z$0:
  00000	8b 4d f0	 mov	 ecx, DWORD PTR _this$[ebp]
  00003	83 c1 0c	 add	 ecx, 12			; 0000000cH
  00006	e9 00 00 00 00	 jmp	 ??1ccddaabb@@UAE@XZ	; ccddaabb::~ccddaabb
__ehhandler$??0?$CEncrypt@H@@QAE@ABV0@@Z:
  0000b	8b 54 24 08	 mov	 edx, DWORD PTR [esp+8]
  0000f	8d 42 0c	 lea	 eax, DWORD PTR [edx+12]
  00012	8b 4a ec	 mov	 ecx, DWORD PTR [edx-20]
  00015	33 c8		 xor	 ecx, eax
  00017	e8 00 00 00 00	 call	 @__security_check_cookie@4
  0001c	b8 00 00 00 00	 mov	 eax, OFFSET __ehfuncinfo$??0?$CEncrypt@H@@QAE@ABV0@@Z
  00021	e9 00 00 00 00	 jmp	 ___CxxFrameHandler3
text$x	ENDS
??0?$CEncrypt@H@@QAE@ABV0@@Z ENDP			; CEncrypt<int>::CEncrypt<int>
PUBLIC	??0?$vector@UtagSummonAttackInfo@@V?$allocator@UtagSummonAttackInfo@@@std@@@std@@QAE@XZ ; std::vector<tagSummonAttackInfo,std::allocator<tagSummonAttackInfo> >::vector<tagSummonAttackInfo,std::allocator<tagSummonAttackInfo> >
; Function compile flags: /Ogsp
; File c:\program files (x86)\microsoft visual studio 10.0\vc\include\vector
;	COMDAT ??0?$vector@UtagSummonAttackInfo@@V?$allocator@UtagSummonAttackInfo@@@std@@@std@@QAE@XZ
_TEXT	SEGMENT
??0?$vector@UtagSummonAttackInfo@@V?$allocator@UtagSummonAttackInfo@@@std@@@std@@QAE@XZ PROC ; std::vector<tagSummonAttackInfo,std::allocator<tagSummonAttackInfo> >::vector<tagSummonAttackInfo,std::allocator<tagSummonAttackInfo> >, COMDAT
; _this$ = ecx

; 507  : 		{	// construct empty vector

  00000	8b c1		 mov	 eax, ecx
  00002	33 c9		 xor	 ecx, ecx
  00004	89 08		 mov	 DWORD PTR [eax], ecx
  00006	89 48 04	 mov	 DWORD PTR [eax+4], ecx
  00009	89 48 08	 mov	 DWORD PTR [eax+8], ecx

; 508  : 		}

  0000c	c3		 ret	 0
??0?$vector@UtagSummonAttackInfo@@V?$allocator@UtagSummonAttackInfo@@@std@@@std@@QAE@XZ ENDP ; std::vector<tagSummonAttackInfo,std::allocator<tagSummonAttackInfo> >::vector<tagSummonAttackInfo,std::allocator<tagSummonAttackInfo> >
_TEXT	ENDS
PUBLIC	?_Buy@?$vector@UtagSummonAttackInfo@@V?$allocator@UtagSummonAttackInfo@@@std@@@std@@IAE_NI@Z ; std::vector<tagSummonAttackInfo,std::allocator<tagSummonAttackInfo> >::_Buy
; Function compile flags: /Ogsp
;	COMDAT ?_Buy@?$vector@UtagSummonAttackInfo@@V?$allocator@UtagSummonAttackInfo@@@std@@@std@@IAE_NI@Z
_TEXT	SEGMENT
__Capacity$ = 8						; size = 4
?_Buy@?$vector@UtagSummonAttackInfo@@V?$allocator@UtagSummonAttackInfo@@@std@@@std@@IAE_NI@Z PROC ; std::vector<tagSummonAttackInfo,std::allocator<tagSummonAttackInfo> >::_Buy, COMDAT
; _this$ = ecx

; 1250 : 		{	// allocate array with _Capacity elements

  00000	55		 push	 ebp
  00001	8b ec		 mov	 ebp, esp
  00003	56		 push	 esi

; 1251 : 		this->_Myfirst = 0;

  00004	33 c0		 xor	 eax, eax
  00006	57		 push	 edi

; 1252 : 		this->_Mylast = 0;
; 1253 : 		this->_Myend = 0;
; 1254 : 
; 1255 : 		if (_Capacity == 0)

  00007	8b 7d 08	 mov	 edi, DWORD PTR __Capacity$[ebp]
  0000a	8b f1		 mov	 esi, ecx
  0000c	89 06		 mov	 DWORD PTR [esi], eax
  0000e	89 46 04	 mov	 DWORD PTR [esi+4], eax
  00011	89 46 08	 mov	 DWORD PTR [esi+8], eax
  00014	3b f8		 cmp	 edi, eax
  00016	75 04		 jne	 SHORT $LN4@Buy

; 1256 : 			return (false);

  00018	32 c0		 xor	 al, al
  0001a	eb 2b		 jmp	 SHORT $LN5@Buy
$LN4@Buy:

; 1257 : 		else if (max_size() < _Capacity)

  0001c	81 ff 2c f7 34
	02		 cmp	 edi, 37025580		; 0234f72cH
  00022	76 0b		 jbe	 SHORT $LN2@Buy

; 1258 : 			_Xlen();	// result too long

  00024	68 00 00 00 00	 push	 OFFSET ??_C@_0BD@OLBABOEK@vector?$DMT?$DO?5too?5long?$AA@
  00029	ff 15 00 00 00
	00		 call	 DWORD PTR __imp_?_Xlength_error@std@@YAXPBD@Z
$LN19@Buy:
$LN2@Buy:

; 1259 : 		else
; 1260 : 			{	// nonempty array, allocate storage
; 1261 : 			this->_Myfirst = this->_Alval.allocate(_Capacity);

  0002f	50		 push	 eax
  00030	57		 push	 edi
  00031	e8 00 00 00 00	 call	 ??$_Allocate@UtagSummonAttackInfo@@@std@@YAPAUtagSummonAttackInfo@@IPAU1@@Z ; std::_Allocate<tagSummonAttackInfo>

; 1262 : 			this->_Mylast = this->_Myfirst;
; 1263 : 			this->_Myend = this->_Myfirst + _Capacity;

  00036	6b ff 74	 imul	 edi, 116		; 00000074H
  00039	03 f8		 add	 edi, eax
  0003b	59		 pop	 ecx
  0003c	89 06		 mov	 DWORD PTR [esi], eax
  0003e	89 46 04	 mov	 DWORD PTR [esi+4], eax
  00041	59		 pop	 ecx
  00042	89 7e 08	 mov	 DWORD PTR [esi+8], edi

; 1264 : 			}
; 1265 : 		return (true);

  00045	b0 01		 mov	 al, 1
$LN5@Buy:
  00047	5f		 pop	 edi
  00048	5e		 pop	 esi

; 1266 : 		}

  00049	5d		 pop	 ebp
  0004a	c2 04 00	 ret	 4
$LN18@Buy:
?_Buy@?$vector@UtagSummonAttackInfo@@V?$allocator@UtagSummonAttackInfo@@@std@@@std@@IAE_NI@Z ENDP ; std::vector<tagSummonAttackInfo,std::allocator<tagSummonAttackInfo> >::_Buy
_TEXT	ENDS
PUBLIC	??9?$_Vector_const_iterator@V?$_Vector_val@UtagSummonAttackInfo@@V?$allocator@UtagSummonAttackInfo@@@std@@@std@@@std@@QBE_NABV01@@Z ; std::_Vector_const_iterator<std::_Vector_val<tagSummonAttackInfo,std::allocator<tagSummonAttackInfo> > >::operator!=
; Function compile flags: /Ogsp
;	COMDAT ??9?$_Vector_const_iterator@V?$_Vector_val@UtagSummonAttackInfo@@V?$allocator@UtagSummonAttackInfo@@@std@@@std@@@std@@QBE_NABV01@@Z
_TEXT	SEGMENT
__Right$ = 8						; size = 4
??9?$_Vector_const_iterator@V?$_Vector_val@UtagSummonAttackInfo@@V?$allocator@UtagSummonAttackInfo@@@std@@@std@@@std@@QBE_NABV01@@Z PROC ; std::_Vector_const_iterator<std::_Vector_val<tagSummonAttackInfo,std::allocator<tagSummonAttackInfo> > >::operator!=, COMDAT
; _this$ = ecx

; 207  : 		{	// test for iterator inequality

  00000	55		 push	 ebp
  00001	8b ec		 mov	 ebp, esp

; 208  : 		return (!(*this == _Right));

  00003	8b 01		 mov	 eax, DWORD PTR [ecx]
  00005	8b 55 08	 mov	 edx, DWORD PTR __Right$[ebp]
  00008	33 c9		 xor	 ecx, ecx
  0000a	3b 02		 cmp	 eax, DWORD PTR [edx]
  0000c	0f 95 c0	 setne	 al

; 209  : 		}

  0000f	5d		 pop	 ebp
  00010	c2 04 00	 ret	 4
??9?$_Vector_const_iterator@V?$_Vector_val@UtagSummonAttackInfo@@V?$allocator@UtagSummonAttackInfo@@@std@@@std@@@std@@QBE_NABV01@@Z ENDP ; std::_Vector_const_iterator<std::_Vector_val<tagSummonAttackInfo,std::allocator<tagSummonAttackInfo> > >::operator!=
_TEXT	ENDS
PUBLIC	??$_Cons_val@V?$allocator@UForceInfo@@@std@@UForceInfo@@ABU3@@std@@YAXAAV?$allocator@UForceInfo@@@0@PAUForceInfo@@ABU2@@Z ; std::_Cons_val<std::allocator<ForceInfo>,ForceInfo,ForceInfo const &>
; Function compile flags: /Ogsp
; File c:\program files (x86)\microsoft visual studio 10.0\vc\include\xmemory
;	COMDAT ??$_Cons_val@V?$allocator@UForceInfo@@@std@@UForceInfo@@ABU3@@std@@YAXAAV?$allocator@UForceInfo@@@0@PAUForceInfo@@ABU2@@Z
_TEXT	SEGMENT
__Alval$ = 8						; size = 4
__Pdest$ = 12						; size = 4
__Src$ = 16						; size = 4
??$_Cons_val@V?$allocator@UForceInfo@@@std@@UForceInfo@@ABU3@@std@@YAXAAV?$allocator@UForceInfo@@@0@PAUForceInfo@@ABU2@@Z PROC ; std::_Cons_val<std::allocator<ForceInfo>,ForceInfo,ForceInfo const &>, COMDAT

; 279  : 	{	// construct using allocator

  00000	55		 push	 ebp
  00001	8b ec		 mov	 ebp, esp
  00003	57		 push	 edi

; 280  : 	_Alval.construct(_Pdest, _STD forward<_Ty2>(_Src));

  00004	8b 7d 0c	 mov	 edi, DWORD PTR __Pdest$[ebp]
  00007	85 ff		 test	 edi, edi
  00009	74 08		 je	 SHORT $LN9@Cons_val@2
  0000b	56		 push	 esi
  0000c	8b 75 10	 mov	 esi, DWORD PTR __Src$[ebp]
  0000f	a5		 movsd
  00010	a5		 movsd
  00011	a5		 movsd
  00012	5e		 pop	 esi
$LN9@Cons_val@2:
  00013	5f		 pop	 edi

; 281  : 	}

  00014	5d		 pop	 ebp
  00015	c3		 ret	 0
??$_Cons_val@V?$allocator@UForceInfo@@@std@@UForceInfo@@ABU3@@std@@YAXAAV?$allocator@UForceInfo@@@0@PAUForceInfo@@ABU2@@Z ENDP ; std::_Cons_val<std::allocator<ForceInfo>,ForceInfo,ForceInfo const &>
_TEXT	ENDS
PUBLIC	?construct@?$allocator@UWeaponInfo@@@std@@QAEXPAUWeaponInfo@@ABU3@@Z ; std::allocator<WeaponInfo>::construct
; Function compile flags: /Ogsp
;	COMDAT ?construct@?$allocator@UWeaponInfo@@@std@@QAEXPAUWeaponInfo@@ABU3@@Z
_TEXT	SEGMENT
__Ptr$ = 8						; size = 4
__Val$ = 12						; size = 4
?construct@?$allocator@UWeaponInfo@@@std@@QAEXPAUWeaponInfo@@ABU3@@Z PROC ; std::allocator<WeaponInfo>::construct, COMDAT
; _this$ = ecx

; 196  : 		{	// construct object at _Ptr with value _Val

  00000	55		 push	 ebp
  00001	8b ec		 mov	 ebp, esp

; 197  : 		_Construct(_Ptr, _Val);

  00003	ff 75 0c	 push	 DWORD PTR __Val$[ebp]
  00006	ff 75 08	 push	 DWORD PTR __Ptr$[ebp]
  00009	e8 00 00 00 00	 call	 ??$_Construct@UWeaponInfo@@ABU1@@std@@YAXPAUWeaponInfo@@ABU1@@Z ; std::_Construct<WeaponInfo,WeaponInfo const &>
  0000e	59		 pop	 ecx
  0000f	59		 pop	 ecx

; 198  : 		}

  00010	5d		 pop	 ebp
  00011	c2 08 00	 ret	 8
?construct@?$allocator@UWeaponInfo@@@std@@QAEXPAUWeaponInfo@@ABU3@@Z ENDP ; std::allocator<WeaponInfo>::construct
_TEXT	ENDS
PUBLIC	??0?$vector@UWeaponInfo@@V?$allocator@UWeaponInfo@@@std@@@std@@QAE@XZ ; std::vector<WeaponInfo,std::allocator<WeaponInfo> >::vector<WeaponInfo,std::allocator<WeaponInfo> >
; Function compile flags: /Ogsp
; File c:\program files (x86)\microsoft visual studio 10.0\vc\include\vector
;	COMDAT ??0?$vector@UWeaponInfo@@V?$allocator@UWeaponInfo@@@std@@@std@@QAE@XZ
_TEXT	SEGMENT
??0?$vector@UWeaponInfo@@V?$allocator@UWeaponInfo@@@std@@@std@@QAE@XZ PROC ; std::vector<WeaponInfo,std::allocator<WeaponInfo> >::vector<WeaponInfo,std::allocator<WeaponInfo> >, COMDAT
; _this$ = ecx

; 507  : 		{	// construct empty vector

  00000	8b c1		 mov	 eax, ecx
  00002	33 c9		 xor	 ecx, ecx
  00004	89 08		 mov	 DWORD PTR [eax], ecx
  00006	89 48 04	 mov	 DWORD PTR [eax+4], ecx
  00009	89 48 08	 mov	 DWORD PTR [eax+8], ecx

; 508  : 		}

  0000c	c3		 ret	 0
??0?$vector@UWeaponInfo@@V?$allocator@UWeaponInfo@@@std@@@std@@QAE@XZ ENDP ; std::vector<WeaponInfo,std::allocator<WeaponInfo> >::vector<WeaponInfo,std::allocator<WeaponInfo> >
_TEXT	ENDS
PUBLIC	??0?$vector@UForceInfo@@V?$allocator@UForceInfo@@@std@@@std@@QAE@XZ ; std::vector<ForceInfo,std::allocator<ForceInfo> >::vector<ForceInfo,std::allocator<ForceInfo> >
; Function compile flags: /Ogsp
;	COMDAT ??0?$vector@UForceInfo@@V?$allocator@UForceInfo@@@std@@@std@@QAE@XZ
_TEXT	SEGMENT
??0?$vector@UForceInfo@@V?$allocator@UForceInfo@@@std@@@std@@QAE@XZ PROC ; std::vector<ForceInfo,std::allocator<ForceInfo> >::vector<ForceInfo,std::allocator<ForceInfo> >, COMDAT
; _this$ = ecx

; 507  : 		{	// construct empty vector

  00000	8b c1		 mov	 eax, ecx
  00002	33 c9		 xor	 ecx, ecx
  00004	89 08		 mov	 DWORD PTR [eax], ecx
  00006	89 48 04	 mov	 DWORD PTR [eax+4], ecx
  00009	89 48 08	 mov	 DWORD PTR [eax+8], ecx

; 508  : 		}

  0000c	c3		 ret	 0
??0?$vector@UForceInfo@@V?$allocator@UForceInfo@@@std@@@std@@QAE@XZ ENDP ; std::vector<ForceInfo,std::allocator<ForceInfo> >::vector<ForceInfo,std::allocator<ForceInfo> >
_TEXT	ENDS
PUBLIC	??0?$CEncrypt@M@@QAE@ABV0@@Z			; CEncrypt<float>::CEncrypt<float>
;	COMDAT xdata$x
; File d:\lost saga for developer\youtube\tutorial\source\src\lsclient\encryptvalue.h
xdata$x	SEGMENT
__unwindtable$??0?$CEncrypt@M@@QAE@ABV0@@Z DD 0ffffffffH
	DD	FLAT:__unwindfunclet$??0?$CEncrypt@M@@QAE@ABV0@@Z$0
__ehfuncinfo$??0?$CEncrypt@M@@QAE@ABV0@@Z DD 019930522H
	DD	01H
	DD	FLAT:__unwindtable$??0?$CEncrypt@M@@QAE@ABV0@@Z
	DD	2 DUP(00H)
	DD	2 DUP(00H)
	DD	00H
	DD	01H
; Function compile flags: /Ogsp
xdata$x	ENDS
;	COMDAT ??0?$CEncrypt@M@@QAE@ABV0@@Z
_TEXT	SEGMENT
_this$ = -16						; size = 4
__$EHRec$ = -12						; size = 12
_value$549618 = 8					; size = 4
_value$549613 = 8					; size = 4
_inValue$ = 8						; size = 4
??0?$CEncrypt@M@@QAE@ABV0@@Z PROC			; CEncrypt<float>::CEncrypt<float>, COMDAT
; _this$ = ecx

; 120  : 	CEncrypt( const CEncrypt<type> &inValue )   //     

  00000	6a 04		 push	 4
  00002	b8 00 00 00 00	 mov	 eax, __ehhandler$??0?$CEncrypt@M@@QAE@ABV0@@Z
  00007	e8 00 00 00 00	 call	 __EH_prolog3
  0000c	8b f1		 mov	 esi, ecx
  0000e	89 75 f0	 mov	 DWORD PTR _this$[ebp], esi
  00011	8d 4e 0c	 lea	 ecx, DWORD PTR [esi+12]
  00014	c7 06 00 00 00
	00		 mov	 DWORD PTR [esi], OFFSET ??_7?$CEncrypt@M@@6B@
  0001a	e8 00 00 00 00	 call	 ??0ccddaabb@@QAE@XZ	; ccddaabb::ccddaabb
  0001f	83 65 fc 00	 and	 DWORD PTR __$EHRec$[ebp+8], 0

; 121  : 	{
; 122  : 		Init();

  00023	8b ce		 mov	 ecx, esi
  00025	e8 00 00 00 00	 call	 ?Init@?$CEncrypt@M@@AAEXXZ ; CEncrypt<float>::Init

; 123  : 		*this = inValue;

  0002a	8b 4d 08	 mov	 ecx, DWORD PTR _inValue$[ebp]
  0002d	8d 45 08	 lea	 eax, DWORD PTR _value$549613[ebp]
  00030	50		 push	 eax
  00031	e8 00 00 00 00	 call	 ?DecryptValueToPool@?$CEncrypt@M@@QAEXPAM@Z ; CEncrypt<float>::DecryptValueToPool
  00036	f3 0f 10 45 08	 movss	 xmm0, DWORD PTR _value$549613[ebp]
  0003b	8d 45 08	 lea	 eax, DWORD PTR _value$549618[ebp]
  0003e	50		 push	 eax
  0003f	8b ce		 mov	 ecx, esi
  00041	f3 0f 11 45 08	 movss	 DWORD PTR _value$549618[ebp], xmm0
  00046	e8 00 00 00 00	 call	 ?EncryptValueToPool@?$CEncrypt@M@@AAEXPBD@Z ; CEncrypt<float>::EncryptValueToPool

; 124  : 	}

  0004b	8b c6		 mov	 eax, esi
  0004d	e8 00 00 00 00	 call	 __EH_epilog3
  00052	c2 04 00	 ret	 4
_TEXT	ENDS
;	COMDAT text$x
text$x	SEGMENT
__unwindfunclet$??0?$CEncrypt@M@@QAE@ABV0@@Z$0:
  00000	8b 4d f0	 mov	 ecx, DWORD PTR _this$[ebp]
  00003	83 c1 0c	 add	 ecx, 12			; 0000000cH
  00006	e9 00 00 00 00	 jmp	 ??1ccddaabb@@UAE@XZ	; ccddaabb::~ccddaabb
__ehhandler$??0?$CEncrypt@M@@QAE@ABV0@@Z:
  0000b	8b 54 24 08	 mov	 edx, DWORD PTR [esp+8]
  0000f	8d 42 0c	 lea	 eax, DWORD PTR [edx+12]
  00012	8b 4a ec	 mov	 ecx, DWORD PTR [edx-20]
  00015	33 c8		 xor	 ecx, eax
  00017	e8 00 00 00 00	 call	 @__security_check_cookie@4
  0001c	b8 00 00 00 00	 mov	 eax, OFFSET __ehfuncinfo$??0?$CEncrypt@M@@QAE@ABV0@@Z
  00021	e9 00 00 00 00	 jmp	 ___CxxFrameHandler3
text$x	ENDS
??0?$CEncrypt@M@@QAE@ABV0@@Z ENDP			; CEncrypt<float>::CEncrypt<float>
PUBLIC	?_Buy@?$vector@UWeaponInfo@@V?$allocator@UWeaponInfo@@@std@@@std@@IAE_NI@Z ; std::vector<WeaponInfo,std::allocator<WeaponInfo> >::_Buy
; Function compile flags: /Ogsp
; File c:\program files (x86)\microsoft visual studio 10.0\vc\include\vector
;	COMDAT ?_Buy@?$vector@UWeaponInfo@@V?$allocator@UWeaponInfo@@@std@@@std@@IAE_NI@Z
_TEXT	SEGMENT
__Capacity$ = 8						; size = 4
?_Buy@?$vector@UWeaponInfo@@V?$allocator@UWeaponInfo@@@std@@@std@@IAE_NI@Z PROC ; std::vector<WeaponInfo,std::allocator<WeaponInfo> >::_Buy, COMDAT
; _this$ = ecx

; 1250 : 		{	// allocate array with _Capacity elements

  00000	55		 push	 ebp
  00001	8b ec		 mov	 ebp, esp
  00003	56		 push	 esi

; 1251 : 		this->_Myfirst = 0;

  00004	33 c0		 xor	 eax, eax
  00006	57		 push	 edi

; 1252 : 		this->_Mylast = 0;
; 1253 : 		this->_Myend = 0;
; 1254 : 
; 1255 : 		if (_Capacity == 0)

  00007	8b 7d 08	 mov	 edi, DWORD PTR __Capacity$[ebp]
  0000a	8b f1		 mov	 esi, ecx
  0000c	89 06		 mov	 DWORD PTR [esi], eax
  0000e	89 46 04	 mov	 DWORD PTR [esi+4], eax
  00011	89 46 08	 mov	 DWORD PTR [esi+8], eax
  00014	3b f8		 cmp	 edi, eax
  00016	75 04		 jne	 SHORT $LN4@Buy@2

; 1256 : 			return (false);

  00018	32 c0		 xor	 al, al
  0001a	eb 2b		 jmp	 SHORT $LN5@Buy@2
$LN4@Buy@2:

; 1257 : 		else if (max_size() < _Capacity)

  0001c	81 ff 66 66 66
	06		 cmp	 edi, 107374182		; 06666666H
  00022	76 0b		 jbe	 SHORT $LN2@Buy@2

; 1258 : 			_Xlen();	// result too long

  00024	68 00 00 00 00	 push	 OFFSET ??_C@_0BD@OLBABOEK@vector?$DMT?$DO?5too?5long?$AA@
  00029	ff 15 00 00 00
	00		 call	 DWORD PTR __imp_?_Xlength_error@std@@YAXPBD@Z
$LN19@Buy@2:
$LN2@Buy@2:

; 1259 : 		else
; 1260 : 			{	// nonempty array, allocate storage
; 1261 : 			this->_Myfirst = this->_Alval.allocate(_Capacity);

  0002f	50		 push	 eax
  00030	57		 push	 edi
  00031	e8 00 00 00 00	 call	 ??$_Allocate@UWeaponInfo@@@std@@YAPAUWeaponInfo@@IPAU1@@Z ; std::_Allocate<WeaponInfo>

; 1262 : 			this->_Mylast = this->_Myfirst;
; 1263 : 			this->_Myend = this->_Myfirst + _Capacity;

  00036	6b ff 28	 imul	 edi, 40			; 00000028H
  00039	03 f8		 add	 edi, eax
  0003b	59		 pop	 ecx
  0003c	89 06		 mov	 DWORD PTR [esi], eax
  0003e	89 46 04	 mov	 DWORD PTR [esi+4], eax
  00041	59		 pop	 ecx
  00042	89 7e 08	 mov	 DWORD PTR [esi+8], edi

; 1264 : 			}
; 1265 : 		return (true);

  00045	b0 01		 mov	 al, 1
$LN5@Buy@2:
  00047	5f		 pop	 edi
  00048	5e		 pop	 esi

; 1266 : 		}

  00049	5d		 pop	 ebp
  0004a	c2 04 00	 ret	 4
$LN18@Buy@2:
?_Buy@?$vector@UWeaponInfo@@V?$allocator@UWeaponInfo@@@std@@@std@@IAE_NI@Z ENDP ; std::vector<WeaponInfo,std::allocator<WeaponInfo> >::_Buy
_TEXT	ENDS
PUBLIC	?_Buy@?$vector@UForceInfo@@V?$allocator@UForceInfo@@@std@@@std@@IAE_NI@Z ; std::vector<ForceInfo,std::allocator<ForceInfo> >::_Buy
; Function compile flags: /Ogsp
;	COMDAT ?_Buy@?$vector@UForceInfo@@V?$allocator@UForceInfo@@@std@@@std@@IAE_NI@Z
_TEXT	SEGMENT
__Capacity$ = 8						; size = 4
?_Buy@?$vector@UForceInfo@@V?$allocator@UForceInfo@@@std@@@std@@IAE_NI@Z PROC ; std::vector<ForceInfo,std::allocator<ForceInfo> >::_Buy, COMDAT
; _this$ = ecx

; 1250 : 		{	// allocate array with _Capacity elements

  00000	55		 push	 ebp
  00001	8b ec		 mov	 ebp, esp
  00003	56		 push	 esi

; 1251 : 		this->_Myfirst = 0;

  00004	33 c0		 xor	 eax, eax
  00006	57		 push	 edi

; 1252 : 		this->_Mylast = 0;
; 1253 : 		this->_Myend = 0;
; 1254 : 
; 1255 : 		if (_Capacity == 0)

  00007	8b 7d 08	 mov	 edi, DWORD PTR __Capacity$[ebp]
  0000a	8b f1		 mov	 esi, ecx
  0000c	89 06		 mov	 DWORD PTR [esi], eax
  0000e	89 46 04	 mov	 DWORD PTR [esi+4], eax
  00011	89 46 08	 mov	 DWORD PTR [esi+8], eax
  00014	3b f8		 cmp	 edi, eax
  00016	75 04		 jne	 SHORT $LN4@Buy@3

; 1256 : 			return (false);

  00018	32 c0		 xor	 al, al
  0001a	eb 2b		 jmp	 SHORT $LN5@Buy@3
$LN4@Buy@3:

; 1257 : 		else if (max_size() < _Capacity)

  0001c	81 ff 55 55 55
	15		 cmp	 edi, 357913941		; 15555555H
  00022	76 0b		 jbe	 SHORT $LN2@Buy@3

; 1258 : 			_Xlen();	// result too long

  00024	68 00 00 00 00	 push	 OFFSET ??_C@_0BD@OLBABOEK@vector?$DMT?$DO?5too?5long?$AA@
  00029	ff 15 00 00 00
	00		 call	 DWORD PTR __imp_?_Xlength_error@std@@YAXPBD@Z
$LN19@Buy@3:
$LN2@Buy@3:

; 1259 : 		else
; 1260 : 			{	// nonempty array, allocate storage
; 1261 : 			this->_Myfirst = this->_Alval.allocate(_Capacity);

  0002f	50		 push	 eax
  00030	57		 push	 edi
  00031	e8 00 00 00 00	 call	 ??$_Allocate@UForceInfo@@@std@@YAPAUForceInfo@@IPAU1@@Z ; std::_Allocate<ForceInfo>

; 1262 : 			this->_Mylast = this->_Myfirst;
; 1263 : 			this->_Myend = this->_Myfirst + _Capacity;

  00036	6b ff 0c	 imul	 edi, 12			; 0000000cH
  00039	03 f8		 add	 edi, eax
  0003b	59		 pop	 ecx
  0003c	89 06		 mov	 DWORD PTR [esi], eax
  0003e	89 46 04	 mov	 DWORD PTR [esi+4], eax
  00041	59		 pop	 ecx
  00042	89 7e 08	 mov	 DWORD PTR [esi+8], edi

; 1264 : 			}
; 1265 : 		return (true);

  00045	b0 01		 mov	 al, 1
$LN5@Buy@3:
  00047	5f		 pop	 edi
  00048	5e		 pop	 esi

; 1266 : 		}

  00049	5d		 pop	 ebp
  0004a	c2 04 00	 ret	 4
$LN18@Buy@3:
?_Buy@?$vector@UForceInfo@@V?$allocator@UForceInfo@@@std@@@std@@IAE_NI@Z ENDP ; std::vector<ForceInfo,std::allocator<ForceInfo> >::_Buy
_TEXT	ENDS
PUBLIC	?begin@?$vector@UWeaponInfo@@V?$allocator@UWeaponInfo@@@std@@@std@@QAE?AV?$_Vector_iterator@V?$_Vector_val@UWeaponInfo@@V?$allocator@UWeaponInfo@@@std@@@std@@@2@XZ ; std::vector<WeaponInfo,std::allocator<WeaponInfo> >::begin
; Function compile flags: /Ogsp
;	COMDAT ?begin@?$vector@UWeaponInfo@@V?$allocator@UWeaponInfo@@@std@@@std@@QAE?AV?$_Vector_iterator@V?$_Vector_val@UWeaponInfo@@V?$allocator@UWeaponInfo@@@std@@@std@@@2@XZ
_TEXT	SEGMENT
___$ReturnUdt$ = 8					; size = 4
?begin@?$vector@UWeaponInfo@@V?$allocator@UWeaponInfo@@@std@@@std@@QAE?AV?$_Vector_iterator@V?$_Vector_val@UWeaponInfo@@V?$allocator@UWeaponInfo@@@std@@@std@@@2@XZ PROC ; std::vector<WeaponInfo,std::allocator<WeaponInfo> >::begin, COMDAT
; _this$ = ecx

; 781  : 		{	// return iterator for beginning of mutable sequence

  00000	55		 push	 ebp
  00001	8b ec		 mov	 ebp, esp

; 782  : 		return (iterator(this->_Myfirst, this));

  00003	8b 09		 mov	 ecx, DWORD PTR [ecx]
  00005	8b 45 08	 mov	 eax, DWORD PTR ___$ReturnUdt$[ebp]
  00008	89 08		 mov	 DWORD PTR [eax], ecx

; 783  : 		}

  0000a	5d		 pop	 ebp
  0000b	c2 04 00	 ret	 4
?begin@?$vector@UWeaponInfo@@V?$allocator@UWeaponInfo@@@std@@@std@@QAE?AV?$_Vector_iterator@V?$_Vector_val@UWeaponInfo@@V?$allocator@UWeaponInfo@@@std@@@std@@@2@XZ ENDP ; std::vector<WeaponInfo,std::allocator<WeaponInfo> >::begin
_TEXT	ENDS
PUBLIC	?end@?$vector@UWeaponInfo@@V?$allocator@UWeaponInfo@@@std@@@std@@QAE?AV?$_Vector_iterator@V?$_Vector_val@UWeaponInfo@@V?$allocator@UWeaponInfo@@@std@@@std@@@2@XZ ; std::vector<WeaponInfo,std::allocator<WeaponInfo> >::end
; Function compile flags: /Ogsp
;	COMDAT ?end@?$vector@UWeaponInfo@@V?$allocator@UWeaponInfo@@@std@@@std@@QAE?AV?$_Vector_iterator@V?$_Vector_val@UWeaponInfo@@V?$allocator@UWeaponInfo@@@std@@@std@@@2@XZ
_TEXT	SEGMENT
___$ReturnUdt$ = 8					; size = 4
?end@?$vector@UWeaponInfo@@V?$allocator@UWeaponInfo@@@std@@@std@@QAE?AV?$_Vector_iterator@V?$_Vector_val@UWeaponInfo@@V?$allocator@UWeaponInfo@@@std@@@std@@@2@XZ PROC ; std::vector<WeaponInfo,std::allocator<WeaponInfo> >::end, COMDAT
; _this$ = ecx

; 791  : 		{	// return iterator for end of mutable sequence

  00000	55		 push	 ebp
  00001	8b ec		 mov	 ebp, esp

; 792  : 		return (iterator(this->_Mylast, this));

  00003	8b 49 04	 mov	 ecx, DWORD PTR [ecx+4]
  00006	8b 45 08	 mov	 eax, DWORD PTR ___$ReturnUdt$[ebp]
  00009	89 08		 mov	 DWORD PTR [eax], ecx

; 793  : 		}

  0000b	5d		 pop	 ebp
  0000c	c2 04 00	 ret	 4
?end@?$vector@UWeaponInfo@@V?$allocator@UWeaponInfo@@@std@@@std@@QAE?AV?$_Vector_iterator@V?$_Vector_val@UWeaponInfo@@V?$allocator@UWeaponInfo@@@std@@@std@@@2@XZ ENDP ; std::vector<WeaponInfo,std::allocator<WeaponInfo> >::end
_TEXT	ENDS
PUBLIC	?begin@?$vector@UForceInfo@@V?$allocator@UForceInfo@@@std@@@std@@QAE?AV?$_Vector_iterator@V?$_Vector_val@UForceInfo@@V?$allocator@UForceInfo@@@std@@@std@@@2@XZ ; std::vector<ForceInfo,std::allocator<ForceInfo> >::begin
; Function compile flags: /Ogsp
;	COMDAT ?begin@?$vector@UForceInfo@@V?$allocator@UForceInfo@@@std@@@std@@QAE?AV?$_Vector_iterator@V?$_Vector_val@UForceInfo@@V?$allocator@UForceInfo@@@std@@@std@@@2@XZ
_TEXT	SEGMENT
___$ReturnUdt$ = 8					; size = 4
?begin@?$vector@UForceInfo@@V?$allocator@UForceInfo@@@std@@@std@@QAE?AV?$_Vector_iterator@V?$_Vector_val@UForceInfo@@V?$allocator@UForceInfo@@@std@@@std@@@2@XZ PROC ; std::vector<ForceInfo,std::allocator<ForceInfo> >::begin, COMDAT
; _this$ = ecx

; 781  : 		{	// return iterator for beginning of mutable sequence

  00000	55		 push	 ebp
  00001	8b ec		 mov	 ebp, esp

; 782  : 		return (iterator(this->_Myfirst, this));

  00003	8b 09		 mov	 ecx, DWORD PTR [ecx]
  00005	8b 45 08	 mov	 eax, DWORD PTR ___$ReturnUdt$[ebp]
  00008	89 08		 mov	 DWORD PTR [eax], ecx

; 783  : 		}

  0000a	5d		 pop	 ebp
  0000b	c2 04 00	 ret	 4
?begin@?$vector@UForceInfo@@V?$allocator@UForceInfo@@@std@@@std@@QAE?AV?$_Vector_iterator@V?$_Vector_val@UForceInfo@@V?$allocator@UForceInfo@@@std@@@std@@@2@XZ ENDP ; std::vector<ForceInfo,std::allocator<ForceInfo> >::begin
_TEXT	ENDS
PUBLIC	?end@?$vector@UForceInfo@@V?$allocator@UForceInfo@@@std@@@std@@QAE?AV?$_Vector_iterator@V?$_Vector_val@UForceInfo@@V?$allocator@UForceInfo@@@std@@@std@@@2@XZ ; std::vector<ForceInfo,std::allocator<ForceInfo> >::end
; Function compile flags: /Ogsp
;	COMDAT ?end@?$vector@UForceInfo@@V?$allocator@UForceInfo@@@std@@@std@@QAE?AV?$_Vector_iterator@V?$_Vector_val@UForceInfo@@V?$allocator@UForceInfo@@@std@@@std@@@2@XZ
_TEXT	SEGMENT
___$ReturnUdt$ = 8					; size = 4
?end@?$vector@UForceInfo@@V?$allocator@UForceInfo@@@std@@@std@@QAE?AV?$_Vector_iterator@V?$_Vector_val@UForceInfo@@V?$allocator@UForceInfo@@@std@@@std@@@2@XZ PROC ; std::vector<ForceInfo,std::allocator<ForceInfo> >::end, COMDAT
; _this$ = ecx

; 791  : 		{	// return iterator for end of mutable sequence

  00000	55		 push	 ebp
  00001	8b ec		 mov	 ebp, esp

; 792  : 		return (iterator(this->_Mylast, this));

  00003	8b 49 04	 mov	 ecx, DWORD PTR [ecx+4]
  00006	8b 45 08	 mov	 eax, DWORD PTR ___$ReturnUdt$[ebp]
  00009	89 08		 mov	 DWORD PTR [eax], ecx

; 793  : 		}

  0000b	5d		 pop	 ebp
  0000c	c2 04 00	 ret	 4
?end@?$vector@UForceInfo@@V?$allocator@UForceInfo@@@std@@@std@@QAE?AV?$_Vector_iterator@V?$_Vector_val@UForceInfo@@V?$allocator@UForceInfo@@@std@@@std@@@2@XZ ENDP ; std::vector<ForceInfo,std::allocator<ForceInfo> >::end
_TEXT	ENDS
PUBLIC	?_Make_iter@?$vector@UWeaponInfo@@V?$allocator@UWeaponInfo@@@std@@@std@@QBE?AV?$_Vector_iterator@V?$_Vector_val@UWeaponInfo@@V?$allocator@UWeaponInfo@@@std@@@std@@@2@V?$_Vector_const_iterator@V?$_Vector_val@UWeaponInfo@@V?$allocator@UWeaponInfo@@@std@@@std@@@2@@Z ; std::vector<WeaponInfo,std::allocator<WeaponInfo> >::_Make_iter
; Function compile flags: /Ogsp
;	COMDAT ?_Make_iter@?$vector@UWeaponInfo@@V?$allocator@UWeaponInfo@@@std@@@std@@QBE?AV?$_Vector_iterator@V?$_Vector_val@UWeaponInfo@@V?$allocator@UWeaponInfo@@@std@@@std@@@2@V?$_Vector_const_iterator@V?$_Vector_val@UWeaponInfo@@V?$allocator@UWeaponInfo@@@std@@@std@@@2@@Z
_TEXT	SEGMENT
___$ReturnUdt$ = 8					; size = 4
__Where$ = 12						; size = 4
?_Make_iter@?$vector@UWeaponInfo@@V?$allocator@UWeaponInfo@@@std@@@std@@QBE?AV?$_Vector_iterator@V?$_Vector_val@UWeaponInfo@@V?$allocator@UWeaponInfo@@@std@@@std@@@2@V?$_Vector_const_iterator@V?$_Vector_val@UWeaponInfo@@V?$allocator@UWeaponInfo@@@std@@@std@@@2@@Z PROC ; std::vector<WeaponInfo,std::allocator<WeaponInfo> >::_Make_iter, COMDAT
; _this$ = ecx

; 801  : 		{	// make iterator from const_iterator

  00000	55		 push	 ebp
  00001	8b ec		 mov	 ebp, esp

; 802  : 		return (iterator(_Where._Ptr, this));

  00003	8b 45 08	 mov	 eax, DWORD PTR ___$ReturnUdt$[ebp]
  00006	8b 4d 0c	 mov	 ecx, DWORD PTR __Where$[ebp]
  00009	89 08		 mov	 DWORD PTR [eax], ecx

; 803  : 		}

  0000b	5d		 pop	 ebp
  0000c	c2 08 00	 ret	 8
?_Make_iter@?$vector@UWeaponInfo@@V?$allocator@UWeaponInfo@@@std@@@std@@QBE?AV?$_Vector_iterator@V?$_Vector_val@UWeaponInfo@@V?$allocator@UWeaponInfo@@@std@@@std@@@2@V?$_Vector_const_iterator@V?$_Vector_val@UWeaponInfo@@V?$allocator@UWeaponInfo@@@std@@@std@@@2@@Z ENDP ; std::vector<WeaponInfo,std::allocator<WeaponInfo> >::_Make_iter
_TEXT	ENDS
PUBLIC	?_Make_iter@?$vector@UForceInfo@@V?$allocator@UForceInfo@@@std@@@std@@QBE?AV?$_Vector_iterator@V?$_Vector_val@UForceInfo@@V?$allocator@UForceInfo@@@std@@@std@@@2@V?$_Vector_const_iterator@V?$_Vector_val@UForceInfo@@V?$allocator@UForceInfo@@@std@@@std@@@2@@Z ; std::vector<ForceInfo,std::allocator<ForceInfo> >::_Make_iter
; Function compile flags: /Ogsp
;	COMDAT ?_Make_iter@?$vector@UForceInfo@@V?$allocator@UForceInfo@@@std@@@std@@QBE?AV?$_Vector_iterator@V?$_Vector_val@UForceInfo@@V?$allocator@UForceInfo@@@std@@@std@@@2@V?$_Vector_const_iterator@V?$_Vector_val@UForceInfo@@V?$allocator@UForceInfo@@@std@@@std@@@2@@Z
_TEXT	SEGMENT
___$ReturnUdt$ = 8					; size = 4
__Where$ = 12						; size = 4
?_Make_iter@?$vector@UForceInfo@@V?$allocator@UForceInfo@@@std@@@std@@QBE?AV?$_Vector_iterator@V?$_Vector_val@UForceInfo@@V?$allocator@UForceInfo@@@std@@@std@@@2@V?$_Vector_const_iterator@V?$_Vector_val@UForceInfo@@V?$allocator@UForceInfo@@@std@@@std@@@2@@Z PROC ; std::vector<ForceInfo,std::allocator<ForceInfo> >::_Make_iter, COMDAT
; _this$ = ecx

; 801  : 		{	// make iterator from const_iterator

  00000	55		 push	 ebp
  00001	8b ec		 mov	 ebp, esp

; 802  : 		return (iterator(_Where._Ptr, this));

  00003	8b 45 08	 mov	 eax, DWORD PTR ___$ReturnUdt$[ebp]
  00006	8b 4d 0c	 mov	 ecx, DWORD PTR __Where$[ebp]
  00009	89 08		 mov	 DWORD PTR [eax], ecx

; 803  : 		}

  0000b	5d		 pop	 ebp
  0000c	c2 08 00	 ret	 8
?_Make_iter@?$vector@UForceInfo@@V?$allocator@UForceInfo@@@std@@@std@@QBE?AV?$_Vector_iterator@V?$_Vector_val@UForceInfo@@V?$allocator@UForceInfo@@@std@@@std@@@2@V?$_Vector_const_iterator@V?$_Vector_val@UForceInfo@@V?$allocator@UForceInfo@@@std@@@std@@@2@@Z ENDP ; std::vector<ForceInfo,std::allocator<ForceInfo> >::_Make_iter
_TEXT	ENDS
PUBLIC	??9?$_Vector_const_iterator@V?$_Vector_val@UWeaponInfo@@V?$allocator@UWeaponInfo@@@std@@@std@@@std@@QBE_NABV01@@Z ; std::_Vector_const_iterator<std::_Vector_val<WeaponInfo,std::allocator<WeaponInfo> > >::operator!=
; Function compile flags: /Ogsp
;	COMDAT ??9?$_Vector_const_iterator@V?$_Vector_val@UWeaponInfo@@V?$allocator@UWeaponInfo@@@std@@@std@@@std@@QBE_NABV01@@Z
_TEXT	SEGMENT
__Right$ = 8						; size = 4
??9?$_Vector_const_iterator@V?$_Vector_val@UWeaponInfo@@V?$allocator@UWeaponInfo@@@std@@@std@@@std@@QBE_NABV01@@Z PROC ; std::_Vector_const_iterator<std::_Vector_val<WeaponInfo,std::allocator<WeaponInfo> > >::operator!=, COMDAT
; _this$ = ecx

; 207  : 		{	// test for iterator inequality

  00000	55		 push	 ebp
  00001	8b ec		 mov	 ebp, esp

; 208  : 		return (!(*this == _Right));

  00003	8b 01		 mov	 eax, DWORD PTR [ecx]
  00005	8b 55 08	 mov	 edx, DWORD PTR __Right$[ebp]
  00008	33 c9		 xor	 ecx, ecx
  0000a	3b 02		 cmp	 eax, DWORD PTR [edx]
  0000c	0f 95 c0	 setne	 al

; 209  : 		}

  0000f	5d		 pop	 ebp
  00010	c2 04 00	 ret	 4
??9?$_Vector_const_iterator@V?$_Vector_val@UWeaponInfo@@V?$allocator@UWeaponInfo@@@std@@@std@@@std@@QBE_NABV01@@Z ENDP ; std::_Vector_const_iterator<std::_Vector_val<WeaponInfo,std::allocator<WeaponInfo> > >::operator!=
_TEXT	ENDS
PUBLIC	??9?$_Vector_const_iterator@V?$_Vector_val@UForceInfo@@V?$allocator@UForceInfo@@@std@@@std@@@std@@QBE_NABV01@@Z ; std::_Vector_const_iterator<std::_Vector_val<ForceInfo,std::allocator<ForceInfo> > >::operator!=
; Function compile flags: /Ogsp
;	COMDAT ??9?$_Vector_const_iterator@V?$_Vector_val@UForceInfo@@V?$allocator@UForceInfo@@@std@@@std@@@std@@QBE_NABV01@@Z
_TEXT	SEGMENT
__Right$ = 8						; size = 4
??9?$_Vector_const_iterator@V?$_Vector_val@UForceInfo@@V?$allocator@UForceInfo@@@std@@@std@@@std@@QBE_NABV01@@Z PROC ; std::_Vector_const_iterator<std::_Vector_val<ForceInfo,std::allocator<ForceInfo> > >::operator!=, COMDAT
; _this$ = ecx

; 207  : 		{	// test for iterator inequality

  00000	55		 push	 ebp
  00001	8b ec		 mov	 ebp, esp

; 208  : 		return (!(*this == _Right));

  00003	8b 01		 mov	 eax, DWORD PTR [ecx]
  00005	8b 55 08	 mov	 edx, DWORD PTR __Right$[ebp]
  00008	33 c9		 xor	 ecx, ecx
  0000a	3b 02		 cmp	 eax, DWORD PTR [edx]
  0000c	0f 95 c0	 setne	 al

; 209  : 		}

  0000f	5d		 pop	 ebp
  00010	c2 04 00	 ret	 4
??9?$_Vector_const_iterator@V?$_Vector_val@UForceInfo@@V?$allocator@UForceInfo@@@std@@@std@@@std@@QBE_NABV01@@Z ENDP ; std::_Vector_const_iterator<std::_Vector_val<ForceInfo,std::allocator<ForceInfo> > >::operator!=
_TEXT	ENDS
PUBLIC	??$_Dest_val@V?$allocator@UForceInfo@@@std@@UForceInfo@@@std@@YAXAAV?$allocator@UForceInfo@@@0@PAUForceInfo@@@Z ; std::_Dest_val<std::allocator<ForceInfo>,ForceInfo>
; Function compile flags: /Ogsp
; File c:\program files (x86)\microsoft visual studio 10.0\vc\include\xmemory
;	COMDAT ??$_Dest_val@V?$allocator@UForceInfo@@@std@@UForceInfo@@@std@@YAXAAV?$allocator@UForceInfo@@@0@PAUForceInfo@@@Z
_TEXT	SEGMENT
__Alval$ = 8						; size = 4
__Pdest$ = 12						; size = 4
??$_Dest_val@V?$allocator@UForceInfo@@@std@@UForceInfo@@@std@@YAXAAV?$allocator@UForceInfo@@@0@PAUForceInfo@@@Z PROC ; std::_Dest_val<std::allocator<ForceInfo>,ForceInfo>, COMDAT

; 287  : 	_Alval.destroy(_Pdest);
; 288  : 	}

  00000	c3		 ret	 0
??$_Dest_val@V?$allocator@UForceInfo@@@std@@UForceInfo@@@std@@YAXAAV?$allocator@UForceInfo@@@0@PAUForceInfo@@@Z ENDP ; std::_Dest_val<std::allocator<ForceInfo>,ForceInfo>
_TEXT	ENDS
PUBLIC	??$_Copy_impl@PAUWeaponInfo@@PAU1@@std@@YAPAUWeaponInfo@@PAU1@00@Z ; std::_Copy_impl<WeaponInfo *,WeaponInfo *>
; Function compile flags: /Ogsp
; File c:\program files (x86)\microsoft visual studio 10.0\vc\include\xutility
;	COMDAT ??$_Copy_impl@PAUWeaponInfo@@PAU1@@std@@YAPAUWeaponInfo@@PAU1@00@Z
_TEXT	SEGMENT
__Cat$549823 = -4					; size = 1
__First$ = 8						; size = 4
__Last$ = 12						; size = 4
__Dest$ = 16						; size = 4
??$_Copy_impl@PAUWeaponInfo@@PAU1@@std@@YAPAUWeaponInfo@@PAU1@00@Z PROC ; std::_Copy_impl<WeaponInfo *,WeaponInfo *>, COMDAT

; 2163 : 	{	// copy [_First, _Last) to [_Dest, ...)

  00000	55		 push	 ebp
  00001	8b ec		 mov	 ebp, esp
  00003	51		 push	 ecx

; 2164 : 	return (_Copy_impl(_First, _Last,
; 2165 : 		_Dest, _Ptr_cat(_First, _Dest)));

  00004	ff 75 fc	 push	 DWORD PTR __Cat$549823[ebp]
  00007	ff 75 10	 push	 DWORD PTR __Dest$[ebp]
  0000a	ff 75 0c	 push	 DWORD PTR __Last$[ebp]
  0000d	ff 75 08	 push	 DWORD PTR __First$[ebp]
  00010	e8 00 00 00 00	 call	 ??$_Copy_impl@PAUWeaponInfo@@PAU1@@std@@YAPAUWeaponInfo@@PAU1@00U_Nonscalar_ptr_iterator_tag@0@@Z ; std::_Copy_impl<WeaponInfo *,WeaponInfo *>
  00015	83 c4 10	 add	 esp, 16			; 00000010H

; 2166 : 	}

  00018	c9		 leave
  00019	c3		 ret	 0
??$_Copy_impl@PAUWeaponInfo@@PAU1@@std@@YAPAUWeaponInfo@@PAU1@00@Z ENDP ; std::_Copy_impl<WeaponInfo *,WeaponInfo *>
_TEXT	ENDS
PUBLIC	??$_Move@PAUWeaponInfo@@PAU1@@std@@YAPAUWeaponInfo@@PAU1@00@Z ; std::_Move<WeaponInfo *,WeaponInfo *>
; Function compile flags: /Ogsp
;	COMDAT ??$_Move@PAUWeaponInfo@@PAU1@@std@@YAPAUWeaponInfo@@PAU1@00@Z
_TEXT	SEGMENT
__Cat$549830 = -4					; size = 1
__First$ = 8						; size = 4
__Last$ = 12						; size = 4
__Dest$ = 16						; size = 4
??$_Move@PAUWeaponInfo@@PAU1@@std@@YAPAUWeaponInfo@@PAU1@00@Z PROC ; std::_Move<WeaponInfo *,WeaponInfo *>, COMDAT

; 2533 : 	{	// move [_First, _Last) to [_Dest, ...), unchecked

  00000	55		 push	 ebp
  00001	8b ec		 mov	 ebp, esp
  00003	51		 push	 ecx

; 2534 : 	return (_Move(_First, _Last,
; 2535 : 		_Dest, _Ptr_cat(_First, _Dest)));

  00004	ff 75 fc	 push	 DWORD PTR __Cat$549830[ebp]
  00007	ff 75 10	 push	 DWORD PTR __Dest$[ebp]
  0000a	ff 75 0c	 push	 DWORD PTR __Last$[ebp]
  0000d	ff 75 08	 push	 DWORD PTR __First$[ebp]
  00010	e8 00 00 00 00	 call	 ??$_Move@PAUWeaponInfo@@PAU1@@std@@YAPAUWeaponInfo@@PAU1@00U_Nonscalar_ptr_iterator_tag@0@@Z ; std::_Move<WeaponInfo *,WeaponInfo *>
  00015	83 c4 10	 add	 esp, 16			; 00000010H

; 2536 : 	}

  00018	c9		 leave
  00019	c3		 ret	 0
??$_Move@PAUWeaponInfo@@PAU1@@std@@YAPAUWeaponInfo@@PAU1@00@Z ENDP ; std::_Move<WeaponInfo *,WeaponInfo *>
_TEXT	ENDS
PUBLIC	??$_Move@PAUForceInfo@@PAU1@@std@@YAPAUForceInfo@@PAU1@00@Z ; std::_Move<ForceInfo *,ForceInfo *>
; Function compile flags: /Ogsp
;	COMDAT ??$_Move@PAUForceInfo@@PAU1@@std@@YAPAUForceInfo@@PAU1@00@Z
_TEXT	SEGMENT
__Cat$549837 = -4					; size = 1
__First$ = 8						; size = 4
__Last$ = 12						; size = 4
__Dest$ = 16						; size = 4
??$_Move@PAUForceInfo@@PAU1@@std@@YAPAUForceInfo@@PAU1@00@Z PROC ; std::_Move<ForceInfo *,ForceInfo *>, COMDAT

; 2533 : 	{	// move [_First, _Last) to [_Dest, ...), unchecked

  00000	55		 push	 ebp
  00001	8b ec		 mov	 ebp, esp
  00003	51		 push	 ecx

; 2534 : 	return (_Move(_First, _Last,
; 2535 : 		_Dest, _Ptr_cat(_First, _Dest)));

  00004	ff 75 fc	 push	 DWORD PTR __Cat$549837[ebp]
  00007	ff 75 10	 push	 DWORD PTR __Dest$[ebp]
  0000a	ff 75 0c	 push	 DWORD PTR __Last$[ebp]
  0000d	ff 75 08	 push	 DWORD PTR __First$[ebp]
  00010	e8 00 00 00 00	 call	 ??$_Move@PAUForceInfo@@PAU1@@std@@YAPAUForceInfo@@PAU1@00U_Nonscalar_ptr_iterator_tag@0@@Z ; std::_Move<ForceInfo *,ForceInfo *>
  00015	83 c4 10	 add	 esp, 16			; 00000010H

; 2536 : 	}

  00018	c9		 leave
  00019	c3		 ret	 0
??$_Move@PAUForceInfo@@PAU1@@std@@YAPAUForceInfo@@PAU1@00@Z ENDP ; std::_Move<ForceInfo *,ForceInfo *>
_TEXT	ENDS
PUBLIC	?destroy@?$allocator@UWeaponInfo@@@std@@QAEXPAUWeaponInfo@@@Z ; std::allocator<WeaponInfo>::destroy
; Function compile flags: /Ogsp
; File c:\program files (x86)\microsoft visual studio 10.0\vc\include\xmemory
;	COMDAT ?destroy@?$allocator@UWeaponInfo@@@std@@QAEXPAUWeaponInfo@@@Z
_TEXT	SEGMENT
__Ptr$ = 8						; size = 4
?destroy@?$allocator@UWeaponInfo@@@std@@QAEXPAUWeaponInfo@@@Z PROC ; std::allocator<WeaponInfo>::destroy, COMDAT
; _this$ = ecx

; 212  : 		{	// destroy object at _Ptr

  00000	55		 push	 ebp
  00001	8b ec		 mov	 ebp, esp

; 213  : 		_Destroy(_Ptr);

  00003	8b 4d 08	 mov	 ecx, DWORD PTR __Ptr$[ebp]
  00006	83 c1 08	 add	 ecx, 8
  00009	ff 15 00 00 00
	00		 call	 DWORD PTR __imp_??1ioHashString@@QAE@XZ

; 214  : 		}

  0000f	5d		 pop	 ebp
  00010	c2 04 00	 ret	 4
?destroy@?$allocator@UWeaponInfo@@@std@@QAEXPAUWeaponInfo@@@Z ENDP ; std::allocator<WeaponInfo>::destroy
_TEXT	ENDS
PUBLIC	??$_Uninit_copy@PAUForceInfo@@PAU1@V?$allocator@UForceInfo@@@std@@@std@@YAPAUForceInfo@@PAU1@00AAV?$allocator@UForceInfo@@@0@U_Nonscalar_ptr_iterator_tag@0@@Z ; std::_Uninit_copy<ForceInfo *,ForceInfo *,std::allocator<ForceInfo> >
; Function compile flags: /Ogsp
; File c:\program files (x86)\microsoft visual studio 10.0\vc\include\memory
;	COMDAT ??$_Uninit_copy@PAUForceInfo@@PAU1@V?$allocator@UForceInfo@@@std@@@std@@YAPAUForceInfo@@PAU1@00AAV?$allocator@UForceInfo@@@0@U_Nonscalar_ptr_iterator_tag@0@@Z
_TEXT	SEGMENT
__First$ = 8						; size = 4
__Last$ = 12						; size = 4
__Dest$ = 16						; size = 4
__Al$ = 20						; size = 4
___formal$ = 24						; size = 1
??$_Uninit_copy@PAUForceInfo@@PAU1@V?$allocator@UForceInfo@@@std@@@std@@YAPAUForceInfo@@PAU1@00AAV?$allocator@UForceInfo@@@0@U_Nonscalar_ptr_iterator_tag@0@@Z PROC ; std::_Uninit_copy<ForceInfo *,ForceInfo *,std::allocator<ForceInfo> >, COMDAT

; 369  : 	{	// copy [_First, _Last) to raw _Dest, using _Al, arbitrary type

  00000	55		 push	 ebp
  00001	8b ec		 mov	 ebp, esp
  00003	56		 push	 esi

; 370  : 	_DEBUG_RANGE(_First, _Last);
; 371  : 	_DEBUG_POINTER(_Dest);
; 372  : 	_FwdIt _Next = _Dest;
; 373  : 
; 374  : 	_TRY_BEGIN
; 375  : 	for (; _First != _Last; ++_Dest, ++_First)

  00004	8b 75 08	 mov	 esi, DWORD PTR __First$[ebp]
  00007	eb 16		 jmp	 SHORT $LN24@Uninit_cop
$LL6@Uninit_cop:

; 376  : 		_Cons_val(_Al, _Dest, *_First);

  00009	56		 push	 esi
  0000a	ff 75 10	 push	 DWORD PTR __Dest$[ebp]
  0000d	ff 75 14	 push	 DWORD PTR __Al$[ebp]
  00010	e8 00 00 00 00	 call	 ??$_Cons_val@V?$allocator@UForceInfo@@@std@@UForceInfo@@AAU3@@std@@YAXAAV?$allocator@UForceInfo@@@0@PAUForceInfo@@AAU2@@Z ; std::_Cons_val<std::allocator<ForceInfo>,ForceInfo,ForceInfo &>
  00015	83 45 10 0c	 add	 DWORD PTR __Dest$[ebp], 12 ; 0000000cH
  00019	83 c4 0c	 add	 esp, 12			; 0000000cH
  0001c	83 c6 0c	 add	 esi, 12			; 0000000cH
$LN24@Uninit_cop:

; 370  : 	_DEBUG_RANGE(_First, _Last);
; 371  : 	_DEBUG_POINTER(_Dest);
; 372  : 	_FwdIt _Next = _Dest;
; 373  : 
; 374  : 	_TRY_BEGIN
; 375  : 	for (; _First != _Last; ++_Dest, ++_First)

  0001f	3b 75 0c	 cmp	 esi, DWORD PTR __Last$[ebp]
  00022	75 e5		 jne	 SHORT $LL6@Uninit_cop

; 377  : 	_CATCH_ALL
; 378  : 	for (; _Next != _Dest; ++_Next)
; 379  : 		_Dest_val(_Al, _Next);
; 380  : 	_RERAISE;
; 381  : 	_CATCH_END
; 382  : 	return (_Dest);

  00024	8b 45 10	 mov	 eax, DWORD PTR __Dest$[ebp]
  00027	5e		 pop	 esi

; 383  : 	}

  00028	5d		 pop	 ebp
  00029	c3		 ret	 0
??$_Uninit_copy@PAUForceInfo@@PAU1@V?$allocator@UForceInfo@@@std@@@std@@YAPAUForceInfo@@PAU1@00AAV?$allocator@UForceInfo@@@0@U_Nonscalar_ptr_iterator_tag@0@@Z ENDP ; std::_Uninit_copy<ForceInfo *,ForceInfo *,std::allocator<ForceInfo> >
_TEXT	ENDS
PUBLIC	??$_Cons_val@V?$allocator@UWeaponInfo@@@std@@UWeaponInfo@@AAU3@@std@@YAXAAV?$allocator@UWeaponInfo@@@0@PAUWeaponInfo@@AAU2@@Z ; std::_Cons_val<std::allocator<WeaponInfo>,WeaponInfo,WeaponInfo &>
;	COMDAT xdata$x
; File c:\program files (x86)\microsoft visual studio 10.0\vc\include\utility
xdata$x	SEGMENT
__unwindtable$??$_Cons_val@V?$allocator@UWeaponInfo@@@std@@UWeaponInfo@@AAU3@@std@@YAXAAV?$allocator@UWeaponInfo@@@0@PAUWeaponInfo@@AAU2@@Z DD 0ffffffffH
	DD	FLAT:__unwindfunclet$??$_Cons_val@V?$allocator@UWeaponInfo@@@std@@UWeaponInfo@@AAU3@@std@@YAXAAV?$allocator@UWeaponInfo@@@0@PAUWeaponInfo@@AAU2@@Z$0
__ehfuncinfo$??$_Cons_val@V?$allocator@UWeaponInfo@@@std@@UWeaponInfo@@AAU3@@std@@YAXAAV?$allocator@UWeaponInfo@@@0@PAUWeaponInfo@@AAU2@@Z DD 019930522H
	DD	01H
	DD	FLAT:__unwindtable$??$_Cons_val@V?$allocator@UWeaponInfo@@@std@@UWeaponInfo@@AAU3@@std@@YAXAAV?$allocator@UWeaponInfo@@@0@PAUWeaponInfo@@AAU2@@Z
	DD	2 DUP(00H)
	DD	2 DUP(00H)
	DD	00H
	DD	01H
; Function compile flags: /Ogsp
; File c:\program files (x86)\microsoft visual studio 10.0\vc\include\xmemory
xdata$x	ENDS
;	COMDAT ??$_Cons_val@V?$allocator@UWeaponInfo@@@std@@UWeaponInfo@@AAU3@@std@@YAXAAV?$allocator@UWeaponInfo@@@0@PAUWeaponInfo@@AAU2@@Z
_TEXT	SEGMENT
$T549906 = -16						; size = 4
__$EHRec$ = -12						; size = 12
__Alval$ = 8						; size = 4
__Pdest$ = 12						; size = 4
__Src$ = 16						; size = 4
??$_Cons_val@V?$allocator@UWeaponInfo@@@std@@UWeaponInfo@@AAU3@@std@@YAXAAV?$allocator@UWeaponInfo@@@0@PAUWeaponInfo@@AAU2@@Z PROC ; std::_Cons_val<std::allocator<WeaponInfo>,WeaponInfo,WeaponInfo &>, COMDAT

; 279  : 	{	// construct using allocator

  00000	6a 04		 push	 4
  00002	b8 00 00 00 00	 mov	 eax, __ehhandler$??$_Cons_val@V?$allocator@UWeaponInfo@@@std@@UWeaponInfo@@AAU3@@std@@YAXAAV?$allocator@UWeaponInfo@@@0@PAUWeaponInfo@@AAU2@@Z
  00007	e8 00 00 00 00	 call	 __EH_prolog3

; 280  : 	_Alval.construct(_Pdest, _STD forward<_Ty2>(_Src));

  0000c	8b 4d 0c	 mov	 ecx, DWORD PTR __Pdest$[ebp]
  0000f	89 4d f0	 mov	 DWORD PTR $T549906[ebp], ecx
  00012	83 65 fc 00	 and	 DWORD PTR __$EHRec$[ebp+8], 0
  00016	85 c9		 test	 ecx, ecx
  00018	74 08		 je	 SHORT $LN7@Cons_val@3
  0001a	ff 75 10	 push	 DWORD PTR __Src$[ebp]
  0001d	e8 00 00 00 00	 call	 ??0WeaponInfo@@QAE@ABU0@@Z
$LN7@Cons_val@3:

; 281  : 	}

  00022	e8 00 00 00 00	 call	 __EH_epilog3
  00027	c3		 ret	 0
_TEXT	ENDS
;	COMDAT text$x
text$x	SEGMENT
__unwindfunclet$??$_Cons_val@V?$allocator@UWeaponInfo@@@std@@UWeaponInfo@@AAU3@@std@@YAXAAV?$allocator@UWeaponInfo@@@0@PAUWeaponInfo@@AAU2@@Z$0:
  00000	ff 75 0c	 push	 DWORD PTR __Pdest$[ebp]
  00003	ff 75 f0	 push	 DWORD PTR $T549906[ebp]
  00006	e8 00 00 00 00	 call	 ??3@YAXPAX0@Z		; operator delete
  0000b	59		 pop	 ecx
  0000c	59		 pop	 ecx
  0000d	c3		 ret	 0
__ehhandler$??$_Cons_val@V?$allocator@UWeaponInfo@@@std@@UWeaponInfo@@AAU3@@std@@YAXAAV?$allocator@UWeaponInfo@@@0@PAUWeaponInfo@@AAU2@@Z:
  0000e	8b 54 24 08	 mov	 edx, DWORD PTR [esp+8]
  00012	8d 42 0c	 lea	 eax, DWORD PTR [edx+12]
  00015	8b 4a ec	 mov	 ecx, DWORD PTR [edx-20]
  00018	33 c8		 xor	 ecx, eax
  0001a	e8 00 00 00 00	 call	 @__security_check_cookie@4
  0001f	b8 00 00 00 00	 mov	 eax, OFFSET __ehfuncinfo$??$_Cons_val@V?$allocator@UWeaponInfo@@@std@@UWeaponInfo@@AAU3@@std@@YAXAAV?$allocator@UWeaponInfo@@@0@PAUWeaponInfo@@AAU2@@Z
  00024	e9 00 00 00 00	 jmp	 ___CxxFrameHandler3
text$x	ENDS
??$_Cons_val@V?$allocator@UWeaponInfo@@@std@@UWeaponInfo@@AAU3@@std@@YAXAAV?$allocator@UWeaponInfo@@@0@PAUWeaponInfo@@AAU2@@Z ENDP ; std::_Cons_val<std::allocator<WeaponInfo>,WeaponInfo,WeaponInfo &>
PUBLIC	__$ArrayPad$
PUBLIC	?ChangeToGathering@ioSummonChargeItem@@IAEXPAVioBaseChar@@@Z ; ioSummonChargeItem::ChangeToGathering
EXTRN	__imp_?PlaySoundA@ioSoundManager@@QAEKABVioHashString@@PAVioSceneNode@@K@Z:PROC
EXTRN	__imp_?GetSingleton@ioSoundManager@@SAAAV1@XZ:PROC
EXTRN	__imp_?GetUniqueID@ioMovableObject@@QBEKXZ:PROC
EXTRN	?AttachEffect@ioBaseChar@@QAEPAVioEffect@@ABVioHashString@@PAVioEntityEvent@@_N@Z:PROC ; ioBaseChar::AttachEffect
EXTRN	__imp_?IsEmpty@ioHashString@@QBE_NXZ:PROC
EXTRN	__imp_?SetLoopAni@ioEntityGroup@@QAE_NABVioHashString@@MMMM@Z:PROC
;	COMDAT xdata$x
; File d:\lost saga for developer\youtube\tutorial\source\src\lsclient\iogameentity.h
xdata$x	SEGMENT
__unwindtable$?ChangeToGathering@ioSummonChargeItem@@IAEXPAVioBaseChar@@@Z DD 0ffffffffH
	DD	FLAT:__unwindfunclet$?ChangeToGathering@ioSummonChargeItem@@IAEXPAVioBaseChar@@@Z$0
	DD	00H
	DD	FLAT:__unwindfunclet$?ChangeToGathering@ioSummonChargeItem@@IAEXPAVioBaseChar@@@Z$1
	DD	01H
	DD	FLAT:__unwindfunclet$?ChangeToGathering@ioSummonChargeItem@@IAEXPAVioBaseChar@@@Z$2
__ehfuncinfo$?ChangeToGathering@ioSummonChargeItem@@IAEXPAVioBaseChar@@@Z DD 019930522H
	DD	03H
	DD	FLAT:__unwindtable$?ChangeToGathering@ioSummonChargeItem@@IAEXPAVioBaseChar@@@Z
	DD	2 DUP(00H)
	DD	2 DUP(00H)
	DD	00H
	DD	01H
; Function compile flags: /Ogsp
; File d:\lost saga for developer\youtube\tutorial\source\src\lsclient\iosummonchargeitem.cpp
xdata$x	ENDS
;	COMDAT ?ChangeToGathering@ioSummonChargeItem@@IAEXPAVioBaseChar@@@Z
_TEXT	SEGMENT
_szCurEffect$ = -32848					; size = 16
_szCurSound$ = -32832					; size = 16
tv291 = -32816						; size = 4
_value$549956 = -32816					; size = 4
_fCurRate$ = -32816					; size = 4
tv313 = -32812						; size = 4
tv308 = -32812						; size = 4
tv303 = -32812						; size = 4
tv294 = -32812						; size = 4
tv289 = -32812						; size = 4
tv287 = -32812						; size = 4
tv280 = -32812						; size = 4
_kPacket$542512 = -32808				; size = 32792
__$ArrayPad$ = -16					; size = 4
__$EHRec$ = -12						; size = 12
_pOwner$ = 8						; size = 4
?ChangeToGathering@ioSummonChargeItem@@IAEXPAVioBaseChar@@@Z PROC ; ioSummonChargeItem::ChangeToGathering, COMDAT
; _this$ = ecx

; 303  : {

  00000	55		 push	 ebp
  00001	8b ec		 mov	 ebp, esp
  00003	6a ff		 push	 -1
  00005	68 00 00 00 00	 push	 __ehhandler$?ChangeToGathering@ioSummonChargeItem@@IAEXPAVioBaseChar@@@Z
  0000a	64 a1 00 00 00
	00		 mov	 eax, DWORD PTR fs:0
  00010	50		 push	 eax
  00011	b8 44 80 00 00	 mov	 eax, 32836		; 00008044H
  00016	e8 00 00 00 00	 call	 __chkstk
  0001b	a1 00 00 00 00	 mov	 eax, DWORD PTR ___security_cookie
  00020	33 c5		 xor	 eax, ebp
  00022	89 45 f0	 mov	 DWORD PTR __$ArrayPad$[ebp], eax
  00025	53		 push	 ebx
  00026	56		 push	 esi
  00027	57		 push	 edi
  00028	50		 push	 eax
  00029	8d 45 f4	 lea	 eax, DWORD PTR __$EHRec$[ebp]
  0002c	64 a3 00 00 00
	00		 mov	 DWORD PTR fs:0, eax
  00032	8b 7d 08	 mov	 edi, DWORD PTR _pOwner$[ebp]

; 304  : 	ioEntityGroup *pGrp = pOwner->GetGroup();

  00035	8b 5f 04	 mov	 ebx, DWORD PTR [edi+4]
  00038	8b f1		 mov	 esi, ecx

; 305  : 	pGrp->ClearAllActionAni( FLOAT100, true );

  0003a	b8 64 00 00 00	 mov	 eax, 100		; 00000064H
  0003f	89 85 d4 7f ff
	ff		 mov	 DWORD PTR tv313[ebp], eax
  00045	db 85 d4 7f ff
	ff		 fild	 DWORD PTR tv313[ebp]
  0004b	6a 01		 push	 1
  0004d	85 c0		 test	 eax, eax
  0004f	79 06		 jns	 SHORT $LN32@ChangeToGa
  00051	d8 05 00 00 00
	00		 fadd	 DWORD PTR __real@4f800000
$LN32@ChangeToGa:
  00057	51		 push	 ecx
  00058	8b cb		 mov	 ecx, ebx
  0005a	d9 1c 24	 fstp	 DWORD PTR [esp]
  0005d	ff 15 00 00 00
	00		 call	 DWORD PTR __imp_?ClearAllActionAni@ioEntityGroup@@QAEXM_N@Z

; 306  : 	pGrp->ClearAllLoopAni( FLOAT100, true );

  00063	b8 64 00 00 00	 mov	 eax, 100		; 00000064H
  00068	89 85 d4 7f ff
	ff		 mov	 DWORD PTR tv308[ebp], eax
  0006e	db 85 d4 7f ff
	ff		 fild	 DWORD PTR tv308[ebp]
  00074	6a 01		 push	 1
  00076	85 c0		 test	 eax, eax
  00078	79 06		 jns	 SHORT $LN33@ChangeToGa
  0007a	d8 05 00 00 00
	00		 fadd	 DWORD PTR __real@4f800000
$LN33@ChangeToGa:
  00080	51		 push	 ecx
  00081	8b cb		 mov	 ecx, ebx
  00083	d9 1c 24	 fstp	 DWORD PTR [esp]
  00086	ff 15 00 00 00
	00		 call	 DWORD PTR __imp_?ClearAllLoopAni@ioEntityGroup@@QAEXM_N@Z

; 307  : 
; 308  : 	float fCurRate = FLOAT1;

  0008c	b8 01 00 00 00	 mov	 eax, 1
  00091	89 85 d4 7f ff
	ff		 mov	 DWORD PTR tv303[ebp], eax
  00097	db 85 d4 7f ff
	ff		 fild	 DWORD PTR tv303[ebp]
  0009d	85 c0		 test	 eax, eax
  0009f	79 06		 jns	 SHORT $LN34@ChangeToGa
  000a1	d8 05 00 00 00
	00		 fadd	 DWORD PTR __real@4f800000
$LN34@ChangeToGa:

; 309  : 	if( m_fGatherAniRate > 0.0f )

  000a7	f3 0f 10 86 70
	19 00 00	 movss	 xmm0, DWORD PTR [esi+6512]
  000af	d9 9d d0 7f ff
	ff		 fstp	 DWORD PTR _fCurRate$[ebp]
  000b5	0f 57 c9	 xorps	 xmm1, xmm1
  000b8	0f 2f c1	 comiss	 xmm0, xmm1
  000bb	76 08		 jbe	 SHORT $LN7@ChangeToGa

; 310  : 		fCurRate = m_fGatherAniRate;

  000bd	f3 0f 11 85 d0
	7f ff ff	 movss	 DWORD PTR _fCurRate$[ebp], xmm0
$LN7@ChangeToGa:

; 311  : 
; 312  : 	pGrp->SetLoopAni( m_GatherAnimation, FLOAT100, FLOAT1, FLOAT1/fCurRate );

  000c5	b8 01 00 00 00	 mov	 eax, 1
  000ca	8b c8		 mov	 ecx, eax
  000cc	b8 01 00 00 00	 mov	 eax, 1
  000d1	8b d0		 mov	 edx, eax
  000d3	b8 64 00 00 00	 mov	 eax, 100		; 00000064H
  000d8	83 ec 10	 sub	 esp, 16			; 00000010H
  000db	89 8d d4 7f ff
	ff		 mov	 DWORD PTR tv294[ebp], ecx
  000e1	db 85 d4 7f ff
	ff		 fild	 DWORD PTR tv294[ebp]
  000e7	f3 0f 11 4c 24
	0c		 movss	 DWORD PTR [esp+12], xmm1
  000ed	85 c9		 test	 ecx, ecx
  000ef	79 06		 jns	 SHORT $LN35@ChangeToGa
  000f1	d8 05 00 00 00
	00		 fadd	 DWORD PTR __real@4f800000
$LN35@ChangeToGa:
  000f7	d8 b5 d0 7f ff
	ff		 fdiv	 DWORD PTR _fCurRate$[ebp]
  000fd	89 95 d4 7f ff
	ff		 mov	 DWORD PTR tv289[ebp], edx
  00103	d9 9d d0 7f ff
	ff		 fstp	 DWORD PTR tv291[ebp]
  00109	d9 85 d0 7f ff
	ff		 fld	 DWORD PTR tv291[ebp]
  0010f	d9 5c 24 08	 fstp	 DWORD PTR [esp+8]
  00113	db 85 d4 7f ff
	ff		 fild	 DWORD PTR tv289[ebp]
  00119	85 d2		 test	 edx, edx
  0011b	79 06		 jns	 SHORT $LN36@ChangeToGa
  0011d	d8 05 00 00 00
	00		 fadd	 DWORD PTR __real@4f800000
$LN36@ChangeToGa:
  00123	89 85 d4 7f ff
	ff		 mov	 DWORD PTR tv287[ebp], eax
  00129	d9 5c 24 04	 fstp	 DWORD PTR [esp+4]
  0012d	db 85 d4 7f ff
	ff		 fild	 DWORD PTR tv287[ebp]
  00133	85 c0		 test	 eax, eax
  00135	79 06		 jns	 SHORT $LN37@ChangeToGa
  00137	d8 05 00 00 00
	00		 fadd	 DWORD PTR __real@4f800000
$LN37@ChangeToGa:
  0013d	8d 86 60 19 00
	00		 lea	 eax, DWORD PTR [esi+6496]
  00143	d9 1c 24	 fstp	 DWORD PTR [esp]
  00146	50		 push	 eax
  00147	8b cb		 mov	 ecx, ebx
  00149	ff 15 00 00 00
	00		 call	 DWORD PTR __imp_?SetLoopAni@ioEntityGroup@@QAE_NABVioHashString@@MMMM@Z

; 313  : 	
; 314  : 	m_ChargeState = CS_GATHERING;

  0014f	c7 86 54 19 00
	00 02 00 00 00	 mov	 DWORD PTR [esi+6484], 2

; 315  : 	m_dwGatheringStartTime = FRAMEGETTIME();

  00159	ff 15 00 00 00
	00		 call	 DWORD PTR __imp_?GetSingleton@ioFrameTimer@@SAAAV1@XZ
  0015f	8b c8		 mov	 ecx, eax
  00161	ff 15 00 00 00
	00		 call	 DWORD PTR __imp_?GetLoopSec@ioFrameTimer@@QBEKXZ
  00167	89 86 78 19 00
	00		 mov	 DWORD PTR [esi+6520], eax

; 316  : 
; 317  : 	//pOwner->SetAttackMoveEnable( true );
; 318  : 
; 319  : 	m_iCurSummonCnt = 1;

  0016d	8d 85 d0 7f ff
	ff		 lea	 eax, DWORD PTR _value$549956[ebp]
  00173	8d 8e e0 19 00
	00		 lea	 ecx, DWORD PTR [esi+6624]
  00179	50		 push	 eax
  0017a	c7 85 d0 7f ff
	ff 01 00 00 00	 mov	 DWORD PTR _value$549956[ebp], 1
  00184	89 8d d4 7f ff
	ff		 mov	 DWORD PTR tv280[ebp], ecx
  0018a	e8 00 00 00 00	 call	 ?EncryptValueToPool@?$CEncrypt@H@@AAEXPBD@Z ; CEncrypt<int>::EncryptValueToPool

; 320  : 	m_dwNextSummonTime = 0;

  0018f	33 db		 xor	 ebx, ebx

; 321  : 
; 322  : 	// NextTime
; 323  : 	CheckNextSummonTime();

  00191	8b ce		 mov	 ecx, esi
  00193	89 9e 10 1a 00
	00		 mov	 DWORD PTR [esi+6672], ebx
  00199	e8 00 00 00 00	 call	 ?CheckNextSummonTime@ioSummonChargeItem@@IAE_NXZ ; ioSummonChargeItem::CheckNextSummonTime

; 324  : 
; 325  : 	// Effect
; 326  : 	if( m_GatheringEffectID != -1 )

  0019e	8b 86 74 19 00
	00		 mov	 eax, DWORD PTR [esi+6516]
  001a4	83 f8 ff	 cmp	 eax, -1
  001a7	74 10		 je	 SHORT $LN6@ChangeToGa

; 327  : 	{
; 328  : 		pOwner->EndEffect( m_GatheringEffectID, false );

  001a9	53		 push	 ebx
  001aa	50		 push	 eax
  001ab	8b cf		 mov	 ecx, edi
  001ad	e8 00 00 00 00	 call	 ?EndEffect@ioBaseChar@@QAEXK_N@Z ; ioBaseChar::EndEffect

; 329  : 		m_GatheringEffectID = -1;

  001b2	83 8e 74 19 00
	00 ff		 or	 DWORD PTR [esi+6516], -1
$LN6@ChangeToGa:

; 330  : 	}
; 331  : 
; 332  : 	ioHashString szCurEffect = GetCurSummonEffect();

  001b9	8d 85 b0 7f ff
	ff		 lea	 eax, DWORD PTR _szCurEffect$[ebp]
  001bf	50		 push	 eax
  001c0	8b ce		 mov	 ecx, esi
  001c2	e8 00 00 00 00	 call	 ?GetCurSummonEffect@ioSummonChargeItem@@IAE?AVioHashString@@XZ ; ioSummonChargeItem::GetCurSummonEffect

; 333  : 	if( !szCurEffect.IsEmpty() )

  001c7	8d 8d b0 7f ff
	ff		 lea	 ecx, DWORD PTR _szCurEffect$[ebp]
  001cd	89 5d fc	 mov	 DWORD PTR __$EHRec$[ebp+8], ebx
  001d0	ff 15 00 00 00
	00		 call	 DWORD PTR __imp_?IsEmpty@ioHashString@@QBE_NXZ
  001d6	84 c0		 test	 al, al
  001d8	75 24		 jne	 SHORT $LN4@ChangeToGa

; 334  : 	{
; 335  : 		ioEffect *pEffect = pOwner->AttachEffect( szCurEffect );

  001da	6a 01		 push	 1
  001dc	53		 push	 ebx
  001dd	8d 85 b0 7f ff
	ff		 lea	 eax, DWORD PTR _szCurEffect$[ebp]
  001e3	50		 push	 eax
  001e4	8b cf		 mov	 ecx, edi
  001e6	e8 00 00 00 00	 call	 ?AttachEffect@ioBaseChar@@QAEPAVioEffect@@ABVioHashString@@PAVioEntityEvent@@_N@Z ; ioBaseChar::AttachEffect

; 336  : 		if( pEffect )

  001eb	3b c3		 cmp	 eax, ebx
  001ed	74 0f		 je	 SHORT $LN4@ChangeToGa

; 337  : 			m_GatheringEffectID = pEffect->GetUniqueID();

  001ef	8d 48 14	 lea	 ecx, DWORD PTR [eax+20]
  001f2	ff 15 00 00 00
	00		 call	 DWORD PTR __imp_?GetUniqueID@ioMovableObject@@QBEKXZ
  001f8	89 86 74 19 00
	00		 mov	 DWORD PTR [esi+6516], eax
$LN4@ChangeToGa:

; 338  : 	}
; 339  : 
; 340  : 	// Sound
; 341  : 	ioHashString szCurSound = GetCurSummonSound();

  001fe	8d 85 c0 7f ff
	ff		 lea	 eax, DWORD PTR _szCurSound$[ebp]
  00204	50		 push	 eax
  00205	8b ce		 mov	 ecx, esi
  00207	e8 00 00 00 00	 call	 ?GetCurSummonSound@ioSummonChargeItem@@IAE?AVioHashString@@XZ ; ioSummonChargeItem::GetCurSummonSound

; 342  : 	if( !szCurSound.IsEmpty() )

  0020c	8d 8d c0 7f ff
	ff		 lea	 ecx, DWORD PTR _szCurSound$[ebp]
  00212	c6 45 fc 01	 mov	 BYTE PTR __$EHRec$[ebp+8], 1
  00216	ff 15 00 00 00
	00		 call	 DWORD PTR __imp_?IsEmpty@ioHashString@@QBE_NXZ
  0021c	84 c0		 test	 al, al
  0021e	75 24		 jne	 SHORT $LN2@ChangeToGa

; 343  : 	{
; 344  : 		ioEntityGroup *pGrp = pOwner->GetGroup();

  00220	8b 4f 04	 mov	 ecx, DWORD PTR [edi+4]

; 345  : 		if( pGrp )

  00223	3b cb		 cmp	 ecx, ebx
  00225	74 1d		 je	 SHORT $LN2@ChangeToGa

; 346  : 		{
; 347  : 			g_SoundMgr.PlaySound( szCurSound, pGrp->GetParentSceneNode() );

  00227	8b 01		 mov	 eax, DWORD PTR [ecx]
  00229	6a 04		 push	 4
  0022b	ff 50 34	 call	 DWORD PTR [eax+52]
  0022e	50		 push	 eax
  0022f	8d 85 c0 7f ff
	ff		 lea	 eax, DWORD PTR _szCurSound$[ebp]
  00235	50		 push	 eax
  00236	ff 15 00 00 00
	00		 call	 DWORD PTR __imp_?GetSingleton@ioSoundManager@@SAAAV1@XZ
  0023c	8b c8		 mov	 ecx, eax
  0023e	ff 15 00 00 00
	00		 call	 DWORD PTR __imp_?PlaySoundA@ioSoundManager@@QAEKABVioHashString@@PAVioSceneNode@@K@Z
$LN2@ChangeToGa:

; 348  : 		}
; 349  : 	}
; 350  : 	
; 351  : 	if( pOwner->IsNeedSendNetwork() )

  00244	8b 07		 mov	 eax, DWORD PTR [edi]
  00246	8b cf		 mov	 ecx, edi
  00248	ff 90 04 01 00
	00		 call	 DWORD PTR [eax+260]
  0024e	84 c0		 test	 al, al
  00250	0f 84 80 00 00
	00		 je	 $LN1@ChangeToGa

; 352  : 	{
; 353  : 		SP2Packet kPacket( CUPK_ITEM_GAUGE_OK );

  00256	68 27 41 00 00	 push	 16679			; 00004127H
  0025b	8d 8d d8 7f ff
	ff		 lea	 ecx, DWORD PTR _kPacket$542512[ebp]
  00261	e8 00 00 00 00	 call	 ??0SP2Packet@@QAE@K@Z	; SP2Packet::SP2Packet

; 354  : 		FillItemGaugePacketHeader( pOwner, kPacket );

  00266	8d 85 d8 7f ff
	ff		 lea	 eax, DWORD PTR _kPacket$542512[ebp]
  0026c	50		 push	 eax
  0026d	57		 push	 edi
  0026e	8b ce		 mov	 ecx, esi
  00270	c6 45 fc 02	 mov	 BYTE PTR __$EHRec$[ebp+8], 2
  00274	e8 00 00 00 00	 call	 ?FillItemGaugePacketHeader@ioAttackableItem@@QAEXPAVioBaseChar@@AAVSP2Packet@@@Z ; ioAttackableItem::FillItemGaugePacketHeader

; 355  : 		kPacket << m_ChargeState;

  00279	ff b6 54 19 00
	00		 push	 DWORD PTR [esi+6484]
  0027f	8d 8d d8 7f ff
	ff		 lea	 ecx, DWORD PTR _kPacket$542512[ebp]
  00285	e8 00 00 00 00	 call	 ??6SP2Packet@@QAEAAV0@H@Z ; SP2Packet::operator<<

; 356  : 		kPacket << m_iCurCombo;

  0028a	ff b6 5c 19 00
	00		 push	 DWORD PTR [esi+6492]
  00290	8d 8d d8 7f ff
	ff		 lea	 ecx, DWORD PTR _kPacket$542512[ebp]
  00296	e8 00 00 00 00	 call	 ??6SP2Packet@@QAEAAV0@H@Z ; SP2Packet::operator<<

; 357  : 		kPacket << m_iCurSummonCnt;

  0029b	ff b5 d4 7f ff
	ff		 push	 DWORD PTR tv280[ebp]
  002a1	8d 8d d8 7f ff
	ff		 lea	 ecx, DWORD PTR _kPacket$542512[ebp]
  002a7	e8 00 00 00 00	 call	 ??6SP2Packet@@QAEAAV0@AAV?$CEncrypt@H@@@Z ; SP2Packet::operator<<

; 358  : 		kPacket << false;		// next summon

  002ac	53		 push	 ebx
  002ad	8d 8d d8 7f ff
	ff		 lea	 ecx, DWORD PTR _kPacket$542512[ebp]
  002b3	e8 00 00 00 00	 call	 ??6SP2Packet@@QAEAAV0@_N@Z ; SP2Packet::operator<<

; 359  : 		P2PNetwork::SendToAllPlayingUser( kPacket );

  002b8	8d 85 d8 7f ff
	ff		 lea	 eax, DWORD PTR _kPacket$542512[ebp]
  002be	53		 push	 ebx
  002bf	50		 push	 eax
  002c0	e8 00 00 00 00	 call	 ?SendToAllPlayingUser@P2PNetwork@@YAXAAVSP2Packet@@PAVioBaseChar@@@Z ; P2PNetwork::SendToAllPlayingUser
  002c5	59		 pop	 ecx
  002c6	59		 pop	 ecx

; 360  : 	}

  002c7	8d 8d d8 7f ff
	ff		 lea	 ecx, DWORD PTR _kPacket$542512[ebp]
  002cd	c6 45 fc 01	 mov	 BYTE PTR __$EHRec$[ebp+8], 1
  002d1	e8 00 00 00 00	 call	 ??1SP2Packet@@UAE@XZ	; SP2Packet::~SP2Packet
$LN1@ChangeToGa:

; 361  : }

  002d6	8b 35 00 00 00
	00		 mov	 esi, DWORD PTR __imp_??1ioHashString@@QAE@XZ
  002dc	8d 8d c0 7f ff
	ff		 lea	 ecx, DWORD PTR _szCurSound$[ebp]
  002e2	88 5d fc	 mov	 BYTE PTR __$EHRec$[ebp+8], bl
  002e5	ff d6		 call	 esi
  002e7	83 4d fc ff	 or	 DWORD PTR __$EHRec$[ebp+8], -1
  002eb	8d 8d b0 7f ff
	ff		 lea	 ecx, DWORD PTR _szCurEffect$[ebp]
  002f1	ff d6		 call	 esi
  002f3	8b 4d f4	 mov	 ecx, DWORD PTR __$EHRec$[ebp]
  002f6	64 89 0d 00 00
	00 00		 mov	 DWORD PTR fs:0, ecx
  002fd	59		 pop	 ecx
  002fe	5f		 pop	 edi
  002ff	5e		 pop	 esi
  00300	5b		 pop	 ebx
  00301	8b 4d f0	 mov	 ecx, DWORD PTR __$ArrayPad$[ebp]
  00304	33 cd		 xor	 ecx, ebp
  00306	e8 00 00 00 00	 call	 @__security_check_cookie@4
  0030b	c9		 leave
  0030c	c2 04 00	 ret	 4
_TEXT	ENDS
;	COMDAT text$x
text$x	SEGMENT
__unwindfunclet$?ChangeToGathering@ioSummonChargeItem@@IAEXPAVioBaseChar@@@Z$0:
  00000	8d 8d b0 7f ff
	ff		 lea	 ecx, DWORD PTR _szCurEffect$[ebp]
  00006	ff 25 00 00 00
	00		 jmp	 DWORD PTR __imp_??1ioHashString@@QAE@XZ
__unwindfunclet$?ChangeToGathering@ioSummonChargeItem@@IAEXPAVioBaseChar@@@Z$1:
  0000c	8d 8d c0 7f ff
	ff		 lea	 ecx, DWORD PTR _szCurSound$[ebp]
  00012	ff 25 00 00 00
	00		 jmp	 DWORD PTR __imp_??1ioHashString@@QAE@XZ
__unwindfunclet$?ChangeToGathering@ioSummonChargeItem@@IAEXPAVioBaseChar@@@Z$2:
  00018	8d 8d d8 7f ff
	ff		 lea	 ecx, DWORD PTR _kPacket$542512[ebp]
  0001e	e9 00 00 00 00	 jmp	 ??1SP2Packet@@UAE@XZ	; SP2Packet::~SP2Packet
__ehhandler$?ChangeToGathering@ioSummonChargeItem@@IAEXPAVioBaseChar@@@Z:
  00023	8b 54 24 08	 mov	 edx, DWORD PTR [esp+8]
  00027	8d 42 0c	 lea	 eax, DWORD PTR [edx+12]
  0002a	8b 8a ac 7f ff
	ff		 mov	 ecx, DWORD PTR [edx-32852]
  00030	33 c8		 xor	 ecx, eax
  00032	e8 00 00 00 00	 call	 @__security_check_cookie@4
  00037	8b 4a fc	 mov	 ecx, DWORD PTR [edx-4]
  0003a	33 c8		 xor	 ecx, eax
  0003c	e8 00 00 00 00	 call	 @__security_check_cookie@4
  00041	b8 00 00 00 00	 mov	 eax, OFFSET __ehfuncinfo$?ChangeToGathering@ioSummonChargeItem@@IAEXPAVioBaseChar@@@Z
  00046	e9 00 00 00 00	 jmp	 ___CxxFrameHandler3
text$x	ENDS
?ChangeToGathering@ioSummonChargeItem@@IAEXPAVioBaseChar@@@Z ENDP ; ioSummonChargeItem::ChangeToGathering
PUBLIC	_pOwner$GSCopy$
PUBLIC	?OnItemGaugeOK@ioSummonChargeItem@@UAEXPAVioBaseChar@@AAVSP2Packet@@@Z ; ioSummonChargeItem::OnItemGaugeOK
EXTRN	??5SP2Packet@@QAEAAV0@AA_N@Z:PROC		; SP2Packet::operator>>
EXTRN	??5SP2Packet@@QAEAAV0@AAUD3DXVECTOR3@@@Z:PROC	; SP2Packet::operator>>
EXTRN	??5SP2Packet@@QAEAAV0@AAM@Z:PROC		; SP2Packet::operator>>
EXTRN	??5SP2Packet@@QAEAAV0@AAVioHashString@@@Z:PROC	; SP2Packet::operator>>
EXTRN	??5SP2Packet@@QAEAAV0@AAV?$CEncrypt@H@@@Z:PROC	; SP2Packet::operator>>
EXTRN	??5SP2Packet@@QAEAAV0@AAH@Z:PROC		; SP2Packet::operator>>
;	COMDAT xdata$x
; File c:\program files (x86)\microsoft directx sdk (june 2010)\include\d3dx9math.h
xdata$x	SEGMENT
__unwindtable$?OnItemGaugeOK@ioSummonChargeItem@@UAEXPAVioBaseChar@@AAVSP2Packet@@@Z DD 0ffffffffH
	DD	FLAT:__unwindfunclet$?OnItemGaugeOK@ioSummonChargeItem@@UAEXPAVioBaseChar@@AAVSP2Packet@@@Z$0
	DD	00H
	DD	FLAT:__unwindfunclet$?OnItemGaugeOK@ioSummonChargeItem@@UAEXPAVioBaseChar@@AAVSP2Packet@@@Z$1
	DD	0ffffffffH
	DD	FLAT:__unwindfunclet$?OnItemGaugeOK@ioSummonChargeItem@@UAEXPAVioBaseChar@@AAVSP2Packet@@@Z$2
__ehfuncinfo$?OnItemGaugeOK@ioSummonChargeItem@@UAEXPAVioBaseChar@@AAVSP2Packet@@@Z DD 019930522H
	DD	03H
	DD	FLAT:__unwindtable$?OnItemGaugeOK@ioSummonChargeItem@@UAEXPAVioBaseChar@@AAVSP2Packet@@@Z
	DD	2 DUP(00H)
	DD	2 DUP(00H)
	DD	00H
	DD	01H
; Function compile flags: /Ogsp
; File d:\lost saga for developer\youtube\tutorial\source\src\lsclient\iosummonchargeitem.cpp
xdata$x	ENDS
;	COMDAT ?OnItemGaugeOK@ioSummonChargeItem@@UAEXPAVioBaseChar@@AAVSP2Packet@@@Z
_TEXT	SEGMENT
_szCurEffect$542551 = -96				; size = 16
_szCurSound$542556 = -80				; size = 16
_szAni$542564 = -64					; size = 16
_pOwner$GSCopy$ = -48					; size = 4
_iState$ = -44						; size = 4
_fAniRate$542565 = -40					; size = 4
_bCharged$ = -33					; size = 1
_bNext$542548 = -29					; size = 1
_vDir$542566 = -28					; size = 12
__$EHRec$ = -12						; size = 12
_pOwner$ = 8						; size = 4
_rkPacket$ = 12						; size = 4
?OnItemGaugeOK@ioSummonChargeItem@@UAEXPAVioBaseChar@@AAVSP2Packet@@@Z PROC ; ioSummonChargeItem::OnItemGaugeOK, COMDAT
; _this$ = ecx

; 419  : {

  00000	6a 54		 push	 84			; 00000054H
  00002	b8 00 00 00 00	 mov	 eax, __ehhandler$?OnItemGaugeOK@ioSummonChargeItem@@UAEXPAVioBaseChar@@AAVSP2Packet@@@Z
  00007	e8 00 00 00 00	 call	 __EH_prolog3_GS
  0000c	8b 75 0c	 mov	 esi, DWORD PTR _rkPacket$[ebp]
  0000f	8b 7d 08	 mov	 edi, DWORD PTR _pOwner$[ebp]

; 420  : 	int iState;
; 421  : 	rkPacket >> iState;

  00012	8d 45 d4	 lea	 eax, DWORD PTR _iState$[ebp]
  00015	8b d9		 mov	 ebx, ecx
  00017	50		 push	 eax
  00018	8b ce		 mov	 ecx, esi

; 438  : 		}
; 439  : 
; 440  : 		m_ChargeState = CS_NONE;

  0001a	89 7d d0	 mov	 DWORD PTR _pOwner$GSCopy$[ebp], edi
  0001d	e8 00 00 00 00	 call	 ??5SP2Packet@@QAEAAV0@AAH@Z ; SP2Packet::operator>>
  00022	8d 83 5c 19 00
	00		 lea	 eax, DWORD PTR [ebx+6492]
  00028	50		 push	 eax
  00029	8b ce		 mov	 ecx, esi
  0002b	e8 00 00 00 00	 call	 ??5SP2Packet@@QAEAAV0@AAH@Z ; SP2Packet::operator>>
  00030	8d 83 e0 19 00
	00		 lea	 eax, DWORD PTR [ebx+6624]
  00036	50		 push	 eax
  00037	8b ce		 mov	 ecx, esi
  00039	e8 00 00 00 00	 call	 ??5SP2Packet@@QAEAAV0@AAV?$CEncrypt@H@@@Z ; SP2Packet::operator>>
  0003e	8b 45 d4	 mov	 eax, DWORD PTR _iState$[ebp]
  00041	83 e8 00	 sub	 eax, 0
  00044	0f 84 66 01 00
	00		 je	 $LN12@OnItemGaug

; 422  : 	rkPacket >> m_iCurCombo;
; 423  : 	rkPacket >> m_iCurSummonCnt;
; 424  : 
; 425  : 	bool bCharged;
; 426  : 
; 427  : 	switch( iState )

  0004a	48		 dec	 eax
  0004b	48		 dec	 eax
  0004c	0f 84 8c 00 00
	00		 je	 $LN10@OnItemGaug
  00052	48		 dec	 eax
  00053	74 6e		 je	 SHORT $LN2@OnItemGaug
  00055	48		 dec	 eax
  00056	0f 85 85 01 00
	00		 jne	 $LN13@OnItemGaug

; 485  : 	case CS_RETREAT:
; 486  : 		{
; 487  : 			ioHashString szAni;

  0005c	8d 4d c0	 lea	 ecx, DWORD PTR _szAni$542564[ebp]
  0005f	ff 15 00 00 00
	00		 call	 DWORD PTR __imp_??0ioHashString@@QAE@XZ

; 488  : 			float fAniRate;
; 489  : 			D3DXVECTOR3 vDir;
; 490  : 
; 491  : 			rkPacket >> szAni >> fAniRate >> vDir;

  00065	8d 45 e4	 lea	 eax, DWORD PTR _vDir$542566[ebp]
  00068	50		 push	 eax
  00069	8d 45 d8	 lea	 eax, DWORD PTR _fAniRate$542565[ebp]
  0006c	50		 push	 eax
  0006d	8d 45 c0	 lea	 eax, DWORD PTR _szAni$542564[ebp]
  00070	50		 push	 eax
  00071	8b ce		 mov	 ecx, esi
  00073	c7 45 fc 02 00
	00 00		 mov	 DWORD PTR __$EHRec$[ebp+8], 2
  0007a	e8 00 00 00 00	 call	 ??5SP2Packet@@QAEAAV0@AAVioHashString@@@Z ; SP2Packet::operator>>
  0007f	8b c8		 mov	 ecx, eax
  00081	e8 00 00 00 00	 call	 ??5SP2Packet@@QAEAAV0@AAM@Z ; SP2Packet::operator>>
  00086	8b c8		 mov	 ecx, eax
  00088	e8 00 00 00 00	 call	 ??5SP2Packet@@QAEAAV0@AAUD3DXVECTOR3@@@Z ; SP2Packet::operator>>

; 492  : 
; 493  : 			ChangeToRetreatState( pOwner, szAni, fAniRate, vDir );

  0008d	f3 0f 10 45 d8	 movss	 xmm0, DWORD PTR _fAniRate$542565[ebp]
  00092	83 ec 0c	 sub	 esp, 12			; 0000000cH
  00095	8b fc		 mov	 edi, esp
  00097	8d 75 e4	 lea	 esi, DWORD PTR _vDir$542566[ebp]
  0009a	a5		 movsd
  0009b	a5		 movsd
  0009c	51		 push	 ecx
  0009d	a5		 movsd
  0009e	f3 0f 11 04 24	 movss	 DWORD PTR [esp], xmm0
  000a3	8d 45 c0	 lea	 eax, DWORD PTR _szAni$542564[ebp]
  000a6	50		 push	 eax
  000a7	ff 75 d0	 push	 DWORD PTR _pOwner$GSCopy$[ebp]
  000aa	8b cb		 mov	 ecx, ebx
  000ac	e8 00 00 00 00	 call	 ?ChangeToRetreatState@ioSummonChargeItem@@IAEXPAVioBaseChar@@ABVioHashString@@MUD3DXVECTOR3@@@Z ; ioSummonChargeItem::ChangeToRetreatState

; 494  : 		}

  000b1	83 4d fc ff	 or	 DWORD PTR __$EHRec$[ebp+8], -1
  000b5	8d 4d c0	 lea	 ecx, DWORD PTR _szAni$542564[ebp]
  000b8	ff 15 00 00 00
	00		 call	 DWORD PTR __imp_??1ioHashString@@QAE@XZ

; 495  : 		break;

  000be	e9 1e 01 00 00	 jmp	 $LN13@OnItemGaug
$LN2@OnItemGaug:

; 481  : 	case CS_ATTACK_FIRE:
; 482  : 		rkPacket >> bCharged;

  000c3	8d 45 df	 lea	 eax, DWORD PTR _bCharged$[ebp]
  000c6	50		 push	 eax
  000c7	8b ce		 mov	 ecx, esi
  000c9	e8 00 00 00 00	 call	 ??5SP2Packet@@QAEAAV0@AA_N@Z ; SP2Packet::operator>>

; 483  : 		ChangeToAttackFire( pOwner, bCharged );

  000ce	ff 75 df	 push	 DWORD PTR _bCharged$[ebp]
  000d1	8b cb		 mov	 ecx, ebx
  000d3	57		 push	 edi
  000d4	e8 00 00 00 00	 call	 ?ChangeToAttackFire@ioSummonChargeItem@@IAEXPAVioBaseChar@@_N@Z ; ioSummonChargeItem::ChangeToAttackFire

; 484  : 		break;

  000d9	e9 03 01 00 00	 jmp	 $LN13@OnItemGaug
$LN10@OnItemGaug:

; 441  : 		break;
; 442  : 	case CS_GATHERING:
; 443  : 		{
; 444  : 			bool bNext;
; 445  : 			rkPacket >> bNext;

  000de	8d 45 e3	 lea	 eax, DWORD PTR _bNext$542548[ebp]
  000e1	50		 push	 eax
  000e2	8b ce		 mov	 ecx, esi
  000e4	e8 00 00 00 00	 call	 ??5SP2Packet@@QAEAAV0@AA_N@Z ; SP2Packet::operator>>

; 446  : 
; 447  : 			if( bNext )

  000e9	80 7d e3 00	 cmp	 BYTE PTR _bNext$542548[ebp], 0
  000ed	0f 84 b3 00 00
	00		 je	 $LN9@OnItemGaug

; 448  : 			{
; 449  : 				// Effect
; 450  : 				if( m_GatheringEffectID != -1 )

  000f3	8b 83 74 19 00
	00		 mov	 eax, DWORD PTR [ebx+6516]
  000f9	83 f8 ff	 cmp	 eax, -1
  000fc	74 11		 je	 SHORT $LN8@OnItemGaug

; 451  : 				{
; 452  : 					pOwner->EndEffect( m_GatheringEffectID, false );

  000fe	6a 00		 push	 0
  00100	50		 push	 eax
  00101	8b cf		 mov	 ecx, edi
  00103	e8 00 00 00 00	 call	 ?EndEffect@ioBaseChar@@QAEXK_N@Z ; ioBaseChar::EndEffect

; 453  : 					m_GatheringEffectID = -1;

  00108	83 8b 74 19 00
	00 ff		 or	 DWORD PTR [ebx+6516], -1
$LN8@OnItemGaug:

; 454  : 				}
; 455  : 
; 456  : 				ioHashString szCurEffect = GetCurSummonEffect();

  0010f	8d 45 a0	 lea	 eax, DWORD PTR _szCurEffect$542551[ebp]
  00112	50		 push	 eax
  00113	8b cb		 mov	 ecx, ebx
  00115	e8 00 00 00 00	 call	 ?GetCurSummonEffect@ioSummonChargeItem@@IAE?AVioHashString@@XZ ; ioSummonChargeItem::GetCurSummonEffect
  0011a	83 65 fc 00	 and	 DWORD PTR __$EHRec$[ebp+8], 0

; 457  : 				if( !szCurEffect.IsEmpty() )

  0011e	8d 4d a0	 lea	 ecx, DWORD PTR _szCurEffect$542551[ebp]
  00121	ff 15 00 00 00
	00		 call	 DWORD PTR __imp_?IsEmpty@ioHashString@@QBE_NXZ
  00127	84 c0		 test	 al, al
  00129	75 22		 jne	 SHORT $LN6@OnItemGaug

; 458  : 				{
; 459  : 					ioEffect *pEffect = pOwner->AttachEffect( szCurEffect );

  0012b	6a 01		 push	 1
  0012d	6a 00		 push	 0
  0012f	8d 45 a0	 lea	 eax, DWORD PTR _szCurEffect$542551[ebp]
  00132	50		 push	 eax
  00133	8b cf		 mov	 ecx, edi
  00135	e8 00 00 00 00	 call	 ?AttachEffect@ioBaseChar@@QAEPAVioEffect@@ABVioHashString@@PAVioEntityEvent@@_N@Z ; ioBaseChar::AttachEffect

; 460  : 					if( pEffect )

  0013a	85 c0		 test	 eax, eax
  0013c	74 0f		 je	 SHORT $LN6@OnItemGaug

; 461  : 						m_GatheringEffectID = pEffect->GetUniqueID();

  0013e	8d 48 14	 lea	 ecx, DWORD PTR [eax+20]
  00141	ff 15 00 00 00
	00		 call	 DWORD PTR __imp_?GetUniqueID@ioMovableObject@@QBEKXZ
  00147	89 83 74 19 00
	00		 mov	 DWORD PTR [ebx+6516], eax
$LN6@OnItemGaug:

; 462  : 				}
; 463  : 
; 464  : 				// Sound
; 465  : 				ioHashString szCurSound = GetCurSummonSound();

  0014d	8d 45 b0	 lea	 eax, DWORD PTR _szCurSound$542556[ebp]
  00150	50		 push	 eax
  00151	8b cb		 mov	 ecx, ebx
  00153	e8 00 00 00 00	 call	 ?GetCurSummonSound@ioSummonChargeItem@@IAE?AVioHashString@@XZ ; ioSummonChargeItem::GetCurSummonSound

; 466  : 				if( !szCurSound.IsEmpty() )

  00158	8d 4d b0	 lea	 ecx, DWORD PTR _szCurSound$542556[ebp]
  0015b	c6 45 fc 01	 mov	 BYTE PTR __$EHRec$[ebp+8], 1
  0015f	ff 15 00 00 00
	00		 call	 DWORD PTR __imp_?IsEmpty@ioHashString@@QBE_NXZ
  00165	84 c0		 test	 al, al
  00167	75 23		 jne	 SHORT $LN4@OnItemGaug

; 467  : 				{
; 468  : 					ioEntityGroup *pGrp = pOwner->GetGroup();

  00169	8b 7f 04	 mov	 edi, DWORD PTR [edi+4]

; 469  : 					if( pGrp )

  0016c	85 ff		 test	 edi, edi
  0016e	74 1c		 je	 SHORT $LN4@OnItemGaug

; 470  : 					{
; 471  : 						g_SoundMgr.PlaySound( szCurSound, pGrp->GetParentSceneNode() );

  00170	8b 07		 mov	 eax, DWORD PTR [edi]
  00172	6a 04		 push	 4
  00174	8b cf		 mov	 ecx, edi
  00176	ff 50 34	 call	 DWORD PTR [eax+52]
  00179	50		 push	 eax
  0017a	8d 45 b0	 lea	 eax, DWORD PTR _szCurSound$542556[ebp]
  0017d	50		 push	 eax
  0017e	ff 15 00 00 00
	00		 call	 DWORD PTR __imp_?GetSingleton@ioSoundManager@@SAAAV1@XZ
  00184	8b c8		 mov	 ecx, eax
  00186	ff 15 00 00 00
	00		 call	 DWORD PTR __imp_?PlaySoundA@ioSoundManager@@QAEKABVioHashString@@PAVioSceneNode@@K@Z
$LN4@OnItemGaug:

; 472  : 					}
; 473  : 				}
; 474  : 			}

  0018c	8b 35 00 00 00
	00		 mov	 esi, DWORD PTR __imp_??1ioHashString@@QAE@XZ
  00192	8d 4d b0	 lea	 ecx, DWORD PTR _szCurSound$542556[ebp]
  00195	c6 45 fc 00	 mov	 BYTE PTR __$EHRec$[ebp+8], 0
  00199	ff d6		 call	 esi
  0019b	83 4d fc ff	 or	 DWORD PTR __$EHRec$[ebp+8], -1
  0019f	8d 4d a0	 lea	 ecx, DWORD PTR _szCurEffect$542551[ebp]
  001a2	ff d6		 call	 esi

; 475  : 			else

  001a4	eb 3b		 jmp	 SHORT $LN13@OnItemGaug
$LN9@OnItemGaug:

; 476  : 			{
; 477  : 				ChangeToGathering( pOwner );

  001a6	57		 push	 edi
  001a7	8b cb		 mov	 ecx, ebx
  001a9	e8 00 00 00 00	 call	 ?ChangeToGathering@ioSummonChargeItem@@IAEXPAVioBaseChar@@@Z ; ioSummonChargeItem::ChangeToGathering

; 478  : 			}
; 479  : 		}
; 480  : 		break;

  001ae	eb 31		 jmp	 SHORT $LN13@OnItemGaug
$LN12@OnItemGaug:

; 428  : 	{
; 429  : 	case CS_NONE:
; 430  : 		//pOwner->SetAttackMoveEnable( false );
; 431  : 		pOwner->SetChargingState( false );

  001b0	c6 87 54 20 00
	00 00		 mov	 BYTE PTR [edi+8276], 0

; 432  : 		m_bSetChargingMoveAni = false;
; 433  : 
; 434  : 		if( m_GatheringEffectID != -1 )

  001b7	8b 83 74 19 00
	00		 mov	 eax, DWORD PTR [ebx+6516]
  001bd	c6 83 8c 19 00
	00 00		 mov	 BYTE PTR [ebx+6540], 0
  001c4	83 f8 ff	 cmp	 eax, -1
  001c7	74 11		 je	 SHORT $LN11@OnItemGaug

; 435  : 		{
; 436  : 			pOwner->EndEffect( m_GatheringEffectID, false );

  001c9	6a 00		 push	 0
  001cb	50		 push	 eax
  001cc	8b cf		 mov	 ecx, edi
  001ce	e8 00 00 00 00	 call	 ?EndEffect@ioBaseChar@@QAEXK_N@Z ; ioBaseChar::EndEffect

; 437  : 			m_GatheringEffectID = -1;

  001d3	83 8b 74 19 00
	00 ff		 or	 DWORD PTR [ebx+6516], -1
$LN11@OnItemGaug:

; 438  : 		}
; 439  : 
; 440  : 		m_ChargeState = CS_NONE;

  001da	83 a3 54 19 00
	00 00		 and	 DWORD PTR [ebx+6484], 0
$LN13@OnItemGaug:

; 496  : 	}
; 497  : }

  001e1	e8 00 00 00 00	 call	 __EH_epilog3_GS
  001e6	c2 08 00	 ret	 8
_TEXT	ENDS
;	COMDAT text$x
text$x	SEGMENT
__unwindfunclet$?OnItemGaugeOK@ioSummonChargeItem@@UAEXPAVioBaseChar@@AAVSP2Packet@@@Z$2:
  00000	8d 4d c0	 lea	 ecx, DWORD PTR _szAni$542564[ebp]
  00003	ff 25 00 00 00
	00		 jmp	 DWORD PTR __imp_??1ioHashString@@QAE@XZ
__unwindfunclet$?OnItemGaugeOK@ioSummonChargeItem@@UAEXPAVioBaseChar@@AAVSP2Packet@@@Z$0:
  00009	8d 4d a0	 lea	 ecx, DWORD PTR _szCurEffect$542551[ebp]
  0000c	ff 25 00 00 00
	00		 jmp	 DWORD PTR __imp_??1ioHashString@@QAE@XZ
__unwindfunclet$?OnItemGaugeOK@ioSummonChargeItem@@UAEXPAVioBaseChar@@AAVSP2Packet@@@Z$1:
  00012	8d 4d b0	 lea	 ecx, DWORD PTR _szCurSound$542556[ebp]
  00015	ff 25 00 00 00
	00		 jmp	 DWORD PTR __imp_??1ioHashString@@QAE@XZ
__ehhandler$?OnItemGaugeOK@ioSummonChargeItem@@UAEXPAVioBaseChar@@AAVSP2Packet@@@Z:
  0001b	8b 54 24 08	 mov	 edx, DWORD PTR [esp+8]
  0001f	8d 42 0c	 lea	 eax, DWORD PTR [edx+12]
  00022	8b 4a 9c	 mov	 ecx, DWORD PTR [edx-100]
  00025	33 c8		 xor	 ecx, eax
  00027	e8 00 00 00 00	 call	 @__security_check_cookie@4
  0002c	8b 4a fc	 mov	 ecx, DWORD PTR [edx-4]
  0002f	33 c8		 xor	 ecx, eax
  00031	e8 00 00 00 00	 call	 @__security_check_cookie@4
  00036	b8 00 00 00 00	 mov	 eax, OFFSET __ehfuncinfo$?OnItemGaugeOK@ioSummonChargeItem@@UAEXPAVioBaseChar@@AAVSP2Packet@@@Z
  0003b	e9 00 00 00 00	 jmp	 ___CxxFrameHandler3
text$x	ENDS
?OnItemGaugeOK@ioSummonChargeItem@@UAEXPAVioBaseChar@@AAVSP2Packet@@@Z ENDP ; ioSummonChargeItem::OnItemGaugeOK
PUBLIC	?CheckNextSummon@ioSummonChargeItem@@IAE_NPAVioBaseChar@@@Z ; ioSummonChargeItem::CheckNextSummon
;	COMDAT xdata$x
; File d:\lost saga for developer\youtube\tutorial\source\src\lsclient\iogameentity.h
xdata$x	SEGMENT
__unwindtable$?CheckNextSummon@ioSummonChargeItem@@IAE_NPAVioBaseChar@@@Z DD 0ffffffffH
	DD	FLAT:__unwindfunclet$?CheckNextSummon@ioSummonChargeItem@@IAE_NPAVioBaseChar@@@Z$0
	DD	00H
	DD	FLAT:__unwindfunclet$?CheckNextSummon@ioSummonChargeItem@@IAE_NPAVioBaseChar@@@Z$1
__ehfuncinfo$?CheckNextSummon@ioSummonChargeItem@@IAE_NPAVioBaseChar@@@Z DD 019930522H
	DD	02H
	DD	FLAT:__unwindtable$?CheckNextSummon@ioSummonChargeItem@@IAE_NPAVioBaseChar@@@Z
	DD	2 DUP(00H)
	DD	2 DUP(00H)
	DD	00H
	DD	01H
; Function compile flags: /Ogsp
; File d:\lost saga for developer\youtube\tutorial\source\src\lsclient\iosummonchargeitem.cpp
xdata$x	ENDS
;	COMDAT ?CheckNextSummon@ioSummonChargeItem@@IAE_NPAVioBaseChar@@@Z
_TEXT	SEGMENT
_szCurEffect$542693 = -48				; size = 16
_szCurSound$542698 = -32				; size = 16
_value$550007 = -16					; size = 4
__$EHRec$ = -12						; size = 12
_pOwner$ = 8						; size = 4
?CheckNextSummon@ioSummonChargeItem@@IAE_NPAVioBaseChar@@@Z PROC ; ioSummonChargeItem::CheckNextSummon, COMDAT
; _this$ = ecx

; 680  : {

  00000	6a 24		 push	 36			; 00000024H
  00002	b8 00 00 00 00	 mov	 eax, __ehhandler$?CheckNextSummon@ioSummonChargeItem@@IAE_NPAVioBaseChar@@@Z
  00007	e8 00 00 00 00	 call	 __EH_prolog3
  0000c	8b f1		 mov	 esi, ecx

; 681  : 	if( !pOwner ) return false;

  0000e	33 db		 xor	 ebx, ebx
  00010	39 5d 08	 cmp	 DWORD PTR _pOwner$[ebp], ebx
  00013	0f 84 0c 01 00
	00		 je	 $LN7@CheckNextS@2

; 682  : 	if( m_dwNextSummonTime <= 0 ) return false;

  00019	39 9e 10 1a 00
	00		 cmp	 DWORD PTR [esi+6672], ebx
  0001f	0f 86 00 01 00
	00		 jbe	 $LN7@CheckNextS@2

; 683  : 
; 684  : 	DWORD dwCurTime = FRAMEGETTIME();

  00025	ff 15 00 00 00
	00		 call	 DWORD PTR __imp_?GetSingleton@ioFrameTimer@@SAAAV1@XZ
  0002b	8b c8		 mov	 ecx, eax
  0002d	ff 15 00 00 00
	00		 call	 DWORD PTR __imp_?GetLoopSec@ioFrameTimer@@QBEKXZ

; 685  : 	if( m_dwNextSummonTime < dwCurTime )

  00033	39 86 10 1a 00
	00		 cmp	 DWORD PTR [esi+6672], eax
  00039	0f 83 e6 00 00
	00		 jae	 $LN7@CheckNextS@2

; 686  : 	{
; 687  : 		m_iCurSummonCnt++;

  0003f	8d 45 f0	 lea	 eax, DWORD PTR _value$550007[ebp]
  00042	50		 push	 eax
  00043	8d 8e e0 19 00
	00		 lea	 ecx, DWORD PTR [esi+6624]
  00049	e8 00 00 00 00	 call	 ?DecryptValueToPool@?$CEncrypt@H@@QAEXPAH@Z ; CEncrypt<int>::DecryptValueToPool
  0004e	ff 45 f0	 inc	 DWORD PTR _value$550007[ebp]
  00051	8d 45 f0	 lea	 eax, DWORD PTR _value$550007[ebp]
  00054	50		 push	 eax
  00055	8d 8e e0 19 00
	00		 lea	 ecx, DWORD PTR [esi+6624]
  0005b	e8 00 00 00 00	 call	 ?EncryptValueToPool@?$CEncrypt@H@@AAEXPBD@Z ; CEncrypt<int>::EncryptValueToPool

; 688  : 
; 689  : 		// Effect
; 690  : 		if( m_GatheringEffectID != -1 )

  00060	8b 86 74 19 00
	00		 mov	 eax, DWORD PTR [esi+6516]
  00066	83 f8 ff	 cmp	 eax, -1
  00069	74 11		 je	 SHORT $LN6@CheckNextS@2

; 691  : 		{
; 692  : 			pOwner->EndEffect( m_GatheringEffectID, false );

  0006b	8b 4d 08	 mov	 ecx, DWORD PTR _pOwner$[ebp]
  0006e	53		 push	 ebx
  0006f	50		 push	 eax
  00070	e8 00 00 00 00	 call	 ?EndEffect@ioBaseChar@@QAEXK_N@Z ; ioBaseChar::EndEffect

; 693  : 			m_GatheringEffectID = -1;

  00075	83 8e 74 19 00
	00 ff		 or	 DWORD PTR [esi+6516], -1
$LN6@CheckNextS@2:

; 694  : 		}
; 695  : 
; 696  : 		ioHashString szCurEffect = GetCurSummonEffect();

  0007c	8d 45 d0	 lea	 eax, DWORD PTR _szCurEffect$542693[ebp]
  0007f	50		 push	 eax
  00080	8b ce		 mov	 ecx, esi
  00082	e8 00 00 00 00	 call	 ?GetCurSummonEffect@ioSummonChargeItem@@IAE?AVioHashString@@XZ ; ioSummonChargeItem::GetCurSummonEffect

; 697  : 		if( !szCurEffect.IsEmpty() )

  00087	8d 4d d0	 lea	 ecx, DWORD PTR _szCurEffect$542693[ebp]
  0008a	89 5d fc	 mov	 DWORD PTR __$EHRec$[ebp+8], ebx
  0008d	ff 15 00 00 00
	00		 call	 DWORD PTR __imp_?IsEmpty@ioHashString@@QBE_NXZ
  00093	84 c0		 test	 al, al
  00095	75 22		 jne	 SHORT $LN4@CheckNextS@2

; 698  : 		{
; 699  : 			ioEffect *pEffect = pOwner->AttachEffect( szCurEffect );

  00097	8b 4d 08	 mov	 ecx, DWORD PTR _pOwner$[ebp]
  0009a	6a 01		 push	 1
  0009c	53		 push	 ebx
  0009d	8d 45 d0	 lea	 eax, DWORD PTR _szCurEffect$542693[ebp]
  000a0	50		 push	 eax
  000a1	e8 00 00 00 00	 call	 ?AttachEffect@ioBaseChar@@QAEPAVioEffect@@ABVioHashString@@PAVioEntityEvent@@_N@Z ; ioBaseChar::AttachEffect

; 700  : 			if( pEffect )

  000a6	3b c3		 cmp	 eax, ebx
  000a8	74 0f		 je	 SHORT $LN4@CheckNextS@2

; 701  : 				m_GatheringEffectID = pEffect->GetUniqueID();

  000aa	8d 48 14	 lea	 ecx, DWORD PTR [eax+20]
  000ad	ff 15 00 00 00
	00		 call	 DWORD PTR __imp_?GetUniqueID@ioMovableObject@@QBEKXZ
  000b3	89 86 74 19 00
	00		 mov	 DWORD PTR [esi+6516], eax
$LN4@CheckNextS@2:

; 702  : 		}
; 703  : 
; 704  : 		// Sound
; 705  : 		ioHashString szCurSound = GetCurSummonSound();

  000b9	8d 45 e0	 lea	 eax, DWORD PTR _szCurSound$542698[ebp]
  000bc	50		 push	 eax
  000bd	8b ce		 mov	 ecx, esi
  000bf	e8 00 00 00 00	 call	 ?GetCurSummonSound@ioSummonChargeItem@@IAE?AVioHashString@@XZ ; ioSummonChargeItem::GetCurSummonSound

; 706  : 		if( !szCurSound.IsEmpty() )

  000c4	8d 4d e0	 lea	 ecx, DWORD PTR _szCurSound$542698[ebp]
  000c7	c6 45 fc 01	 mov	 BYTE PTR __$EHRec$[ebp+8], 1
  000cb	ff 15 00 00 00
	00		 call	 DWORD PTR __imp_?IsEmpty@ioHashString@@QBE_NXZ
  000d1	84 c0		 test	 al, al
  000d3	75 24		 jne	 SHORT $LN2@CheckNextS@2

; 707  : 		{
; 708  : 			ioEntityGroup *pGrp = pOwner->GetGroup();

  000d5	8b 45 08	 mov	 eax, DWORD PTR _pOwner$[ebp]
  000d8	8b 48 04	 mov	 ecx, DWORD PTR [eax+4]

; 709  : 			if( pGrp )

  000db	3b cb		 cmp	 ecx, ebx
  000dd	74 1a		 je	 SHORT $LN2@CheckNextS@2

; 710  : 			{
; 711  : 				g_SoundMgr.PlaySound( szCurSound, pGrp->GetParentSceneNode() );

  000df	8b 01		 mov	 eax, DWORD PTR [ecx]
  000e1	6a 04		 push	 4
  000e3	ff 50 34	 call	 DWORD PTR [eax+52]
  000e6	50		 push	 eax
  000e7	8d 45 e0	 lea	 eax, DWORD PTR _szCurSound$542698[ebp]
  000ea	50		 push	 eax
  000eb	ff 15 00 00 00
	00		 call	 DWORD PTR __imp_?GetSingleton@ioSoundManager@@SAAAV1@XZ
  000f1	8b c8		 mov	 ecx, eax
  000f3	ff 15 00 00 00
	00		 call	 DWORD PTR __imp_?PlaySoundA@ioSoundManager@@QAEKABVioHashString@@PAVioSceneNode@@K@Z
$LN2@CheckNextS@2:

; 712  : 			}
; 713  : 		}
; 714  : 
; 715  : 		if( !CheckNextSummonTime() )

  000f9	8b ce		 mov	 ecx, esi
  000fb	e8 00 00 00 00	 call	 ?CheckNextSummonTime@ioSummonChargeItem@@IAE_NXZ ; ioSummonChargeItem::CheckNextSummonTime
  00100	84 c0		 test	 al, al
  00102	75 06		 jne	 SHORT $LN1@CheckNextS@2

; 716  : 		{
; 717  : 			m_dwNextSummonTime = 0;

  00104	89 9e 10 1a 00
	00		 mov	 DWORD PTR [esi+6672], ebx
$LN1@CheckNextS@2:

; 718  : 		}
; 719  : 
; 720  : 		return true;

  0010a	8b 35 00 00 00
	00		 mov	 esi, DWORD PTR __imp_??1ioHashString@@QAE@XZ
  00110	8d 4d e0	 lea	 ecx, DWORD PTR _szCurSound$542698[ebp]
  00113	88 5d fc	 mov	 BYTE PTR __$EHRec$[ebp+8], bl
  00116	ff d6		 call	 esi
  00118	83 4d fc ff	 or	 DWORD PTR __$EHRec$[ebp+8], -1
  0011c	8d 4d d0	 lea	 ecx, DWORD PTR _szCurEffect$542693[ebp]
  0011f	ff d6		 call	 esi
  00121	b0 01		 mov	 al, 1
  00123	eb 02		 jmp	 SHORT $LN10@CheckNextS@2
$LN7@CheckNextS@2:

; 721  : 	}
; 722  : 
; 723  : 	return false;

  00125	32 c0		 xor	 al, al
$LN10@CheckNextS@2:

; 724  : }

  00127	e8 00 00 00 00	 call	 __EH_epilog3
  0012c	c2 04 00	 ret	 4
_TEXT	ENDS
;	COMDAT text$x
text$x	SEGMENT
__unwindfunclet$?CheckNextSummon@ioSummonChargeItem@@IAE_NPAVioBaseChar@@@Z$0:
  00000	8d 4d d0	 lea	 ecx, DWORD PTR _szCurEffect$542693[ebp]
  00003	ff 25 00 00 00
	00		 jmp	 DWORD PTR __imp_??1ioHashString@@QAE@XZ
__unwindfunclet$?CheckNextSummon@ioSummonChargeItem@@IAE_NPAVioBaseChar@@@Z$1:
  00009	8d 4d e0	 lea	 ecx, DWORD PTR _szCurSound$542698[ebp]
  0000c	ff 25 00 00 00
	00		 jmp	 DWORD PTR __imp_??1ioHashString@@QAE@XZ
__ehhandler$?CheckNextSummon@ioSummonChargeItem@@IAE_NPAVioBaseChar@@@Z:
  00012	8b 54 24 08	 mov	 edx, DWORD PTR [esp+8]
  00016	8d 42 0c	 lea	 eax, DWORD PTR [edx+12]
  00019	8b 4a cc	 mov	 ecx, DWORD PTR [edx-52]
  0001c	33 c8		 xor	 ecx, eax
  0001e	e8 00 00 00 00	 call	 @__security_check_cookie@4
  00023	b8 00 00 00 00	 mov	 eax, OFFSET __ehfuncinfo$?CheckNextSummon@ioSummonChargeItem@@IAE_NPAVioBaseChar@@@Z
  00028	e9 00 00 00 00	 jmp	 ___CxxFrameHandler3
text$x	ENDS
?CheckNextSummon@ioSummonChargeItem@@IAE_NPAVioBaseChar@@@Z ENDP ; ioSummonChargeItem::CheckNextSummon
PUBLIC	??$_Uninit_copy@V?$_Vector_const_iterator@V?$_Vector_val@UForceInfo@@V?$allocator@UForceInfo@@@std@@@std@@@std@@PAUForceInfo@@V?$allocator@UForceInfo@@@2@@std@@YAPAUForceInfo@@V?$_Vector_const_iterator@V?$_Vector_val@UForceInfo@@V?$allocator@UForceInfo@@@std@@@std@@@0@0PAU1@AAV?$allocator@UForceInfo@@@0@U_Nonscalar_ptr_iterator_tag@0@@Z ; std::_Uninit_copy<std::_Vector_const_iterator<std::_Vector_val<ForceInfo,std::allocator<ForceInfo> > >,ForceInfo *,std::allocator<ForceInfo> >
; Function compile flags: /Ogsp
; File c:\program files (x86)\microsoft visual studio 10.0\vc\include\memory
;	COMDAT ??$_Uninit_copy@V?$_Vector_const_iterator@V?$_Vector_val@UForceInfo@@V?$allocator@UForceInfo@@@std@@@std@@@std@@PAUForceInfo@@V?$allocator@UForceInfo@@@2@@std@@YAPAUForceInfo@@V?$_Vector_const_iterator@V?$_Vector_val@UForceInfo@@V?$allocator@UForceInfo@@@std@@@std@@@0@0PAU1@AAV?$allocator@UForceInfo@@@0@U_Nonscalar_ptr_iterator_tag@0@@Z
_TEXT	SEGMENT
__First$ = 8						; size = 4
__Last$ = 12						; size = 4
__Dest$ = 16						; size = 4
__Al$ = 20						; size = 4
___formal$ = 24						; size = 1
??$_Uninit_copy@V?$_Vector_const_iterator@V?$_Vector_val@UForceInfo@@V?$allocator@UForceInfo@@@std@@@std@@@std@@PAUForceInfo@@V?$allocator@UForceInfo@@@2@@std@@YAPAUForceInfo@@V?$_Vector_const_iterator@V?$_Vector_val@UForceInfo@@V?$allocator@UForceInfo@@@std@@@std@@@0@0PAU1@AAV?$allocator@UForceInfo@@@0@U_Nonscalar_ptr_iterator_tag@0@@Z PROC ; std::_Uninit_copy<std::_Vector_const_iterator<std::_Vector_val<ForceInfo,std::allocator<ForceInfo> > >,ForceInfo *,std::allocator<ForceInfo> >, COMDAT

; 369  : 	{	// copy [_First, _Last) to raw _Dest, using _Al, arbitrary type

  00000	55		 push	 ebp
  00001	8b ec		 mov	 ebp, esp

; 370  : 	_DEBUG_RANGE(_First, _Last);
; 371  : 	_DEBUG_POINTER(_Dest);
; 372  : 	_FwdIt _Next = _Dest;
; 373  : 
; 374  : 	_TRY_BEGIN
; 375  : 	for (; _First != _Last; ++_Dest, ++_First)

  00003	eb 19		 jmp	 SHORT $LN35@Uninit_cop@2
$LL14@Uninit_cop@2:

; 376  : 		_Cons_val(_Al, _Dest, *_First);

  00005	ff 75 08	 push	 DWORD PTR __First$[ebp]
  00008	ff 75 10	 push	 DWORD PTR __Dest$[ebp]
  0000b	ff 75 14	 push	 DWORD PTR __Al$[ebp]
  0000e	e8 00 00 00 00	 call	 ??$_Cons_val@V?$allocator@UForceInfo@@@std@@UForceInfo@@ABU3@@std@@YAXAAV?$allocator@UForceInfo@@@0@PAUForceInfo@@ABU2@@Z ; std::_Cons_val<std::allocator<ForceInfo>,ForceInfo,ForceInfo const &>
  00013	83 45 10 0c	 add	 DWORD PTR __Dest$[ebp], 12 ; 0000000cH
  00017	83 c4 0c	 add	 esp, 12			; 0000000cH
  0001a	83 45 08 0c	 add	 DWORD PTR __First$[ebp], 12 ; 0000000cH
$LN35@Uninit_cop@2:

; 370  : 	_DEBUG_RANGE(_First, _Last);
; 371  : 	_DEBUG_POINTER(_Dest);
; 372  : 	_FwdIt _Next = _Dest;
; 373  : 
; 374  : 	_TRY_BEGIN
; 375  : 	for (; _First != _Last; ++_Dest, ++_First)

  0001e	8b 45 08	 mov	 eax, DWORD PTR __First$[ebp]
  00021	3b 45 0c	 cmp	 eax, DWORD PTR __Last$[ebp]
  00024	75 df		 jne	 SHORT $LL14@Uninit_cop@2

; 377  : 	_CATCH_ALL
; 378  : 	for (; _Next != _Dest; ++_Next)
; 379  : 		_Dest_val(_Al, _Next);
; 380  : 	_RERAISE;
; 381  : 	_CATCH_END
; 382  : 	return (_Dest);

  00026	8b 45 10	 mov	 eax, DWORD PTR __Dest$[ebp]

; 383  : 	}

  00029	5d		 pop	 ebp
  0002a	c3		 ret	 0
??$_Uninit_copy@V?$_Vector_const_iterator@V?$_Vector_val@UForceInfo@@V?$allocator@UForceInfo@@@std@@@std@@@std@@PAUForceInfo@@V?$allocator@UForceInfo@@@2@@std@@YAPAUForceInfo@@V?$_Vector_const_iterator@V?$_Vector_val@UForceInfo@@V?$allocator@UForceInfo@@@std@@@std@@@0@0PAU1@AAV?$allocator@UForceInfo@@@0@U_Nonscalar_ptr_iterator_tag@0@@Z ENDP ; std::_Uninit_copy<std::_Vector_const_iterator<std::_Vector_val<ForceInfo,std::allocator<ForceInfo> > >,ForceInfo *,std::allocator<ForceInfo> >
_TEXT	ENDS
PUBLIC	??$_Cons_val@V?$allocator@UWeaponInfo@@@std@@UWeaponInfo@@ABU3@@std@@YAXAAV?$allocator@UWeaponInfo@@@0@PAUWeaponInfo@@ABU2@@Z ; std::_Cons_val<std::allocator<WeaponInfo>,WeaponInfo,WeaponInfo const &>
; Function compile flags: /Ogsp
; File c:\program files (x86)\microsoft visual studio 10.0\vc\include\xmemory
;	COMDAT ??$_Cons_val@V?$allocator@UWeaponInfo@@@std@@UWeaponInfo@@ABU3@@std@@YAXAAV?$allocator@UWeaponInfo@@@0@PAUWeaponInfo@@ABU2@@Z
_TEXT	SEGMENT
__Alval$ = 8						; size = 4
__Pdest$ = 12						; size = 4
__Src$ = 16						; size = 4
??$_Cons_val@V?$allocator@UWeaponInfo@@@std@@UWeaponInfo@@ABU3@@std@@YAXAAV?$allocator@UWeaponInfo@@@0@PAUWeaponInfo@@ABU2@@Z PROC ; std::_Cons_val<std::allocator<WeaponInfo>,WeaponInfo,WeaponInfo const &>, COMDAT

; 279  : 	{	// construct using allocator

  00000	55		 push	 ebp
  00001	8b ec		 mov	 ebp, esp

; 280  : 	_Alval.construct(_Pdest, _STD forward<_Ty2>(_Src));

  00003	ff 75 10	 push	 DWORD PTR __Src$[ebp]
  00006	ff 75 0c	 push	 DWORD PTR __Pdest$[ebp]
  00009	e8 00 00 00 00	 call	 ??$_Construct@UWeaponInfo@@ABU1@@std@@YAXPAUWeaponInfo@@ABU1@@Z ; std::_Construct<WeaponInfo,WeaponInfo const &>
  0000e	59		 pop	 ecx
  0000f	59		 pop	 ecx

; 281  : 	}

  00010	5d		 pop	 ebp
  00011	c3		 ret	 0
??$_Cons_val@V?$allocator@UWeaponInfo@@@std@@UWeaponInfo@@ABU3@@std@@YAXAAV?$allocator@UWeaponInfo@@@0@PAUWeaponInfo@@ABU2@@Z ENDP ; std::_Cons_val<std::allocator<WeaponInfo>,WeaponInfo,WeaponInfo const &>
_TEXT	ENDS
PUBLIC	??$_Destroy_range@V?$allocator@UForceInfo@@@std@@@std@@YAXPAUForceInfo@@0AAV?$allocator@UForceInfo@@@0@U_Nonscalar_ptr_iterator_tag@0@@Z ; std::_Destroy_range<std::allocator<ForceInfo> >
; Function compile flags: /Ogsp
;	COMDAT ??$_Destroy_range@V?$allocator@UForceInfo@@@std@@@std@@YAXPAUForceInfo@@0AAV?$allocator@UForceInfo@@@0@U_Nonscalar_ptr_iterator_tag@0@@Z
_TEXT	SEGMENT
__First$ = 8						; size = 4
__Last$ = 12						; size = 4
__Al$ = 16						; size = 4
___formal$ = 20						; size = 1
??$_Destroy_range@V?$allocator@UForceInfo@@@std@@@std@@YAXPAUForceInfo@@0AAV?$allocator@UForceInfo@@@0@U_Nonscalar_ptr_iterator_tag@0@@Z PROC ; std::_Destroy_range<std::allocator<ForceInfo> >, COMDAT

; 96   : 	for (; _First != _Last; ++_First)
; 97   : 		_Dest_val(_Al, _First);
; 98   : 	}

  00000	c3		 ret	 0
??$_Destroy_range@V?$allocator@UForceInfo@@@std@@@std@@YAXPAUForceInfo@@0AAV?$allocator@UForceInfo@@@0@U_Nonscalar_ptr_iterator_tag@0@@Z ENDP ; std::_Destroy_range<std::allocator<ForceInfo> >
_TEXT	ENDS
PUBLIC	??$_Dest_val@V?$allocator@UWeaponInfo@@@std@@UWeaponInfo@@@std@@YAXAAV?$allocator@UWeaponInfo@@@0@PAUWeaponInfo@@@Z ; std::_Dest_val<std::allocator<WeaponInfo>,WeaponInfo>
; Function compile flags: /Ogsp
;	COMDAT ??$_Dest_val@V?$allocator@UWeaponInfo@@@std@@UWeaponInfo@@@std@@YAXAAV?$allocator@UWeaponInfo@@@0@PAUWeaponInfo@@@Z
_TEXT	SEGMENT
__Alval$ = 8						; size = 4
__Pdest$ = 12						; size = 4
??$_Dest_val@V?$allocator@UWeaponInfo@@@std@@UWeaponInfo@@@std@@YAXAAV?$allocator@UWeaponInfo@@@0@PAUWeaponInfo@@@Z PROC ; std::_Dest_val<std::allocator<WeaponInfo>,WeaponInfo>, COMDAT

; 286  : 	{	// destroy using allocator

  00000	55		 push	 ebp
  00001	8b ec		 mov	 ebp, esp

; 287  : 	_Alval.destroy(_Pdest);

  00003	8b 4d 0c	 mov	 ecx, DWORD PTR __Pdest$[ebp]
  00006	83 c1 08	 add	 ecx, 8

; 288  : 	}

  00009	5d		 pop	 ebp

; 287  : 	_Alval.destroy(_Pdest);

  0000a	ff 25 00 00 00
	00		 jmp	 DWORD PTR __imp_??1ioHashString@@QAE@XZ
??$_Dest_val@V?$allocator@UWeaponInfo@@@std@@UWeaponInfo@@@std@@YAXAAV?$allocator@UWeaponInfo@@@0@PAUWeaponInfo@@@Z ENDP ; std::_Dest_val<std::allocator<WeaponInfo>,WeaponInfo>
_TEXT	ENDS
PUBLIC	??$_Uninitialized_copy@PAUForceInfo@@PAU1@V?$allocator@UForceInfo@@@std@@@std@@YAPAUForceInfo@@PAU1@00AAV?$allocator@UForceInfo@@@0@@Z ; std::_Uninitialized_copy<ForceInfo *,ForceInfo *,std::allocator<ForceInfo> >
; Function compile flags: /Ogsp
; File c:\program files (x86)\microsoft visual studio 10.0\vc\include\memory
;	COMDAT ??$_Uninitialized_copy@PAUForceInfo@@PAU1@V?$allocator@UForceInfo@@@std@@@std@@YAPAUForceInfo@@PAU1@00AAV?$allocator@UForceInfo@@@0@@Z
_TEXT	SEGMENT
__Cat$550135 = -4					; size = 1
__First$ = 8						; size = 4
__Last$ = 12						; size = 4
__Dest$ = 16						; size = 4
__Al$ = 20						; size = 4
??$_Uninitialized_copy@PAUForceInfo@@PAU1@V?$allocator@UForceInfo@@@std@@@std@@YAPAUForceInfo@@PAU1@00AAV?$allocator@UForceInfo@@@0@@Z PROC ; std::_Uninitialized_copy<ForceInfo *,ForceInfo *,std::allocator<ForceInfo> >, COMDAT

; 412  : 	{	// copy [_First, _Last) to raw _Dest, using _Al

  00000	55		 push	 ebp
  00001	8b ec		 mov	 ebp, esp
  00003	51		 push	 ecx

; 413  : 	return (_Uninit_copy(_First, _Last, _Dest, _Al,
; 414  : 		_Ptr_cat(_First, _Dest)));

  00004	ff 75 fc	 push	 DWORD PTR __Cat$550135[ebp]
  00007	ff 75 14	 push	 DWORD PTR __Al$[ebp]
  0000a	ff 75 10	 push	 DWORD PTR __Dest$[ebp]
  0000d	ff 75 0c	 push	 DWORD PTR __Last$[ebp]
  00010	ff 75 08	 push	 DWORD PTR __First$[ebp]
  00013	e8 00 00 00 00	 call	 ??$_Uninit_copy@PAUForceInfo@@PAU1@V?$allocator@UForceInfo@@@std@@@std@@YAPAUForceInfo@@PAU1@00AAV?$allocator@UForceInfo@@@0@U_Nonscalar_ptr_iterator_tag@0@@Z ; std::_Uninit_copy<ForceInfo *,ForceInfo *,std::allocator<ForceInfo> >
  00018	83 c4 14	 add	 esp, 20			; 00000014H

; 415  : 	}

  0001b	c9		 leave
  0001c	c3		 ret	 0
??$_Uninitialized_copy@PAUForceInfo@@PAU1@V?$allocator@UForceInfo@@@std@@@std@@YAPAUForceInfo@@PAU1@00AAV?$allocator@UForceInfo@@@0@@Z ENDP ; std::_Uninitialized_copy<ForceInfo *,ForceInfo *,std::allocator<ForceInfo> >
_TEXT	ENDS
PUBLIC	??$_Uninit_copy@PAUWeaponInfo@@PAU1@V?$allocator@UWeaponInfo@@@std@@@std@@YAPAUWeaponInfo@@PAU1@00AAV?$allocator@UWeaponInfo@@@0@U_Nonscalar_ptr_iterator_tag@0@@Z ; std::_Uninit_copy<WeaponInfo *,WeaponInfo *,std::allocator<WeaponInfo> >
EXTRN	__EH_prolog3_catch:PROC
;	COMDAT xdata$x
; File d:\lost saga for developer\youtube\tutorial\source\src\lsclient\playentityhelpstruct.h
xdata$x	SEGMENT
__catchsym$??$_Uninit_copy@PAUWeaponInfo@@PAU1@V?$allocator@UWeaponInfo@@@std@@@std@@YAPAUWeaponInfo@@PAU1@00AAV?$allocator@UWeaponInfo@@@0@U_Nonscalar_ptr_iterator_tag@0@@Z$3 DD 040H
	DD	00H
	DD	00H
	DD	FLAT:__catch$??$_Uninit_copy@PAUWeaponInfo@@PAU1@V?$allocator@UWeaponInfo@@@std@@@std@@YAPAUWeaponInfo@@PAU1@00AAV?$allocator@UWeaponInfo@@@0@U_Nonscalar_ptr_iterator_tag@0@@Z$0
__unwindtable$??$_Uninit_copy@PAUWeaponInfo@@PAU1@V?$allocator@UWeaponInfo@@@std@@@std@@YAPAUWeaponInfo@@PAU1@00AAV?$allocator@UWeaponInfo@@@0@U_Nonscalar_ptr_iterator_tag@0@@Z DD 0ffffffffH
	DD	00H
	DD	0ffffffffH
	DD	00H
__tryblocktable$??$_Uninit_copy@PAUWeaponInfo@@PAU1@V?$allocator@UWeaponInfo@@@std@@@std@@YAPAUWeaponInfo@@PAU1@00AAV?$allocator@UWeaponInfo@@@0@U_Nonscalar_ptr_iterator_tag@0@@Z DD 00H
	DD	00H
	DD	01H
	DD	01H
	DD	FLAT:__catchsym$??$_Uninit_copy@PAUWeaponInfo@@PAU1@V?$allocator@UWeaponInfo@@@std@@@std@@YAPAUWeaponInfo@@PAU1@00AAV?$allocator@UWeaponInfo@@@0@U_Nonscalar_ptr_iterator_tag@0@@Z$3
__ehfuncinfo$??$_Uninit_copy@PAUWeaponInfo@@PAU1@V?$allocator@UWeaponInfo@@@std@@@std@@YAPAUWeaponInfo@@PAU1@00AAV?$allocator@UWeaponInfo@@@0@U_Nonscalar_ptr_iterator_tag@0@@Z DD 019930522H
	DD	02H
	DD	FLAT:__unwindtable$??$_Uninit_copy@PAUWeaponInfo@@PAU1@V?$allocator@UWeaponInfo@@@std@@@std@@YAPAUWeaponInfo@@PAU1@00AAV?$allocator@UWeaponInfo@@@0@U_Nonscalar_ptr_iterator_tag@0@@Z
	DD	01H
	DD	FLAT:__tryblocktable$??$_Uninit_copy@PAUWeaponInfo@@PAU1@V?$allocator@UWeaponInfo@@@std@@@std@@YAPAUWeaponInfo@@PAU1@00AAV?$allocator@UWeaponInfo@@@0@U_Nonscalar_ptr_iterator_tag@0@@Z
	DD	2 DUP(00H)
	DD	00H
	DD	01H
; Function compile flags: /Ogsp
; File c:\program files (x86)\microsoft visual studio 10.0\vc\include\memory
xdata$x	ENDS
;	COMDAT ??$_Uninit_copy@PAUWeaponInfo@@PAU1@V?$allocator@UWeaponInfo@@@std@@@std@@YAPAUWeaponInfo@@PAU1@00AAV?$allocator@UWeaponInfo@@@0@U_Nonscalar_ptr_iterator_tag@0@@Z
_TEXT	SEGMENT
__Next$ = -20						; size = 4
__$EHRec$ = -16						; size = 16
__First$ = 8						; size = 4
__Last$ = 12						; size = 4
__Dest$ = 16						; size = 4
__Al$ = 20						; size = 4
___formal$ = 24						; size = 1
??$_Uninit_copy@PAUWeaponInfo@@PAU1@V?$allocator@UWeaponInfo@@@std@@@std@@YAPAUWeaponInfo@@PAU1@00AAV?$allocator@UWeaponInfo@@@0@U_Nonscalar_ptr_iterator_tag@0@@Z PROC ; std::_Uninit_copy<WeaponInfo *,WeaponInfo *,std::allocator<WeaponInfo> >, COMDAT

; 369  : 	{	// copy [_First, _Last) to raw _Dest, using _Al, arbitrary type

  00000	6a 08		 push	 8
  00002	b8 00 00 00 00	 mov	 eax, __ehhandler$??$_Uninit_copy@PAUWeaponInfo@@PAU1@V?$allocator@UWeaponInfo@@@std@@@std@@YAPAUWeaponInfo@@PAU1@00AAV?$allocator@UWeaponInfo@@@0@U_Nonscalar_ptr_iterator_tag@0@@Z
  00007	e8 00 00 00 00	 call	 __EH_prolog3_catch

; 370  : 	_DEBUG_RANGE(_First, _Last);
; 371  : 	_DEBUG_POINTER(_Dest);
; 372  : 	_FwdIt _Next = _Dest;

  0000c	8b 45 10	 mov	 eax, DWORD PTR __Dest$[ebp]

; 373  : 
; 374  : 	_TRY_BEGIN

  0000f	83 65 fc 00	 and	 DWORD PTR __$EHRec$[ebp+12], 0
  00013	8b 75 08	 mov	 esi, DWORD PTR __First$[ebp]
  00016	89 45 ec	 mov	 DWORD PTR __Next$[ebp], eax
$LL6@Uninit_cop@3:

; 375  : 	for (; _First != _Last; ++_Dest, ++_First)

  00019	3b 75 0c	 cmp	 esi, DWORD PTR __Last$[ebp]
  0001c	74 37		 je	 SHORT $LN4@Uninit_cop@3

; 376  : 		_Cons_val(_Al, _Dest, *_First);

  0001e	56		 push	 esi
  0001f	ff 75 10	 push	 DWORD PTR __Dest$[ebp]
  00022	ff 75 14	 push	 DWORD PTR __Al$[ebp]
  00025	e8 00 00 00 00	 call	 ??$_Cons_val@V?$allocator@UWeaponInfo@@@std@@UWeaponInfo@@AAU3@@std@@YAXAAV?$allocator@UWeaponInfo@@@0@PAUWeaponInfo@@AAU2@@Z ; std::_Cons_val<std::allocator<WeaponInfo>,WeaponInfo,WeaponInfo &>
  0002a	83 45 10 28	 add	 DWORD PTR __Dest$[ebp], 40 ; 00000028H
  0002e	83 c4 0c	 add	 esp, 12			; 0000000cH
  00031	83 c6 28	 add	 esi, 40			; 00000028H
  00034	eb e3		 jmp	 SHORT $LL6@Uninit_cop@3
__catch$??$_Uninit_copy@PAUWeaponInfo@@PAU1@V?$allocator@UWeaponInfo@@@std@@@std@@YAPAUWeaponInfo@@PAU1@00AAV?$allocator@UWeaponInfo@@@0@U_Nonscalar_ptr_iterator_tag@0@@Z$0:

; 377  : 	_CATCH_ALL
; 378  : 	for (; _Next != _Dest; ++_Next)

  00036	8b 75 ec	 mov	 esi, DWORD PTR __Next$[ebp]
  00039	eb 0c		 jmp	 SHORT $LN32@Uninit_cop@3
$LL3@Uninit_cop@3:

; 379  : 		_Dest_val(_Al, _Next);

  0003b	8d 4e 08	 lea	 ecx, DWORD PTR [esi+8]
  0003e	ff 15 00 00 00
	00		 call	 DWORD PTR __imp_??1ioHashString@@QAE@XZ
  00044	83 c6 28	 add	 esi, 40			; 00000028H
$LN32@Uninit_cop@3:

; 377  : 	_CATCH_ALL
; 378  : 	for (; _Next != _Dest; ++_Next)

  00047	3b 75 10	 cmp	 esi, DWORD PTR __Dest$[ebp]
  0004a	75 ef		 jne	 SHORT $LL3@Uninit_cop@3

; 380  : 	_RERAISE;

  0004c	6a 00		 push	 0
  0004e	6a 00		 push	 0
  00050	e8 00 00 00 00	 call	 __CxxThrowException@8
$LN33@Uninit_cop@3:
$LN4@Uninit_cop@3:

; 381  : 	_CATCH_END
; 382  : 	return (_Dest);

  00055	8b 45 10	 mov	 eax, DWORD PTR __Dest$[ebp]

; 383  : 	}

  00058	e8 00 00 00 00	 call	 __EH_epilog3
  0005d	c3		 ret	 0
$LN31@Uninit_cop@3:
_TEXT	ENDS
;	COMDAT text$x
text$x	SEGMENT
__ehhandler$??$_Uninit_copy@PAUWeaponInfo@@PAU1@V?$allocator@UWeaponInfo@@@std@@@std@@YAPAUWeaponInfo@@PAU1@00AAV?$allocator@UWeaponInfo@@@0@U_Nonscalar_ptr_iterator_tag@0@@Z:
  00000	8b 54 24 08	 mov	 edx, DWORD PTR [esp+8]
  00004	8d 42 0c	 lea	 eax, DWORD PTR [edx+12]
  00007	8b 4a e8	 mov	 ecx, DWORD PTR [edx-24]
  0000a	33 c8		 xor	 ecx, eax
  0000c	e8 00 00 00 00	 call	 @__security_check_cookie@4
  00011	b8 00 00 00 00	 mov	 eax, OFFSET __ehfuncinfo$??$_Uninit_copy@PAUWeaponInfo@@PAU1@V?$allocator@UWeaponInfo@@@std@@@std@@YAPAUWeaponInfo@@PAU1@00AAV?$allocator@UWeaponInfo@@@0@U_Nonscalar_ptr_iterator_tag@0@@Z
  00016	e9 00 00 00 00	 jmp	 ___CxxFrameHandler3
text$x	ENDS
??$_Uninit_copy@PAUWeaponInfo@@PAU1@V?$allocator@UWeaponInfo@@@std@@@std@@YAPAUWeaponInfo@@PAU1@00AAV?$allocator@UWeaponInfo@@@0@U_Nonscalar_ptr_iterator_tag@0@@Z ENDP ; std::_Uninit_copy<WeaponInfo *,WeaponInfo *,std::allocator<WeaponInfo> >
PUBLIC	?OnCharging@ioSummonChargeItem@@IAEXPAVioBaseChar@@@Z ; ioSummonChargeItem::OnCharging
; Function compile flags: /Ogsp
; File d:\lost saga for developer\youtube\tutorial\source\src\lsclient\iosummonchargeitem.cpp
;	COMDAT ?OnCharging@ioSummonChargeItem@@IAEXPAVioBaseChar@@@Z
_TEXT	SEGMENT
_value$550203 = 8					; size = 4
_pOwner$ = 8						; size = 4
?OnCharging@ioSummonChargeItem@@IAEXPAVioBaseChar@@@Z PROC ; ioSummonChargeItem::OnCharging, COMDAT
; _this$ = ecx

; 219  : {

  00000	55		 push	 ebp
  00001	8b ec		 mov	 ebp, esp
  00003	56		 push	 esi

; 220  : 	if( !pOwner->IsNeedProcess() )	return;

  00004	8b 75 08	 mov	 esi, DWORD PTR _pOwner$[ebp]
  00007	8b 06		 mov	 eax, DWORD PTR [esi]
  00009	57		 push	 edi
  0000a	8b f9		 mov	 edi, ecx
  0000c	8b ce		 mov	 ecx, esi
  0000e	ff 90 00 01 00
	00		 call	 DWORD PTR [eax+256]
  00014	84 c0		 test	 al, al
  00016	74 49		 je	 SHORT $LN1@OnCharging

; 221  : 
; 222  : 	if( pOwner->IsAttackKeyDown() )

  00018	8b ce		 mov	 ecx, esi
  0001a	e8 00 00 00 00	 call	 ?IsAttackKeyDown@ioBaseChar@@QBE_NXZ ; ioBaseChar::IsAttackKeyDown
  0001f	84 c0		 test	 al, al
  00021	74 34		 je	 SHORT $LN3@OnCharging

; 223  : 	{
; 224  : 		if( m_dwAttackStartTime + m_dwChargeTime <= FRAMEGETTIME() )

  00023	8d 45 08	 lea	 eax, DWORD PTR _value$550203[ebp]
  00026	50		 push	 eax
  00027	8d 8f b0 18 00
	00		 lea	 ecx, DWORD PTR [edi+6320]
  0002d	e8 00 00 00 00	 call	 ?DecryptValueToPool@?$CEncrypt@K@@QAEXPAK@Z ; CEncrypt<unsigned long>::DecryptValueToPool
  00032	ff 15 00 00 00
	00		 call	 DWORD PTR __imp_?GetSingleton@ioFrameTimer@@SAAAV1@XZ
  00038	8b c8		 mov	 ecx, eax
  0003a	ff 15 00 00 00
	00		 call	 DWORD PTR __imp_?GetLoopSec@ioFrameTimer@@QBEKXZ
  00040	8b 8f 58 19 00
	00		 mov	 ecx, DWORD PTR [edi+6488]
  00046	03 4d 08	 add	 ecx, DWORD PTR _value$550203[ebp]
  00049	3b c8		 cmp	 ecx, eax
  0004b	77 14		 ja	 SHORT $LN1@OnCharging

; 225  : 		{
; 226  : 			ChangeToGathering( pOwner );

  0004d	56		 push	 esi
  0004e	8b cf		 mov	 ecx, edi
  00050	e8 00 00 00 00	 call	 ?ChangeToGathering@ioSummonChargeItem@@IAEXPAVioBaseChar@@@Z ; ioSummonChargeItem::ChangeToGathering

; 227  : 		}
; 228  : 	}
; 229  : 	else

  00055	eb 0a		 jmp	 SHORT $LN1@OnCharging
$LN3@OnCharging:

; 230  : 	{
; 231  : 		ChangeToAttackFire( pOwner, false );

  00057	6a 00		 push	 0
  00059	56		 push	 esi
  0005a	8b cf		 mov	 ecx, edi
  0005c	e8 00 00 00 00	 call	 ?ChangeToAttackFire@ioSummonChargeItem@@IAEXPAVioBaseChar@@_N@Z ; ioSummonChargeItem::ChangeToAttackFire
$LN1@OnCharging:
  00061	5f		 pop	 edi
  00062	5e		 pop	 esi

; 232  : 	}
; 233  : }

  00063	5d		 pop	 ebp
  00064	c2 04 00	 ret	 4
?OnCharging@ioSummonChargeItem@@IAEXPAVioBaseChar@@@Z ENDP ; ioSummonChargeItem::OnCharging
_TEXT	ENDS
PUBLIC	__$ArrayPad$
PUBLIC	?OnGathering@ioSummonChargeItem@@IAEXPAVioBaseChar@@@Z ; ioSummonChargeItem::OnGathering
;	COMDAT xdata$x
; File d:\lost saga for developer\youtube\tutorial\source\src\lsclient\iobasechar.h
xdata$x	SEGMENT
__unwindtable$?OnGathering@ioSummonChargeItem@@IAEXPAVioBaseChar@@@Z DD 0ffffffffH
	DD	FLAT:__unwindfunclet$?OnGathering@ioSummonChargeItem@@IAEXPAVioBaseChar@@@Z$0
	DD	0ffffffffH
	DD	FLAT:__unwindfunclet$?OnGathering@ioSummonChargeItem@@IAEXPAVioBaseChar@@@Z$1
__ehfuncinfo$?OnGathering@ioSummonChargeItem@@IAEXPAVioBaseChar@@@Z DD 019930522H
	DD	02H
	DD	FLAT:__unwindtable$?OnGathering@ioSummonChargeItem@@IAEXPAVioBaseChar@@@Z
	DD	2 DUP(00H)
	DD	2 DUP(00H)
	DD	00H
	DD	01H
; Function compile flags: /Ogsp
; File d:\lost saga for developer\youtube\tutorial\source\src\lsclient\iosummonchargeitem.cpp
xdata$x	ENDS
;	COMDAT ?OnGathering@ioSummonChargeItem@@IAEXPAVioBaseChar@@@Z
_TEXT	SEGMENT
_kPacket$542480 = -65600				; size = 32812
_kPacket$542485 = -32808				; size = 32792
__$ArrayPad$ = -16					; size = 4
__$EHRec$ = -12						; size = 12
_pOwner$ = 8						; size = 4
?OnGathering@ioSummonChargeItem@@IAEXPAVioBaseChar@@@Z PROC ; ioSummonChargeItem::OnGathering, COMDAT
; _this$ = ecx

; 236  : {

  00000	55		 push	 ebp
  00001	8b ec		 mov	 ebp, esp
  00003	6a ff		 push	 -1
  00005	68 00 00 00 00	 push	 __ehhandler$?OnGathering@ioSummonChargeItem@@IAEXPAVioBaseChar@@@Z
  0000a	64 a1 00 00 00
	00		 mov	 eax, DWORD PTR fs:0
  00010	50		 push	 eax
  00011	b8 34 00 01 00	 mov	 eax, 65588		; 00010034H
  00016	e8 00 00 00 00	 call	 __chkstk
  0001b	a1 00 00 00 00	 mov	 eax, DWORD PTR ___security_cookie
  00020	33 c5		 xor	 eax, ebp
  00022	89 45 f0	 mov	 DWORD PTR __$ArrayPad$[ebp], eax
  00025	53		 push	 ebx
  00026	56		 push	 esi
  00027	57		 push	 edi
  00028	50		 push	 eax
  00029	8d 45 f4	 lea	 eax, DWORD PTR __$EHRec$[ebp]
  0002c	64 a3 00 00 00
	00		 mov	 DWORD PTR fs:0, eax
  00032	8b 7d 08	 mov	 edi, DWORD PTR _pOwner$[ebp]

; 237  : 	if( !pOwner->IsNeedProcess() )	return;

  00035	8b 07		 mov	 eax, DWORD PTR [edi]
  00037	8b f1		 mov	 esi, ecx
  00039	8b cf		 mov	 ecx, edi
  0003b	ff 90 00 01 00
	00		 call	 DWORD PTR [eax+256]
  00041	84 c0		 test	 al, al
  00043	0f 84 0e 02 00
	00		 je	 $LN1@OnGatherin

; 238  : 
; 239  : 	DWORD dwCurTime = FRAMEGETTIME();

  00049	ff 15 00 00 00
	00		 call	 DWORD PTR __imp_?GetSingleton@ioFrameTimer@@SAAAV1@XZ
  0004f	8b c8		 mov	 ecx, eax
  00051	ff 15 00 00 00
	00		 call	 DWORD PTR __imp_?GetLoopSec@ioFrameTimer@@QBEKXZ

; 240  : 
; 241  : 	// , .
; 242  : 	if( !pOwner->IsAttackKeyDown() )

  00057	8b cf		 mov	 ecx, edi
  00059	e8 00 00 00 00	 call	 ?IsAttackKeyDown@ioBaseChar@@QBE_NXZ ; ioBaseChar::IsAttackKeyDown
  0005e	84 c0		 test	 al, al
  00060	75 0f		 jne	 SHORT $LN9@OnGatherin

; 243  : 	{
; 244  : 		ChangeToAttackFire( pOwner, true );

  00062	6a 01		 push	 1
  00064	57		 push	 edi
  00065	8b ce		 mov	 ecx, esi
  00067	e8 00 00 00 00	 call	 ?ChangeToAttackFire@ioSummonChargeItem@@IAEXPAVioBaseChar@@_N@Z ; ioSummonChargeItem::ChangeToAttackFire

; 245  : 		return;

  0006c	e9 e6 01 00 00	 jmp	 $LN1@OnGatherin
$LN9@OnGatherin:

; 246  : 	}
; 247  : 
; 248  : 	//  .  
; 249  : 	if( pOwner->IsJumpKeyDown() && pOwner->IsCanJumpState() && !pOwner->IsBuffLimitJump() )

  00071	8b cf		 mov	 ecx, edi
  00073	e8 00 00 00 00	 call	 ?IsJumpKeyDown@ioBaseChar@@QBE_NXZ ; ioBaseChar::IsJumpKeyDown
  00078	84 c0		 test	 al, al
  0007a	74 24		 je	 SHORT $LN8@OnGatherin
  0007c	8b cf		 mov	 ecx, edi
  0007e	e8 00 00 00 00	 call	 ?IsCanJumpState@ioBaseChar@@QAE_NXZ ; ioBaseChar::IsCanJumpState
  00083	84 c0		 test	 al, al
  00085	74 19		 je	 SHORT $LN8@OnGatherin
  00087	8b cf		 mov	 ecx, edi
  00089	e8 00 00 00 00	 call	 ?IsBuffLimitJump@ioBaseChar@@QBE_NXZ ; ioBaseChar::IsBuffLimitJump
  0008e	84 c0		 test	 al, al
  00090	75 0e		 jne	 SHORT $LN8@OnGatherin

; 250  : 	{
; 251  : 		pOwner->SetJumpState();

  00092	6a 01		 push	 1
  00094	8b cf		 mov	 ecx, edi
  00096	e8 00 00 00 00	 call	 ?SetJumpState@ioBaseChar@@QAEX_N@Z ; ioBaseChar::SetJumpState

; 252  : 		return;

  0009b	e9 b7 01 00 00	 jmp	 $LN1@OnGatherin
$LN8@OnGatherin:

; 253  : 	}
; 254  : 
; 255  : 	// SD  .
; 256  : 	if( pOwner->IsDefenseKeyDown() )

  000a0	8b cf		 mov	 ecx, edi
  000a2	e8 00 00 00 00	 call	 ?IsDefenseKeyDown@ioBaseChar@@QBE_NXZ ; ioBaseChar::IsDefenseKeyDown
  000a7	84 c0		 test	 al, al
  000a9	0f 84 e4 00 00
	00		 je	 $LN7@OnGatherin

; 257  : 	{
; 258  : 		int iSkillNum = pOwner->GetSkillKeyInput();

  000af	8b cf		 mov	 ecx, edi
  000b1	e8 00 00 00 00	 call	 ?GetSkillKeyInput@ioBaseChar@@QAEHXZ ; ioBaseChar::GetSkillKeyInput

; 259  : 		if(iSkillNum == 0 && !pOwner->IsBuffLimitSkill() && pOwner->SetUseSkill(iSkillNum, SUT_NORMAL))

  000b6	33 db		 xor	 ebx, ebx
  000b8	3b c3		 cmp	 eax, ebx
  000ba	0f 85 f1 00 00
	00		 jne	 $LN2@OnGatherin
  000c0	8b cf		 mov	 ecx, edi
  000c2	e8 00 00 00 00	 call	 ?IsBuffLimitSkill@ioBaseChar@@QBE_NXZ ; ioBaseChar::IsBuffLimitSkill
  000c7	84 c0		 test	 al, al
  000c9	0f 85 e2 00 00
	00		 jne	 $LN2@OnGatherin
  000cf	53		 push	 ebx
  000d0	53		 push	 ebx
  000d1	53		 push	 ebx
  000d2	53		 push	 ebx
  000d3	8b cf		 mov	 ecx, edi
  000d5	e8 00 00 00 00	 call	 ?SetUseSkill@ioBaseChar@@QAE_NHW4SkillUseType@@_N1@Z ; ioBaseChar::SetUseSkill
  000da	84 c0		 test	 al, al
  000dc	0f 84 cf 00 00
	00		 je	 $LN2@OnGatherin

; 260  : 		{
; 261  : 			//pOwner->SetAttackMoveEnable( false );
; 262  : 			pOwner->SetChargingState( false );

  000e2	88 9f 54 20 00
	00		 mov	 BYTE PTR [edi+8276], bl

; 263  : 			m_bSetChargingMoveAni = false;
; 264  : 
; 265  : 			if( m_GatheringEffectID != -1 )

  000e8	8b 86 74 19 00
	00		 mov	 eax, DWORD PTR [esi+6516]
  000ee	88 9e 8c 19 00
	00		 mov	 BYTE PTR [esi+6540], bl
  000f4	83 f8 ff	 cmp	 eax, -1
  000f7	74 10		 je	 SHORT $LN5@OnGatherin

; 266  : 			{
; 267  : 				pOwner->EndEffect( m_GatheringEffectID, false );

  000f9	53		 push	 ebx
  000fa	50		 push	 eax
  000fb	8b cf		 mov	 ecx, edi
  000fd	e8 00 00 00 00	 call	 ?EndEffect@ioBaseChar@@QAEXK_N@Z ; ioBaseChar::EndEffect

; 268  : 				m_GatheringEffectID = -1;

  00102	83 8e 74 19 00
	00 ff		 or	 DWORD PTR [esi+6516], -1
$LN5@OnGatherin:

; 269  : 			}
; 270  : 
; 271  : 			m_ChargeState = CS_NONE;

  00109	33 db		 xor	 ebx, ebx
  0010b	89 9e 54 19 00
	00		 mov	 DWORD PTR [esi+6484], ebx

; 272  : 			if( pOwner->IsNeedSendNetwork() )

  00111	8b 07		 mov	 eax, DWORD PTR [edi]
  00113	8b cf		 mov	 ecx, edi
  00115	ff 90 04 01 00
	00		 call	 DWORD PTR [eax+260]
  0011b	84 c0		 test	 al, al
  0011d	0f 84 34 01 00
	00		 je	 $LN1@OnGatherin

; 273  : 			{
; 274  : 				SP2Packet kPacket( CUPK_ITEM_GAUGE_OK );

  00123	68 27 41 00 00	 push	 16679			; 00004127H
  00128	8d 8d c0 ff fe
	ff		 lea	 ecx, DWORD PTR _kPacket$542480[ebp]
  0012e	e8 00 00 00 00	 call	 ??0SP2Packet@@QAE@K@Z	; SP2Packet::SP2Packet

; 275  : 				FillItemGaugePacketHeader( pOwner, kPacket );

  00133	8d 85 c0 ff fe
	ff		 lea	 eax, DWORD PTR _kPacket$542480[ebp]
  00139	50		 push	 eax
  0013a	57		 push	 edi
  0013b	8b ce		 mov	 ecx, esi
  0013d	89 5d fc	 mov	 DWORD PTR __$EHRec$[ebp+8], ebx
  00140	e8 00 00 00 00	 call	 ?FillItemGaugePacketHeader@ioAttackableItem@@QAEXPAVioBaseChar@@AAVSP2Packet@@@Z ; ioAttackableItem::FillItemGaugePacketHeader

; 276  : 				kPacket << (int)m_ChargeState;

  00145	ff b6 54 19 00
	00		 push	 DWORD PTR [esi+6484]
  0014b	8d 8d c0 ff fe
	ff		 lea	 ecx, DWORD PTR _kPacket$542480[ebp]
  00151	e8 00 00 00 00	 call	 ??6SP2Packet@@QAEAAV0@H@Z ; SP2Packet::operator<<

; 277  : 				kPacket << m_iCurCombo;

  00156	ff b6 5c 19 00
	00		 push	 DWORD PTR [esi+6492]
  0015c	8d 8d c0 ff fe
	ff		 lea	 ecx, DWORD PTR _kPacket$542480[ebp]
  00162	e8 00 00 00 00	 call	 ??6SP2Packet@@QAEAAV0@H@Z ; SP2Packet::operator<<

; 278  : 				kPacket << m_iCurSummonCnt;

  00167	81 c6 e0 19 00
	00		 add	 esi, 6624		; 000019e0H
  0016d	56		 push	 esi
  0016e	8d 8d c0 ff fe
	ff		 lea	 ecx, DWORD PTR _kPacket$542480[ebp]
  00174	e8 00 00 00 00	 call	 ??6SP2Packet@@QAEAAV0@AAV?$CEncrypt@H@@@Z ; SP2Packet::operator<<

; 279  : 				P2PNetwork::SendToAllPlayingUser( kPacket );

  00179	8d 85 c0 ff fe
	ff		 lea	 eax, DWORD PTR _kPacket$542480[ebp]
  0017f	53		 push	 ebx
  00180	50		 push	 eax
  00181	e8 00 00 00 00	 call	 ?SendToAllPlayingUser@P2PNetwork@@YAXAAVSP2Packet@@PAVioBaseChar@@@Z ; P2PNetwork::SendToAllPlayingUser
  00186	59		 pop	 ecx
  00187	59		 pop	 ecx

; 280  : 			}

  00188	8d 8d c0 ff fe
	ff		 lea	 ecx, DWORD PTR _kPacket$542480[ebp]

; 281  : 			return;

  0018e	e9 bb 00 00 00	 jmp	 $LN21@OnGatherin
$LN7@OnGatherin:

; 282  : 		}
; 283  : 	}
; 284  : 	else if( pOwner->IsDirKeyDoubleClick() )

  00193	8d 8f 80 0c 00
	00		 lea	 ecx, DWORD PTR [edi+3200]
  00199	e8 00 00 00 00	 call	 ?IsDirDoubleClick@ioUserKeyInput@@QBE_NXZ ; ioUserKeyInput::IsDirDoubleClick
  0019e	84 c0		 test	 al, al
  001a0	74 0f		 je	 SHORT $LN2@OnGatherin

; 285  : 	{
; 286  : 		CheckRetreat( pOwner, true );

  001a2	6a 01		 push	 1
  001a4	57		 push	 edi
  001a5	8b ce		 mov	 ecx, esi
  001a7	e8 00 00 00 00	 call	 ?CheckRetreat@ioSummonChargeItem@@IAE_NPAVioBaseChar@@_N@Z ; ioSummonChargeItem::CheckRetreat

; 287  : 		return;

  001ac	e9 a6 00 00 00	 jmp	 $LN1@OnGatherin
$LN2@OnGatherin:

; 288  : 	}
; 289  : 
; 290  : 	if( CheckNextSummon( pOwner ) && pOwner->IsNeedSendNetwork() )

  001b1	57		 push	 edi
  001b2	8b ce		 mov	 ecx, esi
  001b4	e8 00 00 00 00	 call	 ?CheckNextSummon@ioSummonChargeItem@@IAE_NPAVioBaseChar@@@Z ; ioSummonChargeItem::CheckNextSummon
  001b9	84 c0		 test	 al, al
  001bb	0f 84 96 00 00
	00		 je	 $LN1@OnGatherin
  001c1	8b 07		 mov	 eax, DWORD PTR [edi]
  001c3	8b cf		 mov	 ecx, edi
  001c5	ff 90 04 01 00
	00		 call	 DWORD PTR [eax+260]
  001cb	84 c0		 test	 al, al
  001cd	0f 84 84 00 00
	00		 je	 $LN1@OnGatherin

; 291  : 	{
; 292  : 		SP2Packet kPacket( CUPK_ITEM_GAUGE_OK );

  001d3	68 27 41 00 00	 push	 16679			; 00004127H
  001d8	8d 8d d8 7f ff
	ff		 lea	 ecx, DWORD PTR _kPacket$542485[ebp]
  001de	e8 00 00 00 00	 call	 ??0SP2Packet@@QAE@K@Z	; SP2Packet::SP2Packet

; 293  : 		FillItemGaugePacketHeader( pOwner, kPacket );

  001e3	8d 85 d8 7f ff
	ff		 lea	 eax, DWORD PTR _kPacket$542485[ebp]
  001e9	33 db		 xor	 ebx, ebx
  001eb	50		 push	 eax
  001ec	43		 inc	 ebx
  001ed	57		 push	 edi
  001ee	8b ce		 mov	 ecx, esi
  001f0	89 5d fc	 mov	 DWORD PTR __$EHRec$[ebp+8], ebx
  001f3	e8 00 00 00 00	 call	 ?FillItemGaugePacketHeader@ioAttackableItem@@QAEXPAVioBaseChar@@AAVSP2Packet@@@Z ; ioAttackableItem::FillItemGaugePacketHeader

; 294  : 		kPacket << (int)m_ChargeState;

  001f8	ff b6 54 19 00
	00		 push	 DWORD PTR [esi+6484]
  001fe	8d 8d d8 7f ff
	ff		 lea	 ecx, DWORD PTR _kPacket$542485[ebp]
  00204	e8 00 00 00 00	 call	 ??6SP2Packet@@QAEAAV0@H@Z ; SP2Packet::operator<<

; 295  : 		kPacket << m_iCurCombo;

  00209	ff b6 5c 19 00
	00		 push	 DWORD PTR [esi+6492]
  0020f	8d 8d d8 7f ff
	ff		 lea	 ecx, DWORD PTR _kPacket$542485[ebp]
  00215	e8 00 00 00 00	 call	 ??6SP2Packet@@QAEAAV0@H@Z ; SP2Packet::operator<<

; 296  : 		kPacket << m_iCurSummonCnt;

  0021a	81 c6 e0 19 00
	00		 add	 esi, 6624		; 000019e0H
  00220	56		 push	 esi
  00221	8d 8d d8 7f ff
	ff		 lea	 ecx, DWORD PTR _kPacket$542485[ebp]
  00227	e8 00 00 00 00	 call	 ??6SP2Packet@@QAEAAV0@AAV?$CEncrypt@H@@@Z ; SP2Packet::operator<<

; 297  : 		kPacket << true;		// next summon

  0022c	53		 push	 ebx
  0022d	8d 8d d8 7f ff
	ff		 lea	 ecx, DWORD PTR _kPacket$542485[ebp]
  00233	e8 00 00 00 00	 call	 ??6SP2Packet@@QAEAAV0@_N@Z ; SP2Packet::operator<<

; 298  : 		P2PNetwork::SendToAllPlayingUser( kPacket );

  00238	8d 85 d8 7f ff
	ff		 lea	 eax, DWORD PTR _kPacket$542485[ebp]
  0023e	6a 00		 push	 0
  00240	50		 push	 eax
  00241	e8 00 00 00 00	 call	 ?SendToAllPlayingUser@P2PNetwork@@YAXAAVSP2Packet@@PAVioBaseChar@@@Z ; P2PNetwork::SendToAllPlayingUser
  00246	59		 pop	 ecx
  00247	59		 pop	 ecx

; 299  : 	}

  00248	8d 8d d8 7f ff
	ff		 lea	 ecx, DWORD PTR _kPacket$542485[ebp]
$LN21@OnGatherin:
  0024e	83 4d fc ff	 or	 DWORD PTR __$EHRec$[ebp+8], -1
  00252	e8 00 00 00 00	 call	 ??1SP2Packet@@UAE@XZ	; SP2Packet::~SP2Packet
$LN1@OnGatherin:

; 300  : }

  00257	8b 4d f4	 mov	 ecx, DWORD PTR __$EHRec$[ebp]
  0025a	64 89 0d 00 00
	00 00		 mov	 DWORD PTR fs:0, ecx
  00261	59		 pop	 ecx
  00262	5f		 pop	 edi
  00263	5e		 pop	 esi
  00264	5b		 pop	 ebx
  00265	8b 4d f0	 mov	 ecx, DWORD PTR __$ArrayPad$[ebp]
  00268	33 cd		 xor	 ecx, ebp
  0026a	e8 00 00 00 00	 call	 @__security_check_cookie@4
  0026f	c9		 leave
  00270	c2 04 00	 ret	 4
_TEXT	ENDS
;	COMDAT text$x
text$x	SEGMENT
__unwindfunclet$?OnGathering@ioSummonChargeItem@@IAEXPAVioBaseChar@@@Z$0:
  00000	8d 8d c0 ff fe
	ff		 lea	 ecx, DWORD PTR _kPacket$542480[ebp]
  00006	e9 00 00 00 00	 jmp	 ??1SP2Packet@@UAE@XZ	; SP2Packet::~SP2Packet
__unwindfunclet$?OnGathering@ioSummonChargeItem@@IAEXPAVioBaseChar@@@Z$1:
  0000b	8d 8d d8 7f ff
	ff		 lea	 ecx, DWORD PTR _kPacket$542485[ebp]
  00011	e9 00 00 00 00	 jmp	 ??1SP2Packet@@UAE@XZ	; SP2Packet::~SP2Packet
__ehhandler$?OnGathering@ioSummonChargeItem@@IAEXPAVioBaseChar@@@Z:
  00016	8b 54 24 08	 mov	 edx, DWORD PTR [esp+8]
  0001a	8d 42 0c	 lea	 eax, DWORD PTR [edx+12]
  0001d	8b 8a bc ff fe
	ff		 mov	 ecx, DWORD PTR [edx-65604]
  00023	33 c8		 xor	 ecx, eax
  00025	e8 00 00 00 00	 call	 @__security_check_cookie@4
  0002a	8b 4a fc	 mov	 ecx, DWORD PTR [edx-4]
  0002d	33 c8		 xor	 ecx, eax
  0002f	e8 00 00 00 00	 call	 @__security_check_cookie@4
  00034	b8 00 00 00 00	 mov	 eax, OFFSET __ehfuncinfo$?OnGathering@ioSummonChargeItem@@IAEXPAVioBaseChar@@@Z
  00039	e9 00 00 00 00	 jmp	 ___CxxFrameHandler3
text$x	ENDS
?OnGathering@ioSummonChargeItem@@IAEXPAVioBaseChar@@@Z ENDP ; ioSummonChargeItem::OnGathering
PUBLIC	??$_Uninitialized_copy@V?$_Vector_const_iterator@V?$_Vector_val@UForceInfo@@V?$allocator@UForceInfo@@@std@@@std@@@std@@PAUForceInfo@@V?$allocator@UForceInfo@@@2@@std@@YAPAUForceInfo@@V?$_Vector_const_iterator@V?$_Vector_val@UForceInfo@@V?$allocator@UForceInfo@@@std@@@std@@@0@0PAU1@AAV?$allocator@UForceInfo@@@0@@Z ; std::_Uninitialized_copy<std::_Vector_const_iterator<std::_Vector_val<ForceInfo,std::allocator<ForceInfo> > >,ForceInfo *,std::allocator<ForceInfo> >
; Function compile flags: /Ogsp
; File c:\program files (x86)\microsoft visual studio 10.0\vc\include\memory
;	COMDAT ??$_Uninitialized_copy@V?$_Vector_const_iterator@V?$_Vector_val@UForceInfo@@V?$allocator@UForceInfo@@@std@@@std@@@std@@PAUForceInfo@@V?$allocator@UForceInfo@@@2@@std@@YAPAUForceInfo@@V?$_Vector_const_iterator@V?$_Vector_val@UForceInfo@@V?$allocator@UForceInfo@@@std@@@std@@@0@0PAU1@AAV?$allocator@UForceInfo@@@0@@Z
_TEXT	SEGMENT
__Cat$550232 = -4					; size = 1
__First$ = 8						; size = 4
__Last$ = 12						; size = 4
__Dest$ = 16						; size = 4
__Al$ = 20						; size = 4
??$_Uninitialized_copy@V?$_Vector_const_iterator@V?$_Vector_val@UForceInfo@@V?$allocator@UForceInfo@@@std@@@std@@@std@@PAUForceInfo@@V?$allocator@UForceInfo@@@2@@std@@YAPAUForceInfo@@V?$_Vector_const_iterator@V?$_Vector_val@UForceInfo@@V?$allocator@UForceInfo@@@std@@@std@@@0@0PAU1@AAV?$allocator@UForceInfo@@@0@@Z PROC ; std::_Uninitialized_copy<std::_Vector_const_iterator<std::_Vector_val<ForceInfo,std::allocator<ForceInfo> > >,ForceInfo *,std::allocator<ForceInfo> >, COMDAT

; 412  : 	{	// copy [_First, _Last) to raw _Dest, using _Al

  00000	55		 push	 ebp
  00001	8b ec		 mov	 ebp, esp
  00003	51		 push	 ecx

; 413  : 	return (_Uninit_copy(_First, _Last, _Dest, _Al,
; 414  : 		_Ptr_cat(_First, _Dest)));

  00004	ff 75 fc	 push	 DWORD PTR __Cat$550232[ebp]
  00007	ff 75 14	 push	 DWORD PTR __Al$[ebp]
  0000a	ff 75 10	 push	 DWORD PTR __Dest$[ebp]
  0000d	ff 75 0c	 push	 DWORD PTR __Last$[ebp]
  00010	ff 75 08	 push	 DWORD PTR __First$[ebp]
  00013	e8 00 00 00 00	 call	 ??$_Uninit_copy@V?$_Vector_const_iterator@V?$_Vector_val@UForceInfo@@V?$allocator@UForceInfo@@@std@@@std@@@std@@PAUForceInfo@@V?$allocator@UForceInfo@@@2@@std@@YAPAUForceInfo@@V?$_Vector_const_iterator@V?$_Vector_val@UForceInfo@@V?$allocator@UForceInfo@@@std@@@std@@@0@0PAU1@AAV?$allocator@UForceInfo@@@0@U_Nonscalar_ptr_iterator_tag@0@@Z ; std::_Uninit_copy<std::_Vector_const_iterator<std::_Vector_val<ForceInfo,std::allocator<ForceInfo> > >,ForceInfo *,std::allocator<ForceInfo> >
  00018	83 c4 14	 add	 esp, 20			; 00000014H

; 415  : 	}

  0001b	c9		 leave
  0001c	c3		 ret	 0
??$_Uninitialized_copy@V?$_Vector_const_iterator@V?$_Vector_val@UForceInfo@@V?$allocator@UForceInfo@@@std@@@std@@@std@@PAUForceInfo@@V?$allocator@UForceInfo@@@2@@std@@YAPAUForceInfo@@V?$_Vector_const_iterator@V?$_Vector_val@UForceInfo@@V?$allocator@UForceInfo@@@std@@@std@@@0@0PAU1@AAV?$allocator@UForceInfo@@@0@@Z ENDP ; std::_Uninitialized_copy<std::_Vector_const_iterator<std::_Vector_val<ForceInfo,std::allocator<ForceInfo> > >,ForceInfo *,std::allocator<ForceInfo> >
_TEXT	ENDS
PUBLIC	??$_Uninit_copy@V?$_Vector_const_iterator@V?$_Vector_val@UWeaponInfo@@V?$allocator@UWeaponInfo@@@std@@@std@@@std@@PAUWeaponInfo@@V?$allocator@UWeaponInfo@@@2@@std@@YAPAUWeaponInfo@@V?$_Vector_const_iterator@V?$_Vector_val@UWeaponInfo@@V?$allocator@UWeaponInfo@@@std@@@std@@@0@0PAU1@AAV?$allocator@UWeaponInfo@@@0@U_Nonscalar_ptr_iterator_tag@0@@Z ; std::_Uninit_copy<std::_Vector_const_iterator<std::_Vector_val<WeaponInfo,std::allocator<WeaponInfo> > >,WeaponInfo *,std::allocator<WeaponInfo> >
;	COMDAT xdata$x
; File d:\lost saga for developer\youtube\tutorial\source\src\lsclient\playentityhelpstruct.h
xdata$x	SEGMENT
__catchsym$??$_Uninit_copy@V?$_Vector_const_iterator@V?$_Vector_val@UWeaponInfo@@V?$allocator@UWeaponInfo@@@std@@@std@@@std@@PAUWeaponInfo@@V?$allocator@UWeaponInfo@@@2@@std@@YAPAUWeaponInfo@@V?$_Vector_const_iterator@V?$_Vector_val@UWeaponInfo@@V?$allocator@UWeaponInfo@@@std@@@std@@@0@0PAU1@AAV?$allocator@UWeaponInfo@@@0@U_Nonscalar_ptr_iterator_tag@0@@Z$3 DD 040H
	DD	00H
	DD	00H
	DD	FLAT:__catch$??$_Uninit_copy@V?$_Vector_const_iterator@V?$_Vector_val@UWeaponInfo@@V?$allocator@UWeaponInfo@@@std@@@std@@@std@@PAUWeaponInfo@@V?$allocator@UWeaponInfo@@@2@@std@@YAPAUWeaponInfo@@V?$_Vector_const_iterator@V?$_Vector_val@UWeaponInfo@@V?$allocator@UWeaponInfo@@@std@@@std@@@0@0PAU1@AAV?$allocator@UWeaponInfo@@@0@U_Nonscalar_ptr_iterator_tag@0@@Z$0
__unwindtable$??$_Uninit_copy@V?$_Vector_const_iterator@V?$_Vector_val@UWeaponInfo@@V?$allocator@UWeaponInfo@@@std@@@std@@@std@@PAUWeaponInfo@@V?$allocator@UWeaponInfo@@@2@@std@@YAPAUWeaponInfo@@V?$_Vector_const_iterator@V?$_Vector_val@UWeaponInfo@@V?$allocator@UWeaponInfo@@@std@@@std@@@0@0PAU1@AAV?$allocator@UWeaponInfo@@@0@U_Nonscalar_ptr_iterator_tag@0@@Z DD 0ffffffffH
	DD	00H
	DD	0ffffffffH
	DD	00H
__tryblocktable$??$_Uninit_copy@V?$_Vector_const_iterator@V?$_Vector_val@UWeaponInfo@@V?$allocator@UWeaponInfo@@@std@@@std@@@std@@PAUWeaponInfo@@V?$allocator@UWeaponInfo@@@2@@std@@YAPAUWeaponInfo@@V?$_Vector_const_iterator@V?$_Vector_val@UWeaponInfo@@V?$allocator@UWeaponInfo@@@std@@@std@@@0@0PAU1@AAV?$allocator@UWeaponInfo@@@0@U_Nonscalar_ptr_iterator_tag@0@@Z DD 00H
	DD	00H
	DD	01H
	DD	01H
	DD	FLAT:__catchsym$??$_Uninit_copy@V?$_Vector_const_iterator@V?$_Vector_val@UWeaponInfo@@V?$allocator@UWeaponInfo@@@std@@@std@@@std@@PAUWeaponInfo@@V?$allocator@UWeaponInfo@@@2@@std@@YAPAUWeaponInfo@@V?$_Vector_const_iterator@V?$_Vector_val@UWeaponInfo@@V?$allocator@UWeaponInfo@@@std@@@std@@@0@0PAU1@AAV?$allocator@UWeaponInfo@@@0@U_Nonscalar_ptr_iterator_tag@0@@Z$3
__ehfuncinfo$??$_Uninit_copy@V?$_Vector_const_iterator@V?$_Vector_val@UWeaponInfo@@V?$allocator@UWeaponInfo@@@std@@@std@@@std@@PAUWeaponInfo@@V?$allocator@UWeaponInfo@@@2@@std@@YAPAUWeaponInfo@@V?$_Vector_const_iterator@V?$_Vector_val@UWeaponInfo@@V?$allocator@UWeaponInfo@@@std@@@std@@@0@0PAU1@AAV?$allocator@UWeaponInfo@@@0@U_Nonscalar_ptr_iterator_tag@0@@Z DD 019930522H
	DD	02H
	DD	FLAT:__unwindtable$??$_Uninit_copy@V?$_Vector_const_iterator@V?$_Vector_val@UWeaponInfo@@V?$allocator@UWeaponInfo@@@std@@@std@@@std@@PAUWeaponInfo@@V?$allocator@UWeaponInfo@@@2@@std@@YAPAUWeaponInfo@@V?$_Vector_const_iterator@V?$_Vector_val@UWeaponInfo@@V?$allocator@UWeaponInfo@@@std@@@std@@@0@0PAU1@AAV?$allocator@UWeaponInfo@@@0@U_Nonscalar_ptr_iterator_tag@0@@Z
	DD	01H
	DD	FLAT:__tryblocktable$??$_Uninit_copy@V?$_Vector_const_iterator@V?$_Vector_val@UWeaponInfo@@V?$allocator@UWeaponInfo@@@std@@@std@@@std@@PAUWeaponInfo@@V?$allocator@UWeaponInfo@@@2@@std@@YAPAUWeaponInfo@@V?$_Vector_const_iterator@V?$_Vector_val@UWeaponInfo@@V?$allocator@UWeaponInfo@@@std@@@std@@@0@0PAU1@AAV?$allocator@UWeaponInfo@@@0@U_Nonscalar_ptr_iterator_tag@0@@Z
	DD	2 DUP(00H)
	DD	00H
	DD	01H
; Function compile flags: /Ogsp
; File c:\program files (x86)\microsoft visual studio 10.0\vc\include\memory
xdata$x	ENDS
;	COMDAT ??$_Uninit_copy@V?$_Vector_const_iterator@V?$_Vector_val@UWeaponInfo@@V?$allocator@UWeaponInfo@@@std@@@std@@@std@@PAUWeaponInfo@@V?$allocator@UWeaponInfo@@@2@@std@@YAPAUWeaponInfo@@V?$_Vector_const_iterator@V?$_Vector_val@UWeaponInfo@@V?$allocator@UWeaponInfo@@@std@@@std@@@0@0PAU1@AAV?$allocator@UWeaponInfo@@@0@U_Nonscalar_ptr_iterator_tag@0@@Z
_TEXT	SEGMENT
__Next$ = -20						; size = 4
__$EHRec$ = -16						; size = 16
__First$ = 8						; size = 4
__Last$ = 12						; size = 4
__Dest$ = 16						; size = 4
__Al$ = 20						; size = 4
___formal$ = 24						; size = 1
??$_Uninit_copy@V?$_Vector_const_iterator@V?$_Vector_val@UWeaponInfo@@V?$allocator@UWeaponInfo@@@std@@@std@@@std@@PAUWeaponInfo@@V?$allocator@UWeaponInfo@@@2@@std@@YAPAUWeaponInfo@@V?$_Vector_const_iterator@V?$_Vector_val@UWeaponInfo@@V?$allocator@UWeaponInfo@@@std@@@std@@@0@0PAU1@AAV?$allocator@UWeaponInfo@@@0@U_Nonscalar_ptr_iterator_tag@0@@Z PROC ; std::_Uninit_copy<std::_Vector_const_iterator<std::_Vector_val<WeaponInfo,std::allocator<WeaponInfo> > >,WeaponInfo *,std::allocator<WeaponInfo> >, COMDAT

; 369  : 	{	// copy [_First, _Last) to raw _Dest, using _Al, arbitrary type

  00000	6a 08		 push	 8
  00002	b8 00 00 00 00	 mov	 eax, __ehhandler$??$_Uninit_copy@V?$_Vector_const_iterator@V?$_Vector_val@UWeaponInfo@@V?$allocator@UWeaponInfo@@@std@@@std@@@std@@PAUWeaponInfo@@V?$allocator@UWeaponInfo@@@2@@std@@YAPAUWeaponInfo@@V?$_Vector_const_iterator@V?$_Vector_val@UWeaponInfo@@V?$allocator@UWeaponInfo@@@std@@@std@@@0@0PAU1@AAV?$allocator@UWeaponInfo@@@0@U_Nonscalar_ptr_iterator_tag@0@@Z
  00007	e8 00 00 00 00	 call	 __EH_prolog3_catch

; 370  : 	_DEBUG_RANGE(_First, _Last);
; 371  : 	_DEBUG_POINTER(_Dest);
; 372  : 	_FwdIt _Next = _Dest;

  0000c	8b 45 10	 mov	 eax, DWORD PTR __Dest$[ebp]

; 373  : 
; 374  : 	_TRY_BEGIN

  0000f	83 65 fc 00	 and	 DWORD PTR __$EHRec$[ebp+12], 0
  00013	89 45 ec	 mov	 DWORD PTR __Next$[ebp], eax

; 375  : 	for (; _First != _Last; ++_Dest, ++_First)

$LL14@Uninit_cop@4:
  00016	8b 45 08	 mov	 eax, DWORD PTR __First$[ebp]
  00019	3b 45 0c	 cmp	 eax, DWORD PTR __Last$[ebp]
  0001c	74 34		 je	 SHORT $LN4@Uninit_cop@4

; 376  : 		_Cons_val(_Al, _Dest, *_First);

  0001e	50		 push	 eax
  0001f	ff 75 10	 push	 DWORD PTR __Dest$[ebp]
  00022	e8 00 00 00 00	 call	 ??$_Construct@UWeaponInfo@@ABU1@@std@@YAXPAUWeaponInfo@@ABU1@@Z ; std::_Construct<WeaponInfo,WeaponInfo const &>
  00027	83 45 10 28	 add	 DWORD PTR __Dest$[ebp], 40 ; 00000028H
  0002b	83 45 08 28	 add	 DWORD PTR __First$[ebp], 40 ; 00000028H
  0002f	59		 pop	 ecx
  00030	59		 pop	 ecx
  00031	eb e3		 jmp	 SHORT $LL14@Uninit_cop@4
__catch$??$_Uninit_copy@V?$_Vector_const_iterator@V?$_Vector_val@UWeaponInfo@@V?$allocator@UWeaponInfo@@@std@@@std@@@std@@PAUWeaponInfo@@V?$allocator@UWeaponInfo@@@2@@std@@YAPAUWeaponInfo@@V?$_Vector_const_iterator@V?$_Vector_val@UWeaponInfo@@V?$allocator@UWeaponInfo@@@std@@@std@@@0@0PAU1@AAV?$allocator@UWeaponInfo@@@0@U_Nonscalar_ptr_iterator_tag@0@@Z$0:

; 377  : 	_CATCH_ALL
; 378  : 	for (; _Next != _Dest; ++_Next)

  00033	8b 75 ec	 mov	 esi, DWORD PTR __Next$[ebp]
  00036	eb 0c		 jmp	 SHORT $LN48@Uninit_cop@4
$LL3@Uninit_cop@4:

; 379  : 		_Dest_val(_Al, _Next);

  00038	8d 4e 08	 lea	 ecx, DWORD PTR [esi+8]
  0003b	ff 15 00 00 00
	00		 call	 DWORD PTR __imp_??1ioHashString@@QAE@XZ
  00041	83 c6 28	 add	 esi, 40			; 00000028H
$LN48@Uninit_cop@4:

; 377  : 	_CATCH_ALL
; 378  : 	for (; _Next != _Dest; ++_Next)

  00044	3b 75 10	 cmp	 esi, DWORD PTR __Dest$[ebp]
  00047	75 ef		 jne	 SHORT $LL3@Uninit_cop@4

; 380  : 	_RERAISE;

  00049	6a 00		 push	 0
  0004b	6a 00		 push	 0
  0004d	e8 00 00 00 00	 call	 __CxxThrowException@8
$LN49@Uninit_cop@4:
$LN4@Uninit_cop@4:

; 381  : 	_CATCH_END
; 382  : 	return (_Dest);

  00052	8b 45 10	 mov	 eax, DWORD PTR __Dest$[ebp]

; 383  : 	}

  00055	e8 00 00 00 00	 call	 __EH_epilog3
  0005a	c3		 ret	 0
$LN47@Uninit_cop@4:
_TEXT	ENDS
;	COMDAT text$x
text$x	SEGMENT
__ehhandler$??$_Uninit_copy@V?$_Vector_const_iterator@V?$_Vector_val@UWeaponInfo@@V?$allocator@UWeaponInfo@@@std@@@std@@@std@@PAUWeaponInfo@@V?$allocator@UWeaponInfo@@@2@@std@@YAPAUWeaponInfo@@V?$_Vector_const_iterator@V?$_Vector_val@UWeaponInfo@@V?$allocator@UWeaponInfo@@@std@@@std@@@0@0PAU1@AAV?$allocator@UWeaponInfo@@@0@U_Nonscalar_ptr_iterator_tag@0@@Z:
  00000	8b 54 24 08	 mov	 edx, DWORD PTR [esp+8]
  00004	8d 42 0c	 lea	 eax, DWORD PTR [edx+12]
  00007	8b 4a e8	 mov	 ecx, DWORD PTR [edx-24]
  0000a	33 c8		 xor	 ecx, eax
  0000c	e8 00 00 00 00	 call	 @__security_check_cookie@4
  00011	b8 00 00 00 00	 mov	 eax, OFFSET __ehfuncinfo$??$_Uninit_copy@V?$_Vector_const_iterator@V?$_Vector_val@UWeaponInfo@@V?$allocator@UWeaponInfo@@@std@@@std@@@std@@PAUWeaponInfo@@V?$allocator@UWeaponInfo@@@2@@std@@YAPAUWeaponInfo@@V?$_Vector_const_iterator@V?$_Vector_val@UWeaponInfo@@V?$allocator@UWeaponInfo@@@std@@@std@@@0@0PAU1@AAV?$allocator@UWeaponInfo@@@0@U_Nonscalar_ptr_iterator_tag@0@@Z
  00016	e9 00 00 00 00	 jmp	 ___CxxFrameHandler3
text$x	ENDS
??$_Uninit_copy@V?$_Vector_const_iterator@V?$_Vector_val@UWeaponInfo@@V?$allocator@UWeaponInfo@@@std@@@std@@@std@@PAUWeaponInfo@@V?$allocator@UWeaponInfo@@@2@@std@@YAPAUWeaponInfo@@V?$_Vector_const_iterator@V?$_Vector_val@UWeaponInfo@@V?$allocator@UWeaponInfo@@@std@@@std@@@0@0PAU1@AAV?$allocator@UWeaponInfo@@@0@U_Nonscalar_ptr_iterator_tag@0@@Z ENDP ; std::_Uninit_copy<std::_Vector_const_iterator<std::_Vector_val<WeaponInfo,std::allocator<WeaponInfo> > >,WeaponInfo *,std::allocator<WeaponInfo> >
PUBLIC	??$_Destroy_range@V?$allocator@UForceInfo@@@std@@@std@@YAXPAUForceInfo@@0AAV?$allocator@UForceInfo@@@0@@Z ; std::_Destroy_range<std::allocator<ForceInfo> >
; Function compile flags: /Ogsp
; File c:\program files (x86)\microsoft visual studio 10.0\vc\include\xmemory
;	COMDAT ??$_Destroy_range@V?$allocator@UForceInfo@@@std@@@std@@YAXPAUForceInfo@@0AAV?$allocator@UForceInfo@@@0@@Z
_TEXT	SEGMENT
__First$ = 8						; size = 4
__Last$ = 12						; size = 4
__Al$ = 16						; size = 4
??$_Destroy_range@V?$allocator@UForceInfo@@@std@@@std@@YAXPAUForceInfo@@0AAV?$allocator@UForceInfo@@@0@@Z PROC ; std::_Destroy_range<std::allocator<ForceInfo> >, COMDAT

; 88   : 	_Destroy_range(_First, _Last, _Al, _Ptr_cat(_First, _Last));
; 89   : 	}

  00000	c3		 ret	 0
??$_Destroy_range@V?$allocator@UForceInfo@@@std@@@std@@YAXPAUForceInfo@@0AAV?$allocator@UForceInfo@@@0@@Z ENDP ; std::_Destroy_range<std::allocator<ForceInfo> >
_TEXT	ENDS
PUBLIC	??$_Destroy_range@V?$allocator@UWeaponInfo@@@std@@@std@@YAXPAUWeaponInfo@@0AAV?$allocator@UWeaponInfo@@@0@U_Nonscalar_ptr_iterator_tag@0@@Z ; std::_Destroy_range<std::allocator<WeaponInfo> >
; Function compile flags: /Ogsp
;	COMDAT ??$_Destroy_range@V?$allocator@UWeaponInfo@@@std@@@std@@YAXPAUWeaponInfo@@0AAV?$allocator@UWeaponInfo@@@0@U_Nonscalar_ptr_iterator_tag@0@@Z
_TEXT	SEGMENT
__First$ = 8						; size = 4
__Last$ = 12						; size = 4
__Al$ = 16						; size = 4
___formal$ = 20						; size = 1
??$_Destroy_range@V?$allocator@UWeaponInfo@@@std@@@std@@YAXPAUWeaponInfo@@0AAV?$allocator@UWeaponInfo@@@0@U_Nonscalar_ptr_iterator_tag@0@@Z PROC ; std::_Destroy_range<std::allocator<WeaponInfo> >, COMDAT

; 95   : 	{	// destroy [_First, _Last), arbitrary type

  00000	55		 push	 ebp
  00001	8b ec		 mov	 ebp, esp
  00003	56		 push	 esi

; 96   : 	for (; _First != _Last; ++_First)

  00004	8b 75 08	 mov	 esi, DWORD PTR __First$[ebp]
  00007	eb 0c		 jmp	 SHORT $LN20@Destroy_ra
$LL3@Destroy_ra:

; 97   : 		_Dest_val(_Al, _First);

  00009	8d 4e 08	 lea	 ecx, DWORD PTR [esi+8]
  0000c	ff 15 00 00 00
	00		 call	 DWORD PTR __imp_??1ioHashString@@QAE@XZ
  00012	83 c6 28	 add	 esi, 40			; 00000028H
$LN20@Destroy_ra:

; 96   : 	for (; _First != _Last; ++_First)

  00015	3b 75 0c	 cmp	 esi, DWORD PTR __Last$[ebp]
  00018	75 ef		 jne	 SHORT $LL3@Destroy_ra
  0001a	5e		 pop	 esi

; 98   : 	}

  0001b	5d		 pop	 ebp
  0001c	c3		 ret	 0
??$_Destroy_range@V?$allocator@UWeaponInfo@@@std@@@std@@YAXPAUWeaponInfo@@0AAV?$allocator@UWeaponInfo@@@0@U_Nonscalar_ptr_iterator_tag@0@@Z ENDP ; std::_Destroy_range<std::allocator<WeaponInfo> >
_TEXT	ENDS
PUBLIC	??$_Ucopy@PAUForceInfo@@@?$vector@UForceInfo@@V?$allocator@UForceInfo@@@std@@@std@@IAEPAUForceInfo@@PAU2@00@Z ; std::vector<ForceInfo,std::allocator<ForceInfo> >::_Ucopy<ForceInfo *>
; Function compile flags: /Ogsp
; File c:\program files (x86)\microsoft visual studio 10.0\vc\include\vector
;	COMDAT ??$_Ucopy@PAUForceInfo@@@?$vector@UForceInfo@@V?$allocator@UForceInfo@@@std@@@std@@IAEPAUForceInfo@@PAU2@00@Z
_TEXT	SEGMENT
__First$ = 8						; size = 4
__Last$ = 12						; size = 4
__Cat$550424 = 16					; size = 1
__Ptr$ = 16						; size = 4
??$_Ucopy@PAUForceInfo@@@?$vector@UForceInfo@@V?$allocator@UForceInfo@@@std@@@std@@IAEPAUForceInfo@@PAU2@00@Z PROC ; std::vector<ForceInfo,std::allocator<ForceInfo> >::_Ucopy<ForceInfo *>, COMDAT
; _this$ = ecx

; 1315 : 		pointer _Ucopy(_Iter _First, _Iter _Last, pointer _Ptr)

  00000	55		 push	 ebp
  00001	8b ec		 mov	 ebp, esp

; 1316 : 		{	// copy initializing [_First, _Last), using allocator
; 1317 : 		return (_Uninitialized_copy(_First, _Last,
; 1318 : 			_Ptr, this->_Alval));

  00003	ff 75 10	 push	 DWORD PTR __Cat$550424[ebp]
  00006	83 c1 0c	 add	 ecx, 12			; 0000000cH
  00009	51		 push	 ecx
  0000a	ff 75 10	 push	 DWORD PTR __Ptr$[ebp]
  0000d	ff 75 0c	 push	 DWORD PTR __Last$[ebp]
  00010	ff 75 08	 push	 DWORD PTR __First$[ebp]
  00013	e8 00 00 00 00	 call	 ??$_Uninit_copy@PAUForceInfo@@PAU1@V?$allocator@UForceInfo@@@std@@@std@@YAPAUForceInfo@@PAU1@00AAV?$allocator@UForceInfo@@@0@U_Nonscalar_ptr_iterator_tag@0@@Z ; std::_Uninit_copy<ForceInfo *,ForceInfo *,std::allocator<ForceInfo> >
  00018	83 c4 14	 add	 esp, 20			; 00000014H

; 1319 : 		}

  0001b	5d		 pop	 ebp
  0001c	c2 0c 00	 ret	 12			; 0000000cH
??$_Ucopy@PAUForceInfo@@@?$vector@UForceInfo@@V?$allocator@UForceInfo@@@std@@@std@@IAEPAUForceInfo@@PAU2@00@Z ENDP ; std::vector<ForceInfo,std::allocator<ForceInfo> >::_Ucopy<ForceInfo *>
_TEXT	ENDS
PUBLIC	??$_Uninitialized_copy@PAUWeaponInfo@@PAU1@V?$allocator@UWeaponInfo@@@std@@@std@@YAPAUWeaponInfo@@PAU1@00AAV?$allocator@UWeaponInfo@@@0@@Z ; std::_Uninitialized_copy<WeaponInfo *,WeaponInfo *,std::allocator<WeaponInfo> >
; Function compile flags: /Ogsp
; File c:\program files (x86)\microsoft visual studio 10.0\vc\include\memory
;	COMDAT ??$_Uninitialized_copy@PAUWeaponInfo@@PAU1@V?$allocator@UWeaponInfo@@@std@@@std@@YAPAUWeaponInfo@@PAU1@00AAV?$allocator@UWeaponInfo@@@0@@Z
_TEXT	SEGMENT
__Cat$550432 = -4					; size = 1
__First$ = 8						; size = 4
__Last$ = 12						; size = 4
__Dest$ = 16						; size = 4
__Al$ = 20						; size = 4
??$_Uninitialized_copy@PAUWeaponInfo@@PAU1@V?$allocator@UWeaponInfo@@@std@@@std@@YAPAUWeaponInfo@@PAU1@00AAV?$allocator@UWeaponInfo@@@0@@Z PROC ; std::_Uninitialized_copy<WeaponInfo *,WeaponInfo *,std::allocator<WeaponInfo> >, COMDAT

; 412  : 	{	// copy [_First, _Last) to raw _Dest, using _Al

  00000	55		 push	 ebp
  00001	8b ec		 mov	 ebp, esp
  00003	51		 push	 ecx

; 413  : 	return (_Uninit_copy(_First, _Last, _Dest, _Al,
; 414  : 		_Ptr_cat(_First, _Dest)));

  00004	ff 75 fc	 push	 DWORD PTR __Cat$550432[ebp]
  00007	ff 75 14	 push	 DWORD PTR __Al$[ebp]
  0000a	ff 75 10	 push	 DWORD PTR __Dest$[ebp]
  0000d	ff 75 0c	 push	 DWORD PTR __Last$[ebp]
  00010	ff 75 08	 push	 DWORD PTR __First$[ebp]
  00013	e8 00 00 00 00	 call	 ??$_Uninit_copy@PAUWeaponInfo@@PAU1@V?$allocator@UWeaponInfo@@@std@@@std@@YAPAUWeaponInfo@@PAU1@00AAV?$allocator@UWeaponInfo@@@0@U_Nonscalar_ptr_iterator_tag@0@@Z ; std::_Uninit_copy<WeaponInfo *,WeaponInfo *,std::allocator<WeaponInfo> >
  00018	83 c4 14	 add	 esp, 20			; 00000014H

; 415  : 	}

  0001b	c9		 leave
  0001c	c3		 ret	 0
??$_Uninitialized_copy@PAUWeaponInfo@@PAU1@V?$allocator@UWeaponInfo@@@std@@@std@@YAPAUWeaponInfo@@PAU1@00AAV?$allocator@UWeaponInfo@@@0@@Z ENDP ; std::_Uninitialized_copy<WeaponInfo *,WeaponInfo *,std::allocator<WeaponInfo> >
_TEXT	ENDS
PUBLIC	?CheckNormalAttack@ioSummonChargeItem@@UAEXPAVioBaseChar@@@Z ; ioSummonChargeItem::CheckNormalAttack
EXTRN	?CheckNormalAttack@ioAttackableItem@@UAEXPAVioBaseChar@@@Z:PROC ; ioAttackableItem::CheckNormalAttack
; Function compile flags: /Ogsp
; File d:\lost saga for developer\youtube\tutorial\source\src\lsclient\iosummonchargeitem.cpp
;	COMDAT ?CheckNormalAttack@ioSummonChargeItem@@UAEXPAVioBaseChar@@@Z
_TEXT	SEGMENT
_pOwner$ = 8						; size = 4
?CheckNormalAttack@ioSummonChargeItem@@UAEXPAVioBaseChar@@@Z PROC ; ioSummonChargeItem::CheckNormalAttack, COMDAT
; _this$ = ecx

; 197  : {

  00000	55		 push	 ebp
  00001	8b ec		 mov	 ebp, esp
  00003	56		 push	 esi
  00004	8b f1		 mov	 esi, ecx

; 198  : 	switch( m_ChargeState )

  00006	8b 86 54 19 00
	00		 mov	 eax, DWORD PTR [esi+6484]
  0000c	48		 dec	 eax
  0000d	57		 push	 edi
  0000e	8b 7d 08	 mov	 edi, DWORD PTR _pOwner$[ebp]
  00011	74 21		 je	 SHORT $LN5@CheckNorma
  00013	48		 dec	 eax
  00014	74 16		 je	 SHORT $LN4@CheckNorma
  00016	48		 dec	 eax
  00017	74 0b		 je	 SHORT $LN3@CheckNorma
  00019	48		 dec	 eax
  0001a	75 1e		 jne	 SHORT $LN6@CheckNorma

; 209  : 	case CS_RETREAT:
; 210  : 		OnRetreatState( pOwner );

  0001c	57		 push	 edi
  0001d	e8 00 00 00 00	 call	 ?OnRetreatState@ioSummonChargeItem@@IAEXPAVioBaseChar@@@Z ; ioSummonChargeItem::OnRetreatState

; 211  : 		break;

  00022	eb 16		 jmp	 SHORT $LN6@CheckNorma
$LN3@CheckNorma:

; 206  : 	case CS_ATTACK_FIRE:
; 207  : 		ioWeaponItem::CheckNormalAttack( pOwner );

  00024	57		 push	 edi
  00025	e8 00 00 00 00	 call	 ?CheckNormalAttack@ioAttackableItem@@UAEXPAVioBaseChar@@@Z ; ioAttackableItem::CheckNormalAttack

; 208  : 		break;

  0002a	eb 0e		 jmp	 SHORT $LN6@CheckNorma
$LN4@CheckNorma:

; 202  : 		break;
; 203  : 	case CS_GATHERING:
; 204  : 		OnGathering( pOwner );

  0002c	57		 push	 edi
  0002d	e8 00 00 00 00	 call	 ?OnGathering@ioSummonChargeItem@@IAEXPAVioBaseChar@@@Z ; ioSummonChargeItem::OnGathering

; 205  : 		break;

  00032	eb 06		 jmp	 SHORT $LN6@CheckNorma
$LN5@CheckNorma:

; 199  : 	{
; 200  : 	case CS_CHARGING:
; 201  : 		OnCharging( pOwner );

  00034	57		 push	 edi
  00035	e8 00 00 00 00	 call	 ?OnCharging@ioSummonChargeItem@@IAEXPAVioBaseChar@@@Z ; ioSummonChargeItem::OnCharging
$LN6@CheckNorma:

; 212  : 	}
; 213  : 
; 214  : 	if( m_ChargeState == CS_GATHERING )

  0003a	83 be 54 19 00
	00 02		 cmp	 DWORD PTR [esi+6484], 2
  00041	75 08		 jne	 SHORT $LN1@CheckNorma

; 215  : 		CheckChargingMoveState( pOwner );

  00043	57		 push	 edi
  00044	8b ce		 mov	 ecx, esi
  00046	e8 00 00 00 00	 call	 ?CheckChargingMoveState@ioSummonChargeItem@@IAEXPAVioBaseChar@@@Z ; ioSummonChargeItem::CheckChargingMoveState
$LN1@CheckNorma:
  0004b	5f		 pop	 edi
  0004c	5e		 pop	 esi

; 216  : }

  0004d	5d		 pop	 ebp
  0004e	c2 04 00	 ret	 4
?CheckNormalAttack@ioSummonChargeItem@@UAEXPAVioBaseChar@@@Z ENDP ; ioSummonChargeItem::CheckNormalAttack
_TEXT	ENDS
PUBLIC	??$_Ucopy@V?$_Vector_const_iterator@V?$_Vector_val@UForceInfo@@V?$allocator@UForceInfo@@@std@@@std@@@std@@@?$vector@UForceInfo@@V?$allocator@UForceInfo@@@std@@@std@@IAEPAUForceInfo@@V?$_Vector_const_iterator@V?$_Vector_val@UForceInfo@@V?$allocator@UForceInfo@@@std@@@std@@@1@0PAU2@@Z ; std::vector<ForceInfo,std::allocator<ForceInfo> >::_Ucopy<std::_Vector_const_iterator<std::_Vector_val<ForceInfo,std::allocator<ForceInfo> > > >
; Function compile flags: /Ogsp
; File c:\program files (x86)\microsoft visual studio 10.0\vc\include\vector
;	COMDAT ??$_Ucopy@V?$_Vector_const_iterator@V?$_Vector_val@UForceInfo@@V?$allocator@UForceInfo@@@std@@@std@@@std@@@?$vector@UForceInfo@@V?$allocator@UForceInfo@@@std@@@std@@IAEPAUForceInfo@@V?$_Vector_const_iterator@V?$_Vector_val@UForceInfo@@V?$allocator@UForceInfo@@@std@@@std@@@1@0PAU2@@Z
_TEXT	SEGMENT
__First$ = 8						; size = 4
__Last$ = 12						; size = 4
__Cat$550447 = 16					; size = 1
__Ptr$ = 16						; size = 4
??$_Ucopy@V?$_Vector_const_iterator@V?$_Vector_val@UForceInfo@@V?$allocator@UForceInfo@@@std@@@std@@@std@@@?$vector@UForceInfo@@V?$allocator@UForceInfo@@@std@@@std@@IAEPAUForceInfo@@V?$_Vector_const_iterator@V?$_Vector_val@UForceInfo@@V?$allocator@UForceInfo@@@std@@@std@@@1@0PAU2@@Z PROC ; std::vector<ForceInfo,std::allocator<ForceInfo> >::_Ucopy<std::_Vector_const_iterator<std::_Vector_val<ForceInfo,std::allocator<ForceInfo> > > >, COMDAT
; _this$ = ecx

; 1315 : 		pointer _Ucopy(_Iter _First, _Iter _Last, pointer _Ptr)

  00000	55		 push	 ebp
  00001	8b ec		 mov	 ebp, esp

; 1316 : 		{	// copy initializing [_First, _Last), using allocator
; 1317 : 		return (_Uninitialized_copy(_First, _Last,
; 1318 : 			_Ptr, this->_Alval));

  00003	ff 75 10	 push	 DWORD PTR __Cat$550447[ebp]
  00006	83 c1 0c	 add	 ecx, 12			; 0000000cH
  00009	51		 push	 ecx
  0000a	ff 75 10	 push	 DWORD PTR __Ptr$[ebp]
  0000d	ff 75 0c	 push	 DWORD PTR __Last$[ebp]
  00010	ff 75 08	 push	 DWORD PTR __First$[ebp]
  00013	e8 00 00 00 00	 call	 ??$_Uninit_copy@V?$_Vector_const_iterator@V?$_Vector_val@UForceInfo@@V?$allocator@UForceInfo@@@std@@@std@@@std@@PAUForceInfo@@V?$allocator@UForceInfo@@@2@@std@@YAPAUForceInfo@@V?$_Vector_const_iterator@V?$_Vector_val@UForceInfo@@V?$allocator@UForceInfo@@@std@@@std@@@0@0PAU1@AAV?$allocator@UForceInfo@@@0@U_Nonscalar_ptr_iterator_tag@0@@Z ; std::_Uninit_copy<std::_Vector_const_iterator<std::_Vector_val<ForceInfo,std::allocator<ForceInfo> > >,ForceInfo *,std::allocator<ForceInfo> >
  00018	83 c4 14	 add	 esp, 20			; 00000014H

; 1319 : 		}

  0001b	5d		 pop	 ebp
  0001c	c2 0c 00	 ret	 12			; 0000000cH
??$_Ucopy@V?$_Vector_const_iterator@V?$_Vector_val@UForceInfo@@V?$allocator@UForceInfo@@@std@@@std@@@std@@@?$vector@UForceInfo@@V?$allocator@UForceInfo@@@std@@@std@@IAEPAUForceInfo@@V?$_Vector_const_iterator@V?$_Vector_val@UForceInfo@@V?$allocator@UForceInfo@@@std@@@std@@@1@0PAU2@@Z ENDP ; std::vector<ForceInfo,std::allocator<ForceInfo> >::_Ucopy<std::_Vector_const_iterator<std::_Vector_val<ForceInfo,std::allocator<ForceInfo> > > >
_TEXT	ENDS
PUBLIC	??$_Uninitialized_copy@V?$_Vector_const_iterator@V?$_Vector_val@UWeaponInfo@@V?$allocator@UWeaponInfo@@@std@@@std@@@std@@PAUWeaponInfo@@V?$allocator@UWeaponInfo@@@2@@std@@YAPAUWeaponInfo@@V?$_Vector_const_iterator@V?$_Vector_val@UWeaponInfo@@V?$allocator@UWeaponInfo@@@std@@@std@@@0@0PAU1@AAV?$allocator@UWeaponInfo@@@0@@Z ; std::_Uninitialized_copy<std::_Vector_const_iterator<std::_Vector_val<WeaponInfo,std::allocator<WeaponInfo> > >,WeaponInfo *,std::allocator<WeaponInfo> >
; Function compile flags: /Ogsp
; File c:\program files (x86)\microsoft visual studio 10.0\vc\include\memory
;	COMDAT ??$_Uninitialized_copy@V?$_Vector_const_iterator@V?$_Vector_val@UWeaponInfo@@V?$allocator@UWeaponInfo@@@std@@@std@@@std@@PAUWeaponInfo@@V?$allocator@UWeaponInfo@@@2@@std@@YAPAUWeaponInfo@@V?$_Vector_const_iterator@V?$_Vector_val@UWeaponInfo@@V?$allocator@UWeaponInfo@@@std@@@std@@@0@0PAU1@AAV?$allocator@UWeaponInfo@@@0@@Z
_TEXT	SEGMENT
__Cat$550457 = -4					; size = 1
__First$ = 8						; size = 4
__Last$ = 12						; size = 4
__Dest$ = 16						; size = 4
__Al$ = 20						; size = 4
??$_Uninitialized_copy@V?$_Vector_const_iterator@V?$_Vector_val@UWeaponInfo@@V?$allocator@UWeaponInfo@@@std@@@std@@@std@@PAUWeaponInfo@@V?$allocator@UWeaponInfo@@@2@@std@@YAPAUWeaponInfo@@V?$_Vector_const_iterator@V?$_Vector_val@UWeaponInfo@@V?$allocator@UWeaponInfo@@@std@@@std@@@0@0PAU1@AAV?$allocator@UWeaponInfo@@@0@@Z PROC ; std::_Uninitialized_copy<std::_Vector_const_iterator<std::_Vector_val<WeaponInfo,std::allocator<WeaponInfo> > >,WeaponInfo *,std::allocator<WeaponInfo> >, COMDAT

; 412  : 	{	// copy [_First, _Last) to raw _Dest, using _Al

  00000	55		 push	 ebp
  00001	8b ec		 mov	 ebp, esp
  00003	51		 push	 ecx

; 413  : 	return (_Uninit_copy(_First, _Last, _Dest, _Al,
; 414  : 		_Ptr_cat(_First, _Dest)));

  00004	ff 75 fc	 push	 DWORD PTR __Cat$550457[ebp]
  00007	ff 75 14	 push	 DWORD PTR __Al$[ebp]
  0000a	ff 75 10	 push	 DWORD PTR __Dest$[ebp]
  0000d	ff 75 0c	 push	 DWORD PTR __Last$[ebp]
  00010	ff 75 08	 push	 DWORD PTR __First$[ebp]
  00013	e8 00 00 00 00	 call	 ??$_Uninit_copy@V?$_Vector_const_iterator@V?$_Vector_val@UWeaponInfo@@V?$allocator@UWeaponInfo@@@std@@@std@@@std@@PAUWeaponInfo@@V?$allocator@UWeaponInfo@@@2@@std@@YAPAUWeaponInfo@@V?$_Vector_const_iterator@V?$_Vector_val@UWeaponInfo@@V?$allocator@UWeaponInfo@@@std@@@std@@@0@0PAU1@AAV?$allocator@UWeaponInfo@@@0@U_Nonscalar_ptr_iterator_tag@0@@Z ; std::_Uninit_copy<std::_Vector_const_iterator<std::_Vector_val<WeaponInfo,std::allocator<WeaponInfo> > >,WeaponInfo *,std::allocator<WeaponInfo> >
  00018	83 c4 14	 add	 esp, 20			; 00000014H

; 415  : 	}

  0001b	c9		 leave
  0001c	c3		 ret	 0
??$_Uninitialized_copy@V?$_Vector_const_iterator@V?$_Vector_val@UWeaponInfo@@V?$allocator@UWeaponInfo@@@std@@@std@@@std@@PAUWeaponInfo@@V?$allocator@UWeaponInfo@@@2@@std@@YAPAUWeaponInfo@@V?$_Vector_const_iterator@V?$_Vector_val@UWeaponInfo@@V?$allocator@UWeaponInfo@@@std@@@std@@@0@0PAU1@AAV?$allocator@UWeaponInfo@@@0@@Z ENDP ; std::_Uninitialized_copy<std::_Vector_const_iterator<std::_Vector_val<WeaponInfo,std::allocator<WeaponInfo> > >,WeaponInfo *,std::allocator<WeaponInfo> >
_TEXT	ENDS
PUBLIC	?_Destroy@?$vector@UForceInfo@@V?$allocator@UForceInfo@@@std@@@std@@IAEXPAUForceInfo@@0@Z ; std::vector<ForceInfo,std::allocator<ForceInfo> >::_Destroy
; Function compile flags: /Ogsp
; File c:\program files (x86)\microsoft visual studio 10.0\vc\include\vector
;	COMDAT ?_Destroy@?$vector@UForceInfo@@V?$allocator@UForceInfo@@@std@@@std@@IAEXPAUForceInfo@@0@Z
_TEXT	SEGMENT
__First$ = 8						; size = 4
__Last$ = 12						; size = 4
?_Destroy@?$vector@UForceInfo@@V?$allocator@UForceInfo@@@std@@@std@@IAEXPAUForceInfo@@0@Z PROC ; std::vector<ForceInfo,std::allocator<ForceInfo> >::_Destroy, COMDAT
; _this$ = ecx

; 1270 : 		_Destroy_range(_First, _Last, this->_Alval);
; 1271 : 		}

  00000	c2 08 00	 ret	 8
?_Destroy@?$vector@UForceInfo@@V?$allocator@UForceInfo@@@std@@@std@@IAEXPAUForceInfo@@0@Z ENDP ; std::vector<ForceInfo,std::allocator<ForceInfo> >::_Destroy
_TEXT	ENDS
PUBLIC	??$_Destroy_range@V?$allocator@UWeaponInfo@@@std@@@std@@YAXPAUWeaponInfo@@0AAV?$allocator@UWeaponInfo@@@0@@Z ; std::_Destroy_range<std::allocator<WeaponInfo> >
; Function compile flags: /Ogsp
; File c:\program files (x86)\microsoft visual studio 10.0\vc\include\xmemory
;	COMDAT ??$_Destroy_range@V?$allocator@UWeaponInfo@@@std@@@std@@YAXPAUWeaponInfo@@0AAV?$allocator@UWeaponInfo@@@0@@Z
_TEXT	SEGMENT
__First$ = 8						; size = 4
__Last$ = 12						; size = 4
__Al$ = 16						; size = 4
??$_Destroy_range@V?$allocator@UWeaponInfo@@@std@@@std@@YAXPAUWeaponInfo@@0AAV?$allocator@UWeaponInfo@@@0@@Z PROC ; std::_Destroy_range<std::allocator<WeaponInfo> >, COMDAT

; 87   : 	{	// destroy [_First, _Last)

  00000	55		 push	 ebp
  00001	8b ec		 mov	 ebp, esp
  00003	56		 push	 esi

; 88   : 	_Destroy_range(_First, _Last, _Al, _Ptr_cat(_First, _Last));

  00004	8b 75 08	 mov	 esi, DWORD PTR __First$[ebp]
  00007	eb 0c		 jmp	 SHORT $LN24@Destroy_ra@2
$LL7@Destroy_ra@2:
  00009	8d 4e 08	 lea	 ecx, DWORD PTR [esi+8]
  0000c	ff 15 00 00 00
	00		 call	 DWORD PTR __imp_??1ioHashString@@QAE@XZ
  00012	83 c6 28	 add	 esi, 40			; 00000028H
$LN24@Destroy_ra@2:
  00015	3b 75 0c	 cmp	 esi, DWORD PTR __Last$[ebp]
  00018	75 ef		 jne	 SHORT $LL7@Destroy_ra@2
  0001a	5e		 pop	 esi

; 89   : 	}

  0001b	5d		 pop	 ebp
  0001c	c3		 ret	 0
??$_Destroy_range@V?$allocator@UWeaponInfo@@@std@@@std@@YAXPAUWeaponInfo@@0AAV?$allocator@UWeaponInfo@@@0@@Z ENDP ; std::_Destroy_range<std::allocator<WeaponInfo> >
_TEXT	ENDS
PUBLIC	?erase@?$vector@UForceInfo@@V?$allocator@UForceInfo@@@std@@@std@@QAE?AV?$_Vector_iterator@V?$_Vector_val@UForceInfo@@V?$allocator@UForceInfo@@@std@@@std@@@2@V?$_Vector_const_iterator@V?$_Vector_val@UForceInfo@@V?$allocator@UForceInfo@@@std@@@std@@@2@0@Z ; std::vector<ForceInfo,std::allocator<ForceInfo> >::erase
; Function compile flags: /Ogsp
; File c:\program files (x86)\microsoft visual studio 10.0\vc\include\vector
;	COMDAT ?erase@?$vector@UForceInfo@@V?$allocator@UForceInfo@@@std@@@std@@QAE?AV?$_Vector_iterator@V?$_Vector_val@UForceInfo@@V?$allocator@UForceInfo@@@std@@@std@@@2@V?$_Vector_const_iterator@V?$_Vector_val@UForceInfo@@V?$allocator@UForceInfo@@@std@@@std@@@2@0@Z
_TEXT	SEGMENT
___$ReturnUdt$ = 8					; size = 4
__First_arg$ = 12					; size = 4
__Cat$550658 = 16					; size = 1
__Last_arg$ = 16					; size = 4
?erase@?$vector@UForceInfo@@V?$allocator@UForceInfo@@@std@@@std@@QAE?AV?$_Vector_iterator@V?$_Vector_val@UForceInfo@@V?$allocator@UForceInfo@@@std@@@std@@@2@V?$_Vector_const_iterator@V?$_Vector_val@UForceInfo@@V?$allocator@UForceInfo@@@std@@@std@@@2@0@Z PROC ; std::vector<ForceInfo,std::allocator<ForceInfo> >::erase, COMDAT
; _this$ = ecx

; 1190 : 		{	// erase [_First, _Last)

  00000	55		 push	 ebp
  00001	8b ec		 mov	 ebp, esp

; 1191 : 		iterator _First = _Make_iter(_First_arg);

  00003	8b 45 0c	 mov	 eax, DWORD PTR __First_arg$[ebp]
  00006	56		 push	 esi
  00007	57		 push	 edi
  00008	8b 7d 08	 mov	 edi, DWORD PTR ___$ReturnUdt$[ebp]
  0000b	8b f1		 mov	 esi, ecx
  0000d	89 07		 mov	 DWORD PTR [edi], eax

; 1192 : 		iterator _Last = _Make_iter(_Last_arg);
; 1193 : 
; 1194 : 		if (_First != _Last)

  0000f	3b 45 10	 cmp	 eax, DWORD PTR __Last_arg$[ebp]
  00012	74 16		 je	 SHORT $LN1@erase

; 1195 : 			{	// worth doing, copy down over hole
; 1196 :  #if _ITERATOR_DEBUG_LEVEL == 2
; 1197 : 			if (_Last < _First || _VICONT(_First) != this
; 1198 : 				|| _VIPTR(_First) < this->_Myfirst
; 1199 : 				|| this->_Mylast < _VIPTR(_Last))
; 1200 : 				_DEBUG_ERROR("vector erase iterator outside range");
; 1201 : 			pointer _Ptr = _Move(_VIPTR(_Last), this->_Mylast,
; 1202 : 				_VIPTR(_First));
; 1203 : 			_Orphan_range(_VIPTR(_First), this->_Mylast);
; 1204 : 
; 1205 :  #else /* _ITERATOR_DEBUG_LEVEL == 2 */
; 1206 : 			pointer _Ptr = _Move(_VIPTR(_Last), this->_Mylast,
; 1207 : 				_VIPTR(_First));

  00014	ff 75 10	 push	 DWORD PTR __Cat$550658[ebp]
  00017	8b 4e 04	 mov	 ecx, DWORD PTR [esi+4]
  0001a	50		 push	 eax
  0001b	51		 push	 ecx
  0001c	ff 75 10	 push	 DWORD PTR __Last_arg$[ebp]
  0001f	e8 00 00 00 00	 call	 ??$_Move@PAUForceInfo@@PAU1@@std@@YAPAUForceInfo@@PAU1@00U_Nonscalar_ptr_iterator_tag@0@@Z ; std::_Move<ForceInfo *,ForceInfo *>
  00024	83 c4 10	 add	 esp, 16			; 00000010H

; 1208 :  #endif /* _ITERATOR_DEBUG_LEVEL == 2 */
; 1209 : 
; 1210 : 			_Destroy(_Ptr, this->_Mylast);
; 1211 : 			this->_Mylast = _Ptr;

  00027	89 46 04	 mov	 DWORD PTR [esi+4], eax
$LN1@erase:

; 1212 : 			}
; 1213 : 		return (_First);

  0002a	8b c7		 mov	 eax, edi
  0002c	5f		 pop	 edi
  0002d	5e		 pop	 esi

; 1214 : 		}

  0002e	5d		 pop	 ebp
  0002f	c2 0c 00	 ret	 12			; 0000000cH
?erase@?$vector@UForceInfo@@V?$allocator@UForceInfo@@@std@@@std@@QAE?AV?$_Vector_iterator@V?$_Vector_val@UForceInfo@@V?$allocator@UForceInfo@@@std@@@std@@@2@V?$_Vector_const_iterator@V?$_Vector_val@UForceInfo@@V?$allocator@UForceInfo@@@std@@@std@@@2@0@Z ENDP ; std::vector<ForceInfo,std::allocator<ForceInfo> >::erase
_TEXT	ENDS
PUBLIC	??$_Ucopy@PAUWeaponInfo@@@?$vector@UWeaponInfo@@V?$allocator@UWeaponInfo@@@std@@@std@@IAEPAUWeaponInfo@@PAU2@00@Z ; std::vector<WeaponInfo,std::allocator<WeaponInfo> >::_Ucopy<WeaponInfo *>
; Function compile flags: /Ogsp
;	COMDAT ??$_Ucopy@PAUWeaponInfo@@@?$vector@UWeaponInfo@@V?$allocator@UWeaponInfo@@@std@@@std@@IAEPAUWeaponInfo@@PAU2@00@Z
_TEXT	SEGMENT
__First$ = 8						; size = 4
__Last$ = 12						; size = 4
__Cat$550746 = 16					; size = 1
__Ptr$ = 16						; size = 4
??$_Ucopy@PAUWeaponInfo@@@?$vector@UWeaponInfo@@V?$allocator@UWeaponInfo@@@std@@@std@@IAEPAUWeaponInfo@@PAU2@00@Z PROC ; std::vector<WeaponInfo,std::allocator<WeaponInfo> >::_Ucopy<WeaponInfo *>, COMDAT
; _this$ = ecx

; 1315 : 		pointer _Ucopy(_Iter _First, _Iter _Last, pointer _Ptr)

  00000	55		 push	 ebp
  00001	8b ec		 mov	 ebp, esp

; 1316 : 		{	// copy initializing [_First, _Last), using allocator
; 1317 : 		return (_Uninitialized_copy(_First, _Last,
; 1318 : 			_Ptr, this->_Alval));

  00003	ff 75 10	 push	 DWORD PTR __Cat$550746[ebp]
  00006	83 c1 0c	 add	 ecx, 12			; 0000000cH
  00009	51		 push	 ecx
  0000a	ff 75 10	 push	 DWORD PTR __Ptr$[ebp]
  0000d	ff 75 0c	 push	 DWORD PTR __Last$[ebp]
  00010	ff 75 08	 push	 DWORD PTR __First$[ebp]
  00013	e8 00 00 00 00	 call	 ??$_Uninit_copy@PAUWeaponInfo@@PAU1@V?$allocator@UWeaponInfo@@@std@@@std@@YAPAUWeaponInfo@@PAU1@00AAV?$allocator@UWeaponInfo@@@0@U_Nonscalar_ptr_iterator_tag@0@@Z ; std::_Uninit_copy<WeaponInfo *,WeaponInfo *,std::allocator<WeaponInfo> >
  00018	83 c4 14	 add	 esp, 20			; 00000014H

; 1319 : 		}

  0001b	5d		 pop	 ebp
  0001c	c2 0c 00	 ret	 12			; 0000000cH
??$_Ucopy@PAUWeaponInfo@@@?$vector@UWeaponInfo@@V?$allocator@UWeaponInfo@@@std@@@std@@IAEPAUWeaponInfo@@PAU2@00@Z ENDP ; std::vector<WeaponInfo,std::allocator<WeaponInfo> >::_Ucopy<WeaponInfo *>
_TEXT	ENDS
PUBLIC	??$_Ucopy@V?$_Vector_const_iterator@V?$_Vector_val@UWeaponInfo@@V?$allocator@UWeaponInfo@@@std@@@std@@@std@@@?$vector@UWeaponInfo@@V?$allocator@UWeaponInfo@@@std@@@std@@IAEPAUWeaponInfo@@V?$_Vector_const_iterator@V?$_Vector_val@UWeaponInfo@@V?$allocator@UWeaponInfo@@@std@@@std@@@1@0PAU2@@Z ; std::vector<WeaponInfo,std::allocator<WeaponInfo> >::_Ucopy<std::_Vector_const_iterator<std::_Vector_val<WeaponInfo,std::allocator<WeaponInfo> > > >
; Function compile flags: /Ogsp
;	COMDAT ??$_Ucopy@V?$_Vector_const_iterator@V?$_Vector_val@UWeaponInfo@@V?$allocator@UWeaponInfo@@@std@@@std@@@std@@@?$vector@UWeaponInfo@@V?$allocator@UWeaponInfo@@@std@@@std@@IAEPAUWeaponInfo@@V?$_Vector_const_iterator@V?$_Vector_val@UWeaponInfo@@V?$allocator@UWeaponInfo@@@std@@@std@@@1@0PAU2@@Z
_TEXT	SEGMENT
__First$ = 8						; size = 4
__Last$ = 12						; size = 4
__Cat$550761 = 16					; size = 1
__Ptr$ = 16						; size = 4
??$_Ucopy@V?$_Vector_const_iterator@V?$_Vector_val@UWeaponInfo@@V?$allocator@UWeaponInfo@@@std@@@std@@@std@@@?$vector@UWeaponInfo@@V?$allocator@UWeaponInfo@@@std@@@std@@IAEPAUWeaponInfo@@V?$_Vector_const_iterator@V?$_Vector_val@UWeaponInfo@@V?$allocator@UWeaponInfo@@@std@@@std@@@1@0PAU2@@Z PROC ; std::vector<WeaponInfo,std::allocator<WeaponInfo> >::_Ucopy<std::_Vector_const_iterator<std::_Vector_val<WeaponInfo,std::allocator<WeaponInfo> > > >, COMDAT
; _this$ = ecx

; 1315 : 		pointer _Ucopy(_Iter _First, _Iter _Last, pointer _Ptr)

  00000	55		 push	 ebp
  00001	8b ec		 mov	 ebp, esp

; 1316 : 		{	// copy initializing [_First, _Last), using allocator
; 1317 : 		return (_Uninitialized_copy(_First, _Last,
; 1318 : 			_Ptr, this->_Alval));

  00003	ff 75 10	 push	 DWORD PTR __Cat$550761[ebp]
  00006	83 c1 0c	 add	 ecx, 12			; 0000000cH
  00009	51		 push	 ecx
  0000a	ff 75 10	 push	 DWORD PTR __Ptr$[ebp]
  0000d	ff 75 0c	 push	 DWORD PTR __Last$[ebp]
  00010	ff 75 08	 push	 DWORD PTR __First$[ebp]
  00013	e8 00 00 00 00	 call	 ??$_Uninit_copy@V?$_Vector_const_iterator@V?$_Vector_val@UWeaponInfo@@V?$allocator@UWeaponInfo@@@std@@@std@@@std@@PAUWeaponInfo@@V?$allocator@UWeaponInfo@@@2@@std@@YAPAUWeaponInfo@@V?$_Vector_const_iterator@V?$_Vector_val@UWeaponInfo@@V?$allocator@UWeaponInfo@@@std@@@std@@@0@0PAU1@AAV?$allocator@UWeaponInfo@@@0@U_Nonscalar_ptr_iterator_tag@0@@Z ; std::_Uninit_copy<std::_Vector_const_iterator<std::_Vector_val<WeaponInfo,std::allocator<WeaponInfo> > >,WeaponInfo *,std::allocator<WeaponInfo> >
  00018	83 c4 14	 add	 esp, 20			; 00000014H

; 1319 : 		}

  0001b	5d		 pop	 ebp
  0001c	c2 0c 00	 ret	 12			; 0000000cH
??$_Ucopy@V?$_Vector_const_iterator@V?$_Vector_val@UWeaponInfo@@V?$allocator@UWeaponInfo@@@std@@@std@@@std@@@?$vector@UWeaponInfo@@V?$allocator@UWeaponInfo@@@std@@@std@@IAEPAUWeaponInfo@@V?$_Vector_const_iterator@V?$_Vector_val@UWeaponInfo@@V?$allocator@UWeaponInfo@@@std@@@std@@@1@0PAU2@@Z ENDP ; std::vector<WeaponInfo,std::allocator<WeaponInfo> >::_Ucopy<std::_Vector_const_iterator<std::_Vector_val<WeaponInfo,std::allocator<WeaponInfo> > > >
_TEXT	ENDS
PUBLIC	?_Tidy@?$vector@UForceInfo@@V?$allocator@UForceInfo@@@std@@@std@@IAEXXZ ; std::vector<ForceInfo,std::allocator<ForceInfo> >::_Tidy
EXTRN	__imp_?_Orphan_all@_Container_base0@std@@QAEXXZ:PROC
; Function compile flags: /Ogsp
;	COMDAT ?_Tidy@?$vector@UForceInfo@@V?$allocator@UForceInfo@@@std@@@std@@IAEXXZ
_TEXT	SEGMENT
?_Tidy@?$vector@UForceInfo@@V?$allocator@UForceInfo@@@std@@@std@@IAEXXZ PROC ; std::vector<ForceInfo,std::allocator<ForceInfo> >::_Tidy, COMDAT
; _this$ = ecx

; 1301 : 		{	// free all storage

  00000	56		 push	 esi
  00001	8b f1		 mov	 esi, ecx

; 1302 : 		if (this->_Myfirst != 0)

  00003	83 3e 00	 cmp	 DWORD PTR [esi], 0
  00006	74 0e		 je	 SHORT $LN21@Tidy

; 1303 : 			{	// something to free, destroy and deallocate it
; 1304 : 			this->_Orphan_all();

  00008	ff 15 00 00 00
	00		 call	 DWORD PTR __imp_?_Orphan_all@_Container_base0@std@@QAEXXZ

; 1305 : 			_Destroy(this->_Myfirst, this->_Mylast);
; 1306 : 			this->_Alval.deallocate(this->_Myfirst,
; 1307 : 				this->_Myend - this->_Myfirst);

  0000e	ff 36		 push	 DWORD PTR [esi]
  00010	e8 00 00 00 00	 call	 ??3@YAXPAX@Z		; operator delete
  00015	59		 pop	 ecx
$LN21@Tidy:

; 1308 : 			}
; 1309 : 		this->_Myfirst = 0;

  00016	83 26 00	 and	 DWORD PTR [esi], 0

; 1310 : 		this->_Mylast = 0;

  00019	83 66 04 00	 and	 DWORD PTR [esi+4], 0

; 1311 : 		this->_Myend = 0;

  0001d	83 66 08 00	 and	 DWORD PTR [esi+8], 0
  00021	5e		 pop	 esi

; 1312 : 		}

  00022	c3		 ret	 0
?_Tidy@?$vector@UForceInfo@@V?$allocator@UForceInfo@@@std@@@std@@IAEXXZ ENDP ; std::vector<ForceInfo,std::allocator<ForceInfo> >::_Tidy
_TEXT	ENDS
PUBLIC	?_Destroy@?$vector@UWeaponInfo@@V?$allocator@UWeaponInfo@@@std@@@std@@IAEXPAUWeaponInfo@@0@Z ; std::vector<WeaponInfo,std::allocator<WeaponInfo> >::_Destroy
; Function compile flags: /Ogsp
;	COMDAT ?_Destroy@?$vector@UWeaponInfo@@V?$allocator@UWeaponInfo@@@std@@@std@@IAEXPAUWeaponInfo@@0@Z
_TEXT	SEGMENT
__First$ = 8						; size = 4
__Last$ = 12						; size = 4
?_Destroy@?$vector@UWeaponInfo@@V?$allocator@UWeaponInfo@@@std@@@std@@IAEXPAUWeaponInfo@@0@Z PROC ; std::vector<WeaponInfo,std::allocator<WeaponInfo> >::_Destroy, COMDAT
; _this$ = ecx

; 1269 : 		{	// destroy [_First, _Last) using allocator

  00000	55		 push	 ebp
  00001	8b ec		 mov	 ebp, esp

; 1270 : 		_Destroy_range(_First, _Last, this->_Alval);

  00003	83 c1 0c	 add	 ecx, 12			; 0000000cH
  00006	51		 push	 ecx
  00007	ff 75 0c	 push	 DWORD PTR __Last$[ebp]
  0000a	ff 75 08	 push	 DWORD PTR __First$[ebp]
  0000d	e8 00 00 00 00	 call	 ??$_Destroy_range@V?$allocator@UWeaponInfo@@@std@@@std@@YAXPAUWeaponInfo@@0AAV?$allocator@UWeaponInfo@@@0@@Z ; std::_Destroy_range<std::allocator<WeaponInfo> >
  00012	83 c4 0c	 add	 esp, 12			; 0000000cH

; 1271 : 		}

  00015	5d		 pop	 ebp
  00016	c2 08 00	 ret	 8
?_Destroy@?$vector@UWeaponInfo@@V?$allocator@UWeaponInfo@@@std@@@std@@IAEXPAUWeaponInfo@@0@Z ENDP ; std::vector<WeaponInfo,std::allocator<WeaponInfo> >::_Destroy
_TEXT	ENDS
PUBLIC	?clear@?$vector@UForceInfo@@V?$allocator@UForceInfo@@@std@@@std@@QAEXXZ ; std::vector<ForceInfo,std::allocator<ForceInfo> >::clear
; Function compile flags: /Ogsp
;	COMDAT ?clear@?$vector@UForceInfo@@V?$allocator@UForceInfo@@@std@@@std@@QAEXXZ
_TEXT	SEGMENT
$T550854 = -4						; size = 4
?clear@?$vector@UForceInfo@@V?$allocator@UForceInfo@@@std@@@std@@QAEXXZ PROC ; std::vector<ForceInfo,std::allocator<ForceInfo> >::clear, COMDAT
; _this$ = ecx

; 1217 : 		{	// erase all

  00000	55		 push	 ebp
  00001	8b ec		 mov	 ebp, esp
  00003	51		 push	 ecx

; 1218 : 		erase(begin(), end());

  00004	8b 41 04	 mov	 eax, DWORD PTR [ecx+4]
  00007	8b 11		 mov	 edx, DWORD PTR [ecx]
  00009	50		 push	 eax
  0000a	52		 push	 edx
  0000b	8d 45 fc	 lea	 eax, DWORD PTR $T550854[ebp]
  0000e	50		 push	 eax
  0000f	e8 00 00 00 00	 call	 ?erase@?$vector@UForceInfo@@V?$allocator@UForceInfo@@@std@@@std@@QAE?AV?$_Vector_iterator@V?$_Vector_val@UForceInfo@@V?$allocator@UForceInfo@@@std@@@std@@@2@V?$_Vector_const_iterator@V?$_Vector_val@UForceInfo@@V?$allocator@UForceInfo@@@std@@@std@@@2@0@Z ; std::vector<ForceInfo,std::allocator<ForceInfo> >::erase

; 1219 : 		}

  00014	c9		 leave
  00015	c3		 ret	 0
?clear@?$vector@UForceInfo@@V?$allocator@UForceInfo@@@std@@@std@@QAEXXZ ENDP ; std::vector<ForceInfo,std::allocator<ForceInfo> >::clear
_TEXT	ENDS
PUBLIC	?erase@?$vector@UWeaponInfo@@V?$allocator@UWeaponInfo@@@std@@@std@@QAE?AV?$_Vector_iterator@V?$_Vector_val@UWeaponInfo@@V?$allocator@UWeaponInfo@@@std@@@std@@@2@V?$_Vector_const_iterator@V?$_Vector_val@UWeaponInfo@@V?$allocator@UWeaponInfo@@@std@@@std@@@2@0@Z ; std::vector<WeaponInfo,std::allocator<WeaponInfo> >::erase
; Function compile flags: /Ogsp
;	COMDAT ?erase@?$vector@UWeaponInfo@@V?$allocator@UWeaponInfo@@@std@@@std@@QAE?AV?$_Vector_iterator@V?$_Vector_val@UWeaponInfo@@V?$allocator@UWeaponInfo@@@std@@@std@@@2@V?$_Vector_const_iterator@V?$_Vector_val@UWeaponInfo@@V?$allocator@UWeaponInfo@@@std@@@std@@@2@0@Z
_TEXT	SEGMENT
___$ReturnUdt$ = 8					; size = 4
__First_arg$ = 12					; size = 4
__Cat$550980 = 16					; size = 1
__Last_arg$ = 16					; size = 4
?erase@?$vector@UWeaponInfo@@V?$allocator@UWeaponInfo@@@std@@@std@@QAE?AV?$_Vector_iterator@V?$_Vector_val@UWeaponInfo@@V?$allocator@UWeaponInfo@@@std@@@std@@@2@V?$_Vector_const_iterator@V?$_Vector_val@UWeaponInfo@@V?$allocator@UWeaponInfo@@@std@@@std@@@2@0@Z PROC ; std::vector<WeaponInfo,std::allocator<WeaponInfo> >::erase, COMDAT
; _this$ = ecx

; 1190 : 		{	// erase [_First, _Last)

  00000	55		 push	 ebp
  00001	8b ec		 mov	 ebp, esp

; 1191 : 		iterator _First = _Make_iter(_First_arg);

  00003	8b 45 0c	 mov	 eax, DWORD PTR __First_arg$[ebp]
  00006	53		 push	 ebx
  00007	8b 5d 08	 mov	 ebx, DWORD PTR ___$ReturnUdt$[ebp]
  0000a	56		 push	 esi
  0000b	8b f1		 mov	 esi, ecx
  0000d	89 03		 mov	 DWORD PTR [ebx], eax

; 1192 : 		iterator _Last = _Make_iter(_Last_arg);
; 1193 : 
; 1194 : 		if (_First != _Last)

  0000f	3b 45 10	 cmp	 eax, DWORD PTR __Last_arg$[ebp]
  00012	74 27		 je	 SHORT $LN1@erase@2

; 1195 : 			{	// worth doing, copy down over hole
; 1196 :  #if _ITERATOR_DEBUG_LEVEL == 2
; 1197 : 			if (_Last < _First || _VICONT(_First) != this
; 1198 : 				|| _VIPTR(_First) < this->_Myfirst
; 1199 : 				|| this->_Mylast < _VIPTR(_Last))
; 1200 : 				_DEBUG_ERROR("vector erase iterator outside range");
; 1201 : 			pointer _Ptr = _Move(_VIPTR(_Last), this->_Mylast,
; 1202 : 				_VIPTR(_First));
; 1203 : 			_Orphan_range(_VIPTR(_First), this->_Mylast);
; 1204 : 
; 1205 :  #else /* _ITERATOR_DEBUG_LEVEL == 2 */
; 1206 : 			pointer _Ptr = _Move(_VIPTR(_Last), this->_Mylast,
; 1207 : 				_VIPTR(_First));

  00014	8b 4e 04	 mov	 ecx, DWORD PTR [esi+4]
  00017	57		 push	 edi
  00018	ff 75 10	 push	 DWORD PTR __Cat$550980[ebp]
  0001b	50		 push	 eax
  0001c	51		 push	 ecx
  0001d	ff 75 10	 push	 DWORD PTR __Last_arg$[ebp]
  00020	e8 00 00 00 00	 call	 ??$_Move@PAUWeaponInfo@@PAU1@@std@@YAPAUWeaponInfo@@PAU1@00U_Nonscalar_ptr_iterator_tag@0@@Z ; std::_Move<WeaponInfo *,WeaponInfo *>
  00025	8b f8		 mov	 edi, eax

; 1208 :  #endif /* _ITERATOR_DEBUG_LEVEL == 2 */
; 1209 : 
; 1210 : 			_Destroy(_Ptr, this->_Mylast);

  00027	8d 46 0c	 lea	 eax, DWORD PTR [esi+12]
  0002a	50		 push	 eax
  0002b	ff 76 04	 push	 DWORD PTR [esi+4]
  0002e	57		 push	 edi
  0002f	e8 00 00 00 00	 call	 ??$_Destroy_range@V?$allocator@UWeaponInfo@@@std@@@std@@YAXPAUWeaponInfo@@0AAV?$allocator@UWeaponInfo@@@0@@Z ; std::_Destroy_range<std::allocator<WeaponInfo> >
  00034	83 c4 1c	 add	 esp, 28			; 0000001cH

; 1211 : 			this->_Mylast = _Ptr;

  00037	89 7e 04	 mov	 DWORD PTR [esi+4], edi
  0003a	5f		 pop	 edi
$LN1@erase@2:

; 1212 : 			}
; 1213 : 		return (_First);

  0003b	5e		 pop	 esi
  0003c	8b c3		 mov	 eax, ebx
  0003e	5b		 pop	 ebx

; 1214 : 		}

  0003f	5d		 pop	 ebp
  00040	c2 0c 00	 ret	 12			; 0000000cH
?erase@?$vector@UWeaponInfo@@V?$allocator@UWeaponInfo@@@std@@@std@@QAE?AV?$_Vector_iterator@V?$_Vector_val@UWeaponInfo@@V?$allocator@UWeaponInfo@@@std@@@std@@@2@V?$_Vector_const_iterator@V?$_Vector_val@UWeaponInfo@@V?$allocator@UWeaponInfo@@@std@@@std@@@2@0@Z ENDP ; std::vector<WeaponInfo,std::allocator<WeaponInfo> >::erase
_TEXT	ENDS
PUBLIC	??0?$vector@UForceInfo@@V?$allocator@UForceInfo@@@std@@@std@@QAE@ABV01@@Z ; std::vector<ForceInfo,std::allocator<ForceInfo> >::vector<ForceInfo,std::allocator<ForceInfo> >
;	COMDAT xdata$x
; File c:\program files (x86)\microsoft visual studio 10.0\vc\include\xutility
xdata$x	SEGMENT
__catchsym$??0?$vector@UForceInfo@@V?$allocator@UForceInfo@@@std@@@std@@QAE@ABV01@@Z$2 DD 040H
	DD	00H
	DD	00H
	DD	FLAT:__catch$??0?$vector@UForceInfo@@V?$allocator@UForceInfo@@@std@@@std@@QAE@ABV01@@Z$0
__unwindtable$??0?$vector@UForceInfo@@V?$allocator@UForceInfo@@@std@@@std@@QAE@ABV01@@Z DD 0ffffffffH
	DD	00H
	DD	0ffffffffH
	DD	00H
__tryblocktable$??0?$vector@UForceInfo@@V?$allocator@UForceInfo@@@std@@@std@@QAE@ABV01@@Z DD 00H
	DD	00H
	DD	01H
	DD	01H
	DD	FLAT:__catchsym$??0?$vector@UForceInfo@@V?$allocator@UForceInfo@@@std@@@std@@QAE@ABV01@@Z$2
__ehfuncinfo$??0?$vector@UForceInfo@@V?$allocator@UForceInfo@@@std@@@std@@QAE@ABV01@@Z DD 019930522H
	DD	02H
	DD	FLAT:__unwindtable$??0?$vector@UForceInfo@@V?$allocator@UForceInfo@@@std@@@std@@QAE@ABV01@@Z
	DD	01H
	DD	FLAT:__tryblocktable$??0?$vector@UForceInfo@@V?$allocator@UForceInfo@@@std@@@std@@QAE@ABV01@@Z
	DD	2 DUP(00H)
	DD	00H
	DD	01H
; Function compile flags: /Ogsp
; File c:\program files (x86)\microsoft visual studio 10.0\vc\include\vector
xdata$x	ENDS
;	COMDAT ??0?$vector@UForceInfo@@V?$allocator@UForceInfo@@@std@@@std@@QAE@ABV01@@Z
_TEXT	SEGMENT
_this$ = -20						; size = 4
__$EHRec$ = -16						; size = 16
__Cat$551067 = 8					; size = 1
__Right$ = 8						; size = 4
??0?$vector@UForceInfo@@V?$allocator@UForceInfo@@@std@@@std@@QAE@ABV01@@Z PROC ; std::vector<ForceInfo,std::allocator<ForceInfo> >::vector<ForceInfo,std::allocator<ForceInfo> >, COMDAT
; _this$ = ecx

; 535  : 		{	// construct by copying _Right

  00000	6a 08		 push	 8
  00002	b8 00 00 00 00	 mov	 eax, __ehhandler$??0?$vector@UForceInfo@@V?$allocator@UForceInfo@@@std@@@std@@QAE@ABV01@@Z
  00007	e8 00 00 00 00	 call	 __EH_prolog3_catch
  0000c	8b f1		 mov	 esi, ecx
  0000e	89 75 ec	 mov	 DWORD PTR _this$[ebp], esi

; 536  : 		if (_Buy(_Right.size()))

  00011	8b 7d 08	 mov	 edi, DWORD PTR __Right$[ebp]
  00014	33 db		 xor	 ebx, ebx
  00016	89 1e		 mov	 DWORD PTR [esi], ebx
  00018	89 5e 04	 mov	 DWORD PTR [esi+4], ebx
  0001b	89 5e 08	 mov	 DWORD PTR [esi+8], ebx
  0001e	8b 47 04	 mov	 eax, DWORD PTR [edi+4]
  00021	2b 07		 sub	 eax, DWORD PTR [edi]
  00023	6a 0c		 push	 12			; 0000000cH
  00025	59		 pop	 ecx
  00026	99		 cdq
  00027	f7 f9		 idiv	 ecx
  00029	8b ce		 mov	 ecx, esi
  0002b	50		 push	 eax
  0002c	e8 00 00 00 00	 call	 ?_Buy@?$vector@UForceInfo@@V?$allocator@UForceInfo@@@std@@@std@@IAE_NI@Z ; std::vector<ForceInfo,std::allocator<ForceInfo> >::_Buy
  00031	84 c0		 test	 al, al
  00033	74 1f		 je	 SHORT $LN7@vector

; 537  : 			_TRY_BEGIN
; 538  : 			this->_Mylast = _Ucopy(_Right.begin(), _Right.end(),
; 539  : 				this->_Myfirst);

  00035	ff 75 08	 push	 DWORD PTR __Cat$551067[ebp]
  00038	8b 0e		 mov	 ecx, DWORD PTR [esi]
  0003a	8b 47 04	 mov	 eax, DWORD PTR [edi+4]
  0003d	8b 3f		 mov	 edi, DWORD PTR [edi]
  0003f	8d 56 0c	 lea	 edx, DWORD PTR [esi+12]
  00042	52		 push	 edx
  00043	51		 push	 ecx
  00044	50		 push	 eax
  00045	57		 push	 edi
  00046	89 5d fc	 mov	 DWORD PTR __$EHRec$[ebp+12], ebx
  00049	e8 00 00 00 00	 call	 ??$_Uninit_copy@V?$_Vector_const_iterator@V?$_Vector_val@UForceInfo@@V?$allocator@UForceInfo@@@std@@@std@@@std@@PAUForceInfo@@V?$allocator@UForceInfo@@@2@@std@@YAPAUForceInfo@@V?$_Vector_const_iterator@V?$_Vector_val@UForceInfo@@V?$allocator@UForceInfo@@@std@@@std@@@0@0PAU1@AAV?$allocator@UForceInfo@@@0@U_Nonscalar_ptr_iterator_tag@0@@Z ; std::_Uninit_copy<std::_Vector_const_iterator<std::_Vector_val<ForceInfo,std::allocator<ForceInfo> > >,ForceInfo *,std::allocator<ForceInfo> >
  0004e	83 c4 14	 add	 esp, 20			; 00000014H
  00051	89 46 04	 mov	 DWORD PTR [esi+4], eax
$LN7@vector:

; 543  : 			_CATCH_END
; 544  : 		}

  00054	8b c6		 mov	 eax, esi
  00056	e8 00 00 00 00	 call	 __EH_epilog3
  0005b	c2 04 00	 ret	 4
__catch$??0?$vector@UForceInfo@@V?$allocator@UForceInfo@@@std@@@std@@QAE@ABV01@@Z$0:

; 540  : 			_CATCH_ALL
; 541  : 			_Tidy();

  0005e	8b 4d ec	 mov	 ecx, DWORD PTR _this$[ebp]
  00061	e8 00 00 00 00	 call	 ?_Tidy@?$vector@UForceInfo@@V?$allocator@UForceInfo@@@std@@@std@@IAEXXZ ; std::vector<ForceInfo,std::allocator<ForceInfo> >::_Tidy

; 542  : 			_RERAISE;

  00066	33 db		 xor	 ebx, ebx
  00068	53		 push	 ebx
  00069	53		 push	 ebx
  0006a	e8 00 00 00 00	 call	 __CxxThrowException@8
$LN38@vector:
$LN37@vector:
  0006f	cc		 int	 3
_TEXT	ENDS
;	COMDAT text$x
text$x	SEGMENT
__ehhandler$??0?$vector@UForceInfo@@V?$allocator@UForceInfo@@@std@@@std@@QAE@ABV01@@Z:
  00000	8b 54 24 08	 mov	 edx, DWORD PTR [esp+8]
  00004	8d 42 0c	 lea	 eax, DWORD PTR [edx+12]
  00007	8b 4a e8	 mov	 ecx, DWORD PTR [edx-24]
  0000a	33 c8		 xor	 ecx, eax
  0000c	e8 00 00 00 00	 call	 @__security_check_cookie@4
  00011	b8 00 00 00 00	 mov	 eax, OFFSET __ehfuncinfo$??0?$vector@UForceInfo@@V?$allocator@UForceInfo@@@std@@@std@@QAE@ABV01@@Z
  00016	e9 00 00 00 00	 jmp	 ___CxxFrameHandler3
text$x	ENDS
??0?$vector@UForceInfo@@V?$allocator@UForceInfo@@@std@@@std@@QAE@ABV01@@Z ENDP ; std::vector<ForceInfo,std::allocator<ForceInfo> >::vector<ForceInfo,std::allocator<ForceInfo> >
PUBLIC	??1?$vector@UForceInfo@@V?$allocator@UForceInfo@@@std@@@std@@QAE@XZ ; std::vector<ForceInfo,std::allocator<ForceInfo> >::~vector<ForceInfo,std::allocator<ForceInfo> >
; Function compile flags: /Ogsp
;	COMDAT ??1?$vector@UForceInfo@@V?$allocator@UForceInfo@@@std@@@std@@QAE@XZ
_TEXT	SEGMENT
??1?$vector@UForceInfo@@V?$allocator@UForceInfo@@@std@@@std@@QAE@XZ PROC ; std::vector<ForceInfo,std::allocator<ForceInfo> >::~vector<ForceInfo,std::allocator<ForceInfo> >, COMDAT
; _this$ = ecx

; 705  : 		_Tidy();

  00000	e9 00 00 00 00	 jmp	 ?_Tidy@?$vector@UForceInfo@@V?$allocator@UForceInfo@@@std@@@std@@IAEXXZ ; std::vector<ForceInfo,std::allocator<ForceInfo> >::_Tidy
??1?$vector@UForceInfo@@V?$allocator@UForceInfo@@@std@@@std@@QAE@XZ ENDP ; std::vector<ForceInfo,std::allocator<ForceInfo> >::~vector<ForceInfo,std::allocator<ForceInfo> >
_TEXT	ENDS
PUBLIC	?_Tidy@?$vector@UWeaponInfo@@V?$allocator@UWeaponInfo@@@std@@@std@@IAEXXZ ; std::vector<WeaponInfo,std::allocator<WeaponInfo> >::_Tidy
; Function compile flags: /Ogsp
;	COMDAT ?_Tidy@?$vector@UWeaponInfo@@V?$allocator@UWeaponInfo@@@std@@@std@@IAEXXZ
_TEXT	SEGMENT
?_Tidy@?$vector@UWeaponInfo@@V?$allocator@UWeaponInfo@@@std@@@std@@IAEXXZ PROC ; std::vector<WeaponInfo,std::allocator<WeaponInfo> >::_Tidy, COMDAT
; _this$ = ecx

; 1301 : 		{	// free all storage

  00000	56		 push	 esi
  00001	8b f1		 mov	 esi, ecx

; 1302 : 		if (this->_Myfirst != 0)

  00003	83 3e 00	 cmp	 DWORD PTR [esi], 0
  00006	74 1e		 je	 SHORT $LN6@Tidy@2

; 1303 : 			{	// something to free, destroy and deallocate it
; 1304 : 			this->_Orphan_all();

  00008	ff 15 00 00 00
	00		 call	 DWORD PTR __imp_?_Orphan_all@_Container_base0@std@@QAEXXZ

; 1305 : 			_Destroy(this->_Myfirst, this->_Mylast);

  0000e	8d 46 0c	 lea	 eax, DWORD PTR [esi+12]
  00011	50		 push	 eax
  00012	ff 76 04	 push	 DWORD PTR [esi+4]
  00015	ff 36		 push	 DWORD PTR [esi]
  00017	e8 00 00 00 00	 call	 ??$_Destroy_range@V?$allocator@UWeaponInfo@@@std@@@std@@YAXPAUWeaponInfo@@0AAV?$allocator@UWeaponInfo@@@0@@Z ; std::_Destroy_range<std::allocator<WeaponInfo> >

; 1306 : 			this->_Alval.deallocate(this->_Myfirst,
; 1307 : 				this->_Myend - this->_Myfirst);

  0001c	ff 36		 push	 DWORD PTR [esi]
  0001e	e8 00 00 00 00	 call	 ??3@YAXPAX@Z		; operator delete
  00023	83 c4 10	 add	 esp, 16			; 00000010H
$LN6@Tidy@2:

; 1308 : 			}
; 1309 : 		this->_Myfirst = 0;

  00026	83 26 00	 and	 DWORD PTR [esi], 0

; 1310 : 		this->_Mylast = 0;

  00029	83 66 04 00	 and	 DWORD PTR [esi+4], 0

; 1311 : 		this->_Myend = 0;

  0002d	83 66 08 00	 and	 DWORD PTR [esi+8], 0
  00031	5e		 pop	 esi

; 1312 : 		}

  00032	c3		 ret	 0
?_Tidy@?$vector@UWeaponInfo@@V?$allocator@UWeaponInfo@@@std@@@std@@IAEXXZ ENDP ; std::vector<WeaponInfo,std::allocator<WeaponInfo> >::_Tidy
_TEXT	ENDS
PUBLIC	??4?$vector@UForceInfo@@V?$allocator@UForceInfo@@@std@@@std@@QAEAAV01@ABV01@@Z ; std::vector<ForceInfo,std::allocator<ForceInfo> >::operator=
; Function compile flags: /Ogsp
;	COMDAT ??4?$vector@UForceInfo@@V?$allocator@UForceInfo@@@std@@@std@@QAEAAV01@ABV01@@Z
_TEXT	SEGMENT
tv551 = 8						; size = 4
__Cat$551428 = 8					; size = 1
__Cat$551324 = 8					; size = 1
__Cat$551302 = 8					; size = 1
__Cat$551204 = 8					; size = 1
$T551170 = 8						; size = 4
__Right$ = 8						; size = 4
??4?$vector@UForceInfo@@V?$allocator@UForceInfo@@@std@@@std@@QAEAAV01@ABV01@@Z PROC ; std::vector<ForceInfo,std::allocator<ForceInfo> >::operator=, COMDAT
; _this$ = ecx

; 709  : 		{	// assign _Right

  00000	55		 push	 ebp
  00001	8b ec		 mov	 ebp, esp
  00003	56		 push	 esi
  00004	57		 push	 edi

; 710  : 		if (this != &_Right)

  00005	8b 7d 08	 mov	 edi, DWORD PTR __Right$[ebp]
  00008	8b f1		 mov	 esi, ecx
  0000a	3b f7		 cmp	 esi, edi
  0000c	0f 84 e2 00 00
	00		 je	 $LN1@operator

; 711  : 			{	// worth doing
; 712  : 			this->_Orphan_all();

  00012	53		 push	 ebx
  00013	ff 15 00 00 00
	00		 call	 DWORD PTR __imp_?_Orphan_all@_Container_base0@std@@QAEXXZ

; 713  : 
; 714  : 			if (_Right.size() == 0)

  00019	8b 5f 04	 mov	 ebx, DWORD PTR [edi+4]
  0001c	8b c3		 mov	 eax, ebx
  0001e	2b 07		 sub	 eax, DWORD PTR [edi]
  00020	6a 0c		 push	 12			; 0000000cH
  00022	99		 cdq
  00023	59		 pop	 ecx
  00024	f7 f9		 idiv	 ecx
  00026	89 45 08	 mov	 DWORD PTR tv551[ebp], eax
  00029	85 c0		 test	 eax, eax

; 715  : 				clear();	// new sequence empty, erase existing sequence

  0002b	8b 46 04	 mov	 eax, DWORD PTR [esi+4]
  0002e	75 14		 jne	 SHORT $LN8@operator
  00030	8b 0e		 mov	 ecx, DWORD PTR [esi]
  00032	50		 push	 eax
  00033	51		 push	 ecx
  00034	8d 45 08	 lea	 eax, DWORD PTR $T551170[ebp]
  00037	50		 push	 eax
  00038	8b ce		 mov	 ecx, esi
  0003a	e8 00 00 00 00	 call	 ?erase@?$vector@UForceInfo@@V?$allocator@UForceInfo@@@std@@@std@@QAE?AV?$_Vector_iterator@V?$_Vector_val@UForceInfo@@V?$allocator@UForceInfo@@@std@@@std@@@2@V?$_Vector_const_iterator@V?$_Vector_val@UForceInfo@@V?$allocator@UForceInfo@@@std@@@std@@@2@0@Z ; std::vector<ForceInfo,std::allocator<ForceInfo> >::erase

; 716  : 			else if (_Right.size() <= size())

  0003f	e9 af 00 00 00	 jmp	 $LN106@operator
$LN8@operator:
  00044	2b 06		 sub	 eax, DWORD PTR [esi]
  00046	6a 0c		 push	 12			; 0000000cH
  00048	99		 cdq
  00049	59		 pop	 ecx
  0004a	f7 f9		 idiv	 ecx
  0004c	8b c8		 mov	 ecx, eax
  0004e	39 4d 08	 cmp	 DWORD PTR tv551[ebp], ecx
  00051	77 22		 ja	 SHORT $LN6@operator

; 717  : 				{	// enough elements, copy new and destroy old
; 718  : 				pointer _Ptr = _STD _Copy_impl(_Right._Myfirst, _Right._Mylast,
; 719  : 					this->_Myfirst);	// copy new

  00053	ff 75 08	 push	 DWORD PTR __Cat$551204[ebp]
  00056	ff 36		 push	 DWORD PTR [esi]
  00058	53		 push	 ebx
  00059	ff 37		 push	 DWORD PTR [edi]
  0005b	e8 00 00 00 00	 call	 ??$_Copy_impl@PAUForceInfo@@PAU1@@std@@YAPAUForceInfo@@PAU1@00U_Nonscalar_ptr_iterator_tag@0@@Z ; std::_Copy_impl<ForceInfo *,ForceInfo *>

; 720  : 				_Destroy(_Ptr, this->_Mylast);	// destroy old
; 721  : 				this->_Mylast = this->_Myfirst + _Right.size();

  00060	8b 47 04	 mov	 eax, DWORD PTR [edi+4]
  00063	2b 07		 sub	 eax, DWORD PTR [edi]
  00065	83 c4 10	 add	 esp, 16			; 00000010H
  00068	99		 cdq
  00069	6a 0c		 push	 12			; 0000000cH
  0006b	59		 pop	 ecx
  0006c	f7 f9		 idiv	 ecx
  0006e	6b c0 0c	 imul	 eax, 12			; 0000000cH
  00071	03 06		 add	 eax, DWORD PTR [esi]

; 722  : 				}
; 723  : 			else if (_Right.size() <= capacity())

  00073	eb 7b		 jmp	 SHORT $LN107@operator
$LN6@operator:
  00075	8b 46 08	 mov	 eax, DWORD PTR [esi+8]
  00078	2b 06		 sub	 eax, DWORD PTR [esi]
  0007a	6a 0c		 push	 12			; 0000000cH
  0007c	99		 cdq
  0007d	5b		 pop	 ebx
  0007e	f7 fb		 idiv	 ebx
  00080	39 45 08	 cmp	 DWORD PTR tv551[ebp], eax
  00083	77 2e		 ja	 SHORT $LN4@operator

; 724  : 				{	// enough room, copy and construct new
; 725  : 				pointer _Ptr = _Right._Myfirst + size();
; 726  : 				_STD _Copy_impl(_Right._Myfirst, _Ptr, this->_Myfirst);

  00085	ff 75 08	 push	 DWORD PTR __Cat$551302[ebp]
  00088	6b c9 0c	 imul	 ecx, 12			; 0000000cH
  0008b	8b 07		 mov	 eax, DWORD PTR [edi]
  0008d	ff 36		 push	 DWORD PTR [esi]
  0008f	8d 1c 08	 lea	 ebx, DWORD PTR [eax+ecx]
  00092	53		 push	 ebx
  00093	50		 push	 eax
  00094	e8 00 00 00 00	 call	 ??$_Copy_impl@PAUForceInfo@@PAU1@@std@@YAPAUForceInfo@@PAU1@00U_Nonscalar_ptr_iterator_tag@0@@Z ; std::_Copy_impl<ForceInfo *,ForceInfo *>

; 727  : 				this->_Mylast = _Ucopy(_Ptr, _Right._Mylast, this->_Mylast);

  00099	ff 75 08	 push	 DWORD PTR __Cat$551324[ebp]
  0009c	8b 46 04	 mov	 eax, DWORD PTR [esi+4]
  0009f	8b 7f 04	 mov	 edi, DWORD PTR [edi+4]
  000a2	8d 4e 0c	 lea	 ecx, DWORD PTR [esi+12]
  000a5	51		 push	 ecx
  000a6	50		 push	 eax
  000a7	57		 push	 edi
  000a8	53		 push	 ebx
  000a9	e8 00 00 00 00	 call	 ??$_Uninit_copy@PAUForceInfo@@PAU1@V?$allocator@UForceInfo@@@std@@@std@@YAPAUForceInfo@@PAU1@00AAV?$allocator@UForceInfo@@@0@U_Nonscalar_ptr_iterator_tag@0@@Z ; std::_Uninit_copy<ForceInfo *,ForceInfo *,std::allocator<ForceInfo> >
  000ae	83 c4 24	 add	 esp, 36			; 00000024H

; 728  : 				}
; 729  : 			else

  000b1	eb 3d		 jmp	 SHORT $LN107@operator
$LN4@operator:

; 730  : 				{	// not enough room, allocate new array and construct new
; 731  : 				if (this->_Myfirst != 0)

  000b3	8b 06		 mov	 eax, DWORD PTR [esi]
  000b5	85 c0		 test	 eax, eax
  000b7	74 07		 je	 SHORT $LN92@operator

; 732  : 					{	// discard old array
; 733  : 					_Destroy(this->_Myfirst, this->_Mylast);
; 734  : 					this->_Alval.deallocate(this->_Myfirst,
; 735  : 						this->_Myend - this->_Myfirst);

  000b9	50		 push	 eax
  000ba	e8 00 00 00 00	 call	 ??3@YAXPAX@Z		; operator delete
  000bf	59		 pop	 ecx
$LN92@operator:

; 736  : 					}
; 737  : 				if (_Buy(_Right.size()))

  000c0	8b 47 04	 mov	 eax, DWORD PTR [edi+4]
  000c3	2b 07		 sub	 eax, DWORD PTR [edi]
  000c5	6a 0c		 push	 12			; 0000000cH
  000c7	59		 pop	 ecx
  000c8	99		 cdq
  000c9	f7 f9		 idiv	 ecx
  000cb	8b ce		 mov	 ecx, esi
  000cd	50		 push	 eax
  000ce	e8 00 00 00 00	 call	 ?_Buy@?$vector@UForceInfo@@V?$allocator@UForceInfo@@@std@@@std@@IAE_NI@Z ; std::vector<ForceInfo,std::allocator<ForceInfo> >::_Buy
  000d3	84 c0		 test	 al, al
  000d5	74 1c		 je	 SHORT $LN106@operator

; 738  : 					this->_Mylast = _Ucopy(_Right._Myfirst, _Right._Mylast,
; 739  : 						this->_Myfirst);

  000d7	ff 75 08	 push	 DWORD PTR __Cat$551428[ebp]
  000da	8b 06		 mov	 eax, DWORD PTR [esi]
  000dc	8b 4f 04	 mov	 ecx, DWORD PTR [edi+4]
  000df	8b 3f		 mov	 edi, DWORD PTR [edi]
  000e1	8d 56 0c	 lea	 edx, DWORD PTR [esi+12]
  000e4	52		 push	 edx
  000e5	50		 push	 eax
  000e6	51		 push	 ecx
  000e7	57		 push	 edi
  000e8	e8 00 00 00 00	 call	 ??$_Uninit_copy@PAUForceInfo@@PAU1@V?$allocator@UForceInfo@@@std@@@std@@YAPAUForceInfo@@PAU1@00AAV?$allocator@UForceInfo@@@0@U_Nonscalar_ptr_iterator_tag@0@@Z ; std::_Uninit_copy<ForceInfo *,ForceInfo *,std::allocator<ForceInfo> >
  000ed	83 c4 14	 add	 esp, 20			; 00000014H
$LN107@operator:
  000f0	89 46 04	 mov	 DWORD PTR [esi+4], eax
$LN106@operator:
  000f3	5b		 pop	 ebx
$LN1@operator:
  000f4	5f		 pop	 edi

; 740  : 				}
; 741  : 			}
; 742  : 		return (*this);

  000f5	8b c6		 mov	 eax, esi
  000f7	5e		 pop	 esi

; 743  : 		}

  000f8	5d		 pop	 ebp
  000f9	c2 04 00	 ret	 4
??4?$vector@UForceInfo@@V?$allocator@UForceInfo@@@std@@@std@@QAEAAV01@ABV01@@Z ENDP ; std::vector<ForceInfo,std::allocator<ForceInfo> >::operator=
_TEXT	ENDS
PUBLIC	?clear@?$vector@UWeaponInfo@@V?$allocator@UWeaponInfo@@@std@@@std@@QAEXXZ ; std::vector<WeaponInfo,std::allocator<WeaponInfo> >::clear
; Function compile flags: /Ogsp
;	COMDAT ?clear@?$vector@UWeaponInfo@@V?$allocator@UWeaponInfo@@@std@@@std@@QAEXXZ
_TEXT	SEGMENT
$T551445 = -4						; size = 4
?clear@?$vector@UWeaponInfo@@V?$allocator@UWeaponInfo@@@std@@@std@@QAEXXZ PROC ; std::vector<WeaponInfo,std::allocator<WeaponInfo> >::clear, COMDAT
; _this$ = ecx

; 1217 : 		{	// erase all

  00000	55		 push	 ebp
  00001	8b ec		 mov	 ebp, esp
  00003	51		 push	 ecx

; 1218 : 		erase(begin(), end());

  00004	8b 41 04	 mov	 eax, DWORD PTR [ecx+4]
  00007	8b 11		 mov	 edx, DWORD PTR [ecx]
  00009	50		 push	 eax
  0000a	52		 push	 edx
  0000b	8d 45 fc	 lea	 eax, DWORD PTR $T551445[ebp]
  0000e	50		 push	 eax
  0000f	e8 00 00 00 00	 call	 ?erase@?$vector@UWeaponInfo@@V?$allocator@UWeaponInfo@@@std@@@std@@QAE?AV?$_Vector_iterator@V?$_Vector_val@UWeaponInfo@@V?$allocator@UWeaponInfo@@@std@@@std@@@2@V?$_Vector_const_iterator@V?$_Vector_val@UWeaponInfo@@V?$allocator@UWeaponInfo@@@std@@@std@@@2@0@Z ; std::vector<WeaponInfo,std::allocator<WeaponInfo> >::erase

; 1219 : 		}

  00014	c9		 leave
  00015	c3		 ret	 0
?clear@?$vector@UWeaponInfo@@V?$allocator@UWeaponInfo@@@std@@@std@@QAEXXZ ENDP ; std::vector<WeaponInfo,std::allocator<WeaponInfo> >::clear
_TEXT	ENDS
PUBLIC	??0?$vector@UWeaponInfo@@V?$allocator@UWeaponInfo@@@std@@@std@@QAE@ABV01@@Z ; std::vector<WeaponInfo,std::allocator<WeaponInfo> >::vector<WeaponInfo,std::allocator<WeaponInfo> >
;	COMDAT xdata$x
; File c:\program files (x86)\microsoft visual studio 10.0\vc\include\xutility
xdata$x	SEGMENT
__catchsym$??0?$vector@UWeaponInfo@@V?$allocator@UWeaponInfo@@@std@@@std@@QAE@ABV01@@Z$2 DD 040H
	DD	00H
	DD	00H
	DD	FLAT:__catch$??0?$vector@UWeaponInfo@@V?$allocator@UWeaponInfo@@@std@@@std@@QAE@ABV01@@Z$0
__unwindtable$??0?$vector@UWeaponInfo@@V?$allocator@UWeaponInfo@@@std@@@std@@QAE@ABV01@@Z DD 0ffffffffH
	DD	00H
	DD	0ffffffffH
	DD	00H
__tryblocktable$??0?$vector@UWeaponInfo@@V?$allocator@UWeaponInfo@@@std@@@std@@QAE@ABV01@@Z DD 00H
	DD	00H
	DD	01H
	DD	01H
	DD	FLAT:__catchsym$??0?$vector@UWeaponInfo@@V?$allocator@UWeaponInfo@@@std@@@std@@QAE@ABV01@@Z$2
__ehfuncinfo$??0?$vector@UWeaponInfo@@V?$allocator@UWeaponInfo@@@std@@@std@@QAE@ABV01@@Z DD 019930522H
	DD	02H
	DD	FLAT:__unwindtable$??0?$vector@UWeaponInfo@@V?$allocator@UWeaponInfo@@@std@@@std@@QAE@ABV01@@Z
	DD	01H
	DD	FLAT:__tryblocktable$??0?$vector@UWeaponInfo@@V?$allocator@UWeaponInfo@@@std@@@std@@QAE@ABV01@@Z
	DD	2 DUP(00H)
	DD	00H
	DD	01H
; Function compile flags: /Ogsp
; File c:\program files (x86)\microsoft visual studio 10.0\vc\include\vector
xdata$x	ENDS
;	COMDAT ??0?$vector@UWeaponInfo@@V?$allocator@UWeaponInfo@@@std@@@std@@QAE@ABV01@@Z
_TEXT	SEGMENT
_this$ = -20						; size = 4
__$EHRec$ = -16						; size = 16
__Cat$551576 = 8					; size = 1
__Right$ = 8						; size = 4
??0?$vector@UWeaponInfo@@V?$allocator@UWeaponInfo@@@std@@@std@@QAE@ABV01@@Z PROC ; std::vector<WeaponInfo,std::allocator<WeaponInfo> >::vector<WeaponInfo,std::allocator<WeaponInfo> >, COMDAT
; _this$ = ecx

; 535  : 		{	// construct by copying _Right

  00000	6a 08		 push	 8
  00002	b8 00 00 00 00	 mov	 eax, __ehhandler$??0?$vector@UWeaponInfo@@V?$allocator@UWeaponInfo@@@std@@@std@@QAE@ABV01@@Z
  00007	e8 00 00 00 00	 call	 __EH_prolog3_catch
  0000c	8b f1		 mov	 esi, ecx
  0000e	89 75 ec	 mov	 DWORD PTR _this$[ebp], esi

; 536  : 		if (_Buy(_Right.size()))

  00011	8b 7d 08	 mov	 edi, DWORD PTR __Right$[ebp]
  00014	33 db		 xor	 ebx, ebx
  00016	89 1e		 mov	 DWORD PTR [esi], ebx
  00018	89 5e 04	 mov	 DWORD PTR [esi+4], ebx
  0001b	89 5e 08	 mov	 DWORD PTR [esi+8], ebx
  0001e	8b 47 04	 mov	 eax, DWORD PTR [edi+4]
  00021	2b 07		 sub	 eax, DWORD PTR [edi]
  00023	6a 28		 push	 40			; 00000028H
  00025	59		 pop	 ecx
  00026	99		 cdq
  00027	f7 f9		 idiv	 ecx
  00029	8b ce		 mov	 ecx, esi
  0002b	50		 push	 eax
  0002c	e8 00 00 00 00	 call	 ?_Buy@?$vector@UWeaponInfo@@V?$allocator@UWeaponInfo@@@std@@@std@@IAE_NI@Z ; std::vector<WeaponInfo,std::allocator<WeaponInfo> >::_Buy
  00031	84 c0		 test	 al, al
  00033	74 1f		 je	 SHORT $LN7@vector@2

; 537  : 			_TRY_BEGIN
; 538  : 			this->_Mylast = _Ucopy(_Right.begin(), _Right.end(),
; 539  : 				this->_Myfirst);

  00035	ff 75 08	 push	 DWORD PTR __Cat$551576[ebp]
  00038	8b 0e		 mov	 ecx, DWORD PTR [esi]
  0003a	8b 47 04	 mov	 eax, DWORD PTR [edi+4]
  0003d	8b 3f		 mov	 edi, DWORD PTR [edi]
  0003f	8d 56 0c	 lea	 edx, DWORD PTR [esi+12]
  00042	52		 push	 edx
  00043	51		 push	 ecx
  00044	50		 push	 eax
  00045	57		 push	 edi
  00046	89 5d fc	 mov	 DWORD PTR __$EHRec$[ebp+12], ebx
  00049	e8 00 00 00 00	 call	 ??$_Uninit_copy@V?$_Vector_const_iterator@V?$_Vector_val@UWeaponInfo@@V?$allocator@UWeaponInfo@@@std@@@std@@@std@@PAUWeaponInfo@@V?$allocator@UWeaponInfo@@@2@@std@@YAPAUWeaponInfo@@V?$_Vector_const_iterator@V?$_Vector_val@UWeaponInfo@@V?$allocator@UWeaponInfo@@@std@@@std@@@0@0PAU1@AAV?$allocator@UWeaponInfo@@@0@U_Nonscalar_ptr_iterator_tag@0@@Z ; std::_Uninit_copy<std::_Vector_const_iterator<std::_Vector_val<WeaponInfo,std::allocator<WeaponInfo> > >,WeaponInfo *,std::allocator<WeaponInfo> >
  0004e	83 c4 14	 add	 esp, 20			; 00000014H
  00051	89 46 04	 mov	 DWORD PTR [esi+4], eax
$LN7@vector@2:

; 543  : 			_CATCH_END
; 544  : 		}

  00054	8b c6		 mov	 eax, esi
  00056	e8 00 00 00 00	 call	 __EH_epilog3
  0005b	c2 04 00	 ret	 4
__catch$??0?$vector@UWeaponInfo@@V?$allocator@UWeaponInfo@@@std@@@std@@QAE@ABV01@@Z$0:

; 540  : 			_CATCH_ALL
; 541  : 			_Tidy();

  0005e	8b 4d ec	 mov	 ecx, DWORD PTR _this$[ebp]
  00061	e8 00 00 00 00	 call	 ?_Tidy@?$vector@UWeaponInfo@@V?$allocator@UWeaponInfo@@@std@@@std@@IAEXXZ ; std::vector<WeaponInfo,std::allocator<WeaponInfo> >::_Tidy

; 542  : 			_RERAISE;

  00066	33 db		 xor	 ebx, ebx
  00068	53		 push	 ebx
  00069	53		 push	 ebx
  0006a	e8 00 00 00 00	 call	 __CxxThrowException@8
$LN38@vector@2:
$LN37@vector@2:
  0006f	cc		 int	 3
_TEXT	ENDS
;	COMDAT text$x
text$x	SEGMENT
__ehhandler$??0?$vector@UWeaponInfo@@V?$allocator@UWeaponInfo@@@std@@@std@@QAE@ABV01@@Z:
  00000	8b 54 24 08	 mov	 edx, DWORD PTR [esp+8]
  00004	8d 42 0c	 lea	 eax, DWORD PTR [edx+12]
  00007	8b 4a e8	 mov	 ecx, DWORD PTR [edx-24]
  0000a	33 c8		 xor	 ecx, eax
  0000c	e8 00 00 00 00	 call	 @__security_check_cookie@4
  00011	b8 00 00 00 00	 mov	 eax, OFFSET __ehfuncinfo$??0?$vector@UWeaponInfo@@V?$allocator@UWeaponInfo@@@std@@@std@@QAE@ABV01@@Z
  00016	e9 00 00 00 00	 jmp	 ___CxxFrameHandler3
text$x	ENDS
??0?$vector@UWeaponInfo@@V?$allocator@UWeaponInfo@@@std@@@std@@QAE@ABV01@@Z ENDP ; std::vector<WeaponInfo,std::allocator<WeaponInfo> >::vector<WeaponInfo,std::allocator<WeaponInfo> >
PUBLIC	??1?$vector@UWeaponInfo@@V?$allocator@UWeaponInfo@@@std@@@std@@QAE@XZ ; std::vector<WeaponInfo,std::allocator<WeaponInfo> >::~vector<WeaponInfo,std::allocator<WeaponInfo> >
; Function compile flags: /Ogsp
;	COMDAT ??1?$vector@UWeaponInfo@@V?$allocator@UWeaponInfo@@@std@@@std@@QAE@XZ
_TEXT	SEGMENT
??1?$vector@UWeaponInfo@@V?$allocator@UWeaponInfo@@@std@@@std@@QAE@XZ PROC ; std::vector<WeaponInfo,std::allocator<WeaponInfo> >::~vector<WeaponInfo,std::allocator<WeaponInfo> >, COMDAT
; _this$ = ecx

; 705  : 		_Tidy();

  00000	e9 00 00 00 00	 jmp	 ?_Tidy@?$vector@UWeaponInfo@@V?$allocator@UWeaponInfo@@@std@@@std@@IAEXXZ ; std::vector<WeaponInfo,std::allocator<WeaponInfo> >::_Tidy
??1?$vector@UWeaponInfo@@V?$allocator@UWeaponInfo@@@std@@@std@@QAE@XZ ENDP ; std::vector<WeaponInfo,std::allocator<WeaponInfo> >::~vector<WeaponInfo,std::allocator<WeaponInfo> >
_TEXT	ENDS
PUBLIC	??4?$vector@UWeaponInfo@@V?$allocator@UWeaponInfo@@@std@@@std@@QAEAAV01@ABV01@@Z ; std::vector<WeaponInfo,std::allocator<WeaponInfo> >::operator=
; Function compile flags: /Ogsp
;	COMDAT ??4?$vector@UWeaponInfo@@V?$allocator@UWeaponInfo@@@std@@@std@@QAEAAV01@ABV01@@Z
_TEXT	SEGMENT
tv551 = 8						; size = 4
__Cat$551789 = 8					; size = 1
__Cat$551752 = 8					; size = 1
__Cat$551730 = 8					; size = 1
__Cat$551699 = 8					; size = 1
$T551665 = 8						; size = 4
__Right$ = 8						; size = 4
??4?$vector@UWeaponInfo@@V?$allocator@UWeaponInfo@@@std@@@std@@QAEAAV01@ABV01@@Z PROC ; std::vector<WeaponInfo,std::allocator<WeaponInfo> >::operator=, COMDAT
; _this$ = ecx

; 709  : 		{	// assign _Right

  00000	55		 push	 ebp
  00001	8b ec		 mov	 ebp, esp
  00003	56		 push	 esi
  00004	57		 push	 edi

; 710  : 		if (this != &_Right)

  00005	8b 7d 08	 mov	 edi, DWORD PTR __Right$[ebp]
  00008	8b f1		 mov	 esi, ecx
  0000a	3b f7		 cmp	 esi, edi
  0000c	0f 84 03 01 00
	00		 je	 $LN1@operator@2

; 711  : 			{	// worth doing
; 712  : 			this->_Orphan_all();

  00012	ff 15 00 00 00
	00		 call	 DWORD PTR __imp_?_Orphan_all@_Container_base0@std@@QAEXXZ

; 713  : 
; 714  : 			if (_Right.size() == 0)

  00018	8b 47 04	 mov	 eax, DWORD PTR [edi+4]
  0001b	2b 07		 sub	 eax, DWORD PTR [edi]
  0001d	6a 28		 push	 40			; 00000028H
  0001f	99		 cdq
  00020	59		 pop	 ecx
  00021	f7 f9		 idiv	 ecx
  00023	89 45 08	 mov	 DWORD PTR tv551[ebp], eax
  00026	85 c0		 test	 eax, eax

; 715  : 				clear();	// new sequence empty, erase existing sequence

  00028	8b 46 04	 mov	 eax, DWORD PTR [esi+4]
  0002b	75 14		 jne	 SHORT $LN8@operator@2
  0002d	8b 0e		 mov	 ecx, DWORD PTR [esi]
  0002f	50		 push	 eax
  00030	51		 push	 ecx
  00031	8d 45 08	 lea	 eax, DWORD PTR $T551665[ebp]
  00034	50		 push	 eax
  00035	8b ce		 mov	 ecx, esi
  00037	e8 00 00 00 00	 call	 ?erase@?$vector@UWeaponInfo@@V?$allocator@UWeaponInfo@@@std@@@std@@QAE?AV?$_Vector_iterator@V?$_Vector_val@UWeaponInfo@@V?$allocator@UWeaponInfo@@@std@@@std@@@2@V?$_Vector_const_iterator@V?$_Vector_val@UWeaponInfo@@V?$allocator@UWeaponInfo@@@std@@@std@@@2@0@Z ; std::vector<WeaponInfo,std::allocator<WeaponInfo> >::erase

; 716  : 			else if (_Right.size() <= size())

  0003c	e9 d4 00 00 00	 jmp	 $LN1@operator@2
$LN8@operator@2:
  00041	53		 push	 ebx
  00042	8b 1e		 mov	 ebx, DWORD PTR [esi]
  00044	2b c3		 sub	 eax, ebx
  00046	6a 28		 push	 40			; 00000028H
  00048	99		 cdq
  00049	59		 pop	 ecx
  0004a	f7 f9		 idiv	 ecx
  0004c	8b c8		 mov	 ecx, eax
  0004e	39 4d 08	 cmp	 DWORD PTR tv551[ebp], ecx
  00051	77 33		 ja	 SHORT $LN6@operator@2

; 717  : 				{	// enough elements, copy new and destroy old
; 718  : 				pointer _Ptr = _STD _Copy_impl(_Right._Myfirst, _Right._Mylast,
; 719  : 					this->_Myfirst);	// copy new

  00053	ff 75 08	 push	 DWORD PTR __Cat$551699[ebp]
  00056	53		 push	 ebx
  00057	ff 77 04	 push	 DWORD PTR [edi+4]
  0005a	ff 37		 push	 DWORD PTR [edi]
  0005c	e8 00 00 00 00	 call	 ??$_Copy_impl@PAUWeaponInfo@@PAU1@@std@@YAPAUWeaponInfo@@PAU1@00U_Nonscalar_ptr_iterator_tag@0@@Z ; std::_Copy_impl<WeaponInfo *,WeaponInfo *>

; 720  : 				_Destroy(_Ptr, this->_Mylast);	// destroy old

  00061	8d 4e 0c	 lea	 ecx, DWORD PTR [esi+12]
  00064	51		 push	 ecx
  00065	ff 76 04	 push	 DWORD PTR [esi+4]
  00068	50		 push	 eax
  00069	e8 00 00 00 00	 call	 ??$_Destroy_range@V?$allocator@UWeaponInfo@@@std@@@std@@YAXPAUWeaponInfo@@0AAV?$allocator@UWeaponInfo@@@0@@Z ; std::_Destroy_range<std::allocator<WeaponInfo> >

; 721  : 				this->_Mylast = this->_Myfirst + _Right.size();

  0006e	8b 47 04	 mov	 eax, DWORD PTR [edi+4]
  00071	2b 07		 sub	 eax, DWORD PTR [edi]
  00073	83 c4 1c	 add	 esp, 28			; 0000001cH
  00076	99		 cdq
  00077	6a 28		 push	 40			; 00000028H
  00079	59		 pop	 ecx
  0007a	f7 f9		 idiv	 ecx
  0007c	6b c0 28	 imul	 eax, 40			; 00000028H
  0007f	03 06		 add	 eax, DWORD PTR [esi]

; 722  : 				}
; 723  : 			else if (_Right.size() <= capacity())

  00081	e9 8b 00 00 00	 jmp	 $LN73@operator@2
$LN6@operator@2:
  00086	8b 46 08	 mov	 eax, DWORD PTR [esi+8]
  00089	2b c3		 sub	 eax, ebx
  0008b	6a 28		 push	 40			; 00000028H
  0008d	99		 cdq
  0008e	5b		 pop	 ebx
  0008f	f7 fb		 idiv	 ebx
  00091	39 45 08	 cmp	 DWORD PTR tv551[ebp], eax
  00094	77 2e		 ja	 SHORT $LN4@operator@2

; 724  : 				{	// enough room, copy and construct new
; 725  : 				pointer _Ptr = _Right._Myfirst + size();
; 726  : 				_STD _Copy_impl(_Right._Myfirst, _Ptr, this->_Myfirst);

  00096	ff 75 08	 push	 DWORD PTR __Cat$551730[ebp]
  00099	6b c9 28	 imul	 ecx, 40			; 00000028H
  0009c	8b 07		 mov	 eax, DWORD PTR [edi]
  0009e	ff 36		 push	 DWORD PTR [esi]
  000a0	8d 1c 08	 lea	 ebx, DWORD PTR [eax+ecx]
  000a3	53		 push	 ebx
  000a4	50		 push	 eax
  000a5	e8 00 00 00 00	 call	 ??$_Copy_impl@PAUWeaponInfo@@PAU1@@std@@YAPAUWeaponInfo@@PAU1@00U_Nonscalar_ptr_iterator_tag@0@@Z ; std::_Copy_impl<WeaponInfo *,WeaponInfo *>

; 727  : 				this->_Mylast = _Ucopy(_Ptr, _Right._Mylast, this->_Mylast);

  000aa	ff 75 08	 push	 DWORD PTR __Cat$551752[ebp]
  000ad	8b 46 04	 mov	 eax, DWORD PTR [esi+4]
  000b0	8b 7f 04	 mov	 edi, DWORD PTR [edi+4]
  000b3	8d 4e 0c	 lea	 ecx, DWORD PTR [esi+12]
  000b6	51		 push	 ecx
  000b7	50		 push	 eax
  000b8	57		 push	 edi
  000b9	53		 push	 ebx
  000ba	e8 00 00 00 00	 call	 ??$_Uninit_copy@PAUWeaponInfo@@PAU1@V?$allocator@UWeaponInfo@@@std@@@std@@YAPAUWeaponInfo@@PAU1@00AAV?$allocator@UWeaponInfo@@@0@U_Nonscalar_ptr_iterator_tag@0@@Z ; std::_Uninit_copy<WeaponInfo *,WeaponInfo *,std::allocator<WeaponInfo> >
  000bf	83 c4 24	 add	 esp, 36			; 00000024H

; 728  : 				}
; 729  : 			else

  000c2	eb 4d		 jmp	 SHORT $LN73@operator@2
$LN4@operator@2:

; 730  : 				{	// not enough room, allocate new array and construct new
; 731  : 				if (this->_Myfirst != 0)

  000c4	8b 06		 mov	 eax, DWORD PTR [esi]
  000c6	85 c0		 test	 eax, eax
  000c8	74 17		 je	 SHORT $LN62@operator@2

; 732  : 					{	// discard old array
; 733  : 					_Destroy(this->_Myfirst, this->_Mylast);

  000ca	8d 4e 0c	 lea	 ecx, DWORD PTR [esi+12]
  000cd	51		 push	 ecx
  000ce	ff 76 04	 push	 DWORD PTR [esi+4]
  000d1	50		 push	 eax
  000d2	e8 00 00 00 00	 call	 ??$_Destroy_range@V?$allocator@UWeaponInfo@@@std@@@std@@YAXPAUWeaponInfo@@0AAV?$allocator@UWeaponInfo@@@0@@Z ; std::_Destroy_range<std::allocator<WeaponInfo> >

; 734  : 					this->_Alval.deallocate(this->_Myfirst,
; 735  : 						this->_Myend - this->_Myfirst);

  000d7	ff 36		 push	 DWORD PTR [esi]
  000d9	e8 00 00 00 00	 call	 ??3@YAXPAX@Z		; operator delete
  000de	83 c4 10	 add	 esp, 16			; 00000010H
$LN62@operator@2:

; 736  : 					}
; 737  : 				if (_Buy(_Right.size()))

  000e1	8b 47 04	 mov	 eax, DWORD PTR [edi+4]
  000e4	2b 07		 sub	 eax, DWORD PTR [edi]
  000e6	6a 28		 push	 40			; 00000028H
  000e8	59		 pop	 ecx
  000e9	99		 cdq
  000ea	f7 f9		 idiv	 ecx
  000ec	8b ce		 mov	 ecx, esi
  000ee	50		 push	 eax
  000ef	e8 00 00 00 00	 call	 ?_Buy@?$vector@UWeaponInfo@@V?$allocator@UWeaponInfo@@@std@@@std@@IAE_NI@Z ; std::vector<WeaponInfo,std::allocator<WeaponInfo> >::_Buy
  000f4	84 c0		 test	 al, al
  000f6	74 1c		 je	 SHORT $LN72@operator@2

; 738  : 					this->_Mylast = _Ucopy(_Right._Myfirst, _Right._Mylast,
; 739  : 						this->_Myfirst);

  000f8	ff 75 08	 push	 DWORD PTR __Cat$551789[ebp]
  000fb	8b 06		 mov	 eax, DWORD PTR [esi]
  000fd	8b 4f 04	 mov	 ecx, DWORD PTR [edi+4]
  00100	8b 3f		 mov	 edi, DWORD PTR [edi]
  00102	8d 56 0c	 lea	 edx, DWORD PTR [esi+12]
  00105	52		 push	 edx
  00106	50		 push	 eax
  00107	51		 push	 ecx
  00108	57		 push	 edi
  00109	e8 00 00 00 00	 call	 ??$_Uninit_copy@PAUWeaponInfo@@PAU1@V?$allocator@UWeaponInfo@@@std@@@std@@YAPAUWeaponInfo@@PAU1@00AAV?$allocator@UWeaponInfo@@@0@U_Nonscalar_ptr_iterator_tag@0@@Z ; std::_Uninit_copy<WeaponInfo *,WeaponInfo *,std::allocator<WeaponInfo> >
  0010e	83 c4 14	 add	 esp, 20			; 00000014H
$LN73@operator@2:
  00111	89 46 04	 mov	 DWORD PTR [esi+4], eax
$LN72@operator@2:
  00114	5b		 pop	 ebx
$LN1@operator@2:
  00115	5f		 pop	 edi

; 740  : 				}
; 741  : 			}
; 742  : 		return (*this);

  00116	8b c6		 mov	 eax, esi
  00118	5e		 pop	 esi

; 743  : 		}

  00119	5d		 pop	 ebp
  0011a	c2 04 00	 ret	 4
??4?$vector@UWeaponInfo@@V?$allocator@UWeaponInfo@@@std@@@std@@QAEAAV01@ABV01@@Z ENDP ; std::vector<WeaponInfo,std::allocator<WeaponInfo> >::operator=
_TEXT	ENDS
PUBLIC	??0AttackAttribute@@QAE@ABU0@@Z			; AttackAttribute::AttackAttribute
;	COMDAT xdata$x
xdata$x	SEGMENT
__unwindtable$??0AttackAttribute@@QAE@ABU0@@Z DD 0ffffffffH
	DD	FLAT:__unwindfunclet$??0AttackAttribute@@QAE@ABU0@@Z$0
	DD	00H
	DD	FLAT:__unwindfunclet$??0AttackAttribute@@QAE@ABU0@@Z$1
	DD	01H
	DD	FLAT:__unwindfunclet$??0AttackAttribute@@QAE@ABU0@@Z$2
__ehfuncinfo$??0AttackAttribute@@QAE@ABU0@@Z DD 019930522H
	DD	03H
	DD	FLAT:__unwindtable$??0AttackAttribute@@QAE@ABU0@@Z
	DD	2 DUP(00H)
	DD	2 DUP(00H)
	DD	00H
	DD	01H
; Function compile flags: /Ogsp
xdata$x	ENDS
;	COMDAT ??0AttackAttribute@@QAE@ABU0@@Z
_TEXT	SEGMENT
_this$ = -16						; size = 4
__$EHRec$ = -12						; size = 12
___that$ = 8						; size = 4
??0AttackAttribute@@QAE@ABU0@@Z PROC			; AttackAttribute::AttackAttribute, COMDAT
; _this$ = ecx
  00000	6a 04		 push	 4
  00002	b8 00 00 00 00	 mov	 eax, __ehhandler$??0AttackAttribute@@QAE@ABU0@@Z
  00007	e8 00 00 00 00	 call	 __EH_prolog3
  0000c	8b f1		 mov	 esi, ecx
  0000e	89 75 f0	 mov	 DWORD PTR _this$[ebp], esi
  00011	8b 7d 08	 mov	 edi, DWORD PTR ___that$[ebp]
  00014	8b 1d 00 00 00
	00		 mov	 ebx, DWORD PTR __imp_??0ioHashString@@QAE@ABV0@@Z
  0001a	57		 push	 edi
  0001b	ff d3		 call	 ebx
  0001d	d9 47 10	 fld	 DWORD PTR [edi+16]
  00020	83 65 fc 00	 and	 DWORD PTR __$EHRec$[ebp+8], 0
  00024	d9 5e 10	 fstp	 DWORD PTR [esi+16]
  00027	8d 47 14	 lea	 eax, DWORD PTR [edi+20]
  0002a	50		 push	 eax
  0002b	8d 4e 14	 lea	 ecx, DWORD PTR [esi+20]
  0002e	ff d3		 call	 ebx
  00030	d9 47 24	 fld	 DWORD PTR [edi+36]
  00033	8d 47 28	 lea	 eax, DWORD PTR [edi+40]
  00036	d9 5e 24	 fstp	 DWORD PTR [esi+36]
  00039	50		 push	 eax
  0003a	8d 4e 28	 lea	 ecx, DWORD PTR [esi+40]
  0003d	c6 45 fc 01	 mov	 BYTE PTR __$EHRec$[ebp+8], 1
  00041	e8 00 00 00 00	 call	 ??0?$vector@UWeaponInfo@@V?$allocator@UWeaponInfo@@@std@@@std@@QAE@ABV01@@Z ; std::vector<WeaponInfo,std::allocator<WeaponInfo> >::vector<WeaponInfo,std::allocator<WeaponInfo> >
  00046	8d 47 38	 lea	 eax, DWORD PTR [edi+56]
  00049	50		 push	 eax
  0004a	8d 4e 38	 lea	 ecx, DWORD PTR [esi+56]
  0004d	c6 45 fc 02	 mov	 BYTE PTR __$EHRec$[ebp+8], 2
  00051	e8 00 00 00 00	 call	 ??0?$vector@UForceInfo@@V?$allocator@UForceInfo@@@std@@@std@@QAE@ABV01@@Z ; std::vector<ForceInfo,std::allocator<ForceInfo> >::vector<ForceInfo,std::allocator<ForceInfo> >
  00056	8b 47 48	 mov	 eax, DWORD PTR [edi+72]
  00059	89 46 48	 mov	 DWORD PTR [esi+72], eax
  0005c	8b 47 4c	 mov	 eax, DWORD PTR [edi+76]
  0005f	89 46 4c	 mov	 DWORD PTR [esi+76], eax
  00062	8b c6		 mov	 eax, esi
  00064	e8 00 00 00 00	 call	 __EH_epilog3
  00069	c2 04 00	 ret	 4
_TEXT	ENDS
;	COMDAT text$x
text$x	SEGMENT
__unwindfunclet$??0AttackAttribute@@QAE@ABU0@@Z$0:
  00000	8b 4d f0	 mov	 ecx, DWORD PTR _this$[ebp]
  00003	ff 25 00 00 00
	00		 jmp	 DWORD PTR __imp_??1ioHashString@@QAE@XZ
__unwindfunclet$??0AttackAttribute@@QAE@ABU0@@Z$1:
  00009	8b 4d f0	 mov	 ecx, DWORD PTR _this$[ebp]
  0000c	83 c1 14	 add	 ecx, 20			; 00000014H
  0000f	ff 25 00 00 00
	00		 jmp	 DWORD PTR __imp_??1ioHashString@@QAE@XZ
__unwindfunclet$??0AttackAttribute@@QAE@ABU0@@Z$2:
  00015	8b 4d f0	 mov	 ecx, DWORD PTR _this$[ebp]
  00018	83 c1 28	 add	 ecx, 40			; 00000028H
  0001b	e9 00 00 00 00	 jmp	 ??1?$vector@UWeaponInfo@@V?$allocator@UWeaponInfo@@@std@@@std@@QAE@XZ ; std::vector<WeaponInfo,std::allocator<WeaponInfo> >::~vector<WeaponInfo,std::allocator<WeaponInfo> >
__ehhandler$??0AttackAttribute@@QAE@ABU0@@Z:
  00020	8b 54 24 08	 mov	 edx, DWORD PTR [esp+8]
  00024	8d 42 0c	 lea	 eax, DWORD PTR [edx+12]
  00027	8b 4a ec	 mov	 ecx, DWORD PTR [edx-20]
  0002a	33 c8		 xor	 ecx, eax
  0002c	e8 00 00 00 00	 call	 @__security_check_cookie@4
  00031	b8 00 00 00 00	 mov	 eax, OFFSET __ehfuncinfo$??0AttackAttribute@@QAE@ABU0@@Z
  00036	e9 00 00 00 00	 jmp	 ___CxxFrameHandler3
text$x	ENDS
??0AttackAttribute@@QAE@ABU0@@Z ENDP			; AttackAttribute::AttackAttribute
PUBLIC	??0AttackAttribute@@QAE@XZ			; AttackAttribute::AttackAttribute
EXTRN	?Init@AttackAttribute@@QAEXXZ:PROC		; AttackAttribute::Init
;	COMDAT xdata$x
; File c:\program files (x86)\microsoft visual studio 10.0\vc\include\xmemory
xdata$x	SEGMENT
__unwindtable$??0AttackAttribute@@QAE@XZ DD 0ffffffffH
	DD	FLAT:__unwindfunclet$??0AttackAttribute@@QAE@XZ$0
	DD	00H
	DD	FLAT:__unwindfunclet$??0AttackAttribute@@QAE@XZ$1
	DD	01H
	DD	FLAT:__unwindfunclet$??0AttackAttribute@@QAE@XZ$2
	DD	02H
	DD	FLAT:__unwindfunclet$??0AttackAttribute@@QAE@XZ$3
__ehfuncinfo$??0AttackAttribute@@QAE@XZ DD 019930522H
	DD	04H
	DD	FLAT:__unwindtable$??0AttackAttribute@@QAE@XZ
	DD	2 DUP(00H)
	DD	2 DUP(00H)
	DD	00H
	DD	01H
; Function compile flags: /Ogsp
; File d:\lost saga for developer\youtube\tutorial\source\src\lsclient\ioattackattribute.h
xdata$x	ENDS
;	COMDAT ??0AttackAttribute@@QAE@XZ
_TEXT	SEGMENT
_this$ = -16						; size = 4
__$EHRec$ = -12						; size = 12
??0AttackAttribute@@QAE@XZ PROC				; AttackAttribute::AttackAttribute, COMDAT
; _this$ = ecx

; 107  : 	AttackAttribute()

  00000	6a 04		 push	 4
  00002	b8 00 00 00 00	 mov	 eax, __ehhandler$??0AttackAttribute@@QAE@XZ
  00007	e8 00 00 00 00	 call	 __EH_prolog3
  0000c	8b f1		 mov	 esi, ecx
  0000e	89 75 f0	 mov	 DWORD PTR _this$[ebp], esi
  00011	8b 3d 00 00 00
	00		 mov	 edi, DWORD PTR __imp_??0ioHashString@@QAE@XZ
  00017	ff d7		 call	 edi
  00019	33 db		 xor	 ebx, ebx
  0001b	8d 4e 14	 lea	 ecx, DWORD PTR [esi+20]
  0001e	89 5d fc	 mov	 DWORD PTR __$EHRec$[ebp+8], ebx
  00021	ff d7		 call	 edi
  00023	89 5e 28	 mov	 DWORD PTR [esi+40], ebx
  00026	89 5e 2c	 mov	 DWORD PTR [esi+44], ebx
  00029	89 5e 30	 mov	 DWORD PTR [esi+48], ebx
  0002c	89 5e 38	 mov	 DWORD PTR [esi+56], ebx
  0002f	89 5e 3c	 mov	 DWORD PTR [esi+60], ebx
  00032	89 5e 40	 mov	 DWORD PTR [esi+64], ebx

; 108  : 	{
; 109  : 		Init();

  00035	8b ce		 mov	 ecx, esi
  00037	c6 45 fc 03	 mov	 BYTE PTR __$EHRec$[ebp+8], 3
  0003b	e8 00 00 00 00	 call	 ?Init@AttackAttribute@@QAEXXZ ; AttackAttribute::Init

; 110  : 	}

  00040	8b c6		 mov	 eax, esi
  00042	e8 00 00 00 00	 call	 __EH_epilog3
  00047	c3		 ret	 0
_TEXT	ENDS
;	COMDAT text$x
text$x	SEGMENT
__unwindfunclet$??0AttackAttribute@@QAE@XZ$0:
  00000	8b 4d f0	 mov	 ecx, DWORD PTR _this$[ebp]
  00003	ff 25 00 00 00
	00		 jmp	 DWORD PTR __imp_??1ioHashString@@QAE@XZ
__unwindfunclet$??0AttackAttribute@@QAE@XZ$1:
  00009	8b 4d f0	 mov	 ecx, DWORD PTR _this$[ebp]
  0000c	83 c1 14	 add	 ecx, 20			; 00000014H
  0000f	ff 25 00 00 00
	00		 jmp	 DWORD PTR __imp_??1ioHashString@@QAE@XZ
__unwindfunclet$??0AttackAttribute@@QAE@XZ$2:
  00015	8b 4d f0	 mov	 ecx, DWORD PTR _this$[ebp]
  00018	83 c1 28	 add	 ecx, 40			; 00000028H
  0001b	e9 00 00 00 00	 jmp	 ??1?$vector@UWeaponInfo@@V?$allocator@UWeaponInfo@@@std@@@std@@QAE@XZ ; std::vector<WeaponInfo,std::allocator<WeaponInfo> >::~vector<WeaponInfo,std::allocator<WeaponInfo> >
__unwindfunclet$??0AttackAttribute@@QAE@XZ$3:
  00020	8b 4d f0	 mov	 ecx, DWORD PTR _this$[ebp]
  00023	83 c1 38	 add	 ecx, 56			; 00000038H
  00026	e9 00 00 00 00	 jmp	 ??1?$vector@UForceInfo@@V?$allocator@UForceInfo@@@std@@@std@@QAE@XZ ; std::vector<ForceInfo,std::allocator<ForceInfo> >::~vector<ForceInfo,std::allocator<ForceInfo> >
__ehhandler$??0AttackAttribute@@QAE@XZ:
  0002b	8b 54 24 08	 mov	 edx, DWORD PTR [esp+8]
  0002f	8d 42 0c	 lea	 eax, DWORD PTR [edx+12]
  00032	8b 4a ec	 mov	 ecx, DWORD PTR [edx-20]
  00035	33 c8		 xor	 ecx, eax
  00037	e8 00 00 00 00	 call	 @__security_check_cookie@4
  0003c	b8 00 00 00 00	 mov	 eax, OFFSET __ehfuncinfo$??0AttackAttribute@@QAE@XZ
  00041	e9 00 00 00 00	 jmp	 ___CxxFrameHandler3
text$x	ENDS
??0AttackAttribute@@QAE@XZ ENDP				; AttackAttribute::AttackAttribute
PUBLIC	??1AttackAttribute@@QAE@XZ			; AttackAttribute::~AttackAttribute
;	COMDAT xdata$x
xdata$x	SEGMENT
__unwindtable$??1AttackAttribute@@QAE@XZ DD 0ffffffffH
	DD	FLAT:__unwindfunclet$??1AttackAttribute@@QAE@XZ$0
	DD	00H
	DD	FLAT:__unwindfunclet$??1AttackAttribute@@QAE@XZ$1
	DD	01H
	DD	FLAT:__unwindfunclet$??1AttackAttribute@@QAE@XZ$2
__ehfuncinfo$??1AttackAttribute@@QAE@XZ DD 019930522H
	DD	03H
	DD	FLAT:__unwindtable$??1AttackAttribute@@QAE@XZ
	DD	2 DUP(00H)
	DD	2 DUP(00H)
	DD	00H
	DD	01H
; Function compile flags: /Ogsp
xdata$x	ENDS
;	COMDAT ??1AttackAttribute@@QAE@XZ
_TEXT	SEGMENT
_this$ = -16						; size = 4
__$EHRec$ = -12						; size = 12
??1AttackAttribute@@QAE@XZ PROC				; AttackAttribute::~AttackAttribute, COMDAT
; _this$ = ecx
  00000	6a 04		 push	 4
  00002	b8 00 00 00 00	 mov	 eax, __ehhandler$??1AttackAttribute@@QAE@XZ
  00007	e8 00 00 00 00	 call	 __EH_prolog3
  0000c	8b f1		 mov	 esi, ecx
  0000e	89 75 f0	 mov	 DWORD PTR _this$[ebp], esi
  00011	8d 4e 38	 lea	 ecx, DWORD PTR [esi+56]
  00014	c7 45 fc 02 00
	00 00		 mov	 DWORD PTR __$EHRec$[ebp+8], 2
  0001b	e8 00 00 00 00	 call	 ?_Tidy@?$vector@UForceInfo@@V?$allocator@UForceInfo@@@std@@@std@@IAEXXZ ; std::vector<ForceInfo,std::allocator<ForceInfo> >::_Tidy
  00020	8d 4e 28	 lea	 ecx, DWORD PTR [esi+40]
  00023	c6 45 fc 01	 mov	 BYTE PTR __$EHRec$[ebp+8], 1
  00027	e8 00 00 00 00	 call	 ?_Tidy@?$vector@UWeaponInfo@@V?$allocator@UWeaponInfo@@@std@@@std@@IAEXXZ ; std::vector<WeaponInfo,std::allocator<WeaponInfo> >::_Tidy
  0002c	8b 3d 00 00 00
	00		 mov	 edi, DWORD PTR __imp_??1ioHashString@@QAE@XZ
  00032	8d 4e 14	 lea	 ecx, DWORD PTR [esi+20]
  00035	c6 45 fc 00	 mov	 BYTE PTR __$EHRec$[ebp+8], 0
  00039	ff d7		 call	 edi
  0003b	83 4d fc ff	 or	 DWORD PTR __$EHRec$[ebp+8], -1
  0003f	8b ce		 mov	 ecx, esi
  00041	ff d7		 call	 edi
  00043	e8 00 00 00 00	 call	 __EH_epilog3
  00048	c3		 ret	 0
_TEXT	ENDS
;	COMDAT text$x
text$x	SEGMENT
__unwindfunclet$??1AttackAttribute@@QAE@XZ$0:
  00000	8b 4d f0	 mov	 ecx, DWORD PTR _this$[ebp]
  00003	ff 25 00 00 00
	00		 jmp	 DWORD PTR __imp_??1ioHashString@@QAE@XZ
__unwindfunclet$??1AttackAttribute@@QAE@XZ$1:
  00009	8b 4d f0	 mov	 ecx, DWORD PTR _this$[ebp]
  0000c	83 c1 14	 add	 ecx, 20			; 00000014H
  0000f	ff 25 00 00 00
	00		 jmp	 DWORD PTR __imp_??1ioHashString@@QAE@XZ
__unwindfunclet$??1AttackAttribute@@QAE@XZ$2:
  00015	8b 4d f0	 mov	 ecx, DWORD PTR _this$[ebp]
  00018	83 c1 28	 add	 ecx, 40			; 00000028H
  0001b	e9 00 00 00 00	 jmp	 ??1?$vector@UWeaponInfo@@V?$allocator@UWeaponInfo@@@std@@@std@@QAE@XZ ; std::vector<WeaponInfo,std::allocator<WeaponInfo> >::~vector<WeaponInfo,std::allocator<WeaponInfo> >
__ehhandler$??1AttackAttribute@@QAE@XZ:
  00020	8b 54 24 08	 mov	 edx, DWORD PTR [esp+8]
  00024	8d 42 0c	 lea	 eax, DWORD PTR [edx+12]
  00027	8b 4a ec	 mov	 ecx, DWORD PTR [edx-20]
  0002a	33 c8		 xor	 ecx, eax
  0002c	e8 00 00 00 00	 call	 @__security_check_cookie@4
  00031	b8 00 00 00 00	 mov	 eax, OFFSET __ehfuncinfo$??1AttackAttribute@@QAE@XZ
  00036	e9 00 00 00 00	 jmp	 ___CxxFrameHandler3
text$x	ENDS
??1AttackAttribute@@QAE@XZ ENDP				; AttackAttribute::~AttackAttribute
PUBLIC	??0tagSummonAttackInfo@@QAE@XZ			; tagSummonAttackInfo::tagSummonAttackInfo
;	COMDAT xdata$x
; File d:\lost saga for developer\youtube\tutorial\source\src\lsclient\ioweaponitem.h
xdata$x	SEGMENT
__unwindtable$??0tagSummonAttackInfo@@QAE@XZ DD 0ffffffffH
	DD	FLAT:__unwindfunclet$??0tagSummonAttackInfo@@QAE@XZ$0
	DD	00H
	DD	FLAT:__unwindfunclet$??0tagSummonAttackInfo@@QAE@XZ$1
	DD	01H
	DD	FLAT:__unwindfunclet$??0tagSummonAttackInfo@@QAE@XZ$2
__ehfuncinfo$??0tagSummonAttackInfo@@QAE@XZ DD 019930522H
	DD	03H
	DD	FLAT:__unwindtable$??0tagSummonAttackInfo@@QAE@XZ
	DD	2 DUP(00H)
	DD	2 DUP(00H)
	DD	00H
	DD	01H
; Function compile flags: /Ogsp
xdata$x	ENDS
;	COMDAT ??0tagSummonAttackInfo@@QAE@XZ
_TEXT	SEGMENT
_this$ = -16						; size = 4
__$EHRec$ = -12						; size = 12
??0tagSummonAttackInfo@@QAE@XZ PROC			; tagSummonAttackInfo::tagSummonAttackInfo, COMDAT
; _this$ = ecx

; 16   : 	tagSummonAttackInfo()

  00000	6a 04		 push	 4
  00002	b8 00 00 00 00	 mov	 eax, __ehhandler$??0tagSummonAttackInfo@@QAE@XZ
  00007	e8 00 00 00 00	 call	 __EH_prolog3
  0000c	8b f1		 mov	 esi, ecx
  0000e	89 75 f0	 mov	 DWORD PTR _this$[ebp], esi
  00011	8b 3d 00 00 00
	00		 mov	 edi, DWORD PTR __imp_??0ioHashString@@QAE@XZ
  00017	8d 4e 04	 lea	 ecx, DWORD PTR [esi+4]
  0001a	ff d7		 call	 edi
  0001c	83 65 fc 00	 and	 DWORD PTR __$EHRec$[ebp+8], 0
  00020	8d 4e 14	 lea	 ecx, DWORD PTR [esi+20]
  00023	ff d7		 call	 edi
  00025	8d 4e 24	 lea	 ecx, DWORD PTR [esi+36]
  00028	c6 45 fc 01	 mov	 BYTE PTR __$EHRec$[ebp+8], 1
  0002c	e8 00 00 00 00	 call	 ??0AttackAttribute@@QAE@XZ ; AttackAttribute::AttackAttribute

; 17   : 	{
; 18   : 		m_dwCreateTime = 0;

  00031	83 26 00	 and	 DWORD PTR [esi], 0

; 19   : 		m_SummonAttribute.Init();

  00034	8d 4e 24	 lea	 ecx, DWORD PTR [esi+36]
  00037	c6 45 fc 02	 mov	 BYTE PTR __$EHRec$[ebp+8], 2
  0003b	e8 00 00 00 00	 call	 ?Init@AttackAttribute@@QAEXXZ ; AttackAttribute::Init

; 20   : 	}

  00040	8b c6		 mov	 eax, esi
  00042	e8 00 00 00 00	 call	 __EH_epilog3
  00047	c3		 ret	 0
_TEXT	ENDS
;	COMDAT text$x
text$x	SEGMENT
__unwindfunclet$??0tagSummonAttackInfo@@QAE@XZ$0:
  00000	8b 4d f0	 mov	 ecx, DWORD PTR _this$[ebp]
  00003	83 c1 04	 add	 ecx, 4
  00006	ff 25 00 00 00
	00		 jmp	 DWORD PTR __imp_??1ioHashString@@QAE@XZ
__unwindfunclet$??0tagSummonAttackInfo@@QAE@XZ$1:
  0000c	8b 4d f0	 mov	 ecx, DWORD PTR _this$[ebp]
  0000f	83 c1 14	 add	 ecx, 20			; 00000014H
  00012	ff 25 00 00 00
	00		 jmp	 DWORD PTR __imp_??1ioHashString@@QAE@XZ
__unwindfunclet$??0tagSummonAttackInfo@@QAE@XZ$2:
  00018	8b 4d f0	 mov	 ecx, DWORD PTR _this$[ebp]
  0001b	83 c1 24	 add	 ecx, 36			; 00000024H
  0001e	e9 00 00 00 00	 jmp	 ??1AttackAttribute@@QAE@XZ
__ehhandler$??0tagSummonAttackInfo@@QAE@XZ:
  00023	8b 54 24 08	 mov	 edx, DWORD PTR [esp+8]
  00027	8d 42 0c	 lea	 eax, DWORD PTR [edx+12]
  0002a	8b 4a ec	 mov	 ecx, DWORD PTR [edx-20]
  0002d	33 c8		 xor	 ecx, eax
  0002f	e8 00 00 00 00	 call	 @__security_check_cookie@4
  00034	b8 00 00 00 00	 mov	 eax, OFFSET __ehfuncinfo$??0tagSummonAttackInfo@@QAE@XZ
  00039	e9 00 00 00 00	 jmp	 ___CxxFrameHandler3
text$x	ENDS
??0tagSummonAttackInfo@@QAE@XZ ENDP			; tagSummonAttackInfo::tagSummonAttackInfo
PUBLIC	??4AttackAttribute@@QAEAAU0@ABU0@@Z		; AttackAttribute::operator=
; Function compile flags: /Ogsp
;	COMDAT ??4AttackAttribute@@QAEAAU0@ABU0@@Z
_TEXT	SEGMENT
___that$ = 8						; size = 4
??4AttackAttribute@@QAEAAU0@ABU0@@Z PROC		; AttackAttribute::operator=, COMDAT
; _this$ = ecx
  00000	55		 push	 ebp
  00001	8b ec		 mov	 ebp, esp
  00003	53		 push	 ebx
  00004	8b 1d 00 00 00
	00		 mov	 ebx, DWORD PTR __imp_??4ioHashString@@QAEAAV0@ABV0@@Z
  0000a	56		 push	 esi
  0000b	57		 push	 edi
  0000c	8b 7d 08	 mov	 edi, DWORD PTR ___that$[ebp]
  0000f	57		 push	 edi
  00010	8b f1		 mov	 esi, ecx
  00012	ff d3		 call	 ebx
  00014	d9 47 10	 fld	 DWORD PTR [edi+16]
  00017	8d 47 14	 lea	 eax, DWORD PTR [edi+20]
  0001a	d9 5e 10	 fstp	 DWORD PTR [esi+16]
  0001d	50		 push	 eax
  0001e	8d 4e 14	 lea	 ecx, DWORD PTR [esi+20]
  00021	ff d3		 call	 ebx
  00023	d9 47 24	 fld	 DWORD PTR [edi+36]
  00026	8d 47 28	 lea	 eax, DWORD PTR [edi+40]
  00029	d9 5e 24	 fstp	 DWORD PTR [esi+36]
  0002c	50		 push	 eax
  0002d	8d 4e 28	 lea	 ecx, DWORD PTR [esi+40]
  00030	e8 00 00 00 00	 call	 ??4?$vector@UWeaponInfo@@V?$allocator@UWeaponInfo@@@std@@@std@@QAEAAV01@ABV01@@Z ; std::vector<WeaponInfo,std::allocator<WeaponInfo> >::operator=
  00035	8d 47 38	 lea	 eax, DWORD PTR [edi+56]
  00038	50		 push	 eax
  00039	8d 4e 38	 lea	 ecx, DWORD PTR [esi+56]
  0003c	e8 00 00 00 00	 call	 ??4?$vector@UForceInfo@@V?$allocator@UForceInfo@@@std@@@std@@QAEAAV01@ABV01@@Z ; std::vector<ForceInfo,std::allocator<ForceInfo> >::operator=
  00041	8b 47 48	 mov	 eax, DWORD PTR [edi+72]
  00044	89 46 48	 mov	 DWORD PTR [esi+72], eax
  00047	8b 47 4c	 mov	 eax, DWORD PTR [edi+76]
  0004a	89 46 4c	 mov	 DWORD PTR [esi+76], eax
  0004d	5f		 pop	 edi
  0004e	8b c6		 mov	 eax, esi
  00050	5e		 pop	 esi
  00051	5b		 pop	 ebx
  00052	5d		 pop	 ebp
  00053	c2 04 00	 ret	 4
??4AttackAttribute@@QAEAAU0@ABU0@@Z ENDP		; AttackAttribute::operator=
_TEXT	ENDS
PUBLIC	??1tagSummonAttackInfo@@QAE@XZ			; tagSummonAttackInfo::~tagSummonAttackInfo
;	COMDAT xdata$x
xdata$x	SEGMENT
__unwindtable$??1tagSummonAttackInfo@@QAE@XZ DD 0ffffffffH
	DD	FLAT:__unwindfunclet$??1tagSummonAttackInfo@@QAE@XZ$0
	DD	00H
	DD	FLAT:__unwindfunclet$??1tagSummonAttackInfo@@QAE@XZ$1
__ehfuncinfo$??1tagSummonAttackInfo@@QAE@XZ DD 019930522H
	DD	02H
	DD	FLAT:__unwindtable$??1tagSummonAttackInfo@@QAE@XZ
	DD	2 DUP(00H)
	DD	2 DUP(00H)
	DD	00H
	DD	01H
; Function compile flags: /Ogsp
xdata$x	ENDS
;	COMDAT ??1tagSummonAttackInfo@@QAE@XZ
_TEXT	SEGMENT
_this$ = -16						; size = 4
__$EHRec$ = -12						; size = 12
??1tagSummonAttackInfo@@QAE@XZ PROC			; tagSummonAttackInfo::~tagSummonAttackInfo, COMDAT
; _this$ = ecx
  00000	6a 04		 push	 4
  00002	b8 00 00 00 00	 mov	 eax, __ehhandler$??1tagSummonAttackInfo@@QAE@XZ
  00007	e8 00 00 00 00	 call	 __EH_prolog3
  0000c	8b f1		 mov	 esi, ecx
  0000e	89 75 f0	 mov	 DWORD PTR _this$[ebp], esi
  00011	8d 4e 24	 lea	 ecx, DWORD PTR [esi+36]
  00014	c7 45 fc 01 00
	00 00		 mov	 DWORD PTR __$EHRec$[ebp+8], 1
  0001b	e8 00 00 00 00	 call	 ??1AttackAttribute@@QAE@XZ
  00020	8b 3d 00 00 00
	00		 mov	 edi, DWORD PTR __imp_??1ioHashString@@QAE@XZ
  00026	8d 4e 14	 lea	 ecx, DWORD PTR [esi+20]
  00029	c6 45 fc 00	 mov	 BYTE PTR __$EHRec$[ebp+8], 0
  0002d	ff d7		 call	 edi
  0002f	83 4d fc ff	 or	 DWORD PTR __$EHRec$[ebp+8], -1
  00033	8d 4e 04	 lea	 ecx, DWORD PTR [esi+4]
  00036	ff d7		 call	 edi
  00038	e8 00 00 00 00	 call	 __EH_epilog3
  0003d	c3		 ret	 0
_TEXT	ENDS
;	COMDAT text$x
text$x	SEGMENT
__unwindfunclet$??1tagSummonAttackInfo@@QAE@XZ$0:
  00000	8b 4d f0	 mov	 ecx, DWORD PTR _this$[ebp]
  00003	83 c1 04	 add	 ecx, 4
  00006	ff 25 00 00 00
	00		 jmp	 DWORD PTR __imp_??1ioHashString@@QAE@XZ
__unwindfunclet$??1tagSummonAttackInfo@@QAE@XZ$1:
  0000c	8b 4d f0	 mov	 ecx, DWORD PTR _this$[ebp]
  0000f	83 c1 14	 add	 ecx, 20			; 00000014H
  00012	ff 25 00 00 00
	00		 jmp	 DWORD PTR __imp_??1ioHashString@@QAE@XZ
__ehhandler$??1tagSummonAttackInfo@@QAE@XZ:
  00018	8b 54 24 08	 mov	 edx, DWORD PTR [esp+8]
  0001c	8d 42 0c	 lea	 eax, DWORD PTR [edx+12]
  0001f	8b 4a ec	 mov	 ecx, DWORD PTR [edx-20]
  00022	33 c8		 xor	 ecx, eax
  00024	e8 00 00 00 00	 call	 @__security_check_cookie@4
  00029	b8 00 00 00 00	 mov	 eax, OFFSET __ehfuncinfo$??1tagSummonAttackInfo@@QAE@XZ
  0002e	e9 00 00 00 00	 jmp	 ___CxxFrameHandler3
text$x	ENDS
??1tagSummonAttackInfo@@QAE@XZ ENDP			; tagSummonAttackInfo::~tagSummonAttackInfo
PUBLIC	??0tagSummonAttackInfo@@QAE@ABU0@@Z		; tagSummonAttackInfo::tagSummonAttackInfo
;	COMDAT xdata$x
xdata$x	SEGMENT
__unwindtable$??0tagSummonAttackInfo@@QAE@ABU0@@Z DD 0ffffffffH
	DD	FLAT:__unwindfunclet$??0tagSummonAttackInfo@@QAE@ABU0@@Z$0
	DD	00H
	DD	FLAT:__unwindfunclet$??0tagSummonAttackInfo@@QAE@ABU0@@Z$1
__ehfuncinfo$??0tagSummonAttackInfo@@QAE@ABU0@@Z DD 019930522H
	DD	02H
	DD	FLAT:__unwindtable$??0tagSummonAttackInfo@@QAE@ABU0@@Z
	DD	2 DUP(00H)
	DD	2 DUP(00H)
	DD	00H
	DD	01H
; Function compile flags: /Ogsp
xdata$x	ENDS
;	COMDAT ??0tagSummonAttackInfo@@QAE@ABU0@@Z
_TEXT	SEGMENT
_this$ = -16						; size = 4
__$EHRec$ = -12						; size = 12
___that$ = 8						; size = 4
??0tagSummonAttackInfo@@QAE@ABU0@@Z PROC		; tagSummonAttackInfo::tagSummonAttackInfo, COMDAT
; _this$ = ecx
  00000	6a 04		 push	 4
  00002	b8 00 00 00 00	 mov	 eax, __ehhandler$??0tagSummonAttackInfo@@QAE@ABU0@@Z
  00007	e8 00 00 00 00	 call	 __EH_prolog3
  0000c	8b f1		 mov	 esi, ecx
  0000e	89 75 f0	 mov	 DWORD PTR _this$[ebp], esi
  00011	8b 7d 08	 mov	 edi, DWORD PTR ___that$[ebp]
  00014	8b 07		 mov	 eax, DWORD PTR [edi]
  00016	8b 1d 00 00 00
	00		 mov	 ebx, DWORD PTR __imp_??0ioHashString@@QAE@ABV0@@Z
  0001c	89 06		 mov	 DWORD PTR [esi], eax
  0001e	8d 47 04	 lea	 eax, DWORD PTR [edi+4]
  00021	50		 push	 eax
  00022	8d 4e 04	 lea	 ecx, DWORD PTR [esi+4]
  00025	ff d3		 call	 ebx
  00027	83 65 fc 00	 and	 DWORD PTR __$EHRec$[ebp+8], 0
  0002b	8d 47 14	 lea	 eax, DWORD PTR [edi+20]
  0002e	50		 push	 eax
  0002f	8d 4e 14	 lea	 ecx, DWORD PTR [esi+20]
  00032	ff d3		 call	 ebx
  00034	83 c7 24	 add	 edi, 36			; 00000024H
  00037	57		 push	 edi
  00038	8d 4e 24	 lea	 ecx, DWORD PTR [esi+36]
  0003b	c6 45 fc 01	 mov	 BYTE PTR __$EHRec$[ebp+8], 1
  0003f	e8 00 00 00 00	 call	 ??0AttackAttribute@@QAE@ABU0@@Z
  00044	8b c6		 mov	 eax, esi
  00046	e8 00 00 00 00	 call	 __EH_epilog3
  0004b	c2 04 00	 ret	 4
_TEXT	ENDS
;	COMDAT text$x
text$x	SEGMENT
__unwindfunclet$??0tagSummonAttackInfo@@QAE@ABU0@@Z$0:
  00000	8b 4d f0	 mov	 ecx, DWORD PTR _this$[ebp]
  00003	83 c1 04	 add	 ecx, 4
  00006	ff 25 00 00 00
	00		 jmp	 DWORD PTR __imp_??1ioHashString@@QAE@XZ
__unwindfunclet$??0tagSummonAttackInfo@@QAE@ABU0@@Z$1:
  0000c	8b 4d f0	 mov	 ecx, DWORD PTR _this$[ebp]
  0000f	83 c1 14	 add	 ecx, 20			; 00000014H
  00012	ff 25 00 00 00
	00		 jmp	 DWORD PTR __imp_??1ioHashString@@QAE@XZ
__ehhandler$??0tagSummonAttackInfo@@QAE@ABU0@@Z:
  00018	8b 54 24 08	 mov	 edx, DWORD PTR [esp+8]
  0001c	8d 42 0c	 lea	 eax, DWORD PTR [edx+12]
  0001f	8b 4a ec	 mov	 ecx, DWORD PTR [edx-20]
  00022	33 c8		 xor	 ecx, eax
  00024	e8 00 00 00 00	 call	 @__security_check_cookie@4
  00029	b8 00 00 00 00	 mov	 eax, OFFSET __ehfuncinfo$??0tagSummonAttackInfo@@QAE@ABU0@@Z
  0002e	e9 00 00 00 00	 jmp	 ___CxxFrameHandler3
text$x	ENDS
??0tagSummonAttackInfo@@QAE@ABU0@@Z ENDP		; tagSummonAttackInfo::tagSummonAttackInfo
PUBLIC	??4tagSummonAttackInfo@@QAEAAU0@ABU0@@Z		; tagSummonAttackInfo::operator=
; Function compile flags: /Ogsp
;	COMDAT ??4tagSummonAttackInfo@@QAEAAU0@ABU0@@Z
_TEXT	SEGMENT
___that$ = 8						; size = 4
??4tagSummonAttackInfo@@QAEAAU0@ABU0@@Z PROC		; tagSummonAttackInfo::operator=, COMDAT
; _this$ = ecx
  00000	55		 push	 ebp
  00001	8b ec		 mov	 ebp, esp
  00003	53		 push	 ebx
  00004	8b 1d 00 00 00
	00		 mov	 ebx, DWORD PTR __imp_??4ioHashString@@QAEAAV0@ABV0@@Z
  0000a	56		 push	 esi
  0000b	57		 push	 edi
  0000c	8b 7d 08	 mov	 edi, DWORD PTR ___that$[ebp]
  0000f	8b 07		 mov	 eax, DWORD PTR [edi]
  00011	8b f1		 mov	 esi, ecx
  00013	89 06		 mov	 DWORD PTR [esi], eax
  00015	8d 47 04	 lea	 eax, DWORD PTR [edi+4]
  00018	50		 push	 eax
  00019	8d 4e 04	 lea	 ecx, DWORD PTR [esi+4]
  0001c	ff d3		 call	 ebx
  0001e	8d 47 14	 lea	 eax, DWORD PTR [edi+20]
  00021	50		 push	 eax
  00022	8d 4e 14	 lea	 ecx, DWORD PTR [esi+20]
  00025	ff d3		 call	 ebx
  00027	83 c7 24	 add	 edi, 36			; 00000024H
  0002a	57		 push	 edi
  0002b	8d 4e 24	 lea	 ecx, DWORD PTR [esi+36]
  0002e	e8 00 00 00 00	 call	 ??4AttackAttribute@@QAEAAU0@ABU0@@Z
  00033	5f		 pop	 edi
  00034	8b c6		 mov	 eax, esi
  00036	5e		 pop	 esi
  00037	5b		 pop	 ebx
  00038	5d		 pop	 ebp
  00039	c2 04 00	 ret	 4
??4tagSummonAttackInfo@@QAEAAU0@ABU0@@Z ENDP		; tagSummonAttackInfo::operator=
_TEXT	ENDS
PUBLIC	??_GtagSummonAttackInfo@@QAEPAXI@Z		; tagSummonAttackInfo::`scalar deleting destructor'
; Function compile flags: /Ogsp
;	COMDAT ??_GtagSummonAttackInfo@@QAEPAXI@Z
_TEXT	SEGMENT
___flags$ = 8						; size = 4
??_GtagSummonAttackInfo@@QAEPAXI@Z PROC			; tagSummonAttackInfo::`scalar deleting destructor', COMDAT
; _this$ = ecx
  00000	55		 push	 ebp
  00001	8b ec		 mov	 ebp, esp
  00003	56		 push	 esi
  00004	8b f1		 mov	 esi, ecx
  00006	e8 00 00 00 00	 call	 ??1tagSummonAttackInfo@@QAE@XZ
  0000b	f6 45 08 01	 test	 BYTE PTR ___flags$[ebp], 1
  0000f	74 07		 je	 SHORT $LN1@scalar@5
  00011	56		 push	 esi
  00012	e8 00 00 00 00	 call	 ??3@YAXPAX@Z		; operator delete
  00017	59		 pop	 ecx
$LN1@scalar@5:
  00018	8b c6		 mov	 eax, esi
  0001a	5e		 pop	 esi
  0001b	5d		 pop	 ebp
  0001c	c2 04 00	 ret	 4
??_GtagSummonAttackInfo@@QAEPAXI@Z ENDP			; tagSummonAttackInfo::`scalar deleting destructor'
_TEXT	ENDS
PUBLIC	?construct@?$allocator@UtagSummonAttackInfo@@@std@@QAEXPAUtagSummonAttackInfo@@$$QAU3@@Z ; std::allocator<tagSummonAttackInfo>::construct
;	COMDAT xdata$x
; File c:\program files (x86)\microsoft visual studio 10.0\vc\include\utility
xdata$x	SEGMENT
__unwindtable$?construct@?$allocator@UtagSummonAttackInfo@@@std@@QAEXPAUtagSummonAttackInfo@@$$QAU3@@Z DD 0ffffffffH
	DD	FLAT:__unwindfunclet$?construct@?$allocator@UtagSummonAttackInfo@@@std@@QAEXPAUtagSummonAttackInfo@@$$QAU3@@Z$0
__ehfuncinfo$?construct@?$allocator@UtagSummonAttackInfo@@@std@@QAEXPAUtagSummonAttackInfo@@$$QAU3@@Z DD 019930522H
	DD	01H
	DD	FLAT:__unwindtable$?construct@?$allocator@UtagSummonAttackInfo@@@std@@QAEXPAUtagSummonAttackInfo@@$$QAU3@@Z
	DD	2 DUP(00H)
	DD	2 DUP(00H)
	DD	00H
	DD	01H
; Function compile flags: /Ogsp
; File c:\program files (x86)\microsoft visual studio 10.0\vc\include\xmemory
xdata$x	ENDS
;	COMDAT ?construct@?$allocator@UtagSummonAttackInfo@@@std@@QAEXPAUtagSummonAttackInfo@@$$QAU3@@Z
_TEXT	SEGMENT
$T551940 = -16						; size = 4
__$EHRec$ = -12						; size = 12
__Ptr$ = 8						; size = 4
__Val$ = 12						; size = 4
?construct@?$allocator@UtagSummonAttackInfo@@@std@@QAEXPAUtagSummonAttackInfo@@$$QAU3@@Z PROC ; std::allocator<tagSummonAttackInfo>::construct, COMDAT
; _this$ = ecx

; 201  : 		{	// construct object at _Ptr with value _Val

  00000	6a 04		 push	 4
  00002	b8 00 00 00 00	 mov	 eax, __ehhandler$?construct@?$allocator@UtagSummonAttackInfo@@@std@@QAEXPAUtagSummonAttackInfo@@$$QAU3@@Z
  00007	e8 00 00 00 00	 call	 __EH_prolog3

; 202  : 		::new ((void _FARQ *)_Ptr) _Ty(_STD forward<_Ty>(_Val));

  0000c	8b 4d 08	 mov	 ecx, DWORD PTR __Ptr$[ebp]
  0000f	89 4d f0	 mov	 DWORD PTR $T551940[ebp], ecx
  00012	83 65 fc 00	 and	 DWORD PTR __$EHRec$[ebp+8], 0
  00016	85 c9		 test	 ecx, ecx
  00018	74 08		 je	 SHORT $LN3@construct@4
  0001a	ff 75 0c	 push	 DWORD PTR __Val$[ebp]
  0001d	e8 00 00 00 00	 call	 ??0tagSummonAttackInfo@@QAE@ABU0@@Z
$LN3@construct@4:

; 203  : 		}

  00022	e8 00 00 00 00	 call	 __EH_epilog3
  00027	c2 08 00	 ret	 8
_TEXT	ENDS
;	COMDAT text$x
text$x	SEGMENT
__unwindfunclet$?construct@?$allocator@UtagSummonAttackInfo@@@std@@QAEXPAUtagSummonAttackInfo@@$$QAU3@@Z$0:
  00000	ff 75 08	 push	 DWORD PTR __Ptr$[ebp]
  00003	ff 75 f0	 push	 DWORD PTR $T551940[ebp]
  00006	e8 00 00 00 00	 call	 ??3@YAXPAX0@Z		; operator delete
  0000b	59		 pop	 ecx
  0000c	59		 pop	 ecx
  0000d	c3		 ret	 0
__ehhandler$?construct@?$allocator@UtagSummonAttackInfo@@@std@@QAEXPAUtagSummonAttackInfo@@$$QAU3@@Z:
  0000e	8b 54 24 08	 mov	 edx, DWORD PTR [esp+8]
  00012	8d 42 0c	 lea	 eax, DWORD PTR [edx+12]
  00015	8b 4a ec	 mov	 ecx, DWORD PTR [edx-20]
  00018	33 c8		 xor	 ecx, eax
  0001a	e8 00 00 00 00	 call	 @__security_check_cookie@4
  0001f	b8 00 00 00 00	 mov	 eax, OFFSET __ehfuncinfo$?construct@?$allocator@UtagSummonAttackInfo@@@std@@QAEXPAUtagSummonAttackInfo@@$$QAU3@@Z
  00024	e9 00 00 00 00	 jmp	 ___CxxFrameHandler3
text$x	ENDS
?construct@?$allocator@UtagSummonAttackInfo@@@std@@QAEXPAUtagSummonAttackInfo@@$$QAU3@@Z ENDP ; std::allocator<tagSummonAttackInfo>::construct
PUBLIC	??$construct@AAUtagSummonAttackInfo@@@?$allocator@UtagSummonAttackInfo@@@std@@QAEXPAUtagSummonAttackInfo@@AAU2@@Z ; std::allocator<tagSummonAttackInfo>::construct<tagSummonAttackInfo &>
;	COMDAT xdata$x
; File c:\program files (x86)\microsoft visual studio 10.0\vc\include\utility
xdata$x	SEGMENT
__unwindtable$??$construct@AAUtagSummonAttackInfo@@@?$allocator@UtagSummonAttackInfo@@@std@@QAEXPAUtagSummonAttackInfo@@AAU2@@Z DD 0ffffffffH
	DD	FLAT:__unwindfunclet$??$construct@AAUtagSummonAttackInfo@@@?$allocator@UtagSummonAttackInfo@@@std@@QAEXPAUtagSummonAttackInfo@@AAU2@@Z$0
__ehfuncinfo$??$construct@AAUtagSummonAttackInfo@@@?$allocator@UtagSummonAttackInfo@@@std@@QAEXPAUtagSummonAttackInfo@@AAU2@@Z DD 019930522H
	DD	01H
	DD	FLAT:__unwindtable$??$construct@AAUtagSummonAttackInfo@@@?$allocator@UtagSummonAttackInfo@@@std@@QAEXPAUtagSummonAttackInfo@@AAU2@@Z
	DD	2 DUP(00H)
	DD	2 DUP(00H)
	DD	00H
	DD	01H
; Function compile flags: /Ogsp
; File c:\program files (x86)\microsoft visual studio 10.0\vc\include\xmemory
xdata$x	ENDS
;	COMDAT ??$construct@AAUtagSummonAttackInfo@@@?$allocator@UtagSummonAttackInfo@@@std@@QAEXPAUtagSummonAttackInfo@@AAU2@@Z
_TEXT	SEGMENT
$T551959 = -16						; size = 4
__$EHRec$ = -12						; size = 12
__Ptr$ = 8						; size = 4
__Val$ = 12						; size = 4
??$construct@AAUtagSummonAttackInfo@@@?$allocator@UtagSummonAttackInfo@@@std@@QAEXPAUtagSummonAttackInfo@@AAU2@@Z PROC ; std::allocator<tagSummonAttackInfo>::construct<tagSummonAttackInfo &>, COMDAT
; _this$ = ecx

; 206  : 		void construct(pointer _Ptr, _Other&& _Val)

  00000	6a 04		 push	 4
  00002	b8 00 00 00 00	 mov	 eax, __ehhandler$??$construct@AAUtagSummonAttackInfo@@@?$allocator@UtagSummonAttackInfo@@@std@@QAEXPAUtagSummonAttackInfo@@AAU2@@Z
  00007	e8 00 00 00 00	 call	 __EH_prolog3

; 207  : 		{	// construct object at _Ptr with value _Val
; 208  : 		::new ((void _FARQ *)_Ptr) _Ty(_STD forward<_Other>(_Val));

  0000c	8b 4d 08	 mov	 ecx, DWORD PTR __Ptr$[ebp]
  0000f	89 4d f0	 mov	 DWORD PTR $T551959[ebp], ecx
  00012	83 65 fc 00	 and	 DWORD PTR __$EHRec$[ebp+8], 0
  00016	85 c9		 test	 ecx, ecx
  00018	74 08		 je	 SHORT $LN3@construct@5
  0001a	ff 75 0c	 push	 DWORD PTR __Val$[ebp]
  0001d	e8 00 00 00 00	 call	 ??0tagSummonAttackInfo@@QAE@ABU0@@Z
$LN3@construct@5:

; 209  : 		}

  00022	e8 00 00 00 00	 call	 __EH_epilog3
  00027	c2 08 00	 ret	 8
_TEXT	ENDS
;	COMDAT text$x
text$x	SEGMENT
__unwindfunclet$??$construct@AAUtagSummonAttackInfo@@@?$allocator@UtagSummonAttackInfo@@@std@@QAEXPAUtagSummonAttackInfo@@AAU2@@Z$0:
  00000	ff 75 08	 push	 DWORD PTR __Ptr$[ebp]
  00003	ff 75 f0	 push	 DWORD PTR $T551959[ebp]
  00006	e8 00 00 00 00	 call	 ??3@YAXPAX0@Z		; operator delete
  0000b	59		 pop	 ecx
  0000c	59		 pop	 ecx
  0000d	c3		 ret	 0
__ehhandler$??$construct@AAUtagSummonAttackInfo@@@?$allocator@UtagSummonAttackInfo@@@std@@QAEXPAUtagSummonAttackInfo@@AAU2@@Z:
  0000e	8b 54 24 08	 mov	 edx, DWORD PTR [esp+8]
  00012	8d 42 0c	 lea	 eax, DWORD PTR [edx+12]
  00015	8b 4a ec	 mov	 ecx, DWORD PTR [edx-20]
  00018	33 c8		 xor	 ecx, eax
  0001a	e8 00 00 00 00	 call	 @__security_check_cookie@4
  0001f	b8 00 00 00 00	 mov	 eax, OFFSET __ehfuncinfo$??$construct@AAUtagSummonAttackInfo@@@?$allocator@UtagSummonAttackInfo@@@std@@QAEXPAUtagSummonAttackInfo@@AAU2@@Z
  00024	e9 00 00 00 00	 jmp	 ___CxxFrameHandler3
text$x	ENDS
??$construct@AAUtagSummonAttackInfo@@@?$allocator@UtagSummonAttackInfo@@@std@@QAEXPAUtagSummonAttackInfo@@AAU2@@Z ENDP ; std::allocator<tagSummonAttackInfo>::construct<tagSummonAttackInfo &>
PUBLIC	??$_Move@PAUtagSummonAttackInfo@@PAU1@@std@@YAPAUtagSummonAttackInfo@@PAU1@00U_Nonscalar_ptr_iterator_tag@0@@Z ; std::_Move<tagSummonAttackInfo *,tagSummonAttackInfo *>
; Function compile flags: /Ogsp
; File c:\program files (x86)\microsoft visual studio 10.0\vc\include\xutility
;	COMDAT ??$_Move@PAUtagSummonAttackInfo@@PAU1@@std@@YAPAUtagSummonAttackInfo@@PAU1@00U_Nonscalar_ptr_iterator_tag@0@@Z
_TEXT	SEGMENT
__First$ = 8						; size = 4
__Last$ = 12						; size = 4
__Dest$ = 16						; size = 4
___formal$ = 20						; size = 1
??$_Move@PAUtagSummonAttackInfo@@PAU1@@std@@YAPAUtagSummonAttackInfo@@PAU1@00U_Nonscalar_ptr_iterator_tag@0@@Z PROC ; std::_Move<tagSummonAttackInfo *,tagSummonAttackInfo *>, COMDAT

; 2512 : 	{	// move [_First, _Last) to [_Dest, ...), arbitrary iterators

  00000	55		 push	 ebp
  00001	8b ec		 mov	 ebp, esp
  00003	56		 push	 esi

; 2513 : 	for (; _First != _Last; ++_Dest, ++_First)

  00004	8b 75 08	 mov	 esi, DWORD PTR __First$[ebp]
  00007	eb 10		 jmp	 SHORT $LN11@Move@3
$LL3@Move@3:

; 2514 : 		*_Dest = _STD move(*_First);

  00009	8b 4d 10	 mov	 ecx, DWORD PTR __Dest$[ebp]
  0000c	56		 push	 esi
  0000d	e8 00 00 00 00	 call	 ??4tagSummonAttackInfo@@QAEAAU0@ABU0@@Z
  00012	83 45 10 74	 add	 DWORD PTR __Dest$[ebp], 116 ; 00000074H
  00016	83 c6 74	 add	 esi, 116		; 00000074H
$LN11@Move@3:

; 2513 : 	for (; _First != _Last; ++_Dest, ++_First)

  00019	3b 75 0c	 cmp	 esi, DWORD PTR __Last$[ebp]
  0001c	75 eb		 jne	 SHORT $LL3@Move@3

; 2515 : 	return (_Dest);

  0001e	8b 45 10	 mov	 eax, DWORD PTR __Dest$[ebp]
  00021	5e		 pop	 esi

; 2516 : 	}

  00022	5d		 pop	 ebp
  00023	c3		 ret	 0
??$_Move@PAUtagSummonAttackInfo@@PAU1@@std@@YAPAUtagSummonAttackInfo@@PAU1@00U_Nonscalar_ptr_iterator_tag@0@@Z ENDP ; std::_Move<tagSummonAttackInfo *,tagSummonAttackInfo *>
_TEXT	ENDS
PUBLIC	??$_Construct@UtagSummonAttackInfo@@ABU1@@std@@YAXPAUtagSummonAttackInfo@@ABU1@@Z ; std::_Construct<tagSummonAttackInfo,tagSummonAttackInfo const &>
;	COMDAT xdata$x
; File c:\program files (x86)\microsoft visual studio 10.0\vc\include\utility
xdata$x	SEGMENT
__unwindtable$??$_Construct@UtagSummonAttackInfo@@ABU1@@std@@YAXPAUtagSummonAttackInfo@@ABU1@@Z DD 0ffffffffH
	DD	FLAT:__unwindfunclet$??$_Construct@UtagSummonAttackInfo@@ABU1@@std@@YAXPAUtagSummonAttackInfo@@ABU1@@Z$0
__ehfuncinfo$??$_Construct@UtagSummonAttackInfo@@ABU1@@std@@YAXPAUtagSummonAttackInfo@@ABU1@@Z DD 019930522H
	DD	01H
	DD	FLAT:__unwindtable$??$_Construct@UtagSummonAttackInfo@@ABU1@@std@@YAXPAUtagSummonAttackInfo@@ABU1@@Z
	DD	2 DUP(00H)
	DD	2 DUP(00H)
	DD	00H
	DD	01H
; Function compile flags: /Ogsp
; File c:\program files (x86)\microsoft visual studio 10.0\vc\include\xmemory
xdata$x	ENDS
;	COMDAT ??$_Construct@UtagSummonAttackInfo@@ABU1@@std@@YAXPAUtagSummonAttackInfo@@ABU1@@Z
_TEXT	SEGMENT
$T551987 = -16						; size = 4
__$EHRec$ = -12						; size = 12
__Vptr$ = 8						; size = 4
__Ptr$ = 8						; size = 4
__Val$ = 12						; size = 4
??$_Construct@UtagSummonAttackInfo@@ABU1@@std@@YAXPAUtagSummonAttackInfo@@ABU1@@Z PROC ; std::_Construct<tagSummonAttackInfo,tagSummonAttackInfo const &>, COMDAT

; 46   : 	{	// construct object at _Ptr with value _Val

  00000	6a 04		 push	 4
  00002	b8 00 00 00 00	 mov	 eax, __ehhandler$??$_Construct@UtagSummonAttackInfo@@ABU1@@std@@YAXPAUtagSummonAttackInfo@@ABU1@@Z
  00007	e8 00 00 00 00	 call	 __EH_prolog3

; 47   : 	void _FARQ *_Vptr = _Ptr;

  0000c	8b 4d 08	 mov	 ecx, DWORD PTR __Ptr$[ebp]
  0000f	89 4d 08	 mov	 DWORD PTR __Vptr$[ebp], ecx

; 48   : 	::new (_Vptr) _Ty1(_STD forward<_Ty2>(_Val));

  00012	89 4d f0	 mov	 DWORD PTR $T551987[ebp], ecx
  00015	83 65 fc 00	 and	 DWORD PTR __$EHRec$[ebp+8], 0
  00019	85 c9		 test	 ecx, ecx
  0001b	74 08		 je	 SHORT $LN3@Construct@3
  0001d	ff 75 0c	 push	 DWORD PTR __Val$[ebp]
  00020	e8 00 00 00 00	 call	 ??0tagSummonAttackInfo@@QAE@ABU0@@Z
$LN3@Construct@3:

; 49   : 	}

  00025	e8 00 00 00 00	 call	 __EH_epilog3
  0002a	c3		 ret	 0
_TEXT	ENDS
;	COMDAT text$x
text$x	SEGMENT
__unwindfunclet$??$_Construct@UtagSummonAttackInfo@@ABU1@@std@@YAXPAUtagSummonAttackInfo@@ABU1@@Z$0:
  00000	ff 75 08	 push	 DWORD PTR __Vptr$[ebp]
  00003	ff 75 f0	 push	 DWORD PTR $T551987[ebp]
  00006	e8 00 00 00 00	 call	 ??3@YAXPAX0@Z		; operator delete
  0000b	59		 pop	 ecx
  0000c	59		 pop	 ecx
  0000d	c3		 ret	 0
__ehhandler$??$_Construct@UtagSummonAttackInfo@@ABU1@@std@@YAXPAUtagSummonAttackInfo@@ABU1@@Z:
  0000e	8b 54 24 08	 mov	 edx, DWORD PTR [esp+8]
  00012	8d 42 0c	 lea	 eax, DWORD PTR [edx+12]
  00015	8b 4a ec	 mov	 ecx, DWORD PTR [edx-20]
  00018	33 c8		 xor	 ecx, eax
  0001a	e8 00 00 00 00	 call	 @__security_check_cookie@4
  0001f	b8 00 00 00 00	 mov	 eax, OFFSET __ehfuncinfo$??$_Construct@UtagSummonAttackInfo@@ABU1@@std@@YAXPAUtagSummonAttackInfo@@ABU1@@Z
  00024	e9 00 00 00 00	 jmp	 ___CxxFrameHandler3
text$x	ENDS
??$_Construct@UtagSummonAttackInfo@@ABU1@@std@@YAXPAUtagSummonAttackInfo@@ABU1@@Z ENDP ; std::_Construct<tagSummonAttackInfo,tagSummonAttackInfo const &>
PUBLIC	??$_Cons_val@V?$allocator@UtagSummonAttackInfo@@@std@@UtagSummonAttackInfo@@U3@@std@@YAXAAV?$allocator@UtagSummonAttackInfo@@@0@PAUtagSummonAttackInfo@@$$QAU2@@Z ; std::_Cons_val<std::allocator<tagSummonAttackInfo>,tagSummonAttackInfo,tagSummonAttackInfo>
;	COMDAT xdata$x
; File c:\program files (x86)\microsoft visual studio 10.0\vc\include\utility
xdata$x	SEGMENT
__unwindtable$??$_Cons_val@V?$allocator@UtagSummonAttackInfo@@@std@@UtagSummonAttackInfo@@U3@@std@@YAXAAV?$allocator@UtagSummonAttackInfo@@@0@PAUtagSummonAttackInfo@@$$QAU2@@Z DD 0ffffffffH
	DD	FLAT:__unwindfunclet$??$_Cons_val@V?$allocator@UtagSummonAttackInfo@@@std@@UtagSummonAttackInfo@@U3@@std@@YAXAAV?$allocator@UtagSummonAttackInfo@@@0@PAUtagSummonAttackInfo@@$$QAU2@@Z$0
__ehfuncinfo$??$_Cons_val@V?$allocator@UtagSummonAttackInfo@@@std@@UtagSummonAttackInfo@@U3@@std@@YAXAAV?$allocator@UtagSummonAttackInfo@@@0@PAUtagSummonAttackInfo@@$$QAU2@@Z DD 019930522H
	DD	01H
	DD	FLAT:__unwindtable$??$_Cons_val@V?$allocator@UtagSummonAttackInfo@@@std@@UtagSummonAttackInfo@@U3@@std@@YAXAAV?$allocator@UtagSummonAttackInfo@@@0@PAUtagSummonAttackInfo@@$$QAU2@@Z
	DD	2 DUP(00H)
	DD	2 DUP(00H)
	DD	00H
	DD	01H
; Function compile flags: /Ogsp
; File c:\program files (x86)\microsoft visual studio 10.0\vc\include\xmemory
xdata$x	ENDS
;	COMDAT ??$_Cons_val@V?$allocator@UtagSummonAttackInfo@@@std@@UtagSummonAttackInfo@@U3@@std@@YAXAAV?$allocator@UtagSummonAttackInfo@@@0@PAUtagSummonAttackInfo@@$$QAU2@@Z
_TEXT	SEGMENT
$T552022 = -16						; size = 4
__$EHRec$ = -12						; size = 12
__Alval$ = 8						; size = 4
__Pdest$ = 12						; size = 4
__Src$ = 16						; size = 4
??$_Cons_val@V?$allocator@UtagSummonAttackInfo@@@std@@UtagSummonAttackInfo@@U3@@std@@YAXAAV?$allocator@UtagSummonAttackInfo@@@0@PAUtagSummonAttackInfo@@$$QAU2@@Z PROC ; std::_Cons_val<std::allocator<tagSummonAttackInfo>,tagSummonAttackInfo,tagSummonAttackInfo>, COMDAT

; 279  : 	{	// construct using allocator

  00000	6a 04		 push	 4
  00002	b8 00 00 00 00	 mov	 eax, __ehhandler$??$_Cons_val@V?$allocator@UtagSummonAttackInfo@@@std@@UtagSummonAttackInfo@@U3@@std@@YAXAAV?$allocator@UtagSummonAttackInfo@@@0@PAUtagSummonAttackInfo@@$$QAU2@@Z
  00007	e8 00 00 00 00	 call	 __EH_prolog3

; 280  : 	_Alval.construct(_Pdest, _STD forward<_Ty2>(_Src));

  0000c	8b 4d 0c	 mov	 ecx, DWORD PTR __Pdest$[ebp]
  0000f	89 4d f0	 mov	 DWORD PTR $T552022[ebp], ecx
  00012	83 65 fc 00	 and	 DWORD PTR __$EHRec$[ebp+8], 0
  00016	85 c9		 test	 ecx, ecx
  00018	74 08		 je	 SHORT $LN7@Cons_val@4
  0001a	ff 75 10	 push	 DWORD PTR __Src$[ebp]
  0001d	e8 00 00 00 00	 call	 ??0tagSummonAttackInfo@@QAE@ABU0@@Z
$LN7@Cons_val@4:

; 281  : 	}

  00022	e8 00 00 00 00	 call	 __EH_epilog3
  00027	c3		 ret	 0
_TEXT	ENDS
;	COMDAT text$x
text$x	SEGMENT
__unwindfunclet$??$_Cons_val@V?$allocator@UtagSummonAttackInfo@@@std@@UtagSummonAttackInfo@@U3@@std@@YAXAAV?$allocator@UtagSummonAttackInfo@@@0@PAUtagSummonAttackInfo@@$$QAU2@@Z$0:
  00000	ff 75 0c	 push	 DWORD PTR __Pdest$[ebp]
  00003	ff 75 f0	 push	 DWORD PTR $T552022[ebp]
  00006	e8 00 00 00 00	 call	 ??3@YAXPAX0@Z		; operator delete
  0000b	59		 pop	 ecx
  0000c	59		 pop	 ecx
  0000d	c3		 ret	 0
__ehhandler$??$_Cons_val@V?$allocator@UtagSummonAttackInfo@@@std@@UtagSummonAttackInfo@@U3@@std@@YAXAAV?$allocator@UtagSummonAttackInfo@@@0@PAUtagSummonAttackInfo@@$$QAU2@@Z:
  0000e	8b 54 24 08	 mov	 edx, DWORD PTR [esp+8]
  00012	8d 42 0c	 lea	 eax, DWORD PTR [edx+12]
  00015	8b 4a ec	 mov	 ecx, DWORD PTR [edx-20]
  00018	33 c8		 xor	 ecx, eax
  0001a	e8 00 00 00 00	 call	 @__security_check_cookie@4
  0001f	b8 00 00 00 00	 mov	 eax, OFFSET __ehfuncinfo$??$_Cons_val@V?$allocator@UtagSummonAttackInfo@@@std@@UtagSummonAttackInfo@@U3@@std@@YAXAAV?$allocator@UtagSummonAttackInfo@@@0@PAUtagSummonAttackInfo@@$$QAU2@@Z
  00024	e9 00 00 00 00	 jmp	 ___CxxFrameHandler3
text$x	ENDS
??$_Cons_val@V?$allocator@UtagSummonAttackInfo@@@std@@UtagSummonAttackInfo@@U3@@std@@YAXAAV?$allocator@UtagSummonAttackInfo@@@0@PAUtagSummonAttackInfo@@$$QAU2@@Z ENDP ; std::_Cons_val<std::allocator<tagSummonAttackInfo>,tagSummonAttackInfo,tagSummonAttackInfo>
PUBLIC	??$_Destroy@UtagSummonAttackInfo@@@std@@YAXPAUtagSummonAttackInfo@@@Z ; std::_Destroy<tagSummonAttackInfo>
; Function compile flags: /Ogsp
;	COMDAT ??$_Destroy@UtagSummonAttackInfo@@@std@@YAXPAUtagSummonAttackInfo@@@Z
_TEXT	SEGMENT
__Ptr$ = 8						; size = 4
??$_Destroy@UtagSummonAttackInfo@@@std@@YAXPAUtagSummonAttackInfo@@@Z PROC ; std::_Destroy<tagSummonAttackInfo>, COMDAT

; 62   : 	{	// destroy object at _Ptr

  00000	55		 push	 ebp
  00001	8b ec		 mov	 ebp, esp

; 63   : 	_Ptr->~_Ty();

  00003	8b 4d 08	 mov	 ecx, DWORD PTR __Ptr$[ebp]

; 64   : 	}

  00006	5d		 pop	 ebp

; 63   : 	_Ptr->~_Ty();

  00007	e9 00 00 00 00	 jmp	 ??1tagSummonAttackInfo@@QAE@XZ
??$_Destroy@UtagSummonAttackInfo@@@std@@YAXPAUtagSummonAttackInfo@@@Z ENDP ; std::_Destroy<tagSummonAttackInfo>
_TEXT	ENDS
PUBLIC	??$_Cons_val@V?$allocator@UtagSummonAttackInfo@@@std@@UtagSummonAttackInfo@@AAU3@@std@@YAXAAV?$allocator@UtagSummonAttackInfo@@@0@PAUtagSummonAttackInfo@@AAU2@@Z ; std::_Cons_val<std::allocator<tagSummonAttackInfo>,tagSummonAttackInfo,tagSummonAttackInfo &>
;	COMDAT xdata$x
; File c:\program files (x86)\microsoft visual studio 10.0\vc\include\utility
xdata$x	SEGMENT
__unwindtable$??$_Cons_val@V?$allocator@UtagSummonAttackInfo@@@std@@UtagSummonAttackInfo@@AAU3@@std@@YAXAAV?$allocator@UtagSummonAttackInfo@@@0@PAUtagSummonAttackInfo@@AAU2@@Z DD 0ffffffffH
	DD	FLAT:__unwindfunclet$??$_Cons_val@V?$allocator@UtagSummonAttackInfo@@@std@@UtagSummonAttackInfo@@AAU3@@std@@YAXAAV?$allocator@UtagSummonAttackInfo@@@0@PAUtagSummonAttackInfo@@AAU2@@Z$0
__ehfuncinfo$??$_Cons_val@V?$allocator@UtagSummonAttackInfo@@@std@@UtagSummonAttackInfo@@AAU3@@std@@YAXAAV?$allocator@UtagSummonAttackInfo@@@0@PAUtagSummonAttackInfo@@AAU2@@Z DD 019930522H
	DD	01H
	DD	FLAT:__unwindtable$??$_Cons_val@V?$allocator@UtagSummonAttackInfo@@@std@@UtagSummonAttackInfo@@AAU3@@std@@YAXAAV?$allocator@UtagSummonAttackInfo@@@0@PAUtagSummonAttackInfo@@AAU2@@Z
	DD	2 DUP(00H)
	DD	2 DUP(00H)
	DD	00H
	DD	01H
; Function compile flags: /Ogsp
; File c:\program files (x86)\microsoft visual studio 10.0\vc\include\xmemory
xdata$x	ENDS
;	COMDAT ??$_Cons_val@V?$allocator@UtagSummonAttackInfo@@@std@@UtagSummonAttackInfo@@AAU3@@std@@YAXAAV?$allocator@UtagSummonAttackInfo@@@0@PAUtagSummonAttackInfo@@AAU2@@Z
_TEXT	SEGMENT
$T552063 = -16						; size = 4
__$EHRec$ = -12						; size = 12
__Alval$ = 8						; size = 4
__Pdest$ = 12						; size = 4
__Src$ = 16						; size = 4
??$_Cons_val@V?$allocator@UtagSummonAttackInfo@@@std@@UtagSummonAttackInfo@@AAU3@@std@@YAXAAV?$allocator@UtagSummonAttackInfo@@@0@PAUtagSummonAttackInfo@@AAU2@@Z PROC ; std::_Cons_val<std::allocator<tagSummonAttackInfo>,tagSummonAttackInfo,tagSummonAttackInfo &>, COMDAT

; 279  : 	{	// construct using allocator

  00000	6a 04		 push	 4
  00002	b8 00 00 00 00	 mov	 eax, __ehhandler$??$_Cons_val@V?$allocator@UtagSummonAttackInfo@@@std@@UtagSummonAttackInfo@@AAU3@@std@@YAXAAV?$allocator@UtagSummonAttackInfo@@@0@PAUtagSummonAttackInfo@@AAU2@@Z
  00007	e8 00 00 00 00	 call	 __EH_prolog3

; 280  : 	_Alval.construct(_Pdest, _STD forward<_Ty2>(_Src));

  0000c	8b 4d 0c	 mov	 ecx, DWORD PTR __Pdest$[ebp]
  0000f	89 4d f0	 mov	 DWORD PTR $T552063[ebp], ecx
  00012	83 65 fc 00	 and	 DWORD PTR __$EHRec$[ebp+8], 0
  00016	85 c9		 test	 ecx, ecx
  00018	74 08		 je	 SHORT $LN7@Cons_val@5
  0001a	ff 75 10	 push	 DWORD PTR __Src$[ebp]
  0001d	e8 00 00 00 00	 call	 ??0tagSummonAttackInfo@@QAE@ABU0@@Z
$LN7@Cons_val@5:

; 281  : 	}

  00022	e8 00 00 00 00	 call	 __EH_epilog3
  00027	c3		 ret	 0
_TEXT	ENDS
;	COMDAT text$x
text$x	SEGMENT
__unwindfunclet$??$_Cons_val@V?$allocator@UtagSummonAttackInfo@@@std@@UtagSummonAttackInfo@@AAU3@@std@@YAXAAV?$allocator@UtagSummonAttackInfo@@@0@PAUtagSummonAttackInfo@@AAU2@@Z$0:
  00000	ff 75 0c	 push	 DWORD PTR __Pdest$[ebp]
  00003	ff 75 f0	 push	 DWORD PTR $T552063[ebp]
  00006	e8 00 00 00 00	 call	 ??3@YAXPAX0@Z		; operator delete
  0000b	59		 pop	 ecx
  0000c	59		 pop	 ecx
  0000d	c3		 ret	 0
__ehhandler$??$_Cons_val@V?$allocator@UtagSummonAttackInfo@@@std@@UtagSummonAttackInfo@@AAU3@@std@@YAXAAV?$allocator@UtagSummonAttackInfo@@@0@PAUtagSummonAttackInfo@@AAU2@@Z:
  0000e	8b 54 24 08	 mov	 edx, DWORD PTR [esp+8]
  00012	8d 42 0c	 lea	 eax, DWORD PTR [edx+12]
  00015	8b 4a ec	 mov	 ecx, DWORD PTR [edx-20]
  00018	33 c8		 xor	 ecx, eax
  0001a	e8 00 00 00 00	 call	 @__security_check_cookie@4
  0001f	b8 00 00 00 00	 mov	 eax, OFFSET __ehfuncinfo$??$_Cons_val@V?$allocator@UtagSummonAttackInfo@@@std@@UtagSummonAttackInfo@@AAU3@@std@@YAXAAV?$allocator@UtagSummonAttackInfo@@@0@PAUtagSummonAttackInfo@@AAU2@@Z
  00024	e9 00 00 00 00	 jmp	 ___CxxFrameHandler3
text$x	ENDS
??$_Cons_val@V?$allocator@UtagSummonAttackInfo@@@std@@UtagSummonAttackInfo@@AAU3@@std@@YAXAAV?$allocator@UtagSummonAttackInfo@@@0@PAUtagSummonAttackInfo@@AAU2@@Z ENDP ; std::_Cons_val<std::allocator<tagSummonAttackInfo>,tagSummonAttackInfo,tagSummonAttackInfo &>
PUBLIC	??$_Move@PAUtagSummonAttackInfo@@PAU1@@std@@YAPAUtagSummonAttackInfo@@PAU1@00@Z ; std::_Move<tagSummonAttackInfo *,tagSummonAttackInfo *>
; Function compile flags: /Ogsp
; File c:\program files (x86)\microsoft visual studio 10.0\vc\include\xutility
;	COMDAT ??$_Move@PAUtagSummonAttackInfo@@PAU1@@std@@YAPAUtagSummonAttackInfo@@PAU1@00@Z
_TEXT	SEGMENT
__Cat$552083 = -4					; size = 1
__First$ = 8						; size = 4
__Last$ = 12						; size = 4
__Dest$ = 16						; size = 4
??$_Move@PAUtagSummonAttackInfo@@PAU1@@std@@YAPAUtagSummonAttackInfo@@PAU1@00@Z PROC ; std::_Move<tagSummonAttackInfo *,tagSummonAttackInfo *>, COMDAT

; 2533 : 	{	// move [_First, _Last) to [_Dest, ...), unchecked

  00000	55		 push	 ebp
  00001	8b ec		 mov	 ebp, esp
  00003	51		 push	 ecx

; 2534 : 	return (_Move(_First, _Last,
; 2535 : 		_Dest, _Ptr_cat(_First, _Dest)));

  00004	ff 75 fc	 push	 DWORD PTR __Cat$552083[ebp]
  00007	ff 75 10	 push	 DWORD PTR __Dest$[ebp]
  0000a	ff 75 0c	 push	 DWORD PTR __Last$[ebp]
  0000d	ff 75 08	 push	 DWORD PTR __First$[ebp]
  00010	e8 00 00 00 00	 call	 ??$_Move@PAUtagSummonAttackInfo@@PAU1@@std@@YAPAUtagSummonAttackInfo@@PAU1@00U_Nonscalar_ptr_iterator_tag@0@@Z ; std::_Move<tagSummonAttackInfo *,tagSummonAttackInfo *>
  00015	83 c4 10	 add	 esp, 16			; 00000010H

; 2536 : 	}

  00018	c9		 leave
  00019	c3		 ret	 0
??$_Move@PAUtagSummonAttackInfo@@PAU1@@std@@YAPAUtagSummonAttackInfo@@PAU1@00@Z ENDP ; std::_Move<tagSummonAttackInfo *,tagSummonAttackInfo *>
_TEXT	ENDS
PUBLIC	?construct@?$allocator@UtagSummonAttackInfo@@@std@@QAEXPAUtagSummonAttackInfo@@ABU3@@Z ; std::allocator<tagSummonAttackInfo>::construct
; Function compile flags: /Ogsp
; File c:\program files (x86)\microsoft visual studio 10.0\vc\include\xmemory
;	COMDAT ?construct@?$allocator@UtagSummonAttackInfo@@@std@@QAEXPAUtagSummonAttackInfo@@ABU3@@Z
_TEXT	SEGMENT
__Ptr$ = 8						; size = 4
__Val$ = 12						; size = 4
?construct@?$allocator@UtagSummonAttackInfo@@@std@@QAEXPAUtagSummonAttackInfo@@ABU3@@Z PROC ; std::allocator<tagSummonAttackInfo>::construct, COMDAT
; _this$ = ecx

; 196  : 		{	// construct object at _Ptr with value _Val

  00000	55		 push	 ebp
  00001	8b ec		 mov	 ebp, esp

; 197  : 		_Construct(_Ptr, _Val);

  00003	ff 75 0c	 push	 DWORD PTR __Val$[ebp]
  00006	ff 75 08	 push	 DWORD PTR __Ptr$[ebp]
  00009	e8 00 00 00 00	 call	 ??$_Construct@UtagSummonAttackInfo@@ABU1@@std@@YAXPAUtagSummonAttackInfo@@ABU1@@Z ; std::_Construct<tagSummonAttackInfo,tagSummonAttackInfo const &>
  0000e	59		 pop	 ecx
  0000f	59		 pop	 ecx

; 198  : 		}

  00010	5d		 pop	 ebp
  00011	c2 08 00	 ret	 8
?construct@?$allocator@UtagSummonAttackInfo@@@std@@QAEXPAUtagSummonAttackInfo@@ABU3@@Z ENDP ; std::allocator<tagSummonAttackInfo>::construct
_TEXT	ENDS
PUBLIC	?destroy@?$allocator@UtagSummonAttackInfo@@@std@@QAEXPAUtagSummonAttackInfo@@@Z ; std::allocator<tagSummonAttackInfo>::destroy
; Function compile flags: /Ogsp
;	COMDAT ?destroy@?$allocator@UtagSummonAttackInfo@@@std@@QAEXPAUtagSummonAttackInfo@@@Z
_TEXT	SEGMENT
__Ptr$ = 8						; size = 4
?destroy@?$allocator@UtagSummonAttackInfo@@@std@@QAEXPAUtagSummonAttackInfo@@@Z PROC ; std::allocator<tagSummonAttackInfo>::destroy, COMDAT
; _this$ = ecx

; 212  : 		{	// destroy object at _Ptr

  00000	55		 push	 ebp
  00001	8b ec		 mov	 ebp, esp

; 213  : 		_Destroy(_Ptr);

  00003	8b 4d 08	 mov	 ecx, DWORD PTR __Ptr$[ebp]
  00006	e8 00 00 00 00	 call	 ??1tagSummonAttackInfo@@QAE@XZ

; 214  : 		}

  0000b	5d		 pop	 ebp
  0000c	c2 04 00	 ret	 4
?destroy@?$allocator@UtagSummonAttackInfo@@@std@@QAEXPAUtagSummonAttackInfo@@@Z ENDP ; std::allocator<tagSummonAttackInfo>::destroy
_TEXT	ENDS
PUBLIC	??$_Cons_val@V?$allocator@UtagSummonAttackInfo@@@std@@UtagSummonAttackInfo@@ABU3@@std@@YAXAAV?$allocator@UtagSummonAttackInfo@@@0@PAUtagSummonAttackInfo@@ABU2@@Z ; std::_Cons_val<std::allocator<tagSummonAttackInfo>,tagSummonAttackInfo,tagSummonAttackInfo const &>
; Function compile flags: /Ogsp
;	COMDAT ??$_Cons_val@V?$allocator@UtagSummonAttackInfo@@@std@@UtagSummonAttackInfo@@ABU3@@std@@YAXAAV?$allocator@UtagSummonAttackInfo@@@0@PAUtagSummonAttackInfo@@ABU2@@Z
_TEXT	SEGMENT
__Alval$ = 8						; size = 4
__Pdest$ = 12						; size = 4
__Src$ = 16						; size = 4
??$_Cons_val@V?$allocator@UtagSummonAttackInfo@@@std@@UtagSummonAttackInfo@@ABU3@@std@@YAXAAV?$allocator@UtagSummonAttackInfo@@@0@PAUtagSummonAttackInfo@@ABU2@@Z PROC ; std::_Cons_val<std::allocator<tagSummonAttackInfo>,tagSummonAttackInfo,tagSummonAttackInfo const &>, COMDAT

; 279  : 	{	// construct using allocator

  00000	55		 push	 ebp
  00001	8b ec		 mov	 ebp, esp

; 280  : 	_Alval.construct(_Pdest, _STD forward<_Ty2>(_Src));

  00003	ff 75 10	 push	 DWORD PTR __Src$[ebp]
  00006	ff 75 0c	 push	 DWORD PTR __Pdest$[ebp]
  00009	e8 00 00 00 00	 call	 ??$_Construct@UtagSummonAttackInfo@@ABU1@@std@@YAXPAUtagSummonAttackInfo@@ABU1@@Z ; std::_Construct<tagSummonAttackInfo,tagSummonAttackInfo const &>
  0000e	59		 pop	 ecx
  0000f	59		 pop	 ecx

; 281  : 	}

  00010	5d		 pop	 ebp
  00011	c3		 ret	 0
??$_Cons_val@V?$allocator@UtagSummonAttackInfo@@@std@@UtagSummonAttackInfo@@ABU3@@std@@YAXAAV?$allocator@UtagSummonAttackInfo@@@0@PAUtagSummonAttackInfo@@ABU2@@Z ENDP ; std::_Cons_val<std::allocator<tagSummonAttackInfo>,tagSummonAttackInfo,tagSummonAttackInfo const &>
_TEXT	ENDS
PUBLIC	??$_Dest_val@V?$allocator@UtagSummonAttackInfo@@@std@@UtagSummonAttackInfo@@@std@@YAXAAV?$allocator@UtagSummonAttackInfo@@@0@PAUtagSummonAttackInfo@@@Z ; std::_Dest_val<std::allocator<tagSummonAttackInfo>,tagSummonAttackInfo>
; Function compile flags: /Ogsp
;	COMDAT ??$_Dest_val@V?$allocator@UtagSummonAttackInfo@@@std@@UtagSummonAttackInfo@@@std@@YAXAAV?$allocator@UtagSummonAttackInfo@@@0@PAUtagSummonAttackInfo@@@Z
_TEXT	SEGMENT
__Alval$ = 8						; size = 4
__Pdest$ = 12						; size = 4
??$_Dest_val@V?$allocator@UtagSummonAttackInfo@@@std@@UtagSummonAttackInfo@@@std@@YAXAAV?$allocator@UtagSummonAttackInfo@@@0@PAUtagSummonAttackInfo@@@Z PROC ; std::_Dest_val<std::allocator<tagSummonAttackInfo>,tagSummonAttackInfo>, COMDAT

; 286  : 	{	// destroy using allocator

  00000	55		 push	 ebp
  00001	8b ec		 mov	 ebp, esp

; 287  : 	_Alval.destroy(_Pdest);

  00003	8b 4d 0c	 mov	 ecx, DWORD PTR __Pdest$[ebp]

; 288  : 	}

  00006	5d		 pop	 ebp

; 287  : 	_Alval.destroy(_Pdest);

  00007	e9 00 00 00 00	 jmp	 ??1tagSummonAttackInfo@@QAE@XZ
??$_Dest_val@V?$allocator@UtagSummonAttackInfo@@@std@@UtagSummonAttackInfo@@@std@@YAXAAV?$allocator@UtagSummonAttackInfo@@@0@PAUtagSummonAttackInfo@@@Z ENDP ; std::_Dest_val<std::allocator<tagSummonAttackInfo>,tagSummonAttackInfo>
_TEXT	ENDS
PUBLIC	??$_Destroy_range@V?$allocator@UtagSummonAttackInfo@@@std@@@std@@YAXPAUtagSummonAttackInfo@@0AAV?$allocator@UtagSummonAttackInfo@@@0@U_Nonscalar_ptr_iterator_tag@0@@Z ; std::_Destroy_range<std::allocator<tagSummonAttackInfo> >
; Function compile flags: /Ogsp
;	COMDAT ??$_Destroy_range@V?$allocator@UtagSummonAttackInfo@@@std@@@std@@YAXPAUtagSummonAttackInfo@@0AAV?$allocator@UtagSummonAttackInfo@@@0@U_Nonscalar_ptr_iterator_tag@0@@Z
_TEXT	SEGMENT
__First$ = 8						; size = 4
__Last$ = 12						; size = 4
__Al$ = 16						; size = 4
___formal$ = 20						; size = 1
??$_Destroy_range@V?$allocator@UtagSummonAttackInfo@@@std@@@std@@YAXPAUtagSummonAttackInfo@@0AAV?$allocator@UtagSummonAttackInfo@@@0@U_Nonscalar_ptr_iterator_tag@0@@Z PROC ; std::_Destroy_range<std::allocator<tagSummonAttackInfo> >, COMDAT

; 95   : 	{	// destroy [_First, _Last), arbitrary type

  00000	55		 push	 ebp
  00001	8b ec		 mov	 ebp, esp
  00003	56		 push	 esi

; 96   : 	for (; _First != _Last; ++_First)

  00004	8b 75 08	 mov	 esi, DWORD PTR __First$[ebp]
  00007	eb 0a		 jmp	 SHORT $LN17@Destroy_ra@3
$LL3@Destroy_ra@3:

; 97   : 		_Dest_val(_Al, _First);

  00009	8b ce		 mov	 ecx, esi
  0000b	e8 00 00 00 00	 call	 ??1tagSummonAttackInfo@@QAE@XZ
  00010	83 c6 74	 add	 esi, 116		; 00000074H
$LN17@Destroy_ra@3:

; 96   : 	for (; _First != _Last; ++_First)

  00013	3b 75 0c	 cmp	 esi, DWORD PTR __Last$[ebp]
  00016	75 f1		 jne	 SHORT $LL3@Destroy_ra@3
  00018	5e		 pop	 esi

; 98   : 	}

  00019	5d		 pop	 ebp
  0001a	c3		 ret	 0
??$_Destroy_range@V?$allocator@UtagSummonAttackInfo@@@std@@@std@@YAXPAUtagSummonAttackInfo@@0AAV?$allocator@UtagSummonAttackInfo@@@0@U_Nonscalar_ptr_iterator_tag@0@@Z ENDP ; std::_Destroy_range<std::allocator<tagSummonAttackInfo> >
_TEXT	ENDS
PUBLIC	??$_Uninit_copy@V?$_Vector_const_iterator@V?$_Vector_val@UtagSummonAttackInfo@@V?$allocator@UtagSummonAttackInfo@@@std@@@std@@@std@@PAUtagSummonAttackInfo@@V?$allocator@UtagSummonAttackInfo@@@2@@std@@YAPAUtagSummonAttackInfo@@V?$_Vector_const_iterator@V?$_Vector_val@UtagSummonAttackInfo@@V?$allocator@UtagSummonAttackInfo@@@std@@@std@@@0@0PAU1@AAV?$allocator@UtagSummonAttackInfo@@@0@U_Nonscalar_ptr_iterator_tag@0@@Z ; std::_Uninit_copy<std::_Vector_const_iterator<std::_Vector_val<tagSummonAttackInfo,std::allocator<tagSummonAttackInfo> > >,tagSummonAttackInfo *,std::allocator<tagSummonAttackInfo> >
;	COMDAT xdata$x
xdata$x	SEGMENT
__catchsym$??$_Uninit_copy@V?$_Vector_const_iterator@V?$_Vector_val@UtagSummonAttackInfo@@V?$allocator@UtagSummonAttackInfo@@@std@@@std@@@std@@PAUtagSummonAttackInfo@@V?$allocator@UtagSummonAttackInfo@@@2@@std@@YAPAUtagSummonAttackInfo@@V?$_Vector_const_iterator@V?$_Vector_val@UtagSummonAttackInfo@@V?$allocator@UtagSummonAttackInfo@@@std@@@std@@@0@0PAU1@AAV?$allocator@UtagSummonAttackInfo@@@0@U_Nonscalar_ptr_iterator_tag@0@@Z$2 DD 040H
	DD	00H
	DD	00H
	DD	FLAT:__catch$??$_Uninit_copy@V?$_Vector_const_iterator@V?$_Vector_val@UtagSummonAttackInfo@@V?$allocator@UtagSummonAttackInfo@@@std@@@std@@@std@@PAUtagSummonAttackInfo@@V?$allocator@UtagSummonAttackInfo@@@2@@std@@YAPAUtagSummonAttackInfo@@V?$_Vector_const_iterator@V?$_Vector_val@UtagSummonAttackInfo@@V?$allocator@UtagSummonAttackInfo@@@std@@@std@@@0@0PAU1@AAV?$allocator@UtagSummonAttackInfo@@@0@U_Nonscalar_ptr_iterator_tag@0@@Z$0
__unwindtable$??$_Uninit_copy@V?$_Vector_const_iterator@V?$_Vector_val@UtagSummonAttackInfo@@V?$allocator@UtagSummonAttackInfo@@@std@@@std@@@std@@PAUtagSummonAttackInfo@@V?$allocator@UtagSummonAttackInfo@@@2@@std@@YAPAUtagSummonAttackInfo@@V?$_Vector_const_iterator@V?$_Vector_val@UtagSummonAttackInfo@@V?$allocator@UtagSummonAttackInfo@@@std@@@std@@@0@0PAU1@AAV?$allocator@UtagSummonAttackInfo@@@0@U_Nonscalar_ptr_iterator_tag@0@@Z DD 0ffffffffH
	DD	00H
	DD	0ffffffffH
	DD	00H
__tryblocktable$??$_Uninit_copy@V?$_Vector_const_iterator@V?$_Vector_val@UtagSummonAttackInfo@@V?$allocator@UtagSummonAttackInfo@@@std@@@std@@@std@@PAUtagSummonAttackInfo@@V?$allocator@UtagSummonAttackInfo@@@2@@std@@YAPAUtagSummonAttackInfo@@V?$_Vector_const_iterator@V?$_Vector_val@UtagSummonAttackInfo@@V?$allocator@UtagSummonAttackInfo@@@std@@@std@@@0@0PAU1@AAV?$allocator@UtagSummonAttackInfo@@@0@U_Nonscalar_ptr_iterator_tag@0@@Z DD 00H
	DD	00H
	DD	01H
	DD	01H
	DD	FLAT:__catchsym$??$_Uninit_copy@V?$_Vector_const_iterator@V?$_Vector_val@UtagSummonAttackInfo@@V?$allocator@UtagSummonAttackInfo@@@std@@@std@@@std@@PAUtagSummonAttackInfo@@V?$allocator@UtagSummonAttackInfo@@@2@@std@@YAPAUtagSummonAttackInfo@@V?$_Vector_const_iterator@V?$_Vector_val@UtagSummonAttackInfo@@V?$allocator@UtagSummonAttackInfo@@@std@@@std@@@0@0PAU1@AAV?$allocator@UtagSummonAttackInfo@@@0@U_Nonscalar_ptr_iterator_tag@0@@Z$2
__ehfuncinfo$??$_Uninit_copy@V?$_Vector_const_iterator@V?$_Vector_val@UtagSummonAttackInfo@@V?$allocator@UtagSummonAttackInfo@@@std@@@std@@@std@@PAUtagSummonAttackInfo@@V?$allocator@UtagSummonAttackInfo@@@2@@std@@YAPAUtagSummonAttackInfo@@V?$_Vector_const_iterator@V?$_Vector_val@UtagSummonAttackInfo@@V?$allocator@UtagSummonAttackInfo@@@std@@@std@@@0@0PAU1@AAV?$allocator@UtagSummonAttackInfo@@@0@U_Nonscalar_ptr_iterator_tag@0@@Z DD 019930522H
	DD	02H
	DD	FLAT:__unwindtable$??$_Uninit_copy@V?$_Vector_const_iterator@V?$_Vector_val@UtagSummonAttackInfo@@V?$allocator@UtagSummonAttackInfo@@@std@@@std@@@std@@PAUtagSummonAttackInfo@@V?$allocator@UtagSummonAttackInfo@@@2@@std@@YAPAUtagSummonAttackInfo@@V?$_Vector_const_iterator@V?$_Vector_val@UtagSummonAttackInfo@@V?$allocator@UtagSummonAttackInfo@@@std@@@std@@@0@0PAU1@AAV?$allocator@UtagSummonAttackInfo@@@0@U_Nonscalar_ptr_iterator_tag@0@@Z
	DD	01H
	DD	FLAT:__tryblocktable$??$_Uninit_copy@V?$_Vector_const_iterator@V?$_Vector_val@UtagSummonAttackInfo@@V?$allocator@UtagSummonAttackInfo@@@std@@@std@@@std@@PAUtagSummonAttackInfo@@V?$allocator@UtagSummonAttackInfo@@@2@@std@@YAPAUtagSummonAttackInfo@@V?$_Vector_const_iterator@V?$_Vector_val@UtagSummonAttackInfo@@V?$allocator@UtagSummonAttackInfo@@@std@@@std@@@0@0PAU1@AAV?$allocator@UtagSummonAttackInfo@@@0@U_Nonscalar_ptr_iterator_tag@0@@Z
	DD	2 DUP(00H)
	DD	00H
	DD	01H
; Function compile flags: /Ogsp
; File c:\program files (x86)\microsoft visual studio 10.0\vc\include\memory
xdata$x	ENDS
;	COMDAT ??$_Uninit_copy@V?$_Vector_const_iterator@V?$_Vector_val@UtagSummonAttackInfo@@V?$allocator@UtagSummonAttackInfo@@@std@@@std@@@std@@PAUtagSummonAttackInfo@@V?$allocator@UtagSummonAttackInfo@@@2@@std@@YAPAUtagSummonAttackInfo@@V?$_Vector_const_iterator@V?$_Vector_val@UtagSummonAttackInfo@@V?$allocator@UtagSummonAttackInfo@@@std@@@std@@@0@0PAU1@AAV?$allocator@UtagSummonAttackInfo@@@0@U_Nonscalar_ptr_iterator_tag@0@@Z
_TEXT	SEGMENT
__Next$ = -20						; size = 4
__$EHRec$ = -16						; size = 16
__First$ = 8						; size = 4
__Last$ = 12						; size = 4
__Dest$ = 16						; size = 4
__Al$ = 20						; size = 4
___formal$ = 24						; size = 1
??$_Uninit_copy@V?$_Vector_const_iterator@V?$_Vector_val@UtagSummonAttackInfo@@V?$allocator@UtagSummonAttackInfo@@@std@@@std@@@std@@PAUtagSummonAttackInfo@@V?$allocator@UtagSummonAttackInfo@@@2@@std@@YAPAUtagSummonAttackInfo@@V?$_Vector_const_iterator@V?$_Vector_val@UtagSummonAttackInfo@@V?$allocator@UtagSummonAttackInfo@@@std@@@std@@@0@0PAU1@AAV?$allocator@UtagSummonAttackInfo@@@0@U_Nonscalar_ptr_iterator_tag@0@@Z PROC ; std::_Uninit_copy<std::_Vector_const_iterator<std::_Vector_val<tagSummonAttackInfo,std::allocator<tagSummonAttackInfo> > >,tagSummonAttackInfo *,std::allocator<tagSummonAttackInfo> >, COMDAT

; 369  : 	{	// copy [_First, _Last) to raw _Dest, using _Al, arbitrary type

  00000	6a 08		 push	 8
  00002	b8 00 00 00 00	 mov	 eax, __ehhandler$??$_Uninit_copy@V?$_Vector_const_iterator@V?$_Vector_val@UtagSummonAttackInfo@@V?$allocator@UtagSummonAttackInfo@@@std@@@std@@@std@@PAUtagSummonAttackInfo@@V?$allocator@UtagSummonAttackInfo@@@2@@std@@YAPAUtagSummonAttackInfo@@V?$_Vector_const_iterator@V?$_Vector_val@UtagSummonAttackInfo@@V?$allocator@UtagSummonAttackInfo@@@std@@@std@@@0@0PAU1@AAV?$allocator@UtagSummonAttackInfo@@@0@U_Nonscalar_ptr_iterator_tag@0@@Z
  00007	e8 00 00 00 00	 call	 __EH_prolog3_catch

; 370  : 	_DEBUG_RANGE(_First, _Last);
; 371  : 	_DEBUG_POINTER(_Dest);
; 372  : 	_FwdIt _Next = _Dest;

  0000c	8b 45 10	 mov	 eax, DWORD PTR __Dest$[ebp]

; 373  : 
; 374  : 	_TRY_BEGIN

  0000f	83 65 fc 00	 and	 DWORD PTR __$EHRec$[ebp+12], 0
  00013	89 45 ec	 mov	 DWORD PTR __Next$[ebp], eax

; 375  : 	for (; _First != _Last; ++_Dest, ++_First)

$LL14@Uninit_cop@5:
  00016	8b 45 08	 mov	 eax, DWORD PTR __First$[ebp]
  00019	3b 45 0c	 cmp	 eax, DWORD PTR __Last$[ebp]
  0001c	74 32		 je	 SHORT $LN4@Uninit_cop@5

; 376  : 		_Cons_val(_Al, _Dest, *_First);

  0001e	50		 push	 eax
  0001f	ff 75 10	 push	 DWORD PTR __Dest$[ebp]
  00022	e8 00 00 00 00	 call	 ??$_Construct@UtagSummonAttackInfo@@ABU1@@std@@YAXPAUtagSummonAttackInfo@@ABU1@@Z ; std::_Construct<tagSummonAttackInfo,tagSummonAttackInfo const &>
  00027	83 45 10 74	 add	 DWORD PTR __Dest$[ebp], 116 ; 00000074H
  0002b	83 45 08 74	 add	 DWORD PTR __First$[ebp], 116 ; 00000074H
  0002f	59		 pop	 ecx
  00030	59		 pop	 ecx
  00031	eb e3		 jmp	 SHORT $LL14@Uninit_cop@5
__catch$??$_Uninit_copy@V?$_Vector_const_iterator@V?$_Vector_val@UtagSummonAttackInfo@@V?$allocator@UtagSummonAttackInfo@@@std@@@std@@@std@@PAUtagSummonAttackInfo@@V?$allocator@UtagSummonAttackInfo@@@2@@std@@YAPAUtagSummonAttackInfo@@V?$_Vector_const_iterator@V?$_Vector_val@UtagSummonAttackInfo@@V?$allocator@UtagSummonAttackInfo@@@std@@@std@@@0@0PAU1@AAV?$allocator@UtagSummonAttackInfo@@@0@U_Nonscalar_ptr_iterator_tag@0@@Z$0:

; 377  : 	_CATCH_ALL
; 378  : 	for (; _Next != _Dest; ++_Next)

  00033	8b 75 ec	 mov	 esi, DWORD PTR __Next$[ebp]
  00036	eb 0a		 jmp	 SHORT $LN45@Uninit_cop@5
$LL3@Uninit_cop@5:

; 379  : 		_Dest_val(_Al, _Next);

  00038	8b ce		 mov	 ecx, esi
  0003a	e8 00 00 00 00	 call	 ??1tagSummonAttackInfo@@QAE@XZ
  0003f	83 c6 74	 add	 esi, 116		; 00000074H
$LN45@Uninit_cop@5:

; 377  : 	_CATCH_ALL
; 378  : 	for (; _Next != _Dest; ++_Next)

  00042	3b 75 10	 cmp	 esi, DWORD PTR __Dest$[ebp]
  00045	75 f1		 jne	 SHORT $LL3@Uninit_cop@5

; 380  : 	_RERAISE;

  00047	6a 00		 push	 0
  00049	6a 00		 push	 0
  0004b	e8 00 00 00 00	 call	 __CxxThrowException@8
$LN46@Uninit_cop@5:
$LN4@Uninit_cop@5:

; 381  : 	_CATCH_END
; 382  : 	return (_Dest);

  00050	8b 45 10	 mov	 eax, DWORD PTR __Dest$[ebp]

; 383  : 	}

  00053	e8 00 00 00 00	 call	 __EH_epilog3
  00058	c3		 ret	 0
$LN44@Uninit_cop@5:
_TEXT	ENDS
;	COMDAT text$x
text$x	SEGMENT
__ehhandler$??$_Uninit_copy@V?$_Vector_const_iterator@V?$_Vector_val@UtagSummonAttackInfo@@V?$allocator@UtagSummonAttackInfo@@@std@@@std@@@std@@PAUtagSummonAttackInfo@@V?$allocator@UtagSummonAttackInfo@@@2@@std@@YAPAUtagSummonAttackInfo@@V?$_Vector_const_iterator@V?$_Vector_val@UtagSummonAttackInfo@@V?$allocator@UtagSummonAttackInfo@@@std@@@std@@@0@0PAU1@AAV?$allocator@UtagSummonAttackInfo@@@0@U_Nonscalar_ptr_iterator_tag@0@@Z:
  00000	8b 54 24 08	 mov	 edx, DWORD PTR [esp+8]
  00004	8d 42 0c	 lea	 eax, DWORD PTR [edx+12]
  00007	8b 4a e8	 mov	 ecx, DWORD PTR [edx-24]
  0000a	33 c8		 xor	 ecx, eax
  0000c	e8 00 00 00 00	 call	 @__security_check_cookie@4
  00011	b8 00 00 00 00	 mov	 eax, OFFSET __ehfuncinfo$??$_Uninit_copy@V?$_Vector_const_iterator@V?$_Vector_val@UtagSummonAttackInfo@@V?$allocator@UtagSummonAttackInfo@@@std@@@std@@@std@@PAUtagSummonAttackInfo@@V?$allocator@UtagSummonAttackInfo@@@2@@std@@YAPAUtagSummonAttackInfo@@V?$_Vector_const_iterator@V?$_Vector_val@UtagSummonAttackInfo@@V?$allocator@UtagSummonAttackInfo@@@std@@@std@@@0@0PAU1@AAV?$allocator@UtagSummonAttackInfo@@@0@U_Nonscalar_ptr_iterator_tag@0@@Z
  00016	e9 00 00 00 00	 jmp	 ___CxxFrameHandler3
text$x	ENDS
??$_Uninit_copy@V?$_Vector_const_iterator@V?$_Vector_val@UtagSummonAttackInfo@@V?$allocator@UtagSummonAttackInfo@@@std@@@std@@@std@@PAUtagSummonAttackInfo@@V?$allocator@UtagSummonAttackInfo@@@2@@std@@YAPAUtagSummonAttackInfo@@V?$_Vector_const_iterator@V?$_Vector_val@UtagSummonAttackInfo@@V?$allocator@UtagSummonAttackInfo@@@std@@@std@@@0@0PAU1@AAV?$allocator@UtagSummonAttackInfo@@@0@U_Nonscalar_ptr_iterator_tag@0@@Z ENDP ; std::_Uninit_copy<std::_Vector_const_iterator<std::_Vector_val<tagSummonAttackInfo,std::allocator<tagSummonAttackInfo> > >,tagSummonAttackInfo *,std::allocator<tagSummonAttackInfo> >
PUBLIC	??$_Uninit_move@PAUtagSummonAttackInfo@@PAU1@V?$allocator@UtagSummonAttackInfo@@@std@@U1@@std@@YAPAUtagSummonAttackInfo@@PAU1@00AAV?$allocator@UtagSummonAttackInfo@@@0@0U_Nonscalar_ptr_iterator_tag@0@@Z ; std::_Uninit_move<tagSummonAttackInfo *,tagSummonAttackInfo *,std::allocator<tagSummonAttackInfo>,tagSummonAttackInfo>
;	COMDAT xdata$x
; File c:\program files (x86)\microsoft visual studio 10.0\vc\include\xmemory
xdata$x	SEGMENT
__catchsym$??$_Uninit_move@PAUtagSummonAttackInfo@@PAU1@V?$allocator@UtagSummonAttackInfo@@@std@@U1@@std@@YAPAUtagSummonAttackInfo@@PAU1@00AAV?$allocator@UtagSummonAttackInfo@@@0@0U_Nonscalar_ptr_iterator_tag@0@@Z$2 DD 040H
	DD	00H
	DD	00H
	DD	FLAT:__catch$??$_Uninit_move@PAUtagSummonAttackInfo@@PAU1@V?$allocator@UtagSummonAttackInfo@@@std@@U1@@std@@YAPAUtagSummonAttackInfo@@PAU1@00AAV?$allocator@UtagSummonAttackInfo@@@0@0U_Nonscalar_ptr_iterator_tag@0@@Z$0
__unwindtable$??$_Uninit_move@PAUtagSummonAttackInfo@@PAU1@V?$allocator@UtagSummonAttackInfo@@@std@@U1@@std@@YAPAUtagSummonAttackInfo@@PAU1@00AAV?$allocator@UtagSummonAttackInfo@@@0@0U_Nonscalar_ptr_iterator_tag@0@@Z DD 0ffffffffH
	DD	00H
	DD	0ffffffffH
	DD	00H
__tryblocktable$??$_Uninit_move@PAUtagSummonAttackInfo@@PAU1@V?$allocator@UtagSummonAttackInfo@@@std@@U1@@std@@YAPAUtagSummonAttackInfo@@PAU1@00AAV?$allocator@UtagSummonAttackInfo@@@0@0U_Nonscalar_ptr_iterator_tag@0@@Z DD 00H
	DD	00H
	DD	01H
	DD	01H
	DD	FLAT:__catchsym$??$_Uninit_move@PAUtagSummonAttackInfo@@PAU1@V?$allocator@UtagSummonAttackInfo@@@std@@U1@@std@@YAPAUtagSummonAttackInfo@@PAU1@00AAV?$allocator@UtagSummonAttackInfo@@@0@0U_Nonscalar_ptr_iterator_tag@0@@Z$2
__ehfuncinfo$??$_Uninit_move@PAUtagSummonAttackInfo@@PAU1@V?$allocator@UtagSummonAttackInfo@@@std@@U1@@std@@YAPAUtagSummonAttackInfo@@PAU1@00AAV?$allocator@UtagSummonAttackInfo@@@0@0U_Nonscalar_ptr_iterator_tag@0@@Z DD 019930522H
	DD	02H
	DD	FLAT:__unwindtable$??$_Uninit_move@PAUtagSummonAttackInfo@@PAU1@V?$allocator@UtagSummonAttackInfo@@@std@@U1@@std@@YAPAUtagSummonAttackInfo@@PAU1@00AAV?$allocator@UtagSummonAttackInfo@@@0@0U_Nonscalar_ptr_iterator_tag@0@@Z
	DD	01H
	DD	FLAT:__tryblocktable$??$_Uninit_move@PAUtagSummonAttackInfo@@PAU1@V?$allocator@UtagSummonAttackInfo@@@std@@U1@@std@@YAPAUtagSummonAttackInfo@@PAU1@00AAV?$allocator@UtagSummonAttackInfo@@@0@0U_Nonscalar_ptr_iterator_tag@0@@Z
	DD	2 DUP(00H)
	DD	00H
	DD	01H
; Function compile flags: /Ogsp
; File c:\program files (x86)\microsoft visual studio 10.0\vc\include\memory
xdata$x	ENDS
;	COMDAT ??$_Uninit_move@PAUtagSummonAttackInfo@@PAU1@V?$allocator@UtagSummonAttackInfo@@@std@@U1@@std@@YAPAUtagSummonAttackInfo@@PAU1@00AAV?$allocator@UtagSummonAttackInfo@@@0@0U_Nonscalar_ptr_iterator_tag@0@@Z
_TEXT	SEGMENT
__Next$ = -20						; size = 4
__$EHRec$ = -16						; size = 16
__First$ = 8						; size = 4
__Last$ = 12						; size = 4
__Dest$ = 16						; size = 4
__Al$ = 20						; size = 4
___formal$ = 24						; size = 4
___formal$ = 28						; size = 1
??$_Uninit_move@PAUtagSummonAttackInfo@@PAU1@V?$allocator@UtagSummonAttackInfo@@@std@@U1@@std@@YAPAUtagSummonAttackInfo@@PAU1@00AAV?$allocator@UtagSummonAttackInfo@@@0@0U_Nonscalar_ptr_iterator_tag@0@@Z PROC ; std::_Uninit_move<tagSummonAttackInfo *,tagSummonAttackInfo *,std::allocator<tagSummonAttackInfo>,tagSummonAttackInfo>, COMDAT

; 424  : 	{	// move [_First, _Last) to raw _Dest, using _Al, arbitrary type

  00000	6a 08		 push	 8
  00002	b8 00 00 00 00	 mov	 eax, __ehhandler$??$_Uninit_move@PAUtagSummonAttackInfo@@PAU1@V?$allocator@UtagSummonAttackInfo@@@std@@U1@@std@@YAPAUtagSummonAttackInfo@@PAU1@00AAV?$allocator@UtagSummonAttackInfo@@@0@0U_Nonscalar_ptr_iterator_tag@0@@Z
  00007	e8 00 00 00 00	 call	 __EH_prolog3_catch

; 425  : 	_DEBUG_RANGE(_First, _Last);
; 426  : 	_DEBUG_POINTER(_Dest);
; 427  : 	_FwdIt _Next = _Dest;

  0000c	8b 45 10	 mov	 eax, DWORD PTR __Dest$[ebp]

; 428  : 
; 429  : 	_TRY_BEGIN

  0000f	83 65 fc 00	 and	 DWORD PTR __$EHRec$[ebp+12], 0
  00013	8b 75 08	 mov	 esi, DWORD PTR __First$[ebp]
  00016	89 45 ec	 mov	 DWORD PTR __Next$[ebp], eax
$LL6@Uninit_mov:

; 430  : 	for (; _First != _Last; ++_Dest, ++_First)

  00019	3b 75 0c	 cmp	 esi, DWORD PTR __Last$[ebp]
  0001c	74 35		 je	 SHORT $LN4@Uninit_mov

; 431  : 		_Cons_val(_Al, _Dest, (_Valty &&)*_First);

  0001e	56		 push	 esi
  0001f	ff 75 10	 push	 DWORD PTR __Dest$[ebp]
  00022	ff 75 14	 push	 DWORD PTR __Al$[ebp]
  00025	e8 00 00 00 00	 call	 ??$_Cons_val@V?$allocator@UtagSummonAttackInfo@@@std@@UtagSummonAttackInfo@@U3@@std@@YAXAAV?$allocator@UtagSummonAttackInfo@@@0@PAUtagSummonAttackInfo@@$$QAU2@@Z ; std::_Cons_val<std::allocator<tagSummonAttackInfo>,tagSummonAttackInfo,tagSummonAttackInfo>
  0002a	83 45 10 74	 add	 DWORD PTR __Dest$[ebp], 116 ; 00000074H
  0002e	83 c4 0c	 add	 esp, 12			; 0000000cH
  00031	83 c6 74	 add	 esi, 116		; 00000074H
  00034	eb e3		 jmp	 SHORT $LL6@Uninit_mov
__catch$??$_Uninit_move@PAUtagSummonAttackInfo@@PAU1@V?$allocator@UtagSummonAttackInfo@@@std@@U1@@std@@YAPAUtagSummonAttackInfo@@PAU1@00AAV?$allocator@UtagSummonAttackInfo@@@0@0U_Nonscalar_ptr_iterator_tag@0@@Z$0:

; 432  : 	_CATCH_ALL
; 433  : 	for (; _Next != _Dest; ++_Next)

  00036	8b 75 ec	 mov	 esi, DWORD PTR __Next$[ebp]
  00039	eb 0a		 jmp	 SHORT $LN29@Uninit_mov
$LL3@Uninit_mov:

; 434  : 		_Dest_val(_Al, _Next);

  0003b	8b ce		 mov	 ecx, esi
  0003d	e8 00 00 00 00	 call	 ??1tagSummonAttackInfo@@QAE@XZ
  00042	83 c6 74	 add	 esi, 116		; 00000074H
$LN29@Uninit_mov:

; 432  : 	_CATCH_ALL
; 433  : 	for (; _Next != _Dest; ++_Next)

  00045	3b 75 10	 cmp	 esi, DWORD PTR __Dest$[ebp]
  00048	75 f1		 jne	 SHORT $LL3@Uninit_mov

; 435  : 	_RERAISE;

  0004a	6a 00		 push	 0
  0004c	6a 00		 push	 0
  0004e	e8 00 00 00 00	 call	 __CxxThrowException@8
$LN30@Uninit_mov:
$LN4@Uninit_mov:

; 436  : 	_CATCH_END
; 437  : 	return (_Dest);

  00053	8b 45 10	 mov	 eax, DWORD PTR __Dest$[ebp]

; 438  : 	}

  00056	e8 00 00 00 00	 call	 __EH_epilog3
  0005b	c3		 ret	 0
$LN28@Uninit_mov:
_TEXT	ENDS
;	COMDAT text$x
text$x	SEGMENT
__ehhandler$??$_Uninit_move@PAUtagSummonAttackInfo@@PAU1@V?$allocator@UtagSummonAttackInfo@@@std@@U1@@std@@YAPAUtagSummonAttackInfo@@PAU1@00AAV?$allocator@UtagSummonAttackInfo@@@0@0U_Nonscalar_ptr_iterator_tag@0@@Z:
  00000	8b 54 24 08	 mov	 edx, DWORD PTR [esp+8]
  00004	8d 42 0c	 lea	 eax, DWORD PTR [edx+12]
  00007	8b 4a e8	 mov	 ecx, DWORD PTR [edx-24]
  0000a	33 c8		 xor	 ecx, eax
  0000c	e8 00 00 00 00	 call	 @__security_check_cookie@4
  00011	b8 00 00 00 00	 mov	 eax, OFFSET __ehfuncinfo$??$_Uninit_move@PAUtagSummonAttackInfo@@PAU1@V?$allocator@UtagSummonAttackInfo@@@std@@U1@@std@@YAPAUtagSummonAttackInfo@@PAU1@00AAV?$allocator@UtagSummonAttackInfo@@@0@0U_Nonscalar_ptr_iterator_tag@0@@Z
  00016	e9 00 00 00 00	 jmp	 ___CxxFrameHandler3
text$x	ENDS
??$_Uninit_move@PAUtagSummonAttackInfo@@PAU1@V?$allocator@UtagSummonAttackInfo@@@std@@U1@@std@@YAPAUtagSummonAttackInfo@@PAU1@00AAV?$allocator@UtagSummonAttackInfo@@@0@0U_Nonscalar_ptr_iterator_tag@0@@Z ENDP ; std::_Uninit_move<tagSummonAttackInfo *,tagSummonAttackInfo *,std::allocator<tagSummonAttackInfo>,tagSummonAttackInfo>
PUBLIC	??$_Destroy_range@V?$allocator@UtagSummonAttackInfo@@@std@@@std@@YAXPAUtagSummonAttackInfo@@0AAV?$allocator@UtagSummonAttackInfo@@@0@@Z ; std::_Destroy_range<std::allocator<tagSummonAttackInfo> >
; Function compile flags: /Ogsp
; File c:\program files (x86)\microsoft visual studio 10.0\vc\include\xmemory
;	COMDAT ??$_Destroy_range@V?$allocator@UtagSummonAttackInfo@@@std@@@std@@YAXPAUtagSummonAttackInfo@@0AAV?$allocator@UtagSummonAttackInfo@@@0@@Z
_TEXT	SEGMENT
__First$ = 8						; size = 4
__Last$ = 12						; size = 4
__Al$ = 16						; size = 4
??$_Destroy_range@V?$allocator@UtagSummonAttackInfo@@@std@@@std@@YAXPAUtagSummonAttackInfo@@0AAV?$allocator@UtagSummonAttackInfo@@@0@@Z PROC ; std::_Destroy_range<std::allocator<tagSummonAttackInfo> >, COMDAT

; 87   : 	{	// destroy [_First, _Last)

  00000	55		 push	 ebp
  00001	8b ec		 mov	 ebp, esp
  00003	56		 push	 esi

; 88   : 	_Destroy_range(_First, _Last, _Al, _Ptr_cat(_First, _Last));

  00004	8b 75 08	 mov	 esi, DWORD PTR __First$[ebp]
  00007	eb 0a		 jmp	 SHORT $LN21@Destroy_ra@4
$LL7@Destroy_ra@4:
  00009	8b ce		 mov	 ecx, esi
  0000b	e8 00 00 00 00	 call	 ??1tagSummonAttackInfo@@QAE@XZ
  00010	83 c6 74	 add	 esi, 116		; 00000074H
$LN21@Destroy_ra@4:
  00013	3b 75 0c	 cmp	 esi, DWORD PTR __Last$[ebp]
  00016	75 f1		 jne	 SHORT $LL7@Destroy_ra@4
  00018	5e		 pop	 esi

; 89   : 	}

  00019	5d		 pop	 ebp
  0001a	c3		 ret	 0
??$_Destroy_range@V?$allocator@UtagSummonAttackInfo@@@std@@@std@@YAXPAUtagSummonAttackInfo@@0AAV?$allocator@UtagSummonAttackInfo@@@0@@Z ENDP ; std::_Destroy_range<std::allocator<tagSummonAttackInfo> >
_TEXT	ENDS
PUBLIC	??$_Uninitialized_copy@V?$_Vector_const_iterator@V?$_Vector_val@UtagSummonAttackInfo@@V?$allocator@UtagSummonAttackInfo@@@std@@@std@@@std@@PAUtagSummonAttackInfo@@V?$allocator@UtagSummonAttackInfo@@@2@@std@@YAPAUtagSummonAttackInfo@@V?$_Vector_const_iterator@V?$_Vector_val@UtagSummonAttackInfo@@V?$allocator@UtagSummonAttackInfo@@@std@@@std@@@0@0PAU1@AAV?$allocator@UtagSummonAttackInfo@@@0@@Z ; std::_Uninitialized_copy<std::_Vector_const_iterator<std::_Vector_val<tagSummonAttackInfo,std::allocator<tagSummonAttackInfo> > >,tagSummonAttackInfo *,std::allocator<tagSummonAttackInfo> >
; Function compile flags: /Ogsp
; File c:\program files (x86)\microsoft visual studio 10.0\vc\include\memory
;	COMDAT ??$_Uninitialized_copy@V?$_Vector_const_iterator@V?$_Vector_val@UtagSummonAttackInfo@@V?$allocator@UtagSummonAttackInfo@@@std@@@std@@@std@@PAUtagSummonAttackInfo@@V?$allocator@UtagSummonAttackInfo@@@2@@std@@YAPAUtagSummonAttackInfo@@V?$_Vector_const_iterator@V?$_Vector_val@UtagSummonAttackInfo@@V?$allocator@UtagSummonAttackInfo@@@std@@@std@@@0@0PAU1@AAV?$allocator@UtagSummonAttackInfo@@@0@@Z
_TEXT	SEGMENT
__Cat$552354 = -4					; size = 1
__First$ = 8						; size = 4
__Last$ = 12						; size = 4
__Dest$ = 16						; size = 4
__Al$ = 20						; size = 4
??$_Uninitialized_copy@V?$_Vector_const_iterator@V?$_Vector_val@UtagSummonAttackInfo@@V?$allocator@UtagSummonAttackInfo@@@std@@@std@@@std@@PAUtagSummonAttackInfo@@V?$allocator@UtagSummonAttackInfo@@@2@@std@@YAPAUtagSummonAttackInfo@@V?$_Vector_const_iterator@V?$_Vector_val@UtagSummonAttackInfo@@V?$allocator@UtagSummonAttackInfo@@@std@@@std@@@0@0PAU1@AAV?$allocator@UtagSummonAttackInfo@@@0@@Z PROC ; std::_Uninitialized_copy<std::_Vector_const_iterator<std::_Vector_val<tagSummonAttackInfo,std::allocator<tagSummonAttackInfo> > >,tagSummonAttackInfo *,std::allocator<tagSummonAttackInfo> >, COMDAT

; 412  : 	{	// copy [_First, _Last) to raw _Dest, using _Al

  00000	55		 push	 ebp
  00001	8b ec		 mov	 ebp, esp
  00003	51		 push	 ecx

; 413  : 	return (_Uninit_copy(_First, _Last, _Dest, _Al,
; 414  : 		_Ptr_cat(_First, _Dest)));

  00004	ff 75 fc	 push	 DWORD PTR __Cat$552354[ebp]
  00007	ff 75 14	 push	 DWORD PTR __Al$[ebp]
  0000a	ff 75 10	 push	 DWORD PTR __Dest$[ebp]
  0000d	ff 75 0c	 push	 DWORD PTR __Last$[ebp]
  00010	ff 75 08	 push	 DWORD PTR __First$[ebp]
  00013	e8 00 00 00 00	 call	 ??$_Uninit_copy@V?$_Vector_const_iterator@V?$_Vector_val@UtagSummonAttackInfo@@V?$allocator@UtagSummonAttackInfo@@@std@@@std@@@std@@PAUtagSummonAttackInfo@@V?$allocator@UtagSummonAttackInfo@@@2@@std@@YAPAUtagSummonAttackInfo@@V?$_Vector_const_iterator@V?$_Vector_val@UtagSummonAttackInfo@@V?$allocator@UtagSummonAttackInfo@@@std@@@std@@@0@0PAU1@AAV?$allocator@UtagSummonAttackInfo@@@0@U_Nonscalar_ptr_iterator_tag@0@@Z ; std::_Uninit_copy<std::_Vector_const_iterator<std::_Vector_val<tagSummonAttackInfo,std::allocator<tagSummonAttackInfo> > >,tagSummonAttackInfo *,std::allocator<tagSummonAttackInfo> >
  00018	83 c4 14	 add	 esp, 20			; 00000014H

; 415  : 	}

  0001b	c9		 leave
  0001c	c3		 ret	 0
??$_Uninitialized_copy@V?$_Vector_const_iterator@V?$_Vector_val@UtagSummonAttackInfo@@V?$allocator@UtagSummonAttackInfo@@@std@@@std@@@std@@PAUtagSummonAttackInfo@@V?$allocator@UtagSummonAttackInfo@@@2@@std@@YAPAUtagSummonAttackInfo@@V?$_Vector_const_iterator@V?$_Vector_val@UtagSummonAttackInfo@@V?$allocator@UtagSummonAttackInfo@@@std@@@std@@@0@0PAU1@AAV?$allocator@UtagSummonAttackInfo@@@0@@Z ENDP ; std::_Uninitialized_copy<std::_Vector_const_iterator<std::_Vector_val<tagSummonAttackInfo,std::allocator<tagSummonAttackInfo> > >,tagSummonAttackInfo *,std::allocator<tagSummonAttackInfo> >
_TEXT	ENDS
PUBLIC	??$_Uninitialized_move@PAUtagSummonAttackInfo@@PAU1@V?$allocator@UtagSummonAttackInfo@@@std@@@std@@YAPAUtagSummonAttackInfo@@PAU1@00AAV?$allocator@UtagSummonAttackInfo@@@0@@Z ; std::_Uninitialized_move<tagSummonAttackInfo *,tagSummonAttackInfo *,std::allocator<tagSummonAttackInfo> >
; Function compile flags: /Ogsp
;	COMDAT ??$_Uninitialized_move@PAUtagSummonAttackInfo@@PAU1@V?$allocator@UtagSummonAttackInfo@@@std@@@std@@YAPAUtagSummonAttackInfo@@PAU1@00AAV?$allocator@UtagSummonAttackInfo@@@0@@Z
_TEXT	SEGMENT
__Cat$552360 = -4					; size = 1
__First$ = 8						; size = 4
__Last$ = 12						; size = 4
__Dest$ = 16						; size = 4
__Al$ = 20						; size = 4
??$_Uninitialized_move@PAUtagSummonAttackInfo@@PAU1@V?$allocator@UtagSummonAttackInfo@@@std@@@std@@YAPAUtagSummonAttackInfo@@PAU1@00AAV?$allocator@UtagSummonAttackInfo@@@0@@Z PROC ; std::_Uninitialized_move<tagSummonAttackInfo *,tagSummonAttackInfo *,std::allocator<tagSummonAttackInfo> >, COMDAT

; 469  : 	{	// move [_First, _Last) to raw _Dest, using _Al

  00000	55		 push	 ebp
  00001	8b ec		 mov	 ebp, esp
  00003	51		 push	 ecx

; 470  : 	return (_Uninit_move(_First, _Last, _Dest, _Al,
; 471  : 		_Val_type(_First), _Ptr_cat(_First, _Dest)));

  00004	ff 75 fc	 push	 DWORD PTR __Cat$552360[ebp]
  00007	6a 00		 push	 0
  00009	ff 75 14	 push	 DWORD PTR __Al$[ebp]
  0000c	ff 75 10	 push	 DWORD PTR __Dest$[ebp]
  0000f	ff 75 0c	 push	 DWORD PTR __Last$[ebp]
  00012	ff 75 08	 push	 DWORD PTR __First$[ebp]
  00015	e8 00 00 00 00	 call	 ??$_Uninit_move@PAUtagSummonAttackInfo@@PAU1@V?$allocator@UtagSummonAttackInfo@@@std@@U1@@std@@YAPAUtagSummonAttackInfo@@PAU1@00AAV?$allocator@UtagSummonAttackInfo@@@0@0U_Nonscalar_ptr_iterator_tag@0@@Z ; std::_Uninit_move<tagSummonAttackInfo *,tagSummonAttackInfo *,std::allocator<tagSummonAttackInfo>,tagSummonAttackInfo>
  0001a	83 c4 18	 add	 esp, 24			; 00000018H

; 472  : 	}

  0001d	c9		 leave
  0001e	c3		 ret	 0
??$_Uninitialized_move@PAUtagSummonAttackInfo@@PAU1@V?$allocator@UtagSummonAttackInfo@@@std@@@std@@YAPAUtagSummonAttackInfo@@PAU1@00AAV?$allocator@UtagSummonAttackInfo@@@0@@Z ENDP ; std::_Uninitialized_move<tagSummonAttackInfo *,tagSummonAttackInfo *,std::allocator<tagSummonAttackInfo> >
_TEXT	ENDS
PUBLIC	?_Destroy@?$vector@UtagSummonAttackInfo@@V?$allocator@UtagSummonAttackInfo@@@std@@@std@@IAEXPAUtagSummonAttackInfo@@0@Z ; std::vector<tagSummonAttackInfo,std::allocator<tagSummonAttackInfo> >::_Destroy
; Function compile flags: /Ogsp
; File c:\program files (x86)\microsoft visual studio 10.0\vc\include\vector
;	COMDAT ?_Destroy@?$vector@UtagSummonAttackInfo@@V?$allocator@UtagSummonAttackInfo@@@std@@@std@@IAEXPAUtagSummonAttackInfo@@0@Z
_TEXT	SEGMENT
__First$ = 8						; size = 4
__Last$ = 12						; size = 4
?_Destroy@?$vector@UtagSummonAttackInfo@@V?$allocator@UtagSummonAttackInfo@@@std@@@std@@IAEXPAUtagSummonAttackInfo@@0@Z PROC ; std::vector<tagSummonAttackInfo,std::allocator<tagSummonAttackInfo> >::_Destroy, COMDAT
; _this$ = ecx

; 1269 : 		{	// destroy [_First, _Last) using allocator

  00000	55		 push	 ebp
  00001	8b ec		 mov	 ebp, esp
  00003	56		 push	 esi

; 1270 : 		_Destroy_range(_First, _Last, this->_Alval);

  00004	8b 75 08	 mov	 esi, DWORD PTR __First$[ebp]
  00007	eb 0a		 jmp	 SHORT $LN23@Destroy
$LL9@Destroy:
  00009	8b ce		 mov	 ecx, esi
  0000b	e8 00 00 00 00	 call	 ??1tagSummonAttackInfo@@QAE@XZ
  00010	83 c6 74	 add	 esi, 116		; 00000074H
$LN23@Destroy:
  00013	3b 75 0c	 cmp	 esi, DWORD PTR __Last$[ebp]
  00016	75 f1		 jne	 SHORT $LL9@Destroy
  00018	5e		 pop	 esi

; 1271 : 		}

  00019	5d		 pop	 ebp
  0001a	c2 08 00	 ret	 8
?_Destroy@?$vector@UtagSummonAttackInfo@@V?$allocator@UtagSummonAttackInfo@@@std@@@std@@IAEXPAUtagSummonAttackInfo@@0@Z ENDP ; std::vector<tagSummonAttackInfo,std::allocator<tagSummonAttackInfo> >::_Destroy
_TEXT	ENDS
PUBLIC	?_Tidy@?$vector@UtagSummonAttackInfo@@V?$allocator@UtagSummonAttackInfo@@@std@@@std@@IAEXXZ ; std::vector<tagSummonAttackInfo,std::allocator<tagSummonAttackInfo> >::_Tidy
; Function compile flags: /Ogsp
;	COMDAT ?_Tidy@?$vector@UtagSummonAttackInfo@@V?$allocator@UtagSummonAttackInfo@@@std@@@std@@IAEXXZ
_TEXT	SEGMENT
?_Tidy@?$vector@UtagSummonAttackInfo@@V?$allocator@UtagSummonAttackInfo@@@std@@@std@@IAEXXZ PROC ; std::vector<tagSummonAttackInfo,std::allocator<tagSummonAttackInfo> >::_Tidy, COMDAT
; _this$ = ecx

; 1301 : 		{	// free all storage

  00000	56		 push	 esi
  00001	8b f1		 mov	 esi, ecx

; 1302 : 		if (this->_Myfirst != 0)

  00003	83 3e 00	 cmp	 DWORD PTR [esi], 0
  00006	74 27		 je	 SHORT $LN24@Tidy@3

; 1303 : 			{	// something to free, destroy and deallocate it
; 1304 : 			this->_Orphan_all();

  00008	53		 push	 ebx
  00009	57		 push	 edi
  0000a	ff 15 00 00 00
	00		 call	 DWORD PTR __imp_?_Orphan_all@_Container_base0@std@@QAEXXZ

; 1305 : 			_Destroy(this->_Myfirst, this->_Mylast);

  00010	8b 5e 04	 mov	 ebx, DWORD PTR [esi+4]
  00013	8b 3e		 mov	 edi, DWORD PTR [esi]
  00015	eb 0a		 jmp	 SHORT $LN28@Tidy@3
$LL12@Tidy@3:
  00017	8b cf		 mov	 ecx, edi
  00019	e8 00 00 00 00	 call	 ??1tagSummonAttackInfo@@QAE@XZ
  0001e	83 c7 74	 add	 edi, 116		; 00000074H
$LN28@Tidy@3:
  00021	3b fb		 cmp	 edi, ebx
  00023	75 f2		 jne	 SHORT $LL12@Tidy@3

; 1306 : 			this->_Alval.deallocate(this->_Myfirst,
; 1307 : 				this->_Myend - this->_Myfirst);

  00025	ff 36		 push	 DWORD PTR [esi]
  00027	e8 00 00 00 00	 call	 ??3@YAXPAX@Z		; operator delete
  0002c	59		 pop	 ecx
  0002d	5f		 pop	 edi
  0002e	5b		 pop	 ebx
$LN24@Tidy@3:

; 1308 : 			}
; 1309 : 		this->_Myfirst = 0;

  0002f	33 c0		 xor	 eax, eax
  00031	89 06		 mov	 DWORD PTR [esi], eax

; 1310 : 		this->_Mylast = 0;

  00033	89 46 04	 mov	 DWORD PTR [esi+4], eax

; 1311 : 		this->_Myend = 0;

  00036	89 46 08	 mov	 DWORD PTR [esi+8], eax
  00039	5e		 pop	 esi

; 1312 : 		}

  0003a	c3		 ret	 0
?_Tidy@?$vector@UtagSummonAttackInfo@@V?$allocator@UtagSummonAttackInfo@@@std@@@std@@IAEXXZ ENDP ; std::vector<tagSummonAttackInfo,std::allocator<tagSummonAttackInfo> >::_Tidy
_TEXT	ENDS
PUBLIC	??$_Ucopy@V?$_Vector_const_iterator@V?$_Vector_val@UtagSummonAttackInfo@@V?$allocator@UtagSummonAttackInfo@@@std@@@std@@@std@@@?$vector@UtagSummonAttackInfo@@V?$allocator@UtagSummonAttackInfo@@@std@@@std@@IAEPAUtagSummonAttackInfo@@V?$_Vector_const_iterator@V?$_Vector_val@UtagSummonAttackInfo@@V?$allocator@UtagSummonAttackInfo@@@std@@@std@@@1@0PAU2@@Z ; std::vector<tagSummonAttackInfo,std::allocator<tagSummonAttackInfo> >::_Ucopy<std::_Vector_const_iterator<std::_Vector_val<tagSummonAttackInfo,std::allocator<tagSummonAttackInfo> > > >
; Function compile flags: /Ogsp
;	COMDAT ??$_Ucopy@V?$_Vector_const_iterator@V?$_Vector_val@UtagSummonAttackInfo@@V?$allocator@UtagSummonAttackInfo@@@std@@@std@@@std@@@?$vector@UtagSummonAttackInfo@@V?$allocator@UtagSummonAttackInfo@@@std@@@std@@IAEPAUtagSummonAttackInfo@@V?$_Vector_const_iterator@V?$_Vector_val@UtagSummonAttackInfo@@V?$allocator@UtagSummonAttackInfo@@@std@@@std@@@1@0PAU2@@Z
_TEXT	SEGMENT
__First$ = 8						; size = 4
__Last$ = 12						; size = 4
__Cat$552558 = 16					; size = 1
__Ptr$ = 16						; size = 4
??$_Ucopy@V?$_Vector_const_iterator@V?$_Vector_val@UtagSummonAttackInfo@@V?$allocator@UtagSummonAttackInfo@@@std@@@std@@@std@@@?$vector@UtagSummonAttackInfo@@V?$allocator@UtagSummonAttackInfo@@@std@@@std@@IAEPAUtagSummonAttackInfo@@V?$_Vector_const_iterator@V?$_Vector_val@UtagSummonAttackInfo@@V?$allocator@UtagSummonAttackInfo@@@std@@@std@@@1@0PAU2@@Z PROC ; std::vector<tagSummonAttackInfo,std::allocator<tagSummonAttackInfo> >::_Ucopy<std::_Vector_const_iterator<std::_Vector_val<tagSummonAttackInfo,std::allocator<tagSummonAttackInfo> > > >, COMDAT
; _this$ = ecx

; 1315 : 		pointer _Ucopy(_Iter _First, _Iter _Last, pointer _Ptr)

  00000	55		 push	 ebp
  00001	8b ec		 mov	 ebp, esp

; 1316 : 		{	// copy initializing [_First, _Last), using allocator
; 1317 : 		return (_Uninitialized_copy(_First, _Last,
; 1318 : 			_Ptr, this->_Alval));

  00003	ff 75 10	 push	 DWORD PTR __Cat$552558[ebp]
  00006	83 c1 0c	 add	 ecx, 12			; 0000000cH
  00009	51		 push	 ecx
  0000a	ff 75 10	 push	 DWORD PTR __Ptr$[ebp]
  0000d	ff 75 0c	 push	 DWORD PTR __Last$[ebp]
  00010	ff 75 08	 push	 DWORD PTR __First$[ebp]
  00013	e8 00 00 00 00	 call	 ??$_Uninit_copy@V?$_Vector_const_iterator@V?$_Vector_val@UtagSummonAttackInfo@@V?$allocator@UtagSummonAttackInfo@@@std@@@std@@@std@@PAUtagSummonAttackInfo@@V?$allocator@UtagSummonAttackInfo@@@2@@std@@YAPAUtagSummonAttackInfo@@V?$_Vector_const_iterator@V?$_Vector_val@UtagSummonAttackInfo@@V?$allocator@UtagSummonAttackInfo@@@std@@@std@@@0@0PAU1@AAV?$allocator@UtagSummonAttackInfo@@@0@U_Nonscalar_ptr_iterator_tag@0@@Z ; std::_Uninit_copy<std::_Vector_const_iterator<std::_Vector_val<tagSummonAttackInfo,std::allocator<tagSummonAttackInfo> > >,tagSummonAttackInfo *,std::allocator<tagSummonAttackInfo> >
  00018	83 c4 14	 add	 esp, 20			; 00000014H

; 1319 : 		}

  0001b	5d		 pop	 ebp
  0001c	c2 0c 00	 ret	 12			; 0000000cH
??$_Ucopy@V?$_Vector_const_iterator@V?$_Vector_val@UtagSummonAttackInfo@@V?$allocator@UtagSummonAttackInfo@@@std@@@std@@@std@@@?$vector@UtagSummonAttackInfo@@V?$allocator@UtagSummonAttackInfo@@@std@@@std@@IAEPAUtagSummonAttackInfo@@V?$_Vector_const_iterator@V?$_Vector_val@UtagSummonAttackInfo@@V?$allocator@UtagSummonAttackInfo@@@std@@@std@@@1@0PAU2@@Z ENDP ; std::vector<tagSummonAttackInfo,std::allocator<tagSummonAttackInfo> >::_Ucopy<std::_Vector_const_iterator<std::_Vector_val<tagSummonAttackInfo,std::allocator<tagSummonAttackInfo> > > >
_TEXT	ENDS
PUBLIC	??$_Umove@PAUtagSummonAttackInfo@@@?$vector@UtagSummonAttackInfo@@V?$allocator@UtagSummonAttackInfo@@@std@@@std@@IAEPAUtagSummonAttackInfo@@PAU2@00@Z ; std::vector<tagSummonAttackInfo,std::allocator<tagSummonAttackInfo> >::_Umove<tagSummonAttackInfo *>
; Function compile flags: /Ogsp
;	COMDAT ??$_Umove@PAUtagSummonAttackInfo@@@?$vector@UtagSummonAttackInfo@@V?$allocator@UtagSummonAttackInfo@@@std@@@std@@IAEPAUtagSummonAttackInfo@@PAU2@00@Z
_TEXT	SEGMENT
__First$ = 8						; size = 4
__Last$ = 12						; size = 4
__Ptr$ = 16						; size = 4
??$_Umove@PAUtagSummonAttackInfo@@@?$vector@UtagSummonAttackInfo@@V?$allocator@UtagSummonAttackInfo@@@std@@@std@@IAEPAUtagSummonAttackInfo@@PAU2@00@Z PROC ; std::vector<tagSummonAttackInfo,std::allocator<tagSummonAttackInfo> >::_Umove<tagSummonAttackInfo *>, COMDAT
; _this$ = ecx

; 1322 : 		pointer _Umove(_Iter _First, _Iter _Last, pointer _Ptr)

  00000	55		 push	 ebp
  00001	8b ec		 mov	 ebp, esp

; 1323 : 		{	// move initializing [_First, _Last), using allocator
; 1324 : 		return (_Uninitialized_move(_First, _Last,
; 1325 : 			_Ptr, this->_Alval));

  00003	83 c1 0c	 add	 ecx, 12			; 0000000cH
  00006	51		 push	 ecx
  00007	ff 75 10	 push	 DWORD PTR __Ptr$[ebp]
  0000a	ff 75 0c	 push	 DWORD PTR __Last$[ebp]
  0000d	ff 75 08	 push	 DWORD PTR __First$[ebp]
  00010	e8 00 00 00 00	 call	 ??$_Uninitialized_move@PAUtagSummonAttackInfo@@PAU1@V?$allocator@UtagSummonAttackInfo@@@std@@@std@@YAPAUtagSummonAttackInfo@@PAU1@00AAV?$allocator@UtagSummonAttackInfo@@@0@@Z ; std::_Uninitialized_move<tagSummonAttackInfo *,tagSummonAttackInfo *,std::allocator<tagSummonAttackInfo> >
  00015	83 c4 10	 add	 esp, 16			; 00000010H

; 1326 : 		}

  00018	5d		 pop	 ebp
  00019	c2 0c 00	 ret	 12			; 0000000cH
??$_Umove@PAUtagSummonAttackInfo@@@?$vector@UtagSummonAttackInfo@@V?$allocator@UtagSummonAttackInfo@@@std@@@std@@IAEPAUtagSummonAttackInfo@@PAU2@00@Z ENDP ; std::vector<tagSummonAttackInfo,std::allocator<tagSummonAttackInfo> >::_Umove<tagSummonAttackInfo *>
_TEXT	ENDS
PUBLIC	??0?$vector@UtagSummonAttackInfo@@V?$allocator@UtagSummonAttackInfo@@@std@@@std@@QAE@ABV01@@Z ; std::vector<tagSummonAttackInfo,std::allocator<tagSummonAttackInfo> >::vector<tagSummonAttackInfo,std::allocator<tagSummonAttackInfo> >
;	COMDAT xdata$x
; File c:\program files (x86)\microsoft visual studio 10.0\vc\include\xutility
xdata$x	SEGMENT
__catchsym$??0?$vector@UtagSummonAttackInfo@@V?$allocator@UtagSummonAttackInfo@@@std@@@std@@QAE@ABV01@@Z$2 DD 040H
	DD	00H
	DD	00H
	DD	FLAT:__catch$??0?$vector@UtagSummonAttackInfo@@V?$allocator@UtagSummonAttackInfo@@@std@@@std@@QAE@ABV01@@Z$0
__unwindtable$??0?$vector@UtagSummonAttackInfo@@V?$allocator@UtagSummonAttackInfo@@@std@@@std@@QAE@ABV01@@Z DD 0ffffffffH
	DD	00H
	DD	0ffffffffH
	DD	00H
__tryblocktable$??0?$vector@UtagSummonAttackInfo@@V?$allocator@UtagSummonAttackInfo@@@std@@@std@@QAE@ABV01@@Z DD 00H
	DD	00H
	DD	01H
	DD	01H
	DD	FLAT:__catchsym$??0?$vector@UtagSummonAttackInfo@@V?$allocator@UtagSummonAttackInfo@@@std@@@std@@QAE@ABV01@@Z$2
__ehfuncinfo$??0?$vector@UtagSummonAttackInfo@@V?$allocator@UtagSummonAttackInfo@@@std@@@std@@QAE@ABV01@@Z DD 019930522H
	DD	02H
	DD	FLAT:__unwindtable$??0?$vector@UtagSummonAttackInfo@@V?$allocator@UtagSummonAttackInfo@@@std@@@std@@QAE@ABV01@@Z
	DD	01H
	DD	FLAT:__tryblocktable$??0?$vector@UtagSummonAttackInfo@@V?$allocator@UtagSummonAttackInfo@@@std@@@std@@QAE@ABV01@@Z
	DD	2 DUP(00H)
	DD	00H
	DD	01H
; Function compile flags: /Ogsp
; File c:\program files (x86)\microsoft visual studio 10.0\vc\include\vector
xdata$x	ENDS
;	COMDAT ??0?$vector@UtagSummonAttackInfo@@V?$allocator@UtagSummonAttackInfo@@@std@@@std@@QAE@ABV01@@Z
_TEXT	SEGMENT
_this$ = -20						; size = 4
__$EHRec$ = -16						; size = 16
__Cat$552642 = 8					; size = 1
__Right$ = 8						; size = 4
??0?$vector@UtagSummonAttackInfo@@V?$allocator@UtagSummonAttackInfo@@@std@@@std@@QAE@ABV01@@Z PROC ; std::vector<tagSummonAttackInfo,std::allocator<tagSummonAttackInfo> >::vector<tagSummonAttackInfo,std::allocator<tagSummonAttackInfo> >, COMDAT
; _this$ = ecx

; 535  : 		{	// construct by copying _Right

  00000	6a 08		 push	 8
  00002	b8 00 00 00 00	 mov	 eax, __ehhandler$??0?$vector@UtagSummonAttackInfo@@V?$allocator@UtagSummonAttackInfo@@@std@@@std@@QAE@ABV01@@Z
  00007	e8 00 00 00 00	 call	 __EH_prolog3_catch
  0000c	8b f1		 mov	 esi, ecx
  0000e	89 75 ec	 mov	 DWORD PTR _this$[ebp], esi

; 536  : 		if (_Buy(_Right.size()))

  00011	8b 7d 08	 mov	 edi, DWORD PTR __Right$[ebp]
  00014	33 db		 xor	 ebx, ebx
  00016	89 1e		 mov	 DWORD PTR [esi], ebx
  00018	89 5e 04	 mov	 DWORD PTR [esi+4], ebx
  0001b	89 5e 08	 mov	 DWORD PTR [esi+8], ebx
  0001e	8b 47 04	 mov	 eax, DWORD PTR [edi+4]
  00021	2b 07		 sub	 eax, DWORD PTR [edi]
  00023	6a 74		 push	 116			; 00000074H
  00025	59		 pop	 ecx
  00026	99		 cdq
  00027	f7 f9		 idiv	 ecx
  00029	8b ce		 mov	 ecx, esi
  0002b	50		 push	 eax
  0002c	e8 00 00 00 00	 call	 ?_Buy@?$vector@UtagSummonAttackInfo@@V?$allocator@UtagSummonAttackInfo@@@std@@@std@@IAE_NI@Z ; std::vector<tagSummonAttackInfo,std::allocator<tagSummonAttackInfo> >::_Buy
  00031	84 c0		 test	 al, al
  00033	74 1f		 je	 SHORT $LN7@vector@3

; 537  : 			_TRY_BEGIN
; 538  : 			this->_Mylast = _Ucopy(_Right.begin(), _Right.end(),
; 539  : 				this->_Myfirst);

  00035	ff 75 08	 push	 DWORD PTR __Cat$552642[ebp]
  00038	8b 0e		 mov	 ecx, DWORD PTR [esi]
  0003a	8b 47 04	 mov	 eax, DWORD PTR [edi+4]
  0003d	8b 3f		 mov	 edi, DWORD PTR [edi]
  0003f	8d 56 0c	 lea	 edx, DWORD PTR [esi+12]
  00042	52		 push	 edx
  00043	51		 push	 ecx
  00044	50		 push	 eax
  00045	57		 push	 edi
  00046	89 5d fc	 mov	 DWORD PTR __$EHRec$[ebp+12], ebx
  00049	e8 00 00 00 00	 call	 ??$_Uninit_copy@V?$_Vector_const_iterator@V?$_Vector_val@UtagSummonAttackInfo@@V?$allocator@UtagSummonAttackInfo@@@std@@@std@@@std@@PAUtagSummonAttackInfo@@V?$allocator@UtagSummonAttackInfo@@@2@@std@@YAPAUtagSummonAttackInfo@@V?$_Vector_const_iterator@V?$_Vector_val@UtagSummonAttackInfo@@V?$allocator@UtagSummonAttackInfo@@@std@@@std@@@0@0PAU1@AAV?$allocator@UtagSummonAttackInfo@@@0@U_Nonscalar_ptr_iterator_tag@0@@Z ; std::_Uninit_copy<std::_Vector_const_iterator<std::_Vector_val<tagSummonAttackInfo,std::allocator<tagSummonAttackInfo> > >,tagSummonAttackInfo *,std::allocator<tagSummonAttackInfo> >
  0004e	83 c4 14	 add	 esp, 20			; 00000014H
  00051	89 46 04	 mov	 DWORD PTR [esi+4], eax
$LN7@vector@3:

; 543  : 			_CATCH_END
; 544  : 		}

  00054	8b c6		 mov	 eax, esi
  00056	e8 00 00 00 00	 call	 __EH_epilog3
  0005b	c2 04 00	 ret	 4
__catch$??0?$vector@UtagSummonAttackInfo@@V?$allocator@UtagSummonAttackInfo@@@std@@@std@@QAE@ABV01@@Z$0:

; 540  : 			_CATCH_ALL
; 541  : 			_Tidy();

  0005e	8b 4d ec	 mov	 ecx, DWORD PTR _this$[ebp]
  00061	e8 00 00 00 00	 call	 ?_Tidy@?$vector@UtagSummonAttackInfo@@V?$allocator@UtagSummonAttackInfo@@@std@@@std@@IAEXXZ ; std::vector<tagSummonAttackInfo,std::allocator<tagSummonAttackInfo> >::_Tidy

; 542  : 			_RERAISE;

  00066	33 db		 xor	 ebx, ebx
  00068	53		 push	 ebx
  00069	53		 push	 ebx
  0006a	e8 00 00 00 00	 call	 __CxxThrowException@8
$LN38@vector@3:
$LN37@vector@3:
  0006f	cc		 int	 3
_TEXT	ENDS
;	COMDAT text$x
text$x	SEGMENT
__ehhandler$??0?$vector@UtagSummonAttackInfo@@V?$allocator@UtagSummonAttackInfo@@@std@@@std@@QAE@ABV01@@Z:
  00000	8b 54 24 08	 mov	 edx, DWORD PTR [esp+8]
  00004	8d 42 0c	 lea	 eax, DWORD PTR [edx+12]
  00007	8b 4a e8	 mov	 ecx, DWORD PTR [edx-24]
  0000a	33 c8		 xor	 ecx, eax
  0000c	e8 00 00 00 00	 call	 @__security_check_cookie@4
  00011	b8 00 00 00 00	 mov	 eax, OFFSET __ehfuncinfo$??0?$vector@UtagSummonAttackInfo@@V?$allocator@UtagSummonAttackInfo@@@std@@@std@@QAE@ABV01@@Z
  00016	e9 00 00 00 00	 jmp	 ___CxxFrameHandler3
text$x	ENDS
??0?$vector@UtagSummonAttackInfo@@V?$allocator@UtagSummonAttackInfo@@@std@@@std@@QAE@ABV01@@Z ENDP ; std::vector<tagSummonAttackInfo,std::allocator<tagSummonAttackInfo> >::vector<tagSummonAttackInfo,std::allocator<tagSummonAttackInfo> >
PUBLIC	??1?$vector@UtagSummonAttackInfo@@V?$allocator@UtagSummonAttackInfo@@@std@@@std@@QAE@XZ ; std::vector<tagSummonAttackInfo,std::allocator<tagSummonAttackInfo> >::~vector<tagSummonAttackInfo,std::allocator<tagSummonAttackInfo> >
; Function compile flags: /Ogsp
;	COMDAT ??1?$vector@UtagSummonAttackInfo@@V?$allocator@UtagSummonAttackInfo@@@std@@@std@@QAE@XZ
_TEXT	SEGMENT
??1?$vector@UtagSummonAttackInfo@@V?$allocator@UtagSummonAttackInfo@@@std@@@std@@QAE@XZ PROC ; std::vector<tagSummonAttackInfo,std::allocator<tagSummonAttackInfo> >::~vector<tagSummonAttackInfo,std::allocator<tagSummonAttackInfo> >, COMDAT
; _this$ = ecx

; 705  : 		_Tidy();

  00000	e9 00 00 00 00	 jmp	 ?_Tidy@?$vector@UtagSummonAttackInfo@@V?$allocator@UtagSummonAttackInfo@@@std@@@std@@IAEXXZ ; std::vector<tagSummonAttackInfo,std::allocator<tagSummonAttackInfo> >::_Tidy
??1?$vector@UtagSummonAttackInfo@@V?$allocator@UtagSummonAttackInfo@@@std@@@std@@QAE@XZ ENDP ; std::vector<tagSummonAttackInfo,std::allocator<tagSummonAttackInfo> >::~vector<tagSummonAttackInfo,std::allocator<tagSummonAttackInfo> >
_TEXT	ENDS
PUBLIC	?reserve@?$vector@UtagSummonAttackInfo@@V?$allocator@UtagSummonAttackInfo@@@std@@@std@@QAEXI@Z ; std::vector<tagSummonAttackInfo,std::allocator<tagSummonAttackInfo> >::reserve
;	COMDAT xdata$x
; File c:\program files (x86)\microsoft visual studio 10.0\vc\include\xmemory
xdata$x	SEGMENT
__catchsym$?reserve@?$vector@UtagSummonAttackInfo@@V?$allocator@UtagSummonAttackInfo@@@std@@@std@@QAEXI@Z$2 DD 040H
	DD	00H
	DD	00H
	DD	FLAT:__catch$?reserve@?$vector@UtagSummonAttackInfo@@V?$allocator@UtagSummonAttackInfo@@@std@@@std@@QAEXI@Z$0
__unwindtable$?reserve@?$vector@UtagSummonAttackInfo@@V?$allocator@UtagSummonAttackInfo@@@std@@@std@@QAEXI@Z DD 0ffffffffH
	DD	00H
	DD	0ffffffffH
	DD	00H
__tryblocktable$?reserve@?$vector@UtagSummonAttackInfo@@V?$allocator@UtagSummonAttackInfo@@@std@@@std@@QAEXI@Z DD 00H
	DD	00H
	DD	01H
	DD	01H
	DD	FLAT:__catchsym$?reserve@?$vector@UtagSummonAttackInfo@@V?$allocator@UtagSummonAttackInfo@@@std@@@std@@QAEXI@Z$2
__ehfuncinfo$?reserve@?$vector@UtagSummonAttackInfo@@V?$allocator@UtagSummonAttackInfo@@@std@@@std@@QAEXI@Z DD 019930522H
	DD	02H
	DD	FLAT:__unwindtable$?reserve@?$vector@UtagSummonAttackInfo@@V?$allocator@UtagSummonAttackInfo@@@std@@@std@@QAEXI@Z
	DD	01H
	DD	FLAT:__tryblocktable$?reserve@?$vector@UtagSummonAttackInfo@@V?$allocator@UtagSummonAttackInfo@@@std@@@std@@QAEXI@Z
	DD	2 DUP(00H)
	DD	00H
	DD	01H
; Function compile flags: /Ogsp
; File c:\program files (x86)\microsoft visual studio 10.0\vc\include\vector
xdata$x	ENDS
;	COMDAT ?reserve@?$vector@UtagSummonAttackInfo@@V?$allocator@UtagSummonAttackInfo@@@std@@@std@@QAEXI@Z
_TEXT	SEGMENT
__Ptr$543057 = -24					; size = 4
$T552759 = -20						; size = 4
__$EHRec$ = -16						; size = 16
__Count$ = 8						; size = 4
?reserve@?$vector@UtagSummonAttackInfo@@V?$allocator@UtagSummonAttackInfo@@@std@@@std@@QAEXI@Z PROC ; std::vector<tagSummonAttackInfo,std::allocator<tagSummonAttackInfo> >::reserve, COMDAT
; _this$ = ecx

; 746  : 		{	// determine new minimum length of allocated storage

  00000	6a 0c		 push	 12			; 0000000cH
  00002	b8 00 00 00 00	 mov	 eax, __ehhandler$?reserve@?$vector@UtagSummonAttackInfo@@V?$allocator@UtagSummonAttackInfo@@@std@@@std@@QAEXI@Z
  00007	e8 00 00 00 00	 call	 __EH_prolog3_catch
  0000c	8b f1		 mov	 esi, ecx

; 747  : 		if (max_size() < _Count)

  0000e	81 7d 08 2c f7
	34 02		 cmp	 DWORD PTR __Count$[ebp], 37025580 ; 0234f72cH
  00015	76 0b		 jbe	 SHORT $LN5@reserve

; 748  : 			_Xlen();	// result too long

  00017	68 00 00 00 00	 push	 OFFSET ??_C@_0BD@OLBABOEK@vector?$DMT?$DO?5too?5long?$AA@
  0001c	ff 15 00 00 00
	00		 call	 DWORD PTR __imp_?_Xlength_error@std@@YAXPBD@Z
$LN59@reserve:
$LN5@reserve:

; 749  : 		else if (capacity() < _Count)

  00022	8b 46 08	 mov	 eax, DWORD PTR [esi+8]
  00025	2b 06		 sub	 eax, DWORD PTR [esi]
  00027	6a 74		 push	 116			; 00000074H
  00029	99		 cdq
  0002a	59		 pop	 ecx
  0002b	f7 f9		 idiv	 ecx
  0002d	3b 45 08	 cmp	 eax, DWORD PTR __Count$[ebp]
  00030	0f 83 80 00 00
	00		 jae	 $LN3@reserve

; 750  : 			{	// not enough room, reallocate
; 751  : 			pointer _Ptr = this->_Alval.allocate(_Count);

  00036	6a 00		 push	 0
  00038	ff 75 08	 push	 DWORD PTR __Count$[ebp]
  0003b	e8 00 00 00 00	 call	 ??$_Allocate@UtagSummonAttackInfo@@@std@@YAPAUtagSummonAttackInfo@@IPAU1@@Z ; std::_Allocate<tagSummonAttackInfo>

; 752  : 
; 753  : 			_TRY_BEGIN
; 754  : 			_Umove(this->_Myfirst, this->_Mylast, _Ptr);

  00040	8b 0e		 mov	 ecx, DWORD PTR [esi]
  00042	83 65 fc 00	 and	 DWORD PTR __$EHRec$[ebp+12], 0
  00046	8d 56 0c	 lea	 edx, DWORD PTR [esi+12]
  00049	52		 push	 edx
  0004a	89 45 e8	 mov	 DWORD PTR __Ptr$543057[ebp], eax
  0004d	ff 75 e8	 push	 DWORD PTR __Ptr$543057[ebp]
  00050	8b 46 04	 mov	 eax, DWORD PTR [esi+4]
  00053	50		 push	 eax
  00054	51		 push	 ecx
  00055	e8 00 00 00 00	 call	 ??$_Uninitialized_move@PAUtagSummonAttackInfo@@PAU1@V?$allocator@UtagSummonAttackInfo@@@std@@@std@@YAPAUtagSummonAttackInfo@@PAU1@00AAV?$allocator@UtagSummonAttackInfo@@@0@@Z ; std::_Uninitialized_move<tagSummonAttackInfo *,tagSummonAttackInfo *,std::allocator<tagSummonAttackInfo> >

; 758  : 			_CATCH_END
; 759  : 
; 760  : 			size_type _Size = size();

  0005a	8b 5e 04	 mov	 ebx, DWORD PTR [esi+4]
  0005d	8b 0e		 mov	 ecx, DWORD PTR [esi]
  0005f	83 c4 18	 add	 esp, 24			; 00000018H
  00062	8b c3		 mov	 eax, ebx
  00064	2b c1		 sub	 eax, ecx
  00066	6a 74		 push	 116			; 00000074H
  00068	99		 cdq
  00069	5f		 pop	 edi
  0006a	f7 ff		 idiv	 edi
  0006c	83 4d fc ff	 or	 DWORD PTR __$EHRec$[ebp+12], -1
  00070	8b f8		 mov	 edi, eax
  00072	85 c9		 test	 ecx, ecx
  00074	74 20		 je	 SHORT $LN51@reserve

; 761  : 			if (this->_Myfirst != 0)
; 762  : 				{	// destroy and deallocate old array
; 763  : 				_Destroy(this->_Myfirst, this->_Mylast);

  00076	89 4d ec	 mov	 DWORD PTR $T552759[ebp], ecx
  00079	3b cb		 cmp	 ecx, ebx
  0007b	74 11		 je	 SHORT $LN37@reserve
$LN39@reserve:
  0007d	8b 4d ec	 mov	 ecx, DWORD PTR $T552759[ebp]
  00080	e8 00 00 00 00	 call	 ??1tagSummonAttackInfo@@QAE@XZ
  00085	83 45 ec 74	 add	 DWORD PTR $T552759[ebp], 116 ; 00000074H
  00089	39 5d ec	 cmp	 DWORD PTR $T552759[ebp], ebx
  0008c	75 ef		 jne	 SHORT $LN39@reserve
$LN37@reserve:

; 764  : 				this->_Alval.deallocate(this->_Myfirst,
; 765  : 					this->_Myend - this->_Myfirst);

  0008e	ff 36		 push	 DWORD PTR [esi]
  00090	e8 00 00 00 00	 call	 ??3@YAXPAX@Z		; operator delete
  00095	59		 pop	 ecx
$LN51@reserve:

; 766  : 				}
; 767  : 
; 768  : 			this->_Orphan_all();

  00096	8b ce		 mov	 ecx, esi
  00098	ff 15 00 00 00
	00		 call	 DWORD PTR __imp_?_Orphan_all@_Container_base0@std@@QAEXXZ

; 769  : 			this->_Myend = _Ptr + _Count;
; 770  : 			this->_Mylast = _Ptr + _Size;

  0009e	6b ff 74	 imul	 edi, 116		; 00000074H
  000a1	8b 45 08	 mov	 eax, DWORD PTR __Count$[ebp]
  000a4	8b 4d e8	 mov	 ecx, DWORD PTR __Ptr$543057[ebp]
  000a7	6b c0 74	 imul	 eax, 116		; 00000074H
  000aa	03 c1		 add	 eax, ecx
  000ac	03 f9		 add	 edi, ecx
  000ae	89 46 08	 mov	 DWORD PTR [esi+8], eax
  000b1	89 7e 04	 mov	 DWORD PTR [esi+4], edi

; 771  : 			this->_Myfirst = _Ptr;

  000b4	89 0e		 mov	 DWORD PTR [esi], ecx
$LN3@reserve:

; 772  : 			}
; 773  : 		}

  000b6	e8 00 00 00 00	 call	 __EH_epilog3
  000bb	c2 04 00	 ret	 4
__catch$?reserve@?$vector@UtagSummonAttackInfo@@V?$allocator@UtagSummonAttackInfo@@@std@@@std@@QAEXI@Z$0:

; 755  : 			_CATCH_ALL
; 756  : 			this->_Alval.deallocate(_Ptr, _Count);

  000be	ff 75 e8	 push	 DWORD PTR __Ptr$543057[ebp]
  000c1	e8 00 00 00 00	 call	 ??3@YAXPAX@Z		; operator delete
  000c6	59		 pop	 ecx

; 757  : 			_RERAISE;

  000c7	6a 00		 push	 0
  000c9	6a 00		 push	 0
  000cb	e8 00 00 00 00	 call	 __CxxThrowException@8
$LN60@reserve:
$LN58@reserve:
  000d0	cc		 int	 3
_TEXT	ENDS
;	COMDAT text$x
text$x	SEGMENT
__ehhandler$?reserve@?$vector@UtagSummonAttackInfo@@V?$allocator@UtagSummonAttackInfo@@@std@@@std@@QAEXI@Z:
  00000	8b 54 24 08	 mov	 edx, DWORD PTR [esp+8]
  00004	8d 42 0c	 lea	 eax, DWORD PTR [edx+12]
  00007	8b 4a e4	 mov	 ecx, DWORD PTR [edx-28]
  0000a	33 c8		 xor	 ecx, eax
  0000c	e8 00 00 00 00	 call	 @__security_check_cookie@4
  00011	b8 00 00 00 00	 mov	 eax, OFFSET __ehfuncinfo$?reserve@?$vector@UtagSummonAttackInfo@@V?$allocator@UtagSummonAttackInfo@@@std@@@std@@QAEXI@Z
  00016	e9 00 00 00 00	 jmp	 ___CxxFrameHandler3
text$x	ENDS
?reserve@?$vector@UtagSummonAttackInfo@@V?$allocator@UtagSummonAttackInfo@@@std@@@std@@QAEXI@Z ENDP ; std::vector<tagSummonAttackInfo,std::allocator<tagSummonAttackInfo> >::reserve
PUBLIC	?erase@?$vector@UtagSummonAttackInfo@@V?$allocator@UtagSummonAttackInfo@@@std@@@std@@QAE?AV?$_Vector_iterator@V?$_Vector_val@UtagSummonAttackInfo@@V?$allocator@UtagSummonAttackInfo@@@std@@@std@@@2@V?$_Vector_const_iterator@V?$_Vector_val@UtagSummonAttackInfo@@V?$allocator@UtagSummonAttackInfo@@@std@@@std@@@2@0@Z ; std::vector<tagSummonAttackInfo,std::allocator<tagSummonAttackInfo> >::erase
; Function compile flags: /Ogsp
;	COMDAT ?erase@?$vector@UtagSummonAttackInfo@@V?$allocator@UtagSummonAttackInfo@@@std@@@std@@QAE?AV?$_Vector_iterator@V?$_Vector_val@UtagSummonAttackInfo@@V?$allocator@UtagSummonAttackInfo@@@std@@@std@@@2@V?$_Vector_const_iterator@V?$_Vector_val@UtagSummonAttackInfo@@V?$allocator@UtagSummonAttackInfo@@@std@@@std@@@2@0@Z
_TEXT	SEGMENT
$T552954 = -4						; size = 4
___$ReturnUdt$ = 8					; size = 4
__First_arg$ = 12					; size = 4
__Cat$552899 = 16					; size = 1
__Last_arg$ = 16					; size = 4
?erase@?$vector@UtagSummonAttackInfo@@V?$allocator@UtagSummonAttackInfo@@@std@@@std@@QAE?AV?$_Vector_iterator@V?$_Vector_val@UtagSummonAttackInfo@@V?$allocator@UtagSummonAttackInfo@@@std@@@std@@@2@V?$_Vector_const_iterator@V?$_Vector_val@UtagSummonAttackInfo@@V?$allocator@UtagSummonAttackInfo@@@std@@@std@@@2@0@Z PROC ; std::vector<tagSummonAttackInfo,std::allocator<tagSummonAttackInfo> >::erase, COMDAT
; _this$ = ecx

; 1190 : 		{	// erase [_First, _Last)

  00000	55		 push	 ebp
  00001	8b ec		 mov	 ebp, esp
  00003	51		 push	 ecx

; 1191 : 		iterator _First = _Make_iter(_First_arg);

  00004	8b 45 08	 mov	 eax, DWORD PTR ___$ReturnUdt$[ebp]
  00007	56		 push	 esi
  00008	8b f1		 mov	 esi, ecx
  0000a	8b 4d 0c	 mov	 ecx, DWORD PTR __First_arg$[ebp]
  0000d	89 08		 mov	 DWORD PTR [eax], ecx

; 1192 : 		iterator _Last = _Make_iter(_Last_arg);
; 1193 : 
; 1194 : 		if (_First != _Last)

  0000f	3b 4d 10	 cmp	 ecx, DWORD PTR __Last_arg$[ebp]
  00012	74 37		 je	 SHORT $LN1@erase@3

; 1195 : 			{	// worth doing, copy down over hole
; 1196 :  #if _ITERATOR_DEBUG_LEVEL == 2
; 1197 : 			if (_Last < _First || _VICONT(_First) != this
; 1198 : 				|| _VIPTR(_First) < this->_Myfirst
; 1199 : 				|| this->_Mylast < _VIPTR(_Last))
; 1200 : 				_DEBUG_ERROR("vector erase iterator outside range");
; 1201 : 			pointer _Ptr = _Move(_VIPTR(_Last), this->_Mylast,
; 1202 : 				_VIPTR(_First));
; 1203 : 			_Orphan_range(_VIPTR(_First), this->_Mylast);
; 1204 : 
; 1205 :  #else /* _ITERATOR_DEBUG_LEVEL == 2 */
; 1206 : 			pointer _Ptr = _Move(_VIPTR(_Last), this->_Mylast,
; 1207 : 				_VIPTR(_First));

  00014	8b 46 04	 mov	 eax, DWORD PTR [esi+4]
  00017	53		 push	 ebx
  00018	57		 push	 edi
  00019	ff 75 10	 push	 DWORD PTR __Cat$552899[ebp]
  0001c	51		 push	 ecx
  0001d	50		 push	 eax
  0001e	ff 75 10	 push	 DWORD PTR __Last_arg$[ebp]
  00021	e8 00 00 00 00	 call	 ??$_Move@PAUtagSummonAttackInfo@@PAU1@@std@@YAPAUtagSummonAttackInfo@@PAU1@00U_Nonscalar_ptr_iterator_tag@0@@Z ; std::_Move<tagSummonAttackInfo *,tagSummonAttackInfo *>

; 1208 :  #endif /* _ITERATOR_DEBUG_LEVEL == 2 */
; 1209 : 
; 1210 : 			_Destroy(_Ptr, this->_Mylast);

  00026	8b 7e 04	 mov	 edi, DWORD PTR [esi+4]
  00029	8b d8		 mov	 ebx, eax
  0002b	83 c4 10	 add	 esp, 16			; 00000010H
  0002e	89 5d fc	 mov	 DWORD PTR $T552954[ebp], ebx
  00031	3b df		 cmp	 ebx, edi
  00033	74 11		 je	 SHORT $LN36@erase@3
$LL52@erase@3:
  00035	8b 4d fc	 mov	 ecx, DWORD PTR $T552954[ebp]
  00038	e8 00 00 00 00	 call	 ??1tagSummonAttackInfo@@QAE@XZ
  0003d	83 45 fc 74	 add	 DWORD PTR $T552954[ebp], 116 ; 00000074H
  00041	39 7d fc	 cmp	 DWORD PTR $T552954[ebp], edi
  00044	75 ef		 jne	 SHORT $LL52@erase@3
$LN36@erase@3:

; 1211 : 			this->_Mylast = _Ptr;

  00046	5f		 pop	 edi
  00047	89 5e 04	 mov	 DWORD PTR [esi+4], ebx
  0004a	5b		 pop	 ebx
$LN1@erase@3:

; 1212 : 			}
; 1213 : 		return (_First);

  0004b	8b 45 08	 mov	 eax, DWORD PTR ___$ReturnUdt$[ebp]
  0004e	5e		 pop	 esi

; 1214 : 		}

  0004f	c9		 leave
  00050	c2 0c 00	 ret	 12			; 0000000cH
?erase@?$vector@UtagSummonAttackInfo@@V?$allocator@UtagSummonAttackInfo@@@std@@@std@@QAE?AV?$_Vector_iterator@V?$_Vector_val@UtagSummonAttackInfo@@V?$allocator@UtagSummonAttackInfo@@@std@@@std@@@2@V?$_Vector_const_iterator@V?$_Vector_val@UtagSummonAttackInfo@@V?$allocator@UtagSummonAttackInfo@@@std@@@std@@@2@0@Z ENDP ; std::vector<tagSummonAttackInfo,std::allocator<tagSummonAttackInfo> >::erase
_TEXT	ENDS
PUBLIC	?_Reserve@?$vector@UtagSummonAttackInfo@@V?$allocator@UtagSummonAttackInfo@@@std@@@std@@IAEXI@Z ; std::vector<tagSummonAttackInfo,std::allocator<tagSummonAttackInfo> >::_Reserve
; Function compile flags: /Ogsp
;	COMDAT ?_Reserve@?$vector@UtagSummonAttackInfo@@V?$allocator@UtagSummonAttackInfo@@@std@@@std@@IAEXI@Z
_TEXT	SEGMENT
__Count$ = 8						; size = 4
?_Reserve@?$vector@UtagSummonAttackInfo@@V?$allocator@UtagSummonAttackInfo@@@std@@@std@@IAEXI@Z PROC ; std::vector<tagSummonAttackInfo,std::allocator<tagSummonAttackInfo> >::_Reserve, COMDAT
; _this$ = ecx

; 1290 : 		{	// ensure room for _Count new elements, grow exponentially

  00000	55		 push	 ebp
  00001	8b ec		 mov	 ebp, esp
  00003	56		 push	 esi
  00004	8b f1		 mov	 esi, ecx

; 1291 : 		size_type _Size = size();

  00006	8b 0e		 mov	 ecx, DWORD PTR [esi]
  00008	8b 46 04	 mov	 eax, DWORD PTR [esi+4]
  0000b	2b c1		 sub	 eax, ecx
  0000d	57		 push	 edi
  0000e	99		 cdq
  0000f	6a 74		 push	 116			; 00000074H
  00011	5f		 pop	 edi
  00012	f7 ff		 idiv	 edi
  00014	8b f8		 mov	 edi, eax

; 1292 : 		if (max_size() - _Count < _Size)

  00016	b8 2c f7 34 02	 mov	 eax, 37025580		; 0234f72cH
  0001b	2b 45 08	 sub	 eax, DWORD PTR __Count$[ebp]
  0001e	3b c7		 cmp	 eax, edi
  00020	73 0b		 jae	 SHORT $LN4@Reserve

; 1293 : 			_Xlen();

  00022	68 00 00 00 00	 push	 OFFSET ??_C@_0BD@OLBABOEK@vector?$DMT?$DO?5too?5long?$AA@
  00027	ff 15 00 00 00
	00		 call	 DWORD PTR __imp_?_Xlength_error@std@@YAXPBD@Z
$LN21@Reserve:
$LN4@Reserve:

; 1294 : 		else if ((_Size += _Count) <= capacity())

  0002d	8b 46 08	 mov	 eax, DWORD PTR [esi+8]
  00030	2b c1		 sub	 eax, ecx
  00032	6a 74		 push	 116			; 00000074H
  00034	99		 cdq
  00035	59		 pop	 ecx
  00036	f7 f9		 idiv	 ecx
  00038	03 7d 08	 add	 edi, DWORD PTR __Count$[ebp]
  0003b	3b f8		 cmp	 edi, eax
  0003d	76 10		 jbe	 SHORT $LN1@Reserve

; 1295 : 			;
; 1296 : 		else
; 1297 : 			reserve(_Grow_to(_Size));

  0003f	57		 push	 edi
  00040	8b ce		 mov	 ecx, esi
  00042	e8 00 00 00 00	 call	 ?_Grow_to@?$vector@UtagSummonAttackInfo@@V?$allocator@UtagSummonAttackInfo@@@std@@@std@@IBEII@Z ; std::vector<tagSummonAttackInfo,std::allocator<tagSummonAttackInfo> >::_Grow_to
  00047	50		 push	 eax
  00048	8b ce		 mov	 ecx, esi
  0004a	e8 00 00 00 00	 call	 ?reserve@?$vector@UtagSummonAttackInfo@@V?$allocator@UtagSummonAttackInfo@@@std@@@std@@QAEXI@Z ; std::vector<tagSummonAttackInfo,std::allocator<tagSummonAttackInfo> >::reserve
$LN1@Reserve:
  0004f	5f		 pop	 edi
  00050	5e		 pop	 esi

; 1298 : 		}

  00051	5d		 pop	 ebp
  00052	c2 04 00	 ret	 4
$LN20@Reserve:
?_Reserve@?$vector@UtagSummonAttackInfo@@V?$allocator@UtagSummonAttackInfo@@@std@@@std@@IAEXI@Z ENDP ; std::vector<tagSummonAttackInfo,std::allocator<tagSummonAttackInfo> >::_Reserve
_TEXT	ENDS
PUBLIC	??_7ioSummonChargeItem@@6B@			; ioSummonChargeItem::`vftable'
PUBLIC	??0ioSummonChargeItem@@QAE@XZ			; ioSummonChargeItem::ioSummonChargeItem
PUBLIC	??_R4ioSummonChargeItem@@6B@			; ioSummonChargeItem::`RTTI Complete Object Locator'
PUBLIC	??_R0?AVioSummonChargeItem@@@8			; ioSummonChargeItem `RTTI Type Descriptor'
PUBLIC	??_R3ioSummonChargeItem@@8			; ioSummonChargeItem::`RTTI Class Hierarchy Descriptor'
PUBLIC	??_R2ioSummonChargeItem@@8			; ioSummonChargeItem::`RTTI Base Class Array'
PUBLIC	??_R1A@?0A@EA@ioSummonChargeItem@@8		; ioSummonChargeItem::`RTTI Base Class Descriptor at (0,-1,0,64)'
PUBLIC	??_R1A@?0A@EA@ioWeaponItem@@8			; ioWeaponItem::`RTTI Base Class Descriptor at (0,-1,0,64)'
PUBLIC	??_R0?AVioWeaponItem@@@8			; ioWeaponItem `RTTI Type Descriptor'
PUBLIC	??_R3ioWeaponItem@@8				; ioWeaponItem::`RTTI Class Hierarchy Descriptor'
PUBLIC	??_R2ioWeaponItem@@8				; ioWeaponItem::`RTTI Base Class Array'
PUBLIC	??_R1A@?0A@EA@ioAttackableItem@@8		; ioAttackableItem::`RTTI Base Class Descriptor at (0,-1,0,64)'
PUBLIC	??_R0?AVioAttackableItem@@@8			; ioAttackableItem `RTTI Type Descriptor'
PUBLIC	??_R3ioAttackableItem@@8			; ioAttackableItem::`RTTI Class Hierarchy Descriptor'
PUBLIC	??_R2ioAttackableItem@@8			; ioAttackableItem::`RTTI Base Class Array'
PUBLIC	??_R1A@?0A@EA@ioItem@@8				; ioItem::`RTTI Base Class Descriptor at (0,-1,0,64)'
PUBLIC	??_R0?AVioItem@@@8				; ioItem `RTTI Type Descriptor'
PUBLIC	??_R3ioItem@@8					; ioItem::`RTTI Class Hierarchy Descriptor'
PUBLIC	??_R2ioItem@@8					; ioItem::`RTTI Base Class Array'
PUBLIC	?LoadProperty@ioSummonChargeItem@@UAEXAAVioINILoader@@@Z ; ioSummonChargeItem::LoadProperty
PUBLIC	?Clone@ioSummonChargeItem@@UAEPAVioItem@@XZ	; ioSummonChargeItem::Clone
PUBLIC	?GetExtraGauge@ioSummonChargeItem@@UAEMXZ	; ioSummonChargeItem::GetExtraGauge
PUBLIC	?CheckOnHand@ioAttackableItem@@UAE_NXZ		; ioAttackableItem::CheckOnHand
PUBLIC	?CheckAimState@ioAttackableItem@@UAE_N_N@Z	; ioAttackableItem::CheckAimState
PUBLIC	?SetAimState@ioAttackableItem@@UAE_NPAVioBaseChar@@@Z ; ioAttackableItem::SetAimState
PUBLIC	?CheckExtendDefenseEnable@ioAttackableItem@@UAE_NPAVioBaseChar@@@Z ; ioAttackableItem::CheckExtendDefenseEnable
PUBLIC	?IsMoveAttackState@ioAttackableItem@@UAE_NPAVioBaseChar@@@Z ; ioAttackableItem::IsMoveAttackState
PUBLIC	?IsNoGhostWalk@ioAttackableItem@@UAE_NPAVioBaseChar@@@Z ; ioAttackableItem::IsNoGhostWalk
PUBLIC	?IsEnableItemDashCheck@ioAttackableItem@@UAE_NPAVioBaseChar@@_N@Z ; ioAttackableItem::IsEnableItemDashCheck
PUBLIC	?IsEnableChargeDefenseCheck@ioAttackableItem@@UAE_NXZ ; ioAttackableItem::IsEnableChargeDefenseCheck
PUBLIC	?IsUseDefenceCounterAttackEndDash@ioAttackableItem@@UAE_NXZ ; ioAttackableItem::IsUseDefenceCounterAttackEndDash
PUBLIC	?IsAutoTarget@ioAttackableItem@@UBE_NXZ		; ioAttackableItem::IsAutoTarget
PUBLIC	?IsWoundAfterUseExtendState@ioAttackableItem@@UAE_NXZ ; ioAttackableItem::IsWoundAfterUseExtendState
PUBLIC	?CheckWoundAfterUseExtendState@ioAttackableItem@@UAE_NPAVioBaseChar@@W4BlowTargetType@@@Z ; ioAttackableItem::CheckWoundAfterUseExtendState
PUBLIC	?IsCharSkipState@ioAttackableItem@@UAE_NPBVioBaseChar@@@Z ; ioAttackableItem::IsCharSkipState
EXTRN	??1ioWeaponItem@@UAE@XZ:PROC			; ioWeaponItem::~ioWeaponItem
EXTRN	??0ioWeaponItem@@QAE@XZ:PROC			; ioWeaponItem::ioWeaponItem
EXTRN	?FindFieldEntityGrp@ioItem@@MBEABVioHashString@@XZ:PROC ; ioItem::FindFieldEntityGrp
EXTRN	?GetType@ioWeaponItem@@UBE?AW4ItemType@ioItem@@XZ:PROC ; ioWeaponItem::GetType
EXTRN	?UseCreateIndexItem@ioItem@@UBE_NXZ:PROC	; ioItem::UseCreateIndexItem
EXTRN	?GetSetFocusColor@ioItem@@UBEKXZ:PROC		; ioItem::GetSetFocusColor
EXTRN	?Initialize@ioItem@@UAEXABVioHashString@@PAVioPlayStage@@@Z:PROC ; ioItem::Initialize
EXTRN	?InitializeBeforeEquip@ioItem@@UAEXABVioHashString@@PAVioPlayStage@@@Z:PROC ; ioItem::InitializeBeforeEquip
EXTRN	?OnEquiped@ioAttackableItem@@UAEXPAVioBaseChar@@@Z:PROC ; ioAttackableItem::OnEquiped
EXTRN	?OnReleased@ioWeaponItem@@UAEXPAVioBaseChar@@@Z:PROC ; ioWeaponItem::OnReleased
EXTRN	?SetExtendEquipEffect@ioItem@@UAEXPAVioBaseChar@@@Z:PROC ; ioItem::SetExtendEquipEffect
EXTRN	?ReleaseExtendEquipEffect@ioItem@@UAEXPAVioBaseChar@@@Z:PROC ; ioItem::ReleaseExtendEquipEffect
EXTRN	?AddGlowLine@ioWeaponItem@@UAEXPAVioBaseChar@@@Z:PROC ; ioWeaponItem::AddGlowLine
EXTRN	?RemoveGlowLine@ioWeaponItem@@UAEXPAVioBaseChar@@@Z:PROC ; ioWeaponItem::RemoveGlowLine
EXTRN	?GetTargetName@ioItem@@UAE?AVioHashString@@XZ:PROC ; ioItem::GetTargetName
EXTRN	?ClearTarget@ioItem@@UAEXXZ:PROC		; ioItem::ClearTarget
EXTRN	?SetItemType@ioWeaponItem@@UAEXXZ:PROC		; ioWeaponItem::SetItemType
EXTRN	?UpdateExtraData@ioItem@@UAEXPAVioBaseChar@@@Z:PROC ; ioItem::UpdateExtraData
EXTRN	?CheckWeaponDefenseState@ioItem@@UAEXPAVioBaseChar@@@Z:PROC ; ioItem::CheckWeaponDefenseState
EXTRN	?CheckWoundedState@ioItem@@UAEXPAVioBaseChar@@@Z:PROC ; ioItem::CheckWoundedState
EXTRN	?SetVisible@ioItem@@UAEXPAVioBaseChar@@_N@Z:PROC ; ioItem::SetVisible
EXTRN	?ReduceNeedGauge@ioItem@@UAEXMPAVioBaseChar@@@Z:PROC ; ioItem::ReduceNeedGauge
EXTRN	?GetCurBullet@ioItem@@UAEHXZ:PROC		; ioItem::GetCurBullet
EXTRN	?GetMaxBullet@ioItem@@UAEHXZ:PROC		; ioItem::GetMaxBullet
EXTRN	?SetCurBullet@ioItem@@UAEXH@Z:PROC		; ioItem::SetCurBullet
EXTRN	?GetCurSecoundBullet@ioItem@@UAEHXZ:PROC	; ioItem::GetCurSecoundBullet
EXTRN	?GetMaxSecoundBullet@ioItem@@UAEHXZ:PROC	; ioItem::GetMaxSecoundBullet
EXTRN	?SetCurSecoundBullet@ioItem@@UAEXH@Z:PROC	; ioItem::SetCurSecoundBullet
EXTRN	?GetGrowthInfoNum@ioItem@@UBEHH@Z:PROC		; ioItem::GetGrowthInfoNum
EXTRN	?GetGrowthInfoNumByType@ioItem@@UBEHHAAH@Z:PROC	; ioItem::GetGrowthInfoNumByType
EXTRN	?ClearCurChargeRateForSkill@ioItem@@UAEXXZ:PROC	; ioItem::ClearCurChargeRateForSkill
EXTRN	?GetChargeDamageRateForSkill@ioItem@@UAEMXZ:PROC ; ioItem::GetChargeDamageRateForSkill
EXTRN	?GetChargeForceRateForSkill@ioItem@@UAEMXZ:PROC	; ioItem::GetChargeForceRateForSkill
EXTRN	?GetChargeBlowRateForSkill@ioItem@@UAEMXZ:PROC	; ioItem::GetChargeBlowRateForSkill
EXTRN	?GetChargeRangeRateForSkill@ioItem@@UAEMXZ:PROC	; ioItem::GetChargeRangeRateForSkill
EXTRN	?GetChargeSpeedRateForSkill@ioItem@@UAEMXZ:PROC	; ioItem::GetChargeSpeedRateForSkill
EXTRN	?GetChargeFloatRateForSkill@ioItem@@UAEMXZ:PROC	; ioItem::GetChargeFloatRateForSkill
EXTRN	?GetChargeScaleRateForSkill@ioItem@@UAEMXZ:PROC	; ioItem::GetChargeScaleRateForSkill
EXTRN	?GetChargeExplosionRateForSkill@ioItem@@UAEMXZ:PROC ; ioItem::GetChargeExplosionRateForSkill
EXTRN	?GetChargeWoundedTimeRateForSkill@ioItem@@UAEMXZ:PROC ; ioItem::GetChargeWoundedTimeRateForSkill
EXTRN	?SetCurEquipEffect@ioItem@@UAEX_N@Z:PROC	; ioItem::SetCurEquipEffect
EXTRN	?SetCostume@ioItem@@UAEXH_N@Z:PROC		; ioItem::SetCostume
EXTRN	??_EioSummonChargeItem@@UAEPAXI@Z:PROC		; ioSummonChargeItem::`vector deleting destructor'
EXTRN	?IsCanFire@ioAttackableItem@@UBE_NPBVioBaseChar@@H_N@Z:PROC ; ioAttackableItem::IsCanFire
EXTRN	?CallItemProcess@ioAttackableItem@@UAEXPAVioBaseChar@@@Z:PROC ; ioAttackableItem::CallItemProcess
EXTRN	?CheckChargeInfo@ioAttackableItem@@UAEXPAVioWeapon@@_N@Z:PROC ; ioAttackableItem::CheckChargeInfo
EXTRN	?SetExtendDefenseState@ioAttackableItem@@UAE_NPAVioBaseChar@@@Z:PROC ; ioAttackableItem::SetExtendDefenseState
EXTRN	?CheckExtendDefenseState@ioAttackableItem@@UAEXPAVioBaseChar@@@Z:PROC ; ioAttackableItem::CheckExtendDefenseState
EXTRN	?CheckDefenseMoveAniState@ioAttackableItem@@UAEXPAVioBaseChar@@@Z:PROC ; ioAttackableItem::CheckDefenseMoveAniState
EXTRN	?SetDodgeDefenseState@ioAttackableItem@@UAE_NPAVioBaseChar@@@Z:PROC ; ioAttackableItem::SetDodgeDefenseState
EXTRN	?CheckDodgeDefenseState@ioAttackableItem@@UAEXPAVioBaseChar@@@Z:PROC ; ioAttackableItem::CheckDodgeDefenseState
EXTRN	?ApplyDodgeDefenseState@ioAttackableItem@@UAEXPAVioBaseChar@@AAVSP2Packet@@@Z:PROC ; ioAttackableItem::ApplyDodgeDefenseState
EXTRN	?SetDefenseAttackState@ioAttackableItem@@UAE_NPAVioBaseChar@@@Z:PROC ; ioAttackableItem::SetDefenseAttackState
EXTRN	?CheckDefenseAttackState@ioAttackableItem@@UAEXPAVioBaseChar@@@Z:PROC ; ioAttackableItem::CheckDefenseAttackState
EXTRN	?ApplyDefenseAttackState@ioAttackableItem@@UAEXPAVioBaseChar@@AAVSP2Packet@@@Z:PROC ; ioAttackableItem::ApplyDefenseAttackState
EXTRN	?SetExtendDashState@ioAttackableItem@@UAE_NPAVioBaseChar@@@Z:PROC ; ioAttackableItem::SetExtendDashState
EXTRN	?CheckExtendDashState@ioAttackableItem@@UAEXPAVioBaseChar@@@Z:PROC ; ioAttackableItem::CheckExtendDashState
EXTRN	?CheckJumpAttack@ioAttackableItem@@UAEXPAVioBaseChar@@@Z:PROC ; ioAttackableItem::CheckJumpAttack
EXTRN	?SetJumpReloadState@ioAttackableItem@@UAE_NPAVioBaseChar@@@Z:PROC ; ioAttackableItem::SetJumpReloadState
EXTRN	?SetJumpReload@ioAttackableItem@@UAE_NPAVioBaseChar@@@Z:PROC ; ioAttackableItem::SetJumpReload
EXTRN	?CheckJumpReloadState@ioAttackableItem@@UAEXPAVioBaseChar@@@Z:PROC ; ioAttackableItem::CheckJumpReloadState
EXTRN	?CheckJumpReloadReserve@ioAttackableItem@@UAEXPAVioBaseChar@@@Z:PROC ; ioAttackableItem::CheckJumpReloadReserve
EXTRN	?ProcessJumpReloadState@ioAttackableItem@@UAEXPAVioBaseChar@@@Z:PROC ; ioAttackableItem::ProcessJumpReloadState
EXTRN	?ApplyJumpReload@ioAttackableItem@@UAEXPAVioBaseChar@@AAVSP2Packet@@@Z:PROC ; ioAttackableItem::ApplyJumpReload
EXTRN	?OnItemGaugeCancel@ioAttackableItem@@UAEXPAVioBaseChar@@AAVSP2Packet@@@Z:PROC ; ioAttackableItem::OnItemGaugeCancel
EXTRN	?OnEndExtendDefense@ioAttackableItem@@UAEXPAVioBaseChar@@@Z:PROC ; ioAttackableItem::OnEndExtendDefense
EXTRN	?OnEndNormalAttack@ioAttackableItem@@UAEXPAVioBaseChar@@@Z:PROC ; ioAttackableItem::OnEndNormalAttack
EXTRN	?OnEndExtendJump@ioAttackableItem@@UAEXPAVioBaseChar@@@Z:PROC ; ioAttackableItem::OnEndExtendJump
EXTRN	?FillNormalAttackExtraInfo@ioAttackableItem@@UAEXAAVSP2Packet@@@Z:PROC ; ioAttackableItem::FillNormalAttackExtraInfo
EXTRN	?ApplyNormalAttackExtraInfo@ioAttackableItem@@UAEXAAVSP2Packet@@@Z:PROC ; ioAttackableItem::ApplyNormalAttackExtraInfo
EXTRN	?CheckLanding@ioAttackableItem@@UAE_NPAVioBaseChar@@@Z:PROC ; ioAttackableItem::CheckLanding
EXTRN	?SetNoneState@ioAttackableItem@@UAEXPAVioBaseChar@@H@Z:PROC ; ioAttackableItem::SetNoneState
EXTRN	?IsCanUpdateGauge@ioAttackableItem@@UAE_NPAVioBaseChar@@@Z:PROC ; ioAttackableItem::IsCanUpdateGauge
EXTRN	?CheckAimJumpState@ioAttackableItem@@UAEXPAVioBaseChar@@@Z:PROC ; ioAttackableItem::CheckAimJumpState
EXTRN	?GetJumppingAnimation@ioAttackableItem@@UBEABVioHashString@@XZ:PROC ; ioAttackableItem::GetJumppingAnimation
EXTRN	?GetExtendJumppingAnimation@ioAttackableItem@@UBEABVioHashString@@XZ:PROC ; ioAttackableItem::GetExtendJumppingAnimation
EXTRN	?CheckRetreatState@ioAttackableItem@@UAEXPAVioBaseChar@@@Z:PROC ; ioAttackableItem::CheckRetreatState
EXTRN	?SetNextItemState@ioAttackableItem@@UAEXPAVioBaseChar@@0PAVioWeapon@@_NM@Z:PROC ; ioAttackableItem::SetNextItemState
EXTRN	?WeaponWounded@ioWeaponItem@@UAEXPAVioWeapon@@PAVioBaseChar@@@Z:PROC ; ioWeaponItem::WeaponWounded
EXTRN	?WeaponMapColDead@ioAttackableItem@@UAEXPAVioWeapon@@@Z:PROC ; ioAttackableItem::WeaponMapColDead
EXTRN	?SetDefenceCounterState@ioAttackableItem@@UAEXPAVioBaseChar@@@Z:PROC ; ioAttackableItem::SetDefenceCounterState
EXTRN	?IsUseDefenceCounterAttack@ioAttackableItem@@UAE_NXZ:PROC ; ioAttackableItem::IsUseDefenceCounterAttack
EXTRN	?ProcessDefenceCounterAttack@ioAttackableItem@@UAEXPAVioBaseChar@@@Z:PROC ; ioAttackableItem::ProcessDefenceCounterAttack
EXTRN	?ProcessExtraJump@ioAttackableItem@@UAEXPAVioBaseChar@@@Z:PROC ; ioAttackableItem::ProcessExtraJump
EXTRN	?SetEndGrappling@ioAttackableItem@@UAEXPAVioBaseChar@@@Z:PROC ; ioAttackableItem::SetEndGrappling
EXTRN	?ClearKeyReserve@ioAttackableItem@@MAEXXZ:PROC	; ioAttackableItem::ClearKeyReserve
EXTRN	?ProcessReserveKeyInput@ioAttackableItem@@MAEXPAVioBaseChar@@@Z:PROC ; ioAttackableItem::ProcessReserveKeyInput
EXTRN	?SetJumpState@ioAttackableItem@@UAEXXZ:PROC	; ioAttackableItem::SetJumpState
EXTRN	?SetJumpping@ioAttackableItem@@UAEXPAVioBaseChar@@_N@Z:PROC ; ioAttackableItem::SetJumpping
EXTRN	?ProcessJumpping@ioAttackableItem@@UAEXPAVioBaseChar@@M@Z:PROC ; ioAttackableItem::ProcessJumpping
EXTRN	?ProcessJumppingByNoNeedProcess@ioAttackableItem@@UAEXPAVioBaseChar@@M@Z:PROC ; ioAttackableItem::ProcessJumppingByNoNeedProcess
EXTRN	?ProcessLanding@ioAttackableItem@@UAEXPAVioBaseChar@@@Z:PROC ; ioAttackableItem::ProcessLanding
EXTRN	?ProcessAimJump@ioAttackableItem@@UAE_NPAVioBaseChar@@M@Z:PROC ; ioAttackableItem::ProcessAimJump
EXTRN	?ApplyJump@ioAttackableItem@@UAEXPAVioBaseChar@@AAVSP2Packet@@@Z:PROC ; ioAttackableItem::ApplyJump
EXTRN	?ApplyDash@ioAttackableItem@@UAEXPAVioBaseChar@@AAVSP2Packet@@@Z:PROC ; ioAttackableItem::ApplyDash
EXTRN	?ApplyCounterAttack@ioAttackableItem@@UAEXPAVioBaseChar@@AAVSP2Packet@@@Z:PROC ; ioAttackableItem::ApplyCounterAttack
EXTRN	?CheckComboJumpAttack@ioAttackableItem@@UAEXPAVioBaseChar@@@Z:PROC ; ioAttackableItem::CheckComboJumpAttack
EXTRN	?SetFlashJumpAttack@ioAttackableItem@@UAE_NPAVioBaseChar@@@Z:PROC ; ioAttackableItem::SetFlashJumpAttack
EXTRN	?SetComboFlashAttack@ioAttackableItem@@UAE_NPAVioBaseChar@@@Z:PROC ; ioAttackableItem::SetComboFlashAttack
EXTRN	?SetCollectJumpAttack@ioAttackableItem@@UAE_NPAVioBaseChar@@@Z:PROC ; ioAttackableItem::SetCollectJumpAttack
EXTRN	?SetPowerChargeJumpAttack@ioAttackableItem@@UAE_NPAVioBaseChar@@@Z:PROC ; ioAttackableItem::SetPowerChargeJumpAttack
EXTRN	?GetAttackSpeedRate@ioAttackableItem@@UBEMXZ:PROC ; ioAttackableItem::GetAttackSpeedRate
EXTRN	?GetExtraJumpSpeedRate@ioAttackableItem@@UBEMABUD3DXVECTOR3@@ABUD3DXQUATERNION@@@Z:PROC ; ioAttackableItem::GetExtraJumpSpeedRate
EXTRN	?IsEnableExtendJump@ioAttackableItem@@UAE_NXZ:PROC ; ioAttackableItem::IsEnableExtendJump
EXTRN	?RecevieExtendJumpUse@ioAttackableItem@@UAEXPAVioBaseChar@@@Z:PROC ; ioAttackableItem::RecevieExtendJumpUse
EXTRN	?HasAniFile@ioAttackableItem@@UBE_NW4AttackType@@H@Z:PROC ; ioAttackableItem::HasAniFile
EXTRN	?HasEndAniFile@ioAttackableItem@@UBE_NW4AttackType@@H@Z:PROC ; ioAttackableItem::HasEndAniFile
EXTRN	?GetAttackAttribute@ioAttackableItem@@UBEPBUAttackAttribute@@W4AttackType@@H@Z:PROC ; ioAttackableItem::GetAttackAttribute
EXTRN	?GetAniFile@ioAttackableItem@@UBEABVioHashString@@W4AttackType@@H@Z:PROC ; ioAttackableItem::GetAniFile
EXTRN	?GetAttackAniRate@ioAttackableItem@@UBEMW4AttackType@@H@Z:PROC ; ioAttackableItem::GetAttackAniRate
EXTRN	?GetEndAniFile@ioAttackableItem@@UBEABVioHashString@@W4AttackType@@H@Z:PROC ; ioAttackableItem::GetEndAniFile
EXTRN	?GetAttackEndAniRate@ioAttackableItem@@UBEMW4AttackType@@H@Z:PROC ; ioAttackableItem::GetAttackEndAniRate
EXTRN	?GetAttackAttributeIdx@ioAttackableItem@@UBEABV?$vector@UWeaponInfo@@V?$allocator@UWeaponInfo@@@std@@@std@@W4AttackType@@H@Z:PROC ; ioAttackableItem::GetAttackAttributeIdx
EXTRN	?GetForceInfoList@ioAttackableItem@@UBEABV?$vector@UForceInfo@@V?$allocator@UForceInfo@@@std@@@std@@W4AttackType@@H@Z:PROC ; ioAttackableItem::GetForceInfoList
EXTRN	?GetAttackPreDelay@ioAttackableItem@@UBEKW4AttackType@@H@Z:PROC ; ioAttackableItem::GetAttackPreDelay
EXTRN	?GetAttackAnimationDelay@ioAttackableItem@@UBEKW4AttackType@@H@Z:PROC ; ioAttackableItem::GetAttackAnimationDelay
EXTRN	?GetMaxCombo@ioAttackableItem@@UBEHXZ:PROC	; ioAttackableItem::GetMaxCombo
EXTRN	?GetExtraDashAttackMax@ioAttackableItem@@UBEHXZ:PROC ; ioAttackableItem::GetExtraDashAttackMax
EXTRN	?HasJumpEndAnimation@ioAttackableItem@@UBE_N_NPAVioBaseChar@@@Z:PROC ; ioAttackableItem::HasJumpEndAnimation
EXTRN	?GetJumpEndAnimation@ioAttackableItem@@UBEABVioHashString@@_NPAVioBaseChar@@@Z:PROC ; ioAttackableItem::GetJumpEndAnimation
EXTRN	?ClearCancelInfo@ioAttackableItem@@MAEXXZ:PROC	; ioAttackableItem::ClearCancelInfo
EXTRN	?CheckCancelReserve@ioAttackableItem@@MAEXPAVioBaseChar@@@Z:PROC ; ioAttackableItem::CheckCancelReserve
EXTRN	?SetCurAttackAniForInputJump@ioAttackableItem@@MAEXABVioHashString@@M@Z:PROC ; ioAttackableItem::SetCurAttackAniForInputJump
EXTRN	?ProcessCancel@ioAttackableItem@@MAE_NPAVioBaseChar@@@Z:PROC ; ioAttackableItem::ProcessCancel
EXTRN	?ProcessCancelBySpeicalDash@ioAttackableItem@@MAE_NPAVioBaseChar@@@Z:PROC ; ioAttackableItem::ProcessCancelBySpeicalDash
EXTRN	?SetCurAttackAniForInputDashS@ioAttackableItem@@UAEXABVioHashString@@M@Z:PROC ; ioAttackableItem::SetCurAttackAniForInputDashS
EXTRN	?CheckCancelReserveByConditionalSpecialDash@ioAttackableItem@@UAEXPAVioBaseChar@@@Z:PROC ; ioAttackableItem::CheckCancelReserveByConditionalSpecialDash
EXTRN	?IsConditionalSpecialDashReserve@ioAttackableItem@@UAE_NPAVioBaseChar@@@Z:PROC ; ioAttackableItem::IsConditionalSpecialDashReserve
EXTRN	?SetChangeConditionalSpecialDash@ioAttackableItem@@UAEXPAVioBaseChar@@W4DirKeyInput@ioUserKeyInput@@H@Z:PROC ; ioAttackableItem::SetChangeConditionalSpecialDash
EXTRN	?CheckChangeWereWolfState@ioAttackableItem@@UAE_NPAVioBaseChar@@@Z:PROC ; ioAttackableItem::CheckChangeWereWolfState
EXTRN	?SetChangeWereWolfState@ioAttackableItem@@UAEXPAVioBaseChar@@@Z:PROC ; ioAttackableItem::SetChangeWereWolfState
EXTRN	?CheckReleaseWereWolfState@ioAttackableItem@@UAE_NPAVioBaseChar@@@Z:PROC ; ioAttackableItem::CheckReleaseWereWolfState
EXTRN	?ReleseWereWolfState@ioAttackableItem@@UAEXPAVioBaseChar@@@Z:PROC ; ioAttackableItem::ReleseWereWolfState
EXTRN	?ReleseWereWolfStateByOwner@ioAttackableItem@@UAEXPAVioBaseChar@@@Z:PROC ; ioAttackableItem::ReleseWereWolfStateByOwner
EXTRN	?IncreaseChangeDamage@ioAttackableItem@@UAEXMH_N@Z:PROC ; ioAttackableItem::IncreaseChangeDamage
EXTRN	?IncreaseChangeDamageByWeapon@ioAttackableItem@@UAEXM@Z:PROC ; ioAttackableItem::IncreaseChangeDamageByWeapon
EXTRN	?CheckIncreaseChangeDamage@ioAttackableItem@@UAEXPAVioBaseChar@@@Z:PROC ; ioAttackableItem::CheckIncreaseChangeDamage
EXTRN	?DecreaseChangeDamage@ioAttackableItem@@UAEXPAVioBaseChar@@@Z:PROC ; ioAttackableItem::DecreaseChangeDamage
EXTRN	?IsEnableActionStopDelay@ioAttackableItem@@UAE_NXZ:PROC ; ioAttackableItem::IsEnableActionStopDelay
EXTRN	?SetExtraGaugeTypeByWeapon@ioAttackableItem@@UAEXPAVioBaseChar@@HHM@Z:PROC ; ioAttackableItem::SetExtraGaugeTypeByWeapon
EXTRN	?SetUseExtraGauge@ioAttackableItem@@UAEXM@Z:PROC ; ioAttackableItem::SetUseExtraGauge
EXTRN	?InitExtraGauge@ioAttackableItem@@UAEXXZ:PROC	; ioAttackableItem::InitExtraGauge
EXTRN	?MaxExtraGauge@ioAttackableItem@@UAEXXZ:PROC	; ioAttackableItem::MaxExtraGauge
EXTRN	?GetMaxExtraGauge@ioAttackableItem@@UAEMXZ:PROC	; ioAttackableItem::GetMaxExtraGauge
EXTRN	?GetCurExtraGauge@ioAttackableItem@@UAEMXZ:PROC	; ioAttackableItem::GetCurExtraGauge
EXTRN	?SetCurExtraGauge@ioAttackableItem@@UAEXM@Z:PROC ; ioAttackableItem::SetCurExtraGauge
EXTRN	?ClearAirJump@ioAttackableItem@@UAEXXZ:PROC	; ioAttackableItem::ClearAirJump
EXTRN	?SetAirJump@ioAttackableItem@@UAEXPAVioBaseChar@@HM@Z:PROC ; ioAttackableItem::SetAirJump
EXTRN	?CheckAirJump@ioAttackableItem@@UAEXPAVioBaseChar@@@Z:PROC ; ioAttackableItem::CheckAirJump
EXTRN	?EquipObjectItemByAttakable@ioAttackableItem@@UAEXPAVioBaseChar@@PAVioItem@@@Z:PROC ; ioAttackableItem::EquipObjectItemByAttakable
EXTRN	?ReleaseObjectItemByAttack@ioAttackableItem@@UAEXPAVioBaseChar@@PAVioItem@@@Z:PROC ; ioAttackableItem::ReleaseObjectItemByAttack
EXTRN	?IsBuffFlyChange@ioAttackableItem@@UAE_NPAVioBaseChar@@@Z:PROC ; ioAttackableItem::IsBuffFlyChange
EXTRN	?GetAttackStateText@ioAttackableItem@@UBEPBDXZ:PROC ; ioAttackableItem::GetAttackStateText
EXTRN	?SetJumpLandingExtraState@ioAttackableItem@@UAE_NPAVioBaseChar@@@Z:PROC ; ioAttackableItem::SetJumpLandingExtraState
EXTRN	?ReleaseObjectState@ioWeaponItem@@UAEXPAVioBaseChar@@PAVioObjectItem@@@Z:PROC ; ioWeaponItem::ReleaseObjectState
EXTRN	?IsCmdCheckEnableTime@ioWeaponItem@@UAE_NXZ:PROC ; ioWeaponItem::IsCmdCheckEnableTime
EXTRN	?IsCmdSuccess@ioWeaponItem@@UAE_NXZ:PROC	; ioWeaponItem::IsCmdSuccess
EXTRN	?IsOneTimeWeaponItem@ioWeaponItem@@UBE_NXZ:PROC	; ioWeaponItem::IsOneTimeWeaponItem
EXTRN	?GetEquipMesh@ioWeaponItem@@UBEABVioHashString@@PAVioBaseChar@@@Z:PROC ; ioWeaponItem::GetEquipMesh
EXTRN	?IsCanSendControl@ioWeaponItem@@UBE_NXZ:PROC	; ioWeaponItem::IsCanSendControl
;	COMDAT ??_R2ioItem@@8
; File d:\lost saga for developer\youtube\tutorial\source\src\lsclient\encryptvalue.h
rdata$r	SEGMENT
??_R2ioItem@@8 DD FLAT:??_R1A@?0A@EA@ioItem@@8		; ioItem::`RTTI Base Class Array'
rdata$r	ENDS
;	COMDAT ??_R3ioItem@@8
rdata$r	SEGMENT
??_R3ioItem@@8 DD 00H					; ioItem::`RTTI Class Hierarchy Descriptor'
	DD	00H
	DD	01H
	DD	FLAT:??_R2ioItem@@8
rdata$r	ENDS
;	COMDAT ??_R0?AVioItem@@@8
_DATA	SEGMENT
??_R0?AVioItem@@@8 DD FLAT:??_7type_info@@6B@		; ioItem `RTTI Type Descriptor'
	DD	00H
	DB	'.?AVioItem@@', 00H
_DATA	ENDS
;	COMDAT ??_R1A@?0A@EA@ioItem@@8
rdata$r	SEGMENT
??_R1A@?0A@EA@ioItem@@8 DD FLAT:??_R0?AVioItem@@@8	; ioItem::`RTTI Base Class Descriptor at (0,-1,0,64)'
	DD	00H
	DD	00H
	DD	0ffffffffH
	DD	00H
	DD	040H
	DD	FLAT:??_R3ioItem@@8
rdata$r	ENDS
;	COMDAT ??_R2ioAttackableItem@@8
rdata$r	SEGMENT
??_R2ioAttackableItem@@8 DD FLAT:??_R1A@?0A@EA@ioAttackableItem@@8 ; ioAttackableItem::`RTTI Base Class Array'
	DD	FLAT:??_R1A@?0A@EA@ioItem@@8
rdata$r	ENDS
;	COMDAT ??_R3ioAttackableItem@@8
rdata$r	SEGMENT
??_R3ioAttackableItem@@8 DD 00H				; ioAttackableItem::`RTTI Class Hierarchy Descriptor'
	DD	00H
	DD	02H
	DD	FLAT:??_R2ioAttackableItem@@8
rdata$r	ENDS
;	COMDAT ??_R0?AVioAttackableItem@@@8
_DATA	SEGMENT
??_R0?AVioAttackableItem@@@8 DD FLAT:??_7type_info@@6B@	; ioAttackableItem `RTTI Type Descriptor'
	DD	00H
	DB	'.?AVioAttackableItem@@', 00H
_DATA	ENDS
;	COMDAT ??_R1A@?0A@EA@ioAttackableItem@@8
rdata$r	SEGMENT
??_R1A@?0A@EA@ioAttackableItem@@8 DD FLAT:??_R0?AVioAttackableItem@@@8 ; ioAttackableItem::`RTTI Base Class Descriptor at (0,-1,0,64)'
	DD	01H
	DD	00H
	DD	0ffffffffH
	DD	00H
	DD	040H
	DD	FLAT:??_R3ioAttackableItem@@8
rdata$r	ENDS
;	COMDAT ??_R2ioWeaponItem@@8
rdata$r	SEGMENT
??_R2ioWeaponItem@@8 DD FLAT:??_R1A@?0A@EA@ioWeaponItem@@8 ; ioWeaponItem::`RTTI Base Class Array'
	DD	FLAT:??_R1A@?0A@EA@ioAttackableItem@@8
	DD	FLAT:??_R1A@?0A@EA@ioItem@@8
rdata$r	ENDS
;	COMDAT ??_R3ioWeaponItem@@8
rdata$r	SEGMENT
??_R3ioWeaponItem@@8 DD 00H				; ioWeaponItem::`RTTI Class Hierarchy Descriptor'
	DD	00H
	DD	03H
	DD	FLAT:??_R2ioWeaponItem@@8
rdata$r	ENDS
;	COMDAT ??_R0?AVioWeaponItem@@@8
_DATA	SEGMENT
??_R0?AVioWeaponItem@@@8 DD FLAT:??_7type_info@@6B@	; ioWeaponItem `RTTI Type Descriptor'
	DD	00H
	DB	'.?AVioWeaponItem@@', 00H
_DATA	ENDS
;	COMDAT ??_R1A@?0A@EA@ioWeaponItem@@8
rdata$r	SEGMENT
??_R1A@?0A@EA@ioWeaponItem@@8 DD FLAT:??_R0?AVioWeaponItem@@@8 ; ioWeaponItem::`RTTI Base Class Descriptor at (0,-1,0,64)'
	DD	02H
	DD	00H
	DD	0ffffffffH
	DD	00H
	DD	040H
	DD	FLAT:??_R3ioWeaponItem@@8
rdata$r	ENDS
;	COMDAT ??_R1A@?0A@EA@ioSummonChargeItem@@8
rdata$r	SEGMENT
??_R1A@?0A@EA@ioSummonChargeItem@@8 DD FLAT:??_R0?AVioSummonChargeItem@@@8 ; ioSummonChargeItem::`RTTI Base Class Descriptor at (0,-1,0,64)'
	DD	03H
	DD	00H
	DD	0ffffffffH
	DD	00H
	DD	040H
	DD	FLAT:??_R3ioSummonChargeItem@@8
rdata$r	ENDS
;	COMDAT ??_R2ioSummonChargeItem@@8
rdata$r	SEGMENT
??_R2ioSummonChargeItem@@8 DD FLAT:??_R1A@?0A@EA@ioSummonChargeItem@@8 ; ioSummonChargeItem::`RTTI Base Class Array'
	DD	FLAT:??_R1A@?0A@EA@ioWeaponItem@@8
	DD	FLAT:??_R1A@?0A@EA@ioAttackableItem@@8
	DD	FLAT:??_R1A@?0A@EA@ioItem@@8
rdata$r	ENDS
;	COMDAT ??_R3ioSummonChargeItem@@8
rdata$r	SEGMENT
??_R3ioSummonChargeItem@@8 DD 00H			; ioSummonChargeItem::`RTTI Class Hierarchy Descriptor'
	DD	00H
	DD	04H
	DD	FLAT:??_R2ioSummonChargeItem@@8
rdata$r	ENDS
;	COMDAT ??_R0?AVioSummonChargeItem@@@8
_DATA	SEGMENT
??_R0?AVioSummonChargeItem@@@8 DD FLAT:??_7type_info@@6B@ ; ioSummonChargeItem `RTTI Type Descriptor'
	DD	00H
	DB	'.?AVioSummonChargeItem@@', 00H
_DATA	ENDS
;	COMDAT ??_R4ioSummonChargeItem@@6B@
rdata$r	SEGMENT
??_R4ioSummonChargeItem@@6B@ DD 00H			; ioSummonChargeItem::`RTTI Complete Object Locator'
	DD	00H
	DD	00H
	DD	FLAT:??_R0?AVioSummonChargeItem@@@8
	DD	FLAT:??_R3ioSummonChargeItem@@8
rdata$r	ENDS
;	COMDAT ??_7ioSummonChargeItem@@6B@
CONST	SEGMENT
??_7ioSummonChargeItem@@6B@ DD FLAT:??_R4ioSummonChargeItem@@6B@ ; ioSummonChargeItem::`vftable'
	DD	FLAT:?FindFieldEntityGrp@ioItem@@MBEABVioHashString@@XZ
	DD	FLAT:?LoadProperty@ioSummonChargeItem@@UAEXAAVioINILoader@@@Z
	DD	FLAT:?GetType@ioWeaponItem@@UBE?AW4ItemType@ioItem@@XZ
	DD	FLAT:?Clone@ioSummonChargeItem@@UAEPAVioItem@@XZ
	DD	FLAT:?UseCreateIndexItem@ioItem@@UBE_NXZ
	DD	FLAT:?GetSetFocusColor@ioItem@@UBEKXZ
	DD	FLAT:?Initialize@ioItem@@UAEXABVioHashString@@PAVioPlayStage@@@Z
	DD	FLAT:?InitializeBeforeEquip@ioItem@@UAEXABVioHashString@@PAVioPlayStage@@@Z
	DD	FLAT:?OnEquiped@ioAttackableItem@@UAEXPAVioBaseChar@@@Z
	DD	FLAT:?OnReleased@ioWeaponItem@@UAEXPAVioBaseChar@@@Z
	DD	FLAT:?SetExtendEquipEffect@ioItem@@UAEXPAVioBaseChar@@@Z
	DD	FLAT:?ReleaseExtendEquipEffect@ioItem@@UAEXPAVioBaseChar@@@Z
	DD	FLAT:?AddGlowLine@ioWeaponItem@@UAEXPAVioBaseChar@@@Z
	DD	FLAT:?RemoveGlowLine@ioWeaponItem@@UAEXPAVioBaseChar@@@Z
	DD	FLAT:?GetTargetName@ioItem@@UAE?AVioHashString@@XZ
	DD	FLAT:?ClearTarget@ioItem@@UAEXXZ
	DD	FLAT:?SetItemType@ioWeaponItem@@UAEXXZ
	DD	FLAT:?UpdateExtraData@ioItem@@UAEXPAVioBaseChar@@@Z
	DD	FLAT:?CheckWeaponDefenseState@ioItem@@UAEXPAVioBaseChar@@@Z
	DD	FLAT:?CheckWoundedState@ioItem@@UAEXPAVioBaseChar@@@Z
	DD	FLAT:?SetVisible@ioItem@@UAEXPAVioBaseChar@@_N@Z
	DD	FLAT:?UpdateSkillGauge@ioSummonChargeItem@@UAEXPAVioBaseChar@@M_N@Z
	DD	FLAT:?IsEnableExtraGauge@ioSummonChargeItem@@UAE_NPAVioBaseChar@@@Z
	DD	FLAT:?GetExtraGauge@ioSummonChargeItem@@UAEMXZ
	DD	FLAT:?ReduceNeedGauge@ioItem@@UAEXMPAVioBaseChar@@@Z
	DD	FLAT:?GetCurBullet@ioItem@@UAEHXZ
	DD	FLAT:?GetMaxBullet@ioItem@@UAEHXZ
	DD	FLAT:?SetCurBullet@ioItem@@UAEXH@Z
	DD	FLAT:?GetCurSecoundBullet@ioItem@@UAEHXZ
	DD	FLAT:?GetMaxSecoundBullet@ioItem@@UAEHXZ
	DD	FLAT:?SetCurSecoundBullet@ioItem@@UAEXH@Z
	DD	FLAT:?GetGrowthInfoNum@ioItem@@UBEHH@Z
	DD	FLAT:?GetGrowthInfoNumByType@ioItem@@UBEHHAAH@Z
	DD	FLAT:?ClearCurChargeRateForSkill@ioItem@@UAEXXZ
	DD	FLAT:?GetChargeDamageRateForSkill@ioItem@@UAEMXZ
	DD	FLAT:?GetChargeForceRateForSkill@ioItem@@UAEMXZ
	DD	FLAT:?GetChargeBlowRateForSkill@ioItem@@UAEMXZ
	DD	FLAT:?GetChargeRangeRateForSkill@ioItem@@UAEMXZ
	DD	FLAT:?GetChargeSpeedRateForSkill@ioItem@@UAEMXZ
	DD	FLAT:?GetChargeFloatRateForSkill@ioItem@@UAEMXZ
	DD	FLAT:?GetChargeScaleRateForSkill@ioItem@@UAEMXZ
	DD	FLAT:?GetChargeExplosionRateForSkill@ioItem@@UAEMXZ
	DD	FLAT:?GetChargeWoundedTimeRateForSkill@ioItem@@UAEMXZ
	DD	FLAT:?SetCurEquipEffect@ioItem@@UAEX_N@Z
	DD	FLAT:?SetCostume@ioItem@@UAEXH_N@Z
	DD	FLAT:??_EioSummonChargeItem@@UAEPAXI@Z
	DD	FLAT:?IsCanFire@ioAttackableItem@@UBE_NPBVioBaseChar@@H_N@Z
	DD	FLAT:?CallItemProcess@ioAttackableItem@@UAEXPAVioBaseChar@@@Z
	DD	FLAT:?SetExtraInfoToWeapon@ioSummonChargeItem@@UAEXPAVioWeapon@@_N@Z
	DD	FLAT:?CheckChargeInfo@ioAttackableItem@@UAEXPAVioWeapon@@_N@Z
	DD	FLAT:?SetExtendDefenseState@ioAttackableItem@@UAE_NPAVioBaseChar@@@Z
	DD	FLAT:?CheckExtendDefenseState@ioAttackableItem@@UAEXPAVioBaseChar@@@Z
	DD	FLAT:?CheckDefenseMoveAniState@ioAttackableItem@@UAEXPAVioBaseChar@@@Z
	DD	FLAT:?SetDodgeDefenseState@ioAttackableItem@@UAE_NPAVioBaseChar@@@Z
	DD	FLAT:?CheckDodgeDefenseState@ioAttackableItem@@UAEXPAVioBaseChar@@@Z
	DD	FLAT:?ApplyDodgeDefenseState@ioAttackableItem@@UAEXPAVioBaseChar@@AAVSP2Packet@@@Z
	DD	FLAT:?SetDefenseAttackState@ioAttackableItem@@UAE_NPAVioBaseChar@@@Z
	DD	FLAT:?CheckDefenseAttackState@ioAttackableItem@@UAEXPAVioBaseChar@@@Z
	DD	FLAT:?ApplyDefenseAttackState@ioAttackableItem@@UAEXPAVioBaseChar@@AAVSP2Packet@@@Z
	DD	FLAT:?SetExtendDashState@ioAttackableItem@@UAE_NPAVioBaseChar@@@Z
	DD	FLAT:?CheckExtendDashState@ioAttackableItem@@UAEXPAVioBaseChar@@@Z
	DD	FLAT:?SetNormalAttack@ioSummonChargeItem@@UAEXPAVioBaseChar@@H@Z
	DD	FLAT:?CheckNormalAttack@ioSummonChargeItem@@UAEXPAVioBaseChar@@@Z
	DD	FLAT:?SetJumpAttack@ioSummonChargeItem@@UAE_NPAVioBaseChar@@HMW4AttackType@@@Z
	DD	FLAT:?CheckJumpAttack@ioAttackableItem@@UAEXPAVioBaseChar@@@Z
	DD	FLAT:?SetJumpReloadState@ioAttackableItem@@UAE_NPAVioBaseChar@@@Z
	DD	FLAT:?SetJumpReload@ioAttackableItem@@UAE_NPAVioBaseChar@@@Z
	DD	FLAT:?CheckJumpReloadState@ioAttackableItem@@UAEXPAVioBaseChar@@@Z
	DD	FLAT:?CheckJumpReloadReserve@ioAttackableItem@@UAEXPAVioBaseChar@@@Z
	DD	FLAT:?ProcessJumpReloadState@ioAttackableItem@@UAEXPAVioBaseChar@@@Z
	DD	FLAT:?ApplyJumpReload@ioAttackableItem@@UAEXPAVioBaseChar@@AAVSP2Packet@@@Z
	DD	FLAT:?OnItemGaugeOK@ioSummonChargeItem@@UAEXPAVioBaseChar@@AAVSP2Packet@@@Z
	DD	FLAT:?OnItemGaugeCancel@ioAttackableItem@@UAEXPAVioBaseChar@@AAVSP2Packet@@@Z
	DD	FLAT:?OnEndExtendDefense@ioAttackableItem@@UAEXPAVioBaseChar@@@Z
	DD	FLAT:?OnEndNormalAttack@ioAttackableItem@@UAEXPAVioBaseChar@@@Z
	DD	FLAT:?OnEndExtendAttack@ioSummonChargeItem@@UAEXPAVioBaseChar@@_N@Z
	DD	FLAT:?OnEndExtendJump@ioAttackableItem@@UAEXPAVioBaseChar@@@Z
	DD	FLAT:?FillNormalAttackExtraInfo@ioAttackableItem@@UAEXAAVSP2Packet@@@Z
	DD	FLAT:?ApplyNormalAttackExtraInfo@ioAttackableItem@@UAEXAAVSP2Packet@@@Z
	DD	FLAT:?CheckOnHand@ioAttackableItem@@UAE_NXZ
	DD	FLAT:?CheckAimState@ioAttackableItem@@UAE_N_N@Z
	DD	FLAT:?SetAimState@ioAttackableItem@@UAE_NPAVioBaseChar@@@Z
	DD	FLAT:?CheckLanding@ioAttackableItem@@UAE_NPAVioBaseChar@@@Z
	DD	FLAT:?SetNoneState@ioAttackableItem@@UAEXPAVioBaseChar@@H@Z
	DD	FLAT:?CheckExtendDefenseEnable@ioAttackableItem@@UAE_NPAVioBaseChar@@@Z
	DD	FLAT:?IsChargeAttackState@ioSummonChargeItem@@UAE_NPAVioBaseChar@@@Z
	DD	FLAT:?IsMoveAttackState@ioAttackableItem@@UAE_NPAVioBaseChar@@@Z
	DD	FLAT:?IsCanUpdateGauge@ioAttackableItem@@UAE_NPAVioBaseChar@@@Z
	DD	FLAT:?IsNoGhostWalk@ioAttackableItem@@UAE_NPAVioBaseChar@@@Z
	DD	FLAT:?IsEnableAttackDashCheck@ioSummonChargeItem@@UAE_NPAVioBaseChar@@_N@Z
	DD	FLAT:?IsEnableItemDashCheck@ioAttackableItem@@UAE_NPAVioBaseChar@@_N@Z
	DD	FLAT:?IsEnableAttackRotateCheck@ioSummonChargeItem@@UAE_NPAVioBaseChar@@@Z
	DD	FLAT:?IsEnableChargeDefenseCheck@ioAttackableItem@@UAE_NXZ
	DD	FLAT:?CheckAimJumpState@ioAttackableItem@@UAEXPAVioBaseChar@@@Z
	DD	FLAT:?GetJumppingAnimation@ioAttackableItem@@UBEABVioHashString@@XZ
	DD	FLAT:?GetExtendJumppingAnimation@ioAttackableItem@@UBEABVioHashString@@XZ
	DD	FLAT:?CheckRetreatState@ioAttackableItem@@UAEXPAVioBaseChar@@@Z
	DD	FLAT:?SetNextItemState@ioAttackableItem@@UAEXPAVioBaseChar@@0PAVioWeapon@@_NM@Z
	DD	FLAT:?WeaponWounded@ioWeaponItem@@UAEXPAVioWeapon@@PAVioBaseChar@@@Z
	DD	FLAT:?WeaponMapColDead@ioAttackableItem@@UAEXPAVioWeapon@@@Z
	DD	FLAT:?SetDefenceCounterState@ioAttackableItem@@UAEXPAVioBaseChar@@@Z
	DD	FLAT:?IsUseDefenceCounterAttack@ioAttackableItem@@UAE_NXZ
	DD	FLAT:?ProcessDefenceCounterAttack@ioAttackableItem@@UAEXPAVioBaseChar@@@Z
	DD	FLAT:?IsUseDefenceCounterAttackEndDash@ioAttackableItem@@UAE_NXZ
	DD	FLAT:?ProcessExtraJump@ioAttackableItem@@UAEXPAVioBaseChar@@@Z
	DD	FLAT:?SetEndGrappling@ioAttackableItem@@UAEXPAVioBaseChar@@@Z
	DD	FLAT:?ClearKeyReserve@ioAttackableItem@@MAEXXZ
	DD	FLAT:?CheckReserve@ioSummonChargeItem@@MAEXPAVioBaseChar@@@Z
	DD	FLAT:?ProcessReserveKeyInput@ioAttackableItem@@MAEXPAVioBaseChar@@@Z
	DD	FLAT:?SetJumpState@ioAttackableItem@@UAEXXZ
	DD	FLAT:?SetJumpping@ioAttackableItem@@UAEXPAVioBaseChar@@_N@Z
	DD	FLAT:?ProcessJumpping@ioAttackableItem@@UAEXPAVioBaseChar@@M@Z
	DD	FLAT:?ProcessJumppingByNoNeedProcess@ioAttackableItem@@UAEXPAVioBaseChar@@M@Z
	DD	FLAT:?ProcessLanding@ioAttackableItem@@UAEXPAVioBaseChar@@@Z
	DD	FLAT:?ProcessJumpAttack@ioSummonChargeItem@@UAEXPAVioBaseChar@@M@Z
	DD	FLAT:?ProcessAimJump@ioAttackableItem@@UAE_NPAVioBaseChar@@M@Z
	DD	FLAT:?ApplyJump@ioAttackableItem@@UAEXPAVioBaseChar@@AAVSP2Packet@@@Z
	DD	FLAT:?ApplyDash@ioAttackableItem@@UAEXPAVioBaseChar@@AAVSP2Packet@@@Z
	DD	FLAT:?ApplyCounterAttack@ioAttackableItem@@UAEXPAVioBaseChar@@AAVSP2Packet@@@Z
	DD	FLAT:?CheckComboJumpAttack@ioAttackableItem@@UAEXPAVioBaseChar@@@Z
	DD	FLAT:?SetFlashJumpAttack@ioAttackableItem@@UAE_NPAVioBaseChar@@@Z
	DD	FLAT:?SetComboFlashAttack@ioAttackableItem@@UAE_NPAVioBaseChar@@@Z
	DD	FLAT:?SetCollectJumpAttack@ioAttackableItem@@UAE_NPAVioBaseChar@@@Z
	DD	FLAT:?SetPowerChargeJumpAttack@ioAttackableItem@@UAE_NPAVioBaseChar@@@Z
	DD	FLAT:?GetAttackSpeedRate@ioAttackableItem@@UBEMXZ
	DD	FLAT:?GetExtraJumpSpeedRate@ioAttackableItem@@UBEMABUD3DXVECTOR3@@ABUD3DXQUATERNION@@@Z
	DD	FLAT:?IsEnableExtendJump@ioAttackableItem@@UAE_NXZ
	DD	FLAT:?RecevieExtendJumpUse@ioAttackableItem@@UAEXPAVioBaseChar@@@Z
	DD	FLAT:?HasAniFile@ioAttackableItem@@UBE_NW4AttackType@@H@Z
	DD	FLAT:?HasEndAniFile@ioAttackableItem@@UBE_NW4AttackType@@H@Z
	DD	FLAT:?GetAttackAttribute@ioAttackableItem@@UBEPBUAttackAttribute@@W4AttackType@@H@Z
	DD	FLAT:?GetAniFile@ioAttackableItem@@UBEABVioHashString@@W4AttackType@@H@Z
	DD	FLAT:?GetAttackAniRate@ioAttackableItem@@UBEMW4AttackType@@H@Z
	DD	FLAT:?GetEndAniFile@ioAttackableItem@@UBEABVioHashString@@W4AttackType@@H@Z
	DD	FLAT:?GetAttackEndAniRate@ioAttackableItem@@UBEMW4AttackType@@H@Z
	DD	FLAT:?GetAttackAttributeIdx@ioAttackableItem@@UBEABV?$vector@UWeaponInfo@@V?$allocator@UWeaponInfo@@@std@@@std@@W4AttackType@@H@Z
	DD	FLAT:?GetForceInfoList@ioAttackableItem@@UBEABV?$vector@UForceInfo@@V?$allocator@UForceInfo@@@std@@@std@@W4AttackType@@H@Z
	DD	FLAT:?GetAttackPreDelay@ioAttackableItem@@UBEKW4AttackType@@H@Z
	DD	FLAT:?GetAttackAnimationDelay@ioAttackableItem@@UBEKW4AttackType@@H@Z
	DD	FLAT:?GetMaxCombo@ioAttackableItem@@UBEHXZ
	DD	FLAT:?GetExtraDashAttackMax@ioAttackableItem@@UBEHXZ
	DD	FLAT:?HasJumpEndAnimation@ioAttackableItem@@UBE_N_NPAVioBaseChar@@@Z
	DD	FLAT:?GetJumpEndAnimation@ioAttackableItem@@UBEABVioHashString@@_NPAVioBaseChar@@@Z
	DD	FLAT:?ClearCancelInfo@ioAttackableItem@@MAEXXZ
	DD	FLAT:?CheckCancelReserve@ioAttackableItem@@MAEXPAVioBaseChar@@@Z
	DD	FLAT:?SetCurAttackAniForInputJump@ioAttackableItem@@MAEXABVioHashString@@M@Z
	DD	FLAT:?ProcessCancel@ioAttackableItem@@MAE_NPAVioBaseChar@@@Z
	DD	FLAT:?ProcessCancelBySpeicalDash@ioAttackableItem@@MAE_NPAVioBaseChar@@@Z
	DD	FLAT:?SetCurAttackAniForInputDashS@ioAttackableItem@@UAEXABVioHashString@@M@Z
	DD	FLAT:?CheckCancelReserveByConditionalSpecialDash@ioAttackableItem@@UAEXPAVioBaseChar@@@Z
	DD	FLAT:?IsConditionalSpecialDashReserve@ioAttackableItem@@UAE_NPAVioBaseChar@@@Z
	DD	FLAT:?SetChangeConditionalSpecialDash@ioAttackableItem@@UAEXPAVioBaseChar@@W4DirKeyInput@ioUserKeyInput@@H@Z
	DD	FLAT:?CheckChangeWereWolfState@ioAttackableItem@@UAE_NPAVioBaseChar@@@Z
	DD	FLAT:?SetChangeWereWolfState@ioAttackableItem@@UAEXPAVioBaseChar@@@Z
	DD	FLAT:?CheckReleaseWereWolfState@ioAttackableItem@@UAE_NPAVioBaseChar@@@Z
	DD	FLAT:?ReleseWereWolfState@ioAttackableItem@@UAEXPAVioBaseChar@@@Z
	DD	FLAT:?ReleseWereWolfStateByOwner@ioAttackableItem@@UAEXPAVioBaseChar@@@Z
	DD	FLAT:?IncreaseChangeDamage@ioAttackableItem@@UAEXMH_N@Z
	DD	FLAT:?IncreaseChangeDamageByWeapon@ioAttackableItem@@UAEXM@Z
	DD	FLAT:?CheckIncreaseChangeDamage@ioAttackableItem@@UAEXPAVioBaseChar@@@Z
	DD	FLAT:?DecreaseChangeDamage@ioAttackableItem@@UAEXPAVioBaseChar@@@Z
	DD	FLAT:?IsEnableActionStopDelay@ioAttackableItem@@UAE_NXZ
	DD	FLAT:?SetExtraGaugeTypeByWeapon@ioAttackableItem@@UAEXPAVioBaseChar@@HHM@Z
	DD	FLAT:?SetUseExtraGauge@ioAttackableItem@@UAEXM@Z
	DD	FLAT:?InitExtraGauge@ioAttackableItem@@UAEXXZ
	DD	FLAT:?MaxExtraGauge@ioAttackableItem@@UAEXXZ
	DD	FLAT:?GetMaxExtraGauge@ioAttackableItem@@UAEMXZ
	DD	FLAT:?GetCurExtraGauge@ioAttackableItem@@UAEMXZ
	DD	FLAT:?SetCurExtraGauge@ioAttackableItem@@UAEXM@Z
	DD	FLAT:?GetAutoTargetValue@ioSummonChargeItem@@UAEXPAVioBaseChar@@AAM11W4AutoTargetType@@@Z
	DD	FLAT:?ClearAirJump@ioAttackableItem@@UAEXXZ
	DD	FLAT:?SetAirJump@ioAttackableItem@@UAEXPAVioBaseChar@@HM@Z
	DD	FLAT:?CheckAirJump@ioAttackableItem@@UAEXPAVioBaseChar@@@Z
	DD	FLAT:?IsAutoTarget@ioAttackableItem@@UBE_NXZ
	DD	FLAT:?EquipObjectItemByAttakable@ioAttackableItem@@UAEXPAVioBaseChar@@PAVioItem@@@Z
	DD	FLAT:?ReleaseObjectItemByAttack@ioAttackableItem@@UAEXPAVioBaseChar@@PAVioItem@@@Z
	DD	FLAT:?IsBuffFlyChange@ioAttackableItem@@UAE_NPAVioBaseChar@@@Z
	DD	FLAT:?GetAttackStateText@ioAttackableItem@@UBEPBDXZ
	DD	FLAT:?SetJumpLandingExtraState@ioAttackableItem@@UAE_NPAVioBaseChar@@@Z
	DD	FLAT:?IsWoundAfterUseExtendState@ioAttackableItem@@UAE_NXZ
	DD	FLAT:?CheckWoundAfterUseExtendState@ioAttackableItem@@UAE_NPAVioBaseChar@@W4BlowTargetType@@@Z
	DD	FLAT:?IsCharSkipState@ioAttackableItem@@UAE_NPBVioBaseChar@@@Z
	DD	FLAT:?ReleaseObjectState@ioWeaponItem@@UAEXPAVioBaseChar@@PAVioObjectItem@@@Z
	DD	FLAT:?IsCmdCheckEnableTime@ioWeaponItem@@UAE_NXZ
	DD	FLAT:?IsCmdSuccess@ioWeaponItem@@UAE_NXZ
	DD	FLAT:?IsOneTimeWeaponItem@ioWeaponItem@@UBE_NXZ
	DD	FLAT:?GetEquipMesh@ioWeaponItem@@UBEABVioHashString@@PAVioBaseChar@@@Z
	DD	FLAT:?IsCanSendControl@ioWeaponItem@@UBE_NXZ
	DD	FLAT:?GetSubType@ioSummonChargeItem@@UBE?AW4WeaponSubType@ioWeaponItem@@XZ
CONST	ENDS
;	COMDAT xdata$x
xdata$x	SEGMENT
__ehfuncinfo$??0ioSummonChargeItem@@QAE@XZ DD 019930522H
	DD	09H
	DD	FLAT:__unwindtable$??0ioSummonChargeItem@@QAE@XZ
	DD	2 DUP(00H)
	DD	2 DUP(00H)
	DD	00H
	DD	01H
__unwindtable$??0ioSummonChargeItem@@QAE@XZ DD 0ffffffffH
	DD	FLAT:__unwindfunclet$??0ioSummonChargeItem@@QAE@XZ$0
	DD	00H
	DD	FLAT:__unwindfunclet$??0ioSummonChargeItem@@QAE@XZ$1
	DD	01H
	DD	FLAT:__unwindfunclet$??0ioSummonChargeItem@@QAE@XZ$2
	DD	02H
	DD	FLAT:__unwindfunclet$??0ioSummonChargeItem@@QAE@XZ$3
	DD	03H
	DD	FLAT:__unwindfunclet$??0ioSummonChargeItem@@QAE@XZ$4
	DD	04H
	DD	FLAT:__unwindfunclet$??0ioSummonChargeItem@@QAE@XZ$5
	DD	05H
	DD	FLAT:__unwindfunclet$??0ioSummonChargeItem@@QAE@XZ$6
	DD	06H
	DD	FLAT:__unwindfunclet$??0ioSummonChargeItem@@QAE@XZ$7
	DD	07H
	DD	FLAT:__unwindfunclet$??0ioSummonChargeItem@@QAE@XZ$8
; Function compile flags: /Ogsp
; File d:\lost saga for developer\youtube\tutorial\source\src\lsclient\iosummonchargeitem.cpp
xdata$x	ENDS
;	COMDAT ??0ioSummonChargeItem@@QAE@XZ
_TEXT	SEGMENT
_this$ = -20						; size = 4
_value$553073 = -16					; size = 4
__$EHRec$ = -12						; size = 12
??0ioSummonChargeItem@@QAE@XZ PROC			; ioSummonChargeItem::ioSummonChargeItem, COMDAT
; _this$ = ecx

; 12   : {

  00000	6a 08		 push	 8
  00002	b8 00 00 00 00	 mov	 eax, __ehhandler$??0ioSummonChargeItem@@QAE@XZ
  00007	e8 00 00 00 00	 call	 __EH_prolog3
  0000c	8b f1		 mov	 esi, ecx
  0000e	89 75 ec	 mov	 DWORD PTR _this$[ebp], esi
  00011	e8 00 00 00 00	 call	 ??0ioWeaponItem@@QAE@XZ	; ioWeaponItem::ioWeaponItem
  00016	8b 3d 00 00 00
	00		 mov	 edi, DWORD PTR __imp_??0ioHashString@@QAE@XZ
  0001c	33 db		 xor	 ebx, ebx
  0001e	8d 8e 60 19 00
	00		 lea	 ecx, DWORD PTR [esi+6496]
  00024	89 5d fc	 mov	 DWORD PTR __$EHRec$[ebp+8], ebx
  00027	c7 06 00 00 00
	00		 mov	 DWORD PTR [esi], OFFSET ??_7ioSummonChargeItem@@6B@
  0002d	ff d7		 call	 edi
  0002f	8d 8e 7c 19 00
	00		 lea	 ecx, DWORD PTR [esi+6524]
  00035	c6 45 fc 01	 mov	 BYTE PTR __$EHRec$[ebp+8], 1
  00039	ff d7		 call	 edi
  0003b	8d 8e 90 19 00
	00		 lea	 ecx, DWORD PTR [esi+6544]
  00041	c6 45 fc 02	 mov	 BYTE PTR __$EHRec$[ebp+8], 2
  00045	ff d7		 call	 edi
  00047	89 9e a0 19 00
	00		 mov	 DWORD PTR [esi+6560], ebx
  0004d	89 9e a4 19 00
	00		 mov	 DWORD PTR [esi+6564], ebx
  00053	89 9e a8 19 00
	00		 mov	 DWORD PTR [esi+6568], ebx
  00059	8d 8e b0 19 00
	00		 lea	 ecx, DWORD PTR [esi+6576]
  0005f	c6 45 fc 04	 mov	 BYTE PTR __$EHRec$[ebp+8], 4
  00063	e8 00 00 00 00	 call	 ??0?$CEncrypt@H@@QAE@XZ	; CEncrypt<int>::CEncrypt<int>
  00068	8d 8e e0 19 00
	00		 lea	 ecx, DWORD PTR [esi+6624]
  0006e	c6 45 fc 05	 mov	 BYTE PTR __$EHRec$[ebp+8], 5
  00072	e8 00 00 00 00	 call	 ??0?$CEncrypt@H@@QAE@XZ	; CEncrypt<int>::CEncrypt<int>
  00077	8d 8e 18 1a 00
	00		 lea	 ecx, DWORD PTR [esi+6680]
  0007d	c6 45 fc 06	 mov	 BYTE PTR __$EHRec$[ebp+8], 6
  00081	ff d7		 call	 edi
  00083	8d 8e 48 1a 00
	00		 lea	 ecx, DWORD PTR [esi+6728]
  00089	c6 45 fc 07	 mov	 BYTE PTR __$EHRec$[ebp+8], 7
  0008d	e8 00 00 00 00	 call	 ??0?$CEncrypt@M@@QAE@XZ	; CEncrypt<float>::CEncrypt<float>

; 13   : 	m_ChargeState = CS_NONE;
; 14   : 	m_dwAttackStartTime = 0;
; 15   : 	m_iCurCombo = 0;
; 16   : 
; 17   : 	m_GatheringEffectID = -1;

  00092	83 8e 74 19 00
	00 ff		 or	 DWORD PTR [esi+6516], -1

; 18   : 
; 19   : 	m_bSetChargingMoveAni = false;
; 20   : 
; 21   : 	m_iCurSummonCnt = 1;

  00099	8d 45 f0	 lea	 eax, DWORD PTR _value$553073[ebp]
  0009c	50		 push	 eax
  0009d	8d 8e e0 19 00
	00		 lea	 ecx, DWORD PTR [esi+6624]
  000a3	c6 45 fc 08	 mov	 BYTE PTR __$EHRec$[ebp+8], 8
  000a7	89 9e 54 19 00
	00		 mov	 DWORD PTR [esi+6484], ebx
  000ad	89 9e 58 19 00
	00		 mov	 DWORD PTR [esi+6488], ebx
  000b3	89 9e 5c 19 00
	00		 mov	 DWORD PTR [esi+6492], ebx
  000b9	88 9e 8c 19 00
	00		 mov	 BYTE PTR [esi+6540], bl
  000bf	c7 45 f0 01 00
	00 00		 mov	 DWORD PTR _value$553073[ebp], 1
  000c6	e8 00 00 00 00	 call	 ?EncryptValueToPool@?$CEncrypt@H@@AAEXPBD@Z ; CEncrypt<int>::EncryptValueToPool

; 22   : 
; 23   : 	m_dwRetreatEndTime = 0;
; 24   : 	m_dwRetreatForceTime = 0;
; 25   : 
; 26   : 	m_iSkillInput = -1;
; 27   : 	m_bEnableDefenseState = false;
; 28   : 	m_bEnableAttackState = false;
; 29   : 	m_bEnableJumpState = false;
; 30   : 
; 31   : 	m_iCurAirJump = 0;
; 32   : 	m_fAirJumpPowerRate = 0.0f;

  000cb	0f 57 c0	 xorps	 xmm0, xmm0
  000ce	83 8e fc 0e 00
	00 ff		 or	 DWORD PTR [esi+3836], -1
  000d5	89 9e 2c 1a 00
	00		 mov	 DWORD PTR [esi+6700], ebx
  000db	89 9e 44 1a 00
	00		 mov	 DWORD PTR [esi+6724], ebx
  000e1	66 89 9e 00 0f
	00 00		 mov	 WORD PTR [esi+3840], bx
  000e8	88 9e 02 0f 00
	00		 mov	 BYTE PTR [esi+3842], bl
  000ee	89 9e 58 0f 00
	00		 mov	 DWORD PTR [esi+3928], ebx
  000f4	f3 0f 11 86 48
	0f 00 00	 movss	 DWORD PTR [esi+3912], xmm0

; 33   : }

  000fc	8b c6		 mov	 eax, esi
  000fe	e8 00 00 00 00	 call	 __EH_epilog3
  00103	c3		 ret	 0
_TEXT	ENDS
;	COMDAT text$x
text$x	SEGMENT
__unwindfunclet$??0ioSummonChargeItem@@QAE@XZ$0:
  00000	8b 4d ec	 mov	 ecx, DWORD PTR _this$[ebp]
  00003	e9 00 00 00 00	 jmp	 ??1ioWeaponItem@@UAE@XZ	; ioWeaponItem::~ioWeaponItem
__unwindfunclet$??0ioSummonChargeItem@@QAE@XZ$1:
  00008	8b 4d ec	 mov	 ecx, DWORD PTR _this$[ebp]
  0000b	81 c1 60 19 00
	00		 add	 ecx, 6496		; 00001960H
  00011	ff 25 00 00 00
	00		 jmp	 DWORD PTR __imp_??1ioHashString@@QAE@XZ
__unwindfunclet$??0ioSummonChargeItem@@QAE@XZ$2:
  00017	8b 4d ec	 mov	 ecx, DWORD PTR _this$[ebp]
  0001a	81 c1 7c 19 00
	00		 add	 ecx, 6524		; 0000197cH
  00020	ff 25 00 00 00
	00		 jmp	 DWORD PTR __imp_??1ioHashString@@QAE@XZ
__unwindfunclet$??0ioSummonChargeItem@@QAE@XZ$3:
  00026	8b 4d ec	 mov	 ecx, DWORD PTR _this$[ebp]
  00029	81 c1 90 19 00
	00		 add	 ecx, 6544		; 00001990H
  0002f	ff 25 00 00 00
	00		 jmp	 DWORD PTR __imp_??1ioHashString@@QAE@XZ
__unwindfunclet$??0ioSummonChargeItem@@QAE@XZ$4:
  00035	8b 4d ec	 mov	 ecx, DWORD PTR _this$[ebp]
  00038	81 c1 a0 19 00
	00		 add	 ecx, 6560		; 000019a0H
  0003e	e9 00 00 00 00	 jmp	 ??1?$vector@UtagSummonAttackInfo@@V?$allocator@UtagSummonAttackInfo@@@std@@@std@@QAE@XZ ; std::vector<tagSummonAttackInfo,std::allocator<tagSummonAttackInfo> >::~vector<tagSummonAttackInfo,std::allocator<tagSummonAttackInfo> >
__unwindfunclet$??0ioSummonChargeItem@@QAE@XZ$5:
  00043	8b 4d ec	 mov	 ecx, DWORD PTR _this$[ebp]
  00046	81 c1 b0 19 00
	00		 add	 ecx, 6576		; 000019b0H
  0004c	e9 00 00 00 00	 jmp	 ??1?$CEncrypt@H@@UAE@XZ	; CEncrypt<int>::~CEncrypt<int>
__unwindfunclet$??0ioSummonChargeItem@@QAE@XZ$6:
  00051	8b 4d ec	 mov	 ecx, DWORD PTR _this$[ebp]
  00054	81 c1 e0 19 00
	00		 add	 ecx, 6624		; 000019e0H
  0005a	e9 00 00 00 00	 jmp	 ??1?$CEncrypt@H@@UAE@XZ	; CEncrypt<int>::~CEncrypt<int>
__unwindfunclet$??0ioSummonChargeItem@@QAE@XZ$7:
  0005f	8b 4d ec	 mov	 ecx, DWORD PTR _this$[ebp]
  00062	81 c1 18 1a 00
	00		 add	 ecx, 6680		; 00001a18H
  00068	ff 25 00 00 00
	00		 jmp	 DWORD PTR __imp_??1ioHashString@@QAE@XZ
__unwindfunclet$??0ioSummonChargeItem@@QAE@XZ$8:
  0006e	8b 4d ec	 mov	 ecx, DWORD PTR _this$[ebp]
  00071	81 c1 48 1a 00
	00		 add	 ecx, 6728		; 00001a48H
  00077	e9 00 00 00 00	 jmp	 ??1?$CEncrypt@M@@UAE@XZ	; CEncrypt<float>::~CEncrypt<float>
__ehhandler$??0ioSummonChargeItem@@QAE@XZ:
  0007c	8b 54 24 08	 mov	 edx, DWORD PTR [esp+8]
  00080	8d 42 0c	 lea	 eax, DWORD PTR [edx+12]
  00083	8b 4a e8	 mov	 ecx, DWORD PTR [edx-24]
  00086	33 c8		 xor	 ecx, eax
  00088	e8 00 00 00 00	 call	 @__security_check_cookie@4
  0008d	b8 00 00 00 00	 mov	 eax, OFFSET __ehfuncinfo$??0ioSummonChargeItem@@QAE@XZ
  00092	e9 00 00 00 00	 jmp	 ___CxxFrameHandler3
text$x	ENDS
??0ioSummonChargeItem@@QAE@XZ ENDP			; ioSummonChargeItem::ioSummonChargeItem
; Function compile flags: /Ogsp
; File d:\lost saga for developer\youtube\tutorial\source\src\lsclient\ioattackableitem.h
;	COMDAT ?CheckOnHand@ioAttackableItem@@UAE_NXZ
_TEXT	SEGMENT
?CheckOnHand@ioAttackableItem@@UAE_NXZ PROC		; ioAttackableItem::CheckOnHand, COMDAT
; _this$ = ecx

; 429  : 	virtual bool CheckOnHand() { return false; }

  00000	32 c0		 xor	 al, al
  00002	c3		 ret	 0
?CheckOnHand@ioAttackableItem@@UAE_NXZ ENDP		; ioAttackableItem::CheckOnHand
; Function compile flags: /Ogsp
_TEXT	ENDS
;	COMDAT ?CheckAimState@ioAttackableItem@@UAE_N_N@Z
_TEXT	SEGMENT
_bAimMove$ = 8						; size = 1
?CheckAimState@ioAttackableItem@@UAE_N_N@Z PROC		; ioAttackableItem::CheckAimState, COMDAT
; _this$ = ecx

; 430  : 	virtual bool CheckAimState( bool bAimMove = false ) { return false; }

  00000	32 c0		 xor	 al, al
  00002	c2 04 00	 ret	 4
?CheckAimState@ioAttackableItem@@UAE_N_N@Z ENDP		; ioAttackableItem::CheckAimState
; Function compile flags: /Ogsp
_TEXT	ENDS
;	COMDAT ?SetAimState@ioAttackableItem@@UAE_NPAVioBaseChar@@@Z
_TEXT	SEGMENT
_pChar$ = 8						; size = 4
?SetAimState@ioAttackableItem@@UAE_NPAVioBaseChar@@@Z PROC ; ioAttackableItem::SetAimState, COMDAT
; _this$ = ecx

; 431  : 	virtual bool SetAimState( ioBaseChar *pChar ) { return false; }

  00000	32 c0		 xor	 al, al
  00002	c2 04 00	 ret	 4
?SetAimState@ioAttackableItem@@UAE_NPAVioBaseChar@@@Z ENDP ; ioAttackableItem::SetAimState
; Function compile flags: /Ogsp
_TEXT	ENDS
;	COMDAT ?CheckExtendDefenseEnable@ioAttackableItem@@UAE_NPAVioBaseChar@@@Z
_TEXT	SEGMENT
_pChar$ = 8						; size = 4
?CheckExtendDefenseEnable@ioAttackableItem@@UAE_NPAVioBaseChar@@@Z PROC ; ioAttackableItem::CheckExtendDefenseEnable, COMDAT
; _this$ = ecx

; 434  : 	virtual bool CheckExtendDefenseEnable( ioBaseChar *pChar ) { return true; }

  00000	b0 01		 mov	 al, 1
  00002	c2 04 00	 ret	 4
?CheckExtendDefenseEnable@ioAttackableItem@@UAE_NPAVioBaseChar@@@Z ENDP ; ioAttackableItem::CheckExtendDefenseEnable
; Function compile flags: /Ogsp
_TEXT	ENDS
;	COMDAT ?IsMoveAttackState@ioAttackableItem@@UAE_NPAVioBaseChar@@@Z
_TEXT	SEGMENT
_pOwner$ = 8						; size = 4
?IsMoveAttackState@ioAttackableItem@@UAE_NPAVioBaseChar@@@Z PROC ; ioAttackableItem::IsMoveAttackState, COMDAT
; _this$ = ecx

; 437  : 	virtual bool IsMoveAttackState( ioBaseChar *pOwner ) { return false; }

  00000	32 c0		 xor	 al, al
  00002	c2 04 00	 ret	 4
?IsMoveAttackState@ioAttackableItem@@UAE_NPAVioBaseChar@@@Z ENDP ; ioAttackableItem::IsMoveAttackState
; Function compile flags: /Ogsp
_TEXT	ENDS
;	COMDAT ?IsNoGhostWalk@ioAttackableItem@@UAE_NPAVioBaseChar@@@Z
_TEXT	SEGMENT
_pOwner$ = 8						; size = 4
?IsNoGhostWalk@ioAttackableItem@@UAE_NPAVioBaseChar@@@Z PROC ; ioAttackableItem::IsNoGhostWalk, COMDAT
; _this$ = ecx

; 439  : 	virtual bool IsNoGhostWalk( ioBaseChar *pOwner ) { return false; }

  00000	32 c0		 xor	 al, al
  00002	c2 04 00	 ret	 4
?IsNoGhostWalk@ioAttackableItem@@UAE_NPAVioBaseChar@@@Z ENDP ; ioAttackableItem::IsNoGhostWalk
; Function compile flags: /Ogsp
_TEXT	ENDS
;	COMDAT ?IsEnableItemDashCheck@ioAttackableItem@@UAE_NPAVioBaseChar@@_N@Z
_TEXT	SEGMENT
_pOwner$ = 8						; size = 4
_bCheck$ = 12						; size = 1
?IsEnableItemDashCheck@ioAttackableItem@@UAE_NPAVioBaseChar@@_N@Z PROC ; ioAttackableItem::IsEnableItemDashCheck, COMDAT
; _this$ = ecx

; 442  : 	virtual bool IsEnableItemDashCheck( ioBaseChar *pOwner, bool bCheck ) { return false; }

  00000	32 c0		 xor	 al, al
  00002	c2 08 00	 ret	 8
?IsEnableItemDashCheck@ioAttackableItem@@UAE_NPAVioBaseChar@@_N@Z ENDP ; ioAttackableItem::IsEnableItemDashCheck
; Function compile flags: /Ogsp
_TEXT	ENDS
;	COMDAT ?IsEnableChargeDefenseCheck@ioAttackableItem@@UAE_NXZ
_TEXT	SEGMENT
?IsEnableChargeDefenseCheck@ioAttackableItem@@UAE_NXZ PROC ; ioAttackableItem::IsEnableChargeDefenseCheck, COMDAT
; _this$ = ecx

; 444  : 	virtual bool IsEnableChargeDefenseCheck() { return false; }

  00000	32 c0		 xor	 al, al
  00002	c3		 ret	 0
?IsEnableChargeDefenseCheck@ioAttackableItem@@UAE_NXZ ENDP ; ioAttackableItem::IsEnableChargeDefenseCheck
; Function compile flags: /Ogsp
_TEXT	ENDS
;	COMDAT ?IsUseDefenceCounterAttackEndDash@ioAttackableItem@@UAE_NXZ
_TEXT	SEGMENT
?IsUseDefenceCounterAttackEndDash@ioAttackableItem@@UAE_NXZ PROC ; ioAttackableItem::IsUseDefenceCounterAttackEndDash, COMDAT
; _this$ = ecx

; 464  : 	virtual bool IsUseDefenceCounterAttackEndDash() { return false; }

  00000	32 c0		 xor	 al, al
  00002	c3		 ret	 0
?IsUseDefenceCounterAttackEndDash@ioAttackableItem@@UAE_NXZ ENDP ; ioAttackableItem::IsUseDefenceCounterAttackEndDash
; Function compile flags: /Ogsp
_TEXT	ENDS
;	COMDAT ?IsAutoTarget@ioAttackableItem@@UBE_NXZ
_TEXT	SEGMENT
?IsAutoTarget@ioAttackableItem@@UBE_NXZ PROC		; ioAttackableItem::IsAutoTarget, COMDAT
; _this$ = ecx

; 707  : 	virtual bool IsAutoTarget() const { return true; }

  00000	b0 01		 mov	 al, 1
  00002	c3		 ret	 0
?IsAutoTarget@ioAttackableItem@@UBE_NXZ ENDP		; ioAttackableItem::IsAutoTarget
; Function compile flags: /Ogsp
_TEXT	ENDS
;	COMDAT ?IsWoundAfterUseExtendState@ioAttackableItem@@UAE_NXZ
_TEXT	SEGMENT
?IsWoundAfterUseExtendState@ioAttackableItem@@UAE_NXZ PROC ; ioAttackableItem::IsWoundAfterUseExtendState, COMDAT
; _this$ = ecx

; 724  : 	virtual bool IsWoundAfterUseExtendState(){ return false; }

  00000	32 c0		 xor	 al, al
  00002	c3		 ret	 0
?IsWoundAfterUseExtendState@ioAttackableItem@@UAE_NXZ ENDP ; ioAttackableItem::IsWoundAfterUseExtendState
; Function compile flags: /Ogsp
_TEXT	ENDS
;	COMDAT ?CheckWoundAfterUseExtendState@ioAttackableItem@@UAE_NPAVioBaseChar@@W4BlowTargetType@@@Z
_TEXT	SEGMENT
_pOwner$ = 8						; size = 4
_eType$ = 12						; size = 4
?CheckWoundAfterUseExtendState@ioAttackableItem@@UAE_NPAVioBaseChar@@W4BlowTargetType@@@Z PROC ; ioAttackableItem::CheckWoundAfterUseExtendState, COMDAT
; _this$ = ecx

; 725  : 	virtual bool CheckWoundAfterUseExtendState( ioBaseChar* pOwner, BlowTargetType eType ){ return false; }

  00000	32 c0		 xor	 al, al
  00002	c2 08 00	 ret	 8
?CheckWoundAfterUseExtendState@ioAttackableItem@@UAE_NPAVioBaseChar@@W4BlowTargetType@@@Z ENDP ; ioAttackableItem::CheckWoundAfterUseExtendState
; Function compile flags: /Ogsp
_TEXT	ENDS
;	COMDAT ?IsCharSkipState@ioAttackableItem@@UAE_NPBVioBaseChar@@@Z
_TEXT	SEGMENT
_pOwner$ = 8						; size = 4
?IsCharSkipState@ioAttackableItem@@UAE_NPBVioBaseChar@@@Z PROC ; ioAttackableItem::IsCharSkipState, COMDAT
; _this$ = ecx

; 728  : 	virtual bool IsCharSkipState( const ioBaseChar* pOwner ){ return false; }

  00000	32 c0		 xor	 al, al
  00002	c2 04 00	 ret	 4
?IsCharSkipState@ioAttackableItem@@UAE_NPBVioBaseChar@@@Z ENDP ; ioAttackableItem::IsCharSkipState
; Function compile flags: /Ogsp
; File d:\lost saga for developer\youtube\tutorial\source\src\lsclient\iosummonchargeitem.h
_TEXT	ENDS
;	COMDAT ?GetExtraGauge@ioSummonChargeItem@@UAEMXZ
_TEXT	SEGMENT
_value$553124 = -4					; size = 4
?GetExtraGauge@ioSummonChargeItem@@UAEMXZ PROC		; ioSummonChargeItem::GetExtraGauge, COMDAT
; _this$ = ecx

; 79   : 	virtual float GetExtraGauge() { return m_fSkillGaugeRate; }

  00000	55		 push	 ebp
  00001	8b ec		 mov	 ebp, esp
  00003	51		 push	 ecx
  00004	8d 45 fc	 lea	 eax, DWORD PTR _value$553124[ebp]
  00007	50		 push	 eax
  00008	81 c1 48 1a 00
	00		 add	 ecx, 6728		; 00001a48H
  0000e	e8 00 00 00 00	 call	 ?DecryptValueToPool@?$CEncrypt@M@@QAEXPAM@Z ; CEncrypt<float>::DecryptValueToPool
  00013	d9 45 fc	 fld	 DWORD PTR _value$553124[ebp]
  00016	c9		 leave
  00017	c3		 ret	 0
?GetExtraGauge@ioSummonChargeItem@@UAEMXZ ENDP		; ioSummonChargeItem::GetExtraGauge
_TEXT	ENDS
PUBLIC	??0ioSummonChargeItem@@QAE@ABV0@@Z		; ioSummonChargeItem::ioSummonChargeItem
EXTRN	??0ioWeaponItem@@QAE@ABV0@@Z:PROC		; ioWeaponItem::ioWeaponItem
;	COMDAT xdata$x
; File d:\lost saga for developer\youtube\tutorial\source\src\lsclient\encryptvalue.h
xdata$x	SEGMENT
__ehfuncinfo$??0ioSummonChargeItem@@QAE@ABV0@@Z DD 019930522H
	DD	09H
	DD	FLAT:__unwindtable$??0ioSummonChargeItem@@QAE@ABV0@@Z
	DD	2 DUP(00H)
	DD	2 DUP(00H)
	DD	00H
	DD	01H
__unwindtable$??0ioSummonChargeItem@@QAE@ABV0@@Z DD 0ffffffffH
	DD	FLAT:__unwindfunclet$??0ioSummonChargeItem@@QAE@ABV0@@Z$0
	DD	00H
	DD	FLAT:__unwindfunclet$??0ioSummonChargeItem@@QAE@ABV0@@Z$1
	DD	01H
	DD	FLAT:__unwindfunclet$??0ioSummonChargeItem@@QAE@ABV0@@Z$2
	DD	02H
	DD	FLAT:__unwindfunclet$??0ioSummonChargeItem@@QAE@ABV0@@Z$3
	DD	03H
	DD	FLAT:__unwindfunclet$??0ioSummonChargeItem@@QAE@ABV0@@Z$4
	DD	04H
	DD	FLAT:__unwindfunclet$??0ioSummonChargeItem@@QAE@ABV0@@Z$5
	DD	05H
	DD	FLAT:__unwindfunclet$??0ioSummonChargeItem@@QAE@ABV0@@Z$6
	DD	06H
	DD	FLAT:__unwindfunclet$??0ioSummonChargeItem@@QAE@ABV0@@Z$7
	DD	07H
	DD	FLAT:__unwindfunclet$??0ioSummonChargeItem@@QAE@ABV0@@Z$8
; Function compile flags: /Ogsp
; File d:\lost saga for developer\youtube\tutorial\source\src\lsclient\iosummonchargeitem.cpp
xdata$x	ENDS
;	COMDAT ??0ioSummonChargeItem@@QAE@ABV0@@Z
_TEXT	SEGMENT
_this$ = -16						; size = 4
__$EHRec$ = -12						; size = 12
_value$553142 = 8					; size = 4
_rhs$ = 8						; size = 4
??0ioSummonChargeItem@@QAE@ABV0@@Z PROC			; ioSummonChargeItem::ioSummonChargeItem, COMDAT
; _this$ = ecx

; 49   : {

  00000	6a 04		 push	 4
  00002	b8 00 00 00 00	 mov	 eax, __ehhandler$??0ioSummonChargeItem@@QAE@ABV0@@Z
  00007	e8 00 00 00 00	 call	 __EH_prolog3
  0000c	8b f1		 mov	 esi, ecx
  0000e	89 75 f0	 mov	 DWORD PTR _this$[ebp], esi
  00011	8b 7d 08	 mov	 edi, DWORD PTR _rhs$[ebp]
  00014	57		 push	 edi
  00015	e8 00 00 00 00	 call	 ??0ioWeaponItem@@QAE@ABV0@@Z ; ioWeaponItem::ioWeaponItem
  0001a	8b 1d 00 00 00
	00		 mov	 ebx, DWORD PTR __imp_??0ioHashString@@QAE@ABV0@@Z
  00020	83 65 fc 00	 and	 DWORD PTR __$EHRec$[ebp+8], 0
  00024	8d 87 60 19 00
	00		 lea	 eax, DWORD PTR [edi+6496]
  0002a	50		 push	 eax
  0002b	8d 8e 60 19 00
	00		 lea	 ecx, DWORD PTR [esi+6496]
  00031	c7 06 00 00 00
	00		 mov	 DWORD PTR [esi], OFFSET ??_7ioSummonChargeItem@@6B@
  00037	ff d3		 call	 ebx
  00039	d9 87 70 19 00
	00		 fld	 DWORD PTR [edi+6512]
  0003f	8d 87 7c 19 00
	00		 lea	 eax, DWORD PTR [edi+6524]
  00045	d9 9e 70 19 00
	00		 fstp	 DWORD PTR [esi+6512]
  0004b	50		 push	 eax
  0004c	8d 8e 7c 19 00
	00		 lea	 ecx, DWORD PTR [esi+6524]
  00052	c6 45 fc 01	 mov	 BYTE PTR __$EHRec$[ebp+8], 1
  00056	ff d3		 call	 ebx
  00058	8d 87 90 19 00
	00		 lea	 eax, DWORD PTR [edi+6544]
  0005e	50		 push	 eax
  0005f	8d 8e 90 19 00
	00		 lea	 ecx, DWORD PTR [esi+6544]
  00065	c6 45 fc 02	 mov	 BYTE PTR __$EHRec$[ebp+8], 2
  00069	ff d3		 call	 ebx
  0006b	8d 87 a0 19 00
	00		 lea	 eax, DWORD PTR [edi+6560]
  00071	50		 push	 eax
  00072	8d 8e a0 19 00
	00		 lea	 ecx, DWORD PTR [esi+6560]
  00078	c6 45 fc 03	 mov	 BYTE PTR __$EHRec$[ebp+8], 3
  0007c	e8 00 00 00 00	 call	 ??0?$vector@UtagSummonAttackInfo@@V?$allocator@UtagSummonAttackInfo@@@std@@@std@@QAE@ABV01@@Z ; std::vector<tagSummonAttackInfo,std::allocator<tagSummonAttackInfo> >::vector<tagSummonAttackInfo,std::allocator<tagSummonAttackInfo> >
  00081	8d 87 b0 19 00
	00		 lea	 eax, DWORD PTR [edi+6576]
  00087	50		 push	 eax
  00088	8d 8e b0 19 00
	00		 lea	 ecx, DWORD PTR [esi+6576]
  0008e	c6 45 fc 04	 mov	 BYTE PTR __$EHRec$[ebp+8], 4
  00092	e8 00 00 00 00	 call	 ??0?$CEncrypt@H@@QAE@ABV0@@Z ; CEncrypt<int>::CEncrypt<int>
  00097	8d 8e e0 19 00
	00		 lea	 ecx, DWORD PTR [esi+6624]
  0009d	c6 45 fc 05	 mov	 BYTE PTR __$EHRec$[ebp+8], 5
  000a1	e8 00 00 00 00	 call	 ??0?$CEncrypt@H@@QAE@XZ	; CEncrypt<int>::CEncrypt<int>
  000a6	8b 87 14 1a 00
	00		 mov	 eax, DWORD PTR [edi+6676]
  000ac	89 86 14 1a 00
	00		 mov	 DWORD PTR [esi+6676], eax
  000b2	8d 87 18 1a 00
	00		 lea	 eax, DWORD PTR [edi+6680]
  000b8	50		 push	 eax
  000b9	8d 8e 18 1a 00
	00		 lea	 ecx, DWORD PTR [esi+6680]
  000bf	c6 45 fc 06	 mov	 BYTE PTR __$EHRec$[ebp+8], 6
  000c3	ff d3		 call	 ebx
  000c5	d9 87 28 1a 00
	00		 fld	 DWORD PTR [edi+6696]
  000cb	d9 9e 28 1a 00
	00		 fstp	 DWORD PTR [esi+6696]
  000d1	81 c7 48 1a 00
	00		 add	 edi, 6728		; 00001a48H
  000d7	d9 47 f4	 fld	 DWORD PTR [edi-12]
  000da	57		 push	 edi
  000db	d9 9e 3c 1a 00
	00		 fstp	 DWORD PTR [esi+6716]
  000e1	8d 8e 48 1a 00
	00		 lea	 ecx, DWORD PTR [esi+6728]
  000e7	d9 47 f8	 fld	 DWORD PTR [edi-8]
  000ea	c6 45 fc 07	 mov	 BYTE PTR __$EHRec$[ebp+8], 7
  000ee	d9 9e 40 1a 00
	00		 fstp	 DWORD PTR [esi+6720]
  000f4	e8 00 00 00 00	 call	 ??0?$CEncrypt@M@@QAE@ABV0@@Z ; CEncrypt<float>::CEncrypt<float>

; 50   : 	m_ChargeState = CS_NONE;
; 51   : 	m_dwAttackStartTime = 0;
; 52   : 	m_iCurCombo = 0;
; 53   : 
; 54   : 	m_GatheringEffectID = -1;

  000f9	83 8e 74 19 00
	00 ff		 or	 DWORD PTR [esi+6516], -1
  00100	33 ff		 xor	 edi, edi

; 55   : 
; 56   : 	m_bSetChargingMoveAni = false;
; 57   : 
; 58   : 	m_iCurSummonCnt = 1;

  00102	8d 45 08	 lea	 eax, DWORD PTR _value$553142[ebp]
  00105	50		 push	 eax
  00106	8d 8e e0 19 00
	00		 lea	 ecx, DWORD PTR [esi+6624]
  0010c	c6 45 fc 08	 mov	 BYTE PTR __$EHRec$[ebp+8], 8
  00110	89 be 54 19 00
	00		 mov	 DWORD PTR [esi+6484], edi
  00116	89 be 58 19 00
	00		 mov	 DWORD PTR [esi+6488], edi
  0011c	89 be 5c 19 00
	00		 mov	 DWORD PTR [esi+6492], edi
  00122	c6 86 8c 19 00
	00 00		 mov	 BYTE PTR [esi+6540], 0
  00129	c7 45 08 01 00
	00 00		 mov	 DWORD PTR _value$553142[ebp], 1
  00130	e8 00 00 00 00	 call	 ?EncryptValueToPool@?$CEncrypt@H@@AAEXPBD@Z ; CEncrypt<int>::EncryptValueToPool

; 59   : 
; 60   : 	m_dwRetreatEndTime = 0;
; 61   : 	m_dwRetreatForceTime = 0;
; 62   : 
; 63   : 	m_iCurAirJump = 0;
; 64   : 	m_fAirJumpPowerRate = 0.0f;

  00135	0f 57 c0	 xorps	 xmm0, xmm0
  00138	89 be 2c 1a 00
	00		 mov	 DWORD PTR [esi+6700], edi
  0013e	89 be 44 1a 00
	00		 mov	 DWORD PTR [esi+6724], edi
  00144	89 be 58 0f 00
	00		 mov	 DWORD PTR [esi+3928], edi
  0014a	f3 0f 11 86 48
	0f 00 00	 movss	 DWORD PTR [esi+3912], xmm0

; 65   : }

  00152	8b c6		 mov	 eax, esi
  00154	e8 00 00 00 00	 call	 __EH_epilog3
  00159	c2 04 00	 ret	 4
_TEXT	ENDS
;	COMDAT text$x
text$x	SEGMENT
__unwindfunclet$??0ioSummonChargeItem@@QAE@ABV0@@Z$0:
  00000	8b 4d f0	 mov	 ecx, DWORD PTR _this$[ebp]
  00003	e9 00 00 00 00	 jmp	 ??1ioWeaponItem@@UAE@XZ	; ioWeaponItem::~ioWeaponItem
__unwindfunclet$??0ioSummonChargeItem@@QAE@ABV0@@Z$1:
  00008	8b 4d f0	 mov	 ecx, DWORD PTR _this$[ebp]
  0000b	81 c1 60 19 00
	00		 add	 ecx, 6496		; 00001960H
  00011	ff 25 00 00 00
	00		 jmp	 DWORD PTR __imp_??1ioHashString@@QAE@XZ
__unwindfunclet$??0ioSummonChargeItem@@QAE@ABV0@@Z$2:
  00017	8b 4d f0	 mov	 ecx, DWORD PTR _this$[ebp]
  0001a	81 c1 7c 19 00
	00		 add	 ecx, 6524		; 0000197cH
  00020	ff 25 00 00 00
	00		 jmp	 DWORD PTR __imp_??1ioHashString@@QAE@XZ
__unwindfunclet$??0ioSummonChargeItem@@QAE@ABV0@@Z$3:
  00026	8b 4d f0	 mov	 ecx, DWORD PTR _this$[ebp]
  00029	81 c1 90 19 00
	00		 add	 ecx, 6544		; 00001990H
  0002f	ff 25 00 00 00
	00		 jmp	 DWORD PTR __imp_??1ioHashString@@QAE@XZ
__unwindfunclet$??0ioSummonChargeItem@@QAE@ABV0@@Z$4:
  00035	8b 4d f0	 mov	 ecx, DWORD PTR _this$[ebp]
  00038	81 c1 a0 19 00
	00		 add	 ecx, 6560		; 000019a0H
  0003e	e9 00 00 00 00	 jmp	 ??1?$vector@UtagSummonAttackInfo@@V?$allocator@UtagSummonAttackInfo@@@std@@@std@@QAE@XZ ; std::vector<tagSummonAttackInfo,std::allocator<tagSummonAttackInfo> >::~vector<tagSummonAttackInfo,std::allocator<tagSummonAttackInfo> >
__unwindfunclet$??0ioSummonChargeItem@@QAE@ABV0@@Z$5:
  00043	8b 4d f0	 mov	 ecx, DWORD PTR _this$[ebp]
  00046	81 c1 b0 19 00
	00		 add	 ecx, 6576		; 000019b0H
  0004c	e9 00 00 00 00	 jmp	 ??1?$CEncrypt@H@@UAE@XZ	; CEncrypt<int>::~CEncrypt<int>
__unwindfunclet$??0ioSummonChargeItem@@QAE@ABV0@@Z$6:
  00051	8b 4d f0	 mov	 ecx, DWORD PTR _this$[ebp]
  00054	81 c1 e0 19 00
	00		 add	 ecx, 6624		; 000019e0H
  0005a	e9 00 00 00 00	 jmp	 ??1?$CEncrypt@H@@UAE@XZ	; CEncrypt<int>::~CEncrypt<int>
__unwindfunclet$??0ioSummonChargeItem@@QAE@ABV0@@Z$7:
  0005f	8b 4d f0	 mov	 ecx, DWORD PTR _this$[ebp]
  00062	81 c1 18 1a 00
	00		 add	 ecx, 6680		; 00001a18H
  00068	ff 25 00 00 00
	00		 jmp	 DWORD PTR __imp_??1ioHashString@@QAE@XZ
__unwindfunclet$??0ioSummonChargeItem@@QAE@ABV0@@Z$8:
  0006e	8b 4d f0	 mov	 ecx, DWORD PTR _this$[ebp]
  00071	81 c1 48 1a 00
	00		 add	 ecx, 6728		; 00001a48H
  00077	e9 00 00 00 00	 jmp	 ??1?$CEncrypt@M@@UAE@XZ	; CEncrypt<float>::~CEncrypt<float>
__ehhandler$??0ioSummonChargeItem@@QAE@ABV0@@Z:
  0007c	8b 54 24 08	 mov	 edx, DWORD PTR [esp+8]
  00080	8d 42 0c	 lea	 eax, DWORD PTR [edx+12]
  00083	8b 4a ec	 mov	 ecx, DWORD PTR [edx-20]
  00086	33 c8		 xor	 ecx, eax
  00088	e8 00 00 00 00	 call	 @__security_check_cookie@4
  0008d	b8 00 00 00 00	 mov	 eax, OFFSET __ehfuncinfo$??0ioSummonChargeItem@@QAE@ABV0@@Z
  00092	e9 00 00 00 00	 jmp	 ___CxxFrameHandler3
text$x	ENDS
??0ioSummonChargeItem@@QAE@ABV0@@Z ENDP			; ioSummonChargeItem::ioSummonChargeItem
PUBLIC	??1ioSummonChargeItem@@UAE@XZ			; ioSummonChargeItem::~ioSummonChargeItem
;	COMDAT xdata$x
; File c:\program files (x86)\microsoft visual studio 10.0\vc\include\vector
xdata$x	SEGMENT
__ehfuncinfo$??1ioSummonChargeItem@@UAE@XZ DD 019930522H
	DD	08H
	DD	FLAT:__unwindtable$??1ioSummonChargeItem@@UAE@XZ
	DD	2 DUP(00H)
	DD	2 DUP(00H)
	DD	00H
	DD	01H
__unwindtable$??1ioSummonChargeItem@@UAE@XZ DD 0ffffffffH
	DD	FLAT:__unwindfunclet$??1ioSummonChargeItem@@UAE@XZ$0
	DD	00H
	DD	FLAT:__unwindfunclet$??1ioSummonChargeItem@@UAE@XZ$1
	DD	01H
	DD	FLAT:__unwindfunclet$??1ioSummonChargeItem@@UAE@XZ$2
	DD	02H
	DD	FLAT:__unwindfunclet$??1ioSummonChargeItem@@UAE@XZ$3
	DD	03H
	DD	FLAT:__unwindfunclet$??1ioSummonChargeItem@@UAE@XZ$4
	DD	04H
	DD	FLAT:__unwindfunclet$??1ioSummonChargeItem@@UAE@XZ$5
	DD	05H
	DD	FLAT:__unwindfunclet$??1ioSummonChargeItem@@UAE@XZ$6
	DD	06H
	DD	FLAT:__unwindfunclet$??1ioSummonChargeItem@@UAE@XZ$7
; Function compile flags: /Ogsp
; File d:\lost saga for developer\youtube\tutorial\source\src\lsclient\iosummonchargeitem.cpp
xdata$x	ENDS
;	COMDAT ??1ioSummonChargeItem@@UAE@XZ
_TEXT	SEGMENT
_this$ = -16						; size = 4
__$EHRec$ = -12						; size = 12
??1ioSummonChargeItem@@UAE@XZ PROC			; ioSummonChargeItem::~ioSummonChargeItem, COMDAT
; _this$ = ecx

; 68   : {

  00000	6a 04		 push	 4
  00002	b8 00 00 00 00	 mov	 eax, __ehhandler$??1ioSummonChargeItem@@UAE@XZ
  00007	e8 00 00 00 00	 call	 __EH_prolog3
  0000c	8b f1		 mov	 esi, ecx
  0000e	89 75 f0	 mov	 DWORD PTR _this$[ebp], esi
  00011	c7 06 00 00 00
	00		 mov	 DWORD PTR [esi], OFFSET ??_7ioSummonChargeItem@@6B@

; 69   : }

  00017	8d 8e 54 1a 00
	00		 lea	 ecx, DWORD PTR [esi+6740]
  0001d	c7 45 fc 07 00
	00 00		 mov	 DWORD PTR __$EHRec$[ebp+8], 7
  00024	c7 86 48 1a 00
	00 00 00 00 00	 mov	 DWORD PTR [esi+6728], OFFSET ??_7?$CEncrypt@M@@6B@
  0002e	e8 00 00 00 00	 call	 ??1ccddaabb@@UAE@XZ	; ccddaabb::~ccddaabb
  00033	8b 3d 00 00 00
	00		 mov	 edi, DWORD PTR __imp_??1ioHashString@@QAE@XZ
  00039	8d 8e 18 1a 00
	00		 lea	 ecx, DWORD PTR [esi+6680]
  0003f	c6 45 fc 06	 mov	 BYTE PTR __$EHRec$[ebp+8], 6
  00043	ff d7		 call	 edi
  00045	bb 00 00 00 00	 mov	 ebx, OFFSET ??_7?$CEncrypt@H@@6B@
  0004a	8d 8e ec 19 00
	00		 lea	 ecx, DWORD PTR [esi+6636]
  00050	c6 45 fc 05	 mov	 BYTE PTR __$EHRec$[ebp+8], 5
  00054	89 9e e0 19 00
	00		 mov	 DWORD PTR [esi+6624], ebx
  0005a	e8 00 00 00 00	 call	 ??1ccddaabb@@UAE@XZ	; ccddaabb::~ccddaabb
  0005f	8d 8e bc 19 00
	00		 lea	 ecx, DWORD PTR [esi+6588]
  00065	c6 45 fc 04	 mov	 BYTE PTR __$EHRec$[ebp+8], 4
  00069	89 9e b0 19 00
	00		 mov	 DWORD PTR [esi+6576], ebx
  0006f	e8 00 00 00 00	 call	 ??1ccddaabb@@UAE@XZ	; ccddaabb::~ccddaabb
  00074	8d 8e a0 19 00
	00		 lea	 ecx, DWORD PTR [esi+6560]
  0007a	c6 45 fc 03	 mov	 BYTE PTR __$EHRec$[ebp+8], 3
  0007e	e8 00 00 00 00	 call	 ?_Tidy@?$vector@UtagSummonAttackInfo@@V?$allocator@UtagSummonAttackInfo@@@std@@@std@@IAEXXZ ; std::vector<tagSummonAttackInfo,std::allocator<tagSummonAttackInfo> >::_Tidy
  00083	8d 8e 90 19 00
	00		 lea	 ecx, DWORD PTR [esi+6544]
  00089	c6 45 fc 02	 mov	 BYTE PTR __$EHRec$[ebp+8], 2
  0008d	ff d7		 call	 edi
  0008f	8d 8e 7c 19 00
	00		 lea	 ecx, DWORD PTR [esi+6524]
  00095	c6 45 fc 01	 mov	 BYTE PTR __$EHRec$[ebp+8], 1
  00099	ff d7		 call	 edi
  0009b	8d 8e 60 19 00
	00		 lea	 ecx, DWORD PTR [esi+6496]
  000a1	c6 45 fc 00	 mov	 BYTE PTR __$EHRec$[ebp+8], 0
  000a5	ff d7		 call	 edi
  000a7	83 4d fc ff	 or	 DWORD PTR __$EHRec$[ebp+8], -1
  000ab	8b ce		 mov	 ecx, esi
  000ad	e8 00 00 00 00	 call	 ??1ioWeaponItem@@UAE@XZ	; ioWeaponItem::~ioWeaponItem
  000b2	e8 00 00 00 00	 call	 __EH_epilog3
  000b7	c3		 ret	 0
_TEXT	ENDS
;	COMDAT text$x
text$x	SEGMENT
__unwindfunclet$??1ioSummonChargeItem@@UAE@XZ$0:
  00000	8b 4d f0	 mov	 ecx, DWORD PTR _this$[ebp]
  00003	e9 00 00 00 00	 jmp	 ??1ioWeaponItem@@UAE@XZ	; ioWeaponItem::~ioWeaponItem
__unwindfunclet$??1ioSummonChargeItem@@UAE@XZ$1:
  00008	8b 4d f0	 mov	 ecx, DWORD PTR _this$[ebp]
  0000b	81 c1 60 19 00
	00		 add	 ecx, 6496		; 00001960H
  00011	ff 25 00 00 00
	00		 jmp	 DWORD PTR __imp_??1ioHashString@@QAE@XZ
__unwindfunclet$??1ioSummonChargeItem@@UAE@XZ$2:
  00017	8b 4d f0	 mov	 ecx, DWORD PTR _this$[ebp]
  0001a	81 c1 7c 19 00
	00		 add	 ecx, 6524		; 0000197cH
  00020	ff 25 00 00 00
	00		 jmp	 DWORD PTR __imp_??1ioHashString@@QAE@XZ
__unwindfunclet$??1ioSummonChargeItem@@UAE@XZ$3:
  00026	8b 4d f0	 mov	 ecx, DWORD PTR _this$[ebp]
  00029	81 c1 90 19 00
	00		 add	 ecx, 6544		; 00001990H
  0002f	ff 25 00 00 00
	00		 jmp	 DWORD PTR __imp_??1ioHashString@@QAE@XZ
__unwindfunclet$??1ioSummonChargeItem@@UAE@XZ$4:
  00035	8b 4d f0	 mov	 ecx, DWORD PTR _this$[ebp]
  00038	81 c1 a0 19 00
	00		 add	 ecx, 6560		; 000019a0H
  0003e	e9 00 00 00 00	 jmp	 ??1?$vector@UtagSummonAttackInfo@@V?$allocator@UtagSummonAttackInfo@@@std@@@std@@QAE@XZ ; std::vector<tagSummonAttackInfo,std::allocator<tagSummonAttackInfo> >::~vector<tagSummonAttackInfo,std::allocator<tagSummonAttackInfo> >
__unwindfunclet$??1ioSummonChargeItem@@UAE@XZ$5:
  00043	8b 4d f0	 mov	 ecx, DWORD PTR _this$[ebp]
  00046	81 c1 b0 19 00
	00		 add	 ecx, 6576		; 000019b0H
  0004c	e9 00 00 00 00	 jmp	 ??1?$CEncrypt@H@@UAE@XZ	; CEncrypt<int>::~CEncrypt<int>
__unwindfunclet$??1ioSummonChargeItem@@UAE@XZ$6:
  00051	8b 4d f0	 mov	 ecx, DWORD PTR _this$[ebp]
  00054	81 c1 e0 19 00
	00		 add	 ecx, 6624		; 000019e0H
  0005a	e9 00 00 00 00	 jmp	 ??1?$CEncrypt@H@@UAE@XZ	; CEncrypt<int>::~CEncrypt<int>
__unwindfunclet$??1ioSummonChargeItem@@UAE@XZ$7:
  0005f	8b 4d f0	 mov	 ecx, DWORD PTR _this$[ebp]
  00062	81 c1 18 1a 00
	00		 add	 ecx, 6680		; 00001a18H
  00068	ff 25 00 00 00
	00		 jmp	 DWORD PTR __imp_??1ioHashString@@QAE@XZ
__ehhandler$??1ioSummonChargeItem@@UAE@XZ:
  0006e	8b 54 24 08	 mov	 edx, DWORD PTR [esp+8]
  00072	8d 42 0c	 lea	 eax, DWORD PTR [edx+12]
  00075	8b 4a ec	 mov	 ecx, DWORD PTR [edx-20]
  00078	33 c8		 xor	 ecx, eax
  0007a	e8 00 00 00 00	 call	 @__security_check_cookie@4
  0007f	b8 00 00 00 00	 mov	 eax, OFFSET __ehfuncinfo$??1ioSummonChargeItem@@UAE@XZ
  00084	e9 00 00 00 00	 jmp	 ___CxxFrameHandler3
text$x	ENDS
??1ioSummonChargeItem@@UAE@XZ ENDP			; ioSummonChargeItem::~ioSummonChargeItem
;	COMDAT xdata$x
xdata$x	SEGMENT
__unwindtable$?Clone@ioSummonChargeItem@@UAEPAVioItem@@XZ DD 0ffffffffH
	DD	FLAT:__unwindfunclet$?Clone@ioSummonChargeItem@@UAEPAVioItem@@XZ$0
__ehfuncinfo$?Clone@ioSummonChargeItem@@UAEPAVioItem@@XZ DD 019930522H
	DD	01H
	DD	FLAT:__unwindtable$?Clone@ioSummonChargeItem@@UAEPAVioItem@@XZ
	DD	2 DUP(00H)
	DD	2 DUP(00H)
	DD	00H
	DD	01H
; Function compile flags: /Ogsp
xdata$x	ENDS
;	COMDAT ?Clone@ioSummonChargeItem@@UAEPAVioItem@@XZ
_TEXT	SEGMENT
$T553192 = -16						; size = 4
__$EHRec$ = -12						; size = 12
?Clone@ioSummonChargeItem@@UAEPAVioItem@@XZ PROC	; ioSummonChargeItem::Clone, COMDAT
; _this$ = ecx

; 133  : {

  00000	6a 04		 push	 4
  00002	b8 00 00 00 00	 mov	 eax, __ehhandler$?Clone@ioSummonChargeItem@@UAEPAVioItem@@XZ
  00007	e8 00 00 00 00	 call	 __EH_prolog3
  0000c	8b f1		 mov	 esi, ecx

; 134  : 	return new ioSummonChargeItem( *this );

  0000e	68 78 1a 00 00	 push	 6776			; 00001a78H
  00013	e8 00 00 00 00	 call	 ??2@YAPAXI@Z		; operator new
  00018	59		 pop	 ecx
  00019	8b c8		 mov	 ecx, eax
  0001b	89 4d f0	 mov	 DWORD PTR $T553192[ebp], ecx
  0001e	33 c0		 xor	 eax, eax
  00020	89 45 fc	 mov	 DWORD PTR __$EHRec$[ebp+8], eax
  00023	3b c8		 cmp	 ecx, eax
  00025	74 06		 je	 SHORT $LN3@Clone
  00027	56		 push	 esi
  00028	e8 00 00 00 00	 call	 ??0ioSummonChargeItem@@QAE@ABV0@@Z ; ioSummonChargeItem::ioSummonChargeItem
$LN3@Clone:

; 135  : }

  0002d	e8 00 00 00 00	 call	 __EH_epilog3
  00032	c3		 ret	 0
_TEXT	ENDS
;	COMDAT text$x
text$x	SEGMENT
__unwindfunclet$?Clone@ioSummonChargeItem@@UAEPAVioItem@@XZ$0:
  00000	ff 75 f0	 push	 DWORD PTR $T553192[ebp]
  00003	e8 00 00 00 00	 call	 ??3@YAXPAX@Z		; operator delete
  00008	59		 pop	 ecx
  00009	c3		 ret	 0
__ehhandler$?Clone@ioSummonChargeItem@@UAEPAVioItem@@XZ:
  0000a	8b 54 24 08	 mov	 edx, DWORD PTR [esp+8]
  0000e	8d 42 0c	 lea	 eax, DWORD PTR [edx+12]
  00011	8b 4a ec	 mov	 ecx, DWORD PTR [edx-20]
  00014	33 c8		 xor	 ecx, eax
  00016	e8 00 00 00 00	 call	 @__security_check_cookie@4
  0001b	b8 00 00 00 00	 mov	 eax, OFFSET __ehfuncinfo$?Clone@ioSummonChargeItem@@UAEPAVioItem@@XZ
  00020	e9 00 00 00 00	 jmp	 ___CxxFrameHandler3
text$x	ENDS
?Clone@ioSummonChargeItem@@UAEPAVioItem@@XZ ENDP	; ioSummonChargeItem::Clone
PUBLIC	?push_back@?$vector@UtagSummonAttackInfo@@V?$allocator@UtagSummonAttackInfo@@@std@@@std@@QAEXABUtagSummonAttackInfo@@@Z ; std::vector<tagSummonAttackInfo,std::allocator<tagSummonAttackInfo> >::push_back
; Function compile flags: /Ogsp
; File c:\program files (x86)\microsoft visual studio 10.0\vc\include\vector
;	COMDAT ?push_back@?$vector@UtagSummonAttackInfo@@V?$allocator@UtagSummonAttackInfo@@@std@@@std@@QAEXABUtagSummonAttackInfo@@@Z
_TEXT	SEGMENT
__Val$ = 8						; size = 4
?push_back@?$vector@UtagSummonAttackInfo@@V?$allocator@UtagSummonAttackInfo@@@std@@@std@@QAEXABUtagSummonAttackInfo@@@Z PROC ; std::vector<tagSummonAttackInfo,std::allocator<tagSummonAttackInfo> >::push_back, COMDAT
; _this$ = ecx

; 976  : 		{	// insert element at end

  00000	55		 push	 ebp
  00001	8b ec		 mov	 ebp, esp
  00003	56		 push	 esi
  00004	8b f1		 mov	 esi, ecx

; 977  : 		if (_Inside(_STD addressof(_Val)))

  00006	8b 4e 04	 mov	 ecx, DWORD PTR [esi+4]
  00009	57		 push	 edi
  0000a	8b 7d 08	 mov	 edi, DWORD PTR __Val$[ebp]
  0000d	3b f9		 cmp	 edi, ecx
  0000f	73 37		 jae	 SHORT $LN4@push_back
  00011	8b 16		 mov	 edx, DWORD PTR [esi]
  00013	3b d7		 cmp	 edx, edi
  00015	77 31		 ja	 SHORT $LN4@push_back

; 978  : 			{	// push back an element
; 979  : 			size_type _Idx = _STD addressof(_Val) - this->_Myfirst;

  00017	8b c7		 mov	 eax, edi
  00019	2b c2		 sub	 eax, edx
  0001b	6a 74		 push	 116			; 00000074H
  0001d	99		 cdq
  0001e	5f		 pop	 edi
  0001f	f7 ff		 idiv	 edi
  00021	8b f8		 mov	 edi, eax

; 980  : 			if (this->_Mylast == this->_Myend)

  00023	3b 4e 08	 cmp	 ecx, DWORD PTR [esi+8]
  00026	75 09		 jne	 SHORT $LN3@push_back

; 981  : 				_Reserve(1);

  00028	6a 01		 push	 1
  0002a	8b ce		 mov	 ecx, esi
  0002c	e8 00 00 00 00	 call	 ?_Reserve@?$vector@UtagSummonAttackInfo@@V?$allocator@UtagSummonAttackInfo@@@std@@@std@@IAEXI@Z ; std::vector<tagSummonAttackInfo,std::allocator<tagSummonAttackInfo> >::_Reserve
$LN3@push_back:

; 982  : 			_Orphan_range(this->_Mylast, this->_Mylast);
; 983  : 			_Cons_val(this->_Alval,
; 984  : 				this->_Mylast,
; 985  : 				this->_Myfirst[_Idx]);

  00031	6b ff 74	 imul	 edi, 116		; 00000074H
  00034	03 3e		 add	 edi, DWORD PTR [esi]
  00036	8d 46 0c	 lea	 eax, DWORD PTR [esi+12]
  00039	57		 push	 edi
  0003a	ff 76 04	 push	 DWORD PTR [esi+4]
  0003d	50		 push	 eax
  0003e	e8 00 00 00 00	 call	 ??$_Cons_val@V?$allocator@UtagSummonAttackInfo@@@std@@UtagSummonAttackInfo@@AAU3@@std@@YAXAAV?$allocator@UtagSummonAttackInfo@@@0@PAUtagSummonAttackInfo@@AAU2@@Z ; std::_Cons_val<std::allocator<tagSummonAttackInfo>,tagSummonAttackInfo,tagSummonAttackInfo &>
  00043	83 c4 0c	 add	 esp, 12			; 0000000cH

; 986  : 			++this->_Mylast;
; 987  : 			}
; 988  : 		else

  00046	eb 19		 jmp	 SHORT $LN26@push_back
$LN4@push_back:

; 989  : 			{	// push back a non-element
; 990  : 			if (this->_Mylast == this->_Myend)

  00048	3b 4e 08	 cmp	 ecx, DWORD PTR [esi+8]
  0004b	75 09		 jne	 SHORT $LN1@push_back

; 991  : 				_Reserve(1);

  0004d	6a 01		 push	 1
  0004f	8b ce		 mov	 ecx, esi
  00051	e8 00 00 00 00	 call	 ?_Reserve@?$vector@UtagSummonAttackInfo@@V?$allocator@UtagSummonAttackInfo@@@std@@@std@@IAEXI@Z ; std::vector<tagSummonAttackInfo,std::allocator<tagSummonAttackInfo> >::_Reserve
$LN1@push_back:

; 992  : 			_Orphan_range(this->_Mylast, this->_Mylast);
; 993  : 			_Cons_val(this->_Alval,
; 994  : 				this->_Mylast,
; 995  : 				_Val);

  00056	57		 push	 edi
  00057	ff 76 04	 push	 DWORD PTR [esi+4]
  0005a	e8 00 00 00 00	 call	 ??$_Construct@UtagSummonAttackInfo@@ABU1@@std@@YAXPAUtagSummonAttackInfo@@ABU1@@Z ; std::_Construct<tagSummonAttackInfo,tagSummonAttackInfo const &>
  0005f	59		 pop	 ecx
  00060	59		 pop	 ecx
$LN26@push_back:

; 996  : 			++this->_Mylast;

  00061	83 46 04 74	 add	 DWORD PTR [esi+4], 116	; 00000074H
  00065	5f		 pop	 edi
  00066	5e		 pop	 esi

; 997  : 			}
; 998  : 		}

  00067	5d		 pop	 ebp
  00068	c2 04 00	 ret	 4
?push_back@?$vector@UtagSummonAttackInfo@@V?$allocator@UtagSummonAttackInfo@@@std@@@std@@QAEXABUtagSummonAttackInfo@@@Z ENDP ; std::vector<tagSummonAttackInfo,std::allocator<tagSummonAttackInfo> >::push_back
_TEXT	ENDS
PUBLIC	?clear@?$vector@UtagSummonAttackInfo@@V?$allocator@UtagSummonAttackInfo@@@std@@@std@@QAEXXZ ; std::vector<tagSummonAttackInfo,std::allocator<tagSummonAttackInfo> >::clear
; Function compile flags: /Ogsp
;	COMDAT ?clear@?$vector@UtagSummonAttackInfo@@V?$allocator@UtagSummonAttackInfo@@@std@@@std@@QAEXXZ
_TEXT	SEGMENT
$T553245 = -4						; size = 4
?clear@?$vector@UtagSummonAttackInfo@@V?$allocator@UtagSummonAttackInfo@@@std@@@std@@QAEXXZ PROC ; std::vector<tagSummonAttackInfo,std::allocator<tagSummonAttackInfo> >::clear, COMDAT
; _this$ = ecx

; 1217 : 		{	// erase all

  00000	55		 push	 ebp
  00001	8b ec		 mov	 ebp, esp
  00003	51		 push	 ecx

; 1218 : 		erase(begin(), end());

  00004	8b 41 04	 mov	 eax, DWORD PTR [ecx+4]
  00007	8b 11		 mov	 edx, DWORD PTR [ecx]
  00009	50		 push	 eax
  0000a	52		 push	 edx
  0000b	8d 45 fc	 lea	 eax, DWORD PTR $T553245[ebp]
  0000e	50		 push	 eax
  0000f	e8 00 00 00 00	 call	 ?erase@?$vector@UtagSummonAttackInfo@@V?$allocator@UtagSummonAttackInfo@@@std@@@std@@QAE?AV?$_Vector_iterator@V?$_Vector_val@UtagSummonAttackInfo@@V?$allocator@UtagSummonAttackInfo@@@std@@@std@@@2@V?$_Vector_const_iterator@V?$_Vector_val@UtagSummonAttackInfo@@V?$allocator@UtagSummonAttackInfo@@@std@@@std@@@2@0@Z ; std::vector<tagSummonAttackInfo,std::allocator<tagSummonAttackInfo> >::erase

; 1219 : 		}

  00014	c9		 leave
  00015	c3		 ret	 0
?clear@?$vector@UtagSummonAttackInfo@@V?$allocator@UtagSummonAttackInfo@@@std@@@std@@QAEXXZ ENDP ; std::vector<tagSummonAttackInfo,std::allocator<tagSummonAttackInfo> >::clear
; Function compile flags: /Ogsp
_TEXT	ENDS
;	COMDAT ??_GioSummonChargeItem@@UAEPAXI@Z
_TEXT	SEGMENT
___flags$ = 8						; size = 4
??_GioSummonChargeItem@@UAEPAXI@Z PROC			; ioSummonChargeItem::`scalar deleting destructor', COMDAT
; _this$ = ecx
  00000	55		 push	 ebp
  00001	8b ec		 mov	 ebp, esp
  00003	56		 push	 esi
  00004	8b f1		 mov	 esi, ecx
  00006	e8 00 00 00 00	 call	 ??1ioSummonChargeItem@@UAE@XZ ; ioSummonChargeItem::~ioSummonChargeItem
  0000b	f6 45 08 01	 test	 BYTE PTR ___flags$[ebp], 1
  0000f	74 07		 je	 SHORT $LN1@scalar@6
  00011	56		 push	 esi
  00012	e8 00 00 00 00	 call	 ??3@YAXPAX@Z		; operator delete
  00017	59		 pop	 ecx
$LN1@scalar@6:
  00018	8b c6		 mov	 eax, esi
  0001a	5e		 pop	 esi
  0001b	5d		 pop	 ebp
  0001c	c2 04 00	 ret	 4
??_GioSummonChargeItem@@UAEPAXI@Z ENDP			; ioSummonChargeItem::`scalar deleting destructor'
_TEXT	ENDS
PUBLIC	??_C@_00CNPNBAHC@?$AA@				; `string'
PUBLIC	_rkLoader$GSCopy$
EXTRN	?LoadAttackAttribute@@YAXPBDAAUAttackAttribute@@AAVioINILoader@@@Z:PROC ; LoadAttackAttribute
EXTRN	__imp__wsprintfA:PROC
EXTRN	__imp_??4ioHashString@@QAEAAV0@PBD@Z:PROC
EXTRN	?LoadProperty@ioWeaponItem@@UAEXAAVioINILoader@@@Z:PROC ; ioWeaponItem::LoadProperty
EXTRN	_memset:PROC
;	COMDAT ??_C@_00CNPNBAHC@?$AA@
; File d:\lost saga for developer\youtube\tutorial\source\src\lsclient\encryptvalue.h
CONST	SEGMENT
??_C@_00CNPNBAHC@?$AA@ DB 00H				; `string'
CONST	ENDS
;	COMDAT xdata$x
xdata$x	SEGMENT
__unwindtable$?LoadProperty@ioSummonChargeItem@@UAEXAAVioINILoader@@@Z DD 0ffffffffH
	DD	FLAT:__unwindfunclet$?LoadProperty@ioSummonChargeItem@@UAEXAAVioINILoader@@@Z$0
	DD	00H
	DD	FLAT:__unwindfunclet$?LoadProperty@ioSummonChargeItem@@UAEXAAVioINILoader@@@Z$1
__ehfuncinfo$?LoadProperty@ioSummonChargeItem@@UAEXAAVioINILoader@@@Z DD 019930522H
	DD	02H
	DD	FLAT:__unwindtable$?LoadProperty@ioSummonChargeItem@@UAEXAAVioINILoader@@@Z
	DD	2 DUP(00H)
	DD	2 DUP(00H)
	DD	00H
	DD	01H
; Function compile flags: /Ogsp
; File d:\lost saga for developer\youtube\tutorial\source\src\lsclient\iosummonchargeitem.cpp
xdata$x	ENDS
;	COMDAT ?LoadProperty@ioSummonChargeItem@@UAEXAAVioINILoader@@@Z
_TEXT	SEGMENT
_kAttribute$542219 = -808				; size = 80
_kInfo$541760 = -728					; size = 116
_value$554837 = -612					; size = 4
tv13501 = -608						; size = 4
tv13447 = -608						; size = 4
tv13432 = -608						; size = 4
tv13424 = -608						; size = 4
_value$554149 = -608					; size = 4
_value$554145 = -608					; size = 4
$T554123 = -608						; size = 4
_value$554060 = -608					; size = 4
_rkLoader$GSCopy$ = -604				; size = 4
tv13481 = -600						; size = 4
_i$554658 = -600					; size = 4
_i$553615 = -600					; size = 4
_szKey$ = -596						; size = 260
_szBuf$ = -336						; size = 260
__k$554725 = -76					; size = 17
__k$554355 = -52					; size = 29
__k$554669 = -48					; size = 23
__k$554226 = -48					; size = 24
__k$553331 = -48					; size = 23
__k$554480 = -44					; size = 18
__k$553626 = -44					; size = 19
__k$553456 = -44					; size = 20
__k$553947 = -40					; size = 15
__k$553822 = -40					; size = 17
__k$553697 = -40					; size = 16
___encStr$542223 = -40					; size = 17
___encStr$542070 = -40					; size = 16
___encStr$541918 = -40					; size = 17
___encStr$541764 = -40					; size = 15
__$EHRec$ = -12						; size = 12
_rkLoader$ = 8						; size = 4
?LoadProperty@ioSummonChargeItem@@UAEXAAVioINILoader@@@Z PROC ; ioSummonChargeItem::LoadProperty, COMDAT
; _this$ = ecx

; 72   : {

  00000	68 1c 03 00 00	 push	 796			; 0000031cH
  00005	b8 00 00 00 00	 mov	 eax, __ehhandler$?LoadProperty@ioSummonChargeItem@@UAEXAAVioINILoader@@@Z
  0000a	e8 00 00 00 00	 call	 __EH_prolog3_GS
  0000f	8b 45 08	 mov	 eax, DWORD PTR _rkLoader$[ebp]

; 73   : 	ioWeaponItem::LoadProperty( rkLoader );

  00012	50		 push	 eax
  00013	8b f1		 mov	 esi, ecx

; 120  : 
; 121  : 	//
; 122  : 	rkLoader.LoadString_e( "retreat_animation_front", "", szBuf, MAX_PATH );

  00015	89 85 a4 fd ff
	ff		 mov	 DWORD PTR _rkLoader$GSCopy$[ebp], eax
  0001b	e8 00 00 00 00	 call	 ?LoadProperty@ioWeaponItem@@UAEXAAVioINILoader@@@Z ; ioWeaponItem::LoadProperty
  00020	bf 03 01 00 00	 mov	 edi, 259		; 00000103H
  00025	33 db		 xor	 ebx, ebx
  00027	57		 push	 edi
  00028	8d 85 b1 fe ff
	ff		 lea	 eax, DWORD PTR _szBuf$[ebp+1]
  0002e	53		 push	 ebx
  0002f	50		 push	 eax
  00030	88 9d b0 fe ff
	ff		 mov	 BYTE PTR _szBuf$[ebp], bl
  00036	e8 00 00 00 00	 call	 _memset
  0003b	57		 push	 edi
  0003c	8d 85 ad fd ff
	ff		 lea	 eax, DWORD PTR _szKey$[ebp+1]
  00042	53		 push	 ebx
  00043	50		 push	 eax
  00044	88 9d ac fd ff
	ff		 mov	 BYTE PTR _szKey$[ebp], bl
  0004a	e8 00 00 00 00	 call	 _memset
  0004f	83 c4 18	 add	 esp, 24			; 00000018H
  00052	6a 05		 push	 5
  00054	c7 45 d0 8c 98
	9f 8b		 mov	 DWORD PTR __k$553331[ebp], -1952474996 ; 8b9f988cH
  0005b	c7 45 d4 8e 87
	b4 98		 mov	 DWORD PTR __k$553331[ebp+4], -1732999282 ; 98b4878eH
  00062	c7 45 d8 88 8d
	8f 93		 mov	 DWORD PTR __k$553331[ebp+8], -1819308664 ; 938f8d88H
  00069	c7 45 dc b2 8d
	85 83		 mov	 DWORD PTR __k$553331[ebp+12], -2088399438 ; 83858db2H
  00070	c7 45 e0 80 8d
	9f 83		 mov	 DWORD PTR __k$553331[ebp+16], -2086695552 ; 839f8d80H
  00077	66 c7 45 e4 82
	82		 mov	 WORD PTR __k$553331[ebp+20], 33410 ; 00008282H
  0007d	8d 45 d0	 lea	 eax, DWORD PTR __k$553331[ebp]
  00080	88 5d e6	 mov	 BYTE PTR __k$553331[ebp+22], bl
  00083	59		 pop	 ecx
$LL507@LoadProper:

; 74   : 
; 75   : 	int i;
; 76   : 	char szBuf[MAX_PATH] = "";
; 77   : 	char szKey[MAX_PATH] = "";
; 78   : 
; 79   : 	rkLoader.LoadString_e( "attack_ready_animation", "", szBuf, MAX_PATH );

  00084	81 30 ed ec eb
	ea		 xor	 DWORD PTR [eax], -353637139 ; eaebecedH
  0008a	83 c0 04	 add	 eax, 4
  0008d	49		 dec	 ecx
  0008e	75 f4		 jne	 SHORT $LL507@LoadProper
  00090	6a 14		 push	 20			; 00000014H
  00092	5f		 pop	 edi
$LL504@LoadProper:
  00093	8b c7		 mov	 eax, edi
  00095	25 03 00 00 80	 and	 eax, -2147483645	; 80000003H
  0009a	79 05		 jns	 SHORT $LN1700@LoadProper
  0009c	48		 dec	 eax
  0009d	83 c8 fc	 or	 eax, -4			; fffffffcH
  000a0	40		 inc	 eax
$LN1700@LoadProper:
  000a1	b1 ed		 mov	 cl, -19			; ffffffedH
  000a3	2a c8		 sub	 cl, al
  000a5	30 4c 3d d0	 xor	 BYTE PTR __k$553331[ebp+edi], cl
  000a9	47		 inc	 edi
  000aa	83 ff 16	 cmp	 edi, 22			; 00000016H
  000ad	7c e4		 jl	 SHORT $LL504@LoadProper
  000af	8b 8d a4 fd ff
	ff		 mov	 ecx, DWORD PTR _rkLoader$GSCopy$[ebp]
  000b5	8b 3d 00 00 00
	00		 mov	 edi, DWORD PTR __imp_?LoadStringA@ioINILoader@@QAEXPBD0PADH@Z
  000bb	68 04 01 00 00	 push	 260			; 00000104H
  000c0	8d 85 b0 fe ff
	ff		 lea	 eax, DWORD PTR _szBuf$[ebp]
  000c6	50		 push	 eax
  000c7	68 00 00 00 00	 push	 OFFSET ??_C@_00CNPNBAHC@?$AA@
  000cc	8d 45 d0	 lea	 eax, DWORD PTR __k$553331[ebp]
  000cf	50		 push	 eax
  000d0	ff d7		 call	 edi

; 80   : 	m_AttackReadyAni = szBuf;

  000d2	8d 85 b0 fe ff
	ff		 lea	 eax, DWORD PTR _szBuf$[ebp]
  000d8	50		 push	 eax
  000d9	8d 8e 90 19 00
	00		 lea	 ecx, DWORD PTR [esi+6544]
  000df	ff 15 00 00 00
	00		 call	 DWORD PTR __imp_??4ioHashString@@QAEAAV0@PBD@Z
  000e5	6a 04		 push	 4

; 81   : 
; 82   : 	rkLoader.LoadString_e( "gathering_animation", "", szBuf, MAX_PATH );

  000e7	c7 45 d4 8a 8d
	9f 82		 mov	 DWORD PTR __k$553456[ebp], -2103472758 ; 829f8d8aH
  000ee	c7 45 d8 88 9e
	82 84		 mov	 DWORD PTR __k$553456[ebp+4], -2071814520 ; 84829e88H
  000f5	c7 45 dc 8a b3
	8a 84		 mov	 DWORD PTR __k$553456[ebp+8], -2071284854 ; 848ab38aH
  000fc	c7 45 e0 84 81
	8a 9e		 mov	 DWORD PTR __k$553456[ebp+12], -1635090044 ; 9e8a8184H
  00103	8d 45 d4	 lea	 eax, DWORD PTR __k$553456[ebp]
  00106	c7 45 e4 84 83
	85 00		 mov	 DWORD PTR __k$553456[ebp+16], 8749956 ; 00858384H
  0010d	59		 pop	 ecx
$LL613@LoadProper:
  0010e	81 30 ed ec eb
	ea		 xor	 DWORD PTR [eax], -353637139 ; eaebecedH
  00114	83 c0 04	 add	 eax, 4
  00117	49		 dec	 ecx
  00118	75 f4		 jne	 SHORT $LL613@LoadProper
  0011a	6a 10		 push	 16			; 00000010H
  0011c	58		 pop	 eax
$LL610@LoadProper:
  0011d	8b c8		 mov	 ecx, eax
  0011f	81 e1 03 00 00
	80		 and	 ecx, -2147483645	; 80000003H
  00125	79 05		 jns	 SHORT $LN1701@LoadProper
  00127	49		 dec	 ecx
  00128	83 c9 fc	 or	 ecx, -4			; fffffffcH
  0012b	41		 inc	 ecx
$LN1701@LoadProper:
  0012c	b2 ed		 mov	 dl, -19			; ffffffedH
  0012e	2a d1		 sub	 dl, cl
  00130	30 54 05 d4	 xor	 BYTE PTR __k$553456[ebp+eax], dl
  00134	40		 inc	 eax
  00135	83 f8 13	 cmp	 eax, 19			; 00000013H
  00138	7c e3		 jl	 SHORT $LL610@LoadProper
  0013a	8b 8d a4 fd ff
	ff		 mov	 ecx, DWORD PTR _rkLoader$GSCopy$[ebp]
  00140	68 04 01 00 00	 push	 260			; 00000104H
  00145	8d 85 b0 fe ff
	ff		 lea	 eax, DWORD PTR _szBuf$[ebp]
  0014b	50		 push	 eax
  0014c	68 00 00 00 00	 push	 OFFSET ??_C@_00CNPNBAHC@?$AA@
  00151	8d 45 d4	 lea	 eax, DWORD PTR __k$553456[ebp]
  00154	50		 push	 eax
  00155	ff d7		 call	 edi

; 83   : 	m_GatherAnimation = szBuf;

  00157	8d 85 b0 fe ff
	ff		 lea	 eax, DWORD PTR _szBuf$[ebp]
  0015d	50		 push	 eax
  0015e	8d 8e 60 19 00
	00		 lea	 ecx, DWORD PTR [esi+6496]
  00164	ff 15 00 00 00
	00		 call	 DWORD PTR __imp_??4ioHashString@@QAEAAV0@PBD@Z

; 84   : 
; 85   : 	m_fGatherAniRate = rkLoader.LoadFloat_e( "gathering_ani_rate", FLOAT1 );

  0016a	b8 01 00 00 00	 mov	 eax, 1
  0016f	6a 04		 push	 4
  00171	c7 45 d4 8a 8d
	9f 82		 mov	 DWORD PTR __k$553626[ebp], -2103472758 ; 829f8d8aH
  00178	c7 45 d8 88 9e
	82 84		 mov	 DWORD PTR __k$553626[ebp+4], -2071814520 ; 84829e88H
  0017f	c7 45 dc 8a b3
	8a 84		 mov	 DWORD PTR __k$553626[ebp+8], -2071284854 ; 848ab38aH
  00186	c7 45 e0 84 b3
	99 8b		 mov	 DWORD PTR __k$553626[ebp+12], -1952861308 ; 8b99b384H
  0018d	66 c7 45 e4 99
	89		 mov	 WORD PTR __k$553626[ebp+16], 35225 ; 00008999H
  00193	8d 4d d4	 lea	 ecx, DWORD PTR __k$553626[ebp]
  00196	88 5d e6	 mov	 BYTE PTR __k$553626[ebp+18], bl
  00199	5a		 pop	 edx
$LL721@LoadProper:
  0019a	81 31 ed ec eb
	ea		 xor	 DWORD PTR [ecx], -353637139 ; eaebecedH
  001a0	83 c1 04	 add	 ecx, 4
  001a3	4a		 dec	 edx
  001a4	75 f4		 jne	 SHORT $LL721@LoadProper
  001a6	c7 85 a8 fd ff
	ff 10 00 00 00	 mov	 DWORD PTR _i$553615[ebp], 16 ; 00000010H
$LL718@LoadProper:
  001b0	8b 8d a8 fd ff
	ff		 mov	 ecx, DWORD PTR _i$553615[ebp]
  001b6	81 e1 03 00 00
	80		 and	 ecx, -2147483645	; 80000003H
  001bc	79 05		 jns	 SHORT $LN1702@LoadProper
  001be	49		 dec	 ecx
  001bf	83 c9 fc	 or	 ecx, -4			; fffffffcH
  001c2	41		 inc	 ecx
$LN1702@LoadProper:
  001c3	b2 ed		 mov	 dl, -19			; ffffffedH
  001c5	2a d1		 sub	 dl, cl
  001c7	8b 8d a8 fd ff
	ff		 mov	 ecx, DWORD PTR _i$553615[ebp]
  001cd	30 54 0d d4	 xor	 BYTE PTR __k$553626[ebp+ecx], dl
  001d1	ff 85 a8 fd ff
	ff		 inc	 DWORD PTR _i$553615[ebp]
  001d7	83 bd a8 fd ff
	ff 12		 cmp	 DWORD PTR _i$553615[ebp], 18 ; 00000012H
  001de	7c d0		 jl	 SHORT $LL718@LoadProper
  001e0	89 85 a0 fd ff
	ff		 mov	 DWORD PTR tv13501[ebp], eax
  001e6	db 85 a0 fd ff
	ff		 fild	 DWORD PTR tv13501[ebp]
  001ec	85 c0		 test	 eax, eax
  001ee	79 06		 jns	 SHORT $LN1703@LoadProper
  001f0	d8 05 00 00 00
	00		 fadd	 DWORD PTR __real@4f800000
$LN1703@LoadProper:
  001f6	51		 push	 ecx
  001f7	8b 8d a4 fd ff
	ff		 mov	 ecx, DWORD PTR _rkLoader$GSCopy$[ebp]
  001fd	d9 1c 24	 fstp	 DWORD PTR [esp]
  00200	8d 45 d4	 lea	 eax, DWORD PTR __k$553626[ebp]
  00203	50		 push	 eax
  00204	ff 15 00 00 00
	00		 call	 DWORD PTR __imp_?LoadFloat@ioINILoader@@QAEMPBDM@Z
  0020a	d9 9e 70 19 00
	00		 fstp	 DWORD PTR [esi+6512]
  00210	6a 03		 push	 3

; 86   : 
; 87   : 	rkLoader.LoadString_e( "attack_move_ani", "", szBuf, MAX_PATH );

  00212	c7 45 d8 8c 98
	9f 8b		 mov	 DWORD PTR __k$553697[ebp], -1952474996 ; 8b9f988cH
  00219	c7 45 dc 8e 87
	b4 87		 mov	 DWORD PTR __k$553697[ebp+4], -2018211954 ; 87b4878eH
  00220	c7 45 e0 82 9a
	8e b5		 mov	 DWORD PTR __k$553697[ebp+8], -1248945534 ; b58e9a82H
  00227	8d 45 d8	 lea	 eax, DWORD PTR __k$553697[ebp]
  0022a	c7 45 e4 8c 82
	82 00		 mov	 DWORD PTR __k$553697[ebp+12], 8553100 ; 0082828cH
  00231	59		 pop	 ecx
$LL827@LoadProper:
  00232	81 30 ed ec eb
	ea		 xor	 DWORD PTR [eax], -353637139 ; eaebecedH
  00238	83 c0 04	 add	 eax, 4
  0023b	49		 dec	 ecx
  0023c	75 f4		 jne	 SHORT $LL827@LoadProper
  0023e	6a 0c		 push	 12			; 0000000cH
  00240	58		 pop	 eax
$LL824@LoadProper:
  00241	8b c8		 mov	 ecx, eax
  00243	81 e1 03 00 00
	80		 and	 ecx, -2147483645	; 80000003H
  00249	79 05		 jns	 SHORT $LN1704@LoadProper
  0024b	49		 dec	 ecx
  0024c	83 c9 fc	 or	 ecx, -4			; fffffffcH
  0024f	41		 inc	 ecx
$LN1704@LoadProper:
  00250	b2 ed		 mov	 dl, -19			; ffffffedH
  00252	2a d1		 sub	 dl, cl
  00254	30 54 05 d8	 xor	 BYTE PTR __k$553697[ebp+eax], dl
  00258	40		 inc	 eax
  00259	83 f8 0f	 cmp	 eax, 15			; 0000000fH
  0025c	7c e3		 jl	 SHORT $LL824@LoadProper
  0025e	8b 8d a4 fd ff
	ff		 mov	 ecx, DWORD PTR _rkLoader$GSCopy$[ebp]
  00264	68 04 01 00 00	 push	 260			; 00000104H
  00269	8d 85 b0 fe ff
	ff		 lea	 eax, DWORD PTR _szBuf$[ebp]
  0026f	50		 push	 eax
  00270	68 00 00 00 00	 push	 OFFSET ??_C@_00CNPNBAHC@?$AA@
  00275	8d 45 d8	 lea	 eax, DWORD PTR __k$553697[ebp]
  00278	50		 push	 eax
  00279	ff d7		 call	 edi

; 88   : 	m_ChargingMoveAnimation = szBuf;

  0027b	8d 85 b0 fe ff
	ff		 lea	 eax, DWORD PTR _szBuf$[ebp]
  00281	50		 push	 eax
  00282	8d 8e 7c 19 00
	00		 lea	 ecx, DWORD PTR [esi+6524]
  00288	ff 15 00 00 00
	00		 call	 DWORD PTR __imp_??4ioHashString@@QAEAAV0@PBD@Z
  0028e	6a 04		 push	 4

; 89   : 
; 90   : 	//
; 91   : 	m_iLimitSummonCnt = rkLoader.LoadInt_e( "summon_limit_cnt", 0 );

  00290	c7 45 d8 9e 99
	86 87		 mov	 DWORD PTR __k$553822[ebp], -2021221986 ; 8786999eH
  00297	c7 45 dc 82 82
	b4 86		 mov	 DWORD PTR __k$553822[ebp+4], -2034990462 ; 86b48282H
  0029e	c7 45 e0 84 81
	82 9e		 mov	 DWORD PTR __k$553822[ebp+8], -1635614332 ; 9e828184H
  002a5	c7 45 e4 b2 8f
	85 9e		 mov	 DWORD PTR __k$553822[ebp+12], -1635414094 ; 9e858fb2H
  002ac	8d 45 d8	 lea	 eax, DWORD PTR __k$553822[ebp]
  002af	88 5d e8	 mov	 BYTE PTR __k$553822[ebp+16], bl
  002b2	59		 pop	 ecx
$LL933@LoadProper:
  002b3	81 30 ed ec eb
	ea		 xor	 DWORD PTR [eax], -353637139 ; eaebecedH
  002b9	83 c0 04	 add	 eax, 4
  002bc	49		 dec	 ecx
  002bd	75 f4		 jne	 SHORT $LL933@LoadProper
  002bf	8b 8d a4 fd ff
	ff		 mov	 ecx, DWORD PTR _rkLoader$GSCopy$[ebp]
  002c5	53		 push	 ebx
  002c6	8d 45 d8	 lea	 eax, DWORD PTR __k$553822[ebp]
  002c9	50		 push	 eax
  002ca	ff 15 00 00 00
	00		 call	 DWORD PTR __imp_?LoadInt@ioINILoader@@QAEHPBDH@Z
  002d0	6a 03		 push	 3
  002d2	89 86 14 1a 00
	00		 mov	 DWORD PTR [esi+6676], eax

; 92   : 
; 93   : 	m_iMaxSummonCnt = rkLoader.LoadInt_e( "summon_max_cnt", 0 );

  002d8	c7 45 d8 9e 99
	86 87		 mov	 DWORD PTR __k$553947[ebp], -2021221986 ; 8786999eH
  002df	c7 45 dc 82 82
	b4 87		 mov	 DWORD PTR __k$553947[ebp+4], -2018213246 ; 87b48282H
  002e6	c7 45 e0 8c 94
	b4 89		 mov	 DWORD PTR __k$553947[ebp+8], -1984654196 ; 89b4948cH
  002ed	66 c7 45 e4 83
	98		 mov	 WORD PTR __k$553947[ebp+12], 39043 ; 00009883H
  002f3	8d 45 d8	 lea	 eax, DWORD PTR __k$553947[ebp]
  002f6	88 5d e6	 mov	 BYTE PTR __k$553947[ebp+14], bl
  002f9	59		 pop	 ecx
$LL1039@LoadProper:
  002fa	81 30 ed ec eb
	ea		 xor	 DWORD PTR [eax], -353637139 ; eaebecedH
  00300	83 c0 04	 add	 eax, 4
  00303	49		 dec	 ecx
  00304	75 f4		 jne	 SHORT $LL1039@LoadProper
  00306	6a 0c		 push	 12			; 0000000cH
  00308	58		 pop	 eax
$LL1036@LoadProper:
  00309	8b c8		 mov	 ecx, eax
  0030b	81 e1 03 00 00
	80		 and	 ecx, -2147483645	; 80000003H
  00311	79 05		 jns	 SHORT $LN1705@LoadProper
  00313	49		 dec	 ecx
  00314	83 c9 fc	 or	 ecx, -4			; fffffffcH
  00317	41		 inc	 ecx
$LN1705@LoadProper:
  00318	b2 ed		 mov	 dl, -19			; ffffffedH
  0031a	2a d1		 sub	 dl, cl
  0031c	30 54 05 d8	 xor	 BYTE PTR __k$553947[ebp+eax], dl
  00320	40		 inc	 eax
  00321	83 f8 0e	 cmp	 eax, 14			; 0000000eH
  00324	7c e3		 jl	 SHORT $LL1036@LoadProper
  00326	8b 8d a4 fd ff
	ff		 mov	 ecx, DWORD PTR _rkLoader$GSCopy$[ebp]
  0032c	53		 push	 ebx
  0032d	8d 45 d8	 lea	 eax, DWORD PTR __k$553947[ebp]
  00330	50		 push	 eax
  00331	ff 15 00 00 00
	00		 call	 DWORD PTR __imp_?LoadInt@ioINILoader@@QAEHPBDH@Z
  00337	89 85 a0 fd ff
	ff		 mov	 DWORD PTR _value$554060[ebp], eax
  0033d	8d 85 a0 fd ff
	ff		 lea	 eax, DWORD PTR _value$554060[ebp]
  00343	8d 8e b0 19 00
	00		 lea	 ecx, DWORD PTR [esi+6576]
  00349	50		 push	 eax
  0034a	e8 00 00 00 00	 call	 ?EncryptValueToPool@?$CEncrypt@H@@AAEXPBD@Z ; CEncrypt<int>::EncryptValueToPool

; 94   : 	m_vSummonAttackInfoList.clear();

  0034f	8d 8e a0 19 00
	00		 lea	 ecx, DWORD PTR [esi+6560]
  00355	8b 41 04	 mov	 eax, DWORD PTR [ecx+4]
  00358	8b 11		 mov	 edx, DWORD PTR [ecx]
  0035a	50		 push	 eax
  0035b	52		 push	 edx
  0035c	8d 85 a0 fd ff
	ff		 lea	 eax, DWORD PTR $T554123[ebp]
  00362	50		 push	 eax
  00363	e8 00 00 00 00	 call	 ?erase@?$vector@UtagSummonAttackInfo@@V?$allocator@UtagSummonAttackInfo@@@std@@@std@@QAE?AV?$_Vector_iterator@V?$_Vector_val@UtagSummonAttackInfo@@V?$allocator@UtagSummonAttackInfo@@@std@@@std@@@2@V?$_Vector_const_iterator@V?$_Vector_val@UtagSummonAttackInfo@@V?$allocator@UtagSummonAttackInfo@@@std@@@std@@@2@0@Z ; std::vector<tagSummonAttackInfo,std::allocator<tagSummonAttackInfo> >::erase

; 95   : 	m_vSummonAttackInfoList.reserve( m_iMaxSummonCnt );

  00368	8d 85 a0 fd ff
	ff		 lea	 eax, DWORD PTR _value$554145[ebp]
  0036e	50		 push	 eax
  0036f	8d 8e b0 19 00
	00		 lea	 ecx, DWORD PTR [esi+6576]
  00375	e8 00 00 00 00	 call	 ?DecryptValueToPool@?$CEncrypt@H@@QAEXPAH@Z ; CEncrypt<int>::DecryptValueToPool
  0037a	ff b5 a0 fd ff
	ff		 push	 DWORD PTR _value$554145[ebp]
  00380	8d 8e a0 19 00
	00		 lea	 ecx, DWORD PTR [esi+6560]
  00386	e8 00 00 00 00	 call	 ?reserve@?$vector@UtagSummonAttackInfo@@V?$allocator@UtagSummonAttackInfo@@@std@@@std@@QAEXI@Z ; std::vector<tagSummonAttackInfo,std::allocator<tagSummonAttackInfo> >::reserve

; 96   : 
; 97   : 	for( i=0 ; i<m_iMaxSummonCnt ; i++ )

  0038b	8d 85 a0 fd ff
	ff		 lea	 eax, DWORD PTR _value$554149[ebp]
  00391	50		 push	 eax
  00392	8d 8e b0 19 00
	00		 lea	 ecx, DWORD PTR [esi+6576]
  00398	e8 00 00 00 00	 call	 ?DecryptValueToPool@?$CEncrypt@H@@QAEXPAH@Z ; CEncrypt<int>::DecryptValueToPool
  0039d	39 9d a0 fd ff
	ff		 cmp	 DWORD PTR _value$554149[ebp], ebx
  003a3	0f 8e 94 02 00
	00		 jle	 $LN397@LoadProper

; 92   : 
; 93   : 	m_iMaxSummonCnt = rkLoader.LoadInt_e( "summon_max_cnt", 0 );

  003a9	c7 85 a8 fd ff
	ff 01 00 00 00	 mov	 DWORD PTR tv13481[ebp], 1
$LL399@LoadProper:

; 98   : 	{
; 99   : 		SummonAttackInfo kInfo;

  003b3	8d 8d 28 fd ff
	ff		 lea	 ecx, DWORD PTR _kInfo$541760[ebp]
  003b9	e8 00 00 00 00	 call	 ??0tagSummonAttackInfo@@QAE@XZ ; tagSummonAttackInfo::tagSummonAttackInfo
  003be	6a 03		 push	 3
  003c0	89 5d fc	 mov	 DWORD PTR __$EHRec$[ebp+8], ebx

; 100  : 
; 101  : 		wsprintf_e( szKey, "summon_time0%d", i+1 );

  003c3	c7 45 d8 9e 99
	86 87		 mov	 DWORD PTR ___encStr$541764[ebp], -2021221986 ; 8786999eH
  003ca	c7 45 dc 82 82
	b4 9e		 mov	 DWORD PTR ___encStr$541764[ebp+4], -1632337278 ; 9eb48282H
  003d1	c7 45 e0 84 81
	8e da		 mov	 DWORD PTR ___encStr$541764[ebp+8], -628194940 ; da8e8184H
  003d8	66 c7 45 e4 c8
	88		 mov	 WORD PTR ___encStr$541764[ebp+12], 35016 ; 000088c8H
  003de	8d 45 d8	 lea	 eax, DWORD PTR ___encStr$541764[ebp]
  003e1	88 5d e6	 mov	 BYTE PTR ___encStr$541764[ebp+14], bl
  003e4	59		 pop	 ecx
$LL1071@LoadProper:
  003e5	81 30 ed ec eb
	ea		 xor	 DWORD PTR [eax], -353637139 ; eaebecedH
  003eb	83 c0 04	 add	 eax, 4
  003ee	49		 dec	 ecx
  003ef	75 f4		 jne	 SHORT $LL1071@LoadProper
  003f1	6a 0c		 push	 12			; 0000000cH
  003f3	58		 pop	 eax
$LL1068@LoadProper:
  003f4	8b c8		 mov	 ecx, eax
  003f6	81 e1 03 00 00
	80		 and	 ecx, -2147483645	; 80000003H
  003fc	79 05		 jns	 SHORT $LN1706@LoadProper
  003fe	49		 dec	 ecx
  003ff	83 c9 fc	 or	 ecx, -4			; fffffffcH
  00402	41		 inc	 ecx
$LN1706@LoadProper:
  00403	b2 ed		 mov	 dl, -19			; ffffffedH
  00405	2a d1		 sub	 dl, cl
  00407	30 54 05 d8	 xor	 BYTE PTR ___encStr$541764[ebp+eax], dl
  0040b	40		 inc	 eax
  0040c	83 f8 0e	 cmp	 eax, 14			; 0000000eH
  0040f	7c e3		 jl	 SHORT $LL1068@LoadProper
  00411	ff b5 a8 fd ff
	ff		 push	 DWORD PTR tv13481[ebp]
  00417	8d 45 d8	 lea	 eax, DWORD PTR ___encStr$541764[ebp]
  0041a	50		 push	 eax
  0041b	8d 85 ac fd ff
	ff		 lea	 eax, DWORD PTR _szKey$[ebp]
  00421	50		 push	 eax
  00422	ff 15 00 00 00
	00		 call	 DWORD PTR __imp__wsprintfA

; 102  : 		kInfo.m_dwCreateTime = (DWORD)rkLoader.LoadInt( szKey, 0 );

  00428	8b 8d a4 fd ff
	ff		 mov	 ecx, DWORD PTR _rkLoader$GSCopy$[ebp]
  0042e	83 c4 0c	 add	 esp, 12			; 0000000cH
  00431	53		 push	 ebx
  00432	8d 85 ac fd ff
	ff		 lea	 eax, DWORD PTR _szKey$[ebp]
  00438	50		 push	 eax
  00439	ff 15 00 00 00
	00		 call	 DWORD PTR __imp_?LoadInt@ioINILoader@@QAEHPBDH@Z
  0043f	6a 04		 push	 4
  00441	89 85 28 fd ff
	ff		 mov	 DWORD PTR _kInfo$541760[ebp], eax

; 103  : 
; 104  : 		wsprintf_e( szKey, "summon_effect0%d", i+1 );

  00447	c7 45 d8 9e 99
	86 87		 mov	 DWORD PTR ___encStr$541918[ebp], -2021221986 ; 8786999eH
  0044e	c7 45 dc 82 82
	b4 8f		 mov	 DWORD PTR ___encStr$541918[ebp+4], -1883995518 ; 8fb48282H
  00455	c7 45 e0 8b 8a
	8e 89		 mov	 DWORD PTR ___encStr$541918[ebp+8], -1987147125 ; 898e8a8bH
  0045c	c7 45 e4 99 dc
	ce 8e		 mov	 DWORD PTR ___encStr$541918[ebp+12], -1899045735 ; 8ecedc99H
  00463	8d 45 d8	 lea	 eax, DWORD PTR ___encStr$541918[ebp]
  00466	88 5d e8	 mov	 BYTE PTR ___encStr$541918[ebp+16], bl
  00469	59		 pop	 ecx
$LL1079@LoadProper:
  0046a	81 30 ed ec eb
	ea		 xor	 DWORD PTR [eax], -353637139 ; eaebecedH
  00470	83 c0 04	 add	 eax, 4
  00473	49		 dec	 ecx
  00474	75 f4		 jne	 SHORT $LL1079@LoadProper
  00476	ff b5 a8 fd ff
	ff		 push	 DWORD PTR tv13481[ebp]
  0047c	8d 45 d8	 lea	 eax, DWORD PTR ___encStr$541918[ebp]
  0047f	50		 push	 eax
  00480	8d 85 ac fd ff
	ff		 lea	 eax, DWORD PTR _szKey$[ebp]
  00486	50		 push	 eax
  00487	ff 15 00 00 00
	00		 call	 DWORD PTR __imp__wsprintfA

; 105  : 		rkLoader.LoadString( szKey, "", szBuf, MAX_PATH );

  0048d	8b 8d a4 fd ff
	ff		 mov	 ecx, DWORD PTR _rkLoader$GSCopy$[ebp]
  00493	83 c4 0c	 add	 esp, 12			; 0000000cH
  00496	68 04 01 00 00	 push	 260			; 00000104H
  0049b	8d 85 b0 fe ff
	ff		 lea	 eax, DWORD PTR _szBuf$[ebp]
  004a1	50		 push	 eax
  004a2	68 00 00 00 00	 push	 OFFSET ??_C@_00CNPNBAHC@?$AA@
  004a7	8d 85 ac fd ff
	ff		 lea	 eax, DWORD PTR _szKey$[ebp]
  004ad	50		 push	 eax
  004ae	ff d7		 call	 edi

; 106  : 		kInfo.m_SummonEffect = szBuf;

  004b0	8d 85 b0 fe ff
	ff		 lea	 eax, DWORD PTR _szBuf$[ebp]
  004b6	50		 push	 eax
  004b7	8d 8d 2c fd ff
	ff		 lea	 ecx, DWORD PTR _kInfo$541760[ebp+4]
  004bd	ff 15 00 00 00
	00		 call	 DWORD PTR __imp_??4ioHashString@@QAEAAV0@PBD@Z
  004c3	6a 03		 push	 3

; 107  : 
; 108  : 		wsprintf_e( szKey, "summon_sound0%d", i+1 );

  004c5	c7 45 d8 9e 99
	86 87		 mov	 DWORD PTR ___encStr$542070[ebp], -2021221986 ; 8786999eH
  004cc	c7 45 dc 82 82
	b4 99		 mov	 DWORD PTR ___encStr$542070[ebp+4], -1716223358 ; 99b48282H
  004d3	c7 45 e0 82 99
	85 8e		 mov	 DWORD PTR ___encStr$542070[ebp+8], -1903847038 ; 8e859982H
  004da	8d 45 d8	 lea	 eax, DWORD PTR ___encStr$542070[ebp]
  004dd	c7 45 e4 dd c9
	8f 00		 mov	 DWORD PTR ___encStr$542070[ebp+12], 9423325 ; 008fc9ddH
  004e4	59		 pop	 ecx
$LL1087@LoadProper:
  004e5	81 30 ed ec eb
	ea		 xor	 DWORD PTR [eax], -353637139 ; eaebecedH
  004eb	83 c0 04	 add	 eax, 4
  004ee	49		 dec	 ecx
  004ef	75 f4		 jne	 SHORT $LL1087@LoadProper
  004f1	6a 0c		 push	 12			; 0000000cH
  004f3	58		 pop	 eax
$LL1084@LoadProper:
  004f4	8b c8		 mov	 ecx, eax
  004f6	81 e1 03 00 00
	80		 and	 ecx, -2147483645	; 80000003H
  004fc	79 05		 jns	 SHORT $LN1707@LoadProper
  004fe	49		 dec	 ecx
  004ff	83 c9 fc	 or	 ecx, -4			; fffffffcH
  00502	41		 inc	 ecx
$LN1707@LoadProper:
  00503	b2 ed		 mov	 dl, -19			; ffffffedH
  00505	2a d1		 sub	 dl, cl
  00507	30 54 05 d8	 xor	 BYTE PTR ___encStr$542070[ebp+eax], dl
  0050b	40		 inc	 eax
  0050c	83 f8 0f	 cmp	 eax, 15			; 0000000fH
  0050f	7c e3		 jl	 SHORT $LL1084@LoadProper
  00511	ff b5 a8 fd ff
	ff		 push	 DWORD PTR tv13481[ebp]
  00517	8d 45 d8	 lea	 eax, DWORD PTR ___encStr$542070[ebp]
  0051a	50		 push	 eax
  0051b	8d 85 ac fd ff
	ff		 lea	 eax, DWORD PTR _szKey$[ebp]
  00521	50		 push	 eax
  00522	ff 15 00 00 00
	00		 call	 DWORD PTR __imp__wsprintfA

; 109  : 		rkLoader.LoadString( szKey, "", szBuf, MAX_PATH );

  00528	8b 8d a4 fd ff
	ff		 mov	 ecx, DWORD PTR _rkLoader$GSCopy$[ebp]
  0052e	83 c4 0c	 add	 esp, 12			; 0000000cH
  00531	68 04 01 00 00	 push	 260			; 00000104H
  00536	8d 85 b0 fe ff
	ff		 lea	 eax, DWORD PTR _szBuf$[ebp]
  0053c	50		 push	 eax
  0053d	68 00 00 00 00	 push	 OFFSET ??_C@_00CNPNBAHC@?$AA@
  00542	8d 85 ac fd ff
	ff		 lea	 eax, DWORD PTR _szKey$[ebp]
  00548	50		 push	 eax
  00549	ff d7		 call	 edi

; 110  : 		kInfo.m_SummonSound = szBuf;

  0054b	8d 85 b0 fe ff
	ff		 lea	 eax, DWORD PTR _szBuf$[ebp]
  00551	50		 push	 eax
  00552	8d 8d 3c fd ff
	ff		 lea	 ecx, DWORD PTR _kInfo$541760[ebp+20]
  00558	ff 15 00 00 00
	00		 call	 DWORD PTR __imp_??4ioHashString@@QAEAAV0@PBD@Z

; 111  : 
; 112  : 		AttackAttribute kAttribute;

  0055e	8d 8d d8 fc ff
	ff		 lea	 ecx, DWORD PTR _kAttribute$542219[ebp]
  00564	e8 00 00 00 00	 call	 ??0AttackAttribute@@QAE@XZ ; AttackAttribute::AttackAttribute
  00569	6a 04		 push	 4
  0056b	c6 45 fc 01	 mov	 BYTE PTR __$EHRec$[ebp+8], 1

; 113  : 		wsprintf_e( szKey, "summon_attack0%d", i+1 );

  0056f	c7 45 d8 9e 99
	86 87		 mov	 DWORD PTR ___encStr$542223[ebp], -2021221986 ; 8786999eH
  00576	c7 45 dc 82 82
	b4 8b		 mov	 DWORD PTR ___encStr$542223[ebp+4], -1951104382 ; 8bb48282H
  0057d	c7 45 e0 99 98
	8a 89		 mov	 DWORD PTR ___encStr$542223[ebp+8], -1987405671 ; 898a9899H
  00584	c7 45 e4 86 dc
	ce 8e		 mov	 DWORD PTR ___encStr$542223[ebp+12], -1899045754 ; 8ecedc86H
  0058b	8d 45 d8	 lea	 eax, DWORD PTR ___encStr$542223[ebp]
  0058e	88 5d e8	 mov	 BYTE PTR ___encStr$542223[ebp+16], bl
  00591	59		 pop	 ecx
$LL1095@LoadProper:
  00592	81 30 ed ec eb
	ea		 xor	 DWORD PTR [eax], -353637139 ; eaebecedH
  00598	83 c0 04	 add	 eax, 4
  0059b	49		 dec	 ecx
  0059c	75 f4		 jne	 SHORT $LL1095@LoadProper
  0059e	ff b5 a8 fd ff
	ff		 push	 DWORD PTR tv13481[ebp]
  005a4	8d 45 d8	 lea	 eax, DWORD PTR ___encStr$542223[ebp]
  005a7	50		 push	 eax
  005a8	8d 85 ac fd ff
	ff		 lea	 eax, DWORD PTR _szKey$[ebp]
  005ae	50		 push	 eax
  005af	ff 15 00 00 00
	00		 call	 DWORD PTR __imp__wsprintfA

; 114  : 		LoadAttackAttribute( szKey, kAttribute, rkLoader );

  005b5	ff b5 a4 fd ff
	ff		 push	 DWORD PTR _rkLoader$GSCopy$[ebp]
  005bb	8d 85 d8 fc ff
	ff		 lea	 eax, DWORD PTR _kAttribute$542219[ebp]
  005c1	50		 push	 eax
  005c2	8d 85 ac fd ff
	ff		 lea	 eax, DWORD PTR _szKey$[ebp]
  005c8	50		 push	 eax
  005c9	e8 00 00 00 00	 call	 ?LoadAttackAttribute@@YAXPBDAAUAttackAttribute@@AAVioINILoader@@@Z ; LoadAttackAttribute
  005ce	83 c4 18	 add	 esp, 24			; 00000018H

; 115  : 
; 116  : 		kInfo.m_SummonAttribute = kAttribute;

  005d1	8d 85 d8 fc ff
	ff		 lea	 eax, DWORD PTR _kAttribute$542219[ebp]
  005d7	50		 push	 eax
  005d8	8d 8d 4c fd ff
	ff		 lea	 ecx, DWORD PTR _kInfo$541760[ebp+36]
  005de	e8 00 00 00 00	 call	 ??4AttackAttribute@@QAEAAU0@ABU0@@Z

; 117  : 
; 118  : 		m_vSummonAttackInfoList.push_back( kInfo );

  005e3	8d 85 28 fd ff
	ff		 lea	 eax, DWORD PTR _kInfo$541760[ebp]
  005e9	50		 push	 eax
  005ea	8d 8e a0 19 00
	00		 lea	 ecx, DWORD PTR [esi+6560]
  005f0	e8 00 00 00 00	 call	 ?push_back@?$vector@UtagSummonAttackInfo@@V?$allocator@UtagSummonAttackInfo@@@std@@@std@@QAEXABUtagSummonAttackInfo@@@Z ; std::vector<tagSummonAttackInfo,std::allocator<tagSummonAttackInfo> >::push_back

; 119  : 	}

  005f5	8d 8d d8 fc ff
	ff		 lea	 ecx, DWORD PTR _kAttribute$542219[ebp]
  005fb	88 5d fc	 mov	 BYTE PTR __$EHRec$[ebp+8], bl
  005fe	e8 00 00 00 00	 call	 ??1AttackAttribute@@QAE@XZ
  00603	83 4d fc ff	 or	 DWORD PTR __$EHRec$[ebp+8], -1
  00607	8d 8d 28 fd ff
	ff		 lea	 ecx, DWORD PTR _kInfo$541760[ebp]
  0060d	e8 00 00 00 00	 call	 ??1tagSummonAttackInfo@@QAE@XZ
  00612	ff 85 a8 fd ff
	ff		 inc	 DWORD PTR tv13481[ebp]
  00618	8d 85 a0 fd ff
	ff		 lea	 eax, DWORD PTR _value$554149[ebp]
  0061e	50		 push	 eax
  0061f	8d 8e b0 19 00
	00		 lea	 ecx, DWORD PTR [esi+6576]
  00625	e8 00 00 00 00	 call	 ?DecryptValueToPool@?$CEncrypt@H@@QAEXPAH@Z ; CEncrypt<int>::DecryptValueToPool
  0062a	8b 85 a8 fd ff
	ff		 mov	 eax, DWORD PTR tv13481[ebp]
  00630	48		 dec	 eax
  00631	3b 85 a0 fd ff
	ff		 cmp	 eax, DWORD PTR _value$554149[ebp]
  00637	0f 8c 76 fd ff
	ff		 jl	 $LL399@LoadProper
$LN397@LoadProper:

; 120  : 
; 121  : 	//
; 122  : 	rkLoader.LoadString_e( "retreat_animation_front", "", szBuf, MAX_PATH );

  0063d	6a 05		 push	 5
  0063f	c7 45 d0 9f 89
	9f 98		 mov	 DWORD PTR __k$554226[ebp], -1734375009 ; 989f899fH
  00646	c7 45 d4 88 8d
	9f b5		 mov	 DWORD PTR __k$554226[ebp+4], -1247834744 ; b59f8d88H
  0064d	c7 45 d8 8c 82
	82 87		 mov	 DWORD PTR __k$554226[ebp+8], -2021490036 ; 8782828cH
  00654	c7 45 dc 8c 98
	82 85		 mov	 DWORD PTR __k$554226[ebp+12], -2055038836 ; 8582988cH
  0065b	c7 45 e0 83 b3
	8d 98		 mov	 DWORD PTR __k$554226[ebp+16], -1735543933 ; 988db383H
  00662	8d 45 d0	 lea	 eax, DWORD PTR __k$554226[ebp]
  00665	c7 45 e4 82 82
	9f 00		 mov	 DWORD PTR __k$554226[ebp+20], 10453634 ; 009f8282H
  0066c	59		 pop	 ecx
$LL1201@LoadProper:
  0066d	81 30 ed ec eb
	ea		 xor	 DWORD PTR [eax], -353637139 ; eaebecedH
  00673	83 c0 04	 add	 eax, 4
  00676	49		 dec	 ecx
  00677	75 f4		 jne	 SHORT $LL1201@LoadProper
  00679	6a 14		 push	 20			; 00000014H
  0067b	58		 pop	 eax
$LL1198@LoadProper:
  0067c	8b c8		 mov	 ecx, eax
  0067e	81 e1 03 00 00
	80		 and	 ecx, -2147483645	; 80000003H
  00684	79 05		 jns	 SHORT $LN1708@LoadProper
  00686	49		 dec	 ecx
  00687	83 c9 fc	 or	 ecx, -4			; fffffffcH
  0068a	41		 inc	 ecx
$LN1708@LoadProper:
  0068b	b2 ed		 mov	 dl, -19			; ffffffedH
  0068d	2a d1		 sub	 dl, cl
  0068f	30 54 05 d0	 xor	 BYTE PTR __k$554226[ebp+eax], dl
  00693	40		 inc	 eax
  00694	83 f8 17	 cmp	 eax, 23			; 00000017H
  00697	7c e3		 jl	 SHORT $LL1198@LoadProper
  00699	8b 8d a4 fd ff
	ff		 mov	 ecx, DWORD PTR _rkLoader$GSCopy$[ebp]
  0069f	68 04 01 00 00	 push	 260			; 00000104H
  006a4	8d 85 b0 fe ff
	ff		 lea	 eax, DWORD PTR _szBuf$[ebp]
  006aa	50		 push	 eax
  006ab	68 00 00 00 00	 push	 OFFSET ??_C@_00CNPNBAHC@?$AA@
  006b0	8d 45 d0	 lea	 eax, DWORD PTR __k$554226[ebp]
  006b3	50		 push	 eax
  006b4	ff d7		 call	 edi

; 123  : 	m_szRetreatFr = szBuf;

  006b6	8d 85 b0 fe ff
	ff		 lea	 eax, DWORD PTR _szBuf$[ebp]
  006bc	50		 push	 eax
  006bd	8d 8e 18 1a 00
	00		 lea	 ecx, DWORD PTR [esi+6680]
  006c3	ff 15 00 00 00
	00		 call	 DWORD PTR __imp_??4ioHashString@@QAEAAV0@PBD@Z

; 124  : 	m_fRetreatFrRate = rkLoader.LoadFloat_e( "retreat_animation_front_rate", FLOAT1 );

  006c9	b8 01 00 00 00	 mov	 eax, 1
  006ce	6a 07		 push	 7
  006d0	c7 45 cc 9f 89
	9f 98		 mov	 DWORD PTR __k$554355[ebp], -1734375009 ; 989f899fH
  006d7	c7 45 d0 88 8d
	9f b5		 mov	 DWORD PTR __k$554355[ebp+4], -1247834744 ; b59f8d88H
  006de	c7 45 d4 8c 82
	82 87		 mov	 DWORD PTR __k$554355[ebp+8], -2021490036 ; 8782828cH
  006e5	c7 45 d8 8c 98
	82 85		 mov	 DWORD PTR __k$554355[ebp+12], -2055038836 ; 8582988cH
  006ec	c7 45 dc 83 b3
	8d 98		 mov	 DWORD PTR __k$554355[ebp+16], -1735543933 ; 988db383H
  006f3	c7 45 e0 82 82
	9f b5		 mov	 DWORD PTR __k$554355[ebp+20], -1247837566 ; b59f8282H
  006fa	c7 45 e4 9f 8d
	9f 8f		 mov	 DWORD PTR __k$554355[ebp+24], -1885368929 ; 8f9f8d9fH
  00701	8d 4d cc	 lea	 ecx, DWORD PTR __k$554355[ebp]
  00704	88 5d e8	 mov	 BYTE PTR __k$554355[ebp+28], bl
  00707	5a		 pop	 edx
  00708	bf ed ec eb ea	 mov	 edi, -353637139		; eaebecedH
$LL1309@LoadProper:
  0070d	31 39		 xor	 DWORD PTR [ecx], edi
  0070f	83 c1 04	 add	 ecx, 4
  00712	4a		 dec	 edx
  00713	75 f8		 jne	 SHORT $LL1309@LoadProper
  00715	89 85 a0 fd ff
	ff		 mov	 DWORD PTR tv13447[ebp], eax
  0071b	db 85 a0 fd ff
	ff		 fild	 DWORD PTR tv13447[ebp]
  00721	85 c0		 test	 eax, eax
  00723	79 06		 jns	 SHORT $LN1709@LoadProper
  00725	d8 05 00 00 00
	00		 fadd	 DWORD PTR __real@4f800000
$LN1709@LoadProper:
  0072b	51		 push	 ecx
  0072c	8b 8d a4 fd ff
	ff		 mov	 ecx, DWORD PTR _rkLoader$GSCopy$[ebp]
  00732	d9 1c 24	 fstp	 DWORD PTR [esp]
  00735	8d 45 cc	 lea	 eax, DWORD PTR __k$554355[ebp]
  00738	50		 push	 eax
  00739	ff 15 00 00 00
	00		 call	 DWORD PTR __imp_?LoadFloat@ioINILoader@@QAEMPBDM@Z
  0073f	d9 9e 28 1a 00
	00		 fstp	 DWORD PTR [esi+6696]
  00745	6a 04		 push	 4

; 125  : 
; 126  : 	m_fRetreatForceAmt = rkLoader.LoadFloat_e( "retreat_force_amt", 0.0f );

  00747	c7 45 d4 9f 89
	9f 98		 mov	 DWORD PTR __k$554480[ebp], -1734375009 ; 989f899fH
  0074e	c7 45 d8 88 8d
	9f b5		 mov	 DWORD PTR __k$554480[ebp+4], -1247834744 ; b59f8d88H
  00755	c7 45 dc 8b 83
	99 89		 mov	 DWORD PTR __k$554480[ebp+8], -1986428021 ; 8999838bH
  0075c	c7 45 e0 88 b3
	8a 87		 mov	 DWORD PTR __k$554480[ebp+12], -2020953208 ; 878ab388H
  00763	8d 45 d4	 lea	 eax, DWORD PTR __k$554480[ebp]
  00766	66 c7 45 e4 99
	00		 mov	 WORD PTR __k$554480[ebp+16], 153 ; 00000099H
  0076c	59		 pop	 ecx
$LL1415@LoadProper:
  0076d	31 38		 xor	 DWORD PTR [eax], edi
  0076f	83 c0 04	 add	 eax, 4
  00772	49		 dec	 ecx
  00773	75 f8		 jne	 SHORT $LL1415@LoadProper
  00775	0f 57 c0	 xorps	 xmm0, xmm0
  00778	80 75 e4 ed	 xor	 BYTE PTR __k$554480[ebp+16], -19 ; ffffffedH
  0077c	51		 push	 ecx
  0077d	8b 8d a4 fd ff
	ff		 mov	 ecx, DWORD PTR _rkLoader$GSCopy$[ebp]
  00783	8d 45 d4	 lea	 eax, DWORD PTR __k$554480[ebp]
  00786	f3 0f 11 04 24	 movss	 DWORD PTR [esp], xmm0
  0078b	50		 push	 eax
  0078c	ff 15 00 00 00
	00		 call	 DWORD PTR __imp_?LoadFloat@ioINILoader@@QAEMPBDM@Z
  00792	d9 9e 3c 1a 00
	00		 fstp	 DWORD PTR [esi+6716]

; 127  : 	m_fRetreatForceFric = rkLoader.LoadFloat_e( "retreat_force_friction", FLOAT1 );

  00798	b8 01 00 00 00	 mov	 eax, 1
  0079d	6a 05		 push	 5
  0079f	c7 45 d0 9f 89
	9f 98		 mov	 DWORD PTR __k$554669[ebp], -1734375009 ; 989f899fH
  007a6	c7 45 d4 88 8d
	9f b5		 mov	 DWORD PTR __k$554669[ebp+4], -1247834744 ; b59f8d88H
  007ad	c7 45 d8 8b 83
	99 89		 mov	 DWORD PTR __k$554669[ebp+8], -1986428021 ; 8999838bH
  007b4	c7 45 dc 88 b3
	8d 98		 mov	 DWORD PTR __k$554669[ebp+12], -1735543928 ; 988db388H
  007bb	c7 45 e0 84 8f
	9f 83		 mov	 DWORD PTR __k$554669[ebp+16], -2086695036 ; 839f8f84H
  007c2	66 c7 45 e4 82
	82		 mov	 WORD PTR __k$554669[ebp+20], 33410 ; 00008282H
  007c8	8d 4d d0	 lea	 ecx, DWORD PTR __k$554669[ebp]
  007cb	88 5d e6	 mov	 BYTE PTR __k$554669[ebp+22], bl
  007ce	5a		 pop	 edx
$LL1523@LoadProper:
  007cf	31 39		 xor	 DWORD PTR [ecx], edi
  007d1	83 c1 04	 add	 ecx, 4
  007d4	4a		 dec	 edx
  007d5	75 f8		 jne	 SHORT $LL1523@LoadProper
  007d7	c7 85 a8 fd ff
	ff 14 00 00 00	 mov	 DWORD PTR _i$554658[ebp], 20 ; 00000014H
$LL1520@LoadProper:
  007e1	8b 8d a8 fd ff
	ff		 mov	 ecx, DWORD PTR _i$554658[ebp]
  007e7	81 e1 03 00 00
	80		 and	 ecx, -2147483645	; 80000003H
  007ed	79 05		 jns	 SHORT $LN1710@LoadProper
  007ef	49		 dec	 ecx
  007f0	83 c9 fc	 or	 ecx, -4			; fffffffcH
  007f3	41		 inc	 ecx
$LN1710@LoadProper:
  007f4	b2 ed		 mov	 dl, -19			; ffffffedH
  007f6	2a d1		 sub	 dl, cl
  007f8	8b 8d a8 fd ff
	ff		 mov	 ecx, DWORD PTR _i$554658[ebp]
  007fe	30 54 0d d0	 xor	 BYTE PTR __k$554669[ebp+ecx], dl
  00802	ff 85 a8 fd ff
	ff		 inc	 DWORD PTR _i$554658[ebp]
  00808	83 bd a8 fd ff
	ff 16		 cmp	 DWORD PTR _i$554658[ebp], 22 ; 00000016H
  0080f	7c d0		 jl	 SHORT $LL1520@LoadProper
  00811	89 85 a0 fd ff
	ff		 mov	 DWORD PTR tv13432[ebp], eax
  00817	db 85 a0 fd ff
	ff		 fild	 DWORD PTR tv13432[ebp]
  0081d	85 c0		 test	 eax, eax
  0081f	79 06		 jns	 SHORT $LN1711@LoadProper
  00821	d8 05 00 00 00
	00		 fadd	 DWORD PTR __real@4f800000
$LN1711@LoadProper:
  00827	51		 push	 ecx
  00828	8b 8d a4 fd ff
	ff		 mov	 ecx, DWORD PTR _rkLoader$GSCopy$[ebp]
  0082e	d9 1c 24	 fstp	 DWORD PTR [esp]
  00831	8d 45 d0	 lea	 eax, DWORD PTR __k$554669[ebp]
  00834	50		 push	 eax
  00835	ff 15 00 00 00
	00		 call	 DWORD PTR __imp_?LoadFloat@ioINILoader@@QAEMPBDM@Z
  0083b	d9 9e 40 1a 00
	00		 fstp	 DWORD PTR [esi+6720]

; 128  : 
; 129  : 	m_fSkillGaugeRate = rkLoader.LoadFloat_e( "skill_gauge_rate", FLOAT1 );

  00841	b8 01 00 00 00	 mov	 eax, 1
  00846	6a 04		 push	 4
  00848	c7 45 b4 9e 87
	82 86		 mov	 DWORD PTR __k$554725[ebp], -2038265954 ; 8682879eH
  0084f	c7 45 b8 81 b3
	8c 8b		 mov	 DWORD PTR __k$554725[ebp+4], -1953713279 ; 8b8cb381H
  00856	c7 45 bc 98 8b
	8e b5		 mov	 DWORD PTR __k$554725[ebp+8], -1248949352 ; b58e8b98H
  0085d	c7 45 c0 9f 8d
	9f 8f		 mov	 DWORD PTR __k$554725[ebp+12], -1885368929 ; 8f9f8d9fH
  00864	8d 4d b4	 lea	 ecx, DWORD PTR __k$554725[ebp]
  00867	88 5d c4	 mov	 BYTE PTR __k$554725[ebp+16], bl
  0086a	5a		 pop	 edx
$LL1631@LoadProper:
  0086b	31 39		 xor	 DWORD PTR [ecx], edi
  0086d	83 c1 04	 add	 ecx, 4
  00870	4a		 dec	 edx
  00871	75 f8		 jne	 SHORT $LL1631@LoadProper
  00873	89 85 a0 fd ff
	ff		 mov	 DWORD PTR tv13424[ebp], eax
  00879	db 85 a0 fd ff
	ff		 fild	 DWORD PTR tv13424[ebp]
  0087f	85 c0		 test	 eax, eax
  00881	79 06		 jns	 SHORT $LN1712@LoadProper
  00883	d8 05 00 00 00
	00		 fadd	 DWORD PTR __real@4f800000
$LN1712@LoadProper:
  00889	51		 push	 ecx
  0088a	8b 8d a4 fd ff
	ff		 mov	 ecx, DWORD PTR _rkLoader$GSCopy$[ebp]
  00890	d9 1c 24	 fstp	 DWORD PTR [esp]
  00893	8d 45 b4	 lea	 eax, DWORD PTR __k$554725[ebp]
  00896	50		 push	 eax
  00897	ff 15 00 00 00
	00		 call	 DWORD PTR __imp_?LoadFloat@ioINILoader@@QAEMPBDM@Z
  0089d	d9 9d 9c fd ff
	ff		 fstp	 DWORD PTR _value$554837[ebp]
  008a3	8d 85 9c fd ff
	ff		 lea	 eax, DWORD PTR _value$554837[ebp]
  008a9	50		 push	 eax
  008aa	8d 8e 48 1a 00
	00		 lea	 ecx, DWORD PTR [esi+6728]
  008b0	e8 00 00 00 00	 call	 ?EncryptValueToPool@?$CEncrypt@M@@AAEXPBD@Z ; CEncrypt<float>::EncryptValueToPool

; 130  : }

  008b5	e8 00 00 00 00	 call	 __EH_epilog3_GS
  008ba	c2 04 00	 ret	 4
_TEXT	ENDS
;	COMDAT text$x
text$x	SEGMENT
__unwindfunclet$?LoadProperty@ioSummonChargeItem@@UAEXAAVioINILoader@@@Z$0:
  00000	8d 8d 28 fd ff
	ff		 lea	 ecx, DWORD PTR _kInfo$541760[ebp]
  00006	e9 00 00 00 00	 jmp	 ??1tagSummonAttackInfo@@QAE@XZ
__unwindfunclet$?LoadProperty@ioSummonChargeItem@@UAEXAAVioINILoader@@@Z$1:
  0000b	8d 8d d8 fc ff
	ff		 lea	 ecx, DWORD PTR _kAttribute$542219[ebp]
  00011	e9 00 00 00 00	 jmp	 ??1AttackAttribute@@QAE@XZ
__ehhandler$?LoadProperty@ioSummonChargeItem@@UAEXAAVioINILoader@@@Z:
  00016	8b 54 24 08	 mov	 edx, DWORD PTR [esp+8]
  0001a	8d 42 0c	 lea	 eax, DWORD PTR [edx+12]
  0001d	8b 8a d4 fc ff
	ff		 mov	 ecx, DWORD PTR [edx-812]
  00023	33 c8		 xor	 ecx, eax
  00025	e8 00 00 00 00	 call	 @__security_check_cookie@4
  0002a	8b 4a fc	 mov	 ecx, DWORD PTR [edx-4]
  0002d	33 c8		 xor	 ecx, eax
  0002f	e8 00 00 00 00	 call	 @__security_check_cookie@4
  00034	b8 00 00 00 00	 mov	 eax, OFFSET __ehfuncinfo$?LoadProperty@ioSummonChargeItem@@UAEXAAVioINILoader@@@Z
  00039	e9 00 00 00 00	 jmp	 ___CxxFrameHandler3
text$x	ENDS
?LoadProperty@ioSummonChargeItem@@UAEXAAVioINILoader@@@Z ENDP ; ioSummonChargeItem::LoadProperty
END
