; Listing generated by Microsoft (R) Optimizing Compiler Version 16.00.30319.01 

	TITLE	D:\Lost Saga For Developer\Youtube\Tutorial\Source\src\LSClient\ioSuperDimensionItem.cpp
	.686P
	.XMM
	include listing.inc
	.model	flat

INCLUDELIB MSVCRT
INCLUDELIB OLDNAMES

PUBLIC	?_EEM_DS@?$deque@UD3DXVECTOR3@@V?$allocator@UD3DXVECTOR3@@@std@@@std@@2HB ; std::deque<D3DXVECTOR3,std::allocator<D3DXVECTOR3> >::_EEM_DS
;	COMDAT ?_EEM_DS@?$deque@UD3DXVECTOR3@@V?$allocator@UD3DXVECTOR3@@@std@@@std@@2HB
CONST	SEGMENT
?_EEM_DS@?$deque@UD3DXVECTOR3@@V?$allocator@UD3DXVECTOR3@@@std@@@std@@2HB DD 01H ; std::deque<D3DXVECTOR3,std::allocator<D3DXVECTOR3> >::_EEM_DS
CONST	ENDS
PUBLIC	??MDistInfo@ioSuperDimensionItem@@QBE_NABU01@@Z	; ioSuperDimensionItem::DistInfo::operator<
EXTRN	__fltused:DWORD
; Function compile flags: /Ogsp
; File d:\lost saga for developer\youtube\tutorial\source\src\lsclient\iosuperdimensionitem.h
;	COMDAT ??MDistInfo@ioSuperDimensionItem@@QBE_NABU01@@Z
_TEXT	SEGMENT
_rhs$ = 8						; size = 4
??MDistInfo@ioSuperDimensionItem@@QBE_NABU01@@Z PROC	; ioSuperDimensionItem::DistInfo::operator<, COMDAT
; _this$ = ecx

; 54   : 		{

  00000	55		 push	 ebp
  00001	8b ec		 mov	 ebp, esp

; 55   : 			return fDistSq < rhs.fDistSq;

  00003	8b 45 08	 mov	 eax, DWORD PTR _rhs$[ebp]
  00006	f3 0f 10 48 04	 movss	 xmm1, DWORD PTR [eax+4]
  0000b	f3 0f 10 41 04	 movss	 xmm0, DWORD PTR [ecx+4]
  00010	0f 5a c0	 cvtps2pd xmm0, xmm0
  00013	0f 5a c9	 cvtps2pd xmm1, xmm1
  00016	33 c0		 xor	 eax, eax
  00018	66 0f 2f c8	 comisd	 xmm1, xmm0
  0001c	76 01		 jbe	 SHORT $LN4@operator
  0001e	40		 inc	 eax
$LN4@operator:

; 56   : 		}

  0001f	5d		 pop	 ebp
  00020	c2 04 00	 ret	 4
??MDistInfo@ioSuperDimensionItem@@QBE_NABU01@@Z ENDP	; ioSuperDimensionItem::DistInfo::operator<
_TEXT	ENDS
PUBLIC	?return1@@YAIXZ					; return1
; Function compile flags: /Ogsp
; File d:\lost saga for developer\youtube\tutorial\source\src\lsclient\stdafx.h
;	COMDAT ?return1@@YAIXZ
_TEXT	SEGMENT
?return1@@YAIXZ PROC					; return1, COMDAT

; 17   : 	__forceinline unsigned int return1() { __asm mov eax, 1 };

  00000	b8 01 00 00 00	 mov	 eax, 1
  00005	c3		 ret	 0
?return1@@YAIXZ ENDP					; return1
_TEXT	ENDS
PUBLIC	?return5@@YAIXZ					; return5
; Function compile flags: /Ogsp
;	COMDAT ?return5@@YAIXZ
_TEXT	SEGMENT
?return5@@YAIXZ PROC					; return5, COMDAT

; 18   : 	__forceinline unsigned int return5() { __asm mov eax, 5 };

  00000	b8 05 00 00 00	 mov	 eax, 5
  00005	c3		 ret	 0
?return5@@YAIXZ ENDP					; return5
_TEXT	ENDS
PUBLIC	?return10@@YAIXZ				; return10
; Function compile flags: /Ogsp
;	COMDAT ?return10@@YAIXZ
_TEXT	SEGMENT
?return10@@YAIXZ PROC					; return10, COMDAT

; 21   : 	__forceinline unsigned int return10() { __asm mov eax, 10 };

  00000	b8 0a 00 00 00	 mov	 eax, 10			; 0000000aH
  00005	c3		 ret	 0
?return10@@YAIXZ ENDP					; return10
_TEXT	ENDS
PUBLIC	?return100@@YAIXZ				; return100
; Function compile flags: /Ogsp
;	COMDAT ?return100@@YAIXZ
_TEXT	SEGMENT
?return100@@YAIXZ PROC					; return100, COMDAT

; 25   : 	__forceinline unsigned int return100() { __asm mov eax, 100 };

  00000	b8 64 00 00 00	 mov	 eax, 100		; 00000064H
  00005	c3		 ret	 0
?return100@@YAIXZ ENDP					; return100
_TEXT	ENDS
PUBLIC	?return360@@YAIXZ				; return360
; Function compile flags: /Ogsp
;	COMDAT ?return360@@YAIXZ
_TEXT	SEGMENT
?return360@@YAIXZ PROC					; return360, COMDAT

; 27   : 	__forceinline unsigned int return360() { __asm mov eax, 360 };

  00000	b8 68 01 00 00	 mov	 eax, 360		; 00000168H
  00005	c3		 ret	 0
?return360@@YAIXZ ENDP					; return360
_TEXT	ENDS
PUBLIC	?return1000@@YAIXZ				; return1000
; Function compile flags: /Ogsp
;	COMDAT ?return1000@@YAIXZ
_TEXT	SEGMENT
?return1000@@YAIXZ PROC					; return1000, COMDAT

; 29   : 	__forceinline unsigned int return1000() { __asm mov eax, 1000 };

  00000	b8 e8 03 00 00	 mov	 eax, 1000		; 000003e8H
  00005	c3		 ret	 0
?return1000@@YAIXZ ENDP					; return1000
_TEXT	ENDS
PUBLIC	?GetState@ioBaseChar@@QBE?AW4CharState@@XZ	; ioBaseChar::GetState
; Function compile flags: /Ogsp
; File d:\lost saga for developer\youtube\tutorial\source\src\lsclient\iobasechar.h
;	COMDAT ?GetState@ioBaseChar@@QBE?AW4CharState@@XZ
_TEXT	SEGMENT
?GetState@ioBaseChar@@QBE?AW4CharState@@XZ PROC		; ioBaseChar::GetState, COMDAT
; _this$ = ecx

; 2156 : 	inline CharState GetState() const { return m_CharState; }	

  00000	8a 81 10 03 00
	00		 mov	 al, BYTE PTR [ecx+784]
  00006	c3		 ret	 0
?GetState@ioBaseChar@@QBE?AW4CharState@@XZ ENDP		; ioBaseChar::GetState
_TEXT	ENDS
PUBLIC	_fabsf
; Function compile flags: /Ogsp
; File c:\program files (x86)\microsoft visual studio 10.0\vc\include\math.h
;	COMDAT _fabsf
_TEXT	SEGMENT
tv129 = 8						; size = 4
__X$ = 8						; size = 4
_fabsf	PROC						; COMDAT

; 395  :         {return ((float)fabs((double)_X)); }

  00000	55		 push	 ebp
  00001	8b ec		 mov	 ebp, esp
  00003	d9 45 08	 fld	 DWORD PTR __X$[ebp]
  00006	d9 e1		 fabs
  00008	d9 5d 08	 fstp	 DWORD PTR tv129[ebp]
  0000b	d9 45 08	 fld	 DWORD PTR tv129[ebp]
  0000e	5d		 pop	 ebp
  0000f	c3		 ret	 0
_fabsf	ENDP
_TEXT	ENDS
PUBLIC	_acosf
EXTRN	__CIacos:PROC
; Function compile flags: /Ogsp
;	COMDAT _acosf
_TEXT	SEGMENT
tv69 = 8						; size = 4
__X$ = 8						; size = 4
_acosf	PROC						; COMDAT

; 400  :         {return ((float)acos((double)_X)); }

  00000	55		 push	 ebp
  00001	8b ec		 mov	 ebp, esp
  00003	d9 45 08	 fld	 DWORD PTR __X$[ebp]
  00006	e8 00 00 00 00	 call	 __CIacos
  0000b	d9 5d 08	 fstp	 DWORD PTR tv69[ebp]
  0000e	d9 45 08	 fld	 DWORD PTR tv69[ebp]
  00011	5d		 pop	 ebp
  00012	c3		 ret	 0
_acosf	ENDP
_TEXT	ENDS
PUBLIC	_cosf
EXTRN	__CIcos:PROC
; Function compile flags: /Ogsp
;	COMDAT _cosf
_TEXT	SEGMENT
tv69 = 8						; size = 4
__X$ = 8						; size = 4
_cosf	PROC						; COMDAT

; 410  :         {return ((float)cos((double)_X)); }

  00000	55		 push	 ebp
  00001	8b ec		 mov	 ebp, esp
  00003	d9 45 08	 fld	 DWORD PTR __X$[ebp]
  00006	e8 00 00 00 00	 call	 __CIcos
  0000b	d9 5d 08	 fstp	 DWORD PTR tv69[ebp]
  0000e	d9 45 08	 fld	 DWORD PTR tv69[ebp]
  00011	5d		 pop	 ebp
  00012	c3		 ret	 0
_cosf	ENDP
_TEXT	ENDS
PUBLIC	?GetCharName@ioBaseChar@@QBEABVioHashString@@XZ	; ioBaseChar::GetCharName
; Function compile flags: /Ogsp
; File d:\lost saga for developer\youtube\tutorial\source\src\lsclient\iobasechar.h
;	COMDAT ?GetCharName@ioBaseChar@@QBEABVioHashString@@XZ
_TEXT	SEGMENT
?GetCharName@ioBaseChar@@QBEABVioHashString@@XZ PROC	; ioBaseChar::GetCharName, COMDAT
; _this$ = ecx

; 2594 : 	inline const ioHashString& GetCharName() const { return m_Name; }

  00000	8d 81 d4 02 00
	00		 lea	 eax, DWORD PTR [ecx+724]
  00006	c3		 ret	 0
?GetCharName@ioBaseChar@@QBEABVioHashString@@XZ ENDP	; ioBaseChar::GetCharName
_TEXT	ENDS
PUBLIC	_sqrtf
EXTRN	__CIsqrt:PROC
; Function compile flags: /Ogsp
; File c:\program files (x86)\microsoft visual studio 10.0\vc\include\math.h
;	COMDAT _sqrtf
_TEXT	SEGMENT
tv69 = 8						; size = 4
__X$ = 8						; size = 4
_sqrtf	PROC						; COMDAT

; 434  :         {return ((float)sqrt((double)_X)); }

  00000	55		 push	 ebp
  00001	8b ec		 mov	 ebp, esp
  00003	d9 45 08	 fld	 DWORD PTR __X$[ebp]
  00006	e8 00 00 00 00	 call	 __CIsqrt
  0000b	d9 5d 08	 fstp	 DWORD PTR tv69[ebp]
  0000e	d9 45 08	 fld	 DWORD PTR tv69[ebp]
  00011	5d		 pop	 ebp
  00012	c3		 ret	 0
_sqrtf	ENDP
_TEXT	ENDS
PUBLIC	?GetTargetRot@ioBaseChar@@QBEABUD3DXQUATERNION@@XZ ; ioBaseChar::GetTargetRot
; Function compile flags: /Ogsp
; File d:\lost saga for developer\youtube\tutorial\source\src\lsclient\iobasechar.h
;	COMDAT ?GetTargetRot@ioBaseChar@@QBEABUD3DXQUATERNION@@XZ
_TEXT	SEGMENT
?GetTargetRot@ioBaseChar@@QBEABUD3DXQUATERNION@@XZ PROC	; ioBaseChar::GetTargetRot, COMDAT
; _this$ = ecx

; 2599 : 	inline const D3DXQUATERNION& GetTargetRot() const { return m_qtTargetRot; }

  00000	8d 81 a4 06 00
	00		 lea	 eax, DWORD PTR [ecx+1700]
  00006	c3		 ret	 0
?GetTargetRot@ioBaseChar@@QBEABUD3DXQUATERNION@@XZ ENDP	; ioBaseChar::GetTargetRot
_TEXT	ENDS
PUBLIC	?fabs@@YAMM@Z					; fabs
; Function compile flags: /Ogsp
; File c:\program files (x86)\microsoft visual studio 10.0\vc\include\math.h
;	COMDAT ?fabs@@YAMM@Z
_TEXT	SEGMENT
tv131 = 8						; size = 4
__X$ = 8						; size = 4
?fabs@@YAMM@Z PROC					; fabs, COMDAT

; 518  :         {return (fabsf(_X)); }

  00000	55		 push	 ebp
  00001	8b ec		 mov	 ebp, esp
  00003	d9 45 08	 fld	 DWORD PTR __X$[ebp]
  00006	d9 e1		 fabs
  00008	d9 5d 08	 fstp	 DWORD PTR tv131[ebp]
  0000b	d9 45 08	 fld	 DWORD PTR tv131[ebp]
  0000e	5d		 pop	 ebp
  0000f	c3		 ret	 0
?fabs@@YAMM@Z ENDP					; fabs
_TEXT	ENDS
PUBLIC	?SetCurJumpPowerAmt@ioBaseChar@@QAEXM@Z		; ioBaseChar::SetCurJumpPowerAmt
; Function compile flags: /Ogsp
; File d:\lost saga for developer\youtube\tutorial\source\src\lsclient\iobasechar.h
;	COMDAT ?SetCurJumpPowerAmt@ioBaseChar@@QAEXM@Z
_TEXT	SEGMENT
_fAmt$ = 8						; size = 4
?SetCurJumpPowerAmt@ioBaseChar@@QAEXM@Z PROC		; ioBaseChar::SetCurJumpPowerAmt, COMDAT
; _this$ = ecx

; 2628 : 	inline void SetCurJumpPowerAmt( float fAmt ) { m_fCurJumpPowerAmt = fAmt; }

  00000	55		 push	 ebp
  00001	8b ec		 mov	 ebp, esp
  00003	f3 0f 10 45 08	 movss	 xmm0, DWORD PTR _fAmt$[ebp]
  00008	f3 0f 11 81 90
	0e 00 00	 movss	 DWORD PTR [ecx+3728], xmm0
  00010	5d		 pop	 ebp
  00011	c2 04 00	 ret	 4
?SetCurJumpPowerAmt@ioBaseChar@@QAEXM@Z ENDP		; ioBaseChar::SetCurJumpPowerAmt
_TEXT	ENDS
PUBLIC	?SetChargingState@ioBaseChar@@QAEX_N@Z		; ioBaseChar::SetChargingState
; Function compile flags: /Ogsp
;	COMDAT ?SetChargingState@ioBaseChar@@QAEX_N@Z
_TEXT	SEGMENT
_bState$ = 8						; size = 1
?SetChargingState@ioBaseChar@@QAEX_N@Z PROC		; ioBaseChar::SetChargingState, COMDAT
; _this$ = ecx

; 2937 : 	inline void SetChargingState( bool bState ) { m_bChargingState = bState; }

  00000	55		 push	 ebp
  00001	8b ec		 mov	 ebp, esp
  00003	8a 45 08	 mov	 al, BYTE PTR _bState$[ebp]
  00006	88 81 54 20 00
	00		 mov	 BYTE PTR [ecx+8276], al
  0000c	5d		 pop	 ebp
  0000d	c2 04 00	 ret	 4
?SetChargingState@ioBaseChar@@QAEX_N@Z ENDP		; ioBaseChar::SetChargingState
_TEXT	ENDS
PUBLIC	??_7bad_alloc@std@@6B@				; std::bad_alloc::`vftable'
PUBLIC	??0bad_alloc@std@@QAE@PBD@Z			; std::bad_alloc::bad_alloc
PUBLIC	??_R4bad_alloc@std@@6B@				; std::bad_alloc::`RTTI Complete Object Locator'
PUBLIC	??_R0?AVbad_alloc@std@@@8			; std::bad_alloc `RTTI Type Descriptor'
PUBLIC	??_R3bad_alloc@std@@8				; std::bad_alloc::`RTTI Class Hierarchy Descriptor'
PUBLIC	??_R2bad_alloc@std@@8				; std::bad_alloc::`RTTI Base Class Array'
PUBLIC	??_R1A@?0A@EA@bad_alloc@std@@8			; std::bad_alloc::`RTTI Base Class Descriptor at (0,-1,0,64)'
PUBLIC	??_R1A@?0A@EA@exception@std@@8			; std::exception::`RTTI Base Class Descriptor at (0,-1,0,64)'
PUBLIC	??_R0?AVexception@std@@@8			; std::exception `RTTI Type Descriptor'
PUBLIC	??_R3exception@std@@8				; std::exception::`RTTI Class Hierarchy Descriptor'
PUBLIC	??_R2exception@std@@8				; std::exception::`RTTI Base Class Array'
EXTRN	__imp_??0exception@std@@QAE@ABQBD@Z:PROC
EXTRN	??_7type_info@@6B@:QWORD			; type_info::`vftable'
EXTRN	??_Ebad_alloc@std@@UAEPAXI@Z:PROC		; std::bad_alloc::`vector deleting destructor'
EXTRN	?what@exception@std@@UBEPBDXZ:PROC		; std::exception::what
;	COMDAT ??_R2exception@std@@8
; File c:\program files (x86)\microsoft visual studio 10.0\vc\include\exception
rdata$r	SEGMENT
??_R2exception@std@@8 DD FLAT:??_R1A@?0A@EA@exception@std@@8 ; std::exception::`RTTI Base Class Array'
rdata$r	ENDS
;	COMDAT ??_R3exception@std@@8
rdata$r	SEGMENT
??_R3exception@std@@8 DD 00H				; std::exception::`RTTI Class Hierarchy Descriptor'
	DD	00H
	DD	01H
	DD	FLAT:??_R2exception@std@@8
rdata$r	ENDS
;	COMDAT ??_R0?AVexception@std@@@8
_DATA	SEGMENT
??_R0?AVexception@std@@@8 DD FLAT:??_7type_info@@6B@	; std::exception `RTTI Type Descriptor'
	DD	00H
	DB	'.?AVexception@std@@', 00H
_DATA	ENDS
;	COMDAT ??_R1A@?0A@EA@exception@std@@8
rdata$r	SEGMENT
??_R1A@?0A@EA@exception@std@@8 DD FLAT:??_R0?AVexception@std@@@8 ; std::exception::`RTTI Base Class Descriptor at (0,-1,0,64)'
	DD	00H
	DD	00H
	DD	0ffffffffH
	DD	00H
	DD	040H
	DD	FLAT:??_R3exception@std@@8
rdata$r	ENDS
;	COMDAT ??_R1A@?0A@EA@bad_alloc@std@@8
rdata$r	SEGMENT
??_R1A@?0A@EA@bad_alloc@std@@8 DD FLAT:??_R0?AVbad_alloc@std@@@8 ; std::bad_alloc::`RTTI Base Class Descriptor at (0,-1,0,64)'
	DD	01H
	DD	00H
	DD	0ffffffffH
	DD	00H
	DD	040H
	DD	FLAT:??_R3bad_alloc@std@@8
rdata$r	ENDS
;	COMDAT ??_R2bad_alloc@std@@8
rdata$r	SEGMENT
??_R2bad_alloc@std@@8 DD FLAT:??_R1A@?0A@EA@bad_alloc@std@@8 ; std::bad_alloc::`RTTI Base Class Array'
	DD	FLAT:??_R1A@?0A@EA@exception@std@@8
rdata$r	ENDS
;	COMDAT ??_R3bad_alloc@std@@8
rdata$r	SEGMENT
??_R3bad_alloc@std@@8 DD 00H				; std::bad_alloc::`RTTI Class Hierarchy Descriptor'
	DD	00H
	DD	02H
	DD	FLAT:??_R2bad_alloc@std@@8
rdata$r	ENDS
;	COMDAT ??_R0?AVbad_alloc@std@@@8
_DATA	SEGMENT
??_R0?AVbad_alloc@std@@@8 DD FLAT:??_7type_info@@6B@	; std::bad_alloc `RTTI Type Descriptor'
	DD	00H
	DB	'.?AVbad_alloc@std@@', 00H
_DATA	ENDS
;	COMDAT ??_R4bad_alloc@std@@6B@
rdata$r	SEGMENT
??_R4bad_alloc@std@@6B@ DD 00H				; std::bad_alloc::`RTTI Complete Object Locator'
	DD	00H
	DD	00H
	DD	FLAT:??_R0?AVbad_alloc@std@@@8
	DD	FLAT:??_R3bad_alloc@std@@8
rdata$r	ENDS
;	COMDAT ??_7bad_alloc@std@@6B@
CONST	SEGMENT
??_7bad_alloc@std@@6B@ DD FLAT:??_R4bad_alloc@std@@6B@	; std::bad_alloc::`vftable'
	DD	FLAT:??_Ebad_alloc@std@@UAEPAXI@Z
	DD	FLAT:?what@exception@std@@UBEPBDXZ
; Function compile flags: /Ogsp
CONST	ENDS
;	COMDAT ??0bad_alloc@std@@QAE@PBD@Z
_TEXT	SEGMENT
__Message$ = 8						; size = 4
??0bad_alloc@std@@QAE@PBD@Z PROC			; std::bad_alloc::bad_alloc, COMDAT
; _this$ = ecx

; 345  : 		{	// construct from message string

  00000	55		 push	 ebp
  00001	8b ec		 mov	 ebp, esp
  00003	56		 push	 esi
  00004	8d 45 08	 lea	 eax, DWORD PTR __Message$[ebp]
  00007	50		 push	 eax
  00008	8b f1		 mov	 esi, ecx
  0000a	ff 15 00 00 00
	00		 call	 DWORD PTR __imp_??0exception@std@@QAE@ABQBD@Z
  00010	c7 06 00 00 00
	00		 mov	 DWORD PTR [esi], OFFSET ??_7bad_alloc@std@@6B@

; 346  : 		}

  00016	8b c6		 mov	 eax, esi
  00018	5e		 pop	 esi
  00019	5d		 pop	 ebp
  0001a	c2 04 00	 ret	 4
??0bad_alloc@std@@QAE@PBD@Z ENDP			; std::bad_alloc::bad_alloc
_TEXT	ENDS
PUBLIC	??1bad_alloc@std@@UAE@XZ			; std::bad_alloc::~bad_alloc
EXTRN	__imp_??1exception@std@@UAE@XZ:PROC
; Function compile flags: /Ogsp
;	COMDAT ??1bad_alloc@std@@UAE@XZ
_TEXT	SEGMENT
??1bad_alloc@std@@UAE@XZ PROC				; std::bad_alloc::~bad_alloc, COMDAT
; _this$ = ecx

; 354  : 		{	// destroy the object

  00000	c7 01 00 00 00
	00		 mov	 DWORD PTR [ecx], OFFSET ??_7bad_alloc@std@@6B@

; 355  : 		}

  00006	ff 25 00 00 00
	00		 jmp	 DWORD PTR __imp_??1exception@std@@UAE@XZ
??1bad_alloc@std@@UAE@XZ ENDP				; std::bad_alloc::~bad_alloc
_TEXT	ENDS
EXTRN	??3@YAXPAX@Z:PROC				; operator delete
; Function compile flags: /Ogsp
;	COMDAT ??_Gbad_alloc@std@@UAEPAXI@Z
_TEXT	SEGMENT
___flags$ = 8						; size = 4
??_Gbad_alloc@std@@UAEPAXI@Z PROC			; std::bad_alloc::`scalar deleting destructor', COMDAT
; _this$ = ecx
  00000	55		 push	 ebp
  00001	8b ec		 mov	 ebp, esp
  00003	56		 push	 esi
  00004	8b f1		 mov	 esi, ecx
  00006	c7 06 00 00 00
	00		 mov	 DWORD PTR [esi], OFFSET ??_7bad_alloc@std@@6B@
  0000c	ff 15 00 00 00
	00		 call	 DWORD PTR __imp_??1exception@std@@UAE@XZ
  00012	f6 45 08 01	 test	 BYTE PTR ___flags$[ebp], 1
  00016	74 07		 je	 SHORT $LN1@scalar
  00018	56		 push	 esi
  00019	e8 00 00 00 00	 call	 ??3@YAXPAX@Z		; operator delete
  0001e	59		 pop	 ecx
$LN1@scalar:
  0001f	8b c6		 mov	 eax, esi
  00021	5e		 pop	 esi
  00022	5d		 pop	 ebp
  00023	c2 04 00	 ret	 4
??_Gbad_alloc@std@@UAEPAXI@Z ENDP			; std::bad_alloc::`scalar deleting destructor'
_TEXT	ENDS
PUBLIC	??2@YAPAXIPAX@Z					; operator new
; Function compile flags: /Ogsp
; File c:\program files (x86)\microsoft visual studio 10.0\vc\include\new
;	COMDAT ??2@YAPAXIPAX@Z
_TEXT	SEGMENT
___formal$ = 8						; size = 4
__Where$ = 12						; size = 4
??2@YAPAXIPAX@Z PROC					; operator new, COMDAT

; 56   : 	{	// construct array with placement at _Where

  00000	55		 push	 ebp
  00001	8b ec		 mov	 ebp, esp

; 57   : 	return (_Where);

  00003	8b 45 0c	 mov	 eax, DWORD PTR __Where$[ebp]

; 58   : 	}

  00006	5d		 pop	 ebp
  00007	c3		 ret	 0
??2@YAPAXIPAX@Z ENDP					; operator new
_TEXT	ENDS
PUBLIC	??3@YAXPAX0@Z					; operator delete
; Function compile flags: /Ogsp
;	COMDAT ??3@YAXPAX0@Z
_TEXT	SEGMENT
___formal$ = 8						; size = 4
___formal$ = 12						; size = 4
??3@YAXPAX0@Z PROC					; operator delete, COMDAT

; 62   : 	}

  00000	c3		 ret	 0
??3@YAXPAX0@Z ENDP					; operator delete
_TEXT	ENDS
PUBLIC	?GetCreator@ioBaseChar@@QAEPAVioPlayStage@@XZ	; ioBaseChar::GetCreator
; Function compile flags: /Ogsp
; File d:\lost saga for developer\youtube\tutorial\source\src\lsclient\iobasechar.h
;	COMDAT ?GetCreator@ioBaseChar@@QAEPAVioPlayStage@@XZ
_TEXT	SEGMENT
?GetCreator@ioBaseChar@@QAEPAVioPlayStage@@XZ PROC	; ioBaseChar::GetCreator, COMDAT
; _this$ = ecx

; 4013 : 	inline ioPlayStage* GetCreator() { return m_pCreator; }

  00000	8b 81 44 03 00
	00		 mov	 eax, DWORD PTR [ecx+836]
  00006	c3		 ret	 0
?GetCreator@ioBaseChar@@QAEPAVioPlayStage@@XZ ENDP	; ioBaseChar::GetCreator
_TEXT	ENDS
PUBLIC	?GetBaseCharList@ioPlayStage@@QBEABV?$vector@PAVioBaseChar@@V?$allocator@PAVioBaseChar@@@std@@@std@@XZ ; ioPlayStage::GetBaseCharList
; Function compile flags: /Ogsp
; File d:\lost saga for developer\youtube\tutorial\source\src\lsclient\ioplaystage.h
;	COMDAT ?GetBaseCharList@ioPlayStage@@QBEABV?$vector@PAVioBaseChar@@V?$allocator@PAVioBaseChar@@@std@@@std@@XZ
_TEXT	SEGMENT
?GetBaseCharList@ioPlayStage@@QBEABV?$vector@PAVioBaseChar@@V?$allocator@PAVioBaseChar@@@std@@@std@@XZ PROC ; ioPlayStage::GetBaseCharList, COMDAT
; _this$ = ecx

; 755  : 	const BaseCharList& GetBaseCharList() const { return m_BaseCharList; }

  00000	8d 41 2c	 lea	 eax, DWORD PTR [ecx+44]
  00003	c3		 ret	 0
?GetBaseCharList@ioPlayStage@@QBEABV?$vector@PAVioBaseChar@@V?$allocator@PAVioBaseChar@@@std@@@std@@XZ ENDP ; ioPlayStage::GetBaseCharList
_TEXT	ENDS
PUBLIC	?GetPlayMode@ioPlayStage@@QBEPAVioPlayMode@@XZ	; ioPlayStage::GetPlayMode
; Function compile flags: /Ogsp
;	COMDAT ?GetPlayMode@ioPlayStage@@QBEPAVioPlayMode@@XZ
_TEXT	SEGMENT
?GetPlayMode@ioPlayStage@@QBEPAVioPlayMode@@XZ PROC	; ioPlayStage::GetPlayMode, COMDAT
; _this$ = ecx

; 780  : 	inline ioPlayMode* GetPlayMode() const { return m_pPlayMode; }

  00000	8b 81 10 01 00
	00		 mov	 eax, DWORD PTR [ecx+272]
  00006	c3		 ret	 0
?GetPlayMode@ioPlayStage@@QBEPAVioPlayMode@@XZ ENDP	; ioPlayStage::GetPlayMode
_TEXT	ENDS
PUBLIC	??_R0?AVioWeapon@@@8				; ioWeapon `RTTI Type Descriptor'
PUBLIC	??_R0?AVioContactWeapon3@@@8			; ioContactWeapon3 `RTTI Type Descriptor'
PUBLIC	?ToContactWeapon3@@YAPAVioContactWeapon3@@PAVioWeapon@@@Z ; ToContactWeapon3
EXTRN	___RTDynamicCast:PROC
;	COMDAT ??_R0?AVioWeapon@@@8
; File d:\lost saga for developer\youtube\tutorial\source\src\lsclient\iocontactweapon3.h
_DATA	SEGMENT
??_R0?AVioWeapon@@@8 DD FLAT:??_7type_info@@6B@		; ioWeapon `RTTI Type Descriptor'
	DD	00H
	DB	'.?AVioWeapon@@', 00H
_DATA	ENDS
;	COMDAT ??_R0?AVioContactWeapon3@@@8
_DATA	SEGMENT
??_R0?AVioContactWeapon3@@@8 DD FLAT:??_7type_info@@6B@	; ioContactWeapon3 `RTTI Type Descriptor'
	DD	00H
	DB	'.?AVioContactWeapon3@@', 00H
; Function compile flags: /Ogsp
_DATA	ENDS
;	COMDAT ?ToContactWeapon3@@YAPAVioContactWeapon3@@PAVioWeapon@@@Z
_TEXT	SEGMENT
_pWeapon$ = 8						; size = 4
?ToContactWeapon3@@YAPAVioContactWeapon3@@PAVioWeapon@@@Z PROC ; ToContactWeapon3, COMDAT

; 71   : {

  00000	55		 push	 ebp
  00001	8b ec		 mov	 ebp, esp
  00003	56		 push	 esi

; 72   : 	if( !pWeapon || pWeapon->GetType() != ioWeapon::WT_CONTACT3 )

  00004	8b 75 08	 mov	 esi, DWORD PTR _pWeapon$[ebp]
  00007	85 f6		 test	 esi, esi
  00009	74 28		 je	 SHORT $LN1@ToContactW
  0000b	8b 06		 mov	 eax, DWORD PTR [esi]
  0000d	8b ce		 mov	 ecx, esi
  0000f	ff 90 10 01 00
	00		 call	 DWORD PTR [eax+272]
  00015	83 f8 68	 cmp	 eax, 104		; 00000068H
  00018	75 19		 jne	 SHORT $LN1@ToContactW

; 74   : 
; 75   : 	return dynamic_cast< ioContactWeapon3* >( pWeapon );

  0001a	6a 00		 push	 0
  0001c	68 00 00 00 00	 push	 OFFSET ??_R0?AVioContactWeapon3@@@8
  00021	68 00 00 00 00	 push	 OFFSET ??_R0?AVioWeapon@@@8
  00026	6a 00		 push	 0
  00028	56		 push	 esi
  00029	e8 00 00 00 00	 call	 ___RTDynamicCast
  0002e	83 c4 14	 add	 esp, 20			; 00000014H
  00031	eb 02		 jmp	 SHORT $LN3@ToContactW
$LN1@ToContactW:

; 73   : 		return NULL;

  00033	33 c0		 xor	 eax, eax
$LN3@ToContactW:
  00035	5e		 pop	 esi

; 76   : }

  00036	5d		 pop	 ebp
  00037	c3		 ret	 0
?ToContactWeapon3@@YAPAVioContactWeapon3@@PAVioWeapon@@@Z ENDP ; ToContactWeapon3
_TEXT	ENDS
PUBLIC	??_R0?AVioZoneEffectWeapon@@@8			; ioZoneEffectWeapon `RTTI Type Descriptor'
PUBLIC	?ToZoneEffectWeapon@@YAPAVioZoneEffectWeapon@@PAVioWeapon@@@Z ; ToZoneEffectWeapon
;	COMDAT ??_R0?AVioZoneEffectWeapon@@@8
; File d:\lost saga for developer\youtube\tutorial\source\src\lsclient\iozoneeffectweapon.h
_DATA	SEGMENT
??_R0?AVioZoneEffectWeapon@@@8 DD FLAT:??_7type_info@@6B@ ; ioZoneEffectWeapon `RTTI Type Descriptor'
	DD	00H
	DB	'.?AVioZoneEffectWeapon@@', 00H
; Function compile flags: /Ogsp
_DATA	ENDS
;	COMDAT ?ToZoneEffectWeapon@@YAPAVioZoneEffectWeapon@@PAVioWeapon@@@Z
_TEXT	SEGMENT
_pWeapon$ = 8						; size = 4
?ToZoneEffectWeapon@@YAPAVioZoneEffectWeapon@@PAVioWeapon@@@Z PROC ; ToZoneEffectWeapon, COMDAT

; 217  : {

  00000	55		 push	 ebp
  00001	8b ec		 mov	 ebp, esp
  00003	56		 push	 esi

; 218  : 	if( !pWeapon || pWeapon->GetType() != ioWeapon::WT_ZONE_EFFECT )

  00004	8b 75 08	 mov	 esi, DWORD PTR _pWeapon$[ebp]
  00007	85 f6		 test	 esi, esi
  00009	74 28		 je	 SHORT $LN1@ToZoneEffe
  0000b	8b 06		 mov	 eax, DWORD PTR [esi]
  0000d	8b ce		 mov	 ecx, esi
  0000f	ff 90 10 01 00
	00		 call	 DWORD PTR [eax+272]
  00015	83 f8 08	 cmp	 eax, 8
  00018	75 19		 jne	 SHORT $LN1@ToZoneEffe

; 220  : 
; 221  : 	return dynamic_cast< ioZoneEffectWeapon* >( pWeapon );

  0001a	6a 00		 push	 0
  0001c	68 00 00 00 00	 push	 OFFSET ??_R0?AVioZoneEffectWeapon@@@8
  00021	68 00 00 00 00	 push	 OFFSET ??_R0?AVioWeapon@@@8
  00026	6a 00		 push	 0
  00028	56		 push	 esi
  00029	e8 00 00 00 00	 call	 ___RTDynamicCast
  0002e	83 c4 14	 add	 esp, 20			; 00000014H
  00031	eb 02		 jmp	 SHORT $LN3@ToZoneEffe
$LN1@ToZoneEffe:

; 219  : 		return NULL;

  00033	33 c0		 xor	 eax, eax
$LN3@ToZoneEffe:
  00035	5e		 pop	 esi

; 222  : }

  00036	5d		 pop	 ebp
  00037	c3		 ret	 0
?ToZoneEffectWeapon@@YAPAVioZoneEffectWeapon@@PAVioWeapon@@@Z ENDP ; ToZoneEffectWeapon
_TEXT	ENDS
PUBLIC	?_Adopt@_Iterator_base0@std@@QAEXPBX@Z		; std::_Iterator_base0::_Adopt
; Function compile flags: /Ogsp
; File c:\program files (x86)\microsoft visual studio 10.0\vc\include\xutility
;	COMDAT ?_Adopt@_Iterator_base0@std@@QAEXPBX@Z
_TEXT	SEGMENT
___formal$ = 8						; size = 4
?_Adopt@_Iterator_base0@std@@QAEXPBX@Z PROC		; std::_Iterator_base0::_Adopt, COMDAT
; _this$ = ecx

; 49   : 		}

  00000	c2 04 00	 ret	 4
?_Adopt@_Iterator_base0@std@@QAEXPBX@Z ENDP		; std::_Iterator_base0::_Adopt
_TEXT	ENDS
PUBLIC	??_R0?AVioTraceWeapon5@@@8			; ioTraceWeapon5 `RTTI Type Descriptor'
PUBLIC	?ToTraceWeapon5@@YAPAVioTraceWeapon5@@PAVioWeapon@@@Z ; ToTraceWeapon5
;	COMDAT ??_R0?AVioTraceWeapon5@@@8
; File d:\lost saga for developer\youtube\tutorial\source\src\lsclient\iotraceweapon5.h
_DATA	SEGMENT
??_R0?AVioTraceWeapon5@@@8 DD FLAT:??_7type_info@@6B@	; ioTraceWeapon5 `RTTI Type Descriptor'
	DD	00H
	DB	'.?AVioTraceWeapon5@@', 00H
; Function compile flags: /Ogsp
_DATA	ENDS
;	COMDAT ?ToTraceWeapon5@@YAPAVioTraceWeapon5@@PAVioWeapon@@@Z
_TEXT	SEGMENT
_pWeapon$ = 8						; size = 4
?ToTraceWeapon5@@YAPAVioTraceWeapon5@@PAVioWeapon@@@Z PROC ; ToTraceWeapon5, COMDAT

; 112  : {

  00000	55		 push	 ebp
  00001	8b ec		 mov	 ebp, esp
  00003	56		 push	 esi

; 113  : 	if( !pWeapon || pWeapon->GetType() != ioWeapon::WT_TRACE5 )

  00004	8b 75 08	 mov	 esi, DWORD PTR _pWeapon$[ebp]
  00007	85 f6		 test	 esi, esi
  00009	74 28		 je	 SHORT $LN1@ToTraceWea
  0000b	8b 06		 mov	 eax, DWORD PTR [esi]
  0000d	8b ce		 mov	 ecx, esi
  0000f	ff 90 10 01 00
	00		 call	 DWORD PTR [eax+272]
  00015	83 f8 3d	 cmp	 eax, 61			; 0000003dH
  00018	75 19		 jne	 SHORT $LN1@ToTraceWea

; 115  : 
; 116  : 	return dynamic_cast< ioTraceWeapon5* >( pWeapon );

  0001a	6a 00		 push	 0
  0001c	68 00 00 00 00	 push	 OFFSET ??_R0?AVioTraceWeapon5@@@8
  00021	68 00 00 00 00	 push	 OFFSET ??_R0?AVioWeapon@@@8
  00026	6a 00		 push	 0
  00028	56		 push	 esi
  00029	e8 00 00 00 00	 call	 ___RTDynamicCast
  0002e	83 c4 14	 add	 esp, 20			; 00000014H
  00031	eb 02		 jmp	 SHORT $LN3@ToTraceWea
$LN1@ToTraceWea:

; 114  : 		return NULL;

  00033	33 c0		 xor	 eax, eax
$LN3@ToTraceWea:
  00035	5e		 pop	 esi

; 117  : }

  00036	5d		 pop	 ebp
  00037	c3		 ret	 0
?ToTraceWeapon5@@YAPAVioTraceWeapon5@@PAVioWeapon@@@Z ENDP ; ToTraceWeapon5
_TEXT	ENDS
PUBLIC	??_R0?AVioSimpleBoxWeapon@@@8			; ioSimpleBoxWeapon `RTTI Type Descriptor'
PUBLIC	?ToSimpleBoxWeapon@@YAPAVioSimpleBoxWeapon@@PAVioWeapon@@@Z ; ToSimpleBoxWeapon
;	COMDAT ??_R0?AVioSimpleBoxWeapon@@@8
; File d:\lost saga for developer\youtube\tutorial\source\src\lsclient\iosimpleboxweapon.h
_DATA	SEGMENT
??_R0?AVioSimpleBoxWeapon@@@8 DD FLAT:??_7type_info@@6B@ ; ioSimpleBoxWeapon `RTTI Type Descriptor'
	DD	00H
	DB	'.?AVioSimpleBoxWeapon@@', 00H
; Function compile flags: /Ogsp
_DATA	ENDS
;	COMDAT ?ToSimpleBoxWeapon@@YAPAVioSimpleBoxWeapon@@PAVioWeapon@@@Z
_TEXT	SEGMENT
_pWeapon$ = 8						; size = 4
?ToSimpleBoxWeapon@@YAPAVioSimpleBoxWeapon@@PAVioWeapon@@@Z PROC ; ToSimpleBoxWeapon, COMDAT

; 78   : {

  00000	55		 push	 ebp
  00001	8b ec		 mov	 ebp, esp
  00003	56		 push	 esi

; 79   : 	if( !pWeapon || pWeapon->GetType() != ioWeapon::WT_SIMPLE_BOX )

  00004	8b 75 08	 mov	 esi, DWORD PTR _pWeapon$[ebp]
  00007	85 f6		 test	 esi, esi
  00009	74 28		 je	 SHORT $LN1@ToSimpleBo
  0000b	8b 06		 mov	 eax, DWORD PTR [esi]
  0000d	8b ce		 mov	 ecx, esi
  0000f	ff 90 10 01 00
	00		 call	 DWORD PTR [eax+272]
  00015	83 f8 49	 cmp	 eax, 73			; 00000049H
  00018	75 19		 jne	 SHORT $LN1@ToSimpleBo

; 81   : 
; 82   : 	return dynamic_cast< ioSimpleBoxWeapon* >( pWeapon );

  0001a	6a 00		 push	 0
  0001c	68 00 00 00 00	 push	 OFFSET ??_R0?AVioSimpleBoxWeapon@@@8
  00021	68 00 00 00 00	 push	 OFFSET ??_R0?AVioWeapon@@@8
  00026	6a 00		 push	 0
  00028	56		 push	 esi
  00029	e8 00 00 00 00	 call	 ___RTDynamicCast
  0002e	83 c4 14	 add	 esp, 20			; 00000014H
  00031	eb 02		 jmp	 SHORT $LN3@ToSimpleBo
$LN1@ToSimpleBo:

; 80   : 		return NULL;

  00033	33 c0		 xor	 eax, eax
$LN3@ToSimpleBo:
  00035	5e		 pop	 esi

; 83   : }

  00036	5d		 pop	 ebp
  00037	c3		 ret	 0
?ToSimpleBoxWeapon@@YAPAVioSimpleBoxWeapon@@PAVioWeapon@@@Z ENDP ; ToSimpleBoxWeapon
_TEXT	ENDS
PUBLIC	?GetSubType@ioSuperDimensionItem@@UBE?AW4WeaponSubType@ioWeaponItem@@XZ ; ioSuperDimensionItem::GetSubType
; Function compile flags: /Ogsp
; File d:\lost saga for developer\youtube\tutorial\source\src\lsclient\iosuperdimensionitem.cpp
;	COMDAT ?GetSubType@ioSuperDimensionItem@@UBE?AW4WeaponSubType@ioWeaponItem@@XZ
_TEXT	SEGMENT
?GetSubType@ioSuperDimensionItem@@UBE?AW4WeaponSubType@ioWeaponItem@@XZ PROC ; ioSuperDimensionItem::GetSubType, COMDAT
; _this$ = ecx

; 167  : 	return WST_SUPER_DIMENSION_ITEM;

  00000	6a 57		 push	 87			; 00000057H
  00002	58		 pop	 eax

; 168  : }

  00003	c3		 ret	 0
?GetSubType@ioSuperDimensionItem@@UBE?AW4WeaponSubType@ioWeaponItem@@XZ ENDP ; ioSuperDimensionItem::GetSubType
_TEXT	ENDS
PUBLIC	?IsChargeAttackState@ioSuperDimensionItem@@UAE_NPAVioBaseChar@@@Z ; ioSuperDimensionItem::IsChargeAttackState
; Function compile flags: /Ogsp
;	COMDAT ?IsChargeAttackState@ioSuperDimensionItem@@UAE_NPAVioBaseChar@@@Z
_TEXT	SEGMENT
_pOwner$ = 8						; size = 4
?IsChargeAttackState@ioSuperDimensionItem@@UAE_NPAVioBaseChar@@@Z PROC ; ioSuperDimensionItem::IsChargeAttackState, COMDAT
; _this$ = ecx

; 367  : {

  00000	55		 push	 ebp
  00001	8b ec		 mov	 ebp, esp

; 368  : 	if( pOwner->GetState() == CS_ATTACK )

  00003	8b 45 08	 mov	 eax, DWORD PTR _pOwner$[ebp]
  00006	80 b8 10 03 00
	00 05		 cmp	 BYTE PTR [eax+784], 5
  0000d	75 0d		 jne	 SHORT $LN2@IsChargeAt

; 369  : 	{
; 370  : 		switch( m_SuperDimensionFireState )

  0000f	8b 81 94 1c 00
	00		 mov	 eax, DWORD PTR [ecx+7316]
  00015	48		 dec	 eax
  00016	75 04		 jne	 SHORT $LN2@IsChargeAt

; 371  : 		{
; 372  : 		case PSS_Find_Target:
; 373  : 		//case PSS_Wait:
; 374  : 		//case PSS_Combo:
; 375  : 		//case PSS_Teleport:
; 376  : 			return true;

  00018	b0 01		 mov	 al, 1
  0001a	eb 02		 jmp	 SHORT $LN5@IsChargeAt
$LN2@IsChargeAt:

; 377  : 		}
; 378  : 	}
; 379  : 
; 380  : 	return false;

  0001c	32 c0		 xor	 al, al
$LN5@IsChargeAt:

; 381  : }

  0001e	5d		 pop	 ebp
  0001f	c2 04 00	 ret	 4
?IsChargeAttackState@ioSuperDimensionItem@@UAE_NPAVioBaseChar@@@Z ENDP ; ioSuperDimensionItem::IsChargeAttackState
_TEXT	ENDS
PUBLIC	?GetMaxBullet@ioSuperDimensionItem@@UAEHXZ	; ioSuperDimensionItem::GetMaxBullet
; Function compile flags: /Ogsp
;	COMDAT ?GetMaxBullet@ioSuperDimensionItem@@UAEHXZ
_TEXT	SEGMENT
?GetMaxBullet@ioSuperDimensionItem@@UAEHXZ PROC		; ioSuperDimensionItem::GetMaxBullet, COMDAT
; _this$ = ecx

; 415  : 	return (int)m_fMaxGauge;

  00000	f3 0f 2c 81 54
	19 00 00	 cvttss2si eax, DWORD PTR [ecx+6484]

; 416  : }

  00008	c3		 ret	 0
?GetMaxBullet@ioSuperDimensionItem@@UAEHXZ ENDP		; ioSuperDimensionItem::GetMaxBullet
_TEXT	ENDS
PUBLIC	?GetCurBullet@ioSuperDimensionItem@@UAEHXZ	; ioSuperDimensionItem::GetCurBullet
; Function compile flags: /Ogsp
;	COMDAT ?GetCurBullet@ioSuperDimensionItem@@UAEHXZ
_TEXT	SEGMENT
?GetCurBullet@ioSuperDimensionItem@@UAEHXZ PROC		; ioSuperDimensionItem::GetCurBullet, COMDAT
; _this$ = ecx

; 420  : 	float fCurCoolTime = m_fCurGauge;

  00000	f3 0f 10 81 8c
	1c 00 00	 movss	 xmm0, DWORD PTR [ecx+7308]

; 421  : 	fCurCoolTime = max( 0, min( fCurCoolTime, m_fMaxGauge ) );

  00008	f3 0f 10 89 54
	19 00 00	 movss	 xmm1, DWORD PTR [ecx+6484]
  00010	0f 57 d2	 xorps	 xmm2, xmm2
  00013	0f 5a d0	 cvtps2pd xmm2, xmm0
  00016	0f 5a d9	 cvtps2pd xmm3, xmm1
  00019	66 0f 2f da	 comisd	 xmm3, xmm2
  0001d	76 05		 jbe	 SHORT $LN3@GetCurBull
  0001f	0f 28 d0	 movaps	 xmm2, xmm0
  00022	eb 03		 jmp	 SHORT $LN4@GetCurBull
$LN3@GetCurBull:
  00024	0f 28 d1	 movaps	 xmm2, xmm1
$LN4@GetCurBull:
  00027	0f 57 db	 xorps	 xmm3, xmm3
  0002a	f3 0f 5a d2	 cvtss2sd xmm2, xmm2
  0002e	66 0f 2f da	 comisd	 xmm3, xmm2
  00032	76 05		 jbe	 SHORT $LN7@GetCurBull
  00034	0f 57 c0	 xorps	 xmm0, xmm0
  00037	eb 0f		 jmp	 SHORT $LN6@GetCurBull
$LN7@GetCurBull:
  00039	0f 5a d0	 cvtps2pd xmm2, xmm0
  0003c	0f 5a d9	 cvtps2pd xmm3, xmm1
  0003f	66 0f 2f da	 comisd	 xmm3, xmm2
  00043	77 03		 ja	 SHORT $LN6@GetCurBull
  00045	0f 28 c1	 movaps	 xmm0, xmm1
$LN6@GetCurBull:

; 422  : 
; 423  : 	return (int)fCurCoolTime;

  00048	f3 0f 2c c0	 cvttss2si eax, xmm0

; 424  : }

  0004c	c3		 ret	 0
?GetCurBullet@ioSuperDimensionItem@@UAEHXZ ENDP		; ioSuperDimensionItem::GetCurBullet
_TEXT	ENDS
PUBLIC	?SetCurBullet@ioSuperDimensionItem@@UAEXH@Z	; ioSuperDimensionItem::SetCurBullet
; Function compile flags: /Ogsp
;	COMDAT ?SetCurBullet@ioSuperDimensionItem@@UAEXH@Z
_TEXT	SEGMENT
_iCurBullet$ = 8					; size = 4
?SetCurBullet@ioSuperDimensionItem@@UAEXH@Z PROC	; ioSuperDimensionItem::SetCurBullet, COMDAT
; _this$ = ecx

; 427  : {

  00000	55		 push	 ebp
  00001	8b ec		 mov	 ebp, esp

; 428  : 	if( iCurBullet < 0 )

  00003	83 7d 08 00	 cmp	 DWORD PTR _iCurBullet$[ebp], 0
  00007	7c 55		 jl	 SHORT $LN2@SetCurBull

; 429  : 		return;
; 430  : 
; 431  : 	float fCurBullet = iCurBullet;

  00009	66 0f 6e 45 08	 movd	 xmm0, DWORD PTR _iCurBullet$[ebp]

; 432  : 	fCurBullet = max( 0, min( fCurBullet, m_fMaxGauge ) );

  0000e	f3 0f 10 89 54
	19 00 00	 movss	 xmm1, DWORD PTR [ecx+6484]
  00016	0f 5b c0	 cvtdq2ps xmm0, xmm0
  00019	0f 57 d2	 xorps	 xmm2, xmm2
  0001c	f3 0f 5a d0	 cvtss2sd xmm2, xmm0
  00020	0f 5a d9	 cvtps2pd xmm3, xmm1
  00023	66 0f 2f da	 comisd	 xmm3, xmm2
  00027	76 05		 jbe	 SHORT $LN4@SetCurBull
  00029	0f 28 d0	 movaps	 xmm2, xmm0
  0002c	eb 03		 jmp	 SHORT $LN5@SetCurBull
$LN4@SetCurBull:
  0002e	0f 28 d1	 movaps	 xmm2, xmm1
$LN5@SetCurBull:
  00031	0f 57 db	 xorps	 xmm3, xmm3
  00034	f3 0f 5a d2	 cvtss2sd xmm2, xmm2
  00038	66 0f 2f da	 comisd	 xmm3, xmm2
  0003c	76 05		 jbe	 SHORT $LN8@SetCurBull
  0003e	0f 57 c0	 xorps	 xmm0, xmm0
  00041	eb 13		 jmp	 SHORT $LN7@SetCurBull
$LN8@SetCurBull:
  00043	0f 57 d2	 xorps	 xmm2, xmm2
  00046	f3 0f 5a d0	 cvtss2sd xmm2, xmm0
  0004a	0f 5a d9	 cvtps2pd xmm3, xmm1
  0004d	66 0f 2f da	 comisd	 xmm3, xmm2
  00051	77 03		 ja	 SHORT $LN7@SetCurBull
  00053	0f 28 c1	 movaps	 xmm0, xmm1
$LN7@SetCurBull:

; 433  : 
; 434  : 	m_fCurGauge = fCurBullet;

  00056	f3 0f 11 81 8c
	1c 00 00	 movss	 DWORD PTR [ecx+7308], xmm0
$LN2@SetCurBull:

; 435  : }

  0005e	5d		 pop	 ebp
  0005f	c2 04 00	 ret	 4
?SetCurBullet@ioSuperDimensionItem@@UAEXH@Z ENDP	; ioSuperDimensionItem::SetCurBullet
_TEXT	ENDS
PUBLIC	?InitExtraGauge@ioSuperDimensionItem@@UAEXXZ	; ioSuperDimensionItem::InitExtraGauge
; Function compile flags: /Ogsp
;	COMDAT ?InitExtraGauge@ioSuperDimensionItem@@UAEXXZ
_TEXT	SEGMENT
?InitExtraGauge@ioSuperDimensionItem@@UAEXXZ PROC	; ioSuperDimensionItem::InitExtraGauge, COMDAT
; _this$ = ecx

; 439  : 	m_fCurGauge = 0.0f;

  00000	0f 57 c0	 xorps	 xmm0, xmm0
  00003	f3 0f 11 81 8c
	1c 00 00	 movss	 DWORD PTR [ecx+7308], xmm0

; 440  : }

  0000b	c3		 ret	 0
?InitExtraGauge@ioSuperDimensionItem@@UAEXXZ ENDP	; ioSuperDimensionItem::InitExtraGauge
_TEXT	ENDS
PUBLIC	?MaxExtraGauge@ioSuperDimensionItem@@UAEXXZ	; ioSuperDimensionItem::MaxExtraGauge
; Function compile flags: /Ogsp
;	COMDAT ?MaxExtraGauge@ioSuperDimensionItem@@UAEXXZ
_TEXT	SEGMENT
?MaxExtraGauge@ioSuperDimensionItem@@UAEXXZ PROC	; ioSuperDimensionItem::MaxExtraGauge, COMDAT
; _this$ = ecx

; 444  : 	m_fCurGauge = m_fMaxGauge;

  00000	d9 81 54 19 00
	00		 fld	 DWORD PTR [ecx+6484]
  00006	d9 99 8c 1c 00
	00		 fstp	 DWORD PTR [ecx+7308]

; 445  : }

  0000c	c3		 ret	 0
?MaxExtraGauge@ioSuperDimensionItem@@UAEXXZ ENDP	; ioSuperDimensionItem::MaxExtraGauge
_TEXT	ENDS
PUBLIC	?GetMaxExtraGauge@ioSuperDimensionItem@@UAEMXZ	; ioSuperDimensionItem::GetMaxExtraGauge
; Function compile flags: /Ogsp
;	COMDAT ?GetMaxExtraGauge@ioSuperDimensionItem@@UAEMXZ
_TEXT	SEGMENT
?GetMaxExtraGauge@ioSuperDimensionItem@@UAEMXZ PROC	; ioSuperDimensionItem::GetMaxExtraGauge, COMDAT
; _this$ = ecx

; 449  : 	return m_fMaxGauge;

  00000	d9 81 54 19 00
	00		 fld	 DWORD PTR [ecx+6484]

; 450  : }

  00006	c3		 ret	 0
?GetMaxExtraGauge@ioSuperDimensionItem@@UAEMXZ ENDP	; ioSuperDimensionItem::GetMaxExtraGauge
_TEXT	ENDS
PUBLIC	?GetCurExtraGauge@ioSuperDimensionItem@@UAEMXZ	; ioSuperDimensionItem::GetCurExtraGauge
; Function compile flags: /Ogsp
;	COMDAT ?GetCurExtraGauge@ioSuperDimensionItem@@UAEMXZ
_TEXT	SEGMENT
?GetCurExtraGauge@ioSuperDimensionItem@@UAEMXZ PROC	; ioSuperDimensionItem::GetCurExtraGauge, COMDAT
; _this$ = ecx

; 454  : 	return m_fCurGauge;

  00000	d9 81 8c 1c 00
	00		 fld	 DWORD PTR [ecx+7308]

; 455  : }

  00006	c3		 ret	 0
?GetCurExtraGauge@ioSuperDimensionItem@@UAEMXZ ENDP	; ioSuperDimensionItem::GetCurExtraGauge
_TEXT	ENDS
PUBLIC	?SetCurExtraGauge@ioSuperDimensionItem@@UAEXM@Z	; ioSuperDimensionItem::SetCurExtraGauge
; Function compile flags: /Ogsp
;	COMDAT ?SetCurExtraGauge@ioSuperDimensionItem@@UAEXM@Z
_TEXT	SEGMENT
_fGauge$ = 8						; size = 4
?SetCurExtraGauge@ioSuperDimensionItem@@UAEXM@Z PROC	; ioSuperDimensionItem::SetCurExtraGauge, COMDAT
; _this$ = ecx

; 458  : {

  00000	55		 push	 ebp
  00001	8b ec		 mov	 ebp, esp

; 459  : 	m_fCurGauge = fGauge;

  00003	f3 0f 10 45 08	 movss	 xmm0, DWORD PTR _fGauge$[ebp]

; 460  : 	m_fCurGauge = (float)max( 0, min( m_fCurGauge, m_fMaxGauge ) );

  00008	f3 0f 10 89 54
	19 00 00	 movss	 xmm1, DWORD PTR [ecx+6484]
  00010	0f 57 d2	 xorps	 xmm2, xmm2
  00013	0f 5a d0	 cvtps2pd xmm2, xmm0
  00016	0f 5a d9	 cvtps2pd xmm3, xmm1
  00019	66 0f 2f da	 comisd	 xmm3, xmm2
  0001d	f3 0f 11 81 8c
	1c 00 00	 movss	 DWORD PTR [ecx+7308], xmm0
  00025	76 05		 jbe	 SHORT $LN3@SetCurExtr
  00027	0f 28 d0	 movaps	 xmm2, xmm0
  0002a	eb 03		 jmp	 SHORT $LN4@SetCurExtr
$LN3@SetCurExtr:
  0002c	0f 28 d1	 movaps	 xmm2, xmm1
$LN4@SetCurExtr:
  0002f	0f 57 db	 xorps	 xmm3, xmm3
  00032	f3 0f 5a d2	 cvtss2sd xmm2, xmm2
  00036	66 0f 2f da	 comisd	 xmm3, xmm2
  0003a	76 05		 jbe	 SHORT $LN7@SetCurExtr
  0003c	0f 57 c0	 xorps	 xmm0, xmm0
  0003f	eb 0f		 jmp	 SHORT $LN6@SetCurExtr
$LN7@SetCurExtr:
  00041	0f 5a d0	 cvtps2pd xmm2, xmm0
  00044	0f 5a d9	 cvtps2pd xmm3, xmm1
  00047	66 0f 2f da	 comisd	 xmm3, xmm2
  0004b	77 03		 ja	 SHORT $LN6@SetCurExtr
  0004d	0f 28 c1	 movaps	 xmm0, xmm1
$LN6@SetCurExtr:
  00050	f3 0f 11 81 8c
	1c 00 00	 movss	 DWORD PTR [ecx+7308], xmm0

; 461  : }

  00058	5d		 pop	 ebp
  00059	c2 04 00	 ret	 4
?SetCurExtraGauge@ioSuperDimensionItem@@UAEXM@Z ENDP	; ioSuperDimensionItem::SetCurExtraGauge
_TEXT	ENDS
PUBLIC	?GetNeedBullet@ioSuperDimensionItem@@QAEHXZ	; ioSuperDimensionItem::GetNeedBullet
; Function compile flags: /Ogsp
;	COMDAT ?GetNeedBullet@ioSuperDimensionItem@@QAEHXZ
_TEXT	SEGMENT
?GetNeedBullet@ioSuperDimensionItem@@QAEHXZ PROC	; ioSuperDimensionItem::GetNeedBullet, COMDAT
; _this$ = ecx

; 465  : 	return (int)m_fNeedGauge;

  00000	f3 0f 2c 81 58
	19 00 00	 cvttss2si eax, DWORD PTR [ecx+6488]

; 466  : }

  00008	c3		 ret	 0
?GetNeedBullet@ioSuperDimensionItem@@QAEHXZ ENDP	; ioSuperDimensionItem::GetNeedBullet
_TEXT	ENDS
PUBLIC	?DecreaseGauge@ioSuperDimensionItem@@QAEXM@Z	; ioSuperDimensionItem::DecreaseGauge
; Function compile flags: /Ogsp
;	COMDAT ?DecreaseGauge@ioSuperDimensionItem@@QAEXM@Z
_TEXT	SEGMENT
_fNeedGauge$ = 8					; size = 4
?DecreaseGauge@ioSuperDimensionItem@@QAEXM@Z PROC	; ioSuperDimensionItem::DecreaseGauge, COMDAT
; _this$ = ecx

; 470  : {

  00000	55		 push	 ebp
  00001	8b ec		 mov	 ebp, esp

; 471  : 	m_fCurGauge -= fNeedGauge;

  00003	f3 0f 10 81 8c
	1c 00 00	 movss	 xmm0, DWORD PTR [ecx+7308]
  0000b	f3 0f 10 4d 08	 movss	 xmm1, DWORD PTR _fNeedGauge$[ebp]
  00010	0f 5a c0	 cvtps2pd xmm0, xmm0
  00013	0f 5a c9	 cvtps2pd xmm1, xmm1
  00016	f2 0f 5c c1	 subsd	 xmm0, xmm1

; 472  : 	m_fCurGauge = (float)max( 0.f, min( m_fCurGauge, m_fMaxGauge ) );

  0001a	f3 0f 10 89 54
	19 00 00	 movss	 xmm1, DWORD PTR [ecx+6484]
  00022	66 0f 5a c0	 cvtpd2ps xmm0, xmm0
  00026	0f 57 d2	 xorps	 xmm2, xmm2
  00029	f3 0f 5a d0	 cvtss2sd xmm2, xmm0
  0002d	0f 5a d9	 cvtps2pd xmm3, xmm1
  00030	66 0f 2f da	 comisd	 xmm3, xmm2
  00034	f3 0f 11 81 8c
	1c 00 00	 movss	 DWORD PTR [ecx+7308], xmm0
  0003c	76 05		 jbe	 SHORT $LN3@DecreaseGa
  0003e	0f 28 d0	 movaps	 xmm2, xmm0
  00041	eb 03		 jmp	 SHORT $LN4@DecreaseGa
$LN3@DecreaseGa:
  00043	0f 28 d1	 movaps	 xmm2, xmm1
$LN4@DecreaseGa:
  00046	0f 57 db	 xorps	 xmm3, xmm3
  00049	f3 0f 5a d2	 cvtss2sd xmm2, xmm2
  0004d	66 0f 2f da	 comisd	 xmm3, xmm2
  00051	76 05		 jbe	 SHORT $LN7@DecreaseGa
  00053	0f 57 c0	 xorps	 xmm0, xmm0
  00056	eb 1a		 jmp	 SHORT $LN6@DecreaseGa
$LN7@DecreaseGa:
  00058	f3 0f 5a c0	 cvtss2sd xmm0, xmm0
  0005c	0f 5a d1	 cvtps2pd xmm2, xmm1
  0005f	66 0f 2f d0	 comisd	 xmm2, xmm0
  00063	76 0a		 jbe	 SHORT $LN5@DecreaseGa
  00065	f3 0f 10 81 8c
	1c 00 00	 movss	 xmm0, DWORD PTR [ecx+7308]
  0006d	eb 03		 jmp	 SHORT $LN6@DecreaseGa
$LN5@DecreaseGa:
  0006f	0f 28 c1	 movaps	 xmm0, xmm1
$LN6@DecreaseGa:
  00072	f3 0f 11 81 8c
	1c 00 00	 movss	 DWORD PTR [ecx+7308], xmm0

; 473  : }

  0007a	5d		 pop	 ebp
  0007b	c2 04 00	 ret	 4
?DecreaseGauge@ioSuperDimensionItem@@QAEXM@Z ENDP	; ioSuperDimensionItem::DecreaseGauge
_TEXT	ENDS
PUBLIC	?RecvSpecialState@ioSuperDimensionItem@@IAEXPAVioBaseChar@@AAVSP2Packet@@@Z ; ioSuperDimensionItem::RecvSpecialState
EXTRN	??5SP2Packet@@QAEAAV0@AA_N@Z:PROC		; SP2Packet::operator>>
EXTRN	??5SP2Packet@@QAEAAV0@AAVioHashString@@@Z:PROC	; SP2Packet::operator>>
EXTRN	??5SP2Packet@@QAEAAV0@AAH@Z:PROC		; SP2Packet::operator>>
; Function compile flags: /Ogsp
;	COMDAT ?RecvSpecialState@ioSuperDimensionItem@@IAEXPAVioBaseChar@@AAVSP2Packet@@@Z
_TEXT	SEGMENT
_nSpecialState$ = 8					; size = 4
_pOwner$ = 8						; size = 4
_rkPacket$ = 12						; size = 4
?RecvSpecialState@ioSuperDimensionItem@@IAEXPAVioBaseChar@@AAVSP2Packet@@@Z PROC ; ioSuperDimensionItem::RecvSpecialState, COMDAT
; _this$ = ecx

; 530  : {

  00000	55		 push	 ebp
  00001	8b ec		 mov	 ebp, esp

; 531  : 	if( !pOwner ) 

  00003	83 7d 08 00	 cmp	 DWORD PTR _pOwner$[ebp], 0
  00007	56		 push	 esi
  00008	8b f1		 mov	 esi, ecx
  0000a	74 41		 je	 SHORT $LN3@RecvSpecia

; 532  : 		return;
; 533  : 
; 534  : 	int nSpecialState;
; 535  : 	rkPacket >> nSpecialState;

  0000c	8b 4d 0c	 mov	 ecx, DWORD PTR _rkPacket$[ebp]
  0000f	8d 45 08	 lea	 eax, DWORD PTR _nSpecialState$[ebp]
  00012	50		 push	 eax
  00013	e8 00 00 00 00	 call	 ??5SP2Packet@@QAEAAV0@AAH@Z ; SP2Packet::operator>>

; 536  : 
; 537  : 	switch( nSpecialState )

  00018	8b 45 08	 mov	 eax, DWORD PTR _nSpecialState$[ebp]
  0001b	48		 dec	 eax
  0001c	48		 dec	 eax
  0001d	74 10		 je	 SHORT $LN2@RecvSpecia
  0001f	48		 dec	 eax
  00020	48		 dec	 eax
  00021	75 2a		 jne	 SHORT $LN3@RecvSpecia

; 554  : 		}
; 555  : 		break;
; 556  : 	case PSS_End:
; 557  : 		{
; 558  : 			m_SuperDimensionFireState = PSS_End;

  00023	c7 86 94 1c 00
	00 04 00 00 00	 mov	 DWORD PTR [esi+7316], 4

; 559  : 		}
; 560  : 		break;

  0002d	eb 1e		 jmp	 SHORT $LN3@RecvSpecia
$LN2@RecvSpecia:

; 538  : 	{
; 539  : 	/*case PSS_Find_Target:
; 540  : 		{	
; 541  : 			rkPacket >> m_dwWeaponBaseIndex;
; 542  : 			D3DXQUATERNION qtRot;
; 543  : 			rkPacket >> qtRot;
; 544  : 			rkPacket >> m_szFirstTarget;
; 545  : 
; 546  : 			pOwner->SetTargetRot( qtRot );
; 547  : 			SetSuperPowerState( pOwner );
; 548  : 		}
; 549  : 		break;*/
; 550  : 	case PSS_Set_Target:
; 551  : 		{
; 552  : 			rkPacket >> m_szTargetName;

  0002f	8b 4d 0c	 mov	 ecx, DWORD PTR _rkPacket$[ebp]
  00032	8d 86 d4 1c 00
	00		 lea	 eax, DWORD PTR [esi+7380]
  00038	50		 push	 eax
  00039	e8 00 00 00 00	 call	 ??5SP2Packet@@QAEAAV0@AAVioHashString@@@Z ; SP2Packet::operator>>

; 553  : 			rkPacket >> m_bSetTarget;

  0003e	8b 4d 0c	 mov	 ecx, DWORD PTR _rkPacket$[ebp]
  00041	81 c6 d0 1c 00
	00		 add	 esi, 7376		; 00001cd0H
  00047	56		 push	 esi
  00048	e8 00 00 00 00	 call	 ??5SP2Packet@@QAEAAV0@AA_N@Z ; SP2Packet::operator>>
$LN3@RecvSpecia:
  0004d	5e		 pop	 esi

; 561  : 	}
; 562  : }

  0004e	5d		 pop	 ebp
  0004f	c2 08 00	 ret	 8
?RecvSpecialState@ioSuperDimensionItem@@IAEXPAVioBaseChar@@AAVSP2Packet@@@Z ENDP ; ioSuperDimensionItem::RecvSpecialState
_TEXT	ENDS
PUBLIC	__real@3f800000
PUBLIC	__$ArrayPad$
PUBLIC	?SetNormalAttackState@ioSuperDimensionItem@@IAEXPAVioBaseChar@@@Z ; ioSuperDimensionItem::SetNormalAttackState
EXTRN	??1SP2Packet@@UAE@XZ:PROC			; SP2Packet::~SP2Packet
EXTRN	?SendToAllPlayingUser@P2PNetwork@@YAXAAVSP2Packet@@PAVioBaseChar@@@Z:PROC ; P2PNetwork::SendToAllPlayingUser
EXTRN	??6SP2Packet@@QAEAAV0@ABUD3DXQUATERNION@@@Z:PROC ; SP2Packet::operator<<
EXTRN	??6SP2Packet@@QAEAAV0@H@Z:PROC			; SP2Packet::operator<<
EXTRN	?FillItemGaugePacketHeader@ioAttackableItem@@QAEXPAVioBaseChar@@AAVSP2Packet@@@Z:PROC ; ioAttackableItem::FillItemGaugePacketHeader
EXTRN	??0SP2Packet@@QAE@K@Z:PROC			; SP2Packet::SP2Packet
EXTRN	?ApplyNormalAttackResult@ioBaseChar@@QAEXH_N@Z:PROC ; ioBaseChar::ApplyNormalAttackResult
EXTRN	__imp_??4ioHashString@@QAEAAV0@ABV0@@Z:PROC
EXTRN	?SetNormalAttackByAttribute@ioBaseChar@@QAEKABUAttackAttribute@@_NMM@Z:PROC ; ioBaseChar::SetNormalAttackByAttribute
EXTRN	?GetAttribute@ioFormalAttackGrp@@QBEPBUAttackAttribute@@W4AttackType@@H@Z:PROC ; ioFormalAttackGrp::GetAttribute
EXTRN	?InitActionStopDelay@ioBaseChar@@QAEX_N@Z:PROC	; ioBaseChar::InitActionStopDelay
EXTRN	?InitExtendAttackTagInfo@ioBaseChar@@QAEXXZ:PROC ; ioBaseChar::InitExtendAttackTagInfo
EXTRN	__imp_?GetLoopSec@ioFrameTimer@@QBEKXZ:PROC
EXTRN	__imp_?GetSingleton@ioFrameTimer@@SAAAV1@XZ:PROC
EXTRN	___security_cookie:DWORD
EXTRN	___CxxFrameHandler3:PROC
EXTRN	@__security_check_cookie@4:PROC
EXTRN	__chkstk:PROC
;	COMDAT __real@3f800000
; File d:\lost saga for developer\youtube\tutorial\source\src\lsclient\iobasechar.h
CONST	SEGMENT
__real@3f800000 DD 03f800000r			; 1
CONST	ENDS
;	COMDAT xdata$x
xdata$x	SEGMENT
__unwindtable$?SetNormalAttackState@ioSuperDimensionItem@@IAEXPAVioBaseChar@@@Z DD 0ffffffffH
	DD	FLAT:__unwindfunclet$?SetNormalAttackState@ioSuperDimensionItem@@IAEXPAVioBaseChar@@@Z$0
__ehfuncinfo$?SetNormalAttackState@ioSuperDimensionItem@@IAEXPAVioBaseChar@@@Z DD 019930522H
	DD	01H
	DD	FLAT:__unwindtable$?SetNormalAttackState@ioSuperDimensionItem@@IAEXPAVioBaseChar@@@Z
	DD	2 DUP(00H)
	DD	2 DUP(00H)
	DD	00H
	DD	01H
; Function compile flags: /Ogsp
; File d:\lost saga for developer\youtube\tutorial\source\src\lsclient\iosuperdimensionitem.cpp
xdata$x	ENDS
;	COMDAT ?SetNormalAttackState@ioSuperDimensionItem@@IAEXPAVioBaseChar@@@Z
_TEXT	SEGMENT
_dwCurTime$ = -32812					; size = 4
_kPacket$550554 = -32808				; size = 32792
__$ArrayPad$ = -16					; size = 4
__$EHRec$ = -12						; size = 12
_pOwner$ = 8						; size = 4
?SetNormalAttackState@ioSuperDimensionItem@@IAEXPAVioBaseChar@@@Z PROC ; ioSuperDimensionItem::SetNormalAttackState, COMDAT
; _this$ = ecx

; 624  : {

  00000	55		 push	 ebp
  00001	8b ec		 mov	 ebp, esp
  00003	6a ff		 push	 -1
  00005	68 00 00 00 00	 push	 __ehhandler$?SetNormalAttackState@ioSuperDimensionItem@@IAEXPAVioBaseChar@@@Z
  0000a	64 a1 00 00 00
	00		 mov	 eax, DWORD PTR fs:0
  00010	50		 push	 eax
  00011	b8 20 80 00 00	 mov	 eax, 32800		; 00008020H
  00016	e8 00 00 00 00	 call	 __chkstk
  0001b	a1 00 00 00 00	 mov	 eax, DWORD PTR ___security_cookie
  00020	33 c5		 xor	 eax, ebp
  00022	89 45 f0	 mov	 DWORD PTR __$ArrayPad$[ebp], eax
  00025	53		 push	 ebx
  00026	56		 push	 esi
  00027	57		 push	 edi
  00028	50		 push	 eax
  00029	8d 45 f4	 lea	 eax, DWORD PTR __$EHRec$[ebp]
  0002c	64 a3 00 00 00
	00		 mov	 DWORD PTR fs:0, eax
  00032	8b 7d 08	 mov	 edi, DWORD PTR _pOwner$[ebp]
  00035	8b f1		 mov	 esi, ecx

; 625  : 	if( !pOwner ) 

  00037	85 ff		 test	 edi, edi
  00039	0f 84 29 01 00
	00		 je	 $LN1@SetNormalA

; 626  : 		return;
; 627  : 
; 628  : 	ClearCancelInfo();

  0003f	8b 06		 mov	 eax, DWORD PTR [esi]
  00041	ff 90 3c 02 00
	00		 call	 DWORD PTR [eax+572]

; 629  : 
; 630  : 	DWORD dwCurTime = FRAMEGETTIME();

  00047	ff 15 00 00 00
	00		 call	 DWORD PTR __imp_?GetSingleton@ioFrameTimer@@SAAAV1@XZ
  0004d	8b c8		 mov	 ecx, eax
  0004f	ff 15 00 00 00
	00		 call	 DWORD PTR __imp_?GetLoopSec@ioFrameTimer@@QBEKXZ

; 631  : 
; 632  : 	pOwner->InitExtendAttackTagInfo();

  00055	8b cf		 mov	 ecx, edi
  00057	89 85 d4 7f ff
	ff		 mov	 DWORD PTR _dwCurTime$[ebp], eax
  0005d	e8 00 00 00 00	 call	 ?InitExtendAttackTagInfo@ioBaseChar@@QAEXXZ ; ioBaseChar::InitExtendAttackTagInfo

; 633  : 	pOwner->InitActionStopDelay( true );

  00062	6a 01		 push	 1
  00064	8b cf		 mov	 ecx, edi
  00066	e8 00 00 00 00	 call	 ?InitActionStopDelay@ioBaseChar@@QAEX_N@Z ; ioBaseChar::InitActionStopDelay

; 634  : 
; 635  : 	const AttackAttribute *pAttribute = m_FormalAttack.GetAttribute( AT_NORMAL, m_nNormalCombo );

  0006b	ff b6 ac 1c 00
	00		 push	 DWORD PTR [esi+7340]
  00071	8d 8e 2c 06 00
	00		 lea	 ecx, DWORD PTR [esi+1580]
  00077	6a 00		 push	 0
  00079	e8 00 00 00 00	 call	 ?GetAttribute@ioFormalAttackGrp@@QBEPBUAttackAttribute@@W4AttackType@@H@Z ; ioFormalAttackGrp::GetAttribute
  0007e	8b d8		 mov	 ebx, eax

; 636  : 	if( pAttribute )

  00080	85 db		 test	 ebx, ebx
  00082	74 47		 je	 SHORT $LN2@SetNormalA

; 637  : 	{
; 638  : 		pOwner->SetNormalAttackByAttribute( *pAttribute );

  00084	f3 0f 10 05 00
	00 00 00	 movss	 xmm0, DWORD PTR __real@3f800000
  0008c	51		 push	 ecx
  0008d	51		 push	 ecx
  0008e	f3 0f 11 44 24
	04		 movss	 DWORD PTR [esp+4], xmm0
  00094	f3 0f 11 04 24	 movss	 DWORD PTR [esp], xmm0
  00099	6a 01		 push	 1
  0009b	53		 push	 ebx
  0009c	8b cf		 mov	 ecx, edi
  0009e	e8 00 00 00 00	 call	 ?SetNormalAttackByAttribute@ioBaseChar@@QAEKABUAttackAttribute@@_NMM@Z ; ioBaseChar::SetNormalAttackByAttribute

; 639  : 
; 640  : 		m_szCurAni = pAttribute->m_AttackAnimation;

  000a3	53		 push	 ebx
  000a4	8d 8e 10 0f 00
	00		 lea	 ecx, DWORD PTR [esi+3856]
  000aa	ff 15 00 00 00
	00		 call	 DWORD PTR __imp_??4ioHashString@@QAEAAV0@ABV0@@Z

; 641  : 		m_fCurAniRate = pAttribute->m_fAttackAniRate;

  000b0	d9 43 10	 fld	 DWORD PTR [ebx+16]

; 642  : 
; 643  : 		m_dwInputCancelCheckTime = dwCurTime;

  000b3	8b 85 d4 7f ff
	ff		 mov	 eax, DWORD PTR _dwCurTime$[ebp]
  000b9	d9 9e 20 0f 00
	00		 fstp	 DWORD PTR [esi+3872]
  000bf	89 86 0c 0f 00
	00		 mov	 DWORD PTR [esi+3852], eax

; 644  : 		m_dwCancelCheckTime = dwCurTime;

  000c5	89 86 08 0f 00
	00		 mov	 DWORD PTR [esi+3848], eax
$LN2@SetNormalA:

; 645  : 	}
; 646  : 
; 647  : 	pOwner->ApplyNormalAttackResult( m_nNormalCombo );

  000cb	6a 00		 push	 0
  000cd	ff b6 ac 1c 00
	00		 push	 DWORD PTR [esi+7340]
  000d3	8b cf		 mov	 ecx, edi
  000d5	e8 00 00 00 00	 call	 ?ApplyNormalAttackResult@ioBaseChar@@QAEXH_N@Z ; ioBaseChar::ApplyNormalAttackResult

; 648  : 	m_WeaponItemState = WS_NORMAL_ATTACK;

  000da	c7 86 90 1c 00
	00 02 00 00 00	 mov	 DWORD PTR [esi+7312], 2

; 649  : 
; 650  : 	if( pOwner->IsNeedSendNetwork() )

  000e4	8b 07		 mov	 eax, DWORD PTR [edi]
  000e6	8b cf		 mov	 ecx, edi
  000e8	ff 90 04 01 00
	00		 call	 DWORD PTR [eax+260]
  000ee	84 c0		 test	 al, al
  000f0	74 76		 je	 SHORT $LN1@SetNormalA

; 651  : 	{
; 652  : 		SP2Packet kPacket( CUPK_ITEM_GAUGE_OK );

  000f2	68 27 41 00 00	 push	 16679			; 00004127H
  000f7	8d 8d d8 7f ff
	ff		 lea	 ecx, DWORD PTR _kPacket$550554[ebp]
  000fd	e8 00 00 00 00	 call	 ??0SP2Packet@@QAE@K@Z	; SP2Packet::SP2Packet
  00102	83 65 fc 00	 and	 DWORD PTR __$EHRec$[ebp+8], 0

; 653  : 		FillItemGaugePacketHeader( pOwner, kPacket );

  00106	8d 85 d8 7f ff
	ff		 lea	 eax, DWORD PTR _kPacket$550554[ebp]
  0010c	50		 push	 eax
  0010d	57		 push	 edi
  0010e	8b ce		 mov	 ecx, esi
  00110	e8 00 00 00 00	 call	 ?FillItemGaugePacketHeader@ioAttackableItem@@QAEXPAVioBaseChar@@AAVSP2Packet@@@Z ; ioAttackableItem::FillItemGaugePacketHeader

; 654  : 		kPacket << m_WeaponItemState;

  00115	ff b6 90 1c 00
	00		 push	 DWORD PTR [esi+7312]
  0011b	8d 8d d8 7f ff
	ff		 lea	 ecx, DWORD PTR _kPacket$550554[ebp]
  00121	e8 00 00 00 00	 call	 ??6SP2Packet@@QAEAAV0@H@Z ; SP2Packet::operator<<

; 655  : 		kPacket << m_nNormalCombo;

  00126	ff b6 ac 1c 00
	00		 push	 DWORD PTR [esi+7340]
  0012c	8d 8d d8 7f ff
	ff		 lea	 ecx, DWORD PTR _kPacket$550554[ebp]
  00132	e8 00 00 00 00	 call	 ??6SP2Packet@@QAEAAV0@H@Z ; SP2Packet::operator<<

; 656  : 		kPacket << pOwner->GetTargetRot();

  00137	81 c7 a4 06 00
	00		 add	 edi, 1700		; 000006a4H
  0013d	57		 push	 edi
  0013e	8d 8d d8 7f ff
	ff		 lea	 ecx, DWORD PTR _kPacket$550554[ebp]
  00144	e8 00 00 00 00	 call	 ??6SP2Packet@@QAEAAV0@ABUD3DXQUATERNION@@@Z ; SP2Packet::operator<<

; 657  : 		P2PNetwork::SendToAllPlayingUser( kPacket );

  00149	8d 85 d8 7f ff
	ff		 lea	 eax, DWORD PTR _kPacket$550554[ebp]
  0014f	6a 00		 push	 0
  00151	50		 push	 eax
  00152	e8 00 00 00 00	 call	 ?SendToAllPlayingUser@P2PNetwork@@YAXAAVSP2Packet@@PAVioBaseChar@@@Z ; P2PNetwork::SendToAllPlayingUser

; 658  : 	}

  00157	83 4d fc ff	 or	 DWORD PTR __$EHRec$[ebp+8], -1
  0015b	59		 pop	 ecx
  0015c	59		 pop	 ecx
  0015d	8d 8d d8 7f ff
	ff		 lea	 ecx, DWORD PTR _kPacket$550554[ebp]
  00163	e8 00 00 00 00	 call	 ??1SP2Packet@@UAE@XZ	; SP2Packet::~SP2Packet
$LN1@SetNormalA:

; 659  : }

  00168	8b 4d f4	 mov	 ecx, DWORD PTR __$EHRec$[ebp]
  0016b	64 89 0d 00 00
	00 00		 mov	 DWORD PTR fs:0, ecx
  00172	59		 pop	 ecx
  00173	5f		 pop	 edi
  00174	5e		 pop	 esi
  00175	5b		 pop	 ebx
  00176	8b 4d f0	 mov	 ecx, DWORD PTR __$ArrayPad$[ebp]
  00179	33 cd		 xor	 ecx, ebp
  0017b	e8 00 00 00 00	 call	 @__security_check_cookie@4
  00180	c9		 leave
  00181	c2 04 00	 ret	 4
_TEXT	ENDS
;	COMDAT text$x
text$x	SEGMENT
__unwindfunclet$?SetNormalAttackState@ioSuperDimensionItem@@IAEXPAVioBaseChar@@@Z$0:
  00000	8d 8d d8 7f ff
	ff		 lea	 ecx, DWORD PTR _kPacket$550554[ebp]
  00006	e9 00 00 00 00	 jmp	 ??1SP2Packet@@UAE@XZ	; SP2Packet::~SP2Packet
__ehhandler$?SetNormalAttackState@ioSuperDimensionItem@@IAEXPAVioBaseChar@@@Z:
  0000b	8b 54 24 08	 mov	 edx, DWORD PTR [esp+8]
  0000f	8d 42 0c	 lea	 eax, DWORD PTR [edx+12]
  00012	8b 8a d0 7f ff
	ff		 mov	 ecx, DWORD PTR [edx-32816]
  00018	33 c8		 xor	 ecx, eax
  0001a	e8 00 00 00 00	 call	 @__security_check_cookie@4
  0001f	8b 4a fc	 mov	 ecx, DWORD PTR [edx-4]
  00022	33 c8		 xor	 ecx, eax
  00024	e8 00 00 00 00	 call	 @__security_check_cookie@4
  00029	b8 00 00 00 00	 mov	 eax, OFFSET __ehfuncinfo$?SetNormalAttackState@ioSuperDimensionItem@@IAEXPAVioBaseChar@@@Z
  0002e	e9 00 00 00 00	 jmp	 ___CxxFrameHandler3
text$x	ENDS
?SetNormalAttackState@ioSuperDimensionItem@@IAEXPAVioBaseChar@@@Z ENDP ; ioSuperDimensionItem::SetNormalAttackState
PUBLIC	?IsEnableTarget@ioSuperDimensionItem@@IAE_NPAVioBaseChar@@@Z ; ioSuperDimensionItem::IsEnableTarget
EXTRN	?IsApplyDownState@ioBaseChar@@QAE_N_N@Z:PROC	; ioBaseChar::IsApplyDownState
EXTRN	?IsFloatingState@ioBaseChar@@QBE_NXZ:PROC	; ioBaseChar::IsFloatingState
EXTRN	?IsEnableTarget@ioBaseChar@@QAE_N_N0@Z:PROC	; ioBaseChar::IsEnableTarget
EXTRN	?IsSystemState@ioBaseChar@@QAE_NXZ:PROC		; ioBaseChar::IsSystemState
; Function compile flags: /Ogsp
;	COMDAT ?IsEnableTarget@ioSuperDimensionItem@@IAE_NPAVioBaseChar@@@Z
_TEXT	SEGMENT
_pTarget$ = 8						; size = 4
?IsEnableTarget@ioSuperDimensionItem@@IAE_NPAVioBaseChar@@@Z PROC ; ioSuperDimensionItem::IsEnableTarget, COMDAT
; _this$ = ecx

; 930  : {

  00000	55		 push	 ebp
  00001	8b ec		 mov	 ebp, esp
  00003	53		 push	 ebx
  00004	56		 push	 esi
  00005	57		 push	 edi

; 931  : 	if ( !pTarget )

  00006	8b 7d 08	 mov	 edi, DWORD PTR _pTarget$[ebp]
  00009	33 db		 xor	 ebx, ebx
  0000b	8b f1		 mov	 esi, ecx
  0000d	3b fb		 cmp	 edi, ebx
  0000f	75 07		 jne	 SHORT $LN13@IsEnableTa
$LN18@IsEnableTa:

; 932  : 		return false;

  00011	32 c0		 xor	 al, al
  00013	e9 86 00 00 00	 jmp	 $LN14@IsEnableTa
$LN13@IsEnableTa:

; 933  : 
; 934  : 	if( pTarget->IsSystemState() )

  00018	8b cf		 mov	 ecx, edi
  0001a	e8 00 00 00 00	 call	 ?IsSystemState@ioBaseChar@@QAE_NXZ ; ioBaseChar::IsSystemState
  0001f	84 c0		 test	 al, al

; 935  : 		return false;

  00021	75 ee		 jne	 SHORT $LN18@IsEnableTa

; 936  : 
; 937  : 	if( !pTarget->IsEnableTarget() )

  00023	6a 01		 push	 1
  00025	6a 01		 push	 1
  00027	8b cf		 mov	 ecx, edi
  00029	e8 00 00 00 00	 call	 ?IsEnableTarget@ioBaseChar@@QAE_N_N0@Z ; ioBaseChar::IsEnableTarget
  0002e	84 c0		 test	 al, al

; 938  : 		return false;

  00030	74 df		 je	 SHORT $LN18@IsEnableTa

; 939  : 
; 940  : 	CharState eTargetState = pTarget->GetState();

  00032	8a 87 10 03 00
	00		 mov	 al, BYTE PTR [edi+784]

; 941  : 	switch( eTargetState )

  00038	3c 07		 cmp	 al, 7
  0003a	74 48		 je	 SHORT $LN3@IsEnableTa
  0003c	3c 0c		 cmp	 al, 12			; 0000000cH
  0003e	74 0a		 je	 SHORT $LN8@IsEnableTa
  00040	3c 0f		 cmp	 al, 15			; 0000000fH
  00042	74 2c		 je	 SHORT $LN5@IsEnableTa
  00044	3c 31		 cmp	 al, 49			; 00000031H
  00046	74 15		 je	 SHORT $LN7@IsEnableTa
  00048	eb 52		 jmp	 SHORT $LN1@IsEnableTa
$LN8@IsEnableTa:

; 942  : 	{
; 943  : 	case CS_BLOW_WOUNDED:
; 944  : 		{
; 945  : 			if ( !pTarget->IsFloatingState() && !m_bSetDownAim )

  0004a	8b cf		 mov	 ecx, edi
  0004c	e8 00 00 00 00	 call	 ?IsFloatingState@ioBaseChar@@QBE_NXZ ; ioBaseChar::IsFloatingState
  00051	84 c0		 test	 al, al
  00053	75 08		 jne	 SHORT $LN7@IsEnableTa
  00055	38 9e 44 1a 00
	00		 cmp	 BYTE PTR [esi+6724], bl

; 946  : 				return false;

  0005b	74 b4		 je	 SHORT $LN18@IsEnableTa
$LN7@IsEnableTa:

; 947  : 		}
; 948  : 	case CS_BOUND_BLOW_WOUNDED:
; 949  : 		{
; 950  : 			if ( !pTarget->IsFloatingState() && !m_bSetDownAim )

  0005d	8b cf		 mov	 ecx, edi
  0005f	e8 00 00 00 00	 call	 ?IsFloatingState@ioBaseChar@@QBE_NXZ ; ioBaseChar::IsFloatingState
  00064	84 c0		 test	 al, al
  00066	75 08		 jne	 SHORT $LN5@IsEnableTa
  00068	38 9e 44 1a 00
	00		 cmp	 BYTE PTR [esi+6724], bl

; 951  : 				return false;

  0006e	74 a1		 je	 SHORT $LN18@IsEnableTa
$LN5@IsEnableTa:

; 952  : 		}
; 953  : 	case CS_ETC_STATE:
; 954  : 		{
; 955  : 			if ( pTarget->IsApplyDownState(false) && !m_bSetDownAim )

  00070	53		 push	 ebx
  00071	8b cf		 mov	 ecx, edi
  00073	e8 00 00 00 00	 call	 ?IsApplyDownState@ioBaseChar@@QAE_N_N@Z ; ioBaseChar::IsApplyDownState
  00078	84 c0		 test	 al, al
  0007a	74 08		 je	 SHORT $LN3@IsEnableTa
  0007c	38 9e 44 1a 00
	00		 cmp	 BYTE PTR [esi+6724], bl

; 956  : 				return false;

  00082	74 8d		 je	 SHORT $LN18@IsEnableTa
$LN3@IsEnableTa:

; 957  : 		}
; 958  : 	case CS_USING_SKILL:
; 959  : 		{
; 960  : 			if ( pTarget->IsApplyDownState(false) && !m_bSetDownAim )

  00084	53		 push	 ebx
  00085	8b cf		 mov	 ecx, edi
  00087	e8 00 00 00 00	 call	 ?IsApplyDownState@ioBaseChar@@QAE_N_N@Z ; ioBaseChar::IsApplyDownState
  0008c	84 c0		 test	 al, al
  0008e	74 0c		 je	 SHORT $LN1@IsEnableTa
  00090	38 9e 44 1a 00
	00		 cmp	 BYTE PTR [esi+6724], bl

; 961  : 				return false;

  00096	0f 84 75 ff ff
	ff		 je	 $LN18@IsEnableTa
$LN1@IsEnableTa:

; 962  : 		}
; 963  : 	}
; 964  : 
; 965  : 	return true;

  0009c	b0 01		 mov	 al, 1
$LN14@IsEnableTa:
  0009e	5f		 pop	 edi
  0009f	5e		 pop	 esi
  000a0	5b		 pop	 ebx

; 966  : }

  000a1	5d		 pop	 ebp
  000a2	c2 04 00	 ret	 4
?IsEnableTarget@ioSuperDimensionItem@@IAE_NPAVioBaseChar@@@Z ENDP ; ioSuperDimensionItem::IsEnableTarget
_TEXT	ENDS
PUBLIC	?OnEquiped@ioSuperDimensionItem@@UAEXPAVioBaseChar@@@Z ; ioSuperDimensionItem::OnEquiped
EXTRN	?OnEquiped@ioAttackableItem@@UAEXPAVioBaseChar@@@Z:PROC ; ioAttackableItem::OnEquiped
; Function compile flags: /Ogsp
;	COMDAT ?OnEquiped@ioSuperDimensionItem@@UAEXPAVioBaseChar@@@Z
_TEXT	SEGMENT
_pOwner$ = 8						; size = 4
?OnEquiped@ioSuperDimensionItem@@UAEXPAVioBaseChar@@@Z PROC ; ioSuperDimensionItem::OnEquiped, COMDAT
; _this$ = ecx

; 1822 : {

  00000	55		 push	 ebp
  00001	8b ec		 mov	 ebp, esp
  00003	56		 push	 esi

; 1823 : 	ioWeaponItem::OnEquiped( pOwner );

  00004	ff 75 08	 push	 DWORD PTR _pOwner$[ebp]
  00007	8b f1		 mov	 esi, ecx
  00009	e8 00 00 00 00	 call	 ?OnEquiped@ioAttackableItem@@UAEXPAVioBaseChar@@@Z ; ioAttackableItem::OnEquiped

; 1824 : 
; 1825 : 	m_nHpPercentStep = 0;

  0000e	83 a6 20 1d 00
	00 00		 and	 DWORD PTR [esi+7456], 0

; 1826 : 	m_bLastIncWeapon = false;

  00015	66 c7 86 90 1a
	00 00 00 01	 mov	 WORD PTR [esi+6800], 256 ; 00000100H
  0001e	5e		 pop	 esi

; 1827 : 
; 1828 : 	m_bItemVisible = true;
; 1829 : }

  0001f	5d		 pop	 ebp
  00020	c2 04 00	 ret	 4
?OnEquiped@ioSuperDimensionItem@@UAEXPAVioBaseChar@@@Z ENDP ; ioSuperDimensionItem::OnEquiped
_TEXT	ENDS
PUBLIC	?OnReleased@ioSuperDimensionItem@@UAEXPAVioBaseChar@@@Z ; ioSuperDimensionItem::OnReleased
EXTRN	?OnReleased@ioAttackableItem@@UAEXPAVioBaseChar@@@Z:PROC ; ioAttackableItem::OnReleased
EXTRN	__imp_?IsEmpty@ioHashString@@QBE_NXZ:PROC
EXTRN	?EndEffect@ioBaseChar@@QAEXK_N@Z:PROC		; ioBaseChar::EndEffect
; Function compile flags: /Ogsp
;	COMDAT ?OnReleased@ioSuperDimensionItem@@UAEXPAVioBaseChar@@@Z
_TEXT	SEGMENT
_pOwner$ = 8						; size = 4
?OnReleased@ioSuperDimensionItem@@UAEXPAVioBaseChar@@@Z PROC ; ioSuperDimensionItem::OnReleased, COMDAT
; _this$ = ecx

; 1833 : {

  00000	55		 push	 ebp
  00001	8b ec		 mov	 ebp, esp
  00003	53		 push	 ebx
  00004	56		 push	 esi
  00005	57		 push	 edi

; 1834 : 	m_bItemVisible = false;
; 1835 : 
; 1836 : 	pOwner->EndEffect(m_dwEffect1, false );

  00006	8b 7d 08	 mov	 edi, DWORD PTR _pOwner$[ebp]
  00009	8b f1		 mov	 esi, ecx
  0000b	33 db		 xor	 ebx, ebx
  0000d	53		 push	 ebx
  0000e	ff b6 58 1a 00
	00		 push	 DWORD PTR [esi+6744]
  00014	8b cf		 mov	 ecx, edi
  00016	88 9e 91 1a 00
	00		 mov	 BYTE PTR [esi+6801], bl
  0001c	e8 00 00 00 00	 call	 ?EndEffect@ioBaseChar@@QAEXK_N@Z ; ioBaseChar::EndEffect

; 1837 : 	pOwner->EndEffect(m_dwEffect2, false );

  00021	53		 push	 ebx
  00022	ff b6 6c 1a 00
	00		 push	 DWORD PTR [esi+6764]
  00028	8b cf		 mov	 ecx, edi
  0002a	e8 00 00 00 00	 call	 ?EndEffect@ioBaseChar@@QAEXK_N@Z ; ioBaseChar::EndEffect

; 1838 : 
; 1839 : 	if( !m_stExtraMeshName.IsEmpty() )

  0002f	8d 9e 80 1a 00
	00		 lea	 ebx, DWORD PTR [esi+6784]
  00035	8b cb		 mov	 ecx, ebx
  00037	ff 15 00 00 00
	00		 call	 DWORD PTR __imp_?IsEmpty@ioHashString@@QBE_NXZ
  0003d	84 c0		 test	 al, al
  0003f	75 08		 jne	 SHORT $LN1@OnReleased

; 1840 : 		pOwner->DestroyEntity( m_stExtraMeshName );

  00041	8b 07		 mov	 eax, DWORD PTR [edi]
  00043	53		 push	 ebx
  00044	8b cf		 mov	 ecx, edi
  00046	ff 50 30	 call	 DWORD PTR [eax+48]
$LN1@OnReleased:

; 1841 : 
; 1842 : 	ioAttackableItem::OnReleased( pOwner );

  00049	57		 push	 edi
  0004a	8b ce		 mov	 ecx, esi
  0004c	e8 00 00 00 00	 call	 ?OnReleased@ioAttackableItem@@UAEXPAVioBaseChar@@@Z ; ioAttackableItem::OnReleased
  00051	5f		 pop	 edi
  00052	5e		 pop	 esi
  00053	5b		 pop	 ebx

; 1843 : }

  00054	5d		 pop	 ebp
  00055	c2 04 00	 ret	 4
?OnReleased@ioSuperDimensionItem@@UAEXPAVioBaseChar@@@Z ENDP ; ioSuperDimensionItem::OnReleased
_TEXT	ENDS
PUBLIC	?HideWeapon@ioSuperDimensionItem@@QAEXPAVioBaseChar@@@Z ; ioSuperDimensionItem::HideWeapon
; Function compile flags: /Ogsp
;	COMDAT ?HideWeapon@ioSuperDimensionItem@@QAEXPAVioBaseChar@@@Z
_TEXT	SEGMENT
_pOwner$ = 8						; size = 4
?HideWeapon@ioSuperDimensionItem@@QAEXPAVioBaseChar@@@Z PROC ; ioSuperDimensionItem::HideWeapon, COMDAT
; _this$ = ecx

; 1861 : {

  00000	55		 push	 ebp
  00001	8b ec		 mov	 ebp, esp
  00003	56		 push	 esi
  00004	57		 push	 edi

; 1862 : 	m_bLastIncWeapon = false;
; 1863 : 	m_bItemVisible = false;
; 1864 : 
; 1865 : 	pOwner->EndEffect(m_dwEffect1, false );

  00005	8b 7d 08	 mov	 edi, DWORD PTR _pOwner$[ebp]
  00008	8b f1		 mov	 esi, ecx
  0000a	6a 00		 push	 0
  0000c	ff b6 58 1a 00
	00		 push	 DWORD PTR [esi+6744]
  00012	8b cf		 mov	 ecx, edi
  00014	66 c7 86 90 1a
	00 00 00 00	 mov	 WORD PTR [esi+6800], 0
  0001d	e8 00 00 00 00	 call	 ?EndEffect@ioBaseChar@@QAEXK_N@Z ; ioBaseChar::EndEffect

; 1866 : 	pOwner->EndEffect(m_dwEffect2, false );

  00022	6a 00		 push	 0
  00024	ff b6 6c 1a 00
	00		 push	 DWORD PTR [esi+6764]
  0002a	8b cf		 mov	 ecx, edi
  0002c	e8 00 00 00 00	 call	 ?EndEffect@ioBaseChar@@QAEXK_N@Z ; ioBaseChar::EndEffect

; 1867 : 
; 1868 : 	if( !m_stExtraMeshName.IsEmpty() )

  00031	81 c6 80 1a 00
	00		 add	 esi, 6784		; 00001a80H
  00037	8b ce		 mov	 ecx, esi
  00039	ff 15 00 00 00
	00		 call	 DWORD PTR __imp_?IsEmpty@ioHashString@@QBE_NXZ
  0003f	84 c0		 test	 al, al
  00041	75 08		 jne	 SHORT $LN1@HideWeapon

; 1869 : 		pOwner->DestroyEntity( m_stExtraMeshName );

  00043	8b 07		 mov	 eax, DWORD PTR [edi]
  00045	56		 push	 esi
  00046	8b cf		 mov	 ecx, edi
  00048	ff 50 30	 call	 DWORD PTR [eax+48]
$LN1@HideWeapon:
  0004b	5f		 pop	 edi
  0004c	5e		 pop	 esi

; 1870 : }

  0004d	5d		 pop	 ebp
  0004e	c2 04 00	 ret	 4
?HideWeapon@ioSuperDimensionItem@@QAEXPAVioBaseChar@@@Z ENDP ; ioSuperDimensionItem::HideWeapon
_TEXT	ENDS
PUBLIC	?ChangeWeaponScale@ioSuperDimensionItem@@IAEXPAVioBaseChar@@M@Z ; ioSuperDimensionItem::ChangeWeaponScale
EXTRN	__imp_?GetUniqueID@ioMovableObject@@QBEKXZ:PROC
EXTRN	__imp_?ScaleActualSize@ioEffect@@QAEXM@Z:PROC
EXTRN	?AttachEffect@ioBaseChar@@QAEPAVioEffect@@ABVioHashString@@PAVioEntityEvent@@_N@Z:PROC ; ioBaseChar::AttachEffect
; Function compile flags: /Ogsp
;	COMDAT ?ChangeWeaponScale@ioSuperDimensionItem@@IAEXPAVioBaseChar@@M@Z
_TEXT	SEGMENT
_pOwner$ = 8						; size = 4
_fScale$ = 12						; size = 4
?ChangeWeaponScale@ioSuperDimensionItem@@IAEXPAVioBaseChar@@M@Z PROC ; ioSuperDimensionItem::ChangeWeaponScale, COMDAT
; _this$ = ecx

; 1874 : {

  00000	55		 push	 ebp
  00001	8b ec		 mov	 ebp, esp
  00003	53		 push	 ebx
  00004	56		 push	 esi
  00005	57		 push	 edi

; 1875 : 	pOwner->EndEffect(m_dwEffect1, false );

  00006	8b 7d 08	 mov	 edi, DWORD PTR _pOwner$[ebp]
  00009	8b f1		 mov	 esi, ecx
  0000b	6a 00		 push	 0
  0000d	ff b6 58 1a 00
	00		 push	 DWORD PTR [esi+6744]
  00013	8b cf		 mov	 ecx, edi
  00015	e8 00 00 00 00	 call	 ?EndEffect@ioBaseChar@@QAEXK_N@Z ; ioBaseChar::EndEffect

; 1876 : 	pOwner->EndEffect(m_dwEffect2, false );

  0001a	6a 00		 push	 0
  0001c	ff b6 6c 1a 00
	00		 push	 DWORD PTR [esi+6764]
  00022	8b cf		 mov	 ecx, edi
  00024	e8 00 00 00 00	 call	 ?EndEffect@ioBaseChar@@QAEXK_N@Z ; ioBaseChar::EndEffect

; 1877 : 
; 1878 : 	if( !m_stNormalMeshName.IsEmpty() )

  00029	8d 9e 70 1a 00
	00		 lea	 ebx, DWORD PTR [esi+6768]
  0002f	8b cb		 mov	 ecx, ebx
  00031	ff 15 00 00 00
	00		 call	 DWORD PTR __imp_?IsEmpty@ioHashString@@QBE_NXZ
  00037	84 c0		 test	 al, al
  00039	75 08		 jne	 SHORT $LN7@ChangeWeap

; 1879 : 		pOwner->DestroyEntity( m_stNormalMeshName );

  0003b	8b 07		 mov	 eax, DWORD PTR [edi]
  0003d	53		 push	 ebx
  0003e	8b cf		 mov	 ecx, edi
  00040	ff 50 30	 call	 DWORD PTR [eax+48]
$LN7@ChangeWeap:

; 1880 : 
; 1881 : 	if( !m_stExtraMeshName.IsEmpty() )

  00043	8d 9e 80 1a 00
	00		 lea	 ebx, DWORD PTR [esi+6784]
  00049	8b cb		 mov	 ecx, ebx
  0004b	ff 15 00 00 00
	00		 call	 DWORD PTR __imp_?IsEmpty@ioHashString@@QBE_NXZ
  00051	84 c0		 test	 al, al
  00053	75 08		 jne	 SHORT $LN6@ChangeWeap

; 1882 : 		pOwner->DestroyEntity( m_stExtraMeshName );

  00055	8b 07		 mov	 eax, DWORD PTR [edi]
  00057	53		 push	 ebx
  00058	8b cf		 mov	 ecx, edi
  0005a	ff 50 30	 call	 DWORD PTR [eax+48]
$LN6@ChangeWeap:

; 1883 : 
; 1884 : 	if( !m_stExtraMeshName.IsEmpty() )

  0005d	8b cb		 mov	 ecx, ebx
  0005f	ff 15 00 00 00
	00		 call	 DWORD PTR __imp_?IsEmpty@ioHashString@@QBE_NXZ
  00065	84 c0		 test	 al, al
  00067	75 08		 jne	 SHORT $LN5@ChangeWeap

; 1885 : 		pOwner->AddEntity( m_stExtraMeshName );

  00069	8b 07		 mov	 eax, DWORD PTR [edi]
  0006b	53		 push	 ebx
  0006c	8b cf		 mov	 ecx, edi
  0006e	ff 50 2c	 call	 DWORD PTR [eax+44]
$LN5@ChangeWeap:

; 1886 : 
; 1887 : 	if( !m_stWeaponEffec1.IsEmpty() )

  00071	8d 9e 48 1a 00
	00		 lea	 ebx, DWORD PTR [esi+6728]
  00077	8b cb		 mov	 ecx, ebx
  00079	ff 15 00 00 00
	00		 call	 DWORD PTR __imp_?IsEmpty@ioHashString@@QBE_NXZ
  0007f	84 c0		 test	 al, al
  00081	75 34		 jne	 SHORT $LN10@ChangeWeap

; 1888 : 	{
; 1889 : 		ioEffect *pEffect1 = pOwner->AttachEffect( m_stWeaponEffec1);

  00083	6a 01		 push	 1
  00085	6a 00		 push	 0
  00087	53		 push	 ebx
  00088	8b cf		 mov	 ecx, edi
  0008a	e8 00 00 00 00	 call	 ?AttachEffect@ioBaseChar@@QAEPAVioEffect@@ABVioHashString@@PAVioEntityEvent@@_N@Z ; ioBaseChar::AttachEffect
  0008f	8b d8		 mov	 ebx, eax

; 1890 : 		if( pEffect1 )

  00091	85 db		 test	 ebx, ebx
  00093	74 22		 je	 SHORT $LN10@ChangeWeap

; 1891 : 		{
; 1892 : 			pEffect1->ScaleActualSize( fScale );

  00095	f3 0f 10 45 0c	 movss	 xmm0, DWORD PTR _fScale$[ebp]
  0009a	51		 push	 ecx
  0009b	8b cb		 mov	 ecx, ebx
  0009d	f3 0f 11 04 24	 movss	 DWORD PTR [esp], xmm0
  000a2	ff 15 00 00 00
	00		 call	 DWORD PTR __imp_?ScaleActualSize@ioEffect@@QAEXM@Z

; 1893 : 			m_dwEffect1 = pEffect1->GetUniqueID();

  000a8	8d 4b 14	 lea	 ecx, DWORD PTR [ebx+20]
  000ab	ff 15 00 00 00
	00		 call	 DWORD PTR __imp_?GetUniqueID@ioMovableObject@@QBEKXZ
  000b1	89 86 58 1a 00
	00		 mov	 DWORD PTR [esi+6744], eax
$LN10@ChangeWeap:

; 1894 : 		}
; 1895 : 	}
; 1896 : 
; 1897 : 	if( !m_stWeaponEffec2.IsEmpty() )

  000b7	8d 8e 5c 1a 00
	00		 lea	 ecx, DWORD PTR [esi+6748]
  000bd	ff 15 00 00 00
	00		 call	 DWORD PTR __imp_?IsEmpty@ioHashString@@QBE_NXZ
  000c3	84 c0		 test	 al, al
  000c5	75 3a		 jne	 SHORT $LN1@ChangeWeap

; 1898 : 	{
; 1899 : 		ioEffect *pEffect2 = pOwner->AttachEffect( m_stWeaponEffec1);

  000c7	6a 01		 push	 1
  000c9	6a 00		 push	 0
  000cb	8d 86 48 1a 00
	00		 lea	 eax, DWORD PTR [esi+6728]
  000d1	50		 push	 eax
  000d2	8b cf		 mov	 ecx, edi
  000d4	e8 00 00 00 00	 call	 ?AttachEffect@ioBaseChar@@QAEPAVioEffect@@ABVioHashString@@PAVioEntityEvent@@_N@Z ; ioBaseChar::AttachEffect
  000d9	8b f8		 mov	 edi, eax

; 1900 : 		if( pEffect2 )

  000db	85 ff		 test	 edi, edi
  000dd	74 22		 je	 SHORT $LN1@ChangeWeap

; 1901 : 		{
; 1902 : 			pEffect2->ScaleActualSize( fScale );

  000df	f3 0f 10 45 0c	 movss	 xmm0, DWORD PTR _fScale$[ebp]
  000e4	51		 push	 ecx
  000e5	8b cf		 mov	 ecx, edi
  000e7	f3 0f 11 04 24	 movss	 DWORD PTR [esp], xmm0
  000ec	ff 15 00 00 00
	00		 call	 DWORD PTR __imp_?ScaleActualSize@ioEffect@@QAEXM@Z

; 1903 : 			m_dwEffect2 = pEffect2->GetUniqueID();

  000f2	8d 4f 14	 lea	 ecx, DWORD PTR [edi+20]
  000f5	ff 15 00 00 00
	00		 call	 DWORD PTR __imp_?GetUniqueID@ioMovableObject@@QBEKXZ
  000fb	89 86 6c 1a 00
	00		 mov	 DWORD PTR [esi+6764], eax
$LN1@ChangeWeap:
  00101	5f		 pop	 edi
  00102	5e		 pop	 esi
  00103	5b		 pop	 ebx

; 1904 : 		}
; 1905 : 	}
; 1906 : }

  00104	5d		 pop	 ebp
  00105	c2 08 00	 ret	 8
?ChangeWeaponScale@ioSuperDimensionItem@@IAEXPAVioBaseChar@@M@Z ENDP ; ioSuperDimensionItem::ChangeWeaponScale
_TEXT	ENDS
PUBLIC	??0D3DXVECTOR3@@QAE@XZ				; D3DXVECTOR3::D3DXVECTOR3
; Function compile flags: /Ogsp
; File c:\program files (x86)\microsoft directx sdk (june 2010)\include\d3dx9math.h
;	COMDAT ??0D3DXVECTOR3@@QAE@XZ
_TEXT	SEGMENT
??0D3DXVECTOR3@@QAE@XZ PROC				; D3DXVECTOR3::D3DXVECTOR3, COMDAT
; _this$ = ecx

; 165  :     D3DXVECTOR3() {};

  00000	8b c1		 mov	 eax, ecx
  00002	c3		 ret	 0
??0D3DXVECTOR3@@QAE@XZ ENDP				; D3DXVECTOR3::D3DXVECTOR3
_TEXT	ENDS
PUBLIC	??0D3DXQUATERNION@@QAE@XZ			; D3DXQUATERNION::D3DXQUATERNION
; Function compile flags: /Ogsp
;	COMDAT ??0D3DXQUATERNION@@QAE@XZ
_TEXT	SEGMENT
??0D3DXQUATERNION@@QAE@XZ PROC				; D3DXQUATERNION::D3DXQUATERNION, COMDAT
; _this$ = ecx

; 429  :     D3DXQUATERNION() {}

  00000	8b c1		 mov	 eax, ecx
  00002	c3		 ret	 0
??0D3DXQUATERNION@@QAE@XZ ENDP				; D3DXQUATERNION::D3DXQUATERNION
_TEXT	ENDS
PUBLIC	?IsEnableTargetState@ioSuperDimensionItem@@IAE_NPAVioBaseChar@@@Z ; ioSuperDimensionItem::IsEnableTargetState
EXTRN	?CheckTargetWoundType@ioBaseChar@@QAE_NW4TargetWoundType@@@Z:PROC ; ioBaseChar::CheckTargetWoundType
; Function compile flags: /Ogsp
; File d:\lost saga for developer\youtube\tutorial\source\src\lsclient\iosuperdimensionitem.cpp
;	COMDAT ?IsEnableTargetState@ioSuperDimensionItem@@IAE_NPAVioBaseChar@@@Z
_TEXT	SEGMENT
_pTarget$ = 8						; size = 4
?IsEnableTargetState@ioSuperDimensionItem@@IAE_NPAVioBaseChar@@@Z PROC ; ioSuperDimensionItem::IsEnableTargetState, COMDAT
; _this$ = ecx

; 2091 : {

  00000	55		 push	 ebp
  00001	8b ec		 mov	 ebp, esp
  00003	56		 push	 esi

; 2092 : 	if( !pTarget )

  00004	8b 75 08	 mov	 esi, DWORD PTR _pTarget$[ebp]
  00007	57		 push	 edi
  00008	8b f9		 mov	 edi, ecx
  0000a	85 f6		 test	 esi, esi
  0000c	75 04		 jne	 SHORT $LN4@IsEnableTa@2
$LN7@IsEnableTa@2:

; 2093 : 		return false;

  0000e	32 c0		 xor	 al, al
  00010	eb 2c		 jmp	 SHORT $LN1@IsEnableTa@2
$LN4@IsEnableTa@2:

; 2094 : 
; 2095 : 	if( pTarget->IsSystemState() )

  00012	8b ce		 mov	 ecx, esi
  00014	e8 00 00 00 00	 call	 ?IsSystemState@ioBaseChar@@QAE_NXZ ; ioBaseChar::IsSystemState
  00019	84 c0		 test	 al, al

; 2096 : 		return false;

  0001b	75 f1		 jne	 SHORT $LN7@IsEnableTa@2

; 2097 : 
; 2098 : 	if( !pTarget->IsEnableTarget() )

  0001d	6a 01		 push	 1
  0001f	6a 01		 push	 1
  00021	8b ce		 mov	 ecx, esi
  00023	e8 00 00 00 00	 call	 ?IsEnableTarget@ioBaseChar@@QAE_N_N0@Z ; ioBaseChar::IsEnableTarget
  00028	84 c0		 test	 al, al

; 2099 : 		return false;

  0002a	74 e2		 je	 SHORT $LN7@IsEnableTa@2

; 2100 : 
; 2101 : 	//   
; 2102 : 	if( !pTarget->CheckTargetWoundType( m_SpecialDashInfo.m_TargetWoundType ) )

  0002c	ff b7 ac 1a 00
	00		 push	 DWORD PTR [edi+6828]
  00032	8b ce		 mov	 ecx, esi
  00034	e8 00 00 00 00	 call	 ?CheckTargetWoundType@ioBaseChar@@QAE_NW4TargetWoundType@@@Z ; ioBaseChar::CheckTargetWoundType
  00039	84 c0		 test	 al, al
  0003b	0f 95 c0	 setne	 al
$LN1@IsEnableTa@2:
  0003e	5f		 pop	 edi
  0003f	5e		 pop	 esi

; 2103 : 		return false;
; 2104 : 
; 2105 : 	return true;
; 2106 : }

  00040	5d		 pop	 ebp
  00041	c2 04 00	 ret	 4
?IsEnableTargetState@ioSuperDimensionItem@@IAE_NPAVioBaseChar@@@Z ENDP ; ioSuperDimensionItem::IsEnableTargetState
_TEXT	ENDS
PUBLIC	?GetExtraEffectName@ioSuperDimensionItem@@QAEABVioHashString@@XZ ; ioSuperDimensionItem::GetExtraEffectName
; Function compile flags: /Ogsp
;	COMDAT ?GetExtraEffectName@ioSuperDimensionItem@@QAEABVioHashString@@XZ
_TEXT	SEGMENT
?GetExtraEffectName@ioSuperDimensionItem@@QAEABVioHashString@@XZ PROC ; ioSuperDimensionItem::GetExtraEffectName, COMDAT
; _this$ = ecx

; 2201 : 	return m_stWeaponEffec1;

  00000	8d 81 48 1a 00
	00		 lea	 eax, DWORD PTR [ecx+6728]

; 2202 : }

  00006	c3		 ret	 0
?GetExtraEffectName@ioSuperDimensionItem@@QAEABVioHashString@@XZ ENDP ; ioSuperDimensionItem::GetExtraEffectName
_TEXT	ENDS
PUBLIC	?CheckReserve@ioSuperDimensionItem@@UAEXPAVioBaseChar@@@Z ; ioSuperDimensionItem::CheckReserve
EXTRN	?IsJumpKey@ioBaseChar@@QBE_NXZ:PROC		; ioBaseChar::IsJumpKey
EXTRN	?IsAttackKey@ioBaseChar@@QBE_NXZ:PROC		; ioBaseChar::IsAttackKey
EXTRN	?IsDefenseKeyDown@ioBaseChar@@QBE_NXZ:PROC	; ioBaseChar::IsDefenseKeyDown
EXTRN	?GetSkillKeyInput@ioBaseChar@@QAEHXZ:PROC	; ioBaseChar::GetSkillKeyInput
; Function compile flags: /Ogsp
;	COMDAT ?CheckReserve@ioSuperDimensionItem@@UAEXPAVioBaseChar@@@Z
_TEXT	SEGMENT
_bReserveSkill$ = -1					; size = 1
_pOwner$ = 8						; size = 4
?CheckReserve@ioSuperDimensionItem@@UAEXPAVioBaseChar@@@Z PROC ; ioSuperDimensionItem::CheckReserve, COMDAT
; _this$ = ecx

; 2217 : {

  00000	55		 push	 ebp
  00001	8b ec		 mov	 ebp, esp
  00003	51		 push	 ecx
  00004	53		 push	 ebx
  00005	56		 push	 esi
  00006	57		 push	 edi

; 2218 : 	bool bReserveSkill = false;
; 2219 : 	int iSkillNum = pOwner->GetSkillKeyInput();

  00007	8b 7d 08	 mov	 edi, DWORD PTR _pOwner$[ebp]
  0000a	8b f1		 mov	 esi, ecx
  0000c	33 db		 xor	 ebx, ebx
  0000e	8b cf		 mov	 ecx, edi
  00010	88 5d ff	 mov	 BYTE PTR _bReserveSkill$[ebp], bl
  00013	e8 00 00 00 00	 call	 ?GetSkillKeyInput@ioBaseChar@@QAEHXZ ; ioBaseChar::GetSkillKeyInput

; 2220 : 	if( iSkillNum >= 0 )

  00018	3b c3		 cmp	 eax, ebx
  0001a	7c 0a		 jl	 SHORT $LN6@CheckReser

; 2221 : 	{
; 2222 : 		m_iSkillInput = iSkillNum;

  0001c	89 86 fc 0e 00
	00		 mov	 DWORD PTR [esi+3836], eax

; 2223 : 		bReserveSkill = true;

  00022	c6 45 ff 01	 mov	 BYTE PTR _bReserveSkill$[ebp], 1
$LN6@CheckReser:

; 2224 : 	}
; 2225 : 
; 2226 : 	if( pOwner->IsDefenseKeyDown() && !m_bEnableDefenseState && !bReserveSkill )

  00026	8b cf		 mov	 ecx, edi
  00028	e8 00 00 00 00	 call	 ?IsDefenseKeyDown@ioBaseChar@@QBE_NXZ ; ioBaseChar::IsDefenseKeyDown
  0002d	84 c0		 test	 al, al
  0002f	74 1e		 je	 SHORT $LN5@CheckReser
  00031	38 9e 00 0f 00
	00		 cmp	 BYTE PTR [esi+3840], bl
  00037	75 16		 jne	 SHORT $LN5@CheckReser
  00039	38 5d ff	 cmp	 BYTE PTR _bReserveSkill$[ebp], bl
  0003c	75 11		 jne	 SHORT $LN5@CheckReser

; 2227 : 	{
; 2228 : 		m_bEnableDefenseState = true;

  0003e	66 c7 86 00 0f
	00 00 01 00	 mov	 WORD PTR [esi+3840], 1
$LN10@CheckReser:

; 2229 : 		m_bEnableAttackState = false;
; 2230 : 		m_bEnableJumpState = false;

  00047	88 9e 02 0f 00
	00		 mov	 BYTE PTR [esi+3842], bl

; 2231 : 
; 2232 : 		m_iSkillInput = -1;

  0004d	eb 4a		 jmp	 SHORT $LN9@CheckReser
$LN5@CheckReser:

; 2233 : 	}
; 2234 : 	else if( pOwner->IsAttackKey() && !m_bEnableAttackState && !bReserveSkill )

  0004f	8b cf		 mov	 ecx, edi
  00051	e8 00 00 00 00	 call	 ?IsAttackKey@ioBaseChar@@QBE_NXZ ; ioBaseChar::IsAttackKey
  00056	84 c0		 test	 al, al
  00058	74 18		 je	 SHORT $LN3@CheckReser
  0005a	38 9e 01 0f 00
	00		 cmp	 BYTE PTR [esi+3841], bl
  00060	75 10		 jne	 SHORT $LN3@CheckReser
  00062	38 5d ff	 cmp	 BYTE PTR _bReserveSkill$[ebp], bl
  00065	75 0b		 jne	 SHORT $LN3@CheckReser

; 2235 : 	{
; 2236 : 		m_bEnableAttackState = true;

  00067	66 c7 86 00 0f
	00 00 00 01	 mov	 WORD PTR [esi+3840], 256 ; 00000100H

; 2237 : 		m_bEnableDefenseState = false;
; 2238 : 		m_bEnableJumpState = false;
; 2239 : 
; 2240 : 		m_iSkillInput = -1;

  00070	eb d5		 jmp	 SHORT $LN10@CheckReser
$LN3@CheckReser:

; 2241 : 	}
; 2242 : 	else if( pOwner->IsJumpKey() && !m_bEnableJumpState && !bReserveSkill )

  00072	8b cf		 mov	 ecx, edi
  00074	e8 00 00 00 00	 call	 ?IsJumpKey@ioBaseChar@@QBE_NXZ ; ioBaseChar::IsJumpKey
  00079	84 c0		 test	 al, al
  0007b	74 23		 je	 SHORT $LN1@CheckReser
  0007d	38 9e 02 0f 00
	00		 cmp	 BYTE PTR [esi+3842], bl
  00083	75 1b		 jne	 SHORT $LN1@CheckReser
  00085	38 5d ff	 cmp	 BYTE PTR _bReserveSkill$[ebp], bl
  00088	75 16		 jne	 SHORT $LN1@CheckReser

; 2243 : 	{
; 2244 : 		m_bEnableJumpState = true;

  0008a	66 c7 86 01 0f
	00 00 00 01	 mov	 WORD PTR [esi+3841], 256 ; 00000100H

; 2245 : 		m_bEnableAttackState = false;
; 2246 : 		m_bEnableDefenseState = false;

  00093	88 9e 00 0f 00
	00		 mov	 BYTE PTR [esi+3840], bl
$LN9@CheckReser:

; 2247 : 		m_iSkillInput = -1;

  00099	83 8e fc 0e 00
	00 ff		 or	 DWORD PTR [esi+3836], -1
$LN1@CheckReser:
  000a0	5f		 pop	 edi
  000a1	5e		 pop	 esi
  000a2	5b		 pop	 ebx

; 2248 : 	}
; 2249 : }

  000a3	c9		 leave
  000a4	c2 04 00	 ret	 4
?CheckReserve@ioSuperDimensionItem@@UAEXPAVioBaseChar@@@Z ENDP ; ioSuperDimensionItem::CheckReserve
_TEXT	ENDS
PUBLIC	??0D3DXVECTOR3@@QAE@MMM@Z			; D3DXVECTOR3::D3DXVECTOR3
; Function compile flags: /Ogsp
; File c:\program files (x86)\microsoft directx sdk (june 2010)\include\d3dx9math.inl
;	COMDAT ??0D3DXVECTOR3@@QAE@MMM@Z
_TEXT	SEGMENT
_fx$ = 8						; size = 4
_fy$ = 12						; size = 4
_fz$ = 16						; size = 4
??0D3DXVECTOR3@@QAE@MMM@Z PROC				; D3DXVECTOR3::D3DXVECTOR3, COMDAT
; _this$ = ecx

; 303  : {

  00000	55		 push	 ebp
  00001	8b ec		 mov	 ebp, esp

; 304  :     x = fx;

  00003	f3 0f 10 45 08	 movss	 xmm0, DWORD PTR _fx$[ebp]
  00008	8b c1		 mov	 eax, ecx
  0000a	f3 0f 11 00	 movss	 DWORD PTR [eax], xmm0

; 305  :     y = fy;

  0000e	f3 0f 10 45 0c	 movss	 xmm0, DWORD PTR _fy$[ebp]
  00013	f3 0f 11 40 04	 movss	 DWORD PTR [eax+4], xmm0

; 306  :     z = fz;

  00018	f3 0f 10 45 10	 movss	 xmm0, DWORD PTR _fz$[ebp]
  0001d	f3 0f 11 40 08	 movss	 DWORD PTR [eax+8], xmm0

; 307  : }

  00022	5d		 pop	 ebp
  00023	c2 0c 00	 ret	 12			; 0000000cH
??0D3DXVECTOR3@@QAE@MMM@Z ENDP				; D3DXVECTOR3::D3DXVECTOR3
_TEXT	ENDS
PUBLIC	??YD3DXVECTOR3@@QAEAAU0@ABU0@@Z			; D3DXVECTOR3::operator+=
; Function compile flags: /Ogsp
;	COMDAT ??YD3DXVECTOR3@@QAEAAU0@ABU0@@Z
_TEXT	SEGMENT
_v$ = 8							; size = 4
??YD3DXVECTOR3@@QAEAAU0@ABU0@@Z PROC			; D3DXVECTOR3::operator+=, COMDAT
; _this$ = ecx

; 327  : {

  00000	55		 push	 ebp
  00001	8b ec		 mov	 ebp, esp
  00003	8b c1		 mov	 eax, ecx

; 328  :     x += v.x;

  00005	8b 4d 08	 mov	 ecx, DWORD PTR _v$[ebp]
  00008	f3 0f 10 01	 movss	 xmm0, DWORD PTR [ecx]
  0000c	f3 0f 10 08	 movss	 xmm1, DWORD PTR [eax]
  00010	0f 5a c0	 cvtps2pd xmm0, xmm0
  00013	0f 5a c9	 cvtps2pd xmm1, xmm1
  00016	f2 0f 58 c1	 addsd	 xmm0, xmm1

; 329  :     y += v.y;

  0001a	f3 0f 10 48 04	 movss	 xmm1, DWORD PTR [eax+4]
  0001f	66 0f 5a c0	 cvtpd2ps xmm0, xmm0
  00023	f3 0f 11 00	 movss	 DWORD PTR [eax], xmm0
  00027	f3 0f 10 41 04	 movss	 xmm0, DWORD PTR [ecx+4]
  0002c	0f 5a c0	 cvtps2pd xmm0, xmm0
  0002f	0f 5a c9	 cvtps2pd xmm1, xmm1
  00032	f2 0f 58 c1	 addsd	 xmm0, xmm1

; 330  :     z += v.z;

  00036	f3 0f 10 48 08	 movss	 xmm1, DWORD PTR [eax+8]
  0003b	66 0f 5a c0	 cvtpd2ps xmm0, xmm0
  0003f	f3 0f 11 40 04	 movss	 DWORD PTR [eax+4], xmm0
  00044	f3 0f 10 41 08	 movss	 xmm0, DWORD PTR [ecx+8]
  00049	0f 5a c0	 cvtps2pd xmm0, xmm0
  0004c	0f 5a c9	 cvtps2pd xmm1, xmm1
  0004f	f2 0f 58 c1	 addsd	 xmm0, xmm1
  00053	66 0f 5a c0	 cvtpd2ps xmm0, xmm0
  00057	f3 0f 11 40 08	 movss	 DWORD PTR [eax+8], xmm0

; 331  :     return *this;
; 332  : }

  0005c	5d		 pop	 ebp
  0005d	c2 04 00	 ret	 4
??YD3DXVECTOR3@@QAEAAU0@ABU0@@Z ENDP			; D3DXVECTOR3::operator+=
_TEXT	ENDS
PUBLIC	??_7ioSuperDimensionFireSpecialState@@6B@	; ioSuperDimensionFireSpecialState::`vftable'
PUBLIC	??0ioSuperDimensionFireSpecialState@@QAE@XZ	; ioSuperDimensionFireSpecialState::ioSuperDimensionFireSpecialState
PUBLIC	??_R4ioSuperDimensionFireSpecialState@@6B@	; ioSuperDimensionFireSpecialState::`RTTI Complete Object Locator'
PUBLIC	??_R0?AVioSuperDimensionFireSpecialState@@@8	; ioSuperDimensionFireSpecialState `RTTI Type Descriptor'
PUBLIC	??_R3ioSuperDimensionFireSpecialState@@8	; ioSuperDimensionFireSpecialState::`RTTI Class Hierarchy Descriptor'
PUBLIC	??_R2ioSuperDimensionFireSpecialState@@8	; ioSuperDimensionFireSpecialState::`RTTI Base Class Array'
PUBLIC	??_R1A@?0A@EA@ioSuperDimensionFireSpecialState@@8 ; ioSuperDimensionFireSpecialState::`RTTI Base Class Descriptor at (0,-1,0,64)'
PUBLIC	??_R1A@?0A@EA@ioSpecialStateBase@@8		; ioSpecialStateBase::`RTTI Base Class Descriptor at (0,-1,0,64)'
PUBLIC	??_R0?AVioSpecialStateBase@@@8			; ioSpecialStateBase `RTTI Type Descriptor'
PUBLIC	??_R3ioSpecialStateBase@@8			; ioSpecialStateBase::`RTTI Class Hierarchy Descriptor'
PUBLIC	??_R2ioSpecialStateBase@@8			; ioSpecialStateBase::`RTTI Base Class Array'
PUBLIC	?Initialize@ioSuperDimensionFireSpecialState@@UAEXPAVioBaseChar@@W4CharState@@@Z ; ioSuperDimensionFireSpecialState::Initialize
PUBLIC	?Finalize@ioSuperDimensionFireSpecialState@@UAEXPAVioBaseChar@@W4CharState@@1@Z ; ioSuperDimensionFireSpecialState::Finalize
PUBLIC	?LoadProperty@ioSpecialStateBase@@UAEXAAVioINILoader@@@Z ; ioSpecialStateBase::LoadProperty
PUBLIC	?GetStateName@ioSuperDimensionFireSpecialState@@UAEPBDXZ ; ioSuperDimensionFireSpecialState::GetStateName
PUBLIC	?GetState@ioSuperDimensionFireSpecialState@@UAE?BW4CharState@@XZ ; ioSuperDimensionFireSpecialState::GetState
PUBLIC	?GetAttackSpeedRate@ioSpecialStateBase@@UAEMPAVioBaseChar@@M@Z ; ioSpecialStateBase::GetAttackSpeedRate
PUBLIC	?CheckSpecialState@ioSuperDimensionFireSpecialState@@UAEXPAVioBaseChar@@@Z ; ioSuperDimensionFireSpecialState::CheckSpecialState
PUBLIC	?ProcessState@ioSpecialStateBase@@UAEXPAVioBaseChar@@@Z ; ioSpecialStateBase::ProcessState
PUBLIC	?ProcessMoveSpeed@ioSpecialStateBase@@UAEXPAVioBaseChar@@@Z ; ioSpecialStateBase::ProcessMoveSpeed
PUBLIC	?ProcessMove@ioSuperDimensionFireSpecialState@@UAE_NPAVioBaseChar@@MKK@Z ; ioSuperDimensionFireSpecialState::ProcessMove
PUBLIC	?IsCanNoWound@ioSpecialStateBase@@UAE_NPAVioBaseChar@@@Z ; ioSpecialStateBase::IsCanNoWound
PUBLIC	?IsCollisionAvailableWeapon@ioSpecialStateBase@@UAE_NPAVioBaseChar@@PAVioWeapon@@@Z ; ioSpecialStateBase::IsCollisionAvailableWeapon
PUBLIC	?IsEntityCollisionSkipState@ioSpecialStateBase@@UBE_NQBVioBaseChar@@PAVioGameEntity@@@Z ; ioSpecialStateBase::IsEntityCollisionSkipState
PUBLIC	?IsSendControlInfoToUser@ioSuperDimensionFireSpecialState@@UAE_NPAVioBaseChar@@@Z ; ioSuperDimensionFireSpecialState::IsSendControlInfoToUser
PUBLIC	?IsIgnoreAttackOverDelay@ioSpecialStateBase@@UAE_NXZ ; ioSpecialStateBase::IsIgnoreAttackOverDelay
PUBLIC	?IsLandingEnable@ioSuperDimensionFireSpecialState@@UAE_NXZ ; ioSuperDimensionFireSpecialState::IsLandingEnable
PUBLIC	?IsFallStateCheck@ioSpecialStateBase@@UAE_NXZ	; ioSpecialStateBase::IsFallStateCheck
PUBLIC	?IsEnableBlowWounded@ioSpecialStateBase@@UAE_NPAVioBaseChar@@@Z ; ioSpecialStateBase::IsEnableBlowWounded
PUBLIC	?IsNoDropState@ioSuperDimensionFireSpecialState@@UAE_NPAVioBaseChar@@@Z ; ioSuperDimensionFireSpecialState::IsNoDropState
PUBLIC	?GetGravity@ioSuperDimensionFireSpecialState@@UAEXPAVioBaseChar@@AAM@Z ; ioSuperDimensionFireSpecialState::GetGravity
PUBLIC	?IsCanChangeJumppingState@ioSpecialStateBase@@UAE_NPAVioBaseChar@@@Z ; ioSpecialStateBase::IsCanChangeJumppingState
PUBLIC	?IsEnableDashState@ioSpecialStateBase@@UAE_NPAVioBaseChar@@@Z ; ioSpecialStateBase::IsEnableDashState
PUBLIC	?IsStateEnd@ioSpecialStateBase@@UAE_NPAVioBaseChar@@@Z ; ioSpecialStateBase::IsStateEnd
PUBLIC	?IsProcessFlyMove@ioSpecialStateBase@@UAE_NXZ	; ioSpecialStateBase::IsProcessFlyMove
PUBLIC	?IsFloatingState@ioSpecialStateBase@@UBE_NQBVioBaseChar@@@Z ; ioSpecialStateBase::IsFloatingState
PUBLIC	?IsInitializeSync@ioSpecialStateBase@@UAE_NXZ	; ioSpecialStateBase::IsInitializeSync
PUBLIC	?IsJoinSync@ioSpecialStateBase@@UAE_NXZ		; ioSpecialStateBase::IsJoinSync
PUBLIC	?CheckFallStateChange@ioSuperDimensionFireSpecialState@@UAEXPAVioBaseChar@@MM_NM@Z ; ioSuperDimensionFireSpecialState::CheckFallStateChange
EXTRN	??0ioSpecialStateBase@@QAE@XZ:PROC		; ioSpecialStateBase::ioSpecialStateBase
EXTRN	?ProcessKeyInput@ioSpecialStateBase@@UAEXPAVioBaseChar@@@Z:PROC ; ioSpecialStateBase::ProcessKeyInput
EXTRN	?IsCharCollisionSkipState@ioSpecialStateBase@@UBE_NQBVioBaseChar@@KKK_N1W4TeamType@@2@Z:PROC ; ioSpecialStateBase::IsCharCollisionSkipState
EXTRN	?FillJoinSync@ioSpecialStateBase@@UAEXAAVSP2Packet@@PAVioBaseChar@@@Z:PROC ; ioSpecialStateBase::FillJoinSync
EXTRN	?ApplyJoinSync@ioSpecialStateBase@@UAEXAAVSP2Packet@@PAVioBaseChar@@@Z:PROC ; ioSpecialStateBase::ApplyJoinSync
EXTRN	?ApplyStateSync@ioSpecialStateBase@@UAEXAAVSP2Packet@@PAVioBaseChar@@@Z:PROC ; ioSpecialStateBase::ApplyStateSync
EXTRN	??_EioSuperDimensionFireSpecialState@@UAEPAXI@Z:PROC ; ioSuperDimensionFireSpecialState::`vector deleting destructor'
;	COMDAT ??_R2ioSpecialStateBase@@8
; File d:\lost saga for developer\youtube\tutorial\source\src\lsclient\iosuperdimensionitem.cpp
rdata$r	SEGMENT
??_R2ioSpecialStateBase@@8 DD FLAT:??_R1A@?0A@EA@ioSpecialStateBase@@8 ; ioSpecialStateBase::`RTTI Base Class Array'
rdata$r	ENDS
;	COMDAT ??_R3ioSpecialStateBase@@8
rdata$r	SEGMENT
??_R3ioSpecialStateBase@@8 DD 00H			; ioSpecialStateBase::`RTTI Class Hierarchy Descriptor'
	DD	00H
	DD	01H
	DD	FLAT:??_R2ioSpecialStateBase@@8
rdata$r	ENDS
;	COMDAT ??_R0?AVioSpecialStateBase@@@8
_DATA	SEGMENT
??_R0?AVioSpecialStateBase@@@8 DD FLAT:??_7type_info@@6B@ ; ioSpecialStateBase `RTTI Type Descriptor'
	DD	00H
	DB	'.?AVioSpecialStateBase@@', 00H
_DATA	ENDS
;	COMDAT ??_R1A@?0A@EA@ioSpecialStateBase@@8
rdata$r	SEGMENT
??_R1A@?0A@EA@ioSpecialStateBase@@8 DD FLAT:??_R0?AVioSpecialStateBase@@@8 ; ioSpecialStateBase::`RTTI Base Class Descriptor at (0,-1,0,64)'
	DD	00H
	DD	00H
	DD	0ffffffffH
	DD	00H
	DD	040H
	DD	FLAT:??_R3ioSpecialStateBase@@8
rdata$r	ENDS
;	COMDAT ??_R1A@?0A@EA@ioSuperDimensionFireSpecialState@@8
rdata$r	SEGMENT
??_R1A@?0A@EA@ioSuperDimensionFireSpecialState@@8 DD FLAT:??_R0?AVioSuperDimensionFireSpecialState@@@8 ; ioSuperDimensionFireSpecialState::`RTTI Base Class Descriptor at (0,-1,0,64)'
	DD	01H
	DD	00H
	DD	0ffffffffH
	DD	00H
	DD	040H
	DD	FLAT:??_R3ioSuperDimensionFireSpecialState@@8
rdata$r	ENDS
;	COMDAT ??_R2ioSuperDimensionFireSpecialState@@8
rdata$r	SEGMENT
??_R2ioSuperDimensionFireSpecialState@@8 DD FLAT:??_R1A@?0A@EA@ioSuperDimensionFireSpecialState@@8 ; ioSuperDimensionFireSpecialState::`RTTI Base Class Array'
	DD	FLAT:??_R1A@?0A@EA@ioSpecialStateBase@@8
rdata$r	ENDS
;	COMDAT ??_R3ioSuperDimensionFireSpecialState@@8
rdata$r	SEGMENT
??_R3ioSuperDimensionFireSpecialState@@8 DD 00H		; ioSuperDimensionFireSpecialState::`RTTI Class Hierarchy Descriptor'
	DD	00H
	DD	02H
	DD	FLAT:??_R2ioSuperDimensionFireSpecialState@@8
rdata$r	ENDS
;	COMDAT ??_R0?AVioSuperDimensionFireSpecialState@@@8
_DATA	SEGMENT
??_R0?AVioSuperDimensionFireSpecialState@@@8 DD FLAT:??_7type_info@@6B@ ; ioSuperDimensionFireSpecialState `RTTI Type Descriptor'
	DD	00H
	DB	'.?AVioSuperDimensionFireSpecialState@@', 00H
_DATA	ENDS
;	COMDAT ??_R4ioSuperDimensionFireSpecialState@@6B@
rdata$r	SEGMENT
??_R4ioSuperDimensionFireSpecialState@@6B@ DD 00H	; ioSuperDimensionFireSpecialState::`RTTI Complete Object Locator'
	DD	00H
	DD	00H
	DD	FLAT:??_R0?AVioSuperDimensionFireSpecialState@@@8
	DD	FLAT:??_R3ioSuperDimensionFireSpecialState@@8
rdata$r	ENDS
;	COMDAT ??_7ioSuperDimensionFireSpecialState@@6B@
CONST	SEGMENT
??_7ioSuperDimensionFireSpecialState@@6B@ DD FLAT:??_R4ioSuperDimensionFireSpecialState@@6B@ ; ioSuperDimensionFireSpecialState::`vftable'
	DD	FLAT:?Initialize@ioSuperDimensionFireSpecialState@@UAEXPAVioBaseChar@@W4CharState@@@Z
	DD	FLAT:?Finalize@ioSuperDimensionFireSpecialState@@UAEXPAVioBaseChar@@W4CharState@@1@Z
	DD	FLAT:?LoadProperty@ioSpecialStateBase@@UAEXAAVioINILoader@@@Z
	DD	FLAT:?GetStateName@ioSuperDimensionFireSpecialState@@UAEPBDXZ
	DD	FLAT:?GetState@ioSuperDimensionFireSpecialState@@UAE?BW4CharState@@XZ
	DD	FLAT:?GetAttackSpeedRate@ioSpecialStateBase@@UAEMPAVioBaseChar@@M@Z
	DD	FLAT:?CheckSpecialState@ioSuperDimensionFireSpecialState@@UAEXPAVioBaseChar@@@Z
	DD	FLAT:?ProcessState@ioSpecialStateBase@@UAEXPAVioBaseChar@@@Z
	DD	FLAT:?ProcessMoveSpeed@ioSpecialStateBase@@UAEXPAVioBaseChar@@@Z
	DD	FLAT:?ProcessMove@ioSuperDimensionFireSpecialState@@UAE_NPAVioBaseChar@@MKK@Z
	DD	FLAT:?ProcessKeyInput@ioSpecialStateBase@@UAEXPAVioBaseChar@@@Z
	DD	FLAT:?IsCanNoWound@ioSpecialStateBase@@UAE_NPAVioBaseChar@@@Z
	DD	FLAT:?IsCollisionAvailableWeapon@ioSpecialStateBase@@UAE_NPAVioBaseChar@@PAVioWeapon@@@Z
	DD	FLAT:?IsEntityCollisionSkipState@ioSpecialStateBase@@UBE_NQBVioBaseChar@@PAVioGameEntity@@@Z
	DD	FLAT:?IsCharCollisionSkipState@ioSpecialStateBase@@UBE_NQBVioBaseChar@@KKK_N1W4TeamType@@2@Z
	DD	FLAT:?IsSendControlInfoToUser@ioSuperDimensionFireSpecialState@@UAE_NPAVioBaseChar@@@Z
	DD	FLAT:?IsIgnoreAttackOverDelay@ioSpecialStateBase@@UAE_NXZ
	DD	FLAT:?IsLandingEnable@ioSuperDimensionFireSpecialState@@UAE_NXZ
	DD	FLAT:?IsFallStateCheck@ioSpecialStateBase@@UAE_NXZ
	DD	FLAT:?IsEnableBlowWounded@ioSpecialStateBase@@UAE_NPAVioBaseChar@@@Z
	DD	FLAT:?IsNoDropState@ioSuperDimensionFireSpecialState@@UAE_NPAVioBaseChar@@@Z
	DD	FLAT:?GetGravity@ioSuperDimensionFireSpecialState@@UAEXPAVioBaseChar@@AAM@Z
	DD	FLAT:?IsCanChangeJumppingState@ioSpecialStateBase@@UAE_NPAVioBaseChar@@@Z
	DD	FLAT:?IsEnableDashState@ioSpecialStateBase@@UAE_NPAVioBaseChar@@@Z
	DD	FLAT:?IsStateEnd@ioSpecialStateBase@@UAE_NPAVioBaseChar@@@Z
	DD	FLAT:?IsProcessFlyMove@ioSpecialStateBase@@UAE_NXZ
	DD	FLAT:?IsFloatingState@ioSpecialStateBase@@UBE_NQBVioBaseChar@@@Z
	DD	FLAT:?IsInitializeSync@ioSpecialStateBase@@UAE_NXZ
	DD	FLAT:?IsJoinSync@ioSpecialStateBase@@UAE_NXZ
	DD	FLAT:?FillJoinSync@ioSpecialStateBase@@UAEXAAVSP2Packet@@PAVioBaseChar@@@Z
	DD	FLAT:?ApplyJoinSync@ioSpecialStateBase@@UAEXAAVSP2Packet@@PAVioBaseChar@@@Z
	DD	FLAT:?ApplyStateSync@ioSpecialStateBase@@UAEXAAVSP2Packet@@PAVioBaseChar@@@Z
	DD	FLAT:?CheckFallStateChange@ioSuperDimensionFireSpecialState@@UAEXPAVioBaseChar@@MM_NM@Z
	DD	FLAT:??_EioSuperDimensionFireSpecialState@@UAEPAXI@Z
; Function compile flags: /Ogsp
CONST	ENDS
;	COMDAT ??0ioSuperDimensionFireSpecialState@@QAE@XZ
_TEXT	SEGMENT
??0ioSuperDimensionFireSpecialState@@QAE@XZ PROC	; ioSuperDimensionFireSpecialState::ioSuperDimensionFireSpecialState, COMDAT
; _this$ = ecx

; 2254 : {

  00000	56		 push	 esi
  00001	8b f1		 mov	 esi, ecx
  00003	e8 00 00 00 00	 call	 ??0ioSpecialStateBase@@QAE@XZ ; ioSpecialStateBase::ioSpecialStateBase
  00008	c7 06 00 00 00
	00		 mov	 DWORD PTR [esi], OFFSET ??_7ioSuperDimensionFireSpecialState@@6B@

; 2255 : }

  0000e	8b c6		 mov	 eax, esi
  00010	5e		 pop	 esi
  00011	c3		 ret	 0
??0ioSuperDimensionFireSpecialState@@QAE@XZ ENDP	; ioSuperDimensionFireSpecialState::ioSuperDimensionFireSpecialState
; Function compile flags: /Ogsp
; File d:\lost saga for developer\youtube\tutorial\source\src\lsclient\iospecialstatebase.h
_TEXT	ENDS
;	COMDAT ?LoadProperty@ioSpecialStateBase@@UAEXAAVioINILoader@@@Z
_TEXT	SEGMENT
_rkLoader$ = 8						; size = 4
?LoadProperty@ioSpecialStateBase@@UAEXAAVioINILoader@@@Z PROC ; ioSpecialStateBase::LoadProperty, COMDAT
; _this$ = ecx

; 18   : 	virtual void LoadProperty( ioINILoader &rkLoader ){}

  00000	c2 04 00	 ret	 4
?LoadProperty@ioSpecialStateBase@@UAEXAAVioINILoader@@@Z ENDP ; ioSpecialStateBase::LoadProperty
; Function compile flags: /Ogsp
_TEXT	ENDS
;	COMDAT ?GetAttackSpeedRate@ioSpecialStateBase@@UAEMPAVioBaseChar@@M@Z
_TEXT	SEGMENT
_pOwner$ = 8						; size = 4
_fMaxSpeed$ = 12					; size = 4
?GetAttackSpeedRate@ioSpecialStateBase@@UAEMPAVioBaseChar@@M@Z PROC ; ioSpecialStateBase::GetAttackSpeedRate, COMDAT
; _this$ = ecx

; 26   : 	virtual float GetAttackSpeedRate( ioBaseChar* pOwner, float fMaxSpeed ){ return fMaxSpeed; }

  00000	55		 push	 ebp
  00001	8b ec		 mov	 ebp, esp
  00003	d9 45 0c	 fld	 DWORD PTR _fMaxSpeed$[ebp]
  00006	5d		 pop	 ebp
  00007	c2 08 00	 ret	 8
?GetAttackSpeedRate@ioSpecialStateBase@@UAEMPAVioBaseChar@@M@Z ENDP ; ioSpecialStateBase::GetAttackSpeedRate
; Function compile flags: /Ogsp
_TEXT	ENDS
;	COMDAT ?ProcessState@ioSpecialStateBase@@UAEXPAVioBaseChar@@@Z
_TEXT	SEGMENT
_pOwner$ = 8						; size = 4
?ProcessState@ioSpecialStateBase@@UAEXPAVioBaseChar@@@Z PROC ; ioSpecialStateBase::ProcessState, COMDAT
; _this$ = ecx

; 30   : 	virtual void ProcessState( IN ioBaseChar* pOwner ){}

  00000	c2 04 00	 ret	 4
?ProcessState@ioSpecialStateBase@@UAEXPAVioBaseChar@@@Z ENDP ; ioSpecialStateBase::ProcessState
; Function compile flags: /Ogsp
_TEXT	ENDS
;	COMDAT ?ProcessMoveSpeed@ioSpecialStateBase@@UAEXPAVioBaseChar@@@Z
_TEXT	SEGMENT
_pOwner$ = 8						; size = 4
?ProcessMoveSpeed@ioSpecialStateBase@@UAEXPAVioBaseChar@@@Z PROC ; ioSpecialStateBase::ProcessMoveSpeed, COMDAT
; _this$ = ecx

; 31   : 	virtual void ProcessMoveSpeed( ioBaseChar* pOwner ){}

  00000	c2 04 00	 ret	 4
?ProcessMoveSpeed@ioSpecialStateBase@@UAEXPAVioBaseChar@@@Z ENDP ; ioSpecialStateBase::ProcessMoveSpeed
; Function compile flags: /Ogsp
_TEXT	ENDS
;	COMDAT ?IsCanNoWound@ioSpecialStateBase@@UAE_NPAVioBaseChar@@@Z
_TEXT	SEGMENT
_pOwner$ = 8						; size = 4
?IsCanNoWound@ioSpecialStateBase@@UAE_NPAVioBaseChar@@@Z PROC ; ioSpecialStateBase::IsCanNoWound, COMDAT
; _this$ = ecx

; 37   : 	virtual bool IsCanNoWound( ioBaseChar* pOwner ) { return false; };

  00000	32 c0		 xor	 al, al
  00002	c2 04 00	 ret	 4
?IsCanNoWound@ioSpecialStateBase@@UAE_NPAVioBaseChar@@@Z ENDP ; ioSpecialStateBase::IsCanNoWound
; Function compile flags: /Ogsp
_TEXT	ENDS
;	COMDAT ?IsCollisionAvailableWeapon@ioSpecialStateBase@@UAE_NPAVioBaseChar@@PAVioWeapon@@@Z
_TEXT	SEGMENT
_pOwner$ = 8						; size = 4
_pWeapon$ = 12						; size = 4
?IsCollisionAvailableWeapon@ioSpecialStateBase@@UAE_NPAVioBaseChar@@PAVioWeapon@@@Z PROC ; ioSpecialStateBase::IsCollisionAvailableWeapon, COMDAT
; _this$ = ecx

; 38   : 	virtual bool IsCollisionAvailableWeapon( ioBaseChar* pOwner, ioWeapon *pWeapon ) { return true; }

  00000	b0 01		 mov	 al, 1
  00002	c2 08 00	 ret	 8
?IsCollisionAvailableWeapon@ioSpecialStateBase@@UAE_NPAVioBaseChar@@PAVioWeapon@@@Z ENDP ; ioSpecialStateBase::IsCollisionAvailableWeapon
; Function compile flags: /Ogsp
_TEXT	ENDS
;	COMDAT ?IsEntityCollisionSkipState@ioSpecialStateBase@@UBE_NQBVioBaseChar@@PAVioGameEntity@@@Z
_TEXT	SEGMENT
_pOwner$ = 8						; size = 4
_pColEntity$ = 12					; size = 4
?IsEntityCollisionSkipState@ioSpecialStateBase@@UBE_NQBVioBaseChar@@PAVioGameEntity@@@Z PROC ; ioSpecialStateBase::IsEntityCollisionSkipState, COMDAT
; _this$ = ecx

; 39   : 	virtual bool IsEntityCollisionSkipState( const ioBaseChar *const pOwner, ioGameEntity* pColEntity ) const { return false; }

  00000	32 c0		 xor	 al, al
  00002	c2 08 00	 ret	 8
?IsEntityCollisionSkipState@ioSpecialStateBase@@UBE_NQBVioBaseChar@@PAVioGameEntity@@@Z ENDP ; ioSpecialStateBase::IsEntityCollisionSkipState
; Function compile flags: /Ogsp
_TEXT	ENDS
;	COMDAT ?IsIgnoreAttackOverDelay@ioSpecialStateBase@@UAE_NXZ
_TEXT	SEGMENT
?IsIgnoreAttackOverDelay@ioSpecialStateBase@@UAE_NXZ PROC ; ioSpecialStateBase::IsIgnoreAttackOverDelay, COMDAT
; _this$ = ecx

; 50   : 	virtual bool IsIgnoreAttackOverDelay(){ return false; }

  00000	32 c0		 xor	 al, al
  00002	c3		 ret	 0
?IsIgnoreAttackOverDelay@ioSpecialStateBase@@UAE_NXZ ENDP ; ioSpecialStateBase::IsIgnoreAttackOverDelay
; Function compile flags: /Ogsp
_TEXT	ENDS
;	COMDAT ?IsFallStateCheck@ioSpecialStateBase@@UAE_NXZ
_TEXT	SEGMENT
?IsFallStateCheck@ioSpecialStateBase@@UAE_NXZ PROC	; ioSpecialStateBase::IsFallStateCheck, COMDAT
; _this$ = ecx

; 52   : 	virtual bool IsFallStateCheck(){ return true; }

  00000	b0 01		 mov	 al, 1
  00002	c3		 ret	 0
?IsFallStateCheck@ioSpecialStateBase@@UAE_NXZ ENDP	; ioSpecialStateBase::IsFallStateCheck
; Function compile flags: /Ogsp
_TEXT	ENDS
;	COMDAT ?IsEnableBlowWounded@ioSpecialStateBase@@UAE_NPAVioBaseChar@@@Z
_TEXT	SEGMENT
_pOwner$ = 8						; size = 4
?IsEnableBlowWounded@ioSpecialStateBase@@UAE_NPAVioBaseChar@@@Z PROC ; ioSpecialStateBase::IsEnableBlowWounded, COMDAT
; _this$ = ecx

; 53   : 	virtual bool IsEnableBlowWounded( ioBaseChar *pOwner ){ return true; }

  00000	b0 01		 mov	 al, 1
  00002	c2 04 00	 ret	 4
?IsEnableBlowWounded@ioSpecialStateBase@@UAE_NPAVioBaseChar@@@Z ENDP ; ioSpecialStateBase::IsEnableBlowWounded
; Function compile flags: /Ogsp
_TEXT	ENDS
;	COMDAT ?IsCanChangeJumppingState@ioSpecialStateBase@@UAE_NPAVioBaseChar@@@Z
_TEXT	SEGMENT
_pOwner$ = 8						; size = 4
?IsCanChangeJumppingState@ioSpecialStateBase@@UAE_NPAVioBaseChar@@@Z PROC ; ioSpecialStateBase::IsCanChangeJumppingState, COMDAT
; _this$ = ecx

; 56   : 	virtual bool IsCanChangeJumppingState( ioBaseChar* pOwner ) { return false; }

  00000	32 c0		 xor	 al, al
  00002	c2 04 00	 ret	 4
?IsCanChangeJumppingState@ioSpecialStateBase@@UAE_NPAVioBaseChar@@@Z ENDP ; ioSpecialStateBase::IsCanChangeJumppingState
; Function compile flags: /Ogsp
_TEXT	ENDS
;	COMDAT ?IsEnableDashState@ioSpecialStateBase@@UAE_NPAVioBaseChar@@@Z
_TEXT	SEGMENT
_pOwner$ = 8						; size = 4
?IsEnableDashState@ioSpecialStateBase@@UAE_NPAVioBaseChar@@@Z PROC ; ioSpecialStateBase::IsEnableDashState, COMDAT
; _this$ = ecx

; 58   : 	virtual bool IsEnableDashState( ioBaseChar* pOwner ){ return false; }

  00000	32 c0		 xor	 al, al
  00002	c2 04 00	 ret	 4
?IsEnableDashState@ioSpecialStateBase@@UAE_NPAVioBaseChar@@@Z ENDP ; ioSpecialStateBase::IsEnableDashState
; Function compile flags: /Ogsp
_TEXT	ENDS
;	COMDAT ?IsStateEnd@ioSpecialStateBase@@UAE_NPAVioBaseChar@@@Z
_TEXT	SEGMENT
_pOwner$ = 8						; size = 4
?IsStateEnd@ioSpecialStateBase@@UAE_NPAVioBaseChar@@@Z PROC ; ioSpecialStateBase::IsStateEnd, COMDAT
; _this$ = ecx

; 61   : 	virtual bool IsStateEnd( ioBaseChar* pOwner ){ return false; }

  00000	32 c0		 xor	 al, al
  00002	c2 04 00	 ret	 4
?IsStateEnd@ioSpecialStateBase@@UAE_NPAVioBaseChar@@@Z ENDP ; ioSpecialStateBase::IsStateEnd
; Function compile flags: /Ogsp
_TEXT	ENDS
;	COMDAT ?IsProcessFlyMove@ioSpecialStateBase@@UAE_NXZ
_TEXT	SEGMENT
?IsProcessFlyMove@ioSpecialStateBase@@UAE_NXZ PROC	; ioSpecialStateBase::IsProcessFlyMove, COMDAT
; _this$ = ecx

; 62   : 	virtual bool IsProcessFlyMove(){ return false; }	

  00000	32 c0		 xor	 al, al
  00002	c3		 ret	 0
?IsProcessFlyMove@ioSpecialStateBase@@UAE_NXZ ENDP	; ioSpecialStateBase::IsProcessFlyMove
; Function compile flags: /Ogsp
_TEXT	ENDS
;	COMDAT ?IsFloatingState@ioSpecialStateBase@@UBE_NQBVioBaseChar@@@Z
_TEXT	SEGMENT
_pOwner$ = 8						; size = 4
?IsFloatingState@ioSpecialStateBase@@UBE_NQBVioBaseChar@@@Z PROC ; ioSpecialStateBase::IsFloatingState, COMDAT
; _this$ = ecx

; 64   : 	virtual bool IsFloatingState( const ioBaseChar * const pOwner ) const { return false; }	

  00000	32 c0		 xor	 al, al
  00002	c2 04 00	 ret	 4
?IsFloatingState@ioSpecialStateBase@@UBE_NQBVioBaseChar@@@Z ENDP ; ioSpecialStateBase::IsFloatingState
; Function compile flags: /Ogsp
_TEXT	ENDS
;	COMDAT ?IsInitializeSync@ioSpecialStateBase@@UAE_NXZ
_TEXT	SEGMENT
?IsInitializeSync@ioSpecialStateBase@@UAE_NXZ PROC	; ioSpecialStateBase::IsInitializeSync, COMDAT
; _this$ = ecx

; 68   : 	virtual bool IsInitializeSync(){ return false; }

  00000	32 c0		 xor	 al, al
  00002	c3		 ret	 0
?IsInitializeSync@ioSpecialStateBase@@UAE_NXZ ENDP	; ioSpecialStateBase::IsInitializeSync
; Function compile flags: /Ogsp
_TEXT	ENDS
;	COMDAT ?IsJoinSync@ioSpecialStateBase@@UAE_NXZ
_TEXT	SEGMENT
?IsJoinSync@ioSpecialStateBase@@UAE_NXZ PROC		; ioSpecialStateBase::IsJoinSync, COMDAT
; _this$ = ecx

; 71   : 	virtual bool IsJoinSync(){ return true; }

  00000	b0 01		 mov	 al, 1
  00002	c3		 ret	 0
?IsJoinSync@ioSpecialStateBase@@UAE_NXZ ENDP		; ioSpecialStateBase::IsJoinSync
_TEXT	ENDS
PUBLIC	??_C@_0BI@JOGFLAEB@CS_SUPER_DIMENSION_FIRE?$AA@	; `string'
;	COMDAT ??_C@_0BI@JOGFLAEB@CS_SUPER_DIMENSION_FIRE?$AA@
; File d:\lost saga for developer\youtube\tutorial\source\src\lsclient\iosuperdimensionitem.h
CONST	SEGMENT
??_C@_0BI@JOGFLAEB@CS_SUPER_DIMENSION_FIRE?$AA@ DB 'CS_SUPER_DIMENSION_FI'
	DB	'RE', 00H					; `string'
; Function compile flags: /Ogsp
CONST	ENDS
;	COMDAT ?GetStateName@ioSuperDimensionFireSpecialState@@UAEPBDXZ
_TEXT	SEGMENT
?GetStateName@ioSuperDimensionFireSpecialState@@UAEPBDXZ PROC ; ioSuperDimensionFireSpecialState::GetStateName, COMDAT
; _this$ = ecx

; 347  : 	virtual const char* GetStateName(){ return "CS_SUPER_DIMENSION_FIRE"; }

  00000	b8 00 00 00 00	 mov	 eax, OFFSET ??_C@_0BI@JOGFLAEB@CS_SUPER_DIMENSION_FIRE?$AA@
  00005	c3		 ret	 0
?GetStateName@ioSuperDimensionFireSpecialState@@UAEPBDXZ ENDP ; ioSuperDimensionFireSpecialState::GetStateName
; Function compile flags: /Ogsp
_TEXT	ENDS
;	COMDAT ?GetState@ioSuperDimensionFireSpecialState@@UAE?BW4CharState@@XZ
_TEXT	SEGMENT
?GetState@ioSuperDimensionFireSpecialState@@UAE?BW4CharState@@XZ PROC ; ioSuperDimensionFireSpecialState::GetState, COMDAT
; _this$ = ecx

; 348  : 	virtual const CharState GetState(){ return CS_SUPER_DIMENSION_FIRE; }	

  00000	b0 73		 mov	 al, 115			; 00000073H
  00002	c3		 ret	 0
?GetState@ioSuperDimensionFireSpecialState@@UAE?BW4CharState@@XZ ENDP ; ioSuperDimensionFireSpecialState::GetState
; Function compile flags: /Ogsp
_TEXT	ENDS
;	COMDAT ?IsSendControlInfoToUser@ioSuperDimensionFireSpecialState@@UAE_NPAVioBaseChar@@@Z
_TEXT	SEGMENT
_pOwner$ = 8						; size = 4
?IsSendControlInfoToUser@ioSuperDimensionFireSpecialState@@UAE_NPAVioBaseChar@@@Z PROC ; ioSuperDimensionFireSpecialState::IsSendControlInfoToUser, COMDAT
; _this$ = ecx

; 349  : 	virtual bool IsSendControlInfoToUser( ioBaseChar* pOwner ){ return false; }

  00000	32 c0		 xor	 al, al
  00002	c2 04 00	 ret	 4
?IsSendControlInfoToUser@ioSuperDimensionFireSpecialState@@UAE_NPAVioBaseChar@@@Z ENDP ; ioSuperDimensionFireSpecialState::IsSendControlInfoToUser
; Function compile flags: /Ogsp
_TEXT	ENDS
;	COMDAT ?IsLandingEnable@ioSuperDimensionFireSpecialState@@UAE_NXZ
_TEXT	SEGMENT
?IsLandingEnable@ioSuperDimensionFireSpecialState@@UAE_NXZ PROC ; ioSuperDimensionFireSpecialState::IsLandingEnable, COMDAT
; _this$ = ecx

; 350  : 	virtual bool IsLandingEnable(){ return false; }

  00000	32 c0		 xor	 al, al
  00002	c3		 ret	 0
?IsLandingEnable@ioSuperDimensionFireSpecialState@@UAE_NXZ ENDP ; ioSuperDimensionFireSpecialState::IsLandingEnable
; Function compile flags: /Ogsp
_TEXT	ENDS
;	COMDAT ?IsNoDropState@ioSuperDimensionFireSpecialState@@UAE_NPAVioBaseChar@@@Z
_TEXT	SEGMENT
_pOwner$ = 8						; size = 4
?IsNoDropState@ioSuperDimensionFireSpecialState@@UAE_NPAVioBaseChar@@@Z PROC ; ioSuperDimensionFireSpecialState::IsNoDropState, COMDAT
; _this$ = ecx

; 356  : 	virtual bool IsNoDropState( ioBaseChar* pOwner ) { return true; }

  00000	b0 01		 mov	 al, 1
  00002	c2 04 00	 ret	 4
?IsNoDropState@ioSuperDimensionFireSpecialState@@UAE_NPAVioBaseChar@@@Z ENDP ; ioSuperDimensionFireSpecialState::IsNoDropState
_TEXT	ENDS
PUBLIC	??1ioSuperDimensionFireSpecialState@@UAE@XZ	; ioSuperDimensionFireSpecialState::~ioSuperDimensionFireSpecialState
EXTRN	??1ioSpecialStateBase@@UAE@XZ:PROC		; ioSpecialStateBase::~ioSpecialStateBase
; Function compile flags: /Ogsp
; File d:\lost saga for developer\youtube\tutorial\source\src\lsclient\iosuperdimensionitem.cpp
;	COMDAT ??1ioSuperDimensionFireSpecialState@@UAE@XZ
_TEXT	SEGMENT
??1ioSuperDimensionFireSpecialState@@UAE@XZ PROC	; ioSuperDimensionFireSpecialState::~ioSuperDimensionFireSpecialState, COMDAT
; _this$ = ecx

; 2258 : {

  00000	c7 01 00 00 00
	00		 mov	 DWORD PTR [ecx], OFFSET ??_7ioSuperDimensionFireSpecialState@@6B@

; 2259 : }

  00006	e9 00 00 00 00	 jmp	 ??1ioSpecialStateBase@@UAE@XZ ; ioSpecialStateBase::~ioSpecialStateBase
??1ioSuperDimensionFireSpecialState@@UAE@XZ ENDP	; ioSuperDimensionFireSpecialState::~ioSuperDimensionFireSpecialState
_TEXT	ENDS
EXTRN	?Initialize@ioSpecialStateBase@@UAEXPAVioBaseChar@@W4CharState@@@Z:PROC ; ioSpecialStateBase::Initialize
; Function compile flags: /Ogsp
;	COMDAT ?Initialize@ioSuperDimensionFireSpecialState@@UAEXPAVioBaseChar@@W4CharState@@@Z
_TEXT	SEGMENT
_pOwner$ = 8						; size = 4
_eCurrState$ = 12					; size = 1
?Initialize@ioSuperDimensionFireSpecialState@@UAEXPAVioBaseChar@@W4CharState@@@Z PROC ; ioSuperDimensionFireSpecialState::Initialize, COMDAT
; _this$ = ecx

; 2262 : {

  00000	55		 push	 ebp
  00001	8b ec		 mov	 ebp, esp

; 2264 : }

  00003	5d		 pop	 ebp

; 2263 : 	ioSpecialStateBase::Initialize( pOwner, eCurrState );

  00004	e9 00 00 00 00	 jmp	 ?Initialize@ioSpecialStateBase@@UAEXPAVioBaseChar@@W4CharState@@@Z ; ioSpecialStateBase::Initialize
?Initialize@ioSuperDimensionFireSpecialState@@UAEXPAVioBaseChar@@W4CharState@@@Z ENDP ; ioSuperDimensionFireSpecialState::Initialize
_TEXT	ENDS
PUBLIC	__mask@@NegFloat@
PUBLIC	??GD3DXVECTOR3@@QBE?AU0@XZ			; D3DXVECTOR3::operator-
;	COMDAT __mask@@NegFloat@
; File c:\program files (x86)\microsoft directx sdk (june 2010)\include\d3dx9math.inl
CONST	SEGMENT
__mask@@NegFloat@ DB 00H, 00H, 00H, 080H, 00H, 00H, 00H, 080H, 00H, 00H, 00H
	DB	080H, 00H, 00H, 00H, 080H
; Function compile flags: /Ogsp
CONST	ENDS
;	COMDAT ??GD3DXVECTOR3@@QBE?AU0@XZ
_TEXT	SEGMENT
___$ReturnUdt$ = 8					; size = 4
??GD3DXVECTOR3@@QBE?AU0@XZ PROC				; D3DXVECTOR3::operator-, COMDAT
; _this$ = ecx

; 372  : {

  00000	55		 push	 ebp
  00001	8b ec		 mov	 ebp, esp

; 373  :     return D3DXVECTOR3(-x, -y, -z);

  00003	f3 0f 10 05 00
	00 00 00	 movss	 xmm0, DWORD PTR __mask@@NegFloat@
  0000b	8b 45 08	 mov	 eax, DWORD PTR ___$ReturnUdt$[ebp]
  0000e	f3 0f 10 09	 movss	 xmm1, DWORD PTR [ecx]
  00012	0f 57 c8	 xorps	 xmm1, xmm0
  00015	f3 0f 11 08	 movss	 DWORD PTR [eax], xmm1
  00019	f3 0f 10 49 04	 movss	 xmm1, DWORD PTR [ecx+4]
  0001e	0f 57 c8	 xorps	 xmm1, xmm0
  00021	f3 0f 11 48 04	 movss	 DWORD PTR [eax+4], xmm1
  00026	f3 0f 10 49 08	 movss	 xmm1, DWORD PTR [ecx+8]
  0002b	0f 57 c8	 xorps	 xmm1, xmm0
  0002e	f3 0f 11 48 08	 movss	 DWORD PTR [eax+8], xmm1

; 374  : }

  00033	5d		 pop	 ebp
  00034	c2 04 00	 ret	 4
??GD3DXVECTOR3@@QBE?AU0@XZ ENDP				; D3DXVECTOR3::operator-
; Function compile flags: /Ogsp
; File d:\lost saga for developer\youtube\tutorial\source\src\lsclient\iosuperdimensionitem.cpp
_TEXT	ENDS
;	COMDAT ?CheckFallStateChange@ioSuperDimensionFireSpecialState@@UAEXPAVioBaseChar@@MM_NM@Z
_TEXT	SEGMENT
_pOwner$ = 8						; size = 4
_fMinFallHeightRate$ = 12				; size = 4
_fBottomHeight$ = 16					; size = 4
_bBottomMaxCheck$ = 20					; size = 1
_fMaxBottomHeight$ = 24					; size = 4
?CheckFallStateChange@ioSuperDimensionFireSpecialState@@UAEXPAVioBaseChar@@MM_NM@Z PROC ; ioSuperDimensionFireSpecialState::CheckFallStateChange, COMDAT
; _this$ = ecx

; 2292 : 	return;
; 2293 : }

  00000	c2 14 00	 ret	 20			; 00000014H
?CheckFallStateChange@ioSuperDimensionFireSpecialState@@UAEXPAVioBaseChar@@MM_NM@Z ENDP ; ioSuperDimensionFireSpecialState::CheckFallStateChange
_TEXT	ENDS
PUBLIC	??GD3DXVECTOR3@@QBE?AU0@ABU0@@Z			; D3DXVECTOR3::operator-
; Function compile flags: /Ogsp
; File c:\program files (x86)\microsoft directx sdk (june 2010)\include\d3dx9math.inl
;	COMDAT ??GD3DXVECTOR3@@QBE?AU0@ABU0@@Z
_TEXT	SEGMENT
___$ReturnUdt$ = 8					; size = 4
_v$ = 12						; size = 4
??GD3DXVECTOR3@@QBE?AU0@ABU0@@Z PROC			; D3DXVECTOR3::operator-, COMDAT
; _this$ = ecx

; 386  : {

  00000	55		 push	 ebp
  00001	8b ec		 mov	 ebp, esp

; 387  :     return D3DXVECTOR3(x - v.x, y - v.y, z - v.z);

  00003	8b 55 0c	 mov	 edx, DWORD PTR _v$[ebp]
  00006	f3 0f 10 01	 movss	 xmm0, DWORD PTR [ecx]
  0000a	f3 0f 10 0a	 movss	 xmm1, DWORD PTR [edx]
  0000e	8b 45 08	 mov	 eax, DWORD PTR ___$ReturnUdt$[ebp]
  00011	0f 5a c0	 cvtps2pd xmm0, xmm0
  00014	0f 5a c9	 cvtps2pd xmm1, xmm1
  00017	f2 0f 5c c1	 subsd	 xmm0, xmm1
  0001b	f3 0f 10 4a 04	 movss	 xmm1, DWORD PTR [edx+4]
  00020	66 0f 5a c0	 cvtpd2ps xmm0, xmm0
  00024	f3 0f 11 00	 movss	 DWORD PTR [eax], xmm0
  00028	f3 0f 10 41 04	 movss	 xmm0, DWORD PTR [ecx+4]
  0002d	0f 5a c0	 cvtps2pd xmm0, xmm0
  00030	0f 5a c9	 cvtps2pd xmm1, xmm1
  00033	f2 0f 5c c1	 subsd	 xmm0, xmm1
  00037	f3 0f 10 4a 08	 movss	 xmm1, DWORD PTR [edx+8]
  0003c	66 0f 5a c0	 cvtpd2ps xmm0, xmm0
  00040	f3 0f 11 40 04	 movss	 DWORD PTR [eax+4], xmm0
  00045	f3 0f 10 41 08	 movss	 xmm0, DWORD PTR [ecx+8]
  0004a	0f 5a c0	 cvtps2pd xmm0, xmm0
  0004d	0f 5a c9	 cvtps2pd xmm1, xmm1
  00050	f2 0f 5c c1	 subsd	 xmm0, xmm1
  00054	66 0f 5a c0	 cvtpd2ps xmm0, xmm0
  00058	f3 0f 11 40 08	 movss	 DWORD PTR [eax+8], xmm0

; 388  : }

  0005d	5d		 pop	 ebp
  0005e	c2 08 00	 ret	 8
??GD3DXVECTOR3@@QBE?AU0@ABU0@@Z ENDP			; D3DXVECTOR3::operator-
; Function compile flags: /Ogsp
; File d:\lost saga for developer\youtube\tutorial\source\src\lsclient\iosuperdimensionitem.cpp
_TEXT	ENDS
;	COMDAT ?ProcessMove@ioSuperDimensionFireSpecialState@@UAE_NPAVioBaseChar@@MKK@Z
_TEXT	SEGMENT
_pOwner$ = 8						; size = 4
_fTimePerSec$ = 12					; size = 4
_dwPreTime$ = 16					; size = 4
_dwCurTime$ = 20					; size = 4
?ProcessMove@ioSuperDimensionFireSpecialState@@UAE_NPAVioBaseChar@@MKK@Z PROC ; ioSuperDimensionFireSpecialState::ProcessMove, COMDAT
; _this$ = ecx

; 2297 : 	return true;

  00000	b0 01		 mov	 al, 1

; 2298 : }

  00002	c2 10 00	 ret	 16			; 00000010H
?ProcessMove@ioSuperDimensionFireSpecialState@@UAE_NPAVioBaseChar@@MKK@Z ENDP ; ioSuperDimensionFireSpecialState::ProcessMove
_TEXT	ENDS
PUBLIC	??DD3DXVECTOR3@@QBE?AU0@M@Z			; D3DXVECTOR3::operator*
; Function compile flags: /Ogsp
; File c:\program files (x86)\microsoft directx sdk (june 2010)\include\d3dx9math.inl
;	COMDAT ??DD3DXVECTOR3@@QBE?AU0@M@Z
_TEXT	SEGMENT
___$ReturnUdt$ = 8					; size = 4
_f$ = 12						; size = 4
??DD3DXVECTOR3@@QBE?AU0@M@Z PROC			; D3DXVECTOR3::operator*, COMDAT
; _this$ = ecx

; 392  : {

  00000	55		 push	 ebp
  00001	8b ec		 mov	 ebp, esp

; 393  :     return D3DXVECTOR3(x * f, y * f, z * f);

  00003	f3 0f 10 4d 0c	 movss	 xmm1, DWORD PTR _f$[ebp]
  00008	f3 0f 10 01	 movss	 xmm0, DWORD PTR [ecx]
  0000c	8b 45 08	 mov	 eax, DWORD PTR ___$ReturnUdt$[ebp]
  0000f	0f 5a c0	 cvtps2pd xmm0, xmm0
  00012	0f 5a c9	 cvtps2pd xmm1, xmm1
  00015	f2 0f 59 c1	 mulsd	 xmm0, xmm1
  00019	f3 0f 10 4d 0c	 movss	 xmm1, DWORD PTR _f$[ebp]
  0001e	66 0f 5a c0	 cvtpd2ps xmm0, xmm0
  00022	f3 0f 11 00	 movss	 DWORD PTR [eax], xmm0
  00026	f3 0f 10 41 04	 movss	 xmm0, DWORD PTR [ecx+4]
  0002b	0f 5a c0	 cvtps2pd xmm0, xmm0
  0002e	0f 5a c9	 cvtps2pd xmm1, xmm1
  00031	f2 0f 59 c1	 mulsd	 xmm0, xmm1
  00035	f3 0f 10 4d 0c	 movss	 xmm1, DWORD PTR _f$[ebp]
  0003a	66 0f 5a c0	 cvtpd2ps xmm0, xmm0
  0003e	f3 0f 11 40 04	 movss	 DWORD PTR [eax+4], xmm0
  00043	f3 0f 10 41 08	 movss	 xmm0, DWORD PTR [ecx+8]
  00048	0f 5a c0	 cvtps2pd xmm0, xmm0
  0004b	0f 5a c9	 cvtps2pd xmm1, xmm1
  0004e	f2 0f 59 c1	 mulsd	 xmm0, xmm1
  00052	66 0f 5a c0	 cvtpd2ps xmm0, xmm0
  00056	f3 0f 11 40 08	 movss	 DWORD PTR [eax+8], xmm0

; 394  : }

  0005b	5d		 pop	 ebp
  0005c	c2 08 00	 ret	 8
??DD3DXVECTOR3@@QBE?AU0@M@Z ENDP			; D3DXVECTOR3::operator*
_TEXT	ENDS
PUBLIC	??_7ioSuperDimensionDashSpecialState@@6B@	; ioSuperDimensionDashSpecialState::`vftable'
PUBLIC	??0ioSuperDimensionDashSpecialState@@QAE@XZ	; ioSuperDimensionDashSpecialState::ioSuperDimensionDashSpecialState
PUBLIC	??_R4ioSuperDimensionDashSpecialState@@6B@	; ioSuperDimensionDashSpecialState::`RTTI Complete Object Locator'
PUBLIC	??_R0?AVioSuperDimensionDashSpecialState@@@8	; ioSuperDimensionDashSpecialState `RTTI Type Descriptor'
PUBLIC	??_R3ioSuperDimensionDashSpecialState@@8	; ioSuperDimensionDashSpecialState::`RTTI Class Hierarchy Descriptor'
PUBLIC	??_R2ioSuperDimensionDashSpecialState@@8	; ioSuperDimensionDashSpecialState::`RTTI Base Class Array'
PUBLIC	??_R1A@?0A@EA@ioSuperDimensionDashSpecialState@@8 ; ioSuperDimensionDashSpecialState::`RTTI Base Class Descriptor at (0,-1,0,64)'
PUBLIC	?Initialize@ioSuperDimensionDashSpecialState@@UAEXPAVioBaseChar@@W4CharState@@@Z ; ioSuperDimensionDashSpecialState::Initialize
PUBLIC	?Finalize@ioSuperDimensionDashSpecialState@@UAEXPAVioBaseChar@@W4CharState@@1@Z ; ioSuperDimensionDashSpecialState::Finalize
PUBLIC	?GetStateName@ioSuperDimensionDashSpecialState@@UAEPBDXZ ; ioSuperDimensionDashSpecialState::GetStateName
PUBLIC	?GetState@ioSuperDimensionDashSpecialState@@UAE?BW4CharState@@XZ ; ioSuperDimensionDashSpecialState::GetState
PUBLIC	?CheckSpecialState@ioSuperDimensionDashSpecialState@@UAEXPAVioBaseChar@@@Z ; ioSuperDimensionDashSpecialState::CheckSpecialState
PUBLIC	?ProcessMove@ioSuperDimensionDashSpecialState@@UAE_NPAVioBaseChar@@MKK@Z ; ioSuperDimensionDashSpecialState::ProcessMove
PUBLIC	?IsSendControlInfoToUser@ioSuperDimensionDashSpecialState@@UAE_NPAVioBaseChar@@@Z ; ioSuperDimensionDashSpecialState::IsSendControlInfoToUser
PUBLIC	?IsLandingEnable@ioSuperDimensionDashSpecialState@@UAE_NXZ ; ioSuperDimensionDashSpecialState::IsLandingEnable
PUBLIC	?IsNoDropState@ioSpecialStateBase@@UAE_NPAVioBaseChar@@@Z ; ioSpecialStateBase::IsNoDropState
PUBLIC	?CheckFallStateChange@ioSuperDimensionDashSpecialState@@UAEXPAVioBaseChar@@MM_NM@Z ; ioSuperDimensionDashSpecialState::CheckFallStateChange
EXTRN	?GetGravity@ioSpecialStateBase@@UAEXPAVioBaseChar@@AAM@Z:PROC ; ioSpecialStateBase::GetGravity
EXTRN	??_EioSuperDimensionDashSpecialState@@UAEPAXI@Z:PROC ; ioSuperDimensionDashSpecialState::`vector deleting destructor'
;	COMDAT ??_R1A@?0A@EA@ioSuperDimensionDashSpecialState@@8
; File d:\lost saga for developer\youtube\tutorial\source\src\lsclient\iosuperdimensionitem.cpp
rdata$r	SEGMENT
??_R1A@?0A@EA@ioSuperDimensionDashSpecialState@@8 DD FLAT:??_R0?AVioSuperDimensionDashSpecialState@@@8 ; ioSuperDimensionDashSpecialState::`RTTI Base Class Descriptor at (0,-1,0,64)'
	DD	01H
	DD	00H
	DD	0ffffffffH
	DD	00H
	DD	040H
	DD	FLAT:??_R3ioSuperDimensionDashSpecialState@@8
rdata$r	ENDS
;	COMDAT ??_R2ioSuperDimensionDashSpecialState@@8
rdata$r	SEGMENT
??_R2ioSuperDimensionDashSpecialState@@8 DD FLAT:??_R1A@?0A@EA@ioSuperDimensionDashSpecialState@@8 ; ioSuperDimensionDashSpecialState::`RTTI Base Class Array'
	DD	FLAT:??_R1A@?0A@EA@ioSpecialStateBase@@8
rdata$r	ENDS
;	COMDAT ??_R3ioSuperDimensionDashSpecialState@@8
rdata$r	SEGMENT
??_R3ioSuperDimensionDashSpecialState@@8 DD 00H		; ioSuperDimensionDashSpecialState::`RTTI Class Hierarchy Descriptor'
	DD	00H
	DD	02H
	DD	FLAT:??_R2ioSuperDimensionDashSpecialState@@8
rdata$r	ENDS
;	COMDAT ??_R0?AVioSuperDimensionDashSpecialState@@@8
_DATA	SEGMENT
??_R0?AVioSuperDimensionDashSpecialState@@@8 DD FLAT:??_7type_info@@6B@ ; ioSuperDimensionDashSpecialState `RTTI Type Descriptor'
	DD	00H
	DB	'.?AVioSuperDimensionDashSpecialState@@', 00H
_DATA	ENDS
;	COMDAT ??_R4ioSuperDimensionDashSpecialState@@6B@
rdata$r	SEGMENT
??_R4ioSuperDimensionDashSpecialState@@6B@ DD 00H	; ioSuperDimensionDashSpecialState::`RTTI Complete Object Locator'
	DD	00H
	DD	00H
	DD	FLAT:??_R0?AVioSuperDimensionDashSpecialState@@@8
	DD	FLAT:??_R3ioSuperDimensionDashSpecialState@@8
rdata$r	ENDS
;	COMDAT ??_7ioSuperDimensionDashSpecialState@@6B@
CONST	SEGMENT
??_7ioSuperDimensionDashSpecialState@@6B@ DD FLAT:??_R4ioSuperDimensionDashSpecialState@@6B@ ; ioSuperDimensionDashSpecialState::`vftable'
	DD	FLAT:?Initialize@ioSuperDimensionDashSpecialState@@UAEXPAVioBaseChar@@W4CharState@@@Z
	DD	FLAT:?Finalize@ioSuperDimensionDashSpecialState@@UAEXPAVioBaseChar@@W4CharState@@1@Z
	DD	FLAT:?LoadProperty@ioSpecialStateBase@@UAEXAAVioINILoader@@@Z
	DD	FLAT:?GetStateName@ioSuperDimensionDashSpecialState@@UAEPBDXZ
	DD	FLAT:?GetState@ioSuperDimensionDashSpecialState@@UAE?BW4CharState@@XZ
	DD	FLAT:?GetAttackSpeedRate@ioSpecialStateBase@@UAEMPAVioBaseChar@@M@Z
	DD	FLAT:?CheckSpecialState@ioSuperDimensionDashSpecialState@@UAEXPAVioBaseChar@@@Z
	DD	FLAT:?ProcessState@ioSpecialStateBase@@UAEXPAVioBaseChar@@@Z
	DD	FLAT:?ProcessMoveSpeed@ioSpecialStateBase@@UAEXPAVioBaseChar@@@Z
	DD	FLAT:?ProcessMove@ioSuperDimensionDashSpecialState@@UAE_NPAVioBaseChar@@MKK@Z
	DD	FLAT:?ProcessKeyInput@ioSpecialStateBase@@UAEXPAVioBaseChar@@@Z
	DD	FLAT:?IsCanNoWound@ioSpecialStateBase@@UAE_NPAVioBaseChar@@@Z
	DD	FLAT:?IsCollisionAvailableWeapon@ioSpecialStateBase@@UAE_NPAVioBaseChar@@PAVioWeapon@@@Z
	DD	FLAT:?IsEntityCollisionSkipState@ioSpecialStateBase@@UBE_NQBVioBaseChar@@PAVioGameEntity@@@Z
	DD	FLAT:?IsCharCollisionSkipState@ioSpecialStateBase@@UBE_NQBVioBaseChar@@KKK_N1W4TeamType@@2@Z
	DD	FLAT:?IsSendControlInfoToUser@ioSuperDimensionDashSpecialState@@UAE_NPAVioBaseChar@@@Z
	DD	FLAT:?IsIgnoreAttackOverDelay@ioSpecialStateBase@@UAE_NXZ
	DD	FLAT:?IsLandingEnable@ioSuperDimensionDashSpecialState@@UAE_NXZ
	DD	FLAT:?IsFallStateCheck@ioSpecialStateBase@@UAE_NXZ
	DD	FLAT:?IsEnableBlowWounded@ioSpecialStateBase@@UAE_NPAVioBaseChar@@@Z
	DD	FLAT:?IsNoDropState@ioSpecialStateBase@@UAE_NPAVioBaseChar@@@Z
	DD	FLAT:?GetGravity@ioSpecialStateBase@@UAEXPAVioBaseChar@@AAM@Z
	DD	FLAT:?IsCanChangeJumppingState@ioSpecialStateBase@@UAE_NPAVioBaseChar@@@Z
	DD	FLAT:?IsEnableDashState@ioSpecialStateBase@@UAE_NPAVioBaseChar@@@Z
	DD	FLAT:?IsStateEnd@ioSpecialStateBase@@UAE_NPAVioBaseChar@@@Z
	DD	FLAT:?IsProcessFlyMove@ioSpecialStateBase@@UAE_NXZ
	DD	FLAT:?IsFloatingState@ioSpecialStateBase@@UBE_NQBVioBaseChar@@@Z
	DD	FLAT:?IsInitializeSync@ioSpecialStateBase@@UAE_NXZ
	DD	FLAT:?IsJoinSync@ioSpecialStateBase@@UAE_NXZ
	DD	FLAT:?FillJoinSync@ioSpecialStateBase@@UAEXAAVSP2Packet@@PAVioBaseChar@@@Z
	DD	FLAT:?ApplyJoinSync@ioSpecialStateBase@@UAEXAAVSP2Packet@@PAVioBaseChar@@@Z
	DD	FLAT:?ApplyStateSync@ioSpecialStateBase@@UAEXAAVSP2Packet@@PAVioBaseChar@@@Z
	DD	FLAT:?CheckFallStateChange@ioSuperDimensionDashSpecialState@@UAEXPAVioBaseChar@@MM_NM@Z
	DD	FLAT:??_EioSuperDimensionDashSpecialState@@UAEPAXI@Z
; Function compile flags: /Ogsp
CONST	ENDS
;	COMDAT ??0ioSuperDimensionDashSpecialState@@QAE@XZ
_TEXT	SEGMENT
??0ioSuperDimensionDashSpecialState@@QAE@XZ PROC	; ioSuperDimensionDashSpecialState::ioSuperDimensionDashSpecialState, COMDAT
; _this$ = ecx

; 2310 : {

  00000	56		 push	 esi
  00001	8b f1		 mov	 esi, ecx
  00003	e8 00 00 00 00	 call	 ??0ioSpecialStateBase@@QAE@XZ ; ioSpecialStateBase::ioSpecialStateBase
  00008	c7 06 00 00 00
	00		 mov	 DWORD PTR [esi], OFFSET ??_7ioSuperDimensionDashSpecialState@@6B@

; 2311 : }

  0000e	8b c6		 mov	 eax, esi
  00010	5e		 pop	 esi
  00011	c3		 ret	 0
??0ioSuperDimensionDashSpecialState@@QAE@XZ ENDP	; ioSuperDimensionDashSpecialState::ioSuperDimensionDashSpecialState
; Function compile flags: /Ogsp
; File d:\lost saga for developer\youtube\tutorial\source\src\lsclient\iospecialstatebase.h
_TEXT	ENDS
;	COMDAT ?IsNoDropState@ioSpecialStateBase@@UAE_NPAVioBaseChar@@@Z
_TEXT	SEGMENT
_pOwner$ = 8						; size = 4
?IsNoDropState@ioSpecialStateBase@@UAE_NPAVioBaseChar@@@Z PROC ; ioSpecialStateBase::IsNoDropState, COMDAT
; _this$ = ecx

; 54   : 	virtual bool IsNoDropState( ioBaseChar* pOwner ) { return false; }

  00000	32 c0		 xor	 al, al
  00002	c2 04 00	 ret	 4
?IsNoDropState@ioSpecialStateBase@@UAE_NPAVioBaseChar@@@Z ENDP ; ioSpecialStateBase::IsNoDropState
_TEXT	ENDS
PUBLIC	??_C@_0BI@JFHNNPLE@CS_SUPER_DIMENSION_DASH?$AA@	; `string'
;	COMDAT ??_C@_0BI@JFHNNPLE@CS_SUPER_DIMENSION_DASH?$AA@
; File d:\lost saga for developer\youtube\tutorial\source\src\lsclient\iosuperdimensionitem.h
CONST	SEGMENT
??_C@_0BI@JFHNNPLE@CS_SUPER_DIMENSION_DASH?$AA@ DB 'CS_SUPER_DIMENSION_DA'
	DB	'SH', 00H					; `string'
; Function compile flags: /Ogsp
CONST	ENDS
;	COMDAT ?GetStateName@ioSuperDimensionDashSpecialState@@UAEPBDXZ
_TEXT	SEGMENT
?GetStateName@ioSuperDimensionDashSpecialState@@UAEPBDXZ PROC ; ioSuperDimensionDashSpecialState::GetStateName, COMDAT
; _this$ = ecx

; 380  : 	virtual const char* GetStateName(){ return "CS_SUPER_DIMENSION_DASH"; }

  00000	b8 00 00 00 00	 mov	 eax, OFFSET ??_C@_0BI@JFHNNPLE@CS_SUPER_DIMENSION_DASH?$AA@
  00005	c3		 ret	 0
?GetStateName@ioSuperDimensionDashSpecialState@@UAEPBDXZ ENDP ; ioSuperDimensionDashSpecialState::GetStateName
; Function compile flags: /Ogsp
_TEXT	ENDS
;	COMDAT ?GetState@ioSuperDimensionDashSpecialState@@UAE?BW4CharState@@XZ
_TEXT	SEGMENT
?GetState@ioSuperDimensionDashSpecialState@@UAE?BW4CharState@@XZ PROC ; ioSuperDimensionDashSpecialState::GetState, COMDAT
; _this$ = ecx

; 381  : 	virtual const CharState GetState(){ return CS_SUPER_DIMENSION_DASH; }	

  00000	b0 74		 mov	 al, 116			; 00000074H
  00002	c3		 ret	 0
?GetState@ioSuperDimensionDashSpecialState@@UAE?BW4CharState@@XZ ENDP ; ioSuperDimensionDashSpecialState::GetState
; Function compile flags: /Ogsp
_TEXT	ENDS
;	COMDAT ?IsSendControlInfoToUser@ioSuperDimensionDashSpecialState@@UAE_NPAVioBaseChar@@@Z
_TEXT	SEGMENT
_pOwner$ = 8						; size = 4
?IsSendControlInfoToUser@ioSuperDimensionDashSpecialState@@UAE_NPAVioBaseChar@@@Z PROC ; ioSuperDimensionDashSpecialState::IsSendControlInfoToUser, COMDAT
; _this$ = ecx

; 382  : 	virtual bool IsSendControlInfoToUser( ioBaseChar* pOwner ){ return false; }

  00000	32 c0		 xor	 al, al
  00002	c2 04 00	 ret	 4
?IsSendControlInfoToUser@ioSuperDimensionDashSpecialState@@UAE_NPAVioBaseChar@@@Z ENDP ; ioSuperDimensionDashSpecialState::IsSendControlInfoToUser
; Function compile flags: /Ogsp
_TEXT	ENDS
;	COMDAT ?IsLandingEnable@ioSuperDimensionDashSpecialState@@UAE_NXZ
_TEXT	SEGMENT
?IsLandingEnable@ioSuperDimensionDashSpecialState@@UAE_NXZ PROC ; ioSuperDimensionDashSpecialState::IsLandingEnable, COMDAT
; _this$ = ecx

; 383  : 	virtual bool IsLandingEnable(){ return false; }

  00000	32 c0		 xor	 al, al
  00002	c3		 ret	 0
?IsLandingEnable@ioSuperDimensionDashSpecialState@@UAE_NXZ ENDP ; ioSuperDimensionDashSpecialState::IsLandingEnable
_TEXT	ENDS
PUBLIC	??1ioSuperDimensionDashSpecialState@@UAE@XZ	; ioSuperDimensionDashSpecialState::~ioSuperDimensionDashSpecialState
; Function compile flags: /Ogsp
; File d:\lost saga for developer\youtube\tutorial\source\src\lsclient\iosuperdimensionitem.cpp
;	COMDAT ??1ioSuperDimensionDashSpecialState@@UAE@XZ
_TEXT	SEGMENT
??1ioSuperDimensionDashSpecialState@@UAE@XZ PROC	; ioSuperDimensionDashSpecialState::~ioSuperDimensionDashSpecialState, COMDAT
; _this$ = ecx

; 2314 : {

  00000	c7 01 00 00 00
	00		 mov	 DWORD PTR [ecx], OFFSET ??_7ioSuperDimensionDashSpecialState@@6B@

; 2315 : }

  00006	e9 00 00 00 00	 jmp	 ??1ioSpecialStateBase@@UAE@XZ ; ioSpecialStateBase::~ioSpecialStateBase
??1ioSuperDimensionDashSpecialState@@UAE@XZ ENDP	; ioSuperDimensionDashSpecialState::~ioSuperDimensionDashSpecialState
_TEXT	ENDS
PUBLIC	??D@YA?AUD3DXVECTOR3@@MABU0@@Z			; operator*
; Function compile flags: /Ogsp
; File c:\program files (x86)\microsoft directx sdk (june 2010)\include\d3dx9math.inl
;	COMDAT ??D@YA?AUD3DXVECTOR3@@MABU0@@Z
_TEXT	SEGMENT
___$ReturnUdt$ = 8					; size = 4
_f$ = 12						; size = 4
_v$ = 16						; size = 4
??D@YA?AUD3DXVECTOR3@@MABU0@@Z PROC			; operator*, COMDAT

; 406  : {

  00000	55		 push	 ebp
  00001	8b ec		 mov	 ebp, esp

; 407  :     return D3DXVECTOR3(f * v.x, f * v.y, f * v.z);

  00003	8b 4d 10	 mov	 ecx, DWORD PTR _v$[ebp]
  00006	f3 0f 10 4d 0c	 movss	 xmm1, DWORD PTR _f$[ebp]
  0000b	f3 0f 10 01	 movss	 xmm0, DWORD PTR [ecx]
  0000f	8b 45 08	 mov	 eax, DWORD PTR ___$ReturnUdt$[ebp]
  00012	0f 5a c0	 cvtps2pd xmm0, xmm0
  00015	0f 5a c9	 cvtps2pd xmm1, xmm1
  00018	f2 0f 59 c1	 mulsd	 xmm0, xmm1
  0001c	f3 0f 10 4d 0c	 movss	 xmm1, DWORD PTR _f$[ebp]
  00021	66 0f 5a c0	 cvtpd2ps xmm0, xmm0
  00025	f3 0f 11 00	 movss	 DWORD PTR [eax], xmm0
  00029	f3 0f 10 41 04	 movss	 xmm0, DWORD PTR [ecx+4]
  0002e	0f 5a c0	 cvtps2pd xmm0, xmm0
  00031	0f 5a c9	 cvtps2pd xmm1, xmm1
  00034	f2 0f 59 c1	 mulsd	 xmm0, xmm1
  00038	f3 0f 10 4d 0c	 movss	 xmm1, DWORD PTR _f$[ebp]
  0003d	66 0f 5a c0	 cvtpd2ps xmm0, xmm0
  00041	f3 0f 11 40 04	 movss	 DWORD PTR [eax+4], xmm0
  00046	f3 0f 10 41 08	 movss	 xmm0, DWORD PTR [ecx+8]
  0004b	0f 5a c0	 cvtps2pd xmm0, xmm0
  0004e	0f 5a c9	 cvtps2pd xmm1, xmm1
  00051	f2 0f 59 c1	 mulsd	 xmm0, xmm1
  00055	66 0f 5a c0	 cvtpd2ps xmm0, xmm0
  00059	f3 0f 11 40 08	 movss	 DWORD PTR [eax+8], xmm0

; 408  : }

  0005e	5d		 pop	 ebp
  0005f	c3		 ret	 0
??D@YA?AUD3DXVECTOR3@@MABU0@@Z ENDP			; operator*
; Function compile flags: /Ogsp
; File d:\lost saga for developer\youtube\tutorial\source\src\lsclient\iosuperdimensionitem.cpp
_TEXT	ENDS
;	COMDAT ?Initialize@ioSuperDimensionDashSpecialState@@UAEXPAVioBaseChar@@W4CharState@@@Z
_TEXT	SEGMENT
_pOwner$ = 8						; size = 4
_eCurrState$ = 12					; size = 1
?Initialize@ioSuperDimensionDashSpecialState@@UAEXPAVioBaseChar@@W4CharState@@@Z PROC ; ioSuperDimensionDashSpecialState::Initialize, COMDAT
; _this$ = ecx

; 2318 : {

  00000	55		 push	 ebp
  00001	8b ec		 mov	 ebp, esp

; 2320 : }

  00003	5d		 pop	 ebp

; 2319 : 	ioSpecialStateBase::Initialize( pOwner, eCurrState );

  00004	e9 00 00 00 00	 jmp	 ?Initialize@ioSpecialStateBase@@UAEXPAVioBaseChar@@W4CharState@@@Z ; ioSpecialStateBase::Initialize
?Initialize@ioSuperDimensionDashSpecialState@@UAEXPAVioBaseChar@@W4CharState@@@Z ENDP ; ioSuperDimensionDashSpecialState::Initialize
_TEXT	ENDS
PUBLIC	??9D3DXVECTOR3@@QBEHABU0@@Z			; D3DXVECTOR3::operator!=
; Function compile flags: /Ogsp
; File c:\program files (x86)\microsoft directx sdk (june 2010)\include\d3dx9math.inl
;	COMDAT ??9D3DXVECTOR3@@QBEHABU0@@Z
_TEXT	SEGMENT
_v$ = 8							; size = 4
??9D3DXVECTOR3@@QBEHABU0@@Z PROC			; D3DXVECTOR3::operator!=, COMDAT
; _this$ = ecx

; 419  : {

  00000	55		 push	 ebp
  00001	8b ec		 mov	 ebp, esp

; 420  :     return x != v.x || y != v.y || z != v.z;

  00003	8b 55 08	 mov	 edx, DWORD PTR _v$[ebp]
  00006	f3 0f 10 01	 movss	 xmm0, DWORD PTR [ecx]
  0000a	f3 0f 10 0a	 movss	 xmm1, DWORD PTR [edx]
  0000e	0f 5a c0	 cvtps2pd xmm0, xmm0
  00011	0f 5a c9	 cvtps2pd xmm1, xmm1
  00014	66 0f 2e c1	 ucomisd xmm0, xmm1
  00018	9f		 lahf
  00019	f6 c4 44	 test	 ah, 68			; 00000044H
  0001c	7a 38		 jp	 SHORT $LN3@operator@2
  0001e	f3 0f 10 41 04	 movss	 xmm0, DWORD PTR [ecx+4]
  00023	f3 0f 10 4a 04	 movss	 xmm1, DWORD PTR [edx+4]
  00028	0f 5a c0	 cvtps2pd xmm0, xmm0
  0002b	0f 5a c9	 cvtps2pd xmm1, xmm1
  0002e	66 0f 2e c1	 ucomisd xmm0, xmm1
  00032	9f		 lahf
  00033	f6 c4 44	 test	 ah, 68			; 00000044H
  00036	7a 1e		 jp	 SHORT $LN3@operator@2
  00038	f3 0f 10 41 08	 movss	 xmm0, DWORD PTR [ecx+8]
  0003d	f3 0f 10 4a 08	 movss	 xmm1, DWORD PTR [edx+8]
  00042	0f 5a c0	 cvtps2pd xmm0, xmm0
  00045	0f 5a c9	 cvtps2pd xmm1, xmm1
  00048	66 0f 2e c1	 ucomisd xmm0, xmm1
  0004c	9f		 lahf
  0004d	f6 c4 44	 test	 ah, 68			; 00000044H
  00050	7a 04		 jp	 SHORT $LN3@operator@2
  00052	33 c0		 xor	 eax, eax
  00054	eb 03		 jmp	 SHORT $LN4@operator@2
$LN3@operator@2:
  00056	33 c0		 xor	 eax, eax
  00058	40		 inc	 eax
$LN4@operator@2:

; 421  : }

  00059	5d		 pop	 ebp
  0005a	c2 04 00	 ret	 4
??9D3DXVECTOR3@@QBEHABU0@@Z ENDP			; D3DXVECTOR3::operator!=
; Function compile flags: /Ogsp
; File d:\lost saga for developer\youtube\tutorial\source\src\lsclient\iosuperdimensionitem.cpp
_TEXT	ENDS
;	COMDAT ?CheckFallStateChange@ioSuperDimensionDashSpecialState@@UAEXPAVioBaseChar@@MM_NM@Z
_TEXT	SEGMENT
_pOwner$ = 8						; size = 4
_fMinFallHeightRate$ = 12				; size = 4
_fBottomHeight$ = 16					; size = 4
_bBottomMaxCheck$ = 20					; size = 1
_fMaxBottomHeight$ = 24					; size = 4
?CheckFallStateChange@ioSuperDimensionDashSpecialState@@UAEXPAVioBaseChar@@MM_NM@Z PROC ; ioSuperDimensionDashSpecialState::CheckFallStateChange, COMDAT
; _this$ = ecx

; 2348 : 	return;
; 2349 : }

  00000	c2 14 00	 ret	 20			; 00000014H
?CheckFallStateChange@ioSuperDimensionDashSpecialState@@UAEXPAVioBaseChar@@MM_NM@Z ENDP ; ioSuperDimensionDashSpecialState::CheckFallStateChange
; Function compile flags: /Ogsp
_TEXT	ENDS
;	COMDAT ?ProcessMove@ioSuperDimensionDashSpecialState@@UAE_NPAVioBaseChar@@MKK@Z
_TEXT	SEGMENT
_pOwner$ = 8						; size = 4
_fTimePerSec$ = 12					; size = 4
_dwPreTime$ = 16					; size = 4
_dwCurTime$ = 20					; size = 4
?ProcessMove@ioSuperDimensionDashSpecialState@@UAE_NPAVioBaseChar@@MKK@Z PROC ; ioSuperDimensionDashSpecialState::ProcessMove, COMDAT
; _this$ = ecx

; 2353 : 	return true;

  00000	b0 01		 mov	 al, 1

; 2354 : }

  00002	c2 10 00	 ret	 16			; 00000010H
?ProcessMove@ioSuperDimensionDashSpecialState@@UAE_NPAVioBaseChar@@MKK@Z ENDP ; ioSuperDimensionDashSpecialState::ProcessMove
_TEXT	ENDS
PUBLIC	??A?$vector@VioHashString@@V?$allocator@VioHashString@@@std@@@std@@QAEAAVioHashString@@I@Z ; std::vector<ioHashString,std::allocator<ioHashString> >::operator[]
; Function compile flags: /Ogsp
; File c:\program files (x86)\microsoft visual studio 10.0\vc\include\vector
;	COMDAT ??A?$vector@VioHashString@@V?$allocator@VioHashString@@@std@@@std@@QAEAAVioHashString@@I@Z
_TEXT	SEGMENT
__Pos$ = 8						; size = 4
??A?$vector@VioHashString@@V?$allocator@VioHashString@@@std@@@std@@QAEAAVioHashString@@I@Z PROC ; std::vector<ioHashString,std::allocator<ioHashString> >::operator[], COMDAT
; _this$ = ecx

; 928  : 		{	// subscript mutable sequence

  00000	55		 push	 ebp
  00001	8b ec		 mov	 ebp, esp

; 929  :  #if _ITERATOR_DEBUG_LEVEL == 2
; 930  : 		if (size() <= _Pos)
; 931  : 			{	// report error
; 932  : 			_DEBUG_ERROR("vector subscript out of range");
; 933  : 			_SCL_SECURE_OUT_OF_RANGE;
; 934  : 			}
; 935  : 
; 936  :  #elif _ITERATOR_DEBUG_LEVEL == 1
; 937  : 		_SCL_SECURE_VALIDATE_RANGE(_Pos < size());
; 938  :  #endif /* _ITERATOR_DEBUG_LEVEL */
; 939  : 
; 940  : 		return (*(this->_Myfirst + _Pos));

  00003	8b 45 08	 mov	 eax, DWORD PTR __Pos$[ebp]
  00006	c1 e0 04	 shl	 eax, 4
  00009	03 01		 add	 eax, DWORD PTR [ecx]

; 941  : 		}

  0000b	5d		 pop	 ebp
  0000c	c2 04 00	 ret	 4
??A?$vector@VioHashString@@V?$allocator@VioHashString@@@std@@@std@@QAEAAVioHashString@@I@Z ENDP ; std::vector<ioHashString,std::allocator<ioHashString> >::operator[]
_TEXT	ENDS
PUBLIC	?size@?$vector@PAVioBaseChar@@V?$allocator@PAVioBaseChar@@@std@@@std@@QBEIXZ ; std::vector<ioBaseChar *,std::allocator<ioBaseChar *> >::size
; Function compile flags: /Ogsp
;	COMDAT ?size@?$vector@PAVioBaseChar@@V?$allocator@PAVioBaseChar@@@std@@@std@@QBEIXZ
_TEXT	SEGMENT
?size@?$vector@PAVioBaseChar@@V?$allocator@PAVioBaseChar@@@std@@@std@@QBEIXZ PROC ; std::vector<ioBaseChar *,std::allocator<ioBaseChar *> >::size, COMDAT
; _this$ = ecx

; 879  : 		return (this->_Mylast - this->_Myfirst);

  00000	8b 41 04	 mov	 eax, DWORD PTR [ecx+4]
  00003	2b 01		 sub	 eax, DWORD PTR [ecx]
  00005	c1 f8 02	 sar	 eax, 2

; 880  : 		}

  00008	c3		 ret	 0
?size@?$vector@PAVioBaseChar@@V?$allocator@PAVioBaseChar@@@std@@@std@@QBEIXZ ENDP ; std::vector<ioBaseChar *,std::allocator<ioBaseChar *> >::size
_TEXT	ENDS
PUBLIC	?size@?$vector@UtagSuperDimension_HP_Scale_Info@@V?$allocator@UtagSuperDimension_HP_Scale_Info@@@std@@@std@@QBEIXZ ; std::vector<tagSuperDimension_HP_Scale_Info,std::allocator<tagSuperDimension_HP_Scale_Info> >::size
; Function compile flags: /Ogsp
;	COMDAT ?size@?$vector@UtagSuperDimension_HP_Scale_Info@@V?$allocator@UtagSuperDimension_HP_Scale_Info@@@std@@@std@@QBEIXZ
_TEXT	SEGMENT
?size@?$vector@UtagSuperDimension_HP_Scale_Info@@V?$allocator@UtagSuperDimension_HP_Scale_Info@@@std@@@std@@QBEIXZ PROC ; std::vector<tagSuperDimension_HP_Scale_Info,std::allocator<tagSuperDimension_HP_Scale_Info> >::size, COMDAT
; _this$ = ecx

; 879  : 		return (this->_Mylast - this->_Myfirst);

  00000	8b 41 04	 mov	 eax, DWORD PTR [ecx+4]
  00003	2b 01		 sub	 eax, DWORD PTR [ecx]
  00005	6a 0c		 push	 12			; 0000000cH
  00007	99		 cdq
  00008	59		 pop	 ecx
  00009	f7 f9		 idiv	 ecx

; 880  : 		}

  0000b	c3		 ret	 0
?size@?$vector@UtagSuperDimension_HP_Scale_Info@@V?$allocator@UtagSuperDimension_HP_Scale_Info@@@std@@@std@@QBEIXZ ENDP ; std::vector<tagSuperDimension_HP_Scale_Info,std::allocator<tagSuperDimension_HP_Scale_Info> >::size
_TEXT	ENDS
PUBLIC	??A?$vector@UtagSuperDimension_HP_Scale_Info@@V?$allocator@UtagSuperDimension_HP_Scale_Info@@@std@@@std@@QAEAAUtagSuperDimension_HP_Scale_Info@@I@Z ; std::vector<tagSuperDimension_HP_Scale_Info,std::allocator<tagSuperDimension_HP_Scale_Info> >::operator[]
; Function compile flags: /Ogsp
;	COMDAT ??A?$vector@UtagSuperDimension_HP_Scale_Info@@V?$allocator@UtagSuperDimension_HP_Scale_Info@@@std@@@std@@QAEAAUtagSuperDimension_HP_Scale_Info@@I@Z
_TEXT	SEGMENT
__Pos$ = 8						; size = 4
??A?$vector@UtagSuperDimension_HP_Scale_Info@@V?$allocator@UtagSuperDimension_HP_Scale_Info@@@std@@@std@@QAEAAUtagSuperDimension_HP_Scale_Info@@I@Z PROC ; std::vector<tagSuperDimension_HP_Scale_Info,std::allocator<tagSuperDimension_HP_Scale_Info> >::operator[], COMDAT
; _this$ = ecx

; 928  : 		{	// subscript mutable sequence

  00000	55		 push	 ebp
  00001	8b ec		 mov	 ebp, esp

; 929  :  #if _ITERATOR_DEBUG_LEVEL == 2
; 930  : 		if (size() <= _Pos)
; 931  : 			{	// report error
; 932  : 			_DEBUG_ERROR("vector subscript out of range");
; 933  : 			_SCL_SECURE_OUT_OF_RANGE;
; 934  : 			}
; 935  : 
; 936  :  #elif _ITERATOR_DEBUG_LEVEL == 1
; 937  : 		_SCL_SECURE_VALIDATE_RANGE(_Pos < size());
; 938  :  #endif /* _ITERATOR_DEBUG_LEVEL */
; 939  : 
; 940  : 		return (*(this->_Myfirst + _Pos));

  00003	8b 45 08	 mov	 eax, DWORD PTR __Pos$[ebp]
  00006	6b c0 0c	 imul	 eax, 12			; 0000000cH
  00009	03 01		 add	 eax, DWORD PTR [ecx]

; 941  : 		}

  0000b	5d		 pop	 ebp
  0000c	c2 04 00	 ret	 4
??A?$vector@UtagSuperDimension_HP_Scale_Info@@V?$allocator@UtagSuperDimension_HP_Scale_Info@@@std@@@std@@QAEAAUtagSuperDimension_HP_Scale_Info@@I@Z ENDP ; std::vector<tagSuperDimension_HP_Scale_Info,std::allocator<tagSuperDimension_HP_Scale_Info> >::operator[]
_TEXT	ENDS
PUBLIC	??0?$_Vector_const_iterator@V?$_Vector_val@PAVioBaseChar@@V?$allocator@PAVioBaseChar@@@std@@@std@@@std@@QAE@XZ ; std::_Vector_const_iterator<std::_Vector_val<ioBaseChar *,std::allocator<ioBaseChar *> > >::_Vector_const_iterator<std::_Vector_val<ioBaseChar *,std::allocator<ioBaseChar *> > >
; Function compile flags: /Ogsp
;	COMDAT ??0?$_Vector_const_iterator@V?$_Vector_val@PAVioBaseChar@@V?$allocator@PAVioBaseChar@@@std@@@std@@@std@@QAE@XZ
_TEXT	SEGMENT
??0?$_Vector_const_iterator@V?$_Vector_val@PAVioBaseChar@@V?$allocator@PAVioBaseChar@@@std@@@std@@@std@@QAE@XZ PROC ; std::_Vector_const_iterator<std::_Vector_val<ioBaseChar *,std::allocator<ioBaseChar *> > >::_Vector_const_iterator<std::_Vector_val<ioBaseChar *,std::allocator<ioBaseChar *> > >, COMDAT
; _this$ = ecx

; 40   : 		{	// construct with null pointer

  00000	8b c1		 mov	 eax, ecx
  00002	83 20 00	 and	 DWORD PTR [eax], 0

; 41   : 		}

  00005	c3		 ret	 0
??0?$_Vector_const_iterator@V?$_Vector_val@PAVioBaseChar@@V?$allocator@PAVioBaseChar@@@std@@@std@@@std@@QAE@XZ ENDP ; std::_Vector_const_iterator<std::_Vector_val<ioBaseChar *,std::allocator<ioBaseChar *> > >::_Vector_const_iterator<std::_Vector_val<ioBaseChar *,std::allocator<ioBaseChar *> > >
_TEXT	ENDS
PUBLIC	??D?$_Vector_const_iterator@V?$_Vector_val@PAVioBaseChar@@V?$allocator@PAVioBaseChar@@@std@@@std@@@std@@QBEABQAVioBaseChar@@XZ ; std::_Vector_const_iterator<std::_Vector_val<ioBaseChar *,std::allocator<ioBaseChar *> > >::operator*
; Function compile flags: /Ogsp
;	COMDAT ??D?$_Vector_const_iterator@V?$_Vector_val@PAVioBaseChar@@V?$allocator@PAVioBaseChar@@@std@@@std@@@std@@QBEABQAVioBaseChar@@XZ
_TEXT	SEGMENT
??D?$_Vector_const_iterator@V?$_Vector_val@PAVioBaseChar@@V?$allocator@PAVioBaseChar@@@std@@@std@@@std@@QBEABQAVioBaseChar@@XZ PROC ; std::_Vector_const_iterator<std::_Vector_val<ioBaseChar *,std::allocator<ioBaseChar *> > >::operator*, COMDAT
; _this$ = ecx

; 64   :  #if _ITERATOR_DEBUG_LEVEL == 2
; 65   : 		if (this->_Getcont() == 0
; 66   : 			|| this->_Ptr == 0
; 67   : 			|| this->_Ptr < ((_Myvec *)this->_Getcont())->_Myfirst
; 68   : 			|| ((_Myvec *)this->_Getcont())->_Mylast <= this->_Ptr)
; 69   : 			{	// report error
; 70   : 			_DEBUG_ERROR("vector iterator not dereferencable");
; 71   : 			_SCL_SECURE_OUT_OF_RANGE;
; 72   : 			}
; 73   : 
; 74   :  #elif _ITERATOR_DEBUG_LEVEL == 1
; 75   : 		_SCL_SECURE_VALIDATE(this->_Getcont() != 0);
; 76   : 		_SCL_SECURE_VALIDATE_RANGE(
; 77   : 			this->_Ptr != 0
; 78   : 			&& ((_Myvec *)this->_Getcont())->_Myfirst <= this->_Ptr
; 79   : 			&& this->_Ptr < ((_Myvec *)this->_Getcont())->_Mylast);
; 80   :  #endif /* _ITERATOR_DEBUG_LEVEL */
; 81   : 
; 82   : 		__analysis_assume(this->_Ptr != 0);
; 83   : 
; 84   : 		return (*this->_Ptr);

  00000	8b 01		 mov	 eax, DWORD PTR [ecx]

; 85   : 		}

  00002	c3		 ret	 0
??D?$_Vector_const_iterator@V?$_Vector_val@PAVioBaseChar@@V?$allocator@PAVioBaseChar@@@std@@@std@@@std@@QBEABQAVioBaseChar@@XZ ENDP ; std::_Vector_const_iterator<std::_Vector_val<ioBaseChar *,std::allocator<ioBaseChar *> > >::operator*
_TEXT	ENDS
PUBLIC	??E?$_Vector_const_iterator@V?$_Vector_val@PAVioBaseChar@@V?$allocator@PAVioBaseChar@@@std@@@std@@@std@@QAEAAV01@XZ ; std::_Vector_const_iterator<std::_Vector_val<ioBaseChar *,std::allocator<ioBaseChar *> > >::operator++
; Function compile flags: /Ogsp
;	COMDAT ??E?$_Vector_const_iterator@V?$_Vector_val@PAVioBaseChar@@V?$allocator@PAVioBaseChar@@@std@@@std@@@std@@QAEAAV01@XZ
_TEXT	SEGMENT
??E?$_Vector_const_iterator@V?$_Vector_val@PAVioBaseChar@@V?$allocator@PAVioBaseChar@@@std@@@std@@@std@@QAEAAV01@XZ PROC ; std::_Vector_const_iterator<std::_Vector_val<ioBaseChar *,std::allocator<ioBaseChar *> > >::operator++, COMDAT
; _this$ = ecx

; 93   : 		{	// preincrement

  00000	8b c1		 mov	 eax, ecx

; 94   :  #if _ITERATOR_DEBUG_LEVEL == 2
; 95   : 		if (this->_Getcont() == 0
; 96   : 			|| this->_Ptr == 0
; 97   : 			|| ((_Myvec *)this->_Getcont())->_Mylast <= this->_Ptr)
; 98   : 			{	// report error
; 99   : 			_DEBUG_ERROR("vector iterator not incrementable");
; 100  : 			_SCL_SECURE_OUT_OF_RANGE;
; 101  : 			}
; 102  : 
; 103  :  #elif _ITERATOR_DEBUG_LEVEL == 1
; 104  : 		_SCL_SECURE_VALIDATE(this->_Getcont() != 0);
; 105  : 		_SCL_SECURE_VALIDATE_RANGE(
; 106  : 			this->_Ptr != 0
; 107  : 			&& this->_Ptr < ((_Myvec *)this->_Getcont())->_Mylast);
; 108  :  #endif /* _ITERATOR_DEBUG_LEVEL */
; 109  : 
; 110  : 		++this->_Ptr;

  00002	83 00 04	 add	 DWORD PTR [eax], 4

; 111  : 		return (*this);
; 112  : 		}

  00005	c3		 ret	 0
??E?$_Vector_const_iterator@V?$_Vector_val@PAVioBaseChar@@V?$allocator@PAVioBaseChar@@@std@@@std@@@std@@QAEAAV01@XZ ENDP ; std::_Vector_const_iterator<std::_Vector_val<ioBaseChar *,std::allocator<ioBaseChar *> > >::operator++
_TEXT	ENDS
PUBLIC	?capacity@?$vector@VioHashString@@V?$allocator@VioHashString@@@std@@@std@@QBEIXZ ; std::vector<ioHashString,std::allocator<ioHashString> >::capacity
; Function compile flags: /Ogsp
;	COMDAT ?capacity@?$vector@VioHashString@@V?$allocator@VioHashString@@@std@@@std@@QBEIXZ
_TEXT	SEGMENT
?capacity@?$vector@VioHashString@@V?$allocator@VioHashString@@@std@@@std@@QBEIXZ PROC ; std::vector<ioHashString,std::allocator<ioHashString> >::capacity, COMDAT
; _this$ = ecx

; 777  : 		return (this->_Myend - this->_Myfirst);

  00000	8b 41 08	 mov	 eax, DWORD PTR [ecx+8]
  00003	2b 01		 sub	 eax, DWORD PTR [ecx]
  00005	c1 f8 04	 sar	 eax, 4

; 778  : 		}

  00008	c3		 ret	 0
?capacity@?$vector@VioHashString@@V?$allocator@VioHashString@@@std@@@std@@QBEIXZ ENDP ; std::vector<ioHashString,std::allocator<ioHashString> >::capacity
_TEXT	ENDS
PUBLIC	?_Inside@?$vector@VioHashString@@V?$allocator@VioHashString@@@std@@@std@@IBE_NPBVioHashString@@@Z ; std::vector<ioHashString,std::allocator<ioHashString> >::_Inside
; Function compile flags: /Ogsp
;	COMDAT ?_Inside@?$vector@VioHashString@@V?$allocator@VioHashString@@@std@@@std@@IBE_NPBVioHashString@@@Z
_TEXT	SEGMENT
__Ptr$ = 8						; size = 4
?_Inside@?$vector@VioHashString@@V?$allocator@VioHashString@@@std@@@std@@IBE_NPBVioHashString@@@Z PROC ; std::vector<ioHashString,std::allocator<ioHashString> >::_Inside, COMDAT
; _this$ = ecx

; 1285 : 		{	// test if _Ptr points inside vector

  00000	55		 push	 ebp
  00001	8b ec		 mov	 ebp, esp

; 1286 : 		return (_Ptr < this->_Mylast && this->_Myfirst <= _Ptr);

  00003	8b 45 08	 mov	 eax, DWORD PTR __Ptr$[ebp]
  00006	3b 41 04	 cmp	 eax, DWORD PTR [ecx+4]
  00009	73 09		 jae	 SHORT $LN3@Inside
  0000b	39 01		 cmp	 DWORD PTR [ecx], eax
  0000d	77 05		 ja	 SHORT $LN3@Inside
  0000f	33 c0		 xor	 eax, eax
  00011	40		 inc	 eax
  00012	eb 02		 jmp	 SHORT $LN4@Inside
$LN3@Inside:
  00014	33 c0		 xor	 eax, eax
$LN4@Inside:

; 1287 : 		}

  00016	5d		 pop	 ebp
  00017	c2 04 00	 ret	 4
?_Inside@?$vector@VioHashString@@V?$allocator@VioHashString@@@std@@@std@@IBE_NPBVioHashString@@@Z ENDP ; std::vector<ioHashString,std::allocator<ioHashString> >::_Inside
_TEXT	ENDS
PUBLIC	?_Orphan_range@?$vector@VioHashString@@V?$allocator@VioHashString@@@std@@@std@@IBEXPAVioHashString@@0@Z ; std::vector<ioHashString,std::allocator<ioHashString> >::_Orphan_range
; Function compile flags: /Ogsp
;	COMDAT ?_Orphan_range@?$vector@VioHashString@@V?$allocator@VioHashString@@@std@@@std@@IBEXPAVioHashString@@0@Z
_TEXT	SEGMENT
___formal$ = 8						; size = 4
___formal$ = 12						; size = 4
?_Orphan_range@?$vector@VioHashString@@V?$allocator@VioHashString@@@std@@@std@@IBEXPAVioHashString@@0@Z PROC ; std::vector<ioHashString,std::allocator<ioHashString> >::_Orphan_range, COMDAT
; _this$ = ecx

; 1454 : 		}

  00000	c2 08 00	 ret	 8
?_Orphan_range@?$vector@VioHashString@@V?$allocator@VioHashString@@@std@@@std@@IBEXPAVioHashString@@0@Z ENDP ; std::vector<ioHashString,std::allocator<ioHashString> >::_Orphan_range
_TEXT	ENDS
PUBLIC	?capacity@?$vector@UAttackAttribute@@V?$allocator@UAttackAttribute@@@std@@@std@@QBEIXZ ; std::vector<AttackAttribute,std::allocator<AttackAttribute> >::capacity
; Function compile flags: /Ogsp
;	COMDAT ?capacity@?$vector@UAttackAttribute@@V?$allocator@UAttackAttribute@@@std@@@std@@QBEIXZ
_TEXT	SEGMENT
?capacity@?$vector@UAttackAttribute@@V?$allocator@UAttackAttribute@@@std@@@std@@QBEIXZ PROC ; std::vector<AttackAttribute,std::allocator<AttackAttribute> >::capacity, COMDAT
; _this$ = ecx

; 777  : 		return (this->_Myend - this->_Myfirst);

  00000	8b 41 08	 mov	 eax, DWORD PTR [ecx+8]
  00003	2b 01		 sub	 eax, DWORD PTR [ecx]
  00005	6a 50		 push	 80			; 00000050H
  00007	99		 cdq
  00008	59		 pop	 ecx
  00009	f7 f9		 idiv	 ecx

; 778  : 		}

  0000b	c3		 ret	 0
?capacity@?$vector@UAttackAttribute@@V?$allocator@UAttackAttribute@@@std@@@std@@QBEIXZ ENDP ; std::vector<AttackAttribute,std::allocator<AttackAttribute> >::capacity
_TEXT	ENDS
PUBLIC	?size@?$vector@UAttackAttribute@@V?$allocator@UAttackAttribute@@@std@@@std@@QBEIXZ ; std::vector<AttackAttribute,std::allocator<AttackAttribute> >::size
; Function compile flags: /Ogsp
;	COMDAT ?size@?$vector@UAttackAttribute@@V?$allocator@UAttackAttribute@@@std@@@std@@QBEIXZ
_TEXT	SEGMENT
?size@?$vector@UAttackAttribute@@V?$allocator@UAttackAttribute@@@std@@@std@@QBEIXZ PROC ; std::vector<AttackAttribute,std::allocator<AttackAttribute> >::size, COMDAT
; _this$ = ecx

; 879  : 		return (this->_Mylast - this->_Myfirst);

  00000	8b 41 04	 mov	 eax, DWORD PTR [ecx+4]
  00003	2b 01		 sub	 eax, DWORD PTR [ecx]
  00005	6a 50		 push	 80			; 00000050H
  00007	99		 cdq
  00008	59		 pop	 ecx
  00009	f7 f9		 idiv	 ecx

; 880  : 		}

  0000b	c3		 ret	 0
?size@?$vector@UAttackAttribute@@V?$allocator@UAttackAttribute@@@std@@@std@@QBEIXZ ENDP ; std::vector<AttackAttribute,std::allocator<AttackAttribute> >::size
_TEXT	ENDS
PUBLIC	?_Inside@?$vector@UAttackAttribute@@V?$allocator@UAttackAttribute@@@std@@@std@@IBE_NPBUAttackAttribute@@@Z ; std::vector<AttackAttribute,std::allocator<AttackAttribute> >::_Inside
; Function compile flags: /Ogsp
;	COMDAT ?_Inside@?$vector@UAttackAttribute@@V?$allocator@UAttackAttribute@@@std@@@std@@IBE_NPBUAttackAttribute@@@Z
_TEXT	SEGMENT
__Ptr$ = 8						; size = 4
?_Inside@?$vector@UAttackAttribute@@V?$allocator@UAttackAttribute@@@std@@@std@@IBE_NPBUAttackAttribute@@@Z PROC ; std::vector<AttackAttribute,std::allocator<AttackAttribute> >::_Inside, COMDAT
; _this$ = ecx

; 1285 : 		{	// test if _Ptr points inside vector

  00000	55		 push	 ebp
  00001	8b ec		 mov	 ebp, esp

; 1286 : 		return (_Ptr < this->_Mylast && this->_Myfirst <= _Ptr);

  00003	8b 45 08	 mov	 eax, DWORD PTR __Ptr$[ebp]
  00006	3b 41 04	 cmp	 eax, DWORD PTR [ecx+4]
  00009	73 09		 jae	 SHORT $LN3@Inside@2
  0000b	39 01		 cmp	 DWORD PTR [ecx], eax
  0000d	77 05		 ja	 SHORT $LN3@Inside@2
  0000f	33 c0		 xor	 eax, eax
  00011	40		 inc	 eax
  00012	eb 02		 jmp	 SHORT $LN4@Inside@2
$LN3@Inside@2:
  00014	33 c0		 xor	 eax, eax
$LN4@Inside@2:

; 1287 : 		}

  00016	5d		 pop	 ebp
  00017	c2 04 00	 ret	 4
?_Inside@?$vector@UAttackAttribute@@V?$allocator@UAttackAttribute@@@std@@@std@@IBE_NPBUAttackAttribute@@@Z ENDP ; std::vector<AttackAttribute,std::allocator<AttackAttribute> >::_Inside
_TEXT	ENDS
PUBLIC	??_C@_0BD@OLBABOEK@vector?$DMT?$DO?5too?5long?$AA@ ; `string'
PUBLIC	?_Xlen@?$vector@UAttackAttribute@@V?$allocator@UAttackAttribute@@@std@@@std@@IBEXXZ ; std::vector<AttackAttribute,std::allocator<AttackAttribute> >::_Xlen
EXTRN	__imp_?_Xlength_error@std@@YAXPBD@Z:PROC
;	COMDAT ??_C@_0BD@OLBABOEK@vector?$DMT?$DO?5too?5long?$AA@
CONST	SEGMENT
??_C@_0BD@OLBABOEK@vector?$DMT?$DO?5too?5long?$AA@ DB 'vector<T> too long'
	DB	00H						; `string'
; Function compile flags: /Ogsp
CONST	ENDS
;	COMDAT ?_Xlen@?$vector@UAttackAttribute@@V?$allocator@UAttackAttribute@@@std@@@std@@IBEXXZ
_TEXT	SEGMENT
?_Xlen@?$vector@UAttackAttribute@@V?$allocator@UAttackAttribute@@@std@@@std@@IBEXXZ PROC ; std::vector<AttackAttribute,std::allocator<AttackAttribute> >::_Xlen, COMDAT
; _this$ = ecx

; 1427 : 		_Xlength_error("vector<T> too long");

  00000	68 00 00 00 00	 push	 OFFSET ??_C@_0BD@OLBABOEK@vector?$DMT?$DO?5too?5long?$AA@
  00005	ff 15 00 00 00
	00		 call	 DWORD PTR __imp_?_Xlength_error@std@@YAXPBD@Z
$LN4@Xlen:
$LN3@Xlen:
  0000b	cc		 int	 3
?_Xlen@?$vector@UAttackAttribute@@V?$allocator@UAttackAttribute@@@std@@@std@@IBEXXZ ENDP ; std::vector<AttackAttribute,std::allocator<AttackAttribute> >::_Xlen
_TEXT	ENDS
PUBLIC	?_Orphan_range@?$vector@UAttackAttribute@@V?$allocator@UAttackAttribute@@@std@@@std@@IBEXPAUAttackAttribute@@0@Z ; std::vector<AttackAttribute,std::allocator<AttackAttribute> >::_Orphan_range
; Function compile flags: /Ogsp
;	COMDAT ?_Orphan_range@?$vector@UAttackAttribute@@V?$allocator@UAttackAttribute@@@std@@@std@@IBEXPAUAttackAttribute@@0@Z
_TEXT	SEGMENT
___formal$ = 8						; size = 4
___formal$ = 12						; size = 4
?_Orphan_range@?$vector@UAttackAttribute@@V?$allocator@UAttackAttribute@@@std@@@std@@IBEXPAUAttackAttribute@@0@Z PROC ; std::vector<AttackAttribute,std::allocator<AttackAttribute> >::_Orphan_range, COMDAT
; _this$ = ecx

; 1454 : 		}

  00000	c2 08 00	 ret	 8
?_Orphan_range@?$vector@UAttackAttribute@@V?$allocator@UAttackAttribute@@@std@@@std@@IBEXPAUAttackAttribute@@0@Z ENDP ; std::vector<AttackAttribute,std::allocator<AttackAttribute> >::_Orphan_range
_TEXT	ENDS
PUBLIC	?capacity@?$vector@UDistInfo@ioSuperDimensionItem@@V?$allocator@UDistInfo@ioSuperDimensionItem@@@std@@@std@@QBEIXZ ; std::vector<ioSuperDimensionItem::DistInfo,std::allocator<ioSuperDimensionItem::DistInfo> >::capacity
; Function compile flags: /Ogsp
;	COMDAT ?capacity@?$vector@UDistInfo@ioSuperDimensionItem@@V?$allocator@UDistInfo@ioSuperDimensionItem@@@std@@@std@@QBEIXZ
_TEXT	SEGMENT
?capacity@?$vector@UDistInfo@ioSuperDimensionItem@@V?$allocator@UDistInfo@ioSuperDimensionItem@@@std@@@std@@QBEIXZ PROC ; std::vector<ioSuperDimensionItem::DistInfo,std::allocator<ioSuperDimensionItem::DistInfo> >::capacity, COMDAT
; _this$ = ecx

; 777  : 		return (this->_Myend - this->_Myfirst);

  00000	8b 41 08	 mov	 eax, DWORD PTR [ecx+8]
  00003	2b 01		 sub	 eax, DWORD PTR [ecx]
  00005	c1 f8 03	 sar	 eax, 3

; 778  : 		}

  00008	c3		 ret	 0
?capacity@?$vector@UDistInfo@ioSuperDimensionItem@@V?$allocator@UDistInfo@ioSuperDimensionItem@@@std@@@std@@QBEIXZ ENDP ; std::vector<ioSuperDimensionItem::DistInfo,std::allocator<ioSuperDimensionItem::DistInfo> >::capacity
_TEXT	ENDS
PUBLIC	?size@?$vector@UDistInfo@ioSuperDimensionItem@@V?$allocator@UDistInfo@ioSuperDimensionItem@@@std@@@std@@QBEIXZ ; std::vector<ioSuperDimensionItem::DistInfo,std::allocator<ioSuperDimensionItem::DistInfo> >::size
; Function compile flags: /Ogsp
;	COMDAT ?size@?$vector@UDistInfo@ioSuperDimensionItem@@V?$allocator@UDistInfo@ioSuperDimensionItem@@@std@@@std@@QBEIXZ
_TEXT	SEGMENT
?size@?$vector@UDistInfo@ioSuperDimensionItem@@V?$allocator@UDistInfo@ioSuperDimensionItem@@@std@@@std@@QBEIXZ PROC ; std::vector<ioSuperDimensionItem::DistInfo,std::allocator<ioSuperDimensionItem::DistInfo> >::size, COMDAT
; _this$ = ecx

; 879  : 		return (this->_Mylast - this->_Myfirst);

  00000	8b 41 04	 mov	 eax, DWORD PTR [ecx+4]
  00003	2b 01		 sub	 eax, DWORD PTR [ecx]
  00005	c1 f8 03	 sar	 eax, 3

; 880  : 		}

  00008	c3		 ret	 0
?size@?$vector@UDistInfo@ioSuperDimensionItem@@V?$allocator@UDistInfo@ioSuperDimensionItem@@@std@@@std@@QBEIXZ ENDP ; std::vector<ioSuperDimensionItem::DistInfo,std::allocator<ioSuperDimensionItem::DistInfo> >::size
_TEXT	ENDS
PUBLIC	?_Inside@?$vector@UDistInfo@ioSuperDimensionItem@@V?$allocator@UDistInfo@ioSuperDimensionItem@@@std@@@std@@IBE_NPBUDistInfo@ioSuperDimensionItem@@@Z ; std::vector<ioSuperDimensionItem::DistInfo,std::allocator<ioSuperDimensionItem::DistInfo> >::_Inside
; Function compile flags: /Ogsp
;	COMDAT ?_Inside@?$vector@UDistInfo@ioSuperDimensionItem@@V?$allocator@UDistInfo@ioSuperDimensionItem@@@std@@@std@@IBE_NPBUDistInfo@ioSuperDimensionItem@@@Z
_TEXT	SEGMENT
__Ptr$ = 8						; size = 4
?_Inside@?$vector@UDistInfo@ioSuperDimensionItem@@V?$allocator@UDistInfo@ioSuperDimensionItem@@@std@@@std@@IBE_NPBUDistInfo@ioSuperDimensionItem@@@Z PROC ; std::vector<ioSuperDimensionItem::DistInfo,std::allocator<ioSuperDimensionItem::DistInfo> >::_Inside, COMDAT
; _this$ = ecx

; 1285 : 		{	// test if _Ptr points inside vector

  00000	55		 push	 ebp
  00001	8b ec		 mov	 ebp, esp

; 1286 : 		return (_Ptr < this->_Mylast && this->_Myfirst <= _Ptr);

  00003	8b 45 08	 mov	 eax, DWORD PTR __Ptr$[ebp]
  00006	3b 41 04	 cmp	 eax, DWORD PTR [ecx+4]
  00009	73 09		 jae	 SHORT $LN3@Inside@3
  0000b	39 01		 cmp	 DWORD PTR [ecx], eax
  0000d	77 05		 ja	 SHORT $LN3@Inside@3
  0000f	33 c0		 xor	 eax, eax
  00011	40		 inc	 eax
  00012	eb 02		 jmp	 SHORT $LN4@Inside@3
$LN3@Inside@3:
  00014	33 c0		 xor	 eax, eax
$LN4@Inside@3:

; 1287 : 		}

  00016	5d		 pop	 ebp
  00017	c2 04 00	 ret	 4
?_Inside@?$vector@UDistInfo@ioSuperDimensionItem@@V?$allocator@UDistInfo@ioSuperDimensionItem@@@std@@@std@@IBE_NPBUDistInfo@ioSuperDimensionItem@@@Z ENDP ; std::vector<ioSuperDimensionItem::DistInfo,std::allocator<ioSuperDimensionItem::DistInfo> >::_Inside
_TEXT	ENDS
PUBLIC	?_Xlen@?$vector@UDistInfo@ioSuperDimensionItem@@V?$allocator@UDistInfo@ioSuperDimensionItem@@@std@@@std@@IBEXXZ ; std::vector<ioSuperDimensionItem::DistInfo,std::allocator<ioSuperDimensionItem::DistInfo> >::_Xlen
; Function compile flags: /Ogsp
;	COMDAT ?_Xlen@?$vector@UDistInfo@ioSuperDimensionItem@@V?$allocator@UDistInfo@ioSuperDimensionItem@@@std@@@std@@IBEXXZ
_TEXT	SEGMENT
?_Xlen@?$vector@UDistInfo@ioSuperDimensionItem@@V?$allocator@UDistInfo@ioSuperDimensionItem@@@std@@@std@@IBEXXZ PROC ; std::vector<ioSuperDimensionItem::DistInfo,std::allocator<ioSuperDimensionItem::DistInfo> >::_Xlen, COMDAT
; _this$ = ecx

; 1427 : 		_Xlength_error("vector<T> too long");

  00000	68 00 00 00 00	 push	 OFFSET ??_C@_0BD@OLBABOEK@vector?$DMT?$DO?5too?5long?$AA@
  00005	ff 15 00 00 00
	00		 call	 DWORD PTR __imp_?_Xlength_error@std@@YAXPBD@Z
$LN4@Xlen@2:
$LN3@Xlen@2:
  0000b	cc		 int	 3
?_Xlen@?$vector@UDistInfo@ioSuperDimensionItem@@V?$allocator@UDistInfo@ioSuperDimensionItem@@@std@@@std@@IBEXXZ ENDP ; std::vector<ioSuperDimensionItem::DistInfo,std::allocator<ioSuperDimensionItem::DistInfo> >::_Xlen
_TEXT	ENDS
PUBLIC	?_Orphan_range@?$vector@UDistInfo@ioSuperDimensionItem@@V?$allocator@UDistInfo@ioSuperDimensionItem@@@std@@@std@@IBEXPAUDistInfo@ioSuperDimensionItem@@0@Z ; std::vector<ioSuperDimensionItem::DistInfo,std::allocator<ioSuperDimensionItem::DistInfo> >::_Orphan_range
; Function compile flags: /Ogsp
;	COMDAT ?_Orphan_range@?$vector@UDistInfo@ioSuperDimensionItem@@V?$allocator@UDistInfo@ioSuperDimensionItem@@@std@@@std@@IBEXPAUDistInfo@ioSuperDimensionItem@@0@Z
_TEXT	SEGMENT
___formal$ = 8						; size = 4
___formal$ = 12						; size = 4
?_Orphan_range@?$vector@UDistInfo@ioSuperDimensionItem@@V?$allocator@UDistInfo@ioSuperDimensionItem@@@std@@@std@@IBEXPAUDistInfo@ioSuperDimensionItem@@0@Z PROC ; std::vector<ioSuperDimensionItem::DistInfo,std::allocator<ioSuperDimensionItem::DistInfo> >::_Orphan_range, COMDAT
; _this$ = ecx

; 1454 : 		}

  00000	c2 08 00	 ret	 8
?_Orphan_range@?$vector@UDistInfo@ioSuperDimensionItem@@V?$allocator@UDistInfo@ioSuperDimensionItem@@@std@@@std@@IBEXPAUDistInfo@ioSuperDimensionItem@@0@Z ENDP ; std::vector<ioSuperDimensionItem::DistInfo,std::allocator<ioSuperDimensionItem::DistInfo> >::_Orphan_range
_TEXT	ENDS
PUBLIC	??1?$_Vector_val@UDistInfo@ioSuperDimensionItem@@V?$allocator@UDistInfo@ioSuperDimensionItem@@@std@@@std@@QAE@XZ ; std::_Vector_val<ioSuperDimensionItem::DistInfo,std::allocator<ioSuperDimensionItem::DistInfo> >::~_Vector_val<ioSuperDimensionItem::DistInfo,std::allocator<ioSuperDimensionItem::DistInfo> >
; Function compile flags: /Ogsp
;	COMDAT ??1?$_Vector_val@UDistInfo@ioSuperDimensionItem@@V?$allocator@UDistInfo@ioSuperDimensionItem@@@std@@@std@@QAE@XZ
_TEXT	SEGMENT
??1?$_Vector_val@UDistInfo@ioSuperDimensionItem@@V?$allocator@UDistInfo@ioSuperDimensionItem@@@std@@@std@@QAE@XZ PROC ; std::_Vector_val<ioSuperDimensionItem::DistInfo,std::allocator<ioSuperDimensionItem::DistInfo> >::~_Vector_val<ioSuperDimensionItem::DistInfo,std::allocator<ioSuperDimensionItem::DistInfo> >, COMDAT
; _this$ = ecx

; 434  : 		}

  00000	c3		 ret	 0
??1?$_Vector_val@UDistInfo@ioSuperDimensionItem@@V?$allocator@UDistInfo@ioSuperDimensionItem@@@std@@@std@@QAE@XZ ENDP ; std::_Vector_val<ioSuperDimensionItem::DistInfo,std::allocator<ioSuperDimensionItem::DistInfo> >::~_Vector_val<ioSuperDimensionItem::DistInfo,std::allocator<ioSuperDimensionItem::DistInfo> >
_TEXT	ENDS
PUBLIC	??0?$allocator@UDistInfo@ioSuperDimensionItem@@@std@@QAE@XZ ; std::allocator<ioSuperDimensionItem::DistInfo>::allocator<ioSuperDimensionItem::DistInfo>
; Function compile flags: /Ogsp
; File c:\program files (x86)\microsoft visual studio 10.0\vc\include\xmemory
;	COMDAT ??0?$allocator@UDistInfo@ioSuperDimensionItem@@@std@@QAE@XZ
_TEXT	SEGMENT
??0?$allocator@UDistInfo@ioSuperDimensionItem@@@std@@QAE@XZ PROC ; std::allocator<ioSuperDimensionItem::DistInfo>::allocator<ioSuperDimensionItem::DistInfo>, COMDAT
; _this$ = ecx

; 161  : 	_ALLOCATOR() _THROW0()

  00000	8b c1		 mov	 eax, ecx

; 162  : 		{	// construct default allocator (do nothing)
; 163  : 		}

  00002	c3		 ret	 0
??0?$allocator@UDistInfo@ioSuperDimensionItem@@@std@@QAE@XZ ENDP ; std::allocator<ioSuperDimensionItem::DistInfo>::allocator<ioSuperDimensionItem::DistInfo>
_TEXT	ENDS
PUBLIC	?deallocate@?$allocator@UDistInfo@ioSuperDimensionItem@@@std@@QAEXPAUDistInfo@ioSuperDimensionItem@@I@Z ; std::allocator<ioSuperDimensionItem::DistInfo>::deallocate
; Function compile flags: /Ogsp
;	COMDAT ?deallocate@?$allocator@UDistInfo@ioSuperDimensionItem@@@std@@QAEXPAUDistInfo@ioSuperDimensionItem@@I@Z
_TEXT	SEGMENT
__Ptr$ = 8						; size = 4
___formal$ = 12						; size = 4
?deallocate@?$allocator@UDistInfo@ioSuperDimensionItem@@@std@@QAEXPAUDistInfo@ioSuperDimensionItem@@I@Z PROC ; std::allocator<ioSuperDimensionItem::DistInfo>::deallocate, COMDAT
; _this$ = ecx

; 181  : 		{	// deallocate object at _Ptr, ignore size

  00000	55		 push	 ebp
  00001	8b ec		 mov	 ebp, esp

; 182  : 		::operator delete(_Ptr);

  00003	ff 75 08	 push	 DWORD PTR __Ptr$[ebp]
  00006	e8 00 00 00 00	 call	 ??3@YAXPAX@Z		; operator delete
  0000b	59		 pop	 ecx

; 183  : 		}

  0000c	5d		 pop	 ebp
  0000d	c2 08 00	 ret	 8
?deallocate@?$allocator@UDistInfo@ioSuperDimensionItem@@@std@@QAEXPAUDistInfo@ioSuperDimensionItem@@I@Z ENDP ; std::allocator<ioSuperDimensionItem::DistInfo>::deallocate
_TEXT	ENDS
PUBLIC	?_Inside@?$vector@UtagSuperDimension_HP_Scale_Info@@V?$allocator@UtagSuperDimension_HP_Scale_Info@@@std@@@std@@IBE_NPBUtagSuperDimension_HP_Scale_Info@@@Z ; std::vector<tagSuperDimension_HP_Scale_Info,std::allocator<tagSuperDimension_HP_Scale_Info> >::_Inside
; Function compile flags: /Ogsp
; File c:\program files (x86)\microsoft visual studio 10.0\vc\include\vector
;	COMDAT ?_Inside@?$vector@UtagSuperDimension_HP_Scale_Info@@V?$allocator@UtagSuperDimension_HP_Scale_Info@@@std@@@std@@IBE_NPBUtagSuperDimension_HP_Scale_Info@@@Z
_TEXT	SEGMENT
__Ptr$ = 8						; size = 4
?_Inside@?$vector@UtagSuperDimension_HP_Scale_Info@@V?$allocator@UtagSuperDimension_HP_Scale_Info@@@std@@@std@@IBE_NPBUtagSuperDimension_HP_Scale_Info@@@Z PROC ; std::vector<tagSuperDimension_HP_Scale_Info,std::allocator<tagSuperDimension_HP_Scale_Info> >::_Inside, COMDAT
; _this$ = ecx

; 1285 : 		{	// test if _Ptr points inside vector

  00000	55		 push	 ebp
  00001	8b ec		 mov	 ebp, esp

; 1286 : 		return (_Ptr < this->_Mylast && this->_Myfirst <= _Ptr);

  00003	8b 45 08	 mov	 eax, DWORD PTR __Ptr$[ebp]
  00006	3b 41 04	 cmp	 eax, DWORD PTR [ecx+4]
  00009	73 09		 jae	 SHORT $LN3@Inside@4
  0000b	39 01		 cmp	 DWORD PTR [ecx], eax
  0000d	77 05		 ja	 SHORT $LN3@Inside@4
  0000f	33 c0		 xor	 eax, eax
  00011	40		 inc	 eax
  00012	eb 02		 jmp	 SHORT $LN4@Inside@4
$LN3@Inside@4:
  00014	33 c0		 xor	 eax, eax
$LN4@Inside@4:

; 1287 : 		}

  00016	5d		 pop	 ebp
  00017	c2 04 00	 ret	 4
?_Inside@?$vector@UtagSuperDimension_HP_Scale_Info@@V?$allocator@UtagSuperDimension_HP_Scale_Info@@@std@@@std@@IBE_NPBUtagSuperDimension_HP_Scale_Info@@@Z ENDP ; std::vector<tagSuperDimension_HP_Scale_Info,std::allocator<tagSuperDimension_HP_Scale_Info> >::_Inside
_TEXT	ENDS
PUBLIC	?_Orphan_range@?$vector@UtagSuperDimension_HP_Scale_Info@@V?$allocator@UtagSuperDimension_HP_Scale_Info@@@std@@@std@@IBEXPAUtagSuperDimension_HP_Scale_Info@@0@Z ; std::vector<tagSuperDimension_HP_Scale_Info,std::allocator<tagSuperDimension_HP_Scale_Info> >::_Orphan_range
; Function compile flags: /Ogsp
;	COMDAT ?_Orphan_range@?$vector@UtagSuperDimension_HP_Scale_Info@@V?$allocator@UtagSuperDimension_HP_Scale_Info@@@std@@@std@@IBEXPAUtagSuperDimension_HP_Scale_Info@@0@Z
_TEXT	SEGMENT
___formal$ = 8						; size = 4
___formal$ = 12						; size = 4
?_Orphan_range@?$vector@UtagSuperDimension_HP_Scale_Info@@V?$allocator@UtagSuperDimension_HP_Scale_Info@@@std@@@std@@IBEXPAUtagSuperDimension_HP_Scale_Info@@0@Z PROC ; std::vector<tagSuperDimension_HP_Scale_Info,std::allocator<tagSuperDimension_HP_Scale_Info> >::_Orphan_range, COMDAT
; _this$ = ecx

; 1454 : 		}

  00000	c2 08 00	 ret	 8
?_Orphan_range@?$vector@UtagSuperDimension_HP_Scale_Info@@V?$allocator@UtagSuperDimension_HP_Scale_Info@@@std@@@std@@IBEXPAUtagSuperDimension_HP_Scale_Info@@0@Z ENDP ; std::vector<tagSuperDimension_HP_Scale_Info,std::allocator<tagSuperDimension_HP_Scale_Info> >::_Orphan_range
_TEXT	ENDS
PUBLIC	??1?$_Vector_val@UtagSuperDimension_HP_Scale_Info@@V?$allocator@UtagSuperDimension_HP_Scale_Info@@@std@@@std@@QAE@XZ ; std::_Vector_val<tagSuperDimension_HP_Scale_Info,std::allocator<tagSuperDimension_HP_Scale_Info> >::~_Vector_val<tagSuperDimension_HP_Scale_Info,std::allocator<tagSuperDimension_HP_Scale_Info> >
; Function compile flags: /Ogsp
;	COMDAT ??1?$_Vector_val@UtagSuperDimension_HP_Scale_Info@@V?$allocator@UtagSuperDimension_HP_Scale_Info@@@std@@@std@@QAE@XZ
_TEXT	SEGMENT
??1?$_Vector_val@UtagSuperDimension_HP_Scale_Info@@V?$allocator@UtagSuperDimension_HP_Scale_Info@@@std@@@std@@QAE@XZ PROC ; std::_Vector_val<tagSuperDimension_HP_Scale_Info,std::allocator<tagSuperDimension_HP_Scale_Info> >::~_Vector_val<tagSuperDimension_HP_Scale_Info,std::allocator<tagSuperDimension_HP_Scale_Info> >, COMDAT
; _this$ = ecx

; 434  : 		}

  00000	c3		 ret	 0
??1?$_Vector_val@UtagSuperDimension_HP_Scale_Info@@V?$allocator@UtagSuperDimension_HP_Scale_Info@@@std@@@std@@QAE@XZ ENDP ; std::_Vector_val<tagSuperDimension_HP_Scale_Info,std::allocator<tagSuperDimension_HP_Scale_Info> >::~_Vector_val<tagSuperDimension_HP_Scale_Info,std::allocator<tagSuperDimension_HP_Scale_Info> >
_TEXT	ENDS
PUBLIC	??0?$allocator@UtagSuperDimension_HP_Scale_Info@@@std@@QAE@XZ ; std::allocator<tagSuperDimension_HP_Scale_Info>::allocator<tagSuperDimension_HP_Scale_Info>
; Function compile flags: /Ogsp
; File c:\program files (x86)\microsoft visual studio 10.0\vc\include\xmemory
;	COMDAT ??0?$allocator@UtagSuperDimension_HP_Scale_Info@@@std@@QAE@XZ
_TEXT	SEGMENT
??0?$allocator@UtagSuperDimension_HP_Scale_Info@@@std@@QAE@XZ PROC ; std::allocator<tagSuperDimension_HP_Scale_Info>::allocator<tagSuperDimension_HP_Scale_Info>, COMDAT
; _this$ = ecx

; 161  : 	_ALLOCATOR() _THROW0()

  00000	8b c1		 mov	 eax, ecx

; 162  : 		{	// construct default allocator (do nothing)
; 163  : 		}

  00002	c3		 ret	 0
??0?$allocator@UtagSuperDimension_HP_Scale_Info@@@std@@QAE@XZ ENDP ; std::allocator<tagSuperDimension_HP_Scale_Info>::allocator<tagSuperDimension_HP_Scale_Info>
_TEXT	ENDS
PUBLIC	??0?$allocator@UtagSuperDimension_HP_Scale_Info@@@std@@QAE@ABV01@@Z ; std::allocator<tagSuperDimension_HP_Scale_Info>::allocator<tagSuperDimension_HP_Scale_Info>
; Function compile flags: /Ogsp
;	COMDAT ??0?$allocator@UtagSuperDimension_HP_Scale_Info@@@std@@QAE@ABV01@@Z
_TEXT	SEGMENT
___formal$ = 8						; size = 4
??0?$allocator@UtagSuperDimension_HP_Scale_Info@@@std@@QAE@ABV01@@Z PROC ; std::allocator<tagSuperDimension_HP_Scale_Info>::allocator<tagSuperDimension_HP_Scale_Info>, COMDAT
; _this$ = ecx

; 165  : 	_ALLOCATOR(const _ALLOCATOR<_Ty>&) _THROW0()

  00000	8b c1		 mov	 eax, ecx

; 166  : 		{	// construct by copying (do nothing)
; 167  : 		}

  00002	c2 04 00	 ret	 4
??0?$allocator@UtagSuperDimension_HP_Scale_Info@@@std@@QAE@ABV01@@Z ENDP ; std::allocator<tagSuperDimension_HP_Scale_Info>::allocator<tagSuperDimension_HP_Scale_Info>
_TEXT	ENDS
PUBLIC	?DecryptValueToPool@?$CEncrypt@W4JumpState@@@@QAEXPAW4JumpState@@@Z ; CEncrypt<enum JumpState>::DecryptValueToPool
EXTRN	?DecryptByte@ccddaabb@@QBEXPBDPADH@Z:PROC	; ccddaabb::DecryptByte
; Function compile flags: /Ogsp
; File d:\lost saga for developer\youtube\tutorial\source\src\lsclient\encryptvalue.h
;	COMDAT ?DecryptValueToPool@?$CEncrypt@W4JumpState@@@@QAEXPAW4JumpState@@@Z
_TEXT	SEGMENT
_value$ = 8						; size = 4
?DecryptValueToPool@?$CEncrypt@W4JumpState@@@@QAEXPAW4JumpState@@@Z PROC ; CEncrypt<enum JumpState>::DecryptValueToPool, COMDAT
; _this$ = ecx

; 2317 : 	{

  00000	55		 push	 ebp
  00001	8b ec		 mov	 ebp, esp
  00003	56		 push	 esi

; 2318 : 		m_RC5.DecryptByte( m_MemPool, m_TempMem, sizeof(JumpState) );

  00004	8d 71 28	 lea	 esi, DWORD PTR [ecx+40]
  00007	6a 04		 push	 4
  00009	8d 41 1c	 lea	 eax, DWORD PTR [ecx+28]
  0000c	56		 push	 esi
  0000d	50		 push	 eax
  0000e	83 c1 0c	 add	 ecx, 12			; 0000000cH
  00011	e8 00 00 00 00	 call	 ?DecryptByte@ccddaabb@@QBEXPBDPADH@Z ; ccddaabb::DecryptByte

; 2319 : 		*value = *((JumpState*)m_TempMem);

  00016	8b 06		 mov	 eax, DWORD PTR [esi]
  00018	8b 4d 08	 mov	 ecx, DWORD PTR _value$[ebp]
  0001b	89 01		 mov	 DWORD PTR [ecx], eax
  0001d	5e		 pop	 esi

; 2320 : 	}

  0001e	5d		 pop	 ebp
  0001f	c2 04 00	 ret	 4
?DecryptValueToPool@?$CEncrypt@W4JumpState@@@@QAEXPAW4JumpState@@@Z ENDP ; CEncrypt<enum JumpState>::DecryptValueToPool
_TEXT	ENDS
PUBLIC	??0?$_Vector_const_iterator@V?$_Vector_val@PAVioBaseChar@@V?$allocator@PAVioBaseChar@@@std@@@std@@@std@@QAE@PAPAVioBaseChar@@PBU_Container_base0@1@@Z ; std::_Vector_const_iterator<std::_Vector_val<ioBaseChar *,std::allocator<ioBaseChar *> > >::_Vector_const_iterator<std::_Vector_val<ioBaseChar *,std::allocator<ioBaseChar *> > >
; Function compile flags: /Ogsp
; File c:\program files (x86)\microsoft visual studio 10.0\vc\include\vector
;	COMDAT ??0?$_Vector_const_iterator@V?$_Vector_val@PAVioBaseChar@@V?$allocator@PAVioBaseChar@@@std@@@std@@@std@@QAE@PAPAVioBaseChar@@PBU_Container_base0@1@@Z
_TEXT	SEGMENT
__Parg$ = 8						; size = 4
__Pvector$ = 12						; size = 4
??0?$_Vector_const_iterator@V?$_Vector_val@PAVioBaseChar@@V?$allocator@PAVioBaseChar@@@std@@@std@@@std@@QAE@PAPAVioBaseChar@@PBU_Container_base0@1@@Z PROC ; std::_Vector_const_iterator<std::_Vector_val<ioBaseChar *,std::allocator<ioBaseChar *> > >::_Vector_const_iterator<std::_Vector_val<ioBaseChar *,std::allocator<ioBaseChar *> > >, COMDAT
; _this$ = ecx

; 45   : 		{	// construct with pointer _Parg

  00000	55		 push	 ebp
  00001	8b ec		 mov	 ebp, esp
  00003	8b c1		 mov	 eax, ecx
  00005	8b 4d 08	 mov	 ecx, DWORD PTR __Parg$[ebp]
  00008	89 08		 mov	 DWORD PTR [eax], ecx

; 46   : 		this->_Adopt(_Pvector);
; 47   : 		}

  0000a	5d		 pop	 ebp
  0000b	c2 08 00	 ret	 8
??0?$_Vector_const_iterator@V?$_Vector_val@PAVioBaseChar@@V?$allocator@PAVioBaseChar@@@std@@@std@@@std@@QAE@PAPAVioBaseChar@@PBU_Container_base0@1@@Z ENDP ; std::_Vector_const_iterator<std::_Vector_val<ioBaseChar *,std::allocator<ioBaseChar *> > >::_Vector_const_iterator<std::_Vector_val<ioBaseChar *,std::allocator<ioBaseChar *> > >
_TEXT	ENDS
PUBLIC	?max_size@?$allocator@UAttackAttribute@@@std@@QBEIXZ ; std::allocator<AttackAttribute>::max_size
; Function compile flags: /Ogsp
; File c:\program files (x86)\microsoft visual studio 10.0\vc\include\xmemory
;	COMDAT ?max_size@?$allocator@UAttackAttribute@@@std@@QBEIXZ
_TEXT	SEGMENT
?max_size@?$allocator@UAttackAttribute@@@std@@QBEIXZ PROC ; std::allocator<AttackAttribute>::max_size, COMDAT
; _this$ = ecx

; 218  : 		_SIZT _Count = (_SIZT)(-1) / sizeof (_Ty);
; 219  : 		return (0 < _Count ? _Count : 1);

  00000	b8 33 33 33 03	 mov	 eax, 53687091		; 03333333H

; 220  : 		}

  00005	c3		 ret	 0
?max_size@?$allocator@UAttackAttribute@@@std@@QBEIXZ ENDP ; std::allocator<AttackAttribute>::max_size
_TEXT	ENDS
PUBLIC	??0?$allocator@UDistInfo@ioSuperDimensionItem@@@std@@QAE@ABV01@@Z ; std::allocator<ioSuperDimensionItem::DistInfo>::allocator<ioSuperDimensionItem::DistInfo>
; Function compile flags: /Ogsp
;	COMDAT ??0?$allocator@UDistInfo@ioSuperDimensionItem@@@std@@QAE@ABV01@@Z
_TEXT	SEGMENT
___formal$ = 8						; size = 4
??0?$allocator@UDistInfo@ioSuperDimensionItem@@@std@@QAE@ABV01@@Z PROC ; std::allocator<ioSuperDimensionItem::DistInfo>::allocator<ioSuperDimensionItem::DistInfo>, COMDAT
; _this$ = ecx

; 165  : 	_ALLOCATOR(const _ALLOCATOR<_Ty>&) _THROW0()

  00000	8b c1		 mov	 eax, ecx

; 166  : 		{	// construct by copying (do nothing)
; 167  : 		}

  00002	c2 04 00	 ret	 4
??0?$allocator@UDistInfo@ioSuperDimensionItem@@@std@@QAE@ABV01@@Z ENDP ; std::allocator<ioSuperDimensionItem::DistInfo>::allocator<ioSuperDimensionItem::DistInfo>
_TEXT	ENDS
PUBLIC	?max_size@?$allocator@UDistInfo@ioSuperDimensionItem@@@std@@QBEIXZ ; std::allocator<ioSuperDimensionItem::DistInfo>::max_size
; Function compile flags: /Ogsp
;	COMDAT ?max_size@?$allocator@UDistInfo@ioSuperDimensionItem@@@std@@QBEIXZ
_TEXT	SEGMENT
?max_size@?$allocator@UDistInfo@ioSuperDimensionItem@@@std@@QBEIXZ PROC ; std::allocator<ioSuperDimensionItem::DistInfo>::max_size, COMDAT
; _this$ = ecx

; 218  : 		_SIZT _Count = (_SIZT)(-1) / sizeof (_Ty);
; 219  : 		return (0 < _Count ? _Count : 1);

  00000	b8 ff ff ff 1f	 mov	 eax, 536870911		; 1fffffffH

; 220  : 		}

  00005	c3		 ret	 0
?max_size@?$allocator@UDistInfo@ioSuperDimensionItem@@@std@@QBEIXZ ENDP ; std::allocator<ioSuperDimensionItem::DistInfo>::max_size
_TEXT	ENDS
PUBLIC	?capacity@?$vector@UtagSuperDimension_HP_Scale_Info@@V?$allocator@UtagSuperDimension_HP_Scale_Info@@@std@@@std@@QBEIXZ ; std::vector<tagSuperDimension_HP_Scale_Info,std::allocator<tagSuperDimension_HP_Scale_Info> >::capacity
; Function compile flags: /Ogsp
; File c:\program files (x86)\microsoft visual studio 10.0\vc\include\vector
;	COMDAT ?capacity@?$vector@UtagSuperDimension_HP_Scale_Info@@V?$allocator@UtagSuperDimension_HP_Scale_Info@@@std@@@std@@QBEIXZ
_TEXT	SEGMENT
?capacity@?$vector@UtagSuperDimension_HP_Scale_Info@@V?$allocator@UtagSuperDimension_HP_Scale_Info@@@std@@@std@@QBEIXZ PROC ; std::vector<tagSuperDimension_HP_Scale_Info,std::allocator<tagSuperDimension_HP_Scale_Info> >::capacity, COMDAT
; _this$ = ecx

; 777  : 		return (this->_Myend - this->_Myfirst);

  00000	8b 41 08	 mov	 eax, DWORD PTR [ecx+8]
  00003	2b 01		 sub	 eax, DWORD PTR [ecx]
  00005	6a 0c		 push	 12			; 0000000cH
  00007	99		 cdq
  00008	59		 pop	 ecx
  00009	f7 f9		 idiv	 ecx

; 778  : 		}

  0000b	c3		 ret	 0
?capacity@?$vector@UtagSuperDimension_HP_Scale_Info@@V?$allocator@UtagSuperDimension_HP_Scale_Info@@@std@@@std@@QBEIXZ ENDP ; std::vector<tagSuperDimension_HP_Scale_Info,std::allocator<tagSuperDimension_HP_Scale_Info> >::capacity
_TEXT	ENDS
PUBLIC	?D3DXVec3Length@@YAMPBUD3DXVECTOR3@@@Z		; D3DXVec3Length
; Function compile flags: /Ogsp
; File c:\program files (x86)\microsoft directx sdk (june 2010)\include\d3dx9math.inl
;	COMDAT ?D3DXVec3Length@@YAMPBUD3DXVECTOR3@@@Z
_TEXT	SEGMENT
tv169 = 8						; size = 4
tv160 = 8						; size = 4
_pV$ = 8						; size = 4
?D3DXVec3Length@@YAMPBUD3DXVECTOR3@@@Z PROC		; D3DXVec3Length, COMDAT

; 1710 : {

  00000	55		 push	 ebp
  00001	8b ec		 mov	 ebp, esp

; 1711 : #ifdef D3DX_DEBUG
; 1712 :     if(!pV)
; 1713 :         return 0.0f;
; 1714 : #endif
; 1715 : 
; 1716 : #ifdef __cplusplus
; 1717 :     return sqrtf(pV->x * pV->x + pV->y * pV->y + pV->z * pV->z);

  00003	8b 45 08	 mov	 eax, DWORD PTR _pV$[ebp]
  00006	d9 40 04	 fld	 DWORD PTR [eax+4]
  00009	d9 00		 fld	 DWORD PTR [eax]
  0000b	d9 40 08	 fld	 DWORD PTR [eax+8]
  0000e	d9 c1		 fld	 ST(1)
  00010	de ca		 fmulp	 ST(2), ST(0)
  00012	d9 c2		 fld	 ST(2)
  00014	de cb		 fmulp	 ST(3), ST(0)
  00016	d9 c9		 fxch	 ST(1)
  00018	de c2		 faddp	 ST(2), ST(0)
  0001a	d9 c0		 fld	 ST(0)
  0001c	de c9		 fmulp	 ST(1), ST(0)
  0001e	de c1		 faddp	 ST(1), ST(0)
  00020	d9 5d 08	 fstp	 DWORD PTR tv169[ebp]
  00023	d9 45 08	 fld	 DWORD PTR tv169[ebp]
  00026	e8 00 00 00 00	 call	 __CIsqrt
  0002b	d9 5d 08	 fstp	 DWORD PTR tv160[ebp]
  0002e	d9 45 08	 fld	 DWORD PTR tv160[ebp]

; 1718 : #else
; 1719 :     return (FLOAT) sqrt(pV->x * pV->x + pV->y * pV->y + pV->z * pV->z);
; 1720 : #endif
; 1721 : }

  00031	5d		 pop	 ebp
  00032	c3		 ret	 0
?D3DXVec3Length@@YAMPBUD3DXVECTOR3@@@Z ENDP		; D3DXVec3Length
_TEXT	ENDS
PUBLIC	?_Xlen@?$vector@UtagSuperDimension_HP_Scale_Info@@V?$allocator@UtagSuperDimension_HP_Scale_Info@@@std@@@std@@IBEXXZ ; std::vector<tagSuperDimension_HP_Scale_Info,std::allocator<tagSuperDimension_HP_Scale_Info> >::_Xlen
; Function compile flags: /Ogsp
; File c:\program files (x86)\microsoft visual studio 10.0\vc\include\vector
;	COMDAT ?_Xlen@?$vector@UtagSuperDimension_HP_Scale_Info@@V?$allocator@UtagSuperDimension_HP_Scale_Info@@@std@@@std@@IBEXXZ
_TEXT	SEGMENT
?_Xlen@?$vector@UtagSuperDimension_HP_Scale_Info@@V?$allocator@UtagSuperDimension_HP_Scale_Info@@@std@@@std@@IBEXXZ PROC ; std::vector<tagSuperDimension_HP_Scale_Info,std::allocator<tagSuperDimension_HP_Scale_Info> >::_Xlen, COMDAT
; _this$ = ecx

; 1427 : 		_Xlength_error("vector<T> too long");

  00000	68 00 00 00 00	 push	 OFFSET ??_C@_0BD@OLBABOEK@vector?$DMT?$DO?5too?5long?$AA@
  00005	ff 15 00 00 00
	00		 call	 DWORD PTR __imp_?_Xlength_error@std@@YAXPBD@Z
$LN4@Xlen@3:
$LN3@Xlen@3:
  0000b	cc		 int	 3
?_Xlen@?$vector@UtagSuperDimension_HP_Scale_Info@@V?$allocator@UtagSuperDimension_HP_Scale_Info@@@std@@@std@@IBEXXZ ENDP ; std::vector<tagSuperDimension_HP_Scale_Info,std::allocator<tagSuperDimension_HP_Scale_Info> >::_Xlen
_TEXT	ENDS
PUBLIC	?deallocate@?$allocator@UtagSuperDimension_HP_Scale_Info@@@std@@QAEXPAUtagSuperDimension_HP_Scale_Info@@I@Z ; std::allocator<tagSuperDimension_HP_Scale_Info>::deallocate
; Function compile flags: /Ogsp
; File c:\program files (x86)\microsoft visual studio 10.0\vc\include\xmemory
;	COMDAT ?deallocate@?$allocator@UtagSuperDimension_HP_Scale_Info@@@std@@QAEXPAUtagSuperDimension_HP_Scale_Info@@I@Z
_TEXT	SEGMENT
__Ptr$ = 8						; size = 4
___formal$ = 12						; size = 4
?deallocate@?$allocator@UtagSuperDimension_HP_Scale_Info@@@std@@QAEXPAUtagSuperDimension_HP_Scale_Info@@I@Z PROC ; std::allocator<tagSuperDimension_HP_Scale_Info>::deallocate, COMDAT
; _this$ = ecx

; 181  : 		{	// deallocate object at _Ptr, ignore size

  00000	55		 push	 ebp
  00001	8b ec		 mov	 ebp, esp

; 182  : 		::operator delete(_Ptr);

  00003	ff 75 08	 push	 DWORD PTR __Ptr$[ebp]
  00006	e8 00 00 00 00	 call	 ??3@YAXPAX@Z		; operator delete
  0000b	59		 pop	 ecx

; 183  : 		}

  0000c	5d		 pop	 ebp
  0000d	c2 08 00	 ret	 8
?deallocate@?$allocator@UtagSuperDimension_HP_Scale_Info@@@std@@QAEXPAUtagSuperDimension_HP_Scale_Info@@I@Z ENDP ; std::allocator<tagSuperDimension_HP_Scale_Info>::deallocate
_TEXT	ENDS
PUBLIC	?D3DXVec3LengthSq@@YAMPBUD3DXVECTOR3@@@Z	; D3DXVec3LengthSq
; Function compile flags: /Ogsp
; File c:\program files (x86)\microsoft directx sdk (june 2010)\include\d3dx9math.inl
;	COMDAT ?D3DXVec3LengthSq@@YAMPBUD3DXVECTOR3@@@Z
_TEXT	SEGMENT
tv165 = 8						; size = 4
_pV$ = 8						; size = 4
?D3DXVec3LengthSq@@YAMPBUD3DXVECTOR3@@@Z PROC		; D3DXVec3LengthSq, COMDAT

; 1725 : {

  00000	55		 push	 ebp
  00001	8b ec		 mov	 ebp, esp

; 1726 : #ifdef D3DX_DEBUG
; 1727 :     if(!pV)
; 1728 :         return 0.0f;
; 1729 : #endif
; 1730 : 
; 1731 :     return pV->x * pV->x + pV->y * pV->y + pV->z * pV->z;

  00003	8b 45 08	 mov	 eax, DWORD PTR _pV$[ebp]
  00006	d9 40 04	 fld	 DWORD PTR [eax+4]
  00009	d9 00		 fld	 DWORD PTR [eax]
  0000b	d9 40 08	 fld	 DWORD PTR [eax+8]
  0000e	d9 c1		 fld	 ST(1)
  00010	de ca		 fmulp	 ST(2), ST(0)
  00012	d9 c2		 fld	 ST(2)
  00014	de cb		 fmulp	 ST(3), ST(0)
  00016	d9 c9		 fxch	 ST(1)
  00018	de c2		 faddp	 ST(2), ST(0)
  0001a	d9 c0		 fld	 ST(0)
  0001c	de c9		 fmulp	 ST(1), ST(0)
  0001e	de c1		 faddp	 ST(1), ST(0)
  00020	d9 5d 08	 fstp	 DWORD PTR tv165[ebp]
  00023	d9 45 08	 fld	 DWORD PTR tv165[ebp]

; 1732 : }

  00026	5d		 pop	 ebp
  00027	c3		 ret	 0
?D3DXVec3LengthSq@@YAMPBUD3DXVECTOR3@@@Z ENDP		; D3DXVec3LengthSq
_TEXT	ENDS
PUBLIC	?D3DXVec3Dot@@YAMPBUD3DXVECTOR3@@0@Z		; D3DXVec3Dot
; Function compile flags: /Ogsp
;	COMDAT ?D3DXVec3Dot@@YAMPBUD3DXVECTOR3@@0@Z
_TEXT	SEGMENT
tv188 = 8						; size = 4
_pV1$ = 8						; size = 4
_pV2$ = 12						; size = 4
?D3DXVec3Dot@@YAMPBUD3DXVECTOR3@@0@Z PROC		; D3DXVec3Dot, COMDAT

; 1736 : {

  00000	55		 push	 ebp
  00001	8b ec		 mov	 ebp, esp

; 1737 : #ifdef D3DX_DEBUG
; 1738 :     if(!pV1 || !pV2)
; 1739 :         return 0.0f;
; 1740 : #endif
; 1741 : 
; 1742 :     return pV1->x * pV2->x + pV1->y * pV2->y + pV1->z * pV2->z;

  00003	8b 45 08	 mov	 eax, DWORD PTR _pV1$[ebp]
  00006	8b 4d 0c	 mov	 ecx, DWORD PTR _pV2$[ebp]
  00009	d9 40 04	 fld	 DWORD PTR [eax+4]
  0000c	d8 49 04	 fmul	 DWORD PTR [ecx+4]
  0000f	d9 00		 fld	 DWORD PTR [eax]
  00011	d8 09		 fmul	 DWORD PTR [ecx]
  00013	de c1		 faddp	 ST(1), ST(0)
  00015	d9 40 08	 fld	 DWORD PTR [eax+8]
  00018	d8 49 08	 fmul	 DWORD PTR [ecx+8]
  0001b	de c1		 faddp	 ST(1), ST(0)
  0001d	d9 5d 08	 fstp	 DWORD PTR tv188[ebp]
  00020	d9 45 08	 fld	 DWORD PTR tv188[ebp]

; 1743 : }

  00023	5d		 pop	 ebp
  00024	c3		 ret	 0
?D3DXVec3Dot@@YAMPBUD3DXVECTOR3@@0@Z ENDP		; D3DXVec3Dot
_TEXT	ENDS
PUBLIC	??0?$_Vector_const_iterator@V?$_Vector_val@UDistInfo@ioSuperDimensionItem@@V?$allocator@UDistInfo@ioSuperDimensionItem@@@std@@@std@@@std@@QAE@PAUDistInfo@ioSuperDimensionItem@@PBU_Container_base0@1@@Z ; std::_Vector_const_iterator<std::_Vector_val<ioSuperDimensionItem::DistInfo,std::allocator<ioSuperDimensionItem::DistInfo> > >::_Vector_const_iterator<std::_Vector_val<ioSuperDimensionItem::DistInfo,std::allocator<ioSuperDimensionItem::DistInfo> > >
; Function compile flags: /Ogsp
; File c:\program files (x86)\microsoft visual studio 10.0\vc\include\vector
;	COMDAT ??0?$_Vector_const_iterator@V?$_Vector_val@UDistInfo@ioSuperDimensionItem@@V?$allocator@UDistInfo@ioSuperDimensionItem@@@std@@@std@@@std@@QAE@PAUDistInfo@ioSuperDimensionItem@@PBU_Container_base0@1@@Z
_TEXT	SEGMENT
__Parg$ = 8						; size = 4
__Pvector$ = 12						; size = 4
??0?$_Vector_const_iterator@V?$_Vector_val@UDistInfo@ioSuperDimensionItem@@V?$allocator@UDistInfo@ioSuperDimensionItem@@@std@@@std@@@std@@QAE@PAUDistInfo@ioSuperDimensionItem@@PBU_Container_base0@1@@Z PROC ; std::_Vector_const_iterator<std::_Vector_val<ioSuperDimensionItem::DistInfo,std::allocator<ioSuperDimensionItem::DistInfo> > >::_Vector_const_iterator<std::_Vector_val<ioSuperDimensionItem::DistInfo,std::allocator<ioSuperDimensionItem::DistInfo> > >, COMDAT
; _this$ = ecx

; 45   : 		{	// construct with pointer _Parg

  00000	55		 push	 ebp
  00001	8b ec		 mov	 ebp, esp
  00003	8b c1		 mov	 eax, ecx
  00005	8b 4d 08	 mov	 ecx, DWORD PTR __Parg$[ebp]
  00008	89 08		 mov	 DWORD PTR [eax], ecx

; 46   : 		this->_Adopt(_Pvector);
; 47   : 		}

  0000a	5d		 pop	 ebp
  0000b	c2 08 00	 ret	 8
??0?$_Vector_const_iterator@V?$_Vector_val@UDistInfo@ioSuperDimensionItem@@V?$allocator@UDistInfo@ioSuperDimensionItem@@@std@@@std@@@std@@QAE@PAUDistInfo@ioSuperDimensionItem@@PBU_Container_base0@1@@Z ENDP ; std::_Vector_const_iterator<std::_Vector_val<ioSuperDimensionItem::DistInfo,std::allocator<ioSuperDimensionItem::DistInfo> > >::_Vector_const_iterator<std::_Vector_val<ioSuperDimensionItem::DistInfo,std::allocator<ioSuperDimensionItem::DistInfo> > >
_TEXT	ENDS
PUBLIC	?_Compat@?$_Vector_const_iterator@V?$_Vector_val@PAVioBaseChar@@V?$allocator@PAVioBaseChar@@@std@@@std@@@std@@QBEXABV12@@Z ; std::_Vector_const_iterator<std::_Vector_val<ioBaseChar *,std::allocator<ioBaseChar *> > >::_Compat
; Function compile flags: /Ogsp
;	COMDAT ?_Compat@?$_Vector_const_iterator@V?$_Vector_val@PAVioBaseChar@@V?$allocator@PAVioBaseChar@@@std@@@std@@@std@@QBEXABV12@@Z
_TEXT	SEGMENT
___formal$ = 8						; size = 4
?_Compat@?$_Vector_const_iterator@V?$_Vector_val@PAVioBaseChar@@V?$allocator@PAVioBaseChar@@@std@@@std@@@std@@QBEXABV12@@Z PROC ; std::_Vector_const_iterator<std::_Vector_val<ioBaseChar *,std::allocator<ioBaseChar *> > >::_Compat, COMDAT
; _this$ = ecx

; 253  : 		}

  00000	c2 04 00	 ret	 4
?_Compat@?$_Vector_const_iterator@V?$_Vector_val@PAVioBaseChar@@V?$allocator@PAVioBaseChar@@@std@@@std@@@std@@QBEXABV12@@Z ENDP ; std::_Vector_const_iterator<std::_Vector_val<ioBaseChar *,std::allocator<ioBaseChar *> > >::_Compat
_TEXT	ENDS
PUBLIC	??0?$_Vector_const_iterator@V?$_Vector_val@UtagSuperDimension_HP_Scale_Info@@V?$allocator@UtagSuperDimension_HP_Scale_Info@@@std@@@std@@@std@@QAE@PAUtagSuperDimension_HP_Scale_Info@@PBU_Container_base0@1@@Z ; std::_Vector_const_iterator<std::_Vector_val<tagSuperDimension_HP_Scale_Info,std::allocator<tagSuperDimension_HP_Scale_Info> > >::_Vector_const_iterator<std::_Vector_val<tagSuperDimension_HP_Scale_Info,std::allocator<tagSuperDimension_HP_Scale_Info> > >
; Function compile flags: /Ogsp
;	COMDAT ??0?$_Vector_const_iterator@V?$_Vector_val@UtagSuperDimension_HP_Scale_Info@@V?$allocator@UtagSuperDimension_HP_Scale_Info@@@std@@@std@@@std@@QAE@PAUtagSuperDimension_HP_Scale_Info@@PBU_Container_base0@1@@Z
_TEXT	SEGMENT
__Parg$ = 8						; size = 4
__Pvector$ = 12						; size = 4
??0?$_Vector_const_iterator@V?$_Vector_val@UtagSuperDimension_HP_Scale_Info@@V?$allocator@UtagSuperDimension_HP_Scale_Info@@@std@@@std@@@std@@QAE@PAUtagSuperDimension_HP_Scale_Info@@PBU_Container_base0@1@@Z PROC ; std::_Vector_const_iterator<std::_Vector_val<tagSuperDimension_HP_Scale_Info,std::allocator<tagSuperDimension_HP_Scale_Info> > >::_Vector_const_iterator<std::_Vector_val<tagSuperDimension_HP_Scale_Info,std::allocator<tagSuperDimension_HP_Scale_Info> > >, COMDAT
; _this$ = ecx

; 45   : 		{	// construct with pointer _Parg

  00000	55		 push	 ebp
  00001	8b ec		 mov	 ebp, esp
  00003	8b c1		 mov	 eax, ecx
  00005	8b 4d 08	 mov	 ecx, DWORD PTR __Parg$[ebp]
  00008	89 08		 mov	 DWORD PTR [eax], ecx

; 46   : 		this->_Adopt(_Pvector);
; 47   : 		}

  0000a	5d		 pop	 ebp
  0000b	c2 08 00	 ret	 8
??0?$_Vector_const_iterator@V?$_Vector_val@UtagSuperDimension_HP_Scale_Info@@V?$allocator@UtagSuperDimension_HP_Scale_Info@@@std@@@std@@@std@@QAE@PAUtagSuperDimension_HP_Scale_Info@@PBU_Container_base0@1@@Z ENDP ; std::_Vector_const_iterator<std::_Vector_val<tagSuperDimension_HP_Scale_Info,std::allocator<tagSuperDimension_HP_Scale_Info> > >::_Vector_const_iterator<std::_Vector_val<tagSuperDimension_HP_Scale_Info,std::allocator<tagSuperDimension_HP_Scale_Info> > >
_TEXT	ENDS
PUBLIC	?max_size@?$allocator@UtagSuperDimension_HP_Scale_Info@@@std@@QBEIXZ ; std::allocator<tagSuperDimension_HP_Scale_Info>::max_size
; Function compile flags: /Ogsp
; File c:\program files (x86)\microsoft visual studio 10.0\vc\include\xmemory
;	COMDAT ?max_size@?$allocator@UtagSuperDimension_HP_Scale_Info@@@std@@QBEIXZ
_TEXT	SEGMENT
?max_size@?$allocator@UtagSuperDimension_HP_Scale_Info@@@std@@QBEIXZ PROC ; std::allocator<tagSuperDimension_HP_Scale_Info>::max_size, COMDAT
; _this$ = ecx

; 218  : 		_SIZT _Count = (_SIZT)(-1) / sizeof (_Ty);
; 219  : 		return (0 < _Count ? _Count : 1);

  00000	b8 55 55 55 15	 mov	 eax, 357913941		; 15555555H

; 220  : 		}

  00005	c3		 ret	 0
?max_size@?$allocator@UtagSuperDimension_HP_Scale_Info@@@std@@QBEIXZ ENDP ; std::allocator<tagSuperDimension_HP_Scale_Info>::max_size
_TEXT	ENDS
PUBLIC	?_Compat@?$_Vector_const_iterator@V?$_Vector_val@UDistInfo@ioSuperDimensionItem@@V?$allocator@UDistInfo@ioSuperDimensionItem@@@std@@@std@@@std@@QBEXABV12@@Z ; std::_Vector_const_iterator<std::_Vector_val<ioSuperDimensionItem::DistInfo,std::allocator<ioSuperDimensionItem::DistInfo> > >::_Compat
; Function compile flags: /Ogsp
; File c:\program files (x86)\microsoft visual studio 10.0\vc\include\vector
;	COMDAT ?_Compat@?$_Vector_const_iterator@V?$_Vector_val@UDistInfo@ioSuperDimensionItem@@V?$allocator@UDistInfo@ioSuperDimensionItem@@@std@@@std@@@std@@QBEXABV12@@Z
_TEXT	SEGMENT
___formal$ = 8						; size = 4
?_Compat@?$_Vector_const_iterator@V?$_Vector_val@UDistInfo@ioSuperDimensionItem@@V?$allocator@UDistInfo@ioSuperDimensionItem@@@std@@@std@@@std@@QBEXABV12@@Z PROC ; std::_Vector_const_iterator<std::_Vector_val<ioSuperDimensionItem::DistInfo,std::allocator<ioSuperDimensionItem::DistInfo> > >::_Compat, COMDAT
; _this$ = ecx

; 253  : 		}

  00000	c2 04 00	 ret	 4
?_Compat@?$_Vector_const_iterator@V?$_Vector_val@UDistInfo@ioSuperDimensionItem@@V?$allocator@UDistInfo@ioSuperDimensionItem@@@std@@@std@@@std@@QBEXABV12@@Z ENDP ; std::_Vector_const_iterator<std::_Vector_val<ioSuperDimensionItem::DistInfo,std::allocator<ioSuperDimensionItem::DistInfo> > >::_Compat
_TEXT	ENDS
PUBLIC	__real@3f91df46a2526c7a
PUBLIC	??$DEGtoRAD@M@@YAMM@Z				; DEGtoRAD<float>
;	COMDAT __real@3f91df46a2526c7a
; File d:\lost saga for developer\youtube\tutorial\source\src\lsclient\veryoftenusedefine.h
CONST	SEGMENT
__real@3f91df46a2526c7a DQ 03f91df46a2526c7ar	; 0.0174533
; Function compile flags: /Ogsp
CONST	ENDS
;	COMDAT ??$DEGtoRAD@M@@YAMM@Z
_TEXT	SEGMENT
tv129 = 8						; size = 4
_val$ = 8						; size = 4
??$DEGtoRAD@M@@YAMM@Z PROC				; DEGtoRAD<float>, COMDAT

; 20   : type  DEGtoRAD (type val) {return (type) (val * 0.0174532925199);}

  00000	55		 push	 ebp
  00001	8b ec		 mov	 ebp, esp
  00003	d9 45 08	 fld	 DWORD PTR _val$[ebp]
  00006	dc 0d 00 00 00
	00		 fmul	 QWORD PTR __real@3f91df46a2526c7a
  0000c	d9 5d 08	 fstp	 DWORD PTR tv129[ebp]
  0000f	d9 45 08	 fld	 DWORD PTR tv129[ebp]
  00012	5d		 pop	 ebp
  00013	c3		 ret	 0
??$DEGtoRAD@M@@YAMM@Z ENDP				; DEGtoRAD<float>
_TEXT	ENDS
PUBLIC	??$addressof@VioHashString@@@std@@YAPAVioHashString@@AAV1@@Z ; std::addressof<ioHashString>
; Function compile flags: /Ogsp
; File c:\program files (x86)\microsoft visual studio 10.0\vc\include\xmemory
;	COMDAT ??$addressof@VioHashString@@@std@@YAPAVioHashString@@AAV1@@Z
_TEXT	SEGMENT
__Val$ = 8						; size = 4
??$addressof@VioHashString@@@std@@YAPAVioHashString@@AAV1@@Z PROC ; std::addressof<ioHashString>, COMDAT

; 110  : 	{	// return address of _Val

  00000	55		 push	 ebp
  00001	8b ec		 mov	 ebp, esp

; 111  : 	return ((_Ty *) &(char&)_Val);

  00003	8b 45 08	 mov	 eax, DWORD PTR __Val$[ebp]

; 112  : 	}

  00006	5d		 pop	 ebp
  00007	c3		 ret	 0
??$addressof@VioHashString@@@std@@YAPAVioHashString@@AAV1@@Z ENDP ; std::addressof<ioHashString>
_TEXT	ENDS
PUBLIC	??$forward@VioHashString@@@std@@YA$$QAVioHashString@@AAV1@@Z ; std::forward<ioHashString>
; Function compile flags: /Ogsp
; File c:\program files (x86)\microsoft visual studio 10.0\vc\include\utility
;	COMDAT ??$forward@VioHashString@@@std@@YA$$QAVioHashString@@AAV1@@Z
_TEXT	SEGMENT
__Arg$ = 8						; size = 4
??$forward@VioHashString@@@std@@YA$$QAVioHashString@@AAV1@@Z PROC ; std::forward<ioHashString>, COMDAT

; 78   : 	{	// forward _Arg, given explicitly specified type parameter

  00000	55		 push	 ebp
  00001	8b ec		 mov	 ebp, esp

; 79   : 	return ((_Ty&&)_Arg);

  00003	8b 45 08	 mov	 eax, DWORD PTR __Arg$[ebp]

; 80   : 	}

  00006	5d		 pop	 ebp
  00007	c3		 ret	 0
??$forward@VioHashString@@@std@@YA$$QAVioHashString@@AAV1@@Z ENDP ; std::forward<ioHashString>
_TEXT	ENDS
PUBLIC	??$addressof@$$CBUAttackAttribute@@@std@@YAPBUAttackAttribute@@ABU1@@Z ; std::addressof<AttackAttribute const >
; Function compile flags: /Ogsp
; File c:\program files (x86)\microsoft visual studio 10.0\vc\include\xmemory
;	COMDAT ??$addressof@$$CBUAttackAttribute@@@std@@YAPBUAttackAttribute@@ABU1@@Z
_TEXT	SEGMENT
__Val$ = 8						; size = 4
??$addressof@$$CBUAttackAttribute@@@std@@YAPBUAttackAttribute@@ABU1@@Z PROC ; std::addressof<AttackAttribute const >, COMDAT

; 110  : 	{	// return address of _Val

  00000	55		 push	 ebp
  00001	8b ec		 mov	 ebp, esp

; 111  : 	return ((_Ty *) &(char&)_Val);

  00003	8b 45 08	 mov	 eax, DWORD PTR __Val$[ebp]

; 112  : 	}

  00006	5d		 pop	 ebp
  00007	c3		 ret	 0
??$addressof@$$CBUAttackAttribute@@@std@@YAPBUAttackAttribute@@ABU1@@Z ENDP ; std::addressof<AttackAttribute const >
_TEXT	ENDS
PUBLIC	??$addressof@$$CBUDistInfo@ioSuperDimensionItem@@@std@@YAPBUDistInfo@ioSuperDimensionItem@@ABU12@@Z ; std::addressof<ioSuperDimensionItem::DistInfo const >
; Function compile flags: /Ogsp
;	COMDAT ??$addressof@$$CBUDistInfo@ioSuperDimensionItem@@@std@@YAPBUDistInfo@ioSuperDimensionItem@@ABU12@@Z
_TEXT	SEGMENT
__Val$ = 8						; size = 4
??$addressof@$$CBUDistInfo@ioSuperDimensionItem@@@std@@YAPBUDistInfo@ioSuperDimensionItem@@ABU12@@Z PROC ; std::addressof<ioSuperDimensionItem::DistInfo const >, COMDAT

; 110  : 	{	// return address of _Val

  00000	55		 push	 ebp
  00001	8b ec		 mov	 ebp, esp

; 111  : 	return ((_Ty *) &(char&)_Val);

  00003	8b 45 08	 mov	 eax, DWORD PTR __Val$[ebp]

; 112  : 	}

  00006	5d		 pop	 ebp
  00007	c3		 ret	 0
??$addressof@$$CBUDistInfo@ioSuperDimensionItem@@@std@@YAPBUDistInfo@ioSuperDimensionItem@@ABU12@@Z ENDP ; std::addressof<ioSuperDimensionItem::DistInfo const >
_TEXT	ENDS
PUBLIC	??$addressof@$$CBUtagSuperDimension_HP_Scale_Info@@@std@@YAPBUtagSuperDimension_HP_Scale_Info@@ABU1@@Z ; std::addressof<tagSuperDimension_HP_Scale_Info const >
; Function compile flags: /Ogsp
;	COMDAT ??$addressof@$$CBUtagSuperDimension_HP_Scale_Info@@@std@@YAPBUtagSuperDimension_HP_Scale_Info@@ABU1@@Z
_TEXT	SEGMENT
__Val$ = 8						; size = 4
??$addressof@$$CBUtagSuperDimension_HP_Scale_Info@@@std@@YAPBUtagSuperDimension_HP_Scale_Info@@ABU1@@Z PROC ; std::addressof<tagSuperDimension_HP_Scale_Info const >, COMDAT

; 110  : 	{	// return address of _Val

  00000	55		 push	 ebp
  00001	8b ec		 mov	 ebp, esp

; 111  : 	return ((_Ty *) &(char&)_Val);

  00003	8b 45 08	 mov	 eax, DWORD PTR __Val$[ebp]

; 112  : 	}

  00006	5d		 pop	 ebp
  00007	c3		 ret	 0
??$addressof@$$CBUtagSuperDimension_HP_Scale_Info@@@std@@YAPBUtagSuperDimension_HP_Scale_Info@@ABU1@@Z ENDP ; std::addressof<tagSuperDimension_HP_Scale_Info const >
_TEXT	ENDS
PUBLIC	__TI2?AVbad_alloc@std@@
PUBLIC	??$_Allocate@UAttackAttribute@@@std@@YAPAUAttackAttribute@@IPAU1@@Z ; std::_Allocate<AttackAttribute>
PUBLIC	__CTA2?AVbad_alloc@std@@
PUBLIC	__CT??_R0?AVbad_alloc@std@@@8??0bad_alloc@std@@QAE@ABV01@@Z12
PUBLIC	??0bad_alloc@std@@QAE@ABV01@@Z			; std::bad_alloc::bad_alloc
PUBLIC	__CT??_R0?AVexception@std@@@8??0exception@std@@QAE@ABV01@@Z12
EXTRN	??2@YAPAXI@Z:PROC				; operator new
EXTRN	__CxxThrowException@8:PROC
EXTRN	??0exception@std@@QAE@ABV01@@Z:PROC		; std::exception::exception
;	COMDAT __CT??_R0?AVexception@std@@@8??0exception@std@@QAE@ABV01@@Z12
; File c:\program files (x86)\microsoft visual studio 10.0\vc\include\exception
xdata$x	SEGMENT
__CT??_R0?AVexception@std@@@8??0exception@std@@QAE@ABV01@@Z12 DD 00H
	DD	FLAT:??_R0?AVexception@std@@@8
	DD	00H
	DD	0ffffffffH
	ORG $+4
	DD	0cH
	DD	FLAT:??0exception@std@@QAE@ABV01@@Z
xdata$x	ENDS
;	COMDAT __CT??_R0?AVbad_alloc@std@@@8??0bad_alloc@std@@QAE@ABV01@@Z12
xdata$x	SEGMENT
__CT??_R0?AVbad_alloc@std@@@8??0bad_alloc@std@@QAE@ABV01@@Z12 DD 00H
	DD	FLAT:??_R0?AVbad_alloc@std@@@8
	DD	00H
	DD	0ffffffffH
	ORG $+4
	DD	0cH
	DD	FLAT:??0bad_alloc@std@@QAE@ABV01@@Z
xdata$x	ENDS
;	COMDAT __CTA2?AVbad_alloc@std@@
xdata$x	SEGMENT
__CTA2?AVbad_alloc@std@@ DD 02H
	DD	FLAT:__CT??_R0?AVbad_alloc@std@@@8??0bad_alloc@std@@QAE@ABV01@@Z12
	DD	FLAT:__CT??_R0?AVexception@std@@@8??0exception@std@@QAE@ABV01@@Z12
xdata$x	ENDS
;	COMDAT __TI2?AVbad_alloc@std@@
xdata$x	SEGMENT
__TI2?AVbad_alloc@std@@ DD 00H
	DD	FLAT:??1bad_alloc@std@@UAE@XZ
	DD	00H
	DD	FLAT:__CTA2?AVbad_alloc@std@@
; Function compile flags: /Ogsp
; File c:\program files (x86)\microsoft visual studio 10.0\vc\include\xmemory
xdata$x	ENDS
;	COMDAT ??$_Allocate@UAttackAttribute@@@std@@YAPAUAttackAttribute@@IPAU1@@Z
_TEXT	SEGMENT
$T561701 = -12						; size = 12
$T561706 = 8						; size = 4
__Count$ = 8						; size = 4
___formal$ = 12						; size = 4
??$_Allocate@UAttackAttribute@@@std@@YAPAUAttackAttribute@@IPAU1@@Z PROC ; std::_Allocate<AttackAttribute>, COMDAT

; 30   : 	{	// allocate storage for _Count elements of type _Ty

  00000	55		 push	 ebp
  00001	8b ec		 mov	 ebp, esp

; 31   : 	void *_Ptr = 0;
; 32   : 
; 33   : 	if (_Count <= 0)

  00003	8b 4d 08	 mov	 ecx, DWORD PTR __Count$[ebp]
  00006	83 ec 0c	 sub	 esp, 12			; 0000000cH
  00009	33 c0		 xor	 eax, eax
  0000b	85 c9		 test	 ecx, ecx

; 34   : 		_Count = 0;
; 35   : 	else if (((_SIZT)(-1) / sizeof (_Ty) < _Count)

  0000d	74 3c		 je	 SHORT $LN5@Allocate

; 36   : 		|| (_Ptr = ::operator new(_Count * sizeof (_Ty))) == 0)

  0000f	81 f9 33 33 33
	03		 cmp	 ecx, 53687091		; 03333333H
  00015	77 0e		 ja	 SHORT $LN1@Allocate
  00017	6b c9 50	 imul	 ecx, 80			; 00000050H
  0001a	51		 push	 ecx
  0001b	e8 00 00 00 00	 call	 ??2@YAPAXI@Z		; operator new
  00020	59		 pop	 ecx
  00021	85 c0		 test	 eax, eax

; 38   : 
; 39   : 	return ((_Ty _FARQ *)_Ptr);

  00023	75 26		 jne	 SHORT $LN5@Allocate
$LN1@Allocate:

; 37   : 		_THROW_NCEE(bad_alloc, 0);

  00025	83 65 08 00	 and	 DWORD PTR $T561706[ebp], 0
  00029	8d 45 08	 lea	 eax, DWORD PTR $T561706[ebp]
  0002c	50		 push	 eax
  0002d	8d 4d f4	 lea	 ecx, DWORD PTR $T561701[ebp]
  00030	ff 15 00 00 00
	00		 call	 DWORD PTR __imp_??0exception@std@@QAE@ABQBD@Z
  00036	68 00 00 00 00	 push	 OFFSET __TI2?AVbad_alloc@std@@
  0003b	8d 45 f4	 lea	 eax, DWORD PTR $T561701[ebp]
  0003e	50		 push	 eax
  0003f	c7 45 f4 00 00
	00 00		 mov	 DWORD PTR $T561701[ebp], OFFSET ??_7bad_alloc@std@@6B@
  00046	e8 00 00 00 00	 call	 __CxxThrowException@8
$LN10@Allocate:
$LN5@Allocate:

; 40   : 	}

  0004b	c9		 leave
  0004c	c3		 ret	 0
$LN9@Allocate:
??$_Allocate@UAttackAttribute@@@std@@YAPAUAttackAttribute@@IPAU1@@Z ENDP ; std::_Allocate<AttackAttribute>
_TEXT	ENDS
PUBLIC	??$_Allocate@UDistInfo@ioSuperDimensionItem@@@std@@YAPAUDistInfo@ioSuperDimensionItem@@IPAU12@@Z ; std::_Allocate<ioSuperDimensionItem::DistInfo>
; Function compile flags: /Ogsp
;	COMDAT ??$_Allocate@UDistInfo@ioSuperDimensionItem@@@std@@YAPAUDistInfo@ioSuperDimensionItem@@IPAU12@@Z
_TEXT	SEGMENT
$T561711 = -12						; size = 12
$T561715 = 8						; size = 4
__Count$ = 8						; size = 4
___formal$ = 12						; size = 4
??$_Allocate@UDistInfo@ioSuperDimensionItem@@@std@@YAPAUDistInfo@ioSuperDimensionItem@@IPAU12@@Z PROC ; std::_Allocate<ioSuperDimensionItem::DistInfo>, COMDAT

; 30   : 	{	// allocate storage for _Count elements of type _Ty

  00000	55		 push	 ebp
  00001	8b ec		 mov	 ebp, esp

; 31   : 	void *_Ptr = 0;
; 32   : 
; 33   : 	if (_Count <= 0)

  00003	8b 4d 08	 mov	 ecx, DWORD PTR __Count$[ebp]
  00006	83 ec 0c	 sub	 esp, 12			; 0000000cH
  00009	33 c0		 xor	 eax, eax
  0000b	85 c9		 test	 ecx, ecx

; 34   : 		_Count = 0;
; 35   : 	else if (((_SIZT)(-1) / sizeof (_Ty) < _Count)

  0000d	74 3e		 je	 SHORT $LN5@Allocate@2

; 36   : 		|| (_Ptr = ::operator new(_Count * sizeof (_Ty))) == 0)

  0000f	81 f9 ff ff ff
	1f		 cmp	 ecx, 536870911		; 1fffffffH
  00015	77 10		 ja	 SHORT $LN1@Allocate@2
  00017	8b c1		 mov	 eax, ecx
  00019	c1 e0 03	 shl	 eax, 3
  0001c	50		 push	 eax
  0001d	e8 00 00 00 00	 call	 ??2@YAPAXI@Z		; operator new
  00022	59		 pop	 ecx
  00023	85 c0		 test	 eax, eax

; 38   : 
; 39   : 	return ((_Ty _FARQ *)_Ptr);

  00025	75 26		 jne	 SHORT $LN5@Allocate@2
$LN1@Allocate@2:

; 37   : 		_THROW_NCEE(bad_alloc, 0);

  00027	83 65 08 00	 and	 DWORD PTR $T561715[ebp], 0
  0002b	8d 45 08	 lea	 eax, DWORD PTR $T561715[ebp]
  0002e	50		 push	 eax
  0002f	8d 4d f4	 lea	 ecx, DWORD PTR $T561711[ebp]
  00032	ff 15 00 00 00
	00		 call	 DWORD PTR __imp_??0exception@std@@QAE@ABQBD@Z
  00038	68 00 00 00 00	 push	 OFFSET __TI2?AVbad_alloc@std@@
  0003d	8d 45 f4	 lea	 eax, DWORD PTR $T561711[ebp]
  00040	50		 push	 eax
  00041	c7 45 f4 00 00
	00 00		 mov	 DWORD PTR $T561711[ebp], OFFSET ??_7bad_alloc@std@@6B@
  00048	e8 00 00 00 00	 call	 __CxxThrowException@8
$LN10@Allocate@2:
$LN5@Allocate@2:

; 40   : 	}

  0004d	c9		 leave
  0004e	c3		 ret	 0
$LN9@Allocate@2:
??$_Allocate@UDistInfo@ioSuperDimensionItem@@@std@@YAPAUDistInfo@ioSuperDimensionItem@@IPAU12@@Z ENDP ; std::_Allocate<ioSuperDimensionItem::DistInfo>
_TEXT	ENDS
PUBLIC	??$_Allocate@UtagSuperDimension_HP_Scale_Info@@@std@@YAPAUtagSuperDimension_HP_Scale_Info@@IPAU1@@Z ; std::_Allocate<tagSuperDimension_HP_Scale_Info>
; Function compile flags: /Ogsp
;	COMDAT ??$_Allocate@UtagSuperDimension_HP_Scale_Info@@@std@@YAPAUtagSuperDimension_HP_Scale_Info@@IPAU1@@Z
_TEXT	SEGMENT
$T561720 = -12						; size = 12
$T561724 = 8						; size = 4
__Count$ = 8						; size = 4
___formal$ = 12						; size = 4
??$_Allocate@UtagSuperDimension_HP_Scale_Info@@@std@@YAPAUtagSuperDimension_HP_Scale_Info@@IPAU1@@Z PROC ; std::_Allocate<tagSuperDimension_HP_Scale_Info>, COMDAT

; 30   : 	{	// allocate storage for _Count elements of type _Ty

  00000	55		 push	 ebp
  00001	8b ec		 mov	 ebp, esp

; 31   : 	void *_Ptr = 0;
; 32   : 
; 33   : 	if (_Count <= 0)

  00003	8b 4d 08	 mov	 ecx, DWORD PTR __Count$[ebp]
  00006	83 ec 0c	 sub	 esp, 12			; 0000000cH
  00009	33 c0		 xor	 eax, eax
  0000b	85 c9		 test	 ecx, ecx

; 34   : 		_Count = 0;
; 35   : 	else if (((_SIZT)(-1) / sizeof (_Ty) < _Count)

  0000d	74 3c		 je	 SHORT $LN5@Allocate@3

; 36   : 		|| (_Ptr = ::operator new(_Count * sizeof (_Ty))) == 0)

  0000f	81 f9 55 55 55
	15		 cmp	 ecx, 357913941		; 15555555H
  00015	77 0e		 ja	 SHORT $LN1@Allocate@3
  00017	6b c9 0c	 imul	 ecx, 12			; 0000000cH
  0001a	51		 push	 ecx
  0001b	e8 00 00 00 00	 call	 ??2@YAPAXI@Z		; operator new
  00020	59		 pop	 ecx
  00021	85 c0		 test	 eax, eax

; 38   : 
; 39   : 	return ((_Ty _FARQ *)_Ptr);

  00023	75 26		 jne	 SHORT $LN5@Allocate@3
$LN1@Allocate@3:

; 37   : 		_THROW_NCEE(bad_alloc, 0);

  00025	83 65 08 00	 and	 DWORD PTR $T561724[ebp], 0
  00029	8d 45 08	 lea	 eax, DWORD PTR $T561724[ebp]
  0002c	50		 push	 eax
  0002d	8d 4d f4	 lea	 ecx, DWORD PTR $T561720[ebp]
  00030	ff 15 00 00 00
	00		 call	 DWORD PTR __imp_??0exception@std@@QAE@ABQBD@Z
  00036	68 00 00 00 00	 push	 OFFSET __TI2?AVbad_alloc@std@@
  0003b	8d 45 f4	 lea	 eax, DWORD PTR $T561720[ebp]
  0003e	50		 push	 eax
  0003f	c7 45 f4 00 00
	00 00		 mov	 DWORD PTR $T561720[ebp], OFFSET ??_7bad_alloc@std@@6B@
  00046	e8 00 00 00 00	 call	 __CxxThrowException@8
$LN10@Allocate@3:
$LN5@Allocate@3:

; 40   : 	}

  0004b	c9		 leave
  0004c	c3		 ret	 0
$LN9@Allocate@3:
??$_Allocate@UtagSuperDimension_HP_Scale_Info@@@std@@YAPAUtagSuperDimension_HP_Scale_Info@@IPAU1@@Z ENDP ; std::_Allocate<tagSuperDimension_HP_Scale_Info>
_TEXT	ENDS
PUBLIC	?construct@?$allocator@VioHashString@@@std@@QAEXPAVioHashString@@$$QAV3@@Z ; std::allocator<ioHashString>::construct
EXTRN	__imp_??0ioHashString@@QAE@ABV0@@Z:PROC
EXTRN	__EH_epilog3:PROC
EXTRN	__EH_prolog3:PROC
;	COMDAT xdata$x
; File c:\program files (x86)\microsoft visual studio 10.0\vc\include\utility
xdata$x	SEGMENT
__unwindtable$?construct@?$allocator@VioHashString@@@std@@QAEXPAVioHashString@@$$QAV3@@Z DD 0ffffffffH
	DD	FLAT:__unwindfunclet$?construct@?$allocator@VioHashString@@@std@@QAEXPAVioHashString@@$$QAV3@@Z$0
__ehfuncinfo$?construct@?$allocator@VioHashString@@@std@@QAEXPAVioHashString@@$$QAV3@@Z DD 019930522H
	DD	01H
	DD	FLAT:__unwindtable$?construct@?$allocator@VioHashString@@@std@@QAEXPAVioHashString@@$$QAV3@@Z
	DD	2 DUP(00H)
	DD	2 DUP(00H)
	DD	00H
	DD	01H
; Function compile flags: /Ogsp
; File c:\program files (x86)\microsoft visual studio 10.0\vc\include\xmemory
xdata$x	ENDS
;	COMDAT ?construct@?$allocator@VioHashString@@@std@@QAEXPAVioHashString@@$$QAV3@@Z
_TEXT	SEGMENT
$T561730 = -16						; size = 4
__$EHRec$ = -12						; size = 12
__Ptr$ = 8						; size = 4
__Val$ = 12						; size = 4
?construct@?$allocator@VioHashString@@@std@@QAEXPAVioHashString@@$$QAV3@@Z PROC ; std::allocator<ioHashString>::construct, COMDAT
; _this$ = ecx

; 201  : 		{	// construct object at _Ptr with value _Val

  00000	6a 04		 push	 4
  00002	b8 00 00 00 00	 mov	 eax, __ehhandler$?construct@?$allocator@VioHashString@@@std@@QAEXPAVioHashString@@$$QAV3@@Z
  00007	e8 00 00 00 00	 call	 __EH_prolog3

; 202  : 		::new ((void _FARQ *)_Ptr) _Ty(_STD forward<_Ty>(_Val));

  0000c	8b 4d 08	 mov	 ecx, DWORD PTR __Ptr$[ebp]
  0000f	89 4d f0	 mov	 DWORD PTR $T561730[ebp], ecx
  00012	83 65 fc 00	 and	 DWORD PTR __$EHRec$[ebp+8], 0
  00016	85 c9		 test	 ecx, ecx
  00018	74 09		 je	 SHORT $LN3@construct
  0001a	ff 75 0c	 push	 DWORD PTR __Val$[ebp]
  0001d	ff 15 00 00 00
	00		 call	 DWORD PTR __imp_??0ioHashString@@QAE@ABV0@@Z
$LN3@construct:

; 203  : 		}

  00023	e8 00 00 00 00	 call	 __EH_epilog3
  00028	c2 08 00	 ret	 8
_TEXT	ENDS
;	COMDAT text$x
text$x	SEGMENT
__unwindfunclet$?construct@?$allocator@VioHashString@@@std@@QAEXPAVioHashString@@$$QAV3@@Z$0:
  00000	ff 75 08	 push	 DWORD PTR __Ptr$[ebp]
  00003	ff 75 f0	 push	 DWORD PTR $T561730[ebp]
  00006	e8 00 00 00 00	 call	 ??3@YAXPAX0@Z		; operator delete
  0000b	59		 pop	 ecx
  0000c	59		 pop	 ecx
  0000d	c3		 ret	 0
__ehhandler$?construct@?$allocator@VioHashString@@@std@@QAEXPAVioHashString@@$$QAV3@@Z:
  0000e	8b 54 24 08	 mov	 edx, DWORD PTR [esp+8]
  00012	8d 42 0c	 lea	 eax, DWORD PTR [edx+12]
  00015	8b 4a ec	 mov	 ecx, DWORD PTR [edx-20]
  00018	33 c8		 xor	 ecx, eax
  0001a	e8 00 00 00 00	 call	 @__security_check_cookie@4
  0001f	b8 00 00 00 00	 mov	 eax, OFFSET __ehfuncinfo$?construct@?$allocator@VioHashString@@@std@@QAEXPAVioHashString@@$$QAV3@@Z
  00024	e9 00 00 00 00	 jmp	 ___CxxFrameHandler3
text$x	ENDS
?construct@?$allocator@VioHashString@@@std@@QAEXPAVioHashString@@$$QAV3@@Z ENDP ; std::allocator<ioHashString>::construct
PUBLIC	??G?$_Vector_const_iterator@V?$_Vector_val@UDistInfo@ioSuperDimensionItem@@V?$allocator@UDistInfo@ioSuperDimensionItem@@@std@@@std@@@std@@QBEHABV01@@Z ; std::_Vector_const_iterator<std::_Vector_val<ioSuperDimensionItem::DistInfo,std::allocator<ioSuperDimensionItem::DistInfo> > >::operator-
; Function compile flags: /Ogsp
; File c:\program files (x86)\microsoft visual studio 10.0\vc\include\vector
;	COMDAT ??G?$_Vector_const_iterator@V?$_Vector_val@UDistInfo@ioSuperDimensionItem@@V?$allocator@UDistInfo@ioSuperDimensionItem@@@std@@@std@@@std@@QBEHABV01@@Z
_TEXT	SEGMENT
__Right$ = 8						; size = 4
??G?$_Vector_const_iterator@V?$_Vector_val@UDistInfo@ioSuperDimensionItem@@V?$allocator@UDistInfo@ioSuperDimensionItem@@@std@@@std@@@std@@QBEHABV01@@Z PROC ; std::_Vector_const_iterator<std::_Vector_val<ioSuperDimensionItem::DistInfo,std::allocator<ioSuperDimensionItem::DistInfo> > >::operator-, COMDAT
; _this$ = ecx

; 190  : 		{	// return difference of iterators

  00000	55		 push	 ebp
  00001	8b ec		 mov	 ebp, esp

; 191  : 		_Compat(_Right);
; 192  : 		return (this->_Ptr - _Right._Ptr);

  00003	8b 01		 mov	 eax, DWORD PTR [ecx]
  00005	8b 4d 08	 mov	 ecx, DWORD PTR __Right$[ebp]
  00008	2b 01		 sub	 eax, DWORD PTR [ecx]
  0000a	c1 f8 03	 sar	 eax, 3

; 193  : 		}

  0000d	5d		 pop	 ebp
  0000e	c2 04 00	 ret	 4
??G?$_Vector_const_iterator@V?$_Vector_val@UDistInfo@ioSuperDimensionItem@@V?$allocator@UDistInfo@ioSuperDimensionItem@@@std@@@std@@@std@@QBEHABV01@@Z ENDP ; std::_Vector_const_iterator<std::_Vector_val<ioSuperDimensionItem::DistInfo,std::allocator<ioSuperDimensionItem::DistInfo> > >::operator-
_TEXT	ENDS
PUBLIC	??$forward@AAUAttackAttribute@@@std@@YAAAUAttackAttribute@@AAU1@@Z ; std::forward<AttackAttribute &>
; Function compile flags: /Ogsp
; File c:\program files (x86)\microsoft visual studio 10.0\vc\include\utility
;	COMDAT ??$forward@AAUAttackAttribute@@@std@@YAAAUAttackAttribute@@AAU1@@Z
_TEXT	SEGMENT
__Arg$ = 8						; size = 4
??$forward@AAUAttackAttribute@@@std@@YAAAUAttackAttribute@@AAU1@@Z PROC ; std::forward<AttackAttribute &>, COMDAT

; 78   : 	{	// forward _Arg, given explicitly specified type parameter

  00000	55		 push	 ebp
  00001	8b ec		 mov	 ebp, esp

; 79   : 	return ((_Ty&&)_Arg);

  00003	8b 45 08	 mov	 eax, DWORD PTR __Arg$[ebp]

; 80   : 	}

  00006	5d		 pop	 ebp
  00007	c3		 ret	 0
??$forward@AAUAttackAttribute@@@std@@YAAAUAttackAttribute@@AAU1@@Z ENDP ; std::forward<AttackAttribute &>
_TEXT	ENDS
PUBLIC	??$forward@ABUAttackAttribute@@@std@@YAABUAttackAttribute@@ABU1@@Z ; std::forward<AttackAttribute const &>
; Function compile flags: /Ogsp
;	COMDAT ??$forward@ABUAttackAttribute@@@std@@YAABUAttackAttribute@@ABU1@@Z
_TEXT	SEGMENT
__Arg$ = 8						; size = 4
??$forward@ABUAttackAttribute@@@std@@YAABUAttackAttribute@@ABU1@@Z PROC ; std::forward<AttackAttribute const &>, COMDAT

; 78   : 	{	// forward _Arg, given explicitly specified type parameter

  00000	55		 push	 ebp
  00001	8b ec		 mov	 ebp, esp

; 79   : 	return ((_Ty&&)_Arg);

  00003	8b 45 08	 mov	 eax, DWORD PTR __Arg$[ebp]

; 80   : 	}

  00006	5d		 pop	 ebp
  00007	c3		 ret	 0
??$forward@ABUAttackAttribute@@@std@@YAABUAttackAttribute@@ABU1@@Z ENDP ; std::forward<AttackAttribute const &>
_TEXT	ENDS
PUBLIC	??$forward@AAUDistInfo@ioSuperDimensionItem@@@std@@YAAAUDistInfo@ioSuperDimensionItem@@AAU12@@Z ; std::forward<ioSuperDimensionItem::DistInfo &>
; Function compile flags: /Ogsp
;	COMDAT ??$forward@AAUDistInfo@ioSuperDimensionItem@@@std@@YAAAUDistInfo@ioSuperDimensionItem@@AAU12@@Z
_TEXT	SEGMENT
__Arg$ = 8						; size = 4
??$forward@AAUDistInfo@ioSuperDimensionItem@@@std@@YAAAUDistInfo@ioSuperDimensionItem@@AAU12@@Z PROC ; std::forward<ioSuperDimensionItem::DistInfo &>, COMDAT

; 78   : 	{	// forward _Arg, given explicitly specified type parameter

  00000	55		 push	 ebp
  00001	8b ec		 mov	 ebp, esp

; 79   : 	return ((_Ty&&)_Arg);

  00003	8b 45 08	 mov	 eax, DWORD PTR __Arg$[ebp]

; 80   : 	}

  00006	5d		 pop	 ebp
  00007	c3		 ret	 0
??$forward@AAUDistInfo@ioSuperDimensionItem@@@std@@YAAAUDistInfo@ioSuperDimensionItem@@AAU12@@Z ENDP ; std::forward<ioSuperDimensionItem::DistInfo &>
_TEXT	ENDS
PUBLIC	??$construct@AAUDistInfo@ioSuperDimensionItem@@@?$allocator@UDistInfo@ioSuperDimensionItem@@@std@@QAEXPAUDistInfo@ioSuperDimensionItem@@AAU23@@Z ; std::allocator<ioSuperDimensionItem::DistInfo>::construct<ioSuperDimensionItem::DistInfo &>
; Function compile flags: /Ogsp
; File c:\program files (x86)\microsoft visual studio 10.0\vc\include\xmemory
;	COMDAT ??$construct@AAUDistInfo@ioSuperDimensionItem@@@?$allocator@UDistInfo@ioSuperDimensionItem@@@std@@QAEXPAUDistInfo@ioSuperDimensionItem@@AAU23@@Z
_TEXT	SEGMENT
__Ptr$ = 8						; size = 4
__Val$ = 12						; size = 4
??$construct@AAUDistInfo@ioSuperDimensionItem@@@?$allocator@UDistInfo@ioSuperDimensionItem@@@std@@QAEXPAUDistInfo@ioSuperDimensionItem@@AAU23@@Z PROC ; std::allocator<ioSuperDimensionItem::DistInfo>::construct<ioSuperDimensionItem::DistInfo &>, COMDAT
; _this$ = ecx

; 206  : 		void construct(pointer _Ptr, _Other&& _Val)

  00000	55		 push	 ebp
  00001	8b ec		 mov	 ebp, esp

; 207  : 		{	// construct object at _Ptr with value _Val
; 208  : 		::new ((void _FARQ *)_Ptr) _Ty(_STD forward<_Other>(_Val));

  00003	8b 45 08	 mov	 eax, DWORD PTR __Ptr$[ebp]
  00006	85 c0		 test	 eax, eax
  00008	74 0d		 je	 SHORT $LN3@construct@2
  0000a	8b 4d 0c	 mov	 ecx, DWORD PTR __Val$[ebp]
  0000d	8b 11		 mov	 edx, DWORD PTR [ecx]
  0000f	89 10		 mov	 DWORD PTR [eax], edx
  00011	8b 49 04	 mov	 ecx, DWORD PTR [ecx+4]
  00014	89 48 04	 mov	 DWORD PTR [eax+4], ecx
$LN3@construct@2:

; 209  : 		}

  00017	5d		 pop	 ebp
  00018	c2 08 00	 ret	 8
??$construct@AAUDistInfo@ioSuperDimensionItem@@@?$allocator@UDistInfo@ioSuperDimensionItem@@@std@@QAEXPAUDistInfo@ioSuperDimensionItem@@AAU23@@Z ENDP ; std::allocator<ioSuperDimensionItem::DistInfo>::construct<ioSuperDimensionItem::DistInfo &>
_TEXT	ENDS
PUBLIC	??$forward@ABUDistInfo@ioSuperDimensionItem@@@std@@YAABUDistInfo@ioSuperDimensionItem@@ABU12@@Z ; std::forward<ioSuperDimensionItem::DistInfo const &>
; Function compile flags: /Ogsp
; File c:\program files (x86)\microsoft visual studio 10.0\vc\include\utility
;	COMDAT ??$forward@ABUDistInfo@ioSuperDimensionItem@@@std@@YAABUDistInfo@ioSuperDimensionItem@@ABU12@@Z
_TEXT	SEGMENT
__Arg$ = 8						; size = 4
??$forward@ABUDistInfo@ioSuperDimensionItem@@@std@@YAABUDistInfo@ioSuperDimensionItem@@ABU12@@Z PROC ; std::forward<ioSuperDimensionItem::DistInfo const &>, COMDAT

; 78   : 	{	// forward _Arg, given explicitly specified type parameter

  00000	55		 push	 ebp
  00001	8b ec		 mov	 ebp, esp

; 79   : 	return ((_Ty&&)_Arg);

  00003	8b 45 08	 mov	 eax, DWORD PTR __Arg$[ebp]

; 80   : 	}

  00006	5d		 pop	 ebp
  00007	c3		 ret	 0
??$forward@ABUDistInfo@ioSuperDimensionItem@@@std@@YAABUDistInfo@ioSuperDimensionItem@@ABU12@@Z ENDP ; std::forward<ioSuperDimensionItem::DistInfo const &>
_TEXT	ENDS
PUBLIC	??$_Ptr_cat@UDistInfo@ioSuperDimensionItem@@U12@@std@@YA?AU_Nonscalar_ptr_iterator_tag@0@PAUDistInfo@ioSuperDimensionItem@@0@Z ; std::_Ptr_cat<ioSuperDimensionItem::DistInfo,ioSuperDimensionItem::DistInfo>
; Function compile flags: /Ogsp
; File c:\program files (x86)\microsoft visual studio 10.0\vc\include\xutility
;	COMDAT ??$_Ptr_cat@UDistInfo@ioSuperDimensionItem@@U12@@std@@YA?AU_Nonscalar_ptr_iterator_tag@0@PAUDistInfo@ioSuperDimensionItem@@0@Z
_TEXT	SEGMENT
__Cat$ = -1						; size = 1
___formal$ = 8						; size = 4
___formal$ = 12						; size = 4
??$_Ptr_cat@UDistInfo@ioSuperDimensionItem@@U12@@std@@YA?AU_Nonscalar_ptr_iterator_tag@0@PAUDistInfo@ioSuperDimensionItem@@0@Z PROC ; std::_Ptr_cat<ioSuperDimensionItem::DistInfo,ioSuperDimensionItem::DistInfo>, COMDAT

; 516  : 	{	// return pointer category from pointers

  00000	55		 push	 ebp
  00001	8b ec		 mov	 ebp, esp
  00003	51		 push	 ecx

; 517  : 	typename _Ptr_cat_helper<_Elem1, _Elem2>::_Type _Cat;
; 518  : 	return (_Cat);

  00004	8a 45 ff	 mov	 al, BYTE PTR __Cat$[ebp]

; 519  : 	}

  00007	c9		 leave
  00008	c3		 ret	 0
??$_Ptr_cat@UDistInfo@ioSuperDimensionItem@@U12@@std@@YA?AU_Nonscalar_ptr_iterator_tag@0@PAUDistInfo@ioSuperDimensionItem@@0@Z ENDP ; std::_Ptr_cat<ioSuperDimensionItem::DistInfo,ioSuperDimensionItem::DistInfo>
_TEXT	ENDS
PUBLIC	??$forward@AAUtagSuperDimension_HP_Scale_Info@@@std@@YAAAUtagSuperDimension_HP_Scale_Info@@AAU1@@Z ; std::forward<tagSuperDimension_HP_Scale_Info &>
; Function compile flags: /Ogsp
; File c:\program files (x86)\microsoft visual studio 10.0\vc\include\utility
;	COMDAT ??$forward@AAUtagSuperDimension_HP_Scale_Info@@@std@@YAAAUtagSuperDimension_HP_Scale_Info@@AAU1@@Z
_TEXT	SEGMENT
__Arg$ = 8						; size = 4
??$forward@AAUtagSuperDimension_HP_Scale_Info@@@std@@YAAAUtagSuperDimension_HP_Scale_Info@@AAU1@@Z PROC ; std::forward<tagSuperDimension_HP_Scale_Info &>, COMDAT

; 78   : 	{	// forward _Arg, given explicitly specified type parameter

  00000	55		 push	 ebp
  00001	8b ec		 mov	 ebp, esp

; 79   : 	return ((_Ty&&)_Arg);

  00003	8b 45 08	 mov	 eax, DWORD PTR __Arg$[ebp]

; 80   : 	}

  00006	5d		 pop	 ebp
  00007	c3		 ret	 0
??$forward@AAUtagSuperDimension_HP_Scale_Info@@@std@@YAAAUtagSuperDimension_HP_Scale_Info@@AAU1@@Z ENDP ; std::forward<tagSuperDimension_HP_Scale_Info &>
_TEXT	ENDS
PUBLIC	??$construct@AAUtagSuperDimension_HP_Scale_Info@@@?$allocator@UtagSuperDimension_HP_Scale_Info@@@std@@QAEXPAUtagSuperDimension_HP_Scale_Info@@AAU2@@Z ; std::allocator<tagSuperDimension_HP_Scale_Info>::construct<tagSuperDimension_HP_Scale_Info &>
; Function compile flags: /Ogsp
; File c:\program files (x86)\microsoft visual studio 10.0\vc\include\xmemory
;	COMDAT ??$construct@AAUtagSuperDimension_HP_Scale_Info@@@?$allocator@UtagSuperDimension_HP_Scale_Info@@@std@@QAEXPAUtagSuperDimension_HP_Scale_Info@@AAU2@@Z
_TEXT	SEGMENT
__Ptr$ = 8						; size = 4
__Val$ = 12						; size = 4
??$construct@AAUtagSuperDimension_HP_Scale_Info@@@?$allocator@UtagSuperDimension_HP_Scale_Info@@@std@@QAEXPAUtagSuperDimension_HP_Scale_Info@@AAU2@@Z PROC ; std::allocator<tagSuperDimension_HP_Scale_Info>::construct<tagSuperDimension_HP_Scale_Info &>, COMDAT
; _this$ = ecx

; 206  : 		void construct(pointer _Ptr, _Other&& _Val)

  00000	55		 push	 ebp
  00001	8b ec		 mov	 ebp, esp
  00003	57		 push	 edi

; 207  : 		{	// construct object at _Ptr with value _Val
; 208  : 		::new ((void _FARQ *)_Ptr) _Ty(_STD forward<_Other>(_Val));

  00004	8b 7d 08	 mov	 edi, DWORD PTR __Ptr$[ebp]
  00007	85 ff		 test	 edi, edi
  00009	74 08		 je	 SHORT $LN3@construct@3
  0000b	56		 push	 esi
  0000c	8b 75 0c	 mov	 esi, DWORD PTR __Val$[ebp]
  0000f	a5		 movsd
  00010	a5		 movsd
  00011	a5		 movsd
  00012	5e		 pop	 esi
$LN3@construct@3:
  00013	5f		 pop	 edi

; 209  : 		}

  00014	5d		 pop	 ebp
  00015	c2 08 00	 ret	 8
??$construct@AAUtagSuperDimension_HP_Scale_Info@@@?$allocator@UtagSuperDimension_HP_Scale_Info@@@std@@QAEXPAUtagSuperDimension_HP_Scale_Info@@AAU2@@Z ENDP ; std::allocator<tagSuperDimension_HP_Scale_Info>::construct<tagSuperDimension_HP_Scale_Info &>
_TEXT	ENDS
PUBLIC	??$forward@ABUtagSuperDimension_HP_Scale_Info@@@std@@YAABUtagSuperDimension_HP_Scale_Info@@ABU1@@Z ; std::forward<tagSuperDimension_HP_Scale_Info const &>
; Function compile flags: /Ogsp
; File c:\program files (x86)\microsoft visual studio 10.0\vc\include\utility
;	COMDAT ??$forward@ABUtagSuperDimension_HP_Scale_Info@@@std@@YAABUtagSuperDimension_HP_Scale_Info@@ABU1@@Z
_TEXT	SEGMENT
__Arg$ = 8						; size = 4
??$forward@ABUtagSuperDimension_HP_Scale_Info@@@std@@YAABUtagSuperDimension_HP_Scale_Info@@ABU1@@Z PROC ; std::forward<tagSuperDimension_HP_Scale_Info const &>, COMDAT

; 78   : 	{	// forward _Arg, given explicitly specified type parameter

  00000	55		 push	 ebp
  00001	8b ec		 mov	 ebp, esp

; 79   : 	return ((_Ty&&)_Arg);

  00003	8b 45 08	 mov	 eax, DWORD PTR __Arg$[ebp]

; 80   : 	}

  00006	5d		 pop	 ebp
  00007	c3		 ret	 0
??$forward@ABUtagSuperDimension_HP_Scale_Info@@@std@@YAABUtagSuperDimension_HP_Scale_Info@@ABU1@@Z ENDP ; std::forward<tagSuperDimension_HP_Scale_Info const &>
_TEXT	ENDS
PUBLIC	??$_Ptr_cat@UtagSuperDimension_HP_Scale_Info@@U1@@std@@YA?AU_Nonscalar_ptr_iterator_tag@0@PAUtagSuperDimension_HP_Scale_Info@@0@Z ; std::_Ptr_cat<tagSuperDimension_HP_Scale_Info,tagSuperDimension_HP_Scale_Info>
; Function compile flags: /Ogsp
; File c:\program files (x86)\microsoft visual studio 10.0\vc\include\xutility
;	COMDAT ??$_Ptr_cat@UtagSuperDimension_HP_Scale_Info@@U1@@std@@YA?AU_Nonscalar_ptr_iterator_tag@0@PAUtagSuperDimension_HP_Scale_Info@@0@Z
_TEXT	SEGMENT
__Cat$ = -1						; size = 1
___formal$ = 8						; size = 4
___formal$ = 12						; size = 4
??$_Ptr_cat@UtagSuperDimension_HP_Scale_Info@@U1@@std@@YA?AU_Nonscalar_ptr_iterator_tag@0@PAUtagSuperDimension_HP_Scale_Info@@0@Z PROC ; std::_Ptr_cat<tagSuperDimension_HP_Scale_Info,tagSuperDimension_HP_Scale_Info>, COMDAT

; 516  : 	{	// return pointer category from pointers

  00000	55		 push	 ebp
  00001	8b ec		 mov	 ebp, esp
  00003	51		 push	 ecx

; 517  : 	typename _Ptr_cat_helper<_Elem1, _Elem2>::_Type _Cat;
; 518  : 	return (_Cat);

  00004	8a 45 ff	 mov	 al, BYTE PTR __Cat$[ebp]

; 519  : 	}

  00007	c9		 leave
  00008	c3		 ret	 0
??$_Ptr_cat@UtagSuperDimension_HP_Scale_Info@@U1@@std@@YA?AU_Nonscalar_ptr_iterator_tag@0@PAUtagSuperDimension_HP_Scale_Info@@0@Z ENDP ; std::_Ptr_cat<tagSuperDimension_HP_Scale_Info,tagSuperDimension_HP_Scale_Info>
_TEXT	ENDS
PUBLIC	??$_Construct@UDistInfo@ioSuperDimensionItem@@ABU12@@std@@YAXPAUDistInfo@ioSuperDimensionItem@@ABU12@@Z ; std::_Construct<ioSuperDimensionItem::DistInfo,ioSuperDimensionItem::DistInfo const &>
; Function compile flags: /Ogsp
; File c:\program files (x86)\microsoft visual studio 10.0\vc\include\xmemory
;	COMDAT ??$_Construct@UDistInfo@ioSuperDimensionItem@@ABU12@@std@@YAXPAUDistInfo@ioSuperDimensionItem@@ABU12@@Z
_TEXT	SEGMENT
__Ptr$ = 8						; size = 4
__Val$ = 12						; size = 4
??$_Construct@UDistInfo@ioSuperDimensionItem@@ABU12@@std@@YAXPAUDistInfo@ioSuperDimensionItem@@ABU12@@Z PROC ; std::_Construct<ioSuperDimensionItem::DistInfo,ioSuperDimensionItem::DistInfo const &>, COMDAT

; 46   : 	{	// construct object at _Ptr with value _Val

  00000	55		 push	 ebp
  00001	8b ec		 mov	 ebp, esp

; 47   : 	void _FARQ *_Vptr = _Ptr;
; 48   : 	::new (_Vptr) _Ty1(_STD forward<_Ty2>(_Val));

  00003	8b 45 08	 mov	 eax, DWORD PTR __Ptr$[ebp]
  00006	85 c0		 test	 eax, eax
  00008	74 0d		 je	 SHORT $LN3@Construct
  0000a	8b 4d 0c	 mov	 ecx, DWORD PTR __Val$[ebp]
  0000d	8b 11		 mov	 edx, DWORD PTR [ecx]
  0000f	89 10		 mov	 DWORD PTR [eax], edx
  00011	8b 49 04	 mov	 ecx, DWORD PTR [ecx+4]
  00014	89 48 04	 mov	 DWORD PTR [eax+4], ecx
$LN3@Construct:

; 49   : 	}

  00017	5d		 pop	 ebp
  00018	c3		 ret	 0
??$_Construct@UDistInfo@ioSuperDimensionItem@@ABU12@@std@@YAXPAUDistInfo@ioSuperDimensionItem@@ABU12@@Z ENDP ; std::_Construct<ioSuperDimensionItem::DistInfo,ioSuperDimensionItem::DistInfo const &>
_TEXT	ENDS
PUBLIC	??$_Construct@UtagSuperDimension_HP_Scale_Info@@ABU1@@std@@YAXPAUtagSuperDimension_HP_Scale_Info@@ABU1@@Z ; std::_Construct<tagSuperDimension_HP_Scale_Info,tagSuperDimension_HP_Scale_Info const &>
; Function compile flags: /Ogsp
;	COMDAT ??$_Construct@UtagSuperDimension_HP_Scale_Info@@ABU1@@std@@YAXPAUtagSuperDimension_HP_Scale_Info@@ABU1@@Z
_TEXT	SEGMENT
__Ptr$ = 8						; size = 4
__Val$ = 12						; size = 4
??$_Construct@UtagSuperDimension_HP_Scale_Info@@ABU1@@std@@YAXPAUtagSuperDimension_HP_Scale_Info@@ABU1@@Z PROC ; std::_Construct<tagSuperDimension_HP_Scale_Info,tagSuperDimension_HP_Scale_Info const &>, COMDAT

; 46   : 	{	// construct object at _Ptr with value _Val

  00000	55		 push	 ebp
  00001	8b ec		 mov	 ebp, esp
  00003	57		 push	 edi

; 47   : 	void _FARQ *_Vptr = _Ptr;
; 48   : 	::new (_Vptr) _Ty1(_STD forward<_Ty2>(_Val));

  00004	8b 7d 08	 mov	 edi, DWORD PTR __Ptr$[ebp]
  00007	85 ff		 test	 edi, edi
  00009	74 08		 je	 SHORT $LN3@Construct@2
  0000b	56		 push	 esi
  0000c	8b 75 0c	 mov	 esi, DWORD PTR __Val$[ebp]
  0000f	a5		 movsd
  00010	a5		 movsd
  00011	a5		 movsd
  00012	5e		 pop	 esi
$LN3@Construct@2:
  00013	5f		 pop	 edi

; 49   : 	}

  00014	5d		 pop	 ebp
  00015	c3		 ret	 0
??$_Construct@UtagSuperDimension_HP_Scale_Info@@ABU1@@std@@YAXPAUtagSuperDimension_HP_Scale_Info@@ABU1@@Z ENDP ; std::_Construct<tagSuperDimension_HP_Scale_Info,tagSuperDimension_HP_Scale_Info const &>
_TEXT	ENDS
PUBLIC	?_Unchecked@?$_Vector_iterator@V?$_Vector_val@UDistInfo@ioSuperDimensionItem@@V?$allocator@UDistInfo@ioSuperDimensionItem@@@std@@@std@@@std@@QBEPAUDistInfo@ioSuperDimensionItem@@XZ ; std::_Vector_iterator<std::_Vector_val<ioSuperDimensionItem::DistInfo,std::allocator<ioSuperDimensionItem::DistInfo> > >::_Unchecked
; Function compile flags: /Ogsp
; File c:\program files (x86)\microsoft visual studio 10.0\vc\include\vector
;	COMDAT ?_Unchecked@?$_Vector_iterator@V?$_Vector_val@UDistInfo@ioSuperDimensionItem@@V?$allocator@UDistInfo@ioSuperDimensionItem@@@std@@@std@@@std@@QBEPAUDistInfo@ioSuperDimensionItem@@XZ
_TEXT	SEGMENT
?_Unchecked@?$_Vector_iterator@V?$_Vector_val@UDistInfo@ioSuperDimensionItem@@V?$allocator@UDistInfo@ioSuperDimensionItem@@@std@@@std@@@std@@QBEPAUDistInfo@ioSuperDimensionItem@@XZ PROC ; std::_Vector_iterator<std::_Vector_val<ioSuperDimensionItem::DistInfo,std::allocator<ioSuperDimensionItem::DistInfo> > >::_Unchecked, COMDAT
; _this$ = ecx

; 317  : 		return (_Unchecked_type(this->_Ptr));

  00000	8b 01		 mov	 eax, DWORD PTR [ecx]

; 318  : 		}

  00002	c3		 ret	 0
?_Unchecked@?$_Vector_iterator@V?$_Vector_val@UDistInfo@ioSuperDimensionItem@@V?$allocator@UDistInfo@ioSuperDimensionItem@@@std@@@std@@@std@@QBEPAUDistInfo@ioSuperDimensionItem@@XZ ENDP ; std::_Vector_iterator<std::_Vector_val<ioSuperDimensionItem::DistInfo,std::allocator<ioSuperDimensionItem::DistInfo> > >::_Unchecked
_TEXT	ENDS
PUBLIC	??$_Ptr_cat@V?$_Vector_const_iterator@V?$_Vector_val@UWeaponInfo@@V?$allocator@UWeaponInfo@@@std@@@std@@@std@@PAUWeaponInfo@@@std@@YA?AU_Nonscalar_ptr_iterator_tag@0@AAV?$_Vector_const_iterator@V?$_Vector_val@UWeaponInfo@@V?$allocator@UWeaponInfo@@@std@@@std@@@0@AAPAUWeaponInfo@@@Z ; std::_Ptr_cat<std::_Vector_const_iterator<std::_Vector_val<WeaponInfo,std::allocator<WeaponInfo> > >,WeaponInfo *>
; Function compile flags: /Ogsp
; File c:\program files (x86)\microsoft visual studio 10.0\vc\include\xutility
;	COMDAT ??$_Ptr_cat@V?$_Vector_const_iterator@V?$_Vector_val@UWeaponInfo@@V?$allocator@UWeaponInfo@@@std@@@std@@@std@@PAUWeaponInfo@@@std@@YA?AU_Nonscalar_ptr_iterator_tag@0@AAV?$_Vector_const_iterator@V?$_Vector_val@UWeaponInfo@@V?$allocator@UWeaponInfo@@@std@@@std@@@0@AAPAUWeaponInfo@@@Z
_TEXT	SEGMENT
__Cat$ = -1						; size = 1
___formal$ = 8						; size = 4
___formal$ = 12						; size = 4
??$_Ptr_cat@V?$_Vector_const_iterator@V?$_Vector_val@UWeaponInfo@@V?$allocator@UWeaponInfo@@@std@@@std@@@std@@PAUWeaponInfo@@@std@@YA?AU_Nonscalar_ptr_iterator_tag@0@AAV?$_Vector_const_iterator@V?$_Vector_val@UWeaponInfo@@V?$allocator@UWeaponInfo@@@std@@@std@@@0@AAPAUWeaponInfo@@@Z PROC ; std::_Ptr_cat<std::_Vector_const_iterator<std::_Vector_val<WeaponInfo,std::allocator<WeaponInfo> > >,WeaponInfo *>, COMDAT

; 485  : 	{	// return pointer category from arbitrary arguments

  00000	55		 push	 ebp
  00001	8b ec		 mov	 ebp, esp
  00003	51		 push	 ecx

; 486  : 	_Nonscalar_ptr_iterator_tag _Cat;
; 487  : 	return (_Cat);

  00004	8a 45 ff	 mov	 al, BYTE PTR __Cat$[ebp]

; 488  : 	}

  00007	c9		 leave
  00008	c3		 ret	 0
??$_Ptr_cat@V?$_Vector_const_iterator@V?$_Vector_val@UWeaponInfo@@V?$allocator@UWeaponInfo@@@std@@@std@@@std@@PAUWeaponInfo@@@std@@YA?AU_Nonscalar_ptr_iterator_tag@0@AAV?$_Vector_const_iterator@V?$_Vector_val@UWeaponInfo@@V?$allocator@UWeaponInfo@@@std@@@std@@@0@AAPAUWeaponInfo@@@Z ENDP ; std::_Ptr_cat<std::_Vector_const_iterator<std::_Vector_val<WeaponInfo,std::allocator<WeaponInfo> > >,WeaponInfo *>
_TEXT	ENDS
PUBLIC	??$_Ptr_cat@V?$_Vector_const_iterator@V?$_Vector_val@UForceInfo@@V?$allocator@UForceInfo@@@std@@@std@@@std@@PAUForceInfo@@@std@@YA?AU_Nonscalar_ptr_iterator_tag@0@AAV?$_Vector_const_iterator@V?$_Vector_val@UForceInfo@@V?$allocator@UForceInfo@@@std@@@std@@@0@AAPAUForceInfo@@@Z ; std::_Ptr_cat<std::_Vector_const_iterator<std::_Vector_val<ForceInfo,std::allocator<ForceInfo> > >,ForceInfo *>
; Function compile flags: /Ogsp
;	COMDAT ??$_Ptr_cat@V?$_Vector_const_iterator@V?$_Vector_val@UForceInfo@@V?$allocator@UForceInfo@@@std@@@std@@@std@@PAUForceInfo@@@std@@YA?AU_Nonscalar_ptr_iterator_tag@0@AAV?$_Vector_const_iterator@V?$_Vector_val@UForceInfo@@V?$allocator@UForceInfo@@@std@@@std@@@0@AAPAUForceInfo@@@Z
_TEXT	SEGMENT
__Cat$ = -1						; size = 1
___formal$ = 8						; size = 4
___formal$ = 12						; size = 4
??$_Ptr_cat@V?$_Vector_const_iterator@V?$_Vector_val@UForceInfo@@V?$allocator@UForceInfo@@@std@@@std@@@std@@PAUForceInfo@@@std@@YA?AU_Nonscalar_ptr_iterator_tag@0@AAV?$_Vector_const_iterator@V?$_Vector_val@UForceInfo@@V?$allocator@UForceInfo@@@std@@@std@@@0@AAPAUForceInfo@@@Z PROC ; std::_Ptr_cat<std::_Vector_const_iterator<std::_Vector_val<ForceInfo,std::allocator<ForceInfo> > >,ForceInfo *>, COMDAT

; 485  : 	{	// return pointer category from arbitrary arguments

  00000	55		 push	 ebp
  00001	8b ec		 mov	 ebp, esp
  00003	51		 push	 ecx

; 486  : 	_Nonscalar_ptr_iterator_tag _Cat;
; 487  : 	return (_Cat);

  00004	8a 45 ff	 mov	 al, BYTE PTR __Cat$[ebp]

; 488  : 	}

  00007	c9		 leave
  00008	c3		 ret	 0
??$_Ptr_cat@V?$_Vector_const_iterator@V?$_Vector_val@UForceInfo@@V?$allocator@UForceInfo@@@std@@@std@@@std@@PAUForceInfo@@@std@@YA?AU_Nonscalar_ptr_iterator_tag@0@AAV?$_Vector_const_iterator@V?$_Vector_val@UForceInfo@@V?$allocator@UForceInfo@@@std@@@std@@@0@AAPAUForceInfo@@@Z ENDP ; std::_Ptr_cat<std::_Vector_const_iterator<std::_Vector_val<ForceInfo,std::allocator<ForceInfo> > >,ForceInfo *>
_TEXT	ENDS
PUBLIC	??$_Ptr_cat@V?$_Vector_const_iterator@V?$_Vector_val@UAttackAttribute@@V?$allocator@UAttackAttribute@@@std@@@std@@@std@@PAUAttackAttribute@@@std@@YA?AU_Nonscalar_ptr_iterator_tag@0@AAV?$_Vector_const_iterator@V?$_Vector_val@UAttackAttribute@@V?$allocator@UAttackAttribute@@@std@@@std@@@0@AAPAUAttackAttribute@@@Z ; std::_Ptr_cat<std::_Vector_const_iterator<std::_Vector_val<AttackAttribute,std::allocator<AttackAttribute> > >,AttackAttribute *>
; Function compile flags: /Ogsp
;	COMDAT ??$_Ptr_cat@V?$_Vector_const_iterator@V?$_Vector_val@UAttackAttribute@@V?$allocator@UAttackAttribute@@@std@@@std@@@std@@PAUAttackAttribute@@@std@@YA?AU_Nonscalar_ptr_iterator_tag@0@AAV?$_Vector_const_iterator@V?$_Vector_val@UAttackAttribute@@V?$allocator@UAttackAttribute@@@std@@@std@@@0@AAPAUAttackAttribute@@@Z
_TEXT	SEGMENT
__Cat$ = -1						; size = 1
___formal$ = 8						; size = 4
___formal$ = 12						; size = 4
??$_Ptr_cat@V?$_Vector_const_iterator@V?$_Vector_val@UAttackAttribute@@V?$allocator@UAttackAttribute@@@std@@@std@@@std@@PAUAttackAttribute@@@std@@YA?AU_Nonscalar_ptr_iterator_tag@0@AAV?$_Vector_const_iterator@V?$_Vector_val@UAttackAttribute@@V?$allocator@UAttackAttribute@@@std@@@std@@@0@AAPAUAttackAttribute@@@Z PROC ; std::_Ptr_cat<std::_Vector_const_iterator<std::_Vector_val<AttackAttribute,std::allocator<AttackAttribute> > >,AttackAttribute *>, COMDAT

; 485  : 	{	// return pointer category from arbitrary arguments

  00000	55		 push	 ebp
  00001	8b ec		 mov	 ebp, esp
  00003	51		 push	 ecx

; 486  : 	_Nonscalar_ptr_iterator_tag _Cat;
; 487  : 	return (_Cat);

  00004	8a 45 ff	 mov	 al, BYTE PTR __Cat$[ebp]

; 488  : 	}

  00007	c9		 leave
  00008	c3		 ret	 0
??$_Ptr_cat@V?$_Vector_const_iterator@V?$_Vector_val@UAttackAttribute@@V?$allocator@UAttackAttribute@@@std@@@std@@@std@@PAUAttackAttribute@@@std@@YA?AU_Nonscalar_ptr_iterator_tag@0@AAV?$_Vector_const_iterator@V?$_Vector_val@UAttackAttribute@@V?$allocator@UAttackAttribute@@@std@@@std@@@0@AAPAUAttackAttribute@@@Z ENDP ; std::_Ptr_cat<std::_Vector_const_iterator<std::_Vector_val<AttackAttribute,std::allocator<AttackAttribute> > >,AttackAttribute *>
_TEXT	ENDS
PUBLIC	??$_Val_type@PAUAttackAttribute@@@std@@YAPAUAttackAttribute@@PAU1@@Z ; std::_Val_type<AttackAttribute *>
; Function compile flags: /Ogsp
;	COMDAT ??$_Val_type@PAUAttackAttribute@@@std@@YAPAUAttackAttribute@@PAU1@@Z
_TEXT	SEGMENT
___formal$ = 8						; size = 4
??$_Val_type@PAUAttackAttribute@@@std@@YAPAUAttackAttribute@@PAU1@@Z PROC ; std::_Val_type<AttackAttribute *>, COMDAT

; 790  : 	return (0);

  00000	33 c0		 xor	 eax, eax

; 791  : 	}

  00002	c3		 ret	 0
??$_Val_type@PAUAttackAttribute@@@std@@YAPAUAttackAttribute@@PAU1@@Z ENDP ; std::_Val_type<AttackAttribute *>
_TEXT	ENDS
PUBLIC	??$_Val_type@PAUDistInfo@ioSuperDimensionItem@@@std@@YAPAUDistInfo@ioSuperDimensionItem@@PAU12@@Z ; std::_Val_type<ioSuperDimensionItem::DistInfo *>
; Function compile flags: /Ogsp
;	COMDAT ??$_Val_type@PAUDistInfo@ioSuperDimensionItem@@@std@@YAPAUDistInfo@ioSuperDimensionItem@@PAU12@@Z
_TEXT	SEGMENT
___formal$ = 8						; size = 4
??$_Val_type@PAUDistInfo@ioSuperDimensionItem@@@std@@YAPAUDistInfo@ioSuperDimensionItem@@PAU12@@Z PROC ; std::_Val_type<ioSuperDimensionItem::DistInfo *>, COMDAT

; 790  : 	return (0);

  00000	33 c0		 xor	 eax, eax

; 791  : 	}

  00002	c3		 ret	 0
??$_Val_type@PAUDistInfo@ioSuperDimensionItem@@@std@@YAPAUDistInfo@ioSuperDimensionItem@@PAU12@@Z ENDP ; std::_Val_type<ioSuperDimensionItem::DistInfo *>
_TEXT	ENDS
PUBLIC	??$move@AAUDistInfo@ioSuperDimensionItem@@@std@@YA$$QAUDistInfo@ioSuperDimensionItem@@AAU12@@Z ; std::move<ioSuperDimensionItem::DistInfo &>
; Function compile flags: /Ogsp
; File c:\program files (x86)\microsoft visual studio 10.0\vc\include\utility
;	COMDAT ??$move@AAUDistInfo@ioSuperDimensionItem@@@std@@YA$$QAUDistInfo@ioSuperDimensionItem@@AAU12@@Z
_TEXT	SEGMENT
__Arg$ = 8						; size = 4
??$move@AAUDistInfo@ioSuperDimensionItem@@@std@@YA$$QAUDistInfo@ioSuperDimensionItem@@AAU12@@Z PROC ; std::move<ioSuperDimensionItem::DistInfo &>, COMDAT

; 86   : 	{	// forward _Arg as movable

  00000	55		 push	 ebp
  00001	8b ec		 mov	 ebp, esp

; 87   : 	return ((typename tr1::_Remove_reference<_Ty>::_Type&&)_Arg);

  00003	8b 45 08	 mov	 eax, DWORD PTR __Arg$[ebp]

; 88   : 	}

  00006	5d		 pop	 ebp
  00007	c3		 ret	 0
??$move@AAUDistInfo@ioSuperDimensionItem@@@std@@YA$$QAUDistInfo@ioSuperDimensionItem@@AAU12@@Z ENDP ; std::move<ioSuperDimensionItem::DistInfo &>
_TEXT	ENDS
PUBLIC	??$_Ptr_cat@V?$_Vector_const_iterator@V?$_Vector_val@UtagSuperDimension_HP_Scale_Info@@V?$allocator@UtagSuperDimension_HP_Scale_Info@@@std@@@std@@@std@@PAUtagSuperDimension_HP_Scale_Info@@@std@@YA?AU_Nonscalar_ptr_iterator_tag@0@AAV?$_Vector_const_iterator@V?$_Vector_val@UtagSuperDimension_HP_Scale_Info@@V?$allocator@UtagSuperDimension_HP_Scale_Info@@@std@@@std@@@0@AAPAUtagSuperDimension_HP_Scale_Info@@@Z ; std::_Ptr_cat<std::_Vector_const_iterator<std::_Vector_val<tagSuperDimension_HP_Scale_Info,std::allocator<tagSuperDimension_HP_Scale_Info> > >,tagSuperDimension_HP_Scale_Info *>
; Function compile flags: /Ogsp
; File c:\program files (x86)\microsoft visual studio 10.0\vc\include\xutility
;	COMDAT ??$_Ptr_cat@V?$_Vector_const_iterator@V?$_Vector_val@UtagSuperDimension_HP_Scale_Info@@V?$allocator@UtagSuperDimension_HP_Scale_Info@@@std@@@std@@@std@@PAUtagSuperDimension_HP_Scale_Info@@@std@@YA?AU_Nonscalar_ptr_iterator_tag@0@AAV?$_Vector_const_iterator@V?$_Vector_val@UtagSuperDimension_HP_Scale_Info@@V?$allocator@UtagSuperDimension_HP_Scale_Info@@@std@@@std@@@0@AAPAUtagSuperDimension_HP_Scale_Info@@@Z
_TEXT	SEGMENT
__Cat$ = -1						; size = 1
___formal$ = 8						; size = 4
___formal$ = 12						; size = 4
??$_Ptr_cat@V?$_Vector_const_iterator@V?$_Vector_val@UtagSuperDimension_HP_Scale_Info@@V?$allocator@UtagSuperDimension_HP_Scale_Info@@@std@@@std@@@std@@PAUtagSuperDimension_HP_Scale_Info@@@std@@YA?AU_Nonscalar_ptr_iterator_tag@0@AAV?$_Vector_const_iterator@V?$_Vector_val@UtagSuperDimension_HP_Scale_Info@@V?$allocator@UtagSuperDimension_HP_Scale_Info@@@std@@@std@@@0@AAPAUtagSuperDimension_HP_Scale_Info@@@Z PROC ; std::_Ptr_cat<std::_Vector_const_iterator<std::_Vector_val<tagSuperDimension_HP_Scale_Info,std::allocator<tagSuperDimension_HP_Scale_Info> > >,tagSuperDimension_HP_Scale_Info *>, COMDAT

; 485  : 	{	// return pointer category from arbitrary arguments

  00000	55		 push	 ebp
  00001	8b ec		 mov	 ebp, esp
  00003	51		 push	 ecx

; 486  : 	_Nonscalar_ptr_iterator_tag _Cat;
; 487  : 	return (_Cat);

  00004	8a 45 ff	 mov	 al, BYTE PTR __Cat$[ebp]

; 488  : 	}

  00007	c9		 leave
  00008	c3		 ret	 0
??$_Ptr_cat@V?$_Vector_const_iterator@V?$_Vector_val@UtagSuperDimension_HP_Scale_Info@@V?$allocator@UtagSuperDimension_HP_Scale_Info@@@std@@@std@@@std@@PAUtagSuperDimension_HP_Scale_Info@@@std@@YA?AU_Nonscalar_ptr_iterator_tag@0@AAV?$_Vector_const_iterator@V?$_Vector_val@UtagSuperDimension_HP_Scale_Info@@V?$allocator@UtagSuperDimension_HP_Scale_Info@@@std@@@std@@@0@AAPAUtagSuperDimension_HP_Scale_Info@@@Z ENDP ; std::_Ptr_cat<std::_Vector_const_iterator<std::_Vector_val<tagSuperDimension_HP_Scale_Info,std::allocator<tagSuperDimension_HP_Scale_Info> > >,tagSuperDimension_HP_Scale_Info *>
_TEXT	ENDS
PUBLIC	??$_Val_type@PAVioHashString@@@std@@YAPAVioHashString@@PAV1@@Z ; std::_Val_type<ioHashString *>
; Function compile flags: /Ogsp
;	COMDAT ??$_Val_type@PAVioHashString@@@std@@YAPAVioHashString@@PAV1@@Z
_TEXT	SEGMENT
___formal$ = 8						; size = 4
??$_Val_type@PAVioHashString@@@std@@YAPAVioHashString@@PAV1@@Z PROC ; std::_Val_type<ioHashString *>, COMDAT

; 790  : 	return (0);

  00000	33 c0		 xor	 eax, eax

; 791  : 	}

  00002	c3		 ret	 0
??$_Val_type@PAVioHashString@@@std@@YAPAVioHashString@@PAV1@@Z ENDP ; std::_Val_type<ioHashString *>
_TEXT	ENDS
PUBLIC	??$_Val_type@PAUtagSuperDimension_HP_Scale_Info@@@std@@YAPAUtagSuperDimension_HP_Scale_Info@@PAU1@@Z ; std::_Val_type<tagSuperDimension_HP_Scale_Info *>
; Function compile flags: /Ogsp
;	COMDAT ??$_Val_type@PAUtagSuperDimension_HP_Scale_Info@@@std@@YAPAUtagSuperDimension_HP_Scale_Info@@PAU1@@Z
_TEXT	SEGMENT
___formal$ = 8						; size = 4
??$_Val_type@PAUtagSuperDimension_HP_Scale_Info@@@std@@YAPAUtagSuperDimension_HP_Scale_Info@@PAU1@@Z PROC ; std::_Val_type<tagSuperDimension_HP_Scale_Info *>, COMDAT

; 790  : 	return (0);

  00000	33 c0		 xor	 eax, eax

; 791  : 	}

  00002	c3		 ret	 0
??$_Val_type@PAUtagSuperDimension_HP_Scale_Info@@@std@@YAPAUtagSuperDimension_HP_Scale_Info@@PAU1@@Z ENDP ; std::_Val_type<tagSuperDimension_HP_Scale_Info *>
_TEXT	ENDS
PUBLIC	??D?$_Vector_const_iterator@V?$_Vector_val@UAttackAttribute@@V?$allocator@UAttackAttribute@@@std@@@std@@@std@@QBEABUAttackAttribute@@XZ ; std::_Vector_const_iterator<std::_Vector_val<AttackAttribute,std::allocator<AttackAttribute> > >::operator*
; Function compile flags: /Ogsp
; File c:\program files (x86)\microsoft visual studio 10.0\vc\include\vector
;	COMDAT ??D?$_Vector_const_iterator@V?$_Vector_val@UAttackAttribute@@V?$allocator@UAttackAttribute@@@std@@@std@@@std@@QBEABUAttackAttribute@@XZ
_TEXT	SEGMENT
??D?$_Vector_const_iterator@V?$_Vector_val@UAttackAttribute@@V?$allocator@UAttackAttribute@@@std@@@std@@@std@@QBEABUAttackAttribute@@XZ PROC ; std::_Vector_const_iterator<std::_Vector_val<AttackAttribute,std::allocator<AttackAttribute> > >::operator*, COMDAT
; _this$ = ecx

; 64   :  #if _ITERATOR_DEBUG_LEVEL == 2
; 65   : 		if (this->_Getcont() == 0
; 66   : 			|| this->_Ptr == 0
; 67   : 			|| this->_Ptr < ((_Myvec *)this->_Getcont())->_Myfirst
; 68   : 			|| ((_Myvec *)this->_Getcont())->_Mylast <= this->_Ptr)
; 69   : 			{	// report error
; 70   : 			_DEBUG_ERROR("vector iterator not dereferencable");
; 71   : 			_SCL_SECURE_OUT_OF_RANGE;
; 72   : 			}
; 73   : 
; 74   :  #elif _ITERATOR_DEBUG_LEVEL == 1
; 75   : 		_SCL_SECURE_VALIDATE(this->_Getcont() != 0);
; 76   : 		_SCL_SECURE_VALIDATE_RANGE(
; 77   : 			this->_Ptr != 0
; 78   : 			&& ((_Myvec *)this->_Getcont())->_Myfirst <= this->_Ptr
; 79   : 			&& this->_Ptr < ((_Myvec *)this->_Getcont())->_Mylast);
; 80   :  #endif /* _ITERATOR_DEBUG_LEVEL */
; 81   : 
; 82   : 		__analysis_assume(this->_Ptr != 0);
; 83   : 
; 84   : 		return (*this->_Ptr);

  00000	8b 01		 mov	 eax, DWORD PTR [ecx]

; 85   : 		}

  00002	c3		 ret	 0
??D?$_Vector_const_iterator@V?$_Vector_val@UAttackAttribute@@V?$allocator@UAttackAttribute@@@std@@@std@@@std@@QBEABUAttackAttribute@@XZ ENDP ; std::_Vector_const_iterator<std::_Vector_val<AttackAttribute,std::allocator<AttackAttribute> > >::operator*
_TEXT	ENDS
PUBLIC	??E?$_Vector_const_iterator@V?$_Vector_val@UAttackAttribute@@V?$allocator@UAttackAttribute@@@std@@@std@@@std@@QAEAAV01@XZ ; std::_Vector_const_iterator<std::_Vector_val<AttackAttribute,std::allocator<AttackAttribute> > >::operator++
; Function compile flags: /Ogsp
;	COMDAT ??E?$_Vector_const_iterator@V?$_Vector_val@UAttackAttribute@@V?$allocator@UAttackAttribute@@@std@@@std@@@std@@QAEAAV01@XZ
_TEXT	SEGMENT
??E?$_Vector_const_iterator@V?$_Vector_val@UAttackAttribute@@V?$allocator@UAttackAttribute@@@std@@@std@@@std@@QAEAAV01@XZ PROC ; std::_Vector_const_iterator<std::_Vector_val<AttackAttribute,std::allocator<AttackAttribute> > >::operator++, COMDAT
; _this$ = ecx

; 93   : 		{	// preincrement

  00000	8b c1		 mov	 eax, ecx

; 94   :  #if _ITERATOR_DEBUG_LEVEL == 2
; 95   : 		if (this->_Getcont() == 0
; 96   : 			|| this->_Ptr == 0
; 97   : 			|| ((_Myvec *)this->_Getcont())->_Mylast <= this->_Ptr)
; 98   : 			{	// report error
; 99   : 			_DEBUG_ERROR("vector iterator not incrementable");
; 100  : 			_SCL_SECURE_OUT_OF_RANGE;
; 101  : 			}
; 102  : 
; 103  :  #elif _ITERATOR_DEBUG_LEVEL == 1
; 104  : 		_SCL_SECURE_VALIDATE(this->_Getcont() != 0);
; 105  : 		_SCL_SECURE_VALIDATE_RANGE(
; 106  : 			this->_Ptr != 0
; 107  : 			&& this->_Ptr < ((_Myvec *)this->_Getcont())->_Mylast);
; 108  :  #endif /* _ITERATOR_DEBUG_LEVEL */
; 109  : 
; 110  : 		++this->_Ptr;

  00002	83 00 50	 add	 DWORD PTR [eax], 80	; 00000050H

; 111  : 		return (*this);
; 112  : 		}

  00005	c3		 ret	 0
??E?$_Vector_const_iterator@V?$_Vector_val@UAttackAttribute@@V?$allocator@UAttackAttribute@@@std@@@std@@@std@@QAEAAV01@XZ ENDP ; std::_Vector_const_iterator<std::_Vector_val<AttackAttribute,std::allocator<AttackAttribute> > >::operator++
_TEXT	ENDS
PUBLIC	??D?$_Vector_const_iterator@V?$_Vector_val@UWeaponInfo@@V?$allocator@UWeaponInfo@@@std@@@std@@@std@@QBEABUWeaponInfo@@XZ ; std::_Vector_const_iterator<std::_Vector_val<WeaponInfo,std::allocator<WeaponInfo> > >::operator*
; Function compile flags: /Ogsp
;	COMDAT ??D?$_Vector_const_iterator@V?$_Vector_val@UWeaponInfo@@V?$allocator@UWeaponInfo@@@std@@@std@@@std@@QBEABUWeaponInfo@@XZ
_TEXT	SEGMENT
??D?$_Vector_const_iterator@V?$_Vector_val@UWeaponInfo@@V?$allocator@UWeaponInfo@@@std@@@std@@@std@@QBEABUWeaponInfo@@XZ PROC ; std::_Vector_const_iterator<std::_Vector_val<WeaponInfo,std::allocator<WeaponInfo> > >::operator*, COMDAT
; _this$ = ecx

; 64   :  #if _ITERATOR_DEBUG_LEVEL == 2
; 65   : 		if (this->_Getcont() == 0
; 66   : 			|| this->_Ptr == 0
; 67   : 			|| this->_Ptr < ((_Myvec *)this->_Getcont())->_Myfirst
; 68   : 			|| ((_Myvec *)this->_Getcont())->_Mylast <= this->_Ptr)
; 69   : 			{	// report error
; 70   : 			_DEBUG_ERROR("vector iterator not dereferencable");
; 71   : 			_SCL_SECURE_OUT_OF_RANGE;
; 72   : 			}
; 73   : 
; 74   :  #elif _ITERATOR_DEBUG_LEVEL == 1
; 75   : 		_SCL_SECURE_VALIDATE(this->_Getcont() != 0);
; 76   : 		_SCL_SECURE_VALIDATE_RANGE(
; 77   : 			this->_Ptr != 0
; 78   : 			&& ((_Myvec *)this->_Getcont())->_Myfirst <= this->_Ptr
; 79   : 			&& this->_Ptr < ((_Myvec *)this->_Getcont())->_Mylast);
; 80   :  #endif /* _ITERATOR_DEBUG_LEVEL */
; 81   : 
; 82   : 		__analysis_assume(this->_Ptr != 0);
; 83   : 
; 84   : 		return (*this->_Ptr);

  00000	8b 01		 mov	 eax, DWORD PTR [ecx]

; 85   : 		}

  00002	c3		 ret	 0
??D?$_Vector_const_iterator@V?$_Vector_val@UWeaponInfo@@V?$allocator@UWeaponInfo@@@std@@@std@@@std@@QBEABUWeaponInfo@@XZ ENDP ; std::_Vector_const_iterator<std::_Vector_val<WeaponInfo,std::allocator<WeaponInfo> > >::operator*
_TEXT	ENDS
PUBLIC	??E?$_Vector_const_iterator@V?$_Vector_val@UWeaponInfo@@V?$allocator@UWeaponInfo@@@std@@@std@@@std@@QAEAAV01@XZ ; std::_Vector_const_iterator<std::_Vector_val<WeaponInfo,std::allocator<WeaponInfo> > >::operator++
; Function compile flags: /Ogsp
;	COMDAT ??E?$_Vector_const_iterator@V?$_Vector_val@UWeaponInfo@@V?$allocator@UWeaponInfo@@@std@@@std@@@std@@QAEAAV01@XZ
_TEXT	SEGMENT
??E?$_Vector_const_iterator@V?$_Vector_val@UWeaponInfo@@V?$allocator@UWeaponInfo@@@std@@@std@@@std@@QAEAAV01@XZ PROC ; std::_Vector_const_iterator<std::_Vector_val<WeaponInfo,std::allocator<WeaponInfo> > >::operator++, COMDAT
; _this$ = ecx

; 93   : 		{	// preincrement

  00000	8b c1		 mov	 eax, ecx

; 94   :  #if _ITERATOR_DEBUG_LEVEL == 2
; 95   : 		if (this->_Getcont() == 0
; 96   : 			|| this->_Ptr == 0
; 97   : 			|| ((_Myvec *)this->_Getcont())->_Mylast <= this->_Ptr)
; 98   : 			{	// report error
; 99   : 			_DEBUG_ERROR("vector iterator not incrementable");
; 100  : 			_SCL_SECURE_OUT_OF_RANGE;
; 101  : 			}
; 102  : 
; 103  :  #elif _ITERATOR_DEBUG_LEVEL == 1
; 104  : 		_SCL_SECURE_VALIDATE(this->_Getcont() != 0);
; 105  : 		_SCL_SECURE_VALIDATE_RANGE(
; 106  : 			this->_Ptr != 0
; 107  : 			&& this->_Ptr < ((_Myvec *)this->_Getcont())->_Mylast);
; 108  :  #endif /* _ITERATOR_DEBUG_LEVEL */
; 109  : 
; 110  : 		++this->_Ptr;

  00002	83 00 28	 add	 DWORD PTR [eax], 40	; 00000028H

; 111  : 		return (*this);
; 112  : 		}

  00005	c3		 ret	 0
??E?$_Vector_const_iterator@V?$_Vector_val@UWeaponInfo@@V?$allocator@UWeaponInfo@@@std@@@std@@@std@@QAEAAV01@XZ ENDP ; std::_Vector_const_iterator<std::_Vector_val<WeaponInfo,std::allocator<WeaponInfo> > >::operator++
_TEXT	ENDS
PUBLIC	??D?$_Vector_const_iterator@V?$_Vector_val@UForceInfo@@V?$allocator@UForceInfo@@@std@@@std@@@std@@QBEABUForceInfo@@XZ ; std::_Vector_const_iterator<std::_Vector_val<ForceInfo,std::allocator<ForceInfo> > >::operator*
; Function compile flags: /Ogsp
;	COMDAT ??D?$_Vector_const_iterator@V?$_Vector_val@UForceInfo@@V?$allocator@UForceInfo@@@std@@@std@@@std@@QBEABUForceInfo@@XZ
_TEXT	SEGMENT
??D?$_Vector_const_iterator@V?$_Vector_val@UForceInfo@@V?$allocator@UForceInfo@@@std@@@std@@@std@@QBEABUForceInfo@@XZ PROC ; std::_Vector_const_iterator<std::_Vector_val<ForceInfo,std::allocator<ForceInfo> > >::operator*, COMDAT
; _this$ = ecx

; 64   :  #if _ITERATOR_DEBUG_LEVEL == 2
; 65   : 		if (this->_Getcont() == 0
; 66   : 			|| this->_Ptr == 0
; 67   : 			|| this->_Ptr < ((_Myvec *)this->_Getcont())->_Myfirst
; 68   : 			|| ((_Myvec *)this->_Getcont())->_Mylast <= this->_Ptr)
; 69   : 			{	// report error
; 70   : 			_DEBUG_ERROR("vector iterator not dereferencable");
; 71   : 			_SCL_SECURE_OUT_OF_RANGE;
; 72   : 			}
; 73   : 
; 74   :  #elif _ITERATOR_DEBUG_LEVEL == 1
; 75   : 		_SCL_SECURE_VALIDATE(this->_Getcont() != 0);
; 76   : 		_SCL_SECURE_VALIDATE_RANGE(
; 77   : 			this->_Ptr != 0
; 78   : 			&& ((_Myvec *)this->_Getcont())->_Myfirst <= this->_Ptr
; 79   : 			&& this->_Ptr < ((_Myvec *)this->_Getcont())->_Mylast);
; 80   :  #endif /* _ITERATOR_DEBUG_LEVEL */
; 81   : 
; 82   : 		__analysis_assume(this->_Ptr != 0);
; 83   : 
; 84   : 		return (*this->_Ptr);

  00000	8b 01		 mov	 eax, DWORD PTR [ecx]

; 85   : 		}

  00002	c3		 ret	 0
??D?$_Vector_const_iterator@V?$_Vector_val@UForceInfo@@V?$allocator@UForceInfo@@@std@@@std@@@std@@QBEABUForceInfo@@XZ ENDP ; std::_Vector_const_iterator<std::_Vector_val<ForceInfo,std::allocator<ForceInfo> > >::operator*
_TEXT	ENDS
PUBLIC	??E?$_Vector_const_iterator@V?$_Vector_val@UForceInfo@@V?$allocator@UForceInfo@@@std@@@std@@@std@@QAEAAV01@XZ ; std::_Vector_const_iterator<std::_Vector_val<ForceInfo,std::allocator<ForceInfo> > >::operator++
; Function compile flags: /Ogsp
;	COMDAT ??E?$_Vector_const_iterator@V?$_Vector_val@UForceInfo@@V?$allocator@UForceInfo@@@std@@@std@@@std@@QAEAAV01@XZ
_TEXT	SEGMENT
??E?$_Vector_const_iterator@V?$_Vector_val@UForceInfo@@V?$allocator@UForceInfo@@@std@@@std@@@std@@QAEAAV01@XZ PROC ; std::_Vector_const_iterator<std::_Vector_val<ForceInfo,std::allocator<ForceInfo> > >::operator++, COMDAT
; _this$ = ecx

; 93   : 		{	// preincrement

  00000	8b c1		 mov	 eax, ecx

; 94   :  #if _ITERATOR_DEBUG_LEVEL == 2
; 95   : 		if (this->_Getcont() == 0
; 96   : 			|| this->_Ptr == 0
; 97   : 			|| ((_Myvec *)this->_Getcont())->_Mylast <= this->_Ptr)
; 98   : 			{	// report error
; 99   : 			_DEBUG_ERROR("vector iterator not incrementable");
; 100  : 			_SCL_SECURE_OUT_OF_RANGE;
; 101  : 			}
; 102  : 
; 103  :  #elif _ITERATOR_DEBUG_LEVEL == 1
; 104  : 		_SCL_SECURE_VALIDATE(this->_Getcont() != 0);
; 105  : 		_SCL_SECURE_VALIDATE_RANGE(
; 106  : 			this->_Ptr != 0
; 107  : 			&& this->_Ptr < ((_Myvec *)this->_Getcont())->_Mylast);
; 108  :  #endif /* _ITERATOR_DEBUG_LEVEL */
; 109  : 
; 110  : 		++this->_Ptr;

  00002	83 00 0c	 add	 DWORD PTR [eax], 12	; 0000000cH

; 111  : 		return (*this);
; 112  : 		}

  00005	c3		 ret	 0
??E?$_Vector_const_iterator@V?$_Vector_val@UForceInfo@@V?$allocator@UForceInfo@@@std@@@std@@@std@@QAEAAV01@XZ ENDP ; std::_Vector_const_iterator<std::_Vector_val<ForceInfo,std::allocator<ForceInfo> > >::operator++
_TEXT	ENDS
PUBLIC	??D?$_Vector_const_iterator@V?$_Vector_val@UtagSuperDimension_HP_Scale_Info@@V?$allocator@UtagSuperDimension_HP_Scale_Info@@@std@@@std@@@std@@QBEABUtagSuperDimension_HP_Scale_Info@@XZ ; std::_Vector_const_iterator<std::_Vector_val<tagSuperDimension_HP_Scale_Info,std::allocator<tagSuperDimension_HP_Scale_Info> > >::operator*
; Function compile flags: /Ogsp
;	COMDAT ??D?$_Vector_const_iterator@V?$_Vector_val@UtagSuperDimension_HP_Scale_Info@@V?$allocator@UtagSuperDimension_HP_Scale_Info@@@std@@@std@@@std@@QBEABUtagSuperDimension_HP_Scale_Info@@XZ
_TEXT	SEGMENT
??D?$_Vector_const_iterator@V?$_Vector_val@UtagSuperDimension_HP_Scale_Info@@V?$allocator@UtagSuperDimension_HP_Scale_Info@@@std@@@std@@@std@@QBEABUtagSuperDimension_HP_Scale_Info@@XZ PROC ; std::_Vector_const_iterator<std::_Vector_val<tagSuperDimension_HP_Scale_Info,std::allocator<tagSuperDimension_HP_Scale_Info> > >::operator*, COMDAT
; _this$ = ecx

; 64   :  #if _ITERATOR_DEBUG_LEVEL == 2
; 65   : 		if (this->_Getcont() == 0
; 66   : 			|| this->_Ptr == 0
; 67   : 			|| this->_Ptr < ((_Myvec *)this->_Getcont())->_Myfirst
; 68   : 			|| ((_Myvec *)this->_Getcont())->_Mylast <= this->_Ptr)
; 69   : 			{	// report error
; 70   : 			_DEBUG_ERROR("vector iterator not dereferencable");
; 71   : 			_SCL_SECURE_OUT_OF_RANGE;
; 72   : 			}
; 73   : 
; 74   :  #elif _ITERATOR_DEBUG_LEVEL == 1
; 75   : 		_SCL_SECURE_VALIDATE(this->_Getcont() != 0);
; 76   : 		_SCL_SECURE_VALIDATE_RANGE(
; 77   : 			this->_Ptr != 0
; 78   : 			&& ((_Myvec *)this->_Getcont())->_Myfirst <= this->_Ptr
; 79   : 			&& this->_Ptr < ((_Myvec *)this->_Getcont())->_Mylast);
; 80   :  #endif /* _ITERATOR_DEBUG_LEVEL */
; 81   : 
; 82   : 		__analysis_assume(this->_Ptr != 0);
; 83   : 
; 84   : 		return (*this->_Ptr);

  00000	8b 01		 mov	 eax, DWORD PTR [ecx]

; 85   : 		}

  00002	c3		 ret	 0
??D?$_Vector_const_iterator@V?$_Vector_val@UtagSuperDimension_HP_Scale_Info@@V?$allocator@UtagSuperDimension_HP_Scale_Info@@@std@@@std@@@std@@QBEABUtagSuperDimension_HP_Scale_Info@@XZ ENDP ; std::_Vector_const_iterator<std::_Vector_val<tagSuperDimension_HP_Scale_Info,std::allocator<tagSuperDimension_HP_Scale_Info> > >::operator*
_TEXT	ENDS
PUBLIC	??E?$_Vector_const_iterator@V?$_Vector_val@UtagSuperDimension_HP_Scale_Info@@V?$allocator@UtagSuperDimension_HP_Scale_Info@@@std@@@std@@@std@@QAEAAV01@XZ ; std::_Vector_const_iterator<std::_Vector_val<tagSuperDimension_HP_Scale_Info,std::allocator<tagSuperDimension_HP_Scale_Info> > >::operator++
; Function compile flags: /Ogsp
;	COMDAT ??E?$_Vector_const_iterator@V?$_Vector_val@UtagSuperDimension_HP_Scale_Info@@V?$allocator@UtagSuperDimension_HP_Scale_Info@@@std@@@std@@@std@@QAEAAV01@XZ
_TEXT	SEGMENT
??E?$_Vector_const_iterator@V?$_Vector_val@UtagSuperDimension_HP_Scale_Info@@V?$allocator@UtagSuperDimension_HP_Scale_Info@@@std@@@std@@@std@@QAEAAV01@XZ PROC ; std::_Vector_const_iterator<std::_Vector_val<tagSuperDimension_HP_Scale_Info,std::allocator<tagSuperDimension_HP_Scale_Info> > >::operator++, COMDAT
; _this$ = ecx

; 93   : 		{	// preincrement

  00000	8b c1		 mov	 eax, ecx

; 94   :  #if _ITERATOR_DEBUG_LEVEL == 2
; 95   : 		if (this->_Getcont() == 0
; 96   : 			|| this->_Ptr == 0
; 97   : 			|| ((_Myvec *)this->_Getcont())->_Mylast <= this->_Ptr)
; 98   : 			{	// report error
; 99   : 			_DEBUG_ERROR("vector iterator not incrementable");
; 100  : 			_SCL_SECURE_OUT_OF_RANGE;
; 101  : 			}
; 102  : 
; 103  :  #elif _ITERATOR_DEBUG_LEVEL == 1
; 104  : 		_SCL_SECURE_VALIDATE(this->_Getcont() != 0);
; 105  : 		_SCL_SECURE_VALIDATE_RANGE(
; 106  : 			this->_Ptr != 0
; 107  : 			&& this->_Ptr < ((_Myvec *)this->_Getcont())->_Mylast);
; 108  :  #endif /* _ITERATOR_DEBUG_LEVEL */
; 109  : 
; 110  : 		++this->_Ptr;

  00002	83 00 0c	 add	 DWORD PTR [eax], 12	; 0000000cH

; 111  : 		return (*this);
; 112  : 		}

  00005	c3		 ret	 0
??E?$_Vector_const_iterator@V?$_Vector_val@UtagSuperDimension_HP_Scale_Info@@V?$allocator@UtagSuperDimension_HP_Scale_Info@@@std@@@std@@@std@@QAEAAV01@XZ ENDP ; std::_Vector_const_iterator<std::_Vector_val<tagSuperDimension_HP_Scale_Info,std::allocator<tagSuperDimension_HP_Scale_Info> > >::operator++
_TEXT	ENDS
PUBLIC	?_Compat@?$_Vector_const_iterator@V?$_Vector_val@UtagSuperDimension_HP_Scale_Info@@V?$allocator@UtagSuperDimension_HP_Scale_Info@@@std@@@std@@@std@@QBEXABV12@@Z ; std::_Vector_const_iterator<std::_Vector_val<tagSuperDimension_HP_Scale_Info,std::allocator<tagSuperDimension_HP_Scale_Info> > >::_Compat
; Function compile flags: /Ogsp
;	COMDAT ?_Compat@?$_Vector_const_iterator@V?$_Vector_val@UtagSuperDimension_HP_Scale_Info@@V?$allocator@UtagSuperDimension_HP_Scale_Info@@@std@@@std@@@std@@QBEXABV12@@Z
_TEXT	SEGMENT
___formal$ = 8						; size = 4
?_Compat@?$_Vector_const_iterator@V?$_Vector_val@UtagSuperDimension_HP_Scale_Info@@V?$allocator@UtagSuperDimension_HP_Scale_Info@@@std@@@std@@@std@@QBEXABV12@@Z PROC ; std::_Vector_const_iterator<std::_Vector_val<tagSuperDimension_HP_Scale_Info,std::allocator<tagSuperDimension_HP_Scale_Info> > >::_Compat, COMDAT
; _this$ = ecx

; 253  : 		}

  00000	c2 04 00	 ret	 4
?_Compat@?$_Vector_const_iterator@V?$_Vector_val@UtagSuperDimension_HP_Scale_Info@@V?$allocator@UtagSuperDimension_HP_Scale_Info@@@std@@@std@@@std@@QBEXABV12@@Z ENDP ; std::_Vector_const_iterator<std::_Vector_val<tagSuperDimension_HP_Scale_Info,std::allocator<tagSuperDimension_HP_Scale_Info> > >::_Compat
_TEXT	ENDS
PUBLIC	??$_Unchecked@PAUDistInfo@ioSuperDimensionItem@@@std@@YAPAUDistInfo@ioSuperDimensionItem@@PAU12@@Z ; std::_Unchecked<ioSuperDimensionItem::DistInfo *>
; Function compile flags: /Ogsp
; File c:\program files (x86)\microsoft visual studio 10.0\vc\include\xutility
;	COMDAT ??$_Unchecked@PAUDistInfo@ioSuperDimensionItem@@@std@@YAPAUDistInfo@ioSuperDimensionItem@@PAU12@@Z
_TEXT	SEGMENT
__Src$ = 8						; size = 4
??$_Unchecked@PAUDistInfo@ioSuperDimensionItem@@@std@@YAPAUDistInfo@ioSuperDimensionItem@@PAU12@@Z PROC ; std::_Unchecked<ioSuperDimensionItem::DistInfo *>, COMDAT

; 266  : 	{	// construct unchecked from checked, generic

  00000	55		 push	 ebp
  00001	8b ec		 mov	 ebp, esp

; 267  : 	return (_Src);

  00003	8b 45 08	 mov	 eax, DWORD PTR __Src$[ebp]

; 268  : 	}

  00006	5d		 pop	 ebp
  00007	c3		 ret	 0
??$_Unchecked@PAUDistInfo@ioSuperDimensionItem@@@std@@YAPAUDistInfo@ioSuperDimensionItem@@PAU12@@Z ENDP ; std::_Unchecked<ioSuperDimensionItem::DistInfo *>
_TEXT	ENDS
PUBLIC	??$_Dist_type@PAUDistInfo@ioSuperDimensionItem@@@std@@YAPAHPAUDistInfo@ioSuperDimensionItem@@@Z ; std::_Dist_type<ioSuperDimensionItem::DistInfo *>
; Function compile flags: /Ogsp
;	COMDAT ??$_Dist_type@PAUDistInfo@ioSuperDimensionItem@@@std@@YAPAHPAUDistInfo@ioSuperDimensionItem@@@Z
_TEXT	SEGMENT
___formal$ = 8						; size = 4
??$_Dist_type@PAUDistInfo@ioSuperDimensionItem@@@std@@YAPAHPAUDistInfo@ioSuperDimensionItem@@@Z PROC ; std::_Dist_type<ioSuperDimensionItem::DistInfo *>, COMDAT

; 850  : 	return (0);

  00000	33 c0		 xor	 eax, eax

; 851  : 	}

  00002	c3		 ret	 0
??$_Dist_type@PAUDistInfo@ioSuperDimensionItem@@@std@@YAPAHPAUDistInfo@ioSuperDimensionItem@@@Z ENDP ; std::_Dist_type<ioSuperDimensionItem::DistInfo *>
_TEXT	ENDS
PUBLIC	??$_Destroy@UDistInfo@ioSuperDimensionItem@@@std@@YAXPAUDistInfo@ioSuperDimensionItem@@@Z ; std::_Destroy<ioSuperDimensionItem::DistInfo>
; Function compile flags: /Ogsp
; File c:\program files (x86)\microsoft visual studio 10.0\vc\include\xmemory
;	COMDAT ??$_Destroy@UDistInfo@ioSuperDimensionItem@@@std@@YAXPAUDistInfo@ioSuperDimensionItem@@@Z
_TEXT	SEGMENT
__Ptr$ = 8						; size = 4
??$_Destroy@UDistInfo@ioSuperDimensionItem@@@std@@YAXPAUDistInfo@ioSuperDimensionItem@@@Z PROC ; std::_Destroy<ioSuperDimensionItem::DistInfo>, COMDAT

; 63   : 	_Ptr->~_Ty();
; 64   : 	}

  00000	c3		 ret	 0
??$_Destroy@UDistInfo@ioSuperDimensionItem@@@std@@YAXPAUDistInfo@ioSuperDimensionItem@@@Z ENDP ; std::_Destroy<ioSuperDimensionItem::DistInfo>
_TEXT	ENDS
PUBLIC	??$_Destroy@UtagSuperDimension_HP_Scale_Info@@@std@@YAXPAUtagSuperDimension_HP_Scale_Info@@@Z ; std::_Destroy<tagSuperDimension_HP_Scale_Info>
; Function compile flags: /Ogsp
;	COMDAT ??$_Destroy@UtagSuperDimension_HP_Scale_Info@@@std@@YAXPAUtagSuperDimension_HP_Scale_Info@@@Z
_TEXT	SEGMENT
__Ptr$ = 8						; size = 4
??$_Destroy@UtagSuperDimension_HP_Scale_Info@@@std@@YAXPAUtagSuperDimension_HP_Scale_Info@@@Z PROC ; std::_Destroy<tagSuperDimension_HP_Scale_Info>, COMDAT

; 63   : 	_Ptr->~_Ty();
; 64   : 	}

  00000	c3		 ret	 0
??$_Destroy@UtagSuperDimension_HP_Scale_Info@@@std@@YAXPAUtagSuperDimension_HP_Scale_Info@@@Z ENDP ; std::_Destroy<tagSuperDimension_HP_Scale_Info>
_TEXT	ENDS
PUBLIC	??$forward@AAPAUDistInfo@ioSuperDimensionItem@@@std@@YAAAPAUDistInfo@ioSuperDimensionItem@@AAPAU12@@Z ; std::forward<ioSuperDimensionItem::DistInfo * &>
; Function compile flags: /Ogsp
; File c:\program files (x86)\microsoft visual studio 10.0\vc\include\utility
;	COMDAT ??$forward@AAPAUDistInfo@ioSuperDimensionItem@@@std@@YAAAPAUDistInfo@ioSuperDimensionItem@@AAPAU12@@Z
_TEXT	SEGMENT
__Arg$ = 8						; size = 4
??$forward@AAPAUDistInfo@ioSuperDimensionItem@@@std@@YAAAPAUDistInfo@ioSuperDimensionItem@@AAPAU12@@Z PROC ; std::forward<ioSuperDimensionItem::DistInfo * &>, COMDAT

; 78   : 	{	// forward _Arg, given explicitly specified type parameter

  00000	55		 push	 ebp
  00001	8b ec		 mov	 ebp, esp

; 79   : 	return ((_Ty&&)_Arg);

  00003	8b 45 08	 mov	 eax, DWORD PTR __Arg$[ebp]

; 80   : 	}

  00006	5d		 pop	 ebp
  00007	c3		 ret	 0
??$forward@AAPAUDistInfo@ioSuperDimensionItem@@@std@@YAAAPAUDistInfo@ioSuperDimensionItem@@AAPAU12@@Z ENDP ; std::forward<ioSuperDimensionItem::DistInfo * &>
_TEXT	ENDS
PUBLIC	??$?0AAPAUDistInfo@ioSuperDimensionItem@@AAPAU01@@?$_Pair_base@PAUDistInfo@ioSuperDimensionItem@@PAU12@@std@@QAE@AAPAUDistInfo@ioSuperDimensionItem@@0@Z ; std::_Pair_base<ioSuperDimensionItem::DistInfo *,ioSuperDimensionItem::DistInfo *>::_Pair_base<ioSuperDimensionItem::DistInfo *,ioSuperDimensionItem::DistInfo *><ioSuperDimensionItem::DistInfo * &,ioSuperDimensionItem::DistInfo * &>
; Function compile flags: /Ogsp
