; Listing generated by Microsoft (R) Optimizing Compiler Version 16.00.30319.01 

	TITLE	D:\Lost Saga For Developer\Youtube\Tutorial\Source\src\LSClient\ioSymbolStruct.cpp
	.686P
	.XMM
	include listing.inc
	.model	flat

INCLUDELIB MSVCRT
INCLUDELIB OLDNAMES

PUBLIC	?_EEM_DS@?$deque@UD3DXVECTOR3@@V?$allocator@UD3DXVECTOR3@@@std@@@std@@2HB ; std::deque<D3DXVECTOR3,std::allocator<D3DXVECTOR3> >::_EEM_DS
;	COMDAT ?_EEM_DS@?$deque@UD3DXVECTOR3@@V?$allocator@UD3DXVECTOR3@@@std@@@std@@2HB
CONST	SEGMENT
?_EEM_DS@?$deque@UD3DXVECTOR3@@V?$allocator@UD3DXVECTOR3@@@std@@@std@@2HB DD 01H ; std::deque<D3DXVECTOR3,std::allocator<D3DXVECTOR3> >::_EEM_DS
CONST	ENDS
PUBLIC	?return1@@YAIXZ					; return1
; Function compile flags: /Ogsp
; File d:\lost saga for developer\youtube\tutorial\source\src\lsclient\stdafx.h
;	COMDAT ?return1@@YAIXZ
_TEXT	SEGMENT
?return1@@YAIXZ PROC					; return1, COMDAT

; 17   : 	__forceinline unsigned int return1() { __asm mov eax, 1 };

  00000	b8 01 00 00 00	 mov	 eax, 1
  00005	c3		 ret	 0
?return1@@YAIXZ ENDP					; return1
_TEXT	ENDS
PUBLIC	?return5@@YAIXZ					; return5
; Function compile flags: /Ogsp
;	COMDAT ?return5@@YAIXZ
_TEXT	SEGMENT
?return5@@YAIXZ PROC					; return5, COMDAT

; 18   : 	__forceinline unsigned int return5() { __asm mov eax, 5 };

  00000	b8 05 00 00 00	 mov	 eax, 5
  00005	c3		 ret	 0
?return5@@YAIXZ ENDP					; return5
_TEXT	ENDS
PUBLIC	?return10@@YAIXZ				; return10
; Function compile flags: /Ogsp
;	COMDAT ?return10@@YAIXZ
_TEXT	SEGMENT
?return10@@YAIXZ PROC					; return10, COMDAT

; 21   : 	__forceinline unsigned int return10() { __asm mov eax, 10 };

  00000	b8 0a 00 00 00	 mov	 eax, 10			; 0000000aH
  00005	c3		 ret	 0
?return10@@YAIXZ ENDP					; return10
_TEXT	ENDS
PUBLIC	?return40@@YAIXZ				; return40
; Function compile flags: /Ogsp
;	COMDAT ?return40@@YAIXZ
_TEXT	SEGMENT
?return40@@YAIXZ PROC					; return40, COMDAT

; 22   : 	__forceinline unsigned int return40() { __asm mov eax, 40 };

  00000	b8 28 00 00 00	 mov	 eax, 40			; 00000028H
  00005	c3		 ret	 0
?return40@@YAIXZ ENDP					; return40
_TEXT	ENDS
PUBLIC	?return100@@YAIXZ				; return100
; Function compile flags: /Ogsp
;	COMDAT ?return100@@YAIXZ
_TEXT	SEGMENT
?return100@@YAIXZ PROC					; return100, COMDAT

; 25   : 	__forceinline unsigned int return100() { __asm mov eax, 100 };

  00000	b8 64 00 00 00	 mov	 eax, 100		; 00000064H
  00005	c3		 ret	 0
?return100@@YAIXZ ENDP					; return100
_TEXT	ENDS
PUBLIC	?IsOwnerChar@ioBaseChar@@QBE_NXZ		; ioBaseChar::IsOwnerChar
; Function compile flags: /Ogsp
; File d:\lost saga for developer\youtube\tutorial\source\src\lsclient\iobasechar.h
;	COMDAT ?IsOwnerChar@ioBaseChar@@QBE_NXZ
_TEXT	SEGMENT
?IsOwnerChar@ioBaseChar@@QBE_NXZ PROC			; ioBaseChar::IsOwnerChar, COMDAT
; _this$ = ecx

; 1467 : 	inline bool IsOwnerChar() const { return m_bOwnerChar; }

  00000	8a 81 84 13 00
	00		 mov	 al, BYTE PTR [ecx+4996]
  00006	c3		 ret	 0
?IsOwnerChar@ioBaseChar@@QBE_NXZ ENDP			; ioBaseChar::IsOwnerChar
_TEXT	ENDS
PUBLIC	?GetState@ioBaseChar@@QBE?AW4CharState@@XZ	; ioBaseChar::GetState
; Function compile flags: /Ogsp
;	COMDAT ?GetState@ioBaseChar@@QBE?AW4CharState@@XZ
_TEXT	SEGMENT
?GetState@ioBaseChar@@QBE?AW4CharState@@XZ PROC		; ioBaseChar::GetState, COMDAT
; _this$ = ecx

; 2156 : 	inline CharState GetState() const { return m_CharState; }	

  00000	8a 81 10 03 00
	00		 mov	 al, BYTE PTR [ecx+784]
  00006	c3		 ret	 0
?GetState@ioBaseChar@@QBE?AW4CharState@@XZ ENDP		; ioBaseChar::GetState
_TEXT	ENDS
PUBLIC	?GetCharName@ioBaseChar@@QBEABVioHashString@@XZ	; ioBaseChar::GetCharName
; Function compile flags: /Ogsp
;	COMDAT ?GetCharName@ioBaseChar@@QBEABVioHashString@@XZ
_TEXT	SEGMENT
?GetCharName@ioBaseChar@@QBEABVioHashString@@XZ PROC	; ioBaseChar::GetCharName, COMDAT
; _this$ = ecx

; 2594 : 	inline const ioHashString& GetCharName() const { return m_Name; }

  00000	8d 81 d4 02 00
	00		 lea	 eax, DWORD PTR [ecx+724]
  00006	c3		 ret	 0
?GetCharName@ioBaseChar@@QBEABVioHashString@@XZ ENDP	; ioBaseChar::GetCharName
_TEXT	ENDS
PUBLIC	??_GioGaugeHelper@@QAEPAXI@Z			; ioGaugeHelper::`scalar deleting destructor'
EXTRN	??3@YAXPAX@Z:PROC				; operator delete
EXTRN	??1ioGaugeHelper@@QAE@XZ:PROC			; ioGaugeHelper::~ioGaugeHelper
; Function compile flags: /Ogsp
;	COMDAT ??_GioGaugeHelper@@QAEPAXI@Z
_TEXT	SEGMENT
___flags$ = 8						; size = 4
??_GioGaugeHelper@@QAEPAXI@Z PROC			; ioGaugeHelper::`scalar deleting destructor', COMDAT
; _this$ = ecx
  00000	55		 push	 ebp
  00001	8b ec		 mov	 ebp, esp
  00003	56		 push	 esi
  00004	8b f1		 mov	 esi, ecx
  00006	e8 00 00 00 00	 call	 ??1ioGaugeHelper@@QAE@XZ ; ioGaugeHelper::~ioGaugeHelper
  0000b	f6 45 08 01	 test	 BYTE PTR ___flags$[ebp], 1
  0000f	74 07		 je	 SHORT $LN1@scalar
  00011	56		 push	 esi
  00012	e8 00 00 00 00	 call	 ??3@YAXPAX@Z		; operator delete
  00017	59		 pop	 ecx
$LN1@scalar:
  00018	8b c6		 mov	 eax, esi
  0001a	5e		 pop	 esi
  0001b	5d		 pop	 ebp
  0001c	c2 04 00	 ret	 4
??_GioGaugeHelper@@QAEPAXI@Z ENDP			; ioGaugeHelper::`scalar deleting destructor'
_TEXT	ENDS
PUBLIC	?UpdateAfter@ioSymbolStruct@@UAEXM@Z		; ioSymbolStruct::UpdateAfter
EXTRN	?UpdateAfter@ioGameEntity@@UAEXM@Z:PROC		; ioGameEntity::UpdateAfter
EXTRN	__fltused:DWORD
; Function compile flags: /Ogsp
; File d:\lost saga for developer\youtube\tutorial\source\src\lsclient\iosymbolstruct.cpp
;	COMDAT ?UpdateAfter@ioSymbolStruct@@UAEXM@Z
_TEXT	SEGMENT
_fFrameGap$ = 8						; size = 4
?UpdateAfter@ioSymbolStruct@@UAEXM@Z PROC		; ioSymbolStruct::UpdateAfter, COMDAT
; _this$ = ecx

; 61   : {

  00000	55		 push	 ebp
  00001	8b ec		 mov	 ebp, esp
  00003	56		 push	 esi
  00004	8b f1		 mov	 esi, ecx

; 62   : 	if( m_pGroup )

  00006	83 7e 04 00	 cmp	 DWORD PTR [esi+4], 0
  0000a	74 13		 je	 SHORT $LN1@UpdateAfte

; 63   : 	{
; 64   : 		m_pGroup->Update( fFrameGap );

  0000c	8b 4e 04	 mov	 ecx, DWORD PTR [esi+4]
  0000f	f3 0f 10 45 08	 movss	 xmm0, DWORD PTR _fFrameGap$[ebp]
  00014	8b 01		 mov	 eax, DWORD PTR [ecx]
  00016	51		 push	 ecx
  00017	f3 0f 11 04 24	 movss	 DWORD PTR [esp], xmm0
  0001c	ff 50 40	 call	 DWORD PTR [eax+64]
$LN1@UpdateAfte:

; 65   : 	}
; 66   : 
; 67   : 	ioPlayEntity::UpdateAfter( fFrameGap );

  0001f	f3 0f 10 45 08	 movss	 xmm0, DWORD PTR _fFrameGap$[ebp]
  00024	51		 push	 ecx
  00025	8b ce		 mov	 ecx, esi
  00027	f3 0f 11 04 24	 movss	 DWORD PTR [esp], xmm0
  0002c	e8 00 00 00 00	 call	 ?UpdateAfter@ioGameEntity@@UAEXM@Z ; ioGameEntity::UpdateAfter
  00031	5e		 pop	 esi

; 68   : }

  00032	5d		 pop	 ebp
  00033	c2 04 00	 ret	 4
?UpdateAfter@ioSymbolStruct@@UAEXM@Z ENDP		; ioSymbolStruct::UpdateAfter
_TEXT	ENDS
PUBLIC	?IsMountAvailable@ioSymbolStruct@@UBE_NXZ	; ioSymbolStruct::IsMountAvailable
; Function compile flags: /Ogsp
;	COMDAT ?IsMountAvailable@ioSymbolStruct@@UBE_NXZ
_TEXT	SEGMENT
?IsMountAvailable@ioSymbolStruct@@UBE_NXZ PROC		; ioSymbolStruct::IsMountAvailable, COMDAT
; _this$ = ecx

; 396  : 	return true;

  00000	b0 01		 mov	 al, 1

; 397  : }

  00002	c3		 ret	 0
?IsMountAvailable@ioSymbolStruct@@UBE_NXZ ENDP		; ioSymbolStruct::IsMountAvailable
_TEXT	ENDS
PUBLIC	?IsMountingAvailable@ioSymbolStruct@@UBE_NXZ	; ioSymbolStruct::IsMountingAvailable
; Function compile flags: /Ogsp
;	COMDAT ?IsMountingAvailable@ioSymbolStruct@@UBE_NXZ
_TEXT	SEGMENT
?IsMountingAvailable@ioSymbolStruct@@UBE_NXZ PROC	; ioSymbolStruct::IsMountingAvailable, COMDAT
; _this$ = ecx

; 401  : 	return false;

  00000	32 c0		 xor	 al, al

; 402  : }

  00002	c3		 ret	 0
?IsMountingAvailable@ioSymbolStruct@@UBE_NXZ ENDP	; ioSymbolStruct::IsMountingAvailable
_TEXT	ENDS
PUBLIC	?IsNowMountEnable@ioSymbolStruct@@UBE_NXZ	; ioSymbolStruct::IsNowMountEnable
; Function compile flags: /Ogsp
;	COMDAT ?IsNowMountEnable@ioSymbolStruct@@UBE_NXZ
_TEXT	SEGMENT
?IsNowMountEnable@ioSymbolStruct@@UBE_NXZ PROC		; ioSymbolStruct::IsNowMountEnable, COMDAT
; _this$ = ecx

; 406  : 	return true;

  00000	b0 01		 mov	 al, 1

; 407  : }

  00002	c3		 ret	 0
?IsNowMountEnable@ioSymbolStruct@@UBE_NXZ ENDP		; ioSymbolStruct::IsNowMountEnable
_TEXT	ENDS
PUBLIC	?SetOrgTeam@ioSymbolStruct@@QAEXW4TeamType@@@Z	; ioSymbolStruct::SetOrgTeam
; Function compile flags: /Ogsp
;	COMDAT ?SetOrgTeam@ioSymbolStruct@@QAEXW4TeamType@@@Z
_TEXT	SEGMENT
_eTeam$ = 8						; size = 4
?SetOrgTeam@ioSymbolStruct@@QAEXW4TeamType@@@Z PROC	; ioSymbolStruct::SetOrgTeam, COMDAT
; _this$ = ecx

; 410  : {

  00000	55		 push	 ebp
  00001	8b ec		 mov	 ebp, esp

; 411  : 	m_OrgTeam = eTeam;

  00003	8b 45 08	 mov	 eax, DWORD PTR _eTeam$[ebp]

; 412  : 	SetTeam( eTeam );

  00006	8b 11		 mov	 edx, DWORD PTR [ecx]
  00008	50		 push	 eax
  00009	89 81 f8 02 00
	00		 mov	 DWORD PTR [ecx+760], eax
  0000f	ff 92 dc 00 00
	00		 call	 DWORD PTR [edx+220]

; 413  : }

  00015	5d		 pop	 ebp
  00016	c2 04 00	 ret	 4
?SetOrgTeam@ioSymbolStruct@@QAEXW4TeamType@@@Z ENDP	; ioSymbolStruct::SetOrgTeam
_TEXT	ENDS
PUBLIC	?RestoreOrgTeam@ioSymbolStruct@@QAEXXZ		; ioSymbolStruct::RestoreOrgTeam
; Function compile flags: /Ogsp
;	COMDAT ?RestoreOrgTeam@ioSymbolStruct@@QAEXXZ
_TEXT	SEGMENT
?RestoreOrgTeam@ioSymbolStruct@@QAEXXZ PROC		; ioSymbolStruct::RestoreOrgTeam, COMDAT
; _this$ = ecx

; 417  : 	SetTeam( m_OrgTeam );

  00000	ff b1 f8 02 00
	00		 push	 DWORD PTR [ecx+760]
  00006	8b 01		 mov	 eax, DWORD PTR [ecx]
  00008	ff 90 dc 00 00
	00		 call	 DWORD PTR [eax+220]

; 418  : }

  0000e	c3		 ret	 0
?RestoreOrgTeam@ioSymbolStruct@@QAEXXZ ENDP		; ioSymbolStruct::RestoreOrgTeam
_TEXT	ENDS
PUBLIC	?IsCollisionAvailableWeapon@ioSymbolStruct@@UAE_NPAVioWeapon@@@Z ; ioSymbolStruct::IsCollisionAvailableWeapon
; Function compile flags: /Ogsp
;	COMDAT ?IsCollisionAvailableWeapon@ioSymbolStruct@@UAE_NPAVioWeapon@@@Z
_TEXT	SEGMENT
_pWeapon$ = 8						; size = 4
?IsCollisionAvailableWeapon@ioSymbolStruct@@UAE_NPAVioWeapon@@@Z PROC ; ioSymbolStruct::IsCollisionAvailableWeapon, COMDAT
; _this$ = ecx

; 473  : {

  00000	55		 push	 ebp
  00001	8b ec		 mov	 ebp, esp
  00003	56		 push	 esi
  00004	57		 push	 edi

; 474  : 	if( !IsCollisionAvailableRange( pWeapon ) )

  00005	8b 7d 08	 mov	 edi, DWORD PTR _pWeapon$[ebp]
  00008	8b f1		 mov	 esi, ecx
  0000a	8b 06		 mov	 eax, DWORD PTR [esi]
  0000c	57		 push	 edi
  0000d	ff 90 84 00 00
	00		 call	 DWORD PTR [eax+132]
  00013	84 c0		 test	 al, al
  00015	74 0d		 je	 SHORT $LN1@IsCollisio
$LN2@IsCollisio:

; 475  : 		return false;
; 476  : 
; 477  : 	if( pWeapon->IsAlreadyCollisioned( this ) )

  00017	8b 07		 mov	 eax, DWORD PTR [edi]
  00019	56		 push	 esi
  0001a	8b cf		 mov	 ecx, edi
  0001c	ff 10		 call	 DWORD PTR [eax]
  0001e	f6 d8		 neg	 al
  00020	1a c0		 sbb	 al, al
  00022	fe c0		 inc	 al
$LN1@IsCollisio:
  00024	5f		 pop	 edi
  00025	5e		 pop	 esi

; 478  : 		return false;
; 479  : 
; 480  : 	return true;
; 481  : }

  00026	5d		 pop	 ebp
  00027	c2 04 00	 ret	 4
?IsCollisionAvailableWeapon@ioSymbolStruct@@UAE_NPAVioWeapon@@@Z ENDP ; ioSymbolStruct::IsCollisionAvailableWeapon
_TEXT	ENDS
PUBLIC	?DontMoveEntityLevel@ioSymbolStruct@@UBEHXZ	; ioSymbolStruct::DontMoveEntityLevel
; Function compile flags: /Ogsp
;	COMDAT ?DontMoveEntityLevel@ioSymbolStruct@@UBEHXZ
_TEXT	SEGMENT
?DontMoveEntityLevel@ioSymbolStruct@@UBEHXZ PROC	; ioSymbolStruct::DontMoveEntityLevel, COMDAT
; _this$ = ecx

; 485  : 	return 5;

  00000	6a 05		 push	 5
  00002	58		 pop	 eax

; 486  : }

  00003	c3		 ret	 0
?DontMoveEntityLevel@ioSymbolStruct@@UBEHXZ ENDP	; ioSymbolStruct::DontMoveEntityLevel
_TEXT	ENDS
PUBLIC	?GetSubType@ioSymbolStruct@@UBE?AW4PlaySubType@ioPlayEntity@@XZ ; ioSymbolStruct::GetSubType
; Function compile flags: /Ogsp
;	COMDAT ?GetSubType@ioSymbolStruct@@UBE?AW4PlaySubType@ioPlayEntity@@XZ
_TEXT	SEGMENT
?GetSubType@ioSymbolStruct@@UBE?AW4PlaySubType@ioPlayEntity@@XZ PROC ; ioSymbolStruct::GetSubType, COMDAT
; _this$ = ecx

; 490  : 	return PST_SYMBOL;

  00000	33 c0		 xor	 eax, eax
  00002	40		 inc	 eax

; 491  : }

  00003	c3		 ret	 0
?GetSubType@ioSymbolStruct@@UBE?AW4PlaySubType@ioPlayEntity@@XZ ENDP ; ioSymbolStruct::GetSubType
_TEXT	ENDS
PUBLIC	?GetArmorType@ioSymbolStruct@@UBE?AW4ArmorType@@XZ ; ioSymbolStruct::GetArmorType
; Function compile flags: /Ogsp
;	COMDAT ?GetArmorType@ioSymbolStruct@@UBE?AW4ArmorType@@XZ
_TEXT	SEGMENT
?GetArmorType@ioSymbolStruct@@UBE?AW4ArmorType@@XZ PROC	; ioSymbolStruct::GetArmorType, COMDAT
; _this$ = ecx

; 495  : 	return m_ArmorType;

  00000	8b 81 d4 01 00
	00		 mov	 eax, DWORD PTR [ecx+468]

; 496  : }

  00006	c3		 ret	 0
?GetArmorType@ioSymbolStruct@@UBE?AW4ArmorType@@XZ ENDP	; ioSymbolStruct::GetArmorType
_TEXT	ENDS
PUBLIC	?UpdateBottomHeight@ioSymbolStruct@@MBEXXZ	; ioSymbolStruct::UpdateBottomHeight
; Function compile flags: /Ogsp
;	COMDAT ?UpdateBottomHeight@ioSymbolStruct@@MBEXXZ
_TEXT	SEGMENT
?UpdateBottomHeight@ioSymbolStruct@@MBEXXZ PROC		; ioSymbolStruct::UpdateBottomHeight, COMDAT
; _this$ = ecx

; 499  : {

  00000	56		 push	 esi
  00001	8b f1		 mov	 esi, ecx

; 500  : 	m_fCurBottomHeight = GetWorldPosition().y;

  00003	8b 06		 mov	 eax, DWORD PTR [esi]
  00005	ff 50 70	 call	 DWORD PTR [eax+112]
  00008	d9 40 04	 fld	 DWORD PTR [eax+4]
  0000b	d9 9e 84 00 00
	00		 fstp	 DWORD PTR [esi+132]
  00011	5e		 pop	 esi

; 501  : }

  00012	c3		 ret	 0
?UpdateBottomHeight@ioSymbolStruct@@MBEXXZ ENDP		; ioSymbolStruct::UpdateBottomHeight
_TEXT	ENDS
PUBLIC	?SetWoundedState@ioSymbolStruct@@QAEXXZ		; ioSymbolStruct::SetWoundedState
EXTRN	__imp_?GetLoopSec@ioFrameTimer@@QBEKXZ:PROC
EXTRN	__imp_?GetSingleton@ioFrameTimer@@SAAAV1@XZ:PROC
; Function compile flags: /Ogsp
;	COMDAT ?SetWoundedState@ioSymbolStruct@@QAEXXZ
_TEXT	SEGMENT
?SetWoundedState@ioSymbolStruct@@QAEXXZ PROC		; ioSymbolStruct::SetWoundedState, COMDAT
; _this$ = ecx

; 531  : {

  00000	56		 push	 esi
  00001	8b f1		 mov	 esi, ecx

; 532  : 	m_State = SS_WOUNDED;

  00003	c7 86 cc 01 00
	00 01 00 00 00	 mov	 DWORD PTR [esi+460], 1

; 533  : 	m_dwWoundedSetTime = FRAMEGETTIME();

  0000d	ff 15 00 00 00
	00		 call	 DWORD PTR __imp_?GetSingleton@ioFrameTimer@@SAAAV1@XZ
  00013	8b c8		 mov	 ecx, eax
  00015	ff 15 00 00 00
	00		 call	 DWORD PTR __imp_?GetLoopSec@ioFrameTimer@@QBEKXZ
  0001b	89 86 8c 05 00
	00		 mov	 DWORD PTR [esi+1420], eax
  00021	5e		 pop	 esi

; 534  : }

  00022	c3		 ret	 0
?SetWoundedState@ioSymbolStruct@@QAEXXZ ENDP		; ioSymbolStruct::SetWoundedState
_TEXT	ENDS
PUBLIC	?SetEndFocusEffect@ioSymbolStruct@@QAEXABVioHashString@@@Z ; ioSymbolStruct::SetEndFocusEffect
EXTRN	__imp_?AttachEffect@ioEntityGroup@@QAEPAVioEffect@@ABVioHashString@@PAVioEntityEvent@@ABUD3DXQUATERNION@@ABUD3DXVECTOR3@@_N@Z:PROC
EXTRN	__imp_?QUAT_IDENTITY@ioMath@@2UD3DXQUATERNION@@A:BYTE
EXTRN	__imp_?VEC3_ZERO@ioMath@@2UD3DXVECTOR3@@A:BYTE
EXTRN	__imp_?IsEmpty@ioHashString@@QBE_NXZ:PROC
; Function compile flags: /Ogsp
;	COMDAT ?SetEndFocusEffect@ioSymbolStruct@@QAEXABVioHashString@@@Z
_TEXT	SEGMENT
_szEndFocusEffect$ = 8					; size = 4
?SetEndFocusEffect@ioSymbolStruct@@QAEXABVioHashString@@@Z PROC ; ioSymbolStruct::SetEndFocusEffect, COMDAT
; _this$ = ecx

; 537  : {

  00000	55		 push	 ebp
  00001	8b ec		 mov	 ebp, esp
  00003	56		 push	 esi
  00004	8b f1		 mov	 esi, ecx

; 538  : 	if( !szEndFocusEffect.IsEmpty() )

  00006	8b 4d 08	 mov	 ecx, DWORD PTR _szEndFocusEffect$[ebp]
  00009	ff 15 00 00 00
	00		 call	 DWORD PTR __imp_?IsEmpty@ioHashString@@QBE_NXZ
  0000f	84 c0		 test	 al, al
  00011	75 20		 jne	 SHORT $LN1@SetEndFocu

; 539  : 	{
; 540  : 		if( m_pGroup )

  00013	8b 4e 04	 mov	 ecx, DWORD PTR [esi+4]
  00016	85 c9		 test	 ecx, ecx
  00018	74 19		 je	 SHORT $LN1@SetEndFocu

; 541  : 			m_pGroup->AttachEffect( szEndFocusEffect, NULL );

  0001a	6a 01		 push	 1
  0001c	ff 35 00 00 00
	00		 push	 DWORD PTR __imp_?VEC3_ZERO@ioMath@@2UD3DXVECTOR3@@A
  00022	ff 35 00 00 00
	00		 push	 DWORD PTR __imp_?QUAT_IDENTITY@ioMath@@2UD3DXQUATERNION@@A
  00028	6a 00		 push	 0
  0002a	ff 75 08	 push	 DWORD PTR _szEndFocusEffect$[ebp]
  0002d	ff 15 00 00 00
	00		 call	 DWORD PTR __imp_?AttachEffect@ioEntityGroup@@QAEPAVioEffect@@ABVioHashString@@PAVioEntityEvent@@ABUD3DXQUATERNION@@ABUD3DXVECTOR3@@_N@Z
$LN1@SetEndFocu:
  00033	5e		 pop	 esi

; 542  : 	}
; 543  : }

  00034	5d		 pop	 ebp
  00035	c2 04 00	 ret	 4
?SetEndFocusEffect@ioSymbolStruct@@QAEXABVioHashString@@@Z ENDP ; ioSymbolStruct::SetEndFocusEffect
_TEXT	ENDS
PUBLIC	__real@4f800000
PUBLIC	__$ArrayPad$
PUBLIC	?ProcessWoundedState@ioSymbolStruct@@IAEXXZ	; ioSymbolStruct::ProcessWoundedState
EXTRN	___security_cookie:DWORD
EXTRN	@__security_check_cookie@4:PROC
;	COMDAT __real@4f800000
; File d:\lost saga for developer\youtube\tutorial\source\src\lsclient\stdafx.h
CONST	SEGMENT
__real@4f800000 DD 04f800000r			; 4.29497e+009
; Function compile flags: /Ogsp
; File d:\lost saga for developer\youtube\tutorial\source\src\lsclient\iosymbolstruct.cpp
CONST	ENDS
;	COMDAT ?ProcessWoundedState@ioSymbolStruct@@IAEXXZ
_TEXT	SEGMENT
tv225 = -20						; size = 4
tv220 = -20						; size = 4
tv217 = -20						; size = 4
tv202 = -20						; size = 4
tv195 = -20						; size = 4
_vShakePos$530739 = -16					; size = 12
__$ArrayPad$ = -4					; size = 4
?ProcessWoundedState@ioSymbolStruct@@IAEXXZ PROC	; ioSymbolStruct::ProcessWoundedState, COMDAT
; _this$ = ecx

; 546  : {

  00000	55		 push	 ebp
  00001	8b ec		 mov	 ebp, esp
  00003	83 ec 14	 sub	 esp, 20			; 00000014H
  00006	a1 00 00 00 00	 mov	 eax, DWORD PTR ___security_cookie
  0000b	33 c5		 xor	 eax, ebp
  0000d	89 45 fc	 mov	 DWORD PTR __$ArrayPad$[ebp], eax
  00010	53		 push	 ebx
  00011	8b d9		 mov	 ebx, ecx

; 547  : 	if( m_State != SS_WOUNDED )	return;

  00013	83 bb cc 01 00
	00 01		 cmp	 DWORD PTR [ebx+460], 1
  0001a	0f 85 e3 00 00
	00		 jne	 $LN3@ProcessWou

; 548  : 
; 549  : 	DWORD dwCurTime = FRAMEGETTIME();

  00020	56		 push	 esi
  00021	ff 15 00 00 00
	00		 call	 DWORD PTR __imp_?GetSingleton@ioFrameTimer@@SAAAV1@XZ
  00027	8b c8		 mov	 ecx, eax
  00029	ff 15 00 00 00
	00		 call	 DWORD PTR __imp_?GetLoopSec@ioFrameTimer@@QBEKXZ
  0002f	8b c8		 mov	 ecx, eax

; 550  : 	if( m_dwWoundedSetTime + FLOAT100 < dwCurTime )

  00031	b8 64 00 00 00	 mov	 eax, 100		; 00000064H
  00036	89 45 ec	 mov	 DWORD PTR tv225[ebp], eax
  00039	db 45 ec	 fild	 DWORD PTR tv225[ebp]
  0003c	85 c0		 test	 eax, eax
  0003e	79 06		 jns	 SHORT $LN15@ProcessWou
  00040	d8 05 00 00 00
	00		 fadd	 DWORD PTR __real@4f800000
$LN15@ProcessWou:
  00046	8b 83 8c 05 00
	00		 mov	 eax, DWORD PTR [ebx+1420]
  0004c	db 83 8c 05 00
	00		 fild	 DWORD PTR [ebx+1420]
  00052	85 c0		 test	 eax, eax
  00054	79 06		 jns	 SHORT $LN16@ProcessWou
  00056	d8 05 00 00 00
	00		 fadd	 DWORD PTR __real@4f800000
$LN16@ProcessWou:
  0005c	89 4d ec	 mov	 DWORD PTR tv217[ebp], ecx
  0005f	de c1		 faddp	 ST(1), ST(0)
  00061	db 45 ec	 fild	 DWORD PTR tv217[ebp]
  00064	85 c9		 test	 ecx, ecx
  00066	79 06		 jns	 SHORT $LN17@ProcessWou
  00068	d8 05 00 00 00
	00		 fadd	 DWORD PTR __real@4f800000
$LN17@ProcessWou:
  0006e	df f1		 fcomip	 ST(1)
  00070	dd d8		 fstp	 ST(0)
  00072	76 25		 jbe	 SHORT $LN4@ProcessWou

; 551  : 	{
; 552  : 		SetWorldPosition( m_vBackUpPos );

  00074	8b 03		 mov	 eax, DWORD PTR [ebx]
  00076	8d 8b 74 05 00
	00		 lea	 ecx, DWORD PTR [ebx+1396]
  0007c	51		 push	 ecx
  0007d	8b cb		 mov	 ecx, ebx
  0007f	ff 50 44	 call	 DWORD PTR [eax+68]

; 553  : 
; 554  : 		m_State = SS_DELAY;

  00082	83 a3 cc 01 00
	00 00		 and	 DWORD PTR [ebx+460], 0

; 555  : 		m_dwWoundedSetTime = 0;

  00089	83 a3 8c 05 00
	00 00		 and	 DWORD PTR [ebx+1420], 0

; 556  : 		m_bShakeLeft = false;

  00090	c6 83 90 05 00
	00 00		 mov	 BYTE PTR [ebx+1424], 0

; 557  : 	}
; 558  : 	else

  00097	eb 69		 jmp	 SHORT $LN14@ProcessWou
$LN4@ProcessWou:

; 559  : 	{
; 560  : 		D3DXVECTOR3 vShakePos = m_vBackUpPos;
; 561  : 		if( m_bShakeLeft )

  00099	80 bb 90 05 00
	00 00		 cmp	 BYTE PTR [ebx+1424], 0
  000a0	57		 push	 edi
  000a1	8d b3 74 05 00
	00		 lea	 esi, DWORD PTR [ebx+1396]
  000a7	8d 7d f0	 lea	 edi, DWORD PTR _vShakePos$530739[ebp]
  000aa	a5		 movsd
  000ab	a5		 movsd
  000ac	a5		 movsd
  000ad	5f		 pop	 edi
  000ae	74 1a		 je	 SHORT $LN2@ProcessWou

; 562  : 			vShakePos.x += FLOAT10;

  000b0	b8 0a 00 00 00	 mov	 eax, 10			; 0000000aH
  000b5	89 45 ec	 mov	 DWORD PTR tv202[ebp], eax
  000b8	db 45 ec	 fild	 DWORD PTR tv202[ebp]
  000bb	85 c0		 test	 eax, eax
  000bd	79 06		 jns	 SHORT $LN18@ProcessWou
  000bf	d8 05 00 00 00
	00		 fadd	 DWORD PTR __real@4f800000
$LN18@ProcessWou:
  000c5	d8 45 f0	 fadd	 DWORD PTR _vShakePos$530739[ebp]

; 563  : 		else

  000c8	eb 1a		 jmp	 SHORT $LN20@ProcessWou
$LN2@ProcessWou:

; 564  : 			vShakePos.x -= FLOAT10;

  000ca	b8 0a 00 00 00	 mov	 eax, 10			; 0000000aH
  000cf	d9 45 f0	 fld	 DWORD PTR _vShakePos$530739[ebp]
  000d2	89 45 ec	 mov	 DWORD PTR tv195[ebp], eax
  000d5	db 45 ec	 fild	 DWORD PTR tv195[ebp]
  000d8	85 c0		 test	 eax, eax
  000da	79 06		 jns	 SHORT $LN19@ProcessWou
  000dc	d8 05 00 00 00
	00		 fadd	 DWORD PTR __real@4f800000
$LN19@ProcessWou:
  000e2	de e9		 fsubp	 ST(1), ST(0)
$LN20@ProcessWou:

; 565  : 
; 566  : 		SetWorldPosition( vShakePos );

  000e4	8b 03		 mov	 eax, DWORD PTR [ebx]
  000e6	d9 5d f0	 fstp	 DWORD PTR _vShakePos$530739[ebp]
  000e9	8d 4d f0	 lea	 ecx, DWORD PTR _vShakePos$530739[ebp]
  000ec	51		 push	 ecx
  000ed	8b cb		 mov	 ecx, ebx
  000ef	ff 50 44	 call	 DWORD PTR [eax+68]

; 567  : 		m_bShakeLeft = !m_bShakeLeft;

  000f2	80 bb 90 05 00
	00 00		 cmp	 BYTE PTR [ebx+1424], 0
  000f9	0f 94 c0	 sete	 al
  000fc	88 83 90 05 00
	00		 mov	 BYTE PTR [ebx+1424], al
$LN14@ProcessWou:
  00102	5e		 pop	 esi
$LN3@ProcessWou:

; 568  : 	}
; 569  : }

  00103	8b 4d fc	 mov	 ecx, DWORD PTR __$ArrayPad$[ebp]
  00106	33 cd		 xor	 ecx, ebp
  00108	5b		 pop	 ebx
  00109	e8 00 00 00 00	 call	 @__security_check_cookie@4
  0010e	c9		 leave
  0010f	c3		 ret	 0
?ProcessWoundedState@ioSymbolStruct@@IAEXXZ ENDP	; ioSymbolStruct::ProcessWoundedState
_TEXT	ENDS
PUBLIC	?InitResource@ioSymbolStruct@@QAEXXZ		; ioSymbolStruct::InitResource
EXTRN	?InitResource@ioGaugeHelper@@QAEXXZ:PROC	; ioGaugeHelper::InitResource
EXTRN	??0ioGaugeHelper@@QAE@XZ:PROC			; ioGaugeHelper::ioGaugeHelper
EXTRN	??2@YAPAXI@Z:PROC				; operator new
EXTRN	___CxxFrameHandler3:PROC
EXTRN	__EH_epilog3:PROC
EXTRN	__EH_prolog3:PROC
;	COMDAT xdata$x
xdata$x	SEGMENT
__unwindtable$?InitResource@ioSymbolStruct@@QAEXXZ DD 0ffffffffH
	DD	FLAT:__unwindfunclet$?InitResource@ioSymbolStruct@@QAEXXZ$0
__ehfuncinfo$?InitResource@ioSymbolStruct@@QAEXXZ DD 019930522H
	DD	01H
	DD	FLAT:__unwindtable$?InitResource@ioSymbolStruct@@QAEXXZ
	DD	2 DUP(00H)
	DD	2 DUP(00H)
	DD	00H
	DD	01H
; Function compile flags: /Ogsp
xdata$x	ENDS
;	COMDAT ?InitResource@ioSymbolStruct@@QAEXXZ
_TEXT	SEGMENT
$T534970 = -16						; size = 4
__$EHRec$ = -12						; size = 12
?InitResource@ioSymbolStruct@@QAEXXZ PROC		; ioSymbolStruct::InitResource, COMDAT
; _this$ = ecx

; 572  : {

  00000	6a 04		 push	 4
  00002	b8 00 00 00 00	 mov	 eax, __ehhandler$?InitResource@ioSymbolStruct@@QAEXXZ
  00007	e8 00 00 00 00	 call	 __EH_prolog3
  0000c	8b f1		 mov	 esi, ecx

; 573  : 	m_pGauge = new ioGaugeHelper;

  0000e	6a 34		 push	 52			; 00000034H
  00010	e8 00 00 00 00	 call	 ??2@YAPAXI@Z		; operator new
  00015	59		 pop	 ecx
  00016	8b c8		 mov	 ecx, eax
  00018	89 4d f0	 mov	 DWORD PTR $T534970[ebp], ecx
  0001b	33 c0		 xor	 eax, eax
  0001d	89 45 fc	 mov	 DWORD PTR __$EHRec$[ebp+8], eax
  00020	3b c8		 cmp	 ecx, eax
  00022	74 05		 je	 SHORT $LN3@InitResour
  00024	e8 00 00 00 00	 call	 ??0ioGaugeHelper@@QAE@XZ ; ioGaugeHelper::ioGaugeHelper
$LN3@InitResour:
  00029	83 4d fc ff	 or	 DWORD PTR __$EHRec$[ebp+8], -1

; 574  : 	m_pGauge->InitResource();

  0002d	8b c8		 mov	 ecx, eax
  0002f	89 86 d0 01 00
	00		 mov	 DWORD PTR [esi+464], eax
  00035	e8 00 00 00 00	 call	 ?InitResource@ioGaugeHelper@@QAEXXZ ; ioGaugeHelper::InitResource

; 575  : }

  0003a	e8 00 00 00 00	 call	 __EH_epilog3
  0003f	c3		 ret	 0
_TEXT	ENDS
;	COMDAT text$x
text$x	SEGMENT
__unwindfunclet$?InitResource@ioSymbolStruct@@QAEXXZ$0:
  00000	ff 75 f0	 push	 DWORD PTR $T534970[ebp]
  00003	e8 00 00 00 00	 call	 ??3@YAXPAX@Z		; operator delete
  00008	59		 pop	 ecx
  00009	c3		 ret	 0
__ehhandler$?InitResource@ioSymbolStruct@@QAEXXZ:
  0000a	8b 54 24 08	 mov	 edx, DWORD PTR [esp+8]
  0000e	8d 42 0c	 lea	 eax, DWORD PTR [edx+12]
  00011	8b 4a ec	 mov	 ecx, DWORD PTR [edx-20]
  00014	33 c8		 xor	 ecx, eax
  00016	e8 00 00 00 00	 call	 @__security_check_cookie@4
  0001b	b8 00 00 00 00	 mov	 eax, OFFSET __ehfuncinfo$?InitResource@ioSymbolStruct@@QAEXXZ
  00020	e9 00 00 00 00	 jmp	 ___CxxFrameHandler3
text$x	ENDS
?InitResource@ioSymbolStruct@@QAEXXZ ENDP		; ioSymbolStruct::InitResource
PUBLIC	?InitSymbolInfo@ioSymbolStruct@@QAEXHABUD3DXVECTOR3@@0@Z ; ioSymbolStruct::InitSymbolInfo
; Function compile flags: /Ogsp
;	COMDAT ?InitSymbolInfo@ioSymbolStruct@@QAEXHABUD3DXVECTOR3@@0@Z
_TEXT	SEGMENT
_iIndex$ = 8						; size = 4
_vPos$ = 12						; size = 4
_vScale$ = 16						; size = 4
?InitSymbolInfo@ioSymbolStruct@@QAEXHABUD3DXVECTOR3@@0@Z PROC ; ioSymbolStruct::InitSymbolInfo, COMDAT
; _this$ = ecx

; 623  : {

  00000	55		 push	 ebp
  00001	8b ec		 mov	 ebp, esp

; 624  : 	m_iArrayIndex = iIndex;

  00003	8b 45 08	 mov	 eax, DWORD PTR _iIndex$[ebp]
  00006	53		 push	 ebx
  00007	56		 push	 esi

; 625  : 
; 626  : 	SetWorldPosition( vPos );

  00008	8b 75 0c	 mov	 esi, DWORD PTR _vPos$[ebp]
  0000b	8b d9		 mov	 ebx, ecx
  0000d	57		 push	 edi
  0000e	89 83 c8 01 00
	00		 mov	 DWORD PTR [ebx+456], eax
  00014	8b 03		 mov	 eax, DWORD PTR [ebx]
  00016	56		 push	 esi
  00017	ff 50 44	 call	 DWORD PTR [eax+68]

; 627  : 	m_vDefaultPos = vPos;
; 628  : 	m_vBackUpPos = vPos;
; 629  : 	SetWorldScale( vScale );

  0001a	ff 75 10	 push	 DWORD PTR _vScale$[ebp]
  0001d	8b 03		 mov	 eax, DWORD PTR [ebx]
  0001f	8d bb 80 05 00
	00		 lea	 edi, DWORD PTR [ebx+1408]
  00025	a5		 movsd
  00026	a5		 movsd
  00027	a5		 movsd
  00028	8b 75 0c	 mov	 esi, DWORD PTR _vPos$[ebp]
  0002b	8d bb 74 05 00
	00		 lea	 edi, DWORD PTR [ebx+1396]
  00031	a5		 movsd
  00032	a5		 movsd
  00033	8b cb		 mov	 ecx, ebx
  00035	a5		 movsd
  00036	ff 50 4c	 call	 DWORD PTR [eax+76]
  00039	5f		 pop	 edi
  0003a	5e		 pop	 esi
  0003b	5b		 pop	 ebx

; 630  : }

  0003c	5d		 pop	 ebp
  0003d	c2 0c 00	 ret	 12			; 0000000cH
?InitSymbolInfo@ioSymbolStruct@@QAEXHABUD3DXVECTOR3@@0@Z ENDP ; ioSymbolStruct::InitSymbolInfo
_TEXT	ENDS
PUBLIC	?SetSymbolPriority@ioSymbolStruct@@QAEXH@Z	; ioSymbolStruct::SetSymbolPriority
; Function compile flags: /Ogsp
;	COMDAT ?SetSymbolPriority@ioSymbolStruct@@QAEXH@Z
_TEXT	SEGMENT
_iPriority$ = 8						; size = 4
?SetSymbolPriority@ioSymbolStruct@@QAEXH@Z PROC		; ioSymbolStruct::SetSymbolPriority, COMDAT
; _this$ = ecx

; 766  : {

  00000	55		 push	 ebp
  00001	8b ec		 mov	 ebp, esp

; 767  : 	m_iSymbolPriority = iPriority;

  00003	8b 45 08	 mov	 eax, DWORD PTR _iPriority$[ebp]
  00006	89 81 94 05 00
	00		 mov	 DWORD PTR [ecx+1428], eax

; 768  : }

  0000c	5d		 pop	 ebp
  0000d	c2 04 00	 ret	 4
?SetSymbolPriority@ioSymbolStruct@@QAEXH@Z ENDP		; ioSymbolStruct::SetSymbolPriority
_TEXT	ENDS
PUBLIC	?SetChangeEvent@ioSymbolStruct@@QAEXXZ		; ioSymbolStruct::SetChangeEvent
; Function compile flags: /Ogsp
;	COMDAT ?SetChangeEvent@ioSymbolStruct@@QAEXXZ
_TEXT	SEGMENT
?SetChangeEvent@ioSymbolStruct@@QAEXXZ PROC		; ioSymbolStruct::SetChangeEvent, COMDAT
; _this$ = ecx

; 845  : {

  00000	56		 push	 esi
  00001	8b f1		 mov	 esi, ecx

; 846  : 	m_dwSymbolChangeTime = FRAMEGETTIME();

  00003	ff 15 00 00 00
	00		 call	 DWORD PTR __imp_?GetSingleton@ioFrameTimer@@SAAAV1@XZ
  00009	8b c8		 mov	 ecx, eax
  0000b	ff 15 00 00 00
	00		 call	 DWORD PTR __imp_?GetLoopSec@ioFrameTimer@@QBEKXZ
  00011	89 86 9c 05 00
	00		 mov	 DWORD PTR [esi+1436], eax
  00017	5e		 pop	 esi

; 847  : }

  00018	c3		 ret	 0
?SetChangeEvent@ioSymbolStruct@@QAEXXZ ENDP		; ioSymbolStruct::SetChangeEvent
_TEXT	ENDS
PUBLIC	?GetEventGapTime@ioSymbolStruct@@QAEKXZ		; ioSymbolStruct::GetEventGapTime
; Function compile flags: /Ogsp
;	COMDAT ?GetEventGapTime@ioSymbolStruct@@QAEKXZ
_TEXT	SEGMENT
?GetEventGapTime@ioSymbolStruct@@QAEKXZ PROC		; ioSymbolStruct::GetEventGapTime, COMDAT
; _this$ = ecx

; 850  : {

  00000	56		 push	 esi

; 851  : 	DWORD dwGapTime = 0;
; 852  : 
; 853  : 	if( m_dwSymbolChangeTime > 0 )

  00001	8b b1 9c 05 00
	00		 mov	 esi, DWORD PTR [ecx+1436]
  00007	85 f6		 test	 esi, esi
  00009	74 12		 je	 SHORT $LN2@GetEventGa

; 857  : 
; 858  : 	return (FRAMEGETTIME() - dwGapTime );

  0000b	ff 15 00 00 00
	00		 call	 DWORD PTR __imp_?GetSingleton@ioFrameTimer@@SAAAV1@XZ
  00011	8b c8		 mov	 ecx, eax
  00013	ff 15 00 00 00
	00		 call	 DWORD PTR __imp_?GetLoopSec@ioFrameTimer@@QBEKXZ
  00019	2b c6		 sub	 eax, esi
  0001b	5e		 pop	 esi

; 859  : }

  0001c	c3		 ret	 0
$LN2@GetEventGa:

; 854  : 		dwGapTime = m_dwSymbolChangeTime;
; 855  : 	else
; 856  : 		return 0;

  0001d	33 c0		 xor	 eax, eax
  0001f	5e		 pop	 esi

; 859  : }

  00020	c3		 ret	 0
?GetEventGapTime@ioSymbolStruct@@QAEKXZ ENDP		; ioSymbolStruct::GetEventGapTime
_TEXT	ENDS
PUBLIC	??0D3DXVECTOR3@@QAE@XZ				; D3DXVECTOR3::D3DXVECTOR3
; Function compile flags: /Ogsp
; File c:\program files (x86)\microsoft directx sdk (june 2010)\include\d3dx9math.h
;	COMDAT ??0D3DXVECTOR3@@QAE@XZ
_TEXT	SEGMENT
??0D3DXVECTOR3@@QAE@XZ PROC				; D3DXVECTOR3::D3DXVECTOR3, COMDAT
; _this$ = ecx

; 165  :     D3DXVECTOR3() {};

  00000	8b c1		 mov	 eax, ecx
  00002	c3		 ret	 0
??0D3DXVECTOR3@@QAE@XZ ENDP				; D3DXVECTOR3::D3DXVECTOR3
_TEXT	ENDS
PUBLIC	??0D3DXVECTOR3@@QAE@MMM@Z			; D3DXVECTOR3::D3DXVECTOR3
; Function compile flags: /Ogsp
; File c:\program files (x86)\microsoft directx sdk (june 2010)\include\d3dx9math.inl
;	COMDAT ??0D3DXVECTOR3@@QAE@MMM@Z
_TEXT	SEGMENT
_fx$ = 8						; size = 4
_fy$ = 12						; size = 4
_fz$ = 16						; size = 4
??0D3DXVECTOR3@@QAE@MMM@Z PROC				; D3DXVECTOR3::D3DXVECTOR3, COMDAT
; _this$ = ecx

; 303  : {

  00000	55		 push	 ebp
  00001	8b ec		 mov	 ebp, esp

; 304  :     x = fx;

  00003	f3 0f 10 45 08	 movss	 xmm0, DWORD PTR _fx$[ebp]
  00008	8b c1		 mov	 eax, ecx
  0000a	f3 0f 11 00	 movss	 DWORD PTR [eax], xmm0

; 305  :     y = fy;

  0000e	f3 0f 10 45 0c	 movss	 xmm0, DWORD PTR _fy$[ebp]
  00013	f3 0f 11 40 04	 movss	 DWORD PTR [eax+4], xmm0

; 306  :     z = fz;

  00018	f3 0f 10 45 10	 movss	 xmm0, DWORD PTR _fz$[ebp]
  0001d	f3 0f 11 40 08	 movss	 DWORD PTR [eax+8], xmm0

; 307  : }

  00022	5d		 pop	 ebp
  00023	c2 0c 00	 ret	 12			; 0000000cH
??0D3DXVECTOR3@@QAE@MMM@Z ENDP				; D3DXVECTOR3::D3DXVECTOR3
_TEXT	ENDS
PUBLIC	??HD3DXVECTOR3@@QBE?AU0@ABU0@@Z			; D3DXVECTOR3::operator+
; Function compile flags: /Ogsp
;	COMDAT ??HD3DXVECTOR3@@QBE?AU0@ABU0@@Z
_TEXT	SEGMENT
___$ReturnUdt$ = 8					; size = 4
_v$ = 12						; size = 4
??HD3DXVECTOR3@@QBE?AU0@ABU0@@Z PROC			; D3DXVECTOR3::operator+, COMDAT
; _this$ = ecx

; 380  : {

  00000	55		 push	 ebp
  00001	8b ec		 mov	 ebp, esp

; 381  :     return D3DXVECTOR3(x + v.x, y + v.y, z + v.z);

  00003	8b 55 0c	 mov	 edx, DWORD PTR _v$[ebp]
  00006	f3 0f 10 02	 movss	 xmm0, DWORD PTR [edx]
  0000a	f3 0f 10 09	 movss	 xmm1, DWORD PTR [ecx]
  0000e	8b 45 08	 mov	 eax, DWORD PTR ___$ReturnUdt$[ebp]
  00011	0f 5a c0	 cvtps2pd xmm0, xmm0
  00014	0f 5a c9	 cvtps2pd xmm1, xmm1
  00017	f2 0f 58 c1	 addsd	 xmm0, xmm1
  0001b	f3 0f 10 49 04	 movss	 xmm1, DWORD PTR [ecx+4]
  00020	66 0f 5a c0	 cvtpd2ps xmm0, xmm0
  00024	f3 0f 11 00	 movss	 DWORD PTR [eax], xmm0
  00028	f3 0f 10 42 04	 movss	 xmm0, DWORD PTR [edx+4]
  0002d	0f 5a c0	 cvtps2pd xmm0, xmm0
  00030	0f 5a c9	 cvtps2pd xmm1, xmm1
  00033	f2 0f 58 c1	 addsd	 xmm0, xmm1
  00037	f3 0f 10 49 08	 movss	 xmm1, DWORD PTR [ecx+8]
  0003c	66 0f 5a c0	 cvtpd2ps xmm0, xmm0
  00040	f3 0f 11 40 04	 movss	 DWORD PTR [eax+4], xmm0
  00045	f3 0f 10 42 08	 movss	 xmm0, DWORD PTR [edx+8]
  0004a	0f 5a c0	 cvtps2pd xmm0, xmm0
  0004d	0f 5a c9	 cvtps2pd xmm1, xmm1
  00050	f2 0f 58 c1	 addsd	 xmm0, xmm1
  00054	66 0f 5a c0	 cvtpd2ps xmm0, xmm0
  00058	f3 0f 11 40 08	 movss	 DWORD PTR [eax+8], xmm0

; 382  : }

  0005d	5d		 pop	 ebp
  0005e	c2 08 00	 ret	 8
??HD3DXVECTOR3@@QBE?AU0@ABU0@@Z ENDP			; D3DXVECTOR3::operator+
_TEXT	ENDS
PUBLIC	??GD3DXVECTOR3@@QBE?AU0@ABU0@@Z			; D3DXVECTOR3::operator-
; Function compile flags: /Ogsp
;	COMDAT ??GD3DXVECTOR3@@QBE?AU0@ABU0@@Z
_TEXT	SEGMENT
___$ReturnUdt$ = 8					; size = 4
_v$ = 12						; size = 4
??GD3DXVECTOR3@@QBE?AU0@ABU0@@Z PROC			; D3DXVECTOR3::operator-, COMDAT
; _this$ = ecx

; 386  : {

  00000	55		 push	 ebp
  00001	8b ec		 mov	 ebp, esp

; 387  :     return D3DXVECTOR3(x - v.x, y - v.y, z - v.z);

  00003	8b 55 0c	 mov	 edx, DWORD PTR _v$[ebp]
  00006	f3 0f 10 01	 movss	 xmm0, DWORD PTR [ecx]
  0000a	f3 0f 10 0a	 movss	 xmm1, DWORD PTR [edx]
  0000e	8b 45 08	 mov	 eax, DWORD PTR ___$ReturnUdt$[ebp]
  00011	0f 5a c0	 cvtps2pd xmm0, xmm0
  00014	0f 5a c9	 cvtps2pd xmm1, xmm1
  00017	f2 0f 5c c1	 subsd	 xmm0, xmm1
  0001b	f3 0f 10 4a 04	 movss	 xmm1, DWORD PTR [edx+4]
  00020	66 0f 5a c0	 cvtpd2ps xmm0, xmm0
  00024	f3 0f 11 00	 movss	 DWORD PTR [eax], xmm0
  00028	f3 0f 10 41 04	 movss	 xmm0, DWORD PTR [ecx+4]
  0002d	0f 5a c0	 cvtps2pd xmm0, xmm0
  00030	0f 5a c9	 cvtps2pd xmm1, xmm1
  00033	f2 0f 5c c1	 subsd	 xmm0, xmm1
  00037	f3 0f 10 4a 08	 movss	 xmm1, DWORD PTR [edx+8]
  0003c	66 0f 5a c0	 cvtpd2ps xmm0, xmm0
  00040	f3 0f 11 40 04	 movss	 DWORD PTR [eax+4], xmm0
  00045	f3 0f 10 41 08	 movss	 xmm0, DWORD PTR [ecx+8]
  0004a	0f 5a c0	 cvtps2pd xmm0, xmm0
  0004d	0f 5a c9	 cvtps2pd xmm1, xmm1
  00050	f2 0f 5c c1	 subsd	 xmm0, xmm1
  00054	66 0f 5a c0	 cvtpd2ps xmm0, xmm0
  00058	f3 0f 11 40 08	 movss	 DWORD PTR [eax+8], xmm0

; 388  : }

  0005d	5d		 pop	 ebp
  0005e	c2 08 00	 ret	 8
??GD3DXVECTOR3@@QBE?AU0@ABU0@@Z ENDP			; D3DXVECTOR3::operator-
_TEXT	ENDS
PUBLIC	??DD3DXVECTOR3@@QBE?AU0@M@Z			; D3DXVECTOR3::operator*
; Function compile flags: /Ogsp
;	COMDAT ??DD3DXVECTOR3@@QBE?AU0@M@Z
_TEXT	SEGMENT
___$ReturnUdt$ = 8					; size = 4
_f$ = 12						; size = 4
??DD3DXVECTOR3@@QBE?AU0@M@Z PROC			; D3DXVECTOR3::operator*, COMDAT
; _this$ = ecx

; 392  : {

  00000	55		 push	 ebp
  00001	8b ec		 mov	 ebp, esp

; 393  :     return D3DXVECTOR3(x * f, y * f, z * f);

  00003	f3 0f 10 4d 0c	 movss	 xmm1, DWORD PTR _f$[ebp]
  00008	f3 0f 10 01	 movss	 xmm0, DWORD PTR [ecx]
  0000c	8b 45 08	 mov	 eax, DWORD PTR ___$ReturnUdt$[ebp]
  0000f	0f 5a c0	 cvtps2pd xmm0, xmm0
  00012	0f 5a c9	 cvtps2pd xmm1, xmm1
  00015	f2 0f 59 c1	 mulsd	 xmm0, xmm1
  00019	f3 0f 10 4d 0c	 movss	 xmm1, DWORD PTR _f$[ebp]
  0001e	66 0f 5a c0	 cvtpd2ps xmm0, xmm0
  00022	f3 0f 11 00	 movss	 DWORD PTR [eax], xmm0
  00026	f3 0f 10 41 04	 movss	 xmm0, DWORD PTR [ecx+4]
  0002b	0f 5a c0	 cvtps2pd xmm0, xmm0
  0002e	0f 5a c9	 cvtps2pd xmm1, xmm1
  00031	f2 0f 59 c1	 mulsd	 xmm0, xmm1
  00035	f3 0f 10 4d 0c	 movss	 xmm1, DWORD PTR _f$[ebp]
  0003a	66 0f 5a c0	 cvtpd2ps xmm0, xmm0
  0003e	f3 0f 11 40 04	 movss	 DWORD PTR [eax+4], xmm0
  00043	f3 0f 10 41 08	 movss	 xmm0, DWORD PTR [ecx+8]
  00048	0f 5a c0	 cvtps2pd xmm0, xmm0
  0004b	0f 5a c9	 cvtps2pd xmm1, xmm1
  0004e	f2 0f 59 c1	 mulsd	 xmm0, xmm1
  00052	66 0f 5a c0	 cvtpd2ps xmm0, xmm0
  00056	f3 0f 11 40 08	 movss	 DWORD PTR [eax+8], xmm0

; 394  : }

  0005b	5d		 pop	 ebp
  0005c	c2 08 00	 ret	 8
??DD3DXVECTOR3@@QBE?AU0@M@Z ENDP			; D3DXVECTOR3::operator*
_TEXT	ENDS
PUBLIC	??8D3DXVECTOR3@@QBEHABU0@@Z			; D3DXVECTOR3::operator==
; Function compile flags: /Ogsp
;	COMDAT ??8D3DXVECTOR3@@QBEHABU0@@Z
_TEXT	SEGMENT
_v$ = 8							; size = 4
??8D3DXVECTOR3@@QBEHABU0@@Z PROC			; D3DXVECTOR3::operator==, COMDAT
; _this$ = ecx

; 413  : {

  00000	55		 push	 ebp
  00001	8b ec		 mov	 ebp, esp

; 414  :     return x == v.x && y == v.y && z == v.z;

  00003	8b 55 08	 mov	 edx, DWORD PTR _v$[ebp]
  00006	f3 0f 10 01	 movss	 xmm0, DWORD PTR [ecx]
  0000a	f3 0f 10 0a	 movss	 xmm1, DWORD PTR [edx]
  0000e	0f 5a c0	 cvtps2pd xmm0, xmm0
  00011	0f 5a c9	 cvtps2pd xmm1, xmm1
  00014	66 0f 2e c1	 ucomisd xmm0, xmm1
  00018	9f		 lahf
  00019	f6 c4 44	 test	 ah, 68			; 00000044H
  0001c	7a 39		 jp	 SHORT $LN3@operator
  0001e	f3 0f 10 41 04	 movss	 xmm0, DWORD PTR [ecx+4]
  00023	f3 0f 10 4a 04	 movss	 xmm1, DWORD PTR [edx+4]
  00028	0f 5a c0	 cvtps2pd xmm0, xmm0
  0002b	0f 5a c9	 cvtps2pd xmm1, xmm1
  0002e	66 0f 2e c1	 ucomisd xmm0, xmm1
  00032	9f		 lahf
  00033	f6 c4 44	 test	 ah, 68			; 00000044H
  00036	7a 1f		 jp	 SHORT $LN3@operator
  00038	f3 0f 10 41 08	 movss	 xmm0, DWORD PTR [ecx+8]
  0003d	f3 0f 10 4a 08	 movss	 xmm1, DWORD PTR [edx+8]
  00042	0f 5a c0	 cvtps2pd xmm0, xmm0
  00045	0f 5a c9	 cvtps2pd xmm1, xmm1
  00048	66 0f 2e c1	 ucomisd xmm0, xmm1
  0004c	9f		 lahf
  0004d	f6 c4 44	 test	 ah, 68			; 00000044H
  00050	7a 05		 jp	 SHORT $LN3@operator
  00052	33 c0		 xor	 eax, eax
  00054	40		 inc	 eax
  00055	eb 02		 jmp	 SHORT $LN4@operator
$LN3@operator:
  00057	33 c0		 xor	 eax, eax
$LN4@operator:

; 415  : }

  00059	5d		 pop	 ebp
  0005a	c2 04 00	 ret	 4
??8D3DXVECTOR3@@QBEHABU0@@Z ENDP			; D3DXVECTOR3::operator==
_TEXT	ENDS
PUBLIC	?D3DXVec3LengthSq@@YAMPBUD3DXVECTOR3@@@Z	; D3DXVec3LengthSq
; Function compile flags: /Ogsp
;	COMDAT ?D3DXVec3LengthSq@@YAMPBUD3DXVECTOR3@@@Z
_TEXT	SEGMENT
tv165 = 8						; size = 4
_pV$ = 8						; size = 4
?D3DXVec3LengthSq@@YAMPBUD3DXVECTOR3@@@Z PROC		; D3DXVec3LengthSq, COMDAT

; 1725 : {

  00000	55		 push	 ebp
  00001	8b ec		 mov	 ebp, esp

; 1726 : #ifdef D3DX_DEBUG
; 1727 :     if(!pV)
; 1728 :         return 0.0f;
; 1729 : #endif
; 1730 : 
; 1731 :     return pV->x * pV->x + pV->y * pV->y + pV->z * pV->z;

  00003	8b 45 08	 mov	 eax, DWORD PTR _pV$[ebp]
  00006	d9 40 04	 fld	 DWORD PTR [eax+4]
  00009	d9 00		 fld	 DWORD PTR [eax]
  0000b	d9 40 08	 fld	 DWORD PTR [eax+8]
  0000e	d9 c1		 fld	 ST(1)
  00010	de ca		 fmulp	 ST(2), ST(0)
  00012	d9 c2		 fld	 ST(2)
  00014	de cb		 fmulp	 ST(3), ST(0)
  00016	d9 c9		 fxch	 ST(1)
  00018	de c2		 faddp	 ST(2), ST(0)
  0001a	d9 c0		 fld	 ST(0)
  0001c	de c9		 fmulp	 ST(1), ST(0)
  0001e	de c1		 faddp	 ST(1), ST(0)
  00020	d9 5d 08	 fstp	 DWORD PTR tv165[ebp]
  00023	d9 45 08	 fld	 DWORD PTR tv165[ebp]

; 1732 : }

  00026	5d		 pop	 ebp
  00027	c3		 ret	 0
?D3DXVec3LengthSq@@YAMPBUD3DXVECTOR3@@@Z ENDP		; D3DXVec3LengthSq
_TEXT	ENDS
PUBLIC	?_DECSTR@@YAXPADH@Z				; _DECSTR
; Function compile flags: /Ogsp
; File d:\lost saga for developer\youtube\tutorial\source\src\lsclient\stringprotect.h
;	COMDAT ?_DECSTR@@YAXPADH@Z
_TEXT	SEGMENT
_s$ = 8							; size = 4
_l$ = 12						; size = 4
?_DECSTR@@YAXPADH@Z PROC				; _DECSTR, COMDAT

; 40   : __forceinline void _DECSTR(char* s, int l){int i=0,l4=(l-1)/4,*p=(int*)s;s[l-1]=0;for(;i<l4;++i)*(p++)^=0xEAEBECED;for(i=l4*4;i<l-1;++i)s[i]^=0xED-i%4;}

  00000	55		 push	 ebp
  00001	8b ec		 mov	 ebp, esp
  00003	8b 4d 0c	 mov	 ecx, DWORD PTR _l$[ebp]
  00006	56		 push	 esi
  00007	8b 75 08	 mov	 esi, DWORD PTR _s$[ebp]
  0000a	57		 push	 edi
  0000b	8d 79 ff	 lea	 edi, DWORD PTR [ecx-1]
  0000e	8b c7		 mov	 eax, edi
  00010	99		 cdq
  00011	83 e2 03	 and	 edx, 3
  00014	03 c2		 add	 eax, edx
  00016	c1 f8 02	 sar	 eax, 2
  00019	8b d6		 mov	 edx, esi
  0001b	c6 44 0e ff 00	 mov	 BYTE PTR [esi+ecx-1], 0
  00020	85 c0		 test	 eax, eax
  00022	7e 0e		 jle	 SHORT $LN4@DECSTR
  00024	8b c8		 mov	 ecx, eax
$LL6@DECSTR:
  00026	81 32 ed ec eb
	ea		 xor	 DWORD PTR [edx], -353637139 ; eaebecedH
  0002c	83 c2 04	 add	 edx, 4
  0002f	49		 dec	 ecx
  00030	75 f4		 jne	 SHORT $LL6@DECSTR
$LN4@DECSTR:
  00032	c1 e0 02	 shl	 eax, 2
  00035	eb 17		 jmp	 SHORT $LN14@DECSTR
$LL3@DECSTR:
  00037	8b c8		 mov	 ecx, eax
  00039	81 e1 03 00 00
	80		 and	 ecx, -2147483645	; 80000003H
  0003f	79 05		 jns	 SHORT $LN13@DECSTR
  00041	49		 dec	 ecx
  00042	83 c9 fc	 or	 ecx, -4			; fffffffcH
  00045	41		 inc	 ecx
$LN13@DECSTR:
  00046	b2 ed		 mov	 dl, -19			; ffffffedH
  00048	2a d1		 sub	 dl, cl
  0004a	30 14 30	 xor	 BYTE PTR [eax+esi], dl
  0004d	40		 inc	 eax
$LN14@DECSTR:
  0004e	3b c7		 cmp	 eax, edi
  00050	7c e5		 jl	 SHORT $LL3@DECSTR
  00052	5f		 pop	 edi
  00053	5e		 pop	 esi
  00054	5d		 pop	 ebp
  00055	c3		 ret	 0
?_DECSTR@@YAXPADH@Z ENDP				; _DECSTR
_TEXT	ENDS
PUBLIC	?NoUIModeHPShow@Setting@@SA_NXZ			; Setting::NoUIModeHPShow
EXTRN	?m_Option@Setting@@1USettingOption@@A:BYTE	; Setting::m_Option
; Function compile flags: /Ogsp
; File d:\lost saga for developer\youtube\tutorial\source\src\lsclient\setting.h
;	COMDAT ?NoUIModeHPShow@Setting@@SA_NXZ
_TEXT	SEGMENT
?NoUIModeHPShow@Setting@@SA_NXZ PROC			; Setting::NoUIModeHPShow, COMDAT

; 362  : 	static bool NoUIModeHPShow(){ return m_Option.m_bNoUIModeHPShow; }

  00000	a0 6b 00 00 00	 mov	 al, BYTE PTR ?m_Option@Setting@@1USettingOption@@A+107
  00005	c3		 ret	 0
?NoUIModeHPShow@Setting@@SA_NXZ ENDP			; Setting::NoUIModeHPShow
_TEXT	ENDS
PUBLIC	?CheckWeaponBySkill@ioWeapon@@QBE_NXZ		; ioWeapon::CheckWeaponBySkill
; Function compile flags: /Ogsp
; File d:\lost saga for developer\youtube\tutorial\source\src\lsclient\ioweapon.h
;	COMDAT ?CheckWeaponBySkill@ioWeapon@@QBE_NXZ
_TEXT	SEGMENT
?CheckWeaponBySkill@ioWeapon@@QBE_NXZ PROC		; ioWeapon::CheckWeaponBySkill, COMDAT
; _this$ = ecx

; 484  : 	inline bool CheckWeaponBySkill() const { return m_bUseSkill; }

  00000	8a 81 7e 05 00
	00		 mov	 al, BYTE PTR [ecx+1406]
  00006	c3		 ret	 0
?CheckWeaponBySkill@ioWeapon@@QBE_NXZ ENDP		; ioWeapon::CheckWeaponBySkill
_TEXT	ENDS
PUBLIC	?IsGameOwnerWeapon@ioWeapon@@QBE_NXZ		; ioWeapon::IsGameOwnerWeapon
; Function compile flags: /Ogsp
;	COMDAT ?IsGameOwnerWeapon@ioWeapon@@QBE_NXZ
_TEXT	SEGMENT
?IsGameOwnerWeapon@ioWeapon@@QBE_NXZ PROC		; ioWeapon::IsGameOwnerWeapon, COMDAT
; _this$ = ecx

; 532  : 	inline bool IsGameOwnerWeapon() const { return m_bGameOwnerWeapon; }

  00000	8a 81 80 05 00
	00		 mov	 al, BYTE PTR [ecx+1408]
  00006	c3		 ret	 0
?IsGameOwnerWeapon@ioWeapon@@QBE_NXZ ENDP		; ioWeapon::IsGameOwnerWeapon
_TEXT	ENDS
PUBLIC	?GetWeaponIndex@ioWeapon@@QBEKXZ		; ioWeapon::GetWeaponIndex
; Function compile flags: /Ogsp
;	COMDAT ?GetWeaponIndex@ioWeapon@@QBEKXZ
_TEXT	SEGMENT
?GetWeaponIndex@ioWeapon@@QBEKXZ PROC			; ioWeapon::GetWeaponIndex, COMDAT
; _this$ = ecx

; 536  : 	inline DWORD GetWeaponIndex() const { return m_dwWeaponIdx; }

  00000	8b 81 b8 04 00
	00		 mov	 eax, DWORD PTR [ecx+1208]
  00006	c3		 ret	 0
?GetWeaponIndex@ioWeapon@@QBEKXZ ENDP			; ioWeapon::GetWeaponIndex
_TEXT	ENDS
PUBLIC	?GetOwnerName@ioWeapon@@QBEABVioHashString@@XZ	; ioWeapon::GetOwnerName
; Function compile flags: /Ogsp
;	COMDAT ?GetOwnerName@ioWeapon@@QBEABVioHashString@@XZ
_TEXT	SEGMENT
?GetOwnerName@ioWeapon@@QBEABVioHashString@@XZ PROC	; ioWeapon::GetOwnerName, COMDAT
; _this$ = ecx

; 636  : 	inline const ioHashString& GetOwnerName() const { return m_OwnerName; }

  00000	8d 41 10	 lea	 eax, DWORD PTR [ecx+16]
  00003	c3		 ret	 0
?GetOwnerName@ioWeapon@@QBEABVioHashString@@XZ ENDP	; ioWeapon::GetOwnerName
_TEXT	ENDS
PUBLIC	?GetWeaponByDummyChar@ioWeapon@@QAE?BHXZ	; ioWeapon::GetWeaponByDummyChar
; Function compile flags: /Ogsp
;	COMDAT ?GetWeaponByDummyChar@ioWeapon@@QAE?BHXZ
_TEXT	SEGMENT
?GetWeaponByDummyChar@ioWeapon@@QAE?BHXZ PROC		; ioWeapon::GetWeaponByDummyChar, COMDAT
; _this$ = ecx

; 638  : 	inline const int GetWeaponByDummyChar() { return m_iDummyIndex; }

  00000	8b 81 98 05 00
	00		 mov	 eax, DWORD PTR [ecx+1432]
  00006	c3		 ret	 0
?GetWeaponByDummyChar@ioWeapon@@QAE?BHXZ ENDP		; ioWeapon::GetWeaponByDummyChar
_TEXT	ENDS
PUBLIC	?GetCreator@ioPlayMode@@QBEPAVioPlayStage@@XZ	; ioPlayMode::GetCreator
; Function compile flags: /Ogsp
; File d:\lost saga for developer\youtube\tutorial\source\src\lsclient\ioplaymode.h
;	COMDAT ?GetCreator@ioPlayMode@@QBEPAVioPlayStage@@XZ
_TEXT	SEGMENT
?GetCreator@ioPlayMode@@QBEPAVioPlayStage@@XZ PROC	; ioPlayMode::GetCreator, COMDAT
; _this$ = ecx

; 631  : 	inline ioPlayStage* GetCreator() const { return m_pCreator; }

  00000	8b 41 34	 mov	 eax, DWORD PTR [ecx+52]
  00003	c3		 ret	 0
?GetCreator@ioPlayMode@@QBEPAVioPlayStage@@XZ ENDP	; ioPlayMode::GetCreator
_TEXT	ENDS
PUBLIC	?GetModeState@ioPlayMode@@QBE?AW4ModeState@1@XZ	; ioPlayMode::GetModeState
; Function compile flags: /Ogsp
;	COMDAT ?GetModeState@ioPlayMode@@QBE?AW4ModeState@1@XZ
_TEXT	SEGMENT
?GetModeState@ioPlayMode@@QBE?AW4ModeState@1@XZ PROC	; ioPlayMode::GetModeState, COMDAT
; _this$ = ecx

; 632  : 	inline ModeState GetModeState() const { return m_ModeState; }

  00000	8b 41 38	 mov	 eax, DWORD PTR [ecx+56]
  00003	c3		 ret	 0
?GetModeState@ioPlayMode@@QBE?AW4ModeState@1@XZ ENDP	; ioPlayMode::GetModeState
_TEXT	ENDS
PUBLIC	?IsNoneUIMode@ioSP2GUIManager@@QBE_NXZ		; ioSP2GUIManager::IsNoneUIMode
; Function compile flags: /Ogsp
; File d:\lost saga for developer\youtube\tutorial\source\src\lsclient\gui\iosp2guimanager.h
;	COMDAT ?IsNoneUIMode@ioSP2GUIManager@@QBE_NXZ
_TEXT	SEGMENT
?IsNoneUIMode@ioSP2GUIManager@@QBE_NXZ PROC		; ioSP2GUIManager::IsNoneUIMode, COMDAT
; _this$ = ecx

; 237  : 	inline bool IsNoneUIMode() const { return m_bNoneUIMode; }

  00000	8a 81 e1 04 00
	00		 mov	 al, BYTE PTR [ecx+1249]
  00006	c3		 ret	 0
?IsNoneUIMode@ioSP2GUIManager@@QBE_NXZ ENDP		; ioSP2GUIManager::IsNoneUIMode
_TEXT	ENDS
PUBLIC	??_7?$CEncrypt@M@@6B@				; CEncrypt<float>::`vftable'
PUBLIC	??1?$CEncrypt@M@@UAE@XZ				; CEncrypt<float>::~CEncrypt<float>
PUBLIC	??_R4?$CEncrypt@M@@6B@				; CEncrypt<float>::`RTTI Complete Object Locator'
PUBLIC	??_R0?AV?$CEncrypt@M@@@8			; CEncrypt<float> `RTTI Type Descriptor'
PUBLIC	??_R3?$CEncrypt@M@@8				; CEncrypt<float>::`RTTI Class Hierarchy Descriptor'
PUBLIC	??_R2?$CEncrypt@M@@8				; CEncrypt<float>::`RTTI Base Class Array'
PUBLIC	??_R1A@?0A@EA@?$CEncrypt@M@@8			; CEncrypt<float>::`RTTI Base Class Descriptor at (0,-1,0,64)'
EXTRN	??1ccddaabb@@UAE@XZ:PROC			; ccddaabb::~ccddaabb
EXTRN	??_7type_info@@6B@:QWORD			; type_info::`vftable'
EXTRN	??_E?$CEncrypt@M@@UAEPAXI@Z:PROC		; CEncrypt<float>::`vector deleting destructor'
;	COMDAT ??_R1A@?0A@EA@?$CEncrypt@M@@8
; File d:\lost saga for developer\youtube\tutorial\source\src\lsclient\encryptvalue.h
rdata$r	SEGMENT
??_R1A@?0A@EA@?$CEncrypt@M@@8 DD FLAT:??_R0?AV?$CEncrypt@M@@@8 ; CEncrypt<float>::`RTTI Base Class Descriptor at (0,-1,0,64)'
	DD	00H
	DD	00H
	DD	0ffffffffH
	DD	00H
	DD	040H
	DD	FLAT:??_R3?$CEncrypt@M@@8
rdata$r	ENDS
;	COMDAT ??_R2?$CEncrypt@M@@8
rdata$r	SEGMENT
??_R2?$CEncrypt@M@@8 DD FLAT:??_R1A@?0A@EA@?$CEncrypt@M@@8 ; CEncrypt<float>::`RTTI Base Class Array'
rdata$r	ENDS
;	COMDAT ??_R3?$CEncrypt@M@@8
rdata$r	SEGMENT
??_R3?$CEncrypt@M@@8 DD 00H				; CEncrypt<float>::`RTTI Class Hierarchy Descriptor'
	DD	00H
	DD	01H
	DD	FLAT:??_R2?$CEncrypt@M@@8
rdata$r	ENDS
;	COMDAT ??_R0?AV?$CEncrypt@M@@@8
_DATA	SEGMENT
??_R0?AV?$CEncrypt@M@@@8 DD FLAT:??_7type_info@@6B@	; CEncrypt<float> `RTTI Type Descriptor'
	DD	00H
	DB	'.?AV?$CEncrypt@M@@', 00H
_DATA	ENDS
;	COMDAT ??_R4?$CEncrypt@M@@6B@
rdata$r	SEGMENT
??_R4?$CEncrypt@M@@6B@ DD 00H				; CEncrypt<float>::`RTTI Complete Object Locator'
	DD	00H
	DD	00H
	DD	FLAT:??_R0?AV?$CEncrypt@M@@@8
	DD	FLAT:??_R3?$CEncrypt@M@@8
rdata$r	ENDS
;	COMDAT ??_7?$CEncrypt@M@@6B@
CONST	SEGMENT
??_7?$CEncrypt@M@@6B@ DD FLAT:??_R4?$CEncrypt@M@@6B@	; CEncrypt<float>::`vftable'
	DD	FLAT:??_E?$CEncrypt@M@@UAEPAXI@Z
; Function compile flags: /Ogsp
CONST	ENDS
;	COMDAT ??1?$CEncrypt@M@@UAE@XZ
_TEXT	SEGMENT
??1?$CEncrypt@M@@UAE@XZ PROC				; CEncrypt<float>::~CEncrypt<float>, COMDAT
; _this$ = ecx

; 127  : 	{

  00000	c7 01 00 00 00
	00		 mov	 DWORD PTR [ecx], OFFSET ??_7?$CEncrypt@M@@6B@

; 128  : 	}

  00006	83 c1 0c	 add	 ecx, 12			; 0000000cH
  00009	e9 00 00 00 00	 jmp	 ??1ccddaabb@@UAE@XZ	; ccddaabb::~ccddaabb
??1?$CEncrypt@M@@UAE@XZ ENDP				; CEncrypt<float>::~CEncrypt<float>
_TEXT	ENDS
PUBLIC	??_7?$CEncrypt@K@@6B@				; CEncrypt<unsigned long>::`vftable'
PUBLIC	??1?$CEncrypt@K@@UAE@XZ				; CEncrypt<unsigned long>::~CEncrypt<unsigned long>
PUBLIC	??_R4?$CEncrypt@K@@6B@				; CEncrypt<unsigned long>::`RTTI Complete Object Locator'
PUBLIC	??_R0?AV?$CEncrypt@K@@@8			; CEncrypt<unsigned long> `RTTI Type Descriptor'
PUBLIC	??_R3?$CEncrypt@K@@8				; CEncrypt<unsigned long>::`RTTI Class Hierarchy Descriptor'
PUBLIC	??_R2?$CEncrypt@K@@8				; CEncrypt<unsigned long>::`RTTI Base Class Array'
PUBLIC	??_R1A@?0A@EA@?$CEncrypt@K@@8			; CEncrypt<unsigned long>::`RTTI Base Class Descriptor at (0,-1,0,64)'
EXTRN	??_E?$CEncrypt@K@@UAEPAXI@Z:PROC		; CEncrypt<unsigned long>::`vector deleting destructor'
;	COMDAT ??_R1A@?0A@EA@?$CEncrypt@K@@8
rdata$r	SEGMENT
??_R1A@?0A@EA@?$CEncrypt@K@@8 DD FLAT:??_R0?AV?$CEncrypt@K@@@8 ; CEncrypt<unsigned long>::`RTTI Base Class Descriptor at (0,-1,0,64)'
	DD	00H
	DD	00H
	DD	0ffffffffH
	DD	00H
	DD	040H
	DD	FLAT:??_R3?$CEncrypt@K@@8
rdata$r	ENDS
;	COMDAT ??_R2?$CEncrypt@K@@8
rdata$r	SEGMENT
??_R2?$CEncrypt@K@@8 DD FLAT:??_R1A@?0A@EA@?$CEncrypt@K@@8 ; CEncrypt<unsigned long>::`RTTI Base Class Array'
rdata$r	ENDS
;	COMDAT ??_R3?$CEncrypt@K@@8
rdata$r	SEGMENT
??_R3?$CEncrypt@K@@8 DD 00H				; CEncrypt<unsigned long>::`RTTI Class Hierarchy Descriptor'
	DD	00H
	DD	01H
	DD	FLAT:??_R2?$CEncrypt@K@@8
rdata$r	ENDS
;	COMDAT ??_R0?AV?$CEncrypt@K@@@8
_DATA	SEGMENT
??_R0?AV?$CEncrypt@K@@@8 DD FLAT:??_7type_info@@6B@	; CEncrypt<unsigned long> `RTTI Type Descriptor'
	DD	00H
	DB	'.?AV?$CEncrypt@K@@', 00H
_DATA	ENDS
;	COMDAT ??_R4?$CEncrypt@K@@6B@
rdata$r	SEGMENT
??_R4?$CEncrypt@K@@6B@ DD 00H				; CEncrypt<unsigned long>::`RTTI Complete Object Locator'
	DD	00H
	DD	00H
	DD	FLAT:??_R0?AV?$CEncrypt@K@@@8
	DD	FLAT:??_R3?$CEncrypt@K@@8
rdata$r	ENDS
;	COMDAT ??_7?$CEncrypt@K@@6B@
CONST	SEGMENT
??_7?$CEncrypt@K@@6B@ DD FLAT:??_R4?$CEncrypt@K@@6B@	; CEncrypt<unsigned long>::`vftable'
	DD	FLAT:??_E?$CEncrypt@K@@UAEPAXI@Z
; Function compile flags: /Ogsp
CONST	ENDS
;	COMDAT ??1?$CEncrypt@K@@UAE@XZ
_TEXT	SEGMENT
??1?$CEncrypt@K@@UAE@XZ PROC				; CEncrypt<unsigned long>::~CEncrypt<unsigned long>, COMDAT
; _this$ = ecx

; 127  : 	{

  00000	c7 01 00 00 00
	00		 mov	 DWORD PTR [ecx], OFFSET ??_7?$CEncrypt@K@@6B@

; 128  : 	}

  00006	83 c1 0c	 add	 ecx, 12			; 0000000cH
  00009	e9 00 00 00 00	 jmp	 ??1ccddaabb@@UAE@XZ	; ccddaabb::~ccddaabb
??1?$CEncrypt@K@@UAE@XZ ENDP				; CEncrypt<unsigned long>::~CEncrypt<unsigned long>
; Function compile flags: /Ogsp
_TEXT	ENDS
;	COMDAT ??_G?$CEncrypt@M@@UAEPAXI@Z
_TEXT	SEGMENT
___flags$ = 8						; size = 4
??_G?$CEncrypt@M@@UAEPAXI@Z PROC			; CEncrypt<float>::`scalar deleting destructor', COMDAT
; _this$ = ecx
  00000	55		 push	 ebp
  00001	8b ec		 mov	 ebp, esp
  00003	56		 push	 esi
  00004	8b f1		 mov	 esi, ecx
  00006	8d 4e 0c	 lea	 ecx, DWORD PTR [esi+12]
  00009	c7 06 00 00 00
	00		 mov	 DWORD PTR [esi], OFFSET ??_7?$CEncrypt@M@@6B@
  0000f	e8 00 00 00 00	 call	 ??1ccddaabb@@UAE@XZ	; ccddaabb::~ccddaabb
  00014	f6 45 08 01	 test	 BYTE PTR ___flags$[ebp], 1
  00018	74 07		 je	 SHORT $LN1@scalar@2
  0001a	56		 push	 esi
  0001b	e8 00 00 00 00	 call	 ??3@YAXPAX@Z		; operator delete
  00020	59		 pop	 ecx
$LN1@scalar@2:
  00021	8b c6		 mov	 eax, esi
  00023	5e		 pop	 esi
  00024	5d		 pop	 ebp
  00025	c2 04 00	 ret	 4
??_G?$CEncrypt@M@@UAEPAXI@Z ENDP			; CEncrypt<float>::`scalar deleting destructor'
; Function compile flags: /Ogsp
_TEXT	ENDS
;	COMDAT ??_G?$CEncrypt@K@@UAEPAXI@Z
_TEXT	SEGMENT
___flags$ = 8						; size = 4
??_G?$CEncrypt@K@@UAEPAXI@Z PROC			; CEncrypt<unsigned long>::`scalar deleting destructor', COMDAT
; _this$ = ecx
  00000	55		 push	 ebp
  00001	8b ec		 mov	 ebp, esp
  00003	56		 push	 esi
  00004	8b f1		 mov	 esi, ecx
  00006	8d 4e 0c	 lea	 ecx, DWORD PTR [esi+12]
  00009	c7 06 00 00 00
	00		 mov	 DWORD PTR [esi], OFFSET ??_7?$CEncrypt@K@@6B@
  0000f	e8 00 00 00 00	 call	 ??1ccddaabb@@UAE@XZ	; ccddaabb::~ccddaabb
  00014	f6 45 08 01	 test	 BYTE PTR ___flags$[ebp], 1
  00018	74 07		 je	 SHORT $LN1@scalar@3
  0001a	56		 push	 esi
  0001b	e8 00 00 00 00	 call	 ??3@YAXPAX@Z		; operator delete
  00020	59		 pop	 ecx
$LN1@scalar@3:
  00021	8b c6		 mov	 eax, esi
  00023	5e		 pop	 esi
  00024	5d		 pop	 ebp
  00025	c2 04 00	 ret	 4
??_G?$CEncrypt@K@@UAEPAXI@Z ENDP			; CEncrypt<unsigned long>::`scalar deleting destructor'
_TEXT	ENDS
PUBLIC	?EncryptValueToPool@?$CEncrypt@M@@AAEXPBD@Z	; CEncrypt<float>::EncryptValueToPool
EXTRN	?EncryptByte@ccddaabb@@QAEXPBDPADH@Z:PROC	; ccddaabb::EncryptByte
; Function compile flags: /Ogsp
;	COMDAT ?EncryptValueToPool@?$CEncrypt@M@@AAEXPBD@Z
_TEXT	SEGMENT
_value$ = 8						; size = 4
?EncryptValueToPool@?$CEncrypt@M@@AAEXPBD@Z PROC	; CEncrypt<float>::EncryptValueToPool, COMDAT
; _this$ = ecx

; 67   : 	{

  00000	55		 push	 ebp
  00001	8b ec		 mov	 ebp, esp

; 68   : 		m_RC5.EncryptByte( value, m_MemPool, max(m_ValueSize, DEFAULT_ENCRYPT) );

  00003	0f b7 41 06	 movzx	 eax, WORD PTR [ecx+6]
  00007	83 f8 04	 cmp	 eax, 4
  0000a	77 03		 ja	 SHORT $LN4@EncryptVal
  0000c	6a 04		 push	 4
  0000e	58		 pop	 eax
$LN4@EncryptVal:
  0000f	50		 push	 eax
  00010	8d 41 1c	 lea	 eax, DWORD PTR [ecx+28]
  00013	50		 push	 eax
  00014	ff 75 08	 push	 DWORD PTR _value$[ebp]
  00017	83 c1 0c	 add	 ecx, 12			; 0000000cH
  0001a	e8 00 00 00 00	 call	 ?EncryptByte@ccddaabb@@QAEXPBDPADH@Z ; ccddaabb::EncryptByte

; 69   : 		
; 70   : 	}

  0001f	5d		 pop	 ebp
  00020	c2 04 00	 ret	 4
?EncryptValueToPool@?$CEncrypt@M@@AAEXPBD@Z ENDP	; CEncrypt<float>::EncryptValueToPool
_TEXT	ENDS
PUBLIC	?Init@?$CEncrypt@M@@AAEXXZ			; CEncrypt<float>::Init
EXTRN	?Setup@ccddaabb@@QAEXPBDHH@Z:PROC		; ccddaabb::Setup
EXTRN	__imp__rand:PROC
EXTRN	__imp__timeGetTime@0:PROC
EXTRN	__imp__GetCurrentProcessId@0:PROC
; Function compile flags: /Ogsp
;	COMDAT ?Init@?$CEncrypt@M@@AAEXXZ
_TEXT	SEGMENT
_pid$ = -8						; size = 4
_tick$ = -4						; size = 4
?Init@?$CEncrypt@M@@AAEXXZ PROC				; CEncrypt<float>::Init, COMDAT
; _this$ = ecx

; 73   : 	{

  00000	55		 push	 ebp
  00001	8b ec		 mov	 ebp, esp
  00003	51		 push	 ecx
  00004	51		 push	 ecx
  00005	53		 push	 ebx
  00006	56		 push	 esi
  00007	57		 push	 edi
  00008	8b f1		 mov	 esi, ecx

; 74   : 		DWORD pid = GetCurrentProcessId();

  0000a	ff 15 00 00 00
	00		 call	 DWORD PTR __imp__GetCurrentProcessId@0
  00010	89 45 f8	 mov	 DWORD PTR _pid$[ebp], eax

; 75   : 		DWORD tick = timeGetTime();

  00013	ff 15 00 00 00
	00		 call	 DWORD PTR __imp__timeGetTime@0

; 76   : 		m_ValueSize    = sizeof(type);
; 77   : 		m_MemPoolPos   = (unsigned short)( rand()+pid+tick )%(MAX_MEM_POOL-m_ValueSize);

  00019	8b 3d 00 00 00
	00		 mov	 edi, DWORD PTR __imp__rand
  0001f	89 45 fc	 mov	 DWORD PTR _tick$[ebp], eax
  00022	6a 04		 push	 4
  00024	58		 pop	 eax
  00025	66 89 46 06	 mov	 WORD PTR [esi+6], ax
  00029	ff d7		 call	 edi
  0002b	03 45 f8	 add	 eax, DWORD PTR _pid$[ebp]
  0002e	0f b7 4e 06	 movzx	 ecx, WORD PTR [esi+6]
  00032	03 45 fc	 add	 eax, DWORD PTR _tick$[ebp]
  00035	6a 0c		 push	 12			; 0000000cH
  00037	0f b7 c0	 movzx	 eax, ax
  0003a	5b		 pop	 ebx
  0003b	99		 cdq
  0003c	2b d9		 sub	 ebx, ecx
  0003e	f7 fb		 idiv	 ebx
  00040	66 89 56 04	 mov	 WORD PTR [esi+4], dx

; 78   : 		m_EncryptSeed  = (char)( rand()+pid+tick )%256;

  00044	ff d7		 call	 edi
  00046	02 45 f8	 add	 al, BYTE PTR _pid$[ebp]
  00049	02 45 fc	 add	 al, BYTE PTR _tick$[ebp]
  0004c	0f be c0	 movsx	 eax, al
  0004f	25 ff 00 00 80	 and	 eax, -2147483393	; 800000ffH
  00054	79 07		 jns	 SHORT $LN8@Init
  00056	48		 dec	 eax
  00057	0d 00 ff ff ff	 or	 eax, -256		; ffffff00H
  0005c	40		 inc	 eax
$LN8@Init:
  0005d	88 46 08	 mov	 BYTE PTR [esi+8], al

; 79   : 
; 80   : 		for (int i = 0; i < MAX_MEM_POOL ; i++)

  00060	33 db		 xor	 ebx, ebx
$LL3@Init:

; 81   : 			m_MemPool[i] = (char)( rand()+pid+tick )%256; // 

  00062	ff d7		 call	 edi
  00064	02 45 f8	 add	 al, BYTE PTR _pid$[ebp]
  00067	02 45 fc	 add	 al, BYTE PTR _tick$[ebp]
  0006a	0f be c0	 movsx	 eax, al
  0006d	25 ff 00 00 80	 and	 eax, -2147483393	; 800000ffH
  00072	79 07		 jns	 SHORT $LN9@Init
  00074	48		 dec	 eax
  00075	0d 00 ff ff ff	 or	 eax, -256		; ffffff00H
  0007a	40		 inc	 eax
$LN9@Init:
  0007b	88 44 1e 1c	 mov	 BYTE PTR [esi+ebx+28], al
  0007f	43		 inc	 ebx
  00080	83 fb 0c	 cmp	 ebx, 12			; 0000000cH
  00083	7c dd		 jl	 SHORT $LL3@Init

; 82   : 
; 83   : 		//UJ 130913, : szKey  
; 84   : 		//char szKey[ccddaabb::KEY_SIZE];//="";
; 85   : 		//for (int i = 0; i < ccddaabb::KEY_SIZE  ; i++)
; 86   : 		//	szKey[i] = (char)( rand()+pid+tick )%256; // 
; 87   : 		m_RC5.Setup( NULL, pid, tick );

  00085	ff 75 fc	 push	 DWORD PTR _tick$[ebp]
  00088	8d 4e 0c	 lea	 ecx, DWORD PTR [esi+12]
  0008b	ff 75 f8	 push	 DWORD PTR _pid$[ebp]
  0008e	6a 00		 push	 0
  00090	e8 00 00 00 00	 call	 ?Setup@ccddaabb@@QAEXPBDHH@Z ; ccddaabb::Setup
  00095	5f		 pop	 edi
  00096	5e		 pop	 esi
  00097	5b		 pop	 ebx

; 88   : 
; 89   : #ifdef _NOTUSE
; 90   : 		m_value        = 0;
; 91   : 		EncryptValueToPool((char*)&m_value);
; 92   : 		Debug();
; 93   : #endif
; 94   : 	}

  00098	c9		 leave
  00099	c3		 ret	 0
?Init@?$CEncrypt@M@@AAEXXZ ENDP				; CEncrypt<float>::Init
_TEXT	ENDS
PUBLIC	?DecryptValueToPool@?$CEncrypt@M@@QAEXPAM@Z	; CEncrypt<float>::DecryptValueToPool
EXTRN	?DecryptByte@ccddaabb@@QBEXPBDPADH@Z:PROC	; ccddaabb::DecryptByte
; Function compile flags: /Ogsp
;	COMDAT ?DecryptValueToPool@?$CEncrypt@M@@QAEXPAM@Z
_TEXT	SEGMENT
_value$ = 8						; size = 4
?DecryptValueToPool@?$CEncrypt@M@@QAEXPAM@Z PROC	; CEncrypt<float>::DecryptValueToPool, COMDAT
; _this$ = ecx

; 1648 : 	{

  00000	55		 push	 ebp
  00001	8b ec		 mov	 ebp, esp
  00003	56		 push	 esi

; 1649 : 		m_RC5.DecryptByte( m_MemPool, m_TempMem, 4 );

  00004	8d 71 28	 lea	 esi, DWORD PTR [ecx+40]
  00007	6a 04		 push	 4
  00009	8d 41 1c	 lea	 eax, DWORD PTR [ecx+28]
  0000c	56		 push	 esi
  0000d	50		 push	 eax
  0000e	83 c1 0c	 add	 ecx, 12			; 0000000cH
  00011	e8 00 00 00 00	 call	 ?DecryptByte@ccddaabb@@QBEXPBDPADH@Z ; ccddaabb::DecryptByte

; 1650 : 		*value = *((float*)m_TempMem);

  00016	d9 06		 fld	 DWORD PTR [esi]
  00018	8b 45 08	 mov	 eax, DWORD PTR _value$[ebp]
  0001b	d9 18		 fstp	 DWORD PTR [eax]
  0001d	5e		 pop	 esi

; 1651 : 	}

  0001e	5d		 pop	 ebp
  0001f	c2 04 00	 ret	 4
?DecryptValueToPool@?$CEncrypt@M@@QAEXPAM@Z ENDP	; CEncrypt<float>::DecryptValueToPool
_TEXT	ENDS
PUBLIC	?EncryptValueToPool@?$CEncrypt@K@@AAEXPBD@Z	; CEncrypt<unsigned long>::EncryptValueToPool
; Function compile flags: /Ogsp
;	COMDAT ?EncryptValueToPool@?$CEncrypt@K@@AAEXPBD@Z
_TEXT	SEGMENT
_value$ = 8						; size = 4
?EncryptValueToPool@?$CEncrypt@K@@AAEXPBD@Z PROC	; CEncrypt<unsigned long>::EncryptValueToPool, COMDAT
; _this$ = ecx

; 67   : 	{

  00000	55		 push	 ebp
  00001	8b ec		 mov	 ebp, esp

; 68   : 		m_RC5.EncryptByte( value, m_MemPool, max(m_ValueSize, DEFAULT_ENCRYPT) );

  00003	0f b7 41 06	 movzx	 eax, WORD PTR [ecx+6]
  00007	83 f8 04	 cmp	 eax, 4
  0000a	77 03		 ja	 SHORT $LN4@EncryptVal@2
  0000c	6a 04		 push	 4
  0000e	58		 pop	 eax
$LN4@EncryptVal@2:
  0000f	50		 push	 eax
  00010	8d 41 1c	 lea	 eax, DWORD PTR [ecx+28]
  00013	50		 push	 eax
  00014	ff 75 08	 push	 DWORD PTR _value$[ebp]
  00017	83 c1 0c	 add	 ecx, 12			; 0000000cH
  0001a	e8 00 00 00 00	 call	 ?EncryptByte@ccddaabb@@QAEXPBDPADH@Z ; ccddaabb::EncryptByte

; 69   : 		
; 70   : 	}

  0001f	5d		 pop	 ebp
  00020	c2 04 00	 ret	 4
?EncryptValueToPool@?$CEncrypt@K@@AAEXPBD@Z ENDP	; CEncrypt<unsigned long>::EncryptValueToPool
_TEXT	ENDS
PUBLIC	?Init@?$CEncrypt@K@@AAEXXZ			; CEncrypt<unsigned long>::Init
; Function compile flags: /Ogsp
;	COMDAT ?Init@?$CEncrypt@K@@AAEXXZ
_TEXT	SEGMENT
_pid$ = -8						; size = 4
_tick$ = -4						; size = 4
?Init@?$CEncrypt@K@@AAEXXZ PROC				; CEncrypt<unsigned long>::Init, COMDAT
; _this$ = ecx

; 73   : 	{

  00000	55		 push	 ebp
  00001	8b ec		 mov	 ebp, esp
  00003	51		 push	 ecx
  00004	51		 push	 ecx
  00005	53		 push	 ebx
  00006	56		 push	 esi
  00007	57		 push	 edi
  00008	8b f1		 mov	 esi, ecx

; 74   : 		DWORD pid = GetCurrentProcessId();

  0000a	ff 15 00 00 00
	00		 call	 DWORD PTR __imp__GetCurrentProcessId@0
  00010	89 45 f8	 mov	 DWORD PTR _pid$[ebp], eax

; 75   : 		DWORD tick = timeGetTime();

  00013	ff 15 00 00 00
	00		 call	 DWORD PTR __imp__timeGetTime@0

; 76   : 		m_ValueSize    = sizeof(type);
; 77   : 		m_MemPoolPos   = (unsigned short)( rand()+pid+tick )%(MAX_MEM_POOL-m_ValueSize);

  00019	8b 3d 00 00 00
	00		 mov	 edi, DWORD PTR __imp__rand
  0001f	89 45 fc	 mov	 DWORD PTR _tick$[ebp], eax
  00022	6a 04		 push	 4
  00024	58		 pop	 eax
  00025	66 89 46 06	 mov	 WORD PTR [esi+6], ax
  00029	ff d7		 call	 edi
  0002b	03 45 f8	 add	 eax, DWORD PTR _pid$[ebp]
  0002e	0f b7 4e 06	 movzx	 ecx, WORD PTR [esi+6]
  00032	03 45 fc	 add	 eax, DWORD PTR _tick$[ebp]
  00035	6a 0c		 push	 12			; 0000000cH
  00037	0f b7 c0	 movzx	 eax, ax
  0003a	5b		 pop	 ebx
  0003b	99		 cdq
  0003c	2b d9		 sub	 ebx, ecx
  0003e	f7 fb		 idiv	 ebx
  00040	66 89 56 04	 mov	 WORD PTR [esi+4], dx

; 78   : 		m_EncryptSeed  = (char)( rand()+pid+tick )%256;

  00044	ff d7		 call	 edi
  00046	02 45 f8	 add	 al, BYTE PTR _pid$[ebp]
  00049	02 45 fc	 add	 al, BYTE PTR _tick$[ebp]
  0004c	0f be c0	 movsx	 eax, al
  0004f	25 ff 00 00 80	 and	 eax, -2147483393	; 800000ffH
  00054	79 07		 jns	 SHORT $LN8@Init@2
  00056	48		 dec	 eax
  00057	0d 00 ff ff ff	 or	 eax, -256		; ffffff00H
  0005c	40		 inc	 eax
$LN8@Init@2:
  0005d	88 46 08	 mov	 BYTE PTR [esi+8], al

; 79   : 
; 80   : 		for (int i = 0; i < MAX_MEM_POOL ; i++)

  00060	33 db		 xor	 ebx, ebx
$LL3@Init@2:

; 81   : 			m_MemPool[i] = (char)( rand()+pid+tick )%256; // 

  00062	ff d7		 call	 edi
  00064	02 45 f8	 add	 al, BYTE PTR _pid$[ebp]
  00067	02 45 fc	 add	 al, BYTE PTR _tick$[ebp]
  0006a	0f be c0	 movsx	 eax, al
  0006d	25 ff 00 00 80	 and	 eax, -2147483393	; 800000ffH
  00072	79 07		 jns	 SHORT $LN9@Init@2
  00074	48		 dec	 eax
  00075	0d 00 ff ff ff	 or	 eax, -256		; ffffff00H
  0007a	40		 inc	 eax
$LN9@Init@2:
  0007b	88 44 1e 1c	 mov	 BYTE PTR [esi+ebx+28], al
  0007f	43		 inc	 ebx
  00080	83 fb 0c	 cmp	 ebx, 12			; 0000000cH
  00083	7c dd		 jl	 SHORT $LL3@Init@2

; 82   : 
; 83   : 		//UJ 130913, : szKey  
; 84   : 		//char szKey[ccddaabb::KEY_SIZE];//="";
; 85   : 		//for (int i = 0; i < ccddaabb::KEY_SIZE  ; i++)
; 86   : 		//	szKey[i] = (char)( rand()+pid+tick )%256; // 
; 87   : 		m_RC5.Setup( NULL, pid, tick );

  00085	ff 75 fc	 push	 DWORD PTR _tick$[ebp]
  00088	8d 4e 0c	 lea	 ecx, DWORD PTR [esi+12]
  0008b	ff 75 f8	 push	 DWORD PTR _pid$[ebp]
  0008e	6a 00		 push	 0
  00090	e8 00 00 00 00	 call	 ?Setup@ccddaabb@@QAEXPBDHH@Z ; ccddaabb::Setup
  00095	5f		 pop	 edi
  00096	5e		 pop	 esi
  00097	5b		 pop	 ebx

; 88   : 
; 89   : #ifdef _NOTUSE
; 90   : 		m_value        = 0;
; 91   : 		EncryptValueToPool((char*)&m_value);
; 92   : 		Debug();
; 93   : #endif
; 94   : 	}

  00098	c9		 leave
  00099	c3		 ret	 0
?Init@?$CEncrypt@K@@AAEXXZ ENDP				; CEncrypt<unsigned long>::Init
_TEXT	ENDS
PUBLIC	?DecryptValueToPool@?$CEncrypt@K@@QAEXPAK@Z	; CEncrypt<unsigned long>::DecryptValueToPool
; Function compile flags: /Ogsp
;	COMDAT ?DecryptValueToPool@?$CEncrypt@K@@QAEXPAK@Z
_TEXT	SEGMENT
_value$ = 8						; size = 4
?DecryptValueToPool@?$CEncrypt@K@@QAEXPAK@Z PROC	; CEncrypt<unsigned long>::DecryptValueToPool, COMDAT
; _this$ = ecx

; 1256 : 	{

  00000	55		 push	 ebp
  00001	8b ec		 mov	 ebp, esp
  00003	56		 push	 esi

; 1257 : 		m_RC5.DecryptByte( m_MemPool, m_TempMem, 4 );

  00004	8d 71 28	 lea	 esi, DWORD PTR [ecx+40]
  00007	6a 04		 push	 4
  00009	8d 41 1c	 lea	 eax, DWORD PTR [ecx+28]
  0000c	56		 push	 esi
  0000d	50		 push	 eax
  0000e	83 c1 0c	 add	 ecx, 12			; 0000000cH
  00011	e8 00 00 00 00	 call	 ?DecryptByte@ccddaabb@@QBEXPBDPADH@Z ; ccddaabb::DecryptByte

; 1258 : 		*value = *((DWORD*)m_TempMem);

  00016	8b 06		 mov	 eax, DWORD PTR [esi]
  00018	8b 4d 08	 mov	 ecx, DWORD PTR _value$[ebp]
  0001b	89 01		 mov	 DWORD PTR [ecx], eax
  0001d	5e		 pop	 esi

; 1259 : 	}

  0001e	5d		 pop	 ebp
  0001f	c2 04 00	 ret	 4
?DecryptValueToPool@?$CEncrypt@K@@QAEXPAK@Z ENDP	; CEncrypt<unsigned long>::DecryptValueToPool
_TEXT	ENDS
PUBLIC	?DecryptValueToPool@?$CEncrypt@_N@@QAEXPA_N@Z	; CEncrypt<bool>::DecryptValueToPool
; Function compile flags: /Ogsp
;	COMDAT ?DecryptValueToPool@?$CEncrypt@_N@@QAEXPA_N@Z
_TEXT	SEGMENT
_value$ = 8						; size = 4
?DecryptValueToPool@?$CEncrypt@_N@@QAEXPA_N@Z PROC	; CEncrypt<bool>::DecryptValueToPool, COMDAT
; _this$ = ecx

; 219  : 	{

  00000	55		 push	 ebp
  00001	8b ec		 mov	 ebp, esp
  00003	56		 push	 esi

; 220  : 		m_RC5.DecryptByte( m_MemPool, m_TempMem, 4 );

  00004	8d 71 28	 lea	 esi, DWORD PTR [ecx+40]
  00007	6a 04		 push	 4
  00009	8d 41 1c	 lea	 eax, DWORD PTR [ecx+28]
  0000c	56		 push	 esi
  0000d	50		 push	 eax
  0000e	83 c1 0c	 add	 ecx, 12			; 0000000cH
  00011	e8 00 00 00 00	 call	 ?DecryptByte@ccddaabb@@QBEXPBDPADH@Z ; ccddaabb::DecryptByte

; 221  : 		*value = *((bool*)m_TempMem);

  00016	8a 06		 mov	 al, BYTE PTR [esi]
  00018	8b 4d 08	 mov	 ecx, DWORD PTR _value$[ebp]
  0001b	88 01		 mov	 BYTE PTR [ecx], al
  0001d	5e		 pop	 esi

; 222  : 	}

  0001e	5d		 pop	 ebp
  0001f	c2 04 00	 ret	 4
?DecryptValueToPool@?$CEncrypt@_N@@QAEXPA_N@Z ENDP	; CEncrypt<bool>::DecryptValueToPool
_TEXT	ENDS
PUBLIC	?DecryptValueToPool@?$CEncrypt@H@@QAEXPAH@Z	; CEncrypt<int>::DecryptValueToPool
; Function compile flags: /Ogsp
;	COMDAT ?DecryptValueToPool@?$CEncrypt@H@@QAEXPAH@Z
_TEXT	SEGMENT
_value$ = 8						; size = 4
?DecryptValueToPool@?$CEncrypt@H@@QAEXPAH@Z PROC	; CEncrypt<int>::DecryptValueToPool, COMDAT
; _this$ = ecx

; 837  : 	{

  00000	55		 push	 ebp
  00001	8b ec		 mov	 ebp, esp
  00003	56		 push	 esi

; 838  : 		m_RC5.DecryptByte( m_MemPool, m_TempMem, 4 );

  00004	8d 71 28	 lea	 esi, DWORD PTR [ecx+40]
  00007	6a 04		 push	 4
  00009	8d 41 1c	 lea	 eax, DWORD PTR [ecx+28]
  0000c	56		 push	 esi
  0000d	50		 push	 eax
  0000e	83 c1 0c	 add	 ecx, 12			; 0000000cH
  00011	e8 00 00 00 00	 call	 ?DecryptByte@ccddaabb@@QBEXPBDPADH@Z ; ccddaabb::DecryptByte

; 839  : 		*value = *((int*)m_TempMem);

  00016	8b 06		 mov	 eax, DWORD PTR [esi]
  00018	8b 4d 08	 mov	 ecx, DWORD PTR _value$[ebp]
  0001b	89 01		 mov	 DWORD PTR [ecx], eax
  0001d	5e		 pop	 esi

; 840  : 	}

  0001e	5d		 pop	 ebp
  0001f	c2 04 00	 ret	 4
?DecryptValueToPool@?$CEncrypt@H@@QAEXPAH@Z ENDP	; CEncrypt<int>::DecryptValueToPool
_TEXT	ENDS
PUBLIC	?EncryptValueToPool@?$CEncrypt@W4TeamType@@@@AAEXPBD@Z ; CEncrypt<enum TeamType>::EncryptValueToPool
; Function compile flags: /Ogsp
;	COMDAT ?EncryptValueToPool@?$CEncrypt@W4TeamType@@@@AAEXPBD@Z
_TEXT	SEGMENT
_value$ = 8						; size = 4
?EncryptValueToPool@?$CEncrypt@W4TeamType@@@@AAEXPBD@Z PROC ; CEncrypt<enum TeamType>::EncryptValueToPool, COMDAT
; _this$ = ecx

; 67   : 	{

  00000	55		 push	 ebp
  00001	8b ec		 mov	 ebp, esp

; 68   : 		m_RC5.EncryptByte( value, m_MemPool, max(m_ValueSize, DEFAULT_ENCRYPT) );

  00003	0f b7 41 06	 movzx	 eax, WORD PTR [ecx+6]
  00007	83 f8 04	 cmp	 eax, 4
  0000a	77 03		 ja	 SHORT $LN4@EncryptVal@3
  0000c	6a 04		 push	 4
  0000e	58		 pop	 eax
$LN4@EncryptVal@3:
  0000f	50		 push	 eax
  00010	8d 41 1c	 lea	 eax, DWORD PTR [ecx+28]
  00013	50		 push	 eax
  00014	ff 75 08	 push	 DWORD PTR _value$[ebp]
  00017	83 c1 0c	 add	 ecx, 12			; 0000000cH
  0001a	e8 00 00 00 00	 call	 ?EncryptByte@ccddaabb@@QAEXPBDPADH@Z ; ccddaabb::EncryptByte

; 69   : 		
; 70   : 	}

  0001f	5d		 pop	 ebp
  00020	c2 04 00	 ret	 4
?EncryptValueToPool@?$CEncrypt@W4TeamType@@@@AAEXPBD@Z ENDP ; CEncrypt<enum TeamType>::EncryptValueToPool
_TEXT	ENDS
PUBLIC	?DecryptValueToPool@?$CEncrypt@W4TeamType@@@@QAEXPAW4TeamType@@@Z ; CEncrypt<enum TeamType>::DecryptValueToPool
; Function compile flags: /Ogsp
;	COMDAT ?DecryptValueToPool@?$CEncrypt@W4TeamType@@@@QAEXPAW4TeamType@@@Z
_TEXT	SEGMENT
_value$ = 8						; size = 4
?DecryptValueToPool@?$CEncrypt@W4TeamType@@@@QAEXPAW4TeamType@@@Z PROC ; CEncrypt<enum TeamType>::DecryptValueToPool, COMDAT
; _this$ = ecx

; 2959 : 	{

  00000	55		 push	 ebp
  00001	8b ec		 mov	 ebp, esp
  00003	56		 push	 esi

; 2960 : 		m_RC5.DecryptByte( m_MemPool, m_TempMem, sizeof(TeamType) );

  00004	8d 71 28	 lea	 esi, DWORD PTR [ecx+40]
  00007	6a 04		 push	 4
  00009	8d 41 1c	 lea	 eax, DWORD PTR [ecx+28]
  0000c	56		 push	 esi
  0000d	50		 push	 eax
  0000e	83 c1 0c	 add	 ecx, 12			; 0000000cH
  00011	e8 00 00 00 00	 call	 ?DecryptByte@ccddaabb@@QBEXPBDPADH@Z ; ccddaabb::DecryptByte

; 2961 : 		*value = *((TeamType*)m_TempMem);

  00016	8b 06		 mov	 eax, DWORD PTR [esi]
  00018	8b 4d 08	 mov	 ecx, DWORD PTR _value$[ebp]
  0001b	89 01		 mov	 DWORD PTR [ecx], eax
  0001d	5e		 pop	 esi

; 2962 : 	}

  0001e	5d		 pop	 ebp
  0001f	c2 04 00	 ret	 4
?DecryptValueToPool@?$CEncrypt@W4TeamType@@@@QAEXPAW4TeamType@@@Z ENDP ; CEncrypt<enum TeamType>::DecryptValueToPool
_TEXT	ENDS
PUBLIC	?DecryptValueToPool@?$CEncrypt@W4ModeType@@@@QAEXPAW4ModeType@@@Z ; CEncrypt<enum ModeType>::DecryptValueToPool
; Function compile flags: /Ogsp
;	COMDAT ?DecryptValueToPool@?$CEncrypt@W4ModeType@@@@QAEXPAW4ModeType@@@Z
_TEXT	SEGMENT
_value$ = 8						; size = 4
?DecryptValueToPool@?$CEncrypt@W4ModeType@@@@QAEXPAW4ModeType@@@Z PROC ; CEncrypt<enum ModeType>::DecryptValueToPool, COMDAT
; _this$ = ecx

; 3039 : 	{

  00000	55		 push	 ebp
  00001	8b ec		 mov	 ebp, esp
  00003	56		 push	 esi

; 3040 : 		m_RC5.DecryptByte( m_MemPool, m_TempMem, sizeof(ModeType) );

  00004	8d 71 28	 lea	 esi, DWORD PTR [ecx+40]
  00007	6a 04		 push	 4
  00009	8d 41 1c	 lea	 eax, DWORD PTR [ecx+28]
  0000c	56		 push	 esi
  0000d	50		 push	 eax
  0000e	83 c1 0c	 add	 ecx, 12			; 0000000cH
  00011	e8 00 00 00 00	 call	 ?DecryptByte@ccddaabb@@QBEXPBDPADH@Z ; ccddaabb::DecryptByte

; 3041 : 		*value = *((ModeType*)m_TempMem);

  00016	8b 06		 mov	 eax, DWORD PTR [esi]
  00018	8b 4d 08	 mov	 ecx, DWORD PTR _value$[ebp]
  0001b	89 01		 mov	 DWORD PTR [ecx], eax
  0001d	5e		 pop	 esi

; 3042 : 	}

  0001e	5d		 pop	 ebp
  0001f	c2 04 00	 ret	 4
?DecryptValueToPool@?$CEncrypt@W4ModeType@@@@QAEXPAW4ModeType@@@Z ENDP ; CEncrypt<enum ModeType>::DecryptValueToPool
_TEXT	ENDS
PUBLIC	??_7ioSymbolStruct@@6B@				; ioSymbolStruct::`vftable'
PUBLIC	??1ioSymbolStruct@@UAE@XZ			; ioSymbolStruct::~ioSymbolStruct
PUBLIC	??_R4ioSymbolStruct@@6B@			; ioSymbolStruct::`RTTI Complete Object Locator'
PUBLIC	??_R0?AVioSymbolStruct@@@8			; ioSymbolStruct `RTTI Type Descriptor'
PUBLIC	??_R3ioSymbolStruct@@8				; ioSymbolStruct::`RTTI Class Hierarchy Descriptor'
PUBLIC	??_R2ioSymbolStruct@@8				; ioSymbolStruct::`RTTI Base Class Array'
PUBLIC	??_R1A@?0A@EA@ioSymbolStruct@@8			; ioSymbolStruct::`RTTI Base Class Descriptor at (0,-1,0,64)'
PUBLIC	??_R1A@?0A@EA@ioPlayEntity@@8			; ioPlayEntity::`RTTI Base Class Descriptor at (0,-1,0,64)'
PUBLIC	??_R0?AVioPlayEntity@@@8			; ioPlayEntity `RTTI Type Descriptor'
PUBLIC	??_R3ioPlayEntity@@8				; ioPlayEntity::`RTTI Class Hierarchy Descriptor'
PUBLIC	??_R2ioPlayEntity@@8				; ioPlayEntity::`RTTI Base Class Array'
PUBLIC	??_R1A@?0A@EA@ioGameEntity@@8			; ioGameEntity::`RTTI Base Class Descriptor at (0,-1,0,64)'
PUBLIC	??_R0?AVioGameEntity@@@8			; ioGameEntity `RTTI Type Descriptor'
PUBLIC	??_R3ioGameEntity@@8				; ioGameEntity::`RTTI Class Hierarchy Descriptor'
PUBLIC	??_R2ioGameEntity@@8				; ioGameEntity::`RTTI Base Class Array'
PUBLIC	??_R1A@?0A@EA@ioEntityEvent@@8			; ioEntityEvent::`RTTI Base Class Descriptor at (0,-1,0,64)'
PUBLIC	??_R0?AVioEntityEvent@@@8			; ioEntityEvent `RTTI Type Descriptor'
PUBLIC	??_R3ioEntityEvent@@8				; ioEntityEvent::`RTTI Class Hierarchy Descriptor'
PUBLIC	??_R2ioEntityEvent@@8				; ioEntityEvent::`RTTI Base Class Array'
PUBLIC	?Update@ioSymbolStruct@@UAEXMKK@Z		; ioSymbolStruct::Update
PUBLIC	?NeedUpdateBottomHeight@ioGameEntity@@UAEXXZ	; ioGameEntity::NeedUpdateBottomHeight
PUBLIC	?ApplyWeapon@ioSymbolStruct@@UAE?AW4ApplyWeaponExp@@PAVioWeapon@@@Z ; ioSymbolStruct::ApplyWeapon
PUBLIC	?LoadProperty@ioSymbolStruct@@UAEXAAVioINILoader@@@Z ; ioSymbolStruct::LoadProperty
PUBLIC	?Revival@ioSymbolStruct@@UAEXXZ			; ioSymbolStruct::Revival
PUBLIC	?UpdateGauge@ioSymbolStruct@@UAEXXZ		; ioSymbolStruct::UpdateGauge
PUBLIC	?RenderGauge@ioSymbolStruct@@UAEXXZ		; ioSymbolStruct::RenderGauge
PUBLIC	?ProcessRecovery@ioSymbolStruct@@MAEXXZ		; ioSymbolStruct::ProcessRecovery
PUBLIC	?SetTeam@ioSymbolStruct@@UAEXW4TeamType@@@Z	; ioSymbolStruct::SetTeam
EXTRN	??1ioPlayEntity@@UAE@XZ:PROC			; ioPlayEntity::~ioPlayEntity
EXTRN	__imp_??1ioHashString@@QAE@XZ:PROC
EXTRN	?AddEntityEvent@ioEntityEvent@@UAEXPAVioEntity@@@Z:PROC ; ioEntityEvent::AddEntityEvent
EXTRN	??_EioSymbolStruct@@UAEPAXI@Z:PROC		; ioSymbolStruct::`vector deleting destructor'
EXTRN	?GetTypeID@ioPlayEntity@@UBEHXZ:PROC		; ioPlayEntity::GetTypeID
EXTRN	?IsNeedCheckMapCollision@ioGameEntity@@UBE_NXZ:PROC ; ioGameEntity::IsNeedCheckMapCollision
EXTRN	?IsAllWeaponDefence@ioGameEntity@@UBE_NXZ:PROC	; ioGameEntity::IsAllWeaponDefence
EXTRN	?HasEntity@ioGameEntity@@UAE_NABVioHashString@@@Z:PROC ; ioGameEntity::HasEntity
EXTRN	?AddEntity@ioGameEntity@@UAEPAVioEntity@@ABVioHashString@@@Z:PROC ; ioGameEntity::AddEntity
EXTRN	?DestroyEntity@ioGameEntity@@UAE_NABVioHashString@@@Z:PROC ; ioGameEntity::DestroyEntity
EXTRN	?GetEntity@ioGameEntity@@UAEPAVioEntity@@ABVioHashString@@@Z:PROC ; ioGameEntity::GetEntity
EXTRN	?UpdateBound@ioGameEntity@@MBEXXZ:PROC		; ioGameEntity::UpdateBound
EXTRN	?SetWorldPosition@ioGameEntity@@UAEXABUD3DXVECTOR3@@@Z:PROC ; ioGameEntity::SetWorldPosition
EXTRN	?SetWorldOrientation@ioGameEntity@@UAEXABUD3DXQUATERNION@@@Z:PROC ; ioGameEntity::SetWorldOrientation
EXTRN	?SetWorldScale@ioGameEntity@@UAEXABUD3DXVECTOR3@@@Z:PROC ; ioGameEntity::SetWorldScale
EXTRN	?Translate@ioGameEntity@@UAEXABUD3DXVECTOR3@@@Z:PROC ; ioGameEntity::Translate
EXTRN	?TranslateByConveyer@ioGameEntity@@UAEXABUD3DXVECTOR3@@@Z:PROC ; ioGameEntity::TranslateByConveyer
EXTRN	?TranslateByWorldEntity@ioGameEntity@@UAEXABUD3DXVECTOR3@@@Z:PROC ; ioGameEntity::TranslateByWorldEntity
EXTRN	?MapCollisionPushingTranslate@ioGameEntity@@UAEXABUD3DXVECTOR3@@@Z:PROC ; ioGameEntity::MapCollisionPushingTranslate
EXTRN	?DontMoveCollisionPushingTranslate@ioGameEntity@@UAEXPAV1@ABUD3DXVECTOR3@@@Z:PROC ; ioGameEntity::DontMoveCollisionPushingTranslate
EXTRN	?Rotate@ioGameEntity@@UAEXABUD3DXVECTOR3@@MW4TransformSpace@ioNode@@@Z:PROC ; ioGameEntity::Rotate
EXTRN	?Scale@ioGameEntity@@UAEXMMM@Z:PROC		; ioGameEntity::Scale
EXTRN	?Scale@ioGameEntity@@UAEXABUD3DXVECTOR3@@@Z:PROC ; ioGameEntity::Scale
EXTRN	?GetWorldPosition@ioGameEntity@@UBEABUD3DXVECTOR3@@XZ:PROC ; ioGameEntity::GetWorldPosition
EXTRN	?GetWorldOrientation@ioGameEntity@@UBEABUD3DXQUATERNION@@XZ:PROC ; ioGameEntity::GetWorldOrientation
EXTRN	?GetWorldScale@ioGameEntity@@UBEABUD3DXVECTOR3@@XZ:PROC ; ioGameEntity::GetWorldScale
EXTRN	?IsCollisionAvailableRange@ioPlayEntity@@UAE_NPAVioWeapon@@@Z:PROC ; ioPlayEntity::IsCollisionAvailableRange
EXTRN	?IsEntityCollisionSkipState@ioPlayEntity@@UBE_NPAVioGameEntity@@@Z:PROC ; ioPlayEntity::IsEntityCollisionSkipState
EXTRN	?IsCharCollisionSkipState@ioPlayEntity@@UBE_NW4TeamType@@H@Z:PROC ; ioPlayEntity::IsCharCollisionSkipState
EXTRN	?IsWoundedCollision@ioPlayEntity@@UBE_NABVioOrientBox@@PAUD3DXVECTOR3@@@Z:PROC ; ioPlayEntity::IsWoundedCollision
EXTRN	?GetAttackCollisionBox@ioPlayEntity@@UAE?AVioOrientBox@@W4AniCollisionType@@_N@Z:PROC ; ioPlayEntity::GetAttackCollisionBox
EXTRN	?CheckSphereDistance@ioPlayEntity@@UBE_NABUD3DXVECTOR3@@MAAM@Z:PROC ; ioPlayEntity::CheckSphereDistance
EXTRN	?CheckSpherePoint@ioPlayEntity@@UBE_NABUD3DXVECTOR3@@MAAU2@@Z:PROC ; ioPlayEntity::CheckSpherePoint
EXTRN	?CheckCylinderPoint@ioPlayEntity@@UBE_NABVioCylinder@@ABUD3DXVECTOR3@@AAU3@@Z:PROC ; ioPlayEntity::CheckCylinderPoint
EXTRN	?NotifyDontMoveCollisionPushingSkip@ioPlayEntity@@UAEXPAVioGameEntity@@@Z:PROC ; ioPlayEntity::NotifyDontMoveCollisionPushingSkip
EXTRN	?GetWorldEventReceiver@ioPlayEntity@@UAEPAVioWorldEventReceiver@@XZ:PROC ; ioPlayEntity::GetWorldEventReceiver
EXTRN	?FillMaxHP@ioPlayEntity@@UAEXXZ:PROC		; ioPlayEntity::FillMaxHP
EXTRN	?AddHeadDamageInfo@ioPlayEntity@@UAEXH_N@Z:PROC	; ioPlayEntity::AddHeadDamageInfo
EXTRN	?RenderHeadInfoList@ioPlayEntity@@UAEXHH@Z:PROC	; ioPlayEntity::RenderHeadInfoList
EXTRN	?UpdateHeadInfoList@ioPlayEntity@@MAEXK@Z:PROC	; ioPlayEntity::UpdateHeadInfoList
;	COMDAT ??_R2ioEntityEvent@@8
rdata$r	SEGMENT
??_R2ioEntityEvent@@8 DD FLAT:??_R1A@?0A@EA@ioEntityEvent@@8 ; ioEntityEvent::`RTTI Base Class Array'
rdata$r	ENDS
;	COMDAT ??_R3ioEntityEvent@@8
rdata$r	SEGMENT
??_R3ioEntityEvent@@8 DD 00H				; ioEntityEvent::`RTTI Class Hierarchy Descriptor'
	DD	00H
	DD	01H
	DD	FLAT:??_R2ioEntityEvent@@8
rdata$r	ENDS
;	COMDAT ??_R0?AVioEntityEvent@@@8
_DATA	SEGMENT
??_R0?AVioEntityEvent@@@8 DD FLAT:??_7type_info@@6B@	; ioEntityEvent `RTTI Type Descriptor'
	DD	00H
	DB	'.?AVioEntityEvent@@', 00H
_DATA	ENDS
;	COMDAT ??_R1A@?0A@EA@ioEntityEvent@@8
rdata$r	SEGMENT
??_R1A@?0A@EA@ioEntityEvent@@8 DD FLAT:??_R0?AVioEntityEvent@@@8 ; ioEntityEvent::`RTTI Base Class Descriptor at (0,-1,0,64)'
	DD	00H
	DD	00H
	DD	0ffffffffH
	DD	00H
	DD	040H
	DD	FLAT:??_R3ioEntityEvent@@8
rdata$r	ENDS
;	COMDAT ??_R2ioGameEntity@@8
rdata$r	SEGMENT
??_R2ioGameEntity@@8 DD FLAT:??_R1A@?0A@EA@ioGameEntity@@8 ; ioGameEntity::`RTTI Base Class Array'
	DD	FLAT:??_R1A@?0A@EA@ioEntityEvent@@8
rdata$r	ENDS
;	COMDAT ??_R3ioGameEntity@@8
rdata$r	SEGMENT
??_R3ioGameEntity@@8 DD 00H				; ioGameEntity::`RTTI Class Hierarchy Descriptor'
	DD	00H
	DD	02H
	DD	FLAT:??_R2ioGameEntity@@8
rdata$r	ENDS
;	COMDAT ??_R0?AVioGameEntity@@@8
_DATA	SEGMENT
??_R0?AVioGameEntity@@@8 DD FLAT:??_7type_info@@6B@	; ioGameEntity `RTTI Type Descriptor'
	DD	00H
	DB	'.?AVioGameEntity@@', 00H
_DATA	ENDS
;	COMDAT ??_R1A@?0A@EA@ioGameEntity@@8
rdata$r	SEGMENT
??_R1A@?0A@EA@ioGameEntity@@8 DD FLAT:??_R0?AVioGameEntity@@@8 ; ioGameEntity::`RTTI Base Class Descriptor at (0,-1,0,64)'
	DD	01H
	DD	00H
	DD	0ffffffffH
	DD	00H
	DD	040H
	DD	FLAT:??_R3ioGameEntity@@8
rdata$r	ENDS
;	COMDAT ??_R2ioPlayEntity@@8
rdata$r	SEGMENT
??_R2ioPlayEntity@@8 DD FLAT:??_R1A@?0A@EA@ioPlayEntity@@8 ; ioPlayEntity::`RTTI Base Class Array'
	DD	FLAT:??_R1A@?0A@EA@ioGameEntity@@8
	DD	FLAT:??_R1A@?0A@EA@ioEntityEvent@@8
rdata$r	ENDS
;	COMDAT ??_R3ioPlayEntity@@8
rdata$r	SEGMENT
??_R3ioPlayEntity@@8 DD 00H				; ioPlayEntity::`RTTI Class Hierarchy Descriptor'
	DD	00H
	DD	03H
	DD	FLAT:??_R2ioPlayEntity@@8
rdata$r	ENDS
;	COMDAT ??_R0?AVioPlayEntity@@@8
_DATA	SEGMENT
??_R0?AVioPlayEntity@@@8 DD FLAT:??_7type_info@@6B@	; ioPlayEntity `RTTI Type Descriptor'
	DD	00H
	DB	'.?AVioPlayEntity@@', 00H
_DATA	ENDS
;	COMDAT ??_R1A@?0A@EA@ioPlayEntity@@8
rdata$r	SEGMENT
??_R1A@?0A@EA@ioPlayEntity@@8 DD FLAT:??_R0?AVioPlayEntity@@@8 ; ioPlayEntity::`RTTI Base Class Descriptor at (0,-1,0,64)'
	DD	02H
	DD	00H
	DD	0ffffffffH
	DD	00H
	DD	040H
	DD	FLAT:??_R3ioPlayEntity@@8
rdata$r	ENDS
;	COMDAT ??_R1A@?0A@EA@ioSymbolStruct@@8
rdata$r	SEGMENT
??_R1A@?0A@EA@ioSymbolStruct@@8 DD FLAT:??_R0?AVioSymbolStruct@@@8 ; ioSymbolStruct::`RTTI Base Class Descriptor at (0,-1,0,64)'
	DD	03H
	DD	00H
	DD	0ffffffffH
	DD	00H
	DD	040H
	DD	FLAT:??_R3ioSymbolStruct@@8
rdata$r	ENDS
;	COMDAT ??_R2ioSymbolStruct@@8
rdata$r	SEGMENT
??_R2ioSymbolStruct@@8 DD FLAT:??_R1A@?0A@EA@ioSymbolStruct@@8 ; ioSymbolStruct::`RTTI Base Class Array'
	DD	FLAT:??_R1A@?0A@EA@ioPlayEntity@@8
	DD	FLAT:??_R1A@?0A@EA@ioGameEntity@@8
	DD	FLAT:??_R1A@?0A@EA@ioEntityEvent@@8
rdata$r	ENDS
;	COMDAT ??_R3ioSymbolStruct@@8
rdata$r	SEGMENT
??_R3ioSymbolStruct@@8 DD 00H				; ioSymbolStruct::`RTTI Class Hierarchy Descriptor'
	DD	00H
	DD	04H
	DD	FLAT:??_R2ioSymbolStruct@@8
rdata$r	ENDS
;	COMDAT ??_R0?AVioSymbolStruct@@@8
_DATA	SEGMENT
??_R0?AVioSymbolStruct@@@8 DD FLAT:??_7type_info@@6B@	; ioSymbolStruct `RTTI Type Descriptor'
	DD	00H
	DB	'.?AVioSymbolStruct@@', 00H
_DATA	ENDS
;	COMDAT ??_R4ioSymbolStruct@@6B@
rdata$r	SEGMENT
??_R4ioSymbolStruct@@6B@ DD 00H				; ioSymbolStruct::`RTTI Complete Object Locator'
	DD	00H
	DD	00H
	DD	FLAT:??_R0?AVioSymbolStruct@@@8
	DD	FLAT:??_R3ioSymbolStruct@@8
rdata$r	ENDS
;	COMDAT ??_7ioSymbolStruct@@6B@
CONST	SEGMENT
??_7ioSymbolStruct@@6B@ DD FLAT:??_R4ioSymbolStruct@@6B@ ; ioSymbolStruct::`vftable'
	DD	FLAT:?AddEntityEvent@ioEntityEvent@@UAEXPAVioEntity@@@Z
	DD	FLAT:??_EioSymbolStruct@@UAEPAXI@Z
	DD	FLAT:?Update@ioSymbolStruct@@UAEXMKK@Z
	DD	FLAT:?UpdateAfter@ioSymbolStruct@@UAEXM@Z
	DD	FLAT:?GetTypeID@ioPlayEntity@@UBEHXZ
	DD	FLAT:?IsNeedCheckMapCollision@ioGameEntity@@UBE_NXZ
	DD	FLAT:?IsMountAvailable@ioSymbolStruct@@UBE_NXZ
	DD	FLAT:?IsMountingAvailable@ioSymbolStruct@@UBE_NXZ
	DD	FLAT:?IsNowMountEnable@ioSymbolStruct@@UBE_NXZ
	DD	FLAT:?IsAllWeaponDefence@ioGameEntity@@UBE_NXZ
	DD	FLAT:?HasEntity@ioGameEntity@@UAE_NABVioHashString@@@Z
	DD	FLAT:?AddEntity@ioGameEntity@@UAEPAVioEntity@@ABVioHashString@@@Z
	DD	FLAT:?DestroyEntity@ioGameEntity@@UAE_NABVioHashString@@@Z
	DD	FLAT:?GetEntity@ioGameEntity@@UAEPAVioEntity@@ABVioHashString@@@Z
	DD	FLAT:?UpdateBound@ioGameEntity@@MBEXXZ
	DD	FLAT:?UpdateBottomHeight@ioSymbolStruct@@MBEXXZ
	DD	FLAT:?NeedUpdateBottomHeight@ioGameEntity@@UAEXXZ
	DD	FLAT:?SetWorldPosition@ioGameEntity@@UAEXABUD3DXVECTOR3@@@Z
	DD	FLAT:?SetWorldOrientation@ioGameEntity@@UAEXABUD3DXQUATERNION@@@Z
	DD	FLAT:?SetWorldScale@ioGameEntity@@UAEXABUD3DXVECTOR3@@@Z
	DD	FLAT:?Translate@ioGameEntity@@UAEXABUD3DXVECTOR3@@@Z
	DD	FLAT:?TranslateByConveyer@ioGameEntity@@UAEXABUD3DXVECTOR3@@@Z
	DD	FLAT:?TranslateByWorldEntity@ioGameEntity@@UAEXABUD3DXVECTOR3@@@Z
	DD	FLAT:?MapCollisionPushingTranslate@ioGameEntity@@UAEXABUD3DXVECTOR3@@@Z
	DD	FLAT:?DontMoveCollisionPushingTranslate@ioGameEntity@@UAEXPAV1@ABUD3DXVECTOR3@@@Z
	DD	FLAT:?Rotate@ioGameEntity@@UAEXABUD3DXVECTOR3@@MW4TransformSpace@ioNode@@@Z
	DD	FLAT:?Scale@ioGameEntity@@UAEXMMM@Z
	DD	FLAT:?Scale@ioGameEntity@@UAEXABUD3DXVECTOR3@@@Z
	DD	FLAT:?GetWorldPosition@ioGameEntity@@UBEABUD3DXVECTOR3@@XZ
	DD	FLAT:?GetWorldOrientation@ioGameEntity@@UBEABUD3DXQUATERNION@@XZ
	DD	FLAT:?GetWorldScale@ioGameEntity@@UBEABUD3DXVECTOR3@@XZ
	DD	FLAT:?ApplyWeapon@ioSymbolStruct@@UAE?AW4ApplyWeaponExp@@PAVioWeapon@@@Z
	DD	FLAT:?IsCollisionAvailableWeapon@ioSymbolStruct@@UAE_NPAVioWeapon@@@Z
	DD	FLAT:?IsCollisionAvailableRange@ioPlayEntity@@UAE_NPAVioWeapon@@@Z
	DD	FLAT:?IsEntityCollisionSkipState@ioPlayEntity@@UBE_NPAVioGameEntity@@@Z
	DD	FLAT:?IsCharCollisionSkipState@ioPlayEntity@@UBE_NW4TeamType@@H@Z
	DD	FLAT:?IsWoundedCollision@ioPlayEntity@@UBE_NABVioOrientBox@@PAUD3DXVECTOR3@@@Z
	DD	FLAT:?GetAttackCollisionBox@ioPlayEntity@@UAE?AVioOrientBox@@W4AniCollisionType@@_N@Z
	DD	FLAT:?CheckSphereDistance@ioPlayEntity@@UBE_NABUD3DXVECTOR3@@MAAM@Z
	DD	FLAT:?CheckSpherePoint@ioPlayEntity@@UBE_NABUD3DXVECTOR3@@MAAU2@@Z
	DD	FLAT:?CheckCylinderPoint@ioPlayEntity@@UBE_NABVioCylinder@@ABUD3DXVECTOR3@@AAU3@@Z
	DD	FLAT:?GetSubType@ioSymbolStruct@@UBE?AW4PlaySubType@ioPlayEntity@@XZ
	DD	FLAT:?GetArmorType@ioSymbolStruct@@UBE?AW4ArmorType@@XZ
	DD	FLAT:?DontMoveEntityLevel@ioSymbolStruct@@UBEHXZ
	DD	FLAT:?NotifyDontMoveCollisionPushingSkip@ioPlayEntity@@UAEXPAVioGameEntity@@@Z
	DD	FLAT:?LoadProperty@ioSymbolStruct@@UAEXAAVioINILoader@@@Z
	DD	FLAT:?GetWorldEventReceiver@ioPlayEntity@@UAEPAVioWorldEventReceiver@@XZ
	DD	FLAT:?Revival@ioSymbolStruct@@UAEXXZ
	DD	FLAT:?UpdateGauge@ioSymbolStruct@@UAEXXZ
	DD	FLAT:?RenderGauge@ioSymbolStruct@@UAEXXZ
	DD	FLAT:?FillMaxHP@ioPlayEntity@@UAEXXZ
	DD	FLAT:?ProcessRecovery@ioSymbolStruct@@MAEXXZ
	DD	FLAT:?AddHeadDamageInfo@ioPlayEntity@@UAEXH_N@Z
	DD	FLAT:?RenderHeadInfoList@ioPlayEntity@@UAEXHH@Z
	DD	FLAT:?UpdateHeadInfoList@ioPlayEntity@@MAEXK@Z
	DD	FLAT:?SetTeam@ioSymbolStruct@@UAEXW4TeamType@@@Z
CONST	ENDS
;	COMDAT xdata$x
xdata$x	SEGMENT
__ehfuncinfo$??1ioSymbolStruct@@UAE@XZ DD 019930522H
	DD	018H
	DD	FLAT:__unwindtable$??1ioSymbolStruct@@UAE@XZ
	DD	2 DUP(00H)
	DD	2 DUP(00H)
	DD	00H
	DD	01H
__unwindtable$??1ioSymbolStruct@@UAE@XZ DD 0ffffffffH
	DD	FLAT:__unwindfunclet$??1ioSymbolStruct@@UAE@XZ$0
	DD	00H
	DD	FLAT:__unwindfunclet$??1ioSymbolStruct@@UAE@XZ$1
	DD	01H
	DD	FLAT:__unwindfunclet$??1ioSymbolStruct@@UAE@XZ$2
	DD	02H
	DD	FLAT:__unwindfunclet$??1ioSymbolStruct@@UAE@XZ$3
	DD	03H
	DD	FLAT:__unwindfunclet$??1ioSymbolStruct@@UAE@XZ$4
	DD	04H
	DD	FLAT:__unwindfunclet$??1ioSymbolStruct@@UAE@XZ$5
	DD	05H
	DD	FLAT:__unwindfunclet$??1ioSymbolStruct@@UAE@XZ$6
	DD	06H
	DD	FLAT:__unwindfunclet$??1ioSymbolStruct@@UAE@XZ$7
	DD	07H
	DD	FLAT:__unwindfunclet$??1ioSymbolStruct@@UAE@XZ$8
	DD	08H
	DD	FLAT:__unwindfunclet$??1ioSymbolStruct@@UAE@XZ$9
	DD	09H
	DD	FLAT:__unwindfunclet$??1ioSymbolStruct@@UAE@XZ$10
	DD	0aH
	DD	FLAT:__unwindfunclet$??1ioSymbolStruct@@UAE@XZ$11
	DD	0bH
	DD	FLAT:__unwindfunclet$??1ioSymbolStruct@@UAE@XZ$12
	DD	0cH
	DD	FLAT:__unwindfunclet$??1ioSymbolStruct@@UAE@XZ$13
	DD	0dH
	DD	FLAT:__unwindfunclet$??1ioSymbolStruct@@UAE@XZ$14
	DD	0eH
	DD	FLAT:__unwindfunclet$??1ioSymbolStruct@@UAE@XZ$15
	DD	0fH
	DD	FLAT:__unwindfunclet$??1ioSymbolStruct@@UAE@XZ$16
	DD	010H
	DD	FLAT:__unwindfunclet$??1ioSymbolStruct@@UAE@XZ$17
	DD	011H
	DD	FLAT:__unwindfunclet$??1ioSymbolStruct@@UAE@XZ$18
	DD	012H
	DD	FLAT:__unwindfunclet$??1ioSymbolStruct@@UAE@XZ$19
	DD	013H
	DD	FLAT:__unwindfunclet$??1ioSymbolStruct@@UAE@XZ$20
	DD	014H
	DD	FLAT:__unwindfunclet$??1ioSymbolStruct@@UAE@XZ$21
	DD	015H
	DD	FLAT:__unwindfunclet$??1ioSymbolStruct@@UAE@XZ$22
	DD	016H
	DD	FLAT:__unwindfunclet$??1ioSymbolStruct@@UAE@XZ$23
; Function compile flags: /Ogsp
; File d:\lost saga for developer\youtube\tutorial\source\src\lsclient\iosymbolstruct.cpp
xdata$x	ENDS
;	COMDAT ??1ioSymbolStruct@@UAE@XZ
_TEXT	SEGMENT
_this$ = -16						; size = 4
__$EHRec$ = -12						; size = 12
??1ioSymbolStruct@@UAE@XZ PROC				; ioSymbolStruct::~ioSymbolStruct, COMDAT
; _this$ = ecx

; 50   : {

  00000	6a 04		 push	 4
  00002	b8 00 00 00 00	 mov	 eax, __ehhandler$??1ioSymbolStruct@@UAE@XZ
  00007	e8 00 00 00 00	 call	 __EH_prolog3
  0000c	8b f1		 mov	 esi, ecx
  0000e	89 75 f0	 mov	 DWORD PTR _this$[ebp], esi
  00011	c7 06 00 00 00
	00		 mov	 DWORD PTR [esi], OFFSET ??_7ioSymbolStruct@@6B@

; 51   : 	SAFEDELETE( m_pGauge );

  00017	8b 9e d0 01 00
	00		 mov	 ebx, DWORD PTR [esi+464]
  0001d	c7 45 fc 17 00
	00 00		 mov	 DWORD PTR __$EHRec$[ebp+8], 23 ; 00000017H
  00024	85 db		 test	 ebx, ebx
  00026	74 15		 je	 SHORT $LN1@ioSymbolSt
  00028	8b cb		 mov	 ecx, ebx
  0002a	e8 00 00 00 00	 call	 ??1ioGaugeHelper@@QAE@XZ ; ioGaugeHelper::~ioGaugeHelper
  0002f	53		 push	 ebx
  00030	e8 00 00 00 00	 call	 ??3@YAXPAX@Z		; operator delete
  00035	83 a6 d0 01 00
	00 00		 and	 DWORD PTR [esi+464], 0
  0003c	59		 pop	 ecx
$LN1@ioSymbolSt:

; 52   : }

  0003d	8b 3d 00 00 00
	00		 mov	 edi, DWORD PTR __imp_??1ioHashString@@QAE@XZ
  00043	8d 8e 60 05 00
	00		 lea	 ecx, DWORD PTR [esi+1376]
  00049	c6 45 fc 16	 mov	 BYTE PTR __$EHRec$[ebp+8], 22 ; 00000016H
  0004d	ff d7		 call	 edi
  0004f	8d 8e 50 05 00
	00		 lea	 ecx, DWORD PTR [esi+1360]
  00055	c6 45 fc 15	 mov	 BYTE PTR __$EHRec$[ebp+8], 21 ; 00000015H
  00059	ff d7		 call	 edi
  0005b	8d 8e 40 05 00
	00		 lea	 ecx, DWORD PTR [esi+1344]
  00061	c6 45 fc 14	 mov	 BYTE PTR __$EHRec$[ebp+8], 20 ; 00000014H
  00065	ff d7		 call	 edi
  00067	8d 8e 30 05 00
	00		 lea	 ecx, DWORD PTR [esi+1328]
  0006d	c6 45 fc 13	 mov	 BYTE PTR __$EHRec$[ebp+8], 19 ; 00000013H
  00071	ff d7		 call	 edi
  00073	8d 8e 20 05 00
	00		 lea	 ecx, DWORD PTR [esi+1312]
  00079	c6 45 fc 12	 mov	 BYTE PTR __$EHRec$[ebp+8], 18 ; 00000012H
  0007d	ff d7		 call	 edi
  0007f	8d 8e 10 05 00
	00		 lea	 ecx, DWORD PTR [esi+1296]
  00085	c6 45 fc 11	 mov	 BYTE PTR __$EHRec$[ebp+8], 17 ; 00000011H
  00089	ff d7		 call	 edi
  0008b	bf 00 00 00 00	 mov	 edi, OFFSET ??_7?$CEncrypt@K@@6B@
  00090	8d 8e ec 04 00
	00		 lea	 ecx, DWORD PTR [esi+1260]
  00096	c6 45 fc 10	 mov	 BYTE PTR __$EHRec$[ebp+8], 16 ; 00000010H
  0009a	89 be e0 04 00
	00		 mov	 DWORD PTR [esi+1248], edi
  000a0	e8 00 00 00 00	 call	 ??1ccddaabb@@UAE@XZ	; ccddaabb::~ccddaabb
  000a5	8d 8e bc 04 00
	00		 lea	 ecx, DWORD PTR [esi+1212]
  000ab	c6 45 fc 0f	 mov	 BYTE PTR __$EHRec$[ebp+8], 15 ; 0000000fH
  000af	89 be b0 04 00
	00		 mov	 DWORD PTR [esi+1200], edi
  000b5	e8 00 00 00 00	 call	 ??1ccddaabb@@UAE@XZ	; ccddaabb::~ccddaabb
  000ba	bf 00 00 00 00	 mov	 edi, OFFSET ??_7?$CEncrypt@M@@6B@
  000bf	8d 8e 8c 04 00
	00		 lea	 ecx, DWORD PTR [esi+1164]
  000c5	c6 45 fc 0e	 mov	 BYTE PTR __$EHRec$[ebp+8], 14 ; 0000000eH
  000c9	89 be 80 04 00
	00		 mov	 DWORD PTR [esi+1152], edi
  000cf	e8 00 00 00 00	 call	 ??1ccddaabb@@UAE@XZ	; ccddaabb::~ccddaabb
  000d4	8d 8e 5c 04 00
	00		 lea	 ecx, DWORD PTR [esi+1116]
  000da	c6 45 fc 0d	 mov	 BYTE PTR __$EHRec$[ebp+8], 13 ; 0000000dH
  000de	89 be 50 04 00
	00		 mov	 DWORD PTR [esi+1104], edi
  000e4	e8 00 00 00 00	 call	 ??1ccddaabb@@UAE@XZ	; ccddaabb::~ccddaabb
  000e9	8d 8e 2c 04 00
	00		 lea	 ecx, DWORD PTR [esi+1068]
  000ef	c6 45 fc 0c	 mov	 BYTE PTR __$EHRec$[ebp+8], 12 ; 0000000cH
  000f3	89 be 20 04 00
	00		 mov	 DWORD PTR [esi+1056], edi
  000f9	e8 00 00 00 00	 call	 ??1ccddaabb@@UAE@XZ	; ccddaabb::~ccddaabb
  000fe	8d 8e fc 03 00
	00		 lea	 ecx, DWORD PTR [esi+1020]
  00104	c6 45 fc 0b	 mov	 BYTE PTR __$EHRec$[ebp+8], 11 ; 0000000bH
  00108	89 be f0 03 00
	00		 mov	 DWORD PTR [esi+1008], edi
  0010e	e8 00 00 00 00	 call	 ??1ccddaabb@@UAE@XZ	; ccddaabb::~ccddaabb
  00113	8d 8e cc 03 00
	00		 lea	 ecx, DWORD PTR [esi+972]
  00119	c6 45 fc 0a	 mov	 BYTE PTR __$EHRec$[ebp+8], 10 ; 0000000aH
  0011d	89 be c0 03 00
	00		 mov	 DWORD PTR [esi+960], edi
  00123	e8 00 00 00 00	 call	 ??1ccddaabb@@UAE@XZ	; ccddaabb::~ccddaabb
  00128	8d 8e 9c 03 00
	00		 lea	 ecx, DWORD PTR [esi+924]
  0012e	c6 45 fc 09	 mov	 BYTE PTR __$EHRec$[ebp+8], 9
  00132	89 be 90 03 00
	00		 mov	 DWORD PTR [esi+912], edi
  00138	e8 00 00 00 00	 call	 ??1ccddaabb@@UAE@XZ	; ccddaabb::~ccddaabb
  0013d	8d 8e 6c 03 00
	00		 lea	 ecx, DWORD PTR [esi+876]
  00143	c6 45 fc 08	 mov	 BYTE PTR __$EHRec$[ebp+8], 8
  00147	89 be 60 03 00
	00		 mov	 DWORD PTR [esi+864], edi
  0014d	e8 00 00 00 00	 call	 ??1ccddaabb@@UAE@XZ	; ccddaabb::~ccddaabb
  00152	8d 8e 3c 03 00
	00		 lea	 ecx, DWORD PTR [esi+828]
  00158	c6 45 fc 07	 mov	 BYTE PTR __$EHRec$[ebp+8], 7
  0015c	89 be 30 03 00
	00		 mov	 DWORD PTR [esi+816], edi
  00162	e8 00 00 00 00	 call	 ??1ccddaabb@@UAE@XZ	; ccddaabb::~ccddaabb
  00167	8d 8e 0c 03 00
	00		 lea	 ecx, DWORD PTR [esi+780]
  0016d	c6 45 fc 06	 mov	 BYTE PTR __$EHRec$[ebp+8], 6
  00171	89 be 00 03 00
	00		 mov	 DWORD PTR [esi+768], edi
  00177	e8 00 00 00 00	 call	 ??1ccddaabb@@UAE@XZ	; ccddaabb::~ccddaabb
  0017c	8d 8e d4 02 00
	00		 lea	 ecx, DWORD PTR [esi+724]
  00182	c6 45 fc 05	 mov	 BYTE PTR __$EHRec$[ebp+8], 5
  00186	89 be c8 02 00
	00		 mov	 DWORD PTR [esi+712], edi
  0018c	e8 00 00 00 00	 call	 ??1ccddaabb@@UAE@XZ	; ccddaabb::~ccddaabb
  00191	8d 8e a4 02 00
	00		 lea	 ecx, DWORD PTR [esi+676]
  00197	c6 45 fc 04	 mov	 BYTE PTR __$EHRec$[ebp+8], 4
  0019b	89 be 98 02 00
	00		 mov	 DWORD PTR [esi+664], edi
  001a1	e8 00 00 00 00	 call	 ??1ccddaabb@@UAE@XZ	; ccddaabb::~ccddaabb
  001a6	8d 8e 74 02 00
	00		 lea	 ecx, DWORD PTR [esi+628]
  001ac	c6 45 fc 03	 mov	 BYTE PTR __$EHRec$[ebp+8], 3
  001b0	89 be 68 02 00
	00		 mov	 DWORD PTR [esi+616], edi
  001b6	e8 00 00 00 00	 call	 ??1ccddaabb@@UAE@XZ	; ccddaabb::~ccddaabb
  001bb	8d 8e 44 02 00
	00		 lea	 ecx, DWORD PTR [esi+580]
  001c1	c6 45 fc 02	 mov	 BYTE PTR __$EHRec$[ebp+8], 2
  001c5	89 be 38 02 00
	00		 mov	 DWORD PTR [esi+568], edi
  001cb	e8 00 00 00 00	 call	 ??1ccddaabb@@UAE@XZ	; ccddaabb::~ccddaabb
  001d0	8d 8e 14 02 00
	00		 lea	 ecx, DWORD PTR [esi+532]
  001d6	c6 45 fc 01	 mov	 BYTE PTR __$EHRec$[ebp+8], 1
  001da	89 be 08 02 00
	00		 mov	 DWORD PTR [esi+520], edi
  001e0	e8 00 00 00 00	 call	 ??1ccddaabb@@UAE@XZ	; ccddaabb::~ccddaabb
  001e5	8d 8e e4 01 00
	00		 lea	 ecx, DWORD PTR [esi+484]
  001eb	c6 45 fc 00	 mov	 BYTE PTR __$EHRec$[ebp+8], 0
  001ef	89 be d8 01 00
	00		 mov	 DWORD PTR [esi+472], edi
  001f5	e8 00 00 00 00	 call	 ??1ccddaabb@@UAE@XZ	; ccddaabb::~ccddaabb
  001fa	83 4d fc ff	 or	 DWORD PTR __$EHRec$[ebp+8], -1
  001fe	8b ce		 mov	 ecx, esi
  00200	e8 00 00 00 00	 call	 ??1ioPlayEntity@@UAE@XZ	; ioPlayEntity::~ioPlayEntity
  00205	e8 00 00 00 00	 call	 __EH_epilog3
  0020a	c3		 ret	 0
_TEXT	ENDS
;	COMDAT text$x
text$x	SEGMENT
__unwindfunclet$??1ioSymbolStruct@@UAE@XZ$0:
  00000	8b 4d f0	 mov	 ecx, DWORD PTR _this$[ebp]
  00003	e9 00 00 00 00	 jmp	 ??1ioPlayEntity@@UAE@XZ	; ioPlayEntity::~ioPlayEntity
__unwindfunclet$??1ioSymbolStruct@@UAE@XZ$1:
  00008	8b 4d f0	 mov	 ecx, DWORD PTR _this$[ebp]
  0000b	81 c1 d8 01 00
	00		 add	 ecx, 472		; 000001d8H
  00011	e9 00 00 00 00	 jmp	 ??1?$CEncrypt@M@@UAE@XZ	; CEncrypt<float>::~CEncrypt<float>
__unwindfunclet$??1ioSymbolStruct@@UAE@XZ$2:
  00016	8b 4d f0	 mov	 ecx, DWORD PTR _this$[ebp]
  00019	81 c1 08 02 00
	00		 add	 ecx, 520		; 00000208H
  0001f	e9 00 00 00 00	 jmp	 ??1?$CEncrypt@M@@UAE@XZ	; CEncrypt<float>::~CEncrypt<float>
__unwindfunclet$??1ioSymbolStruct@@UAE@XZ$3:
  00024	8b 4d f0	 mov	 ecx, DWORD PTR _this$[ebp]
  00027	81 c1 38 02 00
	00		 add	 ecx, 568		; 00000238H
  0002d	e9 00 00 00 00	 jmp	 ??1?$CEncrypt@M@@UAE@XZ	; CEncrypt<float>::~CEncrypt<float>
__unwindfunclet$??1ioSymbolStruct@@UAE@XZ$4:
  00032	8b 4d f0	 mov	 ecx, DWORD PTR _this$[ebp]
  00035	81 c1 68 02 00
	00		 add	 ecx, 616		; 00000268H
  0003b	e9 00 00 00 00	 jmp	 ??1?$CEncrypt@M@@UAE@XZ	; CEncrypt<float>::~CEncrypt<float>
__unwindfunclet$??1ioSymbolStruct@@UAE@XZ$5:
  00040	8b 4d f0	 mov	 ecx, DWORD PTR _this$[ebp]
  00043	81 c1 98 02 00
	00		 add	 ecx, 664		; 00000298H
  00049	e9 00 00 00 00	 jmp	 ??1?$CEncrypt@M@@UAE@XZ	; CEncrypt<float>::~CEncrypt<float>
__unwindfunclet$??1ioSymbolStruct@@UAE@XZ$6:
  0004e	8b 4d f0	 mov	 ecx, DWORD PTR _this$[ebp]
  00051	81 c1 c8 02 00
	00		 add	 ecx, 712		; 000002c8H
  00057	e9 00 00 00 00	 jmp	 ??1?$CEncrypt@M@@UAE@XZ	; CEncrypt<float>::~CEncrypt<float>
__unwindfunclet$??1ioSymbolStruct@@UAE@XZ$7:
  0005c	8b 4d f0	 mov	 ecx, DWORD PTR _this$[ebp]
  0005f	81 c1 00 03 00
	00		 add	 ecx, 768		; 00000300H
  00065	e9 00 00 00 00	 jmp	 ??1?$CEncrypt@M@@UAE@XZ	; CEncrypt<float>::~CEncrypt<float>
__unwindfunclet$??1ioSymbolStruct@@UAE@XZ$8:
  0006a	8b 4d f0	 mov	 ecx, DWORD PTR _this$[ebp]
  0006d	81 c1 30 03 00
	00		 add	 ecx, 816		; 00000330H
  00073	e9 00 00 00 00	 jmp	 ??1?$CEncrypt@M@@UAE@XZ	; CEncrypt<float>::~CEncrypt<float>
__unwindfunclet$??1ioSymbolStruct@@UAE@XZ$9:
  00078	8b 4d f0	 mov	 ecx, DWORD PTR _this$[ebp]
  0007b	81 c1 60 03 00
	00		 add	 ecx, 864		; 00000360H
  00081	e9 00 00 00 00	 jmp	 ??1?$CEncrypt@M@@UAE@XZ	; CEncrypt<float>::~CEncrypt<float>
__unwindfunclet$??1ioSymbolStruct@@UAE@XZ$10:
  00086	8b 4d f0	 mov	 ecx, DWORD PTR _this$[ebp]
  00089	81 c1 90 03 00
	00		 add	 ecx, 912		; 00000390H
  0008f	e9 00 00 00 00	 jmp	 ??1?$CEncrypt@M@@UAE@XZ	; CEncrypt<float>::~CEncrypt<float>
__unwindfunclet$??1ioSymbolStruct@@UAE@XZ$11:
  00094	8b 4d f0	 mov	 ecx, DWORD PTR _this$[ebp]
  00097	81 c1 c0 03 00
	00		 add	 ecx, 960		; 000003c0H
  0009d	e9 00 00 00 00	 jmp	 ??1?$CEncrypt@M@@UAE@XZ	; CEncrypt<float>::~CEncrypt<float>
__unwindfunclet$??1ioSymbolStruct@@UAE@XZ$12:
  000a2	8b 4d f0	 mov	 ecx, DWORD PTR _this$[ebp]
  000a5	81 c1 f0 03 00
	00		 add	 ecx, 1008		; 000003f0H
  000ab	e9 00 00 00 00	 jmp	 ??1?$CEncrypt@M@@UAE@XZ	; CEncrypt<float>::~CEncrypt<float>
__unwindfunclet$??1ioSymbolStruct@@UAE@XZ$13:
  000b0	8b 4d f0	 mov	 ecx, DWORD PTR _this$[ebp]
  000b3	81 c1 20 04 00
	00		 add	 ecx, 1056		; 00000420H
  000b9	e9 00 00 00 00	 jmp	 ??1?$CEncrypt@M@@UAE@XZ	; CEncrypt<float>::~CEncrypt<float>
__unwindfunclet$??1ioSymbolStruct@@UAE@XZ$14:
  000be	8b 4d f0	 mov	 ecx, DWORD PTR _this$[ebp]
  000c1	81 c1 50 04 00
	00		 add	 ecx, 1104		; 00000450H
  000c7	e9 00 00 00 00	 jmp	 ??1?$CEncrypt@M@@UAE@XZ	; CEncrypt<float>::~CEncrypt<float>
__unwindfunclet$??1ioSymbolStruct@@UAE@XZ$15:
  000cc	8b 4d f0	 mov	 ecx, DWORD PTR _this$[ebp]
  000cf	81 c1 80 04 00
	00		 add	 ecx, 1152		; 00000480H
  000d5	e9 00 00 00 00	 jmp	 ??1?$CEncrypt@M@@UAE@XZ	; CEncrypt<float>::~CEncrypt<float>
__unwindfunclet$??1ioSymbolStruct@@UAE@XZ$16:
  000da	8b 4d f0	 mov	 ecx, DWORD PTR _this$[ebp]
  000dd	81 c1 b0 04 00
	00		 add	 ecx, 1200		; 000004b0H
  000e3	e9 00 00 00 00	 jmp	 ??1?$CEncrypt@K@@UAE@XZ	; CEncrypt<unsigned long>::~CEncrypt<unsigned long>
__unwindfunclet$??1ioSymbolStruct@@UAE@XZ$17:
  000e8	8b 4d f0	 mov	 ecx, DWORD PTR _this$[ebp]
  000eb	81 c1 e0 04 00
	00		 add	 ecx, 1248		; 000004e0H
  000f1	e9 00 00 00 00	 jmp	 ??1?$CEncrypt@K@@UAE@XZ	; CEncrypt<unsigned long>::~CEncrypt<unsigned long>
__unwindfunclet$??1ioSymbolStruct@@UAE@XZ$18:
  000f6	8b 4d f0	 mov	 ecx, DWORD PTR _this$[ebp]
  000f9	81 c1 10 05 00
	00		 add	 ecx, 1296		; 00000510H
  000ff	ff 25 00 00 00
	00		 jmp	 DWORD PTR __imp_??1ioHashString@@QAE@XZ
__unwindfunclet$??1ioSymbolStruct@@UAE@XZ$19:
  00105	8b 4d f0	 mov	 ecx, DWORD PTR _this$[ebp]
  00108	81 c1 20 05 00
	00		 add	 ecx, 1312		; 00000520H
  0010e	ff 25 00 00 00
	00		 jmp	 DWORD PTR __imp_??1ioHashString@@QAE@XZ
__unwindfunclet$??1ioSymbolStruct@@UAE@XZ$20:
  00114	8b 4d f0	 mov	 ecx, DWORD PTR _this$[ebp]
  00117	81 c1 30 05 00
	00		 add	 ecx, 1328		; 00000530H
  0011d	ff 25 00 00 00
	00		 jmp	 DWORD PTR __imp_??1ioHashString@@QAE@XZ
__unwindfunclet$??1ioSymbolStruct@@UAE@XZ$21:
  00123	8b 4d f0	 mov	 ecx, DWORD PTR _this$[ebp]
  00126	81 c1 40 05 00
	00		 add	 ecx, 1344		; 00000540H
  0012c	ff 25 00 00 00
	00		 jmp	 DWORD PTR __imp_??1ioHashString@@QAE@XZ
__unwindfunclet$??1ioSymbolStruct@@UAE@XZ$22:
  00132	8b 4d f0	 mov	 ecx, DWORD PTR _this$[ebp]
  00135	81 c1 50 05 00
	00		 add	 ecx, 1360		; 00000550H
  0013b	ff 25 00 00 00
	00		 jmp	 DWORD PTR __imp_??1ioHashString@@QAE@XZ
__unwindfunclet$??1ioSymbolStruct@@UAE@XZ$23:
  00141	8b 4d f0	 mov	 ecx, DWORD PTR _this$[ebp]
  00144	81 c1 60 05 00
	00		 add	 ecx, 1376		; 00000560H
  0014a	ff 25 00 00 00
	00		 jmp	 DWORD PTR __imp_??1ioHashString@@QAE@XZ
__ehhandler$??1ioSymbolStruct@@UAE@XZ:
  00150	8b 54 24 08	 mov	 edx, DWORD PTR [esp+8]
  00154	8d 42 0c	 lea	 eax, DWORD PTR [edx+12]
  00157	8b 4a ec	 mov	 ecx, DWORD PTR [edx-20]
  0015a	33 c8		 xor	 ecx, eax
  0015c	e8 00 00 00 00	 call	 @__security_check_cookie@4
  00161	b8 00 00 00 00	 mov	 eax, OFFSET __ehfuncinfo$??1ioSymbolStruct@@UAE@XZ
  00166	e9 00 00 00 00	 jmp	 ___CxxFrameHandler3
text$x	ENDS
??1ioSymbolStruct@@UAE@XZ ENDP				; ioSymbolStruct::~ioSymbolStruct
; Function compile flags: /Ogsp
; File d:\lost saga for developer\youtube\tutorial\source\src\lsclient\iogameentity.h
;	COMDAT ?NeedUpdateBottomHeight@ioGameEntity@@UAEXXZ
_TEXT	SEGMENT
?NeedUpdateBottomHeight@ioGameEntity@@UAEXXZ PROC	; ioGameEntity::NeedUpdateBottomHeight, COMDAT
; _this$ = ecx

; 133  : 	virtual void NeedUpdateBottomHeight() { m_bNeedUpdateBottomHeight = true; }

  00000	c6 81 89 00 00
	00 01		 mov	 BYTE PTR [ecx+137], 1
  00007	c3		 ret	 0
?NeedUpdateBottomHeight@ioGameEntity@@UAEXXZ ENDP	; ioGameEntity::NeedUpdateBottomHeight
; Function compile flags: /Ogsp
; File d:\lost saga for developer\youtube\tutorial\source\src\lsclient\iosymbolstruct.cpp
_TEXT	ENDS
;	COMDAT ?Update@ioSymbolStruct@@UAEXMKK@Z
_TEXT	SEGMENT
_fTimePerSec$ = 8					; size = 4
_dwPreTime$ = 12					; size = 4
_dwCurTime$ = 16					; size = 4
?Update@ioSymbolStruct@@UAEXMKK@Z PROC			; ioSymbolStruct::Update, COMDAT
; _this$ = ecx

; 55   : {

  00000	56		 push	 esi
  00001	8b f1		 mov	 esi, ecx

; 56   : 	ProcessWoundedState();

  00003	e8 00 00 00 00	 call	 ?ProcessWoundedState@ioSymbolStruct@@IAEXXZ ; ioSymbolStruct::ProcessWoundedState

; 57   : 	ProcessRecovery();

  00008	8b 06		 mov	 eax, DWORD PTR [esi]
  0000a	8b ce		 mov	 ecx, esi
  0000c	ff 90 cc 00 00
	00		 call	 DWORD PTR [eax+204]
  00012	5e		 pop	 esi

; 58   : }

  00013	c2 0c 00	 ret	 12			; 0000000cH
?Update@ioSymbolStruct@@UAEXMKK@Z ENDP			; ioSymbolStruct::Update
_TEXT	ENDS
PUBLIC	__$ArrayPad$
EXTRN	?RenderGauge@ioGaugeHelper@@QAEXMM_N@Z:PROC	; ioGaugeHelper::RenderGauge
EXTRN	?Check2DInScreen@Setting@@SA_NABUD3DXVECTOR3@@AAH1@Z:PROC ; Setting::Check2DInScreen
EXTRN	?GetMidPositionByRate@ioGameEntity@@QBE?AUD3DXVECTOR3@@M@Z:PROC ; ioGameEntity::GetMidPositionByRate
EXTRN	?HasCameraFixedStyle@ioPlayStage@@QAE_NK@Z:PROC	; ioPlayStage::HasCameraFixedStyle
EXTRN	?GetSingleton@ioSP2GUIManager@@SAAAV1@XZ:PROC	; ioSP2GUIManager::GetSingleton
; Function compile flags: /Ogsp
;	COMDAT ?RenderGauge@ioSymbolStruct@@UAEXXZ
_TEXT	SEGMENT
tv263 = -28						; size = 4
tv257 = -28						; size = 4
_iYPos$ = -24						; size = 4
_iXPos$ = -20						; size = 4
_vPos$ = -16						; size = 12
__$ArrayPad$ = -4					; size = 4
?RenderGauge@ioSymbolStruct@@UAEXXZ PROC		; ioSymbolStruct::RenderGauge, COMDAT
; _this$ = ecx

; 446  : {

  00000	55		 push	 ebp
  00001	8b ec		 mov	 ebp, esp
  00003	83 ec 1c	 sub	 esp, 28			; 0000001cH
  00006	a1 00 00 00 00	 mov	 eax, DWORD PTR ___security_cookie
  0000b	33 c5		 xor	 eax, ebp
  0000d	89 45 fc	 mov	 DWORD PTR __$ArrayPad$[ebp], eax
  00010	53		 push	 ebx
  00011	56		 push	 esi
  00012	8b f1		 mov	 esi, ecx

; 447  : 	if( !m_pGauge || !m_bGaugeVisible ) return;

  00014	33 db		 xor	 ebx, ebx
  00016	39 9e d0 01 00
	00		 cmp	 DWORD PTR [esi+464], ebx
  0001c	0f 84 04 01 00
	00		 je	 $LN7@RenderGaug
  00022	38 9e c4 01 00
	00		 cmp	 BYTE PTR [esi+452], bl
  00028	0f 84 f8 00 00
	00		 je	 $LN7@RenderGaug

; 448  : 
; 449  : 	bool bCheckMode = g_GUIMgr.IsNoneUIMode();

  0002e	57		 push	 edi
  0002f	e8 00 00 00 00	 call	 ?GetSingleton@ioSP2GUIManager@@SAAAV1@XZ ; ioSP2GUIManager::GetSingleton

; 450  : 	ioPlayStage *pStage = m_pModeParent->GetCreator();

  00034	8b 8e 8c 00 00
	00		 mov	 ecx, DWORD PTR [esi+140]
  0003a	8b 79 34	 mov	 edi, DWORD PTR [ecx+52]
  0003d	8a 80 e1 04 00
	00		 mov	 al, BYTE PTR [eax+1249]

; 451  : 	if( pStage && !bCheckMode )

  00043	3b fb		 cmp	 edi, ebx
  00045	74 20		 je	 SHORT $LN5@RenderGaug
  00047	3a c3		 cmp	 al, bl
  00049	75 20		 jne	 SHORT $LN21@RenderGaug

; 452  : 	{
; 453  : 		if( pStage->HasCameraFixedStyle(CAMERA_STYLE_MOVIE) || pStage->HasCameraFixedStyle(CAMERA_STYLE_VIEW) )

  0004b	6a 01		 push	 1
  0004d	8b cf		 mov	 ecx, edi
  0004f	e8 00 00 00 00	 call	 ?HasCameraFixedStyle@ioPlayStage@@QAE_NK@Z ; ioPlayStage::HasCameraFixedStyle
  00054	84 c0		 test	 al, al
  00056	75 0d		 jne	 SHORT $LN4@RenderGaug
  00058	6a 02		 push	 2
  0005a	8b cf		 mov	 ecx, edi
  0005c	e8 00 00 00 00	 call	 ?HasCameraFixedStyle@ioPlayStage@@QAE_NK@Z ; ioPlayStage::HasCameraFixedStyle
  00061	84 c0		 test	 al, al
  00063	74 12		 je	 SHORT $LN3@RenderGaug
$LN4@RenderGaug:

; 454  : 			bCheckMode = true;

  00065	b0 01		 mov	 al, 1
$LN5@RenderGaug:

; 455  : 	}
; 456  : 	if( bCheckMode && !Setting::NoUIModeHPShow() ) return;

  00067	3a c3		 cmp	 al, bl
  00069	74 0c		 je	 SHORT $LN3@RenderGaug
$LN21@RenderGaug:
  0006b	38 1d 6b 00 00
	00		 cmp	 BYTE PTR ?m_Option@Setting@@1USettingOption@@A+107, bl
  00071	0f 84 ae 00 00
	00		 je	 $LN22@RenderGaug
$LN3@RenderGaug:

; 457  : 
; 458  : 	D3DXVECTOR3 vPos = GetMidPositionByRate( FLOAT1 );

  00077	b8 01 00 00 00	 mov	 eax, 1
  0007c	89 45 e4	 mov	 DWORD PTR tv263[ebp], eax
  0007f	db 45 e4	 fild	 DWORD PTR tv263[ebp]
  00082	85 c0		 test	 eax, eax
  00084	79 06		 jns	 SHORT $LN23@RenderGaug
  00086	d8 05 00 00 00
	00		 fadd	 DWORD PTR __real@4f800000
$LN23@RenderGaug:
  0008c	51		 push	 ecx
  0008d	8d 45 f0	 lea	 eax, DWORD PTR _vPos$[ebp]
  00090	d9 1c 24	 fstp	 DWORD PTR [esp]
  00093	50		 push	 eax
  00094	8b ce		 mov	 ecx, esi
  00096	e8 00 00 00 00	 call	 ?GetMidPositionByRate@ioGameEntity@@QBE?AUD3DXVECTOR3@@M@Z ; ioGameEntity::GetMidPositionByRate

; 459  : 	vPos.y += FLOAT40;

  0009b	b8 28 00 00 00	 mov	 eax, 40			; 00000028H
  000a0	89 45 e4	 mov	 DWORD PTR tv257[ebp], eax
  000a3	db 45 e4	 fild	 DWORD PTR tv257[ebp]
  000a6	85 c0		 test	 eax, eax
  000a8	79 06		 jns	 SHORT $LN24@RenderGaug
  000aa	d8 05 00 00 00
	00		 fadd	 DWORD PTR __real@4f800000
$LN24@RenderGaug:
  000b0	d8 45 f4	 fadd	 DWORD PTR _vPos$[ebp+4]

; 460  : 
; 461  : 	int iXPos = 0, iYPos = 0;
; 462  : 	if( Setting::Check2DInScreen( vPos, iXPos, iYPos ) )

  000b3	8d 45 e8	 lea	 eax, DWORD PTR _iYPos$[ebp]
  000b6	50		 push	 eax
  000b7	8d 45 ec	 lea	 eax, DWORD PTR _iXPos$[ebp]
  000ba	50		 push	 eax
  000bb	d9 5d f4	 fstp	 DWORD PTR _vPos$[ebp+4]
  000be	8d 45 f0	 lea	 eax, DWORD PTR _vPos$[ebp]
  000c1	50		 push	 eax
  000c2	89 5d ec	 mov	 DWORD PTR _iXPos$[ebp], ebx
  000c5	89 5d e8	 mov	 DWORD PTR _iYPos$[ebp], ebx
  000c8	e8 00 00 00 00	 call	 ?Check2DInScreen@Setting@@SA_NABUD3DXVECTOR3@@AAH1@Z ; Setting::Check2DInScreen
  000cd	83 c4 0c	 add	 esp, 12			; 0000000cH

; 463  : 	{
; 464  : 		m_pGauge->RenderGauge( iXPos, iYPos + 1 );

  000d0	53		 push	 ebx
  000d1	51		 push	 ecx
  000d2	51		 push	 ecx
  000d3	8b 8e d0 01 00
	00		 mov	 ecx, DWORD PTR [esi+464]
  000d9	0f 57 c0	 xorps	 xmm0, xmm0
  000dc	84 c0		 test	 al, al
  000de	74 18		 je	 SHORT $LN2@RenderGaug
  000e0	8b 45 e8	 mov	 eax, DWORD PTR _iYPos$[ebp]
  000e3	40		 inc	 eax
  000e4	f3 0f 2a c0	 cvtsi2ss xmm0, eax
  000e8	f3 0f 11 44 24
	04		 movss	 DWORD PTR [esp+4], xmm0
  000ee	66 0f 6e 45 ec	 movd	 xmm0, DWORD PTR _iXPos$[ebp]
  000f3	0f 5b c0	 cvtdq2ps xmm0, xmm0

; 465  : 	}
; 466  : 	else

  000f6	eb 23		 jmp	 SHORT $LN25@RenderGaug
$LN2@RenderGaug:

; 467  : 	{
; 468  : 		m_pGauge->RenderGauge( m_iGaugeXPos + 12, m_iGaugeYPos + 2 );

  000f8	8b 86 c0 01 00
	00		 mov	 eax, DWORD PTR [esi+448]
  000fe	83 c0 02	 add	 eax, 2
  00101	f3 0f 2a c0	 cvtsi2ss xmm0, eax
  00105	8b 86 bc 01 00
	00		 mov	 eax, DWORD PTR [esi+444]
  0010b	f3 0f 11 44 24
	04		 movss	 DWORD PTR [esp+4], xmm0
  00111	83 c0 0c	 add	 eax, 12			; 0000000cH
  00114	0f 57 c0	 xorps	 xmm0, xmm0
  00117	f3 0f 2a c0	 cvtsi2ss xmm0, eax
$LN25@RenderGaug:
  0011b	f3 0f 11 04 24	 movss	 DWORD PTR [esp], xmm0
  00120	e8 00 00 00 00	 call	 ?RenderGauge@ioGaugeHelper@@QAEXMM_N@Z ; ioGaugeHelper::RenderGauge
$LN22@RenderGaug:
  00125	5f		 pop	 edi
$LN7@RenderGaug:

; 469  : 	}
; 470  : }

  00126	8b 4d fc	 mov	 ecx, DWORD PTR __$ArrayPad$[ebp]
  00129	5e		 pop	 esi
  0012a	33 cd		 xor	 ecx, ebp
  0012c	5b		 pop	 ebx
  0012d	e8 00 00 00 00	 call	 @__security_check_cookie@4
  00132	c9		 leave
  00133	c3		 ret	 0
?RenderGauge@ioSymbolStruct@@UAEXXZ ENDP		; ioSymbolStruct::RenderGauge
_TEXT	ENDS
PUBLIC	__$ArrayPad$
PUBLIC	?SetSymbolActivity@ioSymbolStruct@@QAEX_N@Z	; ioSymbolStruct::SetSymbolActivity
; Function compile flags: /Ogsp
;	COMDAT ?SetSymbolActivity@ioSymbolStruct@@QAEX_N@Z
_TEXT	SEGMENT
$T531001 = -16						; size = 12
__$ArrayPad$ = -4					; size = 4
_bActivity$ = 8						; size = 1
?SetSymbolActivity@ioSymbolStruct@@QAEX_N@Z PROC	; ioSymbolStruct::SetSymbolActivity, COMDAT
; _this$ = ecx

; 754  : {

  00000	55		 push	 ebp
  00001	8b ec		 mov	 ebp, esp
  00003	83 ec 10	 sub	 esp, 16			; 00000010H
  00006	a1 00 00 00 00	 mov	 eax, DWORD PTR ___security_cookie
  0000b	33 c5		 xor	 eax, ebp
  0000d	89 45 fc	 mov	 DWORD PTR __$ArrayPad$[ebp], eax

; 755  : 	m_bActivity = bActivity;

  00010	8a 45 08	 mov	 al, BYTE PTR _bActivity$[ebp]
  00013	56		 push	 esi
  00014	8b f1		 mov	 esi, ecx
  00016	88 86 98 05 00
	00		 mov	 BYTE PTR [esi+1432], al

; 756  : 
; 757  : 	if( m_bActivity )

  0001c	84 c0		 test	 al, al

; 758  : 		SetWorldPosition( m_vDefaultPos );

  0001e	8b 06		 mov	 eax, DWORD PTR [esi]
  00020	74 08		 je	 SHORT $LN2@SetSymbolA
  00022	8d 8e 80 05 00
	00		 lea	 ecx, DWORD PTR [esi+1408]

; 759  : 	else

  00028	eb 15		 jmp	 SHORT $LN7@SetSymbolA
$LN2@SetSymbolA:

; 760  : 		SetWorldPosition( D3DXVECTOR3( 0.0f, 0.0f, 0.0f ) );

  0002a	0f 57 c0	 xorps	 xmm0, xmm0
  0002d	f3 0f 11 45 f0	 movss	 DWORD PTR $T531001[ebp], xmm0
  00032	f3 0f 11 45 f4	 movss	 DWORD PTR $T531001[ebp+4], xmm0
  00037	f3 0f 11 45 f8	 movss	 DWORD PTR $T531001[ebp+8], xmm0
  0003c	8d 4d f0	 lea	 ecx, DWORD PTR $T531001[ebp]
$LN7@SetSymbolA:
  0003f	51		 push	 ecx
  00040	8b ce		 mov	 ecx, esi
  00042	ff 50 44	 call	 DWORD PTR [eax+68]

; 761  : 
; 762  : 	SetTeam( TEAM_NONE );

  00045	8b 06		 mov	 eax, DWORD PTR [esi]
  00047	6a 00		 push	 0
  00049	8b ce		 mov	 ecx, esi
  0004b	ff 90 dc 00 00
	00		 call	 DWORD PTR [eax+220]

; 763  : }

  00051	8b 4d fc	 mov	 ecx, DWORD PTR __$ArrayPad$[ebp]
  00054	33 cd		 xor	 ecx, ebp
  00056	5e		 pop	 esi
  00057	e8 00 00 00 00	 call	 @__security_check_cookie@4
  0005c	c9		 leave
  0005d	c2 04 00	 ret	 4
?SetSymbolActivity@ioSymbolStruct@@QAEX_N@Z ENDP	; ioSymbolStruct::SetSymbolActivity
_TEXT	ENDS
PUBLIC	?GetSpotPosition@ioSymbolStruct@@QAE?AUD3DXVECTOR3@@M@Z ; ioSymbolStruct::GetSpotPosition
; Function compile flags: /Ogsp
;	COMDAT ?GetSpotPosition@ioSymbolStruct@@QAE?AUD3DXVECTOR3@@M@Z
_TEXT	SEGMENT
$T531181 = -12						; size = 12
_vCurPos$ = -12						; size = 12
___$ReturnUdt$ = 8					; size = 4
_fPositionRate$ = 12					; size = 4
?GetSpotPosition@ioSymbolStruct@@QAE?AUD3DXVECTOR3@@M@Z PROC ; ioSymbolStruct::GetSpotPosition, COMDAT
; _this$ = ecx

; 862  : {

  00000	55		 push	 ebp
  00001	8b ec		 mov	 ebp, esp
  00003	83 ec 0c	 sub	 esp, 12			; 0000000cH
  00006	53		 push	 ebx
  00007	56		 push	 esi
  00008	8b d9		 mov	 ebx, ecx

; 863  : 	D3DXVECTOR3 vCurPos = GetWorldPosition();

  0000a	8b 03		 mov	 eax, DWORD PTR [ebx]
  0000c	57		 push	 edi
  0000d	ff 50 70	 call	 DWORD PTR [eax+112]
  00010	8b f0		 mov	 esi, eax
  00012	8d 7d f4	 lea	 edi, DWORD PTR _vCurPos$[ebp]
  00015	a5		 movsd
  00016	a5		 movsd
  00017	a5		 movsd

; 864  : 
; 865  : 	if( vCurPos == m_vDefaultPos )

  00018	f3 0f 10 45 f4	 movss	 xmm0, DWORD PTR _vCurPos$[ebp]
  0001d	8d b3 80 05 00
	00		 lea	 esi, DWORD PTR [ebx+1408]
  00023	f3 0f 10 2e	 movss	 xmm5, DWORD PTR [esi]
  00027	0f 57 c9	 xorps	 xmm1, xmm1
  0002a	0f 5a c0	 cvtps2pd xmm0, xmm0
  0002d	0f 5a cd	 cvtps2pd xmm1, xmm5
  00030	66 0f 2e c1	 ucomisd xmm0, xmm1
  00034	9f		 lahf
  00035	f6 c4 44	 test	 ah, 68			; 00000044H
  00038	7a 38		 jp	 SHORT $LN1@GetSpotPos
  0003a	f3 0f 10 45 f8	 movss	 xmm0, DWORD PTR _vCurPos$[ebp+4]
  0003f	f3 0f 10 4e 04	 movss	 xmm1, DWORD PTR [esi+4]
  00044	0f 5a c0	 cvtps2pd xmm0, xmm0
  00047	0f 5a c9	 cvtps2pd xmm1, xmm1
  0004a	66 0f 2e c1	 ucomisd xmm0, xmm1
  0004e	9f		 lahf
  0004f	f6 c4 44	 test	 ah, 68			; 00000044H
  00052	7a 1e		 jp	 SHORT $LN1@GetSpotPos
  00054	f3 0f 10 45 fc	 movss	 xmm0, DWORD PTR _vCurPos$[ebp+8]
  00059	f3 0f 10 4e 08	 movss	 xmm1, DWORD PTR [esi+8]
  0005e	0f 5a c0	 cvtps2pd xmm0, xmm0
  00061	0f 5a c9	 cvtps2pd xmm1, xmm1
  00064	66 0f 2e c1	 ucomisd xmm0, xmm1
  00068	9f		 lahf
  00069	f6 c4 44	 test	 ah, 68			; 00000044H

; 866  : 		return m_vDefaultPos;

  0006c	0f 8b c8 00 00
	00		 jnp	 $LN21@GetSpotPos
$LN1@GetSpotPos:

; 867  : 
; 868  : 	D3DXVECTOR3 vDiff = vCurPos - m_vDefaultPos;

  00072	f3 0f 10 45 f4	 movss	 xmm0, DWORD PTR _vCurPos$[ebp]
  00077	f3 0f 10 65 fc	 movss	 xmm4, DWORD PTR _vCurPos$[ebp+8]
  0007c	0f 5a cd	 cvtps2pd xmm1, xmm5
  0007f	0f 5a c0	 cvtps2pd xmm0, xmm0
  00082	f2 0f 5c c1	 subsd	 xmm0, xmm1
  00086	f3 0f 10 4d f8	 movss	 xmm1, DWORD PTR _vCurPos$[ebp+4]
  0008b	0f 57 d2	 xorps	 xmm2, xmm2
  0008e	f2 0f 5a d0	 cvtsd2ss xmm2, xmm0
  00092	f3 0f 10 46 04	 movss	 xmm0, DWORD PTR [esi+4]
  00097	0f 5a d8	 cvtps2pd xmm3, xmm0
  0009a	0f 5a c9	 cvtps2pd xmm1, xmm1
  0009d	f2 0f 5c cb	 subsd	 xmm1, xmm3
  000a1	0f 57 db	 xorps	 xmm3, xmm3
  000a4	f2 0f 5a d9	 cvtsd2ss xmm3, xmm1
  000a8	f3 0f 10 4e 08	 movss	 xmm1, DWORD PTR [esi+8]
  000ad	0f 5a f1	 cvtps2pd xmm6, xmm1
  000b0	0f 5a e4	 cvtps2pd xmm4, xmm4
  000b3	f2 0f 5c e6	 subsd	 xmm4, xmm6

; 869  : 	vDiff = vDiff * fPositionRate;

  000b7	f3 0f 10 75 0c	 movss	 xmm6, DWORD PTR _fPositionRate$[ebp]
  000bc	0f 5a d2	 cvtps2pd xmm2, xmm2
  000bf	0f 5a f6	 cvtps2pd xmm6, xmm6
  000c2	f2 0f 59 d6	 mulsd	 xmm2, xmm6
  000c6	f3 0f 10 75 0c	 movss	 xmm6, DWORD PTR _fPositionRate$[ebp]
  000cb	66 0f 5a d2	 cvtpd2ps xmm2, xmm2

; 870  : 
; 871  : 	vCurPos = m_vDefaultPos + vDiff;

  000cf	f3 0f 5a d2	 cvtss2sd xmm2, xmm2
  000d3	0f 5a f6	 cvtps2pd xmm6, xmm6
  000d6	0f 5a ed	 cvtps2pd xmm5, xmm5
  000d9	f2 0f 58 ea	 addsd	 xmm5, xmm2
  000dd	0f 5a db	 cvtps2pd xmm3, xmm3
  000e0	f2 0f 59 de	 mulsd	 xmm3, xmm6
  000e4	f3 0f 10 75 0c	 movss	 xmm6, DWORD PTR _fPositionRate$[ebp]
  000e9	66 0f 5a d5	 cvtpd2ps xmm2, xmm5
  000ed	0f 5a c0	 cvtps2pd xmm0, xmm0
  000f0	f3 0f 11 55 f4	 movss	 DWORD PTR $T531181[ebp], xmm2
  000f5	66 0f 5a db	 cvtpd2ps xmm3, xmm3
  000f9	0f 57 d2	 xorps	 xmm2, xmm2
  000fc	f3 0f 5a d3	 cvtss2sd xmm2, xmm3
  00100	f2 0f 58 c2	 addsd	 xmm0, xmm2
  00104	66 0f 5a c0	 cvtpd2ps xmm0, xmm0
  00108	f2 0f 5a e4	 cvtsd2ss xmm4, xmm4
  0010c	f3 0f 11 45 f8	 movss	 DWORD PTR $T531181[ebp+4], xmm0
  00111	f3 0f 5a e4	 cvtss2sd xmm4, xmm4
  00115	0f 5a f6	 cvtps2pd xmm6, xmm6
  00118	f2 0f 59 e6	 mulsd	 xmm4, xmm6
  0011c	0f 5a c1	 cvtps2pd xmm0, xmm1
  0011f	f2 0f 5a e4	 cvtsd2ss xmm4, xmm4
  00123	0f 57 c9	 xorps	 xmm1, xmm1
  00126	f3 0f 5a cc	 cvtss2sd xmm1, xmm4
  0012a	f2 0f 58 c1	 addsd	 xmm0, xmm1
  0012e	66 0f 5a c0	 cvtpd2ps xmm0, xmm0
  00132	f3 0f 11 45 fc	 movss	 DWORD PTR $T531181[ebp+8], xmm0

; 872  : 
; 873  : 	return vCurPos;

  00137	8d 75 f4	 lea	 esi, DWORD PTR $T531181[ebp]
$LN21@GetSpotPos:
  0013a	8b 45 08	 mov	 eax, DWORD PTR ___$ReturnUdt$[ebp]
  0013d	8b f8		 mov	 edi, eax
  0013f	a5		 movsd
  00140	a5		 movsd
  00141	a5		 movsd
  00142	5f		 pop	 edi
  00143	5e		 pop	 esi
  00144	5b		 pop	 ebx

; 874  : }

  00145	c9		 leave
  00146	c2 08 00	 ret	 8
?GetSpotPosition@ioSymbolStruct@@QAE?AUD3DXVECTOR3@@M@Z ENDP ; ioSymbolStruct::GetSpotPosition
_TEXT	ENDS
PUBLIC	??D?$CEncrypt@M@@QAEMABH@Z			; CEncrypt<float>::operator*
; Function compile flags: /Ogsp
; File d:\lost saga for developer\youtube\tutorial\source\src\lsclient\encryptvalue.h
;	COMDAT ??D?$CEncrypt@M@@QAEMABH@Z
_TEXT	SEGMENT
_value$ = -4						; size = 4
tv128 = 8						; size = 4
_inValue$ = 8						; size = 4
??D?$CEncrypt@M@@QAEMABH@Z PROC				; CEncrypt<float>::operator*, COMDAT
; _this$ = ecx

; 874  : 	{

  00000	55		 push	 ebp
  00001	8b ec		 mov	 ebp, esp
  00003	51		 push	 ecx

; 875  : 		type value;
; 876  : 		DecryptValueToPool(&value);

  00004	8d 45 fc	 lea	 eax, DWORD PTR _value$[ebp]
  00007	50		 push	 eax
  00008	e8 00 00 00 00	 call	 ?DecryptValueToPool@?$CEncrypt@M@@QAEXPAM@Z ; CEncrypt<float>::DecryptValueToPool

; 877  : #ifdef _NOTUSE
; 878  : 		Debug();
; 879  : #endif
; 880  : 		return value * inValue;

  0000d	8b 45 08	 mov	 eax, DWORD PTR _inValue$[ebp]
  00010	db 00		 fild	 DWORD PTR [eax]
  00012	d8 4d fc	 fmul	 DWORD PTR _value$[ebp]
  00015	d9 5d 08	 fstp	 DWORD PTR tv128[ebp]
  00018	d9 45 08	 fld	 DWORD PTR tv128[ebp]

; 881  : 	}

  0001b	c9		 leave
  0001c	c2 04 00	 ret	 4
??D?$CEncrypt@M@@QAEMABH@Z ENDP				; CEncrypt<float>::operator*
_TEXT	ENDS
PUBLIC	??G?$CEncrypt@M@@QAEMABM@Z			; CEncrypt<float>::operator-
; Function compile flags: /Ogsp
;	COMDAT ??G?$CEncrypt@M@@QAEMABM@Z
_TEXT	SEGMENT
_value$ = -4						; size = 4
tv130 = 8						; size = 4
_inValue$ = 8						; size = 4
??G?$CEncrypt@M@@QAEMABM@Z PROC				; CEncrypt<float>::operator-, COMDAT
; _this$ = ecx

; 1665 : 	{	

  00000	55		 push	 ebp
  00001	8b ec		 mov	 ebp, esp
  00003	51		 push	 ecx

; 1666 : 		type value;
; 1667 : 		DecryptValueToPool(&value);

  00004	8d 45 fc	 lea	 eax, DWORD PTR _value$[ebp]
  00007	50		 push	 eax
  00008	e8 00 00 00 00	 call	 ?DecryptValueToPool@?$CEncrypt@M@@QAEXPAM@Z ; CEncrypt<float>::DecryptValueToPool

; 1668 : #ifdef _NOTUSE
; 1669 : 		Debug();
; 1670 : #endif
; 1671 : 		return value - inValue;

  0000d	d9 45 fc	 fld	 DWORD PTR _value$[ebp]
  00010	8b 45 08	 mov	 eax, DWORD PTR _inValue$[ebp]
  00013	d8 20		 fsub	 DWORD PTR [eax]
  00015	d9 5d 08	 fstp	 DWORD PTR tv130[ebp]
  00018	d9 45 08	 fld	 DWORD PTR tv130[ebp]

; 1672 : 	}

  0001b	c9		 leave
  0001c	c2 04 00	 ret	 4
??G?$CEncrypt@M@@QAEMABM@Z ENDP				; CEncrypt<float>::operator-
_TEXT	ENDS
PUBLIC	??H?$CEncrypt@M@@QAEMABM@Z			; CEncrypt<float>::operator+
; Function compile flags: /Ogsp
;	COMDAT ??H?$CEncrypt@M@@QAEMABM@Z
_TEXT	SEGMENT
_value$ = -4						; size = 4
tv130 = 8						; size = 4
_inValue$ = 8						; size = 4
??H?$CEncrypt@M@@QAEMABM@Z PROC				; CEncrypt<float>::operator+, COMDAT
; _this$ = ecx

; 1675 : 	{	

  00000	55		 push	 ebp
  00001	8b ec		 mov	 ebp, esp
  00003	51		 push	 ecx

; 1676 : 		type value;
; 1677 : 		DecryptValueToPool(&value);

  00004	8d 45 fc	 lea	 eax, DWORD PTR _value$[ebp]
  00007	50		 push	 eax
  00008	e8 00 00 00 00	 call	 ?DecryptValueToPool@?$CEncrypt@M@@QAEXPAM@Z ; CEncrypt<float>::DecryptValueToPool

; 1678 : #ifdef _NOTUSE
; 1679 : 		Debug();
; 1680 : #endif
; 1681 : 		return value + inValue;

  0000d	8b 45 08	 mov	 eax, DWORD PTR _inValue$[ebp]
  00010	d9 00		 fld	 DWORD PTR [eax]
  00012	d8 45 fc	 fadd	 DWORD PTR _value$[ebp]
  00015	d9 5d 08	 fstp	 DWORD PTR tv130[ebp]
  00018	d9 45 08	 fld	 DWORD PTR tv130[ebp]

; 1682 : 	}

  0001b	c9		 leave
  0001c	c2 04 00	 ret	 4
??H?$CEncrypt@M@@QAEMABM@Z ENDP				; CEncrypt<float>::operator+
_TEXT	ENDS
PUBLIC	??D?$CEncrypt@M@@QAEMABM@Z			; CEncrypt<float>::operator*
; Function compile flags: /Ogsp
;	COMDAT ??D?$CEncrypt@M@@QAEMABM@Z
_TEXT	SEGMENT
_value$ = -4						; size = 4
tv130 = 8						; size = 4
_inValue$ = 8						; size = 4
??D?$CEncrypt@M@@QAEMABM@Z PROC				; CEncrypt<float>::operator*, COMDAT
; _this$ = ecx

; 1685 : 	{	

  00000	55		 push	 ebp
  00001	8b ec		 mov	 ebp, esp
  00003	51		 push	 ecx

; 1686 : 		type value;
; 1687 : 		DecryptValueToPool(&value);

  00004	8d 45 fc	 lea	 eax, DWORD PTR _value$[ebp]
  00007	50		 push	 eax
  00008	e8 00 00 00 00	 call	 ?DecryptValueToPool@?$CEncrypt@M@@QAEXPAM@Z ; CEncrypt<float>::DecryptValueToPool

; 1688 : #ifdef _NOTUSE
; 1689 : 		Debug();
; 1690 : #endif
; 1691 : 		return value * inValue;

  0000d	8b 45 08	 mov	 eax, DWORD PTR _inValue$[ebp]
  00010	d9 00		 fld	 DWORD PTR [eax]
  00012	d8 4d fc	 fmul	 DWORD PTR _value$[ebp]
  00015	d9 5d 08	 fstp	 DWORD PTR tv130[ebp]
  00018	d9 45 08	 fld	 DWORD PTR tv130[ebp]

; 1692 : 	}

  0001b	c9		 leave
  0001c	c2 04 00	 ret	 4
??D?$CEncrypt@M@@QAEMABM@Z ENDP				; CEncrypt<float>::operator*
_TEXT	ENDS
PUBLIC	??K?$CEncrypt@M@@QAEMABM@Z			; CEncrypt<float>::operator/
; Function compile flags: /Ogsp
;	COMDAT ??K?$CEncrypt@M@@QAEMABM@Z
_TEXT	SEGMENT
_value$ = -4						; size = 4
tv130 = 8						; size = 4
_inValue$ = 8						; size = 4
??K?$CEncrypt@M@@QAEMABM@Z PROC				; CEncrypt<float>::operator/, COMDAT
; _this$ = ecx

; 1695 : 	{

  00000	55		 push	 ebp
  00001	8b ec		 mov	 ebp, esp
  00003	51		 push	 ecx

; 1696 : 		type value;
; 1697 : 		DecryptValueToPool(&value);

  00004	8d 45 fc	 lea	 eax, DWORD PTR _value$[ebp]
  00007	50		 push	 eax
  00008	e8 00 00 00 00	 call	 ?DecryptValueToPool@?$CEncrypt@M@@QAEXPAM@Z ; CEncrypt<float>::DecryptValueToPool

; 1698 : #ifdef _NOTUSE
; 1699 : 		Debug();
; 1700 : #endif
; 1701 : 		return value / inValue;

  0000d	d9 45 fc	 fld	 DWORD PTR _value$[ebp]
  00010	8b 45 08	 mov	 eax, DWORD PTR _inValue$[ebp]
  00013	d8 30		 fdiv	 DWORD PTR [eax]
  00015	d9 5d 08	 fstp	 DWORD PTR tv130[ebp]
  00018	d9 45 08	 fld	 DWORD PTR tv130[ebp]

; 1702 : 	}

  0001b	c9		 leave
  0001c	c2 04 00	 ret	 4
??K?$CEncrypt@M@@QAEMABM@Z ENDP				; CEncrypt<float>::operator/
_TEXT	ENDS
PUBLIC	??X?$CEncrypt@M@@QAEAAMABM@Z			; CEncrypt<float>::operator*=
; Function compile flags: /Ogsp
;	COMDAT ??X?$CEncrypt@M@@QAEAAMABM@Z
_TEXT	SEGMENT
_value$ = -4						; size = 4
_inValue$ = 8						; size = 4
??X?$CEncrypt@M@@QAEAAMABM@Z PROC			; CEncrypt<float>::operator*=, COMDAT
; _this$ = ecx

; 1741 : 	{

  00000	55		 push	 ebp
  00001	8b ec		 mov	 ebp, esp
  00003	51		 push	 ecx
  00004	56		 push	 esi

; 1742 : 		type value;
; 1743 : 		DecryptValueToPool(&value);

  00005	8d 45 fc	 lea	 eax, DWORD PTR _value$[ebp]
  00008	50		 push	 eax
  00009	8b f1		 mov	 esi, ecx
  0000b	e8 00 00 00 00	 call	 ?DecryptValueToPool@?$CEncrypt@M@@QAEXPAM@Z ; CEncrypt<float>::DecryptValueToPool

; 1744 : 		value *= inValue;

  00010	8b 45 08	 mov	 eax, DWORD PTR _inValue$[ebp]
  00013	f3 0f 10 00	 movss	 xmm0, DWORD PTR [eax]
  00017	f3 0f 10 4d fc	 movss	 xmm1, DWORD PTR _value$[ebp]
  0001c	0f 5a c0	 cvtps2pd xmm0, xmm0
  0001f	0f 5a c9	 cvtps2pd xmm1, xmm1

; 1745 : 		EncryptValueToPool((char*)&value);

  00022	8d 45 fc	 lea	 eax, DWORD PTR _value$[ebp]
  00025	f2 0f 59 c1	 mulsd	 xmm0, xmm1
  00029	66 0f 5a c0	 cvtpd2ps xmm0, xmm0
  0002d	50		 push	 eax
  0002e	8b ce		 mov	 ecx, esi
  00030	f3 0f 11 45 fc	 movss	 DWORD PTR _value$[ebp], xmm0
  00035	e8 00 00 00 00	 call	 ?EncryptValueToPool@?$CEncrypt@M@@AAEXPBD@Z ; CEncrypt<float>::EncryptValueToPool

; 1746 : #ifdef _NOTUSE
; 1747 : 		m_value *= inValue;
; 1748 : 		Debug();
; 1749 : #endif
; 1750 : 		return value;

  0003a	8d 45 fc	 lea	 eax, DWORD PTR _value$[ebp]
  0003d	5e		 pop	 esi

; 1751 : 	} 

  0003e	c9		 leave
  0003f	c2 04 00	 ret	 4
??X?$CEncrypt@M@@QAEAAMABM@Z ENDP			; CEncrypt<float>::operator*=
_TEXT	ENDS
PUBLIC	??8?$CEncrypt@M@@QAE_NABM@Z			; CEncrypt<float>::operator==
; Function compile flags: /Ogsp
;	COMDAT ??8?$CEncrypt@M@@QAE_NABM@Z
_TEXT	SEGMENT
_value$ = -4						; size = 4
_inValue$ = 8						; size = 4
??8?$CEncrypt@M@@QAE_NABM@Z PROC			; CEncrypt<float>::operator==, COMDAT
; _this$ = ecx

; 1781 : 	{

  00000	55		 push	 ebp
  00001	8b ec		 mov	 ebp, esp
  00003	51		 push	 ecx

; 1782 : 		type value;
; 1783 : 		DecryptValueToPool(&value);

  00004	8d 45 fc	 lea	 eax, DWORD PTR _value$[ebp]
  00007	50		 push	 eax
  00008	e8 00 00 00 00	 call	 ?DecryptValueToPool@?$CEncrypt@M@@QAEXPAM@Z ; CEncrypt<float>::DecryptValueToPool

; 1784 : #ifdef _NOTUSE
; 1785 : 		Debug();
; 1786 : #endif
; 1787 : 		return (value == inValue);

  0000d	8b 45 08	 mov	 eax, DWORD PTR _inValue$[ebp]
  00010	f3 0f 10 08	 movss	 xmm1, DWORD PTR [eax]
  00014	f3 0f 10 45 fc	 movss	 xmm0, DWORD PTR _value$[ebp]
  00019	0f 5a c0	 cvtps2pd xmm0, xmm0
  0001c	0f 5a c9	 cvtps2pd xmm1, xmm1
  0001f	66 0f 2e c1	 ucomisd xmm0, xmm1
  00023	9f		 lahf
  00024	f6 c4 44	 test	 ah, 68			; 00000044H
  00027	7a 05		 jp	 SHORT $LN3@operator@2
  00029	33 c0		 xor	 eax, eax
  0002b	40		 inc	 eax
  0002c	eb 02		 jmp	 SHORT $LN4@operator@2
$LN3@operator@2:
  0002e	33 c0		 xor	 eax, eax
$LN4@operator@2:

; 1788 : 	} 

  00030	c9		 leave
  00031	c2 04 00	 ret	 4
??8?$CEncrypt@M@@QAE_NABM@Z ENDP			; CEncrypt<float>::operator==
_TEXT	ENDS
PUBLIC	??M?$CEncrypt@M@@QAE_NABM@Z			; CEncrypt<float>::operator<
; Function compile flags: /Ogsp
;	COMDAT ??M?$CEncrypt@M@@QAE_NABM@Z
_TEXT	SEGMENT
_value$ = -4						; size = 4
_inValue$ = 8						; size = 4
??M?$CEncrypt@M@@QAE_NABM@Z PROC			; CEncrypt<float>::operator<, COMDAT
; _this$ = ecx

; 1791 : 	{

  00000	55		 push	 ebp
  00001	8b ec		 mov	 ebp, esp
  00003	51		 push	 ecx

; 1792 : 		type value;
; 1793 : 		DecryptValueToPool(&value);

  00004	8d 45 fc	 lea	 eax, DWORD PTR _value$[ebp]
  00007	50		 push	 eax
  00008	e8 00 00 00 00	 call	 ?DecryptValueToPool@?$CEncrypt@M@@QAEXPAM@Z ; CEncrypt<float>::DecryptValueToPool

; 1794 : #ifdef _NOTUSE
; 1795 : 		Debug();
; 1796 : #endif
; 1797 : 		return (value < inValue);

  0000d	8b 45 08	 mov	 eax, DWORD PTR _inValue$[ebp]
  00010	f3 0f 10 08	 movss	 xmm1, DWORD PTR [eax]
  00014	f3 0f 10 45 fc	 movss	 xmm0, DWORD PTR _value$[ebp]
  00019	0f 5a c0	 cvtps2pd xmm0, xmm0
  0001c	0f 5a c9	 cvtps2pd xmm1, xmm1
  0001f	33 c0		 xor	 eax, eax
  00021	66 0f 2f c8	 comisd	 xmm1, xmm0
  00025	76 01		 jbe	 SHORT $LN4@operator@3
  00027	40		 inc	 eax
$LN4@operator@3:

; 1798 : 	} 

  00028	c9		 leave
  00029	c2 04 00	 ret	 4
??M?$CEncrypt@M@@QAE_NABM@Z ENDP			; CEncrypt<float>::operator<
_TEXT	ENDS
PUBLIC	??8?$CEncrypt@K@@QAE_NABH@Z			; CEncrypt<unsigned long>::operator==
; Function compile flags: /Ogsp
;	COMDAT ??8?$CEncrypt@K@@QAE_NABH@Z
_TEXT	SEGMENT
_value$ = -4						; size = 4
_inValue$ = 8						; size = 4
??8?$CEncrypt@K@@QAE_NABH@Z PROC			; CEncrypt<unsigned long>::operator==, COMDAT
; _this$ = ecx

; 976  : 	{

  00000	55		 push	 ebp
  00001	8b ec		 mov	 ebp, esp
  00003	51		 push	 ecx

; 977  : 		
; 978  : 		type value;
; 979  : 		DecryptValueToPool(&value);

  00004	8d 45 fc	 lea	 eax, DWORD PTR _value$[ebp]
  00007	50		 push	 eax
  00008	e8 00 00 00 00	 call	 ?DecryptValueToPool@?$CEncrypt@K@@QAEXPAK@Z ; CEncrypt<unsigned long>::DecryptValueToPool

; 980  : #ifdef _NOTUSE
; 981  : 		Debug();
; 982  : #endif
; 983  : 		return (value == inValue);

  0000d	8b 4d 08	 mov	 ecx, DWORD PTR _inValue$[ebp]
  00010	8b 55 fc	 mov	 edx, DWORD PTR _value$[ebp]
  00013	33 c0		 xor	 eax, eax
  00015	3b 11		 cmp	 edx, DWORD PTR [ecx]
  00017	0f 94 c0	 sete	 al

; 984  : 	} 

  0001a	c9		 leave
  0001b	c2 04 00	 ret	 4
??8?$CEncrypt@K@@QAE_NABH@Z ENDP			; CEncrypt<unsigned long>::operator==
_TEXT	ENDS
PUBLIC	??B?$CEncrypt@W4TeamType@@@@QAE?AW4TeamType@@XZ	; CEncrypt<enum TeamType>::operator enum TeamType
; Function compile flags: /Ogsp
;	COMDAT ??B?$CEncrypt@W4TeamType@@@@QAE?AW4TeamType@@XZ
_TEXT	SEGMENT
_value$ = -4						; size = 4
??B?$CEncrypt@W4TeamType@@@@QAE?AW4TeamType@@XZ PROC	; CEncrypt<enum TeamType>::operator enum TeamType, COMDAT
; _this$ = ecx

; 134  : 	{

  00000	55		 push	 ebp
  00001	8b ec		 mov	 ebp, esp
  00003	51		 push	 ecx

; 135  : 		type value;
; 136  : 		DecryptValueToPool(&value);

  00004	8d 45 fc	 lea	 eax, DWORD PTR _value$[ebp]
  00007	50		 push	 eax
  00008	e8 00 00 00 00	 call	 ?DecryptValueToPool@?$CEncrypt@W4TeamType@@@@QAEXPAW4TeamType@@@Z ; CEncrypt<enum TeamType>::DecryptValueToPool

; 137  : 
; 138  : #ifdef _NOTUSE
; 139  : 		Debug();
; 140  : #endif
; 141  : 		return value;

  0000d	8b 45 fc	 mov	 eax, DWORD PTR _value$[ebp]

; 142  : 	}

  00010	c9		 leave
  00011	c3		 ret	 0
??B?$CEncrypt@W4TeamType@@@@QAE?AW4TeamType@@XZ ENDP	; CEncrypt<enum TeamType>::operator enum TeamType
_TEXT	ENDS
PUBLIC	__$ArrayPad$
PUBLIC	??$LoadInt_e@$0L@@ioINILoader@@QAEHAAY0L@$$CBDH@Z ; ioINILoader::LoadInt_e<11>
EXTRN	__imp_?LoadInt@ioINILoader@@QAEHPBDH@Z:PROC
; Function compile flags: /Ogsp
; File d:\lost saga for developer\youtube\tutorial\source\src\io3dengine\ioiniloader.h
;	COMDAT ??$LoadInt_e@$0L@@ioINILoader@@QAEHAAY0L@$$CBDH@Z
_TEXT	SEGMENT
__k$ = -20						; size = 11
__$ArrayPad$ = -4					; size = 4
_k$ = 8							; size = 4
_i$ = 12						; size = 4
??$LoadInt_e@$0L@@ioINILoader@@QAEHAAY0L@$$CBDH@Z PROC	; ioINILoader::LoadInt_e<11>, COMDAT
; _this$ = ecx

; 118  : 	{

  00000	55		 push	 ebp
  00001	8b ec		 mov	 ebp, esp
  00003	83 ec 14	 sub	 esp, 20			; 00000014H
  00006	a1 00 00 00 00	 mov	 eax, DWORD PTR ___security_cookie
  0000b	33 c5		 xor	 eax, ebp
  0000d	89 45 fc	 mov	 DWORD PTR __$ArrayPad$[ebp], eax
  00010	8b 45 08	 mov	 eax, DWORD PTR _k$[ebp]

; 119  : 		_ENCSTR(k, _k);

  00013	8a 10		 mov	 dl, BYTE PTR [eax]
  00015	56		 push	 esi
  00016	8b f1		 mov	 esi, ecx
  00018	84 d2		 test	 dl, dl
  0001a	0f 84 24 01 00
	00		 je	 $LN96@LoadInt_e
  00020	80 f2 ed	 xor	 dl, -19			; ffffffedH
  00023	88 55 ec	 mov	 BYTE PTR __k$[ebp], dl
  00026	8a 50 01	 mov	 dl, BYTE PTR [eax+1]
  00029	84 d2		 test	 dl, dl
  0002b	0f 84 0d 01 00
	00		 je	 $LN95@LoadInt_e
  00031	80 f2 ec	 xor	 dl, -20			; ffffffecH
  00034	88 55 ed	 mov	 BYTE PTR __k$[ebp+1], dl
  00037	8a 50 02	 mov	 dl, BYTE PTR [eax+2]
  0003a	84 d2		 test	 dl, dl
  0003c	0f 84 f6 00 00
	00		 je	 $LN94@LoadInt_e
  00042	80 f2 eb	 xor	 dl, -21			; ffffffebH
  00045	88 55 ee	 mov	 BYTE PTR __k$[ebp+2], dl
  00048	8a 50 03	 mov	 dl, BYTE PTR [eax+3]
  0004b	84 d2		 test	 dl, dl
  0004d	0f 84 df 00 00
	00		 je	 $LN93@LoadInt_e
  00053	80 f2 ea	 xor	 dl, -22			; ffffffeaH
  00056	88 55 ef	 mov	 BYTE PTR __k$[ebp+3], dl
  00059	8a 50 04	 mov	 dl, BYTE PTR [eax+4]
  0005c	84 d2		 test	 dl, dl
  0005e	0f 84 c8 00 00
	00		 je	 $LN92@LoadInt_e
  00064	80 f2 ed	 xor	 dl, -19			; ffffffedH
  00067	88 55 f0	 mov	 BYTE PTR __k$[ebp+4], dl
  0006a	8a 50 05	 mov	 dl, BYTE PTR [eax+5]
  0006d	84 d2		 test	 dl, dl
  0006f	0f 84 b1 00 00
	00		 je	 $LN91@LoadInt_e
  00075	80 f2 ec	 xor	 dl, -20			; ffffffecH
  00078	88 55 f1	 mov	 BYTE PTR __k$[ebp+5], dl
  0007b	8a 50 06	 mov	 dl, BYTE PTR [eax+6]
  0007e	84 d2		 test	 dl, dl
  00080	0f 84 9a 00 00
	00		 je	 $LN90@LoadInt_e
  00086	80 f2 eb	 xor	 dl, -21			; ffffffebH
  00089	88 55 f2	 mov	 BYTE PTR __k$[ebp+6], dl
  0008c	8a 50 07	 mov	 dl, BYTE PTR [eax+7]
  0008f	84 d2		 test	 dl, dl
  00091	0f 84 83 00 00
	00		 je	 $LN89@LoadInt_e
  00097	80 f2 ea	 xor	 dl, -22			; ffffffeaH
  0009a	88 55 f3	 mov	 BYTE PTR __k$[ebp+7], dl
  0009d	8a 50 08	 mov	 dl, BYTE PTR [eax+8]
  000a0	84 d2		 test	 dl, dl
  000a2	74 70		 je	 SHORT $LN88@LoadInt_e
  000a4	80 f2 ed	 xor	 dl, -19			; ffffffedH
  000a7	88 55 f4	 mov	 BYTE PTR __k$[ebp+8], dl
  000aa	8a 50 09	 mov	 dl, BYTE PTR [eax+9]
  000ad	84 d2		 test	 dl, dl
  000af	74 5d		 je	 SHORT $LN87@LoadInt_e
  000b1	80 f2 ec	 xor	 dl, -20			; ffffffecH
  000b4	80 78 0a 00	 cmp	 BYTE PTR [eax+10], 0
  000b8	88 55 f5	 mov	 BYTE PTR __k$[ebp+9], dl
  000bb	0f 84 87 00 00
	00		 je	 $LN1@LoadInt_e
  000c1	8a 50 0b	 mov	 dl, BYTE PTR [eax+11]
  000c4	84 d2		 test	 dl, dl
  000c6	74 40		 je	 SHORT $LN85@LoadInt_e
  000c8	80 f2 ea	 xor	 dl, -22			; ffffffeaH
  000cb	88 55 f7	 mov	 BYTE PTR __k$[ebp+11], dl
  000ce	8a 50 0c	 mov	 dl, BYTE PTR [eax+12]
  000d1	84 d2		 test	 dl, dl
  000d3	74 2d		 je	 SHORT $LN84@LoadInt_e
  000d5	80 f2 ed	 xor	 dl, -19			; ffffffedH
  000d8	88 55 f8	 mov	 BYTE PTR __k$[ebp+12], dl
  000db	8a 50 0d	 mov	 dl, BYTE PTR [eax+13]
  000de	84 d2		 test	 dl, dl
  000e0	74 1a		 je	 SHORT $LN83@LoadInt_e
  000e2	8a 40 0e	 mov	 al, BYTE PTR [eax+14]
  000e5	80 f2 ec	 xor	 dl, -20			; ffffffecH
  000e8	88 55 f9	 mov	 BYTE PTR __k$[ebp+13], dl
  000eb	84 c0		 test	 al, al
  000ed	74 07		 je	 SHORT $LN82@LoadInt_e
  000ef	34 eb		 xor	 al, -21			; ffffffebH
  000f1	88 45 fa	 mov	 BYTE PTR __k$[ebp+14], al
  000f4	eb 52		 jmp	 SHORT $LN1@LoadInt_e
$LN82@LoadInt_e:
  000f6	c6 45 fa eb	 mov	 BYTE PTR __k$[ebp+14], -21 ; ffffffebH
  000fa	eb 4c		 jmp	 SHORT $LN1@LoadInt_e
$LN83@LoadInt_e:
  000fc	c6 45 f9 ec	 mov	 BYTE PTR __k$[ebp+13], -20 ; ffffffecH
  00100	eb 46		 jmp	 SHORT $LN1@LoadInt_e
$LN84@LoadInt_e:
  00102	c6 45 f8 ed	 mov	 BYTE PTR __k$[ebp+12], -19 ; ffffffedH
  00106	eb 40		 jmp	 SHORT $LN1@LoadInt_e
$LN85@LoadInt_e:
  00108	c6 45 f7 ea	 mov	 BYTE PTR __k$[ebp+11], -22 ; ffffffeaH
  0010c	eb 3a		 jmp	 SHORT $LN1@LoadInt_e
$LN87@LoadInt_e:
  0010e	c6 45 f5 ec	 mov	 BYTE PTR __k$[ebp+9], -20 ; ffffffecH
  00112	eb 34		 jmp	 SHORT $LN1@LoadInt_e
$LN88@LoadInt_e:
  00114	c6 45 f4 ed	 mov	 BYTE PTR __k$[ebp+8], -19 ; ffffffedH
  00118	eb 2e		 jmp	 SHORT $LN1@LoadInt_e
$LN89@LoadInt_e:
  0011a	c6 45 f3 ea	 mov	 BYTE PTR __k$[ebp+7], -22 ; ffffffeaH
  0011e	eb 28		 jmp	 SHORT $LN1@LoadInt_e
$LN90@LoadInt_e:
  00120	c6 45 f2 eb	 mov	 BYTE PTR __k$[ebp+6], -21 ; ffffffebH
  00124	eb 22		 jmp	 SHORT $LN1@LoadInt_e
$LN91@LoadInt_e:
  00126	c6 45 f1 ec	 mov	 BYTE PTR __k$[ebp+5], -20 ; ffffffecH
  0012a	eb 1c		 jmp	 SHORT $LN1@LoadInt_e
$LN92@LoadInt_e:
  0012c	c6 45 f0 ed	 mov	 BYTE PTR __k$[ebp+4], -19 ; ffffffedH
  00130	eb 16		 jmp	 SHORT $LN1@LoadInt_e
$LN93@LoadInt_e:
  00132	c6 45 ef ea	 mov	 BYTE PTR __k$[ebp+3], -22 ; ffffffeaH
  00136	eb 10		 jmp	 SHORT $LN1@LoadInt_e
$LN94@LoadInt_e:
  00138	c6 45 ee eb	 mov	 BYTE PTR __k$[ebp+2], -21 ; ffffffebH
  0013c	eb 0a		 jmp	 SHORT $LN1@LoadInt_e
$LN95@LoadInt_e:
  0013e	c6 45 ed ec	 mov	 BYTE PTR __k$[ebp+1], -20 ; ffffffecH
  00142	eb 04		 jmp	 SHORT $LN1@LoadInt_e
$LN96@LoadInt_e:
  00144	c6 45 ec ed	 mov	 BYTE PTR __k$[ebp], -19	; ffffffedH
$LN1@LoadInt_e:
  00148	6a 02		 push	 2
  0014a	8d 45 ec	 lea	 eax, DWORD PTR __k$[ebp]
  0014d	c6 45 f6 00	 mov	 BYTE PTR __k$[ebp+10], 0
  00151	5a		 pop	 edx
$LL104@LoadInt_e:
  00152	81 30 ed ec eb
	ea		 xor	 DWORD PTR [eax], -353637139 ; eaebecedH
  00158	83 c0 04	 add	 eax, 4
  0015b	4a		 dec	 edx
  0015c	75 f4		 jne	 SHORT $LL104@LoadInt_e
  0015e	6a 08		 push	 8
  00160	58		 pop	 eax
$LL101@LoadInt_e:
  00161	8b c8		 mov	 ecx, eax
  00163	81 e1 03 00 00
	80		 and	 ecx, -2147483645	; 80000003H
  00169	79 05		 jns	 SHORT $LN111@LoadInt_e
  0016b	49		 dec	 ecx
  0016c	83 c9 fc	 or	 ecx, -4			; fffffffcH
  0016f	41		 inc	 ecx
$LN111@LoadInt_e:
  00170	b2 ed		 mov	 dl, -19			; ffffffedH
  00172	2a d1		 sub	 dl, cl
  00174	30 54 05 ec	 xor	 BYTE PTR __k$[ebp+eax], dl
  00178	40		 inc	 eax
  00179	83 f8 0a	 cmp	 eax, 10			; 0000000aH
  0017c	7c e3		 jl	 SHORT $LL101@LoadInt_e

; 120  : 		return LoadInt(_k, i);

  0017e	ff 75 0c	 push	 DWORD PTR _i$[ebp]
  00181	8d 45 ec	 lea	 eax, DWORD PTR __k$[ebp]
  00184	50		 push	 eax
  00185	8b ce		 mov	 ecx, esi
  00187	ff 15 00 00 00
	00		 call	 DWORD PTR __imp_?LoadInt@ioINILoader@@QAEHPBDH@Z

; 121  : 	}

  0018d	8b 4d fc	 mov	 ecx, DWORD PTR __$ArrayPad$[ebp]
  00190	33 cd		 xor	 ecx, ebp
  00192	5e		 pop	 esi
  00193	e8 00 00 00 00	 call	 @__security_check_cookie@4
  00198	c9		 leave
  00199	c2 08 00	 ret	 8
??$LoadInt_e@$0L@@ioINILoader@@QAEHAAY0L@$$CBDH@Z ENDP	; ioINILoader::LoadInt_e<11>
_TEXT	ENDS
PUBLIC	__$ArrayPad$
PUBLIC	??$LoadFloat_e@$05@ioINILoader@@QAEMAAY05$$CBDM@Z ; ioINILoader::LoadFloat_e<6>
EXTRN	__imp_?LoadFloat@ioINILoader@@QAEMPBDM@Z:PROC
; Function compile flags: /Ogsp
;	COMDAT ??$LoadFloat_e@$05@ioINILoader@@QAEMAAY05$$CBDM@Z
_TEXT	SEGMENT
__k$ = -16						; size = 6
__$ArrayPad$ = -4					; size = 4
_k$ = 8							; size = 4
_f$ = 12						; size = 4
??$LoadFloat_e@$05@ioINILoader@@QAEMAAY05$$CBDM@Z PROC	; ioINILoader::LoadFloat_e<6>, COMDAT
; _this$ = ecx

; 135  : 	{

  00000	55		 push	 ebp
  00001	8b ec		 mov	 ebp, esp
  00003	83 ec 10	 sub	 esp, 16			; 00000010H
  00006	a1 00 00 00 00	 mov	 eax, DWORD PTR ___security_cookie
  0000b	33 c5		 xor	 eax, ebp
  0000d	89 45 fc	 mov	 DWORD PTR __$ArrayPad$[ebp], eax
  00010	8b 45 08	 mov	 eax, DWORD PTR _k$[ebp]

; 136  : 		_ENCSTR(k, _k);

  00013	8a 10		 mov	 dl, BYTE PTR [eax]
  00015	84 d2		 test	 dl, dl
  00017	0f 84 a9 00 00
	00		 je	 $LN96@LoadFloat_
  0001d	80 f2 ed	 xor	 dl, -19			; ffffffedH
  00020	88 55 f0	 mov	 BYTE PTR __k$[ebp], dl
  00023	8a 50 01	 mov	 dl, BYTE PTR [eax+1]
  00026	84 d2		 test	 dl, dl
  00028	0f 84 92 00 00
	00		 je	 $LN95@LoadFloat_
  0002e	80 f2 ec	 xor	 dl, -20			; ffffffecH
  00031	88 55 f1	 mov	 BYTE PTR __k$[ebp+1], dl
  00034	8a 50 02	 mov	 dl, BYTE PTR [eax+2]
  00037	84 d2		 test	 dl, dl
  00039	74 7f		 je	 SHORT $LN94@LoadFloat_
  0003b	80 f2 eb	 xor	 dl, -21			; ffffffebH
  0003e	88 55 f2	 mov	 BYTE PTR __k$[ebp+2], dl
  00041	8a 50 03	 mov	 dl, BYTE PTR [eax+3]
  00044	84 d2		 test	 dl, dl
  00046	74 6c		 je	 SHORT $LN93@LoadFloat_
  00048	80 f2 ea	 xor	 dl, -22			; ffffffeaH
  0004b	88 55 f3	 mov	 BYTE PTR __k$[ebp+3], dl
  0004e	8a 50 04	 mov	 dl, BYTE PTR [eax+4]
  00051	84 d2		 test	 dl, dl
  00053	74 59		 je	 SHORT $LN92@LoadFloat_
  00055	80 f2 ed	 xor	 dl, -19			; ffffffedH
  00058	80 78 05 00	 cmp	 BYTE PTR [eax+5], 0
  0005c	88 55 f4	 mov	 BYTE PTR __k$[ebp+4], dl
  0005f	74 69		 je	 SHORT $LN1@LoadFloat_
  00061	8a 50 06	 mov	 dl, BYTE PTR [eax+6]
  00064	84 d2		 test	 dl, dl
  00066	74 40		 je	 SHORT $LN90@LoadFloat_
  00068	80 f2 eb	 xor	 dl, -21			; ffffffebH
  0006b	88 55 f6	 mov	 BYTE PTR __k$[ebp+6], dl
  0006e	8a 50 07	 mov	 dl, BYTE PTR [eax+7]
  00071	84 d2		 test	 dl, dl
  00073	74 2d		 je	 SHORT $LN89@LoadFloat_
  00075	80 f2 ea	 xor	 dl, -22			; ffffffeaH
  00078	88 55 f7	 mov	 BYTE PTR __k$[ebp+7], dl
  0007b	8a 50 08	 mov	 dl, BYTE PTR [eax+8]
  0007e	84 d2		 test	 dl, dl
  00080	74 1a		 je	 SHORT $LN88@LoadFloat_
  00082	8a 40 09	 mov	 al, BYTE PTR [eax+9]
  00085	80 f2 ed	 xor	 dl, -19			; ffffffedH
  00088	88 55 f8	 mov	 BYTE PTR __k$[ebp+8], dl
  0008b	84 c0		 test	 al, al
  0008d	74 07		 je	 SHORT $LN87@LoadFloat_
  0008f	34 ec		 xor	 al, -20			; ffffffecH
  00091	88 45 f9	 mov	 BYTE PTR __k$[ebp+9], al
  00094	eb 34		 jmp	 SHORT $LN1@LoadFloat_
$LN87@LoadFloat_:
  00096	c6 45 f9 ec	 mov	 BYTE PTR __k$[ebp+9], -20 ; ffffffecH
  0009a	eb 2e		 jmp	 SHORT $LN1@LoadFloat_
$LN88@LoadFloat_:
  0009c	c6 45 f8 ed	 mov	 BYTE PTR __k$[ebp+8], -19 ; ffffffedH
  000a0	eb 28		 jmp	 SHORT $LN1@LoadFloat_
$LN89@LoadFloat_:
  000a2	c6 45 f7 ea	 mov	 BYTE PTR __k$[ebp+7], -22 ; ffffffeaH
  000a6	eb 22		 jmp	 SHORT $LN1@LoadFloat_
$LN90@LoadFloat_:
  000a8	c6 45 f6 eb	 mov	 BYTE PTR __k$[ebp+6], -21 ; ffffffebH
  000ac	eb 1c		 jmp	 SHORT $LN1@LoadFloat_
$LN92@LoadFloat_:
  000ae	c6 45 f4 ed	 mov	 BYTE PTR __k$[ebp+4], -19 ; ffffffedH
  000b2	eb 16		 jmp	 SHORT $LN1@LoadFloat_
$LN93@LoadFloat_:
  000b4	c6 45 f3 ea	 mov	 BYTE PTR __k$[ebp+3], -22 ; ffffffeaH
  000b8	eb 10		 jmp	 SHORT $LN1@LoadFloat_
$LN94@LoadFloat_:
  000ba	c6 45 f2 eb	 mov	 BYTE PTR __k$[ebp+2], -21 ; ffffffebH
  000be	eb 0a		 jmp	 SHORT $LN1@LoadFloat_
$LN95@LoadFloat_:
  000c0	c6 45 f1 ec	 mov	 BYTE PTR __k$[ebp+1], -20 ; ffffffecH
  000c4	eb 04		 jmp	 SHORT $LN1@LoadFloat_
$LN96@LoadFloat_:
  000c6	c6 45 f0 ed	 mov	 BYTE PTR __k$[ebp], -19	; ffffffedH
$LN1@LoadFloat_:

; 137  : 		return LoadFloat(_k, f);

  000ca	f3 0f 10 45 0c	 movss	 xmm0, DWORD PTR _f$[ebp]
  000cf	81 75 f0 ed ec
	eb ea		 xor	 DWORD PTR __k$[ebp], -353637139 ; eaebecedH
  000d6	80 75 f4 ed	 xor	 BYTE PTR __k$[ebp+4], -19 ; ffffffedH
  000da	51		 push	 ecx
  000db	8d 45 f0	 lea	 eax, DWORD PTR __k$[ebp]
  000de	f3 0f 11 04 24	 movss	 DWORD PTR [esp], xmm0
  000e3	50		 push	 eax
  000e4	c6 45 f5 00	 mov	 BYTE PTR __k$[ebp+5], 0
  000e8	ff 15 00 00 00
	00		 call	 DWORD PTR __imp_?LoadFloat@ioINILoader@@QAEMPBDM@Z

; 138  : 	}

  000ee	8b 4d fc	 mov	 ecx, DWORD PTR __$ArrayPad$[ebp]
  000f1	33 cd		 xor	 ecx, ebp
  000f3	e8 00 00 00 00	 call	 @__security_check_cookie@4
  000f8	c9		 leave
  000f9	c2 08 00	 ret	 8
??$LoadFloat_e@$05@ioINILoader@@QAEMAAY05$$CBDM@Z ENDP	; ioINILoader::LoadFloat_e<6>
_TEXT	ENDS
PUBLIC	__$ArrayPad$
PUBLIC	??$LoadFloat_e@$0BA@@ioINILoader@@QAEMAAY0BA@$$CBDM@Z ; ioINILoader::LoadFloat_e<16>
; Function compile flags: /Ogsp
;	COMDAT ??$LoadFloat_e@$0BA@@ioINILoader@@QAEMAAY0BA@$$CBDM@Z
_TEXT	SEGMENT
__k$ = -24						; size = 16
__$ArrayPad$ = -4					; size = 4
_k$ = 8							; size = 4
_f$ = 12						; size = 4
??$LoadFloat_e@$0BA@@ioINILoader@@QAEMAAY0BA@$$CBDM@Z PROC ; ioINILoader::LoadFloat_e<16>, COMDAT
; _this$ = ecx

; 135  : 	{

  00000	55		 push	 ebp
  00001	8b ec		 mov	 ebp, esp
  00003	83 ec 18	 sub	 esp, 24			; 00000018H
  00006	a1 00 00 00 00	 mov	 eax, DWORD PTR ___security_cookie
  0000b	33 c5		 xor	 eax, ebp
  0000d	89 45 fc	 mov	 DWORD PTR __$ArrayPad$[ebp], eax
  00010	8b 45 08	 mov	 eax, DWORD PTR _k$[ebp]

; 136  : 		_ENCSTR(k, _k);

  00013	8a 10		 mov	 dl, BYTE PTR [eax]
  00015	56		 push	 esi
  00016	8b f1		 mov	 esi, ecx
  00018	84 d2		 test	 dl, dl
  0001a	0f 84 8c 01 00
	00		 je	 $LN96@LoadFloat_@2
  00020	80 f2 ed	 xor	 dl, -19			; ffffffedH
  00023	88 55 e8	 mov	 BYTE PTR __k$[ebp], dl
  00026	8a 50 01	 mov	 dl, BYTE PTR [eax+1]
  00029	84 d2		 test	 dl, dl
  0002b	0f 84 75 01 00
	00		 je	 $LN95@LoadFloat_@2
  00031	80 f2 ec	 xor	 dl, -20			; ffffffecH
  00034	88 55 e9	 mov	 BYTE PTR __k$[ebp+1], dl
  00037	8a 50 02	 mov	 dl, BYTE PTR [eax+2]
  0003a	84 d2		 test	 dl, dl
  0003c	0f 84 5e 01 00
	00		 je	 $LN94@LoadFloat_@2
  00042	b1 eb		 mov	 cl, -21			; ffffffebH
  00044	32 d1		 xor	 dl, cl
  00046	88 55 ea	 mov	 BYTE PTR __k$[ebp+2], dl
  00049	8a 50 03	 mov	 dl, BYTE PTR [eax+3]
  0004c	84 d2		 test	 dl, dl
  0004e	0f 84 46 01 00
	00		 je	 $LN93@LoadFloat_@2
  00054	80 f2 ea	 xor	 dl, -22			; ffffffeaH
  00057	88 55 eb	 mov	 BYTE PTR __k$[ebp+3], dl
  0005a	8a 50 04	 mov	 dl, BYTE PTR [eax+4]
  0005d	84 d2		 test	 dl, dl
  0005f	0f 84 2f 01 00
	00		 je	 $LN92@LoadFloat_@2
  00065	80 f2 ed	 xor	 dl, -19			; ffffffedH
  00068	88 55 ec	 mov	 BYTE PTR __k$[ebp+4], dl
  0006b	8a 50 05	 mov	 dl, BYTE PTR [eax+5]
  0006e	84 d2		 test	 dl, dl
  00070	0f 84 18 01 00
	00		 je	 $LN91@LoadFloat_@2
  00076	80 f2 ec	 xor	 dl, -20			; ffffffecH
  00079	88 55 ed	 mov	 BYTE PTR __k$[ebp+5], dl
  0007c	8a 50 06	 mov	 dl, BYTE PTR [eax+6]
  0007f	84 d2		 test	 dl, dl
  00081	0f 84 02 01 00
	00		 je	 $LN90@LoadFloat_@2
  00087	32 d1		 xor	 dl, cl
  00089	88 55 ee	 mov	 BYTE PTR __k$[ebp+6], dl
  0008c	8a 50 07	 mov	 dl, BYTE PTR [eax+7]
  0008f	84 d2		 test	 dl, dl
  00091	0f 84 ec 00 00
	00		 je	 $LN89@LoadFloat_@2
  00097	80 f2 ea	 xor	 dl, -22			; ffffffeaH
  0009a	88 55 ef	 mov	 BYTE PTR __k$[ebp+7], dl
  0009d	8a 50 08	 mov	 dl, BYTE PTR [eax+8]
  000a0	84 d2		 test	 dl, dl
  000a2	0f 84 d5 00 00
	00		 je	 $LN88@LoadFloat_@2
  000a8	80 f2 ed	 xor	 dl, -19			; ffffffedH
  000ab	88 55 f0	 mov	 BYTE PTR __k$[ebp+8], dl
  000ae	8a 50 09	 mov	 dl, BYTE PTR [eax+9]
  000b1	84 d2		 test	 dl, dl
  000b3	0f 84 be 00 00
	00		 je	 $LN87@LoadFloat_@2
  000b9	80 f2 ec	 xor	 dl, -20			; ffffffecH
  000bc	88 55 f1	 mov	 BYTE PTR __k$[ebp+9], dl
  000bf	8a 50 0a	 mov	 dl, BYTE PTR [eax+10]
  000c2	84 d2		 test	 dl, dl
  000c4	0f 84 a8 00 00
	00		 je	 $LN86@LoadFloat_@2
  000ca	32 d1		 xor	 dl, cl
  000cc	88 55 f2	 mov	 BYTE PTR __k$[ebp+10], dl
  000cf	8a 50 0b	 mov	 dl, BYTE PTR [eax+11]
  000d2	84 d2		 test	 dl, dl
  000d4	0f 84 92 00 00
	00		 je	 $LN85@LoadFloat_@2
  000da	80 f2 ea	 xor	 dl, -22			; ffffffeaH
  000dd	88 55 f3	 mov	 BYTE PTR __k$[ebp+11], dl
  000e0	8a 50 0c	 mov	 dl, BYTE PTR [eax+12]
  000e3	84 d2		 test	 dl, dl
  000e5	74 7f		 je	 SHORT $LN84@LoadFloat_@2
  000e7	80 f2 ed	 xor	 dl, -19			; ffffffedH
  000ea	88 55 f4	 mov	 BYTE PTR __k$[ebp+12], dl
  000ed	8a 50 0d	 mov	 dl, BYTE PTR [eax+13]
  000f0	84 d2		 test	 dl, dl
  000f2	74 6c		 je	 SHORT $LN83@LoadFloat_@2
  000f4	80 f2 ec	 xor	 dl, -20			; ffffffecH
  000f7	88 55 f5	 mov	 BYTE PTR __k$[ebp+13], dl
  000fa	8a 50 0e	 mov	 dl, BYTE PTR [eax+14]
  000fd	84 d2		 test	 dl, dl
  000ff	74 5a		 je	 SHORT $LN82@LoadFloat_@2
  00101	32 d1		 xor	 dl, cl
  00103	80 78 0f 00	 cmp	 BYTE PTR [eax+15], 0
  00107	88 55 f6	 mov	 BYTE PTR __k$[ebp+14], dl
  0010a	0f 84 a0 00 00
	00		 je	 $LN1@LoadFloat_@2
  00110	8a 50 10	 mov	 dl, BYTE PTR [eax+16]
  00113	84 d2		 test	 dl, dl
  00115	74 3e		 je	 SHORT $LN80@LoadFloat_@2
  00117	80 f2 ed	 xor	 dl, -19			; ffffffedH
  0011a	88 55 f8	 mov	 BYTE PTR __k$[ebp+16], dl
  0011d	8a 50 11	 mov	 dl, BYTE PTR [eax+17]
  00120	84 d2		 test	 dl, dl
  00122	74 2b		 je	 SHORT $LN79@LoadFloat_@2
  00124	80 f2 ec	 xor	 dl, -20			; ffffffecH
  00127	88 55 f9	 mov	 BYTE PTR __k$[ebp+17], dl
  0012a	8a 50 12	 mov	 dl, BYTE PTR [eax+18]
  0012d	84 d2		 test	 dl, dl
  0012f	74 19		 je	 SHORT $LN78@LoadFloat_@2
  00131	8a 40 13	 mov	 al, BYTE PTR [eax+19]
  00134	32 d1		 xor	 dl, cl
  00136	88 55 fa	 mov	 BYTE PTR __k$[ebp+18], dl
  00139	84 c0		 test	 al, al
  0013b	74 07		 je	 SHORT $LN77@LoadFloat_@2
  0013d	34 ea		 xor	 al, -22			; ffffffeaH
  0013f	88 45 fb	 mov	 BYTE PTR __k$[ebp+19], al
  00142	eb 6c		 jmp	 SHORT $LN1@LoadFloat_@2
$LN77@LoadFloat_@2:
  00144	c6 45 fb ea	 mov	 BYTE PTR __k$[ebp+19], -22 ; ffffffeaH
  00148	eb 66		 jmp	 SHORT $LN1@LoadFloat_@2
$LN78@LoadFloat_@2:
  0014a	88 4d fa	 mov	 BYTE PTR __k$[ebp+18], cl
  0014d	eb 61		 jmp	 SHORT $LN1@LoadFloat_@2
$LN79@LoadFloat_@2:
  0014f	c6 45 f9 ec	 mov	 BYTE PTR __k$[ebp+17], -20 ; ffffffecH
  00153	eb 5b		 jmp	 SHORT $LN1@LoadFloat_@2
$LN80@LoadFloat_@2:
  00155	c6 45 f8 ed	 mov	 BYTE PTR __k$[ebp+16], -19 ; ffffffedH
  00159	eb 55		 jmp	 SHORT $LN1@LoadFloat_@2
$LN82@LoadFloat_@2:
  0015b	88 4d f6	 mov	 BYTE PTR __k$[ebp+14], cl
  0015e	eb 50		 jmp	 SHORT $LN1@LoadFloat_@2
$LN83@LoadFloat_@2:
  00160	c6 45 f5 ec	 mov	 BYTE PTR __k$[ebp+13], -20 ; ffffffecH
  00164	eb 4a		 jmp	 SHORT $LN1@LoadFloat_@2
$LN84@LoadFloat_@2:
  00166	c6 45 f4 ed	 mov	 BYTE PTR __k$[ebp+12], -19 ; ffffffedH
  0016a	eb 44		 jmp	 SHORT $LN1@LoadFloat_@2
$LN85@LoadFloat_@2:
  0016c	c6 45 f3 ea	 mov	 BYTE PTR __k$[ebp+11], -22 ; ffffffeaH
  00170	eb 3e		 jmp	 SHORT $LN1@LoadFloat_@2
$LN86@LoadFloat_@2:
  00172	88 4d f2	 mov	 BYTE PTR __k$[ebp+10], cl
  00175	eb 39		 jmp	 SHORT $LN1@LoadFloat_@2
$LN87@LoadFloat_@2:
  00177	c6 45 f1 ec	 mov	 BYTE PTR __k$[ebp+9], -20 ; ffffffecH
  0017b	eb 33		 jmp	 SHORT $LN1@LoadFloat_@2
$LN88@LoadFloat_@2:
  0017d	c6 45 f0 ed	 mov	 BYTE PTR __k$[ebp+8], -19 ; ffffffedH
  00181	eb 2d		 jmp	 SHORT $LN1@LoadFloat_@2
$LN89@LoadFloat_@2:
  00183	c6 45 ef ea	 mov	 BYTE PTR __k$[ebp+7], -22 ; ffffffeaH
  00187	eb 27		 jmp	 SHORT $LN1@LoadFloat_@2
$LN90@LoadFloat_@2:
  00189	88 4d ee	 mov	 BYTE PTR __k$[ebp+6], cl
  0018c	eb 22		 jmp	 SHORT $LN1@LoadFloat_@2
$LN91@LoadFloat_@2:
  0018e	c6 45 ed ec	 mov	 BYTE PTR __k$[ebp+5], -20 ; ffffffecH
  00192	eb 1c		 jmp	 SHORT $LN1@LoadFloat_@2
$LN92@LoadFloat_@2:
  00194	c6 45 ec ed	 mov	 BYTE PTR __k$[ebp+4], -19 ; ffffffedH
  00198	eb 16		 jmp	 SHORT $LN1@LoadFloat_@2
$LN93@LoadFloat_@2:
  0019a	c6 45 eb ea	 mov	 BYTE PTR __k$[ebp+3], -22 ; ffffffeaH
  0019e	eb 10		 jmp	 SHORT $LN1@LoadFloat_@2
$LN94@LoadFloat_@2:
  001a0	c6 45 ea eb	 mov	 BYTE PTR __k$[ebp+2], -21 ; ffffffebH
  001a4	eb 0a		 jmp	 SHORT $LN1@LoadFloat_@2
$LN95@LoadFloat_@2:
  001a6	c6 45 e9 ec	 mov	 BYTE PTR __k$[ebp+1], -20 ; ffffffecH
  001aa	eb 04		 jmp	 SHORT $LN1@LoadFloat_@2
$LN96@LoadFloat_@2:
  001ac	c6 45 e8 ed	 mov	 BYTE PTR __k$[ebp], -19	; ffffffedH
$LN1@LoadFloat_@2:
  001b0	6a 03		 push	 3
  001b2	8d 45 e8	 lea	 eax, DWORD PTR __k$[ebp]
  001b5	c6 45 f7 00	 mov	 BYTE PTR __k$[ebp+15], 0
  001b9	5a		 pop	 edx
$LL104@LoadFloat_@2:
  001ba	81 30 ed ec eb
	ea		 xor	 DWORD PTR [eax], -353637139 ; eaebecedH
  001c0	83 c0 04	 add	 eax, 4
  001c3	4a		 dec	 edx
  001c4	75 f4		 jne	 SHORT $LL104@LoadFloat_@2
  001c6	6a 0c		 push	 12			; 0000000cH
  001c8	58		 pop	 eax
$LL101@LoadFloat_@2:
  001c9	8b c8		 mov	 ecx, eax
  001cb	81 e1 03 00 00
	80		 and	 ecx, -2147483645	; 80000003H
  001d1	79 05		 jns	 SHORT $LN111@LoadFloat_@2
  001d3	49		 dec	 ecx
  001d4	83 c9 fc	 or	 ecx, -4			; fffffffcH
  001d7	41		 inc	 ecx
$LN111@LoadFloat_@2:
  001d8	b2 ed		 mov	 dl, -19			; ffffffedH
  001da	2a d1		 sub	 dl, cl
  001dc	30 54 05 e8	 xor	 BYTE PTR __k$[ebp+eax], dl
  001e0	40		 inc	 eax
  001e1	83 f8 0f	 cmp	 eax, 15			; 0000000fH
  001e4	7c e3		 jl	 SHORT $LL101@LoadFloat_@2

; 137  : 		return LoadFloat(_k, f);

  001e6	f3 0f 10 45 0c	 movss	 xmm0, DWORD PTR _f$[ebp]
  001eb	51		 push	 ecx
  001ec	8d 45 e8	 lea	 eax, DWORD PTR __k$[ebp]
  001ef	f3 0f 11 04 24	 movss	 DWORD PTR [esp], xmm0
  001f4	50		 push	 eax
  001f5	8b ce		 mov	 ecx, esi
  001f7	ff 15 00 00 00
	00		 call	 DWORD PTR __imp_?LoadFloat@ioINILoader@@QAEMPBDM@Z

; 138  : 	}

  001fd	8b 4d fc	 mov	 ecx, DWORD PTR __$ArrayPad$[ebp]
  00200	33 cd		 xor	 ecx, ebp
  00202	5e		 pop	 esi
  00203	e8 00 00 00 00	 call	 @__security_check_cookie@4
  00208	c9		 leave
  00209	c2 08 00	 ret	 8
??$LoadFloat_e@$0BA@@ioINILoader@@QAEMAAY0BA@$$CBDM@Z ENDP ; ioINILoader::LoadFloat_e<16>
_TEXT	ENDS
PUBLIC	__$ArrayPad$
PUBLIC	??$LoadFloat_e@$08@ioINILoader@@QAEMAAY08$$CBDM@Z ; ioINILoader::LoadFloat_e<9>
; Function compile flags: /Ogsp
;	COMDAT ??$LoadFloat_e@$08@ioINILoader@@QAEMAAY08$$CBDM@Z
_TEXT	SEGMENT
__k$ = -20						; size = 9
__$ArrayPad$ = -4					; size = 4
_k$ = 8							; size = 4
_f$ = 12						; size = 4
??$LoadFloat_e@$08@ioINILoader@@QAEMAAY08$$CBDM@Z PROC	; ioINILoader::LoadFloat_e<9>, COMDAT
; _this$ = ecx

; 135  : 	{

  00000	55		 push	 ebp
  00001	8b ec		 mov	 ebp, esp
  00003	83 ec 14	 sub	 esp, 20			; 00000014H
  00006	a1 00 00 00 00	 mov	 eax, DWORD PTR ___security_cookie
  0000b	33 c5		 xor	 eax, ebp
  0000d	89 45 fc	 mov	 DWORD PTR __$ArrayPad$[ebp], eax
  00010	8b 45 08	 mov	 eax, DWORD PTR _k$[ebp]

; 136  : 		_ENCSTR(k, _k);

  00013	8a 10		 mov	 dl, BYTE PTR [eax]
  00015	84 d2		 test	 dl, dl
  00017	0f 84 ee 00 00
	00		 je	 $LN96@LoadFloat_@3
  0001d	80 f2 ed	 xor	 dl, -19			; ffffffedH
  00020	88 55 ec	 mov	 BYTE PTR __k$[ebp], dl
  00023	8a 50 01	 mov	 dl, BYTE PTR [eax+1]
  00026	84 d2		 test	 dl, dl
  00028	0f 84 d7 00 00
	00		 je	 $LN95@LoadFloat_@3
  0002e	80 f2 ec	 xor	 dl, -20			; ffffffecH
  00031	88 55 ed	 mov	 BYTE PTR __k$[ebp+1], dl
  00034	8a 50 02	 mov	 dl, BYTE PTR [eax+2]
  00037	84 d2		 test	 dl, dl
  00039	0f 84 c0 00 00
	00		 je	 $LN94@LoadFloat_@3
  0003f	80 f2 eb	 xor	 dl, -21			; ffffffebH
  00042	88 55 ee	 mov	 BYTE PTR __k$[ebp+2], dl
  00045	8a 50 03	 mov	 dl, BYTE PTR [eax+3]
  00048	84 d2		 test	 dl, dl
  0004a	0f 84 a9 00 00
	00		 je	 $LN93@LoadFloat_@3
  00050	80 f2 ea	 xor	 dl, -22			; ffffffeaH
  00053	88 55 ef	 mov	 BYTE PTR __k$[ebp+3], dl
  00056	8a 50 04	 mov	 dl, BYTE PTR [eax+4]
  00059	84 d2		 test	 dl, dl
  0005b	0f 84 92 00 00
	00		 je	 $LN92@LoadFloat_@3
  00061	80 f2 ed	 xor	 dl, -19			; ffffffedH
  00064	88 55 f0	 mov	 BYTE PTR __k$[ebp+4], dl
  00067	8a 50 05	 mov	 dl, BYTE PTR [eax+5]
  0006a	84 d2		 test	 dl, dl
  0006c	74 7f		 je	 SHORT $LN91@LoadFloat_@3
  0006e	80 f2 ec	 xor	 dl, -20			; ffffffecH
  00071	88 55 f1	 mov	 BYTE PTR __k$[ebp+5], dl
  00074	8a 50 06	 mov	 dl, BYTE PTR [eax+6]
  00077	84 d2		 test	 dl, dl
  00079	74 6c		 je	 SHORT $LN90@LoadFloat_@3
  0007b	80 f2 eb	 xor	 dl, -21			; ffffffebH
  0007e	88 55 f2	 mov	 BYTE PTR __k$[ebp+6], dl
  00081	8a 50 07	 mov	 dl, BYTE PTR [eax+7]
  00084	84 d2		 test	 dl, dl
  00086	74 59		 je	 SHORT $LN89@LoadFloat_@3
  00088	80 f2 ea	 xor	 dl, -22			; ffffffeaH
  0008b	80 78 08 00	 cmp	 BYTE PTR [eax+8], 0
  0008f	88 55 f3	 mov	 BYTE PTR __k$[ebp+7], dl
  00092	74 7b		 je	 SHORT $LN1@LoadFloat_@3
  00094	8a 50 09	 mov	 dl, BYTE PTR [eax+9]
  00097	84 d2		 test	 dl, dl
  00099	74 40		 je	 SHORT $LN87@LoadFloat_@3
  0009b	80 f2 ec	 xor	 dl, -20			; ffffffecH
  0009e	88 55 f5	 mov	 BYTE PTR __k$[ebp+9], dl
  000a1	8a 50 0a	 mov	 dl, BYTE PTR [eax+10]
  000a4	84 d2		 test	 dl, dl
  000a6	74 2d		 je	 SHORT $LN86@LoadFloat_@3
  000a8	80 f2 eb	 xor	 dl, -21			; ffffffebH
  000ab	88 55 f6	 mov	 BYTE PTR __k$[ebp+10], dl
  000ae	8a 50 0b	 mov	 dl, BYTE PTR [eax+11]
  000b1	84 d2		 test	 dl, dl
  000b3	74 1a		 je	 SHORT $LN85@LoadFloat_@3
  000b5	8a 40 0c	 mov	 al, BYTE PTR [eax+12]
  000b8	80 f2 ea	 xor	 dl, -22			; ffffffeaH
  000bb	88 55 f7	 mov	 BYTE PTR __k$[ebp+11], dl
  000be	84 c0		 test	 al, al
  000c0	74 07		 je	 SHORT $LN84@LoadFloat_@3
  000c2	34 ed		 xor	 al, -19			; ffffffedH
  000c4	88 45 f8	 mov	 BYTE PTR __k$[ebp+12], al
  000c7	eb 46		 jmp	 SHORT $LN1@LoadFloat_@3
$LN84@LoadFloat_@3:
  000c9	c6 45 f8 ed	 mov	 BYTE PTR __k$[ebp+12], -19 ; ffffffedH
  000cd	eb 40		 jmp	 SHORT $LN1@LoadFloat_@3
$LN85@LoadFloat_@3:
  000cf	c6 45 f7 ea	 mov	 BYTE PTR __k$[ebp+11], -22 ; ffffffeaH
  000d3	eb 3a		 jmp	 SHORT $LN1@LoadFloat_@3
$LN86@LoadFloat_@3:
  000d5	c6 45 f6 eb	 mov	 BYTE PTR __k$[ebp+10], -21 ; ffffffebH
  000d9	eb 34		 jmp	 SHORT $LN1@LoadFloat_@3
$LN87@LoadFloat_@3:
  000db	c6 45 f5 ec	 mov	 BYTE PTR __k$[ebp+9], -20 ; ffffffecH
  000df	eb 2e		 jmp	 SHORT $LN1@LoadFloat_@3
$LN89@LoadFloat_@3:
  000e1	c6 45 f3 ea	 mov	 BYTE PTR __k$[ebp+7], -22 ; ffffffeaH
  000e5	eb 28		 jmp	 SHORT $LN1@LoadFloat_@3
$LN90@LoadFloat_@3:
  000e7	c6 45 f2 eb	 mov	 BYTE PTR __k$[ebp+6], -21 ; ffffffebH
  000eb	eb 22		 jmp	 SHORT $LN1@LoadFloat_@3
$LN91@LoadFloat_@3:
  000ed	c6 45 f1 ec	 mov	 BYTE PTR __k$[ebp+5], -20 ; ffffffecH
  000f1	eb 1c		 jmp	 SHORT $LN1@LoadFloat_@3
$LN92@LoadFloat_@3:
  000f3	c6 45 f0 ed	 mov	 BYTE PTR __k$[ebp+4], -19 ; ffffffedH
  000f7	eb 16		 jmp	 SHORT $LN1@LoadFloat_@3
$LN93@LoadFloat_@3:
  000f9	c6 45 ef ea	 mov	 BYTE PTR __k$[ebp+3], -22 ; ffffffeaH
  000fd	eb 10		 jmp	 SHORT $LN1@LoadFloat_@3
$LN94@LoadFloat_@3:
  000ff	c6 45 ee eb	 mov	 BYTE PTR __k$[ebp+2], -21 ; ffffffebH
  00103	eb 0a		 jmp	 SHORT $LN1@LoadFloat_@3
$LN95@LoadFloat_@3:
  00105	c6 45 ed ec	 mov	 BYTE PTR __k$[ebp+1], -20 ; ffffffecH
  00109	eb 04		 jmp	 SHORT $LN1@LoadFloat_@3
$LN96@LoadFloat_@3:
  0010b	c6 45 ec ed	 mov	 BYTE PTR __k$[ebp], -19	; ffffffedH
$LN1@LoadFloat_@3:
  0010f	6a 02		 push	 2
  00111	8d 45 ec	 lea	 eax, DWORD PTR __k$[ebp]
  00114	c6 45 f4 00	 mov	 BYTE PTR __k$[ebp+8], 0
  00118	5a		 pop	 edx
$LL104@LoadFloat_@3:
  00119	81 30 ed ec eb
	ea		 xor	 DWORD PTR [eax], -353637139 ; eaebecedH
  0011f	83 c0 04	 add	 eax, 4
  00122	4a		 dec	 edx
  00123	75 f4		 jne	 SHORT $LL104@LoadFloat_@3

; 137  : 		return LoadFloat(_k, f);

  00125	f3 0f 10 45 0c	 movss	 xmm0, DWORD PTR _f$[ebp]
  0012a	51		 push	 ecx
  0012b	8d 45 ec	 lea	 eax, DWORD PTR __k$[ebp]
  0012e	f3 0f 11 04 24	 movss	 DWORD PTR [esp], xmm0
  00133	50		 push	 eax
  00134	ff 15 00 00 00
	00		 call	 DWORD PTR __imp_?LoadFloat@ioINILoader@@QAEMPBDM@Z

; 138  : 	}

  0013a	8b 4d fc	 mov	 ecx, DWORD PTR __$ArrayPad$[ebp]
  0013d	33 cd		 xor	 ecx, ebp
  0013f	e8 00 00 00 00	 call	 @__security_check_cookie@4
  00144	c9		 leave
  00145	c2 08 00	 ret	 8
??$LoadFloat_e@$08@ioINILoader@@QAEMAAY08$$CBDM@Z ENDP	; ioINILoader::LoadFloat_e<9>
_TEXT	ENDS
PUBLIC	__$ArrayPad$
PUBLIC	??$LoadFloat_e@$06@ioINILoader@@QAEMAAY06$$CBDM@Z ; ioINILoader::LoadFloat_e<7>
; Function compile flags: /Ogsp
;	COMDAT ??$LoadFloat_e@$06@ioINILoader@@QAEMAAY06$$CBDM@Z
_TEXT	SEGMENT
__k$ = -16						; size = 7
__$ArrayPad$ = -4					; size = 4
_k$ = 8							; size = 4
_f$ = 12						; size = 4
??$LoadFloat_e@$06@ioINILoader@@QAEMAAY06$$CBDM@Z PROC	; ioINILoader::LoadFloat_e<7>, COMDAT
; _this$ = ecx

; 135  : 	{

  00000	55		 push	 ebp
  00001	8b ec		 mov	 ebp, esp
  00003	83 ec 10	 sub	 esp, 16			; 00000010H
  00006	a1 00 00 00 00	 mov	 eax, DWORD PTR ___security_cookie
  0000b	33 c5		 xor	 eax, ebp
  0000d	89 45 fc	 mov	 DWORD PTR __$ArrayPad$[ebp], eax
  00010	8b 45 08	 mov	 eax, DWORD PTR _k$[ebp]

; 136  : 		_ENCSTR(k, _k);

  00013	8a 10		 mov	 dl, BYTE PTR [eax]
  00015	56		 push	 esi
  00016	8b f1		 mov	 esi, ecx
  00018	84 d2		 test	 dl, dl
  0001a	0f 84 c0 00 00
	00		 je	 $LN96@LoadFloat_@4
  00020	80 f2 ed	 xor	 dl, -19			; ffffffedH
  00023	88 55 f0	 mov	 BYTE PTR __k$[ebp], dl
  00026	8a 50 01	 mov	 dl, BYTE PTR [eax+1]
  00029	84 d2		 test	 dl, dl
  0002b	0f 84 a9 00 00
	00		 je	 $LN95@LoadFloat_@4
  00031	80 f2 ec	 xor	 dl, -20			; ffffffecH
  00034	88 55 f1	 mov	 BYTE PTR __k$[ebp+1], dl
  00037	8a 50 02	 mov	 dl, BYTE PTR [eax+2]
  0003a	84 d2		 test	 dl, dl
  0003c	0f 84 92 00 00
	00		 je	 $LN94@LoadFloat_@4
  00042	80 f2 eb	 xor	 dl, -21			; ffffffebH
  00045	88 55 f2	 mov	 BYTE PTR __k$[ebp+2], dl
  00048	8a 50 03	 mov	 dl, BYTE PTR [eax+3]
  0004b	84 d2		 test	 dl, dl
  0004d	74 7f		 je	 SHORT $LN93@LoadFloat_@4
  0004f	80 f2 ea	 xor	 dl, -22			; ffffffeaH
  00052	88 55 f3	 mov	 BYTE PTR __k$[ebp+3], dl
  00055	8a 50 04	 mov	 dl, BYTE PTR [eax+4]
  00058	84 d2		 test	 dl, dl
  0005a	74 6c		 je	 SHORT $LN92@LoadFloat_@4
  0005c	80 f2 ed	 xor	 dl, -19			; ffffffedH
  0005f	88 55 f4	 mov	 BYTE PTR __k$[ebp+4], dl
  00062	8a 50 05	 mov	 dl, BYTE PTR [eax+5]
  00065	84 d2		 test	 dl, dl
  00067	74 59		 je	 SHORT $LN91@LoadFloat_@4
  00069	80 f2 ec	 xor	 dl, -20			; ffffffecH
  0006c	80 78 06 00	 cmp	 BYTE PTR [eax+6], 0
  00070	88 55 f5	 mov	 BYTE PTR __k$[ebp+5], dl
  00073	74 6f		 je	 SHORT $LN1@LoadFloat_@4
  00075	8a 50 07	 mov	 dl, BYTE PTR [eax+7]
  00078	84 d2		 test	 dl, dl
  0007a	74 40		 je	 SHORT $LN89@LoadFloat_@4
  0007c	80 f2 ea	 xor	 dl, -22			; ffffffeaH
  0007f	88 55 f7	 mov	 BYTE PTR __k$[ebp+7], dl
  00082	8a 50 08	 mov	 dl, BYTE PTR [eax+8]
  00085	84 d2		 test	 dl, dl
  00087	74 2d		 je	 SHORT $LN88@LoadFloat_@4
  00089	80 f2 ed	 xor	 dl, -19			; ffffffedH
  0008c	88 55 f8	 mov	 BYTE PTR __k$[ebp+8], dl
  0008f	8a 50 09	 mov	 dl, BYTE PTR [eax+9]
  00092	84 d2		 test	 dl, dl
  00094	74 1a		 je	 SHORT $LN87@LoadFloat_@4
  00096	8a 40 0a	 mov	 al, BYTE PTR [eax+10]
  00099	80 f2 ec	 xor	 dl, -20			; ffffffecH
  0009c	88 55 f9	 mov	 BYTE PTR __k$[ebp+9], dl
  0009f	84 c0		 test	 al, al
  000a1	74 07		 je	 SHORT $LN86@LoadFloat_@4
  000a3	34 eb		 xor	 al, -21			; ffffffebH
  000a5	88 45 fa	 mov	 BYTE PTR __k$[ebp+10], al
  000a8	eb 3a		 jmp	 SHORT $LN1@LoadFloat_@4
$LN86@LoadFloat_@4:
  000aa	c6 45 fa eb	 mov	 BYTE PTR __k$[ebp+10], -21 ; ffffffebH
  000ae	eb 34		 jmp	 SHORT $LN1@LoadFloat_@4
$LN87@LoadFloat_@4:
  000b0	c6 45 f9 ec	 mov	 BYTE PTR __k$[ebp+9], -20 ; ffffffecH
  000b4	eb 2e		 jmp	 SHORT $LN1@LoadFloat_@4
$LN88@LoadFloat_@4:
  000b6	c6 45 f8 ed	 mov	 BYTE PTR __k$[ebp+8], -19 ; ffffffedH
  000ba	eb 28		 jmp	 SHORT $LN1@LoadFloat_@4
$LN89@LoadFloat_@4:
  000bc	c6 45 f7 ea	 mov	 BYTE PTR __k$[ebp+7], -22 ; ffffffeaH
  000c0	eb 22		 jmp	 SHORT $LN1@LoadFloat_@4
$LN91@LoadFloat_@4:
  000c2	c6 45 f5 ec	 mov	 BYTE PTR __k$[ebp+5], -20 ; ffffffecH
  000c6	eb 1c		 jmp	 SHORT $LN1@LoadFloat_@4
$LN92@LoadFloat_@4:
  000c8	c6 45 f4 ed	 mov	 BYTE PTR __k$[ebp+4], -19 ; ffffffedH
  000cc	eb 16		 jmp	 SHORT $LN1@LoadFloat_@4
$LN93@LoadFloat_@4:
  000ce	c6 45 f3 ea	 mov	 BYTE PTR __k$[ebp+3], -22 ; ffffffeaH
  000d2	eb 10		 jmp	 SHORT $LN1@LoadFloat_@4
$LN94@LoadFloat_@4:
  000d4	c6 45 f2 eb	 mov	 BYTE PTR __k$[ebp+2], -21 ; ffffffebH
  000d8	eb 0a		 jmp	 SHORT $LN1@LoadFloat_@4
$LN95@LoadFloat_@4:
  000da	c6 45 f1 ec	 mov	 BYTE PTR __k$[ebp+1], -20 ; ffffffecH
  000de	eb 04		 jmp	 SHORT $LN1@LoadFloat_@4
$LN96@LoadFloat_@4:
  000e0	c6 45 f0 ed	 mov	 BYTE PTR __k$[ebp], -19	; ffffffedH
$LN1@LoadFloat_@4:
  000e4	81 75 f0 ed ec
	eb ea		 xor	 DWORD PTR __k$[ebp], -353637139 ; eaebecedH
  000eb	6a 04		 push	 4
  000ed	c6 45 f6 00	 mov	 BYTE PTR __k$[ebp+6], 0
  000f1	58		 pop	 eax
$LL101@LoadFloat_@4:
  000f2	8b c8		 mov	 ecx, eax
  000f4	81 e1 03 00 00
	80		 and	 ecx, -2147483645	; 80000003H
  000fa	79 05		 jns	 SHORT $LN111@LoadFloat_@4
  000fc	49		 dec	 ecx
  000fd	83 c9 fc	 or	 ecx, -4			; fffffffcH
  00100	41		 inc	 ecx
$LN111@LoadFloat_@4:
  00101	b2 ed		 mov	 dl, -19			; ffffffedH
  00103	2a d1		 sub	 dl, cl
  00105	30 54 05 f0	 xor	 BYTE PTR __k$[ebp+eax], dl
  00109	40		 inc	 eax
  0010a	83 f8 06	 cmp	 eax, 6
  0010d	7c e3		 jl	 SHORT $LL101@LoadFloat_@4

; 137  : 		return LoadFloat(_k, f);

  0010f	f3 0f 10 45 0c	 movss	 xmm0, DWORD PTR _f$[ebp]
  00114	51		 push	 ecx
  00115	8d 45 f0	 lea	 eax, DWORD PTR __k$[ebp]
  00118	f3 0f 11 04 24	 movss	 DWORD PTR [esp], xmm0
  0011d	50		 push	 eax
  0011e	8b ce		 mov	 ecx, esi
  00120	ff 15 00 00 00
	00		 call	 DWORD PTR __imp_?LoadFloat@ioINILoader@@QAEMPBDM@Z

; 138  : 	}

  00126	8b 4d fc	 mov	 ecx, DWORD PTR __$ArrayPad$[ebp]
  00129	33 cd		 xor	 ecx, ebp
  0012b	5e		 pop	 esi
  0012c	e8 00 00 00 00	 call	 @__security_check_cookie@4
  00131	c9		 leave
  00132	c2 08 00	 ret	 8
??$LoadFloat_e@$06@ioINILoader@@QAEMAAY06$$CBDM@Z ENDP	; ioINILoader::LoadFloat_e<7>
_TEXT	ENDS
PUBLIC	__$ArrayPad$
PUBLIC	??$LoadFloat_e@$0M@@ioINILoader@@QAEMAAY0M@$$CBDM@Z ; ioINILoader::LoadFloat_e<12>
; Function compile flags: /Ogsp
;	COMDAT ??$LoadFloat_e@$0M@@ioINILoader@@QAEMAAY0M@$$CBDM@Z
_TEXT	SEGMENT
__k$ = -20						; size = 12
__$ArrayPad$ = -4					; size = 4
_k$ = 8							; size = 4
_f$ = 12						; size = 4
??$LoadFloat_e@$0M@@ioINILoader@@QAEMAAY0M@$$CBDM@Z PROC ; ioINILoader::LoadFloat_e<12>, COMDAT
; _this$ = ecx

; 135  : 	{

  00000	55		 push	 ebp
  00001	8b ec		 mov	 ebp, esp
  00003	83 ec 14	 sub	 esp, 20			; 00000014H
  00006	a1 00 00 00 00	 mov	 eax, DWORD PTR ___security_cookie
  0000b	33 c5		 xor	 eax, ebp
  0000d	89 45 fc	 mov	 DWORD PTR __$ArrayPad$[ebp], eax
  00010	8b 45 08	 mov	 eax, DWORD PTR _k$[ebp]

; 136  : 		_ENCSTR(k, _k);

  00013	8a 10		 mov	 dl, BYTE PTR [eax]
  00015	56		 push	 esi
  00016	8b f1		 mov	 esi, ecx
  00018	84 d2		 test	 dl, dl
  0001a	0f 84 32 01 00
	00		 je	 $LN96@LoadFloat_@5
  00020	80 f2 ed	 xor	 dl, -19			; ffffffedH
  00023	88 55 ec	 mov	 BYTE PTR __k$[ebp], dl
  00026	8a 50 01	 mov	 dl, BYTE PTR [eax+1]
  00029	84 d2		 test	 dl, dl
  0002b	0f 84 1b 01 00
	00		 je	 $LN95@LoadFloat_@5
  00031	80 f2 ec	 xor	 dl, -20			; ffffffecH
  00034	88 55 ed	 mov	 BYTE PTR __k$[ebp+1], dl
  00037	8a 50 02	 mov	 dl, BYTE PTR [eax+2]
  0003a	84 d2		 test	 dl, dl
  0003c	0f 84 04 01 00
	00		 je	 $LN94@LoadFloat_@5
  00042	b1 eb		 mov	 cl, -21			; ffffffebH
  00044	32 d1		 xor	 dl, cl
  00046	88 55 ee	 mov	 BYTE PTR __k$[ebp+2], dl
  00049	8a 50 03	 mov	 dl, BYTE PTR [eax+3]
  0004c	84 d2		 test	 dl, dl
  0004e	0f 84 ec 00 00
	00		 je	 $LN93@LoadFloat_@5
  00054	80 f2 ea	 xor	 dl, -22			; ffffffeaH
  00057	88 55 ef	 mov	 BYTE PTR __k$[ebp+3], dl
  0005a	8a 50 04	 mov	 dl, BYTE PTR [eax+4]
  0005d	84 d2		 test	 dl, dl
  0005f	0f 84 d5 00 00
	00		 je	 $LN92@LoadFloat_@5
  00065	80 f2 ed	 xor	 dl, -19			; ffffffedH
  00068	88 55 f0	 mov	 BYTE PTR __k$[ebp+4], dl
  0006b	8a 50 05	 mov	 dl, BYTE PTR [eax+5]
  0006e	84 d2		 test	 dl, dl
  00070	0f 84 be 00 00
	00		 je	 $LN91@LoadFloat_@5
  00076	80 f2 ec	 xor	 dl, -20			; ffffffecH
  00079	88 55 f1	 mov	 BYTE PTR __k$[ebp+5], dl
  0007c	8a 50 06	 mov	 dl, BYTE PTR [eax+6]
  0007f	84 d2		 test	 dl, dl
  00081	0f 84 a8 00 00
	00		 je	 $LN90@LoadFloat_@5
  00087	32 d1		 xor	 dl, cl
  00089	88 55 f2	 mov	 BYTE PTR __k$[ebp+6], dl
  0008c	8a 50 07	 mov	 dl, BYTE PTR [eax+7]
  0008f	84 d2		 test	 dl, dl
  00091	0f 84 92 00 00
	00		 je	 $LN89@LoadFloat_@5
  00097	80 f2 ea	 xor	 dl, -22			; ffffffeaH
  0009a	88 55 f3	 mov	 BYTE PTR __k$[ebp+7], dl
  0009d	8a 50 08	 mov	 dl, BYTE PTR [eax+8]
  000a0	84 d2		 test	 dl, dl
  000a2	74 7f		 je	 SHORT $LN88@LoadFloat_@5
  000a4	80 f2 ed	 xor	 dl, -19			; ffffffedH
  000a7	88 55 f4	 mov	 BYTE PTR __k$[ebp+8], dl
  000aa	8a 50 09	 mov	 dl, BYTE PTR [eax+9]
  000ad	84 d2		 test	 dl, dl
  000af	74 6c		 je	 SHORT $LN87@LoadFloat_@5
  000b1	80 f2 ec	 xor	 dl, -20			; ffffffecH
  000b4	88 55 f5	 mov	 BYTE PTR __k$[ebp+9], dl
  000b7	8a 50 0a	 mov	 dl, BYTE PTR [eax+10]
  000ba	84 d2		 test	 dl, dl
  000bc	74 5a		 je	 SHORT $LN86@LoadFloat_@5
  000be	32 d1		 xor	 dl, cl
  000c0	80 78 0b 00	 cmp	 BYTE PTR [eax+11], 0
  000c4	88 55 f6	 mov	 BYTE PTR __k$[ebp+10], dl
  000c7	0f 84 89 00 00
	00		 je	 $LN1@LoadFloat_@5
  000cd	8a 50 0c	 mov	 dl, BYTE PTR [eax+12]
  000d0	84 d2		 test	 dl, dl
  000d2	74 3e		 je	 SHORT $LN84@LoadFloat_@5
  000d4	80 f2 ed	 xor	 dl, -19			; ffffffedH
  000d7	88 55 f8	 mov	 BYTE PTR __k$[ebp+12], dl
  000da	8a 50 0d	 mov	 dl, BYTE PTR [eax+13]
  000dd	84 d2		 test	 dl, dl
  000df	74 2b		 je	 SHORT $LN83@LoadFloat_@5
  000e1	80 f2 ec	 xor	 dl, -20			; ffffffecH
  000e4	88 55 f9	 mov	 BYTE PTR __k$[ebp+13], dl
  000e7	8a 50 0e	 mov	 dl, BYTE PTR [eax+14]
  000ea	84 d2		 test	 dl, dl
  000ec	74 19		 je	 SHORT $LN82@LoadFloat_@5
  000ee	8a 40 0f	 mov	 al, BYTE PTR [eax+15]
  000f1	32 d1		 xor	 dl, cl
  000f3	88 55 fa	 mov	 BYTE PTR __k$[ebp+14], dl
  000f6	84 c0		 test	 al, al
  000f8	74 07		 je	 SHORT $LN81@LoadFloat_@5
  000fa	34 ea		 xor	 al, -22			; ffffffeaH
  000fc	88 45 fb	 mov	 BYTE PTR __k$[ebp+15], al
  000ff	eb 55		 jmp	 SHORT $LN1@LoadFloat_@5
$LN81@LoadFloat_@5:
  00101	c6 45 fb ea	 mov	 BYTE PTR __k$[ebp+15], -22 ; ffffffeaH
  00105	eb 4f		 jmp	 SHORT $LN1@LoadFloat_@5
$LN82@LoadFloat_@5:
  00107	88 4d fa	 mov	 BYTE PTR __k$[ebp+14], cl
  0010a	eb 4a		 jmp	 SHORT $LN1@LoadFloat_@5
$LN83@LoadFloat_@5:
  0010c	c6 45 f9 ec	 mov	 BYTE PTR __k$[ebp+13], -20 ; ffffffecH
  00110	eb 44		 jmp	 SHORT $LN1@LoadFloat_@5
$LN84@LoadFloat_@5:
  00112	c6 45 f8 ed	 mov	 BYTE PTR __k$[ebp+12], -19 ; ffffffedH
  00116	eb 3e		 jmp	 SHORT $LN1@LoadFloat_@5
$LN86@LoadFloat_@5:
  00118	88 4d f6	 mov	 BYTE PTR __k$[ebp+10], cl
  0011b	eb 39		 jmp	 SHORT $LN1@LoadFloat_@5
$LN87@LoadFloat_@5:
  0011d	c6 45 f5 ec	 mov	 BYTE PTR __k$[ebp+9], -20 ; ffffffecH
  00121	eb 33		 jmp	 SHORT $LN1@LoadFloat_@5
$LN88@LoadFloat_@5:
  00123	c6 45 f4 ed	 mov	 BYTE PTR __k$[ebp+8], -19 ; ffffffedH
  00127	eb 2d		 jmp	 SHORT $LN1@LoadFloat_@5
$LN89@LoadFloat_@5:
  00129	c6 45 f3 ea	 mov	 BYTE PTR __k$[ebp+7], -22 ; ffffffeaH
  0012d	eb 27		 jmp	 SHORT $LN1@LoadFloat_@5
$LN90@LoadFloat_@5:
  0012f	88 4d f2	 mov	 BYTE PTR __k$[ebp+6], cl
  00132	eb 22		 jmp	 SHORT $LN1@LoadFloat_@5
$LN91@LoadFloat_@5:
  00134	c6 45 f1 ec	 mov	 BYTE PTR __k$[ebp+5], -20 ; ffffffecH
  00138	eb 1c		 jmp	 SHORT $LN1@LoadFloat_@5
$LN92@LoadFloat_@5:
  0013a	c6 45 f0 ed	 mov	 BYTE PTR __k$[ebp+4], -19 ; ffffffedH
  0013e	eb 16		 jmp	 SHORT $LN1@LoadFloat_@5
$LN93@LoadFloat_@5:
  00140	c6 45 ef ea	 mov	 BYTE PTR __k$[ebp+3], -22 ; ffffffeaH
  00144	eb 10		 jmp	 SHORT $LN1@LoadFloat_@5
$LN94@LoadFloat_@5:
  00146	c6 45 ee eb	 mov	 BYTE PTR __k$[ebp+2], -21 ; ffffffebH
  0014a	eb 0a		 jmp	 SHORT $LN1@LoadFloat_@5
$LN95@LoadFloat_@5:
  0014c	c6 45 ed ec	 mov	 BYTE PTR __k$[ebp+1], -20 ; ffffffecH
  00150	eb 04		 jmp	 SHORT $LN1@LoadFloat_@5
$LN96@LoadFloat_@5:
  00152	c6 45 ec ed	 mov	 BYTE PTR __k$[ebp], -19	; ffffffedH
$LN1@LoadFloat_@5:
  00156	6a 02		 push	 2
  00158	8d 45 ec	 lea	 eax, DWORD PTR __k$[ebp]
  0015b	c6 45 f7 00	 mov	 BYTE PTR __k$[ebp+11], 0
  0015f	5a		 pop	 edx
$LL104@LoadFloat_@5:
  00160	81 30 ed ec eb
	ea		 xor	 DWORD PTR [eax], -353637139 ; eaebecedH
  00166	83 c0 04	 add	 eax, 4
  00169	4a		 dec	 edx
  0016a	75 f4		 jne	 SHORT $LL104@LoadFloat_@5
  0016c	6a 08		 push	 8
  0016e	58		 pop	 eax
$LL101@LoadFloat_@5:
  0016f	8b c8		 mov	 ecx, eax
  00171	81 e1 03 00 00
	80		 and	 ecx, -2147483645	; 80000003H
  00177	79 05		 jns	 SHORT $LN111@LoadFloat_@5
  00179	49		 dec	 ecx
  0017a	83 c9 fc	 or	 ecx, -4			; fffffffcH
  0017d	41		 inc	 ecx
$LN111@LoadFloat_@5:
  0017e	b2 ed		 mov	 dl, -19			; ffffffedH
  00180	2a d1		 sub	 dl, cl
  00182	30 54 05 ec	 xor	 BYTE PTR __k$[ebp+eax], dl
  00186	40		 inc	 eax
  00187	83 f8 0b	 cmp	 eax, 11			; 0000000bH
  0018a	7c e3		 jl	 SHORT $LL101@LoadFloat_@5

; 137  : 		return LoadFloat(_k, f);

  0018c	f3 0f 10 45 0c	 movss	 xmm0, DWORD PTR _f$[ebp]
  00191	51		 push	 ecx
  00192	8d 45 ec	 lea	 eax, DWORD PTR __k$[ebp]
  00195	f3 0f 11 04 24	 movss	 DWORD PTR [esp], xmm0
  0019a	50		 push	 eax
  0019b	8b ce		 mov	 ecx, esi
  0019d	ff 15 00 00 00
	00		 call	 DWORD PTR __imp_?LoadFloat@ioINILoader@@QAEMPBDM@Z

; 138  : 	}

  001a3	8b 4d fc	 mov	 ecx, DWORD PTR __$ArrayPad$[ebp]
  001a6	33 cd		 xor	 ecx, ebp
  001a8	5e		 pop	 esi
  001a9	e8 00 00 00 00	 call	 @__security_check_cookie@4
  001ae	c9		 leave
  001af	c2 08 00	 ret	 8
??$LoadFloat_e@$0M@@ioINILoader@@QAEMAAY0M@$$CBDM@Z ENDP ; ioINILoader::LoadFloat_e<12>
_TEXT	ENDS
PUBLIC	__$ArrayPad$
PUBLIC	??$LoadInt_e@$0BB@@ioINILoader@@QAEHAAY0BB@$$CBDH@Z ; ioINILoader::LoadInt_e<17>
; Function compile flags: /Ogsp
;	COMDAT ??$LoadInt_e@$0BB@@ioINILoader@@QAEHAAY0BB@$$CBDH@Z
_TEXT	SEGMENT
__k$ = -28						; size = 17
__$ArrayPad$ = -4					; size = 4
_k$ = 8							; size = 4
_i$ = 12						; size = 4
??$LoadInt_e@$0BB@@ioINILoader@@QAEHAAY0BB@$$CBDH@Z PROC ; ioINILoader::LoadInt_e<17>, COMDAT
; _this$ = ecx

; 118  : 	{

  00000	55		 push	 ebp
  00001	8b ec		 mov	 ebp, esp
  00003	83 ec 1c	 sub	 esp, 28			; 0000001cH
  00006	a1 00 00 00 00	 mov	 eax, DWORD PTR ___security_cookie
  0000b	33 c5		 xor	 eax, ebp
  0000d	89 45 fc	 mov	 DWORD PTR __$ArrayPad$[ebp], eax
  00010	8b 45 08	 mov	 eax, DWORD PTR _k$[ebp]

; 119  : 		_ENCSTR(k, _k);

  00013	8a 10		 mov	 dl, BYTE PTR [eax]
  00015	56		 push	 esi
  00016	8b f1		 mov	 esi, ecx
  00018	84 d2		 test	 dl, dl
  0001a	0f 84 a7 01 00
	00		 je	 $LN96@LoadInt_e@2
  00020	80 f2 ed	 xor	 dl, -19			; ffffffedH
  00023	88 55 e4	 mov	 BYTE PTR __k$[ebp], dl
  00026	8a 50 01	 mov	 dl, BYTE PTR [eax+1]
  00029	84 d2		 test	 dl, dl
  0002b	0f 84 90 01 00
	00		 je	 $LN95@LoadInt_e@2
  00031	b1 ec		 mov	 cl, -20			; ffffffecH
  00033	32 d1		 xor	 dl, cl
  00035	88 55 e5	 mov	 BYTE PTR __k$[ebp+1], dl
  00038	8a 50 02	 mov	 dl, BYTE PTR [eax+2]
  0003b	84 d2		 test	 dl, dl
  0003d	0f 84 78 01 00
	00		 je	 $LN94@LoadInt_e@2
  00043	80 f2 eb	 xor	 dl, -21			; ffffffebH
  00046	88 55 e6	 mov	 BYTE PTR __k$[ebp+2], dl
  00049	8a 50 03	 mov	 dl, BYTE PTR [eax+3]
  0004c	84 d2		 test	 dl, dl
  0004e	0f 84 61 01 00
	00		 je	 $LN93@LoadInt_e@2
  00054	80 f2 ea	 xor	 dl, -22			; ffffffeaH
  00057	88 55 e7	 mov	 BYTE PTR __k$[ebp+3], dl
  0005a	8a 50 04	 mov	 dl, BYTE PTR [eax+4]
  0005d	84 d2		 test	 dl, dl
  0005f	0f 84 4a 01 00
	00		 je	 $LN92@LoadInt_e@2
  00065	80 f2 ed	 xor	 dl, -19			; ffffffedH
  00068	88 55 e8	 mov	 BYTE PTR __k$[ebp+4], dl
  0006b	8a 50 05	 mov	 dl, BYTE PTR [eax+5]
  0006e	84 d2		 test	 dl, dl
  00070	0f 84 34 01 00
	00		 je	 $LN91@LoadInt_e@2
  00076	32 d1		 xor	 dl, cl
  00078	88 55 e9	 mov	 BYTE PTR __k$[ebp+5], dl
  0007b	8a 50 06	 mov	 dl, BYTE PTR [eax+6]
  0007e	84 d2		 test	 dl, dl
  00080	0f 84 1e 01 00
	00		 je	 $LN90@LoadInt_e@2
  00086	80 f2 eb	 xor	 dl, -21			; ffffffebH
  00089	88 55 ea	 mov	 BYTE PTR __k$[ebp+6], dl
  0008c	8a 50 07	 mov	 dl, BYTE PTR [eax+7]
  0008f	84 d2		 test	 dl, dl
  00091	0f 84 07 01 00
	00		 je	 $LN89@LoadInt_e@2
  00097	80 f2 ea	 xor	 dl, -22			; ffffffeaH
  0009a	88 55 eb	 mov	 BYTE PTR __k$[ebp+7], dl
  0009d	8a 50 08	 mov	 dl, BYTE PTR [eax+8]
  000a0	84 d2		 test	 dl, dl
  000a2	0f 84 f0 00 00
	00		 je	 $LN88@LoadInt_e@2
  000a8	80 f2 ed	 xor	 dl, -19			; ffffffedH
  000ab	88 55 ec	 mov	 BYTE PTR __k$[ebp+8], dl
  000ae	8a 50 09	 mov	 dl, BYTE PTR [eax+9]
  000b1	84 d2		 test	 dl, dl
  000b3	0f 84 da 00 00
	00		 je	 $LN87@LoadInt_e@2
  000b9	32 d1		 xor	 dl, cl
  000bb	88 55 ed	 mov	 BYTE PTR __k$[ebp+9], dl
  000be	8a 50 0a	 mov	 dl, BYTE PTR [eax+10]
  000c1	84 d2		 test	 dl, dl
  000c3	0f 84 c4 00 00
	00		 je	 $LN86@LoadInt_e@2
  000c9	80 f2 eb	 xor	 dl, -21			; ffffffebH
  000cc	88 55 ee	 mov	 BYTE PTR __k$[ebp+10], dl
  000cf	8a 50 0b	 mov	 dl, BYTE PTR [eax+11]
  000d2	84 d2		 test	 dl, dl
  000d4	0f 84 ad 00 00
	00		 je	 $LN85@LoadInt_e@2
  000da	80 f2 ea	 xor	 dl, -22			; ffffffeaH
  000dd	88 55 ef	 mov	 BYTE PTR __k$[ebp+11], dl
  000e0	8a 50 0c	 mov	 dl, BYTE PTR [eax+12]
  000e3	84 d2		 test	 dl, dl
  000e5	0f 84 96 00 00
	00		 je	 $LN84@LoadInt_e@2
  000eb	80 f2 ed	 xor	 dl, -19			; ffffffedH
  000ee	88 55 f0	 mov	 BYTE PTR __k$[ebp+12], dl
  000f1	8a 50 0d	 mov	 dl, BYTE PTR [eax+13]
  000f4	84 d2		 test	 dl, dl
  000f6	0f 84 80 00 00
	00		 je	 $LN83@LoadInt_e@2
  000fc	32 d1		 xor	 dl, cl
  000fe	88 55 f1	 mov	 BYTE PTR __k$[ebp+13], dl
  00101	8a 50 0e	 mov	 dl, BYTE PTR [eax+14]
  00104	84 d2		 test	 dl, dl
  00106	74 6e		 je	 SHORT $LN82@LoadInt_e@2
  00108	80 f2 eb	 xor	 dl, -21			; ffffffebH
  0010b	88 55 f2	 mov	 BYTE PTR __k$[ebp+14], dl
  0010e	8a 50 0f	 mov	 dl, BYTE PTR [eax+15]
  00111	84 d2		 test	 dl, dl
  00113	74 5b		 je	 SHORT $LN81@LoadInt_e@2
  00115	80 f2 ea	 xor	 dl, -22			; ffffffeaH
  00118	80 78 10 00	 cmp	 BYTE PTR [eax+16], 0
  0011c	88 55 f3	 mov	 BYTE PTR __k$[ebp+15], dl
  0011f	0f 84 a6 00 00
	00		 je	 $LN1@LoadInt_e@2
  00125	8a 50 11	 mov	 dl, BYTE PTR [eax+17]
  00128	84 d2		 test	 dl, dl
  0012a	74 3f		 je	 SHORT $LN79@LoadInt_e@2
  0012c	32 d1		 xor	 dl, cl
  0012e	88 55 f5	 mov	 BYTE PTR __k$[ebp+17], dl
  00131	8a 50 12	 mov	 dl, BYTE PTR [eax+18]
  00134	84 d2		 test	 dl, dl
  00136	74 2d		 je	 SHORT $LN78@LoadInt_e@2
  00138	80 f2 eb	 xor	 dl, -21			; ffffffebH
  0013b	88 55 f6	 mov	 BYTE PTR __k$[ebp+18], dl
  0013e	8a 50 13	 mov	 dl, BYTE PTR [eax+19]
  00141	84 d2		 test	 dl, dl
  00143	74 1a		 je	 SHORT $LN77@LoadInt_e@2
  00145	8a 40 14	 mov	 al, BYTE PTR [eax+20]
  00148	80 f2 ea	 xor	 dl, -22			; ffffffeaH
  0014b	88 55 f7	 mov	 BYTE PTR __k$[ebp+19], dl
  0014e	84 c0		 test	 al, al
  00150	74 07		 je	 SHORT $LN76@LoadInt_e@2
  00152	34 ed		 xor	 al, -19			; ffffffedH
  00154	88 45 f8	 mov	 BYTE PTR __k$[ebp+20], al
  00157	eb 72		 jmp	 SHORT $LN1@LoadInt_e@2
$LN76@LoadInt_e@2:
  00159	c6 45 f8 ed	 mov	 BYTE PTR __k$[ebp+20], -19 ; ffffffedH
  0015d	eb 6c		 jmp	 SHORT $LN1@LoadInt_e@2
$LN77@LoadInt_e@2:
  0015f	c6 45 f7 ea	 mov	 BYTE PTR __k$[ebp+19], -22 ; ffffffeaH
  00163	eb 66		 jmp	 SHORT $LN1@LoadInt_e@2
$LN78@LoadInt_e@2:
  00165	c6 45 f6 eb	 mov	 BYTE PTR __k$[ebp+18], -21 ; ffffffebH
  00169	eb 60		 jmp	 SHORT $LN1@LoadInt_e@2
$LN79@LoadInt_e@2:
  0016b	88 4d f5	 mov	 BYTE PTR __k$[ebp+17], cl
  0016e	eb 5b		 jmp	 SHORT $LN1@LoadInt_e@2
$LN81@LoadInt_e@2:
  00170	c6 45 f3 ea	 mov	 BYTE PTR __k$[ebp+15], -22 ; ffffffeaH
  00174	eb 55		 jmp	 SHORT $LN1@LoadInt_e@2
$LN82@LoadInt_e@2:
  00176	c6 45 f2 eb	 mov	 BYTE PTR __k$[ebp+14], -21 ; ffffffebH
  0017a	eb 4f		 jmp	 SHORT $LN1@LoadInt_e@2
$LN83@LoadInt_e@2:
  0017c	88 4d f1	 mov	 BYTE PTR __k$[ebp+13], cl
  0017f	eb 4a		 jmp	 SHORT $LN1@LoadInt_e@2
$LN84@LoadInt_e@2:
  00181	c6 45 f0 ed	 mov	 BYTE PTR __k$[ebp+12], -19 ; ffffffedH
  00185	eb 44		 jmp	 SHORT $LN1@LoadInt_e@2
$LN85@LoadInt_e@2:
  00187	c6 45 ef ea	 mov	 BYTE PTR __k$[ebp+11], -22 ; ffffffeaH
  0018b	eb 3e		 jmp	 SHORT $LN1@LoadInt_e@2
$LN86@LoadInt_e@2:
  0018d	c6 45 ee eb	 mov	 BYTE PTR __k$[ebp+10], -21 ; ffffffebH
  00191	eb 38		 jmp	 SHORT $LN1@LoadInt_e@2
$LN87@LoadInt_e@2:
  00193	88 4d ed	 mov	 BYTE PTR __k$[ebp+9], cl
  00196	eb 33		 jmp	 SHORT $LN1@LoadInt_e@2
$LN88@LoadInt_e@2:
  00198	c6 45 ec ed	 mov	 BYTE PTR __k$[ebp+8], -19 ; ffffffedH
  0019c	eb 2d		 jmp	 SHORT $LN1@LoadInt_e@2
$LN89@LoadInt_e@2:
  0019e	c6 45 eb ea	 mov	 BYTE PTR __k$[ebp+7], -22 ; ffffffeaH
  001a2	eb 27		 jmp	 SHORT $LN1@LoadInt_e@2
$LN90@LoadInt_e@2:
  001a4	c6 45 ea eb	 mov	 BYTE PTR __k$[ebp+6], -21 ; ffffffebH
  001a8	eb 21		 jmp	 SHORT $LN1@LoadInt_e@2
$LN91@LoadInt_e@2:
  001aa	88 4d e9	 mov	 BYTE PTR __k$[ebp+5], cl
  001ad	eb 1c		 jmp	 SHORT $LN1@LoadInt_e@2
$LN92@LoadInt_e@2:
  001af	c6 45 e8 ed	 mov	 BYTE PTR __k$[ebp+4], -19 ; ffffffedH
  001b3	eb 16		 jmp	 SHORT $LN1@LoadInt_e@2
$LN93@LoadInt_e@2:
  001b5	c6 45 e7 ea	 mov	 BYTE PTR __k$[ebp+3], -22 ; ffffffeaH
  001b9	eb 10		 jmp	 SHORT $LN1@LoadInt_e@2
$LN94@LoadInt_e@2:
  001bb	c6 45 e6 eb	 mov	 BYTE PTR __k$[ebp+2], -21 ; ffffffebH
  001bf	eb 0a		 jmp	 SHORT $LN1@LoadInt_e@2
$LN95@LoadInt_e@2:
  001c1	c6 45 e5 ec	 mov	 BYTE PTR __k$[ebp+1], -20 ; ffffffecH
  001c5	eb 04		 jmp	 SHORT $LN1@LoadInt_e@2
$LN96@LoadInt_e@2:
  001c7	c6 45 e4 ed	 mov	 BYTE PTR __k$[ebp], -19	; ffffffedH
$LN1@LoadInt_e@2:
  001cb	6a 04		 push	 4
  001cd	8d 45 e4	 lea	 eax, DWORD PTR __k$[ebp]
  001d0	c6 45 f4 00	 mov	 BYTE PTR __k$[ebp+16], 0
  001d4	5a		 pop	 edx
$LL104@LoadInt_e@2:
  001d5	81 30 ed ec eb
	ea		 xor	 DWORD PTR [eax], -353637139 ; eaebecedH
  001db	83 c0 04	 add	 eax, 4
  001de	4a		 dec	 edx
  001df	75 f4		 jne	 SHORT $LL104@LoadInt_e@2

; 120  : 		return LoadInt(_k, i);

  001e1	ff 75 0c	 push	 DWORD PTR _i$[ebp]
  001e4	8d 45 e4	 lea	 eax, DWORD PTR __k$[ebp]
  001e7	50		 push	 eax
  001e8	8b ce		 mov	 ecx, esi
  001ea	ff 15 00 00 00
	00		 call	 DWORD PTR __imp_?LoadInt@ioINILoader@@QAEHPBDH@Z

; 121  : 	}

  001f0	8b 4d fc	 mov	 ecx, DWORD PTR __$ArrayPad$[ebp]
  001f3	33 cd		 xor	 ecx, ebp
  001f5	5e		 pop	 esi
  001f6	e8 00 00 00 00	 call	 @__security_check_cookie@4
  001fb	c9		 leave
  001fc	c2 08 00	 ret	 8
??$LoadInt_e@$0BB@@ioINILoader@@QAEHAAY0BB@$$CBDH@Z ENDP ; ioINILoader::LoadInt_e<17>
_TEXT	ENDS
PUBLIC	__$ArrayPad$
PUBLIC	??$LoadFloat_e@$0BB@@ioINILoader@@QAEMAAY0BB@$$CBDM@Z ; ioINILoader::LoadFloat_e<17>
; Function compile flags: /Ogsp
;	COMDAT ??$LoadFloat_e@$0BB@@ioINILoader@@QAEMAAY0BB@$$CBDM@Z
_TEXT	SEGMENT
__k$ = -28						; size = 17
__$ArrayPad$ = -4					; size = 4
_k$ = 8							; size = 4
_f$ = 12						; size = 4
??$LoadFloat_e@$0BB@@ioINILoader@@QAEMAAY0BB@$$CBDM@Z PROC ; ioINILoader::LoadFloat_e<17>, COMDAT
; _this$ = ecx

; 135  : 	{

  00000	55		 push	 ebp
  00001	8b ec		 mov	 ebp, esp
  00003	83 ec 1c	 sub	 esp, 28			; 0000001cH
  00006	a1 00 00 00 00	 mov	 eax, DWORD PTR ___security_cookie
  0000b	33 c5		 xor	 eax, ebp
  0000d	89 45 fc	 mov	 DWORD PTR __$ArrayPad$[ebp], eax
  00010	8b 45 08	 mov	 eax, DWORD PTR _k$[ebp]

; 136  : 		_ENCSTR(k, _k);

  00013	8a 10		 mov	 dl, BYTE PTR [eax]
  00015	56		 push	 esi
  00016	8b f1		 mov	 esi, ecx
  00018	84 d2		 test	 dl, dl
  0001a	0f 84 a7 01 00
	00		 je	 $LN96@LoadFloat_@6
  00020	80 f2 ed	 xor	 dl, -19			; ffffffedH
  00023	88 55 e4	 mov	 BYTE PTR __k$[ebp], dl
  00026	8a 50 01	 mov	 dl, BYTE PTR [eax+1]
  00029	84 d2		 test	 dl, dl
  0002b	0f 84 90 01 00
	00		 je	 $LN95@LoadFloat_@6
  00031	b1 ec		 mov	 cl, -20			; ffffffecH
  00033	32 d1		 xor	 dl, cl
  00035	88 55 e5	 mov	 BYTE PTR __k$[ebp+1], dl
  00038	8a 50 02	 mov	 dl, BYTE PTR [eax+2]
  0003b	84 d2		 test	 dl, dl
  0003d	0f 84 78 01 00
	00		 je	 $LN94@LoadFloat_@6
  00043	80 f2 eb	 xor	 dl, -21			; ffffffebH
  00046	88 55 e6	 mov	 BYTE PTR __k$[ebp+2], dl
  00049	8a 50 03	 mov	 dl, BYTE PTR [eax+3]
  0004c	84 d2		 test	 dl, dl
  0004e	0f 84 61 01 00
	00		 je	 $LN93@LoadFloat_@6
  00054	80 f2 ea	 xor	 dl, -22			; ffffffeaH
  00057	88 55 e7	 mov	 BYTE PTR __k$[ebp+3], dl
  0005a	8a 50 04	 mov	 dl, BYTE PTR [eax+4]
  0005d	84 d2		 test	 dl, dl
  0005f	0f 84 4a 01 00
	00		 je	 $LN92@LoadFloat_@6
  00065	80 f2 ed	 xor	 dl, -19			; ffffffedH
  00068	88 55 e8	 mov	 BYTE PTR __k$[ebp+4], dl
  0006b	8a 50 05	 mov	 dl, BYTE PTR [eax+5]
  0006e	84 d2		 test	 dl, dl
  00070	0f 84 34 01 00
	00		 je	 $LN91@LoadFloat_@6
  00076	32 d1		 xor	 dl, cl
  00078	88 55 e9	 mov	 BYTE PTR __k$[ebp+5], dl
  0007b	8a 50 06	 mov	 dl, BYTE PTR [eax+6]
  0007e	84 d2		 test	 dl, dl
  00080	0f 84 1e 01 00
	00		 je	 $LN90@LoadFloat_@6
  00086	80 f2 eb	 xor	 dl, -21			; ffffffebH
  00089	88 55 ea	 mov	 BYTE PTR __k$[ebp+6], dl
  0008c	8a 50 07	 mov	 dl, BYTE PTR [eax+7]
  0008f	84 d2		 test	 dl, dl
  00091	0f 84 07 01 00
	00		 je	 $LN89@LoadFloat_@6
  00097	80 f2 ea	 xor	 dl, -22			; ffffffeaH
  0009a	88 55 eb	 mov	 BYTE PTR __k$[ebp+7], dl
  0009d	8a 50 08	 mov	 dl, BYTE PTR [eax+8]
  000a0	84 d2		 test	 dl, dl
  000a2	0f 84 f0 00 00
	00		 je	 $LN88@LoadFloat_@6
  000a8	80 f2 ed	 xor	 dl, -19			; ffffffedH
  000ab	88 55 ec	 mov	 BYTE PTR __k$[ebp+8], dl
  000ae	8a 50 09	 mov	 dl, BYTE PTR [eax+9]
  000b1	84 d2		 test	 dl, dl
  000b3	0f 84 da 00 00
	00		 je	 $LN87@LoadFloat_@6
  000b9	32 d1		 xor	 dl, cl
  000bb	88 55 ed	 mov	 BYTE PTR __k$[ebp+9], dl
  000be	8a 50 0a	 mov	 dl, BYTE PTR [eax+10]
  000c1	84 d2		 test	 dl, dl
  000c3	0f 84 c4 00 00
	00		 je	 $LN86@LoadFloat_@6
  000c9	80 f2 eb	 xor	 dl, -21			; ffffffebH
  000cc	88 55 ee	 mov	 BYTE PTR __k$[ebp+10], dl
  000cf	8a 50 0b	 mov	 dl, BYTE PTR [eax+11]
  000d2	84 d2		 test	 dl, dl
  000d4	0f 84 ad 00 00
	00		 je	 $LN85@LoadFloat_@6
  000da	80 f2 ea	 xor	 dl, -22			; ffffffeaH
  000dd	88 55 ef	 mov	 BYTE PTR __k$[ebp+11], dl
  000e0	8a 50 0c	 mov	 dl, BYTE PTR [eax+12]
  000e3	84 d2		 test	 dl, dl
  000e5	0f 84 96 00 00
	00		 je	 $LN84@LoadFloat_@6
  000eb	80 f2 ed	 xor	 dl, -19			; ffffffedH
  000ee	88 55 f0	 mov	 BYTE PTR __k$[ebp+12], dl
  000f1	8a 50 0d	 mov	 dl, BYTE PTR [eax+13]
  000f4	84 d2		 test	 dl, dl
  000f6	0f 84 80 00 00
	00		 je	 $LN83@LoadFloat_@6
  000fc	32 d1		 xor	 dl, cl
  000fe	88 55 f1	 mov	 BYTE PTR __k$[ebp+13], dl
  00101	8a 50 0e	 mov	 dl, BYTE PTR [eax+14]
  00104	84 d2		 test	 dl, dl
  00106	74 6e		 je	 SHORT $LN82@LoadFloat_@6
  00108	80 f2 eb	 xor	 dl, -21			; ffffffebH
  0010b	88 55 f2	 mov	 BYTE PTR __k$[ebp+14], dl
  0010e	8a 50 0f	 mov	 dl, BYTE PTR [eax+15]
  00111	84 d2		 test	 dl, dl
  00113	74 5b		 je	 SHORT $LN81@LoadFloat_@6
  00115	80 f2 ea	 xor	 dl, -22			; ffffffeaH
  00118	80 78 10 00	 cmp	 BYTE PTR [eax+16], 0
  0011c	88 55 f3	 mov	 BYTE PTR __k$[ebp+15], dl
  0011f	0f 84 a6 00 00
	00		 je	 $LN1@LoadFloat_@6
  00125	8a 50 11	 mov	 dl, BYTE PTR [eax+17]
  00128	84 d2		 test	 dl, dl
  0012a	74 3f		 je	 SHORT $LN79@LoadFloat_@6
  0012c	32 d1		 xor	 dl, cl
  0012e	88 55 f5	 mov	 BYTE PTR __k$[ebp+17], dl
  00131	8a 50 12	 mov	 dl, BYTE PTR [eax+18]
  00134	84 d2		 test	 dl, dl
  00136	74 2d		 je	 SHORT $LN78@LoadFloat_@6
  00138	80 f2 eb	 xor	 dl, -21			; ffffffebH
  0013b	88 55 f6	 mov	 BYTE PTR __k$[ebp+18], dl
  0013e	8a 50 13	 mov	 dl, BYTE PTR [eax+19]
  00141	84 d2		 test	 dl, dl
  00143	74 1a		 je	 SHORT $LN77@LoadFloat_@6
  00145	8a 40 14	 mov	 al, BYTE PTR [eax+20]
  00148	80 f2 ea	 xor	 dl, -22			; ffffffeaH
  0014b	88 55 f7	 mov	 BYTE PTR __k$[ebp+19], dl
  0014e	84 c0		 test	 al, al
  00150	74 07		 je	 SHORT $LN76@LoadFloat_@6
  00152	34 ed		 xor	 al, -19			; ffffffedH
  00154	88 45 f8	 mov	 BYTE PTR __k$[ebp+20], al
  00157	eb 72		 jmp	 SHORT $LN1@LoadFloat_@6
$LN76@LoadFloat_@6:
  00159	c6 45 f8 ed	 mov	 BYTE PTR __k$[ebp+20], -19 ; ffffffedH
  0015d	eb 6c		 jmp	 SHORT $LN1@LoadFloat_@6
$LN77@LoadFloat_@6:
  0015f	c6 45 f7 ea	 mov	 BYTE PTR __k$[ebp+19], -22 ; ffffffeaH
  00163	eb 66		 jmp	 SHORT $LN1@LoadFloat_@6
$LN78@LoadFloat_@6:
  00165	c6 45 f6 eb	 mov	 BYTE PTR __k$[ebp+18], -21 ; ffffffebH
  00169	eb 60		 jmp	 SHORT $LN1@LoadFloat_@6
$LN79@LoadFloat_@6:
  0016b	88 4d f5	 mov	 BYTE PTR __k$[ebp+17], cl
  0016e	eb 5b		 jmp	 SHORT $LN1@LoadFloat_@6
$LN81@LoadFloat_@6:
  00170	c6 45 f3 ea	 mov	 BYTE PTR __k$[ebp+15], -22 ; ffffffeaH
  00174	eb 55		 jmp	 SHORT $LN1@LoadFloat_@6
$LN82@LoadFloat_@6:
  00176	c6 45 f2 eb	 mov	 BYTE PTR __k$[ebp+14], -21 ; ffffffebH
  0017a	eb 4f		 jmp	 SHORT $LN1@LoadFloat_@6
$LN83@LoadFloat_@6:
  0017c	88 4d f1	 mov	 BYTE PTR __k$[ebp+13], cl
  0017f	eb 4a		 jmp	 SHORT $LN1@LoadFloat_@6
$LN84@LoadFloat_@6:
  00181	c6 45 f0 ed	 mov	 BYTE PTR __k$[ebp+12], -19 ; ffffffedH
  00185	eb 44		 jmp	 SHORT $LN1@LoadFloat_@6
$LN85@LoadFloat_@6:
  00187	c6 45 ef ea	 mov	 BYTE PTR __k$[ebp+11], -22 ; ffffffeaH
  0018b	eb 3e		 jmp	 SHORT $LN1@LoadFloat_@6
$LN86@LoadFloat_@6:
  0018d	c6 45 ee eb	 mov	 BYTE PTR __k$[ebp+10], -21 ; ffffffebH
  00191	eb 38		 jmp	 SHORT $LN1@LoadFloat_@6
$LN87@LoadFloat_@6:
  00193	88 4d ed	 mov	 BYTE PTR __k$[ebp+9], cl
  00196	eb 33		 jmp	 SHORT $LN1@LoadFloat_@6
$LN88@LoadFloat_@6:
  00198	c6 45 ec ed	 mov	 BYTE PTR __k$[ebp+8], -19 ; ffffffedH
  0019c	eb 2d		 jmp	 SHORT $LN1@LoadFloat_@6
$LN89@LoadFloat_@6:
  0019e	c6 45 eb ea	 mov	 BYTE PTR __k$[ebp+7], -22 ; ffffffeaH
  001a2	eb 27		 jmp	 SHORT $LN1@LoadFloat_@6
$LN90@LoadFloat_@6:
  001a4	c6 45 ea eb	 mov	 BYTE PTR __k$[ebp+6], -21 ; ffffffebH
  001a8	eb 21		 jmp	 SHORT $LN1@LoadFloat_@6
$LN91@LoadFloat_@6:
  001aa	88 4d e9	 mov	 BYTE PTR __k$[ebp+5], cl
  001ad	eb 1c		 jmp	 SHORT $LN1@LoadFloat_@6
$LN92@LoadFloat_@6:
  001af	c6 45 e8 ed	 mov	 BYTE PTR __k$[ebp+4], -19 ; ffffffedH
  001b3	eb 16		 jmp	 SHORT $LN1@LoadFloat_@6
$LN93@LoadFloat_@6:
  001b5	c6 45 e7 ea	 mov	 BYTE PTR __k$[ebp+3], -22 ; ffffffeaH
  001b9	eb 10		 jmp	 SHORT $LN1@LoadFloat_@6
$LN94@LoadFloat_@6:
  001bb	c6 45 e6 eb	 mov	 BYTE PTR __k$[ebp+2], -21 ; ffffffebH
  001bf	eb 0a		 jmp	 SHORT $LN1@LoadFloat_@6
$LN95@LoadFloat_@6:
  001c1	c6 45 e5 ec	 mov	 BYTE PTR __k$[ebp+1], -20 ; ffffffecH
  001c5	eb 04		 jmp	 SHORT $LN1@LoadFloat_@6
$LN96@LoadFloat_@6:
  001c7	c6 45 e4 ed	 mov	 BYTE PTR __k$[ebp], -19	; ffffffedH
$LN1@LoadFloat_@6:
  001cb	6a 04		 push	 4
  001cd	8d 45 e4	 lea	 eax, DWORD PTR __k$[ebp]
  001d0	c6 45 f4 00	 mov	 BYTE PTR __k$[ebp+16], 0
  001d4	5a		 pop	 edx
$LL104@LoadFloat_@6:
  001d5	81 30 ed ec eb
	ea		 xor	 DWORD PTR [eax], -353637139 ; eaebecedH
  001db	83 c0 04	 add	 eax, 4
  001de	4a		 dec	 edx
  001df	75 f4		 jne	 SHORT $LL104@LoadFloat_@6

; 137  : 		return LoadFloat(_k, f);

  001e1	f3 0f 10 45 0c	 movss	 xmm0, DWORD PTR _f$[ebp]
  001e6	51		 push	 ecx
  001e7	8d 45 e4	 lea	 eax, DWORD PTR __k$[ebp]
  001ea	f3 0f 11 04 24	 movss	 DWORD PTR [esp], xmm0
  001ef	50		 push	 eax
  001f0	8b ce		 mov	 ecx, esi
  001f2	ff 15 00 00 00
	00		 call	 DWORD PTR __imp_?LoadFloat@ioINILoader@@QAEMPBDM@Z

; 138  : 	}

  001f8	8b 4d fc	 mov	 ecx, DWORD PTR __$ArrayPad$[ebp]
  001fb	33 cd		 xor	 ecx, ebp
  001fd	5e		 pop	 esi
  001fe	e8 00 00 00 00	 call	 @__security_check_cookie@4
  00203	c9		 leave
  00204	c2 08 00	 ret	 8
??$LoadFloat_e@$0BB@@ioINILoader@@QAEMAAY0BB@$$CBDM@Z ENDP ; ioINILoader::LoadFloat_e<17>
_TEXT	ENDS
PUBLIC	__$ArrayPad$
PUBLIC	??$LoadFloat_e@$0BH@@ioINILoader@@QAEMAAY0BH@$$CBDM@Z ; ioINILoader::LoadFloat_e<23>
; Function compile flags: /Ogsp
;	COMDAT ??$LoadFloat_e@$0BH@@ioINILoader@@QAEMAAY0BH@$$CBDM@Z
_TEXT	SEGMENT
__k$ = -32						; size = 23
__$ArrayPad$ = -4					; size = 4
_k$ = 8							; size = 4
_f$ = 12						; size = 4
??$LoadFloat_e@$0BH@@ioINILoader@@QAEMAAY0BH@$$CBDM@Z PROC ; ioINILoader::LoadFloat_e<23>, COMDAT
; _this$ = ecx

; 135  : 	{

  00000	55		 push	 ebp
  00001	8b ec		 mov	 ebp, esp
  00003	83 ec 20	 sub	 esp, 32			; 00000020H
  00006	a1 00 00 00 00	 mov	 eax, DWORD PTR ___security_cookie
  0000b	33 c5		 xor	 eax, ebp
  0000d	89 45 fc	 mov	 DWORD PTR __$ArrayPad$[ebp], eax
  00010	8b 45 08	 mov	 eax, DWORD PTR _k$[ebp]

; 136  : 		_ENCSTR(k, _k);

  00013	8a 10		 mov	 dl, BYTE PTR [eax]
  00015	53		 push	 ebx
  00016	56		 push	 esi
  00017	8b f1		 mov	 esi, ecx
  00019	84 d2		 test	 dl, dl
  0001b	0f 84 2d 02 00
	00		 je	 $LN96@LoadFloat_@7
  00021	80 f2 ed	 xor	 dl, -19			; ffffffedH
  00024	88 55 e0	 mov	 BYTE PTR __k$[ebp], dl
  00027	8a 50 01	 mov	 dl, BYTE PTR [eax+1]
  0002a	84 d2		 test	 dl, dl
  0002c	0f 84 16 02 00
	00		 je	 $LN95@LoadFloat_@7
  00032	b1 ec		 mov	 cl, -20			; ffffffecH
  00034	32 d1		 xor	 dl, cl
  00036	88 55 e1	 mov	 BYTE PTR __k$[ebp+1], dl
  00039	8a 50 02	 mov	 dl, BYTE PTR [eax+2]
  0003c	84 d2		 test	 dl, dl
  0003e	0f 84 fe 01 00
	00		 je	 $LN94@LoadFloat_@7
  00044	80 f2 eb	 xor	 dl, -21			; ffffffebH
  00047	88 55 e2	 mov	 BYTE PTR __k$[ebp+2], dl
  0004a	8a 50 03	 mov	 dl, BYTE PTR [eax+3]
  0004d	84 d2		 test	 dl, dl
  0004f	0f 84 e7 01 00
	00		 je	 $LN93@LoadFloat_@7
  00055	b3 ea		 mov	 bl, -22			; ffffffeaH
  00057	32 d3		 xor	 dl, bl
  00059	88 55 e3	 mov	 BYTE PTR __k$[ebp+3], dl
  0005c	8a 50 04	 mov	 dl, BYTE PTR [eax+4]
  0005f	84 d2		 test	 dl, dl
  00061	0f 84 cf 01 00
	00		 je	 $LN92@LoadFloat_@7
  00067	80 f2 ed	 xor	 dl, -19			; ffffffedH
  0006a	88 55 e4	 mov	 BYTE PTR __k$[ebp+4], dl
  0006d	8a 50 05	 mov	 dl, BYTE PTR [eax+5]
  00070	84 d2		 test	 dl, dl
  00072	0f 84 b9 01 00
	00		 je	 $LN91@LoadFloat_@7
  00078	32 d1		 xor	 dl, cl
  0007a	88 55 e5	 mov	 BYTE PTR __k$[ebp+5], dl
  0007d	8a 50 06	 mov	 dl, BYTE PTR [eax+6]
  00080	84 d2		 test	 dl, dl
  00082	0f 84 a3 01 00
	00		 je	 $LN90@LoadFloat_@7
  00088	80 f2 eb	 xor	 dl, -21			; ffffffebH
  0008b	88 55 e6	 mov	 BYTE PTR __k$[ebp+6], dl
  0008e	8a 50 07	 mov	 dl, BYTE PTR [eax+7]
  00091	84 d2		 test	 dl, dl
  00093	0f 84 8d 01 00
	00		 je	 $LN89@LoadFloat_@7
  00099	32 d3		 xor	 dl, bl
  0009b	88 55 e7	 mov	 BYTE PTR __k$[ebp+7], dl
  0009e	8a 50 08	 mov	 dl, BYTE PTR [eax+8]
  000a1	84 d2		 test	 dl, dl
  000a3	0f 84 77 01 00
	00		 je	 $LN88@LoadFloat_@7
  000a9	80 f2 ed	 xor	 dl, -19			; ffffffedH
  000ac	88 55 e8	 mov	 BYTE PTR __k$[ebp+8], dl
  000af	8a 50 09	 mov	 dl, BYTE PTR [eax+9]
  000b2	84 d2		 test	 dl, dl
  000b4	0f 84 61 01 00
	00		 je	 $LN87@LoadFloat_@7
  000ba	32 d1		 xor	 dl, cl
  000bc	88 55 e9	 mov	 BYTE PTR __k$[ebp+9], dl
  000bf	8a 50 0a	 mov	 dl, BYTE PTR [eax+10]
  000c2	84 d2		 test	 dl, dl
  000c4	0f 84 4b 01 00
	00		 je	 $LN86@LoadFloat_@7
  000ca	80 f2 eb	 xor	 dl, -21			; ffffffebH
  000cd	88 55 ea	 mov	 BYTE PTR __k$[ebp+10], dl
  000d0	8a 50 0b	 mov	 dl, BYTE PTR [eax+11]
  000d3	84 d2		 test	 dl, dl
  000d5	0f 84 35 01 00
	00		 je	 $LN85@LoadFloat_@7
  000db	32 d3		 xor	 dl, bl
  000dd	88 55 eb	 mov	 BYTE PTR __k$[ebp+11], dl
  000e0	8a 50 0c	 mov	 dl, BYTE PTR [eax+12]
  000e3	84 d2		 test	 dl, dl
  000e5	0f 84 1f 01 00
	00		 je	 $LN84@LoadFloat_@7
  000eb	80 f2 ed	 xor	 dl, -19			; ffffffedH
  000ee	88 55 ec	 mov	 BYTE PTR __k$[ebp+12], dl
  000f1	8a 50 0d	 mov	 dl, BYTE PTR [eax+13]
  000f4	84 d2		 test	 dl, dl
  000f6	0f 84 09 01 00
	00		 je	 $LN83@LoadFloat_@7
  000fc	32 d1		 xor	 dl, cl
  000fe	88 55 ed	 mov	 BYTE PTR __k$[ebp+13], dl
  00101	8a 50 0e	 mov	 dl, BYTE PTR [eax+14]
  00104	84 d2		 test	 dl, dl
  00106	0f 84 f3 00 00
	00		 je	 $LN82@LoadFloat_@7
  0010c	80 f2 eb	 xor	 dl, -21			; ffffffebH
  0010f	88 55 ee	 mov	 BYTE PTR __k$[ebp+14], dl
  00112	8a 50 0f	 mov	 dl, BYTE PTR [eax+15]
  00115	84 d2		 test	 dl, dl
  00117	0f 84 dd 00 00
	00		 je	 $LN81@LoadFloat_@7
  0011d	32 d3		 xor	 dl, bl
  0011f	88 55 ef	 mov	 BYTE PTR __k$[ebp+15], dl
  00122	8a 50 10	 mov	 dl, BYTE PTR [eax+16]
  00125	84 d2		 test	 dl, dl
  00127	0f 84 c7 00 00
	00		 je	 $LN80@LoadFloat_@7
  0012d	80 f2 ed	 xor	 dl, -19			; ffffffedH
  00130	88 55 f0	 mov	 BYTE PTR __k$[ebp+16], dl
  00133	8a 50 11	 mov	 dl, BYTE PTR [eax+17]
  00136	84 d2		 test	 dl, dl
  00138	0f 84 b1 00 00
	00		 je	 $LN79@LoadFloat_@7
  0013e	32 d1		 xor	 dl, cl
  00140	88 55 f1	 mov	 BYTE PTR __k$[ebp+17], dl
  00143	8a 50 12	 mov	 dl, BYTE PTR [eax+18]
  00146	84 d2		 test	 dl, dl
  00148	0f 84 9b 00 00
	00		 je	 $LN78@LoadFloat_@7
  0014e	80 f2 eb	 xor	 dl, -21			; ffffffebH
  00151	88 55 f2	 mov	 BYTE PTR __k$[ebp+18], dl
  00154	8a 50 13	 mov	 dl, BYTE PTR [eax+19]
  00157	84 d2		 test	 dl, dl
  00159	0f 84 85 00 00
	00		 je	 $LN77@LoadFloat_@7
  0015f	32 d3		 xor	 dl, bl
  00161	88 55 f3	 mov	 BYTE PTR __k$[ebp+19], dl
  00164	8a 50 14	 mov	 dl, BYTE PTR [eax+20]
  00167	84 d2		 test	 dl, dl
  00169	74 73		 je	 SHORT $LN76@LoadFloat_@7
  0016b	80 f2 ed	 xor	 dl, -19			; ffffffedH
  0016e	88 55 f4	 mov	 BYTE PTR __k$[ebp+20], dl
  00171	8a 50 15	 mov	 dl, BYTE PTR [eax+21]
  00174	84 d2		 test	 dl, dl
  00176	74 61		 je	 SHORT $LN75@LoadFloat_@7
  00178	32 d1		 xor	 dl, cl
  0017a	80 78 16 00	 cmp	 BYTE PTR [eax+22], 0
  0017e	88 55 f5	 mov	 BYTE PTR __k$[ebp+21], dl
  00181	0f 84 cb 00 00
	00		 je	 $LN1@LoadFloat_@7
  00187	8a 50 17	 mov	 dl, BYTE PTR [eax+23]
  0018a	84 d2		 test	 dl, dl
  0018c	74 46		 je	 SHORT $LN73@LoadFloat_@7
  0018e	32 d3		 xor	 dl, bl
  00190	88 55 f7	 mov	 BYTE PTR __k$[ebp+23], dl
  00193	8a 50 18	 mov	 dl, BYTE PTR [eax+24]
  00196	84 d2		 test	 dl, dl
  00198	74 34		 je	 SHORT $LN72@LoadFloat_@7
  0019a	80 f2 ed	 xor	 dl, -19			; ffffffedH
  0019d	88 55 f8	 mov	 BYTE PTR __k$[ebp+24], dl
  001a0	8a 50 19	 mov	 dl, BYTE PTR [eax+25]
  001a3	84 d2		 test	 dl, dl
  001a5	74 1f		 je	 SHORT $LN71@LoadFloat_@7
  001a7	8a 40 1a	 mov	 al, BYTE PTR [eax+26]
  001aa	32 d1		 xor	 dl, cl
  001ac	88 55 f9	 mov	 BYTE PTR __k$[ebp+25], dl
  001af	84 c0		 test	 al, al
  001b1	74 0a		 je	 SHORT $LN70@LoadFloat_@7
  001b3	34 eb		 xor	 al, -21			; ffffffebH
  001b5	88 45 fa	 mov	 BYTE PTR __k$[ebp+26], al
  001b8	e9 95 00 00 00	 jmp	 $LN1@LoadFloat_@7
$LN70@LoadFloat_@7:
  001bd	c6 45 fa eb	 mov	 BYTE PTR __k$[ebp+26], -21 ; ffffffebH
  001c1	e9 8c 00 00 00	 jmp	 $LN1@LoadFloat_@7
$LN71@LoadFloat_@7:
  001c6	88 4d f9	 mov	 BYTE PTR __k$[ebp+25], cl
  001c9	e9 84 00 00 00	 jmp	 $LN1@LoadFloat_@7
$LN72@LoadFloat_@7:
  001ce	c6 45 f8 ed	 mov	 BYTE PTR __k$[ebp+24], -19 ; ffffffedH
  001d2	eb 7e		 jmp	 SHORT $LN1@LoadFloat_@7
$LN73@LoadFloat_@7:
  001d4	88 5d f7	 mov	 BYTE PTR __k$[ebp+23], bl
  001d7	eb 79		 jmp	 SHORT $LN1@LoadFloat_@7
$LN75@LoadFloat_@7:
  001d9	88 4d f5	 mov	 BYTE PTR __k$[ebp+21], cl
  001dc	eb 74		 jmp	 SHORT $LN1@LoadFloat_@7
$LN76@LoadFloat_@7:
  001de	c6 45 f4 ed	 mov	 BYTE PTR __k$[ebp+20], -19 ; ffffffedH
  001e2	eb 6e		 jmp	 SHORT $LN1@LoadFloat_@7
$LN77@LoadFloat_@7:
  001e4	88 5d f3	 mov	 BYTE PTR __k$[ebp+19], bl
  001e7	eb 69		 jmp	 SHORT $LN1@LoadFloat_@7
$LN78@LoadFloat_@7:
  001e9	c6 45 f2 eb	 mov	 BYTE PTR __k$[ebp+18], -21 ; ffffffebH
  001ed	eb 63		 jmp	 SHORT $LN1@LoadFloat_@7
$LN79@LoadFloat_@7:
  001ef	88 4d f1	 mov	 BYTE PTR __k$[ebp+17], cl
  001f2	eb 5e		 jmp	 SHORT $LN1@LoadFloat_@7
$LN80@LoadFloat_@7:
  001f4	c6 45 f0 ed	 mov	 BYTE PTR __k$[ebp+16], -19 ; ffffffedH
  001f8	eb 58		 jmp	 SHORT $LN1@LoadFloat_@7
$LN81@LoadFloat_@7:
  001fa	88 5d ef	 mov	 BYTE PTR __k$[ebp+15], bl
  001fd	eb 53		 jmp	 SHORT $LN1@LoadFloat_@7
$LN82@LoadFloat_@7:
  001ff	c6 45 ee eb	 mov	 BYTE PTR __k$[ebp+14], -21 ; ffffffebH
  00203	eb 4d		 jmp	 SHORT $LN1@LoadFloat_@7
$LN83@LoadFloat_@7:
  00205	88 4d ed	 mov	 BYTE PTR __k$[ebp+13], cl
  00208	eb 48		 jmp	 SHORT $LN1@LoadFloat_@7
$LN84@LoadFloat_@7:
  0020a	c6 45 ec ed	 mov	 BYTE PTR __k$[ebp+12], -19 ; ffffffedH
  0020e	eb 42		 jmp	 SHORT $LN1@LoadFloat_@7
$LN85@LoadFloat_@7:
  00210	88 5d eb	 mov	 BYTE PTR __k$[ebp+11], bl
  00213	eb 3d		 jmp	 SHORT $LN1@LoadFloat_@7
$LN86@LoadFloat_@7:
  00215	c6 45 ea eb	 mov	 BYTE PTR __k$[ebp+10], -21 ; ffffffebH
  00219	eb 37		 jmp	 SHORT $LN1@LoadFloat_@7
$LN87@LoadFloat_@7:
  0021b	88 4d e9	 mov	 BYTE PTR __k$[ebp+9], cl
  0021e	eb 32		 jmp	 SHORT $LN1@LoadFloat_@7
$LN88@LoadFloat_@7:
  00220	c6 45 e8 ed	 mov	 BYTE PTR __k$[ebp+8], -19 ; ffffffedH
  00224	eb 2c		 jmp	 SHORT $LN1@LoadFloat_@7
$LN89@LoadFloat_@7:
  00226	88 5d e7	 mov	 BYTE PTR __k$[ebp+7], bl
  00229	eb 27		 jmp	 SHORT $LN1@LoadFloat_@7
$LN90@LoadFloat_@7:
  0022b	c6 45 e6 eb	 mov	 BYTE PTR __k$[ebp+6], -21 ; ffffffebH
  0022f	eb 21		 jmp	 SHORT $LN1@LoadFloat_@7
$LN91@LoadFloat_@7:
  00231	88 4d e5	 mov	 BYTE PTR __k$[ebp+5], cl
  00234	eb 1c		 jmp	 SHORT $LN1@LoadFloat_@7
$LN92@LoadFloat_@7:
  00236	c6 45 e4 ed	 mov	 BYTE PTR __k$[ebp+4], -19 ; ffffffedH
  0023a	eb 16		 jmp	 SHORT $LN1@LoadFloat_@7
$LN93@LoadFloat_@7:
  0023c	c6 45 e3 ea	 mov	 BYTE PTR __k$[ebp+3], -22 ; ffffffeaH
  00240	eb 10		 jmp	 SHORT $LN1@LoadFloat_@7
$LN94@LoadFloat_@7:
  00242	c6 45 e2 eb	 mov	 BYTE PTR __k$[ebp+2], -21 ; ffffffebH
  00246	eb 0a		 jmp	 SHORT $LN1@LoadFloat_@7
$LN95@LoadFloat_@7:
  00248	c6 45 e1 ec	 mov	 BYTE PTR __k$[ebp+1], -20 ; ffffffecH
  0024c	eb 04		 jmp	 SHORT $LN1@LoadFloat_@7
$LN96@LoadFloat_@7:
  0024e	c6 45 e0 ed	 mov	 BYTE PTR __k$[ebp], -19	; ffffffedH
$LN1@LoadFloat_@7:
  00252	6a 05		 push	 5
  00254	8d 45 e0	 lea	 eax, DWORD PTR __k$[ebp]
  00257	c6 45 f6 00	 mov	 BYTE PTR __k$[ebp+22], 0
  0025b	5a		 pop	 edx
$LL104@LoadFloat_@7:
  0025c	81 30 ed ec eb
	ea		 xor	 DWORD PTR [eax], -353637139 ; eaebecedH
  00262	83 c0 04	 add	 eax, 4
  00265	4a		 dec	 edx
  00266	75 f4		 jne	 SHORT $LL104@LoadFloat_@7
  00268	6a 14		 push	 20			; 00000014H
  0026a	58		 pop	 eax
$LL101@LoadFloat_@7:
  0026b	8b c8		 mov	 ecx, eax
  0026d	81 e1 03 00 00
	80		 and	 ecx, -2147483645	; 80000003H
  00273	79 05		 jns	 SHORT $LN111@LoadFloat_@7
  00275	49		 dec	 ecx
  00276	83 c9 fc	 or	 ecx, -4			; fffffffcH
  00279	41		 inc	 ecx
$LN111@LoadFloat_@7:
  0027a	b2 ed		 mov	 dl, -19			; ffffffedH
  0027c	2a d1		 sub	 dl, cl
  0027e	30 54 05 e0	 xor	 BYTE PTR __k$[ebp+eax], dl
  00282	40		 inc	 eax
  00283	83 f8 16	 cmp	 eax, 22			; 00000016H
  00286	7c e3		 jl	 SHORT $LL101@LoadFloat_@7

; 137  : 		return LoadFloat(_k, f);

  00288	f3 0f 10 45 0c	 movss	 xmm0, DWORD PTR _f$[ebp]
  0028d	51		 push	 ecx
  0028e	8d 45 e0	 lea	 eax, DWORD PTR __k$[ebp]
  00291	f3 0f 11 04 24	 movss	 DWORD PTR [esp], xmm0
  00296	50		 push	 eax
  00297	8b ce		 mov	 ecx, esi
  00299	ff 15 00 00 00
	00		 call	 DWORD PTR __imp_?LoadFloat@ioINILoader@@QAEMPBDM@Z

; 138  : 	}

  0029f	8b 4d fc	 mov	 ecx, DWORD PTR __$ArrayPad$[ebp]
  002a2	5e		 pop	 esi
  002a3	33 cd		 xor	 ecx, ebp
  002a5	5b		 pop	 ebx
  002a6	e8 00 00 00 00	 call	 @__security_check_cookie@4
  002ab	c9		 leave
  002ac	c2 08 00	 ret	 8
??$LoadFloat_e@$0BH@@ioINILoader@@QAEMAAY0BH@$$CBDM@Z ENDP ; ioINILoader::LoadFloat_e<23>
_TEXT	ENDS
PUBLIC	__$ArrayPad$
PUBLIC	??$LoadFloat_e@$0BF@@ioINILoader@@QAEMAAY0BF@$$CBDM@Z ; ioINILoader::LoadFloat_e<21>
; Function compile flags: /Ogsp
;	COMDAT ??$LoadFloat_e@$0BF@@ioINILoader@@QAEMAAY0BF@$$CBDM@Z
_TEXT	SEGMENT
__k$ = -32						; size = 21
__$ArrayPad$ = -4					; size = 4
_k$ = 8							; size = 4
_f$ = 12						; size = 4
??$LoadFloat_e@$0BF@@ioINILoader@@QAEMAAY0BF@$$CBDM@Z PROC ; ioINILoader::LoadFloat_e<21>, COMDAT
; _this$ = ecx

; 135  : 	{

  00000	55		 push	 ebp
  00001	8b ec		 mov	 ebp, esp
  00003	83 ec 20	 sub	 esp, 32			; 00000020H
  00006	a1 00 00 00 00	 mov	 eax, DWORD PTR ___security_cookie
  0000b	33 c5		 xor	 eax, ebp
  0000d	89 45 fc	 mov	 DWORD PTR __$ArrayPad$[ebp], eax
  00010	8b 45 08	 mov	 eax, DWORD PTR _k$[ebp]

; 136  : 		_ENCSTR(k, _k);

  00013	8a 10		 mov	 dl, BYTE PTR [eax]
  00015	53		 push	 ebx
  00016	56		 push	 esi
  00017	8b f1		 mov	 esi, ecx
  00019	84 d2		 test	 dl, dl
  0001b	0f 84 f7 01 00
	00		 je	 $LN96@LoadFloat_@8
  00021	80 f2 ed	 xor	 dl, -19			; ffffffedH
  00024	88 55 e0	 mov	 BYTE PTR __k$[ebp], dl
  00027	8a 50 01	 mov	 dl, BYTE PTR [eax+1]
  0002a	84 d2		 test	 dl, dl
  0002c	0f 84 e0 01 00
	00		 je	 $LN95@LoadFloat_@8
  00032	b1 ec		 mov	 cl, -20			; ffffffecH
  00034	32 d1		 xor	 dl, cl
  00036	88 55 e1	 mov	 BYTE PTR __k$[ebp+1], dl
  00039	8a 50 02	 mov	 dl, BYTE PTR [eax+2]
  0003c	84 d2		 test	 dl, dl
  0003e	0f 84 c8 01 00
	00		 je	 $LN94@LoadFloat_@8
  00044	b3 eb		 mov	 bl, -21			; ffffffebH
  00046	32 d3		 xor	 dl, bl
  00048	88 55 e2	 mov	 BYTE PTR __k$[ebp+2], dl
  0004b	8a 50 03	 mov	 dl, BYTE PTR [eax+3]
  0004e	84 d2		 test	 dl, dl
  00050	0f 84 b0 01 00
	00		 je	 $LN93@LoadFloat_@8
  00056	80 f2 ea	 xor	 dl, -22			; ffffffeaH
  00059	88 55 e3	 mov	 BYTE PTR __k$[ebp+3], dl
  0005c	8a 50 04	 mov	 dl, BYTE PTR [eax+4]
  0005f	84 d2		 test	 dl, dl
  00061	0f 84 99 01 00
	00		 je	 $LN92@LoadFloat_@8
  00067	80 f2 ed	 xor	 dl, -19			; ffffffedH
  0006a	88 55 e4	 mov	 BYTE PTR __k$[ebp+4], dl
  0006d	8a 50 05	 mov	 dl, BYTE PTR [eax+5]
  00070	84 d2		 test	 dl, dl
  00072	0f 84 83 01 00
	00		 je	 $LN91@LoadFloat_@8
  00078	32 d1		 xor	 dl, cl
  0007a	88 55 e5	 mov	 BYTE PTR __k$[ebp+5], dl
  0007d	8a 50 06	 mov	 dl, BYTE PTR [eax+6]
  00080	84 d2		 test	 dl, dl
  00082	0f 84 6e 01 00
	00		 je	 $LN90@LoadFloat_@8
  00088	32 d3		 xor	 dl, bl
  0008a	88 55 e6	 mov	 BYTE PTR __k$[ebp+6], dl
  0008d	8a 50 07	 mov	 dl, BYTE PTR [eax+7]
  00090	84 d2		 test	 dl, dl
  00092	0f 84 58 01 00
	00		 je	 $LN89@LoadFloat_@8
  00098	80 f2 ea	 xor	 dl, -22			; ffffffeaH
  0009b	88 55 e7	 mov	 BYTE PTR __k$[ebp+7], dl
  0009e	8a 50 08	 mov	 dl, BYTE PTR [eax+8]
  000a1	84 d2		 test	 dl, dl
  000a3	0f 84 41 01 00
	00		 je	 $LN88@LoadFloat_@8
  000a9	80 f2 ed	 xor	 dl, -19			; ffffffedH
  000ac	88 55 e8	 mov	 BYTE PTR __k$[ebp+8], dl
  000af	8a 50 09	 mov	 dl, BYTE PTR [eax+9]
  000b2	84 d2		 test	 dl, dl
  000b4	0f 84 2b 01 00
	00		 je	 $LN87@LoadFloat_@8
  000ba	32 d1		 xor	 dl, cl
  000bc	88 55 e9	 mov	 BYTE PTR __k$[ebp+9], dl
  000bf	8a 50 0a	 mov	 dl, BYTE PTR [eax+10]
  000c2	84 d2		 test	 dl, dl
  000c4	0f 84 16 01 00
	00		 je	 $LN86@LoadFloat_@8
  000ca	32 d3		 xor	 dl, bl
  000cc	88 55 ea	 mov	 BYTE PTR __k$[ebp+10], dl
  000cf	8a 50 0b	 mov	 dl, BYTE PTR [eax+11]
  000d2	84 d2		 test	 dl, dl
  000d4	0f 84 00 01 00
	00		 je	 $LN85@LoadFloat_@8
  000da	80 f2 ea	 xor	 dl, -22			; ffffffeaH
  000dd	88 55 eb	 mov	 BYTE PTR __k$[ebp+11], dl
  000e0	8a 50 0c	 mov	 dl, BYTE PTR [eax+12]
  000e3	84 d2		 test	 dl, dl
  000e5	0f 84 e9 00 00
	00		 je	 $LN84@LoadFloat_@8
  000eb	80 f2 ed	 xor	 dl, -19			; ffffffedH
  000ee	88 55 ec	 mov	 BYTE PTR __k$[ebp+12], dl
  000f1	8a 50 0d	 mov	 dl, BYTE PTR [eax+13]
  000f4	84 d2		 test	 dl, dl
  000f6	0f 84 d3 00 00
	00		 je	 $LN83@LoadFloat_@8
  000fc	32 d1		 xor	 dl, cl
  000fe	88 55 ed	 mov	 BYTE PTR __k$[ebp+13], dl
  00101	8a 50 0e	 mov	 dl, BYTE PTR [eax+14]
  00104	84 d2		 test	 dl, dl
  00106	0f 84 be 00 00
	00		 je	 $LN82@LoadFloat_@8
  0010c	32 d3		 xor	 dl, bl
  0010e	88 55 ee	 mov	 BYTE PTR __k$[ebp+14], dl
  00111	8a 50 0f	 mov	 dl, BYTE PTR [eax+15]
  00114	84 d2		 test	 dl, dl
  00116	0f 84 a8 00 00
	00		 je	 $LN81@LoadFloat_@8
  0011c	80 f2 ea	 xor	 dl, -22			; ffffffeaH
  0011f	88 55 ef	 mov	 BYTE PTR __k$[ebp+15], dl
  00122	8a 50 10	 mov	 dl, BYTE PTR [eax+16]
  00125	84 d2		 test	 dl, dl
  00127	0f 84 91 00 00
	00		 je	 $LN80@LoadFloat_@8
  0012d	80 f2 ed	 xor	 dl, -19			; ffffffedH
  00130	88 55 f0	 mov	 BYTE PTR __k$[ebp+16], dl
  00133	8a 50 11	 mov	 dl, BYTE PTR [eax+17]
  00136	84 d2		 test	 dl, dl
  00138	74 7f		 je	 SHORT $LN79@LoadFloat_@8
  0013a	32 d1		 xor	 dl, cl
  0013c	88 55 f1	 mov	 BYTE PTR __k$[ebp+17], dl
  0013f	8a 50 12	 mov	 dl, BYTE PTR [eax+18]
  00142	84 d2		 test	 dl, dl
  00144	74 6e		 je	 SHORT $LN78@LoadFloat_@8
  00146	32 d3		 xor	 dl, bl
  00148	88 55 f2	 mov	 BYTE PTR __k$[ebp+18], dl
  0014b	8a 50 13	 mov	 dl, BYTE PTR [eax+19]
  0014e	84 d2		 test	 dl, dl
  00150	74 5c		 je	 SHORT $LN77@LoadFloat_@8
  00152	80 f2 ea	 xor	 dl, -22			; ffffffeaH
  00155	80 78 14 00	 cmp	 BYTE PTR [eax+20], 0
  00159	88 55 f3	 mov	 BYTE PTR __k$[ebp+19], dl
  0015c	0f 84 ba 00 00
	00		 je	 $LN1@LoadFloat_@8
  00162	8a 50 15	 mov	 dl, BYTE PTR [eax+21]
  00165	84 d2		 test	 dl, dl
  00167	74 40		 je	 SHORT $LN75@LoadFloat_@8
  00169	32 d1		 xor	 dl, cl
  0016b	88 55 f5	 mov	 BYTE PTR __k$[ebp+21], dl
  0016e	8a 50 16	 mov	 dl, BYTE PTR [eax+22]
  00171	84 d2		 test	 dl, dl
  00173	74 2f		 je	 SHORT $LN74@LoadFloat_@8
  00175	32 d3		 xor	 dl, bl
  00177	88 55 f6	 mov	 BYTE PTR __k$[ebp+22], dl
  0017a	8a 50 17	 mov	 dl, BYTE PTR [eax+23]
  0017d	84 d2		 test	 dl, dl
  0017f	74 1d		 je	 SHORT $LN73@LoadFloat_@8
  00181	8a 40 18	 mov	 al, BYTE PTR [eax+24]
  00184	80 f2 ea	 xor	 dl, -22			; ffffffeaH
  00187	88 55 f7	 mov	 BYTE PTR __k$[ebp+23], dl
  0018a	84 c0		 test	 al, al
  0018c	74 0a		 je	 SHORT $LN72@LoadFloat_@8
  0018e	34 ed		 xor	 al, -19			; ffffffedH
  00190	88 45 f8	 mov	 BYTE PTR __k$[ebp+24], al
  00193	e9 84 00 00 00	 jmp	 $LN1@LoadFloat_@8
$LN72@LoadFloat_@8:
  00198	c6 45 f8 ed	 mov	 BYTE PTR __k$[ebp+24], -19 ; ffffffedH
  0019c	eb 7e		 jmp	 SHORT $LN1@LoadFloat_@8
$LN73@LoadFloat_@8:
  0019e	c6 45 f7 ea	 mov	 BYTE PTR __k$[ebp+23], -22 ; ffffffeaH
  001a2	eb 78		 jmp	 SHORT $LN1@LoadFloat_@8
$LN74@LoadFloat_@8:
  001a4	88 5d f6	 mov	 BYTE PTR __k$[ebp+22], bl
  001a7	eb 73		 jmp	 SHORT $LN1@LoadFloat_@8
$LN75@LoadFloat_@8:
  001a9	88 4d f5	 mov	 BYTE PTR __k$[ebp+21], cl
  001ac	eb 6e		 jmp	 SHORT $LN1@LoadFloat_@8
$LN77@LoadFloat_@8:
  001ae	c6 45 f3 ea	 mov	 BYTE PTR __k$[ebp+19], -22 ; ffffffeaH
  001b2	eb 68		 jmp	 SHORT $LN1@LoadFloat_@8
$LN78@LoadFloat_@8:
  001b4	88 5d f2	 mov	 BYTE PTR __k$[ebp+18], bl
  001b7	eb 63		 jmp	 SHORT $LN1@LoadFloat_@8
$LN79@LoadFloat_@8:
  001b9	88 4d f1	 mov	 BYTE PTR __k$[ebp+17], cl
  001bc	eb 5e		 jmp	 SHORT $LN1@LoadFloat_@8
$LN80@LoadFloat_@8:
  001be	c6 45 f0 ed	 mov	 BYTE PTR __k$[ebp+16], -19 ; ffffffedH
  001c2	eb 58		 jmp	 SHORT $LN1@LoadFloat_@8
$LN81@LoadFloat_@8:
  001c4	c6 45 ef ea	 mov	 BYTE PTR __k$[ebp+15], -22 ; ffffffeaH
  001c8	eb 52		 jmp	 SHORT $LN1@LoadFloat_@8
$LN82@LoadFloat_@8:
  001ca	88 5d ee	 mov	 BYTE PTR __k$[ebp+14], bl
  001cd	eb 4d		 jmp	 SHORT $LN1@LoadFloat_@8
$LN83@LoadFloat_@8:
  001cf	88 4d ed	 mov	 BYTE PTR __k$[ebp+13], cl
  001d2	eb 48		 jmp	 SHORT $LN1@LoadFloat_@8
$LN84@LoadFloat_@8:
  001d4	c6 45 ec ed	 mov	 BYTE PTR __k$[ebp+12], -19 ; ffffffedH
  001d8	eb 42		 jmp	 SHORT $LN1@LoadFloat_@8
$LN85@LoadFloat_@8:
  001da	c6 45 eb ea	 mov	 BYTE PTR __k$[ebp+11], -22 ; ffffffeaH
  001de	eb 3c		 jmp	 SHORT $LN1@LoadFloat_@8
$LN86@LoadFloat_@8:
  001e0	88 5d ea	 mov	 BYTE PTR __k$[ebp+10], bl
  001e3	eb 37		 jmp	 SHORT $LN1@LoadFloat_@8
$LN87@LoadFloat_@8:
  001e5	88 4d e9	 mov	 BYTE PTR __k$[ebp+9], cl
  001e8	eb 32		 jmp	 SHORT $LN1@LoadFloat_@8
$LN88@LoadFloat_@8:
  001ea	c6 45 e8 ed	 mov	 BYTE PTR __k$[ebp+8], -19 ; ffffffedH
  001ee	eb 2c		 jmp	 SHORT $LN1@LoadFloat_@8
$LN89@LoadFloat_@8:
  001f0	c6 45 e7 ea	 mov	 BYTE PTR __k$[ebp+7], -22 ; ffffffeaH
  001f4	eb 26		 jmp	 SHORT $LN1@LoadFloat_@8
$LN90@LoadFloat_@8:
  001f6	88 5d e6	 mov	 BYTE PTR __k$[ebp+6], bl
  001f9	eb 21		 jmp	 SHORT $LN1@LoadFloat_@8
$LN91@LoadFloat_@8:
  001fb	88 4d e5	 mov	 BYTE PTR __k$[ebp+5], cl
  001fe	eb 1c		 jmp	 SHORT $LN1@LoadFloat_@8
$LN92@LoadFloat_@8:
  00200	c6 45 e4 ed	 mov	 BYTE PTR __k$[ebp+4], -19 ; ffffffedH
  00204	eb 16		 jmp	 SHORT $LN1@LoadFloat_@8
$LN93@LoadFloat_@8:
  00206	c6 45 e3 ea	 mov	 BYTE PTR __k$[ebp+3], -22 ; ffffffeaH
  0020a	eb 10		 jmp	 SHORT $LN1@LoadFloat_@8
$LN94@LoadFloat_@8:
  0020c	c6 45 e2 eb	 mov	 BYTE PTR __k$[ebp+2], -21 ; ffffffebH
  00210	eb 0a		 jmp	 SHORT $LN1@LoadFloat_@8
$LN95@LoadFloat_@8:
  00212	c6 45 e1 ec	 mov	 BYTE PTR __k$[ebp+1], -20 ; ffffffecH
  00216	eb 04		 jmp	 SHORT $LN1@LoadFloat_@8
$LN96@LoadFloat_@8:
  00218	c6 45 e0 ed	 mov	 BYTE PTR __k$[ebp], -19	; ffffffedH
$LN1@LoadFloat_@8:
  0021c	6a 05		 push	 5
  0021e	8d 45 e0	 lea	 eax, DWORD PTR __k$[ebp]
  00221	c6 45 f4 00	 mov	 BYTE PTR __k$[ebp+20], 0
  00225	5a		 pop	 edx
$LL104@LoadFloat_@8:
  00226	81 30 ed ec eb
	ea		 xor	 DWORD PTR [eax], -353637139 ; eaebecedH
  0022c	83 c0 04	 add	 eax, 4
  0022f	4a		 dec	 edx
  00230	75 f4		 jne	 SHORT $LL104@LoadFloat_@8

; 137  : 		return LoadFloat(_k, f);

  00232	f3 0f 10 45 0c	 movss	 xmm0, DWORD PTR _f$[ebp]
  00237	51		 push	 ecx
  00238	8d 45 e0	 lea	 eax, DWORD PTR __k$[ebp]
  0023b	f3 0f 11 04 24	 movss	 DWORD PTR [esp], xmm0
  00240	50		 push	 eax
  00241	8b ce		 mov	 ecx, esi
  00243	ff 15 00 00 00
	00		 call	 DWORD PTR __imp_?LoadFloat@ioINILoader@@QAEMPBDM@Z

; 138  : 	}

  00249	8b 4d fc	 mov	 ecx, DWORD PTR __$ArrayPad$[ebp]
  0024c	5e		 pop	 esi
  0024d	33 cd		 xor	 ecx, ebp
  0024f	5b		 pop	 ebx
  00250	e8 00 00 00 00	 call	 @__security_check_cookie@4
  00255	c9		 leave
  00256	c2 08 00	 ret	 8
??$LoadFloat_e@$0BF@@ioINILoader@@QAEMAAY0BF@$$CBDM@Z ENDP ; ioINILoader::LoadFloat_e<21>
_TEXT	ENDS
PUBLIC	__$ArrayPad$
PUBLIC	??$LoadInt_e@$0BF@@ioINILoader@@QAEHAAY0BF@$$CBDH@Z ; ioINILoader::LoadInt_e<21>
; Function compile flags: /Ogsp
;	COMDAT ??$LoadInt_e@$0BF@@ioINILoader@@QAEHAAY0BF@$$CBDH@Z
_TEXT	SEGMENT
__k$ = -32						; size = 21
__$ArrayPad$ = -4					; size = 4
_k$ = 8							; size = 4
_i$ = 12						; size = 4
??$LoadInt_e@$0BF@@ioINILoader@@QAEHAAY0BF@$$CBDH@Z PROC ; ioINILoader::LoadInt_e<21>, COMDAT
; _this$ = ecx

; 118  : 	{

  00000	55		 push	 ebp
  00001	8b ec		 mov	 ebp, esp
  00003	83 ec 20	 sub	 esp, 32			; 00000020H
  00006	a1 00 00 00 00	 mov	 eax, DWORD PTR ___security_cookie
  0000b	33 c5		 xor	 eax, ebp
  0000d	89 45 fc	 mov	 DWORD PTR __$ArrayPad$[ebp], eax
  00010	8b 45 08	 mov	 eax, DWORD PTR _k$[ebp]

; 119  : 		_ENCSTR(k, _k);

  00013	8a 10		 mov	 dl, BYTE PTR [eax]
  00015	53		 push	 ebx
  00016	56		 push	 esi
  00017	8b f1		 mov	 esi, ecx
  00019	84 d2		 test	 dl, dl
  0001b	0f 84 f7 01 00
	00		 je	 $LN96@LoadInt_e@3
  00021	80 f2 ed	 xor	 dl, -19			; ffffffedH
  00024	88 55 e0	 mov	 BYTE PTR __k$[ebp], dl
  00027	8a 50 01	 mov	 dl, BYTE PTR [eax+1]
  0002a	84 d2		 test	 dl, dl
  0002c	0f 84 e0 01 00
	00		 je	 $LN95@LoadInt_e@3
  00032	b1 ec		 mov	 cl, -20			; ffffffecH
  00034	32 d1		 xor	 dl, cl
  00036	88 55 e1	 mov	 BYTE PTR __k$[ebp+1], dl
  00039	8a 50 02	 mov	 dl, BYTE PTR [eax+2]
  0003c	84 d2		 test	 dl, dl
  0003e	0f 84 c8 01 00
	00		 je	 $LN94@LoadInt_e@3
  00044	b3 eb		 mov	 bl, -21			; ffffffebH
  00046	32 d3		 xor	 dl, bl
  00048	88 55 e2	 mov	 BYTE PTR __k$[ebp+2], dl
  0004b	8a 50 03	 mov	 dl, BYTE PTR [eax+3]
  0004e	84 d2		 test	 dl, dl
  00050	0f 84 b0 01 00
	00		 je	 $LN93@LoadInt_e@3
  00056	80 f2 ea	 xor	 dl, -22			; ffffffeaH
  00059	88 55 e3	 mov	 BYTE PTR __k$[ebp+3], dl
  0005c	8a 50 04	 mov	 dl, BYTE PTR [eax+4]
  0005f	84 d2		 test	 dl, dl
  00061	0f 84 99 01 00
	00		 je	 $LN92@LoadInt_e@3
  00067	80 f2 ed	 xor	 dl, -19			; ffffffedH
  0006a	88 55 e4	 mov	 BYTE PTR __k$[ebp+4], dl
  0006d	8a 50 05	 mov	 dl, BYTE PTR [eax+5]
  00070	84 d2		 test	 dl, dl
  00072	0f 84 83 01 00
	00		 je	 $LN91@LoadInt_e@3
  00078	32 d1		 xor	 dl, cl
  0007a	88 55 e5	 mov	 BYTE PTR __k$[ebp+5], dl
  0007d	8a 50 06	 mov	 dl, BYTE PTR [eax+6]
  00080	84 d2		 test	 dl, dl
  00082	0f 84 6e 01 00
	00		 je	 $LN90@LoadInt_e@3
  00088	32 d3		 xor	 dl, bl
  0008a	88 55 e6	 mov	 BYTE PTR __k$[ebp+6], dl
  0008d	8a 50 07	 mov	 dl, BYTE PTR [eax+7]
  00090	84 d2		 test	 dl, dl
  00092	0f 84 58 01 00
	00		 je	 $LN89@LoadInt_e@3
  00098	80 f2 ea	 xor	 dl, -22			; ffffffeaH
  0009b	88 55 e7	 mov	 BYTE PTR __k$[ebp+7], dl
  0009e	8a 50 08	 mov	 dl, BYTE PTR [eax+8]
  000a1	84 d2		 test	 dl, dl
  000a3	0f 84 41 01 00
	00		 je	 $LN88@LoadInt_e@3
  000a9	80 f2 ed	 xor	 dl, -19			; ffffffedH
  000ac	88 55 e8	 mov	 BYTE PTR __k$[ebp+8], dl
  000af	8a 50 09	 mov	 dl, BYTE PTR [eax+9]
  000b2	84 d2		 test	 dl, dl
  000b4	0f 84 2b 01 00
	00		 je	 $LN87@LoadInt_e@3
  000ba	32 d1		 xor	 dl, cl
  000bc	88 55 e9	 mov	 BYTE PTR __k$[ebp+9], dl
  000bf	8a 50 0a	 mov	 dl, BYTE PTR [eax+10]
  000c2	84 d2		 test	 dl, dl
  000c4	0f 84 16 01 00
	00		 je	 $LN86@LoadInt_e@3
  000ca	32 d3		 xor	 dl, bl
  000cc	88 55 ea	 mov	 BYTE PTR __k$[ebp+10], dl
  000cf	8a 50 0b	 mov	 dl, BYTE PTR [eax+11]
  000d2	84 d2		 test	 dl, dl
  000d4	0f 84 00 01 00
	00		 je	 $LN85@LoadInt_e@3
  000da	80 f2 ea	 xor	 dl, -22			; ffffffeaH
  000dd	88 55 eb	 mov	 BYTE PTR __k$[ebp+11], dl
  000e0	8a 50 0c	 mov	 dl, BYTE PTR [eax+12]
  000e3	84 d2		 test	 dl, dl
  000e5	0f 84 e9 00 00
	00		 je	 $LN84@LoadInt_e@3
  000eb	80 f2 ed	 xor	 dl, -19			; ffffffedH
  000ee	88 55 ec	 mov	 BYTE PTR __k$[ebp+12], dl
  000f1	8a 50 0d	 mov	 dl, BYTE PTR [eax+13]
  000f4	84 d2		 test	 dl, dl
  000f6	0f 84 d3 00 00
	00		 je	 $LN83@LoadInt_e@3
  000fc	32 d1		 xor	 dl, cl
  000fe	88 55 ed	 mov	 BYTE PTR __k$[ebp+13], dl
  00101	8a 50 0e	 mov	 dl, BYTE PTR [eax+14]
  00104	84 d2		 test	 dl, dl
  00106	0f 84 be 00 00
	00		 je	 $LN82@LoadInt_e@3
  0010c	32 d3		 xor	 dl, bl
  0010e	88 55 ee	 mov	 BYTE PTR __k$[ebp+14], dl
  00111	8a 50 0f	 mov	 dl, BYTE PTR [eax+15]
  00114	84 d2		 test	 dl, dl
  00116	0f 84 a8 00 00
	00		 je	 $LN81@LoadInt_e@3
  0011c	80 f2 ea	 xor	 dl, -22			; ffffffeaH
  0011f	88 55 ef	 mov	 BYTE PTR __k$[ebp+15], dl
  00122	8a 50 10	 mov	 dl, BYTE PTR [eax+16]
  00125	84 d2		 test	 dl, dl
  00127	0f 84 91 00 00
	00		 je	 $LN80@LoadInt_e@3
  0012d	80 f2 ed	 xor	 dl, -19			; ffffffedH
  00130	88 55 f0	 mov	 BYTE PTR __k$[ebp+16], dl
  00133	8a 50 11	 mov	 dl, BYTE PTR [eax+17]
  00136	84 d2		 test	 dl, dl
  00138	74 7f		 je	 SHORT $LN79@LoadInt_e@3
  0013a	32 d1		 xor	 dl, cl
  0013c	88 55 f1	 mov	 BYTE PTR __k$[ebp+17], dl
  0013f	8a 50 12	 mov	 dl, BYTE PTR [eax+18]
  00142	84 d2		 test	 dl, dl
  00144	74 6e		 je	 SHORT $LN78@LoadInt_e@3
  00146	32 d3		 xor	 dl, bl
  00148	88 55 f2	 mov	 BYTE PTR __k$[ebp+18], dl
  0014b	8a 50 13	 mov	 dl, BYTE PTR [eax+19]
  0014e	84 d2		 test	 dl, dl
  00150	74 5c		 je	 SHORT $LN77@LoadInt_e@3
  00152	80 f2 ea	 xor	 dl, -22			; ffffffeaH
  00155	80 78 14 00	 cmp	 BYTE PTR [eax+20], 0
  00159	88 55 f3	 mov	 BYTE PTR __k$[ebp+19], dl
  0015c	0f 84 ba 00 00
	00		 je	 $LN1@LoadInt_e@3
  00162	8a 50 15	 mov	 dl, BYTE PTR [eax+21]
  00165	84 d2		 test	 dl, dl
  00167	74 40		 je	 SHORT $LN75@LoadInt_e@3
  00169	32 d1		 xor	 dl, cl
  0016b	88 55 f5	 mov	 BYTE PTR __k$[ebp+21], dl
  0016e	8a 50 16	 mov	 dl, BYTE PTR [eax+22]
  00171	84 d2		 test	 dl, dl
  00173	74 2f		 je	 SHORT $LN74@LoadInt_e@3
  00175	32 d3		 xor	 dl, bl
  00177	88 55 f6	 mov	 BYTE PTR __k$[ebp+22], dl
  0017a	8a 50 17	 mov	 dl, BYTE PTR [eax+23]
  0017d	84 d2		 test	 dl, dl
  0017f	74 1d		 je	 SHORT $LN73@LoadInt_e@3
  00181	8a 40 18	 mov	 al, BYTE PTR [eax+24]
  00184	80 f2 ea	 xor	 dl, -22			; ffffffeaH
  00187	88 55 f7	 mov	 BYTE PTR __k$[ebp+23], dl
  0018a	84 c0		 test	 al, al
  0018c	74 0a		 je	 SHORT $LN72@LoadInt_e@3
  0018e	34 ed		 xor	 al, -19			; ffffffedH
  00190	88 45 f8	 mov	 BYTE PTR __k$[ebp+24], al
  00193	e9 84 00 00 00	 jmp	 $LN1@LoadInt_e@3
$LN72@LoadInt_e@3:
  00198	c6 45 f8 ed	 mov	 BYTE PTR __k$[ebp+24], -19 ; ffffffedH
  0019c	eb 7e		 jmp	 SHORT $LN1@LoadInt_e@3
$LN73@LoadInt_e@3:
  0019e	c6 45 f7 ea	 mov	 BYTE PTR __k$[ebp+23], -22 ; ffffffeaH
  001a2	eb 78		 jmp	 SHORT $LN1@LoadInt_e@3
$LN74@LoadInt_e@3:
  001a4	88 5d f6	 mov	 BYTE PTR __k$[ebp+22], bl
  001a7	eb 73		 jmp	 SHORT $LN1@LoadInt_e@3
$LN75@LoadInt_e@3:
  001a9	88 4d f5	 mov	 BYTE PTR __k$[ebp+21], cl
  001ac	eb 6e		 jmp	 SHORT $LN1@LoadInt_e@3
$LN77@LoadInt_e@3:
  001ae	c6 45 f3 ea	 mov	 BYTE PTR __k$[ebp+19], -22 ; ffffffeaH
  001b2	eb 68		 jmp	 SHORT $LN1@LoadInt_e@3
$LN78@LoadInt_e@3:
  001b4	88 5d f2	 mov	 BYTE PTR __k$[ebp+18], bl
  001b7	eb 63		 jmp	 SHORT $LN1@LoadInt_e@3
$LN79@LoadInt_e@3:
  001b9	88 4d f1	 mov	 BYTE PTR __k$[ebp+17], cl
  001bc	eb 5e		 jmp	 SHORT $LN1@LoadInt_e@3
$LN80@LoadInt_e@3:
  001be	c6 45 f0 ed	 mov	 BYTE PTR __k$[ebp+16], -19 ; ffffffedH
  001c2	eb 58		 jmp	 SHORT $LN1@LoadInt_e@3
$LN81@LoadInt_e@3:
  001c4	c6 45 ef ea	 mov	 BYTE PTR __k$[ebp+15], -22 ; ffffffeaH
  001c8	eb 52		 jmp	 SHORT $LN1@LoadInt_e@3
$LN82@LoadInt_e@3:
  001ca	88 5d ee	 mov	 BYTE PTR __k$[ebp+14], bl
  001cd	eb 4d		 jmp	 SHORT $LN1@LoadInt_e@3
$LN83@LoadInt_e@3:
  001cf	88 4d ed	 mov	 BYTE PTR __k$[ebp+13], cl
  001d2	eb 48		 jmp	 SHORT $LN1@LoadInt_e@3
$LN84@LoadInt_e@3:
  001d4	c6 45 ec ed	 mov	 BYTE PTR __k$[ebp+12], -19 ; ffffffedH
  001d8	eb 42		 jmp	 SHORT $LN1@LoadInt_e@3
$LN85@LoadInt_e@3:
  001da	c6 45 eb ea	 mov	 BYTE PTR __k$[ebp+11], -22 ; ffffffeaH
  001de	eb 3c		 jmp	 SHORT $LN1@LoadInt_e@3
$LN86@LoadInt_e@3:
  001e0	88 5d ea	 mov	 BYTE PTR __k$[ebp+10], bl
  001e3	eb 37		 jmp	 SHORT $LN1@LoadInt_e@3
$LN87@LoadInt_e@3:
  001e5	88 4d e9	 mov	 BYTE PTR __k$[ebp+9], cl
  001e8	eb 32		 jmp	 SHORT $LN1@LoadInt_e@3
$LN88@LoadInt_e@3:
  001ea	c6 45 e8 ed	 mov	 BYTE PTR __k$[ebp+8], -19 ; ffffffedH
  001ee	eb 2c		 jmp	 SHORT $LN1@LoadInt_e@3
$LN89@LoadInt_e@3:
  001f0	c6 45 e7 ea	 mov	 BYTE PTR __k$[ebp+7], -22 ; ffffffeaH
  001f4	eb 26		 jmp	 SHORT $LN1@LoadInt_e@3
$LN90@LoadInt_e@3:
  001f6	88 5d e6	 mov	 BYTE PTR __k$[ebp+6], bl
  001f9	eb 21		 jmp	 SHORT $LN1@LoadInt_e@3
$LN91@LoadInt_e@3:
  001fb	88 4d e5	 mov	 BYTE PTR __k$[ebp+5], cl
  001fe	eb 1c		 jmp	 SHORT $LN1@LoadInt_e@3
$LN92@LoadInt_e@3:
  00200	c6 45 e4 ed	 mov	 BYTE PTR __k$[ebp+4], -19 ; ffffffedH
  00204	eb 16		 jmp	 SHORT $LN1@LoadInt_e@3
$LN93@LoadInt_e@3:
  00206	c6 45 e3 ea	 mov	 BYTE PTR __k$[ebp+3], -22 ; ffffffeaH
  0020a	eb 10		 jmp	 SHORT $LN1@LoadInt_e@3
$LN94@LoadInt_e@3:
  0020c	c6 45 e2 eb	 mov	 BYTE PTR __k$[ebp+2], -21 ; ffffffebH
  00210	eb 0a		 jmp	 SHORT $LN1@LoadInt_e@3
$LN95@LoadInt_e@3:
  00212	c6 45 e1 ec	 mov	 BYTE PTR __k$[ebp+1], -20 ; ffffffecH
  00216	eb 04		 jmp	 SHORT $LN1@LoadInt_e@3
$LN96@LoadInt_e@3:
  00218	c6 45 e0 ed	 mov	 BYTE PTR __k$[ebp], -19	; ffffffedH
$LN1@LoadInt_e@3:
  0021c	6a 05		 push	 5
  0021e	8d 45 e0	 lea	 eax, DWORD PTR __k$[ebp]
  00221	c6 45 f4 00	 mov	 BYTE PTR __k$[ebp+20], 0
  00225	5a		 pop	 edx
$LL104@LoadInt_e@3:
  00226	81 30 ed ec eb
	ea		 xor	 DWORD PTR [eax], -353637139 ; eaebecedH
  0022c	83 c0 04	 add	 eax, 4
  0022f	4a		 dec	 edx
  00230	75 f4		 jne	 SHORT $LL104@LoadInt_e@3

; 120  : 		return LoadInt(_k, i);

  00232	ff 75 0c	 push	 DWORD PTR _i$[ebp]
  00235	8d 45 e0	 lea	 eax, DWORD PTR __k$[ebp]
  00238	50		 push	 eax
  00239	8b ce		 mov	 ecx, esi
  0023b	ff 15 00 00 00
	00		 call	 DWORD PTR __imp_?LoadInt@ioINILoader@@QAEHPBDH@Z

; 121  : 	}

  00241	8b 4d fc	 mov	 ecx, DWORD PTR __$ArrayPad$[ebp]
  00244	5e		 pop	 esi
  00245	33 cd		 xor	 ecx, ebp
  00247	5b		 pop	 ebx
  00248	e8 00 00 00 00	 call	 @__security_check_cookie@4
  0024d	c9		 leave
  0024e	c2 08 00	 ret	 8
??$LoadInt_e@$0BF@@ioINILoader@@QAEHAAY0BF@$$CBDH@Z ENDP ; ioINILoader::LoadInt_e<21>
_TEXT	ENDS
PUBLIC	_b$GSCopy$
PUBLIC	_this$GSCopy$
PUBLIC	__$ArrayPad$
PUBLIC	??$LoadString_e@$0L@$0BL@@ioINILoader@@QAEXAAY0L@$$CBDAAY0BL@$$CBDPADH@Z ; ioINILoader::LoadString_e<11,27>
EXTRN	__imp_?LoadStringA@ioINILoader@@QAEXPBD0PADH@Z:PROC
; Function compile flags: /Ogsp
;	COMDAT ??$LoadString_e@$0L@$0BL@@ioINILoader@@QAEXAAY0L@$$CBDAAY0BL@$$CBDPADH@Z
_TEXT	SEGMENT
_b$GSCopy$ = -60					; size = 4
_this$GSCopy$ = -56					; size = 4
__d$ = -52						; size = 27
__k$ = -20						; size = 11
__$ArrayPad$ = -4					; size = 4
_k$ = 8							; size = 4
_d$ = 12						; size = 4
_b$ = 16						; size = 4
_i$ = 20						; size = 4
??$LoadString_e@$0L@$0BL@@ioINILoader@@QAEXAAY0L@$$CBDAAY0BL@$$CBDPADH@Z PROC ; ioINILoader::LoadString_e<11,27>, COMDAT
; _this$ = ecx

; 152  : 	{

  00000	55		 push	 ebp
  00001	8b ec		 mov	 ebp, esp
  00003	83 ec 3c	 sub	 esp, 60			; 0000003cH
  00006	a1 00 00 00 00	 mov	 eax, DWORD PTR ___security_cookie
  0000b	33 c5		 xor	 eax, ebp
  0000d	89 45 fc	 mov	 DWORD PTR __$ArrayPad$[ebp], eax
  00010	8b 55 08	 mov	 edx, DWORD PTR _k$[ebp]
  00013	8b 45 0c	 mov	 eax, DWORD PTR _d$[ebp]
  00016	89 4d c8	 mov	 DWORD PTR _this$GSCopy$[ebp], ecx
  00019	8b 4d 10	 mov	 ecx, DWORD PTR _b$[ebp]
  0001c	53		 push	 ebx

; 153  : 		_ENCSTR(k, _k);

  0001d	8a 1a		 mov	 bl, BYTE PTR [edx]

; 154  : 		_ENCSTR(d, _d);

  0001f	89 4d c4	 mov	 DWORD PTR _b$GSCopy$[ebp], ecx
  00022	32 c9		 xor	 cl, cl
  00024	56		 push	 esi
  00025	57		 push	 edi
  00026	3a d9		 cmp	 bl, cl
  00028	0f 84 24 01 00
	00		 je	 $LN192@LoadString

; 153  : 		_ENCSTR(k, _k);

  0002e	80 f3 ed	 xor	 bl, -19			; ffffffedH
  00031	88 5d ec	 mov	 BYTE PTR __k$[ebp], bl
  00034	8a 5a 01	 mov	 bl, BYTE PTR [edx+1]
  00037	3a d9		 cmp	 bl, cl
  00039	0f 84 0d 01 00
	00		 je	 $LN191@LoadString
  0003f	80 f3 ec	 xor	 bl, -20			; ffffffecH
  00042	88 5d ed	 mov	 BYTE PTR __k$[ebp+1], bl
  00045	8a 5a 02	 mov	 bl, BYTE PTR [edx+2]
  00048	3a d9		 cmp	 bl, cl
  0004a	0f 84 f6 00 00
	00		 je	 $LN190@LoadString
  00050	80 f3 eb	 xor	 bl, -21			; ffffffebH
  00053	88 5d ee	 mov	 BYTE PTR __k$[ebp+2], bl
  00056	8a 5a 03	 mov	 bl, BYTE PTR [edx+3]
  00059	3a d9		 cmp	 bl, cl
  0005b	0f 84 df 00 00
	00		 je	 $LN189@LoadString
  00061	80 f3 ea	 xor	 bl, -22			; ffffffeaH
  00064	88 5d ef	 mov	 BYTE PTR __k$[ebp+3], bl
  00067	8a 5a 04	 mov	 bl, BYTE PTR [edx+4]
  0006a	3a d9		 cmp	 bl, cl
  0006c	0f 84 c8 00 00
	00		 je	 $LN188@LoadString
  00072	80 f3 ed	 xor	 bl, -19			; ffffffedH
  00075	88 5d f0	 mov	 BYTE PTR __k$[ebp+4], bl
  00078	8a 5a 05	 mov	 bl, BYTE PTR [edx+5]
  0007b	3a d9		 cmp	 bl, cl
  0007d	0f 84 b1 00 00
	00		 je	 $LN187@LoadString
  00083	80 f3 ec	 xor	 bl, -20			; ffffffecH
  00086	88 5d f1	 mov	 BYTE PTR __k$[ebp+5], bl
  00089	8a 5a 06	 mov	 bl, BYTE PTR [edx+6]
  0008c	3a d9		 cmp	 bl, cl
  0008e	0f 84 9a 00 00
	00		 je	 $LN186@LoadString
  00094	80 f3 eb	 xor	 bl, -21			; ffffffebH
  00097	88 5d f2	 mov	 BYTE PTR __k$[ebp+6], bl
  0009a	8a 5a 07	 mov	 bl, BYTE PTR [edx+7]
  0009d	3a d9		 cmp	 bl, cl
  0009f	0f 84 83 00 00
	00		 je	 $LN185@LoadString
  000a5	80 f3 ea	 xor	 bl, -22			; ffffffeaH
  000a8	88 5d f3	 mov	 BYTE PTR __k$[ebp+7], bl
  000ab	8a 5a 08	 mov	 bl, BYTE PTR [edx+8]
  000ae	3a d9		 cmp	 bl, cl
  000b0	74 70		 je	 SHORT $LN184@LoadString
  000b2	80 f3 ed	 xor	 bl, -19			; ffffffedH
  000b5	88 5d f4	 mov	 BYTE PTR __k$[ebp+8], bl
  000b8	8a 5a 09	 mov	 bl, BYTE PTR [edx+9]
  000bb	3a d9		 cmp	 bl, cl
  000bd	74 5d		 je	 SHORT $LN183@LoadString
  000bf	80 f3 ec	 xor	 bl, -20			; ffffffecH
  000c2	88 5d f5	 mov	 BYTE PTR __k$[ebp+9], bl
  000c5	38 4a 0a	 cmp	 BYTE PTR [edx+10], cl
  000c8	0f 84 88 00 00
	00		 je	 $LN97@LoadString
  000ce	8a 5a 0b	 mov	 bl, BYTE PTR [edx+11]
  000d1	3a d9		 cmp	 bl, cl
  000d3	74 41		 je	 SHORT $LN181@LoadString
  000d5	80 f3 ea	 xor	 bl, -22			; ffffffeaH
  000d8	88 5d f7	 mov	 BYTE PTR __k$[ebp+11], bl
  000db	8a 5a 0c	 mov	 bl, BYTE PTR [edx+12]
  000de	3a d9		 cmp	 bl, cl
  000e0	74 2e		 je	 SHORT $LN180@LoadString
  000e2	80 f3 ed	 xor	 bl, -19			; ffffffedH
  000e5	88 5d f8	 mov	 BYTE PTR __k$[ebp+12], bl
  000e8	8a 5a 0d	 mov	 bl, BYTE PTR [edx+13]
  000eb	3a d9		 cmp	 bl, cl
  000ed	74 1b		 je	 SHORT $LN179@LoadString
  000ef	8a 52 0e	 mov	 dl, BYTE PTR [edx+14]
  000f2	80 f3 ec	 xor	 bl, -20			; ffffffecH
  000f5	88 5d f9	 mov	 BYTE PTR __k$[ebp+13], bl
  000f8	3a d1		 cmp	 dl, cl
  000fa	74 08		 je	 SHORT $LN178@LoadString
  000fc	80 f2 eb	 xor	 dl, -21			; ffffffebH
  000ff	88 55 fa	 mov	 BYTE PTR __k$[ebp+14], dl
  00102	eb 52		 jmp	 SHORT $LN97@LoadString
$LN178@LoadString:
  00104	c6 45 fa eb	 mov	 BYTE PTR __k$[ebp+14], -21 ; ffffffebH
  00108	eb 4c		 jmp	 SHORT $LN97@LoadString
$LN179@LoadString:
  0010a	c6 45 f9 ec	 mov	 BYTE PTR __k$[ebp+13], -20 ; ffffffecH
  0010e	eb 46		 jmp	 SHORT $LN97@LoadString
$LN180@LoadString:
  00110	c6 45 f8 ed	 mov	 BYTE PTR __k$[ebp+12], -19 ; ffffffedH
  00114	eb 40		 jmp	 SHORT $LN97@LoadString
$LN181@LoadString:
  00116	c6 45 f7 ea	 mov	 BYTE PTR __k$[ebp+11], -22 ; ffffffeaH
  0011a	eb 3a		 jmp	 SHORT $LN97@LoadString
$LN183@LoadString:
  0011c	c6 45 f5 ec	 mov	 BYTE PTR __k$[ebp+9], -20 ; ffffffecH
  00120	eb 34		 jmp	 SHORT $LN97@LoadString
$LN184@LoadString:
  00122	c6 45 f4 ed	 mov	 BYTE PTR __k$[ebp+8], -19 ; ffffffedH
  00126	eb 2e		 jmp	 SHORT $LN97@LoadString
$LN185@LoadString:
  00128	c6 45 f3 ea	 mov	 BYTE PTR __k$[ebp+7], -22 ; ffffffeaH
  0012c	eb 28		 jmp	 SHORT $LN97@LoadString
$LN186@LoadString:
  0012e	c6 45 f2 eb	 mov	 BYTE PTR __k$[ebp+6], -21 ; ffffffebH
  00132	eb 22		 jmp	 SHORT $LN97@LoadString
$LN187@LoadString:
  00134	c6 45 f1 ec	 mov	 BYTE PTR __k$[ebp+5], -20 ; ffffffecH
  00138	eb 1c		 jmp	 SHORT $LN97@LoadString
$LN188@LoadString:
  0013a	c6 45 f0 ed	 mov	 BYTE PTR __k$[ebp+4], -19 ; ffffffedH
  0013e	eb 16		 jmp	 SHORT $LN97@LoadString
$LN189@LoadString:
  00140	c6 45 ef ea	 mov	 BYTE PTR __k$[ebp+3], -22 ; ffffffeaH
  00144	eb 10		 jmp	 SHORT $LN97@LoadString
$LN190@LoadString:
  00146	c6 45 ee eb	 mov	 BYTE PTR __k$[ebp+2], -21 ; ffffffebH
  0014a	eb 0a		 jmp	 SHORT $LN97@LoadString
$LN191@LoadString:
  0014c	c6 45 ed ec	 mov	 BYTE PTR __k$[ebp+1], -20 ; ffffffecH
  00150	eb 04		 jmp	 SHORT $LN97@LoadString
$LN192@LoadString:
  00152	c6 45 ec ed	 mov	 BYTE PTR __k$[ebp], -19	; ffffffedH
$LN97@LoadString:
  00156	6a 02		 push	 2
  00158	8d 55 ec	 lea	 edx, DWORD PTR __k$[ebp]
  0015b	88 4d f6	 mov	 BYTE PTR __k$[ebp+10], cl
  0015e	5e		 pop	 esi
  0015f	bf ed ec eb ea	 mov	 edi, -353637139		; eaebecedH
$LL200@LoadString:
  00164	31 3a		 xor	 DWORD PTR [edx], edi
  00166	83 c2 04	 add	 edx, 4
  00169	4e		 dec	 esi
  0016a	75 f8		 jne	 SHORT $LL200@LoadString
  0016c	6a 08		 push	 8
  0016e	5e		 pop	 esi
$LL197@LoadString:
  0016f	8b d6		 mov	 edx, esi
  00171	81 e2 03 00 00
	80		 and	 edx, -2147483645	; 80000003H
  00177	79 05		 jns	 SHORT $LN219@LoadString
  00179	4a		 dec	 edx
  0017a	83 ca fc	 or	 edx, -4			; fffffffcH
  0017d	42		 inc	 edx
$LN219@LoadString:
  0017e	b3 ed		 mov	 bl, -19			; ffffffedH
  00180	2a da		 sub	 bl, dl
  00182	30 5c 35 ec	 xor	 BYTE PTR __k$[ebp+esi], bl
  00186	46		 inc	 esi
  00187	83 fe 0a	 cmp	 esi, 10			; 0000000aH
  0018a	7c e3		 jl	 SHORT $LL197@LoadString

; 154  : 		_ENCSTR(d, _d);

  0018c	8a 10		 mov	 dl, BYTE PTR [eax]
  0018e	3a d1		 cmp	 dl, cl
  00190	0f 84 b2 02 00
	00		 je	 $LN96@LoadString
  00196	80 f2 ed	 xor	 dl, -19			; ffffffedH
  00199	88 55 cc	 mov	 BYTE PTR __d$[ebp], dl
  0019c	8a 50 01	 mov	 dl, BYTE PTR [eax+1]
  0019f	3a d1		 cmp	 dl, cl
  001a1	0f 84 9b 02 00
	00		 je	 $LN95@LoadString
  001a7	80 f2 ec	 xor	 dl, -20			; ffffffecH
  001aa	88 55 cd	 mov	 BYTE PTR __d$[ebp+1], dl
  001ad	8a 50 02	 mov	 dl, BYTE PTR [eax+2]
  001b0	3a d1		 cmp	 dl, cl
  001b2	0f 84 84 02 00
	00		 je	 $LN94@LoadString
  001b8	80 f2 eb	 xor	 dl, -21			; ffffffebH
  001bb	88 55 ce	 mov	 BYTE PTR __d$[ebp+2], dl
  001be	8a 50 03	 mov	 dl, BYTE PTR [eax+3]
  001c1	3a d1		 cmp	 dl, cl
  001c3	0f 84 6d 02 00
	00		 je	 $LN93@LoadString
  001c9	80 f2 ea	 xor	 dl, -22			; ffffffeaH
  001cc	88 55 cf	 mov	 BYTE PTR __d$[ebp+3], dl
  001cf	8a 50 04	 mov	 dl, BYTE PTR [eax+4]
  001d2	3a d1		 cmp	 dl, cl
  001d4	0f 84 56 02 00
	00		 je	 $LN92@LoadString
  001da	80 f2 ed	 xor	 dl, -19			; ffffffedH
  001dd	88 55 d0	 mov	 BYTE PTR __d$[ebp+4], dl
  001e0	8a 50 05	 mov	 dl, BYTE PTR [eax+5]
  001e3	3a d1		 cmp	 dl, cl
  001e5	0f 84 3f 02 00
	00		 je	 $LN91@LoadString
  001eb	80 f2 ec	 xor	 dl, -20			; ffffffecH
  001ee	88 55 d1	 mov	 BYTE PTR __d$[ebp+5], dl
  001f1	8a 50 06	 mov	 dl, BYTE PTR [eax+6]
  001f4	3a d1		 cmp	 dl, cl
  001f6	0f 84 28 02 00
	00		 je	 $LN90@LoadString
  001fc	80 f2 eb	 xor	 dl, -21			; ffffffebH
  001ff	88 55 d2	 mov	 BYTE PTR __d$[ebp+6], dl
  00202	8a 50 07	 mov	 dl, BYTE PTR [eax+7]
  00205	3a d1		 cmp	 dl, cl
  00207	0f 84 11 02 00
	00		 je	 $LN89@LoadString
  0020d	80 f2 ea	 xor	 dl, -22			; ffffffeaH
  00210	88 55 d3	 mov	 BYTE PTR __d$[ebp+7], dl
  00213	8a 50 08	 mov	 dl, BYTE PTR [eax+8]
  00216	3a d1		 cmp	 dl, cl
  00218	0f 84 fa 01 00
	00		 je	 $LN88@LoadString
  0021e	80 f2 ed	 xor	 dl, -19			; ffffffedH
  00221	88 55 d4	 mov	 BYTE PTR __d$[ebp+8], dl
  00224	8a 50 09	 mov	 dl, BYTE PTR [eax+9]
  00227	3a d1		 cmp	 dl, cl
  00229	0f 84 e3 01 00
	00		 je	 $LN87@LoadString
  0022f	80 f2 ec	 xor	 dl, -20			; ffffffecH
  00232	88 55 d5	 mov	 BYTE PTR __d$[ebp+9], dl
  00235	8a 50 0a	 mov	 dl, BYTE PTR [eax+10]
  00238	3a d1		 cmp	 dl, cl
  0023a	0f 84 cc 01 00
	00		 je	 $LN86@LoadString
  00240	80 f2 eb	 xor	 dl, -21			; ffffffebH
  00243	88 55 d6	 mov	 BYTE PTR __d$[ebp+10], dl
  00246	8a 50 0b	 mov	 dl, BYTE PTR [eax+11]
  00249	3a d1		 cmp	 dl, cl
  0024b	0f 84 b5 01 00
	00		 je	 $LN85@LoadString
  00251	80 f2 ea	 xor	 dl, -22			; ffffffeaH
  00254	88 55 d7	 mov	 BYTE PTR __d$[ebp+11], dl
  00257	8a 50 0c	 mov	 dl, BYTE PTR [eax+12]
  0025a	3a d1		 cmp	 dl, cl
  0025c	0f 84 9e 01 00
	00		 je	 $LN84@LoadString
  00262	80 f2 ed	 xor	 dl, -19			; ffffffedH
  00265	88 55 d8	 mov	 BYTE PTR __d$[ebp+12], dl
  00268	8a 50 0d	 mov	 dl, BYTE PTR [eax+13]
  0026b	3a d1		 cmp	 dl, cl
  0026d	0f 84 87 01 00
	00		 je	 $LN83@LoadString
  00273	80 f2 ec	 xor	 dl, -20			; ffffffecH
  00276	88 55 d9	 mov	 BYTE PTR __d$[ebp+13], dl
  00279	8a 50 0e	 mov	 dl, BYTE PTR [eax+14]
  0027c	3a d1		 cmp	 dl, cl
  0027e	0f 84 70 01 00
	00		 je	 $LN82@LoadString
  00284	80 f2 eb	 xor	 dl, -21			; ffffffebH
  00287	88 55 da	 mov	 BYTE PTR __d$[ebp+14], dl
  0028a	8a 50 0f	 mov	 dl, BYTE PTR [eax+15]
  0028d	3a d1		 cmp	 dl, cl
  0028f	0f 84 59 01 00
	00		 je	 $LN81@LoadString
  00295	80 f2 ea	 xor	 dl, -22			; ffffffeaH
  00298	88 55 db	 mov	 BYTE PTR __d$[ebp+15], dl
  0029b	8a 50 10	 mov	 dl, BYTE PTR [eax+16]
  0029e	3a d1		 cmp	 dl, cl
  002a0	0f 84 42 01 00
	00		 je	 $LN80@LoadString
  002a6	80 f2 ed	 xor	 dl, -19			; ffffffedH
  002a9	88 55 dc	 mov	 BYTE PTR __d$[ebp+16], dl
  002ac	8a 50 11	 mov	 dl, BYTE PTR [eax+17]
  002af	3a d1		 cmp	 dl, cl
  002b1	0f 84 2b 01 00
	00		 je	 $LN79@LoadString
  002b7	80 f2 ec	 xor	 dl, -20			; ffffffecH
  002ba	88 55 dd	 mov	 BYTE PTR __d$[ebp+17], dl
  002bd	8a 50 12	 mov	 dl, BYTE PTR [eax+18]
  002c0	3a d1		 cmp	 dl, cl
  002c2	0f 84 14 01 00
	00		 je	 $LN78@LoadString
  002c8	80 f2 eb	 xor	 dl, -21			; ffffffebH
  002cb	88 55 de	 mov	 BYTE PTR __d$[ebp+18], dl
  002ce	8a 50 13	 mov	 dl, BYTE PTR [eax+19]
  002d1	3a d1		 cmp	 dl, cl
  002d3	0f 84 fd 00 00
	00		 je	 $LN77@LoadString
  002d9	80 f2 ea	 xor	 dl, -22			; ffffffeaH
  002dc	88 55 df	 mov	 BYTE PTR __d$[ebp+19], dl
  002df	8a 50 14	 mov	 dl, BYTE PTR [eax+20]
  002e2	3a d1		 cmp	 dl, cl
  002e4	0f 84 e6 00 00
	00		 je	 $LN76@LoadString
  002ea	80 f2 ed	 xor	 dl, -19			; ffffffedH
  002ed	88 55 e0	 mov	 BYTE PTR __d$[ebp+20], dl
  002f0	8a 50 15	 mov	 dl, BYTE PTR [eax+21]
  002f3	3a d1		 cmp	 dl, cl
  002f5	0f 84 cf 00 00
	00		 je	 $LN75@LoadString
  002fb	80 f2 ec	 xor	 dl, -20			; ffffffecH
  002fe	88 55 e1	 mov	 BYTE PTR __d$[ebp+21], dl
  00301	8a 50 16	 mov	 dl, BYTE PTR [eax+22]
  00304	3a d1		 cmp	 dl, cl
  00306	0f 84 b5 00 00
	00		 je	 $LN74@LoadString
  0030c	80 f2 eb	 xor	 dl, -21			; ffffffebH
  0030f	88 55 e2	 mov	 BYTE PTR __d$[ebp+22], dl
  00312	8a 50 17	 mov	 dl, BYTE PTR [eax+23]
  00315	3a d1		 cmp	 dl, cl
  00317	0f 84 9b 00 00
	00		 je	 $LN73@LoadString
  0031d	80 f2 ea	 xor	 dl, -22			; ffffffeaH
  00320	88 55 e3	 mov	 BYTE PTR __d$[ebp+23], dl
  00323	8a 50 18	 mov	 dl, BYTE PTR [eax+24]
  00326	3a d1		 cmp	 dl, cl
  00328	0f 84 81 00 00
	00		 je	 $LN72@LoadString
  0032e	80 f2 ed	 xor	 dl, -19			; ffffffedH
  00331	88 55 e4	 mov	 BYTE PTR __d$[ebp+24], dl
  00334	8a 50 19	 mov	 dl, BYTE PTR [eax+25]
  00337	3a d1		 cmp	 dl, cl
  00339	74 6b		 je	 SHORT $LN71@LoadString
  0033b	80 f2 ec	 xor	 dl, -20			; ffffffecH
  0033e	88 55 e5	 mov	 BYTE PTR __d$[ebp+25], dl
  00341	38 48 1a	 cmp	 BYTE PTR [eax+26], cl
  00344	0f 84 02 01 00
	00		 je	 $LN1@LoadString
  0034a	8a 50 1b	 mov	 dl, BYTE PTR [eax+27]
  0034d	3a d1		 cmp	 dl, cl
  0034f	74 4c		 je	 SHORT $LN69@LoadString
  00351	80 f2 ea	 xor	 dl, -22			; ffffffeaH
  00354	88 55 e7	 mov	 BYTE PTR __d$[ebp+27], dl
  00357	8a 50 1c	 mov	 dl, BYTE PTR [eax+28]
  0035a	3a d1		 cmp	 dl, cl
  0035c	74 36		 je	 SHORT $LN68@LoadString
  0035e	80 f2 ed	 xor	 dl, -19			; ffffffedH
  00361	88 55 e8	 mov	 BYTE PTR __d$[ebp+28], dl
  00364	8a 50 1d	 mov	 dl, BYTE PTR [eax+29]
  00367	3a d1		 cmp	 dl, cl
  00369	74 20		 je	 SHORT $LN67@LoadString
  0036b	8a 40 1e	 mov	 al, BYTE PTR [eax+30]
  0036e	80 f2 ec	 xor	 dl, -20			; ffffffecH
  00371	88 55 e9	 mov	 BYTE PTR __d$[ebp+29], dl
  00374	3a c1		 cmp	 al, cl
  00376	74 0a		 je	 SHORT $LN66@LoadString
  00378	34 eb		 xor	 al, -21			; ffffffebH
  0037a	88 45 ea	 mov	 BYTE PTR __d$[ebp+30], al
  0037d	e9 ca 00 00 00	 jmp	 $LN1@LoadString
$LN66@LoadString:
  00382	c6 45 ea eb	 mov	 BYTE PTR __d$[ebp+30], -21 ; ffffffebH
  00386	e9 c1 00 00 00	 jmp	 $LN1@LoadString
$LN67@LoadString:
  0038b	c6 45 e9 ec	 mov	 BYTE PTR __d$[ebp+29], -20 ; ffffffecH
  0038f	e9 b8 00 00 00	 jmp	 $LN1@LoadString
$LN68@LoadString:
  00394	c6 45 e8 ed	 mov	 BYTE PTR __d$[ebp+28], -19 ; ffffffedH
  00398	e9 af 00 00 00	 jmp	 $LN1@LoadString
$LN69@LoadString:
  0039d	c6 45 e7 ea	 mov	 BYTE PTR __d$[ebp+27], -22 ; ffffffeaH
  003a1	e9 a6 00 00 00	 jmp	 $LN1@LoadString
$LN71@LoadString:
  003a6	c6 45 e5 ec	 mov	 BYTE PTR __d$[ebp+25], -20 ; ffffffecH
  003aa	e9 9d 00 00 00	 jmp	 $LN1@LoadString
$LN72@LoadString:
  003af	c6 45 e4 ed	 mov	 BYTE PTR __d$[ebp+24], -19 ; ffffffedH
  003b3	e9 94 00 00 00	 jmp	 $LN1@LoadString
$LN73@LoadString:
  003b8	c6 45 e3 ea	 mov	 BYTE PTR __d$[ebp+23], -22 ; ffffffeaH
  003bc	e9 8b 00 00 00	 jmp	 $LN1@LoadString
$LN74@LoadString:
  003c1	c6 45 e2 eb	 mov	 BYTE PTR __d$[ebp+22], -21 ; ffffffebH
  003c5	e9 82 00 00 00	 jmp	 $LN1@LoadString
$LN75@LoadString:
  003ca	c6 45 e1 ec	 mov	 BYTE PTR __d$[ebp+21], -20 ; ffffffecH
  003ce	eb 7c		 jmp	 SHORT $LN1@LoadString
$LN76@LoadString:
  003d0	c6 45 e0 ed	 mov	 BYTE PTR __d$[ebp+20], -19 ; ffffffedH
  003d4	eb 76		 jmp	 SHORT $LN1@LoadString
$LN77@LoadString:
  003d6	c6 45 df ea	 mov	 BYTE PTR __d$[ebp+19], -22 ; ffffffeaH
  003da	eb 70		 jmp	 SHORT $LN1@LoadString
$LN78@LoadString:
  003dc	c6 45 de eb	 mov	 BYTE PTR __d$[ebp+18], -21 ; ffffffebH
  003e0	eb 6a		 jmp	 SHORT $LN1@LoadString
$LN79@LoadString:
  003e2	c6 45 dd ec	 mov	 BYTE PTR __d$[ebp+17], -20 ; ffffffecH
  003e6	eb 64		 jmp	 SHORT $LN1@LoadString
$LN80@LoadString:
  003e8	c6 45 dc ed	 mov	 BYTE PTR __d$[ebp+16], -19 ; ffffffedH
  003ec	eb 5e		 jmp	 SHORT $LN1@LoadString
$LN81@LoadString:
  003ee	c6 45 db ea	 mov	 BYTE PTR __d$[ebp+15], -22 ; ffffffeaH
  003f2	eb 58		 jmp	 SHORT $LN1@LoadString
$LN82@LoadString:
  003f4	c6 45 da eb	 mov	 BYTE PTR __d$[ebp+14], -21 ; ffffffebH
  003f8	eb 52		 jmp	 SHORT $LN1@LoadString
$LN83@LoadString:
  003fa	c6 45 d9 ec	 mov	 BYTE PTR __d$[ebp+13], -20 ; ffffffecH
  003fe	eb 4c		 jmp	 SHORT $LN1@LoadString
$LN84@LoadString:
  00400	c6 45 d8 ed	 mov	 BYTE PTR __d$[ebp+12], -19 ; ffffffedH
  00404	eb 46		 jmp	 SHORT $LN1@LoadString
$LN85@LoadString:
  00406	c6 45 d7 ea	 mov	 BYTE PTR __d$[ebp+11], -22 ; ffffffeaH
  0040a	eb 40		 jmp	 SHORT $LN1@LoadString
$LN86@LoadString:
  0040c	c6 45 d6 eb	 mov	 BYTE PTR __d$[ebp+10], -21 ; ffffffebH
  00410	eb 3a		 jmp	 SHORT $LN1@LoadString
$LN87@LoadString:
  00412	c6 45 d5 ec	 mov	 BYTE PTR __d$[ebp+9], -20 ; ffffffecH
  00416	eb 34		 jmp	 SHORT $LN1@LoadString
$LN88@LoadString:
  00418	c6 45 d4 ed	 mov	 BYTE PTR __d$[ebp+8], -19 ; ffffffedH
  0041c	eb 2e		 jmp	 SHORT $LN1@LoadString
$LN89@LoadString:
  0041e	c6 45 d3 ea	 mov	 BYTE PTR __d$[ebp+7], -22 ; ffffffeaH
  00422	eb 28		 jmp	 SHORT $LN1@LoadString
$LN90@LoadString:
  00424	c6 45 d2 eb	 mov	 BYTE PTR __d$[ebp+6], -21 ; ffffffebH
  00428	eb 22		 jmp	 SHORT $LN1@LoadString
$LN91@LoadString:
  0042a	c6 45 d1 ec	 mov	 BYTE PTR __d$[ebp+5], -20 ; ffffffecH
  0042e	eb 1c		 jmp	 SHORT $LN1@LoadString
$LN92@LoadString:
  00430	c6 45 d0 ed	 mov	 BYTE PTR __d$[ebp+4], -19 ; ffffffedH
  00434	eb 16		 jmp	 SHORT $LN1@LoadString
$LN93@LoadString:
  00436	c6 45 cf ea	 mov	 BYTE PTR __d$[ebp+3], -22 ; ffffffeaH
  0043a	eb 10		 jmp	 SHORT $LN1@LoadString
$LN94@LoadString:
  0043c	c6 45 ce eb	 mov	 BYTE PTR __d$[ebp+2], -21 ; ffffffebH
  00440	eb 0a		 jmp	 SHORT $LN1@LoadString
$LN95@LoadString:
  00442	c6 45 cd ec	 mov	 BYTE PTR __d$[ebp+1], -20 ; ffffffecH
  00446	eb 04		 jmp	 SHORT $LN1@LoadString
$LN96@LoadString:
  00448	c6 45 cc ed	 mov	 BYTE PTR __d$[ebp], -19	; ffffffedH
$LN1@LoadString:
  0044c	6a 06		 push	 6
  0044e	8d 45 cc	 lea	 eax, DWORD PTR __d$[ebp]
  00451	88 4d e6	 mov	 BYTE PTR __d$[ebp+26], cl
  00454	5a		 pop	 edx
$LL208@LoadString:
  00455	31 38		 xor	 DWORD PTR [eax], edi
  00457	83 c0 04	 add	 eax, 4
  0045a	4a		 dec	 edx
  0045b	75 f8		 jne	 SHORT $LL208@LoadString
  0045d	6a 18		 push	 24			; 00000018H
  0045f	58		 pop	 eax
  00460	5f		 pop	 edi
  00461	5e		 pop	 esi
  00462	5b		 pop	 ebx
$LL205@LoadString:
  00463	8b c8		 mov	 ecx, eax
  00465	81 e1 03 00 00
	80		 and	 ecx, -2147483645	; 80000003H
  0046b	79 05		 jns	 SHORT $LN220@LoadString
  0046d	49		 dec	 ecx
  0046e	83 c9 fc	 or	 ecx, -4			; fffffffcH
  00471	41		 inc	 ecx
$LN220@LoadString:
  00472	b2 ed		 mov	 dl, -19			; ffffffedH
  00474	2a d1		 sub	 dl, cl
  00476	30 54 05 cc	 xor	 BYTE PTR __d$[ebp+eax], dl
  0047a	40		 inc	 eax
  0047b	83 f8 1a	 cmp	 eax, 26			; 0000001aH
  0047e	7c e3		 jl	 SHORT $LL205@LoadString

; 155  : 		LoadString(_k, _d, b, i);

  00480	ff 75 14	 push	 DWORD PTR _i$[ebp]
  00483	8b 4d c8	 mov	 ecx, DWORD PTR _this$GSCopy$[ebp]
  00486	ff 75 c4	 push	 DWORD PTR _b$GSCopy$[ebp]
  00489	8d 45 cc	 lea	 eax, DWORD PTR __d$[ebp]
  0048c	50		 push	 eax
  0048d	8d 45 ec	 lea	 eax, DWORD PTR __k$[ebp]
  00490	50		 push	 eax
  00491	ff 15 00 00 00
	00		 call	 DWORD PTR __imp_?LoadStringA@ioINILoader@@QAEXPBD0PADH@Z

; 156  : 	}

  00497	8b 4d fc	 mov	 ecx, DWORD PTR __$ArrayPad$[ebp]
  0049a	33 cd		 xor	 ecx, ebp
  0049c	e8 00 00 00 00	 call	 @__security_check_cookie@4
  004a1	c9		 leave
  004a2	c2 10 00	 ret	 16			; 00000010H
??$LoadString_e@$0L@$0BL@@ioINILoader@@QAEXAAY0L@$$CBDAAY0BL@$$CBDPADH@Z ENDP ; ioINILoader::LoadString_e<11,27>
_TEXT	ENDS
PUBLIC	_b$GSCopy$
PUBLIC	_this$GSCopy$
PUBLIC	__$ArrayPad$
PUBLIC	??$LoadString_e@$0M@$0BM@@ioINILoader@@QAEXAAY0M@$$CBDAAY0BM@$$CBDPADH@Z ; ioINILoader::LoadString_e<12,28>
; Function compile flags: /Ogsp
;	COMDAT ??$LoadString_e@$0M@$0BM@@ioINILoader@@QAEXAAY0M@$$CBDAAY0BM@$$CBDPADH@Z
_TEXT	SEGMENT
_b$GSCopy$ = -60					; size = 4
_this$GSCopy$ = -56					; size = 4
__d$ = -52						; size = 28
__k$ = -20						; size = 12
__$ArrayPad$ = -4					; size = 4
_k$ = 8							; size = 4
_d$ = 12						; size = 4
_b$ = 16						; size = 4
_i$ = 20						; size = 4
??$LoadString_e@$0M@$0BM@@ioINILoader@@QAEXAAY0M@$$CBDAAY0BM@$$CBDPADH@Z PROC ; ioINILoader::LoadString_e<12,28>, COMDAT
; _this$ = ecx

; 152  : 	{

  00000	55		 push	 ebp
  00001	8b ec		 mov	 ebp, esp
  00003	83 ec 3c	 sub	 esp, 60			; 0000003cH
  00006	a1 00 00 00 00	 mov	 eax, DWORD PTR ___security_cookie
  0000b	33 c5		 xor	 eax, ebp
  0000d	89 45 fc	 mov	 DWORD PTR __$ArrayPad$[ebp], eax
  00010	8b 55 08	 mov	 edx, DWORD PTR _k$[ebp]
  00013	8b 45 0c	 mov	 eax, DWORD PTR _d$[ebp]
  00016	89 4d c8	 mov	 DWORD PTR _this$GSCopy$[ebp], ecx
  00019	8b 4d 10	 mov	 ecx, DWORD PTR _b$[ebp]
  0001c	53		 push	 ebx

; 153  : 		_ENCSTR(k, _k);

  0001d	8a 1a		 mov	 bl, BYTE PTR [edx]

; 154  : 		_ENCSTR(d, _d);

  0001f	89 4d c4	 mov	 DWORD PTR _b$GSCopy$[ebp], ecx
  00022	32 c9		 xor	 cl, cl
  00024	56		 push	 esi
  00025	57		 push	 edi
  00026	3a d9		 cmp	 bl, cl
  00028	0f 84 3b 01 00
	00		 je	 $LN192@LoadString@2

; 153  : 		_ENCSTR(k, _k);

  0002e	80 f3 ed	 xor	 bl, -19			; ffffffedH
  00031	88 5d ec	 mov	 BYTE PTR __k$[ebp], bl
  00034	8a 5a 01	 mov	 bl, BYTE PTR [edx+1]
  00037	3a d9		 cmp	 bl, cl
  00039	0f 84 24 01 00
	00		 je	 $LN191@LoadString@2
  0003f	80 f3 ec	 xor	 bl, -20			; ffffffecH
  00042	88 5d ed	 mov	 BYTE PTR __k$[ebp+1], bl
  00045	8a 5a 02	 mov	 bl, BYTE PTR [edx+2]
  00048	3a d9		 cmp	 bl, cl
  0004a	0f 84 0d 01 00
	00		 je	 $LN190@LoadString@2
  00050	80 f3 eb	 xor	 bl, -21			; ffffffebH
  00053	88 5d ee	 mov	 BYTE PTR __k$[ebp+2], bl
  00056	8a 5a 03	 mov	 bl, BYTE PTR [edx+3]
  00059	3a d9		 cmp	 bl, cl
  0005b	0f 84 f6 00 00
	00		 je	 $LN189@LoadString@2
  00061	80 f3 ea	 xor	 bl, -22			; ffffffeaH
  00064	88 5d ef	 mov	 BYTE PTR __k$[ebp+3], bl
  00067	8a 5a 04	 mov	 bl, BYTE PTR [edx+4]
  0006a	3a d9		 cmp	 bl, cl
  0006c	0f 84 df 00 00
	00		 je	 $LN188@LoadString@2
  00072	80 f3 ed	 xor	 bl, -19			; ffffffedH
  00075	88 5d f0	 mov	 BYTE PTR __k$[ebp+4], bl
  00078	8a 5a 05	 mov	 bl, BYTE PTR [edx+5]
  0007b	3a d9		 cmp	 bl, cl
  0007d	0f 84 c8 00 00
	00		 je	 $LN187@LoadString@2
  00083	80 f3 ec	 xor	 bl, -20			; ffffffecH
  00086	88 5d f1	 mov	 BYTE PTR __k$[ebp+5], bl
  00089	8a 5a 06	 mov	 bl, BYTE PTR [edx+6]
  0008c	3a d9		 cmp	 bl, cl
  0008e	0f 84 b1 00 00
	00		 je	 $LN186@LoadString@2
  00094	80 f3 eb	 xor	 bl, -21			; ffffffebH
  00097	88 5d f2	 mov	 BYTE PTR __k$[ebp+6], bl
  0009a	8a 5a 07	 mov	 bl, BYTE PTR [edx+7]
  0009d	3a d9		 cmp	 bl, cl
  0009f	0f 84 9a 00 00
	00		 je	 $LN185@LoadString@2
  000a5	80 f3 ea	 xor	 bl, -22			; ffffffeaH
  000a8	88 5d f3	 mov	 BYTE PTR __k$[ebp+7], bl
  000ab	8a 5a 08	 mov	 bl, BYTE PTR [edx+8]
  000ae	3a d9		 cmp	 bl, cl
  000b0	0f 84 83 00 00
	00		 je	 $LN184@LoadString@2
  000b6	80 f3 ed	 xor	 bl, -19			; ffffffedH
  000b9	88 5d f4	 mov	 BYTE PTR __k$[ebp+8], bl
  000bc	8a 5a 09	 mov	 bl, BYTE PTR [edx+9]
  000bf	3a d9		 cmp	 bl, cl
  000c1	74 70		 je	 SHORT $LN183@LoadString@2
  000c3	80 f3 ec	 xor	 bl, -20			; ffffffecH
  000c6	88 5d f5	 mov	 BYTE PTR __k$[ebp+9], bl
  000c9	8a 5a 0a	 mov	 bl, BYTE PTR [edx+10]
  000cc	3a d9		 cmp	 bl, cl
  000ce	74 5d		 je	 SHORT $LN182@LoadString@2
  000d0	80 f3 eb	 xor	 bl, -21			; ffffffebH
  000d3	88 5d f6	 mov	 BYTE PTR __k$[ebp+10], bl
  000d6	38 4a 0b	 cmp	 BYTE PTR [edx+11], cl
  000d9	0f 84 8e 00 00
	00		 je	 $LN97@LoadString@2
  000df	8a 5a 0c	 mov	 bl, BYTE PTR [edx+12]
  000e2	3a d9		 cmp	 bl, cl
  000e4	74 41		 je	 SHORT $LN180@LoadString@2
  000e6	80 f3 ed	 xor	 bl, -19			; ffffffedH
  000e9	88 5d f8	 mov	 BYTE PTR __k$[ebp+12], bl
  000ec	8a 5a 0d	 mov	 bl, BYTE PTR [edx+13]
  000ef	3a d9		 cmp	 bl, cl
  000f1	74 2e		 je	 SHORT $LN179@LoadString@2
  000f3	80 f3 ec	 xor	 bl, -20			; ffffffecH
  000f6	88 5d f9	 mov	 BYTE PTR __k$[ebp+13], bl
  000f9	8a 5a 0e	 mov	 bl, BYTE PTR [edx+14]
  000fc	3a d9		 cmp	 bl, cl
  000fe	74 1b		 je	 SHORT $LN178@LoadString@2
  00100	8a 52 0f	 mov	 dl, BYTE PTR [edx+15]
  00103	80 f3 eb	 xor	 bl, -21			; ffffffebH
  00106	88 5d fa	 mov	 BYTE PTR __k$[ebp+14], bl
  00109	3a d1		 cmp	 dl, cl
  0010b	74 08		 je	 SHORT $LN177@LoadString@2
  0010d	80 f2 ea	 xor	 dl, -22			; ffffffeaH
  00110	88 55 fb	 mov	 BYTE PTR __k$[ebp+15], dl
  00113	eb 58		 jmp	 SHORT $LN97@LoadString@2
$LN177@LoadString@2:
  00115	c6 45 fb ea	 mov	 BYTE PTR __k$[ebp+15], -22 ; ffffffeaH
  00119	eb 52		 jmp	 SHORT $LN97@LoadString@2
$LN178@LoadString@2:
  0011b	c6 45 fa eb	 mov	 BYTE PTR __k$[ebp+14], -21 ; ffffffebH
  0011f	eb 4c		 jmp	 SHORT $LN97@LoadString@2
$LN179@LoadString@2:
  00121	c6 45 f9 ec	 mov	 BYTE PTR __k$[ebp+13], -20 ; ffffffecH
  00125	eb 46		 jmp	 SHORT $LN97@LoadString@2
$LN180@LoadString@2:
  00127	c6 45 f8 ed	 mov	 BYTE PTR __k$[ebp+12], -19 ; ffffffedH
  0012b	eb 40		 jmp	 SHORT $LN97@LoadString@2
$LN182@LoadString@2:
  0012d	c6 45 f6 eb	 mov	 BYTE PTR __k$[ebp+10], -21 ; ffffffebH
  00131	eb 3a		 jmp	 SHORT $LN97@LoadString@2
$LN183@LoadString@2:
  00133	c6 45 f5 ec	 mov	 BYTE PTR __k$[ebp+9], -20 ; ffffffecH
  00137	eb 34		 jmp	 SHORT $LN97@LoadString@2
$LN184@LoadString@2:
  00139	c6 45 f4 ed	 mov	 BYTE PTR __k$[ebp+8], -19 ; ffffffedH
  0013d	eb 2e		 jmp	 SHORT $LN97@LoadString@2
$LN185@LoadString@2:
  0013f	c6 45 f3 ea	 mov	 BYTE PTR __k$[ebp+7], -22 ; ffffffeaH
  00143	eb 28		 jmp	 SHORT $LN97@LoadString@2
$LN186@LoadString@2:
  00145	c6 45 f2 eb	 mov	 BYTE PTR __k$[ebp+6], -21 ; ffffffebH
  00149	eb 22		 jmp	 SHORT $LN97@LoadString@2
$LN187@LoadString@2:
  0014b	c6 45 f1 ec	 mov	 BYTE PTR __k$[ebp+5], -20 ; ffffffecH
  0014f	eb 1c		 jmp	 SHORT $LN97@LoadString@2
$LN188@LoadString@2:
  00151	c6 45 f0 ed	 mov	 BYTE PTR __k$[ebp+4], -19 ; ffffffedH
  00155	eb 16		 jmp	 SHORT $LN97@LoadString@2
$LN189@LoadString@2:
  00157	c6 45 ef ea	 mov	 BYTE PTR __k$[ebp+3], -22 ; ffffffeaH
  0015b	eb 10		 jmp	 SHORT $LN97@LoadString@2
$LN190@LoadString@2:
  0015d	c6 45 ee eb	 mov	 BYTE PTR __k$[ebp+2], -21 ; ffffffebH
  00161	eb 0a		 jmp	 SHORT $LN97@LoadString@2
$LN191@LoadString@2:
  00163	c6 45 ed ec	 mov	 BYTE PTR __k$[ebp+1], -20 ; ffffffecH
  00167	eb 04		 jmp	 SHORT $LN97@LoadString@2
$LN192@LoadString@2:
  00169	c6 45 ec ed	 mov	 BYTE PTR __k$[ebp], -19	; ffffffedH
$LN97@LoadString@2:
  0016d	6a 02		 push	 2
  0016f	8d 55 ec	 lea	 edx, DWORD PTR __k$[ebp]
  00172	88 4d f7	 mov	 BYTE PTR __k$[ebp+11], cl
  00175	5e		 pop	 esi
  00176	bf ed ec eb ea	 mov	 edi, -353637139		; eaebecedH
$LL200@LoadString@2:
  0017b	31 3a		 xor	 DWORD PTR [edx], edi
  0017d	83 c2 04	 add	 edx, 4
  00180	4e		 dec	 esi
  00181	75 f8		 jne	 SHORT $LL200@LoadString@2
  00183	6a 08		 push	 8
  00185	5e		 pop	 esi
$LL197@LoadString@2:
  00186	8b d6		 mov	 edx, esi
  00188	81 e2 03 00 00
	80		 and	 edx, -2147483645	; 80000003H
  0018e	79 05		 jns	 SHORT $LN219@LoadString@2
  00190	4a		 dec	 edx
  00191	83 ca fc	 or	 edx, -4			; fffffffcH
  00194	42		 inc	 edx
$LN219@LoadString@2:
  00195	b3 ed		 mov	 bl, -19			; ffffffedH
  00197	2a da		 sub	 bl, dl
  00199	30 5c 35 ec	 xor	 BYTE PTR __k$[ebp+esi], bl
  0019d	46		 inc	 esi
  0019e	83 fe 0b	 cmp	 esi, 11			; 0000000bH
  001a1	7c e3		 jl	 SHORT $LL197@LoadString@2

; 154  : 		_ENCSTR(d, _d);

  001a3	8a 10		 mov	 dl, BYTE PTR [eax]
  001a5	3a d1		 cmp	 dl, cl
  001a7	0f 84 cc 02 00
	00		 je	 $LN96@LoadString@2
  001ad	80 f2 ed	 xor	 dl, -19			; ffffffedH
  001b0	88 55 cc	 mov	 BYTE PTR __d$[ebp], dl
  001b3	8a 50 01	 mov	 dl, BYTE PTR [eax+1]
  001b6	3a d1		 cmp	 dl, cl
  001b8	0f 84 b5 02 00
	00		 je	 $LN95@LoadString@2
  001be	80 f2 ec	 xor	 dl, -20			; ffffffecH
  001c1	88 55 cd	 mov	 BYTE PTR __d$[ebp+1], dl
  001c4	8a 50 02	 mov	 dl, BYTE PTR [eax+2]
  001c7	3a d1		 cmp	 dl, cl
  001c9	0f 84 9e 02 00
	00		 je	 $LN94@LoadString@2
  001cf	80 f2 eb	 xor	 dl, -21			; ffffffebH
  001d2	88 55 ce	 mov	 BYTE PTR __d$[ebp+2], dl
  001d5	8a 50 03	 mov	 dl, BYTE PTR [eax+3]
  001d8	3a d1		 cmp	 dl, cl
  001da	0f 84 87 02 00
	00		 je	 $LN93@LoadString@2
  001e0	80 f2 ea	 xor	 dl, -22			; ffffffeaH
  001e3	88 55 cf	 mov	 BYTE PTR __d$[ebp+3], dl
  001e6	8a 50 04	 mov	 dl, BYTE PTR [eax+4]
  001e9	3a d1		 cmp	 dl, cl
  001eb	0f 84 70 02 00
	00		 je	 $LN92@LoadString@2
  001f1	80 f2 ed	 xor	 dl, -19			; ffffffedH
  001f4	88 55 d0	 mov	 BYTE PTR __d$[ebp+4], dl
  001f7	8a 50 05	 mov	 dl, BYTE PTR [eax+5]
  001fa	3a d1		 cmp	 dl, cl
  001fc	0f 84 59 02 00
	00		 je	 $LN91@LoadString@2
  00202	80 f2 ec	 xor	 dl, -20			; ffffffecH
  00205	88 55 d1	 mov	 BYTE PTR __d$[ebp+5], dl
  00208	8a 50 06	 mov	 dl, BYTE PTR [eax+6]
  0020b	3a d1		 cmp	 dl, cl
  0020d	0f 84 42 02 00
	00		 je	 $LN90@LoadString@2
  00213	80 f2 eb	 xor	 dl, -21			; ffffffebH
  00216	88 55 d2	 mov	 BYTE PTR __d$[ebp+6], dl
  00219	8a 50 07	 mov	 dl, BYTE PTR [eax+7]
  0021c	3a d1		 cmp	 dl, cl
  0021e	0f 84 2b 02 00
	00		 je	 $LN89@LoadString@2
  00224	80 f2 ea	 xor	 dl, -22			; ffffffeaH
  00227	88 55 d3	 mov	 BYTE PTR __d$[ebp+7], dl
  0022a	8a 50 08	 mov	 dl, BYTE PTR [eax+8]
  0022d	3a d1		 cmp	 dl, cl
  0022f	0f 84 14 02 00
	00		 je	 $LN88@LoadString@2
  00235	80 f2 ed	 xor	 dl, -19			; ffffffedH
  00238	88 55 d4	 mov	 BYTE PTR __d$[ebp+8], dl
  0023b	8a 50 09	 mov	 dl, BYTE PTR [eax+9]
  0023e	3a d1		 cmp	 dl, cl
  00240	0f 84 fd 01 00
	00		 je	 $LN87@LoadString@2
  00246	80 f2 ec	 xor	 dl, -20			; ffffffecH
  00249	88 55 d5	 mov	 BYTE PTR __d$[ebp+9], dl
  0024c	8a 50 0a	 mov	 dl, BYTE PTR [eax+10]
  0024f	3a d1		 cmp	 dl, cl
  00251	0f 84 e6 01 00
	00		 je	 $LN86@LoadString@2
  00257	80 f2 eb	 xor	 dl, -21			; ffffffebH
  0025a	88 55 d6	 mov	 BYTE PTR __d$[ebp+10], dl
  0025d	8a 50 0b	 mov	 dl, BYTE PTR [eax+11]
  00260	3a d1		 cmp	 dl, cl
  00262	0f 84 cf 01 00
	00		 je	 $LN85@LoadString@2
  00268	80 f2 ea	 xor	 dl, -22			; ffffffeaH
  0026b	88 55 d7	 mov	 BYTE PTR __d$[ebp+11], dl
  0026e	8a 50 0c	 mov	 dl, BYTE PTR [eax+12]
  00271	3a d1		 cmp	 dl, cl
  00273	0f 84 b8 01 00
	00		 je	 $LN84@LoadString@2
  00279	80 f2 ed	 xor	 dl, -19			; ffffffedH
  0027c	88 55 d8	 mov	 BYTE PTR __d$[ebp+12], dl
  0027f	8a 50 0d	 mov	 dl, BYTE PTR [eax+13]
  00282	3a d1		 cmp	 dl, cl
  00284	0f 84 a1 01 00
	00		 je	 $LN83@LoadString@2
  0028a	80 f2 ec	 xor	 dl, -20			; ffffffecH
  0028d	88 55 d9	 mov	 BYTE PTR __d$[ebp+13], dl
  00290	8a 50 0e	 mov	 dl, BYTE PTR [eax+14]
  00293	3a d1		 cmp	 dl, cl
  00295	0f 84 8a 01 00
	00		 je	 $LN82@LoadString@2
  0029b	80 f2 eb	 xor	 dl, -21			; ffffffebH
  0029e	88 55 da	 mov	 BYTE PTR __d$[ebp+14], dl
  002a1	8a 50 0f	 mov	 dl, BYTE PTR [eax+15]
  002a4	3a d1		 cmp	 dl, cl
  002a6	0f 84 73 01 00
	00		 je	 $LN81@LoadString@2
  002ac	80 f2 ea	 xor	 dl, -22			; ffffffeaH
  002af	88 55 db	 mov	 BYTE PTR __d$[ebp+15], dl
  002b2	8a 50 10	 mov	 dl, BYTE PTR [eax+16]
  002b5	3a d1		 cmp	 dl, cl
  002b7	0f 84 5c 01 00
	00		 je	 $LN80@LoadString@2
  002bd	80 f2 ed	 xor	 dl, -19			; ffffffedH
  002c0	88 55 dc	 mov	 BYTE PTR __d$[ebp+16], dl
  002c3	8a 50 11	 mov	 dl, BYTE PTR [eax+17]
  002c6	3a d1		 cmp	 dl, cl
  002c8	0f 84 45 01 00
	00		 je	 $LN79@LoadString@2
  002ce	80 f2 ec	 xor	 dl, -20			; ffffffecH
  002d1	88 55 dd	 mov	 BYTE PTR __d$[ebp+17], dl
  002d4	8a 50 12	 mov	 dl, BYTE PTR [eax+18]
  002d7	3a d1		 cmp	 dl, cl
  002d9	0f 84 2e 01 00
	00		 je	 $LN78@LoadString@2
  002df	80 f2 eb	 xor	 dl, -21			; ffffffebH
  002e2	88 55 de	 mov	 BYTE PTR __d$[ebp+18], dl
  002e5	8a 50 13	 mov	 dl, BYTE PTR [eax+19]
  002e8	3a d1		 cmp	 dl, cl
  002ea	0f 84 17 01 00
	00		 je	 $LN77@LoadString@2
  002f0	80 f2 ea	 xor	 dl, -22			; ffffffeaH
  002f3	88 55 df	 mov	 BYTE PTR __d$[ebp+19], dl
  002f6	8a 50 14	 mov	 dl, BYTE PTR [eax+20]
  002f9	3a d1		 cmp	 dl, cl
  002fb	0f 84 00 01 00
	00		 je	 $LN76@LoadString@2
  00301	80 f2 ed	 xor	 dl, -19			; ffffffedH
  00304	88 55 e0	 mov	 BYTE PTR __d$[ebp+20], dl
  00307	8a 50 15	 mov	 dl, BYTE PTR [eax+21]
  0030a	3a d1		 cmp	 dl, cl
  0030c	0f 84 e9 00 00
	00		 je	 $LN75@LoadString@2
  00312	80 f2 ec	 xor	 dl, -20			; ffffffecH
  00315	88 55 e1	 mov	 BYTE PTR __d$[ebp+21], dl
  00318	8a 50 16	 mov	 dl, BYTE PTR [eax+22]
  0031b	3a d1		 cmp	 dl, cl
  0031d	0f 84 cf 00 00
	00		 je	 $LN74@LoadString@2
  00323	80 f2 eb	 xor	 dl, -21			; ffffffebH
  00326	88 55 e2	 mov	 BYTE PTR __d$[ebp+22], dl
  00329	8a 50 17	 mov	 dl, BYTE PTR [eax+23]
  0032c	3a d1		 cmp	 dl, cl
  0032e	0f 84 b5 00 00
	00		 je	 $LN73@LoadString@2
  00334	80 f2 ea	 xor	 dl, -22			; ffffffeaH
  00337	88 55 e3	 mov	 BYTE PTR __d$[ebp+23], dl
  0033a	8a 50 18	 mov	 dl, BYTE PTR [eax+24]
  0033d	3a d1		 cmp	 dl, cl
  0033f	0f 84 9b 00 00
	00		 je	 $LN72@LoadString@2
  00345	80 f2 ed	 xor	 dl, -19			; ffffffedH
  00348	88 55 e4	 mov	 BYTE PTR __d$[ebp+24], dl
  0034b	8a 50 19	 mov	 dl, BYTE PTR [eax+25]
  0034e	3a d1		 cmp	 dl, cl
  00350	0f 84 81 00 00
	00		 je	 $LN71@LoadString@2
  00356	80 f2 ec	 xor	 dl, -20			; ffffffecH
  00359	88 55 e5	 mov	 BYTE PTR __d$[ebp+25], dl
  0035c	8a 50 1a	 mov	 dl, BYTE PTR [eax+26]
  0035f	3a d1		 cmp	 dl, cl
  00361	74 6b		 je	 SHORT $LN70@LoadString@2
  00363	80 f2 eb	 xor	 dl, -21			; ffffffebH
  00366	88 55 e6	 mov	 BYTE PTR __d$[ebp+26], dl
  00369	38 48 1b	 cmp	 BYTE PTR [eax+27], cl
  0036c	0f 84 0b 01 00
	00		 je	 $LN1@LoadString@2
  00372	8a 50 1c	 mov	 dl, BYTE PTR [eax+28]
  00375	3a d1		 cmp	 dl, cl
  00377	74 4c		 je	 SHORT $LN68@LoadString@2
  00379	80 f2 ed	 xor	 dl, -19			; ffffffedH
  0037c	88 55 e8	 mov	 BYTE PTR __d$[ebp+28], dl
  0037f	8a 50 1d	 mov	 dl, BYTE PTR [eax+29]
  00382	3a d1		 cmp	 dl, cl
  00384	74 36		 je	 SHORT $LN67@LoadString@2
  00386	80 f2 ec	 xor	 dl, -20			; ffffffecH
  00389	88 55 e9	 mov	 BYTE PTR __d$[ebp+29], dl
  0038c	8a 50 1e	 mov	 dl, BYTE PTR [eax+30]
  0038f	3a d1		 cmp	 dl, cl
  00391	74 20		 je	 SHORT $LN66@LoadString@2
  00393	8a 40 1f	 mov	 al, BYTE PTR [eax+31]
  00396	80 f2 eb	 xor	 dl, -21			; ffffffebH
  00399	88 55 ea	 mov	 BYTE PTR __d$[ebp+30], dl
  0039c	3a c1		 cmp	 al, cl
  0039e	74 0a		 je	 SHORT $LN65@LoadString@2
  003a0	34 ea		 xor	 al, -22			; ffffffeaH
  003a2	88 45 eb	 mov	 BYTE PTR __d$[ebp+31], al
  003a5	e9 d3 00 00 00	 jmp	 $LN1@LoadString@2
$LN65@LoadString@2:
  003aa	c6 45 eb ea	 mov	 BYTE PTR __d$[ebp+31], -22 ; ffffffeaH
  003ae	e9 ca 00 00 00	 jmp	 $LN1@LoadString@2
$LN66@LoadString@2:
  003b3	c6 45 ea eb	 mov	 BYTE PTR __d$[ebp+30], -21 ; ffffffebH
  003b7	e9 c1 00 00 00	 jmp	 $LN1@LoadString@2
$LN67@LoadString@2:
  003bc	c6 45 e9 ec	 mov	 BYTE PTR __d$[ebp+29], -20 ; ffffffecH
  003c0	e9 b8 00 00 00	 jmp	 $LN1@LoadString@2
$LN68@LoadString@2:
  003c5	c6 45 e8 ed	 mov	 BYTE PTR __d$[ebp+28], -19 ; ffffffedH
  003c9	e9 af 00 00 00	 jmp	 $LN1@LoadString@2
$LN70@LoadString@2:
  003ce	c6 45 e6 eb	 mov	 BYTE PTR __d$[ebp+26], -21 ; ffffffebH
  003d2	e9 a6 00 00 00	 jmp	 $LN1@LoadString@2
$LN71@LoadString@2:
  003d7	c6 45 e5 ec	 mov	 BYTE PTR __d$[ebp+25], -20 ; ffffffecH
  003db	e9 9d 00 00 00	 jmp	 $LN1@LoadString@2
$LN72@LoadString@2:
  003e0	c6 45 e4 ed	 mov	 BYTE PTR __d$[ebp+24], -19 ; ffffffedH
  003e4	e9 94 00 00 00	 jmp	 $LN1@LoadString@2
$LN73@LoadString@2:
  003e9	c6 45 e3 ea	 mov	 BYTE PTR __d$[ebp+23], -22 ; ffffffeaH
  003ed	e9 8b 00 00 00	 jmp	 $LN1@LoadString@2
$LN74@LoadString@2:
  003f2	c6 45 e2 eb	 mov	 BYTE PTR __d$[ebp+22], -21 ; ffffffebH
  003f6	e9 82 00 00 00	 jmp	 $LN1@LoadString@2
$LN75@LoadString@2:
  003fb	c6 45 e1 ec	 mov	 BYTE PTR __d$[ebp+21], -20 ; ffffffecH
  003ff	eb 7c		 jmp	 SHORT $LN1@LoadString@2
$LN76@LoadString@2:
  00401	c6 45 e0 ed	 mov	 BYTE PTR __d$[ebp+20], -19 ; ffffffedH
  00405	eb 76		 jmp	 SHORT $LN1@LoadString@2
$LN77@LoadString@2:
  00407	c6 45 df ea	 mov	 BYTE PTR __d$[ebp+19], -22 ; ffffffeaH
  0040b	eb 70		 jmp	 SHORT $LN1@LoadString@2
$LN78@LoadString@2:
  0040d	c6 45 de eb	 mov	 BYTE PTR __d$[ebp+18], -21 ; ffffffebH
  00411	eb 6a		 jmp	 SHORT $LN1@LoadString@2
$LN79@LoadString@2:
  00413	c6 45 dd ec	 mov	 BYTE PTR __d$[ebp+17], -20 ; ffffffecH
  00417	eb 64		 jmp	 SHORT $LN1@LoadString@2
$LN80@LoadString@2:
  00419	c6 45 dc ed	 mov	 BYTE PTR __d$[ebp+16], -19 ; ffffffedH
  0041d	eb 5e		 jmp	 SHORT $LN1@LoadString@2
$LN81@LoadString@2:
  0041f	c6 45 db ea	 mov	 BYTE PTR __d$[ebp+15], -22 ; ffffffeaH
  00423	eb 58		 jmp	 SHORT $LN1@LoadString@2
$LN82@LoadString@2:
  00425	c6 45 da eb	 mov	 BYTE PTR __d$[ebp+14], -21 ; ffffffebH
  00429	eb 52		 jmp	 SHORT $LN1@LoadString@2
$LN83@LoadString@2:
  0042b	c6 45 d9 ec	 mov	 BYTE PTR __d$[ebp+13], -20 ; ffffffecH
  0042f	eb 4c		 jmp	 SHORT $LN1@LoadString@2
$LN84@LoadString@2:
  00431	c6 45 d8 ed	 mov	 BYTE PTR __d$[ebp+12], -19 ; ffffffedH
  00435	eb 46		 jmp	 SHORT $LN1@LoadString@2
$LN85@LoadString@2:
  00437	c6 45 d7 ea	 mov	 BYTE PTR __d$[ebp+11], -22 ; ffffffeaH
  0043b	eb 40		 jmp	 SHORT $LN1@LoadString@2
$LN86@LoadString@2:
  0043d	c6 45 d6 eb	 mov	 BYTE PTR __d$[ebp+10], -21 ; ffffffebH
  00441	eb 3a		 jmp	 SHORT $LN1@LoadString@2
$LN87@LoadString@2:
  00443	c6 45 d5 ec	 mov	 BYTE PTR __d$[ebp+9], -20 ; ffffffecH
  00447	eb 34		 jmp	 SHORT $LN1@LoadString@2
$LN88@LoadString@2:
  00449	c6 45 d4 ed	 mov	 BYTE PTR __d$[ebp+8], -19 ; ffffffedH
  0044d	eb 2e		 jmp	 SHORT $LN1@LoadString@2
$LN89@LoadString@2:
  0044f	c6 45 d3 ea	 mov	 BYTE PTR __d$[ebp+7], -22 ; ffffffeaH
  00453	eb 28		 jmp	 SHORT $LN1@LoadString@2
$LN90@LoadString@2:
  00455	c6 45 d2 eb	 mov	 BYTE PTR __d$[ebp+6], -21 ; ffffffebH
  00459	eb 22		 jmp	 SHORT $LN1@LoadString@2
$LN91@LoadString@2:
  0045b	c6 45 d1 ec	 mov	 BYTE PTR __d$[ebp+5], -20 ; ffffffecH
  0045f	eb 1c		 jmp	 SHORT $LN1@LoadString@2
$LN92@LoadString@2:
  00461	c6 45 d0 ed	 mov	 BYTE PTR __d$[ebp+4], -19 ; ffffffedH
  00465	eb 16		 jmp	 SHORT $LN1@LoadString@2
$LN93@LoadString@2:
  00467	c6 45 cf ea	 mov	 BYTE PTR __d$[ebp+3], -22 ; ffffffeaH
  0046b	eb 10		 jmp	 SHORT $LN1@LoadString@2
$LN94@LoadString@2:
  0046d	c6 45 ce eb	 mov	 BYTE PTR __d$[ebp+2], -21 ; ffffffebH
  00471	eb 0a		 jmp	 SHORT $LN1@LoadString@2
$LN95@LoadString@2:
  00473	c6 45 cd ec	 mov	 BYTE PTR __d$[ebp+1], -20 ; ffffffecH
  00477	eb 04		 jmp	 SHORT $LN1@LoadString@2
$LN96@LoadString@2:
  00479	c6 45 cc ed	 mov	 BYTE PTR __d$[ebp], -19	; ffffffedH
$LN1@LoadString@2:
  0047d	6a 06		 push	 6
  0047f	8d 45 cc	 lea	 eax, DWORD PTR __d$[ebp]
  00482	88 4d e7	 mov	 BYTE PTR __d$[ebp+27], cl
  00485	5a		 pop	 edx
$LL208@LoadString@2:
  00486	31 38		 xor	 DWORD PTR [eax], edi
  00488	83 c0 04	 add	 eax, 4
  0048b	4a		 dec	 edx
  0048c	75 f8		 jne	 SHORT $LL208@LoadString@2
  0048e	6a 18		 push	 24			; 00000018H
  00490	58		 pop	 eax
  00491	5f		 pop	 edi
  00492	5e		 pop	 esi
  00493	5b		 pop	 ebx
$LL205@LoadString@2:
  00494	8b c8		 mov	 ecx, eax
  00496	81 e1 03 00 00
	80		 and	 ecx, -2147483645	; 80000003H
  0049c	79 05		 jns	 SHORT $LN220@LoadString@2
  0049e	49		 dec	 ecx
  0049f	83 c9 fc	 or	 ecx, -4			; fffffffcH
  004a2	41		 inc	 ecx
$LN220@LoadString@2:
  004a3	b2 ed		 mov	 dl, -19			; ffffffedH
  004a5	2a d1		 sub	 dl, cl
  004a7	30 54 05 cc	 xor	 BYTE PTR __d$[ebp+eax], dl
  004ab	40		 inc	 eax
  004ac	83 f8 1b	 cmp	 eax, 27			; 0000001bH
  004af	7c e3		 jl	 SHORT $LL205@LoadString@2

; 155  : 		LoadString(_k, _d, b, i);

  004b1	ff 75 14	 push	 DWORD PTR _i$[ebp]
  004b4	8b 4d c8	 mov	 ecx, DWORD PTR _this$GSCopy$[ebp]
  004b7	ff 75 c4	 push	 DWORD PTR _b$GSCopy$[ebp]
  004ba	8d 45 cc	 lea	 eax, DWORD PTR __d$[ebp]
  004bd	50		 push	 eax
  004be	8d 45 ec	 lea	 eax, DWORD PTR __k$[ebp]
  004c1	50		 push	 eax
  004c2	ff 15 00 00 00
	00		 call	 DWORD PTR __imp_?LoadStringA@ioINILoader@@QAEXPBD0PADH@Z

; 156  : 	}

  004c8	8b 4d fc	 mov	 ecx, DWORD PTR __$ArrayPad$[ebp]
  004cb	33 cd		 xor	 ecx, ebp
  004cd	e8 00 00 00 00	 call	 @__security_check_cookie@4
  004d2	c9		 leave
  004d3	c2 10 00	 ret	 16			; 00000010H
??$LoadString_e@$0M@$0BM@@ioINILoader@@QAEXAAY0M@$$CBDAAY0BM@$$CBDPADH@Z ENDP ; ioINILoader::LoadString_e<12,28>
_TEXT	ENDS
PUBLIC	_b$GSCopy$
PUBLIC	_this$GSCopy$
PUBLIC	__$ArrayPad$
PUBLIC	??$LoadString_e@$0M@$0BL@@ioINILoader@@QAEXAAY0M@$$CBDAAY0BL@$$CBDPADH@Z ; ioINILoader::LoadString_e<12,27>
; Function compile flags: /Ogsp
;	COMDAT ??$LoadString_e@$0M@$0BL@@ioINILoader@@QAEXAAY0M@$$CBDAAY0BL@$$CBDPADH@Z
_TEXT	SEGMENT
_b$GSCopy$ = -60					; size = 4
_this$GSCopy$ = -56					; size = 4
__d$ = -52						; size = 27
__k$ = -20						; size = 12
__$ArrayPad$ = -4					; size = 4
_k$ = 8							; size = 4
_d$ = 12						; size = 4
_b$ = 16						; size = 4
_i$ = 20						; size = 4
??$LoadString_e@$0M@$0BL@@ioINILoader@@QAEXAAY0M@$$CBDAAY0BL@$$CBDPADH@Z PROC ; ioINILoader::LoadString_e<12,27>, COMDAT
; _this$ = ecx

; 152  : 	{

  00000	55		 push	 ebp
  00001	8b ec		 mov	 ebp, esp
  00003	83 ec 3c	 sub	 esp, 60			; 0000003cH
  00006	a1 00 00 00 00	 mov	 eax, DWORD PTR ___security_cookie
  0000b	33 c5		 xor	 eax, ebp
  0000d	89 45 fc	 mov	 DWORD PTR __$ArrayPad$[ebp], eax
  00010	8b 55 08	 mov	 edx, DWORD PTR _k$[ebp]
  00013	8b 45 0c	 mov	 eax, DWORD PTR _d$[ebp]
  00016	89 4d c8	 mov	 DWORD PTR _this$GSCopy$[ebp], ecx
  00019	8b 4d 10	 mov	 ecx, DWORD PTR _b$[ebp]
  0001c	53		 push	 ebx

; 153  : 		_ENCSTR(k, _k);

  0001d	8a 1a		 mov	 bl, BYTE PTR [edx]

; 154  : 		_ENCSTR(d, _d);

  0001f	89 4d c4	 mov	 DWORD PTR _b$GSCopy$[ebp], ecx
  00022	32 c9		 xor	 cl, cl
  00024	56		 push	 esi
  00025	57		 push	 edi
  00026	3a d9		 cmp	 bl, cl
  00028	0f 84 3b 01 00
	00		 je	 $LN192@LoadString@3

; 153  : 		_ENCSTR(k, _k);

  0002e	80 f3 ed	 xor	 bl, -19			; ffffffedH
  00031	88 5d ec	 mov	 BYTE PTR __k$[ebp], bl
  00034	8a 5a 01	 mov	 bl, BYTE PTR [edx+1]
  00037	3a d9		 cmp	 bl, cl
  00039	0f 84 24 01 00
	00		 je	 $LN191@LoadString@3
  0003f	80 f3 ec	 xor	 bl, -20			; ffffffecH
  00042	88 5d ed	 mov	 BYTE PTR __k$[ebp+1], bl
  00045	8a 5a 02	 mov	 bl, BYTE PTR [edx+2]
  00048	3a d9		 cmp	 bl, cl
  0004a	0f 84 0d 01 00
	00		 je	 $LN190@LoadString@3
  00050	80 f3 eb	 xor	 bl, -21			; ffffffebH
  00053	88 5d ee	 mov	 BYTE PTR __k$[ebp+2], bl
  00056	8a 5a 03	 mov	 bl, BYTE PTR [edx+3]
  00059	3a d9		 cmp	 bl, cl
  0005b	0f 84 f6 00 00
	00		 je	 $LN189@LoadString@3
  00061	80 f3 ea	 xor	 bl, -22			; ffffffeaH
  00064	88 5d ef	 mov	 BYTE PTR __k$[ebp+3], bl
  00067	8a 5a 04	 mov	 bl, BYTE PTR [edx+4]
  0006a	3a d9		 cmp	 bl, cl
  0006c	0f 84 df 00 00
	00		 je	 $LN188@LoadString@3
  00072	80 f3 ed	 xor	 bl, -19			; ffffffedH
  00075	88 5d f0	 mov	 BYTE PTR __k$[ebp+4], bl
  00078	8a 5a 05	 mov	 bl, BYTE PTR [edx+5]
  0007b	3a d9		 cmp	 bl, cl
  0007d	0f 84 c8 00 00
	00		 je	 $LN187@LoadString@3
  00083	80 f3 ec	 xor	 bl, -20			; ffffffecH
  00086	88 5d f1	 mov	 BYTE PTR __k$[ebp+5], bl
  00089	8a 5a 06	 mov	 bl, BYTE PTR [edx+6]
  0008c	3a d9		 cmp	 bl, cl
  0008e	0f 84 b1 00 00
	00		 je	 $LN186@LoadString@3
  00094	80 f3 eb	 xor	 bl, -21			; ffffffebH
  00097	88 5d f2	 mov	 BYTE PTR __k$[ebp+6], bl
  0009a	8a 5a 07	 mov	 bl, BYTE PTR [edx+7]
  0009d	3a d9		 cmp	 bl, cl
  0009f	0f 84 9a 00 00
	00		 je	 $LN185@LoadString@3
  000a5	80 f3 ea	 xor	 bl, -22			; ffffffeaH
  000a8	88 5d f3	 mov	 BYTE PTR __k$[ebp+7], bl
  000ab	8a 5a 08	 mov	 bl, BYTE PTR [edx+8]
  000ae	3a d9		 cmp	 bl, cl
  000b0	0f 84 83 00 00
	00		 je	 $LN184@LoadString@3
  000b6	80 f3 ed	 xor	 bl, -19			; ffffffedH
  000b9	88 5d f4	 mov	 BYTE PTR __k$[ebp+8], bl
  000bc	8a 5a 09	 mov	 bl, BYTE PTR [edx+9]
  000bf	3a d9		 cmp	 bl, cl
  000c1	74 70		 je	 SHORT $LN183@LoadString@3
  000c3	80 f3 ec	 xor	 bl, -20			; ffffffecH
  000c6	88 5d f5	 mov	 BYTE PTR __k$[ebp+9], bl
  000c9	8a 5a 0a	 mov	 bl, BYTE PTR [edx+10]
  000cc	3a d9		 cmp	 bl, cl
  000ce	74 5d		 je	 SHORT $LN182@LoadString@3
  000d0	80 f3 eb	 xor	 bl, -21			; ffffffebH
  000d3	88 5d f6	 mov	 BYTE PTR __k$[ebp+10], bl
  000d6	38 4a 0b	 cmp	 BYTE PTR [edx+11], cl
  000d9	0f 84 8e 00 00
	00		 je	 $LN97@LoadString@3
  000df	8a 5a 0c	 mov	 bl, BYTE PTR [edx+12]
  000e2	3a d9		 cmp	 bl, cl
  000e4	74 41		 je	 SHORT $LN180@LoadString@3
  000e6	80 f3 ed	 xor	 bl, -19			; ffffffedH
  000e9	88 5d f8	 mov	 BYTE PTR __k$[ebp+12], bl
  000ec	8a 5a 0d	 mov	 bl, BYTE PTR [edx+13]
  000ef	3a d9		 cmp	 bl, cl
  000f1	74 2e		 je	 SHORT $LN179@LoadString@3
  000f3	80 f3 ec	 xor	 bl, -20			; ffffffecH
  000f6	88 5d f9	 mov	 BYTE PTR __k$[ebp+13], bl
  000f9	8a 5a 0e	 mov	 bl, BYTE PTR [edx+14]
  000fc	3a d9		 cmp	 bl, cl
  000fe	74 1b		 je	 SHORT $LN178@LoadString@3
  00100	8a 52 0f	 mov	 dl, BYTE PTR [edx+15]
  00103	80 f3 eb	 xor	 bl, -21			; ffffffebH
  00106	88 5d fa	 mov	 BYTE PTR __k$[ebp+14], bl
  00109	3a d1		 cmp	 dl, cl
  0010b	74 08		 je	 SHORT $LN177@LoadString@3
  0010d	80 f2 ea	 xor	 dl, -22			; ffffffeaH
  00110	88 55 fb	 mov	 BYTE PTR __k$[ebp+15], dl
  00113	eb 58		 jmp	 SHORT $LN97@LoadString@3
$LN177@LoadString@3:
  00115	c6 45 fb ea	 mov	 BYTE PTR __k$[ebp+15], -22 ; ffffffeaH
  00119	eb 52		 jmp	 SHORT $LN97@LoadString@3
$LN178@LoadString@3:
  0011b	c6 45 fa eb	 mov	 BYTE PTR __k$[ebp+14], -21 ; ffffffebH
  0011f	eb 4c		 jmp	 SHORT $LN97@LoadString@3
$LN179@LoadString@3:
  00121	c6 45 f9 ec	 mov	 BYTE PTR __k$[ebp+13], -20 ; ffffffecH
  00125	eb 46		 jmp	 SHORT $LN97@LoadString@3
$LN180@LoadString@3:
  00127	c6 45 f8 ed	 mov	 BYTE PTR __k$[ebp+12], -19 ; ffffffedH
  0012b	eb 40		 jmp	 SHORT $LN97@LoadString@3
$LN182@LoadString@3:
  0012d	c6 45 f6 eb	 mov	 BYTE PTR __k$[ebp+10], -21 ; ffffffebH
  00131	eb 3a		 jmp	 SHORT $LN97@LoadString@3
$LN183@LoadString@3:
  00133	c6 45 f5 ec	 mov	 BYTE PTR __k$[ebp+9], -20 ; ffffffecH
  00137	eb 34		 jmp	 SHORT $LN97@LoadString@3
$LN184@LoadString@3:
  00139	c6 45 f4 ed	 mov	 BYTE PTR __k$[ebp+8], -19 ; ffffffedH
  0013d	eb 2e		 jmp	 SHORT $LN97@LoadString@3
$LN185@LoadString@3:
  0013f	c6 45 f3 ea	 mov	 BYTE PTR __k$[ebp+7], -22 ; ffffffeaH
  00143	eb 28		 jmp	 SHORT $LN97@LoadString@3
$LN186@LoadString@3:
  00145	c6 45 f2 eb	 mov	 BYTE PTR __k$[ebp+6], -21 ; ffffffebH
  00149	eb 22		 jmp	 SHORT $LN97@LoadString@3
$LN187@LoadString@3:
  0014b	c6 45 f1 ec	 mov	 BYTE PTR __k$[ebp+5], -20 ; ffffffecH
  0014f	eb 1c		 jmp	 SHORT $LN97@LoadString@3
$LN188@LoadString@3:
  00151	c6 45 f0 ed	 mov	 BYTE PTR __k$[ebp+4], -19 ; ffffffedH
  00155	eb 16		 jmp	 SHORT $LN97@LoadString@3
$LN189@LoadString@3:
  00157	c6 45 ef ea	 mov	 BYTE PTR __k$[ebp+3], -22 ; ffffffeaH
  0015b	eb 10		 jmp	 SHORT $LN97@LoadString@3
$LN190@LoadString@3:
  0015d	c6 45 ee eb	 mov	 BYTE PTR __k$[ebp+2], -21 ; ffffffebH
  00161	eb 0a		 jmp	 SHORT $LN97@LoadString@3
$LN191@LoadString@3:
  00163	c6 45 ed ec	 mov	 BYTE PTR __k$[ebp+1], -20 ; ffffffecH
  00167	eb 04		 jmp	 SHORT $LN97@LoadString@3
$LN192@LoadString@3:
  00169	c6 45 ec ed	 mov	 BYTE PTR __k$[ebp], -19	; ffffffedH
$LN97@LoadString@3:
  0016d	6a 02		 push	 2
  0016f	8d 55 ec	 lea	 edx, DWORD PTR __k$[ebp]
  00172	88 4d f7	 mov	 BYTE PTR __k$[ebp+11], cl
  00175	5e		 pop	 esi
  00176	bf ed ec eb ea	 mov	 edi, -353637139		; eaebecedH
$LL200@LoadString@3:
  0017b	31 3a		 xor	 DWORD PTR [edx], edi
  0017d	83 c2 04	 add	 edx, 4
  00180	4e		 dec	 esi
  00181	75 f8		 jne	 SHORT $LL200@LoadString@3
  00183	6a 08		 push	 8
  00185	5e		 pop	 esi
$LL197@LoadString@3:
  00186	8b d6		 mov	 edx, esi
  00188	81 e2 03 00 00
	80		 and	 edx, -2147483645	; 80000003H
  0018e	79 05		 jns	 SHORT $LN219@LoadString@3
  00190	4a		 dec	 edx
  00191	83 ca fc	 or	 edx, -4			; fffffffcH
  00194	42		 inc	 edx
$LN219@LoadString@3:
  00195	b3 ed		 mov	 bl, -19			; ffffffedH
  00197	2a da		 sub	 bl, dl
  00199	30 5c 35 ec	 xor	 BYTE PTR __k$[ebp+esi], bl
  0019d	46		 inc	 esi
  0019e	83 fe 0b	 cmp	 esi, 11			; 0000000bH
  001a1	7c e3		 jl	 SHORT $LL197@LoadString@3

; 154  : 		_ENCSTR(d, _d);

  001a3	8a 10		 mov	 dl, BYTE PTR [eax]
  001a5	3a d1		 cmp	 dl, cl
  001a7	0f 84 b2 02 00
	00		 je	 $LN96@LoadString@3
  001ad	80 f2 ed	 xor	 dl, -19			; ffffffedH
  001b0	88 55 cc	 mov	 BYTE PTR __d$[ebp], dl
  001b3	8a 50 01	 mov	 dl, BYTE PTR [eax+1]
  001b6	3a d1		 cmp	 dl, cl
  001b8	0f 84 9b 02 00
	00		 je	 $LN95@LoadString@3
  001be	80 f2 ec	 xor	 dl, -20			; ffffffecH
  001c1	88 55 cd	 mov	 BYTE PTR __d$[ebp+1], dl
  001c4	8a 50 02	 mov	 dl, BYTE PTR [eax+2]
  001c7	3a d1		 cmp	 dl, cl
  001c9	0f 84 84 02 00
	00		 je	 $LN94@LoadString@3
  001cf	80 f2 eb	 xor	 dl, -21			; ffffffebH
  001d2	88 55 ce	 mov	 BYTE PTR __d$[ebp+2], dl
  001d5	8a 50 03	 mov	 dl, BYTE PTR [eax+3]
  001d8	3a d1		 cmp	 dl, cl
  001da	0f 84 6d 02 00
	00		 je	 $LN93@LoadString@3
  001e0	80 f2 ea	 xor	 dl, -22			; ffffffeaH
  001e3	88 55 cf	 mov	 BYTE PTR __d$[ebp+3], dl
  001e6	8a 50 04	 mov	 dl, BYTE PTR [eax+4]
  001e9	3a d1		 cmp	 dl, cl
  001eb	0f 84 56 02 00
	00		 je	 $LN92@LoadString@3
  001f1	80 f2 ed	 xor	 dl, -19			; ffffffedH
  001f4	88 55 d0	 mov	 BYTE PTR __d$[ebp+4], dl
  001f7	8a 50 05	 mov	 dl, BYTE PTR [eax+5]
  001fa	3a d1		 cmp	 dl, cl
  001fc	0f 84 3f 02 00
	00		 je	 $LN91@LoadString@3
  00202	80 f2 ec	 xor	 dl, -20			; ffffffecH
  00205	88 55 d1	 mov	 BYTE PTR __d$[ebp+5], dl
  00208	8a 50 06	 mov	 dl, BYTE PTR [eax+6]
  0020b	3a d1		 cmp	 dl, cl
  0020d	0f 84 28 02 00
	00		 je	 $LN90@LoadString@3
  00213	80 f2 eb	 xor	 dl, -21			; ffffffebH
  00216	88 55 d2	 mov	 BYTE PTR __d$[ebp+6], dl
  00219	8a 50 07	 mov	 dl, BYTE PTR [eax+7]
  0021c	3a d1		 cmp	 dl, cl
  0021e	0f 84 11 02 00
	00		 je	 $LN89@LoadString@3
  00224	80 f2 ea	 xor	 dl, -22			; ffffffeaH
  00227	88 55 d3	 mov	 BYTE PTR __d$[ebp+7], dl
  0022a	8a 50 08	 mov	 dl, BYTE PTR [eax+8]
  0022d	3a d1		 cmp	 dl, cl
  0022f	0f 84 fa 01 00
	00		 je	 $LN88@LoadString@3
  00235	80 f2 ed	 xor	 dl, -19			; ffffffedH
  00238	88 55 d4	 mov	 BYTE PTR __d$[ebp+8], dl
  0023b	8a 50 09	 mov	 dl, BYTE PTR [eax+9]
  0023e	3a d1		 cmp	 dl, cl
  00240	0f 84 e3 01 00
	00		 je	 $LN87@LoadString@3
  00246	80 f2 ec	 xor	 dl, -20			; ffffffecH
  00249	88 55 d5	 mov	 BYTE PTR __d$[ebp+9], dl
  0024c	8a 50 0a	 mov	 dl, BYTE PTR [eax+10]
  0024f	3a d1		 cmp	 dl, cl
  00251	0f 84 cc 01 00
	00		 je	 $LN86@LoadString@3
  00257	80 f2 eb	 xor	 dl, -21			; ffffffebH
  0025a	88 55 d6	 mov	 BYTE PTR __d$[ebp+10], dl
  0025d	8a 50 0b	 mov	 dl, BYTE PTR [eax+11]
  00260	3a d1		 cmp	 dl, cl
  00262	0f 84 b5 01 00
	00		 je	 $LN85@LoadString@3
  00268	80 f2 ea	 xor	 dl, -22			; ffffffeaH
  0026b	88 55 d7	 mov	 BYTE PTR __d$[ebp+11], dl
  0026e	8a 50 0c	 mov	 dl, BYTE PTR [eax+12]
  00271	3a d1		 cmp	 dl, cl
  00273	0f 84 9e 01 00
	00		 je	 $LN84@LoadString@3
  00279	80 f2 ed	 xor	 dl, -19			; ffffffedH
  0027c	88 55 d8	 mov	 BYTE PTR __d$[ebp+12], dl
  0027f	8a 50 0d	 mov	 dl, BYTE PTR [eax+13]
  00282	3a d1		 cmp	 dl, cl
  00284	0f 84 87 01 00
	00		 je	 $LN83@LoadString@3
  0028a	80 f2 ec	 xor	 dl, -20			; ffffffecH
  0028d	88 55 d9	 mov	 BYTE PTR __d$[ebp+13], dl
  00290	8a 50 0e	 mov	 dl, BYTE PTR [eax+14]
  00293	3a d1		 cmp	 dl, cl
  00295	0f 84 70 01 00
	00		 je	 $LN82@LoadString@3
  0029b	80 f2 eb	 xor	 dl, -21			; ffffffebH
  0029e	88 55 da	 mov	 BYTE PTR __d$[ebp+14], dl
  002a1	8a 50 0f	 mov	 dl, BYTE PTR [eax+15]
  002a4	3a d1		 cmp	 dl, cl
  002a6	0f 84 59 01 00
	00		 je	 $LN81@LoadString@3
  002ac	80 f2 ea	 xor	 dl, -22			; ffffffeaH
  002af	88 55 db	 mov	 BYTE PTR __d$[ebp+15], dl
  002b2	8a 50 10	 mov	 dl, BYTE PTR [eax+16]
  002b5	3a d1		 cmp	 dl, cl
  002b7	0f 84 42 01 00
	00		 je	 $LN80@LoadString@3
  002bd	80 f2 ed	 xor	 dl, -19			; ffffffedH
  002c0	88 55 dc	 mov	 BYTE PTR __d$[ebp+16], dl
  002c3	8a 50 11	 mov	 dl, BYTE PTR [eax+17]
  002c6	3a d1		 cmp	 dl, cl
  002c8	0f 84 2b 01 00
	00		 je	 $LN79@LoadString@3
  002ce	80 f2 ec	 xor	 dl, -20			; ffffffecH
  002d1	88 55 dd	 mov	 BYTE PTR __d$[ebp+17], dl
  002d4	8a 50 12	 mov	 dl, BYTE PTR [eax+18]
  002d7	3a d1		 cmp	 dl, cl
  002d9	0f 84 14 01 00
	00		 je	 $LN78@LoadString@3
  002df	80 f2 eb	 xor	 dl, -21			; ffffffebH
  002e2	88 55 de	 mov	 BYTE PTR __d$[ebp+18], dl
  002e5	8a 50 13	 mov	 dl, BYTE PTR [eax+19]
  002e8	3a d1		 cmp	 dl, cl
  002ea	0f 84 fd 00 00
	00		 je	 $LN77@LoadString@3
  002f0	80 f2 ea	 xor	 dl, -22			; ffffffeaH
  002f3	88 55 df	 mov	 BYTE PTR __d$[ebp+19], dl
  002f6	8a 50 14	 mov	 dl, BYTE PTR [eax+20]
  002f9	3a d1		 cmp	 dl, cl
  002fb	0f 84 e6 00 00
	00		 je	 $LN76@LoadString@3
  00301	80 f2 ed	 xor	 dl, -19			; ffffffedH
  00304	88 55 e0	 mov	 BYTE PTR __d$[ebp+20], dl
  00307	8a 50 15	 mov	 dl, BYTE PTR [eax+21]
  0030a	3a d1		 cmp	 dl, cl
  0030c	0f 84 cf 00 00
	00		 je	 $LN75@LoadString@3
  00312	80 f2 ec	 xor	 dl, -20			; ffffffecH
  00315	88 55 e1	 mov	 BYTE PTR __d$[ebp+21], dl
  00318	8a 50 16	 mov	 dl, BYTE PTR [eax+22]
  0031b	3a d1		 cmp	 dl, cl
  0031d	0f 84 b5 00 00
	00		 je	 $LN74@LoadString@3
  00323	80 f2 eb	 xor	 dl, -21			; ffffffebH
  00326	88 55 e2	 mov	 BYTE PTR __d$[ebp+22], dl
  00329	8a 50 17	 mov	 dl, BYTE PTR [eax+23]
  0032c	3a d1		 cmp	 dl, cl
  0032e	0f 84 9b 00 00
	00		 je	 $LN73@LoadString@3
  00334	80 f2 ea	 xor	 dl, -22			; ffffffeaH
  00337	88 55 e3	 mov	 BYTE PTR __d$[ebp+23], dl
  0033a	8a 50 18	 mov	 dl, BYTE PTR [eax+24]
  0033d	3a d1		 cmp	 dl, cl
  0033f	0f 84 81 00 00
	00		 je	 $LN72@LoadString@3
  00345	80 f2 ed	 xor	 dl, -19			; ffffffedH
  00348	88 55 e4	 mov	 BYTE PTR __d$[ebp+24], dl
  0034b	8a 50 19	 mov	 dl, BYTE PTR [eax+25]
  0034e	3a d1		 cmp	 dl, cl
  00350	74 6b		 je	 SHORT $LN71@LoadString@3
  00352	80 f2 ec	 xor	 dl, -20			; ffffffecH
  00355	88 55 e5	 mov	 BYTE PTR __d$[ebp+25], dl
  00358	38 48 1a	 cmp	 BYTE PTR [eax+26], cl
  0035b	0f 84 02 01 00
	00		 je	 $LN1@LoadString@3
  00361	8a 50 1b	 mov	 dl, BYTE PTR [eax+27]
  00364	3a d1		 cmp	 dl, cl
  00366	74 4c		 je	 SHORT $LN69@LoadString@3
  00368	80 f2 ea	 xor	 dl, -22			; ffffffeaH
  0036b	88 55 e7	 mov	 BYTE PTR __d$[ebp+27], dl
  0036e	8a 50 1c	 mov	 dl, BYTE PTR [eax+28]
  00371	3a d1		 cmp	 dl, cl
  00373	74 36		 je	 SHORT $LN68@LoadString@3
  00375	80 f2 ed	 xor	 dl, -19			; ffffffedH
  00378	88 55 e8	 mov	 BYTE PTR __d$[ebp+28], dl
  0037b	8a 50 1d	 mov	 dl, BYTE PTR [eax+29]
  0037e	3a d1		 cmp	 dl, cl
  00380	74 20		 je	 SHORT $LN67@LoadString@3
  00382	8a 40 1e	 mov	 al, BYTE PTR [eax+30]
  00385	80 f2 ec	 xor	 dl, -20			; ffffffecH
  00388	88 55 e9	 mov	 BYTE PTR __d$[ebp+29], dl
  0038b	3a c1		 cmp	 al, cl
  0038d	74 0a		 je	 SHORT $LN66@LoadString@3
  0038f	34 eb		 xor	 al, -21			; ffffffebH
  00391	88 45 ea	 mov	 BYTE PTR __d$[ebp+30], al
  00394	e9 ca 00 00 00	 jmp	 $LN1@LoadString@3
$LN66@LoadString@3:
  00399	c6 45 ea eb	 mov	 BYTE PTR __d$[ebp+30], -21 ; ffffffebH
  0039d	e9 c1 00 00 00	 jmp	 $LN1@LoadString@3
$LN67@LoadString@3:
  003a2	c6 45 e9 ec	 mov	 BYTE PTR __d$[ebp+29], -20 ; ffffffecH
  003a6	e9 b8 00 00 00	 jmp	 $LN1@LoadString@3
$LN68@LoadString@3:
  003ab	c6 45 e8 ed	 mov	 BYTE PTR __d$[ebp+28], -19 ; ffffffedH
  003af	e9 af 00 00 00	 jmp	 $LN1@LoadString@3
$LN69@LoadString@3:
  003b4	c6 45 e7 ea	 mov	 BYTE PTR __d$[ebp+27], -22 ; ffffffeaH
  003b8	e9 a6 00 00 00	 jmp	 $LN1@LoadString@3
$LN71@LoadString@3:
  003bd	c6 45 e5 ec	 mov	 BYTE PTR __d$[ebp+25], -20 ; ffffffecH
  003c1	e9 9d 00 00 00	 jmp	 $LN1@LoadString@3
$LN72@LoadString@3:
  003c6	c6 45 e4 ed	 mov	 BYTE PTR __d$[ebp+24], -19 ; ffffffedH
  003ca	e9 94 00 00 00	 jmp	 $LN1@LoadString@3
$LN73@LoadString@3:
  003cf	c6 45 e3 ea	 mov	 BYTE PTR __d$[ebp+23], -22 ; ffffffeaH
  003d3	e9 8b 00 00 00	 jmp	 $LN1@LoadString@3
$LN74@LoadString@3:
  003d8	c6 45 e2 eb	 mov	 BYTE PTR __d$[ebp+22], -21 ; ffffffebH
  003dc	e9 82 00 00 00	 jmp	 $LN1@LoadString@3
$LN75@LoadString@3:
  003e1	c6 45 e1 ec	 mov	 BYTE PTR __d$[ebp+21], -20 ; ffffffecH
  003e5	eb 7c		 jmp	 SHORT $LN1@LoadString@3
$LN76@LoadString@3:
  003e7	c6 45 e0 ed	 mov	 BYTE PTR __d$[ebp+20], -19 ; ffffffedH
  003eb	eb 76		 jmp	 SHORT $LN1@LoadString@3
$LN77@LoadString@3:
  003ed	c6 45 df ea	 mov	 BYTE PTR __d$[ebp+19], -22 ; ffffffeaH
  003f1	eb 70		 jmp	 SHORT $LN1@LoadString@3
$LN78@LoadString@3:
  003f3	c6 45 de eb	 mov	 BYTE PTR __d$[ebp+18], -21 ; ffffffebH
  003f7	eb 6a		 jmp	 SHORT $LN1@LoadString@3
$LN79@LoadString@3:
  003f9	c6 45 dd ec	 mov	 BYTE PTR __d$[ebp+17], -20 ; ffffffecH
  003fd	eb 64		 jmp	 SHORT $LN1@LoadString@3
$LN80@LoadString@3:
  003ff	c6 45 dc ed	 mov	 BYTE PTR __d$[ebp+16], -19 ; ffffffedH
  00403	eb 5e		 jmp	 SHORT $LN1@LoadString@3
$LN81@LoadString@3:
  00405	c6 45 db ea	 mov	 BYTE PTR __d$[ebp+15], -22 ; ffffffeaH
  00409	eb 58		 jmp	 SHORT $LN1@LoadString@3
$LN82@LoadString@3:
  0040b	c6 45 da eb	 mov	 BYTE PTR __d$[ebp+14], -21 ; ffffffebH
  0040f	eb 52		 jmp	 SHORT $LN1@LoadString@3
$LN83@LoadString@3:
  00411	c6 45 d9 ec	 mov	 BYTE PTR __d$[ebp+13], -20 ; ffffffecH
  00415	eb 4c		 jmp	 SHORT $LN1@LoadString@3
$LN84@LoadString@3:
  00417	c6 45 d8 ed	 mov	 BYTE PTR __d$[ebp+12], -19 ; ffffffedH
  0041b	eb 46		 jmp	 SHORT $LN1@LoadString@3
$LN85@LoadString@3:
  0041d	c6 45 d7 ea	 mov	 BYTE PTR __d$[ebp+11], -22 ; ffffffeaH
  00421	eb 40		 jmp	 SHORT $LN1@LoadString@3
$LN86@LoadString@3:
  00423	c6 45 d6 eb	 mov	 BYTE PTR __d$[ebp+10], -21 ; ffffffebH
  00427	eb 3a		 jmp	 SHORT $LN1@LoadString@3
$LN87@LoadString@3:
  00429	c6 45 d5 ec	 mov	 BYTE PTR __d$[ebp+9], -20 ; ffffffecH
  0042d	eb 34		 jmp	 SHORT $LN1@LoadString@3
$LN88@LoadString@3:
  0042f	c6 45 d4 ed	 mov	 BYTE PTR __d$[ebp+8], -19 ; ffffffedH
  00433	eb 2e		 jmp	 SHORT $LN1@LoadString@3
$LN89@LoadString@3:
  00435	c6 45 d3 ea	 mov	 BYTE PTR __d$[ebp+7], -22 ; ffffffeaH
  00439	eb 28		 jmp	 SHORT $LN1@LoadString@3
$LN90@LoadString@3:
  0043b	c6 45 d2 eb	 mov	 BYTE PTR __d$[ebp+6], -21 ; ffffffebH
  0043f	eb 22		 jmp	 SHORT $LN1@LoadString@3
$LN91@LoadString@3:
  00441	c6 45 d1 ec	 mov	 BYTE PTR __d$[ebp+5], -20 ; ffffffecH
  00445	eb 1c		 jmp	 SHORT $LN1@LoadString@3
$LN92@LoadString@3:
  00447	c6 45 d0 ed	 mov	 BYTE PTR __d$[ebp+4], -19 ; ffffffedH
  0044b	eb 16		 jmp	 SHORT $LN1@LoadString@3
$LN93@LoadString@3:
  0044d	c6 45 cf ea	 mov	 BYTE PTR __d$[ebp+3], -22 ; ffffffeaH
  00451	eb 10		 jmp	 SHORT $LN1@LoadString@3
$LN94@LoadString@3:
  00453	c6 45 ce eb	 mov	 BYTE PTR __d$[ebp+2], -21 ; ffffffebH
  00457	eb 0a		 jmp	 SHORT $LN1@LoadString@3
$LN95@LoadString@3:
  00459	c6 45 cd ec	 mov	 BYTE PTR __d$[ebp+1], -20 ; ffffffecH
  0045d	eb 04		 jmp	 SHORT $LN1@LoadString@3
$LN96@LoadString@3:
  0045f	c6 45 cc ed	 mov	 BYTE PTR __d$[ebp], -19	; ffffffedH
$LN1@LoadString@3:
  00463	6a 06		 push	 6
  00465	8d 45 cc	 lea	 eax, DWORD PTR __d$[ebp]
  00468	88 4d e6	 mov	 BYTE PTR __d$[ebp+26], cl
  0046b	5a		 pop	 edx
$LL208@LoadString@3:
  0046c	31 38		 xor	 DWORD PTR [eax], edi
  0046e	83 c0 04	 add	 eax, 4
  00471	4a		 dec	 edx
  00472	75 f8		 jne	 SHORT $LL208@LoadString@3
  00474	6a 18		 push	 24			; 00000018H
  00476	58		 pop	 eax
  00477	5f		 pop	 edi
  00478	5e		 pop	 esi
  00479	5b		 pop	 ebx
$LL205@LoadString@3:
  0047a	8b c8		 mov	 ecx, eax
  0047c	81 e1 03 00 00
	80		 and	 ecx, -2147483645	; 80000003H
  00482	79 05		 jns	 SHORT $LN220@LoadString@3
  00484	49		 dec	 ecx
  00485	83 c9 fc	 or	 ecx, -4			; fffffffcH
  00488	41		 inc	 ecx
$LN220@LoadString@3:
  00489	b2 ed		 mov	 dl, -19			; ffffffedH
  0048b	2a d1		 sub	 dl, cl
  0048d	30 54 05 cc	 xor	 BYTE PTR __d$[ebp+eax], dl
  00491	40		 inc	 eax
  00492	83 f8 1a	 cmp	 eax, 26			; 0000001aH
  00495	7c e3		 jl	 SHORT $LL205@LoadString@3

; 155  : 		LoadString(_k, _d, b, i);

  00497	ff 75 14	 push	 DWORD PTR _i$[ebp]
  0049a	8b 4d c8	 mov	 ecx, DWORD PTR _this$GSCopy$[ebp]
  0049d	ff 75 c4	 push	 DWORD PTR _b$GSCopy$[ebp]
  004a0	8d 45 cc	 lea	 eax, DWORD PTR __d$[ebp]
  004a3	50		 push	 eax
  004a4	8d 45 ec	 lea	 eax, DWORD PTR __k$[ebp]
  004a7	50		 push	 eax
  004a8	ff 15 00 00 00
	00		 call	 DWORD PTR __imp_?LoadStringA@ioINILoader@@QAEXPBD0PADH@Z

; 156  : 	}

  004ae	8b 4d fc	 mov	 ecx, DWORD PTR __$ArrayPad$[ebp]
  004b1	33 cd		 xor	 ecx, ebp
  004b3	e8 00 00 00 00	 call	 @__security_check_cookie@4
  004b8	c9		 leave
  004b9	c2 10 00	 ret	 16			; 00000010H
??$LoadString_e@$0M@$0BL@@ioINILoader@@QAEXAAY0M@$$CBDAAY0BL@$$CBDPADH@Z ENDP ; ioINILoader::LoadString_e<12,27>
_TEXT	ENDS
PUBLIC	_this$GSCopy$
PUBLIC	__$ArrayPad$
PUBLIC	??$LoadString_e@$0BF@$0BP@@ioINILoader@@QAEXAAY0BF@$$CBDAAY0BP@$$CBDPADH@Z ; ioINILoader::LoadString_e<21,31>
; Function compile flags: /Ogsp
;	COMDAT ??$LoadString_e@$0BF@$0BP@@ioINILoader@@QAEXAAY0BF@$$CBDAAY0BP@$$CBDPADH@Z
_TEXT	SEGMENT
_this$GSCopy$ = -72					; size = 4
__k$ = -68						; size = 21
__d$ = -40						; size = 31
__$ArrayPad$ = -4					; size = 4
_k$ = 8							; size = 4
_d$ = 12						; size = 4
_b$ = 16						; size = 4
_i$ = 20						; size = 4
??$LoadString_e@$0BF@$0BP@@ioINILoader@@QAEXAAY0BF@$$CBDAAY0BP@$$CBDPADH@Z PROC ; ioINILoader::LoadString_e<21,31>, COMDAT
; _this$ = ecx

; 152  : 	{

  00000	55		 push	 ebp
  00001	8b ec		 mov	 ebp, esp
  00003	83 ec 48	 sub	 esp, 72			; 00000048H
  00006	a1 00 00 00 00	 mov	 eax, DWORD PTR ___security_cookie
  0000b	33 c5		 xor	 eax, ebp
  0000d	89 45 fc	 mov	 DWORD PTR __$ArrayPad$[ebp], eax
  00010	8b 45 08	 mov	 eax, DWORD PTR _k$[ebp]
  00013	8b 55 0c	 mov	 edx, DWORD PTR _d$[ebp]
  00016	53		 push	 ebx

; 153  : 		_ENCSTR(k, _k);

  00017	8a 18		 mov	 bl, BYTE PTR [eax]
  00019	89 4d b8	 mov	 DWORD PTR _this$GSCopy$[ebp], ecx
  0001c	32 c9		 xor	 cl, cl
  0001e	57		 push	 edi
  0001f	8b 7d 10	 mov	 edi, DWORD PTR _b$[ebp]
  00022	3a d9		 cmp	 bl, cl
  00024	0f 84 12 02 00
	00		 je	 $LN192@LoadString@4
  0002a	80 f3 ed	 xor	 bl, -19			; ffffffedH
  0002d	88 5d bc	 mov	 BYTE PTR __k$[ebp], bl
  00030	8a 58 01	 mov	 bl, BYTE PTR [eax+1]
  00033	3a d9		 cmp	 bl, cl
  00035	0f 84 fb 01 00
	00		 je	 $LN191@LoadString@4
  0003b	80 f3 ec	 xor	 bl, -20			; ffffffecH
  0003e	88 5d bd	 mov	 BYTE PTR __k$[ebp+1], bl
  00041	8a 58 02	 mov	 bl, BYTE PTR [eax+2]
  00044	3a d9		 cmp	 bl, cl
  00046	0f 84 e4 01 00
	00		 je	 $LN190@LoadString@4
  0004c	80 f3 eb	 xor	 bl, -21			; ffffffebH
  0004f	88 5d be	 mov	 BYTE PTR __k$[ebp+2], bl
  00052	8a 58 03	 mov	 bl, BYTE PTR [eax+3]
  00055	3a d9		 cmp	 bl, cl
  00057	0f 84 cd 01 00
	00		 je	 $LN189@LoadString@4
  0005d	80 f3 ea	 xor	 bl, -22			; ffffffeaH
  00060	88 5d bf	 mov	 BYTE PTR __k$[ebp+3], bl
  00063	8a 58 04	 mov	 bl, BYTE PTR [eax+4]
  00066	3a d9		 cmp	 bl, cl
  00068	0f 84 b6 01 00
	00		 je	 $LN188@LoadString@4
  0006e	80 f3 ed	 xor	 bl, -19			; ffffffedH
  00071	88 5d c0	 mov	 BYTE PTR __k$[ebp+4], bl
  00074	8a 58 05	 mov	 bl, BYTE PTR [eax+5]
  00077	3a d9		 cmp	 bl, cl
  00079	0f 84 9f 01 00
	00		 je	 $LN187@LoadString@4
  0007f	80 f3 ec	 xor	 bl, -20			; ffffffecH
  00082	88 5d c1	 mov	 BYTE PTR __k$[ebp+5], bl
  00085	8a 58 06	 mov	 bl, BYTE PTR [eax+6]
  00088	3a d9		 cmp	 bl, cl
  0008a	0f 84 88 01 00
	00		 je	 $LN186@LoadString@4
  00090	80 f3 eb	 xor	 bl, -21			; ffffffebH
  00093	88 5d c2	 mov	 BYTE PTR __k$[ebp+6], bl
  00096	8a 58 07	 mov	 bl, BYTE PTR [eax+7]
  00099	3a d9		 cmp	 bl, cl
  0009b	0f 84 71 01 00
	00		 je	 $LN185@LoadString@4
  000a1	80 f3 ea	 xor	 bl, -22			; ffffffeaH
  000a4	88 5d c3	 mov	 BYTE PTR __k$[ebp+7], bl
  000a7	8a 58 08	 mov	 bl, BYTE PTR [eax+8]
  000aa	3a d9		 cmp	 bl, cl
  000ac	0f 84 5a 01 00
	00		 je	 $LN184@LoadString@4
  000b2	80 f3 ed	 xor	 bl, -19			; ffffffedH
  000b5	88 5d c4	 mov	 BYTE PTR __k$[ebp+8], bl
  000b8	8a 58 09	 mov	 bl, BYTE PTR [eax+9]
  000bb	3a d9		 cmp	 bl, cl
  000bd	0f 84 43 01 00
	00		 je	 $LN183@LoadString@4
  000c3	80 f3 ec	 xor	 bl, -20			; ffffffecH
  000c6	88 5d c5	 mov	 BYTE PTR __k$[ebp+9], bl
  000c9	8a 58 0a	 mov	 bl, BYTE PTR [eax+10]
  000cc	3a d9		 cmp	 bl, cl
  000ce	0f 84 2c 01 00
	00		 je	 $LN182@LoadString@4
  000d4	80 f3 eb	 xor	 bl, -21			; ffffffebH
  000d7	88 5d c6	 mov	 BYTE PTR __k$[ebp+10], bl
  000da	8a 58 0b	 mov	 bl, BYTE PTR [eax+11]
  000dd	3a d9		 cmp	 bl, cl
  000df	0f 84 15 01 00
	00		 je	 $LN181@LoadString@4
  000e5	80 f3 ea	 xor	 bl, -22			; ffffffeaH
  000e8	88 5d c7	 mov	 BYTE PTR __k$[ebp+11], bl
  000eb	8a 58 0c	 mov	 bl, BYTE PTR [eax+12]
  000ee	3a d9		 cmp	 bl, cl
  000f0	0f 84 fe 00 00
	00		 je	 $LN180@LoadString@4
  000f6	80 f3 ed	 xor	 bl, -19			; ffffffedH
  000f9	88 5d c8	 mov	 BYTE PTR __k$[ebp+12], bl
  000fc	8a 58 0d	 mov	 bl, BYTE PTR [eax+13]
  000ff	3a d9		 cmp	 bl, cl
  00101	0f 84 e7 00 00
	00		 je	 $LN179@LoadString@4
  00107	80 f3 ec	 xor	 bl, -20			; ffffffecH
  0010a	88 5d c9	 mov	 BYTE PTR __k$[ebp+13], bl
  0010d	8a 58 0e	 mov	 bl, BYTE PTR [eax+14]
  00110	3a d9		 cmp	 bl, cl
  00112	0f 84 d0 00 00
	00		 je	 $LN178@LoadString@4
  00118	80 f3 eb	 xor	 bl, -21			; ffffffebH
  0011b	88 5d ca	 mov	 BYTE PTR __k$[ebp+14], bl
  0011e	8a 58 0f	 mov	 bl, BYTE PTR [eax+15]
  00121	3a d9		 cmp	 bl, cl
  00123	0f 84 b9 00 00
	00		 je	 $LN177@LoadString@4
  00129	80 f3 ea	 xor	 bl, -22			; ffffffeaH
  0012c	88 5d cb	 mov	 BYTE PTR __k$[ebp+15], bl
  0012f	8a 58 10	 mov	 bl, BYTE PTR [eax+16]
  00132	3a d9		 cmp	 bl, cl
  00134	0f 84 a2 00 00
	00		 je	 $LN176@LoadString@4
  0013a	80 f3 ed	 xor	 bl, -19			; ffffffedH
  0013d	88 5d cc	 mov	 BYTE PTR __k$[ebp+16], bl
  00140	8a 58 11	 mov	 bl, BYTE PTR [eax+17]
  00143	3a d9		 cmp	 bl, cl
  00145	0f 84 8b 00 00
	00		 je	 $LN175@LoadString@4
  0014b	80 f3 ec	 xor	 bl, -20			; ffffffecH
  0014e	88 5d cd	 mov	 BYTE PTR __k$[ebp+17], bl
  00151	8a 58 12	 mov	 bl, BYTE PTR [eax+18]
  00154	3a d9		 cmp	 bl, cl
  00156	74 78		 je	 SHORT $LN174@LoadString@4
  00158	80 f3 eb	 xor	 bl, -21			; ffffffebH
  0015b	88 5d ce	 mov	 BYTE PTR __k$[ebp+18], bl
  0015e	8a 58 13	 mov	 bl, BYTE PTR [eax+19]
  00161	3a d9		 cmp	 bl, cl
  00163	74 65		 je	 SHORT $LN173@LoadString@4
  00165	80 f3 ea	 xor	 bl, -22			; ffffffeaH
  00168	88 5d cf	 mov	 BYTE PTR __k$[ebp+19], bl
  0016b	38 48 14	 cmp	 BYTE PTR [eax+20], cl
  0016e	0f 84 cc 00 00
	00		 je	 $LN97@LoadString@4
  00174	8a 58 15	 mov	 bl, BYTE PTR [eax+21]
  00177	3a d9		 cmp	 bl, cl
  00179	74 49		 je	 SHORT $LN171@LoadString@4
  0017b	80 f3 ec	 xor	 bl, -20			; ffffffecH
  0017e	88 5d d1	 mov	 BYTE PTR __k$[ebp+21], bl
  00181	8a 58 16	 mov	 bl, BYTE PTR [eax+22]
  00184	3a d9		 cmp	 bl, cl
  00186	74 36		 je	 SHORT $LN170@LoadString@4
  00188	80 f3 eb	 xor	 bl, -21			; ffffffebH
  0018b	88 5d d2	 mov	 BYTE PTR __k$[ebp+22], bl
  0018e	8a 58 17	 mov	 bl, BYTE PTR [eax+23]
  00191	3a d9		 cmp	 bl, cl
  00193	74 20		 je	 SHORT $LN169@LoadString@4
  00195	8a 40 18	 mov	 al, BYTE PTR [eax+24]
  00198	80 f3 ea	 xor	 bl, -22			; ffffffeaH
  0019b	88 5d d3	 mov	 BYTE PTR __k$[ebp+23], bl
  0019e	3a c1		 cmp	 al, cl
  001a0	74 0a		 je	 SHORT $LN168@LoadString@4
  001a2	34 ed		 xor	 al, -19			; ffffffedH
  001a4	88 45 d4	 mov	 BYTE PTR __k$[ebp+24], al
  001a7	e9 94 00 00 00	 jmp	 $LN97@LoadString@4
$LN168@LoadString@4:
  001ac	c6 45 d4 ed	 mov	 BYTE PTR __k$[ebp+24], -19 ; ffffffedH
  001b0	e9 8b 00 00 00	 jmp	 $LN97@LoadString@4
$LN169@LoadString@4:
  001b5	c6 45 d3 ea	 mov	 BYTE PTR __k$[ebp+23], -22 ; ffffffeaH
  001b9	e9 82 00 00 00	 jmp	 $LN97@LoadString@4
$LN170@LoadString@4:
  001be	c6 45 d2 eb	 mov	 BYTE PTR __k$[ebp+22], -21 ; ffffffebH
  001c2	eb 7c		 jmp	 SHORT $LN97@LoadString@4
$LN171@LoadString@4:
  001c4	c6 45 d1 ec	 mov	 BYTE PTR __k$[ebp+21], -20 ; ffffffecH
  001c8	eb 76		 jmp	 SHORT $LN97@LoadString@4
$LN173@LoadString@4:
  001ca	c6 45 cf ea	 mov	 BYTE PTR __k$[ebp+19], -22 ; ffffffeaH
  001ce	eb 70		 jmp	 SHORT $LN97@LoadString@4
$LN174@LoadString@4:
  001d0	c6 45 ce eb	 mov	 BYTE PTR __k$[ebp+18], -21 ; ffffffebH
  001d4	eb 6a		 jmp	 SHORT $LN97@LoadString@4
$LN175@LoadString@4:
  001d6	c6 45 cd ec	 mov	 BYTE PTR __k$[ebp+17], -20 ; ffffffecH
  001da	eb 64		 jmp	 SHORT $LN97@LoadString@4
$LN176@LoadString@4:
  001dc	c6 45 cc ed	 mov	 BYTE PTR __k$[ebp+16], -19 ; ffffffedH
  001e0	eb 5e		 jmp	 SHORT $LN97@LoadString@4
$LN177@LoadString@4:
  001e2	c6 45 cb ea	 mov	 BYTE PTR __k$[ebp+15], -22 ; ffffffeaH
  001e6	eb 58		 jmp	 SHORT $LN97@LoadString@4
$LN178@LoadString@4:
  001e8	c6 45 ca eb	 mov	 BYTE PTR __k$[ebp+14], -21 ; ffffffebH
  001ec	eb 52		 jmp	 SHORT $LN97@LoadString@4
$LN179@LoadString@4:
  001ee	c6 45 c9 ec	 mov	 BYTE PTR __k$[ebp+13], -20 ; ffffffecH
  001f2	eb 4c		 jmp	 SHORT $LN97@LoadString@4
$LN180@LoadString@4:
  001f4	c6 45 c8 ed	 mov	 BYTE PTR __k$[ebp+12], -19 ; ffffffedH
  001f8	eb 46		 jmp	 SHORT $LN97@LoadString@4
$LN181@LoadString@4:
  001fa	c6 45 c7 ea	 mov	 BYTE PTR __k$[ebp+11], -22 ; ffffffeaH
  001fe	eb 40		 jmp	 SHORT $LN97@LoadString@4
$LN182@LoadString@4:
  00200	c6 45 c6 eb	 mov	 BYTE PTR __k$[ebp+10], -21 ; ffffffebH
  00204	eb 3a		 jmp	 SHORT $LN97@LoadString@4
$LN183@LoadString@4:
  00206	c6 45 c5 ec	 mov	 BYTE PTR __k$[ebp+9], -20 ; ffffffecH
  0020a	eb 34		 jmp	 SHORT $LN97@LoadString@4
$LN184@LoadString@4:
  0020c	c6 45 c4 ed	 mov	 BYTE PTR __k$[ebp+8], -19 ; ffffffedH
  00210	eb 2e		 jmp	 SHORT $LN97@LoadString@4
$LN185@LoadString@4:
  00212	c6 45 c3 ea	 mov	 BYTE PTR __k$[ebp+7], -22 ; ffffffeaH
  00216	eb 28		 jmp	 SHORT $LN97@LoadString@4
$LN186@LoadString@4:
  00218	c6 45 c2 eb	 mov	 BYTE PTR __k$[ebp+6], -21 ; ffffffebH
  0021c	eb 22		 jmp	 SHORT $LN97@LoadString@4
$LN187@LoadString@4:
  0021e	c6 45 c1 ec	 mov	 BYTE PTR __k$[ebp+5], -20 ; ffffffecH
  00222	eb 1c		 jmp	 SHORT $LN97@LoadString@4
$LN188@LoadString@4:
  00224	c6 45 c0 ed	 mov	 BYTE PTR __k$[ebp+4], -19 ; ffffffedH
  00228	eb 16		 jmp	 SHORT $LN97@LoadString@4
$LN189@LoadString@4:
  0022a	c6 45 bf ea	 mov	 BYTE PTR __k$[ebp+3], -22 ; ffffffeaH
  0022e	eb 10		 jmp	 SHORT $LN97@LoadString@4
$LN190@LoadString@4:
  00230	c6 45 be eb	 mov	 BYTE PTR __k$[ebp+2], -21 ; ffffffebH
  00234	eb 0a		 jmp	 SHORT $LN97@LoadString@4
$LN191@LoadString@4:
  00236	c6 45 bd ec	 mov	 BYTE PTR __k$[ebp+1], -20 ; ffffffecH
  0023a	eb 04		 jmp	 SHORT $LN97@LoadString@4
$LN192@LoadString@4:
  0023c	c6 45 bc ed	 mov	 BYTE PTR __k$[ebp], -19	; ffffffedH
$LN97@LoadString@4:
  00240	56		 push	 esi
  00241	6a 05		 push	 5
  00243	8d 45 bc	 lea	 eax, DWORD PTR __k$[ebp]
  00246	88 4d d0	 mov	 BYTE PTR __k$[ebp+20], cl
  00249	5e		 pop	 esi
  0024a	bb ed ec eb ea	 mov	 ebx, -353637139		; eaebecedH
$LL200@LoadString@4:
  0024f	31 18		 xor	 DWORD PTR [eax], ebx
  00251	83 c0 04	 add	 eax, 4
  00254	4e		 dec	 esi
  00255	75 f8		 jne	 SHORT $LL200@LoadString@4

; 154  : 		_ENCSTR(d, _d);

  00257	8a 02		 mov	 al, BYTE PTR [edx]
  00259	5e		 pop	 esi
  0025a	3a c1		 cmp	 al, cl
  0025c	0f 84 f6 02 00
	00		 je	 $LN96@LoadString@4
  00262	34 ed		 xor	 al, -19			; ffffffedH
  00264	88 45 d8	 mov	 BYTE PTR __d$[ebp], al
  00267	8a 42 01	 mov	 al, BYTE PTR [edx+1]
  0026a	3a c1		 cmp	 al, cl
  0026c	0f 84 e0 02 00
	00		 je	 $LN95@LoadString@4
  00272	34 ec		 xor	 al, -20			; ffffffecH
  00274	88 45 d9	 mov	 BYTE PTR __d$[ebp+1], al
  00277	8a 42 02	 mov	 al, BYTE PTR [edx+2]
  0027a	3a c1		 cmp	 al, cl
  0027c	0f 84 ca 02 00
	00		 je	 $LN94@LoadString@4
  00282	34 eb		 xor	 al, -21			; ffffffebH
  00284	88 45 da	 mov	 BYTE PTR __d$[ebp+2], al
  00287	8a 42 03	 mov	 al, BYTE PTR [edx+3]
  0028a	3a c1		 cmp	 al, cl
  0028c	0f 84 b4 02 00
	00		 je	 $LN93@LoadString@4
  00292	34 ea		 xor	 al, -22			; ffffffeaH
  00294	88 45 db	 mov	 BYTE PTR __d$[ebp+3], al
  00297	8a 42 04	 mov	 al, BYTE PTR [edx+4]
  0029a	3a c1		 cmp	 al, cl
  0029c	0f 84 9e 02 00
	00		 je	 $LN92@LoadString@4
  002a2	34 ed		 xor	 al, -19			; ffffffedH
  002a4	88 45 dc	 mov	 BYTE PTR __d$[ebp+4], al
  002a7	8a 42 05	 mov	 al, BYTE PTR [edx+5]
  002aa	3a c1		 cmp	 al, cl
  002ac	0f 84 88 02 00
	00		 je	 $LN91@LoadString@4
  002b2	34 ec		 xor	 al, -20			; ffffffecH
  002b4	88 45 dd	 mov	 BYTE PTR __d$[ebp+5], al
  002b7	8a 42 06	 mov	 al, BYTE PTR [edx+6]
  002ba	3a c1		 cmp	 al, cl
  002bc	0f 84 72 02 00
	00		 je	 $LN90@LoadString@4
  002c2	34 eb		 xor	 al, -21			; ffffffebH
  002c4	88 45 de	 mov	 BYTE PTR __d$[ebp+6], al
  002c7	8a 42 07	 mov	 al, BYTE PTR [edx+7]
  002ca	3a c1		 cmp	 al, cl
  002cc	0f 84 5c 02 00
	00		 je	 $LN89@LoadString@4
  002d2	34 ea		 xor	 al, -22			; ffffffeaH
  002d4	88 45 df	 mov	 BYTE PTR __d$[ebp+7], al
  002d7	8a 42 08	 mov	 al, BYTE PTR [edx+8]
  002da	3a c1		 cmp	 al, cl
  002dc	0f 84 46 02 00
	00		 je	 $LN88@LoadString@4
  002e2	34 ed		 xor	 al, -19			; ffffffedH
  002e4	88 45 e0	 mov	 BYTE PTR __d$[ebp+8], al
  002e7	8a 42 09	 mov	 al, BYTE PTR [edx+9]
  002ea	3a c1		 cmp	 al, cl
  002ec	0f 84 30 02 00
	00		 je	 $LN87@LoadString@4
  002f2	34 ec		 xor	 al, -20			; ffffffecH
  002f4	88 45 e1	 mov	 BYTE PTR __d$[ebp+9], al
  002f7	8a 42 0a	 mov	 al, BYTE PTR [edx+10]
  002fa	3a c1		 cmp	 al, cl
  002fc	0f 84 1a 02 00
	00		 je	 $LN86@LoadString@4
  00302	34 eb		 xor	 al, -21			; ffffffebH
  00304	88 45 e2	 mov	 BYTE PTR __d$[ebp+10], al
  00307	8a 42 0b	 mov	 al, BYTE PTR [edx+11]
  0030a	3a c1		 cmp	 al, cl
  0030c	0f 84 04 02 00
	00		 je	 $LN85@LoadString@4
  00312	34 ea		 xor	 al, -22			; ffffffeaH
  00314	88 45 e3	 mov	 BYTE PTR __d$[ebp+11], al
  00317	8a 42 0c	 mov	 al, BYTE PTR [edx+12]
  0031a	3a c1		 cmp	 al, cl
  0031c	0f 84 ee 01 00
	00		 je	 $LN84@LoadString@4
  00322	34 ed		 xor	 al, -19			; ffffffedH
  00324	88 45 e4	 mov	 BYTE PTR __d$[ebp+12], al
  00327	8a 42 0d	 mov	 al, BYTE PTR [edx+13]
  0032a	3a c1		 cmp	 al, cl
  0032c	0f 84 d8 01 00
	00		 je	 $LN83@LoadString@4
  00332	34 ec		 xor	 al, -20			; ffffffecH
  00334	88 45 e5	 mov	 BYTE PTR __d$[ebp+13], al
  00337	8a 42 0e	 mov	 al, BYTE PTR [edx+14]
  0033a	3a c1		 cmp	 al, cl
  0033c	0f 84 c2 01 00
	00		 je	 $LN82@LoadString@4
  00342	34 eb		 xor	 al, -21			; ffffffebH
  00344	88 45 e6	 mov	 BYTE PTR __d$[ebp+14], al
  00347	8a 42 0f	 mov	 al, BYTE PTR [edx+15]
  0034a	3a c1		 cmp	 al, cl
  0034c	0f 84 ac 01 00
	00		 je	 $LN81@LoadString@4
  00352	34 ea		 xor	 al, -22			; ffffffeaH
  00354	88 45 e7	 mov	 BYTE PTR __d$[ebp+15], al
  00357	8a 42 10	 mov	 al, BYTE PTR [edx+16]
  0035a	3a c1		 cmp	 al, cl
  0035c	0f 84 96 01 00
	00		 je	 $LN80@LoadString@4
  00362	34 ed		 xor	 al, -19			; ffffffedH
  00364	88 45 e8	 mov	 BYTE PTR __d$[ebp+16], al
  00367	8a 42 11	 mov	 al, BYTE PTR [edx+17]
  0036a	3a c1		 cmp	 al, cl
  0036c	0f 84 80 01 00
	00		 je	 $LN79@LoadString@4
  00372	34 ec		 xor	 al, -20			; ffffffecH
  00374	88 45 e9	 mov	 BYTE PTR __d$[ebp+17], al
  00377	8a 42 12	 mov	 al, BYTE PTR [edx+18]
  0037a	3a c1		 cmp	 al, cl
  0037c	0f 84 6a 01 00
	00		 je	 $LN78@LoadString@4
  00382	34 eb		 xor	 al, -21			; ffffffebH
  00384	88 45 ea	 mov	 BYTE PTR __d$[ebp+18], al
  00387	8a 42 13	 mov	 al, BYTE PTR [edx+19]
  0038a	3a c1		 cmp	 al, cl
  0038c	0f 84 54 01 00
	00		 je	 $LN77@LoadString@4
  00392	34 ea		 xor	 al, -22			; ffffffeaH
  00394	88 45 eb	 mov	 BYTE PTR __d$[ebp+19], al
  00397	8a 42 14	 mov	 al, BYTE PTR [edx+20]
  0039a	3a c1		 cmp	 al, cl
  0039c	0f 84 3e 01 00
	00		 je	 $LN76@LoadString@4
  003a2	34 ed		 xor	 al, -19			; ffffffedH
  003a4	88 45 ec	 mov	 BYTE PTR __d$[ebp+20], al
  003a7	8a 42 15	 mov	 al, BYTE PTR [edx+21]
  003aa	3a c1		 cmp	 al, cl
  003ac	0f 84 28 01 00
	00		 je	 $LN75@LoadString@4
  003b2	34 ec		 xor	 al, -20			; ffffffecH
  003b4	88 45 ed	 mov	 BYTE PTR __d$[ebp+21], al
  003b7	8a 42 16	 mov	 al, BYTE PTR [edx+22]
  003ba	3a c1		 cmp	 al, cl
  003bc	0f 84 0f 01 00
	00		 je	 $LN74@LoadString@4
  003c2	34 eb		 xor	 al, -21			; ffffffebH
  003c4	88 45 ee	 mov	 BYTE PTR __d$[ebp+22], al
  003c7	8a 42 17	 mov	 al, BYTE PTR [edx+23]
  003ca	3a c1		 cmp	 al, cl
  003cc	0f 84 f6 00 00
	00		 je	 $LN73@LoadString@4
  003d2	34 ea		 xor	 al, -22			; ffffffeaH
  003d4	88 45 ef	 mov	 BYTE PTR __d$[ebp+23], al
  003d7	8a 42 18	 mov	 al, BYTE PTR [edx+24]
  003da	3a c1		 cmp	 al, cl
  003dc	0f 84 dd 00 00
	00		 je	 $LN72@LoadString@4
  003e2	34 ed		 xor	 al, -19			; ffffffedH
  003e4	88 45 f0	 mov	 BYTE PTR __d$[ebp+24], al
  003e7	8a 42 19	 mov	 al, BYTE PTR [edx+25]
  003ea	3a c1		 cmp	 al, cl
  003ec	0f 84 c4 00 00
	00		 je	 $LN71@LoadString@4
  003f2	34 ec		 xor	 al, -20			; ffffffecH
  003f4	88 45 f1	 mov	 BYTE PTR __d$[ebp+25], al
  003f7	8a 42 1a	 mov	 al, BYTE PTR [edx+26]
  003fa	3a c1		 cmp	 al, cl
  003fc	0f 84 ab 00 00
	00		 je	 $LN70@LoadString@4
  00402	34 eb		 xor	 al, -21			; ffffffebH
  00404	88 45 f2	 mov	 BYTE PTR __d$[ebp+26], al
  00407	8a 42 1b	 mov	 al, BYTE PTR [edx+27]
  0040a	3a c1		 cmp	 al, cl
  0040c	0f 84 92 00 00
	00		 je	 $LN69@LoadString@4
  00412	34 ea		 xor	 al, -22			; ffffffeaH
  00414	88 45 f3	 mov	 BYTE PTR __d$[ebp+27], al
  00417	8a 42 1c	 mov	 al, BYTE PTR [edx+28]
  0041a	3a c1		 cmp	 al, cl
  0041c	74 7d		 je	 SHORT $LN68@LoadString@4
  0041e	34 ed		 xor	 al, -19			; ffffffedH
  00420	88 45 f4	 mov	 BYTE PTR __d$[ebp+28], al
  00423	8a 42 1d	 mov	 al, BYTE PTR [edx+29]
  00426	3a c1		 cmp	 al, cl
  00428	74 68		 je	 SHORT $LN67@LoadString@4
  0042a	34 ec		 xor	 al, -20			; ffffffecH
  0042c	88 45 f5	 mov	 BYTE PTR __d$[ebp+29], al
  0042f	38 4a 1e	 cmp	 BYTE PTR [edx+30], cl
  00432	0f 84 24 01 00
	00		 je	 $LN1@LoadString@4
  00438	8a 42 1f	 mov	 al, BYTE PTR [edx+31]
  0043b	3a c1		 cmp	 al, cl
  0043d	74 4a		 je	 SHORT $LN65@LoadString@4
  0043f	34 ea		 xor	 al, -22			; ffffffeaH
  00441	88 45 f7	 mov	 BYTE PTR __d$[ebp+31], al
  00444	8a 42 20	 mov	 al, BYTE PTR [edx+32]
  00447	3a c1		 cmp	 al, cl
  00449	74 35		 je	 SHORT $LN64@LoadString@4
  0044b	34 ed		 xor	 al, -19			; ffffffedH
  0044d	88 45 f8	 mov	 BYTE PTR __d$[ebp+32], al
  00450	8a 42 21	 mov	 al, BYTE PTR [edx+33]
  00453	3a c1		 cmp	 al, cl
  00455	74 20		 je	 SHORT $LN63@LoadString@4
  00457	8a 52 22	 mov	 dl, BYTE PTR [edx+34]
  0045a	34 ec		 xor	 al, -20			; ffffffecH
  0045c	88 45 f9	 mov	 BYTE PTR __d$[ebp+33], al
  0045f	3a d1		 cmp	 dl, cl
  00461	74 0b		 je	 SHORT $LN62@LoadString@4
  00463	80 f2 eb	 xor	 dl, -21			; ffffffebH
  00466	88 55 fa	 mov	 BYTE PTR __d$[ebp+34], dl
  00469	e9 ee 00 00 00	 jmp	 $LN1@LoadString@4
$LN62@LoadString@4:
  0046e	c6 45 fa eb	 mov	 BYTE PTR __d$[ebp+34], -21 ; ffffffebH
  00472	e9 e5 00 00 00	 jmp	 $LN1@LoadString@4
$LN63@LoadString@4:
  00477	c6 45 f9 ec	 mov	 BYTE PTR __d$[ebp+33], -20 ; ffffffecH
  0047b	e9 dc 00 00 00	 jmp	 $LN1@LoadString@4
$LN64@LoadString@4:
  00480	c6 45 f8 ed	 mov	 BYTE PTR __d$[ebp+32], -19 ; ffffffedH
  00484	e9 d3 00 00 00	 jmp	 $LN1@LoadString@4
$LN65@LoadString@4:
  00489	c6 45 f7 ea	 mov	 BYTE PTR __d$[ebp+31], -22 ; ffffffeaH
  0048d	e9 ca 00 00 00	 jmp	 $LN1@LoadString@4
$LN67@LoadString@4:
  00492	c6 45 f5 ec	 mov	 BYTE PTR __d$[ebp+29], -20 ; ffffffecH
  00496	e9 c1 00 00 00	 jmp	 $LN1@LoadString@4
$LN68@LoadString@4:
  0049b	c6 45 f4 ed	 mov	 BYTE PTR __d$[ebp+28], -19 ; ffffffedH
  0049f	e9 b8 00 00 00	 jmp	 $LN1@LoadString@4
$LN69@LoadString@4:
  004a4	c6 45 f3 ea	 mov	 BYTE PTR __d$[ebp+27], -22 ; ffffffeaH
  004a8	e9 af 00 00 00	 jmp	 $LN1@LoadString@4
$LN70@LoadString@4:
  004ad	c6 45 f2 eb	 mov	 BYTE PTR __d$[ebp+26], -21 ; ffffffebH
  004b1	e9 a6 00 00 00	 jmp	 $LN1@LoadString@4
$LN71@LoadString@4:
  004b6	c6 45 f1 ec	 mov	 BYTE PTR __d$[ebp+25], -20 ; ffffffecH
  004ba	e9 9d 00 00 00	 jmp	 $LN1@LoadString@4
$LN72@LoadString@4:
  004bf	c6 45 f0 ed	 mov	 BYTE PTR __d$[ebp+24], -19 ; ffffffedH
  004c3	e9 94 00 00 00	 jmp	 $LN1@LoadString@4
$LN73@LoadString@4:
  004c8	c6 45 ef ea	 mov	 BYTE PTR __d$[ebp+23], -22 ; ffffffeaH
  004cc	e9 8b 00 00 00	 jmp	 $LN1@LoadString@4
$LN74@LoadString@4:
  004d1	c6 45 ee eb	 mov	 BYTE PTR __d$[ebp+22], -21 ; ffffffebH
  004d5	e9 82 00 00 00	 jmp	 $LN1@LoadString@4
$LN75@LoadString@4:
  004da	c6 45 ed ec	 mov	 BYTE PTR __d$[ebp+21], -20 ; ffffffecH
  004de	eb 7c		 jmp	 SHORT $LN1@LoadString@4
$LN76@LoadString@4:
  004e0	c6 45 ec ed	 mov	 BYTE PTR __d$[ebp+20], -19 ; ffffffedH
  004e4	eb 76		 jmp	 SHORT $LN1@LoadString@4
$LN77@LoadString@4:
  004e6	c6 45 eb ea	 mov	 BYTE PTR __d$[ebp+19], -22 ; ffffffeaH
  004ea	eb 70		 jmp	 SHORT $LN1@LoadString@4
$LN78@LoadString@4:
  004ec	c6 45 ea eb	 mov	 BYTE PTR __d$[ebp+18], -21 ; ffffffebH
  004f0	eb 6a		 jmp	 SHORT $LN1@LoadString@4
$LN79@LoadString@4:
  004f2	c6 45 e9 ec	 mov	 BYTE PTR __d$[ebp+17], -20 ; ffffffecH
  004f6	eb 64		 jmp	 SHORT $LN1@LoadString@4
$LN80@LoadString@4:
  004f8	c6 45 e8 ed	 mov	 BYTE PTR __d$[ebp+16], -19 ; ffffffedH
  004fc	eb 5e		 jmp	 SHORT $LN1@LoadString@4
$LN81@LoadString@4:
  004fe	c6 45 e7 ea	 mov	 BYTE PTR __d$[ebp+15], -22 ; ffffffeaH
  00502	eb 58		 jmp	 SHORT $LN1@LoadString@4
$LN82@LoadString@4:
  00504	c6 45 e6 eb	 mov	 BYTE PTR __d$[ebp+14], -21 ; ffffffebH
  00508	eb 52		 jmp	 SHORT $LN1@LoadString@4
$LN83@LoadString@4:
  0050a	c6 45 e5 ec	 mov	 BYTE PTR __d$[ebp+13], -20 ; ffffffecH
  0050e	eb 4c		 jmp	 SHORT $LN1@LoadString@4
$LN84@LoadString@4:
  00510	c6 45 e4 ed	 mov	 BYTE PTR __d$[ebp+12], -19 ; ffffffedH
  00514	eb 46		 jmp	 SHORT $LN1@LoadString@4
$LN85@LoadString@4:
  00516	c6 45 e3 ea	 mov	 BYTE PTR __d$[ebp+11], -22 ; ffffffeaH
  0051a	eb 40		 jmp	 SHORT $LN1@LoadString@4
$LN86@LoadString@4:
  0051c	c6 45 e2 eb	 mov	 BYTE PTR __d$[ebp+10], -21 ; ffffffebH
  00520	eb 3a		 jmp	 SHORT $LN1@LoadString@4
$LN87@LoadString@4:
  00522	c6 45 e1 ec	 mov	 BYTE PTR __d$[ebp+9], -20 ; ffffffecH
  00526	eb 34		 jmp	 SHORT $LN1@LoadString@4
$LN88@LoadString@4:
  00528	c6 45 e0 ed	 mov	 BYTE PTR __d$[ebp+8], -19 ; ffffffedH
  0052c	eb 2e		 jmp	 SHORT $LN1@LoadString@4
$LN89@LoadString@4:
  0052e	c6 45 df ea	 mov	 BYTE PTR __d$[ebp+7], -22 ; ffffffeaH
  00532	eb 28		 jmp	 SHORT $LN1@LoadString@4
$LN90@LoadString@4:
  00534	c6 45 de eb	 mov	 BYTE PTR __d$[ebp+6], -21 ; ffffffebH
  00538	eb 22		 jmp	 SHORT $LN1@LoadString@4
$LN91@LoadString@4:
  0053a	c6 45 dd ec	 mov	 BYTE PTR __d$[ebp+5], -20 ; ffffffecH
  0053e	eb 1c		 jmp	 SHORT $LN1@LoadString@4
$LN92@LoadString@4:
  00540	c6 45 dc ed	 mov	 BYTE PTR __d$[ebp+4], -19 ; ffffffedH
  00544	eb 16		 jmp	 SHORT $LN1@LoadString@4
$LN93@LoadString@4:
  00546	c6 45 db ea	 mov	 BYTE PTR __d$[ebp+3], -22 ; ffffffeaH
  0054a	eb 10		 jmp	 SHORT $LN1@LoadString@4
$LN94@LoadString@4:
  0054c	c6 45 da eb	 mov	 BYTE PTR __d$[ebp+2], -21 ; ffffffebH
  00550	eb 0a		 jmp	 SHORT $LN1@LoadString@4
$LN95@LoadString@4:
  00552	c6 45 d9 ec	 mov	 BYTE PTR __d$[ebp+1], -20 ; ffffffecH
  00556	eb 04		 jmp	 SHORT $LN1@LoadString@4
$LN96@LoadString@4:
  00558	c6 45 d8 ed	 mov	 BYTE PTR __d$[ebp], -19	; ffffffedH
$LN1@LoadString@4:
  0055c	6a 07		 push	 7
  0055e	8d 45 d8	 lea	 eax, DWORD PTR __d$[ebp]
  00561	88 4d f6	 mov	 BYTE PTR __d$[ebp+30], cl
  00564	5a		 pop	 edx
$LL208@LoadString@4:
  00565	31 18		 xor	 DWORD PTR [eax], ebx
  00567	83 c0 04	 add	 eax, 4
  0056a	4a		 dec	 edx
  0056b	75 f8		 jne	 SHORT $LL208@LoadString@4
  0056d	6a 1c		 push	 28			; 0000001cH
  0056f	58		 pop	 eax
$LL205@LoadString@4:
  00570	8b c8		 mov	 ecx, eax
  00572	81 e1 03 00 00
	80		 and	 ecx, -2147483645	; 80000003H
  00578	79 05		 jns	 SHORT $LN219@LoadString@4
  0057a	49		 dec	 ecx
  0057b	83 c9 fc	 or	 ecx, -4			; fffffffcH
  0057e	41		 inc	 ecx
$LN219@LoadString@4:
  0057f	b2 ed		 mov	 dl, -19			; ffffffedH
  00581	2a d1		 sub	 dl, cl
  00583	30 54 05 d8	 xor	 BYTE PTR __d$[ebp+eax], dl
  00587	40		 inc	 eax
  00588	83 f8 1e	 cmp	 eax, 30			; 0000001eH
  0058b	7c e3		 jl	 SHORT $LL205@LoadString@4

; 155  : 		LoadString(_k, _d, b, i);

  0058d	ff 75 14	 push	 DWORD PTR _i$[ebp]
  00590	8b 4d b8	 mov	 ecx, DWORD PTR _this$GSCopy$[ebp]
  00593	57		 push	 edi
  00594	8d 45 d8	 lea	 eax, DWORD PTR __d$[ebp]
  00597	50		 push	 eax
  00598	8d 45 bc	 lea	 eax, DWORD PTR __k$[ebp]
  0059b	50		 push	 eax
  0059c	ff 15 00 00 00
	00		 call	 DWORD PTR __imp_?LoadStringA@ioINILoader@@QAEXPBD0PADH@Z

; 156  : 	}

  005a2	8b 4d fc	 mov	 ecx, DWORD PTR __$ArrayPad$[ebp]
  005a5	5f		 pop	 edi
  005a6	33 cd		 xor	 ecx, ebp
  005a8	5b		 pop	 ebx
  005a9	e8 00 00 00 00	 call	 @__security_check_cookie@4
  005ae	c9		 leave
  005af	c2 10 00	 ret	 16			; 00000010H
??$LoadString_e@$0BF@$0BP@@ioINILoader@@QAEXAAY0BF@$$CBDAAY0BP@$$CBDPADH@Z ENDP ; ioINILoader::LoadString_e<21,31>
_TEXT	ENDS
PUBLIC	_this$GSCopy$
PUBLIC	__$ArrayPad$
PUBLIC	??$LoadString_e@$0BA@@ioINILoader@@QAEXAAY0BA@$$CBDAAY00$$CBDPADH@Z ; ioINILoader::LoadString_e<16>
; Function compile flags: /Ogsp
;	COMDAT ??$LoadString_e@$0BA@@ioINILoader@@QAEXAAY0BA@$$CBDAAY00$$CBDPADH@Z
_TEXT	SEGMENT
_this$GSCopy$ = -28					; size = 4
__k$ = -24						; size = 16
__$ArrayPad$ = -4					; size = 4
_k$ = 8							; size = 4
_d$ = 12						; size = 4
_b$ = 16						; size = 4
_i$ = 20						; size = 4
??$LoadString_e@$0BA@@ioINILoader@@QAEXAAY0BA@$$CBDAAY00$$CBDPADH@Z PROC ; ioINILoader::LoadString_e<16>, COMDAT
; _this$ = ecx

; 161  : 	{

  00000	55		 push	 ebp
  00001	8b ec		 mov	 ebp, esp
  00003	83 ec 1c	 sub	 esp, 28			; 0000001cH
  00006	a1 00 00 00 00	 mov	 eax, DWORD PTR ___security_cookie
  0000b	33 c5		 xor	 eax, ebp
  0000d	89 45 fc	 mov	 DWORD PTR __$ArrayPad$[ebp], eax
  00010	8b 45 08	 mov	 eax, DWORD PTR _k$[ebp]

; 162  : 		_ENCSTR(k, _k);

  00013	8a 10		 mov	 dl, BYTE PTR [eax]
  00015	56		 push	 esi
  00016	8b 75 0c	 mov	 esi, DWORD PTR _d$[ebp]
  00019	57		 push	 edi
  0001a	8b 7d 10	 mov	 edi, DWORD PTR _b$[ebp]
  0001d	89 4d e4	 mov	 DWORD PTR _this$GSCopy$[ebp], ecx
  00020	84 d2		 test	 dl, dl
  00022	0f 84 8c 01 00
	00		 je	 $LN96@LoadString@5
  00028	80 f2 ed	 xor	 dl, -19			; ffffffedH
  0002b	88 55 e8	 mov	 BYTE PTR __k$[ebp], dl
  0002e	8a 50 01	 mov	 dl, BYTE PTR [eax+1]
  00031	84 d2		 test	 dl, dl
  00033	0f 84 75 01 00
	00		 je	 $LN95@LoadString@5
  00039	80 f2 ec	 xor	 dl, -20			; ffffffecH
  0003c	88 55 e9	 mov	 BYTE PTR __k$[ebp+1], dl
  0003f	8a 50 02	 mov	 dl, BYTE PTR [eax+2]
  00042	84 d2		 test	 dl, dl
  00044	0f 84 5e 01 00
	00		 je	 $LN94@LoadString@5
  0004a	b1 eb		 mov	 cl, -21			; ffffffebH
  0004c	32 d1		 xor	 dl, cl
  0004e	88 55 ea	 mov	 BYTE PTR __k$[ebp+2], dl
  00051	8a 50 03	 mov	 dl, BYTE PTR [eax+3]
  00054	84 d2		 test	 dl, dl
  00056	0f 84 46 01 00
	00		 je	 $LN93@LoadString@5
  0005c	80 f2 ea	 xor	 dl, -22			; ffffffeaH
  0005f	88 55 eb	 mov	 BYTE PTR __k$[ebp+3], dl
  00062	8a 50 04	 mov	 dl, BYTE PTR [eax+4]
  00065	84 d2		 test	 dl, dl
  00067	0f 84 2f 01 00
	00		 je	 $LN92@LoadString@5
  0006d	80 f2 ed	 xor	 dl, -19			; ffffffedH
  00070	88 55 ec	 mov	 BYTE PTR __k$[ebp+4], dl
  00073	8a 50 05	 mov	 dl, BYTE PTR [eax+5]
  00076	84 d2		 test	 dl, dl
  00078	0f 84 18 01 00
	00		 je	 $LN91@LoadString@5
  0007e	80 f2 ec	 xor	 dl, -20			; ffffffecH
  00081	88 55 ed	 mov	 BYTE PTR __k$[ebp+5], dl
  00084	8a 50 06	 mov	 dl, BYTE PTR [eax+6]
  00087	84 d2		 test	 dl, dl
  00089	0f 84 02 01 00
	00		 je	 $LN90@LoadString@5
  0008f	32 d1		 xor	 dl, cl
  00091	88 55 ee	 mov	 BYTE PTR __k$[ebp+6], dl
  00094	8a 50 07	 mov	 dl, BYTE PTR [eax+7]
  00097	84 d2		 test	 dl, dl
  00099	0f 84 ec 00 00
	00		 je	 $LN89@LoadString@5
  0009f	80 f2 ea	 xor	 dl, -22			; ffffffeaH
  000a2	88 55 ef	 mov	 BYTE PTR __k$[ebp+7], dl
  000a5	8a 50 08	 mov	 dl, BYTE PTR [eax+8]
  000a8	84 d2		 test	 dl, dl
  000aa	0f 84 d5 00 00
	00		 je	 $LN88@LoadString@5
  000b0	80 f2 ed	 xor	 dl, -19			; ffffffedH
  000b3	88 55 f0	 mov	 BYTE PTR __k$[ebp+8], dl
  000b6	8a 50 09	 mov	 dl, BYTE PTR [eax+9]
  000b9	84 d2		 test	 dl, dl
  000bb	0f 84 be 00 00
	00		 je	 $LN87@LoadString@5
  000c1	80 f2 ec	 xor	 dl, -20			; ffffffecH
  000c4	88 55 f1	 mov	 BYTE PTR __k$[ebp+9], dl
  000c7	8a 50 0a	 mov	 dl, BYTE PTR [eax+10]
  000ca	84 d2		 test	 dl, dl
  000cc	0f 84 a8 00 00
	00		 je	 $LN86@LoadString@5
  000d2	32 d1		 xor	 dl, cl
  000d4	88 55 f2	 mov	 BYTE PTR __k$[ebp+10], dl
  000d7	8a 50 0b	 mov	 dl, BYTE PTR [eax+11]
  000da	84 d2		 test	 dl, dl
  000dc	0f 84 92 00 00
	00		 je	 $LN85@LoadString@5
  000e2	80 f2 ea	 xor	 dl, -22			; ffffffeaH
  000e5	88 55 f3	 mov	 BYTE PTR __k$[ebp+11], dl
  000e8	8a 50 0c	 mov	 dl, BYTE PTR [eax+12]
  000eb	84 d2		 test	 dl, dl
  000ed	74 7f		 je	 SHORT $LN84@LoadString@5
  000ef	80 f2 ed	 xor	 dl, -19			; ffffffedH
  000f2	88 55 f4	 mov	 BYTE PTR __k$[ebp+12], dl
  000f5	8a 50 0d	 mov	 dl, BYTE PTR [eax+13]
  000f8	84 d2		 test	 dl, dl
  000fa	74 6c		 je	 SHORT $LN83@LoadString@5
  000fc	80 f2 ec	 xor	 dl, -20			; ffffffecH
  000ff	88 55 f5	 mov	 BYTE PTR __k$[ebp+13], dl
  00102	8a 50 0e	 mov	 dl, BYTE PTR [eax+14]
  00105	84 d2		 test	 dl, dl
  00107	74 5a		 je	 SHORT $LN82@LoadString@5
  00109	32 d1		 xor	 dl, cl
  0010b	80 78 0f 00	 cmp	 BYTE PTR [eax+15], 0
  0010f	88 55 f6	 mov	 BYTE PTR __k$[ebp+14], dl
  00112	0f 84 a0 00 00
	00		 je	 $LN111@LoadString@5
  00118	8a 50 10	 mov	 dl, BYTE PTR [eax+16]
  0011b	84 d2		 test	 dl, dl
  0011d	74 3e		 je	 SHORT $LN80@LoadString@5
  0011f	80 f2 ed	 xor	 dl, -19			; ffffffedH
  00122	88 55 f8	 mov	 BYTE PTR __k$[ebp+16], dl
  00125	8a 50 11	 mov	 dl, BYTE PTR [eax+17]
  00128	84 d2		 test	 dl, dl
  0012a	74 2b		 je	 SHORT $LN79@LoadString@5
  0012c	80 f2 ec	 xor	 dl, -20			; ffffffecH
  0012f	88 55 f9	 mov	 BYTE PTR __k$[ebp+17], dl
  00132	8a 50 12	 mov	 dl, BYTE PTR [eax+18]
  00135	84 d2		 test	 dl, dl
  00137	74 19		 je	 SHORT $LN78@LoadString@5
  00139	8a 40 13	 mov	 al, BYTE PTR [eax+19]
  0013c	32 d1		 xor	 dl, cl
  0013e	88 55 fa	 mov	 BYTE PTR __k$[ebp+18], dl
  00141	84 c0		 test	 al, al
  00143	74 07		 je	 SHORT $LN77@LoadString@5
  00145	34 ea		 xor	 al, -22			; ffffffeaH
  00147	88 45 fb	 mov	 BYTE PTR __k$[ebp+19], al
  0014a	eb 6c		 jmp	 SHORT $LN111@LoadString@5
$LN77@LoadString@5:
  0014c	c6 45 fb ea	 mov	 BYTE PTR __k$[ebp+19], -22 ; ffffffeaH
  00150	eb 66		 jmp	 SHORT $LN111@LoadString@5
$LN78@LoadString@5:
  00152	88 4d fa	 mov	 BYTE PTR __k$[ebp+18], cl
  00155	eb 61		 jmp	 SHORT $LN111@LoadString@5
$LN79@LoadString@5:
  00157	c6 45 f9 ec	 mov	 BYTE PTR __k$[ebp+17], -20 ; ffffffecH
  0015b	eb 5b		 jmp	 SHORT $LN111@LoadString@5
$LN80@LoadString@5:
  0015d	c6 45 f8 ed	 mov	 BYTE PTR __k$[ebp+16], -19 ; ffffffedH
  00161	eb 55		 jmp	 SHORT $LN111@LoadString@5
$LN82@LoadString@5:
  00163	88 4d f6	 mov	 BYTE PTR __k$[ebp+14], cl
  00166	eb 50		 jmp	 SHORT $LN111@LoadString@5
$LN83@LoadString@5:
  00168	c6 45 f5 ec	 mov	 BYTE PTR __k$[ebp+13], -20 ; ffffffecH
  0016c	eb 4a		 jmp	 SHORT $LN111@LoadString@5
$LN84@LoadString@5:
  0016e	c6 45 f4 ed	 mov	 BYTE PTR __k$[ebp+12], -19 ; ffffffedH
  00172	eb 44		 jmp	 SHORT $LN111@LoadString@5
$LN85@LoadString@5:
  00174	c6 45 f3 ea	 mov	 BYTE PTR __k$[ebp+11], -22 ; ffffffeaH
  00178	eb 3e		 jmp	 SHORT $LN111@LoadString@5
$LN86@LoadString@5:
  0017a	88 4d f2	 mov	 BYTE PTR __k$[ebp+10], cl
  0017d	eb 39		 jmp	 SHORT $LN111@LoadString@5
$LN87@LoadString@5:
  0017f	c6 45 f1 ec	 mov	 BYTE PTR __k$[ebp+9], -20 ; ffffffecH
  00183	eb 33		 jmp	 SHORT $LN111@LoadString@5
$LN88@LoadString@5:
  00185	c6 45 f0 ed	 mov	 BYTE PTR __k$[ebp+8], -19 ; ffffffedH
  00189	eb 2d		 jmp	 SHORT $LN111@LoadString@5
$LN89@LoadString@5:
  0018b	c6 45 ef ea	 mov	 BYTE PTR __k$[ebp+7], -22 ; ffffffeaH
  0018f	eb 27		 jmp	 SHORT $LN111@LoadString@5
$LN90@LoadString@5:
  00191	88 4d ee	 mov	 BYTE PTR __k$[ebp+6], cl
  00194	eb 22		 jmp	 SHORT $LN111@LoadString@5
$LN91@LoadString@5:
  00196	c6 45 ed ec	 mov	 BYTE PTR __k$[ebp+5], -20 ; ffffffecH
  0019a	eb 1c		 jmp	 SHORT $LN111@LoadString@5
$LN92@LoadString@5:
  0019c	c6 45 ec ed	 mov	 BYTE PTR __k$[ebp+4], -19 ; ffffffedH
  001a0	eb 16		 jmp	 SHORT $LN111@LoadString@5
$LN93@LoadString@5:
  001a2	c6 45 eb ea	 mov	 BYTE PTR __k$[ebp+3], -22 ; ffffffeaH
  001a6	eb 10		 jmp	 SHORT $LN111@LoadString@5
$LN94@LoadString@5:
  001a8	c6 45 ea eb	 mov	 BYTE PTR __k$[ebp+2], -21 ; ffffffebH
  001ac	eb 0a		 jmp	 SHORT $LN111@LoadString@5
$LN95@LoadString@5:
  001ae	c6 45 e9 ec	 mov	 BYTE PTR __k$[ebp+1], -20 ; ffffffecH
  001b2	eb 04		 jmp	 SHORT $LN111@LoadString@5
$LN96@LoadString@5:
  001b4	c6 45 e8 ed	 mov	 BYTE PTR __k$[ebp], -19	; ffffffedH
$LN111@LoadString@5:
  001b8	6a 03		 push	 3
  001ba	8d 45 e8	 lea	 eax, DWORD PTR __k$[ebp]
  001bd	c6 45 f7 00	 mov	 BYTE PTR __k$[ebp+15], 0
  001c1	5a		 pop	 edx
$LL104@LoadString@5:
  001c2	81 30 ed ec eb
	ea		 xor	 DWORD PTR [eax], -353637139 ; eaebecedH
  001c8	83 c0 04	 add	 eax, 4
  001cb	4a		 dec	 edx
  001cc	75 f4		 jne	 SHORT $LL104@LoadString@5
  001ce	6a 0c		 push	 12			; 0000000cH
  001d0	58		 pop	 eax
$LL101@LoadString@5:
  001d1	8b c8		 mov	 ecx, eax
  001d3	81 e1 03 00 00
	80		 and	 ecx, -2147483645	; 80000003H
  001d9	79 05		 jns	 SHORT $LN112@LoadString@5
  001db	49		 dec	 ecx
  001dc	83 c9 fc	 or	 ecx, -4			; fffffffcH
  001df	41		 inc	 ecx
$LN112@LoadString@5:
  001e0	b2 ed		 mov	 dl, -19			; ffffffedH
  001e2	2a d1		 sub	 dl, cl
  001e4	30 54 05 e8	 xor	 BYTE PTR __k$[ebp+eax], dl
  001e8	40		 inc	 eax
  001e9	83 f8 0f	 cmp	 eax, 15			; 0000000fH
  001ec	7c e3		 jl	 SHORT $LL101@LoadString@5

; 163  : 		LoadString(_k, d, b, i);

  001ee	ff 75 14	 push	 DWORD PTR _i$[ebp]
  001f1	8b 4d e4	 mov	 ecx, DWORD PTR _this$GSCopy$[ebp]
  001f4	57		 push	 edi
  001f5	56		 push	 esi
  001f6	8d 45 e8	 lea	 eax, DWORD PTR __k$[ebp]
  001f9	50		 push	 eax
  001fa	ff 15 00 00 00
	00		 call	 DWORD PTR __imp_?LoadStringA@ioINILoader@@QAEXPBD0PADH@Z

; 164  : 	}

  00200	8b 4d fc	 mov	 ecx, DWORD PTR __$ArrayPad$[ebp]
  00203	5f		 pop	 edi
  00204	33 cd		 xor	 ecx, ebp
  00206	5e		 pop	 esi
  00207	e8 00 00 00 00	 call	 @__security_check_cookie@4
  0020c	c9		 leave
  0020d	c2 10 00	 ret	 16			; 00000010H
??$LoadString_e@$0BA@@ioINILoader@@QAEXAAY0BA@$$CBDAAY00$$CBDPADH@Z ENDP ; ioINILoader::LoadString_e<16>
_TEXT	ENDS
PUBLIC	_this$GSCopy$
PUBLIC	__$ArrayPad$
PUBLIC	??$LoadString_e@$0BC@@ioINILoader@@QAEXAAY0BC@$$CBDAAY00$$CBDPADH@Z ; ioINILoader::LoadString_e<18>
; Function compile flags: /Ogsp
;	COMDAT ??$LoadString_e@$0BC@@ioINILoader@@QAEXAAY0BC@$$CBDAAY00$$CBDPADH@Z
_TEXT	SEGMENT
_this$GSCopy$ = -32					; size = 4
__k$ = -28						; size = 18
__$ArrayPad$ = -4					; size = 4
_k$ = 8							; size = 4
_d$ = 12						; size = 4
_b$ = 16						; size = 4
_i$ = 20						; size = 4
??$LoadString_e@$0BC@@ioINILoader@@QAEXAAY0BC@$$CBDAAY00$$CBDPADH@Z PROC ; ioINILoader::LoadString_e<18>, COMDAT
; _this$ = ecx

; 161  : 	{

  00000	55		 push	 ebp
  00001	8b ec		 mov	 ebp, esp
  00003	83 ec 20	 sub	 esp, 32			; 00000020H
  00006	a1 00 00 00 00	 mov	 eax, DWORD PTR ___security_cookie
  0000b	33 c5		 xor	 eax, ebp
  0000d	89 45 fc	 mov	 DWORD PTR __$ArrayPad$[ebp], eax
  00010	8b 45 08	 mov	 eax, DWORD PTR _k$[ebp]

; 162  : 		_ENCSTR(k, _k);

  00013	8a 10		 mov	 dl, BYTE PTR [eax]
  00015	56		 push	 esi
  00016	8b 75 0c	 mov	 esi, DWORD PTR _d$[ebp]
  00019	57		 push	 edi
  0001a	8b 7d 10	 mov	 edi, DWORD PTR _b$[ebp]
  0001d	89 4d e0	 mov	 DWORD PTR _this$GSCopy$[ebp], ecx
  00020	84 d2		 test	 dl, dl
  00022	0f 84 be 01 00
	00		 je	 $LN96@LoadString@6
  00028	80 f2 ed	 xor	 dl, -19			; ffffffedH
  0002b	88 55 e4	 mov	 BYTE PTR __k$[ebp], dl
  0002e	8a 50 01	 mov	 dl, BYTE PTR [eax+1]
  00031	84 d2		 test	 dl, dl
  00033	0f 84 a7 01 00
	00		 je	 $LN95@LoadString@6
  00039	80 f2 ec	 xor	 dl, -20			; ffffffecH
  0003c	88 55 e5	 mov	 BYTE PTR __k$[ebp+1], dl
  0003f	8a 50 02	 mov	 dl, BYTE PTR [eax+2]
  00042	84 d2		 test	 dl, dl
  00044	0f 84 90 01 00
	00		 je	 $LN94@LoadString@6
  0004a	b1 eb		 mov	 cl, -21			; ffffffebH
  0004c	32 d1		 xor	 dl, cl
  0004e	88 55 e6	 mov	 BYTE PTR __k$[ebp+2], dl
  00051	8a 50 03	 mov	 dl, BYTE PTR [eax+3]
  00054	84 d2		 test	 dl, dl
  00056	0f 84 78 01 00
	00		 je	 $LN93@LoadString@6
  0005c	80 f2 ea	 xor	 dl, -22			; ffffffeaH
  0005f	88 55 e7	 mov	 BYTE PTR __k$[ebp+3], dl
  00062	8a 50 04	 mov	 dl, BYTE PTR [eax+4]
  00065	84 d2		 test	 dl, dl
  00067	0f 84 61 01 00
	00		 je	 $LN92@LoadString@6
  0006d	80 f2 ed	 xor	 dl, -19			; ffffffedH
  00070	88 55 e8	 mov	 BYTE PTR __k$[ebp+4], dl
  00073	8a 50 05	 mov	 dl, BYTE PTR [eax+5]
  00076	84 d2		 test	 dl, dl
  00078	0f 84 4a 01 00
	00		 je	 $LN91@LoadString@6
  0007e	80 f2 ec	 xor	 dl, -20			; ffffffecH
  00081	88 55 e9	 mov	 BYTE PTR __k$[ebp+5], dl
  00084	8a 50 06	 mov	 dl, BYTE PTR [eax+6]
  00087	84 d2		 test	 dl, dl
  00089	0f 84 34 01 00
	00		 je	 $LN90@LoadString@6
  0008f	32 d1		 xor	 dl, cl
  00091	88 55 ea	 mov	 BYTE PTR __k$[ebp+6], dl
  00094	8a 50 07	 mov	 dl, BYTE PTR [eax+7]
  00097	84 d2		 test	 dl, dl
  00099	0f 84 1e 01 00
	00		 je	 $LN89@LoadString@6
  0009f	80 f2 ea	 xor	 dl, -22			; ffffffeaH
  000a2	88 55 eb	 mov	 BYTE PTR __k$[ebp+7], dl
  000a5	8a 50 08	 mov	 dl, BYTE PTR [eax+8]
  000a8	84 d2		 test	 dl, dl
  000aa	0f 84 07 01 00
	00		 je	 $LN88@LoadString@6
  000b0	80 f2 ed	 xor	 dl, -19			; ffffffedH
  000b3	88 55 ec	 mov	 BYTE PTR __k$[ebp+8], dl
  000b6	8a 50 09	 mov	 dl, BYTE PTR [eax+9]
  000b9	84 d2		 test	 dl, dl
  000bb	0f 84 f0 00 00
	00		 je	 $LN87@LoadString@6
  000c1	80 f2 ec	 xor	 dl, -20			; ffffffecH
  000c4	88 55 ed	 mov	 BYTE PTR __k$[ebp+9], dl
  000c7	8a 50 0a	 mov	 dl, BYTE PTR [eax+10]
  000ca	84 d2		 test	 dl, dl
  000cc	0f 84 da 00 00
	00		 je	 $LN86@LoadString@6
  000d2	32 d1		 xor	 dl, cl
  000d4	88 55 ee	 mov	 BYTE PTR __k$[ebp+10], dl
  000d7	8a 50 0b	 mov	 dl, BYTE PTR [eax+11]
  000da	84 d2		 test	 dl, dl
  000dc	0f 84 c4 00 00
	00		 je	 $LN85@LoadString@6
  000e2	80 f2 ea	 xor	 dl, -22			; ffffffeaH
  000e5	88 55 ef	 mov	 BYTE PTR __k$[ebp+11], dl
  000e8	8a 50 0c	 mov	 dl, BYTE PTR [eax+12]
  000eb	84 d2		 test	 dl, dl
  000ed	0f 84 ad 00 00
	00		 je	 $LN84@LoadString@6
  000f3	80 f2 ed	 xor	 dl, -19			; ffffffedH
  000f6	88 55 f0	 mov	 BYTE PTR __k$[ebp+12], dl
  000f9	8a 50 0d	 mov	 dl, BYTE PTR [eax+13]
  000fc	84 d2		 test	 dl, dl
  000fe	0f 84 96 00 00
	00		 je	 $LN83@LoadString@6
  00104	80 f2 ec	 xor	 dl, -20			; ffffffecH
  00107	88 55 f1	 mov	 BYTE PTR __k$[ebp+13], dl
  0010a	8a 50 0e	 mov	 dl, BYTE PTR [eax+14]
  0010d	84 d2		 test	 dl, dl
  0010f	0f 84 80 00 00
	00		 je	 $LN82@LoadString@6
  00115	32 d1		 xor	 dl, cl
  00117	88 55 f2	 mov	 BYTE PTR __k$[ebp+14], dl
  0011a	8a 50 0f	 mov	 dl, BYTE PTR [eax+15]
  0011d	84 d2		 test	 dl, dl
  0011f	74 6e		 je	 SHORT $LN81@LoadString@6
  00121	80 f2 ea	 xor	 dl, -22			; ffffffeaH
  00124	88 55 f3	 mov	 BYTE PTR __k$[ebp+15], dl
  00127	8a 50 10	 mov	 dl, BYTE PTR [eax+16]
  0012a	84 d2		 test	 dl, dl
  0012c	74 5b		 je	 SHORT $LN80@LoadString@6
  0012e	80 f2 ed	 xor	 dl, -19			; ffffffedH
  00131	80 78 11 00	 cmp	 BYTE PTR [eax+17], 0
  00135	88 55 f4	 mov	 BYTE PTR __k$[ebp+16], dl
  00138	0f 84 ac 00 00
	00		 je	 $LN111@LoadString@6
  0013e	8a 50 12	 mov	 dl, BYTE PTR [eax+18]
  00141	84 d2		 test	 dl, dl
  00143	74 3f		 je	 SHORT $LN78@LoadString@6
  00145	32 d1		 xor	 dl, cl
  00147	88 55 f6	 mov	 BYTE PTR __k$[ebp+18], dl
  0014a	8a 50 13	 mov	 dl, BYTE PTR [eax+19]
  0014d	84 d2		 test	 dl, dl
  0014f	74 2d		 je	 SHORT $LN77@LoadString@6
  00151	80 f2 ea	 xor	 dl, -22			; ffffffeaH
  00154	88 55 f7	 mov	 BYTE PTR __k$[ebp+19], dl
  00157	8a 50 14	 mov	 dl, BYTE PTR [eax+20]
  0015a	84 d2		 test	 dl, dl
  0015c	74 1a		 je	 SHORT $LN76@LoadString@6
  0015e	8a 40 15	 mov	 al, BYTE PTR [eax+21]
  00161	80 f2 ed	 xor	 dl, -19			; ffffffedH
  00164	88 55 f8	 mov	 BYTE PTR __k$[ebp+20], dl
  00167	84 c0		 test	 al, al
  00169	74 07		 je	 SHORT $LN75@LoadString@6
  0016b	34 ec		 xor	 al, -20			; ffffffecH
  0016d	88 45 f9	 mov	 BYTE PTR __k$[ebp+21], al
  00170	eb 78		 jmp	 SHORT $LN111@LoadString@6
$LN75@LoadString@6:
  00172	c6 45 f9 ec	 mov	 BYTE PTR __k$[ebp+21], -20 ; ffffffecH
  00176	eb 72		 jmp	 SHORT $LN111@LoadString@6
$LN76@LoadString@6:
  00178	c6 45 f8 ed	 mov	 BYTE PTR __k$[ebp+20], -19 ; ffffffedH
  0017c	eb 6c		 jmp	 SHORT $LN111@LoadString@6
$LN77@LoadString@6:
  0017e	c6 45 f7 ea	 mov	 BYTE PTR __k$[ebp+19], -22 ; ffffffeaH
  00182	eb 66		 jmp	 SHORT $LN111@LoadString@6
$LN78@LoadString@6:
  00184	88 4d f6	 mov	 BYTE PTR __k$[ebp+18], cl
  00187	eb 61		 jmp	 SHORT $LN111@LoadString@6
$LN80@LoadString@6:
  00189	c6 45 f4 ed	 mov	 BYTE PTR __k$[ebp+16], -19 ; ffffffedH
  0018d	eb 5b		 jmp	 SHORT $LN111@LoadString@6
$LN81@LoadString@6:
  0018f	c6 45 f3 ea	 mov	 BYTE PTR __k$[ebp+15], -22 ; ffffffeaH
  00193	eb 55		 jmp	 SHORT $LN111@LoadString@6
$LN82@LoadString@6:
  00195	88 4d f2	 mov	 BYTE PTR __k$[ebp+14], cl
  00198	eb 50		 jmp	 SHORT $LN111@LoadString@6
$LN83@LoadString@6:
  0019a	c6 45 f1 ec	 mov	 BYTE PTR __k$[ebp+13], -20 ; ffffffecH
  0019e	eb 4a		 jmp	 SHORT $LN111@LoadString@6
$LN84@LoadString@6:
  001a0	c6 45 f0 ed	 mov	 BYTE PTR __k$[ebp+12], -19 ; ffffffedH
  001a4	eb 44		 jmp	 SHORT $LN111@LoadString@6
$LN85@LoadString@6:
  001a6	c6 45 ef ea	 mov	 BYTE PTR __k$[ebp+11], -22 ; ffffffeaH
  001aa	eb 3e		 jmp	 SHORT $LN111@LoadString@6
$LN86@LoadString@6:
  001ac	88 4d ee	 mov	 BYTE PTR __k$[ebp+10], cl
  001af	eb 39		 jmp	 SHORT $LN111@LoadString@6
$LN87@LoadString@6:
  001b1	c6 45 ed ec	 mov	 BYTE PTR __k$[ebp+9], -20 ; ffffffecH
  001b5	eb 33		 jmp	 SHORT $LN111@LoadString@6
$LN88@LoadString@6:
  001b7	c6 45 ec ed	 mov	 BYTE PTR __k$[ebp+8], -19 ; ffffffedH
  001bb	eb 2d		 jmp	 SHORT $LN111@LoadString@6
$LN89@LoadString@6:
  001bd	c6 45 eb ea	 mov	 BYTE PTR __k$[ebp+7], -22 ; ffffffeaH
  001c1	eb 27		 jmp	 SHORT $LN111@LoadString@6
$LN90@LoadString@6:
  001c3	88 4d ea	 mov	 BYTE PTR __k$[ebp+6], cl
  001c6	eb 22		 jmp	 SHORT $LN111@LoadString@6
$LN91@LoadString@6:
  001c8	c6 45 e9 ec	 mov	 BYTE PTR __k$[ebp+5], -20 ; ffffffecH
  001cc	eb 1c		 jmp	 SHORT $LN111@LoadString@6
$LN92@LoadString@6:
  001ce	c6 45 e8 ed	 mov	 BYTE PTR __k$[ebp+4], -19 ; ffffffedH
  001d2	eb 16		 jmp	 SHORT $LN111@LoadString@6
$LN93@LoadString@6:
  001d4	c6 45 e7 ea	 mov	 BYTE PTR __k$[ebp+3], -22 ; ffffffeaH
  001d8	eb 10		 jmp	 SHORT $LN111@LoadString@6
$LN94@LoadString@6:
  001da	c6 45 e6 eb	 mov	 BYTE PTR __k$[ebp+2], -21 ; ffffffebH
  001de	eb 0a		 jmp	 SHORT $LN111@LoadString@6
$LN95@LoadString@6:
  001e0	c6 45 e5 ec	 mov	 BYTE PTR __k$[ebp+1], -20 ; ffffffecH
  001e4	eb 04		 jmp	 SHORT $LN111@LoadString@6
$LN96@LoadString@6:
  001e6	c6 45 e4 ed	 mov	 BYTE PTR __k$[ebp], -19	; ffffffedH
$LN111@LoadString@6:
  001ea	6a 04		 push	 4
  001ec	8d 45 e4	 lea	 eax, DWORD PTR __k$[ebp]
  001ef	c6 45 f5 00	 mov	 BYTE PTR __k$[ebp+17], 0
  001f3	5a		 pop	 edx
$LL104@LoadString@6:
  001f4	81 30 ed ec eb
	ea		 xor	 DWORD PTR [eax], -353637139 ; eaebecedH
  001fa	83 c0 04	 add	 eax, 4
  001fd	4a		 dec	 edx
  001fe	75 f4		 jne	 SHORT $LL104@LoadString@6

; 163  : 		LoadString(_k, d, b, i);

  00200	ff 75 14	 push	 DWORD PTR _i$[ebp]
  00203	8b 4d e0	 mov	 ecx, DWORD PTR _this$GSCopy$[ebp]
  00206	80 75 f4 ed	 xor	 BYTE PTR __k$[ebp+16], -19 ; ffffffedH
  0020a	57		 push	 edi
  0020b	56		 push	 esi
  0020c	8d 45 e4	 lea	 eax, DWORD PTR __k$[ebp]
  0020f	50		 push	 eax
  00210	ff 15 00 00 00
	00		 call	 DWORD PTR __imp_?LoadStringA@ioINILoader@@QAEXPBD0PADH@Z

; 164  : 	}

  00216	8b 4d fc	 mov	 ecx, DWORD PTR __$ArrayPad$[ebp]
  00219	5f		 pop	 edi
  0021a	33 cd		 xor	 ecx, ebp
  0021c	5e		 pop	 esi
  0021d	e8 00 00 00 00	 call	 @__security_check_cookie@4
  00222	c9		 leave
  00223	c2 10 00	 ret	 16			; 00000010H
??$LoadString_e@$0BC@@ioINILoader@@QAEXAAY0BC@$$CBDAAY00$$CBDPADH@Z ENDP ; ioINILoader::LoadString_e<18>
_TEXT	ENDS
PUBLIC	??0?$CEncrypt@M@@QAE@XZ				; CEncrypt<float>::CEncrypt<float>
EXTRN	??0ccddaabb@@QAE@XZ:PROC			; ccddaabb::ccddaabb
;	COMDAT xdata$x
; File d:\lost saga for developer\youtube\tutorial\source\src\lsclient\encryptvalue.h
xdata$x	SEGMENT
__unwindtable$??0?$CEncrypt@M@@QAE@XZ DD 0ffffffffH
	DD	FLAT:__unwindfunclet$??0?$CEncrypt@M@@QAE@XZ$0
__ehfuncinfo$??0?$CEncrypt@M@@QAE@XZ DD 019930522H
	DD	01H
	DD	FLAT:__unwindtable$??0?$CEncrypt@M@@QAE@XZ
	DD	2 DUP(00H)
	DD	2 DUP(00H)
	DD	00H
	DD	01H
; Function compile flags: /Ogsp
xdata$x	ENDS
;	COMDAT ??0?$CEncrypt@M@@QAE@XZ
_TEXT	SEGMENT
_this$ = -16						; size = 4
__$EHRec$ = -12						; size = 12
??0?$CEncrypt@M@@QAE@XZ PROC				; CEncrypt<float>::CEncrypt<float>, COMDAT
; _this$ = ecx

; 109  : 	CEncrypt()

  00000	6a 04		 push	 4
  00002	b8 00 00 00 00	 mov	 eax, __ehhandler$??0?$CEncrypt@M@@QAE@XZ
  00007	e8 00 00 00 00	 call	 __EH_prolog3
  0000c	8b f1		 mov	 esi, ecx
  0000e	89 75 f0	 mov	 DWORD PTR _this$[ebp], esi
  00011	8d 4e 0c	 lea	 ecx, DWORD PTR [esi+12]
  00014	c7 06 00 00 00
	00		 mov	 DWORD PTR [esi], OFFSET ??_7?$CEncrypt@M@@6B@
  0001a	e8 00 00 00 00	 call	 ??0ccddaabb@@QAE@XZ	; ccddaabb::ccddaabb
  0001f	83 65 fc 00	 and	 DWORD PTR __$EHRec$[ebp+8], 0

; 110  : 	{
; 111  : 		Init();

  00023	8b ce		 mov	 ecx, esi
  00025	e8 00 00 00 00	 call	 ?Init@?$CEncrypt@M@@AAEXXZ ; CEncrypt<float>::Init

; 112  : 	}

  0002a	8b c6		 mov	 eax, esi
  0002c	e8 00 00 00 00	 call	 __EH_epilog3
  00031	c3		 ret	 0
_TEXT	ENDS
;	COMDAT text$x
text$x	SEGMENT
__unwindfunclet$??0?$CEncrypt@M@@QAE@XZ$0:
  00000	8b 4d f0	 mov	 ecx, DWORD PTR _this$[ebp]
  00003	83 c1 0c	 add	 ecx, 12			; 0000000cH
  00006	e9 00 00 00 00	 jmp	 ??1ccddaabb@@UAE@XZ	; ccddaabb::~ccddaabb
__ehhandler$??0?$CEncrypt@M@@QAE@XZ:
  0000b	8b 54 24 08	 mov	 edx, DWORD PTR [esp+8]
  0000f	8d 42 0c	 lea	 eax, DWORD PTR [edx+12]
  00012	8b 4a ec	 mov	 ecx, DWORD PTR [edx-20]
  00015	33 c8		 xor	 ecx, eax
  00017	e8 00 00 00 00	 call	 @__security_check_cookie@4
  0001c	b8 00 00 00 00	 mov	 eax, OFFSET __ehfuncinfo$??0?$CEncrypt@M@@QAE@XZ
  00021	e9 00 00 00 00	 jmp	 ___CxxFrameHandler3
text$x	ENDS
??0?$CEncrypt@M@@QAE@XZ ENDP				; CEncrypt<float>::CEncrypt<float>
PUBLIC	??B?$CEncrypt@M@@QAEMXZ				; CEncrypt<float>::operator float
; Function compile flags: /Ogsp
;	COMDAT ??B?$CEncrypt@M@@QAEMXZ
_TEXT	SEGMENT
_value$ = -4						; size = 4
??B?$CEncrypt@M@@QAEMXZ PROC				; CEncrypt<float>::operator float, COMDAT
; _this$ = ecx

; 134  : 	{

  00000	55		 push	 ebp
  00001	8b ec		 mov	 ebp, esp
  00003	51		 push	 ecx

; 135  : 		type value;
; 136  : 		DecryptValueToPool(&value);

  00004	8d 45 fc	 lea	 eax, DWORD PTR _value$[ebp]
  00007	50		 push	 eax
  00008	e8 00 00 00 00	 call	 ?DecryptValueToPool@?$CEncrypt@M@@QAEXPAM@Z ; CEncrypt<float>::DecryptValueToPool

; 137  : 
; 138  : #ifdef _NOTUSE
; 139  : 		Debug();
; 140  : #endif
; 141  : 		return value;

  0000d	d9 45 fc	 fld	 DWORD PTR _value$[ebp]

; 142  : 	}

  00010	c9		 leave
  00011	c3		 ret	 0
??B?$CEncrypt@M@@QAEMXZ ENDP				; CEncrypt<float>::operator float
_TEXT	ENDS
PUBLIC	??B?$CEncrypt@M@@QBEMXZ				; CEncrypt<float>::operator float
; Function compile flags: /Ogsp
;	COMDAT ??B?$CEncrypt@M@@QBEMXZ
_TEXT	SEGMENT
_value$ = -4						; size = 4
??B?$CEncrypt@M@@QBEMXZ PROC				; CEncrypt<float>::operator float, COMDAT
; _this$ = ecx

; 145  : 	{

  00000	55		 push	 ebp
  00001	8b ec		 mov	 ebp, esp
  00003	51		 push	 ecx

; 146  : 		//UJ 130829, const    --start
; 147  : 		type value;
; 148  : 		CEncrypt<type>* pThis = const_cast<CEncrypt<type>*>(this);
; 149  : 		pThis->DecryptValueToPool(&value);

  00004	8d 45 fc	 lea	 eax, DWORD PTR _value$[ebp]
  00007	50		 push	 eax
  00008	e8 00 00 00 00	 call	 ?DecryptValueToPool@?$CEncrypt@M@@QAEXPAM@Z ; CEncrypt<float>::DecryptValueToPool

; 150  : 		//// const DecryptValueToPool     .
; 151  :  		//type value;
; 152  : 		//char szTempMem[MAX_ENCRYPT];
; 153  : 		//m_RC5.DecryptByte( m_MemPool, szTempMem, max(m_ValueSize, DEFAULT_ENCRYPT) );
; 154  : 		//memcpy( &value, szTempMem, m_ValueSize );
; 155  : 		//UJ --end
; 156  : 
; 157  : #ifdef _NOTUSE
; 158  : 		Debug();
; 159  : #endif
; 160  : 		return value;

  0000d	d9 45 fc	 fld	 DWORD PTR _value$[ebp]

; 161  : 	}

  00010	c9		 leave
  00011	c3		 ret	 0
??B?$CEncrypt@M@@QBEMXZ ENDP				; CEncrypt<float>::operator float
_TEXT	ENDS
PUBLIC	??4?$CEncrypt@M@@QAEMM@Z			; CEncrypt<float>::operator=
; Function compile flags: /Ogsp
;	COMDAT ??4?$CEncrypt@M@@QAEMM@Z
_TEXT	SEGMENT
_value$ = 8						; size = 4
_inValue$ = 8						; size = 4
??4?$CEncrypt@M@@QAEMM@Z PROC				; CEncrypt<float>::operator=, COMDAT
; _this$ = ecx

; 1654 : 	{	

  00000	55		 push	 ebp
  00001	8b ec		 mov	 ebp, esp

; 1655 : 		type value = inValue;

  00003	d9 45 08	 fld	 DWORD PTR _inValue$[ebp]

; 1656 : 		EncryptValueToPool((char*)&value);

  00006	8d 45 08	 lea	 eax, DWORD PTR _value$[ebp]
  00009	50		 push	 eax
  0000a	d9 5d 08	 fstp	 DWORD PTR _value$[ebp]
  0000d	e8 00 00 00 00	 call	 ?EncryptValueToPool@?$CEncrypt@M@@AAEXPBD@Z ; CEncrypt<float>::EncryptValueToPool

; 1657 : #ifdef _NOTUSE
; 1658 : 		m_value = inValue;
; 1659 : 		Debug();
; 1660 : #endif
; 1661 : 		return value;

  00012	d9 45 08	 fld	 DWORD PTR _value$[ebp]

; 1662 : 	}

  00015	5d		 pop	 ebp
  00016	c2 04 00	 ret	 4
??4?$CEncrypt@M@@QAEMM@Z ENDP				; CEncrypt<float>::operator=
_TEXT	ENDS
PUBLIC	??Y?$CEncrypt@M@@QAEAAMABM@Z			; CEncrypt<float>::operator+=
; Function compile flags: /Ogsp
;	COMDAT ??Y?$CEncrypt@M@@QAEAAMABM@Z
_TEXT	SEGMENT
_value$ = -4						; size = 4
_inValue$ = 8						; size = 4
??Y?$CEncrypt@M@@QAEAAMABM@Z PROC			; CEncrypt<float>::operator+=, COMDAT
; _this$ = ecx

; 1715 : 	{

  00000	55		 push	 ebp
  00001	8b ec		 mov	 ebp, esp
  00003	51		 push	 ecx
  00004	56		 push	 esi

; 1716 : 		type value;
; 1717 : 		DecryptValueToPool(&value);

  00005	8d 45 fc	 lea	 eax, DWORD PTR _value$[ebp]
  00008	50		 push	 eax
  00009	8b f1		 mov	 esi, ecx
  0000b	e8 00 00 00 00	 call	 ?DecryptValueToPool@?$CEncrypt@M@@QAEXPAM@Z ; CEncrypt<float>::DecryptValueToPool

; 1718 : 		value += inValue;

  00010	8b 45 08	 mov	 eax, DWORD PTR _inValue$[ebp]
  00013	f3 0f 10 00	 movss	 xmm0, DWORD PTR [eax]
  00017	f3 0f 10 4d fc	 movss	 xmm1, DWORD PTR _value$[ebp]
  0001c	0f 5a c0	 cvtps2pd xmm0, xmm0
  0001f	0f 5a c9	 cvtps2pd xmm1, xmm1

; 1719 : 		EncryptValueToPool((char*)&value);

  00022	8d 45 fc	 lea	 eax, DWORD PTR _value$[ebp]
  00025	f2 0f 58 c1	 addsd	 xmm0, xmm1
  00029	66 0f 5a c0	 cvtpd2ps xmm0, xmm0
  0002d	50		 push	 eax
  0002e	8b ce		 mov	 ecx, esi
  00030	f3 0f 11 45 fc	 movss	 DWORD PTR _value$[ebp], xmm0
  00035	e8 00 00 00 00	 call	 ?EncryptValueToPool@?$CEncrypt@M@@AAEXPBD@Z ; CEncrypt<float>::EncryptValueToPool

; 1720 : #ifdef _NOTUSE
; 1721 : 		m_value += inValue;
; 1722 : 		Debug();
; 1723 : #endif
; 1724 : 		return value;

  0003a	8d 45 fc	 lea	 eax, DWORD PTR _value$[ebp]
  0003d	5e		 pop	 esi

; 1725 : 	} 

  0003e	c9		 leave
  0003f	c2 04 00	 ret	 4
??Y?$CEncrypt@M@@QAEAAMABM@Z ENDP			; CEncrypt<float>::operator+=
_TEXT	ENDS
PUBLIC	??Z?$CEncrypt@M@@QAEAAMABM@Z			; CEncrypt<float>::operator-=
; Function compile flags: /Ogsp
;	COMDAT ??Z?$CEncrypt@M@@QAEAAMABM@Z
_TEXT	SEGMENT
_value$ = -4						; size = 4
_inValue$ = 8						; size = 4
??Z?$CEncrypt@M@@QAEAAMABM@Z PROC			; CEncrypt<float>::operator-=, COMDAT
; _this$ = ecx

; 1728 : 	{

  00000	55		 push	 ebp
  00001	8b ec		 mov	 ebp, esp
  00003	51		 push	 ecx
  00004	56		 push	 esi

; 1729 : 		type value;
; 1730 : 		DecryptValueToPool(&value);

  00005	8d 45 fc	 lea	 eax, DWORD PTR _value$[ebp]
  00008	50		 push	 eax
  00009	8b f1		 mov	 esi, ecx
  0000b	e8 00 00 00 00	 call	 ?DecryptValueToPool@?$CEncrypt@M@@QAEXPAM@Z ; CEncrypt<float>::DecryptValueToPool

; 1731 : 		value -= inValue;

  00010	8b 45 08	 mov	 eax, DWORD PTR _inValue$[ebp]
  00013	f3 0f 10 45 fc	 movss	 xmm0, DWORD PTR _value$[ebp]
  00018	f3 0f 10 08	 movss	 xmm1, DWORD PTR [eax]
  0001c	0f 5a c0	 cvtps2pd xmm0, xmm0
  0001f	0f 5a c9	 cvtps2pd xmm1, xmm1

; 1732 : 		EncryptValueToPool((char*)&value);

  00022	8d 45 fc	 lea	 eax, DWORD PTR _value$[ebp]
  00025	f2 0f 5c c1	 subsd	 xmm0, xmm1
  00029	66 0f 5a c0	 cvtpd2ps xmm0, xmm0
  0002d	50		 push	 eax
  0002e	8b ce		 mov	 ecx, esi
  00030	f3 0f 11 45 fc	 movss	 DWORD PTR _value$[ebp], xmm0
  00035	e8 00 00 00 00	 call	 ?EncryptValueToPool@?$CEncrypt@M@@AAEXPBD@Z ; CEncrypt<float>::EncryptValueToPool

; 1733 : #ifdef _NOTUSE
; 1734 : 		m_value -= inValue;
; 1735 : 		Debug();
; 1736 : #endif
; 1737 : 		return value;

  0003a	8d 45 fc	 lea	 eax, DWORD PTR _value$[ebp]
  0003d	5e		 pop	 esi

; 1738 : 	} 

  0003e	c9		 leave
  0003f	c2 04 00	 ret	 4
??Z?$CEncrypt@M@@QAEAAMABM@Z ENDP			; CEncrypt<float>::operator-=
_TEXT	ENDS
PUBLIC	??O?$CEncrypt@M@@QAE_NABM@Z			; CEncrypt<float>::operator>
; Function compile flags: /Ogsp
;	COMDAT ??O?$CEncrypt@M@@QAE_NABM@Z
_TEXT	SEGMENT
_value$ = -4						; size = 4
_inValue$ = 8						; size = 4
??O?$CEncrypt@M@@QAE_NABM@Z PROC			; CEncrypt<float>::operator>, COMDAT
; _this$ = ecx

; 1811 : 	{

  00000	55		 push	 ebp
  00001	8b ec		 mov	 ebp, esp
  00003	51		 push	 ecx

; 1812 : 		type value;
; 1813 : 		DecryptValueToPool(&value);

  00004	8d 45 fc	 lea	 eax, DWORD PTR _value$[ebp]
  00007	50		 push	 eax
  00008	e8 00 00 00 00	 call	 ?DecryptValueToPool@?$CEncrypt@M@@QAEXPAM@Z ; CEncrypt<float>::DecryptValueToPool

; 1814 : #ifdef _NOTUSE
; 1815 : 		Debug();
; 1816 : #endif
; 1817 : 		return (value > inValue);

  0000d	8b 45 08	 mov	 eax, DWORD PTR _inValue$[ebp]
  00010	f3 0f 10 08	 movss	 xmm1, DWORD PTR [eax]
  00014	f3 0f 10 45 fc	 movss	 xmm0, DWORD PTR _value$[ebp]
  00019	0f 5a c0	 cvtps2pd xmm0, xmm0
  0001c	0f 5a c9	 cvtps2pd xmm1, xmm1
  0001f	33 c0		 xor	 eax, eax
  00021	66 0f 2f c1	 comisd	 xmm0, xmm1
  00025	76 01		 jbe	 SHORT $LN4@operator@4
  00027	40		 inc	 eax
$LN4@operator@4:

; 1818 : 	}		

  00028	c9		 leave
  00029	c2 04 00	 ret	 4
??O?$CEncrypt@M@@QAE_NABM@Z ENDP			; CEncrypt<float>::operator>
_TEXT	ENDS
PUBLIC	??0?$CEncrypt@K@@QAE@XZ				; CEncrypt<unsigned long>::CEncrypt<unsigned long>
;	COMDAT xdata$x
xdata$x	SEGMENT
__unwindtable$??0?$CEncrypt@K@@QAE@XZ DD 0ffffffffH
	DD	FLAT:__unwindfunclet$??0?$CEncrypt@K@@QAE@XZ$0
__ehfuncinfo$??0?$CEncrypt@K@@QAE@XZ DD 019930522H
	DD	01H
	DD	FLAT:__unwindtable$??0?$CEncrypt@K@@QAE@XZ
	DD	2 DUP(00H)
	DD	2 DUP(00H)
	DD	00H
	DD	01H
; Function compile flags: /Ogsp
xdata$x	ENDS
;	COMDAT ??0?$CEncrypt@K@@QAE@XZ
_TEXT	SEGMENT
_this$ = -16						; size = 4
__$EHRec$ = -12						; size = 12
??0?$CEncrypt@K@@QAE@XZ PROC				; CEncrypt<unsigned long>::CEncrypt<unsigned long>, COMDAT
; _this$ = ecx

; 109  : 	CEncrypt()

  00000	6a 04		 push	 4
  00002	b8 00 00 00 00	 mov	 eax, __ehhandler$??0?$CEncrypt@K@@QAE@XZ
  00007	e8 00 00 00 00	 call	 __EH_prolog3
  0000c	8b f1		 mov	 esi, ecx
  0000e	89 75 f0	 mov	 DWORD PTR _this$[ebp], esi
  00011	8d 4e 0c	 lea	 ecx, DWORD PTR [esi+12]
  00014	c7 06 00 00 00
	00		 mov	 DWORD PTR [esi], OFFSET ??_7?$CEncrypt@K@@6B@
  0001a	e8 00 00 00 00	 call	 ??0ccddaabb@@QAE@XZ	; ccddaabb::ccddaabb
  0001f	83 65 fc 00	 and	 DWORD PTR __$EHRec$[ebp+8], 0

; 110  : 	{
; 111  : 		Init();

  00023	8b ce		 mov	 ecx, esi
  00025	e8 00 00 00 00	 call	 ?Init@?$CEncrypt@K@@AAEXXZ ; CEncrypt<unsigned long>::Init

; 112  : 	}

  0002a	8b c6		 mov	 eax, esi
  0002c	e8 00 00 00 00	 call	 __EH_epilog3
  00031	c3		 ret	 0
_TEXT	ENDS
;	COMDAT text$x
text$x	SEGMENT
__unwindfunclet$??0?$CEncrypt@K@@QAE@XZ$0:
  00000	8b 4d f0	 mov	 ecx, DWORD PTR _this$[ebp]
  00003	83 c1 0c	 add	 ecx, 12			; 0000000cH
  00006	e9 00 00 00 00	 jmp	 ??1ccddaabb@@UAE@XZ	; ccddaabb::~ccddaabb
__ehhandler$??0?$CEncrypt@K@@QAE@XZ:
  0000b	8b 54 24 08	 mov	 edx, DWORD PTR [esp+8]
  0000f	8d 42 0c	 lea	 eax, DWORD PTR [edx+12]
  00012	8b 4a ec	 mov	 ecx, DWORD PTR [edx-20]
  00015	33 c8		 xor	 ecx, eax
  00017	e8 00 00 00 00	 call	 @__security_check_cookie@4
  0001c	b8 00 00 00 00	 mov	 eax, OFFSET __ehfuncinfo$??0?$CEncrypt@K@@QAE@XZ
  00021	e9 00 00 00 00	 jmp	 ___CxxFrameHandler3
text$x	ENDS
??0?$CEncrypt@K@@QAE@XZ ENDP				; CEncrypt<unsigned long>::CEncrypt<unsigned long>
PUBLIC	??B?$CEncrypt@K@@QAEKXZ				; CEncrypt<unsigned long>::operator unsigned long
; Function compile flags: /Ogsp
;	COMDAT ??B?$CEncrypt@K@@QAEKXZ
_TEXT	SEGMENT
_value$ = -4						; size = 4
??B?$CEncrypt@K@@QAEKXZ PROC				; CEncrypt<unsigned long>::operator unsigned long, COMDAT
; _this$ = ecx

; 134  : 	{

  00000	55		 push	 ebp
  00001	8b ec		 mov	 ebp, esp
  00003	51		 push	 ecx

; 135  : 		type value;
; 136  : 		DecryptValueToPool(&value);

  00004	8d 45 fc	 lea	 eax, DWORD PTR _value$[ebp]
  00007	50		 push	 eax
  00008	e8 00 00 00 00	 call	 ?DecryptValueToPool@?$CEncrypt@K@@QAEXPAK@Z ; CEncrypt<unsigned long>::DecryptValueToPool

; 137  : 
; 138  : #ifdef _NOTUSE
; 139  : 		Debug();
; 140  : #endif
; 141  : 		return value;

  0000d	8b 45 fc	 mov	 eax, DWORD PTR _value$[ebp]

; 142  : 	}

  00010	c9		 leave
  00011	c3		 ret	 0
??B?$CEncrypt@K@@QAEKXZ ENDP				; CEncrypt<unsigned long>::operator unsigned long
_TEXT	ENDS
PUBLIC	??4?$CEncrypt@K@@QAEKH@Z			; CEncrypt<unsigned long>::operator=
; Function compile flags: /Ogsp
;	COMDAT ??4?$CEncrypt@K@@QAEKH@Z
_TEXT	SEGMENT
_value$ = 8						; size = 4
_inValue$ = 8						; size = 4
??4?$CEncrypt@K@@QAEKH@Z PROC				; CEncrypt<unsigned long>::operator=, COMDAT
; _this$ = ecx

; 843  : 	{

  00000	55		 push	 ebp
  00001	8b ec		 mov	 ebp, esp

; 844  : 		type value = inValue;

  00003	8b 45 08	 mov	 eax, DWORD PTR _inValue$[ebp]
  00006	89 45 08	 mov	 DWORD PTR _value$[ebp], eax

; 845  : 		EncryptValueToPool((char*)&value);

  00009	8d 45 08	 lea	 eax, DWORD PTR _value$[ebp]
  0000c	50		 push	 eax
  0000d	e8 00 00 00 00	 call	 ?EncryptValueToPool@?$CEncrypt@K@@AAEXPBD@Z ; CEncrypt<unsigned long>::EncryptValueToPool

; 846  : #ifdef _NOTUSE
; 847  : 		m_value = inValue;
; 848  : 		Debug();
; 849  : #endif
; 850  : 		return value;

  00012	8b 45 08	 mov	 eax, DWORD PTR _value$[ebp]

; 851  : 	}

  00015	5d		 pop	 ebp
  00016	c2 04 00	 ret	 4
??4?$CEncrypt@K@@QAEKH@Z ENDP				; CEncrypt<unsigned long>::operator=
_TEXT	ENDS
PUBLIC	??4?$CEncrypt@K@@QAEKK@Z			; CEncrypt<unsigned long>::operator=
; Function compile flags: /Ogsp
;	COMDAT ??4?$CEncrypt@K@@QAEKK@Z
_TEXT	SEGMENT
_value$ = 8						; size = 4
_inValue$ = 8						; size = 4
??4?$CEncrypt@K@@QAEKK@Z PROC				; CEncrypt<unsigned long>::operator=, COMDAT
; _this$ = ecx

; 1262 : 	{

  00000	55		 push	 ebp
  00001	8b ec		 mov	 ebp, esp

; 1263 : 		
; 1264 : 		type value = inValue;

  00003	8b 45 08	 mov	 eax, DWORD PTR _inValue$[ebp]
  00006	89 45 08	 mov	 DWORD PTR _value$[ebp], eax

; 1265 : 		EncryptValueToPool((char*)&value);

  00009	8d 45 08	 lea	 eax, DWORD PTR _value$[ebp]
  0000c	50		 push	 eax
  0000d	e8 00 00 00 00	 call	 ?EncryptValueToPool@?$CEncrypt@K@@AAEXPBD@Z ; CEncrypt<unsigned long>::EncryptValueToPool

; 1266 : #ifdef _NOTUSE
; 1267 : 		m_value = inValue;
; 1268 : 		Debug();
; 1269 : #endif
; 1270 : 		return value;

  00012	8b 45 08	 mov	 eax, DWORD PTR _value$[ebp]

; 1271 : 	}

  00015	5d		 pop	 ebp
  00016	c2 04 00	 ret	 4
??4?$CEncrypt@K@@QAEKK@Z ENDP				; CEncrypt<unsigned long>::operator=
_TEXT	ENDS
PUBLIC	??B?$CEncrypt@_N@@QBE_NXZ			; CEncrypt<bool>::operator bool
; Function compile flags: /Ogsp
;	COMDAT ??B?$CEncrypt@_N@@QBE_NXZ
_TEXT	SEGMENT
_value$ = -1						; size = 1
??B?$CEncrypt@_N@@QBE_NXZ PROC				; CEncrypt<bool>::operator bool, COMDAT
; _this$ = ecx

; 145  : 	{

  00000	55		 push	 ebp
  00001	8b ec		 mov	 ebp, esp
  00003	51		 push	 ecx

; 146  : 		//UJ 130829, const    --start
; 147  : 		type value;
; 148  : 		CEncrypt<type>* pThis = const_cast<CEncrypt<type>*>(this);
; 149  : 		pThis->DecryptValueToPool(&value);

  00004	8d 45 ff	 lea	 eax, DWORD PTR _value$[ebp]
  00007	50		 push	 eax
  00008	e8 00 00 00 00	 call	 ?DecryptValueToPool@?$CEncrypt@_N@@QAEXPA_N@Z ; CEncrypt<bool>::DecryptValueToPool

; 150  : 		//// const DecryptValueToPool     .
; 151  :  		//type value;
; 152  : 		//char szTempMem[MAX_ENCRYPT];
; 153  : 		//m_RC5.DecryptByte( m_MemPool, szTempMem, max(m_ValueSize, DEFAULT_ENCRYPT) );
; 154  : 		//memcpy( &value, szTempMem, m_ValueSize );
; 155  : 		//UJ --end
; 156  : 
; 157  : #ifdef _NOTUSE
; 158  : 		Debug();
; 159  : #endif
; 160  : 		return value;

  0000d	8a 45 ff	 mov	 al, BYTE PTR _value$[ebp]

; 161  : 	}

  00010	c9		 leave
  00011	c3		 ret	 0
??B?$CEncrypt@_N@@QBE_NXZ ENDP				; CEncrypt<bool>::operator bool
_TEXT	ENDS
PUBLIC	??B?$CEncrypt@H@@QBEHXZ				; CEncrypt<int>::operator int
; Function compile flags: /Ogsp
;	COMDAT ??B?$CEncrypt@H@@QBEHXZ
_TEXT	SEGMENT
_value$ = -4						; size = 4
??B?$CEncrypt@H@@QBEHXZ PROC				; CEncrypt<int>::operator int, COMDAT
; _this$ = ecx

; 145  : 	{

  00000	55		 push	 ebp
  00001	8b ec		 mov	 ebp, esp
  00003	51		 push	 ecx

; 146  : 		//UJ 130829, const    --start
; 147  : 		type value;
; 148  : 		CEncrypt<type>* pThis = const_cast<CEncrypt<type>*>(this);
; 149  : 		pThis->DecryptValueToPool(&value);

  00004	8d 45 fc	 lea	 eax, DWORD PTR _value$[ebp]
  00007	50		 push	 eax
  00008	e8 00 00 00 00	 call	 ?DecryptValueToPool@?$CEncrypt@H@@QAEXPAH@Z ; CEncrypt<int>::DecryptValueToPool

; 150  : 		//// const DecryptValueToPool     .
; 151  :  		//type value;
; 152  : 		//char szTempMem[MAX_ENCRYPT];
; 153  : 		//m_RC5.DecryptByte( m_MemPool, szTempMem, max(m_ValueSize, DEFAULT_ENCRYPT) );
; 154  : 		//memcpy( &value, szTempMem, m_ValueSize );
; 155  : 		//UJ --end
; 156  : 
; 157  : #ifdef _NOTUSE
; 158  : 		Debug();
; 159  : #endif
; 160  : 		return value;

  0000d	8b 45 fc	 mov	 eax, DWORD PTR _value$[ebp]

; 161  : 	}

  00010	c9		 leave
  00011	c3		 ret	 0
??B?$CEncrypt@H@@QBEHXZ ENDP				; CEncrypt<int>::operator int
_TEXT	ENDS
PUBLIC	??B?$CEncrypt@W4TeamType@@@@QBE?AW4TeamType@@XZ	; CEncrypt<enum TeamType>::operator enum TeamType
; Function compile flags: /Ogsp
;	COMDAT ??B?$CEncrypt@W4TeamType@@@@QBE?AW4TeamType@@XZ
_TEXT	SEGMENT
_value$ = -4						; size = 4
??B?$CEncrypt@W4TeamType@@@@QBE?AW4TeamType@@XZ PROC	; CEncrypt<enum TeamType>::operator enum TeamType, COMDAT
; _this$ = ecx

; 145  : 	{

  00000	55		 push	 ebp
  00001	8b ec		 mov	 ebp, esp
  00003	51		 push	 ecx

; 146  : 		//UJ 130829, const    --start
; 147  : 		type value;
; 148  : 		CEncrypt<type>* pThis = const_cast<CEncrypt<type>*>(this);
; 149  : 		pThis->DecryptValueToPool(&value);

  00004	8d 45 fc	 lea	 eax, DWORD PTR _value$[ebp]
  00007	50		 push	 eax
  00008	e8 00 00 00 00	 call	 ?DecryptValueToPool@?$CEncrypt@W4TeamType@@@@QAEXPAW4TeamType@@@Z ; CEncrypt<enum TeamType>::DecryptValueToPool

; 150  : 		//// const DecryptValueToPool     .
; 151  :  		//type value;
; 152  : 		//char szTempMem[MAX_ENCRYPT];
; 153  : 		//m_RC5.DecryptByte( m_MemPool, szTempMem, max(m_ValueSize, DEFAULT_ENCRYPT) );
; 154  : 		//memcpy( &value, szTempMem, m_ValueSize );
; 155  : 		//UJ --end
; 156  : 
; 157  : #ifdef _NOTUSE
; 158  : 		Debug();
; 159  : #endif
; 160  : 		return value;

  0000d	8b 45 fc	 mov	 eax, DWORD PTR _value$[ebp]

; 161  : 	}

  00010	c9		 leave
  00011	c3		 ret	 0
??B?$CEncrypt@W4TeamType@@@@QBE?AW4TeamType@@XZ ENDP	; CEncrypt<enum TeamType>::operator enum TeamType
_TEXT	ENDS
PUBLIC	??4?$CEncrypt@W4TeamType@@@@QAE?AW4TeamType@@W41@@Z ; CEncrypt<enum TeamType>::operator=
; Function compile flags: /Ogsp
;	COMDAT ??4?$CEncrypt@W4TeamType@@@@QAE?AW4TeamType@@W41@@Z
_TEXT	SEGMENT
_value$ = 8						; size = 4
_inValue$ = 8						; size = 4
??4?$CEncrypt@W4TeamType@@@@QAE?AW4TeamType@@W41@@Z PROC ; CEncrypt<enum TeamType>::operator=, COMDAT
; _this$ = ecx

; 2965 : 	{

  00000	55		 push	 ebp
  00001	8b ec		 mov	 ebp, esp

; 2966 : 		type value = inValue;

  00003	8b 45 08	 mov	 eax, DWORD PTR _inValue$[ebp]
  00006	89 45 08	 mov	 DWORD PTR _value$[ebp], eax

; 2967 : 		EncryptValueToPool((char*)&value);

  00009	8d 45 08	 lea	 eax, DWORD PTR _value$[ebp]
  0000c	50		 push	 eax
  0000d	e8 00 00 00 00	 call	 ?EncryptValueToPool@?$CEncrypt@W4TeamType@@@@AAEXPBD@Z ; CEncrypt<enum TeamType>::EncryptValueToPool

; 2968 : #ifdef _NOTUSE
; 2969 : 		m_value = inValue;
; 2970 : 		Debug();
; 2971 : #endif
; 2972 : 		return value;

  00012	8b 45 08	 mov	 eax, DWORD PTR _value$[ebp]

; 2973 : 	}

  00015	5d		 pop	 ebp
  00016	c2 04 00	 ret	 4
??4?$CEncrypt@W4TeamType@@@@QAE?AW4TeamType@@W41@@Z ENDP ; CEncrypt<enum TeamType>::operator=
_TEXT	ENDS
PUBLIC	??B?$CEncrypt@W4ModeType@@@@QAE?AW4ModeType@@XZ	; CEncrypt<enum ModeType>::operator enum ModeType
; Function compile flags: /Ogsp
;	COMDAT ??B?$CEncrypt@W4ModeType@@@@QAE?AW4ModeType@@XZ
_TEXT	SEGMENT
_value$ = -4						; size = 4
??B?$CEncrypt@W4ModeType@@@@QAE?AW4ModeType@@XZ PROC	; CEncrypt<enum ModeType>::operator enum ModeType, COMDAT
; _this$ = ecx

; 134  : 	{

  00000	55		 push	 ebp
  00001	8b ec		 mov	 ebp, esp
  00003	51		 push	 ecx

; 135  : 		type value;
; 136  : 		DecryptValueToPool(&value);

  00004	8d 45 fc	 lea	 eax, DWORD PTR _value$[ebp]
  00007	50		 push	 eax
  00008	e8 00 00 00 00	 call	 ?DecryptValueToPool@?$CEncrypt@W4ModeType@@@@QAEXPAW4ModeType@@@Z ; CEncrypt<enum ModeType>::DecryptValueToPool

; 137  : 
; 138  : #ifdef _NOTUSE
; 139  : 		Debug();
; 140  : #endif
; 141  : 		return value;

  0000d	8b 45 fc	 mov	 eax, DWORD PTR _value$[ebp]

; 142  : 	}

  00010	c9		 leave
  00011	c3		 ret	 0
??B?$CEncrypt@W4ModeType@@@@QAE?AW4ModeType@@XZ ENDP	; CEncrypt<enum ModeType>::operator enum ModeType
_TEXT	ENDS
PUBLIC	??0ioSymbolStruct@@QAE@PAVioEntityGroup@@PAVioPlayMode@@@Z ; ioSymbolStruct::ioSymbolStruct
EXTRN	__imp_?SetLightApplyMask@ioEntityGroup@@QAEXK@Z:PROC
EXTRN	__imp_??0ioHashString@@QAE@XZ:PROC
EXTRN	??0ioPlayEntity@@QAE@PAVioEntityGroup@@PAVioPlayMode@@@Z:PROC ; ioPlayEntity::ioPlayEntity
;	COMDAT xdata$x
xdata$x	SEGMENT
__ehfuncinfo$??0ioSymbolStruct@@QAE@PAVioEntityGroup@@PAVioPlayMode@@@Z DD 019930522H
	DD	018H
	DD	FLAT:__unwindtable$??0ioSymbolStruct@@QAE@PAVioEntityGroup@@PAVioPlayMode@@@Z
	DD	2 DUP(00H)
	DD	2 DUP(00H)
	DD	00H
	DD	01H
__unwindtable$??0ioSymbolStruct@@QAE@PAVioEntityGroup@@PAVioPlayMode@@@Z DD 0ffffffffH
	DD	FLAT:__unwindfunclet$??0ioSymbolStruct@@QAE@PAVioEntityGroup@@PAVioPlayMode@@@Z$0
	DD	00H
	DD	FLAT:__unwindfunclet$??0ioSymbolStruct@@QAE@PAVioEntityGroup@@PAVioPlayMode@@@Z$1
	DD	01H
	DD	FLAT:__unwindfunclet$??0ioSymbolStruct@@QAE@PAVioEntityGroup@@PAVioPlayMode@@@Z$2
	DD	02H
	DD	FLAT:__unwindfunclet$??0ioSymbolStruct@@QAE@PAVioEntityGroup@@PAVioPlayMode@@@Z$3
	DD	03H
	DD	FLAT:__unwindfunclet$??0ioSymbolStruct@@QAE@PAVioEntityGroup@@PAVioPlayMode@@@Z$4
	DD	04H
	DD	FLAT:__unwindfunclet$??0ioSymbolStruct@@QAE@PAVioEntityGroup@@PAVioPlayMode@@@Z$5
	DD	05H
	DD	FLAT:__unwindfunclet$??0ioSymbolStruct@@QAE@PAVioEntityGroup@@PAVioPlayMode@@@Z$6
	DD	06H
	DD	FLAT:__unwindfunclet$??0ioSymbolStruct@@QAE@PAVioEntityGroup@@PAVioPlayMode@@@Z$7
	DD	07H
	DD	FLAT:__unwindfunclet$??0ioSymbolStruct@@QAE@PAVioEntityGroup@@PAVioPlayMode@@@Z$8
	DD	08H
	DD	FLAT:__unwindfunclet$??0ioSymbolStruct@@QAE@PAVioEntityGroup@@PAVioPlayMode@@@Z$9
	DD	09H
	DD	FLAT:__unwindfunclet$??0ioSymbolStruct@@QAE@PAVioEntityGroup@@PAVioPlayMode@@@Z$10
	DD	0aH
	DD	FLAT:__unwindfunclet$??0ioSymbolStruct@@QAE@PAVioEntityGroup@@PAVioPlayMode@@@Z$11
	DD	0bH
	DD	FLAT:__unwindfunclet$??0ioSymbolStruct@@QAE@PAVioEntityGroup@@PAVioPlayMode@@@Z$12
	DD	0cH
	DD	FLAT:__unwindfunclet$??0ioSymbolStruct@@QAE@PAVioEntityGroup@@PAVioPlayMode@@@Z$13
	DD	0dH
	DD	FLAT:__unwindfunclet$??0ioSymbolStruct@@QAE@PAVioEntityGroup@@PAVioPlayMode@@@Z$14
	DD	0eH
	DD	FLAT:__unwindfunclet$??0ioSymbolStruct@@QAE@PAVioEntityGroup@@PAVioPlayMode@@@Z$15
	DD	0fH
	DD	FLAT:__unwindfunclet$??0ioSymbolStruct@@QAE@PAVioEntityGroup@@PAVioPlayMode@@@Z$16
	DD	010H
	DD	FLAT:__unwindfunclet$??0ioSymbolStruct@@QAE@PAVioEntityGroup@@PAVioPlayMode@@@Z$17
	DD	011H
	DD	FLAT:__unwindfunclet$??0ioSymbolStruct@@QAE@PAVioEntityGroup@@PAVioPlayMode@@@Z$18
	DD	012H
	DD	FLAT:__unwindfunclet$??0ioSymbolStruct@@QAE@PAVioEntityGroup@@PAVioPlayMode@@@Z$19
	DD	013H
	DD	FLAT:__unwindfunclet$??0ioSymbolStruct@@QAE@PAVioEntityGroup@@PAVioPlayMode@@@Z$20
	DD	014H
	DD	FLAT:__unwindfunclet$??0ioSymbolStruct@@QAE@PAVioEntityGroup@@PAVioPlayMode@@@Z$21
	DD	015H
	DD	FLAT:__unwindfunclet$??0ioSymbolStruct@@QAE@PAVioEntityGroup@@PAVioPlayMode@@@Z$22
	DD	016H
	DD	FLAT:__unwindfunclet$??0ioSymbolStruct@@QAE@PAVioEntityGroup@@PAVioPlayMode@@@Z$23
; Function compile flags: /Ogsp
; File d:\lost saga for developer\youtube\tutorial\source\src\lsclient\iosymbolstruct.cpp
xdata$x	ENDS
;	COMDAT ??0ioSymbolStruct@@QAE@PAVioEntityGroup@@PAVioPlayMode@@@Z
_TEXT	SEGMENT
_this$ = -16						; size = 4
__$EHRec$ = -12						; size = 12
_pGrp$ = 8						; size = 4
tv425 = 12						; size = 4
tv420 = 12						; size = 4
tv414 = 12						; size = 4
_value$535938 = 12					; size = 4
_value$535934 = 12					; size = 4
_value$535930 = 12					; size = 4
_value$535926 = 12					; size = 4
_value$535922 = 12					; size = 4
_value$535918 = 12					; size = 4
_value$535914 = 12					; size = 4
_value$535906 = 12					; size = 4
_value$535898 = 12					; size = 4
_pMode$ = 12						; size = 4
??0ioSymbolStruct@@QAE@PAVioEntityGroup@@PAVioPlayMode@@@Z PROC ; ioSymbolStruct::ioSymbolStruct, COMDAT
; _this$ = ecx

; 12   : {

  00000	6a 04		 push	 4
  00002	b8 00 00 00 00	 mov	 eax, __ehhandler$??0ioSymbolStruct@@QAE@PAVioEntityGroup@@PAVioPlayMode@@@Z
  00007	e8 00 00 00 00	 call	 __EH_prolog3
  0000c	8b f1		 mov	 esi, ecx
  0000e	89 75 f0	 mov	 DWORD PTR _this$[ebp], esi
  00011	ff 75 0c	 push	 DWORD PTR _pMode$[ebp]
  00014	ff 75 08	 push	 DWORD PTR _pGrp$[ebp]
  00017	e8 00 00 00 00	 call	 ??0ioPlayEntity@@QAE@PAVioEntityGroup@@PAVioPlayMode@@@Z ; ioPlayEntity::ioPlayEntity
  0001c	33 db		 xor	 ebx, ebx
  0001e	8d 8e d8 01 00
	00		 lea	 ecx, DWORD PTR [esi+472]
  00024	89 5d fc	 mov	 DWORD PTR __$EHRec$[ebp+8], ebx
  00027	c7 06 00 00 00
	00		 mov	 DWORD PTR [esi], OFFSET ??_7ioSymbolStruct@@6B@
  0002d	e8 00 00 00 00	 call	 ??0?$CEncrypt@M@@QAE@XZ	; CEncrypt<float>::CEncrypt<float>
  00032	8d 8e 08 02 00
	00		 lea	 ecx, DWORD PTR [esi+520]
  00038	c6 45 fc 01	 mov	 BYTE PTR __$EHRec$[ebp+8], 1
  0003c	e8 00 00 00 00	 call	 ??0?$CEncrypt@M@@QAE@XZ	; CEncrypt<float>::CEncrypt<float>
  00041	8d 8e 38 02 00
	00		 lea	 ecx, DWORD PTR [esi+568]
  00047	c6 45 fc 02	 mov	 BYTE PTR __$EHRec$[ebp+8], 2
  0004b	e8 00 00 00 00	 call	 ??0?$CEncrypt@M@@QAE@XZ	; CEncrypt<float>::CEncrypt<float>
  00050	8d 8e 68 02 00
	00		 lea	 ecx, DWORD PTR [esi+616]
  00056	c6 45 fc 03	 mov	 BYTE PTR __$EHRec$[ebp+8], 3
  0005a	e8 00 00 00 00	 call	 ??0?$CEncrypt@M@@QAE@XZ	; CEncrypt<float>::CEncrypt<float>
  0005f	8d 8e 98 02 00
	00		 lea	 ecx, DWORD PTR [esi+664]
  00065	c6 45 fc 04	 mov	 BYTE PTR __$EHRec$[ebp+8], 4
  00069	e8 00 00 00 00	 call	 ??0?$CEncrypt@M@@QAE@XZ	; CEncrypt<float>::CEncrypt<float>
  0006e	8d 8e c8 02 00
	00		 lea	 ecx, DWORD PTR [esi+712]
  00074	c6 45 fc 05	 mov	 BYTE PTR __$EHRec$[ebp+8], 5
  00078	e8 00 00 00 00	 call	 ??0?$CEncrypt@M@@QAE@XZ	; CEncrypt<float>::CEncrypt<float>
  0007d	8d 8e 00 03 00
	00		 lea	 ecx, DWORD PTR [esi+768]
  00083	c6 45 fc 06	 mov	 BYTE PTR __$EHRec$[ebp+8], 6
  00087	e8 00 00 00 00	 call	 ??0?$CEncrypt@M@@QAE@XZ	; CEncrypt<float>::CEncrypt<float>
  0008c	8d 8e 30 03 00
	00		 lea	 ecx, DWORD PTR [esi+816]
  00092	c6 45 fc 07	 mov	 BYTE PTR __$EHRec$[ebp+8], 7
  00096	e8 00 00 00 00	 call	 ??0?$CEncrypt@M@@QAE@XZ	; CEncrypt<float>::CEncrypt<float>
  0009b	8d 8e 60 03 00
	00		 lea	 ecx, DWORD PTR [esi+864]
  000a1	c6 45 fc 08	 mov	 BYTE PTR __$EHRec$[ebp+8], 8
  000a5	e8 00 00 00 00	 call	 ??0?$CEncrypt@M@@QAE@XZ	; CEncrypt<float>::CEncrypt<float>
  000aa	8d 8e 90 03 00
	00		 lea	 ecx, DWORD PTR [esi+912]
  000b0	c6 45 fc 09	 mov	 BYTE PTR __$EHRec$[ebp+8], 9
  000b4	e8 00 00 00 00	 call	 ??0?$CEncrypt@M@@QAE@XZ	; CEncrypt<float>::CEncrypt<float>
  000b9	8d 8e c0 03 00
	00		 lea	 ecx, DWORD PTR [esi+960]
  000bf	c6 45 fc 0a	 mov	 BYTE PTR __$EHRec$[ebp+8], 10 ; 0000000aH
  000c3	e8 00 00 00 00	 call	 ??0?$CEncrypt@M@@QAE@XZ	; CEncrypt<float>::CEncrypt<float>
  000c8	8d 8e f0 03 00
	00		 lea	 ecx, DWORD PTR [esi+1008]
  000ce	c6 45 fc 0b	 mov	 BYTE PTR __$EHRec$[ebp+8], 11 ; 0000000bH
  000d2	e8 00 00 00 00	 call	 ??0?$CEncrypt@M@@QAE@XZ	; CEncrypt<float>::CEncrypt<float>
  000d7	8d 8e 20 04 00
	00		 lea	 ecx, DWORD PTR [esi+1056]
  000dd	c6 45 fc 0c	 mov	 BYTE PTR __$EHRec$[ebp+8], 12 ; 0000000cH
  000e1	e8 00 00 00 00	 call	 ??0?$CEncrypt@M@@QAE@XZ	; CEncrypt<float>::CEncrypt<float>
  000e6	8d 8e 50 04 00
	00		 lea	 ecx, DWORD PTR [esi+1104]
  000ec	c6 45 fc 0d	 mov	 BYTE PTR __$EHRec$[ebp+8], 13 ; 0000000dH
  000f0	e8 00 00 00 00	 call	 ??0?$CEncrypt@M@@QAE@XZ	; CEncrypt<float>::CEncrypt<float>
  000f5	8d 8e 80 04 00
	00		 lea	 ecx, DWORD PTR [esi+1152]
  000fb	c6 45 fc 0e	 mov	 BYTE PTR __$EHRec$[ebp+8], 14 ; 0000000eH
  000ff	e8 00 00 00 00	 call	 ??0?$CEncrypt@M@@QAE@XZ	; CEncrypt<float>::CEncrypt<float>
  00104	8d 8e b0 04 00
	00		 lea	 ecx, DWORD PTR [esi+1200]
  0010a	c6 45 fc 0f	 mov	 BYTE PTR __$EHRec$[ebp+8], 15 ; 0000000fH
  0010e	e8 00 00 00 00	 call	 ??0?$CEncrypt@K@@QAE@XZ	; CEncrypt<unsigned long>::CEncrypt<unsigned long>
  00113	8d 8e e0 04 00
	00		 lea	 ecx, DWORD PTR [esi+1248]
  00119	c6 45 fc 10	 mov	 BYTE PTR __$EHRec$[ebp+8], 16 ; 00000010H
  0011d	e8 00 00 00 00	 call	 ??0?$CEncrypt@K@@QAE@XZ	; CEncrypt<unsigned long>::CEncrypt<unsigned long>
  00122	8b 3d 00 00 00
	00		 mov	 edi, DWORD PTR __imp_??0ioHashString@@QAE@XZ
  00128	8d 8e 10 05 00
	00		 lea	 ecx, DWORD PTR [esi+1296]
  0012e	c6 45 fc 11	 mov	 BYTE PTR __$EHRec$[ebp+8], 17 ; 00000011H
  00132	ff d7		 call	 edi
  00134	c6 45 fc 12	 mov	 BYTE PTR __$EHRec$[ebp+8], 18 ; 00000012H
  00138	8d 8e 20 05 00
	00		 lea	 ecx, DWORD PTR [esi+1312]
  0013e	ff d7		 call	 edi
  00140	8d 8e 30 05 00
	00		 lea	 ecx, DWORD PTR [esi+1328]
  00146	c6 45 fc 13	 mov	 BYTE PTR __$EHRec$[ebp+8], 19 ; 00000013H
  0014a	ff d7		 call	 edi
  0014c	8d 8e 40 05 00
	00		 lea	 ecx, DWORD PTR [esi+1344]
  00152	c6 45 fc 14	 mov	 BYTE PTR __$EHRec$[ebp+8], 20 ; 00000014H
  00156	ff d7		 call	 edi
  00158	8d 8e 50 05 00
	00		 lea	 ecx, DWORD PTR [esi+1360]
  0015e	c6 45 fc 15	 mov	 BYTE PTR __$EHRec$[ebp+8], 21 ; 00000015H
  00162	ff d7		 call	 edi
  00164	8d 8e 60 05 00
	00		 lea	 ecx, DWORD PTR [esi+1376]
  0016a	c6 45 fc 16	 mov	 BYTE PTR __$EHRec$[ebp+8], 22 ; 00000016H
  0016e	ff d7		 call	 edi

; 13   : 	m_iArrayIndex = 0;
; 14   : 	m_State = SS_DELAY;
; 15   : 	m_pGauge = NULL;
; 16   : 
; 17   : 	if( m_pGroup )

  00170	8b 4e 04	 mov	 ecx, DWORD PTR [esi+4]
  00173	c6 45 fc 17	 mov	 BYTE PTR __$EHRec$[ebp+8], 23 ; 00000017H
  00177	89 9e c8 01 00
	00		 mov	 DWORD PTR [esi+456], ebx
  0017d	89 9e cc 01 00
	00		 mov	 DWORD PTR [esi+460], ebx
  00183	89 9e d0 01 00
	00		 mov	 DWORD PTR [esi+464], ebx
  00189	3b cb		 cmp	 ecx, ebx
  0018b	74 08		 je	 SHORT $LN1@ioSymbolSt@2

; 18   : 	{
; 19   : 		m_pGroup->SetLightApplyMask( APPLY_SECOND_MAIN_LIGHT );

  0018d	6a 02		 push	 2
  0018f	ff 15 00 00 00
	00		 call	 DWORD PTR __imp_?SetLightApplyMask@ioEntityGroup@@QAEXK@Z
$LN1@ioSymbolSt@2:

; 20   : 	}
; 21   : 
; 22   : 	m_ArmorType = AT_UNARMOR;

  00195	89 9e d4 01 00
	00		 mov	 DWORD PTR [esi+468], ebx

; 23   : 
; 24   : 	m_fDefaultMaxHP = FLOAT1;

  0019b	b8 01 00 00 00	 mov	 eax, 1
  001a0	89 45 0c	 mov	 DWORD PTR tv425[ebp], eax
  001a3	db 45 0c	 fild	 DWORD PTR tv425[ebp]
  001a6	85 c0		 test	 eax, eax
  001a8	79 06		 jns	 SHORT $LN57@ioSymbolSt@2
  001aa	d8 05 00 00 00
	00		 fadd	 DWORD PTR __real@4f800000
$LN57@ioSymbolSt@2:
  001b0	8d 45 0c	 lea	 eax, DWORD PTR _value$535898[ebp]
  001b3	d9 5d 0c	 fstp	 DWORD PTR _value$535898[ebp]
  001b6	50		 push	 eax
  001b7	8d 8e d8 01 00
	00		 lea	 ecx, DWORD PTR [esi+472]
  001bd	e8 00 00 00 00	 call	 ?EncryptValueToPool@?$CEncrypt@M@@AAEXPBD@Z ; CEncrypt<float>::EncryptValueToPool

; 25   : 	m_OrgTeam = TEAM_NONE;

  001c2	89 9e f8 02 00
	00		 mov	 DWORD PTR [esi+760], ebx

; 26   : 
; 27   : 	m_fSymbolRange = FLOAT1;

  001c8	b8 01 00 00 00	 mov	 eax, 1
  001cd	89 45 0c	 mov	 DWORD PTR tv420[ebp], eax
  001d0	db 45 0c	 fild	 DWORD PTR tv420[ebp]
  001d3	85 c0		 test	 eax, eax
  001d5	79 06		 jns	 SHORT $LN58@ioSymbolSt@2
  001d7	d8 05 00 00 00
	00		 fadd	 DWORD PTR __real@4f800000
$LN58@ioSymbolSt@2:

; 28   : 	m_iRevivalCnt = 0;
; 29   : 	m_dwWoundedSetTime = 0;
; 30   : 	m_bShakeLeft = false;
; 31   : 
; 32   : 	m_fExtraHP = 0.0f;

  001dd	0f 57 c0	 xorps	 xmm0, xmm0
  001e0	d9 9e fc 02 00
	00		 fstp	 DWORD PTR [esi+764]
  001e6	8d 45 0c	 lea	 eax, DWORD PTR _value$535906[ebp]
  001e9	50		 push	 eax
  001ea	8d 8e 08 02 00
	00		 lea	 ecx, DWORD PTR [esi+520]
  001f0	89 9e 70 05 00
	00		 mov	 DWORD PTR [esi+1392], ebx
  001f6	89 9e 8c 05 00
	00		 mov	 DWORD PTR [esi+1420], ebx
  001fc	88 9e 90 05 00
	00		 mov	 BYTE PTR [esi+1424], bl
  00202	f3 0f 11 45 0c	 movss	 DWORD PTR _value$535906[ebp], xmm0
  00207	e8 00 00 00 00	 call	 ?EncryptValueToPool@?$CEncrypt@M@@AAEXPBD@Z ; CEncrypt<float>::EncryptValueToPool

; 33   : 	m_fExtraRate = FLOAT1;

  0020c	b8 01 00 00 00	 mov	 eax, 1
  00211	89 45 0c	 mov	 DWORD PTR tv414[ebp], eax
  00214	db 45 0c	 fild	 DWORD PTR tv414[ebp]
  00217	85 c0		 test	 eax, eax
  00219	79 06		 jns	 SHORT $LN59@ioSymbolSt@2
  0021b	d8 05 00 00 00
	00		 fadd	 DWORD PTR __real@4f800000
$LN59@ioSymbolSt@2:
  00221	8d 45 0c	 lea	 eax, DWORD PTR _value$535914[ebp]
  00224	d9 5d 0c	 fstp	 DWORD PTR _value$535914[ebp]
  00227	50		 push	 eax
  00228	8d 8e 38 02 00
	00		 lea	 ecx, DWORD PTR [esi+568]
  0022e	e8 00 00 00 00	 call	 ?EncryptValueToPool@?$CEncrypt@M@@AAEXPBD@Z ; CEncrypt<float>::EncryptValueToPool

; 34   : 
; 35   : 	m_fRevivalRate = 0.0f;

  00233	0f 57 c0	 xorps	 xmm0, xmm0
  00236	8d 45 0c	 lea	 eax, DWORD PTR _value$535918[ebp]
  00239	50		 push	 eax
  0023a	8d 8e 98 02 00
	00		 lea	 ecx, DWORD PTR [esi+664]
  00240	f3 0f 11 45 0c	 movss	 DWORD PTR _value$535918[ebp], xmm0
  00245	e8 00 00 00 00	 call	 ?EncryptValueToPool@?$CEncrypt@M@@AAEXPBD@Z ; CEncrypt<float>::EncryptValueToPool

; 36   : 	m_fRevivalHP = 0.0f;

  0024a	0f 57 c0	 xorps	 xmm0, xmm0
  0024d	8d 45 0c	 lea	 eax, DWORD PTR _value$535922[ebp]
  00250	50		 push	 eax
  00251	8d 8e c8 02 00
	00		 lea	 ecx, DWORD PTR [esi+712]
  00257	f3 0f 11 45 0c	 movss	 DWORD PTR _value$535922[ebp], xmm0
  0025c	e8 00 00 00 00	 call	 ?EncryptValueToPool@?$CEncrypt@M@@AAEXPBD@Z ; CEncrypt<float>::EncryptValueToPool

; 37   : 
; 38   : 	m_fCurMaxHP = 0.0f;

  00261	0f 57 c0	 xorps	 xmm0, xmm0
  00264	8d 45 0c	 lea	 eax, DWORD PTR _value$535926[ebp]
  00267	50		 push	 eax
  00268	8d 8e 90 03 00
	00		 lea	 ecx, DWORD PTR [esi+912]
  0026e	f3 0f 11 45 0c	 movss	 DWORD PTR _value$535926[ebp], xmm0
  00273	e8 00 00 00 00	 call	 ?EncryptValueToPool@?$CEncrypt@M@@AAEXPBD@Z ; CEncrypt<float>::EncryptValueToPool

; 39   : 	m_fDecreaseCurRate = 0.0f;

  00278	0f 57 c0	 xorps	 xmm0, xmm0
  0027b	8d 45 0c	 lea	 eax, DWORD PTR _value$535930[ebp]
  0027e	50		 push	 eax
  0027f	8d 8e f0 03 00
	00		 lea	 ecx, DWORD PTR [esi+1008]
  00285	f3 0f 11 45 0c	 movss	 DWORD PTR _value$535930[ebp], xmm0
  0028a	e8 00 00 00 00	 call	 ?EncryptValueToPool@?$CEncrypt@M@@AAEXPBD@Z ; CEncrypt<float>::EncryptValueToPool

; 40   : 	m_dwDecreaseCheckTime = 0;

  0028f	8d 45 0c	 lea	 eax, DWORD PTR _value$535934[ebp]
  00292	50		 push	 eax
  00293	8d 8e e0 04 00
	00		 lea	 ecx, DWORD PTR [esi+1248]
  00299	89 5d 0c	 mov	 DWORD PTR _value$535934[ebp], ebx
  0029c	e8 00 00 00 00	 call	 ?EncryptValueToPool@?$CEncrypt@K@@AAEXPBD@Z ; CEncrypt<unsigned long>::EncryptValueToPool

; 41   : 
; 42   : 	m_fRecoveryRate = 0.0f;

  002a1	0f 57 c0	 xorps	 xmm0, xmm0
  002a4	8d 45 0c	 lea	 eax, DWORD PTR _value$535938[ebp]
  002a7	50		 push	 eax
  002a8	8d 8e 80 04 00
	00		 lea	 ecx, DWORD PTR [esi+1152]
  002ae	f3 0f 11 45 0c	 movss	 DWORD PTR _value$535938[ebp], xmm0
  002b3	e8 00 00 00 00	 call	 ?EncryptValueToPool@?$CEncrypt@M@@AAEXPBD@Z ; CEncrypt<float>::EncryptValueToPool

; 43   : 
; 44   : 	m_bDie = false;

  002b8	88 9e 99 05 00
	00		 mov	 BYTE PTR [esi+1433], bl

; 45   : 
; 46   : 	m_dwSymbolChangeTime = 0;

  002be	89 9e 9c 05 00
	00		 mov	 DWORD PTR [esi+1436], ebx

; 47   : }

  002c4	8b c6		 mov	 eax, esi
  002c6	e8 00 00 00 00	 call	 __EH_epilog3
  002cb	c2 08 00	 ret	 8
_TEXT	ENDS
;	COMDAT text$x
text$x	SEGMENT
__unwindfunclet$??0ioSymbolStruct@@QAE@PAVioEntityGroup@@PAVioPlayMode@@@Z$0:
  00000	8b 4d f0	 mov	 ecx, DWORD PTR _this$[ebp]
  00003	e9 00 00 00 00	 jmp	 ??1ioPlayEntity@@UAE@XZ	; ioPlayEntity::~ioPlayEntity
__unwindfunclet$??0ioSymbolStruct@@QAE@PAVioEntityGroup@@PAVioPlayMode@@@Z$1:
  00008	8b 4d f0	 mov	 ecx, DWORD PTR _this$[ebp]
  0000b	81 c1 d8 01 00
	00		 add	 ecx, 472		; 000001d8H
  00011	e9 00 00 00 00	 jmp	 ??1?$CEncrypt@M@@UAE@XZ	; CEncrypt<float>::~CEncrypt<float>
__unwindfunclet$??0ioSymbolStruct@@QAE@PAVioEntityGroup@@PAVioPlayMode@@@Z$2:
  00016	8b 4d f0	 mov	 ecx, DWORD PTR _this$[ebp]
  00019	81 c1 08 02 00
	00		 add	 ecx, 520		; 00000208H
  0001f	e9 00 00 00 00	 jmp	 ??1?$CEncrypt@M@@UAE@XZ	; CEncrypt<float>::~CEncrypt<float>
__unwindfunclet$??0ioSymbolStruct@@QAE@PAVioEntityGroup@@PAVioPlayMode@@@Z$3:
  00024	8b 4d f0	 mov	 ecx, DWORD PTR _this$[ebp]
  00027	81 c1 38 02 00
	00		 add	 ecx, 568		; 00000238H
  0002d	e9 00 00 00 00	 jmp	 ??1?$CEncrypt@M@@UAE@XZ	; CEncrypt<float>::~CEncrypt<float>
__unwindfunclet$??0ioSymbolStruct@@QAE@PAVioEntityGroup@@PAVioPlayMode@@@Z$4:
  00032	8b 4d f0	 mov	 ecx, DWORD PTR _this$[ebp]
  00035	81 c1 68 02 00
	00		 add	 ecx, 616		; 00000268H
  0003b	e9 00 00 00 00	 jmp	 ??1?$CEncrypt@M@@UAE@XZ	; CEncrypt<float>::~CEncrypt<float>
__unwindfunclet$??0ioSymbolStruct@@QAE@PAVioEntityGroup@@PAVioPlayMode@@@Z$5:
  00040	8b 4d f0	 mov	 ecx, DWORD PTR _this$[ebp]
  00043	81 c1 98 02 00
	00		 add	 ecx, 664		; 00000298H
  00049	e9 00 00 00 00	 jmp	 ??1?$CEncrypt@M@@UAE@XZ	; CEncrypt<float>::~CEncrypt<float>
__unwindfunclet$??0ioSymbolStruct@@QAE@PAVioEntityGroup@@PAVioPlayMode@@@Z$6:
  0004e	8b 4d f0	 mov	 ecx, DWORD PTR _this$[ebp]
  00051	81 c1 c8 02 00
	00		 add	 ecx, 712		; 000002c8H
  00057	e9 00 00 00 00	 jmp	 ??1?$CEncrypt@M@@UAE@XZ	; CEncrypt<float>::~CEncrypt<float>
__unwindfunclet$??0ioSymbolStruct@@QAE@PAVioEntityGroup@@PAVioPlayMode@@@Z$7:
  0005c	8b 4d f0	 mov	 ecx, DWORD PTR _this$[ebp]
  0005f	81 c1 00 03 00
	00		 add	 ecx, 768		; 00000300H
  00065	e9 00 00 00 00	 jmp	 ??1?$CEncrypt@M@@UAE@XZ	; CEncrypt<float>::~CEncrypt<float>
__unwindfunclet$??0ioSymbolStruct@@QAE@PAVioEntityGroup@@PAVioPlayMode@@@Z$8:
  0006a	8b 4d f0	 mov	 ecx, DWORD PTR _this$[ebp]
  0006d	81 c1 30 03 00
	00		 add	 ecx, 816		; 00000330H
  00073	e9 00 00 00 00	 jmp	 ??1?$CEncrypt@M@@UAE@XZ	; CEncrypt<float>::~CEncrypt<float>
__unwindfunclet$??0ioSymbolStruct@@QAE@PAVioEntityGroup@@PAVioPlayMode@@@Z$9:
  00078	8b 4d f0	 mov	 ecx, DWORD PTR _this$[ebp]
  0007b	81 c1 60 03 00
	00		 add	 ecx, 864		; 00000360H
  00081	e9 00 00 00 00	 jmp	 ??1?$CEncrypt@M@@UAE@XZ	; CEncrypt<float>::~CEncrypt<float>
__unwindfunclet$??0ioSymbolStruct@@QAE@PAVioEntityGroup@@PAVioPlayMode@@@Z$10:
  00086	8b 4d f0	 mov	 ecx, DWORD PTR _this$[ebp]
  00089	81 c1 90 03 00
	00		 add	 ecx, 912		; 00000390H
  0008f	e9 00 00 00 00	 jmp	 ??1?$CEncrypt@M@@UAE@XZ	; CEncrypt<float>::~CEncrypt<float>
__unwindfunclet$??0ioSymbolStruct@@QAE@PAVioEntityGroup@@PAVioPlayMode@@@Z$11:
  00094	8b 4d f0	 mov	 ecx, DWORD PTR _this$[ebp]
  00097	81 c1 c0 03 00
	00		 add	 ecx, 960		; 000003c0H
  0009d	e9 00 00 00 00	 jmp	 ??1?$CEncrypt@M@@UAE@XZ	; CEncrypt<float>::~CEncrypt<float>
__unwindfunclet$??0ioSymbolStruct@@QAE@PAVioEntityGroup@@PAVioPlayMode@@@Z$12:
  000a2	8b 4d f0	 mov	 ecx, DWORD PTR _this$[ebp]
  000a5	81 c1 f0 03 00
	00		 add	 ecx, 1008		; 000003f0H
  000ab	e9 00 00 00 00	 jmp	 ??1?$CEncrypt@M@@UAE@XZ	; CEncrypt<float>::~CEncrypt<float>
__unwindfunclet$??0ioSymbolStruct@@QAE@PAVioEntityGroup@@PAVioPlayMode@@@Z$13:
  000b0	8b 4d f0	 mov	 ecx, DWORD PTR _this$[ebp]
  000b3	81 c1 20 04 00
	00		 add	 ecx, 1056		; 00000420H
  000b9	e9 00 00 00 00	 jmp	 ??1?$CEncrypt@M@@UAE@XZ	; CEncrypt<float>::~CEncrypt<float>
__unwindfunclet$??0ioSymbolStruct@@QAE@PAVioEntityGroup@@PAVioPlayMode@@@Z$14:
  000be	8b 4d f0	 mov	 ecx, DWORD PTR _this$[ebp]
  000c1	81 c1 50 04 00
	00		 add	 ecx, 1104		; 00000450H
  000c7	e9 00 00 00 00	 jmp	 ??1?$CEncrypt@M@@UAE@XZ	; CEncrypt<float>::~CEncrypt<float>
__unwindfunclet$??0ioSymbolStruct@@QAE@PAVioEntityGroup@@PAVioPlayMode@@@Z$15:
  000cc	8b 4d f0	 mov	 ecx, DWORD PTR _this$[ebp]
  000cf	81 c1 80 04 00
	00		 add	 ecx, 1152		; 00000480H
  000d5	e9 00 00 00 00	 jmp	 ??1?$CEncrypt@M@@UAE@XZ	; CEncrypt<float>::~CEncrypt<float>
__unwindfunclet$??0ioSymbolStruct@@QAE@PAVioEntityGroup@@PAVioPlayMode@@@Z$16:
  000da	8b 4d f0	 mov	 ecx, DWORD PTR _this$[ebp]
  000dd	81 c1 b0 04 00
	00		 add	 ecx, 1200		; 000004b0H
  000e3	e9 00 00 00 00	 jmp	 ??1?$CEncrypt@K@@UAE@XZ	; CEncrypt<unsigned long>::~CEncrypt<unsigned long>
__unwindfunclet$??0ioSymbolStruct@@QAE@PAVioEntityGroup@@PAVioPlayMode@@@Z$17:
  000e8	8b 4d f0	 mov	 ecx, DWORD PTR _this$[ebp]
  000eb	81 c1 e0 04 00
	00		 add	 ecx, 1248		; 000004e0H
  000f1	e9 00 00 00 00	 jmp	 ??1?$CEncrypt@K@@UAE@XZ	; CEncrypt<unsigned long>::~CEncrypt<unsigned long>
__unwindfunclet$??0ioSymbolStruct@@QAE@PAVioEntityGroup@@PAVioPlayMode@@@Z$18:
  000f6	8b 4d f0	 mov	 ecx, DWORD PTR _this$[ebp]
  000f9	81 c1 10 05 00
	00		 add	 ecx, 1296		; 00000510H
  000ff	ff 25 00 00 00
	00		 jmp	 DWORD PTR __imp_??1ioHashString@@QAE@XZ
__unwindfunclet$??0ioSymbolStruct@@QAE@PAVioEntityGroup@@PAVioPlayMode@@@Z$19:
  00105	8b 4d f0	 mov	 ecx, DWORD PTR _this$[ebp]
  00108	81 c1 20 05 00
	00		 add	 ecx, 1312		; 00000520H
  0010e	ff 25 00 00 00
	00		 jmp	 DWORD PTR __imp_??1ioHashString@@QAE@XZ
__unwindfunclet$??0ioSymbolStruct@@QAE@PAVioEntityGroup@@PAVioPlayMode@@@Z$20:
  00114	8b 4d f0	 mov	 ecx, DWORD PTR _this$[ebp]
  00117	81 c1 30 05 00
	00		 add	 ecx, 1328		; 00000530H
  0011d	ff 25 00 00 00
	00		 jmp	 DWORD PTR __imp_??1ioHashString@@QAE@XZ
__unwindfunclet$??0ioSymbolStruct@@QAE@PAVioEntityGroup@@PAVioPlayMode@@@Z$21:
  00123	8b 4d f0	 mov	 ecx, DWORD PTR _this$[ebp]
  00126	81 c1 40 05 00
	00		 add	 ecx, 1344		; 00000540H
  0012c	ff 25 00 00 00
	00		 jmp	 DWORD PTR __imp_??1ioHashString@@QAE@XZ
__unwindfunclet$??0ioSymbolStruct@@QAE@PAVioEntityGroup@@PAVioPlayMode@@@Z$22:
  00132	8b 4d f0	 mov	 ecx, DWORD PTR _this$[ebp]
  00135	81 c1 50 05 00
	00		 add	 ecx, 1360		; 00000550H
  0013b	ff 25 00 00 00
	00		 jmp	 DWORD PTR __imp_??1ioHashString@@QAE@XZ
__unwindfunclet$??0ioSymbolStruct@@QAE@PAVioEntityGroup@@PAVioPlayMode@@@Z$23:
  00141	8b 4d f0	 mov	 ecx, DWORD PTR _this$[ebp]
  00144	81 c1 60 05 00
	00		 add	 ecx, 1376		; 00000560H
  0014a	ff 25 00 00 00
	00		 jmp	 DWORD PTR __imp_??1ioHashString@@QAE@XZ
__ehhandler$??0ioSymbolStruct@@QAE@PAVioEntityGroup@@PAVioPlayMode@@@Z:
  00150	8b 54 24 08	 mov	 edx, DWORD PTR [esp+8]
  00154	8d 42 0c	 lea	 eax, DWORD PTR [edx+12]
  00157	8b 4a ec	 mov	 ecx, DWORD PTR [edx-20]
  0015a	33 c8		 xor	 ecx, eax
  0015c	e8 00 00 00 00	 call	 @__security_check_cookie@4
  00161	b8 00 00 00 00	 mov	 eax, OFFSET __ehfuncinfo$??0ioSymbolStruct@@QAE@PAVioEntityGroup@@PAVioPlayMode@@@Z
  00166	e9 00 00 00 00	 jmp	 ___CxxFrameHandler3
text$x	ENDS
??0ioSymbolStruct@@QAE@PAVioEntityGroup@@PAVioPlayMode@@@Z ENDP ; ioSymbolStruct::ioSymbolStruct
; Function compile flags: /Ogsp
;	COMDAT ??_GioSymbolStruct@@UAEPAXI@Z
_TEXT	SEGMENT
___flags$ = 8						; size = 4
??_GioSymbolStruct@@UAEPAXI@Z PROC			; ioSymbolStruct::`scalar deleting destructor', COMDAT
; _this$ = ecx
  00000	55		 push	 ebp
  00001	8b ec		 mov	 ebp, esp
  00003	56		 push	 esi
  00004	8b f1		 mov	 esi, ecx
  00006	e8 00 00 00 00	 call	 ??1ioSymbolStruct@@UAE@XZ ; ioSymbolStruct::~ioSymbolStruct
  0000b	f6 45 08 01	 test	 BYTE PTR ___flags$[ebp], 1
  0000f	74 07		 je	 SHORT $LN1@scalar@4
  00011	56		 push	 esi
  00012	e8 00 00 00 00	 call	 ??3@YAXPAX@Z		; operator delete
  00017	59		 pop	 ecx
$LN1@scalar@4:
  00018	8b c6		 mov	 eax, esi
  0001a	5e		 pop	 esi
  0001b	5d		 pop	 ebp
  0001c	c2 04 00	 ret	 4
??_GioSymbolStruct@@UAEPAXI@Z ENDP			; ioSymbolStruct::`scalar deleting destructor'
_TEXT	ENDS
PUBLIC	?ResetTeam@ioSymbolStruct@@QAEXXZ		; ioSymbolStruct::ResetTeam
; Function compile flags: /Ogsp
;	COMDAT ?ResetTeam@ioSymbolStruct@@QAEXXZ
_TEXT	SEGMENT
_value$535955 = -4					; size = 4
?ResetTeam@ioSymbolStruct@@QAEXXZ PROC			; ioSymbolStruct::ResetTeam, COMDAT
; _this$ = ecx

; 421  : {

  00000	55		 push	 ebp
  00001	8b ec		 mov	 ebp, esp
  00003	51		 push	 ecx
  00004	56		 push	 esi
  00005	8b f1		 mov	 esi, ecx

; 422  : 	SetTeam( m_TeamType );

  00007	8d 45 fc	 lea	 eax, DWORD PTR _value$535955[ebp]
  0000a	50		 push	 eax
  0000b	8d 8e 90 00 00
	00		 lea	 ecx, DWORD PTR [esi+144]
  00011	e8 00 00 00 00	 call	 ?DecryptValueToPool@?$CEncrypt@W4TeamType@@@@QAEXPAW4TeamType@@@Z ; CEncrypt<enum TeamType>::DecryptValueToPool
  00016	ff 75 fc	 push	 DWORD PTR _value$535955[ebp]
  00019	8b 06		 mov	 eax, DWORD PTR [esi]
  0001b	8b ce		 mov	 ecx, esi
  0001d	ff 90 dc 00 00
	00		 call	 DWORD PTR [eax+220]
  00023	5e		 pop	 esi

; 423  : }

  00024	c9		 leave
  00025	c3		 ret	 0
?ResetTeam@ioSymbolStruct@@QAEXXZ ENDP			; ioSymbolStruct::ResetTeam
_TEXT	ENDS
PUBLIC	__$ArrayPad$
EXTRN	?UpdateGauge@ioGaugeHelper@@QAEXMM_N@Z:PROC	; ioGaugeHelper::UpdateGauge
; Function compile flags: /Ogsp
;	COMDAT ?UpdateGauge@ioSymbolStruct@@UAEXXZ
_TEXT	SEGMENT
_value$535970 = -24					; size = 4
tv213 = -20						; size = 4
tv206 = -20						; size = 4
_value$535975 = -20					; size = 4
_vPos$ = -16						; size = 12
__$ArrayPad$ = -4					; size = 4
?UpdateGauge@ioSymbolStruct@@UAEXXZ PROC		; ioSymbolStruct::UpdateGauge, COMDAT
; _this$ = ecx

; 426  : {

  00000	55		 push	 ebp
  00001	8b ec		 mov	 ebp, esp
  00003	83 ec 18	 sub	 esp, 24			; 00000018H
  00006	a1 00 00 00 00	 mov	 eax, DWORD PTR ___security_cookie
  0000b	33 c5		 xor	 eax, ebp
  0000d	89 45 fc	 mov	 DWORD PTR __$ArrayPad$[ebp], eax
  00010	56		 push	 esi
  00011	8b f1		 mov	 esi, ecx

; 427  : 	m_bGaugeVisible = false;
; 428  : 
; 429  : 	if( !m_bActivity )	return;

  00013	80 be 98 05 00
	00 00		 cmp	 BYTE PTR [esi+1432], 0
  0001a	c6 86 c4 01 00
	00 00		 mov	 BYTE PTR [esi+452], 0
  00021	0f 84 ad 00 00
	00		 je	 $LN1@UpdateGaug

; 430  : 
; 431  : 	D3DXVECTOR3 vPos = GetMidPositionByRate( FLOAT1 );

  00027	b8 01 00 00 00	 mov	 eax, 1
  0002c	89 45 ec	 mov	 DWORD PTR tv213[ebp], eax
  0002f	db 45 ec	 fild	 DWORD PTR tv213[ebp]
  00032	85 c0		 test	 eax, eax
  00034	79 06		 jns	 SHORT $LN14@UpdateGaug
  00036	d8 05 00 00 00
	00		 fadd	 DWORD PTR __real@4f800000
$LN14@UpdateGaug:
  0003c	51		 push	 ecx
  0003d	8d 45 f0	 lea	 eax, DWORD PTR _vPos$[ebp]
  00040	d9 1c 24	 fstp	 DWORD PTR [esp]
  00043	50		 push	 eax
  00044	e8 00 00 00 00	 call	 ?GetMidPositionByRate@ioGameEntity@@QBE?AUD3DXVECTOR3@@M@Z ; ioGameEntity::GetMidPositionByRate

; 432  : 	vPos.y += FLOAT40;

  00049	b8 28 00 00 00	 mov	 eax, 40			; 00000028H
  0004e	89 45 ec	 mov	 DWORD PTR tv206[ebp], eax
  00051	db 45 ec	 fild	 DWORD PTR tv206[ebp]
  00054	85 c0		 test	 eax, eax
  00056	79 06		 jns	 SHORT $LN15@UpdateGaug
  00058	d8 05 00 00 00
	00		 fadd	 DWORD PTR __real@4f800000
$LN15@UpdateGaug:
  0005e	d8 45 f4	 fadd	 DWORD PTR _vPos$[ebp+4]

; 433  : 
; 434  : 	if( Setting::Check2DInScreen( vPos, m_iGaugeXPos, m_iGaugeYPos ) )

  00061	8d 86 c0 01 00
	00		 lea	 eax, DWORD PTR [esi+448]
  00067	50		 push	 eax
  00068	8d 86 bc 01 00
	00		 lea	 eax, DWORD PTR [esi+444]
  0006e	50		 push	 eax
  0006f	d9 5d f4	 fstp	 DWORD PTR _vPos$[ebp+4]
  00072	8d 45 f0	 lea	 eax, DWORD PTR _vPos$[ebp]
  00075	50		 push	 eax
  00076	e8 00 00 00 00	 call	 ?Check2DInScreen@Setting@@SA_NABUD3DXVECTOR3@@AAH1@Z ; Setting::Check2DInScreen
  0007b	83 c4 0c	 add	 esp, 12			; 0000000cH
  0007e	84 c0		 test	 al, al
  00080	74 52		 je	 SHORT $LN1@UpdateGaug

; 435  : 	{
; 436  : 		m_bGaugeVisible = true;
; 437  : 
; 438  : 		if( m_pGauge )

  00082	83 be d0 01 00
	00 00		 cmp	 DWORD PTR [esi+464], 0
  00089	c6 86 c4 01 00
	00 01		 mov	 BYTE PTR [esi+452], 1
  00090	74 42		 je	 SHORT $LN1@UpdateGaug

; 439  : 		{
; 440  : 			m_pGauge->UpdateGauge( m_HP.m_fCurValue, m_HP.m_fMaxValue );

  00092	8d 45 e8	 lea	 eax, DWORD PTR _value$535970[ebp]
  00095	50		 push	 eax
  00096	8d 8e f0 00 00
	00		 lea	 ecx, DWORD PTR [esi+240]
  0009c	e8 00 00 00 00	 call	 ?DecryptValueToPool@?$CEncrypt@M@@QAEXPAM@Z ; CEncrypt<float>::DecryptValueToPool
  000a1	8d 45 ec	 lea	 eax, DWORD PTR _value$535975[ebp]
  000a4	50		 push	 eax
  000a5	8d 8e c0 00 00
	00		 lea	 ecx, DWORD PTR [esi+192]
  000ab	e8 00 00 00 00	 call	 ?DecryptValueToPool@?$CEncrypt@M@@QAEXPAM@Z ; CEncrypt<float>::DecryptValueToPool
  000b0	f3 0f 10 45 e8	 movss	 xmm0, DWORD PTR _value$535970[ebp]
  000b5	6a 00		 push	 0
  000b7	51		 push	 ecx
  000b8	51		 push	 ecx
  000b9	8b 8e d0 01 00
	00		 mov	 ecx, DWORD PTR [esi+464]
  000bf	f3 0f 11 44 24
	04		 movss	 DWORD PTR [esp+4], xmm0
  000c5	f3 0f 10 45 ec	 movss	 xmm0, DWORD PTR _value$535975[ebp]
  000ca	f3 0f 11 04 24	 movss	 DWORD PTR [esp], xmm0
  000cf	e8 00 00 00 00	 call	 ?UpdateGauge@ioGaugeHelper@@QAEXMM_N@Z ; ioGaugeHelper::UpdateGauge
$LN1@UpdateGaug:

; 441  : 		}
; 442  : 	}
; 443  : }

  000d4	8b 4d fc	 mov	 ecx, DWORD PTR __$ArrayPad$[ebp]
  000d7	33 cd		 xor	 ecx, ebp
  000d9	5e		 pop	 esi
  000da	e8 00 00 00 00	 call	 @__security_check_cookie@4
  000df	c9		 leave
  000e0	c3		 ret	 0
?UpdateGauge@ioSymbolStruct@@UAEXXZ ENDP		; ioSymbolStruct::UpdateGauge
_TEXT	ENDS
PUBLIC	?ReduceMaxHP@ioSymbolStruct@@QAEXM@Z		; ioSymbolStruct::ReduceMaxHP
; Function compile flags: /Ogsp
;	COMDAT ?ReduceMaxHP@ioSymbolStruct@@QAEXM@Z
_TEXT	SEGMENT
_value$535989 = -4					; size = 4
_value$535984 = -4					; size = 4
_fRate$ = 8						; size = 4
?ReduceMaxHP@ioSymbolStruct@@QAEXM@Z PROC		; ioSymbolStruct::ReduceMaxHP, COMDAT
; _this$ = ecx

; 525  : {

  00000	55		 push	 ebp
  00001	8b ec		 mov	 ebp, esp
  00003	51		 push	 ecx
  00004	56		 push	 esi
  00005	57		 push	 edi
  00006	8b f1		 mov	 esi, ecx

; 526  : 	m_HP.m_fCurValue *= fRate;

  00008	8d 45 fc	 lea	 eax, DWORD PTR _value$535984[ebp]
  0000b	50		 push	 eax
  0000c	8d 8e c0 00 00
	00		 lea	 ecx, DWORD PTR [esi+192]
  00012	e8 00 00 00 00	 call	 ?DecryptValueToPool@?$CEncrypt@M@@QAEXPAM@Z ; CEncrypt<float>::DecryptValueToPool
  00017	f3 0f 10 45 fc	 movss	 xmm0, DWORD PTR _value$535984[ebp]
  0001c	f3 0f 10 4d 08	 movss	 xmm1, DWORD PTR _fRate$[ebp]
  00021	0f 5a c0	 cvtps2pd xmm0, xmm0
  00024	0f 5a c9	 cvtps2pd xmm1, xmm1
  00027	8d 45 fc	 lea	 eax, DWORD PTR _value$535984[ebp]
  0002a	f2 0f 59 c1	 mulsd	 xmm0, xmm1
  0002e	66 0f 5a c0	 cvtpd2ps xmm0, xmm0
  00032	50		 push	 eax
  00033	8d 8e c0 00 00
	00		 lea	 ecx, DWORD PTR [esi+192]
  00039	f3 0f 11 45 fc	 movss	 DWORD PTR _value$535984[ebp], xmm0
  0003e	e8 00 00 00 00	 call	 ?EncryptValueToPool@?$CEncrypt@M@@AAEXPBD@Z ; CEncrypt<float>::EncryptValueToPool

; 527  : 	m_HP.m_fMaxValue *= fRate;

  00043	8d 45 fc	 lea	 eax, DWORD PTR _value$535989[ebp]
  00046	50		 push	 eax
  00047	8d 8e f0 00 00
	00		 lea	 ecx, DWORD PTR [esi+240]
  0004d	e8 00 00 00 00	 call	 ?DecryptValueToPool@?$CEncrypt@M@@QAEXPAM@Z ; CEncrypt<float>::DecryptValueToPool
  00052	f3 0f 10 45 fc	 movss	 xmm0, DWORD PTR _value$535989[ebp]
  00057	f3 0f 10 4d 08	 movss	 xmm1, DWORD PTR _fRate$[ebp]
  0005c	0f 5a c0	 cvtps2pd xmm0, xmm0
  0005f	0f 5a c9	 cvtps2pd xmm1, xmm1
  00062	8d 45 fc	 lea	 eax, DWORD PTR _value$535989[ebp]
  00065	f2 0f 59 c1	 mulsd	 xmm0, xmm1
  00069	66 0f 5a c0	 cvtpd2ps xmm0, xmm0
  0006d	50		 push	 eax
  0006e	8d 8e f0 00 00
	00		 lea	 ecx, DWORD PTR [esi+240]
  00074	f3 0f 11 45 fc	 movss	 DWORD PTR _value$535989[ebp], xmm0
  00079	e8 00 00 00 00	 call	 ?EncryptValueToPool@?$CEncrypt@M@@AAEXPBD@Z ; CEncrypt<float>::EncryptValueToPool
  0007e	5f		 pop	 edi
  0007f	5e		 pop	 esi

; 528  : }

  00080	c9		 leave
  00081	c2 04 00	 ret	 4
?ReduceMaxHP@ioSymbolStruct@@QAEXM@Z ENDP		; ioSymbolStruct::ReduceMaxHP
_TEXT	ENDS
PUBLIC	?GetCurHPRate@ioSymbolStruct@@QAEMXZ		; ioSymbolStruct::GetCurHPRate
; Function compile flags: /Ogsp
;	COMDAT ?GetCurHPRate@ioSymbolStruct@@QAEMXZ
_TEXT	SEGMENT
tv161 = -8						; size = 4
tv69 = -8						; size = 4
_value$536002 = -8					; size = 4
_value$536006 = -4					; size = 4
$T535993 = -4						; size = 4
?GetCurHPRate@ioSymbolStruct@@QAEMXZ PROC		; ioSymbolStruct::GetCurHPRate, COMDAT
; _this$ = ecx

; 827  : {

  00000	55		 push	 ebp
  00001	8b ec		 mov	 ebp, esp
  00003	51		 push	 ecx
  00004	51		 push	 ecx

; 828  : 	if( m_HP.m_fMaxValue == 0.0f )

  00005	0f 57 c0	 xorps	 xmm0, xmm0
  00008	56		 push	 esi
  00009	57		 push	 edi
  0000a	8b f1		 mov	 esi, ecx
  0000c	8d 45 fc	 lea	 eax, DWORD PTR $T535993[ebp]
  0000f	50		 push	 eax
  00010	8d 8e f0 00 00
	00		 lea	 ecx, DWORD PTR [esi+240]
  00016	f3 0f 11 45 fc	 movss	 DWORD PTR $T535993[ebp], xmm0
  0001b	e8 00 00 00 00	 call	 ??8?$CEncrypt@M@@QAE_NABM@Z ; CEncrypt<float>::operator==
  00020	84 c0		 test	 al, al
  00022	74 17		 je	 SHORT $LN1@GetCurHPRa

; 829  : 		return FLOAT1;

  00024	b8 01 00 00 00	 mov	 eax, 1
  00029	89 45 f8	 mov	 DWORD PTR tv161[ebp], eax
  0002c	db 45 f8	 fild	 DWORD PTR tv161[ebp]
  0002f	85 c0		 test	 eax, eax
  00031	79 32		 jns	 SHORT $LN2@GetCurHPRa
  00033	d8 05 00 00 00
	00		 fadd	 DWORD PTR __real@4f800000
  00039	eb 2a		 jmp	 SHORT $LN2@GetCurHPRa
$LN1@GetCurHPRa:

; 830  : 
; 831  : 	return m_HP.m_fCurValue / m_HP.m_fMaxValue;

  0003b	8d 45 f8	 lea	 eax, DWORD PTR _value$536002[ebp]
  0003e	50		 push	 eax
  0003f	8d 8e f0 00 00
	00		 lea	 ecx, DWORD PTR [esi+240]
  00045	e8 00 00 00 00	 call	 ?DecryptValueToPool@?$CEncrypt@M@@QAEXPAM@Z ; CEncrypt<float>::DecryptValueToPool
  0004a	8d 45 fc	 lea	 eax, DWORD PTR _value$536006[ebp]
  0004d	50		 push	 eax
  0004e	8d 8e c0 00 00
	00		 lea	 ecx, DWORD PTR [esi+192]
  00054	e8 00 00 00 00	 call	 ?DecryptValueToPool@?$CEncrypt@M@@QAEXPAM@Z ; CEncrypt<float>::DecryptValueToPool
  00059	d9 45 fc	 fld	 DWORD PTR _value$536006[ebp]
  0005c	d8 75 f8	 fdiv	 DWORD PTR _value$536002[ebp]
  0005f	d9 5d f8	 fstp	 DWORD PTR tv69[ebp]
  00062	d9 45 f8	 fld	 DWORD PTR tv69[ebp]
$LN2@GetCurHPRa:
  00065	5f		 pop	 edi
  00066	5e		 pop	 esi

; 832  : }

  00067	c9		 leave
  00068	c3		 ret	 0
?GetCurHPRate@ioSymbolStruct@@QAEMXZ ENDP		; ioSymbolStruct::GetCurHPRate
_TEXT	ENDS
EXTRN	?ProcessRecovery@ioPlayEntity@@MAEXXZ:PROC	; ioPlayEntity::ProcessRecovery
; Function compile flags: /Ogsp
;	COMDAT ?ProcessRecovery@ioSymbolStruct@@MAEXXZ
_TEXT	SEGMENT
_value$536026 = -8					; size = 4
_value$536018 = -8					; size = 4
_value$536022 = -4					; size = 4
?ProcessRecovery@ioSymbolStruct@@MAEXXZ PROC		; ioSymbolStruct::ProcessRecovery, COMDAT
; _this$ = ecx

; 835  : {

  00000	55		 push	 ebp
  00001	8b ec		 mov	 ebp, esp
  00003	51		 push	 ecx
  00004	51		 push	 ecx
  00005	56		 push	 esi
  00006	8b f1		 mov	 esi, ecx

; 836  : 	if( !m_pModeParent ) return;

  00008	8b 86 8c 00 00
	00		 mov	 eax, DWORD PTR [esi+140]
  0000e	85 c0		 test	 eax, eax
  00010	74 57		 je	 SHORT $LN3@ProcessRec

; 837  : 	if( m_pModeParent->GetModeState() != ioPlayMode::MS_PLAY ) return;

  00012	83 78 38 01	 cmp	 DWORD PTR [eax+56], 1
  00016	75 51		 jne	 SHORT $LN3@ProcessRec

; 838  : 
; 839  : 	m_HP.m_fRecovery = m_fRecovery + m_fRecoveryRate;

  00018	8d 45 f8	 lea	 eax, DWORD PTR _value$536018[ebp]
  0001b	50		 push	 eax
  0001c	8d 8e 80 04 00
	00		 lea	 ecx, DWORD PTR [esi+1152]
  00022	e8 00 00 00 00	 call	 ?DecryptValueToPool@?$CEncrypt@M@@QAEXPAM@Z ; CEncrypt<float>::DecryptValueToPool
  00027	8d 45 fc	 lea	 eax, DWORD PTR _value$536022[ebp]
  0002a	50		 push	 eax
  0002b	8d 8e 50 04 00
	00		 lea	 ecx, DWORD PTR [esi+1104]
  00031	e8 00 00 00 00	 call	 ?DecryptValueToPool@?$CEncrypt@M@@QAEXPAM@Z ; CEncrypt<float>::DecryptValueToPool
  00036	f3 0f 10 4d f8	 movss	 xmm1, DWORD PTR _value$536018[ebp]
  0003b	f3 0f 10 45 fc	 movss	 xmm0, DWORD PTR _value$536022[ebp]
  00040	0f 5a c0	 cvtps2pd xmm0, xmm0
  00043	0f 5a c9	 cvtps2pd xmm1, xmm1
  00046	8d 45 f8	 lea	 eax, DWORD PTR _value$536026[ebp]
  00049	f2 0f 58 c1	 addsd	 xmm0, xmm1
  0004d	66 0f 5a c0	 cvtpd2ps xmm0, xmm0
  00051	50		 push	 eax
  00052	8d 8e 20 01 00
	00		 lea	 ecx, DWORD PTR [esi+288]
  00058	f3 0f 11 45 f8	 movss	 DWORD PTR _value$536026[ebp], xmm0
  0005d	e8 00 00 00 00	 call	 ?EncryptValueToPool@?$CEncrypt@M@@AAEXPBD@Z ; CEncrypt<float>::EncryptValueToPool

; 840  : 
; 841  : 	ioPlayEntity::ProcessRecovery();

  00062	8b ce		 mov	 ecx, esi
  00064	e8 00 00 00 00	 call	 ?ProcessRecovery@ioPlayEntity@@MAEXXZ ; ioPlayEntity::ProcessRecovery
$LN3@ProcessRec:
  00069	5e		 pop	 esi

; 842  : }

  0006a	c9		 leave
  0006b	c3		 ret	 0
?ProcessRecovery@ioSymbolStruct@@MAEXXZ ENDP		; ioSymbolStruct::ProcessRecovery
_TEXT	ENDS
PUBLIC	__real@00000000
PUBLIC	??4?$CEncrypt@M@@QAE_NAAV0@@Z			; CEncrypt<float>::operator=
;	COMDAT __real@00000000
; File d:\lost saga for developer\youtube\tutorial\source\src\lsclient\encryptvalue.h
CONST	SEGMENT
__real@00000000 DD 000000000r			; 0
; Function compile flags: /Ogsp
CONST	ENDS
;	COMDAT ??4?$CEncrypt@M@@QAE_NAAV0@@Z
_TEXT	SEGMENT
_value$536035 = -4					; size = 4
_value$ = 8						; size = 4
_inValue$ = 8						; size = 4
??4?$CEncrypt@M@@QAE_NAAV0@@Z PROC			; CEncrypt<float>::operator=, COMDAT
; _this$ = ecx

; 3314 : 	 {

  00000	55		 push	 ebp
  00001	8b ec		 mov	 ebp, esp
  00003	51		 push	 ecx
  00004	56		 push	 esi

; 3315 : 		 type value = inValue;

  00005	8d 45 fc	 lea	 eax, DWORD PTR _value$536035[ebp]
  00008	8b f1		 mov	 esi, ecx
  0000a	8b 4d 08	 mov	 ecx, DWORD PTR _inValue$[ebp]
  0000d	50		 push	 eax
  0000e	e8 00 00 00 00	 call	 ?DecryptValueToPool@?$CEncrypt@M@@QAEXPAM@Z ; CEncrypt<float>::DecryptValueToPool
  00013	f3 0f 10 45 fc	 movss	 xmm0, DWORD PTR _value$536035[ebp]

; 3316 : 		 EncryptValueToPool((char*)&value);

  00018	8d 45 08	 lea	 eax, DWORD PTR _value$[ebp]
  0001b	50		 push	 eax
  0001c	8b ce		 mov	 ecx, esi
  0001e	f3 0f 11 45 08	 movss	 DWORD PTR _value$[ebp], xmm0
  00023	e8 00 00 00 00	 call	 ?EncryptValueToPool@?$CEncrypt@M@@AAEXPBD@Z ; CEncrypt<float>::EncryptValueToPool

; 3317 : #ifdef _NOTUSE
; 3318 : 		 m_value = inValue;
; 3319 : 		 Debug();
; 3320 : #endif
; 3321 : 		 return value;

  00028	f3 0f 10 45 08	 movss	 xmm0, DWORD PTR _value$[ebp]
  0002d	0f 2e 05 00 00
	00 00		 ucomiss xmm0, DWORD PTR __real@00000000
  00034	9f		 lahf
  00035	5e		 pop	 esi
  00036	f6 c4 44	 test	 ah, 68			; 00000044H
  00039	7b 04		 jnp	 SHORT $LN3@operator@5
  0003b	b0 01		 mov	 al, 1
  0003d	eb 02		 jmp	 SHORT $LN4@operator@5
$LN3@operator@5:
  0003f	32 c0		 xor	 al, al
$LN4@operator@5:

; 3322 : 	 }

  00041	c9		 leave
  00042	c2 04 00	 ret	 4
??4?$CEncrypt@M@@QAE_NAAV0@@Z ENDP			; CEncrypt<float>::operator=
_TEXT	ENDS
PUBLIC	?SetTeam@ioPlayEntity@@UAEXW4TeamType@@@Z	; ioPlayEntity::SetTeam
; Function compile flags: /Ogsp
; File d:\lost saga for developer\youtube\tutorial\source\src\lsclient\ioplayentity.h
;	COMDAT ?SetTeam@ioPlayEntity@@UAEXW4TeamType@@@Z
_TEXT	SEGMENT
_value$536041 = 8					; size = 4
_eType$ = 8						; size = 4
?SetTeam@ioPlayEntity@@UAEXW4TeamType@@@Z PROC		; ioPlayEntity::SetTeam, COMDAT
; _this$ = ecx

; 106  : 	virtual void SetTeam( TeamType eType ) { m_TeamType = eType; }

  00000	55		 push	 ebp
  00001	8b ec		 mov	 ebp, esp
  00003	8b 45 08	 mov	 eax, DWORD PTR _eType$[ebp]
  00006	89 45 08	 mov	 DWORD PTR _value$536041[ebp], eax
  00009	8d 45 08	 lea	 eax, DWORD PTR _value$536041[ebp]
  0000c	50		 push	 eax
  0000d	81 c1 90 00 00
	00		 add	 ecx, 144		; 00000090H
  00013	e8 00 00 00 00	 call	 ?EncryptValueToPool@?$CEncrypt@W4TeamType@@@@AAEXPBD@Z ; CEncrypt<enum TeamType>::EncryptValueToPool
  00018	5d		 pop	 ebp
  00019	c2 04 00	 ret	 4
?SetTeam@ioPlayEntity@@UAEXW4TeamType@@@Z ENDP		; ioPlayEntity::SetTeam
_TEXT	ENDS
PUBLIC	?GetTeam@ioPlayEntity@@QBE?AW4TeamType@@XZ	; ioPlayEntity::GetTeam
; Function compile flags: /Ogsp
;	COMDAT ?GetTeam@ioPlayEntity@@QBE?AW4TeamType@@XZ
_TEXT	SEGMENT
_value$536047 = -4					; size = 4
?GetTeam@ioPlayEntity@@QBE?AW4TeamType@@XZ PROC		; ioPlayEntity::GetTeam, COMDAT
; _this$ = ecx

; 107  : 	inline TeamType GetTeam() const { return m_TeamType; }

  00000	55		 push	 ebp
  00001	8b ec		 mov	 ebp, esp
  00003	51		 push	 ecx
  00004	8d 45 fc	 lea	 eax, DWORD PTR _value$536047[ebp]
  00007	50		 push	 eax
  00008	81 c1 90 00 00
	00		 add	 ecx, 144		; 00000090H
  0000e	e8 00 00 00 00	 call	 ?DecryptValueToPool@?$CEncrypt@W4TeamType@@@@QAEXPAW4TeamType@@@Z ; CEncrypt<enum TeamType>::DecryptValueToPool
  00013	8b 45 fc	 mov	 eax, DWORD PTR _value$536047[ebp]
  00016	c9		 leave
  00017	c3		 ret	 0
?GetTeam@ioPlayEntity@@QBE?AW4TeamType@@XZ ENDP		; ioPlayEntity::GetTeam
_TEXT	ENDS
PUBLIC	?GetTeam@ioWeapon@@QBE?AW4TeamType@@XZ		; ioWeapon::GetTeam
; Function compile flags: /Ogsp
; File d:\lost saga for developer\youtube\tutorial\source\src\lsclient\ioweapon.h
;	COMDAT ?GetTeam@ioWeapon@@QBE?AW4TeamType@@XZ
_TEXT	SEGMENT
_value$536054 = -4					; size = 4
?GetTeam@ioWeapon@@QBE?AW4TeamType@@XZ PROC		; ioWeapon::GetTeam, COMDAT
; _this$ = ecx

; 534  : 	inline TeamType GetTeam() const { return m_TeamType; }

  00000	55		 push	 ebp
  00001	8b ec		 mov	 ebp, esp
  00003	51		 push	 ecx
  00004	8d 45 fc	 lea	 eax, DWORD PTR _value$536054[ebp]
  00007	50		 push	 eax
  00008	83 c1 30	 add	 ecx, 48			; 00000030H
  0000b	e8 00 00 00 00	 call	 ?DecryptValueToPool@?$CEncrypt@W4TeamType@@@@QAEXPAW4TeamType@@@Z ; CEncrypt<enum TeamType>::DecryptValueToPool
  00010	8b 45 fc	 mov	 eax, DWORD PTR _value$536054[ebp]
  00013	c9		 leave
  00014	c3		 ret	 0
?GetTeam@ioWeapon@@QBE?AW4TeamType@@XZ ENDP		; ioWeapon::GetTeam
_TEXT	ENDS
PUBLIC	?GetChangeJumppingPowerRate@ioWeapon@@QBEMXZ	; ioWeapon::GetChangeJumppingPowerRate
; Function compile flags: /Ogsp
;	COMDAT ?GetChangeJumppingPowerRate@ioWeapon@@QBEMXZ
_TEXT	SEGMENT
_value$536061 = -4					; size = 4
?GetChangeJumppingPowerRate@ioWeapon@@QBEMXZ PROC	; ioWeapon::GetChangeJumppingPowerRate, COMDAT
; _this$ = ecx

; 545  : 	inline float GetChangeJumppingPowerRate() const { return m_fChangeJumppingPowerRate; }

  00000	55		 push	 ebp
  00001	8b ec		 mov	 ebp, esp
  00003	51		 push	 ecx
  00004	8d 45 fc	 lea	 eax, DWORD PTR _value$536061[ebp]
  00007	50		 push	 eax
  00008	81 c1 ac 05 00
	00		 add	 ecx, 1452		; 000005acH
  0000e	e8 00 00 00 00	 call	 ?DecryptValueToPool@?$CEncrypt@M@@QAEXPAM@Z ; CEncrypt<float>::DecryptValueToPool
  00013	d9 45 fc	 fld	 DWORD PTR _value$536061[ebp]
  00016	c9		 leave
  00017	c3		 ret	 0
?GetChangeJumppingPowerRate@ioWeapon@@QBEMXZ ENDP	; ioWeapon::GetChangeJumppingPowerRate
_TEXT	ENDS
PUBLIC	?GetChangeJumppingLimitCnt@ioWeapon@@QBEHXZ	; ioWeapon::GetChangeJumppingLimitCnt
; Function compile flags: /Ogsp
;	COMDAT ?GetChangeJumppingLimitCnt@ioWeapon@@QBEHXZ
_TEXT	SEGMENT
_value$536068 = -4					; size = 4
?GetChangeJumppingLimitCnt@ioWeapon@@QBEHXZ PROC	; ioWeapon::GetChangeJumppingLimitCnt, COMDAT
; _this$ = ecx

; 546  : 	inline int GetChangeJumppingLimitCnt() const { return m_iChangeJumppingCnt; }

  00000	55		 push	 ebp
  00001	8b ec		 mov	 ebp, esp
  00003	51		 push	 ecx
  00004	8d 45 fc	 lea	 eax, DWORD PTR _value$536068[ebp]
  00007	50		 push	 eax
  00008	81 c1 dc 05 00
	00		 add	 ecx, 1500		; 000005dcH
  0000e	e8 00 00 00 00	 call	 ?DecryptValueToPool@?$CEncrypt@H@@QAEXPAH@Z ; CEncrypt<int>::DecryptValueToPool
  00013	8b 45 fc	 mov	 eax, DWORD PTR _value$536068[ebp]
  00016	c9		 leave
  00017	c3		 ret	 0
?GetChangeJumppingLimitCnt@ioWeapon@@QBEHXZ ENDP	; ioWeapon::GetChangeJumppingLimitCnt
_TEXT	ENDS
PUBLIC	?IsNoWoundedWeapon@ioWeapon@@QBE_NXZ		; ioWeapon::IsNoWoundedWeapon
; Function compile flags: /Ogsp
;	COMDAT ?IsNoWoundedWeapon@ioWeapon@@QBE_NXZ
_TEXT	SEGMENT
_value$536075 = -1					; size = 1
?IsNoWoundedWeapon@ioWeapon@@QBE_NXZ PROC		; ioWeapon::IsNoWoundedWeapon, COMDAT
; _this$ = ecx

; 552  : 	inline bool IsNoWoundedWeapon() const { return m_bNoWoundedWeapon; }

  00000	55		 push	 ebp
  00001	8b ec		 mov	 ebp, esp
  00003	51		 push	 ecx
  00004	8d 45 ff	 lea	 eax, DWORD PTR _value$536075[ebp]
  00007	50		 push	 eax
  00008	81 c1 a0 06 00
	00		 add	 ecx, 1696		; 000006a0H
  0000e	e8 00 00 00 00	 call	 ?DecryptValueToPool@?$CEncrypt@_N@@QAEXPA_N@Z ; CEncrypt<bool>::DecryptValueToPool
  00013	8a 45 ff	 mov	 al, BYTE PTR _value$536075[ebp]
  00016	c9		 leave
  00017	c3		 ret	 0
?IsNoWoundedWeapon@ioWeapon@@QBE_NXZ ENDP		; ioWeapon::IsNoWoundedWeapon
_TEXT	ENDS
PUBLIC	?GetModeType@ioPlayMode@@SA?AW4ModeType@@XZ	; ioPlayMode::GetModeType
EXTRN	?m_ModeType@ioPlayMode@@1V?$CEncrypt@W4ModeType@@@@A:BYTE ; ioPlayMode::m_ModeType
; Function compile flags: /Ogsp
; File d:\lost saga for developer\youtube\tutorial\source\src\lsclient\ioplaymode.h
;	COMDAT ?GetModeType@ioPlayMode@@SA?AW4ModeType@@XZ
_TEXT	SEGMENT
?GetModeType@ioPlayMode@@SA?AW4ModeType@@XZ PROC	; ioPlayMode::GetModeType, COMDAT

; 782  : 	static ModeType GetModeType() { return m_ModeType; }

  00000	6a 04		 push	 4
  00002	68 28 00 00 00	 push	 OFFSET ?m_ModeType@ioPlayMode@@1V?$CEncrypt@W4ModeType@@@@A+40
  00007	68 1c 00 00 00	 push	 OFFSET ?m_ModeType@ioPlayMode@@1V?$CEncrypt@W4ModeType@@@@A+28
  0000c	b9 0c 00 00 00	 mov	 ecx, OFFSET ?m_ModeType@ioPlayMode@@1V?$CEncrypt@W4ModeType@@@@A+12
  00011	e8 00 00 00 00	 call	 ?DecryptByte@ccddaabb@@QBEXPBDPADH@Z ; ccddaabb::DecryptByte
  00016	a1 28 00 00 00	 mov	 eax, DWORD PTR ?m_ModeType@ioPlayMode@@1V?$CEncrypt@W4ModeType@@@@A+40
  0001b	c3		 ret	 0
?GetModeType@ioPlayMode@@SA?AW4ModeType@@XZ ENDP	; ioPlayMode::GetModeType
_TEXT	ENDS
PUBLIC	??_R0?AVioPlayMode@@@8				; ioPlayMode `RTTI Type Descriptor'
PUBLIC	??_R0?AVioSymbolMode@@@8			; ioSymbolMode `RTTI Type Descriptor'
PUBLIC	?ToSymbolMode@@YAPAVioSymbolMode@@PAVioPlayMode@@@Z ; ToSymbolMode
EXTRN	___RTDynamicCast:PROC
;	COMDAT ??_R0?AVioPlayMode@@@8
; File d:\lost saga for developer\youtube\tutorial\source\src\lsclient\iosymbolmode.h
_DATA	SEGMENT
??_R0?AVioPlayMode@@@8 DD FLAT:??_7type_info@@6B@	; ioPlayMode `RTTI Type Descriptor'
	DD	00H
	DB	'.?AVioPlayMode@@', 00H
_DATA	ENDS
;	COMDAT ??_R0?AVioSymbolMode@@@8
_DATA	SEGMENT
??_R0?AVioSymbolMode@@@8 DD FLAT:??_7type_info@@6B@	; ioSymbolMode `RTTI Type Descriptor'
	DD	00H
	DB	'.?AVioSymbolMode@@', 00H
; Function compile flags: /Ogsp
_DATA	ENDS
;	COMDAT ?ToSymbolMode@@YAPAVioSymbolMode@@PAVioPlayMode@@@Z
_TEXT	SEGMENT
_pMode$ = 8						; size = 4
?ToSymbolMode@@YAPAVioSymbolMode@@PAVioPlayMode@@@Z PROC ; ToSymbolMode, COMDAT

; 243  : {

  00000	55		 push	 ebp
  00001	8b ec		 mov	 ebp, esp

; 244  : 	if( !pMode || pMode->GetModeType() != MT_SYMBOL )

  00003	83 7d 08 00	 cmp	 DWORD PTR _pMode$[ebp], 0
  00007	74 25		 je	 SHORT $LN1@ToSymbolMo
  00009	e8 00 00 00 00	 call	 ?GetModeType@ioPlayMode@@SA?AW4ModeType@@XZ ; ioPlayMode::GetModeType
  0000e	83 f8 01	 cmp	 eax, 1
  00011	75 1b		 jne	 SHORT $LN1@ToSymbolMo

; 246  : 
; 247  : 	return dynamic_cast< ioSymbolMode* >( pMode );

  00013	6a 00		 push	 0
  00015	68 00 00 00 00	 push	 OFFSET ??_R0?AVioSymbolMode@@@8
  0001a	68 00 00 00 00	 push	 OFFSET ??_R0?AVioPlayMode@@@8
  0001f	6a 00		 push	 0
  00021	ff 75 08	 push	 DWORD PTR _pMode$[ebp]
  00024	e8 00 00 00 00	 call	 ___RTDynamicCast
  00029	83 c4 14	 add	 esp, 20			; 00000014H

; 248  : }

  0002c	5d		 pop	 ebp
  0002d	c3		 ret	 0
$LN1@ToSymbolMo:

; 245  : 		return NULL;

  0002e	33 c0		 xor	 eax, eax

; 248  : }

  00030	5d		 pop	 ebp
  00031	c3		 ret	 0
?ToSymbolMode@@YAPAVioSymbolMode@@PAVioPlayMode@@@Z ENDP ; ToSymbolMode
_TEXT	ENDS
PUBLIC	??_C@_00CNPNBAHC@?$AA@				; `string'
PUBLIC	??_C@_0CL@DDPKKNDH@ioSymbolStruct?3?3ApplyWeapon?5?9?5?$CFs@ ; `string'
PUBLIC	__$ArrayPad$
EXTRN	?CheckEntityCollision@ioDummyCharManager@@QAEXPAVioBaseChar@@PAVioPlayEntity@@H@Z:PROC ; ioDummyCharManager::CheckEntityCollision
EXTRN	?GetSingleton@ioDummyCharManager@@SAAAV1@XZ:PROC ; ioDummyCharManager::GetSingleton
EXTRN	?SetChangeJumppingState@ioBaseChar@@QAEXM_NH@Z:PROC ; ioBaseChar::SetChangeJumppingState
EXTRN	??1SP2Packet@@UAE@XZ:PROC			; SP2Packet::~SP2Packet
EXTRN	?SetSymbolAttack@ioModeUIController@@QAEXW4TeamType@@@Z:PROC ; ioModeUIController::SetSymbolAttack
EXTRN	?GetSingleton@ioModeUIController@@SAAAV1@XZ:PROC ; ioModeUIController::GetSingleton
EXTRN	?SymbolDamageContribute@ioSymbolMode@@QAEXW4TeamType@@VioHashString@@MH@Z:PROC ; ioSymbolMode::SymbolDamageContribute
EXTRN	__imp_??0ioHashString@@QAE@ABV0@@Z:PROC
EXTRN	?AddDamage@ioAbuseManager@@QAEXH@Z:PROC		; ioAbuseManager::AddDamage
EXTRN	?GetSingleton@ioAbuseManager@@SAAAV1@XZ:PROC	; ioAbuseManager::GetSingleton
EXTRN	?SendToAllPlayingUser@P2PNetwork@@YAXAAVSP2Packet@@PAVioBaseChar@@@Z:PROC ; P2PNetwork::SendToAllPlayingUser
EXTRN	??6SP2Packet@@QAEAAV0@K@Z:PROC			; SP2Packet::operator<<
EXTRN	??6SP2Packet@@QAEAAV0@M@Z:PROC			; SP2Packet::operator<<
EXTRN	??6SP2Packet@@QAEAAV0@ABUD3DXVECTOR3@@@Z:PROC	; SP2Packet::operator<<
EXTRN	??6SP2Packet@@QAEAAV0@_N@Z:PROC			; SP2Packet::operator<<
EXTRN	??6SP2Packet@@QAEAAV0@AAV?$CEncrypt@M@@@Z:PROC	; SP2Packet::operator<<
EXTRN	??6SP2Packet@@QAEAAV0@H@Z:PROC			; SP2Packet::operator<<
EXTRN	??6SP2Packet@@QAEAAV0@ABVioHashString@@@Z:PROC	; SP2Packet::operator<<
EXTRN	??0SP2Packet@@QAE@K@Z:PROC			; SP2Packet::SP2Packet
EXTRN	?NotifySymbolWounded@ioSymbolMode@@QAEXPAVioSymbolStruct@@PAVioBaseChar@@M@Z:PROC ; ioSymbolMode::NotifySymbolWounded
EXTRN	?CheckNamedEmoticon@ioBaseChar@@QAEXH_N@Z:PROC	; ioBaseChar::CheckNamedEmoticon
EXTRN	?ReverseReflectPush@ioBaseChar@@QAEXABUD3DXVECTOR3@@M@Z:PROC ; ioBaseChar::ReverseReflectPush
EXTRN	?AddNewBuff@ioBaseChar@@QAEPAVioBuff@@ABVioHashString@@00PAVioSkill@@_N@Z:PROC ; ioBaseChar::AddNewBuff
EXTRN	__imp_??0ioHashString@@QAE@PBD@Z:PROC
EXTRN	?IgnoreBlock@ioBaseChar@@QAE_NXZ:PROC		; ioBaseChar::IgnoreBlock
EXTRN	?IsChangeJumpping@ioWeapon@@QAE_N_N0@Z:PROC	; ioWeapon::IsChangeJumpping
EXTRN	?IsEnableAttackCancelState@ioBaseChar@@QAE_NXZ:PROC ; ioBaseChar::IsEnableAttackCancelState
EXTRN	?AddBlockStoneAttack@ioAwardManager@@QAEXABVioHashString@@H@Z:PROC ; ioAwardManager::AddBlockStoneAttack
EXTRN	?GetSingleton@ioAwardManager@@SAAAV1@XZ:PROC	; ioAwardManager::GetSingleton
EXTRN	?IsEnableSymbolDamage@ioSymbolMode@@QAE_NPAVioSymbolStruct@@W4TeamType@@@Z:PROC ; ioSymbolMode::IsEnableSymbolDamage
EXTRN	?SetActionStopDuration@ioWeapon@@QAEXKM@Z:PROC	; ioWeapon::SetActionStopDuration
EXTRN	?CalcActionStopDelay@ioBaseChar@@SAKM_N@Z:PROC	; ioBaseChar::CalcActionStopDelay
EXTRN	?GetActionStopLooseRate@ioBaseChar@@SAM_N@Z:PROC ; ioBaseChar::GetActionStopLooseRate
EXTRN	?SetActionStopDelay@ioBaseChar@@QAEXM_NH@Z:PROC	; ioBaseChar::SetActionStopDelay
EXTRN	?GetShakeCamera@ioWeapon@@QBEHXZ:PROC		; ioWeapon::GetShakeCamera
EXTRN	?GetBlockingRate@ioWeapon@@QBEHXZ:PROC		; ioWeapon::GetBlockingRate
EXTRN	?GetExtraDamageRate@ioWeapon@@QAEMXZ:PROC	; ioWeapon::GetExtraDamageRate
EXTRN	__imp_?PrintTimeAndLog@CLog@@QAAXHPADZZ:PROC
EXTRN	__imp_?LOG@@3VCLog@@A:BYTE
EXTRN	__imp_?c_str@ioHashString@@QBEPBDXZ:PROC
EXTRN	?GetOwner@ioWeapon@@QBEPAVioBaseChar@@XZ:PROC	; ioWeapon::GetOwner
EXTRN	?IsNetworkPlaying@P2PNetwork@@YA_NXZ:PROC	; P2PNetwork::IsNetworkPlaying
EXTRN	__chkstk:PROC
;	COMDAT ??_C@_00CNPNBAHC@?$AA@
; File d:\lost saga for developer\youtube\tutorial\source\src\lsclient\ioweapon.h
CONST	SEGMENT
??_C@_00CNPNBAHC@?$AA@ DB 00H				; `string'
CONST	ENDS
;	COMDAT ??_C@_0CL@DDPKKNDH@ioSymbolStruct?3?3ApplyWeapon?5?9?5?$CFs@
CONST	SEGMENT
??_C@_0CL@DDPKKNDH@ioSymbolStruct?3?3ApplyWeapon?5?9?5?$CFs@ DB 'ioSymbol'
	DB	'Struct::ApplyWeapon - %s Not Exist', 00H	; `string'
CONST	ENDS
;	COMDAT xdata$x
xdata$x	SEGMENT
__unwindtable$?ApplyWeapon@ioSymbolStruct@@UAE?AW4ApplyWeaponExp@@PAVioWeapon@@@Z DD 0ffffffffH
	DD	FLAT:__unwindfunclet$?ApplyWeapon@ioSymbolStruct@@UAE?AW4ApplyWeaponExp@@PAVioWeapon@@@Z$0
	DD	00H
	DD	FLAT:__unwindfunclet$?ApplyWeapon@ioSymbolStruct@@UAE?AW4ApplyWeaponExp@@PAVioWeapon@@@Z$1
	DD	0ffffffffH
	DD	FLAT:__unwindfunclet$?ApplyWeapon@ioSymbolStruct@@UAE?AW4ApplyWeaponExp@@PAVioWeapon@@@Z$2
	DD	02H
	DD	FLAT:__unwindfunclet$?ApplyWeapon@ioSymbolStruct@@UAE?AW4ApplyWeaponExp@@PAVioWeapon@@@Z$3
__ehfuncinfo$?ApplyWeapon@ioSymbolStruct@@UAE?AW4ApplyWeaponExp@@PAVioWeapon@@@Z DD 019930522H
	DD	04H
	DD	FLAT:__unwindtable$?ApplyWeapon@ioSymbolStruct@@UAE?AW4ApplyWeaponExp@@PAVioWeapon@@@Z
	DD	2 DUP(00H)
	DD	2 DUP(00H)
	DD	00H
	DD	01H
; Function compile flags: /Ogsp
; File d:\lost saga for developer\youtube\tutorial\source\src\lsclient\iosymbolstruct.cpp
xdata$x	ENDS
;	COMDAT ?ApplyWeapon@ioSymbolStruct@@UAE?AW4ApplyWeaponExp@@PAVioWeapon@@@Z
_TEXT	SEGMENT
$T536099 = -32896					; size = 16
$T536098 = -32880					; size = 16
_fPushPower$ = -32864					; size = 4
_bAddDamage$ = -32860					; size = 1
_bBlock$ = -32856					; size = 1
_eActionStop$ = -32852					; size = 4
_fMemberBalanceRate$ = -32852				; size = 4
_value$536115 = -32845					; size = 1
_pAttacker$ = -32844					; size = 4
tv1178 = -32840						; size = 4
tv1164 = -32840						; size = 4
tv1041 = -32840						; size = 4
tv1039 = -32840						; size = 4
_value$536392 = -32840					; size = 4
_value$536367 = -32840					; size = 4
_value$536342 = -32840					; size = 4
_value$536329 = -32840					; size = 4
_iShakeCamera$ = -32840					; size = 4
tv1167 = -32836						; size = 4
_value$536295 = -32836					; size = 4
_value$536241 = -32836					; size = 4
_value$536232 = -32836					; size = 4
_value$536215 = -32836					; size = 4
_value$536145 = -32836					; size = 4
$T536100 = -32836					; size = 4
_iWeaponType$530549 = -32836				; size = 4
_fBlockRate$ = -32836					; size = 4
_bOnlyEmoticon$ = -32832				; size = 1
_value$536236 = -32832					; size = 4
_value$536182 = -32832					; size = 4
_pMode$ = -32832					; size = 4
_fDamage$ = -32828					; size = 4
tv1089 = -32824						; size = 4
tv1085 = -32824						; size = 4
tv1081 = -32824						; size = 4
tv1077 = -32824						; size = 4
_value$536404 = -32824					; size = 4
_value$536355 = -32824					; size = 4
_value$536310 = -32824					; size = 4
_value$536282 = -32824					; size = 4
_value$536256 = -32824					; size = 4
_value$536245 = -32824					; size = 4
_value$536227 = -32824					; size = 4
_value$536223 = -32824					; size = 4
_value$536205 = -32824					; size = 4
_value$536193 = -32824					; size = 4
_value$536211 = -32824					; size = 4
$T536228 = -32824					; size = 4
_value$536170 = -32824					; size = 4
_value$536158 = -32824					; size = 4
_pSymbolMode$530555 = -32824				; size = 4
_kPacket$530552 = -32820				; size = 32792
_vAttackDir$ = -28					; size = 12
__$ArrayPad$ = -16					; size = 4
__$EHRec$ = -12						; size = 12
_pWeapon$ = 8						; size = 4
?ApplyWeapon@ioSymbolStruct@@UAE?AW4ApplyWeaponExp@@PAVioWeapon@@@Z PROC ; ioSymbolStruct::ApplyWeapon, COMDAT
; _this$ = ecx

; 71   : {

  00000	55		 push	 ebp
  00001	8b ec		 mov	 ebp, esp
  00003	6a ff		 push	 -1
  00005	68 00 00 00 00	 push	 __ehhandler$?ApplyWeapon@ioSymbolStruct@@UAE?AW4ApplyWeaponExp@@PAVioWeapon@@@Z
  0000a	64 a1 00 00 00
	00		 mov	 eax, DWORD PTR fs:0
  00010	50		 push	 eax
  00011	b8 74 80 00 00	 mov	 eax, 32884		; 00008074H
  00016	e8 00 00 00 00	 call	 __chkstk
  0001b	a1 00 00 00 00	 mov	 eax, DWORD PTR ___security_cookie
  00020	33 c5		 xor	 eax, ebp
  00022	89 45 f0	 mov	 DWORD PTR __$ArrayPad$[ebp], eax
  00025	53		 push	 ebx
  00026	56		 push	 esi
  00027	57		 push	 edi
  00028	50		 push	 eax
  00029	8d 45 f4	 lea	 eax, DWORD PTR __$EHRec$[ebp]
  0002c	64 a3 00 00 00
	00		 mov	 DWORD PTR fs:0, eax
  00032	8b 7d 08	 mov	 edi, DWORD PTR _pWeapon$[ebp]
  00035	8b f1		 mov	 esi, ecx

; 72   : 	if( !m_bActivity )

  00037	80 be 98 05 00
	00 00		 cmp	 BYTE PTR [esi+1432], 0

; 73   : 	{
; 74   : 		return AWE_EXPLOSION;

  0003e	0f 84 8d 0a 00
	00		 je	 $LN193@ApplyWeapo

; 75   : 	}
; 76   : 
; 77   : 	if( pWeapon->IsNoWoundedWeapon() )

  00044	8d 85 b3 7f ff
	ff		 lea	 eax, DWORD PTR _value$536115[ebp]
  0004a	8d 8f a0 06 00
	00		 lea	 ecx, DWORD PTR [edi+1696]
  00050	50		 push	 eax
  00051	e8 00 00 00 00	 call	 ?DecryptValueToPool@?$CEncrypt@_N@@QAEXPA_N@Z ; CEncrypt<bool>::DecryptValueToPool
  00056	80 bd b3 7f ff
	ff 00		 cmp	 BYTE PTR _value$536115[ebp], 0
  0005d	74 07		 je	 SHORT $LN43@ApplyWeapo

; 78   : 		return AWE_NO_EXPLOSION;

  0005f	33 c0		 xor	 eax, eax
  00061	e9 6e 0a 00 00	 jmp	 $LN45@ApplyWeapo
$LN43@ApplyWeapo:

; 79   : 	
; 80   : 	if( P2PNetwork::IsNetworkPlaying() && 
; 81   : 		m_pModeParent->IsNetworkMode() &&
; 82   : 		!pWeapon->IsGameOwnerWeapon() )

  00066	e8 00 00 00 00	 call	 ?IsNetworkPlaying@P2PNetwork@@YA_NXZ ; P2PNetwork::IsNetworkPlaying
  0006b	84 c0		 test	 al, al
  0006d	74 24		 je	 SHORT $LN42@ApplyWeapo
  0006f	8b 8e 8c 00 00
	00		 mov	 ecx, DWORD PTR [esi+140]
  00075	8b 01		 mov	 eax, DWORD PTR [ecx]
  00077	ff 50 40	 call	 DWORD PTR [eax+64]
  0007a	84 c0		 test	 al, al
  0007c	74 15		 je	 SHORT $LN42@ApplyWeapo
  0007e	80 bf 80 05 00
	00 00		 cmp	 BYTE PTR [edi+1408], 0
  00085	75 0c		 jne	 SHORT $LN42@ApplyWeapo

; 83   : 	{
; 84   : 		SetWoundedState();

  00087	8b ce		 mov	 ecx, esi
  00089	e8 00 00 00 00	 call	 ?SetWoundedState@ioSymbolStruct@@QAEXXZ ; ioSymbolStruct::SetWoundedState

; 85   : 		return AWE_EXPLOSION;

  0008e	e9 3e 0a 00 00	 jmp	 $LN193@ApplyWeapo
$LN42@ApplyWeapo:

; 86   : 	}
; 87   : 
; 88   : 	ioBaseChar *pAttacker = pWeapon->GetOwner();

  00093	8b cf		 mov	 ecx, edi
  00095	e8 00 00 00 00	 call	 ?GetOwner@ioWeapon@@QBEPAVioBaseChar@@XZ ; ioWeapon::GetOwner
  0009a	89 85 b4 7f ff
	ff		 mov	 DWORD PTR _pAttacker$[ebp], eax

; 89   : 	if( !pAttacker )

  000a0	85 c0		 test	 eax, eax
  000a2	75 25		 jne	 SHORT $LN41@ApplyWeapo

; 90   : 	{
; 91   : 		LOG.PrintTimeAndLog( 0, "ioSymbolStruct::ApplyWeapon - %s Not Exist", pWeapon->GetOwnerName().c_str() );

  000a4	8d 4f 10	 lea	 ecx, DWORD PTR [edi+16]
  000a7	ff 15 00 00 00
	00		 call	 DWORD PTR __imp_?c_str@ioHashString@@QBEPBDXZ
  000ad	50		 push	 eax
  000ae	68 00 00 00 00	 push	 OFFSET ??_C@_0CL@DDPKKNDH@ioSymbolStruct?3?3ApplyWeapon?5?9?5?$CFs@
  000b3	6a 00		 push	 0
  000b5	ff 35 00 00 00
	00		 push	 DWORD PTR __imp_?LOG@@3VCLog@@A
  000bb	ff 15 00 00 00
	00		 call	 DWORD PTR __imp_?PrintTimeAndLog@CLog@@QAAXHPADZZ
  000c1	83 c4 10	 add	 esp, 16			; 00000010H

; 92   : 		return AWE_EXPLOSION;

  000c4	e9 08 0a 00 00	 jmp	 $LN193@ApplyWeapo
$LN41@ApplyWeapo:

; 93   : 	}
; 94   : 
; 95   : 	D3DXVECTOR3 vAttackDir = pWeapon->GetAttackDir(this);

  000c9	8b 07		 mov	 eax, DWORD PTR [edi]
  000cb	56		 push	 esi
  000cc	8d 4d e4	 lea	 ecx, DWORD PTR _vAttackDir$[ebp]
  000cf	51		 push	 ecx
  000d0	8b cf		 mov	 ecx, edi
  000d2	ff 90 fc 00 00
	00		 call	 DWORD PTR [eax+252]

; 96   : 
; 97   : 	float fDamage = pWeapon->GetDamage( this );

  000d8	8b 07		 mov	 eax, DWORD PTR [edi]
  000da	56		 push	 esi
  000db	8b cf		 mov	 ecx, edi
  000dd	ff 90 d4 00 00
	00		 call	 DWORD PTR [eax+212]
  000e3	d9 9d c4 7f ff
	ff		 fstp	 DWORD PTR _fDamage$[ebp]

; 98   : 	float fPushPower = pWeapon->GetDefensePushPower( fDamage );

  000e9	f3 0f 10 85 c4
	7f ff ff	 movss	 xmm0, DWORD PTR _fDamage$[ebp]
  000f1	8b 07		 mov	 eax, DWORD PTR [edi]
  000f3	51		 push	 ecx
  000f4	8b cf		 mov	 ecx, edi
  000f6	f3 0f 11 04 24	 movss	 DWORD PTR [esp], xmm0
  000fb	ff 90 88 00 00
	00		 call	 DWORD PTR [eax+136]
  00101	d9 9d a0 7f ff
	ff		 fstp	 DWORD PTR _fPushPower$[ebp]

; 99   : 	float fMemberBalanceRate = pWeapon->GetExtraDamageRate();

  00107	8b cf		 mov	 ecx, edi
  00109	e8 00 00 00 00	 call	 ?GetExtraDamageRate@ioWeapon@@QAEMXZ ; ioWeapon::GetExtraDamageRate
  0010e	d9 9d ac 7f ff
	ff		 fstp	 DWORD PTR _fMemberBalanceRate$[ebp]

; 100  : 	if( fMemberBalanceRate > FLOAT1 )

  00114	b8 01 00 00 00	 mov	 eax, 1
  00119	d9 85 ac 7f ff
	ff		 fld	 DWORD PTR _fMemberBalanceRate$[ebp]
  0011f	89 85 b8 7f ff
	ff		 mov	 DWORD PTR tv1178[ebp], eax
  00125	db 85 b8 7f ff
	ff		 fild	 DWORD PTR tv1178[ebp]
  0012b	85 c0		 test	 eax, eax
  0012d	79 06		 jns	 SHORT $LN187@ApplyWeapo
  0012f	d8 05 00 00 00
	00		 fadd	 DWORD PTR __real@4f800000
$LN187@ApplyWeapo:
  00135	d9 c9		 fxch	 ST(1)
  00137	df f1		 fcomip	 ST(1)
  00139	dd d8		 fstp	 ST(0)
  0013b	76 26		 jbe	 SHORT $LN40@ApplyWeapo

; 101  : 	{
; 102  : 		fDamage = fDamage / fMemberBalanceRate;

  0013d	f3 0f 10 85 c4
	7f ff ff	 movss	 xmm0, DWORD PTR _fDamage$[ebp]
  00145	f3 0f 10 8d ac
	7f ff ff	 movss	 xmm1, DWORD PTR _fMemberBalanceRate$[ebp]
  0014d	0f 5a c0	 cvtps2pd xmm0, xmm0
  00150	0f 5a c9	 cvtps2pd xmm1, xmm1
  00153	f2 0f 5e c1	 divsd	 xmm0, xmm1
  00157	f2 0f 5a c0	 cvtsd2ss xmm0, xmm0
  0015b	f3 0f 11 85 c4
	7f ff ff	 movss	 DWORD PTR _fDamage$[ebp], xmm0
$LN40@ApplyWeapo:

; 103  : 	}
; 104  : 
; 105  : 	if( m_pModeParent->GetModeState() != ioPlayMode::MS_PLAY )

  00163	8b 86 8c 00 00
	00		 mov	 eax, DWORD PTR [esi+140]
  00169	8b 40 38	 mov	 eax, DWORD PTR [eax+56]
  0016c	83 f8 01	 cmp	 eax, 1
  0016f	74 0b		 je	 SHORT $LN39@ApplyWeapo

; 106  : 		fDamage = 0.0f;

  00171	0f 57 c0	 xorps	 xmm0, xmm0
  00174	f3 0f 11 85 c4
	7f ff ff	 movss	 DWORD PTR _fDamage$[ebp], xmm0
$LN39@ApplyWeapo:

; 107  : 
; 108  : 	// Block Damage
; 109  : 	float fBlockRate = (float)pWeapon->GetBlockingRate() / FLOAT100;

  0017c	b8 64 00 00 00	 mov	 eax, 100		; 00000064H
  00181	8b cf		 mov	 ecx, edi
  00183	8b d8		 mov	 ebx, eax
  00185	e8 00 00 00 00	 call	 ?GetBlockingRate@ioWeapon@@QBEHXZ ; ioWeapon::GetBlockingRate
  0018a	89 85 bc 7f ff
	ff		 mov	 DWORD PTR tv1167[ebp], eax
  00190	db 85 bc 7f ff
	ff		 fild	 DWORD PTR tv1167[ebp]
  00196	89 9d b8 7f ff
	ff		 mov	 DWORD PTR tv1164[ebp], ebx
  0019c	db 85 b8 7f ff
	ff		 fild	 DWORD PTR tv1164[ebp]
  001a2	85 db		 test	 ebx, ebx
  001a4	79 06		 jns	 SHORT $LN188@ApplyWeapo
  001a6	d8 05 00 00 00
	00		 fadd	 DWORD PTR __real@4f800000
$LN188@ApplyWeapo:
  001ac	de f9		 fdivp	 ST(1), ST(0)

; 110  : 	fDamage *= fBlockRate;
; 111  : 
; 112  : 	ActionStopType eActionStop = pWeapon->GetActionStopType();

  001ae	8b 07		 mov	 eax, DWORD PTR [edi]
  001b0	8b cf		 mov	 ecx, edi
  001b2	d9 9d bc 7f ff
	ff		 fstp	 DWORD PTR _fBlockRate$[ebp]
  001b8	d9 85 bc 7f ff
	ff		 fld	 DWORD PTR _fBlockRate$[ebp]
  001be	d8 8d c4 7f ff
	ff		 fmul	 DWORD PTR _fDamage$[ebp]
  001c4	d9 9d c4 7f ff
	ff		 fstp	 DWORD PTR _fDamage$[ebp]
  001ca	ff 90 14 01 00
	00		 call	 DWORD PTR [eax+276]

; 113  : 	int iShakeCamera = pWeapon->GetShakeCamera();

  001d0	8b cf		 mov	 ecx, edi
  001d2	89 85 ac 7f ff
	ff		 mov	 DWORD PTR _eActionStop$[ebp], eax
  001d8	e8 00 00 00 00	 call	 ?GetShakeCamera@ioWeapon@@QBEHXZ ; ioWeapon::GetShakeCamera

; 114  : 
; 115  : 	if( eActionStop == AST_BOTH || eActionStop == AST_ATTACKER )

  001dd	83 bd ac 7f ff
	ff 01		 cmp	 DWORD PTR _eActionStop$[ebp], 1
  001e4	89 85 b8 7f ff
	ff		 mov	 DWORD PTR _iShakeCamera$[ebp], eax
  001ea	74 09		 je	 SHORT $LN37@ApplyWeapo
  001ec	83 bd ac 7f ff
	ff 02		 cmp	 DWORD PTR _eActionStop$[ebp], 2
  001f3	75 44		 jne	 SHORT $LN38@ApplyWeapo
$LN37@ApplyWeapo:

; 116  : 	{
; 117  : 		pAttacker->SetActionStopDelay( fDamage, false, iShakeCamera );

  001f5	f3 0f 10 85 c4
	7f ff ff	 movss	 xmm0, DWORD PTR _fDamage$[ebp]
  001fd	50		 push	 eax
  001fe	33 db		 xor	 ebx, ebx
  00200	53		 push	 ebx
  00201	51		 push	 ecx
  00202	8b 8d b4 7f ff
	ff		 mov	 ecx, DWORD PTR _pAttacker$[ebp]
  00208	f3 0f 11 04 24	 movss	 DWORD PTR [esp], xmm0
  0020d	e8 00 00 00 00	 call	 ?SetActionStopDelay@ioBaseChar@@QAEXM_NH@Z ; ioBaseChar::SetActionStopDelay

; 118  : 		pWeapon->SetActionStopDuration( ioBaseChar::CalcActionStopDelay( fDamage, false ),
; 119  : 										ioBaseChar::GetActionStopLooseRate( false ) );

  00212	53		 push	 ebx
  00213	e8 00 00 00 00	 call	 ?GetActionStopLooseRate@ioBaseChar@@SAM_N@Z ; ioBaseChar::GetActionStopLooseRate
  00218	d9 1c 24	 fstp	 DWORD PTR [esp]
  0021b	f3 0f 10 85 c4
	7f ff ff	 movss	 xmm0, DWORD PTR _fDamage$[ebp]
  00223	53		 push	 ebx
  00224	51		 push	 ecx
  00225	f3 0f 11 04 24	 movss	 DWORD PTR [esp], xmm0
  0022a	e8 00 00 00 00	 call	 ?CalcActionStopDelay@ioBaseChar@@SAKM_N@Z ; ioBaseChar::CalcActionStopDelay
  0022f	59		 pop	 ecx
  00230	59		 pop	 ecx
  00231	50		 push	 eax
  00232	8b cf		 mov	 ecx, edi
  00234	e8 00 00 00 00	 call	 ?SetActionStopDuration@ioWeapon@@QAEXKM@Z ; ioWeapon::SetActionStopDuration
$LN38@ApplyWeapo:

; 120  : 	}
; 121  : 
; 122  : 	bool bAddDamage = false;
; 123  : 	bool bBlock = false;
; 124  : 	ioSymbolMode *pMode = ToSymbolMode( m_pModeParent );

  00239	ff b6 8c 00 00
	00		 push	 DWORD PTR [esi+140]
  0023f	c6 85 a4 7f ff
	ff 00		 mov	 BYTE PTR _bAddDamage$[ebp], 0
  00246	c6 85 a8 7f ff
	ff 00		 mov	 BYTE PTR _bBlock$[ebp], 0
  0024d	e8 00 00 00 00	 call	 ?ToSymbolMode@@YAPAVioSymbolMode@@PAVioPlayMode@@@Z ; ToSymbolMode
  00252	59		 pop	 ecx
  00253	89 85 c0 7f ff
	ff		 mov	 DWORD PTR _pMode$[ebp], eax

; 125  : 
; 126  : 	if( pWeapon->GetTeam() != GetTeam() )

  00259	8d 85 bc 7f ff
	ff		 lea	 eax, DWORD PTR _value$536145[ebp]
  0025f	8d 4f 30	 lea	 ecx, DWORD PTR [edi+48]
  00262	50		 push	 eax
  00263	e8 00 00 00 00	 call	 ?DecryptValueToPool@?$CEncrypt@W4TeamType@@@@QAEXPAW4TeamType@@@Z ; CEncrypt<enum TeamType>::DecryptValueToPool
  00268	8d 85 c8 7f ff
	ff		 lea	 eax, DWORD PTR _value$536158[ebp]
  0026e	8d 9e 90 00 00
	00		 lea	 ebx, DWORD PTR [esi+144]
  00274	50		 push	 eax
  00275	8b cb		 mov	 ecx, ebx
  00277	e8 00 00 00 00	 call	 ?DecryptValueToPool@?$CEncrypt@W4TeamType@@@@QAEXPAW4TeamType@@@Z ; CEncrypt<enum TeamType>::DecryptValueToPool
  0027c	8b 85 bc 7f ff
	ff		 mov	 eax, DWORD PTR _value$536145[ebp]
  00282	3b 85 c8 7f ff
	ff		 cmp	 eax, DWORD PTR _value$536158[ebp]
  00288	0f 84 9c 00 00
	00		 je	 $LN36@ApplyWeapo

; 127  : 	{
; 128  : 		if( pMode )

  0028e	83 bd c0 7f ff
	ff 00		 cmp	 DWORD PTR _pMode$[ebp], 0
  00295	74 31		 je	 SHORT $LN35@ApplyWeapo

; 129  : 		{
; 130  : 			if( pMode->IsEnableSymbolDamage( this, pWeapon->GetTeam() ) )

  00297	8d 85 c8 7f ff
	ff		 lea	 eax, DWORD PTR _value$536170[ebp]
  0029d	50		 push	 eax
  0029e	8d 4f 30	 lea	 ecx, DWORD PTR [edi+48]
  002a1	e8 00 00 00 00	 call	 ?DecryptValueToPool@?$CEncrypt@W4TeamType@@@@QAEXPAW4TeamType@@@Z ; CEncrypt<enum TeamType>::DecryptValueToPool
  002a6	ff b5 c8 7f ff
	ff		 push	 DWORD PTR _value$536170[ebp]
  002ac	8b 8d c0 7f ff
	ff		 mov	 ecx, DWORD PTR _pMode$[ebp]
  002b2	56		 push	 esi
  002b3	e8 00 00 00 00	 call	 ?IsEnableSymbolDamage@ioSymbolMode@@QAE_NPAVioSymbolStruct@@W4TeamType@@@Z ; ioSymbolMode::IsEnableSymbolDamage
  002b8	84 c0		 test	 al, al

; 131  : 			{
; 132  : 				m_HP.m_fCurValue -= fDamage;
; 133  : 				AddHeadDamageInfo( (int)fDamage );
; 134  : 			}
; 135  : 			else

  002ba	75 0c		 jne	 SHORT $LN35@ApplyWeapo

; 136  : 			{
; 137  : 				bBlock = true;

  002bc	c6 85 a8 7f ff
	ff 01		 mov	 BYTE PTR _bBlock$[ebp], 1

; 138  : 			}
; 139  : 		}
; 140  : 		else

  002c3	e9 95 02 00 00	 jmp	 $LN19@ApplyWeapo
$LN35@ApplyWeapo:

; 141  : 		{
; 142  : 			m_HP.m_fCurValue -= fDamage;

  002c8	8d 85 c0 7f ff
	ff		 lea	 eax, DWORD PTR _value$536182[ebp]
  002ce	8d 9e c0 00 00
	00		 lea	 ebx, DWORD PTR [esi+192]
  002d4	50		 push	 eax
  002d5	8b cb		 mov	 ecx, ebx
  002d7	e8 00 00 00 00	 call	 ?DecryptValueToPool@?$CEncrypt@M@@QAEXPAM@Z ; CEncrypt<float>::DecryptValueToPool
  002dc	f3 0f 10 85 c0
	7f ff ff	 movss	 xmm0, DWORD PTR _value$536182[ebp]
  002e4	f3 0f 10 8d c4
	7f ff ff	 movss	 xmm1, DWORD PTR _fDamage$[ebp]
  002ec	0f 5a c0	 cvtps2pd xmm0, xmm0
  002ef	0f 5a c9	 cvtps2pd xmm1, xmm1
  002f2	8d 85 c0 7f ff
	ff		 lea	 eax, DWORD PTR _value$536182[ebp]
  002f8	f2 0f 5c c1	 subsd	 xmm0, xmm1
  002fc	66 0f 5a c0	 cvtpd2ps xmm0, xmm0
  00300	50		 push	 eax
  00301	8b cb		 mov	 ecx, ebx
  00303	f3 0f 11 85 c0
	7f ff ff	 movss	 DWORD PTR _value$536182[ebp], xmm0
  0030b	e8 00 00 00 00	 call	 ?EncryptValueToPool@?$CEncrypt@M@@AAEXPBD@Z ; CEncrypt<float>::EncryptValueToPool

; 143  : 			AddHeadDamageInfo( (int)fDamage );

  00310	f3 0f 2c 8d c4
	7f ff ff	 cvttss2si ecx, DWORD PTR _fDamage$[ebp]
  00318	8b 06		 mov	 eax, DWORD PTR [esi]
  0031a	6a 00		 push	 0
  0031c	51		 push	 ecx
  0031d	8b ce		 mov	 ecx, esi
  0031f	ff 90 d0 00 00
	00		 call	 DWORD PTR [eax+208]

; 144  : 		}
; 145  : 	}
; 146  : 	else

  00325	e9 33 02 00 00	 jmp	 $LN19@ApplyWeapo
$LN36@ApplyWeapo:

; 147  : 	{
; 148  : 		//      
; 149  : 		if( pMode && GetTeam() == TEAM_RED )

  0032a	83 bd c0 7f ff
	ff 00		 cmp	 DWORD PTR _pMode$[ebp], 0
  00331	74 50		 je	 SHORT $LN171@ApplyWeapo
  00333	8d 85 c8 7f ff
	ff		 lea	 eax, DWORD PTR _value$536193[ebp]
  00339	50		 push	 eax
  0033a	8b cb		 mov	 ecx, ebx
  0033c	e8 00 00 00 00	 call	 ?DecryptValueToPool@?$CEncrypt@W4TeamType@@@@QAEXPAW4TeamType@@@Z ; CEncrypt<enum TeamType>::DecryptValueToPool
  00341	83 bd c8 7f ff
	ff 01		 cmp	 DWORD PTR _value$536193[ebp], 1
  00348	75 04		 jne	 SHORT $LN30@ApplyWeapo

; 150  : 		{
; 151  : 			if( !pMode->IsEnableSymbolDamage( this, TEAM_BLUE ) )

  0034a	6a 02		 push	 2

; 152  : 				bBlock = true;
; 153  : 		}

  0034c	eb 19		 jmp	 SHORT $LN194@ApplyWeapo
$LN30@ApplyWeapo:

; 154  : 		else if( pMode && GetTeam() == TEAM_BLUE )

  0034e	8d 85 c8 7f ff
	ff		 lea	 eax, DWORD PTR _value$536205[ebp]
  00354	50		 push	 eax
  00355	8b cb		 mov	 ecx, ebx
  00357	e8 00 00 00 00	 call	 ?DecryptValueToPool@?$CEncrypt@W4TeamType@@@@QAEXPAW4TeamType@@@Z ; CEncrypt<enum TeamType>::DecryptValueToPool
  0035c	83 bd c8 7f ff
	ff 02		 cmp	 DWORD PTR _value$536205[ebp], 2
  00363	75 1e		 jne	 SHORT $LN171@ApplyWeapo

; 155  : 		{
; 156  : 			if( !pMode->IsEnableSymbolDamage( this, TEAM_RED ) )

  00365	6a 01		 push	 1
$LN194@ApplyWeapo:
  00367	8b 8d c0 7f ff
	ff		 mov	 ecx, DWORD PTR _pMode$[ebp]
  0036d	56		 push	 esi
  0036e	e8 00 00 00 00	 call	 ?IsEnableSymbolDamage@ioSymbolMode@@QAE_NPAVioSymbolStruct@@W4TeamType@@@Z ; ioSymbolMode::IsEnableSymbolDamage
  00373	84 c0		 test	 al, al
  00375	75 0c		 jne	 SHORT $LN171@ApplyWeapo

; 157  : 				bBlock = true;

  00377	c6 85 a8 7f ff
	ff 01		 mov	 BYTE PTR _bBlock$[ebp], 1

; 158  : 		}
; 159  : 
; 160  : 		if( !bBlock )

  0037e	e9 b3 01 00 00	 jmp	 $LN20@ApplyWeapo
$LN171@ApplyWeapo:

; 161  : 		{
; 162  : 			fDamage *= m_fTeamExtraDamageRate;

  00383	8d 85 c8 7f ff
	ff		 lea	 eax, DWORD PTR _value$536211[ebp]
  00389	50		 push	 eax
  0038a	8d 8e 68 02 00
	00		 lea	 ecx, DWORD PTR [esi+616]
  00390	e8 00 00 00 00	 call	 ?DecryptValueToPool@?$CEncrypt@M@@QAEXPAM@Z ; CEncrypt<float>::DecryptValueToPool
  00395	f3 0f 10 8d c4
	7f ff ff	 movss	 xmm1, DWORD PTR _fDamage$[ebp]
  0039d	f3 0f 10 85 c8
	7f ff ff	 movss	 xmm0, DWORD PTR _value$536211[ebp]
  003a5	0f 5a c0	 cvtps2pd xmm0, xmm0
  003a8	0f 5a c9	 cvtps2pd xmm1, xmm1

; 163  : 
; 164  : 			if( m_HP.m_fCurValue < m_HP.m_fMaxValue )

  003ab	8d 85 bc 7f ff
	ff		 lea	 eax, DWORD PTR _value$536215[ebp]
  003b1	f2 0f 59 c1	 mulsd	 xmm0, xmm1
  003b5	66 0f 5a c0	 cvtpd2ps xmm0, xmm0
  003b9	8d 8e f0 00 00
	00		 lea	 ecx, DWORD PTR [esi+240]
  003bf	50		 push	 eax
  003c0	f3 0f 11 85 c4
	7f ff ff	 movss	 DWORD PTR _fDamage$[ebp], xmm0
  003c8	e8 00 00 00 00	 call	 ?DecryptValueToPool@?$CEncrypt@M@@QAEXPAM@Z ; CEncrypt<float>::DecryptValueToPool
  003cd	8d 85 c8 7f ff
	ff		 lea	 eax, DWORD PTR _value$536223[ebp]
  003d3	8d 9e c0 00 00
	00		 lea	 ebx, DWORD PTR [esi+192]
  003d9	50		 push	 eax
  003da	8b cb		 mov	 ecx, ebx
  003dc	e8 00 00 00 00	 call	 ?DecryptValueToPool@?$CEncrypt@M@@QAEXPAM@Z ; CEncrypt<float>::DecryptValueToPool
  003e1	f3 0f 10 85 c8
	7f ff ff	 movss	 xmm0, DWORD PTR _value$536223[ebp]
  003e9	f3 0f 10 8d bc
	7f ff ff	 movss	 xmm1, DWORD PTR _value$536215[ebp]
  003f1	0f 5a c0	 cvtps2pd xmm0, xmm0
  003f4	0f 5a c9	 cvtps2pd xmm1, xmm1
  003f7	66 0f 2f c8	 comisd	 xmm1, xmm0
  003fb	0f 86 23 01 00
	00		 jbe	 $LN24@ApplyWeapo

; 165  : 			{
; 166  : 				if( m_HP.m_fCurValue + fDamage < m_HP.m_fMaxValue )

  00401	8d 85 c8 7f ff
	ff		 lea	 eax, DWORD PTR _value$536227[ebp]
  00407	50		 push	 eax
  00408	8b cb		 mov	 ecx, ebx
  0040a	e8 00 00 00 00	 call	 ?DecryptValueToPool@?$CEncrypt@M@@QAEXPAM@Z ; CEncrypt<float>::DecryptValueToPool
  0040f	f3 0f 10 85 c8
	7f ff ff	 movss	 xmm0, DWORD PTR _value$536227[ebp]
  00417	f3 0f 10 8d c4
	7f ff ff	 movss	 xmm1, DWORD PTR _fDamage$[ebp]
  0041f	0f 5a c0	 cvtps2pd xmm0, xmm0
  00422	0f 5a c9	 cvtps2pd xmm1, xmm1
  00425	8d 85 bc 7f ff
	ff		 lea	 eax, DWORD PTR _value$536232[ebp]
  0042b	f2 0f 58 c1	 addsd	 xmm0, xmm1
  0042f	66 0f 5a c0	 cvtpd2ps xmm0, xmm0
  00433	50		 push	 eax
  00434	8d 8e f0 00 00
	00		 lea	 ecx, DWORD PTR [esi+240]
  0043a	f3 0f 11 85 c8
	7f ff ff	 movss	 DWORD PTR $T536228[ebp], xmm0
  00442	e8 00 00 00 00	 call	 ?DecryptValueToPool@?$CEncrypt@M@@QAEXPAM@Z ; CEncrypt<float>::DecryptValueToPool
  00447	f3 0f 10 85 c8
	7f ff ff	 movss	 xmm0, DWORD PTR $T536228[ebp]
  0044f	f3 0f 10 8d bc
	7f ff ff	 movss	 xmm1, DWORD PTR _value$536232[ebp]
  00457	0f 5a c0	 cvtps2pd xmm0, xmm0
  0045a	0f 5a c9	 cvtps2pd xmm1, xmm1
  0045d	66 0f 2f c8	 comisd	 xmm1, xmm0

; 167  : 				{
; 168  : 					m_HP.m_fCurValue += fDamage;

  00461	8b cb		 mov	 ecx, ebx
  00463	76 42		 jbe	 SHORT $LN23@ApplyWeapo
  00465	8d 85 c0 7f ff
	ff		 lea	 eax, DWORD PTR _value$536236[ebp]
  0046b	50		 push	 eax
  0046c	e8 00 00 00 00	 call	 ?DecryptValueToPool@?$CEncrypt@M@@QAEXPAM@Z ; CEncrypt<float>::DecryptValueToPool
  00471	f3 0f 10 85 c0
	7f ff ff	 movss	 xmm0, DWORD PTR _value$536236[ebp]
  00479	f3 0f 10 8d c4
	7f ff ff	 movss	 xmm1, DWORD PTR _fDamage$[ebp]
  00481	0f 5a c0	 cvtps2pd xmm0, xmm0
  00484	0f 5a c9	 cvtps2pd xmm1, xmm1
  00487	8d 85 c0 7f ff
	ff		 lea	 eax, DWORD PTR _value$536236[ebp]
  0048d	f2 0f 58 c1	 addsd	 xmm0, xmm1
  00491	66 0f 5a c0	 cvtpd2ps xmm0, xmm0
  00495	50		 push	 eax
  00496	8b cb		 mov	 ecx, ebx
  00498	f3 0f 11 85 c0
	7f ff ff	 movss	 DWORD PTR _value$536236[ebp], xmm0
  004a0	e8 00 00 00 00	 call	 ?EncryptValueToPool@?$CEncrypt@M@@AAEXPBD@Z ; CEncrypt<float>::EncryptValueToPool

; 169  : 				}
; 170  : 				else

  004a5	eb 52		 jmp	 SHORT $LN22@ApplyWeapo
$LN23@ApplyWeapo:

; 171  : 				{
; 172  : 					fDamage = m_HP.m_fMaxValue - m_HP.m_fCurValue;

  004a7	8d 85 bc 7f ff
	ff		 lea	 eax, DWORD PTR _value$536241[ebp]
  004ad	50		 push	 eax
  004ae	e8 00 00 00 00	 call	 ?DecryptValueToPool@?$CEncrypt@M@@QAEXPAM@Z ; CEncrypt<float>::DecryptValueToPool
  004b3	8d 85 c8 7f ff
	ff		 lea	 eax, DWORD PTR _value$536245[ebp]
  004b9	50		 push	 eax
  004ba	8d 8e f0 00 00
	00		 lea	 ecx, DWORD PTR [esi+240]
  004c0	e8 00 00 00 00	 call	 ?DecryptValueToPool@?$CEncrypt@M@@QAEXPAM@Z ; CEncrypt<float>::DecryptValueToPool
  004c5	f3 0f 10 85 c8
	7f ff ff	 movss	 xmm0, DWORD PTR _value$536245[ebp]
  004cd	f3 0f 10 8d bc
	7f ff ff	 movss	 xmm1, DWORD PTR _value$536241[ebp]
  004d5	0f 5a c0	 cvtps2pd xmm0, xmm0
  004d8	0f 5a c9	 cvtps2pd xmm1, xmm1

; 173  : 					m_HP.m_fCurValue = m_HP.m_fMaxValue;

  004db	8d 86 f0 00 00
	00		 lea	 eax, DWORD PTR [esi+240]
  004e1	f2 0f 5c c1	 subsd	 xmm0, xmm1
  004e5	66 0f 5a c0	 cvtpd2ps xmm0, xmm0
  004e9	50		 push	 eax
  004ea	8b cb		 mov	 ecx, ebx
  004ec	f3 0f 11 85 c4
	7f ff ff	 movss	 DWORD PTR _fDamage$[ebp], xmm0
  004f4	e8 00 00 00 00	 call	 ??4?$CEncrypt@M@@QAE_NAAV0@@Z ; CEncrypt<float>::operator=
$LN22@ApplyWeapo:

; 174  : 				}
; 175  : 
; 176  : 				if( fDamage > 0.0f )

  004f9	f3 0f 10 85 c4
	7f ff ff	 movss	 xmm0, DWORD PTR _fDamage$[ebp]
  00501	0f 2f 05 00 00
	00 00		 comiss	 xmm0, DWORD PTR __real@00000000
  00508	76 11		 jbe	 SHORT $LN21@ApplyWeapo

; 177  : 				{
; 178  : 					AddHeadDamageInfo( (int)fDamage, true );

  0050a	8b 06		 mov	 eax, DWORD PTR [esi]
  0050c	6a 01		 push	 1
  0050e	f3 0f 2c c8	 cvttss2si ecx, xmm0
  00512	51		 push	 ecx
  00513	8b ce		 mov	 ecx, esi
  00515	ff 90 d0 00 00
	00		 call	 DWORD PTR [eax+208]
$LN21@ApplyWeapo:

; 179  : 				}
; 180  : 				bAddDamage = true;

  0051b	c6 85 a4 7f ff
	ff 01		 mov	 BYTE PTR _bAddDamage$[ebp], 1

; 181  : 			}
; 182  : 			else 

  00522	eb 12		 jmp	 SHORT $LN20@ApplyWeapo
$LN24@ApplyWeapo:

; 183  : 			{
; 184  : 				fDamage    = 0.0f;  

  00524	0f 57 c0	 xorps	 xmm0, xmm0
  00527	f3 0f 11 85 c4
	7f ff ff	 movss	 DWORD PTR _fDamage$[ebp], xmm0

; 185  : 				bAddDamage = false;

  0052f	c6 85 a4 7f ff
	ff 00		 mov	 BYTE PTR _bAddDamage$[ebp], 0
$LN20@ApplyWeapo:

; 186  : 			}
; 187  : 		}
; 188  : 
; 189  : 		//  HP MAX   !
; 190  : 		if( fDamage == 0.0f )

  00536	f3 0f 10 85 c4
	7f ff ff	 movss	 xmm0, DWORD PTR _fDamage$[ebp]
  0053e	0f 2e 05 00 00
	00 00		 ucomiss xmm0, DWORD PTR __real@00000000
  00545	9f		 lahf
  00546	f6 c4 44	 test	 ah, 68			; 00000044H
  00549	7a 12		 jp	 SHORT $LN19@ApplyWeapo

; 191  : 			g_AwardMgr.AddBlockStoneAttack( pWeapon->GetOwnerName() );

  0054b	8d 47 10	 lea	 eax, DWORD PTR [edi+16]
  0054e	6a 01		 push	 1
  00550	50		 push	 eax
  00551	e8 00 00 00 00	 call	 ?GetSingleton@ioAwardManager@@SAAAV1@XZ ; ioAwardManager::GetSingleton
  00556	8b c8		 mov	 ecx, eax
  00558	e8 00 00 00 00	 call	 ?AddBlockStoneAttack@ioAwardManager@@QAEXABVioHashString@@H@Z ; ioAwardManager::AddBlockStoneAttack
$LN19@ApplyWeapo:

; 192  : 	}
; 193  : 
; 194  : 	bool bOnlyEmoticon = true;
; 195  : 	bool bContactType = false;
; 196  : 	if( pWeapon->GetType() == ioWeapon::WT_CONTACT ||
; 197  : 		pWeapon->GetType() == ioWeapon::WT_RUN_CONTACT ||
; 198  : 		pWeapon->GetType() == ioWeapon::WT_CONTACT2 ||
; 199  : 		pWeapon->GetType() == ioWeapon::WT_CONTACT3 )

  0055d	8b 07		 mov	 eax, DWORD PTR [edi]
  0055f	8b cf		 mov	 ecx, edi
  00561	c6 85 c0 7f ff
	ff 01		 mov	 BYTE PTR _bOnlyEmoticon$[ebp], 1
  00568	32 db		 xor	 bl, bl
  0056a	ff 90 10 01 00
	00		 call	 DWORD PTR [eax+272]
  00570	83 f8 01	 cmp	 eax, 1
  00573	74 2d		 je	 SHORT $LN17@ApplyWeapo
  00575	8b 07		 mov	 eax, DWORD PTR [edi]
  00577	8b cf		 mov	 ecx, edi
  00579	ff 90 10 01 00
	00		 call	 DWORD PTR [eax+272]
  0057f	83 f8 1e	 cmp	 eax, 30			; 0000001eH
  00582	74 1e		 je	 SHORT $LN17@ApplyWeapo
  00584	8b 07		 mov	 eax, DWORD PTR [edi]
  00586	8b cf		 mov	 ecx, edi
  00588	ff 90 10 01 00
	00		 call	 DWORD PTR [eax+272]
  0058e	83 f8 2b	 cmp	 eax, 43			; 0000002bH
  00591	74 0f		 je	 SHORT $LN17@ApplyWeapo
  00593	8b 07		 mov	 eax, DWORD PTR [edi]
  00595	8b cf		 mov	 ecx, edi
  00597	ff 90 10 01 00
	00		 call	 DWORD PTR [eax+272]
  0059d	83 f8 68	 cmp	 eax, 104		; 00000068H
  005a0	75 02		 jne	 SHORT $LN18@ApplyWeapo
$LN17@ApplyWeapo:

; 200  : 		bContactType = true;

  005a2	b3 01		 mov	 bl, 1
$LN18@ApplyWeapo:

; 201  : 
; 202  : 	if( m_HP.m_fCurValue > 0.0f )

  005a4	8d 85 c8 7f ff
	ff		 lea	 eax, DWORD PTR _value$536256[ebp]
  005aa	8d 8e c0 00 00
	00		 lea	 ecx, DWORD PTR [esi+192]
  005b0	50		 push	 eax
  005b1	e8 00 00 00 00	 call	 ?DecryptValueToPool@?$CEncrypt@M@@QAEXPAM@Z ; CEncrypt<float>::DecryptValueToPool
  005b6	f3 0f 10 85 c8
	7f ff ff	 movss	 xmm0, DWORD PTR _value$536256[ebp]
  005be	0f 2f 05 00 00
	00 00		 comiss	 xmm0, DWORD PTR __real@00000000
  005c5	0f 86 2b 04 00
	00		 jbe	 $LN16@ApplyWeapo

; 203  : 	{
; 204  : 		if( bBlock )

  005cb	80 bd a8 7f ff
	ff 00		 cmp	 BYTE PTR _bBlock$[ebp], 0
  005d2	0f 84 77 01 00
	00		 je	 $LN10@ApplyWeapo

; 205  : 		{
; 206  : 			if( bContactType && !pWeapon->CheckWeaponBySkill() )

  005d8	84 db		 test	 bl, bl
  005da	0f 84 22 01 00
	00		 je	 $LN13@ApplyWeapo
  005e0	80 bf 7e 05 00
	00 00		 cmp	 BYTE PTR [edi+1406], 0
  005e7	0f 85 15 01 00
	00		 jne	 $LN13@ApplyWeapo

; 207  : 			{
; 208  : 				if( pAttacker->IsEnableAttackCancelState() && !pWeapon->IsChangeJumpping( false, false )
; 209  : 					&& !pAttacker->IgnoreBlock() )

  005ed	8b 8d b4 7f ff
	ff		 mov	 ecx, DWORD PTR _pAttacker$[ebp]
  005f3	e8 00 00 00 00	 call	 ?IsEnableAttackCancelState@ioBaseChar@@QAE_NXZ ; ioBaseChar::IsEnableAttackCancelState
  005f8	84 c0		 test	 al, al
  005fa	0f 84 02 01 00
	00		 je	 $LN13@ApplyWeapo
  00600	6a 00		 push	 0
  00602	6a 00		 push	 0
  00604	8b cf		 mov	 ecx, edi
  00606	e8 00 00 00 00	 call	 ?IsChangeJumpping@ioWeapon@@QAE_N_N0@Z ; ioWeapon::IsChangeJumpping
  0060b	84 c0		 test	 al, al
  0060d	0f 85 ef 00 00
	00		 jne	 $LN13@ApplyWeapo
  00613	8b 8d b4 7f ff
	ff		 mov	 ecx, DWORD PTR _pAttacker$[ebp]
  00619	e8 00 00 00 00	 call	 ?IgnoreBlock@ioBaseChar@@QAE_NXZ ; ioBaseChar::IgnoreBlock
  0061e	84 c0		 test	 al, al
  00620	0f 85 dc 00 00
	00		 jne	 $LN13@ApplyWeapo

; 210  : 				{
; 211  : 					pAttacker->AddNewBuff( m_BlockBuff, "", "", NULL );

  00626	8b 1d 00 00 00
	00		 mov	 ebx, DWORD PTR __imp_??0ioHashString@@QAE@PBD@Z
  0062c	68 00 00 00 00	 push	 OFFSET ??_C@_00CNPNBAHC@?$AA@
  00631	8d 8d 90 7f ff
	ff		 lea	 ecx, DWORD PTR $T536098[ebp]
  00637	ff d3		 call	 ebx
  00639	83 65 fc 00	 and	 DWORD PTR __$EHRec$[ebp+8], 0
  0063d	68 00 00 00 00	 push	 OFFSET ??_C@_00CNPNBAHC@?$AA@
  00642	8d 8d 80 7f ff
	ff		 lea	 ecx, DWORD PTR $T536099[ebp]
  00648	ff d3		 call	 ebx
  0064a	8b 8d b4 7f ff
	ff		 mov	 ecx, DWORD PTR _pAttacker$[ebp]
  00650	6a 00		 push	 0
  00652	6a 00		 push	 0
  00654	8d 85 90 7f ff
	ff		 lea	 eax, DWORD PTR $T536098[ebp]
  0065a	50		 push	 eax
  0065b	8d 85 80 7f ff
	ff		 lea	 eax, DWORD PTR $T536099[ebp]
  00661	50		 push	 eax
  00662	8d 86 60 05 00
	00		 lea	 eax, DWORD PTR [esi+1376]
  00668	50		 push	 eax
  00669	c6 45 fc 01	 mov	 BYTE PTR __$EHRec$[ebp+8], 1
  0066d	e8 00 00 00 00	 call	 ?AddNewBuff@ioBaseChar@@QAEPAVioBuff@@ABVioHashString@@00PAVioSkill@@_N@Z ; ioBaseChar::AddNewBuff
  00672	8b 1d 00 00 00
	00		 mov	 ebx, DWORD PTR __imp_??1ioHashString@@QAE@XZ
  00678	8d 8d 80 7f ff
	ff		 lea	 ecx, DWORD PTR $T536099[ebp]
  0067e	c6 45 fc 00	 mov	 BYTE PTR __$EHRec$[ebp+8], 0
  00682	ff d3		 call	 ebx
  00684	83 4d fc ff	 or	 DWORD PTR __$EHRec$[ebp+8], -1
  00688	8d 8d 90 7f ff
	ff		 lea	 ecx, DWORD PTR $T536098[ebp]
  0068e	ff d3		 call	 ebx

; 212  : 					pAttacker->ReverseReflectPush( vAttackDir, fPushPower * FLOAT05 );

  00690	b8 05 00 00 00	 mov	 eax, 5
  00695	8b c8		 mov	 ecx, eax
  00697	b8 0a 00 00 00	 mov	 eax, 10			; 0000000aH
  0069c	89 8d c8 7f ff
	ff		 mov	 DWORD PTR tv1089[ebp], ecx
  006a2	db 85 c8 7f ff
	ff		 fild	 DWORD PTR tv1089[ebp]
  006a8	85 c9		 test	 ecx, ecx
  006aa	79 06		 jns	 SHORT $LN189@ApplyWeapo
  006ac	d8 05 00 00 00
	00		 fadd	 DWORD PTR __real@4f800000
$LN189@ApplyWeapo:
  006b2	89 85 c8 7f ff
	ff		 mov	 DWORD PTR tv1085[ebp], eax
  006b8	db 85 c8 7f ff
	ff		 fild	 DWORD PTR tv1085[ebp]
  006be	85 c0		 test	 eax, eax
  006c0	79 06		 jns	 SHORT $LN190@ApplyWeapo
  006c2	d8 05 00 00 00
	00		 fadd	 DWORD PTR __real@4f800000
$LN190@ApplyWeapo:
  006c8	de f9		 fdivp	 ST(1), ST(0)
  006ca	51		 push	 ecx
  006cb	8b 8d b4 7f ff
	ff		 mov	 ecx, DWORD PTR _pAttacker$[ebp]
  006d1	8d 45 e4	 lea	 eax, DWORD PTR _vAttackDir$[ebp]
  006d4	d9 9d c8 7f ff
	ff		 fstp	 DWORD PTR tv1081[ebp]
  006da	d9 85 c8 7f ff
	ff		 fld	 DWORD PTR tv1081[ebp]
  006e0	d8 8d a0 7f ff
	ff		 fmul	 DWORD PTR _fPushPower$[ebp]
  006e6	d9 9d c8 7f ff
	ff		 fstp	 DWORD PTR tv1077[ebp]
  006ec	d9 85 c8 7f ff
	ff		 fld	 DWORD PTR tv1077[ebp]
  006f2	d9 1c 24	 fstp	 DWORD PTR [esp]
  006f5	50		 push	 eax
  006f6	e8 00 00 00 00	 call	 ?ReverseReflectPush@ioBaseChar@@QAEXABUD3DXVECTOR3@@M@Z ; ioBaseChar::ReverseReflectPush

; 213  : 					bOnlyEmoticon = false;

  006fb	c6 85 c0 7f ff
	ff 00		 mov	 BYTE PTR _bOnlyEmoticon$[ebp], 0
$LN13@ApplyWeapo:

; 214  : 				}
; 215  : 			}
; 216  : 
; 217  : 			if( pAttacker->IsOwnerChar() )

  00702	8b 9d b4 7f ff
	ff		 mov	 ebx, DWORD PTR _pAttacker$[ebp]
  00708	80 bb 84 13 00
	00 00		 cmp	 BYTE PTR [ebx+4996], 0
  0070f	74 3e		 je	 SHORT $LN10@ApplyWeapo

; 218  : 			{
; 219  : 				if( GetTeam() == pWeapon->GetTeam() )

  00711	8d 85 c8 7f ff
	ff		 lea	 eax, DWORD PTR _value$536282[ebp]
  00717	50		 push	 eax
  00718	8d 8e 90 00 00
	00		 lea	 ecx, DWORD PTR [esi+144]
  0071e	e8 00 00 00 00	 call	 ?DecryptValueToPool@?$CEncrypt@W4TeamType@@@@QAEXPAW4TeamType@@@Z ; CEncrypt<enum TeamType>::DecryptValueToPool
  00723	8d 85 bc 7f ff
	ff		 lea	 eax, DWORD PTR _value$536295[ebp]
  00729	50		 push	 eax
  0072a	8d 4f 30	 lea	 ecx, DWORD PTR [edi+48]
  0072d	e8 00 00 00 00	 call	 ?DecryptValueToPool@?$CEncrypt@W4TeamType@@@@QAEXPAW4TeamType@@@Z ; CEncrypt<enum TeamType>::DecryptValueToPool
  00732	8b 85 c8 7f ff
	ff		 mov	 eax, DWORD PTR _value$536282[ebp]

; 220  : 					pAttacker->CheckNamedEmoticon( ioModeHelpManager::HT_TEAM_SYMBOL_ATTACK, false );

  00738	6a 00		 push	 0
  0073a	8b cb		 mov	 ecx, ebx
  0073c	3b 85 bc 7f ff
	ff		 cmp	 eax, DWORD PTR _value$536295[ebp]
  00742	75 04		 jne	 SHORT $LN11@ApplyWeapo
  00744	6a 07		 push	 7

; 221  : 				else

  00746	eb 02		 jmp	 SHORT $LN195@ApplyWeapo
$LN11@ApplyWeapo:

; 222  : 					pAttacker->CheckNamedEmoticon( ioModeHelpManager::HT_SYMBOL_ATTACK, false );

  00748	6a 05		 push	 5
$LN195@ApplyWeapo:
  0074a	e8 00 00 00 00	 call	 ?CheckNamedEmoticon@ioBaseChar@@QAEXH_N@Z ; ioBaseChar::CheckNamedEmoticon
$LN10@ApplyWeapo:

; 223  : 			}
; 224  : 		}
; 225  : 
; 226  : 		SetWoundedState();

  0074f	8b ce		 mov	 ecx, esi
  00751	e8 00 00 00 00	 call	 ?SetWoundedState@ioSymbolStruct@@QAEXXZ ; ioSymbolStruct::SetWoundedState

; 227  : 
; 228  : 		ioSymbolMode *pSymbolMode = ToSymbolMode( m_pModeParent );

  00756	ff b6 8c 00 00
	00		 push	 DWORD PTR [esi+140]
  0075c	e8 00 00 00 00	 call	 ?ToSymbolMode@@YAPAVioSymbolMode@@PAVioPlayMode@@@Z ; ToSymbolMode
  00761	59		 pop	 ecx

; 229  : 		if( pSymbolMode )

  00762	85 c0		 test	 eax, eax
  00764	74 1c		 je	 SHORT $LN9@ApplyWeapo

; 230  : 			pSymbolMode->NotifySymbolWounded( this, pAttacker, fDamage );

  00766	f3 0f 10 85 c4
	7f ff ff	 movss	 xmm0, DWORD PTR _fDamage$[ebp]
  0076e	51		 push	 ecx
  0076f	f3 0f 11 04 24	 movss	 DWORD PTR [esp], xmm0
  00774	ff b5 b4 7f ff
	ff		 push	 DWORD PTR _pAttacker$[ebp]
  0077a	8b c8		 mov	 ecx, eax
  0077c	56		 push	 esi
  0077d	e8 00 00 00 00	 call	 ?NotifySymbolWounded@ioSymbolMode@@QAEXPAVioSymbolStruct@@PAVioBaseChar@@M@Z ; ioSymbolMode::NotifySymbolWounded
$LN9@ApplyWeapo:

; 231  : 
; 232  : 		int iWeaponType = (int)pWeapon->GetType();

  00782	8b 07		 mov	 eax, DWORD PTR [edi]
  00784	8b cf		 mov	 ecx, edi
  00786	ff 90 10 01 00
	00		 call	 DWORD PTR [eax+272]
  0078c	89 85 bc 7f ff
	ff		 mov	 DWORD PTR _iWeaponType$530549[ebp], eax

; 233  : 		if( P2PNetwork::IsNetworkPlaying() && m_pModeParent->IsNetworkMode() )

  00792	e8 00 00 00 00	 call	 ?IsNetworkPlaying@P2PNetwork@@YA_NXZ ; P2PNetwork::IsNetworkPlaying
  00797	84 c0		 test	 al, al
  00799	0f 84 bf 02 00
	00		 je	 $LN4@ApplyWeapo
  0079f	8b 8e 8c 00 00
	00		 mov	 ecx, DWORD PTR [esi+140]
  007a5	8b 01		 mov	 eax, DWORD PTR [ecx]
  007a7	ff 50 40	 call	 DWORD PTR [eax+64]
  007aa	84 c0		 test	 al, al
  007ac	0f 84 ac 02 00
	00		 je	 $LN4@ApplyWeapo

; 234  : 		{
; 235  : 			SP2Packet kPacket( CUPK_SYMBOL_DAMAMGED );

  007b2	68 24 41 00 00	 push	 16676			; 00004124H
  007b7	8d 8d cc 7f ff
	ff		 lea	 ecx, DWORD PTR _kPacket$530552[ebp]
  007bd	e8 00 00 00 00	 call	 ??0SP2Packet@@QAE@K@Z	; SP2Packet::SP2Packet

; 236  : 			kPacket << pWeapon->GetOwnerName();

  007c2	8d 5f 10	 lea	 ebx, DWORD PTR [edi+16]
  007c5	53		 push	 ebx
  007c6	8d 8d cc 7f ff
	ff		 lea	 ecx, DWORD PTR _kPacket$530552[ebp]
  007cc	c7 45 fc 02 00
	00 00		 mov	 DWORD PTR __$EHRec$[ebp+8], 2
  007d3	e8 00 00 00 00	 call	 ??6SP2Packet@@QAEAAV0@ABVioHashString@@@Z ; SP2Packet::operator<<

; 237  : 			kPacket << m_iArrayIndex;

  007d8	ff b6 c8 01 00
	00		 push	 DWORD PTR [esi+456]
  007de	8d 8d cc 7f ff
	ff		 lea	 ecx, DWORD PTR _kPacket$530552[ebp]
  007e4	e8 00 00 00 00	 call	 ??6SP2Packet@@QAEAAV0@H@Z ; SP2Packet::operator<<

; 238  : 			kPacket << iWeaponType;

  007e9	ff b5 bc 7f ff
	ff		 push	 DWORD PTR _iWeaponType$530549[ebp]
  007ef	8d 8d cc 7f ff
	ff		 lea	 ecx, DWORD PTR _kPacket$530552[ebp]
  007f5	e8 00 00 00 00	 call	 ??6SP2Packet@@QAEAAV0@H@Z ; SP2Packet::operator<<

; 239  : 			kPacket << m_iRevivalCnt;

  007fa	ff b6 70 05 00
	00		 push	 DWORD PTR [esi+1392]
  00800	8d 8d cc 7f ff
	ff		 lea	 ecx, DWORD PTR _kPacket$530552[ebp]
  00806	e8 00 00 00 00	 call	 ??6SP2Packet@@QAEAAV0@H@Z ; SP2Packet::operator<<

; 240  : 			kPacket << m_HP.m_fMaxValue;

  0080b	8d 86 f0 00 00
	00		 lea	 eax, DWORD PTR [esi+240]
  00811	50		 push	 eax
  00812	8d 8d cc 7f ff
	ff		 lea	 ecx, DWORD PTR _kPacket$530552[ebp]
  00818	e8 00 00 00 00	 call	 ??6SP2Packet@@QAEAAV0@AAV?$CEncrypt@M@@@Z ; SP2Packet::operator<<

; 241  : 			kPacket << bBlock;

  0081d	ff b5 a8 7f ff
	ff		 push	 DWORD PTR _bBlock$[ebp]
  00823	8d 8d cc 7f ff
	ff		 lea	 ecx, DWORD PTR _kPacket$530552[ebp]
  00829	e8 00 00 00 00	 call	 ??6SP2Packet@@QAEAAV0@_N@Z ; SP2Packet::operator<<

; 242  : 			kPacket << bOnlyEmoticon;

  0082e	ff b5 c0 7f ff
	ff		 push	 DWORD PTR _bOnlyEmoticon$[ebp]
  00834	8d 8d cc 7f ff
	ff		 lea	 ecx, DWORD PTR _kPacket$530552[ebp]
  0083a	e8 00 00 00 00	 call	 ??6SP2Packet@@QAEAAV0@_N@Z ; SP2Packet::operator<<

; 243  : 			kPacket << vAttackDir;

  0083f	8d 45 e4	 lea	 eax, DWORD PTR _vAttackDir$[ebp]
  00842	50		 push	 eax
  00843	8d 8d cc 7f ff
	ff		 lea	 ecx, DWORD PTR _kPacket$530552[ebp]
  00849	e8 00 00 00 00	 call	 ??6SP2Packet@@QAEAAV0@ABUD3DXVECTOR3@@@Z ; SP2Packet::operator<<

; 244  : 			kPacket << pWeapon->GetTeam();

  0084e	8d 85 c8 7f ff
	ff		 lea	 eax, DWORD PTR _value$536310[ebp]
  00854	50		 push	 eax
  00855	8d 4f 30	 lea	 ecx, DWORD PTR [edi+48]
  00858	e8 00 00 00 00	 call	 ?DecryptValueToPool@?$CEncrypt@W4TeamType@@@@QAEXPAW4TeamType@@@Z ; CEncrypt<enum TeamType>::DecryptValueToPool
  0085d	ff b5 c8 7f ff
	ff		 push	 DWORD PTR _value$536310[ebp]
  00863	8d 8d cc 7f ff
	ff		 lea	 ecx, DWORD PTR _kPacket$530552[ebp]
  00869	e8 00 00 00 00	 call	 ??6SP2Packet@@QAEAAV0@H@Z ; SP2Packet::operator<<

; 245  : 			kPacket << bAddDamage;

  0086e	ff b5 a4 7f ff
	ff		 push	 DWORD PTR _bAddDamage$[ebp]
  00874	8d 8d cc 7f ff
	ff		 lea	 ecx, DWORD PTR _kPacket$530552[ebp]
  0087a	e8 00 00 00 00	 call	 ??6SP2Packet@@QAEAAV0@_N@Z ; SP2Packet::operator<<

; 246  : 			kPacket << fDamage;

  0087f	f3 0f 10 85 c4
	7f ff ff	 movss	 xmm0, DWORD PTR _fDamage$[ebp]
  00887	51		 push	 ecx
  00888	8d 8d cc 7f ff
	ff		 lea	 ecx, DWORD PTR _kPacket$530552[ebp]
  0088e	f3 0f 11 04 24	 movss	 DWORD PTR [esp], xmm0
  00893	e8 00 00 00 00	 call	 ??6SP2Packet@@QAEAAV0@M@Z ; SP2Packet::operator<<

; 247  : 			kPacket << fPushPower;

  00898	f3 0f 10 85 a0
	7f ff ff	 movss	 xmm0, DWORD PTR _fPushPower$[ebp]
  008a0	51		 push	 ecx
  008a1	8d 8d cc 7f ff
	ff		 lea	 ecx, DWORD PTR _kPacket$530552[ebp]
  008a7	f3 0f 11 04 24	 movss	 DWORD PTR [esp], xmm0
  008ac	e8 00 00 00 00	 call	 ??6SP2Packet@@QAEAAV0@M@Z ; SP2Packet::operator<<

; 248  : 			kPacket << (int)eActionStop;

  008b1	ff b5 ac 7f ff
	ff		 push	 DWORD PTR _eActionStop$[ebp]
  008b7	8d 8d cc 7f ff
	ff		 lea	 ecx, DWORD PTR _kPacket$530552[ebp]
  008bd	e8 00 00 00 00	 call	 ??6SP2Packet@@QAEAAV0@H@Z ; SP2Packet::operator<<

; 249  : 			kPacket << iShakeCamera;

  008c2	ff b5 b8 7f ff
	ff		 push	 DWORD PTR _iShakeCamera$[ebp]
  008c8	8d 8d cc 7f ff
	ff		 lea	 ecx, DWORD PTR _kPacket$530552[ebp]
  008ce	e8 00 00 00 00	 call	 ??6SP2Packet@@QAEAAV0@H@Z ; SP2Packet::operator<<

; 250  : 			kPacket << pWeapon->GetWeaponIndex();

  008d3	ff b7 b8 04 00
	00		 push	 DWORD PTR [edi+1208]
  008d9	8d 8d cc 7f ff
	ff		 lea	 ecx, DWORD PTR _kPacket$530552[ebp]
  008df	e8 00 00 00 00	 call	 ??6SP2Packet@@QAEAAV0@K@Z ; SP2Packet::operator<<

; 251  : 			P2PNetwork::SendToAllPlayingUser( kPacket );

  008e4	8d 85 cc 7f ff
	ff		 lea	 eax, DWORD PTR _kPacket$530552[ebp]
  008ea	6a 00		 push	 0
  008ec	50		 push	 eax
  008ed	e8 00 00 00 00	 call	 ?SendToAllPlayingUser@P2PNetwork@@YAXAAVSP2Packet@@PAVioBaseChar@@@Z ; P2PNetwork::SendToAllPlayingUser

; 252  : 
; 253  : 			g_AbuseMgr.AddDamage( (int)fDamage );

  008f2	f3 0f 2c 85 c4
	7f ff ff	 cvttss2si eax, DWORD PTR _fDamage$[ebp]
  008fa	59		 pop	 ecx
  008fb	59		 pop	 ecx
  008fc	50		 push	 eax
  008fd	e8 00 00 00 00	 call	 ?GetSingleton@ioAbuseManager@@SAAAV1@XZ ; ioAbuseManager::GetSingleton
  00902	8b c8		 mov	 ecx, eax
  00904	e8 00 00 00 00	 call	 ?AddDamage@ioAbuseManager@@QAEXH@Z ; ioAbuseManager::AddDamage

; 254  : 
; 255  : 			ioSymbolMode *pSymbolMode = ToSymbolMode( m_pModeParent );

  00909	ff b6 8c 00 00
	00		 push	 DWORD PTR [esi+140]
  0090f	e8 00 00 00 00	 call	 ?ToSymbolMode@@YAPAVioSymbolMode@@PAVioPlayMode@@@Z ; ToSymbolMode
  00914	59		 pop	 ecx
  00915	89 85 c8 7f ff
	ff		 mov	 DWORD PTR _pSymbolMode$530555[ebp], eax

; 256  : 			if( pSymbolMode && fDamage > 0.0f && !bBlock )

  0091b	85 c0		 test	 eax, eax
  0091d	0f 84 c2 00 00
	00		 je	 $LN6@ApplyWeapo
  00923	f3 0f 10 85 c4
	7f ff ff	 movss	 xmm0, DWORD PTR _fDamage$[ebp]
  0092b	0f 2f 05 00 00
	00 00		 comiss	 xmm0, DWORD PTR __real@00000000
  00932	0f 86 ad 00 00
	00		 jbe	 $LN6@ApplyWeapo
  00938	80 bd a8 7f ff
	ff 00		 cmp	 BYTE PTR _bBlock$[ebp], 0
  0093f	0f 85 a0 00 00
	00		 jne	 $LN6@ApplyWeapo

; 257  : 			{
; 258  : 				pSymbolMode->SymbolDamageContribute( GetTeam(), pWeapon->GetOwnerName(), fDamage, iWeaponType );

  00945	ff b5 bc 7f ff
	ff		 push	 DWORD PTR _iWeaponType$530549[ebp]
  0094b	d9 85 c4 7f ff
	ff		 fld	 DWORD PTR _fDamage$[ebp]
  00951	83 ec 14	 sub	 esp, 20			; 00000014H
  00954	d9 5c 24 10	 fstp	 DWORD PTR [esp+16]
  00958	8b cc		 mov	 ecx, esp
  0095a	89 a5 bc 7f ff
	ff		 mov	 DWORD PTR $T536100[ebp], esp
  00960	53		 push	 ebx
  00961	ff 15 00 00 00
	00		 call	 DWORD PTR __imp_??0ioHashString@@QAE@ABV0@@Z
  00967	8d 85 b8 7f ff
	ff		 lea	 eax, DWORD PTR _value$536329[ebp]
  0096d	50		 push	 eax
  0096e	8d 8e 90 00 00
	00		 lea	 ecx, DWORD PTR [esi+144]
  00974	c6 45 fc 03	 mov	 BYTE PTR __$EHRec$[ebp+8], 3
  00978	e8 00 00 00 00	 call	 ?DecryptValueToPool@?$CEncrypt@W4TeamType@@@@QAEXPAW4TeamType@@@Z ; CEncrypt<enum TeamType>::DecryptValueToPool
  0097d	ff b5 b8 7f ff
	ff		 push	 DWORD PTR _value$536329[ebp]
  00983	8b 8d c8 7f ff
	ff		 mov	 ecx, DWORD PTR _pSymbolMode$530555[ebp]
  00989	c6 45 fc 02	 mov	 BYTE PTR __$EHRec$[ebp+8], 2
  0098d	e8 00 00 00 00	 call	 ?SymbolDamageContribute@ioSymbolMode@@QAEXW4TeamType@@VioHashString@@MH@Z ; ioSymbolMode::SymbolDamageContribute

; 259  : 
; 260  : 				if( GetTeam() != pWeapon->GetTeam() )

  00992	8d 85 b8 7f ff
	ff		 lea	 eax, DWORD PTR _value$536342[ebp]
  00998	50		 push	 eax
  00999	8d 8e 90 00 00
	00		 lea	 ecx, DWORD PTR [esi+144]
  0099f	e8 00 00 00 00	 call	 ?DecryptValueToPool@?$CEncrypt@W4TeamType@@@@QAEXPAW4TeamType@@@Z ; CEncrypt<enum TeamType>::DecryptValueToPool
  009a4	8d 85 c8 7f ff
	ff		 lea	 eax, DWORD PTR _value$536355[ebp]
  009aa	50		 push	 eax
  009ab	8d 4f 30	 lea	 ecx, DWORD PTR [edi+48]
  009ae	e8 00 00 00 00	 call	 ?DecryptValueToPool@?$CEncrypt@W4TeamType@@@@QAEXPAW4TeamType@@@Z ; CEncrypt<enum TeamType>::DecryptValueToPool
  009b3	8b 85 b8 7f ff
	ff		 mov	 eax, DWORD PTR _value$536342[ebp]
  009b9	3b 85 c8 7f ff
	ff		 cmp	 eax, DWORD PTR _value$536355[ebp]
  009bf	74 24		 je	 SHORT $LN6@ApplyWeapo

; 261  : 				{
; 262  : 					g_ModeUIController.SetSymbolAttack( GetTeam() );

  009c1	8d 85 b8 7f ff
	ff		 lea	 eax, DWORD PTR _value$536367[ebp]
  009c7	50		 push	 eax
  009c8	8d 8e 90 00 00
	00		 lea	 ecx, DWORD PTR [esi+144]
  009ce	e8 00 00 00 00	 call	 ?DecryptValueToPool@?$CEncrypt@W4TeamType@@@@QAEXPAW4TeamType@@@Z ; CEncrypt<enum TeamType>::DecryptValueToPool
  009d3	ff b5 b8 7f ff
	ff		 push	 DWORD PTR _value$536367[ebp]
  009d9	e8 00 00 00 00	 call	 ?GetSingleton@ioModeUIController@@SAAAV1@XZ ; ioModeUIController::GetSingleton
  009de	8b c8		 mov	 ecx, eax
  009e0	e8 00 00 00 00	 call	 ?SetSymbolAttack@ioModeUIController@@QAEXW4TeamType@@@Z ; ioModeUIController::SetSymbolAttack
$LN6@ApplyWeapo:

; 263  : 				}
; 264  : 			}
; 265  : 		}

  009e5	83 4d fc ff	 or	 DWORD PTR __$EHRec$[ebp+8], -1
  009e9	8d 8d cc 7f ff
	ff		 lea	 ecx, DWORD PTR _kPacket$530552[ebp]
  009ef	e8 00 00 00 00	 call	 ??1SP2Packet@@UAE@XZ	; SP2Packet::~SP2Packet

; 266  : 	}
; 267  : 	else

  009f4	eb 68		 jmp	 SHORT $LN4@ApplyWeapo
$LN16@ApplyWeapo:

; 268  : 	{
; 269  : 		if( !m_bDie )

  009f6	80 be 99 05 00
	00 00		 cmp	 BYTE PTR [esi+1433], 0
  009fd	75 5f		 jne	 SHORT $LN4@ApplyWeapo

; 270  : 		{
; 271  : 			m_pModeParent->NotifyEntityDie( this, pAttacker, NULL, FLOAT1, FLOAT1 );

  009ff	b8 01 00 00 00	 mov	 eax, 1
  00a04	8b d0		 mov	 edx, eax
  00a06	b8 01 00 00 00	 mov	 eax, 1
  00a0b	8b 8e 8c 00 00
	00		 mov	 ecx, DWORD PTR [esi+140]
  00a11	8b 19		 mov	 ebx, DWORD PTR [ecx]
  00a13	89 95 b8 7f ff
	ff		 mov	 DWORD PTR tv1041[ebp], edx
  00a19	db 85 b8 7f ff
	ff		 fild	 DWORD PTR tv1041[ebp]
  00a1f	85 d2		 test	 edx, edx
  00a21	79 06		 jns	 SHORT $LN191@ApplyWeapo
  00a23	d8 05 00 00 00
	00		 fadd	 DWORD PTR __real@4f800000
$LN191@ApplyWeapo:
  00a29	51		 push	 ecx
  00a2a	51		 push	 ecx
  00a2b	d9 5c 24 04	 fstp	 DWORD PTR [esp+4]
  00a2f	89 85 b8 7f ff
	ff		 mov	 DWORD PTR tv1039[ebp], eax
  00a35	db 85 b8 7f ff
	ff		 fild	 DWORD PTR tv1039[ebp]
  00a3b	85 c0		 test	 eax, eax
  00a3d	79 06		 jns	 SHORT $LN192@ApplyWeapo
  00a3f	d8 05 00 00 00
	00		 fadd	 DWORD PTR __real@4f800000
$LN192@ApplyWeapo:
  00a45	d9 1c 24	 fstp	 DWORD PTR [esp]
  00a48	6a 00		 push	 0
  00a4a	ff b5 b4 7f ff
	ff		 push	 DWORD PTR _pAttacker$[ebp]
  00a50	56		 push	 esi
  00a51	ff 93 bc 00 00
	00		 call	 DWORD PTR [ebx+188]

; 272  : 			m_bDie = true;

  00a57	c6 86 99 05 00
	00 01		 mov	 BYTE PTR [esi+1433], 1
$LN4@ApplyWeapo:

; 273  : 		}
; 274  : 	}
; 275  : 
; 276  : 	if( pAttacker->IsOwnerChar() )

  00a5e	8b 9d b4 7f ff
	ff		 mov	 ebx, DWORD PTR _pAttacker$[ebp]
  00a64	80 bb 84 13 00
	00 00		 cmp	 BYTE PTR [ebx+4996], 0
  00a6b	74 50		 je	 SHORT $LN2@ApplyWeapo

; 277  : 	{
; 278  : 		// ChangeJumpping
; 279  : 		if( pWeapon && pWeapon->IsChangeJumpping( false, false ) )

  00a6d	6a 00		 push	 0
  00a6f	6a 00		 push	 0
  00a71	8b cf		 mov	 ecx, edi
  00a73	e8 00 00 00 00	 call	 ?IsChangeJumpping@ioWeapon@@QAE_N_N0@Z ; ioWeapon::IsChangeJumpping
  00a78	84 c0		 test	 al, al
  00a7a	74 41		 je	 SHORT $LN2@ApplyWeapo

; 280  : 		{
; 281  : 			int iLimitCnt = pWeapon->GetChangeJumppingLimitCnt();

  00a7c	8d 85 b8 7f ff
	ff		 lea	 eax, DWORD PTR _value$536392[ebp]
  00a82	50		 push	 eax
  00a83	8d 8f dc 05 00
	00		 lea	 ecx, DWORD PTR [edi+1500]
  00a89	e8 00 00 00 00	 call	 ?DecryptValueToPool@?$CEncrypt@H@@QAEXPAH@Z ; CEncrypt<int>::DecryptValueToPool

; 282  : 			pAttacker->SetChangeJumppingState( pWeapon->GetChangeJumppingPowerRate(), true, iLimitCnt );

  00a8e	8d 85 c8 7f ff
	ff		 lea	 eax, DWORD PTR _value$536404[ebp]
  00a94	50		 push	 eax
  00a95	8d 8f ac 05 00
	00		 lea	 ecx, DWORD PTR [edi+1452]
  00a9b	e8 00 00 00 00	 call	 ?DecryptValueToPool@?$CEncrypt@M@@QAEXPAM@Z ; CEncrypt<float>::DecryptValueToPool
  00aa0	ff b5 b8 7f ff
	ff		 push	 DWORD PTR _value$536392[ebp]
  00aa6	f3 0f 10 85 c8
	7f ff ff	 movss	 xmm0, DWORD PTR _value$536404[ebp]
  00aae	6a 01		 push	 1
  00ab0	51		 push	 ecx
  00ab1	8b cb		 mov	 ecx, ebx
  00ab3	f3 0f 11 04 24	 movss	 DWORD PTR [esp], xmm0
  00ab8	e8 00 00 00 00	 call	 ?SetChangeJumppingState@ioBaseChar@@QAEXM_NH@Z ; ioBaseChar::SetChangeJumppingState
$LN2@ApplyWeapo:

; 283  : 		}
; 284  : 	}
; 285  : 
; 286  : 	if( pWeapon )
; 287  : 	{
; 288  : 		int iDummyIndex = pWeapon->GetWeaponByDummyChar();
; 289  : 		g_DummyCharMgr.CheckEntityCollision( pAttacker, this, iDummyIndex );

  00abd	ff b7 98 05 00
	00		 push	 DWORD PTR [edi+1432]
  00ac3	56		 push	 esi
  00ac4	53		 push	 ebx
  00ac5	e8 00 00 00 00	 call	 ?GetSingleton@ioDummyCharManager@@SAAAV1@XZ ; ioDummyCharManager::GetSingleton
  00aca	8b c8		 mov	 ecx, eax
  00acc	e8 00 00 00 00	 call	 ?CheckEntityCollision@ioDummyCharManager@@QAEXPAVioBaseChar@@PAVioPlayEntity@@H@Z ; ioDummyCharManager::CheckEntityCollision
$LN193@ApplyWeapo:

; 290  : 	}
; 291  : 
; 292  : 	return AWE_EXPLOSION;

  00ad1	33 c0		 xor	 eax, eax
  00ad3	40		 inc	 eax
$LN45@ApplyWeapo:

; 293  : }

  00ad4	8b 4d f4	 mov	 ecx, DWORD PTR __$EHRec$[ebp]
  00ad7	64 89 0d 00 00
	00 00		 mov	 DWORD PTR fs:0, ecx
  00ade	59		 pop	 ecx
  00adf	5f		 pop	 edi
  00ae0	5e		 pop	 esi
  00ae1	5b		 pop	 ebx
  00ae2	8b 4d f0	 mov	 ecx, DWORD PTR __$ArrayPad$[ebp]
  00ae5	33 cd		 xor	 ecx, ebp
  00ae7	e8 00 00 00 00	 call	 @__security_check_cookie@4
  00aec	c9		 leave
  00aed	c2 04 00	 ret	 4
_TEXT	ENDS
;	COMDAT text$x
text$x	SEGMENT
__unwindfunclet$?ApplyWeapon@ioSymbolStruct@@UAE?AW4ApplyWeaponExp@@PAVioWeapon@@@Z$0:
  00000	8d 8d 90 7f ff
	ff		 lea	 ecx, DWORD PTR $T536098[ebp]
  00006	ff 25 00 00 00
	00		 jmp	 DWORD PTR __imp_??1ioHashString@@QAE@XZ
__unwindfunclet$?ApplyWeapon@ioSymbolStruct@@UAE?AW4ApplyWeaponExp@@PAVioWeapon@@@Z$1:
  0000c	8d 8d 80 7f ff
	ff		 lea	 ecx, DWORD PTR $T536099[ebp]
  00012	ff 25 00 00 00
	00		 jmp	 DWORD PTR __imp_??1ioHashString@@QAE@XZ
__unwindfunclet$?ApplyWeapon@ioSymbolStruct@@UAE?AW4ApplyWeaponExp@@PAVioWeapon@@@Z$2:
  00018	8d 8d cc 7f ff
	ff		 lea	 ecx, DWORD PTR _kPacket$530552[ebp]
  0001e	e9 00 00 00 00	 jmp	 ??1SP2Packet@@UAE@XZ	; SP2Packet::~SP2Packet
__unwindfunclet$?ApplyWeapon@ioSymbolStruct@@UAE?AW4ApplyWeaponExp@@PAVioWeapon@@@Z$3:
  00023	8b 8d bc 7f ff
	ff		 mov	 ecx, DWORD PTR $T536100[ebp]
  00029	ff 25 00 00 00
	00		 jmp	 DWORD PTR __imp_??1ioHashString@@QAE@XZ
__ehhandler$?ApplyWeapon@ioSymbolStruct@@UAE?AW4ApplyWeaponExp@@PAVioWeapon@@@Z:
  0002f	8b 54 24 08	 mov	 edx, DWORD PTR [esp+8]
  00033	8d 42 0c	 lea	 eax, DWORD PTR [edx+12]
  00036	8b 8a 7c 7f ff
	ff		 mov	 ecx, DWORD PTR [edx-32900]
  0003c	33 c8		 xor	 ecx, eax
  0003e	e8 00 00 00 00	 call	 @__security_check_cookie@4
  00043	8b 4a fc	 mov	 ecx, DWORD PTR [edx-4]
  00046	33 c8		 xor	 ecx, eax
  00048	e8 00 00 00 00	 call	 @__security_check_cookie@4
  0004d	b8 00 00 00 00	 mov	 eax, OFFSET __ehfuncinfo$?ApplyWeapon@ioSymbolStruct@@UAE?AW4ApplyWeaponExp@@PAVioWeapon@@@Z
  00052	e9 00 00 00 00	 jmp	 ___CxxFrameHandler3
text$x	ENDS
?ApplyWeapon@ioSymbolStruct@@UAE?AW4ApplyWeaponExp@@PAVioWeapon@@@Z ENDP ; ioSymbolStruct::ApplyWeapon
; Function compile flags: /Ogsp
;	COMDAT ?Revival@ioSymbolStruct@@UAEXXZ
_TEXT	SEGMENT
_value$536453 = -4					; size = 4
_value$536448 = -4					; size = 4
$T536445 = -4						; size = 4
?Revival@ioSymbolStruct@@UAEXXZ PROC			; ioSymbolStruct::Revival, COMDAT
; _this$ = ecx

; 296  : {

  00000	55		 push	 ebp
  00001	8b ec		 mov	 ebp, esp
  00003	51		 push	 ecx

; 297  : 	if( m_fRevivalHP == 0.0f )

  00004	0f 57 c0	 xorps	 xmm0, xmm0
  00007	56		 push	 esi
  00008	8b f1		 mov	 esi, ecx
  0000a	57		 push	 edi
  0000b	8d 45 fc	 lea	 eax, DWORD PTR $T536445[ebp]
  0000e	8d be c8 02 00
	00		 lea	 edi, DWORD PTR [esi+712]
  00014	50		 push	 eax
  00015	8b cf		 mov	 ecx, edi
  00017	f3 0f 11 45 fc	 movss	 DWORD PTR $T536445[ebp], xmm0
  0001c	e8 00 00 00 00	 call	 ??8?$CEncrypt@M@@QAE_NABM@Z ; CEncrypt<float>::operator==

; 298  : 		m_HP.m_fCurValue = m_HP.m_fMaxValue;

  00021	8d 8e c0 00 00
	00		 lea	 ecx, DWORD PTR [esi+192]
  00027	84 c0		 test	 al, al
  00029	74 09		 je	 SHORT $LN2@Revival
  0002b	8d 86 f0 00 00
	00		 lea	 eax, DWORD PTR [esi+240]
  00031	50		 push	 eax

; 299  : 	else

  00032	eb 01		 jmp	 SHORT $LN9@Revival
$LN2@Revival:

; 300  : 		m_HP.m_fCurValue = m_fRevivalHP;

  00034	57		 push	 edi
$LN9@Revival:
  00035	e8 00 00 00 00	 call	 ??4?$CEncrypt@M@@QAE_NAAV0@@Z ; CEncrypt<float>::operator=

; 301  : 
; 302  : 	m_HP.m_dwPreRecoveryTime = FRAMEGETTIME();

  0003a	ff 15 00 00 00
	00		 call	 DWORD PTR __imp_?GetSingleton@ioFrameTimer@@SAAAV1@XZ
  00040	8b c8		 mov	 ecx, eax
  00042	ff 15 00 00 00
	00		 call	 DWORD PTR __imp_?GetLoopSec@ioFrameTimer@@QBEKXZ
  00048	89 45 fc	 mov	 DWORD PTR _value$536448[ebp], eax
  0004b	8d 45 fc	 lea	 eax, DWORD PTR _value$536448[ebp]
  0004e	50		 push	 eax
  0004f	8d 8e 80 01 00
	00		 lea	 ecx, DWORD PTR [esi+384]
  00055	e8 00 00 00 00	 call	 ?EncryptValueToPool@?$CEncrypt@K@@AAEXPBD@Z ; CEncrypt<unsigned long>::EncryptValueToPool

; 303  : 
; 304  : 	//m_iRevivalCnt++;
; 305  : 	m_fRevivalHP = 0.0f;

  0005a	0f 57 c0	 xorps	 xmm0, xmm0
  0005d	8d 45 fc	 lea	 eax, DWORD PTR _value$536453[ebp]
  00060	50		 push	 eax
  00061	8b cf		 mov	 ecx, edi
  00063	f3 0f 11 45 fc	 movss	 DWORD PTR _value$536453[ebp], xmm0
  00068	e8 00 00 00 00	 call	 ?EncryptValueToPool@?$CEncrypt@M@@AAEXPBD@Z ; CEncrypt<float>::EncryptValueToPool
  0006d	5f		 pop	 edi

; 306  : 
; 307  : 	m_bDie = false;

  0006e	c6 86 99 05 00
	00 00		 mov	 BYTE PTR [esi+1433], 0
  00075	5e		 pop	 esi

; 308  : }

  00076	c9		 leave
  00077	c3		 ret	 0
?Revival@ioSymbolStruct@@UAEXXZ ENDP			; ioSymbolStruct::Revival
_TEXT	ENDS
PUBLIC	?SetRevivalHP@ioSymbolStruct@@QAEXM_N@Z		; ioSymbolStruct::SetRevivalHP
; Function compile flags: /Ogsp
;	COMDAT ?SetRevivalHP@ioSymbolStruct@@QAEXM_N@Z
_TEXT	SEGMENT
_fHP$ = 8						; size = 4
_value$536465 = 12					; size = 4
_value$536460 = 12					; size = 4
_bInit$ = 12						; size = 1
?SetRevivalHP@ioSymbolStruct@@QAEXM_N@Z PROC		; ioSymbolStruct::SetRevivalHP, COMDAT
; _this$ = ecx

; 311  : {

  00000	55		 push	 ebp
  00001	8b ec		 mov	 ebp, esp
  00003	56		 push	 esi
  00004	8b f1		 mov	 esi, ecx

; 312  : 	if( bInit )
; 313  : 	{
; 314  : 		m_fRevivalHP = m_HP.m_fMaxValue;

  00006	8d 86 f0 00 00
	00		 lea	 eax, DWORD PTR [esi+240]
  0000c	8d 8e c8 02 00
	00		 lea	 ecx, DWORD PTR [esi+712]
  00012	50		 push	 eax
  00013	e8 00 00 00 00	 call	 ??4?$CEncrypt@M@@QAE_NAAV0@@Z ; CEncrypt<float>::operator=
  00018	80 7d 0c 00	 cmp	 BYTE PTR _bInit$[ebp], 0
  0001c	74 37		 je	 SHORT $LN1@SetRevival

; 315  : 
; 316  : 		m_dwDecreaseCheckTime = FRAMEGETTIME();

  0001e	ff 15 00 00 00
	00		 call	 DWORD PTR __imp_?GetSingleton@ioFrameTimer@@SAAAV1@XZ
  00024	8b c8		 mov	 ecx, eax
  00026	ff 15 00 00 00
	00		 call	 DWORD PTR __imp_?GetLoopSec@ioFrameTimer@@QBEKXZ
  0002c	89 45 0c	 mov	 DWORD PTR _value$536460[ebp], eax
  0002f	8d 45 0c	 lea	 eax, DWORD PTR _value$536460[ebp]
  00032	50		 push	 eax
  00033	8d 8e e0 04 00
	00		 lea	 ecx, DWORD PTR [esi+1248]
  00039	e8 00 00 00 00	 call	 ?EncryptValueToPool@?$CEncrypt@K@@AAEXPBD@Z ; CEncrypt<unsigned long>::EncryptValueToPool

; 317  : 		m_fDecreaseCurRate = 0.0f;

  0003e	0f 57 c0	 xorps	 xmm0, xmm0
  00041	8d 45 0c	 lea	 eax, DWORD PTR _value$536465[ebp]
  00044	50		 push	 eax
  00045	8d 8e f0 03 00
	00		 lea	 ecx, DWORD PTR [esi+1008]
  0004b	f3 0f 11 45 0c	 movss	 DWORD PTR _value$536465[ebp], xmm0
  00050	e8 00 00 00 00	 call	 ?EncryptValueToPool@?$CEncrypt@M@@AAEXPBD@Z ; CEncrypt<float>::EncryptValueToPool
$LN1@SetRevival:
  00055	5e		 pop	 esi

; 318  : 	}
; 319  : 	else
; 320  : 	{
; 321  : 		m_fRevivalHP = m_HP.m_fMaxValue;
; 322  : 	}
; 323  : }

  00056	5d		 pop	 ebp
  00057	c2 08 00	 ret	 8
?SetRevivalHP@ioSymbolStruct@@QAEXM_N@Z ENDP		; ioSymbolStruct::SetRevivalHP
_TEXT	ENDS
EXTRN	?PlaySoundA@ioGameEntity@@QAEKABVioHashString@@_N@Z:PROC ; ioGameEntity::PlaySoundA
EXTRN	__imp_?LoadGroup@ioEntityGroup@@QAE_NPBD_N@Z:PROC
EXTRN	__imp_?GetSceneMgr@ioSceneNode@@QAEPAVioSceneManager@@XZ:PROC
EXTRN	__imp_??8ioHashString@@QBE_NABV0@@Z:PROC
EXTRN	__imp_?GetFileName@ioEntityGroup@@QBEABVioHashString@@XZ:PROC
EXTRN	__imp_??4ioHashString@@QAEAAV0@ABV0@@Z:PROC
EXTRN	?SetTeam@ioGaugeHelper@@QAEXW4TeamType@@@Z:PROC	; ioGaugeHelper::SetTeam
EXTRN	?GetOwnerChar@ioPlayMode@@QAEPAVioBaseChar@@XZ:PROC ; ioPlayMode::GetOwnerChar
;	COMDAT xdata$x
; File d:\lost saga for developer\youtube\tutorial\source\src\lsclient\encryptvalue.h
xdata$x	SEGMENT
__unwindtable$?SetTeam@ioSymbolStruct@@UAEXW4TeamType@@@Z DD 0ffffffffH
	DD	FLAT:__unwindfunclet$?SetTeam@ioSymbolStruct@@UAEXW4TeamType@@@Z$0
__ehfuncinfo$?SetTeam@ioSymbolStruct@@UAEXW4TeamType@@@Z DD 019930522H
	DD	01H
	DD	FLAT:__unwindtable$?SetTeam@ioSymbolStruct@@UAEXW4TeamType@@@Z
	DD	2 DUP(00H)
	DD	2 DUP(00H)
	DD	00H
	DD	01H
; Function compile flags: /Ogsp
; File d:\lost saga for developer\youtube\tutorial\source\src\lsclient\iosymbolstruct.cpp
xdata$x	ENDS
;	COMDAT ?SetTeam@ioSymbolStruct@@UAEXW4TeamType@@@Z
_TEXT	SEGMENT
_szNewSymbolModel$ = -28				; size = 16
__$EHRec$ = -12						; size = 12
_value$536492 = 8					; size = 4
_value$536479 = 8					; size = 4
_eType$ = 8						; size = 4
?SetTeam@ioSymbolStruct@@UAEXW4TeamType@@@Z PROC	; ioSymbolStruct::SetTeam, COMDAT
; _this$ = ecx

; 326  : {

  00000	6a 10		 push	 16			; 00000010H
  00002	b8 00 00 00 00	 mov	 eax, __ehhandler$?SetTeam@ioSymbolStruct@@UAEXW4TeamType@@@Z
  00007	e8 00 00 00 00	 call	 __EH_prolog3
  0000c	8b f1		 mov	 esi, ecx

; 327  : 	ioPlayEntity::SetTeam( eType );

  0000e	8b 7d 08	 mov	 edi, DWORD PTR _eType$[ebp]
  00011	57		 push	 edi
  00012	e8 00 00 00 00	 call	 ?SetTeam@ioPlayEntity@@UAEXW4TeamType@@@Z ; ioPlayEntity::SetTeam

; 328  : 	ioBaseChar *pOwner = m_pModeParent->GetOwnerChar();

  00017	8b 8e 8c 00 00
	00		 mov	 ecx, DWORD PTR [esi+140]
  0001d	e8 00 00 00 00	 call	 ?GetOwnerChar@ioPlayMode@@QAEPAVioBaseChar@@XZ ; ioPlayMode::GetOwnerChar

; 329  : 	
; 330  : 	if( m_pGauge )

  00022	8b 8e d0 01 00
	00		 mov	 ecx, DWORD PTR [esi+464]
  00028	8b d8		 mov	 ebx, eax
  0002a	85 c9		 test	 ecx, ecx
  0002c	74 3e		 je	 SHORT $LN14@SetTeam

; 331  : 	{
; 332  : 		if( eType == TEAM_NONE )

  0002e	85 ff		 test	 edi, edi
  00030	75 03		 jne	 SHORT $LN22@SetTeam

; 333  : 			m_pGauge->SetTeam( TEAM_NONE );

  00032	57		 push	 edi
  00033	eb 32		 jmp	 SHORT $LN36@SetTeam
$LN22@SetTeam:

; 334  : 		else if(eType == TEAM_BLUE )

  00035	83 ff 02	 cmp	 edi, 2
  00038	75 04		 jne	 SHORT $LN20@SetTeam
$LN38@SetTeam:

; 335  : 			m_pGauge->SetTeam( TEAM_BLUE );

  0003a	6a 02		 push	 2
  0003c	eb 29		 jmp	 SHORT $LN36@SetTeam
$LN20@SetTeam:

; 336  : 		else if(eType == TEAM_RED )

  0003e	83 ff 01	 cmp	 edi, 1

; 337  : 			m_pGauge->SetTeam( TEAM_RED );
; 338  : 		else

  00041	74 22		 je	 SHORT $LN37@SetTeam

; 339  : 		{
; 340  : 			if( !pOwner )

  00043	85 db		 test	 ebx, ebx
  00045	0f 84 46 01 00
	00		 je	 $LN24@SetTeam

; 341  : 				return;
; 342  : 
; 343  : 			if( pOwner->GetTeam() == eType )

  0004b	8d 45 08	 lea	 eax, DWORD PTR _value$536479[ebp]
  0004e	8d 8b 90 00 00
	00		 lea	 ecx, DWORD PTR [ebx+144]
  00054	50		 push	 eax
  00055	e8 00 00 00 00	 call	 ?DecryptValueToPool@?$CEncrypt@W4TeamType@@@@QAEXPAW4TeamType@@@Z ; CEncrypt<enum TeamType>::DecryptValueToPool

; 344  : 				m_pGauge->SetTeam( TEAM_BLUE );

  0005a	8b 8e d0 01 00
	00		 mov	 ecx, DWORD PTR [esi+464]
  00060	39 7d 08	 cmp	 DWORD PTR _value$536479[ebp], edi

; 345  : 			else

  00063	74 d5		 je	 SHORT $LN38@SetTeam
$LN37@SetTeam:

; 346  : 				m_pGauge->SetTeam( TEAM_RED );

  00065	6a 01		 push	 1
$LN36@SetTeam:
  00067	e8 00 00 00 00	 call	 ?SetTeam@ioGaugeHelper@@QAEXW4TeamType@@@Z ; ioGaugeHelper::SetTeam
$LN14@SetTeam:

; 347  : 		}
; 348  : 	}
; 349  : 
; 350  : 	ioHashString szNewSymbolModel;

  0006c	8d 4d e4	 lea	 ecx, DWORD PTR _szNewSymbolModel$[ebp]
  0006f	ff 15 00 00 00
	00		 call	 DWORD PTR __imp_??0ioHashString@@QAE@XZ
  00075	83 65 fc 00	 and	 DWORD PTR __$EHRec$[ebp+8], 0

; 351  : 	switch( eType )

  00079	8b c7		 mov	 eax, edi
  0007b	83 e8 00	 sub	 eax, 0
  0007e	74 45		 je	 SHORT $LN11@SetTeam
  00080	48		 dec	 eax
  00081	74 3a		 je	 SHORT $LN8@SetTeam
  00083	48		 dec	 eax
  00084	74 2f		 je	 SHORT $LN7@SetTeam

; 365  : 	default:
; 366  : 		if( !pOwner )

  00086	85 db		 test	 ebx, ebx

; 367  : 			return;

  00088	0f 84 f6 00 00
	00		 je	 $LN39@SetTeam

; 368  : 
; 369  : 		if( pOwner->GetTeam() == eType )

  0008e	8d 45 08	 lea	 eax, DWORD PTR _value$536492[ebp]
  00091	8d 8b 90 00 00
	00		 lea	 ecx, DWORD PTR [ebx+144]
  00097	50		 push	 eax
  00098	e8 00 00 00 00	 call	 ?DecryptValueToPool@?$CEncrypt@W4TeamType@@@@QAEXPAW4TeamType@@@Z ; CEncrypt<enum TeamType>::DecryptValueToPool

; 370  : 			szNewSymbolModel = m_BlueSymbolModel;

  0009d	8d 4d e4	 lea	 ecx, DWORD PTR _szNewSymbolModel$[ebp]
  000a0	39 7d 08	 cmp	 DWORD PTR _value$536492[ebp], edi
  000a3	75 08		 jne	 SHORT $LN4@SetTeam
  000a5	8d 86 20 05 00
	00		 lea	 eax, DWORD PTR [esi+1312]

; 371  : 		else

  000ab	eb 30		 jmp	 SHORT $LN40@SetTeam
$LN4@SetTeam:

; 372  : 			szNewSymbolModel = m_RedSymbolModel;

  000ad	8d 86 10 05 00
	00		 lea	 eax, DWORD PTR [esi+1296]
  000b3	eb 28		 jmp	 SHORT $LN40@SetTeam
$LN7@SetTeam:

; 362  : 	case TEAM_BLUE:
; 363  : 		szNewSymbolModel = m_BlueSymbolModel;

  000b5	8d 86 20 05 00
	00		 lea	 eax, DWORD PTR [esi+1312]

; 364  : 		break;

  000bb	eb 1d		 jmp	 SHORT $LN41@SetTeam
$LN8@SetTeam:

; 358  : 		break;
; 359  : 	case TEAM_RED:
; 360  : 		szNewSymbolModel = m_RedSymbolModel;

  000bd	8d 86 10 05 00
	00		 lea	 eax, DWORD PTR [esi+1296]

; 361  : 		break;

  000c3	eb 15		 jmp	 SHORT $LN41@SetTeam
$LN11@SetTeam:

; 352  : 	{
; 353  : 	case TEAM_NONE:
; 354  : 		if( m_bActivity )

  000c5	80 be 98 05 00
	00 00		 cmp	 BYTE PTR [esi+1432], 0

; 355  : 			szNewSymbolModel = m_NoneSymbolModel;

  000cc	8d 86 30 05 00
	00		 lea	 eax, DWORD PTR [esi+1328]
  000d2	75 06		 jne	 SHORT $LN41@SetTeam

; 356  : 		else
; 357  : 			szNewSymbolModel = m_NoneActivitySymbolModel;

  000d4	8d 86 40 05 00
	00		 lea	 eax, DWORD PTR [esi+1344]
$LN41@SetTeam:
  000da	8d 4d e4	 lea	 ecx, DWORD PTR _szNewSymbolModel$[ebp]
$LN40@SetTeam:
  000dd	50		 push	 eax
  000de	ff 15 00 00 00
	00		 call	 DWORD PTR __imp_??4ioHashString@@QAEAAV0@ABV0@@Z

; 373  : 	}
; 374  : 
; 375  : 	if( m_pGroup->GetFileName() == szNewSymbolModel )

  000e4	8b 4e 04	 mov	 ecx, DWORD PTR [esi+4]
  000e7	8d 45 e4	 lea	 eax, DWORD PTR _szNewSymbolModel$[ebp]
  000ea	50		 push	 eax
  000eb	ff 15 00 00 00
	00		 call	 DWORD PTR __imp_?GetFileName@ioEntityGroup@@QBEABVioHashString@@XZ
  000f1	8b c8		 mov	 ecx, eax
  000f3	ff 15 00 00 00
	00		 call	 DWORD PTR __imp_??8ioHashString@@QBE_NABV0@@Z
  000f9	84 c0		 test	 al, al

; 376  : 		return;

  000fb	0f 85 83 00 00
	00		 jne	 $LN39@SetTeam

; 377  : 
; 378  : 	ioSceneNode *pSceneNode = m_pGroup->GetParentSceneNode();

  00101	8b 4e 04	 mov	 ecx, DWORD PTR [esi+4]
  00104	8b 01		 mov	 eax, DWORD PTR [ecx]
  00106	ff 50 34	 call	 DWORD PTR [eax+52]
  00109	8b f8		 mov	 edi, eax

; 379  : 	if( !pSceneNode )	return;

  0010b	85 ff		 test	 edi, edi
  0010d	74 75		 je	 SHORT $LN39@SetTeam

; 380  : 
; 381  : 	pSceneNode->DetachObject( m_pGroup );

  0010f	ff 76 04	 push	 DWORD PTR [esi+4]
  00112	8b 07		 mov	 eax, DWORD PTR [edi]
  00114	8b cf		 mov	 ecx, edi
  00116	ff 90 b8 00 00
	00		 call	 DWORD PTR [eax+184]

; 382  : 	pSceneNode->GetSceneMgr()->DestroyEntityGrp( m_pGroup );

  0011c	8b 1d 00 00 00
	00		 mov	 ebx, DWORD PTR __imp_?GetSceneMgr@ioSceneNode@@QAEPAVioSceneManager@@XZ
  00122	8b cf		 mov	 ecx, edi
  00124	ff d3		 call	 ebx
  00126	ff 76 04	 push	 DWORD PTR [esi+4]
  00129	8b 10		 mov	 edx, DWORD PTR [eax]
  0012b	8b c8		 mov	 ecx, eax
  0012d	ff 52 38	 call	 DWORD PTR [edx+56]

; 383  : 
; 384  : 	m_pGroup = pSceneNode->GetSceneMgr()->CreateEntityGrp();

  00130	8b cf		 mov	 ecx, edi
  00132	ff d3		 call	 ebx
  00134	8b 10		 mov	 edx, DWORD PTR [eax]
  00136	8b c8		 mov	 ecx, eax
  00138	ff 52 30	 call	 DWORD PTR [edx+48]
  0013b	89 46 04	 mov	 DWORD PTR [esi+4], eax

; 385  : 	pSceneNode->AttachObject( m_pGroup );

  0013e	8b 17		 mov	 edx, DWORD PTR [edi]
  00140	50		 push	 eax
  00141	8b cf		 mov	 ecx, edi
  00143	ff 92 ac 00 00
	00		 call	 DWORD PTR [edx+172]

; 386  : 
; 387  : 	m_pGroup->SetLightApplyMask( APPLY_SECOND_MAIN_LIGHT );

  00149	8b 4e 04	 mov	 ecx, DWORD PTR [esi+4]
  0014c	6a 02		 push	 2
  0014e	ff 15 00 00 00
	00		 call	 DWORD PTR __imp_?SetLightApplyMask@ioEntityGroup@@QAEXK@Z

; 388  : 	m_pGroup->LoadGroup( szNewSymbolModel.c_str() );

  00154	6a 00		 push	 0
  00156	8d 4d e4	 lea	 ecx, DWORD PTR _szNewSymbolModel$[ebp]
  00159	ff 15 00 00 00
	00		 call	 DWORD PTR __imp_?c_str@ioHashString@@QBEPBDXZ
  0015f	8b 4e 04	 mov	 ecx, DWORD PTR [esi+4]
  00162	50		 push	 eax
  00163	ff 15 00 00 00
	00		 call	 DWORD PTR __imp_?LoadGroup@ioEntityGroup@@QAE_NPBD_N@Z

; 389  : 	m_pGroup->SetAlphaRate( m_iCurAlphaRate );

  00169	8b 4e 04	 mov	 ecx, DWORD PTR [esi+4]
  0016c	ff 76 08	 push	 DWORD PTR [esi+8]
  0016f	8b 01		 mov	 eax, DWORD PTR [ecx]
  00171	ff 50 18	 call	 DWORD PTR [eax+24]

; 390  : 
; 391  : 	PlaySound( m_ExplosionSound );

  00174	6a 00		 push	 0
  00176	8d 86 50 05 00
	00		 lea	 eax, DWORD PTR [esi+1360]
  0017c	50		 push	 eax
  0017d	8b ce		 mov	 ecx, esi
  0017f	e8 00 00 00 00	 call	 ?PlaySoundA@ioGameEntity@@QAEKABVioHashString@@_N@Z ; ioGameEntity::PlaySoundA
$LN39@SetTeam:

; 392  : }

  00184	83 4d fc ff	 or	 DWORD PTR __$EHRec$[ebp+8], -1
  00188	8d 4d e4	 lea	 ecx, DWORD PTR _szNewSymbolModel$[ebp]
  0018b	ff 15 00 00 00
	00		 call	 DWORD PTR __imp_??1ioHashString@@QAE@XZ
$LN24@SetTeam:
  00191	e8 00 00 00 00	 call	 __EH_epilog3
  00196	c2 04 00	 ret	 4
_TEXT	ENDS
;	COMDAT text$x
text$x	SEGMENT
__unwindfunclet$?SetTeam@ioSymbolStruct@@UAEXW4TeamType@@@Z$0:
  00000	8d 4d e4	 lea	 ecx, DWORD PTR _szNewSymbolModel$[ebp]
  00003	ff 25 00 00 00
	00		 jmp	 DWORD PTR __imp_??1ioHashString@@QAE@XZ
__ehhandler$?SetTeam@ioSymbolStruct@@UAEXW4TeamType@@@Z:
  00009	8b 54 24 08	 mov	 edx, DWORD PTR [esp+8]
  0000d	8d 42 0c	 lea	 eax, DWORD PTR [edx+12]
  00010	8b 4a e0	 mov	 ecx, DWORD PTR [edx-32]
  00013	33 c8		 xor	 ecx, eax
  00015	e8 00 00 00 00	 call	 @__security_check_cookie@4
  0001a	b8 00 00 00 00	 mov	 eax, OFFSET __ehfuncinfo$?SetTeam@ioSymbolStruct@@UAEXW4TeamType@@@Z
  0001f	e9 00 00 00 00	 jmp	 ___CxxFrameHandler3
text$x	ENDS
?SetTeam@ioSymbolStruct@@UAEXW4TeamType@@@Z ENDP	; ioSymbolStruct::SetTeam
PUBLIC	?SetHP@ioSymbolStruct@@QAEXMMM@Z		; ioSymbolStruct::SetHP
; Function compile flags: /Ogsp
;	COMDAT ?SetHP@ioSymbolStruct@@QAEXMMM@Z
_TEXT	SEGMENT
_value$536534 = 8					; size = 4
_value$536528 = 8					; size = 4
_value$536518 = 8					; size = 4
_value$536514 = 8					; size = 4
_fCurHP$ = 8						; size = 4
_value$536522 = 12					; size = 4
_fMaxHP$ = 12						; size = 4
_fDecreaseCurRate$ = 16					; size = 4
?SetHP@ioSymbolStruct@@QAEXMMM@Z PROC			; ioSymbolStruct::SetHP, COMDAT
; _this$ = ecx

; 504  : {

  00000	55		 push	 ebp
  00001	8b ec		 mov	 ebp, esp

; 505  : 	m_HP.m_fCurValue = fCurHP;

  00003	f3 0f 10 45 08	 movss	 xmm0, DWORD PTR _fCurHP$[ebp]
  00008	53		 push	 ebx
  00009	56		 push	 esi
  0000a	8b f1		 mov	 esi, ecx
  0000c	57		 push	 edi
  0000d	8d 45 08	 lea	 eax, DWORD PTR _value$536514[ebp]
  00010	8d be c0 00 00
	00		 lea	 edi, DWORD PTR [esi+192]
  00016	50		 push	 eax
  00017	8b cf		 mov	 ecx, edi
  00019	f3 0f 11 45 08	 movss	 DWORD PTR _value$536514[ebp], xmm0
  0001e	e8 00 00 00 00	 call	 ?EncryptValueToPool@?$CEncrypt@M@@AAEXPBD@Z ; CEncrypt<float>::EncryptValueToPool

; 506  : 	m_HP.m_fMaxValue = fMaxHP;

  00023	f3 0f 10 45 0c	 movss	 xmm0, DWORD PTR _fMaxHP$[ebp]
  00028	8d 45 08	 lea	 eax, DWORD PTR _value$536518[ebp]
  0002b	8d 9e f0 00 00
	00		 lea	 ebx, DWORD PTR [esi+240]
  00031	50		 push	 eax
  00032	8b cb		 mov	 ecx, ebx
  00034	f3 0f 11 45 08	 movss	 DWORD PTR _value$536518[ebp], xmm0
  00039	e8 00 00 00 00	 call	 ?EncryptValueToPool@?$CEncrypt@M@@AAEXPBD@Z ; CEncrypt<float>::EncryptValueToPool

; 507  : 
; 508  : 	m_HP.m_fCurValue = min( m_HP.m_fCurValue, m_HP.m_fMaxValue );

  0003e	8d 45 0c	 lea	 eax, DWORD PTR _value$536522[ebp]
  00041	50		 push	 eax
  00042	8b cb		 mov	 ecx, ebx
  00044	e8 00 00 00 00	 call	 ?DecryptValueToPool@?$CEncrypt@M@@QAEXPAM@Z ; CEncrypt<float>::DecryptValueToPool
  00049	8d 45 08	 lea	 eax, DWORD PTR _value$536528[ebp]
  0004c	50		 push	 eax
  0004d	8b cf		 mov	 ecx, edi
  0004f	e8 00 00 00 00	 call	 ?DecryptValueToPool@?$CEncrypt@M@@QAEXPAM@Z ; CEncrypt<float>::DecryptValueToPool
  00054	f3 0f 10 45 08	 movss	 xmm0, DWORD PTR _value$536528[ebp]
  00059	f3 0f 10 4d 0c	 movss	 xmm1, DWORD PTR _value$536522[ebp]
  0005e	0f 5a c0	 cvtps2pd xmm0, xmm0
  00061	0f 5a c9	 cvtps2pd xmm1, xmm1
  00064	66 0f 2f c8	 comisd	 xmm1, xmm0
  00068	0f 47 df	 cmova	 ebx, edi
  0006b	53		 push	 ebx
  0006c	8b cf		 mov	 ecx, edi
  0006e	e8 00 00 00 00	 call	 ??4?$CEncrypt@M@@QAE_NAAV0@@Z ; CEncrypt<float>::operator=

; 509  : 
; 510  : 	m_fDecreaseCurRate = fDecreaseCurRate;

  00073	f3 0f 10 45 10	 movss	 xmm0, DWORD PTR _fDecreaseCurRate$[ebp]
  00078	8d 45 08	 lea	 eax, DWORD PTR _value$536534[ebp]
  0007b	50		 push	 eax
  0007c	8d 8e f0 03 00
	00		 lea	 ecx, DWORD PTR [esi+1008]
  00082	f3 0f 11 45 08	 movss	 DWORD PTR _value$536534[ebp], xmm0
  00087	e8 00 00 00 00	 call	 ?EncryptValueToPool@?$CEncrypt@M@@AAEXPBD@Z ; CEncrypt<float>::EncryptValueToPool
  0008c	5f		 pop	 edi
  0008d	5e		 pop	 esi
  0008e	5b		 pop	 ebx

; 511  : }

  0008f	5d		 pop	 ebp
  00090	c2 0c 00	 ret	 12			; 0000000cH
?SetHP@ioSymbolStruct@@QAEXMMM@Z ENDP			; ioSymbolStruct::SetHP
_TEXT	ENDS
PUBLIC	?UpdateMaxHP@ioSymbolStruct@@QAEXM@Z		; ioSymbolStruct::UpdateMaxHP
; Function compile flags: /Ogsp
;	COMDAT ?UpdateMaxHP@ioSymbolStruct@@QAEXM@Z
_TEXT	SEGMENT
_value$536550 = -8					; size = 4
_value$536542 = -4					; size = 4
_value$536554 = 8					; size = 4
_value$536546 = 8					; size = 4
_fMaxHP$ = 8						; size = 4
?UpdateMaxHP@ioSymbolStruct@@QAEXM@Z PROC		; ioSymbolStruct::UpdateMaxHP, COMDAT
; _this$ = ecx

; 514  : {

  00000	55		 push	 ebp
  00001	8b ec		 mov	 ebp, esp
  00003	51		 push	 ecx
  00004	51		 push	 ecx
  00005	56		 push	 esi
  00006	8b f1		 mov	 esi, ecx
  00008	57		 push	 edi

; 515  : 	float fPreHP = m_HP.m_fMaxValue;

  00009	8d 45 fc	 lea	 eax, DWORD PTR _value$536542[ebp]
  0000c	8d be f0 00 00
	00		 lea	 edi, DWORD PTR [esi+240]
  00012	50		 push	 eax
  00013	8b cf		 mov	 ecx, edi
  00015	e8 00 00 00 00	 call	 ?DecryptValueToPool@?$CEncrypt@M@@QAEXPAM@Z ; CEncrypt<float>::DecryptValueToPool

; 516  : 	m_HP.m_fMaxValue = fMaxHP;

  0001a	f3 0f 10 45 08	 movss	 xmm0, DWORD PTR _fMaxHP$[ebp]
  0001f	8d 45 08	 lea	 eax, DWORD PTR _value$536546[ebp]
  00022	50		 push	 eax
  00023	8b cf		 mov	 ecx, edi
  00025	f3 0f 11 45 08	 movss	 DWORD PTR _value$536546[ebp], xmm0
  0002a	e8 00 00 00 00	 call	 ?EncryptValueToPool@?$CEncrypt@M@@AAEXPBD@Z ; CEncrypt<float>::EncryptValueToPool

; 517  : 
; 518  : 	if( fPreHP == 0.0f )

  0002f	f3 0f 10 45 fc	 movss	 xmm0, DWORD PTR _value$536542[ebp]
  00034	0f 2e 05 00 00
	00 00		 ucomiss xmm0, DWORD PTR __real@00000000
  0003b	9f		 lahf
  0003c	f6 c4 44	 test	 ah, 68			; 00000044H
  0003f	7a 0e		 jp	 SHORT $LN2@UpdateMaxH

; 519  : 		m_HP.m_fCurValue = m_HP.m_fMaxValue;

  00041	8d 8e c0 00 00
	00		 lea	 ecx, DWORD PTR [esi+192]
  00047	57		 push	 edi
  00048	e8 00 00 00 00	 call	 ??4?$CEncrypt@M@@QAE_NAAV0@@Z ; CEncrypt<float>::operator=

; 520  : 	else

  0004d	eb 5a		 jmp	 SHORT $LN11@UpdateMaxH
$LN2@UpdateMaxH:

; 521  : 		m_HP.m_fCurValue *= m_HP.m_fMaxValue / fPreHP;

  0004f	8d 45 f8	 lea	 eax, DWORD PTR _value$536550[ebp]
  00052	50		 push	 eax
  00053	8b cf		 mov	 ecx, edi
  00055	e8 00 00 00 00	 call	 ?DecryptValueToPool@?$CEncrypt@M@@QAEXPAM@Z ; CEncrypt<float>::DecryptValueToPool
  0005a	8d 45 08	 lea	 eax, DWORD PTR _value$536554[ebp]
  0005d	50		 push	 eax
  0005e	8d 8e c0 00 00
	00		 lea	 ecx, DWORD PTR [esi+192]
  00064	e8 00 00 00 00	 call	 ?DecryptValueToPool@?$CEncrypt@M@@QAEXPAM@Z ; CEncrypt<float>::DecryptValueToPool
  00069	f3 0f 10 45 f8	 movss	 xmm0, DWORD PTR _value$536550[ebp]
  0006e	f3 0f 10 4d fc	 movss	 xmm1, DWORD PTR _value$536542[ebp]
  00073	0f 5a c0	 cvtps2pd xmm0, xmm0
  00076	0f 5a c9	 cvtps2pd xmm1, xmm1
  00079	f2 0f 5e c1	 divsd	 xmm0, xmm1
  0007d	f3 0f 10 4d 08	 movss	 xmm1, DWORD PTR _value$536554[ebp]
  00082	66 0f 5a c0	 cvtpd2ps xmm0, xmm0
  00086	f3 0f 5a c0	 cvtss2sd xmm0, xmm0
  0008a	0f 5a c9	 cvtps2pd xmm1, xmm1
  0008d	8d 45 08	 lea	 eax, DWORD PTR _value$536554[ebp]
  00090	f2 0f 59 c1	 mulsd	 xmm0, xmm1
  00094	66 0f 5a c0	 cvtpd2ps xmm0, xmm0
  00098	50		 push	 eax
  00099	8d 8e c0 00 00
	00		 lea	 ecx, DWORD PTR [esi+192]
  0009f	f3 0f 11 45 08	 movss	 DWORD PTR _value$536554[ebp], xmm0
  000a4	e8 00 00 00 00	 call	 ?EncryptValueToPool@?$CEncrypt@M@@AAEXPBD@Z ; CEncrypt<float>::EncryptValueToPool
$LN11@UpdateMaxH:
  000a9	5f		 pop	 edi
  000aa	5e		 pop	 esi

; 522  : }

  000ab	c9		 leave
  000ac	c2 04 00	 ret	 4
?UpdateMaxHP@ioSymbolStruct@@QAEXM@Z ENDP		; ioSymbolStruct::UpdateMaxHP
_TEXT	ENDS
PUBLIC	_rkLoader$GSCopy$
PUBLIC	__$ArrayPad$
EXTRN	__imp_??4ioHashString@@QAEAAV0@PBD@Z:PROC
; Function compile flags: /Ogsp
;	COMDAT ?LoadProperty@ioSymbolStruct@@UAEXAAVioINILoader@@@Z
_TEXT	SEGMENT
tv22122 = -872						; size = 4
tv22107 = -872						; size = 4
tv22103 = -872						; size = 4
tv22086 = -872						; size = 4
tv22062 = -872						; size = 4
tv22053 = -872						; size = 4
tv22042 = -872						; size = 4
tv22031 = -872						; size = 4
$T537085 = -872						; size = 4
$T536821 = -872						; size = 4
_value$538148 = -868					; size = 4
_value$538407 = -864					; size = 4
_value$538018 = -860					; size = 4
_value$538278 = -856					; size = 4
_value$537750 = -852					; size = 4
_value$537214 = -848					; size = 4
_value$537616 = -844					; size = 4
_value$537223 = -840					; size = 4
_value$537884 = -836					; size = 4
_value$537481 = -832					; size = 4
_value$537080 = -828					; size = 4
_value$537351 = -824					; size = 4
_value$536950 = -820					; size = 4
_value$537219 = -816					; size = 4
tv22111 = -812						; size = 4
_i$538006 = -812					; size = 4
_i$537774 = -812					; size = 4
_i$536901 = -812					; size = 4
_rkLoader$GSCopy$ = -808				; size = 4
_szBuf$ = -804						; size = 260
__d$539269 = -544					; size = 31
__d$538839 = -508					; size = 28
__d$539024 = -476					; size = 27
__d$538534 = -444					; size = 27
__k$538295 = -412					; size = 21
__k$539172 = -384					; size = 21
__k$538165 = -356					; size = 21
__k$537905 = -328					; size = 23
__k$537370 = -300					; size = 17
__k$537542 = -276					; size = 17
__k$537676 = -252					; size = 17
__k$538074 = -228					; size = 17
__k$539530 = -204					; size = 18
__k$539405 = -180					; size = 16
__k$536837 = -160					; size = 16
__k$538927 = -140					; size = 12
__k$538742 = -124					; size = 12
__k$537239 = -108					; size = 12
__k$537784 = -92					; size = 12
__k$538437 = -76					; size = 11
__k$536588 = -60					; size = 11
__k$536967 = -44					; size = 9
__k$536704 = -28					; size = 6
__k$537101 = -16					; size = 7
__$ArrayPad$ = -4					; size = 4
_rkLoader$ = 8						; size = 4
?LoadProperty@ioSymbolStruct@@UAEXAAVioINILoader@@@Z PROC ; ioSymbolStruct::LoadProperty, COMDAT
; _this$ = ecx

; 578  : {

  00000	55		 push	 ebp
  00001	8b ec		 mov	 ebp, esp
  00003	81 ec 68 03 00
	00		 sub	 esp, 872		; 00000368H
  00009	a1 00 00 00 00	 mov	 eax, DWORD PTR ___security_cookie
  0000e	33 c5		 xor	 eax, ebp
  00010	89 45 fc	 mov	 DWORD PTR __$ArrayPad$[ebp], eax

; 579  : 	m_ArmorType	  = (ArmorType)rkLoader.LoadInt_e( "armor_type", AT_UNARMOR );

  00013	8b 45 08	 mov	 eax, DWORD PTR _rkLoader$[ebp]
  00016	53		 push	 ebx
  00017	56		 push	 esi
  00018	57		 push	 edi
  00019	33 db		 xor	 ebx, ebx
  0001b	6a 02		 push	 2
  0001d	8b f1		 mov	 esi, ecx
  0001f	89 85 d8 fc ff
	ff		 mov	 DWORD PTR _rkLoader$GSCopy$[ebp], eax
  00025	c7 45 c4 8c 9e
	86 85		 mov	 DWORD PTR __k$536588[ebp], -2054775156 ; 85869e8cH
  0002c	c7 45 c8 9f b3
	9f 93		 mov	 DWORD PTR __k$536588[ebp+4], -1818250337 ; 939fb39fH
  00033	66 c7 45 cc 9d
	89		 mov	 WORD PTR __k$536588[ebp+8], 35229 ; 0000899dH
  00039	8d 45 c4	 lea	 eax, DWORD PTR __k$536588[ebp]
  0003c	88 5d ce	 mov	 BYTE PTR __k$536588[ebp+10], bl
  0003f	59		 pop	 ecx
  00040	bf ed ec eb ea	 mov	 edi, -353637139		; eaebecedH
$LL106@LoadProper:
  00045	31 38		 xor	 DWORD PTR [eax], edi
  00047	83 c0 04	 add	 eax, 4
  0004a	49		 dec	 ecx
  0004b	75 f8		 jne	 SHORT $LL106@LoadProper
  0004d	6a 08		 push	 8
  0004f	58		 pop	 eax
$LL103@LoadProper:
  00050	8b c8		 mov	 ecx, eax
  00052	81 e1 03 00 00
	80		 and	 ecx, -2147483645	; 80000003H
  00058	79 05		 jns	 SHORT $LN2680@LoadProper
  0005a	49		 dec	 ecx
  0005b	83 c9 fc	 or	 ecx, -4			; fffffffcH
  0005e	41		 inc	 ecx
$LN2680@LoadProper:
  0005f	b2 ed		 mov	 dl, -19			; ffffffedH
  00061	2a d1		 sub	 dl, cl
  00063	30 54 05 c4	 xor	 BYTE PTR __k$536588[ebp+eax], dl
  00067	40		 inc	 eax
  00068	83 f8 0a	 cmp	 eax, 10			; 0000000aH
  0006b	7c e3		 jl	 SHORT $LL103@LoadProper
  0006d	8b 8d d8 fc ff
	ff		 mov	 ecx, DWORD PTR _rkLoader$GSCopy$[ebp]
  00073	53		 push	 ebx
  00074	8d 45 c4	 lea	 eax, DWORD PTR __k$536588[ebp]
  00077	50		 push	 eax
  00078	ff 15 00 00 00
	00		 call	 DWORD PTR __imp_?LoadInt@ioINILoader@@QAEHPBDH@Z
  0007e	89 86 d4 01 00
	00		 mov	 DWORD PTR [esi+468], eax

; 580  : 
; 581  : 	m_fSymbolRange = rkLoader.LoadFloat_e( "range", FLOAT100 );

  00084	b8 64 00 00 00	 mov	 eax, 100		; 00000064H
  00089	c7 45 e4 9f 8d
	85 8d		 mov	 DWORD PTR __k$536704[ebp], -1920627297 ; 8d858d9fH
  00090	31 7d e4	 xor	 DWORD PTR __k$536704[ebp], edi
  00093	89 85 98 fc ff
	ff		 mov	 DWORD PTR tv22122[ebp], eax
  00099	db 85 98 fc ff
	ff		 fild	 DWORD PTR tv22122[ebp]
  0009f	66 c7 45 e8 65
	00		 mov	 WORD PTR __k$536704[ebp+4], 101 ; 00000065H
  000a5	85 c0		 test	 eax, eax
  000a7	79 06		 jns	 SHORT $LN2681@LoadProper
  000a9	d8 05 00 00 00
	00		 fadd	 DWORD PTR __real@4f800000
$LN2681@LoadProper:
  000af	51		 push	 ecx
  000b0	8b 8d d8 fc ff
	ff		 mov	 ecx, DWORD PTR _rkLoader$GSCopy$[ebp]
  000b6	d9 1c 24	 fstp	 DWORD PTR [esp]
  000b9	8d 45 e4	 lea	 eax, DWORD PTR __k$536704[ebp]
  000bc	50		 push	 eax
  000bd	ff 15 00 00 00
	00		 call	 DWORD PTR __imp_?LoadFloat@ioINILoader@@QAEMPBDM@Z
  000c3	d9 9e fc 02 00
	00		 fstp	 DWORD PTR [esi+764]

; 582  : 
; 583  : 	m_fRevivalRate = rkLoader.LoadFloat_e( "revival_hp_rate", FLOAT05 );

  000c9	b8 05 00 00 00	 mov	 eax, 5
  000ce	8b d0		 mov	 edx, eax
  000d0	b8 0a 00 00 00	 mov	 eax, 10			; 0000000aH
  000d5	6a 03		 push	 3
  000d7	89 85 98 fc ff
	ff		 mov	 DWORD PTR $T536821[ebp], eax
  000dd	c7 85 60 ff ff
	ff 9f 89 9d 83	 mov	 DWORD PTR __k$536837[ebp], -2086827617 ; 839d899fH
  000e7	c7 85 64 ff ff
	ff 9b 8d 87 b5	 mov	 DWORD PTR __k$536837[ebp+4], -1249407589 ; b5878d9bH
  000f1	c7 85 68 ff ff
	ff 85 9c b4 98	 mov	 DWORD PTR __k$536837[ebp+8], -1732993915 ; 98b49c85H
  000fb	8d 8d 60 ff ff
	ff		 lea	 ecx, DWORD PTR __k$536837[ebp]
  00101	c7 85 6c ff ff
	ff 8c 98 8e 00	 mov	 DWORD PTR __k$536837[ebp+12], 9345164 ; 008e988cH
  0010b	58		 pop	 eax
$LL324@LoadProper:
  0010c	31 39		 xor	 DWORD PTR [ecx], edi
  0010e	83 c1 04	 add	 ecx, 4
  00111	48		 dec	 eax
  00112	75 f8		 jne	 SHORT $LL324@LoadProper
  00114	c7 85 d4 fc ff
	ff 0c 00 00 00	 mov	 DWORD PTR _i$536901[ebp], 12 ; 0000000cH
$LL321@LoadProper:
  0011e	8b 85 d4 fc ff
	ff		 mov	 eax, DWORD PTR _i$536901[ebp]
  00124	25 03 00 00 80	 and	 eax, -2147483645	; 80000003H
  00129	79 05		 jns	 SHORT $LN2682@LoadProper
  0012b	48		 dec	 eax
  0012c	83 c8 fc	 or	 eax, -4			; fffffffcH
  0012f	40		 inc	 eax
$LN2682@LoadProper:
  00130	b1 ed		 mov	 cl, -19			; ffffffedH
  00132	2a c8		 sub	 cl, al
  00134	8b 85 d4 fc ff
	ff		 mov	 eax, DWORD PTR _i$536901[ebp]
  0013a	30 8c 05 60 ff
	ff ff		 xor	 BYTE PTR __k$536837[ebp+eax], cl
  00141	ff 85 d4 fc ff
	ff		 inc	 DWORD PTR _i$536901[ebp]
  00147	83 bd d4 fc ff
	ff 0f		 cmp	 DWORD PTR _i$536901[ebp], 15 ; 0000000fH
  0014e	7c ce		 jl	 SHORT $LL321@LoadProper
  00150	89 95 d4 fc ff
	ff		 mov	 DWORD PTR tv22111[ebp], edx
  00156	db 85 d4 fc ff
	ff		 fild	 DWORD PTR tv22111[ebp]
  0015c	85 d2		 test	 edx, edx
  0015e	79 06		 jns	 SHORT $LN2683@LoadProper
  00160	d8 05 00 00 00
	00		 fadd	 DWORD PTR __real@4f800000
$LN2683@LoadProper:
  00166	8b 85 98 fc ff
	ff		 mov	 eax, DWORD PTR $T536821[ebp]
  0016c	db 85 98 fc ff
	ff		 fild	 DWORD PTR $T536821[ebp]
  00172	85 c0		 test	 eax, eax
  00174	79 06		 jns	 SHORT $LN2684@LoadProper
  00176	d8 05 00 00 00
	00		 fadd	 DWORD PTR __real@4f800000
$LN2684@LoadProper:
  0017c	de f9		 fdivp	 ST(1), ST(0)
  0017e	51		 push	 ecx
  0017f	8b 8d d8 fc ff
	ff		 mov	 ecx, DWORD PTR _rkLoader$GSCopy$[ebp]
  00185	8d 85 60 ff ff
	ff		 lea	 eax, DWORD PTR __k$536837[ebp]
  0018b	d9 9d 98 fc ff
	ff		 fstp	 DWORD PTR tv22103[ebp]
  00191	d9 85 98 fc ff
	ff		 fld	 DWORD PTR tv22103[ebp]
  00197	d9 1c 24	 fstp	 DWORD PTR [esp]
  0019a	50		 push	 eax
  0019b	ff 15 00 00 00
	00		 call	 DWORD PTR __imp_?LoadFloat@ioINILoader@@QAEMPBDM@Z
  001a1	d9 9d cc fc ff
	ff		 fstp	 DWORD PTR _value$536950[ebp]
  001a7	8d 85 cc fc ff
	ff		 lea	 eax, DWORD PTR _value$536950[ebp]
  001ad	50		 push	 eax
  001ae	8d 8e 98 02 00
	00		 lea	 ecx, DWORD PTR [esi+664]
  001b4	e8 00 00 00 00	 call	 ?EncryptValueToPool@?$CEncrypt@M@@AAEXPBD@Z ; CEncrypt<float>::EncryptValueToPool
  001b9	6a 02		 push	 2

; 584  : 	m_fExtraHP = rkLoader.LoadFloat_e( "extra_hp", 0.0f );

  001bb	c7 45 d4 88 94
	9f 98		 mov	 DWORD PTR __k$536967[ebp], -1734372216 ; 989f9488H
  001c2	c7 45 d8 8c b3
	83 9a		 mov	 DWORD PTR __k$536967[ebp+4], -1702644852 ; 9a83b38cH
  001c9	8d 45 d4	 lea	 eax, DWORD PTR __k$536967[ebp]
  001cc	88 5d dc	 mov	 BYTE PTR __k$536967[ebp+8], bl
  001cf	59		 pop	 ecx
$LL432@LoadProper:
  001d0	31 38		 xor	 DWORD PTR [eax], edi
  001d2	83 c0 04	 add	 eax, 4
  001d5	49		 dec	 ecx
  001d6	75 f8		 jne	 SHORT $LL432@LoadProper
  001d8	0f 57 c0	 xorps	 xmm0, xmm0
  001db	51		 push	 ecx
  001dc	8b 8d d8 fc ff
	ff		 mov	 ecx, DWORD PTR _rkLoader$GSCopy$[ebp]
  001e2	8d 45 d4	 lea	 eax, DWORD PTR __k$536967[ebp]
  001e5	f3 0f 11 04 24	 movss	 DWORD PTR [esp], xmm0
  001ea	50		 push	 eax
  001eb	ff 15 00 00 00
	00		 call	 DWORD PTR __imp_?LoadFloat@ioINILoader@@QAEMPBDM@Z
  001f1	d9 9d c4 fc ff
	ff		 fstp	 DWORD PTR _value$537080[ebp]
  001f7	8d 85 c4 fc ff
	ff		 lea	 eax, DWORD PTR _value$537080[ebp]
  001fd	50		 push	 eax
  001fe	8d 8e 08 02 00
	00		 lea	 ecx, DWORD PTR [esi+520]
  00204	e8 00 00 00 00	 call	 ?EncryptValueToPool@?$CEncrypt@M@@AAEXPBD@Z ; CEncrypt<float>::EncryptValueToPool

; 585  : 	m_fDefaultMaxHP = rkLoader.LoadFloat_e( "max_hp", FLOAT10 );

  00209	b8 0a 00 00 00	 mov	 eax, 10			; 0000000aH
  0020e	6a 04		 push	 4
  00210	c7 45 f0 80 8d
	93 b5		 mov	 DWORD PTR __k$537101[ebp], -1248621184 ; b5938d80H
  00217	31 7d f0	 xor	 DWORD PTR __k$537101[ebp], edi
  0021a	89 85 98 fc ff
	ff		 mov	 DWORD PTR $T537085[ebp], eax
  00220	66 c7 45 f4 85
	9c		 mov	 WORD PTR __k$537101[ebp+4], 40069 ; 00009c85H
  00226	88 5d f6	 mov	 BYTE PTR __k$537101[ebp+6], bl
  00229	59		 pop	 ecx
$LL539@LoadProper:
  0022a	8b c1		 mov	 eax, ecx
  0022c	25 03 00 00 80	 and	 eax, -2147483645	; 80000003H
  00231	79 05		 jns	 SHORT $LN2685@LoadProper
  00233	48		 dec	 eax
  00234	83 c8 fc	 or	 eax, -4			; fffffffcH
  00237	40		 inc	 eax
$LN2685@LoadProper:
  00238	b2 ed		 mov	 dl, -19			; ffffffedH
  0023a	2a d0		 sub	 dl, al
  0023c	30 54 0d f0	 xor	 BYTE PTR __k$537101[ebp+ecx], dl
  00240	41		 inc	 ecx
  00241	83 f9 06	 cmp	 ecx, 6
  00244	7c e4		 jl	 SHORT $LL539@LoadProper
  00246	8b 85 98 fc ff
	ff		 mov	 eax, DWORD PTR $T537085[ebp]
  0024c	db 85 98 fc ff
	ff		 fild	 DWORD PTR $T537085[ebp]
  00252	85 c0		 test	 eax, eax
  00254	79 06		 jns	 SHORT $LN2686@LoadProper
  00256	d8 05 00 00 00
	00		 fadd	 DWORD PTR __real@4f800000
$LN2686@LoadProper:
  0025c	51		 push	 ecx
  0025d	8b 8d d8 fc ff
	ff		 mov	 ecx, DWORD PTR _rkLoader$GSCopy$[ebp]
  00263	d9 1c 24	 fstp	 DWORD PTR [esp]
  00266	8d 45 f0	 lea	 eax, DWORD PTR __k$537101[ebp]
  00269	50		 push	 eax
  0026a	ff 15 00 00 00
	00		 call	 DWORD PTR __imp_?LoadFloat@ioINILoader@@QAEMPBDM@Z
  00270	d9 9d b0 fc ff
	ff		 fstp	 DWORD PTR _value$537214[ebp]
  00276	8d 85 b0 fc ff
	ff		 lea	 eax, DWORD PTR _value$537214[ebp]
  0027c	8d 8e d8 01 00
	00		 lea	 ecx, DWORD PTR [esi+472]
  00282	50		 push	 eax
  00283	e8 00 00 00 00	 call	 ?EncryptValueToPool@?$CEncrypt@M@@AAEXPBD@Z ; CEncrypt<float>::EncryptValueToPool

; 586  : 	m_HP.m_fMaxValue = 0.0f;

  00288	0f 57 c0	 xorps	 xmm0, xmm0
  0028b	8d 85 d0 fc ff
	ff		 lea	 eax, DWORD PTR _value$537219[ebp]
  00291	8d 8e f0 00 00
	00		 lea	 ecx, DWORD PTR [esi+240]
  00297	50		 push	 eax
  00298	f3 0f 11 85 d0
	fc ff ff	 movss	 DWORD PTR _value$537219[ebp], xmm0
  002a0	e8 00 00 00 00	 call	 ?EncryptValueToPool@?$CEncrypt@M@@AAEXPBD@Z ; CEncrypt<float>::EncryptValueToPool

; 587  : 	m_HP.m_fCurValue = 0.0f;

  002a5	0f 57 c0	 xorps	 xmm0, xmm0
  002a8	8d 85 b8 fc ff
	ff		 lea	 eax, DWORD PTR _value$537223[ebp]
  002ae	8d 8e c0 00 00
	00		 lea	 ecx, DWORD PTR [esi+192]
  002b4	50		 push	 eax
  002b5	f3 0f 11 85 b8
	fc ff ff	 movss	 DWORD PTR _value$537223[ebp], xmm0
  002bd	e8 00 00 00 00	 call	 ?EncryptValueToPool@?$CEncrypt@M@@AAEXPBD@Z ; CEncrypt<float>::EncryptValueToPool

; 588  : 	m_fCurMaxHP = m_fDefaultMaxHP;

  002c2	8d 86 d8 01 00
	00		 lea	 eax, DWORD PTR [esi+472]
  002c8	8d 8e 90 03 00
	00		 lea	 ecx, DWORD PTR [esi+912]
  002ce	50		 push	 eax
  002cf	e8 00 00 00 00	 call	 ??4?$CEncrypt@M@@QAE_NAAV0@@Z ; CEncrypt<float>::operator=

; 589  : 	m_HP.m_fMaxValue = m_fCurMaxHP;

  002d4	8d 86 90 03 00
	00		 lea	 eax, DWORD PTR [esi+912]
  002da	50		 push	 eax
  002db	8d 8e f0 00 00
	00		 lea	 ecx, DWORD PTR [esi+240]
  002e1	e8 00 00 00 00	 call	 ??4?$CEncrypt@M@@QAE_NAAV0@@Z ; CEncrypt<float>::operator=

; 590  : 	m_HP.m_fCurValue = m_fCurMaxHP;

  002e6	8d 86 90 03 00
	00		 lea	 eax, DWORD PTR [esi+912]
  002ec	50		 push	 eax
  002ed	8d 8e c0 00 00
	00		 lea	 ecx, DWORD PTR [esi+192]
  002f3	e8 00 00 00 00	 call	 ??4?$CEncrypt@M@@QAE_NAAV0@@Z ; CEncrypt<float>::operator=
  002f8	6a 02		 push	 2

; 591  : 
; 592  : 	m_fRecovery = rkLoader.LoadFloat_e( "hp_recovery", 0.0f );

  002fa	c7 45 94 85 9c
	b4 98		 mov	 DWORD PTR __k$537239[ebp], -1732993915 ; 98b49c85H
  00301	c7 45 98 88 8f
	84 9c		 mov	 DWORD PTR __k$537239[ebp+4], -1669034104 ; 9c848f88H
  00308	8d 45 94	 lea	 eax, DWORD PTR __k$537239[ebp]
  0030b	c7 45 9c 88 9e
	92 00		 mov	 DWORD PTR __k$537239[ebp+8], 9608840 ; 00929e88H
  00312	59		 pop	 ecx
$LL654@LoadProper:
  00313	31 38		 xor	 DWORD PTR [eax], edi
  00315	83 c0 04	 add	 eax, 4
  00318	49		 dec	 ecx
  00319	75 f8		 jne	 SHORT $LL654@LoadProper
  0031b	6a 08		 push	 8
  0031d	58		 pop	 eax
$LL651@LoadProper:
  0031e	8b c8		 mov	 ecx, eax
  00320	81 e1 03 00 00
	80		 and	 ecx, -2147483645	; 80000003H
  00326	79 05		 jns	 SHORT $LN2687@LoadProper
  00328	49		 dec	 ecx
  00329	83 c9 fc	 or	 ecx, -4			; fffffffcH
  0032c	41		 inc	 ecx
$LN2687@LoadProper:
  0032d	b2 ed		 mov	 dl, -19			; ffffffedH
  0032f	2a d1		 sub	 dl, cl
  00331	30 54 05 94	 xor	 BYTE PTR __k$537239[ebp+eax], dl
  00335	40		 inc	 eax
  00336	83 f8 0b	 cmp	 eax, 11			; 0000000bH
  00339	7c e3		 jl	 SHORT $LL651@LoadProper
  0033b	0f 57 c0	 xorps	 xmm0, xmm0
  0033e	51		 push	 ecx
  0033f	8b 8d d8 fc ff
	ff		 mov	 ecx, DWORD PTR _rkLoader$GSCopy$[ebp]
  00345	8d 45 94	 lea	 eax, DWORD PTR __k$537239[ebp]
  00348	f3 0f 11 04 24	 movss	 DWORD PTR [esp], xmm0
  0034d	50		 push	 eax
  0034e	ff 15 00 00 00
	00		 call	 DWORD PTR __imp_?LoadFloat@ioINILoader@@QAEMPBDM@Z
  00354	d9 9d c8 fc ff
	ff		 fstp	 DWORD PTR _value$537351[ebp]
  0035a	8d 85 c8 fc ff
	ff		 lea	 eax, DWORD PTR _value$537351[ebp]
  00360	50		 push	 eax
  00361	8d 8e 50 04 00
	00		 lea	 ecx, DWORD PTR [esi+1104]
  00367	e8 00 00 00 00	 call	 ?EncryptValueToPool@?$CEncrypt@M@@AAEXPBD@Z ; CEncrypt<float>::EncryptValueToPool
  0036c	6a 04		 push	 4

; 593  : 	m_HP.m_dwRecoveryTick = rkLoader.LoadInt_e( "hp_recovery_tick", 2000 );

  0036e	c7 85 d4 fe ff
	ff 85 9c b4 98	 mov	 DWORD PTR __k$537370[ebp], -1732993915 ; 98b49c85H
  00378	c7 85 d8 fe ff
	ff 88 8f 84 9c	 mov	 DWORD PTR __k$537370[ebp+4], -1669034104 ; 9c848f88H
  00382	c7 85 dc fe ff
	ff 88 9e 92 b5	 mov	 DWORD PTR __k$537370[ebp+8], -1248682360 ; b5929e88H
  0038c	c7 85 e0 fe ff
	ff 99 85 88 81	 mov	 DWORD PTR __k$537370[ebp+12], -2121759335 ; 81888599H
  00396	8d 85 d4 fe ff
	ff		 lea	 eax, DWORD PTR __k$537370[ebp]
  0039c	88 9d e4 fe ff
	ff		 mov	 BYTE PTR __k$537370[ebp+16], bl
  003a2	59		 pop	 ecx
$LL762@LoadProper:
  003a3	31 38		 xor	 DWORD PTR [eax], edi
  003a5	83 c0 04	 add	 eax, 4
  003a8	49		 dec	 ecx
  003a9	75 f8		 jne	 SHORT $LL762@LoadProper
  003ab	8b 8d d8 fc ff
	ff		 mov	 ecx, DWORD PTR _rkLoader$GSCopy$[ebp]
  003b1	68 d0 07 00 00	 push	 2000			; 000007d0H
  003b6	8d 85 d4 fe ff
	ff		 lea	 eax, DWORD PTR __k$537370[ebp]
  003bc	50		 push	 eax
  003bd	ff 15 00 00 00
	00		 call	 DWORD PTR __imp_?LoadInt@ioINILoader@@QAEHPBDH@Z
  003c3	89 85 c0 fc ff
	ff		 mov	 DWORD PTR _value$537481[ebp], eax
  003c9	8d 85 c0 fc ff
	ff		 lea	 eax, DWORD PTR _value$537481[ebp]
  003cf	50		 push	 eax
  003d0	8d 8e 50 01 00
	00		 lea	 ecx, DWORD PTR [esi+336]
  003d6	e8 00 00 00 00	 call	 ?EncryptValueToPool@?$CEncrypt@K@@AAEXPBD@Z ; CEncrypt<unsigned long>::EncryptValueToPool

; 594  : 
; 595  : 	m_fCharHpRecovery = rkLoader.LoadFloat_e( "heal_hp_recovery", FLOAT10 );

  003db	b8 0a 00 00 00	 mov	 eax, 10			; 0000000aH
  003e0	6a 04		 push	 4
  003e2	c7 85 ec fe ff
	ff 85 89 8a 86	 mov	 DWORD PTR __k$537542[ebp], -2037741179 ; 868a8985H
  003ec	c7 85 f0 fe ff
	ff b2 84 9b b5	 mov	 DWORD PTR __k$537542[ebp+4], -1248099150 ; b59b84b2H
  003f6	c7 85 f4 fe ff
	ff 9f 89 88 85	 mov	 DWORD PTR __k$537542[ebp+8], -2054649441 ; 8588899fH
  00400	c7 85 f8 fe ff
	ff 9b 89 99 93	 mov	 DWORD PTR __k$537542[ebp+12], -1818654309 ; 9399899bH
  0040a	8d 8d ec fe ff
	ff		 lea	 ecx, DWORD PTR __k$537542[ebp]
  00410	88 9d fc fe ff
	ff		 mov	 BYTE PTR __k$537542[ebp+16], bl
  00416	5a		 pop	 edx
$LL872@LoadProper:
  00417	31 39		 xor	 DWORD PTR [ecx], edi
  00419	83 c1 04	 add	 ecx, 4
  0041c	4a		 dec	 edx
  0041d	75 f8		 jne	 SHORT $LL872@LoadProper
  0041f	89 85 98 fc ff
	ff		 mov	 DWORD PTR tv22062[ebp], eax
  00425	db 85 98 fc ff
	ff		 fild	 DWORD PTR tv22062[ebp]
  0042b	85 c0		 test	 eax, eax
  0042d	79 06		 jns	 SHORT $LN2688@LoadProper
  0042f	d8 05 00 00 00
	00		 fadd	 DWORD PTR __real@4f800000
$LN2688@LoadProper:
  00435	51		 push	 ecx
  00436	8b 8d d8 fc ff
	ff		 mov	 ecx, DWORD PTR _rkLoader$GSCopy$[ebp]
  0043c	d9 1c 24	 fstp	 DWORD PTR [esp]
  0043f	8d 85 ec fe ff
	ff		 lea	 eax, DWORD PTR __k$537542[ebp]
  00445	50		 push	 eax
  00446	ff 15 00 00 00
	00		 call	 DWORD PTR __imp_?LoadFloat@ioINILoader@@QAEMPBDM@Z
  0044c	d9 9d b4 fc ff
	ff		 fstp	 DWORD PTR _value$537616[ebp]
  00452	8d 85 b4 fc ff
	ff		 lea	 eax, DWORD PTR _value$537616[ebp]
  00458	50		 push	 eax
  00459	8d 8e 00 03 00
	00		 lea	 ecx, DWORD PTR [esi+768]
  0045f	e8 00 00 00 00	 call	 ?EncryptValueToPool@?$CEncrypt@M@@AAEXPBD@Z ; CEncrypt<float>::EncryptValueToPool

; 596  : 	m_fSkillGaugeRate = rkLoader.LoadFloat_e( "skill_gauge_rate", FLOAT1 );

  00464	b8 01 00 00 00	 mov	 eax, 1
  00469	6a 04		 push	 4
  0046b	c7 85 04 ff ff
	ff 9e 87 82 86	 mov	 DWORD PTR __k$537676[ebp], -2038265954 ; 8682879eH
  00475	c7 85 08 ff ff
	ff 81 b3 8c 8b	 mov	 DWORD PTR __k$537676[ebp+4], -1953713279 ; 8b8cb381H
  0047f	c7 85 0c ff ff
	ff 98 8b 8e b5	 mov	 DWORD PTR __k$537676[ebp+8], -1248949352 ; b58e8b98H
  00489	c7 85 10 ff ff
	ff 9f 8d 9f 8f	 mov	 DWORD PTR __k$537676[ebp+12], -1885368929 ; 8f9f8d9fH
  00493	8d 8d 04 ff ff
	ff		 lea	 ecx, DWORD PTR __k$537676[ebp]
  00499	88 9d 14 ff ff
	ff		 mov	 BYTE PTR __k$537676[ebp+16], bl
  0049f	5a		 pop	 edx
$LL982@LoadProper:
  004a0	31 39		 xor	 DWORD PTR [ecx], edi
  004a2	83 c1 04	 add	 ecx, 4
  004a5	4a		 dec	 edx
  004a6	75 f8		 jne	 SHORT $LL982@LoadProper
  004a8	89 85 98 fc ff
	ff		 mov	 DWORD PTR tv22053[ebp], eax
  004ae	db 85 98 fc ff
	ff		 fild	 DWORD PTR tv22053[ebp]
  004b4	85 c0		 test	 eax, eax
  004b6	79 06		 jns	 SHORT $LN2689@LoadProper
  004b8	d8 05 00 00 00
	00		 fadd	 DWORD PTR __real@4f800000
$LN2689@LoadProper:
  004be	51		 push	 ecx
  004bf	8b 8d d8 fc ff
	ff		 mov	 ecx, DWORD PTR _rkLoader$GSCopy$[ebp]
  004c5	d9 1c 24	 fstp	 DWORD PTR [esp]
  004c8	8d 85 04 ff ff
	ff		 lea	 eax, DWORD PTR __k$537676[ebp]
  004ce	50		 push	 eax
  004cf	ff 15 00 00 00
	00		 call	 DWORD PTR __imp_?LoadFloat@ioINILoader@@QAEMPBDM@Z
  004d5	d9 9d ac fc ff
	ff		 fstp	 DWORD PTR _value$537750[ebp]
  004db	8d 85 ac fc ff
	ff		 lea	 eax, DWORD PTR _value$537750[ebp]
  004e1	50		 push	 eax
  004e2	8d 8e 30 03 00
	00		 lea	 ecx, DWORD PTR [esi+816]
  004e8	e8 00 00 00 00	 call	 ?EncryptValueToPool@?$CEncrypt@M@@AAEXPBD@Z ; CEncrypt<float>::EncryptValueToPool

; 597  : 	m_fCharDamageRate = rkLoader.LoadFloat_e( "damage_rate", FLOAT1 );

  004ed	b8 01 00 00 00	 mov	 eax, 1
  004f2	6a 02		 push	 2
  004f4	c7 45 a4 89 8d
	86 8b		 mov	 DWORD PTR __k$537784[ebp], -1954116215 ; 8b868d89H
  004fb	c7 45 a8 8a 89
	b4 98		 mov	 DWORD PTR __k$537784[ebp+4], -1732998774 ; 98b4898aH
  00502	8d 4d a4	 lea	 ecx, DWORD PTR __k$537784[ebp]
  00505	c7 45 ac 8c 98
	8e 00		 mov	 DWORD PTR __k$537784[ebp+8], 9345164 ; 008e988cH
  0050c	5a		 pop	 edx
$LL1092@LoadProper:
  0050d	31 39		 xor	 DWORD PTR [ecx], edi
  0050f	83 c1 04	 add	 ecx, 4
  00512	4a		 dec	 edx
  00513	75 f8		 jne	 SHORT $LL1092@LoadProper
  00515	c7 85 d4 fc ff
	ff 08 00 00 00	 mov	 DWORD PTR _i$537774[ebp], 8
$LL1089@LoadProper:
  0051f	8b 8d d4 fc ff
	ff		 mov	 ecx, DWORD PTR _i$537774[ebp]
  00525	81 e1 03 00 00
	80		 and	 ecx, -2147483645	; 80000003H
  0052b	79 05		 jns	 SHORT $LN2690@LoadProper
  0052d	49		 dec	 ecx
  0052e	83 c9 fc	 or	 ecx, -4			; fffffffcH
  00531	41		 inc	 ecx
$LN2690@LoadProper:
  00532	b2 ed		 mov	 dl, -19			; ffffffedH
  00534	2a d1		 sub	 dl, cl
  00536	8b 8d d4 fc ff
	ff		 mov	 ecx, DWORD PTR _i$537774[ebp]
  0053c	30 54 0d a4	 xor	 BYTE PTR __k$537784[ebp+ecx], dl
  00540	ff 85 d4 fc ff
	ff		 inc	 DWORD PTR _i$537774[ebp]
  00546	83 bd d4 fc ff
	ff 0b		 cmp	 DWORD PTR _i$537774[ebp], 11 ; 0000000bH
  0054d	7c d0		 jl	 SHORT $LL1089@LoadProper
  0054f	89 85 98 fc ff
	ff		 mov	 DWORD PTR tv22042[ebp], eax
  00555	db 85 98 fc ff
	ff		 fild	 DWORD PTR tv22042[ebp]
  0055b	85 c0		 test	 eax, eax
  0055d	79 06		 jns	 SHORT $LN2691@LoadProper
  0055f	d8 05 00 00 00
	00		 fadd	 DWORD PTR __real@4f800000
$LN2691@LoadProper:
  00565	51		 push	 ecx
  00566	8b 8d d8 fc ff
	ff		 mov	 ecx, DWORD PTR _rkLoader$GSCopy$[ebp]
  0056c	d9 1c 24	 fstp	 DWORD PTR [esp]
  0056f	8d 45 a4	 lea	 eax, DWORD PTR __k$537784[ebp]
  00572	50		 push	 eax
  00573	ff 15 00 00 00
	00		 call	 DWORD PTR __imp_?LoadFloat@ioINILoader@@QAEMPBDM@Z
  00579	d9 9d bc fc ff
	ff		 fstp	 DWORD PTR _value$537884[ebp]
  0057f	8d 85 bc fc ff
	ff		 lea	 eax, DWORD PTR _value$537884[ebp]
  00585	50		 push	 eax
  00586	8d 8e 60 03 00
	00		 lea	 ecx, DWORD PTR [esi+864]
  0058c	e8 00 00 00 00	 call	 ?EncryptValueToPool@?$CEncrypt@M@@AAEXPBD@Z ; CEncrypt<float>::EncryptValueToPool

; 598  : 
; 599  : 	m_fTeamExtraDamageRate = rkLoader.LoadFloat_e( "team_extra_damage_rate", FLOAT1 );

  00591	b8 01 00 00 00	 mov	 eax, 1
  00596	6a 05		 push	 5
  00598	c7 85 b8 fe ff
	ff 99 89 8a 87	 mov	 DWORD PTR __k$537905[ebp], -2020963943 ; 878a8999H
  005a2	c7 85 bc fe ff
	ff b2 89 93 9e	 mov	 DWORD PTR __k$537905[ebp+4], -1634498126 ; 9e9389b2H
  005ac	c7 85 c0 fe ff
	ff 9f 8d b4 8e	 mov	 DWORD PTR __k$537905[ebp+8], -1900769889 ; 8eb48d9fH
  005b6	c7 85 c4 fe ff
	ff 8c 81 8a 8d	 mov	 DWORD PTR __k$537905[ebp+12], -1920302708 ; 8d8a818cH
  005c0	c7 85 c8 fe ff
	ff 88 b3 99 8b	 mov	 DWORD PTR __k$537905[ebp+16], -1952861304 ; 8b99b388H
  005ca	66 c7 85 cc fe
	ff ff 99 89	 mov	 WORD PTR __k$537905[ebp+20], 35225 ; 00008999H
  005d3	8d 8d b8 fe ff
	ff		 lea	 ecx, DWORD PTR __k$537905[ebp]
  005d9	88 9d ce fe ff
	ff		 mov	 BYTE PTR __k$537905[ebp+22], bl
  005df	5a		 pop	 edx
$LL1202@LoadProper:
  005e0	31 39		 xor	 DWORD PTR [ecx], edi
  005e2	83 c1 04	 add	 ecx, 4
  005e5	4a		 dec	 edx
  005e6	75 f8		 jne	 SHORT $LL1202@LoadProper
  005e8	c7 85 d4 fc ff
	ff 14 00 00 00	 mov	 DWORD PTR _i$538006[ebp], 20 ; 00000014H
$LL1199@LoadProper:
  005f2	8b 8d d4 fc ff
	ff		 mov	 ecx, DWORD PTR _i$538006[ebp]
  005f8	81 e1 03 00 00
	80		 and	 ecx, -2147483645	; 80000003H
  005fe	79 05		 jns	 SHORT $LN2692@LoadProper
  00600	49		 dec	 ecx
  00601	83 c9 fc	 or	 ecx, -4			; fffffffcH
  00604	41		 inc	 ecx
$LN2692@LoadProper:
  00605	b2 ed		 mov	 dl, -19			; ffffffedH
  00607	2a d1		 sub	 dl, cl
  00609	8b 8d d4 fc ff
	ff		 mov	 ecx, DWORD PTR _i$538006[ebp]
  0060f	30 94 0d b8 fe
	ff ff		 xor	 BYTE PTR __k$537905[ebp+ecx], dl
  00616	ff 85 d4 fc ff
	ff		 inc	 DWORD PTR _i$538006[ebp]
  0061c	83 bd d4 fc ff
	ff 16		 cmp	 DWORD PTR _i$538006[ebp], 22 ; 00000016H
  00623	7c cd		 jl	 SHORT $LL1199@LoadProper
  00625	89 85 98 fc ff
	ff		 mov	 DWORD PTR tv22031[ebp], eax
  0062b	db 85 98 fc ff
	ff		 fild	 DWORD PTR tv22031[ebp]
  00631	85 c0		 test	 eax, eax
  00633	79 06		 jns	 SHORT $LN2693@LoadProper
  00635	d8 05 00 00 00
	00		 fadd	 DWORD PTR __real@4f800000
$LN2693@LoadProper:
  0063b	51		 push	 ecx
  0063c	8b 8d d8 fc ff
	ff		 mov	 ecx, DWORD PTR _rkLoader$GSCopy$[ebp]
  00642	d9 1c 24	 fstp	 DWORD PTR [esp]
  00645	8d 85 b8 fe ff
	ff		 lea	 eax, DWORD PTR __k$537905[ebp]
  0064b	50		 push	 eax
  0064c	ff 15 00 00 00
	00		 call	 DWORD PTR __imp_?LoadFloat@ioINILoader@@QAEMPBDM@Z
  00652	d9 9d a4 fc ff
	ff		 fstp	 DWORD PTR _value$538018[ebp]
  00658	8d 85 a4 fc ff
	ff		 lea	 eax, DWORD PTR _value$538018[ebp]
  0065e	50		 push	 eax
  0065f	8d 8e 68 02 00
	00		 lea	 ecx, DWORD PTR [esi+616]
  00665	e8 00 00 00 00	 call	 ?EncryptValueToPool@?$CEncrypt@M@@AAEXPBD@Z ; CEncrypt<float>::EncryptValueToPool
  0066a	6a 04		 push	 4

; 600  : 
; 601  : 	m_fDecreaseRate = rkLoader.LoadFloat_e( "decrease_hp_rate", 0.0f );

  0066c	c7 85 1c ff ff
	ff 89 89 88 98	 mov	 DWORD PTR __k$538074[ebp], -1735882359 ; 98888989H
  00676	c7 85 20 ff ff
	ff 88 8d 98 8f	 mov	 DWORD PTR __k$538074[ebp+4], -1885827704 ; 8f988d88H
  00680	c7 85 24 ff ff
	ff b2 84 9b b5	 mov	 DWORD PTR __k$538074[ebp+8], -1248099150 ; b59b84b2H
  0068a	c7 85 28 ff ff
	ff 9f 8d 9f 8f	 mov	 DWORD PTR __k$538074[ebp+12], -1885368929 ; 8f9f8d9fH
  00694	8d 85 1c ff ff
	ff		 lea	 eax, DWORD PTR __k$538074[ebp]
  0069a	88 9d 2c ff ff
	ff		 mov	 BYTE PTR __k$538074[ebp+16], bl
  006a0	59		 pop	 ecx
$LL1310@LoadProper:
  006a1	31 38		 xor	 DWORD PTR [eax], edi
  006a3	83 c0 04	 add	 eax, 4
  006a6	49		 dec	 ecx
  006a7	75 f8		 jne	 SHORT $LL1310@LoadProper
  006a9	0f 57 c0	 xorps	 xmm0, xmm0
  006ac	51		 push	 ecx
  006ad	8b 8d d8 fc ff
	ff		 mov	 ecx, DWORD PTR _rkLoader$GSCopy$[ebp]
  006b3	8d 85 1c ff ff
	ff		 lea	 eax, DWORD PTR __k$538074[ebp]
  006b9	f3 0f 11 04 24	 movss	 DWORD PTR [esp], xmm0
  006be	50		 push	 eax
  006bf	ff 15 00 00 00
	00		 call	 DWORD PTR __imp_?LoadFloat@ioINILoader@@QAEMPBDM@Z
  006c5	d9 9d 9c fc ff
	ff		 fstp	 DWORD PTR _value$538148[ebp]
  006cb	8d 85 9c fc ff
	ff		 lea	 eax, DWORD PTR _value$538148[ebp]
  006d1	50		 push	 eax
  006d2	8d 8e c0 03 00
	00		 lea	 ecx, DWORD PTR [esi+960]
  006d8	e8 00 00 00 00	 call	 ?EncryptValueToPool@?$CEncrypt@M@@AAEXPBD@Z ; CEncrypt<float>::EncryptValueToPool
  006dd	6a 05		 push	 5

; 602  : 	m_fDecreaseMaxRate = rkLoader.LoadFloat_e( "decrease_hp_max_rate", 0.0f );

  006df	c7 85 9c fe ff
	ff 89 89 88 98	 mov	 DWORD PTR __k$538165[ebp], -1735882359 ; 98888989H
  006e9	c7 85 a0 fe ff
	ff 88 8d 98 8f	 mov	 DWORD PTR __k$538165[ebp+4], -1885827704 ; 8f988d88H
  006f3	c7 85 a4 fe ff
	ff b2 84 9b b5	 mov	 DWORD PTR __k$538165[ebp+8], -1248099150 ; b59b84b2H
  006fd	c7 85 a8 fe ff
	ff 80 8d 93 b5	 mov	 DWORD PTR __k$538165[ebp+12], -1248621184 ; b5938d80H
  00707	c7 85 ac fe ff
	ff 9f 8d 9f 8f	 mov	 DWORD PTR __k$538165[ebp+16], -1885368929 ; 8f9f8d9fH
  00711	8d 85 9c fe ff
	ff		 lea	 eax, DWORD PTR __k$538165[ebp]
  00717	88 9d b0 fe ff
	ff		 mov	 BYTE PTR __k$538165[ebp+20], bl
  0071d	59		 pop	 ecx
$LL1418@LoadProper:
  0071e	31 38		 xor	 DWORD PTR [eax], edi
  00720	83 c0 04	 add	 eax, 4
  00723	49		 dec	 ecx
  00724	75 f8		 jne	 SHORT $LL1418@LoadProper
  00726	0f 57 c0	 xorps	 xmm0, xmm0
  00729	51		 push	 ecx
  0072a	8b 8d d8 fc ff
	ff		 mov	 ecx, DWORD PTR _rkLoader$GSCopy$[ebp]
  00730	8d 85 9c fe ff
	ff		 lea	 eax, DWORD PTR __k$538165[ebp]
  00736	f3 0f 11 04 24	 movss	 DWORD PTR [esp], xmm0
  0073b	50		 push	 eax
  0073c	ff 15 00 00 00
	00		 call	 DWORD PTR __imp_?LoadFloat@ioINILoader@@QAEMPBDM@Z
  00742	d9 9d a8 fc ff
	ff		 fstp	 DWORD PTR _value$538278[ebp]
  00748	8d 85 a8 fc ff
	ff		 lea	 eax, DWORD PTR _value$538278[ebp]
  0074e	50		 push	 eax
  0074f	8d 8e 20 04 00
	00		 lea	 ecx, DWORD PTR [esi+1056]
  00755	e8 00 00 00 00	 call	 ?EncryptValueToPool@?$CEncrypt@M@@AAEXPBD@Z ; CEncrypt<float>::EncryptValueToPool
  0075a	6a 05		 push	 5

; 603  : 
; 604  : 	m_dwDecreaseTicTime = rkLoader.LoadInt_e( "decrease_hp_tic_time", 0 );

  0075c	c7 85 64 fe ff
	ff 89 89 88 98	 mov	 DWORD PTR __k$538295[ebp], -1735882359 ; 98888989H
  00766	c7 85 68 fe ff
	ff 88 8d 98 8f	 mov	 DWORD PTR __k$538295[ebp+4], -1885827704 ; 8f988d88H
  00770	c7 85 6c fe ff
	ff b2 84 9b b5	 mov	 DWORD PTR __k$538295[ebp+8], -1248099150 ; b59b84b2H
  0077a	c7 85 70 fe ff
	ff 99 85 88 b5	 mov	 DWORD PTR __k$538295[ebp+12], -1249344103 ; b5888599H
  00784	c7 85 74 fe ff
	ff 99 85 86 8f	 mov	 DWORD PTR __k$538295[ebp+16], -1887009383 ; 8f868599H
  0078e	8d 85 64 fe ff
	ff		 lea	 eax, DWORD PTR __k$538295[ebp]
  00794	88 9d 78 fe ff
	ff		 mov	 BYTE PTR __k$538295[ebp+20], bl
  0079a	59		 pop	 ecx
$LL1526@LoadProper:
  0079b	31 38		 xor	 DWORD PTR [eax], edi
  0079d	83 c0 04	 add	 eax, 4
  007a0	49		 dec	 ecx
  007a1	75 f8		 jne	 SHORT $LL1526@LoadProper
  007a3	8b 8d d8 fc ff
	ff		 mov	 ecx, DWORD PTR _rkLoader$GSCopy$[ebp]
  007a9	53		 push	 ebx
  007aa	8d 85 64 fe ff
	ff		 lea	 eax, DWORD PTR __k$538295[ebp]
  007b0	50		 push	 eax
  007b1	ff 15 00 00 00
	00		 call	 DWORD PTR __imp_?LoadInt@ioINILoader@@QAEHPBDH@Z
  007b7	89 85 a0 fc ff
	ff		 mov	 DWORD PTR _value$538407[ebp], eax
  007bd	8d 85 a0 fc ff
	ff		 lea	 eax, DWORD PTR _value$538407[ebp]
  007c3	50		 push	 eax
  007c4	8d 8e b0 04 00
	00		 lea	 ecx, DWORD PTR [esi+1200]
  007ca	e8 00 00 00 00	 call	 ?EncryptValueToPool@?$CEncrypt@K@@AAEXPBD@Z ; CEncrypt<unsigned long>::EncryptValueToPool
  007cf	6a 02		 push	 2

; 605  : 
; 606  : 	char szBuf[MAX_PATH];
; 607  : 	rkLoader.LoadString_e( "red_symbol", "staticmodel/symbol_red.txt", szBuf, MAX_PATH );

  007d1	c7 45 b4 9f 89
	8f b5		 mov	 DWORD PTR __k$538437[ebp], -1248884321 ; b58f899fH
  007d8	c7 45 b8 9e 95
	86 88		 mov	 DWORD PTR __k$538437[ebp+4], -2004445794 ; 8886959eH
  007df	66 c7 45 bc 82
	80		 mov	 WORD PTR __k$538437[ebp+8], 32898 ; 00008082H
  007e5	8d 45 b4	 lea	 eax, DWORD PTR __k$538437[ebp]
  007e8	88 5d be	 mov	 BYTE PTR __k$538437[ebp+10], bl
  007eb	59		 pop	 ecx
$LL1730@LoadProper:
  007ec	31 38		 xor	 DWORD PTR [eax], edi
  007ee	83 c0 04	 add	 eax, 4
  007f1	49		 dec	 ecx
  007f2	75 f8		 jne	 SHORT $LL1730@LoadProper
  007f4	6a 08		 push	 8
  007f6	58		 pop	 eax
$LL1727@LoadProper:
  007f7	8b c8		 mov	 ecx, eax
  007f9	81 e1 03 00 00
	80		 and	 ecx, -2147483645	; 80000003H
  007ff	79 05		 jns	 SHORT $LN2694@LoadProper
  00801	49		 dec	 ecx
  00802	83 c9 fc	 or	 ecx, -4			; fffffffcH
  00805	41		 inc	 ecx
$LN2694@LoadProper:
  00806	b2 ed		 mov	 dl, -19			; ffffffedH
  00808	2a d1		 sub	 dl, cl
  0080a	30 54 05 b4	 xor	 BYTE PTR __k$538437[ebp+eax], dl
  0080e	40		 inc	 eax
  0080f	83 f8 0a	 cmp	 eax, 10			; 0000000aH
  00812	7c e3		 jl	 SHORT $LL1727@LoadProper
  00814	6a 06		 push	 6
  00816	c7 85 44 fe ff
	ff 9e 98 8a 9e	 mov	 DWORD PTR __d$538534[ebp], -1635084130 ; 9e8a989eH
  00820	c7 85 48 fe ff
	ff 84 8f 86 85	 mov	 DWORD PTR __d$538534[ebp+4], -2054779004 ; 85868f84H
  0082a	c7 85 4c fe ff
	ff 89 89 87 c5	 mov	 DWORD PTR __d$538534[ebp+8], -980973175 ; c5878989H
  00834	c7 85 50 fe ff
	ff 9e 95 86 88	 mov	 DWORD PTR __d$538534[ebp+12], -2004445794 ; 8886959eH
  0083e	c7 85 54 fe ff
	ff 82 80 b4 98	 mov	 DWORD PTR __d$538534[ebp+16], -1733001086 ; 98b48082H
  00848	c7 85 58 fe ff
	ff 88 88 c5 9e	 mov	 DWORD PTR __d$538534[ebp+20], -1631221624 ; 9ec58888H
  00852	66 c7 85 5c fe
	ff ff 95 98	 mov	 WORD PTR __d$538534[ebp+24], 39061 ; 00009895H
  0085b	8d 85 44 fe ff
	ff		 lea	 eax, DWORD PTR __d$538534[ebp]
  00861	88 9d 5e fe ff
	ff		 mov	 BYTE PTR __d$538534[ebp+26], bl
  00867	59		 pop	 ecx
$LL1738@LoadProper:
  00868	31 38		 xor	 DWORD PTR [eax], edi
  0086a	83 c0 04	 add	 eax, 4
  0086d	49		 dec	 ecx
  0086e	75 f8		 jne	 SHORT $LL1738@LoadProper
  00870	6a 18		 push	 24			; 00000018H
  00872	5f		 pop	 edi
$LL1735@LoadProper:
  00873	8b c7		 mov	 eax, edi
  00875	25 03 00 00 80	 and	 eax, -2147483645	; 80000003H
  0087a	79 05		 jns	 SHORT $LN2695@LoadProper
  0087c	48		 dec	 eax
  0087d	83 c8 fc	 or	 eax, -4			; fffffffcH
  00880	40		 inc	 eax
$LN2695@LoadProper:
  00881	b1 ed		 mov	 cl, -19			; ffffffedH
  00883	2a c8		 sub	 cl, al
  00885	30 8c 3d 44 fe
	ff ff		 xor	 BYTE PTR __d$538534[ebp+edi], cl
  0088c	47		 inc	 edi
  0088d	83 ff 1a	 cmp	 edi, 26			; 0000001aH
  00890	7c e1		 jl	 SHORT $LL1735@LoadProper
  00892	8b 8d d8 fc ff
	ff		 mov	 ecx, DWORD PTR _rkLoader$GSCopy$[ebp]
  00898	8b 3d 00 00 00
	00		 mov	 edi, DWORD PTR __imp_?LoadStringA@ioINILoader@@QAEXPBD0PADH@Z
  0089e	68 04 01 00 00	 push	 260			; 00000104H
  008a3	8d 85 dc fc ff
	ff		 lea	 eax, DWORD PTR _szBuf$[ebp]
  008a9	50		 push	 eax
  008aa	8d 85 44 fe ff
	ff		 lea	 eax, DWORD PTR __d$538534[ebp]
  008b0	50		 push	 eax
  008b1	8d 45 b4	 lea	 eax, DWORD PTR __k$538437[ebp]
  008b4	50		 push	 eax
  008b5	ff d7		 call	 edi

; 608  : 	m_RedSymbolModel = szBuf;

  008b7	8d 85 dc fc ff
	ff		 lea	 eax, DWORD PTR _szBuf$[ebp]
  008bd	50		 push	 eax
  008be	8d 8e 10 05 00
	00		 lea	 ecx, DWORD PTR [esi+1296]
  008c4	ff 15 00 00 00
	00		 call	 DWORD PTR __imp_??4ioHashString@@QAEAAV0@PBD@Z
  008ca	6a 02		 push	 2

; 609  : 	rkLoader.LoadString_e( "blue_symbol", "staticmodel/symbol_blue.txt", szBuf, MAX_PATH );

  008cc	c7 45 84 8f 80
	9e 8f		 mov	 DWORD PTR __k$538742[ebp], -1885437809 ; 8f9e808fH
  008d3	c7 45 88 b2 9f
	92 87		 mov	 DWORD PTR __k$538742[ebp+4], -2020433998 ; 87929fb2H
  008da	8d 45 84	 lea	 eax, DWORD PTR __k$538742[ebp]
  008dd	c7 45 8c 8f 83
	87 00		 mov	 DWORD PTR __k$538742[ebp+8], 8881039 ; 0087838fH
  008e4	59		 pop	 ecx
$LL1940@LoadProper:
  008e5	81 30 ed ec eb
	ea		 xor	 DWORD PTR [eax], -353637139 ; eaebecedH
  008eb	83 c0 04	 add	 eax, 4
  008ee	49		 dec	 ecx
  008ef	75 f4		 jne	 SHORT $LL1940@LoadProper
  008f1	6a 08		 push	 8
  008f3	58		 pop	 eax
$LL1937@LoadProper:
  008f4	8b c8		 mov	 ecx, eax
  008f6	81 e1 03 00 00
	80		 and	 ecx, -2147483645	; 80000003H
  008fc	79 05		 jns	 SHORT $LN2696@LoadProper
  008fe	49		 dec	 ecx
  008ff	83 c9 fc	 or	 ecx, -4			; fffffffcH
  00902	41		 inc	 ecx
$LN2696@LoadProper:
  00903	b2 ed		 mov	 dl, -19			; ffffffedH
  00905	2a d1		 sub	 dl, cl
  00907	30 54 05 84	 xor	 BYTE PTR __k$538742[ebp+eax], dl
  0090b	40		 inc	 eax
  0090c	83 f8 0b	 cmp	 eax, 11			; 0000000bH
  0090f	7c e3		 jl	 SHORT $LL1937@LoadProper
  00911	6a 06		 push	 6
  00913	c7 85 04 fe ff
	ff 9e 98 8a 9e	 mov	 DWORD PTR __d$538839[ebp], -1635084130 ; 9e8a989eH
  0091d	c7 85 08 fe ff
	ff 84 8f 86 85	 mov	 DWORD PTR __d$538839[ebp+4], -2054779004 ; 85868f84H
  00927	c7 85 0c fe ff
	ff 89 89 87 c5	 mov	 DWORD PTR __d$538839[ebp+8], -980973175 ; c5878989H
  00931	c7 85 10 fe ff
	ff 9e 95 86 88	 mov	 DWORD PTR __d$538839[ebp+12], -2004445794 ; 8886959eH
  0093b	c7 85 14 fe ff
	ff 82 80 b4 88	 mov	 DWORD PTR __d$538839[ebp+16], -2001436542 ; 88b48082H
  00945	c7 85 18 fe ff
	ff 81 99 8e c4	 mov	 DWORD PTR __d$538839[ebp+20], -997287551 ; c48e9981H
  0094f	8d 85 04 fe ff
	ff		 lea	 eax, DWORD PTR __d$538839[ebp]
  00955	c7 85 1c fe ff
	ff 99 94 9f 00	 mov	 DWORD PTR __d$538839[ebp+24], 10458265 ; 009f9499H
  0095f	59		 pop	 ecx
$LL1948@LoadProper:
  00960	81 30 ed ec eb
	ea		 xor	 DWORD PTR [eax], -353637139 ; eaebecedH
  00966	83 c0 04	 add	 eax, 4
  00969	49		 dec	 ecx
  0096a	75 f4		 jne	 SHORT $LL1948@LoadProper
  0096c	6a 18		 push	 24			; 00000018H
  0096e	58		 pop	 eax
$LL1945@LoadProper:
  0096f	8b c8		 mov	 ecx, eax
  00971	81 e1 03 00 00
	80		 and	 ecx, -2147483645	; 80000003H
  00977	79 05		 jns	 SHORT $LN2697@LoadProper
  00979	49		 dec	 ecx
  0097a	83 c9 fc	 or	 ecx, -4			; fffffffcH
  0097d	41		 inc	 ecx
$LN2697@LoadProper:
  0097e	b2 ed		 mov	 dl, -19			; ffffffedH
  00980	2a d1		 sub	 dl, cl
  00982	30 94 05 04 fe
	ff ff		 xor	 BYTE PTR __d$538839[ebp+eax], dl
  00989	40		 inc	 eax
  0098a	83 f8 1b	 cmp	 eax, 27			; 0000001bH
  0098d	7c e0		 jl	 SHORT $LL1945@LoadProper
  0098f	8b 8d d8 fc ff
	ff		 mov	 ecx, DWORD PTR _rkLoader$GSCopy$[ebp]
  00995	68 04 01 00 00	 push	 260			; 00000104H
  0099a	8d 85 dc fc ff
	ff		 lea	 eax, DWORD PTR _szBuf$[ebp]
  009a0	50		 push	 eax
  009a1	8d 85 04 fe ff
	ff		 lea	 eax, DWORD PTR __d$538839[ebp]
  009a7	50		 push	 eax
  009a8	8d 45 84	 lea	 eax, DWORD PTR __k$538742[ebp]
  009ab	50		 push	 eax
  009ac	ff d7		 call	 edi

; 610  : 	m_BlueSymbolModel = szBuf;

  009ae	8d 85 dc fc ff
	ff		 lea	 eax, DWORD PTR _szBuf$[ebp]
  009b4	50		 push	 eax
  009b5	8d 8e 20 05 00
	00		 lea	 ecx, DWORD PTR [esi+1312]
  009bb	ff 15 00 00 00
	00		 call	 DWORD PTR __imp_??4ioHashString@@QAEAAV0@PBD@Z
  009c1	6a 02		 push	 2

; 611  : 	rkLoader.LoadString_e( "none_symbol", "staticmodel/symbol_nor.txt", szBuf, MAX_PATH );

  009c3	c7 85 74 ff ff
	ff 83 83 85 8f	 mov	 DWORD PTR __k$538927[ebp], -1887075453 ; 8f858383H
  009cd	c7 85 78 ff ff
	ff b2 9f 92 87	 mov	 DWORD PTR __k$538927[ebp+4], -2020433998 ; 87929fb2H
  009d7	8d 85 74 ff ff
	ff		 lea	 eax, DWORD PTR __k$538927[ebp]
  009dd	c7 85 7c ff ff
	ff 8f 83 87 00	 mov	 DWORD PTR __k$538927[ebp+8], 8881039 ; 0087838fH
  009e7	59		 pop	 ecx
$LL2150@LoadProper:
  009e8	81 30 ed ec eb
	ea		 xor	 DWORD PTR [eax], -353637139 ; eaebecedH
  009ee	83 c0 04	 add	 eax, 4
  009f1	49		 dec	 ecx
  009f2	75 f4		 jne	 SHORT $LL2150@LoadProper
  009f4	6a 08		 push	 8
  009f6	58		 pop	 eax
$LL2147@LoadProper:
  009f7	8b c8		 mov	 ecx, eax
  009f9	81 e1 03 00 00
	80		 and	 ecx, -2147483645	; 80000003H
  009ff	79 05		 jns	 SHORT $LN2698@LoadProper
  00a01	49		 dec	 ecx
  00a02	83 c9 fc	 or	 ecx, -4			; fffffffcH
  00a05	41		 inc	 ecx
$LN2698@LoadProper:
  00a06	b2 ed		 mov	 dl, -19			; ffffffedH
  00a08	2a d1		 sub	 dl, cl
  00a0a	30 94 05 74 ff
	ff ff		 xor	 BYTE PTR __k$538927[ebp+eax], dl
  00a11	40		 inc	 eax
  00a12	83 f8 0b	 cmp	 eax, 11			; 0000000bH
  00a15	7c e0		 jl	 SHORT $LL2147@LoadProper
  00a17	6a 06		 push	 6
  00a19	c7 85 24 fe ff
	ff 9e 98 8a 9e	 mov	 DWORD PTR __d$539024[ebp], -1635084130 ; 9e8a989eH
  00a23	c7 85 28 fe ff
	ff 84 8f 86 85	 mov	 DWORD PTR __d$539024[ebp+4], -2054779004 ; 85868f84H
  00a2d	c7 85 2c fe ff
	ff 89 89 87 c5	 mov	 DWORD PTR __d$539024[ebp+8], -980973175 ; c5878989H
  00a37	c7 85 30 fe ff
	ff 9e 95 86 88	 mov	 DWORD PTR __d$539024[ebp+12], -2004445794 ; 8886959eH
  00a41	c7 85 34 fe ff
	ff 82 80 b4 84	 mov	 DWORD PTR __d$539024[ebp+16], -2068545406 ; 84b48082H
  00a4b	c7 85 38 fe ff
	ff 82 9e c5 9e	 mov	 DWORD PTR __d$539024[ebp+20], -1631215998 ; 9ec59e82H
  00a55	66 c7 85 3c fe
	ff ff 95 98	 mov	 WORD PTR __d$539024[ebp+24], 39061 ; 00009895H
  00a5e	8d 85 24 fe ff
	ff		 lea	 eax, DWORD PTR __d$539024[ebp]
  00a64	88 9d 3e fe ff
	ff		 mov	 BYTE PTR __d$539024[ebp+26], bl
  00a6a	59		 pop	 ecx
$LL2158@LoadProper:
  00a6b	81 30 ed ec eb
	ea		 xor	 DWORD PTR [eax], -353637139 ; eaebecedH
  00a71	83 c0 04	 add	 eax, 4
  00a74	49		 dec	 ecx
  00a75	75 f4		 jne	 SHORT $LL2158@LoadProper
  00a77	6a 18		 push	 24			; 00000018H
  00a79	58		 pop	 eax
$LL2155@LoadProper:
  00a7a	8b c8		 mov	 ecx, eax
  00a7c	81 e1 03 00 00
	80		 and	 ecx, -2147483645	; 80000003H
  00a82	79 05		 jns	 SHORT $LN2699@LoadProper
  00a84	49		 dec	 ecx
  00a85	83 c9 fc	 or	 ecx, -4			; fffffffcH
  00a88	41		 inc	 ecx
$LN2699@LoadProper:
  00a89	b2 ed		 mov	 dl, -19			; ffffffedH
  00a8b	2a d1		 sub	 dl, cl
  00a8d	30 94 05 24 fe
	ff ff		 xor	 BYTE PTR __d$539024[ebp+eax], dl
  00a94	40		 inc	 eax
  00a95	83 f8 1a	 cmp	 eax, 26			; 0000001aH
  00a98	7c e0		 jl	 SHORT $LL2155@LoadProper
  00a9a	8b 8d d8 fc ff
	ff		 mov	 ecx, DWORD PTR _rkLoader$GSCopy$[ebp]
  00aa0	68 04 01 00 00	 push	 260			; 00000104H
  00aa5	8d 85 dc fc ff
	ff		 lea	 eax, DWORD PTR _szBuf$[ebp]
  00aab	50		 push	 eax
  00aac	8d 85 24 fe ff
	ff		 lea	 eax, DWORD PTR __d$539024[ebp]
  00ab2	50		 push	 eax
  00ab3	8d 85 74 ff ff
	ff		 lea	 eax, DWORD PTR __k$538927[ebp]
  00ab9	50		 push	 eax
  00aba	ff d7		 call	 edi

; 612  : 	m_NoneSymbolModel = szBuf;

  00abc	8d 85 dc fc ff
	ff		 lea	 eax, DWORD PTR _szBuf$[ebp]
  00ac2	50		 push	 eax
  00ac3	8d 8e 30 05 00
	00		 lea	 ecx, DWORD PTR [esi+1328]
  00ac9	ff 15 00 00 00
	00		 call	 DWORD PTR __imp_??4ioHashString@@QAEAAV0@PBD@Z
  00acf	6a 05		 push	 5

; 613  : 	rkLoader.LoadString_e( "none_activity_symbol", "staticmodel/symbol_disable.txt", szBuf, MAX_PATH );

  00ad1	c7 85 80 fe ff
	ff 83 83 85 8f	 mov	 DWORD PTR __k$539172[ebp], -1887075453 ; 8f858383H
  00adb	c7 85 84 fe ff
	ff b2 8d 88 9e	 mov	 DWORD PTR __k$539172[ebp+4], -1635217998 ; 9e888db2H
  00ae5	c7 85 88 fe ff
	ff 84 9a 82 9e	 mov	 DWORD PTR __k$539172[ebp+8], -1635607932 ; 9e829a84H
  00aef	c7 85 8c fe ff
	ff 94 b3 98 93	 mov	 DWORD PTR __k$539172[ebp+12], -1818709100 ; 9398b394H
  00af9	c7 85 90 fe ff
	ff 80 8e 84 86	 mov	 DWORD PTR __k$539172[ebp+16], -2038133120 ; 86848e80H
  00b03	8d 85 80 fe ff
	ff		 lea	 eax, DWORD PTR __k$539172[ebp]
  00b09	88 9d 94 fe ff
	ff		 mov	 BYTE PTR __k$539172[ebp+20], bl
  00b0f	59		 pop	 ecx
  00b10	ba ed ec eb ea	 mov	 edx, -353637139		; eaebecedH
$LL2360@LoadProper:
  00b15	31 10		 xor	 DWORD PTR [eax], edx
  00b17	83 c0 04	 add	 eax, 4
  00b1a	49		 dec	 ecx
  00b1b	75 f8		 jne	 SHORT $LL2360@LoadProper
  00b1d	6a 07		 push	 7
  00b1f	c7 85 e0 fd ff
	ff 9e 98 8a 9e	 mov	 DWORD PTR __d$539269[ebp], -1635084130 ; 9e8a989eH
  00b29	c7 85 e4 fd ff
	ff 84 8f 86 85	 mov	 DWORD PTR __d$539269[ebp+4], -2054779004 ; 85868f84H
  00b33	c7 85 e8 fd ff
	ff 89 89 87 c5	 mov	 DWORD PTR __d$539269[ebp+8], -980973175 ; c5878989H
  00b3d	c7 85 ec fd ff
	ff 9e 95 86 88	 mov	 DWORD PTR __d$539269[ebp+12], -2004445794 ; 8886959eH
  00b47	c7 85 f0 fd ff
	ff 82 80 b4 8e	 mov	 DWORD PTR __d$539269[ebp+16], -1900773246 ; 8eb48082H
  00b51	c7 85 f4 fd ff
	ff 84 9f 8a 88	 mov	 DWORD PTR __d$539269[ebp+20], -2004181116 ; 888a9f84H
  00b5b	c7 85 f8 fd ff
	ff 81 89 c5 9e	 mov	 DWORD PTR __d$539269[ebp+24], -1631221375 ; 9ec58981H
  00b65	66 c7 85 fc fd
	ff ff 95 98	 mov	 WORD PTR __d$539269[ebp+28], 39061 ; 00009895H
  00b6e	8d 85 e0 fd ff
	ff		 lea	 eax, DWORD PTR __d$539269[ebp]
  00b74	88 9d fe fd ff
	ff		 mov	 BYTE PTR __d$539269[ebp+30], bl
  00b7a	59		 pop	 ecx
$LL2368@LoadProper:
  00b7b	31 10		 xor	 DWORD PTR [eax], edx
  00b7d	83 c0 04	 add	 eax, 4
  00b80	49		 dec	 ecx
  00b81	75 f8		 jne	 SHORT $LL2368@LoadProper
  00b83	6a 1c		 push	 28			; 0000001cH
  00b85	58		 pop	 eax
$LL2365@LoadProper:
  00b86	8b c8		 mov	 ecx, eax
  00b88	81 e1 03 00 00
	80		 and	 ecx, -2147483645	; 80000003H
  00b8e	79 05		 jns	 SHORT $LN2700@LoadProper
  00b90	49		 dec	 ecx
  00b91	83 c9 fc	 or	 ecx, -4			; fffffffcH
  00b94	41		 inc	 ecx
$LN2700@LoadProper:
  00b95	b2 ed		 mov	 dl, -19			; ffffffedH
  00b97	2a d1		 sub	 dl, cl
  00b99	30 94 05 e0 fd
	ff ff		 xor	 BYTE PTR __d$539269[ebp+eax], dl
  00ba0	40		 inc	 eax
  00ba1	83 f8 1e	 cmp	 eax, 30			; 0000001eH
  00ba4	7c e0		 jl	 SHORT $LL2365@LoadProper
  00ba6	8b 8d d8 fc ff
	ff		 mov	 ecx, DWORD PTR _rkLoader$GSCopy$[ebp]
  00bac	68 04 01 00 00	 push	 260			; 00000104H
  00bb1	8d 85 dc fc ff
	ff		 lea	 eax, DWORD PTR _szBuf$[ebp]
  00bb7	50		 push	 eax
  00bb8	8d 85 e0 fd ff
	ff		 lea	 eax, DWORD PTR __d$539269[ebp]
  00bbe	50		 push	 eax
  00bbf	8d 85 80 fe ff
	ff		 lea	 eax, DWORD PTR __k$539172[ebp]
  00bc5	50		 push	 eax
  00bc6	ff d7		 call	 edi

; 614  : 	m_NoneActivitySymbolModel = szBuf;

  00bc8	8d 85 dc fc ff
	ff		 lea	 eax, DWORD PTR _szBuf$[ebp]
  00bce	50		 push	 eax
  00bcf	8d 8e 40 05 00
	00		 lea	 ecx, DWORD PTR [esi+1344]
  00bd5	ff 15 00 00 00
	00		 call	 DWORD PTR __imp_??4ioHashString@@QAEAAV0@PBD@Z
  00bdb	6a 03		 push	 3

; 615  : 	rkLoader.LoadString_e( "explosion_sound", "", szBuf, MAX_PATH );

  00bdd	c7 85 4c ff ff
	ff 88 94 9b 86	 mov	 DWORD PTR __k$539405[ebp], -2036624248 ; 869b9488H
  00be7	c7 85 50 ff ff
	ff 82 9f 82 85	 mov	 DWORD PTR __k$539405[ebp+4], -2055037054 ; 85829f82H
  00bf1	c7 85 54 ff ff
	ff 83 b3 98 85	 mov	 DWORD PTR __k$539405[ebp+8], -2053590141 ; 8598b383H
  00bfb	8d 85 4c ff ff
	ff		 lea	 eax, DWORD PTR __k$539405[ebp]
  00c01	c7 85 58 ff ff
	ff 98 82 8f 00	 mov	 DWORD PTR __k$539405[ebp+12], 9405080 ; 008f8298H
  00c0b	59		 pop	 ecx
$LL2474@LoadProper:
  00c0c	81 30 ed ec eb
	ea		 xor	 DWORD PTR [eax], -353637139 ; eaebecedH
  00c12	83 c0 04	 add	 eax, 4
  00c15	49		 dec	 ecx
  00c16	75 f4		 jne	 SHORT $LL2474@LoadProper
  00c18	6a 0c		 push	 12			; 0000000cH
  00c1a	58		 pop	 eax
$LL2471@LoadProper:
  00c1b	8b c8		 mov	 ecx, eax
  00c1d	81 e1 03 00 00
	80		 and	 ecx, -2147483645	; 80000003H
  00c23	79 05		 jns	 SHORT $LN2701@LoadProper
  00c25	49		 dec	 ecx
  00c26	83 c9 fc	 or	 ecx, -4			; fffffffcH
  00c29	41		 inc	 ecx
$LN2701@LoadProper:
  00c2a	b2 ed		 mov	 dl, -19			; ffffffedH
  00c2c	2a d1		 sub	 dl, cl
  00c2e	30 94 05 4c ff
	ff ff		 xor	 BYTE PTR __k$539405[ebp+eax], dl
  00c35	40		 inc	 eax
  00c36	83 f8 0f	 cmp	 eax, 15			; 0000000fH
  00c39	7c e0		 jl	 SHORT $LL2471@LoadProper
  00c3b	8b 8d d8 fc ff
	ff		 mov	 ecx, DWORD PTR _rkLoader$GSCopy$[ebp]
  00c41	68 04 01 00 00	 push	 260			; 00000104H
  00c46	8d 85 dc fc ff
	ff		 lea	 eax, DWORD PTR _szBuf$[ebp]
  00c4c	50		 push	 eax
  00c4d	68 00 00 00 00	 push	 OFFSET ??_C@_00CNPNBAHC@?$AA@
  00c52	8d 85 4c ff ff
	ff		 lea	 eax, DWORD PTR __k$539405[ebp]
  00c58	50		 push	 eax
  00c59	ff d7		 call	 edi

; 616  : 	m_ExplosionSound = szBuf;

  00c5b	8d 85 dc fc ff
	ff		 lea	 eax, DWORD PTR _szBuf$[ebp]
  00c61	50		 push	 eax
  00c62	8d 8e 50 05 00
	00		 lea	 ecx, DWORD PTR [esi+1360]
  00c68	ff 15 00 00 00
	00		 call	 DWORD PTR __imp_??4ioHashString@@QAEAAV0@PBD@Z
  00c6e	6a 04		 push	 4

; 617  : 
; 618  : 	rkLoader.LoadString_e( "symbol_block_buff", "", szBuf, MAX_PATH );

  00c70	c7 85 34 ff ff
	ff 9e 95 86 88	 mov	 DWORD PTR __k$539530[ebp], -2004445794 ; 8886959eH
  00c7a	c7 85 38 ff ff
	ff 82 80 b4 88	 mov	 DWORD PTR __k$539530[ebp+4], -2001436542 ; 88b48082H
  00c84	c7 85 3c ff ff
	ff 81 83 88 81	 mov	 DWORD PTR __k$539530[ebp+8], -2121759871 ; 81888381H
  00c8e	c7 85 40 ff ff
	ff b2 8e 9e 8c	 mov	 DWORD PTR __k$539530[ebp+12], -1935765838 ; 8c9e8eb2H
  00c98	8d 85 34 ff ff
	ff		 lea	 eax, DWORD PTR __k$539530[ebp]
  00c9e	66 c7 85 44 ff
	ff ff 8b 00	 mov	 WORD PTR __k$539530[ebp+16], 139 ; 0000008bH
  00ca7	59		 pop	 ecx
$LL2580@LoadProper:
  00ca8	81 30 ed ec eb
	ea		 xor	 DWORD PTR [eax], -353637139 ; eaebecedH
  00cae	83 c0 04	 add	 eax, 4
  00cb1	49		 dec	 ecx
  00cb2	75 f4		 jne	 SHORT $LL2580@LoadProper
  00cb4	8b 8d d8 fc ff
	ff		 mov	 ecx, DWORD PTR _rkLoader$GSCopy$[ebp]
  00cba	80 b5 44 ff ff
	ff ed		 xor	 BYTE PTR __k$539530[ebp+16], -19 ; ffffffedH
  00cc1	68 04 01 00 00	 push	 260			; 00000104H
  00cc6	8d 85 dc fc ff
	ff		 lea	 eax, DWORD PTR _szBuf$[ebp]
  00ccc	50		 push	 eax
  00ccd	68 00 00 00 00	 push	 OFFSET ??_C@_00CNPNBAHC@?$AA@
  00cd2	8d 85 34 ff ff
	ff		 lea	 eax, DWORD PTR __k$539530[ebp]
  00cd8	50		 push	 eax
  00cd9	ff d7		 call	 edi

; 619  : 	m_BlockBuff = szBuf;

  00cdb	8d 85 dc fc ff
	ff		 lea	 eax, DWORD PTR _szBuf$[ebp]
  00ce1	50		 push	 eax
  00ce2	8d 8e 60 05 00
	00		 lea	 ecx, DWORD PTR [esi+1376]
  00ce8	ff 15 00 00 00
	00		 call	 DWORD PTR __imp_??4ioHashString@@QAEAAV0@PBD@Z

; 620  : }

  00cee	8b 4d fc	 mov	 ecx, DWORD PTR __$ArrayPad$[ebp]
  00cf1	5f		 pop	 edi
  00cf2	5e		 pop	 esi
  00cf3	33 cd		 xor	 ecx, ebp
  00cf5	5b		 pop	 ebx
  00cf6	e8 00 00 00 00	 call	 @__security_check_cookie@4
  00cfb	c9		 leave
  00cfc	c2 04 00	 ret	 4
?LoadProperty@ioSymbolStruct@@UAEXAAVioINILoader@@@Z ENDP ; ioSymbolStruct::LoadProperty
_TEXT	ENDS
PUBLIC	?IsInSymbolRange@ioSymbolStruct@@QAE_NPAVioBaseChar@@@Z ; ioSymbolStruct::IsInSymbolRange
; Function compile flags: /Ogsp
;	COMDAT ?IsInSymbolRange@ioSymbolStruct@@QAE_NPAVioBaseChar@@@Z
_TEXT	SEGMENT
_value$539786 = -4					; size = 4
_value$539773 = 8					; size = 4
_fRangeSq$ = 8						; size = 4
_pChar$ = 8						; size = 4
?IsInSymbolRange@ioSymbolStruct@@QAE_NPAVioBaseChar@@@Z PROC ; ioSymbolStruct::IsInSymbolRange, COMDAT
; _this$ = ecx

; 633  : {

  00000	55		 push	 ebp
  00001	8b ec		 mov	 ebp, esp
  00003	51		 push	 ecx
  00004	56		 push	 esi
  00005	57		 push	 edi

; 634  : 	if( pChar->GetTeam() != GetTeam() )

  00006	8b 7d 08	 mov	 edi, DWORD PTR _pChar$[ebp]
  00009	8d 45 08	 lea	 eax, DWORD PTR _value$539773[ebp]
  0000c	8b f1		 mov	 esi, ecx
  0000e	50		 push	 eax
  0000f	8d 8f 90 00 00
	00		 lea	 ecx, DWORD PTR [edi+144]
  00015	e8 00 00 00 00	 call	 ?DecryptValueToPool@?$CEncrypt@W4TeamType@@@@QAEXPAW4TeamType@@@Z ; CEncrypt<enum TeamType>::DecryptValueToPool
  0001a	8d 45 fc	 lea	 eax, DWORD PTR _value$539786[ebp]
  0001d	50		 push	 eax
  0001e	8d 8e 90 00 00
	00		 lea	 ecx, DWORD PTR [esi+144]
  00024	e8 00 00 00 00	 call	 ?DecryptValueToPool@?$CEncrypt@W4TeamType@@@@QAEXPAW4TeamType@@@Z ; CEncrypt<enum TeamType>::DecryptValueToPool
  00029	8b 45 08	 mov	 eax, DWORD PTR _value$539773[ebp]
  0002c	3b 45 fc	 cmp	 eax, DWORD PTR _value$539786[ebp]

; 635  : 		return false;

  0002f	0f 85 e7 00 00
	00		 jne	 $LN2@IsInSymbol

; 636  : 
; 637  : 	CharState eState = pChar->GetState();

  00035	8a 87 10 03 00
	00		 mov	 al, BYTE PTR [edi+784]

; 638  : 	if( eState == CS_DIE ||
; 639  : 		eState == CS_READY ||
; 640  : 		eState == CS_CHANGE_WAIT ||
; 641  : 		eState == CS_VIEW ||
; 642  : 		eState == CS_OBSERVER ||
; 643  : 		eState == CS_LOADING ||
; 644  : 		eState == CS_ENDMOTION )

  0003b	3c 0e		 cmp	 al, 14			; 0000000eH
  0003d	0f 84 d9 00 00
	00		 je	 $LN2@IsInSymbol
  00043	3c 18		 cmp	 al, 24			; 00000018H
  00045	0f 84 d1 00 00
	00		 je	 $LN2@IsInSymbol
  0004b	3c 1c		 cmp	 al, 28			; 0000001cH
  0004d	0f 84 c9 00 00
	00		 je	 $LN2@IsInSymbol
  00053	3c 1a		 cmp	 al, 26			; 0000001aH
  00055	0f 84 c1 00 00
	00		 je	 $LN2@IsInSymbol
  0005b	3c 2a		 cmp	 al, 42			; 0000002aH
  0005d	0f 84 b9 00 00
	00		 je	 $LN2@IsInSymbol
  00063	3c 24		 cmp	 al, 36			; 00000024H
  00065	0f 84 b1 00 00
	00		 je	 $LN2@IsInSymbol
  0006b	3c 13		 cmp	 al, 19			; 00000013H
  0006d	0f 84 a9 00 00
	00		 je	 $LN2@IsInSymbol

; 646  : 
; 647  : 	float fRangeSq = m_fSymbolRange * m_fSymbolRange;

  00073	f3 0f 10 86 fc
	02 00 00	 movss	 xmm0, DWORD PTR [esi+764]

; 648  : 
; 649  : 	D3DXVECTOR3 vDiff = pChar->GetWorldPosition() - m_vBackUpPos;

  0007b	8b 07		 mov	 eax, DWORD PTR [edi]
  0007d	0f 5a c0	 cvtps2pd xmm0, xmm0
  00080	f2 0f 59 c0	 mulsd	 xmm0, xmm0
  00084	66 0f 5a c0	 cvtpd2ps xmm0, xmm0
  00088	8b cf		 mov	 ecx, edi
  0008a	f3 0f 11 45 08	 movss	 DWORD PTR _fRangeSq$[ebp], xmm0
  0008f	ff 50 70	 call	 DWORD PTR [eax+112]
  00092	f3 0f 10 8e 74
	05 00 00	 movss	 xmm1, DWORD PTR [esi+1396]
  0009a	f3 0f 10 00	 movss	 xmm0, DWORD PTR [eax]
  0009e	f3 0f 10 96 78
	05 00 00	 movss	 xmm2, DWORD PTR [esi+1400]
  000a6	f3 0f 10 9e 7c
	05 00 00	 movss	 xmm3, DWORD PTR [esi+1404]
  000ae	0f 5a c9	 cvtps2pd xmm1, xmm1
  000b1	0f 5a c0	 cvtps2pd xmm0, xmm0
  000b4	f2 0f 5c c1	 subsd	 xmm0, xmm1
  000b8	f3 0f 10 48 04	 movss	 xmm1, DWORD PTR [eax+4]
  000bd	0f 5a d2	 cvtps2pd xmm2, xmm2
  000c0	0f 5a c9	 cvtps2pd xmm1, xmm1
  000c3	f2 0f 5c ca	 subsd	 xmm1, xmm2
  000c7	f3 0f 10 50 08	 movss	 xmm2, DWORD PTR [eax+8]
  000cc	66 0f 5a c0	 cvtpd2ps xmm0, xmm0
  000d0	0f 5a d2	 cvtps2pd xmm2, xmm2
  000d3	66 0f 5a c9	 cvtpd2ps xmm1, xmm1

; 650  : 	if( D3DXVec3LengthSq( &vDiff ) > fRangeSq )

  000d7	f3 0f 5a c0	 cvtss2sd xmm0, xmm0
  000db	0f 5a db	 cvtps2pd xmm3, xmm3
  000de	f2 0f 5c d3	 subsd	 xmm2, xmm3
  000e2	f3 0f 5a c9	 cvtss2sd xmm1, xmm1
  000e6	f2 0f 59 c0	 mulsd	 xmm0, xmm0
  000ea	66 0f 5a d2	 cvtpd2ps xmm2, xmm2
  000ee	f2 0f 59 c9	 mulsd	 xmm1, xmm1
  000f2	f2 0f 58 c1	 addsd	 xmm0, xmm1
  000f6	f3 0f 10 4d 08	 movss	 xmm1, DWORD PTR _fRangeSq$[ebp]
  000fb	f3 0f 5a d2	 cvtss2sd xmm2, xmm2
  000ff	f2 0f 59 d2	 mulsd	 xmm2, xmm2
  00103	f2 0f 58 c2	 addsd	 xmm0, xmm2
  00107	66 0f 5a c0	 cvtpd2ps xmm0, xmm0
  0010b	f3 0f 5a c0	 cvtss2sd xmm0, xmm0
  0010f	0f 5a c9	 cvtps2pd xmm1, xmm1
  00112	66 0f 2f c1	 comisd	 xmm0, xmm1

; 651  : 		return false;

  00116	77 04		 ja	 SHORT $LN2@IsInSymbol

; 652  : 
; 653  : 	return true;

  00118	b0 01		 mov	 al, 1
  0011a	eb 02		 jmp	 SHORT $LN5@IsInSymbol
$LN2@IsInSymbol:

; 645  : 		return false;

  0011c	32 c0		 xor	 al, al
$LN5@IsInSymbol:
  0011e	5f		 pop	 edi
  0011f	5e		 pop	 esi

; 654  : }

  00120	c9		 leave
  00121	c2 04 00	 ret	 4
?IsInSymbolRange@ioSymbolStruct@@QAE_NPAVioBaseChar@@@Z ENDP ; ioSymbolStruct::IsInSymbolRange
_TEXT	ENDS
PUBLIC	_pAttacker$GSCopy$
PUBLIC	_rkPacket$GSCopy$
PUBLIC	?OnSymbolDamaged@ioSymbolStruct@@QAEXAAVSP2Packet@@PAVioBaseChar@@@Z ; ioSymbolStruct::OnSymbolDamaged
EXTRN	?FindWeapon@ioWeaponManager@@QAEPAVioWeapon@@PAVioBaseChar@@K@Z:PROC ; ioWeaponManager::FindWeapon
EXTRN	?GetSingleton@ioWeaponManager@@SAAAV1@XZ:PROC	; ioWeaponManager::GetSingleton
EXTRN	?SetDisableAttackEmoticon@ioBaseGUISupport@@QAEXXZ:PROC ; ioBaseGUISupport::SetDisableAttackEmoticon
EXTRN	??5SP2Packet@@QAEAAV0@AAUD3DXVECTOR3@@@Z:PROC	; SP2Packet::operator>>
EXTRN	??5SP2Packet@@QAEAAV0@AA_N@Z:PROC		; SP2Packet::operator>>
EXTRN	??5SP2Packet@@QAEAAV0@AAM@Z:PROC		; SP2Packet::operator>>
EXTRN	??5SP2Packet@@QAEAAV0@AAH@Z:PROC		; SP2Packet::operator>>
EXTRN	__EH_epilog3_GS:PROC
EXTRN	__EH_prolog3_GS:PROC
;	COMDAT xdata$x
; File d:\lost saga for developer\youtube\tutorial\source\src\lsclient\ioweapon.h
xdata$x	SEGMENT
__unwindtable$?OnSymbolDamaged@ioSymbolStruct@@QAEXAAVSP2Packet@@PAVioBaseChar@@@Z DD 0ffffffffH
	DD	FLAT:__unwindfunclet$?OnSymbolDamaged@ioSymbolStruct@@QAEXAAVSP2Packet@@PAVioBaseChar@@@Z$0
	DD	00H
	DD	FLAT:__unwindfunclet$?OnSymbolDamaged@ioSymbolStruct@@QAEXAAVSP2Packet@@PAVioBaseChar@@@Z$1
	DD	0ffffffffH
	DD	FLAT:__unwindfunclet$?OnSymbolDamaged@ioSymbolStruct@@QAEXAAVSP2Packet@@PAVioBaseChar@@@Z$2
__ehfuncinfo$?OnSymbolDamaged@ioSymbolStruct@@QAEXAAVSP2Packet@@PAVioBaseChar@@@Z DD 019930522H
	DD	03H
	DD	FLAT:__unwindtable$?OnSymbolDamaged@ioSymbolStruct@@QAEXAAVSP2Packet@@PAVioBaseChar@@@Z
	DD	2 DUP(00H)
	DD	2 DUP(00H)
	DD	00H
	DD	01H
; Function compile flags: /Ogsp
; File d:\lost saga for developer\youtube\tutorial\source\src\lsclient\iosymbolstruct.cpp
xdata$x	ENDS
;	COMDAT ?OnSymbolDamaged@ioSymbolStruct@@QAEXAAVSP2Packet@@PAVioBaseChar@@@Z
_TEXT	SEGMENT
$T539811 = -128						; size = 16
$T539812 = -112						; size = 16
$T539817 = -96						; size = 4
_rkPacket$GSCopy$ = -92					; size = 4
_iWeaponType$ = -88					; size = 4
_fPushPower$ = -84					; size = 4
_iRevivalCnt$ = -80					; size = 4
_iTeam$ = -76						; size = 4
_fMaxValue$ = -72					; size = 4
_iWeaponIndex$ = -68					; size = 4
_iShakeCamera$ = -64					; size = 4
_bAddDamage$ = -60					; size = 1
_pAttacker$GSCopy$ = -56				; size = 4
_iActionStop$ = -52					; size = 4
tv547 = -48						; size = 4
tv543 = -48						; size = 4
_value$539938 = -48					; size = 4
_value$539925 = -48					; size = 4
_value$539913 = -48					; size = 4
_value$539900 = -48					; size = 4
_value$539879 = -48					; size = 4
_fDamage$ = -44						; size = 4
_bOnlyEmoticon$ = -37					; size = 1
tv539 = -36						; size = 4
tv536 = -36						; size = 4
_value$539887 = -36					; size = 4
_value$539874 = -36					; size = 4
_value$539869 = -36					; size = 4
_value$539863 = -36					; size = 4
_value$539852 = -36					; size = 4
_value$539847 = -36					; size = 4
_value$539841 = -36					; size = 4
_pSymbolMode$530979 = -36				; size = 4
_bBlock$ = -29						; size = 1
_vAttackDir$ = -28					; size = 12
__$EHRec$ = -12						; size = 12
_rkPacket$ = 8						; size = 4
_pAttacker$ = 12					; size = 4
?OnSymbolDamaged@ioSymbolStruct@@QAEXAAVSP2Packet@@PAVioBaseChar@@@Z PROC ; ioSymbolStruct::OnSymbolDamaged, COMDAT
; _this$ = ecx

; 657  : {

  00000	6a 74		 push	 116			; 00000074H
  00002	b8 00 00 00 00	 mov	 eax, __ehhandler$?OnSymbolDamaged@ioSymbolStruct@@QAEXAAVSP2Packet@@PAVioBaseChar@@@Z
  00007	e8 00 00 00 00	 call	 __EH_prolog3_GS
  0000c	8b 7d 08	 mov	 edi, DWORD PTR _rkPacket$[ebp]
  0000f	8b 5d 0c	 mov	 ebx, DWORD PTR _pAttacker$[ebp]

; 658  : 	int iWeaponType, iRevivalCnt;
; 659  : 	rkPacket >> iWeaponType >> iRevivalCnt;

  00012	8d 45 b0	 lea	 eax, DWORD PTR _iRevivalCnt$[ebp]
  00015	50		 push	 eax
  00016	8d 45 a8	 lea	 eax, DWORD PTR _iWeaponType$[ebp]
  00019	8b f1		 mov	 esi, ecx
  0001b	50		 push	 eax
  0001c	8b cf		 mov	 ecx, edi

; 682  : 		{
; 683  : 			pAttacker->AddNewBuff( m_BlockBuff, "", "", NULL );

  0001e	89 7d a4	 mov	 DWORD PTR _rkPacket$GSCopy$[ebp], edi
  00021	89 5d c8	 mov	 DWORD PTR _pAttacker$GSCopy$[ebp], ebx
  00024	e8 00 00 00 00	 call	 ??5SP2Packet@@QAEAAV0@AAH@Z ; SP2Packet::operator>>
  00029	8b c8		 mov	 ecx, eax
  0002b	e8 00 00 00 00	 call	 ??5SP2Packet@@QAEAAV0@AAH@Z ; SP2Packet::operator>>
  00030	8b 45 b0	 mov	 eax, DWORD PTR _iRevivalCnt$[ebp]
  00033	3b 86 70 05 00
	00		 cmp	 eax, DWORD PTR [esi+1392]
  00039	0f 85 ca 03 00
	00		 jne	 $LN18@OnSymbolDa

; 660  : 	if( iRevivalCnt != m_iRevivalCnt )
; 661  : 		return;
; 662  : 
; 663  : 	float fMaxValue;
; 664  : 	rkPacket >> fMaxValue;

  0003f	8d 45 b8	 lea	 eax, DWORD PTR _fMaxValue$[ebp]
  00042	50		 push	 eax
  00043	8b cf		 mov	 ecx, edi
  00045	e8 00 00 00 00	 call	 ??5SP2Packet@@QAEAAV0@AAM@Z ; SP2Packet::operator>>

; 665  : 
; 666  : 	bool bBlock, bOnlyEmoticon;
; 667  : 	D3DXVECTOR3 vAttackDir;
; 668  : 	rkPacket >> bBlock >> bOnlyEmoticon;

  0004a	8d 45 db	 lea	 eax, DWORD PTR _bOnlyEmoticon$[ebp]
  0004d	50		 push	 eax
  0004e	8d 45 e3	 lea	 eax, DWORD PTR _bBlock$[ebp]
  00051	50		 push	 eax
  00052	8b cf		 mov	 ecx, edi
  00054	e8 00 00 00 00	 call	 ??5SP2Packet@@QAEAAV0@AA_N@Z ; SP2Packet::operator>>
  00059	8b c8		 mov	 ecx, eax
  0005b	e8 00 00 00 00	 call	 ??5SP2Packet@@QAEAAV0@AA_N@Z ; SP2Packet::operator>>

; 669  : 	rkPacket >> vAttackDir;

  00060	8d 45 e4	 lea	 eax, DWORD PTR _vAttackDir$[ebp]
  00063	50		 push	 eax
  00064	8b cf		 mov	 ecx, edi
  00066	e8 00 00 00 00	 call	 ??5SP2Packet@@QAEAAV0@AAUD3DXVECTOR3@@@Z ; SP2Packet::operator>>

; 670  : 
; 671  : 	int iTeam;
; 672  : 	rkPacket >> iTeam;

  0006b	8d 45 b4	 lea	 eax, DWORD PTR _iTeam$[ebp]
  0006e	50		 push	 eax
  0006f	8b cf		 mov	 ecx, edi
  00071	e8 00 00 00 00	 call	 ??5SP2Packet@@QAEAAV0@AAH@Z ; SP2Packet::operator>>

; 673  : 	TeamType eAttackTeam = (TeamType)iTeam;
; 674  : 
; 675  : 	bool bAddDamage;
; 676  : 	float fDamage, fPushPower;
; 677  : 	rkPacket >> bAddDamage >> fDamage >> fPushPower;

  00076	8b 4d a4	 mov	 ecx, DWORD PTR _rkPacket$GSCopy$[ebp]
  00079	8b 7d b4	 mov	 edi, DWORD PTR _iTeam$[ebp]
  0007c	8d 45 ac	 lea	 eax, DWORD PTR _fPushPower$[ebp]
  0007f	50		 push	 eax
  00080	8d 45 d4	 lea	 eax, DWORD PTR _fDamage$[ebp]
  00083	50		 push	 eax
  00084	8d 45 c4	 lea	 eax, DWORD PTR _bAddDamage$[ebp]
  00087	50		 push	 eax
  00088	e8 00 00 00 00	 call	 ??5SP2Packet@@QAEAAV0@AA_N@Z ; SP2Packet::operator>>
  0008d	8b c8		 mov	 ecx, eax
  0008f	e8 00 00 00 00	 call	 ??5SP2Packet@@QAEAAV0@AAM@Z ; SP2Packet::operator>>
  00094	8b c8		 mov	 ecx, eax
  00096	e8 00 00 00 00	 call	 ??5SP2Packet@@QAEAAV0@AAM@Z ; SP2Packet::operator>>

; 678  : 
; 679  : 	if( bBlock )

  0009b	80 7d e3 00	 cmp	 BYTE PTR _bBlock$[ebp], 0
  0009f	0f 84 da 00 00
	00		 je	 $LN16@OnSymbolDa

; 680  : 	{
; 681  : 		if( !bOnlyEmoticon && pAttacker->IsEnableAttackCancelState() && !pAttacker->IgnoreBlock() )

  000a5	80 7d db 00	 cmp	 BYTE PTR _bOnlyEmoticon$[ebp], 0
  000a9	0f 85 c0 00 00
	00		 jne	 $LN15@OnSymbolDa
  000af	8b cb		 mov	 ecx, ebx
  000b1	e8 00 00 00 00	 call	 ?IsEnableAttackCancelState@ioBaseChar@@QAE_NXZ ; ioBaseChar::IsEnableAttackCancelState
  000b6	84 c0		 test	 al, al
  000b8	0f 84 b1 00 00
	00		 je	 $LN15@OnSymbolDa
  000be	8b cb		 mov	 ecx, ebx
  000c0	e8 00 00 00 00	 call	 ?IgnoreBlock@ioBaseChar@@QAE_NXZ ; ioBaseChar::IgnoreBlock
  000c5	84 c0		 test	 al, al
  000c7	0f 85 a2 00 00
	00		 jne	 $LN15@OnSymbolDa

; 682  : 		{
; 683  : 			pAttacker->AddNewBuff( m_BlockBuff, "", "", NULL );

  000cd	8b 3d 00 00 00
	00		 mov	 edi, DWORD PTR __imp_??0ioHashString@@QAE@PBD@Z
  000d3	bb 00 00 00 00	 mov	 ebx, OFFSET ??_C@_00CNPNBAHC@?$AA@
  000d8	53		 push	 ebx
  000d9	8d 4d 80	 lea	 ecx, DWORD PTR $T539811[ebp]
  000dc	ff d7		 call	 edi
  000de	83 65 fc 00	 and	 DWORD PTR __$EHRec$[ebp+8], 0
  000e2	53		 push	 ebx
  000e3	8d 4d 90	 lea	 ecx, DWORD PTR $T539812[ebp]
  000e6	ff d7		 call	 edi
  000e8	8b 4d c8	 mov	 ecx, DWORD PTR _pAttacker$GSCopy$[ebp]
  000eb	6a 00		 push	 0
  000ed	6a 00		 push	 0
  000ef	8d 45 80	 lea	 eax, DWORD PTR $T539811[ebp]
  000f2	50		 push	 eax
  000f3	8d 45 90	 lea	 eax, DWORD PTR $T539812[ebp]
  000f6	50		 push	 eax
  000f7	8d 86 60 05 00
	00		 lea	 eax, DWORD PTR [esi+1376]
  000fd	50		 push	 eax
  000fe	c6 45 fc 01	 mov	 BYTE PTR __$EHRec$[ebp+8], 1
  00102	e8 00 00 00 00	 call	 ?AddNewBuff@ioBaseChar@@QAEPAVioBuff@@ABVioHashString@@00PAVioSkill@@_N@Z ; ioBaseChar::AddNewBuff
  00107	8b 3d 00 00 00
	00		 mov	 edi, DWORD PTR __imp_??1ioHashString@@QAE@XZ
  0010d	8d 4d 90	 lea	 ecx, DWORD PTR $T539812[ebp]
  00110	c6 45 fc 00	 mov	 BYTE PTR __$EHRec$[ebp+8], 0
  00114	ff d7		 call	 edi
  00116	83 4d fc ff	 or	 DWORD PTR __$EHRec$[ebp+8], -1
  0011a	8d 4d 80	 lea	 ecx, DWORD PTR $T539811[ebp]
  0011d	ff d7		 call	 edi

; 684  : 			pAttacker->ReverseReflectPush( vAttackDir, fPushPower * FLOAT05 );

  0011f	b8 05 00 00 00	 mov	 eax, 5
  00124	8b c8		 mov	 ecx, eax
  00126	b8 0a 00 00 00	 mov	 eax, 10			; 0000000aH
  0012b	89 4d d0	 mov	 DWORD PTR tv547[ebp], ecx
  0012e	db 45 d0	 fild	 DWORD PTR tv547[ebp]
  00131	85 c9		 test	 ecx, ecx
  00133	79 06		 jns	 SHORT $LN83@OnSymbolDa
  00135	d8 05 00 00 00
	00		 fadd	 DWORD PTR __real@4f800000
$LN83@OnSymbolDa:
  0013b	89 45 d0	 mov	 DWORD PTR tv543[ebp], eax
  0013e	db 45 d0	 fild	 DWORD PTR tv543[ebp]
  00141	85 c0		 test	 eax, eax
  00143	79 06		 jns	 SHORT $LN84@OnSymbolDa
  00145	d8 05 00 00 00
	00		 fadd	 DWORD PTR __real@4f800000
$LN84@OnSymbolDa:
  0014b	de f9		 fdivp	 ST(1), ST(0)
  0014d	51		 push	 ecx
  0014e	8b 4d c8	 mov	 ecx, DWORD PTR _pAttacker$GSCopy$[ebp]
  00151	8d 45 e4	 lea	 eax, DWORD PTR _vAttackDir$[ebp]
  00154	d9 5d dc	 fstp	 DWORD PTR tv539[ebp]
  00157	d9 45 dc	 fld	 DWORD PTR tv539[ebp]
  0015a	d8 4d ac	 fmul	 DWORD PTR _fPushPower$[ebp]
  0015d	d9 5d dc	 fstp	 DWORD PTR tv536[ebp]
  00160	d9 45 dc	 fld	 DWORD PTR tv536[ebp]
  00163	d9 1c 24	 fstp	 DWORD PTR [esp]
  00166	50		 push	 eax
  00167	e8 00 00 00 00	 call	 ?ReverseReflectPush@ioBaseChar@@QAEXABUD3DXVECTOR3@@M@Z ; ioBaseChar::ReverseReflectPush
  0016c	8b 5d c8	 mov	 ebx, DWORD PTR _pAttacker$GSCopy$[ebp]
$LN15@OnSymbolDa:

; 685  : 		}
; 686  : 
; 687  : 		pAttacker->SetDisableAttackEmoticon();

  0016f	8d 8b cc 01 00
	00		 lea	 ecx, DWORD PTR [ebx+460]
  00175	e8 00 00 00 00	 call	 ?SetDisableAttackEmoticon@ioBaseGUISupport@@QAEXXZ ; ioBaseGUISupport::SetDisableAttackEmoticon

; 688  : 	}
; 689  : 	else

  0017a	e9 0a 02 00 00	 jmp	 $LN4@OnSymbolDa
$LN16@OnSymbolDa:

; 690  : 	{
; 691  : 		if( fDamage > 0.0f )

  0017f	f3 0f 10 4d d4	 movss	 xmm1, DWORD PTR _fDamage$[ebp]
  00184	0f 57 c0	 xorps	 xmm0, xmm0
  00187	0f 2f c8	 comiss	 xmm1, xmm0
  0018a	0f 86 81 02 00
	00		 jbe	 $LN13@OnSymbolDa

; 692  : 		{
; 693  : 			if( !bAddDamage && eAttackTeam != GetTeam() )

  00190	80 7d c4 00	 cmp	 BYTE PTR _bAddDamage$[ebp], 0
  00194	75 77		 jne	 SHORT $LN75@OnSymbolDa
  00196	8d 45 dc	 lea	 eax, DWORD PTR _value$539841[ebp]
  00199	8d 8e 90 00 00
	00		 lea	 ecx, DWORD PTR [esi+144]
  0019f	50		 push	 eax
  001a0	e8 00 00 00 00	 call	 ?DecryptValueToPool@?$CEncrypt@W4TeamType@@@@QAEXPAW4TeamType@@@Z ; CEncrypt<enum TeamType>::DecryptValueToPool
  001a5	3b 7d dc	 cmp	 edi, DWORD PTR _value$539841[ebp]
  001a8	74 59		 je	 SHORT $LN12@OnSymbolDa

; 694  : 			{
; 695  : 				m_HP.m_fMaxValue = fMaxValue;

  001aa	f3 0f 10 45 b8	 movss	 xmm0, DWORD PTR _fMaxValue$[ebp]
  001af	8d 45 dc	 lea	 eax, DWORD PTR _value$539847[ebp]
  001b2	50		 push	 eax
  001b3	8d 8e f0 00 00
	00		 lea	 ecx, DWORD PTR [esi+240]
  001b9	f3 0f 11 45 dc	 movss	 DWORD PTR _value$539847[ebp], xmm0
  001be	e8 00 00 00 00	 call	 ?EncryptValueToPool@?$CEncrypt@M@@AAEXPBD@Z ; CEncrypt<float>::EncryptValueToPool

; 696  : 				m_HP.m_fCurValue -= fDamage;

  001c3	8d 45 dc	 lea	 eax, DWORD PTR _value$539852[ebp]
  001c6	8d 8e c0 00 00
	00		 lea	 ecx, DWORD PTR [esi+192]
  001cc	50		 push	 eax
  001cd	e8 00 00 00 00	 call	 ?DecryptValueToPool@?$CEncrypt@M@@QAEXPAM@Z ; CEncrypt<float>::DecryptValueToPool
  001d2	f3 0f 10 45 dc	 movss	 xmm0, DWORD PTR _value$539852[ebp]
  001d7	f3 0f 10 4d d4	 movss	 xmm1, DWORD PTR _fDamage$[ebp]
  001dc	0f 5a c0	 cvtps2pd xmm0, xmm0
  001df	0f 5a c9	 cvtps2pd xmm1, xmm1
  001e2	8d 45 dc	 lea	 eax, DWORD PTR _value$539852[ebp]
  001e5	f2 0f 5c c1	 subsd	 xmm0, xmm1
  001e9	66 0f 5a c0	 cvtpd2ps xmm0, xmm0
  001ed	50		 push	 eax
  001ee	8d 8e c0 00 00
	00		 lea	 ecx, DWORD PTR [esi+192]
  001f4	f3 0f 11 45 dc	 movss	 DWORD PTR _value$539852[ebp], xmm0
  001f9	e8 00 00 00 00	 call	 ?EncryptValueToPool@?$CEncrypt@M@@AAEXPBD@Z ; CEncrypt<float>::EncryptValueToPool
  001fe	e9 c2 00 00 00	 jmp	 $LN10@OnSymbolDa
$LN12@OnSymbolDa:

; 697  : 			}
; 698  : 			else if( bAddDamage && eAttackTeam == GetTeam() )

  00203	80 7d c4 00	 cmp	 BYTE PTR _bAddDamage$[ebp], 0
  00207	0f 84 b8 00 00
	00		 je	 $LN10@OnSymbolDa
$LN75@OnSymbolDa:
  0020d	8d 45 dc	 lea	 eax, DWORD PTR _value$539863[ebp]
  00210	8d 8e 90 00 00
	00		 lea	 ecx, DWORD PTR [esi+144]
  00216	50		 push	 eax
  00217	e8 00 00 00 00	 call	 ?DecryptValueToPool@?$CEncrypt@W4TeamType@@@@QAEXPAW4TeamType@@@Z ; CEncrypt<enum TeamType>::DecryptValueToPool
  0021c	3b 7d dc	 cmp	 edi, DWORD PTR _value$539863[ebp]
  0021f	0f 85 a0 00 00
	00		 jne	 $LN10@OnSymbolDa

; 699  : 			{
; 700  : 				m_HP.m_fMaxValue = fMaxValue;

  00225	f3 0f 10 45 b8	 movss	 xmm0, DWORD PTR _fMaxValue$[ebp]
  0022a	8d 45 dc	 lea	 eax, DWORD PTR _value$539869[ebp]
  0022d	8d 8e f0 00 00
	00		 lea	 ecx, DWORD PTR [esi+240]
  00233	50		 push	 eax
  00234	f3 0f 11 45 dc	 movss	 DWORD PTR _value$539869[ebp], xmm0
  00239	e8 00 00 00 00	 call	 ?EncryptValueToPool@?$CEncrypt@M@@AAEXPBD@Z ; CEncrypt<float>::EncryptValueToPool

; 701  : 				m_HP.m_fCurValue += fDamage;

  0023e	8d 45 dc	 lea	 eax, DWORD PTR _value$539874[ebp]
  00241	50		 push	 eax
  00242	8d 8e c0 00 00
	00		 lea	 ecx, DWORD PTR [esi+192]
  00248	e8 00 00 00 00	 call	 ?DecryptValueToPool@?$CEncrypt@M@@QAEXPAM@Z ; CEncrypt<float>::DecryptValueToPool
  0024d	f3 0f 10 45 dc	 movss	 xmm0, DWORD PTR _value$539874[ebp]
  00252	f3 0f 10 4d d4	 movss	 xmm1, DWORD PTR _fDamage$[ebp]
  00257	0f 5a c0	 cvtps2pd xmm0, xmm0
  0025a	0f 5a c9	 cvtps2pd xmm1, xmm1
  0025d	8d 45 dc	 lea	 eax, DWORD PTR _value$539874[ebp]
  00260	f2 0f 58 c1	 addsd	 xmm0, xmm1
  00264	66 0f 5a c0	 cvtpd2ps xmm0, xmm0
  00268	50		 push	 eax
  00269	8d 8e c0 00 00
	00		 lea	 ecx, DWORD PTR [esi+192]
  0026f	f3 0f 11 45 dc	 movss	 DWORD PTR _value$539874[ebp], xmm0
  00274	e8 00 00 00 00	 call	 ?EncryptValueToPool@?$CEncrypt@M@@AAEXPBD@Z ; CEncrypt<float>::EncryptValueToPool

; 702  : 				m_HP.m_fCurValue = min( m_HP.m_fCurValue, m_HP.m_fMaxValue );

  00279	8d 45 d0	 lea	 eax, DWORD PTR _value$539879[ebp]
  0027c	50		 push	 eax
  0027d	8d 8e f0 00 00
	00		 lea	 ecx, DWORD PTR [esi+240]
  00283	e8 00 00 00 00	 call	 ?DecryptValueToPool@?$CEncrypt@M@@QAEXPAM@Z ; CEncrypt<float>::DecryptValueToPool
  00288	8d 45 dc	 lea	 eax, DWORD PTR _value$539887[ebp]
  0028b	50		 push	 eax
  0028c	8d 8e c0 00 00
	00		 lea	 ecx, DWORD PTR [esi+192]
  00292	e8 00 00 00 00	 call	 ?DecryptValueToPool@?$CEncrypt@M@@QAEXPAM@Z ; CEncrypt<float>::DecryptValueToPool
  00297	f3 0f 10 45 dc	 movss	 xmm0, DWORD PTR _value$539887[ebp]
  0029c	f3 0f 10 4d d0	 movss	 xmm1, DWORD PTR _value$539879[ebp]
  002a1	0f 5a c0	 cvtps2pd xmm0, xmm0
  002a4	0f 5a c9	 cvtps2pd xmm1, xmm1
  002a7	66 0f 2f c8	 comisd	 xmm1, xmm0
  002ab	8d 86 c0 00 00
	00		 lea	 eax, DWORD PTR [esi+192]
  002b1	77 06		 ja	 SHORT $LN21@OnSymbolDa
  002b3	8d 86 f0 00 00
	00		 lea	 eax, DWORD PTR [esi+240]
$LN21@OnSymbolDa:
  002b9	50		 push	 eax
  002ba	8d 8e c0 00 00
	00		 lea	 ecx, DWORD PTR [esi+192]
  002c0	e8 00 00 00 00	 call	 ??4?$CEncrypt@M@@QAE_NAAV0@@Z ; CEncrypt<float>::operator=
$LN10@OnSymbolDa:

; 703  : 			}
; 704  : 
; 705  : 			AddHeadDamageInfo( fDamage, bAddDamage );

  002c5	ff 75 c4	 push	 DWORD PTR _bAddDamage$[ebp]
  002c8	f3 0f 2c 4d d4	 cvttss2si ecx, DWORD PTR _fDamage$[ebp]
  002cd	8b 06		 mov	 eax, DWORD PTR [esi]
  002cf	51		 push	 ecx
  002d0	8b ce		 mov	 ecx, esi
  002d2	ff 90 d0 00 00
	00		 call	 DWORD PTR [eax+208]

; 706  : 
; 707  : 			ioSymbolMode *pSymbolMode = ToSymbolMode( m_pModeParent );

  002d8	ff b6 8c 00 00
	00		 push	 DWORD PTR [esi+140]
  002de	e8 00 00 00 00	 call	 ?ToSymbolMode@@YAPAVioSymbolMode@@PAVioPlayMode@@@Z ; ToSymbolMode
  002e3	59		 pop	 ecx
  002e4	89 45 dc	 mov	 DWORD PTR _pSymbolMode$530979[ebp], eax

; 708  : 			if( pSymbolMode && !bBlock )

  002e7	85 c0		 test	 eax, eax
  002e9	0f 84 9a 00 00
	00		 je	 $LN4@OnSymbolDa
  002ef	80 7d e3 00	 cmp	 BYTE PTR _bBlock$[ebp], 0
  002f3	0f 85 90 00 00
	00		 jne	 $LN4@OnSymbolDa

; 709  : 			{
; 710  : 				pSymbolMode->SymbolDamageContribute( GetTeam(), pAttacker->GetCharName(), fDamage, iWeaponType );

  002f9	ff 75 a8	 push	 DWORD PTR _iWeaponType$[ebp]
  002fc	d9 45 d4	 fld	 DWORD PTR _fDamage$[ebp]
  002ff	81 c3 d4 02 00
	00		 add	 ebx, 724		; 000002d4H
  00305	83 ec 14	 sub	 esp, 20			; 00000014H
  00308	d9 5c 24 10	 fstp	 DWORD PTR [esp+16]
  0030c	8b cc		 mov	 ecx, esp
  0030e	89 65 a0	 mov	 DWORD PTR $T539817[ebp], esp
  00311	53		 push	 ebx
  00312	ff 15 00 00 00
	00		 call	 DWORD PTR __imp_??0ioHashString@@QAE@ABV0@@Z
  00318	8d 45 d0	 lea	 eax, DWORD PTR _value$539900[ebp]
  0031b	50		 push	 eax
  0031c	8d 8e 90 00 00
	00		 lea	 ecx, DWORD PTR [esi+144]
  00322	c7 45 fc 02 00
	00 00		 mov	 DWORD PTR __$EHRec$[ebp+8], 2
  00329	e8 00 00 00 00	 call	 ?DecryptValueToPool@?$CEncrypt@W4TeamType@@@@QAEXPAW4TeamType@@@Z ; CEncrypt<enum TeamType>::DecryptValueToPool
  0032e	ff 75 d0	 push	 DWORD PTR _value$539900[ebp]
  00331	8b 4d dc	 mov	 ecx, DWORD PTR _pSymbolMode$530979[ebp]
  00334	83 4d fc ff	 or	 DWORD PTR __$EHRec$[ebp+8], -1
  00338	e8 00 00 00 00	 call	 ?SymbolDamageContribute@ioSymbolMode@@QAEXW4TeamType@@VioHashString@@MH@Z ; ioSymbolMode::SymbolDamageContribute

; 711  : 				pSymbolMode->NotifySymbolWounded( this, pAttacker, fDamage );

  0033d	f3 0f 10 45 d4	 movss	 xmm0, DWORD PTR _fDamage$[ebp]
  00342	51		 push	 ecx
  00343	8b 4d dc	 mov	 ecx, DWORD PTR _pSymbolMode$530979[ebp]
  00346	f3 0f 11 04 24	 movss	 DWORD PTR [esp], xmm0
  0034b	ff 75 c8	 push	 DWORD PTR _pAttacker$GSCopy$[ebp]
  0034e	56		 push	 esi
  0034f	e8 00 00 00 00	 call	 ?NotifySymbolWounded@ioSymbolMode@@QAEXPAVioSymbolStruct@@PAVioBaseChar@@M@Z ; ioSymbolMode::NotifySymbolWounded

; 712  : 				if( GetTeam() != eAttackTeam )

  00354	8d 45 d0	 lea	 eax, DWORD PTR _value$539913[ebp]
  00357	50		 push	 eax
  00358	8d 8e 90 00 00
	00		 lea	 ecx, DWORD PTR [esi+144]
  0035e	e8 00 00 00 00	 call	 ?DecryptValueToPool@?$CEncrypt@W4TeamType@@@@QAEXPAW4TeamType@@@Z ; CEncrypt<enum TeamType>::DecryptValueToPool
  00363	39 7d d0	 cmp	 DWORD PTR _value$539913[ebp], edi
  00366	74 1e		 je	 SHORT $LN80@OnSymbolDa

; 713  : 				{
; 714  : 					g_ModeUIController.SetSymbolAttack( GetTeam() );

  00368	8d 45 d0	 lea	 eax, DWORD PTR _value$539925[ebp]
  0036b	50		 push	 eax
  0036c	8d 8e 90 00 00
	00		 lea	 ecx, DWORD PTR [esi+144]
  00372	e8 00 00 00 00	 call	 ?DecryptValueToPool@?$CEncrypt@W4TeamType@@@@QAEXPAW4TeamType@@@Z ; CEncrypt<enum TeamType>::DecryptValueToPool
  00377	ff 75 d0	 push	 DWORD PTR _value$539925[ebp]
  0037a	e8 00 00 00 00	 call	 ?GetSingleton@ioModeUIController@@SAAAV1@XZ ; ioModeUIController::GetSingleton
  0037f	8b c8		 mov	 ecx, eax
  00381	e8 00 00 00 00	 call	 ?SetSymbolAttack@ioModeUIController@@QAEXW4TeamType@@@Z ; ioModeUIController::SetSymbolAttack
$LN80@OnSymbolDa:

; 688  : 	}
; 689  : 	else

  00386	8b 5d c8	 mov	 ebx, DWORD PTR _pAttacker$GSCopy$[ebp]
$LN4@OnSymbolDa:

; 725  : 			}
; 726  : 		}
; 727  : 	}
; 728  : 
; 729  : 	int iActionStop = 0;
; 730  : 	rkPacket >> iActionStop;

  00389	8b 4d a4	 mov	 ecx, DWORD PTR _rkPacket$GSCopy$[ebp]
  0038c	8d 45 cc	 lea	 eax, DWORD PTR _iActionStop$[ebp]
  0038f	33 ff		 xor	 edi, edi
  00391	50		 push	 eax
  00392	89 7d cc	 mov	 DWORD PTR _iActionStop$[ebp], edi
  00395	e8 00 00 00 00	 call	 ??5SP2Packet@@QAEAAV0@AAH@Z ; SP2Packet::operator>>

; 731  : 
; 732  : 	int iShakeCamera = 0;
; 733  : 	rkPacket >> iShakeCamera;

  0039a	8b 4d a4	 mov	 ecx, DWORD PTR _rkPacket$GSCopy$[ebp]
  0039d	8d 45 c0	 lea	 eax, DWORD PTR _iShakeCamera$[ebp]
  003a0	50		 push	 eax
  003a1	89 7d c0	 mov	 DWORD PTR _iShakeCamera$[ebp], edi
  003a4	e8 00 00 00 00	 call	 ??5SP2Packet@@QAEAAV0@AAH@Z ; SP2Packet::operator>>

; 734  : 
; 735  : 	if( iActionStop == AST_BOTH || iActionStop == AST_ATTACKER )

  003a9	83 7d cc 01	 cmp	 DWORD PTR _iActionStop$[ebp], 1
  003ad	74 06		 je	 SHORT $LN2@OnSymbolDa
  003af	83 7d cc 02	 cmp	 DWORD PTR _iActionStop$[ebp], 2
  003b3	75 16		 jne	 SHORT $LN3@OnSymbolDa
$LN2@OnSymbolDa:

; 736  : 	{
; 737  : 		pAttacker->SetActionStopDelay( fDamage, false, iShakeCamera );

  003b5	ff 75 c0	 push	 DWORD PTR _iShakeCamera$[ebp]
  003b8	f3 0f 10 45 d4	 movss	 xmm0, DWORD PTR _fDamage$[ebp]
  003bd	57		 push	 edi
  003be	51		 push	 ecx
  003bf	8b cb		 mov	 ecx, ebx
  003c1	f3 0f 11 04 24	 movss	 DWORD PTR [esp], xmm0
  003c6	e8 00 00 00 00	 call	 ?SetActionStopDelay@ioBaseChar@@QAEXM_NH@Z ; ioBaseChar::SetActionStopDelay
$LN3@OnSymbolDa:

; 738  : 	}
; 739  : 
; 740  : 	int iWeaponIndex = 0;
; 741  : 	rkPacket >> iWeaponIndex;

  003cb	8b 4d a4	 mov	 ecx, DWORD PTR _rkPacket$GSCopy$[ebp]
  003ce	8d 45 bc	 lea	 eax, DWORD PTR _iWeaponIndex$[ebp]
  003d1	50		 push	 eax
  003d2	89 7d bc	 mov	 DWORD PTR _iWeaponIndex$[ebp], edi
  003d5	e8 00 00 00 00	 call	 ??5SP2Packet@@QAEAAV0@AAH@Z ; SP2Packet::operator>>

; 742  : 
; 743  : 	ioWeapon *pWeapon = g_WeaponMgr.FindWeapon( pAttacker, iWeaponIndex );

  003da	ff 75 bc	 push	 DWORD PTR _iWeaponIndex$[ebp]
  003dd	53		 push	 ebx
  003de	e8 00 00 00 00	 call	 ?GetSingleton@ioWeaponManager@@SAAAV1@XZ ; ioWeaponManager::GetSingleton
  003e3	8b c8		 mov	 ecx, eax
  003e5	e8 00 00 00 00	 call	 ?FindWeapon@ioWeaponManager@@QAEPAVioWeapon@@PAVioBaseChar@@K@Z ; ioWeaponManager::FindWeapon

; 744  : 	if( pWeapon )

  003ea	3b c7		 cmp	 eax, edi
  003ec	74 14		 je	 SHORT $LN1@OnSymbolDa

; 745  : 	{
; 746  : 		int iDummyIndex = pWeapon->GetWeaponByDummyChar();
; 747  : 		g_DummyCharMgr.CheckEntityCollision( pAttacker, this, iDummyIndex );

  003ee	ff b0 98 05 00
	00		 push	 DWORD PTR [eax+1432]
  003f4	56		 push	 esi
  003f5	53		 push	 ebx
  003f6	e8 00 00 00 00	 call	 ?GetSingleton@ioDummyCharManager@@SAAAV1@XZ ; ioDummyCharManager::GetSingleton
  003fb	8b c8		 mov	 ecx, eax
  003fd	e8 00 00 00 00	 call	 ?CheckEntityCollision@ioDummyCharManager@@QAEXPAVioBaseChar@@PAVioPlayEntity@@H@Z ; ioDummyCharManager::CheckEntityCollision
$LN1@OnSymbolDa:

; 748  : 	}
; 749  : 
; 750  : 	SetWoundedState();

  00402	8b ce		 mov	 ecx, esi
  00404	e8 00 00 00 00	 call	 ?SetWoundedState@ioSymbolStruct@@QAEXXZ ; ioSymbolStruct::SetWoundedState
$LN18@OnSymbolDa:

; 751  : }

  00409	e8 00 00 00 00	 call	 __EH_epilog3_GS
  0040e	c2 08 00	 ret	 8
$LN13@OnSymbolDa:

; 715  : 				}
; 716  : 			}
; 717  : 		}
; 718  : 		else if( fDamage == 0.0f ) 

  00411	0f 2e c8	 ucomiss xmm1, xmm0
  00414	9f		 lahf
  00415	f6 c4 44	 test	 ah, 68			; 00000044H
  00418	0f 8a 6b ff ff
	ff		 jp	 $LN4@OnSymbolDa

; 719  : 		{
; 720  : 			//  HP MAX   !
; 721  : 			if( GetTeam() == eAttackTeam )

  0041e	8d 45 d0	 lea	 eax, DWORD PTR _value$539938[ebp]
  00421	50		 push	 eax
  00422	8d 8e 90 00 00
	00		 lea	 ecx, DWORD PTR [esi+144]
  00428	e8 00 00 00 00	 call	 ?DecryptValueToPool@?$CEncrypt@W4TeamType@@@@QAEXPAW4TeamType@@@Z ; CEncrypt<enum TeamType>::DecryptValueToPool
  0042d	39 7d d0	 cmp	 DWORD PTR _value$539938[ebp], edi
  00430	0f 85 53 ff ff
	ff		 jne	 $LN4@OnSymbolDa

; 722  : 			{
; 723  : 				if( fDamage == 0.0f )

  00436	f3 0f 10 45 d4	 movss	 xmm0, DWORD PTR _fDamage$[ebp]
  0043b	0f 2e 05 00 00
	00 00		 ucomiss xmm0, DWORD PTR __real@00000000
  00442	9f		 lahf
  00443	f6 c4 44	 test	 ah, 68			; 00000044H
  00446	0f 8a 3d ff ff
	ff		 jp	 $LN4@OnSymbolDa

; 724  : 					g_AwardMgr.AddBlockStoneAttack( pAttacker->GetCharName() );

  0044c	8d 83 d4 02 00
	00		 lea	 eax, DWORD PTR [ebx+724]
  00452	6a 01		 push	 1
  00454	50		 push	 eax
  00455	e8 00 00 00 00	 call	 ?GetSingleton@ioAwardManager@@SAAAV1@XZ ; ioAwardManager::GetSingleton
  0045a	8b c8		 mov	 ecx, eax
  0045c	e8 00 00 00 00	 call	 ?AddBlockStoneAttack@ioAwardManager@@QAEXABVioHashString@@H@Z ; ioAwardManager::AddBlockStoneAttack
  00461	e9 23 ff ff ff	 jmp	 $LN4@OnSymbolDa
_TEXT	ENDS
;	COMDAT text$x
text$x	SEGMENT
__unwindfunclet$?OnSymbolDamaged@ioSymbolStruct@@QAEXAAVSP2Packet@@PAVioBaseChar@@@Z$0:
  00000	8d 4d 80	 lea	 ecx, DWORD PTR $T539811[ebp]
  00003	ff 25 00 00 00
	00		 jmp	 DWORD PTR __imp_??1ioHashString@@QAE@XZ
__unwindfunclet$?OnSymbolDamaged@ioSymbolStruct@@QAEXAAVSP2Packet@@PAVioBaseChar@@@Z$1:
  00009	8d 4d 90	 lea	 ecx, DWORD PTR $T539812[ebp]
  0000c	ff 25 00 00 00
	00		 jmp	 DWORD PTR __imp_??1ioHashString@@QAE@XZ
__unwindfunclet$?OnSymbolDamaged@ioSymbolStruct@@QAEXAAVSP2Packet@@PAVioBaseChar@@@Z$2:
  00012	8b 4d a0	 mov	 ecx, DWORD PTR $T539817[ebp]
  00015	ff 25 00 00 00
	00		 jmp	 DWORD PTR __imp_??1ioHashString@@QAE@XZ
__ehhandler$?OnSymbolDamaged@ioSymbolStruct@@QAEXAAVSP2Packet@@PAVioBaseChar@@@Z:
  0001b	8b 54 24 08	 mov	 edx, DWORD PTR [esp+8]
  0001f	8d 42 0c	 lea	 eax, DWORD PTR [edx+12]
  00022	8b 8a 7c ff ff
	ff		 mov	 ecx, DWORD PTR [edx-132]
  00028	33 c8		 xor	 ecx, eax
  0002a	e8 00 00 00 00	 call	 @__security_check_cookie@4
  0002f	8b 4a fc	 mov	 ecx, DWORD PTR [edx-4]
  00032	33 c8		 xor	 ecx, eax
  00034	e8 00 00 00 00	 call	 @__security_check_cookie@4
  00039	b8 00 00 00 00	 mov	 eax, OFFSET __ehfuncinfo$?OnSymbolDamaged@ioSymbolStruct@@QAEXAAVSP2Packet@@PAVioBaseChar@@@Z
  0003e	e9 00 00 00 00	 jmp	 ___CxxFrameHandler3
text$x	ENDS
?OnSymbolDamaged@ioSymbolStruct@@QAEXAAVSP2Packet@@PAVioBaseChar@@@Z ENDP ; ioSymbolStruct::OnSymbolDamaged
PUBLIC	?SetAddHP@ioSymbolStruct@@QAEXH@Z		; ioSymbolStruct::SetAddHP
; Function compile flags: /Ogsp
;	COMDAT ?SetAddHP@ioSymbolStruct@@QAEXH@Z
_TEXT	SEGMENT
_value$540035 = -16					; size = 4
_value$539983 = -16					; size = 4
_value$540026 = -12					; size = 4
_value$540013 = -12					; size = 4
_value$539996 = -12					; size = 4
_value$539991 = -8					; size = 4
$T540005 = -8						; size = 4
_value$540017 = -4					; size = 4
_value$539987 = -4					; size = 4
tv312 = 8						; size = 4
tv307 = 8						; size = 4
tv303 = 8						; size = 4
tv300 = 8						; size = 4
_value$540043 = 8					; size = 4
_value$540030 = 8					; size = 4
_value$540021 = 8					; size = 4
$T540009 = 8						; size = 4
_value$540000 = 8					; size = 4
_iCharCnt$ = 8						; size = 4
?SetAddHP@ioSymbolStruct@@QAEXH@Z PROC			; ioSymbolStruct::SetAddHP, COMDAT
; _this$ = ecx

; 771  : {

  00000	55		 push	 ebp
  00001	8b ec		 mov	 ebp, esp
  00003	83 ec 10	 sub	 esp, 16			; 00000010H
  00006	53		 push	 ebx
  00007	56		 push	 esi
  00008	57		 push	 edi
  00009	8b f1		 mov	 esi, ecx

; 772  : 	float fChangeRate = FLOAT1;

  0000b	b8 01 00 00 00	 mov	 eax, 1

; 773  : 	float fPreMaxHP = m_HP.m_fMaxValue;

  00010	8d 45 f0	 lea	 eax, DWORD PTR _value$539983[ebp]
  00013	8d be f0 00 00
	00		 lea	 edi, DWORD PTR [esi+240]
  00019	50		 push	 eax
  0001a	8b cf		 mov	 ecx, edi
  0001c	e8 00 00 00 00	 call	 ?DecryptValueToPool@?$CEncrypt@M@@QAEXPAM@Z ; CEncrypt<float>::DecryptValueToPool

; 774  : 
; 775  : 	m_fCurMaxHP = (m_fDefaultMaxHP + (m_fExtraHP * iCharCnt)) * m_fExtraRate;

  00021	8d 45 fc	 lea	 eax, DWORD PTR _value$539987[ebp]
  00024	50		 push	 eax
  00025	8d 8e 08 02 00
	00		 lea	 ecx, DWORD PTR [esi+520]
  0002b	e8 00 00 00 00	 call	 ?DecryptValueToPool@?$CEncrypt@M@@QAEXPAM@Z ; CEncrypt<float>::DecryptValueToPool
  00030	8d 45 f8	 lea	 eax, DWORD PTR _value$539991[ebp]
  00033	50		 push	 eax
  00034	8d 8e d8 01 00
	00		 lea	 ecx, DWORD PTR [esi+472]
  0003a	e8 00 00 00 00	 call	 ?DecryptValueToPool@?$CEncrypt@M@@QAEXPAM@Z ; CEncrypt<float>::DecryptValueToPool
  0003f	8d 45 f4	 lea	 eax, DWORD PTR _value$539996[ebp]
  00042	50		 push	 eax
  00043	8d 8e 38 02 00
	00		 lea	 ecx, DWORD PTR [esi+568]
  00049	e8 00 00 00 00	 call	 ?DecryptValueToPool@?$CEncrypt@M@@QAEXPAM@Z ; CEncrypt<float>::DecryptValueToPool
  0004e	66 0f 6e 45 08	 movd	 xmm0, DWORD PTR _iCharCnt$[ebp]
  00053	f3 0f 10 4d fc	 movss	 xmm1, DWORD PTR _value$539987[ebp]
  00058	0f 5b c0	 cvtdq2ps xmm0, xmm0
  0005b	f3 0f 5a c0	 cvtss2sd xmm0, xmm0
  0005f	0f 5a c9	 cvtps2pd xmm1, xmm1
  00062	f2 0f 59 c1	 mulsd	 xmm0, xmm1
  00066	f3 0f 10 4d f8	 movss	 xmm1, DWORD PTR _value$539991[ebp]
  0006b	f2 0f 5a c0	 cvtsd2ss xmm0, xmm0
  0006f	f3 0f 5a c0	 cvtss2sd xmm0, xmm0
  00073	0f 5a c9	 cvtps2pd xmm1, xmm1
  00076	f2 0f 58 c1	 addsd	 xmm0, xmm1
  0007a	f3 0f 10 4d f4	 movss	 xmm1, DWORD PTR _value$539996[ebp]
  0007f	f2 0f 5a c0	 cvtsd2ss xmm0, xmm0
  00083	f3 0f 5a c0	 cvtss2sd xmm0, xmm0
  00087	0f 5a c9	 cvtps2pd xmm1, xmm1
  0008a	8d 45 08	 lea	 eax, DWORD PTR _value$540000[ebp]
  0008d	f2 0f 59 c1	 mulsd	 xmm0, xmm1
  00091	f2 0f 5a c0	 cvtsd2ss xmm0, xmm0
  00095	50		 push	 eax
  00096	8d 8e 90 03 00
	00		 lea	 ecx, DWORD PTR [esi+912]
  0009c	f3 0f 11 45 08	 movss	 DWORD PTR _value$540000[ebp], xmm0
  000a1	e8 00 00 00 00	 call	 ?EncryptValueToPool@?$CEncrypt@M@@AAEXPBD@Z ; CEncrypt<float>::EncryptValueToPool

; 776  : 	m_HP.m_fMaxValue = m_fCurMaxHP * ( FLOAT1 - m_fDecreaseCurRate/FLOAT100 );

  000a6	b8 64 00 00 00	 mov	 eax, 100		; 00000064H
  000ab	89 45 f8	 mov	 DWORD PTR $T540005[ebp], eax
  000ae	b8 01 00 00 00	 mov	 eax, 1
  000b3	89 45 08	 mov	 DWORD PTR $T540009[ebp], eax
  000b6	8d 45 f4	 lea	 eax, DWORD PTR _value$540013[ebp]
  000b9	50		 push	 eax
  000ba	8d 8e f0 03 00
	00		 lea	 ecx, DWORD PTR [esi+1008]
  000c0	e8 00 00 00 00	 call	 ?DecryptValueToPool@?$CEncrypt@M@@QAEXPAM@Z ; CEncrypt<float>::DecryptValueToPool
  000c5	8d 45 fc	 lea	 eax, DWORD PTR _value$540017[ebp]
  000c8	50		 push	 eax
  000c9	8d 8e 90 03 00
	00		 lea	 ecx, DWORD PTR [esi+912]
  000cf	e8 00 00 00 00	 call	 ?DecryptValueToPool@?$CEncrypt@M@@QAEXPAM@Z ; CEncrypt<float>::DecryptValueToPool
  000d4	db 45 08	 fild	 DWORD PTR $T540009[ebp]
  000d7	8b 45 08	 mov	 eax, DWORD PTR $T540009[ebp]
  000da	85 c0		 test	 eax, eax
  000dc	79 06		 jns	 SHORT $LN38@SetAddHP
  000de	d8 05 00 00 00
	00		 fadd	 DWORD PTR __real@4f800000
$LN38@SetAddHP:
  000e4	8b 45 f8	 mov	 eax, DWORD PTR $T540005[ebp]
  000e7	d9 45 f4	 fld	 DWORD PTR _value$540013[ebp]
  000ea	db 45 f8	 fild	 DWORD PTR $T540005[ebp]
  000ed	85 c0		 test	 eax, eax
  000ef	79 06		 jns	 SHORT $LN39@SetAddHP
  000f1	d8 05 00 00 00
	00		 fadd	 DWORD PTR __real@4f800000
$LN39@SetAddHP:
  000f7	de f9		 fdivp	 ST(1), ST(0)
  000f9	8d 45 08	 lea	 eax, DWORD PTR _value$540021[ebp]
  000fc	50		 push	 eax
  000fd	8b cf		 mov	 ecx, edi
  000ff	d9 5d 08	 fstp	 DWORD PTR tv303[ebp]
  00102	d8 65 08	 fsub	 DWORD PTR tv303[ebp]
  00105	d9 5d 08	 fstp	 DWORD PTR tv300[ebp]
  00108	d9 45 08	 fld	 DWORD PTR tv300[ebp]
  0010b	d8 4d fc	 fmul	 DWORD PTR _value$540017[ebp]
  0010e	d9 5d 08	 fstp	 DWORD PTR _value$540021[ebp]
  00111	e8 00 00 00 00	 call	 ?EncryptValueToPool@?$CEncrypt@M@@AAEXPBD@Z ; CEncrypt<float>::EncryptValueToPool

; 777  : 
; 778  : 	fChangeRate = m_HP.m_fMaxValue / fPreMaxHP;

  00116	8d 45 f4	 lea	 eax, DWORD PTR _value$540026[ebp]
  00119	50		 push	 eax
  0011a	8b cf		 mov	 ecx, edi
  0011c	e8 00 00 00 00	 call	 ?DecryptValueToPool@?$CEncrypt@M@@QAEXPAM@Z ; CEncrypt<float>::DecryptValueToPool

; 779  : 
; 780  : 	m_HP.m_fCurValue *= fChangeRate;

  00121	8d 45 08	 lea	 eax, DWORD PTR _value$540030[ebp]
  00124	81 c6 c0 00 00
	00		 add	 esi, 192		; 000000c0H
  0012a	50		 push	 eax
  0012b	8b ce		 mov	 ecx, esi
  0012d	e8 00 00 00 00	 call	 ?DecryptValueToPool@?$CEncrypt@M@@QAEXPAM@Z ; CEncrypt<float>::DecryptValueToPool
  00132	f3 0f 10 45 f4	 movss	 xmm0, DWORD PTR _value$540026[ebp]
  00137	f3 0f 10 4d f0	 movss	 xmm1, DWORD PTR _value$539983[ebp]
  0013c	0f 5a c0	 cvtps2pd xmm0, xmm0
  0013f	0f 5a c9	 cvtps2pd xmm1, xmm1
  00142	f2 0f 5e c1	 divsd	 xmm0, xmm1
  00146	f3 0f 10 4d 08	 movss	 xmm1, DWORD PTR _value$540030[ebp]
  0014b	66 0f 5a c0	 cvtpd2ps xmm0, xmm0
  0014f	f3 0f 5a c0	 cvtss2sd xmm0, xmm0
  00153	0f 5a c9	 cvtps2pd xmm1, xmm1
  00156	8d 45 08	 lea	 eax, DWORD PTR _value$540030[ebp]
  00159	f2 0f 59 c1	 mulsd	 xmm0, xmm1
  0015d	66 0f 5a c0	 cvtpd2ps xmm0, xmm0
  00161	50		 push	 eax
  00162	8b ce		 mov	 ecx, esi
  00164	f3 0f 11 45 08	 movss	 DWORD PTR _value$540030[ebp], xmm0
  00169	e8 00 00 00 00	 call	 ?EncryptValueToPool@?$CEncrypt@M@@AAEXPBD@Z ; CEncrypt<float>::EncryptValueToPool

; 781  : 	m_HP.m_fCurValue = min(m_HP.m_fCurValue, m_HP.m_fMaxValue);

  0016e	8d 45 f0	 lea	 eax, DWORD PTR _value$540035[ebp]
  00171	50		 push	 eax
  00172	8b cf		 mov	 ecx, edi
  00174	e8 00 00 00 00	 call	 ?DecryptValueToPool@?$CEncrypt@M@@QAEXPAM@Z ; CEncrypt<float>::DecryptValueToPool
  00179	8d 45 08	 lea	 eax, DWORD PTR _value$540043[ebp]
  0017c	50		 push	 eax
  0017d	8b ce		 mov	 ecx, esi
  0017f	e8 00 00 00 00	 call	 ?DecryptValueToPool@?$CEncrypt@M@@QAEXPAM@Z ; CEncrypt<float>::DecryptValueToPool
  00184	f3 0f 10 45 08	 movss	 xmm0, DWORD PTR _value$540043[ebp]
  00189	f3 0f 10 4d f0	 movss	 xmm1, DWORD PTR _value$540035[ebp]
  0018e	0f 5a c0	 cvtps2pd xmm0, xmm0
  00191	0f 5a c9	 cvtps2pd xmm1, xmm1
  00194	66 0f 2f c8	 comisd	 xmm1, xmm0
  00198	0f 47 fe	 cmova	 edi, esi
  0019b	57		 push	 edi
  0019c	8b ce		 mov	 ecx, esi
  0019e	e8 00 00 00 00	 call	 ??4?$CEncrypt@M@@QAE_NAAV0@@Z ; CEncrypt<float>::operator=
  001a3	5f		 pop	 edi
  001a4	5e		 pop	 esi
  001a5	5b		 pop	 ebx

; 782  : }

  001a6	c9		 leave
  001a7	c2 04 00	 ret	 4
?SetAddHP@ioSymbolStruct@@QAEXH@Z ENDP			; ioSymbolStruct::SetAddHP
_TEXT	ENDS
PUBLIC	?SetExtraRate@ioSymbolStruct@@QAEXHM@Z		; ioSymbolStruct::SetExtraRate
; Function compile flags: /Ogsp
;	COMDAT ?SetExtraRate@ioSymbolStruct@@QAEXHM@Z
_TEXT	SEGMENT
_value$540067 = -12					; size = 4
_value$540080 = -8					; size = 4
$T540089 = -8						; size = 4
_value$540101 = -4					; size = 4
_value$540075 = -4					; size = 4
_value$540119 = 8					; size = 4
_value$540110 = 8					; size = 4
_value$540097 = 8					; size = 4
_iCharCnt$ = 8						; size = 4
tv343 = 12						; size = 4
tv338 = 12						; size = 4
tv334 = 12						; size = 4
tv331 = 12						; size = 4
_value$540127 = 12					; size = 4
_value$540114 = 12					; size = 4
_value$540105 = 12					; size = 4
$T540093 = 12						; size = 4
_value$540084 = 12					; size = 4
_value$540071 = 12					; size = 4
_value$540059 = 12					; size = 4
_fRate$ = 12						; size = 4
?SetExtraRate@ioSymbolStruct@@QAEXHM@Z PROC		; ioSymbolStruct::SetExtraRate, COMDAT
; _this$ = ecx

; 785  : {

  00000	55		 push	 ebp
  00001	8b ec		 mov	 ebp, esp
  00003	83 ec 0c	 sub	 esp, 12			; 0000000cH

; 786  : 	m_fExtraRate = fRate;

  00006	f3 0f 10 45 0c	 movss	 xmm0, DWORD PTR _fRate$[ebp]
  0000b	53		 push	 ebx
  0000c	56		 push	 esi
  0000d	57		 push	 edi
  0000e	8b f1		 mov	 esi, ecx
  00010	8d 45 0c	 lea	 eax, DWORD PTR _value$540059[ebp]
  00013	50		 push	 eax
  00014	8d 8e 38 02 00
	00		 lea	 ecx, DWORD PTR [esi+568]
  0001a	f3 0f 11 45 0c	 movss	 DWORD PTR _value$540059[ebp], xmm0
  0001f	e8 00 00 00 00	 call	 ?EncryptValueToPool@?$CEncrypt@M@@AAEXPBD@Z ; CEncrypt<float>::EncryptValueToPool

; 787  : 
; 788  : 	float fChangeRate = FLOAT1;

  00024	b8 01 00 00 00	 mov	 eax, 1

; 789  : 	float fPreMaxHP = m_HP.m_fMaxValue;

  00029	8d 45 f4	 lea	 eax, DWORD PTR _value$540067[ebp]
  0002c	8d be f0 00 00
	00		 lea	 edi, DWORD PTR [esi+240]
  00032	50		 push	 eax
  00033	8b cf		 mov	 ecx, edi
  00035	e8 00 00 00 00	 call	 ?DecryptValueToPool@?$CEncrypt@M@@QAEXPAM@Z ; CEncrypt<float>::DecryptValueToPool

; 790  : 
; 791  : 	m_fCurMaxHP = (m_fDefaultMaxHP + (m_fExtraHP * iCharCnt)) * m_fExtraRate;

  0003a	8d 45 0c	 lea	 eax, DWORD PTR _value$540071[ebp]
  0003d	50		 push	 eax
  0003e	8d 8e 08 02 00
	00		 lea	 ecx, DWORD PTR [esi+520]
  00044	e8 00 00 00 00	 call	 ?DecryptValueToPool@?$CEncrypt@M@@QAEXPAM@Z ; CEncrypt<float>::DecryptValueToPool
  00049	8d 45 fc	 lea	 eax, DWORD PTR _value$540075[ebp]
  0004c	50		 push	 eax
  0004d	8d 8e d8 01 00
	00		 lea	 ecx, DWORD PTR [esi+472]
  00053	e8 00 00 00 00	 call	 ?DecryptValueToPool@?$CEncrypt@M@@QAEXPAM@Z ; CEncrypt<float>::DecryptValueToPool
  00058	8d 45 f8	 lea	 eax, DWORD PTR _value$540080[ebp]
  0005b	50		 push	 eax
  0005c	8d 8e 38 02 00
	00		 lea	 ecx, DWORD PTR [esi+568]
  00062	e8 00 00 00 00	 call	 ?DecryptValueToPool@?$CEncrypt@M@@QAEXPAM@Z ; CEncrypt<float>::DecryptValueToPool
  00067	66 0f 6e 45 08	 movd	 xmm0, DWORD PTR _iCharCnt$[ebp]
  0006c	f3 0f 10 4d 0c	 movss	 xmm1, DWORD PTR _value$540071[ebp]
  00071	0f 5b c0	 cvtdq2ps xmm0, xmm0
  00074	f3 0f 5a c0	 cvtss2sd xmm0, xmm0
  00078	0f 5a c9	 cvtps2pd xmm1, xmm1
  0007b	f2 0f 59 c1	 mulsd	 xmm0, xmm1
  0007f	f3 0f 10 4d fc	 movss	 xmm1, DWORD PTR _value$540075[ebp]
  00084	f2 0f 5a c0	 cvtsd2ss xmm0, xmm0
  00088	f3 0f 5a c0	 cvtss2sd xmm0, xmm0
  0008c	0f 5a c9	 cvtps2pd xmm1, xmm1
  0008f	f2 0f 58 c1	 addsd	 xmm0, xmm1
  00093	f3 0f 10 4d f8	 movss	 xmm1, DWORD PTR _value$540080[ebp]
  00098	f2 0f 5a c0	 cvtsd2ss xmm0, xmm0
  0009c	f3 0f 5a c0	 cvtss2sd xmm0, xmm0
  000a0	0f 5a c9	 cvtps2pd xmm1, xmm1
  000a3	8d 45 0c	 lea	 eax, DWORD PTR _value$540084[ebp]
  000a6	f2 0f 59 c1	 mulsd	 xmm0, xmm1
  000aa	f2 0f 5a c0	 cvtsd2ss xmm0, xmm0
  000ae	50		 push	 eax
  000af	8d 8e 90 03 00
	00		 lea	 ecx, DWORD PTR [esi+912]
  000b5	f3 0f 11 45 0c	 movss	 DWORD PTR _value$540084[ebp], xmm0
  000ba	e8 00 00 00 00	 call	 ?EncryptValueToPool@?$CEncrypt@M@@AAEXPBD@Z ; CEncrypt<float>::EncryptValueToPool

; 792  : 	m_HP.m_fMaxValue = m_fCurMaxHP * ( FLOAT1 - m_fDecreaseCurRate/FLOAT100 );

  000bf	b8 64 00 00 00	 mov	 eax, 100		; 00000064H
  000c4	89 45 f8	 mov	 DWORD PTR $T540089[ebp], eax
  000c7	b8 01 00 00 00	 mov	 eax, 1
  000cc	89 45 0c	 mov	 DWORD PTR $T540093[ebp], eax
  000cf	8d 45 08	 lea	 eax, DWORD PTR _value$540097[ebp]
  000d2	50		 push	 eax
  000d3	8d 8e f0 03 00
	00		 lea	 ecx, DWORD PTR [esi+1008]
  000d9	e8 00 00 00 00	 call	 ?DecryptValueToPool@?$CEncrypt@M@@QAEXPAM@Z ; CEncrypt<float>::DecryptValueToPool
  000de	8d 45 fc	 lea	 eax, DWORD PTR _value$540101[ebp]
  000e1	50		 push	 eax
  000e2	8d 8e 90 03 00
	00		 lea	 ecx, DWORD PTR [esi+912]
  000e8	e8 00 00 00 00	 call	 ?DecryptValueToPool@?$CEncrypt@M@@QAEXPAM@Z ; CEncrypt<float>::DecryptValueToPool
  000ed	db 45 0c	 fild	 DWORD PTR $T540093[ebp]
  000f0	8b 45 0c	 mov	 eax, DWORD PTR $T540093[ebp]
  000f3	85 c0		 test	 eax, eax
  000f5	79 06		 jns	 SHORT $LN40@SetExtraRa
  000f7	d8 05 00 00 00
	00		 fadd	 DWORD PTR __real@4f800000
$LN40@SetExtraRa:
  000fd	8b 45 f8	 mov	 eax, DWORD PTR $T540089[ebp]
  00100	d9 45 08	 fld	 DWORD PTR _value$540097[ebp]
  00103	db 45 f8	 fild	 DWORD PTR $T540089[ebp]
  00106	85 c0		 test	 eax, eax
  00108	79 06		 jns	 SHORT $LN41@SetExtraRa
  0010a	d8 05 00 00 00
	00		 fadd	 DWORD PTR __real@4f800000
$LN41@SetExtraRa:
  00110	de f9		 fdivp	 ST(1), ST(0)
  00112	8d 45 0c	 lea	 eax, DWORD PTR _value$540105[ebp]
  00115	50		 push	 eax
  00116	8b cf		 mov	 ecx, edi
  00118	d9 5d 0c	 fstp	 DWORD PTR tv334[ebp]
  0011b	d8 65 0c	 fsub	 DWORD PTR tv334[ebp]
  0011e	d9 5d 0c	 fstp	 DWORD PTR tv331[ebp]
  00121	d9 45 0c	 fld	 DWORD PTR tv331[ebp]
  00124	d8 4d fc	 fmul	 DWORD PTR _value$540101[ebp]
  00127	d9 5d 0c	 fstp	 DWORD PTR _value$540105[ebp]
  0012a	e8 00 00 00 00	 call	 ?EncryptValueToPool@?$CEncrypt@M@@AAEXPBD@Z ; CEncrypt<float>::EncryptValueToPool

; 793  : 
; 794  : 	fChangeRate = m_HP.m_fMaxValue / fPreMaxHP;

  0012f	8d 45 08	 lea	 eax, DWORD PTR _value$540110[ebp]
  00132	50		 push	 eax
  00133	8b cf		 mov	 ecx, edi
  00135	e8 00 00 00 00	 call	 ?DecryptValueToPool@?$CEncrypt@M@@QAEXPAM@Z ; CEncrypt<float>::DecryptValueToPool

; 795  : 
; 796  : 	m_HP.m_fCurValue *= fChangeRate;

  0013a	8d 45 0c	 lea	 eax, DWORD PTR _value$540114[ebp]
  0013d	81 c6 c0 00 00
	00		 add	 esi, 192		; 000000c0H
  00143	50		 push	 eax
  00144	8b ce		 mov	 ecx, esi
  00146	e8 00 00 00 00	 call	 ?DecryptValueToPool@?$CEncrypt@M@@QAEXPAM@Z ; CEncrypt<float>::DecryptValueToPool
  0014b	f3 0f 10 45 08	 movss	 xmm0, DWORD PTR _value$540110[ebp]
  00150	f3 0f 10 4d f4	 movss	 xmm1, DWORD PTR _value$540067[ebp]
  00155	0f 5a c0	 cvtps2pd xmm0, xmm0
  00158	0f 5a c9	 cvtps2pd xmm1, xmm1
  0015b	f2 0f 5e c1	 divsd	 xmm0, xmm1
  0015f	f3 0f 10 4d 0c	 movss	 xmm1, DWORD PTR _value$540114[ebp]
  00164	66 0f 5a c0	 cvtpd2ps xmm0, xmm0
  00168	f3 0f 5a c0	 cvtss2sd xmm0, xmm0
  0016c	0f 5a c9	 cvtps2pd xmm1, xmm1
  0016f	8d 45 0c	 lea	 eax, DWORD PTR _value$540114[ebp]
  00172	f2 0f 59 c1	 mulsd	 xmm0, xmm1
  00176	66 0f 5a c0	 cvtpd2ps xmm0, xmm0
  0017a	50		 push	 eax
  0017b	8b ce		 mov	 ecx, esi
  0017d	f3 0f 11 45 0c	 movss	 DWORD PTR _value$540114[ebp], xmm0
  00182	e8 00 00 00 00	 call	 ?EncryptValueToPool@?$CEncrypt@M@@AAEXPBD@Z ; CEncrypt<float>::EncryptValueToPool

; 797  : 	m_HP.m_fCurValue = min(m_HP.m_fCurValue, m_HP.m_fMaxValue);

  00187	8d 45 08	 lea	 eax, DWORD PTR _value$540119[ebp]
  0018a	50		 push	 eax
  0018b	8b cf		 mov	 ecx, edi
  0018d	e8 00 00 00 00	 call	 ?DecryptValueToPool@?$CEncrypt@M@@QAEXPAM@Z ; CEncrypt<float>::DecryptValueToPool
  00192	8d 45 0c	 lea	 eax, DWORD PTR _value$540127[ebp]
  00195	50		 push	 eax
  00196	8b ce		 mov	 ecx, esi
  00198	e8 00 00 00 00	 call	 ?DecryptValueToPool@?$CEncrypt@M@@QAEXPAM@Z ; CEncrypt<float>::DecryptValueToPool
  0019d	f3 0f 10 45 0c	 movss	 xmm0, DWORD PTR _value$540127[ebp]
  001a2	f3 0f 10 4d 08	 movss	 xmm1, DWORD PTR _value$540119[ebp]
  001a7	0f 5a c0	 cvtps2pd xmm0, xmm0
  001aa	0f 5a c9	 cvtps2pd xmm1, xmm1
  001ad	66 0f 2f c8	 comisd	 xmm1, xmm0
  001b1	0f 47 fe	 cmova	 edi, esi
  001b4	57		 push	 edi
  001b5	8b ce		 mov	 ecx, esi
  001b7	e8 00 00 00 00	 call	 ??4?$CEncrypt@M@@QAE_NAAV0@@Z ; CEncrypt<float>::operator=
  001bc	5f		 pop	 edi
  001bd	5e		 pop	 esi
  001be	5b		 pop	 ebx

; 798  : }

  001bf	c9		 leave
  001c0	c2 08 00	 ret	 8
?SetExtraRate@ioSymbolStruct@@QAEXHM@Z ENDP		; ioSymbolStruct::SetExtraRate
_TEXT	ENDS
PUBLIC	?ProcessHPDecrease@ioSymbolStruct@@IAEXXZ	; ioSymbolStruct::ProcessHPDecrease
; Function compile flags: /Ogsp
;	COMDAT ?ProcessHPDecrease@ioSymbolStruct@@IAEXXZ
_TEXT	SEGMENT
_value$540236 = -20					; size = 4
_value$540194 = -20					; size = 4
_value$540228 = -16					; size = 4
_value$540219 = -16					; size = 4
_value$540214 = -16					; size = 4
_value$540210 = -16					; size = 4
tv417 = -12						; size = 4
tv413 = -12						; size = 4
tv409 = -12						; size = 4
$T540198 = -12						; size = 4
tv421 = -8						; size = 4
$T540202 = -8						; size = 4
_value$540190 = -8					; size = 4
_value$540173 = -8					; size = 4
_value$540168 = -8					; size = 4
_dwCurTime$ = -8					; size = 4
_value$540223 = -4					; size = 4
_value$540206 = -4					; size = 4
_value$540182 = -4					; size = 4
_value$540177 = -4					; size = 4
_value$540164 = -4					; size = 4
_value$540160 = -4					; size = 4
_value$540156 = -4					; size = 4
_value$540148 = -4					; size = 4
?ProcessHPDecrease@ioSymbolStruct@@IAEXXZ PROC		; ioSymbolStruct::ProcessHPDecrease, COMDAT
; _this$ = ecx

; 801  : {

  00000	55		 push	 ebp
  00001	8b ec		 mov	 ebp, esp
  00003	83 ec 14	 sub	 esp, 20			; 00000014H
  00006	56		 push	 esi
  00007	8b f1		 mov	 esi, ecx

; 802  : 	if( m_dwDecreaseTicTime == 0 )

  00009	8d 45 fc	 lea	 eax, DWORD PTR _value$540148[ebp]
  0000c	8d 8e b0 04 00
	00		 lea	 ecx, DWORD PTR [esi+1200]
  00012	50		 push	 eax
  00013	e8 00 00 00 00	 call	 ?DecryptValueToPool@?$CEncrypt@K@@QAEXPAK@Z ; CEncrypt<unsigned long>::DecryptValueToPool
  00018	83 7d fc 00	 cmp	 DWORD PTR _value$540148[ebp], 0
  0001c	0f 84 07 02 00
	00		 je	 $LN1@ProcessHPD

; 803  : 		return;
; 804  : 
; 805  : 	if( m_pModeParent->GetModeState() != ioPlayMode::MS_PLAY )

  00022	8b 86 8c 00 00
	00		 mov	 eax, DWORD PTR [esi+140]
  00028	83 78 38 01	 cmp	 DWORD PTR [eax+56], 1
  0002c	0f 85 f7 01 00
	00		 jne	 $LN1@ProcessHPD

; 806  : 		return;
; 807  : 
; 808  : 	DWORD dwCurTime = FRAMEGETTIME();

  00032	53		 push	 ebx
  00033	57		 push	 edi
  00034	ff 15 00 00 00
	00		 call	 DWORD PTR __imp_?GetSingleton@ioFrameTimer@@SAAAV1@XZ
  0003a	8b c8		 mov	 ecx, eax
  0003c	ff 15 00 00 00
	00		 call	 DWORD PTR __imp_?GetLoopSec@ioFrameTimer@@QBEKXZ
  00042	8b f8		 mov	 edi, eax

; 809  : 	int iTickGap = (int)( dwCurTime - m_dwDecreaseCheckTime );

  00044	8d 45 fc	 lea	 eax, DWORD PTR _value$540156[ebp]
  00047	50		 push	 eax
  00048	8d 8e e0 04 00
	00		 lea	 ecx, DWORD PTR [esi+1248]
  0004e	89 7d f8	 mov	 DWORD PTR _dwCurTime$[ebp], edi
  00051	e8 00 00 00 00	 call	 ?DecryptValueToPool@?$CEncrypt@K@@QAEXPAK@Z ; CEncrypt<unsigned long>::DecryptValueToPool
  00056	2b 7d fc	 sub	 edi, DWORD PTR _value$540156[ebp]

; 810  : 
; 811  : 	if( iTickGap >= (int)m_dwDecreaseTicTime )

  00059	8d 45 fc	 lea	 eax, DWORD PTR _value$540160[ebp]
  0005c	50		 push	 eax
  0005d	8d 8e b0 04 00
	00		 lea	 ecx, DWORD PTR [esi+1200]
  00063	e8 00 00 00 00	 call	 ?DecryptValueToPool@?$CEncrypt@K@@QAEXPAK@Z ; CEncrypt<unsigned long>::DecryptValueToPool
  00068	3b 7d fc	 cmp	 edi, DWORD PTR _value$540160[ebp]
  0006b	0f 8c b6 01 00
	00		 jl	 $LN56@ProcessHPD

; 812  : 	{
; 813  : 		m_dwDecreaseCheckTime = dwCurTime - ( iTickGap - m_dwDecreaseTicTime );

  00071	8d 45 fc	 lea	 eax, DWORD PTR _value$540164[ebp]
  00074	50		 push	 eax
  00075	8d 8e b0 04 00
	00		 lea	 ecx, DWORD PTR [esi+1200]
  0007b	e8 00 00 00 00	 call	 ?DecryptValueToPool@?$CEncrypt@K@@QAEXPAK@Z ; CEncrypt<unsigned long>::DecryptValueToPool
  00080	8b 45 fc	 mov	 eax, DWORD PTR _value$540164[ebp]
  00083	2b c7		 sub	 eax, edi
  00085	03 45 f8	 add	 eax, DWORD PTR _dwCurTime$[ebp]
  00088	8d 8e e0 04 00
	00		 lea	 ecx, DWORD PTR [esi+1248]
  0008e	89 45 f8	 mov	 DWORD PTR _value$540168[ebp], eax
  00091	8d 45 f8	 lea	 eax, DWORD PTR _value$540168[ebp]
  00094	50		 push	 eax
  00095	e8 00 00 00 00	 call	 ?EncryptValueToPool@?$CEncrypt@K@@AAEXPBD@Z ; CEncrypt<unsigned long>::EncryptValueToPool

; 814  : 		m_fDecreaseCurRate += m_fDecreaseRate;

  0009a	8d 45 f8	 lea	 eax, DWORD PTR _value$540173[ebp]
  0009d	50		 push	 eax
  0009e	8d 8e c0 03 00
	00		 lea	 ecx, DWORD PTR [esi+960]
  000a4	e8 00 00 00 00	 call	 ?DecryptValueToPool@?$CEncrypt@M@@QAEXPAM@Z ; CEncrypt<float>::DecryptValueToPool
  000a9	8d 45 fc	 lea	 eax, DWORD PTR _value$540177[ebp]
  000ac	8d be f0 03 00
	00		 lea	 edi, DWORD PTR [esi+1008]
  000b2	50		 push	 eax
  000b3	8b cf		 mov	 ecx, edi
  000b5	e8 00 00 00 00	 call	 ?DecryptValueToPool@?$CEncrypt@M@@QAEXPAM@Z ; CEncrypt<float>::DecryptValueToPool
  000ba	f3 0f 10 45 fc	 movss	 xmm0, DWORD PTR _value$540177[ebp]
  000bf	f3 0f 10 4d f8	 movss	 xmm1, DWORD PTR _value$540173[ebp]
  000c4	0f 5a c0	 cvtps2pd xmm0, xmm0
  000c7	0f 5a c9	 cvtps2pd xmm1, xmm1
  000ca	8d 45 fc	 lea	 eax, DWORD PTR _value$540177[ebp]
  000cd	f2 0f 58 c1	 addsd	 xmm0, xmm1
  000d1	66 0f 5a c0	 cvtpd2ps xmm0, xmm0
  000d5	50		 push	 eax
  000d6	8b cf		 mov	 ecx, edi
  000d8	f3 0f 11 45 fc	 movss	 DWORD PTR _value$540177[ebp], xmm0
  000dd	e8 00 00 00 00	 call	 ?EncryptValueToPool@?$CEncrypt@M@@AAEXPBD@Z ; CEncrypt<float>::EncryptValueToPool

; 815  : 		m_fDecreaseCurRate = min( m_fDecreaseCurRate, m_fDecreaseMaxRate );

  000e2	8d 45 fc	 lea	 eax, DWORD PTR _value$540182[ebp]
  000e5	8d 9e 20 04 00
	00		 lea	 ebx, DWORD PTR [esi+1056]
  000eb	50		 push	 eax
  000ec	8b cb		 mov	 ecx, ebx
  000ee	e8 00 00 00 00	 call	 ?DecryptValueToPool@?$CEncrypt@M@@QAEXPAM@Z ; CEncrypt<float>::DecryptValueToPool
  000f3	8d 45 f8	 lea	 eax, DWORD PTR _value$540190[ebp]
  000f6	50		 push	 eax
  000f7	8b cf		 mov	 ecx, edi
  000f9	e8 00 00 00 00	 call	 ?DecryptValueToPool@?$CEncrypt@M@@QAEXPAM@Z ; CEncrypt<float>::DecryptValueToPool
  000fe	f3 0f 10 45 f8	 movss	 xmm0, DWORD PTR _value$540190[ebp]
  00103	f3 0f 10 4d fc	 movss	 xmm1, DWORD PTR _value$540182[ebp]
  00108	0f 5a c0	 cvtps2pd xmm0, xmm0
  0010b	0f 5a c9	 cvtps2pd xmm1, xmm1
  0010e	66 0f 2f c8	 comisd	 xmm1, xmm0
  00112	0f 47 df	 cmova	 ebx, edi
  00115	53		 push	 ebx
  00116	8b cf		 mov	 ecx, edi
  00118	e8 00 00 00 00	 call	 ??4?$CEncrypt@M@@QAE_NAAV0@@Z ; CEncrypt<float>::operator=

; 816  : 
; 817  : 		float fPreMaxHP = m_HP.m_fMaxValue;

  0011d	8d 45 ec	 lea	 eax, DWORD PTR _value$540194[ebp]
  00120	8d 9e f0 00 00
	00		 lea	 ebx, DWORD PTR [esi+240]
  00126	50		 push	 eax
  00127	8b cb		 mov	 ecx, ebx
  00129	e8 00 00 00 00	 call	 ?DecryptValueToPool@?$CEncrypt@M@@QAEXPAM@Z ; CEncrypt<float>::DecryptValueToPool

; 818  : 		m_HP.m_fMaxValue = m_fCurMaxHP * ( FLOAT1 - m_fDecreaseCurRate/FLOAT100 );

  0012e	b8 64 00 00 00	 mov	 eax, 100		; 00000064H
  00133	89 45 f4	 mov	 DWORD PTR $T540198[ebp], eax
  00136	b8 01 00 00 00	 mov	 eax, 1
  0013b	89 45 f8	 mov	 DWORD PTR $T540202[ebp], eax
  0013e	8d 45 fc	 lea	 eax, DWORD PTR _value$540206[ebp]
  00141	50		 push	 eax
  00142	8b cf		 mov	 ecx, edi
  00144	e8 00 00 00 00	 call	 ?DecryptValueToPool@?$CEncrypt@M@@QAEXPAM@Z ; CEncrypt<float>::DecryptValueToPool
  00149	8d 45 f0	 lea	 eax, DWORD PTR _value$540210[ebp]
  0014c	50		 push	 eax
  0014d	8d 8e 90 03 00
	00		 lea	 ecx, DWORD PTR [esi+912]
  00153	e8 00 00 00 00	 call	 ?DecryptValueToPool@?$CEncrypt@M@@QAEXPAM@Z ; CEncrypt<float>::DecryptValueToPool
  00158	db 45 f8	 fild	 DWORD PTR $T540202[ebp]
  0015b	8b 45 f8	 mov	 eax, DWORD PTR $T540202[ebp]
  0015e	85 c0		 test	 eax, eax
  00160	79 06		 jns	 SHORT $LN58@ProcessHPD
  00162	d8 05 00 00 00
	00		 fadd	 DWORD PTR __real@4f800000
$LN58@ProcessHPD:
  00168	8b 45 f4	 mov	 eax, DWORD PTR $T540198[ebp]
  0016b	d9 45 fc	 fld	 DWORD PTR _value$540206[ebp]
  0016e	db 45 f4	 fild	 DWORD PTR $T540198[ebp]
  00171	85 c0		 test	 eax, eax
  00173	79 06		 jns	 SHORT $LN59@ProcessHPD
  00175	d8 05 00 00 00
	00		 fadd	 DWORD PTR __real@4f800000
$LN59@ProcessHPD:
  0017b	de f9		 fdivp	 ST(1), ST(0)
  0017d	8d 45 f0	 lea	 eax, DWORD PTR _value$540214[ebp]
  00180	50		 push	 eax
  00181	8b cb		 mov	 ecx, ebx
  00183	d9 5d f4	 fstp	 DWORD PTR tv413[ebp]
  00186	d8 65 f4	 fsub	 DWORD PTR tv413[ebp]
  00189	d9 5d f4	 fstp	 DWORD PTR tv409[ebp]
  0018c	d9 45 f4	 fld	 DWORD PTR tv409[ebp]
  0018f	d8 4d f0	 fmul	 DWORD PTR _value$540210[ebp]
  00192	d9 5d f0	 fstp	 DWORD PTR _value$540214[ebp]
  00195	e8 00 00 00 00	 call	 ?EncryptValueToPool@?$CEncrypt@M@@AAEXPBD@Z ; CEncrypt<float>::EncryptValueToPool

; 819  : 
; 820  : 		float fChangeRate = m_HP.m_fMaxValue / fPreMaxHP;

  0019a	8d 45 f0	 lea	 eax, DWORD PTR _value$540219[ebp]
  0019d	50		 push	 eax
  0019e	8b cb		 mov	 ecx, ebx
  001a0	e8 00 00 00 00	 call	 ?DecryptValueToPool@?$CEncrypt@M@@QAEXPAM@Z ; CEncrypt<float>::DecryptValueToPool

; 821  : 		m_HP.m_fCurValue *= fChangeRate;

  001a5	8d 45 fc	 lea	 eax, DWORD PTR _value$540223[ebp]
  001a8	81 c6 c0 00 00
	00		 add	 esi, 192		; 000000c0H
  001ae	50		 push	 eax
  001af	8b ce		 mov	 ecx, esi
  001b1	e8 00 00 00 00	 call	 ?DecryptValueToPool@?$CEncrypt@M@@QAEXPAM@Z ; CEncrypt<float>::DecryptValueToPool
  001b6	f3 0f 10 45 f0	 movss	 xmm0, DWORD PTR _value$540219[ebp]
  001bb	f3 0f 10 4d ec	 movss	 xmm1, DWORD PTR _value$540194[ebp]
  001c0	0f 5a c0	 cvtps2pd xmm0, xmm0
  001c3	0f 5a c9	 cvtps2pd xmm1, xmm1
  001c6	f2 0f 5e c1	 divsd	 xmm0, xmm1
  001ca	f3 0f 10 4d fc	 movss	 xmm1, DWORD PTR _value$540223[ebp]
  001cf	66 0f 5a c0	 cvtpd2ps xmm0, xmm0
  001d3	f3 0f 5a c0	 cvtss2sd xmm0, xmm0
  001d7	0f 5a c9	 cvtps2pd xmm1, xmm1
  001da	8d 45 fc	 lea	 eax, DWORD PTR _value$540223[ebp]
  001dd	f2 0f 59 c1	 mulsd	 xmm0, xmm1
  001e1	66 0f 5a c0	 cvtpd2ps xmm0, xmm0
  001e5	50		 push	 eax
  001e6	8b ce		 mov	 ecx, esi
  001e8	f3 0f 11 45 fc	 movss	 DWORD PTR _value$540223[ebp], xmm0
  001ed	e8 00 00 00 00	 call	 ?EncryptValueToPool@?$CEncrypt@M@@AAEXPBD@Z ; CEncrypt<float>::EncryptValueToPool

; 822  : 		m_HP.m_fCurValue = min(m_HP.m_fCurValue, m_HP.m_fMaxValue);

  001f2	8d 45 f0	 lea	 eax, DWORD PTR _value$540228[ebp]
  001f5	50		 push	 eax
  001f6	8b cb		 mov	 ecx, ebx
  001f8	e8 00 00 00 00	 call	 ?DecryptValueToPool@?$CEncrypt@M@@QAEXPAM@Z ; CEncrypt<float>::DecryptValueToPool
  001fd	8d 45 ec	 lea	 eax, DWORD PTR _value$540236[ebp]
  00200	50		 push	 eax
  00201	8b ce		 mov	 ecx, esi
  00203	e8 00 00 00 00	 call	 ?DecryptValueToPool@?$CEncrypt@M@@QAEXPAM@Z ; CEncrypt<float>::DecryptValueToPool
  00208	f3 0f 10 45 ec	 movss	 xmm0, DWORD PTR _value$540236[ebp]
  0020d	f3 0f 10 4d f0	 movss	 xmm1, DWORD PTR _value$540228[ebp]
  00212	0f 5a c0	 cvtps2pd xmm0, xmm0
  00215	0f 5a c9	 cvtps2pd xmm1, xmm1
  00218	66 0f 2f c8	 comisd	 xmm1, xmm0
  0021c	0f 47 de	 cmova	 ebx, esi
  0021f	53		 push	 ebx
  00220	8b ce		 mov	 ecx, esi
  00222	e8 00 00 00 00	 call	 ??4?$CEncrypt@M@@QAE_NAAV0@@Z ; CEncrypt<float>::operator=
$LN56@ProcessHPD:
  00227	5f		 pop	 edi
  00228	5b		 pop	 ebx
$LN1@ProcessHPD:
  00229	5e		 pop	 esi

; 823  : 	}
; 824  : }

  0022a	c9		 leave
  0022b	c3		 ret	 0
?ProcessHPDecrease@ioSymbolStruct@@IAEXXZ ENDP		; ioSymbolStruct::ProcessHPDecrease
_TEXT	ENDS
END
