; Listing generated by Microsoft (R) Optimizing Compiler Version 16.00.30319.01 

	TITLE	D:\Lost Saga For Developer\Youtube\Tutorial\Source\src\LSClient\ioSymbolStruct.cpp
	.686P
	.XMM
	include listing.inc
	.model	flat

INCLUDELIB MSVCRT
INCLUDELIB OLDNAMES

PUBLIC	?_EEM_DS@?$deque@UD3DXVECTOR3@@V?$allocator@UD3DXVECTOR3@@@std@@@std@@2HB ; std::deque<D3DXVECTOR3,std::allocator<D3DXVECTOR3> >::_EEM_DS
;	COMDAT ?_EEM_DS@?$deque@UD3DXVECTOR3@@V?$allocator@UD3DXVECTOR3@@@std@@@std@@2HB
CONST	SEGMENT
?_EEM_DS@?$deque@UD3DXVECTOR3@@V?$allocator@UD3DXVECTOR3@@@std@@@std@@2HB DD 01H ; std::deque<D3DXVECTOR3,std::allocator<D3DXVECTOR3> >::_EEM_DS
CONST	ENDS
PUBLIC	?return1@@YAIXZ					; return1
; Function compile flags: /Ogsp
; File d:\lost saga for developer\youtube\tutorial\source\src\lsclient\stdafx.h
;	COMDAT ?return1@@YAIXZ
_TEXT	SEGMENT
?return1@@YAIXZ PROC					; return1, COMDAT

; 17   : 	__forceinline unsigned int return1() { __asm mov eax, 1 };

  00000	b8 01 00 00 00	 mov	 eax, 1
  00005	c3		 ret	 0
?return1@@YAIXZ ENDP					; return1
_TEXT	ENDS
PUBLIC	?return5@@YAIXZ					; return5
; Function compile flags: /Ogsp
;	COMDAT ?return5@@YAIXZ
_TEXT	SEGMENT
?return5@@YAIXZ PROC					; return5, COMDAT

; 18   : 	__forceinline unsigned int return5() { __asm mov eax, 5 };

  00000	b8 05 00 00 00	 mov	 eax, 5
  00005	c3		 ret	 0
?return5@@YAIXZ ENDP					; return5
_TEXT	ENDS
PUBLIC	?return10@@YAIXZ				; return10
; Function compile flags: /Ogsp
;	COMDAT ?return10@@YAIXZ
_TEXT	SEGMENT
?return10@@YAIXZ PROC					; return10, COMDAT

; 21   : 	__forceinline unsigned int return10() { __asm mov eax, 10 };

  00000	b8 0a 00 00 00	 mov	 eax, 10			; 0000000aH
  00005	c3		 ret	 0
?return10@@YAIXZ ENDP					; return10
_TEXT	ENDS
PUBLIC	?return40@@YAIXZ				; return40
; Function compile flags: /Ogsp
;	COMDAT ?return40@@YAIXZ
_TEXT	SEGMENT
?return40@@YAIXZ PROC					; return40, COMDAT

; 22   : 	__forceinline unsigned int return40() { __asm mov eax, 40 };

  00000	b8 28 00 00 00	 mov	 eax, 40			; 00000028H
  00005	c3		 ret	 0
?return40@@YAIXZ ENDP					; return40
_TEXT	ENDS
PUBLIC	?return100@@YAIXZ				; return100
; Function compile flags: /Ogsp
;	COMDAT ?return100@@YAIXZ
_TEXT	SEGMENT
?return100@@YAIXZ PROC					; return100, COMDAT

; 25   : 	__forceinline unsigned int return100() { __asm mov eax, 100 };

  00000	b8 64 00 00 00	 mov	 eax, 100		; 00000064H
  00005	c3		 ret	 0
?return100@@YAIXZ ENDP					; return100
_TEXT	ENDS
PUBLIC	?IsOwnerChar@ioBaseChar@@QBE_NXZ		; ioBaseChar::IsOwnerChar
; Function compile flags: /Ogsp
; File d:\lost saga for developer\youtube\tutorial\source\src\lsclient\iobasechar.h
;	COMDAT ?IsOwnerChar@ioBaseChar@@QBE_NXZ
_TEXT	SEGMENT
?IsOwnerChar@ioBaseChar@@QBE_NXZ PROC			; ioBaseChar::IsOwnerChar, COMDAT
; _this$ = ecx

; 1467 : 	inline bool IsOwnerChar() const { return m_bOwnerChar; }

  00000	8a 81 84 13 00
	00		 mov	 al, BYTE PTR [ecx+4996]
  00006	c3		 ret	 0
?IsOwnerChar@ioBaseChar@@QBE_NXZ ENDP			; ioBaseChar::IsOwnerChar
_TEXT	ENDS
PUBLIC	?GetState@ioBaseChar@@QBE?AW4CharState@@XZ	; ioBaseChar::GetState
; Function compile flags: /Ogsp
;	COMDAT ?GetState@ioBaseChar@@QBE?AW4CharState@@XZ
_TEXT	SEGMENT
?GetState@ioBaseChar@@QBE?AW4CharState@@XZ PROC		; ioBaseChar::GetState, COMDAT
; _this$ = ecx

; 2156 : 	inline CharState GetState() const { return m_CharState; }	

  00000	8a 81 10 03 00
	00		 mov	 al, BYTE PTR [ecx+784]
  00006	c3		 ret	 0
?GetState@ioBaseChar@@QBE?AW4CharState@@XZ ENDP		; ioBaseChar::GetState
_TEXT	ENDS
PUBLIC	?GetCharName@ioBaseChar@@QBEABVioHashString@@XZ	; ioBaseChar::GetCharName
; Function compile flags: /Ogsp
;	COMDAT ?GetCharName@ioBaseChar@@QBEABVioHashString@@XZ
_TEXT	SEGMENT
?GetCharName@ioBaseChar@@QBEABVioHashString@@XZ PROC	; ioBaseChar::GetCharName, COMDAT
; _this$ = ecx

; 2594 : 	inline const ioHashString& GetCharName() const { return m_Name; }

  00000	8d 81 d4 02 00
	00		 lea	 eax, DWORD PTR [ecx+724]
  00006	c3		 ret	 0
?GetCharName@ioBaseChar@@QBEABVioHashString@@XZ ENDP	; ioBaseChar::GetCharName
_TEXT	ENDS
PUBLIC	??_GioGaugeHelper@@QAEPAXI@Z			; ioGaugeHelper::`scalar deleting destructor'
EXTRN	??3@YAXPAX@Z:PROC				; operator delete
EXTRN	??1ioGaugeHelper@@QAE@XZ:PROC			; ioGaugeHelper::~ioGaugeHelper
; Function compile flags: /Ogsp
;	COMDAT ??_GioGaugeHelper@@QAEPAXI@Z
_TEXT	SEGMENT
___flags$ = 8						; size = 4
??_GioGaugeHelper@@QAEPAXI@Z PROC			; ioGaugeHelper::`scalar deleting destructor', COMDAT
; _this$ = ecx
  00000	55		 push	 ebp
  00001	8b ec		 mov	 ebp, esp
  00003	56		 push	 esi
  00004	8b f1		 mov	 esi, ecx
  00006	e8 00 00 00 00	 call	 ??1ioGaugeHelper@@QAE@XZ ; ioGaugeHelper::~ioGaugeHelper
  0000b	f6 45 08 01	 test	 BYTE PTR ___flags$[ebp], 1
  0000f	74 07		 je	 SHORT $LN1@scalar
  00011	56		 push	 esi
  00012	e8 00 00 00 00	 call	 ??3@YAXPAX@Z		; operator delete
  00017	59		 pop	 ecx
$LN1@scalar:
  00018	8b c6		 mov	 eax, esi
  0001a	5e		 pop	 esi
  0001b	5d		 pop	 ebp
  0001c	c2 04 00	 ret	 4
??_GioGaugeHelper@@QAEPAXI@Z ENDP			; ioGaugeHelper::`scalar deleting destructor'
_TEXT	ENDS
PUBLIC	?UpdateAfter@ioSymbolStruct@@UAEXM@Z		; ioSymbolStruct::UpdateAfter
EXTRN	?UpdateAfter@ioGameEntity@@UAEXM@Z:PROC		; ioGameEntity::UpdateAfter
EXTRN	__fltused:DWORD
; Function compile flags: /Ogsp
; File d:\lost saga for developer\youtube\tutorial\source\src\lsclient\iosymbolstruct.cpp
;	COMDAT ?UpdateAfter@ioSymbolStruct@@UAEXM@Z
_TEXT	SEGMENT
_fFrameGap$ = 8						; size = 4
?UpdateAfter@ioSymbolStruct@@UAEXM@Z PROC		; ioSymbolStruct::UpdateAfter, COMDAT
; _this$ = ecx

; 61   : {

  00000	55		 push	 ebp
  00001	8b ec		 mov	 ebp, esp
  00003	56		 push	 esi
  00004	8b f1		 mov	 esi, ecx

; 62   : 	if( m_pGroup )

  00006	83 7e 04 00	 cmp	 DWORD PTR [esi+4], 0
  0000a	74 13		 je	 SHORT $LN1@UpdateAfte

; 63   : 	{
; 64   : 		m_pGroup->Update( fFrameGap );

  0000c	8b 4e 04	 mov	 ecx, DWORD PTR [esi+4]
  0000f	f3 0f 10 45 08	 movss	 xmm0, DWORD PTR _fFrameGap$[ebp]
  00014	8b 01		 mov	 eax, DWORD PTR [ecx]
  00016	51		 push	 ecx
  00017	f3 0f 11 04 24	 movss	 DWORD PTR [esp], xmm0
  0001c	ff 50 40	 call	 DWORD PTR [eax+64]
$LN1@UpdateAfte:

; 65   : 	}
; 66   : 
; 67   : 	ioPlayEntity::UpdateAfter( fFrameGap );

  0001f	f3 0f 10 45 08	 movss	 xmm0, DWORD PTR _fFrameGap$[ebp]
  00024	51		 push	 ecx
  00025	8b ce		 mov	 ecx, esi
  00027	f3 0f 11 04 24	 movss	 DWORD PTR [esp], xmm0
  0002c	e8 00 00 00 00	 call	 ?UpdateAfter@ioGameEntity@@UAEXM@Z ; ioGameEntity::UpdateAfter
  00031	5e		 pop	 esi

; 68   : }

  00032	5d		 pop	 ebp
  00033	c2 04 00	 ret	 4
?UpdateAfter@ioSymbolStruct@@UAEXM@Z ENDP		; ioSymbolStruct::UpdateAfter
_TEXT	ENDS
PUBLIC	?IsMountAvailable@ioSymbolStruct@@UBE_NXZ	; ioSymbolStruct::IsMountAvailable
; Function compile flags: /Ogsp
;	COMDAT ?IsMountAvailable@ioSymbolStruct@@UBE_NXZ
_TEXT	SEGMENT
?IsMountAvailable@ioSymbolStruct@@UBE_NXZ PROC		; ioSymbolStruct::IsMountAvailable, COMDAT
; _this$ = ecx

; 396  : 	return true;

  00000	b0 01		 mov	 al, 1

; 397  : }

  00002	c3		 ret	 0
?IsMountAvailable@ioSymbolStruct@@UBE_NXZ ENDP		; ioSymbolStruct::IsMountAvailable
_TEXT	ENDS
PUBLIC	?IsMountingAvailable@ioSymbolStruct@@UBE_NXZ	; ioSymbolStruct::IsMountingAvailable
; Function compile flags: /Ogsp
;	COMDAT ?IsMountingAvailable@ioSymbolStruct@@UBE_NXZ
_TEXT	SEGMENT
?IsMountingAvailable@ioSymbolStruct@@UBE_NXZ PROC	; ioSymbolStruct::IsMountingAvailable, COMDAT
; _this$ = ecx

; 401  : 	return false;

  00000	32 c0		 xor	 al, al

; 402  : }

  00002	c3		 ret	 0
?IsMountingAvailable@ioSymbolStruct@@UBE_NXZ ENDP	; ioSymbolStruct::IsMountingAvailable
_TEXT	ENDS
PUBLIC	?IsNowMountEnable@ioSymbolStruct@@UBE_NXZ	; ioSymbolStruct::IsNowMountEnable
; Function compile flags: /Ogsp
;	COMDAT ?IsNowMountEnable@ioSymbolStruct@@UBE_NXZ
_TEXT	SEGMENT
?IsNowMountEnable@ioSymbolStruct@@UBE_NXZ PROC		; ioSymbolStruct::IsNowMountEnable, COMDAT
; _this$ = ecx

; 406  : 	return true;

  00000	b0 01		 mov	 al, 1

; 407  : }

  00002	c3		 ret	 0
?IsNowMountEnable@ioSymbolStruct@@UBE_NXZ ENDP		; ioSymbolStruct::IsNowMountEnable
_TEXT	ENDS
PUBLIC	?SetOrgTeam@ioSymbolStruct@@QAEXW4TeamType@@@Z	; ioSymbolStruct::SetOrgTeam
; Function compile flags: /Ogsp
;	COMDAT ?SetOrgTeam@ioSymbolStruct@@QAEXW4TeamType@@@Z
_TEXT	SEGMENT
_eTeam$ = 8						; size = 4
?SetOrgTeam@ioSymbolStruct@@QAEXW4TeamType@@@Z PROC	; ioSymbolStruct::SetOrgTeam, COMDAT
; _this$ = ecx

; 410  : {

  00000	55		 push	 ebp
  00001	8b ec		 mov	 ebp, esp

; 411  : 	m_OrgTeam = eTeam;

  00003	8b 45 08	 mov	 eax, DWORD PTR _eTeam$[ebp]

; 412  : 	SetTeam( eTeam );

  00006	8b 11		 mov	 edx, DWORD PTR [ecx]
  00008	50		 push	 eax
  00009	89 81 f8 02 00
	00		 mov	 DWORD PTR [ecx+760], eax
  0000f	ff 92 dc 00 00
	00		 call	 DWORD PTR [edx+220]

; 413  : }

  00015	5d		 pop	 ebp
  00016	c2 04 00	 ret	 4
?SetOrgTeam@ioSymbolStruct@@QAEXW4TeamType@@@Z ENDP	; ioSymbolStruct::SetOrgTeam
_TEXT	ENDS
PUBLIC	?RestoreOrgTeam@ioSymbolStruct@@QAEXXZ		; ioSymbolStruct::RestoreOrgTeam
; Function compile flags: /Ogsp
;	COMDAT ?RestoreOrgTeam@ioSymbolStruct@@QAEXXZ
_TEXT	SEGMENT
?RestoreOrgTeam@ioSymbolStruct@@QAEXXZ PROC		; ioSymbolStruct::RestoreOrgTeam, COMDAT
; _this$ = ecx

; 417  : 	SetTeam( m_OrgTeam );

  00000	ff b1 f8 02 00
	00		 push	 DWORD PTR [ecx+760]
  00006	8b 01		 mov	 eax, DWORD PTR [ecx]
  00008	ff 90 dc 00 00
	00		 call	 DWORD PTR [eax+220]

; 418  : }

  0000e	c3		 ret	 0
?RestoreOrgTeam@ioSymbolStruct@@QAEXXZ ENDP		; ioSymbolStruct::RestoreOrgTeam
_TEXT	ENDS
PUBLIC	?IsCollisionAvailableWeapon@ioSymbolStruct@@UAE_NPAVioWeapon@@@Z ; ioSymbolStruct::IsCollisionAvailableWeapon
; Function compile flags: /Ogsp
;	COMDAT ?IsCollisionAvailableWeapon@ioSymbolStruct@@UAE_NPAVioWeapon@@@Z
_TEXT	SEGMENT
_pWeapon$ = 8						; size = 4
?IsCollisionAvailableWeapon@ioSymbolStruct@@UAE_NPAVioWeapon@@@Z PROC ; ioSymbolStruct::IsCollisionAvailableWeapon, COMDAT
; _this$ = ecx

; 473  : {

  00000	55		 push	 ebp
  00001	8b ec		 mov	 ebp, esp
  00003	56		 push	 esi
  00004	57		 push	 edi

; 474  : 	if( !IsCollisionAvailableRange( pWeapon ) )

  00005	8b 7d 08	 mov	 edi, DWORD PTR _pWeapon$[ebp]
  00008	8b f1		 mov	 esi, ecx
  0000a	8b 06		 mov	 eax, DWORD PTR [esi]
  0000c	57		 push	 edi
  0000d	ff 90 84 00 00
	00		 call	 DWORD PTR [eax+132]
  00013	84 c0		 test	 al, al
  00015	74 0d		 je	 SHORT $LN1@IsCollisio
$LN2@IsCollisio:

; 475  : 		return false;
; 476  : 
; 477  : 	if( pWeapon->IsAlreadyCollisioned( this ) )

  00017	8b 07		 mov	 eax, DWORD PTR [edi]
  00019	56		 push	 esi
  0001a	8b cf		 mov	 ecx, edi
  0001c	ff 10		 call	 DWORD PTR [eax]
  0001e	f6 d8		 neg	 al
  00020	1a c0		 sbb	 al, al
  00022	fe c0		 inc	 al
$LN1@IsCollisio:
  00024	5f		 pop	 edi
  00025	5e		 pop	 esi

; 478  : 		return false;
; 479  : 
; 480  : 	return true;
; 481  : }

  00026	5d		 pop	 ebp
  00027	c2 04 00	 ret	 4
?IsCollisionAvailableWeapon@ioSymbolStruct@@UAE_NPAVioWeapon@@@Z ENDP ; ioSymbolStruct::IsCollisionAvailableWeapon
_TEXT	ENDS
PUBLIC	?DontMoveEntityLevel@ioSymbolStruct@@UBEHXZ	; ioSymbolStruct::DontMoveEntityLevel
; Function compile flags: /Ogsp
;	COMDAT ?DontMoveEntityLevel@ioSymbolStruct@@UBEHXZ
_TEXT	SEGMENT
?DontMoveEntityLevel@ioSymbolStruct@@UBEHXZ PROC	; ioSymbolStruct::DontMoveEntityLevel, COMDAT
; _this$ = ecx

; 485  : 	return 5;

  00000	6a 05		 push	 5
  00002	58		 pop	 eax

; 486  : }

  00003	c3		 ret	 0
?DontMoveEntityLevel@ioSymbolStruct@@UBEHXZ ENDP	; ioSymbolStruct::DontMoveEntityLevel
_TEXT	ENDS
PUBLIC	?GetSubType@ioSymbolStruct@@UBE?AW4PlaySubType@ioPlayEntity@@XZ ; ioSymbolStruct::GetSubType
; Function compile flags: /Ogsp
;	COMDAT ?GetSubType@ioSymbolStruct@@UBE?AW4PlaySubType@ioPlayEntity@@XZ
_TEXT	SEGMENT
?GetSubType@ioSymbolStruct@@UBE?AW4PlaySubType@ioPlayEntity@@XZ PROC ; ioSymbolStruct::GetSubType, COMDAT
; _this$ = ecx

; 490  : 	return PST_SYMBOL;

  00000	33 c0		 xor	 eax, eax
  00002	40		 inc	 eax

; 491  : }

  00003	c3		 ret	 0
?GetSubType@ioSymbolStruct@@UBE?AW4PlaySubType@ioPlayEntity@@XZ ENDP ; ioSymbolStruct::GetSubType
_TEXT	ENDS
PUBLIC	?GetArmorType@ioSymbolStruct@@UBE?AW4ArmorType@@XZ ; ioSymbolStruct::GetArmorType
; Function compile flags: /Ogsp
;	COMDAT ?GetArmorType@ioSymbolStruct@@UBE?AW4ArmorType@@XZ
_TEXT	SEGMENT
?GetArmorType@ioSymbolStruct@@UBE?AW4ArmorType@@XZ PROC	; ioSymbolStruct::GetArmorType, COMDAT
; _this$ = ecx

; 495  : 	return m_ArmorType;

  00000	8b 81 d4 01 00
	00		 mov	 eax, DWORD PTR [ecx+468]

; 496  : }

  00006	c3		 ret	 0
?GetArmorType@ioSymbolStruct@@UBE?AW4ArmorType@@XZ ENDP	; ioSymbolStruct::GetArmorType
_TEXT	ENDS
PUBLIC	?UpdateBottomHeight@ioSymbolStruct@@MBEXXZ	; ioSymbolStruct::UpdateBottomHeight
; Function compile flags: /Ogsp
;	COMDAT ?UpdateBottomHeight@ioSymbolStruct@@MBEXXZ
_TEXT	SEGMENT
?UpdateBottomHeight@ioSymbolStruct@@MBEXXZ PROC		; ioSymbolStruct::UpdateBottomHeight, COMDAT
; _this$ = ecx

; 499  : {

  00000	56		 push	 esi
  00001	8b f1		 mov	 esi, ecx

; 500  : 	m_fCurBottomHeight = GetWorldPosition().y;

  00003	8b 06		 mov	 eax, DWORD PTR [esi]
  00005	ff 50 70	 call	 DWORD PTR [eax+112]
  00008	d9 40 04	 fld	 DWORD PTR [eax+4]
  0000b	d9 9e 84 00 00
	00		 fstp	 DWORD PTR [esi+132]
  00011	5e		 pop	 esi

; 501  : }

  00012	c3		 ret	 0
?UpdateBottomHeight@ioSymbolStruct@@MBEXXZ ENDP		; ioSymbolStruct::UpdateBottomHeight
_TEXT	ENDS
PUBLIC	?SetWoundedState@ioSymbolStruct@@QAEXXZ		; ioSymbolStruct::SetWoundedState
EXTRN	__imp_?GetLoopSec@ioFrameTimer@@QBEKXZ:PROC
EXTRN	__imp_?GetSingleton@ioFrameTimer@@SAAAV1@XZ:PROC
; Function compile flags: /Ogsp
;	COMDAT ?SetWoundedState@ioSymbolStruct@@QAEXXZ
_TEXT	SEGMENT
?SetWoundedState@ioSymbolStruct@@QAEXXZ PROC		; ioSymbolStruct::SetWoundedState, COMDAT
; _this$ = ecx

; 531  : {

  00000	56		 push	 esi
  00001	8b f1		 mov	 esi, ecx

; 532  : 	m_State = SS_WOUNDED;

  00003	c7 86 cc 01 00
	00 01 00 00 00	 mov	 DWORD PTR [esi+460], 1

; 533  : 	m_dwWoundedSetTime = FRAMEGETTIME();

  0000d	ff 15 00 00 00
	00		 call	 DWORD PTR __imp_?GetSingleton@ioFrameTimer@@SAAAV1@XZ
  00013	8b c8		 mov	 ecx, eax
  00015	ff 15 00 00 00
	00		 call	 DWORD PTR __imp_?GetLoopSec@ioFrameTimer@@QBEKXZ
  0001b	89 86 8c 05 00
	00		 mov	 DWORD PTR [esi+1420], eax
  00021	5e		 pop	 esi

; 534  : }

  00022	c3		 ret	 0
?SetWoundedState@ioSymbolStruct@@QAEXXZ ENDP		; ioSymbolStruct::SetWoundedState
_TEXT	ENDS
PUBLIC	?SetEndFocusEffect@ioSymbolStruct@@QAEXABVioHashString@@@Z ; ioSymbolStruct::SetEndFocusEffect
EXTRN	__imp_?AttachEffect@ioEntityGroup@@QAEPAVioEffect@@ABVioHashString@@PAVioEntityEvent@@ABUD3DXQUATERNION@@ABUD3DXVECTOR3@@_N@Z:PROC
EXTRN	__imp_?QUAT_IDENTITY@ioMath@@2UD3DXQUATERNION@@A:BYTE
EXTRN	__imp_?VEC3_ZERO@ioMath@@2UD3DXVECTOR3@@A:BYTE
EXTRN	__imp_?IsEmpty@ioHashString@@QBE_NXZ:PROC
; Function compile flags: /Ogsp
;	COMDAT ?SetEndFocusEffect@ioSymbolStruct@@QAEXABVioHashString@@@Z
_TEXT	SEGMENT
_szEndFocusEffect$ = 8					; size = 4
?SetEndFocusEffect@ioSymbolStruct@@QAEXABVioHashString@@@Z PROC ; ioSymbolStruct::SetEndFocusEffect, COMDAT
; _this$ = ecx

; 537  : {

  00000	55		 push	 ebp
  00001	8b ec		 mov	 ebp, esp
  00003	56		 push	 esi
  00004	8b f1		 mov	 esi, ecx

; 538  : 	if( !szEndFocusEffect.IsEmpty() )

  00006	8b 4d 08	 mov	 ecx, DWORD PTR _szEndFocusEffect$[ebp]
  00009	ff 15 00 00 00
	00		 call	 DWORD PTR __imp_?IsEmpty@ioHashString@@QBE_NXZ
  0000f	84 c0		 test	 al, al
  00011	75 20		 jne	 SHORT $LN1@SetEndFocu

; 539  : 	{
; 540  : 		if( m_pGroup )

  00013	8b 4e 04	 mov	 ecx, DWORD PTR [esi+4]
  00016	85 c9		 test	 ecx, ecx
  00018	74 19		 je	 SHORT $LN1@SetEndFocu

; 541  : 			m_pGroup->AttachEffect( szEndFocusEffect, NULL );

  0001a	6a 01		 push	 1
  0001c	ff 35 00 00 00
	00		 push	 DWORD PTR __imp_?VEC3_ZERO@ioMath@@2UD3DXVECTOR3@@A
  00022	ff 35 00 00 00
	00		 push	 DWORD PTR __imp_?QUAT_IDENTITY@ioMath@@2UD3DXQUATERNION@@A
  00028	6a 00		 push	 0
  0002a	ff 75 08	 push	 DWORD PTR _szEndFocusEffect$[ebp]
  0002d	ff 15 00 00 00
	00		 call	 DWORD PTR __imp_?AttachEffect@ioEntityGroup@@QAEPAVioEffect@@ABVioHashString@@PAVioEntityEvent@@ABUD3DXQUATERNION@@ABUD3DXVECTOR3@@_N@Z
$LN1@SetEndFocu:
  00033	5e		 pop	 esi

; 542  : 	}
; 543  : }

  00034	5d		 pop	 ebp
  00035	c2 04 00	 ret	 4
?SetEndFocusEffect@ioSymbolStruct@@QAEXABVioHashString@@@Z ENDP ; ioSymbolStruct::SetEndFocusEffect
_TEXT	ENDS
PUBLIC	__real@4f800000
PUBLIC	__$ArrayPad$
PUBLIC	?ProcessWoundedState@ioSymbolStruct@@IAEXXZ	; ioSymbolStruct::ProcessWoundedState
EXTRN	___security_cookie:DWORD
EXTRN	@__security_check_cookie@4:PROC
;	COMDAT __real@4f800000
; File d:\lost saga for developer\youtube\tutorial\source\src\lsclient\stdafx.h
CONST	SEGMENT
__real@4f800000 DD 04f800000r			; 4.29497e+009
; Function compile flags: /Ogsp
; File d:\lost saga for developer\youtube\tutorial\source\src\lsclient\iosymbolstruct.cpp
CONST	ENDS
;	COMDAT ?ProcessWoundedState@ioSymbolStruct@@IAEXXZ
_TEXT	SEGMENT
tv225 = -20						; size = 4
tv220 = -20						; size = 4
tv217 = -20						; size = 4
tv202 = -20						; size = 4
tv195 = -20						; size = 4
_vShakePos$530739 = -16					; size = 12
__$ArrayPad$ = -4					; size = 4
?ProcessWoundedState@ioSymbolStruct@@IAEXXZ PROC	; ioSymbolStruct::ProcessWoundedState, COMDAT
; _this$ = ecx

; 546  : {

  00000	55		 push	 ebp
  00001	8b ec		 mov	 ebp, esp
  00003	83 ec 14	 sub	 esp, 20			; 00000014H
  00006	a1 00 00 00 00	 mov	 eax, DWORD PTR ___security_cookie
  0000b	33 c5		 xor	 eax, ebp
  0000d	89 45 fc	 mov	 DWORD PTR __$ArrayPad$[ebp], eax
  00010	53		 push	 ebx
  00011	8b d9		 mov	 ebx, ecx

; 547  : 	if( m_State != SS_WOUNDED )	return;

  00013	83 bb cc 01 00
	00 01		 cmp	 DWORD PTR [ebx+460], 1
  0001a	0f 85 e3 00 00
	00		 jne	 $LN3@ProcessWou

; 548  : 
; 549  : 	DWORD dwCurTime = FRAMEGETTIME();

  00020	56		 push	 esi
  00021	ff 15 00 00 00
	00		 call	 DWORD PTR __imp_?GetSingleton@ioFrameTimer@@SAAAV1@XZ
  00027	8b c8		 mov	 ecx, eax
  00029	ff 15 00 00 00
	00		 call	 DWORD PTR __imp_?GetLoopSec@ioFrameTimer@@QBEKXZ
  0002f	8b c8		 mov	 ecx, eax

; 550  : 	if( m_dwWoundedSetTime + FLOAT100 < dwCurTime )

  00031	b8 64 00 00 00	 mov	 eax, 100		; 00000064H
  00036	89 45 ec	 mov	 DWORD PTR tv225[ebp], eax
  00039	db 45 ec	 fild	 DWORD PTR tv225[ebp]
  0003c	85 c0		 test	 eax, eax
  0003e	79 06		 jns	 SHORT $LN15@ProcessWou
  00040	d8 05 00 00 00
	00		 fadd	 DWORD PTR __real@4f800000
$LN15@ProcessWou:
  00046	8b 83 8c 05 00
	00		 mov	 eax, DWORD PTR [ebx+1420]
  0004c	db 83 8c 05 00
	00		 fild	 DWORD PTR [ebx+1420]
  00052	85 c0		 test	 eax, eax
  00054	79 06		 jns	 SHORT $LN16@ProcessWou
  00056	d8 05 00 00 00
	00		 fadd	 DWORD PTR __real@4f800000
$LN16@ProcessWou:
  0005c	89 4d ec	 mov	 DWORD PTR tv217[ebp], ecx
  0005f	de c1		 faddp	 ST(1), ST(0)
  00061	db 45 ec	 fild	 DWORD PTR tv217[ebp]
  00064	85 c9		 test	 ecx, ecx
  00066	79 06		 jns	 SHORT $LN17@ProcessWou
  00068	d8 05 00 00 00
	00		 fadd	 DWORD PTR __real@4f800000
$LN17@ProcessWou:
  0006e	df f1		 fcomip	 ST(1)
  00070	dd d8		 fstp	 ST(0)
  00072	76 25		 jbe	 SHORT $LN4@ProcessWou

; 551  : 	{
; 552  : 		SetWorldPosition( m_vBackUpPos );

  00074	8b 03		 mov	 eax, DWORD PTR [ebx]
  00076	8d 8b 74 05 00
	00		 lea	 ecx, DWORD PTR [ebx+1396]
  0007c	51		 push	 ecx
  0007d	8b cb		 mov	 ecx, ebx
  0007f	ff 50 44	 call	 DWORD PTR [eax+68]

; 553  : 
; 554  : 		m_State = SS_DELAY;

  00082	83 a3 cc 01 00
	00 00		 and	 DWORD PTR [ebx+460], 0

; 555  : 		m_dwWoundedSetTime = 0;

  00089	83 a3 8c 05 00
	00 00		 and	 DWORD PTR [ebx+1420], 0

; 556  : 		m_bShakeLeft = false;

  00090	c6 83 90 05 00
	00 00		 mov	 BYTE PTR [ebx+1424], 0

; 557  : 	}
; 558  : 	else

  00097	eb 69		 jmp	 SHORT $LN14@ProcessWou
$LN4@ProcessWou:

; 559  : 	{
; 560  : 		D3DXVECTOR3 vShakePos = m_vBackUpPos;
; 561  : 		if( m_bShakeLeft )

  00099	80 bb 90 05 00
	00 00		 cmp	 BYTE PTR [ebx+1424], 0
  000a0	57		 push	 edi
  000a1	8d b3 74 05 00
	00		 lea	 esi, DWORD PTR [ebx+1396]
  000a7	8d 7d f0	 lea	 edi, DWORD PTR _vShakePos$530739[ebp]
  000aa	a5		 movsd
  000ab	a5		 movsd
  000ac	a5		 movsd
  000ad	5f		 pop	 edi
  000ae	74 1a		 je	 SHORT $LN2@ProcessWou

; 562  : 			vShakePos.x += FLOAT10;

  000b0	b8 0a 00 00 00	 mov	 eax, 10			; 0000000aH
  000b5	89 45 ec	 mov	 DWORD PTR tv202[ebp], eax
  000b8	db 45 ec	 fild	 DWORD PTR tv202[ebp]
  000bb	85 c0		 test	 eax, eax
  000bd	79 06		 jns	 SHORT $LN18@ProcessWou
  000bf	d8 05 00 00 00
	00		 fadd	 DWORD PTR __real@4f800000
$LN18@ProcessWou:
  000c5	d8 45 f0	 fadd	 DWORD PTR _vShakePos$530739[ebp]

; 563  : 		else

  000c8	eb 1a		 jmp	 SHORT $LN20@ProcessWou
$LN2@ProcessWou:

; 564  : 			vShakePos.x -= FLOAT10;

  000ca	b8 0a 00 00 00	 mov	 eax, 10			; 0000000aH
  000cf	d9 45 f0	 fld	 DWORD PTR _vShakePos$530739[ebp]
  000d2	89 45 ec	 mov	 DWORD PTR tv195[ebp], eax
  000d5	db 45 ec	 fild	 DWORD PTR tv195[ebp]
  000d8	85 c0		 test	 eax, eax
  000da	79 06		 jns	 SHORT $LN19@ProcessWou
  000dc	d8 05 00 00 00
	00		 fadd	 DWORD PTR __real@4f800000
$LN19@ProcessWou:
  000e2	de e9		 fsubp	 ST(1), ST(0)
$LN20@ProcessWou:

; 565  : 
; 566  : 		SetWorldPosition( vShakePos );

  000e4	8b 03		 mov	 eax, DWORD PTR [ebx]
  000e6	d9 5d f0	 fstp	 DWORD PTR _vShakePos$530739[ebp]
  000e9	8d 4d f0	 lea	 ecx, DWORD PTR _vShakePos$530739[ebp]
  000ec	51		 push	 ecx
  000ed	8b cb		 mov	 ecx, ebx
  000ef	ff 50 44	 call	 DWORD PTR [eax+68]

; 567  : 		m_bShakeLeft = !m_bShakeLeft;

  000f2	80 bb 90 05 00
	00 00		 cmp	 BYTE PTR [ebx+1424], 0
  000f9	0f 94 c0	 sete	 al
  000fc	88 83 90 05 00
	00		 mov	 BYTE PTR [ebx+1424], al
$LN14@ProcessWou:
  00102	5e		 pop	 esi
$LN3@ProcessWou:

; 568  : 	}
; 569  : }

  00103	8b 4d fc	 mov	 ecx, DWORD PTR __$ArrayPad$[ebp]
  00106	33 cd		 xor	 ecx, ebp
  00108	5b		 pop	 ebx
  00109	e8 00 00 00 00	 call	 @__security_check_cookie@4
  0010e	c9		 leave
  0010f	c3		 ret	 0
?ProcessWoundedState@ioSymbolStruct@@IAEXXZ ENDP	; ioSymbolStruct::ProcessWoundedState
_TEXT	ENDS
PUBLIC	?InitResource@ioSymbolStruct@@QAEXXZ		; ioSymbolStruct::InitResource
EXTRN	?InitResource@ioGaugeHelper@@QAEXXZ:PROC	; ioGaugeHelper::InitResource
EXTRN	??0ioGaugeHelper@@QAE@XZ:PROC			; ioGaugeHelper::ioGaugeHelper
EXTRN	??2@YAPAXI@Z:PROC				; operator new
EXTRN	___CxxFrameHandler3:PROC
EXTRN	__EH_epilog3:PROC
EXTRN	__EH_prolog3:PROC
;	COMDAT xdata$x
xdata$x	SEGMENT
__unwindtable$?InitResource@ioSymbolStruct@@QAEXXZ DD 0ffffffffH
	DD	FLAT:__unwindfunclet$?InitResource@ioSymbolStruct@@QAEXXZ$0
__ehfuncinfo$?InitResource@ioSymbolStruct@@QAEXXZ DD 019930522H
	DD	01H
	DD	FLAT:__unwindtable$?InitResource@ioSymbolStruct@@QAEXXZ
	DD	2 DUP(00H)
	DD	2 DUP(00H)
	DD	00H
	DD	01H
; Function compile flags: /Ogsp
xdata$x	ENDS
;	COMDAT ?InitResource@ioSymbolStruct@@QAEXXZ
_TEXT	SEGMENT
$T534970 = -16						; size = 4
__$EHRec$ = -12						; size = 12
?InitResource@ioSymbolStruct@@QAEXXZ PROC		; ioSymbolStruct::InitResource, COMDAT
; _this$ = ecx

; 572  : {

  00000	6a 04		 push	 4
  00002	b8 00 00 00 00	 mov	 eax, __ehhandler$?InitResource@ioSymbolStruct@@QAEXXZ
  00007	e8 00 00 00 00	 call	 __EH_prolog3
  0000c	8b f1		 mov	 esi, ecx

; 573  : 	m_pGauge = new ioGaugeHelper;

  0000e	6a 34		 push	 52			; 00000034H
  00010	e8 00 00 00 00	 call	 ??2@YAPAXI@Z		; operator new
  00015	59		 pop	 ecx
  00016	8b c8		 mov	 ecx, eax
  00018	89 4d f0	 mov	 DWORD PTR $T534970[ebp], ecx
  0001b	33 c0		 xor	 eax, eax
  0001d	89 45 fc	 mov	 DWORD PTR __$EHRec$[ebp+8], eax
  00020	3b c8		 cmp	 ecx, eax
  00022	74 05		 je	 SHORT $LN3@InitResour
  00024	e8 00 00 00 00	 call	 ??0ioGaugeHelper@@QAE@XZ ; ioGaugeHelper::ioGaugeHelper
$LN3@InitResour:
  00029	83 4d fc ff	 or	 DWORD PTR __$EHRec$[ebp+8], -1

; 574  : 	m_pGauge->InitResource();

  0002d	8b c8		 mov	 ecx, eax
  0002f	89 86 d0 01 00
	00		 mov	 DWORD PTR [esi+464], eax
  00035	e8 00 00 00 00	 call	 ?InitResource@ioGaugeHelper@@QAEXXZ ; ioGaugeHelper::InitResource

; 575  : }

  0003a	e8 00 00 00 00	 call	 __EH_epilog3
  0003f	c3		 ret	 0
_TEXT	ENDS
;	COMDAT text$x
text$x	SEGMENT
__unwindfunclet$?InitResource@ioSymbolStruct@@QAEXXZ$0:
  00000	ff 75 f0	 push	 DWORD PTR $T534970[ebp]
  00003	e8 00 00 00 00	 call	 ??3@YAXPAX@Z		; operator delete
  00008	59		 pop	 ecx
  00009	c3		 ret	 0
__ehhandler$?InitResource@ioSymbolStruct@@QAEXXZ:
  0000a	8b 54 24 08	 mov	 edx, DWORD PTR [esp+8]
  0000e	8d 42 0c	 lea	 eax, DWORD PTR [edx+12]
  00011	8b 4a ec	 mov	 ecx, DWORD PTR [edx-20]
  00014	33 c8		 xor	 ecx, eax
  00016	e8 00 00 00 00	 call	 @__security_check_cookie@4
  0001b	b8 00 00 00 00	 mov	 eax, OFFSET __ehfuncinfo$?InitResource@ioSymbolStruct@@QAEXXZ
  00020	e9 00 00 00 00	 jmp	 ___CxxFrameHandler3
text$x	ENDS
?InitResource@ioSymbolStruct@@QAEXXZ ENDP		; ioSymbolStruct::InitResource
PUBLIC	?InitSymbolInfo@ioSymbolStruct@@QAEXHABUD3DXVECTOR3@@0@Z ; ioSymbolStruct::InitSymbolInfo
; Function compile flags: /Ogsp
;	COMDAT ?InitSymbolInfo@ioSymbolStruct@@QAEXHABUD3DXVECTOR3@@0@Z
_TEXT	SEGMENT
_iIndex$ = 8						; size = 4
_vPos$ = 12						; size = 4
_vScale$ = 16						; size = 4
?InitSymbolInfo@ioSymbolStruct@@QAEXHABUD3DXVECTOR3@@0@Z PROC ; ioSymbolStruct::InitSymbolInfo, COMDAT
; _this$ = ecx

; 623  : {

  00000	55		 push	 ebp
  00001	8b ec		 mov	 ebp, esp

; 624  : 	m_iArrayIndex = iIndex;

  00003	8b 45 08	 mov	 eax, DWORD PTR _iIndex$[ebp]
  00006	53		 push	 ebx
  00007	56		 push	 esi

; 625  : 
; 626  : 	SetWorldPosition( vPos );

  00008	8b 75 0c	 mov	 esi, DWORD PTR _vPos$[ebp]
  0000b	8b d9		 mov	 ebx, ecx
  0000d	57		 push	 edi
  0000e	89 83 c8 01 00
	00		 mov	 DWORD PTR [ebx+456], eax
  00014	8b 03		 mov	 eax, DWORD PTR [ebx]
  00016	56		 push	 esi
  00017	ff 50 44	 call	 DWORD PTR [eax+68]

; 627  : 	m_vDefaultPos = vPos;
; 628  : 	m_vBackUpPos = vPos;
; 629  : 	SetWorldScale( vScale );

  0001a	ff 75 10	 push	 DWORD PTR _vScale$[ebp]
  0001d	8b 03		 mov	 eax, DWORD PTR [ebx]
  0001f	8d bb 80 05 00
	00		 lea	 edi, DWORD PTR [ebx+1408]
  00025	a5		 movsd
  00026	a5		 movsd
  00027	a5		 movsd
  00028	8b 75 0c	 mov	 esi, DWORD PTR _vPos$[ebp]
  0002b	8d bb 74 05 00
	00		 lea	 edi, DWORD PTR [ebx+1396]
  00031	a5		 movsd
  00032	a5		 movsd
  00033	8b cb		 mov	 ecx, ebx
  00035	a5		 movsd
  00036	ff 50 4c	 call	 DWORD PTR [eax+76]
  00039	5f		 pop	 edi
  0003a	5e		 pop	 esi
  0003b	5b		 pop	 ebx

; 630  : }

  0003c	5d		 pop	 ebp
  0003d	c2 0c 00	 ret	 12			; 0000000cH
?InitSymbolInfo@ioSymbolStruct@@QAEXHABUD3DXVECTOR3@@0@Z ENDP ; ioSymbolStruct::InitSymbolInfo
_TEXT	ENDS
PUBLIC	?SetSymbolPriority@ioSymbolStruct@@QAEXH@Z	; ioSymbolStruct::SetSymbolPriority
; Function compile flags: /Ogsp
;	COMDAT ?SetSymbolPriority@ioSymbolStruct@@QAEXH@Z
_TEXT	SEGMENT
_iPriority$ = 8						; size = 4
?SetSymbolPriority@ioSymbolStruct@@QAEXH@Z PROC		; ioSymbolStruct::SetSymbolPriority, COMDAT
; _this$ = ecx

; 766  : {

  00000	55		 push	 ebp
  00001	8b ec		 mov	 ebp, esp

; 767  : 	m_iSymbolPriority = iPriority;

  00003	8b 45 08	 mov	 eax, DWORD PTR _iPriority$[ebp]
  00006	89 81 94 05 00
	00		 mov	 DWORD PTR [ecx+1428], eax

; 768  : }

  0000c	5d		 pop	 ebp
  0000d	c2 04 00	 ret	 4
?SetSymbolPriority@ioSymbolStruct@@QAEXH@Z ENDP		; ioSymbolStruct::SetSymbolPriority
_TEXT	ENDS
PUBLIC	?SetChangeEvent@ioSymbolStruct@@QAEXXZ		; ioSymbolStruct::SetChangeEvent
; Function compile flags: /Ogsp
;	COMDAT ?SetChangeEvent@ioSymbolStruct@@QAEXXZ
_TEXT	SEGMENT
?SetChangeEvent@ioSymbolStruct@@QAEXXZ PROC		; ioSymbolStruct::SetChangeEvent, COMDAT
; _this$ = ecx

; 845  : {

  00000	56		 push	 esi
  00001	8b f1		 mov	 esi, ecx

; 846  : 	m_dwSymbolChangeTime = FRAMEGETTIME();

  00003	ff 15 00 00 00
	00		 call	 DWORD PTR __imp_?GetSingleton@ioFrameTimer@@SAAAV1@XZ
  00009	8b c8		 mov	 ecx, eax
  0000b	ff 15 00 00 00
	00		 call	 DWORD PTR __imp_?GetLoopSec@ioFrameTimer@@QBEKXZ
  00011	89 86 9c 05 00
	00		 mov	 DWORD PTR [esi+1436], eax
  00017	5e		 pop	 esi

; 847  : }

  00018	c3		 ret	 0
?SetChangeEvent@ioSymbolStruct@@QAEXXZ ENDP		; ioSymbolStruct::SetChangeEvent
_TEXT	ENDS
PUBLIC	?GetEventGapTime@ioSymbolStruct@@QAEKXZ		; ioSymbolStruct::GetEventGapTime
; Function compile flags: /Ogsp
;	COMDAT ?GetEventGapTime@ioSymbolStruct@@QAEKXZ
_TEXT	SEGMENT
?GetEventGapTime@ioSymbolStruct@@QAEKXZ PROC		; ioSymbolStruct::GetEventGapTime, COMDAT
; _this$ = ecx

; 850  : {

  00000	56		 push	 esi

; 851  : 	DWORD dwGapTime = 0;
; 852  : 
; 853  : 	if( m_dwSymbolChangeTime > 0 )

  00001	8b b1 9c 05 00
	00		 mov	 esi, DWORD PTR [ecx+1436]
  00007	85 f6		 test	 esi, esi
  00009	74 12		 je	 SHORT $LN2@GetEventGa

; 857  : 
; 858  : 	return (FRAMEGETTIME() - dwGapTime );

  0000b	ff 15 00 00 00
	00		 call	 DWORD PTR __imp_?GetSingleton@ioFrameTimer@@SAAAV1@XZ
  00011	8b c8		 mov	 ecx, eax
  00013	ff 15 00 00 00
	00		 call	 DWORD PTR __imp_?GetLoopSec@ioFrameTimer@@QBEKXZ
  00019	2b c6		 sub	 eax, esi
  0001b	5e		 pop	 esi

; 859  : }

  0001c	c3		 ret	 0
$LN2@GetEventGa:

; 854  : 		dwGapTime = m_dwSymbolChangeTime;
; 855  : 	else
; 856  : 		return 0;

  0001d	33 c0		 xor	 eax, eax
  0001f	5e		 pop	 esi

; 859  : }

  00020	c3		 ret	 0
?GetEventGapTime@ioSymbolStruct@@QAEKXZ ENDP		; ioSymbolStruct::GetEventGapTime
_TEXT	ENDS
PUBLIC	??0D3DXVECTOR3@@QAE@XZ				; D3DXVECTOR3::D3DXVECTOR3
; Function compile flags: /Ogsp
; File c:\program files (x86)\microsoft directx sdk (june 2010)\include\d3dx9math.h
;	COMDAT ??0D3DXVECTOR3@@QAE@XZ
_TEXT	SEGMENT
??0D3DXVECTOR3@@QAE@XZ PROC				; D3DXVECTOR3::D3DXVECTOR3, COMDAT
; _this$ = ecx

; 165  :     D3DXVECTOR3() {};

  00000	8b c1		 mov	 eax, ecx
  00002	c3		 ret	 0
??0D3DXVECTOR3@@QAE@XZ ENDP				; D3DXVECTOR3::D3DXVECTOR3
_TEXT	ENDS
PUBLIC	??0D3DXVECTOR3@@QAE@MMM@Z			; D3DXVECTOR3::D3DXVECTOR3
; Function compile flags: /Ogsp
; File c:\program files (x86)\microsoft directx sdk (june 2010)\include\d3dx9math.inl
;	COMDAT ??0D3DXVECTOR3@@QAE@MMM@Z
_TEXT	SEGMENT
_fx$ = 8						; size = 4
_fy$ = 12						; size = 4
_fz$ = 16						; size = 4
??0D3DXVECTOR3@@QAE@MMM@Z PROC				; D3DXVECTOR3::D3DXVECTOR3, COMDAT
; _this$ = ecx

; 303  : {

  00000	55		 push	 ebp
  00001	8b ec		 mov	 ebp, esp

; 304  :     x = fx;

  00003	f3 0f 10 45 08	 movss	 xmm0, DWORD PTR _fx$[ebp]
  00008	8b c1		 mov	 eax, ecx
  0000a	f3 0f 11 00	 movss	 DWORD PTR [eax], xmm0

; 305  :     y = fy;

  0000e	f3 0f 10 45 0c	 movss	 xmm0, DWORD PTR _fy$[ebp]
  00013	f3 0f 11 40 04	 movss	 DWORD PTR [eax+4], xmm0

; 306  :     z = fz;

  00018	f3 0f 10 45 10	 movss	 xmm0, DWORD PTR _fz$[ebp]
  0001d	f3 0f 11 40 08	 movss	 DWORD PTR [eax+8], xmm0

; 307  : }

  00022	5d		 pop	 ebp
  00023	c2 0c 00	 ret	 12			; 0000000cH
??0D3DXVECTOR3@@QAE@MMM@Z ENDP				; D3DXVECTOR3::D3DXVECTOR3
_TEXT	ENDS
PUBLIC	??HD3DXVECTOR3@@QBE?AU0@ABU0@@Z			; D3DXVECTOR3::operator+
; Function compile flags: /Ogsp
;	COMDAT ??HD3DXVECTOR3@@QBE?AU0@ABU0@@Z
_TEXT	SEGMENT
___$ReturnUdt$ = 8					; size = 4
_v$ = 12						; size = 4
??HD3DXVECTOR3@@QBE?AU0@ABU0@@Z PROC			; D3DXVECTOR3::operator+, COMDAT
; _this$ = ecx

; 380  : {

  00000	55		 push	 ebp
  00001	8b ec		 mov	 ebp, esp

; 381  :     return D3DXVECTOR3(x + v.x, y + v.y, z + v.z);

  00003	8b 55 0c	 mov	 edx, DWORD PTR _v$[ebp]
  00006	f3 0f 10 02	 movss	 xmm0, DWORD PTR [edx]
  0000a	f3 0f 10 09	 movss	 xmm1, DWORD PTR [ecx]
  0000e	8b 45 08	 mov	 eax, DWORD PTR ___$ReturnUdt$[ebp]
  00011	0f 5a c0	 cvtps2pd xmm0, xmm0
  00014	0f 5a c9	 cvtps2pd xmm1, xmm1
  00017	f2 0f 58 c1	 addsd	 xmm0, xmm1
  0001b	f3 0f 10 49 04	 movss	 xmm1, DWORD PTR [ecx+4]
  00020	66 0f 5a c0	 cvtpd2ps xmm0, xmm0
  00024	f3 0f 11 00	 movss	 DWORD PTR [eax], xmm0
  00028	f3 0f 10 42 04	 movss	 xmm0, DWORD PTR [edx+4]
  0002d	0f 5a c0	 cvtps2pd xmm0, xmm0
  00030	0f 5a c9	 cvtps2pd xmm1, xmm1
  00033	f2 0f 58 c1	 addsd	 xmm0, xmm1
  00037	f3 0f 10 49 08	 movss	 xmm1, DWORD PTR [ecx+8]
  0003c	66 0f 5a c0	 cvtpd2ps xmm0, xmm0
  00040	f3 0f 11 40 04	 movss	 DWORD PTR [eax+4], xmm0
  00045	f3 0f 10 42 08	 movss	 xmm0, DWORD PTR [edx+8]
  0004a	0f 5a c0	 cvtps2pd xmm0, xmm0
  0004d	0f 5a c9	 cvtps2pd xmm1, xmm1
  00050	f2 0f 58 c1	 addsd	 xmm0, xmm1
  00054	66 0f 5a c0	 cvtpd2ps xmm0, xmm0
  00058	f3 0f 11 40 08	 movss	 DWORD PTR [eax+8], xmm0

; 382  : }

  0005d	5d		 pop	 ebp
  0005e	c2 08 00	 ret	 8
??HD3DXVECTOR3@@QBE?AU0@ABU0@@Z ENDP			; D3DXVECTOR3::operator+
_TEXT	ENDS
PUBLIC	??GD3DXVECTOR3@@QBE?AU0@ABU0@@Z			; D3DXVECTOR3::operator-
; Function compile flags: /Ogsp
;	COMDAT ??GD3DXVECTOR3@@QBE?AU0@ABU0@@Z
_TEXT	SEGMENT
___$ReturnUdt$ = 8					; size = 4
_v$ = 12						; size = 4
??GD3DXVECTOR3@@QBE?AU0@ABU0@@Z PROC			; D3DXVECTOR3::operator-, COMDAT
; _this$ = ecx

; 386  : {

  00000	55		 push	 ebp
  00001	8b ec		 mov	 ebp, esp

; 387  :     return D3DXVECTOR3(x - v.x, y - v.y, z - v.z);

  00003	8b 55 0c	 mov	 edx, DWORD PTR _v$[ebp]
  00006	f3 0f 10 01	 movss	 xmm0, DWORD PTR [ecx]
  0000a	f3 0f 10 0a	 movss	 xmm1, DWORD PTR [edx]
  0000e	8b 45 08	 mov	 eax, DWORD PTR ___$ReturnUdt$[ebp]
  00011	0f 5a c0	 cvtps2pd xmm0, xmm0
  00014	0f 5a c9	 cvtps2pd xmm1, xmm1
  00017	f2 0f 5c c1	 subsd	 xmm0, xmm1
  0001b	f3 0f 10 4a 04	 movss	 xmm1, DWORD PTR [edx+4]
  00020	66 0f 5a c0	 cvtpd2ps xmm0, xmm0
  00024	f3 0f 11 00	 movss	 DWORD PTR [eax], xmm0
  00028	f3 0f 10 41 04	 movss	 xmm0, DWORD PTR [ecx+4]
  0002d	0f 5a c0	 cvtps2pd xmm0, xmm0
  00030	0f 5a c9	 cvtps2pd xmm1, xmm1
  00033	f2 0f 5c c1	 subsd	 xmm0, xmm1
  00037	f3 0f 10 4a 08	 movss	 xmm1, DWORD PTR [edx+8]
  0003c	66 0f 5a c0	 cvtpd2ps xmm0, xmm0
  00040	f3 0f 11 40 04	 movss	 DWORD PTR [eax+4], xmm0
  00045	f3 0f 10 41 08	 movss	 xmm0, DWORD PTR [ecx+8]
  0004a	0f 5a c0	 cvtps2pd xmm0, xmm0
  0004d	0f 5a c9	 cvtps2pd xmm1, xmm1
  00050	f2 0f 5c c1	 subsd	 xmm0, xmm1
  00054	66 0f 5a c0	 cvtpd2ps xmm0, xmm0
  00058	f3 0f 11 40 08	 movss	 DWORD PTR [eax+8], xmm0

; 388  : }

  0005d	5d		 pop	 ebp
  0005e	c2 08 00	 ret	 8
??GD3DXVECTOR3@@QBE?AU0@ABU0@@Z ENDP			; D3DXVECTOR3::operator-
_TEXT	ENDS
PUBLIC	??DD3DXVECTOR3@@QBE?AU0@M@Z			; D3DXVECTOR3::operator*
; Function compile flags: /Ogsp
;	COMDAT ??DD3DXVECTOR3@@QBE?AU0@M@Z
_TEXT	SEGMENT
___$ReturnUdt$ = 8					; size = 4
_f$ = 12						; size = 4
??DD3DXVECTOR3@@QBE?AU0@M@Z PROC			; D3DXVECTOR3::operator*, COMDAT
; _this$ = ecx

; 392  : {

  00000	55		 push	 ebp
  00001	8b ec		 mov	 ebp, esp

; 393  :     return D3DXVECTOR3(x * f, y * f, z * f);

  00003	f3 0f 10 4d 0c	 movss	 xmm1, DWORD PTR _f$[ebp]
  00008	f3 0f 10 01	 movss	 xmm0, DWORD PTR [ecx]
  0000c	8b 45 08	 mov	 eax, DWORD PTR ___$ReturnUdt$[ebp]
  0000f	0f 5a c0	 cvtps2pd xmm0, xmm0
  00012	0f 5a c9	 cvtps2pd xmm1, xmm1
  00015	f2 0f 59 c1	 mulsd	 xmm0, xmm1
  00019	f3 0f 10 4d 0c	 movss	 xmm1, DWORD PTR _f$[ebp]
  0001e	66 0f 5a c0	 cvtpd2ps xmm0, xmm0
  00022	f3 0f 11 00	 movss	 DWORD PTR [eax], xmm0
  00026	f3 0f 10 41 04	 movss	 xmm0, DWORD PTR [ecx+4]
  0002b	0f 5a c0	 cvtps2pd xmm0, xmm0
  0002e	0f 5a c9	 cvtps2pd xmm1, xmm1
  00031	f2 0f 59 c1	 mulsd	 xmm0, xmm1
  00035	f3 0f 10 4d 0c	 movss	 xmm1, DWORD PTR _f$[ebp]
  0003a	66 0f 5a c0	 cvtpd2ps xmm0, xmm0
  0003e	f3 0f 11 40 04	 movss	 DWORD PTR [eax+4], xmm0
  00043	f3 0f 10 41 08	 movss	 xmm0, DWORD PTR [ecx+8]
  00048	0f 5a c0	 cvtps2pd xmm0, xmm0
  0004b	0f 5a c9	 cvtps2pd xmm1, xmm1
  0004e	f2 0f 59 c1	 mulsd	 xmm0, xmm1
  00052	66 0f 5a c0	 cvtpd2ps xmm0, xmm0
  00056	f3 0f 11 40 08	 movss	 DWORD PTR [eax+8], xmm0

; 394  : }

  0005b	5d		 pop	 ebp
  0005c	c2 08 00	 ret	 8
??DD3DXVECTOR3@@QBE?AU0@M@Z ENDP			; D3DXVECTOR3::operator*
_TEXT	ENDS
PUBLIC	??8D3DXVECTOR3@@QBEHABU0@@Z			; D3DXVECTOR3::operator==
; Function compile flags: /Ogsp
;	COMDAT ??8D3DXVECTOR3@@QBEHABU0@@Z
_TEXT	SEGMENT
_v$ = 8							; size = 4
??8D3DXVECTOR3@@QBEHABU0@@Z PROC			; D3DXVECTOR3::operator==, COMDAT
; _this$ = ecx

; 413  : {

  00000	55		 push	 ebp
  00001	8b ec		 mov	 ebp, esp

; 414  :     return x == v.x && y == v.y && z == v.z;

  00003	8b 55 08	 mov	 edx, DWORD PTR _v$[ebp]
  00006	f3 0f 10 01	 movss	 xmm0, DWORD PTR [ecx]
  0000a	f3 0f 10 0a	 movss	 xmm1, DWORD PTR [edx]
  0000e	0f 5a c0	 cvtps2pd xmm0, xmm0
  00011	0f 5a c9	 cvtps2pd xmm1, xmm1
  00014	66 0f 2e c1	 ucomisd xmm0, xmm1
  00018	9f		 lahf
  00019	f6 c4 44	 test	 ah, 68			; 00000044H
  0001c	7a 39		 jp	 SHORT $LN3@operator
  0001e	f3 0f 10 41 04	 movss	 xmm0, DWORD PTR [ecx+4]
  00023	f3 0f 10 4a 04	 movss	 xmm1, DWORD PTR [edx+4]
  00028	0f 5a c0	 cvtps2pd xmm0, xmm0
  0002b	0f 5a c9	 cvtps2pd xmm1, xmm1
  0002e	66 0f 2e c1	 ucomisd xmm0, xmm1
  00032	9f		 lahf
  00033	f6 c4 44	 test	 ah, 68			; 00000044H
  00036	7a 1f		 jp	 SHORT $LN3@operator
  00038	f3 0f 10 41 08	 movss	 xmm0, DWORD PTR [ecx+8]
  0003d	f3 0f 10 4a 08	 movss	 xmm1, DWORD PTR [edx+8]
  00042	0f 5a c0	 cvtps2pd xmm0, xmm0
  00045	0f 5a c9	 cvtps2pd xmm1, xmm1
  00048	66 0f 2e c1	 ucomisd xmm0, xmm1
  0004c	9f		 lahf
  0004d	f6 c4 44	 test	 ah, 68			; 00000044H
  00050	7a 05		 jp	 SHORT $LN3@operator
  00052	33 c0		 xor	 eax, eax
  00054	40		 inc	 eax
  00055	eb 02		 jmp	 SHORT $LN4@operator
$LN3@operator:
  00057	33 c0		 xor	 eax, eax
$LN4@operator:

; 415  : }

  00059	5d		 pop	 ebp
  0005a	c2 04 00	 ret	 4
??8D3DXVECTOR3@@QBEHABU0@@Z ENDP			; D3DXVECTOR3::operator==
_TEXT	ENDS
PUBLIC	?D3DXVec3LengthSq@@YAMPBUD3DXVECTOR3@@@Z	; D3DXVec3LengthSq
; Function compile flags: /Ogsp
;	COMDAT ?D3DXVec3LengthSq@@YAMPBUD3DXVECTOR3@@@Z
_TEXT	SEGMENT
tv165 = 8						; size = 4
_pV$ = 8						; size = 4
?D3DXVec3LengthSq@@YAMPBUD3DXVECTOR3@@@Z PROC		; D3DXVec3LengthSq, COMDAT

; 1725 : {

  00000	55		 push	 ebp
  00001	8b ec		 mov	 ebp, esp

; 1726 : #ifdef D3DX_DEBUG
; 1727 :     if(!pV)
; 1728 :         return 0.0f;
; 1729 : #endif
; 1730 : 
; 1731 :     return pV->x * pV->x + pV->y * pV->y + pV->z * pV->z;

  00003	8b 45 08	 mov	 eax, DWORD PTR _pV$[ebp]
  00006	d9 40 04	 fld	 DWORD PTR [eax+4]
  00009	d9 00		 fld	 DWORD PTR [eax]
  0000b	d9 40 08	 fld	 DWORD PTR [eax+8]
  0000e	d9 c1		 fld	 ST(1)
  00010	de ca		 fmulp	 ST(2), ST(0)
  00012	d9 c2		 fld	 ST(2)
  00014	de cb		 fmulp	 ST(3), ST(0)
  00016	d9 c9		 fxch	 ST(1)
  00018	de c2		 faddp	 ST(2), ST(0)
  0001a	d9 c0		 fld	 ST(0)
  0001c	de c9		 fmulp	 ST(1), ST(0)
  0001e	de c1		 faddp	 ST(1), ST(0)
  00020	d9 5d 08	 fstp	 DWORD PTR tv165[ebp]
  00023	d9 45 08	 fld	 DWORD PTR tv165[ebp]

; 1732 : }

  00026	5d		 pop	 ebp
  00027	c3		 ret	 0
?D3DXVec3LengthSq@@YAMPBUD3DXVECTOR3@@@Z ENDP		; D3DXVec3LengthSq
_TEXT	ENDS
PUBLIC	?_DECSTR@@YAXPADH@Z				; _DECSTR
; Function compile flags: /Ogsp
; File d:\lost saga for developer\youtube\tutorial\source\src\lsclient\stringprotect.h
;	COMDAT ?_DECSTR@@YAXPADH@Z
_TEXT	SEGMENT
_s$ = 8							; size = 4
_l$ = 12						; size = 4
?_DECSTR@@YAXPADH@Z PROC				; _DECSTR, COMDAT

; 40   : __forceinline void _DECSTR(char* s, int l){int i=0,l4=(l-1)/4,*p=(int*)s;s[l-1]=0;for(;i<l4;++i)*(p++)^=0xEAEBECED;for(i=l4*4;i<l-1;++i)s[i]^=0xED-i%4;}

  00000	55		 push	 ebp
  00001	8b ec		 mov	 ebp, esp
  00003	8b 4d 0c	 mov	 ecx, DWORD PTR _l$[ebp]
  00006	56		 push	 esi
  00007	8b 75 08	 mov	 esi, DWORD PTR _s$[ebp]
  0000a	57		 push	 edi
  0000b	8d 79 ff	 lea	 edi, DWORD PTR [ecx-1]
  0000e	8b c7		 mov	 eax, edi
  00010	99		 cdq
  00011	83 e2 03	 and	 edx, 3
  00014	03 c2		 add	 eax, edx
  00016	c1 f8 02	 sar	 eax, 2
  00019	8b d6		 mov	 edx, esi
  0001b	c6 44 0e ff 00	 mov	 BYTE PTR [esi+ecx-1], 0
  00020	85 c0		 test	 eax, eax
  00022	7e 0e		 jle	 SHORT $LN4@DECSTR
  00024	8b c8		 mov	 ecx, eax
$LL6@DECSTR:
  00026	81 32 ed ec eb
	ea		 xor	 DWORD PTR [edx], -353637139 ; eaebecedH
  0002c	83 c2 04	 add	 edx, 4
  0002f	49		 dec	 ecx
  00030	75 f4		 jne	 SHORT $LL6@DECSTR
$LN4@DECSTR:
  00032	c1 e0 02	 shl	 eax, 2
  00035	eb 17		 jmp	 SHORT $LN14@DECSTR
$LL3@DECSTR:
  00037	8b c8		 mov	 ecx, eax
  00039	81 e1 03 00 00
	80		 and	 ecx, -2147483645	; 80000003H
  0003f	79 05		 jns	 SHORT $LN13@DECSTR
  00041	49		 dec	 ecx
  00042	83 c9 fc	 or	 ecx, -4			; fffffffcH
  00045	41		 inc	 ecx
$LN13@DECSTR:
  00046	b2 ed		 mov	 dl, -19			; ffffffedH
  00048	2a d1		 sub	 dl, cl
  0004a	30 14 30	 xor	 BYTE PTR [eax+esi], dl
  0004d	40		 inc	 eax
$LN14@DECSTR:
  0004e	3b c7		 cmp	 eax, edi
  00050	7c e5		 jl	 SHORT $LL3@DECSTR
  00052	5f		 pop	 edi
  00053	5e		 pop	 esi
  00054	5d		 pop	 ebp
  00055	c3		 ret	 0
?_DECSTR@@YAXPADH@Z ENDP				; _DECSTR
_TEXT	ENDS
PUBLIC	?NoUIModeHPShow@Setting@@SA_NXZ			; Setting::NoUIModeHPShow
EXTRN	?m_Option@Setting@@1USettingOption@@A:BYTE	; Setting::m_Option
; Function compile flags: /Ogsp
; File d:\lost saga for developer\youtube\tutorial\source\src\lsclient\setting.h
;	COMDAT ?NoUIModeHPShow@Setting@@SA_NXZ
_TEXT	SEGMENT
?NoUIModeHPShow@Setting@@SA_NXZ PROC			; Setting::NoUIModeHPShow, COMDAT

; 362  : 	static bool NoUIModeHPShow(){ return m_Option.m_bNoUIModeHPShow; }

  00000	a0 6b 00 00 00	 mov	 al, BYTE PTR ?m_Option@Setting@@1USettingOption@@A+107
  00005	c3		 ret	 0
?NoUIModeHPShow@Setting@@SA_NXZ ENDP			; Setting::NoUIModeHPShow
_TEXT	ENDS
PUBLIC	?CheckWeaponBySkill@ioWeapon@@QBE_NXZ		; ioWeapon::CheckWeaponBySkill
; Function compile flags: /Ogsp
; File d:\lost saga for developer\youtube\tutorial\source\src\lsclient\ioweapon.h
;	COMDAT ?CheckWeaponBySkill@ioWeapon@@QBE_NXZ
_TEXT	SEGMENT
?CheckWeaponBySkill@ioWeapon@@QBE_NXZ PROC		; ioWeapon::CheckWeaponBySkill, COMDAT
; _this$ = ecx

; 484  : 	inline bool CheckWeaponBySkill() const { return m_bUseSkill; }

  00000	8a 81 7e 05 00
	00		 mov	 al, BYTE PTR [ecx+1406]
  00006	c3		 ret	 0
?CheckWeaponBySkill@ioWeapon@@QBE_NXZ ENDP		; ioWeapon::CheckWeaponBySkill
_TEXT	ENDS
PUBLIC	?IsGameOwnerWeapon@ioWeapon@@QBE_NXZ		; ioWeapon::IsGameOwnerWeapon
; Function compile flags: /Ogsp
;	COMDAT ?IsGameOwnerWeapon@ioWeapon@@QBE_NXZ
_TEXT	SEGMENT
?IsGameOwnerWeapon@ioWeapon@@QBE_NXZ PROC		; ioWeapon::IsGameOwnerWeapon, COMDAT
; _this$ = ecx

; 532  : 	inline bool IsGameOwnerWeapon() const { return m_bGameOwnerWeapon; }

  00000	8a 81 80 05 00
	00		 mov	 al, BYTE PTR [ecx+1408]
  00006	c3		 ret	 0
?IsGameOwnerWeapon@ioWeapon@@QBE_NXZ ENDP		; ioWeapon::IsGameOwnerWeapon
_TEXT	ENDS
PUBLIC	?GetWeaponIndex@ioWeapon@@QBEKXZ		; ioWeapon::GetWeaponIndex
; Function compile flags: /Ogsp
;	COMDAT ?GetWeaponIndex@ioWeapon@@QBEKXZ
_TEXT	SEGMENT
?GetWeaponIndex@ioWeapon@@QBEKXZ PROC			; ioWeapon::GetWeaponIndex, COMDAT
; _this$ = ecx

; 536  : 	inline DWORD GetWeaponIndex() const { return m_dwWeaponIdx; }

  00000	8b 81 b8 04 00
	00		 mov	 eax, DWORD PTR [ecx+1208]
  00006	c3		 ret	 0
?GetWeaponIndex@ioWeapon@@QBEKXZ ENDP			; ioWeapon::GetWeaponIndex
_TEXT	ENDS
PUBLIC	?GetOwnerName@ioWeapon@@QBEABVioHashString@@XZ	; ioWeapon::GetOwnerName
; Function compile flags: /Ogsp
;	COMDAT ?GetOwnerName@ioWeapon@@QBEABVioHashString@@XZ
_TEXT	SEGMENT
?GetOwnerName@ioWeapon@@QBEABVioHashString@@XZ PROC	; ioWeapon::GetOwnerName, COMDAT
; _this$ = ecx

; 636  : 	inline const ioHashString& GetOwnerName() const { return m_OwnerName; }

  00000	8d 41 10	 lea	 eax, DWORD PTR [ecx+16]
  00003	c3		 ret	 0
?GetOwnerName@ioWeapon@@QBEABVioHashString@@XZ ENDP	; ioWeapon::GetOwnerName
_TEXT	ENDS
PUBLIC	?GetWeaponByDummyChar@ioWeapon@@QAE?BHXZ	; ioWeapon::GetWeaponByDummyChar
; Function compile flags: /Ogsp
;	COMDAT ?GetWeaponByDummyChar@ioWeapon@@QAE?BHXZ
_TEXT	SEGMENT
?GetWeaponByDummyChar@ioWeapon@@QAE?BHXZ PROC		; ioWeapon::GetWeaponByDummyChar, COMDAT
; _this$ = ecx

; 638  : 	inline const int GetWeaponByDummyChar() { return m_iDummyIndex; }

  00000	8b 81 98 05 00
	00		 mov	 eax, DWORD PTR [ecx+1432]
  00006	c3		 ret	 0
?GetWeaponByDummyChar@ioWeapon@@QAE?BHXZ ENDP		; ioWeapon::GetWeaponByDummyChar
_TEXT	ENDS
PUBLIC	?GetCreator@ioPlayMode@@QBEPAVioPlayStage@@XZ	; ioPlayMode::GetCreator
; Function compile flags: /Ogsp
; File d:\lost saga for developer\youtube\tutorial\source\src\lsclient\ioplaymode.h
;	COMDAT ?GetCreator@ioPlayMode@@QBEPAVioPlayStage@@XZ
_TEXT	SEGMENT
?GetCreator@ioPlayMode@@QBEPAVioPlayStage@@XZ PROC	; ioPlayMode::GetCreator, COMDAT
; _this$ = ecx

; 631  : 	inline ioPlayStage* GetCreator() const { return m_pCreator; }

  00000	8b 41 34	 mov	 eax, DWORD PTR [ecx+52]
  00003	c3		 ret	 0
?GetCreator@ioPlayMode@@QBEPAVioPlayStage@@XZ ENDP	; ioPlayMode::GetCreator
_TEXT	ENDS
PUBLIC	?GetModeState@ioPlayMode@@QBE?AW4ModeState@1@XZ	; ioPlayMode::GetModeState
; Function compile flags: /Ogsp
;	COMDAT ?GetModeState@ioPlayMode@@QBE?AW4ModeState@1@XZ
_TEXT	SEGMENT
?GetModeState@ioPlayMode@@QBE?AW4ModeState@1@XZ PROC	; ioPlayMode::GetModeState, COMDAT
; _this$ = ecx

; 632  : 	inline ModeState GetModeState() const { return m_ModeState; }

  00000	8b 41 38	 mov	 eax, DWORD PTR [ecx+56]
  00003	c3		 ret	 0
?GetModeState@ioPlayMode@@QBE?AW4ModeState@1@XZ ENDP	; ioPlayMode::GetModeState
_TEXT	ENDS
PUBLIC	?IsNoneUIMode@ioSP2GUIManager@@QBE_NXZ		; ioSP2GUIManager::IsNoneUIMode
; Function compile flags: /Ogsp
; File d:\lost saga for developer\youtube\tutorial\source\src\lsclient\gui\iosp2guimanager.h
;	COMDAT ?IsNoneUIMode@ioSP2GUIManager@@QBE_NXZ
_TEXT	SEGMENT
?IsNoneUIMode@ioSP2GUIManager@@QBE_NXZ PROC		; ioSP2GUIManager::IsNoneUIMode, COMDAT
; _this$ = ecx

; 237  : 	inline bool IsNoneUIMode() const { return m_bNoneUIMode; }

  00000	8a 81 e1 04 00
	00		 mov	 al, BYTE PTR [ecx+1249]
  00006	c3		 ret	 0
?IsNoneUIMode@ioSP2GUIManager@@QBE_NXZ ENDP		; ioSP2GUIManager::IsNoneUIMode
_TEXT	ENDS
PUBLIC	??_7?$CEncrypt@M@@6B@				; CEncrypt<float>::`vftable'
PUBLIC	??1?$CEncrypt@M@@UAE@XZ				; CEncrypt<float>::~CEncrypt<float>
PUBLIC	??_R4?$CEncrypt@M@@6B@				; CEncrypt<float>::`RTTI Complete Object Locator'
PUBLIC	??_R0?AV?$CEncrypt@M@@@8			; CEncrypt<float> `RTTI Type Descriptor'
PUBLIC	??_R3?$CEncrypt@M@@8				; CEncrypt<float>::`RTTI Class Hierarchy Descriptor'
PUBLIC	??_R2?$CEncrypt@M@@8				; CEncrypt<float>::`RTTI Base Class Array'
PUBLIC	??_R1A@?0A@EA@?$CEncrypt@M@@8			; CEncrypt<float>::`RTTI Base Class Descriptor at (0,-1,0,64)'
EXTRN	??1ccddaabb@@UAE@XZ:PROC			; ccddaabb::~ccddaabb
EXTRN	??_7type_info@@6B@:QWORD			; type_info::`vftable'
EXTRN	??_E?$CEncrypt@M@@UAEPAXI@Z:PROC		; CEncrypt<float>::`vector deleting destructor'
;	COMDAT ??_R1A@?0A@EA@?$CEncrypt@M@@8
; File d:\lost saga for developer\youtube\tutorial\source\src\lsclient\encryptvalue.h
rdata$r	SEGMENT
??_R1A@?0A@EA@?$CEncrypt@M@@8 DD FLAT:??_R0?AV?$CEncrypt@M@@@8 ; CEncrypt<float>::`RTTI Base Class Descriptor at (0,-1,0,64)'
	DD	00H
	DD	00H
	DD	0ffffffffH
	DD	00H
	DD	040H
	DD	FLAT:??_R3?$CEncrypt@M@@8
rdata$r	ENDS
;	COMDAT ??_R2?$CEncrypt@M@@8
rdata$r	SEGMENT
??_R2?$CEncrypt@M@@8 DD FLAT:??_R1A@?0A@EA@?$CEncrypt@M@@8 ; CEncrypt<float>::`RTTI Base Class Array'
rdata$r	ENDS
;	COMDAT ??_R3?$CEncrypt@M@@8
rdata$r	SEGMENT
??_R3?$CEncrypt@M@@8 DD 00H				; CEncrypt<float>::`RTTI Class Hierarchy Descriptor'
	DD	00H
	DD	01H
	DD	FLAT:??_R2?$CEncrypt@M@@8
rdata$r	ENDS
;	COMDAT ??_R0?AV?$CEncrypt@M@@@8
_DATA	SEGMENT
??_R0?AV?$CEncrypt@M@@@8 DD FLAT:??_7type_info@@6B@	; CEncrypt<float> `RTTI Type Descriptor'
	DD	00H
	DB	'.?AV?$CEncrypt@M@@', 00H
_DATA	ENDS
;	COMDAT ??_R4?$CEncrypt@M@@6B@
rdata$r	SEGMENT
??_R4?$CEncrypt@M@@6B@ DD 00H				; CEncrypt<float>::`RTTI Complete Object Locator'
	DD	00H
	DD	00H
	DD	FLAT:??_R0?AV?$CEncrypt@M@@@8
	DD	FLAT:??_R3?$CEncrypt@M@@8
rdata$r	ENDS
;	COMDAT ??_7?$CEncrypt@M@@6B@
CONST	SEGMENT
??_7?$CEncrypt@M@@6B@ DD FLAT:??_R4?$CEncrypt@M@@6B@	; CEncrypt<float>::`vftable'
	DD	FLAT:??_E?$CEncrypt@M@@UAEPAXI@Z
; Function compile flags: /Ogsp
CONST	ENDS
;	COMDAT ??1?$CEncrypt@M@@UAE@XZ
_TEXT	SEGMENT
??1?$CEncrypt@M@@UAE@XZ PROC				; CEncrypt<float>::~CEncrypt<float>, COMDAT
; _this$ = ecx

; 127  : 	{

  00000	c7 01 00 00 00
	00		 mov	 DWORD PTR [ecx], OFFSET ??_7?$CEncrypt@M@@6B@

; 128  : 	}

  00006	83 c1 0c	 add	 ecx, 12			; 0000000cH
  00009	e9 00 00 00 00	 jmp	 ??1ccddaabb@@UAE@XZ	; ccddaabb::~ccddaabb
??1?$CEncrypt@M@@UAE@XZ ENDP				; CEncrypt<float>::~CEncrypt<float>
_TEXT	ENDS
PUBLIC	??_7?$CEncrypt@K@@6B@				; CEncrypt<unsigned long>::`vftable'
PUBLIC	??1?$CEncrypt@K@@UAE@XZ				; CEncrypt<unsigned long>::~CEncrypt<unsigned long>
PUBLIC	??_R4?$CEncrypt@K@@6B@				; CEncrypt<unsigned long>::`RTTI Complete Object Locator'
PUBLIC	??_R0?AV?$CEncrypt@K@@@8			; CEncrypt<unsigned long> `RTTI Type Descriptor'
PUBLIC	??_R3?$CEncrypt@K@@8				; CEncrypt<unsigned long>::`RTTI Class Hierarchy Descriptor'
PUBLIC	??_R2?$CEncrypt@K@@8				; CEncrypt<unsigned long>::`RTTI Base Class Array'
PUBLIC	??_R1A@?0A@EA@?$CEncrypt@K@@8			; CEncrypt<unsigned long>::`RTTI Base Class Descriptor at (0,-1,0,64)'
EXTRN	??_E?$CEncrypt@K@@UAEPAXI@Z:PROC		; CEncrypt<unsigned long>::`vector deleting destructor'
;	COMDAT ??_R1A@?0A@EA@?$CEncrypt@K@@8
rdata$r	SEGMENT
??_R1A@?0A@EA@?$CEncrypt@K@@8 DD FLAT:??_R0?AV?$CEncrypt@K@@@8 ; CEncrypt<unsigned long>::`RTTI Base Class Descriptor at (0,-1,0,64)'
	DD	00H
	DD	00H
	DD	0ffffffffH
	DD	00H
	DD	040H
	DD	FLAT:??_R3?$CEncrypt@K@@8
rdata$r	ENDS
;	COMDAT ??_R2?$CEncrypt@K@@8
rdata$r	SEGMENT
??_R2?$CEncrypt@K@@8 DD FLAT:??_R1A@?0A@EA@?$CEncrypt@K@@8 ; CEncrypt<unsigned long>::`RTTI Base Class Array'
rdata$r	ENDS
;	COMDAT ??_R3?$CEncrypt@K@@8
rdata$r	SEGMENT
??_R3?$CEncrypt@K@@8 DD 00H				; CEncrypt<unsigned long>::`RTTI Class Hierarchy Descriptor'
	DD	00H
	DD	01H
	DD	FLAT:??_R2?$CEncrypt@K@@8
rdata$r	ENDS
;	COMDAT ??_R0?AV?$CEncrypt@K@@@8
_DATA	SEGMENT
??_R0?AV?$CEncrypt@K@@@8 DD FLAT:??_7type_info@@6B@	; CEncrypt<unsigned long> `RTTI Type Descriptor'
	DD	00H
	DB	'.?AV?$CEncrypt@K@@', 00H
_DATA	ENDS
;	COMDAT ??_R4?$CEncrypt@K@@6B@
rdata$r	SEGMENT
??_R4?$CEncrypt@K@@6B@ DD 00H				; CEncrypt<unsigned long>::`RTTI Complete Object Locator'
	DD	00H
	DD	00H
	DD	FLAT:??_R0?AV?$CEncrypt@K@@@8
	DD	FLAT:??_R3?$CEncrypt@K@@8
rdata$r	ENDS
;	COMDAT ??_7?$CEncrypt@K@@6B@
CONST	SEGMENT
??_7?$CEncrypt@K@@6B@ DD FLAT:??_R4?$CEncrypt@K@@6B@	; CEncrypt<unsigned long>::`vftable'
	DD	FLAT:??_E?$CEncrypt@K@@UAEPAXI@Z
; Function compile flags: /Ogsp
CONST	ENDS
;	COMDAT ??1?$CEncrypt@K@@UAE@XZ
_TEXT	SEGMENT
??1?$CEncrypt@K@@UAE@XZ PROC				; CEncrypt<unsigned long>::~CEncrypt<unsigned long>, COMDAT
; _this$ = ecx

; 127  : 	{

  00000	c7 01 00 00 00
	00		 mov	 DWORD PTR [ecx], OFFSET ??_7?$CEncrypt@K@@6B@

; 128  : 	}

  00006	83 c1 0c	 add	 ecx, 12			; 0000000cH
  00009	e9 00 00 00 00	 jmp	 ??1ccddaabb@@UAE@XZ	; ccddaabb::~ccddaabb
??1?$CEncrypt@K@@UAE@XZ ENDP				; CEncrypt<unsigned long>::~CEncrypt<unsigned long>
; Function compile flags: /Ogsp
_TEXT	ENDS
;	COMDAT ??_G?$CEncrypt@M@@UAEPAXI@Z
_TEXT	SEGMENT
___flags$ = 8						; size = 4
??_G?$CEncrypt@M@@UAEPAXI@Z PROC			; CEncrypt<float>::`scalar deleting destructor', COMDAT
; _this$ = ecx
  00000	55		 push	 ebp
  00001	8b ec		 mov	 ebp, esp
  00003	56		 push	 esi
  00004	8b f1		 mov	 esi, ecx
  00006	8d 4e 0c	 lea	 ecx, DWORD PTR [esi+12]
  00009	c7 06 00 00 00
	00		 mov	 DWORD PTR [esi], OFFSET ??_7?$CEncrypt@M@@6B@
  0000f	e8 00 00 00 00	 call	 ??1ccddaabb@@UAE@XZ	; ccddaabb::~ccddaabb
  00014	f6 45 08 01	 test	 BYTE PTR ___flags$[ebp], 1
  00018	74 07		 je	 SHORT $LN1@scalar@2
  0001a	56		 push	 esi
  0001b	e8 00 00 00 00	 call	 ??3@YAXPAX@Z		; operator delete
  00020	59		 pop	 ecx
$LN1@scalar@2:
  00021	8b c6		 mov	 eax, esi
  00023	5e		 pop	 esi
  00024	5d		 pop	 ebp
  00025	c2 04 00	 ret	 4
??_G?$CEncrypt@M@@UAEPAXI@Z ENDP			; CEncrypt<float>::`scalar deleting destructor'
; Function compile flags: /Ogsp
_TEXT	ENDS
;	COMDAT ??_G?$CEncrypt@K@@UAEPAXI@Z
_TEXT	SEGMENT
___flags$ = 8						; size = 4
??_G?$CEncrypt@K@@UAEPAXI@Z PROC			; CEncrypt<unsigned long>::`scalar deleting destructor', COMDAT
; _this$ = ecx
  00000	55		 push	 ebp
  00001	8b ec		 mov	 ebp, esp
  00003	56		 push	 esi
  00004	8b f1		 mov	 esi, ecx
  00006	8d 4e 0c	 lea	 ecx, DWORD PTR [esi+12]
  00009	c7 06 00 00 00
	00		 mov	 DWORD PTR [esi], OFFSET ??_7?$CEncrypt@K@@6B@
  0000f	e8 00 00 00 00	 call	 ??1ccddaabb@@UAE@XZ	; ccddaabb::~ccddaabb
  00014	f6 45 08 01	 test	 BYTE PTR ___flags$[ebp], 1
  00018	74 07		 je	 SHORT $LN1@scalar@3
  0001a	56		 push	 esi
  0001b	e8 00 00 00 00	 call	 ??3@YAXPAX@Z		; operator delete
  00020	59		 pop	 ecx
$LN1@scalar@3:
  00021	8b c6		 mov	 eax, esi
  00023	5e		 pop	 esi
  00024	5d		 pop	 ebp
  00025	c2 04 00	 ret	 4
??_G?$CEncrypt@K@@UAEPAXI@Z ENDP			; CEncrypt<unsigned long>::`scalar deleting destructor'
_TEXT	ENDS
PUBLIC	?EncryptValueToPool@?$CEncrypt@M@@AAEXPBD@Z	; CEncrypt<float>::EncryptValueToPool
EXTRN	?EncryptByte@ccddaabb@@QAEXPBDPADH@Z:PROC	; ccddaabb::EncryptByte
; Function compile flags: /Ogsp
;	COMDAT ?EncryptValueToPool@?$CEncrypt@M@@AAEXPBD@Z
_TEXT	SEGMENT
_value$ = 8						; size = 4
?EncryptValueToPool@?$CEncrypt@M@@AAEXPBD@Z PROC	; CEncrypt<float>::EncryptValueToPool, COMDAT
; _this$ = ecx

; 67   : 	{

  00000	55		 push	 ebp
  00001	8b ec		 mov	 ebp, esp

; 68   : 		m_RC5.EncryptByte( value, m_MemPool, max(m_ValueSize, DEFAULT_ENCRYPT) );

  00003	0f b7 41 06	 movzx	 eax, WORD PTR [ecx+6]
  00007	83 f8 04	 cmp	 eax, 4
  0000a	77 03		 ja	 SHORT $LN4@EncryptVal
  0000c	6a 04		 push	 4
  0000e	58		 pop	 eax
$LN4@EncryptVal:
  0000f	50		 push	 eax
  00010	8d 41 1c	 lea	 eax, DWORD PTR [ecx+28]
  00013	50		 push	 eax
  00014	ff 75 08	 push	 DWORD PTR _value$[ebp]
  00017	83 c1 0c	 add	 ecx, 12			; 0000000cH
  0001a	e8 00 00 00 00	 call	 ?EncryptByte@ccddaabb@@QAEXPBDPADH@Z ; ccddaabb::EncryptByte

; 69   : 		
; 70   : 	}

  0001f	5d		 pop	 ebp
  00020	c2 04 00	 ret	 4
?EncryptValueToPool@?$CEncrypt@M@@AAEXPBD@Z ENDP	; CEncrypt<float>::EncryptValueToPool
_TEXT	ENDS
PUBLIC	?Init@?$CEncrypt@M@@AAEXXZ			; CEncrypt<float>::Init
EXTRN	?Setup@ccddaabb@@QAEXPBDHH@Z:PROC		; ccddaabb::Setup
EXTRN	__imp__rand:PROC
EXTRN	__imp__timeGetTime@0:PROC
EXTRN	__imp__GetCurrentProcessId@0:PROC
; Function compile flags: /Ogsp
;	COMDAT ?Init@?$CEncrypt@M@@AAEXXZ
_TEXT	SEGMENT
_pid$ = -8						; size = 4
_tick$ = -4						; size = 4
?Init@?$CEncrypt@M@@AAEXXZ PROC				; CEncrypt<float>::Init, COMDAT
; _this$ = ecx

; 73   : 	{

  00000	55		 push	 ebp
  00001	8b ec		 mov	 ebp, esp
  00003	51		 push	 ecx
  00004	51		 push	 ecx
  00005	53		 push	 ebx
  00006	56		 push	 esi
  00007	57		 push	 edi
  00008	8b f1		 mov	 esi, ecx

; 74   : 		DWORD pid = GetCurrentProcessId();

  0000a	ff 15 00 00 00
	00		 call	 DWORD PTR __imp__GetCurrentProcessId@0
  00010	89 45 f8	 mov	 DWORD PTR _pid$[ebp], eax

; 75   : 		DWORD tick = timeGetTime();

  00013	ff 15 00 00 00
	00		 call	 DWORD PTR __imp__timeGetTime@0

; 76   : 		m_ValueSize    = sizeof(type);
; 77   : 		m_MemPoolPos   = (unsigned short)( rand()+pid+tick )%(MAX_MEM_POOL-m_ValueSize);

  00019	8b 3d 00 00 00
	00		 mov	 edi, DWORD PTR __imp__rand
  0001f	89 45 fc	 mov	 DWORD PTR _tick$[ebp], eax
  00022	6a 04		 push	 4
  00024	58		 pop	 eax
  00025	66 89 46 06	 mov	 WORD PTR [esi+6], ax
  00029	ff d7		 call	 edi
  0002b	03 45 f8	 add	 eax, DWORD PTR _pid$[ebp]
  0002e	0f b7 4e 06	 movzx	 ecx, WORD PTR [esi+6]
  00032	03 45 fc	 add	 eax, DWORD PTR _tick$[ebp]
  00035	6a 0c		 push	 12			; 0000000cH
  00037	0f b7 c0	 movzx	 eax, ax
  0003a	5b		 pop	 ebx
  0003b	99		 cdq
  0003c	2b d9		 sub	 ebx, ecx
  0003e	f7 fb		 idiv	 ebx
  00040	66 89 56 04	 mov	 WORD PTR [esi+4], dx

; 78   : 		m_EncryptSeed  = (char)( rand()+pid+tick )%256;

  00044	ff d7		 call	 edi
  00046	02 45 f8	 add	 al, BYTE PTR _pid$[ebp]
  00049	02 45 fc	 add	 al, BYTE PTR _tick$[ebp]
  0004c	0f be c0	 movsx	 eax, al
  0004f	25 ff 00 00 80	 and	 eax, -2147483393	; 800000ffH
  00054	79 07		 jns	 SHORT $LN8@Init
  00056	48		 dec	 eax
  00057	0d 00 ff ff ff	 or	 eax, -256		; ffffff00H
  0005c	40		 inc	 eax
$LN8@Init:
  0005d	88 46 08	 mov	 BYTE PTR [esi+8], al

; 79   : 
; 80   : 		for (int i = 0; i < MAX_MEM_POOL ; i++)

  00060	33 db		 xor	 ebx, ebx
$LL3@Init:

; 81   : 			m_MemPool[i] = (char)( rand()+pid+tick )%256; // 

  00062	ff d7		 call	 edi
  00064	02 45 f8	 add	 al, BYTE PTR _pid$[ebp]
  00067	02 45 fc	 add	 al, BYTE PTR _tick$[ebp]
  0006a	0f be c0	 movsx	 eax, al
  0006d	25 ff 00 00 80	 and	 eax, -2147483393	; 800000ffH
  00072	79 07		 jns	 SHORT $LN9@Init
  00074	48		 dec	 eax
  00075	0d 00 ff ff ff	 or	 eax, -256		; ffffff00H
  0007a	40		 inc	 eax
$LN9@Init:
  0007b	88 44 1e 1c	 mov	 BYTE PTR [esi+ebx+28], al
  0007f	43		 inc	 ebx
  00080	83 fb 0c	 cmp	 ebx, 12			; 0000000cH
  00083	7c dd		 jl	 SHORT $LL3@Init

; 82   : 
; 83   : 		//UJ 130913, : szKey  
; 84   : 		//char szKey[ccddaabb::KEY_SIZE];//="";
; 85   : 		//for (int i = 0; i < ccddaabb::KEY_SIZE  ; i++)
; 86   : 		//	szKey[i] = (char)( rand()+pid+tick )%256; // 
; 87   : 		m_RC5.Setup( NULL, pid, tick );

  00085	ff 75 fc	 push	 DWORD PTR _tick$[ebp]
  00088	8d 4e 0c	 lea	 ecx, DWORD PTR [esi+12]
  0008b	ff 75 f8	 push	 DWORD PTR _pid$[ebp]
  0008e	6a 00		 push	 0
  00090	e8 00 00 00 00	 call	 ?Setup@ccddaabb@@QAEXPBDHH@Z ; ccddaabb::Setup
  00095	5f		 pop	 edi
  00096	5e		 pop	 esi
  00097	5b		 pop	 ebx

; 88   : 
; 89   : #ifdef _NOTUSE
; 90   : 		m_value        = 0;
; 91   : 		EncryptValueToPool((char*)&m_value);
; 92   : 		Debug();
; 93   : #endif
; 94   : 	}

  00098	c9		 leave
  00099	c3		 ret	 0
?Init@?$CEncrypt@M@@AAEXXZ ENDP				; CEncrypt<float>::Init
_TEXT	ENDS
PUBLIC	?DecryptValueToPool@?$CEncrypt@M@@QAEXPAM@Z	; CEncrypt<float>::DecryptValueToPool
EXTRN	?DecryptByte@ccddaabb@@QBEXPBDPADH@Z:PROC	; ccddaabb::DecryptByte
; Function compile flags: /Ogsp
;	COMDAT ?DecryptValueToPool@?$CEncrypt@M@@QAEXPAM@Z
_TEXT	SEGMENT
_value$ = 8						; size = 4
?DecryptValueToPool@?$CEncrypt@M@@QAEXPAM@Z PROC	; CEncrypt<float>::DecryptValueToPool, COMDAT
; _this$ = ecx

; 1648 : 	{

  00000	55		 push	 ebp
  00001	8b ec		 mov	 ebp, esp
  00003	56		 push	 esi

; 1649 : 		m_RC5.DecryptByte( m_MemPool, m_TempMem, 4 );

  00004	8d 71 28	 lea	 esi, DWORD PTR [ecx+40]
  00007	6a 04		 push	 4
  00009	8d 41 1c	 lea	 eax, DWORD PTR [ecx+28]
  0000c	56		 push	 esi
  0000d	50		 push	 eax
  0000e	83 c1 0c	 add	 ecx, 12			; 0000000cH
  00011	e8 00 00 00 00	 call	 ?DecryptByte@ccddaabb@@QBEXPBDPADH@Z ; ccddaabb::DecryptByte

; 1650 : 		*value = *((float*)m_TempMem);

  00016	d9 06		 fld	 DWORD PTR [esi]
  00018	8b 45 08	 mov	 eax, DWORD PTR _value$[ebp]
  0001b	d9 18		 fstp	 DWORD PTR [eax]
  0001d	5e		 pop	 esi

; 1651 : 	}

  0001e	5d		 pop	 ebp
  0001f	c2 04 00	 ret	 4
?DecryptValueToPool@?$CEncrypt@M@@QAEXPAM@Z ENDP	; CEncrypt<float>::DecryptValueToPool
_TEXT	ENDS
PUBLIC	?EncryptValueToPool@?$CEncrypt@K@@AAEXPBD@Z	; CEncrypt<unsigned long>::EncryptValueToPool
; Function compile flags: /Ogsp
;	COMDAT ?EncryptValueToPool@?$CEncrypt@K@@AAEXPBD@Z
_TEXT	SEGMENT
_value$ = 8						; size = 4
?EncryptValueToPool@?$CEncrypt@K@@AAEXPBD@Z PROC	; CEncrypt<unsigned long>::EncryptValueToPool, COMDAT
; _this$ = ecx

; 67   : 	{

  00000	55		 push	 ebp
  00001	8b ec		 mov	 ebp, esp

; 68   : 		m_RC5.EncryptByte( value, m_MemPool, max(m_ValueSize, DEFAULT_ENCRYPT) );

  00003	0f b7 41 06	 movzx	 eax, WORD PTR [ecx+6]
  00007	83 f8 04	 cmp	 eax, 4
  0000a	77 03		 ja	 SHORT $LN4@EncryptVal@2
  0000c	6a 04		 push	 4
  0000e	58		 pop	 eax
$LN4@EncryptVal@2:
  0000f	50		 push	 eax
  00010	8d 41 1c	 lea	 eax, DWORD PTR [ecx+28]
  00013	50		 push	 eax
  00014	ff 75 08	 push	 DWORD PTR _value$[ebp]
  00017	83 c1 0c	 add	 ecx, 12			; 0000000cH
  0001a	e8 00 00 00 00	 call	 ?EncryptByte@ccddaabb@@QAEXPBDPADH@Z ; ccddaabb::EncryptByte

; 69   : 		
; 70   : 	}

  0001f	5d		 pop	 ebp
  00020	c2 04 00	 ret	 4
?EncryptValueToPool@?$CEncrypt@K@@AAEXPBD@Z ENDP	; CEncrypt<unsigned long>::EncryptValueToPool
_TEXT	ENDS
PUBLIC	?Init@?$CEncrypt@K@@AAEXXZ			; CEncrypt<unsigned long>::Init
; Function compile flags: /Ogsp
;	COMDAT ?Init@?$CEncrypt@K@@AAEXXZ
_TEXT	SEGMENT
_pid$ = -8						; size = 4
_tick$ = -4						; size = 4
?Init@?$CEncrypt@K@@AAEXXZ PROC				; CEncrypt<unsigned long>::Init, COMDAT
; _this$ = ecx

; 73   : 	{

  00000	55		 push	 ebp
  00001	8b ec		 mov	 ebp, esp
  00003	51		 push	 ecx
  00004	51		 push	 ecx
  00005	53		 push	 ebx
  00006	56		 push	 esi
  00007	57		 push	 edi
  00008	8b f1		 mov	 esi, ecx

; 74   : 		DWORD pid = GetCurrentProcessId();

  0000a	ff 15 00 00 00
	00		 call	 DWORD PTR __imp__GetCurrentProcessId@0
  00010	89 45 f8	 mov	 DWORD PTR _pid$[ebp], eax

; 75   : 		DWORD tick = timeGetTime();

  00013	ff 15 00 00 00
	00		 call	 DWORD PTR __imp__timeGetTime@0

; 76   : 		m_ValueSize    = sizeof(type);
; 77   : 		m_MemPoolPos   = (unsigned short)( rand()+pid+tick )%(MAX_MEM_POOL-m_ValueSize);

  00019	8b 3d 00 00 00
	00		 mov	 edi, DWORD PTR __imp__rand
  0001f	89 45 fc	 mov	 DWORD PTR _tick$[ebp], eax
  00022	6a 04		 push	 4
  00024	58		 pop	 eax
  00025	66 89 46 06	 mov	 WORD PTR [esi+6], ax
  00029	ff d7		 call	 edi
  0002b	03 45 f8	 add	 eax, DWORD PTR _pid$[ebp]
  0002e	0f b7 4e 06	 movzx	 ecx, WORD PTR [esi+6]
  00032	03 45 fc	 add	 eax, DWORD PTR _tick$[ebp]
  00035	6a 0c		 push	 12			; 0000000cH
  00037	0f b7 c0	 movzx	 eax, ax
  0003a	5b		 pop	 ebx
  0003b	99		 cdq
  0003c	2b d9		 sub	 ebx, ecx
  0003e	f7 fb		 idiv	 ebx
  00040	66 89 56 04	 mov	 WORD PTR [esi+4], dx

; 78   : 		m_EncryptSeed  = (char)( rand()+pid+tick )%256;

  00044	ff d7		 call	 edi
  00046	02 45 f8	 add	 al, BYTE PTR _pid$[ebp]
  00049	02 45 fc	 add	 al, BYTE PTR _tick$[ebp]
  0004c	0f be c0	 movsx	 eax, al
  0004f	25 ff 00 00 80	 and	 eax, -2147483393	; 800000ffH
  00054	79 07		 jns	 SHORT $LN8@Init@2
  00056	48		 dec	 eax
  00057	0d 00 ff ff ff	 or	 eax, -256		; ffffff00H
  0005c	40		 inc	 eax
$LN8@Init@2:
  0005d	88 46 08	 mov	 BYTE PTR [esi+8], al

; 79   : 
; 80   : 		for (int i = 0; i < MAX_MEM_POOL ; i++)

  00060	33 db		 xor	 ebx, ebx
$LL3@Init@2:

; 81   : 			m_MemPool[i] = (char)( rand()+pid+tick )%256; // 

  00062	ff d7		 call	 edi
  00064	02 45 f8	 add	 al, BYTE PTR _pid$[ebp]
  00067	02 45 fc	 add	 al, BYTE PTR _tick$[ebp]
  0006a	0f be c0	 movsx	 eax, al
  0006d	25 ff 00 00 80	 and	 eax, -2147483393	; 800000ffH
  00072	79 07		 jns	 SHORT $LN9@Init@2
  00074	48		 dec	 eax
  00075	0d 00 ff ff ff	 or	 eax, -256		; ffffff00H
  0007a	40		 inc	 eax
$LN9@Init@2:
  0007b	88 44 1e 1c	 mov	 BYTE PTR [esi+ebx+28], al
  0007f	43		 inc	 ebx
  00080	83 fb 0c	 cmp	 ebx, 12			; 0000000cH
  00083	7c dd		 jl	 SHORT $LL3@Init@2

; 82   : 
; 83   : 		//UJ 130913, : szKey  
; 84   : 		//char szKey[ccddaabb::KEY_SIZE];//="";
; 85   : 		//for (int i = 0; i < ccddaabb::KEY_SIZE  ; i++)
; 86   : 		//	szKey[i] = (char)( rand()+pid+tick )%256; // 
; 87   : 		m_RC5.Setup( NULL, pid, tick );

  00085	ff 75 fc	 push	 DWORD PTR _tick$[ebp]
  00088	8d 4e 0c	 lea	 ecx, DWORD PTR [esi+12]
  0008b	ff 75 f8	 push	 DWORD PTR _pid$[ebp]
  0008e	6a 00		 push	 0
  00090	e8 00 00 00 00	 call	 ?Setup@ccddaabb@@QAEXPBDHH@Z ; ccddaabb::Setup
  00095	5f		 pop	 edi
  00096	5e		 pop	 esi
  00097	5b		 pop	 ebx

; 88   : 
; 89   : #ifdef _NOTUSE
; 90   : 		m_value        = 0;
; 91   : 		EncryptValueToPool((char*)&m_value);
; 92   : 		Debug();
; 93   : #endif
; 94   : 	}

  00098	c9		 leave
  00099	c3		 ret	 0
?Init@?$CEncrypt@K@@AAEXXZ ENDP				; CEncrypt<unsigned long>::Init
_TEXT	ENDS
PUBLIC	?DecryptValueToPool@?$CEncrypt@K@@QAEXPAK@Z	; CEncrypt<unsigned long>::DecryptValueToPool
; Function compile flags: /Ogsp
;	COMDAT ?DecryptValueToPool@?$CEncrypt@K@@QAEXPAK@Z
_TEXT	SEGMENT
_value$ = 8						; size = 4
?DecryptValueToPool@?$CEncrypt@K@@QAEXPAK@Z PROC	; CEncrypt<unsigned long>::DecryptValueToPool, COMDAT
; _this$ = ecx

; 1256 : 	{

  00000	55		 push	 ebp
  00001	8b ec		 mov	 ebp, esp
  00003	56		 push	 esi

; 1257 : 		m_RC5.DecryptByte( m_MemPool, m_TempMem, 4 );

  00004	8d 71 28	 lea	 esi, DWORD PTR [ecx+40]
  00007	6a 04		 push	 4
  00009	8d 41 1c	 lea	 eax, DWORD PTR [ecx+28]
  0000c	56		 push	 esi
  0000d	50		 push	 eax
  0000e	83 c1 0c	 add	 ecx, 12			; 0000000cH
  00011	e8 00 00 00 00	 call	 ?DecryptByte@ccddaabb@@QBEXPBDPADH@Z ; ccddaabb::DecryptByte

; 1258 : 		*value = *((DWORD*)m_TempMem);

  00016	8b 06		 mov	 eax, DWORD PTR [esi]
  00018	8b 4d 08	 mov	 ecx, DWORD PTR _value$[ebp]
  0001b	89 01		 mov	 DWORD PTR [ecx], eax
  0001d	5e		 pop	 esi

; 1259 : 	}

  0001e	5d		 pop	 ebp
  0001f	c2 04 00	 ret	 4
?DecryptValueToPool@?$CEncrypt@K@@QAEXPAK@Z ENDP	; CEncrypt<unsigned long>::DecryptValueToPool
_TEXT	ENDS
PUBLIC	?DecryptValueToPool@?$CEncrypt@_N@@QAEXPA_N@Z	; CEncrypt<bool>::DecryptValueToPool
; Function compile flags: /Ogsp
;	COMDAT ?DecryptValueToPool@?$CEncrypt@_N@@QAEXPA_N@Z
_TEXT	SEGMENT
_value$ = 8						; size = 4
?DecryptValueToPool@?$CEncrypt@_N@@QAEXPA_N@Z PROC	; CEncrypt<bool>::DecryptValueToPool, COMDAT
; _this$ = ecx

; 219  : 	{

  00000	55		 push	 ebp
  00001	8b ec		 mov	 ebp, esp
  00003	56		 push	 esi

; 220  : 		m_RC5.DecryptByte( m_MemPool, m_TempMem, 4 );

  00004	8d 71 28	 lea	 esi, DWORD PTR [ecx+40]
  00007	6a 04		 push	 4
  00009	8d 41 1c	 lea	 eax, DWORD PTR [ecx+28]
  0000c	56		 push	 esi
  0000d	50		 push	 eax
  0000e	83 c1 0c	 add	 ecx, 12			; 0000000cH
  00011	e8 00 00 00 00	 call	 ?DecryptByte@ccddaabb@@QBEXPBDPADH@Z ; ccddaabb::DecryptByte

; 221  : 		*value = *((bool*)m_TempMem);

  00016	8a 06		 mov	 al, BYTE PTR [esi]
  00018	8b 4d 08	 mov	 ecx, DWORD PTR _value$[ebp]
  0001b	88 01		 mov	 BYTE PTR [ecx], al
  0001d	5e		 pop	 esi

; 222  : 	}

  0001e	5d		 pop	 ebp
  0001f	c2 04 00	 ret	 4
?DecryptValueToPool@?$CEncrypt@_N@@QAEXPA_N@Z ENDP	; CEncrypt<bool>::DecryptValueToPool
_TEXT	ENDS
PUBLIC	?DecryptValueToPool@?$CEncrypt@H@@QAEXPAH@Z	; CEncrypt<int>::DecryptValueToPool
; Function compile flags: /Ogsp
;	COMDAT ?DecryptValueToPool@?$CEncrypt@H@@QAEXPAH@Z
_TEXT	SEGMENT
_value$ = 8						; size = 4
?DecryptValueToPool@?$CEncrypt@H@@QAEXPAH@Z PROC	; CEncrypt<int>::DecryptValueToPool, COMDAT
; _this$ = ecx

; 837  : 	{

  00000	55		 push	 ebp
  00001	8b ec		 mov	 ebp, esp
  00003	56		 push	 esi

; 838  : 		m_RC5.DecryptByte( m_MemPool, m_TempMem, 4 );

  00004	8d 71 28	 lea	 esi, DWORD PTR [ecx+40]
  00007	6a 04		 push	 4
  00009	8d 41 1c	 lea	 eax, DWORD PTR [ecx+28]
  0000c	56		 push	 esi
  0000d	50		 push	 eax
  0000e	83 c1 0c	 add	 ecx, 12			; 0000000cH
  00011	e8 00 00 00 00	 call	 ?DecryptByte@ccddaabb@@QBEXPBDPADH@Z ; ccddaabb::DecryptByte

; 839  : 		*value = *((int*)m_TempMem);

  00016	8b 06		 mov	 eax, DWORD PTR [esi]
  00018	8b 4d 08	 mov	 ecx, DWORD PTR _value$[ebp]
  0001b	89 01		 mov	 DWORD PTR [ecx], eax
  0001d	5e		 pop	 esi

; 840  : 	}

  0001e	5d		 pop	 ebp
  0001f	c2 04 00	 ret	 4
?DecryptValueToPool@?$CEncrypt@H@@QAEXPAH@Z ENDP	; CEncrypt<int>::DecryptValueToPool
_TEXT	ENDS
PUBLIC	?EncryptValueToPool@?$CEncrypt@W4TeamType@@@@AAEXPBD@Z ; CEncrypt<enum TeamType>::EncryptValueToPool
; Function compile flags: /Ogsp
;	COMDAT ?EncryptValueToPool@?$CEncrypt@W4TeamType@@@@AAEXPBD@Z
_TEXT	SEGMENT
_value$ = 8						; size = 4
?EncryptValueToPool@?$CEncrypt@W4TeamType@@@@AAEXPBD@Z PROC ; CEncrypt<enum TeamType>::EncryptValueToPool, COMDAT
; _this$ = ecx

; 67   : 	{

  00000	55		 push	 ebp
  00001	8b ec		 mov	 ebp, esp

; 68   : 		m_RC5.EncryptByte( value, m_MemPool, max(m_ValueSize, DEFAULT_ENCRYPT) );

  00003	0f b7 41 06	 movzx	 eax, WORD PTR [ecx+6]
  00007	83 f8 04	 cmp	 eax, 4
  0000a	77 03		 ja	 SHORT $LN4@EncryptVal@3
  0000c	6a 04		 push	 4
  0000e	58		 pop	 eax
$LN4@EncryptVal@3:
  0000f	50		 push	 eax
  00010	8d 41 1c	 lea	 eax, DWORD PTR [ecx+28]
  00013	50		 push	 eax
  00014	ff 75 08	 push	 DWORD PTR _value$[ebp]
  00017	83 c1 0c	 add	 ecx, 12			; 0000000cH
  0001a	e8 00 00 00 00	 call	 ?EncryptByte@ccddaabb@@QAEXPBDPADH@Z ; ccddaabb::EncryptByte

; 69   : 		
; 70   : 	}

  0001f	5d		 pop	 ebp
  00020	c2 04 00	 ret	 4
?EncryptValueToPool@?$CEncrypt@W4TeamType@@@@AAEXPBD@Z ENDP ; CEncrypt<enum TeamType>::EncryptValueToPool
_TEXT	ENDS
PUBLIC	?DecryptValueToPool@?$CEncrypt@W4TeamType@@@@QAEXPAW4TeamType@@@Z ; CEncrypt<enum TeamType>::DecryptValueToPool
; Function compile flags: /Ogsp
;	COMDAT ?DecryptValueToPool@?$CEncrypt@W4TeamType@@@@QAEXPAW4TeamType@@@Z
_TEXT	SEGMENT
_value$ = 8						; size = 4
?DecryptValueToPool@?$CEncrypt@W4TeamType@@@@QAEXPAW4TeamType@@@Z PROC ; CEncrypt<enum TeamType>::DecryptValueToPool, COMDAT
; _this$ = ecx

; 2959 : 	{

  00000	55		 push	 ebp
  00001	8b ec		 mov	 ebp, esp
  00003	56		 push	 esi

; 2960 : 		m_RC5.DecryptByte( m_MemPool, m_TempMem, sizeof(TeamType) );

  00004	8d 71 28	 lea	 esi, DWORD PTR [ecx+40]
  00007	6a 04		 push	 4
  00009	8d 41 1c	 lea	 eax, DWORD PTR [ecx+28]
  0000c	56		 push	 esi
  0000d	50		 push	 eax
  0000e	83 c1 0c	 add	 ecx, 12			; 0000000cH
  00011	e8 00 00 00 00	 call	 ?DecryptByte@ccddaabb@@QBEXPBDPADH@Z ; ccddaabb::DecryptByte

; 2961 : 		*value = *((TeamType*)m_TempMem);

  00016	8b 06		 mov	 eax, DWORD PTR [esi]
  00018	8b 4d 08	 mov	 ecx, DWORD PTR _value$[ebp]
  0001b	89 01		 mov	 DWORD PTR [ecx], eax
  0001d	5e		 pop	 esi

; 2962 : 	}

  0001e	5d		 pop	 ebp
  0001f	c2 04 00	 ret	 4
?DecryptValueToPool@?$CEncrypt@W4TeamType@@@@QAEXPAW4TeamType@@@Z ENDP ; CEncrypt<enum TeamType>::DecryptValueToPool
_TEXT	ENDS
PUBLIC	?DecryptValueToPool@?$CEncrypt@W4ModeType@@@@QAEXPAW4ModeType@@@Z ; CEncrypt<enum ModeType>::DecryptValueToPool
; Function compile flags: /Ogsp
;	COMDAT ?DecryptValueToPool@?$CEncrypt@W4ModeType@@@@QAEXPAW4ModeType@@@Z
_TEXT	SEGMENT
_value$ = 8						; size = 4
?DecryptValueToPool@?$CEncrypt@W4ModeType@@@@QAEXPAW4ModeType@@@Z PROC ; CEncrypt<enum ModeType>::DecryptValueToPool, COMDAT
; _this$ = ecx

; 3039 : 	{

  00000	55		 push	 ebp
  00001	8b ec		 mov	 ebp, esp
  00003	56		 push	 esi

; 3040 : 		m_RC5.DecryptByte( m_MemPool, m_TempMem, sizeof(ModeType) );

  00004	8d 71 28	 lea	 esi, DWORD PTR [ecx+40]
  00007	6a 04		 push	 4
  00009	8d 41 1c	 lea	 eax, DWORD PTR [ecx+28]
  0000c	56		 push	 esi
  0000d	50		 push	 eax
  0000e	83 c1 0c	 add	 ecx, 12			; 0000000cH
  00011	e8 00 00 00 00	 call	 ?DecryptByte@ccddaabb@@QBEXPBDPADH@Z ; ccddaabb::DecryptByte

; 3041 : 		*value = *((ModeType*)m_TempMem);

  00016	8b 06		 mov	 eax, DWORD PTR [esi]
  00018	8b 4d 08	 mov	 ecx, DWORD PTR _value$[ebp]
  0001b	89 01		 mov	 DWORD PTR [ecx], eax
  0001d	5e		 pop	 esi

; 3042 : 	}

  0001e	5d		 pop	 ebp
  0001f	c2 04 00	 ret	 4
?DecryptValueToPool@?$CEncrypt@W4ModeType@@@@QAEXPAW4ModeType@@@Z ENDP ; CEncrypt<enum ModeType>::DecryptValueToPool
_TEXT	ENDS
PUBLIC	??_7ioSymbolStruct@@6B@				; ioSymbolStruct::`vftable'
PUBLIC	??1ioSymbolStruct@@UAE@XZ			; ioSymbolStruct::~ioSymbolStruct
PUBLIC	??_R4ioSymbolStruct@@6B@			; ioSymbolStruct::`RTTI Complete Object Locator'
PUBLIC	??_R0?AVioSymbolStruct@@@8			; ioSymbolStruct `RTTI Type Descriptor'
PUBLIC	??_R3ioSymbolStruct@@8				; ioSymbolStruct::`RTTI Class Hierarchy Descriptor'
PUBLIC	??_R2ioSymbolStruct@@8				; ioSymbolStruct::`RTTI Base Class Array'
PUBLIC	??_R1A@?0A@EA@ioSymbolStruct@@8			; ioSymbolStruct::`RTTI Base Class Descriptor at (0,-1,0,64)'
PUBLIC	??_R1A@?0A@EA@ioPlayEntity@@8			; ioPlayEntity::`RTTI Base Class Descriptor at (0,-1,0,64)'
PUBLIC	??_R0?AVioPlayEntity@@@8			; ioPlayEntity `RTTI Type Descriptor'
PUBLIC	??_R3ioPlayEntity@@8				; ioPlayEntity::`RTTI Class Hierarchy Descriptor'
PUBLIC	??_R2ioPlayEntity@@8				; ioPlayEntity::`RTTI Base Class Array'
PUBLIC	??_R1A@?0A@EA@ioGameEntity@@8			; ioGameEntity::`RTTI Base Class Descriptor at (0,-1,0,64)'
PUBLIC	??_R0?AVioGameEntity@@@8			; ioGameEntity `RTTI Type Descriptor'
PUBLIC	??_R3ioGameEntity@@8				; ioGameEntity::`RTTI Class Hierarchy Descriptor'
PUBLIC	??_R2ioGameEntity@@8				; ioGameEntity::`RTTI Base Class Array'
PUBLIC	??_R1A@?0A@EA@ioEntityEvent@@8			; ioEntityEvent::`RTTI Base Class Descriptor at (0,-1,0,64)'
PUBLIC	??_R0?AVioEntityEvent@@@8			; ioEntityEvent `RTTI Type Descriptor'
PUBLIC	??_R3ioEntityEvent@@8				; ioEntityEvent::`RTTI Class Hierarchy Descriptor'
PUBLIC	??_R2ioEntityEvent@@8				; ioEntityEvent::`RTTI Base Class Array'
PUBLIC	?Update@ioSymbolStruct@@UAEXMKK@Z		; ioSymbolStruct::Update
PUBLIC	?NeedUpdateBottomHeight@ioGameEntity@@UAEXXZ	; ioGameEntity::NeedUpdateBottomHeight
PUBLIC	?ApplyWeapon@ioSymbolStruct@@UAE?AW4ApplyWeaponExp@@PAVioWeapon@@@Z ; ioSymbolStruct::ApplyWeapon
PUBLIC	?LoadProperty@ioSymbolStruct@@UAEXAAVioINILoader@@@Z ; ioSymbolStruct::LoadProperty
PUBLIC	?Revival@ioSymbolStruct@@UAEXXZ			; ioSymbolStruct::Revival
PUBLIC	?UpdateGauge@ioSymbolStruct@@UAEXXZ		; ioSymbolStruct::UpdateGauge
PUBLIC	?RenderGauge@ioSymbolStruct@@UAEXXZ		; ioSymbolStruct::RenderGauge
PUBLIC	?ProcessRecovery@ioSymbolStruct@@MAEXXZ		; ioSymbolStruct::ProcessRecovery
PUBLIC	?SetTeam@ioSymbolStruct@@UAEXW4TeamType@@@Z	; ioSymbolStruct::SetTeam
EXTRN	??1ioPlayEntity@@UAE@XZ:PROC			; ioPlayEntity::~ioPlayEntity
EXTRN	__imp_??1ioHashString@@QAE@XZ:PROC
EXTRN	?AddEntityEvent@ioEntityEvent@@UAEXPAVioEntity@@@Z:PROC ; ioEntityEvent::AddEntityEvent
EXTRN	??_EioSymbolStruct@@UAEPAXI@Z:PROC		; ioSymbolStruct::`vector deleting destructor'
EXTRN	?GetTypeID@ioPlayEntity@@UBEHXZ:PROC		; ioPlayEntity::GetTypeID
EXTRN	?IsNeedCheckMapCollision@ioGameEntity@@UBE_NXZ:PROC ; ioGameEntity::IsNeedCheckMapCollision
EXTRN	?IsAllWeaponDefence@ioGameEntity@@UBE_NXZ:PROC	; ioGameEntity::IsAllWeaponDefence
EXTRN	?HasEntity@ioGameEntity@@UAE_NABVioHashString@@@Z:PROC ; ioGameEntity::HasEntity
EXTRN	?AddEntity@ioGameEntity@@UAEPAVioEntity@@ABVioHashString@@@Z:PROC ; ioGameEntity::AddEntity
EXTRN	?DestroyEntity@ioGameEntity@@UAE_NABVioHashString@@@Z:PROC ; ioGameEntity::DestroyEntity
EXTRN	?GetEntity@ioGameEntity@@UAEPAVioEntity@@ABVioHashString@@@Z:PROC ; ioGameEntity::GetEntity
EXTRN	?UpdateBound@ioGameEntity@@MBEXXZ:PROC		; ioGameEntity::UpdateBound
EXTRN	?SetWorldPosition@ioGameEntity@@UAEXABUD3DXVECTOR3@@@Z:PROC ; ioGameEntity::SetWorldPosition
EXTRN	?SetWorldOrientation@ioGameEntity@@UAEXABUD3DXQUATERNION@@@Z:PROC ; ioGameEntity::SetWorldOrientation
EXTRN	?SetWorldScale@ioGameEntity@@UAEXABUD3DXVECTOR3@@@Z:PROC ; ioGameEntity::SetWorldScale
EXTRN	?Translate@ioGameEntity@@UAEXABUD3DXVECTOR3@@@Z:PROC ; ioGameEntity::Translate
EXTRN	?TranslateByConveyer@ioGameEntity@@UAEXABUD3DXVECTOR3@@@Z:PROC ; ioGameEntity::TranslateByConveyer
EXTRN	?TranslateByWorldEntity@ioGameEntity@@UAEXABUD3DXVECTOR3@@@Z:PROC ; ioGameEntity::TranslateByWorldEntity
EXTRN	?MapCollisionPushingTranslate@ioGameEntity@@UAEXABUD3DXVECTOR3@@@Z:PROC ; ioGameEntity::MapCollisionPushingTranslate
EXTRN	?DontMoveCollisionPushingTranslate@ioGameEntity@@UAEXPAV1@ABUD3DXVECTOR3@@@Z:PROC ; ioGameEntity::DontMoveCollisionPushingTranslate
EXTRN	?Rotate@ioGameEntity@@UAEXABUD3DXVECTOR3@@MW4TransformSpace@ioNode@@@Z:PROC ; ioGameEntity::Rotate
EXTRN	?Scale@ioGameEntity@@UAEXMMM@Z:PROC		; ioGameEntity::Scale
EXTRN	?Scale@ioGameEntity@@UAEXABUD3DXVECTOR3@@@Z:PROC ; ioGameEntity::Scale
EXTRN	?GetWorldPosition@ioGameEntity@@UBEABUD3DXVECTOR3@@XZ:PROC ; ioGameEntity::GetWorldPosition
EXTRN	?GetWorldOrientation@ioGameEntity@@UBEABUD3DXQUATERNION@@XZ:PROC ; ioGameEntity::GetWorldOrientation
EXTRN	?GetWorldScale@ioGameEntity@@UBEABUD3DXVECTOR3@@XZ:PROC ; ioGameEntity::GetWorldScale
EXTRN	?IsCollisionAvailableRange@ioPlayEntity@@UAE_NPAVioWeapon@@@Z:PROC ; ioPlayEntity::IsCollisionAvailableRange
EXTRN	?IsEntityCollisionSkipState@ioPlayEntity@@UBE_NPAVioGameEntity@@@Z:PROC ; ioPlayEntity::IsEntityCollisionSkipState
EXTRN	?IsCharCollisionSkipState@ioPlayEntity@@UBE_NW4TeamType@@H@Z:PROC ; ioPlayEntity::IsCharCollisionSkipState
EXTRN	?IsWoundedCollision@ioPlayEntity@@UBE_NABVioOrientBox@@PAUD3DXVECTOR3@@@Z:PROC ; ioPlayEntity::IsWoundedCollision
EXTRN	?GetAttackCollisionBox@ioPlayEntity@@UAE?AVioOrientBox@@W4AniCollisionType@@_N@Z:PROC ; ioPlayEntity::GetAttackCollisionBox
EXTRN	?CheckSphereDistance@ioPlayEntity@@UBE_NABUD3DXVECTOR3@@MAAM@Z:PROC ; ioPlayEntity::CheckSphereDistance
EXTRN	?CheckSpherePoint@ioPlayEntity@@UBE_NABUD3DXVECTOR3@@MAAU2@@Z:PROC ; ioPlayEntity::CheckSpherePoint
EXTRN	?CheckCylinderPoint@ioPlayEntity@@UBE_NABVioCylinder@@ABUD3DXVECTOR3@@AAU3@@Z:PROC ; ioPlayEntity::CheckCylinderPoint
EXTRN	?NotifyDontMoveCollisionPushingSkip@ioPlayEntity@@UAEXPAVioGameEntity@@@Z:PROC ; ioPlayEntity::NotifyDontMoveCollisionPushingSkip
EXTRN	?GetWorldEventReceiver@ioPlayEntity@@UAEPAVioWorldEventReceiver@@XZ:PROC ; ioPlayEntity::GetWorldEventReceiver
EXTRN	?FillMaxHP@ioPlayEntity@@UAEXXZ:PROC		; ioPlayEntity::FillMaxHP
EXTRN	?AddHeadDamageInfo@ioPlayEntity@@UAEXH_N@Z:PROC	; ioPlayEntity::AddHeadDamageInfo
EXTRN	?RenderHeadInfoList@ioPlayEntity@@UAEXHH@Z:PROC	; ioPlayEntity::RenderHeadInfoList
EXTRN	?UpdateHeadInfoList@ioPlayEntity@@MAEXK@Z:PROC	; ioPlayEntity::UpdateHeadInfoList
;	COMDAT ??_R2ioEntityEvent@@8
rdata$r	SEGMENT
??_R2ioEntityEvent@@8 DD FLAT:??_R1A@?0A@EA@ioEntityEvent@@8 ; ioEntityEvent::`RTTI Base Class Array'
rdata$r	ENDS
;	COMDAT ??_R3ioEntityEvent@@8
rdata$r	SEGMENT
??_R3ioEntityEvent@@8 DD 00H				; ioEntityEvent::`RTTI Class Hierarchy Descriptor'
	DD	00H
	DD	01H
	DD	FLAT:??_R2ioEntityEvent@@8
rdata$r	ENDS
;	COMDAT ??_R0?AVioEntityEvent@@@8
_DATA	SEGMENT
??_R0?AVioEntityEvent@@@8 DD FLAT:??_7type_info@@6B@	; ioEntityEvent `RTTI Type Descriptor'
	DD	00H
	DB	'.?AVioEntityEvent@@', 00H
_DATA	ENDS
;	COMDAT ??_R1A@?0A@EA@ioEntityEvent@@8
rdata$r	SEGMENT
??_R1A@?0A@EA@ioEntityEvent@@8 DD FLAT:??_R0?AVioEntityEvent@@@8 ; ioEntityEvent::`RTTI Base Class Descriptor at (0,-1,0,64)'
	DD	00H
	DD	00H
	DD	0ffffffffH
	DD	00H
	DD	040H
	DD	FLAT:??_R3ioEntityEvent@@8
rdata$r	ENDS
;	COMDAT ??_R2ioGameEntity@@8
rdata$r	SEGMENT
??_R2ioGameEntity@@8 DD FLAT:??_R1A@?0A@EA@ioGameEntity@@8 ; ioGameEntity::`RTTI Base Class Array'
	DD	FLAT:??_R1A@?0A@EA@ioEntityEvent@@8
rdata$r	ENDS
;	COMDAT ??_R3ioGameEntity@@8
rdata$r	SEGMENT
??_R3ioGameEntity@@8 DD 00H				; ioGameEntity::`RTTI Class Hierarchy Descriptor'
	DD	00H
	DD	02H
	DD	FLAT:??_R2ioGameEntity@@8
rdata$r	ENDS
;	COMDAT ??_R0?AVioGameEntity@@@8
_DATA	SEGMENT
??_R0?AVioGameEntity@@@8 DD FLAT:??_7type_info@@6B@	; ioGameEntity `RTTI Type Descriptor'
	DD	00H
	DB	'.?AVioGameEntity@@', 00H
_DATA	ENDS
;	COMDAT ??_R1A@?0A@EA@ioGameEntity@@8
rdata$r	SEGMENT
??_R1A@?0A@EA@ioGameEntity@@8 DD FLAT:??_R0?AVioGameEntity@@@8 ; ioGameEntity::`RTTI Base Class Descriptor at (0,-1,0,64)'
	DD	01H
	DD	00H
	DD	0ffffffffH
	DD	00H
	DD	040H
	DD	FLAT:??_R3ioGameEntity@@8
rdata$r	ENDS
;	COMDAT ??_R2ioPlayEntity@@8
rdata$r	SEGMENT
??_R2ioPlayEntity@@8 DD FLAT:??_R1A@?0A@EA@ioPlayEntity@@8 ; ioPlayEntity::`RTTI Base Class Array'
	DD	FLAT:??_R1A@?0A@EA@ioGameEntity@@8
	DD	FLAT:??_R1A@?0A@EA@ioEntityEvent@@8
rdata$r	ENDS
;	COMDAT ??_R3ioPlayEntity@@8
rdata$r	SEGMENT
??_R3ioPlayEntity@@8 DD 00H				; ioPlayEntity::`RTTI Class Hierarchy Descriptor'
	DD	00H
	DD	03H
	DD	FLAT:??_R2ioPlayEntity@@8
rdata$r	ENDS
;	COMDAT ??_R0?AVioPlayEntity@@@8
_DATA	SEGMENT
??_R0?AVioPlayEntity@@@8 DD FLAT:??_7type_info@@6B@	; ioPlayEntity `RTTI Type Descriptor'
	DD	00H
	DB	'.?AVioPlayEntity@@', 00H
_DATA	ENDS
;	COMDAT ??_R1A@?0A@EA@ioPlayEntity@@8
rdata$r	SEGMENT
??_R1A@?0A@EA@ioPlayEntity@@8 DD FLAT:??_R0?AVioPlayEntity@@@8 ; ioPlayEntity::`RTTI Base Class Descriptor at (0,-1,0,64)'
	DD	02H
	DD	00H
	DD	0ffffffffH
	DD	00H
	DD	040H
	DD	FLAT:??_R3ioPlayEntity@@8
rdata$r	ENDS
;	COMDAT ??_R1A@?0A@EA@ioSymbolStruct@@8
rdata$r	SEGMENT
??_R1A@?0A@EA@ioSymbolStruct@@8 DD FLAT:??_R0?AVioSymbolStruct@@@8 ; ioSymbolStruct::`RTTI Base Class Descriptor at (0,-1,0,64)'
	DD	03H
	DD	00H
	DD	0ffffffffH
	DD	00H
	DD	040H
	DD	FLAT:??_R3ioSymbolStruct@@8
rdata$r	ENDS
;	COMDAT ??_R2ioSymbolStruct@@8
rdata$r	SEGMENT
??_R2ioSymbolStruct@@8 DD FLAT:??_R1A@?0A@EA@ioSymbolStruct@@8 ; ioSymbolStruct::`RTTI Base Class Array'
	DD	FLAT:??_R1A@?0A@EA@ioPlayEntity@@8
	DD	FLAT:??_R1A@?0A@EA@ioGameEntity@@8
	DD	FLAT:??_R1A@?0A@EA@ioEntityEvent@@8
rdata$r	ENDS
;	COMDAT ??_R3ioSymbolStruct@@8
rdata$r	SEGMENT
??_R3ioSymbolStruct@@8 DD 00H				; ioSymbolStruct::`RTTI Class Hierarchy Descriptor'
	DD	00H
	DD	04H
	DD	FLAT:??_R2ioSymbolStruct@@8
rdata$r	ENDS
;	COMDAT ??_R0?AVioSymbolStruct@@@8
_DATA	SEGMENT
??_R0?AVioSymbolStruct@@@8 DD FLAT:??_7type_info@@6B@	; ioSymbolStruct `RTTI Type Descriptor'
	DD	00H
	DB	'.?AVioSymbolStruct@@', 00H
_DATA	ENDS
;	COMDAT ??_R4ioSymbolStruct@@6B@
rdata$r	SEGMENT
??_R4ioSymbolStruct@@6B@ DD 00H				; ioSymbolStruct::`RTTI Complete Object Locator'
	DD	00H
	DD	00H
	DD	FLAT:??_R0?AVioSymbolStruct@@@8
	DD	FLAT:??_R3ioSymbolStruct@@8
rdata$r	ENDS
;	COMDAT ??_7ioSymbolStruct@@6B@
CONST	SEGMENT
??_7ioSymbolStruct@@6B@ DD FLAT:??_R4ioSymbolStruct@@6B@ ; ioSymbolStruct::`vftable'
	DD	FLAT:?AddEntityEvent@ioEntityEvent@@UAEXPAVioEntity@@@Z
	DD	FLAT:??_EioSymbolStruct@@UAEPAXI@Z
	DD	FLAT:?Update@ioSymbolStruct@@UAEXMKK@Z
	DD	FLAT:?UpdateAfter@ioSymbolStruct@@UAEXM@Z
	DD	FLAT:?GetTypeID@ioPlayEntity@@UBEHXZ
	DD	FLAT:?IsNeedCheckMapCollision@ioGameEntity@@UBE_NXZ
	DD	FLAT:?IsMountAvailable@ioSymbolStruct@@UBE_NXZ
	DD	FLAT:?IsMountingAvailable@ioSymbolStruct@@UBE_NXZ
	DD	FLAT:?IsNowMountEnable@ioSymbolStruct@@UBE_NXZ
	DD	FLAT:?IsAllWeaponDefence@ioGameEntity@@UBE_NXZ
	DD	FLAT:?HasEntity@ioGameEntity@@UAE_NABVioHashString@@@Z
	DD	FLAT:?AddEntity@ioGameEntity@@UAEPAVioEntity@@ABVioHashString@@@Z
	DD	FLAT:?DestroyEntity@ioGameEntity@@UAE_NABVioHashString@@@Z
	DD	FLAT:?GetEntity@ioGameEntity@@UAEPAVioEntity@@ABVioHashString@@@Z
	DD	FLAT:?UpdateBound@ioGameEntity@@MBEXXZ
	DD	FLAT:?UpdateBottomHeight@ioSymbolStruct@@MBEXXZ
	DD	FLAT:?NeedUpdateBottomHeight@ioGameEntity@@UAEXXZ
	DD	FLAT:?SetWorldPosition@ioGameEntity@@UAEXABUD3DXVECTOR3@@@Z
	DD	FLAT:?SetWorldOrientation@ioGameEntity@@UAEXABUD3DXQUATERNION@@@Z
	DD	FLAT:?SetWorldScale@ioGameEntity@@UAEXABUD3DXVECTOR3@@@Z
	DD	FLAT:?Translate@ioGameEntity@@UAEXABUD3DXVECTOR3@@@Z
	DD	FLAT:?TranslateByConveyer@ioGameEntity@@UAEXABUD3DXVECTOR3@@@Z
	DD	FLAT:?TranslateByWorldEntity@ioGameEntity@@UAEXABUD3DXVECTOR3@@@Z
	DD	FLAT:?MapCollisionPushingTranslate@ioGameEntity@@UAEXABUD3DXVECTOR3@@@Z
	DD	FLAT:?DontMoveCollisionPushingTranslate@ioGameEntity@@UAEXPAV1@ABUD3DXVECTOR3@@@Z
	DD	FLAT:?Rotate@ioGameEntity@@UAEXABUD3DXVECTOR3@@MW4TransformSpace@ioNode@@@Z
	DD	FLAT:?Scale@ioGameEntity@@UAEXMMM@Z
	DD	FLAT:?Scale@ioGameEntity@@UAEXABUD3DXVECTOR3@@@Z
	DD	FLAT:?GetWorldPosition@ioGameEntity@@UBEABUD3DXVECTOR3@@XZ
	DD	FLAT:?GetWorldOrientation@ioGameEntity@@UBEABUD3DXQUATERNION@@XZ
	DD	FLAT:?GetWorldScale@ioGameEntity@@UBEABUD3DXVECTOR3@@XZ
	DD	FLAT:?ApplyWeapon@ioSymbolStruct@@UAE?AW4ApplyWeaponExp@@PAVioWeapon@@@Z
	DD	FLAT:?IsCollisionAvailableWeapon@ioSymbolStruct@@UAE_NPAVioWeapon@@@Z
	DD	FLAT:?IsCollisionAvailableRange@ioPlayEntity@@UAE_NPAVioWeapon@@@Z
	DD	FLAT:?IsEntityCollisionSkipState@ioPlayEntity@@UBE_NPAVioGameEntity@@@Z
	DD	FLAT:?IsCharCollisionSkipState@ioPlayEntity@@UBE_NW4TeamType@@H@Z
	DD	FLAT:?IsWoundedCollision@ioPlayEntity@@UBE_NABVioOrientBox@@PAUD3DXVECTOR3@@@Z
	DD	FLAT:?GetAttackCollisionBox@ioPlayEntity@@UAE?AVioOrientBox@@W4AniCollisionType@@_N@Z
	DD	FLAT:?CheckSphereDistance@ioPlayEntity@@UBE_NABUD3DXVECTOR3@@MAAM@Z
	DD	FLAT:?CheckSpherePoint@ioPlayEntity@@UBE_NABUD3DXVECTOR3@@MAAU2@@Z
	DD	FLAT:?CheckCylinderPoint@ioPlayEntity@@UBE_NABVioCylinder@@ABUD3DXVECTOR3@@AAU3@@Z
	DD	FLAT:?GetSubType@ioSymbolStruct@@UBE?AW4PlaySubType@ioPlayEntity@@XZ
	DD	FLAT:?GetArmorType@ioSymbolStruct@@UBE?AW4ArmorType@@XZ
	DD	FLAT:?DontMoveEntityLevel@ioSymbolStruct@@UBEHXZ
	DD	FLAT:?NotifyDontMoveCollisionPushingSkip@ioPlayEntity@@UAEXPAVioGameEntity@@@Z
	DD	FLAT:?LoadProperty@ioSymbolStruct@@UAEXAAVioINILoader@@@Z
	DD	FLAT:?GetWorldEventReceiver@ioPlayEntity@@UAEPAVioWorldEventReceiver@@XZ
	DD	FLAT:?Revival@ioSymbolStruct@@UAEXXZ
	DD	FLAT:?UpdateGauge@ioSymbolStruct@@UAEXXZ
	DD	FLAT:?RenderGauge@ioSymbolStruct@@UAEXXZ
	DD	FLAT:?FillMaxHP@ioPlayEntity@@UAEXXZ
	DD	FLAT:?ProcessRecovery@ioSymbolStruct@@MAEXXZ
	DD	FLAT:?AddHeadDamageInfo@ioPlayEntity@@UAEXH_N@Z
	DD	FLAT:?RenderHeadInfoList@ioPlayEntity@@UAEXHH@Z
	DD	FLAT:?UpdateHeadInfoList@ioPlayEntity@@MAEXK@Z
	DD	FLAT:?SetTeam@ioSymbolStruct@@UAEXW4TeamType@@@Z
CONST	ENDS
;	COMDAT xdata$x
xdata$x	SEGMENT
__ehfuncinfo$??1ioSymbolStruct@@UAE@XZ DD 019930522H
	DD	018H
	DD	FLAT:__unwindtable$??1ioSymbolStruct@@UAE@XZ
	DD	2 DUP(00H)
	DD	2 DUP(00H)
	DD	00H
	DD	01H
__unwindtable$??1ioSymbolStruct@@UAE@XZ DD 0ffffffffH
	DD	FLAT:__unwindfunclet$??1ioSymbolStruct@@UAE@XZ$0
	DD	00H
	DD	FLAT:__unwindfunclet$??1ioSymbolStruct@@UAE@XZ$1
	DD	01H
	DD	FLAT:__unwindfunclet$??1ioSymbolStruct@@UAE@XZ$2
	DD	02H
	DD	FLAT:__unwindfunclet$??1ioSymbolStruct@@UAE@XZ$3
	DD	03H
	DD	FLAT:__unwindfunclet$??1ioSymbolStruct@@UAE@XZ$4
	DD	04H
	DD	FLAT:__unwindfunclet$??1ioSymbolStruct@@UAE@XZ$5
	DD	05H
	DD	FLAT:__unwindfunclet$??1ioSymbolStruct@@UAE@XZ$6
	DD	06H
	DD	FLAT:__unwindfunclet$??1ioSymbolStruct@@UAE@XZ$7
	DD	07H
	DD	FLAT:__unwindfunclet$??1ioSymbolStruct@@UAE@XZ$8
	DD	08H
	DD	FLAT:__unwindfunclet$??1ioSymbolStruct@@UAE@XZ$9
	DD	09H
	DD	FLAT:__unwindfunclet$??1ioSymbolStruct@@UAE@XZ$10
	DD	0aH
	DD	FLAT:__unwindfunclet$??1ioSymbolStruct@@UAE@XZ$11
	DD	0bH
	DD	FLAT:__unwindfunclet$??1ioSymbolStruct@@UAE@XZ$12
	DD	0cH
	DD	FLAT:__unwindfunclet$??1ioSymbolStruct@@UAE@XZ$13
	DD	0dH
	DD	FLAT:__unwindfunclet$??1ioSymbolStruct@@UAE@XZ$14
	DD	0eH
	DD	FLAT:__unwindfunclet$??1ioSymbolStruct@@UAE@XZ$15
	DD	0fH
	DD	FLAT:__unwindfunclet$??1ioSymbolStruct@@UAE@XZ$16
	DD	010H
	DD	FLAT:__unwindfunclet$??1ioSymbolStruct@@UAE@XZ$17
	DD	011H
	DD	FLAT:__unwindfunclet$??1ioSymbolStruct@@UAE@XZ$18
	DD	012H
	DD	FLAT:__unwindfunclet$??1ioSymbolStruct@@UAE@XZ$19
	DD	013H
	DD	FLAT:__unwindfunclet$??1ioSymbolStruct@@UAE@XZ$20
	DD	014H
	DD	FLAT:__unwindfunclet$??1ioSymbolStruct@@UAE@XZ$21
	DD	015H
	DD	FLAT:__unwindfunclet$??1ioSymbolStruct@@UAE@XZ$22
	DD	016H
	DD	FLAT:__unwindfunclet$??1ioSymbolStruct@@UAE@XZ$23
; Function compile flags: /Ogsp
; File d:\lost saga for developer\youtube\tutorial\source\src\lsclient\iosymbolstruct.cpp
xdata$x	ENDS
;	COMDAT ??1ioSymbolStruct@@UAE@XZ
_TEXT	SEGMENT
_this$ = -16						; size = 4
__$EHRec$ = -12						; size = 12
??1ioSymbolStruct@@UAE@XZ PROC				; ioSymbolStruct::~ioSymbolStruct, COMDAT
; _this$ = ecx

; 50   : {

  00000	6a 04		 push	 4
  00002	b8 00 00 00 00	 mov	 eax, __ehhandler$??1ioSymbolStruct@@UAE@XZ
  00007	e8 00 00 00 00	 call	 __EH_prolog3
  0000c	8b f1		 mov	 esi, ecx
  0000e	89 75 f0	 mov	 DWORD PTR _this$[ebp], esi
  00011	c7 06 00 00 00
	00		 mov	 DWORD PTR [esi], OFFSET ??_7ioSymbolStruct@@6B@

; 51   : 	SAFEDELETE( m_pGauge );

  00017	8b 9e d0 01 00
	00		 mov	 ebx, DWORD PTR [esi+464]
  0001d	c7 45 fc 17 00
	00 00		 mov	 DWORD PTR __$EHRec$[ebp+8], 23 ; 00000017H
  00024	85 db		 test	 ebx, ebx
  00026	74 15		 je	 SHORT $LN1@ioSymbolSt
  00028	8b cb		 mov	 ecx, ebx
  0002a	e8 00 00 00 00	 call	 ??1ioGaugeHelper@@QAE@XZ ; ioGaugeHelper::~ioGaugeHelper
  0002f	53		 push	 ebx
  00030	e8 00 00 00 00	 call	 ??3@YAXPAX@Z		; operator delete
  00035	83 a6 d0 01 00
	00 00		 and	 DWORD PTR [esi+464], 0
  0003c	59		 pop	 ecx
$LN1@ioSymbolSt:

; 52   : }

  0003d	8b 3d 00 00 00
	00		 mov	 edi, DWORD PTR __imp_??1ioHashString@@QAE@XZ
  00043	8d 8e 60 05 00
	00		 lea	 ecx, DWORD PTR [esi+1376]
  00049	c6 45 fc 16	 mov	 BYTE PTR __$EHRec$[ebp+8], 22 ; 00000016H
  0004d	ff d7		 call	 edi
  0004f	8d 8e 50 05 00
	00		 lea	 ecx, DWORD PTR [esi+1360]
  00055	c6 45 fc 15	 mov	 BYTE PTR __$EHRec$[ebp+8], 21 ; 00000015H
  00059	ff d7		 call	 edi
  0005b	8d 8e 40 05 00
	00		 lea	 ecx, DWORD PTR [esi+1344]
  00061	c6 45 fc 14	 mov	 BYTE PTR __$EHRec$[ebp+8], 20 ; 00000014H
  00065	ff d7		 call	 edi
  00067	8d 8e 30 05 00
	00		 lea	 ecx, DWORD PTR [esi+1328]
  0006d	c6 45 fc 13	 mov	 BYTE PTR __$EHRec$[ebp+8], 19 ; 00000013H
  00071	ff d7		 call	 edi
  00073	8d 8e 20 05 00
	00		 lea	 ecx, DWORD PTR [esi+1312]
  00079	c6 45 fc 12	 mov	 BYTE PTR __$EHRec$[ebp+8], 18 ; 00000012H
  0007d	ff d7		 call	 edi
  0007f	8d 8e 10 05 00
	00		 lea	 ecx, DWORD PTR [esi+1296]
  00085	c6 45 fc 11	 mov	 BYTE PTR __$EHRec$[ebp+8], 17 ; 00000011H
  00089	ff d7		 call	 edi
  0008b	bf 00 00 00 00	 mov	 edi, OFFSET ??_7?$CEncrypt@K@@6B@
  00090	8d 8e ec 04 00
	00		 lea	 ecx, DWORD PTR [esi+1260]
  00096	c6 45 fc 10	 mov	 BYTE PTR __$EHRec$[ebp+8], 16 ; 00000010H
  0009a	89 be e0 04 00
	00		 mov	 DWORD PTR [esi+1248], edi
  000a0	e8 00 00 00 00	 call	 ??1ccddaabb@@UAE@XZ	; ccddaabb::~ccddaabb
  000a5	8d 8e bc 04 00
	00		 lea	 ecx, DWORD PTR [esi+1212]
  000ab	c6 45 fc 0f	 mov	 BYTE PTR __$EHRec$[ebp+8], 15 ; 0000000fH
  000af	89 be b0 04 00
	00		 mov	 DWORD PTR [esi+1200], edi
  000b5	e8 00 00 00 00	 call	 ??1ccddaabb@@UAE@XZ	; ccddaabb::~ccddaabb
  000ba	bf 00 00 00 00	 mov	 edi, OFFSET ??_7?$CEncrypt@M@@6B@
  000bf	8d 8e 8c 04 00
	00		 lea	 ecx, DWORD PTR [esi+1164]
  000c5	c6 45 fc 0e	 mov	 BYTE PTR __$EHRec$[ebp+8], 14 ; 0000000eH
  000c9	89 be 80 04 00
	00		 mov	 DWORD PTR [esi+1152], edi
  000cf	e8 00 00 00 00	 call	 ??1ccddaabb@@UAE@XZ	; ccddaabb::~ccddaabb
  000d4	8d 8e 5c 04 00
	00		 lea	 ecx, DWORD PTR [esi+1116]
  000da	c6 45 fc 0d	 mov	 BYTE PTR __$EHRec$[ebp+8], 13 ; 0000000dH
  000de	89 be 50 04 00
	00		 mov	 DWORD PTR [esi+1104], edi
  000e4	e8 00 00 00 00	 call	 ??1ccddaabb@@UAE@XZ	; ccddaabb::~ccddaabb
  000e9	8d 8e 2c 04 00
	00		 lea	 ecx, DWORD PTR [esi+1068]
  000ef	c6 45 fc 0c	 mov	 BYTE PTR __$EHRec$[ebp+8], 12 ; 0000000cH
  000f3	89 be 20 04 00
	00		 mov	 DWORD PTR [esi+1056], edi
  000f9	e8 00 00 00 00	 call	 ??1ccddaabb@@UAE@XZ	; ccddaabb::~ccddaabb
  000fe	8d 8e fc 03 00
	00		 lea	 ecx, DWORD PTR [esi+1020]
  00104	c6 45 fc 0b	 mov	 BYTE PTR __$EHRec$[ebp+8], 11 ; 0000000bH
  00108	89 be f0 03 00
	00		 mov	 DWORD PTR [esi+1008], edi
  0010e	e8 00 00 00 00	 call	 ??1ccddaabb@@UAE@XZ	; ccddaabb::~ccddaabb
  00113	8d 8e cc 03 00
	00		 lea	 ecx, DWORD PTR [esi+972]
  00119	c6 45 fc 0a	 mov	 BYTE PTR __$EHRec$[ebp+8], 10 ; 0000000aH
  0011d	89 be c0 03 00
	00		 mov	 DWORD PTR [esi+960], edi
  00123	e8 00 00 00 00	 call	 ??1ccddaabb@@UAE@XZ	; ccddaabb::~ccddaabb
  00128	8d 8e 9c 03 00
	00		 lea	 ecx, DWORD PTR [esi+924]
  0012e	c6 45 fc 09	 mov	 BYTE PTR __$EHRec$[ebp+8], 9
  00132	89 be 90 03 00
	00		 mov	 DWORD PTR [esi+912], edi
  00138	e8 00 00 00 00	 call	 ??1ccddaabb@@UAE@XZ	; ccddaabb::~ccddaabb
  0013d	8d 8e 6c 03 00
	00		 lea	 ecx, DWORD PTR [esi+876]
  00143	c6 45 fc 08	 mov	 BYTE PTR __$EHRec$[ebp+8], 8
  00147	89 be 60 03 00
	00		 mov	 DWORD PTR [esi+864], edi
  0014d	e8 00 00 00 00	 call	 ??1ccddaabb@@UAE@XZ	; ccddaabb::~ccddaabb
  00152	8d 8e 3c 03 00
	00		 lea	 ecx, DWORD PTR [esi+828]
  00158	c6 45 fc 07	 mov	 BYTE PTR __$EHRec$[ebp+8], 7
  0015c	89 be 30 03 00
	00		 mov	 DWORD PTR [esi+816], edi
  00162	e8 00 00 00 00	 call	 ??1ccddaabb@@UAE@XZ	; ccddaabb::~ccddaabb
  00167	8d 8e 0c 03 00
	00		 lea	 ecx, DWORD PTR [esi+780]
  0016d	c6 45 fc 06	 mov	 BYTE PTR __$EHRec$[ebp+8], 6
  00171	89 be 00 03 00
	00		 mov	 DWORD PTR [esi+768], edi
  00177	e8 00 00 00 00	 call	 ??1ccddaabb@@UAE@XZ	; ccddaabb::~ccddaabb
  0017c	8d 8e d4 02 00
	00		 lea	 ecx, DWORD PTR [esi+724]
  00182	c6 45 fc 05	 mov	 BYTE PTR __$EHRec$[ebp+8], 5
  00186	89 be c8 02 00
	00		 mov	 DWORD PTR [esi+712], edi
  0018c	e8 00 00 00 00	 call	 ??1ccddaabb@@UAE@XZ	; ccddaabb::~ccddaabb
  00191	8d 8e a4 02 00
	00		 lea	 ecx, DWORD PTR [esi+676]
  00197	c6 45 fc 04	 mov	 BYTE PTR __$EHRec$[ebp+8], 4
  0019b	89 be 98 02 00
	00		 mov	 DWORD PTR [esi+664], edi
  001a1	e8 00 00 00 00	 call	 ??1ccddaabb@@UAE@XZ	; ccddaabb::~ccddaabb
  001a6	8d 8e 74 02 00
	00		 lea	 ecx, DWORD PTR [esi+628]
  001ac	c6 45 fc 03	 mov	 BYTE PTR __$EHRec$[ebp+8], 3
  001b0	89 be 68 02 00
	00		 mov	 DWORD PTR [esi+616], edi
  001b6	e8 00 00 00 00	 call	 ??1ccddaabb@@UAE@XZ	; ccddaabb::~ccddaabb
  001bb	8d 8e 44 02 00
	00		 lea	 ecx, DWORD PTR [esi+580]
  001c1	c6 45 fc 02	 mov	 BYTE PTR __$EHRec$[ebp+8], 2
  001c5	89 be 38 02 00
	00		 mov	 DWORD PTR [esi+568], edi
  001cb	e8 00 00 00 00	 call	 ??1ccddaabb@@UAE@XZ	; ccddaabb::~ccddaabb
  001d0	8d 8e 14 02 00
	00		 lea	 ecx, DWORD PTR [esi+532]
  001d6	c6 45 fc 01	 mov	 BYTE PTR __$EHRec$[ebp+8], 1
  001da	89 be 08 02 00
	00		 mov	 DWORD PTR [esi+520], edi
  001e0	e8 00 00 00 00	 call	 ??1ccddaabb@@UAE@XZ	; ccddaabb::~ccddaabb
  001e5	8d 8e e4 01 00
	00		 lea	 ecx, DWORD PTR [esi+484]
  001eb	c6 45 fc 00	 mov	 BYTE PTR __$EHRec$[ebp+8], 0
  001ef	89 be d8 01 00
	00		 mov	 DWORD PTR [esi+472], edi
  001f5	e8 00 00 00 00	 call	 ??1ccddaabb@@UAE@XZ	; ccddaabb::~ccddaabb
  001fa	83 4d fc ff	 or	 DWORD PTR __$EHRec$[ebp+8], -1
  001fe	8b ce		 mov	 ecx, esi
  00200	e8 00 00 00 00	 call	 ??1ioPlayEntity@@UAE@XZ	; ioPlayEntity::~ioPlayEntity
  00205	e8 00 00 00 00	 call	 __EH_epilog3
  0020a	c3		 ret	 0
_TEXT	ENDS
;	COMDAT text$x
text$x	SEGMENT
__unwindfunclet$??1ioSymbolStruct@@UAE@XZ$0:
  00000	8b 4d f0	 mov	 ecx, DWORD PTR _this$[ebp]
  00003	e9 00 00 00 00	 jmp	 ??1ioPlayEntity@@UAE@XZ	; ioPlayEntity::~ioPlayEntity
__unwindfunclet$??1ioSymbolStruct@@UAE@XZ$1:
  00008	8b 4d f0	 mov	 ecx, DWORD PTR _this$[ebp]
  0000b	81 c1 d8 01 00
	00		 add	 ecx, 472		; 000001d8H
  00011	e9 00 00 00 00	 jmp	 ??1?$CEncrypt@M@@UAE@XZ	; CEncrypt<float>::~CEncrypt<float>
__unwindfunclet$??1ioSymbolStruct@@UAE@XZ$2:
  00016	8b 4d f0	 mov	 ecx, DWORD PTR _this$[ebp]
  00019	81 c1 08 02 00
	00		 add	 ecx, 520		; 00000208H
  0001f	e9 00 00 00 00	 jmp	 ??1?$CEncrypt@M@@UAE@XZ	; CEncrypt<float>::~CEncrypt<float>
__unwindfunclet$??1ioSymbolStruct@@UAE@XZ$3:
  00024	8b 4d f0	 mov	 ecx, DWORD PTR _this$[ebp]
  00027	81 c1 38 02 00
	00		 add	 ecx, 568		; 00000238H
  0002d	e9 00 00 00 00	 jmp	 ??1?$CEncrypt@M@@UAE@XZ	; CEncrypt<float>::~CEncrypt<float>
__unwindfunclet$??1ioSymbolStruct@@UAE@XZ$4:
  00032	8b 4d f0	 mov	 ecx, DWORD PTR _this$[ebp]
  00035	81 c1 68 02 00
	00		 add	 ecx, 616		; 00000268H
  0003b	e9 00 00 00 00	 jmp	 ??1?$CEncrypt@M@@UAE@XZ	; CEncrypt<float>::~CEncrypt<float>
__unwindfunclet$??1ioSymbolStruct@@UAE@XZ$5:
  00040	8b 4d f0	 mov	 ecx, DWORD PTR _this$[ebp]
  00043	81 c1 98 02 00
	00		 add	 ecx, 664		; 00000298H
  00049	e9 00 00 00 00	 jmp	 ??1?$CEncrypt@M@@UAE@XZ	; CEncrypt<float>::~CEncrypt<float>
__unwindfunclet$??1ioSymbolStruct@@UAE@XZ$6:
  0004e	8b 4d f0	 mov	 ecx, DWORD PTR _this$[ebp]
  00051	81 c1 c8 02 00
	00		 add	 ecx, 712		; 000002c8H
  00057	e9 00 00 00 00	 jmp	 ??1?$CEncrypt@M@@UAE@XZ	; CEncrypt<float>::~CEncrypt<float>
__unwindfunclet$??1ioSymbolStruct@@UAE@XZ$7:
  0005c	8b 4d f0	 mov	 ecx, DWORD PTR _this$[ebp]
  0005f	81 c1 00 03 00
	00		 add	 ecx, 768		; 00000300H
  00065	e9 00 00 00 00	 jmp	 ??1?$CEncrypt@M@@UAE@XZ	; CEncrypt<float>::~CEncrypt<float>
__unwindfunclet$??1ioSymbolStruct@@UAE@XZ$8:
  0006a	8b 4d f0	 mov	 ecx, DWORD PTR _this$[ebp]
  0006d	81 c1 30 03 00
	00		 add	 ecx, 816		; 00000330H
  00073	e9 00 00 00 00	 jmp	 ??1?$CEncrypt@M@@UAE@XZ	; CEncrypt<float>::~CEncrypt<float>
__unwindfunclet$??1ioSymbolStruct@@UAE@XZ$9:
  00078	8b 4d f0	 mov	 ecx, DWORD PTR _this$[ebp]
  0007b	81 c1 60 03 00
	00		 add	 ecx, 864		; 00000360H
  00081	e9 00 00 00 00	 jmp	 ??1?$CEncrypt@M@@UAE@XZ	; CEncrypt<float>::~CEncrypt<float>
__unwindfunclet$??1ioSymbolStruct@@UAE@XZ$10:
  00086	8b 4d f0	 mov	 ecx, DWORD PTR _this$[ebp]
  00089	81 c1 90 03 00
	00		 add	 ecx, 912		; 00000390H
  0008f	e9 00 00 00 00	 jmp	 ??1?$CEncrypt@M@@UAE@XZ	; CEncrypt<float>::~CEncrypt<float>
__unwindfunclet$??1ioSymbolStruct@@UAE@XZ$11:
  00094	8b 4d f0	 mov	 ecx, DWORD PTR _this$[ebp]
  00097	81 c1 c0 03 00
	00		 add	 ecx, 960		; 000003c0H
  0009d	e9 00 00 00 00	 jmp	 ??1?$CEncrypt@M@@UAE@XZ	; CEncrypt<float>::~CEncrypt<float>
__unwindfunclet$??1ioSymbolStruct@@UAE@XZ$12:
  000a2	8b 4d f0	 mov	 ecx, DWORD PTR _this$[ebp]
  000a5	81 c1 f0 03 00
	00		 add	 ecx, 1008		; 000003f0H
  000ab	e9 00 00 00 00	 jmp	 ??1?$CEncrypt@M@@UAE@XZ	; CEncrypt<float>::~CEncrypt<float>
__unwindfunclet$??1ioSymbolStruct@@UAE@XZ$13:
  000b0	8b 4d f0	 mov	 ecx, DWORD PTR _this$[ebp]
  000b3	81 c1 20 04 00
	00		 add	 ecx, 1056		; 00000420H
  000b9	e9 00 00 00 00	 jmp	 ??1?$CEncrypt@M@@UAE@XZ	; CEncrypt<float>::~CEncrypt<float>
__unwindfunclet$??1ioSymbolStruct@@UAE@XZ$14:
  000be	8b 4d f0	 mov	 ecx, DWORD PTR _this$[ebp]
  000c1	81 c1 50 04 00
	00		 add	 ecx, 1104		; 00000450H
  000c7	e9 00 00 00 00	 jmp	 ??1?$CEncrypt@M@@UAE@XZ	; CEncrypt<float>::~CEncrypt<float>
__unwindfunclet$??1ioSymbolStruct@@UAE@XZ$15:
  000cc	8b 4d f0	 mov	 ecx, DWORD PTR _this$[ebp]
  000cf	81 c1 80 04 00
	00		 add	 ecx, 1152		; 00000480H
  000d5	e9 00 00 00 00	 jmp	 ??1?$CEncrypt@M@@UAE@XZ	; CEncrypt<float>::~CEncrypt<float>
__unwindfunclet$??1ioSymbolStruct@@UAE@XZ$16:
  000da	8b 4d f0	 mov	 ecx, DWORD PTR _this$[ebp]
  000dd	81 c1 b0 04 00
	00		 add	 ecx, 1200		; 000004b0H
  000e3	e9 00 00 00 00	 jmp	 ??1?$CEncrypt@K@@UAE@XZ	; CEncrypt<unsigned long>::~CEncrypt<unsigned long>
__unwindfunclet$??1ioSymbolStruct@@UAE@XZ$17:
  000e8	8b 4d f0	 mov	 ecx, DWORD PTR _this$[ebp]
  000eb	81 c1 e0 04 00
	00		 add	 ecx, 1248		; 000004e0H
  000f1	e9 00 00 00 00	 jmp	 ??1?$CEncrypt@K@@UAE@XZ	; CEncrypt<unsigned long>::~CEncrypt<unsigned long>
__unwindfunclet$??1ioSymbolStruct@@UAE@XZ$18:
  000f6	8b 4d f0	 mov	 ecx, DWORD PTR _this$[ebp]
  000f9	81 c1 10 05 00
	00		 add	 ecx, 1296		; 00000510H
  000ff	ff 25 00 00 00
	00		 jmp	 DWORD PTR __imp_??1ioHashString@@QAE@XZ
__unwindfunclet$??1ioSymbolStruct@@UAE@XZ$19:
  00105	8b 4d f0	 mov	 ecx, DWORD PTR _this$[ebp]
  00108	81 c1 20 05 00
	00		 add	 ecx, 1312		; 00000520H
  0010e	ff 25 00 00 00
	00		 jmp	 DWORD PTR __imp_??1ioHashString@@QAE@XZ
__unwindfunclet$??1ioSymbolStruct@@UAE@XZ$20:
  00114	8b 4d f0	 mov	 ecx, DWORD PTR _this$[ebp]
  00117	81 c1 30 05 00
	00		 add	 ecx, 1328		; 00000530H
  0011d	ff 25 00 00 00
	00		 jmp	 DWORD PTR __imp_??1ioHashString@@QAE@XZ
__unwindfunclet$??1ioSymbolStruct@@UAE@XZ$21:
  00123	8b 4d f0	 mov	 ecx, DWORD PTR _this$[ebp]
  00126	81 c1 40 05 00
	00		 add	 ecx, 1344		; 00000540H
  0012c	ff 25 00 00 00
	00		 jmp	 DWORD PTR __imp_??1ioHashString@@QAE@XZ
__unwindfunclet$??1ioSymbolStruct@@UAE@XZ$22:
  00132	8b 4d f0	 mov	 ecx, DWORD PTR _this$[ebp]
  00135	81 c1 50 05 00
	00		 add	 ecx, 1360		; 00000550H
  0013b	ff 25 00 00 00
	00		 jmp	 DWORD PTR __imp_??1ioHashString@@QAE@XZ
__unwindfunclet$??1ioSymbolStruct@@UAE@XZ$23:
  00141	8b 4d f0	 mov	 ecx, DWORD PTR _this$[ebp]
  00144	81 c1 60 05 00
	00		 add	 ecx, 1376		; 00000560H
  0014a	ff 25 00 00 00
	00		 jmp	 DWORD PTR __imp_??1ioHashString@@QAE@XZ
__ehhandler$??1ioSymbolStruct@@UAE@XZ:
  00150	8b 54 24 08	 mov	 edx, DWORD PTR [esp+8]
  00154	8d 42 0c	 lea	 eax, DWORD PTR [edx+12]
  00157	8b 4a ec	 mov	 ecx, DWORD PTR [edx-20]
  0015a	33 c8		 xor	 ecx, eax
  0015c	e8 00 00 00 00	 call	 @__security_check_cookie@4
  00161	b8 00 00 00 00	 mov	 eax, OFFSET __ehfuncinfo$??1ioSymbolStruct@@UAE@XZ
  00166	e9 00 00 00 00	 jmp	 ___CxxFrameHandler3
text$x	ENDS
??1ioSymbolStruct@@UAE@XZ ENDP				; ioSymbolStruct::~ioSymbolStruct
; Function compile flags: /Ogsp
; File d:\lost saga for developer\youtube\tutorial\source\src\lsclient\iogameentity.h
;	COMDAT ?NeedUpdateBottomHeight@ioGameEntity@@UAEXXZ
_TEXT	SEGMENT
?NeedUpdateBottomHeight@ioGameEntity@@UAEXXZ PROC	; ioGameEntity::NeedUpdateBottomHeight, COMDAT
; _this$ = ecx

; 133  : 	virtual void NeedUpdateBottomHeight() { m_bNeedUpdateBottomHeight = true; }

  00000	c6 81 89 00 00
	00 01		 mov	 BYTE PTR [ecx+137], 1
  00007	c3		 ret	 0
?NeedUpdateBottomHeight@ioGameEntity@@UAEXXZ ENDP	; ioGameEntity::NeedUpdateBottomHeight
; Function compile flags: /Ogsp
; File d:\lost saga for developer\youtube\tutorial\source\src\lsclient\iosymbolstruct.cpp
_TEXT	ENDS
;	COMDAT ?Update@ioSymbolStruct@@UAEXMKK@Z
_TEXT	SEGMENT
_fTimePerSec$ = 8					; size = 4
_dwPreTime$ = 12					; size = 4
_dwCurTime$ = 16					; size = 4
?Update@ioSymbolStruct@@UAEXMKK@Z PROC			; ioSymbolStruct::Update, COMDAT
; _this$ = ecx

; 55   : {

  00000	56		 push	 esi
  00001	8b f1		 mov	 esi, ecx

; 56   : 	ProcessWoundedState();

  00003	e8 00 00 00 00	 call	 ?ProcessWoundedState@ioSymbolStruct@@IAEXXZ ; ioSymbolStruct::ProcessWoundedState

; 57   : 	ProcessRecovery();

  00008	8b 06		 mov	 eax, DWORD PTR [esi]
  0000a	8b ce		 mov	 ecx, esi
  0000c	ff 90 cc 00 00
	00		 call	 DWORD PTR [eax+204]
  00012	5e		 pop	 esi

; 58   : }

  00013	c2 0c 00	 ret	 12			; 0000000cH
?Update@ioSymbolStruct@@UAEXMKK@Z ENDP			; ioSymbolStruct::Update
_TEXT	ENDS
PUBLIC	__$ArrayPad$
EXTRN	?RenderGauge@ioGaugeHelper@@QAEXMM_N@Z:PROC	; ioGaugeHelper::RenderGauge
EXTRN	?Check2DInScreen@Setting@@SA_NABUD3DXVECTOR3@@AAH1@Z:PROC ; Setting::Check2DInScreen
EXTRN	?GetMidPositionByRate@ioGameEntity@@QBE?AUD3DXVECTOR3@@M@Z:PROC ; ioGameEntity::GetMidPositionByRate
EXTRN	?HasCameraFixedStyle@ioPlayStage@@QAE_NK@Z:PROC	; ioPlayStage::HasCameraFixedStyle
EXTRN	?GetSingleton@ioSP2GUIManager@@SAAAV1@XZ:PROC	; ioSP2GUIManager::GetSingleton
; Function compile flags: /Ogsp
;	COMDAT ?RenderGauge@ioSymbolStruct@@UAEXXZ
_TEXT	SEGMENT
tv263 = -28						; size = 4
tv257 = -28						; size = 4
_iYPos$ = -24						; size = 4
_iXPos$ = -20						; size = 4
_vPos$ = -16						; size = 12
__$ArrayPad$ = -4					; size = 4
?RenderGauge@ioSymbolStruct@@UAEXXZ PROC		; ioSymbolStruct::RenderGauge, COMDAT
; _this$ = ecx

; 446  : {

  00000	55		 push	 ebp
  00001	8b ec		 mov	 ebp, esp
  00003	83 ec 1c	 sub	 esp, 28			; 0000001cH
  00006	a1 00 00 00 00	 mov	 eax, DWORD PTR ___security_cookie
  0000b	33 c5		 xor	 eax, ebp
  0000d	89 45 fc	 mov	 DWORD PTR __$ArrayPad$[ebp], eax
  00010	53		 push	 ebx
  00011	56		 push	 esi
  00012	8b f1		 mov	 esi, ecx

; 447  : 	if( !m_pGauge || !m_bGaugeVisible ) return;

  00014	33 db		 xor	 ebx, ebx
  00016	39 9e d0 01 00
	00		 cmp	 DWORD PTR [esi+464], ebx
  0001c	0f 84 04 01 00
	00		 je	 $LN7@RenderGaug
  00022	38 9e c4 01 00
	00		 cmp	 BYTE PTR [esi+452], bl
  00028	0f 84 f8 00 00
	00		 je	 $LN7@RenderGaug

; 448  : 
; 449  : 	bool bCheckMode = g_GUIMgr.IsNoneUIMode();

  0002e	57		 push	 edi
  0002f	e8 00 00 00 00	 call	 ?GetSingleton@ioSP2GUIManager@@SAAAV1@XZ ; ioSP2GUIManager::GetSingleton

; 450  : 	ioPlayStage *pStage = m_pModeParent->GetCreator();

  00034	8b 8e 8c 00 00
	00		 mov	 ecx, DWORD PTR [esi+140]
  0003a	8b 79 34	 mov	 edi, DWORD PTR [ecx+52]
  0003d	8a 80 e1 04 00
	00		 mov	 al, BYTE PTR [eax+1249]

; 451  : 	if( pStage && !bCheckMode )

  00043	3b fb		 cmp	 edi, ebx
  00045	74 20		 je	 SHORT $LN5@RenderGaug
  00047	3a c3		 cmp	 al, bl
  00049	75 20		 jne	 SHORT $LN21@RenderGaug

; 452  : 	{
; 453  : 		if( pStage->HasCameraFixedStyle(CAMERA_STYLE_MOVIE) || pStage->HasCameraFixedStyle(CAMERA_STYLE_VIEW) )

  0004b	6a 01		 push	 1
  0004d	8b cf		 mov	 ecx, edi
  0004f	e8 00 00 00 00	 call	 ?HasCameraFixedStyle@ioPlayStage@@QAE_NK@Z ; ioPlayStage::HasCameraFixedStyle
  00054	84 c0		 test	 al, al
  00056	75 0d		 jne	 SHORT $LN4@RenderGaug
  00058	6a 02		 push	 2
  0005a	8b cf		 mov	 ecx, edi
  0005c	e8 00 00 00 00	 call	 ?HasCameraFixedStyle@ioPlayStage@@QAE_NK@Z ; ioPlayStage::HasCameraFixedStyle
  00061	84 c0		 test	 al, al
  00063	74 12		 je	 SHORT $LN3@RenderGaug
$LN4@RenderGaug:

; 454  : 			bCheckMode = true;

  00065	b0 01		 mov	 al, 1
$LN5@RenderGaug:

; 455  : 	}
; 456  : 	if( bCheckMode && !Setting::NoUIModeHPShow() ) return;

  00067	3a c3		 cmp	 al, bl
  00069	74 0c		 je	 SHORT $LN3@RenderGaug
$LN21@RenderGaug:
  0006b	38 1d 6b 00 00
	00		 cmp	 BYTE PTR ?m_Option@Setting@@1USettingOption@@A+107, bl
  00071	0f 84 ae 00 00
	00		 je	 $LN22@RenderGaug
$LN3@RenderGaug:

; 457  : 
; 458  : 	D3DXVECTOR3 vPos = GetMidPositionByRate( FLOAT1 );

  00077	b8 01 00 00 00	 mov	 eax, 1
  0007c	89 45 e4	 mov	 DWORD PTR tv263[ebp], eax
  0007f	db 45 e4	 fild	 DWORD PTR tv263[ebp]
  00082	85 c0		 test	 eax, eax
  00084	79 06		 jns	 SHORT $LN23@RenderGaug
  00086	d8 05 00 00 00
	00		 fadd	 DWORD PTR __real@4f800000
$LN23@RenderGaug:
  0008c	51		 push	 ecx
  0008d	8d 45 f0	 lea	 eax, DWORD PTR _vPos$[ebp]
  00090	d9 1c 24	 fstp	 DWORD PTR [esp]
  00093	50		 push	 eax
  00094	8b ce		 mov	 ecx, esi
  00096	e8 00 00 00 00	 call	 ?GetMidPositionByRate@ioGameEntity@@QBE?AUD3DXVECTOR3@@M@Z ; ioGameEntity::GetMidPositionByRate

; 459  : 	vPos.y += FLOAT40;

  0009b	b8 28 00 00 00	 mov	 eax, 40			; 00000028H
  000a0	89 45 e4	 mov	 DWORD PTR tv257[ebp], eax
  000a3	db 45 e4	 fild	 DWORD PTR tv257[ebp]
  000a6	85 c0		 test	 eax, eax
  000a8	79 06		 jns	 SHORT $LN24@RenderGaug
  000aa	d8 05 00 00 00
	00		 fadd	 DWORD PTR __real@4f800000
$LN24@RenderGaug:
  000b0	d8 45 f4	 fadd	 DWORD PTR _vPos$[ebp+4]

; 460  : 
; 461  : 	int iXPos = 0, iYPos = 0;
; 462  : 	if( Setting::Check2DInScreen( vPos, iXPos, iYPos ) )

  000b3	8d 45 e8	 lea	 eax, DWORD PTR _iYPos$[ebp]
  000b6	50		 push	 eax
  000b7	8d 45 ec	 lea	 eax, DWORD PTR _iXPos$[ebp]
  000ba	50		 push	 eax
  000bb	d9 5d f4	 fstp	 DWORD PTR _vPos$[ebp+4]
  000be	8d 45 f0	 lea	 eax, DWORD PTR _vPos$[ebp]
  000c1	50		 push	 eax
  000c2	89 5d ec	 mov	 DWORD PTR _iXPos$[ebp], ebx
  000c5	89 5d e8	 mov	 DWORD PTR _iYPos$[ebp], ebx
  000c8	e8 00 00 00 00	 call	 ?Check2DInScreen@Setting@@SA_NABUD3DXVECTOR3@@AAH1@Z ; Setting::Check2DInScreen
  000cd	83 c4 0c	 add	 esp, 12			; 0000000cH

; 463  : 	{
; 464  : 		m_pGauge->RenderGauge( iXPos, iYPos + 1 );

  000d0	53		 push	 ebx
  000d1	51		 push	 ecx
  000d2	51		 push	 ecx
  000d3	8b 8e d0 01 00
	00		 mov	 ecx, DWORD PTR [esi+464]
  000d9	0f 57 c0	 xorps	 xmm0, xmm0
  000dc	84 c0		 test	 al, al
  000de	74 18		 je	 SHORT $LN2@RenderGaug
  000e0	8b 45 e8	 mov	 eax, DWORD PTR _iYPos$[ebp]
  000e3	40		 inc	 eax
  000e4	f3 0f 2a c0	 cvtsi2ss xmm0, eax
  000e8	f3 0f 11 44 24
	04		 movss	 DWORD PTR [esp+4], xmm0
  000ee	66 0f 6e 45 ec	 movd	 xmm0, DWORD PTR _iXPos$[ebp]
  000f3	0f 5b c0	 cvtdq2ps xmm0, xmm0

; 465  : 	}
; 466  : 	else

  000f6	eb 23		 jmp	 SHORT $LN25@RenderGaug
$LN2@RenderGaug:

; 467  : 	{
; 468  : 		m_pGauge->RenderGauge( m_iGaugeXPos + 12, m_iGaugeYPos + 2 );

  000f8	8b 86 c0 01 00
	00		 mov	 eax, DWORD PTR [esi+448]
  000fe	83 c0 02	 add	 eax, 2
  00101	f3 0f 2a c0	 cvtsi2ss xmm0, eax
  00105	8b 86 bc 01 00
	00		 mov	 eax, DWORD PTR [esi+444]
  0010b	f3 0f 11 44 24
	04		 movss	 DWORD PTR [esp+4], xmm0
  00111	83 c0 0c	 add	 eax, 12			; 0000000cH
  00114	0f 57 c0	 xorps	 xmm0, xmm0
  00117	f3 0f 2a c0	 cvtsi2ss xmm0, eax
$LN25@RenderGaug:
  0011b	f3 0f 11 04 24	 movss	 DWORD PTR [esp], xmm0
  00120	e8 00 00 00 00	 call	 ?RenderGauge@ioGaugeHelper@@QAEXMM_N@Z ; ioGaugeHelper::RenderGauge
$LN22@RenderGaug:
  00125	5f		 pop	 edi
$LN7@RenderGaug:

; 469  : 	}
; 470  : }

  00126	8b 4d fc	 mov	 ecx, DWORD PTR __$ArrayPad$[ebp]
  00129	5e		 pop	 esi
  0012a	33 cd		 xor	 ecx, ebp
  0012c	5b		 pop	 ebx
  0012d	e8 00 00 00 00	 call	 @__security_check_cookie@4
  00132	c9		 leave
  00133	c3		 ret	 0
?RenderGauge@ioSymbolStruct@@UAEXXZ ENDP		; ioSymbolStruct::RenderGauge
_TEXT	ENDS
PUBLIC	__$ArrayPad$
PUBLIC	?SetSymbolActivity@ioSymbolStruct@@QAEX_N@Z	; ioSymbolStruct::SetSymbolActivity
; Function compile flags: /Ogsp
;	COMDAT ?SetSymbolActivity@ioSymbolStruct@@QAEX_N@Z
_TEXT	SEGMENT
$T531001 = -16						; size = 12
__$ArrayPad$ = -4					; size = 4
_bActivity$ = 8						; size = 1
?SetSymbolActivity@ioSymbolStruct@@QAEX_N@Z PROC	; ioSymbolStruct::SetSymbolActivity, COMDAT
; _this$ = ecx

; 754  : {

  00000	55		 push	 ebp
  00001	8b ec		 mov	 ebp, esp
  00003	83 ec 10	 sub	 esp, 16			; 00000010H
  00006	a1 00 00 00 00	 mov	 eax, DWORD PTR ___security_cookie
  0000b	33 c5		 xor	 eax, ebp
  0000d	89 45 fc	 mov	 DWORD PTR __$ArrayPad$[ebp], eax

; 755  : 	m_bActivity = bActivity;

  00010	8a 45 08	 mov	 al, BYTE PTR _bActivity$[ebp]
  00013	56		 push	 esi
  00014	8b f1		 mov	 esi, ecx
  00016	88 86 98 05 00
	00		 mov	 BYTE PTR [esi+1432], al

; 756  : 
; 757  : 	if( m_bActivity )

  0001c	84 c0		 test	 al, al

; 758  : 		SetWorldPosition( m_vDefaultPos );

  0001e	8b 06		 mov	 eax, DWORD PTR [esi]
  00020	74 08		 je	 SHORT $LN2@SetSymbolA
  00022	8d 8e 80 05 00
	00		 lea	 ecx, DWORD PTR [esi+1408]

; 759  : 	else

  00028	eb 15		 jmp	 SHORT $LN7@SetSymbolA
$LN2@SetSymbolA:

; 760  : 		SetWorldPosition( D3DXVECTOR3( 0.0f, 0.0f, 0.0f ) );

  0002a	0f 57 c0	 xorps	 xmm0, xmm0
  0002d	f3 0f 11 45 f0	 movss	 DWORD PTR $T531001[ebp], xmm0
  00032	f3 0f 11 45 f4	 movss	 DWORD PTR $T531001[ebp+4], xmm0
  00037	f3 0f 11 45 f8	 movss	 DWORD PTR $T531001[ebp+8], xmm0
  0003c	8d 4d f0	 lea	 ecx, DWORD PTR $T531001[ebp]
$LN7@SetSymbolA:
  0003f	51		 push	 ecx
  00040	8b ce		 mov	 ecx, esi
  00042	ff 50 44	 call	 DWORD PTR [eax+68]

; 761  : 
; 762  : 	SetTeam( TEAM_NONE );

  00045	8b 06		 mov	 eax, DWORD PTR [esi]
  00047	6a 00		 push	 0
  00049	8b ce		 mov	 ecx, esi
  0004b	ff 90 dc 00 00
	00		 call	 DWORD PTR [eax+220]

; 763  : }

  00051	8b 4d fc	 mov	 ecx, DWORD PTR __$ArrayPad$[ebp]
  00054	33 cd		 xor	 ecx, ebp
  00056	5e		 pop	 esi
  00057	e8 00 00 00 00	 call	 @__security_check_cookie@4
  0005c	c9		 leave
  0005d	c2 04 00	 ret	 4
?SetSymbolActivity@ioSymbolStruct@@QAEX_N@Z ENDP	; ioSymbolStruct::SetSymbolActivity
_TEXT	ENDS
PUBLIC	?GetSpotPosition@ioSymbolStruct@@QAE?AUD3DXVECTOR3@@M@Z ; ioSymbolStruct::GetSpotPosition
; Function compile flags: /Ogsp
;	COMDAT ?GetSpotPosition@ioSymbolStruct@@QAE?AUD3DXVECTOR3@@M@Z
_TEXT	SEGMENT
$T531181 = -12						; size = 12
_vCurPos$ = -12						; size = 12
___$ReturnUdt$ = 8					; size = 4
_fPositionRate$ = 12					; size = 4
?GetSpotPosition@ioSymbolStruct@@QAE?AUD3DXVECTOR3@@M@Z PROC ; ioSymbolStruct::GetSpotPosition, COMDAT
; _this$ = ecx

; 862  : {

  00000	55		 push	 ebp
  00001	8b ec		 mov	 ebp, esp
  00003	83 ec 0c	 sub	 esp, 12			; 0000000cH
  00006	53		 push	 ebx
  00007	56		 push	 esi
  00008	8b d9		 mov	 ebx, ecx

; 863  : 	D3DXVECTOR3 vCurPos = GetWorldPosition();

  0000a	8b 03		 mov	 eax, DWORD PTR [ebx]
  0000c	57		 push	 edi
  0000d	ff 50 70	 call	 DWORD PTR [eax+112]
  00010	8b f0		 mov	 esi, eax
  00012	8d 7d f4	 lea	 edi, DWORD PTR _vCurPos$[ebp]
  00015	a5		 movsd
  00016	a5		 movsd
  00017	a5		 movsd

; 864  : 
; 865  : 	if( vCurPos == m_vDefaultPos )

  00018	f3 0f 10 45 f4	 movss	 xmm0, DWORD PTR _vCurPos$[ebp]
  0001d	8d b3 80 05 00
	00		 lea	 esi, DWORD PTR [ebx+1408]
  00023	f3 0f 10 2e	 movss	 xmm5, DWORD PTR [esi]
  00027	0f 57 c9	 xorps	 xmm1, xmm1
  0002a	0f 5a c0	 cvtps2pd xmm0, xmm0
  0002d	0f 5a cd	 cvtps2pd xmm1, xmm5
  00030	66 0f 2e c1	 ucomisd xmm0, xmm1
  00034	9f		 lahf
  00035	f6 c4 44	 test	 ah, 68			; 00000044H
  00038	7a 38		 jp	 SHORT $LN1@GetSpotPos
  0003a	f3 0f 10 45 f8	 movss	 xmm0, DWORD PTR _vCurPos$[ebp+4]
  0003f	f3 0f 10 4e 04	 movss	 xmm1, DWORD PTR [esi+4]
  00044	0f 5a c0	 cvtps2pd xmm0, xmm0
  00047	0f 5a c9	 cvtps2pd xmm1, xmm1
  0004a	66 0f 2e c1	 ucomisd xmm0, xmm1
  0004e	9f		 lahf
  0004f	f6 c4 44	 test	 ah, 68			; 00000044H
  00052	7a 1e		 jp	 SHORT $LN1@GetSpotPos
  00054	f3 0f 10 45 fc	 movss	 xmm0, DWORD PTR _vCurPos$[ebp+8]
  00059	f3 0f 10 4e 08	 movss	 xmm1, DWORD PTR [esi+8]
  0005e	0f 5a c0	 cvtps2pd xmm0, xmm0
  00061	0f 5a c9	 cvtps2pd xmm1, xmm1
  00064	66 0f 2e c1	 ucomisd xmm0, xmm1
  00068	9f		 lahf
  00069	f6 c4 44	 test	 ah, 68			; 00000044H

; 866  : 		return m_vDefaultPos;

  0006c	0f 8b c8 00 00
	00		 jnp	 $LN21@GetSpotPos
$LN1@GetSpotPos:

; 867  : 
; 868  : 	D3DXVECTOR3 vDiff = vCurPos - m_vDefaultPos;

  00072	f3 0f 10 45 f4	 movss	 xmm0, DWORD PTR _vCurPos$[ebp]
  00077	f3 0f 10 65 fc	 movss	 xmm4, DWORD PTR _vCurPos$[ebp+8]
  0007c	0f 5a cd	 cvtps2pd xmm1, xmm5
  0007f	0f 5a c0	 cvtps2pd xmm0, xmm0
  00082	f2 0f 5c c1	 subsd	 xmm0, xmm1
  00086	f3 0f 10 4d f8	 movss	 xmm1, DWORD PTR _vCurPos$[ebp+4]
  0008b	0f 57 d2	 xorps	 xmm2, xmm2
  0008e	f2 0f 5a d0	 cvtsd2ss xmm2, xmm0
  00092	f3 0f 10 46 04	 movss	 xmm0, DWORD PTR [esi+4]
  00097	0f 5a d8	 cvtps2pd xmm3, xmm0
  0009a	0f 5a c9	 cvtps2pd xmm1, xmm1
  0009d	f2 0f 5c cb	 subsd	 xmm1, xmm3
  000a1	0f 57 db	 xorps	 xmm3, xmm3
  000a4	f2 0f 5a d9	 cvtsd2ss xmm3, xmm1
  000a8	f3 0f 10 4e 08	 movss	 xmm1, DWORD PTR [esi+8]
  000ad	0f 5a f1	 cvtps2pd xmm6, xmm1
  000b0	0f 5a e4	 cvtps2pd xmm4, xmm4
  000b3	f2 0f 5c e6	 subsd	 xmm4, xmm6

; 869  : 	vDiff = vDiff * fPositionRate;

  000b7	f3 0f 10 75 0c	 movss	 xmm6, DWORD PTR _fPositionRate$[ebp]
  000bc	0f 5a d2	 cvtps2pd xmm2, xmm2
  000bf	0f 5a f6	 cvtps2pd xmm6, xmm6
  000c2	f2 0f 59 d6	 mulsd	 xmm2, xmm6
  000c6	f3 0f 10 75 0c	 movss	 xmm6, DWORD PTR _fPositionRate$[ebp]
  000cb	66 0f 5a d2	 cvtpd2ps xmm2, xmm2

; 870  : 
; 871  : 	vCurPos = m_vDefaultPos + vDiff;

  000cf	f3 0f 5a d2	 cvtss2sd xmm2, xmm2
  000d3	0f 5a f6	 cvtps2pd xmm6, xmm6
  000d6	0f 5a ed	 cvtps2pd xmm5, xmm5
  000d9	f2 0f 58 ea	 addsd	 xmm5, xmm2
  000dd	0f 5a db	 cvtps2pd xmm3, xmm3
  000e0	f2 0f 59 de	 mulsd	 xmm3, xmm6
  000e4	f3 0f 10 75 0c	 movss	 xmm6, DWORD PTR _fPositionRate$[ebp]
  000e9	66 0f 5a d5	 cvtpd2ps xmm2, xmm5
  000ed	0f 5a c0	 cvtps2pd xmm0, xmm0
  000f0	f3 0f 11 55 f4	 movss	 DWORD PTR $T531181[ebp], xmm2
  000f5	66 0f 5a db	 cvtpd2ps xmm3, xmm3
  000f9	0f 57 d2	 xorps	 xmm2, xmm2
  000fc	f3 0f 5a d3	 cvtss2sd xmm2, xmm3
  00100	f2 0f 58 c2	 addsd	 xmm0, xmm2
  00104	66 0f 5a c0	 cvtpd2ps xmm0, xmm0
  00108	f2 0f 5a e4	 cvtsd2ss xmm4, xmm4
  0010c	f3 0f 11 45 f8	 movss	 DWORD PTR $T531181[ebp+4], xmm0
  00111	f3 0f 5a e4	 cvtss2sd xmm4, xmm4
  00115	0f 5a f6	 cvtps2pd xmm6, xmm6
  00118	f2 0f 59 e6	 mulsd	 xmm4, xmm6
  0011c	0f 5a c1	 cvtps2pd xmm0, xmm1
  0011f	f2 0f 5a e4	 cvtsd2ss xmm4, xmm4
  00123	0f 57 c9	 xorps	 xmm1, xmm1
  00126	f3 0f 5a cc	 cvtss2sd xmm1, xmm4
  0012a	f2 0f 58 c1	 addsd	 xmm0, xmm1
  0012e	66 0f 5a c0	 cvtpd2ps xmm0, xmm0
  00132	f3 0f 11 45 fc	 movss	 DWORD PTR $T531181[ebp+8], xmm0

; 872  : 
; 873  : 	return vCurPos;

  00137	8d 75 f4	 lea	 esi, DWORD PTR $T531181[ebp]
$LN21@GetSpotPos:
  0013a	8b 45 08	 mov	 eax, DWORD PTR ___$ReturnUdt$[ebp]
  0013d	8b f8		 mov	 edi, eax
  0013f	a5		 movsd
  00140	a5		 movsd
  00141	a5		 movsd
  00142	5f		 pop	 edi
  00143	5e		 pop	 esi
  00144	5b		 pop	 ebx

; 874  : }

  00145	c9		 leave
  00146	c2 08 00	 ret	 8
?GetSpotPosition@ioSymbolStruct@@QAE?AUD3DXVECTOR3@@M@Z ENDP ; ioSymbolStruct::GetSpotPosition
_TEXT	ENDS
PUBLIC	??D?$CEncrypt@M@@QAEMABH@Z			; CEncrypt<float>::operator*
; Function compile flags: /Ogsp
; File d:\lost saga for developer\youtube\tutorial\source\src\lsclient\encryptvalue.h
;	COMDAT ??D?$CEncrypt@M@@QAEMABH@Z
_TEXT	SEGMENT
_value$ = -4						; size = 4
tv128 = 8						; size = 4
_inValue$ = 8						; size = 4
??D?$CEncrypt@M@@QAEMABH@Z PROC				; CEncrypt<float>::operator*, COMDAT
; _this$ = ecx

; 874  : 	{

  00000	55		 push	 ebp
  00001	8b ec		 mov	 ebp, esp
  00003	51		 push	 ecx

; 875  : 		type value;
; 876  : 		DecryptValueToPool(&value);

  00004	8d 45 fc	 lea	 eax, DWORD PTR _value$[ebp]
  00007	50		 push	 eax
  00008	e8 00 00 00 00	 call	 ?DecryptValueToPool@?$CEncrypt@M@@QAEXPAM@Z ; CEncrypt<float>::DecryptValueToPool

; 877  : #ifdef _NOTUSE
; 878  : 		Debug();
; 879  : #endif
; 880  : 		return value * inValue;

  0000d	8b 45 08	 mov	 eax, DWORD PTR _inValue$[ebp]
  00010	db 00		 fild	 DWORD PTR [eax]
  00012	d8 4d fc	 fmul	 DWORD PTR _value$[ebp]
  00015	d9 5d 08	 fstp	 DWORD PTR tv128[ebp]
  00018	d9 45 08	 fld	 DWORD PTR tv128[ebp]

; 881  : 	}

  0001b	c9		 leave
  0001c	c2 04 00	 ret	 4
??D?$CEncrypt@M@@QAEMABH@Z ENDP				; CEncrypt<float>::operator*
_TEXT	ENDS
PUBLIC	??G?$CEncrypt@M@@QAEMABM@Z			; CEncrypt<float>::operator-
; Function compile flags: /Ogsp
;	COMDAT ??G?$CEncrypt@M@@QAEMABM@Z
_TEXT	SEGMENT
_value$ = -4						; size = 4
tv130 = 8						; size = 4
_inValue$ = 8						; size = 4
??G?$CEncrypt@M@@QAEMABM@Z PROC				; CEncrypt<float>::operator-, COMDAT
; _this$ = ecx

; 1665 : 	{	

  00000	55		 push	 ebp
  00001	8b ec		 mov	 ebp, esp
  00003	51		 push	 ecx

; 1666 : 		type value;
; 1667 : 		DecryptValueToPool(&value);

  00004	8d 45 fc	 lea	 eax, DWORD PTR _value$[ebp]
  00007	50		 push	 eax
  00008	e8 00 00 00 00	 call	 ?DecryptValueToPool@?$CEncrypt@M@@QAEXPAM@Z ; CEncrypt<float>::DecryptValueToPool

; 1668 : #ifdef _NOTUSE
; 1669 : 		Debug();
; 1670 : #endif
; 1671 : 		return value - inValue;

  0000d	d9 45 fc	 fld	 DWORD PTR _value$[ebp]
  00010	8b 45 08	 mov	 eax, DWORD PTR _inValue$[ebp]
  00013	d8 20		 fsub	 DWORD PTR [eax]
  00015	d9 5d 08	 fstp	 DWORD PTR tv130[ebp]
  00018	d9 45 08	 fld	 DWORD PTR tv130[ebp]

; 1672 : 	}

  0001b	c9		 leave
  0001c	c2 04 00	 ret	 4
??G?$CEncrypt@M@@QAEMABM@Z ENDP				; CEncrypt<float>::operator-
_TEXT	ENDS
PUBLIC	??H?$CEncrypt@M@@QAEMABM@Z			; CEncrypt<float>::operator+
; Function compile flags: /Ogsp
;	COMDAT ??H?$CEncrypt@M@@QAEMABM@Z
_TEXT	SEGMENT
_value$ = -4						; size = 4
tv130 = 8						; size = 4
_inValue$ = 8						; size = 4
??H?$CEncrypt@M@@QAEMABM@Z PROC				; CEncrypt<float>::operator+, COMDAT
; _this$ = ecx

; 1675 : 	{	

  00000	55		 push	 ebp
  00001	8b ec		 mov	 ebp, esp
  00003	51		 push	 ecx

; 1676 : 		type value;
; 1677 : 		DecryptValueToPool(&value);

  00004	8d 45 fc	 lea	 eax, DWORD PTR _value$[ebp]
  00007	50		 push	 eax
  00008	e8 00 00 00 00	 call	 ?DecryptValueToPool@?$CEncrypt@M@@QAEXPAM@Z ; CEncrypt<float>::DecryptValueToPool

; 1678 : #ifdef _NOTUSE
; 1679 : 		Debug();
; 1680 : #endif
; 1681 : 		return value + inValue;

  0000d	8b 45 08	 mov	 eax, DWORD PTR _inValue$[ebp]
  00010	d9 00		 fld	 DWORD PTR [eax]
  00012	d8 45 fc	 fadd	 DWORD PTR _value$[ebp]
  00015	d9 5d 08	 fstp	 DWORD PTR tv130[ebp]
  00018	d9 45 08	 fld	 DWORD PTR tv130[ebp]

; 1682 : 	}

  0001b	c9		 leave
  0001c	c2 04 00	 ret	 4
??H?$CEncrypt@M@@QAEMABM@Z ENDP				; CEncrypt<float>::operator+
_TEXT	ENDS
PUBLIC	??D?$CEncrypt@M@@QAEMABM@Z			; CEncrypt<float>::operator*
; Function compile flags: /Ogsp
;	COMDAT ??D?$CEncrypt@M@@QAEMABM@Z
_TEXT	SEGMENT
_value$ = -4						; size = 4
tv130 = 8						; size = 4
_inValue$ = 8						; size = 4
??D?$CEncrypt@M@@QAEMABM@Z PROC				; CEncrypt<float>::operator*, COMDAT
; _this$ = ecx

; 1685 : 	{	

  00000	55		 push	 ebp
  00001	8b ec		 mov	 ebp, esp
  00003	51		 push	 ecx

; 1686 : 		type value;
; 1687 : 		DecryptValueToPool(&value);

  00004	8d 45 fc	 lea	 eax, DWORD PTR _value$[ebp]
  00007	50		 push	 eax
  00008	e8 00 00 00 00	 call	 ?DecryptValueToPool@?$CEncrypt@M@@QAEXPAM@Z ; CEncrypt<float>::DecryptValueToPool

; 1688 : #ifdef _NOTUSE
; 1689 : 		Debug();
; 1690 : #endif
; 1691 : 		return value * inValue;

  0000d	8b 45 08	 mov	 eax, DWORD PTR _inValue$[ebp]
  00010	d9 00		 fld	 DWORD PTR [eax]
  00012	d8 4d fc	 fmul	 DWORD PTR _value$[ebp]
  00015	d9 5d 08	 fstp	 DWORD PTR tv130[ebp]
  00018	d9 45 08	 fld	 DWORD PTR tv130[ebp]

; 1692 : 	}

  0001b	c9		 leave
  0001c	c2 04 00	 ret	 4
??D?$CEncrypt@M@@QAEMABM@Z ENDP				; CEncrypt<float>::operator*
_TEXT	ENDS
PUBLIC	??K?$CEncrypt@M@@QAEMABM@Z			; CEncrypt<float>::operator/
; Function compile flags: /Ogsp
;	COMDAT ??K?$CEncrypt@M@@QAEMABM@Z
_TEXT	SEGMENT
_value$ = -4						; size = 4
tv130 = 8						; size = 4
_inValue$ = 8						; size = 4
??K?$CEncrypt@M@@QAEMABM@Z PROC				; CEncrypt<float>::operator/, COMDAT
; _this$ = ecx

; 1695 : 	{

  00000	55		 push	 ebp
  00001	8b ec		 mov	 ebp, esp
  00003	51		 push	 ecx

; 1696 : 		type value;
; 1697 : 		DecryptValueToPool(&value);

  00004	8d 45 fc	 lea	 eax, DWORD PTR _value$[ebp]
  00007	50		 push	 eax
  00008	e8 00 00 00 00	 call	 ?DecryptValueToPool@?$CEncrypt@M@@QAEXPAM@Z ; CEncrypt<float>::DecryptValueToPool

; 1698 : #ifdef _NOTUSE
; 1699 : 		Debug();
; 1700 : #endif
; 1701 : 		return value / inValue;

  0000d	d9 45 fc	 fld	 DWORD PTR _value$[ebp]
  00010	8b 45 08	 mov	 eax, DWORD PTR _inValue$[ebp]
  00013	d8 30		 fdiv	 DWORD PTR [eax]
  00015	d9 5d 08	 fstp	 DWORD PTR tv130[ebp]
  00018	d9 45 08	 fld	 DWORD PTR tv130[ebp]

; 1702 : 	}

  0001b	c9		 leave
  0001c	c2 04 00	 ret	 4
??K?$CEncrypt@M@@QAEMABM@Z ENDP				; CEncrypt<float>::operator/
_TEXT	ENDS
PUBLIC	??X?$CEncrypt@M@@QAEAAMABM@Z			; CEncrypt<float>::operator*=
; Function compile flags: /Ogsp
;	COMDAT ??X?$CEncrypt@M@@QAEAAMABM@Z
_TEXT	SEGMENT
_value$ = -4						; size = 4
_inValue$ = 8						; size = 4
??X?$CEncrypt@M@@QAEAAMABM@Z PROC			; CEncrypt<float>::operator*=, COMDAT
; _this$ = ecx

; 1741 : 	{

  00000	55		 push	 ebp
  00001	8b ec		 mov	 ebp, esp
  00003	51		 push	 ecx
  00004	56		 push	 esi

; 1742 : 		type value;
; 1743 : 		DecryptValueToPool(&value);

  00005	8d 45 fc	 lea	 eax, DWORD PTR _value$[ebp]
  00008	50		 push	 eax
  00009	8b f1		 mov	 esi, ecx
  0000b	e8 00 00 00 00	 call	 ?DecryptValueToPool@?$CEncrypt@M@@QAEXPAM@Z ; CEncrypt<float>::DecryptValueToPool

; 1744 : 		value *= inValue;

  00010	8b 45 08	 mov	 eax, DWORD PTR _inValue$[ebp]
  00013	f3 0f 10 00	 movss	 xmm0, DWORD PTR [eax]
  00017	f3 0f 10 4d fc	 movss	 xmm1, DWORD PTR _value$[ebp]
  0001c	0f 5a c0	 cvtps2pd xmm0, xmm0
  0001f	0f 5a c9	 cvtps2pd xmm1, xmm1

; 1745 : 		EncryptValueToPool((char*)&value);

  00022	8d 45 fc	 lea	 eax, DWORD PTR _value$[ebp]
  00025	f2 0f 59 c1	 mulsd	 xmm0, xmm1
  00029	66 0f 5a c0	 cvtpd2ps xmm0, xmm0
  0002d	50		 push	 eax
  0002e	8b ce		 mov	 ecx, esi
  00030	f3 0f 11 45 fc	 movss	 DWORD PTR _value$[ebp], xmm0
  00035	e8 00 00 00 00	 call	 ?EncryptValueToPool@?$CEncrypt@M@@AAEXPBD@Z ; CEncrypt<float>::EncryptValueToPool

; 1746 : #ifdef _NOTUSE
; 1747 : 		m_value *= inValue;
; 1748 : 		Debug();
; 1749 : #endif
; 1750 : 		return value;

  0003a	8d 45 fc	 lea	 eax, DWORD PTR _value$[ebp]
  0003d	5e		 pop	 esi

; 1751 : 	} 

  0003e	c9		 leave
  0003f	c2 04 00	 ret	 4
??X?$CEncrypt@M@@QAEAAMABM@Z ENDP			; CEncrypt<float>::operator*=
_TEXT	ENDS
PUBLIC	??8?$CEncrypt@M@@QAE_NABM@Z			; CEncrypt<float>::operator==
; Function compile flags: /Ogsp
;	COMDAT ??8?$CEncrypt@M@@QAE_NABM@Z
_TEXT	SEGMENT
_value$ = -4						; size = 4
_inValue$ = 8						; size = 4
??8?$CEncrypt@M@@QAE_NABM@Z PROC			; CEncrypt<float>::operator==, COMDAT
; _this$ = ecx

; 1781 : 	{

  00000	55		 push	 ebp
  00001	8b ec		 mov	 ebp, esp
  00003	51		 push	 ecx

; 1782 : 		type value;
; 1783 : 		DecryptValueToPool(&value);

  00004	8d 45 fc	 lea	 eax, DWORD PTR _value$[ebp]
  00007	50		 push	 eax
  00008	e8 00 00 00 00	 call	 ?DecryptValueToPool@?$CEncrypt@M@@QAEXPAM@Z ; CEncrypt<float>::DecryptValueToPool

; 1784 : #ifdef _NOTUSE
; 1785 : 		Debug();
; 1786 : #endif
; 1787 : 		return (value == inValue);

  0000d	8b 45 08	 mov	 eax, DWORD PTR _inValue$[ebp]
  00010	f3 0f 10 08	 movss	 xmm1, DWORD PTR [eax]
  00014	f3 0f 10 45 fc	 movss	 xmm0, DWORD PTR _value$[ebp]
  00019	0f 5a c0	 cvtps2pd xmm0, xmm0
  0001c	0f 5a c9	 cvtps2pd xmm1, xmm1
  0001f	66 0f 2e c1	 ucomisd xmm0, xmm1
  00023	9f		 lahf
  00024	f6 c4 44	 test	 ah, 68			; 00000044H
  00027	7a 05		 jp	 SHORT $LN3@operator@2
  00029	33 c0		 xor	 eax, eax
  0002b	40		 inc	 eax
  0002c	eb 02		 jmp	 SHORT $LN4@operator@2
$LN3@operator@2:
  0002e	33 c0		 xor	 eax, eax
$LN4@operator@2:

; 1788 : 	} 

  00030	c9		 leave
  00031	c2 04 00	 ret	 4
??8?$CEncrypt@M@@QAE_NABM@Z ENDP			; CEncrypt<float>::operator==
_TEXT	ENDS
PUBLIC	??M?$CEncrypt@M@@QAE_NABM@Z			; CEncrypt<float>::operator<
; Function compile flags: /Ogsp
;	COMDAT ??M?$CEncrypt@M@@QAE_NABM@Z
_TEXT	SEGMENT
_value$ = -4						; size = 4
_inValue$ = 8						; size = 4
??M?$CEncrypt@M@@QAE_NABM@Z PROC			; CEncrypt<float>::operator<, COMDAT
; _this$ = ecx

; 1791 : 	{

  00000	55		 push	 ebp
  00001	8b ec		 mov	 ebp, esp
  00003	51		 push	 ecx

; 1792 : 		type value;
; 1793 : 		DecryptValueToPool(&value);

  00004	8d 45 fc	 lea	 eax, DWORD PTR _value$[ebp]
  00007	50		 push	 eax
  00008	e8 00 00 00 00	 call	 ?DecryptValueToPool@?$CEncrypt@M@@QAEXPAM@Z ; CEncrypt<float>::DecryptValueToPool

; 1794 : #ifdef _NOTUSE
; 1795 : 		Debug();
; 1796 : #endif
; 1797 : 		return (value < inValue);

  0000d	8b 45 08	 mov	 eax, DWORD PTR _inValue$[ebp]
  00010	f3 0f 10 08	 movss	 xmm1, DWORD PTR [eax]
  00014	f3 0f 10 45 fc	 movss	 xmm0, DWORD PTR _value$[ebp]
  00019	0f 5a c0	 cvtps2pd xmm0, xmm0
  0001c	0f 5a c9	 cvtps2pd xmm1, xmm1
  0001f	33 c0		 xor	 eax, eax
  00021	66 0f 2f c8	 comisd	 xmm1, xmm0
  00025	76 01		 jbe	 SHORT $LN4@operator@3
  00027	40		 inc	 eax
$LN4@operator@3:

; 1798 : 	} 

  00028	c9		 leave
  00029	c2 04 00	 ret	 4
??M?$CEncrypt@M@@QAE_NABM@Z ENDP			; CEncrypt<float>::operator<
_TEXT	ENDS
PUBLIC	??8?$CEncrypt@K@@QAE_NABH@Z			; CEncrypt<unsigned long>::operator==
; Function compile flags: /Ogsp
;	COMDAT ??8?$CEncrypt@K@@QAE_NABH@Z
_TEXT	SEGMENT
_value$ = -4						; size = 4
_inValue$ = 8						; size = 4
??8?$CEncrypt@K@@QAE_NABH@Z PROC			; CEncrypt<unsigned long>::operator==, COMDAT
; _this$ = ecx

; 976  : 	{

  00000	55		 push	 ebp
  00001	8b ec		 mov	 ebp, esp
  00003	51		 push	 ecx

; 977  : 		
; 978  : 		type value;
; 979  : 		DecryptValueToPool(&value);

  00004	8d 45 fc	 lea	 eax, DWORD PTR _value$[ebp]
  00007	50		 push	 eax
  00008	e8 00 00 00 00	 call	 ?DecryptValueToPool@?$CEncrypt@K@@QAEXPAK@Z ; CEncrypt<unsigned long>::DecryptValueToPool

; 980  : #ifdef _NOTUSE
; 981  : 		Debug();
; 982  : #endif
; 983  : 		return (value == inValue);

  0000d	8b 4d 08	 mov	 ecx, DWORD PTR _inValue$[ebp]
  00010	8b 55 fc	 mov	 edx, DWORD PTR _value$[ebp]
  00013	33 c0		 xor	 eax, eax
  00015	3b 11		 cmp	 edx, DWORD PTR [ecx]
  00017	0f 94 c0	 sete	 al

; 984  : 	} 

  0001a	c9		 leave
  0001b	c2 04 00	 ret	 4
??8?$CEncrypt@K@@QAE_NABH@Z ENDP			; CEncrypt<unsigned long>::operator==
_TEXT	ENDS
PUBLIC	??B?$CEncrypt@W4TeamType@@@@QAE?AW4TeamType@@XZ	; CEncrypt<enum TeamType>::operator enum TeamType
; Function compile flags: /Ogsp
;	COMDAT ??B?$CEncrypt@W4TeamType@@@@QAE?AW4TeamType@@XZ
_TEXT	SEGMENT
_value$ = -4						; size = 4
??B?$CEncrypt@W4TeamType@@@@QAE?AW4TeamType@@XZ PROC	; CEncrypt<enum TeamType>::operator enum TeamType, COMDAT
; _this$ = ecx

; 134  : 	{

  00000	55		 push	 ebp
  00001	8b ec		 mov	 ebp, esp
  00003	51		 push	 ecx

; 135  : 		type value;
; 136  : 		DecryptValueToPool(&value);

  00004	8d 45 fc	 lea	 eax, DWORD PTR _value$[ebp]
  00007	50		 push	 eax
  00008	e8 00 00 00 00	 call	 ?DecryptValueToPool@?$CEncrypt@W4TeamType@@@@QAEXPAW4TeamType@@@Z ; CEncrypt<enum TeamType>::DecryptValueToPool

; 137  : 
; 138  : #ifdef _NOTUSE
; 139  : 		Debug();
; 140  : #endif
; 141  : 		return value;

  0000d	8b 45 fc	 mov	 eax, DWORD PTR _value$[ebp]

; 142  : 	}

  00010	c9		 leave
  00011	c3		 ret	 0
??B?$CEncrypt@W4TeamType@@@@QAE?AW4TeamType@@XZ ENDP	; CEncrypt<enum TeamType>::operator enum TeamType
_TEXT	ENDS
PUBLIC	__$ArrayPad$
PUBLIC	??$LoadInt_e@$0L@@ioINILoader@@QAEHAAY0L@$$CBDH@Z ; ioINILoader::LoadInt_e<11>
EXTRN	__imp_?LoadInt@ioINILoader@@QAEHPBDH@Z:PROC
; Function compile flags: /Ogsp
; File d:\lost saga for developer\youtube\tutorial\source\src\io3dengine\ioiniloader.h
;	COMDAT ??$LoadInt_e@$0L@@ioINILoader@@QAEHAAY0L@$$CBDH@Z
_TEXT	SEGMENT
__k$ = -20						; size = 11
__$ArrayPad$ = -4					; size = 4
_k$ = 8							; size = 4
_i$ = 12						; size = 4
??$LoadInt_e@$0L@@ioINILoader@@QAEHAAY0L@$$CBDH@Z PROC	; ioINILoader::LoadInt_e<11>, COMDAT
; _this$ = ecx

; 118  : 	{

  00000	55		 push	 ebp
  00001	8b ec		 mov	 ebp, esp
  00003	83 ec 14	 sub	 esp, 20			; 00000014H
  00006	a1 00 00 00 00	 mov	 eax, DWORD PTR ___security_cookie
  0000b	33 c5		 xor	 eax, ebp
  0000d	89 45 fc	 mov	 DWORD PTR __$ArrayPad$[ebp], eax
  00010	8b 45 08	 mov	 eax, DWORD PTR _k$[ebp]

; 119  : 		_ENCSTR(k, _k);

  00013	8a 10		 mov	 dl, BYTE PTR [eax]
  00015	56		 push	 esi
  00016	8b f1		 mov	 esi, ecx
  00018	84 d2		 test	 dl, dl
  0001a	0f 84 24 01 00
	00		 je	 $LN96@LoadInt_e
  00020	80 f2 ed	 xor	 dl, -19			; ffffffedH
  00023	88 55 ec	 mov	 BYTE PTR __k$[ebp], dl
  00026	8a 50 01	 mov	 dl, BYTE PTR [eax+1]
  00029	84 d2		 test	 dl, dl
  0002b	0f 84 0d 01 00
	00		 je	 $LN95@LoadInt_e
  00031	80 f2 ec	 xor	 dl, -20			; ffffffecH
  00034	88 55 ed	 mov	 BYTE PTR __k$[ebp+1], dl
  00037	8a 50 02	 mov	 dl, BYTE PTR [eax+2]
  0003a	84 d2		 test	 dl, dl
  0003c	0f 84 f6 00 00
	00		 je	 $LN94@LoadInt_e
  00042	80 f2 eb	 xor	 dl, -21			; ffffffebH
  00045	88 55 ee	 mov	 BYTE PTR __k$[ebp+2], dl
  00048	8a 50 03	 mov	 dl, BYTE PTR [eax+3]
  0004b	84 d2		 test	 dl, dl
  0004d	0f 84 df 00 00
	00		 je	 $LN93@LoadInt_e
  00053	80 f2 ea	 xor	 dl, -22			; ffffffeaH
  00056	88 55 ef	 mov	 BYTE PTR __k$[ebp+3], dl
  00059	8a 50 04	 mov	 dl, BYTE PTR [eax+4]
  0005c	84 d2		 test	 dl, dl
  0005e	0f 84 c8 00 00
	00		 je	 $LN92@LoadInt_e
  00064	80 f2 ed	 xor	 dl, -19			; ffffffedH
  00067	88 55 f0	 mov	 BYTE PTR __k$[ebp+4], dl
  0006a	8a 50 05	 mov	 dl, BYTE PTR [eax+5]
  0006d	84 d2		 test	 dl, dl
  0006f	0f 84 b1 00 00
	00		 je	 $LN91@LoadInt_e
  00075	80 f2 ec	 xor	 dl, -20			; ffffffecH
  00078	88 55 f1	 mov	 BYTE PTR __k$[ebp+5], dl
  0007b	8a 50 06	 mov	 dl, BYTE PTR [eax+6]
  0007e	84 d2		 test	 dl, dl
  00080	0f 84 9a 00 00
	00		 je	 $LN90@LoadInt_e
  00086	80 f2 eb	 xor	 dl, -21			; ffffffebH
  00089	88 55 f2	 mov	 BYTE PTR __k$[ebp+6], dl
  0008c	8a 50 07	 mov	 dl, BYTE PTR [eax+7]
  0008f	84 d2		 test	 dl, dl
  00091	0f 84 83 00 00
	00		 je	 $LN89@LoadInt_e
  00097	80 f2 ea	 xor	 dl, -22			; ffffffeaH
  0009a	88 55 f3	 mov	 BYTE PTR __k$[ebp+7], dl
  0009d	8a 50 08	 mov	 dl, BYTE PTR [eax+8]
  000a0	84 d2		 test	 dl, dl
  000a2	74 70		 je	 SHORT $LN88@LoadInt_e
  000a4	80 f2 ed	 xor	 dl, -19			; ffffffedH
  000a7	88 55 f4	 mov	 BYTE PTR __k$[ebp+8], dl
  000aa	8a 50 09	 mov	 dl, BYTE PTR [eax+9]
  000ad	84 d2		 test	 dl, dl
  000af	74 5d		 je	 SHORT $LN87@LoadInt_e
  000b1	80 f2 ec	 xor	 dl, -20			; ffffffecH
  000b4	80 78 0a 00	 cmp	 BYTE PTR [eax+10], 0
  000b8	88 55 f5	 mov	 BYTE PTR __k$[ebp+9], dl
  000bb	0f 84 87 00 00
	00		 je	 $LN1@LoadInt_e
  000c1	8a 50 0b	 mov	 dl, BYTE PTR [eax+11]
  000c4	84 d2		 test	 dl, dl
  000c6	74 40		 je	 SHORT $LN85@LoadInt_e
  000c8	80 f2 ea	 xor	 dl, -22			; ffffffeaH
  000cb	88 55 f7	 mov	 BYTE PTR __k$[ebp+11], dl
  000ce	8a 50 0c	 mov	 dl, BYTE PTR [eax+12]
  000d1	84 d2		 test	 dl, dl
  000d3	74 2d		 je	 SHORT $LN84@LoadInt_e
  000d5	80 f2 ed	 xor	 dl, -19			; ffffffedH
  000d8	88 55 f8	 mov	 BYTE PTR __k$[ebp+12], dl
  000db	8a 50 0d	 mov	 dl, BYTE PTR [eax+13]
  000de	84 d2		 test	 dl, dl
  000e0	74 1a		 je	 SHORT $LN83@LoadInt_e
  000e2	8a 40 0e	 mov	 al, BYTE PTR [eax+14]
  000e5	80 f2 ec	 xor	 dl, -20			; ffffffecH
  000e8	88 55 f9	 mov	 BYTE PTR __k$[ebp+13], dl
  000eb	84 c0		 test	 al, al
  000ed	74 07		 je	 SHORT $LN82@LoadInt_e
  000ef	34 eb		 xor	 al, -21			; ffffffebH
  000f1	88 45 fa	 mov	 BYTE PTR __k$[ebp+14], al
  000f4	eb 52		 jmp	 SHORT $LN1@LoadInt_e
$LN82@LoadInt_e:
  000f6	c6 45 fa eb	 mov	 BYTE PTR __k$[ebp+14], -21 ; ffffffebH
  000fa	eb 4c		 jmp	 SHORT $LN1@LoadInt_e
$LN83@LoadInt_e:
  000fc	c6 45 f9 ec	 mov	 BYTE PTR __k$[ebp+13], -20 ; ffffffecH
  00100	eb 46		 jmp	 SHORT $LN1@LoadInt_e
$LN84@LoadInt_e:
  00102	c6 45 f8 ed	 mov	 BYTE PTR __k$[ebp+12], -19 ; ffffffedH
  00106	eb 40		 jmp	 SHORT $LN1@LoadInt_e
$LN85@LoadInt_e:
  00108	c6 45 f7 ea	 mov	 BYTE PTR __k$[ebp+11], -22 ; ffffffeaH
  0010c	eb 3a		 jmp	 SHORT $LN1@LoadInt_e
$LN87@LoadInt_e:
  0010e	c6 45 f5 ec	 mov	 BYTE PTR __k$[ebp+9], -20 ; ffffffecH
  00112	eb 34		 jmp	 SHORT $LN1@LoadInt_e
$LN88@LoadInt_e:
  00114	c6 45 f4 ed	 mov	 BYTE PTR __k$[ebp+8], -19 ; ffffffedH
  00118	eb 2e		 jmp	 SHORT $LN1@LoadInt_e
$LN89@LoadInt_e:
  0011a	c6 45 f3 ea	 mov	 BYTE PTR __k$[ebp+7], -22 ; ffffffeaH
  0011e	eb 28		 jmp	 SHORT $LN1@LoadInt_e
$LN90@LoadInt_e:
  00120	c6 45 f2 eb	 mov	 BYTE PTR __k$[ebp+6], -21 ; ffffffebH
  00124	eb 22		 jmp	 SHORT $LN1@LoadInt_e
$LN91@LoadInt_e:
  00126	c6 45 f1 ec	 mov	 BYTE PTR __k$[ebp+5], -20 ; ffffffecH
  0012a	eb 1c		 jmp	 SHORT $LN1@LoadInt_e
$LN92@LoadInt_e:
  0012c	c6 45 f0 ed	 mov	 BYTE PTR __k$[ebp+4], -19 ; ffffffedH
  00130	eb 16		 jmp	 SHORT $LN1@LoadInt_e
$LN93@LoadInt_e:
  00132	c6 45 ef ea	 mov	 BYTE PTR __k$[ebp+3], -22 ; ffffffeaH
  00136	eb 10		 jmp	 SHORT $LN1@LoadInt_e
$LN94@LoadInt_e:
  00138	c6 45 ee eb	 mov	 BYTE PTR __k$[ebp+2], -21 ; ffffffebH
  0013c	eb 0a		 jmp	 SHORT $LN1@LoadInt_e
$LN95@LoadInt_e:
  0013e	c6 45 ed ec	 mov	 BYTE PTR __k$[ebp+1], -20 ; ffffffecH
  00142	eb 04		 jmp	 SHORT $LN1@LoadInt_e
$LN96@LoadInt_e:
  00144	c6 45 ec ed	 mov	 BYTE PTR __k$[ebp], -19	; ffffffedH
$LN1@LoadInt_e:
  00148	6a 02		 push	 2
  0014a	8d 45 ec	 lea	 eax, DWORD PTR __k$[ebp]
  0014d	c6 45 f6 00	 mov	 BYTE PTR __k$[ebp+10], 0
  00151	5a		 pop	 edx
$LL104@LoadInt_e:
  00152	81 30 ed ec eb
	ea		 xor	 DWORD PTR [eax], -353637139 ; eaebecedH
  00158	83 c0 04	 add	 eax, 4
  0015b	4a		 dec	 edx
  0015c	75 f4		 jne	 SHORT $LL104@LoadInt_e
  0015e	6a 08		 push	 8
  00160	58		 pop	 eax
$LL101@LoadInt_e:
  00161	8b c8		 mov	 ecx, eax
  00163	81 e1 03 00 00
	80		 and	 ecx, -2147483645	; 80000003H
  00169	79 05		 jns	 SHORT $LN111@LoadInt_e
  0016b	49		 dec	 ecx
  0016c	83 c9 fc	 or	 ecx, -4			; fffffffcH
  0016f	41		 inc	 ecx
$LN111@LoadInt_e:
  00170	b2 ed		 mov	 dl, -19			; ffffffedH
  00172	2a d1		 sub	 dl, cl
  00174	30 54 05 ec	 xor	 BYTE PTR __k$[ebp+eax], dl
  00178	40		 inc	 eax
  00179	83 f8 0a	 cmp	 eax, 10			; 0000000aH
  0017c	7c e3		 jl	 SHORT $LL101@LoadInt_e

; 120  : 		return LoadInt(_k, i);

  0017e	ff 75 0c	 push	 DWORD PTR _i$[ebp]
  00181	8d 45 ec	 lea	 eax, DWORD PTR __k$[ebp]
  00184	50		 push	 eax
  00185	8b ce		 mov	 ecx, esi
  00187	ff 15 00 00 00
	00		 call	 DWORD PTR __imp_?LoadInt@ioINILoader@@QAEHPBDH@Z

; 121  : 	}

  0018d	8b 4d fc	 mov	 ecx, DWORD PTR __$ArrayPad$[ebp]
  00190	33 cd		 xor	 ecx, ebp
  00192	5e		 pop	 esi
  00193	e8 00 00 00 00	 call	 @__security_check_cookie@4
  00198	c9		 leave
  00199	c2 08 00	 ret	 8
??$LoadInt_e@$0L@@ioINILoader@@QAEHAAY0L@$$CBDH@Z ENDP	; ioINILoader::LoadInt_e<11>
_TEXT	ENDS
PUBLIC	__$ArrayPad$
PUBLIC	??$LoadFloat_e@$05@ioINILoader@@QAEMAAY05$$CBDM@Z ; ioINILoader::LoadFloat_e<6>
EXTRN	__imp_?LoadFloat@ioINILoader@@QAEMPBDM@Z:PROC
; Function compile flags: /Ogsp
;	COMDAT ??$LoadFloat_e@$05@ioINILoader@@QAEMAAY05$$CBDM@Z
_TEXT	SEGMENT
__k$ = -16						; size = 6
__$ArrayPad$ = -4					; size = 4
_k$ = 8							; size = 4
_f$ = 12						; size = 4
??$LoadFloat_e@$05@ioINILoader@@QAEMAAY05$$CBDM@Z PROC	; ioINILoader::LoadFloat_e<6>, COMDAT
; _this$ = ecx

; 135  : 	{

  00000	55		 push	 ebp
  00001	8b ec		 mov	 ebp, esp
  00003	83 ec 10	 sub	 esp, 16			; 00000010H
  00006	a1 00 00 00 00	 mov	 eax, DWORD PTR ___security_cookie
  0000b	33 c5		 xor	 eax, ebp
  0000d	89 45 fc	 mov	 DWORD PTR __$ArrayPad$[ebp], eax
  00010	8b 45 08	 mov	 eax, DWORD PTR _k$[ebp]

; 136  : 		_ENCSTR(k, _k);

  00013	8a 10		 mov	 dl, BYTE PTR [eax]
  00015	84 d2		 test	 dl, dl
  00017	0f 84 a9 00 00
	00		 je	 $LN96@LoadFloat_
  0001d	80 f2 ed	 xor	 dl, -19			; ffffffedH
  00020	88 55 f0	 mov	 BYTE PTR __k$[ebp], dl
  00023	8a 50 01	 mov	 dl, BYTE PTR [eax+1]
  00026	84 d2		 test	 dl, dl
  00028	0f 84 92 00 00
	00		 je	 $LN95@LoadFloat_
  0002e	80 f2 ec	 xor	 dl, -20			; ffffffecH
  00031	88 55 f1	 mov	 BYTE PTR __k$[ebp+1], dl
  00034	8a 50 02	 mov	 dl, BYTE PTR [eax+2]
  00037	84 d2		 test	 dl, dl
  00039	74 7f		 je	 SHORT $LN94@LoadFloat_
  0003b	80 f2 eb	 xor	 dl, -21			; ffffffebH
  0003e	88 55 f2	 mov	 BYTE PTR __k$[ebp+2], dl
  00041	8a 50 03	 mov	 dl, BYTE PTR [eax+3]
  00044	84 d2		 test	 dl, dl
  00046	74 6c		 je	 SHORT $LN93@LoadFloat_
  00048	80 f2 ea	 xor	 dl, -22			; ffffffeaH
  0004b	88 55 f3	 mov	 BYTE PTR __k$[ebp+3], dl
  0004e	8a 50 04	 mov	 dl, BYTE PTR [eax+4]
  00051	84 d2		 test	 dl, dl
  00053	74 59		 je	 SHORT $LN92@LoadFloat_
  00055	80 f2 ed	 xor	 dl, -19			; ffffffedH
  00058	80 78 05 00	 cmp	 BYTE PTR [eax+5], 0
  0005c	88 55 f4	 mov	 BYTE PTR __k$[ebp+4], dl
  0005f	74 69		 je	 SHORT $LN1@LoadFloat_
  00061	8a 50 06	 mov	 dl, BYTE PTR [eax+6]
  00064	84 d2		 test	 dl, dl
  00066	74 40		 je	 SHORT $LN90@LoadFloat_
  00068	80 f2 eb	 xor	 dl, -21			; ffffffebH
  0006b	88 55 f6	 mov	 BYTE PTR __k$[ebp+6], dl
  0006e	8a 50 07	 mov	 dl, BYTE PTR [eax+7]
  00071	84 d2		 test	 dl, dl
  00073	74 2d		 je	 SHORT $LN89@LoadFloat_
  00075	80 f2 ea	 xor	 dl, -22			; ffffffeaH
  00078	88 55 f7	 mov	 BYTE PTR __k$[ebp+7], dl
  0007b	8a 50 08	 mov	 dl, BYTE PTR [eax+8]
  0007e	84 d2		 test	 dl, dl
  00080	74 1a		 je	 SHORT $LN88@LoadFloat_
  00082	8a 40 09	 mov	 al, BYTE PTR [eax+9]
  00085	80 f2 ed	 xor	 dl, -19			; ffffffedH
  00088	88 55 f8	 mov	 BYTE PTR __k$[ebp+8], dl
  0008b	84 c0		 test	 al, al
  0008d	74 07		 je	 SHORT $LN87@LoadFloat_
  0008f	34 ec		 xor	 al, -20			; ffffffecH
  00091	88 45 f9	 mov	 BYTE PTR __k$[ebp+9], al
  00094	eb 34		 jmp	 SHORT $LN1@LoadFloat_
$LN87@LoadFloat_:
  00096	c6 45 f9 ec	 mov	 BYTE PTR __k$[ebp+9], -20 ; ffffffecH
  0009a	eb 2e		 jmp	 SHORT $LN1@LoadFloat_
$LN88@LoadFloat_:
  0009c	c6 45 f8 ed	 mov	 BYTE PTR __k$[ebp+8], -19 ; ffffffedH
  000a0	eb 28		 jmp	 SHORT $LN1@LoadFloat_
$LN89@LoadFloat_:
  000a2	c6 45 f7 ea	 mov	 BYTE PTR __k$[ebp+7], -22 ; ffffffeaH
  000a6	eb 22		 jmp	 SHORT $LN1@LoadFloat_
$LN90@LoadFloat_:
  000a8	c6 45 f6 eb	 mov	 BYTE PTR __k$[ebp+6], -21 ; ffffffebH
  000ac	eb 1c		 jmp	 SHORT $LN1@LoadFloat_
$LN92@LoadFloat_:
  000ae	c6 45 f4 ed	 mov	 BYTE PTR __k$[ebp+4], -19 ; ffffffedH
  000b2	eb 16		 jmp	 SHORT $LN1@LoadFloat_
$LN93@LoadFloat_:
  000b4	c6 45 f3 ea	 mov	 BYTE PTR __k$[ebp+3], -22 ; ffffffeaH
  000b8	eb 10		 jmp	 SHORT $LN1@LoadFloat_
$LN94@LoadFloat_:
  000ba	c6 45 f2 eb	 mov	 BYTE PTR __k$[ebp+2], -21 ; ffffffebH
  000be	eb 0a		 jmp	 SHORT $LN1@LoadFloat_
$LN95@LoadFloat_:
  000c0	c6 45 f1 ec	 mov	 BYTE PTR __k$[ebp+1], -20 ; ffffffecH
  000c4	eb 04		 jmp	 SHORT $LN1@LoadFloat_
$LN96@LoadFloat_:
  000c6	c6 45 f0 ed	 mov	 BYTE PTR __k$[ebp], -19	; ffffffedH
$LN1@LoadFloat_:

; 137  : 		return LoadFloat(_k, f);

  000ca	f3 0f 10 45 0c	 movss	 xmm0, DWORD PTR _f$[ebp]
  000cf	81 75 f0 ed ec
	eb ea		 xor	 DWORD PTR __k$[ebp], -353637139 ; eaebecedH
  000d6	80 75 f4 ed	 xor	 BYTE PTR __k$[ebp+4], -19 ; ffffffedH
  000da	51		 push	 ecx
  000db	8d 45 f0	 lea	 eax, DWORD PTR __k$[ebp]
  000de	f3 0f 11 04 24	 movss	 DWORD PTR [esp], xmm0
  000e3	50		 push	 eax
  000e4	c6 45 f5 00	 mov	 BYTE PTR __k$[ebp+5], 0
  000e8	ff 15 00 00 00
	00		 call	 DWORD PTR __imp_?LoadFloat@ioINILoader@@QAEMPBDM@Z

; 138  : 	}

  000ee	8b 4d fc	 mov	 ecx, DWORD PTR __$ArrayPad$[ebp]
  000f1	33 cd		 xor	 ecx, ebp
  000f3	e8 00 00 00 00	 call	 @__security_check_cookie@4
  000f8	c9		 leave
  000f9	c2 08 00	 ret	 8
??$LoadFloat_e@$05@ioINILoader@@QAEMAAY05$$CBDM@Z ENDP	; ioINILoader::LoadFloat_e<6>
_TEXT	ENDS
PUBLIC	__$ArrayPad$
PUBLIC	??$LoadFloat_e@$0BA@@ioINILoader@@QAEMAAY0BA@$$CBDM@Z ; ioINILoader::LoadFloat_e<16>
; Function compile flags: /Ogsp
;	COMDAT ??$LoadFloat_e@$0BA@@ioINILoader@@QAEMAAY0BA@$$CBDM@Z
_TEXT	SEGMENT
__k$ = -24						; size = 16
__$ArrayPad$ = -4					; size = 4
_k$ = 8							; size = 4
_f$ = 12						; size = 4
??$LoadFloat_e@$0BA@@ioINILoader@@QAEMAAY0BA@$$CBDM@Z PROC ; ioINILoader::LoadFloat_e<16>, COMDAT
; _this$ = ecx

; 135  : 	{

  00000	55		 push	 ebp
  00001	8b ec		 mov	 ebp, esp
  00003	83 ec 18	 sub	 esp, 24			; 00000018H
  00006	a1 00 00 00 00	 mov	 eax, DWORD PTR ___security_cookie
  0000b	33 c5		 xor	 eax, ebp
  0000d	89 45 fc	 mov	 DWORD PTR __$ArrayPad$[ebp], eax
  00010	8b 45 08	 mov	 eax, DWORD PTR _k$[ebp]

; 136  : 		_ENCSTR(k, _k);

  00013	8a 10		 mov	 dl, BYTE PTR [eax]
  00015	56		 push	 esi
  00016	8b f1		 mov	 esi, ecx
  00018	84 d2		 test	 dl, dl
  0001a	0f 84 8c 01 00
	00		 je	 $LN96@LoadFloat_@2
  00020	80 f2 ed	 xor	 dl, -19			; ffffffedH
  00023	88 55 e8	 mov	 BYTE PTR __k$[ebp], dl
  00026	8a 50 01	 mov	 dl, BYTE PTR [eax+1]
  00029	84 d2		 test	 dl, dl
  0002b	0f 84 75 01 00
	00		 je	 $LN95@LoadFloat_@2
  00031	80 f2 ec	 xor	 dl, -20			; ffffffecH
  00034	88 55 e9	 mov	 BYTE PTR __k$[ebp+1], dl
  00037	8a 50 02	 mov	 dl, BYTE PTR [eax+2]
  0003a	84 d2		 test	 dl, dl
  0003c	0f 84 5e 01 00
	00		 je	 $LN94@LoadFloat_@2
  00042	b1 eb		 mov	 cl, -21			; ffffffebH
  00044	32 d1		 xor	 dl, cl
  00046	88 55 ea	 mov	 BYTE PTR __k$[ebp+2], dl
  00049	8a 50 03	 mov	 dl, BYTE PTR [eax+3]
  0004c	84 d2		 test	 dl, dl
  0004e	0f 84 46 01 00
	00		 je	 $LN93@LoadFloat_@2
  00054	80 f2 ea	 xor	 dl, -22			; ffffffeaH
  00057	88 55 eb	 mov	 BYTE PTR __k$[ebp+3], dl
  0005a	8a 50 04	 mov	 dl, BYTE PTR [eax+4]
  0005d	84 d2		 test	 dl, dl
  0005f	0f 84 2f 01 00
	00		 je	 $LN92@LoadFloat_@2
  00065	80 f2 ed	 xor	 dl, -19			; ffffffedH
  00068	88 55 ec	 mov	 BYTE PTR __k$[ebp+4], dl
  0006b	8a 50 05	 mov	 dl, BYTE PTR [eax+5]
  0006e	84 d2		 test	 dl, dl
  00070	0f 84 18 01 00
	00		 je	 $LN91@LoadFloat_@2
  00076	80 f2 ec	 xor	 dl, -20			; ffffffecH
  00079	88 55 ed	 mov	 BYTE PTR __k$[ebp+5], dl
  0007c	8a 50 06	 mov	 dl, BYTE PTR [eax+6]
  0007f	84 d2		 test	 dl, dl
  00081	0f 84 02 01 00
	00		 je	 $LN90@LoadFloat_@2
  00087	32 d1		 xor	 dl, cl
  00089	88 55 ee	 mov	 BYTE PTR __k$[ebp+6], dl
  0008c	8a 50 07	 mov	 dl, BYTE PTR [eax+7]
  0008f	84 d2		 test	 dl, dl
  00091	0f 84 ec 00 00
	00		 je	 $LN89@LoadFloat_@2
  00097	80 f2 ea	 xor	 dl, -22			; ffffffeaH
  0009a	88 55 ef	 mov	 BYTE PTR __k$[ebp+7], dl
  0009d	8a 50 08	 mov	 dl, BYTE PTR [eax+8]
  000a0	84 d2		 test	 dl, dl
  000a2	0f 84 d5 00 00
	00		 je	 $LN88@LoadFloat_@2
  000a8	80 f2 ed	 xor	 dl, -19			; ffffffedH
  000ab	88 55 f0	 mov	 BYTE PTR __k$[ebp+8], dl
  000ae	8a 50 09	 mov	 dl, BYTE PTR [eax+9]
  000b1	84 d2		 test	 dl, dl
  000b3	0f 84 be 00 00
	00		 je	 $LN87@LoadFloat_@2
  000b9	80 f2 ec	 xor	 dl, -20			; ffffffecH
  000bc	88 55 f1	 mov	 BYTE PTR __k$[ebp+9], dl
  000bf	8a 50 0a	 mov	 dl, BYTE PTR [eax+10]
  000c2	84 d2		 test	 dl, dl
  000c4	0f 84 a8 00 00
	00		 je	 $LN86@LoadFloat_@2
  000ca	32 d1		 xor	 dl, cl
  000cc	88 55 f2	 mov	 BYTE PTR __k$[ebp+10], dl
  000cf	8a 50 0b	 mov	 dl, BYTE PTR [eax+11]
  000d2	84 d2		 test	 dl, dl
  000d4	0f 84 92 00 00
	00		 je	 $LN85@LoadFloat_@2
  000da	80 f2 ea	 xor	 dl, -22			; ffffffeaH
  000dd	88 55 f3	 mov	 BYTE PTR __k$[ebp+11], dl
  000e0	8a 50 0c	 mov	 dl, BYTE PTR [eax+12]
  000e3	84 d2		 test	 dl, dl
  000e5	74 7f		 je	 SHORT $LN84@LoadFloat_@2
  000e7	80 f2 ed	 xor	 dl, -19			; ffffffedH
  000ea	88 55 f4	 mov	 BYTE PTR __k$[ebp+12], dl
  000ed	8a 50 0d	 mov	 dl, BYTE PTR [eax+13]
  000f0	84 d2		 test	 dl, dl
  000f2	74 6c		 je	 SHORT $LN83@LoadFloat_@2
  000f4	80 f2 ec	 xor	 dl, -20			; ffffffecH
  000f7	88 55 f5	 mov	 BYTE PTR __k$[ebp+13], dl
  000fa	8a 50 0e	 mov	 dl, BYTE PTR [eax+14]
  000fd	84 d2		 test	 dl, dl
  000ff	74 5a		 je	 SHORT $LN82@LoadFloat_@2
  00101	32 d1		 xor	 dl, cl
  00103	80 78 0f 00	 cmp	 BYTE PTR [eax+15], 0
  00107	88 55 f6	 mov	 BYTE PTR __k$[ebp+14], dl
  0010a	0f 84 a0 00 00
	00		 je	 $LN1@LoadFloat_@2
  00110	8a 50 10	 mov	 dl, BYTE PTR [eax+16]
  00113	84 d2		 test	 dl, dl
  00115	74 3e		 je	 SHORT $LN80@LoadFloat_@2
  00117	80 f2 ed	 xor	 dl, -19			; ffffffedH
  0011a	88 55 f8	 mov	 BYTE PTR __k$[ebp+16], dl
  0011d	8a 50 11	 mov	 dl, BYTE PTR [eax+17]
  00120	84 d2		 test	 dl, dl
  00122	74 2b		 je	 SHORT $LN79@LoadFloat_@2
  00124	80 f2 ec	 xor	 dl, -20			; ffffffecH
  00127	88 55 f9	 mov	 BYTE PTR __k$[ebp+17], dl
  0012a	8a 50 12	 mov	 dl, BYTE PTR [eax+18]
  0012d	84 d2		 test	 dl, dl
  0012f	74 19		 je	 SHORT $LN78@LoadFloat_@2
  00131	8a 40 13	 mov	 al, BYTE PTR [eax+19]
  00134	32 d1		 xor	 dl, cl
  00136	88 55 fa	 mov	 BYTE PTR __k$[ebp+18], dl
  00139	84 c0		 test	 al, al
  0013b	74 07		 je	 SHORT $LN77@LoadFloat_@2
  0013d	34 ea		 xor	 al, -22			; ffffffeaH
  0013f	88 45 fb	 mov	 BYTE PTR __k$[ebp+19], al
  00142	eb 6c		 jmp	 SHORT $LN1@LoadFloat_@2
$LN77@LoadFloat_@2:
  00144	c6 45 fb ea	 mov	 BYTE PTR __k$[ebp+19], -22 ; ffffffeaH
  00148	eb 66		 jmp	 SHORT $LN1@LoadFloat_@2
$LN78@LoadFloat_@2:
  0014a	88 4d fa	 mov	 BYTE PTR __k$[ebp+18], cl
  0014d	eb 61		 jmp	 SHORT $LN1@LoadFloat_@2
$LN79@LoadFloat_@2:
  0014f	c6 45 f9 ec	 mov	 BYTE PTR __k$[ebp+17], -20 ; ffffffecH
  00153	eb 5b		 jmp	 SHORT $LN1@LoadFloat_@2
$LN80@LoadFloat_@2:
  00155	c6 45 f8 ed	 mov	 BYTE PTR __k$[ebp+16], -19 ; ffffffedH
  00159	eb 55		 jmp	 SHORT $LN1@LoadFloat_@2
$LN82@LoadFloat_@2:
  0015b	88 4d f6	 mov	 BYTE PTR __k$[ebp+14], cl
  0015e	eb 50		 jmp	 SHORT $LN1@LoadFloat_@2
$LN83@LoadFloat_@2:
  00160	c6 45 f5 ec	 mov	 BYTE PTR __k$[ebp+13], -20 ; ffffffecH
  00164	eb 4a		 jmp	 SHORT $LN1@LoadFloat_@2
$LN84@LoadFloat_@2:
  00166	c6 45 f4 ed	 mov	 BYTE PTR __k$[ebp+12], -19 ; ffffffedH
  0016a	eb 44		 jmp	 SHORT $LN1@LoadFloat_@2
$LN85@LoadFloat_@2:
  0016c	c6 45 f3 ea	 mov	 BYTE PTR __k$[ebp+11], -22 ; ffffffeaH
  00170	eb 3e		 jmp	 SHORT $LN1@LoadFloat_@2
$LN86@LoadFloat_@2:
  00172	88 4d f2	 mov	 BYTE PTR __k$[ebp+10], cl
  00175	eb 39		 jmp	 SHORT $LN1@LoadFloat_@2
$LN87@LoadFloat_@2:
  00177	c6 45 f1 ec	 mov	 BYTE PTR __k$[ebp+9], -20 ; ffffffecH
  0017b	eb 33		 jmp	 SHORT $LN1@LoadFloat_@2
$LN88@LoadFloat_@2:
  0017d	c6 45 f0 ed	 mov	 BYTE PTR __k$[ebp+8], -19 ; ffffffedH
  00181	eb 2d		 jmp	 SHORT $LN1@LoadFloat_@2
$LN89@LoadFloat_@2:
  00183	c6 45 ef ea	 mov	 BYTE PTR __k$[ebp+7], -22 ; ffffffeaH
  00187	eb 27		 jmp	 SHORT $LN1@LoadFloat_@2
$LN90@LoadFloat_@2:
  00189	88 4d ee	 mov	 BYTE PTR __k$[ebp+6], cl
  0018c	eb 22		 jmp	 SHORT $LN1@LoadFloat_@2
$LN91@LoadFloat_@2:
  0018e	c6 45 ed ec	 mov	 BYTE PTR __k$[ebp+5], -20 ; ffffffecH
  00192	eb 1c		 jmp	 SHORT $LN1@LoadFloat_@2
$LN92@LoadFloat_@2:
  00194	c6 45 ec ed	 mov	 BYTE PTR __k$[ebp+4], -19 ; ffffffedH
  00198	eb 16		 jmp	 SHORT $LN1@LoadFloat_@2
$LN93@LoadFloat_@2:
  0019a	c6 45 eb ea	 mov	 BYTE PTR __k$[ebp+3], -22 ; ffffffeaH
  0019e	eb 10		 jmp	 SHORT $LN1@LoadFloat_@2
$LN94@LoadFloat_@2:
  001a0	c6 45 ea eb	 mov	 BYTE PTR __k$[ebp+2], -21 ; ffffffebH
  001a4	eb 0a		 jmp	 SHORT $LN1@LoadFloat_@2
$LN95@LoadFloat_@2:
  001a6	c6 45 e9 ec	 mov	 BYTE PTR __k$[ebp+1], -20 ; ffffffecH
  001aa	eb 04		 jmp	 SHORT $LN1@LoadFloat_@2
$LN96@LoadFloat_@2:
  001ac	c6 45 e8 ed	 mov	 BYTE PTR __k$[ebp], -19	; ffffffedH
$LN1@LoadFloat_@2:
  001b0	6a 03		 push	 3
  001b2	8d 45 e8	 lea	 eax, DWORD PTR __k$[ebp]
  001b5	c6 45 f7 00	 mov	 BYTE PTR __k$[ebp+15], 0
  001b9	5a		 pop	 edx
$LL104@LoadFloat_@2:
  001ba	81 30 ed ec eb
	ea		 xor	 DWORD PTR [eax], -353637139 ; eaebecedH
  001c0	83 c0 04	 add	 eax, 4
  001c3	4a		 dec	 edx
  001c4	75 f4		 jne	 SHORT $LL104@LoadFloat_@2
  001c6	6a 0c		 push	 12			; 0000000cH
  001c8	58		 pop	 eax
$LL101@LoadFloat_@2:
  001c9	8b c8		 mov	 ecx, eax
  001cb	81 e1 03 00 00
	80		 and	 ecx, -2147483645	; 80000003H
  001d1	79 05		 jns	 SHORT $LN111@LoadFloat_@2
  001d3	49		 dec	 ecx
  001d4	83 c9 fc	 or	 ecx, -4			; fffffffcH
  001d7	41		 inc	 ecx
$LN111@LoadFloat_@2:
  001d8	b2 ed		 mov	 dl, -19			; ffffffedH
  001da	2a d1		 sub	 dl, cl
  001dc	30 54 05 e8	 xor	 BYTE PTR __k$[ebp+eax], dl
  001e0	40		 inc	 eax
  001e1	83 f8 0f	 cmp	 eax, 15			; 0000000fH
  001e4	7c e3		 jl	 SHORT $LL101@LoadFloat_@2

; 137  : 		return LoadFloat(_k, f);

  001e6	f3 0f 10 45 0c	 movss	 xmm0, DWORD PTR _f$[ebp]
  001eb	51		 push	 ecx
  001ec	8d 45 e8	 lea	 eax, DWORD PTR __k$[ebp]
  001ef	f3 0f 11 04 24	 movss	 DWORD PTR [esp], xmm0
  001f4	50		 push	 eax
  001f5	8b ce		 mov	 ecx, esi
  001f7	ff 15 00 00 00
	00		 call	 DWORD PTR __imp_?LoadFloat@ioINILoader@@QAEMPBDM@Z

; 138  : 	}

  001fd	8b 4d fc	 mov	 ecx, DWORD PTR __$ArrayPad$[ebp]
  00200	33 cd		 xor	 ecx, ebp
  00202	5e		 pop	 esi
  00203	e8 00 00 00 00	 call	 @__security_check_cookie@4
  00208	c9		 leave
  00209	c2 08 00	 ret	 8
??$LoadFloat_e@$0BA@@ioINILoader@@QAEMAAY0BA@$$CBDM@Z ENDP ; ioINILoader::LoadFloat_e<16>
_TEXT	ENDS
PUBLIC	__$ArrayPad$
PUBLIC	??$LoadFloat_e@$08@ioINILoader@@QAEMAAY08$$CBDM@Z ; ioINILoader::LoadFloat_e<9>
; Function compile flags: /Ogsp
;	COMDAT ??$LoadFloat_e@$08@ioINILoader@@QAEMAAY08$$CBDM@Z
_TEXT	SEGMENT
__k$ = -20						; size = 9
__$ArrayPad$ = -4					; size = 4
_k$ = 8							; size = 4
_f$ = 12						; size = 4
??$LoadFloat_e@$08@ioINILoader@@QAEMAAY08$$CBDM@Z PROC	; ioINILoader::LoadFloat_e<9>, COMDAT
; _this$ = ecx

; 135  : 	{

  00000	55		 push	 ebp
  00001	8b ec		 mov	 ebp, esp
  00003	83 ec 14	 sub	 esp, 20			; 00000014H
  00006	a1 00 00 00 00	 mov	 eax, DWORD PTR ___security_cookie
  0000b	33 c5		 xor	 eax, ebp
  0000d	89 45 fc	 mov	 DWORD PTR __$ArrayPad$[ebp], eax
  00010	8b 45 08	 mov	 eax, DWORD PTR _k$[ebp]

; 136  : 		_ENCSTR(k, _k);

  00013	8a 10		 mov	 dl, BYTE PTR [eax]
  00015	84 d2		 test	 dl, dl
  00017	0f 84 ee 00 00
	00		 je	 $LN96@LoadFloat_@3
  0001d	80 f2 ed	 xor	 dl, -19			; ffffffedH
  00020	88 55 ec	 mov	 BYTE PTR __k$[ebp], dl
  00023	8a 50 01	 mov	 dl, BYTE PTR [eax+1]
  00026	84 d2		 test	 dl, dl
  00028	0f 84 d7 00 00
	00		 je	 $LN95@LoadFloat_@3
  0002e	80 f2 ec	 xor	 dl, -20			; ffffffecH
  00031	88 55 ed	 mov	 BYTE PTR __k$[ebp+1], dl
  00034	8a 50 02	 mov	 dl, BYTE PTR [eax+2]
  00037	84 d2		 test	 dl, dl
  00039	0f 84 c0 00 00
	00		 je	 $LN94@LoadFloat_@3
  0003f	80 f2 eb	 xor	 dl, -21			; ffffffebH
  00042	88 55 ee	 mov	 BYTE PTR __k$[ebp+2], dl
  00045	8a 50 03	 mov	 dl, BYTE PTR [eax+3]
  00048	84 d2		 test	 dl, dl
  0004a	0f 84 a9 00 00
	00		 je	 $LN93@LoadFloat_@3
  00050	80 f2 ea	 xor	 dl, -22			; ffffffeaH
  00053	88 55 ef	 mov	 BYTE PTR __k$[ebp+3], dl
  00056	8a 50 04	 mov	 dl, BYTE PTR [eax+4]
  00059	84 d2		 test	 dl, dl
  0005b	0f 84 92 00 00
	00		 je	 $LN92@LoadFloat_@3
  00061	80 f2 ed	 xor	 dl, -19			; ffffffedH
  00064	88 55 f0	 mov	 BYTE PTR __k$[ebp+4], dl
  00067	8a 50 05	 mov	 dl, BYTE PTR [eax+5]
  0006a	84 d2		 test	 dl, dl
  0006c	74 7f		 je	 SHORT $LN91@LoadFloat_@3
  0006e	80 f2 ec	 xor	 dl, -20			; ffffffecH
  00071	88 55 f1	 mov	 BYTE PTR __k$[ebp+5], dl
  00074	8a 50 06	 mov	 dl, BYTE PTR [eax+6]
  00077	84 d2		 test	 dl, dl
  00079	74 6c		 je	 SHORT $LN90@LoadFloat_@3
  0007b	80 f2 eb	 xor	 dl, -21			; ffffffebH
  0007e	88 55 f2	 mov	 BYTE PTR __k$[ebp+6], dl
  00081	8a 50 07	 mov	 dl, BYTE PTR [eax+7]
  00084	84 d2		 test	 dl, dl
  00086	74 59		 je	 SHORT $LN89@LoadFloat_@3
  00088	80 f2 ea	 xor	 dl, -22			; ffffffeaH
  0008b	80 78 08 00	 cmp	 BYTE PTR [eax+8], 0
  0008f	88 55 f3	 mov	 BYTE PTR __k$[ebp+7], dl
  00092	74 7b		 je	 SHORT $LN1@LoadFloat_@3
  00094	8a 50 09	 mov	 dl, BYTE PTR [eax+9]
  00097	84 d2		 test	 dl, dl
  00099	74 40		 je	 SHORT $LN87@LoadFloat_@3
  0009b	80 f2 ec	 xor	 dl, -20			; ffffffecH
  0009e	88 55 f5	 mov	 BYTE PTR __k$[ebp+9], dl
  000a1	8a 50 0a	 mov	 dl, BYTE PTR [eax+10]
  000a4	84 d2		 test	 dl, dl
  000a6	74 2d		 je	 SHORT $LN86@LoadFloat_@3
  000a8	80 f2 eb	 xor	 dl, -21			; ffffffebH
  000ab	88 55 f6	 mov	 BYTE PTR __k$[ebp+10], dl
  000ae	8a 50 0b	 mov	 dl, BYTE PTR [eax+11]
  000b1	84 d2		 test	 dl, dl
  000b3	74 1a		 je	 SHORT $LN85@LoadFloat_@3
  000b5	8a 40 0c	 mov	 al, BYTE PTR [eax+12]
  000b8	80 f2 ea	 xor	 dl, -22			; ffffffeaH
  000bb	88 55 f7	 mov	 BYTE PTR __k$[ebp+11], dl
  000be	84 c0		 test	 al, al
  000c0	74 07		 je	 SHORT $LN84@LoadFloat_@3
  000c2	34 ed		 xor	 al, -19			; ffffffedH
  000c4	88 45 f8	 mov	 BYTE PTR __k$[ebp+12], al
  000c7	eb 46		 jmp	 SHORT $LN1@LoadFloat_@3
$LN84@LoadFloat_@3:
  000c9	c6 45 f8 ed	 mov	 BYTE PTR __k$[ebp+12], -19 ; ffffffedH
  000cd	eb 40		 jmp	 SHORT $LN1@LoadFloat_@3
$LN85@LoadFloat_@3:
  000cf	c6 45 f7 ea	 mov	 BYTE PTR __k$[ebp+11], -22 ; ffffffeaH
  000d3	eb 3a		 jmp	 SHORT $LN1@LoadFloat_@3
$LN86@LoadFloat_@3:
  000d5	c6 45 f6 eb	 mov	 BYTE PTR __k$[ebp+10], -21 ; ffffffebH
  000d9	eb 34		 jmp	 SHORT $LN1@LoadFloat_@3
$LN87@LoadFloat_@3:
  000db	c6 45 f5 ec	 mov	 BYTE PTR __k$[ebp+9], -20 ; ffffffecH
  000df	eb 2e		 jmp	 SHORT $LN1@LoadFloat_@3
$LN89@LoadFloat_@3:
  000e1	c6 45 f3 ea	 mov	 BYTE PTR __k$[ebp+7], -22 ; ffffffeaH
  000e5	eb 28		 jmp	 SHORT $LN1@LoadFloat_@3
$LN90@LoadFloat_@3:
  000e7	c6 45 f2 eb	 mov	 BYTE PTR __k$[ebp+6], -21 ; ffffffebH
  000eb	eb 22		 jmp	 SHORT $LN1@LoadFloat_@3
$LN91@LoadFloat_@3:
  000ed	c6 45 f1 ec	 mov	 BYTE PTR __k$[ebp+5], -20 ; ffffffecH
  000f1	eb 1c		 jmp	 SHORT $LN1@LoadFloat_@3
$LN92@LoadFloat_@3:
  000f3	c6 45 f0 ed	 mov	 BYTE PTR __k$[ebp+4], -19 ; ffffffedH
  000f7	eb 16		 jmp	 SHORT $LN1@LoadFloat_@3
$LN93@LoadFloat_@3:
  000f9	c6 45 ef ea	 mov	 BYTE PTR __k$[ebp+3], -22 ; ffffffeaH
  000fd	eb 10		 jmp	 SHORT $LN1@LoadFloat_@3
$LN94@LoadFloat_@3:
  000ff	c6 45 ee eb	 mov	 BYTE PTR __k$[ebp+2], -21 ; ffffffebH
  00103	eb 0a		 jmp	 SHORT $LN1@LoadFloat_@3
$LN95@LoadFloat_@3:
  00105	c6 45 ed ec	 mov	 BYTE PTR __k$[ebp+1], -20 ; ffffffecH
  00109	eb 04		 jmp	 SHORT $LN1@LoadFloat_@3
$LN96@LoadFloat_@3:
  0010b	c6 45 ec ed	 mov	 BYTE PTR __k$[ebp], -19	; ffffffedH
$LN1@LoadFloat_@3:
  0010f	6a 02		 push	 2
  00111	8d 45 ec	 lea	 eax, DWORD PTR __k$[ebp]
  00114	c6 45 f4 00	 mov	 BYTE PTR __k$[ebp+8], 0
  00118	5a		 pop	 edx
$LL104@LoadFloat_@3:
  00119	81 30 ed ec eb
	ea		 xor	 DWORD PTR [eax], -353637139 ; eaebecedH
  0011f	83 c0 04	 add	 eax, 4
  00122	4a		 dec	 edx
  00123	75 f4		 jne	 SHORT $LL104@LoadFloat_@3

; 137  : 		return LoadFloat(_k, f);

  00125	f3 0f 10 45 0c	 movss	 xmm0, DWORD PTR _f$[ebp]
  0012a	51		 push	 ecx
  0012b	8d 45 ec	 lea	 eax, DWORD PTR __k$[ebp]
  0012e	f3 0f 11 04 24	 movss	 DWORD PTR [esp], xmm0
  00133	50		 push	 eax
  00134	ff 15 00 00 00
	00		 call	 DWORD PTR __imp_?LoadFloat@ioINILoader@@QAEMPBDM@Z

; 138  : 	}

  0013a	8b 4d fc	 mov	 ecx, DWORD PTR __$ArrayPad$[ebp]
  0013d	33 cd		 xor	 ecx, ebp
  0013f	e8 00 00 00 00	 call	 @__security_check_cookie@4
  00144	c9		 leave
  00145	c2 08 00	 ret	 8
??$LoadFloat_e@$08@ioINILoader@@QAEMAAY08$$CBDM@Z ENDP	; ioINILoader::LoadFloat_e<9>
_TEXT	ENDS
PUBLIC	__$ArrayPad$
PUBLIC	??$LoadFloat_e@$06@ioINILoader@@QAEMAAY06$$CBDM@Z ; ioINILoader::LoadFloat_e<7>
; Function compile flags: /Ogsp
;	COMDAT ??$LoadFloat_e@$06@ioINILoader@@QAEMAAY06$$CBDM@Z
_TEXT	SEGMENT
__k$ = -16						; size = 7
__$ArrayPad$ = -4					; size = 4
_k$ = 8							; size = 4
_f$ = 12						; size = 4
??$LoadFloat_e@$06@ioINILoader@@QAEMAAY06$$CBDM@Z PROC	; ioINILoader::LoadFloat_e<7>, COMDAT
; _this$ = ecx

; 135  : 	{

  00000	55		 push	 ebp
  00001	8b ec		 mov	 ebp, esp
  00003	83 ec 10	 sub	 esp, 16			; 00000010H
  00006	a1 00 00 00 00	 mov	 eax, DWORD PTR ___security_cookie
  0000b	33 c5		 xor	 eax, ebp
  0000d	89 45 fc	 mov	 DWORD PTR __$ArrayPad$[ebp], eax
  00010	8b 45 08	 mov	 eax, DWORD PTR _k$[ebp]

; 136  : 		_ENCSTR(k, _k);

  00013	8a 10		 mov	 dl, BYTE PTR [eax]
  00015	56		 push	 esi
  00016	8b f1		 mov	 esi, ecx
  00018	84 d2		 test	 dl, dl
  0001a	0f 84 c0 00 00
	00		 je	 $LN96@LoadFloat_@4
  00020	80 f2 ed	 xor	 dl, -19			; ffffffedH
  00023	88 55 f0	 mov	 BYTE PTR __k$[ebp], dl
  00026	8a 50 01	 mov	 dl, BYTE PTR [eax+1]
  00029	84 d2		 test	 dl, dl
  0002b	0f 84 a9 00 00
	00		 je	 $LN95@LoadFloat_@4
  00031	80 f2 ec	 xor	 dl, -20			; ffffffecH
  00034	88 55 f1	 mov	 BYTE PTR __k$[ebp+1], dl
  00037	8a 50 02	 mov	 dl, BYTE PTR [eax+2]
  0003a	84 d2		 test	 dl, dl
  0003c	0f 84 92 00 00
	00		 je	 $LN94@LoadFloat_@4
  00042	80 f2 eb	 xor	 dl, -21			; ffffffebH
  00045	88 55 f2	 mov	 BYTE PTR __k$[ebp+2], dl
  00048	8a 50 03	 mov	 dl, BYTE PTR [eax+3]
  0004b	84 d2		 test	 dl, dl
  0004d	74 7f		 je	 SHORT $LN93@LoadFloat_@4
  0004f	80 f2 ea	 xor	 dl, -22			; ffffffeaH
  00052	88 55 f3	 mov	 BYTE PTR __k$[ebp+3], dl
  00055	8a 50 04	 mov	 dl, BYTE PTR [eax+4]
  00058	84 d2		 test	 dl, dl
  0005a	74 6c		 je	 SHORT $LN92@LoadFloat_@4
  0005c	80 f2 ed	 xor	 dl, -19			; ffffffedH
  0005f	88 55 f4	 mov	 BYTE PTR __k$[ebp+4], dl
  00062	8a 50 05	 mov	 dl, BYTE PTR [eax+5]
  00065	84 d2		 test	 dl, dl
  00067	74 59		 je	 SHORT $LN91@LoadFloat_@4
  00069	80 f2 ec	 xor	 dl, -20			; ffffffecH
  0006c	80 78 06 00	 cmp	 BYTE PTR [eax+6], 0
  00070	88 55 f5	 mov	 BYTE PTR __k$[ebp+5], dl
  00073	74 6f		 je	 SHORT $LN1@LoadFloat_@4
  00075	8a 50 07	 mov	 dl, BYTE PTR [eax+7]
  00078	84 d2		 test	 dl, dl
  0007a	74 40		 je	 SHORT $LN89@LoadFloat_@4
  0007c	80 f2 ea	 xor	 dl, -22			; ffffffeaH
  0007f	88 55 f7	 mov	 BYTE PTR __k$[ebp+7], dl
  00082	8a 50 08	 mov	 dl, BYTE PTR [eax+8]
  00085	84 d2		 test	 dl, dl
  00087	74 2d		 je	 SHORT $LN88@LoadFloat_@4
  00089	80 f2 ed	 xor	 dl, -19			; ffffffedH
  0008c	88 55 f8	 mov	 BYTE PTR __k$[ebp+8], dl
  0008f	8a 50 09	 mov	 dl, BYTE PTR [eax+9]
  00092	84 d2		 test	 dl, dl
  00094	74 1a		 je	 SHORT $LN87@LoadFloat_@4
  00096	8a 40 0a	 mov	 al, BYTE PTR [eax+10]
  00099	80 f2 ec	 xor	 dl, -20			; ffffffecH
  0009c	88 55 f9	 mov	 BYTE PTR __k$[ebp+9], dl
  0009f	84 c0		 test	 al, al
  000a1	74 07		 je	 SHORT $LN86@LoadFloat_@4
  000a3	34 eb		 xor	 al, -21			; ffffffebH
  000a5	88 45 fa	 mov	 BYTE PTR __k$[ebp+10], al
  000a8	eb 3a		 jmp	 SHORT $LN1@LoadFloat_@4
$LN86@LoadFloat_@4:
  000aa	c6 45 fa eb	 mov	 BYTE PTR __k$[ebp+10], -21 ; ffffffebH
  000ae	eb 34		 jmp	 SHORT $LN1@LoadFloat_@4
$LN87@LoadFloat_@4:
  000b0	c6 45 f9 ec	 mov	 BYTE PTR __k$[ebp+9], -20 ; ffffffecH
  000b4	eb 2e		 jmp	 SHORT $LN1@LoadFloat_@4
$LN88@LoadFloat_@4:
  000b6	c6 45 f8 ed	 mov	 BYTE PTR __k$[ebp+8], -19 ; ffffffedH
  000ba	eb 28		 jmp	 SHORT $LN1@LoadFloat_@4
$LN89@LoadFloat_@4:
  000bc	c6 45 f7 ea	 mov	 BYTE PTR __k$[ebp+7], -22 ; ffffffeaH
  000c0	eb 22		 jmp	 SHORT $LN1@LoadFloat_@4
$LN91@LoadFloat_@4:
  000c2	c6 45 f5 ec	 mov	 BYTE PTR __k$[ebp+5], -20 ; ffffffecH
  000c6	eb 1c		 jmp	 SHORT $LN1@LoadFloat_@4
$LN92@LoadFloat_@4:
  000c8	c6 45 f4 ed	 mov	 BYTE PTR __k$[ebp+4], -19 ; ffffffedH
  000cc	eb 16		 jmp	 SHORT $LN1@LoadFloat_@4
$LN93@LoadFloat_@4:
  000ce	c6 45 f3 ea	 mov	 BYTE PTR __k$[ebp+3], -22 ; ffffffeaH
  000d2	eb 10		 jmp	 SHORT $LN1@LoadFloat_@4
$LN94@LoadFloat_@4:
  000d4	c6 45 f2 eb	 mov	 BYTE PTR __k$[ebp+2], -21 ; ffffffebH
  000d8	eb 0a		 jmp	 SHORT $LN1@LoadFloat_@4
$LN95@LoadFloat_@4:
  000da	c6 45 f1 ec	 mov	 BYTE PTR __k$[ebp+1], -20 ; ffffffecH
  000de	eb 04		 jmp	 SHORT $LN1@LoadFloat_@4
$LN96@LoadFloat_@4:
  000e0	c6 45 f0 ed	 mov	 BYTE PTR __k$[ebp], -19	; ffffffedH
$LN1@LoadFloat_@4:
  000e4	81 75 f0 ed ec
	eb ea		 xor	 DWORD PTR __k$[ebp], -353637139 ; eaebecedH
  000eb	6a 04		 push	 4
  000ed	c6 45 f6 00	 mov	 BYTE PTR __k$[ebp+6], 0
  000f1	58		 pop	 eax
$LL101@LoadFloat_@4:
  000f2	8b c8		 mov	 ecx, eax
  000f4	81 e1 03 00 00
	80		 and	 ecx, -2147483645	; 80000003H
  000fa	79 05		 jns	 SHORT $LN111@LoadFloat_@4
  000fc	49		 dec	 ecx
  000fd	83 c9 fc	 or	 ecx, -4			; fffffffcH
  00100	41		 inc	 ecx
$LN111@LoadFloat_@4:
  00101	b2 ed		 mov	 dl, -19			; ffffffedH
  00103	2a d1		 sub	 dl, cl
  00105	30 54 05 f0	 xor	 BYTE PTR __k$[ebp+eax], dl
  00109	40		 inc	 eax
  0010a	83 f8 06	 cmp	 eax, 6
  0010d	7c e3		 jl	 SHORT $LL101@LoadFloat_@4

; 137  : 		return LoadFloat(_k, f);

  0010f	f3 0f 10 45 0c	 movss	 xmm0, DWORD PTR _f$[ebp]
  00114	51		 push	 ecx
  00115	8d 45 f0	 lea	 eax, DWORD PTR __k$[ebp]
  00118	f3 0f 11 04 24	 movss	 DWORD PTR [esp], xmm0
  0011d	50		 push	 eax
  0011e	8b ce		 mov	 ecx, esi
  00120	ff 15 00 00 00
	00		 call	 DWORD PTR __imp_?LoadFloat@ioINILoader@@QAEMPBDM@Z

; 138  : 	}

  00126	8b 4d fc	 mov	 ecx, DWORD PTR __$ArrayPad$[ebp]
  00129	33 cd		 xor	 ecx, ebp
  0012b	5e		 pop	 esi
  0012c	e8 00 00 00 00	 call	 @__security_check_cookie@4
  00131	c9		 leave
  00132	c2 08 00	 ret	 8
??$LoadFloat_e@$06@ioINILoader@@QAEMAAY06$$CBDM@Z ENDP	; ioINILoader::LoadFloat_e<7>
_TEXT	ENDS
PUBLIC	__$ArrayPad$
PUBLIC	??$LoadFloat_e@$0M@@ioINILoader@@QAEMAAY0M@$$CBDM@Z ; ioINILoader::LoadFloat_e<12>
; Function compile flags: /Ogsp
;	COMDAT ??$LoadFloat_e@$0M@@ioINILoader@@QAEMAAY0M@$$CBDM@Z
_TEXT	SEGMENT
__k$ = -20						; size = 12
__$ArrayPad$ = -4					; size = 4
_k$ = 8							; size = 4
_f$ = 12						; size = 4
??$LoadFloat_e@$0M@@ioINILoader@@QAEMAAY0M@$$CBDM@Z PROC ; ioINILoader::LoadFloat_e<12>, COMDAT
; _this$ = ecx

; 135  : 	{

  00000	55		 push	 ebp
  00001	8b ec		 mov	 ebp, esp
  00003	83 ec 14	 sub	 esp, 20			; 00000014H
  00006	a1 00 00 00 00	 mov	 eax, DWORD PTR ___security_cookie
  0000b	33 c5		 xor	 eax, ebp
  0000d	89 45 fc	 mov	 DWORD PTR __$ArrayPad$[ebp], eax
  00010	8b 45 08	 mov	 eax, DWORD PTR _k$[ebp]

; 136  : 		_ENCSTR(k, _k);

  00013	8a 10		 mov	 dl, BYTE PTR [eax]
  00015	56		 push	 esi
  00016	8b f1		 mov	 esi, ecx
  00018	84 d2		 test	 dl, dl
  0001a	0f 84 32 01 00
	00		 je	 $LN96@LoadFloat_@5
  00020	80 f2 ed	 xor	 dl, -19			; ffffffedH
  00023	88 55 ec	 mov	 BYTE PTR __k$[ebp], dl
  00026	8a 50 01	 mov	 dl, BYTE PTR [eax+1]
  00029	84 d2		 test	 dl, dl
  0002b	0f 84 1b 01 00
	00		 je	 $LN95@LoadFloat_@5
  00031	80 f2 ec	 xor	 dl, -20			; ffffffecH
  00034	88 55 ed	 mov	 BYTE PTR __k$[ebp+1], dl
  00037	8a 50 02	 mov	 dl, BYTE PTR [eax+2]
  0003a	84 d2		 test	 dl, dl
  0003c	0f 84 04 01 00
	00		 je	 $LN94@LoadFloat_@5
  00042	b1 eb		 mov	 cl, -21			; ffffffebH
  00044	32 d1		 xor	 dl, cl
  00046	88 55 ee	 mov	 BYTE PTR __k$[ebp+2], dl
  00049	8a 50 03	 mov	 dl, BYTE PTR [eax+3]
  0004c	84 d2		 test	 dl, dl
  0004e	0f 84 ec 00 00
	00		 je	 $LN93@LoadFloat_@5
  00054	80 f2 ea	 xor	 dl, -22			; ffffffeaH
  00057	88 55 ef	 mov	 BYTE PTR __k$[ebp+3], dl
  0005a	8a 50 04	 mov	 dl, BYTE PTR [eax+4]
  0005d	84 d2		 test	 dl, dl
  0005f	0f 84 d5 00 00
	00		 je	 $LN92@LoadFloat_@5
  00065	80 f2 ed	 xor	 dl, -19			; ffffffedH
  00068	88 55 f0	 mov	 BYTE PTR __k$[ebp+4], dl
  0006b	8a 50 05	 mov	 dl, BYTE PTR [eax+5]
  0006e	84 d2		 test	 dl, dl
  00070	0f 84 be 00 00
	00		 je	 $LN91@LoadFloat_@5
  00076	80 f2 ec	 xor	 dl, -20			; ffffffecH
  00079	88 55 f1	 mov	 BYTE PTR __k$[ebp+5], dl
  0007c	8a 50 06	 mov	 dl, BYTE PTR [eax+6]
  0007f	84 d2		 test	 dl, dl
  00081	0f 84 a8 00 00
	00		 je	 $LN90@LoadFloat_@5
  00087	32 d1		 xor	 dl, cl
  00089	88 55 f2	 mov	 BYTE PTR __k$[ebp+6], dl
  0008c	8a 50 07	 mov	 dl, BYTE PTR [eax+7]
  0008f	84 d2		 test	 dl, dl
  00091	0f 84 92 00 00
	00		 je	 $LN89@LoadFloat_@5
  00097	80 f2 ea	 xor	 dl, -22			; ffffffeaH
  0009a	88 55 f3	 mov	 BYTE PTR __k$[ebp+7], dl
  0009d	8a 50 08	 mov	 dl, BYTE PTR [eax+8]
  000a0	84 d2		 test	 dl, dl
  000a2	74 7f		 je	 SHORT $LN88@LoadFloat_@5
  000a4	80 f2 ed	 xor	 dl, -19			; ffffffedH
  000a7	88 55 f4	 mov	 BYTE PTR __k$[ebp+8], dl
  000aa	8a 50 09	 mov	 dl, BYTE PTR [eax+9]
  000ad	84 d2		 test	 dl, dl
  000af	74 6c		 je	 SHORT $LN87@LoadFloat_@5
  000b1	80 f2 ec	 xor	 dl, -20			; ffffffecH
  000b4	88 55 f5	 mov	 BYTE PTR __k$[ebp+9], dl
  000b7	8a 50 0a	 mov	 dl, BYTE PTR [eax+10]
  000ba	84 d2		 test	 dl, dl
  000bc	74 5a		 je	 SHORT $LN86@LoadFloat_@5
  000be	32 d1		 xor	 dl, cl
  000c0	80 78 0b 00	 cmp	 BYTE PTR [eax+11], 0
  000c4	88 55 f6	 mov	 BYTE PTR __k$[ebp+10], dl
  000c7	0f 84 89 00 00
	00		 je	 $LN1@LoadFloat_@5
  000cd	8a 50 0c	 mov	 dl, BYTE PTR [eax+12]
  000d0	84 d2		 test	 dl, dl
  000d2	74 3e		 je	 SHORT $LN84@LoadFloat_@5
  000d4	80 f2 ed	 xor	 dl, -19			; ffffffedH
  000d7	88 55 f8	 mov	 BYTE PTR __k$[ebp+12], dl
  000da	8a 50 0d	 mov	 dl, BYTE PTR [eax+13]
  000dd	84 d2		 test	 dl, dl
  000df	74 2b		 je	 SHORT $LN83@LoadFloat_@5
  000e1	80 f2 ec	 xor	 dl, -20			; ffffffecH
  000e4	88 55 f9	 mov	 BYTE PTR __k$[ebp+13], dl
  000e7	8a 50 0e	 mov	 dl, BYTE PTR [eax+14]
  000ea	84 d2		 test	 dl, dl
  000ec	74 19		 je	 SHORT $LN82@LoadFloat_@5
  000ee	8a 40 0f	 mov	 al, BYTE PTR [eax+15]
  000f1	32 d1		 xor	 dl, cl
  000f3	88 55 fa	 mov	 BYTE PTR __k$[ebp+14], dl
  000f6	84 c0		 test	 al, al
  000f8	74 07		 je	 SHORT $LN81@LoadFloat_@5
  000fa	34 ea		 xor	 al, -22			; ffffffeaH
  000fc	88 45 fb	 mov	 BYTE PTR __k$[ebp+15], al
  000ff	eb 55		 jmp	 SHORT $LN1@LoadFloat_@5
$LN81@LoadFloat_@5:
  00101	c6 45 fb ea	 mov	 BYTE PTR __k$[ebp+15], -22 ; ffffffeaH
  00105	eb 4f		 jmp	 SHORT $LN1@LoadFloat_@5
$LN82@LoadFloat_@5:
  00107	88 4d fa	 mov	 BYTE PTR __k$[ebp+14], cl
  0010a	eb 4a		 jmp	 SHORT $LN1@LoadFloat_@5
$LN83@LoadFloat_@5:
  0010c	c6 45 f9 ec	 mov	 BYTE PTR __k$[ebp+13], -20 ; ffffffecH
  00110	eb 44		 jmp	 SHORT $LN1@LoadFloat_@5
$LN84@LoadFloat_@5:
  00112	c6 45 f8 ed	 mov	 BYTE PTR __k$[ebp+12], -19 ; ffffffedH
  00116	eb 3e		 jmp	 SHORT $LN1@LoadFloat_@5
$LN86@LoadFloat_@5:
  00118	88 4d f6	 mov	 BYTE PTR __k$[ebp+10], cl
  0011b	eb 39		 jmp	 SHORT $LN1@LoadFloat_@5
$LN87@LoadFloat_@5:
  0011d	c6 45 f5 ec	 mov	 BYTE PTR __k$[ebp+9], -20 ; ffffffecH
  00121	eb 33		 jmp	 SHORT $LN1@LoadFloat_@5
$LN88@LoadFloat_@5:
  00123	c6 45 f4 ed	 mov	 BYTE PTR __k$[ebp+8], -19 ; ffffffedH
  00127	eb 2d		 jmp	 SHORT $LN1@LoadFloat_@5
$LN89@LoadFloat_@5:
  00129	c6 45 f3 ea	 mov	 BYTE PTR __k$[ebp+7], -22 ; ffffffeaH
  0012d	eb 27		 jmp	 SHORT $LN1@LoadFloat_@5
$LN90@LoadFloat_@5:
  0012f	88 4d f2	 mov	 BYTE PTR __k$[ebp+6], cl
  00132	eb 22		 jmp	 SHORT $LN1@LoadFloat_@5
$LN91@LoadFloat_@5:
  00134	c6 45 f1 ec	 mov	 BYTE PTR __k$[ebp+5], -20 ; ffffffecH
  00138	eb 1c		 jmp	 SHORT $LN1@LoadFloat_@5
$LN92@LoadFloat_@5:
  0013a	c6 45 f0 ed	 mov	 BYTE PTR __k$[ebp+4], -19 ; ffffffedH
  0013e	eb 16		 jmp	 SHORT $LN1@LoadFloat_@5
$LN93@LoadFloat_@5:
  00140	c6 45 ef ea	 mov	 BYTE PTR __k$[ebp+3], -22 ; ffffffeaH
  00144	eb 10		 jmp	 SHORT $LN1@LoadFloat_@5
$LN94@LoadFloat_@5:
  00146	c6 45 ee eb	 mov	 BYTE PTR __k$[ebp+2], -21 ; ffffffebH
  0014a	eb 0a		 jmp	 SHORT $LN1@LoadFloat_@5
$LN95@LoadFloat_@5:
  0014c	c6 45 ed ec	 mov	 BYTE PTR __k$[ebp+1], -20 ; ffffffecH
  00150	eb 04		 jmp	 SHORT $LN1@LoadFloat_@5
$LN96@LoadFloat_@5:
  00152	c6 45 ec ed	 mov	 BYTE PTR __k$[ebp], -19	; ffffffedH
$LN1@LoadFloat_@5:
  00156	6a 02		 push	 2
  00158	8d 45 ec	 lea	 eax, DWORD PTR __k$[ebp]
  0015b	c6 45 f7 00	 mov	 BYTE PTR __k$[ebp+11], 0
  0015f	5a		 pop	 edx
$LL104@LoadFloat_@5:
  00160	81 30 ed ec eb
	ea		 xor	 DWORD PTR [eax], -353637139 ; eaebecedH
  00166	83 c0 04	 add	 eax, 4
  00169	4a		 dec	 edx
  0016a	75 f4		 jne	 SHORT $LL104@LoadFloat_@5
  0016c	6a 08		 push	 8
  0016e	58		 pop	 eax
$LL101@LoadFloat_@5:
  0016f	8b c8		 mov	 ecx, eax
  00171	81 e1 03 00 00
	80		 and	 ecx, -2147483645	; 80000003H
  00177	79 05		 jns	 SHORT $LN111@LoadFloat_@5
  00179	49		 dec	 ecx
  0017a	83 c9 fc	 or	 ecx, -4			; fffffffcH
  0017d	41		 inc	 ecx
$LN111@LoadFloat_@5:
  0017e	b2 ed		 mov	 dl, -19			; ffffffedH
  00180	2a d1		 sub	 dl, cl
  00182	30 54 05 ec	 xor	 BYTE PTR __k$[ebp+eax], dl
  00186	40		 inc	 eax
  00187	83 f8 0b	 cmp	 eax, 11			; 0000000bH
  0018a	7c e3		 jl	 SHORT $LL101@LoadFloat_@5

; 137  : 		return LoadFloat(_k, f);

  0018c	f3 0f 10 45 0c	 movss	 xmm0, DWORD PTR _f$[ebp]
  00191	51		 push	 ecx
  00192	8d 45 ec	 lea	 eax, DWORD PTR __k$[ebp]
  00195	f3 0f 11 04 24	 movss	 DWORD PTR [esp], xmm0
  0019a	50		 push	 eax
  0019b	8b ce		 mov	 ecx, esi
  0019d	ff 15 00 00 00
	00		 call	 DWORD PTR __imp_?LoadFloat@ioINILoader@@QAEMPBDM@Z

; 138  : 	}

  001a3	8b 4d fc	 mov	 ecx, DWORD PTR __$ArrayPad$[ebp]
  001a6	33 cd		 xor	 ecx, ebp
  001a8	5e		 pop	 esi
  001a9	e8 00 00 00 00	 call	 @__security_check_cookie@4
  001ae	c9		 leave
  001af	c2 08 00	 ret	 8
??$LoadFloat_e@$0M@@ioINILoader@@QAEMAAY0M@$$CBDM@Z ENDP ; ioINILoader::LoadFloat_e<12>
_TEXT	ENDS
PUBLIC	__$ArrayPad$
PUBLIC	??$LoadInt_e@$0BB@@ioINILoader@@QAEHAAY0BB@$$CBDH@Z ; ioINILoader::LoadInt_e<17>
; Function compile flags: /Ogsp
;	COMDAT ??$LoadInt_e@$0BB@@ioINILoader@@QAEHAAY0BB@$$CBDH@Z
_TEXT	SEGMENT
__k$ = -28						; size = 17
__$ArrayPad$ = -4					; size = 4
_k$ = 8							; size = 4
_i$ = 12						; size = 4
??$LoadInt_e@$0BB@@ioINILoader@@QAEHAAY0BB@$$CBDH@Z PROC ; ioINILoader::LoadInt_e<17>, COMDAT
; _this$ = ecx

; 118  : 	{

  00000	55		 push	 ebp
  00001	8b ec		 mov	 ebp, esp
  00003	83 ec 1c	 sub	 esp, 28			; 0000001cH
  00006	a1 00 00 00 00	 mov	 eax, DWORD PTR ___security_cookie
  0000b	33 c5		 xor	 eax, ebp
  0000d	89 45 fc	 mov	 DWORD PTR __$ArrayPad$[ebp], eax
  00010	8b 45 08	 mov	 eax, DWORD PTR _k$[ebp]

; 119  : 		_ENCSTR(k, _k);

  00013	8a 10		 mov	 dl, BYTE PTR [eax]
  00015	56		 push	 esi
  00016	8b f1		 mov	 esi, ecx
  00018	84 d2		 test	 dl, dl
  0001a	0f 84 a7 01 00
	00		 je	 $LN96@LoadInt_e@2
  00020	80 f2 ed	 xor	 dl, -19			; ffffffedH
  00023	88 55 e4	 mov	 BYTE PTR __k$[ebp], dl
  00026	8a 50 01	 mov	 dl, BYTE PTR [eax+1]
  00029	84 d2		 test	 dl, dl
  0002b	0f 84 90 01 00
	00		 je	 $LN95@LoadInt_e@2
  00031	b1 ec		 mov	 cl, -20			; ffffffecH
  00033	32 d1		 xor	 dl, cl
  00035	88 55 e5	 mov	 BYTE PTR __k$[ebp+1], dl
  00038	8a 50 02	 mov	 dl, BYTE PTR [eax+2]
  0003b	84 d2		 test	 dl, dl
  0003d	0f 84 78 01 00
	00		 je	 $LN94@LoadInt_e@2
  00043	80 f2 eb	 xor	 dl, -21			; ffffffebH
  00046	88 55 e6	 mov	 BYTE PTR __k$[ebp+2], dl
  00049	8a 50 03	 mov	 dl, BYTE PTR [eax+3]
  0004c	84 d2		 test	 dl, dl
  0004e	0f 84 61 01 00
	00		 je	 $LN93@LoadInt_e@2
  00054	80 f2 ea	 xor	 dl, -22			; ffffffeaH
  00057	88 55 e7	 mov	 BYTE PTR __k$[ebp+3], dl
  0005a	8a 50 04	 mov	 dl, BYTE PTR [eax+4]
  0005d	84 d2		 test	 dl, dl
  0005f	0f 84 4a 01 00
	00		 je	 $LN92@LoadInt_e@2
  00065	80 f2 ed	 xor	 dl, -19			; ffffffedH
  00068	88 55 e8	 mov	 BYTE PTR __k$[ebp+4], dl
  0006b	8a 50 05	 mov	 dl, BYTE PTR [eax+5]
  0006e	84 d2		 test	 dl, dl
  00070	0f 84 34 01 00
	00		 je	 $LN91@LoadInt_e@2
  00076	32 d1		 xor	 dl, cl
  00078	88 55 e9	 mov	 BYTE PTR __k$[ebp+5], dl
  0007b	8a 50 06	 mov	 dl, BYTE PTR [eax+6]
  0007e	84 d2		 test	 dl, dl
  00080	0f 84 1e 01 00
	00		 je	 $LN90@LoadInt_e@2
  00086	80 f2 eb	 xor	 dl, -21			; ffffffebH
  00089	88 55 ea	 mov	 BYTE PTR __k$[ebp+6], dl
  0008c	8a 50 07	 mov	 dl, BYTE PTR [eax+7]
  0008f	84 d2		 test	 dl, dl
  00091	0f 84 07 01 00
	00		 je	 $LN89@LoadInt_e@2
  00097	80 f2 ea	 xor	 dl, -22			; ffffffeaH
  0009a	88 55 eb	 mov	 BYTE PTR __k$[ebp+7], dl
  0009d	8a 50 08	 mov	 dl, BYTE PTR [eax+8]
  000a0	84 d2		 test	 dl, dl
  000a2	0f 84 f0 00 00
	00		 je	 $LN88@LoadInt_e@2
  000a8	80 f2 ed	 xor	 dl, -19			; ffffffedH
  000ab	88 55 ec	 mov	 BYTE PTR __k$[ebp+8], dl
  000ae	8a 50 09	 mov	 dl, BYTE PTR [eax+9]
  000b1	84 d2		 test	 dl, dl
  000b3	0f 84 da 00 00
	00		 je	 $LN87@LoadInt_e@2
  000b9	32 d1		 xor	 dl, cl
  000bb	88 55 ed	 mov	 BYTE PTR __k$[ebp+9], dl
  000be	8a 50 0a	 mov	 dl, BYTE PTR [eax+10]
  000c1	84 d2		 test	 dl, dl
  000c3	0f 84 c4 00 00
	00		 je	 $LN86@LoadInt_e@2
  000c9	80 f2 eb	 xor	 dl, -21			; ffffffebH
  000cc	88 55 ee	 mov	 BYTE PTR __k$[ebp+10], dl
  000cf	8a 50 0b	 mov	 dl, BYTE PTR [eax+11]
  000d2	84 d2		 test	 dl, dl
  000d4	0f 84 ad 00 00
	00		 je	 $LN85@LoadInt_e@2
  000da	80 f2 ea	 xor	 dl, -22			; ffffffeaH
  000dd	88 55 ef	 mov	 BYTE PTR __k$[ebp+11], dl
  000e0	8a 50 0c	 mov	 dl, BYTE PTR [eax+12]
  000e3	84 d2		 test	 dl, dl
  000e5	0f 84 96 00 00
	00		 je	 $LN84@LoadInt_e@2
  000eb	80 f2 ed	 xor	 dl, -19			; ffffffedH
  000ee	88 55 f0	 mov	 BYTE PTR __k$[ebp+12], dl
  000f1	8a 50 0d	 mov	 dl, BYTE PTR [eax+13]
  000f4	84 d2		 test	 dl, dl
  000f6	0f 84 80 00 00
	00		 je	 $LN83@LoadInt_e@2
  000fc	32 d1		 xor	 dl, cl
  000fe	88 55 f1	 mov	 BYTE PTR __k$[ebp+13], dl
  00101	8a 50 0e	 mov	 dl, BYTE PTR [eax+14]
  00104	84 d2		 test	 dl, dl
  00106	74 6e		 je	 SHORT $LN82@LoadInt_e@2
  00108	80 f2 eb	 xor	 dl, -21			; ffffffebH
  0010b	88 55 f2	 mov	 BYTE PTR __k$[ebp+14], dl
  0010e	8a 50 0f	 mov	 dl, BYTE PTR [eax+15]
  00111	84 d2		 test	 dl, dl
  00113	74 5b		 je	 SHORT $LN81@LoadInt_e@2
  00115	80 f2 ea	 xor	 dl, -22			; ffffffeaH
  00118	80 78 10 00	 cmp	 BYTE PTR [eax+16], 0
  0011c	88 55 f3	 mov	 BYTE PTR __k$[ebp+15], dl
  0011f	0f 84 a6 00 00
	00		 je	 $LN1@LoadInt_e@2
  00125	8a 50 11	 mov	 dl, BYTE PTR [eax+17]
  00128	84 d2		 test	 dl, dl
  0012a	74 3f		 je	 SHORT $LN79@LoadInt_e@2
  0012c	32 d1		 xor	 dl, cl
  0012e	88 55 f5	 mov	 BYTE PTR __k$[ebp+17], dl
  00131	8a 50 12	 mov	 dl, BYTE PTR [eax+18]
  00134	84 d2		 test	 dl, dl
  00136	74 2d		 je	 SHORT $LN78@LoadInt_e@2
  00138	80 f2 eb	 xor	 dl, -21			; ffffffebH
  0013b	88 55 f6	 mov	 BYTE PTR __k$[ebp+18], dl
  0013e	8a 50 13	 mov	 dl, BYTE PTR [eax+19]
  00141	84 d2		 test	 dl, dl
  00143	74 1a		 je	 SHORT $LN77@LoadInt_e@2
  00145	8a 40 14	 mov	 al, BYTE PTR [eax+20]
  00148	80 f2 ea	 xor	 dl, -22			; ffffffeaH
  0014b	88 55 f7	 mov	 BYTE PTR __k$[ebp+19], dl
  0014e	84 c0		 test	 al, al
  00150	74 07		 je	 SHORT $LN76@LoadInt_e@2
  00152	34 ed		 xor	 al, -19			; ffffffedH
  00154	88 45 f8	 mov	 BYTE PTR __k$[ebp+20], al
  00157	eb 72		 jmp	 SHORT $LN1@LoadInt_e@2
$LN76@LoadInt_e@2:
  00159	c6 45 f8 ed	 mov	 BYTE PTR __k$[ebp+20], -19 ; ffffffedH
  0015d	eb 6c		 jmp	 SHORT $LN1@LoadInt_e@2
$LN77@LoadInt_e@2:
  0015f	c6 45 f7 ea	 mov	 BYTE PTR __k$[ebp+19], -22 ; ffffffeaH
  00163	eb 66		 jmp	 SHORT $LN1@LoadInt_e@2
$LN78@LoadInt_e@2:
  00165	c6 45 f6 eb	 mov	 BYTE PTR __k$[ebp+18], -21 ; ffffffebH
  00169	eb 60		 jmp	 SHORT $LN1@LoadInt_e@2
$LN79@LoadInt_e@2:
  0016b	88 4d f5	 mov	 BYTE PTR __k$[ebp+17], cl
  0016e	eb 5b		 jmp	 SHORT $LN1@LoadInt_e@2
$LN81@LoadInt_e@2:
  00170	c6 45 f3 ea	 mov	 BYTE PTR __k$[ebp+15], -22 ; ffffffeaH
  00174	eb 55		 jmp	 SHORT $LN1@LoadInt_e@2
$LN82@LoadInt_e@2:
  00176	c6 45 f2 eb	 mov	 BYTE PTR __k$[ebp+14], -21 ; ffffffebH
  0017a	eb 4f		 jmp	 SHORT $LN1@LoadInt_e@2
$LN83@LoadInt_e@2:
  0017c	88 4d f1	 mov	 BYTE PTR __k$[ebp+13], cl
  0017f	eb 4a		 jmp	 SHORT $LN1@LoadInt_e@2
$LN84@LoadInt_e@2:
  00181	c6 45 f0 ed	 mov	 BYTE PTR __k$[ebp+12], -19 ; ffffffedH
  00185	eb 44		 jmp	 SHORT $LN1@LoadInt_e@2
$LN85@LoadInt_e@2:
  00187	c6 45 ef ea	 mov	 BYTE PTR __k$[ebp+11], -22 ; ffffffeaH
  0018b	eb 3e		 jmp	 SHORT $LN1@LoadInt_e@2
$LN86@LoadInt_e@2:
  0018d	c6 45 ee eb	 mov	 BYTE PTR __k$[ebp+10], -21 ; ffffffebH
  00191	eb 38		 jmp	 SHORT $LN1@LoadInt_e@2
$LN87@LoadInt_e@2:
  00193	88 4d ed	 mov	 BYTE PTR __k$[ebp+9], cl
  00196	eb 33		 jmp	 SHORT $LN1@LoadInt_e@2
$LN88@LoadInt_e@2:
  00198	c6 45 ec ed	 mov	 BYTE PTR __k$[ebp+8], -19 ; ffffffedH
  0019c	eb 2d		 jmp	 SHORT $LN1@LoadInt_e@2
$LN89@LoadInt_e@2:
  0019e	c6 45 eb ea	 mov	 BYTE PTR __k$[ebp+7], -22 ; ffffffeaH
  001a2	eb 27		 jmp	 SHORT $LN1@LoadInt_e@2
$LN90@LoadInt_e@2:
  001a4	c6 45 ea eb	 mov	 BYTE PTR __k$[ebp+6], -21 ; ffffffebH
  001a8	eb 21		 jmp	 SHORT $LN1@LoadInt_e@2
$LN91@LoadInt_e@2:
  001aa	88 4d e9	 mov	 BYTE PTR __k$[ebp+5], cl
  001ad	eb 1c		 jmp	 SHORT $LN1@LoadInt_e@2
$LN92@LoadInt_e@2:
  001af	c6 45 e8 ed	 mov	 BYTE PTR __k$[ebp+4], -19 ; ffffffedH
  001b3	eb 16		 jmp	 SHORT $LN1@LoadInt_e@2
$LN93@LoadInt_e@2:
  001b5	c6 45 e7 ea	 mov	 BYTE PTR __k$[ebp+3], -22 ; ffffffeaH
  001b9	eb 10		 jmp	 SHORT $LN1@LoadInt_e@2
$LN94@LoadInt_e@2:
  001bb	c6 45 e6 eb	 mov	 BYTE PTR __k$[ebp+2], -21 ; ffffffebH
  001bf	eb 0a		 jmp	 SHORT $LN1@LoadInt_e@2
$LN95@LoadInt_e@2:
  001c1	c6 45 e5 ec	 mov	 BYTE PTR __k$[ebp+1], -20 ; ffffffecH
  001c5	eb 04		 jmp	 SHORT $LN1@LoadInt_e@2
$LN96@LoadInt_e@2:
  001c7	c6 45 e4 ed	 mov	 BYTE PTR __k$[ebp], -19	; ffffffedH
$LN1@LoadInt_e@2:
  001cb	6a 04		 push	 4
  001cd	8d 45 e4	 lea	 eax, DWORD PTR __k$[ebp]
  001d0	c6 45 f4 00	 mov	 BYTE PTR __k$[ebp+16], 0
  001d4	5a		 pop	 edx
$LL104@LoadInt_e@2:
  001d5	81 30 ed ec eb
	ea		 xor	 DWORD PTR [eax], -353637139 ; eaebecedH
  001db	83 c0 04	 add	 eax, 4
  001de	4a		 dec	 edx
  001df	75 f4		 jne	 SHORT $LL104@LoadInt_e@2

; 120  : 		return LoadInt(_k, i);

  001e1	ff 75 0c	 push	 DWORD PTR _i$[ebp]
  001e4	8d 45 e4	 lea	 eax, DWORD PTR __k$[ebp]
  001e7	50		 push	 eax
  001e8	8b ce		 mov	 ecx, esi
  001ea	ff 15 00 00 00
	00		 call	 DWORD PTR __imp_?LoadInt@ioINILoader@@QAEHPBDH@Z

; 121  : 	}

  001f0	8b 4d fc	 mov	 ecx, DWORD PTR __$ArrayPad$[ebp]
  001f3	33 cd		 xor	 ecx, ebp
  001f5	5e		 pop	 esi
  001f6	e8 00 00 00 00	 call	 @__security_check_cookie@4
  001fb	c9		 leave
  001fc	c2 08 00	 ret	 8
??$LoadInt_e@$0BB@@ioINILoader@@QAEHAAY0BB@$$CBDH@Z ENDP ; ioINILoader::LoadInt_e<17>
_TEXT	ENDS
PUBLIC	__$ArrayPad$
PUBLIC	??$LoadFloat_e@$0BB@@ioINILoader@@QAEMAAY0BB@$$CBDM@Z ; ioINILoader::LoadFloat_e<17>
; Function compile flags: /Ogsp
;	COMDAT ??$LoadFloat_e@$0BB@@ioINILoader@@QAEMAAY0BB@$$CBDM@Z
_TEXT	SEGMENT
__k$ = -28						; size = 17
__$ArrayPad$ = -4					; size = 4
_k$ = 8							; size = 4
_f$ = 12						; size = 4
??$LoadFloat_e@$0BB@@ioINILoader@@QAEMAAY0BB@$$CBDM@Z PROC ; ioINILoader::LoadFloat_e<17>, COMDAT
; _this$ = ecx

; 135  : 	{

  00000	55		 push	 ebp
  00001	8b ec		 mov	 ebp, esp
  00003	83 ec 1c	 sub	 esp, 28			; 0000001cH
  00006	a1 00 00 00 00	 mov	 eax, DWORD PTR ___security_cookie
  0000b	33 c5		 xor	 eax, ebp
  0000d	89 45 fc	 mov	 DWORD PTR __$ArrayPad$[ebp], eax
  00010	8b 45 08	 mov	 eax, DWORD PTR _k$[ebp]

; 136  : 		_ENCSTR(k, _k);

  00013	8a 10		 mov	 dl, BYTE PTR [eax]
  00015	56		 push	 esi
  00016	8b f1		 mov	 esi, ecx
  00018	84 d2		 test	 dl, dl
  0001a	0f 84 a7 01 00
	00		 je	 $LN96@LoadFloat_@6
  00020	80 f2 ed	 xor	 dl, -19			; ffffffedH
  00023	88 55 e4	 mov	 BYTE PTR __k$[ebp], dl
  00026	8a 50 01	 mov	 dl, BYTE PTR [eax+1]
  00029	84 d2		 test	 dl, dl
  0002b	0f 84 90 01 00
	00		 je	 $LN95@LoadFloat_@6
  00031	b1 ec		 mov	 cl, -20			; ffffffecH
  00033	32 d1		 xor	 dl, cl
  00035	88 55 e5	 mov	 BYTE PTR __k$[ebp+1], dl
  00038	8a 50 02	 mov	 dl, BYTE PTR [eax+2]
  0003b	84 d2		 test	 dl, dl
  0003d	0f 84 78 01 00
	00		 je	 $LN94@LoadFloat_@6
  00043	80 f2 eb	 xor	 dl, -21			; ffffffebH
  00046	88 55 e6	 mov	 BYTE PTR __k$[ebp+2], dl
  00049	8a 50 03	 mov	 dl, BYTE PTR [eax+3]
  0004c	84 d2		 test	 dl, dl
  0004e	0f 84 61 01 00
	00		 je	 $LN93@LoadFloat_@6
  00054	80 f2 ea	 xor	 dl, -22			; ffffffeaH
  00057	88 55 e7	 mov	 BYTE PTR __k$[ebp+3], dl
  0005a	8a 50 04	 mov	 dl, BYTE PTR [eax+4]
  0005d	84 d2		 test	 dl, dl
  0005f	0f 84 4a 01 00
	00		 je	 $LN92@LoadFloat_@6
  00065	80 f2 ed	 xor	 dl, -19			; ffffffedH
  00068	88 55 e8	 mov	 BYTE PTR __k$[ebp+4], dl
  0006b	8a 50 05	 mov	 dl, BYTE PTR [eax+5]
  0006e	84 d2		 test	 dl, dl
  00070	0f 84 34 01 00
	00		 je	 $LN91@LoadFloat_@6
  00076	32 d1		 xor	 dl, cl
  00078	88 55 e9	 mov	 BYTE PTR __k$[ebp+5], dl
  0007b	8a 50 06	 mov	 dl, BYTE PTR [eax+6]
  0007e	84 d2		 test	 dl, dl
  00080	0f 84 1e 01 00
	00		 je	 $LN90@LoadFloat_@6
  00086	80 f2 eb	 xor	 dl, -21			; ffffffebH
  00089	88 55 ea	 mov	 BYTE PTR __k$[ebp+6], dl
  0008c	8a 50 07	 mov	 dl, BYTE PTR [eax+7]
  0008f	84 d2		 test	 dl, dl
  00091	0f 84 07 01 00
	00		 je	 $LN89@LoadFloat_@6
  00097	80 f2 ea	 xor	 dl, -22			; ffffffeaH
  0009a	88 55 eb	 mov	 BYTE PTR __k$[ebp+7], dl
  0009d	8a 50 08	 mov	 dl, BYTE PTR [eax+8]
  000a0	84 d2		 test	 dl, dl
  000a2	0f 84 f0 00 00
	00		 je	 $LN88@LoadFloat_@6
  000a8	80 f2 ed	 xor	 dl, -19			; ffffffedH
  000ab	88 55 ec	 mov	 BYTE PTR __k$[ebp+8], dl
  000ae	8a 50 09	 mov	 dl, BYTE PTR [eax+9]
  000b1	84 d2		 test	 dl, dl
  000b3	0f 84 da 00 00
	00		 je	 $LN87@LoadFloat_@6
  000b9	32 d1		 xor	 dl, cl
  000bb	88 55 ed	 mov	 BYTE PTR __k$[ebp+9], dl
  000be	8a 50 0a	 mov	 dl, BYTE PTR [eax+10]
  000c1	84 d2		 test	 dl, dl
  000c3	0f 84 c4 00 00
	00		 je	 $LN86@LoadFloat_@6
  000c9	80 f2 eb	 xor	 dl, -21			; ffffffebH
  000cc	88 55 ee	 mov	 BYTE PTR __k$[ebp+10], dl
  000cf	8a 50 0b	 mov	 dl, BYTE PTR [eax+11]
  000d2	84 d2		 test	 dl, dl
  000d4	0f 84 ad 00 00
	00		 je	 $LN85@LoadFloat_@6
  000da	80 f2 ea	 xor	 dl, -22			; ffffffeaH
  000dd	88 55 ef	 mov	 BYTE PTR __k$[ebp+11], dl
  000e0	8a 50 0c	 mov	 dl, BYTE PTR [eax+12]
  000e3	84 d2		 test	 dl, dl
  000e5	0f 84 96 00 00
	00		 je	 $LN84@LoadFloat_@6
  000eb	80 f2 ed	 xor	 dl, -19			; ffffffedH
  000ee	88 55 f0	 mov	 BYTE PTR __k$[ebp+12], dl
  000f1	8a 50 0d	 mov	 dl, BYTE PTR [eax+13]
  000f4	84 d2		 test	 dl, dl
  000f6	0f 84 80 00 00
	00		 je	 $LN83@LoadFloat_@6
  000fc	32 d1		 xor	 dl, cl
  000fe	88 55 f1	 mov	 BYTE PTR __k$[ebp+13], dl
  00101	8a 50 0e	 mov	 dl, BYTE PTR [eax+14]
  00104	84 d2		 test	 dl, dl
  00106	74 6e		 je	 SHORT $LN82@LoadFloat_@6
  00108	80 f2 eb	 xor	 dl, -21			; ffffffebH
  0010b	88 55 f2	 mov	 BYTE PTR __k$[ebp+14], dl
  0010e	8a 50 0f	 mov	 dl, BYTE PTR [eax+15]
  00111	84 d2		 test	 dl, dl
  00113	74 5b		 je	 SHORT $LN81@LoadFloat_@6
  00115	80 f2 ea	 xor	 dl, -22			; ffffffeaH
  00118	80 78 10 00	 cmp	 BYTE PTR [eax+16], 0
  0011c	88 55 f3	 mov	 BYTE PTR __k$[ebp+15], dl
  0011f	0f 84 a6 00 00
	00		 je	 $LN1@LoadFloat_@6
  00125	8a 50 11	 mov	 dl, BYTE PTR [eax+17]
  00128	84 d2		 test	 dl, dl
  0012a	74 3f		 je	 SHORT $LN79@LoadFloat_@6
  0012c	32 d1		 xor	 dl, cl
  0012e	88 55 f5	 mov	 BYTE PTR __k$[ebp+17], dl
  00131	8a 50 12	 mov	 dl, BYTE PTR [eax+18]
  00134	84 d2		 test	 dl, dl
  00136	74 2d		 je	 SHORT $LN78@LoadFloat_@6
  00138	80 f2 eb	 xor	 dl, -21			; ffffffebH
  0013b	88 55 f6	 mov	 BYTE PTR __k$[ebp+18], dl
  0013e	8a 50 13	 mov	 dl, BYTE PTR [eax+19]
  00141	84 d2		 test	 dl, dl
  00143	74 1a		 je	 SHORT $LN77@LoadFloat_@6
  00145	8a 40 14	 mov	 al, BYTE PTR [eax+20]
  00148	80 f2 ea	 xor	 dl, -22			; ffffffeaH
  0014b	88 55 f7	 mov	 BYTE PTR __k$[ebp+19], dl
  0014e	84 c0		 test	 al, al
  00150	74 07		 je	 SHORT $LN76@LoadFloat_@6
  00152	34 ed		 xor	 al, -19			; ffffffedH
  00154	88 45 f8	 mov	 BYTE PTR __k$[ebp+20], al
  00157	eb 72		 jmp	 SHORT $LN1@LoadFloat_@6
$LN76@LoadFloat_@6:
  00159	c6 45 f8 ed	 mov	 BYTE PTR __k$[ebp+20], -19 ; ffffffedH
  0015d	eb 6c		 jmp	 SHORT $LN1@LoadFloat_@6
$LN77@LoadFloat_@6:
  0015f	c6 45 f7 ea	 mov	 BYTE PTR __k$[ebp+19], -22 ; ffffffeaH
  00163	eb 66		 jmp	 SHORT $LN1@LoadFloat_@6
$LN78@LoadFloat_@6:
  00165	c6 45 f6 eb	 mov	 BYTE PTR __k$[ebp+18], -21 ; ffffffebH
  00169	eb 60		 jmp	 SHORT $LN1@LoadFloat_@6
$LN79@LoadFloat_@6:
  0016b	88 4d f5	 mov	 BYTE PTR __k$[ebp+17], cl
  0016e	eb 5b		 jmp	 SHORT $LN1@LoadFloat_@6
$LN81@LoadFloat_@6:
  00170	c6 45 f3 ea	 mov	 BYTE PTR __k$[ebp+15], -22 ; ffffffeaH
  00174	eb 55		 jmp	 SHORT $LN1@LoadFloat_@6
$LN82@LoadFloat_@6:
  00176	c6 45 f2 eb	 mov	 BYTE PTR __k$[ebp+14], -21 ; ffffffebH
  0017a	eb 4f		 jmp	 SHORT $LN1@LoadFloat_@6
$LN83@LoadFloat_@6:
  0017c	88 4d f1	 mov	 BYTE PTR __k$[ebp+13], cl
  0017f	eb 4a		 jmp	 SHORT $LN1@LoadFloat_@6
$LN84@LoadFloat_@6:
  00181	c6 45 f0 ed	 mov	 BYTE PTR __k$[ebp+12], -19 ; ffffffedH
  00185	eb 44		 jmp	 SHORT $LN1@LoadFloat_@6
$LN85@LoadFloat_@6:
  00187	c6 45 ef ea	 mov	 BYTE PTR __k$[ebp+11], -22 ; ffffffeaH
  0018b	eb 3e		 jmp	 SHORT $LN1@LoadFloat_@6
$LN86@LoadFloat_@6:
  0018d	c6 45 ee eb	 mov	 BYTE PTR __k$[ebp+10], -21 ; ffffffebH
  00191	eb 38		 jmp	 SHORT $LN1@LoadFloat_@6
$LN87@LoadFloat_@6:
  00193	88 4d ed	 mov	 BYTE PTR __k$[ebp+9], cl
  00196	eb 33		 jmp	 SHORT $LN1@LoadFloat_@6
$LN88@LoadFloat_@6:
  00198	c6 45 ec ed	 mov	 BYTE PTR __k$[ebp+8], -19 ; ffffffedH
  0019c	eb 2d		 jmp	 SHORT $LN1@LoadFloat_@6
$LN89@LoadFloat_@6:
  0019e	c6 45 eb ea	 mov	 BYTE PTR __k$[ebp+7], -22 ; ffffffeaH
  001a2	eb 27		 jmp	 SHORT $LN1@LoadFloat_@6
$LN90@LoadFloat_@6:
  001a4	c6 45 ea eb	 mov	 BYTE PTR __k$[ebp+6], -21 ; ffffffebH
  001a8	eb 21		 jmp	 SHORT $LN1@LoadFloat_@6
$LN91@LoadFloat_@6:
  001aa	88 4d e9	 mov	 BYTE PTR __k$[ebp+5], cl
  001ad	eb 1c		 jmp	 SHORT $LN1@LoadFloat_@6
$LN92@LoadFloat_@6:
  001af	c6 45 e8 ed	 mov	 BYTE PTR __k$[ebp+4], -19 ; ffffffedH
  001b3	eb 16		 jmp	 SHORT $LN1@LoadFloat_@6
$LN93@LoadFloat_@6:
  001b5	c6 45 e7 ea	 mov	 BYTE PTR __k$[ebp+3], -22 ; ffffffeaH
  001b9	eb 10		 jmp	 SHORT $LN1@LoadFloat_@6
$LN94@LoadFloat_@6:
  001bb	c6 45 e6 eb	 mov	 BYTE PTR __k$[ebp+2], -21 ; ffffffebH
  001bf	eb 0a		 jmp	 SHORT $LN1@LoadFloat_@6
$LN95@LoadFloat_@6:
  001c1	c6 45 e5 ec	 mov	 BYTE PTR __k$[ebp+1], -20 ; ffffffecH
  001c5	eb 04		 jmp	 SHORT $LN1@LoadFloat_@6
$LN96@LoadFloat_@6:
  001c7	c6 45 e4 ed	 mov	 BYTE PTR __k$[ebp], -19	; ffffffedH
$LN1@LoadFloat_@6:
  001cb	6a 04		 push	 4
  001cd	8d 45 e4	 lea	 eax, DWORD PTR __k$[ebp]
  001d0	c6 45 f4 00	 mov	 BYTE PTR __k$[ebp+16], 0
  001d4	5a		 pop	 edx
$LL104@LoadFloat_@6:
  001d5	81 30 ed ec eb
	ea		 xor	 DWORD PTR [eax], -353637139 ; eaebecedH
  001db	83 c0 04	 add	 eax, 4
  001de	4a		 dec	 edx
  001df	75 f4		 jne	 SHORT $LL104@LoadFloat_@6

; 137  : 		return LoadFloat(_k, f);

  001e1	f3 0f 10 45 0c	 movss	 xmm0, DWORD PTR _f$[ebp]
  001e6	51		 push	 ecx
  001e7	8d 45 e4	 lea	 eax, DWORD PTR __k$[ebp]
  001ea	f3 0f 11 04 24	 movss	 DWORD PTR [esp], xmm0
  001ef	50		 push	 eax
  001f0	8b ce		 mov	 ecx, esi
  001f2	ff 15 00 00 00
	00		 call	 DWORD PTR __imp_?LoadFloat@ioINILoader@@QAEMPBDM@Z

; 138  : 	}

  001f8	8b 4d fc	 mov	 ecx, DWORD PTR __$ArrayPad$[ebp]
  001fb	33 cd		 xor	 ecx, ebp
  001fd	5e		 pop	 esi
  001fe	e8 00 00 00 00	 call	 @__security_check_cookie@4
  00203	c9		 leave
  00204	c2 08 00	 ret	 8
??$LoadFloat_e@$0BB@@ioINILoader@@QAEMAAY0BB@$$CBDM@Z ENDP ; ioINILoader::LoadFloat_e<17>
_TEXT	ENDS
PUBLIC	__$ArrayPad$
PUBLIC	??$LoadFloat_e@$0BH@@ioINILoader@@QAEMAAY0BH@$$CBDM@Z ; ioINILoader::LoadFloat_e<23>
; Function compile flags: /Ogsp
;	COMDAT ??$LoadFloat_e@$0BH@@ioINILoader@@QAEMAAY0BH@$$CBDM@Z
_TEXT	SEGMENT
__k$ = -32						; size = 23
__$ArrayPad$ = -4					; size = 4
_k$ = 8							; size = 4
_f$ = 12						; size = 4
??$LoadFloat_e@$0BH@@ioINILoader@@QAEMAAY0BH@$$CBDM@Z PROC ; ioINILoader::LoadFloat_e<23>, COMDAT
; _this$ = ecx

; 135  : 	{

  00000	55		 push	 ebp
  00001	8b ec		 mov	 ebp, esp
  00003	83 ec 20	 sub	 esp, 32			; 00000020H
  00006	a1 00 00 00 00	 mov	 eax, DWORD PTR ___security_cookie
  0000b	33 c5		 xor	 eax, ebp
  0000d	89 45 fc	 mov	 DWORD PTR __$ArrayPad$[ebp], eax
  00010	8b 45 08	 mov	 eax, DWORD PTR _k$[ebp]

; 136  : 		_ENCSTR(k, _k);

  00013	8a 10		 mov	 dl, BYTE PTR [eax]
  00015	53		 push	 ebx
  00016	56		 push	 esi
  00017	8b f1		 mov	 esi, ecx
  00019	84 d2		 test	 dl, dl
  0001b	0f 84 2d 02 00
	00		 je	 $LN96@LoadFloat_@7
  00021	80 f2 ed	 xor	 dl, -19			; ffffffedH
  00024	88 55 e0	 mov	 BYTE PTR __k$[ebp], dl
  00027	8a 50 01	 mov	 dl, BYTE PTR [eax+1]
  0002a	84 d2		 test	 dl, dl
  0002c	0f 84 16 02 00
	00		 je	 $LN95@LoadFloat_@7
  00032	b1 ec		 mov	 cl, -20			; ffffffecH
  00034	32 d1		 xor	 dl, cl
  00036	88 55 e1	 mov	 BYTE PTR __k$[ebp+1], dl
  00039	8a 50 02	 mov	 dl, BYTE PTR [eax+2]
  0003c	84 d2		 test	 dl, dl
  0003e	0f 84 fe 01 00
	00		 je	 $LN94@LoadFloat_@7
  00044	80 f2 eb	 xor	 dl, -21			; ffffffebH
  00047	88 55 e2	 mov	 BYTE PTR __k$[ebp+2], dl
  0004a	8a 50 03	 mov	 dl, BYTE PTR [eax+3]
  0004d	84 d2		 test	 dl, dl
  0004f	0f 84 e7 01 00
	00		 je	 $LN93@LoadFloat_@7
  00055	b3 ea		 mov	 bl, -22			; ffffffeaH
  00057	32 d3		 xor	 dl, bl
  00059	88 55 e3	 mov	 BYTE PTR __k$[ebp+3], dl
  0005c	8a 50 04	 mov	 dl, BYTE PTR [eax+4]
  0005f	84 d2		 test	 dl, dl
  00061	0f 84 cf 01 00
	00		 je	 $LN92@LoadFloat_@7
  00067	80 f2 ed	 xor	 dl, -19			; ffffffedH
  0006a	88 55 e4	 mov	 BYTE PTR __k$[ebp+4], dl
  0006d	8a 50 05	 mov	 dl, BYTE PTR [eax+5]
  00070	84 d2		 test	 dl, dl
  00072	0f 84 b9 01 00
	00		 je	 $LN91@LoadFloat_@7
  00078	32 d1		 xor	 dl, cl
  0007a	88 55 e5	 mov	 BYTE PTR __k$[ebp+5], dl
  0007d	8a 50 06	 mov	 dl, BYTE PTR [eax+6]
  00080	84 d2		 test	 dl, dl
  00082	0f 84 a3 01 00
	00		 je	 $LN90@LoadFloat_@7
  00088	80 f2 eb	 xor	 dl, -21			; ffffffebH
  0008b	88 55 e6	 mov	 BYTE PTR __k$[ebp+6], dl
  0008e	8a 50 07	 mov	 dl, BYTE PTR [eax+7]
  00091	84 d2		 test	 dl, dl
  00093	0f 84 8d 01 00
	00		 je	 $LN89@LoadFloat_@7
  00099	32 d3		 xor	 dl, bl
  0009b	88 55 e7	 mov	 BYTE PTR __k$[ebp+7], dl
  0009e	8a 50 08	 mov	 dl, BYTE PTR [eax+8]
  000a1	84 d2		 test	 dl, dl
  000a3	0f 84 77 01 00
	00		 je	 $LN88@LoadFloat_@7
  000a9	80 f2 ed	 xor	 dl, -19			; ffffffedH
  000ac	88 55 e8	 mov	 BYTE PTR __k$[ebp+8], dl
  000af	8a 50 09	 mov	 dl, BYTE PTR [eax+9]
  000b2	84 d2		 test	 dl, dl
  000b4	0f 84 61 01 00
	00		 je	 $LN87@LoadFloat_@7
  000ba	32 d1		 xor	 dl, cl
  000bc	88 55 e9	 mov	 BYTE PTR __k$[ebp+9], dl
  000bf	8a 50 0a	 mov	 dl, BYTE PTR [eax+10]
  000c2	84 d2		 test	 dl, dl
  000c4	0f 84 4b 01 00
	00		 je	 $LN86@LoadFloat_@7
  000ca	80 f2 eb	 xor	 dl, -21			; ffffffebH
  000cd	88 55 ea	 mov	 BYTE PTR __k$[ebp+10], dl
  000d0	8a 50 0b	 mov	 dl, BYTE PTR [eax+11]
  000d3	84 d2		 test	 dl, dl
  000d5	0f 84 35 01 00
	00		 je	 $LN85@LoadFloat_@7
  000db	32 d3		 xor	 dl, bl
  000dd	88 55 eb	 mov	 BYTE PTR __k$[ebp+11], dl
  000e0	8a 50 0c	 mov	 dl, BYTE PTR [eax+12]
  000e3	84 d2		 test	 dl, dl
  000e5	0f 84 1f 01 00
	00		 je	 $LN84@LoadFloat_@7
  000eb	80 f2 ed	 xor	 dl, -19			; ffffffedH
  000ee	88 55 ec	 mov	 BYTE PTR __k$[ebp+12], dl
  000f1	8a 50 0d	 mov	 dl, BYTE PTR [eax+13]
  000f4	84 d2		 test	 dl, dl
  000f6	0f 84 09 01 00
	00		 je	 $LN83@LoadFloat_@7
  000fc	32 d1		 xor	 dl, cl
  000fe	88 55 ed	 mov	 BYTE PTR __k$[ebp+13], dl
  00101	8a 50 0e	 mov	 dl, BYTE PTR [eax+14]
  00104	84 d2		 test	 dl, dl
  00106	0f 84 f3 00 00
	00		 je	 $LN82@LoadFloat_@7
  0010c	80 f2 eb	 xor	 dl, -21			; ffffffebH
  0010f	88 55 ee	 mov	 BYTE PTR __k$[ebp+14], dl
  00112	8a 50 0f	 mov	 dl, BYTE PTR [eax+15]
  00115	84 d2		 test	 dl, dl
  00117	0f 84 dd 00 00
	00		 je	 $LN81@LoadFloat_@7
  0011d	32 d3		 xor	 dl, bl
  0011f	88 55 ef	 mov	 BYTE PTR __k$[ebp+15], dl
  00122	8a 50 10	 mov	 dl, BYTE PTR [eax+16]
  00125	84 d2		 test	 dl, dl
  00127	0f 84 c7 00 00
	00		 je	 $LN80@LoadFloat_@7
  0012d	80 f2 ed	 xor	 dl, -19			; ffffffedH
  00130	88 55 f0	 mov	 BYTE PTR __k$[ebp+16], dl
  00133	8a 50 11	 mov	 dl, BYTE PTR [eax+17]
  00136	84 d2		 test	 dl, dl
  00138	0f 84 b1 00 00
	00		 je	 $LN79@LoadFloat_@7
  0013e	32 d1		 xor	 dl, cl
  00140	88 55 f1	 mov	 BYTE PTR __k$[ebp+17], dl
  00143	8a 50 12	 mov	 dl, BYTE PTR [eax+18]
  00146	84 d2		 test	 dl, dl
  00148	0f 84 9b 00 00
	00		 je	 $LN78@LoadFloat_@7
  0014e	80 f2 eb	 xor	 dl, -21			; ffffffebH
  00151	88 55 f2	 mov	 BYTE PTR __k$[ebp+18], dl
  00154	8a 50 13	 mov	 dl, BYTE PTR [eax+19]
  00157	84 d2		 test	 dl, dl
  00159	0f 84 85 00 00
	00		 je	 $LN77@LoadFloat_@7
  0015f	32 d3		 xor	 dl, bl
  00161	88 55 f3	 mov	 BYTE PTR __k$[ebp+19], dl
  00164	8a 50 14	 mov	 dl, BYTE PTR [eax+20]
  00167	84 d2		 test	 dl, dl
  00169	74 73		 je	 SHORT $LN76@LoadFloat_@7
  0016b	80 f2 ed	 xor	 dl, -19			; ffffffedH
  0016e	88 55 f4	 mov	 BYTE PTR __k$[ebp+20], dl
  00171	8a 50 15	 mov	 dl, BYTE PTR [eax+21]
  00174	84 d2		 test	 dl, dl
  00176	74 61		 je	 SHORT $LN75@LoadFloat_@7
  00178	32 d1		 xor	 dl, cl
  0017a	80 78 16 00	 cmp	 BYTE PTR [eax+22], 0
  0017e	88 55 f5	 mov	 BYTE PTR __k$[ebp+21], dl
  00181	0f 84 cb 00 00
	00		 je	 $LN1@LoadFloat_@7
  00187	8a 50 17	 mov	 dl, BYTE PTR [eax+23]
  0018a	84 d2		 test	 dl, dl
  0018c	74 46		 je	 SHORT $LN73@LoadFloat_@7
  0018e	32 d3		 xor	 dl, bl
  00190	88 55 f7	 mov	 BYTE PTR __k$[ebp+23], dl
  00193	8a 50 18	 mov	 dl, BYTE PTR [eax+24]
  00196	84 d2		 test	 dl, dl
  00198	74 34		 je	 SHORT $LN72@LoadFloat_@7
  0019a	80 f2 ed	 xor	 dl, -19			; ffffffedH
  0019d	88 55 f8	 mov	 BYTE PTR __k$[ebp+24], dl
  001a0	8a 50 19	 mov	 dl, BYTE PTR [eax+25]
  001a3	84 d2		 test	 dl, dl
  001a5	74 1f		 je	 SHORT $LN71@LoadFloat_@7
  001a7	8a 40 1a	 mov	 al, BYTE PTR [eax+26]
  001aa	32 d1		 xor	 dl, cl
  001ac	88 55 f9	 mov	 BYTE PTR __k$[ebp+25], dl
  001af	84 c0		 test	 al, al
  001b1	74 0a		 je	 SHORT $LN70@LoadFloat_@7
  001b3	34 eb		 xor	 al, -21			; ffffffebH
  001b5	88 45 fa	 mov	 BYTE PTR __k$[ebp+26], al
  001b8	e9 95 00 00 00	 jmp	 $LN1@LoadFloat_@7
$LN70@LoadFloat_@7:
  001bd	c6 45 fa eb	 mov	 BYTE PTR __k$[ebp+26], -21 ; ffffffebH
  001c1	e9 8c 00 00 00	 jmp	 $LN1@LoadFloat_@7
$LN71@LoadFloat_@7:
  001c6	88 4d f9	 mov	 BYTE PTR __k$[ebp+25], cl
  001c9	e9 84 00 00 00	 jmp	 $LN1@LoadFloat_@7
$LN72@LoadFloat_@7:
  001ce	c6 45 f8 ed	 mov	 BYTE PTR __k$[ebp+24], -19 ; ffffffedH
  001d2	eb 7e		 jmp	 SHORT $LN1@LoadFloat_@7
$LN73@LoadFloat_@7:
  001d4	88 5d f7	 mov	 BYTE PTR __k$[ebp+23], bl
  001d7	eb 79		 jmp	 SHORT $LN1@LoadFloat_@7
$LN75@LoadFloat_@7:
  001d9	88 4d f5	 mov	 BYTE PTR __k$[ebp+21], cl
  001dc	eb 74		 jmp	 SHORT $LN1@LoadFloat_@7
$LN76@LoadFloat_@7:
  001de	c6 45 f4 ed	 mov	 BYTE PTR __k$[ebp+20], -19 ; ffffffedH
  001e2	eb 6e		 jmp	 SHORT $LN1@LoadFloat_@7
$LN77@LoadFloat_@7:
  001e4	88 5d f3	 mov	 BYTE PTR __k$[ebp+19], bl
  001e7	eb 69		 jmp	 SHORT $LN1@LoadFloat_@7
$LN78@LoadFloat_@7:
  001e9	c6 45 f2 eb	 mov	 BYTE PTR __k$[ebp+18], -21 ; ffffffebH
  001ed	eb 63		 jmp	 SHORT $LN1@LoadFloat_@7
$LN79@LoadFloat_@7:
  001ef	88 4d f1	 mov	 BYTE PTR __k$[ebp+17], cl
  001f2	eb 5e		 jmp	 SHORT $LN1@LoadFloat_@7
$LN80@LoadFloat_@7:
  001f4	c6 45 f0 ed	 mov	 BYTE PTR __k$[ebp+16], -19 ; ffffffedH
  001f8	eb 58		 jmp	 SHORT $LN1@LoadFloat_@7
$LN81@LoadFloat_@7:
  001fa	88 5d ef	 mov	 BYTE PTR __k$[ebp+15], bl
  001fd	eb 53		 jmp	 SHORT $LN1@LoadFloat_@7
$LN82@LoadFloat_@7:
  001ff	c6 45 ee eb	 mov	 BYTE PTR __k$[ebp+14], -21 ; ffffffebH
  00203	eb 4d		 jmp	 SHORT $LN1@LoadFloat_@7
$LN83@LoadFloat_@7:
  00205	88 4d ed	 mov	 BYTE PTR __k$[ebp+13], cl
  00208	eb 48		 jmp	 SHORT $LN1@LoadFloat_@7
$LN84@LoadFloat_@7:
  0020a	c6 45 ec ed	 mov	 BYTE PTR __k$[ebp+12], -19 ; ffffffedH
  0020e	eb 42		 jmp	 SHORT $LN1@LoadFloat_@7
$LN85@LoadFloat_@7:
  00210	88 5d eb	 mov	 BYTE PTR __k$[ebp+11], bl
  00213	eb 3d		 jmp	 SHORT $LN1@LoadFloat_@7
$LN86@LoadFloat_@7:
  00215	c6 45 ea eb	 mov	 BYTE PTR __k$[ebp+10], -21 ; ffffffebH
  00219	eb 37		 jmp	 SHORT $LN1@LoadFloat_@7
$LN87@LoadFloat_@7:
  0021b	88 4d e9	 mov	 BYTE PTR __k$[ebp+9], cl
  0021e	eb 32		 jmp	 SHORT $LN1@LoadFloat_@7
$LN88@LoadFloat_@7:
  00220	c6 45 e8 ed	 mov	 BYTE PTR __k$[ebp+8], -19 ; ffffffedH
  00224	eb 2c		 jmp	 SHORT $LN1@LoadFloat_@7
$LN89@LoadFloat_@7:
  00226	88 5d e7	 mov	 BYTE PTR __k$[ebp+7], bl
  00229	eb 27		 jmp	 SHORT $LN1@LoadFloat_@7
$LN90@LoadFloat_@7:
  0022b	c6 45 e6 eb	 mov	 BYTE PTR __k$[ebp+6], -21 ; ffffffebH
  0022f	eb 21		 jmp	 SHORT $LN1@LoadFloat_@7
$LN91@LoadFloat_@7:
  00231	88 4d e5	 mov	 BYTE PTR __k$[ebp+5], cl
  00234	eb 1c		 jmp	 SHORT $LN1@LoadFloat_@7
$LN92@LoadFloat_@7:
  00236	c6 45 e4 ed	 mov	 BYTE PTR __k$[ebp+4], -19 ; ffffffedH
  0023a	eb 16		 jmp	 SHORT $LN1@LoadFloat_@7
$LN93@LoadFloat_@7:
  0023c	c6 45 e3 ea	 mov	 BYTE PTR __k$[ebp+3], -22 ; ffffffeaH
  00240	eb 10		 jmp	 SHORT $LN1@LoadFloat_@7
$LN94@LoadFloat_@7:
  00242	c6 45 e2 eb	 mov	 BYTE PTR __k$[ebp+2], -21 ; ffffffebH
  00246	eb 0a		 jmp	 SHORT $LN1@LoadFloat_@7
$LN95@LoadFloat_@7:
  00248	c6 45 e1 ec	 mov	 BYTE PTR __k$[ebp+1], -20 ; ffffffecH
  0024c	eb 04		 jmp	 SHORT $LN1@LoadFloat_@7
$LN96@LoadFloat_@7:
  0024e	c6 45 e0 ed	 mov	 BYTE PTR __k$[ebp], -19	; ffffffedH
$LN1@LoadFloat_@7:
  00252	6a 05		 push	 5
  00254	8d 45 e0	 lea	 eax, DWORD PTR __k$[ebp]
  00257	c6 45 f6 00	 mov	 BYTE PTR __k$[ebp+22], 0
  0025b	5a		 pop	 edx
$LL104@LoadFloat_@7:
  0025c	81 30 ed ec eb
	ea		 xor	 DWORD PTR [eax], -353637139 ; eaebecedH
  00262	83 c0 04	 add	 eax, 4
  00265	4a		 dec	 edx
  00266	75 f4		 jne	 SHORT $LL104@LoadFloat_@7
  00268	6a 14		 push	 20			; 00000014H
  0026a	58		 pop	 eax
$LL101@LoadFloat_@7:
  0026b	8b c8		 mov	 ecx, eax
  0026d	81 e1 03 00 00
	80		 and	 ecx, -2147483645	; 80000003H
  00273	79 05		 jns	 SHORT $LN111@LoadFloat_@7
  00275	49		 dec	 ecx
  00276	83 c9 fc	 or	 ecx, -4			; fffffffcH
  00279	41		 inc	 ecx
$LN111@LoadFloat_@7:
  0027a	b2 ed		 mov	 dl, -19			; ffffffedH
  0027c	2a d1		 sub	 dl, cl
  0027e	30 54 05 e0	 xor	 BYTE PTR __k$[ebp+eax], dl
  00282	40		 inc	 eax
  00283	83 f8 16	 cmp	 eax, 22			; 00000016H
  00286	7c e3		 jl	 SHORT $LL101@LoadFloat_@7

; 137  : 		return LoadFloat(_k, f);

  00288	f3 0f 10 45 0c	 movss	 xmm0, DWORD PTR _f$[ebp]
  0028d	51		 push	 ecx
  0028e	8d 45 e0	 lea	 eax, DWORD PTR __k$[ebp]
  00291	f3 0f 11 04 24	 movss	 DWORD PTR [esp], xmm0
  00296	50		 push	 eax
  00297	8b ce		 mov	 ecx, esi
  00299	ff 15 00 00 00
	00		 call	 DWORD PTR __imp_?LoadFloat@ioINILoader@@QAEMPBDM@Z

; 138  : 	}

  0029f	8b 4d fc	 mov	 ecx, DWORD PTR __$ArrayPad$[ebp]
  002a2	5e		 pop	 esi
  002a3	33 cd		 xor	 ecx, ebp
  002a5	5b		 pop	 ebx
  002a6	e8 00 00 00 00	 call	 @__security_check_cookie@4
  002ab	c9		 leave
  002ac	c2 08 00	 ret	 8
??$LoadFloat_e@$0BH@@ioINILoader@@QAEMAAY0BH@$$CBDM@Z ENDP ; ioINILoader::LoadFloat_e<23>
_TEXT	ENDS
PUBLIC	__$ArrayPad$
PUBLIC	??$LoadFloat_e@$0BF@@ioINILoader@@QAEMAAY0BF@$$CBDM@Z ; ioINILoader::LoadFloat_e<21>
; Function compile flags: /Ogsp
;	COMDAT ??$LoadFloat_e@$0BF@@ioINILoader@@QAEMAAY0BF@$$CBDM@Z
_TEXT	SEGMENT
__k$ = -32						; size = 21
__$ArrayPad$ = -4					; size = 4
_k$ = 8							; size = 4
_f$ = 12						; size = 4
??$LoadFloat_e@$0BF@@ioINILoader@@QAEMAAY0BF@$$CBDM@Z PROC ; ioINILoader::LoadFloat_e<21>, COMDAT
; _this$ = ecx

; 135  : 	{

  00000	55		 push	 ebp
  00001	8b ec		 mov	 ebp, esp
  00003	83 ec 20	 sub	 esp, 32			; 00000020H
  00006	a1 00 00 00 00	 mov	 eax, DWORD PTR ___security_cookie
  0000b	33 c5		 xor	 eax, ebp
  0000d	89 45 fc	 mov	 DWORD PTR __$ArrayPad$[ebp], eax
  00010	8b 45 08	 mov	 eax, DWORD PTR _k$[ebp]

; 136  : 		_ENCSTR(k, _k);

  00013	8a 10		 mov	 dl, BYTE PTR [eax]
  00015	53		 push	 ebx
  00016	56		 push	 esi
  00017	8b f1		 mov	 esi, ecx
  00019	84 d2		 test	 dl, dl
  0001b	0f 84 f7 01 00
	00		 je	 $LN96@LoadFloat_@8
  00021	80 f2 ed	 xor	 dl, -19			; ffffffedH
  00024	88 55 e0	 mov	 BYTE PTR __k$[ebp], dl
  00027	8a 50 01	 mov	 dl, BYTE PTR [eax+1]
  0002a	84 d2		 test	 dl, dl
  0002c	0f 84 e0 01 00
	00		 je	 $LN95@LoadFloat_@8
  00032	b1 ec		 mov	 cl, -20			; ffffffecH
  00034	32 d1		 xor	 dl, cl
  00036	88 55 e1	 mov	 BYTE PTR __k$[ebp+1], dl
  00039	8a 50 02	 mov	 dl, BYTE PTR [eax+2]
  0003c	84 d2		 test	 dl, dl
  0003e	0f 84 c8 01 00
	00		 je	 $LN94@LoadFloat_@8
  00044	b3 eb		 mov	 bl, -21			; ffffffebH
  00046	32 d3		 xor	 dl, bl
  00048	88 55 e2	 mov	 BYTE PTR __k$[ebp+2], dl
  0004b	8a 50 03	 mov	 dl, BYTE PTR [eax+3]
  0004e	84 d2		 test	 dl, dl
  00050	0f 84 b0 01 00
	00		 je	 $LN93@LoadFloat_@8
  00056	80 f2 ea	 xor	 dl, -22			; ffffffeaH
  00059	88 55 e3	 mov	 BYTE PTR __k$[ebp+3], dl
  0005c	8a 50 04	 mov	 dl, BYTE PTR [eax+4]
  0005f	84 d2		 test	 dl, dl
  00061	0f 84 99 01 00
	00		 je	 $LN92@LoadFloat_@8
  00067	80 f2 ed	 xor	 dl, -19			; ffffffedH
  0006a	88 55 e4	 mov	 BYTE PTR __k$[ebp+4], dl
  0006d	8a 50 05	 mov	 dl, BYTE PTR [eax+5]
  00070	84 d2		 test	 dl, dl
  00072	0f 84 83 01 00
	00		 je	 $LN91@LoadFloat_@8
  00078	32 d1		 xor	 dl, cl
  0007a	88 55 e5	 mov	 BYTE PTR __k$[ebp+5], dl
  0007d	8a 50 06	 mov	 dl, BYTE PTR [eax+6]
  00080	84 d2		 test	 dl, dl
  00082	0f 84 6e 01 00
	00		 je	 $LN90@LoadFloat_@8
  00088	32 d3		 xor	 dl, bl
  0008a	88 55 e6	 mov	 BYTE PTR __k$[ebp+6], dl
  0008d	8a 50 07	 mov	 dl, BYTE PTR [eax+7]
  00090	84 d2		 test	 dl, dl
  00092	0f 84 58 01 00
	00		 je	 $LN89@LoadFloat_@8
  00098	80 f2 ea	 xor	 dl, -22			; ffffffeaH
  0009b	88 55 e7	 mov	 BYTE PTR __k$[ebp+7], dl
  0009e	8a 50 08	 mov	 dl, BYTE PTR [eax+8]
  000a1	84 d2		 test	 dl, dl
  000a3	0f 84 41 01 00
	00		 je	 $LN88@LoadFloat_@8
  000a9	80 f2 ed	 xor	 dl, -19			; ffffffedH
  000ac	88 55 e8	 mov	 BYTE PTR __k$[ebp+8], dl
  000af	8a 50 09	 mov	 dl, BYTE PTR [eax+9]
  000b2	84 d2		 test	 dl, dl
  000b4	0f 84 2b 01 00
	00		 je	 $LN87@LoadFloat_@8
  000ba	32 d1		 xor	 dl, cl
  000bc	88 55 e9	 mov	 BYTE PTR __k$[ebp+9], dl
  000bf	8a 50 0a	 mov	 dl, BYTE PTR [eax+10]
  000c2	84 d2		 test	 dl, dl
  000c4	0f 84 16 01 00
	00		 je	 $LN86@LoadFloat_@8
  000ca	32 d3		 xor	 dl, bl
  000cc	88 55 ea	 mov	 BYTE PTR __k$[ebp+10], dl
  000cf	8a 50 0b	 mov	 dl, BYTE PTR [eax+11]
  000d2	84 d2		 test	 dl, dl
  000d4	0f 84 00 01 00
	00		 je	 $LN85@LoadFloat_@8
  000da	80 f2 ea	 xor	 dl, -22			; ffffffeaH
  000dd	88 55 eb	 mov	 BYTE PTR __k$[ebp+11], dl
  000e0	8a 50 0c	 mov	 dl, BYTE PTR [eax+12]
  000e3	84 d2		 test	 dl, dl
  000e5	0f 84 e9 00 00
	00		 je	 $LN84@LoadFloat_@8
  000eb	80 f2 ed	 xor	 dl, -19			; ffffffedH
  000ee	88 55 ec	 mov	 BYTE PTR __k$[ebp+12], dl
  000f1	8a 50 0d	 mov	 dl, BYTE PTR [eax+13]
  000f4	84 d2		 test	 dl, dl
  000f6	0f 84 d3 00 00
	00		 je	 $LN83@LoadFloat_@8
  000fc	32 d1		 xor	 dl, cl
  000fe	88 55 ed	 mov	 BYTE PTR __k$[ebp+13], dl
  00101	8a 50 0e	 mov	 dl, BYTE PTR [eax+14]
  00104	84 d2		 test	 dl, dl
  00106	0f 84 be 00 00
	00		 je	 $LN82@LoadFloat_@8
  0010c	32 d3		 xor	 dl, bl
  0010e	88 55 ee	 mov	 BYTE PTR __k$[ebp+14], dl
  00111	8a 50 0f	 mov	 dl, BYTE PTR [eax+15]
  00114	84 d2		 test	 dl, dl
  00116	0f 84 a8 00 00
	00		 je	 $LN81@LoadFloat_@8
  0011c	80 f2 ea	 xor	 dl, -22			; ffffffeaH
  0011f	88 55 ef	 mov	 BYTE PTR __k$[ebp+15], dl
  00122	8a 50 10	 mov	 dl, BYTE PTR [eax+16]
  00125	84 d2		 test	 dl, dl
  00127	0f 84 91 00 00
	00		 je	 $LN80@LoadFloat_@8
  0012d	80 f2 ed	 xor	 dl, -19			; ffffffedH
  00130	88 55 f0	 mov	 BYTE PTR __k$[ebp+16], dl
  00133	8a 50 11	 mov	 dl, BYTE PTR [eax+17]
  00136	84 d2		 test	 dl, dl
  00138	74 7f		 je	 SHORT $LN79@LoadFloat_@8
  0013a	32 d1		 xor	 dl, cl
  0013c	88 55 f1	 mov	 BYTE PTR __k$[ebp+17], dl
  0013f	8a 50 12	 mov	 dl, BYTE PTR [eax+18]
  00142	84 d2		 test	 dl, dl
  00144	74 6e		 je	 SHORT $LN78@LoadFloat_@8
  00146	32 d3		 xor	 dl, bl
  00148	88 55 f2	 mov	 BYTE PTR __k$[ebp+18], dl
  0014b	8a 50 13	 mov	 dl, BYTE PTR [eax+19]
  0014e	84 d2		 test	 dl, dl
  00150	74 5c		 je	 SHORT $LN77@LoadFloat_@8
  00152	80 f2 ea	 xor	 dl, -22			; ffffffeaH
  00155	80 78 14 00	 cmp	 BYTE PTR [eax+20], 0
  00159	88 55 f3	 mov	 BYTE PTR __k$[ebp+19], dl
  0015c	0f 84 ba 00 00
	00		 je	 $LN1@LoadFloat_@8
  00162	8a 50 15	 mov	 dl, BYTE PTR [eax+21]
  00165	84 d2		 test	 dl, dl
  00167	74 40		 je	 SHORT $LN75@LoadFloat_@8
  00169	32 d1		 xor	 dl, cl
  0016b	88 55 f5	 mov	 BYTE PTR __k$[ebp+21], dl
  0016e	8a 50 16	 mov	 dl, BYTE PTR [eax+22]
  00171	84 d2		 test	 dl, dl
  00173	74 2f		 je	 SHORT $LN74@LoadFloat_@8
  00175	32 d3		 xor	 dl, bl
  00177	88 55 f6	 mov	 BYTE PTR __k$[ebp+22], dl
  0017a	8a 50 17	 mov	 dl, BYTE PTR [eax+23]
  0017d	84 d2		 test	 dl, dl
  0017f	74 1d		 je	 SHORT $LN73@LoadFloat_@8
  00181	8a 40 18	 mov	 al, BYTE PTR [eax+24]
  00184	80 f2 ea	 xor	 dl, -22			; ffffffeaH
  00187	88 55 f7	 mov	 BYTE PTR __k$[ebp+23], dl
  0018a	84 c0		 test	 al, al
  0018c	74 0a		 je	 SHORT $LN72@LoadFloat_@8
  0018e	34 ed		 xor	 al, -19			; ffffffedH
  00190	88 45 f8	 mov	 BYTE PTR __k$[ebp+24], al
  00193	e9 84 00 00 00	 jmp	 $LN1@LoadFloat_@8
$LN72@LoadFloat_@8:
  00198	c6 45 f8 ed	 mov	 BYTE PTR __k$[ebp+24], -19 ; ffffffedH
  0019c	eb 7e		 jmp	 SHORT $LN1@LoadFloat_@8
$LN73@LoadFloat_@8:
  0019e	c6 45 f7 ea	 mov	 BYTE PTR __k$[ebp+23], -22 ; ffffffeaH
  001a2	eb 78		 jmp	 SHORT $LN1@LoadFloat_@8
$LN74@LoadFloat_@8:
  001a4	88 5d f6	 mov	 BYTE PTR __k$[ebp+22], bl
  001a7	eb 73		 jmp	 SHORT $LN1@LoadFloat_@8
$LN75@LoadFloat_@8:
  001a9	88 4d f5	 mov	 BYTE PTR __k$[ebp+21], cl
  001ac	eb 6e		 jmp	 SHORT $LN1@LoadFloat_@8
$LN77@LoadFloat_@8:
  001ae	c6 45 f3 ea	 mov	 BYTE PTR __k$[ebp+19], -22 ; ffffffeaH
  001b2	eb 68		 jmp	 SHORT $LN1@LoadFloat_@8
$LN78@LoadFloat_@8:
  001b4	88 5d f2	 mov	 BYTE PTR __k$[ebp+18], bl
  001b7	eb 63		 jmp	 SHORT $LN1@LoadFloat_@8
$LN79@LoadFloat_@8:
  001b9	88 4d f1	 mov	 BYTE PTR __k$[ebp+17], cl
  001bc	eb 5e		 jmp	 SHORT $LN1@LoadFloat_@8
$LN80@LoadFloat_@8:
  001be	c6 45 f0 ed	 mov	 BYTE PTR __k$[ebp+16], -19 ; ffffffedH
  001c2	eb 58		 jmp	 SHORT $LN1@LoadFloat_@8
$LN81@LoadFloat_@8:
  001c4	c6 45 ef ea	 mov	 BYTE PTR __k$[ebp+15], -22 ; ffffffeaH
  001c8	eb 52		 jmp	 SHORT $LN1@LoadFloat_@8
$LN82@LoadFloat_@8:
  001ca	88 5d ee	 mov	 BYTE PTR __k$[ebp+14], bl
  001cd	eb 4d		 jmp	 SHORT $LN1@LoadFloat_@8
$LN83@LoadFloat_@8:
  001cf	88 4d ed	 mov	 BYTE PTR __k$[ebp+13], cl
  001d2	eb 48		 jmp	 SHORT $LN1@LoadFloat_@8
$LN84@LoadFloat_@8:
  001d4	c6 45 ec ed	 mov	 BYTE PTR __k$[ebp+12], -19 ; ffffffedH
  001d8	eb 42		 jmp	 SHORT $LN1@LoadFloat_@8
$LN85@LoadFloat_@8:
  001da	c6 45 eb ea	 mov	 BYTE PTR __k$[ebp+11], -22 ; ffffffeaH
  001de	eb 3c		 jmp	 SHORT $LN1@LoadFloat_@8
$LN86@LoadFloat_@8:
  001e0	88 5d ea	 mov	 BYTE PTR __k$[ebp+10], bl
  001e3	eb 37		 jmp	 SHORT $LN1@LoadFloat_@8
$LN87@LoadFloat_@8:
  001e5	88 4d e9	 mov	 BYTE PTR __k$[ebp+9], cl
  001e8	eb 32		 jmp	 SHORT $LN1@LoadFloat_@8
$LN88@LoadFloat_@8:
  001ea	c6 45 e8 ed	 mov	 BYTE PTR __k$[ebp+8], -19 ; ffffffedH
  001ee	eb 2c		 jmp	 SHORT $LN1@LoadFloat_@8
$LN89@LoadFloat_@8:
  001f0	c6 45 e7 ea	 mov	 BYTE PTR __k$[ebp+7], -22 ; ffffffeaH
  001f4	eb 26		 jmp	 SHORT $LN1@LoadFloat_@8
$LN90@LoadFloat_@8:
  001f6	88 5d e6	 mov	 BYTE PTR __k$[ebp+6], bl
  001f9	eb 21		 jmp	 SHORT $LN1@LoadFloat_@8
$LN91@LoadFloat_@8:
  001fb	88 4d e5	 mov	 BYTE PTR __k$[ebp+5], cl
  001fe	eb 1c		 jmp	 SHORT $LN1@LoadFloat_@8
$LN92@LoadFloat_@8:
  00200	c6 45 e4 ed	 mov	 BYTE PTR __k$[ebp+4], -19 ; ffffffedH
  00204	eb 16		 jmp	 SHORT $LN1@LoadFloat_@8
$LN93@LoadFloat_@8:
  00206	c6 45 e3 ea	 mov	 BYTE PTR __k$[ebp+3], -22 ; ffffffeaH
  0020a	eb 10		 jmp	 SHORT $LN1@LoadFloat_@8
$LN94@LoadFloat_@8:
  0020c	c6 45 e2 eb	 mov	 BYTE PTR __k$[ebp+2], -21 ; ffffffebH
  00210	eb 0a		 jmp	 SHORT $LN1@LoadFloat_@8
$LN95@LoadFloat_@8:
  00212	c6 45 e1 ec	 mov	 BYTE PTR __k$[ebp+1], -20 ; ffffffecH
  00216	eb 04		 jmp	 SHORT $LN1@LoadFloat_@8
$LN96@LoadFloat_@8:
  00218	c6 45 e0 ed	 mov	 BYTE PTR __k$[ebp], -19	; ffffffedH
$LN1@LoadFloat_@8:
  0021c	6a 05		 push	 5
  0021e	8d 45 e0	 lea	 eax, DWORD PTR __k$[ebp]
  00221	c6 45 f4 00	 mov	 BYTE PTR __k$[ebp+20], 0
  00225	5a		 pop	 edx
$LL104@LoadFloat_@8:
  00226	81 30 ed ec eb
	ea		 xor	 DWORD PTR [eax], -353637139 ; eaebecedH
  0022c	83 c0 04	 add	 eax, 4
  0022f	4a		 dec	 edx
  00230	75 f4		 jne	 SHORT $LL104@LoadFloat_@8

; 137  : 		return LoadFloat(_k, f);

  00232	f3 0f 10 45 0c	 movss	 xmm0, DWORD PTR _f$[ebp]
  00237	51		 push	 ecx
  00238	8d 45 e0	 lea	 eax, DWORD PTR __k$[ebp]
  0023b	f3 0f 11 04 24	 movss	 DWORD PTR [esp], xmm0
  00240	50		 push	 eax
  00241	8b ce		 mov	 ecx, esi
  00243	ff 15 00 00 00
	00		 call	 DWORD PTR __imp_?LoadFloat@ioINILoader@@QAEMPBDM@Z

; 138  : 	}

  00249	8b 4d fc	 mov	 ecx, DWORD PTR __$ArrayPad$[ebp]
  0024c	5e		 pop	 esi
  0024d	33 cd		 xor	 ecx, ebp
  0024f	5b		 pop	 ebx
  00250	e8 00 00 00 00	 call	 @__security_check_cookie@4
  00255	c9		 leave
  00256	c2 08 00	 ret	 8
??$LoadFloat_e@$0BF@@ioINILoader@@QAEMAAY0BF@$$CBDM@Z ENDP ; ioINILoader::LoadFloat_e<21>
_TEXT	ENDS
PUBLIC	__$ArrayPad$
PUBLIC	??$LoadInt_e@$0BF@@ioINILoader@@QAEHAAY0BF@$$CBDH@Z ; ioINILoader::LoadInt_e<21>
; Function compile flags: /Ogsp
;	COMDAT ??$LoadInt_e@$0BF@@ioINILoader@@QAEHAAY0BF@$$CBDH@Z
_TEXT	SEGMENT
__k$ = -32						; size = 21
__$ArrayPad$ = -4					; size = 4
_k$ = 8							; size = 4
_i$ = 12						; size = 4
??$LoadInt_e@$0BF@@ioINILoader@@QAEHAAY0BF@$$CBDH@Z PROC ; ioINILoader::LoadInt_e<21>, COMDAT
; _this$ = ecx

; 118  : 	{

  00000	55		 push	 ebp
  00001	8b ec		 mov	 ebp, esp
  00003	83 ec 20	 sub	 esp, 32			; 00000020H
  00006	a1 00 00 00 00	 mov	 eax, DWORD PTR ___security_cookie
  0000b	33 c5		 xor	 eax, ebp
  0000d	89 45 fc	 mov	 DWORD PTR __$ArrayPad$[ebp], eax
  00010	8b 45 08	 mov	 eax, DWORD PTR _k$[ebp]

; 119  : 		_ENCSTR(k, _k);

  00013	8a 10		 mov	 dl, BYTE PTR [eax]
  00015	53		 push	 ebx
  00016	56		 push	 esi
  00017	8b f1		 mov	 esi, ecx
  00019	84 d2		 test	 dl, dl
  0001b	0f 84 f7 01 00
	00		 je	 $LN96@LoadInt_e@3
  00021	80 f2 ed	 xor	 dl, -19			; ffffffedH
  00024	88 55 e0	 mov	 BYTE PTR __k$[ebp], dl
  00027	8a 50 01	 mov	 dl, BYTE PTR [eax+1]
  0002a	84 d2		 test	 dl, dl
  0002c	0f 84 e0 01 00
	00		 je	 $LN95@LoadInt_e@3
  00032	b1 ec		 mov	 cl, -20			; ffffffecH
  00034	32 d1		 xor	 dl, cl
  00036	88 55 e1	 mov	 BYTE PTR __k$[ebp+1], dl
  00039	8a 50 02	 mov	 dl, BYTE PTR [eax+2]
  0003c	84 d2		 test	 dl, dl
  0003e	0f 84 c8 01 00
	00		 je	 $LN94@LoadInt_e@3
  00044	b3 eb		 mov	 bl, -21			; ffffffebH
  00046	32 d3		 xor	 dl, bl
  00048	88 55 e2	 mov	 BYTE PTR __k$[ebp+2], dl
  0004b	8a 50 03	 mov	 dl, BYTE PTR [eax+3]
  0004e	84 d2		 test	 dl, dl
  00050	0f 84 b0 01 00
	00		 je	 $LN93@LoadInt_e@3
  00056	80 f2 ea	 xor	 dl, -22			; ffffffeaH
  00059	88 55 e3	 mov	 BYTE PTR __k$[ebp+3], dl
  0005c	8a 50 04	 mov	 dl, BYTE PTR [eax+4]
  0005f	84 d2		 test	 dl, dl
  00061	0f 84 99 01 00
	00		 je	 $LN92@LoadInt_e@3
  00067	80 f2 ed	 xor	 dl, -19			; ffffffedH
  0006a	88 55 e4	 mov	 BYTE PTR __k$[ebp+4], dl
  0006d	8a 50 05	 mov	 dl, BYTE PTR [eax+5]
  00070	84 d2		 test	 dl, dl
  00072	0f 84 83 01 00
	00		 je	 $LN91@LoadInt_e@3
  00078	32 d1		 xor	 dl, cl
  0007a	88 55 e5	 mov	 BYTE PTR __k$[ebp+5], dl
  0007d	8a 50 06	 mov	 dl, BYTE PTR [eax+6]
  00080	84 d2		 test	 dl, dl
  00082	0f 84 6e 01 00
	00		 je	 $LN90@LoadInt_e@3
  00088	32 d3		 xor	 dl, bl
  0008a	88 55 e6	 mov	 BYTE PTR __k$[ebp+6], dl
  0008d	8a 50 07	 mov	 dl, BYTE PTR [eax+7]
  00090	84 d2		 test	 dl, dl
  00092	0f 84 58 01 00
	00		 je	 $LN89@LoadInt_e@3
  00098	80 f2 ea	 xor	 dl, -22			; ffffffeaH
  0009b	88 55 e7	 mov	 BYTE PTR __k$[ebp+7], dl
  0009e	8a 50 08	 mov	 dl, BYTE PTR [eax+8]
  000a1	84 d2		 test	 dl, dl
  000a3	0f 84 41 01 00
	00		 je	 $LN88@LoadInt_e@3
  000a9	80 f2 ed	 xor	 dl, -19			; ffffffedH
  000ac	88 55 e8	 mov	 BYTE PTR __k$[ebp+8], dl
  000af	8a 50 09	 mov	 dl, BYTE PTR [eax+9]
  000b2	84 d2		 test	 dl, dl
  000b4	0f 84 2b 01 00
	00		 je	 $LN87@LoadInt_e@3
  000ba	32 d1		 xor	 dl, cl
  000bc	88 55 e9	 mov	 BYTE PTR __k$[ebp+9], dl
  000bf	8a 50 0a	 mov	 dl, BYTE PTR [eax+10]
  000c2	84 d2		 test	 dl, dl
  000c4	0f 84 16 01 00
	00		 je	 $LN86@LoadInt_e@3
  000ca	32 d3		 xor	 dl, bl
  000cc	88 55 ea	 mov	 BYTE PTR __k$[ebp+10], dl
  000cf	8a 50 0b	 mov	 dl, BYTE PTR [eax+11]
  000d2	84 d2		 test	 dl, dl
  000d4	0f 84 00 01 00
	00		 je	 $LN85@LoadInt_e@3
  000da	80 f2 ea	 xor	 dl, -22			; ffffffeaH
  000dd	88 55 eb	 mov	 BYTE PTR __k$[ebp+11], dl
  000e0	8a 50 0c	 mov	 dl, BYTE PTR [eax+12]
  000e3	84 d2		 test	 dl, dl
  000e5	0f 84 e9 00 00
	00		 je	 $LN84@LoadInt_e@3
  000eb	80 f2 ed	 xor	 dl, -19			; ffffffedH
  000ee	88 55 ec	 mov	 BYTE PTR __k$[ebp+12], dl
  000f1	8a 50 0d	 mov	 dl, BYTE PTR [eax+13]
  000f4	84 d2		 test	 dl, dl
  000f6	0f 84 d3 00 00
	00		 je	 $LN83@LoadInt_e@3
  000fc	32 d1		 xor	 dl, cl
  000fe	88 55 ed	 mov	 BYTE PTR __k$[ebp+13], dl
  00101	8a 50 0e	 mov	 dl, BYTE PTR [eax+14]
  00104	84 d2		 test	 dl, dl
  00106	0f 84 be 00 00
	00		 je	 $LN82@LoadInt_e@3
  0010c	32 d3		 xor	 dl, bl
  0010e	88 55 ee	 mov	 BYTE PTR __k$[ebp+14], dl
  00111	8a 50 0f	 mov	 dl, BYTE PTR [eax+15]
  00114	84 d2		 test	 dl, dl
  00116	0f 84 a8 00 00
	00		 je	 $LN81@LoadInt_e@3
  0011c	80 f2 ea	 xor	 dl, -22			; ffffffeaH
  0011f	88 55 ef	 mov	 BYTE PTR __k$[ebp+15], dl
  00122	8a 50 10	 mov	 dl, BYTE PTR [eax+16]
  00125	84 d2		 test	 dl, dl
  00127	0f 84 91 00 00
	00		 je	 $LN80@LoadInt_e@3
  0012d	80 f2 ed	 xor	 dl, -19			; ffffffedH
  00130	88 55 f0	 mov	 BYTE PTR __k$[ebp+16], dl
  00133	8a 50 11	 mov	 dl, BYTE PTR [eax+17]
  00136	84 d2		 test	 dl, dl
  00138	74 7f		 je	 SHORT $LN79@LoadInt_e@3
  0013a	32 d1		 xor	 dl, cl
  0013c	88 55 f1	 mov	 BYTE PTR __k$[ebp+17], dl
  0013f	8a 50 12	 mov	 dl, BYTE PTR [eax+18]
  00142	84 d2		 test	 dl, dl
  00144	74 6e		 je	 SHORT $LN78@LoadInt_e@3
  00146	32 d3		 xor	 dl, bl
  00148	88 55 f2	 mov	 BYTE PTR __k$[ebp+18], dl
  0014b	8a 50 13	 mov	 dl, BYTE PTR [eax+19]
  0014e	84 d2		 test	 dl, dl
  00150	74 5c		 je	 SHORT $LN77@LoadInt_e@3
  00152	80 f2 ea	 xor	 dl, -22			; ffffffeaH
  00155	80 78 14 00	 cmp	 BYTE PTR [eax+20], 0
  00159	88 55 f3	 mov	 BYTE PTR __k$[ebp+19], dl
  0015c	0f 84 ba 00 00
	00		 je	 $LN1@LoadInt_e@3
  00162	8a 50 15	 mov	 dl, BYTE PTR [eax+21]
  00165	84 d2		 test	 dl, dl
  00167	74 40		 je	 SHORT $LN75@LoadInt_e@3
  00169	32 d1		 xor	 dl, cl
  0016b	88 55 f5	 mov	 BYTE PTR __k$[ebp+21], dl
  0016e	8a 50 16	 mov	 dl, BYTE PTR [eax+22]
  00171	84 d2		 test	 dl, dl
  00173	74 2f		 je	 SHORT $LN74@LoadInt_e@3
  00175	32 d3		 xor	 dl, bl
  00177	88 55 f6	 mov	 BYTE PTR __k$[ebp+22], dl
  0017a	8a 50 17	 mov	 dl, BYTE PTR [eax+23]
  0017d	84 d2		 test	 dl, dl
  0017f	74 1d		 je	 SHORT $LN73@LoadInt_e@3
  00181	8a 40 18	 mov	 al, BYTE PTR [eax+24]
  00184	80 f2 ea	 xor	 dl, -22			; ffffffeaH
  00187	88 55 f7	 mov	 BYTE PTR __k$[ebp+23], dl
  0018a	84 c0		 test	 al, al
  0018c	74 0a		 je	 SHORT $LN72@LoadInt_e@3
  0018e	34 ed		 xor	 al, -19			; ffffffedH
  00190	88 45 f8	 mov	 BYTE PTR __k$[ebp+24], al
  00193	e9 84 00 00 00	 jmp	 $LN1@LoadInt_e@3
$LN72@LoadInt_e@3:
  00198	c6 45 f8 ed	 mov	 BYTE PTR __k$[ebp+24], -19 ; ffffffedH
  0019c	eb 7e		 jmp	 SHORT $LN1@LoadInt_e@3
$LN73@LoadInt_e@3:
  0019e	c6 45 f7 ea	 mov	 BYTE PTR __k$[ebp+23], -22 ; ffffffeaH
  001a2	eb 78		 jmp	 SHORT $LN1@LoadInt_e@3
$LN74@LoadInt_e@3:
  001a4	88 5d f6	 mov	 BYTE PTR __k$[ebp+22], bl
  001a7	eb 73		 jmp	 SHORT $LN1@LoadInt_e@3
$LN75@LoadInt_e@3:
  001a9	88 4d f5	 mov	 BYTE PTR __k$[ebp+21], cl
  001ac	eb 6e		 jmp	 SHORT $LN1@LoadInt_e@3
$LN77@LoadInt_e@3:
  001ae	c6 45 f3 ea	 mov	 BYTE PTR __k$[ebp+19], -22 ; ffffffeaH
  001b2	eb 68		 jmp	 SHORT $LN1@LoadInt_e@3
$LN78@LoadInt_e@3:
  001b4	88 5d f2	 mov	 BYTE PTR __k$[ebp+18], bl
  001b7	eb 63		 jmp	 SHORT $LN1@LoadInt_e@3
$LN79@LoadInt_e@3:
  001b9	88 4d f1	 mov	 BYTE PTR __k$[ebp+17], cl
  001bc	eb 5e		 jmp	 SHORT $LN1@LoadInt_e@3
$LN80@LoadInt_e@3:
  001be	c6 45 f0 ed	 mov	 BYTE PTR __k$[ebp+16], -19 ; ffffffedH
  001c2	eb 58		 jmp	 SHORT $LN1@LoadInt_e@3
$LN81@LoadInt_e@3:
  001c4	c6 45 ef ea	 mov	 BYTE PTR __k$[ebp+15], -22 ; ffffffeaH
  001c8	eb 52		 jmp	 SHORT $LN1@LoadInt_e@3
$LN82@LoadInt_e@3:
  001ca	88 5d ee	 mov	 BYTE PTR __k$[ebp+14], bl
  001cd	eb 4d		 jmp	 SHORT $LN1@LoadInt_e@3
$LN83@LoadInt_e@3:
  001cf	88 4d ed	 mov	 BYTE PTR __k$[ebp+13], cl
  001d2	eb 48		 jmp	 SHORT $LN1@LoadInt_e@3
$LN84@LoadInt_e@3:
  001d4	c6 45 ec ed	 mov	 BYTE PTR __k$[ebp+12], -19 ; ffffffedH
  001d8	eb 42		 jmp	 SHORT $LN1@LoadInt_e@3
$LN85@LoadInt_e@3:
  001da	c6 45 eb ea	 mov	 BYTE PTR __k$[ebp+11], -22 ; ffffffeaH
  001de	eb 3c		 jmp	 SHORT $LN1@LoadInt_e@3
$LN86@LoadInt_e@3:
  001e0	88 5d ea	 mov	 BYTE PTR __k$[ebp+10], bl
  001e3	eb 37		 jmp	 SHORT $LN1@LoadInt_e@3
$LN87@LoadInt_e@3:
  001e5	88 4d e9	 mov	 BYTE PTR __k$[ebp+9], cl
  001e8	eb 32		 jmp	 SHORT $LN1@LoadInt_e@3
$LN88@LoadInt_e@3:
  001ea	c6 45 e8 ed	 mov	 BYTE PTR __k$[ebp+8], -19 ; ffffffedH
  001ee	eb 2c		 jmp	 SHORT $LN1@LoadInt_e@3
$LN89@LoadInt_e@3:
  001f0	c6 45 e7 ea	 mov	 BYTE PTR __k$[ebp+7], -22 ; ffffffeaH
  001f4	eb 26		 jmp	 SHORT $LN1@LoadInt_e@3
$LN90@LoadInt_e@3:
  001f6	88 5d e6	 mov	 BYTE PTR __k$[ebp+6], bl
  001f9	eb 21		 jmp	 SHORT $LN1@LoadInt_e@3
$LN91@LoadInt_e@3:
  001fb	88 4d e5	 mov	 BYTE PTR __k$[ebp+5], cl
  001fe	eb 1c		 jmp	 SHORT $LN1@LoadInt_e@3
$LN92@LoadInt_e@3:
  00200	c6 45 e4 ed	 mov	 BYTE PTR __k$[ebp+4], -19 ; ffffffedH
  00204	eb 16		 jmp	 SHORT $LN1@LoadInt_e@3
$LN93@LoadInt_e@3:
  00206	c6 45 e3 ea	 mov	 BYTE PTR __k$[ebp+3], -22 ; ffffffeaH
  0020a	eb 10		 jmp	 SHORT $LN1@LoadInt_e@3
$LN94@LoadInt_e@3:
  0020c	c6 45 e2 eb	 mov	 BYTE PTR __k$[ebp+2], -21 ; ffffffebH
  00210	eb 0a		 jmp	 SHORT $LN1@LoadInt_e@3
$LN95@LoadInt_e@3:
  00212	c6 45 e1 ec	 mov	 BYTE PTR __k$[ebp+1], -20 ; ffffffecH
  00216	eb 04		 jmp	 SHORT $LN1@LoadInt_e@3
$LN96@LoadInt_e@3:
  00218	c6 45 e0 ed	 mov	 BYTE PTR __k$[ebp], -19	; ffffffedH
$LN1@LoadInt_e@3:
  0021c	6a 05		 push	 5
  0021e	8d 45 e0	 lea	 eax, DWORD PTR __k$[ebp]
  00221	c6 45 f4 00	 mov	 BYTE PTR __k$[ebp+20], 0
  00225	5a		 pop	 edx
$LL104@LoadInt_e@3:
  00226	81 30 ed ec eb
	ea		 xor	 DWORD PTR [eax], -353637139 ; eaebecedH
  0022c	83 c0 04	 add	 eax, 4
  0022f	4a		 dec	 edx
  00230	75 f4		 jne	 SHORT $LL104@LoadInt_e@3

; 120  : 		return LoadInt(_k, i);

  00232	ff 75 0c	 push	 DWORD PTR _i$[ebp]
  00235	8d 45 e0	 lea	 eax, DWORD PTR __k$[ebp]
  00238	50		 push	 eax
  00239	8b ce		 mov	 ecx, esi
  0023b	ff 15 00 00 00
	00		 call	 DWORD PTR __imp_?LoadInt@ioINILoader@@QAEHPBDH@Z

; 121  : 	}

  00241	8b 4d fc	 mov	 ecx, DWORD PTR __$ArrayPad$[ebp]
  00244	5e		 pop	 esi
  00245	33 cd		 xor	 ecx, ebp
  00247	5b		 pop	 ebx
  00248	e8 00 00 00 00	 call	 @__security_check_cookie@4
  0024d	c9		 leave
  0024e	c2 08 00	 ret	 8
??$LoadInt_e@$0BF@@ioINILoader@@QAEHAAY0BF@$$CBDH@Z ENDP ; ioINILoader::LoadInt_e<21>
_TEXT	ENDS
PUBLIC	_b$GSCopy$
PUBLIC	_this$GSCopy$
PUBLIC	__$ArrayPad$
PUBLIC	??$LoadString_e@$0L@$0BL@@ioINILoader@@QAEXAAY0L@$$CBDAAY0BL@$$CBDPADH@Z ; ioINILoader::LoadString_e<11,27>
EXTRN	__imp_?LoadStringA@ioINILoader@@QAEXPBD0PADH@Z:PROC
; Function compile flags: /Ogsp
;	COMDAT ??$LoadString_e@$0L@$0BL@@ioINILoader@@QAEXAAY0L@$$CBDAAY0BL@$$CBDPADH@Z
_TEXT	SEGMENT
_b$GSCopy$ = -60					; size = 4
_this$GSCopy$ = -56					; size = 4
__d$ = -52						; size = 27
__k$ = -20						; size = 11
__$ArrayPad$ = -4					; size = 4
_k$ = 8							; size = 4
_d$ = 12						; size = 4
_b$ = 16						; size = 4
_i$ = 20						; size = 4
??$LoadString_e@$0L@$0BL@@ioINILoader@@QAEXAAY0L@$$CBDAAY0BL@$$CBDPADH@Z PROC ; ioINILoader::LoadString_e<11,27>, COMDAT
; _this$ = ecx

; 152  : 	{

  00000	55		 push	 ebp
  00001	8b ec		 mov	 ebp, esp
  00003	83 ec 3c	 sub	 esp, 60			; 0000003cH
  00006	a1 00 00 00 00	 mov	 eax, DWORD PTR ___security_cookie
  0000b	33 c5		 xor	 eax, ebp
  0000d	89 45 fc	 mov	 DWORD PTR __$ArrayPad$[ebp], eax
  00010	8b 55 08	 mov	 edx, DWORD PTR _k$[ebp]
  00013	8b 45 0c	 mov	 eax, DWORD PTR _d$[ebp]
  00016	89 4d c8	 mov	 DWORD PTR _this$GSCopy$[ebp], ecx
  00019	8b 4d 10	 mov	 ecx, DWORD PTR _b$[ebp]
  0001c	53		 push	 ebx

; 153  : 		_ENCSTR(k, _k);

  0001d	8a 1a		 mov	 bl, BYTE PTR [edx]

; 154  : 		_ENCSTR(d, _d);

  0001f	89 4d c4	 mov	 DWORD PTR _b$GSCopy$[ebp], ecx
  00022	32 c9		 xor	 cl, cl
  00024	56		 push	 esi
  00025	57		 push	 edi
  00026	3a d9		 cmp	 bl, cl
  00028	0f 84 24 01 00
	00		 je	 $LN192@LoadString

; 153  : 		_ENCSTR(k, _k);

  0002e	80 f3 ed	 xor	 bl, -19			; ffffffedH
  00031	88 5d ec	 mov	 BYTE PTR __k$[ebp], bl
  00034	8a 5a 01	 mov	 bl, BYTE PTR [edx+1]
  00037	3a d9		 cmp	 bl, cl
  00039	0f 84 0d 01 00
	00		 je	 $LN191@LoadString
  0003f	80 f3 ec	 xor	 bl, -20			; ffffffecH
  00042	88 5d ed	 mov	 BYTE PTR __k$[ebp+1], bl
  00045	8a 5a 02	 mov	 bl, BYTE PTR [edx+2]
  00048	3a d9		 cmp	 bl, cl
  0004a	0f 84 f6 00 00
	00		 je	 $LN190@LoadString
  00050	80 f3 eb	 xor	 bl, -21			; ffffffebH
  00053	88 5d ee	 mov	 BYTE PTR __k$[ebp+2], bl
  00056	8a 5a 03	 mov	 bl, BYTE PTR [edx+3]
  00059	3a d9		 cmp	 bl, cl
  0005b	0f 84 df 00 00
	00		 je	 $LN189@LoadString
  00061	80 f3 ea	 xor	 bl, -22			; ffffffeaH
  00064	88 5d ef	 mov	 BYTE PTR __k$[ebp+3], bl
  00067	8a 5a 04	 mov	 bl, BYTE PTR [edx+4]
  0006a	3a d9		 cmp	 bl, cl
  0006c	0f 84 c8 00 00
	00		 je	 $LN188@LoadString
  00072	80 f3 ed	 xor	 bl, -19			; ffffffedH
  00075	88 5d f0	 mov	 BYTE PTR __k$[ebp+4], bl
  00078	8a 5a 05	 mov	 bl, BYTE PTR [edx+5]
  0007b	3a d9		 cmp	 bl, cl
  0007d	0f 84 b1 00 00
	00		 je	 $LN187@LoadString
  00083	80 f3 ec	 xor	 bl, -20			; ffffffecH
  00086	88 5d f1	 mov	 BYTE PTR __k$[ebp+5], bl
  00089	8a 5a 06	 mov	 bl, BYTE PTR [edx+6]
  0008c	3a d9		 cmp	 bl, cl
  0008e	0f 84 9a 00 00
	00		 je	 $LN186@LoadString
  00094	80 f3 eb	 xor	 bl, -21			; ffffffebH
  00097	88 5d f2	 mov	 BYTE PTR __k$[ebp+6], bl
  0009a	8a 5a 07	 mov	 bl, BYTE PTR [edx+7]
  0009d	3a d9		 cmp	 bl, cl
  0009f	0f 84 83 00 00
	00		 je	 $LN185@LoadString
  000a5	80 f3 ea	 xor	 bl, -22			; ffffffeaH
  000a8	88 5d f3	 mov	 BYTE PTR __k$[ebp+7], bl
  000ab	8a 5a 08	 mov	 bl, BYTE PTR [edx+8]
  000ae	3a d9		 cmp	 bl, cl
  000b0	74 70		 je	 SHORT $LN184@LoadString
  000b2	80 f3 ed	 xor	 bl, -19			; ffffffedH
  000b5	88 5d f4	 mov	 BYTE PTR __k$[ebp+8], bl
  000b8	8a 5a 09	 mov	 bl, BYTE PTR [edx+9]
  000bb	3a d9		 cmp	 bl, cl
  000bd	74 5d		 je	 SHORT $LN183@LoadString
  000bf	80 f3 ec	 xor	 bl, -20			; ffffffecH
  000c2	88 5d f5	 mov	 BYTE PTR __k$[ebp+9], bl
  000c5	38 4a 0a	 cmp	 BYTE PTR [edx+10], cl
  000c8	0f 84 88 00 00
	00		 je	 $LN97@LoadString
  000ce	8a 5a 0b	 mov	 bl, BYTE PTR [edx+11]
  000d1	3a d9		 cmp	 bl, cl
  000d3	74 41		 je	 SHORT $LN181@LoadString
  000d5	80 f3 ea	 xor	 bl, -22			; ffffffeaH
  000d8	88 5d f7	 mov	 BYTE PTR __k$[ebp+11], bl
  000db	8a 5a 0c	 mov	 bl, BYTE PTR [edx+12]
  000de	3a d9		 cmp	 bl, cl
  000e0	74 2e		 je	 SHORT $LN180@LoadString
  000e2	80 f3 ed	 xor	 bl, -19			; ffffffedH
  000e5	88 5d f8	 mov	 BYTE PTR __k$[ebp+12], bl
  000e8	8a 5a 0d	 mov	 bl, BYTE PTR [edx+13]
  000eb	3a d9		 cmp	 bl, cl
  000ed	74 1b		 je	 SHORT $LN179@LoadString
  000ef	8a 52 0e	 mov	 dl, BYTE PTR [edx+14]
  000f2	80 f3 ec	 xor	 bl, -20			; ffffffecH
  000f5	88 5d f9	 mov	 BYTE PTR __k$[ebp+13], bl
  000f8	3a d1		 cmp	 dl, cl
  000fa	74 08		 je	 SHORT $LN178@LoadString
  000fc	80 f2 eb	 xor	 dl, -21			; ffffffebH
  000ff	88 55 fa	 mov	 BYTE PTR __k$[ebp+14], dl
  00102	eb 52		 jmp	 SHORT $LN97@LoadString
$LN178@LoadString:
  00104	c6 45 fa eb	 mov	 BYTE PTR __k$[ebp+14], -21 ; ffffffebH
  00108	eb 4c		 jmp	 SHORT $LN97@LoadString
$LN179@LoadString:
  0010a	c6 45 f9 ec	 mov	 BYTE PTR __k$[ebp+13], -20 ; ffffffecH
  0010e	eb 46		 jmp	 SHORT $LN97@LoadString
$LN180@LoadString:
  00110	c6 45 f8 ed	 mov	 BYTE PTR __k$[ebp+12], -19 ; ffffffedH
  00114	eb 40		 jmp	 SHORT $LN97@LoadString
$LN181@LoadString:
  00116	c6 45 f7 ea	 mov	 BYTE PTR __k$[ebp+11], -22 ; ffffffeaH
  0011a	eb 3a		 jmp	 SHORT $LN97@LoadString
$LN183@LoadString:
  0011c	c6 45 f5 ec	 mov	 BYTE PTR __k$[ebp+9], -20 ; ffffffecH
  00120	eb 34		 jmp	 SHORT $LN97@LoadString
$LN184@LoadString:
  00122	c6 45 f4 ed	 mov	 BYTE PTR __k$[ebp+8], -19 ; ffffffedH
  00126	eb 2e		 jmp	 SHORT $LN97@LoadString
$LN185@LoadString:
  00128	c6 45 f3 ea	 mov	 BYTE PTR __k$[ebp+7], -22 ; ffffffeaH
  0012c	eb 28		 jmp	 SHORT $LN97@LoadString
$LN186@LoadString:
  0012e	c6 45 f2 eb	 mov	 BYTE PTR __k$[ebp+6], -21 ; ffffffebH
  00132	eb 22		 jmp	 SHORT $LN97@LoadString
$LN187@LoadString:
  00134	c6 45 f1 ec	 mov	 BYTE PTR __k$[ebp+5], -20 ; ffffffecH
  00138	eb 1c		 jmp	 SHORT $LN97@LoadString
$LN188@LoadString:
  0013a	c6 45 f0 ed	 mov	 BYTE PTR __k$[ebp+4], -19 ; ffffffedH
  0013e	eb 16		 jmp	 SHORT $LN97@LoadString
$LN189@LoadString:
  00140	c6 45 ef ea	 mov	 BYTE PTR __k$[ebp+3], -22 ; ffffffeaH
  00144	eb 10		 jmp	 SHORT $LN97@LoadString
$LN190@LoadString:
  00146	c6 45 ee eb	 mov	 BYTE PTR __k$[ebp+2], -21 ; ffffffebH
  0014a	eb 0a		 jmp	 SHORT $LN97@LoadString
$LN191@LoadString:
  0014c	c6 45 ed ec	 mov	 BYTE PTR __k$[ebp+1], -20 ; ffffffecH
  00150	eb 04		 jmp	 SHORT $LN97@LoadString
$LN192@LoadString:
  00152	c6 45 ec ed	 mov	 BYTE PTR __k$[ebp], -19	; ffffffedH
$LN97@LoadString:
  00156	6a 02		 push	 2
  00158	8d 55 ec	 lea	 edx, DWORD PTR __k$[ebp]
  0015b	88 4d f6	 mov	 BYTE PTR __k$[ebp+10], cl
  0015e	5e		 pop	 esi
  0015f	bf ed ec eb ea	 mov	 edi, -353637139		; eaebecedH
$LL200@LoadString:
  00164	31 3a		 xor	 DWORD PTR [edx], edi
  00166	83 c2 04	 add	 edx, 4
  00169	4e		 dec	 esi
  0016a	75 f8		 jne	 SHORT $LL200@LoadString
  0016c	6a 08		 push	 8
  0016e	5e		 pop	 esi
$LL197@LoadString:
  0016f	8b d6		 mov	 edx, esi
  00171	81 e2 03 00 00
	80		 and	 edx, -2147483645	; 80000003H
  00177	79 05		 jns	 SHORT $LN219@LoadString
  00179	4a		 dec	 edx
  0017a	83 ca fc	 or	 edx, -4			; fffffffcH
  0017d	42		 inc	 edx
$LN219@LoadString:
  0017e	b3 ed		 mov	 bl, -19			; ffffffedH
  00180	2a da		 sub	 bl, dl
  00182	30 5c 35 ec	 xor	 BYTE PTR __k$[ebp+esi], bl
  00186	46		 inc	 esi
  00187	83 fe 0a	 cmp	 esi, 10			; 0000000aH
  0018a	7c e3		 jl	 SHORT $LL197@LoadString

; 154  : 		_ENCSTR(d, _d);

  0018c	8a 10		 mov	 dl, BYTE PTR [eax]
  0018e	3a d1		 cmp	 dl, cl
  00190	0f 84 b2 02 00
	00		 je	 $LN96@LoadString
  00196	80 f2 ed	 xor	 dl, -19			; ffffffedH
  00199	88 55 cc	 mov	 BYTE PTR __d$[ebp], dl
  0019c	8a 50 01	 mov	 dl, BYTE PTR [eax+1]
  0019f	3a d1		 cmp	 dl, cl
  001a1	0f 84 9b 02 00
	00		 je	 $LN95@LoadString
  001a7	80 f2 ec	 xor	 dl, -20			; ffffffecH
  001aa	88 55 cd	 mov	 BYTE PTR __d$[ebp+1], dl
  001ad	8a 50 02	 mov	 dl, BYTE PTR [eax+2]
  001b0	3a d1		 cmp	 dl, cl
  001b2	0f 84 84 02 00
	00		 je	 $LN94@LoadString
  001b8	80 f2 eb	 xor	 dl, -21			; ffffffebH
  001bb	88 55 ce	 mov	 BYTE PTR __d$[ebp+2], dl
  001be	8a 50 03	 mov	 dl, BYTE PTR [eax+3]
  001c1	3a d1		 cmp	 dl, cl
  001c3	0f 84 6d 02 00
	00		 je	 $LN93@LoadString
  001c9	80 f2 ea	 xor	 dl, -22			; ffffffeaH
  001cc	88 55 cf	 mov	 BYTE PTR __d$[ebp+3], dl
  001cf	8a 50 04	 mov	 dl, BYTE PTR [eax+4]
  001d2	3a d1		 cmp	 dl, cl
  001d4	0f 84 56 02 00
	00		 je	 $LN92@LoadString
  001da	80 f2 ed	 xor	 dl, -19			; ffffffedH
  001dd	88 55 d0	 mov	 BYTE PTR __d$[ebp+4], dl
  001e0	8a 50 05	 mov	 dl, BYTE PTR [eax+5]
  001e3	3a d1		 cmp	 dl, cl
  001e5	0f 84 3f 02 00
	00		 je	 $LN91@LoadString
  001eb	80 f2 ec	 xor	 dl, -20			; ffffffecH
  001ee	88 55 d1	 mov	 BYTE PTR __d$[ebp+5], dl
  001f1	8a 50 06	 mov	 dl, BYTE PTR [eax+6]
  001f4	3a d1		 cmp	 dl, cl
  001f6	0f 84 28 02 00
	00		 je	 $LN90@LoadString
  001fc	80 f2 eb	 xor	 dl, -21			; ffffffebH
  001ff	88 55 d2	 mov	 BYTE PTR __d$[ebp+6], dl
  00202	8a 50 07	 mov	 dl, BYTE PTR [eax+7]
  00205	3a d1		 cmp	 dl, cl
  00207	0f 84 11 02 00
	00		 je	 $LN89@LoadString
  0020d	80 f2 ea	 xor	 dl, -22			; ffffffeaH
  00210	88 55 d3	 mov	 BYTE PTR __d$[ebp+7], dl
  00213	8a 50 08	 mov	 dl, BYTE PTR [eax+8]
  00216	3a d1		 cmp	 dl, cl
  00218	0f 84 fa 01 00
	00		 je	 $LN88@LoadString
  0021e	80 f2 ed	 xor	 dl, -19			; ffffffedH
  00221	88 55 d4	 mov	 BYTE PTR __d$[ebp+8], dl
  00224	8a 50 09	 mov	 dl, BYTE PTR [eax+9]
  00227	3a d1		 cmp	 dl, cl
  00229	0f 84 e3 01 00
	00		 je	 $LN87@LoadString
  0022f	80 f2 ec	 xor	 dl, -20			; ffffffecH
  00232	88 55 d5	 mov	 BYTE PTR __d$[ebp+9], dl
  00235	8a 50 0a	 mov	 dl, BYTE PTR [eax+10]
  00238	3a d1		 cmp	 dl, cl
  0023a	0f 84 cc 01 00
	00		 je	 $LN86@LoadString
  00240	80 f2 eb	 xor	 dl, -21			; ffffffebH
  00243	88 55 d6	 mov	 BYTE PTR __d$[ebp+10], dl
  00246	8a 50 0b	 mov	 dl, BYTE PTR [eax+11]
  00249	3a d1		 cmp	 dl, cl
  0024b	0f 84 b5 01 00
	00		 je	 $LN85@LoadString
  00251	80 f2 ea	 xor	 dl, -22			; ffffffeaH
  00254	88 55 d7	 mov	 BYTE PTR __d$[ebp+11], dl
  00257	8a 50 0c	 mov	 dl, BYTE PTR [eax+12]
  0025a	3a d1		 cmp	 dl, cl
  0025c	0f 84 9e 01 00
	00		 je	 $LN84@LoadString
  00262	80 f2 ed	 xor	 dl, -19			; ffffffedH
  00265	88 55 d8	 mov	 BYTE PTR __d$[ebp+12], dl
  00268	8a 50 0d	 mov	 dl, BYTE PTR [eax+13]
  0026b	3a d1		 cmp	 dl, cl
  0026d	0f 84 87 01 00
	00		 je	 $LN83@LoadString
  00273	80 f2 ec	 xor	 dl, -20			; ffffffecH
  00276	88 55 d9	 mov	 BYTE PTR __d$[ebp+13], dl
  00279	8a 50 0e	 mov	 dl, BYTE PTR [eax+14]
  0027c	3a d1		 cmp	 dl, cl
  0027e	0f 84 70 01 00
	00		 je	 $LN82@LoadString
  00284	80 f2 eb	 xor	 dl, -21			; ffffffebH
  00287	88 55 da	 mov	 BYTE PTR __d$[ebp+14], dl
  0028a	8a 50 0f	 mov	 dl, BYTE PTR [eax+15]
  0028d	3a d1		 cmp	 dl, cl
  0028f	0f 84 59 01 00
	00		 je	 $LN81@LoadString
  00295	80 f2 ea	 xor	 dl, -22			; ffffffeaH
  00298	88 55 db	 mov	 BYTE PTR __d$[ebp+15], dl
  0029b	8a 50 10	 mov	 dl, BYTE PTR [eax+16]
  0029e	3a d1		 cmp	 dl, cl
  002a0	0f 84 42 01 00
	00		 je	 $LN80@LoadString
  002a6	80 f2 ed	 xor	 dl, -19			; ffffffedH
  002a9	88 55 dc	 mov	 BYTE PTR __d$[ebp+16], dl
  002ac	8a 50 11	 mov	 dl, BYTE PTR [eax+17]
  002af	3a d1		 cmp	 dl, cl
  002b1	0f 84 2b 01 00
	00		 je	 $LN79@LoadString
  002b7	80 f2 ec	 xor	 dl, -20			; ffffffecH
  002ba	88 55 dd	 mov	 BYTE PTR __d$[ebp+17], dl
  002bd	8a 50 12	 mov	 dl, BYTE PTR [eax+18]
  002c0	3a d1		 cmp	 dl, cl
  002c2	0f 84 14 01 00
	00		 je	 $LN78@LoadString
  002c8	80 f2 eb	 xor	 dl, -21			; ffffffebH
  002cb	88 55 de	 mov	 BYTE PTR __d$[ebp+18], dl
  002ce	8a 50 13	 mov	 dl, BYTE PTR [eax+19]
  002d1	3a d1		 cmp	 dl, cl
  002d3	0f 84 fd 00 00
	00		 je	 $LN77@LoadString
  002d9	80 f2 ea	 xor	 dl, -22			; ffffffeaH
  002dc	88 55 df	 mov	 BYTE PTR __d$[ebp+19], dl
  002df	8a 50 14	 mov	 dl, BYTE PTR [eax+20]
  002e2	3a d1		 cmp	 dl, cl
  002e4	0f 84 e6 00 00
	00		 je	 $LN76@LoadString
  002ea	80 f2 ed	 xor	 dl, -19			; ffffffedH
  002ed	88 55 e0	 mov	 BYTE PTR __d$[ebp+20], dl
  002f0	8a 50 15	 mov	 dl, BYTE PTR [eax+21]
  002f3	3a d1		 cmp	 dl, cl
  002f5	0f 84 cf 00 00
	00		 je	 $LN75@LoadString
  002fb	80 f2 ec	 xor	 dl, -20			; ffffffecH
  002fe	88 55 e1	 mov	 BYTE PTR __d$[ebp+21], dl
  00301	8a 50 16	 mov	 dl, BYTE PTR [eax+22]
  00304	3a d1		 cmp	 dl, cl
  00306	0f 84 b5 00 00
	00		 je	 $LN74@LoadString
  0030c	80 f2 eb	 xor	 dl, -21			; ffffffebH
  0030f	88 55 e2	 mov	 BYTE PTR __d$[ebp+22], dl
  00312	8a 50 17	 mov	 dl, BYTE PTR [eax+23]
  00315	3a d1		 cmp	 dl, cl
  00317	0f 84 9b 00 00
	00		 je	 $LN73@LoadString
  0031d	80 f2 ea	 xor	 dl, -22			; ffffffeaH
  00320	88 55 e3	 mov	 BYTE PTR __d$[ebp+23], dl
  00323	8a 50 18	 mov	 dl, BYTE PTR [eax+24]
  00326	3a d1		 cmp	 dl, cl
  00328	0f 84 81 00 00
	00		 je	 $LN72@LoadString
  0032e	80 f2 ed	 xor	 dl, -19			; ffffffedH
  00331	88 55 e4	 mov	 BYTE PTR __d$[ebp+24], dl
  00334	8a 50 19	 mov	 dl, BYTE PTR [eax+25]
  00337	3a d1		 cmp	 dl, cl
  00339	74 6b		 je	 SHORT $LN71@LoadString
  0033b	80 f2 ec	 xor	 dl, -20			; ffffffecH
  0033e	88 55 e5	 mov	 BYTE PTR __d$[ebp+25], dl
  00341	38 48 1a	 cmp	 BYTE PTR [eax+26], cl
  00344	0f 84 02 01 00
	00		 je	 $LN1@LoadString
  0034a	8a 50 1b	 mov	 dl, BYTE PTR [eax+27]
  0034d	3a d1		 cmp	 dl, cl
  0034f	74 4c		 je	 SHORT $LN69@LoadString
  00351	80 f2 ea	 xor	 dl, -22			; ffffffeaH
  00354	88 55 e7	 mov	 BYTE PTR __d$[ebp+27], dl
  00357	8a 50 1c	 mov	 dl, BYTE PTR [eax+28]
  0035a	3a d1		 cmp	 dl, cl
  0035c	74 36		 je	 SHORT $LN68@LoadString
  0035e	80 f2 ed	 xor	 dl, -19			; ffffffedH
  00361	88 55 e8	 mov	 BYTE PTR __d$[ebp+28], dl
  00364	8a 50 1d	 mov	 dl, BYTE PTR [eax+29]
  00367	3a d1		 cmp	 dl, cl
  00369	74 20		 je	 SHORT $LN67@LoadString
  0036b	8a 40 1e	 mov	 al, BYTE PTR [eax+30]
  0036e	80 f2 ec	 xor	 dl, -20			; ffffffecH
  00371	88 55 e9	 mov	 BYTE PTR __d$[ebp+29], dl
  00374	3a c1		 cmp	 al, cl
  00376	74 0a		 je	 SHORT $LN66@LoadString
  00378	34 eb		 xor	 al, -21			; ffffffebH
  0037a	88 45 ea	 mov	 BYTE PTR __d$[ebp+30], al
  0037d	e9 ca 00 00 00	 jmp	 $LN1@LoadString
$LN66@LoadString:
  00382	c6 45 ea eb	 mov	 BYTE PTR __d$[ebp+30], -21 ; ffffffebH
  00386	e9 c1 00 00 00	 jmp	 $LN1@LoadString
$LN67@LoadString:
  0038b	c6 45 e9 ec	 mov	 BYTE PTR __d$[ebp+29], -20 ; ffffffecH
  0038f	e9 b8 00 00 00	 jmp	 $LN1@LoadString
$LN68@LoadString:
  00394	c6 45 e8 ed	 mov	 BYTE PTR __d$[ebp+28], -19 ; ffffffedH
  00398	e9 af 00 00 00	 jmp	 $LN1@LoadString
$LN69@LoadString:
  0039d	c6 45 e7 ea	 mov	 BYTE PTR __d$[ebp+27], -22 ; ffffffeaH
  003a1	e9 a6 00 00 00	 jmp	 $LN1@LoadString
$LN71@LoadString:
  003a6	c6 45 e5 ec	 mov	 BYTE PTR __d$[ebp+25], -20 ; ffffffecH
  003aa	e9 9d 00 00 00	 jmp	 $LN1@LoadString
$LN72@LoadString:
  003af	c6 45 e4 ed	 mov	 BYTE PTR __d$[ebp+24], -19 ; ffffffedH
  003b3	e9 94 00 00 00	 jmp	 $LN1@LoadString
$LN73@LoadString:
  003b8	c6 45 e3 ea	 mov	 BYTE PTR __d$[ebp+23], -22 ; ffffffeaH
  003bc	e9 8b 00 00 00	 jmp	 $LN1@LoadString
$LN74@LoadString:
  003c1	c6 45 e2 eb	 mov	 BYTE PTR __d$[ebp+22], -21 ; ffffffebH
  003c5	e9 82 00 00 00	 jmp	 $LN1@LoadString
$LN75@LoadString:
  003ca	c6 45 e1 ec	 mov	 BYTE PTR __d$[ebp+21], -20 ; ffffffecH
  003ce	eb 7c		 jmp	 SHORT $LN1@LoadString
$LN76@LoadString:
  003d0	c6 45 e0 ed	 mov	 BYTE PTR __d$[ebp+20], -19 ; ffffffedH
  003d4	eb 76		 jmp	 SHORT $LN1@LoadString
$LN77@LoadString:
  003d6	c6 45 df ea	 mov	 BYTE PTR __d$[ebp+19], -22 ; ffffffeaH
  003da	eb 70		 jmp	 SHORT $LN1@LoadString
$LN78@LoadString:
  003dc	c6 45 de eb	 mov	 BYTE PTR __d$[ebp+18], -21 ; ffffffebH
  003e0	eb 6a		 jmp	 SHORT $LN1@LoadString
$LN79@LoadString:
  003e2	c6 45 dd ec	 mov	 BYTE PTR __d$[ebp+17], -20 ; ffffffecH
  003e6	eb 64		 jmp	 SHORT $LN1@LoadString
$LN80@LoadString:
  003e8	c6 45 dc ed	 mov	 BYTE PTR __d$[ebp+16], -19 ; ffffffedH
  003ec	eb 5e		 jmp	 SHORT $LN1@LoadString
$LN81@LoadString:
  003ee	c6 45 db ea	 mov	 BYTE PTR __d$[ebp+15], -22 ; ffffffeaH
  003f2	eb 58		 jmp	 SHORT $LN1@LoadString
$LN82@LoadString:
  003f4	c6 45 da eb	 mov	 BYTE PTR __d$[ebp+14], -21 ; ffffffebH
  003f8	eb 52		 jmp	 SHORT $LN1@LoadString
$LN83@LoadString:
  003fa	c6 45 d9 ec	 mov	 BYTE PTR __d$[ebp+13], -20 ; ffffffecH
  003fe	eb 4c		 jmp	 SHORT $LN1@LoadString
$LN84@LoadString:
  00400	c6 45 d8 ed	 mov	 BYTE PTR __d$[ebp+12], -19 ; ffffffedH
  00404	eb 46		 jmp	 SHORT $LN1@LoadString
$LN85@LoadString:
  00406	c6 45 d7 ea	 mov	 BYTE PTR __d$[ebp+11], -22 ; ffffffeaH
  0040a	eb 40		 jmp	 SHORT $LN1@LoadString
$LN86@LoadString:
  0040c	c6 45 d6 eb	 mov	 BYTE PTR __d$[ebp+10], -21 ; ffffffebH
  00410	eb 3a		 jmp	 SHORT $LN1@LoadString
$LN87@LoadString:
  00412	c6 45 d5 ec	 mov	 BYTE PTR __d$[ebp+9], -20 ; ffffffecH
  00416	eb 34		 jmp	 SHORT $LN1@LoadString
$LN88@LoadString:
  00418	c6 45 d4 ed	 mov	 BYTE PTR __d$[ebp+8], -19 ; ffffffedH
  0041c	eb 2e		 jmp	 SHORT $LN1@LoadString
$LN89@LoadString:
  0041e	c6 45 d3 ea	 mov	 BYTE PTR __d$[ebp+7], -22 ; ffffffeaH
  00422	eb 28		 jmp	 SHORT $LN1@LoadString
$LN90@LoadString:
  00424	c6 45 d2 eb	 mov	 BYTE PTR __d$[ebp+6], -21 ; ffffffebH
  00428	eb 22		 jmp	 SHORT $LN1@LoadString
$LN91@LoadString:
  0042a	c6 45 d1 ec	 mov	 BYTE PTR __d$[ebp+5], -20 ; ffffffecH
  0042e	eb 1c		 jmp	 SHORT $LN1@LoadString
$LN92@LoadString:
  00430	c6 45 d0 ed	 mov	 BYTE PTR __d$[ebp+4], -19 ; ffffffedH
  00434	eb 16		 jmp	 SHORT $LN1@LoadString
$LN93@LoadString:
  00436	c6 45 cf ea	 mov	 BYTE PTR __d$[ebp+3], -22 ; ffffffeaH
  0043a	eb 10		 jmp	 SHORT $LN1@LoadString
$LN94@LoadString:
  0043c	c6 45 ce eb	 mov	 BYTE PTR __d$[ebp+2], -21 ; ffffffebH
  00440	eb 0a		 jmp	 SHORT $LN1@LoadString
$LN95@LoadString:
  00442	c6 45 cd ec	 mov	 BYTE PTR __d$[ebp+1], -20 ; ffffffecH
  00446	eb 04		 jmp	 SHORT $LN1@LoadString
$LN96@LoadString:
  00448	c6 45 cc ed	 mov	 BYTE PTR __d$[ebp], -19	; ffffffedH
$LN1@LoadString:
  0044c	6a 06		 push	 6
  0044e	8d 45 cc	 lea	 eax, DWORD PTR __d$[ebp]
  00451	88 4d e6	 mov	 BYTE PTR __d$[ebp+26], cl
  00454	5a		 pop	 edx
$LL208@LoadString:
  00455	31 38		 xor	 DWORD PTR [eax], edi
  00457	83 c0 04	 add	 eax, 4
  0045a	4a		 dec	 edx
  0045b	75 f8		 jne	 SHORT $LL208@LoadString
  0045d	6a 18		 push	 24			; 00000018H
  0045f	58		 pop	 eax
  00460	5f		 pop	 edi
  00461	5e		 pop	 esi
  00462	5b		 pop	 ebx
$LL205@LoadString:
  00463	8b c8		 mov	 ecx, eax
  00465	81 e1 03 00 00
	80		 and	 ecx, -2147483645	; 80000003H
  0046b	79 05		 jns	 SHORT $LN220@LoadString
  0046d	49		 dec	 ecx
  0046e	83 c9 fc	 or	 ecx, -4			; fffffffcH
  00471	41		 inc	 ecx
$LN220@LoadString:
  00472	b2 ed		 mov	 dl, -19			; ffffffedH
  00474	2a d1		 sub	 dl, cl
  00476	30 54 05 cc	 xor	 BYTE PTR __d$[ebp+eax], dl
  0047a	40		 inc	 eax
  0047b	83 f8 1a	 cmp	 eax, 26			; 0000001aH
  0047e	7c e3		 jl	 SHORT $LL205@LoadString

; 155  : 		LoadString(_k, _d, b, i);

  00480	ff 75 14	 push	 DWORD PTR _i$[ebp]
  00483	8b 4d c8	 mov	 ecx, DWORD PTR _this$GSCopy$[ebp]
  00486	ff 75 c4	 push	 DWORD PTR _b$GSCopy$[ebp]
  00489	8d 45 cc	 lea	 eax, DWORD PTR __d$[ebp]
  0048c	50		 push	 eax
  0048d	8d 45 ec	 lea	 eax, DWORD PTR __k$[ebp]
  00490	50		 push	 eax
  00491	ff 15 00 00 00
	00		 call	 DWORD PTR __imp_?LoadStringA@ioINILoader@@QAEXPBD0PADH@Z

; 156  : 	}

  00497	8b 4d fc	 mov	 ecx, DWORD PTR __$ArrayPad$[ebp]
  0049a	33 cd		 xor	 ecx, ebp
  0049c	e8 00 00 00 00	 call	 @__security_check_cookie@4
  004a1	c9		 leave
  004a2	c2 10 00	 ret	 16			; 00000010H
??$LoadString_e@$0L@$0BL@@ioINILoader@@QAEXAAY0L@$$CBDAAY0BL@$$CBDPADH@Z ENDP ; ioINILoader::LoadString_e<11,27>
_TEXT	ENDS
PUBLIC	_b$GSCopy$
PUBLIC	_this$GSCopy$
PUBLIC	__$ArrayPad$
PUBLIC	??$LoadString_e@$0M@$0BM@@ioINILoader@@QAEXAAY0M@$$CBDAAY0BM@$$CBDPADH@Z ; ioINILoader::LoadString_e<12,28>
; Function compile flags: /Ogsp
;	COMDAT ??$LoadString_e@$0M@$0BM@@ioINILoader@@QAEXAAY0M@$$CBDAAY0BM@$$CBDPADH@Z
_TEXT	SEGMENT
_b$GSCopy$ = -60					; size = 4
_this$GSCopy$ = -56					; size = 4
__d$ = -52						; size = 28
__k$ = -20						; size = 12
__$ArrayPad$ = -4					; size = 4
_k$ = 8							; size = 4
_d$ = 12						; size = 4
_b$ = 16						; size = 4
_i$ = 20						; size = 4
??$LoadString_e@$0M@$0BM@@ioINILoader@@QAEXAAY0M@$$CBDAAY0BM@$$CBDPADH@Z PROC ; ioINILoader::LoadString_e<12,28>, COMDAT
; _this$ = ecx

; 152  : 	{

  00000	55		 push	 ebp
  00001	8b ec		 mov	 ebp, esp
  00003	83 ec 3c	 sub	 esp, 60			; 0000003cH
  00006	a1 00 00 00 00	 mov	 eax, DWORD PTR ___security_cookie
  0000b	33 c5		 xor	 eax, ebp
  0000d	89 45 fc	 mov	 DWORD PTR __$ArrayPad$[ebp], eax
  00010	8b 55 08	 mov	 edx, DWORD PTR _k$[ebp]
  00013	8b 45 0c	 mov	 eax, DWORD PTR _d$[ebp]
  00016	89 4d c8	 mov	 DWORD PTR _this$GSCopy$[ebp], ecx
  00019	8b 4d 10	 mov	 ecx, DWORD PTR _b$[ebp]
  0001c	53		 push	 ebx

; 153  : 		_ENCSTR(k, _k);

  0001d	8a 1a		 mov	 bl, BYTE PTR [edx]

; 154  : 		_ENCSTR(d, _d);

  0001f	89 4d c4	 mov	 DWORD PTR _b$GSCopy$[ebp], ecx
  00022	32 c9		 xor	 cl, cl
  00024	56		 push	 esi
  00025	57		 push	 edi
  00026	3a d9		 cmp	 bl, cl
  00028	0f 84 3b 01 00
	00		 je	 $LN192@LoadString@2

; 153  : 		_ENCSTR(k, _k);

  0002e	80 f3 ed	 xor	 bl, -19			; ffffffedH
  00031	88 5d ec	 mov	 BYTE PTR __k$[ebp], bl
  00034	8a 5a 01	 mov	 bl, BYTE PTR [edx+1]
  00037	3a d9		 cmp	 bl, cl
  00039	0f 84 24 01 00
	00		 je	 $LN191@LoadString@2
  0003f	80 f3 ec	 xor	 bl, -20			; ffffffecH
  00042	88 5d ed	 mov	 BYTE PTR __k$[ebp+1], bl
  00045	8a 5a 02	 mov	 bl, BYTE PTR [edx+2]
  00048	3a d9		 cmp	 bl, cl
  0004a	0f 84 0d 01 00
	00		 je	 $LN190@LoadString@2
  00050	80 f3 eb	 xor	 bl, -21			; ffffffebH
  00053	88 5d ee	 mov	 BYTE PTR __k$[ebp+2], bl
  00056	8a 5a 03	 mov	 bl, BYTE PTR [edx+3]
  00059	3a d9		 cmp	 bl, cl
  0005b	0f 84 f6 00 00
	00		 je	 $LN189@LoadString@2
  00061	80 f3 ea	 xor	 bl, -22			; ffffffeaH
  00064	88 5d ef	 mov	 BYTE PTR __k$[ebp+3], bl
  00067	8a 5a 04	 mov	 bl, BYTE PTR [edx+4]
  0006a	3a d9		 cmp	 bl, cl
  0006c	0f 84 df 00 00
	00		 je	 $LN188@LoadString@2
  00072	80 f3 ed	 xor	 bl, -19			; ffffffedH
  00075	88 5d f0	 mov	 BYTE PTR __k$[ebp+4], bl
  00078	8a 5a 05	 mov	 bl, BYTE PTR [edx+5]
  0007b	3a d9		 cmp	 bl, cl
  0007d	0f 84 c8 00 00
	00		 je	 $LN187@LoadString@2
  00083	80 f3 ec	 xor	 bl, -20			; ffffffecH
  00086	88 5d f1	 mov	 BYTE PTR __k$[ebp+5], bl
  00089	8a 5a 06	 mov	 bl, BYTE PTR [edx+6]
  0008c	3a d9		 cmp	 bl, cl
  0008e	0f 84 b1 00 00
	00		 je	 $LN186@LoadString@2
  00094	80 f3 eb	 xor	 bl, -21			; ffffffebH
  00097	88 5d f2	 mov	 BYTE PTR __k$[ebp+6], bl
  0009a	8a 5a 07	 mov	 bl, BYTE PTR [edx+7]
  0009d	3a d9		 cmp	 bl, cl
  0009f	0f 84 9a 00 00
	00		 je	 $LN185@LoadString@2
  000a5	80 f3 ea	 xor	 bl, -22			; ffffffeaH
  000a8	88 5d f3	 mov	 BYTE PTR __k$[ebp+7], bl
  000ab	8a 5a 08	 mov	 bl, BYTE PTR [edx+8]
  000ae	3a d9		 cmp	 bl, cl
  000b0	0f 84 83 00 00
	00		 je	 $LN184@LoadString@2
  000b6	80 f3 ed	 xor	 bl, -19			; ffffffedH
  000b9	88 5d f4	 mov	 BYTE PTR __k$[ebp+8], bl
  000bc	8a 5a 09	 mov	 bl, BYTE PTR [edx+9]
  000bf	3a d9		 cmp	 bl, cl
  000c1	74 70		 je	 SHORT $LN183@LoadString@2
  000c3	80 f3 ec	 xor	 bl, -20			; ffffffecH
  000c6	88 5d f5	 mov	 BYTE PTR __k$[ebp+9], bl
  000c9	8a 5a 0a	 mov	 bl, BYTE PTR [edx+10]
  000cc	3a d9		 cmp	 bl, cl
  000ce	74 5d		 je	 SHORT $LN182@LoadString@2
  000d0	80 f3 eb	 xor	 bl, -21			; ffffffebH
  000d3	88 5d f6	 mov	 BYTE PTR __k$[ebp+10], bl
  000d6	38 4a 0b	 cmp	 BYTE PTR [edx+11], cl
  000d9	0f 84 8e 00 00
	00		 je	 $LN97@LoadString@2
  000df	8a 5a 0c	 mov	 bl, BYTE PTR [edx+12]
  000e2	3a d9		 cmp	 bl, cl
  000e4	74 41		 je	 SHORT $LN180@LoadString@2
  000e6	80 f3 ed	 xor	 bl, -19			; ffffffedH
  000e9	88 5d f8	 mov	 BYTE PTR __k$[ebp+12], bl
  000ec	8a 5a 0d	 mov	 bl, BYTE PTR [edx+13]
  000ef	3a d9		 cmp	 bl, cl
  000f1	74 2e		 je	 SHORT $LN179@LoadString@2
  000f3	80 f3 ec	 xor	 bl, -20			; ffffffecH
  000f6	88 5d f9	 mov	 BYTE PTR __k$[ebp+13], bl
  000f9	8a 5a 0e	 mov	 bl, BYTE PTR [edx+14]
  000fc	3a d9		 cmp	 bl, cl
  000fe	74 1b		 je	 SHORT $LN178@LoadString@2
  00100	8a 52 0f	 mov	 dl, BYTE PTR [edx+15]
  00103	80 f3 eb	 xor	 bl, -21			; ffffffebH
  00106	88 5d fa	 mov	 BYTE PTR __k$[ebp+14], bl
  00109	3a d1		 cmp	 dl, cl
  0010b	74 08		 je	 SHORT $LN177@LoadString@2
  0010d	80 f2 ea	 xor	 dl, -22			; ffffffeaH
  00110	88 55 fb	 mov	 BYTE PTR __k$[ebp+15], dl
  00113	eb 58		 jmp	 SHORT $LN97@LoadString@2
$LN177@LoadString@2:
  00115	c6 45 fb ea	 mov	 BYTE PTR __k$[ebp+15], -22 ; ffffffeaH
  00119	eb 52		 jmp	 SHORT $LN97@LoadString@2
$LN178@LoadString@2:
  0011b	c6 45 fa eb	 mov	 BYTE PTR __k$[ebp+14], -21 ; ffffffebH
  0011f	eb 4c		 jmp	 SHORT $LN97@LoadString@2
$LN179@LoadString@2:
  00121	c6 45 f9 ec	 mov	 BYTE PTR __k$[ebp+13], -20 ; ffffffecH
  00125	eb 46		 jmp	 SHORT $LN97@LoadString@2
$LN180@LoadString@2:
  00127	c6 45 f8 ed	 mov	 BYTE PTR __k$[ebp+12], -19 ; ffffffedH
  0012b	eb 40		 jmp	 SHORT $LN97@LoadString@2
$LN182@LoadString@2:
  0012d	c6 45 f6 eb	 mov	 BYTE PTR __k$[ebp+10], -21 ; ffffffebH
  00131	eb 3a		 jmp	 SHORT $LN97@LoadString@2
$LN183@LoadString@2:
  00133	c6 45 f5 ec	 mov	 BYTE PTR __k$[ebp+9], -20 ; ffffffecH
  00137	eb 34		 jmp	 SHORT $LN97@LoadString@2
$LN184@LoadString@2:
  00139	c6 45 f4 ed	 mov	 BYTE PTR __k$[ebp+8], -19 ; ffffffedH
  0013d	eb 2e		 jmp	 SHORT $LN97@LoadString@2
$LN185@LoadString@2:
  0013f	c6 45 f3 ea	 mov	 BYTE PTR __k$[ebp+7], -22 ; ffffffeaH
  00143	eb 28		 jmp	 SHORT $LN97@LoadString@2
$LN186@LoadString@2:
  00145	c6 45 f2 eb	 mov	 BYTE PTR __k$[ebp+6], -21 ; ffffffebH
  00149	eb 22		 jmp	 SHORT $LN97@LoadString@2
$LN187@LoadString@2:
  0014b	c6 45 f1 ec	 mov	 BYTE PTR __k$[ebp+5], -20 ; ffffffecH
  0014f	eb 1c		 jmp	 SHORT $LN97@LoadString@2
$LN188@LoadString@2:
  00151	c6 45 f0 ed	 mov	 BYTE PTR __k$[ebp+4], -19 ; ffffffedH
  00155	eb 16		 jmp	 SHORT $LN97@LoadString@2
$LN189@LoadString@2:
  00157	c6 45 ef ea	 mov	 BYTE PTR __k$[ebp+3], -22 ; ffffffeaH
  0015b	eb 10		 jmp	 SHORT $LN97@LoadString@2
$LN190@LoadString@2:
  0015d	c6 45 ee eb	 mov	 BYTE PTR __k$[ebp+2], -21 ; ffffffebH
  00161	eb 0a		 jmp	 SHORT $LN97@LoadString@2
$LN191@LoadString@2:
  00163	c6 45 ed ec	 mov	 BYTE PTR __k$[ebp+1], -20 ; ffffffecH
  00167	eb 04		 jmp	 SHORT $LN97@LoadString@2
$LN192@LoadString@2:
  00169	c6 45 ec ed	 mov	 BYTE PTR __k$[ebp], -19	; ffffffedH
$LN97@LoadString@2:
  0016d	6a 02		 push	 2
  0016f	8d 55 ec	 lea	 edx, DWORD PTR __k$[ebp]
  00172	88 4d f7	 mov	 BYTE PTR __k$[ebp+11], cl
  00175	5e		 pop	 esi
  00176	bf ed ec eb ea	 mov	 edi, -353637139		; eaebecedH
$LL200@LoadString@2:
  0017b	31 3a		 xor	 DWORD PTR [edx], edi
  0017d	83 c2 04	 add	 edx, 4
  00180	4e		 dec	 esi
  00181	75 f8		 jne	 SHORT $LL200@LoadString@2
  00183	6a 08		 push	 8
  00185	5e		 pop	 esi
$LL197@LoadString@2:
  00186	8b d6		 mov	 edx, esi
  00188	81 e2 03 00 00
	80		 and	 edx, -2147483645	; 80000003H
  0018e	79 05		 jns	 SHORT $LN219@LoadString@2
  00190	4a		 dec	 edx
  00191	83 ca fc	 or	 edx, -4			; fffffffcH
  00194	42		 inc	 edx
$LN219@LoadString@2:
  00195	b3 ed		 mov	 bl, -19			; ffffffedH
  00197	2a da		 sub	 bl, dl
  00199	30 5c 35 ec	 xor	 BYTE PTR __k$[ebp+esi], bl
  0019d	46		 inc	 esi
  0019e	83 fe 0b	 cmp	 esi, 11			; 0000000bH
  001a1	7c e3		 jl	 SHORT $LL197@LoadString@2

; 154  : 		_ENCSTR(d, _d);

  001a3	8a 10		 mov	 dl, BYTE PTR [eax]
  001a5	3a d1		 cmp	 dl, cl
  001a7	0f 84 cc 02 00
	00		 je	 $LN96@LoadString@2
  001ad	80 f2 ed	 xor	 dl, -19			; ffffffedH
  001b0	88 55 cc	 mov	 BYTE PTR __d$[ebp], dl
  001b3	8a 50 01	 mov	 dl, BYTE PTR [eax+1]
  001b6	3a d1		 cmp	 dl, cl
  001b8	0f 84 b5 02 00
	00		 je	 $LN95@LoadString@2
  001be	80 f2 ec	 xor	 dl, -20			; ffffffecH
  001c1	88 55 cd	 mov	 BYTE PTR __d$[ebp+1], dl
  001c4	8a 50 02	 mov	 dl, BYTE PTR [eax+2]
  001c7	3a d1		 cmp	 dl, cl
  001c9	0f 84 9e 02 00
	00		 je	 $LN94@LoadString@2
  001cf	80 f2 eb	 xor	 dl, -21			; ffffffebH
  001d2	88 55 ce	 mov	 BYTE PTR __d$[ebp+2], dl
  001d5	8a 50 03	 mov	 dl, BYTE PTR [eax+3]
  001d8	3a d1		 cmp	 dl, cl
  001da	0f 84 87 02 00
	00		 je	 $LN93@LoadString@2
  001e0	80 f2 ea	 xor	 dl, -22			; ffffffeaH
  001e3	88 55 cf	 mov	 BYTE PTR __d$[ebp+3], dl
  001e6	8a 50 04	 mov	 dl, BYTE PTR [eax+4]
  001e9	3a d1		 cmp	 dl, cl
  001eb	0f 84 70 02 00
	00		 je	 $LN92@LoadString@2
  001f1	80 f2 ed	 xor	 dl, -19			; ffffffedH
  001f4	88 55 d0	 mov	 BYTE PTR __d$[ebp+4], dl
  001f7	8a 50 05	 mov	 dl, BYTE PTR [eax+5]
  001fa	3a d1		 cmp	 dl, cl
  001fc	0f 84 59 02 00
	00		 je	 $LN91@LoadString@2
  00202	80 f2 ec	 xor	 dl, -20			; ffffffecH
  00205	88 55 d1	 mov	 BYTE PTR __d$[ebp+5], dl
  00208	8a 50 06	 mov	 dl, BYTE PTR [eax+6]
  0020b	3a d1		 cmp	 dl, cl
  0020d	0f 84 42 02 00
	00		 je	 $LN90@LoadString@2
  00213	80 f2 eb	 xor	 dl, -21			; ffffffebH
  00216	88 55 d2	 mov	 BYTE PTR __d$[ebp+6], dl
  00219	8a 50 07	 mov	 dl, BYTE PTR [eax+7]
  0021c	3a d1		 cmp	 dl, cl
  0021e	0f 84 2b 02 00
	00		 je	 $LN89@LoadString@2
  00224	80 f2 ea	 xor	 dl, -22			; ffffffeaH
  00227	88 55 d3	 mov	 BYTE PTR __d$[ebp+7], dl
  0022a	8a 50 08	 mov	 dl, BYTE PTR [eax+8]
  0022d	3a d1		 cmp	 dl, cl
  0022f	0f 84 14 02 00
	00		 je	 $LN88@LoadString@2
  00235	80 f2 ed	 xor	 dl, -19			; ffffffedH
  00238	88 55 d4	 mov	 BYTE PTR __d$[ebp+8], dl
  0023b	8a 50 09	 mov	 dl, BYTE PTR [eax+9]
  0023e	3a d1		 cmp	 dl, cl
  00240	0f 84 fd 01 00
	00		 je	 $LN87@LoadString@2
  00246	80 f2 ec	 xor	 dl, -20			; ffffffecH
  00249	88 55 d5	 mov	 BYTE PTR __d$[ebp+9], dl
  0024c	8a 50 0a	 mov	 dl, BYTE PTR [eax+10]
  0024f	3a d1		 cmp	 dl, cl
  00251	0f 84 e6 01 00
	00		 je	 $LN86@LoadString@2
  00257	80 f2 eb	 xor	 dl, -21			; ffffffebH
  0025a	88 55 d6	 mov	 BYTE PTR __d$[ebp+10], dl
  0025d	8a 50 0b	 mov	 dl, BYTE PTR [eax+11]
  00260	3a d1		 cmp	 dl, cl
  00262	0f 84 cf 01 00
	00		 je	 $LN85@LoadString@2
  00268	80 f2 ea	 xor	 dl, -22			; ffffffeaH
  0026b	88 55 d7	 mov	 BYTE PTR __d$[ebp+11], dl
  0026e	8a 50 0c	 mov	 dl, BYTE PTR [eax+12]
  00271	3a d1		 cmp	 dl, cl
  00273	0f 84 b8 01 00
	00		 je	 $LN84@LoadString@2
  00279	80 f2 ed	 xor	 dl, -19			; ffffffedH
  0027c	88 55 d8	 mov	 BYTE PTR __d$[ebp+12], dl
  0027f	8a 50 0d	 mov	 dl, BYTE PTR [eax+13]
  00282	3a d1		 cmp	 dl, cl
  00284	0f 84 a1 01 00
	00		 je	 $LN83@LoadString@2
  0028a	80 f2 ec	 xor	 dl, -20			; ffffffecH
  0028d	88 55 d9	 mov	 BYTE PTR __d$[ebp+13], dl
  00290	8a 50 0e	 mov	 dl, BYTE PTR [eax+14]
  00293	3a d1		 cmp	 dl, cl
  00295	0f 84 8a 01 00
	00		 je	 $LN82@LoadString@2
  0029b	80 f2 eb	 xor	 dl, -21			; ffffffebH
  0029e	88 55 da	 mov	 BYTE PTR __d$[ebp+14], dl
  002a1	8a 50 0f	 mov	 dl, BYTE PTR [eax+15]
  002a4	3a d1		 cmp	 dl, cl
  002a6	0f 84 73 01 00
	00		 je	 $LN81@LoadString@2
  002ac	80 f2 ea	 xor	 dl, -22			; ffffffeaH
  002af	88 55 db	 mov	 BYTE PTR __d$[ebp+15], dl
  002b2	8a 50 10	 mov	 dl, BYTE PTR [eax+16]
  002b5	3a d1		 cmp	 dl, cl
  002b7	0f 84 5c 01 00
	00		 je	 $LN80@LoadString@2
  002bd	80 f2 ed	 xor	 dl, -19			; ffffffedH
  002c0	88 55 dc	 mov	 BYTE PTR __d$[ebp+16], dl
  002c3	8a 50 11	 mov	 dl, BYTE PTR [eax+17]
  002c6	3a d1		 cmp	 dl, cl
  002c8	0f 84 45 01 00
	00		 je	 $LN79@LoadString@2
  002ce	80 f2 ec	 xor	 dl, -20			; ffffffecH
  002d1	88 55 dd	 mov	 BYTE PTR __d$[ebp+17], dl
  002d4	8a 50 12	 mov	 dl, BYTE PTR [eax+18]
  002d7	3a d1		 cmp	 dl, cl
  002d9	0f 84 2e 01 00
	00		 je	 $LN78@LoadString@2
  002df	80 f2 eb	 xor	 dl, -21			; ffffffebH
  002e2	88 55 de	 mov	 BYTE PTR __d$[ebp+18], dl
  002e5	8a 50 13	 mov	 dl, BYTE PTR [eax+19]
  002e8	3a d1		 cmp	 dl, cl
  002ea	0f 84 17 01 00
	00		 je	 $LN77@LoadString@2
  002f0	80 f2 ea	 xor	 dl, -22			; ffffffeaH
  002f3	88 55 df	 mov	 BYTE PTR __d$[ebp+19], dl
  002f6	8a 50 14	 mov	 dl, BYTE PTR [eax+20]
  002f9	3a d1		 cmp	 dl, cl
  002fb	0f 84 00 01 00
	00		 je	 $LN76@LoadString@2
  00301	80 f2 ed	 xor	 dl, -19			; ffffffedH
  00304	88 55 e0	 mov	 BYTE PTR __d$[ebp+20], dl
  00307	8a 50 15	 mov	 dl, BYTE PTR [eax+21]
  0030a	3a d1		 cmp	 dl, cl
  0030c	0f 84 e9 00 00
	00		 je	 $LN75@LoadString@2
  00312	80 f2 ec	 xor	 dl, -20			; ffffffecH
  00315	88 55 e1	 mov	 BYTE PTR __d$[ebp+21], dl
  00318	8a 50 16	 mov	 dl, BYTE PTR [eax+22]
  0031b	3a d1		 cmp	 dl, cl
  0031d	0f 84 cf 00 00
	00		 je	 $LN74@LoadString@2
  00323	80 f2 eb	 xor	 dl, -21			; ffffffebH
  00326	88 55 e2	 mov	 BYTE PTR __d$[ebp+22], dl
  00329	8a 50 17	 mov	 dl, BYTE PTR [eax+23]
  0032c	3a d1		 cmp	 dl, cl
  0032e	0f 84 b5 00 00
	00		 je	 $LN73@LoadString@2
  00334	80 f2 ea	 xor	 dl, -22			; ffffffeaH
  00337	88 55 e3	 mov	 BYTE PTR __d$[ebp+23], dl
  0033a	8a 50 18	 mov	 dl, BYTE PTR [eax+24]
  0033d	3a d1		 cmp	 dl, cl
  0033f	0f 84 9b 00 00
	00		 je	 $LN72@LoadString@2
  00345	80 f2 ed	 xor	 dl, -19			; ffffffedH
  00348	88 55 e4	 mov	 BYTE PTR __d$[ebp+24], dl
  0034b	8a 50 19	 mov	 dl, BYTE PTR [eax+25]
  0034e	3a d1		 cmp	 dl, cl
  00350	0f 84 81 00 00
	00		 je	 $LN71@LoadString@2
  00356	80 f2 ec	 xor	 dl, -20			; ffffffecH
  00359	88 55 e5	 mov	 BYTE PTR __d$[ebp+25], dl
  0035c	8a 50 1a	 mov	 dl, BYTE PTR [eax+26]
  0035f	3a d1		 cmp	 dl, cl
  00361	74 6b		 je	 SHORT $LN70@LoadString@2
  00363	80 f2 eb	 xor	 dl, -21			; ffffffebH
  00366	88 55 e6	 mov	 BYTE PTR __d$[ebp+26], dl
  00369	38 48 1b	 cmp	 BYTE PTR [eax+27], cl
  0036c	0f 84 0b 01 00
	00		 je	 $LN1@LoadString@2
  00372	8a 50 1c	 mov	 dl, BYTE PTR [eax+28]
  00375	3a d1		 cmp	 dl, cl
  00377	74 4c		 je	 SHORT $LN68@LoadString@2
  00379	80 f2 ed	 xor	 dl, -19			; ffffffedH
  0037c	88 55 e8	 mov	 BYTE PTR __d$[ebp+28], dl
  0037f	8a 50 1d	 mov	 dl, BYTE PTR [eax+29]
  00382	3a d1		 cmp	 dl, cl
  00384	74 36		 je	 SHORT $LN67@LoadString@2
  00386	80 f2 ec	 xor	 dl, -20			; ffffffecH
  00389	88 55 e9	 mov	 BYTE PTR __d$[ebp+29], dl
  0038c	8a 50 1e	 mov	 dl, BYTE PTR [eax+30]
  0038f	3a d1		 cmp	 dl, cl
  00391	74 20		 je	 SHORT $LN66@LoadString@2
  00393	8a 40 1f	 mov	 al, BYTE PTR [eax+31]
  00396	80 f2 eb	 xor	 dl, -21			; ffffffebH
  00399	88 55 ea	 mov	 BYTE PTR __d$[ebp+30], dl
  0039c	3a c1		 cmp	 al, cl
  0039e	74 0a		 je	 SHORT $LN65@LoadString@2
  003a0	34 ea		 xor	 al, -22			; ffffffeaH
  003a2	88 45 eb	 mov	 BYTE PTR __d$[ebp+31], al
  003a5	e9 d3 00 00 00	 jmp	 $LN1@LoadString@2
$LN65@LoadString@2:
  003aa	c6 45 eb ea	 mov	 BYTE PTR __d$[ebp+31], -22 ; ffffffeaH
  003ae	e9 ca 00 00 00	 jmp	 $LN1@LoadString@2
$LN66@LoadString@2:
  003b3	c6 45 ea eb	 mov	 BYTE PTR __d$[ebp+30], -21 ; ffffffebH
  003b7	e9 c1 00 00 00	 jmp	 $LN1@LoadString@2
$LN67@LoadString@2:
  003bc	c6 45 e9 ec	 mov	 BYTE PTR __d$[ebp+29], -20 ; ffffffecH
  003c0	e9 b8 00 00 00	 jmp	 $LN1@LoadString@2
$LN68@LoadString@2:
  003c5	c6 45 e8 ed	 mov	 BYTE PTR __d$[ebp+28], -19 ; ffffffedH
  003c9	e9 af 00 00 00	 jmp	 $LN1@LoadString@2
$LN70@LoadString@2:
  003ce	c6 45 e6 eb	 mov	 BYTE PTR __d$[ebp+26], -21 ; ffffffebH
  003d2	e9 a6 00 00 00	 jmp	 $LN1@LoadString@2
$LN71@LoadString@2:
  003d7	c6 45 e5 ec	 mov	 BYTE PTR __d$[ebp+25], -20 ; ffffffecH
  003db	e9 9d 00 00 00	 jmp	 $LN1@LoadString@2
$LN72@LoadString@2:
  003e0	c6 45 e4 ed	 mov	 BYTE PTR __d$[ebp+24], -19 ; ffffffedH
  003e4	e9 94 00 00 00	 jmp	 $LN1@LoadString@2
$LN73@LoadString@2:
  003e9	c6 45 e3 ea	 mov	 BYTE PTR __d$[ebp+23], -22 ; ffffffeaH
  003ed	e9 8b 00 00 00	 jmp	 $LN1@LoadString@2
$LN74@LoadString@2:
  003f2	c6 45 e2 eb	 mov	 BYTE PTR __d$[ebp+22], -21 ; ffffffebH
  003f6	e9 82 00 00 00	 jmp	 $LN1@LoadString@2
$LN75@LoadString@2:
  003fb	c6 45 e1 ec	 mov	 BYTE PTR __d$[ebp+21], -20 ; ffffffecH
  003ff	eb 7c		 jmp	 SHORT $LN1@LoadString@2
$LN76@LoadString@2:
  00401	c6 45 e0 ed	 mov	 BYTE PTR __d$[ebp+20], -19 ; ffffffedH
  00405	eb 76		 jmp	 SHORT $LN1@LoadString@2
$LN77@LoadString@2:
  00407	c6 45 df ea	 mov	 BYTE PTR __d$[ebp+19], -22 ; ffffffeaH
  0040b	eb 70		 jmp	 SHORT $LN1@LoadString@2
$LN78@LoadString@2:
  0040d	c6 45 de eb	 mov	 BYTE PTR __d$[ebp+18], -21 ; ffffffebH
  00411	eb 6a		 jmp	 SHORT $LN1@LoadString@2
$LN79@LoadString@2:
  00413	c6 45 dd ec	 mov	 BYTE PTR __d$[ebp+17], -20 ; ffffffecH
  00417	eb 64		 jmp	 SHORT $LN1@LoadString@2
$LN80@LoadString@2:
  00419	c6 45 dc ed	 mov	 BYTE PTR __d$[ebp+16], -19 ; ffffffedH
  0041d	eb 5e		 jmp	 SHORT $LN1@LoadString@2
$LN81@LoadString@2:
  0041f	c6 45 db ea	 mov	 BYTE PTR __d$[ebp+15], -22 ; ffffffeaH
  00423	eb 58		 jmp	 SHORT $LN1@LoadString@2
$LN82@LoadString@2:
  00425	c6 45 da eb	 mov	 BYTE PTR __d$[ebp+14], -21 ; ffffffebH
