; Listing generated by Microsoft (R) Optimizing Compiler Version 16.00.30319.01 

	TITLE	D:\Lost Saga For Developer\Youtube\Tutorial\Source\src\LSClient\ioTargetEquipObjectItemBuff.cpp
	.686P
	.XMM
	include listing.inc
	.model	flat

INCLUDELIB MSVCRT
INCLUDELIB OLDNAMES

PUBLIC	?_EEM_DS@?$deque@UD3DXVECTOR3@@V?$allocator@UD3DXVECTOR3@@@std@@@std@@2HB ; std::deque<D3DXVECTOR3,std::allocator<D3DXVECTOR3> >::_EEM_DS
;	COMDAT ?_EEM_DS@?$deque@UD3DXVECTOR3@@V?$allocator@UD3DXVECTOR3@@@std@@@std@@2HB
CONST	SEGMENT
?_EEM_DS@?$deque@UD3DXVECTOR3@@V?$allocator@UD3DXVECTOR3@@@std@@@std@@2HB DD 01H ; std::deque<D3DXVECTOR3,std::allocator<D3DXVECTOR3> >::_EEM_DS
CONST	ENDS
PUBLIC	?return5@@YAIXZ					; return5
; Function compile flags: /Ogsp
; File d:\lost saga for developer\youtube\tutorial\source\src\lsclient\stdafx.h
;	COMDAT ?return5@@YAIXZ
_TEXT	SEGMENT
?return5@@YAIXZ PROC					; return5, COMDAT

; 18   : 	__forceinline unsigned int return5() { __asm mov eax, 5 };

  00000	b8 05 00 00 00	 mov	 eax, 5
  00005	c3		 ret	 0
?return5@@YAIXZ ENDP					; return5
_TEXT	ENDS
PUBLIC	?return10@@YAIXZ				; return10
; Function compile flags: /Ogsp
;	COMDAT ?return10@@YAIXZ
_TEXT	SEGMENT
?return10@@YAIXZ PROC					; return10, COMDAT

; 21   : 	__forceinline unsigned int return10() { __asm mov eax, 10 };

  00000	b8 0a 00 00 00	 mov	 eax, 10			; 0000000aH
  00005	c3		 ret	 0
?return10@@YAIXZ ENDP					; return10
_TEXT	ENDS
PUBLIC	?GetBlowStopMotionState@ioBaseChar@@QBE_NXZ	; ioBaseChar::GetBlowStopMotionState
; Function compile flags: /Ogsp
; File d:\lost saga for developer\youtube\tutorial\source\src\lsclient\iobasechar.h
;	COMDAT ?GetBlowStopMotionState@ioBaseChar@@QBE_NXZ
_TEXT	SEGMENT
?GetBlowStopMotionState@ioBaseChar@@QBE_NXZ PROC	; ioBaseChar::GetBlowStopMotionState, COMDAT
; _this$ = ecx

; 1566 : 	inline bool GetBlowStopMotionState() const { return m_bBlowStopMotion; }

  00000	8a 81 c7 15 00
	00		 mov	 al, BYTE PTR [ecx+5575]
  00006	c3		 ret	 0
?GetBlowStopMotionState@ioBaseChar@@QBE_NXZ ENDP	; ioBaseChar::GetBlowStopMotionState
_TEXT	ENDS
PUBLIC	?GetBlowFrozenState@ioBaseChar@@QBE_NXZ		; ioBaseChar::GetBlowFrozenState
; Function compile flags: /Ogsp
;	COMDAT ?GetBlowFrozenState@ioBaseChar@@QBE_NXZ
_TEXT	SEGMENT
?GetBlowFrozenState@ioBaseChar@@QBE_NXZ PROC		; ioBaseChar::GetBlowFrozenState, COMDAT
; _this$ = ecx

; 1571 : 	inline bool GetBlowFrozenState() const { return m_bBlowFrozenState; }

  00000	8a 81 c5 15 00
	00		 mov	 al, BYTE PTR [ecx+5573]
  00006	c3		 ret	 0
?GetBlowFrozenState@ioBaseChar@@QBE_NXZ ENDP		; ioBaseChar::GetBlowFrozenState
_TEXT	ENDS
PUBLIC	?GetEquipSlot@ioBaseChar@@QAEPAVioEquipSlot@@XZ	; ioBaseChar::GetEquipSlot
; Function compile flags: /Ogsp
;	COMDAT ?GetEquipSlot@ioBaseChar@@QAEPAVioEquipSlot@@XZ
_TEXT	SEGMENT
?GetEquipSlot@ioBaseChar@@QAEPAVioEquipSlot@@XZ PROC	; ioBaseChar::GetEquipSlot, COMDAT
; _this$ = ecx

; 1871 : 	ioEquipSlot* GetEquipSlot() { return m_pEquipSlot; }

  00000	8b 81 48 03 00
	00		 mov	 eax, DWORD PTR [ecx+840]
  00006	c3		 ret	 0
?GetEquipSlot@ioBaseChar@@QAEPAVioEquipSlot@@XZ ENDP	; ioBaseChar::GetEquipSlot
_TEXT	ENDS
PUBLIC	?GetState@ioBaseChar@@QBE?AW4CharState@@XZ	; ioBaseChar::GetState
; Function compile flags: /Ogsp
;	COMDAT ?GetState@ioBaseChar@@QBE?AW4CharState@@XZ
_TEXT	SEGMENT
?GetState@ioBaseChar@@QBE?AW4CharState@@XZ PROC		; ioBaseChar::GetState, COMDAT
; _this$ = ecx

; 2156 : 	inline CharState GetState() const { return m_CharState; }	

  00000	8a 81 10 03 00
	00		 mov	 al, BYTE PTR [ecx+784]
  00006	c3		 ret	 0
?GetState@ioBaseChar@@QBE?AW4CharState@@XZ ENDP		; ioBaseChar::GetState
_TEXT	ENDS
PUBLIC	?GetCharName@ioBaseChar@@QBEABVioHashString@@XZ	; ioBaseChar::GetCharName
; Function compile flags: /Ogsp
;	COMDAT ?GetCharName@ioBaseChar@@QBEABVioHashString@@XZ
_TEXT	SEGMENT
?GetCharName@ioBaseChar@@QBEABVioHashString@@XZ PROC	; ioBaseChar::GetCharName, COMDAT
; _this$ = ecx

; 2594 : 	inline const ioHashString& GetCharName() const { return m_Name; }

  00000	8d 81 d4 02 00
	00		 lea	 eax, DWORD PTR [ecx+724]
  00006	c3		 ret	 0
?GetCharName@ioBaseChar@@QBEABVioHashString@@XZ ENDP	; ioBaseChar::GetCharName
_TEXT	ENDS
PUBLIC	??_7bad_alloc@std@@6B@				; std::bad_alloc::`vftable'
PUBLIC	??0bad_alloc@std@@QAE@PBD@Z			; std::bad_alloc::bad_alloc
PUBLIC	??_R4bad_alloc@std@@6B@				; std::bad_alloc::`RTTI Complete Object Locator'
PUBLIC	??_R0?AVbad_alloc@std@@@8			; std::bad_alloc `RTTI Type Descriptor'
PUBLIC	??_R3bad_alloc@std@@8				; std::bad_alloc::`RTTI Class Hierarchy Descriptor'
PUBLIC	??_R2bad_alloc@std@@8				; std::bad_alloc::`RTTI Base Class Array'
PUBLIC	??_R1A@?0A@EA@bad_alloc@std@@8			; std::bad_alloc::`RTTI Base Class Descriptor at (0,-1,0,64)'
PUBLIC	??_R1A@?0A@EA@exception@std@@8			; std::exception::`RTTI Base Class Descriptor at (0,-1,0,64)'
PUBLIC	??_R0?AVexception@std@@@8			; std::exception `RTTI Type Descriptor'
PUBLIC	??_R3exception@std@@8				; std::exception::`RTTI Class Hierarchy Descriptor'
PUBLIC	??_R2exception@std@@8				; std::exception::`RTTI Base Class Array'
EXTRN	__imp_??0exception@std@@QAE@ABQBD@Z:PROC
EXTRN	??_7type_info@@6B@:QWORD			; type_info::`vftable'
EXTRN	??_Ebad_alloc@std@@UAEPAXI@Z:PROC		; std::bad_alloc::`vector deleting destructor'
EXTRN	?what@exception@std@@UBEPBDXZ:PROC		; std::exception::what
;	COMDAT ??_R2exception@std@@8
; File c:\program files (x86)\microsoft visual studio 10.0\vc\include\exception
rdata$r	SEGMENT
??_R2exception@std@@8 DD FLAT:??_R1A@?0A@EA@exception@std@@8 ; std::exception::`RTTI Base Class Array'
rdata$r	ENDS
;	COMDAT ??_R3exception@std@@8
rdata$r	SEGMENT
??_R3exception@std@@8 DD 00H				; std::exception::`RTTI Class Hierarchy Descriptor'
	DD	00H
	DD	01H
	DD	FLAT:??_R2exception@std@@8
rdata$r	ENDS
;	COMDAT ??_R0?AVexception@std@@@8
_DATA	SEGMENT
??_R0?AVexception@std@@@8 DD FLAT:??_7type_info@@6B@	; std::exception `RTTI Type Descriptor'
	DD	00H
	DB	'.?AVexception@std@@', 00H
_DATA	ENDS
;	COMDAT ??_R1A@?0A@EA@exception@std@@8
rdata$r	SEGMENT
??_R1A@?0A@EA@exception@std@@8 DD FLAT:??_R0?AVexception@std@@@8 ; std::exception::`RTTI Base Class Descriptor at (0,-1,0,64)'
	DD	00H
	DD	00H
	DD	0ffffffffH
	DD	00H
	DD	040H
	DD	FLAT:??_R3exception@std@@8
rdata$r	ENDS
;	COMDAT ??_R1A@?0A@EA@bad_alloc@std@@8
rdata$r	SEGMENT
??_R1A@?0A@EA@bad_alloc@std@@8 DD FLAT:??_R0?AVbad_alloc@std@@@8 ; std::bad_alloc::`RTTI Base Class Descriptor at (0,-1,0,64)'
	DD	01H
	DD	00H
	DD	0ffffffffH
	DD	00H
	DD	040H
	DD	FLAT:??_R3bad_alloc@std@@8
rdata$r	ENDS
;	COMDAT ??_R2bad_alloc@std@@8
rdata$r	SEGMENT
??_R2bad_alloc@std@@8 DD FLAT:??_R1A@?0A@EA@bad_alloc@std@@8 ; std::bad_alloc::`RTTI Base Class Array'
	DD	FLAT:??_R1A@?0A@EA@exception@std@@8
rdata$r	ENDS
;	COMDAT ??_R3bad_alloc@std@@8
rdata$r	SEGMENT
??_R3bad_alloc@std@@8 DD 00H				; std::bad_alloc::`RTTI Class Hierarchy Descriptor'
	DD	00H
	DD	02H
	DD	FLAT:??_R2bad_alloc@std@@8
rdata$r	ENDS
;	COMDAT ??_R0?AVbad_alloc@std@@@8
_DATA	SEGMENT
??_R0?AVbad_alloc@std@@@8 DD FLAT:??_7type_info@@6B@	; std::bad_alloc `RTTI Type Descriptor'
	DD	00H
	DB	'.?AVbad_alloc@std@@', 00H
_DATA	ENDS
;	COMDAT ??_R4bad_alloc@std@@6B@
rdata$r	SEGMENT
??_R4bad_alloc@std@@6B@ DD 00H				; std::bad_alloc::`RTTI Complete Object Locator'
	DD	00H
	DD	00H
	DD	FLAT:??_R0?AVbad_alloc@std@@@8
	DD	FLAT:??_R3bad_alloc@std@@8
rdata$r	ENDS
;	COMDAT ??_7bad_alloc@std@@6B@
CONST	SEGMENT
??_7bad_alloc@std@@6B@ DD FLAT:??_R4bad_alloc@std@@6B@	; std::bad_alloc::`vftable'
	DD	FLAT:??_Ebad_alloc@std@@UAEPAXI@Z
	DD	FLAT:?what@exception@std@@UBEPBDXZ
; Function compile flags: /Ogsp
CONST	ENDS
;	COMDAT ??0bad_alloc@std@@QAE@PBD@Z
_TEXT	SEGMENT
__Message$ = 8						; size = 4
??0bad_alloc@std@@QAE@PBD@Z PROC			; std::bad_alloc::bad_alloc, COMDAT
; _this$ = ecx

; 345  : 		{	// construct from message string

  00000	55		 push	 ebp
  00001	8b ec		 mov	 ebp, esp
  00003	56		 push	 esi
  00004	8d 45 08	 lea	 eax, DWORD PTR __Message$[ebp]
  00007	50		 push	 eax
  00008	8b f1		 mov	 esi, ecx
  0000a	ff 15 00 00 00
	00		 call	 DWORD PTR __imp_??0exception@std@@QAE@ABQBD@Z
  00010	c7 06 00 00 00
	00		 mov	 DWORD PTR [esi], OFFSET ??_7bad_alloc@std@@6B@

; 346  : 		}

  00016	8b c6		 mov	 eax, esi
  00018	5e		 pop	 esi
  00019	5d		 pop	 ebp
  0001a	c2 04 00	 ret	 4
??0bad_alloc@std@@QAE@PBD@Z ENDP			; std::bad_alloc::bad_alloc
_TEXT	ENDS
PUBLIC	??1bad_alloc@std@@UAE@XZ			; std::bad_alloc::~bad_alloc
EXTRN	__imp_??1exception@std@@UAE@XZ:PROC
; Function compile flags: /Ogsp
;	COMDAT ??1bad_alloc@std@@UAE@XZ
_TEXT	SEGMENT
??1bad_alloc@std@@UAE@XZ PROC				; std::bad_alloc::~bad_alloc, COMDAT
; _this$ = ecx

; 354  : 		{	// destroy the object

  00000	c7 01 00 00 00
	00		 mov	 DWORD PTR [ecx], OFFSET ??_7bad_alloc@std@@6B@

; 355  : 		}

  00006	ff 25 00 00 00
	00		 jmp	 DWORD PTR __imp_??1exception@std@@UAE@XZ
??1bad_alloc@std@@UAE@XZ ENDP				; std::bad_alloc::~bad_alloc
_TEXT	ENDS
EXTRN	??3@YAXPAX@Z:PROC				; operator delete
; Function compile flags: /Ogsp
;	COMDAT ??_Gbad_alloc@std@@UAEPAXI@Z
_TEXT	SEGMENT
___flags$ = 8						; size = 4
??_Gbad_alloc@std@@UAEPAXI@Z PROC			; std::bad_alloc::`scalar deleting destructor', COMDAT
; _this$ = ecx
  00000	55		 push	 ebp
  00001	8b ec		 mov	 ebp, esp
  00003	56		 push	 esi
  00004	8b f1		 mov	 esi, ecx
  00006	c7 06 00 00 00
	00		 mov	 DWORD PTR [esi], OFFSET ??_7bad_alloc@std@@6B@
  0000c	ff 15 00 00 00
	00		 call	 DWORD PTR __imp_??1exception@std@@UAE@XZ
  00012	f6 45 08 01	 test	 BYTE PTR ___flags$[ebp], 1
  00016	74 07		 je	 SHORT $LN1@scalar
  00018	56		 push	 esi
  00019	e8 00 00 00 00	 call	 ??3@YAXPAX@Z		; operator delete
  0001e	59		 pop	 ecx
$LN1@scalar:
  0001f	8b c6		 mov	 eax, esi
  00021	5e		 pop	 esi
  00022	5d		 pop	 ebp
  00023	c2 04 00	 ret	 4
??_Gbad_alloc@std@@UAEPAXI@Z ENDP			; std::bad_alloc::`scalar deleting destructor'
_TEXT	ENDS
PUBLIC	??2@YAPAXIPAX@Z					; operator new
; Function compile flags: /Ogsp
; File c:\program files (x86)\microsoft visual studio 10.0\vc\include\new
;	COMDAT ??2@YAPAXIPAX@Z
_TEXT	SEGMENT
___formal$ = 8						; size = 4
__Where$ = 12						; size = 4
??2@YAPAXIPAX@Z PROC					; operator new, COMDAT

; 56   : 	{	// construct array with placement at _Where

  00000	55		 push	 ebp
  00001	8b ec		 mov	 ebp, esp

; 57   : 	return (_Where);

  00003	8b 45 0c	 mov	 eax, DWORD PTR __Where$[ebp]

; 58   : 	}

  00006	5d		 pop	 ebp
  00007	c3		 ret	 0
??2@YAPAXIPAX@Z ENDP					; operator new
_TEXT	ENDS
PUBLIC	??3@YAXPAX0@Z					; operator delete
; Function compile flags: /Ogsp
;	COMDAT ??3@YAXPAX0@Z
_TEXT	SEGMENT
___formal$ = 8						; size = 4
___formal$ = 12						; size = 4
??3@YAXPAX0@Z PROC					; operator delete, COMDAT

; 62   : 	}

  00000	c3		 ret	 0
??3@YAXPAX0@Z ENDP					; operator delete
_TEXT	ENDS
PUBLIC	?IsAI@ioNpcChar@@QAE_NXZ			; ioNpcChar::IsAI
; Function compile flags: /Ogsp
; File d:\lost saga for developer\youtube\tutorial\source\src\lsclient\ionpcchar.h
;	COMDAT ?IsAI@ioNpcChar@@QAE_NXZ
_TEXT	SEGMENT
?IsAI@ioNpcChar@@QAE_NXZ PROC				; ioNpcChar::IsAI, COMDAT
; _this$ = ecx

; 318  : 	bool IsAI(){ return ( m_pAI != NULL ); }

  00000	33 c0		 xor	 eax, eax
  00002	39 81 7c 3c 00
	00		 cmp	 DWORD PTR [ecx+15484], eax
  00008	0f 95 c0	 setne	 al
  0000b	c3		 ret	 0
?IsAI@ioNpcChar@@QAE_NXZ ENDP				; ioNpcChar::IsAI
_TEXT	ENDS
PUBLIC	?_Adopt@_Iterator_base0@std@@QAEXPBX@Z		; std::_Iterator_base0::_Adopt
; Function compile flags: /Ogsp
; File c:\program files (x86)\microsoft visual studio 10.0\vc\include\xutility
;	COMDAT ?_Adopt@_Iterator_base0@std@@QAEXPBX@Z
_TEXT	SEGMENT
___formal$ = 8						; size = 4
?_Adopt@_Iterator_base0@std@@QAEXPBX@Z PROC		; std::_Iterator_base0::_Adopt, COMDAT
; _this$ = ecx

; 49   : 		}

  00000	c2 04 00	 ret	 4
?_Adopt@_Iterator_base0@std@@QAEXPBX@Z ENDP		; std::_Iterator_base0::_Adopt
_TEXT	ENDS
PUBLIC	??_C@_0CL@JCPDNBOF@ioTargetEquipObjectItemBuff?3?3Rel@ ; `string'
PUBLIC	?ReleaseObject@ioTargetEquipObjectItemBuff@@QAE_NPAVioPlayStage@@PAVioBaseChar@@_N@Z ; ioTargetEquipObjectItemBuff::ReleaseObject
EXTRN	__imp_??1ioHashString@@QAE@XZ:PROC
EXTRN	?ReleaseObjectItem@ioBaseChar@@QAEXABVioHashString@@H_N@Z:PROC ; ioBaseChar::ReleaseObjectItem
EXTRN	__imp_??0ioHashString@@QAE@PBD@Z:PROC
EXTRN	___CxxFrameHandler3:PROC
EXTRN	@__security_check_cookie@4:PROC
EXTRN	__EH_epilog3:PROC
EXTRN	__EH_prolog3:PROC
;	COMDAT ??_C@_0CL@JCPDNBOF@ioTargetEquipObjectItemBuff?3?3Rel@
; File d:\lost saga for developer\youtube\tutorial\source\src\lsclient\iobasechar.h
CONST	SEGMENT
??_C@_0CL@JCPDNBOF@ioTargetEquipObjectItemBuff?3?3Rel@ DB 'ioTargetEquipO'
	DB	'bjectItemBuff::ReleaseObject', 00H		; `string'
CONST	ENDS
;	COMDAT xdata$x
xdata$x	SEGMENT
__unwindtable$?ReleaseObject@ioTargetEquipObjectItemBuff@@QAE_NPAVioPlayStage@@PAVioBaseChar@@_N@Z DD 0ffffffffH
	DD	FLAT:__unwindfunclet$?ReleaseObject@ioTargetEquipObjectItemBuff@@QAE_NPAVioPlayStage@@PAVioBaseChar@@_N@Z$0
	DD	0ffffffffH
	DD	FLAT:__unwindfunclet$?ReleaseObject@ioTargetEquipObjectItemBuff@@QAE_NPAVioPlayStage@@PAVioBaseChar@@_N@Z$1
__ehfuncinfo$?ReleaseObject@ioTargetEquipObjectItemBuff@@QAE_NPAVioPlayStage@@PAVioBaseChar@@_N@Z DD 019930522H
	DD	02H
	DD	FLAT:__unwindtable$?ReleaseObject@ioTargetEquipObjectItemBuff@@QAE_NPAVioPlayStage@@PAVioBaseChar@@_N@Z
	DD	2 DUP(00H)
	DD	2 DUP(00H)
	DD	00H
	DD	01H
; Function compile flags: /Ogsp
; File d:\lost saga for developer\youtube\tutorial\source\src\lsclient\iotargetequipobjectitembuff.cpp
xdata$x	ENDS
;	COMDAT ?ReleaseObject@ioTargetEquipObjectItemBuff@@QAE_NPAVioPlayStage@@PAVioBaseChar@@_N@Z
_TEXT	SEGMENT
$T532913 = -44						; size = 16
$T532912 = -28						; size = 16
__$EHRec$ = -12						; size = 12
_pStage$ = 8						; size = 4
_pOwner$ = 12						; size = 4
_bSyncCharState$ = 16					; size = 1
?ReleaseObject@ioTargetEquipObjectItemBuff@@QAE_NPAVioPlayStage@@PAVioBaseChar@@_N@Z PROC ; ioTargetEquipObjectItemBuff::ReleaseObject, COMDAT
; _this$ = ecx

; 358  : {

  00000	6a 20		 push	 32			; 00000020H
  00002	b8 00 00 00 00	 mov	 eax, __ehhandler$?ReleaseObject@ioTargetEquipObjectItemBuff@@QAE_NPAVioPlayStage@@PAVioBaseChar@@_N@Z
  00007	e8 00 00 00 00	 call	 __EH_prolog3

; 359  : 	if( !pStage )

  0000c	83 7d 08 00	 cmp	 DWORD PTR _pStage$[ebp], 0
  00010	75 04		 jne	 SHORT $LN5@ReleaseObj
$LN14@ReleaseObj:

; 360  : 		return false;

  00012	32 c0		 xor	 al, al
  00014	eb 6c		 jmp	 SHORT $LN6@ReleaseObj
$LN5@ReleaseObj:

; 361  : 
; 362  : 	if( !pOwner )

  00016	8b 75 0c	 mov	 esi, DWORD PTR _pOwner$[ebp]
  00019	85 f6		 test	 esi, esi

; 363  : 		return false;

  0001b	74 f5		 je	 SHORT $LN14@ReleaseObj

; 364  : 
; 365  : 	if( m_ObjectState != OE_EQUIP )

  0001d	33 db		 xor	 ebx, ebx
  0001f	43		 inc	 ebx
  00020	39 99 88 09 00
	00		 cmp	 DWORD PTR [ecx+2440], ebx

; 366  : 		return false;

  00026	75 ea		 jne	 SHORT $LN14@ReleaseObj

; 367  : 
; 368  : 	if( bSyncCharState )

  00028	80 7d 10 00	 cmp	 BYTE PTR _bSyncCharState$[ebp], 0

; 369  : 		pOwner->ReleaseObjectItem( __FUNCTION__, pOwner->GetState() );

  0002c	68 00 00 00 00	 push	 OFFSET ??_C@_0CL@JCPDNBOF@ioTargetEquipObjectItemBuff?3?3Rel@
  00031	74 26		 je	 SHORT $LN2@ReleaseObj
  00033	8d 4d e4	 lea	 ecx, DWORD PTR $T532912[ebp]
  00036	ff 15 00 00 00
	00		 call	 DWORD PTR __imp_??0ioHashString@@QAE@PBD@Z
  0003c	0f b6 86 10 03
	00 00		 movzx	 eax, BYTE PTR [esi+784]
  00043	83 65 fc 00	 and	 DWORD PTR __$EHRec$[ebp+8], 0
  00047	53		 push	 ebx
  00048	50		 push	 eax
  00049	8d 45 e4	 lea	 eax, DWORD PTR $T532912[ebp]
  0004c	50		 push	 eax
  0004d	8b ce		 mov	 ecx, esi
  0004f	e8 00 00 00 00	 call	 ?ReleaseObjectItem@ioBaseChar@@QAEXABVioHashString@@H_N@Z ; ioBaseChar::ReleaseObjectItem
  00054	8d 4d e4	 lea	 ecx, DWORD PTR $T532912[ebp]

; 370  : 	else

  00057	eb 1d		 jmp	 SHORT $LN13@ReleaseObj
$LN2@ReleaseObj:

; 371  : 		pOwner->ReleaseObjectItem( __FUNCTION__ );

  00059	8d 4d d4	 lea	 ecx, DWORD PTR $T532913[ebp]
  0005c	ff 15 00 00 00
	00		 call	 DWORD PTR __imp_??0ioHashString@@QAE@PBD@Z
  00062	53		 push	 ebx
  00063	6a ff		 push	 -1
  00065	8d 45 d4	 lea	 eax, DWORD PTR $T532913[ebp]
  00068	50		 push	 eax
  00069	8b ce		 mov	 ecx, esi
  0006b	89 5d fc	 mov	 DWORD PTR __$EHRec$[ebp+8], ebx
  0006e	e8 00 00 00 00	 call	 ?ReleaseObjectItem@ioBaseChar@@QAEXABVioHashString@@H_N@Z ; ioBaseChar::ReleaseObjectItem
  00073	8d 4d d4	 lea	 ecx, DWORD PTR $T532913[ebp]
$LN13@ReleaseObj:
  00076	83 4d fc ff	 or	 DWORD PTR __$EHRec$[ebp+8], -1
  0007a	ff 15 00 00 00
	00		 call	 DWORD PTR __imp_??1ioHashString@@QAE@XZ

; 372  : 
; 373  : 	return true;

  00080	8a c3		 mov	 al, bl
$LN6@ReleaseObj:

; 374  : }

  00082	e8 00 00 00 00	 call	 __EH_epilog3
  00087	c2 0c 00	 ret	 12			; 0000000cH
_TEXT	ENDS
;	COMDAT text$x
text$x	SEGMENT
__unwindfunclet$?ReleaseObject@ioTargetEquipObjectItemBuff@@QAE_NPAVioPlayStage@@PAVioBaseChar@@_N@Z$0:
  00000	8d 4d e4	 lea	 ecx, DWORD PTR $T532912[ebp]
  00003	ff 25 00 00 00
	00		 jmp	 DWORD PTR __imp_??1ioHashString@@QAE@XZ
__unwindfunclet$?ReleaseObject@ioTargetEquipObjectItemBuff@@QAE_NPAVioPlayStage@@PAVioBaseChar@@_N@Z$1:
  00009	8d 4d d4	 lea	 ecx, DWORD PTR $T532913[ebp]
  0000c	ff 25 00 00 00
	00		 jmp	 DWORD PTR __imp_??1ioHashString@@QAE@XZ
__ehhandler$?ReleaseObject@ioTargetEquipObjectItemBuff@@QAE_NPAVioPlayStage@@PAVioBaseChar@@_N@Z:
  00012	8b 54 24 08	 mov	 edx, DWORD PTR [esp+8]
  00016	8d 42 0c	 lea	 eax, DWORD PTR [edx+12]
  00019	8b 4a d0	 mov	 ecx, DWORD PTR [edx-48]
  0001c	33 c8		 xor	 ecx, eax
  0001e	e8 00 00 00 00	 call	 @__security_check_cookie@4
  00023	b8 00 00 00 00	 mov	 eax, OFFSET __ehfuncinfo$?ReleaseObject@ioTargetEquipObjectItemBuff@@QAE_NPAVioPlayStage@@PAVioBaseChar@@_N@Z
  00028	e9 00 00 00 00	 jmp	 ___CxxFrameHandler3
text$x	ENDS
?ReleaseObject@ioTargetEquipObjectItemBuff@@QAE_NPAVioPlayStage@@PAVioBaseChar@@_N@Z ENDP ; ioTargetEquipObjectItemBuff::ReleaseObject
PUBLIC	?CheckOwnerStateCheck@ioTargetEquipObjectItemBuff@@IAEXXZ ; ioTargetEquipObjectItemBuff::CheckOwnerStateCheck
EXTRN	?IsApplyDownState@ioBaseChar@@QAE_N_N@Z:PROC	; ioBaseChar::IsApplyDownState
EXTRN	?IsFloatingState@ioBaseChar@@QBE_NXZ:PROC	; ioBaseChar::IsFloatingState
EXTRN	?SetReserveEndBuff@ioBuff@@QAEXXZ:PROC		; ioBuff::SetReserveEndBuff
; Function compile flags: /Ogsp
;	COMDAT ?CheckOwnerStateCheck@ioTargetEquipObjectItemBuff@@IAEXXZ
_TEXT	SEGMENT
?CheckOwnerStateCheck@ioTargetEquipObjectItemBuff@@IAEXXZ PROC ; ioTargetEquipObjectItemBuff::CheckOwnerStateCheck, COMDAT
; _this$ = ecx

; 377  : {

  00000	56		 push	 esi
  00001	8b f1		 mov	 esi, ecx

; 378  : 	if( !m_pOwner ) return;

  00003	8b 8e 74 02 00
	00		 mov	 ecx, DWORD PTR [esi+628]
  00009	33 d2		 xor	 edx, edx
  0000b	3b ca		 cmp	 ecx, edx
  0000d	74 57		 je	 SHORT $LN1@CheckOwner

; 379  : 
; 380  : 	CharState eState = m_pOwner->GetState();

  0000f	8a 81 10 03 00
	00		 mov	 al, BYTE PTR [ecx+784]

; 381  : 
; 382  : 	if( m_bDisableDownState )

  00015	38 96 6c 09 00
	00		 cmp	 BYTE PTR [esi+2412], dl
  0001b	74 49		 je	 SHORT $LN1@CheckOwner

; 383  : 	{	
; 384  : 		if( eState == CS_FROZEN && m_pOwner->GetBlowFrozenState() )

  0001d	3c 17		 cmp	 al, 23			; 00000017H
  0001f	75 10		 jne	 SHORT $LN13@CheckOwner
  00021	38 91 c5 15 00
	00		 cmp	 BYTE PTR [ecx+5573], dl
$LN29@CheckOwner:
  00027	74 3d		 je	 SHORT $LN1@CheckOwner
$LN28@CheckOwner:

; 385  : 			SetReserveEndBuff();

  00029	8b ce		 mov	 ecx, esi
  0002b	5e		 pop	 esi
  0002c	e9 00 00 00 00	 jmp	 ?SetReserveEndBuff@ioBuff@@QAEXXZ ; ioBuff::SetReserveEndBuff
$LN13@CheckOwner:

; 386  : 		else if( eState == CS_BLOW_WOUNDED && !m_pOwner->IsFloatingState() )

  00031	3c 0c		 cmp	 al, 12			; 0000000cH
  00033	75 0b		 jne	 SHORT $LN11@CheckOwner
$LN31@CheckOwner:
  00035	e8 00 00 00 00	 call	 ?IsFloatingState@ioBaseChar@@QBE_NXZ ; ioBaseChar::IsFloatingState
  0003a	84 c0		 test	 al, al
  0003c	75 28		 jne	 SHORT $LN1@CheckOwner

; 387  : 			SetReserveEndBuff();

  0003e	eb e9		 jmp	 SHORT $LN28@CheckOwner
$LN11@CheckOwner:

; 388  : 		else if( eState == CS_BOUND_BLOW_WOUNDED && !m_pOwner->IsFloatingState() )

  00040	3c 31		 cmp	 al, 49			; 00000031H

; 389  : 			SetReserveEndBuff();

  00042	74 f1		 je	 SHORT $LN31@CheckOwner

; 390  : 		else if( eState == CS_ETC_STATE && m_pOwner->IsApplyDownState(false) )

  00044	3c 0f		 cmp	 al, 15			; 0000000fH
  00046	75 0a		 jne	 SHORT $LN7@CheckOwner
  00048	52		 push	 edx
  00049	e8 00 00 00 00	 call	 ?IsApplyDownState@ioBaseChar@@QAE_N_N@Z ; ioBaseChar::IsApplyDownState
  0004e	84 c0		 test	 al, al

; 391  : 			SetReserveEndBuff();

  00050	eb d5		 jmp	 SHORT $LN29@CheckOwner
$LN7@CheckOwner:

; 392  : 		else if( eState == CS_STOP_MOTION && m_pOwner->GetBlowStopMotionState() )

  00052	3c 26		 cmp	 al, 38			; 00000026H
  00054	75 08		 jne	 SHORT $LN5@CheckOwner
$LN30@CheckOwner:
  00056	38 91 c7 15 00
	00		 cmp	 BYTE PTR [ecx+5575], dl

; 393  : 			SetReserveEndBuff();

  0005c	eb c9		 jmp	 SHORT $LN29@CheckOwner
$LN5@CheckOwner:

; 394  : 		else if( eState == CS_DROP_ZONE_DOWN )

  0005e	3c 10		 cmp	 al, 16			; 00000010H

; 395  : 			SetReserveEndBuff();

  00060	74 c7		 je	 SHORT $LN28@CheckOwner

; 396  : 		else if( eState == CS_ICE_STATE && m_pOwner->GetBlowStopMotionState() )

  00062	3c 3b		 cmp	 al, 59			; 0000003bH

; 397  : 			SetReserveEndBuff();

  00064	74 f0		 je	 SHORT $LN30@CheckOwner
$LN1@CheckOwner:
  00066	5e		 pop	 esi

; 398  : 	}
; 399  : }

  00067	c3		 ret	 0
?CheckOwnerStateCheck@ioTargetEquipObjectItemBuff@@IAEXXZ ENDP ; ioTargetEquipObjectItemBuff::CheckOwnerStateCheck
_TEXT	ENDS
PUBLIC	??$_Ptr_cat@V?$_Vector_const_iterator@V?$_Vector_val@KV?$allocator@K@std@@@std@@@std@@PAK@std@@YA?AU_Nonscalar_ptr_iterator_tag@0@AAV?$_Vector_const_iterator@V?$_Vector_val@KV?$allocator@K@std@@@std@@@0@AAPAK@Z ; std::_Ptr_cat<std::_Vector_const_iterator<std::_Vector_val<unsigned long,std::allocator<unsigned long> > >,unsigned long *>
; Function compile flags: /Ogsp
; File c:\program files (x86)\microsoft visual studio 10.0\vc\include\xutility
;	COMDAT ??$_Ptr_cat@V?$_Vector_const_iterator@V?$_Vector_val@KV?$allocator@K@std@@@std@@@std@@PAK@std@@YA?AU_Nonscalar_ptr_iterator_tag@0@AAV?$_Vector_const_iterator@V?$_Vector_val@KV?$allocator@K@std@@@std@@@0@AAPAK@Z
_TEXT	SEGMENT
__Cat$ = -1						; size = 1
___formal$ = 8						; size = 4
___formal$ = 12						; size = 4
??$_Ptr_cat@V?$_Vector_const_iterator@V?$_Vector_val@KV?$allocator@K@std@@@std@@@std@@PAK@std@@YA?AU_Nonscalar_ptr_iterator_tag@0@AAV?$_Vector_const_iterator@V?$_Vector_val@KV?$allocator@K@std@@@std@@@0@AAPAK@Z PROC ; std::_Ptr_cat<std::_Vector_const_iterator<std::_Vector_val<unsigned long,std::allocator<unsigned long> > >,unsigned long *>, COMDAT

; 485  : 	{	// return pointer category from arbitrary arguments

  00000	55		 push	 ebp
  00001	8b ec		 mov	 ebp, esp
  00003	51		 push	 ecx

; 486  : 	_Nonscalar_ptr_iterator_tag _Cat;
; 487  : 	return (_Cat);

  00004	8a 45 ff	 mov	 al, BYTE PTR __Cat$[ebp]

; 488  : 	}

  00007	c9		 leave
  00008	c3		 ret	 0
??$_Ptr_cat@V?$_Vector_const_iterator@V?$_Vector_val@KV?$allocator@K@std@@@std@@@std@@PAK@std@@YA?AU_Nonscalar_ptr_iterator_tag@0@AAV?$_Vector_const_iterator@V?$_Vector_val@KV?$allocator@K@std@@@std@@@0@AAPAK@Z ENDP ; std::_Ptr_cat<std::_Vector_const_iterator<std::_Vector_val<unsigned long,std::allocator<unsigned long> > >,unsigned long *>
_TEXT	ENDS
PUBLIC	??D?$_Vector_const_iterator@V?$_Vector_val@KV?$allocator@K@std@@@std@@@std@@QBEABKXZ ; std::_Vector_const_iterator<std::_Vector_val<unsigned long,std::allocator<unsigned long> > >::operator*
; Function compile flags: /Ogsp
; File c:\program files (x86)\microsoft visual studio 10.0\vc\include\vector
;	COMDAT ??D?$_Vector_const_iterator@V?$_Vector_val@KV?$allocator@K@std@@@std@@@std@@QBEABKXZ
_TEXT	SEGMENT
??D?$_Vector_const_iterator@V?$_Vector_val@KV?$allocator@K@std@@@std@@@std@@QBEABKXZ PROC ; std::_Vector_const_iterator<std::_Vector_val<unsigned long,std::allocator<unsigned long> > >::operator*, COMDAT
; _this$ = ecx

; 64   :  #if _ITERATOR_DEBUG_LEVEL == 2
; 65   : 		if (this->_Getcont() == 0
; 66   : 			|| this->_Ptr == 0
; 67   : 			|| this->_Ptr < ((_Myvec *)this->_Getcont())->_Myfirst
; 68   : 			|| ((_Myvec *)this->_Getcont())->_Mylast <= this->_Ptr)
; 69   : 			{	// report error
; 70   : 			_DEBUG_ERROR("vector iterator not dereferencable");
; 71   : 			_SCL_SECURE_OUT_OF_RANGE;
; 72   : 			}
; 73   : 
; 74   :  #elif _ITERATOR_DEBUG_LEVEL == 1
; 75   : 		_SCL_SECURE_VALIDATE(this->_Getcont() != 0);
; 76   : 		_SCL_SECURE_VALIDATE_RANGE(
; 77   : 			this->_Ptr != 0
; 78   : 			&& ((_Myvec *)this->_Getcont())->_Myfirst <= this->_Ptr
; 79   : 			&& this->_Ptr < ((_Myvec *)this->_Getcont())->_Mylast);
; 80   :  #endif /* _ITERATOR_DEBUG_LEVEL */
; 81   : 
; 82   : 		__analysis_assume(this->_Ptr != 0);
; 83   : 
; 84   : 		return (*this->_Ptr);

  00000	8b 01		 mov	 eax, DWORD PTR [ecx]

; 85   : 		}

  00002	c3		 ret	 0
??D?$_Vector_const_iterator@V?$_Vector_val@KV?$allocator@K@std@@@std@@@std@@QBEABKXZ ENDP ; std::_Vector_const_iterator<std::_Vector_val<unsigned long,std::allocator<unsigned long> > >::operator*
_TEXT	ENDS
PUBLIC	??E?$_Vector_const_iterator@V?$_Vector_val@KV?$allocator@K@std@@@std@@@std@@QAEAAV01@XZ ; std::_Vector_const_iterator<std::_Vector_val<unsigned long,std::allocator<unsigned long> > >::operator++
; Function compile flags: /Ogsp
;	COMDAT ??E?$_Vector_const_iterator@V?$_Vector_val@KV?$allocator@K@std@@@std@@@std@@QAEAAV01@XZ
_TEXT	SEGMENT
??E?$_Vector_const_iterator@V?$_Vector_val@KV?$allocator@K@std@@@std@@@std@@QAEAAV01@XZ PROC ; std::_Vector_const_iterator<std::_Vector_val<unsigned long,std::allocator<unsigned long> > >::operator++, COMDAT
; _this$ = ecx

; 93   : 		{	// preincrement

  00000	8b c1		 mov	 eax, ecx

; 94   :  #if _ITERATOR_DEBUG_LEVEL == 2
; 95   : 		if (this->_Getcont() == 0
; 96   : 			|| this->_Ptr == 0
; 97   : 			|| ((_Myvec *)this->_Getcont())->_Mylast <= this->_Ptr)
; 98   : 			{	// report error
; 99   : 			_DEBUG_ERROR("vector iterator not incrementable");
; 100  : 			_SCL_SECURE_OUT_OF_RANGE;
; 101  : 			}
; 102  : 
; 103  :  #elif _ITERATOR_DEBUG_LEVEL == 1
; 104  : 		_SCL_SECURE_VALIDATE(this->_Getcont() != 0);
; 105  : 		_SCL_SECURE_VALIDATE_RANGE(
; 106  : 			this->_Ptr != 0
; 107  : 			&& this->_Ptr < ((_Myvec *)this->_Getcont())->_Mylast);
; 108  :  #endif /* _ITERATOR_DEBUG_LEVEL */
; 109  : 
; 110  : 		++this->_Ptr;

  00002	83 00 04	 add	 DWORD PTR [eax], 4

; 111  : 		return (*this);
; 112  : 		}

  00005	c3		 ret	 0
??E?$_Vector_const_iterator@V?$_Vector_val@KV?$allocator@K@std@@@std@@@std@@QAEAAV01@XZ ENDP ; std::_Vector_const_iterator<std::_Vector_val<unsigned long,std::allocator<unsigned long> > >::operator++
_TEXT	ENDS
PUBLIC	??$_Destroy@K@std@@YAXPAK@Z			; std::_Destroy<unsigned long>
; Function compile flags: /Ogsp
; File c:\program files (x86)\microsoft visual studio 10.0\vc\include\xmemory
;	COMDAT ??$_Destroy@K@std@@YAXPAK@Z
_TEXT	SEGMENT
__Ptr$ = 8						; size = 4
??$_Destroy@K@std@@YAXPAK@Z PROC			; std::_Destroy<unsigned long>, COMDAT

; 63   : 	_Ptr->~_Ty();
; 64   : 	}

  00000	c3		 ret	 0
??$_Destroy@K@std@@YAXPAK@Z ENDP			; std::_Destroy<unsigned long>
_TEXT	ENDS
PUBLIC	?_DECSTR@@YAXPADH@Z				; _DECSTR
; Function compile flags: /Ogsp
; File d:\lost saga for developer\youtube\tutorial\source\src\lsclient\stringprotect.h
;	COMDAT ?_DECSTR@@YAXPADH@Z
_TEXT	SEGMENT
_s$ = 8							; size = 4
_l$ = 12						; size = 4
?_DECSTR@@YAXPADH@Z PROC				; _DECSTR, COMDAT

; 40   : __forceinline void _DECSTR(char* s, int l){int i=0,l4=(l-1)/4,*p=(int*)s;s[l-1]=0;for(;i<l4;++i)*(p++)^=0xEAEBECED;for(i=l4*4;i<l-1;++i)s[i]^=0xED-i%4;}

  00000	55		 push	 ebp
  00001	8b ec		 mov	 ebp, esp
  00003	8b 4d 0c	 mov	 ecx, DWORD PTR _l$[ebp]
  00006	56		 push	 esi
  00007	8b 75 08	 mov	 esi, DWORD PTR _s$[ebp]
  0000a	57		 push	 edi
  0000b	8d 79 ff	 lea	 edi, DWORD PTR [ecx-1]
  0000e	8b c7		 mov	 eax, edi
  00010	99		 cdq
  00011	83 e2 03	 and	 edx, 3
  00014	03 c2		 add	 eax, edx
  00016	c1 f8 02	 sar	 eax, 2
  00019	8b d6		 mov	 edx, esi
  0001b	c6 44 0e ff 00	 mov	 BYTE PTR [esi+ecx-1], 0
  00020	85 c0		 test	 eax, eax
  00022	7e 0e		 jle	 SHORT $LN4@DECSTR
  00024	8b c8		 mov	 ecx, eax
$LL6@DECSTR:
  00026	81 32 ed ec eb
	ea		 xor	 DWORD PTR [edx], -353637139 ; eaebecedH
  0002c	83 c2 04	 add	 edx, 4
  0002f	49		 dec	 ecx
  00030	75 f4		 jne	 SHORT $LL6@DECSTR
$LN4@DECSTR:
  00032	c1 e0 02	 shl	 eax, 2
  00035	eb 17		 jmp	 SHORT $LN14@DECSTR
$LL3@DECSTR:
  00037	8b c8		 mov	 ecx, eax
  00039	81 e1 03 00 00
	80		 and	 ecx, -2147483645	; 80000003H
  0003f	79 05		 jns	 SHORT $LN13@DECSTR
  00041	49		 dec	 ecx
  00042	83 c9 fc	 or	 ecx, -4			; fffffffcH
  00045	41		 inc	 ecx
$LN13@DECSTR:
  00046	b2 ed		 mov	 dl, -19			; ffffffedH
  00048	2a d1		 sub	 dl, cl
  0004a	30 14 30	 xor	 BYTE PTR [eax+esi], dl
  0004d	40		 inc	 eax
$LN14@DECSTR:
  0004e	3b c7		 cmp	 eax, edi
  00050	7c e5		 jl	 SHORT $LL3@DECSTR
  00052	5f		 pop	 edi
  00053	5e		 pop	 esi
  00054	5d		 pop	 ebp
  00055	c3		 ret	 0
?_DECSTR@@YAXPADH@Z ENDP				; _DECSTR
_TEXT	ENDS
PUBLIC	??_R0?AVioGameEntity@@@8			; ioGameEntity `RTTI Type Descriptor'
PUBLIC	??_R0?AVioPlayEntity@@@8			; ioPlayEntity `RTTI Type Descriptor'
PUBLIC	?ToPlayEntity@@YAPAVioPlayEntity@@PAVioGameEntity@@@Z ; ToPlayEntity
EXTRN	___RTDynamicCast:PROC
;	COMDAT ??_R0?AVioGameEntity@@@8
; File d:\lost saga for developer\youtube\tutorial\source\src\lsclient\ioplayentity.h
_DATA	SEGMENT
??_R0?AVioGameEntity@@@8 DD FLAT:??_7type_info@@6B@	; ioGameEntity `RTTI Type Descriptor'
	DD	00H
	DB	'.?AVioGameEntity@@', 00H
_DATA	ENDS
;	COMDAT ??_R0?AVioPlayEntity@@@8
_DATA	SEGMENT
??_R0?AVioPlayEntity@@@8 DD FLAT:??_7type_info@@6B@	; ioPlayEntity `RTTI Type Descriptor'
	DD	00H
	DB	'.?AVioPlayEntity@@', 00H
; Function compile flags: /Ogsp
_DATA	ENDS
;	COMDAT ?ToPlayEntity@@YAPAVioPlayEntity@@PAVioGameEntity@@@Z
_TEXT	SEGMENT
_pObj$ = 8						; size = 4
?ToPlayEntity@@YAPAVioPlayEntity@@PAVioGameEntity@@@Z PROC ; ToPlayEntity, COMDAT

; 121  : {

  00000	55		 push	 ebp
  00001	8b ec		 mov	 ebp, esp
  00003	56		 push	 esi

; 122  : 	if( !pObj || pObj->GetTypeID() != ioGameEntity::GET_PLAY_ENTITY )

  00004	8b 75 08	 mov	 esi, DWORD PTR _pObj$[ebp]
  00007	85 f6		 test	 esi, esi
  00009	74 25		 je	 SHORT $LN1@ToPlayEnti
  0000b	8b 06		 mov	 eax, DWORD PTR [esi]
  0000d	8b ce		 mov	 ecx, esi
  0000f	ff 50 10	 call	 DWORD PTR [eax+16]
  00012	83 f8 01	 cmp	 eax, 1
  00015	75 19		 jne	 SHORT $LN1@ToPlayEnti

; 124  : 
; 125  : 	return dynamic_cast< ioPlayEntity* >( pObj );

  00017	6a 00		 push	 0
  00019	68 00 00 00 00	 push	 OFFSET ??_R0?AVioPlayEntity@@@8
  0001e	68 00 00 00 00	 push	 OFFSET ??_R0?AVioGameEntity@@@8
  00023	6a 00		 push	 0
  00025	56		 push	 esi
  00026	e8 00 00 00 00	 call	 ___RTDynamicCast
  0002b	83 c4 14	 add	 esp, 20			; 00000014H
  0002e	eb 02		 jmp	 SHORT $LN3@ToPlayEnti
$LN1@ToPlayEnti:

; 123  : 		return NULL;

  00030	33 c0		 xor	 eax, eax
$LN3@ToPlayEnti:
  00032	5e		 pop	 esi

; 126  : }

  00033	5d		 pop	 ebp
  00034	c3		 ret	 0
?ToPlayEntity@@YAPAVioPlayEntity@@PAVioGameEntity@@@Z ENDP ; ToPlayEntity
_TEXT	ENDS
PUBLIC	?GetItemCode@ioItem@@QBEKXZ			; ioItem::GetItemCode
; Function compile flags: /Ogsp
; File d:\lost saga for developer\youtube\tutorial\source\src\lsclient\ioitem.h
;	COMDAT ?GetItemCode@ioItem@@QBEKXZ
_TEXT	SEGMENT
?GetItemCode@ioItem@@QBEKXZ PROC			; ioItem::GetItemCode, COMDAT
; _this$ = ecx

; 264  : 	inline DWORD GetItemCode() const { return m_dwItemCode; }

  00000	8b 41 38	 mov	 eax, DWORD PTR [ecx+56]
  00003	c3		 ret	 0
?GetItemCode@ioItem@@QBEKXZ ENDP			; ioItem::GetItemCode
_TEXT	ENDS
PUBLIC	?GetName@ioItem@@QBEABVioHashString@@XZ		; ioItem::GetName
; Function compile flags: /Ogsp
;	COMDAT ?GetName@ioItem@@QBEABVioHashString@@XZ
_TEXT	SEGMENT
?GetName@ioItem@@QBEABVioHashString@@XZ PROC		; ioItem::GetName, COMDAT
; _this$ = ecx

; 269  : 	inline const ioHashString& GetName() const { return m_Name; }

  00000	8d 81 34 01 00
	00		 lea	 eax, DWORD PTR [ecx+308]
  00006	c3		 ret	 0
?GetName@ioItem@@QBEABVioHashString@@XZ ENDP		; ioItem::GetName
_TEXT	ENDS
PUBLIC	?GetTypeID@ioBuff@@QBEHXZ			; ioBuff::GetTypeID
; Function compile flags: /Ogsp
; File d:\lost saga for developer\youtube\tutorial\source\src\lsclient\iobuff.h
;	COMDAT ?GetTypeID@ioBuff@@QBEHXZ
_TEXT	SEGMENT
?GetTypeID@ioBuff@@QBEHXZ PROC				; ioBuff::GetTypeID, COMDAT
; _this$ = ecx

; 424  : 	inline int GetTypeID() const { return m_iBuffType; }

  00000	8b 81 cc 03 00
	00		 mov	 eax, DWORD PTR [ecx+972]
  00006	c3		 ret	 0
?GetTypeID@ioBuff@@QBEHXZ ENDP				; ioBuff::GetTypeID
_TEXT	ENDS
PUBLIC	?GetName@ioBuff@@QBEABVioHashString@@XZ		; ioBuff::GetName
; Function compile flags: /Ogsp
;	COMDAT ?GetName@ioBuff@@QBEABVioHashString@@XZ
_TEXT	SEGMENT
?GetName@ioBuff@@QBEABVioHashString@@XZ PROC		; ioBuff::GetName, COMDAT
; _this$ = ecx

; 440  : 	inline const ioHashString& GetName() const { return m_Name; }

  00000	8d 81 34 02 00
	00		 lea	 eax, DWORD PTR [ecx+564]
  00006	c3		 ret	 0
?GetName@ioBuff@@QBEABVioHashString@@XZ ENDP		; ioBuff::GetName
_TEXT	ENDS
PUBLIC	?size@?$vector@KV?$allocator@K@std@@@std@@QBEIXZ ; std::vector<unsigned long,std::allocator<unsigned long> >::size
; Function compile flags: /Ogsp
; File c:\program files (x86)\microsoft visual studio 10.0\vc\include\vector
;	COMDAT ?size@?$vector@KV?$allocator@K@std@@@std@@QBEIXZ
_TEXT	SEGMENT
?size@?$vector@KV?$allocator@K@std@@@std@@QBEIXZ PROC	; std::vector<unsigned long,std::allocator<unsigned long> >::size, COMDAT
; _this$ = ecx

; 879  : 		return (this->_Mylast - this->_Myfirst);

  00000	8b 41 04	 mov	 eax, DWORD PTR [ecx+4]
  00003	2b 01		 sub	 eax, DWORD PTR [ecx]
  00005	c1 f8 02	 sar	 eax, 2

; 880  : 		}

  00008	c3		 ret	 0
?size@?$vector@KV?$allocator@K@std@@@std@@QBEIXZ ENDP	; std::vector<unsigned long,std::allocator<unsigned long> >::size
_TEXT	ENDS
PUBLIC	??A?$vector@KV?$allocator@K@std@@@std@@QAEAAKI@Z ; std::vector<unsigned long,std::allocator<unsigned long> >::operator[]
; Function compile flags: /Ogsp
;	COMDAT ??A?$vector@KV?$allocator@K@std@@@std@@QAEAAKI@Z
_TEXT	SEGMENT
__Pos$ = 8						; size = 4
??A?$vector@KV?$allocator@K@std@@@std@@QAEAAKI@Z PROC	; std::vector<unsigned long,std::allocator<unsigned long> >::operator[], COMDAT
; _this$ = ecx

; 928  : 		{	// subscript mutable sequence

  00000	55		 push	 ebp
  00001	8b ec		 mov	 ebp, esp

; 929  :  #if _ITERATOR_DEBUG_LEVEL == 2
; 930  : 		if (size() <= _Pos)
; 931  : 			{	// report error
; 932  : 			_DEBUG_ERROR("vector subscript out of range");
; 933  : 			_SCL_SECURE_OUT_OF_RANGE;
; 934  : 			}
; 935  : 
; 936  :  #elif _ITERATOR_DEBUG_LEVEL == 1
; 937  : 		_SCL_SECURE_VALIDATE_RANGE(_Pos < size());
; 938  :  #endif /* _ITERATOR_DEBUG_LEVEL */
; 939  : 
; 940  : 		return (*(this->_Myfirst + _Pos));

  00003	8b 01		 mov	 eax, DWORD PTR [ecx]
  00005	8b 4d 08	 mov	 ecx, DWORD PTR __Pos$[ebp]
  00008	8d 04 88	 lea	 eax, DWORD PTR [eax+ecx*4]

; 941  : 		}

  0000b	5d		 pop	 ebp
  0000c	c2 04 00	 ret	 4
??A?$vector@KV?$allocator@K@std@@@std@@QAEAAKI@Z ENDP	; std::vector<unsigned long,std::allocator<unsigned long> >::operator[]
_TEXT	ENDS
PUBLIC	?EncryptValueToPool@?$CEncrypt@K@@AAEXPBD@Z	; CEncrypt<unsigned long>::EncryptValueToPool
EXTRN	?EncryptByte@ccddaabb@@QAEXPBDPADH@Z:PROC	; ccddaabb::EncryptByte
; Function compile flags: /Ogsp
; File d:\lost saga for developer\youtube\tutorial\source\src\lsclient\encryptvalue.h
;	COMDAT ?EncryptValueToPool@?$CEncrypt@K@@AAEXPBD@Z
_TEXT	SEGMENT
_value$ = 8						; size = 4
?EncryptValueToPool@?$CEncrypt@K@@AAEXPBD@Z PROC	; CEncrypt<unsigned long>::EncryptValueToPool, COMDAT
; _this$ = ecx

; 67   : 	{

  00000	55		 push	 ebp
  00001	8b ec		 mov	 ebp, esp

; 68   : 		m_RC5.EncryptByte( value, m_MemPool, max(m_ValueSize, DEFAULT_ENCRYPT) );

  00003	0f b7 41 06	 movzx	 eax, WORD PTR [ecx+6]
  00007	83 f8 04	 cmp	 eax, 4
  0000a	77 03		 ja	 SHORT $LN4@EncryptVal
  0000c	6a 04		 push	 4
  0000e	58		 pop	 eax
$LN4@EncryptVal:
  0000f	50		 push	 eax
  00010	8d 41 1c	 lea	 eax, DWORD PTR [ecx+28]
  00013	50		 push	 eax
  00014	ff 75 08	 push	 DWORD PTR _value$[ebp]
  00017	83 c1 0c	 add	 ecx, 12			; 0000000cH
  0001a	e8 00 00 00 00	 call	 ?EncryptByte@ccddaabb@@QAEXPBDPADH@Z ; ccddaabb::EncryptByte

; 69   : 		
; 70   : 	}

  0001f	5d		 pop	 ebp
  00020	c2 04 00	 ret	 4
?EncryptValueToPool@?$CEncrypt@K@@AAEXPBD@Z ENDP	; CEncrypt<unsigned long>::EncryptValueToPool
_TEXT	ENDS
PUBLIC	?DecryptValueToPool@?$CEncrypt@K@@QAEXPAK@Z	; CEncrypt<unsigned long>::DecryptValueToPool
EXTRN	?DecryptByte@ccddaabb@@QBEXPBDPADH@Z:PROC	; ccddaabb::DecryptByte
; Function compile flags: /Ogsp
;	COMDAT ?DecryptValueToPool@?$CEncrypt@K@@QAEXPAK@Z
_TEXT	SEGMENT
_value$ = 8						; size = 4
?DecryptValueToPool@?$CEncrypt@K@@QAEXPAK@Z PROC	; CEncrypt<unsigned long>::DecryptValueToPool, COMDAT
; _this$ = ecx

; 1256 : 	{

  00000	55		 push	 ebp
  00001	8b ec		 mov	 ebp, esp
  00003	56		 push	 esi

; 1257 : 		m_RC5.DecryptByte( m_MemPool, m_TempMem, 4 );

  00004	8d 71 28	 lea	 esi, DWORD PTR [ecx+40]
  00007	6a 04		 push	 4
  00009	8d 41 1c	 lea	 eax, DWORD PTR [ecx+28]
  0000c	56		 push	 esi
  0000d	50		 push	 eax
  0000e	83 c1 0c	 add	 ecx, 12			; 0000000cH
  00011	e8 00 00 00 00	 call	 ?DecryptByte@ccddaabb@@QBEXPBDPADH@Z ; ccddaabb::DecryptByte

; 1258 : 		*value = *((DWORD*)m_TempMem);

  00016	8b 06		 mov	 eax, DWORD PTR [esi]
  00018	8b 4d 08	 mov	 ecx, DWORD PTR _value$[ebp]
  0001b	89 01		 mov	 DWORD PTR [ecx], eax
  0001d	5e		 pop	 esi

; 1259 : 	}

  0001e	5d		 pop	 ebp
  0001f	c2 04 00	 ret	 4
?DecryptValueToPool@?$CEncrypt@K@@QAEXPAK@Z ENDP	; CEncrypt<unsigned long>::DecryptValueToPool
_TEXT	ENDS
PUBLIC	?EncryptValueToPool@?$CEncrypt@_N@@AAEXPBD@Z	; CEncrypt<bool>::EncryptValueToPool
; Function compile flags: /Ogsp
;	COMDAT ?EncryptValueToPool@?$CEncrypt@_N@@AAEXPBD@Z
_TEXT	SEGMENT
_value$ = 8						; size = 4
?EncryptValueToPool@?$CEncrypt@_N@@AAEXPBD@Z PROC	; CEncrypt<bool>::EncryptValueToPool, COMDAT
; _this$ = ecx

; 67   : 	{

  00000	55		 push	 ebp
  00001	8b ec		 mov	 ebp, esp

; 68   : 		m_RC5.EncryptByte( value, m_MemPool, max(m_ValueSize, DEFAULT_ENCRYPT) );

  00003	0f b7 41 06	 movzx	 eax, WORD PTR [ecx+6]
  00007	83 f8 04	 cmp	 eax, 4
  0000a	77 03		 ja	 SHORT $LN4@EncryptVal@2
  0000c	6a 04		 push	 4
  0000e	58		 pop	 eax
$LN4@EncryptVal@2:
  0000f	50		 push	 eax
  00010	8d 41 1c	 lea	 eax, DWORD PTR [ecx+28]
  00013	50		 push	 eax
  00014	ff 75 08	 push	 DWORD PTR _value$[ebp]
  00017	83 c1 0c	 add	 ecx, 12			; 0000000cH
  0001a	e8 00 00 00 00	 call	 ?EncryptByte@ccddaabb@@QAEXPBDPADH@Z ; ccddaabb::EncryptByte

; 69   : 		
; 70   : 	}

  0001f	5d		 pop	 ebp
  00020	c2 04 00	 ret	 4
?EncryptValueToPool@?$CEncrypt@_N@@AAEXPBD@Z ENDP	; CEncrypt<bool>::EncryptValueToPool
_TEXT	ENDS
PUBLIC	?_Inside@?$vector@KV?$allocator@K@std@@@std@@IBE_NPBK@Z ; std::vector<unsigned long,std::allocator<unsigned long> >::_Inside
; Function compile flags: /Ogsp
; File c:\program files (x86)\microsoft visual studio 10.0\vc\include\vector
;	COMDAT ?_Inside@?$vector@KV?$allocator@K@std@@@std@@IBE_NPBK@Z
_TEXT	SEGMENT
__Ptr$ = 8						; size = 4
?_Inside@?$vector@KV?$allocator@K@std@@@std@@IBE_NPBK@Z PROC ; std::vector<unsigned long,std::allocator<unsigned long> >::_Inside, COMDAT
; _this$ = ecx

; 1285 : 		{	// test if _Ptr points inside vector

  00000	55		 push	 ebp
  00001	8b ec		 mov	 ebp, esp

; 1286 : 		return (_Ptr < this->_Mylast && this->_Myfirst <= _Ptr);

  00003	8b 45 08	 mov	 eax, DWORD PTR __Ptr$[ebp]
  00006	3b 41 04	 cmp	 eax, DWORD PTR [ecx+4]
  00009	73 09		 jae	 SHORT $LN3@Inside
  0000b	39 01		 cmp	 DWORD PTR [ecx], eax
  0000d	77 05		 ja	 SHORT $LN3@Inside
  0000f	33 c0		 xor	 eax, eax
  00011	40		 inc	 eax
  00012	eb 02		 jmp	 SHORT $LN4@Inside
$LN3@Inside:
  00014	33 c0		 xor	 eax, eax
$LN4@Inside:

; 1287 : 		}

  00016	5d		 pop	 ebp
  00017	c2 04 00	 ret	 4
?_Inside@?$vector@KV?$allocator@K@std@@@std@@IBE_NPBK@Z ENDP ; std::vector<unsigned long,std::allocator<unsigned long> >::_Inside
_TEXT	ENDS
PUBLIC	?_Orphan_range@?$vector@KV?$allocator@K@std@@@std@@IBEXPAK0@Z ; std::vector<unsigned long,std::allocator<unsigned long> >::_Orphan_range
; Function compile flags: /Ogsp
;	COMDAT ?_Orphan_range@?$vector@KV?$allocator@K@std@@@std@@IBEXPAK0@Z
_TEXT	SEGMENT
___formal$ = 8						; size = 4
___formal$ = 12						; size = 4
?_Orphan_range@?$vector@KV?$allocator@K@std@@@std@@IBEXPAK0@Z PROC ; std::vector<unsigned long,std::allocator<unsigned long> >::_Orphan_range, COMDAT
; _this$ = ecx

; 1454 : 		}

  00000	c2 08 00	 ret	 8
?_Orphan_range@?$vector@KV?$allocator@K@std@@@std@@IBEXPAK0@Z ENDP ; std::vector<unsigned long,std::allocator<unsigned long> >::_Orphan_range
_TEXT	ENDS
PUBLIC	??1?$_Vector_val@KV?$allocator@K@std@@@std@@QAE@XZ ; std::_Vector_val<unsigned long,std::allocator<unsigned long> >::~_Vector_val<unsigned long,std::allocator<unsigned long> >
; Function compile flags: /Ogsp
;	COMDAT ??1?$_Vector_val@KV?$allocator@K@std@@@std@@QAE@XZ
_TEXT	SEGMENT
??1?$_Vector_val@KV?$allocator@K@std@@@std@@QAE@XZ PROC	; std::_Vector_val<unsigned long,std::allocator<unsigned long> >::~_Vector_val<unsigned long,std::allocator<unsigned long> >, COMDAT
; _this$ = ecx

; 434  : 		}

  00000	c3		 ret	 0
??1?$_Vector_val@KV?$allocator@K@std@@@std@@QAE@XZ ENDP	; std::_Vector_val<unsigned long,std::allocator<unsigned long> >::~_Vector_val<unsigned long,std::allocator<unsigned long> >
_TEXT	ENDS
PUBLIC	??0?$allocator@K@std@@QAE@XZ			; std::allocator<unsigned long>::allocator<unsigned long>
; Function compile flags: /Ogsp
; File c:\program files (x86)\microsoft visual studio 10.0\vc\include\xmemory
;	COMDAT ??0?$allocator@K@std@@QAE@XZ
_TEXT	SEGMENT
??0?$allocator@K@std@@QAE@XZ PROC			; std::allocator<unsigned long>::allocator<unsigned long>, COMDAT
; _this$ = ecx

; 161  : 	_ALLOCATOR() _THROW0()

  00000	8b c1		 mov	 eax, ecx

; 162  : 		{	// construct default allocator (do nothing)
; 163  : 		}

  00002	c3		 ret	 0
??0?$allocator@K@std@@QAE@XZ ENDP			; std::allocator<unsigned long>::allocator<unsigned long>
_TEXT	ENDS
PUBLIC	?capacity@?$vector@KV?$allocator@K@std@@@std@@QBEIXZ ; std::vector<unsigned long,std::allocator<unsigned long> >::capacity
; Function compile flags: /Ogsp
; File c:\program files (x86)\microsoft visual studio 10.0\vc\include\vector
;	COMDAT ?capacity@?$vector@KV?$allocator@K@std@@@std@@QBEIXZ
_TEXT	SEGMENT
?capacity@?$vector@KV?$allocator@K@std@@@std@@QBEIXZ PROC ; std::vector<unsigned long,std::allocator<unsigned long> >::capacity, COMDAT
; _this$ = ecx

; 777  : 		return (this->_Myend - this->_Myfirst);

  00000	8b 41 08	 mov	 eax, DWORD PTR [ecx+8]
  00003	2b 01		 sub	 eax, DWORD PTR [ecx]
  00005	c1 f8 02	 sar	 eax, 2

; 778  : 		}

  00008	c3		 ret	 0
?capacity@?$vector@KV?$allocator@K@std@@@std@@QBEIXZ ENDP ; std::vector<unsigned long,std::allocator<unsigned long> >::capacity
_TEXT	ENDS
PUBLIC	??_C@_0BD@OLBABOEK@vector?$DMT?$DO?5too?5long?$AA@ ; `string'
PUBLIC	?_Xlen@?$vector@KV?$allocator@K@std@@@std@@IBEXXZ ; std::vector<unsigned long,std::allocator<unsigned long> >::_Xlen
EXTRN	__imp_?_Xlength_error@std@@YAXPBD@Z:PROC
;	COMDAT ??_C@_0BD@OLBABOEK@vector?$DMT?$DO?5too?5long?$AA@
CONST	SEGMENT
??_C@_0BD@OLBABOEK@vector?$DMT?$DO?5too?5long?$AA@ DB 'vector<T> too long'
	DB	00H						; `string'
; Function compile flags: /Ogsp
CONST	ENDS
;	COMDAT ?_Xlen@?$vector@KV?$allocator@K@std@@@std@@IBEXXZ
_TEXT	SEGMENT
?_Xlen@?$vector@KV?$allocator@K@std@@@std@@IBEXXZ PROC	; std::vector<unsigned long,std::allocator<unsigned long> >::_Xlen, COMDAT
; _this$ = ecx

; 1427 : 		_Xlength_error("vector<T> too long");

  00000	68 00 00 00 00	 push	 OFFSET ??_C@_0BD@OLBABOEK@vector?$DMT?$DO?5too?5long?$AA@
  00005	ff 15 00 00 00
	00		 call	 DWORD PTR __imp_?_Xlength_error@std@@YAXPBD@Z
$LN4@Xlen:
$LN3@Xlen:
  0000b	cc		 int	 3
?_Xlen@?$vector@KV?$allocator@K@std@@@std@@IBEXXZ ENDP	; std::vector<unsigned long,std::allocator<unsigned long> >::_Xlen
_TEXT	ENDS
PUBLIC	??0?$allocator@K@std@@QAE@ABV01@@Z		; std::allocator<unsigned long>::allocator<unsigned long>
; Function compile flags: /Ogsp
; File c:\program files (x86)\microsoft visual studio 10.0\vc\include\xmemory
;	COMDAT ??0?$allocator@K@std@@QAE@ABV01@@Z
_TEXT	SEGMENT
___formal$ = 8						; size = 4
??0?$allocator@K@std@@QAE@ABV01@@Z PROC			; std::allocator<unsigned long>::allocator<unsigned long>, COMDAT
; _this$ = ecx

; 165  : 	_ALLOCATOR(const _ALLOCATOR<_Ty>&) _THROW0()

  00000	8b c1		 mov	 eax, ecx

; 166  : 		{	// construct by copying (do nothing)
; 167  : 		}

  00002	c2 04 00	 ret	 4
??0?$allocator@K@std@@QAE@ABV01@@Z ENDP			; std::allocator<unsigned long>::allocator<unsigned long>
_TEXT	ENDS
PUBLIC	?deallocate@?$allocator@K@std@@QAEXPAKI@Z	; std::allocator<unsigned long>::deallocate
; Function compile flags: /Ogsp
;	COMDAT ?deallocate@?$allocator@K@std@@QAEXPAKI@Z
_TEXT	SEGMENT
__Ptr$ = 8						; size = 4
___formal$ = 12						; size = 4
?deallocate@?$allocator@K@std@@QAEXPAKI@Z PROC		; std::allocator<unsigned long>::deallocate, COMDAT
; _this$ = ecx

; 181  : 		{	// deallocate object at _Ptr, ignore size

  00000	55		 push	 ebp
  00001	8b ec		 mov	 ebp, esp

; 182  : 		::operator delete(_Ptr);

  00003	ff 75 08	 push	 DWORD PTR __Ptr$[ebp]
  00006	e8 00 00 00 00	 call	 ??3@YAXPAX@Z		; operator delete
  0000b	59		 pop	 ecx

; 183  : 		}

  0000c	5d		 pop	 ebp
  0000d	c2 08 00	 ret	 8
?deallocate@?$allocator@K@std@@QAEXPAKI@Z ENDP		; std::allocator<unsigned long>::deallocate
_TEXT	ENDS
PUBLIC	?max_size@?$allocator@K@std@@QBEIXZ		; std::allocator<unsigned long>::max_size
; Function compile flags: /Ogsp
;	COMDAT ?max_size@?$allocator@K@std@@QBEIXZ
_TEXT	SEGMENT
?max_size@?$allocator@K@std@@QBEIXZ PROC		; std::allocator<unsigned long>::max_size, COMDAT
; _this$ = ecx

; 218  : 		_SIZT _Count = (_SIZT)(-1) / sizeof (_Ty);
; 219  : 		return (0 < _Count ? _Count : 1);

  00000	b8 ff ff ff 3f	 mov	 eax, 1073741823		; 3fffffffH

; 220  : 		}

  00005	c3		 ret	 0
?max_size@?$allocator@K@std@@QBEIXZ ENDP		; std::allocator<unsigned long>::max_size
_TEXT	ENDS
PUBLIC	??0?$_Vector_const_iterator@V?$_Vector_val@KV?$allocator@K@std@@@std@@@std@@QAE@PAKPBU_Container_base0@1@@Z ; std::_Vector_const_iterator<std::_Vector_val<unsigned long,std::allocator<unsigned long> > >::_Vector_const_iterator<std::_Vector_val<unsigned long,std::allocator<unsigned long> > >
; Function compile flags: /Ogsp
; File c:\program files (x86)\microsoft visual studio 10.0\vc\include\vector
;	COMDAT ??0?$_Vector_const_iterator@V?$_Vector_val@KV?$allocator@K@std@@@std@@@std@@QAE@PAKPBU_Container_base0@1@@Z
_TEXT	SEGMENT
__Parg$ = 8						; size = 4
__Pvector$ = 12						; size = 4
??0?$_Vector_const_iterator@V?$_Vector_val@KV?$allocator@K@std@@@std@@@std@@QAE@PAKPBU_Container_base0@1@@Z PROC ; std::_Vector_const_iterator<std::_Vector_val<unsigned long,std::allocator<unsigned long> > >::_Vector_const_iterator<std::_Vector_val<unsigned long,std::allocator<unsigned long> > >, COMDAT
; _this$ = ecx

; 45   : 		{	// construct with pointer _Parg

  00000	55		 push	 ebp
  00001	8b ec		 mov	 ebp, esp
  00003	8b c1		 mov	 eax, ecx
  00005	8b 4d 08	 mov	 ecx, DWORD PTR __Parg$[ebp]
  00008	89 08		 mov	 DWORD PTR [eax], ecx

; 46   : 		this->_Adopt(_Pvector);
; 47   : 		}

  0000a	5d		 pop	 ebp
  0000b	c2 08 00	 ret	 8
??0?$_Vector_const_iterator@V?$_Vector_val@KV?$allocator@K@std@@@std@@@std@@QAE@PAKPBU_Container_base0@1@@Z ENDP ; std::_Vector_const_iterator<std::_Vector_val<unsigned long,std::allocator<unsigned long> > >::_Vector_const_iterator<std::_Vector_val<unsigned long,std::allocator<unsigned long> > >
_TEXT	ENDS
PUBLIC	?_Compat@?$_Vector_const_iterator@V?$_Vector_val@KV?$allocator@K@std@@@std@@@std@@QBEXABV12@@Z ; std::_Vector_const_iterator<std::_Vector_val<unsigned long,std::allocator<unsigned long> > >::_Compat
; Function compile flags: /Ogsp
;	COMDAT ?_Compat@?$_Vector_const_iterator@V?$_Vector_val@KV?$allocator@K@std@@@std@@@std@@QBEXABV12@@Z
_TEXT	SEGMENT
___formal$ = 8						; size = 4
?_Compat@?$_Vector_const_iterator@V?$_Vector_val@KV?$allocator@K@std@@@std@@@std@@QBEXABV12@@Z PROC ; std::_Vector_const_iterator<std::_Vector_val<unsigned long,std::allocator<unsigned long> > >::_Compat, COMDAT
; _this$ = ecx

; 253  : 		}

  00000	c2 04 00	 ret	 4
?_Compat@?$_Vector_const_iterator@V?$_Vector_val@KV?$allocator@K@std@@@std@@@std@@QBEXABV12@@Z ENDP ; std::_Vector_const_iterator<std::_Vector_val<unsigned long,std::allocator<unsigned long> > >::_Compat
_TEXT	ENDS
PUBLIC	??$addressof@$$CBK@std@@YAPBKABK@Z		; std::addressof<unsigned long const >
; Function compile flags: /Ogsp
; File c:\program files (x86)\microsoft visual studio 10.0\vc\include\xmemory
;	COMDAT ??$addressof@$$CBK@std@@YAPBKABK@Z
_TEXT	SEGMENT
__Val$ = 8						; size = 4
??$addressof@$$CBK@std@@YAPBKABK@Z PROC			; std::addressof<unsigned long const >, COMDAT

; 110  : 	{	// return address of _Val

  00000	55		 push	 ebp
  00001	8b ec		 mov	 ebp, esp

; 111  : 	return ((_Ty *) &(char&)_Val);

  00003	8b 45 08	 mov	 eax, DWORD PTR __Val$[ebp]

; 112  : 	}

  00006	5d		 pop	 ebp
  00007	c3		 ret	 0
??$addressof@$$CBK@std@@YAPBKABK@Z ENDP			; std::addressof<unsigned long const >
_TEXT	ENDS
PUBLIC	__TI2?AVbad_alloc@std@@
PUBLIC	??$_Allocate@K@std@@YAPAKIPAK@Z			; std::_Allocate<unsigned long>
PUBLIC	__CTA2?AVbad_alloc@std@@
PUBLIC	__CT??_R0?AVbad_alloc@std@@@8??0bad_alloc@std@@QAE@ABV01@@Z12
PUBLIC	??0bad_alloc@std@@QAE@ABV01@@Z			; std::bad_alloc::bad_alloc
PUBLIC	__CT??_R0?AVexception@std@@@8??0exception@std@@QAE@ABV01@@Z12
EXTRN	??2@YAPAXI@Z:PROC				; operator new
EXTRN	__CxxThrowException@8:PROC
EXTRN	??0exception@std@@QAE@ABV01@@Z:PROC		; std::exception::exception
;	COMDAT __CT??_R0?AVexception@std@@@8??0exception@std@@QAE@ABV01@@Z12
; File c:\program files (x86)\microsoft visual studio 10.0\vc\include\exception
xdata$x	SEGMENT
__CT??_R0?AVexception@std@@@8??0exception@std@@QAE@ABV01@@Z12 DD 00H
	DD	FLAT:??_R0?AVexception@std@@@8
	DD	00H
	DD	0ffffffffH
	ORG $+4
	DD	0cH
	DD	FLAT:??0exception@std@@QAE@ABV01@@Z
xdata$x	ENDS
;	COMDAT __CT??_R0?AVbad_alloc@std@@@8??0bad_alloc@std@@QAE@ABV01@@Z12
xdata$x	SEGMENT
__CT??_R0?AVbad_alloc@std@@@8??0bad_alloc@std@@QAE@ABV01@@Z12 DD 00H
	DD	FLAT:??_R0?AVbad_alloc@std@@@8
	DD	00H
	DD	0ffffffffH
	ORG $+4
	DD	0cH
	DD	FLAT:??0bad_alloc@std@@QAE@ABV01@@Z
xdata$x	ENDS
;	COMDAT __CTA2?AVbad_alloc@std@@
xdata$x	SEGMENT
__CTA2?AVbad_alloc@std@@ DD 02H
	DD	FLAT:__CT??_R0?AVbad_alloc@std@@@8??0bad_alloc@std@@QAE@ABV01@@Z12
	DD	FLAT:__CT??_R0?AVexception@std@@@8??0exception@std@@QAE@ABV01@@Z12
xdata$x	ENDS
;	COMDAT __TI2?AVbad_alloc@std@@
xdata$x	SEGMENT
__TI2?AVbad_alloc@std@@ DD 00H
	DD	FLAT:??1bad_alloc@std@@UAE@XZ
	DD	00H
	DD	FLAT:__CTA2?AVbad_alloc@std@@
; Function compile flags: /Ogsp
; File c:\program files (x86)\microsoft visual studio 10.0\vc\include\xmemory
xdata$x	ENDS
;	COMDAT ??$_Allocate@K@std@@YAPAKIPAK@Z
_TEXT	SEGMENT
$T533050 = -12						; size = 12
$T533055 = 8						; size = 4
__Count$ = 8						; size = 4
___formal$ = 12						; size = 4
??$_Allocate@K@std@@YAPAKIPAK@Z PROC			; std::_Allocate<unsigned long>, COMDAT

; 30   : 	{	// allocate storage for _Count elements of type _Ty

  00000	55		 push	 ebp
  00001	8b ec		 mov	 ebp, esp

; 31   : 	void *_Ptr = 0;
; 32   : 
; 33   : 	if (_Count <= 0)

  00003	8b 4d 08	 mov	 ecx, DWORD PTR __Count$[ebp]
  00006	83 ec 0c	 sub	 esp, 12			; 0000000cH
  00009	33 c0		 xor	 eax, eax
  0000b	85 c9		 test	 ecx, ecx

; 34   : 		_Count = 0;
; 35   : 	else if (((_SIZT)(-1) / sizeof (_Ty) < _Count)

  0000d	74 3e		 je	 SHORT $LN5@Allocate

; 36   : 		|| (_Ptr = ::operator new(_Count * sizeof (_Ty))) == 0)

  0000f	81 f9 ff ff ff
	3f		 cmp	 ecx, 1073741823		; 3fffffffH
  00015	77 10		 ja	 SHORT $LN1@Allocate
  00017	8b c1		 mov	 eax, ecx
  00019	c1 e0 02	 shl	 eax, 2
  0001c	50		 push	 eax
  0001d	e8 00 00 00 00	 call	 ??2@YAPAXI@Z		; operator new
  00022	59		 pop	 ecx
  00023	85 c0		 test	 eax, eax

; 38   : 
; 39   : 	return ((_Ty _FARQ *)_Ptr);

  00025	75 26		 jne	 SHORT $LN5@Allocate
$LN1@Allocate:

; 37   : 		_THROW_NCEE(bad_alloc, 0);

  00027	83 65 08 00	 and	 DWORD PTR $T533055[ebp], 0
  0002b	8d 45 08	 lea	 eax, DWORD PTR $T533055[ebp]
  0002e	50		 push	 eax
  0002f	8d 4d f4	 lea	 ecx, DWORD PTR $T533050[ebp]
  00032	ff 15 00 00 00
	00		 call	 DWORD PTR __imp_??0exception@std@@QAE@ABQBD@Z
  00038	68 00 00 00 00	 push	 OFFSET __TI2?AVbad_alloc@std@@
  0003d	8d 45 f4	 lea	 eax, DWORD PTR $T533050[ebp]
  00040	50		 push	 eax
  00041	c7 45 f4 00 00
	00 00		 mov	 DWORD PTR $T533050[ebp], OFFSET ??_7bad_alloc@std@@6B@
  00048	e8 00 00 00 00	 call	 __CxxThrowException@8
$LN10@Allocate:
$LN5@Allocate:

; 40   : 	}

  0004d	c9		 leave
  0004e	c3		 ret	 0
$LN9@Allocate:
??$_Allocate@K@std@@YAPAKIPAK@Z ENDP			; std::_Allocate<unsigned long>
_TEXT	ENDS
EXTRN	__imp_??0exception@std@@QAE@ABV01@@Z:PROC
; Function compile flags: /Ogsp
;	COMDAT ??0bad_alloc@std@@QAE@ABV01@@Z
_TEXT	SEGMENT
___that$ = 8						; size = 4
??0bad_alloc@std@@QAE@ABV01@@Z PROC			; std::bad_alloc::bad_alloc, COMDAT
; _this$ = ecx
  00000	55		 push	 ebp
  00001	8b ec		 mov	 ebp, esp
  00003	56		 push	 esi
  00004	ff 75 08	 push	 DWORD PTR ___that$[ebp]
  00007	8b f1		 mov	 esi, ecx
  00009	ff 15 00 00 00
	00		 call	 DWORD PTR __imp_??0exception@std@@QAE@ABV01@@Z
  0000f	c7 06 00 00 00
	00		 mov	 DWORD PTR [esi], OFFSET ??_7bad_alloc@std@@6B@
  00015	8b c6		 mov	 eax, esi
  00017	5e		 pop	 esi
  00018	5d		 pop	 ebp
  00019	c2 04 00	 ret	 4
??0bad_alloc@std@@QAE@ABV01@@Z ENDP			; std::bad_alloc::bad_alloc
_TEXT	ENDS
PUBLIC	??$forward@AAK@std@@YAAAKAAK@Z			; std::forward<unsigned long &>
; Function compile flags: /Ogsp
; File c:\program files (x86)\microsoft visual studio 10.0\vc\include\utility
;	COMDAT ??$forward@AAK@std@@YAAAKAAK@Z
_TEXT	SEGMENT
__Arg$ = 8						; size = 4
??$forward@AAK@std@@YAAAKAAK@Z PROC			; std::forward<unsigned long &>, COMDAT

; 78   : 	{	// forward _Arg, given explicitly specified type parameter

  00000	55		 push	 ebp
  00001	8b ec		 mov	 ebp, esp

; 79   : 	return ((_Ty&&)_Arg);

  00003	8b 45 08	 mov	 eax, DWORD PTR __Arg$[ebp]

; 80   : 	}

  00006	5d		 pop	 ebp
  00007	c3		 ret	 0
??$forward@AAK@std@@YAAAKAAK@Z ENDP			; std::forward<unsigned long &>
_TEXT	ENDS
PUBLIC	??$construct@AAK@?$allocator@K@std@@QAEXPAKAAK@Z ; std::allocator<unsigned long>::construct<unsigned long &>
; Function compile flags: /Ogsp
; File c:\program files (x86)\microsoft visual studio 10.0\vc\include\xmemory
;	COMDAT ??$construct@AAK@?$allocator@K@std@@QAEXPAKAAK@Z
_TEXT	SEGMENT
__Ptr$ = 8						; size = 4
__Val$ = 12						; size = 4
??$construct@AAK@?$allocator@K@std@@QAEXPAKAAK@Z PROC	; std::allocator<unsigned long>::construct<unsigned long &>, COMDAT
; _this$ = ecx

; 206  : 		void construct(pointer _Ptr, _Other&& _Val)

  00000	55		 push	 ebp
  00001	8b ec		 mov	 ebp, esp

; 207  : 		{	// construct object at _Ptr with value _Val
; 208  : 		::new ((void _FARQ *)_Ptr) _Ty(_STD forward<_Other>(_Val));

  00003	8b 45 08	 mov	 eax, DWORD PTR __Ptr$[ebp]
  00006	85 c0		 test	 eax, eax
  00008	74 07		 je	 SHORT $LN3@construct
  0000a	8b 4d 0c	 mov	 ecx, DWORD PTR __Val$[ebp]
  0000d	8b 09		 mov	 ecx, DWORD PTR [ecx]
  0000f	89 08		 mov	 DWORD PTR [eax], ecx
$LN3@construct:

; 209  : 		}

  00011	5d		 pop	 ebp
  00012	c2 08 00	 ret	 8
??$construct@AAK@?$allocator@K@std@@QAEXPAKAAK@Z ENDP	; std::allocator<unsigned long>::construct<unsigned long &>
_TEXT	ENDS
PUBLIC	??$forward@ABK@std@@YAABKABK@Z			; std::forward<unsigned long const &>
; Function compile flags: /Ogsp
; File c:\program files (x86)\microsoft visual studio 10.0\vc\include\utility
;	COMDAT ??$forward@ABK@std@@YAABKABK@Z
_TEXT	SEGMENT
__Arg$ = 8						; size = 4
??$forward@ABK@std@@YAABKABK@Z PROC			; std::forward<unsigned long const &>, COMDAT

; 78   : 	{	// forward _Arg, given explicitly specified type parameter

  00000	55		 push	 ebp
  00001	8b ec		 mov	 ebp, esp

; 79   : 	return ((_Ty&&)_Arg);

  00003	8b 45 08	 mov	 eax, DWORD PTR __Arg$[ebp]

; 80   : 	}

  00006	5d		 pop	 ebp
  00007	c3		 ret	 0
??$forward@ABK@std@@YAABKABK@Z ENDP			; std::forward<unsigned long const &>
_TEXT	ENDS
PUBLIC	??$_Ptr_cat@KK@std@@YA?AU_Scalar_ptr_iterator_tag@0@PAK0@Z ; std::_Ptr_cat<unsigned long,unsigned long>
; Function compile flags: /Ogsp
; File c:\program files (x86)\microsoft visual studio 10.0\vc\include\xutility
;	COMDAT ??$_Ptr_cat@KK@std@@YA?AU_Scalar_ptr_iterator_tag@0@PAK0@Z
_TEXT	SEGMENT
__Cat$ = -1						; size = 1
___formal$ = 8						; size = 4
___formal$ = 12						; size = 4
??$_Ptr_cat@KK@std@@YA?AU_Scalar_ptr_iterator_tag@0@PAK0@Z PROC ; std::_Ptr_cat<unsigned long,unsigned long>, COMDAT

; 516  : 	{	// return pointer category from pointers

  00000	55		 push	 ebp
  00001	8b ec		 mov	 ebp, esp
  00003	51		 push	 ecx

; 517  : 	typename _Ptr_cat_helper<_Elem1, _Elem2>::_Type _Cat;
; 518  : 	return (_Cat);

  00004	8a 45 ff	 mov	 al, BYTE PTR __Cat$[ebp]

; 519  : 	}

  00007	c9		 leave
  00008	c3		 ret	 0
??$_Ptr_cat@KK@std@@YA?AU_Scalar_ptr_iterator_tag@0@PAK0@Z ENDP ; std::_Ptr_cat<unsigned long,unsigned long>
_TEXT	ENDS
PUBLIC	??$_Move@PAKPAK@std@@YAPAKPAK00U_Scalar_ptr_iterator_tag@0@@Z ; std::_Move<unsigned long *,unsigned long *>
EXTRN	__imp__memmove:PROC
; Function compile flags: /Ogsp
;	COMDAT ??$_Move@PAKPAK@std@@YAPAKPAK00U_Scalar_ptr_iterator_tag@0@@Z
_TEXT	SEGMENT
__First$ = 8						; size = 4
__Last$ = 12						; size = 4
__Dest$ = 16						; size = 4
___formal$ = 20						; size = 1
??$_Move@PAKPAK@std@@YAPAKPAK00U_Scalar_ptr_iterator_tag@0@@Z PROC ; std::_Move<unsigned long *,unsigned long *>, COMDAT

; 2522 : 	{	// move [_First, _Last) to [_Dest, ...), pointers to scalars

  00000	55		 push	 ebp
  00001	8b ec		 mov	 ebp, esp
  00003	56		 push	 esi

; 2523 : 	ptrdiff_t _Count = _Last - _First;

  00004	8b 75 0c	 mov	 esi, DWORD PTR __Last$[ebp]
  00007	2b 75 08	 sub	 esi, DWORD PTR __First$[ebp]
  0000a	57		 push	 edi

; 2524 : 	_CSTD memmove(&*_Dest, &*_First,
; 2525 : 		_Count * sizeof (*_First));

  0000b	8b 7d 10	 mov	 edi, DWORD PTR __Dest$[ebp]
  0000e	c1 fe 02	 sar	 esi, 2
  00011	c1 e6 02	 shl	 esi, 2
  00014	56		 push	 esi
  00015	ff 75 08	 push	 DWORD PTR __First$[ebp]
  00018	57		 push	 edi
  00019	ff 15 00 00 00
	00		 call	 DWORD PTR __imp__memmove
  0001f	83 c4 0c	 add	 esp, 12			; 0000000cH

; 2526 : 	return (_Dest + _Count);

  00022	8d 04 3e	 lea	 eax, DWORD PTR [esi+edi]
  00025	5f		 pop	 edi
  00026	5e		 pop	 esi

; 2527 : 	}

  00027	5d		 pop	 ebp
  00028	c3		 ret	 0
??$_Move@PAKPAK@std@@YAPAKPAK00U_Scalar_ptr_iterator_tag@0@@Z ENDP ; std::_Move<unsigned long *,unsigned long *>
_TEXT	ENDS
PUBLIC	??$_Destroy_range@V?$allocator@K@std@@@std@@YAXPAK0AAV?$allocator@K@0@U_Scalar_ptr_iterator_tag@0@@Z ; std::_Destroy_range<std::allocator<unsigned long> >
; Function compile flags: /Ogsp
; File c:\program files (x86)\microsoft visual studio 10.0\vc\include\xmemory
;	COMDAT ??$_Destroy_range@V?$allocator@K@std@@@std@@YAXPAK0AAV?$allocator@K@0@U_Scalar_ptr_iterator_tag@0@@Z
_TEXT	SEGMENT
__First$ = 8						; size = 4
__Last$ = 12						; size = 4
__Al$ = 16						; size = 4
___formal$ = 20						; size = 1
??$_Destroy_range@V?$allocator@K@std@@@std@@YAXPAK0AAV?$allocator@K@0@U_Scalar_ptr_iterator_tag@0@@Z PROC ; std::_Destroy_range<std::allocator<unsigned long> >, COMDAT

; 105  : 	}

  00000	c3		 ret	 0
??$_Destroy_range@V?$allocator@K@std@@@std@@YAXPAK0AAV?$allocator@K@0@U_Scalar_ptr_iterator_tag@0@@Z ENDP ; std::_Destroy_range<std::allocator<unsigned long> >
_TEXT	ENDS
PUBLIC	??$_Construct@KABK@std@@YAXPAKABK@Z		; std::_Construct<unsigned long,unsigned long const &>
; Function compile flags: /Ogsp
;	COMDAT ??$_Construct@KABK@std@@YAXPAKABK@Z
_TEXT	SEGMENT
__Ptr$ = 8						; size = 4
__Val$ = 12						; size = 4
??$_Construct@KABK@std@@YAXPAKABK@Z PROC		; std::_Construct<unsigned long,unsigned long const &>, COMDAT

; 46   : 	{	// construct object at _Ptr with value _Val

  00000	55		 push	 ebp
  00001	8b ec		 mov	 ebp, esp

; 47   : 	void _FARQ *_Vptr = _Ptr;
; 48   : 	::new (_Vptr) _Ty1(_STD forward<_Ty2>(_Val));

  00003	8b 45 08	 mov	 eax, DWORD PTR __Ptr$[ebp]
  00006	85 c0		 test	 eax, eax
  00008	74 07		 je	 SHORT $LN3@Construct
  0000a	8b 4d 0c	 mov	 ecx, DWORD PTR __Val$[ebp]
  0000d	8b 09		 mov	 ecx, DWORD PTR [ecx]
  0000f	89 08		 mov	 DWORD PTR [eax], ecx
$LN3@Construct:

; 49   : 	}

  00011	5d		 pop	 ebp
  00012	c3		 ret	 0
??$_Construct@KABK@std@@YAXPAKABK@Z ENDP		; std::_Construct<unsigned long,unsigned long const &>
_TEXT	ENDS
PUBLIC	??$_Val_type@PAK@std@@YAPAKPAK@Z		; std::_Val_type<unsigned long *>
; Function compile flags: /Ogsp
; File c:\program files (x86)\microsoft visual studio 10.0\vc\include\xutility
;	COMDAT ??$_Val_type@PAK@std@@YAPAKPAK@Z
_TEXT	SEGMENT
___formal$ = 8						; size = 4
??$_Val_type@PAK@std@@YAPAKPAK@Z PROC			; std::_Val_type<unsigned long *>, COMDAT

; 790  : 	return (0);

  00000	33 c0		 xor	 eax, eax

; 791  : 	}

  00002	c3		 ret	 0
??$_Val_type@PAK@std@@YAPAKPAK@Z ENDP			; std::_Val_type<unsigned long *>
_TEXT	ENDS
PUBLIC	??$_Uninit_move@KKK@std@@YAPAKPAK00AAV?$allocator@K@0@0U_Scalar_ptr_iterator_tag@0@@Z ; std::_Uninit_move<unsigned long,unsigned long,unsigned long>
; Function compile flags: /Ogsp
; File c:\program files (x86)\microsoft visual studio 10.0\vc\include\memory
;	COMDAT ??$_Uninit_move@KKK@std@@YAPAKPAK00AAV?$allocator@K@0@0U_Scalar_ptr_iterator_tag@0@@Z
_TEXT	SEGMENT
__First$ = 8						; size = 4
__Last$ = 12						; size = 4
__Dest$ = 16						; size = 4
___formal$ = 20						; size = 4
___formal$ = 24						; size = 4
___formal$ = 28						; size = 1
??$_Uninit_move@KKK@std@@YAPAKPAK00AAV?$allocator@K@0@0U_Scalar_ptr_iterator_tag@0@@Z PROC ; std::_Uninit_move<unsigned long,unsigned long,unsigned long>, COMDAT

; 456  : 	{	// move [_First, _Last) to raw _Dest, scalar type

  00000	55		 push	 ebp
  00001	8b ec		 mov	 ebp, esp
  00003	56		 push	 esi

; 457  : 	_DEBUG_RANGE(_First, _Last);
; 458  : 	_DEBUG_POINTER(_Dest);
; 459  : 	size_t _Count = (size_t)(_Last - _First);

  00004	8b 75 0c	 mov	 esi, DWORD PTR __Last$[ebp]
  00007	2b 75 08	 sub	 esi, DWORD PTR __First$[ebp]
  0000a	c1 fe 02	 sar	 esi, 2

; 460  : 	return ((_Ty2 *)_CSTD memmove(&*_Dest, &*_First,
; 461  : 		_Count * sizeof (*_First)) + _Count);	// NB: non-overlapping move

  0000d	c1 e6 02	 shl	 esi, 2
  00010	56		 push	 esi
  00011	ff 75 08	 push	 DWORD PTR __First$[ebp]
  00014	ff 75 10	 push	 DWORD PTR __Dest$[ebp]
  00017	ff 15 00 00 00
	00		 call	 DWORD PTR __imp__memmove
  0001d	83 c4 0c	 add	 esp, 12			; 0000000cH
  00020	03 c6		 add	 eax, esi
  00022	5e		 pop	 esi

; 462  : 	}

  00023	5d		 pop	 ebp
  00024	c3		 ret	 0
??$_Uninit_move@KKK@std@@YAPAKPAK00AAV?$allocator@K@0@0U_Scalar_ptr_iterator_tag@0@@Z ENDP ; std::_Uninit_move<unsigned long,unsigned long,unsigned long>
_TEXT	ENDS
PUBLIC	??_R0?AVioBaseChar@@@8				; ioBaseChar `RTTI Type Descriptor'
PUBLIC	?ToBaseChar@@YAPAVioBaseChar@@PAVioGameEntity@@@Z ; ToBaseChar
;	COMDAT ??_R0?AVioBaseChar@@@8
; File d:\lost saga for developer\youtube\tutorial\source\src\lsclient\iobasechar.h
_DATA	SEGMENT
??_R0?AVioBaseChar@@@8 DD FLAT:??_7type_info@@6B@	; ioBaseChar `RTTI Type Descriptor'
	DD	00H
	DB	'.?AVioBaseChar@@', 00H
; Function compile flags: /Ogsp
_DATA	ENDS
;	COMDAT ?ToBaseChar@@YAPAVioBaseChar@@PAVioGameEntity@@@Z
_TEXT	SEGMENT
_pObj$ = 8						; size = 4
?ToBaseChar@@YAPAVioBaseChar@@PAVioGameEntity@@@Z PROC	; ToBaseChar, COMDAT

; 4326 : {

  00000	55		 push	 ebp
  00001	8b ec		 mov	 ebp, esp
  00003	56		 push	 esi

; 4327 : 	ioPlayEntity *pPlay = ToPlayEntity( pObj );

  00004	ff 75 08	 push	 DWORD PTR _pObj$[ebp]
  00007	e8 00 00 00 00	 call	 ?ToPlayEntity@@YAPAVioPlayEntity@@PAVioGameEntity@@@Z ; ToPlayEntity
  0000c	8b f0		 mov	 esi, eax
  0000e	59		 pop	 ecx

; 4328 : 	if( !pPlay || pPlay->GetSubType() != ioPlayEntity::PST_CHAR )

  0000f	85 f6		 test	 esi, esi
  00011	74 25		 je	 SHORT $LN1@ToBaseChar
  00013	8b 06		 mov	 eax, DWORD PTR [esi]
  00015	8b ce		 mov	 ecx, esi
  00017	ff 90 a4 00 00
	00		 call	 DWORD PTR [eax+164]
  0001d	85 c0		 test	 eax, eax
  0001f	75 17		 jne	 SHORT $LN1@ToBaseChar

; 4330 : 
; 4331 : 	return dynamic_cast< ioBaseChar* >( pPlay );

  00021	50		 push	 eax
  00022	68 00 00 00 00	 push	 OFFSET ??_R0?AVioBaseChar@@@8
  00027	68 00 00 00 00	 push	 OFFSET ??_R0?AVioPlayEntity@@@8
  0002c	50		 push	 eax
  0002d	56		 push	 esi
  0002e	e8 00 00 00 00	 call	 ___RTDynamicCast
  00033	83 c4 14	 add	 esp, 20			; 00000014H
  00036	eb 02		 jmp	 SHORT $LN3@ToBaseChar
$LN1@ToBaseChar:

; 4329 : 		return NULL;

  00038	33 c0		 xor	 eax, eax
$LN3@ToBaseChar:
  0003a	5e		 pop	 esi

; 4332 : }

  0003b	5d		 pop	 ebp
  0003c	c3		 ret	 0
?ToBaseChar@@YAPAVioBaseChar@@PAVioGameEntity@@@Z ENDP	; ToBaseChar
_TEXT	ENDS
PUBLIC	??_R0?AVioNpcChar@@@8				; ioNpcChar `RTTI Type Descriptor'
PUBLIC	?ToNpcChar@@YAPAVioNpcChar@@PAVioGameEntity@@@Z	; ToNpcChar
;	COMDAT ??_R0?AVioNpcChar@@@8
; File d:\lost saga for developer\youtube\tutorial\source\src\lsclient\ionpcchar.h
_DATA	SEGMENT
??_R0?AVioNpcChar@@@8 DD FLAT:??_7type_info@@6B@	; ioNpcChar `RTTI Type Descriptor'
	DD	00H
	DB	'.?AVioNpcChar@@', 00H
; Function compile flags: /Ogsp
_DATA	ENDS
;	COMDAT ?ToNpcChar@@YAPAVioNpcChar@@PAVioGameEntity@@@Z
_TEXT	SEGMENT
_pObj$ = 8						; size = 4
?ToNpcChar@@YAPAVioNpcChar@@PAVioGameEntity@@@Z PROC	; ToNpcChar, COMDAT

; 361  : {

  00000	55		 push	 ebp
  00001	8b ec		 mov	 ebp, esp
  00003	56		 push	 esi

; 362  : 	ioBaseChar *pChar = ToBaseChar( pObj );

  00004	ff 75 08	 push	 DWORD PTR _pObj$[ebp]
  00007	e8 00 00 00 00	 call	 ?ToBaseChar@@YAPAVioBaseChar@@PAVioGameEntity@@@Z ; ToBaseChar
  0000c	8b f0		 mov	 esi, eax
  0000e	59		 pop	 ecx

; 363  : 	if( !pChar || pChar->GetControlType() != CONTROL_AI )

  0000f	85 f6		 test	 esi, esi
  00011	74 28		 je	 SHORT $LN1@ToNpcChar
  00013	8b 06		 mov	 eax, DWORD PTR [esi]
  00015	8b ce		 mov	 ecx, esi
  00017	ff 90 ec 00 00
	00		 call	 DWORD PTR [eax+236]
  0001d	83 f8 02	 cmp	 eax, 2
  00020	75 19		 jne	 SHORT $LN1@ToNpcChar

; 365  : 
; 366  : 	return dynamic_cast< ioNpcChar* >(pChar);

  00022	6a 00		 push	 0
  00024	68 00 00 00 00	 push	 OFFSET ??_R0?AVioNpcChar@@@8
  00029	68 00 00 00 00	 push	 OFFSET ??_R0?AVioBaseChar@@@8
  0002e	6a 00		 push	 0
  00030	56		 push	 esi
  00031	e8 00 00 00 00	 call	 ___RTDynamicCast
  00036	83 c4 14	 add	 esp, 20			; 00000014H
  00039	eb 02		 jmp	 SHORT $LN3@ToNpcChar
$LN1@ToNpcChar:

; 364  : 		return NULL;

  0003b	33 c0		 xor	 eax, eax
$LN3@ToNpcChar:
  0003d	5e		 pop	 esi

; 367  : }

  0003e	5d		 pop	 ebp
  0003f	c3		 ret	 0
?ToNpcChar@@YAPAVioNpcChar@@PAVioGameEntity@@@Z ENDP	; ToNpcChar
_TEXT	ENDS
PUBLIC	?EndBuff@ioTargetEquipObjectItemBuff@@UAEXXZ	; ioTargetEquipObjectItemBuff::EndBuff
EXTRN	?EndBuff@ioBuff@@UAEXXZ:PROC			; ioBuff::EndBuff
EXTRN	?GetOwner@ioBuff@@QAEPAVioBaseChar@@XZ:PROC	; ioBuff::GetOwner
EXTRN	?GetPlayStage@ioItemMaker@@QAEPAVioPlayStage@@XZ:PROC ; ioItemMaker::GetPlayStage
EXTRN	?GetSingleton@ioItemMaker@@SAAAV1@XZ:PROC	; ioItemMaker::GetSingleton
; Function compile flags: /Ogsp
; File d:\lost saga for developer\youtube\tutorial\source\src\lsclient\iotargetequipobjectitembuff.cpp
;	COMDAT ?EndBuff@ioTargetEquipObjectItemBuff@@UAEXXZ
_TEXT	SEGMENT
?EndBuff@ioTargetEquipObjectItemBuff@@UAEXXZ PROC	; ioTargetEquipObjectItemBuff::EndBuff, COMDAT
; _this$ = ecx

; 166  : {

  00000	56		 push	 esi
  00001	57		 push	 edi
  00002	8b f1		 mov	 esi, ecx

; 167  : 	ioPlayStage *pStage = g_ItemMaker.GetPlayStage();

  00004	e8 00 00 00 00	 call	 ?GetSingleton@ioItemMaker@@SAAAV1@XZ ; ioItemMaker::GetSingleton
  00009	8b c8		 mov	 ecx, eax
  0000b	e8 00 00 00 00	 call	 ?GetPlayStage@ioItemMaker@@QAEPAVioPlayStage@@XZ ; ioItemMaker::GetPlayStage

; 168  : 	ioBaseChar *pOwner = GetOwner();

  00010	8b ce		 mov	 ecx, esi
  00012	8b f8		 mov	 edi, eax
  00014	e8 00 00 00 00	 call	 ?GetOwner@ioBuff@@QAEPAVioBaseChar@@XZ ; ioBuff::GetOwner

; 169  : 
; 170  : 	if( pOwner && pStage )

  00019	85 c0		 test	 eax, eax
  0001b	74 0f		 je	 SHORT $LN1@EndBuff
  0001d	85 ff		 test	 edi, edi
  0001f	74 0b		 je	 SHORT $LN1@EndBuff

; 171  : 		ReleaseObject( pStage, pOwner, true );

  00021	6a 01		 push	 1
  00023	50		 push	 eax
  00024	57		 push	 edi
  00025	8b ce		 mov	 ecx, esi
  00027	e8 00 00 00 00	 call	 ?ReleaseObject@ioTargetEquipObjectItemBuff@@QAE_NPAVioPlayStage@@PAVioBaseChar@@_N@Z ; ioTargetEquipObjectItemBuff::ReleaseObject
$LN1@EndBuff:

; 172  : 
; 173  : 	ioBuff::EndBuff();

  0002c	5f		 pop	 edi
  0002d	8b ce		 mov	 ecx, esi
  0002f	5e		 pop	 esi
  00030	e9 00 00 00 00	 jmp	 ?EndBuff@ioBuff@@UAEXXZ	; ioBuff::EndBuff
?EndBuff@ioTargetEquipObjectItemBuff@@UAEXXZ ENDP	; ioTargetEquipObjectItemBuff::EndBuff
_TEXT	ENDS
PUBLIC	?ProcessCheckObject@ioTargetEquipObjectItemBuff@@IAEXXZ ; ioTargetEquipObjectItemBuff::ProcessCheckObject
EXTRN	?GetObjectA@ioBaseChar@@QBEPAVioObjectItem@@XZ:PROC ; ioBaseChar::GetObjectA
; Function compile flags: /Ogsp
;	COMDAT ?ProcessCheckObject@ioTargetEquipObjectItemBuff@@IAEXXZ
_TEXT	SEGMENT
?ProcessCheckObject@ioTargetEquipObjectItemBuff@@IAEXXZ PROC ; ioTargetEquipObjectItemBuff::ProcessCheckObject, COMDAT
; _this$ = ecx

; 264  : {	

  00000	56		 push	 esi
  00001	8b f1		 mov	 esi, ecx

; 265  : 	if( m_ObjectState != OE_NONE )

  00003	83 be 88 09 00
	00 00		 cmp	 DWORD PTR [esi+2440], 0
  0000a	74 27		 je	 SHORT $LN1@ProcessChe

; 266  : 	{
; 267  : 		ioBaseChar *pOwner	= GetOwner();

  0000c	e8 00 00 00 00	 call	 ?GetOwner@ioBuff@@QAEPAVioBaseChar@@XZ ; ioBuff::GetOwner

; 268  : 		if( pOwner )

  00011	85 c0		 test	 eax, eax
  00013	74 1e		 je	 SHORT $LN1@ProcessChe

; 269  : 		{
; 270  : 			ioObjectItem* pObject = pOwner->GetObject();

  00015	8b c8		 mov	 ecx, eax
  00017	e8 00 00 00 00	 call	 ?GetObjectA@ioBaseChar@@QBEPAVioObjectItem@@XZ ; ioBaseChar::GetObjectA

; 271  : 			if( !pObject )

  0001c	85 c0		 test	 eax, eax
  0001e	75 08		 jne	 SHORT $LN2@ProcessChe
$LN11@ProcessChe:

; 272  : 			{
; 273  : 				SetReserveEndBuff();

  00020	8b ce		 mov	 ecx, esi
  00022	5e		 pop	 esi
  00023	e9 00 00 00 00	 jmp	 ?SetReserveEndBuff@ioBuff@@QAEXXZ ; ioBuff::SetReserveEndBuff
$LN2@ProcessChe:

; 274  : 				return;
; 275  : 			}
; 276  : 
; 277  : 			if( pObject->GetItemCode() != m_dwCurObjectItem )

  00028	8b 40 38	 mov	 eax, DWORD PTR [eax+56]
  0002b	3b 86 80 09 00
	00		 cmp	 eax, DWORD PTR [esi+2432]

; 278  : 			{
; 279  : 				SetReserveEndBuff();

  00031	75 ed		 jne	 SHORT $LN11@ProcessChe
$LN1@ProcessChe:
  00033	5e		 pop	 esi

; 280  : 				return;
; 281  : 			}
; 282  : 		}
; 283  : 	}
; 284  : }

  00034	c3		 ret	 0
?ProcessCheckObject@ioTargetEquipObjectItemBuff@@IAEXXZ ENDP ; ioTargetEquipObjectItemBuff::ProcessCheckObject
_TEXT	ENDS
PUBLIC	??_C@_0BN@BABNECIO@Err?5?9?5Random?5fuction?5?9?5yunga?$AA@ ; `string'
PUBLIC	__real@4f800000
PUBLIC	_pStage$GSCopy$
PUBLIC	__$ArrayPad$
PUBLIC	?SetObjectItemEquip@ioTargetEquipObjectItemBuff@@IAEXPAVioPlayStage@@PAVioBaseChar@@@Z ; ioTargetEquipObjectItemBuff::SetObjectItemEquip
EXTRN	?NewReserveEquipObjectItem@ioBaseChar@@QAEXKHVioHashString@@@Z:PROC ; ioBaseChar::NewReserveEquipObjectItem
EXTRN	__imp_??0ioHashString@@QAE@ABV0@@Z:PROC
EXTRN	??1SP2Packet@@UAE@XZ:PROC			; SP2Packet::~SP2Packet
EXTRN	?SendToServer@TCPNetwork@@YAXAAVSP2Packet@@@Z:PROC ; TCPNetwork::SendToServer
EXTRN	??6SP2Packet@@QAEAAV0@H@Z:PROC			; SP2Packet::operator<<
EXTRN	??6SP2Packet@@QAEAAV0@_N@Z:PROC			; SP2Packet::operator<<
EXTRN	??6SP2Packet@@QAEAAV0@ABVioHashString@@@Z:PROC	; SP2Packet::operator<<
EXTRN	??6SP2Packet@@QAEAAV0@K@Z:PROC			; SP2Packet::operator<<
EXTRN	??6SP2Packet@@QAEAAV0@ABUD3DXVECTOR3@@@Z:PROC	; SP2Packet::operator<<
EXTRN	??0SP2Packet@@QAE@K@Z:PROC			; SP2Packet::SP2Packet
EXTRN	?SetEquipWaitSlot@ioEquipSlot@@QAEXH_N@Z:PROC	; ioEquipSlot::SetEquipWaitSlot
EXTRN	?GetModeType@ioPlayStage@@QBE?AW4ModeType@@XZ:PROC ; ioPlayStage::GetModeType
EXTRN	??1IORandom@@UAE@XZ:PROC			; IORandom::~IORandom
EXTRN	__imp_?PrintTimeAndLog@CLog@@QAAXHPADZZ:PROC
EXTRN	__imp_?LOG@@3VCLog@@A:BYTE
EXTRN	?Random@IORandom@@QAEII@Z:PROC			; IORandom::Random
EXTRN	?SetRandomSeed@IORandom@@QAEXI@Z:PROC		; IORandom::SetRandomSeed
EXTRN	__imp__timeGetTime@0:PROC
EXTRN	??0IORandom@@QAE@XZ:PROC			; IORandom::IORandom
EXTRN	__imp_??4ioHashString@@QAEAAV0@ABV0@@Z:PROC
EXTRN	?GetOwnerItem@ioBuff@@QAEPAVioItem@@XZ:PROC	; ioBuff::GetOwnerItem
EXTRN	__imp_??0ioHashString@@QAE@XZ:PROC
EXTRN	?GetMidPositionByRate@ioGameEntity@@QBE?AUD3DXVECTOR3@@M@Z:PROC ; ioGameEntity::GetMidPositionByRate
EXTRN	___security_cookie:DWORD
EXTRN	__fltused:DWORD
EXTRN	__chkstk:PROC
;	COMDAT ??_C@_0BN@BABNECIO@Err?5?9?5Random?5fuction?5?9?5yunga?$AA@
; File d:\lost saga for developer\youtube\tutorial\source\src\lsclient\iobuff.h
CONST	SEGMENT
??_C@_0BN@BABNECIO@Err?5?9?5Random?5fuction?5?9?5yunga?$AA@ DB 'Err - Ran'
	DB	'dom fuction - yunga', 00H			; `string'
CONST	ENDS
;	COMDAT __real@4f800000
CONST	SEGMENT
__real@4f800000 DD 04f800000r			; 4.29497e+009
CONST	ENDS
;	COMDAT xdata$x
xdata$x	SEGMENT
__unwindtable$?SetObjectItemEquip@ioTargetEquipObjectItemBuff@@IAEXPAVioPlayStage@@PAVioBaseChar@@@Z DD 0ffffffffH
	DD	FLAT:__unwindfunclet$?SetObjectItemEquip@ioTargetEquipObjectItemBuff@@IAEXPAVioPlayStage@@PAVioBaseChar@@@Z$0
	DD	00H
	DD	FLAT:__unwindfunclet$?SetObjectItemEquip@ioTargetEquipObjectItemBuff@@IAEXPAVioPlayStage@@PAVioBaseChar@@@Z$1
	DD	00H
	DD	FLAT:__unwindfunclet$?SetObjectItemEquip@ioTargetEquipObjectItemBuff@@IAEXPAVioPlayStage@@PAVioBaseChar@@@Z$2
__ehfuncinfo$?SetObjectItemEquip@ioTargetEquipObjectItemBuff@@IAEXPAVioPlayStage@@PAVioBaseChar@@@Z DD 019930522H
	DD	03H
	DD	FLAT:__unwindtable$?SetObjectItemEquip@ioTargetEquipObjectItemBuff@@IAEXPAVioPlayStage@@PAVioBaseChar@@@Z
	DD	2 DUP(00H)
	DD	2 DUP(00H)
	DD	00H
	DD	01H
; Function compile flags: /Ogsp
; File d:\lost saga for developer\youtube\tutorial\source\src\lsclient\iotargetequipobjectitembuff.cpp
xdata$x	ENDS
;	COMDAT ?SetObjectItemEquip@ioTargetEquipObjectItemBuff@@IAEXPAVioPlayStage@@PAVioBaseChar@@@Z
_TEXT	SEGMENT
_szOwnerItem$ = -35352					; size = 16
_pStage$GSCopy$ = -35336				; size = 4
tv402 = -35332						; size = 4
tv398 = -35332						; size = 4
tv394 = -35332						; size = 4
$T533125 = -35332					; size = 4
_kPacket$531921 = -35328				; size = 32792
_eRandom$531909 = -2536					; size = 2508
_vCreatePos$ = -28					; size = 12
__$ArrayPad$ = -16					; size = 4
__$EHRec$ = -12						; size = 12
_pStage$ = 8						; size = 4
_pOwner$ = 12						; size = 4
?SetObjectItemEquip@ioTargetEquipObjectItemBuff@@IAEXPAVioPlayStage@@PAVioBaseChar@@@Z PROC ; ioTargetEquipObjectItemBuff::SetObjectItemEquip, COMDAT
; _this$ = ecx

; 287  : {	

  00000	55		 push	 ebp
  00001	8b ec		 mov	 ebp, esp
  00003	6a ff		 push	 -1
  00005	68 00 00 00 00	 push	 __ehhandler$?SetObjectItemEquip@ioTargetEquipObjectItemBuff@@IAEXPAVioPlayStage@@PAVioBaseChar@@@Z
  0000a	64 a1 00 00 00
	00		 mov	 eax, DWORD PTR fs:0
  00010	50		 push	 eax
  00011	b8 0c 8a 00 00	 mov	 eax, 35340		; 00008a0cH
  00016	e8 00 00 00 00	 call	 __chkstk
  0001b	a1 00 00 00 00	 mov	 eax, DWORD PTR ___security_cookie
  00020	33 c5		 xor	 eax, ebp
  00022	89 45 f0	 mov	 DWORD PTR __$ArrayPad$[ebp], eax
  00025	53		 push	 ebx
  00026	56		 push	 esi
  00027	57		 push	 edi
  00028	50		 push	 eax
  00029	8d 45 f4	 lea	 eax, DWORD PTR __$EHRec$[ebp]
  0002c	64 a3 00 00 00
	00		 mov	 DWORD PTR fs:0, eax
  00032	8b 45 08	 mov	 eax, DWORD PTR _pStage$[ebp]
  00035	8b 5d 0c	 mov	 ebx, DWORD PTR _pOwner$[ebp]
  00038	8b f1		 mov	 esi, ecx

; 351  : 		{
; 352  : 			pOwner->NewReserveEquipObjectItem( m_dwCurObjectItem, ioObjectItem::OCT_EQUIP_BUFF1, GetName() );

  0003a	89 85 f8 75 ff
	ff		 mov	 DWORD PTR _pStage$GSCopy$[ebp], eax
  00040	85 c0		 test	 eax, eax
  00042	0f 84 52 02 00
	00		 je	 $LN15@SetObjectI

; 288  : 	if( !pStage )	
; 289  : 		return;
; 290  : 
; 291  : 	if( !pOwner )

  00048	85 db		 test	 ebx, ebx
  0004a	0f 84 4a 02 00
	00		 je	 $LN15@SetObjectI

; 292  : 		return;
; 293  : 
; 294  : 	D3DXVECTOR3 vCreatePos = pOwner->GetMidPositionByRate();

  00050	b8 05 00 00 00	 mov	 eax, 5
  00055	8b c8		 mov	 ecx, eax
  00057	b8 0a 00 00 00	 mov	 eax, 10			; 0000000aH
  0005c	89 8d fc 75 ff
	ff		 mov	 DWORD PTR tv402[ebp], ecx
  00062	db 85 fc 75 ff
	ff		 fild	 DWORD PTR tv402[ebp]
  00068	85 c9		 test	 ecx, ecx
  0006a	79 06		 jns	 SHORT $LN40@SetObjectI
  0006c	d8 05 00 00 00
	00		 fadd	 DWORD PTR __real@4f800000
$LN40@SetObjectI:
  00072	89 85 fc 75 ff
	ff		 mov	 DWORD PTR tv398[ebp], eax
  00078	db 85 fc 75 ff
	ff		 fild	 DWORD PTR tv398[ebp]
  0007e	85 c0		 test	 eax, eax
  00080	79 06		 jns	 SHORT $LN41@SetObjectI
  00082	d8 05 00 00 00
	00		 fadd	 DWORD PTR __real@4f800000
$LN41@SetObjectI:
  00088	de f9		 fdivp	 ST(1), ST(0)
  0008a	51		 push	 ecx
  0008b	8d 45 e4	 lea	 eax, DWORD PTR _vCreatePos$[ebp]
  0008e	8b cb		 mov	 ecx, ebx
  00090	d9 9d fc 75 ff
	ff		 fstp	 DWORD PTR tv394[ebp]
  00096	d9 85 fc 75 ff
	ff		 fld	 DWORD PTR tv394[ebp]
  0009c	d9 1c 24	 fstp	 DWORD PTR [esp]
  0009f	50		 push	 eax
  000a0	e8 00 00 00 00	 call	 ?GetMidPositionByRate@ioGameEntity@@QBE?AUD3DXVECTOR3@@M@Z ; ioGameEntity::GetMidPositionByRate

; 295  : 
; 296  : 	ioHashString szOwnerItem;

  000a5	8d 8d e8 75 ff
	ff		 lea	 ecx, DWORD PTR _szOwnerItem$[ebp]
  000ab	ff 15 00 00 00
	00		 call	 DWORD PTR __imp_??0ioHashString@@QAE@XZ
  000b1	83 65 fc 00	 and	 DWORD PTR __$EHRec$[ebp+8], 0

; 297  : 	if( GetOwnerItem() )

  000b5	8b ce		 mov	 ecx, esi
  000b7	e8 00 00 00 00	 call	 ?GetOwnerItem@ioBuff@@QAEPAVioItem@@XZ ; ioBuff::GetOwnerItem
  000bc	85 c0		 test	 eax, eax
  000be	74 19		 je	 SHORT $LN12@SetObjectI

; 298  : 	{
; 299  : 		szOwnerItem = GetOwnerItem()->GetName();

  000c0	8b ce		 mov	 ecx, esi
  000c2	e8 00 00 00 00	 call	 ?GetOwnerItem@ioBuff@@QAEPAVioItem@@XZ ; ioBuff::GetOwnerItem
  000c7	05 34 01 00 00	 add	 eax, 308		; 00000134H
  000cc	50		 push	 eax
  000cd	8d 8d e8 75 ff
	ff		 lea	 ecx, DWORD PTR _szOwnerItem$[ebp]
  000d3	ff 15 00 00 00
	00		 call	 DWORD PTR __imp_??4ioHashString@@QAEAAV0@ABV0@@Z
$LN12@SetObjectI:

; 300  : 	}
; 301  : 
; 302  : 	int iSize = m_vObjectItemList.size();

  000d9	8b be 74 09 00
	00		 mov	 edi, DWORD PTR [esi+2420]
  000df	2b be 70 09 00
	00		 sub	 edi, DWORD PTR [esi+2416]

; 303  : 	m_dwCurObjectItem = 0;

  000e5	83 a6 80 09 00
	00 00		 and	 DWORD PTR [esi+2432], 0
  000ec	c1 ff 02	 sar	 edi, 2

; 304  : 
; 305  : 	if( iSize > 0 )

  000ef	85 ff		 test	 edi, edi
  000f1	7e 6b		 jle	 SHORT $LN11@SetObjectI

; 306  : 	{
; 307  : 		IORandom eRandom;

  000f3	8d 8d 18 f6 ff
	ff		 lea	 ecx, DWORD PTR _eRandom$531909[ebp]
  000f9	e8 00 00 00 00	 call	 ??0IORandom@@QAE@XZ	; IORandom::IORandom
  000fe	c6 45 fc 01	 mov	 BYTE PTR __$EHRec$[ebp+8], 1

; 308  : 		eRandom.SetRandomSeed( timeGetTime() );

  00102	ff 15 00 00 00
	00		 call	 DWORD PTR __imp__timeGetTime@0
  00108	50		 push	 eax
  00109	8d 8d 18 f6 ff
	ff		 lea	 ecx, DWORD PTR _eRandom$531909[ebp]
  0010f	e8 00 00 00 00	 call	 ?SetRandomSeed@IORandom@@QAEXI@Z ; IORandom::SetRandomSeed

; 309  : 		int iRand = eRandom.Random( iSize );

  00114	57		 push	 edi
  00115	8d 8d 18 f6 ff
	ff		 lea	 ecx, DWORD PTR _eRandom$531909[ebp]
  0011b	e8 00 00 00 00	 call	 ?Random@IORandom@@QAEII@Z ; IORandom::Random

; 310  : 
; 311  : 		if( iRand >= 0 && iRand < iSize )

  00120	85 c0		 test	 eax, eax
  00122	78 15		 js	 SHORT $LN10@SetObjectI
  00124	3b c7		 cmp	 eax, edi
  00126	7d 11		 jge	 SHORT $LN10@SetObjectI

; 312  : 			m_dwCurObjectItem = m_vObjectItemList[iRand];

  00128	8b 8e 70 09 00
	00		 mov	 ecx, DWORD PTR [esi+2416]
  0012e	8b 04 81	 mov	 eax, DWORD PTR [ecx+eax*4]
  00131	89 86 80 09 00
	00		 mov	 DWORD PTR [esi+2432], eax

; 313  : 		else

  00137	eb 16		 jmp	 SHORT $LN9@SetObjectI
$LN10@SetObjectI:

; 314  : 			LOG.PrintTimeAndLog( 0, "Err - Random fuction - yunga");

  00139	68 00 00 00 00	 push	 OFFSET ??_C@_0BN@BABNECIO@Err?5?9?5Random?5fuction?5?9?5yunga?$AA@
  0013e	6a 00		 push	 0
  00140	ff 35 00 00 00
	00		 push	 DWORD PTR __imp_?LOG@@3VCLog@@A
  00146	ff 15 00 00 00
	00		 call	 DWORD PTR __imp_?PrintTimeAndLog@CLog@@QAAXHPADZZ
  0014c	83 c4 0c	 add	 esp, 12			; 0000000cH
$LN9@SetObjectI:

; 315  : 	}

  0014f	8d 8d 18 f6 ff
	ff		 lea	 ecx, DWORD PTR _eRandom$531909[ebp]
  00155	c6 45 fc 00	 mov	 BYTE PTR __$EHRec$[ebp+8], 0
  00159	e8 00 00 00 00	 call	 ??1IORandom@@UAE@XZ	; IORandom::~IORandom
$LN11@SetObjectI:

; 316  : 	
; 317  : 	if( !pOwner->IsNeedProcess() )

  0015e	8b 03		 mov	 eax, DWORD PTR [ebx]
  00160	8b cb		 mov	 ecx, ebx
  00162	ff 90 00 01 00
	00		 call	 DWORD PTR [eax+256]
  00168	84 c0		 test	 al, al

; 318  : 		return;

  0016a	0f 84 1a 01 00
	00		 je	 $LN1@SetObjectI

; 319  : 
; 320  : 	if( pOwner->IsNeedSendNetwork() )

  00170	8b 03		 mov	 eax, DWORD PTR [ebx]
  00172	8b cb		 mov	 ecx, ebx
  00174	ff 90 04 01 00
	00		 call	 DWORD PTR [eax+260]
  0017a	84 c0		 test	 al, al
  0017c	0f 84 d8 00 00
	00		 je	 $LN7@SetObjectI

; 321  : 	{
; 322  : 		if( pStage->GetModeType() == MT_TEAM_SURVIVAL_AI || pStage->GetModeType() == MT_MONSTER_SURVIVAL)

  00182	8b 8d f8 75 ff
	ff		 mov	 ecx, DWORD PTR _pStage$GSCopy$[ebp]
  00188	e8 00 00 00 00	 call	 ?GetModeType@ioPlayStage@@QBE?AW4ModeType@@XZ ; ioPlayStage::GetModeType
  0018d	83 f8 16	 cmp	 eax, 22			; 00000016H
  00190	74 10		 je	 SHORT $LN5@SetObjectI
  00192	8b 8d f8 75 ff
	ff		 mov	 ecx, DWORD PTR _pStage$GSCopy$[ebp]
  00198	e8 00 00 00 00	 call	 ?GetModeType@ioPlayStage@@QBE?AW4ModeType@@XZ ; ioPlayStage::GetModeType
  0019d	83 f8 08	 cmp	 eax, 8
  001a0	75 18		 jne	 SHORT $LN3@SetObjectI
$LN5@SetObjectI:

; 323  : 		{
; 324  : 			ioNpcChar* pNPC = ToNpcChar( pOwner );

  001a2	53		 push	 ebx
  001a3	e8 00 00 00 00	 call	 ?ToNpcChar@@YAPAVioNpcChar@@PAVioGameEntity@@@Z ; ToNpcChar
  001a8	59		 pop	 ecx

; 325  : 			if( pNPC )

  001a9	85 c0		 test	 eax, eax
  001ab	74 0d		 je	 SHORT $LN3@SetObjectI

; 326  : 			{
; 327  : 				if( pNPC->IsAI() )

  001ad	83 b8 7c 3c 00
	00 00		 cmp	 DWORD PTR [eax+15484], 0

; 328  : 				{
; 329  : 					//SKIP
; 330  : 					return;

  001b4	0f 85 d0 00 00
	00		 jne	 $LN1@SetObjectI
$LN3@SetObjectI:

; 331  : 				}
; 332  : 			}
; 333  : 		}
; 334  : 		
; 335  : 		pOwner->GetEquipSlot()->SetEquipWaitSlot( ES_OBJECT, true );

  001ba	8b 8b 48 03 00
	00		 mov	 ecx, DWORD PTR [ebx+840]
  001c0	6a 01		 push	 1
  001c2	6a 04		 push	 4
  001c4	e8 00 00 00 00	 call	 ?SetEquipWaitSlot@ioEquipSlot@@QAEXH_N@Z ; ioEquipSlot::SetEquipWaitSlot

; 336  : 
; 337  : 		SP2Packet kPacket( CTPK_CREATE_OBJECTITEM );

  001c9	6a 30		 push	 48			; 00000030H
  001cb	8d 8d 00 76 ff
	ff		 lea	 ecx, DWORD PTR _kPacket$531921[ebp]
  001d1	e8 00 00 00 00	 call	 ??0SP2Packet@@QAE@K@Z	; SP2Packet::SP2Packet

; 338  : 		kPacket << pOwner->GetWorldPosition();

  001d6	8b 03		 mov	 eax, DWORD PTR [ebx]
  001d8	8b cb		 mov	 ecx, ebx
  001da	c6 45 fc 02	 mov	 BYTE PTR __$EHRec$[ebp+8], 2
  001de	ff 50 70	 call	 DWORD PTR [eax+112]
  001e1	50		 push	 eax
  001e2	8d 8d 00 76 ff
	ff		 lea	 ecx, DWORD PTR _kPacket$531921[ebp]
  001e8	e8 00 00 00 00	 call	 ??6SP2Packet@@QAEAAV0@ABUD3DXVECTOR3@@@Z ; SP2Packet::operator<<

; 339  : 		kPacket << m_dwCurObjectItem;

  001ed	ff b6 80 09 00
	00		 push	 DWORD PTR [esi+2432]
  001f3	8d 8d 00 76 ff
	ff		 lea	 ecx, DWORD PTR _kPacket$531921[ebp]
  001f9	e8 00 00 00 00	 call	 ??6SP2Packet@@QAEAAV0@K@Z ; SP2Packet::operator<<

; 340  : 		kPacket << szOwnerItem;

  001fe	8d 85 e8 75 ff
	ff		 lea	 eax, DWORD PTR _szOwnerItem$[ebp]
  00204	50		 push	 eax
  00205	8d 8d 00 76 ff
	ff		 lea	 ecx, DWORD PTR _kPacket$531921[ebp]
  0020b	e8 00 00 00 00	 call	 ??6SP2Packet@@QAEAAV0@ABVioHashString@@@Z ; SP2Packet::operator<<

; 341  : 		kPacket << true;

  00210	6a 01		 push	 1
  00212	8d 8d 00 76 ff
	ff		 lea	 ecx, DWORD PTR _kPacket$531921[ebp]
  00218	e8 00 00 00 00	 call	 ??6SP2Packet@@QAEAAV0@_N@Z ; SP2Packet::operator<<

; 342  : 		kPacket << static_cast<int>( ioObjectItem::OCT_EQUIP_BUFF1 );

  0021d	6a 03		 push	 3
  0021f	8d 8d 00 76 ff
	ff		 lea	 ecx, DWORD PTR _kPacket$531921[ebp]
  00225	e8 00 00 00 00	 call	 ??6SP2Packet@@QAEAAV0@H@Z ; SP2Packet::operator<<

; 343  : 
; 344  : 		//OCT_EQUIP_BUFF1 
; 345  : 		kPacket << GetName();

  0022a	81 c6 34 02 00
	00		 add	 esi, 564		; 00000234H
  00230	56		 push	 esi
  00231	8d 8d 00 76 ff
	ff		 lea	 ecx, DWORD PTR _kPacket$531921[ebp]
  00237	e8 00 00 00 00	 call	 ??6SP2Packet@@QAEAAV0@ABVioHashString@@@Z ; SP2Packet::operator<<

; 346  : 		TCPNetwork::SendToServer( kPacket );

  0023c	8d 85 00 76 ff
	ff		 lea	 eax, DWORD PTR _kPacket$531921[ebp]
  00242	50		 push	 eax
  00243	e8 00 00 00 00	 call	 ?SendToServer@TCPNetwork@@YAXAAVSP2Packet@@@Z ; TCPNetwork::SendToServer
  00248	59		 pop	 ecx

; 347  : 	}

  00249	8d 8d 00 76 ff
	ff		 lea	 ecx, DWORD PTR _kPacket$531921[ebp]
  0024f	c6 45 fc 00	 mov	 BYTE PTR __$EHRec$[ebp+8], 0
  00253	e8 00 00 00 00	 call	 ??1SP2Packet@@UAE@XZ	; SP2Packet::~SP2Packet

; 348  : 	else

  00258	eb 30		 jmp	 SHORT $LN1@SetObjectI
$LN7@SetObjectI:

; 349  : 	{
; 350  : 		if( m_dwCurObjectItem != 0 )

  0025a	83 be 80 09 00
	00 00		 cmp	 DWORD PTR [esi+2432], 0
  00261	74 27		 je	 SHORT $LN1@SetObjectI

; 351  : 		{
; 352  : 			pOwner->NewReserveEquipObjectItem( m_dwCurObjectItem, ioObjectItem::OCT_EQUIP_BUFF1, GetName() );

  00263	83 ec 10	 sub	 esp, 16			; 00000010H
  00266	8d 86 34 02 00
	00		 lea	 eax, DWORD PTR [esi+564]
  0026c	8b cc		 mov	 ecx, esp
  0026e	89 a5 fc 75 ff
	ff		 mov	 DWORD PTR $T533125[ebp], esp
  00274	50		 push	 eax
  00275	ff 15 00 00 00
	00		 call	 DWORD PTR __imp_??0ioHashString@@QAE@ABV0@@Z
  0027b	6a 03		 push	 3
  0027d	ff b6 80 09 00
	00		 push	 DWORD PTR [esi+2432]
  00283	8b cb		 mov	 ecx, ebx
  00285	e8 00 00 00 00	 call	 ?NewReserveEquipObjectItem@ioBaseChar@@QAEXKHVioHashString@@@Z ; ioBaseChar::NewReserveEquipObjectItem
$LN1@SetObjectI:

; 353  : 		}
; 354  : 	}
; 355  : }

  0028a	83 4d fc ff	 or	 DWORD PTR __$EHRec$[ebp+8], -1
  0028e	8d 8d e8 75 ff
	ff		 lea	 ecx, DWORD PTR _szOwnerItem$[ebp]
  00294	ff 15 00 00 00
	00		 call	 DWORD PTR __imp_??1ioHashString@@QAE@XZ
$LN15@SetObjectI:
  0029a	8b 4d f4	 mov	 ecx, DWORD PTR __$EHRec$[ebp]
  0029d	64 89 0d 00 00
	00 00		 mov	 DWORD PTR fs:0, ecx
  002a4	59		 pop	 ecx
  002a5	5f		 pop	 edi
  002a6	5e		 pop	 esi
  002a7	5b		 pop	 ebx
  002a8	8b 4d f0	 mov	 ecx, DWORD PTR __$ArrayPad$[ebp]
  002ab	33 cd		 xor	 ecx, ebp
  002ad	e8 00 00 00 00	 call	 @__security_check_cookie@4
  002b2	c9		 leave
  002b3	c2 08 00	 ret	 8
_TEXT	ENDS
;	COMDAT text$x
text$x	SEGMENT
__unwindfunclet$?SetObjectItemEquip@ioTargetEquipObjectItemBuff@@IAEXPAVioPlayStage@@PAVioBaseChar@@@Z$0:
  00000	8d 8d e8 75 ff
	ff		 lea	 ecx, DWORD PTR _szOwnerItem$[ebp]
  00006	ff 25 00 00 00
	00		 jmp	 DWORD PTR __imp_??1ioHashString@@QAE@XZ
__unwindfunclet$?SetObjectItemEquip@ioTargetEquipObjectItemBuff@@IAEXPAVioPlayStage@@PAVioBaseChar@@@Z$1:
  0000c	8d 8d 18 f6 ff
	ff		 lea	 ecx, DWORD PTR _eRandom$531909[ebp]
  00012	e9 00 00 00 00	 jmp	 ??1IORandom@@UAE@XZ	; IORandom::~IORandom
__unwindfunclet$?SetObjectItemEquip@ioTargetEquipObjectItemBuff@@IAEXPAVioPlayStage@@PAVioBaseChar@@@Z$2:
  00017	8d 8d 00 76 ff
	ff		 lea	 ecx, DWORD PTR _kPacket$531921[ebp]
  0001d	e9 00 00 00 00	 jmp	 ??1SP2Packet@@UAE@XZ	; SP2Packet::~SP2Packet
__ehhandler$?SetObjectItemEquip@ioTargetEquipObjectItemBuff@@IAEXPAVioPlayStage@@PAVioBaseChar@@@Z:
  00022	8b 54 24 08	 mov	 edx, DWORD PTR [esp+8]
  00026	8d 42 0c	 lea	 eax, DWORD PTR [edx+12]
  00029	8b 8a e4 75 ff
	ff		 mov	 ecx, DWORD PTR [edx-35356]
  0002f	33 c8		 xor	 ecx, eax
  00031	e8 00 00 00 00	 call	 @__security_check_cookie@4
  00036	8b 4a fc	 mov	 ecx, DWORD PTR [edx-4]
  00039	33 c8		 xor	 ecx, eax
  0003b	e8 00 00 00 00	 call	 @__security_check_cookie@4
  00040	b8 00 00 00 00	 mov	 eax, OFFSET __ehfuncinfo$?SetObjectItemEquip@ioTargetEquipObjectItemBuff@@IAEXPAVioPlayStage@@PAVioBaseChar@@@Z
  00045	e9 00 00 00 00	 jmp	 ___CxxFrameHandler3
text$x	ENDS
?SetObjectItemEquip@ioTargetEquipObjectItemBuff@@IAEXPAVioPlayStage@@PAVioBaseChar@@@Z ENDP ; ioTargetEquipObjectItemBuff::SetObjectItemEquip
PUBLIC	??G?$CEncrypt@K@@QAEKABK@Z			; CEncrypt<unsigned long>::operator-
; Function compile flags: /Ogsp
; File d:\lost saga for developer\youtube\tutorial\source\src\lsclient\encryptvalue.h
;	COMDAT ??G?$CEncrypt@K@@QAEKABK@Z
_TEXT	SEGMENT
_value$ = -4						; size = 4
_inValue$ = 8						; size = 4
??G?$CEncrypt@K@@QAEKABK@Z PROC				; CEncrypt<unsigned long>::operator-, COMDAT
; _this$ = ecx

; 1274 : 	{

  00000	55		 push	 ebp
  00001	8b ec		 mov	 ebp, esp
  00003	51		 push	 ecx

; 1275 : 		
; 1276 : 		type value;
; 1277 : 		DecryptValueToPool(&value);

  00004	8d 45 fc	 lea	 eax, DWORD PTR _value$[ebp]
  00007	50		 push	 eax
  00008	e8 00 00 00 00	 call	 ?DecryptValueToPool@?$CEncrypt@K@@QAEXPAK@Z ; CEncrypt<unsigned long>::DecryptValueToPool

; 1278 : #ifdef _NOTUSE
; 1279 : 		Debug();
; 1280 : #endif
; 1281 : 		return value - inValue;

  0000d	8b 45 fc	 mov	 eax, DWORD PTR _value$[ebp]
  00010	8b 4d 08	 mov	 ecx, DWORD PTR _inValue$[ebp]
  00013	2b 01		 sub	 eax, DWORD PTR [ecx]

; 1282 : 	}

  00015	c9		 leave
  00016	c2 04 00	 ret	 4
??G?$CEncrypt@K@@QAEKABK@Z ENDP				; CEncrypt<unsigned long>::operator-
_TEXT	ENDS
PUBLIC	??H?$CEncrypt@K@@QAEKABK@Z			; CEncrypt<unsigned long>::operator+
; Function compile flags: /Ogsp
;	COMDAT ??H?$CEncrypt@K@@QAEKABK@Z
_TEXT	SEGMENT
_value$ = -4						; size = 4
_inValue$ = 8						; size = 4
??H?$CEncrypt@K@@QAEKABK@Z PROC				; CEncrypt<unsigned long>::operator+, COMDAT
; _this$ = ecx

; 1285 : 	{

  00000	55		 push	 ebp
  00001	8b ec		 mov	 ebp, esp
  00003	51		 push	 ecx

; 1286 : 		type value;
; 1287 : 		DecryptValueToPool(&value);

  00004	8d 45 fc	 lea	 eax, DWORD PTR _value$[ebp]
  00007	50		 push	 eax
  00008	e8 00 00 00 00	 call	 ?DecryptValueToPool@?$CEncrypt@K@@QAEXPAK@Z ; CEncrypt<unsigned long>::DecryptValueToPool

; 1288 : #ifdef _NOTUSE
; 1289 : 		Debug();
; 1290 : #endif
; 1291 : 		return value + inValue;

  0000d	8b 45 08	 mov	 eax, DWORD PTR _inValue$[ebp]
  00010	8b 00		 mov	 eax, DWORD PTR [eax]
  00012	03 45 fc	 add	 eax, DWORD PTR _value$[ebp]

; 1292 : 	}

  00015	c9		 leave
  00016	c2 04 00	 ret	 4
??H?$CEncrypt@K@@QAEKABK@Z ENDP				; CEncrypt<unsigned long>::operator+
_TEXT	ENDS
PUBLIC	??Y?$CEncrypt@K@@QAEAAKABK@Z			; CEncrypt<unsigned long>::operator+=
; Function compile flags: /Ogsp
;	COMDAT ??Y?$CEncrypt@K@@QAEAAKABK@Z
_TEXT	SEGMENT
_value$ = -4						; size = 4
_inValue$ = 8						; size = 4
??Y?$CEncrypt@K@@QAEAAKABK@Z PROC			; CEncrypt<unsigned long>::operator+=, COMDAT
; _this$ = ecx

; 1325 : 	{

  00000	55		 push	 ebp
  00001	8b ec		 mov	 ebp, esp
  00003	51		 push	 ecx
  00004	56		 push	 esi

; 1326 : 		type value;
; 1327 : 		DecryptValueToPool(&value);

  00005	8d 45 fc	 lea	 eax, DWORD PTR _value$[ebp]
  00008	50		 push	 eax
  00009	8b f1		 mov	 esi, ecx
  0000b	e8 00 00 00 00	 call	 ?DecryptValueToPool@?$CEncrypt@K@@QAEXPAK@Z ; CEncrypt<unsigned long>::DecryptValueToPool

; 1328 : 		value += inValue;

  00010	8b 45 08	 mov	 eax, DWORD PTR _inValue$[ebp]
  00013	8b 00		 mov	 eax, DWORD PTR [eax]
  00015	01 45 fc	 add	 DWORD PTR _value$[ebp], eax

; 1329 : 		EncryptValueToPool((char*)&value);

  00018	8d 45 fc	 lea	 eax, DWORD PTR _value$[ebp]
  0001b	50		 push	 eax
  0001c	8b ce		 mov	 ecx, esi
  0001e	e8 00 00 00 00	 call	 ?EncryptValueToPool@?$CEncrypt@K@@AAEXPBD@Z ; CEncrypt<unsigned long>::EncryptValueToPool

; 1330 : #ifdef _NOTUSE
; 1331 : 		m_value += inValue;
; 1332 : 		Debug();
; 1333 : #endif
; 1334 : 		return value;

  00023	8d 45 fc	 lea	 eax, DWORD PTR _value$[ebp]
  00026	5e		 pop	 esi

; 1335 : 	} 

  00027	c9		 leave
  00028	c2 04 00	 ret	 4
??Y?$CEncrypt@K@@QAEAAKABK@Z ENDP			; CEncrypt<unsigned long>::operator+=
_TEXT	ENDS
PUBLIC	??M?$CEncrypt@K@@QAE_NABK@Z			; CEncrypt<unsigned long>::operator<
; Function compile flags: /Ogsp
;	COMDAT ??M?$CEncrypt@K@@QAE_NABK@Z
_TEXT	SEGMENT
_value$ = -4						; size = 4
_inValue$ = 8						; size = 4
??M?$CEncrypt@K@@QAE_NABK@Z PROC			; CEncrypt<unsigned long>::operator<, COMDAT
; _this$ = ecx

; 1401 : 	{

  00000	55		 push	 ebp
  00001	8b ec		 mov	 ebp, esp
  00003	51		 push	 ecx

; 1402 : 		type value;
; 1403 : 		DecryptValueToPool(&value);

  00004	8d 45 fc	 lea	 eax, DWORD PTR _value$[ebp]
  00007	50		 push	 eax
  00008	e8 00 00 00 00	 call	 ?DecryptValueToPool@?$CEncrypt@K@@QAEXPAK@Z ; CEncrypt<unsigned long>::DecryptValueToPool

; 1404 : #ifdef _NOTUSE
; 1405 : 		Debug();
; 1406 : #endif
; 1407 : 		return (value < inValue);

  0000d	8b 45 08	 mov	 eax, DWORD PTR _inValue$[ebp]
  00010	8b 4d fc	 mov	 ecx, DWORD PTR _value$[ebp]
  00013	3b 08		 cmp	 ecx, DWORD PTR [eax]
  00015	1b c0		 sbb	 eax, eax
  00017	f7 d8		 neg	 eax

; 1408 : 	} 

  00019	c9		 leave
  0001a	c2 04 00	 ret	 4
??M?$CEncrypt@K@@QAE_NABK@Z ENDP			; CEncrypt<unsigned long>::operator<
_TEXT	ENDS
PUBLIC	??N?$CEncrypt@K@@QAE_NABK@Z			; CEncrypt<unsigned long>::operator<=
; Function compile flags: /Ogsp
;	COMDAT ??N?$CEncrypt@K@@QAE_NABK@Z
_TEXT	SEGMENT
_value$ = -4						; size = 4
_inValue$ = 8						; size = 4
??N?$CEncrypt@K@@QAE_NABK@Z PROC			; CEncrypt<unsigned long>::operator<=, COMDAT
; _this$ = ecx

; 1431 : 	{

  00000	55		 push	 ebp
  00001	8b ec		 mov	 ebp, esp
  00003	51		 push	 ecx

; 1432 : 		
; 1433 : 		type value;
; 1434 : 		DecryptValueToPool(&value);

  00004	8d 45 fc	 lea	 eax, DWORD PTR _value$[ebp]
  00007	50		 push	 eax
  00008	e8 00 00 00 00	 call	 ?DecryptValueToPool@?$CEncrypt@K@@QAEXPAK@Z ; CEncrypt<unsigned long>::DecryptValueToPool

; 1435 : #ifdef _NOTUSE
; 1436 : 		Debug();
; 1437 : #endif
; 1438 : 		return (value <= inValue);

  0000d	8b 45 08	 mov	 eax, DWORD PTR _inValue$[ebp]
  00010	8b 00		 mov	 eax, DWORD PTR [eax]
  00012	3b 45 fc	 cmp	 eax, DWORD PTR _value$[ebp]
  00015	1b c0		 sbb	 eax, eax
  00017	40		 inc	 eax

; 1439 : 	}		

  00018	c9		 leave
  00019	c2 04 00	 ret	 4
??N?$CEncrypt@K@@QAE_NABK@Z ENDP			; CEncrypt<unsigned long>::operator<=
_TEXT	ENDS
PUBLIC	?begin@?$vector@KV?$allocator@K@std@@@std@@QBE?AV?$_Vector_const_iterator@V?$_Vector_val@KV?$allocator@K@std@@@std@@@2@XZ ; std::vector<unsigned long,std::allocator<unsigned long> >::begin
; Function compile flags: /Ogsp
; File c:\program files (x86)\microsoft visual studio 10.0\vc\include\vector
;	COMDAT ?begin@?$vector@KV?$allocator@K@std@@@std@@QBE?AV?$_Vector_const_iterator@V?$_Vector_val@KV?$allocator@K@std@@@std@@@2@XZ
_TEXT	SEGMENT
___$ReturnUdt$ = 8					; size = 4
?begin@?$vector@KV?$allocator@K@std@@@std@@QBE?AV?$_Vector_const_iterator@V?$_Vector_val@KV?$allocator@K@std@@@std@@@2@XZ PROC ; std::vector<unsigned long,std::allocator<unsigned long> >::begin, COMDAT
; _this$ = ecx

; 786  : 		{	// return iterator for beginning of nonmutable sequence

  00000	55		 push	 ebp
  00001	8b ec		 mov	 ebp, esp

; 787  : 		return (const_iterator(this->_Myfirst, this));

  00003	8b 09		 mov	 ecx, DWORD PTR [ecx]
  00005	8b 45 08	 mov	 eax, DWORD PTR ___$ReturnUdt$[ebp]
  00008	89 08		 mov	 DWORD PTR [eax], ecx

; 788  : 		}

  0000a	5d		 pop	 ebp
  0000b	c2 04 00	 ret	 4
?begin@?$vector@KV?$allocator@K@std@@@std@@QBE?AV?$_Vector_const_iterator@V?$_Vector_val@KV?$allocator@K@std@@@std@@@2@XZ ENDP ; std::vector<unsigned long,std::allocator<unsigned long> >::begin
_TEXT	ENDS
PUBLIC	?end@?$vector@KV?$allocator@K@std@@@std@@QBE?AV?$_Vector_const_iterator@V?$_Vector_val@KV?$allocator@K@std@@@std@@@2@XZ ; std::vector<unsigned long,std::allocator<unsigned long> >::end
; Function compile flags: /Ogsp
;	COMDAT ?end@?$vector@KV?$allocator@K@std@@@std@@QBE?AV?$_Vector_const_iterator@V?$_Vector_val@KV?$allocator@K@std@@@std@@@2@XZ
_TEXT	SEGMENT
___$ReturnUdt$ = 8					; size = 4
?end@?$vector@KV?$allocator@K@std@@@std@@QBE?AV?$_Vector_const_iterator@V?$_Vector_val@KV?$allocator@K@std@@@std@@@2@XZ PROC ; std::vector<unsigned long,std::allocator<unsigned long> >::end, COMDAT
; _this$ = ecx

; 796  : 		{	// return iterator for end of nonmutable sequence

  00000	55		 push	 ebp
  00001	8b ec		 mov	 ebp, esp

; 797  : 		return (const_iterator(this->_Mylast, this));

  00003	8b 49 04	 mov	 ecx, DWORD PTR [ecx+4]
  00006	8b 45 08	 mov	 eax, DWORD PTR ___$ReturnUdt$[ebp]
  00009	89 08		 mov	 DWORD PTR [eax], ecx

; 798  : 		}

  0000b	5d		 pop	 ebp
  0000c	c2 04 00	 ret	 4
?end@?$vector@KV?$allocator@K@std@@@std@@QBE?AV?$_Vector_const_iterator@V?$_Vector_val@KV?$allocator@K@std@@@std@@@2@XZ ENDP ; std::vector<unsigned long,std::allocator<unsigned long> >::end
_TEXT	ENDS
PUBLIC	__$ArrayPad$
PUBLIC	??$LoadBool_e@$0BD@@ioINILoader@@QAE_NAAY0BD@$$CBD_N@Z ; ioINILoader::LoadBool_e<19>
EXTRN	__imp_?LoadBool@ioINILoader@@QAE_NPBD_N@Z:PROC
; Function compile flags: /Ogsp
; File d:\lost saga for developer\youtube\tutorial\source\src\io3dengine\ioiniloader.h
;	COMDAT ??$LoadBool_e@$0BD@@ioINILoader@@QAE_NAAY0BD@$$CBD_N@Z
_TEXT	SEGMENT
__k$ = -28						; size = 19
__$ArrayPad$ = -4					; size = 4
_k$ = 8							; size = 4
_b$ = 12						; size = 1
??$LoadBool_e@$0BD@@ioINILoader@@QAE_NAAY0BD@$$CBD_N@Z PROC ; ioINILoader::LoadBool_e<19>, COMDAT
; _this$ = ecx

; 101  : 	{

  00000	55		 push	 ebp
  00001	8b ec		 mov	 ebp, esp
  00003	83 ec 1c	 sub	 esp, 28			; 0000001cH
  00006	a1 00 00 00 00	 mov	 eax, DWORD PTR ___security_cookie
  0000b	33 c5		 xor	 eax, ebp
  0000d	89 45 fc	 mov	 DWORD PTR __$ArrayPad$[ebp], eax
  00010	8b 45 08	 mov	 eax, DWORD PTR _k$[ebp]

; 102  : 		_ENCSTR(k, _k);

  00013	8a 10		 mov	 dl, BYTE PTR [eax]
  00015	56		 push	 esi
  00016	8b f1		 mov	 esi, ecx
  00018	84 d2		 test	 dl, dl
  0001a	0f 84 cf 01 00
	00		 je	 $LN96@LoadBool_e
  00020	80 f2 ed	 xor	 dl, -19			; ffffffedH
  00023	88 55 e4	 mov	 BYTE PTR __k$[ebp], dl
  00026	8a 50 01	 mov	 dl, BYTE PTR [eax+1]
  00029	84 d2		 test	 dl, dl
  0002b	0f 84 b8 01 00
	00		 je	 $LN95@LoadBool_e
  00031	b1 ec		 mov	 cl, -20			; ffffffecH
  00033	32 d1		 xor	 dl, cl
  00035	88 55 e5	 mov	 BYTE PTR __k$[ebp+1], dl
  00038	8a 50 02	 mov	 dl, BYTE PTR [eax+2]
  0003b	84 d2		 test	 dl, dl
  0003d	0f 84 a0 01 00
	00		 je	 $LN94@LoadBool_e
  00043	80 f2 eb	 xor	 dl, -21			; ffffffebH
  00046	88 55 e6	 mov	 BYTE PTR __k$[ebp+2], dl
  00049	8a 50 03	 mov	 dl, BYTE PTR [eax+3]
  0004c	84 d2		 test	 dl, dl
  0004e	0f 84 89 01 00
	00		 je	 $LN93@LoadBool_e
  00054	80 f2 ea	 xor	 dl, -22			; ffffffeaH
  00057	88 55 e7	 mov	 BYTE PTR __k$[ebp+3], dl
  0005a	8a 50 04	 mov	 dl, BYTE PTR [eax+4]
  0005d	84 d2		 test	 dl, dl
  0005f	0f 84 72 01 00
	00		 je	 $LN92@LoadBool_e
  00065	80 f2 ed	 xor	 dl, -19			; ffffffedH
  00068	88 55 e8	 mov	 BYTE PTR __k$[ebp+4], dl
  0006b	8a 50 05	 mov	 dl, BYTE PTR [eax+5]
  0006e	84 d2		 test	 dl, dl
  00070	0f 84 5c 01 00
	00		 je	 $LN91@LoadBool_e
  00076	32 d1		 xor	 dl, cl
  00078	88 55 e9	 mov	 BYTE PTR __k$[ebp+5], dl
  0007b	8a 50 06	 mov	 dl, BYTE PTR [eax+6]
  0007e	84 d2		 test	 dl, dl
  00080	0f 84 46 01 00
	00		 je	 $LN90@LoadBool_e
  00086	80 f2 eb	 xor	 dl, -21			; ffffffebH
  00089	88 55 ea	 mov	 BYTE PTR __k$[ebp+6], dl
  0008c	8a 50 07	 mov	 dl, BYTE PTR [eax+7]
  0008f	84 d2		 test	 dl, dl
  00091	0f 84 2f 01 00
	00		 je	 $LN89@LoadBool_e
  00097	80 f2 ea	 xor	 dl, -22			; ffffffeaH
  0009a	88 55 eb	 mov	 BYTE PTR __k$[ebp+7], dl
  0009d	8a 50 08	 mov	 dl, BYTE PTR [eax+8]
  000a0	84 d2		 test	 dl, dl
  000a2	0f 84 18 01 00
	00		 je	 $LN88@LoadBool_e
  000a8	80 f2 ed	 xor	 dl, -19			; ffffffedH
  000ab	88 55 ec	 mov	 BYTE PTR __k$[ebp+8], dl
  000ae	8a 50 09	 mov	 dl, BYTE PTR [eax+9]
  000b1	84 d2		 test	 dl, dl
  000b3	0f 84 02 01 00
	00		 je	 $LN87@LoadBool_e
  000b9	32 d1		 xor	 dl, cl
  000bb	88 55 ed	 mov	 BYTE PTR __k$[ebp+9], dl
  000be	8a 50 0a	 mov	 dl, BYTE PTR [eax+10]
  000c1	84 d2		 test	 dl, dl
  000c3	0f 84 ec 00 00
	00		 je	 $LN86@LoadBool_e
  000c9	80 f2 eb	 xor	 dl, -21			; ffffffebH
  000cc	88 55 ee	 mov	 BYTE PTR __k$[ebp+10], dl
  000cf	8a 50 0b	 mov	 dl, BYTE PTR [eax+11]
  000d2	84 d2		 test	 dl, dl
  000d4	0f 84 d5 00 00
	00		 je	 $LN85@LoadBool_e
  000da	80 f2 ea	 xor	 dl, -22			; ffffffeaH
  000dd	88 55 ef	 mov	 BYTE PTR __k$[ebp+11], dl
  000e0	8a 50 0c	 mov	 dl, BYTE PTR [eax+12]
  000e3	84 d2		 test	 dl, dl
  000e5	0f 84 be 00 00
	00		 je	 $LN84@LoadBool_e
  000eb	80 f2 ed	 xor	 dl, -19			; ffffffedH
  000ee	88 55 f0	 mov	 BYTE PTR __k$[ebp+12], dl
  000f1	8a 50 0d	 mov	 dl, BYTE PTR [eax+13]
  000f4	84 d2		 test	 dl, dl
  000f6	0f 84 a8 00 00
	00		 je	 $LN83@LoadBool_e
  000fc	32 d1		 xor	 dl, cl
  000fe	88 55 f1	 mov	 BYTE PTR __k$[ebp+13], dl
  00101	8a 50 0e	 mov	 dl, BYTE PTR [eax+14]
  00104	84 d2		 test	 dl, dl
  00106	0f 84 92 00 00
	00		 je	 $LN82@LoadBool_e
  0010c	80 f2 eb	 xor	 dl, -21			; ffffffebH
  0010f	88 55 f2	 mov	 BYTE PTR __k$[ebp+14], dl
  00112	8a 50 0f	 mov	 dl, BYTE PTR [eax+15]
  00115	84 d2		 test	 dl, dl
  00117	74 7f		 je	 SHORT $LN81@LoadBool_e
  00119	80 f2 ea	 xor	 dl, -22			; ffffffeaH
  0011c	88 55 f3	 mov	 BYTE PTR __k$[ebp+15], dl
  0011f	8a 50 10	 mov	 dl, BYTE PTR [eax+16]
  00122	84 d2		 test	 dl, dl
  00124	74 6c		 je	 SHORT $LN80@LoadBool_e
  00126	80 f2 ed	 xor	 dl, -19			; ffffffedH
  00129	88 55 f4	 mov	 BYTE PTR __k$[ebp+16], dl
  0012c	8a 50 11	 mov	 dl, BYTE PTR [eax+17]
  0012f	84 d2		 test	 dl, dl
  00131	74 5a		 je	 SHORT $LN79@LoadBool_e
  00133	32 d1		 xor	 dl, cl
  00135	80 78 12 00	 cmp	 BYTE PTR [eax+18], 0
  00139	88 55 f5	 mov	 BYTE PTR __k$[ebp+17], dl
  0013c	0f 84 b1 00 00
	00		 je	 $LN1@LoadBool_e
  00142	8a 50 13	 mov	 dl, BYTE PTR [eax+19]
  00145	84 d2		 test	 dl, dl
  00147	74 3e		 je	 SHORT $LN77@LoadBool_e
  00149	80 f2 ea	 xor	 dl, -22			; ffffffeaH
  0014c	88 55 f7	 mov	 BYTE PTR __k$[ebp+19], dl
  0014f	8a 50 14	 mov	 dl, BYTE PTR [eax+20]
  00152	84 d2		 test	 dl, dl
  00154	74 2b		 je	 SHORT $LN76@LoadBool_e
  00156	80 f2 ed	 xor	 dl, -19			; ffffffedH
  00159	88 55 f8	 mov	 BYTE PTR __k$[ebp+20], dl
  0015c	8a 50 15	 mov	 dl, BYTE PTR [eax+21]
  0015f	84 d2		 test	 dl, dl
  00161	74 19		 je	 SHORT $LN75@LoadBool_e
  00163	8a 40 16	 mov	 al, BYTE PTR [eax+22]
  00166	32 d1		 xor	 dl, cl
  00168	88 55 f9	 mov	 BYTE PTR __k$[ebp+21], dl
  0016b	84 c0		 test	 al, al
  0016d	74 07		 je	 SHORT $LN74@LoadBool_e
  0016f	34 eb		 xor	 al, -21			; ffffffebH
  00171	88 45 fa	 mov	 BYTE PTR __k$[ebp+22], al
  00174	eb 7d		 jmp	 SHORT $LN1@LoadBool_e
$LN74@LoadBool_e:
  00176	c6 45 fa eb	 mov	 BYTE PTR __k$[ebp+22], -21 ; ffffffebH
  0017a	eb 77		 jmp	 SHORT $LN1@LoadBool_e
$LN75@LoadBool_e:
  0017c	88 4d f9	 mov	 BYTE PTR __k$[ebp+21], cl
  0017f	eb 72		 jmp	 SHORT $LN1@LoadBool_e
$LN76@LoadBool_e:
  00181	c6 45 f8 ed	 mov	 BYTE PTR __k$[ebp+20], -19 ; ffffffedH
  00185	eb 6c		 jmp	 SHORT $LN1@LoadBool_e
$LN77@LoadBool_e:
  00187	c6 45 f7 ea	 mov	 BYTE PTR __k$[ebp+19], -22 ; ffffffeaH
  0018b	eb 66		 jmp	 SHORT $LN1@LoadBool_e
$LN79@LoadBool_e:
  0018d	88 4d f5	 mov	 BYTE PTR __k$[ebp+17], cl
  00190	eb 61		 jmp	 SHORT $LN1@LoadBool_e
$LN80@LoadBool_e:
  00192	c6 45 f4 ed	 mov	 BYTE PTR __k$[ebp+16], -19 ; ffffffedH
  00196	eb 5b		 jmp	 SHORT $LN1@LoadBool_e
$LN81@LoadBool_e:
  00198	c6 45 f3 ea	 mov	 BYTE PTR __k$[ebp+15], -22 ; ffffffeaH
  0019c	eb 55		 jmp	 SHORT $LN1@LoadBool_e
$LN82@LoadBool_e:
  0019e	c6 45 f2 eb	 mov	 BYTE PTR __k$[ebp+14], -21 ; ffffffebH
  001a2	eb 4f		 jmp	 SHORT $LN1@LoadBool_e
$LN83@LoadBool_e:
  001a4	88 4d f1	 mov	 BYTE PTR __k$[ebp+13], cl
  001a7	eb 4a		 jmp	 SHORT $LN1@LoadBool_e
$LN84@LoadBool_e:
  001a9	c6 45 f0 ed	 mov	 BYTE PTR __k$[ebp+12], -19 ; ffffffedH
  001ad	eb 44		 jmp	 SHORT $LN1@LoadBool_e
$LN85@LoadBool_e:
  001af	c6 45 ef ea	 mov	 BYTE PTR __k$[ebp+11], -22 ; ffffffeaH
  001b3	eb 3e		 jmp	 SHORT $LN1@LoadBool_e
$LN86@LoadBool_e:
  001b5	c6 45 ee eb	 mov	 BYTE PTR __k$[ebp+10], -21 ; ffffffebH
  001b9	eb 38		 jmp	 SHORT $LN1@LoadBool_e
$LN87@LoadBool_e:
  001bb	88 4d ed	 mov	 BYTE PTR __k$[ebp+9], cl
  001be	eb 33		 jmp	 SHORT $LN1@LoadBool_e
$LN88@LoadBool_e:
  001c0	c6 45 ec ed	 mov	 BYTE PTR __k$[ebp+8], -19 ; ffffffedH
  001c4	eb 2d		 jmp	 SHORT $LN1@LoadBool_e
$LN89@LoadBool_e:
  001c6	c6 45 eb ea	 mov	 BYTE PTR __k$[ebp+7], -22 ; ffffffeaH
  001ca	eb 27		 jmp	 SHORT $LN1@LoadBool_e
$LN90@LoadBool_e:
  001cc	c6 45 ea eb	 mov	 BYTE PTR __k$[ebp+6], -21 ; ffffffebH
  001d0	eb 21		 jmp	 SHORT $LN1@LoadBool_e
$LN91@LoadBool_e:
  001d2	88 4d e9	 mov	 BYTE PTR __k$[ebp+5], cl
  001d5	eb 1c		 jmp	 SHORT $LN1@LoadBool_e
$LN92@LoadBool_e:
  001d7	c6 45 e8 ed	 mov	 BYTE PTR __k$[ebp+4], -19 ; ffffffedH
  001db	eb 16		 jmp	 SHORT $LN1@LoadBool_e
$LN93@LoadBool_e:
  001dd	c6 45 e7 ea	 mov	 BYTE PTR __k$[ebp+3], -22 ; ffffffeaH
  001e1	eb 10		 jmp	 SHORT $LN1@LoadBool_e
$LN94@LoadBool_e:
  001e3	c6 45 e6 eb	 mov	 BYTE PTR __k$[ebp+2], -21 ; ffffffebH
  001e7	eb 0a		 jmp	 SHORT $LN1@LoadBool_e
$LN95@LoadBool_e:
  001e9	c6 45 e5 ec	 mov	 BYTE PTR __k$[ebp+1], -20 ; ffffffecH
  001ed	eb 04		 jmp	 SHORT $LN1@LoadBool_e
$LN96@LoadBool_e:
  001ef	c6 45 e4 ed	 mov	 BYTE PTR __k$[ebp], -19	; ffffffedH
$LN1@LoadBool_e:
  001f3	6a 04		 push	 4
  001f5	8d 45 e4	 lea	 eax, DWORD PTR __k$[ebp]
  001f8	c6 45 f6 00	 mov	 BYTE PTR __k$[ebp+18], 0
  001fc	5a		 pop	 edx
$LL104@LoadBool_e:
  001fd	81 30 ed ec eb
	ea		 xor	 DWORD PTR [eax], -353637139 ; eaebecedH
  00203	83 c0 04	 add	 eax, 4
  00206	4a		 dec	 edx
  00207	75 f4		 jne	 SHORT $LL104@LoadBool_e
  00209	6a 10		 push	 16			; 00000010H
  0020b	58		 pop	 eax
$LL101@LoadBool_e:
  0020c	8b c8		 mov	 ecx, eax
  0020e	81 e1 03 00 00
	80		 and	 ecx, -2147483645	; 80000003H
  00214	79 05		 jns	 SHORT $LN111@LoadBool_e
  00216	49		 dec	 ecx
  00217	83 c9 fc	 or	 ecx, -4			; fffffffcH
  0021a	41		 inc	 ecx
$LN111@LoadBool_e:
  0021b	b2 ed		 mov	 dl, -19			; ffffffedH
  0021d	2a d1		 sub	 dl, cl
  0021f	30 54 05 e4	 xor	 BYTE PTR __k$[ebp+eax], dl
  00223	40		 inc	 eax
  00224	83 f8 12	 cmp	 eax, 18			; 00000012H
  00227	7c e3		 jl	 SHORT $LL101@LoadBool_e

; 103  : 		return LoadBool(_k, b);

  00229	ff 75 0c	 push	 DWORD PTR _b$[ebp]
  0022c	8d 45 e4	 lea	 eax, DWORD PTR __k$[ebp]
  0022f	50		 push	 eax
  00230	8b ce		 mov	 ecx, esi
  00232	ff 15 00 00 00
	00		 call	 DWORD PTR __imp_?LoadBool@ioINILoader@@QAE_NPBD_N@Z

; 104  : 	}

  00238	8b 4d fc	 mov	 ecx, DWORD PTR __$ArrayPad$[ebp]
  0023b	33 cd		 xor	 ecx, ebp
  0023d	5e		 pop	 esi
  0023e	e8 00 00 00 00	 call	 @__security_check_cookie@4
  00243	c9		 leave
  00244	c2 08 00	 ret	 8
??$LoadBool_e@$0BD@@ioINILoader@@QAE_NAAY0BD@$$CBD_N@Z ENDP ; ioINILoader::LoadBool_e<19>
_TEXT	ENDS
PUBLIC	__$ArrayPad$
PUBLIC	??$LoadInt_e@$0BA@@ioINILoader@@QAEHAAY0BA@$$CBDH@Z ; ioINILoader::LoadInt_e<16>
EXTRN	__imp_?LoadInt@ioINILoader@@QAEHPBDH@Z:PROC
; Function compile flags: /Ogsp
;	COMDAT ??$LoadInt_e@$0BA@@ioINILoader@@QAEHAAY0BA@$$CBDH@Z
_TEXT	SEGMENT
__k$ = -24						; size = 16
__$ArrayPad$ = -4					; size = 4
_k$ = 8							; size = 4
_i$ = 12						; size = 4
??$LoadInt_e@$0BA@@ioINILoader@@QAEHAAY0BA@$$CBDH@Z PROC ; ioINILoader::LoadInt_e<16>, COMDAT
; _this$ = ecx

; 118  : 	{

  00000	55		 push	 ebp
  00001	8b ec		 mov	 ebp, esp
  00003	83 ec 18	 sub	 esp, 24			; 00000018H
  00006	a1 00 00 00 00	 mov	 eax, DWORD PTR ___security_cookie
  0000b	33 c5		 xor	 eax, ebp
  0000d	89 45 fc	 mov	 DWORD PTR __$ArrayPad$[ebp], eax
  00010	8b 45 08	 mov	 eax, DWORD PTR _k$[ebp]

; 119  : 		_ENCSTR(k, _k);

  00013	8a 10		 mov	 dl, BYTE PTR [eax]
  00015	56		 push	 esi
  00016	8b f1		 mov	 esi, ecx
  00018	84 d2		 test	 dl, dl
  0001a	0f 84 8c 01 00
	00		 je	 $LN96@LoadInt_e
  00020	80 f2 ed	 xor	 dl, -19			; ffffffedH
  00023	88 55 e8	 mov	 BYTE PTR __k$[ebp], dl
  00026	8a 50 01	 mov	 dl, BYTE PTR [eax+1]
  00029	84 d2		 test	 dl, dl
  0002b	0f 84 75 01 00
	00		 je	 $LN95@LoadInt_e
  00031	80 f2 ec	 xor	 dl, -20			; ffffffecH
  00034	88 55 e9	 mov	 BYTE PTR __k$[ebp+1], dl
  00037	8a 50 02	 mov	 dl, BYTE PTR [eax+2]
  0003a	84 d2		 test	 dl, dl
  0003c	0f 84 5e 01 00
	00		 je	 $LN94@LoadInt_e
  00042	b1 eb		 mov	 cl, -21			; ffffffebH
  00044	32 d1		 xor	 dl, cl
  00046	88 55 ea	 mov	 BYTE PTR __k$[ebp+2], dl
  00049	8a 50 03	 mov	 dl, BYTE PTR [eax+3]
  0004c	84 d2		 test	 dl, dl
  0004e	0f 84 46 01 00
	00		 je	 $LN93@LoadInt_e
  00054	80 f2 ea	 xor	 dl, -22			; ffffffeaH
  00057	88 55 eb	 mov	 BYTE PTR __k$[ebp+3], dl
  0005a	8a 50 04	 mov	 dl, BYTE PTR [eax+4]
  0005d	84 d2		 test	 dl, dl
  0005f	0f 84 2f 01 00
	00		 je	 $LN92@LoadInt_e
  00065	80 f2 ed	 xor	 dl, -19			; ffffffedH
  00068	88 55 ec	 mov	 BYTE PTR __k$[ebp+4], dl
  0006b	8a 50 05	 mov	 dl, BYTE PTR [eax+5]
  0006e	84 d2		 test	 dl, dl
  00070	0f 84 18 01 00
	00		 je	 $LN91@LoadInt_e
  00076	80 f2 ec	 xor	 dl, -20			; ffffffecH
  00079	88 55 ed	 mov	 BYTE PTR __k$[ebp+5], dl
  0007c	8a 50 06	 mov	 dl, BYTE PTR [eax+6]
  0007f	84 d2		 test	 dl, dl
  00081	0f 84 02 01 00
	00		 je	 $LN90@LoadInt_e
  00087	32 d1		 xor	 dl, cl
  00089	88 55 ee	 mov	 BYTE PTR __k$[ebp+6], dl
  0008c	8a 50 07	 mov	 dl, BYTE PTR [eax+7]
  0008f	84 d2		 test	 dl, dl
  00091	0f 84 ec 00 00
	00		 je	 $LN89@LoadInt_e
  00097	80 f2 ea	 xor	 dl, -22			; ffffffeaH
  0009a	88 55 ef	 mov	 BYTE PTR __k$[ebp+7], dl
  0009d	8a 50 08	 mov	 dl, BYTE PTR [eax+8]
  000a0	84 d2		 test	 dl, dl
  000a2	0f 84 d5 00 00
	00		 je	 $LN88@LoadInt_e
  000a8	80 f2 ed	 xor	 dl, -19			; ffffffedH
  000ab	88 55 f0	 mov	 BYTE PTR __k$[ebp+8], dl
  000ae	8a 50 09	 mov	 dl, BYTE PTR [eax+9]
  000b1	84 d2		 test	 dl, dl
  000b3	0f 84 be 00 00
	00		 je	 $LN87@LoadInt_e
  000b9	80 f2 ec	 xor	 dl, -20			; ffffffecH
  000bc	88 55 f1	 mov	 BYTE PTR __k$[ebp+9], dl
  000bf	8a 50 0a	 mov	 dl, BYTE PTR [eax+10]
  000c2	84 d2		 test	 dl, dl
  000c4	0f 84 a8 00 00
	00		 je	 $LN86@LoadInt_e
  000ca	32 d1		 xor	 dl, cl
  000cc	88 55 f2	 mov	 BYTE PTR __k$[ebp+10], dl
  000cf	8a 50 0b	 mov	 dl, BYTE PTR [eax+11]
  000d2	84 d2		 test	 dl, dl
  000d4	0f 84 92 00 00
	00		 je	 $LN85@LoadInt_e
  000da	80 f2 ea	 xor	 dl, -22			; ffffffeaH
  000dd	88 55 f3	 mov	 BYTE PTR __k$[ebp+11], dl
  000e0	8a 50 0c	 mov	 dl, BYTE PTR [eax+12]
  000e3	84 d2		 test	 dl, dl
  000e5	74 7f		 je	 SHORT $LN84@LoadInt_e
  000e7	80 f2 ed	 xor	 dl, -19			; ffffffedH
  000ea	88 55 f4	 mov	 BYTE PTR __k$[ebp+12], dl
  000ed	8a 50 0d	 mov	 dl, BYTE PTR [eax+13]
  000f0	84 d2		 test	 dl, dl
  000f2	74 6c		 je	 SHORT $LN83@LoadInt_e
  000f4	80 f2 ec	 xor	 dl, -20			; ffffffecH
  000f7	88 55 f5	 mov	 BYTE PTR __k$[ebp+13], dl
  000fa	8a 50 0e	 mov	 dl, BYTE PTR [eax+14]
  000fd	84 d2		 test	 dl, dl
  000ff	74 5a		 je	 SHORT $LN82@LoadInt_e
  00101	32 d1		 xor	 dl, cl
  00103	80 78 0f 00	 cmp	 BYTE PTR [eax+15], 0
  00107	88 55 f6	 mov	 BYTE PTR __k$[ebp+14], dl
  0010a	0f 84 a0 00 00
	00		 je	 $LN1@LoadInt_e
  00110	8a 50 10	 mov	 dl, BYTE PTR [eax+16]
  00113	84 d2		 test	 dl, dl
  00115	74 3e		 je	 SHORT $LN80@LoadInt_e
  00117	80 f2 ed	 xor	 dl, -19			; ffffffedH
  0011a	88 55 f8	 mov	 BYTE PTR __k$[ebp+16], dl
  0011d	8a 50 11	 mov	 dl, BYTE PTR [eax+17]
  00120	84 d2		 test	 dl, dl
  00122	74 2b		 je	 SHORT $LN79@LoadInt_e
  00124	80 f2 ec	 xor	 dl, -20			; ffffffecH
  00127	88 55 f9	 mov	 BYTE PTR __k$[ebp+17], dl
  0012a	8a 50 12	 mov	 dl, BYTE PTR [eax+18]
  0012d	84 d2		 test	 dl, dl
  0012f	74 19		 je	 SHORT $LN78@LoadInt_e
  00131	8a 40 13	 mov	 al, BYTE PTR [eax+19]
  00134	32 d1		 xor	 dl, cl
  00136	88 55 fa	 mov	 BYTE PTR __k$[ebp+18], dl
  00139	84 c0		 test	 al, al
  0013b	74 07		 je	 SHORT $LN77@LoadInt_e
  0013d	34 ea		 xor	 al, -22			; ffffffeaH
  0013f	88 45 fb	 mov	 BYTE PTR __k$[ebp+19], al
  00142	eb 6c		 jmp	 SHORT $LN1@LoadInt_e
$LN77@LoadInt_e:
  00144	c6 45 fb ea	 mov	 BYTE PTR __k$[ebp+19], -22 ; ffffffeaH
  00148	eb 66		 jmp	 SHORT $LN1@LoadInt_e
$LN78@LoadInt_e:
  0014a	88 4d fa	 mov	 BYTE PTR __k$[ebp+18], cl
  0014d	eb 61		 jmp	 SHORT $LN1@LoadInt_e
$LN79@LoadInt_e:
  0014f	c6 45 f9 ec	 mov	 BYTE PTR __k$[ebp+17], -20 ; ffffffecH
  00153	eb 5b		 jmp	 SHORT $LN1@LoadInt_e
$LN80@LoadInt_e:
  00155	c6 45 f8 ed	 mov	 BYTE PTR __k$[ebp+16], -19 ; ffffffedH
  00159	eb 55		 jmp	 SHORT $LN1@LoadInt_e
$LN82@LoadInt_e:
  0015b	88 4d f6	 mov	 BYTE PTR __k$[ebp+14], cl
  0015e	eb 50		 jmp	 SHORT $LN1@LoadInt_e
$LN83@LoadInt_e:
  00160	c6 45 f5 ec	 mov	 BYTE PTR __k$[ebp+13], -20 ; ffffffecH
  00164	eb 4a		 jmp	 SHORT $LN1@LoadInt_e
$LN84@LoadInt_e:
  00166	c6 45 f4 ed	 mov	 BYTE PTR __k$[ebp+12], -19 ; ffffffedH
  0016a	eb 44		 jmp	 SHORT $LN1@LoadInt_e
$LN85@LoadInt_e:
  0016c	c6 45 f3 ea	 mov	 BYTE PTR __k$[ebp+11], -22 ; ffffffeaH
  00170	eb 3e		 jmp	 SHORT $LN1@LoadInt_e
$LN86@LoadInt_e:
  00172	88 4d f2	 mov	 BYTE PTR __k$[ebp+10], cl
  00175	eb 39		 jmp	 SHORT $LN1@LoadInt_e
$LN87@LoadInt_e:
  00177	c6 45 f1 ec	 mov	 BYTE PTR __k$[ebp+9], -20 ; ffffffecH
  0017b	eb 33		 jmp	 SHORT $LN1@LoadInt_e
$LN88@LoadInt_e:
  0017d	c6 45 f0 ed	 mov	 BYTE PTR __k$[ebp+8], -19 ; ffffffedH
  00181	eb 2d		 jmp	 SHORT $LN1@LoadInt_e
$LN89@LoadInt_e:
  00183	c6 45 ef ea	 mov	 BYTE PTR __k$[ebp+7], -22 ; ffffffeaH
  00187	eb 27		 jmp	 SHORT $LN1@LoadInt_e
$LN90@LoadInt_e:
  00189	88 4d ee	 mov	 BYTE PTR __k$[ebp+6], cl
  0018c	eb 22		 jmp	 SHORT $LN1@LoadInt_e
$LN91@LoadInt_e:
  0018e	c6 45 ed ec	 mov	 BYTE PTR __k$[ebp+5], -20 ; ffffffecH
  00192	eb 1c		 jmp	 SHORT $LN1@LoadInt_e
$LN92@LoadInt_e:
  00194	c6 45 ec ed	 mov	 BYTE PTR __k$[ebp+4], -19 ; ffffffedH
  00198	eb 16		 jmp	 SHORT $LN1@LoadInt_e
$LN93@LoadInt_e:
  0019a	c6 45 eb ea	 mov	 BYTE PTR __k$[ebp+3], -22 ; ffffffeaH
  0019e	eb 10		 jmp	 SHORT $LN1@LoadInt_e
$LN94@LoadInt_e:
  001a0	c6 45 ea eb	 mov	 BYTE PTR __k$[ebp+2], -21 ; ffffffebH
  001a4	eb 0a		 jmp	 SHORT $LN1@LoadInt_e
$LN95@LoadInt_e:
  001a6	c6 45 e9 ec	 mov	 BYTE PTR __k$[ebp+1], -20 ; ffffffecH
  001aa	eb 04		 jmp	 SHORT $LN1@LoadInt_e
$LN96@LoadInt_e:
  001ac	c6 45 e8 ed	 mov	 BYTE PTR __k$[ebp], -19	; ffffffedH
$LN1@LoadInt_e:
  001b0	6a 03		 push	 3
  001b2	8d 45 e8	 lea	 eax, DWORD PTR __k$[ebp]
  001b5	c6 45 f7 00	 mov	 BYTE PTR __k$[ebp+15], 0
  001b9	5a		 pop	 edx
$LL104@LoadInt_e:
  001ba	81 30 ed ec eb
	ea		 xor	 DWORD PTR [eax], -353637139 ; eaebecedH
  001c0	83 c0 04	 add	 eax, 4
  001c3	4a		 dec	 edx
  001c4	75 f4		 jne	 SHORT $LL104@LoadInt_e
  001c6	6a 0c		 push	 12			; 0000000cH
  001c8	58		 pop	 eax
$LL101@LoadInt_e:
  001c9	8b c8		 mov	 ecx, eax
  001cb	81 e1 03 00 00
	80		 and	 ecx, -2147483645	; 80000003H
  001d1	79 05		 jns	 SHORT $LN111@LoadInt_e
  001d3	49		 dec	 ecx
  001d4	83 c9 fc	 or	 ecx, -4			; fffffffcH
  001d7	41		 inc	 ecx
$LN111@LoadInt_e:
  001d8	b2 ed		 mov	 dl, -19			; ffffffedH
  001da	2a d1		 sub	 dl, cl
  001dc	30 54 05 e8	 xor	 BYTE PTR __k$[ebp+eax], dl
  001e0	40		 inc	 eax
  001e1	83 f8 0f	 cmp	 eax, 15			; 0000000fH
  001e4	7c e3		 jl	 SHORT $LL101@LoadInt_e

; 120  : 		return LoadInt(_k, i);

  001e6	ff 75 0c	 push	 DWORD PTR _i$[ebp]
  001e9	8d 45 e8	 lea	 eax, DWORD PTR __k$[ebp]
  001ec	50		 push	 eax
  001ed	8b ce		 mov	 ecx, esi
  001ef	ff 15 00 00 00
	00		 call	 DWORD PTR __imp_?LoadInt@ioINILoader@@QAEHPBDH@Z

; 121  : 	}

  001f5	8b 4d fc	 mov	 ecx, DWORD PTR __$ArrayPad$[ebp]
  001f8	33 cd		 xor	 ecx, ebp
  001fa	5e		 pop	 esi
  001fb	e8 00 00 00 00	 call	 @__security_check_cookie@4
  00200	c9		 leave
  00201	c2 08 00	 ret	 8
??$LoadInt_e@$0BA@@ioINILoader@@QAEHAAY0BA@$$CBDH@Z ENDP ; ioINILoader::LoadInt_e<16>
_TEXT	ENDS
PUBLIC	?destroy@?$allocator@K@std@@QAEXPAK@Z		; std::allocator<unsigned long>::destroy
; Function compile flags: /Ogsp
; File c:\program files (x86)\microsoft visual studio 10.0\vc\include\xmemory
;	COMDAT ?destroy@?$allocator@K@std@@QAEXPAK@Z
_TEXT	SEGMENT
__Ptr$ = 8						; size = 4
?destroy@?$allocator@K@std@@QAEXPAK@Z PROC		; std::allocator<unsigned long>::destroy, COMDAT
; _this$ = ecx

; 213  : 		_Destroy(_Ptr);
; 214  : 		}

  00000	c2 04 00	 ret	 4
?destroy@?$allocator@K@std@@QAEXPAK@Z ENDP		; std::allocator<unsigned long>::destroy
_TEXT	ENDS
PUBLIC	??4?$CEncrypt@K@@QAEKK@Z			; CEncrypt<unsigned long>::operator=
; Function compile flags: /Ogsp
; File d:\lost saga for developer\youtube\tutorial\source\src\lsclient\encryptvalue.h
;	COMDAT ??4?$CEncrypt@K@@QAEKK@Z
_TEXT	SEGMENT
_value$ = 8						; size = 4
_inValue$ = 8						; size = 4
??4?$CEncrypt@K@@QAEKK@Z PROC				; CEncrypt<unsigned long>::operator=, COMDAT
; _this$ = ecx

; 1262 : 	{

  00000	55		 push	 ebp
  00001	8b ec		 mov	 ebp, esp

; 1263 : 		
; 1264 : 		type value = inValue;

  00003	8b 45 08	 mov	 eax, DWORD PTR _inValue$[ebp]
  00006	89 45 08	 mov	 DWORD PTR _value$[ebp], eax

; 1265 : 		EncryptValueToPool((char*)&value);

  00009	8d 45 08	 lea	 eax, DWORD PTR _value$[ebp]
  0000c	50		 push	 eax
  0000d	e8 00 00 00 00	 call	 ?EncryptValueToPool@?$CEncrypt@K@@AAEXPBD@Z ; CEncrypt<unsigned long>::EncryptValueToPool

; 1266 : #ifdef _NOTUSE
; 1267 : 		m_value = inValue;
; 1268 : 		Debug();
; 1269 : #endif
; 1270 : 		return value;

  00012	8b 45 08	 mov	 eax, DWORD PTR _value$[ebp]

; 1271 : 	}

  00015	5d		 pop	 ebp
  00016	c2 04 00	 ret	 4
??4?$CEncrypt@K@@QAEKK@Z ENDP				; CEncrypt<unsigned long>::operator=
_TEXT	ENDS
PUBLIC	??4?$CEncrypt@_N@@QAE_N_N@Z			; CEncrypt<bool>::operator=
; Function compile flags: /Ogsp
;	COMDAT ??4?$CEncrypt@_N@@QAE_N_N@Z
_TEXT	SEGMENT
_inValue$ = 8						; size = 1
_value$ = 11						; size = 1
??4?$CEncrypt@_N@@QAE_N_N@Z PROC			; CEncrypt<bool>::operator=, COMDAT
; _this$ = ecx

; 225  : 	{

  00000	55		 push	 ebp
  00001	8b ec		 mov	 ebp, esp

; 226  : 		type value = inValue;

  00003	8a 45 08	 mov	 al, BYTE PTR _inValue$[ebp]
  00006	88 45 0b	 mov	 BYTE PTR _value$[ebp], al

; 227  : 		EncryptValueToPool((char*)&value);

  00009	8d 45 0b	 lea	 eax, DWORD PTR _value$[ebp]
  0000c	50		 push	 eax
  0000d	e8 00 00 00 00	 call	 ?EncryptValueToPool@?$CEncrypt@_N@@AAEXPBD@Z ; CEncrypt<bool>::EncryptValueToPool

; 228  : #ifdef _NOTUSE
; 229  : 		m_value = inValue;
; 230  : 		Debug();
; 231  : #endif
; 232  : 		return value;

  00012	8a 45 0b	 mov	 al, BYTE PTR _value$[ebp]

; 233  : 	}

  00015	5d		 pop	 ebp
  00016	c2 04 00	 ret	 4
??4?$CEncrypt@_N@@QAE_N_N@Z ENDP			; CEncrypt<bool>::operator=
_TEXT	ENDS
PUBLIC	??0?$_Vector_val@KV?$allocator@K@std@@@std@@QAE@V?$allocator@K@1@@Z ; std::_Vector_val<unsigned long,std::allocator<unsigned long> >::_Vector_val<unsigned long,std::allocator<unsigned long> >
; Function compile flags: /Ogsp
; File c:\program files (x86)\microsoft visual studio 10.0\vc\include\vector
;	COMDAT ??0?$_Vector_val@KV?$allocator@K@std@@@std@@QAE@V?$allocator@K@1@@Z
_TEXT	SEGMENT
__Al$ = 8						; size = 1
??0?$_Vector_val@KV?$allocator@K@std@@@std@@QAE@V?$allocator@K@1@@Z PROC ; std::_Vector_val<unsigned long,std::allocator<unsigned long> >::_Vector_val<unsigned long,std::allocator<unsigned long> >, COMDAT
; _this$ = ecx

; 426  : 		{	// construct allocator from _Al

  00000	8b c1		 mov	 eax, ecx

; 427  : 		_Myfirst = 0;

  00002	33 c9		 xor	 ecx, ecx
  00004	89 08		 mov	 DWORD PTR [eax], ecx

; 428  : 		_Mylast = 0;

  00006	89 48 04	 mov	 DWORD PTR [eax+4], ecx

; 429  : 		_Myend = 0;

  00009	89 48 08	 mov	 DWORD PTR [eax+8], ecx

; 430  : 		}

  0000c	c2 04 00	 ret	 4
??0?$_Vector_val@KV?$allocator@K@std@@@std@@QAE@V?$allocator@K@1@@Z ENDP ; std::_Vector_val<unsigned long,std::allocator<unsigned long> >::_Vector_val<unsigned long,std::allocator<unsigned long> >
_TEXT	ENDS
PUBLIC	?max_size@?$vector@KV?$allocator@K@std@@@std@@QBEIXZ ; std::vector<unsigned long,std::allocator<unsigned long> >::max_size
; Function compile flags: /Ogsp
;	COMDAT ?max_size@?$vector@KV?$allocator@K@std@@@std@@QBEIXZ
_TEXT	SEGMENT
?max_size@?$vector@KV?$allocator@K@std@@@std@@QBEIXZ PROC ; std::vector<unsigned long,std::allocator<unsigned long> >::max_size, COMDAT
; _this$ = ecx

; 884  : 		return (this->_Alval.max_size());

  00000	b8 ff ff ff 3f	 mov	 eax, 1073741823		; 3fffffffH

; 885  : 		}

  00005	c3		 ret	 0
?max_size@?$vector@KV?$allocator@K@std@@@std@@QBEIXZ ENDP ; std::vector<unsigned long,std::allocator<unsigned long> >::max_size
_TEXT	ENDS
PUBLIC	?_Grow_to@?$vector@KV?$allocator@K@std@@@std@@IBEII@Z ; std::vector<unsigned long,std::allocator<unsigned long> >::_Grow_to
; Function compile flags: /Ogsp
;	COMDAT ?_Grow_to@?$vector@KV?$allocator@K@std@@@std@@IBEII@Z
_TEXT	SEGMENT
__Count$ = 8						; size = 4
?_Grow_to@?$vector@KV?$allocator@K@std@@@std@@IBEII@Z PROC ; std::vector<unsigned long,std::allocator<unsigned long> >::_Grow_to, COMDAT
; _this$ = ecx

; 1274 : 		{	// grow by 50% or at least to _Count

  00000	55		 push	 ebp
  00001	8b ec		 mov	 ebp, esp

; 1275 : 		size_type _Capacity = capacity();

  00003	8b 41 08	 mov	 eax, DWORD PTR [ecx+8]
  00006	2b 01		 sub	 eax, DWORD PTR [ecx]

; 1276 : 
; 1277 : 		_Capacity = max_size() - _Capacity / 2 < _Capacity
; 1278 : 			? 0 : _Capacity + _Capacity / 2;	// try to grow by 50%

  00008	ba ff ff ff 3f	 mov	 edx, 1073741823		; 3fffffffH
  0000d	c1 f8 02	 sar	 eax, 2
  00010	8b c8		 mov	 ecx, eax
  00012	d1 e9		 shr	 ecx, 1
  00014	2b d1		 sub	 edx, ecx
  00016	3b d0		 cmp	 edx, eax
  00018	73 04		 jae	 SHORT $LN4@Grow_to
  0001a	33 c0		 xor	 eax, eax
  0001c	eb 02		 jmp	 SHORT $LN5@Grow_to
$LN4@Grow_to:
  0001e	03 c1		 add	 eax, ecx
$LN5@Grow_to:

; 1279 : 		if (_Capacity < _Count)

  00020	3b 45 08	 cmp	 eax, DWORD PTR __Count$[ebp]

; 1280 : 			_Capacity = _Count;

  00023	0f 42 45 08	 cmovb	 eax, DWORD PTR __Count$[ebp]

; 1281 : 		return (_Capacity);
; 1282 : 		}

  00027	5d		 pop	 ebp
  00028	c2 04 00	 ret	 4
?_Grow_to@?$vector@KV?$allocator@K@std@@@std@@IBEII@Z ENDP ; std::vector<unsigned long,std::allocator<unsigned long> >::_Grow_to
_TEXT	ENDS
PUBLIC	??0?$_Vector_iterator@V?$_Vector_val@KV?$allocator@K@std@@@std@@@std@@QAE@PAKPBU_Container_base0@1@@Z ; std::_Vector_iterator<std::_Vector_val<unsigned long,std::allocator<unsigned long> > >::_Vector_iterator<std::_Vector_val<unsigned long,std::allocator<unsigned long> > >
; Function compile flags: /Ogsp
;	COMDAT ??0?$_Vector_iterator@V?$_Vector_val@KV?$allocator@K@std@@@std@@@std@@QAE@PAKPBU_Container_base0@1@@Z
_TEXT	SEGMENT
__Parg$ = 8						; size = 4
__Pvector$ = 12						; size = 4
??0?$_Vector_iterator@V?$_Vector_val@KV?$allocator@K@std@@@std@@@std@@QAE@PAKPBU_Container_base0@1@@Z PROC ; std::_Vector_iterator<std::_Vector_val<unsigned long,std::allocator<unsigned long> > >::_Vector_iterator<std::_Vector_val<unsigned long,std::allocator<unsigned long> > >, COMDAT
; _this$ = ecx

; 304  : 		{	// construct with pointer _Parg

  00000	55		 push	 ebp
  00001	8b ec		 mov	 ebp, esp
  00003	8b c1		 mov	 eax, ecx
  00005	8b 4d 08	 mov	 ecx, DWORD PTR __Parg$[ebp]
  00008	89 08		 mov	 DWORD PTR [eax], ecx

; 305  : 		}

  0000a	5d		 pop	 ebp
  0000b	c2 08 00	 ret	 8
??0?$_Vector_iterator@V?$_Vector_val@KV?$allocator@K@std@@@std@@@std@@QAE@PAKPBU_Container_base0@1@@Z ENDP ; std::_Vector_iterator<std::_Vector_val<unsigned long,std::allocator<unsigned long> > >::_Vector_iterator<std::_Vector_val<unsigned long,std::allocator<unsigned long> > >
_TEXT	ENDS
PUBLIC	?allocate@?$allocator@K@std@@QAEPAKI@Z		; std::allocator<unsigned long>::allocate
; Function compile flags: /Ogsp
; File c:\program files (x86)\microsoft visual studio 10.0\vc\include\xmemory
;	COMDAT ?allocate@?$allocator@K@std@@QAEPAKI@Z
_TEXT	SEGMENT
__Count$ = 8						; size = 4
?allocate@?$allocator@K@std@@QAEPAKI@Z PROC		; std::allocator<unsigned long>::allocate, COMDAT
; _this$ = ecx

; 186  : 		{	// allocate array of _Count elements

  00000	55		 push	 ebp
  00001	8b ec		 mov	 ebp, esp

; 187  : 		return (_Allocate(_Count, (pointer)0));

  00003	6a 00		 push	 0
  00005	ff 75 08	 push	 DWORD PTR __Count$[ebp]
  00008	e8 00 00 00 00	 call	 ??$_Allocate@K@std@@YAPAKIPAK@Z ; std::_Allocate<unsigned long>
  0000d	59		 pop	 ecx
  0000e	59		 pop	 ecx

; 188  : 		}

  0000f	5d		 pop	 ebp
  00010	c2 04 00	 ret	 4
?allocate@?$allocator@K@std@@QAEPAKI@Z ENDP		; std::allocator<unsigned long>::allocate
_TEXT	ENDS
PUBLIC	??8?$_Vector_const_iterator@V?$_Vector_val@KV?$allocator@K@std@@@std@@@std@@QBE_NABV01@@Z ; std::_Vector_const_iterator<std::_Vector_val<unsigned long,std::allocator<unsigned long> > >::operator==
; Function compile flags: /Ogsp
; File c:\program files (x86)\microsoft visual studio 10.0\vc\include\vector
;	COMDAT ??8?$_Vector_const_iterator@V?$_Vector_val@KV?$allocator@K@std@@@std@@@std@@QBE_NABV01@@Z
_TEXT	SEGMENT
__Right$ = 8						; size = 4
??8?$_Vector_const_iterator@V?$_Vector_val@KV?$allocator@K@std@@@std@@@std@@QBE_NABV01@@Z PROC ; std::_Vector_const_iterator<std::_Vector_val<unsigned long,std::allocator<unsigned long> > >::operator==, COMDAT
; _this$ = ecx

; 201  : 		{	// test for iterator equality

  00000	55		 push	 ebp
  00001	8b ec		 mov	 ebp, esp

; 202  : 		_Compat(_Right);
; 203  : 		return (this->_Ptr == _Right._Ptr);

  00003	8b 01		 mov	 eax, DWORD PTR [ecx]
  00005	8b 4d 08	 mov	 ecx, DWORD PTR __Right$[ebp]
  00008	2b 01		 sub	 eax, DWORD PTR [ecx]
  0000a	f7 d8		 neg	 eax
  0000c	1b c0		 sbb	 eax, eax
  0000e	40		 inc	 eax

; 204  : 		}

  0000f	5d		 pop	 ebp
  00010	c2 04 00	 ret	 4
??8?$_Vector_const_iterator@V?$_Vector_val@KV?$allocator@K@std@@@std@@@std@@QBE_NABV01@@Z ENDP ; std::_Vector_const_iterator<std::_Vector_val<unsigned long,std::allocator<unsigned long> > >::operator==
_TEXT	ENDS
PUBLIC	??$_Cons_val@V?$allocator@K@std@@KAAK@std@@YAXAAV?$allocator@K@0@PAKAAK@Z ; std::_Cons_val<std::allocator<unsigned long>,unsigned long,unsigned long &>
; Function compile flags: /Ogsp
; File c:\program files (x86)\microsoft visual studio 10.0\vc\include\xmemory
;	COMDAT ??$_Cons_val@V?$allocator@K@std@@KAAK@std@@YAXAAV?$allocator@K@0@PAKAAK@Z
_TEXT	SEGMENT
__Alval$ = 8						; size = 4
__Pdest$ = 12						; size = 4
__Src$ = 16						; size = 4
??$_Cons_val@V?$allocator@K@std@@KAAK@std@@YAXAAV?$allocator@K@0@PAKAAK@Z PROC ; std::_Cons_val<std::allocator<unsigned long>,unsigned long,unsigned long &>, COMDAT

; 279  : 	{	// construct using allocator

  00000	55		 push	 ebp
  00001	8b ec		 mov	 ebp, esp

; 280  : 	_Alval.construct(_Pdest, _STD forward<_Ty2>(_Src));

  00003	8b 45 0c	 mov	 eax, DWORD PTR __Pdest$[ebp]
  00006	85 c0		 test	 eax, eax
  00008	74 07		 je	 SHORT $LN7@Cons_val
  0000a	8b 4d 10	 mov	 ecx, DWORD PTR __Src$[ebp]
  0000d	8b 09		 mov	 ecx, DWORD PTR [ecx]
  0000f	89 08		 mov	 DWORD PTR [eax], ecx
$LN7@Cons_val:

; 281  : 	}

  00011	5d		 pop	 ebp
  00012	c3		 ret	 0
??$_Cons_val@V?$allocator@K@std@@KAAK@std@@YAXAAV?$allocator@K@0@PAKAAK@Z ENDP ; std::_Cons_val<std::allocator<unsigned long>,unsigned long,unsigned long &>
_TEXT	ENDS
PUBLIC	??$_Move@PAKPAK@std@@YAPAKPAK00@Z		; std::_Move<unsigned long *,unsigned long *>
; Function compile flags: /Ogsp
; File c:\program files (x86)\microsoft visual studio 10.0\vc\include\xutility
;	COMDAT ??$_Move@PAKPAK@std@@YAPAKPAK00@Z
_TEXT	SEGMENT
__Cat$533352 = -4					; size = 1
__First$ = 8						; size = 4
__Last$ = 12						; size = 4
__Dest$ = 16						; size = 4
??$_Move@PAKPAK@std@@YAPAKPAK00@Z PROC			; std::_Move<unsigned long *,unsigned long *>, COMDAT

; 2533 : 	{	// move [_First, _Last) to [_Dest, ...), unchecked

  00000	55		 push	 ebp
  00001	8b ec		 mov	 ebp, esp
  00003	51		 push	 ecx

; 2534 : 	return (_Move(_First, _Last,
; 2535 : 		_Dest, _Ptr_cat(_First, _Dest)));

  00004	ff 75 fc	 push	 DWORD PTR __Cat$533352[ebp]
  00007	ff 75 10	 push	 DWORD PTR __Dest$[ebp]
  0000a	ff 75 0c	 push	 DWORD PTR __Last$[ebp]
  0000d	ff 75 08	 push	 DWORD PTR __First$[ebp]
  00010	e8 00 00 00 00	 call	 ??$_Move@PAKPAK@std@@YAPAKPAK00U_Scalar_ptr_iterator_tag@0@@Z ; std::_Move<unsigned long *,unsigned long *>
  00015	83 c4 10	 add	 esp, 16			; 00000010H

; 2536 : 	}

  00018	c9		 leave
  00019	c3		 ret	 0
??$_Move@PAKPAK@std@@YAPAKPAK00@Z ENDP			; std::_Move<unsigned long *,unsigned long *>
_TEXT	ENDS
PUBLIC	??$_Destroy_range@V?$allocator@K@std@@@std@@YAXPAK0AAV?$allocator@K@0@@Z ; std::_Destroy_range<std::allocator<unsigned long> >
; Function compile flags: /Ogsp
; File c:\program files (x86)\microsoft visual studio 10.0\vc\include\xmemory
;	COMDAT ??$_Destroy_range@V?$allocator@K@std@@@std@@YAXPAK0AAV?$allocator@K@0@@Z
_TEXT	SEGMENT
__First$ = 8						; size = 4
__Last$ = 12						; size = 4
__Al$ = 16						; size = 4
??$_Destroy_range@V?$allocator@K@std@@@std@@YAXPAK0AAV?$allocator@K@0@@Z PROC ; std::_Destroy_range<std::allocator<unsigned long> >, COMDAT

; 88   : 	_Destroy_range(_First, _Last, _Al, _Ptr_cat(_First, _Last));
; 89   : 	}

  00000	c3		 ret	 0
??$_Destroy_range@V?$allocator@K@std@@@std@@YAXPAK0AAV?$allocator@K@0@@Z ENDP ; std::_Destroy_range<std::allocator<unsigned long> >
_TEXT	ENDS
PUBLIC	?construct@?$allocator@K@std@@QAEXPAKABK@Z	; std::allocator<unsigned long>::construct
; Function compile flags: /Ogsp
;	COMDAT ?construct@?$allocator@K@std@@QAEXPAKABK@Z
_TEXT	SEGMENT
__Ptr$ = 8						; size = 4
__Val$ = 12						; size = 4
?construct@?$allocator@K@std@@QAEXPAKABK@Z PROC		; std::allocator<unsigned long>::construct, COMDAT
; _this$ = ecx

; 196  : 		{	// construct object at _Ptr with value _Val

  00000	55		 push	 ebp
  00001	8b ec		 mov	 ebp, esp

; 197  : 		_Construct(_Ptr, _Val);

  00003	8b 45 08	 mov	 eax, DWORD PTR __Ptr$[ebp]
  00006	85 c0		 test	 eax, eax
  00008	74 07		 je	 SHORT $LN5@construct@2
  0000a	8b 4d 0c	 mov	 ecx, DWORD PTR __Val$[ebp]
  0000d	8b 09		 mov	 ecx, DWORD PTR [ecx]
  0000f	89 08		 mov	 DWORD PTR [eax], ecx
$LN5@construct@2:

; 198  : 		}

  00011	5d		 pop	 ebp
  00012	c2 08 00	 ret	 8
?construct@?$allocator@K@std@@QAEXPAKABK@Z ENDP		; std::allocator<unsigned long>::construct
_TEXT	ENDS
PUBLIC	??$_Uninitialized_move@PAKPAKV?$allocator@K@std@@@std@@YAPAKPAK00AAV?$allocator@K@0@@Z ; std::_Uninitialized_move<unsigned long *,unsigned long *,std::allocator<unsigned long> >
; Function compile flags: /Ogsp
; File c:\program files (x86)\microsoft visual studio 10.0\vc\include\memory
;	COMDAT ??$_Uninitialized_move@PAKPAKV?$allocator@K@std@@@std@@YAPAKPAK00AAV?$allocator@K@0@@Z
_TEXT	SEGMENT
__First$ = 8						; size = 4
__Last$ = 12						; size = 4
__Dest$ = 16						; size = 4
__Al$ = 20						; size = 4
??$_Uninitialized_move@PAKPAKV?$allocator@K@std@@@std@@YAPAKPAK00AAV?$allocator@K@0@@Z PROC ; std::_Uninitialized_move<unsigned long *,unsigned long *,std::allocator<unsigned long> >, COMDAT

; 469  : 	{	// move [_First, _Last) to raw _Dest, using _Al

  00000	55		 push	 ebp
  00001	8b ec		 mov	 ebp, esp
  00003	56		 push	 esi

; 470  : 	return (_Uninit_move(_First, _Last, _Dest, _Al,
; 471  : 		_Val_type(_First), _Ptr_cat(_First, _Dest)));

  00004	8b 75 0c	 mov	 esi, DWORD PTR __Last$[ebp]
  00007	2b 75 08	 sub	 esi, DWORD PTR __First$[ebp]
  0000a	c1 fe 02	 sar	 esi, 2
  0000d	c1 e6 02	 shl	 esi, 2
  00010	56		 push	 esi
  00011	ff 75 08	 push	 DWORD PTR __First$[ebp]
  00014	ff 75 10	 push	 DWORD PTR __Dest$[ebp]
  00017	ff 15 00 00 00
	00		 call	 DWORD PTR __imp__memmove
  0001d	83 c4 0c	 add	 esp, 12			; 0000000cH
  00020	03 c6		 add	 eax, esi
  00022	5e		 pop	 esi

; 472  : 	}

  00023	5d		 pop	 ebp
  00024	c3		 ret	 0
??$_Uninitialized_move@PAKPAKV?$allocator@K@std@@@std@@YAPAKPAK00AAV?$allocator@K@0@@Z ENDP ; std::_Uninitialized_move<unsigned long *,unsigned long *,std::allocator<unsigned long> >
_TEXT	ENDS
PUBLIC	?StartBuff@ioTargetEquipObjectItemBuff@@UAEXPAVioBaseChar@@@Z ; ioTargetEquipObjectItemBuff::StartBuff
EXTRN	?GetBuffDuration@ioBuff@@IAEKXZ:PROC		; ioBuff::GetBuffDuration
EXTRN	?GetMemberBalanceRateForStateProtectionTime@ioBaseChar@@QAEMH@Z:PROC ; ioBaseChar::GetMemberBalanceRateForStateProtectionTime
EXTRN	__imp_?GetLoopSec@ioFrameTimer@@QBEKXZ:PROC
EXTRN	__imp_?GetSingleton@ioFrameTimer@@SAAAV1@XZ:PROC
EXTRN	__ftol2:PROC
; Function compile flags: /Ogsp
; File d:\lost saga for developer\youtube\tutorial\source\src\lsclient\iotargetequipobjectitembuff.cpp
;	COMDAT ?StartBuff@ioTargetEquipObjectItemBuff@@UAEXPAVioBaseChar@@@Z
_TEXT	SEGMENT
tv155 = -8						; size = 8
tv257 = 8						; size = 4
_value$533427 = 8					; size = 4
_value$533422 = 8					; size = 4
_value$533418 = 8					; size = 4
_value$533410 = 8					; size = 4
_pOwner$ = 8						; size = 4
_value$533431 = 11					; size = 1
?StartBuff@ioTargetEquipObjectItemBuff@@UAEXPAVioBaseChar@@@Z PROC ; ioTargetEquipObjectItemBuff::StartBuff, COMDAT
; _this$ = ecx

; 58   : {

  00000	55		 push	 ebp
  00001	8b ec		 mov	 ebp, esp
  00003	51		 push	 ecx
  00004	51		 push	 ecx
  00005	53		 push	 ebx

; 59   : #ifndef SHIPPING 
; 60   : 	if( Setting::ShowExtraInfo() )
; 61   : 	{
; 62   : 		LOG.PrintTimeAndLog( 0, "BuffCheck - %s, StartTime: %d", m_Name.c_str(), FRAMEGETTIME() );
; 63   : 	}
; 64   : #endif
; 65   : 
; 66   : 	if( !pOwner )

  00006	8b 5d 08	 mov	 ebx, DWORD PTR _pOwner$[ebp]
  00009	56		 push	 esi
  0000a	8b f1		 mov	 esi, ecx
  0000c	85 db		 test	 ebx, ebx
  0000e	0f 84 eb 00 00
	00		 je	 $LN1@StartBuff

; 67   : 		return;
; 68   : 
; 69   : 	DWORD dwCurTime = FRAMEGETTIME();

  00014	57		 push	 edi
  00015	ff 15 00 00 00
	00		 call	 DWORD PTR __imp_?GetSingleton@ioFrameTimer@@SAAAV1@XZ
  0001b	8b c8		 mov	 ecx, eax
  0001d	ff 15 00 00 00
	00		 call	 DWORD PTR __imp_?GetLoopSec@ioFrameTimer@@QBEKXZ
  00023	8b f8		 mov	 edi, eax

; 70   : 	m_pOwner = pOwner;
; 71   : 	m_OwnerName = pOwner->GetCharName();

  00025	8d 83 d4 02 00
	00		 lea	 eax, DWORD PTR [ebx+724]
  0002b	50		 push	 eax
  0002c	8d 8e 78 02 00
	00		 lea	 ecx, DWORD PTR [esi+632]
  00032	89 9e 74 02 00
	00		 mov	 DWORD PTR [esi+628], ebx
  00038	ff 15 00 00 00
	00		 call	 DWORD PTR __imp_??4ioHashString@@QAEAAV0@ABV0@@Z

; 72   : 
; 73   : 	m_dwBuffStartTime = dwCurTime;

  0003e	8d 45 08	 lea	 eax, DWORD PTR _value$533410[ebp]
  00041	8d 8e 6c 03 00
	00		 lea	 ecx, DWORD PTR [esi+876]
  00047	50		 push	 eax
  00048	89 7d 08	 mov	 DWORD PTR _value$533410[ebp], edi
  0004b	e8 00 00 00 00	 call	 ?EncryptValueToPool@?$CEncrypt@K@@AAEXPBD@Z ; CEncrypt<unsigned long>::EncryptValueToPool

; 74   : 	if( m_iOperationType == OT_DELAY )

  00050	83 be d0 03 00
	00 03		 cmp	 DWORD PTR [esi+976], 3
  00057	75 12		 jne	 SHORT $LN2@StartBuff

; 75   : 	{
; 76   : 		m_dwBuffStartTime += m_dwDelayDuration;

  00059	8d 86 d8 02 00
	00		 lea	 eax, DWORD PTR [esi+728]
  0005f	50		 push	 eax
  00060	8d 8e 6c 03 00
	00		 lea	 ecx, DWORD PTR [esi+876]
  00066	e8 00 00 00 00	 call	 ??Y?$CEncrypt@K@@QAEAAKABK@Z ; CEncrypt<unsigned long>::operator+=
$LN2@StartBuff:

; 77   : 	}
; 78   : 
; 79   : 	DWORD dwCurDuration = GetBuffDuration() * pOwner->GetMemberBalanceRateForStateProtectionTime( GetTypeID() );

  0006b	ff b6 cc 03 00
	00		 push	 DWORD PTR [esi+972]
  00071	8b cb		 mov	 ecx, ebx
  00073	e8 00 00 00 00	 call	 ?GetMemberBalanceRateForStateProtectionTime@ioBaseChar@@QAEMH@Z ; ioBaseChar::GetMemberBalanceRateForStateProtectionTime
  00078	dd 5d f8	 fstp	 QWORD PTR tv155[ebp]
  0007b	8b ce		 mov	 ecx, esi
  0007d	e8 00 00 00 00	 call	 ?GetBuffDuration@ioBuff@@IAEKXZ ; ioBuff::GetBuffDuration
  00082	89 45 08	 mov	 DWORD PTR tv257[ebp], eax
  00085	db 45 08	 fild	 DWORD PTR tv257[ebp]
  00088	85 c0		 test	 eax, eax
  0008a	79 06		 jns	 SHORT $LN20@StartBuff
  0008c	d8 05 00 00 00
	00		 fadd	 DWORD PTR __real@4f800000
$LN20@StartBuff:
  00092	dc 4d f8	 fmul	 QWORD PTR tv155[ebp]
  00095	e8 00 00 00 00	 call	 __ftol2
  0009a	8b d8		 mov	 ebx, eax

; 80   : 	m_dwBuffEndTime = m_dwBuffStartTime + dwCurDuration;

  0009c	8d 45 08	 lea	 eax, DWORD PTR _value$533418[ebp]
  0009f	50		 push	 eax
  000a0	8d 8e 6c 03 00
	00		 lea	 ecx, DWORD PTR [esi+876]
  000a6	e8 00 00 00 00	 call	 ?DecryptValueToPool@?$CEncrypt@K@@QAEXPAK@Z ; CEncrypt<unsigned long>::DecryptValueToPool
  000ab	8b 45 08	 mov	 eax, DWORD PTR _value$533418[ebp]
  000ae	03 c3		 add	 eax, ebx
  000b0	89 45 08	 mov	 DWORD PTR _value$533422[ebp], eax
  000b3	8d 45 08	 lea	 eax, DWORD PTR _value$533422[ebp]
  000b6	50		 push	 eax
  000b7	8d 8e 9c 03 00
	00		 lea	 ecx, DWORD PTR [esi+924]
  000bd	e8 00 00 00 00	 call	 ?EncryptValueToPool@?$CEncrypt@K@@AAEXPBD@Z ; CEncrypt<unsigned long>::EncryptValueToPool

; 81   : 	m_dwCheckTime = dwCurTime;

  000c2	8d 45 08	 lea	 eax, DWORD PTR _value$533427[ebp]
  000c5	50		 push	 eax
  000c6	8d 8e 3c 03 00
	00		 lea	 ecx, DWORD PTR [esi+828]
  000cc	89 7d 08	 mov	 DWORD PTR _value$533427[ebp], edi
  000cf	e8 00 00 00 00	 call	 ?EncryptValueToPool@?$CEncrypt@K@@AAEXPBD@Z ; CEncrypt<unsigned long>::EncryptValueToPool

; 82   : 
; 83   : 	m_bLive = true;

  000d4	8d 45 0b	 lea	 eax, DWORD PTR _value$533431[ebp]
  000d7	50		 push	 eax
  000d8	8d 8e 70 07 00
	00		 lea	 ecx, DWORD PTR [esi+1904]
  000de	c6 45 0b 01	 mov	 BYTE PTR _value$533431[ebp], 1
  000e2	e8 00 00 00 00	 call	 ?EncryptValueToPool@?$CEncrypt@_N@@AAEXPBD@Z ; CEncrypt<bool>::EncryptValueToPool

; 84   : 	
; 85   : 	m_dwCurObjectItem = 0;

  000e7	83 a6 80 09 00
	00 00		 and	 DWORD PTR [esi+2432], 0

; 86   : 	if( m_iOperationType != OT_DELAY )

  000ee	83 be d0 03 00
	00 03		 cmp	 DWORD PTR [esi+976], 3
  000f5	5f		 pop	 edi
  000f6	74 07		 je	 SHORT $LN1@StartBuff

; 87   : 	{
; 88   : 		SetAction();

  000f8	8b 06		 mov	 eax, DWORD PTR [esi]
  000fa	8b ce		 mov	 ecx, esi
  000fc	ff 50 34	 call	 DWORD PTR [eax+52]
$LN1@StartBuff:
  000ff	5e		 pop	 esi
  00100	5b		 pop	 ebx

; 89   : 	}
; 90   : }

  00101	c9		 leave
  00102	c2 04 00	 ret	 4
?StartBuff@ioTargetEquipObjectItemBuff@@UAEXPAVioBaseChar@@@Z ENDP ; ioTargetEquipObjectItemBuff::StartBuff
_TEXT	ENDS
PUBLIC	?ApplyStartBuff@ioTargetEquipObjectItemBuff@@UAE_NPAVioBaseChar@@KK@Z ; ioTargetEquipObjectItemBuff::ApplyStartBuff
EXTRN	?CalcGlobalGapTime@ioGlobalTimer@@QBEKK@Z:PROC	; ioGlobalTimer::CalcGlobalGapTime
EXTRN	?GetSingleton@ioGlobalTimer@@SAAAV1@XZ:PROC	; ioGlobalTimer::GetSingleton
; Function compile flags: /Ogsp
;	COMDAT ?ApplyStartBuff@ioTargetEquipObjectItemBuff@@UAE_NPAVioBaseChar@@KK@Z
_TEXT	SEGMENT
tv140 = -8						; size = 8
tv248 = 8						; size = 4
_value$533457 = 8					; size = 4
_value$533452 = 8					; size = 4
_value$533448 = 8					; size = 4
_pOwner$ = 8						; size = 4
_value$533462 = 11					; size = 1
_value$533439 = 12					; size = 4
_dwCurDuration$531828 = 12				; size = 4
_dwGlobalTimeGap$ = 12					; size = 4
_dwGlobalTime$ = 12					; size = 4
_dwGapTime$ = 16					; size = 4
?ApplyStartBuff@ioTargetEquipObjectItemBuff@@UAE_NPAVioBaseChar@@KK@Z PROC ; ioTargetEquipObjectItemBuff::ApplyStartBuff, COMDAT
; _this$ = ecx

; 93   : {

  00000	55		 push	 ebp
  00001	8b ec		 mov	 ebp, esp
  00003	51		 push	 ecx
  00004	51		 push	 ecx

; 94   : 	m_pOwner = pOwner;

  00005	8b 45 08	 mov	 eax, DWORD PTR _pOwner$[ebp]
  00008	53		 push	 ebx
  00009	56		 push	 esi
  0000a	57		 push	 edi

; 95   : 	DWORD dwGlobalTimeGap = g_GlobalTimer.CalcGlobalGapTime( dwGlobalTime );

  0000b	ff 75 0c	 push	 DWORD PTR _dwGlobalTime$[ebp]
  0000e	8b f1		 mov	 esi, ecx
  00010	89 86 74 02 00
	00		 mov	 DWORD PTR [esi+628], eax
  00016	e8 00 00 00 00	 call	 ?GetSingleton@ioGlobalTimer@@SAAAV1@XZ ; ioGlobalTimer::GetSingleton
  0001b	8b c8		 mov	 ecx, eax
  0001d	e8 00 00 00 00	 call	 ?CalcGlobalGapTime@ioGlobalTimer@@QBEKK@Z ; ioGlobalTimer::CalcGlobalGapTime

; 96   : 
; 97   : 	if( m_iOperationType != OT_SWITCH )

  00022	83 be d0 03 00
	00 02		 cmp	 DWORD PTR [esi+976], 2
  00029	8b 1d 00 00 00
	00		 mov	 ebx, DWORD PTR __imp_?GetSingleton@ioFrameTimer@@SAAAV1@XZ
  0002f	89 45 0c	 mov	 DWORD PTR _dwGlobalTimeGap$[ebp], eax
  00032	0f 84 89 00 00
	00		 je	 $LN12@ApplyStart

; 98   : 	{
; 99   : 		if( dwGlobalTimeGap > dwGapTime )

  00038	8b 7d 10	 mov	 edi, DWORD PTR _dwGapTime$[ebp]
  0003b	3b c7		 cmp	 eax, edi
  0003d	76 07		 jbe	 SHORT $LN2@ApplyStart

; 100  : 			return false;

  0003f	32 c0		 xor	 al, al
  00041	e9 c3 00 00 00	 jmp	 $LN4@ApplyStart
$LN2@ApplyStart:

; 101  : 
; 102  : 		dwGapTime -= dwGlobalTimeGap;
; 103  : 		m_dwBuffEndTime = FRAMEGETTIME() + dwGapTime;

  00046	ff d3		 call	 ebx
  00048	8b c8		 mov	 ecx, eax
  0004a	ff 15 00 00 00
	00		 call	 DWORD PTR __imp_?GetLoopSec@ioFrameTimer@@QBEKXZ
  00050	2b 7d 0c	 sub	 edi, DWORD PTR _dwGlobalTimeGap$[ebp]
  00053	8d 8e 9c 03 00
	00		 lea	 ecx, DWORD PTR [esi+924]
  00059	03 c7		 add	 eax, edi
  0005b	89 45 0c	 mov	 DWORD PTR _value$533439[ebp], eax
  0005e	8d 45 0c	 lea	 eax, DWORD PTR _value$533439[ebp]
  00061	50		 push	 eax
  00062	e8 00 00 00 00	 call	 ?EncryptValueToPool@?$CEncrypt@K@@AAEXPBD@Z ; CEncrypt<unsigned long>::EncryptValueToPool

; 104  : 
; 105  : 		DWORD dwCurDuration = GetBuffDuration() * pOwner->GetMemberBalanceRateForStateProtectionTime( GetTypeID() );

  00067	ff b6 cc 03 00
	00		 push	 DWORD PTR [esi+972]
  0006d	8b 4d 08	 mov	 ecx, DWORD PTR _pOwner$[ebp]
  00070	e8 00 00 00 00	 call	 ?GetMemberBalanceRateForStateProtectionTime@ioBaseChar@@QAEMH@Z ; ioBaseChar::GetMemberBalanceRateForStateProtectionTime
  00075	dd 5d f8	 fstp	 QWORD PTR tv140[ebp]
  00078	8b ce		 mov	 ecx, esi
  0007a	e8 00 00 00 00	 call	 ?GetBuffDuration@ioBuff@@IAEKXZ ; ioBuff::GetBuffDuration
  0007f	89 45 08	 mov	 DWORD PTR tv248[ebp], eax
  00082	db 45 08	 fild	 DWORD PTR tv248[ebp]
  00085	85 c0		 test	 eax, eax
  00087	79 06		 jns	 SHORT $LN18@ApplyStart
  00089	d8 05 00 00 00
	00		 fadd	 DWORD PTR __real@4f800000
$LN18@ApplyStart:
  0008f	dc 4d f8	 fmul	 QWORD PTR tv140[ebp]
  00092	e8 00 00 00 00	 call	 __ftol2
  00097	89 45 0c	 mov	 DWORD PTR _dwCurDuration$531828[ebp], eax

; 106  : 		m_dwBuffStartTime = m_dwBuffEndTime - dwCurDuration;

  0009a	8d 45 08	 lea	 eax, DWORD PTR _value$533448[ebp]
  0009d	50		 push	 eax
  0009e	8d 8e 9c 03 00
	00		 lea	 ecx, DWORD PTR [esi+924]
  000a4	e8 00 00 00 00	 call	 ?DecryptValueToPool@?$CEncrypt@K@@QAEXPAK@Z ; CEncrypt<unsigned long>::DecryptValueToPool
  000a9	8b 45 08	 mov	 eax, DWORD PTR _value$533448[ebp]
  000ac	2b 45 0c	 sub	 eax, DWORD PTR _dwCurDuration$531828[ebp]
  000af	8d 8e 6c 03 00
	00		 lea	 ecx, DWORD PTR [esi+876]
  000b5	89 45 08	 mov	 DWORD PTR _value$533452[ebp], eax
  000b8	8d 45 08	 lea	 eax, DWORD PTR _value$533452[ebp]
  000bb	50		 push	 eax
  000bc	e8 00 00 00 00	 call	 ?EncryptValueToPool@?$CEncrypt@K@@AAEXPBD@Z ; CEncrypt<unsigned long>::EncryptValueToPool
$LN12@ApplyStart:

; 107  : 	}
; 108  : 
; 109  : 	m_dwCheckTime = FRAMEGETTIME();

  000c1	ff d3		 call	 ebx
  000c3	8b c8		 mov	 ecx, eax
  000c5	ff 15 00 00 00
	00		 call	 DWORD PTR __imp_?GetLoopSec@ioFrameTimer@@QBEKXZ
  000cb	89 45 08	 mov	 DWORD PTR _value$533457[ebp], eax
  000ce	8d 45 08	 lea	 eax, DWORD PTR _value$533457[ebp]
  000d1	50		 push	 eax
  000d2	8d 8e 3c 03 00
	00		 lea	 ecx, DWORD PTR [esi+828]
  000d8	e8 00 00 00 00	 call	 ?EncryptValueToPool@?$CEncrypt@K@@AAEXPBD@Z ; CEncrypt<unsigned long>::EncryptValueToPool

; 110  : 	m_bLive = true;

  000dd	8d 45 0b	 lea	 eax, DWORD PTR _value$533462[ebp]
  000e0	50		 push	 eax
  000e1	8d 8e 70 07 00
	00		 lea	 ecx, DWORD PTR [esi+1904]
  000e7	c6 45 0b 01	 mov	 BYTE PTR _value$533462[ebp], 1
  000eb	e8 00 00 00 00	 call	 ?EncryptValueToPool@?$CEncrypt@_N@@AAEXPBD@Z ; CEncrypt<bool>::EncryptValueToPool

; 111  : 
; 112  : 	m_dwCurObjectItem = 0;

  000f0	83 a6 80 09 00
	00 00		 and	 DWORD PTR [esi+2432], 0

; 113  : 	if( m_iOperationType != OT_DELAY )

  000f7	83 be d0 03 00
	00 03		 cmp	 DWORD PTR [esi+976], 3
  000fe	74 07		 je	 SHORT $LN1@ApplyStart

; 114  : 	{
; 115  : 		SetAction();

  00100	8b 06		 mov	 eax, DWORD PTR [esi]
  00102	8b ce		 mov	 ecx, esi
  00104	ff 50 34	 call	 DWORD PTR [eax+52]
$LN1@ApplyStart:

; 116  : 	}
; 117  : 
; 118  : 	return true;

  00107	b0 01		 mov	 al, 1
$LN4@ApplyStart:
  00109	5f		 pop	 edi
  0010a	5e		 pop	 esi
  0010b	5b		 pop	 ebx

; 119  : }

  0010c	c9		 leave
  0010d	c2 0c 00	 ret	 12			; 0000000cH
?ApplyStartBuff@ioTargetEquipObjectItemBuff@@UAE_NPAVioBaseChar@@KK@Z ENDP ; ioTargetEquipObjectItemBuff::ApplyStartBuff
_TEXT	ENDS
PUBLIC	__real@00000000
PUBLIC	?SetExtraDurationByGrowth@ioTargetEquipObjectItemBuff@@UAEXM@Z ; ioTargetEquipObjectItemBuff::SetExtraDurationByGrowth
;	COMDAT __real@00000000
; File d:\lost saga for developer\youtube\tutorial\source\src\lsclient\encryptvalue.h
CONST	SEGMENT
__real@00000000 DD 000000000r			; 0
; Function compile flags: /Ogsp
; File d:\lost saga for developer\youtube\tutorial\source\src\lsclient\iotargetequipobjectitembuff.cpp
CONST	ENDS
;	COMDAT ?SetExtraDurationByGrowth@ioTargetEquipObjectItemBuff@@UAEXM@Z
_TEXT	SEGMENT
tv129 = -8						; size = 8
tv206 = 8						; size = 4
_value$533477 = 8					; size = 4
_value$533473 = 8					; size = 4
_fDuration$ = 8						; size = 4
?SetExtraDurationByGrowth@ioTargetEquipObjectItemBuff@@UAEXM@Z PROC ; ioTargetEquipObjectItemBuff::SetExtraDurationByGrowth, COMDAT
; _this$ = ecx

; 122  : {

  00000	55		 push	 ebp
  00001	8b ec		 mov	 ebp, esp
  00003	51		 push	 ecx
  00004	51		 push	 ecx
  00005	56		 push	 esi
  00006	8b f1		 mov	 esi, ecx

; 123  : 	m_dwExtraDurationByGrowth = 0;

  00008	83 a6 60 05 00
	00 00		 and	 DWORD PTR [esi+1376], 0

; 124  : 
; 125  : 	if( m_bDisableGrowth )

  0000f	80 be fc 04 00
	00 00		 cmp	 BYTE PTR [esi+1276], 0
  00016	0f 85 90 00 00
	00		 jne	 $LN10@SetExtraDu

; 126  : 		return;
; 127  : 
; 128  : 	if( GetBuffDuration() == 0 ) return;

  0001c	e8 00 00 00 00	 call	 ?GetBuffDuration@ioBuff@@IAEKXZ ; ioBuff::GetBuffDuration
  00021	85 c0		 test	 eax, eax
  00023	0f 84 83 00 00
	00		 je	 $LN10@SetExtraDu

; 129  : 	if( fDuration == 0.0f ) return;

  00029	f3 0f 10 45 08	 movss	 xmm0, DWORD PTR _fDuration$[ebp]
  0002e	0f 2e 05 00 00
	00 00		 ucomiss xmm0, DWORD PTR __real@00000000
  00035	9f		 lahf
  00036	f6 c4 44	 test	 ah, 68			; 00000044H
  00039	7b 71		 jnp	 SHORT $LN10@SetExtraDu

; 130  : 
; 131  : 	m_dwExtraDurationByGrowth = (DWORD)fDuration;

  0003b	d9 45 08	 fld	 DWORD PTR _fDuration$[ebp]
  0003e	57		 push	 edi
  0003f	e8 00 00 00 00	 call	 __ftol2

; 132  : 
; 133  : 	DWORD dwCurDuration = GetBuffDuration() * m_pOwner->GetMemberBalanceRateForStateProtectionTime( GetTypeID() );

  00044	ff b6 cc 03 00
	00		 push	 DWORD PTR [esi+972]
  0004a	8b 8e 74 02 00
	00		 mov	 ecx, DWORD PTR [esi+628]
  00050	89 86 60 05 00
	00		 mov	 DWORD PTR [esi+1376], eax
  00056	e8 00 00 00 00	 call	 ?GetMemberBalanceRateForStateProtectionTime@ioBaseChar@@QAEMH@Z ; ioBaseChar::GetMemberBalanceRateForStateProtectionTime
  0005b	dd 5d f8	 fstp	 QWORD PTR tv129[ebp]
  0005e	8b ce		 mov	 ecx, esi
  00060	e8 00 00 00 00	 call	 ?GetBuffDuration@ioBuff@@IAEKXZ ; ioBuff::GetBuffDuration
  00065	89 45 08	 mov	 DWORD PTR tv206[ebp], eax
  00068	db 45 08	 fild	 DWORD PTR tv206[ebp]
  0006b	85 c0		 test	 eax, eax
  0006d	79 06		 jns	 SHORT $LN12@SetExtraDu
  0006f	d8 05 00 00 00
	00		 fadd	 DWORD PTR __real@4f800000
$LN12@SetExtraDu:
  00075	dc 4d f8	 fmul	 QWORD PTR tv129[ebp]
  00078	e8 00 00 00 00	 call	 __ftol2
  0007d	8b f8		 mov	 edi, eax

; 134  : 	m_dwBuffEndTime = m_dwBuffStartTime + dwCurDuration + m_dwExtraDurationByGrowth;

  0007f	8d 45 08	 lea	 eax, DWORD PTR _value$533473[ebp]
  00082	50		 push	 eax
  00083	8d 8e 6c 03 00
	00		 lea	 ecx, DWORD PTR [esi+876]
  00089	e8 00 00 00 00	 call	 ?DecryptValueToPool@?$CEncrypt@K@@QAEXPAK@Z ; CEncrypt<unsigned long>::DecryptValueToPool
  0008e	8b 45 08	 mov	 eax, DWORD PTR _value$533473[ebp]
  00091	03 c7		 add	 eax, edi
  00093	03 86 60 05 00
	00		 add	 eax, DWORD PTR [esi+1376]
  00099	8d 8e 9c 03 00
	00		 lea	 ecx, DWORD PTR [esi+924]
  0009f	89 45 08	 mov	 DWORD PTR _value$533477[ebp], eax
  000a2	8d 45 08	 lea	 eax, DWORD PTR _value$533477[ebp]
  000a5	50		 push	 eax
  000a6	e8 00 00 00 00	 call	 ?EncryptValueToPool@?$CEncrypt@K@@AAEXPBD@Z ; CEncrypt<unsigned long>::EncryptValueToPool
  000ab	5f		 pop	 edi
$LN10@SetExtraDu:
  000ac	5e		 pop	 esi

; 135  : }

  000ad	c9		 leave
  000ae	c2 04 00	 ret	 4
?SetExtraDurationByGrowth@ioTargetEquipObjectItemBuff@@UAEXM@Z ENDP ; ioTargetEquipObjectItemBuff::SetExtraDurationByGrowth
_TEXT	ENDS
PUBLIC	?SetAction@ioTargetEquipObjectItemBuff@@MAEXXZ	; ioTargetEquipObjectItemBuff::SetAction
EXTRN	?PlaySoundA@ioGameEntity@@QAEKABVioHashString@@_N@Z:PROC ; ioGameEntity::PlaySoundA
EXTRN	__imp_?IsEmpty@ioHashString@@QBE_NXZ:PROC
EXTRN	?AttachEffect@ioBaseChar@@QAEPAVioEffect@@ABVioHashString@@PAVioEntityEvent@@_N@Z:PROC ; ioBaseChar::AttachEffect
EXTRN	?GetEffectEventOwner@ioBuff@@IAEPAVioBaseChar@@XZ:PROC ; ioBuff::GetEffectEventOwner
EXTRN	?CheckBuffDesc@ioBuff@@IAEXXZ:PROC		; ioBuff::CheckBuffDesc
EXTRN	?CheckChangeColor@ioBuff@@IAEX_N@Z:PROC		; ioBuff::CheckChangeColor
EXTRN	?CheckChangeSkill@ioBuff@@IAEX_N@Z:PROC		; ioBuff::CheckChangeSkill
EXTRN	?CheckInvisibleHelmet@ioBuff@@IAEX_N@Z:PROC	; ioBuff::CheckInvisibleHelmet
EXTRN	?CheckInvisibleCloak@ioBuff@@IAEX_N@Z:PROC	; ioBuff::CheckInvisibleCloak
EXTRN	?CheckInvisibleWeapon@ioBuff@@IAEX_N@Z:PROC	; ioBuff::CheckInvisibleWeapon
; Function compile flags: /Ogsp
;	COMDAT ?SetAction@ioTargetEquipObjectItemBuff@@MAEXXZ
_TEXT	SEGMENT
_pStage$ = -8						; size = 4
_value$533487 = -1					; size = 1
?SetAction@ioTargetEquipObjectItemBuff@@MAEXXZ PROC	; ioTargetEquipObjectItemBuff::SetAction, COMDAT
; _this$ = ecx

; 138  : {

  00000	55		 push	 ebp
  00001	8b ec		 mov	 ebp, esp
  00003	51		 push	 ecx
  00004	51		 push	 ecx
  00005	56		 push	 esi
  00006	57		 push	 edi

; 139  : 	CheckInvisibleWeapon( false );

  00007	33 ff		 xor	 edi, edi
  00009	57		 push	 edi
  0000a	8b f1		 mov	 esi, ecx
  0000c	e8 00 00 00 00	 call	 ?CheckInvisibleWeapon@ioBuff@@IAEX_N@Z ; ioBuff::CheckInvisibleWeapon

; 140  : 	CheckInvisibleCloak( false );

  00011	57		 push	 edi
  00012	8b ce		 mov	 ecx, esi
  00014	e8 00 00 00 00	 call	 ?CheckInvisibleCloak@ioBuff@@IAEX_N@Z ; ioBuff::CheckInvisibleCloak

; 141  : 	CheckInvisibleHelmet( false );

  00019	57		 push	 edi
  0001a	8b ce		 mov	 ecx, esi
  0001c	e8 00 00 00 00	 call	 ?CheckInvisibleHelmet@ioBuff@@IAEX_N@Z ; ioBuff::CheckInvisibleHelmet

; 142  : 
; 143  : 	CheckChangeSkill( true );

  00021	6a 01		 push	 1
  00023	8b ce		 mov	 ecx, esi
  00025	e8 00 00 00 00	 call	 ?CheckChangeSkill@ioBuff@@IAEX_N@Z ; ioBuff::CheckChangeSkill

; 144  : 
; 145  : 	CheckChangeColor( true );

  0002a	6a 01		 push	 1
  0002c	8b ce		 mov	 ecx, esi
  0002e	e8 00 00 00 00	 call	 ?CheckChangeColor@ioBuff@@IAEX_N@Z ; ioBuff::CheckChangeColor

; 146  : 	CheckBuffDesc();

  00033	8b ce		 mov	 ecx, esi
  00035	e8 00 00 00 00	 call	 ?CheckBuffDesc@ioBuff@@IAEXXZ ; ioBuff::CheckBuffDesc

; 147  : 	
; 148  : 	ioPlayStage *pStage = g_ItemMaker.GetPlayStage();

  0003a	e8 00 00 00 00	 call	 ?GetSingleton@ioItemMaker@@SAAAV1@XZ ; ioItemMaker::GetSingleton
  0003f	8b c8		 mov	 ecx, eax
  00041	e8 00 00 00 00	 call	 ?GetPlayStage@ioItemMaker@@QAEPAVioPlayStage@@XZ ; ioItemMaker::GetPlayStage

; 149  : 	ioBaseChar *pOwner = GetOwner();

  00046	8b ce		 mov	 ecx, esi
  00048	89 45 f8	 mov	 DWORD PTR _pStage$[ebp], eax
  0004b	e8 00 00 00 00	 call	 ?GetOwner@ioBuff@@QAEPAVioBaseChar@@XZ ; ioBuff::GetOwner

; 150  : 
; 151  : 	if( pOwner && pStage )

  00050	3b c7		 cmp	 eax, edi
  00052	74 10		 je	 SHORT $LN2@SetAction
  00054	39 7d f8	 cmp	 DWORD PTR _pStage$[ebp], edi
  00057	74 0b		 je	 SHORT $LN2@SetAction

; 152  : 		SetObjectItemEquip( pStage, pOwner );

  00059	50		 push	 eax
  0005a	ff 75 f8	 push	 DWORD PTR _pStage$[ebp]
  0005d	8b ce		 mov	 ecx, esi
  0005f	e8 00 00 00 00	 call	 ?SetObjectItemEquip@ioTargetEquipObjectItemBuff@@IAEXPAVioPlayStage@@PAVioBaseChar@@@Z ; ioTargetEquipObjectItemBuff::SetObjectItemEquip
$LN2@SetAction:

; 153  : 
; 154  : 	m_pOwner->AttachEffect( m_BuffEffect, GetEffectEventOwner() );

  00064	6a 01		 push	 1
  00066	8b ce		 mov	 ecx, esi
  00068	e8 00 00 00 00	 call	 ?GetEffectEventOwner@ioBuff@@IAEPAVioBaseChar@@XZ ; ioBuff::GetEffectEventOwner
  0006d	8b 8e 74 02 00
	00		 mov	 ecx, DWORD PTR [esi+628]
  00073	50		 push	 eax
  00074	8d 86 7c 05 00
	00		 lea	 eax, DWORD PTR [esi+1404]
  0007a	50		 push	 eax
  0007b	e8 00 00 00 00	 call	 ?AttachEffect@ioBaseChar@@QAEPAVioEffect@@ABVioHashString@@PAVioEntityEvent@@_N@Z ; ioBaseChar::AttachEffect

; 155  : 
; 156  : 	if( !m_LoopSound.IsEmpty() )

  00080	8d be fc 05 00
	00		 lea	 edi, DWORD PTR [esi+1532]
  00086	8b cf		 mov	 ecx, edi
  00088	ff 15 00 00 00
	00		 call	 DWORD PTR __imp_?IsEmpty@ioHashString@@QBE_NXZ
  0008e	84 c0		 test	 al, al
  00090	75 27		 jne	 SHORT $LN5@SetAction

; 157  : 	{
; 158  : 		m_LoopSoundID = m_pOwner->PlaySound( m_LoopSound, true );

  00092	8b 8e 74 02 00
	00		 mov	 ecx, DWORD PTR [esi+628]
  00098	6a 01		 push	 1
  0009a	57		 push	 edi
  0009b	e8 00 00 00 00	 call	 ?PlaySoundA@ioGameEntity@@QAEKABVioHashString@@_N@Z ; ioGameEntity::PlaySoundA
  000a0	89 86 0c 06 00
	00		 mov	 DWORD PTR [esi+1548], eax

; 159  : 		m_bLoopSoundPlayed = true;

  000a6	8d 45 ff	 lea	 eax, DWORD PTR _value$533487[ebp]
  000a9	50		 push	 eax
  000aa	8d 8e 60 08 00
	00		 lea	 ecx, DWORD PTR [esi+2144]
  000b0	c6 45 ff 01	 mov	 BYTE PTR _value$533487[ebp], 1
  000b4	e8 00 00 00 00	 call	 ?EncryptValueToPool@?$CEncrypt@_N@@AAEXPBD@Z ; CEncrypt<bool>::EncryptValueToPool
$LN5@SetAction:

; 160  : 	}
; 161  : 
; 162  : 	m_bBuffStart = true;

  000b9	5f		 pop	 edi
  000ba	c6 86 d5 02 00
	00 01		 mov	 BYTE PTR [esi+725], 1
  000c1	5e		 pop	 esi

; 163  : }

  000c2	c9		 leave
  000c3	c3		 ret	 0
?SetAction@ioTargetEquipObjectItemBuff@@MAEXXZ ENDP	; ioTargetEquipObjectItemBuff::SetAction
_TEXT	ENDS
PUBLIC	?ProcessDelay@ioTargetEquipObjectItemBuff@@MAEXM@Z ; ioTargetEquipObjectItemBuff::ProcessDelay
EXTRN	?CheckCallingProcess@ioBuff@@IAEXXZ:PROC	; ioBuff::CheckCallingProcess
EXTRN	?CheckEnableDelayState@ioBuff@@IAE_NXZ:PROC	; ioBuff::CheckEnableDelayState
; Function compile flags: /Ogsp
;	COMDAT ?ProcessDelay@ioTargetEquipObjectItemBuff@@MAEXM@Z
_TEXT	SEGMENT
_value$533501 = -4					; size = 4
_value$533497 = -4					; size = 4
_value$533493 = -4					; size = 4
_fTimePerSec$ = 8					; size = 4
?ProcessDelay@ioTargetEquipObjectItemBuff@@MAEXM@Z PROC	; ioTargetEquipObjectItemBuff::ProcessDelay, COMDAT
; _this$ = ecx

; 206  : {

  00000	55		 push	 ebp
  00001	8b ec		 mov	 ebp, esp
  00003	51		 push	 ecx
  00004	56		 push	 esi
  00005	57		 push	 edi
  00006	8b f1		 mov	 esi, ecx

; 207  : 	DWORD dwCurTime = FRAMEGETTIME();

  00008	ff 15 00 00 00
	00		 call	 DWORD PTR __imp_?GetSingleton@ioFrameTimer@@SAAAV1@XZ
  0000e	8b c8		 mov	 ecx, eax
  00010	ff 15 00 00 00
	00		 call	 DWORD PTR __imp_?GetLoopSec@ioFrameTimer@@QBEKXZ

; 208  : 
; 209  : 	if( CheckEnableDelayState() )

  00016	8b ce		 mov	 ecx, esi
  00018	8b f8		 mov	 edi, eax
  0001a	e8 00 00 00 00	 call	 ?CheckEnableDelayState@ioBuff@@IAE_NXZ ; ioBuff::CheckEnableDelayState
  0001f	84 c0		 test	 al, al
  00021	75 76		 jne	 SHORT $LN6@ProcessDel

; 210  : 		return;
; 211  : 
; 212  : 	if( GetBuffDuration() == 0 )

  00023	8b ce		 mov	 ecx, esi
  00025	e8 00 00 00 00	 call	 ?GetBuffDuration@ioBuff@@IAEKXZ ; ioBuff::GetBuffDuration
  0002a	85 c0		 test	 eax, eax
  0002c	75 25		 jne	 SHORT $LN4@ProcessDel

; 213  : 	{
; 214  : 		if( !m_bBuffStart && m_dwBuffStartTime < dwCurTime )

  0002e	38 86 d5 02 00
	00		 cmp	 BYTE PTR [esi+725], al
  00034	75 63		 jne	 SHORT $LN6@ProcessDel
  00036	8d 45 fc	 lea	 eax, DWORD PTR _value$533493[ebp]
  00039	50		 push	 eax
  0003a	8d 8e 6c 03 00
	00		 lea	 ecx, DWORD PTR [esi+876]
  00040	e8 00 00 00 00	 call	 ?DecryptValueToPool@?$CEncrypt@K@@QAEXPAK@Z ; CEncrypt<unsigned long>::DecryptValueToPool
  00045	39 7d fc	 cmp	 DWORD PTR _value$533493[ebp], edi
  00048	73 4f		 jae	 SHORT $LN6@ProcessDel

; 215  : 		{
; 216  : 			SetAction();

  0004a	8b 06		 mov	 eax, DWORD PTR [esi]
  0004c	8b ce		 mov	 ecx, esi
  0004e	ff 50 34	 call	 DWORD PTR [eax+52]

; 217  : 		}
; 218  : 		return;

  00051	eb 46		 jmp	 SHORT $LN6@ProcessDel
$LN4@ProcessDel:

; 219  : 	}
; 220  : 
; 221  : 	if( !m_bBuffStart && m_dwBuffStartTime < dwCurTime )

  00053	80 be d5 02 00
	00 00		 cmp	 BYTE PTR [esi+725], 0
  0005a	75 1b		 jne	 SHORT $LN2@ProcessDel
  0005c	8d 45 fc	 lea	 eax, DWORD PTR _value$533497[ebp]
  0005f	50		 push	 eax
  00060	8d 8e 6c 03 00
	00		 lea	 ecx, DWORD PTR [esi+876]
  00066	e8 00 00 00 00	 call	 ?DecryptValueToPool@?$CEncrypt@K@@QAEXPAK@Z ; CEncrypt<unsigned long>::DecryptValueToPool
  0006b	39 7d fc	 cmp	 DWORD PTR _value$533497[ebp], edi
  0006e	73 07		 jae	 SHORT $LN2@ProcessDel

; 222  : 	{
; 223  : 		SetAction();

  00070	8b 06		 mov	 eax, DWORD PTR [esi]
  00072	8b ce		 mov	 ecx, esi
  00074	ff 50 34	 call	 DWORD PTR [eax+52]
$LN2@ProcessDel:

; 224  : 	}
; 225  : 
; 226  : 	if( m_dwBuffEndTime <= dwCurTime )

  00077	8d 45 fc	 lea	 eax, DWORD PTR _value$533501[ebp]
  0007a	50		 push	 eax
  0007b	8d 8e 9c 03 00
	00		 lea	 ecx, DWORD PTR [esi+924]
  00081	e8 00 00 00 00	 call	 ?DecryptValueToPool@?$CEncrypt@K@@QAEXPAK@Z ; CEncrypt<unsigned long>::DecryptValueToPool

; 227  : 	{		
; 228  : 		SetReserveEndBuff();

  00086	8b ce		 mov	 ecx, esi
  00088	39 7d fc	 cmp	 DWORD PTR _value$533501[ebp], edi
  0008b	77 07		 ja	 SHORT $LN1@ProcessDel
  0008d	e8 00 00 00 00	 call	 ?SetReserveEndBuff@ioBuff@@QAEXXZ ; ioBuff::SetReserveEndBuff

; 229  : 		return;

  00092	eb 05		 jmp	 SHORT $LN6@ProcessDel
$LN1@ProcessDel:

; 230  : 	}
; 231  : 
; 232  : 	CheckCallingProcess();

  00094	e8 00 00 00 00	 call	 ?CheckCallingProcess@ioBuff@@IAEXXZ ; ioBuff::CheckCallingProcess
$LN6@ProcessDel:
  00099	5f		 pop	 edi
  0009a	5e		 pop	 esi

; 233  : }

  0009b	c9		 leave
  0009c	c2 04 00	 ret	 4
?ProcessDelay@ioTargetEquipObjectItemBuff@@MAEXM@Z ENDP	; ioTargetEquipObjectItemBuff::ProcessDelay
_TEXT	ENDS
PUBLIC	?ProcessActive@ioTargetEquipObjectItemBuff@@IAEXM@Z ; ioTargetEquipObjectItemBuff::ProcessActive
EXTRN	?GetBaseChar@ioPlayStage@@QAEPAVioBaseChar@@ABVioHashString@@@Z:PROC ; ioPlayStage::GetBaseChar
; Function compile flags: /Ogsp
;	COMDAT ?ProcessActive@ioTargetEquipObjectItemBuff@@IAEXM@Z
_TEXT	SEGMENT
_value$533509 = -4					; size = 4
_pOwner$ = -4						; size = 4
_fTimePerSec$ = 8					; size = 4
?ProcessActive@ioTargetEquipObjectItemBuff@@IAEXM@Z PROC ; ioTargetEquipObjectItemBuff::ProcessActive, COMDAT
; _this$ = ecx

; 236  : {

  00000	55		 push	 ebp
  00001	8b ec		 mov	 ebp, esp
  00003	51		 push	 ecx
  00004	56		 push	 esi
  00005	8b f1		 mov	 esi, ecx

; 237  : 
; 238  : 	if( CheckEnableDelayState() )

  00007	e8 00 00 00 00	 call	 ?CheckEnableDelayState@ioBuff@@IAE_NXZ ; ioBuff::CheckEnableDelayState
  0000c	84 c0		 test	 al, al
  0000e	75 66		 jne	 SHORT $LN1@ProcessAct

; 239  : 		return;
; 240  : 
; 241  : 	CheckCallingProcess();

  00010	8b ce		 mov	 ecx, esi
  00012	e8 00 00 00 00	 call	 ?CheckCallingProcess@ioBuff@@IAEXXZ ; ioBuff::CheckCallingProcess

; 242  : 
; 243  : 	if( GetBuffDuration() == 0 )

  00017	8b ce		 mov	 ecx, esi
  00019	e8 00 00 00 00	 call	 ?GetBuffDuration@ioBuff@@IAEKXZ ; ioBuff::GetBuffDuration
  0001e	85 c0		 test	 eax, eax
  00020	74 54		 je	 SHORT $LN1@ProcessAct

; 244  : 		return;	
; 245  : 
; 246  : 	ioPlayStage *pStage = g_ItemMaker.GetPlayStage();

  00022	e8 00 00 00 00	 call	 ?GetSingleton@ioItemMaker@@SAAAV1@XZ ; ioItemMaker::GetSingleton
  00027	8b c8		 mov	 ecx, eax
  00029	e8 00 00 00 00	 call	 ?GetPlayStage@ioItemMaker@@QAEPAVioPlayStage@@XZ ; ioItemMaker::GetPlayStage

; 247  : 	ioBaseChar *pOwner;
; 248  : 	
; 249  : 
; 250  : 	if( pStage )

  0002e	85 c0		 test	 eax, eax
  00030	74 11		 je	 SHORT $LN10@ProcessAct

; 251  : 		pOwner = pStage->GetBaseChar( m_OwnerName );

  00032	8d 8e 78 02 00
	00		 lea	 ecx, DWORD PTR [esi+632]
  00038	51		 push	 ecx
  00039	8b c8		 mov	 ecx, eax
  0003b	e8 00 00 00 00	 call	 ?GetBaseChar@ioPlayStage@@QAEPAVioBaseChar@@ABVioHashString@@@Z ; ioPlayStage::GetBaseChar
  00040	89 45 fc	 mov	 DWORD PTR _pOwner$[ebp], eax
$LN10@ProcessAct:

; 252  : 
; 253  : 	if( !pOwner )

  00043	83 7d fc 00	 cmp	 DWORD PTR _pOwner$[ebp], 0
  00047	74 2d		 je	 SHORT $LN1@ProcessAct

; 254  : 		return;
; 255  : 
; 256  : 	if( m_dwBuffEndTime <= FRAMEGETTIME() )

  00049	57		 push	 edi
  0004a	ff 15 00 00 00
	00		 call	 DWORD PTR __imp_?GetSingleton@ioFrameTimer@@SAAAV1@XZ
  00050	8b c8		 mov	 ecx, eax
  00052	ff 15 00 00 00
	00		 call	 DWORD PTR __imp_?GetLoopSec@ioFrameTimer@@QBEKXZ
  00058	8b f8		 mov	 edi, eax
  0005a	8d 45 fc	 lea	 eax, DWORD PTR _value$533509[ebp]
  0005d	50		 push	 eax
  0005e	8d 8e 9c 03 00
	00		 lea	 ecx, DWORD PTR [esi+924]
  00064	e8 00 00 00 00	 call	 ?DecryptValueToPool@?$CEncrypt@K@@QAEXPAK@Z ; CEncrypt<unsigned long>::DecryptValueToPool
  00069	39 7d fc	 cmp	 DWORD PTR _value$533509[ebp], edi
  0006c	5f		 pop	 edi
  0006d	77 07		 ja	 SHORT $LN1@ProcessAct

; 257  : 	{		
; 258  : 		SetReserveEndBuff();

  0006f	8b ce		 mov	 ecx, esi
  00071	e8 00 00 00 00	 call	 ?SetReserveEndBuff@ioBuff@@QAEXXZ ; ioBuff::SetReserveEndBuff
$LN1@ProcessAct:
  00076	5e		 pop	 esi

; 259  : 		return;
; 260  : 	}
; 261  : }

  00077	c9		 leave
  00078	c2 04 00	 ret	 4
?ProcessActive@ioTargetEquipObjectItemBuff@@IAEXM@Z ENDP ; ioTargetEquipObjectItemBuff::ProcessActive
_TEXT	ENDS
PUBLIC	?_Buy@?$vector@KV?$allocator@K@std@@@std@@IAE_NI@Z ; std::vector<unsigned long,std::allocator<unsigned long> >::_Buy
; Function compile flags: /Ogsp
; File c:\program files (x86)\microsoft visual studio 10.0\vc\include\vector
;	COMDAT ?_Buy@?$vector@KV?$allocator@K@std@@@std@@IAE_NI@Z
_TEXT	SEGMENT
__Capacity$ = 8						; size = 4
?_Buy@?$vector@KV?$allocator@K@std@@@std@@IAE_NI@Z PROC	; std::vector<unsigned long,std::allocator<unsigned long> >::_Buy, COMDAT
; _this$ = ecx

; 1250 : 		{	// allocate array with _Capacity elements

  00000	55		 push	 ebp
  00001	8b ec		 mov	 ebp, esp
  00003	56		 push	 esi

; 1251 : 		this->_Myfirst = 0;

  00004	33 c0		 xor	 eax, eax
  00006	57		 push	 edi

; 1252 : 		this->_Mylast = 0;
; 1253 : 		this->_Myend = 0;
; 1254 : 
; 1255 : 		if (_Capacity == 0)

  00007	8b 7d 08	 mov	 edi, DWORD PTR __Capacity$[ebp]
  0000a	8b f1		 mov	 esi, ecx
  0000c	89 06		 mov	 DWORD PTR [esi], eax
  0000e	89 46 04	 mov	 DWORD PTR [esi+4], eax
  00011	89 46 08	 mov	 DWORD PTR [esi+8], eax
  00014	3b f8		 cmp	 edi, eax
  00016	75 04		 jne	 SHORT $LN4@Buy

; 1256 : 			return (false);

  00018	32 c0		 xor	 al, al
  0001a	eb 29		 jmp	 SHORT $LN5@Buy
$LN4@Buy:

; 1257 : 		else if (max_size() < _Capacity)

  0001c	81 ff ff ff ff
	3f		 cmp	 edi, 1073741823		; 3fffffffH
  00022	76 0b		 jbe	 SHORT $LN2@Buy

; 1258 : 			_Xlen();	// result too long

  00024	68 00 00 00 00	 push	 OFFSET ??_C@_0BD@OLBABOEK@vector?$DMT?$DO?5too?5long?$AA@
  00029	ff 15 00 00 00
	00		 call	 DWORD PTR __imp_?_Xlength_error@std@@YAXPBD@Z
$LN19@Buy:
$LN2@Buy:

; 1259 : 		else
; 1260 : 			{	// nonempty array, allocate storage
; 1261 : 			this->_Myfirst = this->_Alval.allocate(_Capacity);

  0002f	50		 push	 eax
  00030	57		 push	 edi
  00031	e8 00 00 00 00	 call	 ??$_Allocate@K@std@@YAPAKIPAK@Z ; std::_Allocate<unsigned long>
  00036	89 06		 mov	 DWORD PTR [esi], eax

; 1262 : 			this->_Mylast = this->_Myfirst;

  00038	89 46 04	 mov	 DWORD PTR [esi+4], eax

; 1263 : 			this->_Myend = this->_Myfirst + _Capacity;

  0003b	8d 04 b8	 lea	 eax, DWORD PTR [eax+edi*4]
  0003e	59		 pop	 ecx
  0003f	89 46 08	 mov	 DWORD PTR [esi+8], eax
  00042	59		 pop	 ecx

; 1264 : 			}
; 1265 : 		return (true);

  00043	b0 01		 mov	 al, 1
$LN5@Buy:
  00045	5f		 pop	 edi
  00046	5e		 pop	 esi

; 1266 : 		}

  00047	5d		 pop	 ebp
  00048	c2 04 00	 ret	 4
$LN18@Buy:
?_Buy@?$vector@KV?$allocator@K@std@@@std@@IAE_NI@Z ENDP	; std::vector<unsigned long,std::allocator<unsigned long> >::_Buy
_TEXT	ENDS
PUBLIC	??$_Dest_val@V?$allocator@K@std@@K@std@@YAXAAV?$allocator@K@0@PAK@Z ; std::_Dest_val<std::allocator<unsigned long>,unsigned long>
; Function compile flags: /Ogsp
; File c:\program files (x86)\microsoft visual studio 10.0\vc\include\xmemory
;	COMDAT ??$_Dest_val@V?$allocator@K@std@@K@std@@YAXAAV?$allocator@K@0@PAK@Z
_TEXT	SEGMENT
__Alval$ = 8						; size = 4
__Pdest$ = 12						; size = 4
??$_Dest_val@V?$allocator@K@std@@K@std@@YAXAAV?$allocator@K@0@PAK@Z PROC ; std::_Dest_val<std::allocator<unsigned long>,unsigned long>, COMDAT

; 287  : 	_Alval.destroy(_Pdest);
; 288  : 	}

  00000	c3		 ret	 0
??$_Dest_val@V?$allocator@K@std@@K@std@@YAXAAV?$allocator@K@0@PAK@Z ENDP ; std::_Dest_val<std::allocator<unsigned long>,unsigned long>
_TEXT	ENDS
PUBLIC	??0?$vector@KV?$allocator@K@std@@@std@@QAE@XZ	; std::vector<unsigned long,std::allocator<unsigned long> >::vector<unsigned long,std::allocator<unsigned long> >
; Function compile flags: /Ogsp
; File c:\program files (x86)\microsoft visual studio 10.0\vc\include\vector
;	COMDAT ??0?$vector@KV?$allocator@K@std@@@std@@QAE@XZ
_TEXT	SEGMENT
??0?$vector@KV?$allocator@K@std@@@std@@QAE@XZ PROC	; std::vector<unsigned long,std::allocator<unsigned long> >::vector<unsigned long,std::allocator<unsigned long> >, COMDAT
; _this$ = ecx

; 507  : 		{	// construct empty vector

  00000	8b c1		 mov	 eax, ecx
  00002	33 c9		 xor	 ecx, ecx
  00004	89 08		 mov	 DWORD PTR [eax], ecx
  00006	89 48 04	 mov	 DWORD PTR [eax+4], ecx
  00009	89 48 08	 mov	 DWORD PTR [eax+8], ecx

; 508  : 		}

  0000c	c3		 ret	 0
??0?$vector@KV?$allocator@K@std@@@std@@QAE@XZ ENDP	; std::vector<unsigned long,std::allocator<unsigned long> >::vector<unsigned long,std::allocator<unsigned long> >
_TEXT	ENDS
PUBLIC	?begin@?$vector@KV?$allocator@K@std@@@std@@QAE?AV?$_Vector_iterator@V?$_Vector_val@KV?$allocator@K@std@@@std@@@2@XZ ; std::vector<unsigned long,std::allocator<unsigned long> >::begin
; Function compile flags: /Ogsp
;	COMDAT ?begin@?$vector@KV?$allocator@K@std@@@std@@QAE?AV?$_Vector_iterator@V?$_Vector_val@KV?$allocator@K@std@@@std@@@2@XZ
_TEXT	SEGMENT
___$ReturnUdt$ = 8					; size = 4
?begin@?$vector@KV?$allocator@K@std@@@std@@QAE?AV?$_Vector_iterator@V?$_Vector_val@KV?$allocator@K@std@@@std@@@2@XZ PROC ; std::vector<unsigned long,std::allocator<unsigned long> >::begin, COMDAT
; _this$ = ecx

; 781  : 		{	// return iterator for beginning of mutable sequence

  00000	55		 push	 ebp
  00001	8b ec		 mov	 ebp, esp

; 782  : 		return (iterator(this->_Myfirst, this));

  00003	8b 09		 mov	 ecx, DWORD PTR [ecx]
  00005	8b 45 08	 mov	 eax, DWORD PTR ___$ReturnUdt$[ebp]
  00008	89 08		 mov	 DWORD PTR [eax], ecx

; 783  : 		}

  0000a	5d		 pop	 ebp
  0000b	c2 04 00	 ret	 4
?begin@?$vector@KV?$allocator@K@std@@@std@@QAE?AV?$_Vector_iterator@V?$_Vector_val@KV?$allocator@K@std@@@std@@@2@XZ ENDP ; std::vector<unsigned long,std::allocator<unsigned long> >::begin
_TEXT	ENDS
PUBLIC	?end@?$vector@KV?$allocator@K@std@@@std@@QAE?AV?$_Vector_iterator@V?$_Vector_val@KV?$allocator@K@std@@@std@@@2@XZ ; std::vector<unsigned long,std::allocator<unsigned long> >::end
; Function compile flags: /Ogsp
;	COMDAT ?end@?$vector@KV?$allocator@K@std@@@std@@QAE?AV?$_Vector_iterator@V?$_Vector_val@KV?$allocator@K@std@@@std@@@2@XZ
_TEXT	SEGMENT
___$ReturnUdt$ = 8					; size = 4
?end@?$vector@KV?$allocator@K@std@@@std@@QAE?AV?$_Vector_iterator@V?$_Vector_val@KV?$allocator@K@std@@@std@@@2@XZ PROC ; std::vector<unsigned long,std::allocator<unsigned long> >::end, COMDAT
; _this$ = ecx

; 791  : 		{	// return iterator for end of mutable sequence

  00000	55		 push	 ebp
  00001	8b ec		 mov	 ebp, esp

; 792  : 		return (iterator(this->_Mylast, this));

  00003	8b 49 04	 mov	 ecx, DWORD PTR [ecx+4]
  00006	8b 45 08	 mov	 eax, DWORD PTR ___$ReturnUdt$[ebp]
  00009	89 08		 mov	 DWORD PTR [eax], ecx

; 793  : 		}

  0000b	5d		 pop	 ebp
  0000c	c2 04 00	 ret	 4
?end@?$vector@KV?$allocator@K@std@@@std@@QAE?AV?$_Vector_iterator@V?$_Vector_val@KV?$allocator@K@std@@@std@@@2@XZ ENDP ; std::vector<unsigned long,std::allocator<unsigned long> >::end
_TEXT	ENDS
PUBLIC	?_Make_iter@?$vector@KV?$allocator@K@std@@@std@@QBE?AV?$_Vector_iterator@V?$_Vector_val@KV?$allocator@K@std@@@std@@@2@V?$_Vector_const_iterator@V?$_Vector_val@KV?$allocator@K@std@@@std@@@2@@Z ; std::vector<unsigned long,std::allocator<unsigned long> >::_Make_iter
; Function compile flags: /Ogsp
;	COMDAT ?_Make_iter@?$vector@KV?$allocator@K@std@@@std@@QBE?AV?$_Vector_iterator@V?$_Vector_val@KV?$allocator@K@std@@@std@@@2@V?$_Vector_const_iterator@V?$_Vector_val@KV?$allocator@K@std@@@std@@@2@@Z
_TEXT	SEGMENT
___$ReturnUdt$ = 8					; size = 4
__Where$ = 12						; size = 4
?_Make_iter@?$vector@KV?$allocator@K@std@@@std@@QBE?AV?$_Vector_iterator@V?$_Vector_val@KV?$allocator@K@std@@@std@@@2@V?$_Vector_const_iterator@V?$_Vector_val@KV?$allocator@K@std@@@std@@@2@@Z PROC ; std::vector<unsigned long,std::allocator<unsigned long> >::_Make_iter, COMDAT
; _this$ = ecx

; 801  : 		{	// make iterator from const_iterator

  00000	55		 push	 ebp
  00001	8b ec		 mov	 ebp, esp

; 802  : 		return (iterator(_Where._Ptr, this));

  00003	8b 45 08	 mov	 eax, DWORD PTR ___$ReturnUdt$[ebp]
  00006	8b 4d 0c	 mov	 ecx, DWORD PTR __Where$[ebp]
  00009	89 08		 mov	 DWORD PTR [eax], ecx

; 803  : 		}

  0000b	5d		 pop	 ebp
  0000c	c2 08 00	 ret	 8
?_Make_iter@?$vector@KV?$allocator@K@std@@@std@@QBE?AV?$_Vector_iterator@V?$_Vector_val@KV?$allocator@K@std@@@std@@@2@V?$_Vector_const_iterator@V?$_Vector_val@KV?$allocator@K@std@@@std@@@2@@Z ENDP ; std::vector<unsigned long,std::allocator<unsigned long> >::_Make_iter
_TEXT	ENDS
PUBLIC	?_Destroy@?$vector@KV?$allocator@K@std@@@std@@IAEXPAK0@Z ; std::vector<unsigned long,std::allocator<unsigned long> >::_Destroy
; Function compile flags: /Ogsp
;	COMDAT ?_Destroy@?$vector@KV?$allocator@K@std@@@std@@IAEXPAK0@Z
_TEXT	SEGMENT
__First$ = 8						; size = 4
__Last$ = 12						; size = 4
?_Destroy@?$vector@KV?$allocator@K@std@@@std@@IAEXPAK0@Z PROC ; std::vector<unsigned long,std::allocator<unsigned long> >::_Destroy, COMDAT
; _this$ = ecx

; 1270 : 		_Destroy_range(_First, _Last, this->_Alval);
; 1271 : 		}

  00000	c2 08 00	 ret	 8
?_Destroy@?$vector@KV?$allocator@K@std@@@std@@IAEXPAK0@Z ENDP ; std::vector<unsigned long,std::allocator<unsigned long> >::_Destroy
_TEXT	ENDS
PUBLIC	??9?$_Vector_const_iterator@V?$_Vector_val@KV?$allocator@K@std@@@std@@@std@@QBE_NABV01@@Z ; std::_Vector_const_iterator<std::_Vector_val<unsigned long,std::allocator<unsigned long> > >::operator!=
; Function compile flags: /Ogsp
;	COMDAT ??9?$_Vector_const_iterator@V?$_Vector_val@KV?$allocator@K@std@@@std@@@std@@QBE_NABV01@@Z
_TEXT	SEGMENT
__Right$ = 8						; size = 4
??9?$_Vector_const_iterator@V?$_Vector_val@KV?$allocator@K@std@@@std@@@std@@QBE_NABV01@@Z PROC ; std::_Vector_const_iterator<std::_Vector_val<unsigned long,std::allocator<unsigned long> > >::operator!=, COMDAT
; _this$ = ecx

; 207  : 		{	// test for iterator inequality

  00000	55		 push	 ebp
  00001	8b ec		 mov	 ebp, esp

; 208  : 		return (!(*this == _Right));

  00003	8b 01		 mov	 eax, DWORD PTR [ecx]
  00005	8b 55 08	 mov	 edx, DWORD PTR __Right$[ebp]
  00008	33 c9		 xor	 ecx, ecx
  0000a	3b 02		 cmp	 eax, DWORD PTR [edx]
  0000c	0f 95 c0	 setne	 al

; 209  : 		}

  0000f	5d		 pop	 ebp
  00010	c2 04 00	 ret	 4
??9?$_Vector_const_iterator@V?$_Vector_val@KV?$allocator@K@std@@@std@@@std@@QBE_NABV01@@Z ENDP ; std::_Vector_const_iterator<std::_Vector_val<unsigned long,std::allocator<unsigned long> > >::operator!=
_TEXT	ENDS
PUBLIC	??$_Cons_val@V?$allocator@K@std@@KABK@std@@YAXAAV?$allocator@K@0@PAKABK@Z ; std::_Cons_val<std::allocator<unsigned long>,unsigned long,unsigned long const &>
; Function compile flags: /Ogsp
; File c:\program files (x86)\microsoft visual studio 10.0\vc\include\xmemory
;	COMDAT ??$_Cons_val@V?$allocator@K@std@@KABK@std@@YAXAAV?$allocator@K@0@PAKABK@Z
_TEXT	SEGMENT
__Alval$ = 8						; size = 4
__Pdest$ = 12						; size = 4
__Src$ = 16						; size = 4
??$_Cons_val@V?$allocator@K@std@@KABK@std@@YAXAAV?$allocator@K@0@PAKABK@Z PROC ; std::_Cons_val<std::allocator<unsigned long>,unsigned long,unsigned long const &>, COMDAT

; 279  : 	{	// construct using allocator

  00000	55		 push	 ebp
  00001	8b ec		 mov	 ebp, esp

; 280  : 	_Alval.construct(_Pdest, _STD forward<_Ty2>(_Src));

  00003	8b 45 0c	 mov	 eax, DWORD PTR __Pdest$[ebp]
  00006	85 c0		 test	 eax, eax
  00008	74 07		 je	 SHORT $LN9@Cons_val@2
  0000a	8b 4d 10	 mov	 ecx, DWORD PTR __Src$[ebp]
  0000d	8b 09		 mov	 ecx, DWORD PTR [ecx]
  0000f	89 08		 mov	 DWORD PTR [eax], ecx
$LN9@Cons_val@2:

; 281  : 	}

  00011	5d		 pop	 ebp
  00012	c3		 ret	 0
??$_Cons_val@V?$allocator@K@std@@KABK@std@@YAXAAV?$allocator@K@0@PAKABK@Z ENDP ; std::_Cons_val<std::allocator<unsigned long>,unsigned long,unsigned long const &>
_TEXT	ENDS
PUBLIC	??$_Umove@PAK@?$vector@KV?$allocator@K@std@@@std@@IAEPAKPAK00@Z ; std::vector<unsigned long,std::allocator<unsigned long> >::_Umove<unsigned long *>
; Function compile flags: /Ogsp
; File c:\program files (x86)\microsoft visual studio 10.0\vc\include\vector
;	COMDAT ??$_Umove@PAK@?$vector@KV?$allocator@K@std@@@std@@IAEPAKPAK00@Z
_TEXT	SEGMENT
__First$ = 8						; size = 4
__Last$ = 12						; size = 4
__Ptr$ = 16						; size = 4
??$_Umove@PAK@?$vector@KV?$allocator@K@std@@@std@@IAEPAKPAK00@Z PROC ; std::vector<unsigned long,std::allocator<unsigned long> >::_Umove<unsigned long *>, COMDAT
; _this$ = ecx

; 1322 : 		pointer _Umove(_Iter _First, _Iter _Last, pointer _Ptr)

  00000	55		 push	 ebp
  00001	8b ec		 mov	 ebp, esp

; 1323 : 		{	// move initializing [_First, _Last), using allocator
; 1324 : 		return (_Uninitialized_move(_First, _Last,
; 1325 : 			_Ptr, this->_Alval));

  00003	83 c1 0c	 add	 ecx, 12			; 0000000cH
  00006	51		 push	 ecx
  00007	ff 75 10	 push	 DWORD PTR __Ptr$[ebp]
  0000a	ff 75 0c	 push	 DWORD PTR __Last$[ebp]
  0000d	ff 75 08	 push	 DWORD PTR __First$[ebp]
  00010	e8 00 00 00 00	 call	 ??$_Uninitialized_move@PAKPAKV?$allocator@K@std@@@std@@YAPAKPAK00AAV?$allocator@K@0@@Z ; std::_Uninitialized_move<unsigned long *,unsigned long *,std::allocator<unsigned long> >
  00015	83 c4 10	 add	 esp, 16			; 00000010H

; 1326 : 		}

  00018	5d		 pop	 ebp
  00019	c2 0c 00	 ret	 12			; 0000000cH
??$_Umove@PAK@?$vector@KV?$allocator@K@std@@@std@@IAEPAKPAK00@Z ENDP ; std::vector<unsigned long,std::allocator<unsigned long> >::_Umove<unsigned long *>
_TEXT	ENDS
PUBLIC	?ProcessBuff@ioTargetEquipObjectItemBuff@@UAEXM@Z ; ioTargetEquipObjectItemBuff::ProcessBuff
EXTRN	?CheckCallingAreaWeapon@ioBuff@@IAEXXZ:PROC	; ioBuff::CheckCallingAreaWeapon
EXTRN	?CheckSwitchType@ioBuff@@IAE_NM@Z:PROC		; ioBuff::CheckSwitchType
; Function compile flags: /Ogsp
; File d:\lost saga for developer\youtube\tutorial\source\src\lsclient\iotargetequipobjectitembuff.cpp
;	COMDAT ?ProcessBuff@ioTargetEquipObjectItemBuff@@UAEXM@Z
_TEXT	SEGMENT
_fTimePerSec$ = 8					; size = 4
?ProcessBuff@ioTargetEquipObjectItemBuff@@UAEXM@Z PROC	; ioTargetEquipObjectItemBuff::ProcessBuff, COMDAT
; _this$ = ecx

; 177  : {

  00000	55		 push	 ebp
  00001	8b ec		 mov	 ebp, esp
  00003	56		 push	 esi
  00004	8b f1		 mov	 esi, ecx

; 178  : 	CheckOwnerStateCheck();

  00006	e8 00 00 00 00	 call	 ?CheckOwnerStateCheck@ioTargetEquipObjectItemBuff@@IAEXXZ ; ioTargetEquipObjectItemBuff::CheckOwnerStateCheck

; 179  : 
; 180  : 	switch( m_iOperationType )

  0000b	8b 86 d0 03 00
	00		 mov	 eax, DWORD PTR [esi+976]
  00011	83 e8 00	 sub	 eax, 0
  00014	74 57		 je	 SHORT $LN1@ProcessBuf
  00016	48		 dec	 eax
  00017	74 40		 je	 SHORT $LN2@ProcessBuf
  00019	48		 dec	 eax
  0001a	74 17		 je	 SHORT $LN5@ProcessBuf
  0001c	48		 dec	 eax
  0001d	75 55		 jne	 SHORT $LN6@ProcessBuf

; 191  : 	case OT_DELAY:
; 192  : 		ProcessDelay( fTimePerSec );

  0001f	f3 0f 10 45 08	 movss	 xmm0, DWORD PTR _fTimePerSec$[ebp]
  00024	8b 06		 mov	 eax, DWORD PTR [esi]
  00026	51		 push	 ecx
  00027	8b ce		 mov	 ecx, esi
  00029	f3 0f 11 04 24	 movss	 DWORD PTR [esp], xmm0
  0002e	ff 50 38	 call	 DWORD PTR [eax+56]

; 193  : 		break;

  00031	eb 41		 jmp	 SHORT $LN6@ProcessBuf
$LN5@ProcessBuf:

; 181  : 	{
; 182  : 	case OT_SWITCH:
; 183  : 		if( !CheckSwitchType( fTimePerSec ) )

  00033	f3 0f 10 45 08	 movss	 xmm0, DWORD PTR _fTimePerSec$[ebp]
  00038	51		 push	 ecx
  00039	8b ce		 mov	 ecx, esi
  0003b	f3 0f 11 04 24	 movss	 DWORD PTR [esp], xmm0
  00040	e8 00 00 00 00	 call	 ?CheckSwitchType@ioBuff@@IAE_NM@Z ; ioBuff::CheckSwitchType

; 184  : 		{
; 185  : 			SetReserveEndBuff();

  00045	8b ce		 mov	 ecx, esi
  00047	84 c0		 test	 al, al
  00049	75 07		 jne	 SHORT $LN4@ProcessBuf
  0004b	e8 00 00 00 00	 call	 ?SetReserveEndBuff@ioBuff@@QAEXXZ ; ioBuff::SetReserveEndBuff

; 186  : 			return;

  00050	eb 29		 jmp	 SHORT $LN8@ProcessBuf
$LN4@ProcessBuf:

; 187  : 		}
; 188  : 
; 189  : 		CheckCallingProcess();

  00052	e8 00 00 00 00	 call	 ?CheckCallingProcess@ioBuff@@IAEXXZ ; ioBuff::CheckCallingProcess

; 190  : 		break;

  00057	eb 1b		 jmp	 SHORT $LN6@ProcessBuf
$LN2@ProcessBuf:

; 194  : 	case OT_ACTIVE:
; 195  : 		ProcessActive( fTimePerSec );

  00059	f3 0f 10 45 08	 movss	 xmm0, DWORD PTR _fTimePerSec$[ebp]
  0005e	51		 push	 ecx
  0005f	8b ce		 mov	 ecx, esi
  00061	f3 0f 11 04 24	 movss	 DWORD PTR [esp], xmm0
  00066	e8 00 00 00 00	 call	 ?ProcessActive@ioTargetEquipObjectItemBuff@@IAEXM@Z ; ioTargetEquipObjectItemBuff::ProcessActive

; 196  : 		break;

  0006b	eb 07		 jmp	 SHORT $LN6@ProcessBuf
$LN1@ProcessBuf:

; 197  : 	case OT_PASSIVE:
; 198  : 		CheckCallingAreaWeapon();

  0006d	8b ce		 mov	 ecx, esi
  0006f	e8 00 00 00 00	 call	 ?CheckCallingAreaWeapon@ioBuff@@IAEXXZ ; ioBuff::CheckCallingAreaWeapon
$LN6@ProcessBuf:

; 199  : 		break;
; 200  : 	}
; 201  : 
; 202  : 	ProcessCheckObject();

  00074	8b ce		 mov	 ecx, esi
  00076	e8 00 00 00 00	 call	 ?ProcessCheckObject@ioTargetEquipObjectItemBuff@@IAEXXZ ; ioTargetEquipObjectItemBuff::ProcessCheckObject
$LN8@ProcessBuf:
  0007b	5e		 pop	 esi

; 203  : }

  0007c	5d		 pop	 ebp
  0007d	c2 04 00	 ret	 4
?ProcessBuff@ioTargetEquipObjectItemBuff@@UAEXM@Z ENDP	; ioTargetEquipObjectItemBuff::ProcessBuff
_TEXT	ENDS
PUBLIC	??$_Uninit_copy@V?$_Vector_const_iterator@V?$_Vector_val@KV?$allocator@K@std@@@std@@@std@@PAKV?$allocator@K@2@@std@@YAPAKV?$_Vector_const_iterator@V?$_Vector_val@KV?$allocator@K@std@@@std@@@0@0PAKAAV?$allocator@K@0@U_Nonscalar_ptr_iterator_tag@0@@Z ; std::_Uninit_copy<std::_Vector_const_iterator<std::_Vector_val<unsigned long,std::allocator<unsigned long> > >,unsigned long *,std::allocator<unsigned long> >
; Function compile flags: /Ogsp
; File c:\program files (x86)\microsoft visual studio 10.0\vc\include\memory
;	COMDAT ??$_Uninit_copy@V?$_Vector_const_iterator@V?$_Vector_val@KV?$allocator@K@std@@@std@@@std@@PAKV?$allocator@K@2@@std@@YAPAKV?$_Vector_const_iterator@V?$_Vector_val@KV?$allocator@K@std@@@std@@@0@0PAKAAV?$allocator@K@0@U_Nonscalar_ptr_iterator_tag@0@@Z
_TEXT	SEGMENT
__First$ = 8						; size = 4
__Last$ = 12						; size = 4
__Dest$ = 16						; size = 4
__Al$ = 20						; size = 4
___formal$ = 24						; size = 1
??$_Uninit_copy@V?$_Vector_const_iterator@V?$_Vector_val@KV?$allocator@K@std@@@std@@@std@@PAKV?$allocator@K@2@@std@@YAPAKV?$_Vector_const_iterator@V?$_Vector_val@KV?$allocator@K@std@@@std@@@0@0PAKAAV?$allocator@K@0@U_Nonscalar_ptr_iterator_tag@0@@Z PROC ; std::_Uninit_copy<std::_Vector_const_iterator<std::_Vector_val<unsigned long,std::allocator<unsigned long> > >,unsigned long *,std::allocator<unsigned long> >, COMDAT

; 369  : 	{	// copy [_First, _Last) to raw _Dest, using _Al, arbitrary type

  00000	55		 push	 ebp
  00001	8b ec		 mov	 ebp, esp

; 370  : 	_DEBUG_RANGE(_First, _Last);
; 371  : 	_DEBUG_POINTER(_Dest);
; 372  : 	_FwdIt _Next = _Dest;
; 373  : 
; 374  : 	_TRY_BEGIN
; 375  : 	for (; _First != _Last; ++_Dest, ++_First)

  00003	8b 45 08	 mov	 eax, DWORD PTR __First$[ebp]
  00006	eb 17		 jmp	 SHORT $LN48@Uninit_cop
$LL14@Uninit_cop:

; 376  : 		_Cons_val(_Al, _Dest, *_First);

  00008	83 7d 10 00	 cmp	 DWORD PTR __Dest$[ebp], 0
  0000c	74 07		 je	 SHORT $LN32@Uninit_cop
  0000e	8b 08		 mov	 ecx, DWORD PTR [eax]
  00010	8b 55 10	 mov	 edx, DWORD PTR __Dest$[ebp]
  00013	89 0a		 mov	 DWORD PTR [edx], ecx
$LN32@Uninit_cop:

; 370  : 	_DEBUG_RANGE(_First, _Last);
; 371  : 	_DEBUG_POINTER(_Dest);
; 372  : 	_FwdIt _Next = _Dest;
; 373  : 
; 374  : 	_TRY_BEGIN
; 375  : 	for (; _First != _Last; ++_Dest, ++_First)

  00015	83 45 10 04	 add	 DWORD PTR __Dest$[ebp], 4
  00019	83 c0 04	 add	 eax, 4
  0001c	89 45 08	 mov	 DWORD PTR __First$[ebp], eax
$LN48@Uninit_cop:
  0001f	3b 45 0c	 cmp	 eax, DWORD PTR __Last$[ebp]
  00022	75 e4		 jne	 SHORT $LL14@Uninit_cop

; 377  : 	_CATCH_ALL
; 378  : 	for (; _Next != _Dest; ++_Next)
; 379  : 		_Dest_val(_Al, _Next);
; 380  : 	_RERAISE;
; 381  : 	_CATCH_END
; 382  : 	return (_Dest);

  00024	8b 45 10	 mov	 eax, DWORD PTR __Dest$[ebp]

; 383  : 	}

  00027	5d		 pop	 ebp
  00028	c3		 ret	 0
??$_Uninit_copy@V?$_Vector_const_iterator@V?$_Vector_val@KV?$allocator@K@std@@@std@@@std@@PAKV?$allocator@K@2@@std@@YAPAKV?$_Vector_const_iterator@V?$_Vector_val@KV?$allocator@K@std@@@std@@@0@0PAKAAV?$allocator@K@0@U_Nonscalar_ptr_iterator_tag@0@@Z ENDP ; std::_Uninit_copy<std::_Vector_const_iterator<std::_Vector_val<unsigned long,std::allocator<unsigned long> > >,unsigned long *,std::allocator<unsigned long> >
_TEXT	ENDS
PUBLIC	?erase@?$vector@KV?$allocator@K@std@@@std@@QAE?AV?$_Vector_iterator@V?$_Vector_val@KV?$allocator@K@std@@@std@@@2@V?$_Vector_const_iterator@V?$_Vector_val@KV?$allocator@K@std@@@std@@@2@0@Z ; std::vector<unsigned long,std::allocator<unsigned long> >::erase
; Function compile flags: /Ogsp
; File c:\program files (x86)\microsoft visual studio 10.0\vc\include\vector
;	COMDAT ?erase@?$vector@KV?$allocator@K@std@@@std@@QAE?AV?$_Vector_iterator@V?$_Vector_val@KV?$allocator@K@std@@@std@@@2@V?$_Vector_const_iterator@V?$_Vector_val@KV?$allocator@K@std@@@std@@@2@0@Z
_TEXT	SEGMENT
___$ReturnUdt$ = 8					; size = 4
__First_arg$ = 12					; size = 4
__Cat$533876 = 16					; size = 1
__Last_arg$ = 16					; size = 4
?erase@?$vector@KV?$allocator@K@std@@@std@@QAE?AV?$_Vector_iterator@V?$_Vector_val@KV?$allocator@K@std@@@std@@@2@V?$_Vector_const_iterator@V?$_Vector_val@KV?$allocator@K@std@@@std@@@2@0@Z PROC ; std::vector<unsigned long,std::allocator<unsigned long> >::erase, COMDAT
; _this$ = ecx

; 1190 : 		{	// erase [_First, _Last)

  00000	55		 push	 ebp
  00001	8b ec		 mov	 ebp, esp

; 1191 : 		iterator _First = _Make_iter(_First_arg);

  00003	8b 45 0c	 mov	 eax, DWORD PTR __First_arg$[ebp]
  00006	56		 push	 esi
  00007	57		 push	 edi
  00008	8b 7d 08	 mov	 edi, DWORD PTR ___$ReturnUdt$[ebp]
  0000b	8b f1		 mov	 esi, ecx
  0000d	89 07		 mov	 DWORD PTR [edi], eax

; 1192 : 		iterator _Last = _Make_iter(_Last_arg);
; 1193 : 
; 1194 : 		if (_First != _Last)

  0000f	3b 45 10	 cmp	 eax, DWORD PTR __Last_arg$[ebp]
  00012	74 16		 je	 SHORT $LN1@erase

; 1195 : 			{	// worth doing, copy down over hole
; 1196 :  #if _ITERATOR_DEBUG_LEVEL == 2
; 1197 : 			if (_Last < _First || _VICONT(_First) != this
; 1198 : 				|| _VIPTR(_First) < this->_Myfirst
; 1199 : 				|| this->_Mylast < _VIPTR(_Last))
; 1200 : 				_DEBUG_ERROR("vector erase iterator outside range");
; 1201 : 			pointer _Ptr = _Move(_VIPTR(_Last), this->_Mylast,
; 1202 : 				_VIPTR(_First));
; 1203 : 			_Orphan_range(_VIPTR(_First), this->_Mylast);
; 1204 : 
; 1205 :  #else /* _ITERATOR_DEBUG_LEVEL == 2 */
; 1206 : 			pointer _Ptr = _Move(_VIPTR(_Last), this->_Mylast,
; 1207 : 				_VIPTR(_First));

  00014	ff 75 10	 push	 DWORD PTR __Cat$533876[ebp]
  00017	8b 4e 04	 mov	 ecx, DWORD PTR [esi+4]
  0001a	50		 push	 eax
  0001b	51		 push	 ecx
  0001c	ff 75 10	 push	 DWORD PTR __Last_arg$[ebp]
  0001f	e8 00 00 00 00	 call	 ??$_Move@PAKPAK@std@@YAPAKPAK00U_Scalar_ptr_iterator_tag@0@@Z ; std::_Move<unsigned long *,unsigned long *>
  00024	83 c4 10	 add	 esp, 16			; 00000010H

; 1208 :  #endif /* _ITERATOR_DEBUG_LEVEL == 2 */
; 1209 : 
; 1210 : 			_Destroy(_Ptr, this->_Mylast);
; 1211 : 			this->_Mylast = _Ptr;

  00027	89 46 04	 mov	 DWORD PTR [esi+4], eax
$LN1@erase:

; 1212 : 			}
; 1213 : 		return (_First);

  0002a	8b c7		 mov	 eax, edi
  0002c	5f		 pop	 edi
  0002d	5e		 pop	 esi

; 1214 : 		}

  0002e	5d		 pop	 ebp
  0002f	c2 0c 00	 ret	 12			; 0000000cH
?erase@?$vector@KV?$allocator@K@std@@@std@@QAE?AV?$_Vector_iterator@V?$_Vector_val@KV?$allocator@K@std@@@std@@@2@V?$_Vector_const_iterator@V?$_Vector_val@KV?$allocator@K@std@@@std@@@2@0@Z ENDP ; std::vector<unsigned long,std::allocator<unsigned long> >::erase
_TEXT	ENDS
PUBLIC	?_Tidy@?$vector@KV?$allocator@K@std@@@std@@IAEXXZ ; std::vector<unsigned long,std::allocator<unsigned long> >::_Tidy
EXTRN	__imp_?_Orphan_all@_Container_base0@std@@QAEXXZ:PROC
; Function compile flags: /Ogsp
;	COMDAT ?_Tidy@?$vector@KV?$allocator@K@std@@@std@@IAEXXZ
_TEXT	SEGMENT
?_Tidy@?$vector@KV?$allocator@K@std@@@std@@IAEXXZ PROC	; std::vector<unsigned long,std::allocator<unsigned long> >::_Tidy, COMDAT
; _this$ = ecx

; 1301 : 		{	// free all storage

  00000	56		 push	 esi
  00001	8b f1		 mov	 esi, ecx

; 1302 : 		if (this->_Myfirst != 0)

  00003	83 3e 00	 cmp	 DWORD PTR [esi], 0
  00006	74 0e		 je	 SHORT $LN12@Tidy

; 1303 : 			{	// something to free, destroy and deallocate it
; 1304 : 			this->_Orphan_all();

  00008	ff 15 00 00 00
	00		 call	 DWORD PTR __imp_?_Orphan_all@_Container_base0@std@@QAEXXZ

; 1305 : 			_Destroy(this->_Myfirst, this->_Mylast);
; 1306 : 			this->_Alval.deallocate(this->_Myfirst,
; 1307 : 				this->_Myend - this->_Myfirst);

  0000e	ff 36		 push	 DWORD PTR [esi]
  00010	e8 00 00 00 00	 call	 ??3@YAXPAX@Z		; operator delete
  00015	59		 pop	 ecx
$LN12@Tidy:

; 1308 : 			}
; 1309 : 		this->_Myfirst = 0;

  00016	83 26 00	 and	 DWORD PTR [esi], 0

; 1310 : 		this->_Mylast = 0;

  00019	83 66 04 00	 and	 DWORD PTR [esi+4], 0

; 1311 : 		this->_Myend = 0;

  0001d	83 66 08 00	 and	 DWORD PTR [esi+8], 0
  00021	5e		 pop	 esi

; 1312 : 		}

  00022	c3		 ret	 0
?_Tidy@?$vector@KV?$allocator@K@std@@@std@@IAEXXZ ENDP	; std::vector<unsigned long,std::allocator<unsigned long> >::_Tidy
_TEXT	ENDS
PUBLIC	?reserve@?$vector@KV?$allocator@K@std@@@std@@QAEXI@Z ; std::vector<unsigned long,std::allocator<unsigned long> >::reserve
; Function compile flags: /Ogsp
;	COMDAT ?reserve@?$vector@KV?$allocator@K@std@@@std@@QAEXI@Z
_TEXT	SEGMENT
__Count$ = 8						; size = 4
?reserve@?$vector@KV?$allocator@K@std@@@std@@QAEXI@Z PROC ; std::vector<unsigned long,std::allocator<unsigned long> >::reserve, COMDAT
; _this$ = ecx

; 746  : 		{	// determine new minimum length of allocated storage

  00000	55		 push	 ebp
  00001	8b ec		 mov	 ebp, esp

; 747  : 		if (max_size() < _Count)

  00003	81 7d 08 ff ff
	ff 3f		 cmp	 DWORD PTR __Count$[ebp], 1073741823 ; 3fffffffH
  0000a	56		 push	 esi
  0000b	8b f1		 mov	 esi, ecx
  0000d	76 0b		 jbe	 SHORT $LN5@reserve

; 748  : 			_Xlen();	// result too long

  0000f	68 00 00 00 00	 push	 OFFSET ??_C@_0BD@OLBABOEK@vector?$DMT?$DO?5too?5long?$AA@
  00014	ff 15 00 00 00
	00		 call	 DWORD PTR __imp_?_Xlength_error@std@@YAXPBD@Z
$LN43@reserve:
$LN5@reserve:

; 749  : 		else if (capacity() < _Count)

  0001a	8b 46 08	 mov	 eax, DWORD PTR [esi+8]
  0001d	2b 06		 sub	 eax, DWORD PTR [esi]
  0001f	c1 f8 02	 sar	 eax, 2
  00022	3b 45 08	 cmp	 eax, DWORD PTR __Count$[ebp]
  00025	73 52		 jae	 SHORT $LN3@reserve

; 750  : 			{	// not enough room, reallocate
; 751  : 			pointer _Ptr = this->_Alval.allocate(_Count);

  00027	53		 push	 ebx
  00028	57		 push	 edi
  00029	6a 00		 push	 0
  0002b	ff 75 08	 push	 DWORD PTR __Count$[ebp]
  0002e	e8 00 00 00 00	 call	 ??$_Allocate@K@std@@YAPAKIPAK@Z ; std::_Allocate<unsigned long>

; 752  : 
; 753  : 			_TRY_BEGIN
; 754  : 			_Umove(this->_Myfirst, this->_Mylast, _Ptr);

  00033	8b 0e		 mov	 ecx, DWORD PTR [esi]
  00035	8d 56 0c	 lea	 edx, DWORD PTR [esi+12]
  00038	52		 push	 edx
  00039	8b d8		 mov	 ebx, eax
  0003b	8b 46 04	 mov	 eax, DWORD PTR [esi+4]
  0003e	53		 push	 ebx
  0003f	50		 push	 eax
  00040	51		 push	 ecx
  00041	e8 00 00 00 00	 call	 ??$_Uninitialized_move@PAKPAKV?$allocator@K@std@@@std@@YAPAKPAK00AAV?$allocator@K@0@@Z ; std::_Uninitialized_move<unsigned long *,unsigned long *,std::allocator<unsigned long> >

; 755  : 			_CATCH_ALL
; 756  : 			this->_Alval.deallocate(_Ptr, _Count);
; 757  : 			_RERAISE;
; 758  : 			_CATCH_END
; 759  : 
; 760  : 			size_type _Size = size();

  00046	8b 06		 mov	 eax, DWORD PTR [esi]
  00048	8b 7e 04	 mov	 edi, DWORD PTR [esi+4]
  0004b	2b f8		 sub	 edi, eax
  0004d	83 c4 18	 add	 esp, 24			; 00000018H
  00050	c1 ff 02	 sar	 edi, 2

; 761  : 			if (this->_Myfirst != 0)

  00053	85 c0		 test	 eax, eax
  00055	74 07		 je	 SHORT $LN39@reserve

; 762  : 				{	// destroy and deallocate old array
; 763  : 				_Destroy(this->_Myfirst, this->_Mylast);
; 764  : 				this->_Alval.deallocate(this->_Myfirst,
; 765  : 					this->_Myend - this->_Myfirst);

  00057	50		 push	 eax
  00058	e8 00 00 00 00	 call	 ??3@YAXPAX@Z		; operator delete
  0005d	59		 pop	 ecx
$LN39@reserve:

; 766  : 				}
; 767  : 
; 768  : 			this->_Orphan_all();

  0005e	8b ce		 mov	 ecx, esi
  00060	ff 15 00 00 00
	00		 call	 DWORD PTR __imp_?_Orphan_all@_Container_base0@std@@QAEXXZ

; 769  : 			this->_Myend = _Ptr + _Count;

  00066	8b 45 08	 mov	 eax, DWORD PTR __Count$[ebp]
  00069	8d 04 83	 lea	 eax, DWORD PTR [ebx+eax*4]
  0006c	89 46 08	 mov	 DWORD PTR [esi+8], eax

; 770  : 			this->_Mylast = _Ptr + _Size;

  0006f	8d 04 bb	 lea	 eax, DWORD PTR [ebx+edi*4]
  00072	5f		 pop	 edi

; 771  : 			this->_Myfirst = _Ptr;

  00073	89 1e		 mov	 DWORD PTR [esi], ebx
  00075	89 46 04	 mov	 DWORD PTR [esi+4], eax
  00078	5b		 pop	 ebx
$LN3@reserve:
  00079	5e		 pop	 esi

; 772  : 			}
; 773  : 		}

  0007a	5d		 pop	 ebp
  0007b	c2 04 00	 ret	 4
$LN42@reserve:
?reserve@?$vector@KV?$allocator@K@std@@@std@@QAEXI@Z ENDP ; std::vector<unsigned long,std::allocator<unsigned long> >::reserve
_TEXT	ENDS
PUBLIC	??$_Uninitialized_copy@V?$_Vector_const_iterator@V?$_Vector_val@KV?$allocator@K@std@@@std@@@std@@PAKV?$allocator@K@2@@std@@YAPAKV?$_Vector_const_iterator@V?$_Vector_val@KV?$allocator@K@std@@@std@@@0@0PAKAAV?$allocator@K@0@@Z ; std::_Uninitialized_copy<std::_Vector_const_iterator<std::_Vector_val<unsigned long,std::allocator<unsigned long> > >,unsigned long *,std::allocator<unsigned long> >
; Function compile flags: /Ogsp
; File c:\program files (x86)\microsoft visual studio 10.0\vc\include\memory
;	COMDAT ??$_Uninitialized_copy@V?$_Vector_const_iterator@V?$_Vector_val@KV?$allocator@K@std@@@std@@@std@@PAKV?$allocator@K@2@@std@@YAPAKV?$_Vector_const_iterator@V?$_Vector_val@KV?$allocator@K@std@@@std@@@0@0PAKAAV?$allocator@K@0@@Z
_TEXT	SEGMENT
__Cat$534032 = -4					; size = 1
__First$ = 8						; size = 4
__Last$ = 12						; size = 4
__Dest$ = 16						; size = 4
__Al$ = 20						; size = 4
??$_Uninitialized_copy@V?$_Vector_const_iterator@V?$_Vector_val@KV?$allocator@K@std@@@std@@@std@@PAKV?$allocator@K@2@@std@@YAPAKV?$_Vector_const_iterator@V?$_Vector_val@KV?$allocator@K@std@@@std@@@0@0PAKAAV?$allocator@K@0@@Z PROC ; std::_Uninitialized_copy<std::_Vector_const_iterator<std::_Vector_val<unsigned long,std::allocator<unsigned long> > >,unsigned long *,std::allocator<unsigned long> >, COMDAT

; 412  : 	{	// copy [_First, _Last) to raw _Dest, using _Al

  00000	55		 push	 ebp
  00001	8b ec		 mov	 ebp, esp
  00003	51		 push	 ecx

; 413  : 	return (_Uninit_copy(_First, _Last, _Dest, _Al,
; 414  : 		_Ptr_cat(_First, _Dest)));

  00004	ff 75 fc	 push	 DWORD PTR __Cat$534032[ebp]
  00007	ff 75 14	 push	 DWORD PTR __Al$[ebp]
  0000a	ff 75 10	 push	 DWORD PTR __Dest$[ebp]
  0000d	ff 75 0c	 push	 DWORD PTR __Last$[ebp]
  00010	ff 75 08	 push	 DWORD PTR __First$[ebp]
  00013	e8 00 00 00 00	 call	 ??$_Uninit_copy@V?$_Vector_const_iterator@V?$_Vector_val@KV?$allocator@K@std@@@std@@@std@@PAKV?$allocator@K@2@@std@@YAPAKV?$_Vector_const_iterator@V?$_Vector_val@KV?$allocator@K@std@@@std@@@0@0PAKAAV?$allocator@K@0@U_Nonscalar_ptr_iterator_tag@0@@Z ; std::_Uninit_copy<std::_Vector_const_iterator<std::_Vector_val<unsigned long,std::allocator<unsigned long> > >,unsigned long *,std::allocator<unsigned long> >
  00018	83 c4 14	 add	 esp, 20			; 00000014H

; 415  : 	}

  0001b	c9		 leave
  0001c	c3		 ret	 0
??$_Uninitialized_copy@V?$_Vector_const_iterator@V?$_Vector_val@KV?$allocator@K@std@@@std@@@std@@PAKV?$allocator@K@2@@std@@YAPAKV?$_Vector_const_iterator@V?$_Vector_val@KV?$allocator@K@std@@@std@@@0@0PAKAAV?$allocator@K@0@@Z ENDP ; std::_Uninitialized_copy<std::_Vector_const_iterator<std::_Vector_val<unsigned long,std::allocator<unsigned long> > >,unsigned long *,std::allocator<unsigned long> >
_TEXT	ENDS
PUBLIC	??1?$vector@KV?$allocator@K@std@@@std@@QAE@XZ	; std::vector<unsigned long,std::allocator<unsigned long> >::~vector<unsigned long,std::allocator<unsigned long> >
; Function compile flags: /Ogsp
; File c:\program files (x86)\microsoft visual studio 10.0\vc\include\vector
;	COMDAT ??1?$vector@KV?$allocator@K@std@@@std@@QAE@XZ
_TEXT	SEGMENT
??1?$vector@KV?$allocator@K@std@@@std@@QAE@XZ PROC	; std::vector<unsigned long,std::allocator<unsigned long> >::~vector<unsigned long,std::allocator<unsigned long> >, COMDAT
; _this$ = ecx

; 705  : 		_Tidy();

  00000	e9 00 00 00 00	 jmp	 ?_Tidy@?$vector@KV?$allocator@K@std@@@std@@IAEXXZ ; std::vector<unsigned long,std::allocator<unsigned long> >::_Tidy
??1?$vector@KV?$allocator@K@std@@@std@@QAE@XZ ENDP	; std::vector<unsigned long,std::allocator<unsigned long> >::~vector<unsigned long,std::allocator<unsigned long> >
_TEXT	ENDS
PUBLIC	?clear@?$vector@KV?$allocator@K@std@@@std@@QAEXXZ ; std::vector<unsigned long,std::allocator<unsigned long> >::clear
; Function compile flags: /Ogsp
;	COMDAT ?clear@?$vector@KV?$allocator@K@std@@@std@@QAEXXZ
_TEXT	SEGMENT
$T534046 = -4						; size = 4
?clear@?$vector@KV?$allocator@K@std@@@std@@QAEXXZ PROC	; std::vector<unsigned long,std::allocator<unsigned long> >::clear, COMDAT
; _this$ = ecx

; 1217 : 		{	// erase all

  00000	55		 push	 ebp
  00001	8b ec		 mov	 ebp, esp
  00003	51		 push	 ecx

; 1218 : 		erase(begin(), end());

  00004	8b 41 04	 mov	 eax, DWORD PTR [ecx+4]
  00007	8b 11		 mov	 edx, DWORD PTR [ecx]
  00009	50		 push	 eax
  0000a	52		 push	 edx
  0000b	8d 45 fc	 lea	 eax, DWORD PTR $T534046[ebp]
  0000e	50		 push	 eax
  0000f	e8 00 00 00 00	 call	 ?erase@?$vector@KV?$allocator@K@std@@@std@@QAE?AV?$_Vector_iterator@V?$_Vector_val@KV?$allocator@K@std@@@std@@@2@V?$_Vector_const_iterator@V?$_Vector_val@KV?$allocator@K@std@@@std@@@2@0@Z ; std::vector<unsigned long,std::allocator<unsigned long> >::erase

; 1219 : 		}

  00014	c9		 leave
  00015	c3		 ret	 0
?clear@?$vector@KV?$allocator@K@std@@@std@@QAEXXZ ENDP	; std::vector<unsigned long,std::allocator<unsigned long> >::clear
_TEXT	ENDS
PUBLIC	?_Reserve@?$vector@KV?$allocator@K@std@@@std@@IAEXI@Z ; std::vector<unsigned long,std::allocator<unsigned long> >::_Reserve
; Function compile flags: /Ogsp
;	COMDAT ?_Reserve@?$vector@KV?$allocator@K@std@@@std@@IAEXI@Z
_TEXT	SEGMENT
__Count$ = 8						; size = 4
?_Reserve@?$vector@KV?$allocator@K@std@@@std@@IAEXI@Z PROC ; std::vector<unsigned long,std::allocator<unsigned long> >::_Reserve, COMDAT
; _this$ = ecx

; 1290 : 		{	// ensure room for _Count new elements, grow exponentially

  00000	55		 push	 ebp
  00001	8b ec		 mov	 ebp, esp
  00003	56		 push	 esi
  00004	8b f1		 mov	 esi, ecx

; 1291 : 		size_type _Size = size();

  00006	8b 0e		 mov	 ecx, DWORD PTR [esi]
  00008	8b 46 04	 mov	 eax, DWORD PTR [esi+4]
  0000b	2b c1		 sub	 eax, ecx

; 1292 : 		if (max_size() - _Count < _Size)

  0000d	ba ff ff ff 3f	 mov	 edx, 1073741823		; 3fffffffH
  00012	2b 55 08	 sub	 edx, DWORD PTR __Count$[ebp]
  00015	c1 f8 02	 sar	 eax, 2
  00018	3b d0		 cmp	 edx, eax
  0001a	73 0b		 jae	 SHORT $LN4@Reserve

; 1293 : 			_Xlen();

  0001c	68 00 00 00 00	 push	 OFFSET ??_C@_0BD@OLBABOEK@vector?$DMT?$DO?5too?5long?$AA@
  00021	ff 15 00 00 00
	00		 call	 DWORD PTR __imp_?_Xlength_error@std@@YAXPBD@Z
$LN21@Reserve:
$LN4@Reserve:

; 1294 : 		else if ((_Size += _Count) <= capacity())

  00027	8b 56 08	 mov	 edx, DWORD PTR [esi+8]
  0002a	03 45 08	 add	 eax, DWORD PTR __Count$[ebp]
  0002d	2b d1		 sub	 edx, ecx
  0002f	c1 fa 02	 sar	 edx, 2
  00032	3b c2		 cmp	 eax, edx
  00034	76 10		 jbe	 SHORT $LN1@Reserve

; 1295 : 			;
; 1296 : 		else
; 1297 : 			reserve(_Grow_to(_Size));

  00036	50		 push	 eax
  00037	8b ce		 mov	 ecx, esi
  00039	e8 00 00 00 00	 call	 ?_Grow_to@?$vector@KV?$allocator@K@std@@@std@@IBEII@Z ; std::vector<unsigned long,std::allocator<unsigned long> >::_Grow_to
  0003e	50		 push	 eax
  0003f	8b ce		 mov	 ecx, esi
  00041	e8 00 00 00 00	 call	 ?reserve@?$vector@KV?$allocator@K@std@@@std@@QAEXI@Z ; std::vector<unsigned long,std::allocator<unsigned long> >::reserve
$LN1@Reserve:
  00046	5e		 pop	 esi

; 1298 : 		}

  00047	5d		 pop	 ebp
  00048	c2 04 00	 ret	 4
$LN20@Reserve:
?_Reserve@?$vector@KV?$allocator@K@std@@@std@@IAEXI@Z ENDP ; std::vector<unsigned long,std::allocator<unsigned long> >::_Reserve
_TEXT	ENDS
PUBLIC	??_7ioTargetEquipObjectItemBuff@@6B@		; ioTargetEquipObjectItemBuff::`vftable'
PUBLIC	??0ioTargetEquipObjectItemBuff@@QAE@XZ		; ioTargetEquipObjectItemBuff::ioTargetEquipObjectItemBuff
PUBLIC	??_R4ioTargetEquipObjectItemBuff@@6B@		; ioTargetEquipObjectItemBuff::`RTTI Complete Object Locator'
PUBLIC	??_R0?AVioTargetEquipObjectItemBuff@@@8		; ioTargetEquipObjectItemBuff `RTTI Type Descriptor'
PUBLIC	??_R3ioTargetEquipObjectItemBuff@@8		; ioTargetEquipObjectItemBuff::`RTTI Class Hierarchy Descriptor'
PUBLIC	??_R2ioTargetEquipObjectItemBuff@@8		; ioTargetEquipObjectItemBuff::`RTTI Base Class Array'
PUBLIC	??_R1A@?0A@EA@ioTargetEquipObjectItemBuff@@8	; ioTargetEquipObjectItemBuff::`RTTI Base Class Descriptor at (0,-1,0,64)'
PUBLIC	??_R1A@?0A@EA@ioBuff@@8				; ioBuff::`RTTI Base Class Descriptor at (0,-1,0,64)'
PUBLIC	??_R0?AVioBuff@@@8				; ioBuff `RTTI Type Descriptor'
PUBLIC	??_R3ioBuff@@8					; ioBuff::`RTTI Class Hierarchy Descriptor'
PUBLIC	??_R2ioBuff@@8					; ioBuff::`RTTI Base Class Array'
PUBLIC	?LoadProperty@ioTargetEquipObjectItemBuff@@UAEXAAVioINILoader@@@Z ; ioTargetEquipObjectItemBuff::LoadProperty
PUBLIC	?Clone@ioTargetEquipObjectItemBuff@@UAEPAVioBuff@@XZ ; ioTargetEquipObjectItemBuff::Clone
PUBLIC	?IsWaitSelfRemove@ioBuff@@UAE_NXZ		; ioBuff::IsWaitSelfRemove
EXTRN	??0ioBuff@@QAE@XZ:PROC				; ioBuff::ioBuff
EXTRN	?StartBuffWithAniTime@ioBuff@@UAEXPAVioBaseChar@@K@Z:PROC ; ioBuff::StartBuffWithAniTime
EXTRN	?CancelBuff@ioBuff@@UAEXXZ:PROC			; ioBuff::CancelBuff
EXTRN	?GetBuffInfo@ioBuff@@UAEXAAVSP2Packet@@@Z:PROC	; ioBuff::GetBuffInfo
EXTRN	?ApplyBuffInfo@ioBuff@@UAEXAAVSP2Packet@@@Z:PROC ; ioBuff::ApplyBuffInfo
EXTRN	?AccumulateBuff@ioBuff@@UAEXXZ:PROC		; ioBuff::AccumulateBuff
EXTRN	?IsLiveButStopped@ioBuff@@UBE_NXZ:PROC		; ioBuff::IsLiveButStopped
EXTRN	?IsCanJumpAttack@ioBuff@@UBE_NXZ:PROC		; ioBuff::IsCanJumpAttack
EXTRN	?SetWeaponIndex@ioBuff@@UAEXK@Z:PROC		; ioBuff::SetWeaponIndex
EXTRN	?OnReduceGauge@ioBuff@@UBE_NXZ:PROC		; ioBuff::OnReduceGauge
EXTRN	?IsCharCollisionSkip@ioBuff@@UBE_NXZ:PROC	; ioBuff::IsCharCollisionSkip
EXTRN	?IsCollisionAvailableWeapon@ioBuff@@UBE_NXZ:PROC ; ioBuff::IsCollisionAvailableWeapon
EXTRN	?IsProtected@ioBuff@@UBE_NXZ:PROC		; ioBuff::IsProtected
EXTRN	?UseActiveCount@ioBuff@@UBE_NXZ:PROC		; ioBuff::UseActiveCount
EXTRN	?CheckActiveCount@ioBuff@@UAEXXZ:PROC		; ioBuff::CheckActiveCount
EXTRN	?CheckRemoveEquipSkillBuff@ioBuff@@UAEX_N@Z:PROC ; ioBuff::CheckRemoveEquipSkillBuff
EXTRN	?ApplyExtraBuffInfo@ioBuff@@UAEXAAVSP2Packet@@@Z:PROC ; ioBuff::ApplyExtraBuffInfo
EXTRN	?SetBuffGrapplingState@ioBuff@@UAE_NPAVioBaseChar@@ABVioHashString@@@Z:PROC ; ioBuff::SetBuffGrapplingState
EXTRN	?GetGrapplingTargetPos@ioBuff@@UAE?AUD3DXVECTOR3@@PAVioBaseChar@@@Z:PROC ; ioBuff::GetGrapplingTargetPos
EXTRN	??_EioTargetEquipObjectItemBuff@@UAEPAXI@Z:PROC	; ioTargetEquipObjectItemBuff::`vector deleting destructor'
;	COMDAT ??_R2ioBuff@@8
; File c:\program files (x86)\microsoft visual studio 10.0\vc\include\xmemory
rdata$r	SEGMENT
??_R2ioBuff@@8 DD FLAT:??_R1A@?0A@EA@ioBuff@@8		; ioBuff::`RTTI Base Class Array'
rdata$r	ENDS
;	COMDAT ??_R3ioBuff@@8
rdata$r	SEGMENT
??_R3ioBuff@@8 DD 00H					; ioBuff::`RTTI Class Hierarchy Descriptor'
	DD	00H
	DD	01H
	DD	FLAT:??_R2ioBuff@@8
rdata$r	ENDS
;	COMDAT ??_R0?AVioBuff@@@8
_DATA	SEGMENT
??_R0?AVioBuff@@@8 DD FLAT:??_7type_info@@6B@		; ioBuff `RTTI Type Descriptor'
	DD	00H
	DB	'.?AVioBuff@@', 00H
_DATA	ENDS
;	COMDAT ??_R1A@?0A@EA@ioBuff@@8
rdata$r	SEGMENT
??_R1A@?0A@EA@ioBuff@@8 DD FLAT:??_R0?AVioBuff@@@8	; ioBuff::`RTTI Base Class Descriptor at (0,-1,0,64)'
	DD	00H
	DD	00H
	DD	0ffffffffH
	DD	00H
	DD	040H
	DD	FLAT:??_R3ioBuff@@8
rdata$r	ENDS
;	COMDAT ??_R1A@?0A@EA@ioTargetEquipObjectItemBuff@@8
rdata$r	SEGMENT
??_R1A@?0A@EA@ioTargetEquipObjectItemBuff@@8 DD FLAT:??_R0?AVioTargetEquipObjectItemBuff@@@8 ; ioTargetEquipObjectItemBuff::`RTTI Base Class Descriptor at (0,-1,0,64)'
	DD	01H
	DD	00H
	DD	0ffffffffH
	DD	00H
	DD	040H
	DD	FLAT:??_R3ioTargetEquipObjectItemBuff@@8
rdata$r	ENDS
;	COMDAT ??_R2ioTargetEquipObjectItemBuff@@8
rdata$r	SEGMENT
??_R2ioTargetEquipObjectItemBuff@@8 DD FLAT:??_R1A@?0A@EA@ioTargetEquipObjectItemBuff@@8 ; ioTargetEquipObjectItemBuff::`RTTI Base Class Array'
	DD	FLAT:??_R1A@?0A@EA@ioBuff@@8
rdata$r	ENDS
;	COMDAT ??_R3ioTargetEquipObjectItemBuff@@8
rdata$r	SEGMENT
??_R3ioTargetEquipObjectItemBuff@@8 DD 00H		; ioTargetEquipObjectItemBuff::`RTTI Class Hierarchy Descriptor'
	DD	00H
	DD	02H
	DD	FLAT:??_R2ioTargetEquipObjectItemBuff@@8
rdata$r	ENDS
;	COMDAT ??_R0?AVioTargetEquipObjectItemBuff@@@8
_DATA	SEGMENT
??_R0?AVioTargetEquipObjectItemBuff@@@8 DD FLAT:??_7type_info@@6B@ ; ioTargetEquipObjectItemBuff `RTTI Type Descriptor'
	DD	00H
	DB	'.?AVioTargetEquipObjectItemBuff@@', 00H
_DATA	ENDS
;	COMDAT ??_R4ioTargetEquipObjectItemBuff@@6B@
rdata$r	SEGMENT
??_R4ioTargetEquipObjectItemBuff@@6B@ DD 00H		; ioTargetEquipObjectItemBuff::`RTTI Complete Object Locator'
	DD	00H
	DD	00H
	DD	FLAT:??_R0?AVioTargetEquipObjectItemBuff@@@8
	DD	FLAT:??_R3ioTargetEquipObjectItemBuff@@8
rdata$r	ENDS
;	COMDAT ??_7ioTargetEquipObjectItemBuff@@6B@
CONST	SEGMENT
??_7ioTargetEquipObjectItemBuff@@6B@ DD FLAT:??_R4ioTargetEquipObjectItemBuff@@6B@ ; ioTargetEquipObjectItemBuff::`vftable'
	DD	FLAT:?LoadProperty@ioTargetEquipObjectItemBuff@@UAEXAAVioINILoader@@@Z
	DD	FLAT:?Clone@ioTargetEquipObjectItemBuff@@UAEPAVioBuff@@XZ
	DD	FLAT:?StartBuff@ioTargetEquipObjectItemBuff@@UAEXPAVioBaseChar@@@Z
	DD	FLAT:?StartBuffWithAniTime@ioBuff@@UAEXPAVioBaseChar@@K@Z
	DD	FLAT:?ApplyStartBuff@ioTargetEquipObjectItemBuff@@UAE_NPAVioBaseChar@@KK@Z
	DD	FLAT:?ProcessBuff@ioTargetEquipObjectItemBuff@@UAEXM@Z
	DD	FLAT:?EndBuff@ioTargetEquipObjectItemBuff@@UAEXXZ
	DD	FLAT:?CancelBuff@ioBuff@@UAEXXZ
	DD	FLAT:?GetBuffInfo@ioBuff@@UAEXAAVSP2Packet@@@Z
	DD	FLAT:?ApplyBuffInfo@ioBuff@@UAEXAAVSP2Packet@@@Z
	DD	FLAT:?AccumulateBuff@ioBuff@@UAEXXZ
	DD	FLAT:?IsLiveButStopped@ioBuff@@UBE_NXZ
	DD	FLAT:?IsCanJumpAttack@ioBuff@@UBE_NXZ
	DD	FLAT:?SetAction@ioTargetEquipObjectItemBuff@@MAEXXZ
	DD	FLAT:?ProcessDelay@ioTargetEquipObjectItemBuff@@MAEXM@Z
	DD	FLAT:?SetExtraDurationByGrowth@ioTargetEquipObjectItemBuff@@UAEXM@Z
	DD	FLAT:?SetWeaponIndex@ioBuff@@UAEXK@Z
	DD	FLAT:?OnReduceGauge@ioBuff@@UBE_NXZ
	DD	FLAT:?IsCharCollisionSkip@ioBuff@@UBE_NXZ
	DD	FLAT:?IsCollisionAvailableWeapon@ioBuff@@UBE_NXZ
	DD	FLAT:?IsProtected@ioBuff@@UBE_NXZ
	DD	FLAT:?UseActiveCount@ioBuff@@UBE_NXZ
	DD	FLAT:?CheckActiveCount@ioBuff@@UAEXXZ
	DD	FLAT:?CheckRemoveEquipSkillBuff@ioBuff@@UAEX_N@Z
	DD	FLAT:?ApplyExtraBuffInfo@ioBuff@@UAEXAAVSP2Packet@@@Z
	DD	FLAT:?SetBuffGrapplingState@ioBuff@@UAE_NPAVioBaseChar@@ABVioHashString@@@Z
	DD	FLAT:?GetGrapplingTargetPos@ioBuff@@UAE?AUD3DXVECTOR3@@PAVioBaseChar@@@Z
	DD	FLAT:?IsWaitSelfRemove@ioBuff@@UAE_NXZ
	DD	FLAT:??_EioTargetEquipObjectItemBuff@@UAEPAXI@Z
; Function compile flags: /Ogsp
; File d:\lost saga for developer\youtube\tutorial\source\src\lsclient\iotargetequipobjectitembuff.cpp
CONST	ENDS
;	COMDAT ??0ioTargetEquipObjectItemBuff@@QAE@XZ
_TEXT	SEGMENT
??0ioTargetEquipObjectItemBuff@@QAE@XZ PROC		; ioTargetEquipObjectItemBuff::ioTargetEquipObjectItemBuff, COMDAT
; _this$ = ecx

; 12   : {

  00000	56		 push	 esi
  00001	8b f1		 mov	 esi, ecx
  00003	e8 00 00 00 00	 call	 ??0ioBuff@@QAE@XZ	; ioBuff::ioBuff
  00008	33 c9		 xor	 ecx, ecx
  0000a	c7 06 00 00 00
	00		 mov	 DWORD PTR [esi], OFFSET ??_7ioTargetEquipObjectItemBuff@@6B@
  00010	89 8e 70 09 00
	00		 mov	 DWORD PTR [esi+2416], ecx
  00016	89 8e 74 09 00
	00		 mov	 DWORD PTR [esi+2420], ecx
  0001c	89 8e 78 09 00
	00		 mov	 DWORD PTR [esi+2424], ecx

; 13   : 	m_ObjectState = OE_NONE;

  00022	89 8e 88 09 00
	00		 mov	 DWORD PTR [esi+2440], ecx

; 14   : }

  00028	8b c6		 mov	 eax, esi
  0002a	5e		 pop	 esi
  0002b	c3		 ret	 0
??0ioTargetEquipObjectItemBuff@@QAE@XZ ENDP		; ioTargetEquipObjectItemBuff::ioTargetEquipObjectItemBuff
; Function compile flags: /Ogsp
; File d:\lost saga for developer\youtube\tutorial\source\src\lsclient\iobuff.h
_TEXT	ENDS
;	COMDAT ?IsWaitSelfRemove@ioBuff@@UAE_NXZ
_TEXT	SEGMENT
?IsWaitSelfRemove@ioBuff@@UAE_NXZ PROC			; ioBuff::IsWaitSelfRemove, COMDAT
; _this$ = ecx

; 519  : 	virtual bool IsWaitSelfRemove() { return m_bWaitSelfRemove; }

  00000	8a 81 65 09 00
	00		 mov	 al, BYTE PTR [ecx+2405]
  00006	c3		 ret	 0
?IsWaitSelfRemove@ioBuff@@UAE_NXZ ENDP			; ioBuff::IsWaitSelfRemove
_TEXT	ENDS
PUBLIC	??1ioTargetEquipObjectItemBuff@@UAE@XZ		; ioTargetEquipObjectItemBuff::~ioTargetEquipObjectItemBuff
EXTRN	??1ioBuff@@UAE@XZ:PROC				; ioBuff::~ioBuff
;	COMDAT xdata$x
; File c:\program files (x86)\microsoft visual studio 10.0\vc\include\vector
xdata$x	SEGMENT
__unwindtable$??1ioTargetEquipObjectItemBuff@@UAE@XZ DD 0ffffffffH
	DD	FLAT:__unwindfunclet$??1ioTargetEquipObjectItemBuff@@UAE@XZ$0
__ehfuncinfo$??1ioTargetEquipObjectItemBuff@@UAE@XZ DD 019930522H
	DD	01H
	DD	FLAT:__unwindtable$??1ioTargetEquipObjectItemBuff@@UAE@XZ
	DD	2 DUP(00H)
	DD	2 DUP(00H)
	DD	00H
	DD	01H
; Function compile flags: /Ogsp
; File d:\lost saga for developer\youtube\tutorial\source\src\lsclient\iotargetequipobjectitembuff.cpp
xdata$x	ENDS
;	COMDAT ??1ioTargetEquipObjectItemBuff@@UAE@XZ
_TEXT	SEGMENT
_this$ = -16						; size = 4
__$EHRec$ = -12						; size = 12
??1ioTargetEquipObjectItemBuff@@UAE@XZ PROC		; ioTargetEquipObjectItemBuff::~ioTargetEquipObjectItemBuff, COMDAT
; _this$ = ecx

; 26   : {

  00000	6a 04		 push	 4
  00002	b8 00 00 00 00	 mov	 eax, __ehhandler$??1ioTargetEquipObjectItemBuff@@UAE@XZ
  00007	e8 00 00 00 00	 call	 __EH_prolog3
  0000c	8b f1		 mov	 esi, ecx
  0000e	89 75 f0	 mov	 DWORD PTR _this$[ebp], esi
  00011	c7 06 00 00 00
	00		 mov	 DWORD PTR [esi], OFFSET ??_7ioTargetEquipObjectItemBuff@@6B@
  00017	83 65 fc 00	 and	 DWORD PTR __$EHRec$[ebp+8], 0

; 27   : }

  0001b	8d 8e 70 09 00
	00		 lea	 ecx, DWORD PTR [esi+2416]
  00021	e8 00 00 00 00	 call	 ?_Tidy@?$vector@KV?$allocator@K@std@@@std@@IAEXXZ ; std::vector<unsigned long,std::allocator<unsigned long> >::_Tidy
  00026	83 4d fc ff	 or	 DWORD PTR __$EHRec$[ebp+8], -1
  0002a	8b ce		 mov	 ecx, esi
  0002c	e8 00 00 00 00	 call	 ??1ioBuff@@UAE@XZ	; ioBuff::~ioBuff
  00031	e8 00 00 00 00	 call	 __EH_epilog3
  00036	c3		 ret	 0
_TEXT	ENDS
;	COMDAT text$x
text$x	SEGMENT
__unwindfunclet$??1ioTargetEquipObjectItemBuff@@UAE@XZ$0:
  00000	8b 4d f0	 mov	 ecx, DWORD PTR _this$[ebp]
  00003	e9 00 00 00 00	 jmp	 ??1ioBuff@@UAE@XZ	; ioBuff::~ioBuff
__ehhandler$??1ioTargetEquipObjectItemBuff@@UAE@XZ:
  00008	8b 54 24 08	 mov	 edx, DWORD PTR [esp+8]
  0000c	8d 42 0c	 lea	 eax, DWORD PTR [edx+12]
  0000f	8b 4a ec	 mov	 ecx, DWORD PTR [edx-20]
  00012	33 c8		 xor	 ecx, eax
  00014	e8 00 00 00 00	 call	 @__security_check_cookie@4
  00019	b8 00 00 00 00	 mov	 eax, OFFSET __ehfuncinfo$??1ioTargetEquipObjectItemBuff@@UAE@XZ
  0001e	e9 00 00 00 00	 jmp	 ___CxxFrameHandler3
text$x	ENDS
??1ioTargetEquipObjectItemBuff@@UAE@XZ ENDP		; ioTargetEquipObjectItemBuff::~ioTargetEquipObjectItemBuff
PUBLIC	??$_Ucopy@V?$_Vector_const_iterator@V?$_Vector_val@KV?$allocator@K@std@@@std@@@std@@@?$vector@KV?$allocator@K@std@@@std@@IAEPAKV?$_Vector_const_iterator@V?$_Vector_val@KV?$allocator@K@std@@@std@@@1@0PAK@Z ; std::vector<unsigned long,std::allocator<unsigned long> >::_Ucopy<std::_Vector_const_iterator<std::_Vector_val<unsigned long,std::allocator<unsigned long> > > >
; Function compile flags: /Ogsp
; File c:\program files (x86)\microsoft visual studio 10.0\vc\include\vector
;	COMDAT ??$_Ucopy@V?$_Vector_const_iterator@V?$_Vector_val@KV?$allocator@K@std@@@std@@@std@@@?$vector@KV?$allocator@K@std@@@std@@IAEPAKV?$_Vector_const_iterator@V?$_Vector_val@KV?$allocator@K@std@@@std@@@1@0PAK@Z
_TEXT	SEGMENT
__First$ = 8						; size = 4
__Last$ = 12						; size = 4
__Cat$534190 = 16					; size = 1
__Ptr$ = 16						; size = 4
??$_Ucopy@V?$_Vector_const_iterator@V?$_Vector_val@KV?$allocator@K@std@@@std@@@std@@@?$vector@KV?$allocator@K@std@@@std@@IAEPAKV?$_Vector_const_iterator@V?$_Vector_val@KV?$allocator@K@std@@@std@@@1@0PAK@Z PROC ; std::vector<unsigned long,std::allocator<unsigned long> >::_Ucopy<std::_Vector_const_iterator<std::_Vector_val<unsigned long,std::allocator<unsigned long> > > >, COMDAT
; _this$ = ecx

; 1315 : 		pointer _Ucopy(_Iter _First, _Iter _Last, pointer _Ptr)

  00000	55		 push	 ebp
  00001	8b ec		 mov	 ebp, esp

; 1316 : 		{	// copy initializing [_First, _Last), using allocator
; 1317 : 		return (_Uninitialized_copy(_First, _Last,
; 1318 : 			_Ptr, this->_Alval));

  00003	ff 75 10	 push	 DWORD PTR __Cat$534190[ebp]
  00006	83 c1 0c	 add	 ecx, 12			; 0000000cH
  00009	51		 push	 ecx
  0000a	ff 75 10	 push	 DWORD PTR __Ptr$[ebp]
  0000d	ff 75 0c	 push	 DWORD PTR __Last$[ebp]
  00010	ff 75 08	 push	 DWORD PTR __First$[ebp]
  00013	e8 00 00 00 00	 call	 ??$_Uninit_copy@V?$_Vector_const_iterator@V?$_Vector_val@KV?$allocator@K@std@@@std@@@std@@PAKV?$allocator@K@2@@std@@YAPAKV?$_Vector_const_iterator@V?$_Vector_val@KV?$allocator@K@std@@@std@@@0@0PAKAAV?$allocator@K@0@U_Nonscalar_ptr_iterator_tag@0@@Z ; std::_Uninit_copy<std::_Vector_const_iterator<std::_Vector_val<unsigned long,std::allocator<unsigned long> > >,unsigned long *,std::allocator<unsigned long> >
  00018	83 c4 14	 add	 esp, 20			; 00000014H

; 1319 : 		}

  0001b	5d		 pop	 ebp
  0001c	c2 0c 00	 ret	 12			; 0000000cH
??$_Ucopy@V?$_Vector_const_iterator@V?$_Vector_val@KV?$allocator@K@std@@@std@@@std@@@?$vector@KV?$allocator@K@std@@@std@@IAEPAKV?$_Vector_const_iterator@V?$_Vector_val@KV?$allocator@K@std@@@std@@@1@0PAK@Z ENDP ; std::vector<unsigned long,std::allocator<unsigned long> >::_Ucopy<std::_Vector_const_iterator<std::_Vector_val<unsigned long,std::allocator<unsigned long> > > >
_TEXT	ENDS
PUBLIC	?push_back@?$vector@KV?$allocator@K@std@@@std@@QAEXABK@Z ; std::vector<unsigned long,std::allocator<unsigned long> >::push_back
; Function compile flags: /Ogsp
;	COMDAT ?push_back@?$vector@KV?$allocator@K@std@@@std@@QAEXABK@Z
_TEXT	SEGMENT
__Val$ = 8						; size = 4
?push_back@?$vector@KV?$allocator@K@std@@@std@@QAEXABK@Z PROC ; std::vector<unsigned long,std::allocator<unsigned long> >::push_back, COMDAT
; _this$ = ecx

; 976  : 		{	// insert element at end

  00000	55		 push	 ebp
  00001	8b ec		 mov	 ebp, esp
  00003	56		 push	 esi
  00004	8b f1		 mov	 esi, ecx

; 977  : 		if (_Inside(_STD addressof(_Val)))

  00006	8b 46 04	 mov	 eax, DWORD PTR [esi+4]
  00009	57		 push	 edi
  0000a	8b 7d 08	 mov	 edi, DWORD PTR __Val$[ebp]
  0000d	3b f8		 cmp	 edi, eax
  0000f	73 27		 jae	 SHORT $LN4@push_back
  00011	8b 0e		 mov	 ecx, DWORD PTR [esi]
  00013	3b cf		 cmp	 ecx, edi
  00015	77 21		 ja	 SHORT $LN4@push_back

; 978  : 			{	// push back an element
; 979  : 			size_type _Idx = _STD addressof(_Val) - this->_Myfirst;

  00017	2b f9		 sub	 edi, ecx
  00019	c1 ff 02	 sar	 edi, 2

; 980  : 			if (this->_Mylast == this->_Myend)

  0001c	3b 46 08	 cmp	 eax, DWORD PTR [esi+8]
  0001f	75 09		 jne	 SHORT $LN3@push_back

; 981  : 				_Reserve(1);

  00021	6a 01		 push	 1
  00023	8b ce		 mov	 ecx, esi
  00025	e8 00 00 00 00	 call	 ?_Reserve@?$vector@KV?$allocator@K@std@@@std@@IAEXI@Z ; std::vector<unsigned long,std::allocator<unsigned long> >::_Reserve
$LN3@push_back:

; 982  : 			_Orphan_range(this->_Mylast, this->_Mylast);
; 983  : 			_Cons_val(this->_Alval,
; 984  : 				this->_Mylast,
; 985  : 				this->_Myfirst[_Idx]);

  0002a	8b 46 04	 mov	 eax, DWORD PTR [esi+4]
  0002d	85 c0		 test	 eax, eax
  0002f	74 20		 je	 SHORT $LN39@push_back
  00031	8b 0e		 mov	 ecx, DWORD PTR [esi]
  00033	8b 0c b9	 mov	 ecx, DWORD PTR [ecx+edi*4]

; 986  : 			++this->_Mylast;
; 987  : 			}
; 988  : 		else

  00036	eb 17		 jmp	 SHORT $LN46@push_back
$LN4@push_back:

; 989  : 			{	// push back a non-element
; 990  : 			if (this->_Mylast == this->_Myend)

  00038	3b 46 08	 cmp	 eax, DWORD PTR [esi+8]
  0003b	75 09		 jne	 SHORT $LN1@push_back

; 991  : 				_Reserve(1);

  0003d	6a 01		 push	 1
  0003f	8b ce		 mov	 ecx, esi
  00041	e8 00 00 00 00	 call	 ?_Reserve@?$vector@KV?$allocator@K@std@@@std@@IAEXI@Z ; std::vector<unsigned long,std::allocator<unsigned long> >::_Reserve
$LN1@push_back:

; 992  : 			_Orphan_range(this->_Mylast, this->_Mylast);
; 993  : 			_Cons_val(this->_Alval,
; 994  : 				this->_Mylast,
; 995  : 				_Val);

  00046	8b 46 04	 mov	 eax, DWORD PTR [esi+4]
  00049	85 c0		 test	 eax, eax
  0004b	74 04		 je	 SHORT $LN39@push_back
  0004d	8b 0f		 mov	 ecx, DWORD PTR [edi]
$LN46@push_back:
  0004f	89 08		 mov	 DWORD PTR [eax], ecx
$LN39@push_back:

; 996  : 			++this->_Mylast;

  00051	83 46 04 04	 add	 DWORD PTR [esi+4], 4
  00055	5f		 pop	 edi
  00056	5e		 pop	 esi

; 997  : 			}
; 998  : 		}

  00057	5d		 pop	 ebp
  00058	c2 04 00	 ret	 4
?push_back@?$vector@KV?$allocator@K@std@@@std@@QAEXABK@Z ENDP ; std::vector<unsigned long,std::allocator<unsigned long> >::push_back
; Function compile flags: /Ogsp
_TEXT	ENDS
;	COMDAT ??_GioTargetEquipObjectItemBuff@@UAEPAXI@Z
_TEXT	SEGMENT
___flags$ = 8						; size = 4
??_GioTargetEquipObjectItemBuff@@UAEPAXI@Z PROC		; ioTargetEquipObjectItemBuff::`scalar deleting destructor', COMDAT
; _this$ = ecx
  00000	55		 push	 ebp
  00001	8b ec		 mov	 ebp, esp
  00003	56		 push	 esi
  00004	8b f1		 mov	 esi, ecx
  00006	e8 00 00 00 00	 call	 ??1ioTargetEquipObjectItemBuff@@UAE@XZ ; ioTargetEquipObjectItemBuff::~ioTargetEquipObjectItemBuff
  0000b	f6 45 08 01	 test	 BYTE PTR ___flags$[ebp], 1
  0000f	74 07		 je	 SHORT $LN1@scalar@2
  00011	56		 push	 esi
  00012	e8 00 00 00 00	 call	 ??3@YAXPAX@Z		; operator delete
  00017	59		 pop	 ecx
$LN1@scalar@2:
  00018	8b c6		 mov	 eax, esi
  0001a	5e		 pop	 esi
  0001b	5d		 pop	 ebp
  0001c	c2 04 00	 ret	 4
??_GioTargetEquipObjectItemBuff@@UAEPAXI@Z ENDP		; ioTargetEquipObjectItemBuff::`scalar deleting destructor'
_TEXT	ENDS
PUBLIC	__$ArrayPad$
EXTRN	__imp__wsprintfA:PROC
EXTRN	?LoadProperty@ioBuff@@UAEXAAVioINILoader@@@Z:PROC ; ioBuff::LoadProperty
EXTRN	_memset:PROC
; Function compile flags: /Ogsp
; File d:\lost saga for developer\youtube\tutorial\source\src\lsclient\iotargetequipobjectitembuff.cpp
;	COMDAT ?LoadProperty@ioTargetEquipObjectItemBuff@@UAEXAAVioINILoader@@@Z
_TEXT	SEGMENT
tv2401 = -300						; size = 4
$T534633 = -300						; size = 4
_iCnt$ = -296						; size = 4
_dwItemCode$531802 = -292				; size = 4
_i$531645 = -292					; size = 4
_szKey$ = -288						; size = 260
__k$534461 = -28					; size = 16
__k$534336 = -28					; size = 19
___encStr$531652 = -28					; size = 19
__$ArrayPad$ = -4					; size = 4
_rkLoader$ = 8						; size = 4
?LoadProperty@ioTargetEquipObjectItemBuff@@UAEXAAVioINILoader@@@Z PROC ; ioTargetEquipObjectItemBuff::LoadProperty, COMDAT
; _this$ = ecx

; 30   : {

  00000	55		 push	 ebp
  00001	8b ec		 mov	 ebp, esp
  00003	81 ec 2c 01 00
	00		 sub	 esp, 300		; 0000012cH
  00009	a1 00 00 00 00	 mov	 eax, DWORD PTR ___security_cookie
  0000e	33 c5		 xor	 eax, ebp
  00010	89 45 fc	 mov	 DWORD PTR __$ArrayPad$[ebp], eax
  00013	53		 push	 ebx
  00014	56		 push	 esi
  00015	57		 push	 edi
  00016	8b 7d 08	 mov	 edi, DWORD PTR _rkLoader$[ebp]

; 31   : 	ioBuff::LoadProperty( rkLoader );

  00019	57		 push	 edi
  0001a	8b f1		 mov	 esi, ecx
  0001c	e8 00 00 00 00	 call	 ?LoadProperty@ioBuff@@UAEXAAVioINILoader@@@Z ; ioBuff::LoadProperty

; 32   : 
; 33   : 	char szBuf[MAX_PATH] = "";
; 34   : 	char szKey[MAX_PATH] = "";

  00021	33 db		 xor	 ebx, ebx
  00023	68 03 01 00 00	 push	 259			; 00000103H
  00028	8d 85 e1 fe ff
	ff		 lea	 eax, DWORD PTR _szKey$[ebp+1]
  0002e	53		 push	 ebx
  0002f	50		 push	 eax
  00030	88 9d e0 fe ff
	ff		 mov	 BYTE PTR _szKey$[ebp], bl
  00036	e8 00 00 00 00	 call	 _memset
  0003b	83 c4 0c	 add	 esp, 12			; 0000000cH

; 35   : 
; 36   : 	m_bDisableDownState = rkLoader.LoadBool_e( "disable_down_state", false );

  0003e	6a 04		 push	 4
  00040	c7 45 e4 89 85
	98 8b		 mov	 DWORD PTR __k$534336[ebp], -1952938615 ; 8b988589H
  00047	c7 45 e8 8f 80
	8e b5		 mov	 DWORD PTR __k$534336[ebp+4], -1248952177 ; b58e808fH
  0004e	c7 45 ec 89 83
	9c 84		 mov	 DWORD PTR __k$534336[ebp+8], -2070117495 ; 849c8389H
  00055	c7 45 f0 b2 9f
	9f 8b		 mov	 DWORD PTR __k$534336[ebp+12], -1952473166 ; 8b9f9fb2H
  0005c	66 c7 45 f4 99
	89		 mov	 WORD PTR __k$534336[ebp+16], 35225 ; 00008999H
  00062	8d 45 e4	 lea	 eax, DWORD PTR __k$534336[ebp]
  00065	88 5d f6	 mov	 BYTE PTR __k$534336[ebp+18], bl
  00068	59		 pop	 ecx
$LL208@LoadProper:
  00069	81 30 ed ec eb
	ea		 xor	 DWORD PTR [eax], -353637139 ; eaebecedH
  0006f	83 c0 04	 add	 eax, 4
  00072	49		 dec	 ecx
  00073	75 f4		 jne	 SHORT $LL208@LoadProper
  00075	6a 10		 push	 16			; 00000010H
  00077	58		 pop	 eax
$LL205@LoadProper:
  00078	8b c8		 mov	 ecx, eax
  0007a	81 e1 03 00 00
	80		 and	 ecx, -2147483645	; 80000003H
  00080	79 05		 jns	 SHORT $LN357@LoadProper
  00082	49		 dec	 ecx
  00083	83 c9 fc	 or	 ecx, -4			; fffffffcH
  00086	41		 inc	 ecx
$LN357@LoadProper:
  00087	b2 ed		 mov	 dl, -19			; ffffffedH
  00089	2a d1		 sub	 dl, cl
  0008b	30 54 05 e4	 xor	 BYTE PTR __k$534336[ebp+eax], dl
  0008f	40		 inc	 eax
  00090	83 f8 12	 cmp	 eax, 18			; 00000012H
  00093	7c e3		 jl	 SHORT $LL205@LoadProper
  00095	53		 push	 ebx
  00096	8d 45 e4	 lea	 eax, DWORD PTR __k$534336[ebp]
  00099	50		 push	 eax
  0009a	8b cf		 mov	 ecx, edi
  0009c	ff 15 00 00 00
	00		 call	 DWORD PTR __imp_?LoadBool@ioINILoader@@QAE_NPBD_N@Z
  000a2	6a 03		 push	 3
  000a4	88 86 6c 09 00
	00		 mov	 BYTE PTR [esi+2412], al

; 37   : 
; 38   : 	int iCnt = rkLoader.LoadInt_e( "create_item_cnt", 0 );

  000aa	c7 45 e4 8e 9e
	8e 8b		 mov	 DWORD PTR __k$534461[ebp], -1953587570 ; 8b8e9e8eH
  000b1	c7 45 e8 99 89
	b4 83		 mov	 DWORD PTR __k$534461[ebp+4], -2085320295 ; 83b48999H
  000b8	c7 45 ec 99 89
	86 b5		 mov	 DWORD PTR __k$534461[ebp+8], -1249474151 ; b5868999H
  000bf	8d 45 e4	 lea	 eax, DWORD PTR __k$534461[ebp]
  000c2	c7 45 f0 8e 82
	9f 00		 mov	 DWORD PTR __k$534461[ebp+12], 10453646 ; 009f828eH
  000c9	59		 pop	 ecx
$LL314@LoadProper:
  000ca	81 30 ed ec eb
	ea		 xor	 DWORD PTR [eax], -353637139 ; eaebecedH
  000d0	83 c0 04	 add	 eax, 4
  000d3	49		 dec	 ecx
  000d4	75 f4		 jne	 SHORT $LL314@LoadProper
  000d6	6a 0c		 push	 12			; 0000000cH
  000d8	58		 pop	 eax
$LL311@LoadProper:
  000d9	8b c8		 mov	 ecx, eax
  000db	81 e1 03 00 00
	80		 and	 ecx, -2147483645	; 80000003H
  000e1	79 05		 jns	 SHORT $LN358@LoadProper
  000e3	49		 dec	 ecx
  000e4	83 c9 fc	 or	 ecx, -4			; fffffffcH
  000e7	41		 inc	 ecx
$LN358@LoadProper:
  000e8	b2 ed		 mov	 dl, -19			; ffffffedH
  000ea	2a d1		 sub	 dl, cl
  000ec	30 54 05 e4	 xor	 BYTE PTR __k$534461[ebp+eax], dl
  000f0	40		 inc	 eax
  000f1	83 f8 0f	 cmp	 eax, 15			; 0000000fH
  000f4	7c e3		 jl	 SHORT $LL311@LoadProper
  000f6	53		 push	 ebx
  000f7	8d 45 e4	 lea	 eax, DWORD PTR __k$534461[ebp]
  000fa	50		 push	 eax
  000fb	8b cf		 mov	 ecx, edi
  000fd	ff 15 00 00 00
	00		 call	 DWORD PTR __imp_?LoadInt@ioINILoader@@QAEHPBDH@Z

; 39   : 
; 40   : 	m_vObjectItemList.clear();

  00103	81 c6 70 09 00
	00		 add	 esi, 2416		; 00000970H
  00109	8b 0e		 mov	 ecx, DWORD PTR [esi]
  0010b	89 85 d8 fe ff
	ff		 mov	 DWORD PTR _iCnt$[ebp], eax
  00111	8b 46 04	 mov	 eax, DWORD PTR [esi+4]
  00114	50		 push	 eax
  00115	51		 push	 ecx
  00116	8d 85 d4 fe ff
	ff		 lea	 eax, DWORD PTR $T534633[ebp]
  0011c	50		 push	 eax
  0011d	8b ce		 mov	 ecx, esi
  0011f	e8 00 00 00 00	 call	 ?erase@?$vector@KV?$allocator@K@std@@@std@@QAE?AV?$_Vector_iterator@V?$_Vector_val@KV?$allocator@K@std@@@std@@@2@V?$_Vector_const_iterator@V?$_Vector_val@KV?$allocator@K@std@@@std@@@2@0@Z ; std::vector<unsigned long,std::allocator<unsigned long> >::erase

; 41   : 	m_vObjectItemList.reserve( iCnt );

  00124	ff b5 d8 fe ff
	ff		 push	 DWORD PTR _iCnt$[ebp]
  0012a	8b ce		 mov	 ecx, esi
  0012c	e8 00 00 00 00	 call	 ?reserve@?$vector@KV?$allocator@K@std@@@std@@QAEXI@Z ; std::vector<unsigned long,std::allocator<unsigned long> >::reserve

; 42   : 
; 43   : 	for( int i=0; i < iCnt; ++i )

  00131	89 9d dc fe ff
	ff		 mov	 DWORD PTR _i$531645[ebp], ebx
  00137	39 9d d8 fe ff
	ff		 cmp	 DWORD PTR _iCnt$[ebp], ebx
  0013d	0f 8e b5 00 00
	00		 jle	 $LN100@LoadProper
$LL102@LoadProper:

; 39   : 
; 40   : 	m_vObjectItemList.clear();

  00143	6a 04		 push	 4

; 44   : 	{
; 45   : 		wsprintf_e( szKey, "create_item_code%d", i+1 );

  00145	c7 45 e4 8e 9e
	8e 8b		 mov	 DWORD PTR ___encStr$531652[ebp], -1953587570 ; 8b8e9e8eH
  0014c	c7 45 e8 99 89
	b4 83		 mov	 DWORD PTR ___encStr$531652[ebp+4], -2085320295 ; 83b48999H
  00153	c7 45 ec 99 89
	86 b5		 mov	 DWORD PTR ___encStr$531652[ebp+8], -1249474151 ; b5868999H
  0015a	c7 45 f0 8e 83
	8f 8f		 mov	 DWORD PTR ___encStr$531652[ebp+12], -1886420082 ; 8f8f838eH
  00161	66 c7 45 f4 c8
	88		 mov	 WORD PTR ___encStr$531652[ebp+16], 35016 ; 000088c8H
  00167	8d 45 e4	 lea	 eax, DWORD PTR ___encStr$531652[ebp]
  0016a	88 5d f6	 mov	 BYTE PTR ___encStr$531652[ebp+18], bl
  0016d	59		 pop	 ecx
$LL340@LoadProper:
  0016e	81 30 ed ec eb
	ea		 xor	 DWORD PTR [eax], -353637139 ; eaebecedH
  00174	83 c0 04	 add	 eax, 4
  00177	49		 dec	 ecx
  00178	75 f4		 jne	 SHORT $LL340@LoadProper
  0017a	6a 10		 push	 16			; 00000010H
  0017c	58		 pop	 eax
$LL337@LoadProper:
  0017d	8b c8		 mov	 ecx, eax
  0017f	81 e1 03 00 00
	80		 and	 ecx, -2147483645	; 80000003H
  00185	79 05		 jns	 SHORT $LN359@LoadProper
  00187	49		 dec	 ecx
  00188	83 c9 fc	 or	 ecx, -4			; fffffffcH
  0018b	41		 inc	 ecx
$LN359@LoadProper:
  0018c	b2 ed		 mov	 dl, -19			; ffffffedH
  0018e	2a d1		 sub	 dl, cl
  00190	30 54 05 e4	 xor	 BYTE PTR ___encStr$531652[ebp+eax], dl
  00194	40		 inc	 eax
  00195	83 f8 12	 cmp	 eax, 18			; 00000012H
  00198	7c e3		 jl	 SHORT $LL337@LoadProper
  0019a	8b 85 dc fe ff
	ff		 mov	 eax, DWORD PTR _i$531645[ebp]
  001a0	40		 inc	 eax
  001a1	50		 push	 eax
  001a2	89 85 d4 fe ff
	ff		 mov	 DWORD PTR tv2401[ebp], eax
  001a8	8d 45 e4	 lea	 eax, DWORD PTR ___encStr$531652[ebp]
  001ab	50		 push	 eax
  001ac	8d 85 e0 fe ff
	ff		 lea	 eax, DWORD PTR _szKey$[ebp]
  001b2	50		 push	 eax
  001b3	ff 15 00 00 00
	00		 call	 DWORD PTR __imp__wsprintfA
  001b9	83 c4 0c	 add	 esp, 12			; 0000000cH

; 46   : 		DWORD dwItemCode = rkLoader.LoadInt( szKey, 0 );

  001bc	53		 push	 ebx
  001bd	8d 85 e0 fe ff
	ff		 lea	 eax, DWORD PTR _szKey$[ebp]
  001c3	50		 push	 eax
  001c4	8b cf		 mov	 ecx, edi
  001c6	ff 15 00 00 00
	00		 call	 DWORD PTR __imp_?LoadInt@ioINILoader@@QAEHPBDH@Z
  001cc	89 85 dc fe ff
	ff		 mov	 DWORD PTR _dwItemCode$531802[ebp], eax

; 47   : 
; 48   : 		m_vObjectItemList.push_back( dwItemCode );

  001d2	8d 85 dc fe ff
	ff		 lea	 eax, DWORD PTR _dwItemCode$531802[ebp]
  001d8	50		 push	 eax
  001d9	8b ce		 mov	 ecx, esi
  001db	e8 00 00 00 00	 call	 ?push_back@?$vector@KV?$allocator@K@std@@@std@@QAEXABK@Z ; std::vector<unsigned long,std::allocator<unsigned long> >::push_back
  001e0	8b 85 d4 fe ff
	ff		 mov	 eax, DWORD PTR tv2401[ebp]
  001e6	89 85 dc fe ff
	ff		 mov	 DWORD PTR _i$531645[ebp], eax
  001ec	3b 85 d8 fe ff
	ff		 cmp	 eax, DWORD PTR _iCnt$[ebp]
  001f2	0f 8c 4b ff ff
	ff		 jl	 $LL102@LoadProper
$LN100@LoadProper:

; 49   : 	}
; 50   : }

  001f8	8b 4d fc	 mov	 ecx, DWORD PTR __$ArrayPad$[ebp]
  001fb	5f		 pop	 edi
  001fc	5e		 pop	 esi
  001fd	33 cd		 xor	 ecx, ebp
  001ff	5b		 pop	 ebx
  00200	e8 00 00 00 00	 call	 @__security_check_cookie@4
  00205	c9		 leave
  00206	c2 04 00	 ret	 4
?LoadProperty@ioTargetEquipObjectItemBuff@@UAEXAAVioINILoader@@@Z ENDP ; ioTargetEquipObjectItemBuff::LoadProperty
_TEXT	ENDS
PUBLIC	??0?$vector@KV?$allocator@K@std@@@std@@QAE@ABV01@@Z ; std::vector<unsigned long,std::allocator<unsigned long> >::vector<unsigned long,std::allocator<unsigned long> >
EXTRN	__EH_prolog3_catch:PROC
;	COMDAT xdata$x
; File c:\program files (x86)\microsoft visual studio 10.0\vc\include\xutility
xdata$x	SEGMENT
__catchsym$??0?$vector@KV?$allocator@K@std@@@std@@QAE@ABV01@@Z$2 DD 040H
	DD	00H
	DD	00H
	DD	FLAT:__catch$??0?$vector@KV?$allocator@K@std@@@std@@QAE@ABV01@@Z$0
__unwindtable$??0?$vector@KV?$allocator@K@std@@@std@@QAE@ABV01@@Z DD 0ffffffffH
	DD	00H
	DD	0ffffffffH
	DD	00H
__tryblocktable$??0?$vector@KV?$allocator@K@std@@@std@@QAE@ABV01@@Z DD 00H
	DD	00H
	DD	01H
	DD	01H
	DD	FLAT:__catchsym$??0?$vector@KV?$allocator@K@std@@@std@@QAE@ABV01@@Z$2
__ehfuncinfo$??0?$vector@KV?$allocator@K@std@@@std@@QAE@ABV01@@Z DD 019930522H
	DD	02H
	DD	FLAT:__unwindtable$??0?$vector@KV?$allocator@K@std@@@std@@QAE@ABV01@@Z
	DD	01H
	DD	FLAT:__tryblocktable$??0?$vector@KV?$allocator@K@std@@@std@@QAE@ABV01@@Z
	DD	2 DUP(00H)
	DD	00H
	DD	01H
; Function compile flags: /Ogsp
; File c:\program files (x86)\microsoft visual studio 10.0\vc\include\vector
xdata$x	ENDS
;	COMDAT ??0?$vector@KV?$allocator@K@std@@@std@@QAE@ABV01@@Z
_TEXT	SEGMENT
_this$ = -20						; size = 4
__$EHRec$ = -16						; size = 16
__Cat$534761 = 8					; size = 1
__Right$ = 8						; size = 4
??0?$vector@KV?$allocator@K@std@@@std@@QAE@ABV01@@Z PROC ; std::vector<unsigned long,std::allocator<unsigned long> >::vector<unsigned long,std::allocator<unsigned long> >, COMDAT
; _this$ = ecx

; 535  : 		{	// construct by copying _Right

  00000	6a 08		 push	 8
  00002	b8 00 00 00 00	 mov	 eax, __ehhandler$??0?$vector@KV?$allocator@K@std@@@std@@QAE@ABV01@@Z
  00007	e8 00 00 00 00	 call	 __EH_prolog3_catch
  0000c	8b f1		 mov	 esi, ecx
  0000e	89 75 ec	 mov	 DWORD PTR _this$[ebp], esi

; 536  : 		if (_Buy(_Right.size()))

  00011	8b 7d 08	 mov	 edi, DWORD PTR __Right$[ebp]
  00014	33 db		 xor	 ebx, ebx
  00016	89 1e		 mov	 DWORD PTR [esi], ebx
  00018	89 5e 04	 mov	 DWORD PTR [esi+4], ebx
  0001b	89 5e 08	 mov	 DWORD PTR [esi+8], ebx
  0001e	8b 47 04	 mov	 eax, DWORD PTR [edi+4]
  00021	2b 07		 sub	 eax, DWORD PTR [edi]
  00023	c1 f8 02	 sar	 eax, 2
  00026	50		 push	 eax
  00027	e8 00 00 00 00	 call	 ?_Buy@?$vector@KV?$allocator@K@std@@@std@@IAE_NI@Z ; std::vector<unsigned long,std::allocator<unsigned long> >::_Buy
  0002c	84 c0		 test	 al, al
  0002e	74 1f		 je	 SHORT $LN7@vector

; 537  : 			_TRY_BEGIN
; 538  : 			this->_Mylast = _Ucopy(_Right.begin(), _Right.end(),
; 539  : 				this->_Myfirst);

  00030	ff 75 08	 push	 DWORD PTR __Cat$534761[ebp]
  00033	8b 0e		 mov	 ecx, DWORD PTR [esi]
  00035	8b 47 04	 mov	 eax, DWORD PTR [edi+4]
  00038	8b 3f		 mov	 edi, DWORD PTR [edi]
  0003a	8d 56 0c	 lea	 edx, DWORD PTR [esi+12]
  0003d	52		 push	 edx
  0003e	51		 push	 ecx
  0003f	50		 push	 eax
  00040	57		 push	 edi
  00041	89 5d fc	 mov	 DWORD PTR __$EHRec$[ebp+12], ebx
  00044	e8 00 00 00 00	 call	 ??$_Uninit_copy@V?$_Vector_const_iterator@V?$_Vector_val@KV?$allocator@K@std@@@std@@@std@@PAKV?$allocator@K@2@@std@@YAPAKV?$_Vector_const_iterator@V?$_Vector_val@KV?$allocator@K@std@@@std@@@0@0PAKAAV?$allocator@K@0@U_Nonscalar_ptr_iterator_tag@0@@Z ; std::_Uninit_copy<std::_Vector_const_iterator<std::_Vector_val<unsigned long,std::allocator<unsigned long> > >,unsigned long *,std::allocator<unsigned long> >
  00049	83 c4 14	 add	 esp, 20			; 00000014H
  0004c	89 46 04	 mov	 DWORD PTR [esi+4], eax
$LN7@vector:

; 543  : 			_CATCH_END
; 544  : 		}

  0004f	8b c6		 mov	 eax, esi
  00051	e8 00 00 00 00	 call	 __EH_epilog3
  00056	c2 04 00	 ret	 4
__catch$??0?$vector@KV?$allocator@K@std@@@std@@QAE@ABV01@@Z$0:

; 540  : 			_CATCH_ALL
; 541  : 			_Tidy();

  00059	8b 4d ec	 mov	 ecx, DWORD PTR _this$[ebp]
  0005c	e8 00 00 00 00	 call	 ?_Tidy@?$vector@KV?$allocator@K@std@@@std@@IAEXXZ ; std::vector<unsigned long,std::allocator<unsigned long> >::_Tidy

; 542  : 			_RERAISE;

  00061	33 db		 xor	 ebx, ebx
  00063	53		 push	 ebx
  00064	53		 push	 ebx
  00065	e8 00 00 00 00	 call	 __CxxThrowException@8
$LN38@vector:
$LN37@vector:
  0006a	cc		 int	 3
_TEXT	ENDS
;	COMDAT text$x
text$x	SEGMENT
__ehhandler$??0?$vector@KV?$allocator@K@std@@@std@@QAE@ABV01@@Z:
  00000	8b 54 24 08	 mov	 edx, DWORD PTR [esp+8]
  00004	8d 42 0c	 lea	 eax, DWORD PTR [edx+12]
  00007	8b 4a e8	 mov	 ecx, DWORD PTR [edx-24]
  0000a	33 c8		 xor	 ecx, eax
  0000c	e8 00 00 00 00	 call	 @__security_check_cookie@4
  00011	b8 00 00 00 00	 mov	 eax, OFFSET __ehfuncinfo$??0?$vector@KV?$allocator@K@std@@@std@@QAE@ABV01@@Z
  00016	e9 00 00 00 00	 jmp	 ___CxxFrameHandler3
text$x	ENDS
??0?$vector@KV?$allocator@K@std@@@std@@QAE@ABV01@@Z ENDP ; std::vector<unsigned long,std::allocator<unsigned long> >::vector<unsigned long,std::allocator<unsigned long> >
PUBLIC	??0ioTargetEquipObjectItemBuff@@QAE@ABV0@@Z	; ioTargetEquipObjectItemBuff::ioTargetEquipObjectItemBuff
EXTRN	??0ioBuff@@QAE@ABV0@@Z:PROC			; ioBuff::ioBuff
;	COMDAT xdata$x
; File d:\lost saga for developer\youtube\tutorial\source\src\lsclient\iotargetequipobjectitembuff.cpp
xdata$x	SEGMENT
__unwindtable$??0ioTargetEquipObjectItemBuff@@QAE@ABV0@@Z DD 0ffffffffH
	DD	FLAT:__unwindfunclet$??0ioTargetEquipObjectItemBuff@@QAE@ABV0@@Z$0
__ehfuncinfo$??0ioTargetEquipObjectItemBuff@@QAE@ABV0@@Z DD 019930522H
	DD	01H
	DD	FLAT:__unwindtable$??0ioTargetEquipObjectItemBuff@@QAE@ABV0@@Z
	DD	2 DUP(00H)
	DD	2 DUP(00H)
	DD	00H
	DD	01H
; Function compile flags: /Ogsp
xdata$x	ENDS
;	COMDAT ??0ioTargetEquipObjectItemBuff@@QAE@ABV0@@Z
_TEXT	SEGMENT
_this$ = -16						; size = 4
__$EHRec$ = -12						; size = 12
_rhs$ = 8						; size = 4
??0ioTargetEquipObjectItemBuff@@QAE@ABV0@@Z PROC	; ioTargetEquipObjectItemBuff::ioTargetEquipObjectItemBuff, COMDAT
; _this$ = ecx

; 20   : {

  00000	6a 04		 push	 4
  00002	b8 00 00 00 00	 mov	 eax, __ehhandler$??0ioTargetEquipObjectItemBuff@@QAE@ABV0@@Z
  00007	e8 00 00 00 00	 call	 __EH_prolog3
  0000c	8b f1		 mov	 esi, ecx
  0000e	89 75 f0	 mov	 DWORD PTR _this$[ebp], esi
  00011	8b 7d 08	 mov	 edi, DWORD PTR _rhs$[ebp]
  00014	57		 push	 edi
  00015	e8 00 00 00 00	 call	 ??0ioBuff@@QAE@ABV0@@Z	; ioBuff::ioBuff
  0001a	83 65 fc 00	 and	 DWORD PTR __$EHRec$[ebp+8], 0
  0001e	c7 06 00 00 00
	00		 mov	 DWORD PTR [esi], OFFSET ??_7ioTargetEquipObjectItemBuff@@6B@
  00024	8a 87 6c 09 00
	00		 mov	 al, BYTE PTR [edi+2412]
  0002a	81 c7 70 09 00
	00		 add	 edi, 2416		; 00000970H
  00030	57		 push	 edi
  00031	8d 8e 70 09 00
	00		 lea	 ecx, DWORD PTR [esi+2416]
  00037	88 86 6c 09 00
	00		 mov	 BYTE PTR [esi+2412], al
  0003d	e8 00 00 00 00	 call	 ??0?$vector@KV?$allocator@K@std@@@std@@QAE@ABV01@@Z ; std::vector<unsigned long,std::allocator<unsigned long> >::vector<unsigned long,std::allocator<unsigned long> >

; 21   : 	m_dwCurObjectItem = 0;	

  00042	83 a6 80 09 00
	00 00		 and	 DWORD PTR [esi+2432], 0

; 22   : 	m_ObjectState = OE_NONE;

  00049	83 a6 88 09 00
	00 00		 and	 DWORD PTR [esi+2440], 0

; 23   : }

  00050	8b c6		 mov	 eax, esi
  00052	e8 00 00 00 00	 call	 __EH_epilog3
  00057	c2 04 00	 ret	 4
_TEXT	ENDS
;	COMDAT text$x
text$x	SEGMENT
__unwindfunclet$??0ioTargetEquipObjectItemBuff@@QAE@ABV0@@Z$0:
  00000	8b 4d f0	 mov	 ecx, DWORD PTR _this$[ebp]
  00003	e9 00 00 00 00	 jmp	 ??1ioBuff@@UAE@XZ	; ioBuff::~ioBuff
__ehhandler$??0ioTargetEquipObjectItemBuff@@QAE@ABV0@@Z:
  00008	8b 54 24 08	 mov	 edx, DWORD PTR [esp+8]
  0000c	8d 42 0c	 lea	 eax, DWORD PTR [edx+12]
  0000f	8b 4a ec	 mov	 ecx, DWORD PTR [edx-20]
  00012	33 c8		 xor	 ecx, eax
  00014	e8 00 00 00 00	 call	 @__security_check_cookie@4
  00019	b8 00 00 00 00	 mov	 eax, OFFSET __ehfuncinfo$??0ioTargetEquipObjectItemBuff@@QAE@ABV0@@Z
  0001e	e9 00 00 00 00	 jmp	 ___CxxFrameHandler3
text$x	ENDS
??0ioTargetEquipObjectItemBuff@@QAE@ABV0@@Z ENDP	; ioTargetEquipObjectItemBuff::ioTargetEquipObjectItemBuff
;	COMDAT xdata$x
xdata$x	SEGMENT
__unwindtable$?Clone@ioTargetEquipObjectItemBuff@@UAEPAVioBuff@@XZ DD 0ffffffffH
	DD	FLAT:__unwindfunclet$?Clone@ioTargetEquipObjectItemBuff@@UAEPAVioBuff@@XZ$0
__ehfuncinfo$?Clone@ioTargetEquipObjectItemBuff@@UAEPAVioBuff@@XZ DD 019930522H
	DD	01H
	DD	FLAT:__unwindtable$?Clone@ioTargetEquipObjectItemBuff@@UAEPAVioBuff@@XZ
	DD	2 DUP(00H)
	DD	2 DUP(00H)
	DD	00H
	DD	01H
; Function compile flags: /Ogsp
xdata$x	ENDS
;	COMDAT ?Clone@ioTargetEquipObjectItemBuff@@UAEPAVioBuff@@XZ
_TEXT	SEGMENT
$T534792 = -16						; size = 4
__$EHRec$ = -12						; size = 12
?Clone@ioTargetEquipObjectItemBuff@@UAEPAVioBuff@@XZ PROC ; ioTargetEquipObjectItemBuff::Clone, COMDAT
; _this$ = ecx

; 53   : {

  00000	6a 04		 push	 4
  00002	b8 00 00 00 00	 mov	 eax, __ehhandler$?Clone@ioTargetEquipObjectItemBuff@@UAEPAVioBuff@@XZ
  00007	e8 00 00 00 00	 call	 __EH_prolog3
  0000c	8b f1		 mov	 esi, ecx

; 54   : 	return new ioTargetEquipObjectItemBuff( *this );

  0000e	68 8c 09 00 00	 push	 2444			; 0000098cH
  00013	e8 00 00 00 00	 call	 ??2@YAPAXI@Z		; operator new
  00018	59		 pop	 ecx
  00019	8b c8		 mov	 ecx, eax
  0001b	89 4d f0	 mov	 DWORD PTR $T534792[ebp], ecx
  0001e	33 c0		 xor	 eax, eax
  00020	89 45 fc	 mov	 DWORD PTR __$EHRec$[ebp+8], eax
  00023	3b c8		 cmp	 ecx, eax
  00025	74 06		 je	 SHORT $LN3@Clone
  00027	56		 push	 esi
  00028	e8 00 00 00 00	 call	 ??0ioTargetEquipObjectItemBuff@@QAE@ABV0@@Z ; ioTargetEquipObjectItemBuff::ioTargetEquipObjectItemBuff
$LN3@Clone:

; 55   : }

  0002d	e8 00 00 00 00	 call	 __EH_epilog3
  00032	c3		 ret	 0
_TEXT	ENDS
;	COMDAT text$x
text$x	SEGMENT
__unwindfunclet$?Clone@ioTargetEquipObjectItemBuff@@UAEPAVioBuff@@XZ$0:
  00000	ff 75 f0	 push	 DWORD PTR $T534792[ebp]
  00003	e8 00 00 00 00	 call	 ??3@YAXPAX@Z		; operator delete
  00008	59		 pop	 ecx
  00009	c3		 ret	 0
__ehhandler$?Clone@ioTargetEquipObjectItemBuff@@UAEPAVioBuff@@XZ:
  0000a	8b 54 24 08	 mov	 edx, DWORD PTR [esp+8]
  0000e	8d 42 0c	 lea	 eax, DWORD PTR [edx+12]
  00011	8b 4a ec	 mov	 ecx, DWORD PTR [edx-20]
  00014	33 c8		 xor	 ecx, eax
  00016	e8 00 00 00 00	 call	 @__security_check_cookie@4
  0001b	b8 00 00 00 00	 mov	 eax, OFFSET __ehfuncinfo$?Clone@ioTargetEquipObjectItemBuff@@UAEPAVioBuff@@XZ
  00020	e9 00 00 00 00	 jmp	 ___CxxFrameHandler3
text$x	ENDS
?Clone@ioTargetEquipObjectItemBuff@@UAEPAVioBuff@@XZ ENDP ; ioTargetEquipObjectItemBuff::Clone
END
