; Listing generated by Microsoft (R) Optimizing Compiler Version 16.00.30319.01 

	TITLE	D:\Lost Saga For Developer\Youtube\Tutorial\Source\src\LSClient\ioTargetTrace11Dummy.cpp
	.686P
	.XMM
	include listing.inc
	.model	flat

INCLUDELIB MSVCRT
INCLUDELIB OLDNAMES

PUBLIC	?_EEM_DS@?$deque@UD3DXVECTOR3@@V?$allocator@UD3DXVECTOR3@@@std@@@std@@2HB ; std::deque<D3DXVECTOR3,std::allocator<D3DXVECTOR3> >::_EEM_DS
;	COMDAT ?_EEM_DS@?$deque@UD3DXVECTOR3@@V?$allocator@UD3DXVECTOR3@@@std@@@std@@2HB
CONST	SEGMENT
?_EEM_DS@?$deque@UD3DXVECTOR3@@V?$allocator@UD3DXVECTOR3@@@std@@@std@@2HB DD 01H ; std::deque<D3DXVECTOR3,std::allocator<D3DXVECTOR3> >::_EEM_DS
CONST	ENDS
PUBLIC	?GetBaseCharList@ioPlayStage@@QBEABV?$vector@PAVioBaseChar@@V?$allocator@PAVioBaseChar@@@std@@@std@@XZ ; ioPlayStage::GetBaseCharList
; Function compile flags: /Ogsp
; File d:\lost saga for developer\youtube\tutorial\source\src\lsclient\ioplaystage.h
;	COMDAT ?GetBaseCharList@ioPlayStage@@QBEABV?$vector@PAVioBaseChar@@V?$allocator@PAVioBaseChar@@@std@@@std@@XZ
_TEXT	SEGMENT
?GetBaseCharList@ioPlayStage@@QBEABV?$vector@PAVioBaseChar@@V?$allocator@PAVioBaseChar@@@std@@@std@@XZ PROC ; ioPlayStage::GetBaseCharList, COMDAT
; _this$ = ecx

; 755  : 	const BaseCharList& GetBaseCharList() const { return m_BaseCharList; }

  00000	8d 41 2c	 lea	 eax, DWORD PTR [ecx+44]
  00003	c3		 ret	 0
?GetBaseCharList@ioPlayStage@@QBEABV?$vector@PAVioBaseChar@@V?$allocator@PAVioBaseChar@@@std@@@std@@XZ ENDP ; ioPlayStage::GetBaseCharList
_TEXT	ENDS
PUBLIC	?return5@@YAIXZ					; return5
; Function compile flags: /Ogsp
; File d:\lost saga for developer\youtube\tutorial\source\src\lsclient\stdafx.h
;	COMDAT ?return5@@YAIXZ
_TEXT	SEGMENT
?return5@@YAIXZ PROC					; return5, COMDAT

; 18   : 	__forceinline unsigned int return5() { __asm mov eax, 5 };

  00000	b8 05 00 00 00	 mov	 eax, 5
  00005	c3		 ret	 0
?return5@@YAIXZ ENDP					; return5
_TEXT	ENDS
PUBLIC	?return10@@YAIXZ				; return10
; Function compile flags: /Ogsp
;	COMDAT ?return10@@YAIXZ
_TEXT	SEGMENT
?return10@@YAIXZ PROC					; return10, COMDAT

; 21   : 	__forceinline unsigned int return10() { __asm mov eax, 10 };

  00000	b8 0a 00 00 00	 mov	 eax, 10			; 0000000aH
  00005	c3		 ret	 0
?return10@@YAIXZ ENDP					; return10
_TEXT	ENDS
PUBLIC	_acosf
EXTRN	__fltused:DWORD
EXTRN	__CIacos:PROC
; Function compile flags: /Ogsp
; File c:\program files (x86)\microsoft visual studio 10.0\vc\include\math.h
;	COMDAT _acosf
_TEXT	SEGMENT
tv69 = 8						; size = 4
__X$ = 8						; size = 4
_acosf	PROC						; COMDAT

; 400  :         {return ((float)acos((double)_X)); }

  00000	55		 push	 ebp
  00001	8b ec		 mov	 ebp, esp
  00003	d9 45 08	 fld	 DWORD PTR __X$[ebp]
  00006	e8 00 00 00 00	 call	 __CIacos
  0000b	d9 5d 08	 fstp	 DWORD PTR tv69[ebp]
  0000e	d9 45 08	 fld	 DWORD PTR tv69[ebp]
  00011	5d		 pop	 ebp
  00012	c3		 ret	 0
_acosf	ENDP
_TEXT	ENDS
PUBLIC	_cosf
EXTRN	__CIcos:PROC
; Function compile flags: /Ogsp
;	COMDAT _cosf
_TEXT	SEGMENT
tv69 = 8						; size = 4
__X$ = 8						; size = 4
_cosf	PROC						; COMDAT

; 410  :         {return ((float)cos((double)_X)); }

  00000	55		 push	 ebp
  00001	8b ec		 mov	 ebp, esp
  00003	d9 45 08	 fld	 DWORD PTR __X$[ebp]
  00006	e8 00 00 00 00	 call	 __CIcos
  0000b	d9 5d 08	 fstp	 DWORD PTR tv69[ebp]
  0000e	d9 45 08	 fld	 DWORD PTR tv69[ebp]
  00011	5d		 pop	 ebp
  00012	c3		 ret	 0
_cosf	ENDP
_TEXT	ENDS
PUBLIC	?GetCharName@ioBaseChar@@QBEABVioHashString@@XZ	; ioBaseChar::GetCharName
; Function compile flags: /Ogsp
; File d:\lost saga for developer\youtube\tutorial\source\src\lsclient\iobasechar.h
;	COMDAT ?GetCharName@ioBaseChar@@QBEABVioHashString@@XZ
_TEXT	SEGMENT
?GetCharName@ioBaseChar@@QBEABVioHashString@@XZ PROC	; ioBaseChar::GetCharName, COMDAT
; _this$ = ecx

; 2594 : 	inline const ioHashString& GetCharName() const { return m_Name; }

  00000	8d 81 d4 02 00
	00		 lea	 eax, DWORD PTR [ecx+724]
  00006	c3		 ret	 0
?GetCharName@ioBaseChar@@QBEABVioHashString@@XZ ENDP	; ioBaseChar::GetCharName
_TEXT	ENDS
PUBLIC	?GetCreator@ioBaseChar@@QAEPAVioPlayStage@@XZ	; ioBaseChar::GetCreator
; Function compile flags: /Ogsp
;	COMDAT ?GetCreator@ioBaseChar@@QAEPAVioPlayStage@@XZ
_TEXT	SEGMENT
?GetCreator@ioBaseChar@@QAEPAVioPlayStage@@XZ PROC	; ioBaseChar::GetCreator, COMDAT
; _this$ = ecx

; 4013 : 	inline ioPlayStage* GetCreator() { return m_pCreator; }

  00000	8b 81 44 03 00
	00		 mov	 eax, DWORD PTR [ecx+836]
  00006	c3		 ret	 0
?GetCreator@ioBaseChar@@QAEPAVioPlayStage@@XZ ENDP	; ioBaseChar::GetCreator
_TEXT	ENDS
PUBLIC	??_R0?AVioWeapon@@@8				; ioWeapon `RTTI Type Descriptor'
PUBLIC	??_R0?AVioZoneEffectWeapon@@@8			; ioZoneEffectWeapon `RTTI Type Descriptor'
PUBLIC	?ToZoneEffectWeapon@@YAPAVioZoneEffectWeapon@@PAVioWeapon@@@Z ; ToZoneEffectWeapon
EXTRN	___RTDynamicCast:PROC
EXTRN	??_7type_info@@6B@:QWORD			; type_info::`vftable'
;	COMDAT ??_R0?AVioWeapon@@@8
; File d:\lost saga for developer\youtube\tutorial\source\src\lsclient\iozoneeffectweapon.h
_DATA	SEGMENT
??_R0?AVioWeapon@@@8 DD FLAT:??_7type_info@@6B@		; ioWeapon `RTTI Type Descriptor'
	DD	00H
	DB	'.?AVioWeapon@@', 00H
_DATA	ENDS
;	COMDAT ??_R0?AVioZoneEffectWeapon@@@8
_DATA	SEGMENT
??_R0?AVioZoneEffectWeapon@@@8 DD FLAT:??_7type_info@@6B@ ; ioZoneEffectWeapon `RTTI Type Descriptor'
	DD	00H
	DB	'.?AVioZoneEffectWeapon@@', 00H
; Function compile flags: /Ogsp
_DATA	ENDS
;	COMDAT ?ToZoneEffectWeapon@@YAPAVioZoneEffectWeapon@@PAVioWeapon@@@Z
_TEXT	SEGMENT
_pWeapon$ = 8						; size = 4
?ToZoneEffectWeapon@@YAPAVioZoneEffectWeapon@@PAVioWeapon@@@Z PROC ; ToZoneEffectWeapon, COMDAT

; 217  : {

  00000	55		 push	 ebp
  00001	8b ec		 mov	 ebp, esp
  00003	56		 push	 esi

; 218  : 	if( !pWeapon || pWeapon->GetType() != ioWeapon::WT_ZONE_EFFECT )

  00004	8b 75 08	 mov	 esi, DWORD PTR _pWeapon$[ebp]
  00007	85 f6		 test	 esi, esi
  00009	74 28		 je	 SHORT $LN1@ToZoneEffe
  0000b	8b 06		 mov	 eax, DWORD PTR [esi]
  0000d	8b ce		 mov	 ecx, esi
  0000f	ff 90 10 01 00
	00		 call	 DWORD PTR [eax+272]
  00015	83 f8 08	 cmp	 eax, 8
  00018	75 19		 jne	 SHORT $LN1@ToZoneEffe

; 220  : 
; 221  : 	return dynamic_cast< ioZoneEffectWeapon* >( pWeapon );

  0001a	6a 00		 push	 0
  0001c	68 00 00 00 00	 push	 OFFSET ??_R0?AVioZoneEffectWeapon@@@8
  00021	68 00 00 00 00	 push	 OFFSET ??_R0?AVioWeapon@@@8
  00026	6a 00		 push	 0
  00028	56		 push	 esi
  00029	e8 00 00 00 00	 call	 ___RTDynamicCast
  0002e	83 c4 14	 add	 esp, 20			; 00000014H
  00031	eb 02		 jmp	 SHORT $LN3@ToZoneEffe
$LN1@ToZoneEffe:

; 219  : 		return NULL;

  00033	33 c0		 xor	 eax, eax
$LN3@ToZoneEffe:
  00035	5e		 pop	 esi

; 222  : }

  00036	5d		 pop	 ebp
  00037	c3		 ret	 0
?ToZoneEffectWeapon@@YAPAVioZoneEffectWeapon@@PAVioWeapon@@@Z ENDP ; ToZoneEffectWeapon
_TEXT	ENDS
PUBLIC	??_7ioTargetTrace11Dummy@@6BioWorldEventReceiver@@@ ; ioTargetTrace11Dummy::`vftable'
PUBLIC	??_7ioTargetTrace11Dummy@@6BioPlayEntity@@@	; ioTargetTrace11Dummy::`vftable'
PUBLIC	??1ioTargetTrace11Dummy@@UAE@XZ			; ioTargetTrace11Dummy::~ioTargetTrace11Dummy
PUBLIC	??_R4ioTargetTrace11Dummy@@6BioPlayEntity@@@	; ioTargetTrace11Dummy::`RTTI Complete Object Locator'
PUBLIC	??_R0?AVioTargetTrace11Dummy@@@8		; ioTargetTrace11Dummy `RTTI Type Descriptor'
PUBLIC	??_R3ioTargetTrace11Dummy@@8			; ioTargetTrace11Dummy::`RTTI Class Hierarchy Descriptor'
PUBLIC	??_R2ioTargetTrace11Dummy@@8			; ioTargetTrace11Dummy::`RTTI Base Class Array'
PUBLIC	??_R1A@?0A@EA@ioTargetTrace11Dummy@@8		; ioTargetTrace11Dummy::`RTTI Base Class Descriptor at (0,-1,0,64)'
PUBLIC	??_R1A@?0A@EA@ioDummyChar@@8			; ioDummyChar::`RTTI Base Class Descriptor at (0,-1,0,64)'
PUBLIC	??_R0?AVioDummyChar@@@8				; ioDummyChar `RTTI Type Descriptor'
PUBLIC	??_R3ioDummyChar@@8				; ioDummyChar::`RTTI Class Hierarchy Descriptor'
PUBLIC	??_R2ioDummyChar@@8				; ioDummyChar::`RTTI Base Class Array'
PUBLIC	??_R1A@?0A@EA@ioPlayEntity@@8			; ioPlayEntity::`RTTI Base Class Descriptor at (0,-1,0,64)'
PUBLIC	??_R0?AVioPlayEntity@@@8			; ioPlayEntity `RTTI Type Descriptor'
PUBLIC	??_R3ioPlayEntity@@8				; ioPlayEntity::`RTTI Class Hierarchy Descriptor'
PUBLIC	??_R2ioPlayEntity@@8				; ioPlayEntity::`RTTI Base Class Array'
PUBLIC	??_R1A@?0A@EA@ioGameEntity@@8			; ioGameEntity::`RTTI Base Class Descriptor at (0,-1,0,64)'
PUBLIC	??_R0?AVioGameEntity@@@8			; ioGameEntity `RTTI Type Descriptor'
PUBLIC	??_R3ioGameEntity@@8				; ioGameEntity::`RTTI Class Hierarchy Descriptor'
PUBLIC	??_R2ioGameEntity@@8				; ioGameEntity::`RTTI Base Class Array'
PUBLIC	??_R1A@?0A@EA@ioEntityEvent@@8			; ioEntityEvent::`RTTI Base Class Descriptor at (0,-1,0,64)'
PUBLIC	??_R0?AVioEntityEvent@@@8			; ioEntityEvent `RTTI Type Descriptor'
PUBLIC	??_R3ioEntityEvent@@8				; ioEntityEvent::`RTTI Class Hierarchy Descriptor'
PUBLIC	??_R2ioEntityEvent@@8				; ioEntityEvent::`RTTI Base Class Array'
PUBLIC	??_R1BMI@?0A@EA@ioWorldEventReceiver@@8		; ioWorldEventReceiver::`RTTI Base Class Descriptor at (456,-1,0,64)'
PUBLIC	??_R0?AVioWorldEventReceiver@@@8		; ioWorldEventReceiver `RTTI Type Descriptor'
PUBLIC	??_R3ioWorldEventReceiver@@8			; ioWorldEventReceiver::`RTTI Class Hierarchy Descriptor'
PUBLIC	??_R2ioWorldEventReceiver@@8			; ioWorldEventReceiver::`RTTI Base Class Array'
PUBLIC	??_R1A@?0A@EA@ioWorldEventReceiver@@8		; ioWorldEventReceiver::`RTTI Base Class Descriptor at (0,-1,0,64)'
PUBLIC	?TranslateByConveyer@ioTargetTrace11Dummy@@UAEXABUD3DXVECTOR3@@@Z ; ioTargetTrace11Dummy::TranslateByConveyer
PUBLIC	?LoadProperty@ioTargetTrace11Dummy@@UAEXAAVioINILoader@@@Z ; ioTargetTrace11Dummy::LoadProperty
PUBLIC	?SetTeam@ioPlayEntity@@UAEXW4TeamType@@@Z	; ioPlayEntity::SetTeam
PUBLIC	?ProcessState@ioTargetTrace11Dummy@@MAEXMK@Z	; ioTargetTrace11Dummy::ProcessState
PUBLIC	?ProcessDelayState@ioTargetTrace11Dummy@@MAEXM@Z ; ioTargetTrace11Dummy::ProcessDelayState
PUBLIC	?IsDummyCharMidSync@ioDummyChar@@UAE_NXZ	; ioDummyChar::IsDummyCharMidSync
PUBLIC	?SetDieState@ioTargetTrace11Dummy@@UAEX_N@Z	; ioTargetTrace11Dummy::SetDieState
PUBLIC	??_R4ioTargetTrace11Dummy@@6BioWorldEventReceiver@@@ ; ioTargetTrace11Dummy::`RTTI Complete Object Locator'
PUBLIC	??_EioTargetTrace11Dummy@@WBMI@AEPAXI@Z		; [thunk]:ioTargetTrace11Dummy::`vector deleting destructor'
EXTRN	??1ioDummyChar@@UAE@XZ:PROC			; ioDummyChar::~ioDummyChar
EXTRN	__imp_??1ioHashString@@QAE@XZ:PROC
EXTRN	___CxxFrameHandler3:PROC
EXTRN	@__security_check_cookie@4:PROC
EXTRN	__EH_epilog3:PROC
EXTRN	__EH_prolog3:PROC
EXTRN	?AddEntityEvent@ioDummyChar@@UAEXPAVioEntity@@@Z:PROC ; ioDummyChar::AddEntityEvent
EXTRN	??_EioTargetTrace11Dummy@@UAEPAXI@Z:PROC	; ioTargetTrace11Dummy::`vector deleting destructor'
EXTRN	?Update@ioDummyChar@@UAEXMKK@Z:PROC		; ioDummyChar::Update
EXTRN	?UpdateAfter@ioDummyChar@@UAEXM@Z:PROC		; ioDummyChar::UpdateAfter
EXTRN	?GetTypeID@ioPlayEntity@@UBEHXZ:PROC		; ioPlayEntity::GetTypeID
EXTRN	?IsNeedCheckMapCollision@ioDummyChar@@UBE_NXZ:PROC ; ioDummyChar::IsNeedCheckMapCollision
EXTRN	?IsMountAvailable@ioDummyChar@@UBE_NXZ:PROC	; ioDummyChar::IsMountAvailable
EXTRN	?IsMountingAvailable@ioDummyChar@@UBE_NXZ:PROC	; ioDummyChar::IsMountingAvailable
EXTRN	?IsNowMountEnable@ioDummyChar@@UBE_NXZ:PROC	; ioDummyChar::IsNowMountEnable
EXTRN	?IsAllWeaponDefence@ioGameEntity@@UBE_NXZ:PROC	; ioGameEntity::IsAllWeaponDefence
EXTRN	?HasEntity@ioGameEntity@@UAE_NABVioHashString@@@Z:PROC ; ioGameEntity::HasEntity
EXTRN	?AddEntity@ioGameEntity@@UAEPAVioEntity@@ABVioHashString@@@Z:PROC ; ioGameEntity::AddEntity
EXTRN	?DestroyEntity@ioGameEntity@@UAE_NABVioHashString@@@Z:PROC ; ioGameEntity::DestroyEntity
EXTRN	?GetEntity@ioGameEntity@@UAEPAVioEntity@@ABVioHashString@@@Z:PROC ; ioGameEntity::GetEntity
EXTRN	?UpdateBound@ioGameEntity@@MBEXXZ:PROC		; ioGameEntity::UpdateBound
EXTRN	?UpdateBottomHeight@ioDummyChar@@MBEXXZ:PROC	; ioDummyChar::UpdateBottomHeight
EXTRN	?NeedUpdateBottomHeight@ioDummyChar@@UAEXXZ:PROC ; ioDummyChar::NeedUpdateBottomHeight
EXTRN	?SetWorldPosition@ioGameEntity@@UAEXABUD3DXVECTOR3@@@Z:PROC ; ioGameEntity::SetWorldPosition
EXTRN	?SetWorldOrientation@ioGameEntity@@UAEXABUD3DXQUATERNION@@@Z:PROC ; ioGameEntity::SetWorldOrientation
EXTRN	?SetWorldScale@ioGameEntity@@UAEXABUD3DXVECTOR3@@@Z:PROC ; ioGameEntity::SetWorldScale
EXTRN	?Translate@ioDummyChar@@UAEXABUD3DXVECTOR3@@@Z:PROC ; ioDummyChar::Translate
EXTRN	?TranslateByWorldEntity@ioDummyChar@@UAEXABUD3DXVECTOR3@@@Z:PROC ; ioDummyChar::TranslateByWorldEntity
EXTRN	?MapCollisionPushingTranslate@ioDummyChar@@UAEXABUD3DXVECTOR3@@@Z:PROC ; ioDummyChar::MapCollisionPushingTranslate
EXTRN	?DontMoveCollisionPushingTranslate@ioGameEntity@@UAEXPAV1@ABUD3DXVECTOR3@@@Z:PROC ; ioGameEntity::DontMoveCollisionPushingTranslate
EXTRN	?Rotate@ioGameEntity@@UAEXABUD3DXVECTOR3@@MW4TransformSpace@ioNode@@@Z:PROC ; ioGameEntity::Rotate
EXTRN	?Scale@ioGameEntity@@UAEXMMM@Z:PROC		; ioGameEntity::Scale
EXTRN	?Scale@ioGameEntity@@UAEXABUD3DXVECTOR3@@@Z:PROC ; ioGameEntity::Scale
EXTRN	?GetWorldPosition@ioGameEntity@@UBEABUD3DXVECTOR3@@XZ:PROC ; ioGameEntity::GetWorldPosition
EXTRN	?GetWorldOrientation@ioGameEntity@@UBEABUD3DXQUATERNION@@XZ:PROC ; ioGameEntity::GetWorldOrientation
EXTRN	?GetWorldScale@ioGameEntity@@UBEABUD3DXVECTOR3@@XZ:PROC ; ioGameEntity::GetWorldScale
EXTRN	?ApplyWeapon@ioDummyChar@@UAE?AW4ApplyWeaponExp@@PAVioWeapon@@@Z:PROC ; ioDummyChar::ApplyWeapon
EXTRN	?IsCollisionAvailableWeapon@ioDummyChar@@UAE_NPAVioWeapon@@@Z:PROC ; ioDummyChar::IsCollisionAvailableWeapon
EXTRN	?IsCollisionAvailableRange@ioPlayEntity@@UAE_NPAVioWeapon@@@Z:PROC ; ioPlayEntity::IsCollisionAvailableRange
EXTRN	?IsEntityCollisionSkipState@ioDummyChar@@UBE_NPAVioGameEntity@@@Z:PROC ; ioDummyChar::IsEntityCollisionSkipState
EXTRN	?IsCharCollisionSkipState@ioDummyChar@@UBE_NW4TeamType@@H@Z:PROC ; ioDummyChar::IsCharCollisionSkipState
EXTRN	?IsWoundedCollision@ioPlayEntity@@UBE_NABVioOrientBox@@PAUD3DXVECTOR3@@@Z:PROC ; ioPlayEntity::IsWoundedCollision
EXTRN	?GetAttackCollisionBox@ioDummyChar@@UAE?AVioOrientBox@@W4AniCollisionType@@_N@Z:PROC ; ioDummyChar::GetAttackCollisionBox
EXTRN	?CheckSphereDistance@ioPlayEntity@@UBE_NABUD3DXVECTOR3@@MAAM@Z:PROC ; ioPlayEntity::CheckSphereDistance
EXTRN	?CheckSpherePoint@ioPlayEntity@@UBE_NABUD3DXVECTOR3@@MAAU2@@Z:PROC ; ioPlayEntity::CheckSpherePoint
EXTRN	?CheckCylinderPoint@ioPlayEntity@@UBE_NABVioCylinder@@ABUD3DXVECTOR3@@AAU3@@Z:PROC ; ioPlayEntity::CheckCylinderPoint
EXTRN	?GetSubType@ioDummyChar@@UBE?AW4PlaySubType@ioPlayEntity@@XZ:PROC ; ioDummyChar::GetSubType
EXTRN	?GetArmorType@ioDummyChar@@UBE?AW4ArmorType@@XZ:PROC ; ioDummyChar::GetArmorType
EXTRN	?DontMoveEntityLevel@ioDummyChar@@UBEHXZ:PROC	; ioDummyChar::DontMoveEntityLevel
EXTRN	?NotifyDontMoveCollisionPushingSkip@ioPlayEntity@@UAEXPAVioGameEntity@@@Z:PROC ; ioPlayEntity::NotifyDontMoveCollisionPushingSkip
EXTRN	?GetWorldEventReceiver@ioDummyChar@@UAEPAVioWorldEventReceiver@@XZ:PROC ; ioDummyChar::GetWorldEventReceiver
EXTRN	?Revival@ioPlayEntity@@UAEXXZ:PROC		; ioPlayEntity::Revival
EXTRN	?UpdateGauge@ioDummyChar@@UAEXXZ:PROC		; ioDummyChar::UpdateGauge
EXTRN	?RenderGauge@ioDummyChar@@UAEXXZ:PROC		; ioDummyChar::RenderGauge
EXTRN	?FillMaxHP@ioPlayEntity@@UAEXXZ:PROC		; ioPlayEntity::FillMaxHP
EXTRN	?ProcessRecovery@ioPlayEntity@@MAEXXZ:PROC	; ioPlayEntity::ProcessRecovery
EXTRN	?AddHeadDamageInfo@ioPlayEntity@@UAEXH_N@Z:PROC	; ioPlayEntity::AddHeadDamageInfo
EXTRN	?RenderHeadInfoList@ioPlayEntity@@UAEXHH@Z:PROC	; ioPlayEntity::RenderHeadInfoList
EXTRN	?UpdateHeadInfoList@ioPlayEntity@@MAEXK@Z:PROC	; ioPlayEntity::UpdateHeadInfoList
EXTRN	?InitDummyCharInfo@ioDummyChar@@UAEXHKABUD3DXVECTOR3@@0M_N@Z:PROC ; ioDummyChar::InitDummyCharInfo
EXTRN	?TestMapCollision@ioDummyChar@@UAE_NPAVioOpcodeShape@@PAVioPlayStage@@PBUD3DXMATRIX@@@Z:PROC ; ioDummyChar::TestMapCollision
EXTRN	?CheckEntityCollision@ioDummyChar@@UAEXPAVioPlayEntity@@@Z:PROC ; ioDummyChar::CheckEntityCollision
EXTRN	?GetDummyGrassType@ioDummyChar@@UAEHXZ:PROC	; ioDummyChar::GetDummyGrassType
EXTRN	?IsActivateWeapon@ioDummyChar@@UAE_NXZ:PROC	; ioDummyChar::IsActivateWeapon
EXTRN	?IsDummyVsDummyCollisionSkipState@ioDummyChar@@UAE_NPBV1@@Z:PROC ; ioDummyChar::IsDummyVsDummyCollisionSkipState
EXTRN	?ProcessPos@ioDummyChar@@MAEXM@Z:PROC		; ioDummyChar::ProcessPos
EXTRN	?ProcessMoveState@ioDummyChar@@MAEXM@Z:PROC	; ioDummyChar::ProcessMoveState
EXTRN	?ProcessDashState@ioDummyChar@@MAEXM@Z:PROC	; ioDummyChar::ProcessDashState
EXTRN	?ProcessAttackState@ioDummyChar@@MAEXMK@Z:PROC	; ioDummyChar::ProcessAttackState
EXTRN	?ApplyDummyCharSync@ioDummyChar@@UAEXPAVioPlayStage@@AAVSP2Packet@@@Z:PROC ; ioDummyChar::ApplyDummyCharSync
EXTRN	?SetDelayState@ioDummyChar@@UAEX_N@Z:PROC	; ioDummyChar::SetDelayState
EXTRN	?SetMoveState@ioDummyChar@@UAEXXZ:PROC		; ioDummyChar::SetMoveState
EXTRN	?SetDieState@ioDummyChar@@UAEX_N0@Z:PROC	; ioDummyChar::SetDieState
EXTRN	?SetDashState@ioDummyChar@@UAEXXZ:PROC		; ioDummyChar::SetDashState
EXTRN	?SetAttackState@ioDummyChar@@UAEXXZ:PROC	; ioDummyChar::SetAttackState
EXTRN	?DropZoneCheck@ioDummyChar@@MAEXXZ:PROC		; ioDummyChar::DropZoneCheck
EXTRN	?SendAttackInfoToSkill@ioDummyChar@@MAEXXZ:PROC	; ioDummyChar::SendAttackInfoToSkill
EXTRN	?CheckCollisionWeapon@ioDummyChar@@UAEXPAVioBaseChar@@@Z:PROC ; ioDummyChar::CheckCollisionWeapon
EXTRN	?TranslateMountEntity@ioDummyChar@@MAEXABUD3DXVECTOR3@@@Z:PROC ; ioDummyChar::TranslateMountEntity
EXTRN	?ClearMountEntity@ioDummyChar@@MAEXXZ:PROC	; ioDummyChar::ClearMountEntity
EXTRN	?UpdateMountedEntityList@ioDummyChar@@MAEXXZ:PROC ; ioDummyChar::UpdateMountedEntityList
EXTRN	?UpdateMountedWeaponList@ioDummyChar@@MAEXXZ:PROC ; ioDummyChar::UpdateMountedWeaponList
EXTRN	?SetWorldPositionMountEntity@ioDummyChar@@MAEXM@Z:PROC ; ioDummyChar::SetWorldPositionMountEntity
EXTRN	?DummyDieClearMountEntity@ioDummyChar@@MAEXXZ:PROC ; ioDummyChar::DummyDieClearMountEntity
EXTRN	?FillDummyCharMidSync@ioDummyChar@@UAEXPAVioBaseChar@@AAVSP2Packet@@@Z:PROC ; ioDummyChar::FillDummyCharMidSync
EXTRN	?ApplyDummyCharMidSync@ioDummyChar@@UAEXPAVioBaseChar@@AAVSP2Packet@@@Z:PROC ; ioDummyChar::ApplyDummyCharMidSync
EXTRN	?GetSkillMaxActiveCnt@ioDummyChar@@UAEHXZ:PROC	; ioDummyChar::GetSkillMaxActiveCnt
EXTRN	?GetSkillCurActiveCnt@ioDummyChar@@UAEHXZ:PROC	; ioDummyChar::GetSkillCurActiveCnt
EXTRN	?OnTelepotation@ioDummyChar@@UAEXABUD3DXVECTOR3@@@Z:PROC ; ioDummyChar::OnTelepotation
EXTRN	?OnFireZoneDamage@ioDummyChar@@UAEXMABVioHashString@@@Z:PROC ; ioDummyChar::OnFireZoneDamage
EXTRN	?OnPoisonZoneDamage@ioDummyChar@@UAEXXZ:PROC	; ioDummyChar::OnPoisonZoneDamage
;	COMDAT ??_R4ioTargetTrace11Dummy@@6BioWorldEventReceiver@@@
; File d:\lost saga for developer\youtube\tutorial\source\src\lsclient\iotargettrace11dummy.cpp
rdata$r	SEGMENT
??_R4ioTargetTrace11Dummy@@6BioWorldEventReceiver@@@ DD 00H ; ioTargetTrace11Dummy::`RTTI Complete Object Locator'
	DD	01c8H
	DD	00H
	DD	FLAT:??_R0?AVioTargetTrace11Dummy@@@8
	DD	FLAT:??_R3ioTargetTrace11Dummy@@8
rdata$r	ENDS
;	COMDAT ??_R1A@?0A@EA@ioWorldEventReceiver@@8
rdata$r	SEGMENT
??_R1A@?0A@EA@ioWorldEventReceiver@@8 DD FLAT:??_R0?AVioWorldEventReceiver@@@8 ; ioWorldEventReceiver::`RTTI Base Class Descriptor at (0,-1,0,64)'
	DD	00H
	DD	00H
	DD	0ffffffffH
	DD	00H
	DD	040H
	DD	FLAT:??_R3ioWorldEventReceiver@@8
rdata$r	ENDS
;	COMDAT ??_R2ioWorldEventReceiver@@8
rdata$r	SEGMENT
??_R2ioWorldEventReceiver@@8 DD FLAT:??_R1A@?0A@EA@ioWorldEventReceiver@@8 ; ioWorldEventReceiver::`RTTI Base Class Array'
rdata$r	ENDS
;	COMDAT ??_R3ioWorldEventReceiver@@8
rdata$r	SEGMENT
??_R3ioWorldEventReceiver@@8 DD 00H			; ioWorldEventReceiver::`RTTI Class Hierarchy Descriptor'
	DD	00H
	DD	01H
	DD	FLAT:??_R2ioWorldEventReceiver@@8
rdata$r	ENDS
;	COMDAT ??_R0?AVioWorldEventReceiver@@@8
_DATA	SEGMENT
??_R0?AVioWorldEventReceiver@@@8 DD FLAT:??_7type_info@@6B@ ; ioWorldEventReceiver `RTTI Type Descriptor'
	DD	00H
	DB	'.?AVioWorldEventReceiver@@', 00H
_DATA	ENDS
;	COMDAT ??_R1BMI@?0A@EA@ioWorldEventReceiver@@8
rdata$r	SEGMENT
??_R1BMI@?0A@EA@ioWorldEventReceiver@@8 DD FLAT:??_R0?AVioWorldEventReceiver@@@8 ; ioWorldEventReceiver::`RTTI Base Class Descriptor at (456,-1,0,64)'
	DD	00H
	DD	01c8H
	DD	0ffffffffH
	DD	00H
	DD	040H
	DD	FLAT:??_R3ioWorldEventReceiver@@8
rdata$r	ENDS
;	COMDAT ??_R2ioEntityEvent@@8
rdata$r	SEGMENT
??_R2ioEntityEvent@@8 DD FLAT:??_R1A@?0A@EA@ioEntityEvent@@8 ; ioEntityEvent::`RTTI Base Class Array'
rdata$r	ENDS
;	COMDAT ??_R3ioEntityEvent@@8
rdata$r	SEGMENT
??_R3ioEntityEvent@@8 DD 00H				; ioEntityEvent::`RTTI Class Hierarchy Descriptor'
	DD	00H
	DD	01H
	DD	FLAT:??_R2ioEntityEvent@@8
rdata$r	ENDS
;	COMDAT ??_R0?AVioEntityEvent@@@8
_DATA	SEGMENT
??_R0?AVioEntityEvent@@@8 DD FLAT:??_7type_info@@6B@	; ioEntityEvent `RTTI Type Descriptor'
	DD	00H
	DB	'.?AVioEntityEvent@@', 00H
_DATA	ENDS
;	COMDAT ??_R1A@?0A@EA@ioEntityEvent@@8
rdata$r	SEGMENT
??_R1A@?0A@EA@ioEntityEvent@@8 DD FLAT:??_R0?AVioEntityEvent@@@8 ; ioEntityEvent::`RTTI Base Class Descriptor at (0,-1,0,64)'
	DD	00H
	DD	00H
	DD	0ffffffffH
	DD	00H
	DD	040H
	DD	FLAT:??_R3ioEntityEvent@@8
rdata$r	ENDS
;	COMDAT ??_R2ioGameEntity@@8
rdata$r	SEGMENT
??_R2ioGameEntity@@8 DD FLAT:??_R1A@?0A@EA@ioGameEntity@@8 ; ioGameEntity::`RTTI Base Class Array'
	DD	FLAT:??_R1A@?0A@EA@ioEntityEvent@@8
rdata$r	ENDS
;	COMDAT ??_R3ioGameEntity@@8
rdata$r	SEGMENT
??_R3ioGameEntity@@8 DD 00H				; ioGameEntity::`RTTI Class Hierarchy Descriptor'
	DD	00H
	DD	02H
	DD	FLAT:??_R2ioGameEntity@@8
rdata$r	ENDS
;	COMDAT ??_R0?AVioGameEntity@@@8
_DATA	SEGMENT
??_R0?AVioGameEntity@@@8 DD FLAT:??_7type_info@@6B@	; ioGameEntity `RTTI Type Descriptor'
	DD	00H
	DB	'.?AVioGameEntity@@', 00H
_DATA	ENDS
;	COMDAT ??_R1A@?0A@EA@ioGameEntity@@8
rdata$r	SEGMENT
??_R1A@?0A@EA@ioGameEntity@@8 DD FLAT:??_R0?AVioGameEntity@@@8 ; ioGameEntity::`RTTI Base Class Descriptor at (0,-1,0,64)'
	DD	01H
	DD	00H
	DD	0ffffffffH
	DD	00H
	DD	040H
	DD	FLAT:??_R3ioGameEntity@@8
rdata$r	ENDS
;	COMDAT ??_R2ioPlayEntity@@8
rdata$r	SEGMENT
??_R2ioPlayEntity@@8 DD FLAT:??_R1A@?0A@EA@ioPlayEntity@@8 ; ioPlayEntity::`RTTI Base Class Array'
	DD	FLAT:??_R1A@?0A@EA@ioGameEntity@@8
	DD	FLAT:??_R1A@?0A@EA@ioEntityEvent@@8
rdata$r	ENDS
;	COMDAT ??_R3ioPlayEntity@@8
rdata$r	SEGMENT
??_R3ioPlayEntity@@8 DD 00H				; ioPlayEntity::`RTTI Class Hierarchy Descriptor'
	DD	00H
	DD	03H
	DD	FLAT:??_R2ioPlayEntity@@8
rdata$r	ENDS
;	COMDAT ??_R0?AVioPlayEntity@@@8
_DATA	SEGMENT
??_R0?AVioPlayEntity@@@8 DD FLAT:??_7type_info@@6B@	; ioPlayEntity `RTTI Type Descriptor'
	DD	00H
	DB	'.?AVioPlayEntity@@', 00H
_DATA	ENDS
;	COMDAT ??_R1A@?0A@EA@ioPlayEntity@@8
rdata$r	SEGMENT
??_R1A@?0A@EA@ioPlayEntity@@8 DD FLAT:??_R0?AVioPlayEntity@@@8 ; ioPlayEntity::`RTTI Base Class Descriptor at (0,-1,0,64)'
	DD	02H
	DD	00H
	DD	0ffffffffH
	DD	00H
	DD	040H
	DD	FLAT:??_R3ioPlayEntity@@8
rdata$r	ENDS
;	COMDAT ??_R2ioDummyChar@@8
rdata$r	SEGMENT
??_R2ioDummyChar@@8 DD FLAT:??_R1A@?0A@EA@ioDummyChar@@8 ; ioDummyChar::`RTTI Base Class Array'
	DD	FLAT:??_R1A@?0A@EA@ioPlayEntity@@8
	DD	FLAT:??_R1A@?0A@EA@ioGameEntity@@8
	DD	FLAT:??_R1A@?0A@EA@ioEntityEvent@@8
	DD	FLAT:??_R1BMI@?0A@EA@ioWorldEventReceiver@@8
rdata$r	ENDS
;	COMDAT ??_R3ioDummyChar@@8
rdata$r	SEGMENT
??_R3ioDummyChar@@8 DD 00H				; ioDummyChar::`RTTI Class Hierarchy Descriptor'
	DD	01H
	DD	05H
	DD	FLAT:??_R2ioDummyChar@@8
rdata$r	ENDS
;	COMDAT ??_R0?AVioDummyChar@@@8
_DATA	SEGMENT
??_R0?AVioDummyChar@@@8 DD FLAT:??_7type_info@@6B@	; ioDummyChar `RTTI Type Descriptor'
	DD	00H
	DB	'.?AVioDummyChar@@', 00H
_DATA	ENDS
;	COMDAT ??_R1A@?0A@EA@ioDummyChar@@8
rdata$r	SEGMENT
??_R1A@?0A@EA@ioDummyChar@@8 DD FLAT:??_R0?AVioDummyChar@@@8 ; ioDummyChar::`RTTI Base Class Descriptor at (0,-1,0,64)'
	DD	04H
	DD	00H
	DD	0ffffffffH
	DD	00H
	DD	040H
	DD	FLAT:??_R3ioDummyChar@@8
rdata$r	ENDS
;	COMDAT ??_R1A@?0A@EA@ioTargetTrace11Dummy@@8
rdata$r	SEGMENT
??_R1A@?0A@EA@ioTargetTrace11Dummy@@8 DD FLAT:??_R0?AVioTargetTrace11Dummy@@@8 ; ioTargetTrace11Dummy::`RTTI Base Class Descriptor at (0,-1,0,64)'
	DD	05H
	DD	00H
	DD	0ffffffffH
	DD	00H
	DD	040H
	DD	FLAT:??_R3ioTargetTrace11Dummy@@8
rdata$r	ENDS
;	COMDAT ??_R2ioTargetTrace11Dummy@@8
rdata$r	SEGMENT
??_R2ioTargetTrace11Dummy@@8 DD FLAT:??_R1A@?0A@EA@ioTargetTrace11Dummy@@8 ; ioTargetTrace11Dummy::`RTTI Base Class Array'
	DD	FLAT:??_R1A@?0A@EA@ioDummyChar@@8
	DD	FLAT:??_R1A@?0A@EA@ioPlayEntity@@8
	DD	FLAT:??_R1A@?0A@EA@ioGameEntity@@8
	DD	FLAT:??_R1A@?0A@EA@ioEntityEvent@@8
	DD	FLAT:??_R1BMI@?0A@EA@ioWorldEventReceiver@@8
rdata$r	ENDS
;	COMDAT ??_R3ioTargetTrace11Dummy@@8
rdata$r	SEGMENT
??_R3ioTargetTrace11Dummy@@8 DD 00H			; ioTargetTrace11Dummy::`RTTI Class Hierarchy Descriptor'
	DD	01H
	DD	06H
	DD	FLAT:??_R2ioTargetTrace11Dummy@@8
rdata$r	ENDS
;	COMDAT ??_R0?AVioTargetTrace11Dummy@@@8
_DATA	SEGMENT
??_R0?AVioTargetTrace11Dummy@@@8 DD FLAT:??_7type_info@@6B@ ; ioTargetTrace11Dummy `RTTI Type Descriptor'
	DD	00H
	DB	'.?AVioTargetTrace11Dummy@@', 00H
_DATA	ENDS
;	COMDAT ??_R4ioTargetTrace11Dummy@@6BioPlayEntity@@@
rdata$r	SEGMENT
??_R4ioTargetTrace11Dummy@@6BioPlayEntity@@@ DD 00H	; ioTargetTrace11Dummy::`RTTI Complete Object Locator'
	DD	00H
	DD	00H
	DD	FLAT:??_R0?AVioTargetTrace11Dummy@@@8
	DD	FLAT:??_R3ioTargetTrace11Dummy@@8
rdata$r	ENDS
;	COMDAT ??_7ioTargetTrace11Dummy@@6BioWorldEventReceiver@@@
CONST	SEGMENT
??_7ioTargetTrace11Dummy@@6BioWorldEventReceiver@@@ DD FLAT:??_R4ioTargetTrace11Dummy@@6BioWorldEventReceiver@@@ ; ioTargetTrace11Dummy::`vftable'
	DD	FLAT:?OnTelepotation@ioDummyChar@@UAEXABUD3DXVECTOR3@@@Z
	DD	FLAT:?OnFireZoneDamage@ioDummyChar@@UAEXMABVioHashString@@@Z
	DD	FLAT:?OnPoisonZoneDamage@ioDummyChar@@UAEXXZ
	DD	FLAT:??_EioTargetTrace11Dummy@@WBMI@AEPAXI@Z
CONST	ENDS
;	COMDAT ??_7ioTargetTrace11Dummy@@6BioPlayEntity@@@
CONST	SEGMENT
??_7ioTargetTrace11Dummy@@6BioPlayEntity@@@ DD FLAT:??_R4ioTargetTrace11Dummy@@6BioPlayEntity@@@ ; ioTargetTrace11Dummy::`vftable'
	DD	FLAT:?AddEntityEvent@ioDummyChar@@UAEXPAVioEntity@@@Z
	DD	FLAT:??_EioTargetTrace11Dummy@@UAEPAXI@Z
	DD	FLAT:?Update@ioDummyChar@@UAEXMKK@Z
	DD	FLAT:?UpdateAfter@ioDummyChar@@UAEXM@Z
	DD	FLAT:?GetTypeID@ioPlayEntity@@UBEHXZ
	DD	FLAT:?IsNeedCheckMapCollision@ioDummyChar@@UBE_NXZ
	DD	FLAT:?IsMountAvailable@ioDummyChar@@UBE_NXZ
	DD	FLAT:?IsMountingAvailable@ioDummyChar@@UBE_NXZ
	DD	FLAT:?IsNowMountEnable@ioDummyChar@@UBE_NXZ
	DD	FLAT:?IsAllWeaponDefence@ioGameEntity@@UBE_NXZ
	DD	FLAT:?HasEntity@ioGameEntity@@UAE_NABVioHashString@@@Z
	DD	FLAT:?AddEntity@ioGameEntity@@UAEPAVioEntity@@ABVioHashString@@@Z
	DD	FLAT:?DestroyEntity@ioGameEntity@@UAE_NABVioHashString@@@Z
	DD	FLAT:?GetEntity@ioGameEntity@@UAEPAVioEntity@@ABVioHashString@@@Z
	DD	FLAT:?UpdateBound@ioGameEntity@@MBEXXZ
	DD	FLAT:?UpdateBottomHeight@ioDummyChar@@MBEXXZ
	DD	FLAT:?NeedUpdateBottomHeight@ioDummyChar@@UAEXXZ
	DD	FLAT:?SetWorldPosition@ioGameEntity@@UAEXABUD3DXVECTOR3@@@Z
	DD	FLAT:?SetWorldOrientation@ioGameEntity@@UAEXABUD3DXQUATERNION@@@Z
	DD	FLAT:?SetWorldScale@ioGameEntity@@UAEXABUD3DXVECTOR3@@@Z
	DD	FLAT:?Translate@ioDummyChar@@UAEXABUD3DXVECTOR3@@@Z
	DD	FLAT:?TranslateByConveyer@ioTargetTrace11Dummy@@UAEXABUD3DXVECTOR3@@@Z
	DD	FLAT:?TranslateByWorldEntity@ioDummyChar@@UAEXABUD3DXVECTOR3@@@Z
	DD	FLAT:?MapCollisionPushingTranslate@ioDummyChar@@UAEXABUD3DXVECTOR3@@@Z
	DD	FLAT:?DontMoveCollisionPushingTranslate@ioGameEntity@@UAEXPAV1@ABUD3DXVECTOR3@@@Z
	DD	FLAT:?Rotate@ioGameEntity@@UAEXABUD3DXVECTOR3@@MW4TransformSpace@ioNode@@@Z
	DD	FLAT:?Scale@ioGameEntity@@UAEXMMM@Z
	DD	FLAT:?Scale@ioGameEntity@@UAEXABUD3DXVECTOR3@@@Z
	DD	FLAT:?GetWorldPosition@ioGameEntity@@UBEABUD3DXVECTOR3@@XZ
	DD	FLAT:?GetWorldOrientation@ioGameEntity@@UBEABUD3DXQUATERNION@@XZ
	DD	FLAT:?GetWorldScale@ioGameEntity@@UBEABUD3DXVECTOR3@@XZ
	DD	FLAT:?ApplyWeapon@ioDummyChar@@UAE?AW4ApplyWeaponExp@@PAVioWeapon@@@Z
	DD	FLAT:?IsCollisionAvailableWeapon@ioDummyChar@@UAE_NPAVioWeapon@@@Z
	DD	FLAT:?IsCollisionAvailableRange@ioPlayEntity@@UAE_NPAVioWeapon@@@Z
	DD	FLAT:?IsEntityCollisionSkipState@ioDummyChar@@UBE_NPAVioGameEntity@@@Z
	DD	FLAT:?IsCharCollisionSkipState@ioDummyChar@@UBE_NW4TeamType@@H@Z
	DD	FLAT:?IsWoundedCollision@ioPlayEntity@@UBE_NABVioOrientBox@@PAUD3DXVECTOR3@@@Z
	DD	FLAT:?GetAttackCollisionBox@ioDummyChar@@UAE?AVioOrientBox@@W4AniCollisionType@@_N@Z
	DD	FLAT:?CheckSphereDistance@ioPlayEntity@@UBE_NABUD3DXVECTOR3@@MAAM@Z
	DD	FLAT:?CheckSpherePoint@ioPlayEntity@@UBE_NABUD3DXVECTOR3@@MAAU2@@Z
	DD	FLAT:?CheckCylinderPoint@ioPlayEntity@@UBE_NABVioCylinder@@ABUD3DXVECTOR3@@AAU3@@Z
	DD	FLAT:?GetSubType@ioDummyChar@@UBE?AW4PlaySubType@ioPlayEntity@@XZ
	DD	FLAT:?GetArmorType@ioDummyChar@@UBE?AW4ArmorType@@XZ
	DD	FLAT:?DontMoveEntityLevel@ioDummyChar@@UBEHXZ
	DD	FLAT:?NotifyDontMoveCollisionPushingSkip@ioPlayEntity@@UAEXPAVioGameEntity@@@Z
	DD	FLAT:?LoadProperty@ioTargetTrace11Dummy@@UAEXAAVioINILoader@@@Z
	DD	FLAT:?GetWorldEventReceiver@ioDummyChar@@UAEPAVioWorldEventReceiver@@XZ
	DD	FLAT:?Revival@ioPlayEntity@@UAEXXZ
	DD	FLAT:?UpdateGauge@ioDummyChar@@UAEXXZ
	DD	FLAT:?RenderGauge@ioDummyChar@@UAEXXZ
	DD	FLAT:?FillMaxHP@ioPlayEntity@@UAEXXZ
	DD	FLAT:?ProcessRecovery@ioPlayEntity@@MAEXXZ
	DD	FLAT:?AddHeadDamageInfo@ioPlayEntity@@UAEXH_N@Z
	DD	FLAT:?RenderHeadInfoList@ioPlayEntity@@UAEXHH@Z
	DD	FLAT:?UpdateHeadInfoList@ioPlayEntity@@MAEXK@Z
	DD	FLAT:?SetTeam@ioPlayEntity@@UAEXW4TeamType@@@Z
	DD	FLAT:?InitDummyCharInfo@ioDummyChar@@UAEXHKABUD3DXVECTOR3@@0M_N@Z
	DD	FLAT:?TestMapCollision@ioDummyChar@@UAE_NPAVioOpcodeShape@@PAVioPlayStage@@PBUD3DXMATRIX@@@Z
	DD	FLAT:?CheckEntityCollision@ioDummyChar@@UAEXPAVioPlayEntity@@@Z
	DD	FLAT:?GetDummyGrassType@ioDummyChar@@UAEHXZ
	DD	FLAT:?IsActivateWeapon@ioDummyChar@@UAE_NXZ
	DD	FLAT:?IsDummyVsDummyCollisionSkipState@ioDummyChar@@UAE_NPBV1@@Z
	DD	FLAT:?ProcessState@ioTargetTrace11Dummy@@MAEXMK@Z
	DD	FLAT:?ProcessPos@ioDummyChar@@MAEXM@Z
	DD	FLAT:?ProcessDelayState@ioTargetTrace11Dummy@@MAEXM@Z
	DD	FLAT:?ProcessMoveState@ioDummyChar@@MAEXM@Z
	DD	FLAT:?ProcessDashState@ioDummyChar@@MAEXM@Z
	DD	FLAT:?ProcessAttackState@ioDummyChar@@MAEXMK@Z
	DD	FLAT:?ApplyDummyCharSync@ioDummyChar@@UAEXPAVioPlayStage@@AAVSP2Packet@@@Z
	DD	FLAT:?SetDelayState@ioDummyChar@@UAEX_N@Z
	DD	FLAT:?SetMoveState@ioDummyChar@@UAEXXZ
	DD	FLAT:?SetDieState@ioDummyChar@@UAEX_N0@Z
	DD	FLAT:?SetDashState@ioDummyChar@@UAEXXZ
	DD	FLAT:?SetAttackState@ioDummyChar@@UAEXXZ
	DD	FLAT:?DropZoneCheck@ioDummyChar@@MAEXXZ
	DD	FLAT:?SendAttackInfoToSkill@ioDummyChar@@MAEXXZ
	DD	FLAT:?CheckCollisionWeapon@ioDummyChar@@UAEXPAVioBaseChar@@@Z
	DD	FLAT:?TranslateMountEntity@ioDummyChar@@MAEXABUD3DXVECTOR3@@@Z
	DD	FLAT:?ClearMountEntity@ioDummyChar@@MAEXXZ
	DD	FLAT:?UpdateMountedEntityList@ioDummyChar@@MAEXXZ
	DD	FLAT:?UpdateMountedWeaponList@ioDummyChar@@MAEXXZ
	DD	FLAT:?SetWorldPositionMountEntity@ioDummyChar@@MAEXM@Z
	DD	FLAT:?DummyDieClearMountEntity@ioDummyChar@@MAEXXZ
	DD	FLAT:?IsDummyCharMidSync@ioDummyChar@@UAE_NXZ
	DD	FLAT:?FillDummyCharMidSync@ioDummyChar@@UAEXPAVioBaseChar@@AAVSP2Packet@@@Z
	DD	FLAT:?ApplyDummyCharMidSync@ioDummyChar@@UAEXPAVioBaseChar@@AAVSP2Packet@@@Z
	DD	FLAT:?GetSkillMaxActiveCnt@ioDummyChar@@UAEHXZ
	DD	FLAT:?GetSkillCurActiveCnt@ioDummyChar@@UAEHXZ
	DD	FLAT:?SetDieState@ioTargetTrace11Dummy@@UAEX_N@Z
CONST	ENDS
;	COMDAT xdata$x
xdata$x	SEGMENT
__unwindtable$??1ioTargetTrace11Dummy@@UAE@XZ DD 0ffffffffH
	DD	FLAT:__unwindfunclet$??1ioTargetTrace11Dummy@@UAE@XZ$0
__ehfuncinfo$??1ioTargetTrace11Dummy@@UAE@XZ DD 019930522H
	DD	01H
	DD	FLAT:__unwindtable$??1ioTargetTrace11Dummy@@UAE@XZ
	DD	2 DUP(00H)
	DD	2 DUP(00H)
	DD	00H
	DD	01H
; Function compile flags: /Ogsp
xdata$x	ENDS
;	COMDAT ??1ioTargetTrace11Dummy@@UAE@XZ
_TEXT	SEGMENT
_this$ = -16						; size = 4
__$EHRec$ = -12						; size = 12
??1ioTargetTrace11Dummy@@UAE@XZ PROC			; ioTargetTrace11Dummy::~ioTargetTrace11Dummy, COMDAT
; _this$ = ecx

; 17   : {

  00000	6a 04		 push	 4
  00002	b8 00 00 00 00	 mov	 eax, __ehhandler$??1ioTargetTrace11Dummy@@UAE@XZ
  00007	e8 00 00 00 00	 call	 __EH_prolog3
  0000c	8b f1		 mov	 esi, ecx
  0000e	89 75 f0	 mov	 DWORD PTR _this$[ebp], esi
  00011	c7 06 00 00 00
	00		 mov	 DWORD PTR [esi], OFFSET ??_7ioTargetTrace11Dummy@@6BioPlayEntity@@@
  00017	c7 86 c8 01 00
	00 00 00 00 00	 mov	 DWORD PTR [esi+456], OFFSET ??_7ioTargetTrace11Dummy@@6BioWorldEventReceiver@@@
  00021	83 65 fc 00	 and	 DWORD PTR __$EHRec$[ebp+8], 0

; 18   : }

  00025	8d 8e 80 14 00
	00		 lea	 ecx, DWORD PTR [esi+5248]
  0002b	ff 15 00 00 00
	00		 call	 DWORD PTR __imp_??1ioHashString@@QAE@XZ
  00031	83 4d fc ff	 or	 DWORD PTR __$EHRec$[ebp+8], -1
  00035	8b ce		 mov	 ecx, esi
  00037	e8 00 00 00 00	 call	 ??1ioDummyChar@@UAE@XZ	; ioDummyChar::~ioDummyChar
  0003c	e8 00 00 00 00	 call	 __EH_epilog3
  00041	c3		 ret	 0
_TEXT	ENDS
;	COMDAT text$x
text$x	SEGMENT
__unwindfunclet$??1ioTargetTrace11Dummy@@UAE@XZ$0:
  00000	8b 4d f0	 mov	 ecx, DWORD PTR _this$[ebp]
  00003	e9 00 00 00 00	 jmp	 ??1ioDummyChar@@UAE@XZ	; ioDummyChar::~ioDummyChar
__ehhandler$??1ioTargetTrace11Dummy@@UAE@XZ:
  00008	8b 54 24 08	 mov	 edx, DWORD PTR [esp+8]
  0000c	8d 42 0c	 lea	 eax, DWORD PTR [edx+12]
  0000f	8b 4a ec	 mov	 ecx, DWORD PTR [edx-20]
  00012	33 c8		 xor	 ecx, eax
  00014	e8 00 00 00 00	 call	 @__security_check_cookie@4
  00019	b8 00 00 00 00	 mov	 eax, OFFSET __ehfuncinfo$??1ioTargetTrace11Dummy@@UAE@XZ
  0001e	e9 00 00 00 00	 jmp	 ___CxxFrameHandler3
text$x	ENDS
??1ioTargetTrace11Dummy@@UAE@XZ ENDP			; ioTargetTrace11Dummy::~ioTargetTrace11Dummy
PUBLIC	?_Adopt@_Iterator_base0@std@@QAEXPBX@Z		; std::_Iterator_base0::_Adopt
; Function compile flags: /Ogsp
; File c:\program files (x86)\microsoft visual studio 10.0\vc\include\xutility
;	COMDAT ?_Adopt@_Iterator_base0@std@@QAEXPBX@Z
_TEXT	SEGMENT
___formal$ = 8						; size = 4
?_Adopt@_Iterator_base0@std@@QAEXPBX@Z PROC		; std::_Iterator_base0::_Adopt, COMDAT
; _this$ = ecx

; 49   : 		}

  00000	c2 04 00	 ret	 4
?_Adopt@_Iterator_base0@std@@QAEXPBX@Z ENDP		; std::_Iterator_base0::_Adopt
; Function compile flags: /Ogsp
; File d:\lost saga for developer\youtube\tutorial\source\src\lsclient\iotargettrace11dummy.cpp
_TEXT	ENDS
;	COMDAT ?TranslateByConveyer@ioTargetTrace11Dummy@@UAEXABUD3DXVECTOR3@@@Z
_TEXT	SEGMENT
_vMove$ = 8						; size = 4
?TranslateByConveyer@ioTargetTrace11Dummy@@UAEXABUD3DXVECTOR3@@@Z PROC ; ioTargetTrace11Dummy::TranslateByConveyer, COMDAT
; _this$ = ecx

; 511  : 
; 512  : }

  00000	c2 04 00	 ret	 4
?TranslateByConveyer@ioTargetTrace11Dummy@@UAEXABUD3DXVECTOR3@@@Z ENDP ; ioTargetTrace11Dummy::TranslateByConveyer
_TEXT	ENDS
PUBLIC	??A?$vector@VioHashString@@V?$allocator@VioHashString@@@std@@@std@@QAEAAVioHashString@@I@Z ; std::vector<ioHashString,std::allocator<ioHashString> >::operator[]
; Function compile flags: /Ogsp
; File c:\program files (x86)\microsoft visual studio 10.0\vc\include\vector
;	COMDAT ??A?$vector@VioHashString@@V?$allocator@VioHashString@@@std@@@std@@QAEAAVioHashString@@I@Z
_TEXT	SEGMENT
__Pos$ = 8						; size = 4
??A?$vector@VioHashString@@V?$allocator@VioHashString@@@std@@@std@@QAEAAVioHashString@@I@Z PROC ; std::vector<ioHashString,std::allocator<ioHashString> >::operator[], COMDAT
; _this$ = ecx

; 928  : 		{	// subscript mutable sequence

  00000	55		 push	 ebp
  00001	8b ec		 mov	 ebp, esp

; 929  :  #if _ITERATOR_DEBUG_LEVEL == 2
; 930  : 		if (size() <= _Pos)
; 931  : 			{	// report error
; 932  : 			_DEBUG_ERROR("vector subscript out of range");
; 933  : 			_SCL_SECURE_OUT_OF_RANGE;
; 934  : 			}
; 935  : 
; 936  :  #elif _ITERATOR_DEBUG_LEVEL == 1
; 937  : 		_SCL_SECURE_VALIDATE_RANGE(_Pos < size());
; 938  :  #endif /* _ITERATOR_DEBUG_LEVEL */
; 939  : 
; 940  : 		return (*(this->_Myfirst + _Pos));

  00003	8b 45 08	 mov	 eax, DWORD PTR __Pos$[ebp]
  00006	c1 e0 04	 shl	 eax, 4
  00009	03 01		 add	 eax, DWORD PTR [ecx]

; 941  : 		}

  0000b	5d		 pop	 ebp
  0000c	c2 04 00	 ret	 4
??A?$vector@VioHashString@@V?$allocator@VioHashString@@@std@@@std@@QAEAAVioHashString@@I@Z ENDP ; std::vector<ioHashString,std::allocator<ioHashString> >::operator[]
_TEXT	ENDS
PUBLIC	??0?$_Vector_const_iterator@V?$_Vector_val@PAVioBaseChar@@V?$allocator@PAVioBaseChar@@@std@@@std@@@std@@QAE@XZ ; std::_Vector_const_iterator<std::_Vector_val<ioBaseChar *,std::allocator<ioBaseChar *> > >::_Vector_const_iterator<std::_Vector_val<ioBaseChar *,std::allocator<ioBaseChar *> > >
; Function compile flags: /Ogsp
;	COMDAT ??0?$_Vector_const_iterator@V?$_Vector_val@PAVioBaseChar@@V?$allocator@PAVioBaseChar@@@std@@@std@@@std@@QAE@XZ
_TEXT	SEGMENT
??0?$_Vector_const_iterator@V?$_Vector_val@PAVioBaseChar@@V?$allocator@PAVioBaseChar@@@std@@@std@@@std@@QAE@XZ PROC ; std::_Vector_const_iterator<std::_Vector_val<ioBaseChar *,std::allocator<ioBaseChar *> > >::_Vector_const_iterator<std::_Vector_val<ioBaseChar *,std::allocator<ioBaseChar *> > >, COMDAT
; _this$ = ecx

; 40   : 		{	// construct with null pointer

  00000	8b c1		 mov	 eax, ecx
  00002	83 20 00	 and	 DWORD PTR [eax], 0

; 41   : 		}

  00005	c3		 ret	 0
??0?$_Vector_const_iterator@V?$_Vector_val@PAVioBaseChar@@V?$allocator@PAVioBaseChar@@@std@@@std@@@std@@QAE@XZ ENDP ; std::_Vector_const_iterator<std::_Vector_val<ioBaseChar *,std::allocator<ioBaseChar *> > >::_Vector_const_iterator<std::_Vector_val<ioBaseChar *,std::allocator<ioBaseChar *> > >
_TEXT	ENDS
PUBLIC	??D?$_Vector_const_iterator@V?$_Vector_val@PAVioBaseChar@@V?$allocator@PAVioBaseChar@@@std@@@std@@@std@@QBEABQAVioBaseChar@@XZ ; std::_Vector_const_iterator<std::_Vector_val<ioBaseChar *,std::allocator<ioBaseChar *> > >::operator*
; Function compile flags: /Ogsp
;	COMDAT ??D?$_Vector_const_iterator@V?$_Vector_val@PAVioBaseChar@@V?$allocator@PAVioBaseChar@@@std@@@std@@@std@@QBEABQAVioBaseChar@@XZ
_TEXT	SEGMENT
??D?$_Vector_const_iterator@V?$_Vector_val@PAVioBaseChar@@V?$allocator@PAVioBaseChar@@@std@@@std@@@std@@QBEABQAVioBaseChar@@XZ PROC ; std::_Vector_const_iterator<std::_Vector_val<ioBaseChar *,std::allocator<ioBaseChar *> > >::operator*, COMDAT
; _this$ = ecx

; 64   :  #if _ITERATOR_DEBUG_LEVEL == 2
; 65   : 		if (this->_Getcont() == 0
; 66   : 			|| this->_Ptr == 0
; 67   : 			|| this->_Ptr < ((_Myvec *)this->_Getcont())->_Myfirst
; 68   : 			|| ((_Myvec *)this->_Getcont())->_Mylast <= this->_Ptr)
; 69   : 			{	// report error
; 70   : 			_DEBUG_ERROR("vector iterator not dereferencable");
; 71   : 			_SCL_SECURE_OUT_OF_RANGE;
; 72   : 			}
; 73   : 
; 74   :  #elif _ITERATOR_DEBUG_LEVEL == 1
; 75   : 		_SCL_SECURE_VALIDATE(this->_Getcont() != 0);
; 76   : 		_SCL_SECURE_VALIDATE_RANGE(
; 77   : 			this->_Ptr != 0
; 78   : 			&& ((_Myvec *)this->_Getcont())->_Myfirst <= this->_Ptr
; 79   : 			&& this->_Ptr < ((_Myvec *)this->_Getcont())->_Mylast);
; 80   :  #endif /* _ITERATOR_DEBUG_LEVEL */
; 81   : 
; 82   : 		__analysis_assume(this->_Ptr != 0);
; 83   : 
; 84   : 		return (*this->_Ptr);

  00000	8b 01		 mov	 eax, DWORD PTR [ecx]

; 85   : 		}

  00002	c3		 ret	 0
??D?$_Vector_const_iterator@V?$_Vector_val@PAVioBaseChar@@V?$allocator@PAVioBaseChar@@@std@@@std@@@std@@QBEABQAVioBaseChar@@XZ ENDP ; std::_Vector_const_iterator<std::_Vector_val<ioBaseChar *,std::allocator<ioBaseChar *> > >::operator*
_TEXT	ENDS
PUBLIC	??E?$_Vector_const_iterator@V?$_Vector_val@PAVioBaseChar@@V?$allocator@PAVioBaseChar@@@std@@@std@@@std@@QAEAAV01@XZ ; std::_Vector_const_iterator<std::_Vector_val<ioBaseChar *,std::allocator<ioBaseChar *> > >::operator++
; Function compile flags: /Ogsp
;	COMDAT ??E?$_Vector_const_iterator@V?$_Vector_val@PAVioBaseChar@@V?$allocator@PAVioBaseChar@@@std@@@std@@@std@@QAEAAV01@XZ
_TEXT	SEGMENT
??E?$_Vector_const_iterator@V?$_Vector_val@PAVioBaseChar@@V?$allocator@PAVioBaseChar@@@std@@@std@@@std@@QAEAAV01@XZ PROC ; std::_Vector_const_iterator<std::_Vector_val<ioBaseChar *,std::allocator<ioBaseChar *> > >::operator++, COMDAT
; _this$ = ecx

; 93   : 		{	// preincrement

  00000	8b c1		 mov	 eax, ecx

; 94   :  #if _ITERATOR_DEBUG_LEVEL == 2
; 95   : 		if (this->_Getcont() == 0
; 96   : 			|| this->_Ptr == 0
; 97   : 			|| ((_Myvec *)this->_Getcont())->_Mylast <= this->_Ptr)
; 98   : 			{	// report error
; 99   : 			_DEBUG_ERROR("vector iterator not incrementable");
; 100  : 			_SCL_SECURE_OUT_OF_RANGE;
; 101  : 			}
; 102  : 
; 103  :  #elif _ITERATOR_DEBUG_LEVEL == 1
; 104  : 		_SCL_SECURE_VALIDATE(this->_Getcont() != 0);
; 105  : 		_SCL_SECURE_VALIDATE_RANGE(
; 106  : 			this->_Ptr != 0
; 107  : 			&& this->_Ptr < ((_Myvec *)this->_Getcont())->_Mylast);
; 108  :  #endif /* _ITERATOR_DEBUG_LEVEL */
; 109  : 
; 110  : 		++this->_Ptr;

  00002	83 00 04	 add	 DWORD PTR [eax], 4

; 111  : 		return (*this);
; 112  : 		}

  00005	c3		 ret	 0
??E?$_Vector_const_iterator@V?$_Vector_val@PAVioBaseChar@@V?$allocator@PAVioBaseChar@@@std@@@std@@@std@@QAEAAV01@XZ ENDP ; std::_Vector_const_iterator<std::_Vector_val<ioBaseChar *,std::allocator<ioBaseChar *> > >::operator++
_TEXT	ENDS
PUBLIC	?_Nextnode@?$_List_val@UFireTime@@V?$allocator@UFireTime@@@std@@@std@@SAAAPAU_Node@?$_List_nod@UFireTime@@V?$allocator@UFireTime@@@std@@@2@PAU342@@Z ; std::_List_val<FireTime,std::allocator<FireTime> >::_Nextnode
; Function compile flags: /Ogsp
; File c:\program files (x86)\microsoft visual studio 10.0\vc\include\list
;	COMDAT ?_Nextnode@?$_List_val@UFireTime@@V?$allocator@UFireTime@@@std@@@std@@SAAAPAU_Node@?$_List_nod@UFireTime@@V?$allocator@UFireTime@@@std@@@2@PAU342@@Z
_TEXT	SEGMENT
__Pnode$ = 8						; size = 4
?_Nextnode@?$_List_val@UFireTime@@V?$allocator@UFireTime@@@std@@@std@@SAAAPAU_Node@?$_List_nod@UFireTime@@V?$allocator@UFireTime@@@std@@@2@PAU342@@Z PROC ; std::_List_val<FireTime,std::allocator<FireTime> >::_Nextnode, COMDAT

; 560  : 		{	// return reference to successor pointer in node

  00000	55		 push	 ebp
  00001	8b ec		 mov	 ebp, esp

; 561  : 		return ((_Nodepref)(*_Pnode)._Next);

  00003	8b 45 08	 mov	 eax, DWORD PTR __Pnode$[ebp]

; 562  : 		}

  00006	5d		 pop	 ebp
  00007	c3		 ret	 0
?_Nextnode@?$_List_val@UFireTime@@V?$allocator@UFireTime@@@std@@@std@@SAAAPAU_Node@?$_List_nod@UFireTime@@V?$allocator@UFireTime@@@std@@@2@PAU342@@Z ENDP ; std::_List_val<FireTime,std::allocator<FireTime> >::_Nextnode
_TEXT	ENDS
PUBLIC	?_Prevnode@?$_List_val@UFireTime@@V?$allocator@UFireTime@@@std@@@std@@SAAAPAU_Node@?$_List_nod@UFireTime@@V?$allocator@UFireTime@@@std@@@2@PAU342@@Z ; std::_List_val<FireTime,std::allocator<FireTime> >::_Prevnode
; Function compile flags: /Ogsp
;	COMDAT ?_Prevnode@?$_List_val@UFireTime@@V?$allocator@UFireTime@@@std@@@std@@SAAAPAU_Node@?$_List_nod@UFireTime@@V?$allocator@UFireTime@@@std@@@2@PAU342@@Z
_TEXT	SEGMENT
__Pnode$ = 8						; size = 4
?_Prevnode@?$_List_val@UFireTime@@V?$allocator@UFireTime@@@std@@@std@@SAAAPAU_Node@?$_List_nod@UFireTime@@V?$allocator@UFireTime@@@std@@@2@PAU342@@Z PROC ; std::_List_val<FireTime,std::allocator<FireTime> >::_Prevnode, COMDAT

; 565  : 		{	// return reference to predecessor pointer in node

  00000	55		 push	 ebp
  00001	8b ec		 mov	 ebp, esp

; 566  : 		return ((_Nodepref)(*_Pnode)._Prev);

  00003	8b 45 08	 mov	 eax, DWORD PTR __Pnode$[ebp]
  00006	83 c0 04	 add	 eax, 4

; 567  : 		}

  00009	5d		 pop	 ebp
  0000a	c3		 ret	 0
?_Prevnode@?$_List_val@UFireTime@@V?$allocator@UFireTime@@@std@@@std@@SAAAPAU_Node@?$_List_nod@UFireTime@@V?$allocator@UFireTime@@@std@@@2@PAU342@@Z ENDP ; std::_List_val<FireTime,std::allocator<FireTime> >::_Prevnode
_TEXT	ENDS
PUBLIC	?deallocate@?$allocator@U_Node@?$_List_nod@UFireTime@@V?$allocator@UFireTime@@@std@@@std@@@std@@QAEXPAU_Node@?$_List_nod@UFireTime@@V?$allocator@UFireTime@@@std@@@2@I@Z ; std::allocator<std::_List_nod<FireTime,std::allocator<FireTime> >::_Node>::deallocate
EXTRN	??3@YAXPAX@Z:PROC				; operator delete
; Function compile flags: /Ogsp
; File c:\program files (x86)\microsoft visual studio 10.0\vc\include\xmemory
;	COMDAT ?deallocate@?$allocator@U_Node@?$_List_nod@UFireTime@@V?$allocator@UFireTime@@@std@@@std@@@std@@QAEXPAU_Node@?$_List_nod@UFireTime@@V?$allocator@UFireTime@@@std@@@2@I@Z
_TEXT	SEGMENT
__Ptr$ = 8						; size = 4
___formal$ = 12						; size = 4
?deallocate@?$allocator@U_Node@?$_List_nod@UFireTime@@V?$allocator@UFireTime@@@std@@@std@@@std@@QAEXPAU_Node@?$_List_nod@UFireTime@@V?$allocator@UFireTime@@@std@@@2@I@Z PROC ; std::allocator<std::_List_nod<FireTime,std::allocator<FireTime> >::_Node>::deallocate, COMDAT
; _this$ = ecx

; 181  : 		{	// deallocate object at _Ptr, ignore size

  00000	55		 push	 ebp
  00001	8b ec		 mov	 ebp, esp

; 182  : 		::operator delete(_Ptr);

  00003	ff 75 08	 push	 DWORD PTR __Ptr$[ebp]
  00006	e8 00 00 00 00	 call	 ??3@YAXPAX@Z		; operator delete
  0000b	59		 pop	 ecx

; 183  : 		}

  0000c	5d		 pop	 ebp
  0000d	c2 08 00	 ret	 8
?deallocate@?$allocator@U_Node@?$_List_nod@UFireTime@@V?$allocator@UFireTime@@@std@@@std@@@std@@QAEXPAU_Node@?$_List_nod@UFireTime@@V?$allocator@UFireTime@@@std@@@2@I@Z ENDP ; std::allocator<std::_List_nod<FireTime,std::allocator<FireTime> >::_Node>::deallocate
_TEXT	ENDS
PUBLIC	??E?$_List_const_iterator@V?$_List_val@UFireTime@@V?$allocator@UFireTime@@@std@@@std@@@std@@QAEAAV01@XZ ; std::_List_const_iterator<std::_List_val<FireTime,std::allocator<FireTime> > >::operator++
; Function compile flags: /Ogsp
; File c:\program files (x86)\microsoft visual studio 10.0\vc\include\list
;	COMDAT ??E?$_List_const_iterator@V?$_List_val@UFireTime@@V?$allocator@UFireTime@@@std@@@std@@@std@@QAEAAV01@XZ
_TEXT	SEGMENT
??E?$_List_const_iterator@V?$_List_val@UFireTime@@V?$allocator@UFireTime@@@std@@@std@@@std@@QAEAAV01@XZ PROC ; std::_List_const_iterator<std::_List_val<FireTime,std::allocator<FireTime> > >::operator++, COMDAT
; _this$ = ecx

; 221  : 		{	// preincrement

  00000	8b c1		 mov	 eax, ecx

; 222  :  #if _ITERATOR_DEBUG_LEVEL == 2
; 223  : 		if (this->_Getcont() == 0
; 224  : 			|| this->_Ptr == 0
; 225  : 			|| this->_Ptr == ((_Mylist *)this->_Getcont())->_Myhead)
; 226  : 			{	// report error
; 227  : 			_DEBUG_ERROR("list iterator not incrementable");
; 228  : 			_SCL_SECURE_OUT_OF_RANGE;
; 229  : 			}
; 230  : 
; 231  :  #elif _ITERATOR_DEBUG_LEVEL == 1
; 232  : 		_SCL_SECURE_VALIDATE(this->_Getcont() != 0 && this->_Ptr != 0);
; 233  : 		_SCL_SECURE_VALIDATE_RANGE(this->_Ptr !=
; 234  : 			((_Mylist *)this->_Getcont())->_Myhead);
; 235  :  #endif /* _ITERATOR_DEBUG_LEVEL */
; 236  : 
; 237  : 		this->_Ptr = _Mylist::_Nextnode(this->_Ptr);

  00002	8b 08		 mov	 ecx, DWORD PTR [eax]
  00004	8b 09		 mov	 ecx, DWORD PTR [ecx]
  00006	89 08		 mov	 DWORD PTR [eax], ecx

; 238  : 		return (*this);
; 239  : 		}

  00008	c3		 ret	 0
??E?$_List_const_iterator@V?$_List_val@UFireTime@@V?$allocator@UFireTime@@@std@@@std@@@std@@QAEAAV01@XZ ENDP ; std::_List_const_iterator<std::_List_val<FireTime,std::allocator<FireTime> > >::operator++
_TEXT	ENDS
PUBLIC	??E?$_List_const_iterator@V?$_List_val@UFireTime@@V?$allocator@UFireTime@@@std@@@std@@@std@@QAE?AV01@H@Z ; std::_List_const_iterator<std::_List_val<FireTime,std::allocator<FireTime> > >::operator++
; Function compile flags: /Ogsp
;	COMDAT ??E?$_List_const_iterator@V?$_List_val@UFireTime@@V?$allocator@UFireTime@@@std@@@std@@@std@@QAE?AV01@H@Z
_TEXT	SEGMENT
___$ReturnUdt$ = 8					; size = 4
___formal$ = 12						; size = 4
??E?$_List_const_iterator@V?$_List_val@UFireTime@@V?$allocator@UFireTime@@@std@@@std@@@std@@QAE?AV01@H@Z PROC ; std::_List_const_iterator<std::_List_val<FireTime,std::allocator<FireTime> > >::operator++, COMDAT
; _this$ = ecx

; 242  : 		{	// postincrement

  00000	55		 push	 ebp
  00001	8b ec		 mov	 ebp, esp

; 243  : 		_Myiter _Tmp = *this;

  00003	8b 11		 mov	 edx, DWORD PTR [ecx]
  00005	8b 45 08	 mov	 eax, DWORD PTR ___$ReturnUdt$[ebp]
  00008	89 10		 mov	 DWORD PTR [eax], edx

; 244  : 		++*this;

  0000a	8b 12		 mov	 edx, DWORD PTR [edx]
  0000c	89 11		 mov	 DWORD PTR [ecx], edx

; 245  : 		return (_Tmp);
; 246  : 		}

  0000e	5d		 pop	 ebp
  0000f	c2 08 00	 ret	 8
??E?$_List_const_iterator@V?$_List_val@UFireTime@@V?$allocator@UFireTime@@@std@@@std@@@std@@QAE?AV01@H@Z ENDP ; std::_List_const_iterator<std::_List_val<FireTime,std::allocator<FireTime> > >::operator++
_TEXT	ENDS
PUBLIC	??8?$_List_const_iterator@V?$_List_val@UFireTime@@V?$allocator@UFireTime@@@std@@@std@@@std@@QBE_NABV01@@Z ; std::_List_const_iterator<std::_List_val<FireTime,std::allocator<FireTime> > >::operator==
; Function compile flags: /Ogsp
;	COMDAT ??8?$_List_const_iterator@V?$_List_val@UFireTime@@V?$allocator@UFireTime@@@std@@@std@@@std@@QBE_NABV01@@Z
_TEXT	SEGMENT
__Right$ = 8						; size = 4
??8?$_List_const_iterator@V?$_List_val@UFireTime@@V?$allocator@UFireTime@@@std@@@std@@@std@@QBE_NABV01@@Z PROC ; std::_List_const_iterator<std::_List_val<FireTime,std::allocator<FireTime> > >::operator==, COMDAT
; _this$ = ecx

; 281  : 		{	// test for iterator equality

  00000	55		 push	 ebp
  00001	8b ec		 mov	 ebp, esp

; 282  :  #if _ITERATOR_DEBUG_LEVEL == 2
; 283  : 		if (this->_Getcont() == 0
; 284  : 			|| this->_Getcont() != _Right._Getcont())
; 285  : 			{	// report error
; 286  : 			_DEBUG_ERROR("list iterators incompatible");
; 287  : 			_SCL_SECURE_INVALID_ARGUMENT;
; 288  : 			}
; 289  : 
; 290  :  #elif _ITERATOR_DEBUG_LEVEL == 1
; 291  : 		_SCL_SECURE_VALIDATE(this->_Getcont() != 0
; 292  : 			&& this->_Getcont() == _Right._Getcont());
; 293  :  #endif /* _ITERATOR_DEBUG_LEVEL */
; 294  : 
; 295  : 		return (this->_Ptr == _Right._Ptr);

  00003	8b 01		 mov	 eax, DWORD PTR [ecx]
  00005	8b 4d 08	 mov	 ecx, DWORD PTR __Right$[ebp]
  00008	2b 01		 sub	 eax, DWORD PTR [ecx]
  0000a	f7 d8		 neg	 eax
  0000c	1b c0		 sbb	 eax, eax
  0000e	40		 inc	 eax

; 296  : 		}

  0000f	5d		 pop	 ebp
  00010	c2 04 00	 ret	 4
??8?$_List_const_iterator@V?$_List_val@UFireTime@@V?$allocator@UFireTime@@@std@@@std@@@std@@QBE_NABV01@@Z ENDP ; std::_List_const_iterator<std::_List_val<FireTime,std::allocator<FireTime> > >::operator==
_TEXT	ENDS
PUBLIC	?_Mynode@?$_List_unchecked_const_iterator@V?$_List_val@UFireTime@@V?$allocator@UFireTime@@@std@@@std@@U_Iterator_base0@2@@std@@QBEPAU_Node@?$_List_nod@UFireTime@@V?$allocator@UFireTime@@@std@@@2@XZ ; std::_List_unchecked_const_iterator<std::_List_val<FireTime,std::allocator<FireTime> >,std::_Iterator_base0>::_Mynode
; Function compile flags: /Ogsp
;	COMDAT ?_Mynode@?$_List_unchecked_const_iterator@V?$_List_val@UFireTime@@V?$allocator@UFireTime@@@std@@@std@@U_Iterator_base0@2@@std@@QBEPAU_Node@?$_List_nod@UFireTime@@V?$allocator@UFireTime@@@std@@@2@XZ
_TEXT	SEGMENT
?_Mynode@?$_List_unchecked_const_iterator@V?$_List_val@UFireTime@@V?$allocator@UFireTime@@@std@@@std@@U_Iterator_base0@2@@std@@QBEPAU_Node@?$_List_nod@UFireTime@@V?$allocator@UFireTime@@@std@@@2@XZ PROC ; std::_List_unchecked_const_iterator<std::_List_val<FireTime,std::allocator<FireTime> >,std::_Iterator_base0>::_Mynode, COMDAT
; _this$ = ecx

; 93   : 		return (_Ptr);

  00000	8b 01		 mov	 eax, DWORD PTR [ecx]

; 94   : 		}

  00002	c3		 ret	 0
?_Mynode@?$_List_unchecked_const_iterator@V?$_List_val@UFireTime@@V?$allocator@UFireTime@@@std@@@std@@U_Iterator_base0@2@@std@@QBEPAU_Node@?$_List_nod@UFireTime@@V?$allocator@UFireTime@@@std@@@2@XZ ENDP ; std::_List_unchecked_const_iterator<std::_List_val<FireTime,std::allocator<FireTime> >,std::_Iterator_base0>::_Mynode
_TEXT	ENDS
PUBLIC	??0?$_Vector_const_iterator@V?$_Vector_val@PAVioBaseChar@@V?$allocator@PAVioBaseChar@@@std@@@std@@@std@@QAE@PAPAVioBaseChar@@PBU_Container_base0@1@@Z ; std::_Vector_const_iterator<std::_Vector_val<ioBaseChar *,std::allocator<ioBaseChar *> > >::_Vector_const_iterator<std::_Vector_val<ioBaseChar *,std::allocator<ioBaseChar *> > >
; Function compile flags: /Ogsp
; File c:\program files (x86)\microsoft visual studio 10.0\vc\include\vector
;	COMDAT ??0?$_Vector_const_iterator@V?$_Vector_val@PAVioBaseChar@@V?$allocator@PAVioBaseChar@@@std@@@std@@@std@@QAE@PAPAVioBaseChar@@PBU_Container_base0@1@@Z
_TEXT	SEGMENT
__Parg$ = 8						; size = 4
__Pvector$ = 12						; size = 4
??0?$_Vector_const_iterator@V?$_Vector_val@PAVioBaseChar@@V?$allocator@PAVioBaseChar@@@std@@@std@@@std@@QAE@PAPAVioBaseChar@@PBU_Container_base0@1@@Z PROC ; std::_Vector_const_iterator<std::_Vector_val<ioBaseChar *,std::allocator<ioBaseChar *> > >::_Vector_const_iterator<std::_Vector_val<ioBaseChar *,std::allocator<ioBaseChar *> > >, COMDAT
; _this$ = ecx

; 45   : 		{	// construct with pointer _Parg

  00000	55		 push	 ebp
  00001	8b ec		 mov	 ebp, esp
  00003	8b c1		 mov	 eax, ecx
  00005	8b 4d 08	 mov	 ecx, DWORD PTR __Parg$[ebp]
  00008	89 08		 mov	 DWORD PTR [eax], ecx

; 46   : 		this->_Adopt(_Pvector);
; 47   : 		}

  0000a	5d		 pop	 ebp
  0000b	c2 08 00	 ret	 8
??0?$_Vector_const_iterator@V?$_Vector_val@PAVioBaseChar@@V?$allocator@PAVioBaseChar@@@std@@@std@@@std@@QAE@PAPAVioBaseChar@@PBU_Container_base0@1@@Z ENDP ; std::_Vector_const_iterator<std::_Vector_val<ioBaseChar *,std::allocator<ioBaseChar *> > >::_Vector_const_iterator<std::_Vector_val<ioBaseChar *,std::allocator<ioBaseChar *> > >
_TEXT	ENDS
PUBLIC	?_Myval@?$_List_val@UFireTime@@V?$allocator@UFireTime@@@std@@@std@@SAAAUFireTime@@PAU_Node@?$_List_nod@UFireTime@@V?$allocator@UFireTime@@@std@@@2@@Z ; std::_List_val<FireTime,std::allocator<FireTime> >::_Myval
; Function compile flags: /Ogsp
; File c:\program files (x86)\microsoft visual studio 10.0\vc\include\list
;	COMDAT ?_Myval@?$_List_val@UFireTime@@V?$allocator@UFireTime@@@std@@@std@@SAAAUFireTime@@PAU_Node@?$_List_nod@UFireTime@@V?$allocator@UFireTime@@@std@@@2@@Z
_TEXT	SEGMENT
__Pnode$ = 8						; size = 4
?_Myval@?$_List_val@UFireTime@@V?$allocator@UFireTime@@@std@@@std@@SAAAUFireTime@@PAU_Node@?$_List_nod@UFireTime@@V?$allocator@UFireTime@@@std@@@2@@Z PROC ; std::_List_val<FireTime,std::allocator<FireTime> >::_Myval, COMDAT

; 570  : 		{	// return reference to value in node

  00000	55		 push	 ebp
  00001	8b ec		 mov	 ebp, esp

; 571  : 		return ((reference)(*_Pnode)._Myval);

  00003	8b 45 08	 mov	 eax, DWORD PTR __Pnode$[ebp]
  00006	83 c0 08	 add	 eax, 8

; 572  : 		}

  00009	5d		 pop	 ebp
  0000a	c3		 ret	 0
?_Myval@?$_List_val@UFireTime@@V?$allocator@UFireTime@@@std@@@std@@SAAAUFireTime@@PAU_Node@?$_List_nod@UFireTime@@V?$allocator@UFireTime@@@std@@@2@@Z ENDP ; std::_List_val<FireTime,std::allocator<FireTime> >::_Myval
_TEXT	ENDS
PUBLIC	?_Compat@?$_Vector_const_iterator@V?$_Vector_val@PAVioBaseChar@@V?$allocator@PAVioBaseChar@@@std@@@std@@@std@@QBEXABV12@@Z ; std::_Vector_const_iterator<std::_Vector_val<ioBaseChar *,std::allocator<ioBaseChar *> > >::_Compat
; Function compile flags: /Ogsp
; File c:\program files (x86)\microsoft visual studio 10.0\vc\include\vector
;	COMDAT ?_Compat@?$_Vector_const_iterator@V?$_Vector_val@PAVioBaseChar@@V?$allocator@PAVioBaseChar@@@std@@@std@@@std@@QBEXABV12@@Z
_TEXT	SEGMENT
___formal$ = 8						; size = 4
?_Compat@?$_Vector_const_iterator@V?$_Vector_val@PAVioBaseChar@@V?$allocator@PAVioBaseChar@@@std@@@std@@@std@@QBEXABV12@@Z PROC ; std::_Vector_const_iterator<std::_Vector_val<ioBaseChar *,std::allocator<ioBaseChar *> > >::_Compat, COMDAT
; _this$ = ecx

; 253  : 		}

  00000	c2 04 00	 ret	 4
?_Compat@?$_Vector_const_iterator@V?$_Vector_val@PAVioBaseChar@@V?$allocator@PAVioBaseChar@@@std@@@std@@@std@@QBEXABV12@@Z ENDP ; std::_Vector_const_iterator<std::_Vector_val<ioBaseChar *,std::allocator<ioBaseChar *> > >::_Compat
_TEXT	ENDS
PUBLIC	??0?$_List_unchecked_const_iterator@V?$_List_val@UFireTime@@V?$allocator@UFireTime@@@std@@@std@@U_Iterator_base0@2@@std@@QAE@PAU_Node@?$_List_nod@UFireTime@@V?$allocator@UFireTime@@@std@@@1@PBV?$_List_val@UFireTime@@V?$allocator@UFireTime@@@std@@@1@@Z ; std::_List_unchecked_const_iterator<std::_List_val<FireTime,std::allocator<FireTime> >,std::_Iterator_base0>::_List_unchecked_const_iterator<std::_List_val<FireTime,std::allocator<FireTime> >,std::_Iterator_base0>
; Function compile flags: /Ogsp
; File c:\program files (x86)\microsoft visual studio 10.0\vc\include\list
;	COMDAT ??0?$_List_unchecked_const_iterator@V?$_List_val@UFireTime@@V?$allocator@UFireTime@@@std@@@std@@U_Iterator_base0@2@@std@@QAE@PAU_Node@?$_List_nod@UFireTime@@V?$allocator@UFireTime@@@std@@@1@PBV?$_List_val@UFireTime@@V?$allocator@UFireTime@@@std@@@1@@Z
_TEXT	SEGMENT
__Pnode$ = 8						; size = 4
__Plist$ = 12						; size = 4
??0?$_List_unchecked_const_iterator@V?$_List_val@UFireTime@@V?$allocator@UFireTime@@@std@@@std@@U_Iterator_base0@2@@std@@QAE@PAU_Node@?$_List_nod@UFireTime@@V?$allocator@UFireTime@@@std@@@1@PBV?$_List_val@UFireTime@@V?$allocator@UFireTime@@@std@@@1@@Z PROC ; std::_List_unchecked_const_iterator<std::_List_val<FireTime,std::allocator<FireTime> >,std::_Iterator_base0>::_List_unchecked_const_iterator<std::_List_val<FireTime,std::allocator<FireTime> >,std::_Iterator_base0>, COMDAT
; _this$ = ecx

; 41   : 		{	// construct with node pointer _Pnode

  00000	55		 push	 ebp
  00001	8b ec		 mov	 ebp, esp
  00003	8b c1		 mov	 eax, ecx
  00005	8b 4d 08	 mov	 ecx, DWORD PTR __Pnode$[ebp]
  00008	89 08		 mov	 DWORD PTR [eax], ecx

; 42   : 		this->_Adopt(_Plist);
; 43   : 		}

  0000a	5d		 pop	 ebp
  0000b	c2 08 00	 ret	 8
??0?$_List_unchecked_const_iterator@V?$_List_val@UFireTime@@V?$allocator@UFireTime@@@std@@@std@@U_Iterator_base0@2@@std@@QAE@PAU_Node@?$_List_nod@UFireTime@@V?$allocator@UFireTime@@@std@@@1@PBV?$_List_val@UFireTime@@V?$allocator@UFireTime@@@std@@@1@@Z ENDP ; std::_List_unchecked_const_iterator<std::_List_val<FireTime,std::allocator<FireTime> >,std::_Iterator_base0>::_List_unchecked_const_iterator<std::_List_val<FireTime,std::allocator<FireTime> >,std::_Iterator_base0>
_TEXT	ENDS
PUBLIC	__real@3f91df46a2526c7a
PUBLIC	??$DEGtoRAD@M@@YAMM@Z				; DEGtoRAD<float>
;	COMDAT __real@3f91df46a2526c7a
; File d:\lost saga for developer\youtube\tutorial\source\src\lsclient\veryoftenusedefine.h
CONST	SEGMENT
__real@3f91df46a2526c7a DQ 03f91df46a2526c7ar	; 0.0174533
; Function compile flags: /Ogsp
CONST	ENDS
;	COMDAT ??$DEGtoRAD@M@@YAMM@Z
_TEXT	SEGMENT
tv129 = 8						; size = 4
_val$ = 8						; size = 4
??$DEGtoRAD@M@@YAMM@Z PROC				; DEGtoRAD<float>, COMDAT

; 20   : type  DEGtoRAD (type val) {return (type) (val * 0.0174532925199);}

  00000	55		 push	 ebp
  00001	8b ec		 mov	 ebp, esp
  00003	d9 45 08	 fld	 DWORD PTR _val$[ebp]
  00006	dc 0d 00 00 00
	00		 fmul	 QWORD PTR __real@3f91df46a2526c7a
  0000c	d9 5d 08	 fstp	 DWORD PTR tv129[ebp]
  0000f	d9 45 08	 fld	 DWORD PTR tv129[ebp]
  00012	5d		 pop	 ebp
  00013	c3		 ret	 0
??$DEGtoRAD@M@@YAMM@Z ENDP				; DEGtoRAD<float>
_TEXT	ENDS
PUBLIC	??1FireTime@@QAE@XZ				; FireTime::~FireTime
;	COMDAT xdata$x
xdata$x	SEGMENT
__unwindtable$??1FireTime@@QAE@XZ DD 0ffffffffH
	DD	FLAT:__unwindfunclet$??1FireTime@@QAE@XZ$0
	DD	00H
	DD	FLAT:__unwindfunclet$??1FireTime@@QAE@XZ$1
__ehfuncinfo$??1FireTime@@QAE@XZ DD 019930522H
	DD	02H
	DD	FLAT:__unwindtable$??1FireTime@@QAE@XZ
	DD	2 DUP(00H)
	DD	2 DUP(00H)
	DD	00H
	DD	01H
; Function compile flags: /Ogsp
xdata$x	ENDS
;	COMDAT ??1FireTime@@QAE@XZ
_TEXT	SEGMENT
_this$ = -16						; size = 4
__$EHRec$ = -12						; size = 12
??1FireTime@@QAE@XZ PROC				; FireTime::~FireTime, COMDAT
; _this$ = ecx
  00000	6a 04		 push	 4
  00002	b8 00 00 00 00	 mov	 eax, __ehhandler$??1FireTime@@QAE@XZ
  00007	e8 00 00 00 00	 call	 __EH_prolog3
  0000c	8b f9		 mov	 edi, ecx
  0000e	89 7d f0	 mov	 DWORD PTR _this$[ebp], edi
  00011	8b 35 00 00 00
	00		 mov	 esi, DWORD PTR __imp_??1ioHashString@@QAE@XZ
  00017	8d 4f 44	 lea	 ecx, DWORD PTR [edi+68]
  0001a	c7 45 fc 01 00
	00 00		 mov	 DWORD PTR __$EHRec$[ebp+8], 1
  00021	ff d6		 call	 esi
  00023	8d 4f 30	 lea	 ecx, DWORD PTR [edi+48]
  00026	c6 45 fc 00	 mov	 BYTE PTR __$EHRec$[ebp+8], 0
  0002a	ff d6		 call	 esi
  0002c	83 4d fc ff	 or	 DWORD PTR __$EHRec$[ebp+8], -1
  00030	8d 4f 14	 lea	 ecx, DWORD PTR [edi+20]
  00033	ff d6		 call	 esi
  00035	e8 00 00 00 00	 call	 __EH_epilog3
  0003a	c3		 ret	 0
_TEXT	ENDS
;	COMDAT text$x
text$x	SEGMENT
__unwindfunclet$??1FireTime@@QAE@XZ$0:
  00000	8b 4d f0	 mov	 ecx, DWORD PTR _this$[ebp]
  00003	83 c1 14	 add	 ecx, 20			; 00000014H
  00006	ff 25 00 00 00
	00		 jmp	 DWORD PTR __imp_??1ioHashString@@QAE@XZ
__unwindfunclet$??1FireTime@@QAE@XZ$1:
  0000c	8b 4d f0	 mov	 ecx, DWORD PTR _this$[ebp]
  0000f	83 c1 30	 add	 ecx, 48			; 00000030H
  00012	ff 25 00 00 00
	00		 jmp	 DWORD PTR __imp_??1ioHashString@@QAE@XZ
__ehhandler$??1FireTime@@QAE@XZ:
  00018	8b 54 24 08	 mov	 edx, DWORD PTR [esp+8]
  0001c	8d 42 0c	 lea	 eax, DWORD PTR [edx+12]
  0001f	8b 4a ec	 mov	 ecx, DWORD PTR [edx-20]
  00022	33 c8		 xor	 ecx, eax
  00024	e8 00 00 00 00	 call	 @__security_check_cookie@4
  00029	b8 00 00 00 00	 mov	 eax, OFFSET __ehfuncinfo$??1FireTime@@QAE@XZ
  0002e	e9 00 00 00 00	 jmp	 ___CxxFrameHandler3
text$x	ENDS
??1FireTime@@QAE@XZ ENDP				; FireTime::~FireTime
; Function compile flags: /Odsp
;	COMDAT ??_EioTargetTrace11Dummy@@WBMI@AEPAXI@Z
_TEXT	SEGMENT
??_EioTargetTrace11Dummy@@WBMI@AEPAXI@Z PROC		; [thunk]:ioTargetTrace11Dummy::`vector deleting destructor', COMDAT
  00000	81 e9 c8 01 00
	00		 sub	 ecx, 456		; 000001c8H
  00006	e9 00 00 00 00	 jmp	 ??_EioTargetTrace11Dummy@@UAEPAXI@Z
??_EioTargetTrace11Dummy@@WBMI@AEPAXI@Z ENDP		; [thunk]:ioTargetTrace11Dummy::`vector deleting destructor'
_TEXT	ENDS
PUBLIC	??0D3DXVECTOR3@@QAE@XZ				; D3DXVECTOR3::D3DXVECTOR3
; Function compile flags: /Ogsp
; File c:\program files (x86)\microsoft directx sdk (june 2010)\include\d3dx9math.h
;	COMDAT ??0D3DXVECTOR3@@QAE@XZ
_TEXT	SEGMENT
??0D3DXVECTOR3@@QAE@XZ PROC				; D3DXVECTOR3::D3DXVECTOR3, COMDAT
; _this$ = ecx

; 165  :     D3DXVECTOR3() {};

  00000	8b c1		 mov	 eax, ecx
  00002	c3		 ret	 0
??0D3DXVECTOR3@@QAE@XZ ENDP				; D3DXVECTOR3::D3DXVECTOR3
_TEXT	ENDS
PUBLIC	??0D3DXQUATERNION@@QAE@XZ			; D3DXQUATERNION::D3DXQUATERNION
; Function compile flags: /Ogsp
;	COMDAT ??0D3DXQUATERNION@@QAE@XZ
_TEXT	SEGMENT
??0D3DXQUATERNION@@QAE@XZ PROC				; D3DXQUATERNION::D3DXQUATERNION, COMDAT
; _this$ = ecx

; 429  :     D3DXQUATERNION() {}

  00000	8b c1		 mov	 eax, ecx
  00002	c3		 ret	 0
??0D3DXQUATERNION@@QAE@XZ ENDP				; D3DXQUATERNION::D3DXQUATERNION
_TEXT	ENDS
PUBLIC	??0D3DXVECTOR3@@QAE@MMM@Z			; D3DXVECTOR3::D3DXVECTOR3
; Function compile flags: /Ogsp
; File c:\program files (x86)\microsoft directx sdk (june 2010)\include\d3dx9math.inl
;	COMDAT ??0D3DXVECTOR3@@QAE@MMM@Z
_TEXT	SEGMENT
_fx$ = 8						; size = 4
_fy$ = 12						; size = 4
_fz$ = 16						; size = 4
??0D3DXVECTOR3@@QAE@MMM@Z PROC				; D3DXVECTOR3::D3DXVECTOR3, COMDAT
; _this$ = ecx

; 303  : {

  00000	55		 push	 ebp
  00001	8b ec		 mov	 ebp, esp

; 304  :     x = fx;

  00003	f3 0f 10 45 08	 movss	 xmm0, DWORD PTR _fx$[ebp]
  00008	8b c1		 mov	 eax, ecx
  0000a	f3 0f 11 00	 movss	 DWORD PTR [eax], xmm0

; 305  :     y = fy;

  0000e	f3 0f 10 45 0c	 movss	 xmm0, DWORD PTR _fy$[ebp]
  00013	f3 0f 11 40 04	 movss	 DWORD PTR [eax+4], xmm0

; 306  :     z = fz;

  00018	f3 0f 10 45 10	 movss	 xmm0, DWORD PTR _fz$[ebp]
  0001d	f3 0f 11 40 08	 movss	 DWORD PTR [eax+8], xmm0

; 307  : }

  00022	5d		 pop	 ebp
  00023	c2 0c 00	 ret	 12			; 0000000cH
??0D3DXVECTOR3@@QAE@MMM@Z ENDP				; D3DXVECTOR3::D3DXVECTOR3
_TEXT	ENDS
PUBLIC	__mask@@NegFloat@
PUBLIC	??GD3DXVECTOR3@@QBE?AU0@XZ			; D3DXVECTOR3::operator-
;	COMDAT __mask@@NegFloat@
CONST	SEGMENT
__mask@@NegFloat@ DB 00H, 00H, 00H, 080H, 00H, 00H, 00H, 080H, 00H, 00H, 00H
	DB	080H, 00H, 00H, 00H, 080H
; Function compile flags: /Ogsp
CONST	ENDS
;	COMDAT ??GD3DXVECTOR3@@QBE?AU0@XZ
_TEXT	SEGMENT
___$ReturnUdt$ = 8					; size = 4
??GD3DXVECTOR3@@QBE?AU0@XZ PROC				; D3DXVECTOR3::operator-, COMDAT
; _this$ = ecx

; 372  : {

  00000	55		 push	 ebp
  00001	8b ec		 mov	 ebp, esp

; 373  :     return D3DXVECTOR3(-x, -y, -z);

  00003	f3 0f 10 05 00
	00 00 00	 movss	 xmm0, DWORD PTR __mask@@NegFloat@
  0000b	8b 45 08	 mov	 eax, DWORD PTR ___$ReturnUdt$[ebp]
  0000e	f3 0f 10 09	 movss	 xmm1, DWORD PTR [ecx]
  00012	0f 57 c8	 xorps	 xmm1, xmm0
  00015	f3 0f 11 08	 movss	 DWORD PTR [eax], xmm1
  00019	f3 0f 10 49 04	 movss	 xmm1, DWORD PTR [ecx+4]
  0001e	0f 57 c8	 xorps	 xmm1, xmm0
  00021	f3 0f 11 48 04	 movss	 DWORD PTR [eax+4], xmm1
  00026	f3 0f 10 49 08	 movss	 xmm1, DWORD PTR [ecx+8]
  0002b	0f 57 c8	 xorps	 xmm1, xmm0
  0002e	f3 0f 11 48 08	 movss	 DWORD PTR [eax+8], xmm1

; 374  : }

  00033	5d		 pop	 ebp
  00034	c2 04 00	 ret	 4
??GD3DXVECTOR3@@QBE?AU0@XZ ENDP				; D3DXVECTOR3::operator-
_TEXT	ENDS
PUBLIC	??GD3DXVECTOR3@@QBE?AU0@ABU0@@Z			; D3DXVECTOR3::operator-
; Function compile flags: /Ogsp
;	COMDAT ??GD3DXVECTOR3@@QBE?AU0@ABU0@@Z
_TEXT	SEGMENT
___$ReturnUdt$ = 8					; size = 4
_v$ = 12						; size = 4
??GD3DXVECTOR3@@QBE?AU0@ABU0@@Z PROC			; D3DXVECTOR3::operator-, COMDAT
; _this$ = ecx

; 386  : {

  00000	55		 push	 ebp
  00001	8b ec		 mov	 ebp, esp

; 387  :     return D3DXVECTOR3(x - v.x, y - v.y, z - v.z);

  00003	8b 55 0c	 mov	 edx, DWORD PTR _v$[ebp]
  00006	f3 0f 10 01	 movss	 xmm0, DWORD PTR [ecx]
  0000a	f3 0f 10 0a	 movss	 xmm1, DWORD PTR [edx]
  0000e	8b 45 08	 mov	 eax, DWORD PTR ___$ReturnUdt$[ebp]
  00011	0f 5a c0	 cvtps2pd xmm0, xmm0
  00014	0f 5a c9	 cvtps2pd xmm1, xmm1
  00017	f2 0f 5c c1	 subsd	 xmm0, xmm1
  0001b	f3 0f 10 4a 04	 movss	 xmm1, DWORD PTR [edx+4]
  00020	66 0f 5a c0	 cvtpd2ps xmm0, xmm0
  00024	f3 0f 11 00	 movss	 DWORD PTR [eax], xmm0
  00028	f3 0f 10 41 04	 movss	 xmm0, DWORD PTR [ecx+4]
  0002d	0f 5a c0	 cvtps2pd xmm0, xmm0
  00030	0f 5a c9	 cvtps2pd xmm1, xmm1
  00033	f2 0f 5c c1	 subsd	 xmm0, xmm1
  00037	f3 0f 10 4a 08	 movss	 xmm1, DWORD PTR [edx+8]
  0003c	66 0f 5a c0	 cvtpd2ps xmm0, xmm0
  00040	f3 0f 11 40 04	 movss	 DWORD PTR [eax+4], xmm0
  00045	f3 0f 10 41 08	 movss	 xmm0, DWORD PTR [ecx+8]
  0004a	0f 5a c0	 cvtps2pd xmm0, xmm0
  0004d	0f 5a c9	 cvtps2pd xmm1, xmm1
  00050	f2 0f 5c c1	 subsd	 xmm0, xmm1
  00054	66 0f 5a c0	 cvtpd2ps xmm0, xmm0
  00058	f3 0f 11 40 08	 movss	 DWORD PTR [eax+8], xmm0

; 388  : }

  0005d	5d		 pop	 ebp
  0005e	c2 08 00	 ret	 8
??GD3DXVECTOR3@@QBE?AU0@ABU0@@Z ENDP			; D3DXVECTOR3::operator-
_TEXT	ENDS
PUBLIC	??9D3DXVECTOR3@@QBEHABU0@@Z			; D3DXVECTOR3::operator!=
; Function compile flags: /Ogsp
;	COMDAT ??9D3DXVECTOR3@@QBEHABU0@@Z
_TEXT	SEGMENT
_v$ = 8							; size = 4
??9D3DXVECTOR3@@QBEHABU0@@Z PROC			; D3DXVECTOR3::operator!=, COMDAT
; _this$ = ecx

; 419  : {

  00000	55		 push	 ebp
  00001	8b ec		 mov	 ebp, esp

; 420  :     return x != v.x || y != v.y || z != v.z;

  00003	8b 55 08	 mov	 edx, DWORD PTR _v$[ebp]
  00006	f3 0f 10 01	 movss	 xmm0, DWORD PTR [ecx]
  0000a	f3 0f 10 0a	 movss	 xmm1, DWORD PTR [edx]
  0000e	0f 5a c0	 cvtps2pd xmm0, xmm0
  00011	0f 5a c9	 cvtps2pd xmm1, xmm1
  00014	66 0f 2e c1	 ucomisd xmm0, xmm1
  00018	9f		 lahf
  00019	f6 c4 44	 test	 ah, 68			; 00000044H
  0001c	7a 38		 jp	 SHORT $LN3@operator
  0001e	f3 0f 10 41 04	 movss	 xmm0, DWORD PTR [ecx+4]
  00023	f3 0f 10 4a 04	 movss	 xmm1, DWORD PTR [edx+4]
  00028	0f 5a c0	 cvtps2pd xmm0, xmm0
  0002b	0f 5a c9	 cvtps2pd xmm1, xmm1
  0002e	66 0f 2e c1	 ucomisd xmm0, xmm1
  00032	9f		 lahf
  00033	f6 c4 44	 test	 ah, 68			; 00000044H
  00036	7a 1e		 jp	 SHORT $LN3@operator
  00038	f3 0f 10 41 08	 movss	 xmm0, DWORD PTR [ecx+8]
  0003d	f3 0f 10 4a 08	 movss	 xmm1, DWORD PTR [edx+8]
  00042	0f 5a c0	 cvtps2pd xmm0, xmm0
  00045	0f 5a c9	 cvtps2pd xmm1, xmm1
  00048	66 0f 2e c1	 ucomisd xmm0, xmm1
  0004c	9f		 lahf
  0004d	f6 c4 44	 test	 ah, 68			; 00000044H
  00050	7a 04		 jp	 SHORT $LN3@operator
  00052	33 c0		 xor	 eax, eax
  00054	eb 03		 jmp	 SHORT $LN4@operator
$LN3@operator:
  00056	33 c0		 xor	 eax, eax
  00058	40		 inc	 eax
$LN4@operator:

; 421  : }

  00059	5d		 pop	 ebp
  0005a	c2 04 00	 ret	 4
??9D3DXVECTOR3@@QBEHABU0@@Z ENDP			; D3DXVECTOR3::operator!=
_TEXT	ENDS
PUBLIC	?D3DXVec3LengthSq@@YAMPBUD3DXVECTOR3@@@Z	; D3DXVec3LengthSq
; Function compile flags: /Ogsp
;	COMDAT ?D3DXVec3LengthSq@@YAMPBUD3DXVECTOR3@@@Z
_TEXT	SEGMENT
tv165 = 8						; size = 4
_pV$ = 8						; size = 4
?D3DXVec3LengthSq@@YAMPBUD3DXVECTOR3@@@Z PROC		; D3DXVec3LengthSq, COMDAT

; 1725 : {

  00000	55		 push	 ebp
  00001	8b ec		 mov	 ebp, esp

; 1726 : #ifdef D3DX_DEBUG
; 1727 :     if(!pV)
; 1728 :         return 0.0f;
; 1729 : #endif
; 1730 : 
; 1731 :     return pV->x * pV->x + pV->y * pV->y + pV->z * pV->z;

  00003	8b 45 08	 mov	 eax, DWORD PTR _pV$[ebp]
  00006	d9 40 04	 fld	 DWORD PTR [eax+4]
  00009	d9 00		 fld	 DWORD PTR [eax]
  0000b	d9 40 08	 fld	 DWORD PTR [eax+8]
  0000e	d9 c1		 fld	 ST(1)
  00010	de ca		 fmulp	 ST(2), ST(0)
  00012	d9 c2		 fld	 ST(2)
  00014	de cb		 fmulp	 ST(3), ST(0)
  00016	d9 c9		 fxch	 ST(1)
  00018	de c2		 faddp	 ST(2), ST(0)
  0001a	d9 c0		 fld	 ST(0)
  0001c	de c9		 fmulp	 ST(1), ST(0)
  0001e	de c1		 faddp	 ST(1), ST(0)
  00020	d9 5d 08	 fstp	 DWORD PTR tv165[ebp]
  00023	d9 45 08	 fld	 DWORD PTR tv165[ebp]

; 1732 : }

  00026	5d		 pop	 ebp
  00027	c3		 ret	 0
?D3DXVec3LengthSq@@YAMPBUD3DXVECTOR3@@@Z ENDP		; D3DXVec3LengthSq
_TEXT	ENDS
PUBLIC	?D3DXVec3Dot@@YAMPBUD3DXVECTOR3@@0@Z		; D3DXVec3Dot
; Function compile flags: /Ogsp
;	COMDAT ?D3DXVec3Dot@@YAMPBUD3DXVECTOR3@@0@Z
_TEXT	SEGMENT
tv188 = 8						; size = 4
_pV1$ = 8						; size = 4
_pV2$ = 12						; size = 4
?D3DXVec3Dot@@YAMPBUD3DXVECTOR3@@0@Z PROC		; D3DXVec3Dot, COMDAT

; 1736 : {

  00000	55		 push	 ebp
  00001	8b ec		 mov	 ebp, esp

; 1737 : #ifdef D3DX_DEBUG
; 1738 :     if(!pV1 || !pV2)
; 1739 :         return 0.0f;
; 1740 : #endif
; 1741 : 
; 1742 :     return pV1->x * pV2->x + pV1->y * pV2->y + pV1->z * pV2->z;

  00003	8b 45 08	 mov	 eax, DWORD PTR _pV1$[ebp]
  00006	8b 4d 0c	 mov	 ecx, DWORD PTR _pV2$[ebp]
  00009	d9 40 04	 fld	 DWORD PTR [eax+4]
  0000c	d8 49 04	 fmul	 DWORD PTR [ecx+4]
  0000f	d9 00		 fld	 DWORD PTR [eax]
  00011	d8 09		 fmul	 DWORD PTR [ecx]
  00013	de c1		 faddp	 ST(1), ST(0)
  00015	d9 40 08	 fld	 DWORD PTR [eax+8]
  00018	d8 49 08	 fmul	 DWORD PTR [ecx+8]
  0001b	de c1		 faddp	 ST(1), ST(0)
  0001d	d9 5d 08	 fstp	 DWORD PTR tv188[ebp]
  00020	d9 45 08	 fld	 DWORD PTR tv188[ebp]

; 1743 : }

  00023	5d		 pop	 ebp
  00024	c3		 ret	 0
?D3DXVec3Dot@@YAMPBUD3DXVECTOR3@@0@Z ENDP		; D3DXVec3Dot
_TEXT	ENDS
PUBLIC	?_DECSTR@@YAXPADH@Z				; _DECSTR
; Function compile flags: /Ogsp
; File d:\lost saga for developer\youtube\tutorial\source\src\lsclient\stringprotect.h
;	COMDAT ?_DECSTR@@YAXPADH@Z
_TEXT	SEGMENT
_s$ = 8							; size = 4
_l$ = 12						; size = 4
?_DECSTR@@YAXPADH@Z PROC				; _DECSTR, COMDAT

; 40   : __forceinline void _DECSTR(char* s, int l){int i=0,l4=(l-1)/4,*p=(int*)s;s[l-1]=0;for(;i<l4;++i)*(p++)^=0xEAEBECED;for(i=l4*4;i<l-1;++i)s[i]^=0xED-i%4;}

  00000	55		 push	 ebp
  00001	8b ec		 mov	 ebp, esp
  00003	8b 4d 0c	 mov	 ecx, DWORD PTR _l$[ebp]
  00006	56		 push	 esi
  00007	8b 75 08	 mov	 esi, DWORD PTR _s$[ebp]
  0000a	57		 push	 edi
  0000b	8d 79 ff	 lea	 edi, DWORD PTR [ecx-1]
  0000e	8b c7		 mov	 eax, edi
  00010	99		 cdq
  00011	83 e2 03	 and	 edx, 3
  00014	03 c2		 add	 eax, edx
  00016	c1 f8 02	 sar	 eax, 2
  00019	8b d6		 mov	 edx, esi
  0001b	c6 44 0e ff 00	 mov	 BYTE PTR [esi+ecx-1], 0
  00020	85 c0		 test	 eax, eax
  00022	7e 0e		 jle	 SHORT $LN4@DECSTR
  00024	8b c8		 mov	 ecx, eax
$LL6@DECSTR:
  00026	81 32 ed ec eb
	ea		 xor	 DWORD PTR [edx], -353637139 ; eaebecedH
  0002c	83 c2 04	 add	 edx, 4
  0002f	49		 dec	 ecx
  00030	75 f4		 jne	 SHORT $LL6@DECSTR
$LN4@DECSTR:
  00032	c1 e0 02	 shl	 eax, 2
  00035	eb 17		 jmp	 SHORT $LN14@DECSTR
$LL3@DECSTR:
  00037	8b c8		 mov	 ecx, eax
  00039	81 e1 03 00 00
	80		 and	 ecx, -2147483645	; 80000003H
  0003f	79 05		 jns	 SHORT $LN13@DECSTR
  00041	49		 dec	 ecx
  00042	83 c9 fc	 or	 ecx, -4			; fffffffcH
  00045	41		 inc	 ecx
$LN13@DECSTR:
  00046	b2 ed		 mov	 dl, -19			; ffffffedH
  00048	2a d1		 sub	 dl, cl
  0004a	30 14 30	 xor	 BYTE PTR [eax+esi], dl
  0004d	40		 inc	 eax
$LN14@DECSTR:
  0004e	3b c7		 cmp	 eax, edi
  00050	7c e5		 jl	 SHORT $LL3@DECSTR
  00052	5f		 pop	 edi
  00053	5e		 pop	 esi
  00054	5d		 pop	 ebp
  00055	c3		 ret	 0
?_DECSTR@@YAXPADH@Z ENDP				; _DECSTR
_TEXT	ENDS
PUBLIC	?return57@@YAIXZ				; return57
; Function compile flags: /Ogsp
; File d:\lost saga for developer\youtube\tutorial\source\src\lsclient\veryoftenusedefine.h
;	COMDAT ?return57@@YAIXZ
_TEXT	SEGMENT
?return57@@YAIXZ PROC					; return57, COMDAT

; 15   : __forceinline unsigned int return57() { __asm mov eax, 57 };

  00000	b8 39 00 00 00	 mov	 eax, 57			; 00000039H
  00005	c3		 ret	 0
?return57@@YAIXZ ENDP					; return57
_TEXT	ENDS
PUBLIC	?GetOwnerName@ioDummyChar@@QAEABVioHashString@@XZ ; ioDummyChar::GetOwnerName
; Function compile flags: /Ogsp
; File d:\lost saga for developer\youtube\tutorial\source\src\lsclient\iodummychar.h
;	COMDAT ?GetOwnerName@ioDummyChar@@QAEABVioHashString@@XZ
_TEXT	SEGMENT
?GetOwnerName@ioDummyChar@@QAEABVioHashString@@XZ PROC	; ioDummyChar::GetOwnerName, COMDAT
; _this$ = ecx

; 651  : 	inline const ioHashString& GetOwnerName() { return m_OwnerName; }

  00000	8d 81 cc 01 00
	00		 lea	 eax, DWORD PTR [ecx+460]
  00006	c3		 ret	 0
?GetOwnerName@ioDummyChar@@QAEABVioHashString@@XZ ENDP	; ioDummyChar::GetOwnerName
; Function compile flags: /Ogsp
_TEXT	ENDS
;	COMDAT ?IsDummyCharMidSync@ioDummyChar@@UAE_NXZ
_TEXT	SEGMENT
?IsDummyCharMidSync@ioDummyChar@@UAE_NXZ PROC		; ioDummyChar::IsDummyCharMidSync, COMDAT
; _this$ = ecx

; 742  : 	virtual bool IsDummyCharMidSync(){ return false; }

  00000	32 c0		 xor	 al, al
  00002	c3		 ret	 0
?IsDummyCharMidSync@ioDummyChar@@UAE_NXZ ENDP		; ioDummyChar::IsDummyCharMidSync
_TEXT	ENDS
PUBLIC	?IsLive@ioAreaWeapon@@QBE_NXZ			; ioAreaWeapon::IsLive
; Function compile flags: /Ogsp
; File d:\lost saga for developer\youtube\tutorial\source\src\lsclient\ioareaweapon.h
;	COMDAT ?IsLive@ioAreaWeapon@@QBE_NXZ
_TEXT	SEGMENT
?IsLive@ioAreaWeapon@@QBE_NXZ PROC			; ioAreaWeapon::IsLive, COMDAT
; _this$ = ecx

; 418  : 	inline bool IsLive() const { return m_bLive; }

  00000	8a 81 94 07 00
	00		 mov	 al, BYTE PTR [ecx+1940]
  00006	c3		 ret	 0
?IsLive@ioAreaWeapon@@QBE_NXZ ENDP			; ioAreaWeapon::IsLive
_TEXT	ENDS
PUBLIC	?GetStartPos@ioAreaWeapon@@QBEABUD3DXVECTOR3@@XZ ; ioAreaWeapon::GetStartPos
; Function compile flags: /Ogsp
;	COMDAT ?GetStartPos@ioAreaWeapon@@QBEABUD3DXVECTOR3@@XZ
_TEXT	SEGMENT
?GetStartPos@ioAreaWeapon@@QBEABUD3DXVECTOR3@@XZ PROC	; ioAreaWeapon::GetStartPos, COMDAT
; _this$ = ecx

; 427  : 	inline const D3DXVECTOR3& GetStartPos() const { return m_vStartPos; }

  00000	8d 81 4c 01 00
	00		 lea	 eax, DWORD PTR [ecx+332]
  00006	c3		 ret	 0
?GetStartPos@ioAreaWeapon@@QBEABUD3DXVECTOR3@@XZ ENDP	; ioAreaWeapon::GetStartPos
_TEXT	ENDS
PUBLIC	?GetAreaWeaponIndex@ioAreaWeapon@@QBEKXZ	; ioAreaWeapon::GetAreaWeaponIndex
; Function compile flags: /Ogsp
;	COMDAT ?GetAreaWeaponIndex@ioAreaWeapon@@QBEKXZ
_TEXT	SEGMENT
?GetAreaWeaponIndex@ioAreaWeapon@@QBEKXZ PROC		; ioAreaWeapon::GetAreaWeaponIndex, COMDAT
; _this$ = ecx

; 431  : 	inline DWORD GetAreaWeaponIndex() const { return m_dwAreaWeaponIndex; }

  00000	8b 41 14	 mov	 eax, DWORD PTR [ecx+20]
  00003	c3		 ret	 0
?GetAreaWeaponIndex@ioAreaWeapon@@QBEKXZ ENDP		; ioAreaWeapon::GetAreaWeaponIndex
_TEXT	ENDS
PUBLIC	?size@?$vector@VioHashString@@V?$allocator@VioHashString@@@std@@@std@@QBEIXZ ; std::vector<ioHashString,std::allocator<ioHashString> >::size
; Function compile flags: /Ogsp
; File c:\program files (x86)\microsoft visual studio 10.0\vc\include\vector
;	COMDAT ?size@?$vector@VioHashString@@V?$allocator@VioHashString@@@std@@@std@@QBEIXZ
_TEXT	SEGMENT
?size@?$vector@VioHashString@@V?$allocator@VioHashString@@@std@@@std@@QBEIXZ PROC ; std::vector<ioHashString,std::allocator<ioHashString> >::size, COMDAT
; _this$ = ecx

; 879  : 		return (this->_Mylast - this->_Myfirst);

  00000	8b 41 04	 mov	 eax, DWORD PTR [ecx+4]
  00003	2b 01		 sub	 eax, DWORD PTR [ecx]
  00005	c1 f8 04	 sar	 eax, 4

; 880  : 		}

  00008	c3		 ret	 0
?size@?$vector@VioHashString@@V?$allocator@VioHashString@@@std@@@std@@QBEIXZ ENDP ; std::vector<ioHashString,std::allocator<ioHashString> >::size
_TEXT	ENDS
PUBLIC	?EncryptValueToPool@?$CEncrypt@M@@AAEXPBD@Z	; CEncrypt<float>::EncryptValueToPool
EXTRN	?EncryptByte@ccddaabb@@QAEXPBDPADH@Z:PROC	; ccddaabb::EncryptByte
; Function compile flags: /Ogsp
; File d:\lost saga for developer\youtube\tutorial\source\src\lsclient\encryptvalue.h
;	COMDAT ?EncryptValueToPool@?$CEncrypt@M@@AAEXPBD@Z
_TEXT	SEGMENT
_value$ = 8						; size = 4
?EncryptValueToPool@?$CEncrypt@M@@AAEXPBD@Z PROC	; CEncrypt<float>::EncryptValueToPool, COMDAT
; _this$ = ecx

; 67   : 	{

  00000	55		 push	 ebp
  00001	8b ec		 mov	 ebp, esp

; 68   : 		m_RC5.EncryptByte( value, m_MemPool, max(m_ValueSize, DEFAULT_ENCRYPT) );

  00003	0f b7 41 06	 movzx	 eax, WORD PTR [ecx+6]
  00007	83 f8 04	 cmp	 eax, 4
  0000a	77 03		 ja	 SHORT $LN4@EncryptVal
  0000c	6a 04		 push	 4
  0000e	58		 pop	 eax
$LN4@EncryptVal:
  0000f	50		 push	 eax
  00010	8d 41 1c	 lea	 eax, DWORD PTR [ecx+28]
  00013	50		 push	 eax
  00014	ff 75 08	 push	 DWORD PTR _value$[ebp]
  00017	83 c1 0c	 add	 ecx, 12			; 0000000cH
  0001a	e8 00 00 00 00	 call	 ?EncryptByte@ccddaabb@@QAEXPBDPADH@Z ; ccddaabb::EncryptByte

; 69   : 		
; 70   : 	}

  0001f	5d		 pop	 ebp
  00020	c2 04 00	 ret	 4
?EncryptValueToPool@?$CEncrypt@M@@AAEXPBD@Z ENDP	; CEncrypt<float>::EncryptValueToPool
_TEXT	ENDS
PUBLIC	?DecryptValueToPool@?$CEncrypt@M@@QAEXPAM@Z	; CEncrypt<float>::DecryptValueToPool
EXTRN	?DecryptByte@ccddaabb@@QBEXPBDPADH@Z:PROC	; ccddaabb::DecryptByte
; Function compile flags: /Ogsp
;	COMDAT ?DecryptValueToPool@?$CEncrypt@M@@QAEXPAM@Z
_TEXT	SEGMENT
_value$ = 8						; size = 4
?DecryptValueToPool@?$CEncrypt@M@@QAEXPAM@Z PROC	; CEncrypt<float>::DecryptValueToPool, COMDAT
; _this$ = ecx

; 1648 : 	{

  00000	55		 push	 ebp
  00001	8b ec		 mov	 ebp, esp
  00003	56		 push	 esi

; 1649 : 		m_RC5.DecryptByte( m_MemPool, m_TempMem, 4 );

  00004	8d 71 28	 lea	 esi, DWORD PTR [ecx+40]
  00007	6a 04		 push	 4
  00009	8d 41 1c	 lea	 eax, DWORD PTR [ecx+28]
  0000c	56		 push	 esi
  0000d	50		 push	 eax
  0000e	83 c1 0c	 add	 ecx, 12			; 0000000cH
  00011	e8 00 00 00 00	 call	 ?DecryptByte@ccddaabb@@QBEXPBDPADH@Z ; ccddaabb::DecryptByte

; 1650 : 		*value = *((float*)m_TempMem);

  00016	d9 06		 fld	 DWORD PTR [esi]
  00018	8b 45 08	 mov	 eax, DWORD PTR _value$[ebp]
  0001b	d9 18		 fstp	 DWORD PTR [eax]
  0001d	5e		 pop	 esi

; 1651 : 	}

  0001e	5d		 pop	 ebp
  0001f	c2 04 00	 ret	 4
?DecryptValueToPool@?$CEncrypt@M@@QAEXPAM@Z ENDP	; CEncrypt<float>::DecryptValueToPool
_TEXT	ENDS
PUBLIC	?DecryptValueToPool@?$CEncrypt@K@@QAEXPAK@Z	; CEncrypt<unsigned long>::DecryptValueToPool
; Function compile flags: /Ogsp
;	COMDAT ?DecryptValueToPool@?$CEncrypt@K@@QAEXPAK@Z
_TEXT	SEGMENT
_value$ = 8						; size = 4
?DecryptValueToPool@?$CEncrypt@K@@QAEXPAK@Z PROC	; CEncrypt<unsigned long>::DecryptValueToPool, COMDAT
; _this$ = ecx

; 1256 : 	{

  00000	55		 push	 ebp
  00001	8b ec		 mov	 ebp, esp
  00003	56		 push	 esi

; 1257 : 		m_RC5.DecryptByte( m_MemPool, m_TempMem, 4 );

  00004	8d 71 28	 lea	 esi, DWORD PTR [ecx+40]
  00007	6a 04		 push	 4
  00009	8d 41 1c	 lea	 eax, DWORD PTR [ecx+28]
  0000c	56		 push	 esi
  0000d	50		 push	 eax
  0000e	83 c1 0c	 add	 ecx, 12			; 0000000cH
  00011	e8 00 00 00 00	 call	 ?DecryptByte@ccddaabb@@QBEXPBDPADH@Z ; ccddaabb::DecryptByte

; 1258 : 		*value = *((DWORD*)m_TempMem);

  00016	8b 06		 mov	 eax, DWORD PTR [esi]
  00018	8b 4d 08	 mov	 ecx, DWORD PTR _value$[ebp]
  0001b	89 01		 mov	 DWORD PTR [ecx], eax
  0001d	5e		 pop	 esi

; 1259 : 	}

  0001e	5d		 pop	 ebp
  0001f	c2 04 00	 ret	 4
?DecryptValueToPool@?$CEncrypt@K@@QAEXPAK@Z ENDP	; CEncrypt<unsigned long>::DecryptValueToPool
_TEXT	ENDS
PUBLIC	?DecryptValueToPool@?$CEncrypt@_N@@QAEXPA_N@Z	; CEncrypt<bool>::DecryptValueToPool
; Function compile flags: /Ogsp
;	COMDAT ?DecryptValueToPool@?$CEncrypt@_N@@QAEXPA_N@Z
_TEXT	SEGMENT
_value$ = 8						; size = 4
?DecryptValueToPool@?$CEncrypt@_N@@QAEXPA_N@Z PROC	; CEncrypt<bool>::DecryptValueToPool, COMDAT
; _this$ = ecx

; 219  : 	{

  00000	55		 push	 ebp
  00001	8b ec		 mov	 ebp, esp
  00003	56		 push	 esi

; 220  : 		m_RC5.DecryptByte( m_MemPool, m_TempMem, 4 );

  00004	8d 71 28	 lea	 esi, DWORD PTR [ecx+40]
  00007	6a 04		 push	 4
  00009	8d 41 1c	 lea	 eax, DWORD PTR [ecx+28]
  0000c	56		 push	 esi
  0000d	50		 push	 eax
  0000e	83 c1 0c	 add	 ecx, 12			; 0000000cH
  00011	e8 00 00 00 00	 call	 ?DecryptByte@ccddaabb@@QBEXPBDPADH@Z ; ccddaabb::DecryptByte

; 221  : 		*value = *((bool*)m_TempMem);

  00016	8a 06		 mov	 al, BYTE PTR [esi]
  00018	8b 4d 08	 mov	 ecx, DWORD PTR _value$[ebp]
  0001b	88 01		 mov	 BYTE PTR [ecx], al
  0001d	5e		 pop	 esi

; 222  : 	}

  0001e	5d		 pop	 ebp
  0001f	c2 04 00	 ret	 4
?DecryptValueToPool@?$CEncrypt@_N@@QAEXPA_N@Z ENDP	; CEncrypt<bool>::DecryptValueToPool
_TEXT	ENDS
PUBLIC	?EncryptValueToPool@?$CEncrypt@W4TeamType@@@@AAEXPBD@Z ; CEncrypt<enum TeamType>::EncryptValueToPool
; Function compile flags: /Ogsp
;	COMDAT ?EncryptValueToPool@?$CEncrypt@W4TeamType@@@@AAEXPBD@Z
_TEXT	SEGMENT
_value$ = 8						; size = 4
?EncryptValueToPool@?$CEncrypt@W4TeamType@@@@AAEXPBD@Z PROC ; CEncrypt<enum TeamType>::EncryptValueToPool, COMDAT
; _this$ = ecx

; 67   : 	{

  00000	55		 push	 ebp
  00001	8b ec		 mov	 ebp, esp

; 68   : 		m_RC5.EncryptByte( value, m_MemPool, max(m_ValueSize, DEFAULT_ENCRYPT) );

  00003	0f b7 41 06	 movzx	 eax, WORD PTR [ecx+6]
  00007	83 f8 04	 cmp	 eax, 4
  0000a	77 03		 ja	 SHORT $LN4@EncryptVal@2
  0000c	6a 04		 push	 4
  0000e	58		 pop	 eax
$LN4@EncryptVal@2:
  0000f	50		 push	 eax
  00010	8d 41 1c	 lea	 eax, DWORD PTR [ecx+28]
  00013	50		 push	 eax
  00014	ff 75 08	 push	 DWORD PTR _value$[ebp]
  00017	83 c1 0c	 add	 ecx, 12			; 0000000cH
  0001a	e8 00 00 00 00	 call	 ?EncryptByte@ccddaabb@@QAEXPBDPADH@Z ; ccddaabb::EncryptByte

; 69   : 		
; 70   : 	}

  0001f	5d		 pop	 ebp
  00020	c2 04 00	 ret	 4
?EncryptValueToPool@?$CEncrypt@W4TeamType@@@@AAEXPBD@Z ENDP ; CEncrypt<enum TeamType>::EncryptValueToPool
_TEXT	ENDS
PUBLIC	?DecryptValueToPool@?$CEncrypt@W4TeamType@@@@QAEXPAW4TeamType@@@Z ; CEncrypt<enum TeamType>::DecryptValueToPool
; Function compile flags: /Ogsp
;	COMDAT ?DecryptValueToPool@?$CEncrypt@W4TeamType@@@@QAEXPAW4TeamType@@@Z
_TEXT	SEGMENT
_value$ = 8						; size = 4
?DecryptValueToPool@?$CEncrypt@W4TeamType@@@@QAEXPAW4TeamType@@@Z PROC ; CEncrypt<enum TeamType>::DecryptValueToPool, COMDAT
; _this$ = ecx

; 2959 : 	{

  00000	55		 push	 ebp
  00001	8b ec		 mov	 ebp, esp
  00003	56		 push	 esi

; 2960 : 		m_RC5.DecryptByte( m_MemPool, m_TempMem, sizeof(TeamType) );

  00004	8d 71 28	 lea	 esi, DWORD PTR [ecx+40]
  00007	6a 04		 push	 4
  00009	8d 41 1c	 lea	 eax, DWORD PTR [ecx+28]
  0000c	56		 push	 esi
  0000d	50		 push	 eax
  0000e	83 c1 0c	 add	 ecx, 12			; 0000000cH
  00011	e8 00 00 00 00	 call	 ?DecryptByte@ccddaabb@@QBEXPBDPADH@Z ; ccddaabb::DecryptByte

; 2961 : 		*value = *((TeamType*)m_TempMem);

  00016	8b 06		 mov	 eax, DWORD PTR [esi]
  00018	8b 4d 08	 mov	 ecx, DWORD PTR _value$[ebp]
  0001b	89 01		 mov	 DWORD PTR [ecx], eax
  0001d	5e		 pop	 esi

; 2962 : 	}

  0001e	5d		 pop	 ebp
  0001f	c2 04 00	 ret	 4
?DecryptValueToPool@?$CEncrypt@W4TeamType@@@@QAEXPAW4TeamType@@@Z ENDP ; CEncrypt<enum TeamType>::DecryptValueToPool
_TEXT	ENDS
PUBLIC	??0?$_Vector_const_iterator@V?$_Vector_val@VioHashString@@V?$allocator@VioHashString@@@std@@@std@@@std@@QAE@PAVioHashString@@PBU_Container_base0@1@@Z ; std::_Vector_const_iterator<std::_Vector_val<ioHashString,std::allocator<ioHashString> > >::_Vector_const_iterator<std::_Vector_val<ioHashString,std::allocator<ioHashString> > >
; Function compile flags: /Ogsp
; File c:\program files (x86)\microsoft visual studio 10.0\vc\include\vector
;	COMDAT ??0?$_Vector_const_iterator@V?$_Vector_val@VioHashString@@V?$allocator@VioHashString@@@std@@@std@@@std@@QAE@PAVioHashString@@PBU_Container_base0@1@@Z
_TEXT	SEGMENT
__Parg$ = 8						; size = 4
__Pvector$ = 12						; size = 4
??0?$_Vector_const_iterator@V?$_Vector_val@VioHashString@@V?$allocator@VioHashString@@@std@@@std@@@std@@QAE@PAVioHashString@@PBU_Container_base0@1@@Z PROC ; std::_Vector_const_iterator<std::_Vector_val<ioHashString,std::allocator<ioHashString> > >::_Vector_const_iterator<std::_Vector_val<ioHashString,std::allocator<ioHashString> > >, COMDAT
; _this$ = ecx

; 45   : 		{	// construct with pointer _Parg

  00000	55		 push	 ebp
  00001	8b ec		 mov	 ebp, esp
  00003	8b c1		 mov	 eax, ecx
  00005	8b 4d 08	 mov	 ecx, DWORD PTR __Parg$[ebp]
  00008	89 08		 mov	 DWORD PTR [eax], ecx

; 46   : 		this->_Adopt(_Pvector);
; 47   : 		}

  0000a	5d		 pop	 ebp
  0000b	c2 08 00	 ret	 8
??0?$_Vector_const_iterator@V?$_Vector_val@VioHashString@@V?$allocator@VioHashString@@@std@@@std@@@std@@QAE@PAVioHashString@@PBU_Container_base0@1@@Z ENDP ; std::_Vector_const_iterator<std::_Vector_val<ioHashString,std::allocator<ioHashString> > >::_Vector_const_iterator<std::_Vector_val<ioHashString,std::allocator<ioHashString> > >
_TEXT	ENDS
PUBLIC	??0?$_Vector_iterator@V?$_Vector_val@VioHashString@@V?$allocator@VioHashString@@@std@@@std@@@std@@QAE@PAVioHashString@@PBU_Container_base0@1@@Z ; std::_Vector_iterator<std::_Vector_val<ioHashString,std::allocator<ioHashString> > >::_Vector_iterator<std::_Vector_val<ioHashString,std::allocator<ioHashString> > >
; Function compile flags: /Ogsp
;	COMDAT ??0?$_Vector_iterator@V?$_Vector_val@VioHashString@@V?$allocator@VioHashString@@@std@@@std@@@std@@QAE@PAVioHashString@@PBU_Container_base0@1@@Z
_TEXT	SEGMENT
__Parg$ = 8						; size = 4
__Pvector$ = 12						; size = 4
??0?$_Vector_iterator@V?$_Vector_val@VioHashString@@V?$allocator@VioHashString@@@std@@@std@@@std@@QAE@PAVioHashString@@PBU_Container_base0@1@@Z PROC ; std::_Vector_iterator<std::_Vector_val<ioHashString,std::allocator<ioHashString> > >::_Vector_iterator<std::_Vector_val<ioHashString,std::allocator<ioHashString> > >, COMDAT
; _this$ = ecx

; 304  : 		{	// construct with pointer _Parg

  00000	55		 push	 ebp
  00001	8b ec		 mov	 ebp, esp
  00003	8b c1		 mov	 eax, ecx
  00005	8b 4d 08	 mov	 ecx, DWORD PTR __Parg$[ebp]
  00008	89 08		 mov	 DWORD PTR [eax], ecx

; 305  : 		}

  0000a	5d		 pop	 ebp
  0000b	c2 08 00	 ret	 8
??0?$_Vector_iterator@V?$_Vector_val@VioHashString@@V?$allocator@VioHashString@@@std@@@std@@@std@@QAE@PAVioHashString@@PBU_Container_base0@1@@Z ENDP ; std::_Vector_iterator<std::_Vector_val<ioHashString,std::allocator<ioHashString> > >::_Vector_iterator<std::_Vector_val<ioHashString,std::allocator<ioHashString> > >
_TEXT	ENDS
PUBLIC	?_Compat@?$_Vector_const_iterator@V?$_Vector_val@VioHashString@@V?$allocator@VioHashString@@@std@@@std@@@std@@QBEXABV12@@Z ; std::_Vector_const_iterator<std::_Vector_val<ioHashString,std::allocator<ioHashString> > >::_Compat
; Function compile flags: /Ogsp
;	COMDAT ?_Compat@?$_Vector_const_iterator@V?$_Vector_val@VioHashString@@V?$allocator@VioHashString@@@std@@@std@@@std@@QBEXABV12@@Z
_TEXT	SEGMENT
___formal$ = 8						; size = 4
?_Compat@?$_Vector_const_iterator@V?$_Vector_val@VioHashString@@V?$allocator@VioHashString@@@std@@@std@@@std@@QBEXABV12@@Z PROC ; std::_Vector_const_iterator<std::_Vector_val<ioHashString,std::allocator<ioHashString> > >::_Compat, COMDAT
; _this$ = ecx

; 253  : 		}

  00000	c2 04 00	 ret	 4
?_Compat@?$_Vector_const_iterator@V?$_Vector_val@VioHashString@@V?$allocator@VioHashString@@@std@@@std@@@std@@QBEXABV12@@Z ENDP ; std::_Vector_const_iterator<std::_Vector_val<ioHashString,std::allocator<ioHashString> > >::_Compat
_TEXT	ENDS
PUBLIC	??D?$_Vector_const_iterator@V?$_Vector_val@VioHashString@@V?$allocator@VioHashString@@@std@@@std@@@std@@QBEABVioHashString@@XZ ; std::_Vector_const_iterator<std::_Vector_val<ioHashString,std::allocator<ioHashString> > >::operator*
; Function compile flags: /Ogsp
;	COMDAT ??D?$_Vector_const_iterator@V?$_Vector_val@VioHashString@@V?$allocator@VioHashString@@@std@@@std@@@std@@QBEABVioHashString@@XZ
_TEXT	SEGMENT
??D?$_Vector_const_iterator@V?$_Vector_val@VioHashString@@V?$allocator@VioHashString@@@std@@@std@@@std@@QBEABVioHashString@@XZ PROC ; std::_Vector_const_iterator<std::_Vector_val<ioHashString,std::allocator<ioHashString> > >::operator*, COMDAT
; _this$ = ecx

; 64   :  #if _ITERATOR_DEBUG_LEVEL == 2
; 65   : 		if (this->_Getcont() == 0
; 66   : 			|| this->_Ptr == 0
; 67   : 			|| this->_Ptr < ((_Myvec *)this->_Getcont())->_Myfirst
; 68   : 			|| ((_Myvec *)this->_Getcont())->_Mylast <= this->_Ptr)
; 69   : 			{	// report error
; 70   : 			_DEBUG_ERROR("vector iterator not dereferencable");
; 71   : 			_SCL_SECURE_OUT_OF_RANGE;
; 72   : 			}
; 73   : 
; 74   :  #elif _ITERATOR_DEBUG_LEVEL == 1
; 75   : 		_SCL_SECURE_VALIDATE(this->_Getcont() != 0);
; 76   : 		_SCL_SECURE_VALIDATE_RANGE(
; 77   : 			this->_Ptr != 0
; 78   : 			&& ((_Myvec *)this->_Getcont())->_Myfirst <= this->_Ptr
; 79   : 			&& this->_Ptr < ((_Myvec *)this->_Getcont())->_Mylast);
; 80   :  #endif /* _ITERATOR_DEBUG_LEVEL */
; 81   : 
; 82   : 		__analysis_assume(this->_Ptr != 0);
; 83   : 
; 84   : 		return (*this->_Ptr);

  00000	8b 01		 mov	 eax, DWORD PTR [ecx]

; 85   : 		}

  00002	c3		 ret	 0
??D?$_Vector_const_iterator@V?$_Vector_val@VioHashString@@V?$allocator@VioHashString@@@std@@@std@@@std@@QBEABVioHashString@@XZ ENDP ; std::_Vector_const_iterator<std::_Vector_val<ioHashString,std::allocator<ioHashString> > >::operator*
_TEXT	ENDS
PUBLIC	??E?$_Vector_const_iterator@V?$_Vector_val@VioHashString@@V?$allocator@VioHashString@@@std@@@std@@@std@@QAEAAV01@XZ ; std::_Vector_const_iterator<std::_Vector_val<ioHashString,std::allocator<ioHashString> > >::operator++
; Function compile flags: /Ogsp
;	COMDAT ??E?$_Vector_const_iterator@V?$_Vector_val@VioHashString@@V?$allocator@VioHashString@@@std@@@std@@@std@@QAEAAV01@XZ
_TEXT	SEGMENT
??E?$_Vector_const_iterator@V?$_Vector_val@VioHashString@@V?$allocator@VioHashString@@@std@@@std@@@std@@QAEAAV01@XZ PROC ; std::_Vector_const_iterator<std::_Vector_val<ioHashString,std::allocator<ioHashString> > >::operator++, COMDAT
; _this$ = ecx

; 93   : 		{	// preincrement

  00000	8b c1		 mov	 eax, ecx

; 94   :  #if _ITERATOR_DEBUG_LEVEL == 2
; 95   : 		if (this->_Getcont() == 0
; 96   : 			|| this->_Ptr == 0
; 97   : 			|| ((_Myvec *)this->_Getcont())->_Mylast <= this->_Ptr)
; 98   : 			{	// report error
; 99   : 			_DEBUG_ERROR("vector iterator not incrementable");
; 100  : 			_SCL_SECURE_OUT_OF_RANGE;
; 101  : 			}
; 102  : 
; 103  :  #elif _ITERATOR_DEBUG_LEVEL == 1
; 104  : 		_SCL_SECURE_VALIDATE(this->_Getcont() != 0);
; 105  : 		_SCL_SECURE_VALIDATE_RANGE(
; 106  : 			this->_Ptr != 0
; 107  : 			&& this->_Ptr < ((_Myvec *)this->_Getcont())->_Mylast);
; 108  :  #endif /* _ITERATOR_DEBUG_LEVEL */
; 109  : 
; 110  : 		++this->_Ptr;

  00002	83 00 10	 add	 DWORD PTR [eax], 16	; 00000010H

; 111  : 		return (*this);
; 112  : 		}

  00005	c3		 ret	 0
??E?$_Vector_const_iterator@V?$_Vector_val@VioHashString@@V?$allocator@VioHashString@@@std@@@std@@@std@@QAEAAV01@XZ ENDP ; std::_Vector_const_iterator<std::_Vector_val<ioHashString,std::allocator<ioHashString> > >::operator++
_TEXT	ENDS
PUBLIC	??0ioTargetTrace11Dummy@@QAE@PAVioEntityGroup@@PAVioPlayMode@@@Z ; ioTargetTrace11Dummy::ioTargetTrace11Dummy
EXTRN	__imp_?VEC3_ZERO@ioMath@@2UD3DXVECTOR3@@A:BYTE
EXTRN	__imp_??0ioHashString@@QAE@XZ:PROC
EXTRN	??0ioDummyChar@@QAE@PAVioEntityGroup@@PAVioPlayMode@@@Z:PROC ; ioDummyChar::ioDummyChar
;	COMDAT xdata$x
; File c:\program files (x86)\microsoft directx sdk (june 2010)\include\d3dx9math.h
xdata$x	SEGMENT
__unwindtable$??0ioTargetTrace11Dummy@@QAE@PAVioEntityGroup@@PAVioPlayMode@@@Z DD 0ffffffffH
	DD	FLAT:__unwindfunclet$??0ioTargetTrace11Dummy@@QAE@PAVioEntityGroup@@PAVioPlayMode@@@Z$0
__ehfuncinfo$??0ioTargetTrace11Dummy@@QAE@PAVioEntityGroup@@PAVioPlayMode@@@Z DD 019930522H
	DD	01H
	DD	FLAT:__unwindtable$??0ioTargetTrace11Dummy@@QAE@PAVioEntityGroup@@PAVioPlayMode@@@Z
	DD	2 DUP(00H)
	DD	2 DUP(00H)
	DD	00H
	DD	01H
; Function compile flags: /Ogsp
; File d:\lost saga for developer\youtube\tutorial\source\src\lsclient\iotargettrace11dummy.cpp
xdata$x	ENDS
;	COMDAT ??0ioTargetTrace11Dummy@@QAE@PAVioEntityGroup@@PAVioPlayMode@@@Z
_TEXT	SEGMENT
_this$ = -16						; size = 4
__$EHRec$ = -12						; size = 12
_pGrp$ = 8						; size = 4
_pMode$ = 12						; size = 4
??0ioTargetTrace11Dummy@@QAE@PAVioEntityGroup@@PAVioPlayMode@@@Z PROC ; ioTargetTrace11Dummy::ioTargetTrace11Dummy, COMDAT
; _this$ = ecx

; 10   : {

  00000	6a 04		 push	 4
  00002	b8 00 00 00 00	 mov	 eax, __ehhandler$??0ioTargetTrace11Dummy@@QAE@PAVioEntityGroup@@PAVioPlayMode@@@Z
  00007	e8 00 00 00 00	 call	 __EH_prolog3
  0000c	8b d9		 mov	 ebx, ecx
  0000e	89 5d f0	 mov	 DWORD PTR _this$[ebp], ebx
  00011	ff 75 0c	 push	 DWORD PTR _pMode$[ebp]
  00014	ff 75 08	 push	 DWORD PTR _pGrp$[ebp]
  00017	e8 00 00 00 00	 call	 ??0ioDummyChar@@QAE@PAVioEntityGroup@@PAVioPlayMode@@@Z ; ioDummyChar::ioDummyChar
  0001c	83 65 fc 00	 and	 DWORD PTR __$EHRec$[ebp+8], 0
  00020	8d 8b 80 14 00
	00		 lea	 ecx, DWORD PTR [ebx+5248]
  00026	c7 03 00 00 00
	00		 mov	 DWORD PTR [ebx], OFFSET ??_7ioTargetTrace11Dummy@@6BioPlayEntity@@@
  0002c	c7 83 c8 01 00
	00 00 00 00 00	 mov	 DWORD PTR [ebx+456], OFFSET ??_7ioTargetTrace11Dummy@@6BioWorldEventReceiver@@@
  00036	ff 15 00 00 00
	00		 call	 DWORD PTR __imp_??0ioHashString@@QAE@XZ

; 11   : 	m_iAreaWeaponIndex = -1;

  0003c	83 8b 90 14 00
	00 ff		 or	 DWORD PTR [ebx+5264], -1

; 12   : 	m_vAreaWeaponPos = ioMath::VEC3_ZERO;

  00043	8b 35 00 00 00
	00		 mov	 esi, DWORD PTR __imp_?VEC3_ZERO@ioMath@@2UD3DXVECTOR3@@A
  00049	8d bb 94 14 00
	00		 lea	 edi, DWORD PTR [ebx+5268]
  0004f	a5		 movsd
  00050	a5		 movsd
  00051	a5		 movsd

; 13   : }

  00052	8b c3		 mov	 eax, ebx
  00054	e8 00 00 00 00	 call	 __EH_epilog3
  00059	c2 08 00	 ret	 8
_TEXT	ENDS
;	COMDAT text$x
text$x	SEGMENT
__unwindfunclet$??0ioTargetTrace11Dummy@@QAE@PAVioEntityGroup@@PAVioPlayMode@@@Z$0:
  00000	8b 4d f0	 mov	 ecx, DWORD PTR _this$[ebp]
  00003	e9 00 00 00 00	 jmp	 ??1ioDummyChar@@UAE@XZ	; ioDummyChar::~ioDummyChar
__ehhandler$??0ioTargetTrace11Dummy@@QAE@PAVioEntityGroup@@PAVioPlayMode@@@Z:
  00008	8b 54 24 08	 mov	 edx, DWORD PTR [esp+8]
  0000c	8d 42 0c	 lea	 eax, DWORD PTR [edx+12]
  0000f	8b 4a ec	 mov	 ecx, DWORD PTR [edx-20]
  00012	33 c8		 xor	 ecx, eax
  00014	e8 00 00 00 00	 call	 @__security_check_cookie@4
  00019	b8 00 00 00 00	 mov	 eax, OFFSET __ehfuncinfo$??0ioTargetTrace11Dummy@@QAE@PAVioEntityGroup@@PAVioPlayMode@@@Z
  0001e	e9 00 00 00 00	 jmp	 ___CxxFrameHandler3
text$x	ENDS
??0ioTargetTrace11Dummy@@QAE@PAVioEntityGroup@@PAVioPlayMode@@@Z ENDP ; ioTargetTrace11Dummy::ioTargetTrace11Dummy
; Function compile flags: /Ogsp
;	COMDAT ??_GioTargetTrace11Dummy@@UAEPAXI@Z
_TEXT	SEGMENT
___flags$ = 8						; size = 4
??_GioTargetTrace11Dummy@@UAEPAXI@Z PROC		; ioTargetTrace11Dummy::`scalar deleting destructor', COMDAT
; _this$ = ecx
  00000	55		 push	 ebp
  00001	8b ec		 mov	 ebp, esp
  00003	56		 push	 esi
  00004	8b f1		 mov	 esi, ecx
  00006	e8 00 00 00 00	 call	 ??1ioTargetTrace11Dummy@@UAE@XZ ; ioTargetTrace11Dummy::~ioTargetTrace11Dummy
  0000b	f6 45 08 01	 test	 BYTE PTR ___flags$[ebp], 1
  0000f	74 07		 je	 SHORT $LN1@scalar
  00011	56		 push	 esi
  00012	e8 00 00 00 00	 call	 ??3@YAXPAX@Z		; operator delete
  00017	59		 pop	 ecx
$LN1@scalar:
  00018	8b c6		 mov	 eax, esi
  0001a	5e		 pop	 esi
  0001b	5d		 pop	 ebp
  0001c	c2 04 00	 ret	 4
??_GioTargetTrace11Dummy@@UAEPAXI@Z ENDP		; ioTargetTrace11Dummy::`scalar deleting destructor'
_TEXT	ENDS
PUBLIC	??_C@_00CNPNBAHC@?$AA@				; `string'
PUBLIC	?OnProcessStartState@ioTargetTrace11Dummy@@IAEXXZ ; ioTargetTrace11Dummy::OnProcessStartState
EXTRN	?CreateAreaWeapon@ioAreaWeaponManager@@QAEPAVioAreaWeapon@@ABVioHashString@@000ABUD3DXVECTOR3@@ABUD3DXQUATERNION@@H@Z:PROC ; ioAreaWeaponManager::CreateAreaWeapon
EXTRN	?GetSingleton@ioAreaWeaponManager@@SAAAV1@XZ:PROC ; ioAreaWeaponManager::GetSingleton
EXTRN	__imp_??0ioHashString@@QAE@PBD@Z:PROC
EXTRN	__imp_?IsEmpty@ioHashString@@QBE_NXZ:PROC
EXTRN	?GetOwner@ioDummyChar@@QBEPAVioBaseChar@@XZ:PROC ; ioDummyChar::GetOwner
EXTRN	__imp_?GetLoopSec@ioFrameTimer@@QBEKXZ:PROC
EXTRN	__imp_?GetSingleton@ioFrameTimer@@SAAAV1@XZ:PROC
;	COMDAT ??_C@_00CNPNBAHC@?$AA@
; File d:\lost saga for developer\youtube\tutorial\source\src\lsclient\ioareaweapon.h
CONST	SEGMENT
??_C@_00CNPNBAHC@?$AA@ DB 00H				; `string'
CONST	ENDS
;	COMDAT xdata$x
xdata$x	SEGMENT
__unwindtable$?OnProcessStartState@ioTargetTrace11Dummy@@IAEXXZ DD 0ffffffffH
	DD	FLAT:__unwindfunclet$?OnProcessStartState@ioTargetTrace11Dummy@@IAEXXZ$0
	DD	00H
	DD	FLAT:__unwindfunclet$?OnProcessStartState@ioTargetTrace11Dummy@@IAEXXZ$1
__ehfuncinfo$?OnProcessStartState@ioTargetTrace11Dummy@@IAEXXZ DD 019930522H
	DD	02H
	DD	FLAT:__unwindtable$?OnProcessStartState@ioTargetTrace11Dummy@@IAEXXZ
	DD	2 DUP(00H)
	DD	2 DUP(00H)
	DD	00H
	DD	01H
; Function compile flags: /Ogsp
; File d:\lost saga for developer\youtube\tutorial\source\src\lsclient\iotargettrace11dummy.cpp
xdata$x	ENDS
;	COMDAT ?OnProcessStartState@ioTargetTrace11Dummy@@IAEXXZ
_TEXT	SEGMENT
$T532493 = -48						; size = 16
$T532494 = -32						; size = 16
_pOwner$530819 = -16					; size = 4
__$EHRec$ = -12						; size = 12
?OnProcessStartState@ioTargetTrace11Dummy@@IAEXXZ PROC	; ioTargetTrace11Dummy::OnProcessStartState, COMDAT
; _this$ = ecx

; 82   : {

  00000	6a 24		 push	 36			; 00000024H
  00002	b8 00 00 00 00	 mov	 eax, __ehhandler$?OnProcessStartState@ioTargetTrace11Dummy@@IAEXXZ
  00007	e8 00 00 00 00	 call	 __EH_prolog3
  0000c	8b f9		 mov	 edi, ecx

; 83   : 	DWORD dwCurTime = FRAMEGETTIME();

  0000e	ff 15 00 00 00
	00		 call	 DWORD PTR __imp_?GetSingleton@ioFrameTimer@@SAAAV1@XZ
  00014	8b c8		 mov	 ecx, eax
  00016	ff 15 00 00 00
	00		 call	 DWORD PTR __imp_?GetLoopSec@ioFrameTimer@@QBEKXZ

; 84   : 	if( m_dwStartAniEndTime == 0 || m_dwStartAniEndTime < dwCurTime )

  0001c	8b 8f e4 06 00
	00		 mov	 ecx, DWORD PTR [edi+1764]
  00022	85 c9		 test	 ecx, ecx
  00024	74 08		 je	 SHORT $LN4@OnProcessS
  00026	3b c8		 cmp	 ecx, eax
  00028	0f 83 bd 00 00
	00		 jae	 $LN1@OnProcessS
$LN4@OnProcessS:

; 85   : 	{
; 86   : 		SetDelayState( false );

  0002e	8b 07		 mov	 eax, DWORD PTR [edi]
  00030	6a 00		 push	 0
  00032	8b cf		 mov	 ecx, edi
  00034	ff 90 14 01 00
	00		 call	 DWORD PTR [eax+276]

; 87   : 
; 88   : 		ioBaseChar *pOwner = GetOwner();

  0003a	8b cf		 mov	 ecx, edi
  0003c	e8 00 00 00 00	 call	 ?GetOwner@ioDummyChar@@QBEPAVioBaseChar@@XZ ; ioDummyChar::GetOwner
  00041	89 45 f0	 mov	 DWORD PTR _pOwner$530819[ebp], eax

; 89   : 		if ( !pOwner )

  00044	85 c0		 test	 eax, eax
  00046	0f 84 9f 00 00
	00		 je	 $LN1@OnProcessS

; 90   : 			return;
; 91   : 
; 92   : 		if ( !m_AreaWeaponName.IsEmpty() )

  0004c	8d 8f 80 14 00
	00		 lea	 ecx, DWORD PTR [edi+5248]
  00052	ff 15 00 00 00
	00		 call	 DWORD PTR __imp_?IsEmpty@ioHashString@@QBE_NXZ
  00058	84 c0		 test	 al, al
  0005a	0f 85 8b 00 00
	00		 jne	 $LN1@OnProcessS

; 93   : 		{
; 94   : 			ioAreaWeapon *pArea = g_AreaWeaponMgr.CreateAreaWeapon( pOwner->GetCharName(),
; 95   : 				"",
; 96   : 				"",
; 97   : 				m_AreaWeaponName,
; 98   : 				GetWorldPosition(),
; 99   : 				GetWorldOrientation(),
; 100  : 				ioAreaWeapon::CT_NORMAL );

  00060	8b 35 00 00 00
	00		 mov	 esi, DWORD PTR __imp_??0ioHashString@@QAE@PBD@Z
  00066	bb 00 00 00 00	 mov	 ebx, OFFSET ??_C@_00CNPNBAHC@?$AA@
  0006b	53		 push	 ebx
  0006c	8d 4d d0	 lea	 ecx, DWORD PTR $T532493[ebp]
  0006f	ff d6		 call	 esi
  00071	83 65 fc 00	 and	 DWORD PTR __$EHRec$[ebp+8], 0
  00075	53		 push	 ebx
  00076	8d 4d e0	 lea	 ecx, DWORD PTR $T532494[ebp]
  00079	ff d6		 call	 esi
  0007b	8b 07		 mov	 eax, DWORD PTR [edi]
  0007d	6a 00		 push	 0
  0007f	8b cf		 mov	 ecx, edi
  00081	c6 45 fc 01	 mov	 BYTE PTR __$EHRec$[ebp+8], 1
  00085	ff 50 74	 call	 DWORD PTR [eax+116]
  00088	50		 push	 eax
  00089	8b 07		 mov	 eax, DWORD PTR [edi]
  0008b	8b cf		 mov	 ecx, edi
  0008d	ff 50 70	 call	 DWORD PTR [eax+112]
  00090	50		 push	 eax
  00091	8d 87 80 14 00
	00		 lea	 eax, DWORD PTR [edi+5248]
  00097	50		 push	 eax
  00098	8d 45 d0	 lea	 eax, DWORD PTR $T532493[ebp]
  0009b	50		 push	 eax
  0009c	8d 45 e0	 lea	 eax, DWORD PTR $T532494[ebp]
  0009f	50		 push	 eax
  000a0	8b 45 f0	 mov	 eax, DWORD PTR _pOwner$530819[ebp]
  000a3	05 d4 02 00 00	 add	 eax, 724		; 000002d4H
  000a8	50		 push	 eax
  000a9	e8 00 00 00 00	 call	 ?GetSingleton@ioAreaWeaponManager@@SAAAV1@XZ ; ioAreaWeaponManager::GetSingleton
  000ae	8b c8		 mov	 ecx, eax
  000b0	e8 00 00 00 00	 call	 ?CreateAreaWeapon@ioAreaWeaponManager@@QAEPAVioAreaWeapon@@ABVioHashString@@000ABUD3DXVECTOR3@@ABUD3DXQUATERNION@@H@Z ; ioAreaWeaponManager::CreateAreaWeapon
  000b5	8b 35 00 00 00
	00		 mov	 esi, DWORD PTR __imp_??1ioHashString@@QAE@XZ
  000bb	8d 4d e0	 lea	 ecx, DWORD PTR $T532494[ebp]
  000be	8b d8		 mov	 ebx, eax
  000c0	c6 45 fc 00	 mov	 BYTE PTR __$EHRec$[ebp+8], 0
  000c4	ff d6		 call	 esi
  000c6	83 4d fc ff	 or	 DWORD PTR __$EHRec$[ebp+8], -1
  000ca	8d 4d d0	 lea	 ecx, DWORD PTR $T532493[ebp]
  000cd	ff d6		 call	 esi

; 101  : 
; 102  : 			if ( pArea )

  000cf	85 db		 test	 ebx, ebx
  000d1	74 18		 je	 SHORT $LN1@OnProcessS

; 103  : 			{
; 104  : 				m_iAreaWeaponIndex = pArea->GetAreaWeaponIndex();

  000d3	8b 43 14	 mov	 eax, DWORD PTR [ebx+20]
  000d6	89 87 90 14 00
	00		 mov	 DWORD PTR [edi+5264], eax

; 105  : 				m_vAreaWeaponPos = pArea->GetStartPos();

  000dc	81 c7 94 14 00
	00		 add	 edi, 5268		; 00001494H
  000e2	8d b3 4c 01 00
	00		 lea	 esi, DWORD PTR [ebx+332]
  000e8	a5		 movsd
  000e9	a5		 movsd
  000ea	a5		 movsd
$LN1@OnProcessS:

; 106  : 			}
; 107  : 		}
; 108  : 	}
; 109  : }

  000eb	e8 00 00 00 00	 call	 __EH_epilog3
  000f0	c3		 ret	 0
_TEXT	ENDS
;	COMDAT text$x
text$x	SEGMENT
__unwindfunclet$?OnProcessStartState@ioTargetTrace11Dummy@@IAEXXZ$0:
  00000	8d 4d d0	 lea	 ecx, DWORD PTR $T532493[ebp]
  00003	ff 25 00 00 00
	00		 jmp	 DWORD PTR __imp_??1ioHashString@@QAE@XZ
__unwindfunclet$?OnProcessStartState@ioTargetTrace11Dummy@@IAEXXZ$1:
  00009	8d 4d e0	 lea	 ecx, DWORD PTR $T532494[ebp]
  0000c	ff 25 00 00 00
	00		 jmp	 DWORD PTR __imp_??1ioHashString@@QAE@XZ
__ehhandler$?OnProcessStartState@ioTargetTrace11Dummy@@IAEXXZ:
  00012	8b 54 24 08	 mov	 edx, DWORD PTR [esp+8]
  00016	8d 42 0c	 lea	 eax, DWORD PTR [edx+12]
  00019	8b 4a cc	 mov	 ecx, DWORD PTR [edx-52]
  0001c	33 c8		 xor	 ecx, eax
  0001e	e8 00 00 00 00	 call	 @__security_check_cookie@4
  00023	b8 00 00 00 00	 mov	 eax, OFFSET __ehfuncinfo$?OnProcessStartState@ioTargetTrace11Dummy@@IAEXXZ
  00028	e9 00 00 00 00	 jmp	 ___CxxFrameHandler3
text$x	ENDS
?OnProcessStartState@ioTargetTrace11Dummy@@IAEXXZ ENDP	; ioTargetTrace11Dummy::OnProcessStartState
EXTRN	?RemoveSummonDummyInfo@ioPlayStage@@QAEXH_N@Z:PROC ; ioPlayStage::RemoveSummonDummyInfo
EXTRN	?DestroyAreaWeapon@ioAreaWeapon@@QAEXPAVioPlayStage@@_N@Z:PROC ; ioAreaWeapon::DestroyAreaWeapon
EXTRN	?FindAreaWeaponByIndex@ioAreaWeaponManager@@QAEPAVioAreaWeapon@@K@Z:PROC ; ioAreaWeaponManager::FindAreaWeaponByIndex
; Function compile flags: /Ogsp
;	COMDAT ?SetDieState@ioTargetTrace11Dummy@@UAEX_N@Z
_TEXT	SEGMENT
_pStage$ = -4						; size = 4
_bEffect$ = 8						; size = 1
?SetDieState@ioTargetTrace11Dummy@@UAEX_N@Z PROC	; ioTargetTrace11Dummy::SetDieState, COMDAT
; _this$ = ecx

; 368  : {

  00000	55		 push	 ebp
  00001	8b ec		 mov	 ebp, esp
  00003	51		 push	 ecx
  00004	53		 push	 ebx
  00005	8b d9		 mov	 ebx, ecx

; 369  : 	ioBaseChar *pOwner = GetOwner();

  00007	e8 00 00 00 00	 call	 ?GetOwner@ioDummyChar@@QBEPAVioBaseChar@@XZ ; ioDummyChar::GetOwner

; 370  : 	if( !pOwner ) 

  0000c	85 c0		 test	 eax, eax
  0000e	74 72		 je	 SHORT $LN5@SetDieStat

; 371  : 		return;
; 372  : 
; 373  : 	ioPlayStage *pStage = pOwner->GetCreator();

  00010	56		 push	 esi
  00011	8b b0 44 03 00
	00		 mov	 esi, DWORD PTR [eax+836]
  00017	89 75 fc	 mov	 DWORD PTR _pStage$[ebp], esi

; 374  : 	if( !pStage ) 

  0001a	85 f6		 test	 esi, esi
  0001c	74 63		 je	 SHORT $LN11@SetDieStat

; 375  : 		return;
; 376  : 
; 377  : 	if ( m_iAreaWeaponIndex != -1 )

  0001e	8b 83 90 14 00
	00		 mov	 eax, DWORD PTR [ebx+5264]
  00024	83 f8 ff	 cmp	 eax, -1
  00027	74 2b		 je	 SHORT $LN2@SetDieStat

; 378  : 	{
; 379  : 		ioAreaWeapon *pAreaWeapon = g_AreaWeaponMgr.FindAreaWeaponByIndex( m_iAreaWeaponIndex );

  00029	50		 push	 eax
  0002a	e8 00 00 00 00	 call	 ?GetSingleton@ioAreaWeaponManager@@SAAAV1@XZ ; ioAreaWeaponManager::GetSingleton
  0002f	8b c8		 mov	 ecx, eax
  00031	e8 00 00 00 00	 call	 ?FindAreaWeaponByIndex@ioAreaWeaponManager@@QAEPAVioAreaWeapon@@K@Z ; ioAreaWeaponManager::FindAreaWeaponByIndex

; 380  : 		if ( pAreaWeapon && pAreaWeapon->IsLive() )

  00036	85 c0		 test	 eax, eax
  00038	74 13		 je	 SHORT $LN1@SetDieStat
  0003a	80 b8 94 07 00
	00 00		 cmp	 BYTE PTR [eax+1940], 0
  00041	74 0a		 je	 SHORT $LN1@SetDieStat

; 381  : 			pAreaWeapon->DestroyAreaWeapon( pStage );

  00043	6a 01		 push	 1
  00045	56		 push	 esi
  00046	8b c8		 mov	 ecx, eax
  00048	e8 00 00 00 00	 call	 ?DestroyAreaWeapon@ioAreaWeapon@@QAEXPAVioPlayStage@@_N@Z ; ioAreaWeapon::DestroyAreaWeapon
$LN1@SetDieStat:

; 382  : 		m_iAreaWeaponIndex = -1;

  0004d	83 8b 90 14 00
	00 ff		 or	 DWORD PTR [ebx+5264], -1
$LN2@SetDieStat:

; 383  : 	}
; 384  : 	
; 385  : 	
; 386  : 	
; 387  : 	m_vAreaWeaponPos = ioMath::VEC3_ZERO;

  00054	8b 35 00 00 00
	00		 mov	 esi, DWORD PTR __imp_?VEC3_ZERO@ioMath@@2UD3DXVECTOR3@@A

; 388  : 
; 389  : 	pStage->RemoveSummonDummyInfo( m_iCreateIndex, false );

  0005a	8b 4d fc	 mov	 ecx, DWORD PTR _pStage$[ebp]
  0005d	57		 push	 edi
  0005e	8d bb 94 14 00
	00		 lea	 edi, DWORD PTR [ebx+5268]
  00064	a5		 movsd
  00065	a5		 movsd
  00066	6a 00		 push	 0
  00068	ff b3 dc 01 00
	00		 push	 DWORD PTR [ebx+476]
  0006e	a5		 movsd
  0006f	e8 00 00 00 00	 call	 ?RemoveSummonDummyInfo@ioPlayStage@@QAEXH_N@Z ; ioPlayStage::RemoveSummonDummyInfo

; 390  : 
; 391  : 	ioDummyChar::SetDieState( bEffect );

  00074	6a 00		 push	 0
  00076	ff 75 08	 push	 DWORD PTR _bEffect$[ebp]
  00079	8b cb		 mov	 ecx, ebx
  0007b	e8 00 00 00 00	 call	 ?SetDieState@ioDummyChar@@UAEX_N0@Z ; ioDummyChar::SetDieState
  00080	5f		 pop	 edi
$LN11@SetDieStat:
  00081	5e		 pop	 esi
$LN5@SetDieStat:
  00082	5b		 pop	 ebx

; 392  : }

  00083	c9		 leave
  00084	c2 04 00	 ret	 4
?SetDieState@ioTargetTrace11Dummy@@UAEX_N@Z ENDP	; ioTargetTrace11Dummy::SetDieState
_TEXT	ENDS
PUBLIC	?ProcessAreaWeapon@ioTargetTrace11Dummy@@IAEXM@Z ; ioTargetTrace11Dummy::ProcessAreaWeapon
EXTRN	?SetAreaPosition@ioAreaWeapon@@QAEXABUD3DXVECTOR3@@PAVioPlayStage@@@Z:PROC ; ioAreaWeapon::SetAreaPosition
; Function compile flags: /Ogsp
;	COMDAT ?ProcessAreaWeapon@ioTargetTrace11Dummy@@IAEXM@Z
_TEXT	SEGMENT
tv244 = -8						; size = 4
_pStage$ = -4						; size = 4
_fTimePerSec$ = 8					; size = 4
?ProcessAreaWeapon@ioTargetTrace11Dummy@@IAEXM@Z PROC	; ioTargetTrace11Dummy::ProcessAreaWeapon, COMDAT
; _this$ = ecx

; 525  : {

  00000	55		 push	 ebp
  00001	8b ec		 mov	 ebp, esp
  00003	51		 push	 ecx
  00004	51		 push	 ecx
  00005	53		 push	 ebx
  00006	8b d9		 mov	 ebx, ecx

; 526  : 	if ( !m_bAttachAreaWeapon )

  00008	80 bb a0 14 00
	00 00		 cmp	 BYTE PTR [ebx+5280], 0
  0000f	0f 84 db 00 00
	00		 je	 $LN5@ProcessAre

; 527  : 		return;
; 528  : 
; 529  : 	if ( m_AreaWeaponName.IsEmpty() || m_iAreaWeaponIndex == -1 )

  00015	8d 8b 80 14 00
	00		 lea	 ecx, DWORD PTR [ebx+5248]
  0001b	ff 15 00 00 00
	00		 call	 DWORD PTR __imp_?IsEmpty@ioHashString@@QBE_NXZ
  00021	84 c0		 test	 al, al
  00023	0f 85 c7 00 00
	00		 jne	 $LN5@ProcessAre
  00029	83 bb 90 14 00
	00 ff		 cmp	 DWORD PTR [ebx+5264], -1
  00030	0f 84 ba 00 00
	00		 je	 $LN5@ProcessAre

; 530  : 		return;
; 531  : 
; 532  : 	ioBaseChar *pOwner = GetOwner();

  00036	8b cb		 mov	 ecx, ebx
  00038	e8 00 00 00 00	 call	 ?GetOwner@ioDummyChar@@QBEPAVioBaseChar@@XZ ; ioDummyChar::GetOwner

; 533  : 	if( !pOwner ) 

  0003d	85 c0		 test	 eax, eax
  0003f	0f 84 ab 00 00
	00		 je	 $LN5@ProcessAre

; 534  : 		return;
; 535  : 
; 536  : 	ioPlayStage *pStage = pOwner->GetCreator();

  00045	8b 80 44 03 00
	00		 mov	 eax, DWORD PTR [eax+836]
  0004b	89 45 fc	 mov	 DWORD PTR _pStage$[ebp], eax

; 537  : 	if( !pStage ) 

  0004e	85 c0		 test	 eax, eax
  00050	0f 84 9a 00 00
	00		 je	 $LN5@ProcessAre

; 538  : 		return;
; 539  : 
; 540  : 	if ( m_vAreaWeaponPos != GetWorldPosition() )

  00056	8b 03		 mov	 eax, DWORD PTR [ebx]
  00058	57		 push	 edi
  00059	8b cb		 mov	 ecx, ebx
  0005b	ff 50 70	 call	 DWORD PTR [eax+112]
  0005e	8b c8		 mov	 ecx, eax
  00060	f3 0f 10 09	 movss	 xmm1, DWORD PTR [ecx]
  00064	8d bb 94 14 00
	00		 lea	 edi, DWORD PTR [ebx+5268]
  0006a	f3 0f 10 07	 movss	 xmm0, DWORD PTR [edi]
  0006e	0f 5a c0	 cvtps2pd xmm0, xmm0
  00071	0f 5a c9	 cvtps2pd xmm1, xmm1
  00074	66 0f 2e c1	 ucomisd xmm0, xmm1
  00078	9f		 lahf
  00079	89 7d f8	 mov	 DWORD PTR tv244[ebp], edi
  0007c	f6 c4 44	 test	 ah, 68			; 00000044H
  0007f	7a 34		 jp	 SHORT $LN14@ProcessAre
  00081	f3 0f 10 47 04	 movss	 xmm0, DWORD PTR [edi+4]
  00086	f3 0f 10 49 04	 movss	 xmm1, DWORD PTR [ecx+4]
  0008b	0f 5a c0	 cvtps2pd xmm0, xmm0
  0008e	0f 5a c9	 cvtps2pd xmm1, xmm1
  00091	66 0f 2e c1	 ucomisd xmm0, xmm1
  00095	9f		 lahf
  00096	f6 c4 44	 test	 ah, 68			; 00000044H
  00099	7a 1a		 jp	 SHORT $LN14@ProcessAre
  0009b	f3 0f 10 47 08	 movss	 xmm0, DWORD PTR [edi+8]
  000a0	f3 0f 10 49 08	 movss	 xmm1, DWORD PTR [ecx+8]
  000a5	0f 5a c0	 cvtps2pd xmm0, xmm0
  000a8	0f 5a c9	 cvtps2pd xmm1, xmm1
  000ab	66 0f 2e c1	 ucomisd xmm0, xmm1
  000af	9f		 lahf
  000b0	f6 c4 44	 test	 ah, 68			; 00000044H
  000b3	7b 3a		 jnp	 SHORT $LN18@ProcessAre
$LN14@ProcessAre:

; 541  : 	{
; 542  : 		m_vAreaWeaponPos = GetWorldPosition();

  000b5	8b 03		 mov	 eax, DWORD PTR [ebx]
  000b7	56		 push	 esi
  000b8	8b cb		 mov	 ecx, ebx
  000ba	ff 50 70	 call	 DWORD PTR [eax+112]

; 543  : 		ioAreaWeapon *pAreaWeapon = g_AreaWeaponMgr.FindAreaWeaponByIndex( m_iAreaWeaponIndex );

  000bd	ff b3 90 14 00
	00		 push	 DWORD PTR [ebx+5264]
  000c3	8b f0		 mov	 esi, eax
  000c5	a5		 movsd
  000c6	a5		 movsd
  000c7	a5		 movsd
  000c8	e8 00 00 00 00	 call	 ?GetSingleton@ioAreaWeaponManager@@SAAAV1@XZ ; ioAreaWeaponManager::GetSingleton
  000cd	8b c8		 mov	 ecx, eax
  000cf	e8 00 00 00 00	 call	 ?FindAreaWeaponByIndex@ioAreaWeaponManager@@QAEPAVioAreaWeapon@@K@Z ; ioAreaWeaponManager::FindAreaWeaponByIndex
  000d4	5e		 pop	 esi

; 544  : 		if ( pAreaWeapon && pAreaWeapon->IsLive() )

  000d5	85 c0		 test	 eax, eax
  000d7	74 16		 je	 SHORT $LN18@ProcessAre
  000d9	80 b8 94 07 00
	00 00		 cmp	 BYTE PTR [eax+1940], 0
  000e0	74 0d		 je	 SHORT $LN18@ProcessAre

; 545  : 		{
; 546  : 			pAreaWeapon->SetAreaPosition( m_vAreaWeaponPos, pStage );

  000e2	ff 75 fc	 push	 DWORD PTR _pStage$[ebp]
  000e5	8b c8		 mov	 ecx, eax
  000e7	ff 75 f8	 push	 DWORD PTR tv244[ebp]
  000ea	e8 00 00 00 00	 call	 ?SetAreaPosition@ioAreaWeapon@@QAEXABUD3DXVECTOR3@@PAVioPlayStage@@@Z ; ioAreaWeapon::SetAreaPosition
$LN18@ProcessAre:
  000ef	5f		 pop	 edi
$LN5@ProcessAre:
  000f0	5b		 pop	 ebx

; 547  : 		}
; 548  : 	}
; 549  : }

  000f1	c9		 leave
  000f2	c2 04 00	 ret	 4
?ProcessAreaWeapon@ioTargetTrace11Dummy@@IAEXM@Z ENDP	; ioTargetTrace11Dummy::ProcessAreaWeapon
_TEXT	ENDS
PUBLIC	??D?$CEncrypt@M@@QAEMABM@Z			; CEncrypt<float>::operator*
; Function compile flags: /Ogsp
; File d:\lost saga for developer\youtube\tutorial\source\src\lsclient\encryptvalue.h
;	COMDAT ??D?$CEncrypt@M@@QAEMABM@Z
_TEXT	SEGMENT
_value$ = -4						; size = 4
tv130 = 8						; size = 4
_inValue$ = 8						; size = 4
??D?$CEncrypt@M@@QAEMABM@Z PROC				; CEncrypt<float>::operator*, COMDAT
; _this$ = ecx

; 1685 : 	{	

  00000	55		 push	 ebp
  00001	8b ec		 mov	 ebp, esp
  00003	51		 push	 ecx

; 1686 : 		type value;
; 1687 : 		DecryptValueToPool(&value);

  00004	8d 45 fc	 lea	 eax, DWORD PTR _value$[ebp]
  00007	50		 push	 eax
  00008	e8 00 00 00 00	 call	 ?DecryptValueToPool@?$CEncrypt@M@@QAEXPAM@Z ; CEncrypt<float>::DecryptValueToPool

; 1688 : #ifdef _NOTUSE
; 1689 : 		Debug();
; 1690 : #endif
; 1691 : 		return value * inValue;

  0000d	8b 45 08	 mov	 eax, DWORD PTR _inValue$[ebp]
  00010	d9 00		 fld	 DWORD PTR [eax]
  00012	d8 4d fc	 fmul	 DWORD PTR _value$[ebp]
  00015	d9 5d 08	 fstp	 DWORD PTR tv130[ebp]
  00018	d9 45 08	 fld	 DWORD PTR tv130[ebp]

; 1692 : 	}

  0001b	c9		 leave
  0001c	c2 04 00	 ret	 4
??D?$CEncrypt@M@@QAEMABM@Z ENDP				; CEncrypt<float>::operator*
_TEXT	ENDS
PUBLIC	??K?$CEncrypt@M@@QAEMABM@Z			; CEncrypt<float>::operator/
; Function compile flags: /Ogsp
;	COMDAT ??K?$CEncrypt@M@@QAEMABM@Z
_TEXT	SEGMENT
_value$ = -4						; size = 4
tv130 = 8						; size = 4
_inValue$ = 8						; size = 4
??K?$CEncrypt@M@@QAEMABM@Z PROC				; CEncrypt<float>::operator/, COMDAT
; _this$ = ecx

; 1695 : 	{

  00000	55		 push	 ebp
  00001	8b ec		 mov	 ebp, esp
  00003	51		 push	 ecx

; 1696 : 		type value;
; 1697 : 		DecryptValueToPool(&value);

  00004	8d 45 fc	 lea	 eax, DWORD PTR _value$[ebp]
  00007	50		 push	 eax
  00008	e8 00 00 00 00	 call	 ?DecryptValueToPool@?$CEncrypt@M@@QAEXPAM@Z ; CEncrypt<float>::DecryptValueToPool

; 1698 : #ifdef _NOTUSE
; 1699 : 		Debug();
; 1700 : #endif
; 1701 : 		return value / inValue;

  0000d	d9 45 fc	 fld	 DWORD PTR _value$[ebp]
  00010	8b 45 08	 mov	 eax, DWORD PTR _inValue$[ebp]
  00013	d8 30		 fdiv	 DWORD PTR [eax]
  00015	d9 5d 08	 fstp	 DWORD PTR tv130[ebp]
  00018	d9 45 08	 fld	 DWORD PTR tv130[ebp]

; 1702 : 	}

  0001b	c9		 leave
  0001c	c2 04 00	 ret	 4
??K?$CEncrypt@M@@QAEMABM@Z ENDP				; CEncrypt<float>::operator/
_TEXT	ENDS
PUBLIC	??9?$CEncrypt@M@@QAE_NABM@Z			; CEncrypt<float>::operator!=
; Function compile flags: /Ogsp
;	COMDAT ??9?$CEncrypt@M@@QAE_NABM@Z
_TEXT	SEGMENT
_value$ = -4						; size = 4
_inValue$ = 8						; size = 4
??9?$CEncrypt@M@@QAE_NABM@Z PROC			; CEncrypt<float>::operator!=, COMDAT
; _this$ = ecx

; 1801 : 	{

  00000	55		 push	 ebp
  00001	8b ec		 mov	 ebp, esp
  00003	51		 push	 ecx

; 1802 : 		type value;
; 1803 : 		DecryptValueToPool(&value);

  00004	8d 45 fc	 lea	 eax, DWORD PTR _value$[ebp]
  00007	50		 push	 eax
  00008	e8 00 00 00 00	 call	 ?DecryptValueToPool@?$CEncrypt@M@@QAEXPAM@Z ; CEncrypt<float>::DecryptValueToPool

; 1804 : #ifdef _NOTUSE
; 1805 : 		Debug();
; 1806 : #endif
; 1807 : 		return (value != inValue);

  0000d	8b 45 08	 mov	 eax, DWORD PTR _inValue$[ebp]
  00010	f3 0f 10 08	 movss	 xmm1, DWORD PTR [eax]
  00014	f3 0f 10 45 fc	 movss	 xmm0, DWORD PTR _value$[ebp]
  00019	0f 5a c0	 cvtps2pd xmm0, xmm0
  0001c	0f 5a c9	 cvtps2pd xmm1, xmm1
  0001f	66 0f 2e c1	 ucomisd xmm0, xmm1
  00023	9f		 lahf
  00024	f6 c4 44	 test	 ah, 68			; 00000044H
  00027	7b 05		 jnp	 SHORT $LN3@operator@2
  00029	33 c0		 xor	 eax, eax
  0002b	40		 inc	 eax
  0002c	eb 02		 jmp	 SHORT $LN4@operator@2
$LN3@operator@2:
  0002e	33 c0		 xor	 eax, eax
$LN4@operator@2:

; 1808 : 	} 		

  00030	c9		 leave
  00031	c2 04 00	 ret	 4
??9?$CEncrypt@M@@QAE_NABM@Z ENDP			; CEncrypt<float>::operator!=
_TEXT	ENDS
PUBLIC	??O?$CEncrypt@K@@QAE_NABH@Z			; CEncrypt<unsigned long>::operator>
; Function compile flags: /Ogsp
;	COMDAT ??O?$CEncrypt@K@@QAE_NABH@Z
_TEXT	SEGMENT
_value$ = -4						; size = 4
_inValue$ = 8						; size = 4
??O?$CEncrypt@K@@QAE_NABH@Z PROC			; CEncrypt<unsigned long>::operator>, COMDAT
; _this$ = ecx

; 1009 : 	{

  00000	55		 push	 ebp
  00001	8b ec		 mov	 ebp, esp
  00003	51		 push	 ecx

; 1010 : 		
; 1011 : 		type value;
; 1012 : 		DecryptValueToPool(&value);

  00004	8d 45 fc	 lea	 eax, DWORD PTR _value$[ebp]
  00007	50		 push	 eax
  00008	e8 00 00 00 00	 call	 ?DecryptValueToPool@?$CEncrypt@K@@QAEXPAK@Z ; CEncrypt<unsigned long>::DecryptValueToPool

; 1013 : #ifdef _NOTUSE
; 1014 : 		Debug();
; 1015 : #endif
; 1016 : 		return (value > inValue);

  0000d	8b 45 08	 mov	 eax, DWORD PTR _inValue$[ebp]
  00010	8b 00		 mov	 eax, DWORD PTR [eax]
  00012	3b 45 fc	 cmp	 eax, DWORD PTR _value$[ebp]
  00015	1b c0		 sbb	 eax, eax
  00017	f7 d8		 neg	 eax

; 1017 : 	}		

  00019	c9		 leave
  0001a	c2 04 00	 ret	 4
??O?$CEncrypt@K@@QAE_NABH@Z ENDP			; CEncrypt<unsigned long>::operator>
_TEXT	ENDS
PUBLIC	??O?$CEncrypt@K@@QAE_NABK@Z			; CEncrypt<unsigned long>::operator>
; Function compile flags: /Ogsp
;	COMDAT ??O?$CEncrypt@K@@QAE_NABK@Z
_TEXT	SEGMENT
_value$ = -4						; size = 4
_inValue$ = 8						; size = 4
??O?$CEncrypt@K@@QAE_NABK@Z PROC			; CEncrypt<unsigned long>::operator>, COMDAT
; _this$ = ecx

; 1421 : 	{

  00000	55		 push	 ebp
  00001	8b ec		 mov	 ebp, esp
  00003	51		 push	 ecx

; 1422 : 		type value;
; 1423 : 		DecryptValueToPool(&value);

  00004	8d 45 fc	 lea	 eax, DWORD PTR _value$[ebp]
  00007	50		 push	 eax
  00008	e8 00 00 00 00	 call	 ?DecryptValueToPool@?$CEncrypt@K@@QAEXPAK@Z ; CEncrypt<unsigned long>::DecryptValueToPool

; 1424 : #ifdef _NOTUSE
; 1425 : 		Debug();
; 1426 : #endif
; 1427 : 		return (value > inValue);

  0000d	8b 45 08	 mov	 eax, DWORD PTR _inValue$[ebp]
  00010	8b 00		 mov	 eax, DWORD PTR [eax]
  00012	3b 45 fc	 cmp	 eax, DWORD PTR _value$[ebp]
  00015	1b c0		 sbb	 eax, eax
  00017	f7 d8		 neg	 eax

; 1428 : 	}		

  00019	c9		 leave
  0001a	c2 04 00	 ret	 4
??O?$CEncrypt@K@@QAE_NABK@Z ENDP			; CEncrypt<unsigned long>::operator>
_TEXT	ENDS
PUBLIC	?begin@?$vector@PAVioBaseChar@@V?$allocator@PAVioBaseChar@@@std@@@std@@QBE?AV?$_Vector_const_iterator@V?$_Vector_val@PAVioBaseChar@@V?$allocator@PAVioBaseChar@@@std@@@std@@@2@XZ ; std::vector<ioBaseChar *,std::allocator<ioBaseChar *> >::begin
; Function compile flags: /Ogsp
; File c:\program files (x86)\microsoft visual studio 10.0\vc\include\vector
;	COMDAT ?begin@?$vector@PAVioBaseChar@@V?$allocator@PAVioBaseChar@@@std@@@std@@QBE?AV?$_Vector_const_iterator@V?$_Vector_val@PAVioBaseChar@@V?$allocator@PAVioBaseChar@@@std@@@std@@@2@XZ
_TEXT	SEGMENT
___$ReturnUdt$ = 8					; size = 4
?begin@?$vector@PAVioBaseChar@@V?$allocator@PAVioBaseChar@@@std@@@std@@QBE?AV?$_Vector_const_iterator@V?$_Vector_val@PAVioBaseChar@@V?$allocator@PAVioBaseChar@@@std@@@std@@@2@XZ PROC ; std::vector<ioBaseChar *,std::allocator<ioBaseChar *> >::begin, COMDAT
; _this$ = ecx

; 786  : 		{	// return iterator for beginning of nonmutable sequence

  00000	55		 push	 ebp
  00001	8b ec		 mov	 ebp, esp

; 787  : 		return (const_iterator(this->_Myfirst, this));

  00003	8b 09		 mov	 ecx, DWORD PTR [ecx]
  00005	8b 45 08	 mov	 eax, DWORD PTR ___$ReturnUdt$[ebp]
  00008	89 08		 mov	 DWORD PTR [eax], ecx

; 788  : 		}

  0000a	5d		 pop	 ebp
  0000b	c2 04 00	 ret	 4
?begin@?$vector@PAVioBaseChar@@V?$allocator@PAVioBaseChar@@@std@@@std@@QBE?AV?$_Vector_const_iterator@V?$_Vector_val@PAVioBaseChar@@V?$allocator@PAVioBaseChar@@@std@@@std@@@2@XZ ENDP ; std::vector<ioBaseChar *,std::allocator<ioBaseChar *> >::begin
_TEXT	ENDS
PUBLIC	?end@?$vector@PAVioBaseChar@@V?$allocator@PAVioBaseChar@@@std@@@std@@QBE?AV?$_Vector_const_iterator@V?$_Vector_val@PAVioBaseChar@@V?$allocator@PAVioBaseChar@@@std@@@std@@@2@XZ ; std::vector<ioBaseChar *,std::allocator<ioBaseChar *> >::end
; Function compile flags: /Ogsp
;	COMDAT ?end@?$vector@PAVioBaseChar@@V?$allocator@PAVioBaseChar@@@std@@@std@@QBE?AV?$_Vector_const_iterator@V?$_Vector_val@PAVioBaseChar@@V?$allocator@PAVioBaseChar@@@std@@@std@@@2@XZ
_TEXT	SEGMENT
___$ReturnUdt$ = 8					; size = 4
?end@?$vector@PAVioBaseChar@@V?$allocator@PAVioBaseChar@@@std@@@std@@QBE?AV?$_Vector_const_iterator@V?$_Vector_val@PAVioBaseChar@@V?$allocator@PAVioBaseChar@@@std@@@std@@@2@XZ PROC ; std::vector<ioBaseChar *,std::allocator<ioBaseChar *> >::end, COMDAT
; _this$ = ecx

; 796  : 		{	// return iterator for end of nonmutable sequence

  00000	55		 push	 ebp
  00001	8b ec		 mov	 ebp, esp

; 797  : 		return (const_iterator(this->_Mylast, this));

  00003	8b 49 04	 mov	 ecx, DWORD PTR [ecx+4]
  00006	8b 45 08	 mov	 eax, DWORD PTR ___$ReturnUdt$[ebp]
  00009	89 08		 mov	 DWORD PTR [eax], ecx

; 798  : 		}

  0000b	5d		 pop	 ebp
  0000c	c2 04 00	 ret	 4
?end@?$vector@PAVioBaseChar@@V?$allocator@PAVioBaseChar@@@std@@@std@@QBE?AV?$_Vector_const_iterator@V?$_Vector_val@PAVioBaseChar@@V?$allocator@PAVioBaseChar@@@std@@@std@@@2@XZ ENDP ; std::vector<ioBaseChar *,std::allocator<ioBaseChar *> >::end
_TEXT	ENDS
PUBLIC	??D?$_Vector_iterator@V?$_Vector_val@VioHashString@@V?$allocator@VioHashString@@@std@@@std@@@std@@QBEAAVioHashString@@XZ ; std::_Vector_iterator<std::_Vector_val<ioHashString,std::allocator<ioHashString> > >::operator*
; Function compile flags: /Ogsp
;	COMDAT ??D?$_Vector_iterator@V?$_Vector_val@VioHashString@@V?$allocator@VioHashString@@@std@@@std@@@std@@QBEAAVioHashString@@XZ
_TEXT	SEGMENT
??D?$_Vector_iterator@V?$_Vector_val@VioHashString@@V?$allocator@VioHashString@@@std@@@std@@@std@@QBEAAVioHashString@@XZ PROC ; std::_Vector_iterator<std::_Vector_val<ioHashString,std::allocator<ioHashString> > >::operator*, COMDAT
; _this$ = ecx

; 322  : 		return ((reference)**(_Mybase *)this);

  00000	8b 01		 mov	 eax, DWORD PTR [ecx]

; 323  : 		}

  00002	c3		 ret	 0
??D?$_Vector_iterator@V?$_Vector_val@VioHashString@@V?$allocator@VioHashString@@@std@@@std@@@std@@QBEAAVioHashString@@XZ ENDP ; std::_Vector_iterator<std::_Vector_val<ioHashString,std::allocator<ioHashString> > >::operator*
_TEXT	ENDS
PUBLIC	??E?$_Vector_iterator@V?$_Vector_val@VioHashString@@V?$allocator@VioHashString@@@std@@@std@@@std@@QAEAAV01@XZ ; std::_Vector_iterator<std::_Vector_val<ioHashString,std::allocator<ioHashString> > >::operator++
; Function compile flags: /Ogsp
;	COMDAT ??E?$_Vector_iterator@V?$_Vector_val@VioHashString@@V?$allocator@VioHashString@@@std@@@std@@@std@@QAEAAV01@XZ
_TEXT	SEGMENT
??E?$_Vector_iterator@V?$_Vector_val@VioHashString@@V?$allocator@VioHashString@@@std@@@std@@@std@@QAEAAV01@XZ PROC ; std::_Vector_iterator<std::_Vector_val<ioHashString,std::allocator<ioHashString> > >::operator++, COMDAT
; _this$ = ecx

; 331  : 		{	// preincrement

  00000	8b c1		 mov	 eax, ecx

; 332  : 		++*(_Mybase *)this;

  00002	83 00 10	 add	 DWORD PTR [eax], 16	; 00000010H

; 333  : 		return (*this);
; 334  : 		}

  00005	c3		 ret	 0
??E?$_Vector_iterator@V?$_Vector_val@VioHashString@@V?$allocator@VioHashString@@@std@@@std@@@std@@QAEAAV01@XZ ENDP ; std::_Vector_iterator<std::_Vector_val<ioHashString,std::allocator<ioHashString> > >::operator++
_TEXT	ENDS
PUBLIC	??E?$_List_iterator@V?$_List_val@UFireTime@@V?$allocator@UFireTime@@@std@@@std@@@std@@QAEAAV01@XZ ; std::_List_iterator<std::_List_val<FireTime,std::allocator<FireTime> > >::operator++
; Function compile flags: /Ogsp
; File c:\program files (x86)\microsoft visual studio 10.0\vc\include\list
;	COMDAT ??E?$_List_iterator@V?$_List_val@UFireTime@@V?$allocator@UFireTime@@@std@@@std@@@std@@QAEAAV01@XZ
_TEXT	SEGMENT
??E?$_List_iterator@V?$_List_val@UFireTime@@V?$allocator@UFireTime@@@std@@@std@@@std@@QAEAAV01@XZ PROC ; std::_List_iterator<std::_List_val<FireTime,std::allocator<FireTime> > >::operator++, COMDAT
; _this$ = ecx

; 369  : 		{	// preincrement

  00000	8b c1		 mov	 eax, ecx

; 370  : 		++(*(_Mybase *)this);

  00002	8b 08		 mov	 ecx, DWORD PTR [eax]
  00004	8b 09		 mov	 ecx, DWORD PTR [ecx]
  00006	89 08		 mov	 DWORD PTR [eax], ecx

; 371  : 		return (*this);
; 372  : 		}

  00008	c3		 ret	 0
??E?$_List_iterator@V?$_List_val@UFireTime@@V?$allocator@UFireTime@@@std@@@std@@@std@@QAEAAV01@XZ ENDP ; std::_List_iterator<std::_List_val<FireTime,std::allocator<FireTime> > >::operator++
_TEXT	ENDS
PUBLIC	??9?$_List_const_iterator@V?$_List_val@UFireTime@@V?$allocator@UFireTime@@@std@@@std@@@std@@QBE_NABV01@@Z ; std::_List_const_iterator<std::_List_val<FireTime,std::allocator<FireTime> > >::operator!=
; Function compile flags: /Ogsp
;	COMDAT ??9?$_List_const_iterator@V?$_List_val@UFireTime@@V?$allocator@UFireTime@@@std@@@std@@@std@@QBE_NABV01@@Z
_TEXT	SEGMENT
__Right$ = 8						; size = 4
??9?$_List_const_iterator@V?$_List_val@UFireTime@@V?$allocator@UFireTime@@@std@@@std@@@std@@QBE_NABV01@@Z PROC ; std::_List_const_iterator<std::_List_val<FireTime,std::allocator<FireTime> > >::operator!=, COMDAT
; _this$ = ecx

; 299  : 		{	// test for iterator inequality

  00000	55		 push	 ebp
  00001	8b ec		 mov	 ebp, esp

; 300  : 		return (!(*this == _Right));

  00003	8b 01		 mov	 eax, DWORD PTR [ecx]
  00005	8b 55 08	 mov	 edx, DWORD PTR __Right$[ebp]
  00008	33 c9		 xor	 ecx, ecx
  0000a	3b 02		 cmp	 eax, DWORD PTR [edx]
  0000c	0f 95 c0	 setne	 al

; 301  : 		}

  0000f	5d		 pop	 ebp
  00010	c2 04 00	 ret	 4
??9?$_List_const_iterator@V?$_List_val@UFireTime@@V?$allocator@UFireTime@@@std@@@std@@@std@@QBE_NABV01@@Z ENDP ; std::_List_const_iterator<std::_List_val<FireTime,std::allocator<FireTime> > >::operator!=
_TEXT	ENDS
PUBLIC	??D?$_List_const_iterator@V?$_List_val@UFireTime@@V?$allocator@UFireTime@@@std@@@std@@@std@@QBEABUFireTime@@XZ ; std::_List_const_iterator<std::_List_val<FireTime,std::allocator<FireTime> > >::operator*
; Function compile flags: /Ogsp
;	COMDAT ??D?$_List_const_iterator@V?$_List_val@UFireTime@@V?$allocator@UFireTime@@@std@@@std@@@std@@QBEABUFireTime@@XZ
_TEXT	SEGMENT
??D?$_List_const_iterator@V?$_List_val@UFireTime@@V?$allocator@UFireTime@@@std@@@std@@@std@@QBEABUFireTime@@XZ PROC ; std::_List_const_iterator<std::_List_val<FireTime,std::allocator<FireTime> > >::operator*, COMDAT
; _this$ = ecx

; 202  :  #if _ITERATOR_DEBUG_LEVEL == 2
; 203  : 		if (this->_Getcont() == 0
; 204  : 			|| this->_Ptr == 0
; 205  : 			|| this->_Ptr == ((_Mylist *)this->_Getcont())->_Myhead)
; 206  : 			{	// report error
; 207  : 			_DEBUG_ERROR("list iterator not dereferencable");
; 208  : 			_SCL_SECURE_OUT_OF_RANGE;
; 209  : 			}
; 210  : 
; 211  :  #elif _ITERATOR_DEBUG_LEVEL == 1
; 212  : 		_SCL_SECURE_VALIDATE(this->_Getcont() != 0 && this->_Ptr != 0);
; 213  : 		_SCL_SECURE_VALIDATE_RANGE(this->_Ptr !=
; 214  : 			((_Mylist *)this->_Getcont())->_Myhead);
; 215  :  #endif /* _ITERATOR_DEBUG_LEVEL */
; 216  : 
; 217  : 		return (_Mylist::_Myval(this->_Ptr));

  00000	8b 01		 mov	 eax, DWORD PTR [ecx]
  00002	83 c0 08	 add	 eax, 8

; 218  : 		}

  00005	c3		 ret	 0
??D?$_List_const_iterator@V?$_List_val@UFireTime@@V?$allocator@UFireTime@@@std@@@std@@@std@@QBEABUFireTime@@XZ ENDP ; std::_List_const_iterator<std::_List_val<FireTime,std::allocator<FireTime> > >::operator*
_TEXT	ENDS
PUBLIC	??8?$_Vector_const_iterator@V?$_Vector_val@PAVioBaseChar@@V?$allocator@PAVioBaseChar@@@std@@@std@@@std@@QBE_NABV01@@Z ; std::_Vector_const_iterator<std::_Vector_val<ioBaseChar *,std::allocator<ioBaseChar *> > >::operator==
; Function compile flags: /Ogsp
; File c:\program files (x86)\microsoft visual studio 10.0\vc\include\vector
;	COMDAT ??8?$_Vector_const_iterator@V?$_Vector_val@PAVioBaseChar@@V?$allocator@PAVioBaseChar@@@std@@@std@@@std@@QBE_NABV01@@Z
_TEXT	SEGMENT
__Right$ = 8						; size = 4
??8?$_Vector_const_iterator@V?$_Vector_val@PAVioBaseChar@@V?$allocator@PAVioBaseChar@@@std@@@std@@@std@@QBE_NABV01@@Z PROC ; std::_Vector_const_iterator<std::_Vector_val<ioBaseChar *,std::allocator<ioBaseChar *> > >::operator==, COMDAT
; _this$ = ecx

; 201  : 		{	// test for iterator equality

  00000	55		 push	 ebp
  00001	8b ec		 mov	 ebp, esp

; 202  : 		_Compat(_Right);
; 203  : 		return (this->_Ptr == _Right._Ptr);

  00003	8b 01		 mov	 eax, DWORD PTR [ecx]
  00005	8b 4d 08	 mov	 ecx, DWORD PTR __Right$[ebp]
  00008	2b 01		 sub	 eax, DWORD PTR [ecx]
  0000a	f7 d8		 neg	 eax
  0000c	1b c0		 sbb	 eax, eax
  0000e	40		 inc	 eax

; 204  : 		}

  0000f	5d		 pop	 ebp
  00010	c2 04 00	 ret	 4
??8?$_Vector_const_iterator@V?$_Vector_val@PAVioBaseChar@@V?$allocator@PAVioBaseChar@@@std@@@std@@@std@@QBE_NABV01@@Z ENDP ; std::_Vector_const_iterator<std::_Vector_val<ioBaseChar *,std::allocator<ioBaseChar *> > >::operator==
_TEXT	ENDS
PUBLIC	??0?$_List_const_iterator@V?$_List_val@UFireTime@@V?$allocator@UFireTime@@@std@@@std@@@std@@QAE@PAU_Node@?$_List_nod@UFireTime@@V?$allocator@UFireTime@@@std@@@1@PBV?$_List_val@UFireTime@@V?$allocator@UFireTime@@@std@@@1@@Z ; std::_List_const_iterator<std::_List_val<FireTime,std::allocator<FireTime> > >::_List_const_iterator<std::_List_val<FireTime,std::allocator<FireTime> > >
; Function compile flags: /Ogsp
; File c:\program files (x86)\microsoft visual studio 10.0\vc\include\list
;	COMDAT ??0?$_List_const_iterator@V?$_List_val@UFireTime@@V?$allocator@UFireTime@@@std@@@std@@@std@@QAE@PAU_Node@?$_List_nod@UFireTime@@V?$allocator@UFireTime@@@std@@@1@PBV?$_List_val@UFireTime@@V?$allocator@UFireTime@@@std@@@1@@Z
_TEXT	SEGMENT
__Pnode$ = 8						; size = 4
__Plist$ = 12						; size = 4
??0?$_List_const_iterator@V?$_List_val@UFireTime@@V?$allocator@UFireTime@@@std@@@std@@@std@@QAE@PAU_Node@?$_List_nod@UFireTime@@V?$allocator@UFireTime@@@std@@@1@PBV?$_List_val@UFireTime@@V?$allocator@UFireTime@@@std@@@1@@Z PROC ; std::_List_const_iterator<std::_List_val<FireTime,std::allocator<FireTime> > >::_List_const_iterator<std::_List_val<FireTime,std::allocator<FireTime> > >, COMDAT
; _this$ = ecx

; 184  : 		{	// construct with node pointer _Pnode

  00000	55		 push	 ebp
  00001	8b ec		 mov	 ebp, esp
  00003	8b c1		 mov	 eax, ecx
  00005	8b 4d 08	 mov	 ecx, DWORD PTR __Pnode$[ebp]
  00008	89 08		 mov	 DWORD PTR [eax], ecx

; 185  : 		}

  0000a	5d		 pop	 ebp
  0000b	c2 08 00	 ret	 8
??0?$_List_const_iterator@V?$_List_val@UFireTime@@V?$allocator@UFireTime@@@std@@@std@@@std@@QAE@PAU_Node@?$_List_nod@UFireTime@@V?$allocator@UFireTime@@@std@@@1@PBV?$_List_val@UFireTime@@V?$allocator@UFireTime@@@std@@@1@@Z ENDP ; std::_List_const_iterator<std::_List_val<FireTime,std::allocator<FireTime> > >::_List_const_iterator<std::_List_val<FireTime,std::allocator<FireTime> > >
_TEXT	ENDS
PUBLIC	_this$GSCopy$
PUBLIC	__$ArrayPad$
PUBLIC	??$LoadString_e@$0BB@@ioINILoader@@QAEXAAY0BB@$$CBDAAY00$$CBDPADH@Z ; ioINILoader::LoadString_e<17>
EXTRN	__imp_?LoadStringA@ioINILoader@@QAEXPBD0PADH@Z:PROC
EXTRN	___security_cookie:DWORD
; Function compile flags: /Ogsp
; File d:\lost saga for developer\youtube\tutorial\source\src\io3dengine\ioiniloader.h
;	COMDAT ??$LoadString_e@$0BB@@ioINILoader@@QAEXAAY0BB@$$CBDAAY00$$CBDPADH@Z
_TEXT	SEGMENT
_this$GSCopy$ = -32					; size = 4
__k$ = -28						; size = 17
__$ArrayPad$ = -4					; size = 4
_k$ = 8							; size = 4
_d$ = 12						; size = 4
_b$ = 16						; size = 4
_i$ = 20						; size = 4
??$LoadString_e@$0BB@@ioINILoader@@QAEXAAY0BB@$$CBDAAY00$$CBDPADH@Z PROC ; ioINILoader::LoadString_e<17>, COMDAT
; _this$ = ecx

; 161  : 	{

  00000	55		 push	 ebp
  00001	8b ec		 mov	 ebp, esp
  00003	83 ec 20	 sub	 esp, 32			; 00000020H
  00006	a1 00 00 00 00	 mov	 eax, DWORD PTR ___security_cookie
  0000b	33 c5		 xor	 eax, ebp
  0000d	89 45 fc	 mov	 DWORD PTR __$ArrayPad$[ebp], eax
  00010	8b 45 08	 mov	 eax, DWORD PTR _k$[ebp]

; 162  : 		_ENCSTR(k, _k);

  00013	8a 10		 mov	 dl, BYTE PTR [eax]
  00015	56		 push	 esi
  00016	8b 75 0c	 mov	 esi, DWORD PTR _d$[ebp]
  00019	57		 push	 edi
  0001a	8b 7d 10	 mov	 edi, DWORD PTR _b$[ebp]
  0001d	89 4d e0	 mov	 DWORD PTR _this$GSCopy$[ebp], ecx
  00020	84 d2		 test	 dl, dl
  00022	0f 84 a7 01 00
	00		 je	 $LN96@LoadString
  00028	80 f2 ed	 xor	 dl, -19			; ffffffedH
  0002b	88 55 e4	 mov	 BYTE PTR __k$[ebp], dl
  0002e	8a 50 01	 mov	 dl, BYTE PTR [eax+1]
  00031	84 d2		 test	 dl, dl
  00033	0f 84 90 01 00
	00		 je	 $LN95@LoadString
  00039	b1 ec		 mov	 cl, -20			; ffffffecH
  0003b	32 d1		 xor	 dl, cl
  0003d	88 55 e5	 mov	 BYTE PTR __k$[ebp+1], dl
  00040	8a 50 02	 mov	 dl, BYTE PTR [eax+2]
  00043	84 d2		 test	 dl, dl
  00045	0f 84 78 01 00
	00		 je	 $LN94@LoadString
  0004b	80 f2 eb	 xor	 dl, -21			; ffffffebH
  0004e	88 55 e6	 mov	 BYTE PTR __k$[ebp+2], dl
  00051	8a 50 03	 mov	 dl, BYTE PTR [eax+3]
  00054	84 d2		 test	 dl, dl
  00056	0f 84 61 01 00
	00		 je	 $LN93@LoadString
  0005c	80 f2 ea	 xor	 dl, -22			; ffffffeaH
  0005f	88 55 e7	 mov	 BYTE PTR __k$[ebp+3], dl
  00062	8a 50 04	 mov	 dl, BYTE PTR [eax+4]
  00065	84 d2		 test	 dl, dl
  00067	0f 84 4a 01 00
	00		 je	 $LN92@LoadString
  0006d	80 f2 ed	 xor	 dl, -19			; ffffffedH
  00070	88 55 e8	 mov	 BYTE PTR __k$[ebp+4], dl
  00073	8a 50 05	 mov	 dl, BYTE PTR [eax+5]
  00076	84 d2		 test	 dl, dl
  00078	0f 84 34 01 00
	00		 je	 $LN91@LoadString
  0007e	32 d1		 xor	 dl, cl
  00080	88 55 e9	 mov	 BYTE PTR __k$[ebp+5], dl
  00083	8a 50 06	 mov	 dl, BYTE PTR [eax+6]
  00086	84 d2		 test	 dl, dl
  00088	0f 84 1e 01 00
	00		 je	 $LN90@LoadString
  0008e	80 f2 eb	 xor	 dl, -21			; ffffffebH
  00091	88 55 ea	 mov	 BYTE PTR __k$[ebp+6], dl
  00094	8a 50 07	 mov	 dl, BYTE PTR [eax+7]
  00097	84 d2		 test	 dl, dl
  00099	0f 84 07 01 00
	00		 je	 $LN89@LoadString
  0009f	80 f2 ea	 xor	 dl, -22			; ffffffeaH
  000a2	88 55 eb	 mov	 BYTE PTR __k$[ebp+7], dl
  000a5	8a 50 08	 mov	 dl, BYTE PTR [eax+8]
  000a8	84 d2		 test	 dl, dl
  000aa	0f 84 f0 00 00
	00		 je	 $LN88@LoadString
  000b0	80 f2 ed	 xor	 dl, -19			; ffffffedH
  000b3	88 55 ec	 mov	 BYTE PTR __k$[ebp+8], dl
  000b6	8a 50 09	 mov	 dl, BYTE PTR [eax+9]
  000b9	84 d2		 test	 dl, dl
  000bb	0f 84 da 00 00
	00		 je	 $LN87@LoadString
  000c1	32 d1		 xor	 dl, cl
  000c3	88 55 ed	 mov	 BYTE PTR __k$[ebp+9], dl
  000c6	8a 50 0a	 mov	 dl, BYTE PTR [eax+10]
  000c9	84 d2		 test	 dl, dl
  000cb	0f 84 c4 00 00
	00		 je	 $LN86@LoadString
  000d1	80 f2 eb	 xor	 dl, -21			; ffffffebH
  000d4	88 55 ee	 mov	 BYTE PTR __k$[ebp+10], dl
  000d7	8a 50 0b	 mov	 dl, BYTE PTR [eax+11]
  000da	84 d2		 test	 dl, dl
  000dc	0f 84 ad 00 00
	00		 je	 $LN85@LoadString
  000e2	80 f2 ea	 xor	 dl, -22			; ffffffeaH
  000e5	88 55 ef	 mov	 BYTE PTR __k$[ebp+11], dl
  000e8	8a 50 0c	 mov	 dl, BYTE PTR [eax+12]
  000eb	84 d2		 test	 dl, dl
  000ed	0f 84 96 00 00
	00		 je	 $LN84@LoadString
  000f3	80 f2 ed	 xor	 dl, -19			; ffffffedH
  000f6	88 55 f0	 mov	 BYTE PTR __k$[ebp+12], dl
  000f9	8a 50 0d	 mov	 dl, BYTE PTR [eax+13]
  000fc	84 d2		 test	 dl, dl
  000fe	0f 84 80 00 00
	00		 je	 $LN83@LoadString
  00104	32 d1		 xor	 dl, cl
  00106	88 55 f1	 mov	 BYTE PTR __k$[ebp+13], dl
  00109	8a 50 0e	 mov	 dl, BYTE PTR [eax+14]
  0010c	84 d2		 test	 dl, dl
  0010e	74 6e		 je	 SHORT $LN82@LoadString
  00110	80 f2 eb	 xor	 dl, -21			; ffffffebH
  00113	88 55 f2	 mov	 BYTE PTR __k$[ebp+14], dl
  00116	8a 50 0f	 mov	 dl, BYTE PTR [eax+15]
  00119	84 d2		 test	 dl, dl
  0011b	74 5b		 je	 SHORT $LN81@LoadString
  0011d	80 f2 ea	 xor	 dl, -22			; ffffffeaH
  00120	80 78 10 00	 cmp	 BYTE PTR [eax+16], 0
  00124	88 55 f3	 mov	 BYTE PTR __k$[ebp+15], dl
  00127	0f 84 a6 00 00
	00		 je	 $LN111@LoadString
  0012d	8a 50 11	 mov	 dl, BYTE PTR [eax+17]
  00130	84 d2		 test	 dl, dl
  00132	74 3f		 je	 SHORT $LN79@LoadString
  00134	32 d1		 xor	 dl, cl
  00136	88 55 f5	 mov	 BYTE PTR __k$[ebp+17], dl
  00139	8a 50 12	 mov	 dl, BYTE PTR [eax+18]
  0013c	84 d2		 test	 dl, dl
  0013e	74 2d		 je	 SHORT $LN78@LoadString
  00140	80 f2 eb	 xor	 dl, -21			; ffffffebH
  00143	88 55 f6	 mov	 BYTE PTR __k$[ebp+18], dl
  00146	8a 50 13	 mov	 dl, BYTE PTR [eax+19]
  00149	84 d2		 test	 dl, dl
  0014b	74 1a		 je	 SHORT $LN77@LoadString
  0014d	8a 40 14	 mov	 al, BYTE PTR [eax+20]
  00150	80 f2 ea	 xor	 dl, -22			; ffffffeaH
  00153	88 55 f7	 mov	 BYTE PTR __k$[ebp+19], dl
  00156	84 c0		 test	 al, al
  00158	74 07		 je	 SHORT $LN76@LoadString
  0015a	34 ed		 xor	 al, -19			; ffffffedH
  0015c	88 45 f8	 mov	 BYTE PTR __k$[ebp+20], al
  0015f	eb 72		 jmp	 SHORT $LN111@LoadString
$LN76@LoadString:
  00161	c6 45 f8 ed	 mov	 BYTE PTR __k$[ebp+20], -19 ; ffffffedH
  00165	eb 6c		 jmp	 SHORT $LN111@LoadString
$LN77@LoadString:
  00167	c6 45 f7 ea	 mov	 BYTE PTR __k$[ebp+19], -22 ; ffffffeaH
  0016b	eb 66		 jmp	 SHORT $LN111@LoadString
$LN78@LoadString:
  0016d	c6 45 f6 eb	 mov	 BYTE PTR __k$[ebp+18], -21 ; ffffffebH
  00171	eb 60		 jmp	 SHORT $LN111@LoadString
$LN79@LoadString:
  00173	88 4d f5	 mov	 BYTE PTR __k$[ebp+17], cl
  00176	eb 5b		 jmp	 SHORT $LN111@LoadString
$LN81@LoadString:
  00178	c6 45 f3 ea	 mov	 BYTE PTR __k$[ebp+15], -22 ; ffffffeaH
  0017c	eb 55		 jmp	 SHORT $LN111@LoadString
$LN82@LoadString:
  0017e	c6 45 f2 eb	 mov	 BYTE PTR __k$[ebp+14], -21 ; ffffffebH
  00182	eb 4f		 jmp	 SHORT $LN111@LoadString
$LN83@LoadString:
  00184	88 4d f1	 mov	 BYTE PTR __k$[ebp+13], cl
  00187	eb 4a		 jmp	 SHORT $LN111@LoadString
$LN84@LoadString:
  00189	c6 45 f0 ed	 mov	 BYTE PTR __k$[ebp+12], -19 ; ffffffedH
  0018d	eb 44		 jmp	 SHORT $LN111@LoadString
$LN85@LoadString:
  0018f	c6 45 ef ea	 mov	 BYTE PTR __k$[ebp+11], -22 ; ffffffeaH
  00193	eb 3e		 jmp	 SHORT $LN111@LoadString
$LN86@LoadString:
  00195	c6 45 ee eb	 mov	 BYTE PTR __k$[ebp+10], -21 ; ffffffebH
  00199	eb 38		 jmp	 SHORT $LN111@LoadString
$LN87@LoadString:
  0019b	88 4d ed	 mov	 BYTE PTR __k$[ebp+9], cl
  0019e	eb 33		 jmp	 SHORT $LN111@LoadString
$LN88@LoadString:
  001a0	c6 45 ec ed	 mov	 BYTE PTR __k$[ebp+8], -19 ; ffffffedH
  001a4	eb 2d		 jmp	 SHORT $LN111@LoadString
$LN89@LoadString:
  001a6	c6 45 eb ea	 mov	 BYTE PTR __k$[ebp+7], -22 ; ffffffeaH
  001aa	eb 27		 jmp	 SHORT $LN111@LoadString
$LN90@LoadString:
  001ac	c6 45 ea eb	 mov	 BYTE PTR __k$[ebp+6], -21 ; ffffffebH
  001b0	eb 21		 jmp	 SHORT $LN111@LoadString
$LN91@LoadString:
  001b2	88 4d e9	 mov	 BYTE PTR __k$[ebp+5], cl
  001b5	eb 1c		 jmp	 SHORT $LN111@LoadString
$LN92@LoadString:
  001b7	c6 45 e8 ed	 mov	 BYTE PTR __k$[ebp+4], -19 ; ffffffedH
  001bb	eb 16		 jmp	 SHORT $LN111@LoadString
$LN93@LoadString:
  001bd	c6 45 e7 ea	 mov	 BYTE PTR __k$[ebp+3], -22 ; ffffffeaH
  001c1	eb 10		 jmp	 SHORT $LN111@LoadString
$LN94@LoadString:
  001c3	c6 45 e6 eb	 mov	 BYTE PTR __k$[ebp+2], -21 ; ffffffebH
  001c7	eb 0a		 jmp	 SHORT $LN111@LoadString
$LN95@LoadString:
  001c9	c6 45 e5 ec	 mov	 BYTE PTR __k$[ebp+1], -20 ; ffffffecH
  001cd	eb 04		 jmp	 SHORT $LN111@LoadString
$LN96@LoadString:
  001cf	c6 45 e4 ed	 mov	 BYTE PTR __k$[ebp], -19	; ffffffedH
$LN111@LoadString:
  001d3	6a 04		 push	 4
  001d5	8d 45 e4	 lea	 eax, DWORD PTR __k$[ebp]
  001d8	c6 45 f4 00	 mov	 BYTE PTR __k$[ebp+16], 0
  001dc	5a		 pop	 edx
$LL104@LoadString:
  001dd	81 30 ed ec eb
	ea		 xor	 DWORD PTR [eax], -353637139 ; eaebecedH
  001e3	83 c0 04	 add	 eax, 4
  001e6	4a		 dec	 edx
  001e7	75 f4		 jne	 SHORT $LL104@LoadString

; 163  : 		LoadString(_k, d, b, i);

  001e9	ff 75 14	 push	 DWORD PTR _i$[ebp]
  001ec	8b 4d e0	 mov	 ecx, DWORD PTR _this$GSCopy$[ebp]
  001ef	57		 push	 edi
  001f0	56		 push	 esi
  001f1	8d 45 e4	 lea	 eax, DWORD PTR __k$[ebp]
  001f4	50		 push	 eax
  001f5	ff 15 00 00 00
	00		 call	 DWORD PTR __imp_?LoadStringA@ioINILoader@@QAEXPBD0PADH@Z

; 164  : 	}

  001fb	8b 4d fc	 mov	 ecx, DWORD PTR __$ArrayPad$[ebp]
  001fe	5f		 pop	 edi
  001ff	33 cd		 xor	 ecx, ebp
  00201	5e		 pop	 esi
  00202	e8 00 00 00 00	 call	 @__security_check_cookie@4
  00207	c9		 leave
  00208	c2 10 00	 ret	 16			; 00000010H
??$LoadString_e@$0BB@@ioINILoader@@QAEXAAY0BB@$$CBDAAY00$$CBDPADH@Z ENDP ; ioINILoader::LoadString_e<17>
_TEXT	ENDS
PUBLIC	__$ArrayPad$
PUBLIC	??$LoadBool_e@$0BD@@ioINILoader@@QAE_NAAY0BD@$$CBD_N@Z ; ioINILoader::LoadBool_e<19>
EXTRN	__imp_?LoadBool@ioINILoader@@QAE_NPBD_N@Z:PROC
; Function compile flags: /Ogsp
;	COMDAT ??$LoadBool_e@$0BD@@ioINILoader@@QAE_NAAY0BD@$$CBD_N@Z
_TEXT	SEGMENT
__k$ = -28						; size = 19
__$ArrayPad$ = -4					; size = 4
_k$ = 8							; size = 4
_b$ = 12						; size = 1
??$LoadBool_e@$0BD@@ioINILoader@@QAE_NAAY0BD@$$CBD_N@Z PROC ; ioINILoader::LoadBool_e<19>, COMDAT
; _this$ = ecx

; 101  : 	{

  00000	55		 push	 ebp
  00001	8b ec		 mov	 ebp, esp
  00003	83 ec 1c	 sub	 esp, 28			; 0000001cH
  00006	a1 00 00 00 00	 mov	 eax, DWORD PTR ___security_cookie
  0000b	33 c5		 xor	 eax, ebp
  0000d	89 45 fc	 mov	 DWORD PTR __$ArrayPad$[ebp], eax
  00010	8b 45 08	 mov	 eax, DWORD PTR _k$[ebp]

; 102  : 		_ENCSTR(k, _k);

  00013	8a 10		 mov	 dl, BYTE PTR [eax]
  00015	56		 push	 esi
  00016	8b f1		 mov	 esi, ecx
  00018	84 d2		 test	 dl, dl
  0001a	0f 84 cf 01 00
	00		 je	 $LN96@LoadBool_e
  00020	80 f2 ed	 xor	 dl, -19			; ffffffedH
  00023	88 55 e4	 mov	 BYTE PTR __k$[ebp], dl
  00026	8a 50 01	 mov	 dl, BYTE PTR [eax+1]
  00029	84 d2		 test	 dl, dl
  0002b	0f 84 b8 01 00
	00		 je	 $LN95@LoadBool_e
  00031	b1 ec		 mov	 cl, -20			; ffffffecH
  00033	32 d1		 xor	 dl, cl
  00035	88 55 e5	 mov	 BYTE PTR __k$[ebp+1], dl
  00038	8a 50 02	 mov	 dl, BYTE PTR [eax+2]
  0003b	84 d2		 test	 dl, dl
  0003d	0f 84 a0 01 00
	00		 je	 $LN94@LoadBool_e
  00043	80 f2 eb	 xor	 dl, -21			; ffffffebH
  00046	88 55 e6	 mov	 BYTE PTR __k$[ebp+2], dl
  00049	8a 50 03	 mov	 dl, BYTE PTR [eax+3]
  0004c	84 d2		 test	 dl, dl
  0004e	0f 84 89 01 00
	00		 je	 $LN93@LoadBool_e
  00054	80 f2 ea	 xor	 dl, -22			; ffffffeaH
  00057	88 55 e7	 mov	 BYTE PTR __k$[ebp+3], dl
  0005a	8a 50 04	 mov	 dl, BYTE PTR [eax+4]
  0005d	84 d2		 test	 dl, dl
  0005f	0f 84 72 01 00
	00		 je	 $LN92@LoadBool_e
  00065	80 f2 ed	 xor	 dl, -19			; ffffffedH
  00068	88 55 e8	 mov	 BYTE PTR __k$[ebp+4], dl
  0006b	8a 50 05	 mov	 dl, BYTE PTR [eax+5]
  0006e	84 d2		 test	 dl, dl
  00070	0f 84 5c 01 00
	00		 je	 $LN91@LoadBool_e
  00076	32 d1		 xor	 dl, cl
  00078	88 55 e9	 mov	 BYTE PTR __k$[ebp+5], dl
  0007b	8a 50 06	 mov	 dl, BYTE PTR [eax+6]
  0007e	84 d2		 test	 dl, dl
  00080	0f 84 46 01 00
	00		 je	 $LN90@LoadBool_e
  00086	80 f2 eb	 xor	 dl, -21			; ffffffebH
  00089	88 55 ea	 mov	 BYTE PTR __k$[ebp+6], dl
  0008c	8a 50 07	 mov	 dl, BYTE PTR [eax+7]
  0008f	84 d2		 test	 dl, dl
  00091	0f 84 2f 01 00
	00		 je	 $LN89@LoadBool_e
  00097	80 f2 ea	 xor	 dl, -22			; ffffffeaH
  0009a	88 55 eb	 mov	 BYTE PTR __k$[ebp+7], dl
  0009d	8a 50 08	 mov	 dl, BYTE PTR [eax+8]
  000a0	84 d2		 test	 dl, dl
  000a2	0f 84 18 01 00
	00		 je	 $LN88@LoadBool_e
  000a8	80 f2 ed	 xor	 dl, -19			; ffffffedH
  000ab	88 55 ec	 mov	 BYTE PTR __k$[ebp+8], dl
  000ae	8a 50 09	 mov	 dl, BYTE PTR [eax+9]
  000b1	84 d2		 test	 dl, dl
  000b3	0f 84 02 01 00
	00		 je	 $LN87@LoadBool_e
  000b9	32 d1		 xor	 dl, cl
  000bb	88 55 ed	 mov	 BYTE PTR __k$[ebp+9], dl
  000be	8a 50 0a	 mov	 dl, BYTE PTR [eax+10]
  000c1	84 d2		 test	 dl, dl
  000c3	0f 84 ec 00 00
	00		 je	 $LN86@LoadBool_e
  000c9	80 f2 eb	 xor	 dl, -21			; ffffffebH
  000cc	88 55 ee	 mov	 BYTE PTR __k$[ebp+10], dl
  000cf	8a 50 0b	 mov	 dl, BYTE PTR [eax+11]
  000d2	84 d2		 test	 dl, dl
  000d4	0f 84 d5 00 00
	00		 je	 $LN85@LoadBool_e
  000da	80 f2 ea	 xor	 dl, -22			; ffffffeaH
  000dd	88 55 ef	 mov	 BYTE PTR __k$[ebp+11], dl
  000e0	8a 50 0c	 mov	 dl, BYTE PTR [eax+12]
  000e3	84 d2		 test	 dl, dl
  000e5	0f 84 be 00 00
	00		 je	 $LN84@LoadBool_e
  000eb	80 f2 ed	 xor	 dl, -19			; ffffffedH
  000ee	88 55 f0	 mov	 BYTE PTR __k$[ebp+12], dl
  000f1	8a 50 0d	 mov	 dl, BYTE PTR [eax+13]
  000f4	84 d2		 test	 dl, dl
  000f6	0f 84 a8 00 00
	00		 je	 $LN83@LoadBool_e
  000fc	32 d1		 xor	 dl, cl
  000fe	88 55 f1	 mov	 BYTE PTR __k$[ebp+13], dl
  00101	8a 50 0e	 mov	 dl, BYTE PTR [eax+14]
  00104	84 d2		 test	 dl, dl
  00106	0f 84 92 00 00
	00		 je	 $LN82@LoadBool_e
  0010c	80 f2 eb	 xor	 dl, -21			; ffffffebH
  0010f	88 55 f2	 mov	 BYTE PTR __k$[ebp+14], dl
  00112	8a 50 0f	 mov	 dl, BYTE PTR [eax+15]
  00115	84 d2		 test	 dl, dl
  00117	74 7f		 je	 SHORT $LN81@LoadBool_e
  00119	80 f2 ea	 xor	 dl, -22			; ffffffeaH
  0011c	88 55 f3	 mov	 BYTE PTR __k$[ebp+15], dl
  0011f	8a 50 10	 mov	 dl, BYTE PTR [eax+16]
  00122	84 d2		 test	 dl, dl
  00124	74 6c		 je	 SHORT $LN80@LoadBool_e
  00126	80 f2 ed	 xor	 dl, -19			; ffffffedH
  00129	88 55 f4	 mov	 BYTE PTR __k$[ebp+16], dl
  0012c	8a 50 11	 mov	 dl, BYTE PTR [eax+17]
  0012f	84 d2		 test	 dl, dl
  00131	74 5a		 je	 SHORT $LN79@LoadBool_e
  00133	32 d1		 xor	 dl, cl
  00135	80 78 12 00	 cmp	 BYTE PTR [eax+18], 0
  00139	88 55 f5	 mov	 BYTE PTR __k$[ebp+17], dl
  0013c	0f 84 b1 00 00
	00		 je	 $LN1@LoadBool_e
  00142	8a 50 13	 mov	 dl, BYTE PTR [eax+19]
  00145	84 d2		 test	 dl, dl
  00147	74 3e		 je	 SHORT $LN77@LoadBool_e
  00149	80 f2 ea	 xor	 dl, -22			; ffffffeaH
  0014c	88 55 f7	 mov	 BYTE PTR __k$[ebp+19], dl
  0014f	8a 50 14	 mov	 dl, BYTE PTR [eax+20]
  00152	84 d2		 test	 dl, dl
  00154	74 2b		 je	 SHORT $LN76@LoadBool_e
  00156	80 f2 ed	 xor	 dl, -19			; ffffffedH
  00159	88 55 f8	 mov	 BYTE PTR __k$[ebp+20], dl
  0015c	8a 50 15	 mov	 dl, BYTE PTR [eax+21]
  0015f	84 d2		 test	 dl, dl
  00161	74 19		 je	 SHORT $LN75@LoadBool_e
  00163	8a 40 16	 mov	 al, BYTE PTR [eax+22]
  00166	32 d1		 xor	 dl, cl
  00168	88 55 f9	 mov	 BYTE PTR __k$[ebp+21], dl
  0016b	84 c0		 test	 al, al
  0016d	74 07		 je	 SHORT $LN74@LoadBool_e
  0016f	34 eb		 xor	 al, -21			; ffffffebH
  00171	88 45 fa	 mov	 BYTE PTR __k$[ebp+22], al
  00174	eb 7d		 jmp	 SHORT $LN1@LoadBool_e
$LN74@LoadBool_e:
  00176	c6 45 fa eb	 mov	 BYTE PTR __k$[ebp+22], -21 ; ffffffebH
  0017a	eb 77		 jmp	 SHORT $LN1@LoadBool_e
$LN75@LoadBool_e:
  0017c	88 4d f9	 mov	 BYTE PTR __k$[ebp+21], cl
  0017f	eb 72		 jmp	 SHORT $LN1@LoadBool_e
$LN76@LoadBool_e:
  00181	c6 45 f8 ed	 mov	 BYTE PTR __k$[ebp+20], -19 ; ffffffedH
  00185	eb 6c		 jmp	 SHORT $LN1@LoadBool_e
$LN77@LoadBool_e:
  00187	c6 45 f7 ea	 mov	 BYTE PTR __k$[ebp+19], -22 ; ffffffeaH
  0018b	eb 66		 jmp	 SHORT $LN1@LoadBool_e
$LN79@LoadBool_e:
  0018d	88 4d f5	 mov	 BYTE PTR __k$[ebp+17], cl
  00190	eb 61		 jmp	 SHORT $LN1@LoadBool_e
$LN80@LoadBool_e:
  00192	c6 45 f4 ed	 mov	 BYTE PTR __k$[ebp+16], -19 ; ffffffedH
  00196	eb 5b		 jmp	 SHORT $LN1@LoadBool_e
$LN81@LoadBool_e:
  00198	c6 45 f3 ea	 mov	 BYTE PTR __k$[ebp+15], -22 ; ffffffeaH
  0019c	eb 55		 jmp	 SHORT $LN1@LoadBool_e
$LN82@LoadBool_e:
  0019e	c6 45 f2 eb	 mov	 BYTE PTR __k$[ebp+14], -21 ; ffffffebH
  001a2	eb 4f		 jmp	 SHORT $LN1@LoadBool_e
$LN83@LoadBool_e:
  001a4	88 4d f1	 mov	 BYTE PTR __k$[ebp+13], cl
  001a7	eb 4a		 jmp	 SHORT $LN1@LoadBool_e
$LN84@LoadBool_e:
  001a9	c6 45 f0 ed	 mov	 BYTE PTR __k$[ebp+12], -19 ; ffffffedH
  001ad	eb 44		 jmp	 SHORT $LN1@LoadBool_e
$LN85@LoadBool_e:
  001af	c6 45 ef ea	 mov	 BYTE PTR __k$[ebp+11], -22 ; ffffffeaH
  001b3	eb 3e		 jmp	 SHORT $LN1@LoadBool_e
$LN86@LoadBool_e:
  001b5	c6 45 ee eb	 mov	 BYTE PTR __k$[ebp+10], -21 ; ffffffebH
  001b9	eb 38		 jmp	 SHORT $LN1@LoadBool_e
$LN87@LoadBool_e:
  001bb	88 4d ed	 mov	 BYTE PTR __k$[ebp+9], cl
  001be	eb 33		 jmp	 SHORT $LN1@LoadBool_e
$LN88@LoadBool_e:
  001c0	c6 45 ec ed	 mov	 BYTE PTR __k$[ebp+8], -19 ; ffffffedH
  001c4	eb 2d		 jmp	 SHORT $LN1@LoadBool_e
$LN89@LoadBool_e:
  001c6	c6 45 eb ea	 mov	 BYTE PTR __k$[ebp+7], -22 ; ffffffeaH
  001ca	eb 27		 jmp	 SHORT $LN1@LoadBool_e
$LN90@LoadBool_e:
  001cc	c6 45 ea eb	 mov	 BYTE PTR __k$[ebp+6], -21 ; ffffffebH
  001d0	eb 21		 jmp	 SHORT $LN1@LoadBool_e
$LN91@LoadBool_e:
  001d2	88 4d e9	 mov	 BYTE PTR __k$[ebp+5], cl
  001d5	eb 1c		 jmp	 SHORT $LN1@LoadBool_e
$LN92@LoadBool_e:
  001d7	c6 45 e8 ed	 mov	 BYTE PTR __k$[ebp+4], -19 ; ffffffedH
  001db	eb 16		 jmp	 SHORT $LN1@LoadBool_e
$LN93@LoadBool_e:
  001dd	c6 45 e7 ea	 mov	 BYTE PTR __k$[ebp+3], -22 ; ffffffeaH
  001e1	eb 10		 jmp	 SHORT $LN1@LoadBool_e
$LN94@LoadBool_e:
  001e3	c6 45 e6 eb	 mov	 BYTE PTR __k$[ebp+2], -21 ; ffffffebH
  001e7	eb 0a		 jmp	 SHORT $LN1@LoadBool_e
$LN95@LoadBool_e:
  001e9	c6 45 e5 ec	 mov	 BYTE PTR __k$[ebp+1], -20 ; ffffffecH
  001ed	eb 04		 jmp	 SHORT $LN1@LoadBool_e
$LN96@LoadBool_e:
  001ef	c6 45 e4 ed	 mov	 BYTE PTR __k$[ebp], -19	; ffffffedH
$LN1@LoadBool_e:
  001f3	6a 04		 push	 4
  001f5	8d 45 e4	 lea	 eax, DWORD PTR __k$[ebp]
  001f8	c6 45 f6 00	 mov	 BYTE PTR __k$[ebp+18], 0
  001fc	5a		 pop	 edx
$LL104@LoadBool_e:
  001fd	81 30 ed ec eb
	ea		 xor	 DWORD PTR [eax], -353637139 ; eaebecedH
  00203	83 c0 04	 add	 eax, 4
  00206	4a		 dec	 edx
  00207	75 f4		 jne	 SHORT $LL104@LoadBool_e
  00209	6a 10		 push	 16			; 00000010H
  0020b	58		 pop	 eax
$LL101@LoadBool_e:
  0020c	8b c8		 mov	 ecx, eax
  0020e	81 e1 03 00 00
	80		 and	 ecx, -2147483645	; 80000003H
  00214	79 05		 jns	 SHORT $LN111@LoadBool_e
  00216	49		 dec	 ecx
  00217	83 c9 fc	 or	 ecx, -4			; fffffffcH
  0021a	41		 inc	 ecx
$LN111@LoadBool_e:
  0021b	b2 ed		 mov	 dl, -19			; ffffffedH
  0021d	2a d1		 sub	 dl, cl
  0021f	30 54 05 e4	 xor	 BYTE PTR __k$[ebp+eax], dl
  00223	40		 inc	 eax
  00224	83 f8 12	 cmp	 eax, 18			; 00000012H
  00227	7c e3		 jl	 SHORT $LL101@LoadBool_e

; 103  : 		return LoadBool(_k, b);

  00229	ff 75 0c	 push	 DWORD PTR _b$[ebp]
  0022c	8d 45 e4	 lea	 eax, DWORD PTR __k$[ebp]
  0022f	50		 push	 eax
  00230	8b ce		 mov	 ecx, esi
  00232	ff 15 00 00 00
	00		 call	 DWORD PTR __imp_?LoadBool@ioINILoader@@QAE_NPBD_N@Z

; 104  : 	}

  00238	8b 4d fc	 mov	 ecx, DWORD PTR __$ArrayPad$[ebp]
  0023b	33 cd		 xor	 ecx, ebp
  0023d	5e		 pop	 esi
  0023e	e8 00 00 00 00	 call	 @__security_check_cookie@4
  00243	c9		 leave
  00244	c2 08 00	 ret	 8
??$LoadBool_e@$0BD@@ioINILoader@@QAE_NAAY0BD@$$CBD_N@Z ENDP ; ioINILoader::LoadBool_e<19>
_TEXT	ENDS
PUBLIC	__real@3fd2ee0d320154cb
PUBLIC	__real@41f0000000000000
PUBLIC	??$RADtoDEG@M@@YAMM@Z				; RADtoDEG<float>
;	COMDAT __real@3fd2ee0d320154cb
; File d:\lost saga for developer\youtube\tutorial\source\src\lsclient\veryoftenusedefine.h
CONST	SEGMENT
__real@3fd2ee0d320154cb DQ 03fd2ee0d320154cbr	; 0.29578
CONST	ENDS
;	COMDAT __real@41f0000000000000
CONST	SEGMENT
__real@41f0000000000000 DQ 041f0000000000000r	; 4.29497e+009
; Function compile flags: /Ogsp
CONST	ENDS
;	COMDAT ??$RADtoDEG@M@@YAMM@Z
_TEXT	SEGMENT
tv130 = -4						; size = 4
tv75 = 8						; size = 4
_val$ = 8						; size = 4
??$RADtoDEG@M@@YAMM@Z PROC				; RADtoDEG<float>, COMDAT

; 18   : type  RADtoDEG (type val) {return (type) (val * (return57() + 0.2957795132)); }

  00000	55		 push	 ebp
  00001	8b ec		 mov	 ebp, esp
  00003	51		 push	 ecx
  00004	b8 39 00 00 00	 mov	 eax, 57			; 00000039H
  00009	89 45 fc	 mov	 DWORD PTR tv130[ebp], eax
  0000c	db 45 fc	 fild	 DWORD PTR tv130[ebp]
  0000f	85 c0		 test	 eax, eax
  00011	79 06		 jns	 SHORT $LN5@RADtoDEG
  00013	dc 05 00 00 00
	00		 fadd	 QWORD PTR __real@41f0000000000000
$LN5@RADtoDEG:
  00019	dc 05 00 00 00
	00		 fadd	 QWORD PTR __real@3fd2ee0d320154cb
  0001f	d8 4d 08	 fmul	 DWORD PTR _val$[ebp]
  00022	d9 5d 08	 fstp	 DWORD PTR tv75[ebp]
  00025	d9 45 08	 fld	 DWORD PTR tv75[ebp]
  00028	c9		 leave
  00029	c3		 ret	 0
??$RADtoDEG@M@@YAMM@Z ENDP				; RADtoDEG<float>
_TEXT	ENDS
PUBLIC	??1_Node@?$_List_nod@UFireTime@@V?$allocator@UFireTime@@@std@@@std@@QAE@XZ ; std::_List_nod<FireTime,std::allocator<FireTime> >::_Node::~_Node
; Function compile flags: /Ogsp
;	COMDAT ??1_Node@?$_List_nod@UFireTime@@V?$allocator@UFireTime@@@std@@@std@@QAE@XZ
_TEXT	SEGMENT
??1_Node@?$_List_nod@UFireTime@@V?$allocator@UFireTime@@@std@@@std@@QAE@XZ PROC ; std::_List_nod<FireTime,std::allocator<FireTime> >::_Node::~_Node, COMDAT
; _this$ = ecx
  00000	83 c1 08	 add	 ecx, 8
  00003	e9 00 00 00 00	 jmp	 ??1FireTime@@QAE@XZ
??1_Node@?$_List_nod@UFireTime@@V?$allocator@UFireTime@@@std@@@std@@QAE@XZ ENDP ; std::_List_nod<FireTime,std::allocator<FireTime> >::_Node::~_Node
_TEXT	ENDS
PUBLIC	??B?$CEncrypt@M@@QAEMXZ				; CEncrypt<float>::operator float
; Function compile flags: /Ogsp
; File d:\lost saga for developer\youtube\tutorial\source\src\lsclient\encryptvalue.h
;	COMDAT ??B?$CEncrypt@M@@QAEMXZ
_TEXT	SEGMENT
_value$ = -4						; size = 4
??B?$CEncrypt@M@@QAEMXZ PROC				; CEncrypt<float>::operator float, COMDAT
; _this$ = ecx

; 134  : 	{

  00000	55		 push	 ebp
  00001	8b ec		 mov	 ebp, esp
  00003	51		 push	 ecx

; 135  : 		type value;
; 136  : 		DecryptValueToPool(&value);

  00004	8d 45 fc	 lea	 eax, DWORD PTR _value$[ebp]
  00007	50		 push	 eax
  00008	e8 00 00 00 00	 call	 ?DecryptValueToPool@?$CEncrypt@M@@QAEXPAM@Z ; CEncrypt<float>::DecryptValueToPool

; 137  : 
; 138  : #ifdef _NOTUSE
; 139  : 		Debug();
; 140  : #endif
; 141  : 		return value;

  0000d	d9 45 fc	 fld	 DWORD PTR _value$[ebp]

; 142  : 	}

  00010	c9		 leave
  00011	c3		 ret	 0
??B?$CEncrypt@M@@QAEMXZ ENDP				; CEncrypt<float>::operator float
_TEXT	ENDS
PUBLIC	??4?$CEncrypt@M@@QAEMM@Z			; CEncrypt<float>::operator=
; Function compile flags: /Ogsp
;	COMDAT ??4?$CEncrypt@M@@QAEMM@Z
_TEXT	SEGMENT
_value$ = 8						; size = 4
_inValue$ = 8						; size = 4
??4?$CEncrypt@M@@QAEMM@Z PROC				; CEncrypt<float>::operator=, COMDAT
; _this$ = ecx

; 1654 : 	{	

  00000	55		 push	 ebp
  00001	8b ec		 mov	 ebp, esp

; 1655 : 		type value = inValue;

  00003	d9 45 08	 fld	 DWORD PTR _inValue$[ebp]

; 1656 : 		EncryptValueToPool((char*)&value);

  00006	8d 45 08	 lea	 eax, DWORD PTR _value$[ebp]
  00009	50		 push	 eax
  0000a	d9 5d 08	 fstp	 DWORD PTR _value$[ebp]
  0000d	e8 00 00 00 00	 call	 ?EncryptValueToPool@?$CEncrypt@M@@AAEXPBD@Z ; CEncrypt<float>::EncryptValueToPool

; 1657 : #ifdef _NOTUSE
; 1658 : 		m_value = inValue;
; 1659 : 		Debug();
; 1660 : #endif
; 1661 : 		return value;

  00012	d9 45 08	 fld	 DWORD PTR _value$[ebp]

; 1662 : 	}

  00015	5d		 pop	 ebp
  00016	c2 04 00	 ret	 4
??4?$CEncrypt@M@@QAEMM@Z ENDP				; CEncrypt<float>::operator=
_TEXT	ENDS
PUBLIC	??B?$CEncrypt@K@@QAEKXZ				; CEncrypt<unsigned long>::operator unsigned long
; Function compile flags: /Ogsp
;	COMDAT ??B?$CEncrypt@K@@QAEKXZ
_TEXT	SEGMENT
_value$ = -4						; size = 4
??B?$CEncrypt@K@@QAEKXZ PROC				; CEncrypt<unsigned long>::operator unsigned long, COMDAT
; _this$ = ecx

; 134  : 	{

  00000	55		 push	 ebp
  00001	8b ec		 mov	 ebp, esp
  00003	51		 push	 ecx

; 135  : 		type value;
; 136  : 		DecryptValueToPool(&value);

  00004	8d 45 fc	 lea	 eax, DWORD PTR _value$[ebp]
  00007	50		 push	 eax
  00008	e8 00 00 00 00	 call	 ?DecryptValueToPool@?$CEncrypt@K@@QAEXPAK@Z ; CEncrypt<unsigned long>::DecryptValueToPool

; 137  : 
; 138  : #ifdef _NOTUSE
; 139  : 		Debug();
; 140  : #endif
; 141  : 		return value;

  0000d	8b 45 fc	 mov	 eax, DWORD PTR _value$[ebp]

; 142  : 	}

  00010	c9		 leave
  00011	c3		 ret	 0
??B?$CEncrypt@K@@QAEKXZ ENDP				; CEncrypt<unsigned long>::operator unsigned long
_TEXT	ENDS
PUBLIC	??B?$CEncrypt@K@@QBEKXZ				; CEncrypt<unsigned long>::operator unsigned long
; Function compile flags: /Ogsp
;	COMDAT ??B?$CEncrypt@K@@QBEKXZ
_TEXT	SEGMENT
_value$ = -4						; size = 4
??B?$CEncrypt@K@@QBEKXZ PROC				; CEncrypt<unsigned long>::operator unsigned long, COMDAT
; _this$ = ecx

; 145  : 	{

  00000	55		 push	 ebp
  00001	8b ec		 mov	 ebp, esp
  00003	51		 push	 ecx

; 146  : 		//UJ 130829, const    --start
; 147  : 		type value;
; 148  : 		CEncrypt<type>* pThis = const_cast<CEncrypt<type>*>(this);
; 149  : 		pThis->DecryptValueToPool(&value);

  00004	8d 45 fc	 lea	 eax, DWORD PTR _value$[ebp]
  00007	50		 push	 eax
  00008	e8 00 00 00 00	 call	 ?DecryptValueToPool@?$CEncrypt@K@@QAEXPAK@Z ; CEncrypt<unsigned long>::DecryptValueToPool

; 150  : 		//// const DecryptValueToPool     .
; 151  :  		//type value;
; 152  : 		//char szTempMem[MAX_ENCRYPT];
; 153  : 		//m_RC5.DecryptByte( m_MemPool, szTempMem, max(m_ValueSize, DEFAULT_ENCRYPT) );
; 154  : 		//memcpy( &value, szTempMem, m_ValueSize );
; 155  : 		//UJ --end
; 156  : 
; 157  : #ifdef _NOTUSE
; 158  : 		Debug();
; 159  : #endif
; 160  : 		return value;

  0000d	8b 45 fc	 mov	 eax, DWORD PTR _value$[ebp]

; 161  : 	}

  00010	c9		 leave
  00011	c3		 ret	 0
??B?$CEncrypt@K@@QBEKXZ ENDP				; CEncrypt<unsigned long>::operator unsigned long
_TEXT	ENDS
PUBLIC	??B?$CEncrypt@_N@@QAE_NXZ			; CEncrypt<bool>::operator bool
; Function compile flags: /Ogsp
;	COMDAT ??B?$CEncrypt@_N@@QAE_NXZ
_TEXT	SEGMENT
_value$ = -1						; size = 1
??B?$CEncrypt@_N@@QAE_NXZ PROC				; CEncrypt<bool>::operator bool, COMDAT
; _this$ = ecx

; 134  : 	{

  00000	55		 push	 ebp
  00001	8b ec		 mov	 ebp, esp
  00003	51		 push	 ecx

; 135  : 		type value;
; 136  : 		DecryptValueToPool(&value);

  00004	8d 45 ff	 lea	 eax, DWORD PTR _value$[ebp]
  00007	50		 push	 eax
  00008	e8 00 00 00 00	 call	 ?DecryptValueToPool@?$CEncrypt@_N@@QAEXPA_N@Z ; CEncrypt<bool>::DecryptValueToPool

; 137  : 
; 138  : #ifdef _NOTUSE
; 139  : 		Debug();
; 140  : #endif
; 141  : 		return value;

  0000d	8a 45 ff	 mov	 al, BYTE PTR _value$[ebp]

; 142  : 	}

  00010	c9		 leave
  00011	c3		 ret	 0
??B?$CEncrypt@_N@@QAE_NXZ ENDP				; CEncrypt<bool>::operator bool
_TEXT	ENDS
PUBLIC	??B?$CEncrypt@W4TeamType@@@@QBE?AW4TeamType@@XZ	; CEncrypt<enum TeamType>::operator enum TeamType
; Function compile flags: /Ogsp
;	COMDAT ??B?$CEncrypt@W4TeamType@@@@QBE?AW4TeamType@@XZ
_TEXT	SEGMENT
_value$ = -4						; size = 4
??B?$CEncrypt@W4TeamType@@@@QBE?AW4TeamType@@XZ PROC	; CEncrypt<enum TeamType>::operator enum TeamType, COMDAT
; _this$ = ecx

; 145  : 	{

  00000	55		 push	 ebp
  00001	8b ec		 mov	 ebp, esp
  00003	51		 push	 ecx

; 146  : 		//UJ 130829, const    --start
; 147  : 		type value;
; 148  : 		CEncrypt<type>* pThis = const_cast<CEncrypt<type>*>(this);
; 149  : 		pThis->DecryptValueToPool(&value);

  00004	8d 45 fc	 lea	 eax, DWORD PTR _value$[ebp]
  00007	50		 push	 eax
  00008	e8 00 00 00 00	 call	 ?DecryptValueToPool@?$CEncrypt@W4TeamType@@@@QAEXPAW4TeamType@@@Z ; CEncrypt<enum TeamType>::DecryptValueToPool

; 150  : 		//// const DecryptValueToPool     .
; 151  :  		//type value;
; 152  : 		//char szTempMem[MAX_ENCRYPT];
; 153  : 		//m_RC5.DecryptByte( m_MemPool, szTempMem, max(m_ValueSize, DEFAULT_ENCRYPT) );
; 154  : 		//memcpy( &value, szTempMem, m_ValueSize );
; 155  : 		//UJ --end
; 156  : 
; 157  : #ifdef _NOTUSE
; 158  : 		Debug();
; 159  : #endif
; 160  : 		return value;

  0000d	8b 45 fc	 mov	 eax, DWORD PTR _value$[ebp]

; 161  : 	}

  00010	c9		 leave
  00011	c3		 ret	 0
??B?$CEncrypt@W4TeamType@@@@QBE?AW4TeamType@@XZ ENDP	; CEncrypt<enum TeamType>::operator enum TeamType
_TEXT	ENDS
PUBLIC	??4?$CEncrypt@W4TeamType@@@@QAE?AW4TeamType@@W41@@Z ; CEncrypt<enum TeamType>::operator=
; Function compile flags: /Ogsp
;	COMDAT ??4?$CEncrypt@W4TeamType@@@@QAE?AW4TeamType@@W41@@Z
_TEXT	SEGMENT
_value$ = 8						; size = 4
_inValue$ = 8						; size = 4
??4?$CEncrypt@W4TeamType@@@@QAE?AW4TeamType@@W41@@Z PROC ; CEncrypt<enum TeamType>::operator=, COMDAT
; _this$ = ecx

; 2965 : 	{

  00000	55		 push	 ebp
  00001	8b ec		 mov	 ebp, esp

; 2966 : 		type value = inValue;

  00003	8b 45 08	 mov	 eax, DWORD PTR _inValue$[ebp]
  00006	89 45 08	 mov	 DWORD PTR _value$[ebp], eax

; 2967 : 		EncryptValueToPool((char*)&value);

  00009	8d 45 08	 lea	 eax, DWORD PTR _value$[ebp]
  0000c	50		 push	 eax
  0000d	e8 00 00 00 00	 call	 ?EncryptValueToPool@?$CEncrypt@W4TeamType@@@@AAEXPBD@Z ; CEncrypt<enum TeamType>::EncryptValueToPool

; 2968 : #ifdef _NOTUSE
; 2969 : 		m_value = inValue;
; 2970 : 		Debug();
; 2971 : #endif
; 2972 : 		return value;

  00012	8b 45 08	 mov	 eax, DWORD PTR _value$[ebp]

; 2973 : 	}

  00015	5d		 pop	 ebp
  00016	c2 04 00	 ret	 4
??4?$CEncrypt@W4TeamType@@@@QAE?AW4TeamType@@W41@@Z ENDP ; CEncrypt<enum TeamType>::operator=
_TEXT	ENDS
PUBLIC	?begin@?$vector@VioHashString@@V?$allocator@VioHashString@@@std@@@std@@QAE?AV?$_Vector_iterator@V?$_Vector_val@VioHashString@@V?$allocator@VioHashString@@@std@@@std@@@2@XZ ; std::vector<ioHashString,std::allocator<ioHashString> >::begin
; Function compile flags: /Ogsp
; File c:\program files (x86)\microsoft visual studio 10.0\vc\include\vector
;	COMDAT ?begin@?$vector@VioHashString@@V?$allocator@VioHashString@@@std@@@std@@QAE?AV?$_Vector_iterator@V?$_Vector_val@VioHashString@@V?$allocator@VioHashString@@@std@@@std@@@2@XZ
_TEXT	SEGMENT
___$ReturnUdt$ = 8					; size = 4
?begin@?$vector@VioHashString@@V?$allocator@VioHashString@@@std@@@std@@QAE?AV?$_Vector_iterator@V?$_Vector_val@VioHashString@@V?$allocator@VioHashString@@@std@@@std@@@2@XZ PROC ; std::vector<ioHashString,std::allocator<ioHashString> >::begin, COMDAT
; _this$ = ecx

; 781  : 		{	// return iterator for beginning of mutable sequence

  00000	55		 push	 ebp
  00001	8b ec		 mov	 ebp, esp

; 782  : 		return (iterator(this->_Myfirst, this));

  00003	8b 09		 mov	 ecx, DWORD PTR [ecx]
  00005	8b 45 08	 mov	 eax, DWORD PTR ___$ReturnUdt$[ebp]
  00008	89 08		 mov	 DWORD PTR [eax], ecx

; 783  : 		}

  0000a	5d		 pop	 ebp
  0000b	c2 04 00	 ret	 4
?begin@?$vector@VioHashString@@V?$allocator@VioHashString@@@std@@@std@@QAE?AV?$_Vector_iterator@V?$_Vector_val@VioHashString@@V?$allocator@VioHashString@@@std@@@std@@@2@XZ ENDP ; std::vector<ioHashString,std::allocator<ioHashString> >::begin
_TEXT	ENDS
PUBLIC	?end@?$vector@VioHashString@@V?$allocator@VioHashString@@@std@@@std@@QAE?AV?$_Vector_iterator@V?$_Vector_val@VioHashString@@V?$allocator@VioHashString@@@std@@@std@@@2@XZ ; std::vector<ioHashString,std::allocator<ioHashString> >::end
; Function compile flags: /Ogsp
;	COMDAT ?end@?$vector@VioHashString@@V?$allocator@VioHashString@@@std@@@std@@QAE?AV?$_Vector_iterator@V?$_Vector_val@VioHashString@@V?$allocator@VioHashString@@@std@@@std@@@2@XZ
_TEXT	SEGMENT
___$ReturnUdt$ = 8					; size = 4
?end@?$vector@VioHashString@@V?$allocator@VioHashString@@@std@@@std@@QAE?AV?$_Vector_iterator@V?$_Vector_val@VioHashString@@V?$allocator@VioHashString@@@std@@@std@@@2@XZ PROC ; std::vector<ioHashString,std::allocator<ioHashString> >::end, COMDAT
; _this$ = ecx

; 791  : 		{	// return iterator for end of mutable sequence

  00000	55		 push	 ebp
  00001	8b ec		 mov	 ebp, esp

; 792  : 		return (iterator(this->_Mylast, this));

  00003	8b 49 04	 mov	 ecx, DWORD PTR [ecx+4]
  00006	8b 45 08	 mov	 eax, DWORD PTR ___$ReturnUdt$[ebp]
  00009	89 08		 mov	 DWORD PTR [eax], ecx

; 793  : 		}

  0000b	5d		 pop	 ebp
  0000c	c2 04 00	 ret	 4
?end@?$vector@VioHashString@@V?$allocator@VioHashString@@@std@@@std@@QAE?AV?$_Vector_iterator@V?$_Vector_val@VioHashString@@V?$allocator@VioHashString@@@std@@@std@@@2@XZ ENDP ; std::vector<ioHashString,std::allocator<ioHashString> >::end
_TEXT	ENDS
PUBLIC	??8?$_Vector_const_iterator@V?$_Vector_val@VioHashString@@V?$allocator@VioHashString@@@std@@@std@@@std@@QBE_NABV01@@Z ; std::_Vector_const_iterator<std::_Vector_val<ioHashString,std::allocator<ioHashString> > >::operator==
; Function compile flags: /Ogsp
;	COMDAT ??8?$_Vector_const_iterator@V?$_Vector_val@VioHashString@@V?$allocator@VioHashString@@@std@@@std@@@std@@QBE_NABV01@@Z
_TEXT	SEGMENT
__Right$ = 8						; size = 4
??8?$_Vector_const_iterator@V?$_Vector_val@VioHashString@@V?$allocator@VioHashString@@@std@@@std@@@std@@QBE_NABV01@@Z PROC ; std::_Vector_const_iterator<std::_Vector_val<ioHashString,std::allocator<ioHashString> > >::operator==, COMDAT
; _this$ = ecx

; 201  : 		{	// test for iterator equality

  00000	55		 push	 ebp
  00001	8b ec		 mov	 ebp, esp

; 202  : 		_Compat(_Right);
; 203  : 		return (this->_Ptr == _Right._Ptr);

  00003	8b 01		 mov	 eax, DWORD PTR [ecx]
  00005	8b 4d 08	 mov	 ecx, DWORD PTR __Right$[ebp]
  00008	2b 01		 sub	 eax, DWORD PTR [ecx]
  0000a	f7 d8		 neg	 eax
  0000c	1b c0		 sbb	 eax, eax
  0000e	40		 inc	 eax

; 204  : 		}

  0000f	5d		 pop	 ebp
  00010	c2 04 00	 ret	 4
??8?$_Vector_const_iterator@V?$_Vector_val@VioHashString@@V?$allocator@VioHashString@@@std@@@std@@@std@@QBE_NABV01@@Z ENDP ; std::_Vector_const_iterator<std::_Vector_val<ioHashString,std::allocator<ioHashString> > >::operator==
_TEXT	ENDS
PUBLIC	?GetExperienceMode@ioBaseChar@@QBE?BKXZ		; ioBaseChar::GetExperienceMode
; Function compile flags: /Ogsp
; File d:\lost saga for developer\youtube\tutorial\source\src\lsclient\iobasechar.h
;	COMDAT ?GetExperienceMode@ioBaseChar@@QBE?BKXZ
_TEXT	SEGMENT
_value$532750 = -4					; size = 4
?GetExperienceMode@ioBaseChar@@QBE?BKXZ PROC		; ioBaseChar::GetExperienceMode, COMDAT
; _this$ = ecx

; 3193 : 	inline const DWORD GetExperienceMode() const { return m_ExperienceMode; }

  00000	55		 push	 ebp
  00001	8b ec		 mov	 ebp, esp
  00003	51		 push	 ecx
  00004	8d 45 fc	 lea	 eax, DWORD PTR _value$532750[ebp]
  00007	50		 push	 eax
  00008	81 c1 94 1d 00
	00		 add	 ecx, 7572		; 00001d94H
  0000e	e8 00 00 00 00	 call	 ?DecryptValueToPool@?$CEncrypt@K@@QAEXPAK@Z ; CEncrypt<unsigned long>::DecryptValueToPool
  00013	8b 45 fc	 mov	 eax, DWORD PTR _value$532750[ebp]
  00016	c9		 leave
  00017	c3		 ret	 0
?GetExperienceMode@ioBaseChar@@QBE?BKXZ ENDP		; ioBaseChar::GetExperienceMode
_TEXT	ENDS
PUBLIC	__$ArrayPad$
EXTRN	__imp_??4ioHashString@@QAEAAV0@PBD@Z:PROC
EXTRN	?LoadProperty@ioDummyChar@@UAEXAAVioINILoader@@@Z:PROC ; ioDummyChar::LoadProperty
; Function compile flags: /Ogsp
; File d:\lost saga for developer\youtube\tutorial\source\src\lsclient\iotargettrace11dummy.cpp
;	COMDAT ?LoadProperty@ioTargetTrace11Dummy@@UAEXAAVioINILoader@@@Z
_TEXT	SEGMENT
_szBuf$ = -288						; size = 260
__k$532895 = -28					; size = 19
__k$532770 = -28					; size = 17
__$ArrayPad$ = -4					; size = 4
_rkLoader$ = 8						; size = 4
?LoadProperty@ioTargetTrace11Dummy@@UAEXAAVioINILoader@@@Z PROC ; ioTargetTrace11Dummy::LoadProperty, COMDAT
; _this$ = ecx

; 21   : {

  00000	55		 push	 ebp
  00001	8b ec		 mov	 ebp, esp
  00003	81 ec 20 01 00
	00		 sub	 esp, 288		; 00000120H
  00009	a1 00 00 00 00	 mov	 eax, DWORD PTR ___security_cookie
  0000e	33 c5		 xor	 eax, ebp
  00010	89 45 fc	 mov	 DWORD PTR __$ArrayPad$[ebp], eax
  00013	56		 push	 esi
  00014	57		 push	 edi
  00015	8b 7d 08	 mov	 edi, DWORD PTR _rkLoader$[ebp]

; 22   : 	ioDummyChar::LoadProperty( rkLoader );

  00018	57		 push	 edi
  00019	8b f1		 mov	 esi, ecx
  0001b	e8 00 00 00 00	 call	 ?LoadProperty@ioDummyChar@@UAEXAAVioINILoader@@@Z ; ioDummyChar::LoadProperty

; 23   : 	char szBuf[MAX_PATH];
; 24   : 	rkLoader.LoadString_e( "area_weapon_name", "", szBuf, MAX_PATH );

  00020	6a 04		 push	 4
  00022	c7 45 e4 8c 9e
	8e 8b		 mov	 DWORD PTR __k$532770[ebp], -1953587572 ; 8b8e9e8cH
  00029	c7 45 e8 b2 9b
	8e 8b		 mov	 DWORD PTR __k$532770[ebp+4], -1953588302 ; 8b8e9bb2H
  00030	c7 45 ec 9d 83
	85 b5		 mov	 DWORD PTR __k$532770[ebp+8], -1249541219 ; b585839dH
  00037	c7 45 f0 83 8d
	86 8f		 mov	 DWORD PTR __k$532770[ebp+12], -1887007357 ; 8f868d83H
  0003e	8d 45 e4	 lea	 eax, DWORD PTR __k$532770[ebp]
  00041	c6 45 f4 00	 mov	 BYTE PTR __k$532770[ebp+16], 0
  00045	59		 pop	 ecx
$LL106@LoadProper:
  00046	81 30 ed ec eb
	ea		 xor	 DWORD PTR [eax], -353637139 ; eaebecedH
  0004c	83 c0 04	 add	 eax, 4
  0004f	49		 dec	 ecx
  00050	75 f4		 jne	 SHORT $LL106@LoadProper
  00052	68 04 01 00 00	 push	 260			; 00000104H
  00057	8d 85 e0 fe ff
	ff		 lea	 eax, DWORD PTR _szBuf$[ebp]
  0005d	50		 push	 eax
  0005e	68 00 00 00 00	 push	 OFFSET ??_C@_00CNPNBAHC@?$AA@
  00063	8d 45 e4	 lea	 eax, DWORD PTR __k$532770[ebp]
  00066	50		 push	 eax
  00067	8b cf		 mov	 ecx, edi
  00069	ff 15 00 00 00
	00		 call	 DWORD PTR __imp_?LoadStringA@ioINILoader@@QAEXPBD0PADH@Z

; 25   : 	m_AreaWeaponName = szBuf;

  0006f	8d 85 e0 fe ff
	ff		 lea	 eax, DWORD PTR _szBuf$[ebp]
  00075	50		 push	 eax
  00076	8d 8e 80 14 00
	00		 lea	 ecx, DWORD PTR [esi+5248]
  0007c	ff 15 00 00 00
	00		 call	 DWORD PTR __imp_??4ioHashString@@QAEAAV0@PBD@Z
  00082	6a 04		 push	 4

; 26   : 	m_bAttachAreaWeapon = rkLoader.LoadBool_e( "attach_area_weapon", false );

  00084	c7 45 e4 8c 98
	9f 8b		 mov	 DWORD PTR __k$532895[ebp], -1952474996 ; 8b9f988cH
  0008b	c7 45 e8 8e 84
	b4 8b		 mov	 DWORD PTR __k$532895[ebp+4], -1951103858 ; 8bb4848eH
  00092	c7 45 ec 9f 89
	8a b5		 mov	 DWORD PTR __k$532895[ebp+8], -1249212001 ; b58a899fH
  00099	c7 45 f0 9a 89
	8a 9a		 mov	 DWORD PTR __k$532895[ebp+12], -1702196838 ; 9a8a899aH
  000a0	66 c7 45 f4 82
	82		 mov	 WORD PTR __k$532895[ebp+16], 33410 ; 00008282H
  000a6	8d 45 e4	 lea	 eax, DWORD PTR __k$532895[ebp]
  000a9	c6 45 f6 00	 mov	 BYTE PTR __k$532895[ebp+18], 0
  000ad	59		 pop	 ecx
$LL212@LoadProper:
  000ae	81 30 ed ec eb
	ea		 xor	 DWORD PTR [eax], -353637139 ; eaebecedH
  000b4	83 c0 04	 add	 eax, 4
  000b7	49		 dec	 ecx
  000b8	75 f4		 jne	 SHORT $LL212@LoadProper
  000ba	6a 10		 push	 16			; 00000010H
  000bc	58		 pop	 eax
$LL209@LoadProper:
  000bd	8b c8		 mov	 ecx, eax
  000bf	81 e1 03 00 00
	80		 and	 ecx, -2147483645	; 80000003H
  000c5	79 05		 jns	 SHORT $LN223@LoadProper
  000c7	49		 dec	 ecx
  000c8	83 c9 fc	 or	 ecx, -4			; fffffffcH
  000cb	41		 inc	 ecx
$LN223@LoadProper:
  000cc	b2 ed		 mov	 dl, -19			; ffffffedH
  000ce	2a d1		 sub	 dl, cl
  000d0	30 54 05 e4	 xor	 BYTE PTR __k$532895[ebp+eax], dl
  000d4	40		 inc	 eax
  000d5	83 f8 12	 cmp	 eax, 18			; 00000012H
  000d8	7c e3		 jl	 SHORT $LL209@LoadProper
  000da	6a 00		 push	 0
  000dc	8d 45 e4	 lea	 eax, DWORD PTR __k$532895[ebp]
  000df	50		 push	 eax
  000e0	8b cf		 mov	 ecx, edi
  000e2	ff 15 00 00 00
	00		 call	 DWORD PTR __imp_?LoadBool@ioINILoader@@QAE_NPBD_N@Z

; 27   : }

  000e8	8b 4d fc	 mov	 ecx, DWORD PTR __$ArrayPad$[ebp]
  000eb	5f		 pop	 edi
  000ec	88 86 a0 14 00
	00		 mov	 BYTE PTR [esi+5280], al
  000f2	33 cd		 xor	 ecx, ebp
  000f4	5e		 pop	 esi
  000f5	e8 00 00 00 00	 call	 @__security_check_cookie@4
  000fa	c9		 leave
  000fb	c2 04 00	 ret	 4
?LoadProperty@ioTargetTrace11Dummy@@UAEXAAVioINILoader@@@Z ENDP ; ioTargetTrace11Dummy::LoadProperty
_TEXT	ENDS
EXTRN	?SetTraceState@ioDummyChar@@QAEXW4DummyCharTraceState@1@@Z:PROC ; ioDummyChar::SetTraceState
EXTRN	?SendDieState@ioDummyChar@@QAEX_N@Z:PROC	; ioDummyChar::SendDieState
; Function compile flags: /Ogsp
;	COMDAT ?ProcessDelayState@ioTargetTrace11Dummy@@MAEXM@Z
_TEXT	SEGMENT
_value$533021 = -8					; size = 4
_value$533029 = -1					; size = 1
_fTimePerSec$ = 8					; size = 4
?ProcessDelayState@ioTargetTrace11Dummy@@MAEXM@Z PROC	; ioTargetTrace11Dummy::ProcessDelayState, COMDAT
; _this$ = ecx

; 112  : {

  00000	55		 push	 ebp
  00001	8b ec		 mov	 ebp, esp
  00003	51		 push	 ecx
  00004	51		 push	 ecx
  00005	56		 push	 esi
  00006	57		 push	 edi
  00007	8b f1		 mov	 esi, ecx

; 113  : 	DWORD dwCurTime = FRAMEGETTIME();

  00009	ff 15 00 00 00
	00		 call	 DWORD PTR __imp_?GetSingleton@ioFrameTimer@@SAAAV1@XZ
  0000f	8b c8		 mov	 ecx, eax
  00011	ff 15 00 00 00
	00		 call	 DWORD PTR __imp_?GetLoopSec@ioFrameTimer@@QBEKXZ

; 114  : 	if( m_dwDelayStartTime > 0 && m_dwDelayStartTime+m_dwDelayDuration < dwCurTime )

  00017	83 be 20 02 00
	00 00		 cmp	 DWORD PTR [esi+544], 0
  0001e	8b f8		 mov	 edi, eax
  00020	0f 86 86 00 00
	00		 jbe	 $LN1@ProcessDel
  00026	8d 45 f8	 lea	 eax, DWORD PTR _value$533021[ebp]
  00029	50		 push	 eax
  0002a	8d 8e 3c 07 00
	00		 lea	 ecx, DWORD PTR [esi+1852]
  00030	e8 00 00 00 00	 call	 ?DecryptValueToPool@?$CEncrypt@K@@QAEXPAK@Z ; CEncrypt<unsigned long>::DecryptValueToPool
  00035	8b 86 20 02 00
	00		 mov	 eax, DWORD PTR [esi+544]
  0003b	03 45 f8	 add	 eax, DWORD PTR _value$533021[ebp]
  0003e	3b c7		 cmp	 eax, edi
  00040	73 6a		 jae	 SHORT $LN1@ProcessDel

; 115  : 	{
; 116  : 		m_dwDelayStartTime = 0;
; 117  : 
; 118  : 		if( m_nCanEatCnt && m_nCanEatCnt <= (int)m_vTargetedChar.size() )

  00042	8b 8e 28 0b 00
	00		 mov	 ecx, DWORD PTR [esi+2856]
  00048	83 a6 20 02 00
	00 00		 and	 DWORD PTR [esi+544], 0
  0004f	85 c9		 test	 ecx, ecx
  00051	74 37		 je	 SHORT $LN3@ProcessDel
  00053	8b 96 1c 0b 00
	00		 mov	 edx, DWORD PTR [esi+2844]
  00059	2b 96 18 0b 00
	00		 sub	 edx, DWORD PTR [esi+2840]
  0005f	c1 fa 04	 sar	 edx, 4
  00062	3b ca		 cmp	 ecx, edx
  00064	7f 24		 jg	 SHORT $LN3@ProcessDel

; 119  : 		{
; 120  : 			ioBaseChar *pOwner = GetOwner();

  00066	8b ce		 mov	 ecx, esi
  00068	e8 00 00 00 00	 call	 ?GetOwner@ioDummyChar@@QBEPAVioBaseChar@@XZ ; ioDummyChar::GetOwner

; 121  : 			if( pOwner && pOwner->IsNeedProcess() )

  0006d	85 c0		 test	 eax, eax
  0006f	74 19		 je	 SHORT $LN3@ProcessDel
  00071	8b 10		 mov	 edx, DWORD PTR [eax]
  00073	8b c8		 mov	 ecx, eax
  00075	ff 92 00 01 00
	00		 call	 DWORD PTR [edx+256]
  0007b	84 c0		 test	 al, al
  0007d	74 0b		 je	 SHORT $LN3@ProcessDel

; 122  : 			{
; 123  : 				SendDieState( true );

  0007f	6a 01		 push	 1
  00081	8b ce		 mov	 ecx, esi
  00083	e8 00 00 00 00	 call	 ?SendDieState@ioDummyChar@@QAEX_N@Z ; ioDummyChar::SendDieState

; 124  : 				return;

  00088	eb 22		 jmp	 SHORT $LN1@ProcessDel
$LN3@ProcessDel:

; 125  : 			}
; 126  : 		}
; 127  : 
; 128  : 		if ( !m_bFindTargetAttack )

  0008a	8d 45 ff	 lea	 eax, DWORD PTR _value$533029[ebp]
  0008d	50		 push	 eax
  0008e	8d 8e 48 0b 00
	00		 lea	 ecx, DWORD PTR [esi+2888]
  00094	e8 00 00 00 00	 call	 ?DecryptValueToPool@?$CEncrypt@_N@@QAEXPA_N@Z ; CEncrypt<bool>::DecryptValueToPool
  00099	80 7d ff 00	 cmp	 BYTE PTR _value$533029[ebp], 0

; 129  : 		{
; 130  : 			SetTraceState( DCTS_SENSING );

  0009d	8b ce		 mov	 ecx, esi
  0009f	75 04		 jne	 SHORT $LN2@ProcessDel
  000a1	6a 02		 push	 2

; 131  : 		}
; 132  : 		else

  000a3	eb 02		 jmp	 SHORT $LN14@ProcessDel
$LN2@ProcessDel:

; 133  : 			SetTraceState( DCTS_TARGET_JUMP );

  000a5	6a 05		 push	 5
$LN14@ProcessDel:
  000a7	e8 00 00 00 00	 call	 ?SetTraceState@ioDummyChar@@QAEXW4DummyCharTraceState@1@@Z ; ioDummyChar::SetTraceState
$LN1@ProcessDel:
  000ac	5f		 pop	 edi
  000ad	5e		 pop	 esi

; 134  : 	}
; 135  : }

  000ae	c9		 leave
  000af	c2 04 00	 ret	 4
?ProcessDelayState@ioTargetTrace11Dummy@@MAEXM@Z ENDP	; ioTargetTrace11Dummy::ProcessDelayState
_TEXT	ENDS
PUBLIC	__real@bff0000000000000
PUBLIC	__real@00000000
PUBLIC	__real@4076800000000000
PUBLIC	__real@408f400000000000
PUBLIC	__real@4f800000
PUBLIC	__real@bf800000
PUBLIC	__$ArrayPad$
PUBLIC	?OnProcessTraceTracing@ioTargetTrace11Dummy@@IAEXM@Z ; ioTargetTrace11Dummy::OnProcessTraceTracing
EXTRN	?ProcessTraceMoving@ioDummyChar@@IAEXPAVioPlayStage@@MM@Z:PROC ; ioDummyChar::ProcessTraceMoving
EXTRN	__imp_?Clear@ioHashString@@QAEXXZ:PROC
EXTRN	_D3DXQuaternionRotationYawPitchRoll@16:PROC
EXTRN	__imp_?AngleGap@ioMath@@SAMMM@Z:PROC
EXTRN	__imp_?ArrangeHead@ioMath@@SAMM@Z:PROC
EXTRN	__imp_?QuaterToYaw@ioMath@@SAMABUD3DXQUATERNION@@@Z:PROC
EXTRN	__imp_?CalcDirectionQuaternion@ioMath@@SAXAAUD3DXQUATERNION@@ABUD3DXVECTOR3@@@Z:PROC
EXTRN	?SetTraceWaitState@ioDummyChar@@QAEXXZ:PROC	; ioDummyChar::SetTraceWaitState
EXTRN	?IsTargetWoundedState@ioDummyChar@@QAE_NPAVioBaseChar@@@Z:PROC ; ioDummyChar::IsTargetWoundedState
EXTRN	?GetBaseChar@ioPlayStage@@QAEPAVioBaseChar@@ABVioHashString@@@Z:PROC ; ioPlayStage::GetBaseChar
EXTRN	?FindTraceTarget@ioDummyChar@@IAEXPAVioPlayStage@@@Z:PROC ; ioDummyChar::FindTraceTarget
EXTRN	?CheckTraceTarget@ioDummyChar@@IAEXPAVioPlayStage@@@Z:PROC ; ioDummyChar::CheckTraceTarget
EXTRN	?GetMidPositionByRate@ioGameEntity@@QBE?AUD3DXVECTOR3@@M@Z:PROC ; ioGameEntity::GetMidPositionByRate
EXTRN	_D3DXVec3Normalize@8:PROC
EXTRN	__imp_??D@YA?AUD3DXVECTOR3@@ABUD3DXQUATERNION@@ABU0@@Z:PROC
;	COMDAT __real@bff0000000000000
; File d:\lost saga for developer\youtube\tutorial\source\src\lsclient\encryptvalue.h
CONST	SEGMENT
__real@bff0000000000000 DQ 0bff0000000000000r	; -1
CONST	ENDS
;	COMDAT __real@00000000
CONST	SEGMENT
__real@00000000 DD 000000000r			; 0
CONST	ENDS
;	COMDAT __real@4076800000000000
CONST	SEGMENT
__real@4076800000000000 DQ 04076800000000000r	; 360
CONST	ENDS
;	COMDAT __real@408f400000000000
CONST	SEGMENT
__real@408f400000000000 DQ 0408f400000000000r	; 1000
CONST	ENDS
;	COMDAT __real@4f800000
CONST	SEGMENT
__real@4f800000 DD 04f800000r			; 4.29497e+009
CONST	ENDS
;	COMDAT __real@bf800000
CONST	SEGMENT
__real@bf800000 DD 0bf800000r			; -1
; Function compile flags: /Ogsp
; File d:\lost saga for developer\youtube\tutorial\source\src\lsclient\iotargettrace11dummy.cpp
CONST	ENDS
;	COMDAT ?OnProcessTraceTracing@ioTargetTrace11Dummy@@IAEXM@Z
_TEXT	SEGMENT
_qtNewRot$530922 = -116					; size = 16
_qtRot$530901 = -100					; size = 16
_qtRotate$530913 = -84					; size = 16
_pStage$ = -68						; size = 4
_fRotateAngle$530910 = -64				; size = 4
_value$533072 = -60					; size = 4
_fTargetYaw$530918 = -60				; size = 4
_fAngleGap$530904 = -60					; size = 4
tv1017 = -56						; size = 4
tv1012 = -56						; size = 4
tv1008 = -56						; size = 4
tv953 = -56						; size = 4
tv946 = -56						; size = 4
tv937 = -56						; size = 4
tv935 = -56						; size = 4
tv869 = -56						; size = 4
_value$533135 = -56					; size = 4
_value$533106 = -56					; size = 4
_value$533080 = -56					; size = 4
_value$533076 = -56					; size = 4
_value$533053 = -56					; size = 4
$T533102 = -56						; size = 4
_fCurYaw$530917 = -56					; size = 4
_pTarget$530889 = -56					; size = 4
_vCurPos$ = -52						; size = 12
_vCurDir$ = -40						; size = 12
_vTargetDir$530898 = -28				; size = 12
_vPrePos$530892 = -28					; size = 12
$T530927 = -16						; size = 12
$T530914 = -16						; size = 12
$T530902 = -16						; size = 12
_vDiff$530893 = -16					; size = 12
$T530884 = -16						; size = 12
__$ArrayPad$ = -4					; size = 4
_fTimePerSec$ = 8					; size = 4
?OnProcessTraceTracing@ioTargetTrace11Dummy@@IAEXM@Z PROC ; ioTargetTrace11Dummy::OnProcessTraceTracing, COMDAT
; _this$ = ecx

; 208  : {

  00000	55		 push	 ebp
  00001	8b ec		 mov	 ebp, esp
  00003	83 ec 74	 sub	 esp, 116		; 00000074H
  00006	a1 00 00 00 00	 mov	 eax, DWORD PTR ___security_cookie
  0000b	33 c5		 xor	 eax, ebp
  0000d	89 45 fc	 mov	 DWORD PTR __$ArrayPad$[ebp], eax
  00010	53		 push	 ebx
  00011	8b d9		 mov	 ebx, ecx

; 209  : 	ioBaseChar *pOwner = GetOwner();

  00013	e8 00 00 00 00	 call	 ?GetOwner@ioDummyChar@@QBEPAVioBaseChar@@XZ ; ioDummyChar::GetOwner

; 210  : 	if( !pOwner ) 

  00018	85 c0		 test	 eax, eax
  0001a	0f 84 b4 04 00
	00		 je	 $LN16@OnProcessT

; 211  : 		return;
; 212  : 
; 213  : 	ioPlayStage *pStage = pOwner->GetCreator();

  00020	57		 push	 edi
  00021	8b b8 44 03 00
	00		 mov	 edi, DWORD PTR [eax+836]
  00027	89 7d bc	 mov	 DWORD PTR _pStage$[ebp], edi

; 214  : 	if( !pStage ) 

  0002a	85 ff		 test	 edi, edi
  0002c	0f 84 a1 04 00
	00		 je	 $LN68@OnProcessT

; 215  : 		return;
; 216  : 
; 217  : 	DWORD dwCurTime = FRAMEGETTIME();

  00032	56		 push	 esi
  00033	ff 15 00 00 00
	00		 call	 DWORD PTR __imp_?GetSingleton@ioFrameTimer@@SAAAV1@XZ
  00039	8b c8		 mov	 ecx, eax
  0003b	ff 15 00 00 00
	00		 call	 DWORD PTR __imp_?GetLoopSec@ioFrameTimer@@QBEKXZ

; 218  : 
; 219  : 	D3DXVECTOR3 vCurDir = GetWorldOrientation() * D3DXVECTOR3( 0.0f, 0.0f, -1.0f );

  00041	0f 57 c0	 xorps	 xmm0, xmm0
  00044	8b f0		 mov	 esi, eax
  00046	8d 45 f0	 lea	 eax, DWORD PTR $T530884[ebp]
  00049	f3 0f 11 45 f0	 movss	 DWORD PTR $T530884[ebp], xmm0
  0004e	f3 0f 11 45 f4	 movss	 DWORD PTR $T530884[ebp+4], xmm0
  00053	f3 0f 10 05 00
	00 00 00	 movss	 xmm0, DWORD PTR __real@bf800000
  0005b	50		 push	 eax
  0005c	8b 03		 mov	 eax, DWORD PTR [ebx]
  0005e	8b cb		 mov	 ecx, ebx
  00060	f3 0f 11 45 f8	 movss	 DWORD PTR $T530884[ebp+8], xmm0
  00065	ff 50 74	 call	 DWORD PTR [eax+116]
  00068	50		 push	 eax
  00069	8d 45 d8	 lea	 eax, DWORD PTR _vCurDir$[ebp]
  0006c	50		 push	 eax
  0006d	ff 15 00 00 00
	00		 call	 DWORD PTR __imp_??D@YA?AUD3DXVECTOR3@@ABUD3DXQUATERNION@@ABU0@@Z
  00073	83 c4 0c	 add	 esp, 12			; 0000000cH

; 220  : 	D3DXVec3Normalize( &vCurDir, &vCurDir );

  00076	8d 45 d8	 lea	 eax, DWORD PTR _vCurDir$[ebp]
  00079	50		 push	 eax
  0007a	50		 push	 eax
  0007b	e8 00 00 00 00	 call	 _D3DXVec3Normalize@8

; 221  : 
; 222  : 	D3DXVECTOR3 vCurPos = GetMidPositionByRate();

  00080	b8 05 00 00 00	 mov	 eax, 5
  00085	8b c8		 mov	 ecx, eax
  00087	b8 0a 00 00 00	 mov	 eax, 10			; 0000000aH
  0008c	89 4d c8	 mov	 DWORD PTR tv1017[ebp], ecx
  0008f	db 45 c8	 fild	 DWORD PTR tv1017[ebp]
  00092	85 c9		 test	 ecx, ecx
  00094	79 06		 jns	 SHORT $LN70@OnProcessT
  00096	d8 05 00 00 00
	00		 fadd	 DWORD PTR __real@4f800000
$LN70@OnProcessT:
  0009c	89 45 c8	 mov	 DWORD PTR tv1012[ebp], eax
  0009f	db 45 c8	 fild	 DWORD PTR tv1012[ebp]
  000a2	85 c0		 test	 eax, eax
  000a4	79 06		 jns	 SHORT $LN71@OnProcessT
  000a6	d8 05 00 00 00
	00		 fadd	 DWORD PTR __real@4f800000
$LN71@OnProcessT:
  000ac	de f9		 fdivp	 ST(1), ST(0)
  000ae	51		 push	 ecx
  000af	8d 45 cc	 lea	 eax, DWORD PTR _vCurPos$[ebp]
  000b2	8b cb		 mov	 ecx, ebx
  000b4	d9 5d c8	 fstp	 DWORD PTR tv1008[ebp]
  000b7	d9 45 c8	 fld	 DWORD PTR tv1008[ebp]
  000ba	d9 1c 24	 fstp	 DWORD PTR [esp]
  000bd	50		 push	 eax
  000be	e8 00 00 00 00	 call	 ?GetMidPositionByRate@ioGameEntity@@QBE?AUD3DXVECTOR3@@M@Z ; ioGameEntity::GetMidPositionByRate

; 223  : 
; 224  : 	if( m_dwTracingEndTime > dwCurTime )

  000c3	8d 45 c8	 lea	 eax, DWORD PTR _value$533053[ebp]
  000c6	50		 push	 eax
  000c7	8d 8b a8 0a 00
	00		 lea	 ecx, DWORD PTR [ebx+2728]
  000cd	e8 00 00 00 00	 call	 ?DecryptValueToPool@?$CEncrypt@K@@QAEXPAK@Z ; CEncrypt<unsigned long>::DecryptValueToPool

; 225  : 	{
; 226  : 		CheckTraceTarget( pStage );

  000d2	8b cb		 mov	 ecx, ebx
  000d4	39 75 c8	 cmp	 DWORD PTR _value$533053[ebp], esi
  000d7	0f 86 ee 03 00
	00		 jbe	 $LN13@OnProcessT
  000dd	57		 push	 edi
  000de	e8 00 00 00 00	 call	 ?CheckTraceTarget@ioDummyChar@@IAEXPAVioPlayStage@@@Z ; ioDummyChar::CheckTraceTarget

; 227  : 		FindTraceTarget( pStage );

  000e3	57		 push	 edi
  000e4	8b cb		 mov	 ecx, ebx
  000e6	e8 00 00 00 00	 call	 ?FindTraceTarget@ioDummyChar@@IAEXPAVioPlayStage@@@Z ; ioDummyChar::FindTraceTarget

; 228  : 
; 229  : 		ioBaseChar *pTarget = pStage->GetBaseChar( m_TargetTraceName );		

  000eb	8d b3 d8 0a 00
	00		 lea	 esi, DWORD PTR [ebx+2776]
  000f1	56		 push	 esi
  000f2	8b cf		 mov	 ecx, edi
  000f4	e8 00 00 00 00	 call	 ?GetBaseChar@ioPlayStage@@QAEPAVioBaseChar@@ABVioHashString@@@Z ; ioPlayStage::GetBaseChar

; 230  : 		if( !IsTargetWoundedState( pTarget ) )

  000f9	50		 push	 eax
  000fa	8b cb		 mov	 ecx, ebx
  000fc	89 45 c8	 mov	 DWORD PTR _pTarget$530889[ebp], eax
  000ff	e8 00 00 00 00	 call	 ?IsTargetWoundedState@ioDummyChar@@QAE_NPAVioBaseChar@@@Z ; ioDummyChar::IsTargetWoundedState
  00104	84 c0		 test	 al, al
  00106	75 0c		 jne	 SHORT $LN12@OnProcessT

; 231  : 		{
; 232  : 			SetTraceWaitState();

  00108	8b cb		 mov	 ecx, ebx
  0010a	e8 00 00 00 00	 call	 ?SetTraceWaitState@ioDummyChar@@QAEXXZ ; ioDummyChar::SetTraceWaitState

; 233  : 			return;

  0010f	e9 be 03 00 00	 jmp	 $LN69@OnProcessT
$LN12@OnProcessT:

; 234  : 		}
; 235  : 
; 236  : 		if( pTarget )

  00114	83 7d c8 00	 cmp	 DWORD PTR _pTarget$530889[ebp], 0
  00118	0f 84 65 03 00
	00		 je	 $LN11@OnProcessT

; 237  : 		{
; 238  : 			D3DXVECTOR3 vPrePos = GetWorldPosition();

  0011e	8b 03		 mov	 eax, DWORD PTR [ebx]
  00120	8b cb		 mov	 ecx, ebx
  00122	ff 50 70	 call	 DWORD PTR [eax+112]

; 239  : 			D3DXVECTOR3 vDiff = pTarget->GetWorldPosition() - vPrePos;

  00125	8b 4d c8	 mov	 ecx, DWORD PTR _pTarget$530889[ebp]
  00128	8b f0		 mov	 esi, eax
  0012a	8b 01		 mov	 eax, DWORD PTR [ecx]
  0012c	8d 7d e4	 lea	 edi, DWORD PTR _vPrePos$530892[ebp]
  0012f	a5		 movsd
  00130	a5		 movsd
  00131	a5		 movsd
  00132	ff 50 70	 call	 DWORD PTR [eax+112]
  00135	f3 0f 10 00	 movss	 xmm0, DWORD PTR [eax]
  00139	f3 0f 10 4d e4	 movss	 xmm1, DWORD PTR _vPrePos$530892[ebp]
  0013e	0f 5a c0	 cvtps2pd xmm0, xmm0
  00141	0f 5a c9	 cvtps2pd xmm1, xmm1
  00144	f2 0f 5c c1	 subsd	 xmm0, xmm1
  00148	f3 0f 10 4d e8	 movss	 xmm1, DWORD PTR _vPrePos$530892[ebp+4]
  0014d	66 0f 5a c0	 cvtpd2ps xmm0, xmm0
  00151	f3 0f 11 45 f0	 movss	 DWORD PTR _vDiff$530893[ebp], xmm0
  00156	f3 0f 10 40 04	 movss	 xmm0, DWORD PTR [eax+4]
  0015b	0f 5a c0	 cvtps2pd xmm0, xmm0
  0015e	0f 5a c9	 cvtps2pd xmm1, xmm1
  00161	f2 0f 5c c1	 subsd	 xmm0, xmm1
  00165	f3 0f 10 4d ec	 movss	 xmm1, DWORD PTR _vPrePos$530892[ebp+8]
  0016a	66 0f 5a c0	 cvtpd2ps xmm0, xmm0
  0016e	f3 0f 11 45 f4	 movss	 DWORD PTR _vDiff$530893[ebp+4], xmm0
  00173	f3 0f 10 40 08	 movss	 xmm0, DWORD PTR [eax+8]
  00178	0f 5a c0	 cvtps2pd xmm0, xmm0
  0017b	0f 5a c9	 cvtps2pd xmm1, xmm1

; 240  : 
; 241  : 			float fRangeSq = D3DXVec3LengthSq( & vDiff );
; 242  : 			if( fRangeSq < m_fTraceRange * m_fTraceRange )

  0017e	8d 45 c4	 lea	 eax, DWORD PTR _value$533072[ebp]
  00181	f2 0f 5c c1	 subsd	 xmm0, xmm1
  00185	66 0f 5a c0	 cvtpd2ps xmm0, xmm0
  00189	50		 push	 eax
  0018a	8d 8b 1c 09 00
	00		 lea	 ecx, DWORD PTR [ebx+2332]
  00190	f3 0f 11 45 f8	 movss	 DWORD PTR _vDiff$530893[ebp+8], xmm0
  00195	e8 00 00 00 00	 call	 ?DecryptValueToPool@?$CEncrypt@M@@QAEXPAM@Z ; CEncrypt<float>::DecryptValueToPool
  0019a	8d 45 c8	 lea	 eax, DWORD PTR _value$533076[ebp]
  0019d	50		 push	 eax
  0019e	8d 8b 1c 09 00
	00		 lea	 ecx, DWORD PTR [ebx+2332]
  001a4	e8 00 00 00 00	 call	 ?DecryptValueToPool@?$CEncrypt@M@@QAEXPAM@Z ; CEncrypt<float>::DecryptValueToPool
  001a9	f3 0f 10 45 f0	 movss	 xmm0, DWORD PTR _vDiff$530893[ebp]
  001ae	f3 0f 10 4d f4	 movss	 xmm1, DWORD PTR _vDiff$530893[ebp+4]
  001b3	f3 0f 10 55 f8	 movss	 xmm2, DWORD PTR _vDiff$530893[ebp+8]
  001b8	0f 5a c9	 cvtps2pd xmm1, xmm1
  001bb	f2 0f 59 c9	 mulsd	 xmm1, xmm1
  001bf	0f 5a c0	 cvtps2pd xmm0, xmm0
  001c2	f2 0f 59 c0	 mulsd	 xmm0, xmm0
  001c6	f2 0f 58 c8	 addsd	 xmm1, xmm0
  001ca	0f 5a d2	 cvtps2pd xmm2, xmm2
  001cd	f2 0f 59 d2	 mulsd	 xmm2, xmm2
  001d1	f2 0f 58 ca	 addsd	 xmm1, xmm2
  001d5	f3 0f 10 55 c4	 movss	 xmm2, DWORD PTR _value$533072[ebp]
  001da	0f 57 c0	 xorps	 xmm0, xmm0
  001dd	f2 0f 5a c1	 cvtsd2ss xmm0, xmm1
  001e1	f3 0f 10 4d c8	 movss	 xmm1, DWORD PTR _value$533076[ebp]
  001e6	0f 5a c9	 cvtps2pd xmm1, xmm1
  001e9	0f 5a d2	 cvtps2pd xmm2, xmm2
  001ec	f2 0f 59 ca	 mulsd	 xmm1, xmm2
  001f0	66 0f 5a c9	 cvtpd2ps xmm1, xmm1
  001f4	0f 5a c0	 cvtps2pd xmm0, xmm0
  001f7	f3 0f 5a c9	 cvtss2sd xmm1, xmm1
  001fb	66 0f 2f c8	 comisd	 xmm1, xmm0
  001ff	0f 86 86 02 00
	00		 jbe	 $LN67@OnProcessT

; 243  : 			{
; 244  : 				D3DXVECTOR3 vTargetDir = vDiff;
; 245  : 				vTargetDir.y = 0;

  00205	0f 57 c0	 xorps	 xmm0, xmm0
  00208	8d 75 f0	 lea	 esi, DWORD PTR _vDiff$530893[ebp]
  0020b	8d 7d e4	 lea	 edi, DWORD PTR _vTargetDir$530898[ebp]
  0020e	a5		 movsd
  0020f	a5		 movsd

; 246  : 				D3DXVec3Normalize( &vTargetDir, &vTargetDir );

  00210	8d 45 e4	 lea	 eax, DWORD PTR _vTargetDir$530898[ebp]
  00213	50		 push	 eax
  00214	a5		 movsd
  00215	50		 push	 eax
  00216	f3 0f 11 45 e8	 movss	 DWORD PTR _vTargetDir$530898[ebp+4], xmm0
  0021b	e8 00 00 00 00	 call	 _D3DXVec3Normalize@8

; 247  : 
; 248  : 				if( m_dwRotateSpeed > 0 )

  00220	8d 45 c8	 lea	 eax, DWORD PTR _value$533080[ebp]
  00223	8d 8b 9c 07 00
	00		 lea	 ecx, DWORD PTR [ebx+1948]
  00229	50		 push	 eax
  0022a	e8 00 00 00 00	 call	 ?DecryptValueToPool@?$CEncrypt@K@@QAEXPAK@Z ; CEncrypt<unsigned long>::DecryptValueToPool
  0022f	83 7d c8 00	 cmp	 DWORD PTR _value$533080[ebp], 0
  00233	0f 86 3c 02 00
	00		 jbe	 $LN9@OnProcessT

; 249  : 				{
; 250  : 					D3DXQUATERNION	qtRot;
; 251  : 					ioMath::CalcDirectionQuaternion( qtRot, -vTargetDir );

  00239	f3 0f 10 05 00
	00 00 00	 movss	 xmm0, DWORD PTR __mask@@NegFloat@
  00241	f3 0f 10 4d e4	 movss	 xmm1, DWORD PTR _vTargetDir$530898[ebp]
  00246	8b 35 00 00 00
	00		 mov	 esi, DWORD PTR __imp_?CalcDirectionQuaternion@ioMath@@SAXAAUD3DXQUATERNION@@ABUD3DXVECTOR3@@@Z
  0024c	0f 57 c8	 xorps	 xmm1, xmm0
  0024f	f3 0f 11 4d f0	 movss	 DWORD PTR $T530902[ebp], xmm1
  00254	f3 0f 10 4d e8	 movss	 xmm1, DWORD PTR _vTargetDir$530898[ebp+4]
  00259	0f 57 c8	 xorps	 xmm1, xmm0
  0025c	8d 45 f0	 lea	 eax, DWORD PTR $T530902[ebp]
  0025f	50		 push	 eax
  00260	f3 0f 11 4d f4	 movss	 DWORD PTR $T530902[ebp+4], xmm1
  00265	f3 0f 10 4d ec	 movss	 xmm1, DWORD PTR _vTargetDir$530898[ebp+8]
  0026a	8d 45 9c	 lea	 eax, DWORD PTR _qtRot$530901[ebp]
  0026d	0f 57 c8	 xorps	 xmm1, xmm0
  00270	50		 push	 eax
  00271	f3 0f 11 4d f8	 movss	 DWORD PTR $T530902[ebp+8], xmm1
  00276	ff d6		 call	 esi

; 252  : 
; 253  : 					float fAngle = D3DXVec3Dot( &vTargetDir, &m_vTracingMoveDir );

  00278	8d bb 6c 0a 00
	00		 lea	 edi, DWORD PTR [ebx+2668]

; 254  : 
; 255  : 					float fAngleGap = RADtoDEG( acosf(fAngle) );

  0027e	d9 47 04	 fld	 DWORD PTR [edi+4]
  00281	59		 pop	 ecx
  00282	d8 4d e8	 fmul	 DWORD PTR _vTargetDir$530898[ebp+4]
  00285	59		 pop	 ecx
  00286	d9 07		 fld	 DWORD PTR [edi]
  00288	d8 4d e4	 fmul	 DWORD PTR _vTargetDir$530898[ebp]
  0028b	de c1		 faddp	 ST(1), ST(0)
  0028d	d9 47 08	 fld	 DWORD PTR [edi+8]
  00290	d8 4d ec	 fmul	 DWORD PTR _vTargetDir$530898[ebp+8]
  00293	de c1		 faddp	 ST(1), ST(0)
  00295	d9 5d c8	 fstp	 DWORD PTR tv953[ebp]
  00298	d9 45 c8	 fld	 DWORD PTR tv953[ebp]
  0029b	e8 00 00 00 00	 call	 __CIacos
  002a0	d9 5d c8	 fstp	 DWORD PTR tv946[ebp]
  002a3	d9 45 c8	 fld	 DWORD PTR tv946[ebp]
  002a6	51		 push	 ecx
  002a7	d9 5d c8	 fstp	 DWORD PTR $T533102[ebp]
  002aa	f3 0f 10 45 c8	 movss	 xmm0, DWORD PTR $T533102[ebp]
  002af	f3 0f 11 04 24	 movss	 DWORD PTR [esp], xmm0
  002b4	e8 00 00 00 00	 call	 ??$RADtoDEG@M@@YAMM@Z	; RADtoDEG<float>
  002b9	d9 5d c4	 fstp	 DWORD PTR _fAngleGap$530904[ebp]
  002bc	59		 pop	 ecx

; 256  : 					float fRate = (fTimePerSec*1000) / m_dwRotateSpeed;

  002bd	8d 45 c8	 lea	 eax, DWORD PTR _value$533106[ebp]
  002c0	50		 push	 eax
  002c1	8d 8b 9c 07 00
	00		 lea	 ecx, DWORD PTR [ebx+1948]
  002c7	e8 00 00 00 00	 call	 ?DecryptValueToPool@?$CEncrypt@K@@QAEXPAK@Z ; CEncrypt<unsigned long>::DecryptValueToPool

; 257  : 					float fRotateAngle = 360.0f * fRate;

  002cc	d9 45 08	 fld	 DWORD PTR _fTimePerSec$[ebp]
  002cf	8b 45 c8	 mov	 eax, DWORD PTR _value$533106[ebp]
  002d2	dc 0d 00 00 00
	00		 fmul	 QWORD PTR __real@408f400000000000
  002d8	db 45 c8	 fild	 DWORD PTR _value$533106[ebp]
  002db	85 c0		 test	 eax, eax
  002dd	79 06		 jns	 SHORT $LN72@OnProcessT
  002df	d8 05 00 00 00
	00		 fadd	 DWORD PTR __real@4f800000
$LN72@OnProcessT:

; 256  : 					float fRate = (fTimePerSec*1000) / m_dwRotateSpeed;

  002e5	de f9		 fdivp	 ST(1), ST(0)

; 257  : 					float fRotateAngle = 360.0f * fRate;

  002e7	d9 5d c8	 fstp	 DWORD PTR tv935[ebp]
  002ea	d9 45 c8	 fld	 DWORD PTR tv935[ebp]
  002ed	dc 0d 00 00 00
	00		 fmul	 QWORD PTR __real@4076800000000000
  002f3	d9 5d c0	 fstp	 DWORD PTR _fRotateAngle$530910[ebp]

; 258  : 
; 259  : 					if( fAngleGap < fRotateAngle )

  002f6	d9 45 c4	 fld	 DWORD PTR _fAngleGap$530904[ebp]
  002f9	d9 45 c0	 fld	 DWORD PTR _fRotateAngle$530910[ebp]
  002fc	df f1		 fcomip	 ST(1)
  002fe	dd d8		 fstp	 ST(0)

; 260  : 					{
; 261  : 						m_vTracingMoveDir = vTargetDir;
; 262  : 					}
; 263  : 					else

  00300	0f 87 75 01 00
	00		 ja	 $LN74@OnProcessT

; 264  : 					{
; 265  : 						D3DXQUATERNION qtRotate;
; 266  : 						ioMath::CalcDirectionQuaternion( qtRotate, -m_vTracingMoveDir );

  00306	f3 0f 10 05 00
	00 00 00	 movss	 xmm0, DWORD PTR __mask@@NegFloat@
  0030e	f3 0f 10 0f	 movss	 xmm1, DWORD PTR [edi]
  00312	0f 57 c8	 xorps	 xmm1, xmm0
  00315	f3 0f 11 4d f0	 movss	 DWORD PTR $T530914[ebp], xmm1
  0031a	f3 0f 10 4f 04	 movss	 xmm1, DWORD PTR [edi+4]
  0031f	0f 57 c8	 xorps	 xmm1, xmm0
  00322	8d 45 f0	 lea	 eax, DWORD PTR $T530914[ebp]
  00325	50		 push	 eax
  00326	f3 0f 11 4d f4	 movss	 DWORD PTR $T530914[ebp+4], xmm1
  0032b	f3 0f 10 4f 08	 movss	 xmm1, DWORD PTR [edi+8]
  00330	8d 45 ac	 lea	 eax, DWORD PTR _qtRotate$530913[ebp]
  00333	0f 57 c8	 xorps	 xmm1, xmm0
  00336	50		 push	 eax
  00337	f3 0f 11 4d f8	 movss	 DWORD PTR $T530914[ebp+8], xmm1
  0033c	ff d6		 call	 esi

; 267  : 
; 268  : 						bool bLeftRot = false;
; 269  : 						if( D3DXVec3Dot( &vTargetDir, &m_vTracingMoveDir ) > -1.0f )

  0033e	f3 0f 10 47 04	 movss	 xmm0, DWORD PTR [edi+4]
  00343	f3 0f 10 4d e8	 movss	 xmm1, DWORD PTR _vTargetDir$530898[ebp+4]
  00348	f3 0f 10 55 e4	 movss	 xmm2, DWORD PTR _vTargetDir$530898[ebp]
  0034d	0f 5a c9	 cvtps2pd xmm1, xmm1
  00350	0f 5a c0	 cvtps2pd xmm0, xmm0
  00353	f2 0f 59 c1	 mulsd	 xmm0, xmm1
  00357	f3 0f 10 0f	 movss	 xmm1, DWORD PTR [edi]
  0035b	0f 5a c9	 cvtps2pd xmm1, xmm1
  0035e	0f 5a d2	 cvtps2pd xmm2, xmm2
  00361	f2 0f 59 ca	 mulsd	 xmm1, xmm2
  00365	f3 0f 10 55 ec	 movss	 xmm2, DWORD PTR _vTargetDir$530898[ebp+8]
  0036a	f2 0f 58 c1	 addsd	 xmm0, xmm1
  0036e	f3 0f 10 4f 08	 movss	 xmm1, DWORD PTR [edi+8]
  00373	0f 5a c9	 cvtps2pd xmm1, xmm1
  00376	0f 5a d2	 cvtps2pd xmm2, xmm2
  00379	f2 0f 59 ca	 mulsd	 xmm1, xmm2
  0037d	f2 0f 58 c1	 addsd	 xmm0, xmm1
  00381	59		 pop	 ecx
  00382	66 0f 5a c0	 cvtpd2ps xmm0, xmm0
  00386	0f 2f 05 00 00
	00 00		 comiss	 xmm0, DWORD PTR __real@bf800000
  0038d	59		 pop	 ecx
  0038e	0f 86 8c 00 00
	00		 jbe	 $LN66@OnProcessT

; 270  : 						{
; 271  : 							float fCurYaw, fTargetYaw;
; 272  : 							fCurYaw = RADtoDEG( ioMath::QuaterToYaw( qtRotate ) );

  00394	8d 45 ac	 lea	 eax, DWORD PTR _qtRotate$530913[ebp]
  00397	50		 push	 eax
  00398	ff 15 00 00 00
	00		 call	 DWORD PTR __imp_?QuaterToYaw@ioMath@@SAMABUD3DXQUATERNION@@@Z
  0039e	d9 1c 24	 fstp	 DWORD PTR [esp]
  003a1	e8 00 00 00 00	 call	 ??$RADtoDEG@M@@YAMM@Z	; RADtoDEG<float>
  003a6	d9 5d c8	 fstp	 DWORD PTR _fCurYaw$530917[ebp]

; 273  : 							fTargetYaw = RADtoDEG( ioMath::QuaterToYaw( qtRot ) );

  003a9	8d 45 9c	 lea	 eax, DWORD PTR _qtRot$530901[ebp]
  003ac	50		 push	 eax
  003ad	ff 15 00 00 00
	00		 call	 DWORD PTR __imp_?QuaterToYaw@ioMath@@SAMABUD3DXQUATERNION@@@Z
  003b3	59		 pop	 ecx
  003b4	d9 1c 24	 fstp	 DWORD PTR [esp]
  003b7	e8 00 00 00 00	 call	 ??$RADtoDEG@M@@YAMM@Z	; RADtoDEG<float>

; 274  : 
; 275  : 							fCurYaw = ioMath::ArrangeHead( fCurYaw );

  003bc	f3 0f 10 45 c8	 movss	 xmm0, DWORD PTR _fCurYaw$530917[ebp]
  003c1	d9 5d c4	 fstp	 DWORD PTR _fTargetYaw$530918[ebp]
  003c4	f3 0f 11 04 24	 movss	 DWORD PTR [esp], xmm0
  003c9	ff 15 00 00 00
	00		 call	 DWORD PTR __imp_?ArrangeHead@ioMath@@SAMM@Z
  003cf	d9 5d c8	 fstp	 DWORD PTR _fCurYaw$530917[ebp]

; 276  : 							fTargetYaw = ioMath::ArrangeHead( fTargetYaw );

  003d2	f3 0f 10 45 c4	 movss	 xmm0, DWORD PTR _fTargetYaw$530918[ebp]
  003d7	f3 0f 11 04 24	 movss	 DWORD PTR [esp], xmm0
  003dc	ff 15 00 00 00
	00		 call	 DWORD PTR __imp_?ArrangeHead@ioMath@@SAMM@Z
  003e2	d9 5d c4	 fstp	 DWORD PTR _fTargetYaw$530918[ebp]

; 277  : 
; 278  : 							float fRotAngle = ioMath::AngleGap( fCurYaw, fTargetYaw );

  003e5	f3 0f 10 45 c4	 movss	 xmm0, DWORD PTR _fTargetYaw$530918[ebp]
  003ea	f3 0f 11 04 24	 movss	 DWORD PTR [esp], xmm0
  003ef	f3 0f 10 45 c8	 movss	 xmm0, DWORD PTR _fCurYaw$530917[ebp]
  003f4	51		 push	 ecx
  003f5	f3 0f 11 04 24	 movss	 DWORD PTR [esp], xmm0
  003fa	ff 15 00 00 00
	00		 call	 DWORD PTR __imp_?AngleGap@ioMath@@SAMMM@Z

; 279  : 							if( fRotAngle < 0.0f )

  00400	d9 ee		 fldz
  00402	59		 pop	 ecx
  00403	df f1		 fcomip	 ST(1)
  00405	dd d8		 fstp	 ST(0)
  00407	59		 pop	 ecx
  00408	76 16		 jbe	 SHORT $LN66@OnProcessT

; 280  : 								bLeftRot = true;
; 281  : 						}
; 282  : 
; 283  : 						if( bLeftRot )
; 284  : 							fRotateAngle *= -1;

  0040a	f3 0f 10 45 c0	 movss	 xmm0, DWORD PTR _fRotateAngle$530910[ebp]
  0040f	0f 5a c0	 cvtps2pd xmm0, xmm0
  00412	f2 0f 59 05 00
	00 00 00	 mulsd	 xmm0, QWORD PTR __real@bff0000000000000
  0041a	66 0f 5a c0	 cvtpd2ps xmm0, xmm0
  0041e	eb 05		 jmp	 SHORT $LN4@OnProcessT
$LN66@OnProcessT:
  00420	f3 0f 10 45 c0	 movss	 xmm0, DWORD PTR _fRotateAngle$530910[ebp]
$LN4@OnProcessT:

; 285  : 
; 286  : 						fRotateAngle = ioMath::ArrangeHead( fRotateAngle );

  00425	51		 push	 ecx
  00426	f3 0f 11 04 24	 movss	 DWORD PTR [esp], xmm0
  0042b	ff 15 00 00 00
	00		 call	 DWORD PTR __imp_?ArrangeHead@ioMath@@SAMM@Z
  00431	d9 5d c0	 fstp	 DWORD PTR _fRotateAngle$530910[ebp]

; 287  : 
; 288  : 						D3DXQUATERNION	qtNewRot;
; 289  : 						D3DXQuaternionRotationYawPitchRoll( &qtNewRot, DEGtoRAD(fRotateAngle), 0.0f, 0.0f );

  00434	0f 57 c0	 xorps	 xmm0, xmm0
  00437	d9 45 c0	 fld	 DWORD PTR _fRotateAngle$530910[ebp]
  0043a	dc 0d 00 00 00
	00		 fmul	 QWORD PTR __real@3f91df46a2526c7a
  00440	f3 0f 11 04 24	 movss	 DWORD PTR [esp], xmm0
  00445	51		 push	 ecx
  00446	51		 push	 ecx
  00447	d9 5d c8	 fstp	 DWORD PTR tv869[ebp]
  0044a	f3 0f 11 44 24
	04		 movss	 DWORD PTR [esp+4], xmm0
  00450	d9 45 c8	 fld	 DWORD PTR tv869[ebp]
  00453	8d 45 8c	 lea	 eax, DWORD PTR _qtNewRot$530922[ebp]
  00456	d9 1c 24	 fstp	 DWORD PTR [esp]
  00459	50		 push	 eax
  0045a	e8 00 00 00 00	 call	 _D3DXQuaternionRotationYawPitchRoll@16

; 290  : 						m_vTracingMoveDir = qtNewRot * m_vTracingMoveDir;

  0045f	57		 push	 edi
  00460	8d 45 8c	 lea	 eax, DWORD PTR _qtNewRot$530922[ebp]
  00463	50		 push	 eax
  00464	8d 45 f0	 lea	 eax, DWORD PTR $T530927[ebp]
  00467	50		 push	 eax
  00468	ff 15 00 00 00
	00		 call	 DWORD PTR __imp_??D@YA?AUD3DXVECTOR3@@ABUD3DXQUATERNION@@ABU0@@Z
  0046e	83 c4 0c	 add	 esp, 12			; 0000000cH
  00471	8b f0		 mov	 esi, eax

; 291  : 					}
; 292  : 				}
; 293  : 				else

  00473	eb 09		 jmp	 SHORT $LN73@OnProcessT
$LN9@OnProcessT:

; 294  : 				{
; 295  : 					m_vTracingMoveDir = vTargetDir;

  00475	8d bb 6c 0a 00
	00		 lea	 edi, DWORD PTR [ebx+2668]
$LN74@OnProcessT:
  0047b	8d 75 e4	 lea	 esi, DWORD PTR _vTargetDir$530898[ebp]
$LN73@OnProcessT:
  0047e	a5		 movsd
  0047f	a5		 movsd
  00480	a5		 movsd

; 296  : 				}
; 297  : 			}
; 298  : 		}
; 299  : 		else

  00481	eb 08		 jmp	 SHORT $LN67@OnProcessT
$LN11@OnProcessT:

; 300  : 		{
; 301  : 			m_TargetTraceName.Clear();

  00483	8b ce		 mov	 ecx, esi
  00485	ff 15 00 00 00
	00		 call	 DWORD PTR __imp_?Clear@ioHashString@@QAEXXZ
$LN67@OnProcessT:

; 307  : 		return;
; 308  : 	}
; 309  : 
; 310  : 	float fMoveDist = m_fTraceSpeed * fTimePerSec;

  0048b	8d 45 c8	 lea	 eax, DWORD PTR _value$533135[ebp]
  0048e	50		 push	 eax
  0048f	8d 8b ec 08 00
	00		 lea	 ecx, DWORD PTR [ebx+2284]
  00495	e8 00 00 00 00	 call	 ?DecryptValueToPool@?$CEncrypt@M@@QAEXPAM@Z ; CEncrypt<float>::DecryptValueToPool

; 311  : 	ProcessTraceMoving( pStage, fMoveDist, fTimePerSec );

  0049a	f3 0f 10 45 08	 movss	 xmm0, DWORD PTR _fTimePerSec$[ebp]
  0049f	f3 0f 10 4d c8	 movss	 xmm1, DWORD PTR _value$533135[ebp]
  004a4	51		 push	 ecx
  004a5	51		 push	 ecx
  004a6	f3 0f 11 44 24
	04		 movss	 DWORD PTR [esp+4], xmm0
  004ac	0f 5a c0	 cvtps2pd xmm0, xmm0
  004af	0f 5a c9	 cvtps2pd xmm1, xmm1
  004b2	f2 0f 59 c8	 mulsd	 xmm1, xmm0
  004b6	8b cb		 mov	 ecx, ebx
  004b8	66 0f 5a c1	 cvtpd2ps xmm0, xmm1
  004bc	f3 0f 11 04 24	 movss	 DWORD PTR [esp], xmm0
  004c1	ff 75 bc	 push	 DWORD PTR _pStage$[ebp]
  004c4	e8 00 00 00 00	 call	 ?ProcessTraceMoving@ioDummyChar@@IAEXPAVioPlayStage@@MM@Z ; ioDummyChar::ProcessTraceMoving
  004c9	eb 07		 jmp	 SHORT $LN69@OnProcessT
$LN13@OnProcessT:

; 302  : 		}
; 303  : 	}
; 304  : 	else
; 305  : 	{
; 306  : 		SetTraceState( DCTS_SENSING );

  004cb	6a 02		 push	 2
  004cd	e8 00 00 00 00	 call	 ?SetTraceState@ioDummyChar@@QAEXW4DummyCharTraceState@1@@Z ; ioDummyChar::SetTraceState
$LN69@OnProcessT:
  004d2	5e		 pop	 esi
$LN68@OnProcessT:
  004d3	5f		 pop	 edi
$LN16@OnProcessT:

; 312  : }

  004d4	8b 4d fc	 mov	 ecx, DWORD PTR __$ArrayPad$[ebp]
  004d7	33 cd		 xor	 ecx, ebp
  004d9	5b		 pop	 ebx
  004da	e8 00 00 00 00	 call	 @__security_check_cookie@4
  004df	c9		 leave
  004e0	c2 04 00	 ret	 4
?OnProcessTraceTracing@ioTargetTrace11Dummy@@IAEXM@Z ENDP ; ioTargetTrace11Dummy::OnProcessTraceTracing
_TEXT	ENDS
PUBLIC	??D?$_List_iterator@V?$_List_val@UFireTime@@V?$allocator@UFireTime@@@std@@@std@@@std@@QBEAAUFireTime@@XZ ; std::_List_iterator<std::_List_val<FireTime,std::allocator<FireTime> > >::operator*
; Function compile flags: /Ogsp
; File c:\program files (x86)\microsoft visual studio 10.0\vc\include\list
;	COMDAT ??D?$_List_iterator@V?$_List_val@UFireTime@@V?$allocator@UFireTime@@@std@@@std@@@std@@QBEAAUFireTime@@XZ
_TEXT	SEGMENT
??D?$_List_iterator@V?$_List_val@UFireTime@@V?$allocator@UFireTime@@@std@@@std@@@std@@QBEAAUFireTime@@XZ PROC ; std::_List_iterator<std::_List_val<FireTime,std::allocator<FireTime> > >::operator*, COMDAT
; _this$ = ecx

; 360  : 		return ((reference)**(_Mybase *)this);

  00000	8b 01		 mov	 eax, DWORD PTR [ecx]
  00002	83 c0 08	 add	 eax, 8

; 361  : 		}

  00005	c3		 ret	 0
??D?$_List_iterator@V?$_List_val@UFireTime@@V?$allocator@UFireTime@@@std@@@std@@@std@@QBEAAUFireTime@@XZ ENDP ; std::_List_iterator<std::_List_val<FireTime,std::allocator<FireTime> > >::operator*
_TEXT	ENDS
PUBLIC	??9?$_Vector_const_iterator@V?$_Vector_val@PAVioBaseChar@@V?$allocator@PAVioBaseChar@@@std@@@std@@@std@@QBE_NABV01@@Z ; std::_Vector_const_iterator<std::_Vector_val<ioBaseChar *,std::allocator<ioBaseChar *> > >::operator!=
; Function compile flags: /Ogsp
; File c:\program files (x86)\microsoft visual studio 10.0\vc\include\vector
;	COMDAT ??9?$_Vector_const_iterator@V?$_Vector_val@PAVioBaseChar@@V?$allocator@PAVioBaseChar@@@std@@@std@@@std@@QBE_NABV01@@Z
_TEXT	SEGMENT
__Right$ = 8						; size = 4
??9?$_Vector_const_iterator@V?$_Vector_val@PAVioBaseChar@@V?$allocator@PAVioBaseChar@@@std@@@std@@@std@@QBE_NABV01@@Z PROC ; std::_Vector_const_iterator<std::_Vector_val<ioBaseChar *,std::allocator<ioBaseChar *> > >::operator!=, COMDAT
; _this$ = ecx

; 207  : 		{	// test for iterator inequality

  00000	55		 push	 ebp
  00001	8b ec		 mov	 ebp, esp

; 208  : 		return (!(*this == _Right));

  00003	8b 01		 mov	 eax, DWORD PTR [ecx]
  00005	8b 55 08	 mov	 edx, DWORD PTR __Right$[ebp]
  00008	33 c9		 xor	 ecx, ecx
  0000a	3b 02		 cmp	 eax, DWORD PTR [edx]
  0000c	0f 95 c0	 setne	 al

; 209  : 		}

  0000f	5d		 pop	 ebp
  00010	c2 04 00	 ret	 4
??9?$_Vector_const_iterator@V?$_Vector_val@PAVioBaseChar@@V?$allocator@PAVioBaseChar@@@std@@@std@@@std@@QBE_NABV01@@Z ENDP ; std::_Vector_const_iterator<std::_Vector_val<ioBaseChar *,std::allocator<ioBaseChar *> > >::operator!=
_TEXT	ENDS
PUBLIC	??0?$_List_iterator@V?$_List_val@UFireTime@@V?$allocator@UFireTime@@@std@@@std@@@std@@QAE@PAU_Node@?$_List_nod@UFireTime@@V?$allocator@UFireTime@@@std@@@1@PBV?$_List_val@UFireTime@@V?$allocator@UFireTime@@@std@@@1@@Z ; std::_List_iterator<std::_List_val<FireTime,std::allocator<FireTime> > >::_List_iterator<std::_List_val<FireTime,std::allocator<FireTime> > >
; Function compile flags: /Ogsp
; File c:\program files (x86)\microsoft visual studio 10.0\vc\include\list
;	COMDAT ??0?$_List_iterator@V?$_List_val@UFireTime@@V?$allocator@UFireTime@@@std@@@std@@@std@@QAE@PAU_Node@?$_List_nod@UFireTime@@V?$allocator@UFireTime@@@std@@@1@PBV?$_List_val@UFireTime@@V?$allocator@UFireTime@@@std@@@1@@Z
_TEXT	SEGMENT
__Pnode$ = 8						; size = 4
__Plist$ = 12						; size = 4
??0?$_List_iterator@V?$_List_val@UFireTime@@V?$allocator@UFireTime@@@std@@@std@@@std@@QAE@PAU_Node@?$_List_nod@UFireTime@@V?$allocator@UFireTime@@@std@@@1@PBV?$_List_val@UFireTime@@V?$allocator@UFireTime@@@std@@@1@@Z PROC ; std::_List_iterator<std::_List_val<FireTime,std::allocator<FireTime> > >::_List_iterator<std::_List_val<FireTime,std::allocator<FireTime> > >, COMDAT
; _this$ = ecx

; 342  : 		{	// construct with node pointer _Pnode

  00000	55		 push	 ebp
  00001	8b ec		 mov	 ebp, esp
  00003	8b c1		 mov	 eax, ecx
  00005	8b 4d 08	 mov	 ecx, DWORD PTR __Pnode$[ebp]
  00008	89 08		 mov	 DWORD PTR [eax], ecx

; 343  : 		}

  0000a	5d		 pop	 ebp
  0000b	c2 08 00	 ret	 8
??0?$_List_iterator@V?$_List_val@UFireTime@@V?$allocator@UFireTime@@@std@@@std@@@std@@QAE@PAU_Node@?$_List_nod@UFireTime@@V?$allocator@UFireTime@@@std@@@1@PBV?$_List_val@UFireTime@@V?$allocator@UFireTime@@@std@@@1@@Z ENDP ; std::_List_iterator<std::_List_val<FireTime,std::allocator<FireTime> > >::_List_iterator<std::_List_val<FireTime,std::allocator<FireTime> > >
_TEXT	ENDS
PUBLIC	??_G_Node@?$_List_nod@UFireTime@@V?$allocator@UFireTime@@@std@@@std@@QAEPAXI@Z ; std::_List_nod<FireTime,std::allocator<FireTime> >::_Node::`scalar deleting destructor'
; Function compile flags: /Ogsp
;	COMDAT ??_G_Node@?$_List_nod@UFireTime@@V?$allocator@UFireTime@@@std@@@std@@QAEPAXI@Z
_TEXT	SEGMENT
___flags$ = 8						; size = 4
??_G_Node@?$_List_nod@UFireTime@@V?$allocator@UFireTime@@@std@@@std@@QAEPAXI@Z PROC ; std::_List_nod<FireTime,std::allocator<FireTime> >::_Node::`scalar deleting destructor', COMDAT
; _this$ = ecx
  00000	55		 push	 ebp
  00001	8b ec		 mov	 ebp, esp
  00003	56		 push	 esi
  00004	8b f1		 mov	 esi, ecx
  00006	8d 4e 08	 lea	 ecx, DWORD PTR [esi+8]
  00009	e8 00 00 00 00	 call	 ??1FireTime@@QAE@XZ
  0000e	f6 45 08 01	 test	 BYTE PTR ___flags$[ebp], 1
  00012	74 07		 je	 SHORT $LN1@scalar@2
  00014	56		 push	 esi
  00015	e8 00 00 00 00	 call	 ??3@YAXPAX@Z		; operator delete
  0001a	59		 pop	 ecx
$LN1@scalar@2:
  0001b	8b c6		 mov	 eax, esi
  0001d	5e		 pop	 esi
  0001e	5d		 pop	 ebp
  0001f	c2 04 00	 ret	 4
??_G_Node@?$_List_nod@UFireTime@@V?$allocator@UFireTime@@@std@@@std@@QAEPAXI@Z ENDP ; std::_List_nod<FireTime,std::allocator<FireTime> >::_Node::`scalar deleting destructor'
; Function compile flags: /Ogsp
; File d:\lost saga for developer\youtube\tutorial\source\src\lsclient\ioplayentity.h
_TEXT	ENDS
;	COMDAT ?SetTeam@ioPlayEntity@@UAEXW4TeamType@@@Z
_TEXT	SEGMENT
_value$533207 = 8					; size = 4
_eType$ = 8						; size = 4
?SetTeam@ioPlayEntity@@UAEXW4TeamType@@@Z PROC		; ioPlayEntity::SetTeam, COMDAT
; _this$ = ecx

; 106  : 	virtual void SetTeam( TeamType eType ) { m_TeamType = eType; }

  00000	55		 push	 ebp
  00001	8b ec		 mov	 ebp, esp
  00003	8b 45 08	 mov	 eax, DWORD PTR _eType$[ebp]
  00006	89 45 08	 mov	 DWORD PTR _value$533207[ebp], eax
  00009	8d 45 08	 lea	 eax, DWORD PTR _value$533207[ebp]
  0000c	50		 push	 eax
  0000d	81 c1 90 00 00
	00		 add	 ecx, 144		; 00000090H
  00013	e8 00 00 00 00	 call	 ?EncryptValueToPool@?$CEncrypt@W4TeamType@@@@AAEXPBD@Z ; CEncrypt<enum TeamType>::EncryptValueToPool
  00018	5d		 pop	 ebp
  00019	c2 04 00	 ret	 4
?SetTeam@ioPlayEntity@@UAEXW4TeamType@@@Z ENDP		; ioPlayEntity::SetTeam
_TEXT	ENDS
PUBLIC	?GetTeam@ioPlayEntity@@QBE?AW4TeamType@@XZ	; ioPlayEntity::GetTeam
; Function compile flags: /Ogsp
;	COMDAT ?GetTeam@ioPlayEntity@@QBE?AW4TeamType@@XZ
_TEXT	SEGMENT
_value$533213 = -4					; size = 4
?GetTeam@ioPlayEntity@@QBE?AW4TeamType@@XZ PROC		; ioPlayEntity::GetTeam, COMDAT
; _this$ = ecx

; 107  : 	inline TeamType GetTeam() const { return m_TeamType; }

  00000	55		 push	 ebp
  00001	8b ec		 mov	 ebp, esp
  00003	51		 push	 ecx
  00004	8d 45 fc	 lea	 eax, DWORD PTR _value$533213[ebp]
  00007	50		 push	 eax
  00008	81 c1 90 00 00
	00		 add	 ecx, 144		; 00000090H
  0000e	e8 00 00 00 00	 call	 ?DecryptValueToPool@?$CEncrypt@W4TeamType@@@@QAEXPAW4TeamType@@@Z ; CEncrypt<enum TeamType>::DecryptValueToPool
  00013	8b 45 fc	 mov	 eax, DWORD PTR _value$533213[ebp]
  00016	c9		 leave
  00017	c3		 ret	 0
?GetTeam@ioPlayEntity@@QBE?AW4TeamType@@XZ ENDP		; ioPlayEntity::GetTeam
_TEXT	ENDS
PUBLIC	??9?$_Vector_const_iterator@V?$_Vector_val@VioHashString@@V?$allocator@VioHashString@@@std@@@std@@@std@@QBE_NABV01@@Z ; std::_Vector_const_iterator<std::_Vector_val<ioHashString,std::allocator<ioHashString> > >::operator!=
; Function compile flags: /Ogsp
; File c:\program files (x86)\microsoft visual studio 10.0\vc\include\vector
;	COMDAT ??9?$_Vector_const_iterator@V?$_Vector_val@VioHashString@@V?$allocator@VioHashString@@@std@@@std@@@std@@QBE_NABV01@@Z
_TEXT	SEGMENT
__Right$ = 8						; size = 4
??9?$_Vector_const_iterator@V?$_Vector_val@VioHashString@@V?$allocator@VioHashString@@@std@@@std@@@std@@QBE_NABV01@@Z PROC ; std::_Vector_const_iterator<std::_Vector_val<ioHashString,std::allocator<ioHashString> > >::operator!=, COMDAT
; _this$ = ecx

; 207  : 		{	// test for iterator inequality

  00000	55		 push	 ebp
  00001	8b ec		 mov	 ebp, esp

; 208  : 		return (!(*this == _Right));

  00003	8b 01		 mov	 eax, DWORD PTR [ecx]
  00005	8b 55 08	 mov	 edx, DWORD PTR __Right$[ebp]
  00008	33 c9		 xor	 ecx, ecx
  0000a	3b 02		 cmp	 eax, DWORD PTR [edx]
  0000c	0f 95 c0	 setne	 al

; 209  : 		}

  0000f	5d		 pop	 ebp
  00010	c2 04 00	 ret	 4
??9?$_Vector_const_iterator@V?$_Vector_val@VioHashString@@V?$allocator@VioHashString@@@std@@@std@@@std@@QBE_NABV01@@Z ENDP ; std::_Vector_const_iterator<std::_Vector_val<ioHashString,std::allocator<ioHashString> > >::operator!=
_TEXT	ENDS
PUBLIC	__real@3fe0000000000000
PUBLIC	_pStage$GSCopy$
PUBLIC	___$ReturnUdt$GSCopy$
PUBLIC	?GetSearchTarget@ioTargetTrace11Dummy@@IAE?AVioHashString@@PAVioPlayStage@@_N@Z ; ioTargetTrace11Dummy::GetSearchTarget
EXTRN	__imp_??4ioHashString@@QAEAAV0@ABV0@@Z:PROC
EXTRN	?HasBuff@ioBaseChar@@QBE_NABVioHashString@@@Z:PROC ; ioBaseChar::HasBuff
EXTRN	?IsCanNoWound@ioBaseChar@@QAE_NXZ:PROC		; ioBaseChar::IsCanNoWound
EXTRN	?IsEnableTargetState@ioDummyChar@@IAE_NPAVioBaseChar@@@Z:PROC ; ioDummyChar::IsEnableTargetState
EXTRN	__imp_??8ioHashString@@QBE_NABV0@@Z:PROC
EXTRN	__imp_??0ioHashString@@QAE@ABV0@@Z:PROC
EXTRN	__EH_epilog3_GS:PROC
EXTRN	__EH_prolog3_GS:PROC
;	COMDAT __real@3fe0000000000000
; File d:\lost saga for developer\youtube\tutorial\source\src\lsclient\iobasechar.h
CONST	SEGMENT
__real@3fe0000000000000 DQ 03fe0000000000000r	; 0.5
CONST	ENDS
;	COMDAT xdata$x
xdata$x	SEGMENT
__unwindtable$?GetSearchTarget@ioTargetTrace11Dummy@@IAE?AVioHashString@@PAVioPlayStage@@_N@Z DD 0ffffffffH
	DD	FLAT:__unwindfunclet$?GetSearchTarget@ioTargetTrace11Dummy@@IAE?AVioHashString@@PAVioPlayStage@@_N@Z$1
	DD	00H
	DD	FLAT:__unwindfunclet$?GetSearchTarget@ioTargetTrace11Dummy@@IAE?AVioHashString@@PAVioPlayStage@@_N@Z$0
__ehfuncinfo$?GetSearchTarget@ioTargetTrace11Dummy@@IAE?AVioHashString@@PAVioPlayStage@@_N@Z DD 019930522H
	DD	02H
	DD	FLAT:__unwindtable$?GetSearchTarget@ioTargetTrace11Dummy@@IAE?AVioHashString@@PAVioPlayStage@@_N@Z
	DD	2 DUP(00H)
	DD	2 DUP(00H)
	DD	00H
	DD	01H
; Function compile flags: /Ogsp
; File d:\lost saga for developer\youtube\tutorial\source\src\lsclient\iotargettrace11dummy.cpp
xdata$x	ENDS
;	COMDAT ?GetSearchTarget@ioTargetTrace11Dummy@@IAE?AVioHashString@@PAVioPlayStage@@_N@Z
_TEXT	SEGMENT
_qtRot$531292 = -172					; size = 16
_vCurPos$ = -156					; size = 12
$T533234 = -144						; size = 4
_fHalfValue$ = -140					; size = 4
_value$533366 = -136					; size = 4
_value$533336 = -132					; size = 4
_fDiffRangeSq$531289 = -128				; size = 4
_pOwner$ = -124						; size = 4
_value$533349 = -120					; size = 4
_vTargetPos$531287 = -116				; size = 12
_szTarget$ = -104					; size = 16
___$ReturnUdt$GSCopy$ = -88				; size = 4
_pStage$GSCopy$ = -84					; size = 4
tv978 = -80						; size = 4
_fCurGap$ = -76						; size = 4
_i$531280 = -72						; size = 4
$T533237 = -68						; size = 4
_value$533241 = -64					; size = 4
_value$533249 = -64					; size = 4
_fSensingRangeSq$ = -64					; size = 4
_value$533372 = -57					; size = 1
tv1138 = -56						; size = 4
tv1132 = -56						; size = 4
_value$533261 = -56					; size = 4
_value$533254 = -56					; size = 4
_iter$ = -56						; size = 4
_fSensingHalfAnigle$ = -56				; size = 4
_vDir$531293 = -52					; size = 12
$T531294 = -40						; size = 12
_vDiff2$531296 = -28					; size = 12
__$EHRec$ = -12						; size = 12
___$ReturnUdt$ = 8					; size = 4
_pStage$ = 12						; size = 4
_bSecond$ = 16						; size = 1
?GetSearchTarget@ioTargetTrace11Dummy@@IAE?AVioHashString@@PAVioPlayStage@@_N@Z PROC ; ioTargetTrace11Dummy::GetSearchTarget, COMDAT
; _this$ = ecx

; 395  : {

  00000	68 a0 00 00 00	 push	 160			; 000000a0H
  00005	b8 00 00 00 00	 mov	 eax, __ehhandler$?GetSearchTarget@ioTargetTrace11Dummy@@IAE?AVioHashString@@PAVioPlayStage@@_N@Z
  0000a	e8 00 00 00 00	 call	 __EH_prolog3_GS

; 408  : 		fSensingRangeSq = m_fSensingRange * m_fSensingRange;

  0000f	8b 45 0c	 mov	 eax, DWORD PTR _pStage$[ebp]
  00012	8b 7d 08	 mov	 edi, DWORD PTR ___$ReturnUdt$[ebp]
  00015	83 65 bc 00	 and	 DWORD PTR $T533237[ebp], 0
  00019	8b d9		 mov	 ebx, ecx
  0001b	8d 4d 98	 lea	 ecx, DWORD PTR _szTarget$[ebp]
  0001e	89 7d a8	 mov	 DWORD PTR ___$ReturnUdt$GSCopy$[ebp], edi
  00021	89 45 ac	 mov	 DWORD PTR _pStage$GSCopy$[ebp], eax
  00024	ff 15 00 00 00
	00		 call	 DWORD PTR __imp_??0ioHashString@@QAE@XZ
  0002a	33 f6		 xor	 esi, esi
  0002c	46		 inc	 esi
  0002d	8b cb		 mov	 ecx, ebx
  0002f	89 75 fc	 mov	 DWORD PTR __$EHRec$[ebp+8], esi
  00032	e8 00 00 00 00	 call	 ?GetOwner@ioDummyChar@@QBEPAVioBaseChar@@XZ ; ioDummyChar::GetOwner
  00037	89 45 84	 mov	 DWORD PTR _pOwner$[ebp], eax
  0003a	85 c0		 test	 eax, eax
  0003c	75 23		 jne	 SHORT $LN31@GetSearchT

; 396  : 	ioHashString szTarget;
; 397  : 
; 398  : 	ioBaseChar *pOwner = GetOwner();
; 399  : 	if( !pOwner )
; 400  : 		return szTarget;

  0003e	8d 45 98	 lea	 eax, DWORD PTR _szTarget$[ebp]
  00041	50		 push	 eax
  00042	8b cf		 mov	 ecx, edi
  00044	ff 15 00 00 00
	00		 call	 DWORD PTR __imp_??0ioHashString@@QAE@ABV0@@Z
$LN168@GetSearchT:
  0004a	8d 4d 98	 lea	 ecx, DWORD PTR _szTarget$[ebp]
  0004d	89 75 bc	 mov	 DWORD PTR $T533237[ebp], esi
  00050	c6 45 fc 00	 mov	 BYTE PTR __$EHRec$[ebp+8], 0
  00054	ff 15 00 00 00
	00		 call	 DWORD PTR __imp_??1ioHashString@@QAE@XZ
  0005a	8b c7		 mov	 eax, edi
  0005c	e9 60 04 00 00	 jmp	 $LN32@GetSearchT
$LN31@GetSearchT:

; 401  : 	if( !pStage )

  00061	83 7d ac 00	 cmp	 DWORD PTR _pStage$GSCopy$[ebp], 0
  00065	75 0e		 jne	 SHORT $LN30@GetSearchT
$LN169@GetSearchT:

; 402  : 		return szTarget;

  00067	8d 45 98	 lea	 eax, DWORD PTR _szTarget$[ebp]
  0006a	50		 push	 eax
  0006b	8b cf		 mov	 ecx, edi
  0006d	ff 15 00 00 00
	00		 call	 DWORD PTR __imp_??0ioHashString@@QAE@ABV0@@Z
  00073	eb d5		 jmp	 SHORT $LN168@GetSearchT
$LN30@GetSearchT:

; 403  : 
; 404  : 	float fSensingRangeSq = 0.0f;
; 405  : 	if( bSecond )

  00075	80 7d 10 00	 cmp	 BYTE PTR _bSecond$[ebp], 0

; 406  : 		fSensingRangeSq = m_fSensingRange2 * m_fSensingRange2;

  00079	8d 45 c0	 lea	 eax, DWORD PTR _value$533241[ebp]
  0007c	50		 push	 eax
  0007d	74 13		 je	 SHORT $LN29@GetSearchT
  0007f	8d 8b 8c 08 00
	00		 lea	 ecx, DWORD PTR [ebx+2188]
  00085	e8 00 00 00 00	 call	 ?DecryptValueToPool@?$CEncrypt@M@@QAEXPAM@Z ; CEncrypt<float>::DecryptValueToPool
  0008a	8d 8b 8c 08 00
	00		 lea	 ecx, DWORD PTR [ebx+2188]

; 407  : 	else

  00090	eb 11		 jmp	 SHORT $LN164@GetSearchT
$LN29@GetSearchT:

; 408  : 		fSensingRangeSq = m_fSensingRange * m_fSensingRange;

  00092	8d 8b 5c 08 00
	00		 lea	 ecx, DWORD PTR [ebx+2140]
  00098	e8 00 00 00 00	 call	 ?DecryptValueToPool@?$CEncrypt@M@@QAEXPAM@Z ; CEncrypt<float>::DecryptValueToPool
  0009d	8d 8b 5c 08 00
	00		 lea	 ecx, DWORD PTR [ebx+2140]
$LN164@GetSearchT:
  000a3	8d 45 c8	 lea	 eax, DWORD PTR _value$533254[ebp]
  000a6	50		 push	 eax
  000a7	e8 00 00 00 00	 call	 ?DecryptValueToPool@?$CEncrypt@M@@QAEXPAM@Z ; CEncrypt<float>::DecryptValueToPool
  000ac	f3 0f 10 4d c0	 movss	 xmm1, DWORD PTR _value$533249[ebp]
  000b1	f3 0f 10 45 c8	 movss	 xmm0, DWORD PTR _value$533254[ebp]
  000b6	0f 5a c0	 cvtps2pd xmm0, xmm0
  000b9	0f 5a c9	 cvtps2pd xmm1, xmm1
  000bc	f2 0f 59 c1	 mulsd	 xmm0, xmm1
  000c0	66 0f 5a c0	 cvtpd2ps xmm0, xmm0

; 409  : 
; 410  : 	if( fSensingRangeSq == 0.0f )

  000c4	0f 2e 05 00 00
	00 00		 ucomiss xmm0, DWORD PTR __real@00000000
  000cb	9f		 lahf
  000cc	f3 0f 11 45 c0	 movss	 DWORD PTR _fSensingRangeSq$[ebp], xmm0
  000d1	f6 c4 44	 test	 ah, 68			; 00000044H

; 411  : 		return szTarget;

  000d4	7b 91		 jnp	 SHORT $LN169@GetSearchT

; 412  : 
; 413  : 	D3DXVECTOR3 vDiff;
; 414  : 	D3DXVECTOR3 vCurPos = GetWorldPosition();

  000d6	8b 03		 mov	 eax, DWORD PTR [ebx]
  000d8	8b cb		 mov	 ecx, ebx
  000da	ff 50 70	 call	 DWORD PTR [eax+112]
  000dd	8b f0		 mov	 esi, eax
  000df	8d bd 64 ff ff
	ff		 lea	 edi, DWORD PTR _vCurPos$[ebp]
  000e5	a5		 movsd
  000e6	a5		 movsd

; 415  : 
; 416  : 	float fSensingHalfAnigle = m_fSensingAngle / 2.0f;

  000e7	8d 45 c8	 lea	 eax, DWORD PTR _value$533261[ebp]
  000ea	8d 8b bc 08 00
	00		 lea	 ecx, DWORD PTR [ebx+2236]
  000f0	50		 push	 eax
  000f1	a5		 movsd
  000f2	e8 00 00 00 00	 call	 ?DecryptValueToPool@?$CEncrypt@M@@QAEXPAM@Z ; CEncrypt<float>::DecryptValueToPool

; 417  : 	fSensingHalfAnigle = ioMath::ArrangeHead(fSensingHalfAnigle);

  000f7	f3 0f 10 45 c8	 movss	 xmm0, DWORD PTR _value$533261[ebp]
  000fc	0f 5a c0	 cvtps2pd xmm0, xmm0
  000ff	f2 0f 59 05 00
	00 00 00	 mulsd	 xmm0, QWORD PTR __real@3fe0000000000000
  00107	51		 push	 ecx
  00108	66 0f 5a c0	 cvtpd2ps xmm0, xmm0
  0010c	f3 0f 11 04 24	 movss	 DWORD PTR [esp], xmm0
  00111	ff 15 00 00 00
	00		 call	 DWORD PTR __imp_?ArrangeHead@ioMath@@SAMM@Z
  00117	d9 5d c8	 fstp	 DWORD PTR _fSensingHalfAnigle$[ebp]

; 418  : 	float fHalfValue = cosf( DEGtoRAD(fSensingHalfAnigle) );

  0011a	d9 45 c8	 fld	 DWORD PTR _fSensingHalfAnigle$[ebp]
  0011d	59		 pop	 ecx
  0011e	dc 0d 00 00 00
	00		 fmul	 QWORD PTR __real@3f91df46a2526c7a
  00124	d9 5d c8	 fstp	 DWORD PTR tv1138[ebp]
  00127	d9 45 c8	 fld	 DWORD PTR tv1138[ebp]
  0012a	e8 00 00 00 00	 call	 __CIcos
  0012f	d9 5d c8	 fstp	 DWORD PTR tv1132[ebp]
  00132	d9 45 c8	 fld	 DWORD PTR tv1132[ebp]

; 419  : 
; 420  : 	// Char Check
; 421  : 	const BaseCharList &rkCharList = pStage->GetBaseCharList();
; 422  : 	BaseCharList::const_iterator iter;
; 423  : 
; 424  : 	float fCurGap = -1.0f;
; 425  : 	for( iter=rkCharList.begin() ; iter!=rkCharList.end() ; ++iter )

  00135	8b 4d ac	 mov	 ecx, DWORD PTR _pStage$GSCopy$[ebp]
  00138	f3 0f 10 05 00
	00 00 00	 movss	 xmm0, DWORD PTR __real@bf800000
  00140	d9 9d 74 ff ff
	ff		 fstp	 DWORD PTR _fHalfValue$[ebp]
  00146	8b 41 2c	 mov	 eax, DWORD PTR [ecx+44]
  00149	f3 0f 11 45 b4	 movss	 DWORD PTR _fCurGap$[ebp], xmm0
  0014e	e9 3e 03 00 00	 jmp	 $LN165@GetSearchT
$LL63@GetSearchT:

; 426  : 	{
; 427  : 		ioBaseChar *pChar = *iter;

  00153	8b 30		 mov	 esi, DWORD PTR [eax]

; 428  : 
; 429  : 		if( !pChar ) continue;

  00155	85 f6		 test	 esi, esi
  00157	0f 84 2b 03 00
	00		 je	 $LN25@GetSearchT

; 430  : 		if( pChar->GetTeam() == pOwner->GetTeam() ) continue;

  0015d	8d 85 7c ff ff
	ff		 lea	 eax, DWORD PTR _value$533336[ebp]
  00163	8d 8e 90 00 00
	00		 lea	 ecx, DWORD PTR [esi+144]
  00169	50		 push	 eax
  0016a	e8 00 00 00 00	 call	 ?DecryptValueToPool@?$CEncrypt@W4TeamType@@@@QAEXPAW4TeamType@@@Z ; CEncrypt<enum TeamType>::DecryptValueToPool
  0016f	8b 4d 84	 mov	 ecx, DWORD PTR _pOwner$[ebp]
  00172	8d 45 88	 lea	 eax, DWORD PTR _value$533349[ebp]
  00175	81 c1 90 00 00
	00		 add	 ecx, 144		; 00000090H
  0017b	50		 push	 eax
  0017c	e8 00 00 00 00	 call	 ?DecryptValueToPool@?$CEncrypt@W4TeamType@@@@QAEXPAW4TeamType@@@Z ; CEncrypt<enum TeamType>::DecryptValueToPool
  00181	8b 85 7c ff ff
	ff		 mov	 eax, DWORD PTR _value$533336[ebp]
  00187	3b 45 88	 cmp	 eax, DWORD PTR _value$533349[ebp]
  0018a	0f 84 f8 02 00
	00		 je	 $LN25@GetSearchT

; 431  : 		if( pChar->GetCharName() == GetOwnerName() ) continue;

  00190	8d 83 cc 01 00
	00		 lea	 eax, DWORD PTR [ebx+460]
  00196	8d 8e d4 02 00
	00		 lea	 ecx, DWORD PTR [esi+724]
  0019c	50		 push	 eax
  0019d	89 4d b0	 mov	 DWORD PTR tv978[ebp], ecx
  001a0	ff 15 00 00 00
	00		 call	 DWORD PTR __imp_??8ioHashString@@QBE_NABV0@@Z
  001a6	84 c0		 test	 al, al
  001a8	0f 85 da 02 00
	00		 jne	 $LN25@GetSearchT

; 432  : 		if( pChar->GetExperienceMode() == EMS_EXPERIENCE ) continue;

  001ae	8d 85 78 ff ff
	ff		 lea	 eax, DWORD PTR _value$533366[ebp]
  001b4	8d 8e 94 1d 00
	00		 lea	 ecx, DWORD PTR [esi+7572]
  001ba	50		 push	 eax
  001bb	e8 00 00 00 00	 call	 ?DecryptValueToPool@?$CEncrypt@K@@QAEXPAK@Z ; CEncrypt<unsigned long>::DecryptValueToPool
  001c0	83 bd 78 ff ff
	ff 02		 cmp	 DWORD PTR _value$533366[ebp], 2
  001c7	0f 84 bb 02 00
	00		 je	 $LN25@GetSearchT

; 433  : 		if( !IsEnableTargetState( pChar ) )

  001cd	56		 push	 esi
  001ce	8b cb		 mov	 ecx, ebx
  001d0	e8 00 00 00 00	 call	 ?IsEnableTargetState@ioDummyChar@@IAE_NPAVioBaseChar@@@Z ; ioDummyChar::IsEnableTargetState
  001d5	84 c0		 test	 al, al
  001d7	0f 84 ab 02 00
	00		 je	 $LN25@GetSearchT

; 434  : 			continue;
; 435  : 
; 436  : 		if( pChar->IsCanNoWound() )

  001dd	8b ce		 mov	 ecx, esi
  001df	e8 00 00 00 00	 call	 ?IsCanNoWound@ioBaseChar@@QAE_NXZ ; ioBaseChar::IsCanNoWound
  001e4	84 c0		 test	 al, al
  001e6	0f 85 9c 02 00
	00		 jne	 $LN25@GetSearchT

; 437  : 			continue;
; 438  : 
; 439  : 		if( m_bCheckWounedState && !IsTargetWoundedState( pChar ) )

  001ec	8d 45 c7	 lea	 eax, DWORD PTR _value$533372[ebp]
  001ef	50		 push	 eax
  001f0	8d 8b e4 12 00
	00		 lea	 ecx, DWORD PTR [ebx+4836]
  001f6	e8 00 00 00 00	 call	 ?DecryptValueToPool@?$CEncrypt@_N@@QAEXPA_N@Z ; CEncrypt<bool>::DecryptValueToPool
  001fb	80 7d c7 00	 cmp	 BYTE PTR _value$533372[ebp], 0
  001ff	74 10		 je	 SHORT $LN17@GetSearchT
  00201	56		 push	 esi
  00202	8b cb		 mov	 ecx, ebx
  00204	e8 00 00 00 00	 call	 ?IsTargetWoundedState@ioDummyChar@@QAE_NPAVioBaseChar@@@Z ; ioDummyChar::IsTargetWoundedState
  00209	84 c0		 test	 al, al
  0020b	0f 84 77 02 00
	00		 je	 $LN25@GetSearchT
$LN17@GetSearchT:

; 440  : 			continue;
; 441  : 
; 442  : 		bool bPass = false;
; 443  : 
; 444  : 		auto SkipBuffIter = m_vSkipBuffList.begin();

  00211	8b bb d4 12 00
	00		 mov	 edi, DWORD PTR [ebx+4820]
  00217	eb 13		 jmp	 SHORT $LN166@GetSearchT

; 445  : 		for ( ; SkipBuffIter != m_vSkipBuffList.end(); ++SkipBuffIter )

$LL107@GetSearchT:

; 446  : 		{
; 447  : 			ioHashString& szBuffName = *SkipBuffIter;
; 448  : 			if ( pChar->HasBuff( szBuffName ) )

  00219	57		 push	 edi
  0021a	8b ce		 mov	 ecx, esi
  0021c	e8 00 00 00 00	 call	 ?HasBuff@ioBaseChar@@QBE_NABVioHashString@@@Z ; ioBaseChar::HasBuff
  00221	84 c0		 test	 al, al
  00223	0f 85 5f 02 00
	00		 jne	 $LN25@GetSearchT

; 445  : 		for ( ; SkipBuffIter != m_vSkipBuffList.end(); ++SkipBuffIter )

  00229	83 c7 10	 add	 edi, 16			; 00000010H
$LN166@GetSearchT:
  0022c	3b bb d8 12 00
	00		 cmp	 edi, DWORD PTR [ebx+4824]
  00232	75 e5		 jne	 SHORT $LL107@GetSearchT

; 449  : 			{				
; 450  : 				bPass = true;
; 451  : 				break;
; 452  : 			}
; 453  : 		}
; 454  : 
; 455  : 		if( bPass )
; 456  : 			continue;
; 457  : 
; 458  : 		bPass = false;
; 459  : 		for( size_t i = 0; i < m_vTargetedChar.size(); i++ )

  00234	8b 83 18 0b 00
	00		 mov	 eax, DWORD PTR [ebx+2840]
  0023a	8b 8b 1c 0b 00
	00		 mov	 ecx, DWORD PTR [ebx+2844]
  00240	2b c8		 sub	 ecx, eax
  00242	33 ff		 xor	 edi, edi
  00244	c1 f9 04	 sar	 ecx, 4
  00247	89 7d b8	 mov	 DWORD PTR _i$531280[ebp], edi
  0024a	85 c9		 test	 ecx, ecx
  0024c	74 30		 je	 SHORT $LN160@GetSearchT
$LL11@GetSearchT:

; 460  : 		{
; 461  : 			const ioHashString& stTargetedName = m_vTargetedChar[i];
; 462  : 			if( pChar->GetCharName() == stTargetedName )

  0024e	8b 4d b0	 mov	 ecx, DWORD PTR tv978[ebp]
  00251	03 c7		 add	 eax, edi
  00253	50		 push	 eax
  00254	ff 15 00 00 00
	00		 call	 DWORD PTR __imp_??8ioHashString@@QBE_NABV0@@Z
  0025a	84 c0		 test	 al, al
  0025c	0f 85 26 02 00
	00		 jne	 $LN25@GetSearchT

; 449  : 			{				
; 450  : 				bPass = true;
; 451  : 				break;
; 452  : 			}
; 453  : 		}
; 454  : 
; 455  : 		if( bPass )
; 456  : 			continue;
; 457  : 
; 458  : 		bPass = false;
; 459  : 		for( size_t i = 0; i < m_vTargetedChar.size(); i++ )

  00262	8b 83 18 0b 00
	00		 mov	 eax, DWORD PTR [ebx+2840]
  00268	8b 8b 1c 0b 00
	00		 mov	 ecx, DWORD PTR [ebx+2844]
  0026e	ff 45 b8	 inc	 DWORD PTR _i$531280[ebp]
  00271	2b c8		 sub	 ecx, eax
  00273	c1 f9 04	 sar	 ecx, 4
  00276	83 c7 10	 add	 edi, 16			; 00000010H
  00279	39 4d b8	 cmp	 DWORD PTR _i$531280[ebp], ecx
  0027c	72 d0		 jb	 SHORT $LL11@GetSearchT
$LN160@GetSearchT:

; 463  : 			{
; 464  : 				bPass = true;
; 465  : 				break;
; 466  : 			}
; 467  : 		}
; 468  : 
; 469  : 		if( bPass )
; 470  : 			continue;
; 471  : 
; 472  : 		D3DXVECTOR3 vTargetPos = pChar->GetWorldPosition();

  0027e	8b 06		 mov	 eax, DWORD PTR [esi]
  00280	8b ce		 mov	 ecx, esi
  00282	ff 50 70	 call	 DWORD PTR [eax+112]

; 473  : 		vDiff = vCurPos - vTargetPos;

  00285	f3 0f 10 85 64
	ff ff ff	 movss	 xmm0, DWORD PTR _vCurPos$[ebp]
  0028d	8b f0		 mov	 esi, eax
  0028f	8d 7d 8c	 lea	 edi, DWORD PTR _vTargetPos$531287[ebp]
  00292	a5		 movsd
  00293	a5		 movsd
  00294	0f 5a c0	 cvtps2pd xmm0, xmm0
  00297	a5		 movsd
  00298	f3 0f 10 4d 8c	 movss	 xmm1, DWORD PTR _vTargetPos$531287[ebp]
  0029d	f3 0f 10 55 90	 movss	 xmm2, DWORD PTR _vTargetPos$531287[ebp+4]
  002a2	f3 0f 10 5d 94	 movss	 xmm3, DWORD PTR _vTargetPos$531287[ebp+8]
  002a7	0f 5a c9	 cvtps2pd xmm1, xmm1
  002aa	f2 0f 5c c1	 subsd	 xmm0, xmm1
  002ae	0f 57 c9	 xorps	 xmm1, xmm1
  002b1	f2 0f 5a c8	 cvtsd2ss xmm1, xmm0
  002b5	f3 0f 10 85 68
	ff ff ff	 movss	 xmm0, DWORD PTR _vCurPos$[ebp+4]
  002bd	0f 5a d2	 cvtps2pd xmm2, xmm2
  002c0	0f 5a c0	 cvtps2pd xmm0, xmm0
  002c3	f2 0f 5c c2	 subsd	 xmm0, xmm2
  002c7	f3 0f 10 95 6c
	ff ff ff	 movss	 xmm2, DWORD PTR _vCurPos$[ebp+8]
  002cf	f2 0f 5a c0	 cvtsd2ss xmm0, xmm0

; 474  : 		float fDiffRangeSq = D3DXVec3LengthSq( &vDiff );

  002d3	f3 0f 5a c0	 cvtss2sd xmm0, xmm0
  002d7	0f 5a d2	 cvtps2pd xmm2, xmm2
  002da	f2 0f 59 c0	 mulsd	 xmm0, xmm0
  002de	0f 5a db	 cvtps2pd xmm3, xmm3
  002e1	f2 0f 5c d3	 subsd	 xmm2, xmm3
  002e5	0f 5a c9	 cvtps2pd xmm1, xmm1
  002e8	f2 0f 5a d2	 cvtsd2ss xmm2, xmm2
  002ec	f2 0f 59 c9	 mulsd	 xmm1, xmm1
  002f0	f2 0f 58 c8	 addsd	 xmm1, xmm0
  002f4	f3 0f 5a d2	 cvtss2sd xmm2, xmm2
  002f8	f2 0f 59 d2	 mulsd	 xmm2, xmm2
  002fc	f2 0f 58 ca	 addsd	 xmm1, xmm2
  00300	66 0f 5a c1	 cvtpd2ps xmm0, xmm1

; 475  : 
; 476  : 		//  
; 477  : 		if( m_fSensingAngle != 0.0f )

  00304	8d 85 70 ff ff
	ff		 lea	 eax, DWORD PTR $T533234[ebp]
  0030a	f3 0f 11 45 80	 movss	 DWORD PTR _fDiffRangeSq$531289[ebp], xmm0
  0030f	0f 57 c0	 xorps	 xmm0, xmm0
  00312	50		 push	 eax
  00313	8d 8b bc 08 00
	00		 lea	 ecx, DWORD PTR [ebx+2236]
  00319	f3 0f 11 85 70
	ff ff ff	 movss	 DWORD PTR $T533234[ebp], xmm0
  00321	e8 00 00 00 00	 call	 ??9?$CEncrypt@M@@QAE_NABM@Z ; CEncrypt<float>::operator!=
  00326	84 c0		 test	 al, al
  00328	0f 84 09 01 00
	00		 je	 $LN5@GetSearchT

; 478  : 		{
; 479  : 			D3DXQUATERNION qtRot = GetWorldOrientation();

  0032e	8b 03		 mov	 eax, DWORD PTR [ebx]
  00330	8b cb		 mov	 ecx, ebx
  00332	ff 50 74	 call	 DWORD PTR [eax+116]

; 480  : 			D3DXVECTOR3 vDir = qtRot * D3DXVECTOR3( 0.0f, 0.0f, -1.0f );

  00335	0f 57 c0	 xorps	 xmm0, xmm0
  00338	8b f0		 mov	 esi, eax
  0033a	8d bd 54 ff ff
	ff		 lea	 edi, DWORD PTR _qtRot$531292[ebp]
  00340	a5		 movsd
  00341	a5		 movsd
  00342	8d 45 d8	 lea	 eax, DWORD PTR $T531294[ebp]
  00345	50		 push	 eax
  00346	8d 85 54 ff ff
	ff		 lea	 eax, DWORD PTR _qtRot$531292[ebp]
  0034c	a5		 movsd
  0034d	50		 push	 eax
  0034e	8d 45 cc	 lea	 eax, DWORD PTR _vDir$531293[ebp]
  00351	f3 0f 11 45 d8	 movss	 DWORD PTR $T531294[ebp], xmm0
  00356	f3 0f 11 45 dc	 movss	 DWORD PTR $T531294[ebp+4], xmm0
  0035b	f3 0f 10 05 00
	00 00 00	 movss	 xmm0, DWORD PTR __real@bf800000
  00363	50		 push	 eax
  00364	a5		 movsd
  00365	f3 0f 11 45 e0	 movss	 DWORD PTR $T531294[ebp+8], xmm0
  0036a	ff 15 00 00 00
	00		 call	 DWORD PTR __imp_??D@YA?AUD3DXVECTOR3@@ABUD3DXQUATERNION@@ABU0@@Z

; 481  : 
; 482  : 			D3DXVECTOR3 vDiff2 = vTargetPos - GetWorldPosition();

  00370	8b 03		 mov	 eax, DWORD PTR [ebx]
  00372	83 c4 0c	 add	 esp, 12			; 0000000cH
  00375	8b cb		 mov	 ecx, ebx
  00377	ff 50 70	 call	 DWORD PTR [eax+112]
  0037a	f3 0f 10 08	 movss	 xmm1, DWORD PTR [eax]
  0037e	f3 0f 10 50 04	 movss	 xmm2, DWORD PTR [eax+4]
  00383	f3 0f 10 45 8c	 movss	 xmm0, DWORD PTR _vTargetPos$531287[ebp]
  00388	f3 0f 10 58 08	 movss	 xmm3, DWORD PTR [eax+8]
  0038d	0f 5a c9	 cvtps2pd xmm1, xmm1
  00390	0f 5a c0	 cvtps2pd xmm0, xmm0
  00393	f2 0f 5c c1	 subsd	 xmm0, xmm1
  00397	f3 0f 10 4d 90	 movss	 xmm1, DWORD PTR _vTargetPos$531287[ebp+4]
  0039c	0f 5a d2	 cvtps2pd xmm2, xmm2
  0039f	0f 5a c9	 cvtps2pd xmm1, xmm1
  003a2	f2 0f 5c ca	 subsd	 xmm1, xmm2
  003a6	f3 0f 10 55 94	 movss	 xmm2, DWORD PTR _vTargetPos$531287[ebp+8]

; 483  : 			D3DXVec3Normalize( &vDiff2, &vDiff2 );

  003ab	8d 45 e4	 lea	 eax, DWORD PTR _vDiff2$531296[ebp]
  003ae	0f 5a d2	 cvtps2pd xmm2, xmm2
  003b1	0f 5a db	 cvtps2pd xmm3, xmm3
  003b4	50		 push	 eax
  003b5	f2 0f 5c d3	 subsd	 xmm2, xmm3
  003b9	f2 0f 5a c0	 cvtsd2ss xmm0, xmm0
  003bd	f2 0f 5a c9	 cvtsd2ss xmm1, xmm1
  003c1	f2 0f 5a d2	 cvtsd2ss xmm2, xmm2
  003c5	50		 push	 eax
  003c6	f3 0f 11 45 e4	 movss	 DWORD PTR _vDiff2$531296[ebp], xmm0
  003cb	f3 0f 11 4d e8	 movss	 DWORD PTR _vDiff2$531296[ebp+4], xmm1
  003d0	f3 0f 11 55 ec	 movss	 DWORD PTR _vDiff2$531296[ebp+8], xmm2
  003d5	e8 00 00 00 00	 call	 _D3DXVec3Normalize@8

; 484  : 
; 485  : 			float fCurValue = D3DXVec3Dot( &vDir, &vDiff2 );

  003da	f3 0f 10 4d e8	 movss	 xmm1, DWORD PTR _vDiff2$531296[ebp+4]
  003df	f3 0f 10 45 d0	 movss	 xmm0, DWORD PTR _vDir$531293[ebp+4]
  003e4	f3 0f 10 55 cc	 movss	 xmm2, DWORD PTR _vDir$531293[ebp]
  003e9	0f 5a c9	 cvtps2pd xmm1, xmm1
  003ec	0f 5a c0	 cvtps2pd xmm0, xmm0
  003ef	f2 0f 59 c1	 mulsd	 xmm0, xmm1
  003f3	f3 0f 10 4d e4	 movss	 xmm1, DWORD PTR _vDiff2$531296[ebp]
  003f8	0f 5a c9	 cvtps2pd xmm1, xmm1
  003fb	0f 5a d2	 cvtps2pd xmm2, xmm2
  003fe	f2 0f 59 ca	 mulsd	 xmm1, xmm2
  00402	f3 0f 10 55 ec	 movss	 xmm2, DWORD PTR _vDiff2$531296[ebp+8]
  00407	f2 0f 58 c1	 addsd	 xmm0, xmm1
  0040b	f3 0f 10 4d d4	 movss	 xmm1, DWORD PTR _vDir$531293[ebp+8]
  00410	0f 5a c9	 cvtps2pd xmm1, xmm1
  00413	0f 5a d2	 cvtps2pd xmm2, xmm2
  00416	f2 0f 59 ca	 mulsd	 xmm1, xmm2
  0041a	f2 0f 58 c1	 addsd	 xmm0, xmm1

; 486  : 			if( fCurValue < fHalfValue )

  0041e	f3 0f 10 8d 74
	ff ff ff	 movss	 xmm1, DWORD PTR _fHalfValue$[ebp]
  00426	66 0f 5a c0	 cvtpd2ps xmm0, xmm0
  0042a	f3 0f 5a c0	 cvtss2sd xmm0, xmm0
  0042e	0f 5a c9	 cvtps2pd xmm1, xmm1
  00431	66 0f 2f c8	 comisd	 xmm1, xmm0
  00435	77 51		 ja	 SHORT $LN25@GetSearchT
$LN5@GetSearchT:

; 487  : 				continue;
; 488  : 		}
; 489  : 
; 490  : 		//  
; 491  : 		if( fDiffRangeSq < fSensingRangeSq )

  00437	f3 0f 10 4d 80	 movss	 xmm1, DWORD PTR _fDiffRangeSq$531289[ebp]
  0043c	f3 0f 10 55 c0	 movss	 xmm2, DWORD PTR _fSensingRangeSq$[ebp]
  00441	0f 57 c0	 xorps	 xmm0, xmm0
  00444	0f 5a c1	 cvtps2pd xmm0, xmm1
  00447	0f 5a d2	 cvtps2pd xmm2, xmm2
  0044a	66 0f 2f d0	 comisd	 xmm2, xmm0
  0044e	76 38		 jbe	 SHORT $LN25@GetSearchT

; 492  : 		{
; 493  : 			if( fCurGap == -1.0f )

  00450	f3 0f 10 45 b4	 movss	 xmm0, DWORD PTR _fCurGap$[ebp]
  00455	0f 2e 05 00 00
	00 00		 ucomiss xmm0, DWORD PTR __real@bf800000
  0045c	9f		 lahf
  0045d	f6 c4 44	 test	 ah, 68			; 00000044H

; 494  : 			{
; 495  : 				fCurGap = fDiffRangeSq;
; 496  : 				szTarget = pChar->GetCharName();

  00460	7b 15		 jnp	 SHORT $LN167@GetSearchT

; 497  : 			}
; 498  : 			else if( fCurGap >= 0.0f && fDiffRangeSq < fCurGap )

  00462	0f 2f 05 00 00
	00 00		 comiss	 xmm0, DWORD PTR __real@00000000
  00469	72 1d		 jb	 SHORT $LN25@GetSearchT
  0046b	0f 5a d1	 cvtps2pd xmm2, xmm1
  0046e	0f 5a c0	 cvtps2pd xmm0, xmm0
  00471	66 0f 2f c2	 comisd	 xmm0, xmm2
  00475	76 11		 jbe	 SHORT $LN25@GetSearchT
$LN167@GetSearchT:

; 499  : 			{
; 500  : 				fCurGap = fDiffRangeSq;
; 501  : 				szTarget = pChar->GetCharName();

  00477	ff 75 b0	 push	 DWORD PTR tv978[ebp]
  0047a	8d 4d 98	 lea	 ecx, DWORD PTR _szTarget$[ebp]
  0047d	f3 0f 11 4d b4	 movss	 DWORD PTR _fCurGap$[ebp], xmm1
  00482	ff 15 00 00 00
	00		 call	 DWORD PTR __imp_??4ioHashString@@QAEAAV0@ABV0@@Z
$LN25@GetSearchT:

; 419  : 
; 420  : 	// Char Check
; 421  : 	const BaseCharList &rkCharList = pStage->GetBaseCharList();
; 422  : 	BaseCharList::const_iterator iter;
; 423  : 
; 424  : 	float fCurGap = -1.0f;
; 425  : 	for( iter=rkCharList.begin() ; iter!=rkCharList.end() ; ++iter )

  00488	8b 45 c8	 mov	 eax, DWORD PTR _iter$[ebp]
  0048b	8b 4d ac	 mov	 ecx, DWORD PTR _pStage$GSCopy$[ebp]
  0048e	83 c0 04	 add	 eax, 4
$LN165@GetSearchT:
  00491	89 45 c8	 mov	 DWORD PTR _iter$[ebp], eax
  00494	3b 41 30	 cmp	 eax, DWORD PTR [ecx+48]
  00497	0f 85 b6 fc ff
	ff		 jne	 $LL63@GetSearchT

; 502  : 			}
; 503  : 		}
; 504  : 	}
; 505  : 
; 506  : 	return szTarget;

  0049d	8b 4d a8	 mov	 ecx, DWORD PTR ___$ReturnUdt$GSCopy$[ebp]
  004a0	8d 45 98	 lea	 eax, DWORD PTR _szTarget$[ebp]
  004a3	50		 push	 eax
  004a4	ff 15 00 00 00
	00		 call	 DWORD PTR __imp_??0ioHashString@@QAE@ABV0@@Z
  004aa	8d 4d 98	 lea	 ecx, DWORD PTR _szTarget$[ebp]
  004ad	c7 45 bc 01 00
	00 00		 mov	 DWORD PTR $T533237[ebp], 1
  004b4	c6 45 fc 00	 mov	 BYTE PTR __$EHRec$[ebp+8], 0
  004b8	ff 15 00 00 00
	00		 call	 DWORD PTR __imp_??1ioHashString@@QAE@XZ
  004be	8b 45 a8	 mov	 eax, DWORD PTR ___$ReturnUdt$GSCopy$[ebp]
$LN32@GetSearchT:

; 507  : }

  004c1	e8 00 00 00 00	 call	 __EH_epilog3_GS
  004c6	c2 0c 00	 ret	 12			; 0000000cH
_TEXT	ENDS
;	COMDAT text$x
text$x	SEGMENT
__unwindfunclet$?GetSearchTarget@ioTargetTrace11Dummy@@IAE?AVioHashString@@PAVioPlayStage@@_N@Z$0:
  00000	8d 4d 98	 lea	 ecx, DWORD PTR _szTarget$[ebp]
  00003	ff 25 00 00 00
	00		 jmp	 DWORD PTR __imp_??1ioHashString@@QAE@XZ
__unwindfunclet$?GetSearchTarget@ioTargetTrace11Dummy@@IAE?AVioHashString@@PAVioPlayStage@@_N@Z$1:
  00009	8b 45 bc	 mov	 eax, DWORD PTR $T533237[ebp]
  0000c	83 e0 01	 and	 eax, 1
  0000f	0f 84 0d 00 00
	00		 je	 $LN36@GetSearchT
  00015	83 65 bc fe	 and	 DWORD PTR $T533237[ebp], -2 ; fffffffeH
  00019	8b 4d a8	 mov	 ecx, DWORD PTR ___$ReturnUdt$GSCopy$[ebp]
  0001c	ff 25 00 00 00
	00		 jmp	 DWORD PTR __imp_??1ioHashString@@QAE@XZ
$LN36@GetSearchT:
  00022	c3		 ret	 0
__ehhandler$?GetSearchTarget@ioTargetTrace11Dummy@@IAE?AVioHashString@@PAVioPlayStage@@_N@Z:
  00023	8b 54 24 08	 mov	 edx, DWORD PTR [esp+8]
  00027	8d 42 0c	 lea	 eax, DWORD PTR [edx+12]
  0002a	8b 8a 50 ff ff
	ff		 mov	 ecx, DWORD PTR [edx-176]
  00030	33 c8		 xor	 ecx, eax
  00032	e8 00 00 00 00	 call	 @__security_check_cookie@4
  00037	8b 4a fc	 mov	 ecx, DWORD PTR [edx-4]
  0003a	33 c8		 xor	 ecx, eax
  0003c	e8 00 00 00 00	 call	 @__security_check_cookie@4
  00041	b8 00 00 00 00	 mov	 eax, OFFSET __ehfuncinfo$?GetSearchTarget@ioTargetTrace11Dummy@@IAE?AVioHashString@@PAVioPlayStage@@_N@Z
  00046	e9 00 00 00 00	 jmp	 ___CxxFrameHandler3
text$x	ENDS
?GetSearchTarget@ioTargetTrace11Dummy@@IAE?AVioHashString@@PAVioPlayStage@@_N@Z ENDP ; ioTargetTrace11Dummy::GetSearchTarget
PUBLIC	__real@4082c00000000000
PUBLIC	?OnProcessTraceJumpAttack@ioTargetTrace11Dummy@@IAEXPAVioPlayStage@@M@Z ; ioTargetTrace11Dummy::OnProcessTraceJumpAttack
EXTRN	?SetJumpAttackState@ioDummyChar@@IAEXXZ:PROC	; ioDummyChar::SetJumpAttackState
EXTRN	?FindAttackTheTarget@ioDummyChar@@IAEXABVioHashString@@@Z:PROC ; ioDummyChar::FindAttackTheTarget
;	COMDAT __real@4082c00000000000
; File d:\lost saga for developer\youtube\tutorial\source\src\lsclient\encryptvalue.h
CONST	SEGMENT
__real@4082c00000000000 DQ 04082c00000000000r	; 600
CONST	ENDS
;	COMDAT xdata$x
xdata$x	SEGMENT
__unwindtable$?OnProcessTraceJumpAttack@ioTargetTrace11Dummy@@IAEXPAVioPlayStage@@M@Z DD 0ffffffffH
	DD	FLAT:__unwindfunclet$?OnProcessTraceJumpAttack@ioTargetTrace11Dummy@@IAEXPAVioPlayStage@@M@Z$0
__ehfuncinfo$?OnProcessTraceJumpAttack@ioTargetTrace11Dummy@@IAEXPAVioPlayStage@@M@Z DD 019930522H
	DD	01H
	DD	FLAT:__unwindtable$?OnProcessTraceJumpAttack@ioTargetTrace11Dummy@@IAEXPAVioPlayStage@@M@Z
	DD	2 DUP(00H)
	DD	2 DUP(00H)
	DD	00H
	DD	01H
; Function compile flags: /Ogsp
; File d:\lost saga for developer\youtube\tutorial\source\src\lsclient\iotargettrace11dummy.cpp
xdata$x	ENDS
;	COMDAT ?OnProcessTraceJumpAttack@ioTargetTrace11Dummy@@IAEXPAVioPlayStage@@M@Z
_TEXT	SEGMENT
_szTargetName$ = -36					; size = 16
_value$533544 = -20					; size = 4
_value$533540 = -16					; size = 4
__$EHRec$ = -12						; size = 12
_pStage$ = 8						; size = 4
_fTimePerSec$ = 12					; size = 4
?OnProcessTraceJumpAttack@ioTargetTrace11Dummy@@IAEXPAVioPlayStage@@M@Z PROC ; ioTargetTrace11Dummy::OnProcessTraceJumpAttack, COMDAT
; _this$ = ecx

; 515  : {

  00000	6a 18		 push	 24			; 00000018H
  00002	b8 00 00 00 00	 mov	 eax, __ehhandler$?OnProcessTraceJumpAttack@ioTargetTrace11Dummy@@IAEXPAVioPlayStage@@M@Z
  00007	e8 00 00 00 00	 call	 __EH_prolog3
  0000c	8b f1		 mov	 esi, ecx

; 516  : 	if ( !pStage )

  0000e	83 7d 08 00	 cmp	 DWORD PTR _pStage$[ebp], 0
  00012	74 6a		 je	 SHORT $LN2@OnProcessT@2

; 517  : 		return;
; 518  : 	m_fSensingRange = JUMP_RANGE * (float)m_fJumpAttackRate;

  00014	8d 45 f0	 lea	 eax, DWORD PTR _value$533540[ebp]
  00017	50		 push	 eax
  00018	8d 8e 44 12 00
	00		 lea	 ecx, DWORD PTR [esi+4676]
  0001e	e8 00 00 00 00	 call	 ?DecryptValueToPool@?$CEncrypt@M@@QAEXPAM@Z ; CEncrypt<float>::DecryptValueToPool
  00023	f3 0f 10 45 f0	 movss	 xmm0, DWORD PTR _value$533540[ebp]
  00028	0f 5a c0	 cvtps2pd xmm0, xmm0
  0002b	f2 0f 59 05 00
	00 00 00	 mulsd	 xmm0, QWORD PTR __real@4082c00000000000
  00033	8d 45 ec	 lea	 eax, DWORD PTR _value$533544[ebp]
  00036	66 0f 5a c0	 cvtpd2ps xmm0, xmm0
  0003a	50		 push	 eax
  0003b	8d 8e 5c 08 00
	00		 lea	 ecx, DWORD PTR [esi+2140]
  00041	f3 0f 11 45 ec	 movss	 DWORD PTR _value$533544[ebp], xmm0
  00046	e8 00 00 00 00	 call	 ?EncryptValueToPool@?$CEncrypt@M@@AAEXPBD@Z ; CEncrypt<float>::EncryptValueToPool

; 519  : 	ioHashString szTargetName = GetSearchTarget( pStage, false );

  0004b	6a 00		 push	 0
  0004d	ff 75 08	 push	 DWORD PTR _pStage$[ebp]
  00050	8d 45 dc	 lea	 eax, DWORD PTR _szTargetName$[ebp]
  00053	50		 push	 eax
  00054	8b ce		 mov	 ecx, esi
  00056	e8 00 00 00 00	 call	 ?GetSearchTarget@ioTargetTrace11Dummy@@IAE?AVioHashString@@PAVioPlayStage@@_N@Z ; ioTargetTrace11Dummy::GetSearchTarget
  0005b	83 65 fc 00	 and	 DWORD PTR __$EHRec$[ebp+8], 0

; 520  : 	FindAttackTheTarget( szTargetName );

  0005f	8d 45 dc	 lea	 eax, DWORD PTR _szTargetName$[ebp]
  00062	50		 push	 eax
  00063	8b ce		 mov	 ecx, esi
  00065	e8 00 00 00 00	 call	 ?FindAttackTheTarget@ioDummyChar@@IAEXABVioHashString@@@Z ; ioDummyChar::FindAttackTheTarget

; 521  : 	SetJumpAttackState();

  0006a	8b ce		 mov	 ecx, esi
  0006c	e8 00 00 00 00	 call	 ?SetJumpAttackState@ioDummyChar@@IAEXXZ ; ioDummyChar::SetJumpAttackState

; 522  : }

  00071	83 4d fc ff	 or	 DWORD PTR __$EHRec$[ebp+8], -1
  00075	8d 4d dc	 lea	 ecx, DWORD PTR _szTargetName$[ebp]
  00078	ff 15 00 00 00
	00		 call	 DWORD PTR __imp_??1ioHashString@@QAE@XZ
$LN2@OnProcessT@2:
  0007e	e8 00 00 00 00	 call	 __EH_epilog3
  00083	c2 08 00	 ret	 8
_TEXT	ENDS
;	COMDAT text$x
text$x	SEGMENT
__unwindfunclet$?OnProcessTraceJumpAttack@ioTargetTrace11Dummy@@IAEXPAVioPlayStage@@M@Z$0:
  00000	8d 4d dc	 lea	 ecx, DWORD PTR _szTargetName$[ebp]
  00003	ff 25 00 00 00
	00		 jmp	 DWORD PTR __imp_??1ioHashString@@QAE@XZ
__ehhandler$?OnProcessTraceJumpAttack@ioTargetTrace11Dummy@@IAEXPAVioPlayStage@@M@Z:
  00009	8b 54 24 08	 mov	 edx, DWORD PTR [esp+8]
  0000d	8d 42 0c	 lea	 eax, DWORD PTR [edx+12]
  00010	8b 4a d8	 mov	 ecx, DWORD PTR [edx-40]
  00013	33 c8		 xor	 ecx, eax
  00015	e8 00 00 00 00	 call	 @__security_check_cookie@4
  0001a	b8 00 00 00 00	 mov	 eax, OFFSET __ehfuncinfo$?OnProcessTraceJumpAttack@ioTargetTrace11Dummy@@IAEXPAVioPlayStage@@M@Z
  0001f	e9 00 00 00 00	 jmp	 ___CxxFrameHandler3
text$x	ENDS
?OnProcessTraceJumpAttack@ioTargetTrace11Dummy@@IAEXPAVioPlayStage@@M@Z ENDP ; ioTargetTrace11Dummy::OnProcessTraceJumpAttack
PUBLIC	?begin@?$list@UFireTime@@V?$allocator@UFireTime@@@std@@@std@@QAE?AV?$_List_iterator@V?$_List_val@UFireTime@@V?$allocator@UFireTime@@@std@@@std@@@2@XZ ; std::list<FireTime,std::allocator<FireTime> >::begin
; Function compile flags: /Ogsp
; File c:\program files (x86)\microsoft visual studio 10.0\vc\include\list
;	COMDAT ?begin@?$list@UFireTime@@V?$allocator@UFireTime@@@std@@@std@@QAE?AV?$_List_iterator@V?$_List_val@UFireTime@@V?$allocator@UFireTime@@@std@@@std@@@2@XZ
_TEXT	SEGMENT
___$ReturnUdt$ = 8					; size = 4
?begin@?$list@UFireTime@@V?$allocator@UFireTime@@@std@@@std@@QAE?AV?$_List_iterator@V?$_List_val@UFireTime@@V?$allocator@UFireTime@@@std@@@std@@@2@XZ PROC ; std::list<FireTime,std::allocator<FireTime> >::begin, COMDAT
; _this$ = ecx

; 781  : 		{	// return iterator for beginning of mutable sequence

  00000	55		 push	 ebp
  00001	8b ec		 mov	 ebp, esp

; 782  : 		return (iterator(this->_Nextnode(this->_Myhead), this));

  00003	8b 01		 mov	 eax, DWORD PTR [ecx]
  00005	8b 08		 mov	 ecx, DWORD PTR [eax]
  00007	8b 45 08	 mov	 eax, DWORD PTR ___$ReturnUdt$[ebp]
  0000a	89 08		 mov	 DWORD PTR [eax], ecx

; 783  : 		}

  0000c	5d		 pop	 ebp
  0000d	c2 04 00	 ret	 4
?begin@?$list@UFireTime@@V?$allocator@UFireTime@@@std@@@std@@QAE?AV?$_List_iterator@V?$_List_val@UFireTime@@V?$allocator@UFireTime@@@std@@@std@@@2@XZ ENDP ; std::list<FireTime,std::allocator<FireTime> >::begin
_TEXT	ENDS
PUBLIC	?end@?$list@UFireTime@@V?$allocator@UFireTime@@@std@@@std@@QAE?AV?$_List_iterator@V?$_List_val@UFireTime@@V?$allocator@UFireTime@@@std@@@std@@@2@XZ ; std::list<FireTime,std::allocator<FireTime> >::end
; Function compile flags: /Ogsp
;	COMDAT ?end@?$list@UFireTime@@V?$allocator@UFireTime@@@std@@@std@@QAE?AV?$_List_iterator@V?$_List_val@UFireTime@@V?$allocator@UFireTime@@@std@@@std@@@2@XZ
_TEXT	SEGMENT
___$ReturnUdt$ = 8					; size = 4
?end@?$list@UFireTime@@V?$allocator@UFireTime@@@std@@@std@@QAE?AV?$_List_iterator@V?$_List_val@UFireTime@@V?$allocator@UFireTime@@@std@@@std@@@2@XZ PROC ; std::list<FireTime,std::allocator<FireTime> >::end, COMDAT
; _this$ = ecx

; 791  : 		{	// return iterator for end of mutable sequence

  00000	55		 push	 ebp
  00001	8b ec		 mov	 ebp, esp

; 792  : 		return (iterator(this->_Myhead, this));

  00003	8b 09		 mov	 ecx, DWORD PTR [ecx]
  00005	8b 45 08	 mov	 eax, DWORD PTR ___$ReturnUdt$[ebp]
  00008	89 08		 mov	 DWORD PTR [eax], ecx

; 793  : 		}

  0000a	5d		 pop	 ebp
  0000b	c2 04 00	 ret	 4
?end@?$list@UFireTime@@V?$allocator@UFireTime@@@std@@@std@@QAE?AV?$_List_iterator@V?$_List_val@UFireTime@@V?$allocator@UFireTime@@@std@@@std@@@2@XZ ENDP ; std::list<FireTime,std::allocator<FireTime> >::end
_TEXT	ENDS
PUBLIC	?_Make_iter@?$list@UFireTime@@V?$allocator@UFireTime@@@std@@@std@@QBE?AV?$_List_iterator@V?$_List_val@UFireTime@@V?$allocator@UFireTime@@@std@@@std@@@2@V?$_List_const_iterator@V?$_List_val@UFireTime@@V?$allocator@UFireTime@@@std@@@std@@@2@@Z ; std::list<FireTime,std::allocator<FireTime> >::_Make_iter
; Function compile flags: /Ogsp
;	COMDAT ?_Make_iter@?$list@UFireTime@@V?$allocator@UFireTime@@@std@@@std@@QBE?AV?$_List_iterator@V?$_List_val@UFireTime@@V?$allocator@UFireTime@@@std@@@std@@@2@V?$_List_const_iterator@V?$_List_val@UFireTime@@V?$allocator@UFireTime@@@std@@@std@@@2@@Z
_TEXT	SEGMENT
___$ReturnUdt$ = 8					; size = 4
__Where$ = 12						; size = 4
?_Make_iter@?$list@UFireTime@@V?$allocator@UFireTime@@@std@@@std@@QBE?AV?$_List_iterator@V?$_List_val@UFireTime@@V?$allocator@UFireTime@@@std@@@std@@@2@V?$_List_const_iterator@V?$_List_val@UFireTime@@V?$allocator@UFireTime@@@std@@@std@@@2@@Z PROC ; std::list<FireTime,std::allocator<FireTime> >::_Make_iter, COMDAT
; _this$ = ecx

; 801  : 		{	// make iterator from const_iterator

  00000	55		 push	 ebp
  00001	8b ec		 mov	 ebp, esp

; 802  : 		return (iterator(_Where._Ptr, this));

  00003	8b 45 08	 mov	 eax, DWORD PTR ___$ReturnUdt$[ebp]
  00006	8b 4d 0c	 mov	 ecx, DWORD PTR __Where$[ebp]
  00009	89 08		 mov	 DWORD PTR [eax], ecx

; 803  : 		}

  0000b	5d		 pop	 ebp
  0000c	c2 08 00	 ret	 8
?_Make_iter@?$list@UFireTime@@V?$allocator@UFireTime@@@std@@@std@@QBE?AV?$_List_iterator@V?$_List_val@UFireTime@@V?$allocator@UFireTime@@@std@@@std@@@2@V?$_List_const_iterator@V?$_List_val@UFireTime@@V?$allocator@UFireTime@@@std@@@std@@@2@@Z ENDP ; std::list<FireTime,std::allocator<FireTime> >::_Make_iter
_TEXT	ENDS
PUBLIC	??$_Destroy@U_Node@?$_List_nod@UFireTime@@V?$allocator@UFireTime@@@std@@@std@@@std@@YAXPAU_Node@?$_List_nod@UFireTime@@V?$allocator@UFireTime@@@std@@@0@@Z ; std::_Destroy<std::_List_nod<FireTime,std::allocator<FireTime> >::_Node>
; Function compile flags: /Ogsp
; File c:\program files (x86)\microsoft visual studio 10.0\vc\include\xmemory
;	COMDAT ??$_Destroy@U_Node@?$_List_nod@UFireTime@@V?$allocator@UFireTime@@@std@@@std@@@std@@YAXPAU_Node@?$_List_nod@UFireTime@@V?$allocator@UFireTime@@@std@@@0@@Z
_TEXT	SEGMENT
__Ptr$ = 8						; size = 4
??$_Destroy@U_Node@?$_List_nod@UFireTime@@V?$allocator@UFireTime@@@std@@@std@@@std@@YAXPAU_Node@?$_List_nod@UFireTime@@V?$allocator@UFireTime@@@std@@@0@@Z PROC ; std::_Destroy<std::_List_nod<FireTime,std::allocator<FireTime> >::_Node>, COMDAT

; 62   : 	{	// destroy object at _Ptr

  00000	55		 push	 ebp
  00001	8b ec		 mov	 ebp, esp

; 63   : 	_Ptr->~_Ty();

  00003	8b 4d 08	 mov	 ecx, DWORD PTR __Ptr$[ebp]
  00006	83 c1 08	 add	 ecx, 8

; 64   : 	}

  00009	5d		 pop	 ebp

; 63   : 	_Ptr->~_Ty();

  0000a	e9 00 00 00 00	 jmp	 ??1FireTime@@QAE@XZ
??$_Destroy@U_Node@?$_List_nod@UFireTime@@V?$allocator@UFireTime@@@std@@@std@@@std@@YAXPAU_Node@?$_List_nod@UFireTime@@V?$allocator@UFireTime@@@std@@@0@@Z ENDP ; std::_Destroy<std::_List_nod<FireTime,std::allocator<FireTime> >::_Node>
_TEXT	ENDS
PUBLIC	?OnProcessTraceSensing@ioTargetTrace11Dummy@@IAEXM@Z ; ioTargetTrace11Dummy::OnProcessTraceSensing
EXTRN	?SetTracingState@ioDummyChar@@IAEXPAVioPlayStage@@_N@Z:PROC ; ioDummyChar::SetTracingState
;	COMDAT xdata$x
; File d:\lost saga for developer\youtube\tutorial\source\src\lsclient\encryptvalue.h
xdata$x	SEGMENT
__unwindtable$?OnProcessTraceSensing@ioTargetTrace11Dummy@@IAEXM@Z DD 0ffffffffH
	DD	FLAT:__unwindfunclet$?OnProcessTraceSensing@ioTargetTrace11Dummy@@IAEXM@Z$0
	DD	00H
	DD	FLAT:__unwindfunclet$?OnProcessTraceSensing@ioTargetTrace11Dummy@@IAEXM@Z$1
__ehfuncinfo$?OnProcessTraceSensing@ioTargetTrace11Dummy@@IAEXM@Z DD 019930522H
	DD	02H
	DD	FLAT:__unwindtable$?OnProcessTraceSensing@ioTargetTrace11Dummy@@IAEXM@Z
	DD	2 DUP(00H)
	DD	2 DUP(00H)
	DD	00H
	DD	01H
; Function compile flags: /Ogsp
; File d:\lost saga for developer\youtube\tutorial\source\src\lsclient\iotargettrace11dummy.cpp
xdata$x	ENDS
;	COMDAT ?OnProcessTraceSensing@ioTargetTrace11Dummy@@IAEXM@Z
_TEXT	SEGMENT
$T533654 = -52						; size = 16
_szTarget$ = -36					; size = 16
_value$533669 = -20					; size = 4
_this$ = -16						; size = 4
__$EHRec$ = -12						; size = 12
_fTimePerSec$ = 8					; size = 4
?OnProcessTraceSensing@ioTargetTrace11Dummy@@IAEXM@Z PROC ; ioTargetTrace11Dummy::OnProcessTraceSensing, COMDAT
; _this$ = ecx

; 176  : {

  00000	6a 28		 push	 40			; 00000028H
  00002	b8 00 00 00 00	 mov	 eax, __ehhandler$?OnProcessTraceSensing@ioTargetTrace11Dummy@@IAEXM@Z
  00007	e8 00 00 00 00	 call	 __EH_prolog3
  0000c	8b f1		 mov	 esi, ecx
  0000e	89 75 f0	 mov	 DWORD PTR _this$[ebp], esi

; 177  : 	ioBaseChar *pOwner = GetOwner();

  00011	e8 00 00 00 00	 call	 ?GetOwner@ioDummyChar@@QBEPAVioBaseChar@@XZ ; ioDummyChar::GetOwner

; 178  : 	if( !pOwner ) 

  00016	85 c0		 test	 eax, eax
  00018	0f 84 d8 00 00
	00		 je	 $LN7@OnProcessT@3

; 179  : 		return;
; 180  : 
; 181  : 	ioPlayStage *pStage = pOwner->GetCreator();

  0001e	8b 98 44 03 00
	00		 mov	 ebx, DWORD PTR [eax+836]

; 182  : 	if( !pStage ) 

  00024	85 db		 test	 ebx, ebx
  00026	0f 84 ca 00 00
	00		 je	 $LN7@OnProcessT@3

; 183  : 		return;
; 184  : 
; 185  : 	if( pOwner->GetExperienceMode() == EMS_EXPERIENCE )

  0002c	8d 88 94 1d 00
	00		 lea	 ecx, DWORD PTR [eax+7572]
  00032	8d 45 ec	 lea	 eax, DWORD PTR _value$533669[ebp]
  00035	50		 push	 eax
  00036	e8 00 00 00 00	 call	 ?DecryptValueToPool@?$CEncrypt@K@@QAEXPAK@Z ; CEncrypt<unsigned long>::DecryptValueToPool
  0003b	83 7d ec 02	 cmp	 DWORD PTR _value$533669[ebp], 2
  0003f	0f 84 b1 00 00
	00		 je	 $LN7@OnProcessT@3

; 186  : 		return;
; 187  : 
; 188  : 	DWORD dwCurTime = FRAMEGETTIME();

  00045	ff 15 00 00 00
	00		 call	 DWORD PTR __imp_?GetSingleton@ioFrameTimer@@SAAAV1@XZ
  0004b	8b c8		 mov	 ecx, eax
  0004d	ff 15 00 00 00
	00		 call	 DWORD PTR __imp_?GetLoopSec@ioFrameTimer@@QBEKXZ

; 189  : 
; 190  : 	if( !m_TargetTraceName.IsEmpty() )

  00053	8d 8e d8 0a 00
	00		 lea	 ecx, DWORD PTR [esi+2776]
  00059	ff 15 00 00 00
	00		 call	 DWORD PTR __imp_?IsEmpty@ioHashString@@QBE_NXZ
  0005f	84 c0		 test	 al, al
  00061	75 0c		 jne	 SHORT $LN3@OnProcessT@3

; 191  : 		m_TargetTraceName.Clear();

  00063	8d 8e d8 0a 00
	00		 lea	 ecx, DWORD PTR [esi+2776]
  00069	ff 15 00 00 00
	00		 call	 DWORD PTR __imp_?Clear@ioHashString@@QAEXXZ
$LN3@OnProcessT@3:

; 192  : 
; 193  : 	ioHashString szTarget;

  0006f	8d 4d dc	 lea	 ecx, DWORD PTR _szTarget$[ebp]
  00072	ff 15 00 00 00
	00		 call	 DWORD PTR __imp_??0ioHashString@@QAE@XZ
  00078	83 65 fc 00	 and	 DWORD PTR __$EHRec$[ebp+8], 0

; 194  : 	szTarget = GetSearchTarget( pStage, false );

  0007c	6a 00		 push	 0
  0007e	53		 push	 ebx
  0007f	8d 45 cc	 lea	 eax, DWORD PTR $T533654[ebp]
  00082	50		 push	 eax
  00083	8b ce		 mov	 ecx, esi
  00085	e8 00 00 00 00	 call	 ?GetSearchTarget@ioTargetTrace11Dummy@@IAE?AVioHashString@@PAVioPlayStage@@_N@Z ; ioTargetTrace11Dummy::GetSearchTarget
  0008a	8b 35 00 00 00
	00		 mov	 esi, DWORD PTR __imp_??4ioHashString@@QAEAAV0@ABV0@@Z
  00090	50		 push	 eax
  00091	8d 4d dc	 lea	 ecx, DWORD PTR _szTarget$[ebp]
  00094	c6 45 fc 01	 mov	 BYTE PTR __$EHRec$[ebp+8], 1
  00098	ff d6		 call	 esi
  0009a	8b 3d 00 00 00
	00		 mov	 edi, DWORD PTR __imp_??1ioHashString@@QAE@XZ
  000a0	8d 4d cc	 lea	 ecx, DWORD PTR $T533654[ebp]
  000a3	c6 45 fc 00	 mov	 BYTE PTR __$EHRec$[ebp+8], 0
  000a7	ff d7		 call	 edi

; 195  : 
; 196  : 	if( !szTarget.IsEmpty() )

  000a9	8d 4d dc	 lea	 ecx, DWORD PTR _szTarget$[ebp]
  000ac	ff 15 00 00 00
	00		 call	 DWORD PTR __imp_?IsEmpty@ioHashString@@QBE_NXZ
  000b2	84 c0		 test	 al, al
  000b4	75 37		 jne	 SHORT $LN1@OnProcessT@3

; 197  : 	{
; 198  : 		ioBaseChar *pTarget = pStage->GetBaseChar( szTarget );

  000b6	8d 45 dc	 lea	 eax, DWORD PTR _szTarget$[ebp]
  000b9	50		 push	 eax
  000ba	8b cb		 mov	 ecx, ebx
  000bc	e8 00 00 00 00	 call	 ?GetBaseChar@ioPlayStage@@QAEPAVioBaseChar@@ABVioHashString@@@Z ; ioPlayStage::GetBaseChar

; 199  : 		if( pTarget && pTarget->IsNeedProcess() )

  000c1	85 c0		 test	 eax, eax
  000c3	74 28		 je	 SHORT $LN1@OnProcessT@3
  000c5	8b 10		 mov	 edx, DWORD PTR [eax]
  000c7	8b c8		 mov	 ecx, eax
  000c9	ff 92 00 01 00
	00		 call	 DWORD PTR [edx+256]
  000cf	84 c0		 test	 al, al
  000d1	74 1a		 je	 SHORT $LN1@OnProcessT@3

; 200  : 		{
; 201  : 			m_TargetTraceName = szTarget;

  000d3	8b 4d f0	 mov	 ecx, DWORD PTR _this$[ebp]
  000d6	8d 45 dc	 lea	 eax, DWORD PTR _szTarget$[ebp]
  000d9	50		 push	 eax
  000da	81 c1 d8 0a 00
	00		 add	 ecx, 2776		; 00000ad8H
  000e0	ff d6		 call	 esi

; 202  : 			SetTracingState( pStage, true );

  000e2	8b 4d f0	 mov	 ecx, DWORD PTR _this$[ebp]
  000e5	6a 01		 push	 1
  000e7	53		 push	 ebx
  000e8	e8 00 00 00 00	 call	 ?SetTracingState@ioDummyChar@@IAEXPAVioPlayStage@@_N@Z ; ioDummyChar::SetTracingState
$LN1@OnProcessT@3:

; 203  : 		}
; 204  : 	}
; 205  : }

  000ed	83 4d fc ff	 or	 DWORD PTR __$EHRec$[ebp+8], -1
  000f1	8d 4d dc	 lea	 ecx, DWORD PTR _szTarget$[ebp]
  000f4	ff d7		 call	 edi
$LN7@OnProcessT@3:
  000f6	e8 00 00 00 00	 call	 __EH_epilog3
  000fb	c2 04 00	 ret	 4
_TEXT	ENDS
;	COMDAT text$x
text$x	SEGMENT
__unwindfunclet$?OnProcessTraceSensing@ioTargetTrace11Dummy@@IAEXM@Z$0:
  00000	8d 4d dc	 lea	 ecx, DWORD PTR _szTarget$[ebp]
  00003	ff 25 00 00 00
	00		 jmp	 DWORD PTR __imp_??1ioHashString@@QAE@XZ
__unwindfunclet$?OnProcessTraceSensing@ioTargetTrace11Dummy@@IAEXM@Z$1:
  00009	8d 4d cc	 lea	 ecx, DWORD PTR $T533654[ebp]
  0000c	ff 25 00 00 00
	00		 jmp	 DWORD PTR __imp_??1ioHashString@@QAE@XZ
__ehhandler$?OnProcessTraceSensing@ioTargetTrace11Dummy@@IAEXM@Z:
  00012	8b 54 24 08	 mov	 edx, DWORD PTR [esp+8]
  00016	8d 42 0c	 lea	 eax, DWORD PTR [edx+12]
  00019	8b 4a c8	 mov	 ecx, DWORD PTR [edx-56]
  0001c	33 c8		 xor	 ecx, eax
  0001e	e8 00 00 00 00	 call	 @__security_check_cookie@4
  00023	b8 00 00 00 00	 mov	 eax, OFFSET __ehfuncinfo$?OnProcessTraceSensing@ioTargetTrace11Dummy@@IAEXM@Z
  00028	e9 00 00 00 00	 jmp	 ___CxxFrameHandler3
text$x	ENDS
?OnProcessTraceSensing@ioTargetTrace11Dummy@@IAEXM@Z ENDP ; ioTargetTrace11Dummy::OnProcessTraceSensing
PUBLIC	?destroy@?$allocator@U_Node@?$_List_nod@UFireTime@@V?$allocator@UFireTime@@@std@@@std@@@std@@QAEXPAU_Node@?$_List_nod@UFireTime@@V?$allocator@UFireTime@@@std@@@2@@Z ; std::allocator<std::_List_nod<FireTime,std::allocator<FireTime> >::_Node>::destroy
; Function compile flags: /Ogsp
; File c:\program files (x86)\microsoft visual studio 10.0\vc\include\xmemory
;	COMDAT ?destroy@?$allocator@U_Node@?$_List_nod@UFireTime@@V?$allocator@UFireTime@@@std@@@std@@@std@@QAEXPAU_Node@?$_List_nod@UFireTime@@V?$allocator@UFireTime@@@std@@@2@@Z
_TEXT	SEGMENT
__Ptr$ = 8						; size = 4
?destroy@?$allocator@U_Node@?$_List_nod@UFireTime@@V?$allocator@UFireTime@@@std@@@std@@@std@@QAEXPAU_Node@?$_List_nod@UFireTime@@V?$allocator@UFireTime@@@std@@@2@@Z PROC ; std::allocator<std::_List_nod<FireTime,std::allocator<FireTime> >::_Node>::destroy, COMDAT
; _this$ = ecx

; 212  : 		{	// destroy object at _Ptr

  00000	55		 push	 ebp
  00001	8b ec		 mov	 ebp, esp

; 213  : 		_Destroy(_Ptr);

  00003	8b 4d 08	 mov	 ecx, DWORD PTR __Ptr$[ebp]
  00006	83 c1 08	 add	 ecx, 8
  00009	e8 00 00 00 00	 call	 ??1FireTime@@QAE@XZ

; 214  : 		}

  0000e	5d		 pop	 ebp
  0000f	c2 04 00	 ret	 4
?destroy@?$allocator@U_Node@?$_List_nod@UFireTime@@V?$allocator@UFireTime@@@std@@@std@@@std@@QAEXPAU_Node@?$_List_nod@UFireTime@@V?$allocator@UFireTime@@@std@@@2@@Z ENDP ; std::allocator<std::_List_nod<FireTime,std::allocator<FireTime> >::_Node>::destroy
_TEXT	ENDS
PUBLIC	??$_Dest_val@V?$allocator@U_Node@?$_List_nod@UFireTime@@V?$allocator@UFireTime@@@std@@@std@@@std@@U_Node@?$_List_nod@UFireTime@@V?$allocator@UFireTime@@@std@@@2@@std@@YAXAAV?$allocator@U_Node@?$_List_nod@UFireTime@@V?$allocator@UFireTime@@@std@@@std@@@0@PAU_Node@?$_List_nod@UFireTime@@V?$allocator@UFireTime@@@std@@@0@@Z ; std::_Dest_val<std::allocator<std::_List_nod<FireTime,std::allocator<FireTime> >::_Node>,std::_List_nod<FireTime,std::allocator<FireTime> >::_Node>
; Function compile flags: /Ogsp
;	COMDAT ??$_Dest_val@V?$allocator@U_Node@?$_List_nod@UFireTime@@V?$allocator@UFireTime@@@std@@@std@@@std@@U_Node@?$_List_nod@UFireTime@@V?$allocator@UFireTime@@@std@@@2@@std@@YAXAAV?$allocator@U_Node@?$_List_nod@UFireTime@@V?$allocator@UFireTime@@@std@@@std@@@0@PAU_Node@?$_List_nod@UFireTime@@V?$allocator@UFireTime@@@std@@@0@@Z
_TEXT	SEGMENT
__Alval$ = 8						; size = 4
__Pdest$ = 12						; size = 4
??$_Dest_val@V?$allocator@U_Node@?$_List_nod@UFireTime@@V?$allocator@UFireTime@@@std@@@std@@@std@@U_Node@?$_List_nod@UFireTime@@V?$allocator@UFireTime@@@std@@@2@@std@@YAXAAV?$allocator@U_Node@?$_List_nod@UFireTime@@V?$allocator@UFireTime@@@std@@@std@@@0@PAU_Node@?$_List_nod@UFireTime@@V?$allocator@UFireTime@@@std@@@0@@Z PROC ; std::_Dest_val<std::allocator<std::_List_nod<FireTime,std::allocator<FireTime> >::_Node>,std::_List_nod<FireTime,std::allocator<FireTime> >::_Node>, COMDAT

; 286  : 	{	// destroy using allocator

  00000	55		 push	 ebp
  00001	8b ec		 mov	 ebp, esp

; 287  : 	_Alval.destroy(_Pdest);

  00003	8b 4d 0c	 mov	 ecx, DWORD PTR __Pdest$[ebp]
  00006	83 c1 08	 add	 ecx, 8

; 288  : 	}

  00009	5d		 pop	 ebp

; 287  : 	_Alval.destroy(_Pdest);

  0000a	e9 00 00 00 00	 jmp	 ??1FireTime@@QAE@XZ
??$_Dest_val@V?$allocator@U_Node@?$_List_nod@UFireTime@@V?$allocator@UFireTime@@@std@@@std@@@std@@U_Node@?$_List_nod@UFireTime@@V?$allocator@UFireTime@@@std@@@2@@std@@YAXAAV?$allocator@U_Node@?$_List_nod@UFireTime@@V?$allocator@UFireTime@@@std@@@std@@@0@PAU_Node@?$_List_nod@UFireTime@@V?$allocator@UFireTime@@@std@@@0@@Z ENDP ; std::_Dest_val<std::allocator<std::_List_nod<FireTime,std::allocator<FireTime> >::_Node>,std::_List_nod<FireTime,std::allocator<FireTime> >::_Node>
_TEXT	ENDS
PUBLIC	?erase@?$list@UFireTime@@V?$allocator@UFireTime@@@std@@@std@@QAE?AV?$_List_iterator@V?$_List_val@UFireTime@@V?$allocator@UFireTime@@@std@@@std@@@2@V?$_List_const_iterator@V?$_List_val@UFireTime@@V?$allocator@UFireTime@@@std@@@std@@@2@@Z ; std::list<FireTime,std::allocator<FireTime> >::erase
; Function compile flags: /Ogsp
; File c:\program files (x86)\microsoft visual studio 10.0\vc\include\list
;	COMDAT ?erase@?$list@UFireTime@@V?$allocator@UFireTime@@@std@@@std@@QAE?AV?$_List_iterator@V?$_List_val@UFireTime@@V?$allocator@UFireTime@@@std@@@std@@@2@V?$_List_const_iterator@V?$_List_val@UFireTime@@V?$allocator@UFireTime@@@std@@@std@@@2@@Z
_TEXT	SEGMENT
___$ReturnUdt$ = 8					; size = 4
__Where$ = 12						; size = 4
?erase@?$list@UFireTime@@V?$allocator@UFireTime@@@std@@@std@@QAE?AV?$_List_iterator@V?$_List_val@UFireTime@@V?$allocator@UFireTime@@@std@@@std@@@2@V?$_List_const_iterator@V?$_List_val@UFireTime@@V?$allocator@UFireTime@@@std@@@std@@@2@@Z PROC ; std::list<FireTime,std::allocator<FireTime> >::erase, COMDAT
; _this$ = ecx

; 1054 : 		{	// erase element at _Where

  00000	55		 push	 ebp
  00001	8b ec		 mov	 ebp, esp
  00003	56		 push	 esi

; 1055 :  #if _ITERATOR_DEBUG_LEVEL == 2
; 1056 : 		if (_Where._Getcont() != this || _Where._Ptr == this->_Myhead)
; 1057 : 			_DEBUG_ERROR("list erase iterator outside range");
; 1058 : 		_Nodeptr _Pnode = (_Where++)._Mynode();
; 1059 : 		_Orphan_ptr(*this, _Pnode);
; 1060 : 
; 1061 :  #else /* _ITERATOR_DEBUG_LEVEL == 2 */
; 1062 : 		_Nodeptr _Pnode = (_Where++)._Mynode();

  00004	8b 75 0c	 mov	 esi, DWORD PTR __Where$[ebp]
  00007	8b 06		 mov	 eax, DWORD PTR [esi]
  00009	57		 push	 edi
  0000a	8b f9		 mov	 edi, ecx
  0000c	89 45 0c	 mov	 DWORD PTR __Where$[ebp], eax

; 1063 :  #endif /* _ITERATOR_DEBUG_LEVEL == 2 */
; 1064 : 
; 1065 : 		if (_Pnode != this->_Myhead)

  0000f	3b 37		 cmp	 esi, DWORD PTR [edi]
  00011	74 21		 je	 SHORT $LN1@erase

; 1066 : 			{	// not list head, safe to erase
; 1067 : 			this->_Nextnode(this->_Prevnode(_Pnode)) =
; 1068 : 				this->_Nextnode(_Pnode);

  00013	8b 46 04	 mov	 eax, DWORD PTR [esi+4]
  00016	8b 0e		 mov	 ecx, DWORD PTR [esi]
  00018	89 08		 mov	 DWORD PTR [eax], ecx

; 1069 : 			this->_Prevnode(this->_Nextnode(_Pnode)) =
; 1070 : 				this->_Prevnode(_Pnode);

  0001a	8b 4e 04	 mov	 ecx, DWORD PTR [esi+4]
  0001d	8b 06		 mov	 eax, DWORD PTR [esi]
  0001f	89 48 04	 mov	 DWORD PTR [eax+4], ecx

; 1071 : 
; 1072 : 			_Dest_val(this->_Alnod, _Pnode);

  00022	8d 4e 08	 lea	 ecx, DWORD PTR [esi+8]
  00025	e8 00 00 00 00	 call	 ??1FireTime@@QAE@XZ

; 1073 : 			this->_Alnod.deallocate(_Pnode, 1);

  0002a	56		 push	 esi
  0002b	e8 00 00 00 00	 call	 ??3@YAXPAX@Z		; operator delete

; 1074 : 
; 1075 : 			--this->_Mysize;

  00030	ff 4f 04	 dec	 DWORD PTR [edi+4]
  00033	59		 pop	 ecx
$LN1@erase:

; 1076 : 			}
; 1077 : 		return (_Make_iter(_Where));

  00034	8b 45 08	 mov	 eax, DWORD PTR ___$ReturnUdt$[ebp]
  00037	8b 4d 0c	 mov	 ecx, DWORD PTR __Where$[ebp]
  0003a	5f		 pop	 edi
  0003b	89 08		 mov	 DWORD PTR [eax], ecx
  0003d	5e		 pop	 esi

; 1078 : 		}

  0003e	5d		 pop	 ebp
  0003f	c2 08 00	 ret	 8
?erase@?$list@UFireTime@@V?$allocator@UFireTime@@@std@@@std@@QAE?AV?$_List_iterator@V?$_List_val@UFireTime@@V?$allocator@UFireTime@@@std@@@std@@@2@V?$_List_const_iterator@V?$_List_val@UFireTime@@V?$allocator@UFireTime@@@std@@@std@@@2@@Z ENDP ; std::list<FireTime,std::allocator<FireTime> >::erase
_TEXT	ENDS
PUBLIC	?OnProcessTraceAttack@ioTargetTrace11Dummy@@IAEXMK@Z ; ioTargetTrace11Dummy::OnProcessTraceAttack
EXTRN	?SetZoneValue@ioZoneEffectWeapon@@QAEX_N0@Z:PROC ; ioZoneEffectWeapon::SetZoneValue
EXTRN	?SetCollisionDir@ioZoneEffectWeapon@@QAEXAAUD3DXVECTOR3@@@Z:PROC ; ioZoneEffectWeapon::SetCollisionDir
EXTRN	?ExtendFireExplicit@ioBaseChar@@QAEPAVioWeapon@@ABUFireTime@@ABUD3DXVECTOR3@@1ABVioHashString@@@Z:PROC ; ioBaseChar::ExtendFireExplicit
;	COMDAT xdata$x
xdata$x	SEGMENT
__unwindtable$?OnProcessTraceAttack@ioTargetTrace11Dummy@@IAEXMK@Z DD 0ffffffffH
	DD	FLAT:__unwindfunclet$?OnProcessTraceAttack@ioTargetTrace11Dummy@@IAEXMK@Z$0
__ehfuncinfo$?OnProcessTraceAttack@ioTargetTrace11Dummy@@IAEXMK@Z DD 019930522H
	DD	01H
	DD	FLAT:__unwindtable$?OnProcessTraceAttack@ioTargetTrace11Dummy@@IAEXMK@Z
	DD	2 DUP(00H)
	DD	2 DUP(00H)
	DD	00H
	DD	01H
; Function compile flags: /Ogsp
; File d:\lost saga for developer\youtube\tutorial\source\src\lsclient\iotargettrace11dummy.cpp
xdata$x	ENDS
;	COMDAT ?OnProcessTraceAttack@ioTargetTrace11Dummy@@IAEXMK@Z
_TEXT	SEGMENT
$T533856 = -72						; size = 4
_pOwner$ = -68						; size = 4
_dwCurTime$ = -64					; size = 4
tv474 = -60						; size = 4
tv470 = -60						; size = 4
tv466 = -60						; size = 4
$T533854 = -56						; size = 16
$T530943 = -52						; size = 12
_vCurPos$ = -40						; size = 12
_vCurDir$ = -28						; size = 12
__$EHRec$ = -12						; size = 12
_fTimePerSec$ = 8					; size = 4
_dwPreTime$ = 12					; size = 4
?OnProcessTraceAttack@ioTargetTrace11Dummy@@IAEXMK@Z PROC ; ioTargetTrace11Dummy::OnProcessTraceAttack, COMDAT
; _this$ = ecx

; 315  : {

  00000	6a 3c		 push	 60			; 0000003cH
  00002	b8 00 00 00 00	 mov	 eax, __ehhandler$?OnProcessTraceAttack@ioTargetTrace11Dummy@@IAEXMK@Z
  00007	e8 00 00 00 00	 call	 __EH_prolog3_GS
  0000c	8b f1		 mov	 esi, ecx

; 316  : 	ioBaseChar *pOwner = GetOwner();

  0000e	e8 00 00 00 00	 call	 ?GetOwner@ioDummyChar@@QBEPAVioBaseChar@@XZ ; ioDummyChar::GetOwner
  00013	89 45 bc	 mov	 DWORD PTR _pOwner$[ebp], eax

; 317  : 	if( !pOwner ) 

  00016	85 c0		 test	 eax, eax
  00018	0f 84 6c 01 00
	00		 je	 $LN2@OnProcessT@4

; 318  : 		return;
; 319  : 
; 320  : 	ioPlayStage *pStage = pOwner->GetCreator();
; 321  : 	if( !pStage ) 

  0001e	83 b8 44 03 00
	00 00		 cmp	 DWORD PTR [eax+836], 0
  00025	0f 84 5f 01 00
	00		 je	 $LN2@OnProcessT@4

; 322  : 		return;
; 323  : 
; 324  : 	DWORD dwCurTime = FRAMEGETTIME();

  0002b	ff 15 00 00 00
	00		 call	 DWORD PTR __imp_?GetSingleton@ioFrameTimer@@SAAAV1@XZ
  00031	8b c8		 mov	 ecx, eax
  00033	ff 15 00 00 00
	00		 call	 DWORD PTR __imp_?GetLoopSec@ioFrameTimer@@QBEKXZ

; 325  : 
; 326  : 	D3DXVECTOR3 vCurDir = GetWorldOrientation() * D3DXVECTOR3( 0.0f, 0.0f, -1.0f );

  00039	0f 57 c0	 xorps	 xmm0, xmm0
  0003c	89 45 c0	 mov	 DWORD PTR _dwCurTime$[ebp], eax
  0003f	8d 45 cc	 lea	 eax, DWORD PTR $T530943[ebp]
  00042	f3 0f 11 45 cc	 movss	 DWORD PTR $T530943[ebp], xmm0
  00047	f3 0f 11 45 d0	 movss	 DWORD PTR $T530943[ebp+4], xmm0
  0004c	f3 0f 10 05 00
	00 00 00	 movss	 xmm0, DWORD PTR __real@bf800000
  00054	50		 push	 eax
  00055	8b 06		 mov	 eax, DWORD PTR [esi]
  00057	8b ce		 mov	 ecx, esi
  00059	f3 0f 11 45 d4	 movss	 DWORD PTR $T530943[ebp+8], xmm0
  0005e	ff 50 74	 call	 DWORD PTR [eax+116]
  00061	50		 push	 eax
  00062	8d 45 e4	 lea	 eax, DWORD PTR _vCurDir$[ebp]
  00065	50		 push	 eax
  00066	ff 15 00 00 00
	00		 call	 DWORD PTR __imp_??D@YA?AUD3DXVECTOR3@@ABUD3DXQUATERNION@@ABU0@@Z
  0006c	83 c4 0c	 add	 esp, 12			; 0000000cH

; 327  : 	D3DXVec3Normalize( &vCurDir, &vCurDir );

  0006f	8d 45 e4	 lea	 eax, DWORD PTR _vCurDir$[ebp]
  00072	50		 push	 eax
  00073	50		 push	 eax
  00074	e8 00 00 00 00	 call	 _D3DXVec3Normalize@8

; 328  : 
; 329  : 	D3DXVECTOR3 vCurPos = GetMidPositionByRate();

  00079	b8 05 00 00 00	 mov	 eax, 5
  0007e	8b c8		 mov	 ecx, eax
  00080	b8 0a 00 00 00	 mov	 eax, 10			; 0000000aH
  00085	89 4d c4	 mov	 DWORD PTR tv474[ebp], ecx
  00088	db 45 c4	 fild	 DWORD PTR tv474[ebp]
  0008b	85 c9		 test	 ecx, ecx
  0008d	79 06		 jns	 SHORT $LN62@OnProcessT@4
  0008f	d8 05 00 00 00
	00		 fadd	 DWORD PTR __real@4f800000
$LN62@OnProcessT@4:
  00095	89 45 c4	 mov	 DWORD PTR tv470[ebp], eax
  00098	db 45 c4	 fild	 DWORD PTR tv470[ebp]
  0009b	85 c0		 test	 eax, eax
  0009d	79 06		 jns	 SHORT $LN63@OnProcessT@4
  0009f	d8 05 00 00 00
	00		 fadd	 DWORD PTR __real@4f800000
$LN63@OnProcessT@4:
  000a5	de f9		 fdivp	 ST(1), ST(0)
  000a7	51		 push	 ecx
  000a8	8d 45 d8	 lea	 eax, DWORD PTR _vCurPos$[ebp]
  000ab	8b ce		 mov	 ecx, esi
  000ad	d9 5d c4	 fstp	 DWORD PTR tv466[ebp]
  000b0	d9 45 c4	 fld	 DWORD PTR tv466[ebp]
  000b3	d9 1c 24	 fstp	 DWORD PTR [esp]
  000b6	50		 push	 eax
  000b7	e8 00 00 00 00	 call	 ?GetMidPositionByRate@ioGameEntity@@QBE?AUD3DXVECTOR3@@M@Z ; ioGameEntity::GetMidPositionByRate

; 330  : 
; 331  : 	DWORD dwLastFireTime = dwPreTime;
; 332  : 	FireTimeList::iterator iter = m_vAttackFireTimeList.begin();

  000bc	8b 86 78 05 00
	00		 mov	 eax, DWORD PTR [esi+1400]
  000c2	8b 38		 mov	 edi, DWORD PTR [eax]

; 333  : 	while( iter != m_vAttackFireTimeList.end() )

  000c4	3b f8		 cmp	 edi, eax
  000c6	0f 84 90 00 00
	00		 je	 $LN7@OnProcessT@4
$LL8@OnProcessT@4:

; 334  : 	{
; 335  : 		const FireTime &rkFire = *iter;

  000cc	8d 5f 08	 lea	 ebx, DWORD PTR [edi+8]

; 336  : 
; 337  : 		DWORD dwFireTime = rkFire.dwStart;

  000cf	8b 03		 mov	 eax, DWORD PTR [ebx]

; 338  : 		if( COMPARE( dwFireTime, dwPreTime, dwCurTime ) )

  000d1	3b 45 0c	 cmp	 eax, DWORD PTR _dwPreTime$[ebp]
  000d4	72 78		 jb	 SHORT $LN6@OnProcessT@4
  000d6	3b 45 c0	 cmp	 eax, DWORD PTR _dwCurTime$[ebp]
  000d9	73 73		 jae	 SHORT $LN6@OnProcessT@4

; 339  : 		{
; 340  : 			if( rkFire.iAttributeIdx != NO_WEAPON_ATTRIBUTE )

  000db	83 7b 08 00	 cmp	 DWORD PTR [ebx+8], 0
  000df	74 59		 je	 SHORT $LN4@OnProcessT@4

; 341  : 			{
; 342  : 				ioWeapon* pWeapon = pOwner->ExtendFireExplicit( rkFire, vCurPos, vCurDir, "" );

  000e1	68 00 00 00 00	 push	 OFFSET ??_C@_00CNPNBAHC@?$AA@
  000e6	8d 4d c8	 lea	 ecx, DWORD PTR $T533854[ebp]
  000e9	ff 15 00 00 00
	00		 call	 DWORD PTR __imp_??0ioHashString@@QAE@PBD@Z
  000ef	8b 4d bc	 mov	 ecx, DWORD PTR _pOwner$[ebp]
  000f2	83 65 fc 00	 and	 DWORD PTR __$EHRec$[ebp+8], 0
  000f6	8d 45 c8	 lea	 eax, DWORD PTR $T533854[ebp]
  000f9	50		 push	 eax
  000fa	8d 45 e4	 lea	 eax, DWORD PTR _vCurDir$[ebp]
  000fd	50		 push	 eax
  000fe	8d 45 d8	 lea	 eax, DWORD PTR _vCurPos$[ebp]
  00101	50		 push	 eax
  00102	53		 push	 ebx
  00103	e8 00 00 00 00	 call	 ?ExtendFireExplicit@ioBaseChar@@QAEPAVioWeapon@@ABUFireTime@@ABUD3DXVECTOR3@@1ABVioHashString@@@Z ; ioBaseChar::ExtendFireExplicit
  00108	83 4d fc ff	 or	 DWORD PTR __$EHRec$[ebp+8], -1
  0010c	8d 4d c8	 lea	 ecx, DWORD PTR $T533854[ebp]
  0010f	8b d8		 mov	 ebx, eax
  00111	ff 15 00 00 00
	00		 call	 DWORD PTR __imp_??1ioHashString@@QAE@XZ

; 343  : 				ioZoneEffectWeapon *pZone = ToZoneEffectWeapon( pWeapon );

  00117	53		 push	 ebx
  00118	e8 00 00 00 00	 call	 ?ToZoneEffectWeapon@@YAPAVioZoneEffectWeapon@@PAVioWeapon@@@Z ; ToZoneEffectWeapon
  0011d	8b d8		 mov	 ebx, eax
  0011f	59		 pop	 ecx

; 344  : 				if( pZone )

  00120	85 db		 test	 ebx, ebx
  00122	74 16		 je	 SHORT $LN4@OnProcessT@4

; 345  : 				{
; 346  : 					pZone->SetCollisionDir( vCurDir );

  00124	8d 45 e4	 lea	 eax, DWORD PTR _vCurDir$[ebp]
  00127	50		 push	 eax
  00128	8b cb		 mov	 ecx, ebx
  0012a	e8 00 00 00 00	 call	 ?SetCollisionDir@ioZoneEffectWeapon@@QAEXAAUD3DXVECTOR3@@@Z ; ioZoneEffectWeapon::SetCollisionDir

; 347  : 					pZone->SetZoneValue( true, false );

  0012f	6a 00		 push	 0
  00131	6a 01		 push	 1
  00133	8b cb		 mov	 ecx, ebx
  00135	e8 00 00 00 00	 call	 ?SetZoneValue@ioZoneEffectWeapon@@QAEX_N0@Z ; ioZoneEffectWeapon::SetZoneValue
$LN4@OnProcessT@4:

; 348  : 				}
; 349  : 			}
; 350  : 
; 351  : 			iter = m_vAttackFireTimeList.erase( iter );

  0013a	57		 push	 edi
  0013b	8d 45 b8	 lea	 eax, DWORD PTR $T533856[ebp]
  0013e	50		 push	 eax
  0013f	8d 8e 78 05 00
	00		 lea	 ecx, DWORD PTR [esi+1400]
  00145	e8 00 00 00 00	 call	 ?erase@?$list@UFireTime@@V?$allocator@UFireTime@@@std@@@std@@QAE?AV?$_List_iterator@V?$_List_val@UFireTime@@V?$allocator@UFireTime@@@std@@@std@@@2@V?$_List_const_iterator@V?$_List_val@UFireTime@@V?$allocator@UFireTime@@@std@@@std@@@2@@Z ; std::list<FireTime,std::allocator<FireTime> >::erase
  0014a	8b 38		 mov	 edi, DWORD PTR [eax]

; 352  : 		}
; 353  : 		else

  0014c	eb 02		 jmp	 SHORT $LN56@OnProcessT@4
$LN6@OnProcessT@4:

; 354  : 		{
; 355  : 			++iter;

  0014e	8b 3f		 mov	 edi, DWORD PTR [edi]
$LN56@OnProcessT@4:

; 333  : 	while( iter != m_vAttackFireTimeList.end() )

  00150	3b be 78 05 00
	00		 cmp	 edi, DWORD PTR [esi+1400]
  00156	0f 85 70 ff ff
	ff		 jne	 $LL8@OnProcessT@4
$LN7@OnProcessT@4:

; 356  : 		}
; 357  : 	}
; 358  : 
; 359  : 	if( m_dwAttackAniEndTime == 0 || m_dwAttackAniEndTime < dwCurTime )

  0015c	8b 86 e8 06 00
	00		 mov	 eax, DWORD PTR [esi+1768]
  00162	85 c0		 test	 eax, eax
  00164	74 05		 je	 SHORT $LN1@OnProcessT@4
  00166	3b 45 c0	 cmp	 eax, DWORD PTR _dwCurTime$[ebp]
  00169	73 1f		 jae	 SHORT $LN2@OnProcessT@4
$LN1@OnProcessT@4:

; 360  : 	{
; 361  : 		m_LastAttacker = m_OwnerName;

  0016b	8d 86 cc 01 00
	00		 lea	 eax, DWORD PTR [esi+460]
  00171	50		 push	 eax
  00172	8d 8e 30 05 00
	00		 lea	 ecx, DWORD PTR [esi+1328]
  00178	ff 15 00 00 00
	00		 call	 DWORD PTR __imp_??4ioHashString@@QAEAAV0@ABV0@@Z

; 362  : 		SetDelayState( false );

  0017e	8b 06		 mov	 eax, DWORD PTR [esi]
  00180	6a 00		 push	 0
  00182	8b ce		 mov	 ecx, esi
  00184	ff 90 14 01 00
	00		 call	 DWORD PTR [eax+276]
$LN2@OnProcessT@4:

; 363  : 		return;
; 364  : 	}
; 365  : }

  0018a	e8 00 00 00 00	 call	 __EH_epilog3_GS
  0018f	c2 08 00	 ret	 8
_TEXT	ENDS
;	COMDAT text$x
text$x	SEGMENT
__unwindfunclet$?OnProcessTraceAttack@ioTargetTrace11Dummy@@IAEXMK@Z$0:
  00000	8d 4d c8	 lea	 ecx, DWORD PTR $T533854[ebp]
  00003	ff 25 00 00 00
	00		 jmp	 DWORD PTR __imp_??1ioHashString@@QAE@XZ
__ehhandler$?OnProcessTraceAttack@ioTargetTrace11Dummy@@IAEXMK@Z:
  00009	8b 54 24 08	 mov	 edx, DWORD PTR [esp+8]
  0000d	8d 42 0c	 lea	 eax, DWORD PTR [edx+12]
  00010	8b 4a b4	 mov	 ecx, DWORD PTR [edx-76]
  00013	33 c8		 xor	 ecx, eax
  00015	e8 00 00 00 00	 call	 @__security_check_cookie@4
  0001a	8b 4a fc	 mov	 ecx, DWORD PTR [edx-4]
  0001d	33 c8		 xor	 ecx, eax
  0001f	e8 00 00 00 00	 call	 @__security_check_cookie@4
  00024	b8 00 00 00 00	 mov	 eax, OFFSET __ehfuncinfo$?OnProcessTraceAttack@ioTargetTrace11Dummy@@IAEXMK@Z
  00029	e9 00 00 00 00	 jmp	 ___CxxFrameHandler3
text$x	ENDS
?OnProcessTraceAttack@ioTargetTrace11Dummy@@IAEXMK@Z ENDP ; ioTargetTrace11Dummy::OnProcessTraceAttack
PUBLIC	?OnProcessTraceState@ioTargetTrace11Dummy@@IAEXMK@Z ; ioTargetTrace11Dummy::OnProcessTraceState
EXTRN	?CheckTraceAttack@ioDummyChar@@IAEXXZ:PROC	; ioDummyChar::CheckTraceAttack
EXTRN	?CheckExtraAniJump@ioDummyChar@@IAEXXZ:PROC	; ioDummyChar::CheckExtraAniJump
EXTRN	?CheckReservedSliding@ioDummyChar@@QAEXXZ:PROC	; ioDummyChar::CheckReservedSliding
EXTRN	?ProcessTraceTracingWait@ioDummyChar@@IAEXMK@Z:PROC ; ioDummyChar::ProcessTraceTracingWait
; Function compile flags: /Ogsp
;	COMDAT ?OnProcessTraceState@ioTargetTrace11Dummy@@IAEXMK@Z
_TEXT	SEGMENT
_fTimePerSec$ = 8					; size = 4
_dwPreTime$ = 12					; size = 4
?OnProcessTraceState@ioTargetTrace11Dummy@@IAEXMK@Z PROC ; ioTargetTrace11Dummy::OnProcessTraceState, COMDAT
; _this$ = ecx

; 138  : {

  00000	55		 push	 ebp
  00001	8b ec		 mov	 ebp, esp
  00003	56		 push	 esi
  00004	8b f1		 mov	 esi, ecx

; 139  : 	ioBaseChar *pOwner = GetOwner();

  00006	e8 00 00 00 00	 call	 ?GetOwner@ioDummyChar@@QBEPAVioBaseChar@@XZ ; ioDummyChar::GetOwner

; 140  : 	if( !pOwner ) 

  0000b	85 c0		 test	 eax, eax
  0000d	0f 84 b3 00 00
	00		 je	 $LN11@OnProcessT@5

; 141  : 		return;
; 142  : 
; 143  : 	ioPlayStage *pStage = pOwner->GetCreator();

  00013	57		 push	 edi
  00014	8b b8 44 03 00
	00		 mov	 edi, DWORD PTR [eax+836]

; 144  : 	if( !pStage ) 

  0001a	85 ff		 test	 edi, edi
  0001c	0f 84 a3 00 00
	00		 je	 $LN15@OnProcessT@5

; 145  : 		return;
; 146  : 
; 147  : 	DWORD dwCurTime = FRAMEGETTIME();

  00022	ff 15 00 00 00
	00		 call	 DWORD PTR __imp_?GetSingleton@ioFrameTimer@@SAAAV1@XZ
  00028	8b c8		 mov	 ecx, eax
  0002a	ff 15 00 00 00
	00		 call	 DWORD PTR __imp_?GetLoopSec@ioFrameTimer@@QBEKXZ

; 148  : 
; 149  : 	switch( m_TraceState )

  00030	8b 86 34 07 00
	00		 mov	 eax, DWORD PTR [esi+1844]
  00036	48		 dec	 eax
  00037	48		 dec	 eax
  00038	74 72		 je	 SHORT $LN5@OnProcessT@5
  0003a	48		 dec	 eax
  0003b	74 5b		 je	 SHORT $LN4@OnProcessT@5
  0003d	48		 dec	 eax
  0003e	74 33		 je	 SHORT $LN3@OnProcessT@5
  00040	48		 dec	 eax
  00041	74 1b		 je	 SHORT $LN1@OnProcessT@5
  00043	48		 dec	 eax
  00044	48		 dec	 eax
  00045	75 77		 jne	 SHORT $LN7@OnProcessT@5

; 164  : 	case DCTS_TRACING_WAIT:
; 165  : 		ProcessTraceTracingWait( fTimePerSec, dwPreTime );

  00047	ff 75 0c	 push	 DWORD PTR _dwPreTime$[ebp]
  0004a	f3 0f 10 45 08	 movss	 xmm0, DWORD PTR _fTimePerSec$[ebp]
  0004f	51		 push	 ecx
  00050	8b ce		 mov	 ecx, esi
  00052	f3 0f 11 04 24	 movss	 DWORD PTR [esp], xmm0
  00057	e8 00 00 00 00	 call	 ?ProcessTraceTracingWait@ioDummyChar@@IAEXMK@Z ; ioDummyChar::ProcessTraceTracingWait

; 166  : 		break;

  0005c	eb 60		 jmp	 SHORT $LN7@OnProcessT@5
$LN1@OnProcessT@5:

; 167  : 	case DCTS_TARGET_JUMP:
; 168  : 		OnProcessTraceJumpAttack( pStage, fTimePerSec );

  0005e	f3 0f 10 45 08	 movss	 xmm0, DWORD PTR _fTimePerSec$[ebp]
  00063	51		 push	 ecx
  00064	f3 0f 11 04 24	 movss	 DWORD PTR [esp], xmm0
  00069	57		 push	 edi
  0006a	8b ce		 mov	 ecx, esi
  0006c	e8 00 00 00 00	 call	 ?OnProcessTraceJumpAttack@ioTargetTrace11Dummy@@IAEXPAVioPlayStage@@M@Z ; ioTargetTrace11Dummy::OnProcessTraceJumpAttack

; 169  : 		break;

  00071	eb 4b		 jmp	 SHORT $LN7@OnProcessT@5
$LN3@OnProcessT@5:

; 159  : 	case DCTS_ATTACK:
; 160  : 		CheckReservedSliding();

  00073	8b ce		 mov	 ecx, esi
  00075	e8 00 00 00 00	 call	 ?CheckReservedSliding@ioDummyChar@@QAEXXZ ; ioDummyChar::CheckReservedSliding

; 161  : 		CheckExtraAniJump();

  0007a	8b ce		 mov	 ecx, esi
  0007c	e8 00 00 00 00	 call	 ?CheckExtraAniJump@ioDummyChar@@IAEXXZ ; ioDummyChar::CheckExtraAniJump

; 162  : 		OnProcessTraceAttack( fTimePerSec, dwPreTime );

  00081	ff 75 0c	 push	 DWORD PTR _dwPreTime$[ebp]
  00084	f3 0f 10 45 08	 movss	 xmm0, DWORD PTR _fTimePerSec$[ebp]
  00089	51		 push	 ecx
  0008a	8b ce		 mov	 ecx, esi
  0008c	f3 0f 11 04 24	 movss	 DWORD PTR [esp], xmm0
  00091	e8 00 00 00 00	 call	 ?OnProcessTraceAttack@ioTargetTrace11Dummy@@IAEXMK@Z ; ioTargetTrace11Dummy::OnProcessTraceAttack

; 163  : 		break;

  00096	eb 26		 jmp	 SHORT $LN7@OnProcessT@5
$LN4@OnProcessT@5:

; 155  : 		break;
; 156  : 	case DCTS_TRACING:
; 157  : 		OnProcessTraceTracing( fTimePerSec );

  00098	f3 0f 10 45 08	 movss	 xmm0, DWORD PTR _fTimePerSec$[ebp]
  0009d	51		 push	 ecx
  0009e	8b ce		 mov	 ecx, esi
  000a0	f3 0f 11 04 24	 movss	 DWORD PTR [esp], xmm0
  000a5	e8 00 00 00 00	 call	 ?OnProcessTraceTracing@ioTargetTrace11Dummy@@IAEXM@Z ; ioTargetTrace11Dummy::OnProcessTraceTracing

; 158  : 		break;

  000aa	eb 12		 jmp	 SHORT $LN7@OnProcessT@5
$LN5@OnProcessT@5:

; 150  : 	{
; 151  : 	case DCTS_NONE:
; 152  : 		break;
; 153  : 	case DCTS_SENSING:
; 154  : 		OnProcessTraceSensing( fTimePerSec );

  000ac	f3 0f 10 45 08	 movss	 xmm0, DWORD PTR _fTimePerSec$[ebp]
  000b1	51		 push	 ecx
  000b2	8b ce		 mov	 ecx, esi
  000b4	f3 0f 11 04 24	 movss	 DWORD PTR [esp], xmm0
  000b9	e8 00 00 00 00	 call	 ?OnProcessTraceSensing@ioTargetTrace11Dummy@@IAEXM@Z ; ioTargetTrace11Dummy::OnProcessTraceSensing
$LN7@OnProcessT@5:

; 170  : 	}
; 171  : 
; 172  : 	CheckTraceAttack();

  000be	8b ce		 mov	 ecx, esi
  000c0	e8 00 00 00 00	 call	 ?CheckTraceAttack@ioDummyChar@@IAEXXZ ; ioDummyChar::CheckTraceAttack
$LN15@OnProcessT@5:
  000c5	5f		 pop	 edi
$LN11@OnProcessT@5:
  000c6	5e		 pop	 esi

; 173  : }

  000c7	5d		 pop	 ebp
  000c8	c2 08 00	 ret	 8
?OnProcessTraceState@ioTargetTrace11Dummy@@IAEXMK@Z ENDP ; ioTargetTrace11Dummy::OnProcessTraceState
_TEXT	ENDS
EXTRN	?ProcessEffectUpdate@ioDummyChar@@IAEXM@Z:PROC	; ioDummyChar::ProcessEffectUpdate
EXTRN	?ProcessPiercingState@ioDummyChar@@IAEXM@Z:PROC	; ioDummyChar::ProcessPiercingState
EXTRN	?ProcessLoopAttackState@ioDummyChar@@IAEXMK@Z:PROC ; ioDummyChar::ProcessLoopAttackState
EXTRN	?ProcessTraceTargetAttack@ioDummyChar@@IAEXMK@Z:PROC ; ioDummyChar::ProcessTraceTargetAttack
EXTRN	?ProcessDieState@ioDummyChar@@IAEXM@Z:PROC	; ioDummyChar::ProcessDieState
EXTRN	?ProcessChargeOwnerControl@ioDummyChar@@IAEXM@Z:PROC ; ioDummyChar::ProcessChargeOwnerControl
EXTRN	?ProcessNoneDelayState@ioDummyChar@@IAEXM@Z:PROC ; ioDummyChar::ProcessNoneDelayState
; Function compile flags: /Ogsp
;	COMDAT ?ProcessState@ioTargetTrace11Dummy@@MAEXMK@Z
_TEXT	SEGMENT
_fTimerPerSec$ = 8					; size = 4
_dwPreTime$ = 12					; size = 4
?ProcessState@ioTargetTrace11Dummy@@MAEXMK@Z PROC	; ioTargetTrace11Dummy::ProcessState, COMDAT
; _this$ = ecx

; 30   : {

  00000	55		 push	 ebp
  00001	8b ec		 mov	 ebp, esp

; 31   : 	switch( m_State )

  00003	f3 0f 10 45 08	 movss	 xmm0, DWORD PTR _fTimerPerSec$[ebp]
  00008	56		 push	 esi
  00009	8b f1		 mov	 esi, ecx
  0000b	8b 86 30 02 00
	00		 mov	 eax, DWORD PTR [esi+560]
  00011	48		 dec	 eax
  00012	57		 push	 edi
  00013	83 f8 0b	 cmp	 eax, 11			; 0000000bH
  00016	0f 87 d5 00 00
	00		 ja	 $LN13@ProcessSta
  0001c	ff 24 85 00 00
	00 00		 jmp	 DWORD PTR $LN18@ProcessSta[eax*4]
$LN12@ProcessSta:

; 32   : 	{
; 33   : 	case DCS_START:
; 34   : 		OnProcessStartState();

  00023	e8 00 00 00 00	 call	 ?OnProcessStartState@ioTargetTrace11Dummy@@IAEXXZ ; ioTargetTrace11Dummy::OnProcessStartState

; 35   : 		break;

  00028	e9 c4 00 00 00	 jmp	 $LN13@ProcessSta
$LN11@ProcessSta:

; 36   : 	case DCS_DELAY:
; 37   : 		ProcessDelayState( fTimerPerSec );

  0002d	8b 06		 mov	 eax, DWORD PTR [esi]
  0002f	51		 push	 ecx
  00030	f3 0f 11 04 24	 movss	 DWORD PTR [esp], xmm0
  00035	ff 90 00 01 00
	00		 call	 DWORD PTR [eax+256]

; 38   : 		break;

  0003b	e9 b1 00 00 00	 jmp	 $LN13@ProcessSta
$LN10@ProcessSta:

; 39   : 	case DCS_NONE_DELAY:
; 40   : 		ProcessNoneDelayState( fTimerPerSec );

  00040	51		 push	 ecx
  00041	f3 0f 11 04 24	 movss	 DWORD PTR [esp], xmm0
  00046	e8 00 00 00 00	 call	 ?ProcessNoneDelayState@ioDummyChar@@IAEXM@Z ; ioDummyChar::ProcessNoneDelayState

; 41   : 		break;

  0004b	e9 a1 00 00 00	 jmp	 $LN13@ProcessSta
$LN9@ProcessSta:

; 42   : 	case DCS_MOVE:
; 43   : 		ProcessMoveState( fTimerPerSec );

  00050	8b 06		 mov	 eax, DWORD PTR [esi]
  00052	51		 push	 ecx
  00053	f3 0f 11 04 24	 movss	 DWORD PTR [esp], xmm0
  00058	ff 90 04 01 00
	00		 call	 DWORD PTR [eax+260]

; 44   : 		break;

  0005e	e9 8e 00 00 00	 jmp	 $LN13@ProcessSta
$LN8@ProcessSta:

; 45   : 	case DCS_ATTACK:
; 46   : 		CheckReservedSliding();

  00063	e8 00 00 00 00	 call	 ?CheckReservedSliding@ioDummyChar@@QAEXXZ ; ioDummyChar::CheckReservedSliding

; 47   : 		CheckExtraAniJump();

  00068	8b ce		 mov	 ecx, esi
  0006a	e8 00 00 00 00	 call	 ?CheckExtraAniJump@ioDummyChar@@IAEXXZ ; ioDummyChar::CheckExtraAniJump

; 48   : 		ProcessAttackState( fTimerPerSec, dwPreTime );

  0006f	ff 75 0c	 push	 DWORD PTR _dwPreTime$[ebp]
  00072	f3 0f 10 45 08	 movss	 xmm0, DWORD PTR _fTimerPerSec$[ebp]
  00077	8b 06		 mov	 eax, DWORD PTR [esi]
  00079	51		 push	 ecx
  0007a	8b ce		 mov	 ecx, esi
  0007c	f3 0f 11 04 24	 movss	 DWORD PTR [esp], xmm0
  00081	ff 90 0c 01 00
	00		 call	 DWORD PTR [eax+268]

; 49   : 		break;

  00087	eb 68		 jmp	 SHORT $LN13@ProcessSta
$LN7@ProcessSta:

; 50   : 	case DCS_CONTROL_ATTACK:
; 51   : 		ProcessChargeOwnerControl( fTimerPerSec );

  00089	51		 push	 ecx
  0008a	f3 0f 11 04 24	 movss	 DWORD PTR [esp], xmm0
  0008f	e8 00 00 00 00	 call	 ?ProcessChargeOwnerControl@ioDummyChar@@IAEXM@Z ; ioDummyChar::ProcessChargeOwnerControl

; 52   : 		break;

  00094	eb 5b		 jmp	 SHORT $LN13@ProcessSta
$LN6@ProcessSta:

; 53   : 	case DCS_DIE:
; 54   : 		ProcessDieState( fTimerPerSec );

  00096	51		 push	 ecx
  00097	f3 0f 11 04 24	 movss	 DWORD PTR [esp], xmm0
  0009c	e8 00 00 00 00	 call	 ?ProcessDieState@ioDummyChar@@IAEXM@Z ; ioDummyChar::ProcessDieState

; 55   : 		break;

  000a1	eb 4e		 jmp	 SHORT $LN13@ProcessSta
$LN5@ProcessSta:

; 56   : 	case DCS_TRACE:
; 57   : 		OnProcessTraceState( fTimerPerSec, dwPreTime );

  000a3	ff 75 0c	 push	 DWORD PTR _dwPreTime$[ebp]
  000a6	51		 push	 ecx
  000a7	f3 0f 11 04 24	 movss	 DWORD PTR [esp], xmm0
  000ac	e8 00 00 00 00	 call	 ?OnProcessTraceState@ioTargetTrace11Dummy@@IAEXMK@Z ; ioTargetTrace11Dummy::OnProcessTraceState

; 58   : 		break;

  000b1	eb 3e		 jmp	 SHORT $LN13@ProcessSta
$LN4@ProcessSta:

; 59   : 	case DCS_TRACE_TARGET_ATTACK:
; 60   : 		ProcessTraceTargetAttack( fTimerPerSec, dwPreTime );

  000b3	ff 75 0c	 push	 DWORD PTR _dwPreTime$[ebp]
  000b6	51		 push	 ecx
  000b7	f3 0f 11 04 24	 movss	 DWORD PTR [esp], xmm0
  000bc	e8 00 00 00 00	 call	 ?ProcessTraceTargetAttack@ioDummyChar@@IAEXMK@Z ; ioDummyChar::ProcessTraceTargetAttack

; 61   : 		break;

  000c1	eb 2e		 jmp	 SHORT $LN13@ProcessSta
$LN3@ProcessSta:

; 62   : 	case DCS_LOOP_ATTACK:
; 63   : 		CheckReservedSliding();

  000c3	e8 00 00 00 00	 call	 ?CheckReservedSliding@ioDummyChar@@QAEXXZ ; ioDummyChar::CheckReservedSliding

; 64   : 		CheckExtraAniJump();

  000c8	8b ce		 mov	 ecx, esi
  000ca	e8 00 00 00 00	 call	 ?CheckExtraAniJump@ioDummyChar@@IAEXXZ ; ioDummyChar::CheckExtraAniJump

; 65   : 		ProcessLoopAttackState( fTimerPerSec, dwPreTime );

  000cf	ff 75 0c	 push	 DWORD PTR _dwPreTime$[ebp]
  000d2	f3 0f 10 45 08	 movss	 xmm0, DWORD PTR _fTimerPerSec$[ebp]
  000d7	51		 push	 ecx
  000d8	8b ce		 mov	 ecx, esi
  000da	f3 0f 11 04 24	 movss	 DWORD PTR [esp], xmm0
  000df	e8 00 00 00 00	 call	 ?ProcessLoopAttackState@ioDummyChar@@IAEXMK@Z ; ioDummyChar::ProcessLoopAttackState

; 66   : 		break;

  000e4	eb 0b		 jmp	 SHORT $LN13@ProcessSta
$LN2@ProcessSta:

; 67   : 	case DCS_GROUND_PIERCING_ATTACK:		
; 68   : 		ProcessPiercingState( fTimerPerSec );		

  000e6	51		 push	 ecx
  000e7	f3 0f 11 04 24	 movss	 DWORD PTR [esp], xmm0
  000ec	e8 00 00 00 00	 call	 ?ProcessPiercingState@ioDummyChar@@IAEXM@Z ; ioDummyChar::ProcessPiercingState
$LN13@ProcessSta:

; 69   : 		break;
; 70   : 	}
; 71   : 
; 72   : 
; 73   : 	if( m_dwLifeTime && (DWORD)(m_dwStartTime + m_dwLifeTime) < FRAMEGETTIME() && m_State != DCS_ATTACK )

  000f1	83 be 10 0b 00
	00 00		 cmp	 DWORD PTR [esi+2832], 0
  000f8	74 30		 je	 SHORT $LN17@ProcessSta
  000fa	ff 15 00 00 00
	00		 call	 DWORD PTR __imp_?GetSingleton@ioFrameTimer@@SAAAV1@XZ
  00100	8b c8		 mov	 ecx, eax
  00102	ff 15 00 00 00
	00		 call	 DWORD PTR __imp_?GetLoopSec@ioFrameTimer@@QBEKXZ
  00108	8b 8e 14 0b 00
	00		 mov	 ecx, DWORD PTR [esi+2836]
  0010e	03 8e 10 0b 00
	00		 add	 ecx, DWORD PTR [esi+2832]
  00114	3b c8		 cmp	 ecx, eax
  00116	73 12		 jae	 SHORT $LN17@ProcessSta
  00118	83 be 30 02 00
	00 05		 cmp	 DWORD PTR [esi+560], 5
  0011f	74 09		 je	 SHORT $LN17@ProcessSta

; 74   : 		SendDieState( true );

  00121	6a 01		 push	 1
  00123	8b ce		 mov	 ecx, esi
  00125	e8 00 00 00 00	 call	 ?SendDieState@ioDummyChar@@QAEX_N@Z ; ioDummyChar::SendDieState
$LN17@ProcessSta:

; 75   : 
; 76   : 	ProcessPos( fTimerPerSec );

  0012a	f3 0f 10 45 08	 movss	 xmm0, DWORD PTR _fTimerPerSec$[ebp]
  0012f	8b 06		 mov	 eax, DWORD PTR [esi]
  00131	51		 push	 ecx
  00132	8b ce		 mov	 ecx, esi
  00134	f3 0f 11 04 24	 movss	 DWORD PTR [esp], xmm0
  00139	ff 90 fc 00 00
	00		 call	 DWORD PTR [eax+252]

; 77   : 	ProcessEffectUpdate( fTimerPerSec );

  0013f	f3 0f 10 45 08	 movss	 xmm0, DWORD PTR _fTimerPerSec$[ebp]
  00144	51		 push	 ecx
  00145	8b ce		 mov	 ecx, esi
  00147	f3 0f 11 04 24	 movss	 DWORD PTR [esp], xmm0
  0014c	e8 00 00 00 00	 call	 ?ProcessEffectUpdate@ioDummyChar@@IAEXM@Z ; ioDummyChar::ProcessEffectUpdate

; 78   : 	ProcessAreaWeapon( fTimerPerSec );

  00151	f3 0f 10 45 08	 movss	 xmm0, DWORD PTR _fTimerPerSec$[ebp]
  00156	51		 push	 ecx
  00157	8b ce		 mov	 ecx, esi
  00159	f3 0f 11 04 24	 movss	 DWORD PTR [esp], xmm0
  0015e	e8 00 00 00 00	 call	 ?ProcessAreaWeapon@ioTargetTrace11Dummy@@IAEXM@Z ; ioTargetTrace11Dummy::ProcessAreaWeapon
  00163	5f		 pop	 edi
  00164	5e		 pop	 esi

; 79   : }

  00165	5d		 pop	 ebp
  00166	c2 08 00	 ret	 8
  00169	8d 49 00	 npad	 3
$LN18@ProcessSta:
  0016c	00 00 00 00	 DD	 $LN12@ProcessSta
  00170	00 00 00 00	 DD	 $LN11@ProcessSta
  00174	00 00 00 00	 DD	 $LN9@ProcessSta
  00178	00 00 00 00	 DD	 $LN13@ProcessSta
  0017c	00 00 00 00	 DD	 $LN8@ProcessSta
  00180	00 00 00 00	 DD	 $LN6@ProcessSta
  00184	00 00 00 00	 DD	 $LN10@ProcessSta
  00188	00 00 00 00	 DD	 $LN7@ProcessSta
  0018c	00 00 00 00	 DD	 $LN4@ProcessSta
  00190	00 00 00 00	 DD	 $LN5@ProcessSta
  00194	00 00 00 00	 DD	 $LN3@ProcessSta
  00198	00 00 00 00	 DD	 $LN2@ProcessSta
?ProcessState@ioTargetTrace11Dummy@@MAEXMK@Z ENDP	; ioTargetTrace11Dummy::ProcessState
_TEXT	ENDS
END
